(dp0
Vczh1yu2
p1
I1
s.(dp0
Vczh1yu2
p1
I1
sVczzh63l
p2
I1
s.(dp0
Vczzifnr
p1
I1
sVczh1yu2
p2
I1
s.(dp0
Vczh1yu2
p1
I1
sVd0yhqu1
p2
I1
s.(dp0
Vd21b5hb
p1
I1
sVczh1yu2
p2
I1
s.(dp0
Vd21b5hb
p1
I1
sVczh1yu2
p2
I1
s.(dp0
Vd21b5hb
p1
I1
sVczh1yu2
p2
I1
s.(dp0
Vd21b5hb
p1
I1
sVczh1yu2
p2
I1
s.(dp0
Vczh1yu2
p1
I1
sVd2cmzhx
p2
I1
s.(dp0
Vd2duykf
p1
I1
sVczh1yu2
p2
I1
s.(dp0
Vczh1yu2
p1
I1
sVd2niep3
p2
I1
s.(dp0
Vd2pse6v
p1
I1
sVczh1yu2
p2
I1
s.(dp0
Vd42t1xa
p1
I1
sVczh1yu2
p2
I1
s.(dp0
Vczh1yu2
p1
I1
sVd5prpeb
p2
I1
s.(dp0
Vczh1yu2
p1
I1
sVd73gfva
p2
I1
s.(dp0
Vczh1yu2
p1
I1
sVd7909p9
p2
I1
s.(dp0
Vdcee677
p1
I1
sVczh1yu2
p2
I1
s.(dp0
Vdepf4y1
p1
I1
sVczh1yu2
p2
I1
s.(dp0
Vdepf4y1
p1
I1
sVczh1yu2
p2
I1
s.(dp0
Vczh1yu2
p1
I1
sVdepm65q
p2
I1
s.(dp0
Vczh1yu2
p1
I1
sVdepz06m
p2
I1
s.(dp0
Vczh1yu2
p1
I1
sVdf3s2xd
p2
I1
s.(dp0
Vczh1yu2
p1
I1
sVdf3s2xd
p2
I1
s.(dp0
Vczh1yu2
p1
I1
sVdf884c6
p2
I1
s.(dp0
Vdfdhjxv
p1
I1
sVczh1yu2
p2
I1
s.(dp0
Vczh1yu2
p1
I1
sVdgietrk
p2
I1
s.(dp0
Vczh1yu2
p1
I1
sVdgietrk
p2
I1
s.(dp0
Vczh1yu2
p1
I1
sVdgpu58m
p2
I1
s.(dp0
Vdi5bf9y
p1
I1
sVczh1yu2
p2
I1
s.(dp0
Vdi6htp9
p1
I1
sVczh1yu2
p2
I1
s.(dp0
Vdir9t3x
p1
I1
sVczh1yu2
p2
I1
s.(dp0
Vdj0ot64
p1
I1
sVczh1yu2
p2
I1
s.(dp0
Vdmpkzyp
p1
I1
sVczh1yu2
p2
I1
s.(dp0
Vdqebkx0
p1
I1
sVczh1yu2
p2
I1
s.