(dp0
Vcyi2nxe
p1
I1
s.(dp0
Vcyjq2bc
p1
I1
sVcyi2nxe
p2
I1
s.(dp0
Vcylnrne
p1
I1
sVcyi2nxe
p2
I1
s.(dp0
Vcyo5aeu
p1
I1
sVcyi2nxe
p2
I1
s.(dp0
Vcyul96e
p1
I1
sVcyi2nxe
p2
I1
s.(dp0
Vcyvxejw
p1
I1
sVcyi2nxe
p2
I1
s.(dp0
Vcz1no3n
p1
I1
sVcyi2nxe
p2
I1
s.(dp0
Vcz1vb7k
p1
I1
sVcyi2nxe
p2
I1
s.(dp0
Vcz25xv6
p1
I1
sVcyi2nxe
p2
I1
s.(dp0
Vcz3jpur
p1
I1
sVcyi2nxe
p2
I1
s.(dp0
Vczdba5a
p1
I1
sVcyi2nxe
p2
I1
s.(dp0
Vczihycx
p1
I1
sVcyi2nxe
p2
I1
s.(dp0
Vczoqijk
p1
I1
sVcyi2nxe
p2
I1
s.(dp0
Vd0157lp
p1
I1
sVcyi2nxe
p2
I1
s.(dp0
Vd12hekh
p1
I1
sVcyi2nxe
p2
I1
s.(dp0
Vd1fuxxd
p1
I1
sVcyi2nxe
p2
I1
s.(dp0
Vd1kz77a
p1
I1
sVcyi2nxe
p2
I1
s.(dp0
Vd1pw33b
p1
I1
sVcyi2nxe
p2
I1
s.(dp0
Vd1q2mk2
p1
I1
sVcyi2nxe
p2
I1
s.(dp0
Vd1u7rfd
p1
I1
sVcyi2nxe
p2
I1
s.(dp0
Vd1yzbi6
p1
I1
sVcyi2nxe
p2
I1
s.(dp0
Vd20399h
p1
I1
sVcyi2nxe
p2
I1
s.(dp0
Vd28dyma
p1
I1
sVcyi2nxe
p2
I1
s.(dp0
Vd28gjvj
p1
I1
sVcyi2nxe
p2
I1
s.(dp0
Vd2aa7ac
p1
I1
sVcyi2nxe
p2
I1
s.(dp0
Vd2bkphd
p1
I1
sVcyi2nxe
p2
I1
s.(dp0
Vd2ox3sn
p1
I1
sVcyi2nxe
p2
I1
s.(dp0
Vd2rarqk
p1
I1
sVcyi2nxe
p2
I1
s.(dp0
Vd2rseun
p1
I1
sVcyi2nxe
p2
I1
s.(dp0
Vd2ui8c6
p1
I1
sVcyi2nxe
p2
I1
s.(dp0
Vd31sw8j
p1
I1
sVcyi2nxe
p2
I1
s.(dp0
Vd3598f2
p1
I1
sVcyi2nxe
p2
I1
s.(dp0
Vd38xh1k
p1
I1
sVcyi2nxe
p2
I1
s.(dp0
Vd3j7vrp
p1
I1
sVcyi2nxe
p2
I1
s.(dp0
Vd3n6kiz
p1
I1
sVcyi2nxe
p2
I1
s.(dp0
Vd3ngo05
p1
I1
sVcyi2nxe
p2
I1
s.(dp0
Vd3wyvpv
p1
I1
sVcyi2nxe
p2
I1
s.(dp0
Vd42nwvo
p1
I1
sVcyi2nxe
p2
I1
s.(dp0
Vd465g8q
p1
I1
sVcyi2nxe
p2
I1
s.(dp0
Vd474g3c
p1
I1
sVcyi2nxe
p2
I1
s.(dp0
Vd4fmz8f
p1
I1
sVcyi2nxe
p2
I1
s.(dp0
Vd4kpzad
p1
I1
sVcyi2nxe
p2
I1
s.(dp0
Vd4mj2sx
p1
I1
sVcyi2nxe
p2
I1
s.(dp0
Vd56fuhz
p1
I1
sVcyi2nxe
p2
I1
s.(dp0
Vd59l9rk
p1
I1
sVcyi2nxe
p2
I1
s.(dp0
Vd5c7mph
p1
I1
sVcyi2nxe
p2
I1
s.(dp0
Vd5ld3hx
p1
I1
sVcyi2nxe
p2
I1
s.(dp0
Vd5x7gxh
p1
I1
sVcyi2nxe
p2
I1
s.(dp0
Vd6idtuq
p1
I1
sVcyi2nxe
p2
I1
s.(dp0
Vd6lshh4
p1
I1
sVcyi2nxe
p2
I1
s.(dp0
Vd77sb8m
p1
I1
sVcyi2nxe
p2
I1
s.(dp0
Vd7k09om
p1
I1
sVcyi2nxe
p2
I1
s.(dp0
Vd7rxsfa
p1
I1
sVcyi2nxe
p2
I1
s.(dp0
Vd7vejfx
p1
I1
sVcyi2nxe
p2
I1
s.(dp0
Vd82ihdb
p1
I1
sVcyi2nxe
p2
I1
s.(dp0
Vd82ihdb
p1
I1
sVcyi2nxe
p2
I1
s.(dp0
Vd86kuon
p1
I1
sVcyi2nxe
p2
I1
s.(dp0
Vd8krlrn
p1
I1
sVcyi2nxe
p2
I1
s.(dp0
Vd8nej0m
p1
I1
sVcyi2nxe
p2
I1
s.(dp0
Vd8scwd6
p1
I1
sVcyi2nxe
p2
I1
s.(dp0
Vd8t9ekg
p1
I1
sVcyi2nxe
p2
I1
s.(dp0
Vd8utl1b
p1
I1
sVcyi2nxe
p2
I1
s.(dp0
Vd9czeva
p1
I1
sVcyi2nxe
p2
I1
s.(dp0
Vd9fr336
p1
I1
sVcyi2nxe
p2
I1
s.(dp0
Vd9itwc1
p1
I1
sVcyi2nxe
p2
I1
s.(dp0
Vd9nhk9j
p1
I1
sVcyi2nxe
p2
I1
s.(dp0
Vd9p163y
p1
I1
sVcyi2nxe
p2
I1
s.(dp0
Vd9wab2q
p1
I1
sVcyi2nxe
p2
I1
s.(dp0
Vd9wab2q
p1
I1
sVcyi2nxe
p2
I1
s.(dp0
Vdahghyp
p1
I1
sVcyi2nxe
p2
I1
s.(dp0
Vdavwf9h
p1
I1
sVcyi2nxe
p2
I1
s.(dp0
Vday0gbh
p1
I1
sVcyi2nxe
p2
I1
s.(dp0
Vday0gbh
p1
I1
sVcyi2nxe
p2
I1
s.(dp0
Vdb0ari0
p1
I1
sVcyi2nxe
p2
I1
s.(dp0
Vdb8cprl
p1
I1
sVcyi2nxe
p2
I1
s.(dp0
Vdbebr7m
p1
I1
sVcyi2nxe
p2
I1
s.(dp0
Vdbhjnih
p1
I1
sVcyi2nxe
p2
I1
s.(dp0
Vdblmd4i
p1
I1
sVcyi2nxe
p2
I1
s.(dp0
Vdbt5vms
p1
I1
sVcyi2nxe
p2
I1
s.(dp0
Vdbziazj
p1
I1
sVcyi2nxe
p2
I1
s.(dp0
Vdc8j4se
p1
I1
sVcyi2nxe
p2
I1
s.(dp0
Vdcnoq3d
p1
I1
sVcyi2nxe
p2
I1
s.(dp0
Vdcqd0wn
p1
I1
sVcyi2nxe
p2
I1
s.(dp0
Vdd3e8u5
p1
I1
sVcyi2nxe
p2
I1
s.(dp0
Vdd4iqse
p1
I1
sVcyi2nxe
p2
I1
s.(dp0
Vddj00j0
p1
I1
sVcyi2nxe
p2
I1
s.(dp0
Vddj832t
p1
I1
sVcyi2nxe
p2
I1
s.(dp0
Vde9ow19
p1
I1
sVcyi2nxe
p2
I1
s.(dp0
Vdebnr1n
p1
I1
sVcyi2nxe
p2
I1
s.(dp0
Vdes47om
p1
I1
sVcyi2nxe
p2
I1
s.(dp0
Vdevvpcm
p1
I1
sVcyi2nxe
p2
I1
s.(dp0
Vdf1zyne
p1
I1
sVcyi2nxe
p2
I1
s.(dp0
Vdf7rps7
p1
I1
sVcyi2nxe
p2
I1
s.(dp0
Vdf9ywua
p1
I1
sVcyi2nxe
p2
I1
s.(dp0
Vdfey90i
p1
I1
sVcyi2nxe
p2
I1
s.(dp0
Vdfmi0bj
p1
I1
sVcyi2nxe
p2
I1
s.(dp0
Vdfp8maa
p1
I1
sVcyi2nxe
p2
I1
s.(dp0
Vdfr1ums
p1
I1
sVcyi2nxe
p2
I1
s.(dp0
Vdfriizf
p1
I1
sVcyi2nxe
p2
I1
s.(dp0
Vdftayyf
p1
I1
sVcyi2nxe
p2
I1
s.(dp0
Vdftbgb6
p1
I1
sVcyi2nxe
p2
I1
s.(dp0
Vdfu9dtk
p1
I1
sVcyi2nxe
p2
I1
s.(dp0
Vdfz7y0l
p1
I1
sVcyi2nxe
p2
I1
s.(dp0
Vdg3ad32
p1
I1
sVcyi2nxe
p2
I1
s.(dp0
Vdg5phjt
p1
I1
sVcyi2nxe
p2
I1
s.(dp0
Vdhfz5wo
p1
I1
sVcyi2nxe
p2
I1
s.(dp0
Vdhr8ob7
p1
I1
sVcyi2nxe
p2
I1
s.(dp0
Vdhuj9is
p1
I1
sVcyi2nxe
p2
I1
s.(dp0
Vdh(dp0
Vdt4dv18
p1
I1
sVcyi2nxe
p2
I1
s.