(dp0
Vd1t8sfu
p1
I1
sVcyl1b32
p2
I1
sVd0l5ftx
p3
I1
sVdd4bwix
p4
I1
sVdhpw8yk
p5
I1
sVdhch5nt
p6
I1
sVdik95sd
p7
I1
sVd0x3tpb
p8
I1
sVd2ai7t1
p9
I1
sVd79t7zz
p10
I1
sVdeug0gz
p11
I3
sVd50iskv
p12
I1
sVd0tqn15
p13
I1
sVd19foyg
p14
I1
sVd0dhpap
p15
I1
sVczmji7p
p16
I1
sVdpe6l3r
p17
I1
sVdhmchpz
p18
I1
sVd97qnp8
p19
I1
sVd5eww4j
p20
I1
sVdfyq259
p21
I1
sVd31o2r2
p22
I1
sVdo66alz
p23
I1
sVdk7349s
p24
I1
s.