(dp0
Vcyv5w9f
p1
I1
s.(dp0
Vcyxt381
p1
I1
sVcyv5w9f
p2
I1
s.(dp0
Vczphth8
p1
I1
sVcyv5w9f
p2
I1
s.(dp0
Vczx3338
p1
I1
sVcyv5w9f
p2
I1
s.(dp0
Vd0ha5q0
p1
I1
sVcyv5w9f
p2
I1
s.(dp0
Vd1yikoo
p1
I1
sVcyv5w9f
p2
I1
s.(dp0
Vd1yqgta
p1
I1
sVcyv5w9f
p2
I1
s.(dp0
Vd35mcu8
p1
I1
sVcyv5w9f
p2
I1
s.(dp0
Vdbihx26
p1
I1
sVcyv5w9f
p2
I1
s.(dp0
Vdcf7tlv
p1
I1
sVcyv5w9f
p2
I1
s.(dp0
Vcyv5w9f
p1
I1
sVddbez11
p2
I1
s.(dp0
Vdf6c96e
p1
I1
sVcyv5w9f
p2
I1
s.(dp0
Vdf6ctj0
p1
I1
sVcyv5w9f
p2
I1
s.(dp0
Vdgfx67j
p1
I1
sVcyv5w9f
p2
I1
s.(dp0
Vdiqrwwb
p1
I1
sVcyv5w9f
p2
I1
s.(dp0
Vdkvojua
p1
I1
sVcyv5w9f
p2
I1
s.(dp0
Vdkvojua
p1
I1
sVcyv5w9f
p2
I1
s.(dp0
Vdof54tm
p1
I1
sVcyv5w9f
p2
I1
s.(dp0
Vdscjslp
p1
I1
sVcyv5w9f
p2
I1
s.