(dp0
Vd1omqj7
p1
I1
sVd35gm4j
p2
I1
sVdjdai49
p3
I1
sVdcro2xe
p4
I1
sVd83wbwx
p5
I1
sVd7f5dh3
p6
I1
sVd85uj8d
p7
I1
sVdbaay0h
p8
I1
sVdqj9fub
p9
I1
sVdandzrh
p10
I1
sVdklo4i8
p11
I1
sVdr0lg0s
p12
I1
sVd6j97en
p13
I1
s.