(dp0
Vcym3w2f
p1
I1
s.(dp0
Vcym3w2f
p1
I1
sVcz0h5dh
p2
I1
s.(dp0
Vcym3w2f
p1
I1
sVcz0j4fy
p2
I1
s.(dp0
Vcym3w2f
p1
I1
sVcz8itdc
p2
I1
s.(dp0
Vcym3w2f
p1
I1
sVczamsmn
p2
I1
s.(dp0
Vcym3w2f
p1
I1
sVczfd38u
p2
I1
s.(dp0
Vcym3w2f
p1
I1
sVd0440g0
p2
I1
s.(dp0
Vcym3w2f
p1
I1
sVd08amjr
p2
I1
s.(dp0
Vcym3w2f
p1
I1
sVd08amjr
p2
I1
s.(dp0
Vcym3w2f
p1
I1
sVd14apk3
p2
I1
s.(dp0
Vcym3w2f
p1
I1
sVd1gk3ij
p2
I1
s.(dp0
Vcym3w2f
p1
I1
sVd1yzyz6
p2
I1
s.(dp0
Vcym3w2f
p1
I1
sVd22d47b
p2
I1
s.(dp0
Vcym3w2f
p1
I1
sVd2pwirt
p2
I1
s.(dp0
Vcym3w2f
p1
I1
sVd3cks07
p2
I1
s.(dp0
Vcym3w2f
p1
I1
sVd3q8qww
p2
I1
s.(dp0
Vcym3w2f
p1
I1
sVd3xhgeg
p2
I1
s.(dp0
Vcym3w2f
p1
I1
sVd5gvptr
p2
I1
s.(dp0
Vcym3w2f
p1
I1
sVd5uu8ps
p2
I1
s.(dp0
Vcym3w2f
p1
I1
sVd6wzb0n
p2
I1
s.(dp0
Vcym3w2f
p1
I1
sVd7b4pms
p2
I1
s.(dp0
Vcym3w2f
p1
I1
sVd7c7zqm
p2
I1
s.(dp0
Vcym3w2f
p1
I1
sVd826eml
p2
I1
s.(dp0
Vcym3w2f
p1
I1
sVd8532ue
p2
I1
s.(dp0
Vcym3w2f
p1
I1
sVd9lc8hj
p2
I1
s.(dp0
Vcym3w2f
p1
I1
sVd9n4plp
p2
I1
s.(dp0
Vcym3w2f
p1
I1
sVda29ka8
p2
I1
s.(dp0
Vcym3w2f
p1
I1
sVda29ka8
p2
I1
s.(dp0
Vcym3w2f
p1
I1
sVda29qlb
p2
I1
s.(dp0
Vcym3w2f
p1
I1
sVdapgvdc
p2
I1
s.(dp0
Vcym3w2f
p1
I1
sVdax3ofn
p2
I1
s.(dp0
Vcym3w2f
p1
I1
sVdbprgxa
p2
I1
s.(dp0
Vcym3w2f
p1
I1
sVdbprgxa
p2
I1
s.(dp0
Vcym3w2f
p1
I1
sVdbwhb7b
p2
I1
s.(dp0
Vcym3w2f
p1
I1
sVdcbjk00
p2
I1
s.(dp0
Vcym3w2f
p1
I1
sVdczg6xg
p2
I1
s.(dp0
Vcym3w2f
p1
I1
sVdd7mn8j
p2
I1
s.(dp0
Vcym3w2f
p1
I1
sVddbwvgx
p2
I1
s.(dp0
Vcym3w2f
p1
I1
sVddspxwr
p2
I1
s.(dp0
Vcym3w2f
p1
I1
sVddu0r3n
p2
I1
s.(dp0
Vcym3w2f
p1
I1
sVdeaprra
p2
I1
s.(dp0
Vcym3w2f
p1
I1
sVdf17jjl
p2
I1
s.(dp0
Vcym3w2f
p1
I1
sVdf3xbdz
p2
I1
s.(dp0
Vcym3w2f
p1
I1
sVdfj8pa4
p2
I1
s.(dp0
Vcym3w2f
p1
I1
sVdgk9ivm
p2
I1
s.(dp0
Vcym3w2f
p1
I1
sVdgoy1i3
p2
I1
s.(dp0
Vcym3w2f
p1
I1
sVdgq6nuk
p2
I1
s.(dp0
Vcym3w2f
p1
I1
sVdgropgh
p2
I1
s.(dp0
Vcym3w2f
p1
I1
sVdhk5ejy
p2
I1
s.(dp0
Vcym3w2f
p1
I1
sVdi4tp4v
p2
I1
s.(dp0
Vcym3w2f
p1
I1
sVdi7y6ni
p2
I1
s.(dp0
Vcym3w2f
p1
I1
sVdi865t6
p2
I1
s.(dp0
Vcym3w2f
p1
I1
sVdj1yf5z
p2
I1
s.(dp0
Vcym3w2f
p1
I1
sVdj7qx72
p2
I1
s.(dp0
Vcym3w2f
p1
I1
sVdjy8kgn
p2
I1
s.(dp0
Vcym3w2f
p1
I1
sVdkevi9q
p2
I1
s.(dp0
Vcym3w2f
p1
I1
sVdmei4k1
p2
I1
s.(dp0
Vcym3w2f
p1
I1
sVdmei4k1
p2
I1
s.(dp0
Vcym3w2f
p1
I1
sVdmei4k1
p2
I1
s.(dp0
Vcym3w2f
p1
I1
sVdn7m79u
p2
I1
s.(dp0
Vcym3w2f
p1
I1
sVdnj7ms2
p2
I1
s.(dp0
Vcym3w2f
p1
I1
sVdo9yic4
p2
I1
s.(dp0
Vcym3w2f
p1
I1
sVdo9yic4
p2
I1
s.(dp0
Vcym3w2f
p1
I1
sVdoahmg1
p2
I1
s.(dp0
Vcym3w2f
p1
I1
sVdoazrmm
p2
I1
s.(dp0
Vcym3w2f
p1
I1
sVdon1ywc
p2
I1
s.(dp0
Vcym3w2f
p1
I1
sVdp9annp
p2
I1
s.(dp0
Vcym3w2f
p1
I1
sVdp9annp
p2
I1
s.(dp0
Vcym3w2f
p1
I1
sVdppnv35
p2
I1
s.(dp0
Vcym3w2f
p1
I1
sVdqpe4im
p2
I1
s.(dp0
Vcym3w2f
p1
I1
sVdresskt
p2
I1
s.(dp0
Vcym3w2f
p1
I1
sVdrfhmuf
p2
I1
s.(dp0
Vcym3w2f
p1
I1
sVdrtljvc
p2
I1
s.(dp0
Vcym3w2f
p1
I1
sVdt0w1x1
p2
I1
s.