(dp0
Vd63xldr
p1
I1
sVd1aw08y
p2
I1
sVd7rxq1a
p3
I1
sVdehdisx
p4
I1
sVd37o7p5
p5
I1
sVd9cyynr
p6
I1
sVd9n6966
p7
I2
sVdho5e2j
p8
I1
sVczabgbl
p9
I1
sVdtffkjc
p10
I1
sVdo18yeh
p11
I1
sVd8ghlno
p12
I1
sVdgs3cnc
p13
I1
sVdhdfkq0
p14
I1
sVdc5ka88
p15
I1
sVczgjwn6
p16
I1
sVdfickko
p17
I1
sVd8ql566
p18
I1
sVdiohyeb
p19
I1
sVd1iraiz
p20
I1
sVdgg4ke3
p21
I1
sVdd6t358
p22
I1
sVd2kk7a3
p23
I1
sVd97c9c7
p24
I1
sVdbnsxtp
p25
I1
sVdq3zhev
p26
I1
sVdgq5wut
p27
I3
sVd3dcgh6
p28
I1
sVd9mmf14
p29
I1
sVdgj2xdc
p30
I1
sVd9d36di
p31
I1
sVczbtaes
p32
I1
sVddd7enf
p33
I1
sVddw2q0k
p34
I1
sVdfic932
p35
I1
sVdb7ekaa
p36
I1
sVd7v8vn5
p37
I1
sVd1ojgxq
p38
I1
sVd254j0k
p39
I1
sVdabtrxb
p40
I1
sVd5g040f
p41
I1
sVdghu1t7
p42
I1
sVd7qkchs
p43
I1
sVddzj2m5
p44
I1
s.