(dp0
Vdijssmn
p1
I1
sVd40r5e8
p2
I1
sVdo9os7t
p3
I1
sVda6sct6
p4
I1
sVd13e8ln
p5
I1
sVd64ri0z
p6
I1
sVd035p3e
p7
I1
sVd28ag09
p8
I1
sVdjz2fvo
p9
I1
sVd5o022h
p10
I1
sVdbwdn8f
p11
I1
sVdnsz382
p12
I1
sVdjeqq0p
p13
I1
sVdnjhoga
p14
I1
sVczi883h
p15
I1
sVd2572fk
p16
I1
sVczm67qc
p17
I2
sVdrumtgh
p18
I1
s.