(dp0
Vd5poaca
p1
I1
sVdtiy2s4
p2
I1
sVda7ouzo
p3
I1
sVd595yr1
p4
I1
sVd72g1f3
p5
I1
sVda7xl74
p6
I1
sVczdnjt6
p7
I1
sVdfaf6dz
p8
I1
sVdjjezib
p9
I1
sVd9iv94l
p10
I1
sVddux4c0
p11
I1
sVd6tfta4
p12
I1
sVdbom6g8
p13
I1
sVd0zmeca
p14
I1
s.