(dp0
Vd8t4yfw
p1
I1
sVd2jo89m
p2
I1
sVdtbciw7
p3
I1
sVddlqklm
p4
I1
sVdc4rkff
p5
I1
sVd06w748
p6
I1
sVdt7885o
p7
I3
sVd7usc5w
p8
I1
sVd1u49p0
p9
I1
sVd3zg1a3
p10
I1
sVd266a8z
p11
I3
sVdb3ku67
p12
I1
sVcyjkxue
p13
I1
sVdp8oz11
p14
I1
sVd0knyta
p15
I1
sVddlf043
p16
I1
sVd43agxp
p17
I3
sVd44n4u6
p18
I1
sVdr76bm9
p19
I1
sVdau4kfa
p20
I1
sVdqvri0w
p21
I1
sVd2vb64v
p22
I1
sVda6swtj
p23
I1
sVdsrzvmd
p24
I1
sVd3pnj50
p25
I2
sVde9f7my
p26
I1
sVdfdmq4t
p27
I2
sVdseth3y
p28
I1
sVdpkcve7
p29
I2
sVd5u0i3s
p30
I1
sVder03ut
p31
I1
s.