(dp0
Vd0dgn30
p1
I1
sVdn7htkm
p2
I1
sVd9fxkwi
p3
I1
sVd80gggm
p4
I1
sVdsml7e3
p5
I1
sVdmqbvah
p6
I1
sVdi0ipvb
p7
I1
sVd9fxpx8
p8
I3
sVddtabf3
p9
I1
sVdjxwbs7
p10
I1
sVde4m4kx
p11
I1
sVd6z9h2i
p12
I1
sVd90g36k
p13
I2
s.