(dp0
Vdo7w8f7
p1
I1
sVd79o1fm
p2
I6
sVdd5fzlw
p3
I1
sVd1tmgfu
p4
I1
sVd79b8p8
p5
I1
sVd2fwz3r
p6
I1
sVd3hhbpe
p7
I1
sVd1rftru
p8
I2
sVd2xcmwd
p9
I1
sVdcgg33n
p10
I1
sVd5vmc8h
p11
I1
sVdte1xy1
p12
I1
sVdjsgo3z
p13
I1
sVd5yrf8c
p14
I1
sVdol2v0i
p15
I3
sVd27mfrq
p16
I1
sVds8u6f7
p17
I1
sVdivppxd
p18
I1
sVdcx2vxv
p19
I1
sVdh2h0wu
p20
I1
sVdmfzdjs
p21
I2
sVdmvz6sm
p22
I1
sVdgm396c
p23
I1
sVd61upc2
p24
I1
sVdat3yu4
p25
I1
sVdmou70u
p26
I1
sVddwe7rq
p27
I1
sVdjsfj8n
p28
I1
sVdhu8u2w
p29
I2
sVdry9p38
p30
I1
sVdgx8a3d
p31
I1
sVd1o12ox
p32
I1
sVd7mj4f7
p33
I1
sVdsr1kma
p34
I1
sVddlylfr
p35
I1
sVcypik51
p36
I1
sVd1ykjoa
p37
I1
sVdj94834
p38
I1
sVdmtbph4
p39
I1
sVd0teba7
p40
I1
sVd7hzeco
p41
I1
sVdcb95am
p42
I1
sVdifkqj9
p43
I1
sVdbmmbpl
p44
I1
sVdat3ivt
p45
I1
sVdr1ci6t
p46
I1
sVd19wwaj
p47
I1
sVdipxhex
p48
I1
sVd69x0aj
p49
I1
sVdg7c9ov
p50
I1
sVdd83et4
p51
I1
sVdd83ewz
p52
I1
sVd2m1yg1
p53
I1
sVd3urh3d
p54
I3
sVdpvcv28
p55
I1
sVcyly7rx
p56
I1
sVdk3f6hj
p57
I1
sVdqnkfde
p58
I1
sVd107v07
p59
I2
sVdqbnoo4
p60
I1
sVdgd0knf
p61
I1
sVdkp18dg
p62
I2
sVdafn49v
p63
I1
sVdqzx9pq
p64
I1
sVdg71eks
p65
I3
sVdjd0b65
p66
I1
sVdd5juc5
p67
I1
sVd27h4pd
p68
I1
sVdij0ydg
p69
I1
sVdio1d5n
p70
I1
sVdo7qq7n
p71
I1
sVdnuqxf2
p72
I1
s.