(dp0
Vcyipmue
p1
I1
s.(dp0
Vcyipmue
p1
I1
sVcyj56fr
p2
I1
s.(dp0
Vcyipmue
p1
I1
sVcylqr0n
p2
I1
s.(dp0
Vcyipmue
p1
I1
sVcyo8ghm
p2
I1
s.(dp0
Vcyipmue
p1
I1
sVcyoaona
p2
I1
s.(dp0
Vcyipmue
p1
I1
sVcyoxb70
p2
I1
s.(dp0
Vcyipmue
p1
I1
sVcypczks
p2
I1
s.(dp0
Vcyipmue
p1
I1
sVcyqnps3
p2
I1
s.(dp0
Vcyipmue
p1
I1
sVcyscugn
p2
I1
s.(dp0
Vcyipmue
p1
I1
sVcywp6rh
p2
I1
s.(dp0
Vcyipmue
p1
I1
sVcz0lfn9
p2
I1
s.(dp0
Vcyipmue
p1
I1
sVcz0prbc
p2
I1
s.(dp0
Vcyipmue
p1
I1
sVcz176xu
p2
I1
s.(dp0
Vcyipmue
p1
I1
sVcz1pswa
p2
I1
s.(dp0
Vcyipmue
p1
I1
sVcz2s7qx
p2
I1
s.(dp0
Vcyipmue
p1
I1
sVcz4zhri
p2
I1
s.(dp0
Vcyipmue
p1
I1
sVcz809nb
p2
I1
s.(dp0
Vcyipmue
p1
I1
sVczbofzc
p2
I1
s.(dp0
Vcyipmue
p1
I1
sVczc5vbo
p2
I1
s.(dp0
Vcyipmue
p1
I1
sVczgcd6s
p2
I1
s.(dp0
Vcyipmue
p1
I1
sVczgk7zo
p2
I1
s.(dp0
Vcyipmue
p1
I1
sVczgnm9l
p2
I1
s.(dp0
Vcyipmue
p1
I1
sVczgv8k9
p2
I1
s.(dp0
Vcyipmue
p1
I1
sVczgvqpi
p2
I1
s.(dp0
Vcyipmue
p1
I1
sVczgxrpx
p2
I1
s.(dp0
Vcyipmue
p1
I1
sVczgxrpx
p2
I1
s.(dp0
Vcyipmue
p1
I1
sVczh31nb
p2
I1
s.(dp0
Vcyipmue
p1
I1
sVcziowq3
p2
I1
s.(dp0
Vcyipmue
p1
I1
sVczjcxda
p2
I1
s.(dp0
Vcyipmue
p1
I1
sVczl7lis
p2
I1
s.(dp0
Vcyipmue
p1
I1
sVczlnskl
p2
I1
s.(dp0
Vcyipmue
p1
I1
sVczp0bhn
p2
I1
s.(dp0
Vcyipmue
p1
I1
sVczpr8rj
p2
I1
s.(dp0
Vczqa3lk
p1
I1
sVcyipmue
p2
I1
s.(dp0
Vcyipmue
p1
I1
sVczr8u1r
p2
I1
s.(dp0
Vcyipmue
p1
I1
sVczs20uh
p2
I1
s.(dp0
Vcyipmue
p1
I1
sVczymwwa
p2
I1
s.(dp0
Vd0012uy
p1
I1
sVcyipmue
p2
I1
s.(dp0
Vcyipmue
p1
I1
sVd006bjh
p2
I1
s.(dp0
Vcyipmue
p1
I1
sVd00hphb
p2
I1
s.(dp0
Vcyipmue
p1
I1
sVd00hpxn
p2
I1
s.(dp0
Vcyipmue
p1
I1
sVd00lqrw
p2
I1
s.(dp0
Vcyipmue
p1
I1
sVd0157lp
p2
I1
s.(dp0
Vcyipmue
p1
I1
sVd04ckrw
p2
I1
s.(dp0
Vcyipmue
p1
I1
sVd074bpq
p2
I1
s.(dp0
Vcyipmue
p1
I1
sVd077kkc
p2
I1
s.(dp0
Vcyipmue
p1
I1
sVd0a1rcz
p2
I1
s.(dp0
Vcyipmue
p1
I1
sVd0advs0
p2
I1
s.(dp0
Vcyipmue
p1
I1
sVd0be7g3
p2
I1
s.(dp0
Vcyipmue
p1
I1
sVd0d0xc9
p2
I1
s.(dp0
Vcyipmue
p1
I1
sVd0i99ew
p2
I1
s.(dp0
Vcyipmue
p1
I1
sVd0i99ew
p2
I1
s.(dp0
Vcyipmue
p1
I1
sVd0m5iib
p2
I1
s.(dp0
Vcyipmue
p1
I1
sVd0ojru9
p2
I1
s.(dp0
Vcyipmue
p1
I1
sVd0pyney
p2
I1
s.(dp0
Vd0q451p
p1
I1
sVcyipmue
p2
I1
s.(dp0
Vcyipmue
p1
I1
sVd0sx60e
p2
I1
s.(dp0
Vcyipmue
p1
I1
sVd0tfwed
p2
I1
s.(dp0
Vcyipmue
p1
I1
sVd0u2lyx
p2
I1
s.(dp0
Vcyipmue
p1
I1
sVd0vovzt
p2
I1
s.(dp0
Vcyipmue
p1
I1
sVd0ydkp1
p2
I1
s.(dp0
Vcyipmue
p1
I1
sVd0zl4h5
p2
I1
s.(dp0
Vcyipmue
p1
I1
sVd0zl4h5
p2
I1
s.(dp0
Vcyipmue
p1
I1
sVd10h6t0
p2
I1
s.(dp0
Vcyipmue
p1
I1
sVd11cpwv
p2
I1
s.(dp0
Vcyipmue
p1
I1
sVd11cpwv
p2
I1
s.(dp0
Vcyipmue
p1
I1
sVd11na6s
p2
I1
s.(dp0
Vcyipmue
p1
I1
sVd11sfr9
p2
I1
s.(dp0
Vcyipmue
p1
I1
sVd15mdsu
p2
I1
s.(dp0
Vcyipmue
p1
I1
sVd18920x
p2
I1
s.(dp0
Vcyipmue
p1
I1
sVd18920x
p2
I1
s.(dp0
Vcyipmue
p1
I1
sVd18920x
p2
I1
s.(dp0
Vcyipmue
p1
I1
sVd18l2eb
p2
I1
s.(dp0
Vcyipmue
p1
I1
sVd19jpy5
p2
I1
s.(dp0
Vcyipmue
p1
I1
sVd1czgq9
p2
I1
s.(dp0
Vcyipmue
p1
I1
sVd1e5rcr
p2
I1
s.(dp0
Vcyipmue
p1
I1
sVd1fgx2s
p2
I1
s.(dp0
Vcyipmue
p1
I1
sVd1gezjj
p2
I1
s.(dp0
Vcyipmue
p1
I1
sVd1gkftb
p2
I1
s.(dp0
Vcyipmue
p1
I1
sVd1i7s0t
p2
I1
s.(dp0
Vcyipmue
p1
I1
sVd1j2ztc
p2
I1
s.(dp0
Vcyipmue
p1
I1
sVd1j9xf9
p2
I1
s.(dp0
Vcyipmue
p1
I1
sVd1jni5g
p2
I1
s.(dp0
Vcyipmue
p1
I1
sVd1wlwcs
p2
I1
s.(dp0
Vcyipmue
p1
I1
sVd1zjudz
p2
I1
s.(dp0
Vcyipmue
p1
I1
sVd1zlyms
p2
I1
s.(dp0
Vcyipmue
p1
I1
sVd209s4x
p2
I1
s.(dp0
Vcyipmue
p1
I1
sVd27elia
p2
I1
s.(dp0
Vcyipmue
p1
I1
sVd28vf14
p2
I1
s.(dp0
Vcyipmue
p1
I1
sVd2bxokg
p2
I1
s.(dp0
Vcyipmue
p1
I1
sVd2c8jl2
p2
I1
s.(dp0
Vcyipmue
p1
I1
sVd2ct8qh
p2
I1
s.(dp0
Vcyipmue
p1
I1
sVd2ek2zb
p2
I1
s.(dp0
Vcyipmue
p1
I1
sVd2jsddi
p2
I1
s.(dp0
Vcyipmue
p1
I1
sVd2koktf
p2
I1
s.(dp0
Vcyipmue
p1
I1
sVd2njni2
p2
I1
s.(dp0
Vcyipmue
p1
I1
sVd2qt0jc
p2
I1
s.(dp0
Vcyipmue
p1
I1
sVd2z0yjo
p2
I1
s.(dp0
Vcyipmue
p1
I1
sVd329gdm
p2
I1
s.(dp0
Vcyipmue
p1
I1
sVd37rxer
p2
I1
s.(dp0
Vcyipmue
p1
I1
sVd3ajyzr
p2
I1
s.(dp0
Vcyipmue
p1
I1
sVd3as3n7
p2
I1
s.(dp0
Vcyipmue
p1
I1
sVd3c9bi3
p2
I1
s.(dp0
Vcyipmue
p1
I1
sVd3cueu1
p2
I1
s.(dp0
Vcyipmue
p1
I1
sVd3dzkf8
p2
I1
s.(dp0
Vcyipmue
p1
I1
sVd3hjp96
p2
I1
s.(dp0
Vcyipmue
p1
I1
sVd3k1cbr
p2
I1
s.(dp0
Vd3k5f9w
p1
I1
sVcyipmue
p2
I1
s.(dp0
Vcy(dp0
Vcyipmue
p1
I1
sVdtin1p2
p2
I1
s.