(dp0
Vd1qufgl
p1
I1
sVd958ojb
p2
I1
sVdi2ehc8
p3
I3
sVd7lbd8e
p4
I1
sVd2emi1s
p5
I1
sVdd4x189
p6
I1
sVcyk81gs
p7
I1
sVcynrmwy
p8
I1
sVdau2ubv
p9
I1
sVd9qzon3
p10
I1
sVdadpoiu
p11
I1
sVdedrdxf
p12
I1
sVdirbrpp
p13
I1
sVdhx3ppo
p14
I2
sVd208nfs
p15
I1
sVdepg932
p16
I1
sVd6hdqs3
p17
I1
sVdbia6xd
p18
I1
sVd7fa8ue
p19
I1
sVd8v5xxc
p20
I1
sVd0m1rkz
p21
I1
sVd10yz7f
p22
I1
sVd7ebzm3
p23
I1
sVddzjuvp
p24
I2
sVdf1xcin
p25
I1
sVdimh1m2
p26
I1
sVd2rawf7
p27
I2
sVczji6jf
p28
I1
sVdp2lbzz
p29
I1
sVddwnmm4
p30
I1
sVd30d0i8
p31
I1
sVdjpsyaq
p32
I2
sVd9ud8cy
p33
I1
sVd9k8rbi
p34
I1
sVdeg5epo
p35
I1
sVdenw9po
p36
I4
sVd1wffnc
p37
I2
sVdczmvwd
p38
I1
sVd03pqct
p39
I1
sVdeadeg9
p40
I1
sVd1kabua
p41
I1
sVd2ef95c
p42
I1
sVcyua8wb
p43
I1
sVdbikj72
p44
I1
sVczvmtdb
p45
I1
sVd2h1j0b
p46
I1
sVd2qj4m4
p47
I1
sVdi5ofmk
p48
I1
sVcyzi1cu
p49
I1
sVd2jhoz9
p50
I1
sVd37ip86
p51
I1
sVdam6k1d
p52
I1
sVdpok5nd
p53
I1
sVdh28v6u
p54
I1
sVcypusy4
p55
I1
sVcz7rngp
p56
I2
sVd97iucv
p57
I2
sVd979y2a
p58
I1
sVd59npbj
p59
I1
sVd5yrf8c
p60
I1
sVd40gyw1
p61
I1
sVdb3fita
p62
I1
sVd61sk1r
p63
I1
sVcypsu7b
p64
I1
sVdhjn0i5
p65
I1
sVd76x2sn
p66
I1
sVd2doqe9
p67
I1
sVdmz6ps3
p68
I1
sVd5kxpur
p69
I1
sVd6286ae
p70
I3
sVdeqx2vo
p71
I1
sVczuaith
p72
I1
sVd3nabsq
p73
I1
sVd44y6q5
p74
I1
sVcypuuce
p75
I1
sVd112loz
p76
I2
sVcywwqqf
p77
I1
sVdi9r1rk
p78
I1
sVdfvsrk0
p79
I1
sVd24acwv
p80
I1
sVd1ajoig
p81
I1
sVd6aktsn
p82
I1
sVcz6ant2
p83
I1
sVdcuf4ky
p84
I1
sVd1j9xf9
p85
I3
sVd2ud99h
p86
I1
sVdieboco
p87
I1
sVd6hg1l7
p88
I1
sVdi3xzzz
p89
I1
sVdpffwpx
p90
I1
sVd2el2sc
p91
I2
sVd9aaxpq
p92
I1
sVd0r30vs
p93
I1
sVdenvlag
p94
I1
sVdho3obg
p95
I1
sVdkw2i87
p96
I1
sVdex8qi5
p97
I1
s.