(dp0
Vcyieidn
p1
I1
s.(dp0
Vcyiiv3c
p1
I1
sVcyieidn
p2
I1
s.(dp0
Vcyn09y2
p1
I1
sVcyieidn
p2
I1
s.(dp0
Vcyq00j4
p1
I1
sVcyieidn
p2
I1
s.(dp0
Vcysc40t
p1
I1
sVcyieidn
p2
I1
s.(dp0
Vcywgg61
p1
I1
sVcyieidn
p2
I1
s.(dp0
Vcyieidn
p1
I1
sVcz0zp0c
p2
I1
s.(dp0
Vcz76wwf
p1
I1
sVcyieidn
p2
I1
s.(dp0
Vcz7dpd8
p1
I1
sVcyieidn
p2
I1
s.(dp0
Vcza4srt
p1
I1
sVcyieidn
p2
I1
s.(dp0
Vczcmf4o
p1
I1
sVcyieidn
p2
I1
s.(dp0
Vczhcb80
p1
I1
sVcyieidn
p2
I1
s.(dp0
Vczoeqf5
p1
I1
sVcyieidn
p2
I1
s.(dp0
Vd00er5w
p1
I1
sVcyieidn
p2
I1
s.(dp0
Vd035bni
p1
I1
sVcyieidn
p2
I1
s.(dp0
Vd05n3w8
p1
I1
sVcyieidn
p2
I1
s.(dp0
Vd070dlr
p1
I1
sVcyieidn
p2
I1
s.(dp0
Vcyieidn
p1
I1
sVd0epk9e
p2
I1
s.(dp0
Vd0j948f
p1
I1
sVcyieidn
p2
I1
s.(dp0
Vd0pypxb
p1
I1
sVcyieidn
p2
I1
s.(dp0
Vcyieidn
p1
I1
sVd0skn7q
p2
I1
s.(dp0
Vd0tjtm0
p1
I1
sVcyieidn
p2
I1
s.(dp0
Vd0tknzv
p1
I1
sVcyieidn
p2
I1
s.(dp0
Vd128wg7
p1
I1
sVcyieidn
p2
I1
s.(dp0
Vd1aenlu
p1
I1
sVcyieidn
p2
I1
s.(dp0
Vd1akc29
p1
I1
sVcyieidn
p2
I1
s.(dp0
Vd1f7maa
p1
I1
sVcyieidn
p2
I1
s.(dp0
Vd1s9za1
p1
I1
sVcyieidn
p2
I1
s.(dp0
Vd2k2qvb
p1
I1
sVcyieidn
p2
I1
s.(dp0
Vd2kdvf6
p1
I1
sVcyieidn
p2
I1
s.(dp0
Vd2o3rtu
p1
I1
sVcyieidn
p2
I1
s.(dp0
Vd2obbcp
p1
I1
sVcyieidn
p2
I1
s.(dp0
Vd2p0kgg
p1
I1
sVcyieidn
p2
I1
s.(dp0
Vcyieidn
p1
I1
sVd2teo1m
p2
I1
s.(dp0
Vd32dt3f
p1
I1
sVcyieidn
p2
I1
s.(dp0
Vd32dt3f
p1
I1
sVcyieidn
p2
I1
s.(dp0
Vd37e91v
p1
I1
sVcyieidn
p2
I1
s.(dp0
Vd397c4u
p1
I1
sVcyieidn
p2
I1
s.(dp0
Vcyieidn
p1
I1
sVd3e4ekh
p2
I1
s.(dp0
Vd3edds6
p1
I1
sVcyieidn
p2
I1
s.(dp0
Vd3eebt5
p1
I1
sVcyieidn
p2
I1
s.(dp0
Vd3em5yp
p1
I1
sVcyieidn
p2
I1
s.(dp0
Vd3o4vaw
p1
I1
sVcyieidn
p2
I1
s.(dp0
Vd3r6r4x
p1
I1
sVcyieidn
p2
I1
s.(dp0
Vd3rcw57
p1
I1
sVcyieidn
p2
I1
s.(dp0
Vd3srmx1
p1
I1
sVcyieidn
p2
I1
s.(dp0
Vd48b8wc
p1
I1
sVcyieidn
p2
I1
s.(dp0
Vd4dn7co
p1
I1
sVcyieidn
p2
I1
s.(dp0
Vd4qhog0
p1
I1
sVcyieidn
p2
I1
s.(dp0
Vd4w6nem
p1
I1
sVcyieidn
p2
I1
s.(dp0
Vd5ft9ix
p1
I1
sVcyieidn
p2
I1
s.(dp0
Vd65ns89
p1
I1
sVcyieidn
p2
I1
s.(dp0
Vd65ns89
p1
I1
sVcyieidn
p2
I1
s.(dp0
Vd6f5u0g
p1
I1
sVcyieidn
p2
I1
s.(dp0
Vd6pxgnz
p1
I1
sVcyieidn
p2
I1
s.(dp0
Vcyieidn
p1
I1
sVd7fe2v0
p2
I1
s.(dp0
Vd88z5oy
p1
I1
sVcyieidn
p2
I1
s.(dp0
Vd8f493u
p1
I1
sVcyieidn
p2
I1
s.(dp0
Vd8nrt60
p1
I1
sVcyieidn
p2
I1
s.(dp0
Vd8s01hh
p1
I1
sVcyieidn
p2
I1
s.(dp0
Vcyieidn
p1
I1
sVd9n11it
p2
I1
s.(dp0
Vda3w37l
p1
I1
sVcyieidn
p2
I1
s.(dp0
Vda3zu7j
p1
I1
sVcyieidn
p2
I1
s.(dp0
Vdaknlnv
p1
I1
sVcyieidn
p2
I1
s.(dp0
Vdars4h5
p1
I1
sVcyieidn
p2
I1
s.(dp0
Vdau32lu
p1
I1
sVcyieidn
p2
I1
s.(dp0
Vdb1ltil
p1
I1
sVcyieidn
p2
I1
s.(dp0
Vdb207a7
p1
I1
sVcyieidn
p2
I1
s.(dp0
Vdb4qkkv
p1
I1
sVcyieidn
p2
I1
s.(dp0
Vdb8f8kw
p1
I1
sVcyieidn
p2
I1
s.(dp0
Vdbbzkuk
p1
I1
sVcyieidn
p2
I1
s.(dp0
Vdbsdxyx
p1
I1
sVcyieidn
p2
I1
s.(dp0
Vdd1hlcm
p1
I1
sVcyieidn
p2
I1
s.(dp0
Vdd79ncf
p1
I1
sVcyieidn
p2
I1
s.(dp0
Vdda2ds3
p1
I1
sVcyieidn
p2
I1
s.(dp0
Vddfzmwv
p1
I1
sVcyieidn
p2
I1
s.(dp0
Vddzkhdd
p1
I1
sVcyieidn
p2
I1
s.(dp0
Vcyieidn
p1
I1
sVde40aiq
p2
I1
s.(dp0
Vdehx2qi
p1
I1
sVcyieidn
p2
I1
s.(dp0
Vdekgn8i
p1
I1
sVcyieidn
p2
I1
s.(dp0
Vdetqods
p1
I1
sVcyieidn
p2
I1
s.(dp0
Vdf6droz
p1
I1
sVcyieidn
p2
I1
s.(dp0
Vdfe0eyg
p1
I1
sVcyieidn
p2
I1
s.(dp0
Vdfe37lx
p1
I1
sVcyieidn
p2
I1
s.(dp0
Vdfjml21
p1
I1
sVcyieidn
p2
I1
s.(dp0
Vdfjml21
p1
I1
sVcyieidn
p2
I1
s.(dp0
Vdfmdymi
p1
I1
sVcyieidn
p2
I1
s.(dp0
Vdfnjow8
p1
I1
sVcyieidn
p2
I1
s.(dp0
Vdfnufs6
p1
I1
sVcyieidn
p2
I1
s.(dp0
Vcyieidn
p1
I1
sVdfv5tgz
p2
I1
s.(dp0
Vdfv7a01
p1
I1
sVcyieidn
p2
I1
s.(dp0
Vdfwgxtt
p1
I1
sVcyieidn
p2
I1
s.(dp0
Vdg0z7h2
p1
I1
sVcyieidn
p2
I1
s.(dp0
Vdg94hb8
p1
I1
sVcyieidn
p2
I1
s.(dp0
Vdgs3tq3
p1
I1
sVcyieidn
p2
I1
s.(dp0
Vdgvqn4s
p1
I1
sVcyieidn
p2
I1
s.(dp0
Vdh0iocw
p1
I1
sVcyieidn
p2
I1
s.(dp0
Vdh7yju0
p1
I1
sVcyieidn
p2
I1
s.(dp0
Vdhn0u53
p1
I1
sVcyieidn
p2
I1
s.(dp0
Vdhoikku
p1
I1
sVcyieidn
p2
I1
s.(dp0
Vcyieidn
p1
I1
sVdhrlj8p
p2
I1
s.(dp0
Vdhsuwqe
p1
I1
sVcyieidn
p2
I1
s.(dp0
Vdihioro
p1
I1
sVcyieidn
p2
I1
s.(dp0
Vdimm77q
p1
I1
sVcyieidn
p2
I1
s.(dp0
Vcyieidn
p1
I1
sVdin1hzx
p2
I1
s.(dp0
Vdivuu9y
p1
I1
sVcyieidn
p2
I1
s.(dp0
Vdiwvm84
p1
I1
sVcyieidn
p2
I1
s.(dp0
Vcyieidn
p1
I1
sVdj8al0i
p2
I1
s.(dp0
Vdj(dp0
Vdsp3hkq
p1
I1
sVcyieidn
p2
I1
s.