(dp0
Vd5wv145
p1
I1
sVcz9rbcx
p2
I1
sVdi85u9b
p3
I1
sVd0866ju
p4
I1
sVdkphi6w
p5
I1
sVd97t6s1
p6
I1
sVd8yvcgc
p7
I1
sVdifgv6k
p8
I1
sVd6pxgnz
p9
I2
sVd3egbxg
p10
I1
sVd6tjdc2
p11
I1
sVd1hox2j
p12
I1
sVd0icb5l
p13
I1
sVd1311ow
p14
I1
sVdcgqs00
p15
I1
sVd2xe7fy
p16
I1
sVdmzc40i
p17
I3
sVde7ujj7
p18
I1
sVd3uxvjg
p19
I1
sVdggjwxw
p20
I1
sVd4we0l7
p21
I1
sVdev6zwi
p22
I1
sVdb51dy2
p23
I1
sVd3ap9go
p24
I1
sVd028qij
p25
I1
sVcyo25yv
p26
I1
sVd71q8q2
p27
I2
sVdcywv1z
p28
I1
sVdfdzt1t
p29
I1
sVdflf3zr
p30
I1
sVd17n5ji
p31
I1
sVdmnc546
p32
I1
sVdi9h4n9
p33
I1
sVdq5hpbr
p34
I1
sVd2592qf
p35
I1
sVdaqkcmz
p36
I2
sVddwmmav
p37
I1
sVdigz904
p38
I1
sVczonbio
p39
I1
sVdiy0v0s
p40
I1
sVdcmt2wj
p41
I1
sVd23s58f
p42
I2
sVddxs85z
p43
I1
sVdeh9mpb
p44
I1
sVd73tfn9
p45
I1
sVcztmfhb
p46
I1
sVdr5o1ik
p47
I1
sVddyjoos
p48
I2
sVdbgyw1g
p49
I1
sVd586rkj
p50
I1
sVd872f0u
p51
I1
sVdkvur61
p52
I1
sVdmu4829
p53
I1
sVd0jsfib
p54
I1
sVdamrodi
p55
I1
sVd9zuwaz
p56
I1
sVdisa6f5
p57
I1
sVdfzz0oj
p58
I1
sVdizmqgn
p59
I1
sVdtgjy1q
p60
I1
sVdju0wdt
p61
I1
sVdsep6i2
p62
I1
sVdhsn19i
p63
I1
sVdiruvfw
p64
I1
sVdho7ux1
p65
I1
sVd52zeuv
p66
I1
sVdry3qog
p67
I1
sVd6md4w4
p68
I1
sVdh2pjyq
p69
I1
sVdh6hrns
p70
I2
sVdoi22l8
p71
I1
sVda1v9rr
p72
I2
sVd7jwq3j
p73
I1
sVde0u4c2
p74
I2
sVdkazicw
p75
I1
sVddrysqd
p76
I3
sVdji5n81
p77
I1
sVdjg2mq7
p78
I1
sVd3qxyeq
p79
I1
sVdot1l2m
p80
I2
sVcyxwqpx
p81
I1
sVdg5zqpy
p82
I1
sVddzmoqo
p83
I1
sVdctuxc7
p84
I1
sVd97ioxb
p85
I1
sVdhg57ea
p86
I2
sVczzdz3u
p87
I1
sVd9ei99e
p88
I1
sVdpz9zkg
p89
I1
sVdgigflt
p90
I1
sVdhrlj8p
p91
I1
sVdqtpv0w
p92
I1
sVd0nllnz
p93
I1
sVd8f493u
p94
I1
sVdiscwv5
p95
I1
sVd9lc07s
p96
I1
sVdc3953e
p97
I1
sVd9t8ii2
p98
I3
sVczomf8p
p99
I1
sVdj16hsy
p100
I1
sVdku0qf6
p101
I1
sVdjtup1x
p102
I1
sVd4zttj2
p103
I1
sVd2it0fk
p104
I1
sVd4vhg0h
p105
I1
sVdbhkvxo
p106
I1
sVd5ml8ls
p107
I2
sVdsvlr0d
p108
I1
sVdfyfh7d
p109
I1
sVcyi3fh1
p110
I1
sVdh1pofe
p111
I1
sVdi14uia
p112
I1
sVdaxpdu9
p113
I1
sVdiohcze
p114
I1
sVd1qpad2
p115
I1
sVdb10otz
p116
I1
sVd9wpm2o
p117
I1
sVd3aenil
p118
I1
sVdbrxoio
p119
I1
sVczb3ha1
p120
I1
sVczm3hgf
p121
I1
sVczc1zn2
p122
I2
sVd4k6zfa
p123
I1
sVd086qbb
p124
I1
sVd2pt6e2
p125
I1
sVdbzijcc
p126
I1
sVdi8q2nm
p127
I1
sVd2x0gi2
p128
I1
sVd33yw8z
p129
I1
sVd8zr9r1
p130
I1
sVdbn0ewz
p131
I1
sVde9250u
p132
I1
sVdbedx7j
p133
I1
sVd82pmnk
p134
I1
sVd16cgo2
p135
I1
sVdbeeqea
p136
I1
sVd85lt5h
p137
I1
sVd3e3scw
p138
I1
sVd0qn3oz
p139
I1
sVdqxg5xi
p140
I1
sVdevb7bp
p141
I1
sVd2oubhy
p142
I1
sVd1xiwvy
p143
I1
sVd1c4qqj
p144
I1
sVd2b8y8v
p145
I1
sVdghqzn8
p146
I1
sVd1qpmv8
p147
I1
sVdn1fxla
p148
I2
sVd75aaq3
p149
I1
sVdevugol
p150
I1
sVd7ht3fb
p151
I1
sVd9z7ht9
p152
I1
sVd7nqzhr
p153
I1
sVdf35nqh
p154
I1
sVd89bxc8
p155
I1
sVd9zr1d4
p156
I1
sVdebp9qu
p157
I1
sVd8ynmb5
p158
I1
sVdsgebfm
p159
I1
sVd2nbz0z
p160
I1
sVdmse868
p161
I1
sVd376cp4
p162
I1
sVd1ztkzr
p163
I1
sVczckbqv
p164
I1
sVds5a1fk
p165
I1
sVd4ysggd
p166
I1
sVdbwdn8f
p167
I1
sVcyq57g8
p168
I1
sVd1rhtt8
p169
I1
sVdptx5t2
p170
I1
sVdi9fhym
p171
I1
sVdox7wuk
p172
I1
sVd1qo1c7
p173
I1
sVdg9chwe
p174
I1
sVd5tsmhx
p175
I1
sVdgnt97o
p176
I2
sVd62wikj
p177
I1
sVd5vv4vm
p178
I1
sVdf2x85m
p179
I1
sVdcp3mg2
p180
I1
sVds1m9of
p181
I1
sVd9vg28d
p182
I1
sVd8cwauz
p183
I2
sVdpacrc5
p184
I1
sVd1kogep
p185
I1
sVdi7bv14
p186
I1
sVdknncd4
p187
I1
sVd93byt3
p188
I1
sVd4rdti2
p189
I1
sVdbcdshs
p190
I1
sVd7urraz
p191
I1
sVd9331qw
p192
I1
sVdpbdq4h
p193
I1
sVcyj9pcj
p194
I1
sVdqobwx1
p195
I1
sVdevsvyi
p196
I1
sVd0j051j
p197
I1
sVdc1c7jl
p198
I1
sVdacpro0
p199
I1
sVd718zm7
p200
I1
sVdfjg5le
p201
I1
sVdt7o270
p202
I1
sVd0ifrum
p203
I1
sVd0qa5tv
p204
I1
sVdfjjk1w
p205
I1
sVd69mte5
p206
I1
sVd2xccle
p207
I1
sVdfjml21
p208
I1
sVd27fnum
p209
I1
sVdcyu374
p210
I1
sVdi3tc9g
p211
I3
sVd9wczg7
p212
I1
sVd0rphdn
p213
I1
sVd1q776y
p214
I1
sVcysxp45
p215
I1
sVd2lch25
p216
I1
sVdeul9hn
p217
I1
sVde3zkpq
p218
I1
sVd1ou6bz
p219
I2
sVdhlqrbp
p220
I1
sVczeje32
p221
I1
sVd1qinyw
p222
I1
sVd13k1bm
p223
I2
sVdjvtfvs
p224
I1
sVd0mt3pj
p225
I1
sVdgq8qj0
p226
I1
sVcyl152v
p227
I1
sVddu4tdh
p228
I1
sVd6e0a1u
p229
I1
sVd1tdue4
p230
I1
sVd9fi12i
p231
I1
sVdep4kda
p232
I1
sVcz8rngx
p233
I1
sVdk0zznw
p234
I1
sVdkrmx2w
p235
I1
sVcyvj9xq
p236
I1
sVd08o0tv
p237
I1
sVd5t12fq
p238
I1
sVd0uven9
p239
I1
sVdf5zpg4
p240
I1
sVdf4ap5p
p241
I1
sVdgy8tun
p242
I1
sVdj4t7lm
p243
I2
sVdgstg1w
p244
I1
sVdfmyk6d
p245
I1
sVdenvmoq
p246
I1
sVczu9eb2
p247
I1
sVd7njzko
p248
I1
sVd72jdwe
p249
I1
sVd0a8e9o
p250
I1
sVdgy906n
p251
I2
sVd0s0r48
p252
I1
sVdopmk4c
p253
I1
sVd7kt1lt
p254
I3
sVdo7vihr
p255
I1
sVd5yhhg7
p256
I1
sVdaj4ze5
p257
I1
sVd39afuc
p258
I1
sVddeghpc
p259
I1
sVdmflxl1
p260
I1
sVdje7lkf
p261
I1
sVd49g8gv
p262
I1
sVd1hl257
p263
I1
sVdfknded
p264
I1
sVd0y4u23
p265
I1
sVdj2hlga
p266
I1
sVd882lt9
p267
I1
sVdbtn61w
p268
I1
sVd25vzpk
p269
I1
sVd3zt5fk
p270
I1
sVdh6omj7
p271
I1
sVcytdnn8
p272
I1
sVd0ru7y1
p273
I4
sVd5ur0ol
p274
I1
sVde78x32
p275
I1
sVd4mj2sx
p276
I1
sVd83qwwi
p277
I1
sVdh5f0ns
p278
I1
sVdab28uy
p279
I1
sVd2f3dai
p280
I1
sVdndff40
p281
I1
sVd3x1grr
p282
I1
sVddcm30s
p283
I1
sVdmq7dhu
p284
I1
sVd64dfys
p285
I2
sVczkwas0
p286
I1
sVd9g68ys
p287
I2
sVdatg1ks
p288
I1
sVd5osnp1
p289
I1
sVd3qtzjt
p290
I1
sVddfx71p
p291
I1
sVdcqnu7c
p292
I1
sVd02ndts
p293
I1
sVd3fglr4
p294
I1
sVd1bqwtl
p295
I1
sVd7c9g9q
p296
I1
sVd3b7x41
p297
I1
sVd7byq4w
p298
I1
sVd7h5c75
p299
I1
sVdo98o0t
p300
I1
sVde0r5qu
p301
I1
sVdfppsjx
p302
I1
sVdjtb87x
p303
I1
sVd2ihn67
p304
I1
sVdqtnpsg
p305
I1
sVddvc7zb
p306
I1
sVd7rxb9o
p307
I1
sVd3ius59
p308
I1
sVdbcu9fe
p309
I4
sVd7fodx8
p310
I1
sVd8al4ru
p311
I1
sVdmqrrfu
p312
I1
sVd9esmmb
p313
I1
sVd67clb0
p314
I1
sVd7lt9gm
p315
I1
sVd8y75qe
p316
I1
sVdgvqn4s
p317
I1
sVdourjzd
p318
I1
sVd7uo9f3
p319
I1
sVd23o82j
p320
I1
sVdjwbfb8
p321
I1
sVd8m0mrx
p322
I1
sVdki5m81
p323
I1
sVdr96e51
p324
I1
sVdq2j1gk
p325
I1
sVdiwvm84
p326
I1
sVcz7gq3q
p327
I1
sVdj3ugli
p328
I2
sVd3y4c38
p329
I1
sVd88qawv
p330
I1
sVdnj406w
p331
I1
sVd2z2dqa
p332
I1
sVdruqnjj
p333
I1
sVd90ms4y
p334
I1
sVdjos3wf
p335
I1
sVcyp0tm8
p336
I1
sVd2bjfc0
p337
I1
sVd3xvgfa
p338
I1
sVd3ph7zz
p339
I1
sVdconbya
p340
I1
sVdjwa0sf
p341
I1
sVd3a4fb1
p342
I1
sVd2wr0p7
p343
I2
sVdalsmvx
p344
I1
sVdhby67d
p345
I1
sVd13pzpf
p346
I1
sVdn0b04y
p347
I1
sVdmhd8gr
p348
I1
sVdf7tv3u
p349
I1
sVd7ai9hs
p350
I1
sVczo91ar
p351
I1
sVd6kzzk3
p352
I1
sVd6ykm01
p353
I1
sVd57vkmb
p354
I1
sVd6nwki3
p355
I1
sVdridxj7
p356
I1
sVdchksnx
p357
I1
sVd4s72yk
p358
I1
sVdn9z7ca
p359
I1
sVczbudsm
p360
I1
sVd9wt76g
p361
I1
sVd5p6835
p362
I1
sVd6llfvo
p363
I1
sVdbnue5l
p364
I1
sVd4r1pj7
p365
I1
sVczkopxd
p366
I1
sVdc9kgan
p367
I1
sVd80b0na
p368
I1
sVdp2qy0l
p369
I1
sVdc2ci21
p370
I1
sVd1bwxea
p371
I1
sVd3r1bui
p372
I1
sVdrbt575
p373
I1
sVd3vnxyz
p374
I1
sVd26kchr
p375
I1
sVdt6zevu
p376
I1
sVd59wd1s
p377
I2
sVder0sro
p378
I1
sVd5qgh1e
p379
I2
sVdiqi8gw
p380
I1
sVdsrrhqp
p381
I1
sVddaqtmo
p382
I1
sVd7cvpk4
p383
I1
sVd3mys3e
p384
I1
sVdjqsuga
p385
I1
sVd177xni
p386
I1
sVd025q16
p387
I2
sVdavjw6k
p388
I1
sVdb72fiz
p389
I2
sVdizpjqg
p390
I1
sVd5k0r3v
p391
I1
sVd9e5ve8
p392
I1
sVd23n1le
p393
I1
sVd77kvs2
p394
I1
sVd28t8r5
p395
I1
sVd0so32s
p396
I1
sVd5mrz7v
p397
I1
sVdh009cf
p398
I1
sVdhvohdj
p399
I1
sVd0xyude
p400
I1
sVd2f7qdf
p401
I2
sVd9o8dgy
p402
I1
sVd2w6u9o
p403
I1
sVd6cpcwd
p404
I1
sVddu6w9w
p405
I1
sVczd19mr
p406
I1
sVcz4naep
p407
I1
sVdj66dmg
p408
I1
sVdp42hmz
p409
I1
sVd7u7a7k
p410
I1
sVdbevaj2
p411
I1
sVd2obbcp
p412
I1
sVdjpvlxg
p413
I1
sVd7yrcoj
p414
I1
sVdeos1wi
p415
I1
sVdacqurq
p416
I1
sVd6g4yvr
p417
I1
sVd0l1zgv
p418
I1
sVdf1usuw
p419
I1
sVd5vxeuw
p420
I1
sVd342r8v
p421
I2
sVd3l150e
p422
I1
sVdjbmzb3
p423
I1
sVd8v7qnj
p424
I1
sVczcc58r
p425
I1
sVd62brtj
p426
I1
sVd2ovahv
p427
I2
sVdgtrb1z
p428
I1
sVd32ur6f
p429
I1
sVd4v1jze
p430
I1
sVd0vbbcr
p431
I1
sVdhndzdl
p432
I1
sVd8ooau1
p433
I1
sVdj8timd
p434
I1
sVdmy1yui
p435
I1
sVderq6k5
p436
I1
sVcyo670b
p437
I1
sVdgg9flx
p438
I1
sVd48bo0k
p439
I3
sVdmjx3ws
p440
I1
sVdbgvtwa
p441
I1
sVdptxuvb
p442
I2
sVdc8syk7
p443
I2
sVdde0pre
p444
I1
sVdr3bunp
p445
I1
sVd5fzp28
p446
I1
sVd1jeskg
p447
I1
sVdcqalps
p448
I1
sVdkmxm0f
p449
I2
sVd3r1ykv
p450
I1
sVdbvsub8
p451
I1
sVd158184
p452
I1
sVdck7qao
p453
I1
sVd4i3bx6
p454
I1
sVcz3hbv9
p455
I1
sVdf4f7ok
p456
I1
sVdcs9gat
p457
I1
sVd2aj9ka
p458
I1
sVd7x72rr
p459
I1
sVd2nhq5z
p460
I1
sVd6c0lkz
p461
I1
sVd9oelo5
p462
I1
sVd211mhh
p463
I1
sVd7vb11s
p464
I1
sVczwtk8r
p465
I1
sVdkowm61
p466
I1
sVd6zy9h3
p467
I2
sVdg29cmu
p468
I1
sVd8fr1h2
p469
I2
sVd9iij7n
p470
I1
sVd8sq8sf
p471
I1
sVd2o6iex
p472
I1
sVdesabhw
p473
I1
sVczf8k21
p474
I1
sVdjvlepy
p475
I1
sVdb6ebhb
p476
I1
sVdj3o4ni
p477
I1
sVd8gxx5d
p478
I1
sVd7fa8ue
p479
I1
sVdde7rlf
p480
I1
sVddgr1oj
p481
I1
sVd12y8iq
p482
I1
sVdecle2b
p483
I1
sVdiofix3
p484
I1
sVd8f2xav
p485
I1
sVd4p4x6g
p486
I1
sVdfefvrq
p487
I1
sVdbjoii3
p488
I1
sVdtdn77y
p489
I1
sVdoyljoc
p490
I1
sVdfgcztq
p491
I1
sVcynp57z
p492
I1
sVdjckoj8
p493
I2
sVdfn9agx
p494
I1
sVcymo5iz
p495
I1
sVd2toped
p496
I1
sVdqli7mz
p497
I1
sVd1ngege
p498
I1
sVd3x1tc3
p499
I1
sVdehlogs
p500
I1
sVddcuwn4
p501
I3
sVddijgvh
p502
I1
sVdmsf8ul
p503
I1
sVd59jveu
p504
I1
sVdf66jem
p505
I3
sVds27eej
p506
I1
sVd3bfxdx
p507
I1
sVd2pa9n0
p508
I1
sVd65acn0
p509
I1
sVd3z5414
p510
I1
sVdhniz8n
p511
I1
sVd8ojv5u
p512
I1
sVd8oxwr6
p513
I1
sVd0il39e
p514
I1
sVd9pk98f
p515
I1
sVddxor78
p516
I1
sVczi2ioe
p517
I2
sVdbsafuu
p518
I1
sVdd93laj
p519
I1
sVdt6hems
p520
I3
sVdasu9mm
p521
I1
sVd6jn8f1
p522
I1
sVdc81f4z
p523
I1
sVdb2muic
p524
I1
sVdqlpeqm
p525
I1
sVdejbnzt
p526
I1
sVd6m1xrv
p527
I1
sVdo3jto6
p528
I2
sVdgqx207
p529
I1
sVdmuaaw1
p530
I1
sVd1rfnf0
p531
I1
sVdpv9h6b
p532
I1
sVdi1d8oy
p533
I2
sVczh29gz
p534
I1
sVdb571ic
p535
I2
sVddoyw6q
p536
I1
sVcz5qpig
p537
I1
sVdgtemmd
p538
I1
sVcyn09y2
p539
I1
sVcymztkd
p540
I1
sVd035bni
p541
I1
sVczas0lr
p542
I1
sVd0qwrx9
p543
I1
sVdmjohsj
p544
I1
sVd4x87cn
p545
I1
sVdbl3izm
p546
I1
sVd05mtft
p547
I1
sVddgmvxr
p548
I1
sVdip9y9y
p549
I2
sVdh6973e
p550
I1
sVdil8z9n
p551
I1
sVdd6xhio
p552
I1
sVd88pf85
p553
I1
sVczsg1m7
p554
I1
sVdbioi5u
p555
I1
sVd3tzede
p556
I1
sVd0a9zua
p557
I1
sVd2bamtg
p558
I1
sVd8ituc3
p559
I1
sVdqsnpkr
p560
I1
sVdasfgsp
p561
I1
sVdfbjvwj
p562
I1
sVdbr67pt
p563
I1
sVd9rmzz2
p564
I1
sVdf8etbm
p565
I1
sVd0rr4lj
p566
I1
sVdd79ncf
p567
I1
sVd4ts65l
p568
I1
sVd699zm2
p569
I1
sVdbep90j
p570
I1
sVd1btxxz
p571
I1
sVdrtd78b
p572
I1
sVcylhvx0
p573
I1
sVczvxrsm
p574
I1
sVd5e060v
p575
I1
sVd1d8ysj
p576
I1
sVdnixnpu
p577
I1
sVdg90orl
p578
I1
sVdowytsh
p579
I1
sVdahh04z
p580
I1
sVdckjatc
p581
I2
sVdf4tg3d
p582
I1
sVd8nb9ig
p583
I1
sVdh1d76m
p584
I1
sVd38thvk
p585
I1
sVd76ofbu
p586
I1
sVdair4oh
p587
I1
sVd7p2lyi
p588
I1
sVdex379r
p589
I1
sVdgh1fkk
p590
I1
sVdf934fl
p591
I1
sVd55isga
p592
I2
sVd5tq6ye
p593
I1
sVd1aieel
p594
I1
sVcyytafp
p595
I1
sVdgfh4py
p596
I1
sVds3jpgp
p597
I1
sVd623aew
p598
I1
sVdkbk6rp
p599
I1
sVd0yphbm
p600
I1
sVdkm7i7a
p601
I2
sVdd8044c
p602
I1
sVdtgq3r5
p603
I2
sVd16y2kw
p604
I2
sVder5ife
p605
I1
sVdr2jsb0
p606
I1
sVd3sjq69
p607
I1
sVdthkujv
p608
I1
sVdgap2d6
p609
I1
sVdhnxgmq
p610
I1
sVd4hrz3y
p611
I1
sVdj5tg5s
p612
I1
sVdhe70l4
p613
I1
sVd7t8z0d
p614
I1
sVdb8i3m5
p615
I1
sVdcn6284
p616
I1
sVddcdsyr
p617
I1
sVd727qz9
p618
I1
sVdrk42zi
p619
I1
sVd3hklmd
p620
I1
sVd61m3ai
p621
I1
sVd5zsgp2
p622
I1
sVdqpm8xc
p623
I1
sVdbckbgq
p624
I1
sVdpcsgof
p625
I1
sVd3e0kmi
p626
I1
sVdciwuad
p627
I1
sVd19j0qc
p628
I1
sVd16c9qd
p629
I1
sVdj2jsl7
p630
I1
sVdehr2mi
p631
I1
sVd9y9220
p632
I1
sVdi707qa
p633
I1
sVdilorq7
p634
I1
sVcypiz4h
p635
I1
sVdoq0ui0
p636
I1
sVdklywu5
p637
I1
sVd32tyg7
p638
I1
sVcz6lk5t
p639
I1
sVczn77mx
p640
I1
sVd9126tu
p641
I2
sVdb39n9m
p642
I1
sVdhn93p4
p643
I1
sVd3aaxdv
p644
I1
sVdmyzg9d
p645
I1
sVdddq5r7
p646
I1
sVdgxzl3k
p647
I1
sVd6maq10
p648
I1
sVdhqebyb
p649
I1
sVdqkd9tl
p650
I1
sVdi7v1rp
p651
I1
sVd9qgri5
p652
I1
sVd03ili5
p653
I1
sVdsued0x
p654
I1
sVd29fhbz
p655
I1
sVdmnc318
p656
I1
sVdj1fae8
p657
I1
sVd80s00t
p658
I1
sVdsve98m
p659
I1
sVdptk7y7
p660
I1
sVdk4gojo
p661
I1
sVdh1nyvo
p662
I1
sVdgvk04p
p663
I1
sVdiph8th
p664
I1
sVd0o3l23
p665
I1
sVddc52gs
p666
I2
sVdkhp497
p667
I1
sVd8etpj6
p668
I1
sVd7fyyzk
p669
I1
sVd4y2xlm
p670
I1
sVd9vouqz
p671
I1
sVdb2s84n
p672
I1
sVdft5p7m
p673
I1
sVd50neo4
p674
I1
sVdcbzi6v
p675
I1
sVcytxda7
p676
I1
sVdmzukbx
p677
I1
sVdaw68x8
p678
I1
sVda7xl74
p679
I2
sVd346qi0
p680
I1
sVdrud2no
p681
I1
sVdcmhucs
p682
I1
sVd448j5g
p683
I1
sVdd445u7
p684
I1
sVdkn0vc1
p685
I1
sVdoxe4tf
p686
I1
sVdfviinn
p687
I1
sVd2odo3v
p688
I1
sVdep97u1
p689
I1
sVd3qgpav
p690
I1
sVddu4i7a
p691
I1
sVda9gpwx
p692
I1
sVdsxmcxc
p693
I1
sVdcx4xug
p694
I1
sVd4nj8j7
p695
I1
sVd0uoiqd
p696
I3
sVd182ibx
p697
I1
sVcyla9x0
p698
I1
sVd56izh5
p699
I1
sVd1q0os3
p700
I1
sVczhohox
p701
I2
sVdajr89w
p702
I1
sVd2t4eho
p703
I1
sVdaygxoy
p704
I1
sVdmrqp2s
p705
I1
sVdfv7a01
p706
I1
sVdaue8h9
p707
I1
sVd6hcqz3
p708
I1
sVddg5u5q
p709
I1
sVdfvonf9
p710
I1
sVd4jwp0h
p711
I1
sVdmxuhnw
p712
I1
sVd8rpgpa
p713
I1
sVd60pq7c
p714
I1
sVdrp8rqx
p715
I1
sVd9cry9w
p716
I1
sVdqxhngy
p717
I1
sVdf6drcg
p718
I1
sVdbixlsb
p719
I1
sVczozks4
p720
I1
sVdjlgt4p
p721
I1
sVd2lgbu2
p722
I1
sVczhmdyk
p723
I1
sVda2z4y9
p724
I1
sVd3tstq0
p725
I1
sVd38moae
p726
I1
sVdnzno5k
p727
I1
sVdfzv8jb
p728
I3
sVd2o3rtu
p729
I1
sVd1hg5wa
p730
I1
sVd2f2vej
p731
I1
sVddcnpsr
p732
I1
sVdctxjkj
p733
I1
sVczkzzng
p734
I1
sVczfrpw9
p735
I1
sVd79i2vg
p736
I1
sVd1th44t
p737
I2
sVddt5k84
p738
I1
sVd3qpid2
p739
I1
sVdgaffpf
p740
I1
sVd3pd78j
p741
I1
sVd5tqirt
p742
I1
sVdq6pfb8
p743
I1
sVdkn9uww
p744
I1
sVd3x5qmg
p745
I1
sVd09qu37
p746
I1
sVdcrqehu
p747
I1
sVd410aiz
p748
I1
sVd9t619p
p749
I1
sVddohrlg
p750
I1
sVdbtco7l
p751
I1
sVdj3rss1
p752
I1
sVcykmlpq
p753
I3
sVd1k4hmg
p754
I1
sVcyp0y2y
p755
I1
sVddarrvx
p756
I1
sVdirtvnb
p757
I1
sVdbfxs29
p758
I2
sVdgr7yp1
p759
I1
sVcztlr1q
p760
I1
sVdjwam81
p761
I1
sVdifanvq
p762
I1
sVd7sf4of
p763
I1
sVd52jysi
p764
I1
sVdevgwk7
p765
I1
sVdsxiiu0
p766
I1
sVde9b2wz
p767
I1
sVd45wpzx
p768
I1
sVdd3xkek
p769
I1
sVdp6flb1
p770
I1
sVd8okksa
p771
I1
sVdb52ydd
p772
I1
sVdb03hjn
p773
I1
sVdcqrero
p774
I1
sVd05k6jw
p775
I1
sVcyqyu8n
p776
I1
sVd9evcjs
p777
I1
sVda0cdg1
p778
I1
sVczbhlv7
p779
I1
sVdb3uatr
p780
I1
sVdh8ct2s
p781
I1
sVdf4kynm
p782
I1
sVdgtq6ms
p783
I1
sVd1pdgdl
p784
I1
sVd0yk3l8
p785
I1
sVdfzu8ue
p786
I1
sVdittemn
p787
I1
sVd520nrn
p788
I1
sVdkldyx6
p789
I1
sVd3bhzc3
p790
I1
sVdiolluq
p791
I2
sVcz1yr9o
p792
I2
sVd5tv12h
p793
I1
sVdo51u5n
p794
I1
sVdciqmey
p795
I1
sVdsido22
p796
I1
sVcz6ant2
p797
I1
sVd0gmdeq
p798
I1
sVd0slogt
p799
I1
sVd8ve8y6
p800
I1
sVczu0g2v
p801
I1
sVd5jnd06
p802
I1
sVd8d424h
p803
I1
sVdftjp0e
p804
I1
sVdgn3hen
p805
I1
sVd6wyfm2
p806
I1
sVdjt1vbw
p807
I1
sVdkidzqn
p808
I1
sVdewhnig
p809
I1
sVdhmjsn3
p810
I1
sVdktp41o
p811
I1
sVdnkxwk3
p812
I1
sVd9a7cwz
p813
I1
sVcysakg2
p814
I1
sVd4oe38f
p815
I1
sVdpt1aen
p816
I1
sVdj15amh
p817
I2
sVd9yee2l
p818
I1
sVdhafahx
p819
I1
sVd68uige
p820
I1
sVd59lf9a
p821
I1
sVd622spw
p822
I1
sVczth7qp
p823
I1
sVdbyuzkc
p824
I1
sVdggqffh
p825
I1
sVd0s3psu
p826
I1
sVdcuj09g
p827
I1
sVdfnz9q1
p828
I1
sVdiqdtli
p829
I1
sVdkn814b
p830
I1
sVczmz6ma
p831
I1
sVd3yignb
p832
I1
sVd2x5tnu
p833
I1
sVd7ujfwl
p834
I1
sVdsotgrx
p835
I1
sVdj6t52f
p836
I1
sVdqwnlw3
p837
I1
sVd1l3ktn
p838
I1
sVdidvj6g
p839
I5
sVd7krjsi
p840
I1
sVdan4pwp
p841
I1
sVcywicjs
p842
I1
sVd3nlvc4
p843
I1
sVdhk5trq
p844
I1
s.