(dp0
Vcymoor7
p1
I1
s.(dp0
Vcymoor7
p1
I1
sVcyn61el
p2
I1
s.(dp0
Vcyoikyo
p1
I1
sVcymoor7
p2
I1
s.(dp0
Vcypq9uw
p1
I1
sVcymoor7
p2
I1
s.(dp0
Vcyqc726
p1
I1
sVcymoor7
p2
I1
s.(dp0
Vcyqmplh
p1
I1
sVcymoor7
p2
I1
s.(dp0
Vcyr3ezr
p1
I1
sVcymoor7
p2
I1
s.(dp0
Vcytju3q
p1
I1
sVcymoor7
p2
I1
s.(dp0
Vcytju3q
p1
I1
sVcymoor7
p2
I1
s.(dp0
Vcymoor7
p1
I1
sVcytoade
p2
I1
s.(dp0
Vcymoor7
p1
I1
sVcytoade
p2
I1
s.(dp0
Vcymoor7
p1
I1
sVcytoade
p2
I1
s.(dp0
Vcyv2kw4
p1
I1
sVcymoor7
p2
I1
s.(dp0
Vcymoor7
p1
I1
sVcywps9f
p2
I1
s.(dp0
Vcyx6igw
p1
I1
sVcymoor7
p2
I1
s.(dp0
Vcyxp5s3
p1
I1
sVcymoor7
p2
I1
s.(dp0
Vcymoor7
p1
I1
sVcyyhbco
p2
I1
s.(dp0
Vcyzmnv2
p1
I1
sVcymoor7
p2
I1
s.(dp0
Vcyztjit
p1
I1
sVcymoor7
p2
I1
s.(dp0
Vcymoor7
p1
I1
sVcz5uocd
p2
I1
s.(dp0
Vcz92ouu
p1
I1
sVcymoor7
p2
I1
s.(dp0
Vczbv2kn
p1
I1
sVcymoor7
p2
I1
s.(dp0
Vcymoor7
p1
I1
sVczdwujv
p2
I1
s.(dp0
Vcymoor7
p1
I1
sVczdwujv
p2
I1
s.(dp0
Vczf1j0i
p1
I1
sVcymoor7
p2
I1
s.(dp0
Vcymoor7
p1
I1
sVczgaeyf
p2
I1
s.(dp0
Vcymoor7
p1
I1
sVczgnjvl
p2
I1
s.(dp0
Vczh0ujl
p1
I1
sVcymoor7
p2
I1
s.(dp0
Vczk6xwa
p1
I1
sVcymoor7
p2
I1
s.(dp0
Vczk8p7x
p1
I1
sVcymoor7
p2
I1
s.(dp0
Vcymoor7
p1
I1
sVczrwwkt
p2
I1
s.(dp0
Vczs00zz
p1
I1
sVcymoor7
p2
I1
s.(dp0
Vczy04n5
p1
I1
sVcymoor7
p2
I1
s.(dp0
Vcymoor7
p1
I1
sVd05w28l
p2
I1
s.(dp0
Vd0741q5
p1
I1
sVcymoor7
p2
I1
s.(dp0
Vd07qh5t
p1
I1
sVcymoor7
p2
I1
s.(dp0
Vd09inql
p1
I1
sVcymoor7
p2
I1
s.(dp0
Vd0cy6bq
p1
I1
sVcymoor7
p2
I1
s.(dp0
Vd0rrsa4
p1
I1
sVcymoor7
p2
I1
s.(dp0
Vd0so32s
p1
I1
sVcymoor7
p2
I1
s.(dp0
Vd0t4uwb
p1
I1
sVcymoor7
p2
I1
s.(dp0
Vd0um6s3
p1
I1
sVcymoor7
p2
I1
s.(dp0
Vd0zea5n
p1
I1
sVcymoor7
p2
I1
s.(dp0
Vd10p91w
p1
I1
sVcymoor7
p2
I1
s.(dp0
Vd113i27
p1
I1
sVcymoor7
p2
I1
s.(dp0
Vd116vzy
p1
I1
sVcymoor7
p2
I1
s.(dp0
Vcymoor7
p1
I1
sVd121ztm
p2
I1
s.(dp0
Vd14kqum
p1
I1
sVcymoor7
p2
I1
s.(dp0
Vd15w0jv
p1
I1
sVcymoor7
p2
I1
s.(dp0
Vd17eas8
p1
I1
sVcymoor7
p2
I1
s.(dp0
Vd17mwh7
p1
I1
sVcymoor7
p2
I1
s.(dp0
Vcymoor7
p1
I1
sVd1bpist
p2
I1
s.(dp0
Vcymoor7
p1
I1
sVd1ee37q
p2
I1
s.(dp0
Vd1iz6l7
p1
I1
sVcymoor7
p2
I1
s.(dp0
Vcymoor7
p1
I1
sVd1k7vk3
p2
I1
s.(dp0
Vd1pa472
p1
I1
sVcymoor7
p2
I1
s.(dp0
Vcymoor7
p1
I1
sVd1r570q
p2
I1
s.(dp0
Vd1uj5yr
p1
I1
sVcymoor7
p2
I1
s.(dp0
Vd1xgijj
p1
I1
sVcymoor7
p2
I1
s.(dp0
Vd1xrqq8
p1
I1
sVcymoor7
p2
I1
s.(dp0
Vd1ybge7
p1
I1
sVcymoor7
p2
I1
s.(dp0
Vd2apl7c
p1
I1
sVcymoor7
p2
I1
s.(dp0
Vd2bor5m
p1
I1
sVcymoor7
p2
I1
s.(dp0
Vd2it9i4
p1
I1
sVcymoor7
p2
I1
s.(dp0
Vd2ose0f
p1
I1
sVcymoor7
p2
I1
s.(dp0
Vd2xccle
p1
I1
sVcymoor7
p2
I1
s.(dp0
Vd2z7154
p1
I1
sVcymoor7
p2
I1
s.(dp0
Vd313nb7
p1
I1
sVcymoor7
p2
I1
s.(dp0
Vd39iibt
p1
I1
sVcymoor7
p2
I1
s.(dp0
Vd3au1b1
p1
I1
sVcymoor7
p2
I1
s.(dp0
Vd3g4deo
p1
I1
sVcymoor7
p2
I1
s.(dp0
Vd3jz1de
p1
I1
sVcymoor7
p2
I1
s.(dp0
Vd3ke5pv
p1
I1
sVcymoor7
p2
I1
s.(dp0
Vd3ke5pv
p1
I1
sVcymoor7
p2
I1
s.(dp0
Vd3t89ko
p1
I1
sVcymoor7
p2
I1
s.(dp0
Vd3ta33o
p1
I1
sVcymoor7
p2
I1
s.(dp0
Vd3xdhd2
p1
I1
sVcymoor7
p2
I1
s.(dp0
Vcymoor7
p1
I1
sVd3xqgqc
p2
I1
s.(dp0
Vd3zgi1i
p1
I1
sVcymoor7
p2
I1
s.(dp0
Vd40r5e8
p1
I1
sVcymoor7
p2
I1
s.(dp0
Vcymoor7
p1
I1
sVd42jp6w
p2
I1
s.(dp0
Vcymoor7
p1
I1
sVd42jp6w
p2
I1
s.(dp0
Vd4515ek
p1
I1
sVcymoor7
p2
I1
s.(dp0
Vcymoor7
p1
I1
sVd454y45
p2
I1
s.(dp0
Vcymoor7
p1
I1
sVd4ii1sj
p2
I1
s.(dp0
Vcymoor7
p1
I1
sVd4ii1sj
p2
I1
s.(dp0
Vcymoor7
p1
I1
sVd4nl5hu
p2
I1
s.(dp0
Vd4ufc69
p1
I1
sVcymoor7
p2
I1
s.(dp0
Vd4up6wa
p1
I1
sVcymoor7
p2
I1
s.(dp0
Vd4xs3t0
p1
I1
sVcymoor7
p2
I1
s.(dp0
Vd50lsnz
p1
I1
sVcymoor7
p2
I1
s.(dp0
Vcymoor7
p1
I1
sVd5agotp
p2
I1
s.(dp0
Vd5cb8hz
p1
I1
sVcymoor7
p2
I1
s.(dp0
Vd5cb8hz
p1
I1
sVcymoor7
p2
I1
s.(dp0
Vcymoor7
p1
I1
sVd5gwva6
p2
I1
s.(dp0
Vcymoor7
p1
I1
sVd5gwva6
p2
I1
s.(dp0
Vd5nf7qa
p1
I1
sVcymoor7
p2
I1
s.(dp0
Vd5q6eln
p1
I1
sVcymoor7
p2
I1
s.(dp0
Vd63vkt1
p1
I1
sVcymoor7
p2
I1
s.(dp0
Vcymoor7
p1
I1
sVd65wboo
p2
I1
s.(dp0
Vd673mnn
p1
I1
sVcymoor7
p2
I1
s.(dp0
Vcymoor7
p1
I1
sVd67wpw3
p2
I1
s.(dp0
Vd6gy4lu
p1
I1
sVcymoor7
p2
I1
s.(dp0
Vcymoor7
p1
I1
sVd6h6csz
p2
I1
s.(dp0
Vd6matw5
p1
I1
sVcymoor7
p2
I1
s.(dp0
Vd6mbo3m
p1
I1
sVcymoor7
p2
I1
s.(dp0
Vd6pv6me
p1
I1
sVcymoor7
p2
I1
s.(dp0
Vd6texok
p1
I1
sVcymoor7
p2
I1
s.(dp0
Vd6(dp0
Vdtcx4lt
p1
I1
sVcymoor7
p2
I1
s.