(dp0
Vd0gbi2i
p1
I2
sVd8u8q5q
p2
I1
sVdcmkbgo
p3
I1
sVd2mjnvy
p4
I1
sVdi3mbks
p5
I1
sVdn6s4w1
p6
I1
sVde2x4fv
p7
I1
sVdhcd30x
p8
I1
sVd96xgqz
p9
I1
sVdjo2l8w
p10
I1
sVd5hx2ew
p11
I1
sVd056a32
p12
I1
sVdjj6wsv
p13
I1
sVd35wp5s
p14
I1
sVd6am32u
p15
I1
sVderc9ze
p16
I1
sVd1lsu91
p17
I1
sVd8w5jg1
p18
I1
sVcywqvmv
p19
I1
sVd5f5fiu
p20
I1
sVd3cku6w
p21
I1
sVd298g2p
p22
I1
sVd1bxu1u
p23
I1
sVcyuokgv
p24
I1
sVdjwbfb8
p25
I1
sVd1vbjdr
p26
I1
sVdbxfzpz
p27
I1
sVd53d619
p28
I1
sVd0fanis
p29
I1
sVd8qdrha
p30
I1
sVdrt2e8t
p31
I1
sVda00fa6
p32
I1
sVdgd3uh6
p33
I2
sVdfaq310
p34
I1
sVder204k
p35
I1
sVcytsrz5
p36
I1
sVd7pbfj0
p37
I1
sVdmvrc55
p38
I1
sVd3v6e3d
p39
I1
sVdswpa87
p40
I1
sVdqaykx9
p41
I1
sVdh3jhrf
p42
I1
sVd9tq6m9
p43
I1
sVd2d80r5
p44
I1
sVdhxq7th
p45
I1
sVd85l1ri
p46
I1
sVdbeqy8s
p47
I1
sVdn5t9ua
p48
I1
sVd537l4y
p49
I1
sVder76c4
p50
I1
sVddguhx0
p51
I1
sVd9tkn0v
p52
I1
sVcymxoi2
p53
I1
sVd78odq5
p54
I1
sVdf1vd00
p55
I1
sVdgdosw1
p56
I1
sVd97e08z
p57
I1
sVdik93ti
p58
I1
sVdchfja8
p59
I1
sVdej7qxo
p60
I1
sVd36vbgw
p61
I1
sVd35r099
p62
I1
sVdnh5ohy
p63
I1
sVd6oyym4
p64
I1
sVdaichdb
p65
I1
sVd9sj8to
p66
I1
sVdny76qs
p67
I1
sVd567k4h
p68
I1
sVcyp4fn5
p69
I1
sVdczomlk
p70
I1
sVdcdaexr
p71
I1
sVdi2bsau
p72
I1
sVd7lko20
p73
I1
s.