(dp0
Vdgkdtq7
p1
I1
sVd3t4j5i
p2
I1
sVd9dh0mf
p3
I1
sVdp3xazi
p4
I2
sVdht6ukb
p5
I1
sVdiptvye
p6
I1
sVd00uqi3
p7
I1
sVdibghj5
p8
I1
sVdo6vw0t
p9
I1
sVdh1v9li
p10
I1
sVdid3yyr
p11
I1
sVdhofeks
p12
I1
sVdk8jnr3
p13
I1
sVdp5g5ir
p14
I1
sVdgpg6oa
p15
I1
sVdjpsi6m
p16
I1
sVdik7w0d
p17
I1
sVd97rs8d
p18
I1
sVd8qaxlq
p19
I1
sVdfzueph
p20
I2
sVdmppfub
p21
I1
sVd0ji5t2
p22
I2
sVd87ue2c
p23
I1
sVdethivy
p24
I1
sVdbs20xo
p25
I1
sVdbh61fh
p26
I1
sVcz77emn
p27
I2
sVdrc773m
p28
I1
sVdp2bgsj
p29
I1
sVdbkp2w8
p30
I2
sVd3pfetj
p31
I1
sVd17f5mo
p32
I1
sVd445xmq
p33
I1
sVdenwkb5
p34
I2
sVdhq4y5e
p35
I1
sVd87sf5m
p36
I1
sVdrwg8di
p37
I7
sVcyp4anf
p38
I1
sVdnpom5j
p39
I1
sVd386h3y
p40
I2
sVdisz7cs
p41
I1
sVd6dds2z
p42
I1
sVdrpjedw
p43
I1
s.