(dp0
Vddg9b5p
p1
I1
sVd6ixf45
p2
I2
sVdgx4v0d
p3
I1
sVd5moa1e
p4
I2
sVd0evkdc
p5
I1
sVd87vybp
p6
I1
sVd8s0mki
p7
I3
sVd9ulbrh
p8
I1
sVdak295c
p9
I2
sVdhx9o4w
p10
I2
sVczzz3h0
p11
I1
sVdgih48q
p12
I1
sVdn3c3ad
p13
I1
sVd9n7lq4
p14
I1
sVdqi405q
p15
I1
sVcyw33xy
p16
I1
sVdgj6kme
p17
I3
sVdpn1hvd
p18
I1
sVdn3cqlt
p19
I3
sVd1ic6gl
p20
I1
sVd2me7gn
p21
I1
sVdig64ne
p22
I1
s.