(dp0
Vcyku3d0
p1
I1
s.(dp0
Vd03fcyv
p1
I1
sVcyku3d0
p2
I1
s.(dp0
Vcyku3d0
p1
I1
sVd19e5fk
p2
I1
s.(dp0
Vcyku3d0
p1
I1
sVd3jbz4j
p2
I1
s.(dp0
Vd3v9l1p
p1
I1
sVcyku3d0
p2
I1
s.(dp0
Vcyku3d0
p1
I1
sVd3z118t
p2
I1
s.(dp0
Vcyku3d0
p1
I1
sVd8pcfia
p2
I1
s.(dp0
Vdatulw8
p1
I1
sVcyku3d0
p2
I1
s.(dp0
Vdb49a0n
p1
I1
sVcyku3d0
p2
I1
s.(dp0
Vdc9c3b4
p1
I1
sVcyku3d0
p2
I1
s.(dp0
Vdcnmt1m
p1
I1
sVcyku3d0
p2
I1
s.(dp0
Vdeghaep
p1
I1
sVcyku3d0
p2
I1
s.(dp0
Vcyku3d0
p1
I1
sVdejqz5r
p2
I1
s.(dp0
Vdemxl0a
p1
I1
sVcyku3d0
p2
I1
s.(dp0
Vdemxl0a
p1
I1
sVcyku3d0
p2
I1
s.(dp0
Vdhpiu23
p1
I1
sVcyku3d0
p2
I1
s.(dp0
Vdibv8al
p1
I1
sVcyku3d0
p2
I1
s.(dp0
Vdmxwkv4
p1
I1
sVcyku3d0
p2
I1
s.(dp0
Vdte13bf
p1
I1
sVcyku3d0
p2
I1
s.