(dp0
Vd7orys7
p1
I1
sVds6y9uh
p2
I5
sVdcwgvs8
p3
I1
sVdkn51g8
p4
I1
sVdfk7dqa
p5
I1
sVde81eg0
p6
I1
sVdhg0iaf
p7
I1
sVd8dlupx
p8
I1
sVd6yeik8
p9
I1
sVd14kfoz
p10
I1
sVdfjwdtx
p11
I1
sVd0jy2zq
p12
I5
sVdig5b1e
p13
I1
sVdmvfrru
p14
I1
sVdn4hgo4
p15
I1
sVdhy53lx
p16
I1
sVd2x5613
p17
I2
sVd3yt1m4
p18
I2
sVdamm1d1
p19
I3
sVczytg9x
p20
I1
sVczlt708
p21
I1
sVd417oxv
p22
I1
sVdi51y4d
p23
I1
sVdkycjdc
p24
I1
sVcznqpva
p25
I1
sVde4irqu
p26
I1
sVdam5yh3
p27
I1
sVd1ws0hk
p28
I1
sVds30anx
p29
I1
sVd798y4m
p30
I2
sVd6d2uq9
p31
I1
sVdgd3brj
p32
I2
sVcyuxihc
p33
I1
sVd6mye4d
p34
I1
sVd50h3x4
p35
I1
sVd20cdgx
p36
I1
sVdfkep28
p37
I1
sVdfk445q
p38
I1
sVdrkicae
p39
I2
sVdnhut5f
p40
I5
sVdfoqksu
p41
I1
sVdah29xk
p42
I1
sVdrgegqk
p43
I1
sVd035ans
p44
I2
sVdeepoua
p45
I1
sVd3yszy6
p46
I2
sVd6eo9ax
p47
I1
sVczrmryn
p48
I1
sVdggkp83
p49
I1
sVcz5gz88
p50
I1
sVdfgwf3v
p51
I2
sVdadptl4
p52
I1
sVdgk0ap7
p53
I1
sVdcbg3w3
p54
I1
sVd9e1lph
p55
I1
sVds0nby6
p56
I1
sVd31oju1
p57
I4
sVdht4p0h
p58
I1
sVdh9ehcy
p59
I1
sVdc5n33y
p60
I1
sVd2me7gn
p61
I2
sVd7sg5b7
p62
I3
sVdfknp9d
p63
I1
sVdizq5j6
p64
I1
sVdd7qqb5
p65
I1
sVdjcnhhn
p66
I1
sVdik4lhs
p67
I1
sVdd26cs8
p68
I1
sVdfk33bh
p69
I1
sVd8c3kfs
p70
I1
sVcysl0ol
p71
I1
s.