(dp0
Vd61zmea
p1
I1
sVdbpijv4
p2
I1
sVdhj0v2g
p3
I1
sVdh4bpjf
p4
I1
sVd2c8jl2
p5
I1
sVdkgvznw
p6
I1
sVd09uf15
p7
I1
sVdqidt4n
p8
I1
sVdgrchbb
p9
I1
sVd26ergm
p10
I1
sVd46wr02
p11
I1
sVdgmeq54
p12
I1
sVdt583o7
p13
I1
sVdb0zzbm
p14
I1
sVdhbt6v4
p15
I1
sVd00361w
p16
I1
sVczm6izy
p17
I1
sVd0yphbm
p18
I1
sVdibqii9
p19
I1
sVddrxy4q
p20
I1
sVczw9gos
p21
I1
sVd9zhghq
p22
I1
sVd358hn7
p23
I1
sVd9u4wk9
p24
I1
sVdq85znr
p25
I1
sVd8vedi7
p26
I1
sVddv6sx4
p27
I1
sVczzb436
p28
I1
sVde8vt93
p29
I1
sVd574tub
p30
I1
sVdebxuxg
p31
I1
sVd7o1sqh
p32
I1
sVde7chej
p33
I1
sVd352evo
p34
I2
sVdgb1y4l
p35
I1
sVd3p9sid
p36
I1
sVdmkxh7j
p37
I1
sVdapk1lp
p38
I1
sVd5jsyyf
p39
I1
sVdcvj7x1
p40
I1
sVd3h30ee
p41
I1
sVd2vw05g
p42
I1
sVd134exw
p43
I1
sVd9jf9ob
p44
I1
sVczgwe3w
p45
I1
sVd30zk4w
p46
I1
sVdifutuo
p47
I1
sVdovltet
p48
I1
sVdi7itm8
p49
I1
sVdr6evjg
p50
I1
sVdggu51k
p51
I1
sVdb0s1kv
p52
I1
sVcyvvv9y
p53
I1
sVdap4uoj
p54
I1
sVd1aapyo
p55
I1
sVd5h66p1
p56
I1
sVd0c9ol0
p57
I1
sVdfwvd9u
p58
I1
sVd9tm7c2
p59
I1
sVde2b3lm
p60
I1
sVd4sitr3
p61
I1
sVczme274
p62
I1
sVddes5b5
p63
I1
sVd3512zc
p64
I1
sVdaa7mqe
p65
I1
sVdevs0w1
p66
I1
sVd3lz3hf
p67
I1
sVd2su1cc
p68
I1
sVd55j2tb
p69
I1
sVd6twwhg
p70
I1
sVdf1n5oh
p71
I2
sVd7mmv4q
p72
I1
s.