(dp0
Vdfsqdcv
p1
I1
sVdf6kqmp
p2
I2
sVdmllthi
p3
I1
sVd4y7iuc
p4
I2
sVdodxzcn
p5
I1
sVdcvook7
p6
I1
sVd29ldaw
p7
I1
sVdgi1zut
p8
I1
sVdacuq2g
p9
I1
sVd7f3dxm
p10
I1
sVcyv0z68
p11
I1
sVdb553qm
p12
I1
sVdjwji6t
p13
I1
s.