(dp0
Vcyi2puq
p1
I1
s.(dp0
Vcyibxwt
p1
I1
sVcyi2puq
p2
I1
s.(dp0
Vcyir9yb
p1
I1
sVcyi2puq
p2
I1
s.(dp0
Vcyi2puq
p1
I1
sVcyj9dvb
p2
I1
s.(dp0
Vcyi2puq
p1
I1
sVcykp0gk
p2
I1
s.(dp0
Vcyi2puq
p1
I1
sVcylz2m4
p2
I1
s.(dp0
Vcymbkov
p1
I1
sVcyi2puq
p2
I1
s.(dp0
Vcyi2puq
p1
I1
sVcymkmo7
p2
I1
s.(dp0
Vcyn8tqk
p1
I1
sVcyi2puq
p2
I1
s.(dp0
Vcyi2puq
p1
I1
sVcynk3e6
p2
I1
s.(dp0
Vcyi2puq
p1
I1
sVcynuck3
p2
I1
s.(dp0
Vcyi2puq
p1
I1
sVcyp5acq
p2
I1
s.(dp0
Vcyi2puq
p1
I1
sVcyp7502
p2
I1
s.(dp0
Vcyp78mi
p1
I1
sVcyi2puq
p2
I1
s.(dp0
Vcypirdr
p1
I1
sVcyi2puq
p2
I1
s.(dp0
Vcyi2puq
p1
I1
sVcypmi8t
p2
I1
s.(dp0
Vcyps2t0
p1
I1
sVcyi2puq
p2
I1
s.(dp0
Vcyi2puq
p1
I1
sVcyqe6ao
p2
I1
s.(dp0
Vcyi2puq
p1
I1
sVcyses9o
p2
I1
s.(dp0
Vcyi2puq
p1
I1
sVcysook6
p2
I1
s.(dp0
Vcyi2puq
p1
I1
sVcyt6bll
p2
I1
s.(dp0
Vcyi2puq
p1
I1
sVcyt6bll
p2
I1
s.(dp0
Vcyt755e
p1
I1
sVcyi2puq
p2
I1
s.(dp0
Vcyi2puq
p1
I1
sVcytdnn8
p2
I1
s.(dp0
Vcyi2puq
p1
I1
sVcytdnn8
p2
I1
s.(dp0
Vcyi2puq
p1
I1
sVcytdnn8
p2
I1
s.(dp0
Vcyi2puq
p1
I1
sVcytlqfe
p2
I1
s.(dp0
Vcyu1vzd
p1
I1
sVcyi2puq
p2
I1
s.(dp0
Vcyi2puq
p1
I1
sVcyv6qh5
p2
I1
s.(dp0
Vcyv9nq2
p1
I1
sVcyi2puq
p2
I1
s.(dp0
Vcyw6pgz
p1
I1
sVcyi2puq
p2
I1
s.(dp0
Vcyi2puq
p1
I1
sVcyw8v9u
p2
I1
s.(dp0
Vcyi2puq
p1
I1
sVcywlox7
p2
I1
s.(dp0
Vcyi2puq
p1
I1
sVcyz7zyl
p2
I1
s.(dp0
Vcyi2puq
p1
I1
sVcyz7zyl
p2
I1
s.(dp0
Vcyi2puq
p1
I1
sVcyzhpvi
p2
I1
s.(dp0
Vcz10ghq
p1
I1
sVcyi2puq
p2
I1
s.(dp0
Vcyi2puq
p1
I1
sVcz17hqh
p2
I1
s.(dp0
Vcyi2puq
p1
I1
sVcz17hqh
p2
I1
s.(dp0
Vcyi2puq
p1
I1
sVcz17hqh
p2
I1
s.(dp0
Vcyi2puq
p1
I1
sVcz2jzs7
p2
I1
s.(dp0
Vcyi2puq
p1
I1
sVcz3cg8x
p2
I1
s.(dp0
Vcyi2puq
p1
I1
sVcz46irm
p2
I1
s.(dp0
Vcyi2puq
p1
I1
sVcz4iork
p2
I1
s.(dp0
Vcyi2puq
p1
I1
sVcz5mntx
p2
I1
s.(dp0
Vcz6cssv
p1
I1
sVcyi2puq
p2
I1
s.(dp0
Vcyi2puq
p1
I1
sVcz6t3oo
p2
I1
s.(dp0
Vcz92ouu
p1
I1
sVcyi2puq
p2
I1
s.(dp0
Vcyi2puq
p1
I1
sVcz95j1n
p2
I1
s.(dp0
Vcyi2puq
p1
I1
sVczaaxmt
p2
I1
s.(dp0
Vcyi2puq
p1
I1
sVczct2lh
p2
I1
s.(dp0
Vczcxz58
p1
I1
sVcyi2puq
p2
I1
s.(dp0
Vcyi2puq
p1
I1
sVczcz0s1
p2
I1
s.(dp0
Vcyi2puq
p1
I1
sVczd253b
p2
I1
s.(dp0
Vczd2okg
p1
I1
sVcyi2puq
p2
I1
s.(dp0
Vczdn3ui
p1
I1
sVcyi2puq
p2
I1
s.(dp0
Vcyi2puq
p1
I1
sVczdrt69
p2
I1
s.(dp0
Vczfbnti
p1
I1
sVcyi2puq
p2
I1
s.(dp0
Vczfbnti
p1
I1
sVcyi2puq
p2
I1
s.(dp0
Vczfbnti
p1
I1
sVcyi2puq
p2
I1
s.(dp0
Vcyi2puq
p1
I1
sVczflyv5
p2
I1
s.(dp0
Vcyi2puq
p1
I1
sVczfwwfz
p2
I1
s.(dp0
Vczgn9nm
p1
I1
sVcyi2puq
p2
I1
s.(dp0
Vcyi2puq
p1
I1
sVczhjepw
p2
I1
s.(dp0
Vcyi2puq
p1
I1
sVczhyy1u
p2
I1
s.(dp0
Vcyi2puq
p1
I1
sVczkyv79
p2
I1
s.(dp0
Vcyi2puq
p1
I1
sVczkzm53
p2
I1
s.(dp0
Vcyi2puq
p1
I1
sVczm8sek
p2
I1
s.(dp0
Vcyi2puq
p1
I1
sVcznymky
p2
I1
s.(dp0
Vcyi2puq
p1
I1
sVczomelq
p2
I1
s.(dp0
Vczp5q1o
p1
I1
sVcyi2puq
p2
I1
s.(dp0
Vcyi2puq
p1
I1
sVczpxdvq
p2
I1
s.(dp0
Vcyi2puq
p1
I1
sVczs021o
p2
I1
s.(dp0
Vcyi2puq
p1
I1
sVczs36e3
p2
I1
s.(dp0
Vcyi2puq
p1
I1
sVczstm7h
p2
I1
s.(dp0
Vczthmx7
p1
I1
sVcyi2puq
p2
I1
s.(dp0
Vcyi2puq
p1
I1
sVcztruu8
p2
I1
s.(dp0
Vczu8xxb
p1
I1
sVcyi2puq
p2
I1
s.(dp0
Vczv869h
p1
I1
sVcyi2puq
p2
I1
s.(dp0
Vczv869h
p1
I1
sVcyi2puq
p2
I1
s.(dp0
Vczx168o
p1
I1
sVcyi2puq
p2
I1
s.(dp0
Vcyi2puq
p1
I1
sVczyqtt1
p2
I1
s.(dp0
Vcyi2puq
p1
I1
sVczz8xmg
p2
I1
s.(dp0
Vcyi2puq
p1
I1
sVd00633l
p2
I1
s.(dp0
Vcyi2puq
p1
I1
sVd012mft
p2
I1
s.(dp0
Vd01hydf
p1
I1
sVcyi2puq
p2
I1
s.(dp0
Vcyi2puq
p1
I1
sVd02p8zz
p2
I1
s.(dp0
Vcyi2puq
p1
I1
sVd03mddt
p2
I1
s.(dp0
Vcyi2puq
p1
I1
sVd03p80g
p2
I1
s.(dp0
Vcyi2puq
p1
I1
sVd03p80g
p2
I1
s.(dp0
Vcyi2puq
p1
I1
sVd03p80g
p2
I1
s.(dp0
Vcyi2puq
p1
I1
sVd03w7k1
p2
I1
s.(dp0
Vcyi2puq
p1
I1
sVd0442i5
p2
I1
s.(dp0
Vcyi2puq
p1
I1
sVd05equo
p2
I1
s.(dp0
Vcyi2puq
p1
I1
sVd0689ea
p2
I1
s.(dp0
Vcyi2puq
p1
I1
sVd07264i
p2
I1
s.(dp0
Vcyi2puq
p1
I1
sVd07fjb5
p2
I1
s.(dp0
Vcyi2puq
p1
I1
sVd08e5ri
p2
I1
s.(dp0
Vcyi2puq
p1
I1
sVd08gmwk
p2
I1
s.(dp0
Vd08i0se
p1
I1
sVcyi2puq
p2
I1
s.(dp0
Vcyi2puq
p1
I1
sVd092iie
p2
I1
s.(dp0
Vcyi2puq
p1
I1
sVd09mr8i
p2
I1
s.(dp0
Vcyi2puq
p1
I1
sVd0a12nz
p2
I1
s.(dp0
Vcyi2puq
p1
I1
sVd0c6xkt
p2
I1
s.(dp0
Vcyi2puq
p1
I1
sVd0c6xkt
p2
I1
s.(dp0
Vcyi2puq
p1
I1
sVd0d2xdo
p2
I1
s.(dp0
Vd0eqb5t
p1
I1
sVcyi2puq
p2
I1
s.(dp0
Vcyi2puq
p1
I1
sVd0er7qm
p2
I1
s.(dp0
Vcy(dp0
Vcyi2puq
p1
I1
sVdtanto8
p2
I1
s.