(dp0
Vdjmm9lc
p1
I1
sVd0i8jkr
p2
I1
sVdrakaz7
p3
I1
sVd5e060v
p4
I1
sVdg5uru5
p5
I1
sVdg8pt52
p6
I1
sVcyku98p
p7
I1
sVdjxnxkx
p8
I1
sVdb3js2w
p9
I1
sVd3uxvjg
p10
I2
sVd9mp9k8
p11
I2
sVd3ai80x
p12
I1
sVdb0mdkh
p13
I1
sVdfte1ra
p14
I1
sVd7gwp8k
p15
I1
sVd3gg9ga
p16
I1
sVd022jfd
p17
I2
sVd0du9es
p18
I1
sVd0ehwuv
p19
I1
sVddwh47p
p20
I2
sVdnlw7dk
p21
I1
sVdjsri3h
p22
I1
sVd6md4w4
p23
I2
sVd332wdv
p24
I1
sVd50avq5
p25
I1
sVdazzhtv
p26
I1
sVd7q1atj
p27
I1
sVd75o6t0
p28
I1
sVd6m13su
p29
I1
sVdo5t79j
p30
I1
sVdikfl7h
p31
I1
sVd7i2sdr
p32
I1
sVdib5wv6
p33
I1
sVd2ft091
p34
I1
sVd58qczf
p35
I1
sVdfonkxm
p36
I1
sVddt9dsv
p37
I1
sVdihlpoj
p38
I1
sVdqqy98k
p39
I1
sVdb7xccu
p40
I1
sVd1qz3bc
p41
I1
sVd51u01d
p42
I2
sVd0a5r0l
p43
I1
sVdp7irqm
p44
I1
sVdd1v40z
p45
I1
sVdgt5csc
p46
I1
sVd8och87
p47
I2
sVdddopii
p48
I1
sVdbuoyxl
p49
I1
sVd1msk78
p50
I2
sVd9vmzg3
p51
I1
sVd8d8d2r
p52
I1
sVd77qato
p53
I1
sVdch2hbh
p54
I1
sVd1rhg27
p55
I1
sVdrqdad2
p56
I1
sVdchnpnj
p57
I1
sVdfnebw2
p58
I1
sVdby4v09
p59
I1
sVdpmfnjn
p60
I1
sVd7wlni3
p61
I2
sVdaoeojr
p62
I1
sVdfdkcbk
p63
I1
sVdd40bxd
p64
I1
sVczza1j3
p65
I1
sVd0efodk
p66
I1
sVdmszvw9
p67
I1
sVdibwtmp
p68
I1
sVdejoosj
p69
I1
sVddxkt4m
p70
I1
sVddyqcp7
p71
I1
sVdqnkfde
p72
I1
sVd4zm112
p73
I1
sVdcbtf30
p74
I1
sVd5os05b
p75
I1
sVczlz2pe
p76
I1
sVdpnfalj
p77
I1
sVdss9gfh
p78
I1
sVd3i7g9f
p79
I1
sVd8u1su3
p80
I1
sVd22gsrd
p81
I1
sVd1rjif4
p82
I1
sVde6z03a
p83
I1
sVd7tbzmt
p84
I1
sVdqej3d5
p85
I1
sVd1f97n3
p86
I1
sVd4tdavd
p87
I1
sVd1wtbwx
p88
I1
sVd3gknkk
p89
I1
sVdq3jbmp
p90
I3
sVcyvar6q
p91
I1
sVd39afuc
p92
I1
sVd0tskgb
p93
I1
sVdaww18d
p94
I1
sVd5fvuji
p95
I1
sVd1ky285
p96
I1
sVd10q35u
p97
I2
sVcz7hdee
p98
I1
sVdhkfu2k
p99
I1
sVcykczpt
p100
I1
sVdc5znx6
p101
I1
sVdj23u5r
p102
I1
sVdr6y2q6
p103
I1
sVdayu6j0
p104
I1
sVczf05d8
p105
I3
sVdhaae6r
p106
I1
sVd36mbd4
p107
I1
sVd0vb5uf
p108
I1
sVddia0wv
p109
I1
sVd0197gl
p110
I1
sVdd66n61
p111
I1
sVd5p1x9k
p112
I1
sVcysjfvu
p113
I1
sVcz6x7iq
p114
I1
sVdenwgiw
p115
I1
sVdfoozhu
p116
I1
sVd857dv0
p117
I1
sVd7x5irw
p118
I1
sVd9aage9
p119
I1
sVd8hwy74
p120
I1
sVd8rm77b
p121
I1
sVdf92z6n
p122
I1
sVd00r8ou
p123
I1
sVdgtjxyn
p124
I1
sVd52kbfw
p125
I1
sVdb3aawy
p126
I1
sVdniqivn
p127
I1
sVd0tjukn
p128
I1
sVdnghunh
p129
I1
sVd3mkmsl
p130
I1
sVd7cvpk4
p131
I1
sVdei4l1n
p132
I1
sVdedsngv
p133
I1
sVdfisqmh
p134
I1
sVdb5csru
p135
I1
sVd355pem
p136
I1
sVd969jjb
p137
I2
sVcyl7r16
p138
I2
sVdjlrsvv
p139
I1
sVd2dqg5e
p140
I1
sVdmqptv5
p141
I1
sVd27lox4
p142
I1
sVd0khjey
p143
I1
sVdo0883o
p144
I1
sVdgbj98e
p145
I1
sVdiff71p
p146
I1
sVdqeomhe
p147
I2
sVd7qzzc7
p148
I1
sVddxvtih
p149
I1
sVdb11ts8
p150
I1
sVd482ztr
p151
I1
sVdpfhapr
p152
I2
sVdiu8i84
p153
I1
sVd40qa11
p154
I1
sVd702mk5
p155
I1
sVd9ak65k
p156
I1
sVdgl0wzg
p157
I1
sVdfrp1rp
p158
I1
sVdq4t40e
p159
I1
sVd00gjfy
p160
I1
sVcyv4sle
p161
I1
sVdctjvey
p162
I1
sVdqmlbff
p163
I1
sVd9qaiep
p164
I1
sVdeyedm8
p165
I1
sVdaq59i3
p166
I1
sVd16jt6r
p167
I1
sVdku8rzq
p168
I1
sVdag3yto
p169
I1
sVd3r1ykv
p170
I1
sVd3vyxbi
p171
I1
sVd2p3qs5
p172
I1
sVddyjoos
p173
I2
sVdj03pe0
p174
I1
sVd5wfeyu
p175
I1
sVczwtk8r
p176
I1
sVdgia9hj
p177
I1
sVd1vt85z
p178
I1
sVdccvnuh
p179
I1
sVdgbdet8
p180
I1
sVd3eh672
p181
I3
sVcyu32rj
p182
I1
sVdgi0zb9
p183
I1
sVd66mb0q
p184
I1
sVd44w6my
p185
I1
sVd8gxx5d
p186
I1
sVdbbcjtw
p187
I1
sVdc4babc
p188
I1
sVdh4e6cc
p189
I1
sVd191dk8
p190
I1
sVddedb69
p191
I1
sVd0ioo97
p192
I1
sVcyqg827
p193
I1
sVdqnho4t
p194
I1
sVd0ay6gc
p195
I1
sVdbcxbxe
p196
I1
sVdauaow1
p197
I1
sVdfihxp7
p198
I1
sVdd444t6
p199
I2
sVdi8e932
p200
I1
sVdfcx69u
p201
I1
sVd7vw47o
p202
I2
sVd8hbb8x
p203
I3
sVdt2l4ut
p204
I1
sVd8f493u
p205
I1
sVd55qng0
p206
I1
sVd4vvsjf
p207
I2
sVdpifgs8
p208
I1
sVd5601lt
p209
I1
sVdcyj458
p210
I1
sVdkpxvjb
p211
I1
sVdn3t3m5
p212
I1
sVd8c072a
p213
I1
sVdas9f7a
p214
I1
sVd9fyii5
p215
I1
sVd9molf1
p216
I1
sVd7nexty
p217
I1
sVd8ql566
p218
I2
sVczokpki
p219
I1
sVdoo3lbm
p220
I1
sVdfrtctj
p221
I2
sVcznz7ji
p222
I1
sVdd50uzj
p223
I1
sVdkrcvu6
p224
I1
sVd619cgu
p225
I1
sVdglkucz
p226
I1
sVdaom1kr
p227
I1
sVd97t6s1
p228
I1
sVcz7y4fu
p229
I1
sVczs9tlq
p230
I1
sVdid00q0
p231
I1
sVddgtrwi
p232
I1
sVdi8wjc0
p233
I1
sVde2kk41
p234
I1
sVd2gdftg
p235
I1
sVdggv7a7
p236
I1
sVdkldckf
p237
I1
sVdnjpceb
p238
I1
sVd4kdvi9
p239
I1
sVd0b8tlr
p240
I1
sVda1x1io
p241
I1
sVd769tyf
p242
I1
sVdmowswg
p243
I1
sVd0jx0gg
p244
I1
sVd70dt0h
p245
I1
sVdkunb6l
p246
I1
sVdr5bcz5
p247
I2
sVd50e3tk
p248
I2
sVd1dadaa
p249
I1
sVdinsgv4
p250
I2
sVdfueq88
p251
I1
sVdqgkgwc
p252
I1
sVdovq7ub
p253
I1
sVdskz8p5
p254
I1
sVdmxlu2h
p255
I1
sVd4j77kd
p256
I1
sVd47ezkt
p257
I1
sVcywzu3s
p258
I1
sVd86ofj0
p259
I1
sVdhdozyz
p260
I2
sVd31lihd
p261
I2
sVd5u8pt6
p262
I1
sVd2h610x
p263
I1
sVd6ef0c8
p264
I1
sVdf1ya43
p265
I1
sVdf7uimi
p266
I1
sVd1fyx56
p267
I1
sVdbecllv
p268
I3
sVddbqrif
p269
I1
sVd5blban
p270
I1
sVdi6ig2n
p271
I1
sVdsa0qd1
p272
I1
sVdotievx
p273
I1
sVdhhv40t
p274
I1
sVdeh49rr
p275
I1
sVd94cw8o
p276
I1
sVdpu08im
p277
I1
sVd6mys09
p278
I1
sVdgj58kt
p279
I1
sVd5vp40t
p280
I1
sVd91jea9
p281
I1
sVd9xxlk0
p282
I1
sVdjv1f6s
p283
I1
sVd97dq6q
p284
I1
sVd4ltw69
p285
I1
sVd8f7wyc
p286
I1
sVdk0cnpi
p287
I2
sVdqrdmem
p288
I1
sVdjphgip
p289
I1
sVd7mtc19
p290
I1
sVd6buy9e
p291
I1
sVde6mhmp
p292
I1
sVdesxwlb
p293
I1
sVdim28g9
p294
I2
sVd5rhh7d
p295
I1
sVdecsz5y
p296
I1
sVdgcpmjw
p297
I1
sVd6gqs5y
p298
I1
sVd0hosg7
p299
I1
sVdaux8hg
p300
I1
sVcyjc9k0
p301
I1
sVcyrqrls
p302
I1
sVd65cctt
p303
I1
sVd3hewcf
p304
I2
sVdf92gpl
p305
I1
sVdaqqtc4
p306
I1
sVd4q345t
p307
I1
sVdf5vo2t
p308
I1
sVdbvu0xp
p309
I1
sVdaupnfr
p310
I1
sVdi29uc9
p311
I1
sVda42hld
p312
I1
sVd915cn0
p313
I1
sVdpnhyh3
p314
I1
sVd15wfkj
p315
I1
sVdkj932x
p316
I1
sVddjchx2
p317
I1
sVd54e63z
p318
I1
sVdejnu20
p319
I1
sVd956wz2
p320
I2
sVdrsxmdn
p321
I1
sVcze9gav
p322
I2
sVdibvlez
p323
I1
sVdgdt6gg
p324
I1
sVd5mybc7
p325
I1
sVd1frjbc
p326
I1
sVd0ntja2
p327
I1
sVdk32b6c
p328
I1
sVcyo07g5
p329
I1
sVdths5vl
p330
I1
sVdfxqh2j
p331
I1
sVdcaeie3
p332
I1
sVd26kau3
p333
I2
sVd7h10r7
p334
I1
sVd9a7cwz
p335
I3
sVdj15amh
p336
I1
sVcztpvfz
p337
I1
sVcymjo7s
p338
I1
sVdotz3or
p339
I1
sVdi2ln07
p340
I1
sVcyi6uq8
p341
I1
sVd5lxoek
p342
I1
sVdhhaiyc
p343
I1
sVdnzsnw0
p344
I1
sVd1ap46y
p345
I1
sVczej3p2
p346
I1
sVds5zmrw
p347
I1
sVcywicjs
p348
I1
sVd1kuzh0
p349
I1
sVd21uwj9
p350
I1
sVdjgn141
p351
I1
sVdmk3fns
p352
I1
sVd2wy9ko
p353
I1
sVd03vf5y
p354
I1
sVd96wvnx
p355
I1
sVcyup8kp
p356
I1
sVd9pkcma
p357
I1
sVd15s4zs
p358
I1
sVddyx16b
p359
I1
sVd2xe7fy
p360
I1
sVdj3wm6c
p361
I1
sVdbjhk35
p362
I1
sVd8kjkwe
p363
I1
sVd8h4qdo
p364
I1
sVdire9h3
p365
I1
sVdgj7no9
p366
I1
sVd5wtkcf
p367
I3
sVdppuihe
p368
I2
sVd65if5p
p369
I1
sVd72t74p
p370
I1
sVdbzejjt
p371
I2
sVdigz904
p372
I1
sVdafn2h4
p373
I1
sVd08brjb
p374
I3
sVd0tknzv
p375
I1
sVdthc1iq
p376
I1
sVd8bx2ud
p377
I1
sVdpoyv45
p378
I1
sVczn83hb
p379
I1
sVd3ilmgy
p380
I1
sVdo7v10z
p381
I1
sVdbe7q31
p382
I1
sVd6xw7lz
p383
I1
sVdneq79h
p384
I1
sVd6isnoq
p385
I1
sVddwekcg
p386
I1
sVdfl9wm5
p387
I1
sVd4jl4k1
p388
I1
sVd8pk3ww
p389
I1
sVdir4nzf
p390
I1
sVd3uoxef
p391
I1
sVd4hc6lh
p392
I1
sVcyojnxi
p393
I1
sVd7pdcvt
p394
I1
sVd9pem7l
p395
I1
sVczwalsc
p396
I1
sVdkmto5a
p397
I1
sVdeisyw3
p398
I2
sVd58byva
p399
I1
sVd5agotp
p400
I2
sVdsd4o3k
p401
I1
sVdcc6jno
p402
I1
sVdiks56x
p403
I1
sVdiqju3k
p404
I1
sVd1stpg3
p405
I1
sVd3fu07n
p406
I1
sVdjnshpt
p407
I1
sVd0yuwd5
p408
I1
sVd05p5m0
p409
I1
sVdd8jelb
p410
I1
sVdkebq4p
p411
I1
sVczn9bwn
p412
I1
sVd0d6rur
p413
I1
sVd3ev1v3
p414
I1
sVdrz2sm3
p415
I1
sVdebcilm
p416
I1
sVczk59h4
p417
I1
sVd65my30
p418
I1
sVdkdq9eq
p419
I1
sVd9yd2hs
p420
I1
sVd4q4p8p
p421
I1
sVd3bwa6r
p422
I1
sVdc9wx11
p423
I1
sVd3qy4xt
p424
I1
sVd1qyint
p425
I1
sVdkcn734
p426
I1
sVdj1laau
p427
I1
sVd3w31wl
p428
I1
sVd8syxyb
p429
I1
sVd22xcjr
p430
I2
sVd3etweh
p431
I3
sVd9xdl3j
p432
I1
sVd668bff
p433
I1
sVcyk7j27
p434
I1
sVd5byu6i
p435
I1
sVdevo3z3
p436
I1
sVdo9oiz3
p437
I1
sVd4w0kb2
p438
I1
sVd94i0ru
p439
I1
sVczygjv7
p440
I2
sVd9kavoj
p441
I1
sVczi9ddl
p442
I1
sVddu6erc
p443
I1
sVdckm9ou
p444
I1
sVd05n3w8
p445
I1
sVdeogn3o
p446
I1
sVdfwaiwe
p447
I1
sVdnnwtxu
p448
I1
sVdkko39m
p449
I2
sVdbborh1
p450
I1
sVdjdyg82
p451
I1
sVdh4i01t
p452
I1
sVdenzlku
p453
I1
sVd97b3ik
p454
I1
sVddohrlg
p455
I1
sVdpz3oo4
p456
I1
sVdf1ybd9
p457
I1
sVd25t9w1
p458
I1
sVdcezi72
p459
I1
sVczse81q
p460
I1
sVd8fp1lm
p461
I2
sVdenon6l
p462
I1
sVd5akfr2
p463
I1
sVczu77rj
p464
I1
sVd5ix159
p465
I1
sVd21gb9y
p466
I1
sVdhgyfm5
p467
I1
sVddlpzyd
p468
I1
sVdhxl8nn
p469
I1
sVdiyxmsg
p470
I1
sVd4wxuxt
p471
I1
sVcyug8uk
p472
I1
sVdbis1vs
p473
I1
sVdjfuj17
p474
I1
sVcytdo8p
p475
I1
sVdc0cycd
p476
I2
sVdcarshy
p477
I1
sVdn6cxd1
p478
I1
sVdrk520q
p479
I1
sVdb7ypmb
p480
I1
sVd17t3z1
p481
I1
sVdg2bwyg
p482
I1
sVdftj076
p483
I1
sVd0t99gc
p484
I4
sVd87c8ov
p485
I1
sVd8v8lmm
p486
I1
sVczbkvl9
p487
I1
sVdi9kqup
p488
I1
sVdj6xj5z
p489
I2
sVdrb27id
p490
I1
sVd0gdz1i
p491
I1
sVcyqst4b
p492
I1
sVdipsa64
p493
I1
sVdg370d5
p494
I1
sVdeil3bv
p495
I1
sVd10eyfg
p496
I1
sVdi9vzhu
p497
I1
sVd1k8158
p498
I1
sVd5g5yn1
p499
I1
sVd0mgm0l
p500
I1
sVd7swt8l
p501
I1
sVdg5qlvm
p502
I1
sVcykc5dc
p503
I1
sVd42d77e
p504
I1
sVd07qh5t
p505
I1
sVd53xy7a
p506
I1
sVd4r8ofu
p507
I1
sVdfwcv5x
p508
I1
sVdd7iitk
p509
I1
sVdehc0cs
p510
I1
sVd6m3xxl
p511
I1
sVd67p5ep
p512
I2
sVdpusc9h
p513
I1
sVd0ru01m
p514
I1
sVdfql3ln
p515
I1
sVcz3asxr
p516
I1
sVdqinznt
p517
I1
sVdqk5w8e
p518
I1
sVdpqlyur
p519
I1
sVd2aj9ka
p520
I1
sVd3y4lik
p521
I1
sVdbq6hds
p522
I1
sVdejd7c3
p523
I1
sVd22jeud
p524
I1
sVdktwitl
p525
I1
sVdiet1tg
p526
I1
sVd2l1ffg
p527
I1
sVdbt73zg
p528
I1
sVdqsqvpp
p529
I1
sVd980nkc
p530
I1
sVdfilbep
p531
I1
sVd8gl0du
p532
I3
sVd48xjuh
p533
I1
sVdg892wz
p534
I1
sVd38zu3u
p535
I1
sVd54g5s7
p536
I1
sVdt52vf4
p537
I1
sVd554b61
p538
I1
sVd3fjqjd
p539
I1
sVdfvl8cu
p540
I1
sVczl8kj3
p541
I1
sVczzva3t
p542
I2
sVd2g9sc7
p543
I2
sVdf052fm
p544
I1
sVdenpuyf
p545
I1
sVdgcwtam
p546
I1
sVd6kpmsu
p547
I1
sVd3j4eft
p548
I1
sVdk5j1xz
p549
I1
sVdg3tg80
p550
I1
sVcykbzf7
p551
I1
sVd9hggdl
p552
I1
sVdjxgyyv
p553
I1
sVd5hvvsn
p554
I1
sVd10m8mq
p555
I1
sVdeltv24
p556
I1
sVdrg66hp
p557
I1
sVdftkbqc
p558
I1
sVdg3gpzl
p559
I1
sVdr6a78o
p560
I1
sVdku06gc
p561
I1
sVd3ezxnt
p562
I1
sVde857fo
p563
I1
sVddgmvxr
p564
I1
sVdejg8xk
p565
I1
sVd0hkvw4
p566
I1
sVd3tdms4
p567
I1
sVdarx26j
p568
I1
sVcyjyims
p569
I1
sVd59pszr
p570
I1
sVd5eaio4
p571
I1
sVd957t73
p572
I1
sVdcsnnzx
p573
I1
sVdczkkjc
p574
I1
sVddvw2lk
p575
I1
sVdo5krug
p576
I1
sVcz35u5r
p577
I1
sVd1d8ysj
p578
I1
sVdevxe11
p579
I1
sVczarlzl
p580
I1
sVdkmj48o
p581
I1
sVd3jdbch
p582
I1
sVdh88b0y
p583
I2
sVdn94x16
p584
I1
sVczp33d3
p585
I1
sVdo5gjmx
p586
I1
sVds1p5ud
p587
I1
sVdebg29y
p588
I1
sVcyp03fr
p589
I1
sVd5e9ez4
p590
I1
sVd99luoa
p591
I1
sVdbjq0pb
p592
I1
sVd1kzydb
p593
I1
sVdjm970q
p594
I1
sVd6mc08i
p595
I1
sVd4qb6as
p596
I1
sVd36ifdq
p597
I1
sVd0pzd9t
p598
I1
sVdrc1sx9
p599
I4
sVdbcf21d
p600
I1
sVd3w7g2n
p601
I1
sVdn87ykd
p602
I1
sVdi9u57q
p603
I1
sVdcuivlp
p604
I1
sVd9126tu
p605
I1
sVd3n651n
p606
I1
sVd4rhxhn
p607
I1
sVdrkz350
p608
I1
sVd7c40sh
p609
I1
sVdrv50gf
p610
I1
sVdkzbty4
p611
I1
sVdrmdpsp
p612
I1
sVdnrxx1v
p613
I1
sVdbwokjw
p614
I1
sVdd23b72
p615
I1
sVdii82v0
p616
I1
sVdbjrujd
p617
I1
sVd2o4f55
p618
I1
sVdgbi2lz
p619
I1
sVd6qi88l
p620
I1
sVdfzv8jb
p621
I1
sVdkr68uw
p622
I1
sVdhvccjs
p623
I2
sVdqll7p0
p624
I1
sVczpr8rj
p625
I1
sVcz5m5ag
p626
I1
sVde88aod
p627
I1
sVd30by08
p628
I1
sVd92fb8x
p629
I1
sVdpkrmt4
p630
I1
sVd7tu920
p631
I1
sVd2agh4m
p632
I1
sVdeh42r6
p633
I1
sVdc478bi
p634
I1
sVdets1b3
p635
I2
sVdfvfxty
p636
I1
sVd8k4ahw
p637
I1
sVd3ocjii
p638
I1
sVdg3k4en
p639
I1
sVdc7tfnu
p640
I2
sVdf466r4
p641
I1
sVdg1lhov
p642
I1
sVd5kh4ts
p643
I1
sVdg0jpvt
p644
I1
sVdor5qpc
p645
I1
sVdkg0q16
p646
I1
sVdi69cz4
p647
I1
sVdhduqjn
p648
I1
sVd3puf11
p649
I1
sVdg1df0f
p650
I1
sVczsd4kt
p651
I1
sVd8fggpm
p652
I1
sVdnr7ccb
p653
I1
sVd0l3fei
p654
I1
sVdsecvjz
p655
I1
sVdbe75f0
p656
I1
sVdsrldx3
p657
I1
sVdsus3jf
p658
I1
sVdj2wgoj
p659
I2
sVd6hgttq
p660
I1
sVdfzbu9i
p661
I1
sVdk6eb43
p662
I1
sVd39gyma
p663
I1
sVdb5m79h
p664
I1
sVczgwe3w
p665
I1
sVd2530ac
p666
I1
sVd0k17lb
p667
I1
sVdazhbbd
p668
I1
sVd28nbth
p669
I1
sVdc4epu4
p670
I1
sVdr1i3hi
p671
I1
sVdbt15wq
p672
I1
sVd3nslo3
p673
I1
sVdj1pxol
p674
I1
sVdgo8m9u
p675
I1
sVd8brqs4
p676
I1
sVcz0z0r7
p677
I1
sVdq37z8y
p678
I1
sVd28g6wd
p679
I1
sVd0fcxkz
p680
I1
sVd0fkc4t
p681
I1
sVdimioko
p682
I1
sVd9r5ubu
p683
I1
sVdsab93v
p684
I3
sVd6j2mzd
p685
I1
sVcz91j9p
p686
I1
sVdqrniue
p687
I1
sVd1ctydy
p688
I1
sVd3nlnue
p689
I1
sVd104wvd
p690
I1
sVdhnhm9b
p691
I1
sVdskbhzc
p692
I1
sVd04nwg2
p693
I1
sVdhwf9st
p694
I1
sVczv7sh2
p695
I3
sVd2qdn3k
p696
I1
sVd3amud6
p697
I1
sVdbxu70v
p698
I1
sVcypde0w
p699
I1
sVd0bxmpr
p700
I1
sVdhex6b3
p701
I1
sVd06ifc8
p702
I1
sVd9ep8wh
p703
I1
sVd9bj06o
p704
I1
sVdg3dv7e
p705
I1
sVd9njg2k
p706
I1
sVd7id961
p707
I1
sVdivchjp
p708
I1
sVd5odhi6
p709
I1
sVd6ym6pw
p710
I1
sVdnva9t6
p711
I1
sVdeetfcg
p712
I1
sVdner48x
p713
I1
sVd0o2pjd
p714
I2
sVd3q7vzf
p715
I1
sVd0up9dl
p716
I1
sVd0b81q3
p717
I1
sVcznv8rg
p718
I1
sVdhvgycj
p719
I1
sVdcgi51n
p720
I1
sVd3ujgr6
p721
I1
sVdj1z9lt
p722
I1
sVd8fa1lw
p723
I1
sVcyit6br
p724
I1
sVcyjcrw2
p725
I1
sVd808gsi
p726
I1
sVdatb1lr
p727
I1
sVd4tbmsa
p728
I2
sVdfavjg4
p729
I1
sVdjuwr7o
p730
I1
sVd7a3ea8
p731
I1
sVda14kw7
p732
I1
sVd41t4y7
p733
I1
sVdfpj7kw
p734
I1
sVd25y3et
p735
I1
sVd5yd6s8
p736
I1
sVdgi25r9
p737
I1
sVd4cs1zz
p738
I1
sVczu78ed
p739
I1
sVdiscwv5
p740
I1
sVd398f3h
p741
I1
sVdrm0k0z
p742
I1
sVd73m8z7
p743
I2
sVdawp91l
p744
I1
sVdry7g1r
p745
I1
sVdgp6ykp
p746
I1
sVdg0wnea
p747
I1
sVd0en6ri
p748
I1
sVd83zo3f
p749
I1
sVd52esrc
p750
I1
sVd0bne5w
p751
I1
sVd430r0z
p752
I1
sVd4jnoua
p753
I1
sVds273xz
p754
I1
sVdg5uuug
p755
I1
sVd8dd8af
p756
I1
sVd4qwj9h
p757
I1
sVd9nd7fp
p758
I1
sVd1lwhfw
p759
I1
sVdn9hp3r
p760
I1
sVdinzm24
p761
I1
sVdepitf7
p762
I1
sVdjtkoyy
p763
I1
sVd8axl1t
p764
I1
sVdmsvrye
p765
I1
sVdd0o0um
p766
I2
sVdfrt6cc
p767
I1
sVd16logy
p768
I1
sVd1q0qc0
p769
I1
sVdhnyxoc
p770
I1
sVdo7sbwv
p771
I1
sVdhb6ern
p772
I1
sVdnhnms9
p773
I1
sVd376cp4
p774
I1
sVd4hz23a
p775
I1
sVdjedm7r
p776
I1
sVd8jx61e
p777
I1
sVdn1gw37
p778
I1
sVdekgr8d
p779
I1
sVdii6cqd
p780
I1
sVd9vg28d
p781
I1
sVd538mr6
p782
I1
sVdhn4yv4
p783
I1
sVd0w5n39
p784
I1
sVdckof7a
p785
I1
sVd0ek8pi
p786
I1
sVd57pbzx
p787
I1
sVd6tcr6j
p788
I1
sVdjzxwmf
p789
I1
sVdcmjow6
p790
I1
sVczktzhf
p791
I1
sVdeiyots
p792
I1
sVdjsdbtx
p793
I1
sVd9ahdwj
p794
I1
sVd38ytnu
p795
I1
sVdstdo60
p796
I1
sVdqm9jh8
p797
I1
sVd7kdrhh
p798
I1
sVdenezbs
p799
I1
sVdqebzzl
p800
I5
sVd4e3gi9
p801
I1
sVcz0hodo
p802
I1
sVdrb2tfd
p803
I1
sVdmlyeca
p804
I1
sVdad26mi
p805
I1
sVd16xbsw
p806
I1
sVd4667ie
p807
I1
sVdk0zznw
p808
I1
sVd7fi1p7
p809
I1
sVdnu93w3
p810
I1
sVd6vre0w
p811
I1
sVddl3u57
p812
I1
sVd26zj92
p813
I1
sVd1r5b4x
p814
I1
sVd9grq05
p815
I1
sVcypjp31
p816
I1
sVdkf1bir
p817
I1
sVdjshyld
p818
I1
sVd6he24c
p819
I1
sVd3eoacf
p820
I1
sVd66w8i5
p821
I1
sVdo1ub2b
p822
I1
sVd1u4doe
p823
I1
sVdsdude4
p824
I1
sVd1uzhjc
p825
I1
sVdbo2zyj
p826
I1
sVdqsb3xg
p827
I1
sVdf7cqbc
p828
I1
sVd6ai92b
p829
I1
sVcznbs2n
p830
I1
sVdomnh46
p831
I1
sVdqlav86
p832
I2
sVdbkwd5v
p833
I1
sVd5nlsqr
p834
I1
sVd68rehr
p835
I1
sVdethxkt
p836
I1
sVdsxtams
p837
I1
sVdet75ws
p838
I2
sVdq07tiq
p839
I1
sVdnxycmq
p840
I1
sVdk09q9w
p841
I1
sVdt1nfps
p842
I1
sVcyim7pd
p843
I1
sVdj3ugli
p844
I1
sVd8fsd1o
p845
I3
sVde33rcx
p846
I1
sVdijmi92
p847
I1
sVdg2ew8v
p848
I1
sVdmu422d
p849
I1
sVdf6jrd5
p850
I1
sVdipl9dy
p851
I1
sVdgd2mlu
p852
I1
sVd43mlia
p853
I1
sVdf52l1k
p854
I2
sVd5je1cp
p855
I1
sVcz4wa1q
p856
I1
sVda7fbz1
p857
I1
sVd26kchr
p858
I1
sVd4499c2
p859
I1
sVcylixp0
p860
I1
sVdnruwgy
p861
I3
sVcyt59qi
p862
I1
sVczflq64
p863
I1
sVd1abaln
p864
I1
sVdboe9h6
p865
I1
sVd49sicf
p866
I1
sVdb2awtx
p867
I1
sVd8p14rn
p868
I1
sVd3vt0ix
p869
I1
sVdb8ufzw
p870
I1
sVczau01v
p871
I1
sVd86qgu8
p872
I1
sVdroweg3
p873
I1
sVdr16ex3
p874
I1
sVdqeu9fn
p875
I1
sVd84vsha
p876
I1
sVd2pz39y
p877
I1
sVd1a4k9t
p878
I1
sVde8mwu0
p879
I1
sVd184m50
p880
I1
sVdfvonf9
p881
I1
sVd6mhg01
p882
I1
sVd6nxc2x
p883
I1
sVdofvkcm
p884
I1
sVcyme235
p885
I1
sVdh2mff9
p886
I1
sVd8rslwy
p887
I1
sVdsfghzq
p888
I1
sVczav3bh
p889
I1
sVdgimtcg
p890
I1
sVd5pgm2p
p891
I2
sVdmn9smi
p892
I1
sVczgksog
p893
I1
sVdcusj58
p894
I1
sVdej765a
p895
I1
sVd013zo3
p896
I1
sVd1ys3kp
p897
I1
sVd6dvbxm
p898
I1
sVd7kdgpz
p899
I1
sVd5gr3ta
p900
I1
sVdhw7n1q
p901
I1
sVd75xzyx
p902
I1
sVdc7c0nh
p903
I1
sVdsviopy
p904
I1
sVdbbl6e4
p905
I1
sVdc0eq24
p906
I1
sVdee1vt3
p907
I1
sVd31d0o2
p908
I1
sVd24id8j
p909
I2
sVd5o4luu
p910
I1
sVd2lg6g4
p911
I1
sVd294zgi
p912
I1
sVd8xvtl1
p913
I1
sVdek249y
p914
I1
sVda8jhcj
p915
I1
sVdrni8n2
p916
I1
sVdehvnqi
p917
I1
sVd4p40jr
p918
I1
sVcyp2zhl
p919
I2
sVd0hm7ly
p920
I1
sVdecqnwx
p921
I2
sVdahxm35
p922
I1
sVdam8r9l
p923
I1
sVdbwjmqx
p924
I1
sVd3tnbk5
p925
I1
sVdj24jju
p926
I1
sVdbzvh9u
p927
I1
sVd3wiiso
p928
I1
sVd30idcn
p929
I8
sVdhlnq00
p930
I1
sVd8iy5eb
p931
I1
sVd9fc0wk
p932
I1
sVdnjwe7u
p933
I1
sVd67qy98
p934
I1
sVd6ffrb1
p935
I1
sVdpvcc7e
p936
I1
sVdksaw32
p937
I1
sVcz0se8u
p938
I1
sVd2cc8qt
p939
I1
sVdmmi5vf
p940
I1
sVdj9fwn0
p941
I1
sVde4f09k
p942
I1
sVdb4d0h6
p943
I1
sVd8otx8p
p944
I1
sVdmzzdaq
p945
I1
sVd53dvxv
p946
I3
sVczcbg4z
p947
I1
sVdaizz57
p948
I1
sVdth5pse
p949
I1
sVdoed7k7
p950
I1
sVd2w2mx1
p951
I1
sVdeh8e8q
p952
I3
sVcyv12f6
p953
I1
sVdc7k24t
p954
I1
sVd4l8fmr
p955
I1
sVd27dwz9
p956
I1
sVcz85mpl
p957
I1
sVddf3pmi
p958
I1
sVdk2oq41
p959
I1
sVd5vro87
p960
I1
sVda0r0do
p961
I2
sVd9k1vdx
p962
I1
sVdeh4bju
p963
I2
sVdnyl06m
p964
I1
sVd5j2tvs
p965
I1
sVdke40n7
p966
I1
sVdmpfwou
p967
I1
sVdkvkydi
p968
I3
sVdkm7i7a
p969
I1
sVdk0ivzo
p970
I1
sVdhlu13g
p971
I1
sVdf9va74
p972
I1
sVd8fnso2
p973
I1
sVdamzj5t
p974
I1
sVd0w74cx
p975
I1
sVdg9dw8n
p976
I1
sVdcimguj
p977
I1
sVd1savbe
p978
I1
sVd0tvrs4
p979
I1
sVdrrbl6k
p980
I1
sVdi359dz
p981
I1
sVd3esfsb
p982
I1
sVd50ddbt
p983
I2
sVcyuz3uh
p984
I1
sVdc3d059
p985
I1
sVcyi83uc
p986
I1
sVdn8gsba
p987
I1
sVdkm5rac
p988
I1
sVdir5nja
p989
I2
sVdnb4hnz
p990
I1
sVdkgdhia
p991
I1
sVd6jn8f1
p992
I1
sVdf892g2
p993
I1
sVdmf24sy
p994
I1
sVd3xyw3q
p995
I1
sVdjb1lzw
p996
I1
sVdpnynsf
p997
I1
sVd7nbbcg
p998
I1
sVcz31gxk
p999
I1
sVda8mhlt
p1000
I1
sVd1wrxgd
p1001
I1
sVdppiq5o
p1002
I1
sVdd3z7zx
p1003
I1
sVdo7vya4
p1004
I1
sVd1jilvo
p1005
I2
sVcziah1q
p1006
I1
sVd8q70x2
p1007
I2
sVd32ksr4
p1008
I1
sVd7ee4n8
p1009
I1
sVd4gjd7c
p1010
I1
sVcz2qtyw
p1011
I1
sVdhojzjn
p1012
I1
sVdfap8yn
p1013
I1
sVd9r5s26
p1014
I1
sVdj369z7
p1015
I1
sVczl04wx
p1016
I1
sVdereoe1
p1017
I1
sVd0wmkgb
p1018
I1
sVdjmoum2
p1019
I1
sVd3q8s13
p1020
I1
sVdhmsjhl
p1021
I1
sVdqwgyry
p1022
I1
sVd8eitvf
p1023
I1
sVdhucfsp
p1024
I1
sVd1l858j
p1025
I1
sVdsbrgh6
p1026
I1
sVd28z8x7
p1027
I1
sVd1aqebm
p1028
I1
sVczqoo73
p1029
I1
sVd65i2ct
p1030
I1
sVd97im55
p1031
I1
sVd1806r0
p1032
I1
sVd3pi5gc
p1033
I1
sVdt673tk
p1034
I2
sVd0fn91w
p1035
I1
sVdiuv6xy
p1036
I1
sVd5xlspa
p1037
I1
sVd0brogl
p1038
I1
sVdpq5dlx
p1039
I1
sVczdi74q
p1040
I1
sVd7jb12l
p1041
I1
sVd5mjraq
p1042
I1
sVd025zw7
p1043
I2
sVcyp0y2y
p1044
I1
sVd728s3k
p1045
I1
sVdq12wmh
p1046
I1
sVd2hibrt
p1047
I1
sVdneiog9
p1048
I1
sVd7tr1bv
p1049
I1
sVd7p0bj1
p1050
I1
sVcyuuwts
p1051
I1
sVdangudx
p1052
I1
sVd2zk43m
p1053
I1
sVdkngb57
p1054
I1
sVd0b2m25
p1055
I1
sVd00dsqw
p1056
I1
sVdav8pnu
p1057
I1
sVd063pd6
p1058
I1
sVds011g1
p1059
I1
sVd32gsag
p1060
I1
sVcz1yr9o
p1061
I1
sVdbh6elw
p1062
I1
sVd7l6ymw
p1063
I1
sVdkshez8
p1064
I2
sVd1is968
p1065
I1
sVd9wsvqm
p1066
I1
sVdrti93f
p1067
I1
sVczwaw3e
p1068
I1
sVdh65iwc
p1069
I1
sVdeha09n
p1070
I1
sVdqokuwu
p1071
I1
sVd00to8b
p1072
I1
sVcyivlfa
p1073
I1
sVdjb9r93
p1074
I1
sVd2nla21
p1075
I1
sVczvh1w6
p1076
I1
sVdeogs0r
p1077
I1
sVdrauw6t
p1078
I1
sVdrxpxhn
p1079
I3
sVd7y5ra4
p1080
I1
sVdbwcyg5
p1081
I1
sVd1ea09e
p1082
I1
sVdkdql5p
p1083
I1
sVdr5z8n8
p1084
I2
sVddxljuf
p1085
I3
sVd1ka0wt
p1086
I1
sVd9u9nai
p1087
I1
sVd9kp0zj
p1088
I1
sVczf1j0i
p1089
I6
sVdf668g0
p1090
I1
sVdh67kuy
p1091
I1
sVd0jbcdx
p1092
I1
sVdf6w6r6
p1093
I1
sVdfxqf1e
p1094
I2
sVdhjj8kr
p1095
I1
sVdfbz4ju
p1096
I1
sVd7ysc4y
p1097
I1
sVd644o56
p1098
I1
sVd1m0dbx
p1099
I1
sVdjmnks1
p1100
I1
sVd8cwauz
p1101
I1
sVdo5edc8
p1102
I1
sVdkifsn4
p1103
I1
sVdbewqqx
p1104
I1
sVdc9cnzq
p1105
I2
sVdekztug
p1106
I1
sVdi3ka6k
p1107
I1
sVd78f0t4
p1108
I1
sVd0uof6l
p1109
I2
sVd37ukfd
p1110
I1
sVdafhbdm
p1111
I1
sVdj3l1hg
p1112
I1
sVdey7013
p1113
I1
sVd3exnas
p1114
I2
sVd9ntam5
p1115
I1
sVdmndave
p1116
I1
sVdb5q9a7
p1117
I1
sVd6s8dws
p1118
I1
sVcyjw965
p1119
I1
sVdp1malt
p1120
I1
sVdnyqeqm
p1121
I1
sVdhhwwq3
p1122
I1
sVds5lvb8
p1123
I1
sVde0wtjf
p1124
I1
sVdg9uhdw
p1125
I1
sVczr37ie
p1126
I1
sVd0nxthy
p1127
I1
sVdfdfjyf
p1128
I2
sVd81laso
p1129
I1
sVdjvj011
p1130
I1
sVdkm5d56
p1131
I1
sVdefttn4
p1132
I1
sVd2bi68v
p1133
I1
sVd6oxia1
p1134
I1
sVdqb580q
p1135
I1
sVd3aoq5n
p1136
I1
sVdfz12bw
p1137
I1
sVdbzuk9a
p1138
I1
sVdpdnee5
p1139
I1
sVd5pgbrj
p1140
I1
sVd2t718c
p1141
I1
sVdbz15l3
p1142
I1
sVdbdyy2u
p1143
I1
sVcze0dso
p1144
I1
sVdb0jbmf
p1145
I1
sVd806wzi
p1146
I1
sVczms013
p1147
I1
sVdsfhbkp
p1148
I1
sVd5zccn5
p1149
I1
sVd1btdoa
p1150
I1
sVd9io8ec
p1151
I1
sVdj0yjrp
p1152
I1
sVdhghs64
p1153
I1
sVcymjf4o
p1154
I1
sVcyqc00y
p1155
I1
sVdffuq7w
p1156
I1
sVdje2a98
p1157
I1
sVdjv3pzz
p1158
I1
sVd6jkehc
p1159
I1
sVd5ykjau
p1160
I1
sVd2aywqg
p1161
I1
sVdd15arh
p1162
I1
sVdecc2in
p1163
I1
sVd9v8e5k
p1164
I1
sVde2pkn1
p1165
I1
sVdphe2eu
p1166
I1
sVd7vo6fi
p1167
I1
sVddcouuh
p1168
I1
sVd1btwvq
p1169
I1
sVd0e089k
p1170
I1
sVd4cjnyc
p1171
I1
sVczf53bu
p1172
I1
sVdapl5rr
p1173
I2
sVd59cwfb
p1174
I1
sVd6t70dh
p1175
I1
sVdcgz6ou
p1176
I2
sVdglqugb
p1177
I1
sVdju356h
p1178
I1
sVdeongb8
p1179
I1
sVdruewke
p1180
I1
sVd3cxaw9
p1181
I1
sVdqab7mc
p1182
I1
sVdnd44se
p1183
I1
sVd0p4vte
p1184
I1
sVddjn0v6
p1185
I1
sVda3jq37
p1186
I1
sVd1svzg9
p1187
I1
sVd7q26yt
p1188
I1
sVd7cekkl
p1189
I1
sVdbux23t
p1190
I1
sVd6d5ucs
p1191
I1
sVd010i2a
p1192
I1
sVd1yyd4a
p1193
I2
sVcylhf0g
p1194
I1
sVd6knxmg
p1195
I1
sVdhg6hqs
p1196
I1
sVddwqa7c
p1197
I1
sVd0jy0te
p1198
I1
sVdfj8hs6
p1199
I2
sVdcqrero
p1200
I1
sVdo4httz
p1201
I1
sVdbada5o
p1202
I1
sVdkpn3tp
p1203
I2
sVdbixn9q
p1204
I1
sVdmxpqyi
p1205
I1
sVda1q5om
p1206
I1
sVdhzzmfm
p1207
I1
sVd8y14k6
p1208
I1
sVdmouxny
p1209
I1
sVd7pbfj0
p1210
I1
sVd1f6669
p1211
I1
sVdhimz8i
p1212
I1
sVddwnr7y
p1213
I1
sVds5i5xw
p1214
I1
sVdqjhyyk
p1215
I1
sVd7z9leg
p1216
I2
sVdhe1fxh
p1217
I1
sVd27yy8p
p1218
I1
sVd7qetvu
p1219
I1
sVdfegnqr
p1220
I1
sVd2fr4jw
p1221
I1
sVdcm5lnv
p1222
I1
sVd4x6l5v
p1223
I1
sVd9njahx
p1224
I1
sVd2fc6wf
p1225
I1
sVczbkfqy
p1226
I2
sVdt6w035
p1227
I1
sVcz3ofdu
p1228
I3
sVd013aip
p1229
I1
sVdn024qf
p1230
I1
sVdjoux57
p1231
I1
sVd4l3b9o
p1232
I1
sVdrn4ebh
p1233
I1
sVdcp6py4
p1234
I1
sVdf0hay5
p1235
I1
sVdbmd359
p1236
I1
sVdgz5q7c
p1237
I1
sVdpakpdv
p1238
I1
sVd4mdf0r
p1239
I2
sVddwkzgg
p1240
I1
sVdt41jss
p1241
I1
sVdbcl8es
p1242
I1
sVd2qeqxo
p1243
I1
sVd4cdo00
p1244
I1
sVdalr6ok
p1245
I1
sVd3ydtoh
p1246
I1
sVd4s0smc
p1247
I1
sVdt8gw8y
p1248
I1
sVczq5bao
p1249
I1
sVdp42hmz
p1250
I1
sVdd4rdio
p1251
I1
sVd03wclm
p1252
I1
sVdkylhrg
p1253
I1
sVd6he9re
p1254
I1
sVczyxszu
p1255
I1
sVdpaqvl4
p1256
I1
sVdijc3ks
p1257
I2
sVdr9c0l5
p1258
I1
sVds27eej
p1259
I1
sVd8gwyml
p1260
I1
sVdalfj3x
p1261
I1
sVdseudaw
p1262
I1
sVdikjzw3
p1263
I1
sVdmy6rlc
p1264
I1
sVdqmpal5
p1265
I1
sVdbp4amo
p1266
I1
sVdafc3ym
p1267
I1
sVcztsjox
p1268
I1
sVczyjzc1
p1269
I1
sVdd22g4r
p1270
I1
sVdaaylmu
p1271
I1
sVdnvlo03
p1272
I1
sVd3rcxdu
p1273
I1
sVda1yapb
p1274
I1
sVddrinr6
p1275
I1
sVdci0ib1
p1276
I1
sVdgrnwk7
p1277
I1
sVd62jci3
p1278
I1
sVczvfbfr
p1279
I1
sVdc2a13v
p1280
I1
sVdj2rnvz
p1281
I1
sVdemdmxj
p1282
I1
sVdgfx3gy
p1283
I1
sVdbksx34
p1284
I1
sVdt2i65j
p1285
I1
sVd728k3i
p1286
I1
sVdnvnk99
p1287
I1
sVd33ykfq
p1288
I1
sVd4o7ziv
p1289
I1
sVda7iodt
p1290
I1
sVd8mrjlm
p1291
I1
sVczlmh6v
p1292
I1
sVdfefvrq
p1293
I1
sVdntoxen
p1294
I1
sVdd0m0fg
p1295
I1
sVdcw6fgc
p1296
I1
sVd6s8i16
p1297
I1
sVdr4jr8g
p1298
I1
sVd3zp2x2
p1299
I1
sVdaic97m
p1300
I1
sVd32nnyb
p1301
I1
sVd3na71g
p1302
I2
sVdn7jc4f
p1303
I1
sVd44qlax
p1304
I1
sVdhikmy8
p1305
I3
sVdhub8ue
p1306
I1
sVcyop3mh
p1307
I1
sVde5h20i
p1308
I1
sVddwi07e
p1309
I2
sVddi8ksl
p1310
I1
sVdgh0fdi
p1311
I1
sVd10uezf
p1312
I1
sVd8o681r
p1313
I1
sVdiwq2vq
p1314
I1
sVdirw5pg
p1315
I1
sVd6xytjy
p1316
I1
sVdb5kbm9
p1317
I1
sVd7k5ccf
p1318
I1
sVdicbtjd
p1319
I1
sVdb90w3n
p1320
I1
sVd10zttw
p1321
I1
sVdhpzzbn
p1322
I1
sVdpoq54d
p1323
I1
sVd1n3vxo
p1324
I1
sVdcsp2dw
p1325
I1
sVdeikq2m
p1326
I1
sVdfmpgs0
p1327
I1
sVd09bw68
p1328
I2
sVczuoxc3
p1329
I1
sVdgj6u58
p1330
I1
sVdtay3ai
p1331
I1
sVdh6upoy
p1332
I1
sVd9khm0n
p1333
I1
sVd0gmn9m
p1334
I1
sVd2snawt
p1335
I1
sVczc74hm
p1336
I1
sVddi35fe
p1337
I1
sVdjt4661
p1338
I1
sVczhj1kt
p1339
I1
sVdqfyd57
p1340
I1
sVdc8yoey
p1341
I1
sVdq1vcoh
p1342
I1
sVdeydhb2
p1343
I1
sVdptkh3b
p1344
I1
sVdiblu84
p1345
I1
sVd9hcm3l
p1346
I1
sVd9hlyje
p1347
I1
sVdfwy2sd
p1348
I1
sVdt2h5tq
p1349
I1
sVdh0kf11
p1350
I1
sVd22gykj
p1351
I1
sVdqb4ypq
p1352
I1
sVdj5tg5s
p1353
I1
sVdnxkbc5
p1354
I1
sVdhjgeu5
p1355
I1
sVd7mbedp
p1356
I1
sVds4t95d
p1357
I1
sVdb8bhaq
p1358
I1
sVdj3iojt
p1359
I2
sVdpcsgof
p1360
I1
sVdiyq70o
p1361
I1
sVd2m2sxc
p1362
I1
sVdpexu3x
p1363
I1
sVde0he6w
p1364
I1
sVdskwtsr
p1365
I1
sVdkrhdok
p1366
I1
sVd3udzwg
p1367
I1
sVd8t55zf
p1368
I1
sVcyluo8b
p1369
I1
sVdccklxd
p1370
I1
sVcyvpidb
p1371
I1
sVdruczmp
p1372
I2
sVd8kpsfs
p1373
I1
sVdhcjib0
p1374
I1
sVdgb2obx
p1375
I1
sVdfyf39o
p1376
I1
sVdku8rmn
p1377
I1
sVdcvqjov
p1378
I2
sVd6fcv4a
p1379
I1
sVd0tg9hs
p1380
I1
sVdpy09yq
p1381
I1
sVd2nsm7w
p1382
I1
sVd3rpe27
p1383
I1
sVczvm1wj
p1384
I1
sVcywtgpp
p1385
I1
sVdhdaz3o
p1386
I1
sVd05wg8r
p1387
I1
sVd5888we
p1388
I1
sVdn6t7t0
p1389
I1
sVczykldx
p1390
I1
sVd0x7tzh
p1391
I1
sVdhb6u37
p1392
I1
sVdj60r8z
p1393
I1
sVd8j75b4
p1394
I1
sVd375qqm
p1395
I2
sVdoato8t
p1396
I1
sVdhuqvaj
p1397
I1
sVcz0g5td
p1398
I1
sVdepkio1
p1399
I1
sVdji7fcp
p1400
I1
sVdqsr6rn
p1401
I3
sVdrwlpha
p1402
I1
sVd1okvsu
p1403
I1
sVdbznnbg
p1404
I1
sVdcu54vg
p1405
I2
sVd3bh85x
p1406
I1
sVd1gezjj
p1407
I1
sVdsvld6a
p1408
I1
sVd8t2nta
p1409
I1
sVd4d3nxg
p1410
I1
sVd00mh1f
p1411
I1
sVdt8bgad
p1412
I1
sVdd1scxb
p1413
I1
sVdpyj8hz
p1414
I1
sVd26pvrw
p1415
I1
sVd3f3xwu
p1416
I1
sVd6f5qu5
p1417
I1
sVd5f9sgn
p1418
I2
sVdix50lh
p1419
I1
sVd81lv4z
p1420
I1
sVdop4gtx
p1421
I1
sVdimcbh9
p1422
I1
sVdnqawi9
p1423
I1
sVdfilw96
p1424
I1
sVd59m2v0
p1425
I1
sVddwn11a
p1426
I1
sVd4z3vwa
p1427
I1
sVddmu3z4
p1428
I1
sVddh5p85
p1429
I1
sVdfib76i
p1430
I1
sVd2ybqw0
p1431
I1
sVddeb8dp
p1432
I1
sVdjqxs1q
p1433
I1
sVdf8wl46
p1434
I1
sVdtfd3pq
p1435
I1
sVdbi5d78
p1436
I1
sVd8vnffy
p1437
I1
sVd9r9qlt
p1438
I1
sVdoa5usq
p1439
I1
sVd0q1rj3
p1440
I1
sVdoxi6ay
p1441
I1
sVdbwwx3z
p1442
I1
sVd1qm0ys
p1443
I1
sVdrc3bso
p1444
I1
sVdd49ryp
p1445
I1
sVdb05c5n
p1446
I3
sVd6xl47d
p1447
I1
sVddjcb6i
p1448
I2
sVczkvurn
p1449
I1
sVdcev5co
p1450
I1
sVd8m3ws2
p1451
I1
sVd0igpqo
p1452
I1
sVdo9tqvd
p1453
I3
sVdjmred1
p1454
I1
sVdeu49mb
p1455
I1
sVd11cpwv
p1456
I1
sVd0au9ny
p1457
I1
sVdkhoza8
p1458
I1
sVdoivnu6
p1459
I1
sVdk0d3m2
p1460
I1
sVd3ex1r2
p1461
I1
sVddxxtjn
p1462
I1
sVd03l1j3
p1463
I1
sVd3d1u2t
p1464
I1
s.