(dp0
Vdenm2y8
p1
I1
sVd52zdyq
p2
I1
sVdprb3jk
p3
I1
sVdgz9za4
p4
I1
sVd40ro36
p5
I1
sVd69hh90
p6
I1
sVdo11058
p7
I1
sVd249i5e
p8
I1
sVddwn2ym
p9
I1
sVdd29qgt
p10
I1
sVd24r5kg
p11
I1
sVd5ivqat
p12
I1
sVdgpb0j8
p13
I1
sVdhu4bvq
p14
I1
sVdnuctpd
p15
I1
sVdf4ln8x
p16
I1
sVcz0hvtv
p17
I1
sVd1j4tol
p18
I1
sVcyk84q6
p19
I1
sVcynrmwy
p20
I1
sVdaavc35
p21
I4
sVd1phg6i
p22
I1
sVd1cccua
p23
I1
sVd6rvn7b
p24
I1
sVd1i650c
p25
I1
sVdgn7sw7
p26
I1
sVd56g3dq
p27
I1
sVdiab4ep
p28
I1
sVdb353if
p29
I1
sVd7ztveg
p30
I2
sVdrpxlcp
p31
I1
sVde6m5om
p32
I1
sVdcf2cfp
p33
I1
sVd3tn1pt
p34
I1
sVcz4ajyw
p35
I1
sVd4ij9w0
p36
I1
sVd72f726
p37
I1
sVd8ce17t
p38
I4
sVd2ylcy8
p39
I1
sVd5082m2
p40
I1
sVdj2qzln
p41
I1
sVdj5j4r1
p42
I1
sVd3w42z3
p43
I2
sVdns8z15
p44
I1
sVdb51tq4
p45
I1
sVdgs9rab
p46
I1
sVdr4cfz7
p47
I1
sVd85ypb4
p48
I1
sVd89i3aw
p49
I1
sVdi0oo6j
p50
I1
sVd88g3n4
p51
I1
sVd2b2zgj
p52
I1
sVd5irfn9
p53
I1
sVdi8g5ap
p54
I1
sVdf1v9yk
p55
I1
sVdo7t8q4
p56
I2
sVczj69g0
p57
I1
sVcz3cg8x
p58
I1
sVdc6p2mt
p59
I1
sVdmh8wxd
p60
I4
sVd8dlkxm
p61
I4
sVcz5ftce
p62
I1
sVd07iltg
p63
I1
sVdbpyjzs
p64
I1
sVd5gw2tk
p65
I1
sVd6ir1t7
p66
I1
sVdh3byx9
p67
I3
sVds5bmj5
p68
I1
sVdgxhvol
p69
I1
sVd3eaqxj
p70
I1
sVd9fkmuq
p71
I1
sVdcyhvik
p72
I4
sVdfbfrmg
p73
I3
sVdifw7td
p74
I1
sVdbc2fvc
p75
I1
sVda1qfhp
p76
I4
sVdhnhwi4
p77
I2
sVd3kyd5s
p78
I1
sVdh9xjtq
p79
I2
sVdr7kx9y
p80
I1
sVdc1ykew
p81
I1
sVdfk700k
p82
I1
sVdds6bcs
p83
I1
sVd0x7tzh
p84
I1
sVd039zrf
p85
I1
sVd1rikc0
p86
I1
sVdhzwm8q
p87
I1
sVd7e04h0
p88
I1
sVd8v7c95
p89
I1
sVdbn5v45
p90
I1
sVdq2yvrh
p91
I1
sVcytgbpj
p92
I1
sVd2sa0f4
p93
I5
sVdqc7151
p94
I1
sVdisc3bw
p95
I1
sVd026g2o
p96
I4
sVd14t58o
p97
I1
sVd1uaic1
p98
I1
sVdoj4pus
p99
I1
sVd852xbs
p100
I1
sVddkh442
p101
I1
sVcyhyjch
p102
I2
sVd3xstgo
p103
I1
sVd1ghp9j
p104
I1
sVd1v2hpd
p105
I1
sVdi804hs
p106
I1
sVdjzix0p
p107
I1
sVdimd5ne
p108
I1
sVd1y897a
p109
I1
sVcyzr3qr
p110
I1
sVd6sdyhu
p111
I1
sVdj0or6l
p112
I1
sVd9nzmv6
p113
I1
sVdgonb43
p114
I1
sVdb16x78
p115
I1
sVdkldgyb
p116
I1
sVdf4lqgi
p117
I2
sVczc57ep
p118
I1
sVdktrdmq
p119
I2
sVd6zddop
p120
I1
sVdo41xrt
p121
I1
sVdj1bh9y
p122
I1
sVdb7egk6
p123
I1
sVdc9awu7
p124
I1
sVd0gerht
p125
I1
sVd6dcn3j
p126
I1
sVd5nfon1
p127
I1
sVdhia0yr
p128
I1
sVd9p7xhb
p129
I2
sVdi839uo
p130
I1
sVd5uhxc9
p131
I1
sVcz0p5mr
p132
I1
sVdrk6ho8
p133
I1
sVdhn5uec
p134
I2
sVd4fbf4a
p135
I1
sVczigb7l
p136
I1
sVdp9ksla
p137
I1
sVd0x3s7j
p138
I1
sVdoe1stc
p139
I1
sVda3zpg2
p140
I1
sVdorox9h
p141
I1
sVdhue6kg
p142
I1
sVdiiemau
p143
I1
sVdajtn4i
p144
I1
sVdc3zr6y
p145
I1
sVdais4be
p146
I1
sVdo7t8d1
p147
I2
sVd3x7kfk
p148
I1
sVcz0o47h
p149
I1
sVdg33wwq
p150
I1
sVdh60unj
p151
I2
sVdiyk8h5
p152
I1
sVdphbh21
p153
I1
sVd6txqaf
p154
I1
sVd1y2tkp
p155
I1
sVdiqmbla
p156
I1
sVdf121ws
p157
I1
sVcz0o0im
p158
I1
sVdck2ic5
p159
I1
sVdpvqh0z
p160
I1
sVdggnpja
p161
I1
sVdazinoi
p162
I1
sVcyy2fnt
p163
I2
sVd6d8f6c
p164
I1
sVd4fb9ty
p165
I1
sVdb1aj9g
p166
I7
sVdkyibc8
p167
I1
sVdayrqin
p168
I3
sVd9p70gs
p169
I1
sVdrd6nrf
p170
I1
sVd37grcy
p171
I1
sVd7kygdp
p172
I1
sVdsxl79f
p173
I2
sVd0y2uaq
p174
I1
sVd2dfkur
p175
I1
sVdg2wz2o
p176
I1
sVdeuoomp
p177
I1
sVd3hrpcd
p178
I1
sVd79z2le
p179
I1
sVdoj7efe
p180
I6
sVd5t8bi8
p181
I1
sVd00xzfm
p182
I1
sVcyttz0b
p183
I1
sVd84b7k8
p184
I2
sVd3xc2wg
p185
I1
sVdqtjx4r
p186
I1
sVdnqr32v
p187
I1
sVd5wf78t
p188
I2
sVdnr9tnq
p189
I1
sVdrv8p4u
p190
I1
sVdcpn03d
p191
I1
sVdggn2kj
p192
I1
sVdg9hpcw
p193
I1
sVdcum657
p194
I1
sVd04zzp4
p195
I2
sVdceinar
p196
I1
sVdbcdwtw
p197
I1
sVdawpcer
p198
I1
sVdeeui2o
p199
I1
sVdjf7zuh
p200
I1
sVdb0yzkq
p201
I1
sVd1xeqm0
p202
I4
sVdnnt4ab
p203
I1
sVdg8lpfk
p204
I1
sVd15vh2q
p205
I1
sVd01bxuf
p206
I1
sVd242pkt
p207
I1
sVdix31fj
p208
I1
sVdayjqrh
p209
I8
sVdod2c1r
p210
I1
sVdeexfj9
p211
I1
sVcymek03
p212
I3
sVdsyoqas
p213
I1
sVd3t0ndy
p214
I1
sVd6qibix
p215
I2
sVd2lb8hn
p216
I1
sVdbp8igz
p217
I1
sVdn10tca
p218
I2
sVdtd9dup
p219
I1
sVdcdy4a6
p220
I1
sVdiv44cy
p221
I1
sVd3t6xmo
p222
I1
sVd05nu4x
p223
I1
sVddmun6o
p224
I1
sVd4c34cs
p225
I2
sVdquk327
p226
I1
sVdf0r7vx
p227
I2
sVd1yo9lr
p228
I2
sVdnu8ulf
p229
I1
sVdmez815
p230
I1
sVd686gy6
p231
I4
sVd13bdea
p232
I1
sVdgvokk7
p233
I1
sVdqrk2ky
p234
I1
sVcyrunnh
p235
I1
sVd37t2w8
p236
I1
sVd4njiwi
p237
I1
sVdr1ahzb
p238
I5
sVd3yku1a
p239
I1
sVde7sqog
p240
I1
sVdotullv
p241
I1
sVd50e1vo
p242
I1
sVd0eqc5t
p243
I1
sVdaiqigt
p244
I1
sVd5dysmx
p245
I1
sVdgi7hye
p246
I1
sVcyhyih4
p247
I1
sVd0ibn1c
p248
I1
sVdkmr47o
p249
I1
sVdg2x9gy
p250
I12
sVdsz9ee1
p251
I1
sVd8t017i
p252
I1
sVd9faptv
p253
I2
sVddt2jsj
p254
I1
sVd6o5tcv
p255
I1
sVdc1ybl1
p256
I1
sVdeznxzo
p257
I1
sVdinokpa
p258
I1
sVdbud3gx
p259
I1
sVdcq1s93
p260
I1
sVdqgcpix
p261
I1
sVd4gv9s2
p262
I6
sVd1sxro4
p263
I3
sVdt2k68t
p264
I1
sVdhsw5hg
p265
I1
sVdoj5qhm
p266
I1
sVdawgpx1
p267
I1
sVdcbv016
p268
I1
sVdo7v734
p269
I4
sVd2qhdf8
p270
I1
sVczmhh76
p271
I2
sVddh3qr8
p272
I2
sVdbftqc5
p273
I1
sVdik1cjv
p274
I1
sVcz8m4nm
p275
I2
sVdaqzdix
p276
I1
sVd8cdbcv
p277
I2
sVdbzeug6
p278
I1
sVddfvnem
p279
I1
sVd35ouqx
p280
I1
sVdoj4lk3
p281
I1
sVd5eee3y
p282
I1
sVd3tnn0n
p283
I1
sVd0266d8
p284
I1
sVdrhpkru
p285
I1
sVd2bq47z
p286
I1
sVd054fo0
p287
I1
sVdi9sngq
p288
I1
sVdcatew8
p289
I1
sVdczcj57
p290
I1
sVdfue8kh
p291
I2
sVd2syb2v
p292
I1
sVczux2pl
p293
I1
sVday8w0a
p294
I1
sVdbdjnui
p295
I3
sVd0ikl5d
p296
I1
sVde250td
p297
I2
sVczvhna7
p298
I1
sVdf48e8i
p299
I1
sVd8z5z7s
p300
I1
sVdid4ute
p301
I2
sVdopeg0h
p302
I1
sVdih909v
p303
I1
s.