(dp0
Vczkcd6r
p1
I1
sVdh76ez1
p2
I1
sVd9g0uta
p3
I1
sVd1qb2c8
p4
I1
sVdjhqmko
p5
I1
sVd4cv2xk
p6
I2
sVdbg7m7z
p7
I1
sVdedv5gg
p8
I1
sVds3ltfo
p9
I1
sVddcllp1
p10
I3
sVd4dml4m
p11
I1
sVdia1k8d
p12
I1
sVd9etdc3
p13
I1
sVd4bvrsk
p14
I1
sVcza2kqr
p15
I4
sVddytwka
p16
I1
sVd0rpjs1
p17
I1
sVd0oshtk
p18
I1
sVdcflpqy
p19
I1
sVdq3amlx
p20
I1
sVdsbl0a7
p21
I1
sVd0ehstl
p22
I1
sVdodi73w
p23
I1
sVczz209o
p24
I1
sVdg24fet
p25
I1
sVdnjixv0
p26
I1
sVdht3b88
p27
I1
sVd1sq9wo
p28
I2
sVd4o04uj
p29
I1
sVde6r1wk
p30
I1
sVdf7ituv
p31
I2
sVdg1mb9t
p32
I2
sVdbt5c3i
p33
I1
sVdmg5r88
p34
I1
sVd3257b6
p35
I1
sVdi0j5gm
p36
I1
sVd9goc57
p37
I2
sVdhva12o
p38
I1
sVd2fd35h
p39
I1
sVd1dyuy5
p40
I2
sVd8esi1r
p41
I1
sVdp8t76k
p42
I5
sVd2i143j
p43
I5
sVdj4ztp2
p44
I4
sVd9yt1z2
p45
I1
sVdebib4b
p46
I2
sVczrwwkt
p47
I1
sVdbe112c
p48
I1
sVd3yd3m4
p49
I1
sVdbo1zow
p50
I2
sVdk002ez
p51
I3
sVdns3dog
p52
I1
sVdijchj9
p53
I1
sVczo9zqa
p54
I1
sVdcech2t
p55
I1
sVdastwnp
p56
I1
sVdgvw69k
p57
I1
sVd68lzo0
p58
I1
sVd7yzgu4
p59
I1
sVdcmcpxl
p60
I1
sVd12j3b3
p61
I1
sVdg2k4rc
p62
I1
sVde1frjw
p63
I1
sVdhi21nm
p64
I3
sVd4cy2f8
p65
I1
sVdh6xm4f
p66
I1
sVdela5zg
p67
I1
sVd4d57ya
p68
I2
sVd3nedhf
p69
I1
sVd5ox02w
p70
I2
sVdbgoeii
p71
I1
sVdht318z
p72
I1
sVd333zjz
p73
I5
sVdn7nxnu
p74
I3
sVdmvqm5y
p75
I2
sVdpps2hj
p76
I1
sVdfbewuo
p77
I2
sVd0e4e2j
p78
I1
sVd0xjhwg
p79
I1
sVd8ermui
p80
I2
sVd79h4vu
p81
I1
sVdjzpxpi
p82
I5
sVdjztbb6
p83
I1
sVdkzbsdq
p84
I1
sVdbn5ktt
p85
I1
sVdr9mqvu
p86
I1
sVdi9wmo9
p87
I1
sVdj57mns
p88
I1
sVdkatypc
p89
I2
sVdrv2x1t
p90
I1
sVd2te9zd
p91
I1
sVd1z3fe5
p92
I8
sVdcjtbjc
p93
I1
sVdaa3wfm
p94
I1
sVd6upmam
p95
I1
sVdnfwgcz
p96
I1
sVdezqz5g
p97
I1
sVdarec3e
p98
I1
sVd1eu7u3
p99
I2
sVdkr11ay
p100
I1
sVcyisaf1
p101
I5
sVdp8cg9h
p102
I4
sVd4iw8fm
p103
I1
sVd4953bq
p104
I1
sVdqpmcyw
p105
I2
sVdjzx0nd
p106
I1
sVdn566ck
p107
I1
sVdgkfqdi
p108
I1
sVd5yi7ql
p109
I2
sVdf16pre
p110
I4
sVd6n8rcs
p111
I1
sVdia375c
p112
I1
sVdabclp3
p113
I1
sVd2i4cup
p114
I7
sVd2jqn22
p115
I1
sVdalb9dn
p116
I1
sVd9lq23i
p117
I1
sVd027kh2
p118
I1
sVd6qgu4h
p119
I1
sVczraf9v
p120
I1
sVd8honnn
p121
I1
sVd1ayjjj
p122
I3
sVdi9yws6
p123
I1
sVdcmrtxk
p124
I1
sVdpbwosw
p125
I2
sVdqp03pq
p126
I1
sVd9eqr42
p127
I1
sVds3o69n
p128
I2
sVd3ssedm
p129
I3
sVd0oeaqq
p130
I1
sVdfsnjgu
p131
I1
sVd8wlzlf
p132
I1
sVdia1lsx
p133
I3
sVdhe11w5
p134
I1
sVdhayhyw
p135
I6
sVdp8k3ho
p136
I1
sVdc6pnbh
p137
I1
sVdd1r02v
p138
I1
sVdk4cgsy
p139
I1
sVdilbv0w
p140
I4
sVdjk92ap
p141
I1
sVczlxh20
p142
I2
sVd1bdwnr
p143
I1
sVd3nzeqz
p144
I1
sVd5oqx14
p145
I1
sVd9cypqv
p146
I3
sVdjsluqb
p147
I7
sVd50mxfx
p148
I1
sVdk0yr4v
p149
I1
sVdi9y2kf
p150
I2
sVd40zww5
p151
I1
sVdia10h6
p152
I1
sVdpgeryu
p153
I3
sVdbkuuwg
p154
I1
sVd53jlf1
p155
I1
sVdjzz0rp
p156
I1
sVd55d5zh
p157
I1
sVd09vfey
p158
I6
sVdoiu72o
p159
I1
sVdf8fdso
p160
I2
sVd68m1nw
p161
I2
sVd9yy27o
p162
I1
sVd77eybc
p163
I1
sVdpxevhk
p164
I1
sVdakoatd
p165
I1
sVd0eaf71
p166
I2
sVdao1pt5
p167
I1
sVdak3dlz
p168
I3
sVdecxtn7
p169
I1
sVd07br2q
p170
I1
sVdk0a22t
p171
I1
sVdegmafo
p172
I1
sVdkhobe5
p173
I8
sVdemxl0a
p174
I1
sVd1in62o
p175
I7
sVd0hv134
p176
I1
sVd9xbwja
p177
I1
sVczx1ll8
p178
I1
sVdakazmj
p179
I1
sVdnu8ulf
p180
I1
sVdkzc3f6
p181
I1
sVddnj5nq
p182
I2
sVdn7n5cx
p183
I1
sVdgxl0y2
p184
I1
sVdqbfcvm
p185
I1
sVd5op49m
p186
I4
sVda8755x
p187
I2
sVdjzxxka
p188
I1
sVd1fxixw
p189
I1
sVdf4yi0r
p190
I4
sVd8o6500
p191
I1
sVd4cwvua
p192
I1
sVd55bgeu
p193
I1
sVd0pbrv0
p194
I1
sVdehlge1
p195
I1
sVdaa54gy
p196
I1
sVd9eqt3i
p197
I2
sVcyr8fc5
p198
I2
sVdk01x5f
p199
I1
sVdevbrjk
p200
I1
sVd07a799
p201
I3
sVd2h0xmx
p202
I1
sVdj8hkfn
p203
I4
sVdf1lhnk
p204
I1
sVdia3aij
p205
I1
sVdcp8hdo
p206
I1
sVd7sc2fz
p207
I1
sVdrx1uuz
p208
I1
sVdglvuw0
p209
I1
sVddhj8kf
p210
I1
sVd72oyzm
p211
I1
sVders5zl
p212
I1
sVcym21hr
p213
I1
sVd3h507t
p214
I1
sVd1g0mep
p215
I1
sVdqqvhdu
p216
I1
sVczqs2jo
p217
I1
sVdpge50m
p218
I1
sVd3k59lw
p219
I1
sVdnqvab9
p220
I1
sVda662yk
p221
I1
sVd4dhziv
p222
I3
sVdh84bqq
p223
I3
sVdk0ispj
p224
I2
sVdc6ff3p
p225
I3
sVdcvmikh
p226
I1
sVdpcjsj6
p227
I2
sVdi434zj
p228
I5
sVdk0jmxw
p229
I1
sVd8k4h87
p230
I1
sVdfo9tli
p231
I1
sVdak2xt2
p232
I1
sVd89lvz3
p233
I1
sVd5f2ahr
p234
I1
sVdiw7qyq
p235
I1
sVdgl1nmh
p236
I1
sVdgcwtam
p237
I1
sVdia2531
p238
I1
sVd6fn6ew
p239
I3
sVdakc16x
p240
I1
sVd7qe6nr
p241
I1
sVdeuajnt
p242
I1
sVd2uumh2
p243
I1
sVd5lik6g
p244
I1
sVdhwdcjy
p245
I1
sVd3izfip
p246
I1
sVdj0or6l
p247
I3
sVdfbf7tv
p248
I1
sVdao0ayv
p249
I4
sVdiu564h
p250
I1
sVdaptjpf
p251
I6
sVd4j4hw2
p252
I1
sVd3mh8yo
p253
I1
sVdj4u3mo
p254
I1
sVdjsb838
p255
I1
sVdjsgdh4
p256
I1
sVdfwmeg5
p257
I2
sVdp7hkvh
p258
I3
sVdc5xh98
p259
I1
sVdc2d4j2
p260
I1
sVcza0zdc
p261
I1
sVdakvll2
p262
I2
sVd97a3xw
p263
I1
sVdimkk81
p264
I1
sVczk51ki
p265
I2
sVd2jssek
p266
I1
sVd78ay23
p267
I1
sVdazet8j
p268
I1
sVd8j6f9z
p269
I2
sVdax87jr
p270
I1
sVd3pco3m
p271
I1
sVd9yskf4
p272
I2
sVd2bxmwi
p273
I1
sVdrk0e59
p274
I1
sVd8223zw
p275
I1
sVd5oozqg
p276
I1
sVda6jckg
p277
I1
sVdhi1xo9
p278
I2
sVddk6g76
p279
I2
sVdo2j9d4
p280
I1
sVd6imwki
p281
I2
sVdqlalgo
p282
I2
sVd115oyv
p283
I1
sVdc5u8x8
p284
I1
sVd61du7e
p285
I1
sVd1ob0mb
p286
I2
sVderap60
p287
I1
sVdhab4f6
p288
I1
sVdfb2yfk
p289
I1
sVdbvdj0r
p290
I1
sVdd8n96w
p291
I1
sVd2jk6ux
p292
I1
sVcywhzpd
p293
I1
sVdaoo5sf
p294
I1
sVdi0zptg
p295
I1
sVd1kodme
p296
I1
sVdjtw5xy
p297
I1
sVd5ui9uf
p298
I1
sVdgz0d1m
p299
I1
sVdqplcjv
p300
I3
sVdbt5azo
p301
I6
sVdpykm03
p302
I1
sVdakkeas
p303
I3
sVd1int3f
p304
I2
sVddnfryo
p305
I2
sVd30al5d
p306
I1
sVdp7xal5
p307
I7
sVdjl39dk
p308
I2
sVdbpaolg
p309
I1
sVdapt340
p310
I1
sVd6jmj6o
p311
I1
sVd0umm57
p312
I1
sVd07nc7i
p313
I1
sVddyykds
p314
I1
sVdpm0rxj
p315
I1
sVd073kt7
p316
I1
sVd495qy1
p317
I1
sVdpq5et5
p318
I4
sVdp7q258
p319
I2
sVdcyhli5
p320
I1
sVd120piw
p321
I1
sVdak3241
p322
I1
sVdk05wge
p323
I1
sVdapu8hp
p324
I4
sVcyxcxcc
p325
I1
sVd6agfs8
p326
I1
sVd79myct
p327
I1
sVczklrs4
p328
I1
sVdk0ec4h
p329
I1
sVdauo0wg
p330
I1
sVdam7lr1
p331
I3
sVd5ji1cu
p332
I1
sVd66x74p
p333
I1
sVdd4i2q1
p334
I1
sVdk0mtyu
p335
I2
sVd8fcwvr
p336
I1
sVd6voe9m
p337
I1
sVdkdr0dd
p338
I1
sVdo19yu3
p339
I1
sVdb6vwv1
p340
I1
sVdanuil5
p341
I3
sVczhxewo
p342
I1
sVdhlzzi8
p343
I1
sVd0e9eq7
p344
I2
sVdip9vhm
p345
I2
sVdia0fb2
p346
I1
sVd76z10w
p347
I1
sVdhwt29s
p348
I1
sVd1z4cu4
p349
I1
sVd77nuua
p350
I1
sVd0hwdla
p351
I4
sVd2la0b4
p352
I1
sVd27bbel
p353
I1
sVda55xac
p354
I1
sVdasf8c8
p355
I1
sVdi7xag9
p356
I1
sVd0x8yii
p357
I1
sVddnht0a
p358
I4
sVd5k0f5r
p359
I1
sVdd5zyyk
p360
I3
sVdg25jdu
p361
I1
sVdf35aui
p362
I1
sVdbo2cyh
p363
I3
sVdcceucc
p364
I3
sVdk0ihg5
p365
I1
sVdh5qmlr
p366
I1
sVdfui02p
p367
I1
sVdqny34z
p368
I1
sVd1wqm22
p369
I2
sVdksxtgn
p370
I1
sVdk07rgp
p371
I1
sVdksbntc
p372
I2
sVd16ja15
p373
I2
sVd0eqm7t
p374
I1
sVd52zfwj
p375
I1
sVdhi0tdf
p376
I1
sVdhj30ko
p377
I1
sVd1yo9lr
p378
I1
sVdh3fp4i
p379
I2
sVd8jdr8k
p380
I1
sVdf856lh
p381
I3
sVder7xgz
p382
I2
sVdfz2szb
p383
I1
sVd69wv29
p384
I1
sVd0912zs
p385
I20
sVdc1u0av
p386
I2
sVdg7uou8
p387
I1
sVdpbrw4g
p388
I1
sVd33k2g5
p389
I1
sVd07yve1
p390
I1
sVds3fjrx
p391
I4
sVcyre7m8
p392
I2
sVdaa54xh
p393
I1
sVd9enkor
p394
I2
sVdbe2jgb
p395
I1
sVdbzoud4
p396
I1
sVd6ktna9
p397
I1
sVdanj66g
p398
I2
sVczekfbh
p399
I1
sVczpzm0s
p400
I1
sVczg3tu0
p401
I3
s.