(dp0
Vd03v76k
p1
I1
s.(dp0
Vd03v76k
p1
I1
sVd03xo93
p2
I1
s.(dp0
Vd03v76k
p1
I1
sVd03yrxi
p2
I1
s.(dp0
Vd03v76k
p1
I1
sVd0i7qb4
p2
I1
s.(dp0
Vd03v76k
p1
I1
sVd0iablx
p2
I1
s.(dp0
Vd03v76k
p1
I1
sVd0iablx
p2
I1
s.(dp0
Vd03v76k
p1
I1
sVd0iablx
p2
I1
s.(dp0
Vd03v76k
p1
I1
sVd0iablx
p2
I1
s.(dp0
Vd03v76k
p1
I1
sVd1p9md8
p2
I1
s.(dp0
Vd03v76k
p1
I1
sVd28rce4
p2
I1
s.(dp0
Vd03v76k
p1
I1
sVd4hu28w
p2
I1
s.(dp0
Vd03v76k
p1
I1
sVd7x0qbt
p2
I1
s.(dp0
Vd03v76k
p1
I1
sVd9dj11h
p2
I1
s.(dp0
Vd03v76k
p1
I1
sVdakec60
p2
I1
s.(dp0
Vd03v76k
p1
I1
sVdfmj16c
p2
I1
s.(dp0
Vd03v76k
p1
I1
sVdfw1v6q
p2
I1
s.(dp0
Vd03v76k
p1
I1
sVdfw1v6q
p2
I1
s.(dp0
Vd03v76k
p1
I1
sVdhsxjp1
p2
I1
s.(dp0
Vd03v76k
p1
I1
sVdr5w6gh
p2
I1
s.