(dp0
Vdo3nhuq
p1
I2
sVd06w748
p2
I1
sVdbn4goi
p3
I1
sVdc729b8
p4
I4
sVdsd326x
p5
I1
sVdcenfiw
p6
I2
sVd19c18t
p7
I1
sVds7qikp
p8
I1
sVd6d1ogb
p9
I1
sVdgrmfu8
p10
I1
sVd3ljwzu
p11
I1
sVd30jn04
p12
I1
sVdke6q5i
p13
I2
sVd5kmrpu
p14
I1
sVdeku6ds
p15
I1
sVd7nwp62
p16
I1
sVd06w2ti
p17
I1
sVdrdx4wi
p18
I1
sVdr2hjmy
p19
I2
sVdq1d00l
p20
I1
sVd5tggpx
p21
I1
sVdrl44ds
p22
I3
sVd46786o
p23
I1
sVdgau7rt
p24
I2
sVd7qs7eb
p25
I2
sVd11kzad
p26
I1
sVdnbmiz3
p27
I3
sVdp17r2h
p28
I1
sVd4fm1j1
p29
I3
sVdogwha6
p30
I1
sVdhkfst1
p31
I2
sVdr0ky1e
p32
I1
sVdsm7l18
p33
I1
sVdht31re
p34
I1
sVd6b8c6g
p35
I1
sVdstm4wb
p36
I1
sVd1i6848
p37
I1
sVd1inwg5
p38
I1
sVddsgxud
p39
I1
sVd0zk1h9
p40
I1
sVd3cdxnx
p41
I2
sVdsu44tb
p42
I1
sVd5dgqqy
p43
I1
sVd0yii7l
p44
I1
sVdp6kuqf
p45
I1
sVd6b9bko
p46
I1
sVda911ef
p47
I1
sVda9flmd
p48
I1
sVdj6h3me
p49
I1
sVd04yfaf
p50
I1
sVdi40wqx
p51
I1
sVd79cz34
p52
I1
sVdjh0dzl
p53
I1
sVdq4vv0y
p54
I1
sVd2lk7w0
p55
I1
sVdrkrr9a
p56
I1
sVdg3nzgo
p57
I1
sVd9fdyz5
p58
I1
sVd18pkwj
p59
I1
sVdmfx331
p60
I1
sVdjqovxs
p61
I1
sVd99gdoe
p62
I1
sVdon8oa5
p63
I1
sVdrl5jdf
p64
I1
sVdewo1g9
p65
I1
sVdep4niv
p66
I2
sVdsue7fp
p67
I2
sVd0gdz1i
p68
I1
sVd55r0z1
p69
I4
sVdf8k36n
p70
I1
sVd9fhqzh
p71
I1
sVdh6vk14
p72
I1
sVdf2b0fa
p73
I1
sVdpyrvpo
p74
I1
sVdkcghez
p75
I1
sVdh1f9z8
p76
I1
sVdpnbyho
p77
I2
sVd3zmddb
p78
I4
sVdf6cmpk
p79
I1
sVdqavoch
p80
I1
sVczb9z23
p81
I1
sVd0ii74f
p82
I1
sVd9e4y0a
p83
I2
sVdacycez
p84
I1
sVddmikyw
p85
I3
sVdgm13zx
p86
I1
sVd4cy5r9
p87
I1
sVdcq7a8u
p88
I1
s.