(dp0
Vdnlas6v
p1
I1
sVdptrs02
p2
I1
sVczapnrn
p3
I1
sVd066t0x
p4
I1
sVcyisdp6
p5
I1
sVdosylw0
p6
I1
sVd7pnnnv
p7
I1
sVczh0ofm
p8
I1
sVd5uff6p
p9
I1
sVczror1u
p10
I1
sVcyl6k3a
p11
I1
sVd45vilj
p12
I1
sVd3au787
p13
I1
sVd0n4iae
p14
I1
sVd9mnhvs
p15
I1
sVdfbsbox
p16
I1
sVddjb38z
p17
I1
sVdg34uwi
p18
I1
sVd1qqbsw
p19
I1
sVdiidfsk
p20
I1
sVd4i14s5
p21
I1
sVczj4lai
p22
I1
sVdt36i9m
p23
I1
sVcyn2xrb
p24
I1
sVd6aj4nt
p25
I1
sVd2l2rso
p26
I1
sVdkgz3bj
p27
I1
sVczndqpl
p28
I1
sVdd5avkm
p29
I1
sVd26eq78
p30
I1
sVczroekh
p31
I1
sVd7x5a8y
p32
I1
sVdf1w5oy
p33
I1
sVdhndeu2
p34
I1
sVd1r5ypp
p35
I1
sVddhi5on
p36
I1
sVd6mu57t
p37
I1
sVdfmpdzb
p38
I1
sVdnczxjh
p39
I1
sVczn5ry9
p40
I1
sVdtfinjo
p41
I1
sVdrm64i7
p42
I1
sVdncsrq4
p43
I1
sVdkgwgo1
p44
I2
sVd2kjk0u
p45
I1
sVdd5iinq
p46
I2
sVd970qjq
p47
I1
sVd5rpfcs
p48
I1
sVdduv9g1
p49
I1
sVdg3vkur
p50
I1
sVd3h1vmf
p51
I1
sVdoys1xy
p52
I1
sVdhtgfib
p53
I1
sVd3bwcqd
p54
I2
sVczi148b
p55
I1
sVdqmi50d
p56
I1
sVdpw6bfb
p57
I1
sVd7pa5ib
p58
I1
sVddzk0h7
p59
I1
sVdfhe0ay
p60
I1
sVczjm0mf
p61
I1
sVdnh83hy
p62
I2
sVdch47xl
p63
I1
sVdeehmjs
p64
I1
sVd988137
p65
I2
sVd0b64fy
p66
I1
sVd2z3w8g
p67
I1
sVcylsicd
p68
I1
sVdhdd5nh
p69
I1
sVdfhxxio
p70
I1
sVd0ipdlp
p71
I1
sVdmkzm8v
p72
I1
sVdjxg9es
p73
I1
sVdcp9b37
p74
I1
sVdmylatc
p75
I1
sVd2bcc11
p76
I1
sVddg5h51
p77
I1
sVcyj71rn
p78
I1
sVd87vmiq
p79
I1
sVdj1it1p
p80
I1
sVdnqhxl9
p81
I1
sVdfrfrg3
p82
I1
sVdda6j1s
p83
I1
sVdjb3chs
p84
I1
sVdeza3jr
p85
I2
sVd7seusy
p86
I1
sVdpvhfnt
p87
I1
sVczjf2xv
p88
I1
sVcylp090
p89
I1
sVd9qzmcj
p90
I1
sVddqfil7
p91
I1
sVd4ms7h2
p92
I1
sVdfwurgr
p93
I1
sVd8ocacq
p94
I1
sVdg5x0wp
p95
I1
sVd0bw85f
p96
I1
sVczrfe1o
p97
I1
sVdia3t9o
p98
I1
sVd56in9m
p99
I1
sVdbegk8u
p100
I1
sVdd8o5pg
p101
I1
sVd320kpb
p102
I2
sVdiwf8ws
p103
I1
sVdedeip0
p104
I1
sVddz5mnc
p105
I1
sVdergn84
p106
I1
sVdq8tjj2
p107
I1
sVdb0li9m
p108
I1
sVd0chrqq
p109
I1
sVcyvajen
p110
I1
sVdg3yn02
p111
I1
sVdfkkmlh
p112
I1
sVd83nmqq
p113
I1
sVdg1rddc
p114
I1
sVd05jxsj
p115
I1
sVdd2eyxc
p116
I1
sVdnhy84g
p117
I1
sVcyvdafm
p118
I2
sVd7czx7d
p119
I1
sVdjwu3iz
p120
I1
sVd6t313i
p121
I1
sVcz4gmib
p122
I1
sVdbobgho
p123
I2
sVd0s07nd
p124
I1
sVdo2xmgz
p125
I1
sVd5zj4vs
p126
I1
sVdrg87up
p127
I1
sVd7vh6a8
p128
I3
sVd4kgz6o
p129
I1
sVd0vr2mn
p130
I1
sVczndvz6
p131
I1
sVd1lxpg4
p132
I1
sVddhveai
p133
I1
sVdt110x0
p134
I1
sVdcipxt2
p135
I1
sVdd7xtyi
p136
I1
sVd3fi3dp
p137
I1
sVczs2fhg
p138
I1
sVdedjxyz
p139
I1
sVdaawown
p140
I1
sVdbgyw1g
p141
I1
sVd863m2m
p142
I1
sVdgkl9yr
p143
I1
sVd8k3n1i
p144
I1
sVdfwn3hq
p145
I1
sVd2avffn
p146
I1
sVczkg5dr
p147
I1
sVdnwdau4
p148
I1
sVd9ithtd
p149
I3
sVcywopku
p150
I1
sVd5jobcv
p151
I2
sVd1r8zf3
p152
I1
sVdfbyg38
p153
I1
sVdr7mal3
p154
I1
sVdaf74r2
p155
I1
sVdbmw373
p156
I1
sVdmweo8l
p157
I1
sVcyzsd3f
p158
I1
sVd87paw4
p159
I1
sVd1urmmo
p160
I1
sVdem1xop
p161
I1
sVdfrond4
p162
I1
sVd7wnu0s
p163
I1
sVdrl5pcl
p164
I1
sVdkvapti
p165
I2
sVczgi6zb
p166
I1
sVdh25g64
p167
I1
sVdec3obn
p168
I1
sVd6aj1ud
p169
I1
sVd5qus4x
p170
I1
sVdentoib
p171
I1
sVd9jf9ob
p172
I1
sVdd030fh
p173
I1
sVdq6jmha
p174
I1
sVdibl0mo
p175
I1
sVd1zc9r3
p176
I1
sVd0btlj1
p177
I1
sVd02b670
p178
I1
sVd2flqxe
p179
I1
sVd24pthh
p180
I1
sVcykf0d4
p181
I1
sVd5rtuf9
p182
I1
sVddt9814
p183
I1
sVd13uv5i
p184
I1
sVd55hy47
p185
I1
sVd2x2tmt
p186
I1
sVdh2dv5t
p187
I1
sVczuaith
p188
I1
sVdq3h5jv
p189
I1
sVdnxke46
p190
I1
sVdbbywui
p191
I1
sVdceklr6
p192
I1
sVdhratay
p193
I1
sVdb8d5by
p194
I1
sVd2kphhz
p195
I1
sVdh31576
p196
I1
sVd59u909
p197
I1
sVddf8ury
p198
I1
sVdqgexlu
p199
I1
sVd91m0zy
p200
I1
sVcysdkbw
p201
I1
sVdfv50c3
p202
I1
sVdgb69ba
p203
I1
sVd1vpxiu
p204
I1
sVde1aei0
p205
I1
sVdog7ji3
p206
I1
sVd1mxp2s
p207
I1
sVczh7nj0
p208
I1
sVd2cvn8k
p209
I1
sVd6ejlmn
p210
I1
sVdabxqmo
p211
I1
sVd1jl85q
p212
I1
sVd3y4gkk
p213
I2
sVd9i5igl
p214
I1
sVdqs5h3j
p215
I2
sVdd9z0rk
p216
I1
sVd1etjyw
p217
I1
sVd23t0bq
p218
I1
sVdtftdk9
p219
I1
sVd4yxive
p220
I2
sVdpmc54l
p221
I1
sVdjj7ewi
p222
I1
sVd3ci1v9
p223
I2
sVdir91rp
p224
I1
sVd23b8tx
p225
I1
sVd8nmkvu
p226
I1
sVd4vn2ky
p227
I1
sVd7nj8m7
p228
I1
sVd9vm75a
p229
I1
sVdavydqz
p230
I3
sVd129wxy
p231
I1
sVd9xq2xe
p232
I1
sVczmgmf7
p233
I1
sVd6y9fwc
p234
I1
sVd6z92jx
p235
I1
sVdifmy66
p236
I1
sVdii7tfg
p237
I1
sVcysdj86
p238
I1
sVdbttl5p
p239
I1
sVcz9hp9j
p240
I1
sVcz4kdfg
p241
I1
sVdkdybki
p242
I1
sVd37ilv5
p243
I1
sVdgluqma
p244
I2
sVd3xzc74
p245
I1
sVdnel78j
p246
I1
sVd4unney
p247
I1
sVdceqjn2
p248
I1
sVd7g8tyy
p249
I1
sVdhefsjp
p250
I1
sVdqrn0kw
p251
I1
sVd83w46h
p252
I1
sVcz3xffu
p253
I1
sVdp9wlma
p254
I1
sVd5piwea
p255
I2
sVd6yuf2j
p256
I1
sVdibp92f
p257
I1
sVcyk4cf5
p258
I1
sVd6nxwx0
p259
I1
sVdj5k9q9
p260
I1
sVdi49aq5
p261
I2
sVd6uxix7
p262
I1
sVde19rp7
p263
I2
sVdawts4w
p264
I1
sVdjy9yc1
p265
I1
sVd00hhga
p266
I1
sVczon4x7
p267
I3
sVdp7ux14
p268
I1
sVde8x6xo
p269
I1
sVczzrv8y
p270
I2
sVdj5vp89
p271
I1
sVd9i9d4t
p272
I1
sVczbsk6g
p273
I1
sVdd4zwrd
p274
I1
sVdhlnfl1
p275
I1
sVczy4mtd
p276
I1
sVdcr66tc
p277
I1
sVd81z0en
p278
I1
sVd25krfi
p279
I1
sVd9m8ksw
p280
I1
sVczlarg8
p281
I1
sVd0cvw2l
p282
I1
sVden1den
p283
I1
sVdtbrjw8
p284
I1
sVdi0hq0o
p285
I1
sVd05v33k
p286
I2
sVd7njzko
p287
I1
sVd92mdlm
p288
I1
sVd9n5hhz
p289
I1
sVdabhcqn
p290
I1
sVdt7gr45
p291
I1
sVdhdza54
p292
I1
sVd4v0c6r
p293
I1
sVd46r87u
p294
I2
sVdnv1tad
p295
I1
sVdf927ah
p296
I1
sVdmfvbox
p297
I1
sVde28tep
p298
I1
sVd0u2wqr
p299
I2
sVd14k6uk
p300
I1
sVdses65q
p301
I1
sVd2g7qec
p302
I1
sVd14n29k
p303
I1
sVddi0rhf
p304
I1
sVdj4xhqr
p305
I1
sVde8spo5
p306
I1
sVdjghfv5
p307
I1
sVdgs9rab
p308
I2
sVczi0b6e
p309
I2
sVd0941kj
p310
I1
sVd1qjeq0
p311
I1
sVdr851ef
p312
I1
sVd4ffpf4
p313
I1
sVd5z2pd3
p314
I1
sVdbkg64j
p315
I3
sVd27jvxa
p316
I1
sVcznsicj
p317
I1
sVdecm6up
p318
I1
sVd4h6tjq
p319
I1
sVdauagc5
p320
I1
sVd45y91l
p321
I1
sVdkm660n
p322
I1
sVd6i7gki
p323
I1
sVd2t8asr
p324
I1
sVdiepds5
p325
I1
sVd4ro0hk
p326
I1
sVdi6iyes
p327
I1
sVdbbw3c1
p328
I1
sVddz9j5b
p329
I1
sVdk12z20
p330
I1
sVd3bz7ik
p331
I1
sVd669kig
p332
I1
sVd6boa25
p333
I1
sVdg3tgou
p334
I1
sVda82l70
p335
I1
sVcykg3fu
p336
I1
sVd464opu
p337
I1
sVd7fr0xc
p338
I1
sVdhxudta
p339
I1
sVd4yzn4u
p340
I1
sVd8651xk
p341
I1
sVdgw87bj
p342
I1
sVdjlbb04
p343
I1
sVd7wgueo
p344
I1
sVddga4nv
p345
I1
sVddjc480
p346
I1
sVdoaws2b
p347
I1
sVd1jzp1y
p348
I1
sVdctr819
p349
I1
sVdi170gy
p350
I1
sVdn073wj
p351
I2
sVdpvrhxb
p352
I1
sVd5shxaw
p353
I1
sVd1yraov
p354
I1
sVd74yu4i
p355
I1
sVdb549um
p356
I1
sVdabjawe
p357
I1
sVcyw34cc
p358
I2
sVdrec1kl
p359
I1
sVddsmbtn
p360
I1
sVd2styfw
p361
I1
sVdbh2it9
p362
I1
sVd8ox0zo
p363
I1
sVdb92ris
p364
I1
sVd25a8e2
p365
I1
sVdjqzh4s
p366
I1
sVdrsnag8
p367
I1
sVdhy8y0r
p368
I1
sVd8hrbp4
p369
I2
sVd09ugpb
p370
I1
sVd950yb8
p371
I1
sVd4spstd
p372
I1
sVd2333ki
p373
I1
sVdomf5b7
p374
I1
sVd1r8jlq
p375
I1
sVdivrh9a
p376
I1
sVdp04egp
p377
I1
sVd1uip20
p378
I1
sVd54l5ld
p379
I1
sVdg4qnoc
p380
I1
sVd0i9pro
p381
I2
sVdi7uxwv
p382
I1
sVd2t512g
p383
I1
sVd6m2232
p384
I1
sVdiwvm84
p385
I1
sVddloa72
p386
I1
sVczi5hh9
p387
I1
sVd3c1q5b
p388
I1
sVdb0hput
p389
I1
sVdahq2pl
p390
I1
sVdckov0c
p391
I1
sVd0m2s0g
p392
I1
sVd2te5vh
p393
I4
sVd0u5e69
p394
I1
sVd4orro0
p395
I1
sVd9kp3iy
p396
I1
sVdfv251l
p397
I1
sVdht4xls
p398
I1
sVdrv87xi
p399
I1
sVdej0mtz
p400
I1
sVdixyfj3
p401
I1
sVddxn6cc
p402
I1
sVdn8qvyp
p403
I1
sVdf3rtuw
p404
I1
sVdt30bnj
p405
I1
sVdbd2fjp
p406
I1
sVdir6gsb
p407
I1
sVcyspo6f
p408
I2
sVdcu2hs4
p409
I1
sVdii1x13
p410
I1
sVdetwxyd
p411
I1
sVds2b4y2
p412
I1
sVd4l11fr
p413
I2
sVcyjkuqo
p414
I1
sVdd63m1x
p415
I2
sVd4hzw9h
p416
I1
sVde799u5
p417
I1
sVd467r0v
p418
I1
sVdhx6f05
p419
I1
sVdbza9yl
p420
I1
sVd5es539
p421
I1
sVdbaxrl3
p422
I2
sVdav5nnk
p423
I1
sVdejh9cm
p424
I1
sVdaj1olb
p425
I1
sVczamx9u
p426
I1
sVd1ref5a
p427
I1
sVdq46prp
p428
I1
sVdd02321
p429
I1
sVd1n15o7
p430
I1
sVdjn3dfs
p431
I2
sVdcj04d6
p432
I1
sVdf3t9b5
p433
I2
sVdd1hubb
p434
I1
sVdbcox2d
p435
I1
sVdjyzm8y
p436
I1
sVd27a5fb
p437
I2
sVd2321wb
p438
I2
sVdb4dwv4
p439
I1
sVd5ubu8k
p440
I1
sVd55m3q9
p441
I1
sVdbbvxoa
p442
I1
sVdhe4hlj
p443
I2
sVdenxnqr
p444
I1
sVd844o9y
p445
I1
sVd2hx5ll
p446
I1
sVd5fuya9
p447
I1
sVd19n41s
p448
I1
sVcz0fvlj
p449
I1
sVd51vg9z
p450
I1
sVd8s5ljv
p451
I1
sVdmjl6wk
p452
I1
sVd2v1yvl
p453
I1
sVdjogooy
p454
I1
sVd39akxz
p455
I1
sVdnawgw0
p456
I1
sVd2mh79w
p457
I1
sVd0sdn8f
p458
I1
sVda1n4p5
p459
I1
sVdkj6oug
p460
I1
sVd7di6zd
p461
I1
sVdjbqtk9
p462
I1
sVdfee5ux
p463
I2
sVdb16e12
p464
I3
sVd7pw2vz
p465
I2
sVdfk01qq
p466
I1
sVdnyvi12
p467
I1
sVdfyquo4
p468
I1
sVcypnol2
p469
I1
sVd8rrcj9
p470
I1
sVdj16k34
p471
I1
sVdizy8tx
p472
I1
sVddfk7s2
p473
I1
sVdntus0p
p474
I1
sVdd5zqix
p475
I1
sVd3t4hsc
p476
I1
sVd0gdlpu
p477
I2
sVd62oard
p478
I1
sVcyiw3p1
p479
I1
sVd9a75hf
p480
I1
sVdd62o15
p481
I2
sVdjffjhn
p482
I1
sVczrn0e1
p483
I1
sVd9vnq83
p484
I1
sVdbfsel1
p485
I1
sVd1ztwx8
p486
I1
sVdmh3w4h
p487
I1
sVd6ze9rd
p488
I1
sVd3jcmgy
p489
I1
sVdkg9t7b
p490
I1
sVdhn8qui
p491
I1
sVddntxn8
p492
I1
sVd569obt
p493
I1
sVdn625uy
p494
I1
sVdspv3hr
p495
I3
sVdene1rq
p496
I1
sVdj8ag0a
p497
I1
sVd5uku82
p498
I1
sVdpklr3o
p499
I1
sVd85bk6b
p500
I2
sVdevy44j
p501
I1
sVdrq1ldz
p502
I2
sVdf2edxx
p503
I1
sVcz1u0hs
p504
I1
sVdguiw1d
p505
I1
sVd47vb06
p506
I1
sVd0uqlgg
p507
I1
sVd8q3cr0
p508
I1
sVdrd0uec
p509
I1
sVdgd11lm
p510
I1
sVd27ev3u
p511
I1
sVdi4i6bi
p512
I2
sVd2wosvd
p513
I1
sVdojta7i
p514
I1
sVdp8nq2s
p515
I1
sVdqee431
p516
I1
sVdbdoqd2
p517
I1
sVd2bx69w
p518
I1
sVcz4to0c
p519
I1
sVd5arfwg
p520
I2
sVd24oa2y
p521
I1
sVdqjupya
p522
I1
sVdhdrazj
p523
I1
sVd2dh82v
p524
I1
sVcz7z2se
p525
I1
sVda2xeq2
p526
I1
sVdk2czyu
p527
I1
sVd3zvb9g
p528
I2
sVd40i514
p529
I1
sVdhi872g
p530
I1
sVd96v0ds
p531
I1
sVdhjfxuc
p532
I1
sVdjn65fj
p533
I1
sVd805447
p534
I1
sVd0jnu8z
p535
I1
sVd1vhqte
p536
I2
sVd50nbim
p537
I1
sVczv2nsc
p538
I1
sVdd4x189
p539
I1
sVcyhx1rh
p540
I1
sVd2yzlqp
p541
I1
sVdarnrfm
p542
I1
sVda6tt86
p543
I1
sVd3ojawo
p544
I1
sVdgupc8f
p545
I1
sVczaf9lp
p546
I1
sVd26jcmn
p547
I1
sVd6c0lkz
p548
I2
sVdo42f22
p549
I1
sVdnrh30x
p550
I1
sVd20sjzb
p551
I2
sVd0309fx
p552
I1
sVdgia9hj
p553
I1
sVdjery6w
p554
I1
sVdc7ys0m
p555
I1
sVcz0hk94
p556
I1
sVczmx646
p557
I1
sVdkr0e0i
p558
I1
sVdg87lo4
p559
I1
sVdc6n3x6
p560
I1
sVdigd6pj
p561
I1
sVcz78w98
p562
I1
sVd5wdt3n
p563
I3
sVdcyaw3p
p564
I1
sVd5lvglq
p565
I1
sVd2fk0b2
p566
I1
sVd2gkxzr
p567
I1
sVd0qxs2i
p568
I1
sVd1pxdp3
p569
I1
sVcz06mty
p570
I2
sVddr2bf9
p571
I1
sVddgdhpk
p572
I1
sVd9nq0ez
p573
I2
sVdgyz798
p574
I1
sVd6j2zj3
p575
I1
sVdt4mgtj
p576
I1
sVdra0anr
p577
I1
sVdncz8ko
p578
I1
sVdh63cw8
p579
I2
sVdgd7g4v
p580
I1
sVdfttkt9
p581
I1
sVdg89fbm
p582
I2
sVd3blq21
p583
I1
sVdevnk9f
p584
I1
sVczmc36r
p585
I1
sVd2ktmop
p586
I1
sVdatuwtd
p587
I2
sVdj6spzv
p588
I1
sVd62aki0
p589
I1
sVdh2f9yj
p590
I2
sVd0sscsj
p591
I1
sVdmt09te
p592
I1
sVdbx71ib
p593
I1
sVd84dx7z
p594
I1
sVd34mlnx
p595
I1
sVd00ppxl
p596
I1
sVdibnb37
p597
I1
sVdjltkzv
p598
I1
sVdsljcdh
p599
I1
sVdtb85ag
p600
I2
sVdctygit
p601
I1
sVd3o2fd7
p602
I1
sVdjz0t8v
p603
I1
sVdjdbobj
p604
I1
sVddd0ra7
p605
I1
sVd1kacgv
p606
I1
sVcz93p3u
p607
I1
sVd6wueax
p608
I1
sVdi6oplc
p609
I1
sVdh9ttku
p610
I1
sVdfgwyw8
p611
I1
sVdbfk9qh
p612
I1
sVddwhd60
p613
I1
sVczficy8
p614
I2
sVdetw0v7
p615
I1
sVdb7e6vz
p616
I1
sVdbykvcl
p617
I1
sVdmwz0ee
p618
I1
sVd56yqtl
p619
I1
sVcyzcy8t
p620
I1
sVd4rwc7l
p621
I1
sVd49o9jj
p622
I1
sVdjs8984
p623
I1
sVd1n6wml
p624
I1
sVd9x0i3i
p625
I1
sVdcir9v4
p626
I1
sVde250td
p627
I1
sVdcmym7x
p628
I1
sVdawd4cd
p629
I1
sVdglfh67
p630
I1
sVcz6wu3x
p631
I1
sVddhsq7b
p632
I1
sVd2fnnuf
p633
I1
sVdhgklcg
p634
I3
sVdkv9tt5
p635
I1
sVczgv8k9
p636
I1
sVddoa3a7
p637
I2
sVd4rdxzz
p638
I1
sVdcy20o5
p639
I1
sVd6os4xs
p640
I1
sVdpnfduq
p641
I1
sVdkqojye
p642
I1
sVd08o8wa
p643
I1
sVdmzt8l8
p644
I1
sVddjrh6j
p645
I1
sVd3a6bv4
p646
I1
sVdguzr81
p647
I1
sVd1o468b
p648
I1
sVdkeidfd
p649
I1
sVd207nfo
p650
I1
sVd2dbfnn
p651
I1
sVd07bs9l
p652
I1
sVd3k92xu
p653
I1
sVdi919gp
p654
I1
sVd3re521
p655
I1
sVd3fk8nh
p656
I2
sVd4xmo7v
p657
I1
sVdk3kacu
p658
I1
sVd14q5bi
p659
I1
sVd5dch2i
p660
I1
sVdc960pj
p661
I1
sVdbn7tos
p662
I1
sVd4ei0zn
p663
I1
sVd9w2xr1
p664
I1
sVdqbfz8l
p665
I1
sVddt9sow
p666
I1
sVcywal4v
p667
I1
sVczz08es
p668
I1
sVd8s01hh
p669
I1
sVd1a0ncd
p670
I1
sVdmrlwdr
p671
I1
sVdb5nuhk
p672
I1
sVd5u7341
p673
I1
sVcztwlq5
p674
I1
sVdbiswg2
p675
I1
sVd74emtr
p676
I2
sVd5ltoi4
p677
I1
sVdkyukwo
p678
I1
sVdgj85el
p679
I1
sVd2zpdx3
p680
I1
sVd2a2o5h
p681
I1
sVdkm8q3l
p682
I1
sVd1b9uzw
p683
I1
sVdevl2fc
p684
I1
sVd9louqy
p685
I1
sVd40r5e8
p686
I1
sVdfzxaiy
p687
I1
sVd2bd0m3
p688
I1
sVd88q5qj
p689
I1
sVdt4bjmq
p690
I1
sVdaftryx
p691
I1
sVczd1qv6
p692
I1
sVd1q8scf
p693
I1
sVd1ri068
p694
I1
sVd2jqfhb
p695
I1
sVda9jja8
p696
I1
sVdhraca7
p697
I1
sVdcjtyux
p698
I1
sVdf5c4hy
p699
I2
sVdfvu9fb
p700
I1
sVdaah3e8
p701
I1
sVd0i33ee
p702
I2
sVdjszsij
p703
I1
sVd81qiqx
p704
I1
sVdd0rxmj
p705
I1
sVdne4ajk
p706
I1
sVd38pjzo
p707
I1
sVdbwq5sa
p708
I1
sVda63dqg
p709
I1
sVd0qcdl9
p710
I2
sVd1ry4hd
p711
I1
sVcyic3fl
p712
I1
sVd78ttvr
p713
I1
sVdkapqd5
p714
I1
sVczhas2t
p715
I1
sVdj1zksd
p716
I1
sVd6bq0rp
p717
I1
sVd7es3fw
p718
I1
sVdd8m5fy
p719
I1
sVd8sagvk
p720
I1
sVdpxt8mj
p721
I2
sVde72976
p722
I1
sVdhdhrpy
p723
I2
sVd06yc48
p724
I1
sVdnn80tr
p725
I1
sVdhwx3oh
p726
I1
sVcyxrum9
p727
I1
sVd1eynsf
p728
I1
sVd9qyc1d
p729
I4
sVda3fycu
p730
I1
sVcywjuiv
p731
I1
sVdd2edo3
p732
I1
sVdi3wvuz
p733
I2
sVd0xrsyh
p734
I1
sVd976t00
p735
I1
sVd539akz
p736
I1
sVczps4zv
p737
I4
sVddxc70u
p738
I2
sVd9el81h
p739
I1
sVdi5cjpm
p740
I1
sVdiwfvdg
p741
I1
sVdmiol9c
p742
I1
sVd40bxru
p743
I1
sVd6dfpnf
p744
I1
sVddg7idp
p745
I3
sVd81ihuk
p746
I1
sVd8hqs5j
p747
I1
sVd7rif1y
p748
I1
sVdko7s0u
p749
I1
sVd6qf713
p750
I1
sVd0l5oq3
p751
I2
sVdq1196u
p752
I1
sVdanuwae
p753
I1
sVd7hbjt0
p754
I1
sVdhchqme
p755
I2
sVddl0vf5
p756
I1
sVdrga5mg
p757
I1
sVd03yrt1
p758
I1
sVd4rhboo
p759
I1
sVdc61iek
p760
I1
sVd7so7oc
p761
I1
sVdikjyq3
p762
I1
sVd24w0lv
p763
I1
sVd84kp78
p764
I1
sVdcsnkf4
p765
I1
sVd574tub
p766
I1
sVdhdj1vq
p767
I1
sVd65yner
p768
I1
sVdbx5sip
p769
I1
sVd1qdvrn
p770
I3
sVd3g34ke
p771
I1
sVd8ym6qb
p772
I1
sVdg9e4lp
p773
I1
sVdcbeza8
p774
I1
sVd9a81hm
p775
I1
sVdry88io
p776
I1
sVdbn07xy
p777
I1
sVd97po7c
p778
I1
sVd1ff6az
p779
I1
sVdscqknc
p780
I1
sVdin0hrz
p781
I1
sVddcmhtn
p782
I1
sVd3q7ouz
p783
I1
sVdhrz00s
p784
I1
sVd0241wg
p785
I1
sVd1ece1e
p786
I2
sVdftgsul
p787
I1
sVcz33bvr
p788
I1
sVdefl2fk
p789
I1
sVd13ru1v
p790
I1
sVdczll9u
p791
I2
sVd7rxhvs
p792
I1
sVdcuzvmh
p793
I1
sVdnlsen6
p794
I1
sVdsyx3bl
p795
I1
sVd64stdm
p796
I1
sVd3d4vk7
p797
I1
sVd4qv0jw
p798
I1
sVd2o6f66
p799
I1
sVdo1t395
p800
I1
sVdeozwv5
p801
I1
sVd1nj7be
p802
I2
sVczc652q
p803
I1
sVd8api74
p804
I1
sVd08o21d
p805
I1
sVd0407si
p806
I1
sVd7xc8tu
p807
I1
sVdezue6l
p808
I1
sVdbk4fgn
p809
I2
sVd7xv50p
p810
I1
sVdpyan9r
p811
I1
sVdfnhwsc
p812
I1
sVdec1dfi
p813
I1
sVd03ili5
p814
I1
sVdn7ppm3
p815
I1
sVdqtsxtv
p816
I1
sVczu2udp
p817
I1
sVd0s1yqx
p818
I1
sVd75yk5j
p819
I1
sVdcry2sc
p820
I1
sVd90q32j
p821
I1
sVdiwv5ct
p822
I1
sVcz5cl2q
p823
I1
sVdmx8z5z
p824
I1
sVddolkyw
p825
I1
sVd63i65b
p826
I1
sVd9zujml
p827
I1
sVczzbv0q
p828
I1
sVcz9g82t
p829
I1
sVd5p48q5
p830
I2
sVdf69djt
p831
I1
sVd9twszo
p832
I1
sVdb4am5p
p833
I1
sVddznwv8
p834
I1
sVd3e332m
p835
I1
sVdd54is6
p836
I1
sVczd9eef
p837
I1
sVd8hx8d5
p838
I1
sVdafkd3o
p839
I1
sVd0g7bvr
p840
I1
sVdegx6zr
p841
I2
sVdk0t526
p842
I2
sVdfmy7uz
p843
I1
sVdeieqf3
p844
I1
sVdrc62y8
p845
I1
sVd4jp8t9
p846
I1
sVdej7d4r
p847
I1
sVd31ye3z
p848
I2
sVdh8kkoa
p849
I1
sVde9fvwl
p850
I1
sVdg5vaep
p851
I2
sVd1pdalu
p852
I1
sVd7lsuq4
p853
I1
sVdguzqmn
p854
I1
sVd5mnznk
p855
I1
sVd40tuqp
p856
I2
sVdagjrhg
p857
I1
sVdfte8rz
p858
I1
sVdnp2zab
p859
I2
sVd90bkn4
p860
I1
sVd0asmhu
p861
I1
sVdq7193w
p862
I1
sVde5nno2
p863
I3
sVds1d829
p864
I1
sVd2c4qzn
p865
I1
sVdtduf54
p866
I1
sVd9nhvy4
p867
I1
sVd8esej8
p868
I1
sVd2zlw6p
p869
I1
sVd57v1ix
p870
I1
sVdigb6g6
p871
I1
sVdhp69ha
p872
I1
sVcywgr7v
p873
I1
sVdb9ov3z
p874
I2
sVdt4v2sn
p875
I1
sVdmf4kcf
p876
I1
sVd8kkkfn
p877
I1
sVdi3su7s
p878
I1
sVdhy8bqr
p879
I1
sVd1anh89
p880
I1
sVd1gntrb
p881
I1
sVdhlqp75
p882
I1
sVdefc761
p883
I1
sVdf35ssg
p884
I1
sVcyn55mp
p885
I1
sVd55zz76
p886
I1
sVd3fir7w
p887
I2
sVd0ppp3f
p888
I1
sVdhhr1ck
p889
I1
sVdesxwlb
p890
I3
sVczcp0u9
p891
I1
sVd7u03ce
p892
I1
sVd4c89yn
p893
I1
sVcyn2kkw
p894
I3
sVdmtvh98
p895
I1
sVd1f7hqx
p896
I2
sVdrontke
p897
I1
sVd49f0qy
p898
I1
sVd2x0qqt
p899
I2
sVda66hrp
p900
I1
sVdmjl9yp
p901
I1
sVdd51fzt
p902
I1
sVdebbxf8
p903
I1
sVd4epals
p904
I1
sVcyleu7u
p905
I1
sVcziauuj
p906
I3
sVdjes00l
p907
I2
sVd2ltdcn
p908
I1
sVd2ls0qt
p909
I1
sVdp08lgg
p910
I2
sVd4sgcdr
p911
I3
sVd1xdyp5
p912
I1
sVd2cdmsz
p913
I1
sVdgg59da
p914
I1
sVdcry1em
p915
I1
sVd8st4xb
p916
I1
sVd2fq8gj
p917
I1
sVd7k3nn5
p918
I1
sVdpmljul
p919
I1
sVd2wchar
p920
I1
sVdc5o1cy
p921
I1
sVd6bn564
p922
I1
sVd07dgl8
p923
I1
sVczkzzng
p924
I1
sVczeje32
p925
I1
sVd9i7v5l
p926
I1
sVcyp3v0r
p927
I1
sVdi5ao9z
p928
I1
sVdihk2jt
p929
I1
sVdau594l
p930
I1
sVdbnypp8
p931
I1
sVdgc9zf2
p932
I1
sVd04odae
p933
I1
sVczhuy6o
p934
I1
sVczhyt41
p935
I1
sVd2pwsif
p936
I1
sVdhfn585
p937
I1
sVd98ptkq
p938
I1
sVdisfh8e
p939
I1
sVdi7vp6v
p940
I1
sVddjgebo
p941
I1
sVdihqygq
p942
I1
sVdkppjwt
p943
I1
sVdcxnke0
p944
I1
sVdezc35a
p945
I1
sVd1d9m8y
p946
I2
sVd3ng2sc
p947
I1
sVd60qx97
p948
I1
sVdex5n7k
p949
I1
sVd077ptt
p950
I1
sVcz2tmwi
p951
I1
sVdsftxk0
p952
I1
sVdgt6mnr
p953
I1
sVdgv3efj
p954
I1
sVczlf1o1
p955
I1
sVd2rirnw
p956
I1
sVdf50nkk
p957
I2
sVdp8aj6w
p958
I1
sVd84pxl8
p959
I1
sVdeway1b
p960
I1
sVd4lawiq
p961
I1
sVd19cr5s
p962
I1
sVd5ywifo
p963
I1
sVd9o9s5b
p964
I1
sVdn18rbk
p965
I2
sVd5rkand
p966
I1
sVdcubjrh
p967
I1
sVdhlrven
p968
I1
sVds87w9j
p969
I1
sVde8387g
p970
I2
sVd67isvw
p971
I2
sVd58mwee
p972
I1
sVdg5sv0i
p973
I1
sVda19n5m
p974
I1
sVd3bjtd6
p975
I1
sVdh7g392
p976
I1
sVd68jka5
p977
I1
sVdkcdroq
p978
I1
sVdb8wrrz
p979
I1
sVdf6wuyt
p980
I1
sVczgqfs7
p981
I1
sVdfzu8ue
p982
I1
sVd0o41st
p983
I1
sVd1kvzpb
p984
I1
sVd3x47wc
p985
I1
sVd9pi4h8
p986
I1
sVd5uviby
p987
I2
sVczc6cw7
p988
I1
sVdi92xlh
p989
I1
sVdjp3iqj
p990
I1
sVdfsx307
p991
I1
sVd1ni8pn
p992
I1
sVd8sv66v
p993
I1
sVd6dvx7x
p994
I1
sVcz391k2
p995
I1
sVcz1vb7k
p996
I2
sVdsjazid
p997
I3
sVczjgy8r
p998
I1
sVd2g51v9
p999
I1
sVd4rhnze
p1000
I1
sVdk040y2
p1001
I1
sVcyo5lsf
p1002
I1
sVd8zk3ii
p1003
I1
sVdgaw3b7
p1004
I1
sVddexjp0
p1005
I1
sVd2rhmwt
p1006
I1
sVd057ojk
p1007
I1
sVcz5jyr0
p1008
I1
sVd2nkq17
p1009
I1
sVd5igv7e
p1010
I1
sVd3c3ele
p1011
I1
sVdmuel71
p1012
I1
sVdk3kkjz
p1013
I2
sVddhu2zg
p1014
I1
sVddptwhs
p1015
I1
sVdpdl6px
p1016
I1
sVd22w8al
p1017
I1
sVd0huxsu
p1018
I1
sVdnhiw4x
p1019
I1
sVd1kzego
p1020
I2
sVd6t4go2
p1021
I1
sVdoegctv
p1022
I1
sVd3kemi8
p1023
I1
sVd4a30qa
p1024
I1
sVdkdzyms
p1025
I2
sVd0c1g6s
p1026
I1
sVczp67th
p1027
I1
sVd0h4iwg
p1028
I1
sVdngxi91
p1029
I1
sVdo1wirl
p1030
I1
sVd33of9i
p1031
I1
sVczffpj5
p1032
I1
sVdtbm74t
p1033
I3
sVdd8yr8n
p1034
I1
sVdfx4ngo
p1035
I2
sVdacv5ym
p1036
I1
sVdk0qpoz
p1037
I1
sVcznf5rc
p1038
I1
sVdk12k73
p1039
I1
sVczkvt9s
p1040
I1
sVd96hl8n
p1041
I1
sVdcxgjmx
p1042
I1
sVde78br7
p1043
I2
sVdnl6a3l
p1044
I1
sVd4fpsua
p1045
I1
sVdeviqko
p1046
I1
sVda40oo9
p1047
I1
sVdkm8djy
p1048
I1
sVdrpyk24
p1049
I1
sVczfdj7v
p1050
I1
sVd2d7yjf
p1051
I1
sVd1v07kv
p1052
I1
sVd5xrhdl
p1053
I1
sVdmf8q0z
p1054
I1
sVd2wij9v
p1055
I1
sVdhh08j2
p1056
I1
sVdhtm83x
p1057
I1
sVdfldmji
p1058
I1
sVde710sx
p1059
I1
sVdjvbfzv
p1060
I1
sVdi11zvw
p1061
I1
sVd1qywy0
p1062
I1
sVdcwrrdb
p1063
I1
sVd4e0bto
p1064
I1
sVd2068p9
p1065
I1
sVd0gzie8
p1066
I1
sVcyiic6t
p1067
I1
sVde8hpxv
p1068
I1
sVdg9wa87
p1069
I2
sVd2n5y8e
p1070
I1
sVdalwcrm
p1071
I1
sVd3r5344
p1072
I1
sVdk1aqnk
p1073
I3
sVdj510qh
p1074
I1
sVd2h68fl
p1075
I1
sVdqnpeqb
p1076
I1
sVdkktucf
p1077
I1
sVdkedxv8
p1078
I1
sVd2r1sf4
p1079
I1
sVdjerd1v
p1080
I1
sVd5jnfvt
p1081
I2
sVd2hvbr6
p1082
I1
sVd1mvxe6
p1083
I1
sVdbg3ops
p1084
I1
sVd4zq50g
p1085
I1
sVcyz3f4s
p1086
I1
sVdpxyxws
p1087
I1
sVd7ccz66
p1088
I1
sVczaxih1
p1089
I1
sVdcuzfil
p1090
I1
sVdfvh6ot
p1091
I1
sVdkniq4z
p1092
I1
sVd4hnrjk
p1093
I1
sVdguqu8a
p1094
I1
sVdmsa8xb
p1095
I4
sVdggjj9k
p1096
I1
sVdaqkcmz
p1097
I1
sVdeko4sk
p1098
I1
sVd7c298v
p1099
I1
sVda6sct6
p1100
I1
sVd0ursd7
p1101
I1
sVdczbu0m
p1102
I1
sVddhi2ky
p1103
I1
sVd791g1i
p1104
I1
sVdbfg50m
p1105
I1
sVd8lpaai
p1106
I1
sVdk04rtz
p1107
I1
sVdfpz4jk
p1108
I1
sVdax4v1i
p1109
I1
sVd62bq6d
p1110
I1
sVd11yff1
p1111
I1
sVdptjfkf
p1112
I3
sVd6z2957
p1113
I1
sVdj4gb98
p1114
I1
sVdd3vypl
p1115
I1
sVd9yqkrd
p1116
I1
sVd2hqnzz
p1117
I1
sVd3tqvbv
p1118
I1
sVd472npm
p1119
I1
sVd8akpqr
p1120
I1
sVddgnx9m
p1121
I1
sVdj8wkw7
p1122
I2
sVdb3a52x
p1123
I1
sVdc7us1e
p1124
I3
sVd09cl6m
p1125
I1
sVddxfnyr
p1126
I2
sVcyvmjlk
p1127
I1
sVd3ug0db
p1128
I1
sVdcufu74
p1129
I1
sVdguvpk4
p1130
I1
sVd0fr37k
p1131
I1
sVdc1rgcx
p1132
I1
sVdp50p71
p1133
I1
sVdi0v68t
p1134
I1
sVd2u5tw4
p1135
I1
sVczc7025
p1136
I1
sVdml4t2j
p1137
I2
sVd8bemm3
p1138
I1
sVd2boaox
p1139
I1
sVdorp64w
p1140
I1
sVd4rds3q
p1141
I1
sVd0lyt8k
p1142
I1
sVczccmt5
p1143
I1
sVd847v1j
p1144
I2
sVdctuxc7
p1145
I1
sVd26ptn4
p1146
I1
sVdc5mflx
p1147
I1
sVdh66lo8
p1148
I1
sVd036fte
p1149
I1
sVdecfkgs
p1150
I1
sVdiedqyu
p1151
I1
sVdotbu63
p1152
I1
sVdod1eqk
p1153
I1
sVcyukwro
p1154
I1
sVdct1aaa
p1155
I1
sVdksntkb
p1156
I1
sVd1eig9d
p1157
I1
sVdpyn3r5
p1158
I1
sVdp730he
p1159
I1
sVd9qor9b
p1160
I1
sVd7hakmm
p1161
I1
sVdkehpjs
p1162
I1
sVdmtintm
p1163
I1
sVdj3jwcw
p1164
I1
sVdolulra
p1165
I1
sVcyu66tr
p1166
I2
sVd2hmsb5
p1167
I1
sVdawpif5
p1168
I1
sVd3771tz
p1169
I1
sVd1v8r78
p1170
I1
sVdd4oz73
p1171
I1
sVdcg4nwu
p1172
I1
sVd2n3pht
p1173
I1
sVdfstyjd
p1174
I1
sVd5mvsff
p1175
I4
sVdtg4uqn
p1176
I1
sVdft2kl6
p1177
I1
sVd3ifucg
p1178
I1
sVd2cka5r
p1179
I1
sVcytxbb5
p1180
I1
sVdp8n9eh
p1181
I1
sVdd8ukvd
p1182
I1
sVd1ex6qv
p1183
I1
sVdctdi9m
p1184
I2
sVdjf3mr1
p1185
I1
sVddwhwor
p1186
I1
sVdr8h7ok
p1187
I1
sVdcb84me
p1188
I1
sVdi5mak9
p1189
I1
sVd37bwz6
p1190
I1
sVd7l3p8i
p1191
I1
sVdc1dn2q
p1192
I1
sVdmxverm
p1193
I1
sVdmuy94m
p1194
I1
sVd9na6wz
p1195
I1
sVd5k7hc8
p1196
I1
sVd53o7j6
p1197
I1
sVd6q8lxb
p1198
I1
sVd73hguh
p1199
I1
sVdj1r23h
p1200
I1
sVdb4q2kc
p1201
I4
sVd1jxv7n
p1202
I1
sVdbzijcc
p1203
I2
sVdahkjuu
p1204
I1
sVdi66mhf
p1205
I1
sVdjpknk0
p1206
I1
sVd4uuc2x
p1207
I1
sVd0zka26
p1208
I1
sVdkldckf
p1209
I1
sVd9dcok7
p1210
I1
sVdb3kgy1
p1211
I1
sVd5urfdi
p1212
I1
sVdtjb8lo
p1213
I1
sVdbedx7j
p1214
I1
sVd2ex4yf
p1215
I1
sVdrf7hcl
p1216
I1
sVdr6qx07
p1217
I1
sVd69a9a8
p1218
I1
sVdjapdu6
p1219
I2
sVd3zo2xi
p1220
I1
sVdfvnyt6
p1221
I1
sVddiocsu
p1222
I1
sVd0qz2uc
p1223
I1
sVdee4isz
p1224
I1
sVczhrskc
p1225
I1
sVd5j1boh
p1226
I1
sVd6eo9ax
p1227
I1
sVd2gc4cl
p1228
I1
sVdo2s0l6
p1229
I2
sVd8mbld0
p1230
I1
sVdb4fmov
p1231
I1
sVdock4n4
p1232
I1
sVd55vm3o
p1233
I1
sVd1v7ihc
p1234
I1
sVdtbd4of
p1235
I2
sVdexq3j5
p1236
I1
sVd0yuwd5
p1237
I1
sVcyyczi6
p1238
I1
sVdjcmp8t
p1239
I1
sVd2smust
p1240
I1
sVd11dw0x
p1241
I2
sVcznrtw8
p1242
I1
sVd85xbfg
p1243
I1
sVdkyxeoe
p1244
I1
sVd847a0l
p1245
I1
sVdhzoovu
p1246
I1
sVd9z6tn6
p1247
I1
sVdbj2pui
p1248
I1
sVde9wcnb
p1249
I1
sVdd93uvn
p1250
I1
sVd97np7o
p1251
I1
sVdeo9k07
p1252
I1
sVd3t1cze
p1253
I1
sVd12u1m1
p1254
I1
sVd2dm7rl
p1255
I1
sVd9da7zl
p1256
I1
sVczqw2i0
p1257
I1
sVczihyu9
p1258
I1
sVdd7dp8e
p1259
I1
sVcyljfpd
p1260
I1
sVd2o5et9
p1261
I1
sVd95s9nx
p1262
I1
sVczolng2
p1263
I1
sVdfjx6wz
p1264
I1
sVcyp0x59
p1265
I1
sVd03ybey
p1266
I1
sVd3i40fc
p1267
I1
sVd0cunz8
p1268
I1
sVd2tf76h
p1269
I1
sVd5xvh2t
p1270
I1
sVdmju4n3
p1271
I1
sVdbg72e2
p1272
I1
sVd31c0ab
p1273
I1
sVczeemms
p1274
I1
sVd3cxukc
p1275
I1
sVdizj8b1
p1276
I1
sVd8wd43t
p1277
I1
sVd7tk7s7
p1278
I1
sVd6lggn6
p1279
I1
sVdiezszj
p1280
I1
sVcyj9pcj
p1281
I1
sVd0d1ff6
p1282
I2
sVdabxv0b
p1283
I1
sVdjjimok
p1284
I1
sVdsn15ws
p1285
I1
sVdaswoh7
p1286
I1
sVdkag5qn
p1287
I1
sVcz0jb0e
p1288
I1
sVdf4bc1v
p1289
I2
sVd9pzxxe
p1290
I2
sVdbdz894
p1291
I1
sVcykidi4
p1292
I1
sVdgmj4nv
p1293
I1
sVdn7sc1y
p1294
I1
sVdibxqvf
p1295
I1
sVd0wltbd
p1296
I1
sVdfqawsv
p1297
I3
sVdgvjocm
p1298
I1
sVdhemdur
p1299
I1
sVdia4gde
p1300
I1
sVd2gt5h6
p1301
I1
sVd0k1miw
p1302
I2
sVcz6gblh
p1303
I1
sVd3fb2ci
p1304
I1
sVdasvq81
p1305
I1
sVczza1j3
p1306
I1
sVd2l5vjs
p1307
I1
sVdfkl18h
p1308
I1
sVdf8x498
p1309
I1
sVdagty81
p1310
I2
sVdh2e04k
p1311
I1
sVd0ceznp
p1312
I1
sVd54lzij
p1313
I1
sVcyipymd
p1314
I1
sVdcjt15s
p1315
I1
sVd16ti0e
p1316
I1
sVdb5uajf
p1317
I1
sVdrfpeti
p1318
I1
sVdhd00i0
p1319
I1
sVdh5nyic
p1320
I1
sVd8qg4ej
p1321
I1
sVdhbgisd
p1322
I2
sVdqzg8u9
p1323
I1
sVdc5bso1
p1324
I1
sVdkz7fps
p1325
I1
sVdk145bw
p1326
I1
sVddoo2ru
p1327
I1
sVd668bff
p1328
I1
sVdmhkhzl
p1329
I1
sVd0w470c
p1330
I1
sVd9e8hg9
p1331
I1
sVd34wlx0
p1332
I1
sVdben81y
p1333
I1
sVdgkv3sk
p1334
I1
sVdjw9vfu
p1335
I1
sVdd2wsjg
p1336
I1
sVdmk4ggh
p1337
I1
sVdbx5rmt
p1338
I1
sVdcbp4nx
p1339
I1
sVdh3iw85
p1340
I1
sVd0scg8n
p1341
I1
sVd4w7d17
p1342
I1
sVd1l7lds
p1343
I1
sVdmpv2u0
p1344
I1
sVdelktxi
p1345
I1
sVddp4t1v
p1346
I2
sVd1syrpq
p1347
I1
sVd5vnxw9
p1348
I1
sVdobqqi4
p1349
I1
sVd36zmgf
p1350
I2
sVddcsz14
p1351
I1
sVdfm49y3
p1352
I1
sVdi8q1fz
p1353
I1
sVdcmcddx
p1354
I1
sVdmowqi1
p1355
I1
sVd9rmhs2
p1356
I1
sVdjwnoem
p1357
I1
sVdkfp3q8
p1358
I1
sVdg0c3sg
p1359
I1
sVdgaw1o1
p1360
I1
sVd6vp7sn
p1361
I1
sVczxp0ik
p1362
I1
sVd24ceb4
p1363
I1
sVde8tf5i
p1364
I1
sVdfkgv3b
p1365
I1
sVd541xft
p1366
I1
sVd89vbn9
p1367
I1
sVd96ku6o
p1368
I1
sVd3tnnsa
p1369
I1
sVd6w5s7q
p1370
I1
sVd8yqruo
p1371
I1
sVdcdldwe
p1372
I1
sVdf22rwk
p1373
I1
sVdko1zkg
p1374
I1
sVd5omek7
p1375
I1
sVds7ih4b
p1376
I1
sVdnrgfn9
p1377
I1
sVd7zu4hw
p1378
I1
sVd9bzqv9
p1379
I1
sVdbsaeju
p1380
I1
sVcyn164q
p1381
I1
sVdckk9ev
p1382
I1
sVd2o2sb4
p1383
I1
sVd192nkf
p1384
I1
sVdte4qms
p1385
I1
sVdkdwvgx
p1386
I1
sVdgcp8lo
p1387
I1
sVcyww23e
p1388
I2
sVd17anf5
p1389
I1
sVczh3t4l
p1390
I2
sVdb0zxyl
p1391
I1
sVd5h9fho
p1392
I1
sVd0kengo
p1393
I1
sVdey3ztm
p1394
I1
sVd7s75ih
p1395
I1
sVddn1lla
p1396
I1
sVdbc941r
p1397
I1
sVdcvu21g
p1398
I1
sVd4ul21k
p1399
I2
sVd2k6p0j
p1400
I1
sVd1iy0u6
p1401
I1
sVd2i8t6r
p1402
I1
sVd3qy08n
p1403
I1
sVda9husf
p1404
I1
sVdd597qu
p1405
I1
sVd4ypxqp
p1406
I1
sVdjf9bok
p1407
I1
sVd6dkcfg
p1408
I5
sVdcezi72
p1409
I1
sVd12pqvm
p1410
I1
sVdq85znr
p1411
I2
sVd3r5zwz
p1412
I2
sVcz1ffmm
p1413
I1
sVcyjleid
p1414
I1
sVcyz7pqr
p1415
I1
sVd1c857u
p1416
I1
sVdj1hfit
p1417
I1
sVd5fqpb7
p1418
I1
sVdkng6u6
p1419
I1
sVd0c6xkt
p1420
I1
sVder4nkm
p1421
I1
sVdr0mn55
p1422
I1
sVdktrdmq
p1423
I1
sVdepm1ho
p1424
I1
sVdeh0n20
p1425
I1
sVdpjb1dx
p1426
I1
sVcz9ywew
p1427
I1
sVddwnhj2
p1428
I1
sVdcocuo2
p1429
I1
sVddwine9
p1430
I1
sVd0i8lia
p1431
I1
sVd2wycwh
p1432
I1
sVdh2fmlw
p1433
I1
sVdsk7pgy
p1434
I2
sVd6f1mi6
p1435
I1
sVd3kdtnp
p1436
I1
sVd0sdrrq
p1437
I1
sVd48dz0g
p1438
I1
sVdgabwhq
p1439
I1
sVdadm3vj
p1440
I1
sVd1sz74v
p1441
I1
sVd5uza9x
p1442
I1
sVdabhbi1
p1443
I1
sVd53wsym
p1444
I1
sVdcdlwmc
p1445
I1
sVdbmze8n
p1446
I1
sVdnberrd
p1447
I2
sVd803gcr
p1448
I1
sVcyy5waz
p1449
I1
sVd1k5xmo
p1450
I1
sVd5h6pch
p1451
I1
sVdevqvp5
p1452
I1
sVd0uqkoh
p1453
I1
sVd467nf9
p1454
I1
sVdihn9kt
p1455
I2
sVcyqxdmz
p1456
I3
sVd1wznna
p1457
I1
sVdhby67d
p1458
I3
sVd17utlo
p1459
I2
sVdk1lj3p
p1460
I3
sVdsz6kmu
p1461
I2
sVczxhh6t
p1462
I1
sVdkyh66r
p1463
I1
sVdkvuy9j
p1464
I1
sVcyq653x
p1465
I1
sVd6w5es7
p1466
I1
sVdauhsio
p1467
I1
sVd0qdd2u
p1468
I2
sVdg6xw2p
p1469
I1
sVd2apfs1
p1470
I1
sVd1l56jo
p1471
I1
sVd9o2fg4
p1472
I1
sVd2xen2z
p1473
I1
sVdf1vldw
p1474
I1
sVd1uo199
p1475
I1
sVdbblpq4
p1476
I2
sVd8n0aar
p1477
I2
sVdspx2rj
p1478
I1
sVdrav0ku
p1479
I2
sVd3f80qn
p1480
I1
sVdd53rep
p1481
I1
sVdd5i736
p1482
I1
sVdol9kzq
p1483
I1
sVd2ykz8g
p1484
I1
sVdg24dkd
p1485
I1
sVdn3evrn
p1486
I1
sVdmudagq
p1487
I1
sVcyjg645
p1488
I1
sVd86ldrf
p1489
I2
sVddsz6kp
p1490
I1
sVd18qrdt
p1491
I1
sVdbhdd1p
p1492
I1
sVda4g2bj
p1493
I1
sVdjoqcso
p1494
I1
sVdmv8wq4
p1495
I2
sVd0r3lgc
p1496
I1
sVd95f4qt
p1497
I1
sVdkzheek
p1498
I1
sVcz9nl98
p1499
I2
sVd0lhjln
p1500
I1
sVdfwbvdn
p1501
I1
sVd54lkxu
p1502
I1
sVdcnaywe
p1503
I1
sVdf7oths
p1504
I1
sVdexsqa6
p1505
I1
sVcyyiruk
p1506
I1
sVdh4c0r8
p1507
I1
sVd22z3lt
p1508
I1
sVcz0aubn
p1509
I1
sVdddcq77
p1510
I1
sVdp67siy
p1511
I1
sVd6ahiyx
p1512
I1
sVdhf3y14
p1513
I1
sVdo4cjpa
p1514
I1
sVdplii6m
p1515
I1
sVdas2822
p1516
I1
sVczw0nyv
p1517
I1
sVd1ozmfc
p1518
I1
sVcyo9inf
p1519
I1
sVcznbive
p1520
I1
sVddxptnd
p1521
I1
sVd9egmkt
p1522
I1
sVd857fyh
p1523
I2
sVdmtwl92
p1524
I1
sVdfe4bc9
p1525
I1
sVdetwa9n
p1526
I1
sVd6agwbu
p1527
I1
sVdac8zad
p1528
I1
sVd3quc6n
p1529
I1
sVcyutkkt
p1530
I1
sVd3vylu1
p1531
I1
sVdik303e
p1532
I1
sVdaa8szp
p1533
I1
sVd3r5yjn
p1534
I1
sVdr11kxz
p1535
I1
sVd1kyi0n
p1536
I1
sVdajv3u3
p1537
I1
sVda6mbv0
p1538
I1
sVdiz7cae
p1539
I1
sVd5r7s3f
p1540
I1
sVdn63e8g
p1541
I1
sVd518a7h
p1542
I1
sVcz1duh0
p1543
I1
sVd3gisnk
p1544
I1
sVd819xnb
p1545
I2
sVczup4v2
p1546
I1
sVcyzh5ga
p1547
I1
sVdkkprgo
p1548
I1
sVdbi5gks
p1549
I1
sVczm64jx
p1550
I1
sVdk8no7b
p1551
I1
sVdpfjro5
p1552
I1
sVd42d77e
p1553
I1
sVd9smt09
p1554
I1
sVdj1l4xw
p1555
I2
sVdkfs1am
p1556
I1
sVd1ipa00
p1557
I1
sVd74vklr
p1558
I1
sVdfxwm5m
p1559
I3
sVdj41ilm
p1560
I1
sVdmmsh19
p1561
I1
sVdhjn6kv
p1562
I1
sVdfvum72
p1563
I1
sVdgdswqr
p1564
I1
sVdb5gi0v
p1565
I1
sVd7beabr
p1566
I1
sVdiv4z5u
p1567
I1
sVd9jj14u
p1568
I1
sVd7044f1
p1569
I1
sVdtam2sl
p1570
I1
sVdh962xf
p1571
I1
sVdhzdzcv
p1572
I1
sVdkayq4c
p1573
I1
sVdcffsdx
p1574
I1
sVdrzs6eo
p1575
I1
sVdgmuquh
p1576
I1
sVdb5uyq8
p1577
I1
sVd6o0lg5
p1578
I1
sVdb0prku
p1579
I1
sVcyhvog3
p1580
I1
sVdfk36bd
p1581
I1
sVdj0wezm
p1582
I1
sVd0dxrb7
p1583
I1
sVdfwmrxz
p1584
I2
sVdek49rf
p1585
I1
sVd99kydy
p1586
I2
sVdjcqlx8
p1587
I1
sVd7g8ar5
p1588
I1
sVd2id07t
p1589
I1
sVds51w23
p1590
I1
sVd4gnfyb
p1591
I2
sVdqfdqzh
p1592
I2
sVdkecilm
p1593
I1
sVd2jscrc
p1594
I2
sVdkqayny
p1595
I1
sVdbwzzlu
p1596
I1
sVda7wjjg
p1597
I1
sVd7a2eed
p1598
I1
sVdbxmjpl
p1599
I2
sVdiqhdsc
p1600
I1
sVdsqe6yp
p1601
I1
sVd7zglr7
p1602
I1
sVdqlq2zp
p1603
I1
sVdbnw93r
p1604
I1
sVdavhgbr
p1605
I1
sVddujmwj
p1606
I1
sVczy2mr6
p1607
I1
sVdig1cfk
p1608
I1
sVd0ciwz1
p1609
I2
sVcz0jthp
p1610
I1
sVd97edks
p1611
I1
sVdby1xq1
p1612
I1
sVcyzkoxy
p1613
I1
sVdbyi1bc
p1614
I1
sVdg97oe6
p1615
I1
sVcyu9vo7
p1616
I2
sVd0tf3vr
p1617
I1
sVdihaw5p
p1618
I1
sVdrnjd0m
p1619
I2
sVcyk1kpy
p1620
I1
sVderj0cw
p1621
I1
sVd2z1a9e
p1622
I1
sVdixrg7d
p1623
I1
sVd2np6jb
p1624
I1
sVdjmmqkk
p1625
I2
sVdihh49a
p1626
I1
sVdsekie1
p1627
I1
sVd1l4i7l
p1628
I1
sVdc3gpor
p1629
I1
sVddweewz
p1630
I2
sVd4isaci
p1631
I2
sVd9xyy02
p1632
I1
sVd48xjuh
p1633
I1
sVdqaqfbi
p1634
I1
sVdollkdh
p1635
I1
sVdt8md3s
p1636
I1
sVdbocitr
p1637
I1
sVdo76gi5
p1638
I1
sVd01pb5n
p1639
I1
sVdcyufnx
p1640
I1
sVdkswk3l
p1641
I1
sVd0yy19x
p1642
I1
sVd1v918q
p1643
I1
sVcywolkz
p1644
I2
sVdp8a7f0
p1645
I1
sVd1o5h1v
p1646
I3
sVdb8mzxr
p1647
I1
sVdmwx7yy
p1648
I1
sVd0cwm6u
p1649
I1
sVdi3628c
p1650
I1
sVdruphe8
p1651
I1
sVdibns0s
p1652
I1
sVd5u431y
p1653
I1
sVdcuijm4
p1654
I1
sVdj2o7sc
p1655
I1
sVczgman5
p1656
I1
sVdg7yqxv
p1657
I1
sVd0ary5s
p1658
I1
sVdcugeh6
p1659
I1
sVdi3xzzz
p1660
I2
sVds2mwda
p1661
I1
sVdfillc5
p1662
I1
sVdnlmop0
p1663
I1
sVd28xw75
p1664
I1
sVdfiag0q
p1665
I1
sVdkm62rb
p1666
I1
sVdpz8r85
p1667
I1
sVdj2g18g
p1668
I1
sVd8k3xpz
p1669
I1
sVdi4c81d
p1670
I1
sVdf1zn40
p1671
I1
sVdkmejwg
p1672
I1
sVd0821nt
p1673
I1
sVd22e11w
p1674
I1
sVdi2yvzw
p1675
I1
sVdgsjp1l
p1676
I1
sVdpduzbn
p1677
I1
sVdcdv73n
p1678
I1
sVdk4o9te
p1679
I1
sVdgz29u6
p1680
I1
sVczj13iw
p1681
I2
sVd3ipuny
p1682
I1
sVdf9nxhy
p1683
I1
sVdb011sz
p1684
I1
sVcyr0rel
p1685
I1
sVd35fc8k
p1686
I2
sVda7meot
p1687
I1
sVdbrar8w
p1688
I1
sVdce05uk
p1689
I1
sVd09d4n7
p1690
I1
sVdnqmf41
p1691
I1
sVd8p40zv
p1692
I1
sVd8dlc6v
p1693
I2
sVdbig6bd
p1694
I1
sVdaoqr41
p1695
I1
sVdjrs0k3
p1696
I1
sVdc5p09r
p1697
I1
sVdfw3vcm
p1698
I1
sVdhlofak
p1699
I1
sVdduxhut
p1700
I1
sVdftesxr
p1701
I1
sVd2wbhdf
p1702
I1
sVdhc4yoy
p1703
I2
sVd142b20
p1704
I1
sVd6uaxso
p1705
I1
sVde5e2wa
p1706
I1
sVd6b2ok7
p1707
I1
sVdrv0z8s
p1708
I1
sVd2p5e4k
p1709
I1
sVcyox66s
p1710
I1
sVdnxi1u5
p1711
I2
sVda4f7or
p1712
I1
sVd047tmz
p1713
I1
sVd72t90a
p1714
I1
sVdtaws3o
p1715
I1
sVdip9y9y
p1716
I1
sVd4jzvkm
p1717
I1
sVd0hii9c
p1718
I1
sVczhqezn
p1719
I1
sVdbcxqh6
p1720
I1
sVcz6pjxx
p1721
I1
sVd4q4skw
p1722
I1
sVd04fl7t
p1723
I1
sVdbimeyt
p1724
I1
sVd8f7rhx
p1725
I1
sVd0hj5is
p1726
I1
sVd0qt01h
p1727
I1
sVd1g57ku
p1728
I3
sVdj7swfp
p1729
I1
sVdgycpr9
p1730
I1
sVdqawndh
p1731
I1
sVd2aabqr
p1732
I1
sVczkqzco
p1733
I3
sVd7l2cyk
p1734
I3
sVdh2wm3d
p1735
I1
sVdhqssqe
p1736
I1
sVdhqay9y
p1737
I1
sVd9wa56d
p1738
I1
sVd1rj34o
p1739
I1
sVd7m178k
p1740
I1
sVdmwwqlt
p1741
I1
sVdgckax6
p1742
I1
sVd9p6e4w
p1743
I2
sVdjo5jk8
p1744
I2
sVd8bm5tx
p1745
I1
sVd6tntrx
p1746
I2
sVd5mmf28
p1747
I1
sVdh3yjp8
p1748
I1
sVd47wigp
p1749
I1
sVczun9tz
p1750
I3
sVdgkmjao
p1751
I1
sVdc2lb2e
p1752
I3
sVdd6zl8g
p1753
I1
sVd9fmnpl
p1754
I1
sVddxjpqz
p1755
I1
sVdj1cpcv
p1756
I2
sVd8ymr1o
p1757
I1
sVczbmbeb
p1758
I2
sVdfcdyhn
p1759
I1
sVd4x4vj9
p1760
I1
sVczccyuy
p1761
I1
sVdnb7jcd
p1762
I1
sVdivnnmu
p1763
I1
sVdh6bi7m
p1764
I2
sVd07naf5
p1765
I2
sVcyyqfum
p1766
I1
sVd5lac02
p1767
I1
sVdshf30x
p1768
I1
sVd0iv5bd
p1769
I1
sVdgqkpcc
p1770
I1
sVd48u29k
p1771
I1
sVds740vb
p1772
I1
sVcztb76u
p1773
I1
sVd9nda3s
p1774
I1
sVd0achgu
p1775
I1
sVd4k2v6b
p1776
I1
sVd43hfr5
p1777
I1
sVdh20eqi
p1778
I1
sVde7rshf
p1779
I1
sVd3ietvn
p1780
I1
sVdgxaiaz
p1781
I1
sVdmgr0iw
p1782
I1
sVdenpuk6
p1783
I1
sVdbpiya3
p1784
I1
sVd7yggmr
p1785
I1
sVdnzjo7j
p1786
I1
sVd5n6y2i
p1787
I1
sVdrkt5lh
p1788
I1
sVcyxnuy6
p1789
I1
sVd4e897p
p1790
I1
sVd660zbw
p1791
I1
sVd85sm3t
p1792
I1
sVd1xqlu2
p1793
I1
sVczydi0t
p1794
I1
sVd7i0zam
p1795
I1
sVdhrlxb1
p1796
I1
sVdgcm3ep
p1797
I1
sVd1l9t8g
p1798
I1
sVd5exhwv
p1799
I1
sVdd1i39r
p1800
I1
sVd33vq9x
p1801
I2
sVdidtcqi
p1802
I1
sVczw88uy
p1803
I4
sVcyk74dp
p1804
I1
sVdfdxaq2
p1805
I2
sVd9l2iwb
p1806
I1
sVddoqw7o
p1807
I1
sVddk2z93
p1808
I2
sVd6cv9zy
p1809
I1
sVdoj7a6i
p1810
I2
sVdgvf6sv
p1811
I2
sVdszll4s
p1812
I1
sVdgl6ogd
p1813
I1
sVd5kkisz
p1814
I1
sVdn077rs
p1815
I1
sVdggmhzv
p1816
I1
sVdgrlws3
p1817
I1
sVd6zxlkf
p1818
I1
sVdflfwzh
p1819
I1
sVdml3s23
p1820
I1
sVd3rz7wr
p1821
I1
sVd9x4dmg
p1822
I1
sVd592ot9
p1823
I1
sVdntk1oz
p1824
I1
sVdjtuss3
p1825
I2
sVd28iga5
p1826
I1
sVdojailk
p1827
I1
sVd8p4m38
p1828
I1
sVd5fw8kj
p1829
I1
sVczpatse
p1830
I2
sVde5iuc4
p1831
I1
sVdjww3i6
p1832
I2
sVd4yy0e3
p1833
I1
sVdhsswfq
p1834
I1
sVdhidhk7
p1835
I1
sVczowe21
p1836
I1
sVddy4a1t
p1837
I1
sVdijwool
p1838
I1
sVdhiq9ln
p1839
I1
sVd21ogt7
p1840
I1
sVd2syb2v
p1841
I1
sVd9tj2vx
p1842
I1
sVde99u01
p1843
I1
sVcyif4ri
p1844
I1
sVdd1o3kk
p1845
I3
sVdfjtwwr
p1846
I1
sVdqptek0
p1847
I1
sVd5lpbip
p1848
I2
sVdjsqd0k
p1849
I1
sVdi8ayi4
p1850
I1
sVd1zriod
p1851
I1
sVdi35uq8
p1852
I1
sVd9thfzm
p1853
I1
sVd78r73m
p1854
I1
sVd1vbn02
p1855
I1
sVdt63ho7
p1856
I1
sVdh39sih
p1857
I1
sVd0i4767
p1858
I2
sVdhfqh9s
p1859
I1
sVdemju7t
p1860
I1
sVdcyeeqo
p1861
I1
sVd2j6ooq
p1862
I1
sVd3fn9hi
p1863
I1
sVdprk06v
p1864
I1
sVdikrzle
p1865
I2
sVd7fybah
p1866
I1
sVdd72mn5
p1867
I1
sVd0vy642
p1868
I1
sVd04cokc
p1869
I1
sVcyl5mh1
p1870
I1
sVdab7tju
p1871
I1
sVdggxre7
p1872
I1
sVdgve9k8
p1873
I1
sVcytgzku
p1874
I1
sVdcd1jvd
p1875
I1
sVdajvswd
p1876
I1
sVd1w1ma4
p1877
I1
sVdrv50gf
p1878
I3
sVdihbkpm
p1879
I1
sVd0ngeth
p1880
I1
sVd05xfhf
p1881
I2
sVdi21c2h
p1882
I1
sVd91639h
p1883
I1
sVdr1l4p0
p1884
I1
sVdms4m88
p1885
I1
sVd5nq3b4
p1886
I1
sVd8s92w3
p1887
I1
sVdmz7um5
p1888
I1
sVczh08vq
p1889
I2
sVdf4f8u2
p1890
I1
sVds1e4ry
p1891
I1
sVd4g1pdc
p1892
I1
sVczpl81h
p1893
I1
sVd3uhqf8
p1894
I1
sVdbgf919
p1895
I1
sVdikpmgz
p1896
I1
sVdiuww5b
p1897
I1
sVd0irr6c
p1898
I1
sVdb5gaiw
p1899
I1
sVd6xz0b3
p1900
I1
sVdcirrth
p1901
I1
sVd8g1inu
p1902
I1
sVd1k7477
p1903
I1
sVdib8j5f
p1904
I2
sVd1kyptf
p1905
I1
sVd0k2d7p
p1906
I1
sVdgmusl7
p1907
I1
sVd3smbn3
p1908
I1
sVdd780l1
p1909
I1
sVda2iawe
p1910
I1
sVd8wpkkz
p1911
I1
sVdi2b2yf
p1912
I1
sVd6u3yk8
p1913
I1
sVdhbu74y
p1914
I1
sVdg85c2m
p1915
I1
sVd4spge7
p1916
I1
sVdkxva61
p1917
I1
sVdnc8tmz
p1918
I1
sVdbfrwnf
p1919
I1
sVdrlo44s
p1920
I1
sVdhlzcor
p1921
I1
sVdfvnfan
p1922
I1
sVd1ywq4e
p1923
I1
sVd7jwc4j
p1924
I3
sVdetlevh
p1925
I1
sVd01b1cp
p1926
I1
sVda4dm0s
p1927
I1
sVd10irfm
p1928
I1
sVdj4mseh
p1929
I1
sVdp6kg7z
p1930
I1
sVdj1tg6q
p1931
I1
sVdmi1fpn
p1932
I1
sVd1s8mam
p1933
I1
sVd6p594n
p1934
I1
sVd2gxh3m
p1935
I1
sVdcfv5px
p1936
I1
sVdjjq7eq
p1937
I1
sVdfcklmx
p1938
I3
sVd6uqun7
p1939
I2
sVcyjjbom
p1940
I1
sVd50e0fi
p1941
I1
sVd2lppc9
p1942
I1
sVdru696c
p1943
I1
sVdfyn30u
p1944
I1
sVdqzrcib
p1945
I2
sVd8safvd
p1946
I1
sVddh7xs2
p1947
I5
sVdihj1vu
p1948
I1
sVdqrlyef
p1949
I1
sVd3m4i3s
p1950
I1
sVdhc872y
p1951
I1
sVdg4ovm8
p1952
I1
sVd2mqma2
p1953
I1
sVd993drt
p1954
I1
sVd6c6u7i
p1955
I1
sVd35crek
p1956
I3
sVd0wdttk
p1957
I1
sVd42ioeh
p1958
I1
sVdt5u8q7
p1959
I1
sVde8ylnz
p1960
I1
sVd1gdcnj
p1961
I1
sVd3bdcs3
p1962
I1
sVdb8xbz9
p1963
I1
sVdh2uweb
p1964
I1
sVdkqms4w
p1965
I1
sVd4xr64q
p1966
I1
sVdeaolnq
p1967
I2
sVdc15l7j
p1968
I1
sVdjyiexb
p1969
I1
sVdbpb7ea
p1970
I1
sVdskqtp2
p1971
I1
sVd3rsbc7
p1972
I1
sVdab56dw
p1973
I1
sVdmrbv62
p1974
I1
sVd91ledr
p1975
I1
sVdau0wv5
p1976
I1
sVdctxjkj
p1977
I1
sVdi3vmbb
p1978
I1
sVd0chhu2
p1979
I1
sVd02cbom
p1980
I1
sVd9cncc4
p1981
I1
sVd5ze8vo
p1982
I1
sVd95naor
p1983
I1
sVdj96kxa
p1984
I1
sVcztrk7e
p1985
I3
sVd3qyt5v
p1986
I1
sVcyq7r6u
p1987
I1
sVd265y1m
p1988
I1
sVd6kcarx
p1989
I1
sVdhqonau
p1990
I1
sVd3ho97m
p1991
I1
sVd8gxyp7
p1992
I1
sVd82qck3
p1993
I1
sVd3r3m3p
p1994
I2
sVdt9tijj
p1995
I1
sVdjahxy7
p1996
I1
sVd7v68hr
p1997
I1
sVdsv93yd
p1998
I1
sVdd3aaol
p1999
I3
sVdg81s6z
p2000
I1
sVdc17mec
p2001
I1
sVdhef6x7
p2002
I3
sVdhwk4s2
p2003
I1
sVd01qqlc
p2004
I2
sVda2ldgs
p2005
I1
sVczdurya
p2006
I2
sVd5ekwdb
p2007
I1
sVd8vhiin
p2008
I1
sVd6ub63i
p2009
I1
sVd1ws0hk
p2010
I1
sVd5t5aao
p2011
I1
sVdmru9u2
p2012
I1
sVczjs6vq
p2013
I1
sVds6mmyx
p2014
I1
sVdo5am0o
p2015
I1
sVczwc8pw
p2016
I1
sVd757b7q
p2017
I1
sVdc2jyfl
p2018
I1
sVd1d8iqt
p2019
I1
sVde19rl3
p2020
I2
sVdjqg4uj
p2021
I1
sVdt45l4o
p2022
I1
sVd04ttah
p2023
I2
sVden6ury
p2024
I1
sVcz1fhze
p2025
I1
sVdeis4ns
p2026
I1
sVdbjftjd
p2027
I1
sVdr7yvr7
p2028
I1
sVdfe6c2z
p2029
I1
sVdjwh98a
p2030
I1
sVdblryjp
p2031
I1
sVd9evcjs
p2032
I1
sVdcf3or6
p2033
I2
sVdqq3mmi
p2034
I1
sVcyp6t85
p2035
I1
sVdk2vsla
p2036
I1
sVcyzyzno
p2037
I1
sVczwir7w
p2038
I1
sVdkssgzc
p2039
I2
sVdnh60t4
p2040
I1
sVd5m01os
p2041
I1
sVdh1uiad
p2042
I1
sVdgmom64
p2043
I2
sVdklxvli
p2044
I1
sVdf8r2zs
p2045
I1
sVcyqfama
p2046
I1
sVdd79ncf
p2047
I1
sVd0smjxk
p2048
I1
sVdbjofc5
p2049
I1
sVdglb7th
p2050
I2
sVd17608q
p2051
I2
sVdgoba57
p2052
I1
sVd97h4wi
p2053
I1
sVdim4k0s
p2054
I1
sVd57ge0i
p2055
I1
sVdpdnoov
p2056
I1
sVd6omr2o
p2057
I1
sVdrqflc6
p2058
I1
sVdglnhae
p2059
I1
sVdbpejvi
p2060
I1
sVd1v564p
p2061
I1
sVd37gymf
p2062
I1
sVdjsxsgd
p2063
I2
sVdqppmii
p2064
I1
sVd4h7r7g
p2065
I2
sVdd5j28e
p2066
I1
sVderw9kh
p2067
I1
sVd8gkr72
p2068
I1
sVdf1u693
p2069
I1
sVddwh47p
p2070
I1
sVd6baymk
p2071
I1
sVd3r3hp1
p2072
I1
sVd5w3no8
p2073
I1
sVd8zsiu7
p2074
I1
sVd7moeip
p2075
I1
sVdjx9fob
p2076
I1
sVdex6ufw
p2077
I1
sVd9x6k4c
p2078
I1
sVd0emkv8
p2079
I1
sVczopvdz
p2080
I1
sVd7qwoyg
p2081
I1
sVd0qwthe
p2082
I1
sVd07lbvm
p2083
I1
sVdg96rfb
p2084
I1
sVd9mm211
p2085
I1
sVdeop8ke
p2086
I1
sVd0xou8k
p2087
I1
sVd5b6wbp
p2088
I1
sVdi1yxjn
p2089
I1
sVdr5ahgu
p2090
I1
sVd08824q
p2091
I1
sVd3565cx
p2092
I1
sVd0kn89c
p2093
I1
sVdf039cu
p2094
I1
sVd84y9fq
p2095
I1
sVd2dosk9
p2096
I1
sVd5giklg
p2097
I3
sVdfwku6w
p2098
I1
sVcykvzjh
p2099
I1
sVcyledx0
p2100
I1
sVd1vf8o8
p2101
I1
sVdskbhzc
p2102
I1
sVdc5uczk
p2103
I1
sVdhfmphx
p2104
I1
sVdind17p
p2105
I1
sVd0y7b8e
p2106
I1
sVd4n2ztc
p2107
I1
sVd0scdgj
p2108
I1
sVd1taspd
p2109
I1
sVd7s9i6j
p2110
I1
sVdi32znp
p2111
I1
sVd7l2xru
p2112
I1
sVdhxhxnx
p2113
I1
sVdtevngq
p2114
I1
sVcylz2m4
p2115
I1
sVdj28kgo
p2116
I1
sVdb2ygas
p2117
I1
sVcyir0jr
p2118
I1
sVcyipkhp
p2119
I1
sVd1gqys8
p2120
I1
sVdpf9cya
p2121
I1
sVda4007o
p2122
I1
sVcymyvas
p2123
I1
sVdim1uia
p2124
I2
sVd1h2dlo
p2125
I1
sVczptxwl
p2126
I1
sVdculku3
p2127
I1
sVdqiwza0
p2128
I1
sVdd2qtmb
p2129
I1
sVd2vdn8i
p2130
I1
sVdgvzn5x
p2131
I1
sVdcw35le
p2132
I1
sVdep5wx3
p2133
I1
sVdtbe8et
p2134
I1
sVd8ag57k
p2135
I3
sVczmylr0
p2136
I1
sVd0jh4t8
p2137
I4
sVcykswkd
p2138
I1
sVcyyk3se
p2139
I1
sVd7jq4wt
p2140
I1
sVdjtjwku
p2141
I1
sVdbcim6a
p2142
I1
sVdryg861
p2143
I1
sVd0sloh3
p2144
I1
sVds93gri
p2145
I2
sVdfhg7k5
p2146
I1
sVdh7vq4s
p2147
I1
sVdfwxmqn
p2148
I1
sVdfd0b6h
p2149
I1
sVdipnr48
p2150
I1
sVd69nkyp
p2151
I1
sVddzqq8h
p2152
I2
sVd0zbf3y
p2153
I1
sVcz7gjt5
p2154
I1
sVdeqb67x
p2155
I1
sVddxnkto
p2156
I1
sVdpqd7g8
p2157
I1
sVcyvar6q
p2158
I1
sVd68z3p9
p2159
I1
sVdiasl68
p2160
I1
sVcyt3kya
p2161
I1
sVd6bz3a0
p2162
I1
sVdnrtabg
p2163
I1
sVd05w28l
p2164
I1
sVd0o02f8
p2165
I1
sVdkdgt1y
p2166
I1
sVd0b8ri7
p2167
I1
sVd7x3x7f
p2168
I1
sVd0ouv8o
p2169
I1
sVd2037n3
p2170
I1
sVdjrnjk7
p2171
I2
sVde2rla8
p2172
I1
sVdru19pv
p2173
I1
sVdas8ij6
p2174
I1
sVdime8co
p2175
I1
sVd9ftvdq
p2176
I1
sVd1xocc8
p2177
I2
sVd41r0gy
p2178
I1
sVcysb52p
p2179
I1
sVdpxjlbb
p2180
I1
sVdn766pv
p2181
I1
sVd18t7sp
p2182
I1
sVd4kb8v3
p2183
I1
sVdgt54se
p2184
I1
sVd0sdi9d
p2185
I1
sVd37us0y
p2186
I1
sVdsrihbp
p2187
I1
sVdtfk5yz
p2188
I1
sVd71uvr2
p2189
I1
sVdckfvpb
p2190
I1
sVd2tbssi
p2191
I1
sVd1f0lm3
p2192
I1
sVdhjbz5h
p2193
I1
sVdpti359
p2194
I1
sVdid9da8
p2195
I1
sVdam0igp
p2196
I1
sVdp8llfk
p2197
I1
sVd134nip
p2198
I1
sVdhqchj4
p2199
I1
sVdn7jjhf
p2200
I1
sVdnikls0
p2201
I2
sVdf3rirp
p2202
I1
sVczk7yqv
p2203
I1
sVdqfhcao
p2204
I1
sVdp35pd5
p2205
I1
sVdjz2fvo
p2206
I1
sVd18p62d
p2207
I2
sVd5oav6z
p2208
I1
sVdac2bd7
p2209
I1
sVdafa0wm
p2210
I1
sVde5st08
p2211
I1
sVdn3bbe3
p2212
I1
sVd5c5ii5
p2213
I1
sVdjix9g8
p2214
I1
sVdjx61mx
p2215
I1
sVd26wqqb
p2216
I1
sVd05xyge
p2217
I1
sVd0689ea
p2218
I1
sVd7n7gvn
p2219
I1
sVd4shy0p
p2220
I2
sVd3b4jec
p2221
I1
sVd7gbqqi
p2222
I1
sVdanun9u
p2223
I1
sVd8ojdrf
p2224
I1
sVdbq3teq
p2225
I3
sVdameh1x
p2226
I1
sVdpifgs8
p2227
I1
sVdfdoury
p2228
I2
sVd6iog74
p2229
I1
sVdnrqyvy
p2230
I1
sVdbjk13a
p2231
I1
sVcyr5qsz
p2232
I1
sVdcpjzaj
p2233
I1
sVdbjah4n
p2234
I1
sVdfl9y2n
p2235
I1
sVdap1cfs
p2236
I1
sVdilxt70
p2237
I1
sVda6icsw
p2238
I1
sVd9e89b0
p2239
I1
sVddic0ew
p2240
I2
sVd3mv237
p2241
I1
sVd8er3gr
p2242
I1
sVd3kh5ua
p2243
I2
sVdhaqnlc
p2244
I1
sVdhkfu2k
p2245
I1
sVcz358ag
p2246
I1
sVd1cpxio
p2247
I2
sVd7ncvny
p2248
I1
sVdjp9adu
p2249
I1
sVdfjt8f3
p2250
I1
sVd5rpiy3
p2251
I1
sVdd0xmej
p2252
I1
sVdccrrbo
p2253
I2
sVczcz9ac
p2254
I1
sVdgpqulu
p2255
I1
sVdi2og9m
p2256
I1
sVdj7o26s
p2257
I1
sVdg3we87
p2258
I1
sVdoqu48b
p2259
I1
sVd7dvjgb
p2260
I1
sVdftktz9
p2261
I1
sVdg8fytw
p2262
I1
sVdo8pkfx
p2263
I1
sVd086qbb
p2264
I1
sVdq6ie31
p2265
I1
sVdnz2fsi
p2266
I1
sVd0jpko2
p2267
I1
sVdbb1f9k
p2268
I1
sVdj0o316
p2269
I3
sVd2uavcp
p2270
I2
sVdpxnh2i
p2271
I1
sVcz2eray
p2272
I1
sVd97dfa3
p2273
I1
sVd74vluu
p2274
I1
sVd7bl9ng
p2275
I1
sVdjjflef
p2276
I1
sVd6fnxho
p2277
I1
sVd03f67u
p2278
I1
sVd6aegss
p2279
I1
sVdoxe7gl
p2280
I2
sVdgdkf90
p2281
I1
sVdr7tuco
p2282
I1
sVdn6wz57
p2283
I2
sVd5crsyz
p2284
I1
sVcyi2cg2
p2285
I1
sVdrl4odb
p2286
I1
sVd917v8x
p2287
I1
sVd077epq
p2288
I2
sVdskz8p5
p2289
I1
sVd2lr5pb
p2290
I1
sVd3kwg5j
p2291
I1
sVd20lm2u
p2292
I1
sVdh62usi
p2293
I1
sVd9ig8at
p2294
I1
sVdnj9yq7
p2295
I1
sVdfpjio9
p2296
I1
sVd3ydybg
p2297
I1
sVd1bu0ol
p2298
I1
sVdijvn1u
p2299
I1
sVczws0l9
p2300
I1
sVczlefgp
p2301
I1
sVdgtbrwd
p2302
I1
sVd4hskzq
p2303
I1
sVdka4p0r
p2304
I1
sVdkqsqjp
p2305
I1
sVdhcyaim
p2306
I1
sVd9j0hbq
p2307
I1
sVd00pc3g
p2308
I2
sVdmqxbx2
p2309
I1
sVd1p1z5k
p2310
I2
sVd1lfbl4
p2311
I1
sVd7t6gs6
p2312
I1
sVdcd09no
p2313
I1
sVd5c2vrf
p2314
I1
sVd1j274n
p2315
I1
sVd6wn4ml
p2316
I1
sVd1zokh4
p2317
I1
sVdi4d586
p2318
I1
sVd5ha80a
p2319
I1
sVd8jks0y
p2320
I1
sVdcthbqp
p2321
I1
sVd4dek8n
p2322
I1
sVcyxslzz
p2323
I1
sVdgu3syy
p2324
I1
sVdc3ex6x
p2325
I2
sVd7con9k
p2326
I1
sVd1zbrrg
p2327
I1
sVczvsjfu
p2328
I1
sVdcj93om
p2329
I1
sVczzkq2q
p2330
I1
sVdjfde7v
p2331
I1
sVdhra3v3
p2332
I1
sVdasn8dq
p2333
I2
sVdh72pzi
p2334
I1
sVdd3mcgo
p2335
I1
sVdrt1nrj
p2336
I1
sVd3jf7ci
p2337
I1
sVd6guco3
p2338
I1
sVd7qjs3r
p2339
I1
sVd3is80d
p2340
I2
sVcytjekb
p2341
I1
sVdivovx5
p2342
I1
sVdhxulit
p2343
I2
sVdi9bj8q
p2344
I1
sVdhvq4mp
p2345
I1
sVdnf5bpg
p2346
I1
sVdi6k67y
p2347
I1
sVdd3iw7p
p2348
I1
sVddj9sgk
p2349
I1
sVdk9orl1
p2350
I1
sVd5cjmlz
p2351
I1
sVd47h755
p2352
I1
sVczw0tcb
p2353
I1
sVdem734s
p2354
I1
sVczj4yqq
p2355
I1
sVcz4u0hg
p2356
I1
sVd94ezme
p2357
I1
sVd114z43
p2358
I1
sVdahc969
p2359
I2
sVd5iv8bp
p2360
I1
sVdmpoqr1
p2361
I1
sVd5aql9q
p2362
I2
sVdhkzaxw
p2363
I1
sVd03pzci
p2364
I1
sVd4s0vz5
p2365
I1
sVd0t378o
p2366
I1
sVdcnzeva
p2367
I1
sVcz25oep
p2368
I1
sVdhyqrje
p2369
I1
sVd998iif
p2370
I1
sVdj870nl
p2371
I1
sVdg175h6
p2372
I1
sVd778enw
p2373
I1
sVd465ja4
p2374
I1
sVdcn8ute
p2375
I1
sVdee2fdl
p2376
I1
sVd3fnffp
p2377
I1
sVd0180jk
p2378
I1
sVdpihun2
p2379
I1
sVczhrt9i
p2380
I1
sVdks3bft
p2381
I1
sVcyskcwn
p2382
I1
sVd9kzetw
p2383
I1
sVdsvlu6c
p2384
I1
sVdssrurm
p2385
I1
sVczgq9x1
p2386
I1
sVdgj0h1f
p2387
I1
sVdgjarht
p2388
I2
sVdcms4tw
p2389
I1
sVdnlqm7l
p2390
I1
sVd5rzu7g
p2391
I1
sVczph0ho
p2392
I1
sVczkgnhh
p2393
I1
sVcz48hgz
p2394
I1
sVdk39qab
p2395
I1
sVdodlaua
p2396
I1
sVczlvswr
p2397
I1
sVdpbwxno
p2398
I1
sVd00v4nf
p2399
I1
sVdazdchw
p2400
I1
sVd9jlwhe
p2401
I1
sVdd4zjhh
p2402
I1
sVd67uh34
p2403
I1
sVdsrh9v0
p2404
I1
sVdjpa1e0
p2405
I1
sVczp4ssq
p2406
I1
sVd2p3c97
p2407
I1
sVd5lx34o
p2408
I1
sVd20xitz
p2409
I1
sVd1k0y1x
p2410
I1
sVd9n1qle
p2411
I2
sVdj48goq
p2412
I2
sVd2a6h0i
p2413
I1
sVdj6rkuu
p2414
I1
sVdo0c8u8
p2415
I1
sVdirnwev
p2416
I2
sVd99jbx1
p2417
I1
sVd5ufa9p
p2418
I1
sVd8o21bx
p2419
I1
sVdb53dna
p2420
I1
sVczg6j56
p2421
I1
sVd95euhe
p2422
I1
sVdmw16m0
p2423
I1
sVd4bcuix
p2424
I1
sVdb9816t
p2425
I1
sVd9d9rh0
p2426
I1
sVcylccr1
p2427
I1
sVd6m4u4f
p2428
I1
sVd82lqzf
p2429
I1
sVdi2w5et
p2430
I2
sVd7agyp4
p2431
I1
sVdduvx31
p2432
I1
sVd3b5ox1
p2433
I1
sVdjdjb6t
p2434
I1
sVd1zq0h8
p2435
I1
sVdq1jno7
p2436
I1
sVcz82nnd
p2437
I1
sVd9n4plp
p2438
I1
sVd3ppxcu
p2439
I1
sVdcflaa1
p2440
I1
sVd0wx08d
p2441
I1
sVd6m7cmd
p2442
I2
sVddbcskp
p2443
I1
sVd59l7ox
p2444
I1
sVd4cf8xl
p2445
I1
sVdhjmobl
p2446
I1
sVdi948yz
p2447
I1
sVd9x0oy8
p2448
I1
sVd1e55z7
p2449
I1
sVd3zt825
p2450
I1
sVdf1xcin
p2451
I3
sVd9wudbg
p2452
I1
sVd702e8o
p2453
I2
sVd91eyqa
p2454
I2
sVdqskndp
p2455
I1
sVdhblawd
p2456
I1
sVczloej3
p2457
I1
sVdn43tqe
p2458
I2
sVd3r8uui
p2459
I1
sVd7x2tsh
p2460
I4
sVddcbl41
p2461
I1
sVcz1gyre
p2462
I2
sVd2s987y
p2463
I1
sVd4vr1nc
p2464
I1
sVdog6ddf
p2465
I1
sVdgk1e4h
p2466
I1
sVd9l3mzk
p2467
I1
sVdjrsifu
p2468
I1
sVdnzh4n6
p2469
I1
sVdemnwyb
p2470
I1
sVd9a552o
p2471
I1
sVd0vf78z
p2472
I1
sVdhopnq1
p2473
I2
sVdd6gxxf
p2474
I1
sVdssr9cj
p2475
I1
sVczagp7u
p2476
I1
sVd3yq88l
p2477
I1
sVddwv9pa
p2478
I1
sVdc8xox3
p2479
I1
sVczlr5a5
p2480
I1
sVd0gv30b
p2481
I1
sVd235ble
p2482
I1
sVd9mg24b
p2483
I1
sVddwfk5g
p2484
I1
sVdfyzzi0
p2485
I1
sVd7lagw9
p2486
I1
sVd0cic6i
p2487
I1
sVd0eydq3
p2488
I1
sVdnnzxe8
p2489
I1
sVd9znf1r
p2490
I1
sVdhj9mo7
p2491
I1
sVdeozgif
p2492
I1
sVdb6iigf
p2493
I1
sVdi3gar1
p2494
I1
sVd0etart
p2495
I2
sVd1dav0c
p2496
I1
sVd9cwmor
p2497
I1
sVd9b7tr2
p2498
I1
sVd24cx80
p2499
I1
sVczvfnj4
p2500
I1
sVdh1312o
p2501
I1
sVd0csumv
p2502
I1
sVd6qk8fu
p2503
I1
sVd47f1xd
p2504
I1
sVd2jmevk
p2505
I1
sVdeet6a6
p2506
I1
sVdf1xx54
p2507
I1
sVdbyh49v
p2508
I1
sVd65o8qz
p2509
I1
sVd9by86s
p2510
I1
sVd0qp3lw
p2511
I1
sVd1tpt2i
p2512
I1
sVdaadyx4
p2513
I1
sVd1lveqs
p2514
I1
sVd2mxaqs
p2515
I1
sVdf9szvb
p2516
I1
sVdps1crj
p2517
I1
sVcze8jmc
p2518
I1
sVd1se1kj
p2519
I1
sVd3vp0f9
p2520
I1
sVdkz7mem
p2521
I3
sVd1c0wa9
p2522
I1
sVczs14gt
p2523
I1
sVdfagwzl
p2524
I1
sVd1pb1fp
p2525
I1
sVd1embrz
p2526
I1
sVd6vdhti
p2527
I1
sVdt1bql4
p2528
I1
sVd40rc7w
p2529
I1
sVdauxkqs
p2530
I1
sVdd05z8b
p2531
I1
sVd5je1cp
p2532
I1
sVd0h3y1s
p2533
I1
sVd2wirih
p2534
I2
sVdkkh59z
p2535
I1
sVdcqnsb6
p2536
I1
sVd70ot5x
p2537
I1
sVdkqm8p2
p2538
I1
sVczhk36d
p2539
I1
sVd0245m6
p2540
I1
sVdj0w8v8
p2541
I1
sVd12auml
p2542
I1
sVdd5yll1
p2543
I1
sVdf5de98
p2544
I1
sVd29e5zb
p2545
I1
sVd29k3pu
p2546
I1
sVdhvblj1
p2547
I1
sVdfvl8cu
p2548
I1
sVd5y7np4
p2549
I1
sVdtg81b6
p2550
I1
sVd7idbuy
p2551
I1
sVdjvlgbj
p2552
I1
sVdjpyjn3
p2553
I1
sVderd6ws
p2554
I2
sVde4oo0b
p2555
I1
sVd9sfrew
p2556
I1
sVdf6nmn2
p2557
I1
sVde6a39v
p2558
I1
sVd6dz6of
p2559
I4
sVdckjpgi
p2560
I1
sVd4depyc
p2561
I1
sVdmvi7k5
p2562
I1
sVd77blf7
p2563
I1
sVd2p38nv
p2564
I1
sVdart1sd
p2565
I2
sVdfconvg
p2566
I1
sVd20d9cx
p2567
I1
sVd9i8myf
p2568
I1
sVdbgljz4
p2569
I2
sVdf0z9ei
p2570
I1
sVd4mkt5e
p2571
I1
sVcys40xw
p2572
I1
sVdj02k4z
p2573
I3
sVd0efe9x
p2574
I1
sVdmo0xpl
p2575
I1
sVdj9xyl5
p2576
I1
sVdiglmp3
p2577
I1
sVdn49b9d
p2578
I1
sVczflq64
p2579
I2
sVd0jy77d
p2580
I1
sVd7ks54t
p2581
I1
sVdksywfj
p2582
I1
sVdom5rg2
p2583
I1
sVczgzoxt
p2584
I1
sVd25v1iq
p2585
I1
sVd1q5fqp
p2586
I1
sVdhlo71k
p2587
I2
sVd41qltc
p2588
I1
sVczvew58
p2589
I1
sVdabg33i
p2590
I1
sVdp52juf
p2591
I1
sVdf071wt
p2592
I1
sVdi3if4h
p2593
I1
sVdnm421z
p2594
I1
sVdhvtgq9
p2595
I1
sVdh2rxid
p2596
I1
sVdms91gw
p2597
I1
sVd98k2kv
p2598
I1
sVdppn5wd
p2599
I1
sVd3t653g
p2600
I1
sVd6f5u0g
p2601
I1
sVd8uoccn
p2602
I1
sVd0sneq4
p2603
I1
sVdh5wasv
p2604
I1
sVdcs1y4e
p2605
I1
sVddstjq5
p2606
I1
sVdb5c6mh
p2607
I1
sVdpq1rej
p2608
I2
sVdj4r0aj
p2609
I1
sVdb9a0we
p2610
I1
sVd45sd7j
p2611
I1
sVd2ac5r5
p2612
I1
sVdjq6jn2
p2613
I1
sVdbnu3s3
p2614
I1
sVdcee9zp
p2615
I1
sVd2hlulx
p2616
I1
sVdet7n7h
p2617
I2
sVdchcqgd
p2618
I1
sVd0xyjq9
p2619
I1
sVd03iiyc
p2620
I1
sVdhcynvi
p2621
I1
sVd3cmdor
p2622
I1
sVd572bno
p2623
I1
sVd1l5eko
p2624
I1
sVdg9i6mm
p2625
I1
sVdd3vzer
p2626
I1
sVcz779rp
p2627
I1
sVdfcmwkg
p2628
I1
sVd0tlq9v
p2629
I1
sVdbybrpk
p2630
I1
sVdr642lq
p2631
I1
sVdbdkhrw
p2632
I1
sVcyp4anf
p2633
I1
sVd5l65wb
p2634
I1
sVd1f79w1
p2635
I1
sVdp17r2h
p2636
I1
sVcys3167
p2637
I1
sVd54ve8h
p2638
I1
sVd8oqrvk
p2639
I1
sVdmufklr
p2640
I2
sVdnd5hmk
p2641
I1
sVdfrsnfj
p2642
I1
sVczi7hhc
p2643
I2
sVczmren4
p2644
I1
sVdk6ssvy
p2645
I2
sVd2bxokg
p2646
I1
sVdq6pizr
p2647
I1
sVdggqt4f
p2648
I1
sVd128o63
p2649
I1
sVd9dn3ug
p2650
I1
sVdabkpqe
p2651
I1
sVd0475ns
p2652
I1
sVd9muidf
p2653
I1
sVd7g51ge
p2654
I1
sVd7cf4yb
p2655
I1
sVdpaqt9a
p2656
I1
sVdb4z9nt
p2657
I1
sVcyrqzxw
p2658
I1
sVdfu0kn5
p2659
I1
sVd40vv7z
p2660
I1
sVdcmn3hk
p2661
I1
sVd1bqu5u
p2662
I1
sVdghcft5
p2663
I1
sVdf5vneg
p2664
I1
sVd6hurnx
p2665
I1
sVddd4rgd
p2666
I1
sVd5fprhq
p2667
I1
sVd5y4ikg
p2668
I1
sVde4a1s0
p2669
I1
sVdt6zeia
p2670
I1
sVd4o5kmt
p2671
I3
sVd83yjvc
p2672
I1
sVd039rwc
p2673
I1
sVdfx5708
p2674
I1
sVdmq48i7
p2675
I1
sVdpo43lx
p2676
I1
sVd7xs5z6
p2677
I1
sVdatlwfu
p2678
I1
sVdfxxkx8
p2679
I1
sVd0xpp2n
p2680
I1
sVdp0k7dl
p2681
I1
sVcyz1q0e
p2682
I1
sVdeskt5e
p2683
I1
sVddunzil
p2684
I1
sVdhf14s9
p2685
I1
sVd4o0mi2
p2686
I2
sVdti33td
p2687
I1
sVd9avs5h
p2688
I1
sVdfknded
p2689
I1
sVdmf1008
p2690
I1
sVd9dwetf
p2691
I1
sVd04t6k0
p2692
I1
sVdfk39vo
p2693
I1
sVdhefhyf
p2694
I1
sVdg1fy04
p2695
I1
sVd7mukpw
p2696
I2
sVd5yjto8
p2697
I1
sVd9aphnp
p2698
I1
sVd2bapjr
p2699
I1
sVda0ro26
p2700
I1
sVde19vpz
p2701
I1
sVdt5sp7w
p2702
I1
sVd5oqj41
p2703
I1
sVd5uo4wy
p2704
I1
sVdc9m3qk
p2705
I1
sVde56g07
p2706
I1
sVd7gcvc7
p2707
I1
sVd0wnvfl
p2708
I1
sVd4waz7w
p2709
I2
sVdjbn8ha
p2710
I4
sVdhffylp
p2711
I1
sVdp3omzs
p2712
I1
sVd55e53h
p2713
I1
sVdd3jmlo
p2714
I1
sVd9gritv
p2715
I2
sVdek249y
p2716
I1
sVd1hf802
p2717
I1
sVd3lm2xr
p2718
I1
sVdgty3ls
p2719
I1
sVczuq54a
p2720
I1
sVdffm4dd
p2721
I1
sVddndtdd
p2722
I1
sVdabxr68
p2723
I1
sVd0fmmzj
p2724
I1
sVd5rvhct
p2725
I2
sVd1flzf5
p2726
I1
sVd3u2rwr
p2727
I1
sVdb5pgxf
p2728
I1
sVd72xl1m
p2729
I1
sVd7gqjxt
p2730
I1
sVd5hn70t
p2731
I1
sVd5z0r2p
p2732
I1
sVdegwplh
p2733
I1
sVd5yl7tp
p2734
I1
sVdj9yf6l
p2735
I2
sVczgpd3s
p2736
I1
sVdbdju7y
p2737
I1
sVdex4pds
p2738
I1
sVd1rp2nf
p2739
I1
sVd0i268t
p2740
I1
sVd5bcp7m
p2741
I1
sVd2jji7l
p2742
I1
sVd6us8ue
p2743
I1
sVdmklvti
p2744
I1
sVddouvln
p2745
I1
sVd202cnb
p2746
I1
sVdd8di7y
p2747
I1
sVczarspk
p2748
I2
sVdfu0c52
p2749
I1
sVdd6bwtv
p2750
I2
sVdfyzmr5
p2751
I1
sVd618pjb
p2752
I1
sVdhczxby
p2753
I1
sVdnwfyq5
p2754
I2
sVds59fqy
p2755
I1
sVdgbtg7z
p2756
I1
sVd6cccd6
p2757
I1
sVd91jae6
p2758
I1
sVdg170q2
p2759
I1
sVd8ryo7h
p2760
I1
sVdh7r3sx
p2761
I1
sVdhelnn8
p2762
I1
sVdguab3u
p2763
I1
sVdhbpopw
p2764
I1
sVds4t95d
p2765
I1
sVd0rhfau
p2766
I1
sVdi7abzc
p2767
I1
sVczun3vi
p2768
I2
sVdcgf4kr
p2769
I2
sVd6x3sky
p2770
I1
sVcz4oljd
p2771
I1
sVd0jkw12
p2772
I1
sVdh60unj
p2773
I1
sVdaunfhw
p2774
I1
sVdaavelk
p2775
I1
sVczdrt69
p2776
I4
sVd9n3gyo
p2777
I2
sVdi507j7
p2778
I1
sVd6n0oxf
p2779
I1
sVd1qi6a4
p2780
I1
sVdg91oov
p2781
I1
sVdrkxku4
p2782
I1
sVd0o1jqi
p2783
I1
sVdgn1yso
p2784
I1
sVdbiab40
p2785
I1
sVd8otx8p
p2786
I1
sVdhv32p6
p2787
I1
sVd62r58z
p2788
I1
sVdfttws0
p2789
I1
sVdgt74ey
p2790
I1
sVd180w2q
p2791
I1
sVd2bzlcb
p2792
I1
sVd47n60u
p2793
I1
sVcz4csu8
p2794
I1
sVcz5d9ut
p2795
I1
sVd1ka2xp
p2796
I1
sVdmluwqh
p2797
I2
sVd7y4duj
p2798
I1
sVdj3ckb3
p2799
I1
sVd9aklac
p2800
I1
sVd3nligy
p2801
I1
sVdnd43b3
p2802
I1
sVd6qm6h7
p2803
I1
sVdgcql5u
p2804
I1
sVd4l1xc6
p2805
I1
sVd1jfx81
p2806
I1
sVd2kk7a3
p2807
I1
sVdb89ivi
p2808
I2
sVd1gybp7
p2809
I1
sVd83tdvt
p2810
I1
sVdao6kpz
p2811
I1
sVde8ez39
p2812
I2
sVdr0n3zt
p2813
I1
sVdt10uz1
p2814
I1
sVdi2lw1r
p2815
I2
sVd7tjprg
p2816
I1
sVcz00eg6
p2817
I1
sVd0x3xv6
p2818
I1
sVdhseohh
p2819
I1
sVdfvirdf
p2820
I1
sVczjp4l1
p2821
I1
sVdkfliph
p2822
I1
sVd259x8g
p2823
I1
sVdr255gj
p2824
I1
sVd97o8yh
p2825
I1
sVd6f4ilv
p2826
I1
sVczs021o
p2827
I1
sVdby3z6l
p2828
I1
sVdbifv6u
p2829
I1
sVdomzlfi
p2830
I2
sVdqbsq3h
p2831
I1
sVd41in52
p2832
I1
sVdfevi0d
p2833
I1
sVdgy2ghv
p2834
I1
sVd5lzm4l
p2835
I1
sVdpqnq19
p2836
I1
sVdkag9w3
p2837
I1
sVd02fjrm
p2838
I3
sVdpz5okn
p2839
I2
sVd8qlt2c
p2840
I1
sVdgr0qet
p2841
I1
sVdey4r30
p2842
I1
sVczs05nr
p2843
I2
sVdhle5ba
p2844
I1
sVd185stf
p2845
I1
sVds04o61
p2846
I1
sVdaevaiq
p2847
I1
sVd0j489x
p2848
I1
sVdkbnsyy
p2849
I2
sVdi4p324
p2850
I1
sVd2449p4
p2851
I1
sVdkminzi
p2852
I1
sVdq4n6e8
p2853
I1
sVdcfnv2r
p2854
I1
sVdelxjyh
p2855
I1
sVd680isl
p2856
I1
sVdqibf2w
p2857
I3
sVdq97mvt
p2858
I1
sVdhjtxn0
p2859
I1
sVdjkfjt9
p2860
I1
sVdq21rqn
p2861
I1
sVdkm6ocn
p2862
I1
sVd010aof
p2863
I1
sVd1pn3f6
p2864
I1
sVdq75kli
p2865
I1
sVdgjtxam
p2866
I1
sVcz2b32k
p2867
I2
sVdeumy3x
p2868
I1
sVd9uc0gd
p2869
I1
sVdcj65wn
p2870
I1
sVdgvbikq
p2871
I1
sVdb207a7
p2872
I1
sVditdena
p2873
I1
sVd0tyx18
p2874
I1
sVd01ft35
p2875
I1
sVd4kubw2
p2876
I2
sVdop58mj
p2877
I1
sVdcrfrjc
p2878
I1
sVd85oxes
p2879
I1
sVd8sv8p6
p2880
I1
sVddnxxyn
p2881
I1
sVdgg3i2r
p2882
I1
sVczanucq
p2883
I1
sVd8j18wn
p2884
I1
sVdk2ys3q
p2885
I1
sVd9d6rqs
p2886
I1
sVd7hp3of
p2887
I1
sVd5rmjpn
p2888
I1
sVczgd6cp
p2889
I1
sVd1smue1
p2890
I1
sVdfazw3i
p2891
I1
sVdmhfg3j
p2892
I1
sVd7g34yj
p2893
I1
sVdkfr6y8
p2894
I1
sVd0a8yl3
p2895
I2
sVde28uyc
p2896
I1
sVdml3n9u
p2897
I1
sVd9xrjmf
p2898
I1
sVdadythx
p2899
I1
sVdmwwigq
p2900
I1
sVd30uxzb
p2901
I1
sVd020utw
p2902
I1
sVd3gdj25
p2903
I1
sVde3zgxl
p2904
I1
sVda1c7zk
p2905
I1
sVdii3f99
p2906
I1
sVd4q0f7p
p2907
I1
sVdd580dg
p2908
I1
sVdjqg7so
p2909
I2
sVdikuuh0
p2910
I1
sVdgt215h
p2911
I2
sVd3jhefl
p2912
I1
sVd1ztn4e
p2913
I1
sVd0f35jx
p2914
I1
sVd26w3lf
p2915
I1
sVd7oitvl
p2916
I1
sVdk6l6dx
p2917
I1
sVdjzq8qw
p2918
I1
sVdak6wid
p2919
I1
sVdsb0lvr
p2920
I1
sVdb7q99j
p2921
I2
sVdbwgo5y
p2922
I1
sVd23ric0
p2923
I2
sVd6hmvy3
p2924
I1
sVd0caw8w
p2925
I3
sVdceqmq2
p2926
I1
sVcyxqms9
p2927
I1
sVdd26qky
p2928
I3
sVd4xzil4
p2929
I1
sVdpavaw9
p2930
I1
sVd9lk73d
p2931
I2
sVdal1o1z
p2932
I1
sVdkxtcpg
p2933
I1
sVcz4x9ql
p2934
I1
sVd6r21vd
p2935
I1
sVd29c6fb
p2936
I1
sVd9k53ep
p2937
I1
sVdd3patj
p2938
I1
sVcymss52
p2939
I1
sVd2svfxx
p2940
I1
sVcz68p94
p2941
I1
sVd9d0r86
p2942
I1
sVd010iy9
p2943
I1
sVd3pqdps
p2944
I2
sVdsugmi9
p2945
I1
sVdgdyeie
p2946
I1
sVd743emg
p2947
I1
sVdgba1xr
p2948
I1
sVd2kdlxs
p2949
I1
sVdnfd4z9
p2950
I1
sVdfug0s1
p2951
I1
sVd7j6pfl
p2952
I1
sVdf220pd
p2953
I1
sVdny5azg
p2954
I1
sVdntbk9f
p2955
I1
sVd63aa1v
p2956
I1
sVcysb4qv
p2957
I1
sVd71z4yh
p2958
I2
sVd157i7y
p2959
I2
sVd43cows
p2960
I1
sVd7tn429
p2961
I1
sVd76eiqk
p2962
I1
sVd6rgzjm
p2963
I1
sVd6w9i5i
p2964
I2
sVdf0cq9u
p2965
I1
sVd0m2d20
p2966
I1
sVczw8euo
p2967
I1
sVd1hukp1
p2968
I1
sVcyl1std
p2969
I1
sVdn3l155
p2970
I1
sVcyn5af7
p2971
I1
sVd2cvf5b
p2972
I1
sVdc4nls3
p2973
I1
sVdkntml7
p2974
I1
sVdim4a9m
p2975
I4
sVdrck7tq
p2976
I1
sVdcdpj30
p2977
I1
sVd0okym8
p2978
I1
sVd7hojnx
p2979
I1
sVdn07fgu
p2980
I2
sVd0nrm47
p2981
I1
sVd0vckel
p2982
I1
sVd6rsjo9
p2983
I2
sVds9p9cy
p2984
I1
sVdc9s0ch
p2985
I1
sVdco7puf
p2986
I1
sVds1uvn3
p2987
I1
sVd4mojfv
p2988
I1
sVd8a1tae
p2989
I1
sVd31dwpe
p2990
I2
sVdg5d7dy
p2991
I1
sVdaaycvw
p2992
I1
sVd5bdifk
p2993
I1
sVd3537kx
p2994
I1
sVdhpqpkw
p2995
I1
sVdj4959s
p2996
I1
sVd4e2oyu
p2997
I1
sVddhkrmg
p2998
I1
sVd67pvxm
p2999
I1
sVcynowh8
p3000
I1
sVdoh9umk
p3001
I1
sVd6uqkih
p3002
I2
sVd1vcls9
p3003
I1
sVcytfj37
p3004
I1
sVd6ps5ud
p3005
I1
sVdcxuy1k
p3006
I1
sVdfmxu2v
p3007
I1
sVdtcarkr
p3008
I1
sVd0kd2u9
p3009
I1
sVdml4efi
p3010
I1
sVczffxo3
p3011
I1
sVcz58y47
p3012
I2
sVd1iefre
p3013
I1
sVdgu502c
p3014
I1
sVddolbai
p3015
I1
sVcyz65h9
p3016
I1
sVd7mn5xi
p3017
I1
sVdiwe0b4
p3018
I1
sVcz64otw
p3019
I1
sVd5xlspa
p3020
I1
sVd5gurrx
p3021
I1
sVd08e5ri
p3022
I1
sVd1vw6ok
p3023
I1
sVdhcifx5
p3024
I1
sVdc1cv7o
p3025
I1
sVd4q3ati
p3026
I1
sVddd6isz
p3027
I2
sVdcy8m6q
p3028
I1
sVdkuwku7
p3029
I1
sVdpynakp
p3030
I1
sVdfucx5q
p3031
I1
sVcyoyt19
p3032
I1
sVdat9oft
p3033
I1
sVdr97ijq
p3034
I1
sVcynqjwy
p3035
I1
sVd6no4kz
p3036
I1
sVddcbnc0
p3037
I1
sVd1ga4vn
p3038
I1
sVd43lq53
p3039
I1
sVdd3yfhc
p3040
I1
sVczaetre
p3041
I1
sVd1hy0hu
p3042
I2
sVcz0p5pj
p3043
I1
sVdch0c6i
p3044
I1
sVdbt7gju
p3045
I2
sVdizyfv4
p3046
I1
sVd3qrjmv
p3047
I1
sVdc8ayzc
p3048
I1
sVd8ovdp6
p3049
I1
sVczwmn33
p3050
I1
sVd1hsdla
p3051
I1
sVd0iq1kt
p3052
I1
sVdim5p10
p3053
I1
sVdfaxo3a
p3054
I1
sVdcj2fl2
p3055
I1
sVd2hibrt
p3056
I1
sVdcaluj5
p3057
I1
sVd8ee1aw
p3058
I1
sVcyijfit
p3059
I1
sVdd75kwo
p3060
I1
sVd4i5wy2
p3061
I1
sVd6lq5rh
p3062
I1
sVdoto3f5
p3063
I1
sVdf46tae
p3064
I2
sVddwk9q8
p3065
I3
sVd1xnpq9
p3066
I1
sVdi6261v
p3067
I1
sVdhgweck
p3068
I1
sVdev9dmx
p3069
I1
sVd0a1rcz
p3070
I1
sVdju2qcm
p3071
I1
sVdkoif3f
p3072
I1
sVd3r7yic
p3073
I1
sVd477h6k
p3074
I1
sVdj43h4z
p3075
I1
sVd3jv7vw
p3076
I1
sVd051ux1
p3077
I1
sVd12b3z2
p3078
I1
sVd25svmt
p3079
I1
sVd222bck
p3080
I1
sVdibinlj
p3081
I1
sVd0zr6ke
p3082
I1
sVd0ha6oi
p3083
I2
sVdiact0c
p3084
I1
sVczua981
p3085
I1
sVd0naok9
p3086
I1
sVcyt09c0
p3087
I1
sVd0rav3a
p3088
I1
sVcyktywf
p3089
I1
sVdamb7py
p3090
I1
sVcz751x3
p3091
I1
sVd0h4151
p3092
I1
sVdgbjwgv
p3093
I1
sVczni6kw
p3094
I2
sVd3eg57r
p3095
I2
sVdfcb5y8
p3096
I1
sVdojgcd1
p3097
I1
sVd1s166u
p3098
I1
sVd5mdpob
p3099
I1
sVdavfdqu
p3100
I1
sVd01t3wg
p3101
I1
sVdbssywe
p3102
I1
sVcywxgk0
p3103
I1
sVd1m6kxm
p3104
I1
sVdo5onl1
p3105
I2
sVdklkb8h
p3106
I1
sVdgrrgt0
p3107
I1
sVd1ga76i
p3108
I1
sVdt2yysb
p3109
I1
sVd4k2oe9
p3110
I1
sVd4jxxzw
p3111
I2
sVcypb1w4
p3112
I1
sVczgit49
p3113
I1
sVd7nrm2x
p3114
I1
sVd4zzbs6
p3115
I1
sVdf8dvse
p3116
I2
sVd85wniv
p3117
I1
sVdezl2x6
p3118
I3
sVczgt2m0
p3119
I3
sVd5fxq6n
p3120
I1
sVdbzchr9
p3121
I1
sVdf5vo2t
p3122
I1
sVd12w4ya
p3123
I1
sVd7qwf87
p3124
I1
sVd1e5qvy
p3125
I1
sVdgx62sv
p3126
I1
sVcz9gyu2
p3127
I1
sVdibbh7h
p3128
I1
sVdgr93xn
p3129
I1
sVd9cw5zr
p3130
I2
sVdkz1nk8
p3131
I1
sVdjcecro
p3132
I1
sVdh2e3xr
p3133
I1
sVczo7lnv
p3134
I1
sVddx8pe5
p3135
I2
sVdj2iuu5
p3136
I1
sVdfh1pl8
p3137
I1
sVdfgqa0k
p3138
I1
sVdd2cxus
p3139
I1
sVdq5l39m
p3140
I1
sVd929eyi
p3141
I1
sVd302t00
p3142
I1
sVd838ulw
p3143
I1
sVd4ipi9t
p3144
I1
sVd7uidlj
p3145
I1
sVdjfodff
p3146
I1
sVdcr39mv
p3147
I1
sVdfsbd6v
p3148
I1
sVdb2bwhh
p3149
I1
sVd2cwvym
p3150
I1
sVd5yzpnh
p3151
I1
sVd7uycz7
p3152
I1
sVda5x8mm
p3153
I1
sVda63opp
p3154
I1
sVdf668g0
p3155
I1
sVd8kq6uc
p3156
I1
sVddlw5a7
p3157
I1
sVdnurimq
p3158
I1
sVd894u6b
p3159
I1
sVdaph7go
p3160
I1
sVdn629cl
p3161
I1
sVd7qg5n9
p3162
I1
sVdj7xqkt
p3163
I1
sVd2kygbd
p3164
I1
sVdij4b7y
p3165
I1
sVd9bm7cd
p3166
I1
sVcz2opde
p3167
I1
sVdry9ijy
p3168
I1
sVd7lnvfk
p3169
I1
sVdfp87tb
p3170
I1
sVdehf2js
p3171
I1
sVcztjxso
p3172
I1
sVdgnf5oe
p3173
I1
sVd235wgs
p3174
I1
sVd2kzgzd
p3175
I1
sVds6avj8
p3176
I1
sVdno04fb
p3177
I1
sVdb6w3qg
p3178
I1
sVd0u7qq6
p3179
I2
sVdd74tv2
p3180
I1
sVdf02j8c
p3181
I1
sVd7b0jqe
p3182
I1
sVddye5ft
p3183
I1
sVdhjkpr0
p3184
I1
sVdctbweq
p3185
I2
sVdjwow4t
p3186
I1
sVd05kcdy
p3187
I1
sVdkdo145
p3188
I1
sVdfossh2
p3189
I1
sVdda0esk
p3190
I1
sVdbqw6gj
p3191
I1
sVd83orbt
p3192
I2
sVd3pf7ph
p3193
I1
sVd6b9omd
p3194
I1
sVcyyvfp1
p3195
I1
sVdms4qgb
p3196
I2
sVd5lzint
p3197
I1
sVd3gorer
p3198
I1
sVdszfyid
p3199
I1
sVdg8o6kw
p3200
I1
sVdfga4cp
p3201
I2
sVdeyezvk
p3202
I1
sVdmu6cvd
p3203
I2
sVdoi2yh3
p3204
I1
sVdgu1m1n
p3205
I1
sVdetaeyo
p3206
I2
sVcyl88li
p3207
I1
sVd5f6z24
p3208
I1
sVdko5lk9
p3209
I1
sVdcsywi9
p3210
I1
sVdc8hgzc
p3211
I1
sVdfc63cm
p3212
I1
sVd95nmkg
p3213
I1
sVdd9f5k0
p3214
I1
sVdoqeuo6
p3215
I1
sVcz8fmih
p3216
I2
sVd04dhql
p3217
I1
sVdeamh6x
p3218
I1
sVdnbfoim
p3219
I1
sVdqze2qf
p3220
I1
sVdqv5ycp
p3221
I1
sVdfh06h5
p3222
I1
sVdj9gu7n
p3223
I1
sVd1sbjw1
p3224
I1
sVdjx3cnu
p3225
I1
sVd7sycja
p3226
I1
sVdnjhj0m
p3227
I1
sVd3ef7n1
p3228
I2
sVd19ctp0
p3229
I1
sVdhay7yy
p3230
I1
sVds5hain
p3231
I1
sVd90jgd8
p3232
I1
sVd9vafc1
p3233
I1
sVdfl02ut
p3234
I1
sVddbu63x
p3235
I1
sVd6x2uls
p3236
I1
sVdfedz15
p3237
I1
sVdapdp0o
p3238
I1
sVdshq0x1
p3239
I1
sVddr3jq0
p3240
I1
sVds9w2i0
p3241
I1
sVdoob38l
p3242
I1
sVd1v80dh
p3243
I1
sVd3orjnl
p3244
I1
sVdtf9ruf
p3245
I1
sVdeva3vf
p3246
I1
sVd0cpm24
p3247
I1
sVd3qeto9
p3248
I1
sVdkhk7cy
p3249
I1
sVd38mh0k
p3250
I1
sVdbnqjl5
p3251
I1
sVd04uc5a
p3252
I1
sVdmojn1a
p3253
I1
sVddx3lpc
p3254
I1
sVd0ojf64
p3255
I2
sVcz6phsf
p3256
I1
sVdf5q6cx
p3257
I3
sVdc6ygtn
p3258
I1
sVdnimg5i
p3259
I2
sVd963gk3
p3260
I1
sVdgnluvl
p3261
I1
sVd9t8ii2
p3262
I1
sVd14pp5o
p3263
I1
sVdfzweyt
p3264
I1
sVd6a6tkv
p3265
I1
sVd92t88i
p3266
I1
sVdjbyssg
p3267
I1
sVdksaspi
p3268
I1
sVd0c8lhi
p3269
I1
sVdf3b7x1
p3270
I1
sVdq9san0
p3271
I1
sVdbn9a2w
p3272
I1
sVdgnr9tf
p3273
I1
sVddg7xn9
p3274
I1
sVdbe7fbx
p3275
I1
sVd4ku9l4
p3276
I1
sVd5xoseq
p3277
I1
sVd1h992u
p3278
I1
sVdf8jc3g
p3279
I2
sVd0mt49y
p3280
I1
sVd4kserg
p3281
I1
sVd9aph7g
p3282
I3
sVd5u2wih
p3283
I1
sVd8cfo43
p3284
I1
sVd33hqb0
p3285
I1
sVdiqj4l4
p3286
I1
sVd1gqkru
p3287
I1
sVdqo8u3q
p3288
I1
sVdqv0agg
p3289
I1
sVczorcoq
p3290
I1
sVczku3zn
p3291
I2
sVd60e1ck
p3292
I1
sVda3sdmy
p3293
I1
sVdgfwe6d
p3294
I1
sVdnu6vls
p3295
I1
sVdrjzwc5
p3296
I1
sVdh0vin2
p3297
I1
sVcz0tibj
p3298
I1
sVdasewnh
p3299
I1
sVdi1jxg2
p3300
I1
sVd8jsyh0
p3301
I1
sVdnhx6c8
p3302
I1
sVddnot0f
p3303
I4
sVdp8l4qg
p3304
I1
sVd2a0r8z
p3305
I1
sVdbgwjry
p3306
I1
sVdfal6d9
p3307
I1
sVdflxk69
p3308
I1
sVdeziw15
p3309
I1
sVdop7zqq
p3310
I1
sVcyqx83r
p3311
I1
sVdajkywi
p3312
I1
sVd3gk5bs
p3313
I1
sVddj832t
p3314
I1
sVdaphmu4
p3315
I1
sVddde6o4
p3316
I1
sVd32hffd
p3317
I1
sVd04denm
p3318
I1
sVd7o001a
p3319
I1
sVdh7og82
p3320
I1
sVdg6u6cn
p3321
I1
sVd8c1f7o
p3322
I1
sVdcd6x33
p3323
I1
sVd78xr5j
p3324
I1
sVd2gnicj
p3325
I1
sVd9yadnw
p3326
I1
sVcyx3v8u
p3327
I1
sVd3nxecr
p3328
I1
sVdbwidl4
p3329
I1
sVdf0keab
p3330
I1
sVdaioi3e
p3331
I1
sVdacj4a2
p3332
I1
sVd2nbz0z
p3333
I1
sVczgeiyx
p3334
I1
sVdrxbljj
p3335
I1
sVdagajw7
p3336
I1
sVd86t23w
p3337
I2
sVd559yen
p3338
I3
sVd1v8luv
p3339
I3
sVdi7160i
p3340
I1
sVdfv0oci
p3341
I1
sVczo64dm
p3342
I1
sVcyj8w9j
p3343
I1
sVczm91h1
p3344
I1
sVdn0l1l1
p3345
I2
sVdioqzlt
p3346
I1
sVde8nl8x
p3347
I1
sVd0iqlop
p3348
I1
sVdjyukr5
p3349
I1
sVdnopdzg
p3350
I1
sVdd35kuy
p3351
I1
sVd4iqqwq
p3352
I1
sVdecmzi4
p3353
I1
sVd1yi3nu
p3354
I2
sVd741idi
p3355
I1
sVd1guggb
p3356
I1
sVd3c72s9
p3357
I1
sVd5d1316
p3358
I2
sVdilxz2b
p3359
I1
sVd9v8e5k
p3360
I1
sVd7gjsjv
p3361
I2
sVcz4t7v1
p3362
I1
sVczvertz
p3363
I1
sVdn2j7xv
p3364
I1
sVd3zjjl9
p3365
I1
sVcyr0l0n
p3366
I1
sVd69e7em
p3367
I1
sVczyokve
p3368
I1
sVdhfccgk
p3369
I2
sVd3tptcc
p3370
I1
sVdqo6ohj
p3371
I1
sVd8lvpdr
p3372
I1
sVdizyvwh
p3373
I1
sVd1mi8j9
p3374
I1
sVd3w5xsp
p3375
I1
sVdhf6dw2
p3376
I1
sVd718zm7
p3377
I3
sVd4ybmqa
p3378
I2
sVd1btwvq
p3379
I2
sVcz3d8gc
p3380
I1
sVd18rye0
p3381
I1
sVcynenjs
p3382
I1
sVcykurba
p3383
I1
sVddqvoo3
p3384
I1
sVd2nef89
p3385
I3
sVd1arkoj
p3386
I1
sVd87zd6d
p3387
I2
sVd2xng23
p3388
I1
sVdjlez9v
p3389
I1
sVdcnmphb
p3390
I1
sVd19o8dy
p3391
I1
sVd8gpdp6
p3392
I2
sVdgwy210
p3393
I1
sVdfoili1
p3394
I1
sVd1q776y
p3395
I1
sVd259t2w
p3396
I1
sVdik508a
p3397
I1
sVd8rn16t
p3398
I1
sVdfzwukc
p3399
I1
sVd0e089k
p3400
I1
sVdim18uu
p3401
I2
sVdkeb1w7
p3402
I1
sVcyosmsb
p3403
I1
sVdk6hggr
p3404
I1
sVdo2ryiy
p3405
I1
sVd8oyq0n
p3406
I1
sVdgq8qj0
p3407
I1
sVd3c5i6l
p3408
I1
sVd0ek4ta
p3409
I1
sVd3wnils
p3410
I1
sVdklvqav
p3411
I1
sVd1h6epx
p3412
I1
sVd9nmfe9
p3413
I2
sVdiyhuz8
p3414
I1
sVdotwpp7
p3415
I1
sVd626j3s
p3416
I1
sVde4odon
p3417
I1
sVd8ikubo
p3418
I1
sVdfgcrlg
p3419
I1
sVcztc9wg
p3420
I2
sVd5er781
p3421
I1
sVd3tvp0w
p3422
I1
sVd50aqy3
p3423
I1
sVczzijc5
p3424
I1
sVczh0ptz
p3425
I1
sVddgknvs
p3426
I2
sVdflzxx8
p3427
I1
sVdc3oxqo
p3428
I1
sVczer7g9
p3429
I1
sVd0qi53k
p3430
I1
sVdhwc9z3
p3431
I1
sVd16rbz4
p3432
I1
sVdjiesot
p3433
I1
sVczgmnnm
p3434
I1
sVdgjl3vt
p3435
I3
sVdq47ltk
p3436
I1
sVdhck9ah
p3437
I1
sVdf7zzi1
p3438
I1
sVdic162m
p3439
I1
sVdn2vbaj
p3440
I1
sVd3d0nfb
p3441
I1
sVdsprvfe
p3442
I1
sVdkrutdl
p3443
I1
sVd3ktyq0
p3444
I1
sVd887m8x
p3445
I1
sVdi9wmo9
p3446
I1
sVdawx38m
p3447
I1
sVd4eupcv
p3448
I1
sVdijwyk5
p3449
I1
sVdivetkb
p3450
I1
sVd61ltnp
p3451
I1
sVd7lwgg8
p3452
I1
sVd9ejhfu
p3453
I2
sVdn06eva
p3454
I2
sVd1debu0
p3455
I1
sVdflsdxo
p3456
I1
sVd2pwoza
p3457
I1
sVdirk6wz
p3458
I1
sVd1v1tqz
p3459
I1
sVdqft1hz
p3460
I1
sVdkwou3m
p3461
I1
sVd0xn6ge
p3462
I1
sVdbd30qf
p3463
I1
sVdokqsxk
p3464
I1
sVcyp1uz9
p3465
I1
sVdet3o64
p3466
I1
sVdomx4m3
p3467
I2
sVdi0nca8
p3468
I1
sVczep9iv
p3469
I1
sVd9jy4rs
p3470
I1
sVdt1b7hj
p3471
I1
sVd1h4oss
p3472
I1
sVd9vi24u
p3473
I1
sVd5kjxw4
p3474
I1
sVdfs8xss
p3475
I2
sVdbiajza
p3476
I1
sVd1hcjih
p3477
I1
sVdnkqnv4
p3478
I1
sVczrzqs9
p3479
I1
sVd06ed90
p3480
I1
sVd6g8vld
p3481
I1
sVdk96gly
p3482
I1
sVcz4x7s5
p3483
I1
sVdc65fye
p3484
I1
sVdkqylmc
p3485
I1
sVdcih2m8
p3486
I1
sVdfnb82p
p3487
I1
sVdaebo9w
p3488
I1
sVdfbiipx
p3489
I1
sVdrzzi9r
p3490
I1
sVdojbh7g
p3491
I1
sVdiacb9t
p3492
I1
sVd8s3cp0
p3493
I1
sVdd3p7kz
p3494
I1
sVdg8j12b
p3495
I1
sVdhsmf0c
p3496
I1
sVdfppyir
p3497
I1
sVdcevnz6
p3498
I1
sVczm4ews
p3499
I1
sVd0t3wj2
p3500
I2
sVd6hed53
p3501
I1
sVdo7hxip
p3502
I1
sVdkhc1ma
p3503
I2
sVd26ngd3
p3504
I2
sVd3e49td
p3505
I1
sVd7j8fko
p3506
I1
sVd2fmhbl
p3507
I1
sVdf0gom8
p3508
I1
sVdc9p75b
p3509
I1
sVdealkxx
p3510
I2
sVd803ixx
p3511
I1
sVdjjf7ga
p3512
I1
sVdjebybr
p3513
I1
sVd4azwji
p3514
I1
sVd2yofvt
p3515
I1
sVdfg9e2h
p3516
I1
sVd7gne5j
p3517
I1
sVd67y4cx
p3518
I1
sVdf1wfxv
p3519
I1
sVdmowfml
p3520
I1
sVdr6rvqx
p3521
I1
sVdei4d6s
p3522
I1
sVd6jy6se
p3523
I1
sVcyxz3lb
p3524
I1
sVdjxouom
p3525
I1
sVddf3s0z
p3526
I1
sVdn9rxy5
p3527
I1
sVdacqqyg
p3528
I1
sVd0bkef0
p3529
I1
sVd6bhrxm
p3530
I1
sVdnxk5es
p3531
I2
sVd4skux4
p3532
I1
sVczsus9a
p3533
I1
sVdab0mfi
p3534
I2
sVdh9alwc
p3535
I1
sVdjpv0od
p3536
I1
sVdilq2jv
p3537
I1
sVdbc5p5g
p3538
I1
sVdnj406w
p3539
I1
sVd9n4wf3
p3540
I1
sVd1bu2eq
p3541
I1
sVd1n46mu
p3542
I1
sVdak1hw8
p3543
I1
sVdauhgjj
p3544
I1
sVdcapxxd
p3545
I1
sVd0s3cbi
p3546
I1
sVda1gzmq
p3547
I1
sVd28jzaw
p3548
I2
sVd2wtreo
p3549
I1
sVcz8d9sz
p3550
I1
sVd0hx7j8
p3551
I1
sVczx0sly
p3552
I1
sVdt9lipi
p3553
I1
sVd66ynq7
p3554
I1
sVdcl8zlo
p3555
I1
sVdk14bs0
p3556
I1
sVd5swc71
p3557
I1
sVdcgh142
p3558
I1
sVd97jc7l
p3559
I4
sVd06vncy
p3560
I1
sVdcerd6y
p3561
I1
sVdi97qxu
p3562
I1
sVdgohihu
p3563
I1
sVd5kdba6
p3564
I1
sVdjkoixg
p3565
I1
sVczgurav
p3566
I1
sVdrn4fuz
p3567
I1
sVd9a5ft1
p3568
I1
sVd03da3c
p3569
I1
sVd5rztp5
p3570
I1
sVd2b1ilh
p3571
I2
sVd3h67yc
p3572
I1
sVdfzwmt2
p3573
I1
sVd4o0ras
p3574
I1
sVdavv13e
p3575
I1
sVcz06l5a
p3576
I1
sVdk0lnps
p3577
I1
sVd8ptkbk
p3578
I1
sVda2rnpf
p3579
I1
sVd6alyct
p3580
I1
sVdt3yjwf
p3581
I2
sVdr9of1h
p3582
I1
sVd1wlyqp
p3583
I1
sVd7y6wkt
p3584
I2
sVdjj3k2w
p3585
I1
sVd03kydk
p3586
I1
sVdn7dn08
p3587
I2
sVczcta96
p3588
I1
sVdgzusff
p3589
I1
sVdn16r97
p3590
I2
sVd6bxinx
p3591
I1
sVdgahap8
p3592
I1
sVczi883h
p3593
I1
sVdh3dpz1
p3594
I1
sVcyrdoy9
p3595
I2
sVd1vtv0f
p3596
I1
sVdjpvroa
p3597
I1
sVd91ifql
p3598
I1
sVd6234ds
p3599
I1
sVdbcl8es
p3600
I1
sVd5tb5ek
p3601
I1
sVdik7w0d
p3602
I1
sVda0rj4e
p3603
I1
sVd0jfzxv
p3604
I1
sVda1a2tz
p3605
I1
sVdq6mdsb
p3606
I1
sVcyy35e1
p3607
I1
sVd425p54
p3608
I1
sVcyxt750
p3609
I1
sVd18cwkg
p3610
I1
sVd24aysh
p3611
I1
sVd3eghb6
p3612
I1
sVdfjdnai
p3613
I1
sVd49zdlm
p3614
I1
sVdg5m4gk
p3615
I1
sVdpttqzk
p3616
I1
sVd0226ty
p3617
I1
sVczkzm53
p3618
I1
sVcyz220d
p3619
I1
sVdcq5az2
p3620
I1
sVd1onxlr
p3621
I1
sVdfomn6g
p3622
I2
sVd8hm615
p3623
I1
sVdfx2673
p3624
I1
sVda3vuxa
p3625
I1
sVd1v9q6h
p3626
I1
sVdh6ffew
p3627
I1
sVdafiqyk
p3628
I1
sVd1bugq1
p3629
I1
sVdjw82i1
p3630
I1
sVdmek5yn
p3631
I1
sVd2k8r3l
p3632
I1
sVd6s2bp8
p3633
I1
sVdof7kso
p3634
I1
sVdenvw1e
p3635
I2
sVdscbvqx
p3636
I1
sVd9e5am1
p3637
I1
sVd667eus
p3638
I1
sVd5rdab1
p3639
I2
sVcz7vnsv
p3640
I2
sVdj2goiu
p3641
I2
sVd6cdwvj
p3642
I1
sVdqhf98m
p3643
I1
sVd7ne3vy
p3644
I1
sVd51ueo3
p3645
I1
sVdddkbb4
p3646
I2
sVdhtkcfz
p3647
I2
sVdmlqf7u
p3648
I1
sVdamrnah
p3649
I1
sVdindm5c
p3650
I1
sVdjmwi0f
p3651
I1
sVdr9m2oy
p3652
I1
sVdb8acpx
p3653
I1
sVdgfwo50
p3654
I1
sVdcn5anu
p3655
I1
sVdeiwwqx
p3656
I1
sVdgi1r27
p3657
I1
sVdk1g3qm
p3658
I1
sVd3l0rmv
p3659
I1
sVd9n0962
p3660
I1
sVdavr6ea
p3661
I1
sVd7kdt2i
p3662
I1
sVdmtoz4d
p3663
I1
sVd4xpk23
p3664
I1
sVdfbtql5
p3665
I1
sVdgxa94j
p3666
I1
sVdhyqid6
p3667
I1
sVd2p08y2
p3668
I3
sVd0clt0i
p3669
I1
sVd313bl0
p3670
I1
sVdpu239j
p3671
I1
sVd312svi
p3672
I2
sVddiyk92
p3673
I1
sVdbp4amo
p3674
I1
sVd0empl6
p3675
I1
sVdsts1ss
p3676
I1
sVdfwqiuv
p3677
I1
sVde0mrwf
p3678
I1
sVcztsjox
p3679
I2
sVdfrgxku
p3680
I1
sVd4n0wch
p3681
I1
sVd7vacfv
p3682
I1
sVd5lzaha
p3683
I1
sVdklcig0
p3684
I1
sVdjdq0qx
p3685
I1
sVd38c76c
p3686
I1
sVd9hkieo
p3687
I1
sVdrrot22
p3688
I1
sVd42b13l
p3689
I1
sVdia60do
p3690
I2
sVd3r0f87
p3691
I1
sVd2kkrrf
p3692
I1
sVd8grvjt
p3693
I1
sVczczfb4
p3694
I2
sVdcy7qal
p3695
I1
sVd40zpxc
p3696
I1
sVd3cxkya
p3697
I1
sVd1hwzb3
p3698
I1
sVd0mupuy
p3699
I1
sVdrw95ba
p3700
I1
sVda816bk
p3701
I1
sVd3dyr89
p3702
I1
sVdth77rp
p3703
I2
sVczgywk0
p3704
I1
sVczcf6q3
p3705
I1
sVd03kty8
p3706
I1
sVd7wmesq
p3707
I1
sVd9t9rom
p3708
I3
sVdip8fdp
p3709
I1
sVdqck2p3
p3710
I1
sVdj02ct7
p3711
I1
sVdmv985w
p3712
I1
sVdd8ankq
p3713
I1
sVd0ow67b
p3714
I1
sVd5fv5e4
p3715
I1
sVdmoi68q
p3716
I2
sVczg95zw
p3717
I1
sVd2sn7hi
p3718
I1
sVd5y9u00
p3719
I1
sVczares1
p3720
I1
sVd0qu94w
p3721
I1
sVdkfzunl
p3722
I1
sVd2ta0ph
p3723
I2
sVda7g40b
p3724
I1
sVdfax200
p3725
I1
sVdt4e0wl
p3726
I1
sVdbkp508
p3727
I1
sVd8fxj82
p3728
I1
sVdi07a9r
p3729
I1
sVd5ubats
p3730
I1
sVdatvj0s
p3731
I2
sVd222tqv
p3732
I1
sVdn962hi
p3733
I1
sVd08oaph
p3734
I1
sVd1qsie3
p3735
I1
sVczrgt2l
p3736
I1
sVdbxkj2f
p3737
I1
sVdfsv5xd
p3738
I1
sVdc63i3u
p3739
I1
sVdnwhol6
p3740
I1
sVd06x4f7
p3741
I2
sVdt7xw64
p3742
I1
sVd175hwk
p3743
I1
sVdck7151
p3744
I1
sVd9w6c2f
p3745
I1
sVdg82b53
p3746
I1
sVd0pbzki
p3747
I1
sVczit9cs
p3748
I1
sVdefxmg3
p3749
I1
sVdkx3ij8
p3750
I1
sVd24wadp
p3751
I1
sVd7c8h4w
p3752
I1
sVd0axpnc
p3753
I3
sVd6og3il
p3754
I1
sVdhoj5a4
p3755
I1
sVdcj1tn7
p3756
I1
sVdr49nhn
p3757
I1
sVdck59ip
p3758
I1
sVdeddh8l
p3759
I1
sVd5ivwws
p3760
I1
sVd05nxd5
p3761
I1
sVddqtl8l
p3762
I2
sVdfbx3mc
p3763
I1
sVdrxcxui
p3764
I1
sVdaqe5kg
p3765
I1
sVdgng8kn
p3766
I3
sVd7uk1tk
p3767
I1
sVd1lldvo
p3768
I1
sVdiolluq
p3769
I1
sVdb0diw9
p3770
I1
sVcywfu77
p3771
I1
sVdr0eygw
p3772
I1
sVd1l5782
p3773
I1
sVd5zfe1u
p3774
I2
sVdsdo1b0
p3775
I1
sVd1swsgq
p3776
I1
sVd297qmu
p3777
I1
sVdc4df4o
p3778
I1
sVdfgq7ru
p3779
I1
sVdbtkbmw
p3780
I1
sVdd56qg1
p3781
I1
sVczi2ioe
p3782
I3
sVd0fr0hv
p3783
I1
sVd6ajb8w
p3784
I1
sVcyjsi9f
p3785
I1
sVcz6ziz6
p3786
I1
sVd8069nl
p3787
I1
sVd05uia5
p3788
I1
sVdb70p8q
p3789
I1
sVd472s8y
p3790
I2
sVdr5o9kj
p3791
I1
sVd0444b5
p3792
I1
sVdi7wybr
p3793
I1
sVdab04i1
p3794
I1
sVdj4sdl1
p3795
I2
sVdb6bg97
p3796
I5
sVd3fa2jx
p3797
I1
sVd1h4nj0
p3798
I2
sVd199b8v
p3799
I1
sVczr3k9f
p3800
I1
sVd4sd5k4
p3801
I1
sVczem8s7
p3802
I1
sVd0qv2p9
p3803
I1
sVdikvyyg
p3804
I1
sVd0wo09o
p3805
I2
sVdaxv5rz
p3806
I1
sVd3rliqs
p3807
I1
sVd74ed3k
p3808
I1
sVd2giex4
p3809
I1
sVdihxipt
p3810
I1
sVdbriato
p3811
I3
sVd0ou6im
p3812
I1
sVd5llsgh
p3813
I1
sVdd3m3mt
p3814
I4
sVdgnyvfk
p3815
I1
sVdn43hqm
p3816
I1
sVdqb0dva
p3817
I1
sVd9n41gn
p3818
I1
sVder4gox
p3819
I1
sVddx09fa
p3820
I1
sVdo2q2im
p3821
I2
sVdearur8
p3822
I1
sVd34tban
p3823
I1
sVdnjqh3k
p3824
I1
sVcznowl3
p3825
I1
sVdel1ld8
p3826
I1
sVdc4u8wz
p3827
I1
sVd7qw30g
p3828
I1
sVdoheadi
p3829
I1
sVcz9hplz
p3830
I1
sVd7mtwge
p3831
I1
sVd1atnhf
p3832
I1
sVdbg4xqw
p3833
I3
sVdi2qyj7
p3834
I1
sVdjpeb24
p3835
I1
sVd9ia849
p3836
I1
sVdmnkab8
p3837
I1
sVdj91uy0
p3838
I1
sVdh6g9qt
p3839
I1
sVd48sk2l
p3840
I1
sVd55ean1
p3841
I1
sVdccbl02
p3842
I2
sVdeyr4ij
p3843
I1
sVdnrb3g3
p3844
I1
sVdcw7qbc
p3845
I1
sVdejqmjy
p3846
I1
sVd84l6uc
p3847
I1
sVd9fpmrs
p3848
I1
sVd7xxdqn
p3849
I1
sVcz7vk2g
p3850
I2
sVd28xr6b
p3851
I1
sVdpq985u
p3852
I1
sVd8ovo0k
p3853
I1
sVd6nz6dt
p3854
I1
sVds6nr0l
p3855
I1
sVdd1f8z9
p3856
I1
sVd0ktof4
p3857
I1
sVdcsrvwu
p3858
I1
sVd7ukto3
p3859
I3
sVdfwn3sy
p3860
I1
sVdk082yo
p3861
I1
sVdax197m
p3862
I1
sVdeav75x
p3863
I1
sVcz8xvzz
p3864
I1
sVdhlo20q
p3865
I1
sVd4oiukm
p3866
I1
sVdf90357
p3867
I1
sVdtastkt
p3868
I1
sVd67skpz
p3869
I1
sVd7u6r0q
p3870
I1
sVdhvgg00
p3871
I1
sVd0hr3zs
p3872
I1
sVcz5ftoh
p3873
I1
sVdoqcie5
p3874
I2
sVdgseojv
p3875
I1
sVdb3qep8
p3876
I1
sVd55isga
p3877
I2
sVd9vf0va
p3878
I1
sVdbn7hwb
p3879
I1
sVczeo0c5
p3880
I2
sVdh1f9z8
p3881
I1
sVd7q4wou
p3882
I1
sVdklo4i8
p3883
I1
sVcyjw16q
p3884
I1
sVcyref66
p3885
I1
sVdh5xs5v
p3886
I1
sVd963itp
p3887
I1
sVd1c2uzw
p3888
I1
sVd574yvv
p3889
I1
sVd8mglmw
p3890
I1
sVdjbnsvi
p3891
I1
sVdqjz6qk
p3892
I1
sVcz0hgdp
p3893
I1
sVdfosu9e
p3894
I1
sVdqaxlfj
p3895
I2
sVdaoay7q
p3896
I1
sVds19p0a
p3897
I2
sVdda2umz
p3898
I2
sVd1twn1y
p3899
I1
sVd1l63j4
p3900
I1
sVdskzobu
p3901
I1
sVdeh8w8u
p3902
I1
sVdeuzhy8
p3903
I2
sVd7cxcoz
p3904
I1
sVdgw6k5r
p3905
I1
sVdq4v65z
p3906
I1
sVd03w9n6
p3907
I1
sVd59xdse
p3908
I2
sVd2zgegh
p3909
I1
sVdbod67z
p3910
I1
sVd1ftnuf
p3911
I1
sVdjtskm6
p3912
I1
sVd8xkr4t
p3913
I2
sVdbrmpth
p3914
I1
sVdrrcvdz
p3915
I1
sVd08ag2n
p3916
I1
sVczm3k9b
p3917
I1
sVdeabsma
p3918
I1
sVd0i87pf
p3919
I1
sVdqeemha
p3920
I1
sVcyxjpdg
p3921
I1
sVdavscmb
p3922
I1
sVd27bdec
p3923
I1
sVdmrgdmb
p3924
I1
sVdbfz64j
p3925
I3
sVdak295c
p3926
I1
sVdhamzqc
p3927
I1
sVd54esp0
p3928
I1
sVdh9ptjq
p3929
I1
sVdgk0lj9
p3930
I1
sVcysbr62
p3931
I2
sVd0jgv8o
p3932
I1
sVd4vjokd
p3933
I1
sVcyu70g6
p3934
I1
sVcz4p3c9
p3935
I1
sVdr9sg1f
p3936
I1
sVda0tah5
p3937
I1
sVda4fcwh
p3938
I1
sVd9tw4jc
p3939
I1
sVdjg1s80
p3940
I1
sVd0tp68v
p3941
I1
sVds4j9se
p3942
I1
sVdnw9dt1
p3943
I1
sVdnc2swj
p3944
I1
sVdnaap7d
p3945
I1
sVdbh30hs
p3946
I1
sVd9tvhsz
p3947
I2
sVd43k3h8
p3948
I1
sVdhwkmoq
p3949
I2
sVdbwbi9s
p3950
I1
sVd41u2c0
p3951
I1
sVd3zcl86
p3952
I1
sVd60zcnz
p3953
I1
sVd2ayqxg
p3954
I1
sVcyuj0hr
p3955
I1
sVd2lfzk0
p3956
I1
sVczbf61m
p3957
I1
sVd3byp1g
p3958
I1
sVd50opyb
p3959
I1
sVd6nzqab
p3960
I1
sVd4j64ar
p3961
I2
sVd2xs753
p3962
I1
sVdfx2cky
p3963
I1
sVd67dylh
p3964
I1
sVdpiq6da
p3965
I5
sVd587200
p3966
I1
sVdb7yfcs
p3967
I1
sVd5oyend
p3968
I1
sVdokiuyx
p3969
I1
sVd8g5mad
p3970
I1
sVdijssmn
p3971
I1
sVdn0u01z
p3972
I2
sVdcxl8k2
p3973
I2
sVd45459n
p3974
I2
sVdsq5ckr
p3975
I1
sVd330vm9
p3976
I1
sVd5bzajp
p3977
I1
sVd1asz3i
p3978
I1
sVd6h94mi
p3979
I1
sVdd3bopx
p3980
I1
sVdqc4qyn
p3981
I1
sVdfto5wv
p3982
I1
sVdatakie
p3983
I1
sVdau25sl
p3984
I1
sVdsqblj3
p3985
I1
sVdf5hu7u
p3986
I1
sVdbr8nbi
p3987
I1
sVdasseky
p3988
I1
sVdrbyqgr
p3989
I1
sVdebtjzv
p3990
I1
sVd09zwln
p3991
I1
sVdku6zs8
p3992
I1
sVd0z7w4t
p3993
I1
sVdflvmnl
p3994
I1
sVdhud3iv
p3995
I1
sVd2g8qeg
p3996
I1
sVd44y3vm
p3997
I1
sVdadex3a
p3998
I1
sVd1xpcet
p3999
I1
sVddrwlpl
p4000
I1
sVdj4akw8
p4001
I1
sVd6gu7yp
p4002
I1
sVd86ot2l
p4003
I1
sVd51liot
p4004
I3
sVddrxfgw
p4005
I2
sVdbpudre
p4006
I1
sVdbhq2yt
p4007
I1
sVdr1y967
p4008
I1
sVd7kaqvk
p4009
I1
sVcyzrpgy
p4010
I1
sVd2heu3a
p4011
I1
sVdpcg9st
p4012
I4
sVdev0o4a
p4013
I1
sVd0lykhc
p4014
I1
sVdcuytdn
p4015
I1
sVd1lkc0y
p4016
I1
sVd2xm8td
p4017
I1
sVd1m6w3h
p4018
I1
sVd3lrqmv
p4019
I1
sVdoju1i6
p4020
I1
sVdah3g5d
p4021
I1
sVd3c7wwx
p4022
I1
sVd6dstn1
p4023
I2
sVczue5c1
p4024
I1
sVdrmgb49
p4025
I1
sVdoato8t
p4026
I1
sVd0nh90o
p4027
I1
sVde4gwpz
p4028
I1
sVdj9jm94
p4029
I1
sVdpqoy3c
p4030
I1
sVdam0vd3
p4031
I1
sVdsuogmc
p4032
I1
sVdct5dlc
p4033
I1
sVd3fcbsm
p4034
I1
sVd9o51o0
p4035
I1
sVdp8o1n2
p4036
I1
sVdc9fm3q
p4037
I1
sVdg7c9ov
p4038
I1
sVdcur5kz
p4039
I2
sVdaby17x
p4040
I2
sVdry9lwm
p4041
I1
sVd4o0z7h
p4042
I1
sVdgx3nxv
p4043
I1
sVdgapypw
p4044
I1
sVdcu54vg
p4045
I1
sVd3eshm5
p4046
I1
sVdgur4k6
p4047
I1
sVd19g03f
p4048
I1
sVdfg6ad1
p4049
I1
sVczt8etz
p4050
I1
sVdf7lsfa
p4051
I1
sVdpq5bw3
p4052
I1
sVd0103fs
p4053
I1
sVd36s1u6
p4054
I1
sVdam13z5
p4055
I1
sVdet7kif
p4056
I1
sVdg2fbkq
p4057
I1
sVd4vsnts
p4058
I1
sVd646c1a
p4059
I2
sVd7rxitq
p4060
I1
sVd18p73g
p4061
I1
sVdcubvvw
p4062
I1
sVdgyh8zj
p4063
I1
sVdqidl2z
p4064
I2
sVd3k6cf7
p4065
I1
sVd6osm01
p4066
I1
sVd3qcmmm
p4067
I3
sVd1zsn2m
p4068
I2
sVd2a5iup
p4069
I1
sVd1xeboh
p4070
I1
sVdhcd1t7
p4071
I1
sVd5oqxpe
p4072
I1
sVdfv0wpa
p4073
I1
sVdaifhj8
p4074
I3
sVdf6grl3
p4075
I3
sVd37pr1h
p4076
I1
sVddgauez
p4077
I1
sVd5f9sgn
p4078
I1
sVcz15sqa
p4079
I1
sVdew77ln
p4080
I1
sVd0b8k42
p4081
I1
sVd63r0av
p4082
I2
sVdrfo82u
p4083
I1
sVd14otje
p4084
I1
sVdrum98u
p4085
I1
sVd6vbiz7
p4086
I1
sVcyixtjp
p4087
I1
sVdnmhh96
p4088
I1
sVd3t6h48
p4089
I1
sVd3sc6g2
p4090
I3
sVd0gsn26
p4091
I1
sVd1saulq
p4092
I1
sVd6xtk9x
p4093
I1
sVdd2ais0
p4094
I2
sVddcuun3
p4095
I1
sVdiprmvd
p4096
I1
sVcyibhtc
p4097
I2
sVd19gtqx
p4098
I1
sVczbm47k
p4099
I1
sVdii3c41
p4100
I1
sVds46y24
p4101
I1
sVdfw92ea
p4102
I1
sVd4s8w3l
p4103
I1
sVczvsjjd
p4104
I1
sVd1dxpus
p4105
I1
sVd5xu3i2
p4106
I1
sVd1t2a02
p4107
I1
sVdf31zjw
p4108
I1
sVd0wykr5
p4109
I2
sVczehuf5
p4110
I2
sVd0gv6im
p4111
I1
sVczzecnu
p4112
I1
sVdmkvieg
p4113
I1
sVd0hveuu
p4114
I2
sVd6x8y9u
p4115
I1
sVcz11fbp
p4116
I1
sVdo1t9xo
p4117
I2
sVdav9p9r
p4118
I1
sVd37th8f
p4119
I2
sVdbpyqbm
p4120
I2
sVddwt7yh
p4121
I1
sVdh9at1c
p4122
I2
sVdh57ybd
p4123
I1
sVd4c34cs
p4124
I1
sVd3jx4oh
p4125
I1
sVcz6yk5i
p4126
I1
sVd9mt14a
p4127
I1
sVdd1cz2i
p4128
I1
sVddv5mhd
p4129
I1
sVd9xqvst
p4130
I1
sVdart426
p4131
I1
sVdiimlor
p4132
I3
sVdqrwp0c
p4133
I1
sVdenxfm0
p4134
I1
sVdmu5x9a
p4135
I1
sVdiyr6x4
p4136
I1
sVd0yyrq2
p4137
I1
sVdboqhh0
p4138
I1
sVcz5xb1n
p4139
I1
sVdb1b3jj
p4140
I1
sVdab4xd9
p4141
I1
sVde2chhk
p4142
I1
sVdmiguhi
p4143
I2
sVdoqzp5k
p4144
I2
sVd6ndjbj
p4145
I1
sVd6ahx1y
p4146
I1
sVd3e00nq
p4147
I1
sVdgo1b37
p4148
I1
sVdhfami6
p4149
I1
sVdebwg6c
p4150
I2
sVdfzvbjg
p4151
I1
sVdkde71j
p4152
I1
sVd4m2hjo
p4153
I1
sVd086lsb
p4154
I1
sVdfl2b5s
p4155
I1
sVcz17hqh
p4156
I2
sVdgcn5mn
p4157
I1
sVcysy36b
p4158
I1
sVd5svavk
p4159
I1
sVcylkkva
p4160
I1
sVczghs9p
p4161
I1
sVd2ucjqt
p4162
I1
sVdf8m4q9
p4163
I1
sVd0ygdcc
p4164
I1
sVd6w0hyu
p4165
I1
sVd78xt62
p4166
I1
sVd96ufbs
p4167
I1
sVdkeezbi
p4168
I2
sVdq6j6v1
p4169
I1
sVcyu5q9d
p4170
I1
sVdi9u57q
p4171
I1
sVdempjrc
p4172
I1
sVcz7e5hh
p4173
I1
sVcyzet0j
p4174
I1
sVdjmg72h
p4175
I1
sVd242vhw
p4176
I1
sVde30van
p4177
I1
sVcz2ki3y
p4178
I1
sVdil5vmw
p4179
I1
sVd4odoyk
p4180
I1
sVdpctl6j
p4181
I1
sVd83924p
p4182
I1
sVdhvdttw
p4183
I1
sVcz4gdnn
p4184
I1
sVdp5ep8l
p4185
I1
sVd69eci4
p4186
I1
sVd0kud3g
p4187
I1
sVd57ohmc
p4188
I1
sVdpac1dz
p4189
I1
sVd9o3ix2
p4190
I1
sVdmncf4l
p4191
I1
s.