(dp0
Vd6ww0xz
p1
I1
sVdf0azpo
p2
I1
sVd5tiv8q
p3
I1
sVddibk82
p4
I1
sVd7yeukf
p5
I1
sVczo8n2j
p6
I1
sVdcy8m6q
p7
I1
sVdi66paq
p8
I1
sVd4a64wf
p9
I1
sVdpst7xe
p10
I1
sVd9p9cf8
p11
I1
sVdjn9xw6
p12
I2
sVd8sagvk
p13
I1
sVcyw3r67
p14
I1
sVdd1s0mk
p15
I1
sVcz0l34r
p16
I1
sVd6dk8ps
p17
I1
sVdjougyy
p18
I2
sVdo15tuq
p19
I2
sVdbr91j8
p20
I1
sVdalzcuh
p21
I1
sVdd23zev
p22
I2
sVd107xfx
p23
I1
sVd7ua6ek
p24
I1
sVd08lil5
p25
I1
sVd53u6jl
p26
I1
sVdb7i50b
p27
I1
sVdgy0lyk
p28
I1
sVd71skmb
p29
I1
sVd9e9hze
p30
I1
sVdheufe0
p31
I1
sVddivcch
p32
I1
sVdn7k24x
p33
I1
sVdnl8kwo
p34
I1
sVd18ze5e
p35
I1
sVdredr16
p36
I1
sVdo5ckap
p37
I1
sVdpqubnu
p38
I1
sVdtd5nzj
p39
I1
sVdkf6oln
p40
I1
sVdb03hjn
p41
I2
sVddia9hg
p42
I1
sVdarft4d
p43
I1
sVd468f6f
p44
I1
sVdf0uf6g
p45
I1
sVd9boej7
p46
I1
sVdbj4cne
p47
I1
sVdafrg4l
p48
I1
sVdjft1in
p49
I1
sVd5mxxzd
p50
I1
sVd2zlqzl
p51
I1
sVd0cirp4
p52
I1
sVdb8mkzj
p53
I1
sVdgosval
p54
I1
sVdomx4m3
p55
I1
sVdksn2ie
p56
I1
sVdb6k9iz
p57
I1
sVcyuoijz
p58
I1
sVdg4fx5l
p59
I1
sVdj69bdo
p60
I1
sVdpm1ko5
p61
I1
sVd92y4f0
p62
I1
sVdewlyh0
p63
I1
sVdhjmobl
p64
I1
sVd9fetbw
p65
I1
sVd10asoz
p66
I1
sVd2stffm
p67
I1
s.