(dp0
Vdhg9mkk
p1
I2
sVdjtar05
p2
I1
sVdfdtoli
p3
I2
sVdha18vk
p4
I2
sVdrd7mb2
p5
I1
sVdn5sl4w
p6
I1
sVdd8zyih
p7
I2
sVda65e1v
p8
I1
sVdjuji4q
p9
I2
sVdf1v5vd
p10
I1
sVdeu06vo
p11
I2
sVd9zs3ur
p12
I1
sVda6arz3
p13
I1
sVde2oyib
p14
I1
sVdjtanyk
p15
I2
sVdjtcp1u
p16
I1
sVdd8b7oh
p17
I1
sVda3ypr7
p18
I1
sVdfztgh7
p19
I1
sVdd7jdop
p20
I1
sVda34hcz
p21
I1
sVdjuoh3a
p22
I1
sVdahkajx
p23
I1
sVdd555ax
p24
I3
sVda3nuzv
p25
I1
sVdhevwj8
p26
I1
sVd7ldmuv
p27
I2
sVdingszo
p28
I2
sVdjtp83e
p29
I1
sVd7kwji6
p30
I2
sVdalvew2
p31
I1
sVde4kq87
p32
I1
sVddg1r6h
p33
I1
sVd2g02uq
p34
I2
sVdjtgnnd
p35
I1
sVdfzw8vq
p36
I1
sVdkk8gar
p37
I1
sVdh9h32k
p38
I3
sVd9vy0fa
p39
I1
sVdiabdwn
p40
I1
sVdnp9wju
p41
I1
sVd8v9jfs
p42
I1
sVdd7jrvi
p43
I2
sVdd60413
p44
I1
sVda7mocl
p45
I1
sVdgry5a1
p46
I1
sVdccg7uu
p47
I1
sVdikbpoi
p48
I4
sVdaek6uz
p49
I1
sVd9qfe8g
p50
I1
sVddqpmte
p51
I1
sVdaitbd0
p52
I1
sVdataj4d
p53
I1
sVddtjux1
p54
I1
sVdfuvhsb
p55
I1
sVdhgarbl
p56
I5
sVdd86q88
p57
I1
sVdiasrmh
p58
I4
sVdajkkcs
p59
I1
sVdcezwgd
p60
I1
sVdhr8qqk
p61
I1
sVd9es6s5
p62
I1
sVdau32lu
p63
I1
sVdia7xwl
p64
I2
sVdmrjz1g
p65
I1
sVd984830
p66
I2
sVdjtfmvc
p67
I6
sVda5o59a
p68
I6
sVd3dvadh
p69
I1
sVdd6yb8n
p70
I2
sVd8vcoze
p71
I5
sVdjt9nt2
p72
I1
sVdjtxfhq
p73
I1
sVdiabijm
p74
I1
sVd6ggis2
p75
I1
sVde07e99
p76
I2
sVddeucpg
p77
I4
sVdattla9
p78
I1
s.