(dp0
Vcyhugv1
p1
I1
s.(dp0
Vcyhugv1
p1
I2
s.(dp0
Vcyi0j0l
p1
I1
sVcyhugv1
p2
I1
s.(dp0
Vcyi1otj
p1
I1
sVcyhugv1
p2
I1
s.(dp0
Vcyhugv1
p1
I1
sVcyi20eu
p2
I1
s.(dp0
Vcyi2g87
p1
I1
sVcyhugv1
p2
I1
s.(dp0
Vcyi37si
p1
I1
sVcyhugv1
p2
I1
s.(dp0
Vcyi6jcj
p1
I1
sVcyhugv1
p2
I1
s.(dp0
Vcyi6zgc
p1
I1
sVcyhugv1
p2
I1
s.(dp0
Vcyhugv1
p1
I1
sVcyi7ncu
p2
I1
s.(dp0
Vcyhugv1
p1
I1
sVcyi7rdb
p2
I1
s.(dp0
Vcyhugv1
p1
I1
sVcyi9oo4
p2
I1
s.(dp0
Vcyhugv1
p1
I1
sVcyi9oo4
p2
I1
s.(dp0
Vcyiaafd
p1
I1
sVcyhugv1
p2
I1
s.(dp0
Vcyiabbm
p1
I1
sVcyhugv1
p2
I1
s.(dp0
Vcyiabbm
p1
I1
sVcyhugv1
p2
I1
s.(dp0
Vcyiabbm
p1
I1
sVcyhugv1
p2
I1
s.(dp0
Vcyiad3d
p1
I1
sVcyhugv1
p2
I1
s.(dp0
Vcyibddw
p1
I1
sVcyhugv1
p2
I1
s.(dp0
Vcyhugv1
p1
I1
sVcyidu39
p2
I1
s.(dp0
Vcyiekhe
p1
I1
sVcyhugv1
p2
I1
s.(dp0
Vcyhugv1
p1
I1
sVcyif4ri
p2
I1
s.(dp0
Vcyigiuj
p1
I1
sVcyhugv1
p2
I1
s.(dp0
Vcyijykr
p1
I1
sVcyhugv1
p2
I1
s.(dp0
Vcyhugv1
p1
I1
sVcyiltll
p2
I1
s.(dp0
Vcyim32d
p1
I1
sVcyhugv1
p2
I1
s.(dp0
Vcyimid9
p1
I1
sVcyhugv1
p2
I1
s.(dp0
Vcyince0
p1
I1
sVcyhugv1
p2
I1
s.(dp0
Vcyindf0
p1
I1
sVcyhugv1
p2
I1
s.(dp0
Vcyhugv1
p1
I1
sVcyiphx8
p2
I1
s.(dp0
Vcyiutnb
p1
I1
sVcyhugv1
p2
I1
s.(dp0
Vcyhugv1
p1
I1
sVcyiw680
p2
I1
s.(dp0
Vcyhugv1
p1
I1
sVcyiw680
p2
I1
s.(dp0
Vcyix6k4
p1
I1
sVcyhugv1
p2
I1
s.(dp0
Vcyix9zp
p1
I1
sVcyhugv1
p2
I1
s.(dp0
Vcyiyowq
p1
I1
sVcyhugv1
p2
I1
s.(dp0
Vcyizpl8
p1
I1
sVcyhugv1
p2
I1
s.(dp0
Vcyhugv1
p1
I1
sVcyj0ast
p2
I1
s.(dp0
Vcyj23k6
p1
I1
sVcyhugv1
p2
I1
s.(dp0
Vcyj8f9h
p1
I1
sVcyhugv1
p2
I1
s.(dp0
Vcyhugv1
p1
I1
sVcyj8yzc
p2
I1
s.(dp0
Vcyj938r
p1
I1
sVcyhugv1
p2
I1
s.(dp0
Vcyhugv1
p1
I1
sVcyj9p9p
p2
I1
s.(dp0
Vcyhugv1
p1
I1
sVcyjcyuu
p2
I1
s.(dp0
Vcyjczd7
p1
I1
sVcyhugv1
p2
I1
s.(dp0
Vcyjec2i
p1
I1
sVcyhugv1
p2
I1
s.(dp0
Vcyhugv1
p1
I1
sVcyjfhha
p2
I1
s.(dp0
Vcyhugv1
p1
I1
sVcyjfkxc
p2
I1
s.(dp0
Vcyjg4vf
p1
I1
sVcyhugv1
p2
I1
s.(dp0
Vcyjh4es
p1
I1
sVcyhugv1
p2
I1
s.(dp0
Vcyhugv1
p1
I1
sVcyjhfhn
p2
I1
s.(dp0
Vcyjhpng
p1
I1
sVcyhugv1
p2
I1
s.(dp0
Vcyhugv1
p1
I1
sVcyjhv6t
p2
I1
s.(dp0
Vcyji820
p1
I1
sVcyhugv1
p2
I1
s.(dp0
Vcyjj0vk
p1
I1
sVcyhugv1
p2
I1
s.(dp0
Vcyhugv1
p1
I1
sVcyjj1na
p2
I1
s.(dp0
Vcyjja7d
p1
I1
sVcyhugv1
p2
I1
s.(dp0
Vcyjjyk0
p1
I1
sVcyhugv1
p2
I1
s.(dp0
Vcyjjz88
p1
I1
sVcyhugv1
p2
I1
s.(dp0
Vcyjlx5r
p1
I1
sVcyhugv1
p2
I1
s.(dp0
Vcyhugv1
p1
I1
sVcyjnjna
p2
I1
s.(dp0
Vcyjojzh
p1
I1
sVcyhugv1
p2
I1
s.(dp0
Vcyhugv1
p1
I1
sVcyjomnd
p2
I1
s.(dp0
Vcyjpx9f
p1
I1
sVcyhugv1
p2
I1
s.(dp0
Vcyjr2uj
p1
I1
sVcyhugv1
p2
I1
s.(dp0
Vcyhugv1
p1
I1
sVcyjrhct
p2
I1
s.(dp0
Vcyjrmwr
p1
I1
sVcyhugv1
p2
I1
s.(dp0
Vcyjs4ey
p1
I1
sVcyhugv1
p2
I1
s.(dp0
Vcyhugv1
p1
I1
sVcyjt3ib
p2
I1
s.(dp0
Vcyhugv1
p1
I1
sVcyjv5pm
p2
I1
s.(dp0
Vcyhugv1
p1
I1
sVcyjz49b
p2
I1
s.(dp0
Vcyk0ypa
p1
I1
sVcyhugv1
p2
I1
s.(dp0
Vcyhugv1
p1
I1
sVcyk2dpg
p2
I1
s.(dp0
Vcyhugv1
p1
I1
sVcyk2dpg
p2
I1
s.(dp0
Vcyk49xc
p1
I1
sVcyhugv1
p2
I1
s.(dp0
Vcyhugv1
p1
I1
sVcyk8er9
p2
I1
s.(dp0
Vcyk9gwk
p1
I1
sVcyhugv1
p2
I1
s.(dp0
Vcyka0c2
p1
I1
sVcyhugv1
p2
I1
s.(dp0
Vcyhugv1
p1
I1
sVcykaw9m
p2
I1
s.(dp0
Vcykbm4w
p1
I1
sVcyhugv1
p2
I1
s.(dp0
Vcyhugv1
p1
I1
sVcykcear
p2
I1
s.(dp0
Vcykdaw3
p1
I1
sVcyhugv1
p2
I1
s.(dp0
Vcykdaw3
p1
I1
sVcyhugv1
p2
I1
s.(dp0
Vcykduwu
p1
I1
sVcyhugv1
p2
I1
s.(dp0
Vcykduwu
p1
I1
sVcyhugv1
p2
I1
s.(dp0
Vcykdy7p
p1
I1
sVcyhugv1
p2
I1
s.(dp0
Vcykebmy
p1
I1
sVcyhugv1
p2
I1
s.(dp0
Vcykebmy
p1
I1
sVcyhugv1
p2
I1
s.(dp0
Vcykf74b
p1
I1
sVcyhugv1
p2
I1
s.(dp0
Vcykf74b
p1
I1
sVcyhugv1
p2
I1
s.(dp0
Vcykh7oe
p1
I1
sVcyhugv1
p2
I1
s.(dp0
Vcyhugv1
p1
I1
sVcykhwyw
p2
I1
s.(dp0
Vcykicog
p1
I1
sVcyhugv1
p2
I1
s.(dp0
Vcyhugv1
p1
I1
sVcykis7h
p2
I1
s.(dp0
Vcyhugv1
p1
I1
sVcykj6vc
p2
I1
s.(dp0
Vcyhugv1
p1
I1
sVcykjdw8
p2
I1
s.(dp0
Vcyhugv1
p1
I1
sVcykjs2n
p2
I1
s.(dp0
Vcyhugv1
p1
I1
sVcykl8a6
p2
I1
s.(dp0
Vcyknaoo
p1
I1
sVcyhugv1
p2
I1
s.(dp0
Vcyknmdo
p1
I1
sVcyhugv1
p2
I1
s.(dp0
Vcyhugv1
p1
I1
sVcyko3gd
p2
I1
s.(dp0
Vcykqr70
p1
I1
sVcyhugv1
p2
I1
s.(dp0
Vcyhugv1
p1
I1
sVcykqsqz
p2
I1
s.(dp0
Vcyhugv1
p1
I1
sVcykrowo
p2
I1
s.(dp0
Vcykrq78
p1
I1
sVcyhugv1
p2
I1
s.(dp0
Vcyhugv1
p1
I1
sVcyktywf
p2
I1
s.(dp0
Vcyku3d0
p1
I1
sVcyhugv1
p2
I1
s.(dp0
Vcykulb3
p1
I1
sVcyhugv1
p2
I1
s.(dp0
Vcyhugv1
p1
I1
sVcy(dp0
Vcyhugv1
p1
I1
sVdtjmlgh
p2
I1
s.