(dp0
Vd05vdnx
p1
I1
sVd2kdeiw
p2
I1
sVd543yzh
p3
I1
sVcz8exor
p4
I1
sVd07d2l9
p5
I1
sVd8zcpa7
p6
I1
sVcylpsc4
p7
I1
sVdh9c1ep
p8
I1
sVczdm6jj
p9
I1
sVd0xvhip
p10
I1
sVczm6yct
p11
I1
sVd5ahvgd
p12
I1
sVd8clo93
p13
I1
sVd7k5utf
p14
I1
sVczuq3i9
p15
I1
sVddwmr0o
p16
I1
sVd3hhpjd
p17
I1
sVddbfnp8
p18
I1
s.