(dp0
Vczepfvv
p1
I1
s.(dp0
Vczepfvv
p1
I1
sVd69ibuc
p2
I1
s.(dp0
Vczepfvv
p1
I1
sVd7hi5h2
p2
I1
s.(dp0
Vczepfvv
p1
I1
sVdb30lxc
p2
I1
s.(dp0
Vczepfvv
p1
I1
sVde4pf94
p2
I1
s.(dp0
Vczepfvv
p1
I1
sVdembpkc
p2
I1
s.(dp0
Vczepfvv
p1
I1
sVdevqdt9
p2
I1
s.