(dp0
Vdgaecqx
p1
I1
sVdjj9qn8
p2
I1
sVdmqa7yd
p3
I1
sVd9iq042
p4
I1
sVdmki7y7
p5
I1
sVdjr6f11
p6
I1
sVdcc1hha
p7
I1
sVd25pgnl
p8
I1
sVdfrk3y3
p9
I2
sVd6nrq0m
p10
I1
sVd0jejv9
p11
I1
sVdn2igek
p12
I1
sVdfwwb7e
p13
I1
sVd2o364q
p14
I1
sVd8si8k0
p15
I1
sVd6idtuq
p16
I1
sVdhj4fvc
p17
I1
sVd23s58f
p18
I1
sVdfq6q1q
p19
I1
sVd3r32wm
p20
I1
sVd7dk0q0
p21
I1
sVdeaxyx5
p22
I1
sVczi4wrx
p23
I1
sVd6mdii4
p24
I1
sVdjt1x42
p25
I2
sVd2pypcf
p26
I1
sVd8sy9i3
p27
I1
sVdi8j1lh
p28
I1
sVd7mic8h
p29
I1
sVdp92qll
p30
I1
sVdft3jj8
p31
I1
sVcz3g5fi
p32
I1
sVd1sq9wo
p33
I1
sVddd53ap
p34
I1
sVd125jio
p35
I1
sVcyv7n1z
p36
I1
sVd60rmod
p37
I1
sVda14kw7
p38
I1
sVdetdv13
p39
I1
sVdorg0ol
p40
I1
sVcysjp49
p41
I1
sVd12d2wk
p42
I1
sVdkdxhiv
p43
I1
sVdke5t95
p44
I1
sVdhrlj8p
p45
I1
sVd0nllnz
p46
I1
sVdizox69
p47
I1
sVdgawg17
p48
I1
sVcystzhp
p49
I1
sVddle23p
p50
I1
sVdc5z0xp
p51
I1
sVdi6ktna
p52
I1
sVd2xo1wi
p53
I1
sVd4lzbx3
p54
I1
sVdhv9shg
p55
I1
sVd4l5u91
p56
I1
sVdo53nc4
p57
I1
sVdaz6ftp
p58
I1
sVdfos8q5
p59
I1
sVd1a8lhr
p60
I1
sVd9pv5j5
p61
I1
sVd9f6w3y
p62
I1
sVd01m27l
p63
I1
sVdfrn6lw
p64
I1
sVd4mhtff
p65
I1
sVd12nemj
p66
I1
sVdboz5cc
p67
I1
sVd1pb9a1
p68
I1
sVdpq1bbi
p69
I1
sVd2ks2c2
p70
I1
sVdj4jlwn
p71
I1
sVd65uyvj
p72
I1
sVd3uyqnw
p73
I1
sVdmrftvy
p74
I1
sVdqlq2zp
p75
I1
sVdeug0gz
p76
I1
sVd0iv0hp
p77
I1
sVdeuus5s
p78
I1
sVdb5x3fe
p79
I1
sVd6tlfbv
p80
I1
sVd2v2d1l
p81
I1
sVd4jug3u
p82
I1
sVd691asd
p83
I1
sVdj2wt4c
p84
I1
sVd1v9r8z
p85
I1
sVdkakc8c
p86
I1
sVdov2d8u
p87
I1
sVd18xiug
p88
I1
sVd1etjyw
p89
I1
sVd8yseid
p90
I1
sVdoxa0zi
p91
I1
sVdnnutau
p92
I1
sVdff1kc0
p93
I1
sVd0zavq7
p94
I1
sVdbry8im
p95
I1
sVddbed69
p96
I1
sVd5ikj5n
p97
I1
sVd3pgqnw
p98
I2
sVd38jwhh
p99
I1
sVd0h00jh
p100
I1
sVd883fho
p101
I2
sVdfpunpe
p102
I3
sVd17azrr
p103
I1
sVdj7qx72
p104
I1
sVdgdrl71
p105
I1
sVdgoelgw
p106
I1
sVd165x4j
p107
I1
sVd121ndi
p108
I1
sVd4n1czm
p109
I1
sVdk41kbl
p110
I1
sVd6emdfl
p111
I1
sVd6l6wfe
p112
I1
sVd1ftbwm
p113
I1
sVdqgczi9
p114
I1
sVdgplx5v
p115
I1
sVd6ct7kc
p116
I1
sVd01zzud
p117
I1
sVd8502ok
p118
I1
sVdqgcjo2
p119
I1
sVd8nckia
p120
I1
sVd9wr9vt
p121
I1
sVd8pczi4
p122
I1
sVdmfofhi
p123
I1
sVdcmn4g3
p124
I1
sVd59jryh
p125
I1
sVczpjsa6
p126
I1
sVd6crfb5
p127
I1
sVdt0edfp
p128
I1
sVd1qkkwy
p129
I1
sVdgetnrf
p130
I1
sVd4i1p46
p131
I1
sVd37a2vr
p132
I1
sVczlqj8i
p133
I1
sVd0ojq26
p134
I1
sVdeqcwt3
p135
I1
sVczzj7zl
p136
I1
sVd4929nu
p137
I1
sVdr37746
p138
I1
sVcykfs4r
p139
I1
sVdj2q4ol
p140
I1
sVd12xq1a
p141
I1
sVds6zmg8
p142
I1
sVdalt67l
p143
I1
sVdq6g44c
p144
I1
sVd7x5a8y
p145
I1
sVd1skl3w
p146
I1
sVddwf0uu
p147
I1
sVdet8twf
p148
I1
sVd9lupnw
p149
I1
sVcz8rxgr
p150
I1
sVd7l0fd8
p151
I1
sVdjsluqb
p152
I1
sVdhysfiz
p153
I1
sVczt7f5v
p154
I1
sVd6zbg6r
p155
I1
sVd5drdqq
p156
I1
sVczoom29
p157
I1
sVczvnzw6
p158
I1
sVddcq7ak
p159
I1
sVd315iq2
p160
I1
sVcymvzri
p161
I1
sVd5nn6gi
p162
I1
sVdd7bdtg
p163
I1
sVd36dtnt
p164
I1
sVdam087u
p165
I1
sVcynpx23
p166
I1
sVdmf5zvc
p167
I1
sVddnzda5
p168
I1
sVdan1yg2
p169
I1
sVdqco23t
p170
I1
sVdssgozg
p171
I1
sVczikqiv
p172
I1
sVczmcup2
p173
I1
sVd3udqx8
p174
I1
sVd6qt0or
p175
I1
sVdjk6bei
p176
I1
sVdkodl6d
p177
I1
sVczbn178
p178
I1
sVdrv5d5d
p179
I1
sVcyr0quu
p180
I1
sVd7vwmu9
p181
I1
sVdokxzcj
p182
I1
sVdexsqa6
p183
I1
sVdjzm7hz
p184
I1
sVdb06xic
p185
I1
sVdb9xgy2
p186
I1
sVd4di2wt
p187
I2
sVdobqe99
p188
I1
sVdcuf4ky
p189
I1
sVddkn5cl
p190
I1
sVd44t1li
p191
I1
sVd586o5k
p192
I1
sVd01wr02
p193
I1
sVczxvkk8
p194
I1
sVdga9q7s
p195
I1
sVd0iljhk
p196
I1
sVd55xr1i
p197
I1
sVdasog6h
p198
I1
sVdf7pf88
p199
I1
sVdsexlej
p200
I1
sVd1y3s26
p201
I1
sVdemh58o
p202
I1
sVd5hf6ih
p203
I2
sVdmr1gft
p204
I1
sVdg3tuxz
p205
I1
sVd5v7eh3
p206
I1
sVd9k581m
p207
I1
sVd2bq47z
p208
I1
sVd0rkljr
p209
I1
sVd1kwhfa
p210
I1
sVdeq4cq9
p211
I1
sVdab15vy
p212
I1
sVdn2nqjf
p213
I1
sVdin3asz
p214
I1
sVcz7hlrc
p215
I1
sVdephrlc
p216
I1
sVd5lfyzk
p217
I1
sVdbxwpcd
p218
I1
sVd3r1ykv
p219
I1
sVd20ny97
p220
I1
sVd4xlt9u
p221
I1
sVczseitm
p222
I1
sVd8oxyrs
p223
I1
sVdq0yusf
p224
I3
sVcyz0be9
p225
I1
sVd3q6elh
p226
I1
sVd7ab18h
p227
I1
sVd8anqeu
p228
I1
sVczpp7zw
p229
I1
sVd3fe1py
p230
I1
sVdbzp294
p231
I1
sVdcma80d
p232
I1
sVd97cy9c
p233
I1
sVdkwdwrh
p234
I1
sVd5o8s9i
p235
I1
sVdgiydt3
p236
I1
sVdila3c9
p237
I1
sVd2n3rmm
p238
I1
sVd3t7yha
p239
I1
sVd64xmhv
p240
I1
sVdamfchy
p241
I2
sVczwm33m
p242
I1
sVd9x7uq3
p243
I1
sVd4oo6b7
p244
I1
sVddxze2n
p245
I1
sVddpql08
p246
I1
sVd4ky5ls
p247
I1
sVcyr7ua4
p248
I1
sVdgs3nvt
p249
I1
sVdrjzldc
p250
I1
sVd99x83s
p251
I1
sVdirejn1
p252
I1
sVd0rb1y5
p253
I1
sVdgng8kn
p254
I1
sVdfrl17j
p255
I1
sVdhz7us0
p256
I1
sVdn1k9dj
p257
I1
sVdn304rr
p258
I1
sVd48e1rn
p259
I1
sVdnf376r
p260
I1
sVdfcx69u
p261
I1
sVczonkig
p262
I1
sVd3o3s4h
p263
I1
sVdqf2eh8
p264
I1
sVd4v8z9v
p265
I1
sVddjs3l8
p266
I1
sVd25777o
p267
I1
sVd7fohan
p268
I1
sVd8doz64
p269
I1
sVdc9nint
p270
I1
sVdd1jhzk
p271
I1
sVda6wdg4
p272
I1
sVd5ynefv
p273
I1
sVdr6jwuw
p274
I1
sVd3yezia
p275
I1
sVdksm191
p276
I1
sVd4i3s2z
p277
I1
sVdenqgzk
p278
I1
sVdhgo524
p279
I1
sVd06q9o3
p280
I1
sVdd6h1vx
p281
I1
sVdk7vyh6
p282
I1
sVdbuy1ya
p283
I1
sVdkvhj8v
p284
I1
sVdftdj5q
p285
I1
sVd3cdnel
p286
I1
sVdjd7gvv
p287
I1
sVd7kl9rg
p288
I1
sVd5fcfhw
p289
I1
sVdeso5up
p290
I1
sVdam8qc6
p291
I1
sVdo3627v
p292
I1
sVddbxi3w
p293
I1
sVd4i8lvl
p294
I1
sVdgu65u1
p295
I1
sVdgvxa1p
p296
I1
sVdpfsr8e
p297
I1
sVdien02o
p298
I1
sVdi8o2h8
p299
I2
sVczq7sto
p300
I1
sVdngrzzb
p301
I1
sVd0cauyv
p302
I1
sVd3p212f
p303
I1
sVd22qeik
p304
I1
sVd3blu06
p305
I1
sVd4e6f7g
p306
I1
sVczjza6v
p307
I1
sVd7bcvk2
p308
I1
sVdpzn1li
p309
I1
sVdh8zydo
p310
I1
sVd6am6px
p311
I1
sVd1hgh26
p312
I1
sVd05e555
p313
I1
sVd2hsxj2
p314
I1
sVcytdnn8
p315
I1
sVdaypzza
p316
I1
sVdf72pf7
p317
I1
sVd5zi27h
p318
I1
sVdayo8a7
p319
I1
sVdecdotw
p320
I1
sVd53gusd
p321
I1
sVdhhqz08
p322
I1
sVd8dk0o7
p323
I1
sVdnnkzys
p324
I1
sVd0eji4t
p325
I1
sVdgrzukr
p326
I1
sVd4hwqhh
p327
I1
sVdmv5kbe
p328
I1
sVd6c1sr3
p329
I1
sVd3lbik6
p330
I1
sVczpi7mh
p331
I1
sVd09kudj
p332
I1
sVdggok1b
p333
I1
sVd2tndce
p334
I1
sVd60okry
p335
I1
sVczkvqp8
p336
I1
sVd7a563x
p337
I1
sVdihhui3
p338
I1
sVd7g2sda
p339
I1
sVdrzutgw
p340
I1
sVdf4jiw8
p341
I1
sVdfgk9bn
p342
I1
sVd9ime0e
p343
I1
sVd6r21vd
p344
I1
sVd7s2x3z
p345
I1
sVdc5mlo9
p346
I1
sVd7rm7b1
p347
I3
sVdf6g003
p348
I1
sVcyt7m66
p349
I1
sVdes553n
p350
I1
sVdiedhuz
p351
I1
sVdecrt7z
p352
I1
sVdgqx5wo
p353
I1
sVd5ycx3i
p354
I1
sVdidx0ti
p355
I1
sVdsgspgs
p356
I1
sVdkkad7f
p357
I1
sVcza3qe6
p358
I1
sVdb1fg61
p359
I1
sVd2v4pi4
p360
I1
sVdexigh9
p361
I1
sVdkf40jm
p362
I1
sVd5odi81
p363
I1
sVdgurjud
p364
I1
sVddy40pw
p365
I1
sVdchb2eh
p366
I1
sVdfwvnr6
p367
I1
sVdhqseia
p368
I1
sVd1gcppq
p369
I1
sVdrcchit
p370
I1
sVdk4q0wr
p371
I1
sVdnei89j
p372
I1
sVdfbo7wh
p373
I1
sVdspjp81
p374
I1
sVdfdrm4y
p375
I2
sVdqem1qr
p376
I1
sVdddt2fz
p377
I1
sVdolzyce
p378
I1
sVd21icef
p379
I1
sVd1b0wn9
p380
I1
sVd6xo4td
p381
I2
sVdcki6iz
p382
I1
sVd0h9khh
p383
I1
sVd0nc21a
p384
I1
sVczbyhab
p385
I1
sVd7kyo3w
p386
I1
sVdglbnpb
p387
I1
sVdihau6o
p388
I1
sVdgx8a3d
p389
I1
sVdon4ap1
p390
I1
sVdt7etoa
p391
I1
sVd2zknnw
p392
I1
sVd2hibrt
p393
I1
sVdc1ybl1
p394
I1
sVdgy2u1e
p395
I1
sVdde0paj
p396
I1
sVd2r15t1
p397
I1
sVdh0x2j2
p398
I1
sVd6k3gok
p399
I1
sVdcml4ke
p400
I1
sVd2djirx
p401
I1
sVdkf2j70
p402
I1
sVd2z6x6k
p403
I1
sVddvathx
p404
I1
sVdp5rq41
p405
I1
sVd2iwjzj
p406
I1
sVdgljwge
p407
I2
sVd3rcqrs
p408
I1
sVd8dtgde
p409
I1
sVd2pgbyy
p410
I1
sVde4p4zg
p411
I1
sVd133ezy
p412
I1
sVdeikq2m
p413
I1
sVda3ambo
p414
I1
sVd9gs9gw
p415
I1
sVd1c93qg
p416
I1
sVdcw0wwe
p417
I1
sVczk9hy1
p418
I1
sVdhgarbl
p419
I1
sVdfe3mgi
p420
I1
sVd0ft59c
p421
I1
sVdfgb305
p422
I1
sVd2a9num
p423
I1
sVd8qypeb
p424
I1
sVdaz8hv9
p425
I1
sVdokyd13
p426
I1
sVdaqhsw3
p427
I1
sVcz6j2xe
p428
I1
sVdckz8en
p429
I1
sVd511v30
p430
I1
sVcz1t6j8
p431
I1
sVdqnr9wl
p432
I1
sVdrw2w5o
p433
I1
sVczm8xk0
p434
I1
sVd2v41hr
p435
I1
sVd7vch00
p436
I1
sVdidauxr
p437
I1
sVd3kbfm9
p438
I1
sVdfh0nx3
p439
I1
sVdf81cb6
p440
I1
sVdon5bdj
p441
I1
sVd5sz096
p442
I1
sVd070jg7
p443
I1
s.