(dp0
Vdp8j2yt
p1
I1
sVdmpd65f
p2
I1
sVd62noof
p3
I2
sVd9yb223
p4
I1
sVd586kzs
p5
I1
sVd9600e2
p6
I1
sVdhjie40
p7
I1
sVd3e95p1
p8
I1
sVdgt9sw8
p9
I1
sVdr1wfdg
p10
I1
sVd71o5vf
p11
I1
sVd7k3g4w
p12
I1
sVdbljx3n
p13
I1
sVdbz8ip5
p14
I1
sVdiqpkqi
p15
I1
sVdbeptnu
p16
I1
sVdesqf18
p17
I1
sVdeyzzyp
p18
I1
sVdhhxnhl
p19
I1
sVd8th6qz
p20
I1
sVds5qcj7
p21
I1
sVdauc4b5
p22
I1
sVd028qij
p23
I1
sVd15i0q7
p24
I1
sVdancw59
p25
I1
sVd8hgf69
p26
I1
sVdh0i39k
p27
I2
sVd8z8dql
p28
I1
sVd1vvfj3
p29
I1
sVdd3pk9n
p30
I2
sVd0wrxjo
p31
I1
sVdgsgrof
p32
I1
sVdfg1ppy
p33
I1
sVdhdyues
p34
I1
sVdqxk8jx
p35
I1
sVdf4jn16
p36
I1
sVcztmfhb
p37
I1
sVda1qsez
p38
I3
sVd4ivujv
p39
I1
sVdpq7cnd
p40
I1
sVdqgel1l
p41
I2
sVd9gtiz6
p42
I2
sVd71kh6z
p43
I1
sVdrdotp1
p44
I1
sVd48s0t9
p45
I1
sVd86t5u0
p46
I1
sVddoaz69
p47
I1
sVdh0p2o6
p48
I1
sVdifuxb4
p49
I1
sVd4je2af
p50
I1
sVdfs73fy
p51
I1
sVdds6bcs
p52
I1
sVdeex5ev
p53
I1
sVd4senp1
p54
I1
sVd1fjl8f
p55
I1
sVdpl5xj1
p56
I1
sVdgejbrj
p57
I1
sVd0d5lz2
p58
I1
sVd0pda3b
p59
I1
sVdnmajq0
p60
I1
sVdd4mco0
p61
I1
sVdp9top2
p62
I1
sVd330160
p63
I1
sVd5isbq3
p64
I1
sVcyjsi9f
p65
I1
sVdbdd4gz
p66
I1
sVddajarp
p67
I1
sVdj5w3zn
p68
I1
sVdbalgno
p69
I1
sVd4pmdh2
p70
I1
sVd3u2uvr
p71
I2
sVdfqlyhd
p72
I1
sVd6gy4lu
p73
I2
sVd0gerht
p74
I1
sVd7zoz5w
p75
I1
sVdj6pmws
p76
I1
sVdbta0ha
p77
I1
sVd38moae
p78
I1
sVdg1lmur
p79
I1
sVdsfxgsc
p80
I1
sVdiyxplw
p81
I1
sVd26ur8b
p82
I2
sVdgbn41g
p83
I1
sVd8t4yfw
p84
I1
sVd0qe9xl
p85
I1
sVd31oalm
p86
I1
sVdkrytcq
p87
I2
sVdg9ow0t
p88
I1
sVdpynplr
p89
I1
sVde1y6xw
p90
I1
sVdcqkite
p91
I1
sVd5cpcpf
p92
I1
sVdizabg0
p93
I1
sVdpx9d8b
p94
I1
sVdg0z7h2
p95
I1
sVd6h0m5r
p96
I1
sVdt9gh8t
p97
I1
sVd4igk56
p98
I1
sVdcr6y5b
p99
I1
sVd95mp8y
p100
I1
sVd40goi1
p101
I1
sVd98l38j
p102
I1
sVd1xrqq8
p103
I2
sVdj8zlu9
p104
I2
sVdbuc59y
p105
I1
sVdnhgi1s
p106
I1
sVdpo26nx
p107
I1
sVd1h6sf0
p108
I1
sVd8dohsc
p109
I1
sVdeutdrv
p110
I1
sVdiocb9e
p111
I1
sVde3noym
p112
I1
sVd25dan6
p113
I1
sVd596345
p114
I1
sVdnpkjnf
p115
I1
sVdaopgdp
p116
I2
sVd1eqbp8
p117
I1
sVdhch3g8
p118
I1
sVdhxg0f9
p119
I1
sVd9yek53
p120
I1
sVdpk7a3r
p121
I1
sVd1zlm7s
p122
I1
sVd32p1fc
p123
I1
sVcyi735g
p124
I1
sVd1xryjq
p125
I1
sVdoehk59
p126
I1
sVdmow40d
p127
I1
sVdqng95f
p128
I1
sVdj03vlh
p129
I1
sVd0vgeyk
p130
I1
sVdiar3gj
p131
I1
sVd31o56h
p132
I1
sVd9aoh5c
p133
I1
sVdp75ck8
p134
I1
sVdgtea87
p135
I1
sVdc58mq4
p136
I1
sVda56ewj
p137
I1
sVdp3v73z
p138
I1
sVd7fzirg
p139
I1
sVd22n1tl
p140
I1
sVd0ru2ic
p141
I1
sVdnm6vay
p142
I1
sVd0cla8x
p143
I1
sVd0yhmxq
p144
I1
sVczcbasl
p145
I1
sVd8mmtw0
p146
I1
sVd7a1bba
p147
I1
sVd5ipwa5
p148
I1
sVdplzpdh
p149
I1
sVd5na3pc
p150
I1
sVczh8i0d
p151
I1
sVd3pqu09
p152
I1
sVdi9sngq
p153
I1
sVdcatew8
p154
I1
sVcywj37x
p155
I1
sVd9mvmid
p156
I1
sVdmerqru
p157
I1
sVd00r92z
p158
I3
sVd0wn0yj
p159
I1
sVdhoviol
p160
I1
sVdennkjy
p161
I1
sVd7lmq7d
p162
I1
s.