(dp0
Vdok7bjl
p1
I1
sVdflfcwv
p2
I1
sVd8q7ec7
p3
I1
sVd8fbqit
p4
I2
sVd7h3xtb
p5
I1
sVcznsicj
p6
I1
sVdhhxmbz
p7
I1
sVd0fyq55
p8
I1
sVdqjb5zx
p9
I1
sVd6mp1pi
p10
I1
sVdqj1ktn
p11
I1
sVd1d9o72
p12
I2
sVd41m3hz
p13
I1
sVdgriwaf
p14
I1
sVdaz8ioq
p15
I1
s.