(dp0
Vdbtv9xj
p1
I1
sVdroeh6k
p2
I1
sVdatiq9k
p3
I1
sVdfgvd7f
p4
I1
sVczsv0qx
p5
I1
sVdabnkdv
p6
I1
sVdj8srqk
p7
I1
sVdrjuziz
p8
I1
sVdeqokw0
p9
I1
sVddt44xl
p10
I1
sVdgo50o3
p11
I1
sVdi9bhmz
p12
I2
sVczgoo6d
p13
I1
sVd53mfjg
p14
I1
sVd0yd2f6
p15
I2
sVdg5cjo7
p16
I3
sVd0w9kus
p17
I2
sVd2rrb8g
p18
I2
sVdkj411q
p19
I1
sVd0vnokq
p20
I1
sVdbtzej5
p21
I2
sVdj773zx
p22
I3
sVdq0ndl0
p23
I1
sVdo42thl
p24
I1
sVdb54az9
p25
I1
sVdaj2l9b
p26
I1
sVd8bttsm
p27
I1
sVdh6risj
p28
I1
sVdjg9u57
p29
I1
sVdg2zuvl
p30
I1
sVcz5us09
p31
I1
sVdsalkuc
p32
I1
sVdom0m7d
p33
I1
sVdfkaho8
p34
I1
sVdqiykyq
p35
I3
sVdkyg808
p36
I1
sVd6syacv
p37
I1
sVdcusotu
p38
I1
sVczlccyh
p39
I2
sVdjg6lso
p40
I1
sVda7si92
p41
I1
sVdbue9wt
p42
I1
sVdj6xg1r
p43
I1
sVdbfz3hx
p44
I1
sVd7sxukr
p45
I12
sVdom9p8p
p46
I1
sVdsxdif1
p47
I1
sVdkgu6vy
p48
I2
sVdjrcn7v
p49
I1
sVdbutlia
p50
I2
sVddk3887
p51
I1
sVdh5vze1
p52
I1
sVdbwr5jz
p53
I1
sVds138w9
p54
I2
sVdql1wcm
p55
I1
sVd2ko6qw
p56
I1
sVdmf2dkd
p57
I1
sVd8yq7ro
p58
I2
sVdkxl9gp
p59
I1
sVdg10ooz
p60
I1
sVde92anp
p61
I1
sVd63uvh2
p62
I1
sVdbd08i9
p63
I1
sVd05r084
p64
I2
sVdbv93mu
p65
I2
sVdk65bb8
p66
I1
sVdbtvojc
p67
I1
sVdsaldej
p68
I1
sVd5r0kjb
p69
I1
sVdbtwahn
p70
I3
sVdko0ubf
p71
I1
sVd28pqrw
p72
I1
sVd70k26m
p73
I1
sVd0629mr
p74
I1
sVdjfydik
p75
I1
sVdhv9shg
p76
I2
sVd6u99ki
p77
I1
sVdbbjifa
p78
I1
sVd5oqi8y
p79
I3
sVdo9vpth
p80
I1
sVd25ibnq
p81
I2
sVdbu25nj
p82
I2
sVd05mxn3
p83
I2
sVd3pxxdx
p84
I1
sVd53iaoc
p85
I1
s.