(dp0
Vd1qoq5q
p1
I1
s.(dp0
Vd1qoq5q
p1
I1
sVd6gol9z
p2
I1
s.(dp0
Vd1qoq5q
p1
I1
sVdclwywq
p2
I1
s.(dp0
Vd1qoq5q
p1
I1
sVdclwywq
p2
I1
s.(dp0
Vddwhvt9
p1
I1
sVd1qoq5q
p2
I1
s.(dp0
Vdg6e2fv
p1
I1
sVd1qoq5q
p2
I1
s.(dp0
Vd1qoq5q
p1
I1
sVdj06g4b
p2
I1
s.(dp0
Vd1qoq5q
p1
I1
sVdjc2new
p2
I1
s.(dp0
Vdqjfxww
p1
I1
sVd1qoq5q
p2
I1
s.(dp0
Vdrs8zpg
p1
I1
sVd1qoq5q
p2
I1
s.(dp0
Vds1ywi6
p1
I1
sVd1qoq5q
p2
I1
s.