(dp0
Vcyj6gxj
p1
I1
s.(dp0
Vcyj6gxj
p1
I1
sVczoaejs
p2
I1
s.(dp0
Vcyj6gxj
p1
I1
sVczoaejs
p2
I1
s.(dp0
Vcyj6gxj
p1
I1
sVczopqb0
p2
I1
s.(dp0
Vcyj6gxj
p1
I1
sVd034tof
p2
I1
s.(dp0
Vd0ljivv
p1
I1
sVcyj6gxj
p2
I1
s.(dp0
Vd0ljivv
p1
I1
sVcyj6gxj
p2
I1
s.(dp0
Vd0ljivv
p1
I1
sVcyj6gxj
p2
I1
s.(dp0
Vcyj6gxj
p1
I1
sVd10ruje
p2
I1
s.(dp0
Vcyj6gxj
p1
I1
sVd16xe4j
p2
I1
s.(dp0
Vcyj6gxj
p1
I1
sVd1706zx
p2
I1
s.(dp0
Vcyj6gxj
p1
I1
sVd1706zx
p2
I1
s.(dp0
Vd172f1d
p1
I1
sVcyj6gxj
p2
I1
s.(dp0
Vd172f1d
p1
I1
sVcyj6gxj
p2
I1
s.(dp0
Vcyj6gxj
p1
I1
sVd1ph6qd
p2
I1
s.(dp0
Vcyj6gxj
p1
I1
sVd2eiear
p2
I1
s.(dp0
Vcyj6gxj
p1
I1
sVd38l6vs
p2
I1
s.(dp0
Vcyj6gxj
p1
I1
sVd48b7pp
p2
I1
s.(dp0
Vcyj6gxj
p1
I1
sVd48b7pp
p2
I1
s.(dp0
Vcyj6gxj
p1
I1
sVd48iolb
p2
I1
s.(dp0
Vd58f12d
p1
I1
sVcyj6gxj
p2
I1
s.(dp0
Vd58f12d
p1
I1
sVcyj6gxj
p2
I1
s.(dp0
Vcyj6gxj
p1
I1
sVd5cwmmj
p2
I1
s.(dp0
Vcyj6gxj
p1
I1
sVd5fzfy6
p2
I1
s.(dp0
Vcyj6gxj
p1
I1
sVd5fzfy6
p2
I1
s.(dp0
Vdazpq68
p1
I1
sVcyj6gxj
p2
I1
s.(dp0
Vcyj6gxj
p1
I1
sVdc54go8
p2
I1
s.(dp0
Vdch9s8v
p1
I1
sVcyj6gxj
p2
I1
s.(dp0
Vdctnmhe
p1
I1
sVcyj6gxj
p2
I1
s.(dp0
Vdctnykl
p1
I1
sVcyj6gxj
p2
I1
s.(dp0
Vcyj6gxj
p1
I1
sVdcy86s5
p2
I1
s.(dp0
Vcyj6gxj
p1
I1
sVdd09j6m
p2
I1
s.(dp0
Vdd0a7tg
p1
I1
sVcyj6gxj
p2
I1
s.(dp0
Vcyj6gxj
p1
I1
sVdd8f5gt
p2
I1
s.(dp0
Vcyj6gxj
p1
I1
sVdd8lebz
p2
I1
s.(dp0
Vcyj6gxj
p1
I1
sVdd8w54a
p2
I1
s.(dp0
Vdeb3ghq
p1
I1
sVcyj6gxj
p2
I1
s.(dp0
Vdeb3ghq
p1
I1
sVcyj6gxj
p2
I1
s.(dp0
Vcyj6gxj
p1
I1
sVdgfscxh
p2
I1
s.(dp0
Vcyj6gxj
p1
I1
sVdh75q7y
p2
I1
s.(dp0
Vcyj6gxj
p1
I1
sVdj1snnp
p2
I1
s.(dp0
Vcyj6gxj
p1
I1
sVdjwl2p2
p2
I1
s.(dp0
Vcyj6gxj
p1
I1
sVdkk5r20
p2
I1
s.(dp0
Vcyj6gxj
p1
I1
sVdkk8gar
p2
I1
s.(dp0
Vcyj6gxj
p1
I1
sVdn2fxz5
p2
I1
s.