(dp0
Vd1z2un5
p1
I1
sVd27i44i
p2
I1
sVd3fz82i
p3
I1
sVdfcup32
p4
I1
sVdkrruhr
p5
I1
sVd2jjym7
p6
I3
sVdcc8j5o
p7
I1
sVdhrghvj
p8
I1
sVd00i5bm
p9
I1
sVd0f6x39
p10
I1
sVdmnb7v1
p11
I1
sVddc10rp
p12
I3
sVdg8oq0z
p13
I1
sVd47aigd
p14
I1
sVd38xcca
p15
I2
sVczxenb2
p16
I2
sVd0f6wld
p17
I1
sVds8rb9o
p18
I1
sVd5bmu5j
p19
I1
sVdfg7jw1
p20
I3
sVd4h3pmz
p21
I1
sVd34qxt7
p22
I1
sVd1202y8
p23
I1
sVd9i6r84
p24
I1
sVdi6awf6
p25
I1
sVd22y0ra
p26
I2
sVd38tjot
p27
I1
sVd03mar6
p28
I1
sVd32udxx
p29
I1
sVd4q1xgd
p30
I1
sVd230qty
p31
I1
sVd87eghy
p32
I1
sVd51ud8z
p33
I1
sVd94hwuf
p34
I1
sVd8c0dfo
p35
I3
sVd94au25
p36
I1
sVd7cy4j2
p37
I2
sVd38ihqb
p38
I1
sVd00h92y
p39
I1
sVd2kk8vo
p40
I1
sVd94kgns
p41
I1
sVdnpb81r
p42
I2
sVdt7x20m
p43
I1
sVd51uakv
p44
I1
sVdkfgran
p45
I1
sVczga1zj
p46
I1
sVdbffvmu
p47
I2
sVddf6q3j
p48
I2
sVddr7nme
p49
I1
sVdeq15wv
p50
I1
sVdbdeloa
p51
I1
sVd930jxf
p52
I1
sVdpmtqlo
p53
I2
sVcyrkdbw
p54
I1
sVdqa2pb3
p55
I1
sVd9l5st7
p56
I2
sVd51i19l
p57
I1
sVd38xh1k
p58
I1
sVdrqld4n
p59
I1
sVd8w4fop
p60
I1
sVd7vjl77
p61
I1
sVdkudzmt
p62
I1
sVd62qwcy
p63
I1
sVdc6v3fx
p64
I1
sVd01crmo
p65
I1
sVcyrtafh
p66
I1
sVdc5tprl
p67
I1
sVde3jdsm
p68
I1
sVdju4xua
p69
I1
sVddc17lw
p70
I1
sVcyrkgfy
p71
I1
sVd6rfz3o
p72
I1
sVd2uim2e
p73
I1
sVd22xhrk
p74
I1
sVd02kxr5
p75
I1
sVdmr59v6
p76
I1
sVdgs5ppg
p77
I1
sVdkwsq53
p78
I1
sVd6c9ic1
p79
I2
sVdgjf7e5
p80
I1
sVd3um4xs
p81
I1
s.