(dp0
Vd6vyn2j
p1
I1
sVcykprau
p2
I1
sVd4oajyq
p3
I1
sVd4gi55v
p4
I1
sVd883i7w
p5
I1
sVdgf25d9
p6
I1
sVd6davwv
p7
I1
sVd018t15
p8
I1
sVd2tozvr
p9
I1
sVdibnb37
p10
I1
sVd8z5lo1
p11
I1
sVdd4ze4g
p12
I1
sVd796nrc
p13
I3
sVd4ny3i9
p14
I5
sVdky6nut
p15
I1
sVd5r4b59
p16
I2
sVdkgx15b
p17
I1
sVcz9tton
p18
I1
sVd0lbwsq
p19
I2
sVcykp3ic
p20
I1
sVd52kbfw
p21
I1
sVd1co8ut
p22
I1
sVdpnazwb
p23
I1
sVdc2d9u6
p24
I1
sVdfekiv4
p25
I1
sVdsi8lpi
p26
I1
sVd79k18d
p27
I1
sVd2bp9ea
p28
I1
sVdh1xmu9
p29
I1
sVdg9zrx7
p30
I1
sVd3knzf9
p31
I1
sVcz9sxrx
p32
I1
sVdsibtgp
p33
I1
sVd79edsb
p34
I3
sVd6234ds
p35
I3
sVdgw1nb1
p36
I1
sVd2tm4nl
p37
I1
sVd6z1xbt
p38
I1
sVdmjqegj
p39
I1
sVdrxau1g
p40
I1
sVd3vtk7r
p41
I1
sVdd1yji5
p42
I1
sVd798uya
p43
I1
sVd8qwydo
p44
I1
s.