(dp0
Vdbjd7n8
p1
I1
sVdgtbrwd
p2
I1
sVdp2lmoa
p3
I2
sVd276ck0
p4
I1
sVdfd1qyw
p5
I1
sVdf10h6j
p6
I1
sVczd94jx
p7
I1
sVd5i0trg
p8
I1
sVczcnw8a
p9
I1
sVdb3shfm
p10
I1
sVdorz3gp
p11
I2
sVd02psyn
p12
I1
sVd8eofhy
p13
I1
sVdbgzc9u
p14
I1
sVdg2czx4
p15
I2
sVd7zj5rh
p16
I1
sVd3xl4k5
p17
I1
sVd60zcnz
p18
I1
sVddmx9m6
p19
I1
sVd1apw0r
p20
I1
sVdn8zy5m
p21
I1
sVdouiva0
p22
I1
sVdblvnj1
p23
I1
sVdqoqhgr
p24
I1
sVd7n9j1x
p25
I1
sVd2oh4ng
p26
I1
sVdbgp7fl
p27
I1
sVdhqnehg
p28
I1
sVdepon40
p29
I1
sVdgu76y7
p30
I1
sVcyorl22
p31
I1
sVd5ryswh
p32
I1
sVdbeo7tz
p33
I2
sVdbqua5x
p34
I1
sVdcmm7he
p35
I1
sVdogeac9
p36
I1
sVds0o1xb
p37
I1
sVd3iul8a
p38
I1
sVdmi1air
p39
I1
sVddrs2tr
p40
I1
sVcymrd3g
p41
I2
sVdcezjzd
p42
I1
sVdbgvdoa
p43
I1
sVd1j0a9t
p44
I1
sVdogbah3
p45
I2
sVdorvxw6
p46
I1
sVd8pgj2t
p47
I1
sVdognnjx
p48
I4
sVdmh3uyc
p49
I1
sVdsfvbyu
p50
I1
sVdbgz8ck
p51
I1
sVd075rjh
p52
I1
sVcz9fa16
p53
I2
sVdh0zubb
p54
I1
sVd7nx6w8
p55
I1
sVdo7ttb0
p56
I1
sVd2jpnt0
p57
I1
sVczligt9
p58
I1
sVd7zi7r2
p59
I1
sVdpq7ln3
p60
I1
sVdoh0vsi
p61
I1
sVdbgbwb0
p62
I1
sVdiqdvix
p63
I1
sVd4hswtd
p64
I1
sVdn2nqjf
p65
I1
sVd2atl10
p66
I1
s.