(dp0
Vdcikroj
p1
I1
sVd554n14
p2
I1
sVdmvx04p
p3
I1
sVdeyig4x
p4
I1
sVdoud62o
p5
I1
sVd3kifk0
p6
I1
sVdht9s9b
p7
I3
sVdic1ecr
p8
I1
sVdba5au5
p9
I1
sVdfb2969
p10
I1
sVdezl2x6
p11
I2
sVdj1mqgl
p12
I2
sVd020utw
p13
I1
sVd3hz1hx
p14
I2
sVdpedehx
p15
I1
sVd8dztn6
p16
I1
sVdhb0o2f
p17
I1
sVdnt1crd
p18
I1
sVdt3ll6d
p19
I4
sVdnbmiz3
p20
I1
sVdk4ws2c
p21
I5
sVdcbeure
p22
I1
sVdhed871
p23
I1
sVda7ioxz
p24
I1
sVczzi1td
p25
I1
sVdkz4ok5
p26
I1
sVdaz1lru
p27
I1
sVcyso1je
p28
I1
sVdf5q6cx
p29
I2
sVd5fuxt0
p30
I1
sVd5u7dko
p31
I1
sVd8qtdw0
p32
I1
sVcymkmo7
p33
I1
sVd5piyp3
p34
I1
sVdj2vy3g
p35
I1
sVd5gvp2o
p36
I3
sVd706qoa
p37
I1
sVdaf62tu
p38
I1
sVd226zte
p39
I1
sVdnwljkp
p40
I1
sVd57qt7g
p41
I1
sVdhbhi2f
p42
I1
sVd4a23z7
p43
I1
sVczg6di5
p44
I2
sVdd5rzu1
p45
I1
sVdhtixrt
p46
I3
sVd1a6gzz
p47
I1
s.