(dp0
Vddgw29r
p1
I1
sVd0o1jqi
p2
I1
sVdiuxvnu
p3
I1
sVd7y11v9
p4
I1
sVd19fy5f
p5
I1
sVdotjvf6
p6
I1
sVcztfr3k
p7
I1
sVcztjr6q
p8
I1
sVddguhx0
p9
I1
sVd9zem7u
p10
I1
sVd23nkvz
p11
I1
sVd2bwlym
p12
I1
sVd2s8z0b
p13
I1
sVdisu4zl
p14
I1
sVcztke2l
p15
I1
sVdmvq8n4
p16
I1
sVd19fgok
p17
I1
s.