(dp0
Vd19kgic
p1
I1
s.(dp0
Vd19kgic
p1
I1
sVd2rbpeu
p2
I1
s.(dp0
Vd19kgic
p1
I1
sVdi2uebk
p2
I1
s.(dp0
Vd19kgic
p1
I1
sVdi2uebk
p2
I1
s.(dp0
Vd19kgic
p1
I1
sVdi2uebk
p2
I1
s.(dp0
Vd19kgic
p1
I1
sVdi2uebk
p2
I1
s.