(dp0
Vdjggvin
p1
I2
sVd6e5hgr
p2
I1
sVdjggydc
p3
I1
sVdnfd4z9
p4
I1
sVdh9u6kt
p5
I1
sVdkkqvvi
p6
I2
sVdjd4maq
p7
I1
sVd0pyuuv
p8
I1
sVd9mva4p
p9
I1
sVdg62rvm
p10
I3
sVdq8ennv
p11
I1
sVd16yxvm
p12
I1
sVd6glquk
p13
I1
sVd7qhmr9
p14
I2
sVdsd015c
p15
I1
sVd1ww6oy
p16
I1
s.