(dp0
Vdbdxswo
p1
I1
sVd7frk60
p2
I1
sVdf519m2
p3
I4
sVcyjn5lv
p4
I1
sVd61peba
p5
I1
sVd7lw6ma
p6
I1
sVd2krqyz
p7
I1
sVd66oclq
p8
I1
sVdf584yv
p9
I1
sVcyjjf2a
p10
I2
sVd03ili5
p11
I1
sVd8u26z8
p12
I1
sVdamz80k
p13
I6
sVcyjxrzn
p14
I1
sVd5ckzgt
p15
I1
sVdcey6gr
p16
I1
sVd47c0z4
p17
I1
sVd5ywifo
p18
I1
sVd4z7tdl
p19
I1
sVdck87ab
p20
I1
sVd1ug7vv
p21
I2
sVd7ysiyq
p22
I1
sVd6bpu7u
p23
I1
sVdetx6f3
p24
I1
sVd622pbb
p25
I1
sVdqpkzan
p26
I1
sVdck3rdo
p27
I1
sVdggqvmx
p28
I1
sVdofs70k
p29
I1
sVdsd0w1w
p30
I1
s.