(dp0
Vd08oaph
p1
I1
s.(dp0
Vd0xewpw
p1
I1
sVd08oaph
p2
I1
s.(dp0
Vd6o0vli
p1
I1
sVd08oaph
p2
I1
s.(dp0
Vddkvo6n
p1
I1
sVd08oaph
p2
I1
s.(dp0
Vddmpom9
p1
I1
sVd08oaph
p2
I1
s.(dp0
Vdfl1yev
p1
I1
sVd08oaph
p2
I1
s.(dp0
Vdgbpjzi
p1
I1
sVd08oaph
p2
I1
s.(dp0
Vdh3fp4i
p1
I1
sVd08oaph
p2
I1
s.(dp0
Vdkkg139
p1
I1
sVd08oaph
p2
I1
s.