(dp0
Vdb51uwo
p1
I1
sVdcq0ubp
p2
I1
sVd0rhl6z
p3
I1
sVdmji7f8
p4
I1
sVdb26v4f
p5
I1
sVdkc5jq7
p6
I1
sVdswi4k4
p7
I1
sVdmz6qff
p8
I1
sVdtayzbb
p9
I1
sVdpld6ih
p10
I1
sVdgnxqn8
p11
I1
sVdfj7e3b
p12
I1
sVdbdjdtv
p13
I1
sVde6p7hg
p14
I1
sVdc36xty
p15
I1
sVd2rf12a
p16
I1
sVdgdekm1
p17
I1
sVda17qvr
p18
I1
sVd7n2q6b
p19
I1
sVdejzqb7
p20
I1
sVdb0lgca
p21
I1
sVdf68in2
p22
I2
sVd801jn8
p23
I1
sVdjwqzuh
p24
I1
sVd4bcuix
p25
I1
sVdbsrp7i
p26
I1
sVdjdby7p
p27
I1
sVdcflaa1
p28
I1
sVczw1h2x
p29
I1
sVdbfupxa
p30
I1
sVdqx0h4h
p31
I1
sVd66gd8l
p32
I1
sVdi4k9p5
p33
I1
sVdojfous
p34
I1
sVddif02h
p35
I1
sVd8tmwkb
p36
I1
sVd3xt43z
p37
I1
sVdf571y7
p38
I1
sVdckxa10
p39
I1
sVdne2c93
p40
I1
sVdkjvqg8
p41
I1
sVdisnu3z
p42
I1
sVd309lqc
p43
I1
sVdmkqlu3
p44
I1
sVcyn804o
p45
I1
sVdh0w6i6
p46
I1
sVdfq3o2m
p47
I1
sVdnu1mlh
p48
I1
sVdhr4zpb
p49
I1
sVdauawe1
p50
I1
sVdohjzdj
p51
I2
sVd6p65wr
p52
I1
sVcyquqc3
p53
I1
sVdi097ey
p54
I1
sVd1vtim7
p55
I1
sVdqc4qyn
p56
I1
sVdbviirk
p57
I1
sVddfjw77
p58
I1
sVdn2t1cx
p59
I1
sVdb8xoyy
p60
I1
sVdgv4upa
p61
I1
sVd3bcbkm
p62
I1
sVdnqteww
p63
I1
sVczirwxp
p64
I1
sVdd5cl2i
p65
I1
sVdhvabed
p66
I1
sVdflhjf8
p67
I1
sVdnr4nxk
p68
I1
sVdov5nkd
p69
I1
sVd3mvfow
p70
I1
sVd3h8b98
p71
I1
sVdmjwb6e
p72
I1
sVdhz92j6
p73
I1
sVd5ndjsc
p74
I1
sVd6rtni9
p75
I1
sVcynx8dw
p76
I1
sVd5glvgy
p77
I1
sVd1ytypq
p78
I1
sVdef4llf
p79
I1
sVdsg6ssh
p80
I1
sVd2pbwle
p81
I1
sVdmtfv9b
p82
I1
sVcz84vap
p83
I1
sVdhkw8uo
p84
I1
sVdgzd1sj
p85
I1
sVd01hydf
p86
I1
sVdae5yli
p87
I1
sVdisdztu
p88
I1
sVdg5adyh
p89
I2
sVdk7vxgi
p90
I2
sVdcblp3e
p91
I1
sVdg3rlue
p92
I1
sVd74pna1
p93
I1
sVdqzpqrr
p94
I1
sVcz9yxzj
p95
I1
sVd14d34n
p96
I1
sVd1y9zv2
p97
I1
sVcz0hxc7
p98
I1
sVdefm19w
p99
I1
sVdne5654
p100
I1
sVd8aailc
p101
I1
sVdd2j6v5
p102
I1
sVd9mmf14
p103
I1
sVds046rt
p104
I1
sVdbjc4pe
p105
I1
sVdn83fms
p106
I1
sVd7v8vn5
p107
I1
sVcz2s9ll
p108
I1
sVdj53m8t
p109
I1
sVd1jcog6
p110
I1
sVddinxs0
p111
I1
sVdde23qg
p112
I1
sVdessobn
p113
I1
sVdkki72z
p114
I1
sVdfolxaq
p115
I1
sVdb0m6sr
p116
I1
s.