(dp0
Vdbeizwy
p1
I1
sVd7e2dtq
p2
I2
sVd1i1h1w
p3
I1
sVdt52vf4
p4
I1
sVd2uvbhc
p5
I1
sVdq6xufc
p6
I1
sVd1bxu1u
p7
I1
sVdfqydkh
p8
I1
sVdds49do
p9
I1
sVdht5udl
p10
I1
sVdtdbxji
p11
I1
sVdbqraji
p12
I1
sVdkowm61
p13
I1
sVdq0i7ef
p14
I1
sVd56dpq3
p15
I1
sVcz6r7bq
p16
I1
sVda95aek
p17
I1
sVd6j5ge4
p18
I1
sVd30po3x
p19
I2
sVd258752
p20
I1
sVd3atlce
p21
I1
sVd1owznr
p22
I1
sVdqntk3i
p23
I1
sVdtiwfhk
p24
I1
sVcyxmn5j
p25
I1
sVd9pok7u
p26
I1
sVd7nwkn2
p27
I1
sVdihultp
p28
I1
sVdcab5oc
p29
I1
sVd6qnu3i
p30
I1
sVdhao5bd
p31
I1
sVdmev781
p32
I1
sVddbh9lo
p33
I1
sVd6eopyq
p34
I1
sVd7imruu
p35
I1
sVdg056rk
p36
I1
sVd84tglu
p37
I1
sVdc5bwp8
p38
I1
sVdaq4ru7
p39
I1
sVcyxqtco
p40
I3
sVdmwwigq
p41
I1
sVdcbckae
p42
I1
sVderjmxv
p43
I1
sVd84t7s5
p44
I1
sVdfalt4i
p45
I1
sVdmkfn9y
p46
I1
sVd0j4vhg
p47
I1
sVdg79e15
p48
I1
sVd7nqbld
p49
I1
sVd993wv6
p50
I1
sVd9am90w
p51
I1
sVdt6g53e
p52
I1
sVd2oxp70
p53
I1
sVdb8wbeu
p54
I1
sVdeeipny
p55
I1
sVdk91rob
p56
I1
sVdmtugn4
p57
I1
sVde7ujj7
p58
I1
sVczh0tqi
p59
I1
sVd1btwvq
p60
I1
sVczzdz3u
p61
I1
sVdbpltgw
p62
I1
sVddhpqc3
p63
I1
sVdht62x1
p64
I1
sVdiy4t07
p65
I1
sVcyscynq
p66
I1
sVddisycq
p67
I3
sVde90lme
p68
I1
sVdfb2c77
p69
I1
sVdbly7wg
p70
I1
sVde2kqob
p71
I1
sVd2it0fk
p72
I1
sVdjd8irn
p73
I1
sVdoeqt4w
p74
I1
sVdddpok1
p75
I1
sVczruslp
p76
I1
sVdberbtj
p77
I1
sVdi336h9
p78
I1
sVczfrpw9
p79
I1
sVda2o9dy
p80
I1
sVd5il8fr
p81
I1
sVdtb5jbh
p82
I1
sVdbia2tu
p83
I1
sVdf9ajgy
p84
I1
sVdo4bdvq
p85
I1
sVdiv9qkh
p86
I1
sVd13oxyn
p87
I1
sVdjoq3wf
p88
I1
sVdbemnx1
p89
I1
sVd0lqlnw
p90
I1
sVddpxe8a
p91
I1
sVdqd5dh9
p92
I1
sVd9ftmyr
p93
I1
sVds59i8g
p94
I2
sVd6tntrx
p95
I1
sVd1d76l8
p96
I1
sVdgs4aqq
p97
I1
sVd45wpzx
p98
I1
sVd3n4xkr
p99
I1
sVd2wwgi3
p100
I1
sVde3okku
p101
I1
sVd7sml7e
p102
I1
sVda9c4tg
p103
I1
sVd2cvofp
p104
I1
sVda8eimn
p105
I1
sVd71skp1
p106
I1
sVd3lihr6
p107
I1
sVdhjwf9i
p108
I1
sVdeu24em
p109
I1
sVdflw1s4
p110
I1
sVdgtgis3
p111
I1
sVd3yzr5m
p112
I1
sVdi6bkwu
p113
I1
sVdcb2ech
p114
I1
sVcyytafp
p115
I1
sVd81n6lh
p116
I1
sVdml67xo
p117
I1
sVd7ar6cg
p118
I1
sVd251spq
p119
I2
sVd7hpdwa
p120
I1
sVdomtn0q
p121
I2
sVdr9of1h
p122
I1
sVdp15t8o
p123
I1
sVdswjhdd
p124
I1
sVdadh78g
p125
I1
sVdb985tj
p126
I1
sVd65mwsx
p127
I1
sVdjqf149
p128
I1
sVd2kgdad
p129
I1
sVddia8dw
p130
I1
sVdgwtfnk
p131
I1
sVdqb4ypq
p132
I1
sVd7qtssb
p133
I1
sVdfpbdtl
p134
I1
sVcz6xdvv
p135
I1
sVdmf72d3
p136
I1
sVd30qdqd
p137
I1
sVd9fmw7d
p138
I1
sVd88xunt
p139
I1
sVdt0iuq1
p140
I1
sVdeq0ky9
p141
I1
sVd18s94g
p142
I1
sVddi7w9a
p143
I1
sVdnmo6ud
p144
I1
sVdfb4u8b
p145
I1
sVdmw5ehs
p146
I1
sVdcr7lmu
p147
I1
sVdciwuad
p148
I1
sVdh8wjdy
p149
I1
sVcz7es1h
p150
I1
sVd1l77jz
p151
I1
sVdarr4nw
p152
I1
sVddiviz4
p153
I1
sVdcuj3yi
p154
I1
s.