(dp0
Vdf93b0d
p1
I1
sVd5e70qo
p2
I1
sVd97ay9o
p3
I1
sVdo0rrej
p4
I1
sVd7mqc9x
p5
I2
sVd19r01e
p6
I1
sVdd870a7
p7
I1
sVdcmgjww
p8
I1
sVd9ngeox
p9
I1
sVczcwure
p10
I1
sVdbk6wgy
p11
I2
sVcyv7cbq
p12
I1
sVd3fjhp3
p13
I1
sVcylzswu
p14
I1
sVdevjkwu
p15
I1
sVd03ili5
p16
I3
sVdg3x2se
p17
I1
sVd9t8nxq
p18
I1
sVdheabh6
p19
I1
sVdbij0gu
p20
I2
sVdalsxlo
p21
I1
sVd0is08j
p22
I2
sVd2q1vue
p23
I1
sVd8euc4v
p24
I1
sVd5e5ghx
p25
I1
sVcyvar6q
p26
I1
sVdc608yk
p27
I1
sVd0itv37
p28
I1
sVd2ude3a
p29
I2
sVd8c8xtv
p30
I2
sVdbkwf8x
p31
I1
sVd10yz7f
p32
I1
sVdb5mcjd
p33
I1
sVcz3yepx
p34
I1
sVd0ipdlp
p35
I1
sVd0sscsj
p36
I1
sVd7m56wm
p37
I1
sVd226caz
p38
I2
sVdb5vg91
p39
I2
sVczidfiv
p40
I1
sVdjuv9js
p41
I1
sVd66tayn
p42
I1
sVd2q8rn4
p43
I1
sVd7v574n
p44
I1
sVdj60r8z
p45
I2
sVd2q2fdi
p46
I1
sVd53nu6d
p47
I1
sVdf8xf6p
p48
I1
sVcyi20eu
p49
I1
sVdhea3rl
p50
I2
sVd2q2jr5
p51
I2
sVd2q0tpr
p52
I1
sVdrb6c5o
p53
I1
sVcz1ufs3
p54
I3
sVczuzu5j
p55
I1
sVddx09fa
p56
I1
sVd5eg6nf
p57
I2
sVd1kjmkt
p58
I1
sVdbobsf5
p59
I1
sVd5vhfkl
p60
I1
sVdihfquk
p61
I1
sVdiur6oa
p62
I1
sVdagyzyh
p63
I1
sVd25a52w
p64
I1
sVdf93ya3
p65
I1
sVd2xz7ae
p66
I1
sVdbittgp
p67
I1
sVdo6yw6y
p68
I1
sVd1xmz5p
p69
I1
sVdfjrdct
p70
I2
sVd1qz3bc
p71
I1
sVd5egjce
p72
I2
sVdf92e1k
p73
I1
sVdkp4xwr
p74
I2
sVdf91pdd
p75
I1
sVd0lttbr
p76
I1
sVd0huh90
p77
I1
sVdb5d0a6
p78
I1
sVd1u2ic7
p79
I2
sVd23bi8p
p80
I1
sVdo77qqm
p81
I1
sVd0jqkr6
p82
I1
sVdcbwur8
p83
I1
sVdd3o05m
p84
I1
sVcyjznq3
p85
I1
sVdfa0ygr
p86
I2
sVdfzxaiy
p87
I2
sVcyzl65p
p88
I1
sVd5ea5c6
p89
I1
sVdcmg95r
p90
I1
sVd1f4yo5
p91
I1
sVcyvp9zj
p92
I1
sVdjey4xo
p93
I3
sVdbe5nnw
p94
I1
sVd01rwch
p95
I3
sVdesyvrg
p96
I2
sVdihf3cb
p97
I1
sVdmf6pp4
p98
I1
sVd0j6mw2
p99
I1
sVd2mm5er
p100
I1
sVcyomsoh
p101
I1
sVd0stovo
p102
I1
sVd4roddu
p103
I1
sVd1me5wd
p104
I1
sVd75l2hy
p105
I1
sVdp6wzum
p106
I2
sVdbeagji
p107
I3
sVd49sicf
p108
I1
sVd0m1asw
p109
I2
sVdh0p5ox
p110
I1
sVd2q4q55
p111
I2
sVcykbjqj
p112
I2
sVd13e4hp
p113
I1
sVdn71evc
p114
I1
sVdbk8541
p115
I2
sVdgfnrqt
p116
I1
sVdbqg03y
p117
I1
sVd1agr5k
p118
I1
sVdkp4kyn
p119
I1
sVd9qtlzb
p120
I2
sVd2pyv64
p121
I1
sVdetukiz
p122
I1
sVddxgs3d
p123
I1
sVd2q0wwa
p124
I1
sVd5efrau
p125
I1
sVdam1pqi
p126
I2
sVd25nxez
p127
I1
sVdkssp8g
p128
I1
sVd3f8wdm
p129
I1
sVd1stznd
p130
I1
sVd8oo2kx
p131
I1
sVd2pw20v
p132
I2
sVd2um7g2
p133
I2
sVd9by86s
p134
I1
sVds90hgg
p135
I1
sVddgx9d0
p136
I1
sVd0ltimi
p137
I1
sVdb5ct6p
p138
I4
sVczm4gxl
p139
I1
sVdn82zz4
p140
I1
sVd9bwi5e
p141
I1
sVd97b0o7
p142
I1
sVdd0uvrw
p143
I1
sVds8ry9d
p144
I1
sVd4lah5s
p145
I3
s.