(dp0
Vcykn7dt
p1
I1
s.(dp0
Vcyxm3x2
p1
I1
sVcykn7dt
p2
I1
s.(dp0
Vczaitvr
p1
I1
sVcykn7dt
p2
I1
s.(dp0
Vd1kl28g
p1
I1
sVcykn7dt
p2
I1
s.(dp0
Vd2nefy5
p1
I1
sVcykn7dt
p2
I1
s.(dp0
Vd2xihfx
p1
I1
sVcykn7dt
p2
I1
s.(dp0
Vcykn7dt
p1
I1
sVd30uxzb
p2
I1
s.(dp0
Vd3pbraa
p1
I1
sVcykn7dt
p2
I1
s.(dp0
Vd7k7f21
p1
I1
sVcykn7dt
p2
I1
s.(dp0
Vcykn7dt
p1
I1
sVdb8fqub
p2
I1
s.(dp0
Vcykn7dt
p1
I1
sVdbjvln5
p2
I1
s.(dp0
Vdbnifdx
p1
I1
sVcykn7dt
p2
I1
s.(dp0
Vcykn7dt
p1
I1
sVdc686wp
p2
I1
s.(dp0
Vdg3u9gq
p1
I1
sVcykn7dt
p2
I1
s.(dp0
Vdhfjfjc
p1
I1
sVcykn7dt
p2
I1
s.(dp0
Vdnfos9m
p1
I1
sVcykn7dt
p2
I1
s.(dp0
Vcykn7dt
p1
I1
sVdni7zj3
p2
I1
s.(dp0
Vdst65ak
p1
I1
sVcykn7dt
p2
I1
s.