(dp0
Vddc119z
p1
I1
sVdb9om39
p2
I2
sVddwvihl
p3
I1
sVdctzhdt
p4
I1
sVd84uv9w
p5
I1
sVdcclggr
p6
I1
sVdjs95ls
p7
I1
sVd4ypfpu
p8
I1
sVd5n25hp
p9
I1
sVdoiql00
p10
I1
sVd2ig4ma
p11
I1
sVd15c1m4
p12
I1
sVd4ro0hk
p13
I1
sVdi2yr48
p14
I1
sVdmktvyc
p15
I1
sVddtir6q
p16
I1
sVd7gob0c
p17
I3
sVddcslbu
p18
I1
sVdg8sawk
p19
I1
sVd9731d2
p20
I1
sVdd3ucww
p21
I1
sVddbvg9h
p22
I1
sVd9z6v8p
p23
I1
sVdi5uil0
p24
I1
s.