(dp0
Vcyhvj7m
p1
I1
s.(dp0
Vcyikqoq
p1
I1
sVcyhvj7m
p2
I1
s.(dp0
Vcyix6k4
p1
I1
sVcyhvj7m
p2
I1
s.(dp0
Vcyixirw
p1
I1
sVcyhvj7m
p2
I1
s.(dp0
Vcyjleid
p1
I1
sVcyhvj7m
p2
I1
s.(dp0
Vcykso7y
p1
I1
sVcyhvj7m
p2
I1
s.(dp0
Vcyr44lx
p1
I1
sVcyhvj7m
p2
I1
s.(dp0
Vcytiotj
p1
I1
sVcyhvj7m
p2
I1
s.(dp0
Vcyuoijz
p1
I1
sVcyhvj7m
p2
I1
s.(dp0
Vcyuoijz
p1
I1
sVcyhvj7m
p2
I1
s.(dp0
Vcyuoijz
p1
I1
sVcyhvj7m
p2
I1
s.(dp0
Vcyutfop
p1
I1
sVcyhvj7m
p2
I1
s.(dp0
Vcyxfrdd
p1
I1
sVcyhvj7m
p2
I1
s.(dp0
Vcyy5n48
p1
I1
sVcyhvj7m
p2
I1
s.(dp0
Vcyykjgr
p1
I1
sVcyhvj7m
p2
I1
s.(dp0
Vcz0otx0
p1
I1
sVcyhvj7m
p2
I1
s.(dp0
Vcz35fso
p1
I1
sVcyhvj7m
p2
I1
s.(dp0
Vcz9tton
p1
I1
sVcyhvj7m
p2
I1
s.(dp0
Vczav3zi
p1
I1
sVcyhvj7m
p2
I1
s.(dp0
Vczbmngt
p1
I1
sVcyhvj7m
p2
I1
s.(dp0
Vczdeh4x
p1
I1
sVcyhvj7m
p2
I1
s.(dp0
Vczehuf5
p1
I1
sVcyhvj7m
p2
I1
s.(dp0
Vczfoc0e
p1
I1
sVcyhvj7m
p2
I1
s.(dp0
Vczhnygl
p1
I1
sVcyhvj7m
p2
I1
s.(dp0
Vczibns1
p1
I1
sVcyhvj7m
p2
I1
s.(dp0
Vczkloi8
p1
I1
sVcyhvj7m
p2
I1
s.(dp0
Vczm4jq4
p1
I1
sVcyhvj7m
p2
I1
s.(dp0
Vczm4jq4
p1
I1
sVcyhvj7m
p2
I1
s.(dp0
Vczpm87m
p1
I1
sVcyhvj7m
p2
I1
s.(dp0
Vczpstq1
p1
I1
sVcyhvj7m
p2
I1
s.(dp0
Vczrisl7
p1
I1
sVcyhvj7m
p2
I1
s.(dp0
Vczrrakn
p1
I1
sVcyhvj7m
p2
I1
s.(dp0
Vcztb504
p1
I1
sVcyhvj7m
p2
I1
s.(dp0
Vczu1cf8
p1
I1
sVcyhvj7m
p2
I1
s.(dp0
Vczuc0hu
p1
I1
sVcyhvj7m
p2
I1
s.(dp0
Vczwav18
p1
I1
sVcyhvj7m
p2
I1
s.(dp0
Vd00sdam
p1
I1
sVcyhvj7m
p2
I1
s.(dp0
Vd015vii
p1
I1
sVcyhvj7m
p2
I1
s.(dp0
Vd08kgo9
p1
I1
sVcyhvj7m
p2
I1
s.(dp0
Vd090fju
p1
I1
sVcyhvj7m
p2
I1
s.(dp0
Vd0dwkri
p1
I1
sVcyhvj7m
p2
I1
s.(dp0
Vd0if3le
p1
I1
sVcyhvj7m
p2
I1
s.(dp0
Vd0is2fo
p1
I1
sVcyhvj7m
p2
I1
s.(dp0
Vd0is2fo
p1
I1
sVcyhvj7m
p2
I1
s.(dp0
Vd0rzdwi
p1
I1
sVcyhvj7m
p2
I1
s.(dp0
Vd0tjbyv
p1
I1
sVcyhvj7m
p2
I1
s.(dp0
Vd0u3k68
p1
I1
sVcyhvj7m
p2
I1
s.(dp0
Vd0wgby6
p1
I1
sVcyhvj7m
p2
I1
s.(dp0
Vd0yf4z2
p1
I1
sVcyhvj7m
p2
I1
s.(dp0
Vd0yhhkq
p1
I1
sVcyhvj7m
p2
I1
s.(dp0
Vd1385qz
p1
I1
sVcyhvj7m
p2
I1
s.(dp0
Vd13pzpf
p1
I1
sVcyhvj7m
p2
I1
s.(dp0
Vd13pzpf
p1
I1
sVcyhvj7m
p2
I1
s.(dp0
Vd13pzpf
p1
I1
sVcyhvj7m
p2
I1
s.(dp0
Vd18rye0
p1
I1
sVcyhvj7m
p2
I1
s.(dp0
Vd1fkc39
p1
I1
sVcyhvj7m
p2
I1
s.(dp0
Vd1j9xf9
p1
I1
sVcyhvj7m
p2
I1
s.(dp0
Vd1p30y0
p1
I1
sVcyhvj7m
p2
I1
s.(dp0
Vd1p69pz
p1
I1
sVcyhvj7m
p2
I1
s.(dp0
Vd1py3nt
p1
I1
sVcyhvj7m
p2
I1
s.(dp0
Vd1qzzq6
p1
I1
sVcyhvj7m
p2
I1
s.(dp0
Vd1r40u1
p1
I1
sVcyhvj7m
p2
I1
s.(dp0
Vd1rj34o
p1
I1
sVcyhvj7m
p2
I1
s.(dp0
Vd1rqw78
p1
I1
sVcyhvj7m
p2
I1
s.(dp0
Vd1rvxv8
p1
I1
sVcyhvj7m
p2
I1
s.(dp0
Vd1s978t
p1
I1
sVcyhvj7m
p2
I1
s.(dp0
Vd1s978t
p1
I1
sVcyhvj7m
p2
I1
s.(dp0
Vd1slxfa
p1
I1
sVcyhvj7m
p2
I1
s.(dp0
Vd1slxfa
p1
I1
sVcyhvj7m
p2
I1
s.(dp0
Vd1t3urf
p1
I1
sVcyhvj7m
p2
I1
s.(dp0
Vd22mcsr
p1
I1
sVcyhvj7m
p2
I1
s.(dp0
Vd25h8q7
p1
I1
sVcyhvj7m
p2
I1
s.(dp0
Vd266a8z
p1
I1
sVcyhvj7m
p2
I1
s.(dp0
Vd2advhc
p1
I1
sVcyhvj7m
p2
I1
s.(dp0
Vd2advhc
p1
I1
sVcyhvj7m
p2
I1
s.(dp0
Vd2bp9ea
p1
I1
sVcyhvj7m
p2
I1
s.(dp0
Vd2c9n95
p1
I1
sVcyhvj7m
p2
I1
s.(dp0
Vd2dxrfx
p1
I1
sVcyhvj7m
p2
I1
s.(dp0
Vd2gzcw4
p1
I1
sVcyhvj7m
p2
I1
s.(dp0
Vd2h7u42
p1
I1
sVcyhvj7m
p2
I1
s.(dp0
Vd2qm9u6
p1
I1
sVcyhvj7m
p2
I1
s.(dp0
Vd2qm9u6
p1
I1
sVcyhvj7m
p2
I1
s.(dp0
Vd2vob2o
p1
I1
sVcyhvj7m
p2
I1
s.(dp0
Vd37p938
p1
I1
sVcyhvj7m
p2
I1
s.(dp0
Vd39rxt5
p1
I1
sVcyhvj7m
p2
I1
s.(dp0
Vd3b93w3
p1
I1
sVcyhvj7m
p2
I1
s.(dp0
Vd3g81p3
p1
I1
sVcyhvj7m
p2
I1
s.(dp0
Vd3ht3f1
p1
I1
sVcyhvj7m
p2
I1
s.(dp0
Vd3pgyhl
p1
I1
sVcyhvj7m
p2
I1
s.(dp0
Vd3prqkt
p1
I1
sVcyhvj7m
p2
I1
s.(dp0
Vd3qh3yh
p1
I1
sVcyhvj7m
p2
I1
s.(dp0
Vd3qwk6q
p1
I1
sVcyhvj7m
p2
I1
s.(dp0
Vd3qwrxp
p1
I1
sVcyhvj7m
p2
I1
s.(dp0
Vd3x40nt
p1
I1
sVcyhvj7m
p2
I1
s.(dp0
Vd4dk6tl
p1
I1
sVcyhvj7m
p2
I1
s.(dp0
Vd4e2gd6
p1
I1
sVcyhvj7m
p2
I1
s.(dp0
Vd4ea5ux
p1
I1
sVcyhvj7m
p2
I1
s.(dp0
Vd4hseii
p1
I1
sVcyhvj7m
p2
I1
s.(dp0
Vd4vojj9
p1
I1
sVcyhvj7m
p2
I1
s.(dp0
Vd4xdbfq
p1
I1
sVcyhvj7m
p2
I1
s.(dp0
Vd4xdbfq
p1
I1
sVcyhvj7m
p2
I1
s.(dp0
Vd5b8doc
p1
I1
sVcyhvj7m
p2
I1
s.(dp0
Vd5ilbdv
p1
I1
sVcyhvj7m
p2
I1
s.(dp0
Vd5nqfvi
p1
I1
sVcyhvj7m
p2
I1
s.(dp0
Vd5og016
p1
I1
sVcyhvj7m
p2
I1
s.(dp0
Vd5wng6o
p1
I1
sVcyhvj7m
p2
I1
s.(dp0
Vd5zr6pw
p1
I1
sVcyhvj7m
p2
I1
s.(dp0
Vd609bu2
p1
I1
sVcyhvj7m
p2
I1
s.(dp0
Vd6(dp0
Vdtgfzdr
p1
I1
sVcyhvj7m
p2
I1
s.