(dp0
Vd290sb9
p1
I1
s.(dp0
Vd290sb9
p1
I1
sVd35goob
p2
I1
s.(dp0
Vd290sb9
p1
I1
sVd6culg7
p2
I1
s.(dp0
Vd290sb9
p1
I1
sVd6culg7
p2
I1
s.(dp0
Vd290sb9
p1
I1
sVd726cvp
p2
I1
s.(dp0
Vd290sb9
p1
I1
sVd726cvp
p2
I1
s.(dp0
Vd290sb9
p1
I1
sVdam28x4
p2
I1
s.(dp0
Vd290sb9
p1
I1
sVdc8rt9a
p2
I1
s.(dp0
Vd290sb9
p1
I1
sVdc92evy
p2
I1
s.(dp0
Vd290sb9
p1
I1
sVddjhq6c
p2
I1
s.(dp0
Vd290sb9
p1
I1
sVdjaanjs
p2
I1
s.(dp0
Vd290sb9
p1
I1
sVdjx61mx
p2
I1
s.(dp0
Vd290sb9
p1
I1
sVdqapqcr
p2
I1
s.(dp0
Vd290sb9
p1
I1
sVdqg42um
p2
I1
s.(dp0
Vd290sb9
p1
I1
sVds1wcni
p2
I1
s.(dp0
Vd290sb9
p1
I1
sVdsvluxj
p2
I1
s.