(dp0
Vcz6b1jw
p1
I1
s.(dp0
Vczapcs1
p1
I1
sVcz6b1jw
p2
I1
s.(dp0
Vcz6b1jw
p1
I1
sVd04nk17
p2
I1
s.(dp0
Vd1bsj44
p1
I1
sVcz6b1jw
p2
I1
s.(dp0
Vd1bsj44
p1
I1
sVcz6b1jw
p2
I1
s.(dp0
Vcz6b1jw
p1
I1
sVd1bu0ol
p2
I1
s.(dp0
Vcz6b1jw
p1
I1
sVd1bu0ol
p2
I1
s.(dp0
Vcz6b1jw
p1
I1
sVd1by8id
p2
I1
s.(dp0
Vcz6b1jw
p1
I1
sVd1c500p
p2
I1
s.(dp0
Vd1c5xvj
p1
I1
sVcz6b1jw
p2
I1
s.(dp0
Vcz6b1jw
p1
I1
sVd1c6seb
p2
I1
s.(dp0
Vcz6b1jw
p1
I1
sVd1g3sx0
p2
I1
s.(dp0
Vd4dz0da
p1
I1
sVcz6b1jw
p2
I1
s.(dp0
Vcz6b1jw
p1
I1
sVd5e5u9s
p2
I1
s.(dp0
Vcz6b1jw
p1
I1
sVd5q4kgk
p2
I1
s.(dp0
Vcz6b1jw
p1
I1
sVda4g2bj
p2
I1
s.(dp0
Vdc36paq
p1
I1
sVcz6b1jw
p2
I1
s.(dp0
Vcz6b1jw
p1
I1
sVdczkkjc
p2
I1
s.(dp0
Vdf1fi4s
p1
I1
sVcz6b1jw
p2
I1
s.(dp0
Vdf1fi4s
p1
I1
sVcz6b1jw
p2
I1
s.(dp0
Vcz6b1jw
p1
I1
sVdjiesot
p2
I1
s.(dp0
Vcz6b1jw
p1
I1
sVdjiesot
p2
I1
s.(dp0
Vcz6b1jw
p1
I1
sVdjievr5
p2
I1
s.(dp0
Vcz6b1jw
p1
I1
sVdjiff6q
p2
I1
s.(dp0
Vdp08evi
p1
I1
sVcz6b1jw
p2
I1
s.(dp0
Vcz6b1jw
p1
I1
sVdp08lgg
p2
I1
s.(dp0
Vcz6b1jw
p1
I1
sVdp08lgg
p2
I1
s.