(dp0
Vcyrww5y
p1
I1
s.(dp0
Vcyrww5y
p1
I2
s.(dp0
Vcyrww5y
p1
I1
sVcyxor7o
p2
I1
s.(dp0
Vcyyclhc
p1
I1
sVcyrww5y
p2
I1
s.(dp0
Vcyrww5y
p1
I1
sVd07xtwn
p2
I1
s.(dp0
Vd0b6hjo
p1
I1
sVcyrww5y
p2
I1
s.(dp0
Vcyrww5y
p1
I1
sVd1gwmk1
p2
I1
s.(dp0
Vcyrww5y
p1
I1
sVd2i1nbx
p2
I1
s.(dp0
Vcyrww5y
p1
I1
sVd5umu2t
p2
I1
s.(dp0
Vd9mg24b
p1
I1
sVcyrww5y
p2
I1
s.(dp0
Vdau7abs
p1
I1
sVcyrww5y
p2
I1
s.(dp0
Vcyrww5y
p1
I1
sVdbbvpie
p2
I1
s.(dp0
Vddd3kwz
p1
I1
sVcyrww5y
p2
I1
s.(dp0
Vcyrww5y
p1
I1
sVder9cel
p2
I1
s.(dp0
Vdf3qaj5
p1
I1
sVcyrww5y
p2
I1
s.(dp0
Vcyrww5y
p1
I1
sVdfx9moh
p2
I1
s.(dp0
Vcyrww5y
p1
I1
sVdhynxz1
p2
I1
s.