(dp0
Vdconbya
p1
I1
sVdkiuwfl
p2
I1
sVd8ly925
p3
I1
sVczs3qi5
p4
I1
sVd04sdft
p5
I1
sVdqavoch
p6
I1
sVd60i1l3
p7
I1
sVd6un7c9
p8
I1
sVd0grglw
p9
I1
sVd8ltkvc
p10
I1
sVds4ai0x
p11
I2
sVd8lt2zp
p12
I1
sVd6b2681
p13
I1
sVd3jecza
p14
I1
sVd7jfx42
p15
I1
sVdqrniue
p16
I1
sVd2bf1w0
p17
I1
sVdiq4miz
p18
I1
sVd8502ok
p19
I1
sVdf7mnsm
p20
I1
sVd0gr5bf
p21
I1
sVd9kpda8
p22
I1
sVd63qorr
p23
I3
sVdaet6o5
p24
I1
sVda63nad
p25
I1
sVd0twy7e
p26
I1
sVdju2ujh
p27
I1
sVd91ce0j
p28
I1
sVdkx3r8x
p29
I1
sVd9mip2b
p30
I1
sVd19av8m
p31
I1
s.