(dp0
Vdjkfwbq
p1
I1
sVdam8qc6
p2
I1
sVd9q7vpx
p3
I1
sVcyibugh
p4
I1
sVdt4rb4a
p5
I1
sVdqshcva
p6
I1
sVd6vejv8
p7
I1
sVd07xtwn
p8
I1
sVd2igw6f
p9
I1
sVd37ik4e
p10
I1
sVdg4bcb9
p11
I1
sVd9va66g
p12
I1
sVdcmzso4
p13
I1
sVdebdz9o
p14
I1
sVdk4q3ge
p15
I1
sVd0tr2iv
p16
I1
sVd5087tu
p17
I1
sVddvd83s
p18
I1
sVczyb3zl
p19
I1
sVddbyrev
p20
I1
sVdckn6hc
p21
I1
sVdfzvotr
p22
I1
sVd3nvk03
p23
I1
sVdgv3efj
p24
I1
sVdj2royd
p25
I1
sVddzj2m5
p26
I1
sVdb5a3lc
p27
I1
sVdd8lidw
p28
I1
sVd4vb1lh
p29
I1
sVdg8i16e
p30
I1
sVd9ki93d
p31
I1
sVdb899iy
p32
I1
sVd6jgfoa
p33
I1
sVdd770xm
p34
I1
sVd5gurrx
p35
I1
sVdhmoj7r
p36
I1
sVd1grol3
p37
I1
sVdhcjib0
p38
I1
sVd6nz6dt
p39
I1
sVd10iss1
p40
I1
sVd4gmzri
p41
I1
sVd1lysed
p42
I1
sVda2mxlt
p43
I1
sVd0akdo0
p44
I1
sVd1jm9cp
p45
I1
sVdnildt5
p46
I1
sVd6idich
p47
I1
sVd49q6qn
p48
I1
sVdfvxzet
p49
I1
sVd0k9kck
p50
I1
sVd84hd2e
p51
I3
sVd3gyp43
p52
I1
sVd3gf8hd
p53
I1
sVdd5036d
p54
I1
s.