(dp0
Vdg2rqbs
p1
I2
sVd0mhf65
p2
I1
sVd2dbfnn
p3
I1
sVdaawz4v
p4
I1
sVdjb7rw9
p5
I1
sVdqxrs9j
p6
I1
sVdfolpth
p7
I1
sVd59urkq
p8
I1
sVczwvnis
p9
I3
sVdfn26m2
p10
I1
sVcyv927n
p11
I1
sVd1mqcyh
p12
I1
sVdeu2ud6
p13
I1
sVd2r1sf4
p14
I1
sVdnobin2
p15
I1
sVdaokwzy
p16
I1
sVdg2rdzk
p17
I1
sVdsru4x7
p18
I1
sVdj503u2
p19
I1
sVdowkb7s
p20
I1
sVd5w1ra8
p21
I1
sVd2adxtf
p22
I1
sVczz7tgd
p23
I1
sVdrz1vht
p24
I1
sVd2qpm6h
p25
I1
sVd5929tj
p26
I1
sVd9gcsoc
p27
I1
sVdbrmihx
p28
I1
sVdf8vzeq
p29
I1
sVd4dvaiu
p30
I1
sVczbx8ra
p31
I1
sVdd6a58s
p32
I1
sVd3ga5qu
p33
I1
sVd0ry8ln
p34
I1
sVdjaz3uf
p35
I1
sVd3re0h5
p36
I2
sVdegc0kx
p37
I2
sVdg2sgsj
p38
I1
sVczwvorf
p39
I1
sVczjbptk
p40
I1
sVdhrhfjy
p41
I1
sVd2lce18
p42
I1
sVdarf09v
p43
I1
s.