(dp0
Vcz939yl
p1
I1
s.(dp0
Vcz939yl
p1
I1
sVd0rwk0r
p2
I1
s.(dp0
Vcz939yl
p1
I1
sVd4rbrwk
p2
I1
s.(dp0
Vcz939yl
p1
I1
sVd6mhg01
p2
I1
s.(dp0
Vcz939yl
p1
I1
sVdao7dka
p2
I1
s.(dp0
Vcz939yl
p1
I1
sVdbyf5mu
p2
I1
s.(dp0
Vcz939yl
p1
I1
sVddb1eaz
p2
I1
s.(dp0
Vcz939yl
p1
I1
sVddk8e1o
p2
I1
s.(dp0
Vcz939yl
p1
I1
sVdfow6hj
p2
I1
s.(dp0
Vcz939yl
p1
I1
sVdjtkoyy
p2
I1
s.(dp0
Vcz939yl
p1
I1
sVdkk9j2m
p2
I1
s.(dp0
Vcz939yl
p1
I1
sVdnqacb6
p2
I1
s.