(dp0
Vdb182ai
p1
I1
sVdi2odru
p2
I1
sVd85vj89
p3
I1
sVdjwpc7d
p4
I1
sVcyxxdj2
p5
I1
sVdmija5i
p6
I1
sVd2kfkc3
p7
I1
sVdjx2qel
p8
I1
sVdt8ktll
p9
I1
sVdmskg4k
p10
I1
sVd71ohmq
p11
I3
sVds9svav
p12
I1
sVdakxhy3
p13
I5
sVd8ouc2f
p14
I7
sVdp18rus
p15
I1
sVd8q0k36
p16
I1
sVczvkj3v
p17
I2
sVda74tay
p18
I1
sVd3fot95
p19
I2
sVdkn2wpu
p20
I1
sVdkr54ih
p21
I1
sVdmiio79
p22
I2
sVd0s1yqx
p23
I1
sVcz3088z
p24
I2
sVd90q32j
p25
I3
sVdkqkpjq
p26
I1
sVdi1yqvc
p27
I1
sVdirendc
p28
I2
sVdt0cxqk
p29
I3
sVczwnxxo
p30
I1
sVd71q8q2
p31
I4
sVd8rwvqx
p32
I1
sVd8ngfsh
p33
I1
sVd801jn8
p34
I1
sVdpcsunk
p35
I1
sVcyk458w
p36
I1
sVd3so3ji
p37
I1
sVdjwvb8w
p38
I1
sVd1gt4qw
p39
I1
sVdba06v0
p40
I1
sVd5potvn
p41
I1
sVczy5bnl
p42
I1
sVdnvxtck
p43
I1
sVcz7qwwk
p44
I1
sVdhzbwea
p45
I1
sVdg2dgbj
p46
I2
sVd5r7cal
p47
I1
sVdjx3n60
p48
I2
sVd3zuvuj
p49
I1
sVdt1gv23
p50
I1
sVdaif5v2
p51
I1
sVdbguyur
p52
I1
sVd95r2b8
p53
I1
sVd7zpfy5
p54
I2
sVd0avhht
p55
I1
sVczf1hys
p56
I2
sVdafdaxk
p57
I1
sVdgojiym
p58
I1
sVdf9yb27
p59
I1
sVd878diw
p60
I3
sVdj0v5jr
p61
I1
sVd6wzj17
p62
I1
sVd1l6d6w
p63
I1
sVd5okpyf
p64
I1
sVdflwpaj
p65
I1
sVdml1f66
p66
I1
sVd556kic
p67
I3
sVd2shlp6
p68
I1
sVd2z2oeg
p69
I1
sVd6kau0l
p70
I4
sVd9l5ke2
p71
I1
sVdt6hadt
p72
I3
sVddoolqz
p73
I1
sVdi7ysnr
p74
I1
sVdfl8lpr
p75
I1
sVd8usvth
p76
I1
sVdn1k9dj
p77
I1
sVczzp4hc
p78
I1
sVdpjn4le
p79
I4
sVdcn43yg
p80
I1
sVdnzmg8s
p81
I1
sVd400bsa
p82
I5
sVdkje4gv
p83
I2
sVd5hm4yx
p84
I1
sVdbnuxm5
p85
I1
sVdd67u1r
p86
I1
sVd04ra9a
p87
I1
sVd48lrlk
p88
I1
sVd0kq29a
p89
I1
sVd4nxqph
p90
I4
sVdt2qu61
p91
I1
sVddp6nt1
p92
I1
sVdprbk4x
p93
I1
sVd6ljgy0
p94
I2
sVd0ojru9
p95
I1
sVd5xo665
p96
I1
sVcz8p0tx
p97
I1
sVdszrtao
p98
I1
sVdfnhngw
p99
I1
sVdjwsqn5
p100
I1
sVdb78p63
p101
I1
sVdp6flb1
p102
I1
sVdb7j39b
p103
I2
sVd9o5o79
p104
I1
sVdjwpk3t
p105
I2
sVd4n1i06
p106
I1
sVdkj7lon
p107
I3
sVdjxvz91
p108
I1
sVd78kvhm
p109
I1
sVdi1824w
p110
I1
sVdk4y5zl
p111
I1
sVdcfemo4
p112
I2
sVddcs1hm
p113
I1
sVdku1ksk
p114
I1
sVdjitdii
p115
I1
sVdb618fv
p116
I1
sVdkns2ai
p117
I1
sVdazpht4
p118
I2
sVd7ezdjd
p119
I1
sVd7qffba
p120
I1
sVdqhvd61
p121
I1
sVdknau7p
p122
I4
sVd18yds6
p123
I1
sVdqb7zww
p124
I1
sVdau9b5k
p125
I1
sVdeoeg5r
p126
I1
sVd92d5h4
p127
I3
sVdgrnwk7
p128
I4
sVdf8ss18
p129
I1
sVdigbp8k
p130
I1
sVdjh0dzl
p131
I1
sVdqhz1wz
p132
I1
sVdmj1pfm
p133
I6
sVdnw4kow
p134
I1
sVd0242ex
p135
I1
sVdg2io32
p136
I1
sVczhkl3o
p137
I1
sVdew0wrh
p138
I1
sVdmihz6b
p139
I2
sVdjgq00e
p140
I1
sVdjwyzti
p141
I3
sVdbe03db
p142
I1
sVdgu3l6m
p143
I1
sVd0sem4m
p144
I1
sVdkr4xdf
p145
I1
sVd0mrto7
p146
I1
sVdjwwzui
p147
I1
sVdmimiby
p148
I1
sVdcjoj9o
p149
I1
sVdcubdm8
p150
I1
sVdkr6d9g
p151
I2
sVdfqkf2v
p152
I1
sVd7embtl
p153
I1
sVdfd5gop
p154
I5
sVdngmwzf
p155
I1
sVdipvmly
p156
I1
sVd2r9i6x
p157
I1
sVd152lo2
p158
I1
sVd71c1jm
p159
I1
sVdmitx7x
p160
I1
sVdfnjvc7
p161
I1
sVd29ibxn
p162
I2
sVd54dhtd
p163
I1
sVdsgw1qc
p164
I7
sVcyvco0u
p165
I3
sVdf2ozkc
p166
I1
sVd9zfaqq
p167
I1
sVdaucuqf
p168
I2
sVd5s7le5
p169
I1
sVdnzkw32
p170
I3
sVd8micqp
p171
I1
sVcz58y8l
p172
I2
sVdawprs1
p173
I1
sVdg2kaoa
p174
I1
sVd09zwc7
p175
I2
sVdgj8e36
p176
I3
sVdmyi8ng
p177
I1
sVd10kkrx
p178
I1
sVdkifm7p
p179
I5
sVdau20qj
p180
I1
sVdiwusku
p181
I2
sVdatfkbc
p182
I1
sVdmikrzy
p183
I1
sVczk9ndj
p184
I1
sVdjxn97h
p185
I3
sVdhqgqv6
p186
I1
sVd4ed0eb
p187
I1
sVdmimce7
p188
I5
sVdkc0yz0
p189
I1
sVd5u8pt6
p190
I1
sVd7aun0f
p191
I1
sVd7zrc3i
p192
I2
sVd3p4ed7
p193
I1
sVczey60o
p194
I1
sVdidm6m4
p195
I1
sVd2v7h3d
p196
I1
sVdosv13e
p197
I1
sVdccmdmu
p198
I1
sVdhfie27
p199
I1
sVd65heqx
p200
I1
sVcze4688
p201
I1
sVdar1ri3
p202
I1
sVdt0e9sd
p203
I1
sVdamp8tz
p204
I1
sVd7eat35
p205
I1
sVcyp8t4y
p206
I1
sVdg072sy
p207
I2
sVdg98u6m
p208
I1
sVd0k2xb3
p209
I1
sVdgmxwr3
p210
I1
sVdfwxy6b
p211
I1
sVdmtzgkd
p212
I1
sVd4nxxjb
p213
I5
sVdfm93ag
p214
I1
sVd7zy0eu
p215
I1
sVdqe09v4
p216
I1
sVdiqysih
p217
I1
sVdkn814b
p218
I2
sVcyojmwv
p219
I1
sVd555iy2
p220
I1
sVd5cxigm
p221
I1
sVdjxd4jt
p222
I1
s.