(dp0
Vcyjiwjt
p1
I1
s.(dp0
Vcyjiwjt
p1
I2
s.(dp0
Vcyjiwjt
p1
I2
s.(dp0
Vcyjrddr
p1
I1
sVcyjiwjt
p2
I1
s.(dp0
Vcym94r5
p1
I1
sVcyjiwjt
p2
I1
s.(dp0
Vcz0mk6b
p1
I1
sVcyjiwjt
p2
I1
s.(dp0
Vczmb4qu
p1
I1
sVcyjiwjt
p2
I1
s.(dp0
Vczq50gs
p1
I1
sVcyjiwjt
p2
I1
s.(dp0
Vd02n3up
p1
I1
sVcyjiwjt
p2
I1
s.(dp0
Vd05s60j
p1
I1
sVcyjiwjt
p2
I1
s.(dp0
Vd098m9r
p1
I1
sVcyjiwjt
p2
I1
s.(dp0
Vd0ia4mi
p1
I1
sVcyjiwjt
p2
I1
s.(dp0
Vd0rsryo
p1
I1
sVcyjiwjt
p2
I1
s.(dp0
Vd103xe2
p1
I1
sVcyjiwjt
p2
I1
s.(dp0
Vd19p40w
p1
I1
sVcyjiwjt
p2
I1
s.(dp0
Vd1b48wa
p1
I1
sVcyjiwjt
p2
I1
s.(dp0
Vd2bomvh
p1
I1
sVcyjiwjt
p2
I1
s.(dp0
Vd2tl8zf
p1
I1
sVcyjiwjt
p2
I1
s.(dp0
Vd2ud99h
p1
I1
sVcyjiwjt
p2
I1
s.(dp0
Vd38zaw0
p1
I1
sVcyjiwjt
p2
I1
s.(dp0
Vd3bw2qr
p1
I1
sVcyjiwjt
p2
I1
s.(dp0
Vd3ilmgy
p1
I1
sVcyjiwjt
p2
I1
s.(dp0
Vd3kv5bq
p1
I1
sVcyjiwjt
p2
I1
s.(dp0
Vd3yku1a
p1
I1
sVcyjiwjt
p2
I1
s.(dp0
Vd45bveg
p1
I1
sVcyjiwjt
p2
I1
s.(dp0
Vd4pwevf
p1
I1
sVcyjiwjt
p2
I1
s.(dp0
Vd5giwi7
p1
I1
sVcyjiwjt
p2
I1
s.(dp0
Vd5ivt8o
p1
I1
sVcyjiwjt
p2
I1
s.(dp0
Vd5l1ehr
p1
I1
sVcyjiwjt
p2
I1
s.(dp0
Vd5p0fop
p1
I1
sVcyjiwjt
p2
I1
s.(dp0
Vd5t3kn5
p1
I1
sVcyjiwjt
p2
I1
s.(dp0
Vd5u5zos
p1
I1
sVcyjiwjt
p2
I1
s.(dp0
Vd61sljg
p1
I1
sVcyjiwjt
p2
I1
s.(dp0
Vd623ujr
p1
I1
sVcyjiwjt
p2
I1
s.(dp0
Vd623ujr
p1
I1
sVcyjiwjt
p2
I1
s.(dp0
Vd623ujr
p1
I1
sVcyjiwjt
p2
I1
s.(dp0
Vd63pnxh
p1
I1
sVcyjiwjt
p2
I1
s.(dp0
Vd64pcyr
p1
I1
sVcyjiwjt
p2
I1
s.(dp0
Vd68fjsd
p1
I1
sVcyjiwjt
p2
I1
s.(dp0
Vd69qcvp
p1
I1
sVcyjiwjt
p2
I1
s.(dp0
Vd6co03h
p1
I1
sVcyjiwjt
p2
I1
s.(dp0
Vd6co03h
p1
I1
sVcyjiwjt
p2
I1
s.(dp0
Vd6eb3xq
p1
I1
sVcyjiwjt
p2
I1
s.(dp0
Vd6ermy1
p1
I1
sVcyjiwjt
p2
I1
s.(dp0
Vd6ermy1
p1
I1
sVcyjiwjt
p2
I1
s.(dp0
Vd6vr1iy
p1
I1
sVcyjiwjt
p2
I1
s.(dp0
Vd6vr1iy
p1
I1
sVcyjiwjt
p2
I1
s.(dp0
Vd6vr1iy
p1
I1
sVcyjiwjt
p2
I1
s.(dp0
Vd7lqqqp
p1
I1
sVcyjiwjt
p2
I1
s.(dp0
Vd8672if
p1
I1
sVcyjiwjt
p2
I1
s.(dp0
Vd8aqj3v
p1
I1
sVcyjiwjt
p2
I1
s.(dp0
Vd8wd6d6
p1
I1
sVcyjiwjt
p2
I1
s.(dp0
Vd8zznez
p1
I1
sVcyjiwjt
p2
I1
s.(dp0
Vd92usms
p1
I1
sVcyjiwjt
p2
I1
s.(dp0
Vd94bdwk
p1
I1
sVcyjiwjt
p2
I1
s.(dp0
Vd95s6ff
p1
I1
sVcyjiwjt
p2
I1
s.(dp0
Vd95uii1
p1
I1
sVcyjiwjt
p2
I1
s.(dp0
Vd96k475
p1
I1
sVcyjiwjt
p2
I1
s.(dp0
Vd96k475
p1
I1
sVcyjiwjt
p2
I1
s.(dp0
Vd96k475
p1
I1
sVcyjiwjt
p2
I1
s.(dp0
Vd96k475
p1
I1
sVcyjiwjt
p2
I1
s.(dp0
Vd9bhy6s
p1
I1
sVcyjiwjt
p2
I1
s.(dp0
Vd9tnk9h
p1
I1
sVcyjiwjt
p2
I1
s.(dp0
Vda76l4u
p1
I1
sVcyjiwjt
p2
I1
s.(dp0
Vda77dem
p1
I1
sVcyjiwjt
p2
I1
s.(dp0
Vdb86b3y
p1
I1
sVcyjiwjt
p2
I1
s.(dp0
Vdb8h0a6
p1
I1
sVcyjiwjt
p2
I1
s.(dp0
Vdb8tc6c
p1
I1
sVcyjiwjt
p2
I1
s.(dp0
Vdb90w3n
p1
I1
sVcyjiwjt
p2
I1
s.(dp0
Vdbcikmn
p1
I1
sVcyjiwjt
p2
I1
s.(dp0
Vdclnjog
p1
I1
sVcyjiwjt
p2
I1
s.(dp0
Vdd2ajfo
p1
I1
sVcyjiwjt
p2
I1
s.(dp0
Vdd2ajfo
p1
I1
sVcyjiwjt
p2
I1
s.(dp0
Vdd5liu2
p1
I1
sVcyjiwjt
p2
I1
s.(dp0
Vddp6oq5
p1
I1
sVcyjiwjt
p2
I1
s.(dp0
Vddpjf5c
p1
I1
sVcyjiwjt
p2
I1
s.(dp0
Vddxbz6p
p1
I1
sVcyjiwjt
p2
I1
s.(dp0
Vde2awmw
p1
I1
sVcyjiwjt
p2
I1
s.(dp0
Vdeiok6c
p1
I1
sVcyjiwjt
p2
I1
s.(dp0
Vdekyab1
p1
I1
sVcyjiwjt
p2
I1
s.(dp0
Vdeno4uc
p1
I1
sVcyjiwjt
p2
I1
s.(dp0
Vdes86mg
p1
I1
sVcyjiwjt
p2
I1
s.(dp0
Vdezv58v
p1
I1
sVcyjiwjt
p2
I1
s.(dp0
Vdfmuan3
p1
I1
sVcyjiwjt
p2
I1
s.(dp0
Vdfn26m2
p1
I1
sVcyjiwjt
p2
I1
s.(dp0
Vdfnvntf
p1
I1
sVcyjiwjt
p2
I1
s.(dp0
Vdfnvntf
p1
I1
sVcyjiwjt
p2
I1
s.(dp0
Vdgqjmdp
p1
I1
sVcyjiwjt
p2
I1
s.(dp0
Vdh13jwp
p1
I1
sVcyjiwjt
p2
I1
s.(dp0
Vdhrlj8p
p1
I1
sVcyjiwjt
p2
I1
s.(dp0
Vdi49ud7
p1
I1
sVcyjiwjt
p2
I1
s.(dp0
Vdi49ud7
p1
I1
sVcyjiwjt
p2
I1
s.(dp0
Vdicw4w4
p1
I1
sVcyjiwjt
p2
I1
s.(dp0
Vdicw4w4
p1
I1
sVcyjiwjt
p2
I1
s.(dp0
Vdip788g
p1
I1
sVcyjiwjt
p2
I1
s.(dp0
Vditi9wa
p1
I1
sVcyjiwjt
p2
I1
s.(dp0
Vdj4qug6
p1
I1
sVcyjiwjt
p2
I1
s.(dp0
Vdj4qug6
p1
I1
sVcyjiwjt
p2
I1
s.(dp0
Vdjeipkc
p1
I1
sVcyjiwjt
p2
I1
s.(dp0
Vdku3hq1
p1
I1
sVcyjiwjt
p2
I1
s.(dp0
Vdku9zi4
p1
I1
sVcyjiwjt
p2
I1
s.(dp0
Vdkuji6x
p1
I1
sVcyjiwjt
p2
I1
s.(dp0
Vdmitihr
p1
I1
sVcyjiwjt
p2
I1
s.(dp0
Vdmitihr
p1
I1
sVcyjiwjt
p2
I1
s.(dp0
Vdmitihr
p1
I1
sVcyjiwjt
p2
I1
s.(dp0
Vdn3se48
p1
I1
sVcyjiwjt
p2
I1
s.(dp0
Vdn6t7t0
p1
I1
sVcyjiwjt
p2
I1
s.(dp0
Vdntd1ue
p1
I1
sVcyjiwjt
p2
I1
s.(dp0
Vdnz2nv1
p1
I1
sVcyjiwjt
p2
I1
s.(d(dp0
Vdtdx9zy
p1
I1
sVcyjiwjt
p2
I1
s.