(dp0
Vdenypa3
p1
I1
sVdot27vq
p2
I3
sVd9e2ogn
p3
I1
sVdfb6105
p4
I1
sVdai0lk1
p5
I1
sVdj6oyvf
p6
I1
sVd5oqxpe
p7
I1
sVdajo4bb
p8
I1
sVdbwt4wy
p9
I1
sVdjjprru
p10
I1
sVd242a7d
p11
I1
sVddivmsp
p12
I1
sVd12cr13
p13
I1
sVd9y2j5h
p14
I1
sVd0ywhil
p15
I2
sVdt4vanb
p16
I1
sVd6iyjqc
p17
I1
sVdhqmqkr
p18
I1
sVd20p8r3
p19
I1
sVdd1zu4v
p20
I1
sVdb6leg8
p21
I1
sVdo21199
p22
I1
sVdku8rmn
p23
I1
sVdhhy6bi
p24
I1
sVcz7kaje
p25
I1
sVd7feize
p26
I1
sVdbc9y5s
p27
I1
sVd4h1see
p28
I1
sVczggz4p
p29
I1
sVd3jsjsv
p30
I1
sVdh0ig4x
p31
I1
sVdjc6dl9
p32
I1
sVd03g03s
p33
I1
sVdaaew0b
p34
I1
sVd1znh6p
p35
I1
sVcyxmmn3
p36
I1
sVd0w3nz8
p37
I1
sVdmz74h9
p38
I1
sVda29qlb
p39
I1
sVda1qsez
p40
I1
sVdpq60pp
p41
I2
sVd2dg2mt
p42
I1
sVdilhe3r
p43
I1
sVd0z6oci
p44
I1
sVcz8cmuq
p45
I1
sVd37pr1h
p46
I2
sVd1mk5lm
p47
I1
sVdfi85qw
p48
I1
sVdst4hxu
p49
I1
sVdngjhpf
p50
I1
sVdaxjgtv
p51
I1
sVd947kdi
p52
I1
sVd0rj1l8
p53
I1
sVdkvw089
p54
I2
sVd0ykosg
p55
I1
sVd5useef
p56
I1
sVd95eyjo
p57
I1
sVczma8b5
p58
I1
sVdc50a29
p59
I1
sVd5y79up
p60
I1
sVde7n26v
p61
I2
sVd0bs7ug
p62
I1
sVd2n9n5k
p63
I2
sVd0ae2p6
p64
I1
sVdg8sxfn
p65
I1
sVdrwqlq8
p66
I1
sVcynwsq1
p67
I1
sVd5601lt
p68
I1
sVd3pxxdx
p69
I1
sVdiv324v
p70
I1
sVdgty0tt
p71
I1
sVcyn1t78
p72
I1
sVd8k3n1i
p73
I1
sVddf0clx
p74
I1
sVd4gqtv9
p75
I1
sVdf1d1l1
p76
I1
sVdojg292
p77
I1
sVd2qvtia
p78
I1
sVdcmg6wa
p79
I1
sVd2oad7r
p80
I1
sVcz1fzqg
p81
I1
sVddt5my4
p82
I1
sVdf7g5ji
p83
I1
sVdb9k3vl
p84
I1
sVdp8tzo7
p85
I1
sVd8g2oxe
p86
I1
sVdb2vzc1
p87
I1
sVd7pnhj2
p88
I1
sVd8jlf19
p89
I1
sVdjdhjn5
p90
I1
sVd1jm2r0
p91
I1
sVd1mbhya
p92
I1
sVd03algv
p93
I2
sVd5b8lpm
p94
I1
sVdqcvm3c
p95
I1
sVdt3qn7p
p96
I1
sVcyn0ta8
p97
I1
sVdot2gwl
p98
I1
sVdfhiuwo
p99
I1
sVd0q81fe
p100
I1
sVdgcmyux
p101
I2
sVd08ykki
p102
I1
sVd4o9oos
p103
I1
sVdd48b4z
p104
I1
sVdmft1ve
p105
I1
sVdo96sq3
p106
I1
sVdjxwdef
p107
I1
sVd2hj8n3
p108
I1
sVdpnazwb
p109
I1
sVdavxue8
p110
I1
sVdr4xtok
p111
I1
sVdc08ob6
p112
I1
sVd6nviyn
p113
I1
sVdb63n88
p114
I1
sVdopjz38
p115
I2
sVd9vq368
p116
I1
sVd4l0ara
p117
I1
sVd3wqw95
p118
I1
sVdc3cacl
p119
I1
sVdehd0pw
p120
I1
sVd795l6a
p121
I1
sVddrbgk9
p122
I1
sVd4zbk3y
p123
I1
sVd0xpus5
p124
I1
sVdbroepl
p125
I1
sVd2nbuol
p126
I1
sVdjudjgm
p127
I1
sVd8ocxyd
p128
I2
sVdqsdcf4
p129
I1
sVd55x04r
p130
I1
sVd9tpg4c
p131
I1
sVdr4yhff
p132
I1
s.