(dp0
Vdf0qghy
p1
I1
sVda171ri
p2
I1
sVd94zma0
p3
I1
sVdnby30t
p4
I1
sVdf63hls
p5
I1
sVd3uhu68
p6
I1
sVdkyh66r
p7
I2
sVd2hfpsh
p8
I1
sVdakv2l0
p9
I1
sVdjem239
p10
I1
sVdkg8dno
p11
I1
sVd70ufhk
p12
I1
sVdd1ew7r
p13
I1
sVdbcnzoo
p14
I1
sVcyxp0j8
p15
I1
sVd0m250t
p16
I1
sVd0cwbg8
p17
I1
sVd1tiycl
p18
I1
sVd8w3ex0
p19
I3
sVdbcyow6
p20
I2
sVd0ulcj0
p21
I1
sVda15rbr
p22
I1
sVdiw1wva
p23
I1
sVdeiyots
p24
I2
sVddheppt
p25
I1
sVdab2ia0
p26
I1
sVdn8bf0c
p27
I1
sVd0y7yhn
p28
I1
sVdcue0j8
p29
I1
sVda19cbh
p30
I2
sVdposysu
p31
I1
sVd8yyi4a
p32
I1
sVdkt5aka
p33
I2
sVdcmn4g3
p34
I1
sVdtafcnw
p35
I1
sVdbirc4f
p36
I1
sVda1nx7f
p37
I1
sVdiv4e2c
p38
I1
sVd3qt6xv
p39
I1
sVd9a4mh8
p40
I1
sVdnu3vn0
p41
I4
sVczhp3nr
p42
I1
sVdabby3c
p43
I2
s.