(dp0
Vcyj3vm1
p1
I1
s.(dp0
Vcykprau
p1
I1
sVcyj3vm1
p2
I1
s.(dp0
Vcyj3vm1
p1
I1
sVcylihz5
p2
I1
s.(dp0
Vcyltya3
p1
I1
sVcyj3vm1
p2
I1
s.(dp0
Vcynycfc
p1
I1
sVcyj3vm1
p2
I1
s.(dp0
Vcyj3vm1
p1
I1
sVcyrip9k
p2
I1
s.(dp0
Vcys8lut
p1
I1
sVcyj3vm1
p2
I1
s.(dp0
Vcyj3vm1
p1
I1
sVcysxagi
p2
I1
s.(dp0
Vcyj3vm1
p1
I1
sVcyvfap4
p2
I1
s.(dp0
Vcyvhh60
p1
I1
sVcyj3vm1
p2
I1
s.(dp0
Vcyx0695
p1
I1
sVcyj3vm1
p2
I1
s.(dp0
Vcz0jdzq
p1
I1
sVcyj3vm1
p2
I1
s.(dp0
Vcz0jdzq
p1
I1
sVcyj3vm1
p2
I1
s.(dp0
Vcz0jdzq
p1
I1
sVcyj3vm1
p2
I1
s.(dp0
Vcz29sy3
p1
I1
sVcyj3vm1
p2
I1
s.(dp0
Vcz3xkgh
p1
I1
sVcyj3vm1
p2
I1
s.(dp0
Vcz3zpcn
p1
I1
sVcyj3vm1
p2
I1
s.(dp0
Vcz4wd9y
p1
I1
sVcyj3vm1
p2
I1
s.(dp0
Vcz4wd9y
p1
I1
sVcyj3vm1
p2
I1
s.(dp0
Vcz4wd9y
p1
I1
sVcyj3vm1
p2
I1
s.(dp0
Vcz4wd9y
p1
I1
sVcyj3vm1
p2
I1
s.(dp0
Vcz6gnsb
p1
I1
sVcyj3vm1
p2
I1
s.(dp0
Vczdjb51
p1
I1
sVcyj3vm1
p2
I1
s.(dp0
Vczdmqap
p1
I1
sVcyj3vm1
p2
I1
s.(dp0
Vczg1edw
p1
I1
sVcyj3vm1
p2
I1
s.(dp0
Vczg1edw
p1
I1
sVcyj3vm1
p2
I1
s.(dp0
Vczg1edw
p1
I1
sVcyj3vm1
p2
I1
s.(dp0
Vczg1edw
p1
I1
sVcyj3vm1
p2
I1
s.(dp0
Vczg1edw
p1
I1
sVcyj3vm1
p2
I1
s.(dp0
Vczhtm4c
p1
I1
sVcyj3vm1
p2
I1
s.(dp0
Vcyj3vm1
p1
I1
sVczin6pl
p2
I1
s.(dp0
Vcyj3vm1
p1
I1
sVczlnddb
p2
I1
s.(dp0
Vcyj3vm1
p1
I1
sVczlnddb
p2
I1
s.(dp0
Vczm1tic
p1
I1
sVcyj3vm1
p2
I1
s.(dp0
Vczollq4
p1
I1
sVcyj3vm1
p2
I1
s.(dp0
Vczollq4
p1
I1
sVcyj3vm1
p2
I1
s.(dp0
Vczollq4
p1
I1
sVcyj3vm1
p2
I1
s.(dp0
Vczollq4
p1
I1
sVcyj3vm1
p2
I1
s.(dp0
Vczqi7je
p1
I1
sVcyj3vm1
p2
I1
s.(dp0
Vczs00zz
p1
I1
sVcyj3vm1
p2
I1
s.(dp0
Vcyj3vm1
p1
I1
sVczwe3ue
p2
I1
s.(dp0
Vcyj3vm1
p1
I1
sVczwe3ue
p2
I1
s.(dp0
Vczwzeg6
p1
I1
sVcyj3vm1
p2
I1
s.(dp0
Vcyj3vm1
p1
I1
sVczx2ugg
p2
I1
s.(dp0
Vczxqx3t
p1
I1
sVcyj3vm1
p2
I1
s.(dp0
Vd04jjmu
p1
I1
sVcyj3vm1
p2
I1
s.(dp0
Vd06klkp
p1
I1
sVcyj3vm1
p2
I1
s.(dp0
Vcyj3vm1
p1
I1
sVd08095o
p2
I1
s.(dp0
Vd09elst
p1
I1
sVcyj3vm1
p2
I1
s.(dp0
Vcyj3vm1
p1
I1
sVd0b263i
p2
I1
s.(dp0
Vd0ehonq
p1
I1
sVcyj3vm1
p2
I1
s.(dp0
Vd0frmac
p1
I1
sVcyj3vm1
p2
I1
s.(dp0
Vd0ij3ib
p1
I1
sVcyj3vm1
p2
I1
s.(dp0
Vd0ij3ib
p1
I1
sVcyj3vm1
p2
I1
s.(dp0
Vd0l0h9w
p1
I1
sVcyj3vm1
p2
I1
s.(dp0
Vd0n0k64
p1
I1
sVcyj3vm1
p2
I1
s.(dp0
Vcyj3vm1
p1
I1
sVd0n53vp
p2
I1
s.(dp0
Vd0ouxyk
p1
I1
sVcyj3vm1
p2
I1
s.(dp0
Vd0r72zy
p1
I1
sVcyj3vm1
p2
I1
s.(dp0
Vd0tyhje
p1
I1
sVcyj3vm1
p2
I1
s.(dp0
Vcyj3vm1
p1
I1
sVd0u6bse
p2
I1
s.(dp0
Vcyj3vm1
p1
I1
sVd0wxm48
p2
I1
s.(dp0
Vcyj3vm1
p1
I1
sVd0wxm48
p2
I1
s.(dp0
Vd0x7nph
p1
I1
sVcyj3vm1
p2
I1
s.(dp0
Vd0yxj3o
p1
I1
sVcyj3vm1
p2
I1
s.(dp0
Vd14buy4
p1
I1
sVcyj3vm1
p2
I1
s.(dp0
Vd16zppp
p1
I1
sVcyj3vm1
p2
I1
s.(dp0
Vd174du9
p1
I1
sVcyj3vm1
p2
I1
s.(dp0
Vcyj3vm1
p1
I1
sVd17b1ny
p2
I1
s.(dp0
Vd17cu1z
p1
I1
sVcyj3vm1
p2
I1
s.(dp0
Vd18w8lq
p1
I1
sVcyj3vm1
p2
I1
s.(dp0
Vd1f4anb
p1
I1
sVcyj3vm1
p2
I1
s.(dp0
Vd1f4anb
p1
I1
sVcyj3vm1
p2
I1
s.(dp0
Vcyj3vm1
p1
I1
sVd1f4ezv
p2
I1
s.(dp0
Vcyj3vm1
p1
I1
sVd1f4ezv
p2
I1
s.(dp0
Vd1fpir5
p1
I1
sVcyj3vm1
p2
I1
s.(dp0
Vd1inxsk
p1
I1
sVcyj3vm1
p2
I1
s.(dp0
Vcyj3vm1
p1
I1
sVd1o52e7
p2
I1
s.(dp0
Vd1subgg
p1
I1
sVcyj3vm1
p2
I1
s.(dp0
Vd1sukbz
p1
I1
sVcyj3vm1
p2
I1
s.(dp0
Vd1uizpk
p1
I1
sVcyj3vm1
p2
I1
s.(dp0
Vcyj3vm1
p1
I1
sVd1voiro
p2
I1
s.(dp0
Vd1wc6wa
p1
I1
sVcyj3vm1
p2
I1
s.(dp0
Vd20f3qo
p1
I1
sVcyj3vm1
p2
I1
s.(dp0
Vd212ynv
p1
I1
sVcyj3vm1
p2
I1
s.(dp0
Vd228d9q
p1
I1
sVcyj3vm1
p2
I1
s.(dp0
Vd22jw13
p1
I1
sVcyj3vm1
p2
I1
s.(dp0
Vd22jw13
p1
I1
sVcyj3vm1
p2
I1
s.(dp0
Vcyj3vm1
p1
I1
sVd22skxb
p2
I1
s.(dp0
Vd26uy6g
p1
I1
sVcyj3vm1
p2
I1
s.(dp0
Vcyj3vm1
p1
I1
sVd2716rj
p2
I1
s.(dp0
Vcyj3vm1
p1
I1
sVd2716rj
p2
I1
s.(dp0
Vd275xn7
p1
I1
sVcyj3vm1
p2
I1
s.(dp0
Vd28fvcl
p1
I1
sVcyj3vm1
p2
I1
s.(dp0
Vd2906sz
p1
I1
sVcyj3vm1
p2
I1
s.(dp0
Vd2906sz
p1
I1
sVcyj3vm1
p2
I1
s.(dp0
Vd2906sz
p1
I1
sVcyj3vm1
p2
I1
s.(dp0
Vd296a38
p1
I1
sVcyj3vm1
p2
I1
s.(dp0
Vd2abms3
p1
I1
sVcyj3vm1
p2
I1
s.(dp0
Vcyj3vm1
p1
I1
sVd2ftcp9
p2
I1
s.(dp0
Vd2fwz3r
p1
I1
sVcyj3vm1
p2
I1
s.(dp0
Vd2fwz3r
p1
I1
sVcyj3vm1
p2
I1
s.(dp0
Vcyj3vm1
p1
I1
sVd2i0p2i
p2
I1
s.(dp0
Vcyj3vm1
p1
I1
sVd2kxvov
p2
I1
s.(dp0
Vd2mrbkg
p1
I1
sVcyj3vm1
p2
I1
s.(dp0
Vcyj3vm1
p1
I1
sVd2qf007
p2
I1
s.(dp0
Vd2rjaac
p1
I1
sVcyj3vm1
p2
I1
s.(dp0
Vd2rjaac
p1
I1
sVcyj3vm1
p2
I1
s.(dp0
Vcy(dp0
Vcyj3vm1
p1
I1
sVdtjmlgh
p2
I1
s.