(dp0
Vd4tts7m
p1
I2
sVd4tvvw3
p2
I1
sVdc7myt0
p3
I1
sVdta5wm3
p4
I1
sVdc7ma3c
p5
I2
sVd0d1ff6
p6
I2
sVdc7fosh
p7
I3
sVd6g45jo
p8
I2
sVdd3lg7r
p9
I1
sVdc7ig6q
p10
I1
sVd4ukdhx
p11
I2
sVd4ukgc3
p12
I2
sVdc7cmf4
p13
I2
sVdjhwcw7
p14
I1
s.