(dp0
Vd68tezb
p1
I1
sVd0j5jol
p2
I1
sVd4lkgki
p3
I1
sVd1ms6du
p4
I1
sVczoncf6
p5
I1
sVdghlcf7
p6
I1
sVd15j167
p7
I1
sVd16h882
p8
I1
sVdjkaewp
p9
I3
sVd3eo5r6
p10
I1
sVdj8yd9i
p11
I1
sVd2jjv5a
p12
I1
sVd4lq5qp
p13
I2
sVd1ml0ts
p14
I1
sVcyls1aw
p15
I1
sVcyls3zg
p16
I1
sVcyme3mx
p17
I1
sVd90947v
p18
I1
sVdjkertd
p19
I2
sVd692c77
p20
I2
s.