(dp0
Vdd0zmgu
p1
I1
sVdekmz8y
p2
I1
sVdekna3w
p3
I2
sVdd0zkw1
p4
I1
sVd2flm4q
p5
I1
sVd8795x6
p6
I1
sVdrss874
p7
I1
sVd2ecboc
p8
I1
sVd92pig8
p9
I1
sVd5wge8t
p10
I1
sVd2482vp
p11
I1
sVd9m3nm6
p12
I1
sVd139f5a
p13
I2
sVd136vk3
p14
I1
s.