(dp0
Vdbjv0ey
p1
I1
sVddf4czm
p2
I8
sVdd9vodq
p3
I1
sVd6x7fjo
p4
I1
sVdp6i6x1
p5
I1
sVdkn51g8
p6
I1
sVdditrrb
p7
I1
sVdj5xv87
p8
I1
sVd9tu9rd
p9
I1
sVd0rwgqg
p10
I1
sVdjuperu
p11
I1
sVd7mgthp
p12
I1
sVczcr45y
p13
I1
sVdcl262v
p14
I1
sVdquy0hc
p15
I1
sVd9ume0d
p16
I5
sVdbel4s4
p17
I1
sVddcihb5
p18
I1
sVd3bwzpd
p19
I1
sVdig1ftw
p20
I2
sVdbnsxtp
p21
I2
sVdn7wby6
p22
I1
sVd7mexob
p23
I1
sVczxnxp0
p24
I1
sVd4l7iet
p25
I1
sVddcqmxo
p26
I1
sVdde9kyq
p27
I1
sVdddadiu
p28
I2
sVdgsnpn7
p29
I1
sVdajnyi8
p30
I1
sVdn7j3fl
p31
I1
sVdn803fp
p32
I1
sVdd879qw
p33
I1
sVd9t0fms
p34
I1
sVdmtbier
p35
I1
sVd0ipdlp
p36
I1
sVd1oqc3v
p37
I1
sVcz86pop
p38
I2
sVdju98l9
p39
I1
sVd7mgw9g
p40
I1
sVd4dbysn
p41
I1
sVdduvyyr
p42
I1
sVdawy638
p43
I1
sVd7v4mgd
p44
I1
sVdnlxmyc
p45
I1
sVczltrad
p46
I1
sVdrpp7bh
p47
I1
sVdpmljul
p48
I1
sVdn83391
p49
I1
sVd3lxgmb
p50
I3
sVd5dyjz6
p51
I1
sVdj9gb0y
p52
I1
sVdhhkyo9
p53
I1
sVddculqw
p54
I1
sVd8d6g04
p55
I1
sVdkrxssx
p56
I2
sVdeq57bs
p57
I1
sVdfl29tp
p58
I1
sVds79ms7
p59
I1
sVd2cmoxu
p60
I1
sVd0z3z99
p61
I1
sVd0l227o
p62
I1
sVczavspe
p63
I1
sVdjkl10u
p64
I1
sVddctb4b
p65
I1
sVddcwmcl
p66
I2
sVd0h9tsj
p67
I1
sVdaimf2s
p68
I1
sVdfqy1sl
p69
I1
sVd7xh785
p70
I1
sVd5e0aw6
p71
I1
sVdn86a44
p72
I2
sVczfocbs
p73
I3
sVd1u3su0
p74
I1
sVd9ed950
p75
I1
sVd446u94
p76
I1
sVdihpjb4
p77
I1
sVdn7vt08
p78
I3
sVddd4rgd
p79
I4
sVcziyiyo
p80
I1
sVdhx9o4w
p81
I2
sVd8jsyh0
p82
I1
sVdjf7ynb
p83
I1
sVd69mnz7
p84
I2
sVdi7fpf8
p85
I1
sVdcaotl6
p86
I1
sVdiw5v6t
p87
I3
sVdfx1ysb
p88
I1
sVdc3yky4
p89
I1
sVdp4zb32
p90
I1
sVdn7tl7b
p91
I1
sVddcyhqw
p92
I1
sVd5kx2er
p93
I1
sVddcpuqk
p94
I1
sVd85jqva
p95
I1
sVdcz9l06
p96
I1
sVd0crab7
p97
I1
sVcynhyi7
p98
I1
sVdn4m8a4
p99
I1
sVdegc0kx
p100
I1
sVd69pphl
p101
I1
sVdggvfn1
p102
I1
sVd3m69vn
p103
I1
sVdce8scf
p104
I1
sVd9njc2d
p105
I1
sVd01eky4
p106
I3
sVddcn56n
p107
I1
sVdhn3x1o
p108
I1
sVdguntqh
p109
I1
sVdflp63t
p110
I1
sVd4qsvtb
p111
I1
sVd24u0wg
p112
I1
sVd9gkmhz
p113
I1
sVdejg771
p114
I1
sVd38rjdk
p115
I1
sVd0pmiol
p116
I1
sVdnlx2n2
p117
I1
sVd0pur1k
p118
I1
sVdcarpe8
p119
I1
sVd6ktmce
p120
I1
sVd0molbj
p121
I1
sVd3gwost
p122
I2
sVdk39rij
p123
I1
sVdqkasgx
p124
I1
sVdkt05zi
p125
I1
sVd0pjq36
p126
I1
sVd64kdyo
p127
I1
sVdf07gdx
p128
I1
sVd36ydjh
p129
I1
sVd4qhog0
p130
I3
sVdab2k4w
p131
I1
sVdn7sc1y
p132
I1
sVd0t9z7s
p133
I1
sVdaqslgh
p134
I2
sVdd3tstt
p135
I1
sVd8ezvhv
p136
I1
sVdshaprd
p137
I3
sVd1hiji5
p138
I1
sVdibq0ov
p139
I1
sVdrzlqi9
p140
I1
sVdev18nd
p141
I1
sVd3s5y4i
p142
I1
sVdegady3
p143
I2
sVcyi5gh7
p144
I1
sVd7j6zke
p145
I1
sVdnkne0h
p146
I1
sVd4ezrtb
p147
I1
sVdk2qj8w
p148
I1
sVd07xi6s
p149
I1
sVd7mi8kk
p150
I1
sVd2i5mg6
p151
I1
sVd303p7v
p152
I1
sVd1irx8d
p153
I2
sVdixzvls
p154
I1
sVddkghhh
p155
I1
sVdjd6l34
p156
I2
sVdblow9k
p157
I1
sVddw8lp4
p158
I1
sVd1dofss
p159
I1
sVdek3pb6
p160
I1
sVdhnifqc
p161
I1
sVd89h4up
p162
I5
sVddcsjd1
p163
I1
sVdexb8hw
p164
I1
sVd397n6x
p165
I2
sVddpkhgd
p166
I2
sVdegbi4y
p167
I2
sVd8z5c62
p168
I1
sVcz8gvag
p169
I1
sVdebb9yt
p170
I1
sVdsxa0cs
p171
I1
sVdeubkqk
p172
I1
sVdbnogs9
p173
I1
sVdabtrxb
p174
I1
sVdkn4838
p175
I1
sVdnmf0it
p176
I1
sVczfma52
p177
I1
sVdckk9ev
p178
I2
sVdjaz0t1
p179
I1
sVdd90u6g
p180
I1
sVdq3qj9z
p181
I1
sVddwjotv
p182
I1
sVd84l9r1
p183
I2
sVdn7qhl7
p184
I3
sVd2j7ifr
p185
I1
sVde30e7a
p186
I1
sVdk5y65h
p187
I1
sVd2dwgur
p188
I1
sVdn8j27z
p189
I1
sVdphh8h2
p190
I1
sVdke396f
p191
I1
sVdhn7j9h
p192
I1
sVdmeo4wf
p193
I1
sVdn7ylo3
p194
I1
sVd7mic8h
p195
I10
sVdhhauew
p196
I1
sVd3mtrkv
p197
I1
sVd0rfdhi
p198
I1
sVd7lbx70
p199
I1
sVdnlnlod
p200
I1
sVd8o9lgy
p201
I1
sVd0xf6cg
p202
I1
sVdn8h257
p203
I4
sVd6ppn5u
p204
I1
sVdkmulzx
p205
I3
sVczb2yvu
p206
I1
sVdhnid0e
p207
I1
sVd0fmq00
p208
I1
sVcyog5e3
p209
I1
sVdem7dew
p210
I1
sVd3108jz
p211
I1
sVcziqhro
p212
I1
sVd5wtgwu
p213
I1
sVcz4g428
p214
I1
sVdbzmi8w
p215
I1
sVd278c5s
p216
I1
sVdn83fms
p217
I3
sVdofp0gj
p218
I1
sVds8goic
p219
I1
sVd2r9ec8
p220
I1
sVdi7jg6j
p221
I1
sVdjz4f9e
p222
I2
sVdde9jla
p223
I1
sVd38qv0x
p224
I2
sVdn88dy6
p225
I1
sVdeyz20y
p226
I1
sVdjwyzti
p227
I1
sVczhay3a
p228
I1
sVd645rj0
p229
I1
sVdd71c8u
p230
I1
sVd8sdzqv
p231
I1
sVczbq7gi
p232
I1
sVd2q3cvu
p233
I1
sVd56o80l
p234
I1
sVdc7ipxn
p235
I1
sVd18qrdt
p236
I1
sVdd7467u
p237
I1
sVdmh7sh5
p238
I1
sVdjv8smg
p239
I1
sVd548poa
p240
I1
sVd7zw3tq
p241
I1
sVddz4e19
p242
I1
sVdjlnco6
p243
I1
sVd34xrll
p244
I2
sVdehwn30
p245
I2
sVdjup8ax
p246
I1
sVczlil60
p247
I1
sVddcqlly
p248
I1
sVczhpeec
p249
I2
sVd6lgt1s
p250
I1
sVd09e57g
p251
I1
sVdqbwgb1
p252
I5
sVdkn8d3u
p253
I2
sVd80an3e
p254
I1
sVd2pvtnc
p255
I1
sVdew8ws5
p256
I1
sVdiz25vy
p257
I1
sVdbgvb42
p258
I1
sVddwkewr
p259
I1
sVd070x5f
p260
I6
sVd8556ub
p261
I2
sVddcmhtn
p262
I1
sVdrj2kqw
p263
I1
sVdivh466
p264
I1
sVdn812n5
p265
I4
sVd7te9p0
p266
I1
sVd4zf6tl
p267
I1
sVddbell9
p268
I1
sVczlak88
p269
I1
sVdio6qvu
p270
I1
sVdfh55n6
p271
I1
sVdn8bf0c
p272
I2
sVdgh88b8
p273
I1
sVd7m4706
p274
I1
sVdjz5lgq
p275
I1
sVdasegtw
p276
I1
sVdjb72yx
p277
I1
sVdnl261u
p278
I2
sVdc4s81o
p279
I1
sVddclaff
p280
I3
sVd0g715x
p281
I1
sVdjtficd
p282
I1
sVd6d7dgw
p283
I1
sVddcofgk
p284
I4
sVdfk45rf
p285
I1
sVdcn5g4m
p286
I2
sVd6ppkhp
p287
I2
sVdiw55vb
p288
I2
sVdn8mssm
p289
I1
sVdi7n7dk
p290
I1
sVd9pvk7m
p291
I1
sVd0hxv07
p292
I1
sVdawpif5
p293
I1
sVdnkpt3l
p294
I1
sVd6uj3q2
p295
I1
sVdbh4mk3
p296
I1
sVd4snyt3
p297
I1
sVd077bl4
p298
I1
sVcyly2xs
p299
I1
sVdd5bvl1
p300
I1
sVd4kp7dr
p301
I1
sVdfsj5nh
p302
I1
sVczaubn9
p303
I1
sVd4xw36d
p304
I1
sVdkbiutj
p305
I1
sVddp3lrj
p306
I1
sVdcxmw12
p307
I1
sVdh651sh
p308
I1
sVd8bi40u
p309
I1
sVdegkr3a
p310
I1
sVdr2a6ua
p311
I3
sVd5xgx2x
p312
I1
sVddcnev9
p313
I2
sVdfsp2v0
p314
I1
sVdawpw8k
p315
I1
sVddwghfl
p316
I1
sVd0sscsj
p317
I1
sVczxi50e
p318
I1
sVd16grwc
p319
I1
sVcz92i07
p320
I2
sVd5ozpu6
p321
I1
sVdc7j4vf
p322
I2
sVdjkll75
p323
I1
sVd85mzfd
p324
I1
sVd417oxv
p325
I1
sVdp4yjfd
p326
I1
sVdguby1w
p327
I1
sVcznwhao
p328
I1
sVdaasvbk
p329
I2
sVd2dtbw4
p330
I2
sVddg88uw
p331
I2
sVd96pi6l
p332
I1
sVd6oxq27
p333
I1
sVdf00wcj
p334
I1
sVd3ga5qu
p335
I1
sVdii3ipp
p336
I1
sVdn8cjad
p337
I1
sVd4lolg8
p338
I1
sVddcrjjg
p339
I2
sVd6nm509
p340
I1
sVd70y9gn
p341
I1
sVcys9dlg
p342
I1
sVdeorucl
p343
I2
sVdhfsryg
p344
I1
sVd4zn4ak
p345
I1
sVdiovj92
p346
I1
sVdn4czfd
p347
I1
sVdazzd11
p348
I2
sVd6x3sky
p349
I1
sVdgxuvuq
p350
I1
sVdtd7aef
p351
I1
sVdneu9ml
p352
I1
sVdekq96u
p353
I1
sVdo8g1gx
p354
I1
sVdiod63u
p355
I1
sVd3jo8vm
p356
I1
sVcyjrzc4
p357
I1
sVddcnpsr
p358
I1
sVd5i08gl
p359
I1
sVddcomlf
p360
I1
sVd41dw36
p361
I2
sVdn86nqk
p362
I1
sVcylhvx0
p363
I1
sVd3hnca7
p364
I4
sVdkx2lph
p365
I7
sVdn86y3e
p366
I3
sVddcxbnr
p367
I1
sVdg90orl
p368
I1
sVdhhp2o0
p369
I1
sVdg8254n
p370
I1
sVde2qbv3
p371
I1
sVdf90357
p372
I1
sVd5fm3mn
p373
I1
sVd38ugc6
p374
I1
sVdegs1zy
p375
I2
sVdbn4y9f
p376
I1
sVdayy4no
p377
I1
sVdt7dm9m
p378
I1
sVd1v1ybf
p379
I1
sVd17juk4
p380
I1
sVdsqke3u
p381
I1
sVcz439xx
p382
I1
sVd24ymoq
p383
I1
sVdn8qbs5
p384
I1
sVdj14apl
p385
I1
sVd9qyc1d
p386
I1
sVdqibot4
p387
I1
sVczomu78
p388
I1
sVd0he0dm
p389
I2
sVd5ofdo5
p390
I1
sVdfifhyz
p391
I1
sVd546npe
p392
I2
sVczauji4
p393
I1
sVd6ox231
p394
I2
sVcyprj14
p395
I1
sVczizjrs
p396
I1
sVdgxp240
p397
I1
sVd3any72
p398
I2
sVd5qixdb
p399
I1
sVd3dgh75
p400
I1
sVdn7w9so
p401
I1
sVdio6rzw
p402
I1
sVd61nkp6
p403
I1
sVd3w29nz
p404
I1
sVdn4nrq6
p405
I1
sVdauscld
p406
I1
sVdb54wyu
p407
I1
sVcypctyo
p408
I1
sVdb7qrko
p409
I2
sVdejny0d
p410
I1
sVd3lz3hf
p411
I1
sVdo2qgc7
p412
I1
sVddor7em
p413
I1
sVd2l2f2o
p414
I1
sVdcjeufc
p415
I1
sVdrwx2l9
p416
I1
sVd38qt0h
p417
I1
sVd85vj89
p418
I1
sVd2hv4o6
p419
I1
sVd3nbrsb
p420
I1
sVdryg4ay
p421
I1
sVdn8ddtx
p422
I6
sVcyjjakg
p423
I1
sVdojnz3h
p424
I2
sVdn98b91
p425
I1
sVddd6xfq
p426
I3
sVdggmhzv
p427
I1
sVdtdicve
p428
I3
sVd3t3cvc
p429
I1
sVdrt8ljx
p430
I1
sVd9lhbtk
p431
I1
sVd7nbbcg
p432
I1
sVdhn1fmp
p433
I2
sVdpnqdy3
p434
I1
sVd8i7n1y
p435
I1
sVddayde6
p436
I1
sVd1yt6il
p437
I1
sVdbqhqfr
p438
I1
sVczjmgtg
p439
I1
sVczz759o
p440
I1
sVd3lx39s
p441
I2
sVczhf8qu
p442
I1
sVd4t042r
p443
I1
sVdb4h9fk
p444
I1
sVd2lv030
p445
I1
sVdfh6pou
p446
I1
sVd31xmxi
p447
I1
sVd397mm7
p448
I1
sVdgnygxz
p449
I1
sVdjup91t
p450
I1
sVddd7y6g
p451
I2
sVdn7ybwy
p452
I4
sVdbnulrk
p453
I1
sVdn94bg8
p454
I1
sVcyxdrs8
p455
I1
sVddwgk05
p456
I1
sVczpxxqa
p457
I1
sVd3qvsqy
p458
I1
sVdn80tm8
p459
I2
sVdeviqko
p460
I1
sVczglnen
p461
I1
sVdkfyx19
p462
I2
sVdav9wcx
p463
I1
sVczgo9q3
p464
I1
sVd5v26af
p465
I2
sVdko07ff
p466
I1
sVdd3lxrd
p467
I1
sVd6gqntx
p468
I1
sVdkvjxy7
p469
I1
sVdn8bjth
p470
I1
sVd5y5nim
p471
I1
sVdf8d93g
p472
I1
sVdo78o8d
p473
I1
sVd31e740
p474
I1
sVdgse1vz
p475
I1
sVd7ma9bl
p476
I4
sVd994oeo
p477
I1
sVcylx3e8
p478
I1
sVdn809e5
p479
I1
sVddcp37x
p480
I1
sVdojqj2p
p481
I1
sVdpfq20y
p482
I1
sVdqgymzu
p483
I1
sVczbtco8
p484
I1
sVdi422w1
p485
I1
sVdqcv4z5
p486
I1
sVd0m69yv
p487
I1
sVdd1y2i5
p488
I1
sVdk2ye3e
p489
I1
sVd5q2b5z
p490
I1
sVcz2w8ul
p491
I2
sVd4neu2j
p492
I1
sVd8aklbh
p493
I1
sVdbx0t93
p494
I1
sVdfk6b1u
p495
I1
sVdthauuk
p496
I1
sVda2pdj7
p497
I1
sVd3odrw3
p498
I1
sVd0dnksl
p499
I1
sVdh9jar7
p500
I1
sVds9hkwy
p501
I1
sVd7gcbz9
p502
I1
sVd9fhqzh
p503
I1
sVd10qoqr
p504
I1
sVcz583mp
p505
I1
sVdnkf4o9
p506
I1
sVd85plcj
p507
I1
sVd4yb2px
p508
I1
sVddqxsac
p509
I1
sVcyxxsvd
p510
I1
sVd2q4q55
p511
I1
sVdcy2ukt
p512
I2
sVd0slogt
p513
I1
sVdg4iwby
p514
I2
sVdejiwjq
p515
I1
sVdtbcuub
p516
I1
sVdhvbkv7
p517
I2
sVdhhg4wy
p518
I1
sVd3ng0d5
p519
I1
sVdtbv5tm
p520
I1
sVdn7ipqf
p521
I1
sVddct29i
p522
I2
sVdn7w80e
p523
I2
sVdirvpp7
p524
I1
sVdhfiesq
p525
I1
sVdkimz4d
p526
I2
sVd274mkz
p527
I1
sVd3m811c
p528
I1
sVdfong2h
p529
I1
sVczf3xjm
p530
I1
sVddcy1ml
p531
I1
sVd3nfk14
p532
I1
sVd038knd
p533
I1
sVdp5ep8l
p534
I1
sVdieme93
p535
I2
sVdny4x08
p536
I1
sVcyy2m6n
p537
I1
sVd075slv
p538
I2
sVdal1q0t
p539
I1
s.