(dp0
Vdolblla
p1
I1
sVdh43zei
p2
I1
sVd3jx1bt
p3
I2
sVdgq9p6n
p4
I2
sVd10hwp9
p5
I1
sVdor4zwi
p6
I1
sVdhbvuav
p7
I1
sVdbwqf2v
p8
I4
sVd0k4n4d
p9
I3
sVdeyp88a
p10
I1
sVdgq9jb2
p11
I2
sVd0pwkrz
p12
I1
sVczeqx65
p13
I1
sVczm6fj0
p14
I1
sVdbolldr
p15
I2
sVdc55um3
p16
I1
sVczpm87m
p17
I1
sVdgq8ccy
p18
I6
sVczovhk9
p19
I2
sVd9xrqh7
p20
I1
sVd45jl2t
p21
I4
sVdfkr3lv
p22
I1
sVd103gm5
p23
I1
sVd39suz3
p24
I1
sVd0pxjwk
p25
I1
sVda1uagr
p26
I2
sVd00k60y
p27
I2
sVd4tvq9e
p28
I1
sVd0k1zvy
p29
I1
s.