(dp0
Vdf4ns1n
p1
I1
sVd3tfg7q
p2
I2
sVd48nfo2
p3
I2
sVczupkr4
p4
I1
sVdao95e3
p5
I1
sVdnislj7
p6
I1
sVcyv4t7a
p7
I1
sVd8uwwqu
p8
I2
sVd841y8v
p9
I1
sVcz9wf5a
p10
I1
sVd33tykr
p11
I1
sVdgv6xo6
p12
I1
sVd827lem
p13
I1
sVdhgxhaf
p14
I2
sVdpu1qnn
p15
I1
sVd94xbwg
p16
I1
sVd4offe4
p17
I1
sVd2n7eps
p18
I1
sVdaoo5sf
p19
I1
sVd3mu16h
p20
I1
sVd6f8yhc
p21
I1
sVd3rlm19
p22
I1
sVdn11fvz
p23
I2
sVdj7kvpr
p24
I1
sVdokwxxu
p25
I1
sVdiismeq
p26
I1
sVdnuonrz
p27
I2
sVd0hkp0c
p28
I1
sVd7h4rii
p29
I1
sVd3mlhph
p30
I2
sVds1mw34
p31
I1
sVdp0s57m
p32
I1
sVdd4go6l
p33
I1
sVdbernzx
p34
I2
sVd4lxtfq
p35
I1
sVd8atshx
p36
I1
sVdj8qqkt
p37
I1
sVdbn9at8
p38
I1
sVdi6wfu8
p39
I1
sVd1pjiyu
p40
I1
sVdq9kby7
p41
I1
sVd9fd1ss
p42
I1
sVdir9pqy
p43
I2
sVd6nqtyk
p44
I1
sVdb3b4yx
p45
I1
sVd5xrdpt
p46
I2
sVdhh171b
p47
I1
sVdgc3stn
p48
I2
sVcz7udwm
p49
I1
sVd8qxy6v
p50
I1
s.