(dp0
Vd00h6so
p1
I1
s.(dp0
Vd00h6so
p1
I2
s.(dp0
Vd01745p
p1
I1
sVd00h6so
p2
I1
s.(dp0
Vd1xn53w
p1
I1
sVd00h6so
p2
I1
s.(dp0
Vd1ybgd7
p1
I1
sVd00h6so
p2
I1
s.(dp0
Vd1yg8dh
p1
I1
sVd00h6so
p2
I1
s.(dp0
Vd3rkk83
p1
I1
sVd00h6so
p2
I1
s.(dp0
Vde1bv3g
p1
I1
sVd00h6so
p2
I1
s.(dp0
Vdfmkp3e
p1
I1
sVd00h6so
p2
I1
s.(dp0
Vdkav6j9
p1
I1
sVd00h6so
p2
I1
s.(dp0
Vdkavl5q
p1
I1
sVd00h6so
p2
I1
s.(dp0
Vdkawrrc
p1
I1
sVd00h6so
p2
I1
s.(dp0
Vdkb0wl9
p1
I1
sVd00h6so
p2
I1
s.(dp0
Vds2dupx
p1
I1
sVd00h6so
p2
I1
s.(dp0
Vds2dzmc
p1
I1
sVd00h6so
p2
I1
s.(dp0
Vds512te
p1
I1
sVd00h6so
p2
I1
s.(dp0
Vds5peq0
p1
I1
sVd00h6so
p2
I1
s.(dp0
Vdsckwqg
p1
I1
sVd00h6so
p2
I1
s.(dp0
Vdsdvyt0
p1
I1
sVd00h6so
p2
I1
s.(dp0
Vdse6q2s
p1
I1
sVd00h6so
p2
I1
s.(dp0
Vdsf3xpq
p1
I1
sVd00h6so
p2
I1
s.(dp0
Vdsi2m34
p1
I1
sVd00h6so
p2
I1
s.(dp0
Vdsjg21s
p1
I1
sVd00h6so
p2
I1
s.(dp0
Vdso8a9x
p1
I1
sVd00h6so
p2
I1
s.(dp0
Vdsp5jbc
p1
I1
sVd00h6so
p2
I1
s.(dp0
Vdsp5rpx
p1
I1
sVd00h6so
p2
I1
s.(dp0
Vdssfeu5
p1
I1
sVd00h6so
p2
I1
s.(dp0
Vdstosqz
p1
I1
sVd00h6so
p2
I1
s.(dp0
Vdsyhvxw
p1
I1
sVd00h6so
p2
I1
s.(dp0
Vdt5w8hy
p1
I1
sVd00h6so
p2
I1
s.