(dp0
Vdfqqhwm
p1
I1
sVd0gocjx
p2
I1
sVdr7g9cz
p3
I1
sVdodzyyx
p4
I1
sVdb7h5rv
p5
I1
sVcys5m7a
p6
I1
sVdh1op97
p7
I2
sVdpodxcy
p8
I1
sVdc7w0k4
p9
I1
sVdopzuvt
p10
I1
sVdekqv8p
p11
I1
sVdf3tjkw
p12
I1
sVdffsxe5
p13
I1
sVdmrkvyk
p14
I1
sVdi2tipj
p15
I1
sVdknb3s0
p16
I1
sVczx3xfl
p17
I1
sVdkyb78p
p18
I1
sVdet9y96
p19
I1
sVd7uqupq
p20
I1
sVdbe786d
p21
I1
sVdggr38x
p22
I1
sVd01nktf
p23
I1
sVd4nmqad
p24
I1
sVd8j5mzu
p25
I1
sVdppp7xa
p26
I2
sVd781mqi
p27
I1
sVdh0xgah
p28
I1
sVdbxr68e
p29
I1
sVdov3djc
p30
I1
sVd284exm
p31
I1
sVdb3p7ep
p32
I1
sVdgmcin4
p33
I1
sVdcezjzd
p34
I1
sVdp5e9ht
p35
I1
sVdjomyzv
p36
I1
sVde0c80s
p37
I1
sVd0iz0ov
p38
I1
sVdbr7jzj
p39
I1
sVdhk5y8e
p40
I1
sVdg3zpvx
p41
I1
sVdhfixju
p42
I1
sVd7txuas
p43
I1
sVdfvi4ar
p44
I1
sVddhm0xo
p45
I1
sVd3w0sfp
p46
I1
sVdkykgg8
p47
I1
sVdebxtd4
p48
I1
sVd3qkrgu
p49
I1
sVd0eqii6
p50
I1
sVd1d31u0
p51
I1
sVdpp7q2p
p52
I1
sVd23u14j
p53
I1
sVd17tgto
p54
I1
sVdggno1w
p55
I1
sVdc53xz0
p56
I1
sVdjamjjf
p57
I1
sVd5ucbv8
p58
I1
sVdk4z1iv
p59
I1
sVdh6gugc
p60
I1
sVd5dpbib
p61
I1
sVd5prye0
p62
I1
sVdo2xsq2
p63
I1
sVd10cf63
p64
I1
sVdjecl9p
p65
I1
sVcyrbx1a
p66
I1
sVdh58y9j
p67
I1
sVd48pyos
p68
I1
sVdcvt9br
p69
I1
sVd02oeo2
p70
I1
sVdsmdrzv
p71
I1
sVd8v4o0j
p72
I2
sVd3bi56f
p73
I1
sVdazokz9
p74
I1
sVczzr7wt
p75
I1
sVd54s44f
p76
I1
sVdhqpq21
p77
I1
sVdmrmev4
p78
I1
sVd3ynng5
p79
I1
sVdr4qcb1
p80
I1
sVdn07qpw
p81
I1
sVdbtcu8a
p82
I1
sVd6afo6v
p83
I1
sVdhiqevn
p84
I1
sVd3hq1c8
p85
I1
sVdal2zk0
p86
I2
sVd0mmbfq
p87
I1
sVd84rfqq
p88
I1
sVdfknb9f
p89
I1
sVdoi7skg
p90
I1
sVdg4clu4
p91
I1
sVdqks0t0
p92
I1
sVd4dngea
p93
I1
sVdbt6zhc
p94
I1
sVdoynlwp
p95
I1
sVd2x603i
p96
I1
sVd9ijkfg
p97
I1
sVdrbiiup
p98
I1
sVd0lyq92
p99
I1
sVdhh1h75
p100
I1
sVd56xss0
p101
I1
sVcypn2dq
p102
I1
sVdg6mvgu
p103
I1
sVdkj71kc
p104
I1
sVd4ukgc3
p105
I1
sVdjo8yu0
p106
I1
sVd3jv1qb
p107
I1
sVdf6fqyp
p108
I1
sVdbo80u9
p109
I1
sVdjn4855
p110
I1
sVdo3d2km
p111
I1
sVdoexewc
p112
I1
sVddpzuwy
p113
I1
sVdgd7zo4
p114
I1
sVdb5y4dx
p115
I1
sVd8kr1e1
p116
I1
sVd0xb9a8
p117
I1
sVdbklr6b
p118
I1
sVdjox0kz
p119
I1
sVdk5vm4a
p120
I1
sVddrux7f
p121
I1
sVd9ykub3
p122
I1
sVdtckiyn
p123
I1
sVczcnzj5
p124
I1
sVd3flt0m
p125
I1
sVdfnozxb
p126
I1
sVdbwrc3f
p127
I1
sVd7s2swn
p128
I1
sVdk9n5w9
p129
I1
sVd4fu6ea
p130
I1
sVdmujz0b
p131
I1
sVdb8q6cu
p132
I1
sVd1wnagx
p133
I1
sVcyqrm20
p134
I2
sVddezx02
p135
I3
sVdkt4a2i
p136
I1
sVdoat19l
p137
I1
sVdq2oysu
p138
I1
sVdi9yhrp
p139
I1
s.