(dp0
Vczsb1cy
p1
I1
s.(dp0
Vczsb1cy
p1
I1
sVd6m299r
p2
I1
s.(dp0
Vczsb1cy
p1
I1
sVd6m299r
p2
I1
s.(dp0
Vczsb1cy
p1
I1
sVd6m5opa
p2
I1
s.(dp0
Vczsb1cy
p1
I1
sVd6m5opa
p2
I1
s.(dp0
Vczsb1cy
p1
I1
sVd6m5wym
p2
I1
s.(dp0
Vczsb1cy
p1
I1
sVd6matw5
p2
I1
s.(dp0
Vczsb1cy
p1
I1
sVd6matw5
p2
I1
s.(dp0
Vczsb1cy
p1
I1
sVd6mhg01
p2
I1
s.(dp0
Vczsb1cy
p1
I1
sVd6mhg01
p2
I1
s.(dp0
Vczsb1cy
p1
I1
sVd6mhg01
p2
I1
s.