(dp0
Vd11f2zw
p1
I1
sVd48obel
p2
I2
sVcyv9w18
p3
I1
sVd1ktpmx
p4
I1
sVdqzg8u9
p5
I3
sVd0y7ni4
p6
I1
sVd64empp
p7
I1
sVdk9ypj0
p8
I1
sVczse3l6
p9
I1
sVdiymc9n
p10
I1
sVdbv2u1y
p11
I1
sVd1a7tn9
p12
I1
sVdon45sm
p13
I1
sVdkwwacc
p14
I1
sVdfv3d2o
p15
I1
sVdj114h3
p16
I1
sVdbmd70q
p17
I1
sVdgf0oq9
p18
I1
sVdd94h1c
p19
I1
sVd6f423r
p20
I1
sVd6dvbxm
p21
I1
sVcyourri
p22
I1
sVd0bi47s
p23
I1
sVdcjpx3x
p24
I1
sVdiok72g
p25
I1
sVd0svruy
p26
I1
sVdjn8tnn
p27
I1
sVdha9msl
p28
I1
sVd7r4wzq
p29
I1
sVd6z9n2m
p30
I1
sVczgw5yq
p31
I1
sVddchlvr
p32
I1
sVd6zy9h3
p33
I1
sVdbhnlpb
p34
I1
sVdi1xyhr
p35
I1
sVdra6kl3
p36
I1
sVdjg4h4l
p37
I1
sVds0j8u4
p38
I1
sVcyruqm5
p39
I2
sVd77aaw5
p40
I1
sVczjuxog
p41
I1
sVd1sp7e0
p42
I1
sVcys03wo
p43
I1
sVd3lcaw2
p44
I1
sVde0ry3o
p45
I1
sVdcq9hep
p46
I1
sVd8sl9k2
p47
I1
sVdb1xvvj
p48
I2
sVddgkxog
p49
I1
sVdr55y96
p50
I2
sVdfjdch7
p51
I1
sVdqte2qr
p52
I1
sVd7fodx8
p53
I1
sVd1kq1eo
p54
I1
sVdghjsxx
p55
I1
sVczx71hp
p56
I2
sVdodx3ss
p57
I1
sVdi6kciy
p58
I1
sVd7w6e5l
p59
I1
sVddiyipn
p60
I1
sVdiw83nu
p61
I1
sVdhpip1g
p62
I1
sVdgjinv6
p63
I1
sVczewhvv
p64
I1
sVdjdgv60
p65
I1
sVczhjyic
p66
I1
sVdcj9khr
p67
I1
sVd1bqeiw
p68
I1
sVd1dn7y4
p69
I1
sVdjozdl7
p70
I1
sVdo3gtac
p71
I1
sVd3t0kub
p72
I1
sVdhz7vtl
p73
I1
sVcz1gltu
p74
I1
sVdiy9rui
p75
I1
sVddv6o5l
p76
I1
sVdpkrmt4
p77
I1
sVdghkugo
p78
I3
sVdbz6osz
p79
I1
sVddpwnbu
p80
I1
sVd0l4sm9
p81
I1
sVdagcg7g
p82
I1
sVd3soynz
p83
I1
sVcyjba5s
p84
I1
sVd3xggg4
p85
I1
sVdp34oo9
p86
I2
sVczzw776
p87
I1
sVcywm5tl
p88
I1
sVcyk2caq
p89
I1
sVdbzu4qq
p90
I1
sVd0ln3od
p91
I2
sVdhf42en
p92
I1
sVd3kus60
p93
I1
sVdf3j0yq
p94
I1
sVd11cpwv
p95
I1
sVd0mtwr2
p96
I1
sVd04ra9a
p97
I1
sVdb9ium2
p98
I1
sVd4mrfq6
p99
I1
sVda4wiry
p100
I1
sVdfzweyt
p101
I1
sVcz82ycj
p102
I1
sVdhu79c5
p103
I1
sVdk7a9ru
p104
I1
sVdeshrkb
p105
I1
sVczw3bg6
p106
I1
sVd97h2qe
p107
I1
sVd4i1ydt
p108
I1
sVdbi6yiz
p109
I1
sVdirzfvq
p110
I1
sVd03zanq
p111
I1
sVd11g8fl
p112
I1
sVd3jbptb
p113
I1
sVd673wua
p114
I1
sVd1mpsav
p115
I1
sVd58pvur
p116
I1
sVdadz4pd
p117
I1
sVdo8e9pc
p118
I3
sVd14sn71
p119
I1
sVdi66paq
p120
I1
sVdbdjv29
p121
I1
sVdbderwv
p122
I1
sVddd8sxd
p123
I1
sVdhd6pfj
p124
I1
sVdottcpz
p125
I1
sVds8cpib
p126
I1
sVcykmlpq
p127
I2
sVdgf913a
p128
I1
sVdie03yr
p129
I1
sVdiaplke
p130
I1
sVd4mdh4c
p131
I1
sVdkczw7u
p132
I1
sVd3yjh17
p133
I1
sVdgwrnuw
p134
I1
sVddta001
p135
I1
sVd31cnad
p136
I1
sVd8jc0a7
p137
I1
sVd1ok3pd
p138
I1
sVdbup5dk
p139
I1
sVdp7jotv
p140
I1
sVdmq4tjm
p141
I2
sVd6193d3
p142
I1
sVdjthrtd
p143
I1
sVd970269
p144
I1
sVde1bv3g
p145
I1
sVd3cwh8q
p146
I1
sVd2bka6g
p147
I1
sVdggu8ge
p148
I1
sVd1jhp0p
p149
I1
sVczdqut0
p150
I1
sVdscuwoj
p151
I1
sVd3eqi2l
p152
I1
sVd3wmzom
p153
I1
sVda0rqrt
p154
I1
sVdkk417h
p155
I1
sVdds3kx4
p156
I1
sVczpnyn6
p157
I1
sVd0lalsd
p158
I1
sVdbe786d
p159
I1
sVdfqtzt5
p160
I1
sVd84k1oj
p161
I1
sVd0gkdzj
p162
I1
sVdc9n762
p163
I1
sVdgzlycp
p164
I1
sVd19530g
p165
I1
sVd7k6vaf
p166
I1
sVdek9lhh
p167
I1
sVdhp04h5
p168
I1
sVds20w40
p169
I7
sVd8g5rqp
p170
I1
sVdgse0i8
p171
I1
sVdivp7qu
p172
I1
sVczsk0yg
p173
I1
sVdgybmox
p174
I1
sVd5r1ws1
p175
I1
sVdhtq5v6
p176
I1
sVd8ozf11
p177
I1
sVczlrjje
p178
I1
sVdje6ybf
p179
I1
sVd9i7fad
p180
I1
sVd7bkly8
p181
I1
sVd3cqc1l
p182
I1
sVd1sl1l5
p183
I2
sVd4730k9
p184
I1
sVdi9nz84
p185
I1
sVdj0crcm
p186
I1
sVdhjo81h
p187
I1
sVczrw79i
p188
I1
sVdkpaznd
p189
I1
sVdfric91
p190
I1
sVdkgaf0j
p191
I1
sVda8nei6
p192
I1
sVddtbenn
p193
I1
sVczrc6e0
p194
I1
sVd04zj33
p195
I1
sVdgyr83x
p196
I1
sVdmya1pc
p197
I1
sVdhn7ia9
p198
I1
sVdapca3l
p199
I1
sVd0odmn8
p200
I1
sVdc9jx7t
p201
I1
sVd0mczyg
p202
I1
sVdifr0or
p203
I1
sVddwjr0h
p204
I1
sVdpkglzm
p205
I1
sVczxw2t6
p206
I1
sVdpjirp8
p207
I1
sVd9130zh
p208
I1
sVd6gj6qp
p209
I1
sVdfmh5yv
p210
I1
sVdbbvup1
p211
I1
sVdhzsfng
p212
I1
sVd7ydj48
p213
I1
sVcyslwod
p214
I1
sVdkfs54o
p215
I1
sVdnc7rei
p216
I1
sVdqfi1uc
p217
I1
sVd6pw1zr
p218
I1
sVd1smue1
p219
I1
sVd9l1xyh
p220
I1
sVd6mdtzk
p221
I1
sVddiatzu
p222
I2
sVd99uvod
p223
I1
sVdakryhd
p224
I1
sVd1jdp6s
p225
I1
sVdkj932x
p226
I1
sVd2a2cws
p227
I1
sVczxu5vk
p228
I1
sVd1bqik6
p229
I1
sVdfk3n9o
p230
I1
sVd1hjn0j
p231
I1
s.