(dp0
Vds35mx2
p1
I1
sVcyt2mko
p2
I1
sVd3p8ltq
p3
I1
sVd3zwmwo
p4
I1
sVdat211h
p5
I1
sVd5o7h6r
p6
I1
sVdg67nyv
p7
I1
sVd7crznn
p8
I1
sVdp9vwg6
p9
I3
sVdin3qjg
p10
I1
sVdcuzqwt
p11
I2
sVd13adq4
p12
I1
sVdp1iydz
p13
I1
sVd45284i
p14
I1
sVdc2tkef
p15
I1
sVd04ctyr
p16
I1
s.