(dp0
Vd7wjbra
p1
I1
sVdnnb8kz
p2
I2
sVdb64zr7
p3
I1
sVd2hmosy
p4
I1
sVdepmzku
p5
I1
sVd17vdav
p6
I1
sVdo44xrn
p7
I1
sVdktb6my
p8
I1
sVdfs8lcu
p9
I1
sVdjn9xw6
p10
I1
sVd6by6u5
p11
I1
sVd2ftpp6
p12
I1
sVdcr66tc
p13
I2
sVdq2352h
p14
I1
sVdh5vxh5
p15
I1
sVd7ji35h
p16
I1
sVd2pnmdx
p17
I1
sVdovv3pr
p18
I1
sVdk1c8a5
p19
I1
sVdrnpkcd
p20
I1
sVd729f1u
p21
I1
sVcz53eiq
p22
I1
sVdjcnfy7
p23
I3
sVdt20ffy
p24
I1
sVddbb5st
p25
I1
sVd92rsf9
p26
I1
sVdbn8ugj
p27
I1
sVd94f8hq
p28
I1
sVdh4pot8
p29
I2
sVd2x9bh9
p30
I2
sVdmoautb
p31
I1
sVdh9cl3r
p32
I1
sVdsmpios
p33
I2
sVdqhxrb0
p34
I1
sVd0x2l9s
p35
I1
sVd5z5kin
p36
I1
sVczsqyun
p37
I1
sVdfjgd8k
p38
I1
sVd3qzs99
p39
I1
sVdc9job1
p40
I1
sVdquk327
p41
I1
sVdhk0zcl
p42
I1
sVdj1gl1i
p43
I1
sVczli9vw
p44
I1
sVdgs9h58
p45
I1
sVd28rtl5
p46
I1
sVczase98
p47
I1
sVd425p54
p48
I1
sVdeq1r3y
p49
I1
sVd4kserg
p50
I1
sVdbpqchm
p51
I1
s.