(dp0
Vdgm7c5i
p1
I1
sVdq5ugvf
p2
I1
sVd3ttdrr
p3
I1
sVddyn8js
p4
I1
sVdblg4gg
p5
I1
sVdt5nqow
p6
I2
sVdhrtm5r
p7
I1
sVd8j6f9z
p8
I1
sVdfpzb48
p9
I1
sVdfox3n0
p10
I1
sVdd8v3fe
p11
I1
sVd5ybft6
p12
I2
s.