(dp0
Vcyit1kk
p1
I1
sVd15oksj
p2
I1
sVd614m1x
p3
I1
sVczh2hvb
p4
I2
sVd4ksa4d
p5
I1
sVd7ncn65
p6
I1
sVcymxmmm
p7
I1
sVd1jqcub
p8
I1
sVdolx5hv
p9
I1
sVdf9aede
p10
I1
sVd0203ue
p11
I1
sVdhete9y
p12
I4
sVdehf2js
p13
I1
sVde48t0p
p14
I1
sVd7xbw8e
p15
I1
sVdeubg0k
p16
I1
sVdrt3b6n
p17
I1
sVdqa73jp
p18
I1
sVdmf30n2
p19
I4
sVd01q2xq
p20
I1
sVdcamxtg
p21
I1
sVdbizd5y
p22
I1
sVd7kyfqt
p23
I1
sVdmeo8kt
p24
I2
sVdelcsli
p25
I1
sVd1f3j7w
p26
I1
sVdoy9m25
p27
I1
sVde5ce0k
p28
I1
sVcyxfyvi
p29
I1
sVddniglh
p30
I1
sVdfg0lx3
p31
I1
sVdhp2q5q
p32
I1
sVdcw1boj
p33
I1
sVd65udon
p34
I1
sVdmeqzri
p35
I1
sVdace9we
p36
I1
sVd6db0en
p37
I1
sVdfiatm1
p38
I1
sVddbfm3k
p39
I1
sVczf1hys
p40
I1
sVd86fwei
p41
I1
sVdbr7jzj
p42
I1
sVdf6gmnl
p43
I1
sVd1ijok6
p44
I1
sVdevdehu
p45
I1
sVczp9nph
p46
I1
sVdptz2x8
p47
I1
sVd3uoh9g
p48
I1
sVd04y2ia
p49
I2
sVdjlhexe
p50
I2
sVdtia0dp
p51
I1
sVdhc5jhk
p52
I1
sVd5ptw1d
p53
I1
sVdea104s
p54
I1
sVd670o0h
p55
I1
sVdh66lo8
p56
I2
sVdizcp8t
p57
I1
sVdmh9sbn
p58
I1
sVdb8qew3
p59
I1
sVdmem4ir
p60
I1
sVcyt0ti5
p61
I1
sVd08nvxk
p62
I1
sVdbqijfs
p63
I1
sVd1wb5fl
p64
I1
sVd5993u3
p65
I1
sVdc3afxj
p66
I1
sVdis6rtd
p67
I2
sVcywu1gg
p68
I1
sVd90rpdq
p69
I1
sVdbgyrxa
p70
I2
sVdeq8ck5
p71
I1
sVd7lr7vl
p72
I1
sVdghx0f4
p73
I1
sVd5n4r4e
p74
I1
sVdju3kle
p75
I1
sVdid27j2
p76
I1
sVddohf9j
p77
I1
sVd1sal3g
p78
I1
sVd1o5scc
p79
I1
sVdp3k7pl
p80
I1
sVd4wfecu
p81
I1
sVdp8mzf9
p82
I1
sVd246n0o
p83
I1
sVdcju41s
p84
I1
sVdgd7mo3
p85
I1
sVdbata94
p86
I1
sVd9ps9nr
p87
I1
sVdatubg9
p88
I1
sVdcmhmgk
p89
I8
sVdt63njp
p90
I1
sVdq1vld9
p91
I1
sVd69bj50
p92
I1
sVdjqqmsg
p93
I1
sVd6amr3s
p94
I1
sVdhel5qe
p95
I1
sVdcc55ip
p96
I1
sVdkmksv9
p97
I1
sVdc70fi7
p98
I1
sVczdbwsm
p99
I2
sVd3rzxmd
p100
I1
sVdrkb1k0
p101
I1
sVdg7zfxn
p102
I1
sVd0lalsd
p103
I2
sVdbb01o9
p104
I1
sVcyo5vt9
p105
I1
sVd0eqqna
p106
I2
sVcysglxq
p107
I2
sVczsl3et
p108
I1
sVdffxadl
p109
I1
sVdhue39a
p110
I1
sVd2au6n3
p111
I1
sVd1aknr8
p112
I1
sVd3oxkeo
p113
I1
sVdmnvi0f
p114
I1
sVd4bllz1
p115
I1
sVdogvnex
p116
I1
sVd5szr4l
p117
I1
sVd1waqku
p118
I1
sVd8krxfx
p119
I1
sVd7z9hjs
p120
I1
sVd3jny7q
p121
I2
sVd5ml0qd
p122
I1
sVdk6r6xo
p123
I1
sVdsm6012
p124
I1
sVdovq1t7
p125
I1
sVczky9ew
p126
I2
sVd8a7chz
p127
I1
sVdenhs3u
p128
I1
sVdkjph7j
p129
I1
sVczg7yg7
p130
I2
sVde5mpl2
p131
I1
sVdh8zv85
p132
I1
sVd1uztww
p133
I1
sVczwl5mt
p134
I1
sVdb9tb46
p135
I1
sVdd4v526
p136
I1
sVd47mmub
p137
I1
sVd974yd8
p138
I1
sVd0vk8tu
p139
I1
sVdp6xxs5
p140
I2
sVdgulye2
p141
I1
sVdsli49q
p142
I1
sVd6xloqk
p143
I1
sVdecr1s0
p144
I1
sVdpn5ll3
p145
I2
sVcylksm6
p146
I1
sVdcf1we1
p147
I1
sVdn7gus8
p148
I1
sVdc3dl0z
p149
I1
sVdqwscc0
p150
I1
sVd5egs11
p151
I1
sVd6a6c3z
p152
I1
sVdc3kqdt
p153
I1
sVdaxlb8q
p154
I1
sVdgvu9ef
p155
I1
sVdjq5x6n
p156
I1
sVdi5be5x
p157
I1
sVdk9hkvt
p158
I1
sVdgzpxuh
p159
I1
sVdcjhnb8
p160
I1
sVdgmom64
p161
I1
sVdj6btf8
p162
I1
sVcztcbtt
p163
I1
sVdi3o95o
p164
I1
sVd8lg06m
p165
I1
sVd42dc99
p166
I1
sVdfs3l38
p167
I4
sVdh4g43w
p168
I1
sVd9ffyus
p169
I1
sVdj506fz
p170
I1
sVd21bx9r
p171
I2
sVdg0kiaw
p172
I1
sVdnayutk
p173
I1
sVd3w8j04
p174
I1
sVd5mgzd8
p175
I1
sVd9pj5uy
p176
I1
sVdit8si0
p177
I1
sVder40hr
p178
I2
sVdeb06ft
p179
I1
sVdh0xwhd
p180
I1
sVcyyd1qi
p181
I1
sVd5ak6xv
p182
I1
sVdmvbeab
p183
I1
sVddjibg9
p184
I2
sVd86lj2v
p185
I1
sVd4bk73b
p186
I5
sVdih9nl6
p187
I1
sVdc4vc61
p188
I1
sVdnds46i
p189
I1
sVd4h6tjq
p190
I1
sVdpp4s0k
p191
I1
sVdk00aqc
p192
I1
sVcyldgzm
p193
I1
sVd6th1vb
p194
I1
sVczajmla
p195
I1
sVddc92po
p196
I2
sVd3ynm7m
p197
I1
sVdj4e4bx
p198
I1
sVdgwglal
p199
I1
sVdbxl1s8
p200
I1
sVdmeih9g
p201
I6
sVd7c0r75
p202
I1
sVdcmlp5f
p203
I2
sVd7wuj6z
p204
I1
sVdfcs1j4
p205
I1
sVd2hx2kk
p206
I1
sVd40q36v
p207
I1
sVd50g7xo
p208
I1
sVdfkcwf9
p209
I1
sVdphhqmw
p210
I2
sVd5t5a1u
p211
I1
sVdnekp4x
p212
I1
sVd4gvsz1
p213
I1
sVd3rwh90
p214
I1
sVdffkwo5
p215
I1
sVd6ugyz3
p216
I1
sVcz13nph
p217
I1
sVdn8aldg
p218
I1
sVd2ueuwm
p219
I1
sVdh5gkcb
p220
I2
sVd8kbbdy
p221
I1
sVdkhz1b9
p222
I1
sVdiqxkw6
p223
I1
sVd55q0c7
p224
I2
sVdkbxh2r
p225
I1
sVdmehslq
p226
I3
sVczy7i3n
p227
I1
sVd5qqps6
p228
I1
sVde4vdbf
p229
I1
sVdfxl0wa
p230
I1
sVdkak3l3
p231
I1
sVdfs4h7b
p232
I3
sVdkf20mm
p233
I1
sVd0xt5dk
p234
I1
sVd9q1evw
p235
I1
sVdbyw1mb
p236
I1
sVdglvvhd
p237
I1
sVd595p25
p238
I1
sVddh59a2
p239
I2
sVd5n25hp
p240
I1
sVdgpln0b
p241
I1
sVd9tzdsc
p242
I1
sVdbkk8ma
p243
I1
sVd4m9jdq
p244
I1
sVdi610gu
p245
I1
sVdbpghyv
p246
I1
sVddu526r
p247
I1
sVd7rozzl
p248
I1
sVcz4wa1q
p249
I1
sVd1b7sc0
p250
I1
sVda6i93v
p251
I1
sVdhou4y8
p252
I1
sVdpd84a1
p253
I1
sVdmelewe
p254
I2
sVdhgq1kb
p255
I1
sVcyvjcy1
p256
I1
sVd9e9qi9
p257
I1
sVd2j0nyx
p258
I1
sVde1vgny
p259
I3
sVdef5byv
p260
I1
sVd65rbar
p261
I1
sVdjq5xr3
p262
I2
sVd4bt747
p263
I3
sVd2s70r3
p264
I1
sVdbn7mq8
p265
I1
sVdefqni2
p266
I1
sVdc6mbpr
p267
I1
sVdcpoak1
p268
I1
sVdt3xs21
p269
I1
sVdjlkeoj
p270
I2
sVddj0buz
p271
I1
sVdk5ddfd
p272
I1
sVdbwg4vu
p273
I1
sVd849ud5
p274
I1
sVd36v3cf
p275
I1
sVd9hg55g
p276
I1
sVdoeadoh
p277
I1
sVdk47f9i
p278
I1
sVd0bp01c
p279
I1
sVd913yhs
p280
I1
sVd8p14rn
p281
I1
sVczi620c
p282
I1
sVdbwaitf
p283
I1
sVdcen7la
p284
I1
sVddfeguv
p285
I1
sVdcac2h1
p286
I1
sVd1qmj97
p287
I1
sVdqmls84
p288
I3
sVdmxocqx
p289
I1
sVd8euw1l
p290
I1
sVd8rgjdb
p291
I1
sVcys08st
p292
I1
sVdchbb94
p293
I1
sVd0fa5eq
p294
I1
sVdeenszz
p295
I1
sVczpflch
p296
I1
sVcz1lquj
p297
I1
sVd2y6b4b
p298
I1
sVdbue9wt
p299
I1
sVcz2p5vo
p300
I1
sVddwkzgg
p301
I1
sVdozbwlz
p302
I1
sVd9ngtp5
p303
I1
sVdsdbwm1
p304
I1
sVdtibmho
p305
I3
sVdf8pi4a
p306
I1
sVcylqr0b
p307
I1
sVdo48t0e
p308
I1
sVde703o6
p309
I1
sVdk7ofcb
p310
I1
sVdq2jery
p311
I1
sVd9m6kq6
p312
I1
sVd0yfwgp
p313
I1
sVdera48i
p314
I1
sVd5381wj
p315
I1
sVdgp3ism
p316
I1
sVdkwnmkc
p317
I1
sVddwh2xv
p318
I1
sVd0bnsfn
p319
I1
sVdgmiy9s
p320
I1
sVdqn60ea
p321
I2
sVd2a2zb0
p322
I1
sVdd5xjxz
p323
I1
sVd0lxafs
p324
I1
sVd5mhgtf
p325
I1
sVddcz3ch
p326
I1
sVczv2nsc
p327
I1
sVczw1qnq
p328
I1
sVdmquv95
p329
I1
sVd7b35or
p330
I1
sVd42xbxk
p331
I1
sVdje8lj1
p332
I1
sVcz4qd82
p333
I1
sVdjy4yxu
p334
I4
sVddqzafh
p335
I1
sVdawqptp
p336
I1
sVdoxdx88
p337
I1
sVdb5rj6x
p338
I1
sVcyltpjq
p339
I1
sVdmeqbrh
p340
I1
sVd3m93r9
p341
I1
sVdsmjd0m
p342
I1
sVcz146nc
p343
I1
sVd237yna
p344
I2
sVd7j8ngs
p345
I1
sVdbokmmm
p346
I1
sVcz5l4uu
p347
I2
sVdcx82ln
p348
I1
sVd9kgjlt
p349
I1
sVd0101u2
p350
I1
sVczndpne
p351
I1
sVdps0m9w
p352
I1
sVczt7q39
p353
I1
sVdeendyg
p354
I1
sVddrxho1
p355
I1
sVd13ryqy
p356
I1
sVd71jwu9
p357
I1
sVdddbb69
p358
I1
sVd20k5a8
p359
I1
sVd3xu8ib
p360
I1
sVd9wdo3d
p361
I1
sVd0vhnlw
p362
I1
sVdit9unn
p363
I1
sVdpbt07q
p364
I1
sVdhlunbm
p365
I1
sVd9kbjj3
p366
I1
sVd3xztyd
p367
I1
sVd6kau0l
p368
I1
sVdk5ecsj
p369
I1
sVd7ldc12
p370
I1
sVdqthnh8
p371
I1
sVds8g1do
p372
I1
sVdogrutg
p373
I1
sVdheqyjc
p374
I1
sVdjczjhm
p375
I1
sVdeloqxd
p376
I1
sVd95tj9u
p377
I2
sVcyuimar
p378
I1
sVczqg8t2
p379
I1
sVd7sb2jr
p380
I1
sVd8rt57o
p381
I1
sVczm9gtk
p382
I1
sVdil74sa
p383
I1
sVd7zsra0
p384
I1
sVdbqie4o
p385
I1
sVczbmnl5
p386
I1
sVd9pqxg8
p387
I1
sVddqw8cu
p388
I1
sVdr9aego
p389
I1
sVdcdivo7
p390
I2
sVdqervqd
p391
I1
sVd9gmx35
p392
I2
sVdta7q97
p393
I1
sVdjske2k
p394
I1
sVdhrxy8l
p395
I1
sVdaddrly
p396
I1
sVd1we42r
p397
I2
sVdhqyi9z
p398
I1
sVdfcaysu
p399
I1
sVd1cdbs6
p400
I1
sVddrbu5l
p401
I1
sVd45qan6
p402
I3
sVdakw7li
p403
I1
sVdd3zbzs
p404
I1
sVd6q33vq
p405
I1
sVd1j48rf
p406
I1
sVdnxmqdl
p407
I1
sVdrvrvmp
p408
I1
sVdcee677
p409
I3
sVdpbzvi2
p410
I1
sVdgia1gl
p411
I1
sVczvl5my
p412
I1
sVczy5qvj
p413
I1
sVdettp8f
p414
I1
sVd2zny71
p415
I1
sVdp9f4a6
p416
I1
sVd51p5it
p417
I2
sVczz08es
p418
I1
sVd42kkom
p419
I1
sVdnhoc8u
p420
I1
sVd3yfdlf
p421
I1
sVdoszitz
p422
I1
sVdhkdlk3
p423
I1
sVdio8ffn
p424
I1
sVd23j5cd
p425
I1
sVd1hxn8g
p426
I1
sVd5xuaic
p427
I2
sVd6n5m55
p428
I1
sVdeebwgr
p429
I1
sVd3yjj6a
p430
I1
sVdqp3ykx
p431
I1
sVd4i16lu
p432
I1
sVdh1aiks
p433
I1
sVd7awpoh
p434
I1
sVdam96h4
p435
I1
sVd7mcpyg
p436
I1
sVdfvirdf
p437
I2
sVdoec5bv
p438
I1
sVder50x8
p439
I1
sVdmme8mv
p440
I1
sVdcjv4b2
p441
I1
sVd2imt0r
p442
I1
sVdg8d4ma
p443
I1
sVd6twk74
p444
I1
sVczrwerj
p445
I1
sVddla5ty
p446
I1
sVdmeysif
p447
I5
sVd0wvvag
p448
I1
sVd4265xn
p449
I1
sVdeg5i0l
p450
I1
sVczumtdv
p451
I1
sVdfvhvxh
p452
I2
sVdjnuk5u
p453
I5
sVd0odb7q
p454
I1
sVdmxuqdf
p455
I1
sVd6fzt3t
p456
I1
sVd80ua2k
p457
I1
sVdnfp9k2
p458
I1
sVd7tpsx8
p459
I1
sVdjb3zk6
p460
I1
sVdmx91r2
p461
I1
sVdf2ijmd
p462
I1
sVdq0sini
p463
I1
sVdbn7lgc
p464
I1
sVdegjphp
p465
I1
sVd22gykj
p466
I1
sVdoe1stc
p467
I1
sVd9x2yld
p468
I1
sVdof7fih
p469
I1
sVdmeknbu
p470
I2
sVdh9x8b7
p471
I1
sVdf0c3vm
p472
I1
sVddbryzr
p473
I1
sVd2n3siz
p474
I1
sVdc12hyd
p475
I1
sVd4duz4m
p476
I1
sVd8foe3l
p477
I1
sVd59xdse
p478
I1
sVcyq52cu
p479
I1
sVdh1lqlo
p480
I1
sVdbokzxd
p481
I1
sVcysqfed
p482
I1
sVddmvhri
p483
I1
sVdfgyrro
p484
I1
sVdjli0l1
p485
I2
sVcz7e1rc
p486
I2
sVdi350nz
p487
I1
sVd1yx53m
p488
I1
sVd512rkl
p489
I1
sVdoj400j
p490
I1
sVdmhatmv
p491
I1
sVdbl66ug
p492
I1
sVdcoxtc5
p493
I2
sVdkj08qi
p494
I1
sVdn2mjaa
p495
I1
sVdon89xc
p496
I1
sVdmtbfze
p497
I1
sVdhbrj1l
p498
I1
sVdfse83d
p499
I1
sVdeb1lmp
p500
I1
sVde19d23
p501
I1
sVd4h9joz
p502
I1
sVcz7lfwf
p503
I1
sVdgbwu4m
p504
I1
sVddbbkwo
p505
I1
sVd70k006
p506
I1
sVd2rilh3
p507
I1
sVd8svliq
p508
I1
sVdejbqyw
p509
I1
sVdgm3bqe
p510
I1
sVd3hm4fv
p511
I1
sVdep8fyo
p512
I1
sVd2xs753
p513
I1
sVdb2b0k2
p514
I1
sVdauzhzd
p515
I1
sVdeyagcf
p516
I1
sVde0oybq
p517
I1
sVdc4jxm8
p518
I1
sVd2p0g2u
p519
I1
sVd251fc6
p520
I1
sVd0iy60x
p521
I1
sVdoer5sc
p522
I1
sVdd8dvcx
p523
I1
sVda4v5sl
p524
I1
sVd56jk88
p525
I1
sVdg8p4bz
p526
I1
sVds2wkyz
p527
I1
sVczfm70k
p528
I1
sVdmfjdph
p529
I1
sVd4txdkl
p530
I1
sVdnacz31
p531
I1
sVd2z8ze3
p532
I2
sVd10w9b5
p533
I1
sVdbgeaqx
p534
I1
sVd27t1cc
p535
I1
sVd4prott
p536
I1
sVdatujiv
p537
I1
sVczw7u1x
p538
I1
sVd42lbtr
p539
I2
sVd5n3yly
p540
I1
sVdn1jeal
p541
I2
sVdkq68sv
p542
I1
sVd4d9nsi
p543
I1
sVdkk2i9x
p544
I1
sVd50dzu8
p545
I1
sVddhz0zc
p546
I1
sVdck70e9
p547
I2
sVd4htz09
p548
I1
sVd23sipw
p549
I2
sVdeza8ya
p550
I1
sVd1gg7fr
p551
I1
sVdn5cje8
p552
I1
sVdmf4kcf
p553
I2
sVddkvlxq
p554
I1
sVdjc1nc1
p555
I1
sVddxv74k
p556
I1
sVddxr04h
p557
I1
sVdhy3oti
p558
I1
sVd04ickw
p559
I1
sVcywwvlh
p560
I1
sVdnfd4z9
p561
I1
sVdszn9sr
p562
I1
sVczqfrab
p563
I1
sVd14iqd4
p564
I1
sVdrcchit
p565
I1
sVdjv40yi
p566
I1
sVdqya25e
p567
I2
sVd6wsyav
p568
I7
sVd0d6rur
p569
I1
sVd3j0ox4
p570
I1
sVdp2f8x5
p571
I1
sVdam13z5
p572
I1
sVdeb6d5v
p573
I1
sVdnrcnqd
p574
I1
sVdbn7ru3
p575
I1
sVd0yl0op
p576
I1
sVd0wzj2g
p577
I1
sVdh53cb8
p578
I1
sVdkb5uug
p579
I2
sVdmerb80
p580
I1
sVd9k8ha0
p581
I2
sVdiix5n0
p582
I1
sVdir9l9d
p583
I1
sVd3pcd4g
p584
I1
sVd7byvq9
p585
I1
sVdhi89s4
p586
I1
sVcyswqfz
p587
I1
sVdgcodlg
p588
I1
sVdkdivoi
p589
I1
sVd8tdf34
p590
I1
sVd6ahiyx
p591
I1
sVdmek3rv
p592
I2
sVdig1jy9
p593
I1
sVd6sffkx
p594
I1
sVdndxm75
p595
I1
sVdgoqvye
p596
I2
sVd6c3a14
p597
I1
sVd8jfjjg
p598
I1
sVd58ri7c
p599
I1
sVdcb1bws
p600
I2
sVd9usqq3
p601
I1
sVcz40pdx
p602
I1
sVdff6n5n
p603
I1
sVdex4jco
p604
I1
sVd1msspw
p605
I1
sVdbk304d
p606
I1
sVd06lzju
p607
I1
sVdaqe92f
p608
I1
sVdjf2iay
p609
I1
sVd7kb01q
p610
I1
sVd7y6ys1
p611
I1
sVd95qe20
p612
I1
sVd55jonr
p613
I1
sVd1nmd9x
p614
I1
sVd9px0dh
p615
I1
sVdb8jnrf
p616
I1
sVd1llufp
p617
I1
sVdbc4v9g
p618
I2
sVd4i992x
p619
I1
sVdiqeer4
p620
I1
sVdt2vxiy
p621
I1
sVd90vhzt
p622
I2
sVdduaqu2
p623
I1
sVd0h23qu
p624
I1
sVdimjz0a
p625
I1
sVdjdaw23
p626
I1
sVd10vy3v
p627
I1
sVd4116gs
p628
I1
sVddc1qe8
p629
I1
sVdrvmyc6
p630
I1
sVd6st9yy
p631
I1
sVd0p2lte
p632
I1
sVdcca1lq
p633
I1
sVd4e57ya
p634
I1
sVd7iu9y7
p635
I1
sVdhvv0wq
p636
I1
sVdamp65j
p637
I1
sVczw2sra
p638
I1
sVd5hyehs
p639
I1
sVd94vrbf
p640
I2
sVdjo09pm
p641
I1
sVdedtaos
p642
I1
sVdeha09n
p643
I1
sVda2qi8o
p644
I1
sVdai44zk
p645
I1
sVdefx674
p646
I1
sVdc8yae8
p647
I1
sVd8e0kfz
p648
I1
sVdh10aaw
p649
I2
sVd1jqdmd
p650
I1
sVddp9kid
p651
I1
sVddq2js5
p652
I1
sVdfpzb48
p653
I1
sVd1d1y8l
p654
I1
sVd9k6i5l
p655
I1
sVdfa8wup
p656
I1
sVd00pnyf
p657
I1
sVdhxgxnp
p658
I1
sVdedi0bz
p659
I1
sVcz6n2qu
p660
I2
sVd7iml4c
p661
I2
sVd72912c
p662
I2
s.