(dp0
Vd04jki3
p1
I1
sVdju9isl
p2
I1
sVd1l9w2b
p3
I1
sVdfh4mra
p4
I1
sVdkiwh5e
p5
I1
sVdhhnpto
p6
I1
sVdeh6paj
p7
I1
sVd2r103c
p8
I1
sVd5t7ica
p9
I1
sVd5i2uux
p10
I1
sVd1nhc7b
p11
I1
sVdi4vfey
p12
I1
sVddcd9dk
p13
I1
sVczcxkfa
p14
I1
sVdhi1jmg
p15
I1
sVdia4nwz
p16
I1
sVd1aapyo
p17
I1
sVd75um0g
p18
I1
sVd1atym4
p19
I1
sVdhcpfje
p20
I1
sVd2qy96b
p21
I1
sVdih3rhq
p22
I1
sVd2pnevm
p23
I1
sVdfq51f4
p24
I1
sVcysbr62
p25
I1
s.