(dp0
Vd8ts5eh
p1
I1
sVczbi4sw
p2
I1
sVdo67jt5
p3
I1
sVd4ciq2w
p4
I1
sVd559ysc
p5
I1
sVd9la7da
p6
I1
sVdabzjzy
p7
I4
sVd40jyqu
p8
I1
sVde39m4y
p9
I1
sVdpbo0ze
p10
I1
sVd3be9bt
p11
I1
sVdckmagn
p12
I1
sVdg5iohm
p13
I1
sVdewx51t
p14
I1
sVd3xl4k5
p15
I6
sVdbju82u
p16
I3
sVd6m2eqh
p17
I1
sVdc2fpv2
p18
I2
sVds8czpq
p19
I2
sVd3xv0bv
p20
I2
sVdnkki2j
p21
I1
sVd7emj2z
p22
I2
sVdbfrl2f
p23
I1
sVd3xuskk
p24
I5
sVdbyab4b
p25
I2
sVdemimbi
p26
I1
sVdbfj9yz
p27
I1
sVdex2whv
p28
I2
sVd1idpo4
p29
I1
sVd71xyu6
p30
I1
sVdkqu2cf
p31
I4
sVd2edkqx
p32
I2
sVczht8el
p33
I1
sVd5txgst
p34
I2
sVdgwpc7j
p35
I1
sVdt2swut
p36
I1
sVd4xjn5a
p37
I1
sVd23y6j3
p38
I1
sVdt4e698
p39
I1
sVd0ncd5l
p40
I1
sVd24h8j7
p41
I1
sVdb5l3xn
p42
I1
sVd07frrh
p43
I3
sVcyyy6zb
p44
I1
sVdp4umlm
p45
I1
sVdf9kdew
p46
I1
sVczcnphh
p47
I1
sVdel5x77
p48
I1
sVd0kqfm3
p49
I2
sVdkn0vc1
p50
I1
sVddmbif3
p51
I4
sVcyx68bp
p52
I1
sVd7ut8yy
p53
I1
sVdewqjby
p54
I1
sVcz4d9ub
p55
I2
sVd48dqqn
p56
I3
sVdfimkcx
p57
I1
sVdf1p284
p58
I2
sVdrkwt7c
p59
I1
sVd3xuees
p60
I17
sVdi3i7rh
p61
I1
sVd18ceag
p62
I1
sVd0mqs5j
p63
I1
sVd6i1lfy
p64
I1
sVdc48e1g
p65
I1
sVdemdsuu
p66
I1
sVdaqi9sg
p67
I1
sVdjh9rs7
p68
I1
sVdkuciv6
p69
I1
sVd2a687b
p70
I1
sVd151z7a
p71
I1
sVd59yv8b
p72
I1
sVdbnqvh9
p73
I1
sVdco6zm4
p74
I1
sVdeerjf4
p75
I3
sVdj8gy67
p76
I1
sVddkdqs6
p77
I1
sVde04gdv
p78
I1
sVdbfy9md
p79
I2
sVd67dhpc
p80
I2
sVd37e54n
p81
I1
sVddew7cv
p82
I2
sVdhizl1z
p83
I1
sVd474lxy
p84
I1
sVdhawabx
p85
I1
sVd5ak8f0
p86
I1
sVd20rjj7
p87
I1
sVdbq6qg7
p88
I1
sVd2giviu
p89
I1
sVd61w58l
p90
I1
sVdmsg7d1
p91
I1
sVcz0awhj
p92
I1
sVdrk18fv
p93
I1
sVdcjcldd
p94
I1
sVd6j6mfe
p95
I1
sVdcju41s
p96
I1
sVd4rxm59
p97
I2
sVdeesiuw
p98
I2
sVdb5dq72
p99
I1
sVdc0zzk0
p100
I1
sVdgnk9r9
p101
I1
sVde02c1r
p102
I2
sVdshjfwx
p103
I1
sVdbfs9jp
p104
I1
sVdr4cznv
p105
I1
sVd3hqsue
p106
I2
sVdf6ftyg
p107
I2
sVdc00wni
p108
I1
sVd80mw0f
p109
I1
sVd9z1duu
p110
I2
sVdosr2b7
p111
I1
sVd20cdgx
p112
I1
sVda15pta
p113
I1
sVd6aj1ud
p114
I1
sVdiz2vy0
p115
I1
sVd9hgm1y
p116
I1
sVd4bwotj
p117
I1
sVcyw89u3
p118
I1
sVczj5ajt
p119
I1
sVddkx3ak
p120
I1
sVcyhy2e4
p121
I1
sVdh40t7h
p122
I2
sVd005vro
p123
I3
sVdbgp7fl
p124
I2
sVdqlf8lq
p125
I2
sVdnttht1
p126
I1
sVdi9e7bd
p127
I1
sVdngqbnb
p128
I1
sVd0bgf97
p129
I1
sVdmtsep1
p130
I4
sVdckpmke
p131
I1
sVcz5qivf
p132
I1
sVd629l33
p133
I4
sVd430mpm
p134
I2
sVdc0u7fr
p135
I1
sVd3y32kx
p136
I1
sVde883ws
p137
I1
sVd4ycw85
p138
I1
sVcymqn01
p139
I2
sVd0yf0by
p140
I1
sVdaceb1s
p141
I2
sVdjzpxpi
p142
I1
sVd0v7px3
p143
I1
sVd2hez75
p144
I1
sVddf8e59
p145
I1
sVd21ey74
p146
I1
sVcz8zrzz
p147
I1
sVdhfccgk
p148
I1
sVd6vw14g
p149
I1
sVd6gwvvt
p150
I1
sVda5idsz
p151
I1
sVdbfwpom
p152
I1
sVd24lro1
p153
I1
sVd3y2kbj
p154
I1
sVde470xa
p155
I1
sVd3yrl7t
p156
I1
sVdjmu27k
p157
I1
sVd0jb8kg
p158
I1
sVdbsx4bz
p159
I3
sVd1mz5y2
p160
I1
sVd3j1yel
p161
I1
sVda91qwe
p162
I1
sVcztt1bs
p163
I1
sVd5v3vk2
p164
I1
sVdjjezib
p165
I2
sVdhemdur
p166
I1
sVdsdqwvs
p167
I1
sVczwxk9h
p168
I2
sVdql7tmr
p169
I3
sVczs70kp
p170
I1
sVdbsviir
p171
I1
sVdkai8mg
p172
I1
sVd7i6gmz
p173
I1
sVd7zwsr2
p174
I1
sVdoa3s3a
p175
I2
sVdisn55p
p176
I1
sVdapl5rr
p177
I1
sVdpbnwgc
p178
I1
sVd7t1mlc
p179
I1
sVd4l1la3
p180
I2
sVdb24lou
p181
I4
sVd1q8sx1
p182
I1
sVdcbk96n
p183
I2
sVd629chf
p184
I1
sVd3j6pqw
p185
I2
sVdel9wd0
p186
I1
sVdftrbn0
p187
I1
sVdtanto8
p188
I1
sVdblv54l
p189
I1
sVdbfzuox
p190
I2
sVcyqkrac
p191
I1
sVdd3djvw
p192
I1
sVdmukthr
p193
I2
sVd9gcofc
p194
I1
sVd7rj7yo
p195
I1
sVd8yhqo5
p196
I1
sVd0vav22
p197
I1
sVd72rz01
p198
I3
sVdr5v5aq
p199
I2
sVdd8z0xi
p200
I1
sVd05v33k
p201
I1
sVd04kly7
p202
I1
sVd9qu6mo
p203
I1
sVdb8ntkt
p204
I1
sVd1r5b4x
p205
I1
sVd36zmgf
p206
I1
sVd04lodq
p207
I2
sVdkvzsae
p208
I1
sVd0lrle3
p209
I2
sVd3y2nw8
p210
I1
sVd2cpk5i
p211
I1
sVdivetkb
p212
I1
sVdgftxfd
p213
I1
sVdognnjx
p214
I1
sVd8o21bx
p215
I1
sVdg57x7x
p216
I3
sVdggu6jb
p217
I1
sVdfe5nk3
p218
I1
sVd2ztejp
p219
I3
sVdb5erwy
p220
I1
sVcyz6auk
p221
I1
sVdbn7um3
p222
I1
sVdsjg06b
p223
I3
sVdrr9rir
p224
I1
sVd6w259m
p225
I1
sVdkv3e5r
p226
I1
sVdcibq5g
p227
I1
sVdg9s8vn
p228
I1
sVdi0nca8
p229
I3
sVdrqld4n
p230
I1
sVd1l09v5
p231
I1
sVde045f2
p232
I2
sVdad0yc9
p233
I1
sVd33ulcs
p234
I2
sVdcymyox
p235
I1
sVdf0njuy
p236
I2
sVdoaup3h
p237
I1
sVdqlav86
p238
I2
sVd9797wu
p239
I1
sVd1p6e8d
p240
I1
sVd9bhy6s
p241
I1
sVd3r8atq
p242
I1
sVd8d88ik
p243
I1
sVcz7p63t
p244
I1
sVdosv13e
p245
I1
sVd021jn9
p246
I1
sVcyjfvu7
p247
I2
sVdt3msqe
p248
I3
sVd3nqfi1
p249
I1
sVd8jghy3
p250
I1
sVd0e61w1
p251
I1
sVdai6bf9
p252
I1
sVczzwt1e
p253
I1
sVd6wt6lx
p254
I6
sVd72uhv8
p255
I2
sVdi1r2zu
p256
I1
sVdkyu3p7
p257
I1
sVdrb1d6s
p258
I5
sVdes86mg
p259
I1
sVd51gvy2
p260
I1
sVd1ruao3
p261
I1
sVdabzipe
p262
I6
sVd51hbir
p263
I1
sVd0o6jek
p264
I1
sVdqcoce7
p265
I1
sVdizezc2
p266
I2
sVdkhy4kv
p267
I2
sVd34oqmw
p268
I1
sVd59xq2a
p269
I4
sVdfty91k
p270
I2
sVdgxk550
p271
I1
sVdkw8x8e
p272
I1
sVdk9xbtp
p273
I1
sVd0ohyvf
p274
I1
sVd3hqhih
p275
I2
sVdckq4oj
p276
I1
sVcz901rr
p277
I1
sVdaadyx4
p278
I1
sVdb5i1p5
p279
I1
sVddedrq9
p280
I1
sVczraf9v
p281
I1
sVdmj27f2
p282
I1
sVd94aso3
p283
I1
sVd7ygqaq
p284
I1
sVdk4aplw
p285
I1
sVd6izd85
p286
I1
sVd8eofhy
p287
I3
sVd1wtd0r
p288
I1
sVdbq5z4z
p289
I1
sVd2obvnd
p290
I1
sVdmhzy6h
p291
I2
sVd5qx9qa
p292
I1
sVdg8zyxr
p293
I1
sVdbftamu
p294
I4
sVd212boq
p295
I1
sVddtg858
p296
I1
sVd61tp18
p297
I2
sVdhgg9vq
p298
I1
sVd6ccntd
p299
I1
sVdilx3kp
p300
I1
sVd8cigi6
p301
I1
sVde0c80s
p302
I2
sVdpn7aty
p303
I4
sVdje28yd
p304
I1
sVdnu9wda
p305
I1
sVda238j5
p306
I1
sVd8e19m6
p307
I1
sVcyjojzh
p308
I1
sVd1blflz
p309
I1
sVd3xz37q
p310
I2
sVd75xusn
p311
I1
sVd8k4oy4
p312
I2
sVd5u885r
p313
I1
sVdfqtsmr
p314
I2
sVd9opx8j
p315
I2
sVdfu2yf5
p316
I1
sVdbfwi2z
p317
I6
sVdmml1dd
p318
I1
sVdn9t90c
p319
I1
sVdbls685
p320
I2
sVddl6lsb
p321
I1
sVd8elzne
p322
I1
sVd5aaxe4
p323
I1
sVdbfu2qa
p324
I2
sVd1mbhya
p325
I2
sVdba5zcg
p326
I2
sVczfw9x4
p327
I1
sVd1n05wc
p328
I1
sVcz5w6o7
p329
I2
sVdhmlq8t
p330
I2
sVd0mlpqe
p331
I1
sVde6wydc
p332
I1
sVdgxzivt
p333
I4
sVd2poc19
p334
I2
sVcyuvoc5
p335
I1
sVdex7789
p336
I1
sVd162iuq
p337
I1
sVdni3wjh
p338
I1
sVddlbxst
p339
I2
sVdb5kend
p340
I1
sVdc6w65c
p341
I4
sVdcmuw51
p342
I2
sVdb27sg5
p343
I1
sVdtbpgrn
p344
I1
sVddtjk0a
p345
I1
sVdabljxt
p346
I1
sVdbfm6u4
p347
I4
sVd3xxlan
p348
I2
sVczgzoh0
p349
I4
sVdqletwz
p350
I2
sVdpuqnv5
p351
I1
sVdh630b0
p352
I1
sVdblusam
p353
I4
sVdc08voi
p354
I1
sVdbezdbr
p355
I1
sVdc463aw
p356
I1
sVd3tbros
p357
I2
sVd922wjj
p358
I2
sVd7wl7hv
p359
I1
sVczrmb8y
p360
I1
sVd2jvj2k
p361
I1
sVdrj6ixw
p362
I1
sVczyc30x
p363
I1
sVdhmnq91
p364
I2
sVdnduqf7
p365
I2
sVd3htq8q
p366
I1
sVdk1dsd9
p367
I1
sVdewb7oq
p368
I1
sVd97oij5
p369
I4
sVd9hhzxs
p370
I1
sVd6btue8
p371
I1
sVdgtvnnr
p372
I1
sVdac2l1y
p373
I4
sVd3xpx5a
p374
I1
sVd00gjfy
p375
I1
sVdq41be8
p376
I1
sVdf5lljv
p377
I1
sVda75yu1
p378
I1
sVd2gz0we
p379
I1
sVd9bhr0e
p380
I2
sVdgafgwf
p381
I1
sVczg432s
p382
I1
sVdn2nqjf
p383
I2
sVd3y0uja
p384
I6
sVd2lksdm
p385
I1
sVdaouvnp
p386
I1
sVddijyxo
p387
I1
sVde2ip2b
p388
I1
sVdaasjmc
p389
I1
sVd3kzl8s
p390
I1
sVd75n5sp
p391
I2
sVd25ctww
p392
I1
sVdjo6ak2
p393
I1
sVdb5ioxs
p394
I1
sVd3r4r13
p395
I1
sVd2a6fpg
p396
I1
sVczuzk28
p397
I1
sVd33tcwn
p398
I4
sVd25kfwx
p399
I2
sVdt3nk5c
p400
I1
sVd2ozapj
p401
I1
sVdkbnb91
p402
I2
sVdmuqvni
p403
I1
sVd5rohf1
p404
I1
sVdbg28wf
p405
I1
sVdbtixiu
p406
I1
sVd4v0hkn
p407
I1
sVd8upwf2
p408
I1
sVd2p8hha
p409
I1
sVdedxorx
p410
I1
sVd43cx34
p411
I1
sVdjjkie1
p412
I1
sVd7m7nmu
p413
I1
sVdfstva8
p414
I1
sVdcual0e
p415
I2
sVdf05eby
p416
I1
sVd95swga
p417
I1
sVdep8cet
p418
I1
sVczceprn
p419
I2
sVd1unkxh
p420
I1
sVcz0wt82
p421
I2
sVdnq9u04
p422
I1
sVdfv3uhk
p423
I1
sVd2pxl7s
p424
I1
sVcykj6nb
p425
I1
sVdbdhzzc
p426
I1
sVd4b64d1
p427
I3
sVd25d33b
p428
I1
sVczwnkzp
p429
I1
sVd8w4fop
p430
I10
sVcynlp8p
p431
I1
sVdewwod1
p432
I3
sVd1hy4t5
p433
I1
sVd8u5luz
p434
I1
sVd14ad6m
p435
I1
sVdi3l9wy
p436
I1
sVczj261k
p437
I1
sVdmgyx83
p438
I3
sVdjsmzfq
p439
I1
sVcyr6e2y
p440
I1
sVd9dsvu4
p441
I1
sVczl4p65
p442
I1
sVde6m5om
p443
I1
sVd9lt4pw
p444
I1
sVd7f4lcy
p445
I3
sVdo2wywc
p446
I1
sVdbb47qw
p447
I2
sVcyr5i3g
p448
I4
sVcypke92
p449
I1
sVdqgqe19
p450
I1
sVde8syka
p451
I1
sVd9nd5k8
p452
I1
sVdjkk0sa
p453
I3
sVd8dstqo
p454
I1
sVdmoyukg
p455
I1
sVdefue8l
p456
I2
sVdmwehl1
p457
I1
sVdez3d9i
p458
I1
sVdsvqmgl
p459
I1
sVdjdd0xl
p460
I1
sVd0l25uc
p461
I1
sVd2a78zb
p462
I1
sVczao1xq
p463
I1
sVd9146i2
p464
I1
sVd91derl
p465
I2
sVdbfpbv9
p466
I3
sVdmwmjen
p467
I1
sVdeltv24
p468
I1
sVd4g9n3n
p469
I1
sVdirb197
p470
I1
sVd59va9b
p471
I3
sVd7yhyd6
p472
I1
sVdshko11
p473
I3
sVdc5tprl
p474
I4
sVd8usmtt
p475
I1
sVd7aiw51
p476
I1
sVd6jnvus
p477
I1
sVd1nri3f
p478
I1
sVdivdbhg
p479
I1
sVdaisr6t
p480
I1
sVd8s6m5c
p481
I1
sVd3qw1p7
p482
I1
sVdik79f4
p483
I1
sVd6u8712
p484
I1
sVczsiutd
p485
I1
sVdr0gnxr
p486
I3
sVd2biptw
p487
I1
sVdfa7qf9
p488
I1
sVdj0acc9
p489
I1
sVcyornea
p490
I1
sVd6rfrpv
p491
I1
sVczj5le6
p492
I1
sVd7nfo5c
p493
I1
sVd3y33u6
p494
I4
sVdbggjm3
p495
I1
sVdogbah3
p496
I2
sVcz4cxff
p497
I1
sVd341lw5
p498
I1
sVd35t91f
p499
I1
sVdc0968z
p500
I3
sVd3y0s0g
p501
I5
sVd1grgad
p502
I2
sVd9c2qef
p503
I1
sVdh62btb
p504
I5
sVdf6q3g3
p505
I1
sVd1qqw0r
p506
I1
sVd1kpkn8
p507
I1
sVdqkwjsf
p508
I1
sVdj9gvle
p509
I1
sVdfy10b1
p510
I1
sVd62veng
p511
I2
sVd5j1eee
p512
I1
sVdr21eiw
p513
I3
sVd06ao1b
p514
I1
sVdjdczpl
p515
I2
sVdhbq6oi
p516
I1
sVdqp3ykx
p517
I1
sVd3yr87w
p518
I2
sVdarbw25
p519
I2
sVd5h8o7k
p520
I1
sVdb8l2zd
p521
I1
sVd62vid0
p522
I3
sVd4pma1x
p523
I1
sVdh6568p
p524
I1
sVdt6gvgs
p525
I1
sVd556q08
p526
I1
sVd51i19l
p527
I1
sVd55sndc
p528
I2
sVd4whafk
p529
I1
sVd0c9h9y
p530
I1
sVd1iz6l7
p531
I1
sVdrhrnvv
p532
I1
sVd0o6hfj
p533
I2
sVcytxnij
p534
I1
sVda2rsvp
p535
I4
sVd4s5o4t
p536
I1
sVdh61yr8
p537
I2
sVdqgxzp4
p538
I1
sVd5o08q3
p539
I1
sVd9zyqgq
p540
I1
sVd1hgx8d
p541
I1
sVcyzhpvi
p542
I1
sVdbfoqqy
p543
I2
sVd33nyxz
p544
I1
sVde7tklf
p545
I2
sVdbw5wk8
p546
I1
sVdapy5mu
p547
I2
sVdjetfhx
p548
I2
sVdr3jrlt
p549
I1
sVd3um4xs
p550
I1
sVd8ywzxm
p551
I1
sVdbom6g8
p552
I1
sVczzzsop
p553
I4
sVdjomkxs
p554
I1
sVdnv2ak1
p555
I1
sVdgfhi0k
p556
I1
sVd0l20ok
p557
I1
sVcz48sk0
p558
I1
sVdj0hvb0
p559
I1
sVd6a7tfb
p560
I1
sVdjzyqqm
p561
I3
sVd11v11v
p562
I1
sVd6j0wo2
p563
I1
sVd9hfpyx
p564
I1
sVd6j0olz
p565
I1
sVd953mii
p566
I1
sVdqbghkj
p567
I1
sVdpw6tqh
p568
I1
sVd5jv4vw
p569
I1
sVd0owrjo
p570
I1
sVdeeqjv8
p571
I2
sVdaz9kgs
p572
I1
sVdh7uu36
p573
I1
sVdbrr8l0
p574
I1
sVd1n1e5e
p575
I1
sVdr1qyav
p576
I1
sVd1q8ao1
p577
I1
sVd8seipk
p578
I1
sVd2a3d61
p579
I1
sVdmurlks
p580
I2
sVd8vb37k
p581
I1
sVdbos33y
p582
I1
sVcz1fmfc
p583
I1
sVd0lk2z5
p584
I2
sVd18gyq7
p585
I1
sVdif6nbq
p586
I1
sVdp7f7vq
p587
I1
sVd7uhfxu
p588
I1
sVdco92e0
p589
I5
sVddspw39
p590
I1
sVd3ao3bn
p591
I1
sVcyx432e
p592
I1
sVd7z72wz
p593
I1
sVdg6e3g7
p594
I1
sVd01318l
p595
I2
sVdcbjpj9
p596
I1
sVd1grizw
p597
I3
sVdiazqow
p598
I1
sVdnd1kmg
p599
I2
sVd2jqt1d
p600
I1
sVdb1203o
p601
I1
sVd62vqkn
p602
I1
sVdge2yi1
p603
I1
sVd6e8bgt
p604
I1
sVd1mvcec
p605
I1
sVd59z5va
p606
I2
sVdj3w5mr
p607
I1
sVdbsycda
p608
I2
sVdeeses7
p609
I1
sVdo4j0eg
p610
I1
sVdftpjjk
p611
I1
sVd23ow0g
p612
I4
sVd0ohpen
p613
I4
sVdc010la
p614
I1
sVdptxvss
p615
I1
sVdmk1y6k
p616
I1
sVds2rwov
p617
I1
sVdmyzg9d
p618
I1
sVd13020e
p619
I1
sVdshj5tr
p620
I2
sVds8kvxw
p621
I1
sVdhccqqv
p622
I2
sVd3re521
p623
I2
sVd00h8qx
p624
I1
sVd27us3m
p625
I1
sVd6j1wzv
p626
I2
sVdce8zi4
p627
I1
sVdfuf6yv
p628
I2
sVdk4m3cs
p629
I1
sVd359a52
p630
I1
sVd8rknfj
p631
I2
sVdpxdl0k
p632
I1
sVdgi1zut
p633
I2
sVd6j865e
p634
I4
sVd0c4ki2
p635
I1
sVdikwxsf
p636
I1
sVdheqwtp
p637
I1
sVdcf442q
p638
I1
sVdf139hy
p639
I2
sVdimktbh
p640
I3
sVczw5acc
p641
I1
sVdnl7wtt
p642
I1
sVd35b1u8
p643
I1
sVd5suw7h
p644
I1
sVd0fn58f
p645
I2
sVdpbnth8
p646
I2
sVdgesqxx
p647
I1
sVdihnibe
p648
I1
sVdblv9us
p649
I1
sVcykdcjb
p650
I1
sVdjmpcfy
p651
I1
sVd25d6v6
p652
I4
sVdkgpppa
p653
I1
sVcywu0bw
p654
I1
sVdn8fxrb
p655
I1
sVdjnsgra
p656
I1
sVdhr8qqk
p657
I3
sVd33drxe
p658
I3
sVd8nhson
p659
I1
sVd0nrfil
p660
I1
sVd2iblid
p661
I1
sVd8ilz6a
p662
I1
sVdq8cqxu
p663
I1
sVdisjgmc
p664
I1
sVd0psdme
p665
I1
sVdq0vi6k
p666
I1
sVd3g3u9h
p667
I1
sVddabv3h
p668
I1
sVd3ptr2h
p669
I1
sVd141rlv
p670
I1
sVd4xnmh8
p671
I2
sVd2f8wsc
p672
I1
sVd3kujax
p673
I1
sVde7t4i4
p674
I4
sVd63cthj
p675
I1
sVd99pran
p676
I5
sVd5ule9b
p677
I1
sVdel5zx1
p678
I1
sVd6j1p9f
p679
I1
sVdn1rbxf
p680
I2
sVdnijai0
p681
I1
sVd1a2gem
p682
I3
sVdc0uc9h
p683
I1
sVd2a9zvg
p684
I1
sVczbto6t
p685
I1
sVcz97yb3
p686
I1
sVcyieune
p687
I1
sVcz53zt9
p688
I1
sVdcocnvp
p689
I1
sVdoytg80
p690
I1
sVd6en15n
p691
I5
sVdkjn2h7
p692
I1
sVdel7v5t
p693
I1
sVdffdsph
p694
I3
sVd6yk5pw
p695
I1
sVd3xsa0p
p696
I3
sVd2yz6u2
p697
I1
sVd6llvta
p698
I2
sVczttdez
p699
I1
sVdde2cdm
p700
I2
sVd9pzttp
p701
I3
sVdek9pjh
p702
I1
sVczrawwe
p703
I1
sVdp9uoaw
p704
I1
sVd7i59lc
p705
I1
sVd23gle8
p706
I2
sVd9b8q88
p707
I1
sVd8qzz5r
p708
I2
sVd7nemp3
p709
I1
sVdnfptak
p710
I1
sVde48squ
p711
I1
sVdoyuaq8
p712
I1
sVdjk0k59
p713
I1
sVdjr9653
p714
I1
sVcz6mm7m
p715
I3
sVd8bl43o
p716
I1
sVd6emrar
p717
I1
sVdsev13l
p718
I1
sVdt7x20m
p719
I1
sVdgfv3k0
p720
I2
sVd97nzqm
p721
I1
sVdjp2xsx
p722
I1
sVd414o2h
p723
I2
sVdt42cje
p724
I6
sVd4rg2pm
p725
I3
sVcyic2v3
p726
I1
sVdjl3wkh
p727
I1
sVdi08q62
p728
I1
sVdrpucza
p729
I1
sVdk4mc3k
p730
I3
sVd28fq23
p731
I1
sVde0r6u0
p732
I5
sVddbdg3n
p733
I1
sVd55xl81
p734
I1
sVd33ykfq
p735
I4
sVdbiczx2
p736
I1
sVd5c97hi
p737
I1
sVd3hqb1i
p738
I2
sVdrbv5b5
p739
I2
sVd25ddar
p740
I1
sVd63xljj
p741
I1
sVde6980c
p742
I2
sVd1mwa5a
p743
I1
sVd2sm2m8
p744
I1
sVdb8oj28
p745
I1
sVd3r47us
p746
I1
sVd9uy4i5
p747
I3
sVd33zf1p
p748
I1
sVd0pmhcq
p749
I1
sVczzr6if
p750
I1
sVcyoz6th
p751
I3
sVd9antbf
p752
I2
sVd8cvk16
p753
I1
sVdtaplih
p754
I1
sVd57awsd
p755
I1
sVd3yw9q9
p756
I1
sVdbgqi26
p757
I1
sVdiia376
p758
I1
sVd2pg087
p759
I1
sVdak42sw
p760
I1
sVczslk0f
p761
I1
sVdms9bd0
p762
I2
sVdr2dbg3
p763
I2
sVd6j2mzd
p764
I7
sVdc0u9mh
p765
I1
sVdbsx4z1
p766
I1
sVd0fmwo3
p767
I1
sVdgzg9o9
p768
I1
sVded3llz
p769
I1
sVd3ivof4
p770
I1
sVd29lizg
p771
I1
sVdpi73zz
p772
I1
sVd44lsch
p773
I1
sVdd9ikz3
p774
I1
sVdrqjh50
p775
I3
sVd65qqpq
p776
I3
sVdb8ab4f
p777
I1
sVdbm3m2i
p778
I2
sVd3r08nk
p779
I1
sVd8ry48s
p780
I1
sVdkms61g
p781
I1
sVcztjr6q
p782
I2
sVd4164a0
p783
I1
sVddhfof4
p784
I1
sVdh40fzc
p785
I1
sVd16x3xe
p786
I1
sVd628xbq
p787
I1
sVdpf2dnr
p788
I2
sVdio7x3p
p789
I1
s.