(dp0
Vd5n9cto
p1
I1
s.(dp0
Vd5n9cto
p1
I2
s.(dp0
Vd5n9cto
p1
I2
s.(dp0
Vd6jz85t
p1
I1
sVd5n9cto
p2
I1
s.(dp0
Vd5n9cto
p1
I1
sVd6urr8s
p2
I1
s.(dp0
Vd76jd7x
p1
I1
sVd5n9cto
p2
I1
s.(dp0
Vdb25jux
p1
I1
sVd5n9cto
p2
I1
s.(dp0
Vd5n9cto
p1
I1
sVdcuhk55
p2
I1
s.(dp0
Vdfld6ap
p1
I1
sVd5n9cto
p2
I1
s.(dp0
Vdgblsln
p1
I1
sVd5n9cto
p2
I1
s.(dp0
Vd5n9cto
p1
I1
sVdif64bp
p2
I1
s.(dp0
Vd5n9cto
p1
I1
sVdqc2ztf
p2
I1
s.(dp0
Vdqd6pb0
p1
I1
sVd5n9cto
p2
I1
s.(dp0
Vdqdvr0r
p1
I1
sVd5n9cto
p2
I1
s.(dp0
Vdqdvr0r
p1
I1
sVd5n9cto
p2
I1
s.(dp0
Vdsjtrxr
p1
I1
sVd5n9cto
p2
I1
s.(dp0
Vd5n9cto
p1
I1
sVdsk08pn
p2
I1
s.