(dp0
Vcyjbfxg
p1
I1
s.(dp0
Vcyjq3a7
p1
I1
sVcyjbfxg
p2
I1
s.(dp0
Vcyjq3a7
p1
I1
sVcyjbfxg
p2
I1
s.(dp0
Vcyjq3a7
p1
I1
sVcyjbfxg
p2
I1
s.(dp0
Vcyjbfxg
p1
I1
sVcyk0ira
p2
I1
s.(dp0
Vcyjbfxg
p1
I1
sVcykbhc2
p2
I1
s.(dp0
Vcyjbfxg
p1
I1
sVcykbhc2
p2
I1
s.(dp0
Vcyjbfxg
p1
I1
sVcykc5dc
p2
I1
s.(dp0
Vcyjbfxg
p1
I1
sVcykc5dc
p2
I1
s.(dp0
Vcyjbfxg
p1
I1
sVcykc5dc
p2
I1
s.(dp0
Vcyjbfxg
p1
I1
sVcykc5dc
p2
I1
s.(dp0
Vcyjbfxg
p1
I1
sVcykc5dc
p2
I1
s.(dp0
Vcyjbfxg
p1
I1
sVcykc5dc
p2
I1
s.(dp0
Vcyjbfxg
p1
I1
sVcykr153
p2
I1
s.(dp0
Vcyjbfxg
p1
I1
sVcyktp1w
p2
I1
s.(dp0
Vcyjbfxg
p1
I1
sVcykttma
p2
I1
s.(dp0
Vcyjbfxg
p1
I1
sVcyl2aks
p2
I1
s.(dp0
Vcylq3g7
p1
I1
sVcyjbfxg
p2
I1
s.(dp0
Vcyjbfxg
p1
I1
sVcym9twe
p2
I1
s.(dp0
Vcyjbfxg
p1
I1
sVcynqaxu
p2
I1
s.(dp0
Vcyjbfxg
p1
I1
sVcynqjwy
p2
I1
s.(dp0
Vcyjbfxg
p1
I1
sVcynqjwy
p2
I1
s.(dp0
Vcyjbfxg
p1
I1
sVcynqjwy
p2
I1
s.(dp0
Vcyjbfxg
p1
I1
sVcyoh2ya
p2
I1
s.(dp0
Vcyjbfxg
p1
I1
sVcyox66s
p2
I1
s.(dp0
Vcyjbfxg
p1
I1
sVcyox66s
p2
I1
s.(dp0
Vcyox9i7
p1
I1
sVcyjbfxg
p2
I1
s.(dp0
Vcyox9i7
p1
I1
sVcyjbfxg
p2
I1
s.(dp0
Vcyox9i7
p1
I1
sVcyjbfxg
p2
I1
s.(dp0
Vcyjbfxg
p1
I1
sVcyoz45w
p2
I1
s.(dp0
Vcyjbfxg
p1
I1
sVcyoz6kd
p2
I1
s.(dp0
Vcyjbfxg
p1
I1
sVcyoz6kd
p2
I1
s.(dp0
Vcyjbfxg
p1
I1
sVcyoz6kd
p2
I1
s.(dp0
Vcyjbfxg
p1
I1
sVcyoz6kd
p2
I1
s.(dp0
Vcyp0x59
p1
I1
sVcyjbfxg
p2
I1
s.(dp0
Vcyp0x59
p1
I1
sVcyjbfxg
p2
I1
s.(dp0
Vcypw0m0
p1
I1
sVcyjbfxg
p2
I1
s.(dp0
Vcypxozk
p1
I1
sVcyjbfxg
p2
I1
s.(dp0
Vcyjbfxg
p1
I1
sVcyr0zq2
p2
I1
s.(dp0
Vcyjbfxg
p1
I1
sVcyr0zq2
p2
I1
s.(dp0
Vcyjbfxg
p1
I1
sVcyrt24u
p2
I1
s.(dp0
Vcyjbfxg
p1
I1
sVcyrtpuo
p2
I1
s.(dp0
Vcytqm67
p1
I1
sVcyjbfxg
p2
I1
s.(dp0
Vcyjbfxg
p1
I1
sVcyuroq8
p2
I1
s.(dp0
Vcyjbfxg
p1
I1
sVcyv2pw4
p2
I1
s.(dp0
Vcyjbfxg
p1
I1
sVcyvpfrc
p2
I1
s.(dp0
Vcyjbfxg
p1
I1
sVcyvsuri
p2
I1
s.(dp0
Vcyjbfxg
p1
I1
sVcyw0qcb
p2
I1
s.(dp0
Vcyjbfxg
p1
I1
sVcyw0qcb
p2
I1
s.(dp0
Vcyjbfxg
p1
I1
sVcyw0qcb
p2
I1
s.(dp0
Vcyw0ubz
p1
I1
sVcyjbfxg
p2
I1
s.(dp0
Vcyw0ubz
p1
I1
sVcyjbfxg
p2
I1
s.(dp0
Vcywo55c
p1
I1
sVcyjbfxg
p2
I1
s.(dp0
Vcyjbfxg
p1
I1
sVcywzog7
p2
I1
s.(dp0
Vcyjbfxg
p1
I1
sVcywzog7
p2
I1
s.(dp0
Vcyjbfxg
p1
I1
sVcyx00qv
p2
I1
s.(dp0
Vcyx30os
p1
I1
sVcyjbfxg
p2
I1
s.(dp0
Vcyx30os
p1
I1
sVcyjbfxg
p2
I1
s.(dp0
Vcyx30os
p1
I1
sVcyjbfxg
p2
I1
s.(dp0
Vcyjbfxg
p1
I1
sVcyxp4pn
p2
I1
s.(dp0
Vcyjbfxg
p1
I1
sVcyxpmwy
p2
I1
s.(dp0
Vcyjbfxg
p1
I1
sVcyxxdj2
p2
I1
s.(dp0
Vcyjbfxg
p1
I1
sVcyxxdj2
p2
I1
s.(dp0
Vcyxzt7l
p1
I1
sVcyjbfxg
p2
I1
s.(dp0
Vcyjbfxg
p1
I1
sVcyy7bjb
p2
I1
s.(dp0
Vcyjbfxg
p1
I1
sVcyz220d
p2
I1
s.(dp0
Vcyjbfxg
p1
I1
sVcyz43be
p2
I1
s.(dp0
Vcyjbfxg
p1
I1
sVcyz9qcm
p2
I1
s.(dp0
Vcyjbfxg
p1
I1
sVcyz9y7b
p2
I1
s.(dp0
Vcyjbfxg
p1
I1
sVcyzb2xb
p2
I1
s.(dp0
Vcyjbfxg
p1
I1
sVcyzj0g8
p2
I1
s.(dp0
Vcyjbfxg
p1
I1
sVcyzj0g8
p2
I1
s.(dp0
Vcyjbfxg
p1
I1
sVcyzli4i
p2
I1
s.(dp0
Vcyjbfxg
p1
I1
sVcyzli4i
p2
I1
s.(dp0
Vcyjbfxg
p1
I1
sVcyzli4i
p2
I1
s.(dp0
Vcyjbfxg
p1
I1
sVcyzli4i
p2
I1
s.(dp0
Vcyzx33f
p1
I1
sVcyjbfxg
p2
I1
s.(dp0
Vcyjbfxg
p1
I1
sVcz03rfl
p2
I1
s.(dp0
Vcz0io6i
p1
I1
sVcyjbfxg
p2
I1
s.(dp0
Vcz0io6i
p1
I1
sVcyjbfxg
p2
I1
s.(dp0
Vcz0io6i
p1
I1
sVcyjbfxg
p2
I1
s.(dp0
Vcyjbfxg
p1
I1
sVcz0pbpa
p2
I1
s.(dp0
Vcyjbfxg
p1
I1
sVcz0yq75
p2
I1
s.(dp0
Vcyjbfxg
p1
I1
sVcz0yq75
p2
I1
s.(dp0
Vcyjbfxg
p1
I1
sVcz1jgzg
p2
I1
s.(dp0
Vcz1prys
p1
I1
sVcyjbfxg
p2
I1
s.(dp0
Vcyjbfxg
p1
I1
sVcz1ufs3
p2
I1
s.(dp0
Vcyjbfxg
p1
I1
sVcz1ufs3
p2
I1
s.(dp0
Vcyjbfxg
p1
I1
sVcz1ufs3
p2
I1
s.(dp0
Vcyjbfxg
p1
I1
sVcz1ufs3
p2
I1
s.(dp0
Vcyjbfxg
p1
I1
sVcz1ufs3
p2
I1
s.(dp0
Vcyjbfxg
p1
I1
sVcz1ufs3
p2
I1
s.(dp0
Vcyjbfxg
p1
I1
sVcz1zxsp
p2
I1
s.(dp0
Vcyjbfxg
p1
I1
sVcz1zxsp
p2
I1
s.(dp0
Vcyjbfxg
p1
I1
sVcz236ww
p2
I1
s.(dp0
Vcyjbfxg
p1
I1
sVcz289vc
p2
I1
s.(dp0
Vcyjbfxg
p1
I1
sVcz2j84l
p2
I1
s.(dp0
Vcz2kaku
p1
I1
sVcyjbfxg
p2
I1
s.(dp0
Vcz2kaku
p1
I1
sVcyjbfxg
p2
I1
s.(dp0
Vcz2kaku
p1
I1
sVcyjbfxg
p2
I1
s.(dp0
Vcyjbfxg
p1
I1
sVcz2urhg
p2
I1
s.(dp0
Vcz391k2
p1
I1
sVcyjbfxg
p2
I1
s.(dp0
Vcyjbfxg
p1
I1
sVcz3dlqa
p2
I1
s.(dp0
Vcyjbfxg
p1
I1
sVcz3e2fn
p2
I1
s.(dp0
Vcyjbfxg
p1
I1
sVcz3e2fn
p2
I1
s.(dp0
Vcyjbfxg
p1
I1
sVcz3fpcq
p2
I1
s.(dp0
Vcyjbfxg
p1
I1
sVcz3fpcq
p2
I1
s.(dp0
Vcyjbfxg
p1
I1
sVcz3fpcq
p2
I1
s.(dp0
Vcy(dp0
Vcyjbfxg
p1
I1
sVdtjf9cl
p2
I1
s.