(dp0
Vdc1a72g
p1
I1
sVd8k8ioz
p2
I1
sVd47brqh
p3
I1
sVd3jkv6p
p4
I1
sVdirehzk
p5
I1
sVdt85dy4
p6
I3
sVddwkvoi
p7
I1
sVd4o71ms
p8
I1
sVdazn3kc
p9
I1
sVd0jcy4n
p10
I1
sVcyljsia
p11
I1
sVczi9mc5
p12
I1
sVdjy0h5x
p13
I1
sVd225xzl
p14
I1
sVcyj6n33
p15
I1
sVd3rgrwf
p16
I1
sVcz90s33
p17
I1
sVczottzt
p18
I1
sVdfsd2oa
p19
I1
sVcyp2nlu
p20
I1
sVdtagwby
p21
I1
s.