(dp0
Vd9i95s2
p1
I1
sVdg1qg9q
p2
I1
sVd0a4bzs
p3
I1
sVczhetw6
p4
I1
sVd7shmsg
p5
I1
sVdas8xx8
p6
I1
sVdk2ma7x
p7
I1
sVdtip9p7
p8
I1
sVdrhtt38
p9
I1
sVd29ydc6
p10
I2
sVdiovi0b
p11
I4
sVdbh9vhg
p12
I1
sVd6y5j7l
p13
I1
sVdn3mi0a
p14
I2
sVdh3pz1v
p15
I1
sVdsqityn
p16
I1
sVd8r7zm7
p17
I1
sVdmmd9ox
p18
I1
sVd9ipfp9
p19
I4
sVdcbae11
p20
I1
sVd21sujk
p21
I1
sVdr53aza
p22
I2
sVczhen58
p23
I1
sVd178454
p24
I1
sVd0a5ufn
p25
I1
sVde8obeg
p26
I1
s.