(dp0
Vczidtye
p1
I1
sVdedau1t
p2
I2
sVcytagl0
p3
I2
sVd3dusco
p4
I1
sVd9x5nw4
p5
I1
sVdj0kgob
p6
I1
sVd7ln58m
p7
I1
sVdel5q9i
p8
I1
sVdautpng
p9
I1
sVddnupvv
p10
I1
sVds0s1y0
p11
I1
sVd2jzklq
p12
I1
sVdcmzaft
p13
I1
sVdgpb0ss
p14
I1
sVczwhzss
p15
I1
sVd6dz1jv
p16
I1
sVdndett9
p17
I1
sVd4gi55v
p18
I1
sVd2n85ry
p19
I1
sVd4u1gbi
p20
I1
sVd50avq5
p21
I1
sVdmh06t6
p22
I1
sVdtbzwrl
p23
I1
sVczztioi
p24
I1
sVdf80vaf
p25
I1
sVddjv242
p26
I1
sVd3n054g
p27
I1
sVdbgmhgh
p28
I1
sVdfwup00
p29
I1
sVdnko2i6
p30
I2
sVcyxx7li
p31
I1
sVd0dyhwt
p32
I1
sVdroywj2
p33
I1
sVdb2ores
p34
I1
sVdco7jjv
p35
I1
sVd36gg6a
p36
I1
sVd2h0ij4
p37
I1
sVdghjcxj
p38
I1
sVdhn6ds0
p39
I1
sVd9ithtd
p40
I1
sVds8ow1g
p41
I2
sVdbfgtng
p42
I1
sVd0vzhl9
p43
I3
sVd4ww3hs
p44
I2
sVd1z6y8h
p45
I1
sVdk48et9
p46
I1
sVdaeavpk
p47
I1
sVd8ncz8j
p48
I1
sVddzek48
p49
I1
sVd0nitmc
p50
I1
sVd1ajwzt
p51
I1
sVdbeu833
p52
I1
sVd8w7eh2
p53
I1
sVcyrod2x
p54
I3
sVdod9muc
p55
I1
sVd7yxkaa
p56
I3
sVdfhrtep
p57
I1
sVdb5we83
p58
I1
sVdjctbd7
p59
I1
sVd1wcskx
p60
I1
sVd3kg3p8
p61
I1
sVdakvtky
p62
I1
sVdh4ydum
p63
I1
sVdf0m7ba
p64
I1
sVd1ceoqr
p65
I1
sVdb9l6am
p66
I1
sVdfvhgfg
p67
I1
sVds9qi6h
p68
I1
sVdaop1ss
p69
I1
sVdkdybki
p70
I1
sVdde8ak3
p71
I1
sVd3tnn0n
p72
I1
sVcz8038q
p73
I1
sVd01ra90
p74
I1
sVdjxjnvo
p75
I1
sVdaj3d8k
p76
I1
sVd1hq4xu
p77
I1
sVdqphuqi
p78
I1
sVd5piwea
p79
I1
sVdakj51r
p80
I1
sVde9ogc8
p81
I1
sVd2hyys7
p82
I1
sVd03377q
p83
I1
sVcyhvmc5
p84
I1
sVd0iukz2
p85
I1
sVd3fmey2
p86
I1
sVd0w4rdq
p87
I1
sVdh5uo7g
p88
I1
sVdqpfk2c
p89
I1
sVdjhnvuk
p90
I1
sVdjxyqmh
p91
I1
sVdsit17q
p92
I1
sVdgy906n
p93
I1
sVczwjz76
p94
I1
sVdr78l70
p95
I1
sVd7cqjf6
p96
I1
sVdq6f9pt
p97
I1
sVd7t9kuk
p98
I1
sVd6rej4q
p99
I1
sVdd4ym81
p100
I3
sVd30lsu9
p101
I1
sVdd0migg
p102
I3
sVd2gi4xs
p103
I3
sVd0z0x2t
p104
I1
sVdrg2gcx
p105
I1
sVdfy6h8b
p106
I1
sVddoz2az
p107
I1
sVdoeelsc
p108
I1
sVdbt4q4w
p109
I1
sVd3ej5qy
p110
I1
sVcz26jrh
p111
I1
sVdqevfj9
p112
I1
sVdevm9uz
p113
I1
sVd8gap6g
p114
I1
sVdk16b58
p115
I2
sVdplmj82
p116
I1
sVdb2u1sz
p117
I1
sVd0197gl
p118
I1
sVd2wqitv
p119
I1
sVd81h823
p120
I2
sVd7ywys4
p121
I1
sVd4s5q4l
p122
I1
sVdrzi82u
p123
I1
sVdjvlgbj
p124
I1
sVdrwokpw
p125
I1
sVdpwba56
p126
I1
sVdeauigl
p127
I1
sVdaq7mi5
p128
I1
sVdbr55f6
p129
I2
sVdr7hppr
p130
I1
sVde6l0gx
p131
I1
sVdhqpwoh
p132
I1
sVd3syjlf
p133
I1
sVd2wmikr
p134
I1
sVdb243rr
p135
I2
sVdqdw9cy
p136
I1
sVdia16q8
p137
I1
sVdmz3dlj
p138
I1
sVd171ray
p139
I2
sVdbh40ej
p140
I1
sVd2qy96b
p141
I1
sVd1p4w3y
p142
I1
sVd296qh4
p143
I1
sVde8u7un
p144
I1
sVdc436u5
p145
I1
sVdityio6
p146
I1
sVd1w57zx
p147
I1
sVds3p3rs
p148
I1
sVdk90i9j
p149
I1
sVdhwuuoj
p150
I1
sVd0w7a80
p151
I1
sVdaqnbdh
p152
I1
sVd0srxiu
p153
I1
sVdqyuycq
p154
I2
sVd1csa1g
p155
I1
sVczrhfgw
p156
I1
sVd0vbbcr
p157
I1
sVd4xz97l
p158
I1
sVdcclbyi
p159
I1
sVd0cdvh5
p160
I1
sVdd08x9n
p161
I1
sVdhndzdl
p162
I1
sVdgxqpl8
p163
I1
sVd10j4ym
p164
I1
sVdsepb71
p165
I1
sVdctjvey
p166
I1
sVd9p180m
p167
I1
sVde36m34
p168
I1
sVd52zdyq
p169
I1
sVdcjo5v1
p170
I1
sVd5wfboq
p171
I1
sVd1ng90i
p172
I1
sVdb8t81x
p173
I1
sVddiuex5
p174
I2
sVdbbocaz
p175
I1
sVd48poni
p176
I1
sVdnsg7qj
p177
I1
sVd0rvsbp
p178
I1
sVdenn2ko
p179
I1
sVd320k9v
p180
I1
sVdjejhzo
p181
I1
sVdjsibmq
p182
I1
sVde4b0m6
p183
I1
sVdasxfsa
p184
I1
sVdiicql7
p185
I1
sVczgpjse
p186
I1
sVdjo2b1u
p187
I1
sVd4eken6
p188
I1
sVd9600e2
p189
I1
sVd55c5na
p190
I2
sVdmowfml
p191
I1
sVd467qc8
p192
I4
sVd5mdzjb
p193
I1
sVdrgpfhs
p194
I1
sVdbktkif
p195
I1
sVcyqhgdo
p196
I1
sVddglxvn
p197
I1
sVd0dd7c5
p198
I1
sVdgq6h61
p199
I1
sVd15eecq
p200
I1
sVd1x3mgd
p201
I1
sVcyqg827
p202
I2
sVdbgcnz2
p203
I1
sVcynwaot
p204
I1
sVd8tj9fj
p205
I1
sVd7q9stg
p206
I1
sVdc8ogpa
p207
I1
sVdd6z208
p208
I1
sVdazgtae
p209
I1
sVd4fm5b1
p210
I1
sVd9ret4p
p211
I1
sVd2ackrw
p212
I2
sVddcslbu
p213
I1
sVd4a4q9j
p214
I1
sVdhfexe6
p215
I1
sVd09m4qf
p216
I1
sVd3wcrf4
p217
I1
sVdatz2lf
p218
I1
sVdjecl9p
p219
I1
sVdegxxz2
p220
I1
sVdgw5cx9
p221
I1
sVdgfh222
p222
I3
sVdam6ga0
p223
I2
sVd38ok63
p224
I1
sVdjps95g
p225
I1
sVd2o97up
p226
I1
sVdiy9k2s
p227
I1
sVd337635
p228
I1
sVdbw5gll
p229
I1
sVdbuscyh
p230
I1
sVdjy0bgp
p231
I1
sVd7vp7b4
p232
I1
sVdan1za1
p233
I1
sVd3x1jen
p234
I1
sVdrdwq0i
p235
I1
sVd8nhtxn
p236
I1
sVd15lhrv
p237
I1
sVd5xpsh6
p238
I1
sVdf0blof
p239
I1
sVd3zijus
p240
I2
sVd11ub6d
p241
I1
sVdewpcvx
p242
I1
sVdtdy06q
p243
I1
sVczi5109
p244
I1
sVd18j81b
p245
I1
sVdn34cfm
p246
I1
sVdc05x5e
p247
I1
sVd4erzhm
p248
I1
sVdb7mvrb
p249
I1
sVd3ya6u5
p250
I1
sVdr0us1p
p251
I1
sVdjvw7wa
p252
I2
sVd1tw9s9
p253
I1
sVd0mf7jg
p254
I1
sVdtewoj3
p255
I1
sVdqkndtl
p256
I1
sVd1b3udh
p257
I1
sVdilh0p7
p258
I1
sVd4giq0a
p259
I1
sVd5144r3
p260
I1
sVd9banra
p261
I1
sVdb1f4vy
p262
I1
sVdqy9lux
p263
I1
sVdehdisx
p264
I1
sVd3c7xya
p265
I1
sVd1rppfi
p266
I1
sVdo4j0eg
p267
I1
sVd11xwhl
p268
I9
sVdho7n93
p269
I2
sVcykf4ht
p270
I1
sVdo0u3q6
p271
I1
sVd99iegy
p272
I3
sVdaz0ekh
p273
I1
sVdcbe0h2
p274
I1
sVd6i3g6z
p275
I1
sVdejn0s8
p276
I1
sVd3njw7g
p277
I1
sVdi3h7v8
p278
I1
sVd78pv0q
p279
I2
sVdrhtt38
p280
I1
sVczh5s8g
p281
I1
sVdpunmkj
p282
I1
sVdsum3sq
p283
I1
sVcyun6oz
p284
I1
sVd4gpo74
p285
I1
sVdazo6gd
p286
I1
sVd74kwbf
p287
I1
sVdcbx9wu
p288
I1
sVdq3zhev
p289
I1
sVdkhksn5
p290
I1
sVczmddwp
p291
I1
sVd2lazkd
p292
I1
sVd51jovm
p293
I1
sVd558ddz
p294
I2
sVdel5x77
p295
I1
sVd3gn78n
p296
I1
sVdo3o681
p297
I1
sVdcql1t2
p298
I1
sVcznrlr2
p299
I1
sVdq7iwme
p300
I1
sVd1i6848
p301
I1
sVd84xu5y
p302
I1
sVd6pz6bn
p303
I1
sVd6ey5c1
p304
I1
sVcyj6gxj
p305
I1
sVd7leeda
p306
I1
sVdarhq0u
p307
I1
sVdfas8he
p308
I1
sVd5ujy69
p309
I1
sVde6isub
p310
I1
sVddtcjgh
p311
I3
sVd4brs26
p312
I3
sVdhrj5o9
p313
I1
sVdcatdqe
p314
I1
sVcz6fmel
p315
I1
sVd4rbvw0
p316
I1
sVdenomkf
p317
I1
sVd7mix1s
p318
I1
sVd14pqah
p319
I1
sVd3uctrf
p320
I1
sVdkm2qo8
p321
I1
sVdj6ulxw
p322
I1
sVd0tzl3a
p323
I1
sVd7uq3b0
p324
I1
sVdivllp7
p325
I1
sVdeuu8ap
p326
I2
sVd8uo48v
p327
I1
sVdf100y0
p328
I1
sVd3dzkf8
p329
I1
sVdam8qc6
p330
I1
sVdnwq2mn
p331
I1
sVd55qbhz
p332
I1
sVdbjjbx3
p333
I2
sVcz2ogde
p334
I1
sVdsuwia1
p335
I1
sVdfaoky5
p336
I1
sVd7p4131
p337
I1
sVdg8zsfj
p338
I1
sVdki6hqu
p339
I1
sVdqeklmw
p340
I1
sVdeq9tq6
p341
I1
sVdacv5ym
p342
I1
sVdpc5u04
p343
I2
sVczwr3wq
p344
I2
sVd8dkxz5
p345
I1
sVdrpyk24
p346
I1
sVd8mnrm6
p347
I2
sVd9tcb5q
p348
I1
sVdrugclv
p349
I1
sVd7hwsa9
p350
I1
sVd3scbpp
p351
I1
sVd0upkcs
p352
I1
sVdiy8okk
p353
I1
sVdmrrz1r
p354
I1
sVdq2x6k8
p355
I1
sVdo6lel4
p356
I1
sVdgpbgm7
p357
I1
sVd4vpip2
p358
I1
sVdcb7cde
p359
I1
sVd5cvi13
p360
I1
sVd46lxh7
p361
I1
sVdsabvpd
p362
I1
sVddgrcpe
p363
I1
sVd0tknzv
p364
I1
sVdbo7p51
p365
I2
sVczyeskr
p366
I2
sVd8d7290
p367
I1
sVd8p5mdi
p368
I1
sVd55cgza
p369
I1
sVdgbdz4j
p370
I1
sVd0s32iy
p371
I1
sVd9onw33
p372
I1
sVdamxsle
p373
I1
sVdadjlzk
p374
I1
sVdne68rl
p375
I4
sVda3llbh
p376
I2
sVdfi34bd
p377
I1
sVd5nx6cv
p378
I1
sVddt8lgf
p379
I1
sVdi6z2ph
p380
I1
sVd28razw
p381
I1
sVdsgr3w9
p382
I1
sVdhnaiwt
p383
I2
sVddnac6d
p384
I1
sVd37bwz6
p385
I1
sVdcyhvik
p386
I1
sVdirnmb9
p387
I2
sVdjryjz6
p388
I1
sVd0xy3v0
p389
I1
sVdgvycw1
p390
I1
sVdk2muqp
p391
I2
sVd9yw2bq
p392
I1
sVdjn9r7u
p393
I1
sVdb06fco
p394
I1
sVd8c16x8
p395
I1
sVcyq0meo
p396
I1
sVdc14ktt
p397
I1
sVczh31nb
p398
I1
sVd3jw4ae
p399
I1
sVczw6u4d
p400
I1
sVd0yuwd5
p401
I1
sVd97xasf
p402
I1
sVdhznwz8
p403
I1
sVd9dpip7
p404
I1
sVczxmnvr
p405
I1
sVd1zaurw
p406
I1
sVddbphmd
p407
I1
sVd62frz6
p408
I2
sVdo4rd91
p409
I1
sVda3d484
p410
I1
sVd18mg6u
p411
I1
sVd2qsqha
p412
I1
sVdbx5cv4
p413
I1
sVd0u0xrf
p414
I1
sVd1t849w
p415
I1
sVd6e7stg
p416
I1
sVdexi55s
p417
I1
sVd58ylxk
p418
I1
sVdmpy34t
p419
I1
sVdfqawsv
p420
I1
sVdb06nsx
p421
I1
sVdfz6y1f
p422
I1
sVcz6z67m
p423
I1
sVdknboqu
p424
I1
sVcz9keft
p425
I1
sVdoml8bh
p426
I2
sVd91ce0j
p427
I1
sVd6izyku
p428
I1
sVdej7pmd
p429
I1
sVda6erx4
p430
I1
sVdc0ttvh
p431
I1
sVd5jmd8i
p432
I1
sVdggmp3a
p433
I1
sVd1ot3it
p434
I1
sVd17codm
p435
I1
sVdbeflo6
p436
I1
sVd94613y
p437
I1
sVdmut7x0
p438
I1
sVdoyt3gn
p439
I1
sVddog6ia
p440
I2
sVd6j97en
p441
I1
sVd1ggdfw
p442
I1
sVd016atx
p443
I1
sVd75ra2m
p444
I1
sVdrqxc5d
p445
I1
sVd3ao2o3
p446
I1
sVdsiu7z6
p447
I1
sVczm9zqb
p448
I1
sVdcu3a6d
p449
I1
sVd1v81xu
p450
I4
sVdsp3961
p451
I1
sVddutqge
p452
I1
sVcyuw1vp
p453
I1
sVd5p2eqt
p454
I1
sVd6cicpm
p455
I1
sVczcj74e
p456
I1
sVd0rzt34
p457
I1
sVcznp0l9
p458
I1
sVdcvu21g
p459
I1
sVds8xebe
p460
I1
sVdkjsdbv
p461
I1
sVdqwe26h
p462
I2
sVdrk9eet
p463
I1
sVdcw74pp
p464
I1
sVdf51o4i
p465
I1
sVd7nu0zw
p466
I1
sVdfpleyq
p467
I1
sVdixwr0p
p468
I1
sVcz3l6bw
p469
I1
sVdoiyjpx
p470
I1
sVdejcqlc
p471
I1
sVdrfkm92
p472
I1
sVd4b7u7g
p473
I1
sVdjwbfb8
p474
I1
sVd2f7km9
p475
I1
sVdkrcfld
p476
I1
sVd0rgsea
p477
I2
sVdhhybzk
p478
I1
sVcztivyt
p479
I2
sVdg97uhm
p480
I1
sVd0cfa9z
p481
I1
sVdjvgke0
p482
I1
sVd0uqkoh
p483
I1
sVd7yedfp
p484
I3
sVddgv0ag
p485
I1
sVdc6cm83
p486
I1
sVczta8x7
p487
I1
sVdaqbcch
p488
I1
sVdersesg
p489
I1
sVd8sxb9t
p490
I1
sVdd6mnio
p491
I1
sVdi1gc5h
p492
I1
sVd0oj4ds
p493
I2
sVda2n0j4
p494
I1
sVdmyfqye
p495
I1
sVdif64bp
p496
I1
sVd65tuyj
p497
I1
sVcz2hm53
p498
I5
sVdbi5o5h
p499
I2
sVdrwd7lc
p500
I1
sVdp3ulcx
p501
I1
sVd0ctrzg
p502
I1
sVdddzhok
p503
I1
sVdnlwz9h
p504
I2
sVd6suhk8
p505
I1
sVd1ziwq1
p506
I1
sVd6m5opa
p507
I5
sVd4w6nem
p508
I1
sVd625scc
p509
I1
sVcyn0hp1
p510
I1
sVd8sqblg
p511
I2
sVcztmq1b
p512
I1
sVdketdxr
p513
I1
sVdmmsh19
p514
I1
sVdb5gi0v
p515
I2
sVd6kpi0j
p516
I1
sVddt6tor
p517
I1
sVd7o9wh1
p518
I1
sVdfwmrxz
p519
I1
sVde5ezww
p520
I1
sVdajnyi8
p521
I2
sVd17hjvt
p522
I1
sVdej66hz
p523
I2
sVd2id07t
p524
I3
sVd603pa9
p525
I1
sVd5p4fyc
p526
I1
sVd29pj4k
p527
I1
sVd4h6sce
p528
I1
sVd69wogy
p529
I1
sVdbip43p
p530
I1
sVd4z5t3k
p531
I1
sVdatx6ip
p532
I2
sVdfq9aei
p533
I1
sVd7066i8
p534
I1
sVd6y1bnb
p535
I1
sVd1rvfh5
p536
I1
sVdbypamr
p537
I2
sVdhvfwpr
p538
I2
sVdcr66tc
p539
I1
sVdbppoma
p540
I1
sVdehlogs
p541
I1
sVcykuyjo
p542
I1
sVd5ukzyz
p543
I1
sVd05sfka
p544
I1
sVd9kktbq
p545
I1
sVdflkut8
p546
I1
sVdfbnzql
p547
I1
sVd9z1ln5
p548
I1
sVd2wh2yr
p549
I1
sVdt608hr
p550
I1
sVdi0lz5r
p551
I3
sVdfyxao2
p552
I1
sVdimom1x
p553
I1
sVd76rb23
p554
I1
sVdadycok
p555
I1
sVdjav7zh
p556
I1
sVcz28r6p
p557
I3
sVczon68e
p558
I1
sVdqto0gv
p559
I1
sVdd6t358
p560
I2
sVd4g03vi
p561
I1
sVdqp9jz3
p562
I1
sVddwi25x
p563
I1
sVdibqal9
p564
I1
sVdh8mgjw
p565
I1
sVd15pjkm
p566
I1
sVdkxva61
p567
I1
sVd1n95j7
p568
I1
sVdi4nmtv
p569
I1
sVd408niq
p570
I3
sVdd79ncf
p571
I1
sVdjvchr5
p572
I1
sVdhrbpfg
p573
I1
sVdbwr5jz
p574
I1
sVds4ph3f
p575
I2
sVda7zrfz
p576
I1
sVdhqbnvr
p577
I1
sVd1kwkhs
p578
I1
sVd41ymlo
p579
I1
sVdasmanl
p580
I1
sVd6ddcij
p581
I1
sVd7xbli8
p582
I1
sVd4h2vkw
p583
I1
sVd9kds02
p584
I1
sVdhyjg7f
p585
I1
sVdqzkzkt
p586
I1
sVddcw3r1
p587
I1
sVddk8e1o
p588
I1
sVdj1zgzm
p589
I1
sVdrpwhlv
p590
I1
sVdjc3vxr
p591
I1
sVczzzhlf
p592
I1
sVd6u7ak9
p593
I1
sVdc7fqo5
p594
I1
sVdam9evm
p595
I1
sVd3exrj9
p596
I1
sVdfi2wy4
p597
I1
sVd7qtssb
p598
I1
sVd1iwq5k
p599
I1
sVdio06iy
p600
I1
sVdieqfto
p601
I1
sVd4m0729
p602
I2
sVdct9d3v
p603
I1
sVdcdqzbw
p604
I1
sVdqhy3g2
p605
I1
sVd2q83v6
p606
I2
sVdcuhk55
p607
I2
sVdr4oh4u
p608
I2
sVd4c5n6t
p609
I1
sVd9tnk9h
p610
I1
sVd46248j
p611
I1
sVdovltet
p612
I1
sVdfhvsqv
p613
I2
sVd2qi4xx
p614
I1
sVdpq5et5
p615
I1
sVd7x2hix
p616
I1
sVdel2hj1
p617
I1
sVd047rgx
p618
I1
sVdej9rur
p619
I1
sVd41ut3f
p620
I1
sVdk04asc
p621
I1
sVdcivh6x
p622
I1
sVd4d5b08
p623
I1
sVd33t2o9
p624
I1
sVczp56cc
p625
I1
sVdhdu29v
p626
I1
sVdnshnzp
p627
I1
sVdcn99cb
p628
I1
sVcysdmpn
p629
I1
sVd0oaqi6
p630
I1
sVdkiob2f
p631
I1
sVdghcft5
p632
I1
sVdsda712
p633
I1
sVdekeapu
p634
I1
sVd928cl6
p635
I1
sVde7qu7i
p636
I1
sVdge394g
p637
I1
sVd3sde20
p638
I2
sVdjs9a36
p639
I1
sVdc1twzi
p640
I1
sVd65dljh
p641
I1
sVddprwif
p642
I2
sVd30lpvr
p643
I1
sVdc15l7j
p644
I2
sVcz197cr
p645
I2
sVdaztgo4
p646
I1
sVdgvgh3c
p647
I1
sVd3rsbc7
p648
I1
sVdoyjli0
p649
I1
sVda8dcgz
p650
I2
sVdavftmh
p651
I1
sVdg9liiz
p652
I1
sVcyxtie4
p653
I1
sVdjykx19
p654
I2
sVdozy426
p655
I1
sVdco6axc
p656
I1
sVda73n6c
p657
I1
sVdjdtg8p
p658
I1
sVd0998i2
p659
I1
sVdagw6sl
p660
I1
sVd08nd5p
p661
I1
sVdgh8q0g
p662
I1
sVdedvllh
p663
I1
sVd06ao1b
p664
I1
sVdng3ga9
p665
I1
sVd4yhxri
p666
I1
sVdevmqa5
p667
I3
sVd2cvofp
p668
I1
sVde3mzak
p669
I1
sVdkue1yg
p670
I1
sVdikw45e
p671
I1
sVd76fcb0
p672
I1
sVd3ljeqk
p673
I1
sVd97h4wi
p674
I1
sVd85plcj
p675
I1
sVdkxfagg
p676
I3
sVd1kptx2
p677
I1
sVd3n9rxe
p678
I2
sVdroq8of
p679
I1
sVczse72i
p680
I1
sVcym6yyz
p681
I1
sVdg7i1mi
p682
I1
sVd1bl171
p683
I1
sVdbenzlq
p684
I1
sVd3wakjs
p685
I1
sVd0i7hnt
p686
I1
sVcztgsv1
p687
I1
sVd7k45gy
p688
I1
sVcyxwur6
p689
I1
sVd3430ou
p690
I1
sVcz8uase
p691
I1
sVd029xti
p692
I1
sVczogfdm
p693
I1
sVd0e8ciq
p694
I1
sVdfxubwn
p695
I1
sVde16bmn
p696
I1
sVczjr17v
p697
I1
sVdgz1uau
p698
I1
sVdn5n16s
p699
I1
sVdk262n1
p700
I1
sVdbxu70v
p701
I1
sVd1hn318
p702
I1
sVczc8i7q
p703
I4
sVd7wsf3h
p704
I1
sVd3sg9uk
p705
I1
sVdk0qkh5
p706
I1
sVdkalszt
p707
I1
sVd208dv5
p708
I1
sVdaktjn6
p709
I1
sVdrs0zmj
p710
I1
sVdmyd5zo
p711
I1
sVd10ecjd
p712
I1
sVdenw3z7
p713
I1
sVddwggaq
p714
I1
sVd9h66zh
p715
I1
sVdqhvp8m
p716
I1
sVdac325m
p717
I1
sVd6houwz
p718
I1
sVdkdafky
p719
I1
sVdefz88x
p720
I2
sVdhbc8vh
p721
I1
sVdez3ufd
p722
I1
sVdo5r73w
p723
I1
sVcyu2zed
p724
I1
sVdii18bf
p725
I1
sVd1lxryt
p726
I5
sVd0ez9wl
p727
I1
sVd5yrgxp
p728
I1
sVdjo8aig
p729
I1
sVdntle26
p730
I1
sVdmq0h9l
p731
I1
sVd162z90
p732
I1
sVd89sile
p733
I1
sVdmi5yqu
p734
I1
sVdao3677
p735
I1
sVdizn1gl
p736
I1
sVd7z6e41
p737
I1
sVdcdejoi
p738
I1
sVdcsczua
p739
I1
sVd0ti4cp
p740
I1
sVd9wmtqi
p741
I2
sVdgf49rd
p742
I1
sVdbumxvw
p743
I1
sVdj2m1pi
p744
I1
sVdghe40s
p745
I1
sVd3zm48a
p746
I1
sVcyxcrcx
p747
I2
sVdarldjc
p748
I1
sVdqfxasd
p749
I1
sVdfgdr6d
p750
I1
sVdrryn59
p751
I1
sVd5fn20l
p752
I1
sVdem7ee4
p753
I1
sVdjnd4yk
p754
I1
sVdcavh5q
p755
I1
sVdordd05
p756
I1
sVcyrgd6r
p757
I1
sVd97e3u2
p758
I1
sVd2jp7jm
p759
I1
sVcyi5ont
p760
I1
sVdbeams6
p761
I1
sVd75s1s3
p762
I1
sVd7ins1b
p763
I1
sVdqoy3w7
p764
I7
sVde0016j
p765
I1
sVd6kplk0
p766
I1
sVd0ek8pi
p767
I1
sVdpuz6ih
p768
I2
sVdmp5f39
p769
I1
sVd9j5huz
p770
I2
sVdglhsna
p771
I1
sVd8hxwc0
p772
I1
sVd1m6xlc
p773
I1
sVdi0noke
p774
I1
sVd5wea0q
p775
I1
sVd3l9sy3
p776
I2
sVd15g48d
p777
I1
sVdfolxaq
p778
I1
sVdn9qr3j
p779
I1
sVdh7zbo7
p780
I1
sVdk55c2x
p781
I1
sVd85t5yd
p782
I1
sVds9p9cy
p783
I1
sVddesteu
p784
I1
sVdcx5se8
p785
I1
sVd9tpglj
p786
I1
sVd61krtt
p787
I2
sVdt1rwo6
p788
I1
sVda7jndn
p789
I1
sVdgffrqq
p790
I1
sVdpsdlh0
p791
I1
sVd865t77
p792
I1
sVdfaf6dz
p793
I1
sVd3u8oyc
p794
I2
sVdbgzlr1
p795
I2
sVdrs3o0q
p796
I1
sVd91jsqs
p797
I1
sVdbmvp2w
p798
I1
sVdjbllac
p799
I2
sVdhf7fr3
p800
I1
sVd7s8yuy
p801
I1
sVdcgb9pn
p802
I1
sVdghrvq1
p803
I1
sVddtabf3
p804
I3
sVcyjgpib
p805
I1
sVdg54h9v
p806
I1
sVd74103n
p807
I1
sVdff3agt
p808
I1
sVd99yqhw
p809
I1
sVdbbfr0d
p810
I2
sVd05luk2
p811
I1
sVdh9a0vb
p812
I2
sVdgwmqwk
p813
I1
sVdqtwtuf
p814
I1
sVdf0azpo
p815
I1
sVcylq81u
p816
I1
sVdjlesni
p817
I1
sVd2pwk87
p818
I1
sVdqykqq0
p819
I1
sVd4ohe3x
p820
I1
sVdfi5fs3
p821
I1
sVdeelcbh
p822
I1
sVdegyppu
p823
I1
sVdpdro4v
p824
I1
sVdhkmtkg
p825
I1
sVczglr1z
p826
I1
sVd074v35
p827
I5
sVdpfm7n0
p828
I1
sVczcdt94
p829
I1
sVdnh411z
p830
I1
sVdccul3i
p831
I1
sVd3gz66j
p832
I1
sVdmf5zvc
p833
I1
sVdszevqp
p834
I1
sVd1qm9wr
p835
I2
sVdscenrl
p836
I1
sVdgl6ctx
p837
I1
sVdhfwy1w
p838
I1
sVdcst3vg
p839
I1
sVdg53jta
p840
I1
sVdng6fpd
p841
I1
sVddecx1c
p842
I1
sVdmeydgi
p843
I1
sVdcivmti
p844
I1
sVd78uupe
p845
I1
sVdid43pj
p846
I1
sVd1q0nfe
p847
I1
sVdew1pc4
p848
I1
sVczdumma
p849
I1
sVd8cf77a
p850
I1
sVdcu2usk
p851
I1
sVd0iav4t
p852
I1
sVdeg5ddm
p853
I1
sVdpg06nu
p854
I1
sVdaadixf
p855
I1
sVdr82m5e
p856
I1
sVdiwrkte
p857
I1
sVdeenszz
p858
I1
sVdh81dls
p859
I1
sVdmtxrvs
p860
I1
sVd5r7gaf
p861
I2
sVd0j6xmx
p862
I1
sVdhwx53p
p863
I1
sVdr96dqi
p864
I1
sVdhcyxks
p865
I1
sVdbct76k
p866
I1
sVdc46rd4
p867
I2
sVdtibafq
p868
I1
sVd55fq7v
p869
I1
sVczrord9
p870
I1
sVddgnkzi
p871
I1
sVdc2vk20
p872
I1
sVcyisrob
p873
I1
sVd4gdenr
p874
I1
sVd2q2lsn
p875
I2
sVddd4rgd
p876
I1
sVdr4rluj
p877
I2
sVd14qtiq
p878
I1
sVdh4xmkf
p879
I1
sVdtczjxk
p880
I1
sVd2a2xi6
p881
I1
sVcyjcwbs
p882
I1
sVdd82g7f
p883
I1
sVdckb81j
p884
I1
sVd5576w1
p885
I1
sVdddbb69
p886
I1
sVczgk7zo
p887
I1
sVd1cxrgr
p888
I1
sVd88o3s4
p889
I1
sVd9d6fwk
p890
I1
sVdp2lbzz
p891
I2
sVdn9ee0w
p892
I1
sVd1vk0se
p893
I1
sVdkktowu
p894
I1
sVdhvddhr
p895
I1
sVdj3j2q4
p896
I1
sVda09zof
p897
I1
sVdecqnwx
p898
I1
sVcyz6qfs
p899
I1
sVd7vkdum
p900
I1
sVd66ow3v
p901
I1
sVczfq1uv
p902
I1
sVcz93njw
p903
I1
sVdn4x9oz
p904
I1
sVd215dqo
p905
I1
sVd7z9aw2
p906
I2
sVd62c6kf
p907
I1
sVdhpj0gu
p908
I1
sVd3u8h05
p909
I2
sVczarq54
p910
I1
sVdhd6pfj
p911
I2
sVd3u4rav
p912
I1
sVd44rmmj
p913
I1
sVdbm81dq
p914
I1
sVdccorkz
p915
I1
sVdgdfnio
p916
I2
sVdgd02kf
p917
I1
sVdb89ivi
p918
I1
sVd3yojek
p919
I2
sVdtexhlr
p920
I1
sVdcv0at7
p921
I1
sVdc0u55r
p922
I4
sVd3byq2b
p923
I1
sVda0vt23
p924
I1
sVdbi5pan
p925
I1
sVd9zli5i
p926
I1
sVd4gro0g
p927
I1
sVd8o6cn8
p928
I1
sVd2qzbfn
p929
I1
sVds02jmi
p930
I1
sVdakwgmw
p931
I1
sVdbcomq8
p932
I1
sVczbrno7
p933
I1
sVddyollw
p934
I1
sVd4o0t5f
p935
I1
sVdio54gc
p936
I1
sVdru74s8
p937
I1
sVd3ex6vd
p938
I1
sVdbt5azo
p939
I1
sVdnjb80n
p940
I1
sVdkw2i87
p941
I1
sVdn7enrc
p942
I1
sVdj7xyj2
p943
I2
sVd57zxt6
p944
I1
sVczjeok1
p945
I1
sVdt91kdp
p946
I1
sVdpovcr4
p947
I2
sVdrftjo2
p948
I1
sVdozt52l
p949
I1
sVd2hv4o6
p950
I1
sVczgthrk
p951
I1
sVdermiga
p952
I1
sVdaakf8x
p953
I1
sVda830wd
p954
I1
sVd2xu4y7
p955
I1
sVd0caw8w
p956
I1
sVd8svliq
p957
I1
sVdhj56ai
p958
I1
sVdemuuai
p959
I1
sVczcj8rg
p960
I1
sVdd8dvcx
p961
I1
sVd1lwbxf
p962
I1
sVdr6lays
p963
I1
sVdr0nol7
p964
I1
sVdrqfrer
p965
I1
sVdrtr65l
p966
I1
sVd5yj5v0
p967
I1
sVdd8euqi
p968
I1
sVcz5bbdo
p969
I1
sVdi0svam
p970
I2
sVd0asfax
p971
I1
sVde6ztn0
p972
I1
sVd4jiiq5
p973
I1
sVd0yh0cv
p974
I1
sVd590rb5
p975
I1
sVd67t6yv
p976
I1
sVddwgk05
p977
I1
sVd7h1tuw
p978
I3
sVdg5zmu9
p979
I1
sVdjokq5p
p980
I1
sVd26g1gu
p981
I1
sVd3ib7io
p982
I1
sVczeyu3b
p983
I2
sVdp8oqjd
p984
I2
sVd3wp97t
p985
I1
sVcztjt2z
p986
I2
sVcz95kw3
p987
I1
sVdjblmg1
p988
I1
sVdcwxh92
p989
I1
sVdbhz35b
p990
I1
sVddg73bo
p991
I1
sVd5xovnc
p992
I1
sVdb1yfrk
p993
I1
sVd0rqcqs
p994
I1
sVd07yj47
p995
I1
sVczlxm50
p996
I1
sVd0w77t9
p997
I1
sVd7dyie1
p998
I1
sVdihau6o
p999
I1
sVdr15hlf
p1000
I1
sVd1he0ub
p1001
I1
sVdf0ci70
p1002
I1
sVdb95qmx
p1003
I1
sVdbz4kw8
p1004
I1
sVd6md2mr
p1005
I1
sVdrqwhxm
p1006
I1
sVdbm2iwu
p1007
I1
sVd96xx0l
p1008
I2
sVcyuyo1b
p1009
I1
sVd1uv1fh
p1010
I1
sVdb8h0a6
p1011
I1
sVdn2c28r
p1012
I1
sVdd52jg8
p1013
I1
sVdewmosy
p1014
I2
sVdo0iu1e
p1015
I1
sVdpcdop9
p1016
I4
sVd5h72p9
p1017
I1
sVcz7n07i
p1018
I1
sVd9q3io1
p1019
I1
sVd4iqhko
p1020
I1
sVd6rrr74
p1021
I1
sVd6m8phw
p1022
I1
sVdeie4d7
p1023
I1
sVcyr6y7x
p1024
I2
sVd0pfipe
p1025
I1
sVddp5v3c
p1026
I2
sVddpyfp1
p1027
I2
sVd9iqr57
p1028
I1
sVd2xfd5x
p1029
I1
sVd7hjgn7
p1030
I1
sVd3eqmue
p1031
I1
sVdgigbpz
p1032
I1
sVd6gc31m
p1033
I1
sVdsgir7j
p1034
I2
sVdnurimq
p1035
I1
sVd72d6bv
p1036
I1
sVdff4flg
p1037
I1
sVddw0ff7
p1038
I3
sVddt73u4
p1039
I1
sVdt07hg3
p1040
I1
sVczxwsvr
p1041
I1
sVdf1x9g2
p1042
I1
sVd40ofpw
p1043
I1
sVdbspvjw
p1044
I1
sVdbwnqt9
p1045
I2
sVd5vma1b
p1046
I1
sVd1iq9k7
p1047
I1
sVdo6c7d4
p1048
I2
sVd9s243o
p1049
I1
sVd9pvdk7
p1050
I1
sVdt0o82j
p1051
I1
sVdjrozr3
p1052
I1
sVdd1y24k
p1053
I1
sVd1dcp3d
p1054
I1
sVdf3j8rw
p1055
I1
sVd99szdn
p1056
I1
sVdot1l2m
p1057
I1
sVdk6w73g
p1058
I1
sVd9dj4ze
p1059
I1
sVdmem4ir
p1060
I1
sVds7rkck
p1061
I1
sVdb6r1qh
p1062
I3
sVd3avana
p1063
I2
sVdbels9q
p1064
I1
sVdg58z1q
p1065
I1
sVd9lc07s
p1066
I1
sVdpj9db0
p1067
I1
sVd3em5yp
p1068
I1
sVddwk996
p1069
I1
sVd45v9fu
p1070
I2
sVd9j0x7a
p1071
I2
sVd256t9d
p1072
I1
sVdav6bmp
p1073
I1
sVdj5aq4o
p1074
I1
sVd8mt74d
p1075
I1
sVddwwh1x
p1076
I3
sVcyjyeds
p1077
I1
sVdccalrf
p1078
I2
sVd8py45r
p1079
I1
sVddxf7px
p1080
I1
sVd6m7pdn
p1081
I2
sVdhuy1fu
p1082
I1
sVd52iblh
p1083
I2
sVdnu2xkv
p1084
I1
sVdc0tofc
p1085
I1
sVdpcuo8o
p1086
I1
sVd7xx4fg
p1087
I1
sVdjlgf1w
p1088
I1
sVd7fe2v0
p1089
I2
sVd2p21pv
p1090
I1
sVdn9xvdw
p1091
I1
sVd3603yl
p1092
I1
sVds16r13
p1093
I1
sVd16j599
p1094
I1
sVdotj7it
p1095
I1
sVda35x58
p1096
I1
sVdira81m
p1097
I1
sVddm46md
p1098
I1
sVcyy2yfo
p1099
I2
sVdclc6k0
p1100
I1
sVdtgbsti
p1101
I1
sVdihi16e
p1102
I1
sVdii03lu
p1103
I1
sVd1ozvkk
p1104
I1
sVdn1p5jk
p1105
I2
sVd0l0h9w
p1106
I1
sVd0crez5
p1107
I1
sVdn20eb9
p1108
I1
sVd9wzglr
p1109
I1
sVd1w0npj
p1110
I1
sVd7hx1ej
p1111
I1
sVde454n7
p1112
I1
sVdg2l1h0
p1113
I1
sVdeuqbst
p1114
I1
sVdbpj3ij
p1115
I1
sVd3smaab
p1116
I1
sVddx5mvs
p1117
I1
sVdoqfrf0
p1118
I1
sVdmy1f9t
p1119
I1
sVdnvyp3y
p1120
I2
sVd75spyt
p1121
I1
sVczpwuu9
p1122
I1
sVdht1gfq
p1123
I1
sVdc3fzes
p1124
I1
sVddbh5pj
p1125
I2
sVdrcc27x
p1126
I1
sVdi8cqv3
p1127
I1
sVd2quzzk
p1128
I6
sVdpsawy5
p1129
I1
sVd4nzu88
p1130
I1
sVd99my2n
p1131
I1
sVd3rppjo
p1132
I1
sVd25vzpk
p1133
I1
sVdgxql7u
p1134
I1
sVd6arzgt
p1135
I1
sVdq14ol1
p1136
I1
sVdsw848h
p1137
I1
sVddfgmpo
p1138
I1
sVdkqafm3
p1139
I1
sVdaf4akt
p1140
I1
sVd9bgtyi
p1141
I2
sVd3enu20
p1142
I1
sVdk5y65h
p1143
I1
sVda82yo5
p1144
I1
sVden62nh
p1145
I1
sVd74c50v
p1146
I1
sVd421zv0
p1147
I1
sVdc9p75b
p1148
I1
sVdc3r8vb
p1149
I1
sVd2yofvt
p1150
I1
sVddman8n
p1151
I1
sVcyq1hzc
p1152
I1
sVdqpymit
p1153
I1
sVczbuwd0
p1154
I1
sVd4u4e1u
p1155
I1
sVd5udg77
p1156
I1
sVdp2fivd
p1157
I1
sVd87bcaa
p1158
I1
sVdi4wrxp
p1159
I1
sVczvg2ah
p1160
I2
sVd4yusrr
p1161
I1
sVdalsmvx
p1162
I2
sVd4kwkzn
p1163
I1
sVd37f9zo
p1164
I1
sVczw35rq
p1165
I1
sVda6tzkn
p1166
I2
sVdirrqbj
p1167
I1
sVdjfc1so
p1168
I1
sVd7h0jg7
p1169
I1
sVdk3z31d
p1170
I1
sVdfiupqb
p1171
I1
sVdcu2w9j
p1172
I1
sVdn39zok
p1173
I1
sVd8hde8k
p1174
I1
sVdf058nw
p1175
I1
sVd7uczbd
p1176
I1
sVdhbtbrp
p1177
I1
sVdh9luco
p1178
I1
sVd091zz5
p1179
I1
sVddmjeu1
p1180
I1
sVda5uolw
p1181
I1
sVcz3xai4
p1182
I1
sVdkjogfq
p1183
I2
sVd2geksa
p1184
I1
sVd9sr1yl
p1185
I1
sVda9px2k
p1186
I1
sVd8cdcum
p1187
I1
sVdrqck3x
p1188
I1
sVd3e2jfx
p1189
I1
sVdecirwp
p1190
I1
sVd626ctp
p1191
I1
sVd7jaal0
p1192
I1
sVd1r0f1j
p1193
I1
sVdecee5p
p1194
I1
sVd9ny19t
p1195
I1
sVdf1z8ck
p1196
I1
sVd8562rr
p1197
I2
sVdiqewea
p1198
I1
sVdeqcb5q
p1199
I1
sVd9mmf14
p1200
I1
sVcyr8fc5
p1201
I1
sVd4xsesf
p1202
I1
sVdqb2iiq
p1203
I1
sVdmguifm
p1204
I1
sVdj8uwiu
p1205
I1
sVd1q9wvm
p1206
I1
sVd4yd20b
p1207
I1
sVdgt198y
p1208
I1
sVd3q8t4d
p1209
I1
sVdsiuhrn
p1210
I1
sVdb650ce
p1211
I1
sVdrjl8jg
p1212
I1
sVdju0wdt
p1213
I1
sVd71asjs
p1214
I1
sVdog8wez
p1215
I1
sVdq4h9ch
p1216
I1
sVd6zhx9x
p1217
I1
sVdgrqm7x
p1218
I1
sVd1jkem2
p1219
I1
sVdkhuwvt
p1220
I1
sVd1rbrt8
p1221
I1
sVdirifed
p1222
I1
sVd48jqmq
p1223
I1
sVd516ou7
p1224
I1
sVda386w7
p1225
I1
sVdcbckae
p1226
I1
sVd3r7xzg
p1227
I1
sVdc8ceyp
p1228
I1
sVdeny5t3
p1229
I1
sVd0qc9qd
p1230
I1
sVdr19ek4
p1231
I1
sVd6m1dke
p1232
I1
sVdqklrtm
p1233
I1
sVdf6uvhb
p1234
I1
sVczdwya9
p1235
I1
sVdhzpjnh
p1236
I1
sVdgh318e
p1237
I1
sVcyutw0p
p1238
I1
sVdsu2lry
p1239
I1
sVcyut9j0
p1240
I1
sVddivbdu
p1241
I1
sVdf0wgfb
p1242
I1
sVddcrjjg
p1243
I1
sVdfz0yhp
p1244
I1
sVdqs3yt0
p1245
I1
sVdhzhhrt
p1246
I1
sVdrd0uec
p1247
I1
sVd5j51yn
p1248
I1
sVdqm5tbq
p1249
I1
sVdbjx6dk
p1250
I1
sVd5cpcpf
p1251
I1
sVd1cqftj
p1252
I2
sVd7e8a81
p1253
I1
sVdnfcmob
p1254
I1
sVdbr67pt
p1255
I1
sVdi0jxt4
p1256
I2
sVdf7jvq4
p1257
I1
sVd4w9xs7
p1258
I1
sVd3fs8yp
p1259
I1
sVdcw3l4k
p1260
I1
sVdie10tj
p1261
I1
sVczokzzw
p1262
I1
sVd2463sk
p1263
I1
sVdf62e3a
p1264
I2
sVd71pxvk
p1265
I1
sVd4i9q77
p1266
I1
sVd5sfhm3
p1267
I1
sVdg9rf7s
p1268
I1
sVdezrlrv
p1269
I1
sVdhaikkb
p1270
I1
sVczk4s66
p1271
I1
sVd2zhyfj
p1272
I1
sVd3uqmzk
p1273
I1
sVd23afbc
p1274
I1
sVdgfm0np
p1275
I1
sVczucyem
p1276
I1
sVd2kx5yy
p1277
I1
sVd1hyjfm
p1278
I1
sVd180354
p1279
I1
sVd1oqxdi
p1280
I1
sVdhamzqc
p1281
I1
sVd0o77rh
p1282
I1
sVdbklu01
p1283
I1
sVd9cml4g
p1284
I1
sVdfssnoh
p1285
I1
sVd58nm2p
p1286
I1
sVd01nmce
p1287
I1
sVdmsgbsk
p1288
I2
sVdcjhf99
p1289
I1
sVd38ex4p
p1290
I1
sVdqvdy72
p1291
I1
sVdik0vuw
p1292
I1
sVdk7tvva
p1293
I1
sVdk0a5qb
p1294
I1
sVdsz9bjg
p1295
I1
sVdeqjdke
p1296
I2
sVczav3zi
p1297
I1
sVd7udrs2
p1298
I1
sVd5hg9ic
p1299
I1
sVd1olxe6
p1300
I2
sVd1j1t2c
p1301
I1
sVdaxihnv
p1302
I1
sVd5gpa5o
p1303
I1
sVdg7c16x
p1304
I1
sVdfkiest
p1305
I1
sVdg4aosz
p1306
I2
sVdh6iyzg
p1307
I1
sVd4odr36
p1308
I1
sVd23ag2s
p1309
I1
sVd0p82va
p1310
I1
sVdmxa22m
p1311
I2
sVd21rdc8
p1312
I1
sVd5nkmss
p1313
I2
sVdf9fll9
p1314
I1
sVdekuhwp
p1315
I1
sVdkrw5cz
p1316
I1
sVd05nqrn
p1317
I1
sVd1cdb4e
p1318
I1
sVdmtq0fh
p1319
I1
sVdahfp9r
p1320
I1
sVdt5bi3e
p1321
I1
sVdky75uf
p1322
I1
sVdevttlx
p1323
I1
sVd7llwqg
p1324
I1
sVdepjf0r
p1325
I4
sVdcvdwkp
p1326
I1
sVd2hf781
p1327
I1
sVdhlf6au
p1328
I1
sVde4mv8u
p1329
I1
sVdbkux7q
p1330
I1
sVd4mtumc
p1331
I1
sVd17qmqq
p1332
I1
sVdry8p8o
p1333
I1
sVdgt4m4r
p1334
I1
sVd1atwil
p1335
I1
sVdnrx236
p1336
I1
sVd8ddjc0
p1337
I1
sVcyup8o6
p1338
I1
sVdtcob41
p1339
I1
sVdmkb68k
p1340
I1
sVd001s68
p1341
I1
sVdpug8r9
p1342
I1
sVdogjbh5
p1343
I1
sVdrz5yj0
p1344
I1
sVdceqyrf
p1345
I1
sVdtiaqwr
p1346
I1
sVde03yn6
p1347
I1
sVcyzjunl
p1348
I1
sVdsr1kma
p1349
I1
sVdtj4yh0
p1350
I1
sVdf602fq
p1351
I1
sVdt81fzm
p1352
I2
sVde83cfe
p1353
I3
sVdn7htkm
p1354
I5
sVdhohvx8
p1355
I1
sVdrovdk2
p1356
I1
sVcz7d7ln
p1357
I2
sVdfh0nx3
p1358
I1
sVd7p3jzg
p1359
I1
sVd03l1j3
p1360
I1
sVd3y4p06
p1361
I1
sVdditrrb
p1362
I2
sVd00tvtt
p1363
I1
sVdqpils6
p1364
I2
sVdays4q5
p1365
I1
sVdiz3oqx
p1366
I2
sVdhurvnw
p1367
I1
sVd6s78on
p1368
I1
sVd05ky11
p1369
I1
sVd6z8gr9
p1370
I1
sVd8ho0r4
p1371
I1
sVd1yk8rb
p1372
I1
sVdali3am
p1373
I1
sVd5wq33q
p1374
I1
sVdhn87ik
p1375
I1
sVdbewrk3
p1376
I1
sVdekzgg8
p1377
I1
sVdc2osag
p1378
I1
sVd78taiv
p1379
I1
sVd3mnm1y
p1380
I1
sVd6b3wpp
p1381
I1
sVdh026fq
p1382
I1
sVdjqghu5
p1383
I2
sVd580i43
p1384
I1
sVd3wwa9z
p1385
I1
sVddmlsz4
p1386
I1
sVdf7x4g2
p1387
I1
sVde54xot
p1388
I1
sVdr5txh8
p1389
I1
sVczi1r1l
p1390
I1
sVdc5rju5
p1391
I1
sVdbxx17o
p1392
I1
sVdskkwgr
p1393
I1
sVdcyvve1
p1394
I1
sVdh0fdh9
p1395
I1
sVda6df48
p1396
I1
sVdpsmzb2
p1397
I4
sVczawvgz
p1398
I1
sVd91azzw
p1399
I2
sVdpdg8dw
p1400
I1
sVdjdgik6
p1401
I1
sVdpwe4qz
p1402
I1
sVdjgufhg
p1403
I1
sVdejzbsn
p1404
I1
sVdmgx407
p1405
I1
sVdjc85ur
p1406
I1
sVd0441x7
p1407
I1
sVd7remaz
p1408
I1
sVdiqduea
p1409
I1
sVdny9h8d
p1410
I1
sVdch2qvw
p1411
I1
sVdjze1wd
p1412
I1
sVdo9vdi7
p1413
I1
sVd3d9ez2
p1414
I1
sVd87uzwh
p1415
I1
sVcz7i6hs
p1416
I1
sVdowai6l
p1417
I1
sVd3oxkeo
p1418
I1
sVczgnkbn
p1419
I1
sVd1x5qz8
p1420
I1
sVdq0eys2
p1421
I1
sVcyieidn
p1422
I1
sVddt5byh
p1423
I1
sVd2ypcig
p1424
I2
sVdqgprga
p1425
I2
sVd5u8h28
p1426
I2
sVd7lob9v
p1427
I1
sVd6omdsf
p1428
I1
sVd056bbu
p1429
I1
sVd0za0xw
p1430
I1
sVddwr0eu
p1431
I1
sVcyvdd51
p1432
I1
sVd2oy5k8
p1433
I1
sVds2ry1z
p1434
I1
sVcysam7h
p1435
I1
sVdf4gq18
p1436
I1
sVd9d3c4g
p1437
I1
sVd0c7yyc
p1438
I2
sVdi6fc2g
p1439
I2
sVdbr3qw9
p1440
I1
sVcz1zbly
p1441
I1
sVd9xmedk
p1442
I1
sVd4hwsuv
p1443
I1
sVczoveo6
p1444
I2
sVd014i9v
p1445
I2
sVd1rjif4
p1446
I1
sVdnuzptg
p1447
I1
sVdida8lt
p1448
I1
sVd47tzx7
p1449
I1
sVdtgwa0v
p1450
I1
sVdhockpe
p1451
I1
sVcznymky
p1452
I1
sVdahxjo4
p1453
I1
sVczx8h2e
p1454
I1
sVdt8v8tw
p1455
I1
sVd42avfr
p1456
I1
sVd6sz1dg
p1457
I1
sVd7u8u8v
p1458
I1
sVd0qp70t
p1459
I1
sVdqltzzt
p1460
I1
sVd9hxn2s
p1461
I1
sVdn6ka4j
p1462
I1
sVdi3d95i
p1463
I1
sVd0dk0hm
p1464
I1
sVddqm9sj
p1465
I2
sVddqrwr6
p1466
I1
sVdg9f40l
p1467
I1
sVd2ajt9s
p1468
I1
sVdhw54m1
p1469
I1
sVdhzqif9
p1470
I1
sVd6xer6q
p1471
I1
sVdcerd6y
p1472
I1
sVcyyhqtn
p1473
I1
sVdbfov3q
p1474
I1
sVdhxb60c
p1475
I1
sVd9ud1fm
p1476
I1
sVd1ky1w8
p1477
I1
sVdcqhtla
p1478
I1
sVd3x13dq
p1479
I1
sVczpwfdu
p1480
I1
sVdbtm4k5
p1481
I1
sVd1qaqih
p1482
I1
sVdjci5np
p1483
I1
sVdfs9ak6
p1484
I1
sVd0i0hvf
p1485
I1
sVd14szm0
p1486
I1
sVd03qmco
p1487
I1
sVczgigc1
p1488
I1
sVdi2pujl
p1489
I1
sVdo03njv
p1490
I1
sVdefnpi5
p1491
I1
sVda1bfco
p1492
I1
sVdj2i3b6
p1493
I1
sVd1vy1ox
p1494
I2
sVds1ofym
p1495
I1
sVd97e7mm
p1496
I1
sVde9rkzl
p1497
I1
sVd1saqf0
p1498
I1
sVczh5x8p
p1499
I1
sVdmh9sbn
p1500
I1
sVdab7cgf
p1501
I1
sVdavrdhn
p1502
I1
sVdqbyx3w
p1503
I1
sVdaqoenb
p1504
I1
sVd97a3g5
p1505
I1
sVdnlt56g
p1506
I3
sVd25humi
p1507
I1
sVd5tn96h
p1508
I1
sVdheg7qw
p1509
I1
sVd8tkr4f
p1510
I1
sVdqdi7ov
p1511
I1
sVdp93s27
p1512
I1
sVdnp2ime
p1513
I1
sVdgy5l3p
p1514
I2
sVdq661g3
p1515
I1
sVd08x7om
p1516
I1
sVdszk7gx
p1517
I1
sVd8aailc
p1518
I1
sVdbqfco4
p1519
I1
sVdmmlrbj
p1520
I1
sVdepk2qc
p1521
I1
sVd5nrz1y
p1522
I1
sVdtc7c61
p1523
I1
sVcyv4sle
p1524
I2
sVczslk0f
p1525
I1
sVd455abt
p1526
I1
sVd35fjhn
p1527
I1
sVd0g7hwx
p1528
I1
sVdrxbznn
p1529
I1
sVd6vxogx
p1530
I1
sVd07583u
p1531
I2
sVd0l5biz
p1532
I1
sVd26uwij
p1533
I1
sVdob4e10
p1534
I1
sVdazj2vq
p1535
I1
sVdsn2l4b
p1536
I2
sVdgfq5a3
p1537
I1
sVd3iviwo
p1538
I2
sVdfni5fu
p1539
I1
sVdhr44sl
p1540
I1
sVd4jp2g3
p1541
I1
sVd6gkz9a
p1542
I2
sVd2cmhbw
p1543
I1
sVd7f88t9
p1544
I1
sVdbocyy4
p1545
I1
sVd3cz6ty
p1546
I1
sVczcuqkx
p1547
I1
sVddwre9k
p1548
I1
sVdbuz8ig
p1549
I1
sVdhhcivd
p1550
I1
sVd9xdibt
p1551
I1
sVdivxvoc
p1552
I1
sVd0nw3rx
p1553
I1
sVd0avody
p1554
I1
sVd6dkcfg
p1555
I1
sVdpc9aau
p1556
I1
sVdbwkasi
p1557
I1
sVdnhbbuf
p1558
I1
sVdjarak5
p1559
I1
sVcz57l28
p1560
I1
sVda57g9a
p1561
I1
sVdd1v0lg
p1562
I1
sVd30gv07
p1563
I1
sVd1wxr8b
p1564
I1
sVd1eer4p
p1565
I1
sVdi6sklg
p1566
I1
sVd5o3gx1
p1567
I1
sVdeuix22
p1568
I1
sVdj8q2lc
p1569
I1
sVdiy0d54
p1570
I1
sVd0upnxr
p1571
I1
sVdk0nwgy
p1572
I1
sVdbtfisv
p1573
I2
sVd299571
p1574
I1
sVd51qwc8
p1575
I1
sVdke8f1t
p1576
I1
sVdidjzp1
p1577
I1
sVdsi8lpi
p1578
I1
sVds2yhtg
p1579
I1
sVdn2y8cl
p1580
I1
sVd65mglp
p1581
I1
sVd1yx022
p1582
I1
sVdd5cgfd
p1583
I1
sVd38ugc6
p1584
I1
sVdh650vx
p1585
I1
sVdf0bg9h
p1586
I1
sVd98b4br
p1587
I1
sVd6jan30
p1588
I2
sVddwj6oe
p1589
I1
sVczp09g8
p1590
I1
sVdidy74j
p1591
I1
sVdgj8e36
p1592
I1
sVdkge0q8
p1593
I1
sVde2i2x3
p1594
I2
sVd1aducn
p1595
I2
sVd4h8bxf
p1596
I1
sVd2dzbf1
p1597
I2
sVdht77bm
p1598
I1
sVdhtqhfw
p1599
I1
sVd54y7m7
p1600
I2
sVd10mlmh
p1601
I1
sVdg2byg5
p1602
I1
sVdedxorx
p1603
I2
sVd97qw4x
p1604
I1
sVd2aeauq
p1605
I1
sVd2zxjj2
p1606
I1
sVdplr3fm
p1607
I2
sVd4fx07l
p1608
I1
sVdfrdjox
p1609
I1
sVd1c3lyd
p1610
I1
sVdh5v6x9
p1611
I1
sVd90q32j
p1612
I1
sVddzrn0i
p1613
I1
sVd7k1xkv
p1614
I1
sVdeaa7hw
p1615
I1
sVdeuhpcl
p1616
I1
sVddzwzem
p1617
I1
sVdsjxgjx
p1618
I2
sVdb4am5p
p1619
I1
sVdadaixs
p1620
I1
sVdhz47e3
p1621
I1
sVcz91ek9
p1622
I2
sVd18jekx
p1623
I1
sVd7mypvm
p1624
I2
sVdejn7sf
p1625
I2
sVczxnwan
p1626
I2
sVd9vwrbx
p1627
I1
sVdkn0vc1
p1628
I1
sVdt41z53
p1629
I1
sVdi2xl5n
p1630
I1
sVd6zmxe5
p1631
I1
sVdg79n0q
p1632
I1
sVd73e4jy
p1633
I1
sVd3xzbgz
p1634
I1
sVd2s8rf8
p1635
I1
sVd0h1kis
p1636
I1
sVd1l9n9k
p1637
I1
sVdeqgf5n
p1638
I1
sVd75obz2
p1639
I1
sVddeeuw8
p1640
I3
sVd01s4t3
p1641
I1
sVdskt9z7
p1642
I1
sVd3zr9xo
p1643
I1
sVd5efuuk
p1644
I1
sVd14pqs1
p1645
I3
sVde028i1
p1646
I1
sVdo78o8d
p1647
I2
sVd0ghdl7
p1648
I2
sVdbcf9ng
p1649
I1
sVdr5yfg3
p1650
I1
sVd74g4tc
p1651
I1
sVdoi9ub5
p1652
I1
sVd17u40u
p1653
I1
sVdr0q4ak
p1654
I1
sVd0tl9ih
p1655
I1
sVdcb8zti
p1656
I1
sVczoq1al
p1657
I2
sVczq8qu9
p1658
I1
sVdkkpefo
p1659
I1
sVdqyj2io
p1660
I1
sVd5swzmv
p1661
I1
sVdnu6hwp
p1662
I1
sVds0wo0g
p1663
I1
sVdqvtxey
p1664
I1
sVdcwbk19
p1665
I1
sVdd8aptc
p1666
I1
sVd55xl81
p1667
I5
sVdcarkan
p1668
I1
sVder3tp4
p1669
I1
sVdjymo1m
p1670
I1
sVdjugmlh
p1671
I1
sVddpfr1a
p1672
I1
sVdmg2cda
p1673
I1
sVd0x7nph
p1674
I1
sVdkn2w5r
p1675
I1
sVd6s2029
p1676
I2
sVcyub4ba
p1677
I2
sVd7ripko
p1678
I1
sVda6xflv
p1679
I1
sVdazi70c
p1680
I1
sVd3b73s8
p1681
I1
sVd15zvoo
p1682
I1
sVd21f7wl
p1683
I1
sVdo13ww1
p1684
I1
sVdiix5n0
p1685
I1
sVdae3ein
p1686
I1
sVdp5iy14
p1687
I1
sVdsxnbnj
p1688
I1
sVdepev0v
p1689
I1
sVcz9ukb1
p1690
I1
sVdp7zlyv
p1691
I1
sVdho4tmj
p1692
I1
sVd7j7t54
p1693
I1
sVdg19y8q
p1694
I1
sVdeeqv5y
p1695
I1
sVd1x4a54
p1696
I3
sVdc18w32
p1697
I1
sVd884ycj
p1698
I1
sVdrdd37f
p1699
I1
sVddc35kr
p1700
I1
sVdc5bydp
p1701
I1
sVdfq7o1y
p1702
I1
sVd8fcbg4
p1703
I2
sVdthis1q
p1704
I1
sVd8xvr85
p1705
I2
sVd50u64r
p1706
I1
sVddztm9y
p1707
I2
sVdbfxhxd
p1708
I1
sVdguqu8a
p1709
I1
sVcyos513
p1710
I1
sVdf4pka0
p1711
I1
sVdbxekfe
p1712
I1
sVdioo84u
p1713
I1
sVdrgvcf0
p1714
I1
sVdj6k8t7
p1715
I1
sVd8x12aj
p1716
I1
sVdjexjm4
p1717
I1
sVdnpgr1e
p1718
I1
sVdim3op3
p1719
I2
sVdqsdb8z
p1720
I1
sVdboyyuh
p1721
I1
sVdbjm5ne
p1722
I1
sVdobjf9q
p1723
I1
sVd3k78wy
p1724
I1
sVd128o63
p1725
I1
sVd3erm67
p1726
I1
sVdn1jb7y
p1727
I2
sVdd911x3
p1728
I1
sVd9myqfe
p1729
I1
sVd9540uf
p1730
I1
sVdfbcbtq
p1731
I1
sVd2csy7o
p1732
I1
sVd1ah6m2
p1733
I1
sVdmvjmld
p1734
I1
sVd5oywqq
p1735
I3
sVdjqm9i4
p1736
I1
sVd2ofpym
p1737
I1
sVdb60egk
p1738
I1
sVd1r6nuu
p1739
I1
sVdg2nyd7
p1740
I1
sVd3rfne8
p1741
I1
sVd6o3rqj
p1742
I1
sVdmxverm
p1743
I1
sVdgidbkm
p1744
I1
sVd86e3q6
p1745
I1
sVd3eis11
p1746
I1
sVdmmui25
p1747
I1
sVdb92hda
p1748
I1
sVdnd994c
p1749
I1
sVczt75ct
p1750
I1
sVdfu884a
p1751
I1
sVdjks9df
p1752
I1
sVczadewp
p1753
I1
sVdee4isz
p1754
I1
sVd8ipk19
p1755
I1
sVdax9vaa
p1756
I1
sVd9asqq3
p1757
I1
sVdiontvy
p1758
I1
sVcz69ael
p1759
I1
sVdi3mamv
p1760
I1
sVd4qsvtb
p1761
I1
sVd98m3lh
p1762
I1
sVd862tq1
p1763
I1
sVd81601p
p1764
I1
sVczwn55u
p1765
I1
sVdh5cm21
p1766
I1
sVdq6n1vh
p1767
I2
sVddfucs5
p1768
I1
sVd06ynhj
p1769
I1
sVd6zc8wl
p1770
I1
sVdj6hd9r
p1771
I1
sVdagtumg
p1772
I1
sVdnh0q9x
p1773
I1
sVdsau82w
p1774
I1
sVdbxc1ay
p1775
I1
sVd19jhth
p1776
I1
sVdj1laau
p1777
I2
sVdg9uks6
p1778
I2
sVczyug91
p1779
I1
sVdsb7xcx
p1780
I1
sVd3o8yo5
p1781
I1
sVd0n2tuk
p1782
I1
sVd9ajz1s
p1783
I1
sVdc8pw70
p1784
I2
sVd2v4xw5
p1785
I1
sVd3wwg33
p1786
I1
sVd1h2b6r
p1787
I1
sVdo9oiz3
p1788
I1
sVdehowin
p1789
I1
sVd1lw2df
p1790
I1
sVdi0glol
p1791
I1
sVdhjkby9
p1792
I1
sVddga4c7
p1793
I1
sVddcsz14
p1794
I1
sVdc5fecp
p1795
I2
sVd1dofss
p1796
I1
sVdju18zx
p1797
I2
sVddhug85
p1798
I1
sVdjm9njy
p1799
I1
sVd7xibhe
p1800
I1
sVd1qos9g
p1801
I1
sVdc03ox0
p1802
I1
sVda9q51e
p1803
I1
sVd5x0f8l
p1804
I1
sVdc7nri7
p1805
I1
sVdgyhqw2
p1806
I1
sVdco74l7
p1807
I1
sVdks9eto
p1808
I1
sVd24qw53
p1809
I1
sVdiz2ipm
p1810
I1
sVdfi7jrp
p1811
I2
sVd8gnird
p1812
I1
sVdp7p4qq
p1813
I1
sVdbjhkkb
p1814
I1
sVd072zxy
p1815
I2
sVczusyfg
p1816
I1
sVdmmz04a
p1817
I1
sVdobpzxk
p1818
I1
sVd7mcyr2
p1819
I1
sVdg2lryu
p1820
I1
sVdaode15
p1821
I1
sVcz3xv9m
p1822
I2
sVdqy00yv
p1823
I1
sVd4agwpg
p1824
I1
sVcz5590q
p1825
I1
sVdhby67d
p1826
I1
sVdrv7nv0
p1827
I1
sVddofz0s
p1828
I1
sVdknmd23
p1829
I1
sVd05mpn1
p1830
I1
sVdmnkab8
p1831
I1
sVdmztm55
p1832
I1
sVdc3fgws
p1833
I3
sVdgmtgq6
p1834
I1
sVdiszzqj
p1835
I2
sVdomuumv
p1836
I1
sVd0xwpxv
p1837
I1
sVdgv3efj
p1838
I1
sVdetyfsk
p1839
I1
sVdfvozo1
p1840
I1
sVd1zw8mv
p1841
I1
sVd0q46e8
p1842
I1
sVd9l6pw4
p1843
I1
sVdclnw4s
p1844
I1
sVd3k8z96
p1845
I2
sVd2oszmb
p1846
I1
sVdsko0pq
p1847
I1
sVdcx7esj
p1848
I3
sVd2cbxk3
p1849
I1
sVd2887tk
p1850
I3
sVd4etyv2
p1851
I1
sVdc3um0q
p1852
I2
sVdgetz8e
p1853
I1
sVd0cimf9
p1854
I1
sVdhsfwa4
p1855
I1
sVdk4vs44
p1856
I2
sVd070x5f
p1857
I5
sVdeush9x
p1858
I1
sVdfd8bau
p1859
I1
sVd0fbymt
p1860
I1
sVdredr16
p1861
I1
sVd2kk7a3
p1862
I3
sVdmfvbox
p1863
I1
sVd2c6yt8
p1864
I1
sVd9smt09
p1865
I1
sVdo4mgw8
p1866
I1
sVd0t4txz
p1867
I1
sVdao9coc
p1868
I1
sVdejsgn7
p1869
I1
sVddijyxo
p1870
I1
sVdb51uwo
p1871
I1
sVczzlqa3
p1872
I1
sVdc1i3fp
p1873
I1
sVd9pfghs
p1874
I1
sVd2a6fpg
p1875
I1
sVdk7negi
p1876
I1
sVd5fqndl
p1877
I1
sVdjy4yxu
p1878
I1
sVdj1oi8l
p1879
I1
sVdkpoo0s
p1880
I1
sVdrnosrg
p1881
I1
sVdsu9l1v
p1882
I1
sVd6b6l4x
p1883
I1
sVdppp6du
p1884
I1
sVdo0v03c
p1885
I1
sVd427r27
p1886
I1
sVdfhdn70
p1887
I1
sVdqp3msm
p1888
I1
sVd94jb2u
p1889
I1
sVczzva3t
p1890
I1
sVddwklme
p1891
I1
sVd5lzppa
p1892
I1
sVdo86ffe
p1893
I1
sVddijgvh
p1894
I1
sVd877rip
p1895
I2
sVdcmxmk6
p1896
I1
sVde0gmmy
p1897
I1
sVda4x4cz
p1898
I1
sVd9en00w
p1899
I1
sVdayk6n6
p1900
I1
sVd2jnjzo
p1901
I1
sVdeht2nn
p1902
I1
sVd9piv5m
p1903
I1
sVdmzf5mj
p1904
I1
sVd95manh
p1905
I1
sVd8wdvdl
p1906
I1
sVdg3a5x4
p1907
I1
sVdkufru5
p1908
I1
sVdpa4q9n
p1909
I1
sVd3pecmw
p1910
I1
sVd0772s1
p1911
I1
sVd1dgoyp
p1912
I1
sVdritbrw
p1913
I1
sVdjp128x
p1914
I1
sVd5xrdpt
p1915
I1
sVdoe1stc
p1916
I2
sVd247en5
p1917
I1
sVds81sqe
p1918
I1
sVdd4a1ck
p1919
I1
sVd2vvvox
p1920
I1
sVd32k36v
p1921
I2
sVderjmxv
p1922
I2
sVddq0heg
p1923
I2
sVczkqzco
p1924
I1
sVdqu13xx
p1925
I1
sVdgn116a
p1926
I1
sVd3a7x8s
p1927
I1
sVdk3j1op
p1928
I1
sVd8ymr1o
p1929
I1
sVd8013k3
p1930
I1
sVdhdpgrq
p1931
I1
sVdr1v3v0
p1932
I2
sVd2eqvpb
p1933
I1
sVd2iv921
p1934
I1
sVdqbq5pu
p1935
I1
sVdb641ct
p1936
I1
sVdgj145e
p1937
I1
sVd26qo4e
p1938
I1
sVdblg4gg
p1939
I1
sVd16yryv
p1940
I1
sVd7xyser
p1941
I1
sVd0mqggb
p1942
I1
sVdp8jljy
p1943
I2
sVdgsikhm
p1944
I2
sVdfprteo
p1945
I1
sVd9l3mzk
p1946
I1
sVdeopydm
p1947
I1
sVd9d6lr4
p1948
I3
sVd7zoa96
p1949
I1
sVd4xaref
p1950
I1
sVd50is8k
p1951
I1
sVdeq52j8
p1952
I2
sVd18rgyc
p1953
I1
sVddk6ixs
p1954
I1
sVd4z9udm
p1955
I1
sVdojawz0
p1956
I1
sVdmq1wxi
p1957
I1
sVdb53e1n
p1958
I1
sVd3v70y4
p1959
I1
sVdenqiou
p1960
I1
sVdfyusm8
p1961
I1
sVd6cvoiw
p1962
I1
sVdp0ajbb
p1963
I2
sVdadzmp0
p1964
I1
sVdb6e2in
p1965
I1
sVd796834
p1966
I1
sVd0zo9hz
p1967
I1
sVdt8jbv8
p1968
I1
sVd6jftme
p1969
I1
sVd6hmvy3
p1970
I1
sVcynlgyx
p1971
I1
sVdbmmbpl
p1972
I1
sVczc5fqq
p1973
I1
sVd1rr2qq
p1974
I1
sVdccc3np
p1975
I1
sVdrud2no
p1976
I1
sVdg9cwaw
p1977
I2
sVdhlfh98
p1978
I1
sVdgzx7rz
p1979
I1
sVdqcw8y2
p1980
I1
sVd3mlbv7
p1981
I2
sVcz7oxs2
p1982
I1
sVdbc9buv
p1983
I1
sVdebiai1
p1984
I1
sVd46ch50
p1985
I1
sVdohjvs3
p1986
I1
sVd8z85bg
p1987
I1
sVd0ssqim
p1988
I1
sVd82jlhh
p1989
I1
sVd4etekv
p1990
I1
sVdkksdgx
p1991
I2
sVd4uae6z
p1992
I1
sVd1jrz18
p1993
I1
sVd95scmr
p1994
I1
sVd5ivt8o
p1995
I1
sVd6hzq4j
p1996
I2
sVd50lny2
p1997
I2
sVdejydyh
p1998
I1
sVd648t1f
p1999
I1
sVd53ylzh
p2000
I1
sVdcjzv8y
p2001
I1
sVdf53t1b
p2002
I1
sVdqk4z4h
p2003
I1
sVdmi6qla
p2004
I1
sVd63q6kw
p2005
I1
sVddv1q38
p2006
I1
sVdctw0ag
p2007
I1
sVdhefrnl
p2008
I1
sVdjq9z3p
p2009
I1
sVd84q4lp
p2010
I1
sVd6kfxvb
p2011
I1
sVdh3p4ly
p2012
I1
sVdruojkx
p2013
I1
sVdqs7ixq
p2014
I1
sVd9jvgck
p2015
I1
sVczxstub
p2016
I1
sVdio1x6r
p2017
I2
sVd2cw7k4
p2018
I1
sVd5excbs
p2019
I1
sVd7i6t5r
p2020
I1
sVdg9hpcw
p2021
I3
sVdgxi5u3
p2022
I1
sVddhx5sn
p2023
I1
sVde61yt5
p2024
I1
sVdaw1lgg
p2025
I1
sVdmrxttd
p2026
I1
sVd74t2n7
p2027
I1
sVd720py2
p2028
I1
sVdisymso
p2029
I1
sVdido3wf
p2030
I1
sVdcpq9v4
p2031
I1
sVdf5c5bo
p2032
I1
sVd0ickwo
p2033
I1
sVdncnd9b
p2034
I1
sVdh68g9c
p2035
I1
sVdb6387p
p2036
I1
sVd2w9c6c
p2037
I1
sVds1lkw8
p2038
I2
sVdq3kagm
p2039
I1
sVdhfl16r
p2040
I1
sVdniqpuq
p2041
I1
sVcyxi57d
p2042
I1
sVdpzaemw
p2043
I1
sVd2hukjt
p2044
I1
sVd1qots3
p2045
I1
sVdmfjdph
p2046
I1
sVdhkn0mo
p2047
I2
sVd4muakr
p2048
I1
sVd8fvvba
p2049
I1
sVdfwwwie
p2050
I1
sVdr7ugr9
p2051
I1
sVdtagwby
p2052
I1
sVczl6c0g
p2053
I1
sVczltlax
p2054
I1
sVcylicze
p2055
I1
sVdnfrauf
p2056
I1
sVdacf77p
p2057
I1
sVd3zxx61
p2058
I1
sVd6ug1lg
p2059
I1
sVd31nqht
p2060
I1
sVde2ibub
p2061
I1
sVdthuzt3
p2062
I1
sVdnrcane
p2063
I1
sVdb5ermx
p2064
I1
sVd6w6vl6
p2065
I1
sVcz7fil8
p2066
I1
sVcyiogfs
p2067
I1
sVd8u6kw6
p2068
I1
sVdo5dg11
p2069
I1
sVdetex2z
p2070
I1
sVd4ip2wh
p2071
I1
sVcyufd2e
p2072
I1
sVdbij0gu
p2073
I1
sVd7elkg2
p2074
I1
sVdcja0kr
p2075
I2
sVdju30zo
p2076
I1
sVdmz6up8
p2077
I1
sVczjztgw
p2078
I1
sVdnqqxq3
p2079
I1
sVdf59uoi
p2080
I1
sVcyqkb6e
p2081
I1
sVdpqd7g8
p2082
I1
sVd3n99hy
p2083
I1
sVdf5o02z
p2084
I1
sVdgtiulw
p2085
I1
sVd50jgxt
p2086
I1
sVde0rgso
p2087
I1
sVdckme9i
p2088
I1
sVd2pypcf
p2089
I1
sVd46dnuu
p2090
I1
sVd076pgj
p2091
I1
sVdsu9r9v
p2092
I2
sVda18vjs
p2093
I1
sVdfz6izy
p2094
I1
sVdjbre2b
p2095
I1
sVde1tokw
p2096
I1
sVczw41yt
p2097
I1
sVdc5lstb
p2098
I1
sVd07x5ay
p2099
I1
sVdn14fqj
p2100
I4
sVdjuwz1x
p2101
I2
sVd785agg
p2102
I1
sVd2uxdh3
p2103
I1
sVdb01in9
p2104
I1
sVdj8apsl
p2105
I1
sVd24948i
p2106
I1
sVdkjgy7m
p2107
I1
sVd81w1r6
p2108
I2
sVcynf8yu
p2109
I1
sVdg5f3wa
p2110
I1
sVdno1a7i
p2111
I1
sVd0fbxqb
p2112
I1
sVd9fz5ez
p2113
I1
sVdkdp909
p2114
I1
sVcyndojq
p2115
I1
sVcyzwq5z
p2116
I1
sVd50um00
p2117
I1
sVd6mxi9p
p2118
I1
sVczhp8mn
p2119
I1
sVczi699p
p2120
I1
sVd4chkhc
p2121
I1
sVd85lt5h
p2122
I1
sVd1tbx8a
p2123
I1
sVd3dt2ex
p2124
I1
sVdn3s1ho
p2125
I1
sVdb4bg8v
p2126
I2
sVdnetemk
p2127
I1
sVd095roh
p2128
I1
sVd8sh22o
p2129
I1
sVdaobdrk
p2130
I1
sVdd2rt2k
p2131
I1
sVdndwvz6
p2132
I1
sVdjuw9tj
p2133
I1
sVd04e8gh
p2134
I1
sVd7hregz
p2135
I1
sVd5ej5gr
p2136
I1
sVd92aojo
p2137
I1
sVdj8mywk
p2138
I1
sVd3r23aj
p2139
I1
sVda2nki5
p2140
I1
sVdefesu1
p2141
I1
sVczrc1th
p2142
I2
sVdbjralv
p2143
I1
sVdd0l4sj
p2144
I1
sVd0hr5w5
p2145
I1
sVdaxriiu
p2146
I1
sVdpjeou0
p2147
I1
sVd02kd17
p2148
I1
sVd1m7avi
p2149
I1
sVdpx7wtt
p2150
I1
sVd84fayo
p2151
I1
sVdmjr69h
p2152
I1
sVd41e7s7
p2153
I1
sVd3ac2b2
p2154
I2
sVd9feler
p2155
I1
sVd5nrugv
p2156
I1
sVdj8timd
p2157
I1
sVcyqyhjn
p2158
I1
sVd15owzs
p2159
I1
sVdfxc7lv
p2160
I1
sVd8fbsvh
p2161
I1
sVd0rx2f8
p2162
I1
sVd8zxz0o
p2163
I1
sVd44vsku
p2164
I1
sVddahh43
p2165
I1
sVd0qm8bz
p2166
I1
sVdhujgmx
p2167
I1
sVd6y6d3g
p2168
I1
sVd4hxziw
p2169
I2
sVddgp2fz
p2170
I1
sVd0u4b8r
p2171
I1
sVd2twc00
p2172
I2
sVdk7w6kw
p2173
I1
sVd78sky9
p2174
I1
sVdb5i2z7
p2175
I1
sVd2dxvcp
p2176
I1
sVdg6eoqg
p2177
I1
sVdighg5a
p2178
I1
sVd68qh0v
p2179
I1
sVd3vr3d5
p2180
I1
sVd1d9mzn
p2181
I1
sVd7t4b8f
p2182
I1
sVd84kt0f
p2183
I1
sVd65692c
p2184
I1
sVd54jsia
p2185
I1
sVcz9lke0
p2186
I1
sVcz6kasm
p2187
I1
sVdtd78mq
p2188
I1
sVcz6344b
p2189
I1
sVd219l8t
p2190
I1
sVdnq79op
p2191
I1
sVd6mp1pi
p2192
I1
sVcypbvkk
p2193
I1
sVdnyxibs
p2194
I1
sVdfprbig
p2195
I2
sVdiqkezh
p2196
I1
sVczxsbi3
p2197
I1
sVdjsyzyb
p2198
I1
sVdg6aa3n
p2199
I1
sVdp980pb
p2200
I1
sVdmv2br9
p2201
I1
sVd7p458n
p2202
I1
sVd48f0p8
p2203
I1
sVd0p7v01
p2204
I1
sVd00h6so
p2205
I2
sVdfzwpvy
p2206
I1
sVdge45p8
p2207
I1
sVdsn7lah
p2208
I2
sVddnaeg0
p2209
I1
sVdhayaa6
p2210
I1
sVd9ao1z5
p2211
I1
sVd7r5cek
p2212
I1
sVdoqcmfn
p2213
I1
sVdjyb81p
p2214
I1
sVd90453o
p2215
I1
sVd6ne1sc
p2216
I1
sVd5wuc06
p2217
I2
sVdg7pa1x
p2218
I1
sVd6hh1m0
p2219
I2
sVd2q3cvu
p2220
I1
sVdeis5ov
p2221
I1
sVdo7x5o0
p2222
I1
sVd45y215
p2223
I1
sVcyt0gyd
p2224
I1
sVd7v4g22
p2225
I1
sVczflq64
p2226
I1
sVdc7qykw
p2227
I1
sVdf4qr8n
p2228
I1
sVczqeppf
p2229
I1
sVd517c3w
p2230
I1
sVdeu6rlj
p2231
I1
sVdaevaiq
p2232
I2
sVd43znb0
p2233
I2
sVd42sazz
p2234
I1
sVde4ng1o
p2235
I1
sVdex3snw
p2236
I1
sVd9fe98o
p2237
I1
sVddm44w3
p2238
I1
sVd3cmdor
p2239
I2
sVdam5gjo
p2240
I1
sVdhktwns
p2241
I1
sVdp8bp7r
p2242
I2
sVdmywluk
p2243
I3
sVd534jdr
p2244
I1
sVdpwm2fc
p2245
I1
sVdk2jwa2
p2246
I1
sVd2ig4ma
p2247
I1
sVd30wa9y
p2248
I1
sVd5fzp28
p2249
I1
sVd3lnxf7
p2250
I1
sVd7z2o3w
p2251
I1
sVd6jij42
p2252
I1
sVd0cf78j
p2253
I1
sVddmzjcp
p2254
I1
sVds0ipyv
p2255
I1
sVd992sc6
p2256
I1
sVczwnxxo
p2257
I1
sVdazfd10
p2258
I1
sVd2ein9e
p2259
I1
sVde2spla
p2260
I1
sVdmuv9js
p2261
I1
sVd1zk7a2
p2262
I1
sVczlqshp
p2263
I2
sVdchkcc2
p2264
I1
sVdag055l
p2265
I1
sVd6kp5bc
p2266
I1
sVd8kdwf2
p2267
I2
sVdmg6d7a
p2268
I1
sVde7n6bi
p2269
I1
sVdaub73r
p2270
I5
sVd51egn7
p2271
I1
sVd5f8lxa
p2272
I1
sVd50q7q7
p2273
I1
sVdh3691b
p2274
I1
sVdrfvrac
p2275
I1
sVczsynmn
p2276
I1
sVd1ffnj2
p2277
I2
sVdfqxr63
p2278
I1
sVdd8txa4
p2279
I1
sVcywoqxw
p2280
I1
sVd9imrw9
p2281
I1
sVdb8f7ol
p2282
I1
sVdru8ais
p2283
I1
sVdomdon4
p2284
I1
sVd1e8l9q
p2285
I1
sVdmz9vcq
p2286
I1
sVdb86f5s
p2287
I1
sVdii9kn3
p2288
I1
sVdb63e1a
p2289
I3
sVczudcnt
p2290
I1
sVdfpgey2
p2291
I1
sVd89o615
p2292
I1
sVddcu65y
p2293
I1
sVddwbs2k
p2294
I1
sVcyjvx0z
p2295
I1
sVczj514g
p2296
I1
sVdceuo4k
p2297
I1
sVdk6dn1h
p2298
I1
sVczqiyrp
p2299
I1
sVdsr0ue8
p2300
I1
sVd036de9
p2301
I1
sVdoelwxc
p2302
I1
sVd69krnj
p2303
I2
sVd8scwd6
p2304
I1
sVd0zifli
p2305
I1
sVd8efqfd
p2306
I1
sVcyleu7u
p2307
I1
sVde9oz68
p2308
I1
sVd9lrbqj
p2309
I1
sVd2am8ad
p2310
I1
sVddwx03n
p2311
I1
sVd0xoh4s
p2312
I1
sVdfaed8n
p2313
I1
sVdh0yev6
p2314
I1
sVd3pw45n
p2315
I1
sVczl3lop
p2316
I1
sVdkt8aew
p2317
I1
sVd66s6b2
p2318
I1
sVdc1e83g
p2319
I1
sVdh7e3z5
p2320
I1
sVdt2u203
p2321
I1
sVd01w5er
p2322
I1
sVd2sotqp
p2323
I1
sVcyj5r3g
p2324
I1
sVdelb52c
p2325
I1
sVd3ix3fl
p2326
I1
sVdqchd57
p2327
I1
sVdjiy24u
p2328
I1
sVd4bjfg7
p2329
I1
sVdkpjipw
p2330
I1
sVdb0w48c
p2331
I2
sVdsp6c59
p2332
I1
sVdpk4kq6
p2333
I1
sVcynzj6i
p2334
I1
sVdb6ygxu
p2335
I1
sVd128vk5
p2336
I1
sVd7mojj0
p2337
I1
sVd67ochz
p2338
I1
sVd0iupjq
p2339
I1
sVd82ylit
p2340
I3
sVdb5z0d2
p2341
I1
sVdp7rto1
p2342
I1
sVd120cb5
p2343
I1
sVdgo1hpk
p2344
I1
sVddwvrma
p2345
I1
sVd1d4ikh
p2346
I1
sVdh2f9yj
p2347
I1
sVd9rg5yi
p2348
I1
sVdeajm4a
p2349
I2
sVdokosd7
p2350
I1
sVd1of85h
p2351
I1
sVdc3alf3
p2352
I1
sVd3z9eq8
p2353
I2
sVdszwyb6
p2354
I1
sVd7qjb63
p2355
I1
sVd0h6mj3
p2356
I1
sVdjdrcar
p2357
I1
sVdgsb2wn
p2358
I1
sVdeswnvx
p2359
I3
sVd71zzgu
p2360
I1
sVddstjq5
p2361
I2
sVdjerlv3
p2362
I1
sVdkhvpfn
p2363
I1
sVdgmnbzx
p2364
I1
sVdghft9w
p2365
I1
sVd5jw21w
p2366
I1
sVdemfefy
p2367
I1
sVdd5grai
p2368
I1
sVdj5ggq4
p2369
I1
sVdb8pkr7
p2370
I1
sVd1m52zx
p2371
I1
sVcz9zvb5
p2372
I1
sVd3ie8um
p2373
I1
sVdk0gfhc
p2374
I1
sVda8kwjk
p2375
I1
sVdgela5p
p2376
I1
sVd2w703f
p2377
I1
sVdof4994
p2378
I1
sVdfk541m
p2379
I1
sVd56izh5
p2380
I3
sVdciepis
p2381
I1
sVdq3aeko
p2382
I1
sVd0v87ls
p2383
I1
sVcytydh6
p2384
I1
sVd0b6cf4
p2385
I1
sVdihd0ud
p2386
I1
sVdj4wbeh
p2387
I2
sVd9lcek7
p2388
I1
sVd3n2p61
p2389
I1
sVdrjncln
p2390
I1
sVd775kf6
p2391
I2
sVd60ex83
p2392
I1
sVdf89kmi
p2393
I1
sVd1f3qqy
p2394
I1
sVd0grglw
p2395
I1
sVd5698cy
p2396
I1
sVdf415pl
p2397
I1
sVdfghyv0
p2398
I1
sVdhs24a3
p2399
I3
sVdo7j5g3
p2400
I1
sVdc6an1v
p2401
I1
sVdfx5d1p
p2402
I1
sVdfgfdvi
p2403
I1
sVdtc9j8k
p2404
I1
sVdi2bx58
p2405
I1
sVd7zjgzz
p2406
I1
sVd8jl3oc
p2407
I1
sVd2zhnzf
p2408
I1
sVcyr3k10
p2409
I1
sVd04yntg
p2410
I1
sVdfsm8ah
p2411
I1
sVdpf329u
p2412
I1
sVdj9cpyq
p2413
I1
sVdpz323w
p2414
I1
sVdeltd8j
p2415
I1
sVd00c80q
p2416
I1
sVdgaf7bi
p2417
I1
sVdbw93oq
p2418
I1
sVdheemws
p2419
I1
sVdkdslp8
p2420
I1
sVde5n17n
p2421
I1
sVddngjc9
p2422
I1
sVczzp5ow
p2423
I1
sVczc4qai
p2424
I1
sVd2pn3bv
p2425
I1
sVd6449ye
p2426
I1
sVdk980xg
p2427
I1
sVd4zrru7
p2428
I1
sVdaoc2ou
p2429
I1
sVczu52xp
p2430
I1
sVdhc816h
p2431
I2
sVddkz0af
p2432
I2
sVd0iv3c9
p2433
I1
sVd09wkue
p2434
I1
sVd9cr7du
p2435
I1
sVd093p5a
p2436
I1
sVdd8ctd7
p2437
I1
sVdi4y6rc
p2438
I1
sVdd6a58s
p2439
I1
sVdfhsmlw
p2440
I1
sVd8z1sx3
p2441
I1
sVdh2jwot
p2442
I3
sVd0i157c
p2443
I1
sVd9b62zz
p2444
I1
sVdgcxx30
p2445
I4
sVdjoefnw
p2446
I1
sVdk5go9q
p2447
I1
sVdq8a2d8
p2448
I2
sVdg33gqr
p2449
I1
sVd4qsrjs
p2450
I2
sVdancy5l
p2451
I1
sVd316jwr
p2452
I1
sVdidxfq8
p2453
I2
sVdpbljei
p2454
I2
sVd8cwauz
p2455
I3
sVdb8qd7g
p2456
I1
sVdggymsl
p2457
I1
sVd60tky9
p2458
I1
sVdt3ysze
p2459
I1
sVd74aa0n
p2460
I1
sVd9lkq9d
p2461
I1
sVd6s8adj
p2462
I1
sVd4n05lf
p2463
I1
sVd2uyfm1
p2464
I1
sVd5pb3a1
p2465
I1
sVdivece0
p2466
I2
sVd3fjc6r
p2467
I1
sVd9lghuv
p2468
I1
sVdd6gbh6
p2469
I1
sVda054pt
p2470
I1
sVddla5ty
p2471
I1
sVczdx5eg
p2472
I1
sVdqei8zt
p2473
I1
sVd098m9r
p2474
I1
sVdantvg7
p2475
I2
sVdaz2b38
p2476
I1
sVd04uc5a
p2477
I1
sVdgffp4f
p2478
I1
sVd71ouob
p2479
I1
sVdd4xx1i
p2480
I1
sVdifmy66
p2481
I1
sVd5khac4
p2482
I1
sVdkegnf2
p2483
I1
sVdk45cyg
p2484
I1
sVd9um0ee
p2485
I1
sVdgb4lbd
p2486
I1
sVdg2cgaw
p2487
I1
sVdpw2x12
p2488
I1
sVd0c73rg
p2489
I1
sVdi5d5i3
p2490
I1
sVcyx8wru
p2491
I2
sVd35foe1
p2492
I4
sVdnogoal
p2493
I1
sVddon7tx
p2494
I1
sVd58xe00
p2495
I1
sVdfblbxw
p2496
I1
sVczj23tb
p2497
I1
sVd7cngvp
p2498
I1
sVdnckoch
p2499
I1
sVd6jbdcd
p2500
I1
sVdgmsl9u
p2501
I1
sVcztdjpq
p2502
I1
sVdhbd9v5
p2503
I1
sVd4lw1u8
p2504
I1
sVd675jgf
p2505
I1
sVd3ln1pn
p2506
I1
sVdjfodff
p2507
I1
sVdabql9n
p2508
I1
sVde10vqq
p2509
I1
sVd8vumuq
p2510
I1
sVdix9ns7
p2511
I1
sVdfi8thn
p2512
I1
sVd8hbi6y
p2513
I2
sVdel7yo6
p2514
I1
sVd05i3h3
p2515
I1
sVd7tpxga
p2516
I1
sVcyuny2p
p2517
I1
sVdi1jxg2
p2518
I1
sVdj4z9hu
p2519
I1
sVd57wmul
p2520
I1
sVd82pc4s
p2521
I3
sVdmry8a0
p2522
I1
sVdhwisq0
p2523
I1
sVdsn4r0p
p2524
I1
sVdi6jgpm
p2525
I1
sVdf1wfd3
p2526
I1
sVd1irupf
p2527
I1
sVdcezwgd
p2528
I1
sVd4n24lv
p2529
I2
sVdpld6sf
p2530
I1
sVdbso7rh
p2531
I1
sVdoratl6
p2532
I1
sVdjcl7xm
p2533
I1
sVd2vs907
p2534
I1
sVdfy5dun
p2535
I1
sVczu9eb2
p2536
I1
sVdsjfa94
p2537
I1
sVdn2vbaj
p2538
I1
sVd69aheo
p2539
I1
sVd7rihcn
p2540
I1
sVde7i14q
p2541
I1
sVd01mnsd
p2542
I1
sVdr5ttjj
p2543
I2
sVd2svbpu
p2544
I1
sVd047izk
p2545
I1
sVdjz3jtg
p2546
I1
sVdksfnwe
p2547
I1
sVdfghs1r
p2548
I1
sVd2iwtmq
p2549
I1
sVd3o058v
p2550
I1
sVd1kyis0
p2551
I1
sVdgmupyi
p2552
I2
sVdowz073
p2553
I1
sVdora36x
p2554
I1
sVd0fm7ds
p2555
I1
sVdfikvht
p2556
I1
sVcz4x7s5
p2557
I1
sVcz5wsye
p2558
I1
sVdbwstpu
p2559
I1
sVdb9dx1l
p2560
I1
sVdsid5fu
p2561
I1
sVd0efwr0
p2562
I2
sVdms9ces
p2563
I2
sVd5chm98
p2564
I2
sVdifhi40
p2565
I1
sVdezyole
p2566
I1
sVd878z09
p2567
I1
sVdgkjdur
p2568
I1
sVd13ocw9
p2569
I1
sVd673mnn
p2570
I1
sVd4qc30i
p2571
I1
sVdqno6l5
p2572
I1
sVdgko6rk
p2573
I1
sVdk59s5l
p2574
I1
sVcyt8luj
p2575
I1
sVdgd2psv
p2576
I1
sVdgt8ixj
p2577
I1
sVdk4qm3b
p2578
I1
sVd3pnu2o
p2579
I2
sVdf9ooth
p2580
I4
sVdfaeast
p2581
I1
sVdqjycp6
p2582
I1
sVdg60jjb
p2583
I1
sVd9yodqa
p2584
I1
sVd8oaly4
p2585
I1
sVd4gjs2p
p2586
I2
sVd1y8trc
p2587
I1
sVd2qeqxo
p2588
I1
sVd0p5w2s
p2589
I1
sVczjqeis
p2590
I1
sVd0jen74
p2591
I1
sVdpdpput
p2592
I1
sVdfa7qf9
p2593
I1
sVd8fpmfl
p2594
I1
sVczgbu6g
p2595
I1
sVd1e0k7v
p2596
I1
sVd1lqw68
p2597
I3
sVdkk85gz
p2598
I1
sVdqvq1vf
p2599
I1
sVdco9v2q
p2600
I1
sVcz1jw3g
p2601
I1
sVdblu3pp
p2602
I1
sVd1t3zsj
p2603
I1
sVdr1t8pk
p2604
I1
sVdg18ewk
p2605
I1
sVdequi77
p2606
I1
sVd53bq0s
p2607
I1
sVdaz2i1i
p2608
I1
sVdd8sgmj
p2609
I1
sVddt2vld
p2610
I1
sVdebe0dl
p2611
I1
sVdees6u5
p2612
I1
sVdmwj0nj
p2613
I1
sVdnl261u
p2614
I2
sVd110xz8
p2615
I1
sVde59nu1
p2616
I1
sVday3g4v
p2617
I1
sVd05m2i2
p2618
I1
sVdf98yfd
p2619
I1
sVdp92qll
p2620
I1
sVdn75z3d
p2621
I1
sVdd3twet
p2622
I1
sVdj5dgsv
p2623
I1
sVd9xdl3j
p2624
I1
sVdft10z3
p2625
I1
sVdqxbnpw
p2626
I1
sVdpsm6fn
p2627
I1
sVd72f726
p2628
I1
sVd32hfyk
p2629
I1
sVd29hh6n
p2630
I1
sVdilht6q
p2631
I1
sVdsibtgp
p2632
I1
sVdbedjrp
p2633
I1
sVdj8fimt
p2634
I1
sVd16hhvc
p2635
I1
sVdi6htp9
p2636
I1
sVdf32pca
p2637
I1
sVdfq78n9
p2638
I1
sVdg4ac9u
p2639
I2
sVdej4awp
p2640
I1
sVdcez9e6
p2641
I1
sVddqtl8l
p2642
I1
sVdewcxsg
p2643
I1
sVdk8wr5c
p2644
I1
sVdht4ol1
p2645
I1
sVdb0diw9
p2646
I1
sVdq5glyo
p2647
I1
sVd0d6ajv
p2648
I1
sVdruz4d5
p2649
I1
sVdf9d75l
p2650
I1
sVdbc932d
p2651
I1
sVd6x8pn3
p2652
I1
sVd257v6h
p2653
I1
sVd9fmyhy
p2654
I4
sVcyjcvxa
p2655
I1
sVd58elel
p2656
I1
sVdt02n9d
p2657
I1
sVd8t8tvl
p2658
I1
sVd5xlwi1
p2659
I1
sVdb90w3n
p2660
I3
sVdqz5wwj
p2661
I1
sVd5lt0pj
p2662
I1
sVd97zeh9
p2663
I1
sVdkqa9uj
p2664
I1
sVd0hvqfl
p2665
I1
sVdii92fp
p2666
I1
sVd4o02js
p2667
I1
sVd2tecap
p2668
I1
sVd9paqmz
p2669
I1
sVd3d5ioa
p2670
I1
sVd2doqe9
p2671
I1
sVd2shsbg
p2672
I1
sVdasuiu6
p2673
I1
sVd4gj23i
p2674
I1
sVdduzn9s
p2675
I1
sVdnbsqgp
p2676
I1
sVdb6n4ce
p2677
I2
sVdi6acl4
p2678
I1
sVdpt8amc
p2679
I1
sVdr67o9x
p2680
I1
sVdd47b3u
p2681
I1
sVdhdej5w
p2682
I1
sVd05f09q
p2683
I1
sVdbeagji
p2684
I1
sVczumtdv
p2685
I1
sVdppt59f
p2686
I1
sVd4qxx8t
p2687
I1
sVd3cdpkm
p2688
I1
sVdspeth8
p2689
I1
sVdfpr993
p2690
I1
sVdgx1a4t
p2691
I1
sVdrlz7bc
p2692
I1
sVd3naozv
p2693
I1
sVddcsqey
p2694
I1
sVd1hhno3
p2695
I1
sVd70mmtr
p2696
I1
sVdfkajzx
p2697
I1
sVdejny0d
p2698
I2
sVdssvv2l
p2699
I1
sVd8t4iwo
p2700
I1
sVdef6in7
p2701
I1
sVd163u4q
p2702
I1
sVd6kjdyb
p2703
I1
sVd0m8hah
p2704
I1
sVdnaap7d
p2705
I1
sVd3zqgbr
p2706
I1
sVd8gf5ee
p2707
I1
sVddw5a66
p2708
I1
sVdap30bd
p2709
I1
sVdggu51k
p2710
I2
sVd9aznge
p2711
I1
sVdmwp8es
p2712
I1
sVdd59sr4
p2713
I2
sVcz7mthj
p2714
I1
sVcylz9df
p2715
I1
sVd6jhdwq
p2716
I2
sVdrgh31i
p2717
I1
sVdd7lhis
p2718
I1
sVd9ncfr3
p2719
I1
sVczfzwsj
p2720
I1
sVdringro
p2721
I1
sVd9l6m1n
p2722
I1
sVd9o4zhd
p2723
I2
sVdbnavu7
p2724
I1
sVcyigf45
p2725
I1
sVdihl3zx
p2726
I1
sVd816517
p2727
I1
sVd9a5hwm
p2728
I1
sVdi635q3
p2729
I1
sVdqc75ww
p2730
I1
sVdkz7fps
p2731
I1
sVd6vkxus
p2732
I1
sVd479eud
p2733
I1
sVd2cot2d
p2734
I1
sVczwgs9f
p2735
I1
sVd1w07yz
p2736
I1
sVdidveo7
p2737
I1
sVdcu9psw
p2738
I1
sVds0814v
p2739
I2
sVdb58tvu
p2740
I1
sVdio61om
p2741
I1
sVd2j6kjj
p2742
I1
sVd4u8wtx
p2743
I1
sVddlu0n3
p2744
I1
sVdob49my
p2745
I1
sVd27jghu
p2746
I1
sVdja4pms
p2747
I1
sVd4l05kr
p2748
I1
sVd8c8b4z
p2749
I1
sVdp3o9kd
p2750
I1
sVdcukjk4
p2751
I1
sVdf3ot5b
p2752
I1
sVddmz9dz
p2753
I2
sVdd4mbo7
p2754
I1
sVdpp5nma
p2755
I1
sVdij6i8w
p2756
I1
sVdhne5rb
p2757
I1
sVczzaa4n
p2758
I1
sVcz1olt1
p2759
I1
sVdsiv05g
p2760
I1
sVdac9htt
p2761
I2
sVdhvquse
p2762
I2
sVdhfc822
p2763
I1
sVd2ocm43
p2764
I1
sVdiarnty
p2765
I1
sVdh8g4p4
p2766
I1
sVd5pnwr1
p2767
I1
sVczimxei
p2768
I2
sVdbebnah
p2769
I1
sVdh8gupk
p2770
I1
sVd3ui348
p2771
I1
sVdg7l19z
p2772
I1
sVds4rxkg
p2773
I1
sVd0o6vse
p2774
I1
sVd3g6rbk
p2775
I1
sVddymahn
p2776
I1
sVdg2ic94
p2777
I1
sVcyxq5wi
p2778
I2
sVdmwsypx
p2779
I1
sVdd7e4a6
p2780
I1
sVd072zg6
p2781
I1
sVddl76ga
p2782
I1
sVda6jncn
p2783
I1
sVdgx3nxv
p2784
I1
sVczjkkw0
p2785
I1
sVdakk807
p2786
I1
sVdaeobx2
p2787
I1
sVd32jt29
p2788
I3
sVdaet13f
p2789
I2
sVdh0rx6f
p2790
I1
sVd7jlykg
p2791
I1
sVdcq9hep
p2792
I1
sVd8346z0
p2793
I1
sVddu2d2l
p2794
I1
sVd84i50b
p2795
I1
sVdpl2ct6
p2796
I1
sVczy8dri
p2797
I1
sVdn7ttld
p2798
I2
sVdcsphre
p2799
I1
sVda3dcj5
p2800
I3
sVdegb5jb
p2801
I1
sVd0thzix
p2802
I1
sVder4qxz
p2803
I1
sVdbkdse9
p2804
I1
sVd1dpru7
p2805
I1
sVdt9gh8t
p2806
I1
sVd125tps
p2807
I1
sVda5gd6l
p2808
I1
sVcypkrmo
p2809
I1
sVdq0jykg
p2810
I1
sVd9apgjd
p2811
I1
sVdj9li4v
p2812
I1
sVd5gme2q
p2813
I2
sVd1g6hnd
p2814
I1
sVd67tji6
p2815
I1
sVd7vuyps
p2816
I1
sVdd0b1zy
p2817
I1
sVcynx73u
p2818
I2
sVdkan02z
p2819
I1
sVdotct09
p2820
I1
sVd1oorzb
p2821
I1
sVdn42uc4
p2822
I1
sVd528shi
p2823
I1
sVddjarlq
p2824
I1
sVcymh3e9
p2825
I1
sVdo6yfr5
p2826
I1
sVd49vgsg
p2827
I1
sVd0c7xw7
p2828
I1
sVdbzeurj
p2829
I1
sVdhv1488
p2830
I1
sVdgss9do
p2831
I1
sVdcgf4kr
p2832
I1
sVdpdjbox
p2833
I1
sVdpwd296
p2834
I1
sVd6gqs5y
p2835
I1
sVd1p2cj4
p2836
I1
sVd474g3c
p2837
I1
sVd5mucb4
p2838
I1
sVdkln4u0
p2839
I1
sVddcvnu5
p2840
I1
sVd3j7qqn
p2841
I2
sVdeic3d0
p2842
I1
sVdej0tly
p2843
I3
sVde4eqec
p2844
I1
sVd00stgt
p2845
I1
sVdq041gf
p2846
I1
sVd1z0umv
p2847
I1
sVdiktkxv
p2848
I1
sVdprhzu0
p2849
I1
sVdj14961
p2850
I1
sVdboaa98
p2851
I1
sVd4berk3
p2852
I1
sVdrg4mhx
p2853
I1
sVd66m353
p2854
I1
sVdgip4tg
p2855
I1
sVdfqynwu
p2856
I1
sVdf3r662
p2857
I1
sVcyli5p1
p2858
I1
sVd2bhj1r
p2859
I2
sVdhsw5hg
p2860
I1
sVdei4wxm
p2861
I1
sVdk21t0n
p2862
I1
sVd1ms6du
p2863
I1
sVd120x1a
p2864
I2
sVdijefp8
p2865
I1
sVd7pp7ep
p2866
I3
sVdd7odih
p2867
I1
sVdj4z8jp
p2868
I1
sVczh2rcg
p2869
I1
sVdjpwoqh
p2870
I1
sVcykrlex
p2871
I1
sVdit8si0
p2872
I1
sVdcaqs0s
p2873
I1
sVd4rv81o
p2874
I1
sVdgldfvd
p2875
I1
sVd7z2hq9
p2876
I1
sVd0r668h
p2877
I1
sVd45y91l
p2878
I3
sVdffcn4e
p2879
I1
sVdbv4n6k
p2880
I1
sVd9c02na
p2881
I1
sVdgshptb
p2882
I1
sVd3k8u44
p2883
I2
sVdk5el8t
p2884
I1
sVd6wr1e0
p2885
I1
sVdiikgn4
p2886
I1
sVdbk0x01
p2887
I1
sVd6mdhf7
p2888
I1
sVdff1xh1
p2889
I1
sVczg1edw
p2890
I1
sVdoht2z1
p2891
I1
sVdf9aede
p2892
I3
sVd3n5scd
p2893
I2
sVd3tn1pt
p2894
I1
sVdreho31
p2895
I1
sVdaotkfq
p2896
I1
sVd035ans
p2897
I1
sVcyyjrsb
p2898
I1
sVd0t72pn
p2899
I1
sVd945rbi
p2900
I1
sVd8vh18z
p2901
I1
sVd0vqrv6
p2902
I1
sVdedizz6
p2903
I1
sVde3kqr7
p2904
I1
sVd7vatxv
p2905
I1
sVdjk359v
p2906
I1
sVdo1vjip
p2907
I1
sVd9xnjh2
p2908
I1
sVddv4ym4
p2909
I1
sVd154c9w
p2910
I1
sVdd02321
p2911
I1
sVd4h8ria
p2912
I1
sVcziwy4k
p2913
I1
sVdn88qkl
p2914
I1
sVczawy4c
p2915
I1
sVdift25q
p2916
I1
sVd0tjukn
p2917
I2
sVd7663zc
p2918
I1
sVdb0fy7s
p2919
I4
sVdh79vj9
p2920
I1
sVczv46ps
p2921
I1
sVdfjcnd2
p2922
I1
sVdd1rnl1
p2923
I1
sVdd4jq29
p2924
I1
sVd4v77j4
p2925
I1
sVdtj3j1l
p2926
I1
sVd45zmd8
p2927
I1
sVd9yz12h
p2928
I1
sVdc1j0yg
p2929
I1
sVdfk4s5v
p2930
I1
sVdflyqni
p2931
I1
sVd1kf5f5
p2932
I1
sVdalz6mg
p2933
I1
sVd3ahrz1
p2934
I1
sVczoytc3
p2935
I2
sVde0n8sq
p2936
I1
sVd55649i
p2937
I1
sVd2zc7m9
p2938
I1
sVdkhfg95
p2939
I1
sVdc5p9pp
p2940
I1
sVdtatryk
p2941
I3
sVd0vgusu
p2942
I1
sVd25zgei
p2943
I1
sVdst3ajs
p2944
I1
sVdefqshj
p2945
I1
sVdrx1uuz
p2946
I1
sVd8jdo1c
p2947
I1
sVdrafcrb
p2948
I1
sVdncfxpd
p2949
I1
sVdqee431
p2950
I1
sVdbnr2hy
p2951
I1
sVdcwh97u
p2952
I1
sVdkk7afi
p2953
I1
sVdbolzpo
p2954
I1
sVdcmnpun
p2955
I2
sVdqystml
p2956
I1
sVcz7z2se
p2957
I1
sVd9o49ye
p2958
I1
sVd1rqiql
p2959
I1
sVd6n7l57
p2960
I1
sVdb8bomg
p2961
I1
sVdiebhi4
p2962
I2
sVdms23xx
p2963
I1
sVd26zi8h
p2964
I1
sVdb0jbmf
p2965
I1
sVd0htna3
p2966
I1
sVd7ls8r6
p2967
I1
sVd0f8frd
p2968
I1
sVdqbei6l
p2969
I1
sVdeu4zwf
p2970
I1
sVdb5cwhl
p2971
I1
sVde926ez
p2972
I1
sVd3n0lbx
p2973
I1
sVcyu32rj
p2974
I1
sVd119ybl
p2975
I1
sVd47ig8f
p2976
I1
sVd8yhqo5
p2977
I1
sVdhj1syf
p2978
I1
sVd5ckw2g
p2979
I1
sVdry0525
p2980
I1
sVdagi07k
p2981
I1
sVdbpqwqy
p2982
I1
sVcypz2xu
p2983
I2
sVdig5n0q
p2984
I1
sVdsoobfj
p2985
I1
sVdtdn77y
p2986
I1
sVdq2j1gk
p2987
I2
sVdccdg57
p2988
I1
sVd2cz51f
p2989
I1
sVdpbp0nx
p2990
I1
sVd0ioo97
p2991
I2
sVdn5wlaf
p2992
I1
sVd6sqbkm
p2993
I1
sVczbodh4
p2994
I1
sVd9moo05
p2995
I1
sVdhjv7uz
p2996
I1
sVdqedkan
p2997
I1
sVdat3yu4
p2998
I1
sVds8g1do
p2999
I1
sVda5ve7v
p3000
I1
sVdn1k9dj
p3001
I1
sVd12qbmu
p3002
I1
sVd8df7xj
p3003
I1
sVdgs0bn1
p3004
I3
sVdqt3l24
p3005
I1
sVdnat6ir
p3006
I1
sVd09bti7
p3007
I1
sVdamb0t2
p3008
I1
sVd4caggq
p3009
I1
sVcyja2by
p3010
I1
sVd1wn3yt
p3011
I1
sVddzo7td
p3012
I1
sVd45vzhx
p3013
I1
sVd4jivxu
p3014
I1
sVd9fyii5
p3015
I2
sVdewidb1
p3016
I1
sVdq73qpe
p3017
I1
sVd19e1rq
p3018
I1
sVd8pyq01
p3019
I1
sVd80i5l8
p3020
I1
sVd4p65b3
p3021
I1
sVdhly4y0
p3022
I1
sVdsuoq9f
p3023
I1
sVdau440w
p3024
I2
sVd02075s
p3025
I1
sVczbapnr
p3026
I2
sVd3haxwu
p3027
I1
sVdj4b39t
p3028
I1
sVds170rz
p3029
I1
sVdq2s8hk
p3030
I1
sVczsmibc
p3031
I1
sVdj8sms4
p3032
I1
sVdg8hlb5
p3033
I1
sVdeu3789
p3034
I1
sVdcdtmd0
p3035
I1
sVd56ktdv
p3036
I1
sVd3x81lh
p3037
I2
sVdov43vd
p3038
I1
sVd1d2gap
p3039
I1
sVd9amdka
p3040
I1
sVd580ccc
p3041
I1
sVdacgl5y
p3042
I1
sVdgap2d6
p3043
I1
sVdavgnez
p3044
I1
sVdc6cbxc
p3045
I1
sVd6ve8ws
p3046
I1
sVd9g6sep
p3047
I1
sVd37hyv1
p3048
I2
sVdkqu3sq
p3049
I1
sVdksl152
p3050
I1
sVddltien
p3051
I1
sVdgx3x8n
p3052
I1
sVdfdrkj1
p3053
I1
sVdbp0wd0
p3054
I1
sVd9z6tyh
p3055
I1
sVd3ng29e
p3056
I1
sVd7ab18h
p3057
I1
sVdpfltkz
p3058
I1
sVczibc02
p3059
I1
sVdbzjjle
p3060
I1
sVd6frg1n
p3061
I2
sVdcn7s4b
p3062
I1
sVdbhxneu
p3063
I1
sVd91besp
p3064
I1
sVdn5lmqt
p3065
I1
sVd047q8f
p3066
I1
sVd8kxtox
p3067
I1
sVdh0i39k
p3068
I1
sVdawq7dw
p3069
I1
sVdomf5b7
p3070
I2
sVdgycpr9
p3071
I1
sVd0ksv97
p3072
I1
sVdd0apr6
p3073
I1
sVd5jajm1
p3074
I1
sVdfznv05
p3075
I1
sVd6erfix
p3076
I1
sVdcbw6c2
p3077
I1
sVdrdrvnp
p3078
I1
sVd729enl
p3079
I1
sVdc1nxlo
p3080
I1
sVdovj2zy
p3081
I1
sVd182ibx
p3082
I1
sVd0e4j0r
p3083
I2
sVd02baev
p3084
I1
sVd5kuq29
p3085
I1
sVdcjuamz
p3086
I1
sVd6c15pe
p3087
I1
sVdh75aww
p3088
I1
sVcysnnsl
p3089
I1
sVd9xurum
p3090
I1
sVdjaeera
p3091
I1
sVd1hzaq2
p3092
I1
sVd5dhsmm
p3093
I1
sVd2klhk9
p3094
I1
sVcz2rzql
p3095
I1
sVd2wdaq8
p3096
I1
sVdewb7oq
p3097
I1
sVdj885gy
p3098
I1
sVdenxbyf
p3099
I2
sVcym3ok7
p3100
I1
sVd7qffba
p3101
I1
sVdihqygq
p3102
I1
sVdcar2d2
p3103
I1
sVdnetm6b
p3104
I4
sVdjr9653
p3105
I1
sVdeh8s6i
p3106
I1
sVd6lkgdh
p3107
I1
sVd1riz4f
p3108
I1
sVdd7yr78
p3109
I1
sVd6hcx19
p3110
I1
sVd9jpd9t
p3111
I1
sVdrhzo87
p3112
I1
sVd9n5n3h
p3113
I1
sVdg47q08
p3114
I1
sVdjey4xo
p3115
I1
sVdmhfyzu
p3116
I1
sVdbklh5u
p3117
I1
sVd9hwpzk
p3118
I2
sVda01zwp
p3119
I1
sVdgjx483
p3120
I1
sVdmm2h7l
p3121
I1
sVdax7ogt
p3122
I1
sVddwlzva
p3123
I1
sVd5dswtk
p3124
I1
sVddeqisb
p3125
I1
sVdf6u3cr
p3126
I1
sVd3j549t
p3127
I1
sVdev43ey
p3128
I2
sVd5keduk
p3129
I1
sVdeyhu32
p3130
I1
sVdhajdxx
p3131
I1
sVdqqf9lc
p3132
I1
sVcyptiz9
p3133
I1
sVdbbls4y
p3134
I1
sVd7vch00
p3135
I1
sVd37np5y
p3136
I1
sVdemdtt7
p3137
I1
sVdaz0rer
p3138
I1
sVdkd83e5
p3139
I1
sVdh27ip8
p3140
I1
sVd4iyncq
p3141
I1
sVdbjhbh1
p3142
I1
sVd45cxw3
p3143
I1
sVd5lw2um
p3144
I1
sVdhmsss2
p3145
I1
sVd6hoorn
p3146
I1
sVdjuwggb
p3147
I1
sVczzsjyt
p3148
I1
sVd9ujjff
p3149
I1
sVdg7xvc7
p3150
I2
sVdr114hr
p3151
I1
sVd3q6onr
p3152
I1
sVddo8eq1
p3153
I1
sVd0dfov0
p3154
I1
sVdthmfkc
p3155
I1
sVczm6bou
p3156
I1
sVdej6zvy
p3157
I1
sVd9j46hl
p3158
I2
sVdaa1vpo
p3159
I1
sVdcra64c
p3160
I1
sVd3zxyq1
p3161
I1
sVd8x3npd
p3162
I1
sVd28d5vp
p3163
I1
sVd6s6mqx
p3164
I1
sVdbk76cp
p3165
I1
sVdih8ol9
p3166
I1
sVd6isnoq
p3167
I1
sVcyu5cpn
p3168
I1
sVdprkkw8
p3169
I1
sVd0f1b5l
p3170
I1
sVdq7ywap
p3171
I1
sVdkrkmii
p3172
I1
sVdhox0lc
p3173
I1
sVddrkpx4
p3174
I1
sVd1mabr8
p3175
I1
sVczxozjy
p3176
I1
sVda0l7hr
p3177
I1
sVd5r23d0
p3178
I1
sVd11sfr9
p3179
I3
sVd0fmvzp
p3180
I1
sVd1m9l1g
p3181
I1
sVdcllcqv
p3182
I1
sVd87lczf
p3183
I1
sVcyrqgd3
p3184
I1
sVd6p2ffv
p3185
I1
sVd9cyqfa
p3186
I1
sVd4v8x37
p3187
I1
sVd57q72p
p3188
I1
sVdav7s4f
p3189
I1
sVdftsa9z
p3190
I1
sVdrzir0c
p3191
I1
sVdjapdu6
p3192
I1
sVdd4iqse
p3193
I1
sVd1owycy
p3194
I1
sVd0x9bkc
p3195
I1
sVdqabei0
p3196
I1
sVdgatxs0
p3197
I1
sVd33zr8p
p3198
I1
sVd6sp09j
p3199
I1
sVdsurpzc
p3200
I1
sVdcbwzhg
p3201
I1
sVcyxq2qy
p3202
I1
sVd2017d8
p3203
I1
sVddjtrmp
p3204
I2
sVd84j4vr
p3205
I1
sVdj6mipj
p3206
I1
sVdgibmqx
p3207
I1
sVdijpo7i
p3208
I1
sVdg6ezpi
p3209
I1
sVdaia97f
p3210
I1
sVdbpr7s3
p3211
I1
sVdkjvbec
p3212
I1
sVd9ds9qm
p3213
I1
sVdpfctpk
p3214
I1
sVdk96gly
p3215
I1
sVdgadfza
p3216
I1
sVdqr9z8d
p3217
I1
sVd70o8vu
p3218
I2
sVdopd06s
p3219
I1
sVd8uao0w
p3220
I1
sVdpgmw4l
p3221
I1
sVd6m2w4n
p3222
I3
sVde7k246
p3223
I1
sVd7p9ann
p3224
I1
sVcz6rt6g
p3225
I1
sVd1i1h1w
p3226
I1
sVdaltey2
p3227
I1
sVd2orld2
p3228
I2
sVdhiqlso
p3229
I1
sVd0brogl
p3230
I1
sVdj3gg4i
p3231
I1
sVdmt7hq7
p3232
I1
sVdjo1lad
p3233
I1
sVdiojcin
p3234
I1
sVdn780lu
p3235
I1
sVdpt1aen
p3236
I1
sVd9ns52d
p3237
I1
sVcz1ba79
p3238
I1
sVd73fgjo
p3239
I2
sVdnufnc2
p3240
I2
sVdj9hrft
p3241
I1
sVdchx79c
p3242
I1
sVddiwlzb
p3243
I1
sVdazomjg
p3244
I1
sVd6vnqb4
p3245
I1
sVd2naubx
p3246
I1
sVdkqe2oo
p3247
I1
sVczbwemd
p3248
I1
sVdoshnhr
p3249
I1
sVd562pjd
p3250
I1
sVd3hjp96
p3251
I2
sVddcsu9w
p3252
I1
sVdhse0h0
p3253
I1
sVdfdm2xe
p3254
I1
sVdr0oxdr
p3255
I1
sVd3j5o69
p3256
I2
sVdb64ei0
p3257
I1
sVd3osgub
p3258
I1
sVd7zwgqi
p3259
I1
sVdqsdj73
p3260
I1
sVd6jwtof
p3261
I1
sVddis31l
p3262
I1
sVd6wwpnt
p3263
I1
sVdcmu70i
p3264
I1
sVd87glaj
p3265
I1
sVd3y2kt0
p3266
I1
sVdjpd3fq
p3267
I1
sVd1v6td8
p3268
I1
sVda7k0yo
p3269
I1
sVdep9ime
p3270
I1
sVdne2z83
p3271
I1
sVdgymv8a
p3272
I2
sVd1635t5
p3273
I2
sVdcz54yq
p3274
I1
sVd7gpohe
p3275
I1
sVdo8ippt
p3276
I1
sVdr0euyw
p3277
I1
sVd0cgf2a
p3278
I1
sVd0iuux5
p3279
I3
sVdi9kqup
p3280
I1
sVcyko80r
p3281
I1
sVd7y3ogy
p3282
I1
sVd95qf58
p3283
I1
sVdgeljl7
p3284
I1
sVdqumy88
p3285
I1
sVd5tu094
p3286
I1
sVczc7cs7
p3287
I1
sVdflrysb
p3288
I1
sVd1oszz2
p3289
I1
sVd2aia4m
p3290
I4
sVdae5yli
p3291
I1
sVd7sf0q3
p3292
I1
sVdk4kzh7
p3293
I1
sVczarwdk
p3294
I1
sVd7swt8l
p3295
I1
sVd4f9mhd
p3296
I2
sVd7bzkdb
p3297
I1
sVd1h0a7a
p3298
I1
sVdfw13yw
p3299
I1
sVdhi1jmg
p3300
I1
sVczq8bkd
p3301
I1
sVczvjjjz
p3302
I3
sVd3888m0
p3303
I1
sVd8exlux
p3304
I1
sVcyipi79
p3305
I1
sVdrp8hz6
p3306
I1
sVd9cam0e
p3307
I1
sVdel909k
p3308
I1
sVd8ce9os
p3309
I1
sVdjr3ykn
p3310
I1
sVdacx4p5
p3311
I1
sVczy2mr6
p3312
I1
sVd5n825r
p3313
I2
sVd5kic35
p3314
I1
sVd9clk3p
p3315
I1
sVdennymd
p3316
I1
sVdji3yja
p3317
I1
sVd0xh0lp
p3318
I1
sVdkuftms
p3319
I1
sVd2e9jpp
p3320
I1
sVdkswk3l
p3321
I1
sVd14ghj4
p3322
I1
sVczpqwuw
p3323
I1
sVdh3aqii
p3324
I1
sVd0uyvgh
p3325
I1
sVdt95h5f
p3326
I1
sVdb3r6m0
p3327
I1
sVd9pbto7
p3328
I1
sVd78bqxu
p3329
I1
sVdk4wthq
p3330
I2
sVd2qfz7b
p3331
I1
sVcysofuo
p3332
I1
sVd42iic6
p3333
I1
sVdhisjvi
p3334
I1
sVd58xubl
p3335
I2
sVdetqskh
p3336
I3
sVd5q1sr2
p3337
I1
sVd50w9hc
p3338
I1
sVd38eg1o
p3339
I1
sVd0ipcaf
p3340
I2
sVd6hdqs3
p3341
I2
sVd9pbln9
p3342
I2
sVdbbi4ms
p3343
I1
sVd8n3hp6
p3344
I1
sVczb5on4
p3345
I1
sVdiqctmu
p3346
I1
sVcz0nnaw
p3347
I1
sVdbea2ia
p3348
I1
sVd6dtfoy
p3349
I1
sVdgn1bht
p3350
I1
sVdfkaho8
p3351
I1
sVd8dlc6v
p3352
I1
sVdhs2nn7
p3353
I1
sVdc9333z
p3354
I1
sVd78hxgd
p3355
I1
sVd77cw4r
p3356
I1
sVdsxb81e
p3357
I1
sVd52rpol
p3358
I1
sVd05koym
p3359
I1
sVdngsxsy
p3360
I1
sVd9g2ld7
p3361
I1
sVd39ubo1
p3362
I1
sVd12kxfe
p3363
I1
sVdd1q57j
p3364
I1
sVcyytafp
p3365
I1
sVd9yt0zj
p3366
I1
sVd0bkwbn
p3367
I1
sVdj3cy3f
p3368
I3
sVd1usbc0
p3369
I1
sVdppd9t3
p3370
I1
sVd3auzk0
p3371
I1
sVdpv9gl9
p3372
I1
sVdr22ilf
p3373
I1
sVdaobyyr
p3374
I1
sVd8mvqk6
p3375
I1
sVdng1vzg
p3376
I1
sVdrb7c50
p3377
I1
sVd8izpgb
p3378
I1
sVd0uwexp
p3379
I1
sVdimu0oo
p3380
I1
sVdo4zv75
p3381
I1
sVdk0r7bh
p3382
I1
sVdc1ljbk
p3383
I1
sVddvmsdf
p3384
I1
sVd7sxmwx
p3385
I1
sVdpfmk90
p3386
I1
sVd9ngeox
p3387
I3
sVdiwoayl
p3388
I1
sVczjg5jo
p3389
I1
sVdigd65a
p3390
I1
sVd26lrni
p3391
I1
sVd4ujtgd
p3392
I1
sVd4dnaw6
p3393
I3
sVdelimzy
p3394
I1
sVdpltn5u
p3395
I1
sVdq0l9yn
p3396
I1
sVdfj3sgl
p3397
I1
sVdks949a
p3398
I1
sVd9u0f5o
p3399
I2
sVdc77zw6
p3400
I2
sVdftalpn
p3401
I1
sVdpcthfh
p3402
I1
sVdjnlymo
p3403
I1
sVdhhr70r
p3404
I1
sVd90jnz0
p3405
I1
sVd2q8rn4
p3406
I1
sVd858y1m
p3407
I1
sVcz0e6ap
p3408
I1
sVdd4ytzd
p3409
I1
sVd04mc8f
p3410
I1
sVdns1pz9
p3411
I1
sVdemrpix
p3412
I2
sVd1ku690
p3413
I1
sVde6vxdb
p3414
I1
sVdcq6zuh
p3415
I1
sVd9lylzo
p3416
I1
sVd1ev545
p3417
I1
sVdomwxvx
p3418
I1
sVczk7eiw
p3419
I1
sVd6g2qx3
p3420
I2
sVdb4ypxs
p3421
I3
sVdsml7e3
p3422
I1
sVd5ixxxi
p3423
I2
sVdfon67m
p3424
I1
sVdei1c1i
p3425
I1
sVd8vowo1
p3426
I1
sVdn2n69g
p3427
I1
sVd68lcf4
p3428
I1
sVd5zd79x
p3429
I1
sVdtfnpmx
p3430
I1
sVdj05faf
p3431
I1
sVdsi6k82
p3432
I1
sVd48nvcp
p3433
I1
sVd2tn72u
p3434
I1
sVd8v90z2
p3435
I1
sVdsecvjz
p3436
I1
sVcz5k1fm
p3437
I1
sVd047s69
p3438
I1
sVd9ftznr
p3439
I2
sVdss3beq
p3440
I1
sVdmrwvni
p3441
I1
sVd67xbq6
p3442
I2
sVdozd0tx
p3443
I1
sVdfmh7d7
p3444
I1
sVdpwfm32
p3445
I1
sVdmikeag
p3446
I1
sVd2wx99w
p3447
I1
sVdetuimx
p3448
I1
sVdayzxs7
p3449
I1
sVd1rzs5v
p3450
I1
sVds14sx3
p3451
I1
sVd8xmlx3
p3452
I2
sVdqbpfis
p3453
I1
sVczmex0s
p3454
I1
sVd3otxrm
p3455
I1
sVcz6zllb
p3456
I2
sVdnkxwk3
p3457
I2
sVdhybrdw
p3458
I1
sVd10ks3k
p3459
I1
sVdeememw
p3460
I1
sVczu9uwh
p3461
I1
sVd89ybfz
p3462
I1
sVdqhs8ci
p3463
I1
sVdn7tndi
p3464
I1
sVds4j1tj
p3465
I1
sVd07lo8r
p3466
I1
sVd05tqhe
p3467
I1
sVd7ndzur
p3468
I1
sVdcxrtkz
p3469
I1
sVdabyy3q
p3470
I1
sVddtne41
p3471
I1
sVd174u2e
p3472
I1
sVdctb9s1
p3473
I1
sVdauu54v
p3474
I1
sVdfh4olt
p3475
I1
sVdn3lx4v
p3476
I1
sVd3cguya
p3477
I1
sVdgfuzwl
p3478
I2
sVd376s6a
p3479
I1
sVd9da012
p3480
I1
sVd8uifgh
p3481
I1
sVd4wddkx
p3482
I1
sVd6l6v1v
p3483
I3
sVd5xjkur
p3484
I2
sVd62pzfk
p3485
I3
sVdbl4cpr
p3486
I1
sVdnmq14l
p3487
I1
sVddqb6tz
p3488
I1
sVd13yxz2
p3489
I1
sVd3wyvpv
p3490
I1
sVdambpqz
p3491
I1
sVd17kxbw
p3492
I1
sVdakjqfl
p3493
I1
sVdte6evt
p3494
I1
sVdddgn3v
p3495
I1
sVd4gk1gm
p3496
I3
sVdo04pw1
p3497
I1
sVdedvhop
p3498
I1
sVd0qk3jm
p3499
I1
sVcyl059h
p3500
I1
sVd1y8t09
p3501
I2
sVdq9yjmm
p3502
I1
sVd3k8pk2
p3503
I2
sVdtgzxj8
p3504
I1
sVds550dj
p3505
I1
sVd78rj2r
p3506
I1
sVd3t0826
p3507
I1
sVdk2qyql
p3508
I1
sVdgnhewu
p3509
I1
sVd87nbml
p3510
I1
sVdk531uu
p3511
I1
sVdqmj0ct
p3512
I1
sVczrnml4
p3513
I1
sVcz19qnv
p3514
I1
sVdf7xbsl
p3515
I1
sVdjdqfbw
p3516
I1
sVdne8ae0
p3517
I1
sVczc9i4e
p3518
I1
sVdoqu48b
p3519
I2
sVdd6q2p4
p3520
I1
sVdoaqfyt
p3521
I1
sVdokkfg6
p3522
I1
sVd8ondgf
p3523
I2
sVd83dgvq
p3524
I1
sVdo2r450
p3525
I1
sVdbkbtvl
p3526
I1
sVderdp2k
p3527
I1
sVdiulsqx
p3528
I1
sVd3qllah
p3529
I1
sVd69fxjl
p3530
I1
sVd8sowmu
p3531
I1
sVdam3j9q
p3532
I1
sVczejvtk
p3533
I1
sVd9ig8at
p3534
I1
sVdnxzyty
p3535
I1
sVdoj142z
p3536
I1
sVd0w3nz8
p3537
I1
sVdjdh88k
p3538
I1
sVdr2iu0c
p3539
I1
sVdbi5ffd
p3540
I1
sVdpoimdr
p3541
I1
sVcz4fmwj
p3542
I1
sVdo4dxgp
p3543
I1
sVd1mcjhw
p3544
I1
sVd7hifei
p3545
I1
sVd3dpkya
p3546
I2
sVczm23gm
p3547
I3
sVd4kukfo
p3548
I1
sVd85l4i7
p3549
I1
sVds6vpg9
p3550
I2
sVddbi2a3
p3551
I1
sVcyyxrx0
p3552
I1
sVd3391kn
p3553
I1
sVddx3p2h
p3554
I1
sVd8cg7cq
p3555
I1
sVdq36yit
p3556
I1
sVdd6eytb
p3557
I1
sVdbyjzgk
p3558
I1
sVdr6bc68
p3559
I1
sVdkgx15b
p3560
I1
sVddcizyr
p3561
I2
sVd0rzdf2
p3562
I1
sVd25kjht
p3563
I3
sVdso4y5h
p3564
I1
sVd35it78
p3565
I1
sVcynob8u
p3566
I1
sVd9nw2f6
p3567
I1
sVd7atjg5
p3568
I1
sVddkghhh
p3569
I4
sVd9cyynr
p3570
I2
sVdjnnbre
p3571
I1
sVdktsfbd
p3572
I1
sVd95euhe
p3573
I1
sVd08gqwk
p3574
I1
sVdjn8aba
p3575
I1
sVd57vyjf
p3576
I1
sVd6p2mlj
p3577
I1
sVd1eoxyy
p3578
I1
sVdazko74
p3579
I2
sVdqkk00f
p3580
I1
sVcz5l8r6
p3581
I2
sVddg7ipr
p3582
I1
sVdqgaj2a
p3583
I1
sVd0igwl9
p3584
I1
sVdf7i3u2
p3585
I1
sVdk12o4d
p3586
I2
sVd8ub32r
p3587
I1
sVdkr0ksw
p3588
I1
sVcyv8pkw
p3589
I1
sVdhu7feg
p3590
I1
sVdam8yvx
p3591
I5
sVdqb5jdr
p3592
I1
sVd7w84nq
p3593
I1
sVcz4krxa
p3594
I1
sVd8bybmt
p3595
I1
sVd61htwd
p3596
I1
sVcz1xyxt
p3597
I2
sVdhi03d9
p3598
I1
sVdgcvoze
p3599
I1
sVdebnr1n
p3600
I1
sVdsze9u0
p3601
I1
sVd2qpawd
p3602
I1
sVd41k5is
p3603
I1
sVdhb4qca
p3604
I1
sVd8uh6fc
p3605
I1
sVd0vcvjb
p3606
I1
sVd39ttpf
p3607
I1
sVd0mw225
p3608
I3
sVdsj6zd6
p3609
I1
sVdatgwj8
p3610
I1
sVd5vpx4e
p3611
I1
sVd86bntc
p3612
I1
sVdrydltu
p3613
I1
sVdn3bp71
p3614
I1
sVdjhagwm
p3615
I1
sVd2jgvvx
p3616
I1
sVd8w9v4z
p3617
I1
sVd2wthj5
p3618
I1
sVdhd4p8k
p3619
I1
sVd222jcw
p3620
I1
sVdjdrqsp
p3621
I1
sVdfhjlsc
p3622
I1
sVdcj9fl2
p3623
I3
sVdr0x0o3
p3624
I1
sVd3rb5l7
p3625
I1
sVd6muikl
p3626
I1
sVdoeadoh
p3627
I1
sVd1uynfr
p3628
I1
sVdk46vbf
p3629
I1
sVd1woik9
p3630
I1
sVd92usms
p3631
I1
sVdf42yln
p3632
I1
sVd7nsugu
p3633
I1
sVdcf5gr1
p3634
I1
sVczobp64
p3635
I1
sVdrblxoz
p3636
I1
sVdb54wyu
p3637
I1
sVddsimzo
p3638
I2
sVdivtube
p3639
I1
sVd984fz5
p3640
I1
sVdepq78f
p3641
I1
sVdjkl8n1
p3642
I1
sVdgh4pef
p3643
I1
sVdag33c4
p3644
I1
sVd0tu73k
p3645
I1
sVd154x1g
p3646
I1
sVd6eo6np
p3647
I1
sVd6x716o
p3648
I1
sVd4tq99k
p3649
I1
sVd8f2fgv
p3650
I1
sVd45skgu
p3651
I1
sVdhniirz
p3652
I1
sVdhe5m28
p3653
I2
sVd1vynuo
p3654
I1
sVd0rv247
p3655
I1
sVd0cvgmy
p3656
I1
sVdi7ibhz
p3657
I3
sVdn7thtp
p3658
I1
sVcyxxmdk
p3659
I1
sVdf6amx5
p3660
I1
sVd5m7pxf
p3661
I1
sVd1p0mx2
p3662
I2
sVd0a0zrq
p3663
I1
sVd510z2z
p3664
I1
sVd2bxmk8
p3665
I1
sVd39m4mf
p3666
I1
sVd3ruuuy
p3667
I1
sVd0pv1ka
p3668
I1
sVdee1vt3
p3669
I1
sVdphlk2z
p3670
I1
sVd9nt53l
p3671
I1
sVd0kqb9s
p3672
I1
sVde5kecc
p3673
I1
sVd2t46gw
p3674
I1
sVd0am3cf
p3675
I1
sVd4r13po
p3676
I1
sVdrddqal
p3677
I1
sVd300gp4
p3678
I1
sVdn1g2zc
p3679
I2
sVdrzuq8h
p3680
I1
sVdk8s0gt
p3681
I1
sVd1dn7fl
p3682
I1
sVdhx6bn4
p3683
I1
sVdehvnqi
p3684
I1
sVd940l6h
p3685
I1
sVd76yjqy
p3686
I1
sVdaxqctt
p3687
I1
sVdcrsq30
p3688
I1
sVdehi7q6
p3689
I2
sVdn282a6
p3690
I1
sVdd4wiio
p3691
I1
sVd31825u
p3692
I1
sVd6vwwly
p3693
I1
sVd9yu666
p3694
I1
sVdaw4yd8
p3695
I1
sVdn6ezm9
p3696
I1
sVd2yraps
p3697
I1
sVdrb0ds4
p3698
I1
sVdazmi2h
p3699
I1
sVcyv3pmg
p3700
I1
sVdrthib7
p3701
I1
sVd2vp0mb
p3702
I1
sVdjlwisj
p3703
I1
sVde6sczx
p3704
I1
sVd70y9gn
p3705
I1
sVd0qzbqp
p3706
I1
sVde4cth7
p3707
I1
sVd8m65ac
p3708
I1
sVd38y9dv
p3709
I1
sVczbi1j7
p3710
I1
sVd13oegw
p3711
I1
sVd57g8zw
p3712
I1
sVde1dnxj
p3713
I1
sVd1z4e9h
p3714
I1
sVd4ijwuf
p3715
I1
sVd3e5uey
p3716
I1
sVd3qia0y
p3717
I1
sVdc2vx3r
p3718
I1
sVd9214hy
p3719
I1
sVd25mjfl
p3720
I1
sVdnz771a
p3721
I1
sVdtdd5rx
p3722
I1
sVdbg2fht
p3723
I1
sVcz9dpzl
p3724
I1
sVd36v4kf
p3725
I2
sVdk2oq41
p3726
I1
sVd74tfeh
p3727
I1
sVdj8vrtj
p3728
I1
sVd9o9mgr
p3729
I1
sVdmq77tc
p3730
I1
sVd3hedv7
p3731
I1
sVda0l8lf
p3732
I1
sVcyxico5
p3733
I1
sVdowxfi8
p3734
I1
sVdhlu13g
p3735
I1
sVde0ue5p
p3736
I1
sVdeyre07
p3737
I1
sVcz5szm4
p3738
I1
sVd20odfa
p3739
I1
sVdsb2flw
p3740
I1
sVd9cbl0h
p3741
I1
sVd8636c4
p3742
I1
sVdpqy1jw
p3743
I1
sVdj6kj42
p3744
I2
sVdcamqzd
p3745
I1
sVd0yiogm
p3746
I1
sVd6xkvi9
p3747
I1
sVdakvwra
p3748
I1
sVd49oozq
p3749
I1
sVcylmapw
p3750
I1
sVdeh09gg
p3751
I1
sVdodqqte
p3752
I1
sVdrzyyp2
p3753
I1
sVdal6b83
p3754
I1
sVd7a563x
p3755
I1
sVd40qzvu
p3756
I1
sVcz9umxi
p3757
I1
sVdf597h0
p3758
I1
sVd2y9wyl
p3759
I1
sVd3mvmod
p3760
I1
sVdq1hhia
p3761
I1
sVdov5nkd
p3762
I2
sVder0wbm
p3763
I2
sVdkf18vj
p3764
I1
sVd1p7o04
p3765
I1
sVdjbjnhl
p3766
I1
sVdgkvc0q
p3767
I1
sVdfv2k5a
p3768
I1
sVd51g107
p3769
I1
sVdo65tuu
p3770
I1
sVd71fpgo
p3771
I1
sVd4rly8g
p3772
I1
sVd4bb71v
p3773
I2
sVdd4i2q1
p3774
I1
sVdfigebf
p3775
I1
sVd9o94p1
p3776
I1
sVd6bwosq
p3777
I2
sVdc8xtmk
p3778
I1
sVdikdx1v
p3779
I1
sVd8o5lzr
p3780
I5
sVd8il0si
p3781
I1
sVdt0jx64
p3782
I1
sVdiioq9a
p3783
I1
sVd5ivp0c
p3784
I1
sVd0s4dqq
p3785
I1
sVdfb0u5c
p3786
I1
sVd6gwwwh
p3787
I1
sVdjzwpi7
p3788
I1
sVdg8n5g3
p3789
I1
sVd9o7b0k
p3790
I2
sVczpgz65
p3791
I1
sVczutle2
p3792
I2
sVdbdvlm9
p3793
I1
sVd89uuz3
p3794
I1
sVcz5dfss
p3795
I1
sVdgg3wud
p3796
I2
sVd3726l0
p3797
I2
sVdrc1uzj
p3798
I1
sVdckka4g
p3799
I1
sVdfv21yj
p3800
I1
sVdgcodlg
p3801
I2
sVcz6bsnm
p3802
I1
sVde0okbs
p3803
I1
sVd45wpzx
p3804
I1
sVd5kkr7k
p3805
I1
sVd9mc8ru
p3806
I1
sVd4pwnok
p3807
I1
sVd5ewxal
p3808
I1
sVdrfqq4s
p3809
I1
sVdmvsrev
p3810
I1
sVd01rwch
p3811
I2
sVdip7baj
p3812
I1
sVd406drn
p3813
I1
sVdarj2xm
p3814
I1
sVdffszxn
p3815
I1
sVcz43ynl
p3816
I1
sVd3eleph
p3817
I1
sVd2pnoyz
p3818
I1
sVd0h28st
p3819
I1
sVdj8usek
p3820
I1
sVcznu6y0
p3821
I1
sVczjdr6l
p3822
I1
sVczc0u6t
p3823
I1
sVddbuurz
p3824
I1
sVd32idm1
p3825
I1
sVdq80znr
p3826
I1
sVd4w23du
p3827
I1
sVd49jxx2
p3828
I1
sVd21s8yd
p3829
I1
sVd0l283u
p3830
I1
sVczcab0t
p3831
I1
sVdf6531q
p3832
I1
sVcyv39yt
p3833
I1
sVdbvn2lx
p3834
I3
sVdhlo5yw
p3835
I1
sVd7knnj5
p3836
I1
sVddzt42t
p3837
I2
sVdcx9w5y
p3838
I1
sVdebkpcl
p3839
I1
sVd6ngwft
p3840
I1
sVdgxjkjg
p3841
I1
sVd2atszm
p3842
I1
sVcyk8v7p
p3843
I1
sVd4uxxii
p3844
I1
sVdqxjf6d
p3845
I1
sVdex6l9a
p3846
I1
sVcyic8x9
p3847
I1
sVdaexglj
p3848
I1
sVd0737v4
p3849
I1
sVczu65dr
p3850
I1
sVd8o2q04
p3851
I1
sVd7bac70
p3852
I1
sVdhnqrhb
p3853
I1
sVdagh9as
p3854
I2
sVdfjig3l
p3855
I2
sVdj50ex5
p3856
I1
sVdd0zxyk
p3857
I1
sVddgxokw
p3858
I1
sVczgq8c2
p3859
I1
sVd5vpkeu
p3860
I1
sVd7k8lnj
p3861
I1
sVds4n8s6
p3862
I1
sVdbz4qyh
p3863
I1
sVd5oz6c1
p3864
I2
sVdspmu5j
p3865
I1
sVdev633e
p3866
I1
sVd8v7qnj
p3867
I1
sVdhay7yy
p3868
I1
sVdaf3f9s
p3869
I1
sVczrl412
p3870
I1
sVd8xsc76
p3871
I1
sVdi7ij1a
p3872
I1
sVd8pugy3
p3873
I1
sVdb7c42e
p3874
I1
sVd6m8gqj
p3875
I1
sVd0jwk61
p3876
I1
sVd9pc0xg
p3877
I1
sVdf0vqh1
p3878
I1
sVd5vvkh1
p3879
I1
sVd1aljai
p3880
I1
sVd4gkkin
p3881
I3
sVd27dnif
p3882
I1
sVd2sviwu
p3883
I1
sVdojhnid
p3884
I1
sVdb9zl05
p3885
I1
sVd90afg7
p3886
I1
sVdpd00wf
p3887
I1
sVdbirzkb
p3888
I1
sVdcjeufc
p3889
I1
sVdmhfqrv
p3890
I1
sVd6rk5hz
p3891
I1
sVddx119t
p3892
I1
sVdb1gfz3
p3893
I1
sVdpo00pg
p3894
I1
sVd4puclw
p3895
I1
sVde7iyx0
p3896
I2
sVdg6yk0h
p3897
I1
sVdf93tsm
p3898
I1
sVd0j37kv
p3899
I1
sVczgk8f7
p3900
I3
sVd9vm5w0
p3901
I1
sVd9y7gyu
p3902
I1
sVczk02ri
p3903
I1
sVdk7rjob
p3904
I1
sVdgqrc43
p3905
I1
sVdik3ksg
p3906
I1
sVde8nl8x
p3907
I1
sVd78wjxv
p3908
I1
sVd8vtf76
p3909
I1
sVddwr14o
p3910
I1
sVd6m48l8
p3911
I2
sVd5pkdw8
p3912
I2
sVczi9sp8
p3913
I1
sVdkai8mg
p3914
I1
sVd85wl1w
p3915
I1
sVdazp9dk
p3916
I1
sVd60s1tk
p3917
I1
sVdgh67yv
p3918
I1
sVd18rye0
p3919
I1
sVd3hef1i
p3920
I1
sVd387l9n
p3921
I1
sVdnjo6rb
p3922
I1
sVdaybwm6
p3923
I1
sVdag07k8
p3924
I1
sVd84jl9i
p3925
I1
sVddj7rmq
p3926
I1
sVczoqpcp
p3927
I1
sVdb5mlev
p3928
I1
sVd1npqsx
p3929
I2
sVdfunqxj
p3930
I1
sVd6xmvi9
p3931
I1
sVdi2m2x4
p3932
I1
sVdtdu7c0
p3933
I1
sVdcl0z3n
p3934
I1
sVczgmzqk
p3935
I1
sVdgha907
p3936
I1
sVdqsen23
p3937
I1
sVczm3x5n
p3938
I1
sVcyw0muf
p3939
I1
sVd17ypwj
p3940
I1
sVd8pj5jl
p3941
I1
sVdb6s3nc
p3942
I1
sVdncz8ko
p3943
I1
sVd1cxn8n
p3944
I1
sVczai9w8
p3945
I1
sVdr6wquy
p3946
I1
sVda6swtj
p3947
I1
sVdijssmn
p3948
I2
sVd2nd0ce
p3949
I1
sVd6vpmkn
p3950
I1
sVdpajrrw
p3951
I1
sVdbaprsf
p3952
I1
sVdkdcma1
p3953
I1
sVd8yy5wd
p3954
I1
sVdb157da
p3955
I1
sVd81iwsj
p3956
I1
sVd0woew2
p3957
I1
sVd3uj472
p3958
I1
sVd2r2sjh
p3959
I1
sVdoeoaah
p3960
I1
sVcztomr1
p3961
I1
sVdke396f
p3962
I1
sVd2y447h
p3963
I1
sVdhz7jzr
p3964
I1
sVdh38g2d
p3965
I1
sVdealkxx
p3966
I1
sVdqlrg0b
p3967
I1
sVdc2vj7t
p3968
I1
sVde1f9qu
p3969
I1
sVd5h390d
p3970
I1
sVd82yd8q
p3971
I1
sVdabqq7a
p3972
I1
sVd557v2h
p3973
I1
sVd4gxyxn
p3974
I5
sVdi8yp2d
p3975
I1
sVdnop132
p3976
I1
sVczhymlf
p3977
I1
sVd768h1l
p3978
I1
sVd9alx5t
p3979
I1
sVdiqxcbd
p3980
I1
sVdo0kp1a
p3981
I1
sVd01n385
p3982
I1
sVdmxec7j
p3983
I1
sVdcghk1o
p3984
I1
sVdbaxhh5
p3985
I1
sVd9563bk
p3986
I1
sVdckemve
p3987
I1
sVd49meqn
p3988
I1
sVdcbqk4s
p3989
I2
sVd9nyvn8
p3990
I1
sVdccgzx4
p3991
I1
sVdgc246o
p3992
I1
sVd16vf4c
p3993
I1
sVdalr6ok
p3994
I1
sVdglxes8
p3995
I1
sVdkz9fx1
p3996
I1
sVdowdgv1
p3997
I1
sVddk5oqa
p3998
I3
sVd1c91qx
p3999
I1
sVdqtnrfz
p4000
I1
sVd1kdi3g
p4001
I1
sVdnz57kl
p4002
I1
sVcyihwz6
p4003
I1
sVd9o578e
p4004
I1
sVd9b3i4v
p4005
I1
sVd6lcdu7
p4006
I1
sVd44ofw9
p4007
I1
sVd4ixmyb
p4008
I1
sVdg2p0f7
p4009
I1
sVdh1la5o
p4010
I1
sVczh1a9t
p4011
I1
sVd313bl0
p4012
I1
sVd3gyyh0
p4013
I1
sVddjrvnv
p4014
I1
sVcywshz3
p4015
I1
sVd0bv0nd
p4016
I1
sVdflyx48
p4017
I1
sVdkej5w0
p4018
I1
sVdf7tkwo
p4019
I1
sVdruk3kw
p4020
I1
sVcz63792
p4021
I1
sVdkqnbcz
p4022
I1
sVd2qzii0
p4023
I1
sVd0xfo4j
p4024
I1
sVdemh0zp
p4025
I1
sVdmsgrqs
p4026
I1
sVd79cbuo
p4027
I1
sVdafow5s
p4028
I1
sVd03mgxk
p4029
I1
sVdmkz8lr
p4030
I2
sVdgg78vf
p4031
I1
sVdg6h4zo
p4032
I2
sVdrtb6zr
p4033
I1
sVdk8frn9
p4034
I1
sVd76f5ky
p4035
I1
sVd9p4ei7
p4036
I1
sVd0kizun
p4037
I1
sVd3k86rm
p4038
I1
sVddwru4m
p4039
I1
sVczzhw9g
p4040
I1
sVdijql88
p4041
I1
sVd4rn5ps
p4042
I1
sVds987zl
p4043
I1
sVdmzkse0
p4044
I1
sVdhoj5a4
p4045
I1
sVd4j3sgj
p4046
I1
sVd52wrwo
p4047
I1
sVda01v44
p4048
I2
sVd6da772
p4049
I1
sVd5useef
p4050
I1
sVdbb2g3h
p4051
I1
sVd6mo2ut
p4052
I1
sVd71nwah
p4053
I1
sVd9i76je
p4054
I1
sVdeyexdp
p4055
I1
sVd2kjwjn
p4056
I1
sVdd92nw3
p4057
I2
sVdco9zsm
p4058
I1
sVdquy440
p4059
I1
sVdhu79c5
p4060
I1
sVd4d620s
p4061
I1
sVd8fu2ek
p4062
I1
sVd1y9nz3
p4063
I1
sVdsoreo0
p4064
I1
sVdeo1x5n
p4065
I1
sVdn89roi
p4066
I1
sVd44wpbu
p4067
I1
sVd6efp32
p4068
I1
sVdevwam9
p4069
I1
sVdakcfym
p4070
I1
sVddc1aol
p4071
I1
sVddmdnj0
p4072
I1
sVd77ltw3
p4073
I1
sVdcclpvo
p4074
I2
sVdku7ctv
p4075
I1
sVdeodauh
p4076
I1
sVdjew7s0
p4077
I1
sVcykqzwk
p4078
I1
sVd3rcqrs
p4079
I1
sVdncrman
p4080
I1
sVdmi41wl
p4081
I1
sVdc85rx9
p4082
I1
sVdk8xj3j
p4083
I2
sVdctngz1
p4084
I3
sVd9vp4e8
p4085
I1
sVdbloezq
p4086
I1
sVcyv4hfh
p4087
I1
sVd12km3i
p4088
I1
sVd85s57h
p4089
I1
sVdgzdtqv
p4090
I1
sVd0vcpc5
p4091
I1
sVdjbbn1f
p4092
I1
sVdeav75x
p4093
I2
sVdbx17ea
p4094
I2
sVdmf6pp4
p4095
I1
sVdjorjm6
p4096
I1
sVdd1e8he
p4097
I1
sVdgz6xtu
p4098
I1
sVd0fpnc3
p4099
I1
sVd7rfyhl
p4100
I1
sVdjn7n6l
p4101
I1
sVdqdbxo4
p4102
I1
sVdsxr6up
p4103
I1
sVdoiz6m3
p4104
I1
sVdgropgh
p4105
I1
sVd3ma9d4
p4106
I1
sVcyl3c8m
p4107
I1
sVd1t9pi2
p4108
I1
sVdnlwrah
p4109
I1
sVdbfdhgx
p4110
I1
sVd9hqv7x
p4111
I1
sVd2npxlj
p4112
I1
sVdhihl2e
p4113
I1
sVdmnpz0o
p4114
I1
sVde48d1u
p4115
I1
sVde1t7ri
p4116
I3
sVd7tqfbr
p4117
I1
sVda7jc7o
p4118
I1
sVd80a418
p4119
I1
sVcyxdmoe
p4120
I1
sVdsf9w1d
p4121
I1
sVdb39n9m
p4122
I2
sVd1xzflu
p4123
I1
sVdbly46c
p4124
I1
sVdhuqero
p4125
I1
sVd87j2yo
p4126
I1
sVdq24d3i
p4127
I1
sVdib8fcz
p4128
I1
sVczx5ree
p4129
I1
sVd4fd2rt
p4130
I3
sVdp4gw40
p4131
I3
sVd9147qc
p4132
I1
sVd1avlc2
p4133
I1
sVdt8vo7h
p4134
I1
sVd24jr8t
p4135
I1
sVdc92gfd
p4136
I1
sVd1pf7hc
p4137
I2
sVd27ite3
p4138
I1
sVday85zv
p4139
I1
sVd02t11t
p4140
I1
sVdej02xx
p4141
I1
sVd4gzdaq
p4142
I1
sVde4iy42
p4143
I1
sVdhtuxpl
p4144
I1
sVdn2vjar
p4145
I1
sVdghsee4
p4146
I1
sVd38rhu3
p4147
I1
sVdgs1km5
p4148
I1
sVdoato8t
p4149
I1
sVd5n08hm
p4150
I1
sVdh34wff
p4151
I1
sVdfwvnr6
p4152
I1
sVdai52mw
p4153
I1
sVdcbfidd
p4154
I1
sVdexsauq
p4155
I1
sVd4a1fv0
p4156
I1
sVd934c0o
p4157
I1
sVdg6ssva
p4158
I1
sVdjlclvv
p4159
I1
sVdncn9bc
p4160
I1
sVd6nxzuo
p4161
I1
sVd3qcmmm
p4162
I1
sVd5zbfy4
p4163
I1
sVddeghpc
p4164
I1
sVd3rif7q
p4165
I1
sVdawhw1s
p4166
I1
sVd7gyics
p4167
I1
sVd2jh478
p4168
I1
sVdek82ye
p4169
I1
sVd0ytey8
p4170
I1
sVdgacqtn
p4171
I1
sVdgjcxtr
p4172
I1
sVd09c642
p4173
I1
sVczz3ez0
p4174
I1
sVd1ru49e
p4175
I1
sVdbqmg1m
p4176
I1
sVdg9yo7w
p4177
I1
sVd392nid
p4178
I2
sVdjkchai
p4179
I2
sVd9mlkcc
p4180
I1
sVdidauxr
p4181
I1
sVd7qoylu
p4182
I1
sVdf3ny0a
p4183
I1
sVdbaoy7e
p4184
I1
sVdjkscye
p4185
I1
sVd2bygw3
p4186
I2
sVd96npgo
p4187
I1
sVdaenrp9
p4188
I1
sVdiqsn0i
p4189
I2
sVczpl3v3
p4190
I1
sVd5og016
p4191
I1
sVcyn8tqk
p4192
I1
sVd65qvgs
p4193
I1
sVd5pftck
p4194
I1
sVdfa0c0r
p4195
I1
sVdhciwtj
p4196
I1
sVd04wcya
p4197
I1
sVdj41qff
p4198
I1
sVd8ovo0k
p4199
I1
sVczwxbpl
p4200
I1
sVdn23ne4
p4201
I1
sVdoqzp5k
p4202
I1
sVde9ozgk
p4203
I1
sVdb5evvb
p4204
I1
sVdhos9sn
p4205
I1
sVd2s9u28
p4206
I1
sVd9oii99
p4207
I1
sVd1djtaq
p4208
I1
sVdp73hhh
p4209
I1
sVdf1x1ui
p4210
I1
sVdsxoq5b
p4211
I1
sVde4izxq
p4212
I1
sVdc814wh
p4213
I1
sVdj43tex
p4214
I2
sVdgsck3g
p4215
I2
sVd3l00c1
p4216
I1
sVdclux8p
p4217
I1
sVd3au787
p4218
I1
sVdgglmf1
p4219
I2
sVcyku98p
p4220
I1
sVd4tv9yx
p4221
I2
sVddhmnza
p4222
I1
sVd1xk3hp
p4223
I1
sVddra48w
p4224
I1
sVd4e6bpd
p4225
I1
sVds0d7jh
p4226
I2
sVd9f1hsf
p4227
I2
sVdq9r0om
p4228
I1
sVd70i5lb
p4229
I1
sVd3bhbm8
p4230
I1
sVd7z0w6z
p4231
I1
sVd3vkqdk
p4232
I2
sVdaser2u
p4233
I1
sVdik2tb9
p4234
I1
sVdbbe27f
p4235
I1
sVdadrrjy
p4236
I1
sVd6md4w4
p4237
I1
sVd2l2tm9
p4238
I1
sVdhfzjxu
p4239
I1
sVd7uxts7
p4240
I1
sVd4mqmer
p4241
I1
sVd0oemdt
p4242
I1
sVdio3w1c
p4243
I1
sVd37mge1
p4244
I1
sVd9dztws
p4245
I2
sVdhxx4ij
p4246
I1
sVdfwrpau
p4247
I1
sVd6mor1j
p4248
I1
sVczg3l08
p4249
I1
sVdt41iu0
p4250
I1
sVdh2q4vk
p4251
I2
sVd1pzlt6
p4252
I1
sVd2ax1pl
p4253
I2
sVdge5lpj
p4254
I1
sVdi4nre7
p4255
I1
sVcyjjvf2
p4256
I1
sVd1qbvz0
p4257
I1
sVd097ooh
p4258
I1
sVdeotgy0
p4259
I2
sVd8upt9i
p4260
I1
sVdbd95re
p4261
I1
sVdfbyg38
p4262
I1
sVdh97irn
p4263
I1
sVczzmcwb
p4264
I1
sVd2p5uk2
p4265
I1
sVd0knvi1
p4266
I1
sVcz8twup
p4267
I1
sVdpqn2t0
p4268
I1
sVd0kl6kn
p4269
I1
sVd1aktr4
p4270
I1
sVd1kxyvv
p4271
I1
sVd7qffqb
p4272
I1
sVdqmu7y7
p4273
I1
sVdmoyend
p4274
I1
sVddodbjr
p4275
I1
sVd3b9a3m
p4276
I1
sVdmij6lj
p4277
I1
sVd200qt8
p4278
I1
sVdi6661d
p4279
I1
sVd4u67fs
p4280
I1
sVd3uf87r
p4281
I1
sVd1rv26x
p4282
I1
sVd1uf9tw
p4283
I2
sVdkkmrev
p4284
I1
sVd3k7aw2
p4285
I1
sVdmky0tu
p4286
I1
sVdhfp8u1
p4287
I1
sVdi008wy
p4288
I1
sVdhii8l0
p4289
I2
sVd3qssxd
p4290
I1
sVdn55oy7
p4291
I1
sVdagk7m3
p4292
I1
sVd28xho1
p4293
I1
sVdrvjttr
p4294
I1
sVdstorq6
p4295
I1
sVd6mo0eo
p4296
I1
sVd1c5927
p4297
I1
sVdnm7igg
p4298
I1
sVdrgxucr
p4299
I1
sVd6nxwx0
p4300
I1
sVd5jc5ka
p4301
I1
sVd8bhqq6
p4302
I1
sVcyiianv
p4303
I1
sVcymx9gw
p4304
I2
sVczps4zv
p4305
I1
sVdj5pgwn
p4306
I1
sVdavc9ac
p4307
I1
sVdch9s8v
p4308
I1
sVdjkfktd
p4309
I1
sVd9ffyus
p4310
I1
sVdepjvxt
p4311
I1
sVdcefwi1
p4312
I1
sVd4gkq9g
p4313
I1
sVdbjgq4k
p4314
I1
sVdhu3mhd
p4315
I1
sVda03g02
p4316
I1
sVd0190of
p4317
I1
sVdip2o0j
p4318
I1
sVd1okr75
p4319
I1
sVd9cry9w
p4320
I1
sVcyy5llf
p4321
I1
sVd8s2dx9
p4322
I1
sVdsqv7o3
p4323
I1
sVdseezuu
p4324
I1
sVd4uz9x8
p4325
I1
sVdg3jgct
p4326
I1
sVdjhvg8x
p4327
I1
sVd34lfmb
p4328
I1
sVdca43e1
p4329
I1
sVdh64w1g
p4330
I1
sVd29lrs9
p4331
I1
sVdgb8zsi
p4332
I2
sVddllz4b
p4333
I1
sVdghnqmu
p4334
I1
sVdhysfiz
p4335
I1
sVdi73tgn
p4336
I1
sVdjkh8xz
p4337
I1
sVdgiozxi
p4338
I1
sVdgydh27
p4339
I2
sVd0jilhl
p4340
I1
sVdpknrl7
p4341
I1
sVdbutlia
p4342
I1
sVd4xhyy2
p4343
I1
sVd39fgai
p4344
I1
sVd9efs30
p4345
I1
sVdqzjnpd
p4346
I1
sVd8k7eob
p4347
I2
sVd5rvlev
p4348
I1
sVd3vs1ey
p4349
I1
sVcyiwwh7
p4350
I1
sVd7ge353
p4351
I1
sVdfon55z
p4352
I1
sVddlpngb
p4353
I1
sVdfy9sp7
p4354
I1
sVdazlucy
p4355
I2
sVdht1edt
p4356
I1
sVdalo8po
p4357
I1
sVd0tj4mx
p4358
I1
sVd05pd5i
p4359
I1
sVd1ze4e4
p4360
I1
sVd6zlorg
p4361
I2
sVd09f038
p4362
I2
sVd4gish9
p4363
I1
sVd1qmj97
p4364
I1
sVd88u9vm
p4365
I1
sVdceymoy
p4366
I1
sVdfmgtto
p4367
I1
sVd2xwggh
p4368
I1
sVd9nnxq3
p4369
I1
sVdhoib7v
p4370
I1
sVdd3vypl
p4371
I1
sVdil28il
p4372
I1
sVdehina9
p4373
I1
sVd5ptw1d
p4374
I1
sVdkgsq8r
p4375
I1
sVdg6dq0l
p4376
I1
sVd7314xz
p4377
I1
sVdj9ut6h
p4378
I1
sVd1zl557
p4379
I3
sVdkrdmgf
p4380
I1
sVdrfxktd
p4381
I1
sVdahoslo
p4382
I1
sVd4cy4aj
p4383
I1
sVczwtk8r
p4384
I2
sVczjjlak
p4385
I1
sVd3yijfg
p4386
I1
sVd9l86ap
p4387
I1
sVdgir51g
p4388
I1
sVd0covsr
p4389
I1
sVdi0oo6j
p4390
I2
sVd7qhwhu
p4391
I1
sVd0nwii5
p4392
I2
sVd1rpkyw
p4393
I1
sVdewo50a
p4394
I1
sVd0t3oin
p4395
I1
sVdteur7j
p4396
I1
sVd6urr8s
p4397
I1
sVd889r4n
p4398
I1
sVdcviv12
p4399
I4
sVd1y4xiq
p4400
I1
sVdd09eza
p4401
I1
sVcyjxubb
p4402
I1
sVd0wb74w
p4403
I1
sVdrg6ltz
p4404
I1
sVddcv0hp
p4405
I1
sVdczjtve
p4406
I2
sVdjn8r65
p4407
I1
sVd13akbe
p4408
I1
sVdauiej5
p4409
I1
sVcywymsb
p4410
I1
sVddg88uw
p4411
I1
sVd6vr1iy
p4412
I2
sVd3mitja
p4413
I1
sVd45my7z
p4414
I1
sVdmmcdj2
p4415
I1
sVdapjcun
p4416
I1
sVczinvez
p4417
I1
sVd5gxb0s
p4418
I1
sVdd5brc3
p4419
I1
sVd857fyh
p4420
I1
sVdkeu81n
p4421
I1
sVds5b4ik
p4422
I1
sVd1cxkae
p4423
I2
sVddsdpdj
p4424
I1
sVd9l6gd2
p4425
I1
sVd58vnif
p4426
I1
sVd420p83
p4427
I1
sVd5eafhw
p4428
I1
sVd5wyv7b
p4429
I1
sVdnqxia8
p4430
I1
sVd6u5n1m
p4431
I1
sVd13cg27
p4432
I1
sVdb57ho5
p4433
I1
sVdkf692v
p4434
I1
sVcyo7bky
p4435
I1
sVdkkj9xk
p4436
I1
sVd1eg89i
p4437
I1
sVd1tf81a
p4438
I2
sVdk5f9v1
p4439
I1
sVczgkva9
p4440
I1
sVdf0vpee
p4441
I1
sVd5c4otg
p4442
I1
sVd2vcbha
p4443
I1
sVdi8bili
p4444
I1
sVcywwqqf
p4445
I1
sVd0acuyx
p4446
I1
sVdgnvmde
p4447
I1
sVd0enysk
p4448
I1
sVd2qg3do
p4449
I1
sVdewnrm8
p4450
I2
sVdigja0p
p4451
I1
sVdghbeto
p4452
I1
sVd3w9v09
p4453
I1
sVd4plxha
p4454
I1
sVd9wrfdx
p4455
I1
sVdtdac43
p4456
I1
sVdkprdtv
p4457
I1
sVdi5i41v
p4458
I1
sVd0fogjg
p4459
I1
sVdj39x1s
p4460
I1
sVdgfg93l
p4461
I1
sVdcl4inz
p4462
I1
sVd1jtamc
p4463
I1
sVdfqxval
p4464
I1
sVdruk9ao
p4465
I1
sVd3hcxmm
p4466
I1
sVdg9rxgj
p4467
I1
sVd6881nw
p4468
I1
sVdgpa5lx
p4469
I1
sVdhjbt6p
p4470
I2
sVcyqiwxr
p4471
I1
sVdkrz55m
p4472
I1
sVd7g2sda
p4473
I1
sVdd7mqsc
p4474
I1
sVdtgyws7
p4475
I1
sVdeu2ud6
p4476
I1
sVcyrqrjy
p4477
I1
sVdfjktdw
p4478
I1
sVdhsvu9w
p4479
I1
sVdsj1x6l
p4480
I1
sVdiph8th
p4481
I1
sVd7cuvkt
p4482
I1
sVdcs9ln3
p4483
I1
sVd430smi
p4484
I1
sVd2pw30v
p4485
I2
sVdikmdk1
p4486
I1
sVdf9rcfv
p4487
I1
sVd65y6g9
p4488
I1
sVdq9bo5m
p4489
I1
sVd5ntuzy
p4490
I2
sVd90bkn4
p4491
I1
sVdovq0mf
p4492
I2
sVdaeutoe
p4493
I1
sVdp098qw
p4494
I1
sVd1278d9
p4495
I1
sVdati2ww
p4496
I1
sVdn9bg52
p4497
I1
sVczk178t
p4498
I1
sVd562luy
p4499
I1
sVd2kf9rw
p4500
I1
sVdfxod4r
p4501
I1
sVdb6ke9b
p4502
I1
sVdndz0t2
p4503
I1
sVd8ufpsw
p4504
I1
sVd38fk4b
p4505
I1
sVdqctzv5
p4506
I1
sVd02cvoi
p4507
I1
sVd89wbnn
p4508
I1
sVd1m5wki
p4509
I1
sVd1qn9uw
p4510
I1
sVdatdql1
p4511
I1
sVdbgr1hl
p4512
I1
sVdkw49ov
p4513
I1
sVdcas2xi
p4514
I1
sVdik6h65
p4515
I1
sVcyu0c9o
p4516
I1
sVdhknzzf
p4517
I1
sVd2yokg7
p4518
I1
sVdspgtnf
p4519
I1
sVdaobyng
p4520
I1
sVd3sagjm
p4521
I1
sVdbn0ewz
p4522
I2
sVd0eeigx
p4523
I1
sVdnl94tq
p4524
I1
sVdndby77
p4525
I1
sVd32cs87
p4526
I1
sVddux48y
p4527
I1
sVdafd6ix
p4528
I1
sVdp9hmbi
p4529
I1
sVd2hu6ir
p4530
I1
sVd6dvx7x
p4531
I1
sVdo0sf3e
p4532
I1
sVdevigou
p4533
I1
sVdev27w9
p4534
I1
sVd9umjph
p4535
I1
sVdby0vdt
p4536
I1
sVdk96z53
p4537
I1
sVd25h8q7
p4538
I3
sVdnx72db
p4539
I1
sVdensujr
p4540
I1
sVdqu1654
p4541
I1
sVdb8gz68
p4542
I1
sVd05oyvf
p4543
I2
sVds3nv1r
p4544
I1
sVdajfm5w
p4545
I1
sVd1t880z
p4546
I1
sVdnr9od1
p4547
I1
sVde1vf9n
p4548
I2
sVdhrb0re
p4549
I1
sVczx6jti
p4550
I1
sVdgrxotk
p4551
I1
sVd6875c3
p4552
I1
sVdt7q5br
p4553
I1
sVdmp17an
p4554
I1
sVdrmwb7v
p4555
I3
sVd9fh0ow
p4556
I2
sVdgymn9w
p4557
I1
sVdkiwh5e
p4558
I2
sVdnc5nae
p4559
I1
sVd6n5sxp
p4560
I1
sVdcujr4w
p4561
I1
sVdq1oriy
p4562
I2
sVd7pb80q
p4563
I1
sVdk2rihd
p4564
I1
sVczvlfkt
p4565
I1
sVdnkbhlg
p4566
I3
sVd8ojtvd
p4567
I1
sVd0j2kx3
p4568
I1
sVd4r0wk9
p4569
I1
sVdkvzsae
p4570
I1
sVdq39h7v
p4571
I1
sVd2gh4ew
p4572
I1
sVdt9chhu
p4573
I1
sVd0kqfm3
p4574
I1
sVdt1k9s4
p4575
I1
sVcyvocm8
p4576
I1
sVd3c4vtq
p4577
I1
sVd0izrs4
p4578
I1
sVdms91gw
p4579
I4
sVdeissws
p4580
I1
sVdpqqkuj
p4581
I1
sVd2gmvwy
p4582
I2
sVdtfqdgj
p4583
I1
sVdeb6u07
p4584
I1
sVdrpp7bh
p4585
I1
sVdewy6sc
p4586
I1
sVdix4024
p4587
I1
sVdbpltgw
p4588
I1
sVdgi5ev3
p4589
I1
sVdbezu0b
p4590
I1
sVd2px7vn
p4591
I1
sVdqa1p0d
p4592
I1
sVdhql20d
p4593
I1
sVdfzvnwq
p4594
I1
sVdn1i6in
p4595
I2
sVds91srg
p4596
I1
sVdgjyd5h
p4597
I1
sVd1upbia
p4598
I1
sVd06pt11
p4599
I2
sVdf1unp8
p4600
I1
sVd48dl3u
p4601
I1
sVdd3nqbc
p4602
I2
sVdkmto5a
p4603
I1
sVd95u85n
p4604
I1
sVd2k43ek
p4605
I2
sVdkvjrh6
p4606
I2
sVcz4iv32
p4607
I1
sVdjstopi
p4608
I1
sVd2wn7ww
p4609
I1
sVdkm57of
p4610
I1
sVd96c0i5
p4611
I1
sVdoxgls8
p4612
I1
sVd8z06wb
p4613
I1
sVd6v7kdl
p4614
I1
sVdkninnh
p4615
I1
sVdd7923l
p4616
I1
sVd3j555f
p4617
I1
sVd7yxc8b
p4618
I2
sVdkdb1it
p4619
I2
sVd3w5xsp
p4620
I2
sVda0pnf8
p4621
I1
sVdau0z8c
p4622
I1
sVd9yucp7
p4623
I1
sVdtbisyy
p4624
I1
sVds0ktdn
p4625
I1
sVd7t0dr6
p4626
I1
sVdjbzh86
p4627
I1
sVczhxayo
p4628
I1
sVd07pe1q
p4629
I1
sVdbg00a3
p4630
I1
sVdhajt03
p4631
I1
sVd6mk7e5
p4632
I2
sVdh6lqhq
p4633
I1
sVdaru3pz
p4634
I1
sVd99x341
p4635
I1
sVdmg0qne
p4636
I1
sVdh6s3wt
p4637
I1
sVddxv5z2
p4638
I1
sVdcbp7h6
p4639
I2
sVczyxszu
p4640
I1
sVcznf7us
p4641
I1
sVd2t7ks4
p4642
I1
sVd706llk
p4643
I1
sVd3is80d
p4644
I2
sVcyuug8x
p4645
I1
sVdeswk1s
p4646
I1
sVdfzfvxf
p4647
I1
sVdo2uhli
p4648
I1
sVd6m650p
p4649
I1
sVdrks168
p4650
I1
sVd7dodhj
p4651
I1
sVdbfoqqy
p4652
I1
sVcznwlhk
p4653
I1
sVdebzrd3
p4654
I1
sVdbtkf9q
p4655
I1
sVdk1hrjc
p4656
I1
sVd7f67t3
p4657
I2
sVd7ulkmv
p4658
I1
sVd079wae
p4659
I1
sVdeabtcv
p4660
I2
sVd7w3wv0
p4661
I1
sVdjqzqzp
p4662
I1
sVdg7aeh7
p4663
I1
sVdku3bs7
p4664
I1
sVdd692tz
p4665
I1
sVd2my2ee
p4666
I1
sVczkatfq
p4667
I2
sVdfimk4p
p4668
I1
sVdrtscs3
p4669
I1
sVd8tk3ix
p4670
I2
sVczzv7oo
p4671
I1
sVd5df0fe
p4672
I1
sVd3r5zwz
p4673
I1
sVd67rqej
p4674
I2
sVdefqjx9
p4675
I1
sVdsh7awc
p4676
I1
sVcz1hoha
p4677
I1
sVdbobsf5
p4678
I1
sVczj5mwy
p4679
I1
sVdhzm6hr
p4680
I1
sVd8pmiel
p4681
I1
sVdabdync
p4682
I1
sVdnberrd
p4683
I1
sVdsustqy
p4684
I1
sVdsfd073
p4685
I1
sVcysz2ky
p4686
I2
sVd5h6pch
p4687
I2
sVd3czpid
p4688
I1
sVdi7jg6j
p4689
I2
sVd2jiols
p4690
I1
sVdexdu8t
p4691
I5
sVcyxvyl8
p4692
I1
sVdax8z83
p4693
I1
sVdren0ta
p4694
I1
sVdberx8u
p4695
I3
sVczj31yc
p4696
I1
sVd1bw8pk
p4697
I1
sVddwhwlk
p4698
I1
sVdnoh1pz
p4699
I2
sVdhx9va4
p4700
I1
sVd1bdh4u
p4701
I5
sVd19hr01
p4702
I1
sVcz4wn5n
p4703
I1
sVdbibw0j
p4704
I1
sVdfunvai
p4705
I1
sVdibzg3g
p4706
I2
sVd4knpq3
p4707
I1
sVdi7ukuk
p4708
I2
sVdcj35y8
p4709
I1
sVcz1c6dh
p4710
I1
sVddxptnd
p4711
I1
sVdhq2x6v
p4712
I1
sVcz27u02
p4713
I1
sVdqzkuru
p4714
I1
sVdbz6aau
p4715
I1
sVdix2dm3
p4716
I1
sVd7gvxx9
p4717
I1
sVdhk8td5
p4718
I1
sVd79jsco
p4719
I1
sVd9qtlzb
p4720
I1
sVdq2y45r
p4721
I1
sVdry0s8w
p4722
I1
sVd3mnpc2
p4723
I2
sVdhn9qjl
p4724
I1
sVdpuha6l
p4725
I1
sVdnwimpb
p4726
I1
sVdaa54gy
p4727
I1
sVdohgbch
p4728
I1
sVd1vs5o2
p4729
I1
sVdar8rs2
p4730
I3
sVd7lqnbu
p4731
I1
sVdj8hkfn
p4732
I1
sVd506y8w
p4733
I1
sVcynqsrl
p4734
I1
sVdgyuv56
p4735
I1
sVczlwlaf
p4736
I1
sVd8e430j
p4737
I1
sVdpqxvj7
p4738
I1
sVczpjpq3
p4739
I1
sVdgsfp4f
p4740
I1
sVdhz01s6
p4741
I1
sVd01u5a2
p4742
I1
sVd2ztz0i
p4743
I1
sVd7njba5
p4744
I1
sVd81txex
p4745
I1
sVdpuswlv
p4746
I1
sVd7abvud
p4747
I1
sVdh5umz9
p4748
I1
sVdg3x809
p4749
I1
sVd8hlcek
p4750
I1
sVdkaslfq
p4751
I2
sVd1lt1dg
p4752
I1
sVdmrqtn3
p4753
I1
sVd9g1ekd
p4754
I1
sVd28xw75
p4755
I1
sVd0pref5
p4756
I2
sVdmit483
p4757
I1
sVdcjwvfb
p4758
I1
sVd9pvvod
p4759
I1
sVd0id9kh
p4760
I1
sVd3qkrgu
p4761
I3
sVd3y6pgo
p4762
I1
sVdaz5ro4
p4763
I1
sVdnqmf41
p4764
I1
sVd2askln
p4765
I1
sVdctos3f
p4766
I1
sVd53uch5
p4767
I1
sVd7yx6hv
p4768
I2
sVd31o2r2
p4769
I2
sVd68qicv
p4770
I1
sVdbrm1ar
p4771
I2
sVdrnirmr
p4772
I1
sVddgt9ha
p4773
I1
sVdjmqbeo
p4774
I1
sVd53mfjg
p4775
I1
sVd8mhale
p4776
I1
sVd9wa56d
p4777
I2
sVd6nep9a
p4778
I1
sVdn37iig
p4779
I1
sVdfr23tb
p4780
I1
sVd9wdxe7
p4781
I3
sVd9v13yj
p4782
I1
sVdjxvusc
p4783
I1
sVd9b55fe
p4784
I1
sVczqfzwb
p4785
I1
sVdo598ei
p4786
I2
sVda7mocl
p4787
I1
sVd6t8vvr
p4788
I1
sVd3grxlj
p4789
I1
sVd43e8vp
p4790
I1
sVcykipob
p4791
I1
sVdopszby
p4792
I1
sVcztb76u
p4793
I1
sVcyr2jh5
p4794
I1
sVdrkdmli
p4795
I1
sVd1qcdrc
p4796
I1
sVdnj2zh0
p4797
I1
sVdi9fhym
p4798
I1
sVczw88uy
p4799
I1
sVd463flf
p4800
I2
sVde2omta
p4801
I1
sVdajz257
p4802
I1
sVczkc4vw
p4803
I1
sVdk09mnn
p4804
I1
sVd9uli14
p4805
I1
sVd99c5dd
p4806
I1
sVd5sp79i
p4807
I1
sVczrn9ej
p4808
I1
sVda654nz
p4809
I1
sVd1ziji0
p4810
I1
sVdcbgjp9
p4811
I1
sVd2q7yj5
p4812
I2
sVd7jnwsf
p4813
I1
sVczy2wpy
p4814
I1
sVd0bu3ab
p4815
I1
sVd627y9w
p4816
I1
sVd73s8tq
p4817
I1
sVdjqw429
p4818
I1
sVdgwd0fg
p4819
I1
sVdgzjphn
p4820
I1
sVd3s4eqw
p4821
I2
sVd63vcfc
p4822
I1
sVdez8rrn
p4823
I1
sVdchsnct
p4824
I1
sVd5fnwqg
p4825
I1
sVdfg9o8c
p4826
I1
sVdctia2p
p4827
I2
sVd2jyw14
p4828
I1
sVcz2bfgw
p4829
I1
sVdh19i3x
p4830
I1
sVdmu5s6m
p4831
I1
sVdsnz8xi
p4832
I1
sVd1nxxrp
p4833
I1
sVdnuc07n
p4834
I1
sVd8eayga
p4835
I1
sVd7nd1lp
p4836
I1
sVdgcw83b
p4837
I1
sVdeky6d0
p4838
I1
sVdhzh2c2
p4839
I1
sVdahi2kf
p4840
I3
sVd9cuo0l
p4841
I3
sVd4dw80d
p4842
I1
sVd1abskq
p4843
I1
sVdpca5of
p4844
I1
sVdawiccy
p4845
I1
sVd867e48
p4846
I1
sVd0yg1nf
p4847
I1
sVdo78dkf
p4848
I1
sVdpprtod
p4849
I1
sVd3h8fed
p4850
I1
sVd13ildr
p4851
I1
sVd45w6vo
p4852
I1
sVd83wbwx
p4853
I2
sVdjp5hl2
p4854
I3
sVd5rrv2d
p4855
I1
sVd1rlqb4
p4856
I1
sVdblft8m
p4857
I1
sVdg722jl
p4858
I2
sVd3puf11
p4859
I2
sVdkws9ur
p4860
I1
sVdqwlgjw
p4861
I1
sVd00q6fi
p4862
I1
sVdalkerf
p4863
I1
sVdax8y2x
p4864
I1
sVcyu8bxw
p4865
I1
sVdmrdnd0
p4866
I2
sVdss6xgw
p4867
I1
sVczhlyo5
p4868
I1
sVdnwt58n
p4869
I1
sVdq1gwp8
p4870
I1
sVd3zek9u
p4871
I1
sVdivw9x4
p4872
I1
sVdc1k8vx
p4873
I1
sVdfz1jfz
p4874
I1
sVd0lvt7l
p4875
I1
sVd8iwrw8
p4876
I1
sVd4srqtv
p4877
I1
sVdbdk4xx
p4878
I1
sVd6nk8yx
p4879
I2
sVd8a9sj6
p4880
I1
sVdpevq1r
p4881
I1
sVdj4i547
p4882
I1
sVdjjjdc2
p4883
I1
sVdhbtt02
p4884
I1
sVdrjc1bu
p4885
I1
sVdko3whb
p4886
I1
sVdot4mv7
p4887
I1
sVd9esoc9
p4888
I1
sVd5v039g
p4889
I1
sVdfgm037
p4890
I1
sVdtb23dt
p4891
I1
sVdghsuj6
p4892
I1
sVd0ivqnw
p4893
I1
sVd5jnd06
p4894
I1
sVczgzzt2
p4895
I1
sVdsab93v
p4896
I1
sVd0blelz
p4897
I1
sVczcbasl
p4898
I1
sVd4wl1l8
p4899
I1
sVd2edit6
p4900
I1
sVd4klbgp
p4901
I1
sVdcjhipe
p4902
I1
sVdeicmgv
p4903
I1
sVd0jl1r3
p4904
I1
sVde1gsnb
p4905
I3
sVd62noof
p4906
I1
sVdklw8ct
p4907
I1
sVdco5sk3
p4908
I1
sVd3wq6ao
p4909
I8
sVd5xbuwa
p4910
I1
sVdnr6hg1
p4911
I1
sVdicciqv
p4912
I1
sVdaggw4u
p4913
I1
sVd3jrcji
p4914
I1
sVd4wkfrt
p4915
I1
sVdhujmew
p4916
I1
sVdb3usok
p4917
I1
sVd7kyfqt
p4918
I1
sVd6kfmap
p4919
I1
sVdmsh1ps
p4920
I1
sVdqtf84w
p4921
I1
sVdax87jr
p4922
I1
sVd3w2zra
p4923
I1
sVd7rik06
p4924
I1
sVd2axqb5
p4925
I1
sVd3n02ot
p4926
I1
sVd8f3xgh
p4927
I1
sVd2uje9i
p4928
I3
sVczi4wrx
p4929
I1
sVcz8o802
p4930
I1
sVdckov0c
p4931
I1
sVdixpt59
p4932
I1
sVdclr5f7
p4933
I1
sVddkyxk8
p4934
I1
sVd7mq7f5
p4935
I1
sVd0z7ag6
p4936
I1
sVd19lzj2
p4937
I1
sVdi2cuh8
p4938
I1
sVda94cog
p4939
I1
sVczjan0p
p4940
I1
sVd0n3nce
p4941
I1
sVd2ud4ut
p4942
I2
sVdjeeymk
p4943
I1
sVd001f6c
p4944
I1
sVdbwst39
p4945
I1
sVd8fae50
p4946
I1
sVdjbk7tb
p4947
I1
sVd0z3z99
p4948
I1
sVday0sy7
p4949
I1
sVdaul7k0
p4950
I2
sVd2c6i2c
p4951
I1
sVdgh89i0
p4952
I1
sVdn86a44
p4953
I2
sVd2ogmhc
p4954
I1
sVd5hvlq6
p4955
I1
sVcznbuxr
p4956
I1
sVdf1lhjx
p4957
I1
sVd6kctw9
p4958
I1
sVdrxe55u
p4959
I1
sVd8wyldg
p4960
I1
sVd55c0jo
p4961
I1
sVddxv5co
p4962
I1
sVdh1jza1
p4963
I1
sVd6x9qp2
p4964
I1
sVd035voo
p4965
I1
sVd2noqmh
p4966
I1
sVdjesknl
p4967
I1
sVd1vta5e
p4968
I1
sVdegtkjk
p4969
I1
sVd2663xv
p4970
I1
sVdite608
p4971
I1
sVd2q0yi4
p4972
I1
sVdgy462a
p4973
I1
sVda6tlwl
p4974
I1
sVd6mn6lt
p4975
I1
sVdbh2rnq
p4976
I1
sVdhp2b08
p4977
I1
sVdc9r53o
p4978
I2
sVdcarpe8
p4979
I1
sVdr2gu1w
p4980
I1
sVdg2c8xd
p4981
I1
sVddj9sgk
p4982
I1
sVdh0kel5
p4983
I1
sVdd0dxmw
p4984
I1
sVd636a3r
p4985
I1
sVdaxqhmo
p4986
I1
sVd6syqis
p4987
I1
sVd9wczg7
p4988
I1
sVd11o0h4
p4989
I1
sVdtauabi
p4990
I1
sVdjpqpjp
p4991
I1
sVdafw91k
p4992
I1
sVdbs8fx2
p4993
I1
sVd2x4kmh
p4994
I1
sVd504g7h
p4995
I1
sVdjyhzym
p4996
I1
sVd3avw7n
p4997
I1
sVczp65i6
p4998
I1
sVcyt4hj4
p4999
I3
sVd0b9ua9
p5000
I1
sVdfcfmed
p5001
I1
sVdewa33m
p5002
I1
sVd63z5q2
p5003
I1
sVdfmj4v5
p5004
I1
sVdcw0h0w
p5005
I1
sVdcyry3f
p5006
I1
sVd91pelh
p5007
I1
sVdfaudqg
p5008
I1
sVdkgqxf9
p5009
I1
sVdo0c8u8
p5010
I1
sVd8ygycd
p5011
I1
sVdp7em9v
p5012
I1
sVd3dt301
p5013
I1
sVdd076xa
p5014
I2
sVd9188ux
p5015
I1
sVcyqgrwd
p5016
I1
sVd92aqt5
p5017
I1
sVdaacif6
p5018
I1
sVd8t8n4v
p5019
I1
sVd5r2nmm
p5020
I1
sVd6s3plx
p5021
I2
sVd15ci1p
p5022
I1
sVdmfteeo
p5023
I1
sVczi49ys
p5024
I1
sVd6579gz
p5025
I1
sVdbxl1s8
p5026
I1
sVd3soynz
p5027
I1
sVcz2ddgu
p5028
I1
sVdo735l2
p5029
I1
sVd08kgo9
p5030
I1
sVddq370b
p5031
I1
sVd05kugt
p5032
I1
sVdj3iuy4
p5033
I1
sVdc240ab
p5034
I1
sVd1pwf7q
p5035
I1
sVdbzmi8w
p5036
I1
sVd9oy7wg
p5037
I1
sVd5cwmmj
p5038
I1
sVd801n0p
p5039
I1
sVd2sqi49
p5040
I1
sVd0iyqt9
p5041
I1
sVd8vhz7h
p5042
I1
sVdsckh8d
p5043
I1
sVd3bdz0u
p5044
I1
sVd1sc50q
p5045
I1
sVdh3bdi5
p5046
I1
sVd3f6dtr
p5047
I1
sVd2rnar4
p5048
I1
sVdadgny7
p5049
I1
sVdmvj7hd
p5050
I1
sVdcby8vs
p5051
I1
sVdml77mh
p5052
I1
sVd11q3g2
p5053
I2
sVdfr5rtn
p5054
I1
sVcz1ihsq
p5055
I1
sVd35evar
p5056
I1
sVdjjlej5
p5057
I2
sVdfng0rb
p5058
I1
sVdhnl1zf
p5059
I1
sVd0cngqg
p5060
I1
sVdnbdx3c
p5061
I1
sVdtgmo1s
p5062
I2
sVd0qxhu4
p5063
I1
sVdf56kv9
p5064
I1
sVd3pgkvp
p5065
I1
sVd5miv5t
p5066
I1
sVddjd1pp
p5067
I2
sVcyj1cg3
p5068
I1
sVd8abvhz
p5069
I1
sVds4svrj
p5070
I1
sVdmmrr8b
p5071
I1
sVczv3xaz
p5072
I1
sVd3cut6w
p5073
I1
sVd603euc
p5074
I1
sVd3qwk6q
p5075
I1
sVdnyphc1
p5076
I1
sVczv3yhi
p5077
I1
sVd10fn7v
p5078
I1
sVddxazc6
p5079
I1
sVd5fprhq
p5080
I1
sVdctjb6l
p5081
I2
sVdgngm61
p5082
I1
sVdb1o5af
p5083
I1
sVd40v71b
p5084
I1
sVd25idq9
p5085
I1
sVdjxcdyt
p5086
I1
sVdg5euuq
p5087
I1
sVdms0io3
p5088
I1
sVd24id8j
p5089
I2
sVd0e30g0
p5090
I1
sVdbfwpu9
p5091
I1
sVdca29g8
p5092
I1
sVd7o26by
p5093
I1
sVczbnjy4
p5094
I1
sVdn2718h
p5095
I2
sVdh438tv
p5096
I1
sVcym3nqx
p5097
I1
sVd0ck5am
p5098
I1
sVdae2297
p5099
I1
sVd1k70c5
p5100
I1
sVd07n2tj
p5101
I1
sVdei8o83
p5102
I1
sVde09fk7
p5103
I1
sVd6jlm2a
p5104
I3
sVdif9tta
p5105
I1
sVdt6hems
p5106
I1
sVd30idcn
p5107
I1
sVdbw3fd3
p5108
I1
sVdgtnvj3
p5109
I2
sVdo7r2p0
p5110
I1
sVd0kxm7k
p5111
I1
sVd7p6imn
p5112
I1
sVd1r5wsa
p5113
I1
sVd7sycz0
p5114
I1
sVd708eaw
p5115
I1
sVdk48ecr
p5116
I1
sVdenwqes
p5117
I1
sVdh697au
p5118
I1
sVdc7xzmp
p5119
I1
sVdotekb2
p5120
I3
sVdcjp3cj
p5121
I1
sVdeus5d7
p5122
I1
sVdabv3tx
p5123
I2
sVdficgwr
p5124
I1
sVdqx8o43
p5125
I1
sVdg5dqi6
p5126
I1
sVd5vro87
p5127
I1
sVcyp78mi
p5128
I1
sVdhlpp6g
p5129
I1
sVd1cxj0l
p5130
I1
sVdbh2vpb
p5131
I1
sVd9f244o
p5132
I1
sVd9z8mcl
p5133
I1
sVdbc31c4
p5134
I2
sVd9e7s83
p5135
I1
sVd7uouqy
p5136
I2
sVd6ozfhy
p5137
I1
sVd3ir85d
p5138
I1
sVdar8e1f
p5139
I2
sVdjox0kz
p5140
I1
sVcyyjm5f
p5141
I1
sVdq8258w
p5142
I1
sVd3bivgw
p5143
I1
sVdgwlgr9
p5144
I1
sVd00lfu6
p5145
I1
sVd7pw2vz
p5146
I1
sVdju3011
p5147
I1
sVd9iq23e
p5148
I1
sVd1otut5
p5149
I1
sVdfb58as
p5150
I1
sVd4k0c7f
p5151
I1
sVdagfkqg
p5152
I1
sVd0h6vty
p5153
I1
sVd10xym1
p5154
I9
sVdggcny8
p5155
I1
sVd0h9b9x
p5156
I1
sVcz27rp9
p5157
I2
sVdc0jqj0
p5158
I1
sVdjx0d58
p5159
I1
sVd4kdwny
p5160
I1
sVcyskw2n
p5161
I1
sVdd6g4zi
p5162
I1
sVd56t5wr
p5163
I1
sVdaxe8vh
p5164
I1
sVd05l6oy
p5165
I1
sVdddfiya
p5166
I1
sVdowaf1p
p5167
I1
sVdfimi95
p5168
I1
sVddvvg79
p5169
I1
sVdbjtn22
p5170
I1
sVdc70j3o
p5171
I1
sVd5e45hi
p5172
I2
sVdq4ulio
p5173
I1
sVdnslcq5
p5174
I1
sVddhkclv
p5175
I1
sVdgxejvx
p5176
I1
sVdapove6
p5177
I1
sVddd7y6g
p5178
I1
sVd7qmjh9
p5179
I1
sVdfxmw3y
p5180
I1
sVddxd1ma
p5181
I1
sVd6ljpyc
p5182
I1
sVdggd8cm
p5183
I1
sVd3xuge3
p5184
I1
sVd71skmb
p5185
I1
sVdnd0r6m
p5186
I1
sVd2j1548
p5187
I1
sVczw2c39
p5188
I1
sVd84f634
p5189
I1
sVdsr6rz4
p5190
I1
sVd994oeo
p5191
I1
sVdorlfdi
p5192
I1
sVdb4f21c
p5193
I1
sVddwraax
p5194
I1
sVd6ht7s1
p5195
I3
sVdbxs2l2
p5196
I1
sVdmfzn1r
p5197
I1
sVd2yhj5d
p5198
I1
sVd3f1xy5
p5199
I1
sVdbbvt9y
p5200
I1
sVd25487b
p5201
I2
sVddqcqg2
p5202
I1
sVdisyyo8
p5203
I1
sVd8yewjw
p5204
I1
sVd8ruozs
p5205
I1
sVdmppq2w
p5206
I1
sVd9bmix7
p5207
I1
sVd1vtwon
p5208
I1
sVdbdtwnx
p5209
I1
sVd3ab5wt
p5210
I1
sVdfto716
p5211
I2
sVd71lnf9
p5212
I1
sVczi6xmz
p5213
I1
sVdmq3zjf
p5214
I1
sVcyuao26
p5215
I1
sVd2a9num
p5216
I1
sVd8qypeb
p5217
I1
sVd3s830b
p5218
I1
sVdeucttr
p5219
I1
sVd10i250
p5220
I1
sVdoah5ig
p5221
I1
sVcz0al0v
p5222
I2
sVd48hrwx
p5223
I2
sVddx8pe5
p5224
I1
sVd51e6pq
p5225
I1
sVd6veoky
p5226
I1
sVd32ptx9
p5227
I1
sVd4p61th
p5228
I1
sVd9tssbq
p5229
I1
sVd9csgts
p5230
I1
sVdo9vpth
p5231
I1
sVdo1sto8
p5232
I1
sVd6beprg
p5233
I1
sVdaz1jop
p5234
I2
sVdite41t
p5235
I1
sVdp4sltw
p5236
I1
sVd2854ky
p5237
I1
sVdh2h0wu
p5238
I1
sVd0zb5ba
p5239
I1
sVcyopxu5
p5240
I2
sVcywlox7
p5241
I1
sVdgxsgvy
p5242
I1
sVd5vwpdk
p5243
I1
sVdfwz85z
p5244
I1
sVcz9ntdn
p5245
I1
sVd6j5sug
p5246
I1
sVd0izojh
p5247
I1
sVdfekiv4
p5248
I1
sVdth3uld
p5249
I1
sVdhdz740
p5250
I1
sVcyqa1cp
p5251
I1
sVcyoe1rk
p5252
I1
sVdn5z6j1
p5253
I2
sVd2dhsnp
p5254
I1
sVdbex6yv
p5255
I1
sVdc7u7hy
p5256
I1
sVdfn6lo5
p5257
I1
sVd8t59nj
p5258
I1
sVd013zo3
p5259
I1
sVd8urdob
p5260
I1
sVdnb57jd
p5261
I1
sVdjaoocv
p5262
I1
sVddwf30z
p5263
I1
sVcyt744d
p5264
I1
sVd4kq0pe
p5265
I1
sVd28hsde
p5266
I1
sVdmz2icp
p5267
I3
sVdt8ftpk
p5268
I2
sVd9gh0h4
p5269
I1
sVd32zjff
p5270
I1
sVdp3sx2m
p5271
I1
sVdhbw10n
p5272
I2
sVd8bngl1
p5273
I1
sVdmoywnd
p5274
I1
sVd3jsdty
p5275
I1
sVd800y08
p5276
I1
sVdqvn15d
p5277
I1
sVdms4ut2
p5278
I1
sVdc5e298
p5279
I1
sVdiz6csg
p5280
I2
sVdb8ecph
p5281
I1
sVds6rvw1
p5282
I1
sVd9667hq
p5283
I2
sVdookv0t
p5284
I1
sVd5om9f6
p5285
I2
sVdhcokxv
p5286
I1
sVd6mruhx
p5287
I1
sVdc36ghq
p5288
I1
sVdeu8zl7
p5289
I1
sVdfgi3ws
p5290
I1
sVdf4ckg3
p5291
I1
sVdnem0eg
p5292
I1
sVdebi4n7
p5293
I1
sVd21hzgw
p5294
I1
sVczmr8gi
p5295
I2
sVdh9t1hq
p5296
I1
sVd2o50qp
p5297
I1
sVczns0lc
p5298
I1
sVd2tnich
p5299
I1
sVd87sdhs
p5300
I1
sVd54ieqj
p5301
I1
sVdpas7e7
p5302
I1
sVdsnkbfa
p5303
I1
sVdcun093
p5304
I1
sVczz7bw0
p5305
I1
sVdhrxh0y
p5306
I1
sVd01p0yh
p5307
I1
sVdancslg
p5308
I1
sVd0173sl
p5309
I1
sVczgqjuu
p5310
I1
sVd0sq6di
p5311
I1
sVdg465as
p5312
I1
sVcz7nv94
p5313
I1
sVd4e17h8
p5314
I1
sVd3u8ktg
p5315
I2
sVd68wzod
p5316
I1
sVd02mw50
p5317
I1
sVdb4prgl
p5318
I1
sVdao7d3v
p5319
I1
sVdh8eoc8
p5320
I1
sVdfwkppd
p5321
I1
sVczv1351
p5322
I1
sVdfwn3sy
p5323
I1
sVdb5ji2y
p5324
I1
sVd4834bg
p5325
I1
sVdiuajir
p5326
I1
sVd6t6ft7
p5327
I1
sVdr2wkpp
p5328
I1
sVczv39fp
p5329
I1
sVddjluck
p5330
I1
sVdh4hmb6
p5331
I1
sVdsyi51a
p5332
I1
sVdsghdj1
p5333
I1
sVdrqld4n
p5334
I2
sVdku6nee
p5335
I1
sVd45u628
p5336
I1
sVd1xss8r
p5337
I1
sVd51h8y2
p5338
I1
sVd96ygwt
p5339
I1
sVdmw37ud
p5340
I1
sVd1ltrt8
p5341
I1
sVd2bxcgj
p5342
I1
sVdohz2vg
p5343
I1
sVd542wfk
p5344
I1
sVdr3thtn
p5345
I1
sVd34ggqd
p5346
I1
sVd43dl08
p5347
I1
sVd2jcnz0
p5348
I1
sVdik2yux
p5349
I1
sVdbeqa10
p5350
I1
sVcz1d0oc
p5351
I1
sVdcv8nno
p5352
I1
sVdbr6g7y
p5353
I1
sVderdny8
p5354
I1
sVdb4qx7y
p5355
I1
sVd2c8d9c
p5356
I2
sVdilij60
p5357
I1
sVd45yifu
p5358
I3
sVd5rr8yg
p5359
I1
sVdj96x6f
p5360
I1
sVdnczjlj
p5361
I3
sVdfknb9f
p5362
I1
sVdbcl8es
p5363
I1
sVdhats67
p5364
I1
sVd74f0ml
p5365
I1
sVdoxy2d1
p5366
I1
sVd0o9bj3
p5367
I1
sVd6kyubi
p5368
I1
sVd66jlyo
p5369
I1
sVdgv97r3
p5370
I1
sVdifj6yc
p5371
I1
sVds296r2
p5372
I1
sVdp42hmz
p5373
I1
sVd0koagx
p5374
I1
sVd0ua98n
p5375
I1
sVddp5gus
p5376
I1
sVd8zpwdq
p5377
I1
sVd3e4og1
p5378
I1
sVdfbeaa4
p5379
I1
sVdkbf3t1
p5380
I1
sVde2ipxx
p5381
I1
sVd2i0lao
p5382
I1
sVd80jpxj
p5383
I1
sVdoey0bt
p5384
I1
sVd1voiro
p5385
I2
sVdn5txlo
p5386
I1
sVd423emh
p5387
I2
sVds87w9j
p5388
I2
sVdnpkrbh
p5389
I1
sVcztakbt
p5390
I1
sVdberu8w
p5391
I12
sVdqgabxr
p5392
I1
sVdt2b649
p5393
I1
sVczxnjh3
p5394
I1
sVd9n7olr
p5395
I1
sVd48bo0k
p5396
I1
sVd0zoilz
p5397
I1
sVd48jnjs
p5398
I1
sVd16m92v
p5399
I1
sVd6s9itg
p5400
I3
sVdcg4nwu
p5401
I1
sVdatdblw
p5402
I1
sVcze2p50
p5403
I1
sVdipu1mu
p5404
I1
sVdrb7je2
p5405
I1
sVd14kdzm
p5406
I1
sVddusuir
p5407
I1
sVdeefehz
p5408
I1
sVd82lby1
p5409
I3
sVd6z9h2i
p5410
I1
sVdjadtgn
p5411
I1
sVdp6yzi6
p5412
I1
sVd0of2mn
p5413
I1
sVd9zrd8x
p5414
I1
sVdg4669f
p5415
I1
sVd10n73k
p5416
I1
sVd4kyor4
p5417
I1
sVdeyxgfv
p5418
I1
sVdjz7h9o
p5419
I1
sVd9hbvo8
p5420
I1
sVd0o9uby
p5421
I1
sVd6bodrw
p5422
I1
sVczbgsm5
p5423
I1
sVdgu8u1f
p5424
I1
sVczzgyhd
p5425
I1
sVdodguxa
p5426
I2
sVdjctwxk
p5427
I1
sVd6orldk
p5428
I2
sVdhet7nj
p5429
I1
sVd9ajcj3
p5430
I1
sVdbx3qjg
p5431
I1
sVdfq68yb
p5432
I1
sVd6filzg
p5433
I2
sVdng5qqb
p5434
I1
sVd5gk5n5
p5435
I1
sVcytknze
p5436
I1
sVd5eh2t0
p5437
I1
sVdi73jnj
p5438
I1
sVddkpy2j
p5439
I1
sVdel8rqh
p5440
I1
sVdbgzdww
p5441
I2
sVd3niabh
p5442
I1
sVdft5jaz
p5443
I1
sVd4ts65l
p5444
I1
sVdh3pz1v
p5445
I1
sVdc6lbm5
p5446
I1
sVdmqbr7x
p5447
I1
sVd6dygwh
p5448
I1
sVdcj11aj
p5449
I1
sVdg13tbv
p5450
I1
sVczr3i34
p5451
I1
sVd52d512
p5452
I1
sVdo4waih
p5453
I3
sVdaf3tvl
p5454
I1
sVd853kq9
p5455
I1
sVdfc0ntq
p5456
I1
sVdgjxn17
p5457
I1
sVdh8aqcn
p5458
I1
sVd0bhdks
p5459
I1
sVdkvjvk9
p5460
I2
sVd195qd8
p5461
I1
sVdprkzut
p5462
I1
sVd2dyk7p
p5463
I1
sVdfng2yu
p5464
I1
sVdq4av8q
p5465
I1
sVdq2pxyl
p5466
I2
sVd7xp2fh
p5467
I1
sVdb5y4dx
p5468
I1
sVdihczyv
p5469
I1
sVd0jyvpi
p5470
I1
sVd63lxk8
p5471
I1
sVdeiclef
p5472
I2
sVd0i7anv
p5473
I1
sVdc9187g
p5474
I1
sVdfoe010
p5475
I1
sVdnhex0l
p5476
I1
sVdekdbpr
p5477
I1
sVdjs8iwj
p5478
I1
sVd8zyt0y
p5479
I1
sVd40xmgb
p5480
I2
sVdnnrb1p
p5481
I1
sVdfkneld
p5482
I1
sVczcl8r1
p5483
I1
sVd07db9u
p5484
I1
sVd461ae9
p5485
I3
sVd4rnjr7
p5486
I1
sVd1ogoah
p5487
I1
sVdqmc4k4
p5488
I1
sVd074dm9
p5489
I2
sVdjz3vvy
p5490
I1
sVd3y8lnr
p5491
I1
sVd6d1fcy
p5492
I1
sVd7r30b6
p5493
I1
sVddi76d8
p5494
I1
sVdbecsqn
p5495
I1
sVd7c3knk
p5496
I1
sVdsr7drt
p5497
I1
sVdbcngyx
p5498
I1
sVd1cymf4
p5499
I1
sVcznc8h0
p5500
I1
sVdhh1w3a
p5501
I1
sVday668i
p5502
I1
sVd62pqoa
p5503
I1
sVd29lodd
p5504
I1
sVd75vjux
p5505
I1
sVd69mq9t
p5506
I2
sVdjbw1uy
p5507
I1
sVdgm2nda
p5508
I1
sVd2a7ygm
p5509
I1
sVdpge7uk
p5510
I1
sVdjjj8ie
p5511
I1
sVd6wzj17
p5512
I1
sVdcb7ery
p5513
I1
sVd52vrjc
p5514
I1
sVd3si85x
p5515
I1
sVdipr89g
p5516
I1
sVd1g9uuo
p5517
I1
sVd84ettt
p5518
I1
sVd7593ov
p5519
I1
sVczs14zb
p5520
I1
sVdiqz0ze
p5521
I1
sVczozks4
p5522
I2
sVd03d4sk
p5523
I1
sVdedvvqz
p5524
I1
sVd05nirc
p5525
I1
sVdh3im4b
p5526
I1
sVd8se8gc
p5527
I1
sVd0d2jd3
p5528
I1
sVdbslax2
p5529
I2
sVdam6k1d
p5530
I1
sVd5q04pe
p5531
I1
sVd7uaoy1
p5532
I2
sVdho9ofo
p5533
I1
sVd1v002f
p5534
I1
sVdgyvmyl
p5535
I2
sVdcl5fga
p5536
I1
sVd245ng8
p5537
I1
sVddc37gl
p5538
I1
sVdde3tp2
p5539
I1
sVd5x94m6
p5540
I1
sVdho39tr
p5541
I1
sVdiqp8a7
p5542
I1
sVd4jystw
p5543
I1
sVd5mcajd
p5544
I2
sVd82d4ae
p5545
I1
sVd8dpo77
p5546
I1
sVd3z7wr7
p5547
I1
sVdbjr065
p5548
I1
sVcz5likg
p5549
I1
sVd5pot54
p5550
I2
sVd0slogt
p5551
I2
sVdik9so2
p5552
I1
sVd9pa59z
p5553
I1
sVd6xl47d
p5554
I1
sVd93056f
p5555
I1
sVdcpuiu0
p5556
I1
sVdhv6vpu
p5557
I1
sVd5cfi4t
p5558
I1
sVdf3lhrk
p5559
I1
sVdrvd4fq
p5560
I1
sVdjiowm1
p5561
I1
sVdi03y4k
p5562
I1
sVczc9z9g
p5563
I1
sVcz4okpf
p5564
I3
sVdi5tn7j
p5565
I1
sVd3i3u2c
p5566
I1
sVdgaznnc
p5567
I1
sVddzelg0
p5568
I2
sVdqftp4e
p5569
I1
sVdd1yji5
p5570
I1
sVdif98eb
p5571
I1
sVcz33e9g
p5572
I1
s.