(dp0
Vcyhzuz7
p1
I1
s.(dp0
Vcyhzuz7
p1
I2
s.(dp0
Vcyhzuz7
p1
I1
sVcyi67wo
p2
I1
s.(dp0
Vcyhzuz7
p1
I1
sVcyi67wo
p2
I1
s.(dp0
Vcyhzuz7
p1
I1
sVcyi83uc
p2
I1
s.(dp0
Vcyhzuz7
p1
I1
sVcyif314
p2
I1
s.(dp0
Vcyhzuz7
p1
I1
sVcyion75
p2
I1
s.(dp0
Vcyhzuz7
p1
I1
sVcyisaf1
p2
I1
s.(dp0
Vcyivhr2
p1
I1
sVcyhzuz7
p2
I1
s.(dp0
Vcyhzuz7
p1
I1
sVcyj24pa
p2
I1
s.(dp0
Vcyhzuz7
p1
I1
sVcyj493i
p2
I1
s.(dp0
Vcyhzuz7
p1
I1
sVcyj56fr
p2
I1
s.(dp0
Vcyjdabr
p1
I1
sVcyhzuz7
p2
I1
s.(dp0
Vcyhzuz7
p1
I1
sVcyjp5yv
p2
I1
s.(dp0
Vcyk86sc
p1
I1
sVcyhzuz7
p2
I1
s.(dp0
Vcykaequ
p1
I1
sVcyhzuz7
p2
I1
s.(dp0
Vcyhzuz7
p1
I1
sVcyktkve
p2
I1
s.(dp0
Vcyhzuz7
p1
I1
sVcyktywf
p2
I1
s.(dp0
Vcylazau
p1
I1
sVcyhzuz7
p2
I1
s.(dp0
Vcyhzuz7
p1
I1
sVcylzqp7
p2
I1
s.(dp0
Vcyhzuz7
p1
I1
sVcym0bul
p2
I1
s.(dp0
Vcyhzuz7
p1
I1
sVcym4aos
p2
I1
s.(dp0
Vcyhzuz7
p1
I1
sVcym9twe
p2
I1
s.(dp0
Vcyhzuz7
p1
I1
sVcymck4f
p2
I1
s.(dp0
Vcyhzuz7
p1
I1
sVcymf73u
p2
I1
s.(dp0
Vcyhzuz7
p1
I1
sVcyn3or4
p2
I1
s.(dp0
Vcyhzuz7
p1
I1
sVcynac01
p2
I1
s.(dp0
Vcyhzuz7
p1
I1
sVcynqbp3
p2
I1
s.(dp0
Vcyhzuz7
p1
I1
sVcynqbp3
p2
I1
s.(dp0
Vcyhzuz7
p1
I1
sVcyocqzx
p2
I1
s.(dp0
Vcyhzuz7
p1
I1
sVcyolz4p
p2
I1
s.(dp0
Vcyhzuz7
p1
I1
sVcyontmn
p2
I1
s.(dp0
Vcyhzuz7
p1
I1
sVcyor47l
p2
I1
s.(dp0
Vcyhzuz7
p1
I1
sVcyp0d15
p2
I1
s.(dp0
Vcyhzuz7
p1
I1
sVcyp3f90
p2
I1
s.(dp0
Vcyhzuz7
p1
I1
sVcyp3f90
p2
I1
s.(dp0
Vcyhzuz7
p1
I1
sVcypmi8t
p2
I1
s.(dp0
Vcyhzuz7
p1
I1
sVcypsp64
p2
I1
s.(dp0
Vcyhzuz7
p1
I1
sVcypsp64
p2
I1
s.(dp0
Vcyhzuz7
p1
I1
sVcyq3r3d
p2
I1
s.(dp0
Vcyr8vpk
p1
I1
sVcyhzuz7
p2
I1
s.(dp0
Vcyhzuz7
p1
I1
sVcyrti14
p2
I1
s.(dp0
Vcyhzuz7
p1
I1
sVcyrwogq
p2
I1
s.(dp0
Vcysnthf
p1
I1
sVcyhzuz7
p2
I1
s.(dp0
Vcyhzuz7
p1
I1
sVcysro2q
p2
I1
s.(dp0
Vcyhzuz7
p1
I1
sVcyt5qb4
p2
I1
s.(dp0
Vcyhzuz7
p1
I1
sVcytg5hy
p2
I1
s.(dp0
Vcyhzuz7
p1
I1
sVcyuefuo
p2
I1
s.(dp0
Vcyhzuz7
p1
I1
sVcyuj0hr
p2
I1
s.(dp0
Vcyhzuz7
p1
I1
sVcyuu020
p2
I1
s.(dp0
Vcyhzuz7
p1
I1
sVcyv4lv2
p2
I1
s.(dp0
Vcyhzuz7
p1
I1
sVcyv7cbq
p2
I1
s.(dp0
Vcyhzuz7
p1
I1
sVcyvar6q
p2
I1
s.(dp0
Vcyhzuz7
p1
I1
sVcyvh4ei
p2
I1
s.(dp0
Vcyvu5bq
p1
I1
sVcyhzuz7
p2
I1
s.(dp0
Vcyhzuz7
p1
I1
sVcyvvrvj
p2
I1
s.(dp0
Vcyhzuz7
p1
I1
sVcyvvuz1
p2
I1
s.(dp0
Vcyhzuz7
p1
I1
sVcyw3ht4
p2
I1
s.(dp0
Vcyhzuz7
p1
I1
sVcyw8sq3
p2
I1
s.(dp0
Vcyhzuz7
p1
I1
sVcywe9he
p2
I1
s.(dp0
Vcyhzuz7
p1
I1
sVcywjf5d
p2
I1
s.(dp0
Vcyhzuz7
p1
I1
sVcywrm5b
p2
I1
s.(dp0
Vcyhzuz7
p1
I1
sVcyx00qv
p2
I1
s.(dp0
Vcyhzuz7
p1
I1
sVcyxkfbu
p2
I1
s.(dp0
Vcyhzuz7
p1
I1
sVcyxqb0q
p2
I1
s.(dp0
Vcyhzuz7
p1
I1
sVcyxwqpx
p2
I1
s.(dp0
Vcyhzuz7
p1
I1
sVcyy3ls8
p2
I1
s.(dp0
Vcyhzuz7
p1
I1
sVcyyemn8
p2
I1
s.(dp0
Vcyhzuz7
p1
I1
sVcyz3jy8
p2
I1
s.(dp0
Vcyhzuz7
p1
I1
sVcyz5184
p2
I1
s.(dp0
Vcyhzuz7
p1
I1
sVcyzr666
p2
I1
s.(dp0
Vcyhzuz7
p1
I1
sVcyzs57g
p2
I1
s.(dp0
Vcyzti9k
p1
I1
sVcyhzuz7
p2
I1
s.(dp0
Vcyhzuz7
p1
I1
sVcz0jb0e
p2
I1
s.(dp0
Vcyhzuz7
p1
I1
sVcz10zvv
p2
I1
s.(dp0
Vcyhzuz7
p1
I1
sVcz16n15
p2
I1
s.(dp0
Vcyhzuz7
p1
I1
sVcz1gs7w
p2
I1
s.(dp0
Vcz1kgej
p1
I1
sVcyhzuz7
p2
I1
s.(dp0
Vcz1ofn2
p1
I1
sVcyhzuz7
p2
I1
s.(dp0
Vcyhzuz7
p1
I1
sVcz26p9y
p2
I1
s.(dp0
Vcyhzuz7
p1
I1
sVcz26t74
p2
I1
s.(dp0
Vcyhzuz7
p1
I1
sVcz27u02
p2
I1
s.(dp0
Vcz2m0va
p1
I1
sVcyhzuz7
p2
I1
s.(dp0
Vcyhzuz7
p1
I1
sVcz2ngd5
p2
I1
s.(dp0
Vcyhzuz7
p1
I1
sVcz2qtyw
p2
I1
s.(dp0
Vcyhzuz7
p1
I1
sVcz2qtyw
p2
I1
s.(dp0
Vcyhzuz7
p1
I1
sVcz2rzql
p2
I1
s.(dp0
Vcyhzuz7
p1
I1
sVcz2w8ul
p2
I1
s.(dp0
Vcz30rhg
p1
I1
sVcyhzuz7
p2
I1
s.(dp0
Vcyhzuz7
p1
I1
sVcz3l491
p2
I1
s.(dp0
Vcyhzuz7
p1
I1
sVcz3nft7
p2
I1
s.(dp0
Vcyhzuz7
p1
I1
sVcz3nft7
p2
I1
s.(dp0
Vcyhzuz7
p1
I1
sVcz3tamm
p2
I1
s.(dp0
Vcyhzuz7
p1
I1
sVcz3xffu
p2
I1
s.(dp0
Vcyhzuz7
p1
I1
sVcz45kid
p2
I1
s.(dp0
Vcyhzuz7
p1
I1
sVcz4bvzg
p2
I1
s.(dp0
Vcyhzuz7
p1
I1
sVcz4hvqe
p2
I1
s.(dp0
Vcyhzuz7
p1
I1
sVcz4hyop
p2
I1
s.(dp0
Vcyhzuz7
p1
I1
sVcz4ops2
p2
I1
s.(dp0
Vcyhzuz7
p1
I1
sVcz4t97t
p2
I1
s.(dp0
Vcyhzuz7
p1
I1
sVcz52zqe
p2
I1
s.(dp0
Vcyhzuz7
p1
I1
sVcz52zqe
p2
I1
s.(dp0
Vcyhzuz7
p1
I1
sVcz5885z
p2
I1
s.(dp0
Vcyhzuz7
p1
I1
sVcz5885z
p2
I1
s.(dp0
Vcyhzuz7
p1
I1
sVcz5lrhr
p2
I1
s.(dp0
Vcyhzuz7
p1
I1
sVcz5tiot
p2
I1
s.(dp0
Vcyhzuz7
p1
I1
sVcz6lvnv
p2
I1
s.(dp0
Vcyhzuz7
p1
I1
sVcz6y2sf
p2
I1
s.(dp0
Vcz7hlrc
p1
I1
sVcy(dp0
Vdtjkd9g
p1
I1
sVcyhzuz7
p2
I1
s.