(dp0
Vdbxt6zx
p1
I1
sVd023lq4
p2
I1
sVdkypgmh
p3
I1
sVdc944mw
p4
I2
sVd0q6ndw
p5
I1
sVd81w47e
p6
I1
sVd7266cu
p7
I1
sVd4glj3g
p8
I1
sVdnyl5h0
p9
I1
sVdrvauri
p10
I1
sVcyy4pbc
p11
I1
sVcypsvn3
p12
I1
sVd35foe1
p13
I1
sVd9in985
p14
I1
sVd1zf268
p15
I1
sVdkglfiv
p16
I1
sVdbk2pv9
p17
I1
sVdjjcydg
p18
I1
sVdpksgo6
p19
I1
sVdssgozg
p20
I1
sVdrfdk50
p21
I1
sVdgw59pw
p22
I1
sVd72xl1m
p23
I1
sVd8y7jr4
p24
I1
sVczjgb7i
p25
I1
sVdrgyvpb
p26
I1
sVd1lsltm
p27
I2
sVdrh1vq2
p28
I1
sVdpoqzph
p29
I1
sVdo4w39g
p30
I1
sVcyt6n6a
p31
I1
sVdh279sy
p32
I1
sVdhfliw6
p33
I1
sVdcd7s5g
p34
I2
sVd1pdvnv
p35
I1
sVdrhfkj5
p36
I1
sVdhzg6gv
p37
I1
sVdi9kqup
p38
I1
sVd2dma6p
p39
I1
sVd3atye5
p40
I3
sVder069o
p41
I1
sVdgrc00x
p42
I1
sVdf64abb
p43
I1
sVdhjfnvd
p44
I1
sVd93lac7
p45
I1
sVcyz3rk2
p46
I1
sVd7ynzsx
p47
I1
sVd2zguho
p48
I1
sVcynhlpn
p49
I1
sVczfw9x4
p50
I1
sVdcnjzbc
p51
I1
sVdagv7by
p52
I1
sVd4z7w82
p53
I1
sVczjq9jf
p54
I1
sVdfm6ftg
p55
I1
sVcz8s96x
p56
I1
sVdqnuh7s
p57
I1
sVcz87b3c
p58
I1
s.