(dp0
Vd0l7gz8
p1
I3
sVdrv48lq
p2
I1
sVdcwjutv
p3
I1
sVd2iwg0t
p4
I1
sVddlb2cl
p5
I1
sVd26z0i9
p6
I1
sVd0j2lgj
p7
I1
sVde4i5ph
p8
I1
sVdp3tpiu
p9
I1
sVdeuhpr9
p10
I1
sVd1baqdg
p11
I1
sVd87fkgh
p12
I4
sVd666dyw
p13
I1
sVd6s78on
p14
I1
sVdakvhxj
p15
I1
sVdby1n2f
p16
I3
sVdrz7nw6
p17
I5
sVdp1i9xy
p18
I2
sVd0ofor5
p19
I1
sVd2oucha
p20
I1
sVdb9gbkt
p21
I1
sVdap8t5l
p22
I1
sVder0e88
p23
I1
sVd27bcab
p24
I1
sVdgore4j
p25
I1
sVdq0jykg
p26
I1
sVd8coubo
p27
I1
sVdtfxwrd
p28
I1
sVd2fojn5
p29
I1
sVdqko2i5
p30
I1
sVd32qw8g
p31
I1
sVd5mijxa
p32
I6
sVcyq533x
p33
I1
sVdby1bef
p34
I1
sVcyt4k4q
p35
I1
sVd3k8pk2
p36
I5
sVdfonh72
p37
I1
sVd51qotm
p38
I1
sVdnko2i6
p39
I3
sVcz2xt14
p40
I3
sVdqjflyq
p41
I1
sVd4fkyy9
p42
I2
sVd36nwiq
p43
I2
sVdeu6u0z
p44
I1
sVd7z59t0
p45
I1
sVdqjjju2
p46
I5
sVdcko7k1
p47
I1
sVdqjmdl1
p48
I1
sVd0p4zj1
p49
I1
sVd0yllgb
p50
I1
sVd28xcek
p51
I1
sVdmpin7i
p52
I1
sVdmrim7v
p53
I1
sVdhhdvqa
p54
I1
sVdhrmpft
p55
I1
sVd43baom
p56
I4
sVdfgtv16
p57
I2
sVdexho62
p58
I1
sVdpmjf4z
p59
I1
sVdg7foxz
p60
I1
sVd9ngdc1
p61
I1
sVd9t3v5a
p62
I1
sVd05zqvu
p63
I1
sVdftsa9z
p64
I1
sVdefsepg
p65
I1
sVdqvwxdp
p66
I1
sVdaieo8n
p67
I1
sVdbyvqwx
p68
I1
sVd0ojzd7
p69
I2
sVd5rr8yg
p70
I4
sVdfxpbmb
p71
I1
sVcynr7vq
p72
I1
sVd4vmo41
p73
I1
sVdfe32rg
p74
I1
sVdkvrvk0
p75
I1
sVd6yb1d7
p76
I1
sVdira81m
p77
I1
sVdp8n9eh
p78
I2
sVdqqbi6b
p79
I1
sVd0dwkri
p80
I1
sVd838z8d
p81
I1
sVdan1y6f
p82
I1
sVdi7q9th
p83
I1
sVd7gyd5v
p84
I3
sVdn1q1j1
p85
I2
sVd9xb23r
p86
I1
sVdb8fp0q
p87
I1
sVdo3d2km
p88
I1
sVd2ft4n8
p89
I2
sVd82pc4s
p90
I1
sVdqumk1e
p91
I1
sVd2g4r8m
p92
I1
sVdrylvjw
p93
I7
sVdjy3jtr
p94
I1
sVd7ginz9
p95
I1
sVdeixhe2
p96
I1
sVdr5fq9x
p97
I1
sVdmeywyq
p98
I1
sVdpj575y
p99
I4
sVdpmfzeq
p100
I2
sVd7rqj0a
p101
I1
sVdk5u75j
p102
I1
sVd6od06a
p103
I2
sVdn6onnm
p104
I1
sVdbvwinx
p105
I1
sVd21bm82
p106
I1
sVdoazrmm
p107
I2
sVd23w654
p108
I1
sVd2zqw1r
p109
I1
sVdmpd65f
p110
I1
sVdnxzmcj
p111
I2
sVdgbgmar
p112
I3
sVd6ksaec
p113
I1
sVd37an3t
p114
I1
sVd5wzha1
p115
I1
sVd6kxe0b
p116
I1
sVdaam5az
p117
I1
sVd6s94x6
p118
I1
sVd2siwu9
p119
I1
sVdfghyv0
p120
I1
sVde2nhjk
p121
I1
sVd8hfddm
p122
I1
sVd91xxpe
p123
I4
sVd2a5opb
p124
I1
sVdqauqtb
p125
I1
sVd5fljuk
p126
I2
sVd7bcywe
p127
I1
sVd1d9jnn
p128
I1
sVd374yqp
p129
I1
sVczv0949
p130
I3
sVdgfl4wp
p131
I1
sVdn814r8
p132
I1
sVdjkg2xp
p133
I1
sVd5t32rt
p134
I1
sVd64zk8o
p135
I1
sVd3edj6r
p136
I1
sVcznxe7j
p137
I4
sVdpt53ya
p138
I1
sVdrgrtma
p139
I1
sVdo5hb54
p140
I1
sVdgsm77r
p141
I1
sVd123em9
p142
I1
sVd49fq6u
p143
I1
sVd6d0e82
p144
I5
sVd4ijm32
p145
I1
sVcyi4yhx
p146
I1
sVd7ydajw
p147
I3
sVdqgvmfj
p148
I1
sVd3vv6hi
p149
I1
sVdapyd6u
p150
I2
sVdbiln2w
p151
I1
sVdk0ygt1
p152
I1
sVdq6k0fw
p153
I1
sVdqjgb4m
p154
I4
sVdoya84u
p155
I2
sVd21bcju
p156
I1
sVd3djiaj
p157
I1
sVdi0t1xl
p158
I1
sVdoxftj8
p159
I1
sVd1ewx3c
p160
I1
sVdh0f11d
p161
I2
sVd7ibps5
p162
I1
sVcz2x6y1
p163
I1
sVdqk6u05
p164
I4
sVd0d4nws
p165
I1
sVd3nn8xa
p166
I1
sVd2b2una
p167
I1
sVdd7lenr
p168
I1
sVd8j7da5
p169
I1
sVd66oy9v
p170
I1
sVdojwip1
p171
I1
sVdcfcfuo
p172
I1
sVdg2kuqt
p173
I1
sVdfe1wnz
p174
I1
sVd0r3vfp
p175
I1
sVd0vcsvj
p176
I1
sVdqjycp6
p177
I6
sVd8c2zes
p178
I1
sVd6x1p7z
p179
I1
sVd07h60t
p180
I1
sVd123gzn
p181
I1
sVd4ng4s2
p182
I1
sVdpj8p12
p183
I3
sVdnyfbfu
p184
I2
sVd5fahjy
p185
I1
sVddjebbe
p186
I2
sVd2oszmb
p187
I2
sVdqsp5wb
p188
I1
sVdb0nhvd
p189
I1
sVd3vvm5k
p190
I1
sVd3xur4k
p191
I2
sVdepjgm7
p192
I1
sVdhw8mjm
p193
I1
sVd38wn2s
p194
I1
sVddk5oqa
p195
I2
sVdabzvfk
p196
I1
sVdd4vd9t
p197
I1
sVds2fu5i
p198
I3
sVdgocjee
p199
I1
sVdo61qph
p200
I1
sVd883gfw
p201
I1
sVdf15gyw
p202
I2
sVcyygl96
p203
I1
sVd2diudv
p204
I1
sVdb4ob6m
p205
I1
sVdh642pz
p206
I1
sVddpej6z
p207
I1
sVd0z91h6
p208
I1
sVdnkqqrd
p209
I1
sVdcon1la
p210
I1
sVdqkzcig
p211
I1
sVdbpg8nx
p212
I1
sVd2ftj5s
p213
I1
sVdows4tq
p214
I1
sVdadl9x6
p215
I1
sVd29zl97
p216
I1
sVdcp54sn
p217
I1
sVds2q3nd
p218
I1
sVd0l4zas
p219
I2
sVd13xayu
p220
I3
sVd87k9cz
p221
I1
sVd7ay85v
p222
I1
sVd4fl5qe
p223
I1
sVdju0wdt
p224
I1
sVde5psov
p225
I1
sVdkbkted
p226
I1
sVd9j0lsf
p227
I1
sVd72lzqf
p228
I2
sVdiphsf1
p229
I1
sVdqc1nm1
p230
I2
sVdcc8r18
p231
I1
sVcyu32rj
p232
I1
sVdojbj4j
p233
I1
sVds3n2xr
p234
I1
sVde4yd06
p235
I1
sVdqph5uf
p236
I1
sVd97y86h
p237
I1
sVd7qcbgn
p238
I1
sVd8q10up
p239
I1
sVczuyq81
p240
I4
sVd734fnr
p241
I1
sVd9gux9s
p242
I1
sVd3udzwg
p243
I1
sVdnf0626
p244
I1
sVd3nn3yc
p245
I1
sVd7jnhfu
p246
I1
sVdqk6hek
p247
I2
sVdddxnpo
p248
I1
sVd0lsijo
p249
I1
sVdelu9kx
p250
I2
sVdbm7fso
p251
I1
sVdn4pva8
p252
I1
sVdc8ogpa
p253
I1
sVd4o32d0
p254
I1
sVczmr030
p255
I1
sVdo7l7xt
p256
I1
sVd9m9dzn
p257
I1
sVd0xi47y
p258
I1
sVd9gmx35
p259
I1
sVd30idcn
p260
I1
sVdb86f5s
p261
I4
sVd5orfis
p262
I1
sVd71pxvk
p263
I1
sVdiw7wcx
p264
I1
sVd1t42er
p265
I1
sVdk3iqzy
p266
I1
sVdrug0s0
p267
I1
sVcywlnnb
p268
I1
sVd348tdy
p269
I1
sVdir617l
p270
I2
sVdjf7a4q
p271
I1
sVdb71jwm
p272
I1
sVdgwhmt0
p273
I2
sVdfkaosp
p274
I2
sVd8srlr3
p275
I1
sVd0kmc6w
p276
I1
sVd7u0ev6
p277
I2
sVdgf913a
p278
I2
sVd6gf2sw
p279
I1
sVd9viyad
p280
I1
sVd3af61f
p281
I1
sVdqy7wrk
p282
I2
sVd1mb4ml
p283
I2
sVddodk7j
p284
I1
sVd4vnfg0
p285
I1
sVd5wfpz1
p286
I3
sVd9vp4e8
p287
I1
sVdrgis0t
p288
I1
sVdqjkb9u
p289
I2
sVd4vmyz9
p290
I1
sVd88a6iq
p291
I1
sVd43e8vp
p292
I1
sVdk3fja3
p293
I1
sVdd66jbq
p294
I1
sVczvgsw1
p295
I1
sVdaxl54y
p296
I1
sVds05itq
p297
I1
sVdq94uoq
p298
I2
sVddhrk10
p299
I1
sVdfhn71h
p300
I1
sVdcdtmd0
p301
I3
sVdik9wsz
p302
I1
sVd23209l
p303
I1
sVdahgygy
p304
I1
sVd7i0zam
p305
I3
sVdpiz6bd
p306
I1
sVd04jki3
p307
I1
sVdftua88
p308
I1
sVds14qrp
p309
I1
sVd801xja
p310
I1
sVd2o5am1
p311
I2
sVdfaqkkr
p312
I1
sVd36rfcs
p313
I1
sVdj0oy0q
p314
I6
sVdsxr6up
p315
I1
sVddlemag
p316
I1
sVdedxjhh
p317
I1
sVd4vmftk
p318
I1
sVdi9obmc
p319
I1
sVdru74s8
p320
I1
sVdje5fcr
p321
I1
sVd1p1fq6
p322
I1
sVd2b46l9
p323
I2
sVd8u4472
p324
I1
sVd3cbjlq
p325
I1
sVd6a6heg
p326
I1
sVdeuvbqq
p327
I1
sVczed5jy
p328
I1
sVdh6ozs9
p329
I1
sVd23hi2y
p330
I1
sVd72luju
p331
I1
sVd7z9503
p332
I2
sVdhcs1ld
p333
I2
sVdcli8o7
p334
I1
sVdrx8bew
p335
I2
sVd5x7rck
p336
I1
sVdfe31p6
p337
I1
sVd3hes62
p338
I1
sVd36kht2
p339
I2
sVdqgmnpn
p340
I1
sVdgfk19m
p341
I1
sVdjl3y9y
p342
I1
sVd3zh12c
p343
I1
sVdbwbi9s
p344
I1
sVdd1vlfc
p345
I1
sVd3s4eqw
p346
I2
sVd493tj3
p347
I1
sVd72ll2n
p348
I1
sVcyvpidb
p349
I1
sVcz3080v
p350
I3
sVdnplywe
p351
I1
sVd5p11mt
p352
I1
sVdefe5mf
p353
I1
sVd84k7k3
p354
I1
sVdgtize9
p355
I1
sVdkg9yk8
p356
I1
sVd1gu10g
p357
I1
sVd737j96
p358
I1
sVdc5bjyc
p359
I4
sVdt2zlg2
p360
I2
sVd6p3nmj
p361
I1
sVdrufzq9
p362
I1
sVd61avbq
p363
I1
sVcyhuk39
p364
I1
sVd3y8tpo
p365
I1
sVd0ditx0
p366
I2
sVdhvukzi
p367
I1
sVd2k43ek
p368
I1
sVdi2a6gp
p369
I1
sVcym5nh3
p370
I1
sVd25p61t
p371
I1
sVdaa61d4
p372
I1
sVde9mjyb
p373
I1
sVd71skmb
p374
I8
sVd5cboz6
p375
I2
sVd0frmac
p376
I1
sVdsn8f0r
p377
I1
sVda1ui16
p378
I1
sVdkbuwb6
p379
I1
sVdgzdly8
p380
I1
sVd2fj1ss
p381
I1
sVdr5jwtr
p382
I1
sVd39yf9y
p383
I1
sVdgrzky1
p384
I1
sVd6bn564
p385
I1
sVd1y34ni
p386
I1
sVdsoatkr
p387
I1
sVczasbly
p388
I1
sVdg99d18
p389
I1
sVdabnkdv
p390
I1
sVdehtiuv
p391
I1
sVd7uaoy1
p392
I1
sVdkkof2z
p393
I1
sVd19o095
p394
I1
sVdj7l2fg
p395
I1
sVdf45apg
p396
I1
sVds9a722
p397
I1
sVdfe29z3
p398
I1
sVdb1x84p
p399
I1
sVd32up4p
p400
I2
sVd9dgoie
p401
I3
sVdsma7hi
p402
I6
sVdcweq0h
p403
I1
sVd0zq8mu
p404
I1
sVdpkdxgo
p405
I1
sVdqscen8
p406
I3
sVd42z2kf
p407
I1
sVdf1soyr
p408
I1
sVdep1irp
p409
I2
sVdbuyyu2
p410
I1
sVd1nmd9x
p411
I3
sVd5kdtb1
p412
I1
sVddu6u9u
p413
I1
sVd19kgic
p414
I1
sVd2mt5el
p415
I1
sVd511k2i
p416
I1
sVdk3vpr0
p417
I1
sVd3cdaw3
p418
I1
sVd8j4wfk
p419
I1
sVde9qls1
p420
I1
sVddr0yxr
p421
I1
sVd94t6u6
p422
I1
sVdqqtdrv
p423
I1
sVd0ebgxn
p424
I1
sVd37u4tn
p425
I1
sVd4gftxa
p426
I1
sVdgb5sc1
p427
I1
sVdb8fj8r
p428
I1
sVdidauxr
p429
I1
sVdir8gqk
p430
I1
sVdicw4w4
p431
I1
sVdfzpubl
p432
I1
sVcz4uy23
p433
I1
sVd1nm42m
p434
I2
sVde8f5c2
p435
I1
s.