(dp0
Vcyhtqdu
p1
I1
s.(dp0
Vcyhtqdu
p1
I2
s.(dp0
Vcyhurf6
p1
I1
sVcyhtqdu
p2
I1
s.(dp0
Vcyhtqdu
p1
I1
sVcyi2s6f
p2
I1
s.(dp0
Vcyhtqdu
p1
I1
sVcyibddw
p2
I1
s.(dp0
Vcyiisan
p1
I1
sVcyhtqdu
p2
I1
s.(dp0
Vcyhtqdu
p1
I1
sVcyil4go
p2
I1
s.(dp0
Vcyhtqdu
p1
I1
sVcyipymd
p2
I1
s.(dp0
Vcyhtqdu
p1
I1
sVcyiwsuk
p2
I1
s.(dp0
Vcyhtqdu
p1
I1
sVcyj9skh
p2
I1
s.(dp0
Vcyhtqdu
p1
I1
sVcyjhv6t
p2
I1
s.(dp0
Vcyjlozn
p1
I1
sVcyhtqdu
p2
I1
s.(dp0
Vcyjru73
p1
I1
sVcyhtqdu
p2
I1
s.(dp0
Vcyjru73
p1
I1
sVcyhtqdu
p2
I1
s.(dp0
Vcyjv7sl
p1
I1
sVcyhtqdu
p2
I1
s.(dp0
Vcyhtqdu
p1
I1
sVcyjxm4b
p2
I1
s.(dp0
Vcyk1j8n
p1
I1
sVcyhtqdu
p2
I1
s.(dp0
Vcyhtqdu
p1
I1
sVcyk7lpn
p2
I1
s.(dp0
Vcyhtqdu
p1
I1
sVcykbjzm
p2
I1
s.(dp0
Vcyhtqdu
p1
I1
sVcykc5dc
p2
I1
s.(dp0
Vcyhtqdu
p1
I1
sVcykc5dc
p2
I1
s.(dp0
Vcyhtqdu
p1
I1
sVcyki06k
p2
I1
s.(dp0
Vcyhtqdu
p1
I1
sVcyki06k
p2
I1
s.(dp0
Vcyhtqdu
p1
I1
sVcyki06k
p2
I1
s.(dp0
Vcyhtqdu
p1
I1
sVcyki06k
p2
I1
s.(dp0
Vcyhtqdu
p1
I1
sVcykj6nb
p2
I1
s.(dp0
Vcyhtqdu
p1
I1
sVcykmlpq
p2
I1
s.(dp0
Vcyhtqdu
p1
I1
sVcyn2rqy
p2
I1
s.(dp0
Vcyhtqdu
p1
I1
sVcyn3e9p
p2
I1
s.(dp0
Vcyhtqdu
p1
I1
sVcynsutn
p2
I1
s.(dp0
Vcynt59j
p1
I1
sVcyhtqdu
p2
I1
s.(dp0
Vcyhtqdu
p1
I1
sVcynuck3
p2
I1
s.(dp0
Vcynv73y
p1
I1
sVcyhtqdu
p2
I1
s.(dp0
Vcyo1h5t
p1
I1
sVcyhtqdu
p2
I1
s.(dp0
Vcyhtqdu
p1
I1
sVcyoikyo
p2
I1
s.(dp0
Vcyoko44
p1
I1
sVcyhtqdu
p2
I1
s.(dp0
Vcyhtqdu
p1
I1
sVcyq6ho7
p2
I1
s.(dp0
Vcyhtqdu
p1
I1
sVcyrz6io
p2
I1
s.(dp0
Vcysbi34
p1
I1
sVcyhtqdu
p2
I1
s.(dp0
Vcysi3t0
p1
I1
sVcyhtqdu
p2
I1
s.(dp0
Vcyhtqdu
p1
I1
sVcysp3ud
p2
I1
s.(dp0
Vcyhtqdu
p1
I1
sVcyt0b73
p2
I1
s.(dp0
Vcyhtqdu
p1
I1
sVcyt0b73
p2
I1
s.(dp0
Vcyhtqdu
p1
I1
sVcyufwzz
p2
I1
s.(dp0
Vcyhtqdu
p1
I1
sVcyujb7c
p2
I1
s.(dp0
Vcyhtqdu
p1
I1
sVcyun0qr
p2
I1
s.(dp0
Vcyv2kw4
p1
I1
sVcyhtqdu
p2
I1
s.(dp0
Vcyhtqdu
p1
I1
sVcyv95z2
p2
I1
s.(dp0
Vcyhtqdu
p1
I1
sVcyvspxw
p2
I1
s.(dp0
Vcyhtqdu
p1
I1
sVcyvvcr1
p2
I1
s.(dp0
Vcyw1cdm
p1
I1
sVcyhtqdu
p2
I1
s.(dp0
Vcyhtqdu
p1
I1
sVcyw4t27
p2
I1
s.(dp0
Vcyw5mwu
p1
I1
sVcyhtqdu
p2
I1
s.(dp0
Vcyhtqdu
p1
I1
sVcyxir1w
p2
I1
s.(dp0
Vcyhtqdu
p1
I1
sVcyynt7i
p2
I1
s.(dp0
Vcyyv109
p1
I1
sVcyhtqdu
p2
I1
s.(dp0
Vcyhtqdu
p1
I1
sVcyyykub
p2
I1
s.(dp0
Vcyz07ma
p1
I1
sVcyhtqdu
p2
I1
s.(dp0
Vcyhtqdu
p1
I1
sVcyz7zyl
p2
I1
s.(dp0
Vcyhtqdu
p1
I1
sVcyza6y2
p2
I1
s.(dp0
Vcyhtqdu
p1
I1
sVcyzctbr
p2
I1
s.(dp0
Vcyhtqdu
p1
I1
sVcz0pez3
p2
I1
s.(dp0
Vcz0qpzg
p1
I1
sVcyhtqdu
p2
I1
s.(dp0
Vcyhtqdu
p1
I1
sVcz1bcp1
p2
I1
s.(dp0
Vcyhtqdu
p1
I1
sVcz1t6j8
p2
I1
s.(dp0
Vcyhtqdu
p1
I1
sVcz1th7i
p2
I1
s.(dp0
Vcz1vpee
p1
I1
sVcyhtqdu
p2
I1
s.(dp0
Vcz1vpee
p1
I1
sVcyhtqdu
p2
I1
s.(dp0
Vcz26gtk
p1
I1
sVcyhtqdu
p2
I1
s.(dp0
Vcz2jwa7
p1
I1
sVcyhtqdu
p2
I1
s.(dp0
Vcz3cp4v
p1
I1
sVcyhtqdu
p2
I1
s.(dp0
Vcz3ltwu
p1
I1
sVcyhtqdu
p2
I1
s.(dp0
Vcyhtqdu
p1
I1
sVcz4kjss
p2
I1
s.(dp0
Vcyhtqdu
p1
I1
sVcz4sfz5
p2
I1
s.(dp0
Vcz50d21
p1
I1
sVcyhtqdu
p2
I1
s.(dp0
Vcyhtqdu
p1
I1
sVcz5a56b
p2
I1
s.(dp0
Vcyhtqdu
p1
I1
sVcz5caco
p2
I1
s.(dp0
Vcyhtqdu
p1
I1
sVcz5caco
p2
I1
s.(dp0
Vcz63b51
p1
I1
sVcyhtqdu
p2
I1
s.(dp0
Vcz6402l
p1
I1
sVcyhtqdu
p2
I1
s.(dp0
Vcz64otw
p1
I1
sVcyhtqdu
p2
I1
s.(dp0
Vcyhtqdu
p1
I1
sVcz6ant2
p2
I1
s.(dp0
Vcz6o25m
p1
I1
sVcyhtqdu
p2
I1
s.(dp0
Vcz6o25m
p1
I1
sVcyhtqdu
p2
I1
s.(dp0
Vcz75hmq
p1
I1
sVcyhtqdu
p2
I1
s.(dp0
Vcz9wdco
p1
I1
sVcyhtqdu
p2
I1
s.(dp0
Vczaqbai
p1
I1
sVcyhtqdu
p2
I1
s.(dp0
Vcyhtqdu
p1
I1
sVczas0f3
p2
I1
s.(dp0
Vczats5o
p1
I1
sVcyhtqdu
p2
I1
s.(dp0
Vczayj0f
p1
I1
sVcyhtqdu
p2
I1
s.(dp0
Vcyhtqdu
p1
I1
sVczb06i3
p2
I1
s.(dp0
Vcyhtqdu
p1
I1
sVczbfx1z
p2
I1
s.(dp0
Vcyhtqdu
p1
I1
sVczbrno7
p2
I1
s.(dp0
Vczd253b
p1
I1
sVcyhtqdu
p2
I1
s.(dp0
Vcyhtqdu
p1
I1
sVcze73w1
p2
I1
s.(dp0
Vczepcem
p1
I1
sVcyhtqdu
p2
I1
s.(dp0
Vczetzjs
p1
I1
sVcyhtqdu
p2
I1
s.(dp0
Vczf3rwz
p1
I1
sVcyhtqdu
p2
I1
s.(dp0
Vczf3rwz
p1
I1
sVcyhtqdu
p2
I1
s.(dp0
Vcyhtqdu
p1
I1
sVczffigw
p2
I1
s.(dp0
Vczgq7ob
p1
I1
sVcyhtqdu
p2
I1
s.(dp0
Vczgq7ob
p1
I1
sVcyhtqdu
p2
I1
s.(dp0
Vczgq7ob
p1
I1
sVcyhtqdu
p2
I1
s.(dp0
Vczgq7ob
p1
I1
sVcyhtqdu
p2
I1
s.(dp0
Vczgsnwo
p1
I1
sVcyhtqdu
p2
I1
s.(dp0
Vcyhtqdu
p1
I1
sVczgz8bn
p2
I1
s.(dp0
Vczh31nb
p1
I1
sVcyhtqdu
p2
I1
s.(dp0
Vczh31nb
p1
I1
sVcyhtqdu
p2
I1
s.(dp0
Vcyhtqdu
p1
I1
sVcz(dp0
Vcyhtqdu
p1
I1
sVdtffvhi
p2
I1
s.