(dp0
Vcyw8ois
p1
I1
s.(dp0
Vd25mjfl
p1
I1
sVcyw8ois
p2
I1
s.(dp0
Vd4ttu45
p1
I1
sVcyw8ois
p2
I1
s.(dp0
Vd7ux5pf
p1
I1
sVcyw8ois
p2
I1
s.(dp0
Vdbiobb7
p1
I1
sVcyw8ois
p2
I1
s.(dp0
Vdcuhnpw
p1
I1
sVcyw8ois
p2
I1
s.(dp0
Vdf1urfq
p1
I1
sVcyw8ois
p2
I1
s.(dp0
Vdsbl7ym
p1
I1
sVcyw8ois
p2
I1
s.