(dp0
Vcz2wwd3
p1
I1
sVdfewzk2
p2
I1
sVdq9zjag
p3
I1
sVd42iyhl
p4
I1
sVdjvv131
p5
I1
sVd7jaokx
p6
I1
sVded69ol
p7
I1
sVdbqnhyt
p8
I1
sVdajd7d7
p9
I3
sVd6hvfez
p10
I1
sVczxin80
p11
I2
sVdh4zh62
p12
I1
sVdjopqzv
p13
I1
sVd67v8yn
p14
I1
sVd7qzvod
p15
I1
sVdteon1f
p16
I1
sVdd2jgww
p17
I2
sVd7wl8oj
p18
I1
sVdn9lnl0
p19
I1
sVdmlpbtn
p20
I1
sVdkw2e4p
p21
I1
sVd47ncqw
p22
I1
sVd7orvb0
p23
I1
sVdso2cyn
p24
I1
sVd6tdwdc
p25
I1
sVd88g3n4
p26
I1
sVdfc3e44
p27
I2
sVczh3rf1
p28
I1
sVd9yvns0
p29
I1
sVdbewrk3
p30
I3
sVdovdegj
p31
I1
sVdiqex1v
p32
I1
sVd2o4vg3
p33
I1
sVd2ao8b3
p34
I1
sVdcezjzd
p35
I2
sVd7v65wt
p36
I1
sVd02islg
p37
I1
sVdaeoxnp
p38
I1
sVd35tn9q
p39
I1
sVdisa6f5
p40
I2
sVdce0lp2
p41
I2
sVcynazj5
p42
I1
sVd1j8fjp
p43
I1
sVd3rqsv6
p44
I1
sVd7p3tmz
p45
I2
sVdj7r4u2
p46
I1
sVdi7kkdb
p47
I1
sVdczls6h
p48
I1
sVd125jio
p49
I1
sVd00mrgi
p50
I1
sVd82a47l
p51
I1
sVdq0l1m3
p52
I1
sVdf1jgwq
p53
I2
sVd2gox1x
p54
I1
sVdimlq2x
p55
I1
sVdoe75yu
p56
I1
sVdp05syx
p57
I1
sVdn45poa
p58
I1
sVd0snoos
p59
I1
sVd0cd8e6
p60
I1
sVdataj4d
p61
I2
sVd10smqz
p62
I1
sVd1jjtnu
p63
I1
sVd3ij00h
p64
I1
sVdjkpwr3
p65
I1
sVdq3v5i8
p66
I3
sVd04xh9u
p67
I1
sVdsm7pa1
p68
I1
sVdf31g6m
p69
I1
sVdpmuvc4
p70
I1
sVdfnf1j9
p71
I2
sVczs2fhg
p72
I1
sVczs2dtk
p73
I1
sVdjtm2gm
p74
I3
sVd1hk0a7
p75
I1
sVdsxykhh
p76
I1
sVdbqstyt
p77
I2
sVczztkya
p78
I3
sVdfgo6qx
p79
I1
sVdbmw373
p80
I1
sVdqio18l
p81
I1
sVd6c8z8w
p82
I1
sVdifeb4j
p83
I1
sVd2n2q4r
p84
I1
sVdg01v3m
p85
I1
sVd37ygvc
p86
I1
sVdacerom
p87
I1
sVddlkme7
p88
I1
sVdioxir8
p89
I2
sVdc9sj0f
p90
I1
sVdd030fh
p91
I1
sVd2501v9
p92
I1
sVdqz92uv
p93
I1
sVddhft68
p94
I1
sVd44z4hu
p95
I1
sVdce0dgx
p96
I2
sVczhjlr5
p97
I1
sVd821pd8
p98
I2
sVdgq8acq
p99
I1
sVdrnye5i
p100
I1
sVdbh9704
p101
I1
sVd9yhl6j
p102
I2
sVdhheooa
p103
I3
sVdd740jw
p104
I1
sVdsm3na7
p105
I1
sVdj9l8pj
p106
I1
sVd1c6wxe
p107
I1
sVdd770xm
p108
I1
sVd03sfzx
p109
I1
sVdadiesb
p110
I1
sVdtd7x8p
p111
I1
sVd2si2o2
p112
I1
sVdcaf3k1
p113
I1
sVdd4tr95
p114
I1
sVdg2dy8b
p115
I1
sVdhzz8bk
p116
I2
sVda9lt7c
p117
I1
sVd4ja3bz
p118
I1
sVd36ydjh
p119
I1
sVdq2qe0h
p120
I1
sVd42mbdd
p121
I1
sVdac2pga
p122
I1
sVdkdybki
p123
I4
sVcyjhfhn
p124
I1
sVdfzvntc
p125
I1
sVd806ib5
p126
I1
sVdfuxoi5
p127
I1
sVczww65a
p128
I1
sVdd0q5z0
p129
I1
sVdnsqowh
p130
I1
sVda8oh31
p131
I1
sVd0zmf11
p132
I1
sVd0fkyqe
p133
I1
sVd3i0fqt
p134
I1
sVdb13zec
p135
I1
sVd965rr2
p136
I1
sVd57qjld
p137
I1
sVd48iv7a
p138
I1
sVd023lq4
p139
I1
sVd1v4dp7
p140
I1
sVdi123ea
p141
I1
sVda2per7
p142
I1
sVd4c1uva
p143
I1
sVdt6rjo8
p144
I1
sVdkygyep
p145
I1
sVdcbcdnj
p146
I1
sVdonwdtw
p147
I3
sVcyx458m
p148
I1
sVd6mkia3
p149
I1
sVdbgh4pz
p150
I1
sVd4v0c6r
p151
I1
sVdctldi3
p152
I1
sVdbn4gts
p153
I1
sVd1h4jtv
p154
I1
sVd38vtxc
p155
I1
sVddf6i49
p156
I5
sVczhyqev
p157
I1
sVd65uzoj
p158
I2
sVdba5eim
p159
I1
sVdo4hw90
p160
I1
sVdt8v8tw
p161
I2
sVddueffk
p162
I1
sVdcmn4g3
p163
I1
sVdau8z4m
p164
I1
sVdge9w2p
p165
I1
sVd25lvbd
p166
I4
sVd1byabh
p167
I1
sVd0jakie
p168
I1
sVdbgmndc
p169
I1
sVd14xmut
p170
I1
sVd8vowo1
p171
I1
sVd9427x0
p172
I1
sVd16cu97
p173
I1
sVdd39386
p174
I1
sVdr584h7
p175
I3
sVcz7dnhe
p176
I1
sVcz6n5xl
p177
I1
sVdaxga8a
p178
I2
sVddjc480
p179
I1
sVdbuzdbi
p180
I1
sVdmtmkbh
p181
I2
sVd1vb6qj
p182
I1
sVdkvw089
p183
I1
sVd566sbc
p184
I4
sVddgbcyy
p185
I1
sVd8kst3l
p186
I1
sVd37h3cj
p187
I5
sVdsqhg6o
p188
I1
sVdbh2yam
p189
I1
sVdcya6lk
p190
I1
sVd2p2b7l
p191
I1
sVdrks42k
p192
I1
sVdntkr60
p193
I1
sVdpqwc8e
p194
I1
sVd3qxi93
p195
I1
sVd3mmkwa
p196
I1
sVdam2umi
p197
I1
sVddmmzmk
p198
I1
sVd4bjrzm
p199
I1
sVdo1rbza
p200
I1
sVdr9lju3
p201
I2
sVdasch6c
p202
I1
sVd26d1n1
p203
I1
sVdt59ht7
p204
I1
sVdesgfm4
p205
I1
sVdb84rh3
p206
I1
sVd5o6ep8
p207
I1
sVdjhg8r9
p208
I1
sVdi73tgn
p209
I1
sVd857dv0
p210
I1
sVd4orro0
p211
I1
sVdemlua3
p212
I1
sVdhr2oel
p213
I1
sVdbtqkn0
p214
I1
sVdf7sa8m
p215
I1
sVdehcozy
p216
I1
sVdeoafxq
p217
I1
sVd74qx5f
p218
I1
sVdoiepqy
p219
I1
sVd7mwrzy
p220
I1
sVdj8e8cl
p221
I1
sVddcxr2m
p222
I2
sVd2elgkj
p223
I1
sVdpj75rc
p224
I1
sVdekvya5
p225
I1
sVd8ybbhc
p226
I1
sVcymzar5
p227
I3
sVdq45q0n
p228
I3
sVd6ii273
p229
I1
sVdidjjqk
p230
I1
sVd377sb7
p231
I1
sVdb3aawy
p232
I1
sVdcargbb
p233
I1
sVdbqr14v
p234
I1
sVd9ie70c
p235
I1
sVdqwictr
p236
I2
sVdegd9mh
p237
I1
sVddlszht
p238
I1
sVd844o9y
p239
I1
sVdsrn87q
p240
I1
sVdejqmjy
p241
I1
sVd1bpi07
p242
I1
sVcypmi8t
p243
I5
sVdpq1q1q
p244
I8
sVd2xlb7i
p245
I1
sVd0ahlop
p246
I1
sVd4i99ya
p247
I1
sVddx8iau
p248
I1
sVdpijjlc
p249
I1
sVd8qb79b
p250
I1
sVdg2bwyg
p251
I1
sVdbn28gn
p252
I3
sVcyk7wm1
p253
I1
sVd4gh31p
p254
I1
sVdae32af
p255
I1
sVd0j11ck
p256
I1
sVdbmyhyk
p257
I3
sVddgwl3u
p258
I1
sVdk0vyhb
p259
I1
sVd4talnd
p260
I3
sVd738yhn
p261
I1
sVd046k53
p262
I1
sVdf8trep
p263
I1
sVdaarpj2
p264
I1
sVdbnngh9
p265
I1
sVddod2t3
p266
I1
sVd6trb21
p267
I1
sVdjdg78f
p268
I1
sVd1c9fl1
p269
I1
sVdd4sogy
p270
I1
sVcymvmzl
p271
I1
sVddi7w9a
p272
I1
sVdpc0bg5
p273
I1
sVdkazicw
p274
I1
sVdghlqaz
p275
I1
sVdbvtv64
p276
I1
sVd0c7j9y
p277
I1
sVdb573vv
p278
I1
sVdinxy5f
p279
I1
sVdfuwkrt
p280
I1
sVd4r1twz
p281
I1
sVdejv3jd
p282
I1
sVdiv8ibo
p283
I1
sVd4w07vx
p284
I1
sVdnrh30x
p285
I1
sVdkf6i3m
p286
I1
sVd26uy6g
p287
I2
sVdjpermm
p288
I1
sVczksti0
p289
I1
sVdacbg85
p290
I1
sVd5fuqey
p291
I1
sVdt3jegy
p292
I1
sVd7qhwhu
p293
I1
sVdfkyy2a
p294
I1
sVddk92k5
p295
I1
sVdtg1z4z
p296
I1
sVczrf125
p297
I2
sVddigmg0
p298
I1
sVd3ko06h
p299
I1
sVczesqg8
p300
I1
sVdgtorqb
p301
I2
sVdilg018
p302
I1
sVd2o592q
p303
I1
sVd4p8fak
p304
I1
sVd47ebpf
p305
I1
sVdte13bf
p306
I1
sVczcixsh
p307
I1
sVczk5auu
p308
I1
sVdap8dwz
p309
I1
sVdn7jfch
p310
I1
sVdn72cr4
p311
I2
sVczztfzt
p312
I1
sVd2x227c
p313
I1
sVd0avody
p314
I1
sVd7rri03
p315
I1
sVd1ztfti
p316
I1
sVd1xcwcz
p317
I5
sVd78chuz
p318
I1
sVd45my7z
p319
I1
sVddjarlq
p320
I1
sVdfct837
p321
I1
sVd02m25z
p322
I1
sVdd0tafe
p323
I1
sVdd1p7ja
p324
I1
sVd02crha
p325
I1
sVd4a4q9j
p326
I2
sVds5b4ik
p327
I1
sVdnw9kxi
p328
I1
sVdhwvott
p329
I1
sVdbydngf
p330
I2
sVczm2xgr
p331
I1
sVdjso0mu
p332
I1
sVd9w05k4
p333
I2
sVd3dkn5v
p334
I2
sVd4ei0zn
p335
I1
sVd3nzj5e
p336
I1
sVdgru9tw
p337
I1
sVd85v1we
p338
I5
sVdhi0epa
p339
I1
sVd90llvk
p340
I1
sVdoza2bq
p341
I1
sVdai9nl5
p342
I1
sVdjb0qtk
p343
I1
sVdpfiy0z
p344
I1
sVd3vz83t
p345
I1
sVdjtbu7c
p346
I1
sVdbmq6fr
p347
I3
sVcz7e5hh
p348
I2
sVd2jqfhb
p349
I2
sVczb9ya5
p350
I1
sVdjhg1cs
p351
I1
sVd3750z9
p352
I1
sVd61of2g
p353
I1
sVdmjaw3b
p354
I1
sVdgj2o1q
p355
I1
sVd940be5
p356
I1
sVdh74gt0
p357
I1
sVdodpa9b
p358
I1
sVd8bywjk
p359
I1
sVdem0fz3
p360
I2
sVdhlmycj
p361
I1
sVdg9zise
p362
I1
sVd264i87
p363
I7
sVdn3lvin
p364
I1
sVdegib9d
p365
I1
sVd0kokhh
p366
I1
sVdsn6hc5
p367
I1
sVdr6wzrd
p368
I1
sVd7bcvk2
p369
I1
sVdakr2iq
p370
I1
sVd31ltcs
p371
I1
sVdbcdrhn
p372
I1
sVdcmnmp9
p373
I1
sVd4gabzv
p374
I2
sVd4qo7ie
p375
I2
sVd1z43tu
p376
I1
sVdbxhdbb
p377
I1
sVdkca4m3
p378
I3
sVd172whx
p379
I1
sVd3e2jgz
p380
I1
sVdisxug8
p381
I1
sVdawgtys
p382
I1
sVdefe5mf
p383
I2
sVd3q8qww
p384
I1
sVdqp37c8
p385
I1
sVd8eb0op
p386
I1
sVdg0daih
p387
I1
sVd4jma4z
p388
I1
sVd9cpzle
p389
I1
sVd20qdo6
p390
I1
sVdicqoei
p391
I1
sVddizu4x
p392
I1
sVd0huf62
p393
I1
sVdk2czyu
p394
I1
sVdifbc7m
p395
I1
sVd17vdav
p396
I1
sVczn78ig
p397
I1
sVd5x7rck
p398
I1
sVd0f6x39
p399
I3
sVdd28yc4
p400
I1
sVczqn92x
p401
I1
sVdkn1scr
p402
I1
sVdo6mn90
p403
I1
sVd3zmvmj
p404
I1
sVdc92evy
p405
I1
sVds24y40
p406
I1
sVdd8wnju
p407
I1
sVdav70w9
p408
I1
sVd0t24ua
p409
I1
sVdeugrj8
p410
I1
sVdd8bi4h
p411
I1
sVdcbe0h2
p412
I1
sVczb45d0
p413
I1
sVdjwvdg3
p414
I2
sVd2ehu62
p415
I1
sVdbffu87
p416
I1
sVcztjcnv
p417
I2
sVdejbdk3
p418
I5
sVd2hn6b0
p419
I1
sVd0dxtsb
p420
I1
sVdbltkel
p421
I1
sVdh38ird
p422
I1
sVdbmv5xj
p423
I1
sVdk0t526
p424
I1
sVdk0tmuj
p425
I1
sVd561zcf
p426
I1
sVd94cw8o
p427
I2
sVd2479op
p428
I1
sVddtk2jx
p429
I1
sVdnv7cqc
p430
I1
sVdghjcxj
p431
I1
sVdjoo7os
p432
I1
sVdmm2ew1
p433
I1
sVd06w970
p434
I3
sVd1dhbrt
p435
I4
sVdkujkba
p436
I1
sVdb0m5sk
p437
I1
sVd6zmxe5
p438
I1
sVdiicqmb
p439
I1
sVd0e6a79
p440
I1
sVdci9w9o
p441
I1
sVdeh1xav
p442
I3
sVd595dab
p443
I1
sVdeog6vq
p444
I1
sVdmmsjve
p445
I1
sVcysxuon
p446
I1
sVdi0tr7b
p447
I1
sVdhvhcke
p448
I1
sVddl3bhc
p449
I1
sVdh0lkdo
p450
I1
sVdcizvhn
p451
I1
sVdb3l5c2
p452
I1
sVczxnwan
p453
I1
sVdbe6mi0
p454
I1
sVdio1r2u
p455
I1
sVdjhvr38
p456
I1
sVdc9ftr9
p457
I1
sVde5z4zi
p458
I1
sVd2jj8oq
p459
I1
sVd24zysm
p460
I1
sVd6jbtv7
p461
I3
sVdfxigx7
p462
I1
sVdp6wh3c
p463
I1
sVdr7cq5b
p464
I1
sVd0l5ftx
p465
I1
sVd9zwh8d
p466
I1
sVd7z9150
p467
I1
sVd4fb6fm
p468
I3
sVdemvbfa
p469
I1
sVcyljbud
p470
I1
sVdt2b1ja
p471
I1
sVdhd4au5
p472
I1
sVdcajjbd
p473
I2
sVd9ydsos
p474
I1
sVdo432op
p475
I1
sVdfzb4iu
p476
I2
sVd1ozf8m
p477
I1
sVd3fiwwo
p478
I1
sVdbn05yv
p479
I2
sVdex8nfk
p480
I1
sVd9182to
p481
I1
sVd1soi4z
p482
I1
sVdobmx8f
p483
I1
sVd0q0azd
p484
I1
sVdj41ilm
p485
I1
sVdj4u4hs
p486
I1
sVdbw1ro0
p487
I1
sVdd305ly
p488
I1
sVd9fj412
p489
I2
sVdi0kd85
p490
I1
sVdc5n4a3
p491
I1
sVdrsxmdn
p492
I1
sVdekyab1
p493
I1
sVds9mo5i
p494
I1
sVd4pugv5
p495
I1
sVd3138lw
p496
I1
sVdqb4cvu
p497
I1
sVddllada
p498
I1
sVd285etm
p499
I1
sVdeco9aj
p500
I1
sVdbgqivl
p501
I1
sVdam8qc6
p502
I2
sVd9yeoeo
p503
I1
sVd581t4j
p504
I1
sVddtdlqf
p505
I1
sVd51srtt
p506
I1
sVdgfet28
p507
I1
sVcyz1gxr
p508
I1
sVd0org9v
p509
I1
sVdafur1m
p510
I1
sVdkpxm02
p511
I1
sVczswaae
p512
I1
sVdc8xngw
p513
I1
sVdni6di6
p514
I1
sVdq1196u
p515
I3
sVd5f4ojj
p516
I2
sVd21f7wl
p517
I1
sVdgs1km5
p518
I7
sVdck8mk1
p519
I1
sVd15qhgb
p520
I1
sVd3zqu89
p521
I1
sVdqg03m3
p522
I3
sVddh7xs2
p523
I2
sVd6jnmkt
p524
I2
sVdej0lot
p525
I1
sVd7yimzr
p526
I1
sVdnvpxp8
p527
I1
sVdnjd1zy
p528
I1
sVd7qwtf8
p529
I1
sVd37np5y
p530
I1
sVdg97pm0
p531
I1
sVd3jn7rz
p532
I1
sVcykvzjh
p533
I2
sVdd6w1ja
p534
I2
sVd9kgf9m
p535
I2
sVczwb93t
p536
I1
sVd7xbw8e
p537
I1
sVczymgry
p538
I1
sVdp0cvot
p539
I2
sVdjrsp8l
p540
I1
sVdioy7d9
p541
I1
sVdegasj5
p542
I1
sVdcak2k2
p543
I1
sVdt7wnmj
p544
I1
sVdk20x5l
p545
I1
sVdeounhf
p546
I2
sVd6hoorn
p547
I1
sVd2tt7az
p548
I2
sVdrwq0ev
p549
I1
sVd7pb80q
p550
I1
sVcyo57uv
p551
I1
sVdj8buyw
p552
I1
sVd97c9c7
p553
I3
sVd37lwce
p554
I1
sVd8xsz1h
p555
I2
sVdcgxtow
p556
I1
sVdds2ki1
p557
I1
sVdrfuda7
p558
I1
sVdomtysh
p559
I2
sVd095roh
p560
I1
sVd5qeow7
p561
I1
sVd7lt1vt
p562
I3
sVd5redtv
p563
I1
sVdiijlvd
p564
I1
sVd297rfs
p565
I1
sVdgov55u
p566
I1
sVdsyl9ll
p567
I2
sVdqq3v41
p568
I1
sVdbo7p51
p569
I1
sVdt86xfm
p570
I3
sVcyrip9k
p571
I1
sVczuryer
p572
I1
sVczn6rzx
p573
I1
sVdft0l4f
p574
I1
sVd1rukb6
p575
I1
sVdkqzvzj
p576
I1
sVdcdb2gg
p577
I1
sVdr921jh
p578
I2
sVd6ktiws
p579
I1
sVdc8xpev
p580
I2
sVdaqi9sg
p581
I1
sVd5qc7us
p582
I1
sVd3rqj54
p583
I1
sVdogrutg
p584
I1
sVd1nqeh7
p585
I1
sVdafyj6y
p586
I1
sVcyy1sso
p587
I1
sVdhcpp5r
p588
I1
sVdcujl8i
p589
I1
sVdea6cd7
p590
I1
sVdfsd1fn
p591
I1
sVdrdb53o
p592
I1
sVdd4oz73
p593
I1
sVd25bvpl
p594
I1
sVdfr72u7
p595
I1
sVczsrvch
p596
I1
sVdft2kl6
p597
I1
sVdira4b8
p598
I1
sVdinnx9i
p599
I1
sVdd6g4zi
p600
I1
sVd159fzm
p601
I1
sVd14dbqp
p602
I1
sVd5j8p0q
p603
I1
sVdbr3ioq
p604
I1
sVdj4s7yw
p605
I1
sVd0lr7m5
p606
I1
sVd3as3n7
p607
I1
sVdqgi42o
p608
I5
sVd7gseml
p609
I1
sVcz1l5yh
p610
I1
sVddqps6w
p611
I1
sVdh4fz0t
p612
I1
sVdiz8xcr
p613
I3
sVddoemh0
p614
I1
sVd15l2th
p615
I1
sVd3cicrs
p616
I1
sVd2072ku
p617
I1
sVdn1ndsx
p618
I2
sVdcb2np8
p619
I1
sVdcv86y6
p620
I1
sVdsyw8i6
p621
I4
sVdgpb6wg
p622
I1
sVdjapdu6
p623
I1
sVdb7djcc
p624
I1
sVdgq0m0i
p625
I1
sVdjml9v3
p626
I1
sVd94ykow
p627
I1
sVdt1736f
p628
I2
sVd2tnubd
p629
I1
sVdgc7b2y
p630
I1
sVd2v26a2
p631
I2
sVcymbkov
p632
I1
sVd17fulg
p633
I4
sVdhznwz8
p634
I1
sVd5e5p8b
p635
I1
sVdjz6bws
p636
I2
sVd562vqr
p637
I1
sVdf8ofnw
p638
I1
sVczdjunt
p639
I1
sVddnbuwo
p640
I1
sVdc6n0vh
p641
I1
sVdkgg5mp
p642
I1
sVdb7fhid
p643
I1
sVcytr9xx
p644
I1
sVd6xajle
p645
I1
sVczeemms
p646
I2
sVdejsc8f
p647
I1
sVd1b0uqx
p648
I1
sVd543bhm
p649
I1
sVd0hl3it
p650
I2
sVd4o3mdp
p651
I1
sVdce0ip1
p652
I1
sVdcntrh9
p653
I3
sVdhvdhog
p654
I1
sVdnuxvm9
p655
I1
sVd8bpw2v
p656
I1
sVd6vf75j
p657
I2
sVdf4bc1v
p658
I1
sVdkr23a0
p659
I1
sVdt7qquc
p660
I1
sVdny44hy
p661
I1
sVdeghaep
p662
I1
sVdba32my
p663
I1
sVdq92icq
p664
I1
sVd9re3f3
p665
I1
sVdkm9s1u
p666
I1
sVdks9daj
p667
I1
sVd9vkkmz
p668
I1
sVdgcp650
p669
I1
sVczbb3cf
p670
I1
sVd7kyrbw
p671
I1
sVd22xcjr
p672
I3
sVdbt7k1g
p673
I1
sVddbkzvt
p674
I2
sVd7ls5go
p675
I2
sVd7j6zke
p676
I1
sVdfq96nb
p677
I1
sVdafzsvk
p678
I2
sVdezj7qw
p679
I1
sVd2siwu9
p680
I1
sVdemv9zy
p681
I1
sVczyuyre
p682
I1
sVdbaokp8
p683
I1
sVdfyswid
p684
I2
sVczk3xlu
p685
I1
sVd0xkhyo
p686
I1
sVd1lw2df
p687
I1
sVda536j4
p688
I1
sVczbzmh1
p689
I1
sVdih8x29
p690
I1
sVdhvd8kx
p691
I1
sVd999kit
p692
I1
sVdh7b5yg
p693
I1
sVd6z9n2m
p694
I3
sVd6uv2rm
p695
I1
sVdb6szyx
p696
I1
sVcyugx5y
p697
I1
sVd73bxut
p698
I1
sVdguvnhd
p699
I3
sVdbf44wz
p700
I1
sVd9p3uzl
p701
I2
sVdel2y9o
p702
I1
sVdklvtdr
p703
I1
sVd0s4h9a
p704
I1
sVdmj24i2
p705
I2
sVdglhsna
p706
I1
sVd6fvzra
p707
I1
sVd0yhrwr
p708
I1
sVdgkkid9
p709
I1
sVd5ufoi6
p710
I1
sVdh3s519
p711
I1
sVdbomqk3
p712
I1
sVdatpmyi
p713
I1
sVdbykzt6
p714
I1
sVd19ikcz
p715
I1
sVdtjgapd
p716
I1
sVcz6u1fz
p717
I1
sVdk68xnq
p718
I1
sVdhfxsfh
p719
I3
sVdcw4b86
p720
I1
sVd8krpcu
p721
I1
sVdj7lng6
p722
I1
sVdeo91nw
p723
I1
sVcyjufq6
p724
I1
sVd00d09k
p725
I1
sVderoc66
p726
I1
sVdhcubki
p727
I1
sVdi7gpff
p728
I1
sVd0db6dr
p729
I1
sVd9boils
p730
I1
sVdjapvez
p731
I1
sVdg92mg1
p732
I1
sVd29ukzm
p733
I1
sVdtas91d
p734
I2
sVd3lqlbv
p735
I1
sVdou7i2y
p736
I1
sVd088e8o
p737
I2
sVdr5f3xz
p738
I1
sVd5qvucw
p739
I2
sVczxcvh4
p740
I2
sVczafyqq
p741
I1
sVd2qfp80
p742
I1
sVd4912hh
p743
I2
sVd67jwrt
p744
I1
sVdnvknev
p745
I1
sVdbmxp14
p746
I1
sVdbvogb9
p747
I2
sVdfrdma5
p748
I2
sVdcpuiih
p749
I1
sVdq1w2uh
p750
I1
sVd9ub9a9
p751
I1
sVczdydf1
p752
I1
sVdg3k132
p753
I1
sVd1boe34
p754
I1
sVddhjtop
p755
I1
sVd33vvit
p756
I1
sVd1qsjk6
p757
I1
sVdno3h3l
p758
I1
sVd2fl73i
p759
I1
sVde6qket
p760
I1
sVd0ko14u
p761
I1
sVdejo8ir
p762
I1
sVd630cpu
p763
I4
sVdkhqswa
p764
I1
sVdelm63v
p765
I2
sVd28whun
p766
I1
sVdkfxkjs
p767
I1
sVdh4mhnr
p768
I1
sVd3cjg1r
p769
I2
sVdkma9xk
p770
I1
sVdnjjp6v
p771
I1
sVd2n64kb
p772
I1
sVdfln6ee
p773
I1
sVcyjfv5f
p774
I1
sVdd19000
p775
I1
sVd5mag20
p776
I1
sVdpf329u
p777
I1
sVddhgprv
p778
I1
sVd2p1o63
p779
I1
sVdp7ea6w
p780
I1
sVd5zjbx3
p781
I1
sVd3rv36z
p782
I1
sVd8jfaqt
p783
I1
sVczrw6ld
p784
I2
sVdfhc619
p785
I1
sVd55ka1g
p786
I1
sVdf903he
p787
I1
sVdgybmox
p788
I1
sVd2dtsm5
p789
I1
sVd7fexjf
p790
I1
sVdeu22pk
p791
I1
sVdt8gzkd
p792
I1
sVdd3odw9
p793
I1
sVdgdron8
p794
I1
sVdi68c9q
p795
I1
sVd2ph0w2
p796
I3
sVd4ukul7
p797
I1
sVdgum1v5
p798
I1
sVdizw3wb
p799
I3
sVdt6bnob
p800
I2
sVd3yjt0t
p801
I1
sVdil3psg
p802
I2
sVdfyi4y2
p803
I1
sVdqhsipf
p804
I1
sVdr2ufk4
p805
I1
sVd3rg6gt
p806
I1
sVdd8cylh
p807
I1
sVdb94buw
p808
I1
sVdoszhkj
p809
I2
sVdsv86dt
p810
I1
sVd902cga
p811
I1
sVdf0frup
p812
I1
sVdao1vf1
p813
I2
sVdix6pt0
p814
I1
sVdififj2
p815
I1
sVd0zp5oh
p816
I1
sVd7e0j1u
p817
I1
sVde4ody7
p818
I1
sVd3vilwh
p819
I1
sVdfpn3j7
p820
I3
sVdiunhha
p821
I2
sVdraejg3
p822
I1
sVdonrn1o
p823
I1
sVdfdbtgk
p824
I1
sVdfeb4cd
p825
I1
sVdk1elg0
p826
I1
sVde2iti8
p827
I2
sVdaw6g3w
p828
I1
sVd4cwupb
p829
I1
sVd6yslfx
p830
I1
sVcz1jc6y
p831
I2
sVda0z4an
p832
I1
sVdfyjwrk
p833
I1
sVdatwppv
p834
I1
sVdhyf1yl
p835
I1
sVd90v8oo
p836
I1
sVczpz0r3
p837
I1
sVd3kmp57
p838
I1
sVd5iv8bp
p839
I1
sVd7keheg
p840
I1
sVd9d0qdm
p841
I1
sVd8ji37z
p842
I1
sVd86fu0m
p843
I1
sVd7z7eg7
p844
I1
sVd6qnu3i
p845
I1
sVd7ync5h
p846
I2
sVdqnavz2
p847
I2
sVd14ghj4
p848
I2
sVddoe7cl
p849
I1
sVd554b61
p850
I1
sVd3fjqjd
p851
I1
sVczs70et
p852
I1
sVdgn2ork
p853
I1
sVczcec4u
p854
I3
sVda9qp0k
p855
I1
sVd6vfsbu
p856
I1
sVdgaydfj
p857
I1
sVd84tqek
p858
I3
sVd277y63
p859
I1
sVdr5le07
p860
I2
sVdqyx9o8
p861
I1
sVddijgvh
p862
I1
sVd6ojshl
p863
I1
sVd98zm8o
p864
I1
sVdea2b9t
p865
I1
sVd72hz7v
p866
I1
sVdsyumxs
p867
I8
sVd5cyfo4
p868
I3
sVd8cayxm
p869
I1
sVd2h3x5o
p870
I1
sVd3qkrgu
p871
I2
sVdat6000
p872
I2
sVdeecds8
p873
I1
sVd37k8hx
p874
I1
sVdhisjvi
p875
I1
sVdgvzg28
p876
I2
sVd080vnz
p877
I2
sVdnbbm0x
p878
I1
sVd8rrtef
p879
I1
sVdixfb68
p880
I1
sVd7l2cyk
p881
I2
sVdasq0i4
p882
I1
sVdbn46c3
p883
I1
sVddj83vx
p884
I1
sVdemj0xk
p885
I1
sVd9bmh94
p886
I1
sVd4zn4ak
p887
I1
sVd31o2r2
p888
I2
sVdgg0t1n
p889
I2
sVd8n3hp6
p890
I1
sVdhxtiez
p891
I1
sVd73jw4a
p892
I1
sVcyifwlq
p893
I1
sVd17zgwh
p894
I1
sVddxfnyr
p895
I1
sVdf4o7n2
p896
I2
sVdotrv1y
p897
I2
sVd0atf6k
p898
I1
sVdd3ui3i
p899
I1
sVd623ujr
p900
I1
sVdi08cwp
p901
I1
sVdntte01
p902
I1
sVdby0t8l
p903
I1
sVcyt9rug
p904
I1
sVdp5dip7
p905
I3
sVd2me80r
p906
I1
sVd78x76c
p907
I1
sVd9z2imo
p908
I1
sVde2f7t5
p909
I1
sVdiy4rg1
p910
I1
sVdmfrx2t
p911
I1
sVdiziqv6
p912
I1
sVczao4of
p913
I1
sVdsa8u3n
p914
I1
sVdjxg44l
p915
I2
sVdc3xy02
p916
I1
sVd1gd04m
p917
I1
sVdbpiya3
p918
I2
sVd7zkl5r
p919
I1
sVdarg6fn
p920
I1
sVd1qrcx1
p921
I1
sVdefw2va
p922
I1
sVdoobhhn
p923
I1
sVd85sm3t
p924
I1
sVdhn61jq
p925
I1
sVdaue1y4
p926
I2
sVdfp33h6
p927
I1
sVda33n3r
p928
I1
sVd9h1x0q
p929
I1
sVd0yphbm
p930
I1
sVdkrew5y
p931
I1
sVdkicbkj
p932
I1
sVddz2tlb
p933
I1
sVd4ff58y
p934
I2
sVdfk5z01
p935
I1
sVd0u20ts
p936
I1
sVd07l69t
p937
I1
sVdkog79h
p938
I1
sVcypctyo
p939
I1
sVddy4a1t
p940
I1
sVddhu2zg
p941
I1
sVdrige5o
p942
I2
sVd6ujkwc
p943
I4
sVd2bcn0h
p944
I1
sVd6q5mqv
p945
I1
sVd9egn5e
p946
I1
sVdfx6kgr
p947
I1
sVd1q1ftk
p948
I1
sVdqd4637
p949
I2
sVdixb5sj
p950
I1
sVd3z118t
p951
I4
sVdcseesm
p952
I1
sVdgrxuew
p953
I1
sVdtgk8rh
p954
I1
sVdfq7wx0
p955
I1
sVd4hi771
p956
I2
sVdmpgi84
p957
I1
sVd4jpp9x
p958
I1
sVdphjfoe
p959
I1
sVd63vcfc
p960
I1
sVda0lngw
p961
I1
sVd5sw03a
p962
I1
sVd12mt9q
p963
I2
sVdffhu1p
p964
I1
sVdeyxhsh
p965
I1
sVd6a3teo
p966
I1
sVczqvvgw
p967
I1
sVd7ij7mi
p968
I1
sVdf5gql0
p969
I1
sVdn25fe3
p970
I1
sVd12j0t5
p971
I1
sVdf4fvs0
p972
I3
sVczhdg9h
p973
I1
sVd3bgst0
p974
I1
sVdoh9umk
p975
I1
sVddxmdu5
p976
I1
sVd1de719
p977
I2
sVdail4ai
p978
I1
sVdfzxaqm
p979
I3
sVd2yqibd
p980
I1
sVdhz1eay
p981
I4
sVczdisc4
p982
I1
sVdghcft5
p983
I1
sVdqta9jl
p984
I1
sVd6bxuo1
p985
I1
sVdh2wvj5
p986
I2
sVdatoyh9
p987
I1
sVda49fbu
p988
I1
sVd90uh12
p989
I5
sVdgl0hmp
p990
I1
sVd0py9ny
p991
I1
sVdbf0fjg
p992
I2
sVd64m7u8
p993
I1
sVd4rr0g8
p994
I2
sVd3bcz7g
p995
I1
sVd3b7eul
p996
I1
sVdinjcn8
p997
I1
sVczruslp
p998
I1
sVdiol1zs
p999
I1
sVdd5jiqv
p1000
I1
sVdhfqv7t
p1001
I1
sVdd5jf7x
p1002
I1
sVdex6e6p
p1003
I1
sVdekwv0u
p1004
I1
sVddvrn6q
p1005
I2
sVd0pf7bl
p1006
I1
sVd8n5nmn
p1007
I1
sVdidq28y
p1008
I1
sVdrjdd1k
p1009
I1
sVdam89ht
p1010
I1
sVd2wu6am
p1011
I1
sVd8e2w9s
p1012
I1
sVd0zakd1
p1013
I1
sVd9a8d6n
p1014
I2
sVdiq5fw8
p1015
I1
sVd48hy0p
p1016
I1
sVcz9ydx8
p1017
I2
sVczs30q1
p1018
I3
sVddd6mke
p1019
I1
sVczcgx3w
p1020
I1
sVdgcsyxx
p1021
I1
sVdmrxttd
p1022
I1
sVd8sqq02
p1023
I1
sVdef2s0a
p1024
I1
sVd2hbg2e
p1025
I1
sVdbn8wtt
p1026
I1
sVcyw5px1
p1027
I1
sVd4q3tmc
p1028
I1
sVdt8icla
p1029
I1
sVd2t0jbp
p1030
I1
sVd4ku35x
p1031
I1
sVdr8px21
p1032
I1
sVdbzcz4t
p1033
I1
sVdd4veex
p1034
I2
sVdqfgcql
p1035
I1
sVd9heeuy
p1036
I1
sVdhrlss5
p1037
I1
sVdd076xa
p1038
I1
sVd069o47
p1039
I1
sVdcxh7az
p1040
I1
sVd5jnd06
p1041
I1
sVd4qdefb
p1042
I1
sVdn56ge0
p1043
I1
sVdex6ufw
p1044
I1
sVds2jirh
p1045
I1
sVd621z36
p1046
I1
sVd2bx7x8
p1047
I2
sVdjo6kvs
p1048
I2
sVdf0bep6
p1049
I1
sVd5dfwpv
p1050
I1
sVd0lfmma
p1051
I1
sVdi7bpjt
p1052
I1
sVdnc6k2h
p1053
I1
sVdfxubwn
p1054
I1
sVdt7poio
p1055
I1
sVdkxkmf9
p1056
I1
sVd4jko36
p1057
I2
sVcyox9i7
p1058
I1
sVdgvuv0t
p1059
I1
sVd39u52e
p1060
I1
sVddhmyc6
p1061
I1
sVdr3r1ei
p1062
I1
sVdgr3pja
p1063
I3
sVd54wnpn
p1064
I1
sVcz7dy2s
p1065
I2
sVdr8typp
p1066
I1
sVdbrgthl
p1067
I1
sVdcqjqfq
p1068
I1
sVd1bo0bd
p1069
I1
sVdetex2z
p1070
I1
sVdddikkv
p1071
I1
sVdief6l7
p1072
I2
sVdeetfcg
p1073
I3
sVd1v22jx
p1074
I1
sVd7ass6g
p1075
I1
sVdc7tn9b
p1076
I1
sVd6j5ge4
p1077
I1
sVd7g4iy6
p1078
I1
sVdondjaf
p1079
I2
sVcz6402l
p1080
I5
sVd5eivqg
p1081
I1
sVd29w748
p1082
I1
sVd5yife6
p1083
I2
sVd2uje9i
p1084
I1
sVdgtel5j
p1085
I1
sVd72q1vk
p1086
I1
sVdg4c3nk
p1087
I3
sVcypk55y
p1088
I2
sVdottw5k
p1089
I1
sVdfos3uk
p1090
I1
sVd17kxbw
p1091
I2
sVdfu1mmi
p1092
I1
sVddcbt3e
p1093
I1
sVdg3usiq
p1094
I2
sVdf0wp9g
p1095
I1
sVcz161sg
p1096
I1
sVdf3eshj
p1097
I1
sVczf6ced
p1098
I1
sVdi46ib7
p1099
I1
sVd1ttse2
p1100
I2
sVczethtl
p1101
I1
sVd03pqct
p1102
I1
sVdfpj7kw
p1103
I2
sVdp58uab
p1104
I5
sVd2vxw6r
p1105
I1
sVdnu1mlh
p1106
I1
sVd0xzmxg
p1107
I2
sVd1q9haq
p1108
I1
sVd15hl71
p1109
I1
sVdbumxvw
p1110
I1
sVczsrutn
p1111
I1
sVd0cqwo0
p1112
I1
sVdc7dn0g
p1113
I1
sVd0dlzq4
p1114
I1
sVd7hy6ps
p1115
I1
sVdn1gkt6
p1116
I2
sVcztmiz0
p1117
I1
sVdcaw7wm
p1118
I1
sVdbqg03y
p1119
I1
sVdhrjpmw
p1120
I9
sVdbn0d7i
p1121
I3
sVd54a17q
p1122
I1
sVddpow3l
p1123
I1
sVdmpgc56
p1124
I1
sVden3s59
p1125
I1
sVd21b5hb
p1126
I1
sVd0skjzf
p1127
I1
sVdpf2rjw
p1128
I1
sVd7qiqzo
p1129
I1
sVdcmwtov
p1130
I1
sVda9kxrt
p1131
I1
sVdgwnmdw
p1132
I1
sVdntot1q
p1133
I2
sVdcc3pkz
p1134
I1
sVd4pjf61
p1135
I1
sVdodx3ss
p1136
I1
sVdc9j7nn
p1137
I1
sVdagw3yt
p1138
I1
sVdho2945
p1139
I1
sVdci8boo
p1140
I1
sVdbn1dmc
p1141
I2
sVde5rdqc
p1142
I1
sVdf3ju51
p1143
I1
sVd7h5nmr
p1144
I1
sVdfmi0bj
p1145
I1
sVd9hqg8s
p1146
I1
sVd1ztkzr
p1147
I1
sVdgrd0hc
p1148
I1
sVdjazymd
p1149
I1
sVd1d8qn9
p1150
I1
sVd0cufow
p1151
I1
sVdgmsfs1
p1152
I1
sVdfx04xw
p1153
I1
sVdmz0hwn
p1154
I1
sVcyi5ont
p1155
I1
sVdjedm7r
p1156
I7
sVd47282c
p1157
I1
sVd2z9i54
p1158
I1
sVd8f9amo
p1159
I2
sVd4it4zl
p1160
I1
sVd4l80or
p1161
I1
sVdeg0uds
p1162
I1
sVde0xv5z
p1163
I1
sVd6r82fv
p1164
I1
sVdcc1zy1
p1165
I1
sVczrh853
p1166
I1
sVdgfouwr
p1167
I1
sVczm23gm
p1168
I2
sVczvo4zl
p1169
I1
sVdkqs3yn
p1170
I1
sVdaqgqdu
p1171
I1
sVdhn7o84
p1172
I1
sVde6n8g7
p1173
I1
sVcyo447u
p1174
I1
sVcyqcvrj
p1175
I1
sVdp8zmxq
p1176
I1
sVdebhjx1
p1177
I1
sVdffuerl
p1178
I2
sVdipd0jt
p1179
I1
sVdacfesq
p1180
I1
sVd6ak9pe
p1181
I1
sVd6vw9fz
p1182
I1
sVd2gt9wf
p1183
I1
sVd57l8ka
p1184
I2
sVd6rjuu5
p1185
I1
sVdew2eil
p1186
I1
sVd6mjqnu
p1187
I1
sVd8wt7sg
p1188
I1
sVdigna3j
p1189
I1
sVd26t6iq
p1190
I1
sVd6g0f8j
p1191
I1
sVdnl4hgf
p1192
I1
sVdee2fdl
p1193
I1
sVd1veiry
p1194
I1
sVdb7t4dd
p1195
I1
sVd4pn13v
p1196
I1
sVd02jf58
p1197
I1
sVde5ubwr
p1198
I1
sVdrl6s85
p1199
I1
sVd4t4mc9
p1200
I2
sVdjyj2ef
p1201
I1
sVdrkz350
p1202
I2
sVcyqkrac
p1203
I1
sVdiahic0
p1204
I1
sVd9zukwp
p1205
I1
sVdmikpti
p1206
I1
sVd91pelh
p1207
I1
sVdc3swtk
p1208
I1
sVddahh43
p1209
I1
sVdcmkziy
p1210
I1
sVd43vord
p1211
I1
sVd1qyhuw
p1212
I1
sVd5ysufz
p1213
I1
sVd0jmho6
p1214
I1
sVd0ul1sx
p1215
I1
sVd4hxziw
p1216
I2
sVdpympfl
p1217
I1
sVd2js6kt
p1218
I1
sVd3ol30g
p1219
I1
sVd16kipu
p1220
I1
sVczxfhlq
p1221
I1
sVdmicqeg
p1222
I2
sVd5yv03f
p1223
I1
sVd5u7you
p1224
I1
sVdkfubid
p1225
I2
sVdq1xylr
p1226
I1
sVdn4aymx
p1227
I1
sVczepou3
p1228
I1
sVds4dgeg
p1229
I1
sVdfp1vbe
p1230
I1
sVd1n0lb1
p1231
I1
sVd2krx8d
p1232
I2
sVd25qno2
p1233
I1
sVdb9vn33
p1234
I1
sVcypuo4u
p1235
I1
sVdioerfq
p1236
I1
sVd4q7768
p1237
I1
sVde1znfb
p1238
I1
sVd27s7p9
p1239
I1
sVd2hengs
p1240
I3
sVdnbmiz3
p1241
I1
sVda1tjio
p1242
I2
sVdeg8w1b
p1243
I1
sVd1xhl75
p1244
I1
sVd0kq29a
p1245
I1
sVdkd4gdj
p1246
I1
sVdd4ngxy
p1247
I1
sVdgefo45
p1248
I1
sVd99sbw5
p1249
I2
sVd2l1o3j
p1250
I1
sVd36652w
p1251
I1
sVd2y8a55
p1252
I2
sVdonlrln
p1253
I1
sVdf5z1ec
p1254
I1
sVdb4ckji
p1255
I1
sVdiqlmrk
p1256
I2
sVd8m34bi
p1257
I1
sVdkkd3q3
p1258
I1
sVdj8vpyw
p1259
I1
sVdheufe0
p1260
I1
sVdr994a7
p1261
I1
sVdegalgg
p1262
I2
sVczel6od
p1263
I1
sVdhjjkoh
p1264
I1
sVdk2txzg
p1265
I1
sVd1k75gw
p1266
I3
sVdt6wd5y
p1267
I1
sVdowe9xv
p1268
I1
sVdn3bp71
p1269
I1
sVdds4v6w
p1270
I1
sVdfk9g3z
p1271
I1
sVdgq2opz
p1272
I1
sVczrkyuk
p1273
I1
sVdffwmew
p1274
I1
sVd2p3p0o
p1275
I4
sVd72i1xx
p1276
I1
sVdjjlej5
p1277
I1
sVdf5o6eq
p1278
I1
sVdaeujsp
p1279
I1
sVdrdsd1h
p1280
I1
sVdbi0axx
p1281
I1
sVdbw7k5t
p1282
I1
sVdmzi39g
p1283
I1
sVd3ncu24
p1284
I1
sVdd59oef
p1285
I1
sVdjo8yu0
p1286
I1
sVd57lqrk
p1287
I1
sVdfj2uww
p1288
I1
sVdiu3pt7
p1289
I1
sVd4h2mci
p1290
I1
sVdt9tziv
p1291
I1
sVdnrekcn
p1292
I1
sVdoci713
p1293
I1
sVdpvw9y0
p1294
I1
sVdrsza63
p1295
I2
sVdby14y9
p1296
I1
sVddyp0d0
p1297
I1
sVdh0yyba
p1298
I1
sVdafrg4l
p1299
I1
sVd33wax1
p1300
I1
sVd9zwlu0
p1301
I1
sVdfs35g2
p1302
I1
sVd3nl456
p1303
I1
sVczeowcz
p1304
I1
sVdcuc3ye
p1305
I1
sVde2lmb8
p1306
I1
sVddezx02
p1307
I1
sVczu4nka
p1308
I1
sVdi5kk5t
p1309
I1
sVdeu682x
p1310
I3
sVdgy1faj
p1311
I2
sVdqcmwbl
p1312
I1
sVdb59nz6
p1313
I2
sVd6zz3zj
p1314
I1
sVcz4pjev
p1315
I1
sVd5fzp28
p1316
I1
sVd2czpox
p1317
I1
sVdtep6tw
p1318
I1
sVdakysbs
p1319
I1
sVcys7ie3
p1320
I2
sVddeq1vs
p1321
I1
sVdqd2iez
p1322
I1
sVdcc1zji
p1323
I2
sVd0ch54u
p1324
I1
sVdieut6j
p1325
I1
sVda6eito
p1326
I3
sVd5jczgf
p1327
I2
sVd239pjb
p1328
I1
sVd8rkqmz
p1329
I1
sVdn918k5
p1330
I1
sVd159ybx
p1331
I2
sVdi014dm
p1332
I1
sVd2765ch
p1333
I1
sVd8q10up
p1334
I1
sVd47y6zd
p1335
I1
sVd46wh5g
p1336
I1
sVdjh2o0j
p1337
I2
sVd7hoiyt
p1338
I1
sVdalhy1p
p1339
I1
sVdqwyx6t
p1340
I1
sVd8kdwf2
p1341
I1
sVdnmndiq
p1342
I1
sVdexib42
p1343
I1
sVdog9ppm
p1344
I1
sVddwgcw1
p1345
I1
sVdclg7tp
p1346
I1
sVd5xp02c
p1347
I2
sVdgroe5a
p1348
I1
sVd1zytjn
p1349
I1
sVdi1ya1v
p1350
I1
sVd0tyhje
p1351
I1
sVdfb815u
p1352
I1
sVdadbqdi
p1353
I1
sVda09zof
p1354
I1
sVdhccqfp
p1355
I1
sVd7l2gdg
p1356
I1
sVdj8zhke
p1357
I1
sVdkgvu7g
p1358
I1
sVdg532p4
p1359
I1
sVd108zua
p1360
I1
sVd8ml182
p1361
I1
sVddkfkcl
p1362
I1
sVd4t4nrb
p1363
I1
sVdrhmb9d
p1364
I2
sVdehsmrr
p1365
I1
sVd5dspvd
p1366
I1
sVdjske2k
p1367
I1
sVdghsplq
p1368
I1
sVczrdrhv
p1369
I1
sVd5hkx9c
p1370
I1
sVczkj6fh
p1371
I1
sVd24rqd9
p1372
I1
sVd3wyrt0
p1373
I1
sVdrqal2p
p1374
I1
sVdiql7s9
p1375
I1
sVdesbvp0
p1376
I1
sVdadj2x8
p1377
I1
sVd34oulg
p1378
I1
sVdnslo7y
p1379
I1
sVdkfs09v
p1380
I1
sVczgii2l
p1381
I1
sVd5egjce
p1382
I1
sVd0zw1z0
p1383
I1
sVdgf6o26
p1384
I1
sVd1f8w3a
p1385
I1
sVd5gn5ul
p1386
I1
sVd3u4rav
p1387
I1
sVdej3d45
p1388
I1
sVd4lkzu3
p1389
I1
sVdguwwjb
p1390
I1
sVd1m6qpv
p1391
I1
sVcyl9081
p1392
I1
sVd0ask0o
p1393
I1
sVczec31x
p1394
I1
sVd5hb4wn
p1395
I1
sVdd5ls8e
p1396
I2
sVdiiu823
p1397
I1
sVdh43utz
p1398
I1
sVd75isw8
p1399
I1
sVd2523iv
p1400
I1
sVda8rr97
p1401
I1
sVdbhqudx
p1402
I1
sVdnytjra
p1403
I1
sVd35f6y6
p1404
I2
sVds8cj9t
p1405
I2
sVdg7mhi7
p1406
I1
sVdb4yhal
p1407
I1
sVdswbbz7
p1408
I1
sVde6zst7
p1409
I1
sVddqluh5
p1410
I1
sVd5z4w7i
p1411
I1
sVdgwi3n0
p1412
I3
sVdn8eg30
p1413
I2
sVdfic932
p1414
I1
sVdhhhih8
p1415
I1
sVda0vt23
p1416
I5
sVds4ug8j
p1417
I1
sVdhevwj8
p1418
I1
sVdblgbw2
p1419
I2
sVdc9xiai
p1420
I2
sVd1w092y
p1421
I1
sVdmitkua
p1422
I1
sVd4ukgc3
p1423
I1
sVd9cvbpi
p1424
I1
sVczgwqdv
p1425
I1
sVd5f13u2
p1426
I1
sVdd8ukbu
p1427
I1
sVd2ecw40
p1428
I1
sVcynelz3
p1429
I1
sVd0uyi3g
p1430
I1
sVdpsgge0
p1431
I1
sVd6bc847
p1432
I1
sVdmuxauj
p1433
I1
sVdnmkbbm
p1434
I1
sVd9jr846
p1435
I1
sVdk0wccj
p1436
I1
sVd7kfyol
p1437
I1
sVdixyyf3
p1438
I1
sVd10gr2f
p1439
I2
sVd015rh2
p1440
I1
sVd87lh65
p1441
I1
sVdgivw2o
p1442
I1
sVd7qpehl
p1443
I1
sVd03hs1c
p1444
I1
sVd2amajr
p1445
I1
sVdfm8iqt
p1446
I1
sVd919iaq
p1447
I1
sVdkheerg
p1448
I1
sVd5boqki
p1449
I2
sVdcwutp4
p1450
I2
sVd1zcjif
p1451
I2
sVdo8c0si
p1452
I1
sVczjj20h
p1453
I1
sVdr6evjg
p1454
I1
sVd16zp3b
p1455
I1
sVddrbu5l
p1456
I1
sVd1r8pk0
p1457
I2
sVd9zbqjj
p1458
I1
sVdejzq1v
p1459
I1
sVd1wrxgd
p1460
I2
sVd7hjbqw
p1461
I1
sVdt1eshf
p1462
I1
sVd02m7qg
p1463
I1
sVdswenye
p1464
I1
sVd00vszx
p1465
I1
sVdgfmchy
p1466
I1
sVdhkg2vw
p1467
I1
sVd5e45hi
p1468
I3
sVde79sx9
p1469
I2
sVd95t00x
p1470
I3
sVdaoim2k
p1471
I1
sVdh8dxs8
p1472
I1
sVddrksxj
p1473
I1
sVd125osw
p1474
I1
sVd2777d1
p1475
I1
sVcykicog
p1476
I1
sVdmey6c8
p1477
I1
sVdb5fpch
p1478
I1
sVd85qwa8
p1479
I1
sVd1zx4qg
p1480
I1
sVdc7rsd7
p1481
I1
sVd6zpnwy
p1482
I1
sVd7ej42q
p1483
I2
sVdgl2pst
p1484
I1
sVdhqcvoc
p1485
I1
sVdslnhmo
p1486
I1
sVdh0xi08
p1487
I1
sVdeybj38
p1488
I1
sVdf3z9r2
p1489
I1
sVdko07ff
p1490
I1
sVcyjndpv
p1491
I1
sVdf1u00d
p1492
I1
sVdfm3885
p1493
I1
sVdiipadz
p1494
I1
sVda0fqrq
p1495
I2
sVdpc2yzw
p1496
I1
sVd3bzfa2
p1497
I1
sVd4sqq0q
p1498
I1
sVczsnm2i
p1499
I1
sVd70dqol
p1500
I2
sVdfrhmam
p1501
I1
sVd5tka5v
p1502
I1
sVdbd4n2e
p1503
I1
sVd0yyu34
p1504
I1
sVd81cb9t
p1505
I1
sVd1glew9
p1506
I1
sVd3726l0
p1507
I1
sVdibrzec
p1508
I1
sVcz87b3c
p1509
I1
sVdiqdlw2
p1510
I2
sVd9iqk0f
p1511
I1
sVd7zf62b
p1512
I1
sVdd1vnbu
p1513
I1
sVd4ps1ro
p1514
I1
sVd6ht7s1
p1515
I1
sVdfrm0am
p1516
I1
sVd3w6ydw
p1517
I1
sVd1d76l8
p1518
I1
sVda1qwxi
p1519
I1
sVde8hp6p
p1520
I1
sVdn3p5ul
p1521
I2
sVdg95qqo
p1522
I1
sVde73ylk
p1523
I1
sVd8w1rgh
p1524
I1
sVd9a3ee7
p1525
I1
sVdam88zy
p1526
I1
sVdcqg6uz
p1527
I1
sVdiyhvpe
p1528
I1
sVdbvsub8
p1529
I1
sVd0eaurt
p1530
I1
sVdfqtzt5
p1531
I1
sVcynmp9g
p1532
I1
sVd62twa8
p1533
I1
sVde0lwck
p1534
I1
sVdqf91pn
p1535
I1
sVde0oj21
p1536
I2
sVdhcbsda
p1537
I1
sVd6e4qm6
p1538
I1
sVdbq01fr
p1539
I1
sVdbzatj3
p1540
I1
sVdediue1
p1541
I1
sVdfjzxgy
p1542
I2
sVdejxhw4
p1543
I2
sVdh8ev47
p1544
I1
sVdhbxxtf
p1545
I1
sVdkj18kf
p1546
I1
sVd2mjape
p1547
I2
sVczjaaqz
p1548
I1
sVdkjer9f
p1549
I3
sVcza4a5n
p1550
I1
sVd0skmgx
p1551
I1
sVczclkbt
p1552
I2
sVd2rsss5
p1553
I1
sVd3lj8aq
p1554
I1
sVddv4ym4
p1555
I2
sVdmsyfmk
p1556
I2
sVdjad25l
p1557
I2
sVdejtl45
p1558
I1
sVczhpbu8
p1559
I1
sVdf0jzrf
p1560
I1
sVd60rf47
p1561
I1
sVd0x8suz
p1562
I1
sVdjy5qyb
p1563
I1
sVd5t0qrv
p1564
I1
sVdbammhx
p1565
I1
sVdal2zk0
p1566
I2
sVdko3qzs
p1567
I1
sVcyojwua
p1568
I1
sVdjupe67
p1569
I1
sVd68wtzl
p1570
I1
sVdio7x3p
p1571
I1
sVdd7825n
p1572
I1
sVdjwufi4
p1573
I1
sVddr942z
p1574
I1
sVda8ow6k
p1575
I1
sVcyucqum
p1576
I1
sVdp2pltw
p1577
I1
sVdsa7fl2
p1578
I1
sVcz1cydd
p1579
I2
sVd8q7k6k
p1580
I1
sVdgmeq54
p1581
I1
sVdeiab0s
p1582
I1
sVd1311ow
p1583
I3
sVd1p573m
p1584
I1
sVd02witz
p1585
I1
sVdd25m2t
p1586
I1
sVdalsxlo
p1587
I1
sVd8amyyb
p1588
I1
sVdi14sm5
p1589
I1
sVdsqjzgd
p1590
I1
sVd28az5g
p1591
I1
sVdauk6nk
p1592
I1
sVdbwnqt9
p1593
I1
sVd1roleu
p1594
I3
sVd2urdj3
p1595
I1
sVdj01l8j
p1596
I1
sVdnkeapr
p1597
I1
sVd3a5qg5
p1598
I2
sVcywwvlh
p1599
I1
sVdeuext6
p1600
I1
sVdf8jl1x
p1601
I1
sVda1loy1
p1602
I1
sVdbngj3f
p1603
I1
sVd37gkxv
p1604
I3
sVdj5jnih
p1605
I1
sVd0suj7b
p1606
I2
sVdcjuu67
p1607
I1
sVdiugr0o
p1608
I1
sVdf6jao3
p1609
I1
sVd3ld4g7
p1610
I2
sVcz966oh
p1611
I1
sVddkxjaq
p1612
I1
sVdbeqb7a
p1613
I1
sVdo7ttb0
p1614
I1
sVd90jgd8
p1615
I1
sVd0nynjm
p1616
I1
sVd2pvrga
p1617
I1
sVd0fxw3d
p1618
I1
sVdclmvra
p1619
I1
sVd6t0p8n
p1620
I1
sVdik9ef5
p1621
I1
sVdizkcxv
p1622
I14
sVdj1czv6
p1623
I1
sVdo0lxbh
p1624
I1
sVdqa2vjn
p1625
I2
sVd7p1eh7
p1626
I2
sVd6g2ut6
p1627
I1
sVdpql59p
p1628
I1
sVd0ycwqv
p1629
I1
sVd0kljn2
p1630
I2
sVd6a6tkv
p1631
I2
sVd7yzl85
p1632
I1
sVd3dwswc
p1633
I1
sVdgy2ghv
p1634
I1
sVdf92z6n
p1635
I1
sVdnsc8w7
p1636
I1
sVd2pvuk4
p1637
I1
sVdh4ceto
p1638
I1
sVd0pw80g
p1639
I1
sVd8ydjdl
p1640
I1
sVdhktofh
p1641
I4
sVd4bhti0
p1642
I1
sVd4sskbt
p1643
I1
sVdbnt07e
p1644
I1
sVd2h64c9
p1645
I1
sVd69mnz7
p1646
I1
sVdeiilht
p1647
I1
sVd3jq3ge
p1648
I5
sVd800y08
p1649
I1
sVd4nx5z3
p1650
I2
sVdmncwez
p1651
I1
sVcyljp66
p1652
I3
sVd0oc2fr
p1653
I1
sVd7wbh3g
p1654
I1
sVdnro3nd
p1655
I4
sVcymf9oa
p1656
I1
sVcyv4543
p1657
I1
sVdhia4y4
p1658
I1
sVdoeqv08
p1659
I1
sVdgits8p
p1660
I1
sVdek5h8a
p1661
I1
sVd1boo2h
p1662
I1
sVdnlo3q2
p1663
I1
sVd4sdrox
p1664
I2
sVdepc7yq
p1665
I1
sVd17r4t8
p1666
I1
sVdn4mpsg
p1667
I1
sVdhax1g8
p1668
I1
sVdel7yo6
p1669
I1
sVd3i37w4
p1670
I1
sVdq7rwqh
p1671
I1
sVdbpntjy
p1672
I1
sVdj5bzop
p1673
I1
sVcyuny2p
p1674
I1
sVdav6dcd
p1675
I1
sVd0iqlop
p1676
I1
sVdezevy5
p1677
I1
sVdhpehyn
p1678
I1
sVd19ionk
p1679
I1
sVd9yaq5y
p1680
I1
sVd5wysnj
p1681
I1
sVdhzp7fw
p1682
I1
sVdh0a4ae
p1683
I1
sVczi9sp8
p1684
I1
sVd077vqq
p1685
I1
sVczw0cva
p1686
I1
sVdhjt6ir
p1687
I1
sVd0l0h9w
p1688
I1
sVdjk4dsp
p1689
I1
sVdidek2w
p1690
I1
sVd4ybmqa
p1691
I3
sVd1btwvq
p1692
I1
sVdialcaa
p1693
I2
sVdmxs0us
p1694
I1
sVdp5a5ys
p1695
I7
sVdojj486
p1696
I1
sVd36lv9g
p1697
I2
sVdhvhtok
p1698
I4
sVd259t2w
p1699
I1
sVd3oomyi
p1700
I1
sVdfxwvmd
p1701
I1
sVdpqqptk
p1702
I1
sVd172mbj
p1703
I1
sVdmlvnsz
p1704
I1
sVczztpei
p1705
I1
sVde3fsnm
p1706
I2
sVd91w87h
p1707
I2
sVd9iij7n
p1708
I1
sVddbt2dz
p1709
I1
sVd8z4bek
p1710
I2
sVd9nvi91
p1711
I1
sVdpodxcy
p1712
I1
sVd2d1n6v
p1713
I1
sVdehkpnq
p1714
I1
sVdppemcg
p1715
I1
sVdcl0z3n
p1716
I1
sVdqyk4vl
p1717
I1
sVdb3nrzp
p1718
I2
sVd96iv67
p1719
I1
sVd5v27iv
p1720
I1
sVd1d9jnn
p1721
I1
sVdbgfdwz
p1722
I1
sVdht7d1u
p1723
I1
sVd5xojod
p1724
I1
sVdmlyiy2
p1725
I1
sVd3dcgh6
p1726
I1
sVdncz8ko
p1727
I2
sVdach0ra
p1728
I1
sVd427as8
p1729
I1
sVdmnnedf
p1730
I1
sVdjz3jtg
p1731
I1
sVd4bk73b
p1732
I1
sVdnmbqcj
p1733
I1
sVdmzfklp
p1734
I1
sVd1kor05
p1735
I1
sVdbozzwt
p1736
I1
sVd1kyis0
p1737
I1
sVd6j9jxm
p1738
I1
sVddjle41
p1739
I1
sVd54obis
p1740
I1
sVdoeomn5
p1741
I1
sVdkion1f
p1742
I1
sVd1c9mts
p1743
I1
sVddx0tbn
p1744
I1
sVczcy6ss
p1745
I1
sVdhjl64y
p1746
I1
sVd0u7hv6
p1747
I1
sVczi9mc5
p1748
I1
sVdcevnz6
p1749
I1
sVddjausx
p1750
I1
sVd7pbfj0
p1751
I2
sVd8yv7nh
p1752
I2
sVdc7e5uw
p1753
I1
sVd07vjrc
p1754
I1
sVdj3qxfh
p1755
I1
sVdgmwd2f
p1756
I1
sVczy6fmt
p1757
I1
sVd1pzlt6
p1758
I1
sVd3pggsc
p1759
I1
sVd673mnn
p1760
I1
sVd38r10q
p1761
I1
sVdkq6r19
p1762
I1
sVd1fo1bt
p1763
I1
sVdbeq90d
p1764
I1
sVd4ysb1o
p1765
I1
sVddhxea3
p1766
I1
sVd7ygqaq
p1767
I2
sVd68ox5e
p1768
I1
sVdjnh9he
p1769
I1
sVd0ym03n
p1770
I1
sVczt1vsn
p1771
I1
sVd312oxq
p1772
I1
sVd40t2ve
p1773
I1
sVdd3ecop
p1774
I1
sVdek02vu
p1775
I2
sVd7z73s2
p1776
I1
sVddiyasr
p1777
I1
sVd2m0dhg
p1778
I1
sVdn4ibdd
p1779
I1
sVczinl60
p1780
I1
sVdcahfxq
p1781
I1
sVd7m3eha
p1782
I1
sVd8dymjo
p1783
I1
sVczh3kon
p1784
I1
sVdad6bpi
p1785
I1
sVdj5tao2
p1786
I1
sVdijn8pk
p1787
I1
sVczlff7b
p1788
I1
sVdnistjp
p1789
I1
sVd2emgkp
p1790
I1
sVd1c91qx
p1791
I1
sVczq5bao
p1792
I2
sVdgd86ue
p1793
I1
sVd2orf18
p1794
I1
sVdg1v4y1
p1795
I1
sVddu6w9w
p1796
I2
sVdaz0l37
p1797
I3
sVd0a7rah
p1798
I1
sVd5jm9u0
p1799
I1
sVdd1oviv
p1800
I1
sVdp75ck8
p1801
I4
sVdj23t5j
p1802
I1
sVdekwxl8
p1803
I1
sVd0qu432
p1804
I1
sVd6t5hcx
p1805
I1
sVds3lxs2
p1806
I1
sVdrt3c6y
p1807
I1
sVda68jzo
p1808
I1
sVddphaun
p1809
I1
sVdtgxcqt
p1810
I1
sVdfg3tdv
p1811
I1
sVcz4i8bq
p1812
I1
sVczw2fsg
p1813
I2
sVd2zl3l3
p1814
I1
sVd1wp5ie
p1815
I1
sVczzw1l2
p1816
I1
sVd47om8j
p1817
I1
sVd1gs5np
p1818
I1
sVdk3r5h9
p1819
I1
sVd6c4hhi
p1820
I1
sVd4zri1m
p1821
I1
sVdgs9ms8
p1822
I1
sVd0m0t34
p1823
I1
sVd834osp
p1824
I1
sVdfaylvi
p1825
I1
sVdawfw34
p1826
I1
sVd8afq18
p1827
I1
sVczru5lc
p1828
I1
sVde4zaw4
p1829
I1
sVdeu38k7
p1830
I1
sVdiszoqu
p1831
I1
sVd60uu6w
p1832
I3
sVdeyx3ba
p1833
I2
sVd91iszj
p1834
I1
sVdjl6eg9
p1835
I1
sVd2q0pg4
p1836
I1
sVd9t2ukq
p1837
I1
sVdrzs3l4
p1838
I1
sVda1yapb
p1839
I1
sVdi8t216
p1840
I1
sVdmkb68k
p1841
I1
sVd16r9k2
p1842
I1
sVddycgne
p1843
I1
sVd5zl9i2
p1844
I2
sVd05qgld
p1845
I1
sVd8xxvqo
p1846
I1
sVd2ta0ph
p1847
I1
sVdfvd4r6
p1848
I1
sVdfaiqrv
p1849
I1
sVdbggpfu
p1850
I1
sVd99ksq9
p1851
I1
sVd3lqujh
p1852
I1
sVdo8byrt
p1853
I1
sVd0myr1l
p1854
I1
sVd1rbrt8
p1855
I1
sVd4is5df
p1856
I1
sVd7soqla
p1857
I3
sVdjgdf48
p1858
I1
sVd9ot3kj
p1859
I1
sVdposi93
p1860
I1
sVdck7151
p1861
I1
sVd6gegoe
p1862
I1
sVd5em4j8
p1863
I2
sVd9jtbkg
p1864
I1
sVdffgq1i
p1865
I1
sVdalqr1j
p1866
I1
sVdikw45e
p1867
I1
sVdfe37lx
p1868
I2
sVdmuv3fh
p1869
I1
sVd1npic3
p1870
I1
sVderivx9
p1871
I1
sVd82mj31
p1872
I3
sVcz62abe
p1873
I1
sVd3541v2
p1874
I1
sVdd0t89o
p1875
I2
sVdejj7ee
p1876
I1
sVdjypnn8
p1877
I1
sVd5a0dks
p1878
I1
sVczmhsuu
p1879
I1
sVczbbjkq
p1880
I1
sVdefz9fv
p1881
I1
sVd6ywmj9
p1882
I3
sVd5d1i5u
p1883
I1
sVddrxsso
p1884
I1
sVdnptqqe
p1885
I1
sVd8diuap
p1886
I1
sVdo9oiz3
p1887
I4
sVd9jqt6o
p1888
I1
sVczem8s7
p1889
I2
sVd90xr0p
p1890
I1
sVdetqeju
p1891
I2
sVdeizu5u
p1892
I1
sVdtgnar8
p1893
I1
sVdhzhhrt
p1894
I1
sVcyznieg
p1895
I1
sVdmugdcm
p1896
I1
sVdgkeuzh
p1897
I7
sVd9nokhm
p1898
I1
sVd2h26vt
p1899
I1
sVdj0jdxq
p1900
I1
sVdazokz9
p1901
I2
sVd6zl2by
p1902
I1
sVd7teksu
p1903
I2
sVd08dh62
p1904
I1
sVd1ze0tg
p1905
I1
sVd2uu8c5
p1906
I1
sVcz9l63o
p1907
I1
sVdjqv5wc
p1908
I1
sVdr5mhom
p1909
I2
sVczf1t8f
p1910
I1
sVdap491t
p1911
I1
sVd6rll03
p1912
I1
sVdczrax8
p1913
I2
sVdqphjnj
p1914
I1
sVd5eyavu
p1915
I1
sVdit1hhd
p1916
I1
sVdoqjp56
p1917
I1
sVd0eo5qk
p1918
I1
sVd2mf2xb
p1919
I1
sVdbeagji
p1920
I1
sVdjnuk5u
p1921
I1
sVcz4yu4u
p1922
I1
sVd8h3wvt
p1923
I1
sVdjtpsvb
p1924
I1
sVdkn0mcc
p1925
I1
sVd036fco
p1926
I1
sVd0grfud
p1927
I1
sVdp5ptpk
p1928
I2
sVczsrjdg
p1929
I1
sVdfwy2sd
p1930
I2
sVdefd143
p1931
I1
sVdadrbyu
p1932
I1
sVdbkvdqt
p1933
I1
sVd97f6yk
p1934
I1
sVdkv7flq
p1935
I1
sVd2m37d6
p1936
I1
sVdgtnk6x
p1937
I1
sVd0z9vr6
p1938
I1
sVdbos33y
p1939
I1
sVdn45ncj
p1940
I1
sVd75gxq8
p1941
I1
sVdjs4dyp
p1942
I1
sVd8pj5jl
p1943
I1
sVdf2m70m
p1944
I1
sVd1w1wi2
p1945
I1
sVczygsj0
p1946
I1
sVdmrmmtt
p1947
I1
sVdj6oo8r
p1948
I1
sVd0ajr4r
p1949
I4
sVcz8d9sz
p1950
I1
sVd2xja9q
p1951
I1
sVczyvqbi
p1952
I2
sVd3lqvxa
p1953
I1
sVd7xxtby
p1954
I1
sVdfhrijm
p1955
I1
sVdf2dzfa
p1956
I1
sVdp9hbkz
p1957
I1
sVczweodw
p1958
I1
sVd35l93d
p1959
I1
sVd8q772j
p1960
I1
sVd1y0358
p1961
I1
sVdg8u9ec
p1962
I1
sVd48ele5
p1963
I1
sVdejbqyw
p1964
I1
sVcz4wd9y
p1965
I2
sVd0528wx
p1966
I1
sVdb7yfcs
p1967
I1
sVdiuyncc
p1968
I1
sVdd59sr4
p1969
I1
sVddk9mtw
p1970
I4
sVd1oqzt9
p1971
I1
sVdic88jb
p1972
I1
sVd5hg9ic
p1973
I1
sVd3ntitj
p1974
I1
sVdbsrp7i
p1975
I1
sVdatx6ip
p1976
I2
sVd7lsdgq
p1977
I1
sVdjik9fa
p1978
I1
sVd015u7d
p1979
I1
sVd12m9ai
p1980
I1
sVd431ha0
p1981
I1
sVd8s02k6
p1982
I1
sVdcoxasb
p1983
I1
sVdq43umj
p1984
I1
sVczhjg2m
p1985
I1
sVdid8uzp
p1986
I1
sVdd437bw
p1987
I4
sVd7kb01q
p1988
I1
sVdk4rvq9
p1989
I1
sVd59ud7m
p1990
I1
sVd6wzj17
p1991
I1
sVdd5icdy
p1992
I1
sVd1zsf4m
p1993
I1
sVd5i3wvc
p1994
I1
sVd0z7a0c
p1995
I1
sVd1o2voe
p1996
I1
sVdi05g80
p1997
I1
sVdd06r9m
p1998
I1
sVd3f7r8t
p1999
I1
sVdhtgzc5
p2000
I1
sVdegt3px
p2001
I1
sVdepkio1
p2002
I1
sVd75twn7
p2003
I1
sVdcddc3v
p2004
I1
sVddn102o
p2005
I1
sVczudlsv
p2006
I1
sVdham0fm
p2007
I1
sVdduv9g1
p2008
I1
sVdoi2zmf
p2009
I1
sVd21h6z1
p2010
I1
sVd99s693
p2011
I1
sVdq3ii8e
p2012
I1
sVdfu9vwh
p2013
I1
sVdngqpgk
p2014
I1
sVd38557l
p2015
I1
sVczdwbhr
p2016
I1
sVcz5uocd
p2017
I1
sVdskf18c
p2018
I1
sVdgga1k2
p2019
I2
sVddjibg9
p2020
I1
sVdihh2d1
p2021
I1
sVdbtco7l
p2022
I3
sVdf8dvse
p2023
I1
sVdfoyujy
p2024
I2
sVd5za3le
p2025
I1
sVd4xctt1
p2026
I1
sVd4xjl7b
p2027
I1
sVdn3ghri
p2028
I1
sVd0um6s3
p2029
I1
sVdolm374
p2030
I2
sVd7443rk
p2031
I1
sVdaps0pm
p2032
I1
sVdgls17a
p2033
I1
sVd28fq23
p2034
I1
sVdjxbf3s
p2035
I1
sVdd4mbo7
p2036
I4
sVd9bw1jm
p2037
I1
sVd3tfzw2
p2038
I1
sVd6k5779
p2039
I1
sVd6rfz3o
p2040
I1
sVd31t3l9
p2041
I1
sVdf3op3z
p2042
I1
sVdel1ld8
p2043
I1
sVdj41qff
p2044
I1
sVddbymwg
p2045
I1
sVdd29x1w
p2046
I1
sVdfu1ig5
p2047
I1
sVdj6z318
p2048
I1
sVczuzdfv
p2049
I1
sVdktifrd
p2050
I1
sVdphzqdh
p2051
I1
sVdh1d6wu
p2052
I1
sVdrgc8j4
p2053
I1
sVdjiowm1
p2054
I2
sVdjh0bch
p2055
I1
sVdb901kw
p2056
I1
sVd86ysvw
p2057
I2
sVd8yh0kv
p2058
I1
sVdajkkcs
p2059
I1
sVdqyxmr6
p2060
I1
sVcywqo86
p2061
I1
sVdon5bdj
p2062
I1
sVczbpcsr
p2063
I1
sVdcuuav5
p2064
I1
sVdiropht
p2065
I1
sVddic6eg
p2066
I1
sVczd8w40
p2067
I1
sVdeg1n4h
p2068
I1
s.