(dp0
Vd3hqin2
p1
I1
sVdcc0g9a
p2
I1
sVcz6402l
p3
I1
sVdkkcl8c
p4
I1
sVdqgi42o
p5
I1
sVd4qwpqw
p6
I1
sVd69wv29
p7
I1
sVdf0wlgl
p8
I1
sVd37pdv1
p9
I1
sVd2dqych
p10
I1
sVdkgxw6k
p11
I1
sVdnvkwgj
p12
I1
sVddywsc9
p13
I1
sVdc7c58x
p14
I1
sVczdvpfb
p15
I1
sVdo99o8r
p16
I1
sVdgzehy3
p17
I1
sVd3jq3ge
p18
I1
sVdeej0ic
p19
I1
s.