(dp0
Vdcobunh
p1
I1
sVdop6atn
p2
I1
sVcytklvt
p3
I1
sVdb81gvo
p4
I1
sVd4sdw0v
p5
I1
sVdjuvz3s
p6
I1
sVddey350
p7
I1
sVddw0ff7
p8
I1
sVd20q1u6
p9
I1
sVd18eak4
p10
I1
sVdfbbco6
p11
I1
sVcz6q62m
p12
I2
sVdacgfel
p13
I2
sVdn8cmfg
p14
I1
sVdbjz721
p15
I1
sVdjkl7vh
p16
I1
sVdcovlv0
p17
I4
sVdcfj4h7
p18
I4
sVcylszdp
p19
I2
sVdi2eeyi
p20
I1
sVdheh2uf
p21
I2
sVd8wvhd1
p22
I1
sVd62a674
p23
I1
sVdhlkatb
p24
I3
sVd9ugfai
p25
I2
sVdoxjob3
p26
I1
sVczkbtjn
p27
I1
sVd68rtj7
p28
I1
sVdqx4wo9
p29
I2
sVdoaboof
p30
I1
sVd0qmdvp
p31
I1
sVd4yxive
p32
I1
sVdeovs4w
p33
I1
sVdikbpoi
p34
I1
sVd0sx3iv
p35
I1
sVd3ao8hn
p36
I1
sVd15vgyb
p37
I1
sVddhbrnb
p38
I1
sVd7rxsfa
p39
I1
sVd2a3w3r
p40
I1
sVdafn2h4
p41
I1
sVdiheyqn
p42
I1
sVd1kmjn9
p43
I1
sVd67uh34
p44
I3
sVdeqb072
p45
I1
sVd9v1pcg
p46
I1
sVdemk5n5
p47
I1
sVdexl7jd
p48
I2
sVdsfv3qh
p49
I1
sVddpz52a
p50
I1
sVd7hhqwu
p51
I1
sVd566sbc
p52
I1
sVdmx8x8g
p53
I1
sVd58eggh
p54
I1
sVdjy56lh
p55
I1
sVd0iih92
p56
I1
sVcyy1p1m
p57
I2
sVd3m4i3s
p58
I1
sVczc3to7
p59
I1
sVczeyjgc
p60
I1
sVczoy0dw
p61
I1
sVd5rhfr0
p62
I1
sVdfurdcy
p63
I1
sVd9hrs9x
p64
I2
sVdti4tjc
p65
I1
sVd0amg68
p66
I1
sVcywpdrm
p67
I1
sVd8qb79b
p68
I6
sVd9v0sd1
p69
I1
sVdoif2ri
p70
I5
sVd5ayg1k
p71
I1
sVd9zb7gx
p72
I1
sVcyv0ye2
p73
I1
sVdif86l1
p74
I1
sVd7j08ui
p75
I1
sVdkw4y3y
p76
I1
sVd1a3ap3
p77
I1
sVdbxey4r
p78
I1
sVdhpk4gx
p79
I2
sVdn1cfw6
p80
I1
sVd1c48tj
p81
I1
sVcynx73u
p82
I1
sVd5lxsj6
p83
I1
sVd03vvck
p84
I1
sVdmgr0iw
p85
I1
sVd1v2hpd
p86
I1
sVd3il1s3
p87
I1
sVd0kpnza
p88
I1
sVd1eig9d
p89
I1
sVdqfek35
p90
I2
sVdf9z6gk
p91
I1
sVdbq3teq
p92
I1
sVdafyj6y
p93
I1
sVd0zvpqa
p94
I2
sVdfwrpau
p95
I1
sVdj01fk4
p96
I1
sVdkyde0g
p97
I1
sVdqwkfi6
p98
I1
sVdcyvve1
p99
I1
sVdfcu4d2
p100
I1
sVcyuwz2o
p101
I1
sVdgy2ghv
p102
I2
sVdqzwkkg
p103
I1
sVdco5bs1
p104
I1
sVd19m8p3
p105
I1
sVd56vcv1
p106
I1
sVdd3fme5
p107
I1
sVd9u0on2
p108
I1
sVdn19l7m
p109
I2
sVdaebphg
p110
I1
sVdn1d28x
p111
I2
sVd77qzyg
p112
I1
sVde1bwys
p113
I3
sVd0b97ay
p114
I1
sVczu7367
p115
I1
sVdgejpcx
p116
I1
sVdmic1af
p117
I1
sVd4kx4ws
p118
I1
sVd11ofrw
p119
I1
sVdn1dnqp
p120
I10
sVdigd6pj
p121
I1
sVdqc2ztf
p122
I1
sVd1syu0l
p123
I2
sVdgn1opf
p124
I1
sVcz254tf
p125
I1
sVd5r86vd
p126
I1
sVcyyhxk7
p127
I1
sVdn1e0ju
p128
I2
sVdms7t65
p129
I1
sVdcpws02
p130
I1
sVd1h9xp7
p131
I1
sVdeoo1ee
p132
I1
sVd2hczwy
p133
I1
sVd9cdymr
p134
I2
sVde2l3aw
p135
I1
sVdfljerj
p136
I2
sVd0dvt5x
p137
I1
sVd0kosb5
p138
I1
sVdg1p5fl
p139
I1
sVd2072ku
p140
I1
sVd9urwd5
p141
I1
sVdjv3arb
p142
I1
sVddu1e5k
p143
I1
sVd0nitmc
p144
I1
sVdhl8idb
p145
I1
sVdn1mabd
p146
I2
sVdh0tkcs
p147
I1
sVd0rsk3s
p148
I1
sVd8397jy
p149
I1
sVdn1ogrl
p150
I2
sVdcdvf43
p151
I1
sVdrkzip0
p152
I1
sVdfnyloj
p153
I1
sVd9t67zh
p154
I1
sVd9rj80l
p155
I4
sVcys7z6v
p156
I1
sVdpy3mix
p157
I1
sVdol2v0i
p158
I1
sVczxxtq9
p159
I1
sVdali7nh
p160
I1
sVd2z9i54
p161
I1
sVdn1ndsx
p162
I4
sVcz7dq4d
p163
I3
sVd3pqotq
p164
I1
sVdfthh30
p165
I3
sVd76chrr
p166
I1
sVdd7g9ut
p167
I1
sVdclw446
p168
I1
sVdhcstu2
p169
I1
sVd9gsd07
p170
I1
sVd744lce
p171
I1
sVd5f3fau
p172
I1
sVdnm8g2u
p173
I1
sVde5e7yg
p174
I1
sVd8q1dtd
p175
I1
sVd4b800h
p176
I2
sVdckj2m0
p177
I1
sVd9331qw
p178
I2
sVday5oev
p179
I1
sVdoe7pzm
p180
I1
sVd8uzkvv
p181
I1
sVdgvnu7z
p182
I1
sVdcdldwe
p183
I1
sVd0i53ux
p184
I4
sVd1mzpu6
p185
I1
sVdid6n9y
p186
I2
sVdrdcdil
p187
I1
sVcyi67wo
p188
I1
sVd6houwz
p189
I1
sVd30o1ts
p190
I2
sVdd7xn0t
p191
I1
sVdmo2ind
p192
I1
sVdr0uvey
p193
I1
sVdeq6ogd
p194
I1
sVd2o364q
p195
I1
sVda4g2bj
p196
I1
sVd1roleu
p197
I1
sVdh6ukqq
p198
I1
sVdphvbf4
p199
I1
sVdehtam5
p200
I1
sVd159ywf
p201
I1
sVd0bly04
p202
I1
sVcz71sby
p203
I1
sVcyp3l3p
p204
I1
sVcyzqqm8
p205
I1
sVdb16e12
p206
I2
sVdhh1qq8
p207
I1
sVdd6rx4b
p208
I1
sVddnyn97
p209
I1
sVd11f2zw
p210
I1
sVdgbniru
p211
I1
sVd82u9lq
p212
I2
sVd63mx0u
p213
I1
sVderi5to
p214
I1
sVd1p2kwl
p215
I1
sVdfnh3nj
p216
I3
sVd8z4bek
p217
I1
sVdcencjh
p218
I1
sVdja1tkv
p219
I1
sVdcdumi3
p220
I1
sVdkp3nrp
p221
I1
sVdakkugl
p222
I1
sVd47o650
p223
I1
sVdf7wbaw
p224
I1
sVd0zlpkk
p225
I1
sVd2m6o7v
p226
I1
sVdabhcqn
p227
I1
sVcz3o9vn
p228
I4
sVdji3d9h
p229
I1
sVde48eia
p230
I1
sVdishefm
p231
I1
sVd0s0ntz
p232
I1
sVd4834bg
p233
I2
sVczp7s55
p234
I1
sVdet92lv
p235
I1
sVd01x1zq
p236
I1
sVdfs8f9z
p237
I1
sVd5p4g7l
p238
I1
sVdnzggku
p239
I1
sVdflygqb
p240
I1
sVdjwnoem
p241
I1
sVdgkq9yb
p242
I1
sVczp836d
p243
I1
sVdev8c5h
p244
I1
sVdd6w1ja
p245
I2
sVd88awyn
p246
I1
sVddcsjd1
p247
I1
sVd7a30nq
p248
I1
sVd7ip9p5
p249
I1
sVdkdgt1y
p250
I1
sVddgkxog
p251
I1
sVda9pf83
p252
I1
sVdn1aojk
p253
I24
sVd5a8mcz
p254
I1
sVdn1br0e
p255
I2
sVdidd9hw
p256
I1
sVczwgbc0
p257
I1
sVde3427f
p258
I1
sVdnzh8h4
p259
I1
sVd5yhkvp
p260
I1
sVd7lc0wj
p261
I2
sVd63ef54
p262
I1
sVd7juwk7
p263
I1
sVdfb8wap
p264
I1
sVdenq1ex
p265
I1
sVd2u2fwq
p266
I1
sVdd21ec0
p267
I1
sVdqfenjl
p268
I1
sVd4s86pj
p269
I1
sVczdwt1b
p270
I1
sVdpdl5pk
p271
I1
sVd6vnqb4
p272
I1
sVdp5dye7
p273
I1
sVd3s1hci
p274
I1
sVd05132g
p275
I1
sVd2snqes
p276
I1
sVdtd78mq
p277
I1
sVdcxwy2i
p278
I1
sVdjv5qgl
p279
I1
sVdi8vp2b
p280
I1
sVdt2ut5a
p281
I1
sVd397x8g
p282
I1
sVd3ne8eo
p283
I1
sVd9zhghq
p284
I1
sVdmkqlu3
p285
I1
sVd7w3z4j
p286
I1
sVcztomr1
p287
I1
sVd5xoseq
p288
I2
sVdaqeyg8
p289
I1
sVd6pq1oc
p290
I2
sVdidtzx9
p291
I1
sVdn13544
p292
I10
sVdealkxx
p293
I1
sVd0b9cqq
p294
I1
sVdas5sue
p295
I1
sVd50f5rf
p296
I1
sVdixpdex
p297
I3
sVd3r9i6q
p298
I2
sVdacds2s
p299
I1
sVd984830
p300
I1
sVddva07h
p301
I1
sVd5qjnks
p302
I1
sVdakpyor
p303
I1
sVd9ed950
p304
I1
sVdb5e476
p305
I1
sVcz4r64h
p306
I1
sVd24cx80
p307
I5
sVd11ks0i
p308
I1
sVd52lh0u
p309
I2
sVd03qmco
p310
I1
sVd9e8ih7
p311
I1
sVd3f0wor
p312
I1
sVd99sbw5
p313
I1
sVd3s87an
p314
I1
sVd0eyvid
p315
I1
sVdabhbi1
p316
I3
sVda7wfgi
p317
I1
sVdqazl1h
p318
I1
sVd0irqfj
p319
I1
sVd0tm0q1
p320
I1
sVdcg71xt
p321
I2
sVdn1cb54
p322
I2
sVcztrpxp
p323
I1
sVd0eo2lt
p324
I1
sVdcl3493
p325
I1
sVdc4yc73
p326
I1
sVdh0e53f
p327
I1
sVdei1519
p328
I1
sVd5vxw84
p329
I1
sVcynpx23
p330
I1
sVdg3tgou
p331
I1
sVdoihw1k
p332
I3
sVd5fgicr
p333
I1
sVdbnv7vo
p334
I1
sVdgrkmhw
p335
I5
sVd7v1otu
p336
I1
sVd6aj6zy
p337
I2
sVd2elgkj
p338
I1
sVdg6szco
p339
I1
sVd5cwmmj
p340
I2
sVd14jjc6
p341
I1
sVdcmbsiu
p342
I3
sVdf3t9b5
p343
I1
sVddwx95g
p344
I1
sVd3op8qr
p345
I1
sVdbmeux6
p346
I1
sVdidsq2i
p347
I1
sVdflglm3
p348
I1
sVdczchxm
p349
I1
sVd01aime
p350
I1
sVd5mpxco
p351
I1
sVdfwp7ki
p352
I1
sVddhgprv
p353
I1
sVdeug0gz
p354
I1
sVdt2x4ms
p355
I1
sVd1n4jpc
p356
I1
sVd4499c2
p357
I2
sVd01yllj
p358
I1
sVd7kyrbw
p359
I1
sVdj8tm4f
p360
I1
sVdn1674p
p361
I6
sVda1cjtd
p362
I1
sVd67teum
p363
I1
sVd0y4yw3
p364
I1
sVdfe51y3
p365
I1
sVd2ghbae
p366
I1
sVd0havvz
p367
I1
sVde0r38n
p368
I1
sVd5oea72
p369
I1
sVdao8co5
p370
I1
sVd19xwqp
p371
I1
sVdek3inx
p372
I1
sVdbiqlhf
p373
I1
sVd5uw9r1
p374
I1
sVdfy8pm8
p375
I2
sVd1ojkno
p376
I1
sVdffj5eg
p377
I1
sVdb92vbg
p378
I2
sVd0tlhh4
p379
I1
sVd0qkl0o
p380
I1
sVd8a7b8f
p381
I1
sVdb9erfg
p382
I3
sVcym00k5
p383
I2
sVdcay72n
p384
I1
sVdi2m0fp
p385
I6
sVczewecz
p386
I1
sVd63w8i5
p387
I1
sVd984fz5
p388
I1
sVdas8imo
p389
I1
sVdhnsufr
p390
I1
sVd671v2x
p391
I1
sVdcsbtaj
p392
I1
sVd1frldo
p393
I1
sVdc463aw
p394
I1
sVcymn9sr
p395
I1
sVdkh2x53
p396
I2
sVcynxms6
p397
I1
sVdd8sgmj
p398
I1
sVdfzthnd
p399
I2
sVdco85qd
p400
I2
sVd3h2n61
p401
I1
sVcypxlri
p402
I1
sVcyjhs5k
p403
I3
sVczs36e3
p404
I1
sVdmesxdo
p405
I1
sVdijxlp1
p406
I1
sVdk4etit
p407
I1
sVdahkqu5
p408
I1
sVdcreog8
p409
I1
sVczur217
p410
I1
sVd15umdy
p411
I1
sVda5o59a
p412
I2
sVdpawxtc
p413
I1
sVd4st47k
p414
I1
sVdidp564
p415
I1
sVd7o9wh1
p416
I1
sVdcpu91h
p417
I2
sVdn1earb
p418
I6
sVd2kkaan
p419
I2
sVczglzaw
p420
I1
sVd1auupv
p421
I1
sVdn18foa
p422
I2
sVdfzwukc
p423
I1
sVd2qzii0
p424
I2
sVdk0miro
p425
I1
sVdbfieni
p426
I1
sVdn22zhq
p427
I2
sVde34rp0
p428
I1
sVd3d0995
p429
I1
sVdn183ru
p430
I4
sVdg22l9t
p431
I2
sVd4264rx
p432
I1
sVdny8kfh
p433
I1
sVd78q8xk
p434
I1
sVd0htna3
p435
I1
sVdgzmcnp
p436
I1
sVdaz3sde
p437
I1
sVd6d2uq9
p438
I1
sVd2bhmi6
p439
I1
sVd0tdv5j
p440
I1
sVdgfh13c
p441
I1
sVcyhvj7m
p442
I1
sVd2kn1t6
p443
I1
sVd2fgxwm
p444
I1
sVdbc0kmv
p445
I1
sVdnzra35
p446
I1
sVdn918k5
p447
I1
sVd5wdt3n
p448
I1
sVd4i4hxg
p449
I1
sVdqzqy8l
p450
I1
sVcytg5hy
p451
I4
sVdelbahx
p452
I1
sVde5e9mp
p453
I3
sVdmx8a5p
p454
I1
sVdnkm89o
p455
I1
sVd252vvo
p456
I1
sVcym4kmh
p457
I1
sVd93ugg9
p458
I1
sVd0gqzsh
p459
I2
sVdhcje1v
p460
I1
sVdcviv12
p461
I3
sVd2lkbi7
p462
I1
sVda80aj7
p463
I1
sVd98oiab
p464
I1
sVdak9so3
p465
I1
sVdbztzpr
p466
I1
sVd9jtbkg
p467
I1
sVdneobqm
p468
I1
sVd4awavf
p469
I1
sVdh2sho2
p470
I1
sVd595ibo
p471
I1
sVdfqle3k
p472
I1
sVdrljnwj
p473
I1
sVcznnh64
p474
I1
sVdnrd8jr
p475
I1
sVderh2j0
p476
I1
sVd5opf46
p477
I1
sVd3vpvby
p478
I1
sVde4irqu
p479
I1
sVdhn9qjl
p480
I1
sVd8thwj9
p481
I1
sVddbun9m
p482
I1
sVd7eagl4
p483
I5
sVdasn6rx
p484
I1
sVda0lhq4
p485
I1
sVderr8a3
p486
I2
sVdr3yrlz
p487
I1
sVdkpu0z6
p488
I2
sVddcn1i2
p489
I1
sVdaaykwo
p490
I1
sVcyxd82s
p491
I1
sVdivpguz
p492
I1
sVd83n0n1
p493
I1
sVd3sl9y4
p494
I1
sVdbg5ti6
p495
I1
sVd19fgok
p496
I1
sVdn18i1f
p497
I6
sVd7n1a3r
p498
I1
sVdgvzg28
p499
I1
sVd81k5r2
p500
I2
sVcyi2nxe
p501
I1
sVd7e67ml
p502
I1
sVd43as77
p503
I1
sVd19jbee
p504
I1
sVd65go1i
p505
I1
sVdnznmen
p506
I1
sVdgpyc02
p507
I2
sVdh17hwx
p508
I1
sVd4i3d3y
p509
I1
sVd0v3g2s
p510
I2
sVd3wxy94
p511
I1
sVdd6bwtv
p512
I1
sVd277ohg
p513
I1
sVdfpoxw3
p514
I2
sVczaazrw
p515
I1
sVdgl08ui
p516
I2
sVdiwfesw
p517
I1
sVd1t42er
p518
I1
sVdapnbhh
p519
I1
sVczi4rca
p520
I1
sVd45vysa
p521
I1
sVdg8bxb2
p522
I1
sVd1bp62x
p523
I1
sVd651ts0
p524
I1
sVdfnlkhg
p525
I1
sVdg4pq68
p526
I1
sVd1ec08s
p527
I1
sVdcovatz
p528
I1
sVdincf9m
p529
I1
sVd6vejv8
p530
I1
sVd8rgubu
p531
I4
sVcyi2qq5
p532
I1
sVd1hzkqs
p533
I1
sVdid8uzp
p534
I1
sVd9uxq4k
p535
I1
sVd9i2m9q
p536
I2
sVdbfgb0t
p537
I1
sVd37ytd3
p538
I1
sVd27ijva
p539
I1
sVd1atnhf
p540
I1
sVdi33m6r
p541
I1
sVdb0s9gb
p542
I1
sVdr06u3j
p543
I2
sVdeyagz0
p544
I1
sVdazdyap
p545
I2
sVdn1f10z
p546
I1
sVd1p0j2f
p547
I1
sVdiu78kh
p548
I1
sVd38vuy2
p549
I1
sVdbggbbv
p550
I1
sVd3pvswt
p551
I1
sVd1qlm7q
p552
I1
sVdfx2673
p553
I1
sVdphhf5j
p554
I1
sVdinc6z9
p555
I1
sVd8f8pdz
p556
I1
sVd9jwzif
p557
I1
sVdmkxx0j
p558
I1
sVdcj11aj
p559
I2
sVdhgdop4
p560
I1
sVdntwo0i
p561
I1
sVd3j8zf7
p562
I1
sVd3i0c84
p563
I1
sVd4538ga
p564
I1
sVdn11vo0
p565
I2
sVd5zl9i2
p566
I2
sVczokzzw
p567
I1
sVddo1jka
p568
I1
sVd6knjdy
p569
I1
sVd0mdot6
p570
I2
sVdi37n5k
p571
I1
sVdgre2ro
p572
I1
sVdjxjsyh
p573
I3
sVd0h30or
p574
I1
sVcyjsg3x
p575
I2
sVdk0tjg2
p576
I2
sVd1qibmc
p577
I1
sVdkxkbpx
p578
I1
sVd45iqud
p579
I1
sVdduv9g1
p580
I1
sVd1jzez2
p581
I1
sVdjtfmvc
p582
I2
sVd2dyk7p
p583
I1
sVdh6we0c
p584
I1
sVdnolzni
p585
I1
sVdfoo4e3
p586
I1
sVdnu7p4z
p587
I1
sVd0blsjw
p588
I1
sVdrre6bu
p589
I1
sVdmstqs1
p590
I1
sVczjza6v
p591
I1
sVd1a5kot
p592
I1
sVdbgrubm
p593
I1
sVcyhwidm
p594
I1
sVdbhbkde
p595
I2
sVd5zgj8a
p596
I1
sVdctr145
p597
I1
sVdmnun70
p598
I1
sVd4uklo9
p599
I1
sVddgismk
p600
I1
sVdmum19o
p601
I2
sVdn1q8yh
p602
I4
sVd0b8tlr
p603
I4
sVcznykio
p604
I1
sVczj4vhc
p605
I1
sVd1uzhjc
p606
I3
sVd933ttp
p607
I1
sVdr2rsgd
p608
I1
sVcyle31q
p609
I2
sVdibqufh
p610
I1
sVdojz1e9
p611
I1
sVd1e63l4
p612
I2
sVcz4feas
p613
I1
sVd7tmiru
p614
I1
sVdn1h9ks
p615
I2
sVdp62ip8
p616
I2
sVdg7arva
p617
I2
sVdekiq5x
p618
I1
sVdj3iojt
p619
I4
sVdesl6ow
p620
I2
sVdfsstke
p621
I1
sVdj0opd7
p622
I1
sVd45mtqz
p623
I1
sVdpw9pma
p624
I1
sVdgk47wg
p625
I1
sVd5wkx7i
p626
I1
sVda1egnh
p627
I1
sVdkx1jz3
p628
I1
sVda341rs
p629
I1
sVd5yzmsn
p630
I1
sVdddyvw9
p631
I1
sVde2wpbi
p632
I2
sVcyl1iy1
p633
I1
sVczq635e
p634
I1
sVdhaw4lx
p635
I1
sVdjkk4hp
p636
I1
sVdt8ktll
p637
I1
sVd7ab18h
p638
I1
sVd9hyqzt
p639
I1
sVd3d4vk7
p640
I1
sVdj5t2h9
p641
I1
sVd5f1g8r
p642
I1
sVdj0ujit
p643
I1
sVd6lmay9
p644
I1
sVdb0esr2
p645
I1
sVd2qo7ba
p646
I1
sVczflhsc
p647
I1
sVd6i1znx
p648
I1
sVd4go390
p649
I1
sVdhdbj5f
p650
I2
sVdid2wvt
p651
I2
sVd8tgj0u
p652
I1
sVdatdayx
p653
I1
sVczokpki
p654
I1
sVdfgk9bn
p655
I1
sVd157a4r
p656
I1
sVd9uijgo
p657
I1
sVd7r30b6
p658
I1
sVdn16kpn
p659
I3
sVddyg9ok
p660
I3
sVdfltjma
p661
I1
sVd2gt07l
p662
I1
sVd0hyj5p
p663
I1
sVczktnht
p664
I1
sVd6i3g6z
p665
I1
sVd5gzy3e
p666
I1
sVczz39e7
p667
I1
sVd9i2cpn
p668
I1
sVdgkvc0q
p669
I1
sVdmoi68q
p670
I1
sVd4zo7lu
p671
I1
sVddut6rf
p672
I1
sVcz5bwvn
p673
I1
sVd5vro87
p674
I1
sVd68ywho
p675
I1
sVd9wztoe
p676
I1
sVdpk7we1
p677
I1
sVd0oe62n
p678
I1
sVd3fikkr
p679
I1
sVdcbfvwe
p680
I1
sVdtgtddj
p681
I1
sVdd0apr6
p682
I1
sVdnzmpbg
p683
I2
sVd0kxgsg
p684
I2
sVd9f1tiq
p685
I2
sVdstyrux
p686
I1
sVdd0y6yp
p687
I1
sVdj74e6p
p688
I1
sVdn63fdn
p689
I1
sVd8ne1q3
p690
I1
sVd1y5xhb
p691
I1
sVd2qfk0k
p692
I1
sVda1ckgo
p693
I1
sVd6f7dej
p694
I1
sVd2k5th3
p695
I1
sVd62oipo
p696
I3
sVd2go3nx
p697
I1
sVd45v3e6
p698
I1
sVdkjpivb
p699
I1
sVdaawjbs
p700
I1
sVdgs1km5
p701
I1
sVd175u2y
p702
I1
sVd7sogc9
p703
I1
sVdj634wr
p704
I1
sVddctx8m
p705
I1
sVdn7xzi1
p706
I1
sVd67q7hq
p707
I1
sVd6hzq4j
p708
I3
sVdd7swio
p709
I2
sVd1818vu
p710
I1
sVcyjndpv
p711
I1
sVd3su8xd
p712
I1
sVdadlj8e
p713
I2
sVds6g092
p714
I1
sVddmmaq1
p715
I4
sVd9uf3xp
p716
I2
sVde3yefu
p717
I1
sVdfzw8vq
p718
I2
sVd65i2ct
p719
I2
sVd8td3rg
p720
I1
sVd85xvpd
p721
I1
sVd5oxhob
p722
I1
sVd0bkwma
p723
I1
sVdbg57zr
p724
I1
sVdii1lob
p725
I1
sVd704kzw
p726
I1
sVdnj406w
p727
I1
sVd6idich
p728
I1
sVdjtdwns
p729
I1
sVdeaw7qg
p730
I1
sVdfxir3y
p731
I1
sVd7l1q75
p732
I2
sVdo5c7i5
p733
I1
sVd8vcoze
p734
I1
sVdd34p8o
p735
I1
sVdd3kow7
p736
I1
sVdi336h9
p737
I1
sVddmmg9y
p738
I3
sVczlhng6
p739
I1
sVdhxhrri
p740
I1
sVd8z594v
p741
I1
sVd9d94ol
p742
I1
sVdd2wkqs
p743
I2
sVd16t0zd
p744
I2
sVd27zl16
p745
I1
sVdk0z2js
p746
I1
sVcyljbud
p747
I1
sVda6arz3
p748
I1
sVdc6uuiy
p749
I1
sVdjf506r
p750
I1
sVdmjp820
p751
I2
sVdd3lief
p752
I1
sVd067c64
p753
I1
sVd6ht7s1
p754
I1
sVd81uqlw
p755
I1
sVd0b8k42
p756
I5
sVd4srpc9
p757
I1
sVdfbswqe
p758
I1
sVddcmcff
p759
I8
sVd23bi8p
p760
I1
sVd9yrq3v
p761
I1
sVd5sljkx
p762
I1
sVdf3is4o
p763
I2
sVdenunwd
p764
I1
sVdjtp83e
p765
I2
sVczkk1zb
p766
I1
sVdgy2u1e
p767
I1
sVdf40i5u
p768
I3
sVdfthe3s
p769
I4
sVdd6psam
p770
I1
sVd70jfzi
p771
I1
sVdii3c41
p772
I2
sVdcd670l
p773
I1
sVd4bn7og
p774
I1
sVdc3ftya
p775
I1
sVd61nxkk
p776
I1
sVdcukjk4
p777
I1
sVdnov6pw
p778
I1
sVdon8oa5
p779
I1
sVdgmhcn9
p780
I1
sVddc0wub
p781
I1
sVddc0ehl
p782
I1
sVdssesmd
p783
I1
sVdcx17bq
p784
I1
sVd4jkz1g
p785
I1
sVdaku86s
p786
I2
sVd1d5y48
p787
I1
sVdgo1rbk
p788
I3
sVd9iqcmr
p789
I1
sVdezz054
p790
I1
sVd55o45z
p791
I1
sVdms4sjj
p792
I1
sVd2y3tbi
p793
I1
sVdaogakm
p794
I1
sVdgmo7h5
p795
I1
sVdpqkp6k
p796
I1
sVdqkgewa
p797
I1
sVcztakya
p798
I1
sVd1depmu
p799
I1
sVdeu06vo
p800
I1
sVd4qsj6c
p801
I1
sVd1mn3x3
p802
I1
sVdeoua3j
p803
I2
sVd0bkwbn
p804
I1
sVdeu0sgw
p805
I2
sVdhjl6kk
p806
I2
sVde8tr44
p807
I1
sVd3ui348
p808
I1
sVdeha3jp
p809
I1
sVd2aaidb
p810
I1
sVcyu3av0
p811
I1
sVd4hi8lz
p812
I1
sVd0polxw
p813
I4
sVd39xjvb
p814
I1
sVczaduga
p815
I1
sVdcpt4zq
p816
I1
sVdhonhnq
p817
I1
sVdidi2q4
p818
I1
sVdfe4nz3
p819
I1
sVcywh1n2
p820
I1
sVcztjgdi
p821
I1
sVdf8a5s4
p822
I1
sVdhikck9
p823
I1
sVdelagbb
p824
I1
sVdc8zbrz
p825
I1
sVdgs6bru
p826
I1
sVcz0al0v
p827
I1
sVda7ntvg
p828
I1
sVdecncjy
p829
I1
sVd48cpvw
p830
I1
sVd25pw84
p831
I1
sVdfpwmt5
p832
I1
sVddcqkd6
p833
I1
sVczojo9l
p834
I1
sVdoky4dz
p835
I2
sVd5wnjqq
p836
I1
sVd9tm4lp
p837
I1
sVdcw2uao
p838
I1
sVd0jfmnm
p839
I3
sVdn1f52r
p840
I18
sVdmtfv9b
p841
I1
sVd7jwn4l
p842
I1
sVdjfodff
p843
I1
sVdhp9hrt
p844
I1
sVd3pkntv
p845
I1
sVd0b8l0u
p846
I2
sVde32xvy
p847
I1
sVd2doqe9
p848
I1
sVddmn73d
p849
I2
sVdbuz4ph
p850
I1
sVd8zlkls
p851
I1
sVd37els2
p852
I1
sVczm3rlh
p853
I1
sVd5cxigm
p854
I1
sVdadlo99
p855
I1
s.