(dp0
Vd7e0j1u
p1
I2
sVd54wnpn
p2
I2
sVdn3gloe
p3
I1
sVdimj3gl
p4
I1
sVdeh1g9d
p5
I1
sVd3euhmd
p6
I1
sVczbmpzp
p7
I1
sVd3icyl1
p8
I1
sVdefwwhx
p9
I1
sVd9yjn13
p10
I1
sVcyl9fev
p11
I1
sVdpmcztm
p12
I3
sVds668c1
p13
I1
sVcyybx0p
p14
I1
sVczlwqzv
p15
I1
sVdfljerj
p16
I4
sVdeg8511
p17
I1
sVdqwdi75
p18
I1
sVd9a8mid
p19
I1
sVdjsbxjh
p20
I1
sVdndasum
p21
I1
sVdifnz0z
p22
I1
sVdfnvntf
p23
I1
sVdguhbcn
p24
I6
sVd4ep5a3
p25
I1
sVdaqgqdu
p26
I1
sVdrshr5w
p27
I1
sVd2g5ugp
p28
I1
sVczqre7b
p29
I1
sVd0jdtpu
p30
I1
sVd24h8j7
p31
I1
sVdc69zih
p32
I2
sVddwyk90
p33
I1
sVd39xmzy
p34
I1
sVd0d87p7
p35
I1
sVde5fcmg
p36
I1
sVdbfvinu
p37
I1
sVdc8h3j0
p38
I1
sVdb45zoh
p39
I1
sVdqpjjcb
p40
I2
sVdqstaxv
p41
I1
sVddoe7cl
p42
I1
sVd2z7ogp
p43
I1
sVdchm7k0
p44
I1
sVd0jqt89
p45
I1
sVdds923u
p46
I1
sVd2a5zrq
p47
I1
sVdehjonb
p48
I1
sVd0tmxcr
p49
I1
sVds7oday
p50
I1
sVdd0d9ev
p51
I1
sVd1oc906
p52
I1
sVdev633e
p53
I1
sVdhayhyw
p54
I2
sVd0zgcna
p55
I1
sVdhar944
p56
I1
sVd4qtkfz
p57
I1
sVdfv4ws7
p58
I1
sVd125gsn
p59
I3
sVdb4jmpa
p60
I1
sVdn1wi0v
p61
I1
sVczd5wgr
p62
I1
sVdf1jgwq
p63
I1
sVcykxwtt
p64
I1
sVdjiljxn
p65
I1
sVd3089p5
p66
I1
sVdepizca
p67
I1
sVd2smb0e
p68
I1
sVd0gw13b
p69
I2
sVdg7ez9o
p70
I1
sVddumun4
p71
I1
sVdb86f5s
p72
I1
sVdcuh0m7
p73
I1
sVdf32s0s
p74
I1
sVczigb7l
p75
I1
sVdsyoqas
p76
I1
sVdbe112c
p77
I1
sVdepwkp1
p78
I1
sVd66nhdf
p79
I1
sVdhzmytb
p80
I1
sVcyu0c9o
p81
I1
sVd2lrew4
p82
I1
sVd3z84hx
p83
I1
sVdnxmm5x
p84
I1
sVddpyt5d
p85
I1
sVdidnr51
p86
I1
sVd39g75u
p87
I1
sVd7jem49
p88
I1
sVdkfylax
p89
I1
sVdcpz3ws
p90
I2
sVdpmdbrl
p91
I2
sVdb86af3
p92
I2
sVdc2izsz
p93
I1
sVdav5ofq
p94
I1
sVd9nd444
p95
I2
sVd1278wu
p96
I1
sVdifyr6q
p97
I1
sVdg7f9ri
p98
I3
sVddgbpn7
p99
I1
sVdjupout
p100
I1
sVd5aqo82
p101
I1
sVdof5m9t
p102
I1
sVd83r1sp
p103
I1
sVdbokzkh
p104
I1
sVd57bdgm
p105
I1
sVdicubw7
p106
I1
sVderikvz
p107
I2
sVdcuk7wg
p108
I1
sVdfkf3cm
p109
I1
sVd1in62o
p110
I1
sVdglxes8
p111
I1
sVdeuxij2
p112
I3
sVd7905lw
p113
I1
sVdes12i1
p114
I2
sVdi5jgmw
p115
I1
sVd169oek
p116
I1
sVdg7qcf6
p117
I2
sVd1k96nl
p118
I1
sVd9c4lut
p119
I1
sVdfasrs4
p120
I1
sVdrrrmnf
p121
I1
sVczsq9de
p122
I1
sVd0o9ohl
p123
I1
sVczfcgc6
p124
I1
sVd9nljis
p125
I1
sVdhewdw0
p126
I1
sVd1yeaxe
p127
I1
sVcyknaoo
p128
I1
sVdq3kagm
p129
I1
sVdbnnbzc
p130
I2
sVd5f13u2
p131
I1
sVdagcgob
p132
I1
sVd971dn3
p133
I1
sVcz4tqkn
p134
I1
sVdf16pre
p135
I1
sVd0ktycz
p136
I1
sVd2naihd
p137
I1
sVdncru97
p138
I1
sVd6re62p
p139
I1
sVdarixs0
p140
I1
sVd608sig
p141
I1
sVdovr7tn
p142
I2
sVd59xdse
p143
I1
sVdosbkqd
p144
I1
sVd50xi5c
p145
I2
sVdcni5ma
p146
I1
sVdhzmxlj
p147
I2
sVdtej2h7
p148
I1
sVczfd2tb
p149
I1
sVd3aybjq
p150
I1
sVdhhxvxc
p151
I1
sVdfhpx13
p152
I1
sVdgq9x1o
p153
I1
sVd09j5d4
p154
I1
sVd1nawcb
p155
I1
sVdh15hzy
p156
I1
sVd0q3p0a
p157
I1
sVde1whwz
p158
I1
sVd8lgo4b
p159
I1
sVdkmtzev
p160
I1
s.