(dp0
Vdhrplzc
p1
I1
sVd5vdofj
p2
I1
sVdt35wto
p3
I1
sVdsd362y
p4
I2
sVdcjcwcb
p5
I1
sVd222bck
p6
I1
sVdibwr32
p7
I1
sVdd8pgd3
p8
I1
sVdne0cy3
p9
I1
sVczd2aof
p10
I1
sVd8fnuog
p11
I1
sVczv420g
p12
I1
sVd22ct1n
p13
I1
sVd1g3sx0
p14
I1
sVd6n57y3
p15
I1
sVdataz5g
p16
I1
sVczv3zw1
p17
I2
sVd22ui0s
p18
I1
s.