(dp0
Vd04wqik
p1
I1
s.(dp0
Vd04wqik
p1
I1
sVd06li58
p2
I1
s.(dp0
Vd1g0hkv
p1
I1
sVd04wqik
p2
I1
s.(dp0
Vd1g8dte
p1
I1
sVd04wqik
p2
I1
s.(dp0
Vd1nut0c
p1
I1
sVd04wqik
p2
I1
s.(dp0
Vd04wqik
p1
I1
sVd2aia4m
p2
I1
s.(dp0
Vd2km0o4
p1
I1
sVd04wqik
p2
I1
s.(dp0
Vd2km0o4
p1
I1
sVd04wqik
p2
I1
s.(dp0
Vdayvtjy
p1
I1
sVd04wqik
p2
I1
s.(dp0
Vd04wqik
p1
I1
sVdb6qf5i
p2
I1
s.(dp0
Vdbs9bva
p1
I1
sVd04wqik
p2
I1
s.(dp0
Vdf1x07a
p1
I1
sVd04wqik
p2
I1
s.(dp0
Vd04wqik
p1
I1
sVdf1zl1g
p2
I1
s.(dp0
Vd04wqik
p1
I1
sVdf1zl1g
p2
I1
s.(dp0
Vdfmug39
p1
I1
sVd04wqik
p2
I1
s.(dp0
Vdheds3v
p1
I1
sVd04wqik
p2
I1
s.(dp0
Vd04wqik
p1
I1
sVdjqys19
p2
I1
s.(dp0
Vd04wqik
p1
I1
sVdjqys19
p2
I1
s.(dp0
Vdsadop3
p1
I1
sVd04wqik
p2
I1
s.(dp0
Vdsadop3
p1
I1
sVd04wqik
p2
I1
s.(dp0
Vdsadop3
p1
I1
sVd04wqik
p2
I1
s.