(dp0
Vd7463xv
p1
I1
sVd4dgae2
p2
I1
sVdrt6y3x
p3
I1
sVdbdtwnx
p4
I1
sVcysmkol
p5
I1
sVddgz408
p6
I1
sVd9i7v5l
p7
I1
sVd5dii17
p8
I1
sVczr0we0
p9
I1
sVd4or4v6
p10
I1
sVdqmdpys
p11
I1
sVd1ddwbp
p12
I1
sVda1an0m
p13
I1
sVczkw66o
p14
I1
sVda2oj7y
p15
I1
sVdrz4n0k
p16
I1
sVd7nl70w
p17
I1
sVdjz9wcf
p18
I1
sVdip89we
p19
I2
sVd9nb8ue
p20
I1
sVd14x3zv
p21
I1
sVdryk33b
p22
I1
sVda1edyz
p23
I2
sVde8d63c
p24
I1
sVd1gore9
p25
I1
sVd0b1830
p26
I1
sVd7416ex
p27
I2
sVd1giihg
p28
I1
sVdrzplau
p29
I2
sVd1ggeu7
p30
I2
sVdchxmsr
p31
I1
sVd7ffh4w
p32
I1
sVd3tbo4y
p33
I1
sVdqb4gzh
p34
I1
sVczr12h5
p35
I1
sVdes8ume
p36
I1
sVd1ckkp7
p37
I1
sVd1dd2jh
p38
I2
sVd72hw70
p39
I1
sVd5nkmss
p40
I1
sVcz7x5qj
p41
I1
sVdaf1chg
p42
I1
sVdeugf7q
p43
I1
sVdafjiul
p44
I1
sVdg1nx14
p45
I1
sVcykexcz
p46
I1
sVdrtgrh3
p47
I1
sVd9d4tq1
p48
I1
sVdsp21vf
p49
I1
sVd6pub9g
p50
I1
sVd9cd83c
p51
I1
sVdqnkfde
p52
I5
sVd70mjt9
p53
I1
sVd2i4tiq
p54
I1
sVd54nddy
p55
I1
sVdqb3uh2
p56
I1
sVdg1gysx
p57
I2
sVdkz3k9t
p58
I1
sVdf07qft
p59
I1
sVda1fbh0
p60
I1
sVd32gsag
p61
I1
sVd9p6xro
p62
I1
sVd7fec7c
p63
I1
sVdhtomnd
p64
I1
sVdqmmpnw
p65
I1
sVdhrc0hf
p66
I1
sVdetif5x
p67
I1
sVda195cu
p68
I2
s.