(dp0
Vd56czre
p1
I1
sVd3zo0iy
p2
I1
sVd011wnv
p3
I1
sVczqs02v
p4
I1
sVd0mcb9l
p5
I1
sVd0pb6hj
p6
I1
sVdko5ddk
p7
I1
sVczw6sll
p8
I1
sVdhen73e
p9
I1
sVd69is75
p10
I1
sVd6bq13k
p11
I1
sVdbilomt
p12
I1
sVd3ugd33
p13
I1
sVdbxz3x0
p14
I1
sVdd9hhmi
p15
I1
sVd3za073
p16
I1
sVczzzagy
p17
I1
sVdfuvhsb
p18
I1
sVdpd8mzl
p19
I1
sVcz52zqe
p20
I1
sVd59z53u
p21
I1
sVdc2s7mf
p22
I1
sVds0n7fh
p23
I1
sVdp4oeg8
p24
I1
sVddz36yk
p25
I1
sVcyku7b3
p26
I1
sVd161u16
p27
I2
sVd20x7lm
p28
I1
sVd7rj538
p29
I1
sVdos3b3m
p30
I1
sVddsvpvo
p31
I1
sVdhe2dci
p32
I1
sVcypp0ge
p33
I1
sVd181u3o
p34
I1
sVddc33qr
p35
I1
sVd8ovatu
p36
I1
sVd0b7248
p37
I1
sVcyx0695
p38
I1
sVd0y44nd
p39
I1
sVd0ydo9k
p40
I1
sVdcy3zh5
p41
I1
sVdcm5lnv
p42
I1
sVdbuplm8
p43
I1
sVd5llsgh
p44
I1
sVd99xsu5
p45
I1
sVdau5tf2
p46
I1
sVd2qclhi
p47
I1
sVdn64ifq
p48
I1
sVdcv5rlv
p49
I1
sVd59zemy
p50
I1
sVcyw2o1d
p51
I1
sVdktuly6
p52
I1
sVd0s42b8
p53
I1
sVcyv28cr
p54
I1
sVd1pv5jf
p55
I1
sVczla36k
p56
I1
sVdan6ho3
p57
I1
sVddg9c58
p58
I1
sVdgzstnk
p59
I1
sVd865dnl
p60
I1
sVdi27y46
p61
I1
sVdaeo2wl
p62
I1
sVd0batvt
p63
I1
sVczc7cs7
p64
I1
sVdbqqqoa
p65
I1
sVdn82kr0
p66
I1
sVdh4knpv
p67
I1
sVczbtttb
p68
I1
sVd090cdn
p69
I1
sVddyb2i9
p70
I3
sVdbo5whu
p71
I1
sVd2kz97u
p72
I1
sVdfio3s8
p73
I1
sVdalz6mg
p74
I1
sVdbf8p27
p75
I1
sVdauxh2p
p76
I1
sVd6eiks7
p77
I1
sVde0rqz2
p78
I1
sVdfrvxdp
p79
I1
sVdtbpqnz
p80
I1
sVdbg5b72
p81
I1
sVd50f45b
p82
I1
sVdj2gtgj
p83
I1
sVcyp1tqp
p84
I2
sVddmj7e8
p85
I1
sVczbf0c8
p86
I1
sVdgsi4ad
p87
I1
sVddj56m9
p88
I1
sVdpd8h5x
p89
I1
sVd31ybxj
p90
I1
sVd4bf79u
p91
I1
s.