(dp0
Vdkoyz72
p1
I2
sVd5x400p
p2
I3
sVd8fh6d5
p3
I6
sVdnpih9n
p4
I1
sVdc00wni
p5
I2
sVd97j83w
p6
I1
sVdj0s96t
p7
I1
sVdnik84b
p8
I1
sVd30nu3e
p9
I1
sVdjn4k54
p10
I1
sVd5mucb4
p11
I1
sVd9ij39r
p12
I1
sVd3ov6yq
p13
I3
sVdhse0h0
p14
I1
sVda6s31o
p15
I6
sVd4h4ot6
p16
I4
sVdp4umlm
p17
I3
sVds7uqpu
p18
I1
sVd6eopyq
p19
I1
sVd7e5pb8
p20
I1
sVdmjxmny
p21
I1
sVdqsgnu2
p22
I1
sVd5m4e56
p23
I1
sVd0wopkj
p24
I3
sVdedo01w
p25
I1
sVdfvs6co
p26
I1
sVd34qxt7
p27
I1
sVcyv7n1z
p28
I2
sVdqkgvta
p29
I1
sVdkg2mmc
p30
I4
sVdjgvs4r
p31
I1
sVdhe2dci
p32
I3
sVcz9yi3n
p33
I1
sVdf5uyw7
p34
I1
sVd1v2hpd
p35
I1
sVd3rfggy
p36
I1
sVdf7x4g2
p37
I3
sVd6kaex1
p38
I1
sVdclequ9
p39
I3
sVd6l8hxt
p40
I1
sVde4132n
p41
I2
sVddcq9d5
p42
I2
sVcznsrwu
p43
I1
sVdh0wc7i
p44
I1
sVdn1pt6u
p45
I2
sVczgh8vs
p46
I1
sVd7z47cv
p47
I1
sVd03mar6
p48
I1
sVd1p2cj4
p49
I5
sVds0jwss
p50
I1
sVdgp1dqq
p51
I1
sVd6qfuwc
p52
I1
sVdgvc1b1
p53
I1
sVdh59yga
p54
I1
sVd7fg5lv
p55
I1
sVdeuu8ap
p56
I1
sVczri0yz
p57
I2
sVcykf0d4
p58
I1
sVdfoub4m
p59
I1
sVczgr3wb
p60
I1
sVdchnpnj
p61
I1
sVdc97qqo
p62
I1
sVdpxt8mj
p63
I2
sVdhue39a
p64
I1
sVdfqcphh
p65
I1
sVcyxyuky
p66
I1
sVd48z279
p67
I1
sVd7qr993
p68
I1
sVd04dd6d
p69
I2
sVdgnetgd
p70
I2
sVd9mtmee
p71
I1
sVd5prlqu
p72
I2
sVd4q1xgd
p73
I1
sVd1p1s7t
p74
I6
sVda5idsz
p75
I3
sVd2rgb96
p76
I1
sVdasfag4
p77
I1
sVd5im7s6
p78
I1
sVda4g2bj
p79
I2
sVd0yd0y5
p80
I2
sVdn6q0g3
p81
I1
sVdg7rvqv
p82
I1
sVdcimrkr
p83
I1
sVcyz6528
p84
I1
sVd6mg552
p85
I1
sVd71jwu9
p86
I1
sVdbdeloa
p87
I3
sVdgk9phn
p88
I1
sVdo36kat
p89
I1
sVd20ew4g
p90
I1
sVdj0q1ws
p91
I1
sVd1frs5r
p92
I1
sVdnthpzi
p93
I1
sVd17gjh0
p94
I1
sVd877v9f
p95
I1
sVdj2fgf2
p96
I1
sVdemdlpx
p97
I2
sVdb7cx5i
p98
I1
sVd2e9ihf
p99
I1
sVdht77bm
p100
I1
sVd4n0jh5
p101
I1
sVd1p9i5u
p102
I1
sVdn3vzgm
p103
I2
sVdnvm9ft
p104
I1
sVdprswtp
p105
I1
sVdhhb26d
p106
I1
sVdarm3ur
p107
I1
sVd243who
p108
I2
sVdfy0naj
p109
I5
sVdhr3f7h
p110
I2
sVd46z51y
p111
I3
sVd6l07rv
p112
I7
sVdbtm4k5
p113
I3
sVd2z0yjo
p114
I1
sVdpxac7t
p115
I2
sVd7dwwfd
p116
I1
sVdmki199
p117
I3
sVdidatpe
p118
I1
sVdc6t105
p119
I1
sVd2333ki
p120
I1
sVd7ywys4
p121
I2
sVd0dvc9y
p122
I6
sVd26d1n1
p123
I9
sVd66mmlv
p124
I1
sVd4qx064
p125
I1
sVdn5lb6m
p126
I1
sVdiwf2j2
p127
I2
sVd90sgru
p128
I4
sVd88bi2i
p129
I1
sVdsr0nax
p130
I1
sVd28xv2v
p131
I2
sVd2wuhvx
p132
I1
sVd4xhyy2
p133
I3
sVd61tp18
p134
I1
sVd94hwuf
p135
I1
sVd7v2pfh
p136
I1
sVdhusrwz
p137
I1
sVd6w630d
p138
I2
sVd2twdqe
p139
I1
sVczaajnk
p140
I1
sVddgwuj8
p141
I1
sVdi6twgs
p142
I1
sVdezy8nj
p143
I1
sVdbdhuae
p144
I1
sVdcntk0f
p145
I1
sVdd7467u
p146
I1
sVdocrgys
p147
I1
sVdfyaip1
p148
I1
sVdihe7ow
p149
I2
sVdgolwoc
p150
I1
sVcz45gu2
p151
I1
sVcynt7am
p152
I1
sVd72s1c0
p153
I1
sVcze18v0
p154
I5
sVdks97mz
p155
I5
sVd3bin2x
p156
I1
sVdhh307b
p157
I1
sVda7zqto
p158
I1
sVd4nejqg
p159
I2
sVdfk4s5v
p160
I1
sVd4o6xv7
p161
I1
sVdsm27ny
p162
I1
sVcyjs5rq
p163
I1
sVdhyrgah
p164
I1
sVdiah2g8
p165
I1
sVd6uh87b
p166
I1
sVdr5gpo9
p167
I1
sVcytcvma
p168
I3
sVd2a2yqe
p169
I2
sVdauscda
p170
I1
sVd12aiwv
p171
I1
sVdmh2bgg
p172
I1
sVd995ude
p173
I1
sVczlu1o2
p174
I2
sVdecqyt8
p175
I2
sVcyzb2xb
p176
I1
sVd70y7tz
p177
I1
sVdk7d0zl
p178
I2
sVdayjwtb
p179
I1
sVd07d0id
p180
I1
sVde7xlg8
p181
I2
sVddst68x
p182
I2
sVdfv1vlz
p183
I2
sVdqc1n4u
p184
I1
sVd7q1atj
p185
I1
sVdsvaeix
p186
I1
sVdazjm14
p187
I1
sVcyq7gao
p188
I1
sVdn0svvu
p189
I4
sVdoxehre
p190
I3
sVd8ghyvv
p191
I4
sVdh4wds8
p192
I2
sVdc99qy6
p193
I1
sVdeug0gz
p194
I1
sVdjsibmq
p195
I1
sVd0nw2dh
p196
I2
sVd7jav5q
p197
I1
sVdhm9q2l
p198
I2
sVdbxut9e
p199
I1
sVdjwnrwb
p200
I1
sVdi46av5
p201
I1
sVdkp979c
p202
I1
sVd8gxx5d
p203
I6
sVd0eo5dn
p204
I2
sVds918jl
p205
I5
sVd84ovb7
p206
I1
sVd36fxe3
p207
I1
sVd623lun
p208
I1
sVd2ro2of
p209
I1
sVcz2oisi
p210
I3
sVd21v8ox
p211
I1
sVdikqcyf
p212
I1
sVcyjxubb
p213
I2
sVd3sq1jc
p214
I1
sVdnaehz3
p215
I1
sVdp80xdz
p216
I5
sVdhna25o
p217
I2
sVdavo0vx
p218
I1
sVdt38ydu
p219
I1
sVdf4oy11
p220
I2
sVcz078yg
p221
I1
sVdbsdxyx
p222
I1
sVdp6gvgt
p223
I1
sVd6znuxh
p224
I2
sVczkz1y5
p225
I5
sVddizqls
p226
I1
sVdt344v7
p227
I1
sVd1pzxc8
p228
I1
sVdfoeo8l
p229
I1
sVdp7pnkb
p230
I1
sVdh442oi
p231
I2
sVd5zks1c
p232
I1
sVd3re521
p233
I1
sVd14q5bi
p234
I2
sVd2hjxo4
p235
I1
sVdkd3w36
p236
I1
sVd0z7k7w
p237
I1
sVd02ve51
p238
I1
sVd5pwsql
p239
I5
sVd7u0ev6
p240
I1
sVd83aixx
p241
I1
sVd19e1rq
p242
I1
sVd8c66ft
p243
I1
sVdpml09x
p244
I2
sVdhr37ah
p245
I1
sVdinc6z9
p246
I1
sVdeq15wv
p247
I2
sVd9gesgx
p248
I1
sVdc012q7
p249
I2
sVczjyp3a
p250
I1
sVdgua4nx
p251
I1
sVd1zjudz
p252
I2
sVcz0jns3
p253
I1
sVde7qr3b
p254
I1
sVdehr923
p255
I1
sVcyuxx8q
p256
I1
sVdb7qstk
p257
I1
sVdkvfv9m
p258
I1
sVd1otx9e
p259
I1
sVdebdz9o
p260
I1
sVczlpgjy
p261
I1
sVd9yuzv0
p262
I2
sVds7u2gw
p263
I2
sVdcbzxtu
p264
I1
sVdb0yvc4
p265
I1
sVdh46b3h
p266
I2
sVcypr1hp
p267
I1
sVdjdmull
p268
I1
sVd06t3om
p269
I1
sVdc7vgfj
p270
I3
sVdavsqkt
p271
I2
sVdnw4eny
p272
I1
sVde4pi7l
p273
I4
sVdih3rhq
p274
I1
sVdkkpboy
p275
I2
sVdqtq3ss
p276
I1
sVd26svz0
p277
I1
sVd7ab18h
p278
I1
sVdi2krcz
p279
I1
sVcym42ux
p280
I3
sVdd28yc4
p281
I1
sVd3did4o
p282
I5
sVdgjj1oz
p283
I1
sVdezue6l
p284
I1
sVdbv7k19
p285
I2
sVd8k5ip0
p286
I1
sVddum6sa
p287
I1
sVd6f2wr4
p288
I2
sVdkehy6g
p289
I1
sVdga76zx
p290
I1
sVd3j94a8
p291
I1
sVczd695r
p292
I1
sVd0yf2b2
p293
I1
sVdg7qizp
p294
I4
sVd28wtlc
p295
I1
sVdgi1zut
p296
I6
sVdc2pwg7
p297
I1
sVd9tgt90
p298
I3
sVddih3q8
p299
I1
sVdi3c20w
p300
I2
sVddc98xn
p301
I3
sVdffv6qz
p302
I1
sVdib1xev
p303
I1
sVd9wnbmr
p304
I2
sVdh4i5c1
p305
I1
sVdmh0t62
p306
I1
sVd94hikq
p307
I1
sVdi2xl5n
p308
I2
sVddevbx8
p309
I2
sVd63xljj
p310
I3
sVd21m6oq
p311
I1
sVdh721os
p312
I1
sVczcp6sa
p313
I4
sVcyl31bh
p314
I1
sVd05azuo
p315
I1
sVdglichs
p316
I1
sVddbyarm
p317
I1
sVd1aerhb
p318
I1
sVdrkvyqb
p319
I1
sVdel5x77
p320
I2
sVd9yqkrd
p321
I1
sVd0u2i84
p322
I1
sVcyug3mq
p323
I1
sVdj23nza
p324
I1
sVdj131dl
p325
I2
sVd6xr1vy
p326
I4
sVd2alm2z
p327
I1
sVdgvr5ow
p328
I2
sVdb7jfhy
p329
I1
sVd8vwi40
p330
I1
sVdbh7p4c
p331
I1
sVdalrcep
p332
I2
sVcyik9f7
p333
I2
sVdgfpze4
p334
I2
sVd5epp8f
p335
I1
sVddwx7u6
p336
I1
sVd6974ev
p337
I1
sVdfr9z5k
p338
I2
sVdqxa6qi
p339
I4
sVd5xm8c6
p340
I1
sVdihqygq
p341
I3
sVdew5ku4
p342
I1
sVdq7h8wd
p343
I1
sVdktuly6
p344
I1
sVde8p8uj
p345
I1
sVd4q345t
p346
I1
sVdd18ia5
p347
I1
sVdfv1w4d
p348
I1
sVd15jcto
p349
I2
sVdfb5stm
p350
I2
sVd18y4hd
p351
I1
sVdh193kq
p352
I2
sVdd8aptc
p353
I1
sVd3iprud
p354
I1
sVczi35h8
p355
I2
sVdevrhdi
p356
I1
sVdie34pl
p357
I1
sVddeydhp
p358
I2
sVd1oc2z0
p359
I1
sVczy4bpn
p360
I1
sVdgziz8i
p361
I2
sVd8f53qg
p362
I3
sVczbtttb
p363
I1
sVczc2oke
p364
I2
sVd2a0i08
p365
I1
sVdfakm5v
p366
I1
sVdgfal4q
p367
I1
sVdh3flbg
p368
I1
sVcyufuhk
p369
I3
sVczuau8w
p370
I2
sVd23gth1
p371
I1
sVd4n7lja
p372
I2
sVd3p592z
p373
I1
sVczni3tr
p374
I3
sVde3btr2
p375
I1
sVd4d3622
p376
I2
sVdi7j5fo
p377
I1
sVddpx3os
p378
I2
sVdrqjh50
p379
I1
sVdnl6a3l
p380
I3
sVdjp9g7e
p381
I22
sVd39vjha
p382
I1
sVcz2tbb5
p383
I1
sVddol021
p384
I1
sVd0ugvxq
p385
I1
sVcymrota
p386
I1
sVcymlcjh
p387
I1
sVd0wk65e
p388
I1
sVdb3lo69
p389
I3
sVd6vitkz
p390
I1
sVdko5ddk
p391
I1
sVd1j987m
p392
I1
sVdd7nndy
p393
I1
sVdi6mqsg
p394
I1
sVd8zyzj9
p395
I1
sVdg1s5cq
p396
I1
sVd3xuskk
p397
I1
sVd7bcgnd
p398
I1
sVd75scc1
p399
I1
sVda6tlwl
p400
I1
sVd9kefnz
p401
I1
sVd9vbs5w
p402
I1
sVdd4evnx
p403
I1
sVdc6z0h8
p404
I1
sVd2jye0v
p405
I2
sVd0amajz
p406
I1
sVcztwroi
p407
I2
sVdjoo8i0
p408
I2
sVd4euxis
p409
I1
sVdgmfusg
p410
I3
sVd72qe29
p411
I1
sVdq4v2ae
p412
I1
sVd6rfg6o
p413
I1
sVdbix2gb
p414
I1
sVd8wiyid
p415
I1
sVdk9rmee
p416
I1
sVd5n2yq7
p417
I2
sVd9zuwaz
p418
I1
sVczuaerd
p419
I1
sVcyszipo
p420
I2
sVdfnmch6
p421
I1
sVd3popzn
p422
I2
sVde74f0b
p423
I1
sVd8fuq98
p424
I3
sVdh4wcii
p425
I1
sVcywsi8d
p426
I1
sVd83znhg
p427
I1
sVd49s96n
p428
I1
sVdjgssqd
p429
I1
sVd8s7mif
p430
I2
sVd5bgcm5
p431
I1
sVdosjhpa
p432
I1
sVd7a265v
p433
I1
sVdcnv690
p434
I1
sVd61fd1m
p435
I1
sVdetiahi
p436
I1
sVd04wu9v
p437
I1
sVdc6tt6d
p438
I1
sVd1qfe23
p439
I1
sVd1n1tog
p440
I3
sVd1c4u0f
p441
I1
sVdrnyxn6
p442
I1
sVdj90e01
p443
I1
sVdmm1l0t
p444
I1
sVd3us43k
p445
I1
sVdgdq3gx
p446
I1
sVd8hi2h8
p447
I2
sVdic0qmn
p448
I1
sVdc6y2i9
p449
I3
sVdbzijcc
p450
I1
sVdj5aihe
p451
I1
sVdrjncln
p452
I1
sVd9rbib0
p453
I1
sVd0unwml
p454
I2
sVdqgbs9k
p455
I3
sVdqd6pb0
p456
I1
sVd0v4d7p
p457
I2
sVdoto3f5
p458
I1
sVd3vdca0
p459
I1
sVd0qpt5o
p460
I1
sVdhfqqi8
p461
I1
sVdimhb25
p462
I1
sVd28wpcw
p463
I2
sVdggnaro
p464
I2
sVddsh62k
p465
I2
sVd19vrzd
p466
I5
sVdeje4hg
p467
I1
sVczoagjg
p468
I1
sVd0yuwd5
p469
I1
sVder91ls
p470
I1
sVd3zuhx4
p471
I1
sVdr3nf98
p472
I1
sVdntam83
p473
I1
sVdexqpxw
p474
I1
sVdn0s00n
p475
I2
sVd2nyn9g
p476
I1
sVdrgnz36
p477
I2
sVdmui2vi
p478
I1
sVd741idi
p479
I1
sVd8iviu4
p480
I1
sVd27scnd
p481
I2
sVdg18zra
p482
I1
sVd99crl5
p483
I1
sVdms5zeo
p484
I1
sVcywktwy
p485
I1
sVcza9ruo
p486
I1
sVd5bmu5j
p487
I2
sVdb0vlgu
p488
I1
sVd3hhhf1
p489
I1
sVd3r3khn
p490
I1
sVdrqld4n
p491
I1
sVczm2s6p
p492
I1
sVd79tgie
p493
I1
sVd6wxqxd
p494
I1
sVd9dm20d
p495
I1
sVd21hesw
p496
I2
sVdny44hy
p497
I1
sVddj3ijx
p498
I2
sVd4h2cp2
p499
I4
sVd0zl4h5
p500
I1
sVd001bfq
p501
I1
sVdci5pap
p502
I1
sVdfomshp
p503
I1
sVd3gczfa
p504
I1
sVd96jgs3
p505
I1
sVdbettgt
p506
I1
sVd0yd2oy
p507
I1
sVd1dxufm
p508
I1
sVdah583a
p509
I1
sVd5prcu7
p510
I1
sVd15ty8m
p511
I1
sVczuu1gr
p512
I1
sVdf5j56a
p513
I1
sVdiw0tei
p514
I1
sVd3udbl2
p515
I3
sVd72rz01
p516
I1
sVdhsy87o
p517
I1
sVdhsis20
p518
I1
sVd255tqo
p519
I1
sVd2a5opb
p520
I1
sVdktjvs1
p521
I1
sVdffyq4c
p522
I1
sVd1oghds
p523
I1
sVdi8q1fz
p524
I1
sVd30f3pr
p525
I1
sVds8gm8q
p526
I1
sVd4h8fvv
p527
I1
sVd5p8hag
p528
I2
sVd5143d2
p529
I1
sVddcsjd1
p530
I1
sVdap30bd
p531
I1
sVda5rh11
p532
I1
sVdcxt5dg
p533
I1
sVdeutkeo
p534
I1
sVczxndlq
p535
I3
sVdqltioo
p536
I1
sVcz4t97t
p537
I1
sVd192nkf
p538
I1
sVd3lqatj
p539
I1
sVdnbwcmf
p540
I1
sVdfotsmk
p541
I1
sVdbojiew
p542
I2
sVdgf9i76
p543
I1
sVd7a3hhd
p544
I2
sVdkgh5v2
p545
I1
sVd5mkg7u
p546
I1
sVdpl71wq
p547
I1
sVd7v6q29
p548
I1
sVd7nu0zw
p549
I3
sVddwzmtt
p550
I1
sVd72uhv8
p551
I1
sVd9vlsqe
p552
I1
sVd71828z
p553
I1
sVdhs6k92
p554
I2
sVd3kj3fs
p555
I1
sVddzbyc7
p556
I1
sVd7q4mc1
p557
I1
sVd2d8wo9
p558
I2
sVczoom29
p559
I1
sVdad40jd
p560
I1
sVd1q0bf5
p561
I3
sVdddpc95
p562
I2
sVd4anlgn
p563
I1
sVdo8w199
p564
I3
sVdhotn5j
p565
I1
sVddxxu37
p566
I1
sVdj0kdxi
p567
I2
sVdmuw357
p568
I2
sVdn120fi
p569
I2
sVd2xwr80
p570
I1
sVdqmxukl
p571
I1
sVdiuo4v5
p572
I1
sVddyirn4
p573
I1
sVd75ux3w
p574
I1
sVdi7jg6j
p575
I1
sVdr8qul0
p576
I3
sVdmt6c6y
p577
I1
sVd9ex9ku
p578
I2
sVdqe1l3r
p579
I1
sVdgnu90p
p580
I1
sVd4h3pmz
p581
I2
sVdswd32h
p582
I2
sVdd75b2a
p583
I1
sVdd5om76
p584
I1
sVd5gqe14
p585
I2
sVcymgnm4
p586
I1
sVd4qs0zq
p587
I1
sVdcy8ts6
p588
I5
sVcyy1j2d
p589
I2
sVd1q5xo5
p590
I1
sVd5l0aox
p591
I1
sVddccl6z
p592
I1
sVdkzheek
p593
I2
sVdajj9k1
p594
I1
sVcyxdzne
p595
I1
sVdn99qik
p596
I1
sVdbdaxig
p597
I1
sVd29eayj
p598
I1
sVd2nfc5b
p599
I1
sVdsidei7
p600
I1
sVdcuufm9
p601
I2
sVdonvupc
p602
I2
sVd0iodu8
p603
I2
sVdhmgd1n
p604
I2
sVd0uoi8j
p605
I2
sVdeegptu
p606
I5
sVdqtsxtv
p607
I1
sVdnz248y
p608
I1
sVd70nzmj
p609
I1
sVdbq77gy
p610
I1
sVdr3ueyj
p611
I1
sVd5pps8j
p612
I2
sVdb8mzxr
p613
I1
sVd3flt0m
p614
I1
sVd9ggwtd
p615
I2
sVdcoyr7x
p616
I2
sVde3jkx8
p617
I2
sVdgk10a6
p618
I1
sVdn2nqjf
p619
I2
sVdgmsi8y
p620
I1
sVd4g7s7s
p621
I1
sVdhmgg7p
p622
I2
sVdsl7536
p623
I1
sVd41zsdp
p624
I1
sVd1ch3vk
p625
I2
sVd25kfwx
p626
I1
sVd2aj9ka
p627
I1
sVd2jscrc
p628
I1
sVd273zn1
p629
I1
sVdg6d68a
p630
I1
sVd0kosb5
p631
I1
sVddby2gv
p632
I1
sVdft6sfr
p633
I1
sVczh2nch
p634
I2
sVdt8nfbk
p635
I1
sVdiykisx
p636
I1
sVd8je45x
p637
I1
sVdb1rnzk
p638
I1
sVdo5c0lz
p639
I1
sVd3i34u0
p640
I2
sVd1oy3o8
p641
I1
sVd89mgop
p642
I2
sVdjmjcug
p643
I1
sVdbqpvpk
p644
I1
sVd47hkh8
p645
I1
sVdd0ts8u
p646
I1
sVdnioyu2
p647
I1
sVdf7t1c0
p648
I1
sVd25pshq
p649
I2
sVdf9f2xh
p650
I1
sVd8hys29
p651
I1
sVd6xxunw
p652
I2
sVczmcfkp
p653
I1
sVd2ntgkn
p654
I1
sVd78emjy
p655
I1
sVd5s6369
p656
I1
sVd7l9w1z
p657
I1
sVdfow6hj
p658
I5
sVd7eu3wk
p659
I1
sVdegmpxx
p660
I1
sVdbi1j6q
p661
I2
sVd9rlcss
p662
I1
sVd1p2h1y
p663
I1
sVdpz665h
p664
I2
sVda2u99w
p665
I1
sVd0kn5nc
p666
I1
sVddy5owk
p667
I3
sVdj0acc9
p668
I1
sVdincf9m
p669
I1
sVdgw1frn
p670
I1
sVdekq96u
p671
I1
sVdi4nmtv
p672
I1
sVd2w9pwc
p673
I1
sVdmqgt0n
p674
I1
sVdj02k64
p675
I1
sVdbfgrys
p676
I3
sVd1j32b4
p677
I1
sVczuu057
p678
I3
sVddep38x
p679
I1
sVdkeddog
p680
I1
sVcysvb46
p681
I1
sVdhmup6q
p682
I1
sVczh9ngz
p683
I3
sVd6tnp5u
p684
I12
sVd00c45b
p685
I5
sVdfa4vvd
p686
I1
sVdaupvl3
p687
I1
sVdrzrdnx
p688
I1
sVdarg6fn
p689
I1
sVcyxcrcx
p690
I1
sVd013ylm
p691
I1
sVdp6i20v
p692
I2
sVd0ipizj
p693
I1
sVdn7jtsa
p694
I2
sVdngqbnb
p695
I1
sVdjxxfev
p696
I1
sVd4bfzwx
p697
I1
sVdhtmiko
p698
I1
sVddl232i
p699
I1
sVczs407w
p700
I1
sVdelcznp
p701
I1
sVdabq7ev
p702
I1
sVdjtigxs
p703
I1
sVd9f5qvy
p704
I1
sVd09r9c5
p705
I1
sVd6nnc2y
p706
I1
sVdeopydm
p707
I1
sVddyxc5z
p708
I1
sVdctl577
p709
I1
sVd69e936
p710
I1
sVd246ms5
p711
I1
sVd2onami
p712
I1
sVd1t0azk
p713
I1
sVd2lnxxa
p714
I2
sVd8gejz3
p715
I2
sVdg6e3g7
p716
I1
sVd8eh4c4
p717
I2
sVdfottht
p718
I1
sVd35ygut
p719
I1
sVd3qamtl
p720
I1
sVd2rioru
p721
I2
sVd86sgnl
p722
I1
sVd9e2tcm
p723
I1
sVd1mvcec
p724
I2
sVdtf6nqq
p725
I1
sVd9thfzm
p726
I1
sVd3tn9el
p727
I2
sVd00hbip
p728
I1
sVd1i7m2b
p729
I1
sVdccl86y
p730
I2
sVdbn4goi
p731
I1
sVd5nzoxv
p732
I1
sVd1decp6
p733
I1
sVd38zp5w
p734
I2
sVd80s00t
p735
I3
sVdrnirmr
p736
I1
sVdcwamxn
p737
I4
sVdb558jq
p738
I1
sVd8j4yrc
p739
I1
sVcz0nwmw
p740
I1
sVd69kk58
p741
I1
sVd575ss1
p742
I1
sVdnv8eg0
p743
I3
sVd1662bb
p744
I1
sVdhx5yvx
p745
I1
sVdkr68uw
p746
I1
sVdhr8qqk
p747
I1
sVd6nyzzh
p748
I1
sVddlz73h
p749
I1
sVcyukb1w
p750
I2
sVd2c1bgi
p751
I2
sVdiokj7h
p752
I2
sVdg0s86s
p753
I1
sVd5rrae9
p754
I1
sVdb09u9e
p755
I1
sVdh4xh2k
p756
I1
sVdgdqxyr
p757
I1
sVdeofkq0
p758
I1
sVdc647tk
p759
I1
sVdi8tzb1
p760
I1
sVdevmz7h
p761
I1
sVdntsavk
p762
I1
sVdmz99u2
p763
I1
sVd95naor
p764
I1
sVd0qmez8
p765
I1
sVd7m8mz5
p766
I1
sVd8a5xz4
p767
I1
sVdjizarg
p768
I2
sVd3bgkm9
p769
I1
sVdjmcbna
p770
I1
sVd9x5otv
p771
I1
sVdamx0se
p772
I1
sVd0al3ki
p773
I2
sVdkp9cpp
p774
I1
sVdh3e6qp
p775
I7
sVd9f5zd1
p776
I2
sVdcpctmf
p777
I1
sVcyxpmwy
p778
I1
sVdazix5x
p779
I1
sVd9nrgwq
p780
I2
sVdcj5pz7
p781
I1
sVdg9avnm
p782
I1
sVdkjibjt
p783
I1
sVd5tv12h
p784
I1
sVd7fbpl3
p785
I1
sVdd3xfkc
p786
I1
sVda4qtse
p787
I2
sVd28uj6b
p788
I1
sVdrqflc6
p789
I1
sVdjfjvo4
p790
I1
sVdcc8j5o
p791
I2
sVdhjf7tt
p792
I2
sVczc3178
p793
I5
sVdjtyjm2
p794
I3
sVd7ubu7k
p795
I2
sVdf0qsxj
p796
I1
sVdi2bm5l
p797
I1
sVd0fcxkz
p798
I2
sVdbgqi26
p799
I2
sVd2h2ka6
p800
I1
sVdcwj8xq
p801
I1
sVcz8qtgy
p802
I1
sVdhz9awp
p803
I1
sVd38aujf
p804
I2
sVdrq818b
p805
I1
sVdi5xcv5
p806
I1
sVczxbkp1
p807
I3
sVdoeu08l
p808
I1
sVdh48nlx
p809
I1
sVd1yj4kb
p810
I6
sVdcclokr
p811
I1
sVdc2mqug
p812
I2
sVdicw4w4
p813
I1
sVdav3ltq
p814
I1
sVd75nkvx
p815
I1
sVdnf2cfb
p816
I1
sVd5bt2n1
p817
I1
sVdafoa0h
p818
I1
sVdhe3so4
p819
I1
sVde049q4
p820
I2
sVczxwlpl
p821
I1
sVd3bhbm8
p822
I2
sVd6a6qwp
p823
I1
sVdf71k8o
p824
I2
sVd82m3ur
p825
I1
sVddkn5lr
p826
I1
sVddcdmkv
p827
I2
sVd96vqkq
p828
I1
sVcz92pwg
p829
I2
sVdd721d7
p830
I1
sVdf2k4ca
p831
I1
sVdfsdjar
p832
I1
sVdhysfsl
p833
I1
sVdoz4wiy
p834
I4
sVdddyz63
p835
I4
sVddkhbrx
p836
I1
sVdb7ycg0
p837
I1
sVdbfpxaj
p838
I1
sVd4h1ese
p839
I1
sVd64200a
p840
I1
sVdgjxn17
p841
I6
sVczc2pqp
p842
I2
sVczstd3s
p843
I1
sVdarlele
p844
I1
sVcyjcrw2
p845
I1
sVd0gzrjb
p846
I1
sVd16khjs
p847
I2
sVdfavjg4
p848
I2
sVd822mq9
p849
I1
sVczw14f5
p850
I1
sVdkp05os
p851
I1
sVd26ve77
p852
I1
sVdf404a6
p853
I2
sVdptfjvk
p854
I1
sVdau4gre
p855
I1
sVde04gdv
p856
I2
sVdbstua5
p857
I6
sVdt8e04w
p858
I6
sVd7fnxel
p859
I1
sVd022z4j
p860
I2
sVdfewf3n
p861
I1
sVdbzj5ys
p862
I2
sVdkrdoxm
p863
I2
sVd4kjics
p864
I1
sVd8sxi2a
p865
I1
sVdaxpefp
p866
I1
sVd2m1vyq
p867
I1
sVd7quhy4
p868
I1
sVd5vteyz
p869
I1
sVd9wpm2o
p870
I1
sVde0ox1b
p871
I1
sVczfuk62
p872
I1
sVd93p5qk
p873
I1
sVd00zchs
p874
I3
sVd6h7fw5
p875
I3
sVdbddtzp
p876
I1
sVdsm68f6
p877
I2
sVdt6mnu4
p878
I1
sVcz94qb6
p879
I2
sVdf7q6r8
p880
I1
sVd0b9cgq
p881
I1
sVd10nqh8
p882
I1
sVdgxol5v
p883
I1
sVdjh9vjv
p884
I2
sVd03vt3s
p885
I1
sVd9nrkhw
p886
I1
sVd52ny37
p887
I1
sVde7c5em
p888
I1
sVd8fyntp
p889
I1
sVdg94jyg
p890
I1
sVdajvedy
p891
I1
sVda9ou5k
p892
I1
sVdkji5dn
p893
I3
sVd1ubqca
p894
I1
sVdf5j681
p895
I1
sVdqkci0y
p896
I1
sVd40wbel
p897
I2
sVd5imr9b
p898
I1
sVd64ri0z
p899
I3
sVdegtkjk
p900
I1
sVd3943nt
p901
I2
sVd72kqmm
p902
I5
sVdofpm08
p903
I1
sVd1krtc3
p904
I1
sVdjn7kkj
p905
I1
sVcywalr5
p906
I1
sVcyw4t27
p907
I2
sVcymqn01
p908
I1
sVczrc1th
p909
I2
sVczwxabo
p910
I1
sVdfgev2j
p911
I2
sVd5gdvr7
p912
I1
sVdo71a49
p913
I2
sVdjvug9v
p914
I2
sVddf8e59
p915
I2
sVdo8hc2x
p916
I1
sVdiwoif8
p917
I2
sVd1pml7n
p918
I1
sVcyzgi3f
p919
I1
sVd0tsxk8
p920
I2
sVdjo2rdw
p921
I1
sVdo3vf41
p922
I3
sVdh65cvi
p923
I4
sVd84fayo
p924
I1
sVd0vahz2
p925
I1
sVd1mz5y2
p926
I2
sVd2c8r3g
p927
I1
sVd8nvb2b
p928
I2
sVd84ssa8
p929
I1
sVdcnzeva
p930
I1
sVdbh16b7
p931
I1
sVde3rxly
p932
I1
sVd1gdney
p933
I1
sVd6flrjv
p934
I1
sVd5nrugv
p935
I20
sVd348374
p936
I1
sVd5l0u77
p937
I1
sVdqjz6qk
p938
I1
sVd1alasy
p939
I1
sVde2lo2i
p940
I1
sVd6a8b9z
p941
I1
sVdmqtdxs
p942
I1
sVdo25ekl
p943
I2
sVdn9tqy3
p944
I2
sVd9p7wcw
p945
I1
sVdjk5et0
p946
I1
sVdfdwjxf
p947
I1
sVdch9zfx
p948
I1
sVd2eyhhp
p949
I1
sVdc2hvcs
p950
I1
sVdj8nop5
p951
I2
sVdoh3td4
p952
I1
sVdh71ote
p953
I1
sVdfe5nk3
p954
I1
sVdqf9qfz
p955
I1
sVdr22ilf
p956
I2
sVddpkhgd
p957
I1
sVdk80p68
p958
I1
sVczpqffk
p959
I2
sVddkm3zq
p960
I1
sVdqqih38
p961
I1
sVd71nmff
p962
I2
sVdqo45c8
p963
I1
sVd4apzuh
p964
I1
sVdqpjyyr
p965
I1
sVd3poqca
p966
I1
sVdc1lk6u
p967
I1
sVd18knmx
p968
I1
sVd8gy953
p969
I3
sVdt2ew1x
p970
I2
sVd7950wq
p971
I1
sVd84l9r1
p972
I1
sVd2v6xeb
p973
I1
sVd021jn9
p974
I1
sVd7tqje5
p975
I1
sVd1csvpj
p976
I1
sVdsz61q3
p977
I1
sVd51uakv
p978
I2
sVd82da52
p979
I2
sVczbuxra
p980
I2
sVd267k0m
p981
I4
sVd82ormh
p982
I1
sVdcbf7s3
p983
I1
sVd8mq49g
p984
I1
sVda4y299
p985
I1
sVdrlofot
p986
I1
sVcz2ff7u
p987
I1
sVd5fw8kj
p988
I1
sVdomdqu8
p989
I2
sVdfj6dsp
p990
I3
sVcz1prys
p991
I1
sVdjdph9g
p992
I1
sVd9q83om
p993
I1
sVdj582tm
p994
I2
sVd9p220s
p995
I2
sVdnrhire
p996
I1
sVds8rb9o
p997
I1
sVd6paabs
p998
I4
sVdj8kcy6
p999
I1
sVdf3t9b5
p1000
I1
sVdidsq2i
p1001
I1
sVdazkzdk
p1002
I1
sVdfg7jw1
p1003
I1
sVcyxa1lt
p1004
I1
sVd8byut1
p1005
I3
sVcztoqt2
p1006
I1
sVdcivmti
p1007
I1
sVczuu1c3
p1008
I1
sVdok8nsk
p1009
I1
sVd3j92qm
p1010
I2
sVd1ytcyw
p1011
I1
sVdekfnnv
p1012
I1
sVdf3s2xd
p1013
I3
sVdfd0a11
p1014
I1
sVd6f7e64
p1015
I1
sVdhtq044
p1016
I7
sVd83aana
p1017
I2
sVdb2m3r2
p1018
I1
sVd87vni6
p1019
I1
sVds7wtjx
p1020
I2
sVdaie30u
p1021
I1
sVd10ti1r
p1022
I1
sVdqow5w8
p1023
I1
sVd44vke8
p1024
I1
sVdeikiui
p1025
I2
sVd2j0k8d
p1026
I1
sVddl6ozw
p1027
I1
sVczn8zqw
p1028
I3
sVd5f15wb
p1029
I1
sVdobxb6v
p1030
I2
sVd0ihxwu
p1031
I1
sVd5grmfb
p1032
I4
sVdi0xp9j
p1033
I1
sVdt0wj9t
p1034
I1
sVd0d2xdo
p1035
I1
sVcz236ww
p1036
I1
sVcytak38
p1037
I1
sVczen6om
p1038
I2
sVd5npadi
p1039
I1
sVdjoxlwy
p1040
I1
sVd8pcl3g
p1041
I1
sVd7n06iu
p1042
I1
sVcyr0a6o
p1043
I1
sVdkuuypa
p1044
I1
sVd7ci51w
p1045
I1
sVdel5hih
p1046
I2
sVd0475ns
p1047
I2
sVd9oecc6
p1048
I1
sVdej765a
p1049
I1
sVdnftftq
p1050
I2
sVd1ozruw
p1051
I1
sVdjrb9s3
p1052
I1
sVd2r0ic2
p1053
I2
sVdmuqvni
p1054
I1
sVdp9akef
p1055
I1
sVde46g7w
p1056
I1
sVdcm62g1
p1057
I1
sVd9qkag0
p1058
I1
sVdfolxng
p1059
I3
sVd892moj
p1060
I1
sVddpukop
p1061
I4
sVdbjvugx
p1062
I1
sVdiyw6fl
p1063
I1
sVdezo6m6
p1064
I2
sVdgr6d6c
p1065
I1
sVdewwod1
p1066
I1
sVdaj8jx7
p1067
I1
sVdi5cfpj
p1068
I1
sVczk7oj4
p1069
I1
sVdq81tnv
p1070
I1
sVd7gcvc7
p1071
I2
sVd2rpy6y
p1072
I1
sVdbb47qw
p1073
I1
sVd08ivjg
p1074
I1
sVd16rus1
p1075
I1
sVd0qsqzo
p1076
I1
sVcyzf28z
p1077
I1
sVd3q50op
p1078
I2
sVd97ri0i
p1079
I1
sVdimhz9b
p1080
I1
sVdb05eqa
p1081
I1
sVdmyd7jq
p1082
I6
sVd7ricz6
p1083
I1
sVd59va9b
p1084
I1
sVd94hoc7
p1085
I1
sVd7r42cq
p1086
I1
sVdel6bnl
p1087
I1
sVdmuaaw1
p1088
I1
sVdqyt38q
p1089
I1
sVdb63e1a
p1090
I1
sVd0vb8qf
p1091
I1
sVczzde8t
p1092
I2
sVdjwdqtf
p1093
I1
sVdnquheo
p1094
I1
sVdivpxrm
p1095
I2
sVcyk7z7x
p1096
I1
sVd9082no
p1097
I1
sVd4ipi9t
p1098
I1
sVd2lnnmh
p1099
I1
sVd5m6xha
p1100
I1
sVd3k1ixa
p1101
I3
sVd0numfp
p1102
I1
sVdeijdcx
p1103
I1
sVd07cj45
p1104
I1
sVddoxy0d
p1105
I1
sVczswcsx
p1106
I1
sVd7byjh5
p1107
I1
sVcywkojj
p1108
I7
sVd28wg73
p1109
I1
sVd44rmmj
p1110
I1
sVd0wrddh
p1111
I2
sVd53ys8j
p1112
I1
sVdec12oj
p1113
I1
sVdd1nxzo
p1114
I1
sVd7szsme
p1115
I2
sVcz164e5
p1116
I1
sVdbnydr2
p1117
I1
sVda612sw
p1118
I2
sVd2pzojq
p1119
I3
sVdb1rjvy
p1120
I1
sVdpfiar9
p1121
I3
sVddwi553
p1122
I1
sVddwn3xj
p1123
I1
sVdc7k24t
p1124
I2
sVd12cf8f
p1125
I1
sVdmk9kcw
p1126
I1
sVd6yh1v8
p1127
I1
sVd26gflr
p1128
I2
sVczwf0xq
p1129
I1
sVcz04024
p1130
I1
sVdkrf8fr
p1131
I2
sVda368dq
p1132
I1
sVd1yv9g2
p1133
I1
sVdef43gk
p1134
I1
sVdaz9kgs
p1135
I1
sVd00h92y
p1136
I1
sVd1n1e5e
p1137
I2
sVdb6981o
p1138
I1
sVdh9xpt8
p1139
I2
sVdgjlpr0
p1140
I1
sVdny9nhs
p1141
I1
sVdr338v2
p1142
I3
sVdkcxrsk
p1143
I1
sVdijagbr
p1144
I1
sVd965f5k
p1145
I1
sVcyzqlst
p1146
I2
sVdh1uhvv
p1147
I1
sVd2137mj
p1148
I1
sVdece7ud
p1149
I1
sVdhsge60
p1150
I1
sVd26w3lf
p1151
I1
sVcz0jt22
p1152
I1
sVd17yfil
p1153
I1
sVd0yi1vq
p1154
I1
sVd6kh1q7
p1155
I1
sVd9okfsl
p1156
I1
sVddr7nme
p1157
I2
sVd6k5p9x
p1158
I1
sVd72ll2n
p1159
I1
sVdpc98j0
p1160
I2
sVdq80vhp
p1161
I1
sVd13h3n4
p1162
I1
sVd93882r
p1163
I1
sVdhrcgfp
p1164
I1
sVdec29gb
p1165
I1
sVczr3gz6
p1166
I1
sVdfnh8kx
p1167
I3
sVdnslcq5
p1168
I1
sVd79wrli
p1169
I1
sVd0b6h2l
p1170
I4
sVdrtjf2k
p1171
I5
sVczn8oun
p1172
I1
sVd4d98tm
p1173
I1
sVd6rjpay
p1174
I1
sVdt6cbbh
p1175
I1
sVd6nz3je
p1176
I1
sVdgtc2k4
p1177
I2
sVd4ukmyz
p1178
I2
sVd2ji7nd
p1179
I2
sVdii4ddl
p1180
I1
sVdp4uhf2
p1181
I1
sVd1jh4r8
p1182
I2
sVd2i75cz
p1183
I1
sVd7rilzo
p1184
I1
sVcyx4gc6
p1185
I1
sVddsba5q
p1186
I1
sVdhfuf8s
p1187
I3
sVdbt1ljt
p1188
I1
sVcz5n786
p1189
I1
sVddbpey0
p1190
I1
sVdbde1os
p1191
I1
sVd5pv99v
p1192
I1
sVcyjczd7
p1193
I1
sVdazcrt1
p1194
I9
sVczn8mg3
p1195
I2
sVdd0syan
p1196
I1
sVds6cs2s
p1197
I1
sVdct0718
p1198
I2
sVdn7ocfp
p1199
I1
sVda1g3vn
p1200
I2
sVdp7nm64
p1201
I1
sVdhg704q
p1202
I1
sVd0b9rsx
p1203
I2
sVd26gdom
p1204
I1
sVd0iq1kt
p1205
I1
sVdevgwk7
p1206
I1
sVd3nktw5
p1207
I1
sVds0fekj
p1208
I2
sVdjxc61y
p1209
I2
sVdtfjcsq
p1210
I2
sVcym3yss
p1211
I1
sVd19530g
p1212
I3
sVd1djfj2
p1213
I4
sVczzxqyc
p1214
I1
sVddn5e04
p1215
I1
sVdmwwqlt
p1216
I1
sVdqo6ohj
p1217
I1
sVd19qyzq
p1218
I2
sVczy8atd
p1219
I2
sVdcri2vm
p1220
I1
sVd4h6i31
p1221
I2
sVdarev1i
p1222
I1
sVdq1ilwu
p1223
I1
sVd2wuwur
p1224
I1
sVd381bm4
p1225
I1
sVd6enb6y
p1226
I1
sVd9w44b7
p1227
I1
sVdei3apa
p1228
I1
sVd1a6gzz
p1229
I1
sVdi35d09
p1230
I1
sVd105xse
p1231
I1
sVczzwoip
p1232
I1
sVd259jz8
p1233
I2
sVd3jwcft
p1234
I1
sVcyv33xf
p1235
I1
sVdp7ml97
p1236
I1
sVddt73u4
p1237
I1
sVdgr4qc0
p1238
I1
sVdc6cvmu
p1239
I2
sVd13ptkq
p1240
I1
sVd2r81pu
p1241
I1
sVdefwi4w
p1242
I1
sVdmk9et6
p1243
I7
sVcyopxu5
p1244
I1
sVdszok2i
p1245
I2
sVd0ffncq
p1246
I1
sVd3m56lr
p1247
I2
sVd44orz9
p1248
I1
sVddj7tdm
p1249
I1
sVdan9ozj
p1250
I2
sVcysl6nz
p1251
I1
sVd7t01f5
p1252
I2
sVdmx10iz
p1253
I1
sVd2urdj3
p1254
I1
sVded9278
p1255
I1
sVdi81o8e
p1256
I1
sVdfuagya
p1257
I2
sVd7tws70
p1258
I1
sVdf1bjr9
p1259
I1
sVdkc925c
p1260
I1
sVdawerml
p1261
I1
sVd7devfz
p1262
I4
sVcyrl5yp
p1263
I1
sVdhwobzr
p1264
I2
sVdbdeqnl
p1265
I1
sVd2j6ly9
p1266
I1
sVd0qdhmk
p1267
I1
sVd66b3op
p1268
I2
sVdizl32r
p1269
I1
sVd1br7r3
p1270
I2
sVdigdncw
p1271
I2
sVdhjhezn
p1272
I1
sVd84ettt
p1273
I1
sVd0zgcna
p1274
I1
sVd3h1cs4
p1275
I3
sVdemdsuu
p1276
I1
sVd32qw8g
p1277
I1
sVd47axiz
p1278
I2
sVdeh7j91
p1279
I1
sVdbx4hq7
p1280
I2
sVcyj6b4z
p1281
I2
sVdf836bw
p1282
I1
sVdr9ai3o
p1283
I1
sVde1p4r2
p1284
I1
sVd4gkkin
p1285
I1
sVd7764zk
p1286
I2
sVd7rciva
p1287
I1
sVd9214hy
p1288
I1
sVddew7cv
p1289
I1
sVd3g3n5x
p1290
I1
sVcyjnpik
p1291
I2
sVd8e0eix
p1292
I2
sVd8f5ge6
p1293
I2
sVd1xuhzx
p1294
I1
sVdd5ss5u
p1295
I2
sVd0xt63k
p1296
I1
sVd2kt0kt
p1297
I1
sVd194o8r
p1298
I1
sVcz6gthd
p1299
I1
sVdc0zzk0
p1300
I1
sVd6uj6jp
p1301
I1
sVdoi4nlg
p1302
I1
sVdbf0k7a
p1303
I1
sVd4c5k8c
p1304
I1
sVd0psa6z
p1305
I1
sVcypkb3u
p1306
I1
sVdn7k59p
p1307
I1
sVdnw04tc
p1308
I5
sVd6d2uq9
p1309
I1
sVd26l8vq
p1310
I2
sVdhrtm5r
p1311
I1
sVd83yjjd
p1312
I1
sVd2gnicj
p1313
I1
sVddeeaki
p1314
I5
sVd8hgiuu
p1315
I1
sVdhepo4w
p1316
I1
sVdog75f4
p1317
I3
sVd5a6jzu
p1318
I1
sVd6kx45t
p1319
I2
sVd6ai4pj
p1320
I1
sVdflyrn4
p1321
I1
sVddedbxp
p1322
I1
sVd65d6gp
p1323
I1
sVdj2cim6
p1324
I1
sVdfafkcw
p1325
I1
sVd2ko28b
p1326
I2
sVdbvpiee
p1327
I1
sVdj4ny73
p1328
I1
sVd9a1xol
p1329
I1
sVdn4yjse
p1330
I1
sVd1oc4wj
p1331
I1
sVdqdxvz4
p1332
I1
sVdnpb81r
p1333
I1
sVd3bj0ws
p1334
I1
sVd0fn12f
p1335
I1
sVdbe6akf
p1336
I1
sVd3hzlhv
p1337
I1
sVd2o0te8
p1338
I1
sVd9wplhm
p1339
I2
sVd50f45b
p1340
I2
sVd1263s4
p1341
I1
sVcyufwzz
p1342
I4
sVdd4q5wh
p1343
I1
sVcz86637
p1344
I1
sVdjuc9p3
p1345
I1
sVdfd6ovr
p1346
I1
sVd7szty2
p1347
I4
sVdg0pqxw
p1348
I2
sVd8fqmav
p1349
I2
sVd6pe235
p1350
I1
sVd19r01e
p1351
I2
sVd9600e2
p1352
I1
sVdcbk96n
p1353
I1
sVd5fcr0k
p1354
I1
sVd2qipau
p1355
I1
sVczv2iuf
p1356
I1
sVcyzxm7b
p1357
I2
sVcytx6qw
p1358
I8
sVd0k2p0m
p1359
I2
sVd6c59cl
p1360
I1
sVddgknvs
p1361
I1
sVdc6y7v2
p1362
I2
sVdie3gch
p1363
I2
sVdmuj2v9
p1364
I1
sVdd8z0xi
p1365
I1
sVd10fpoo
p1366
I1
sVdg7s5to
p1367
I2
sVd0e7ivl
p1368
I1
sVda56vnb
p1369
I1
sVdax0xo3
p1370
I1
sVd2s3m96
p1371
I1
sVd5zpppy
p1372
I1
sVdgojmgq
p1373
I1
sVd7q26yt
p1374
I1
sVdhoyaht
p1375
I1
sVd6w259m
p1376
I1
sVd3uu4du
p1377
I1
sVdcno8qf
p1378
I1
sVdf9ykg4
p1379
I1
sVdojnmaf
p1380
I1
sVd4kp0mm
p1381
I5
sVd64r78t
p1382
I1
sVdt2wt1g
p1383
I1
sVcyk9mj2
p1384
I1
sVd29a5xj
p1385
I1
sVd2s2v03
p1386
I1
sVd0nznzv
p1387
I1
sVcyr2cpz
p1388
I1
sVd7cmk0c
p1389
I1
sVdc4bgd1
p1390
I1
sVd26fcbj
p1391
I2
sVd47lnfg
p1392
I1
sVczli2en
p1393
I3
sVdceinar
p1394
I1
sVdcmelcr
p1395
I5
sVd5vv0ah
p1396
I2
sVcyx0695
p1397
I1
sVcz3r53v
p1398
I6
sVcztg2im
p1399
I1
sVdayqufq
p1400
I1
sVdfotpj5
p1401
I1
sVd8l90fl
p1402
I1
sVd1bvy8m
p1403
I2
sVdnv8ldl
p1404
I2
sVd3f0wor
p1405
I1
sVd2ngzan
p1406
I1
sVd1ojrq8
p1407
I1
sVdfwsd0u
p1408
I3
sVds27itb
p1409
I1
sVcywkqja
p1410
I2
sVd244p6t
p1411
I5
sVczs4m7c
p1412
I1
sVd1f5igu
p1413
I1
sVdmxec7j
p1414
I1
sVd569l4b
p1415
I3
sVdnfn3bd
p1416
I1
sVd4m9jdq
p1417
I1
sVdi9foav
p1418
I1
sVd5fg01j
p1419
I1
sVdn2pk8c
p1420
I1
sVd2ijkxx
p1421
I2
sVdqh564v
p1422
I1
sVd1ykx1m
p1423
I6
sVd0htwqp
p1424
I2
sVd7ruyg5
p1425
I1
sVd0pidby
p1426
I1
sVczj14at
p1427
I1
sVdpqy0dp
p1428
I5
sVdgyak79
p1429
I1
sVd1rsoo1
p1430
I2
sVdneoy2i
p1431
I1
sVd0ef54a
p1432
I1
sVdqeeekc
p1433
I1
sVdf6yojv
p1434
I2
sVd9hg55g
p1435
I1
sVdcy8o8f
p1436
I1
sVdb6u459
p1437
I1
sVdtddm3l
p1438
I1
sVdj0ryn9
p1439
I1
sVd5mreog
p1440
I2
sVdf1z8ck
p1441
I1
sVd69coil
p1442
I1
sVd5p0fop
p1443
I1
sVdojdkg6
p1444
I1
sVdf7h5nm
p1445
I1
sVd8djwq4
p1446
I1
sVcz2qnbk
p1447
I1
sVd4ovfzt
p1448
I1
sVdrq5mdz
p1449
I1
sVdbqgish
p1450
I1
sVd43jnmm
p1451
I3
sVd79n9wp
p1452
I1
sVcyxsv9t
p1453
I1
sVddkf8dm
p1454
I3
sVcyntmck
p1455
I2
sVd009juk
p1456
I1
sVd27y6r0
p1457
I1
sVdt0b3x0
p1458
I1
sVdd60vbt
p1459
I1
sVd2qzii0
p1460
I1
sVdcm039m
p1461
I2
sVd04tkkm
p1462
I1
sVd1k0g5y
p1463
I2
sVd26kvvw
p1464
I1
sVd72lzqf
p1465
I1
sVdmwb5we
p1466
I1
sVd1ube6h
p1467
I3
sVdpxnh2i
p1468
I8
sVddusuir
p1469
I1
sVda7g40b
p1470
I2
sVd2s5sbh
p1471
I1
sVdjn76s0
p1472
I2
sVczrf632
p1473
I1
sVd32go0k
p1474
I1
sVde5fcmg
p1475
I1
sVdql11w9
p1476
I1
sVd0swet8
p1477
I1
sVdscnafg
p1478
I2
sVd8lz1f2
p1479
I1
sVdkrvb1i
p1480
I1
sVdrte0if
p1481
I1
sVdng9v9u
p1482
I4
sVczd0q75
p1483
I1
sVcyr5i3g
p1484
I2
sVddfj0g8
p1485
I1
sVdho59m7
p1486
I1
sVdbhqeyz
p1487
I1
sVd54m5kr
p1488
I1
sVd26ffu8
p1489
I1
sVdq1t28n
p1490
I1
sVd5dbc6h
p1491
I1
sVdbd7thi
p1492
I1
sVdk7cv6b
p1493
I2
sVdcn58nl
p1494
I1
sVczpqikz
p1495
I2
sVdr0tyl7
p1496
I1
sVd69686e
p1497
I2
sVdj0pr76
p1498
I1
sVd1dizm7
p1499
I3
sVddwi07e
p1500
I1
sVd1p10dy
p1501
I5
sVd6qjdv7
p1502
I2
sVdd92nw3
p1503
I1
sVd2r1us9
p1504
I1
sVddq0heg
p1505
I4
sVdo4w6mu
p1506
I1
sVdda3m42
p1507
I1
sVd1zvoce
p1508
I1
sVdh8iocu
p1509
I1
sVd0wo09o
p1510
I3
sVddojtds
p1511
I1
sVdb5a9d2
p1512
I1
sVdjmk6aq
p1513
I1
sVdftn6i2
p1514
I1
sVdt2swut
p1515
I1
sVdht63tg
p1516
I2
sVdaklk3w
p1517
I1
sVdfk1evg
p1518
I1
sVd1otibn
p1519
I3
sVdfgrqjh
p1520
I1
sVdqg9ck2
p1521
I1
sVdd77g77
p1522
I1
sVdijahwb
p1523
I1
sVdjjgml4
p1524
I1
sVd3tzg47
p1525
I2
sVd7m1two
p1526
I4
sVd9a8tjh
p1527
I1
sVdn2i39p
p1528
I1
sVd3yr87w
p1529
I1
sVdbfrw8h
p1530
I1
sVda9c4tg
p1531
I1
sVd6awlj9
p1532
I1
sVcytpy0c
p1533
I1
sVdht6582
p1534
I1
sVd1jku7i
p1535
I1
sVdoqjp56
p1536
I1
sVdhdej5w
p1537
I1
sVd3um4xs
p1538
I2
sVd2hiyp3
p1539
I1
sVd6f4g21
p1540
I1
sVd4kylpc
p1541
I2
sVdcwfmkq
p1542
I2
sVczmpxmc
p1543
I1
sVd32cvr6
p1544
I1
sVd1ozrco
p1545
I1
sVcyo74m4
p1546
I3
sVd1iejag
p1547
I1
sVdevqqel
p1548
I4
sVdcwhstb
p1549
I1
sVcymky8l
p1550
I1
sVdjc5xwt
p1551
I2
sVdhh1dq6
p1552
I1
sVd98z3wl
p1553
I3
sVdb6eyzi
p1554
I1
sVczr1mnu
p1555
I1
sVdf8fcwg
p1556
I1
sVda2dfst
p1557
I1
sVd6c9ic1
p1558
I1
sVd4z7w82
p1559
I1
sVcysuf53
p1560
I2
sVczfu6mm
p1561
I2
sVd36j7p1
p1562
I1
sVd731nae
p1563
I1
sVd2kwnav
p1564
I1
sVd4g7t6i
p1565
I1
sVd002fe3
p1566
I1
sVdodxzcn
p1567
I3
sVd4v2m61
p1568
I2
sVdej5woi
p1569
I2
sVd0c1ohe
p1570
I1
sVdgyjg12
p1571
I1
sVdp06566
p1572
I1
sVdpnr46l
p1573
I2
sVdryuipy
p1574
I2
sVdrhbdrl
p1575
I1
sVd6abatc
p1576
I1
sVd57qhcs
p1577
I1
sVd9nth9d
p1578
I1
sVdbqraji
p1579
I1
sVde3c76q
p1580
I1
sVd5tib4v
p1581
I2
sVczv0s40
p1582
I1
sVczb35vh
p1583
I1
sVdmzhk51
p1584
I1
sVdergld0
p1585
I1
sVdjjkj8p
p1586
I1
sVd83trxg
p1587
I2
sVd6bgq26
p1588
I1
sVdazpxbl
p1589
I2
sVd9bgmsc
p1590
I1
sVd4m1am9
p1591
I1
sVd0efhl3
p1592
I3
sVd7bhflo
p1593
I1
sVd9w2poq
p1594
I1
sVdrrdz0m
p1595
I1
sVdeov08v
p1596
I3
sVdi5s9bu
p1597
I1
sVdforhsz
p1598
I6
sVczmdo9m
p1599
I1
sVdd8kgte
p1600
I1
sVd45fkai
p1601
I1
sVd2agryk
p1602
I3
sVd9d5tul
p1603
I1
sVd5fxq6n
p1604
I1
sVd0ziwwd
p1605
I1
sVd2lzzb2
p1606
I1
sVdienc67
p1607
I1
sVczcgac0
p1608
I6
sVcz3r984
p1609
I8
sVd2f8wsc
p1610
I1
sVdefuhzi
p1611
I1
sVddz4cms
p1612
I2
sVdc2j8i9
p1613
I1
sVd2ur3fd
p1614
I1
sVd8xi12w
p1615
I1
sVdqopeaz
p1616
I1
sVd0lsx63
p1617
I1
sVddudwb5
p1618
I1
sVdg3dmk5
p1619
I1
sVd62qwcy
p1620
I2
sVdf5iq7c
p1621
I1
sVdg51xri
p1622
I1
sVd2duykf
p1623
I1
sVd2bkphd
p1624
I1
sVdpq5bw3
p1625
I1
sVds8d31b
p1626
I3
sVdjzaybj
p1627
I1
sVd6ncx8u
p1628
I1
sVd6pagu8
p1629
I1
sVd10ewz4
p1630
I9
sVdij9sh2
p1631
I1
sVczgmnnm
p1632
I1
sVddrnlvv
p1633
I1
sVd6wx696
p1634
I1
sVd09xfjd
p1635
I2
sVd9ocbqq
p1636
I1
sVdazxoh7
p1637
I2
sVdj4rger
p1638
I1
sVdbav0lx
p1639
I2
sVd909194
p1640
I1
sVdro86dn
p1641
I1
sVcyko9g8
p1642
I1
sVd8oi0mw
p1643
I1
sVd5exj12
p1644
I1
sVdenyrg8
p1645
I1
sVd7qoylu
p1646
I1
sVd4ju3yz
p1647
I1
sVd4rg2pm
p1648
I2
sVd1j4fk8
p1649
I1
sVdjmboh3
p1650
I2
sVczxapcy
p1651
I1
sVdi1v9cx
p1652
I1
sVd1vtg1g
p1653
I1
sVdd525t1
p1654
I1
sVdfdscir
p1655
I1
sVcyiungq
p1656
I6
sVdgwls7c
p1657
I4
sVdj7rieh
p1658
I4
sVd3e1tfb
p1659
I1
sVcyw0om9
p1660
I1
sVdcx4kp7
p1661
I2
sVdjd8irn
p1662
I1
sVd2e8317
p1663
I1
sVddmmi6g
p1664
I1
sVdaaccja
p1665
I3
sVd9uy4i5
p1666
I1
sVdpkuiz3
p1667
I1
sVdnak30t
p1668
I2
sVddywsc9
p1669
I1
sVdjnq283
p1670
I1
sVcyyuu7y
p1671
I1
sVde4dj6j
p1672
I1
sVdkrxmbm
p1673
I1
sVdi867qo
p1674
I1
sVdg3hb05
p1675
I2
sVdofz30j
p1676
I1
sVd6vaz0y
p1677
I1
sVdffs4ae
p1678
I1
sVcyxkw51
p1679
I1
sVda30sw3
p1680
I1
sVd09xnjm
p1681
I2
sVcza9lnh
p1682
I1
sVdfg8vxo
p1683
I1
sVde4izxq
p1684
I1
sVd0fhmu3
p1685
I1
sVdcc70sr
p1686
I3
sVd3qse4r
p1687
I1
sVd3f6mvr
p1688
I2
sVd3y4p06
p1689
I1
sVd65wu1w
p1690
I1
s.