(dp0
Vd8ikubo
p1
I1
sVdmjt6sw
p2
I1
sVdprqezv
p3
I1
sVd4z1qsp
p4
I1
sVdjou62m
p5
I1
sVdtj1qtq
p6
I1
sVdi4dccr
p7
I1
sVdjmjt3u
p8
I1
sVddy2dsv
p9
I1
sVdnqc97q
p10
I1
sVdcgb2ne
p11
I1
sVdrrq7xd
p12
I1
sVdh41dxw
p13
I1
sVdiwboiv
p14
I1
sVd1l32nq
p15
I1
sVd15fgs0
p16
I2
sVd233c9y
p17
I3
sVd1kyi0n
p18
I2
sVdni34mz
p19
I2
sVd6mk5iy
p20
I1
sVczk838q
p21
I1
sVd3j8yez
p22
I1
sVd099ic8
p23
I1
sVd4rkkm0
p24
I1
sVd95aqmm
p25
I1
sVd78j2hy
p26
I1
sVd094rk8
p27
I1
sVd6da73c
p28
I2
sVd1kv2kh
p29
I1
sVdoccz0i
p30
I2
sVd13c240
p31
I1
sVdc1k8vx
p32
I1
sVdhcsbjy
p33
I1
sVdkviy9h
p34
I1
sVd1llg5s
p35
I1
sVdcaia66
p36
I1
sVd1tg7za
p37
I1
sVdneggpa
p38
I1
sVdd4t5mf
p39
I1
sVdbqrxyu
p40
I1
sVdgkgoyv
p41
I1
sVd4j7q3i
p42
I1
sVcyrqrjy
p43
I2
sVdjvnu22
p44
I1
sVdgn7vps
p45
I2
s.