(dp0
Vd1fi2wg
p1
I1
sVd4vnfg0
p2
I1
sVdn0yphu
p3
I6
sVd7jnhfu
p4
I1
sVd801xja
p5
I1
sVdo3d2km
p6
I1
sVdooaq6c
p7
I2
sVd5aozwl
p8
I1
sVdoobnii
p9
I1
sVdbnrjzc
p10
I1
sVdququai
p11
I1
sVd505p04
p12
I1
sVd9ngdc1
p13
I1
sVd3rhc0v
p14
I1
sVdhzvg0p
p15
I1
sVdnvkguw
p16
I1
sVdhzslan
p17
I1
sVdk5u75j
p18
I1
sVd3xur4k
p19
I2
sVdn6onnm
p20
I1
sVdiz3rjk
p21
I3
sVdq0jykg
p22
I1
sVdru9amt
p23
I1
sVdbaa3en
p24
I1
s.