(dp0
Vd1oiq1c
p1
I1
s.(dp0
Vd1oiq1c
p1
I1
sVd3y59m8
p2
I1
s.(dp0
Vd1oiq1c
p1
I1
sVd6pymt2
p2
I1
s.(dp0
Vd1oiq1c
p1
I1
sVd9dc6p6
p2
I1
s.(dp0
Vd1oiq1c
p1
I1
sVd9dc6p6
p2
I1
s.(dp0
Vd1oiq1c
p1
I1
sVdb7u304
p2
I1
s.(dp0
Vd1oiq1c
p1
I1
sVdd05p2e
p2
I1
s.(dp0
Vd1oiq1c
p1
I1
sVddclaff
p2
I1
s.(dp0
Vd1oiq1c
p1
I1
sVdmq39lj
p2
I1
s.(dp0
Vd1oiq1c
p1
I1
sVdnbik0e
p2
I1
s.(dp0
Vd1oiq1c
p1
I1
sVdp1t48i
p2
I1
s.(dp0
Vd1oiq1c
p1
I1
sVdrpfl1l
p2
I1
s.(dp0
Vd1oiq1c
p1
I1
sVdrpfl1l
p2
I1
s.