(dp0
Vd4i2pmm
p1
I1
sVdaz3sde
p2
I1
sVdh2epdb
p3
I1
sVdnz5j4d
p4
I1
sVd0mrks1
p5
I1
sVd1zqtdg
p6
I2
sVczzozz2
p7
I1
sVdgh5umo
p8
I1
sVdnw33pm
p9
I1
sVdgjw143
p10
I1
sVdbhop72
p11
I1
sVd3fe1py
p12
I1
sVdc9ncpc
p13
I1
sVdgkuwfv
p14
I1
sVd0e7ivl
p15
I1
sVd4i2lc8
p16
I1
sVdhfjfjc
p17
I1
sVd0amajz
p18
I1
sVd4i2sbp
p19
I1
sVd7btv14
p20
I1
sVdj3uzgp
p21
I1
sVd9ig8at
p22
I1
sVd5jz2if
p23
I1
sVd84k1oj
p24
I1
sVd67pyd9
p25
I1
sVdc69uej
p26
I1
sVdqyp41h
p27
I1
sVdcb7ujx
p28
I1
sVdb9g80j
p29
I1
sVdsmej09
p30
I1
sVdbhfuxe
p31
I1
sVdhnaiwt
p32
I1
sVdjrfbr4
p33
I1
s.