(dp0
Vd5ltwg6
p1
I1
sVdgw5cx9
p2
I2
sVdo6juh1
p3
I1
sVd0vh034
p4
I1
sVd9p99wi
p5
I1
sVdtg8qoo
p6
I1
sVda0tah5
p7
I1
sVczhy7ix
p8
I1
sVd8ay70m
p9
I1
sVdbwnmen
p10
I1
sVdmrk3ue
p11
I2
sVcztqef1
p12
I1
sVd7e815u
p13
I1
sVdembpkc
p14
I1
sVd5ulkom
p15
I1
sVdb3b0mz
p16
I1
sVdkvw5ic
p17
I1
sVdgwgtkw
p18
I1
sVcyneiyi
p19
I1
sVdnpw6ld
p20
I1
sVdbsxpza
p21
I1
sVdmxbquf
p22
I1
sVdkyz7qb
p23
I1
sVdi8cqv3
p24
I1
sVczvaoks
p25
I1
sVdby7ewb
p26
I1
sVdi8u9m0
p27
I1
sVddl98p5
p28
I1
sVdcooq0b
p29
I1
sVdf6zxxq
p30
I1
sVdhtavnt
p31
I1
sVd569sf2
p32
I1
sVdk6371z
p33
I1
sVdf97e1z
p34
I1
sVdcur5kz
p35
I1
sVd2ettgp
p36
I1
sVdrf0bf1
p37
I1
sVdj8nop5
p38
I1
sVd3p66ju
p39
I1
sVd3takku
p40
I1
sVdfikfrz
p41
I1
sVd2zkcff
p42
I1
sVdcbho3u
p43
I1
sVczadxfu
p44
I1
sVdnxdbfj
p45
I1
sVdg4h632
p46
I1
sVde20l24
p47
I1
sVd1m1hge
p48
I1
sVdc5d949
p49
I1
sVdp5p9aq
p50
I1
sVdhre5l5
p51
I1
sVd0p46j8
p52
I1
sVd12mvj8
p53
I2
sVd14y62t
p54
I1
sVdsmxd5s
p55
I1
sVdafcn9g
p56
I1
sVd6qvdev
p57
I1
sVdodgq0d
p58
I1
sVdnfp9k2
p59
I1
sVdc151iz
p60
I1
sVdoz53xs
p61
I1
sVdthjdfs
p62
I1
sVdsowley
p63
I1
sVdhjbngi
p64
I1
sVdo6wus8
p65
I1
sVd4esdjm
p66
I1
sVdnqndf4
p67
I1
sVdt5cl5u
p68
I1
sVd46dms5
p69
I1
sVdetbv5z
p70
I3
sVdgvnf7s
p71
I1
sVd3bszfv
p72
I1
sVd2krnnh
p73
I1
sVcynhc2u
p74
I1
sVdo9zp4k
p75
I2
sVd640dct
p76
I1
sVd3pfn08
p77
I1
sVd5sm2rs
p78
I1
sVdr9kc4j
p79
I2
sVdcuf6w3
p80
I1
sVdqy5yt6
p81
I1
sVczby6iq
p82
I1
s.