(dp0
Vcyq5gt2
p1
I1
sVd61vz72
p2
I2
sVdnd0bhs
p3
I1
sVdare9vt
p4
I1
sVdge7hoz
p5
I1
sVdfnmro2
p6
I1
sVd180dut
p7
I1
sVdq87dzr
p8
I1
sVd24s60n
p9
I1
sVdc31bzc
p10
I1
sVdgb1nw7
p11
I1
sVd3qeq13
p12
I1
sVdfiojl5
p13
I2
sVdnk9aii
p14
I1
sVd05035o
p15
I1
sVdkjth4l
p16
I4
sVd4sjzml
p17
I1
sVdd8auki
p18
I1
sVdkf8upf
p19
I1
sVd0wd9od
p20
I2
sVd7luna1
p21
I1
sVd0lisuh
p22
I1
sVczzl5ip
p23
I1
sVdr44bnq
p24
I1
sVd3kavl2
p25
I2
sVd44gcp1
p26
I1
sVdfve9sf
p27
I1
sVdggjj9k
p28
I1
sVd311q4h
p29
I2
sVd03g03s
p30
I3
sVddw72d3
p31
I1
sVdn8x4rq
p32
I2
sVd1w5rh5
p33
I2
sVdaxwasv
p34
I4
sVd7eojku
p35
I1
sVdezg1km
p36
I2
sVd8fvgvm
p37
I1
sVd42frjv
p38
I1
sVdgjtvhu
p39
I1
sVd21ova1
p40
I1
sVdegq1or
p41
I1
sVderceot
p42
I1
sVdig3whu
p43
I1
sVdf1v5vd
p44
I1
sVd5ax1dr
p45
I1
sVd9vlymz
p46
I2
sVcz6g6tz
p47
I2
sVdghrx3s
p48
I1
sVdey7013
p49
I1
sVd75sl3y
p50
I2
sVdexv2fn
p51
I1
sVd5bgcm5
p52
I1
sVd5c1a17
p53
I2
sVd1i4owg
p54
I1
sVdkqg5xy
p55
I1
sVd4e3rfw
p56
I1
sVdg5zqpy
p57
I1
sVdoutfvv
p58
I1
sVdobwle0
p59
I1
sVdorg0ol
p60
I1
sVcysjp49
p61
I1
sVdellek0
p62
I1
sVcz72v5m
p63
I1
sVd16n7d2
p64
I3
sVdi8ts8e
p65
I1
sVdjehaei
p66
I1
sVcyih52y
p67
I1
sVcyo0ib0
p68
I1
sVdf6js2f
p69
I2
sVd20rwws
p70
I2
sVd487v8v
p71
I1
sVd73m8z7
p72
I2
sVd333ckt
p73
I2
sVd51ga4b
p74
I2
sVd6hyiwd
p75
I1
sVd2eum3q
p76
I1
sVdj0uj9t
p77
I1
sVcz038pa
p78
I3
sVdmticxa
p79
I1
sVczxun39
p80
I1
sVdfp4dia
p81
I1
sVd9474p1
p82
I1
sVdgs9s1d
p83
I1
sVd10ldd9
p84
I1
sVdj35r7u
p85
I1
sVcz9wdco
p86
I1
sVd4ugjry
p87
I1
sVdftwo4s
p88
I1
sVdr0gnxr
p89
I1
sVd7oqofl
p90
I1
sVd716z8d
p91
I1
sVd3l62pf
p92
I1
sVdd1rjdz
p93
I1
sVd0oswoi
p94
I1
sVdayepwh
p95
I1
sVd5xsqvp
p96
I1
sVdbootu0
p97
I1
sVcz58uc6
p98
I1
sVdh7imlz
p99
I1
sVdhdh0rd
p100
I2
sVd4ksbum
p101
I1
sVd0m9vjy
p102
I1
sVd4u8yro
p103
I1
sVcyi2cg2
p104
I1
sVdnoddx5
p105
I1
sVdf3chkf
p106
I1
sVd9b21km
p107
I1
sVd7jhxn8
p108
I1
sVd00sp73
p109
I1
sVd521ybt
p110
I2
sVd74srt2
p111
I1
sVd342yo6
p112
I1
sVdbmnd8y
p113
I1
sVd1njxw9
p114
I1
sVd9j37s6
p115
I1
sVd23u4je
p116
I1
sVcziem64
p117
I1
sVd4m6gju
p118
I1
sVd309qxu
p119
I1
sVdgxe4dg
p120
I1
sVdkcskzj
p121
I1
sVdbmv8e9
p122
I1
sVczm571e
p123
I2
sVd2w11is
p124
I1
sVday7g0r
p125
I1
sVdknbfz4
p126
I1
sVd35i18t
p127
I1
sVd63fmr4
p128
I4
sVdanlk90
p129
I1
sVd2h3u5y
p130
I2
sVdg8oq0z
p131
I1
sVd4i5c6l
p132
I1
sVd6aj5w7
p133
I2
sVd5bj3x9
p134
I1
sVdoa08l9
p135
I1
sVdgmw1hx
p136
I1
sVdpvxt2u
p137
I1
sVd26fgvy
p138
I2
sVd4h38lh
p139
I1
sVd3k8hko
p140
I2
sVdav4qep
p141
I1
sVd6p94un
p142
I1
sVd4kvg2c
p143
I1
sVd4sti0p
p144
I1
sVd7lhfon
p145
I1
sVdej7ct8
p146
I2
sVdglja93
p147
I1
sVd5xtayo
p148
I1
sVcymd56h
p149
I1
sVdi6jgpm
p150
I1
sVcz0qfo5
p151
I2
sVdboh119
p152
I1
sVddlyk0y
p153
I1
sVdej7g2u
p154
I1
sVdgq5wut
p155
I1
sVddm9stl
p156
I1
sVd0rtmq3
p157
I1
sVde5o58t
p158
I1
sVd7dnd7k
p159
I1
sVdae2f3q
p160
I1
sVd1zv9xq
p161
I1
sVdggol6c
p162
I1
sVdan257x
p163
I2
sVdaxk0hw
p164
I1
sVd7o82rc
p165
I1
sVczhppj5
p166
I1
sVd077deh
p167
I1
sVd7mutfg
p168
I1
sVd2ksqju
p169
I2
sVcz6gzv2
p170
I2
sVd6cixy6
p171
I1
sVczcwfcv
p172
I1
sVcz4nytq
p173
I1
sVd6p9erf
p174
I1
sVd1f2bua
p175
I1
sVdbc7t6t
p176
I1
sVd2bh3om
p177
I1
sVdp14fv4
p178
I1
sVd22gsrd
p179
I1
sVd387b0b
p180
I1
sVd4zj54p
p181
I2
sVd0by33l
p182
I1
sVd8450wx
p183
I1
sVd5vr7g4
p184
I1
sVd0vrljy
p185
I1
sVdkvycng
p186
I1
sVd0fj8rb
p187
I1
sVd2gkteb
p188
I3
sVdfljerj
p189
I1
sVdjje3f9
p190
I1
sVd4588uk
p191
I2
sVd44jys3
p192
I1
sVd0gkq7u
p193
I2
sVd0kvzco
p194
I1
sVdjeyen0
p195
I1
sVd23sojk
p196
I1
sVd6t8prh
p197
I2
sVd0syjx6
p198
I1
sVd83zkpf
p199
I2
sVdg2y629
p200
I1
sVd8xqv4t
p201
I1
sVcypqh27
p202
I1
sVcz13v5l
p203
I2
sVdkspd5b
p204
I1
sVdkys2oo
p205
I1
sVd2be0ex
p206
I1
sVd29l7hg
p207
I2
sVdscxaj8
p208
I1
sVd1r7uj5
p209
I1
sVdj0sc7h
p210
I1
sVcypez7p
p211
I1
sVd7xbmn2
p212
I1
sVd622c8t
p213
I1
sVczk32pf
p214
I2
sVd4oojzs
p215
I1
sVd9hgtu1
p216
I2
sVd3oaue8
p217
I2
sVd2bs1q5
p218
I1
sVcz7igl0
p219
I1
sVd0x4egh
p220
I1
sVd071yy1
p221
I1
sVdededw2
p222
I1
sVd0izbka
p223
I1
sVdfy2dha
p224
I1
sVd5kxofq
p225
I1
sVd2mm5er
p226
I1
sVdj59i7n
p227
I1
sVd35qxmk
p228
I1
sVd7phzat
p229
I1
sVd0byhhk
p230
I1
sVd6qe5i7
p231
I2
sVd7mcd4m
p232
I1
sVczoncf6
p233
I1
sVd08nb8v
p234
I1
sVd5t4f7p
p235
I2
sVd3ljwzu
p236
I1
sVddm6i3r
p237
I1
sVdadkxex
p238
I1
sVd0us4og
p239
I1
sVdfyic7z
p240
I1
sVdes86mg
p241
I1
sVdqhsw7i
p242
I1
sVddi0uc2
p243
I1
sVds7rvhr
p244
I1
sVdbk48o2
p245
I1
sVd9gqte0
p246
I1
sVdch6vlf
p247
I1
sVdggyrks
p248
I1
sVdq1y0jo
p249
I1
sVcyqm9m3
p250
I2
sVd7kswh5
p251
I1
sVczzsqn2
p252
I1
sVdik53vp
p253
I1
sVdbfl7y4
p254
I1
sVdowwpoj
p255
I1
sVd2te5vh
p256
I1
sVdef12by
p257
I1
sVda2rhed
p258
I1
sVd9d4f47
p259
I1
sVd1w48q0
p260
I1
sVdj4dzyv
p261
I1
sVdenw2e0
p262
I1
sVd1lf1xc
p263
I6
sVczsmw4q
p264
I1
sVd7qoir3
p265
I1
sVd1tshb8
p266
I3
sVdipl9dy
p267
I2
sVdk00rm2
p268
I1
sVd9pnerr
p269
I1
sVd8cf9ga
p270
I1
sVd27do2y
p271
I1
sVdpp663w
p272
I2
sVcz6uu0v
p273
I1
sVdi446hk
p274
I1
sVdro4k95
p275
I1
sVd12ofsl
p276
I1
sVd46qfvr
p277
I1
sVddik5ct
p278
I1
sVczki1ip
p279
I1
sVd38g2eg
p280
I2
sVdk1wri5
p281
I2
sVczie4hk
p282
I1
sVd2pyk89
p283
I1
sVd7hqc6i
p284
I1
sVcztza68
p285
I2
sVd2m4vq8
p286
I1
sVdf6jppg
p287
I2
sVdaaibj9
p288
I1
sVcz7i49e
p289
I1
sVdbhopt2
p290
I1
sVdbpkn9x
p291
I1
sVcyj6p8t
p292
I1
sVdmo2ind
p293
I2
sVdeflnqu
p294
I3
sVda60jd8
p295
I1
sVd0j5jd0
p296
I1
sVdk7wo0q
p297
I1
sVd17vr1y
p298
I1
sVdrg6ahr
p299
I1
sVd2sah9v
p300
I1
sVcysf1qk
p301
I3
sVdg6nmhi
p302
I1
sVdj8o9mr
p303
I1
sVd40vscb
p304
I2
sVdp258sj
p305
I1
sVdaj6ere
p306
I1
sVdezdbxc
p307
I3
sVczk2wh6
p308
I1
sVd29yg4j
p309
I1
sVd3t5ekj
p310
I1
sVd0449s2
p311
I1
sVdcxcwa2
p312
I1
sVd2zq3bi
p313
I1
sVd9z0nrd
p314
I1
sVdir3ga4
p315
I2
sVdns7qhp
p316
I1
sVd8c8b4z
p317
I1
sVddxeggu
p318
I1
sVdeape26
p319
I1
sVd6khsmz
p320
I1
sVdj0swrb
p321
I1
sVdcacph6
p322
I1
sVd1n7756
p323
I1
sVdt0algm
p324
I1
sVdeul9hn
p325
I1
sVddoytaj
p326
I1
sVcyjs9c3
p327
I1
sVd67vqsu
p328
I1
sVd1xi36r
p329
I1
sVd2pd58e
p330
I1
sVdb4zc8j
p331
I1
sVdtbpqnz
p332
I1
sVdnnpw01
p333
I1
sVd2ma6cb
p334
I2
sVcztx45i
p335
I1
sVd3128s6
p336
I1
sVdpuha6l
p337
I1
sVd30cihl
p338
I1
sVcyi1f86
p339
I1
sVd00lqrw
p340
I1
sVcyqpqwr
p341
I1
sVd1gs5np
p342
I2
sVd4eto2m
p343
I1
sVd2gs9af
p344
I1
sVdc8ayzc
p345
I1
sVd13fqgg
p346
I1
sVd7b5bhi
p347
I1
sVd2bq47z
p348
I1
sVdfv5xtm
p349
I1
sVdknnub5
p350
I1
sVdfhjw91
p351
I1
sVd2ber8u
p352
I1
sVdc5llkw
p353
I1
sVd4c2g3o
p354
I2
sVd0vzecn
p355
I1
sVd68xst5
p356
I1
sVd7mqthq
p357
I1
sVd1nl4g5
p358
I2
sVd7xetya
p359
I1
sVd840eq5
p360
I1
sVd31bhh4
p361
I1
sVd1mebia
p362
I1
sVcyk9342
p363
I1
sVd2kfiq2
p364
I1
sVd7dwigv
p365
I1
sVdtdeyfg
p366
I1
sVdmqck6z
p367
I1
sVdmerits
p368
I1
sVdii9lym
p369
I1
sVdh0u0wn
p370
I1
sVcz8mhav
p371
I1
sVdk836as
p372
I1
sVd2wjajd
p373
I1
sVdj6uzfu
p374
I1
sVddq2b4h
p375
I1
sVdiab4ep
p376
I1
sVdkuf1i1
p377
I1
sVd8xqcj1
p378
I1
sVdavld90
p379
I1
sVdgmf6ti
p380
I1
sVd8hgf69
p381
I3
sVd2ztz0i
p382
I1
sVdox7nlu
p383
I1
sVd5ugxgv
p384
I1
sVd8fbqit
p385
I1
sVdjxcdyt
p386
I1
sVd47ig8f
p387
I1
sVdkqtgna
p388
I1
sVd972wz8
p389
I1
sVd7immey
p390
I1
sVd8pu17r
p391
I1
sVd44x3jf
p392
I1
sVdkp94h6
p393
I1
sVdqqsgnv
p394
I1
sVd33kj4t
p395
I1
sVd5zvl24
p396
I1
sVd3kwc5a
p397
I1
sVd6hxip3
p398
I1
sVdizgk7s
p399
I1
sVd7r7xs7
p400
I1
sVd0vhnlw
p401
I1
sVd5r2h9d
p402
I1
sVddwgcw1
p403
I1
sVdgkc06j
p404
I1
sVd7dxs6p
p405
I4
sVd82mj31
p406
I1
sVde2awmw
p407
I1
sVdmjdj83
p408
I1
sVd20bpr9
p409
I1
sVdropzrd
p410
I1
sVcz1gltu
p411
I1
sVdpn4001
p412
I1
sVdkisapi
p413
I1
sVcznwm9r
p414
I1
sVd00mepn
p415
I1
sVd768uts
p416
I1
sVd726evj
p417
I1
sVd2duf9s
p418
I1
sVdn3w7ns
p419
I1
sVd5v04c9
p420
I2
sVd6hr5la
p421
I1
sVdccizxd
p422
I1
sVdb899iy
p423
I1
sVdkg21wl
p424
I1
sVddplrff
p425
I2
sVd7dl31f
p426
I1
sVcyrj7oo
p427
I1
sVdk92828
p428
I1
sVdcir9v4
p429
I1
sVcz6w6x8
p430
I1
sVdcvibhu
p431
I1
sVd35fc8k
p432
I1
sVcyvtcca
p433
I3
sVd5q1sr2
p434
I1
sVdjspbrp
p435
I1
sVd5swaos
p436
I1
sVdghsplq
p437
I4
sVdjca6hp
p438
I1
sVdhcutyp
p439
I1
sVdt33lvn
p440
I1
sVd7i2sdr
p441
I1
sVd5wwn3c
p442
I1
sVcytqihf
p443
I1
sVd0kn5nc
p444
I2
sVd3hxrz1
p445
I1
sVd3x7kfk
p446
I1
sVd88o52v
p447
I1
sVd5zks1c
p448
I1
sVczfbdw5
p449
I1
sVd2obmqp
p450
I1
sVd6ohd2a
p451
I1
sVdkmk8zx
p452
I1
sVdkqa9uj
p453
I2
sVd5tuj9h
p454
I1
sVdd3p8nl
p455
I1
sVdtcxx0v
p456
I1
sVczttdez
p457
I3
sVd3k8kfr
p458
I2
sVd2jo89m
p459
I1
sVd44x55g
p460
I2
sVd1p9ens
p461
I1
sVd2qqpot
p462
I1
sVd1rufb2
p463
I1
sVd5mcajd
p464
I7
sVd7l7adk
p465
I1
sVdaf9n7k
p466
I1
sVcyl43z2
p467
I1
sVd7kzfzf
p468
I1
sVdc100ue
p469
I1
sVderhcmm
p470
I1
sVdemmode
p471
I1
sVdeh78ag
p472
I1
sVdggkysi
p473
I1
sVd00srho
p474
I1
sVcylr2jp
p475
I1
sVdeh26pr
p476
I1
sVd8r1e44
p477
I1
sVdfrm487
p478
I1
sVd3ffjlv
p479
I1
sVdjpxvki
p480
I1
sVd7wdl2a
p481
I1
sVdfviupy
p482
I1
sVd7rg2vf
p483
I1
sVdruppo4
p484
I1
sVdrshiql
p485
I1
sVd1qvv3y
p486
I1
sVd21c9nt
p487
I1
sVderjzbi
p488
I2
sVd2gnwmu
p489
I1
sVd9arzvh
p490
I1
sVddl7u8j
p491
I1
sVd1ylqov
p492
I1
sVdghsuj6
p493
I1
sVd02a57y
p494
I1
sVd7vwg7v
p495
I1
sVd5sjbxu
p496
I1
sVdp2mr5l
p497
I1
sVd2gfxpn
p498
I1
sVdnffaat
p499
I1
sVdikxvhy
p500
I1
sVd2a1y9l
p501
I1
sVd99luoa
p502
I1
sVd2gq9s0
p503
I1
sVczomu78
p504
I1
sVdspeth8
p505
I1
sVdi1xq10
p506
I2
sVd0zrjrr
p507
I1
sVdiyxplw
p508
I1
sVdryjap1
p509
I1
sVcysf2xz
p510
I2
sVd0itz43
p511
I4
sVd7eb9zi
p512
I3
sVd6mc08i
p513
I1
sVdhevjxc
p514
I1
sVd04489b
p515
I1
sVdfgsh80
p516
I1
sVdar8e1f
p517
I1
sVdmwvgl1
p518
I1
sVdf72pf7
p519
I1
sVd7f2r68
p520
I1
sVczcxz58
p521
I1
sVd5p2uv6
p522
I1
sVdawlc4x
p523
I1
sVd0abcp3
p524
I1
sVdjsk6ma
p525
I1
sVd14hzg6
p526
I1
sVd70dt0h
p527
I2
sVdel2y9o
p528
I1
sVd4bxqyk
p529
I1
sVdb1yay3
p530
I2
sVd0c8p7b
p531
I1
sVd0gj3bv
p532
I2
sVd727hf1
p533
I2
sVdh44s05
p534
I1
sVd7qyaey
p535
I3
sVd2fdo65
p536
I6
sVd64tx5t
p537
I1
sVddxgj90
p538
I1
sVdkjg8bm
p539
I1
sVdjsx777
p540
I1
sVdn4xhl2
p541
I1
sVdn8o4oh
p542
I1
sVdfql3ln
p543
I4
sVdkvvotl
p544
I1
sVdpnawdi
p545
I1
sVcyomhye
p546
I2
sVdea37k5
p547
I1
sVdsphz7d
p548
I2
sVd1rzh8f
p549
I1
sVd2xyi5k
p550
I2
sVdjwsu3n
p551
I1
sVdpu1iby
p552
I1
sVde81i0c
p553
I1
sVd44x88a
p554
I3
sVdhn2jic
p555
I1
sVd1j896u
p556
I1
sVd1jteis
p557
I2
sVddcu0mx
p558
I2
sVd46fk9r
p559
I1
sVdejzq1v
p560
I1
sVczyq4c0
p561
I1
sVcz95ycw
p562
I2
sVdbv7jv6
p563
I1
sVczu326l
p564
I3
sVdr5o0hm
p565
I1
sVd0797sn
p566
I1
sVd0tca7v
p567
I1
sVd16lszz
p568
I3
sVd71if0w
p569
I1
sVdcrr74j
p570
I1
sVdfuvu0a
p571
I1
sVd4bhn4q
p572
I1
sVd1oj9yl
p573
I2
sVcznnazc
p574
I1
sVdcja52p
p575
I2
sVdhi3f8c
p576
I1
sVdsphx2q
p577
I1
sVd2l8nms
p578
I2
sVd08va99
p579
I1
sVd5snazb
p580
I1
sVcz3wbb1
p581
I3
sVd5g9xx7
p582
I1
sVdnuc07n
p583
I1
sVd3851r7
p584
I1
sVdq3z43k
p585
I1
sVdd1qx7k
p586
I1
sVdfh93cd
p587
I1
sVd5kuma2
p588
I1
sVd8hol6o
p589
I1
sVd0vtnfy
p590
I1
sVcysfd1l
p591
I4
sVd9arwnw
p592
I1
sVd8a1tae
p593
I2
sVd6a6asp
p594
I1
sVd2pcgja
p595
I1
sVd0kijuk
p596
I1
sVd2okmm7
p597
I1
sVd3b7z93
p598
I1
sVdehho9l
p599
I1
sVd0am2xt
p600
I1
sVdal0wdm
p601
I2
sVdtevfg9
p602
I1
sVcyvo0hi
p603
I3
sVd1frnee
p604
I1
sVdkyd3co
p605
I1
sVdkhmwc6
p606
I1
sVd4s1ep0
p607
I2
sVdkop1u0
p608
I1
sVcyuoog5
p609
I1
sVdbgr1hl
p610
I1
sVda352sb
p611
I1
sVczw8mek
p612
I2
sVd20scc2
p613
I1
sVdscxc6p
p614
I1
sVdansuuq
p615
I1
sVd5ftwlt
p616
I1
sVdr86oka
p617
I1
sVd2gikdd
p618
I1
sVd4j4f1n
p619
I1
sVd1nl470
p620
I2
sVdfoyepj
p621
I1
sVdedlaci
p622
I1
sVczazjgi
p623
I1
sVds6ceiw
p624
I1
sVd345q2q
p625
I1
sVcz7lhxg
p626
I3
sVdhndzdl
p627
I1
sVd7ie7se
p628
I5
sVd64tu9m
p629
I1
sVdihau6o
p630
I1
sVdhpiuad
p631
I1
sVdiplrbs
p632
I1
sVdip788g
p633
I1
sVd66p1y3
p634
I1
sVd46pxf8
p635
I2
sVd5xyevh
p636
I1
sVdrrlms1
p637
I1
sVdig3z0b
p638
I1
sVd76v6ov
p639
I1
sVd0v0r97
p640
I4
sVd49skqz
p641
I1
sVd7qw4v9
p642
I1
sVdipd8nw
p643
I1
sVda3jy6k
p644
I2
sVdqezelp
p645
I1
sVdh51w35
p646
I1
sVds864rt
p647
I2
sVd7kc4ew
p648
I1
sVd0gxwkd
p649
I1
sVd1hhol9
p650
I1
sVdmuedgv
p651
I1
sVdag8k99
p652
I1
sVd6m1dke
p653
I1
sVd1mjajr
p654
I1
sVd5grwai
p655
I2
sVd7p6h4a
p656
I1
sVdnfjel9
p657
I1
sVd7e5as0
p658
I2
sVd4xdjln
p659
I1
sVd6oxzeo
p660
I2
sVdclz7rp
p661
I3
sVdbw6vrb
p662
I1
sVczbtxz4
p663
I1
sVd2w9c6c
p664
I1
sVczk3o4m
p665
I1
sVd9vhild
p666
I1
sVd44zw2s
p667
I1
sVdfekaiu
p668
I1
sVdmuar6f
p669
I3
sVd7p1eh7
p670
I1
sVd16w7f5
p671
I2
sVd4l2imq
p672
I1
sVd0w1xik
p673
I1
sVdgs7tgm
p674
I1
sVd0l0zzn
p675
I3
sVdel8dmi
p676
I1
sVdgd2lcb
p677
I1
sVdfxur75
p678
I2
sVd0zup9h
p679
I1
sVd2l5sar
p680
I1
sVdklnnoi
p681
I1
sVd1nlotw
p682
I2
sVcyszghr
p683
I2
sVdk666z0
p684
I1
sVd7hqb9y
p685
I1
sVdpvoogf
p686
I1
sVdaje9vv
p687
I1
sVd2bm6gq
p688
I1
sVdoi4js7
p689
I1
sVd3kp0et
p690
I2
sVddrnlvv
p691
I1
sVd7awypb
p692
I1
sVd04tpuo
p693
I1
sVczs0t3g
p694
I1
sVcyoyfkq
p695
I1
sVd3sg2o9
p696
I1
sVd038knd
p697
I1
sVdktijhj
p698
I1
sVdcch8di
p699
I1
sVd8nq5b9
p700
I1
sVd9vx96j
p701
I1
sVcyz4y8j
p702
I1
sVd6pqgfd
p703
I1
s.