(dp0
Vd5n2yq7
p1
I1
sVd0jgjxh
p2
I1
sVd5elti5
p3
I1
sVdrsnyt1
p4
I1
sVd971cp9
p5
I4
sVcz5p74o
p6
I2
sVdc5ysqv
p7
I1
sVd1kwc0b
p8
I1
sVcz3xxi2
p9
I1
sVd87preg
p10
I2
sVd02qpgw
p11
I2
sVd586o5k
p12
I6
sVd5bj3x9
p13
I1
sVdfx24d5
p14
I1
sVdnv0dmx
p15
I1
sVdgmom64
p16
I1
sVdjr28u3
p17
I2
sVczyqh95
p18
I1
sVd586kzs
p19
I1
sVd87n5m5
p20
I1
sVd5rvtiv
p21
I2
sVdb28ndo
p22
I1
sVcym3ml9
p23
I1
sVd72dlxy
p24
I1
sVdnp5aye
p25
I1
sVd1s5g4m
p26
I1
sVdivs4q3
p27
I2
sVdcrcotl
p28
I1
sVdqtbhp3
p29
I1
sVd53q0e1
p30
I2
sVd7k7gdl
p31
I1
sVdgg30ri
p32
I2
sVd58dl6c
p33
I2
sVd6vgsrl
p34
I2
sVd65uyvj
p35
I2
sVd5ay6bq
p36
I2
sVdcuw81r
p37
I4
sVczr0rgv
p38
I1
sVd6lukli
p39
I1
sVdo3fu5j
p40
I2
sVdfwykkg
p41
I1
sVd6l58p8
p42
I1
sVdcux6wo
p43
I1
sVcz3xruq
p44
I1
sVdr63nkm
p45
I3
sVdomkgzv
p46
I1
sVdaxpefp
p47
I1
sVdbriato
p48
I2
s.