(dp0
Vddfmtnu
p1
I2
sVdsrfp2b
p2
I1
sVd61vz72
p3
I1
sVcyo1oks
p4
I1
sVdoyezca
p5
I1
sVd3w604v
p6
I1
sVdfkzmqu
p7
I1
sVdt7bk6b
p8
I1
sVdbkqd1o
p9
I1
sVd2xayd8
p10
I1
sVd0nxc4b
p11
I1
sVd5x2we3
p12
I1
sVdfsvwij
p13
I1
sVd6h71xe
p14
I1
sVczgn5bk
p15
I1
sVdhswjdf
p16
I1
sVdf915pb
p17
I1
sVd5x2z29
p18
I1
sVdmve9tk
p19
I1
sVd08kzig
p20
I1
sVd0r942f
p21
I1
sVdbe0fl6
p22
I1
sVd5kfdr8
p23
I2
sVdrvnvy4
p24
I1
sVdqx4ozt
p25
I2
sVdnczxjh
p26
I1
sVdhd7ncn
p27
I1
sVdt9gh8t
p28
I1
sVdfsyhkr
p29
I1
sVdtg2afr
p30
I1
sVdf8pr2k
p31
I1
sVddixzyu
p32
I1
sVd5drj10
p33
I2
sVde3oy60
p34
I1
sVd6yu1oq
p35
I1
sVdhwrvxr
p36
I1
sVddi3u8m
p37
I1
sVdnd9k9k
p38
I1
sVdmzd3dz
p39
I1
sVd8w6ugb
p40
I1
sVczgdrbi
p41
I1
sVde36gtx
p42
I1
sVd8vwrs7
p43
I1
sVdmn3nao
p44
I1
sVdf7lrv0
p45
I1
sVdo7v10z
p46
I1
sVd0vdvrt
p47
I1
sVd10ti1r
p48
I1
sVd7ar6cg
p49
I1
sVdc23eut
p50
I1
sVde8uqln
p51
I1
sVd7gq834
p52
I1
sVdawvlbj
p53
I1
sVd4hry7o
p54
I1
sVdrtd2bu
p55
I1
sVd32qw8g
p56
I1
sVd50fam1
p57
I1
sVd0us4og
p58
I1
sVdgj2ban
p59
I1
sVdpbuqob
p60
I1
sVdeq8h7q
p61
I1
sVdryf52o
p62
I1
sVdbi2fx7
p63
I1
sVdc2bg6f
p64
I1
sVdj2s3y9
p65
I1
sVd8aolmp
p66
I1
sVdqqtb2x
p67
I1
sVdap13vl
p68
I1
sVd2fd35h
p69
I1
sVdg5dfou
p70
I1
sVd48oojr
p71
I1
sVczcf4x1
p72
I1
sVcz7loq6
p73
I1
sVdfg0u6o
p74
I1
sVd25bvpl
p75
I1
sVde7r1ey
p76
I1
sVdgml86j
p77
I1
sVd0g1id2
p78
I1
sVddctgpi
p79
I1
sVdi5cp6i
p80
I1
sVdelagot
p81
I1
sVd6lj0m5
p82
I1
sVdekndyj
p83
I1
sVdr5211z
p84
I1
sVd2csg1c
p85
I1
sVd2fu5o2
p86
I1
sVcykbqsu
p87
I1
sVczo9zqa
p88
I2
sVdrrq7xd
p89
I1
sVdrszpa4
p90
I1
sVdcl40ke
p91
I1
sVdqgi42o
p92
I1
sVdasz29d
p93
I1
sVdacf1s6
p94
I1
sVdhtb1an
p95
I1
sVcyilw51
p96
I1
sVdo4y7gf
p97
I1
sVd40phin
p98
I1
sVd4ksbum
p99
I1
sVdpyjb75
p100
I1
sVd1ziyho
p101
I1
sVdivvq4i
p102
I1
sVdpapw3m
p103
I1
sVdqitb3x
p104
I1
sVd3cicrs
p105
I1
sVd2ds9ja
p106
I1
sVd0moxz3
p107
I1
sVd1aktr4
p108
I1
sVcyiic6t
p109
I1
sVdqdiaaa
p110
I1
sVddypkqh
p111
I1
sVdt3ny6l
p112
I2
sVd7k6vaf
p113
I5
sVdam7dry
p114
I1
sVdemw509
p115
I1
sVde708wc
p116
I1
sVd8gokes
p117
I2
sVdmvqm5y
p118
I1
sVdiab2ev
p119
I1
sVdod06wn
p120
I1
sVd5eprjy
p121
I1
sVd1epys8
p122
I1
sVdfhcxb4
p123
I1
sVcytnzmg
p124
I1
sVdnrsfi3
p125
I1
sVd0d2i87
p126
I1
sVd5mgu9g
p127
I1
sVddtgru3
p128
I3
sVdf0ny4b
p129
I1
sVdt9jr98
p130
I1
sVd3xofn9
p131
I1
sVd0molbj
p132
I1
sVd6anbeg
p133
I1
sVd64q884
p134
I2
sVd4pqr0o
p135
I1
sVdevsvyi
p136
I2
sVd0w68vq
p137
I1
sVd0drlfk
p138
I1
sVczacu5t
p139
I2
sVd22axzg
p140
I1
sVd4il45q
p141
I1
sVd42v4xu
p142
I1
sVdq8i4pt
p143
I1
sVd4hnso7
p144
I1
sVdi5uv0m
p145
I1
sVdpg1qwc
p146
I1
sVdq6i95e
p147
I1
sVdovdq20
p148
I1
sVda1nx7f
p149
I1
sVdbpj3ij
p150
I1
sVd2qj2rt
p151
I1
sVdaettcv
p152
I1
sVdhl829t
p153
I1
sVd0xlpu7
p154
I1
sVd5jc5ka
p155
I1
sVdolyxfh
p156
I1
sVd59cwfb
p157
I1
sVdifo7nj
p158
I1
sVdjcuedg
p159
I1
sVdbh2k53
p160
I1
sVdqxopfn
p161
I1
sVddvndpw
p162
I2
sVd00kcsv
p163
I1
sVd017avt
p164
I1
sVdikkqg1
p165
I1
sVd0b9ua9
p166
I1
sVdpbopww
p167
I1
sVdeq51r1
p168
I1
sVde4txea
p169
I1
sVdnmdxnu
p170
I1
sVd28ydjq
p171
I1
sVdqot3e7
p172
I1
sVdb8xiid
p173
I1
sVd905oa6
p174
I1
sVdjplx95
p175
I2
sVdgzwh1n
p176
I1
sVd1w1dol
p177
I1
sVd5ay6bq
p178
I1
sVddxoim8
p179
I1
sVdgt6t0m
p180
I2
sVd2rmwrg
p181
I2
sVd8t9tcj
p182
I1
sVd3lfw8d
p183
I3
sVdjqw2zi
p184
I1
sVdfnapw7
p185
I1
sVd4trt82
p186
I1
sVddmol45
p187
I1
sVdr10kwn
p188
I1
sVda5jivq
p189
I1
sVd1fyggz
p190
I1
sVdrydokd
p191
I1
sVdrgd3qv
p192
I1
sVddx130i
p193
I1
sVd6kum1p
p194
I1
sVd2aqs9g
p195
I1
sVdf1ihk9
p196
I1
sVdsyoqas
p197
I1
sVdcw32jz
p198
I1
sVcyjrhct
p199
I1
sVdqp51wq
p200
I1
sVdjcgq82
p201
I2
sVdfke1cg
p202
I2
sVd496fj4
p203
I1
sVdbb3z1d
p204
I1
sVdce7xsg
p205
I1
sVd5bglv8
p206
I1
sVddpx82e
p207
I1
sVdooaq6c
p208
I1
sVdi0t1xl
p209
I1
sVdiioham
p210
I1
sVdimuzu2
p211
I1
sVdoazntf
p212
I1
sVd3mxml7
p213
I1
sVd15mwco
p214
I1
sVdbcont4
p215
I1
sVdgkrxfg
p216
I1
sVdjeh7jm
p217
I1
sVd2bqtv8
p218
I1
sVdbh4sob
p219
I1
sVdj0stbh
p220
I1
sVdpq3xu3
p221
I1
sVcyjykc6
p222
I1
sVdropa0s
p223
I1
sVd1dihh5
p224
I1
sVd67r8tu
p225
I1
sVd53z1ff
p226
I2
sVdnnuhef
p227
I1
sVdcs006n
p228
I1
sVd03atgx
p229
I1
sVdkfrhto
p230
I1
sVde7ta2i
p231
I1
sVdb5le7l
p232
I1
sVd1d5nrx
p233
I1
sVd24g0qg
p234
I1
sVdt73pdg
p235
I1
sVd0d9ch8
p236
I3
sVczjoz37
p237
I1
sVd7kru84
p238
I1
sVd3bcbkm
p239
I1
sVd9aejt0
p240
I3
sVdqco23t
p241
I1
sVdhn5uec
p242
I1
sVd1dthys
p243
I1
sVd4ziz8i
p244
I1
sVddfwipc
p245
I1
sVden0ph1
p246
I1
sVdhxdhti
p247
I1
sVd4tgift
p248
I2
sVd6ias2m
p249
I1
sVd8cigi6
p250
I1
sVdbs29wy
p251
I1
sVdr5yyz9
p252
I1
sVdeejs68
p253
I1
sVdaz2t6q
p254
I1
sVd2ykz8g
p255
I1
sVdt6ilo2
p256
I1
sVdh6zb3z
p257
I1
sVd72ii7k
p258
I1
sVdc1n7cv
p259
I1
sVdic838w
p260
I1
sVcyxwyxg
p261
I1
sVd8hxbpg
p262
I1
sVd5cb8ww
p263
I1
sVdjfwerx
p264
I2
sVd8f0snp
p265
I1
sVdjomyzv
p266
I1
sVd3mrt6j
p267
I1
sVdq5kw9i
p268
I1
sVdhiywp5
p269
I1
sVdoek40k
p270
I1
sVdhd8tt6
p271
I1
sVczz5818
p272
I1
sVdjjlej5
p273
I1
sVdghz2b7
p274
I1
sVd4j2h7p
p275
I1
sVd9fmwqt
p276
I1
sVd71eaic
p277
I1
sVdkeabe1
p278
I1
sVdo983ox
p279
I1
sVdf7ot1k
p280
I1
sVddtg3r7
p281
I1
sVdfc54n4
p282
I1
sVd8moasb
p283
I1
sVczz19ls
p284
I1
sVd4ooi5m
p285
I2
sVdivtube
p286
I1
sVdjkli5j
p287
I1
sVddhpc2k
p288
I1
sVdbzvmca
p289
I1
sVd4xilug
p290
I1
sVd4dpmn1
p291
I1
sVdo8qewv
p292
I1
sVcyntmzl
p293
I1
sVdpqs9gn
p294
I2
sVdrpfvem
p295
I1
sVd018v1o
p296
I1
sVd82zmv1
p297
I1
sVdhfcfnf
p298
I1
sVdnu5bfl
p299
I1
sVd613xy0
p300
I2
sVd64fzeo
p301
I1
sVd3datyt
p302
I2
sVd6mvalg
p303
I2
sVde7jm29
p304
I1
sVdp1iydz
p305
I1
sVd1gal51
p306
I1
sVd26xnev
p307
I2
sVdrkc3re
p308
I1
sVd2crl2f
p309
I1
sVdc2ignm
p310
I1
sVdbctjq2
p311
I1
sVdcczjvm
p312
I1
sVdrchscc
p313
I1
sVd3rrpr4
p314
I1
sVdoepfew
p315
I1
sVd8byop3
p316
I1
sVdde0uth
p317
I1
sVcyk86sc
p318
I1
sVdig5n0q
p319
I1
sVdjo7x53
p320
I1
sVd02nhba
p321
I1
sVd628yey
p322
I1
sVd6zetw0
p323
I1
sVd1mtru4
p324
I1
sVdberuzr
p325
I1
sVd7fhl7s
p326
I8
sVdrb7qvh
p327
I1
sVd8bopay
p328
I1
sVd4whlaz
p329
I1
sVdtipblp
p330
I1
sVd0t1uuu
p331
I1
sVcyrhwxc
p332
I1
sVd6th2st
p333
I1
sVdbpj79t
p334
I2
sVd1zfxfn
p335
I1
sVd9d7pnr
p336
I1
sVd4u3v0e
p337
I1
sVd0qg3zj
p338
I1
sVd3fmipq
p339
I2
sVd6nmnkr
p340
I1
sVdg1fy04
p341
I1
sVdemz2qr
p342
I1
sVdndnlq5
p343
I1
sVdib5hb8
p344
I1
sVd402gnx
p345
I1
sVdo7rlg0
p346
I1
sVd5f8lxa
p347
I1
sVd5rjqvn
p348
I1
sVdhlnul9
p349
I1
sVcyln1wj
p350
I1
sVdeiih71
p351
I1
sVd9sptx1
p352
I1
sVd9bzejz
p353
I1
sVcyv5cz6
p354
I1
sVdcf3s4l
p355
I1
sVdafdqh6
p356
I1
sVd3o2fd7
p357
I1
sVd5zcu7n
p358
I1
sVd018ad9
p359
I1
sVdfigaku
p360
I1
sVd10m8ut
p361
I1
sVd90poo9
p362
I1
sVd33x1ks
p363
I1
sVde81i0c
p364
I1
sVdej6yi6
p365
I1
sVcyjsi9f
p366
I1
sVd9gkocf
p367
I1
sVda5lb6b
p368
I2
sVd8rfbcb
p369
I1
sVdo8sqte
p370
I1
sVd2yc9rj
p371
I1
sVdhmjjo3
p372
I1
sVdbzbg8b
p373
I1
sVd2eqory
p374
I1
sVd1mk4bv
p375
I1
sVdixd3gn
p376
I1
sVdpmu1hq
p377
I1
sVdb341p5
p378
I1
sVd9zc3h0
p379
I1
sVdcmc1tb
p380
I1
sVdedkb4l
p381
I1
sVd6u5x83
p382
I1
sVd5s71tw
p383
I6
sVdbry0t5
p384
I1
sVd0bkffe
p385
I1
sVdmet2iv
p386
I1
sVczzhpq4
p387
I1
sVd2iqfo6
p388
I1
sVded1ul5
p389
I1
sVdght79s
p390
I1
sVdsb91vp
p391
I1
sVdpaxh8r
p392
I1
sVdf7zcyu
p393
I1
sVds1xosa
p394
I1
sVd6dgenk
p395
I1
sVd058pmh
p396
I1
sVd3zxnyg
p397
I2
sVd67rznw
p398
I1
sVddkq34p
p399
I1
sVd3uhqf8
p400
I1
sVdrdxwqk
p401
I1
sVdf0dbtv
p402
I1
sVdr6zirb
p403
I1
sVd2ej5t1
p404
I1
sVd0ysagl
p405
I1
sVd7yplyw
p406
I1
sVd7op51u
p407
I1
sVdr6xu5c
p408
I1
sVd9zf6z8
p409
I1
sVd1lj54b
p410
I1
sVdouuff3
p411
I1
sVdcsg1fn
p412
I1
sVdry9f2a
p413
I1
sVczght8j
p414
I1
sVcylrese
p415
I1
sVdai6zw1
p416
I1
sVd0rtgbs
p417
I1
sVd1btxxz
p418
I1
sVdrel9nb
p419
I1
sVd8r1e44
p420
I1
sVd03jzaw
p421
I1
sVd9s7mol
p422
I1
sVdep3kyc
p423
I1
sVdav537c
p424
I1
sVd088kx3
p425
I1
sVd7p2s69
p426
I1
sVdaewkn6
p427
I1
sVdr7krfb
p428
I1
sVdjzdquc
p429
I1
sVdk8pd16
p430
I1
sVdceyw9d
p431
I1
sVd57ecma
p432
I2
sVczaffi8
p433
I1
sVd7ahfp3
p434
I1
sVd2mf2xb
p435
I1
sVd18sx98
p436
I1
sVdnisjd3
p437
I1
sVd1ob0mb
p438
I1
sVd1c3jzy
p439
I1
sVd2gdftg
p440
I1
sVdtg2ykn
p441
I1
sVdpiiny6
p442
I1
sVczca5u0
p443
I1
sVdddpok1
p444
I1
sVdgzt6yb
p445
I1
sVdosdwzn
p446
I1
sVdgt3ll0
p447
I1
sVd0y6k3z
p448
I1
sVcz44xnn
p449
I1
sVdckfxwy
p450
I2
sVd6m2g9c
p451
I1
sVdp89iii
p452
I1
sVdgq521l
p453
I1
sVdncp5pe
p454
I1
sVdaad7et
p455
I1
sVdevqqel
p456
I1
sVd5bodt6
p457
I1
sVdde1aet
p458
I1
sVdi7jd5r
p459
I1
sVdfwswo1
p460
I1
sVdqw2hm0
p461
I1
sVd14hzg6
p462
I1
sVddd7enf
p463
I1
sVdphxf7v
p464
I1
sVdrbfuot
p465
I1
sVdkrlt5x
p466
I1
sVdamp3py
p467
I1
sVdg62rvm
p468
I1
sVdevur2i
p469
I1
sVdiu7jtk
p470
I2
sVd6dzc9f
p471
I1
sVd41tjha
p472
I1
sVdczll9u
p473
I1
sVdimj3gl
p474
I1
sVdb7h5rv
p475
I1
sVdf6kebu
p476
I1
sVdb5p7f3
p477
I1
sVdksrcoz
p478
I1
sVczp64bj
p479
I1
sVd5wy993
p480
I1
sVd75y9vu
p481
I1
sVdkba6th
p482
I1
sVdpwh5zm
p483
I1
sVdei5jdc
p484
I1
sVd3vt62y
p485
I1
sVdivr3ot
p486
I1
sVdj2caf5
p487
I1
sVd3au1b1
p488
I1
sVdi2yqhd
p489
I1
sVddrgj56
p490
I1
sVd1r33bw
p491
I1
sVd2giymp
p492
I1
sVdcd1jvd
p493
I1
sVd6akq75
p494
I1
sVdctlo8n
p495
I1
sVd0clsu1
p496
I1
sVd0tuy7z
p497
I1
sVda3yxx4
p498
I3
sVd35jcue
p499
I1
sVdkc5viz
p500
I1
sVdgob8jw
p501
I1
sVd23ncxl
p502
I1
sVd81ykdf
p503
I1
sVd2ueiqy
p504
I2
sVdckmnk0
p505
I1
sVd9sovy4
p506
I1
sVdk5n547
p507
I1
sVdgrv6xp
p508
I1
sVdczfs5e
p509
I2
sVdhrgf0z
p510
I2
sVdq81qsd
p511
I2
sVd6iy9v9
p512
I1
sVd0n99h0
p513
I1
sVdketyd0
p514
I1
sVdfir9vk
p515
I1
sVddpjgsl
p516
I2
sVd3ma2bh
p517
I1
sVdesctjz
p518
I2
sVds1ieb8
p519
I1
sVdibbh7h
p520
I1
sVdmhklst
p521
I1
sVdd6c6bv
p522
I1
sVcysj4bg
p523
I1
sVczs3q34
p524
I1
sVdnlwlt5
p525
I1
sVd9lacbd
p526
I1
sVd045uex
p527
I1
sVd5jbhv3
p528
I1
sVdgqn1ey
p529
I1
sVd6gqntx
p530
I1
sVd980wqz
p531
I1
sVd9fmfpx
p532
I1
sVd45ydev
p533
I1
sVd4sqq0q
p534
I2
sVdpk3h6q
p535
I1
sVdoh7gc6
p536
I1
sVdpvzhkr
p537
I2
sVd904aww
p538
I1
sVdh79bt1
p539
I1
sVddi3oqh
p540
I1
sVczyoj2l
p541
I1
sVddyt7q2
p542
I1
sVd9rstob
p543
I1
sVcztrk7e
p544
I1
sVd9w6knd
p545
I1
sVd7c1lhg
p546
I1
sVdrrkz58
p547
I1
sVdgga1k2
p548
I1
sVds6w0b6
p549
I1
sVdbq5nd5
p550
I1
sVd4zpojf
p551
I1
sVdfy2dha
p552
I1
sVd9k5lhz
p553
I1
sVdh05jkm
p554
I1
sVcykmlpq
p555
I2
sVd0d9ukd
p556
I3
sVdg8m0ja
p557
I1
sVd030q38
p558
I2
sVdmfc88e
p559
I1
sVdje3gvx
p560
I1
sVdcmcpxl
p561
I1
sVd4bk0gh
p562
I1
sVdgt42qm
p563
I1
sVdgjvm0l
p564
I1
sVczhvwju
p565
I1
sVdei43ci
p566
I1
sVdb86af3
p567
I1
sVdbvhfqm
p568
I2
sVdnfpkl7
p569
I1
sVdft0hys
p570
I2
sVdrg7big
p571
I1
sVd7cp1kp
p572
I1
sVdhp8chb
p573
I1
sVdkybeer
p574
I1
sVd6i2grs
p575
I1
sVdivsaih
p576
I1
sVd9xo464
p577
I1
sVd0ry8ln
p578
I1
sVd74726n
p579
I1
sVd0f6ead
p580
I1
sVdrai67r
p581
I1
sVd3ionrl
p582
I1
sVdk4o4xp
p583
I1
sVd6u8hli
p584
I1
sVdiemxpm
p585
I1
sVdnd89qw
p586
I1
sVd832dvj
p587
I1
sVd9n21z8
p588
I1
sVdfrqe6e
p589
I1
sVdi6tzew
p590
I1
sVdk98l69
p591
I1
sVdq2e0kb
p592
I1
sVdr7oat7
p593
I1
sVd42v66m
p594
I1
sVd32yrhp
p595
I1
sVdampffr
p596
I1
sVde59za1
p597
I1
sVdr8oftr
p598
I1
sVd7310x6
p599
I1
sVdckhczq
p600
I1
sVd41tphh
p601
I1
sVdc9cwwl
p602
I1
sVdtiizm7
p603
I1
sVdnedspe
p604
I1
sVcytocx9
p605
I1
sVd3h00ar
p606
I1
sVddp9kid
p607
I1
sVd9fw1gn
p608
I1
sVds0hodb
p609
I1
sVdqr022l
p610
I1
sVdbvn2lx
p611
I1
sVd3lkut2
p612
I1
sVd2pin9q
p613
I1
sVd6h9987
p614
I1
sVd9atlz7
p615
I1
sVdbdig9t
p616
I1
sVdj2mu24
p617
I2
s.