(dp0
Vdbuku90
p1
I1
sVddey350
p2
I1
sVdmf9hpy
p3
I1
sVd60s78j
p4
I1
sVd9prtu6
p5
I1
sVdikdnyt
p6
I1
sVd9x5nw4
p7
I1
sVde77zia
p8
I1
sVdiu604t
p9
I1
sVd2kjhbw
p10
I1
sVd4z3qno
p11
I1
sVd37mtc1
p12
I1
sVcyqtgtq
p13
I1
sVczzl5ip
p14
I1
sVdfqgck5
p15
I1
sVdcpqrdb
p16
I1
sVdok4t86
p17
I1
sVd3969ka
p18
I1
sVdezqz5g
p19
I1
sVd75qd3w
p20
I1
sVdt8xgyc
p21
I1
sVdsfx370
p22
I1
sVd0zocxs
p23
I1
sVcyo2de3
p24
I1
sVdkjv1r3
p25
I2
sVd4hlkwp
p26
I1
sVdq23kd1
p27
I1
sVdig3zth
p28
I1
sVd7w6e5l
p29
I1
sVd37us0y
p30
I1
sVd7h1dsl
p31
I1
sVdaelgqy
p32
I1
sVdn39kdw
p33
I1
sVd253sre
p34
I1
sVdguwwdi
p35
I1
sVdsmwzsw
p36
I1
sVd0ux5dt
p37
I1
sVd224r65
p38
I1
sVdc4grt5
p39
I1
sVdekbium
p40
I1
sVd88m3g1
p41
I1
sVd4fj3aw
p42
I1
sVdi9amup
p43
I1
sVdc35kf3
p44
I1
sVd3ziyz2
p45
I1
sVdbegk8u
p46
I1
sVdsazlzi
p47
I1
sVdegbmsg
p48
I1
sVdpori0k
p49
I1
sVd4y7qts
p50
I1
sVcyybq6q
p51
I1
sVd7qvg25
p52
I1
sVd72g1f3
p53
I1
sVdnqozmn
p54
I1
sVd8el50y
p55
I1
sVd7aoay4
p56
I1
sVd65tusf
p57
I1
sVcz6mymm
p58
I1
sVdpwe4qz
p59
I1
sVdhxiix6
p60
I1
sVd9kn07h
p61
I1
sVd61y95x
p62
I1
sVdhtby8s
p63
I1
sVdj3jd3z
p64
I1
sVdobwle0
p65
I1
sVdg5uuug
p66
I1
sVdc0zzk0
p67
I1
sVd32e5ek
p68
I1
sVdgmv6u3
p69
I1
sVdgwkvnn
p70
I1
sVczi64ds
p71
I1
sVczrwe79
p72
I1
sVdht7alr
p73
I1
sVdqitb3x
p74
I1
sVcywoum3
p75
I1
sVdiy9ooz
p76
I1
sVd3hgkjm
p77
I1
sVdg5ugze
p78
I1
sVdmsvrye
p79
I1
sVd702mnx
p80
I1
sVdo16t2t
p81
I1
sVdqzva27
p82
I1
sVdateqqg
p83
I1
sVd1p9dfk
p84
I1
sVd2nut7i
p85
I1
sVdhrbm1y
p86
I1
sVd0pcfvj
p87
I1
sVd2nql1y
p88
I1
sVdosjhpa
p89
I1
sVd4ysggd
p90
I1
sVd4r33jb
p91
I1
sVdsb00dd
p92
I1
sVd1uzad2
p93
I1
sVczhwx48
p94
I2
sVd2za65s
p95
I1
sVcztpl66
p96
I1
sVdbb2nbj
p97
I1
sVd7i3b98
p98
I1
sVdqydavy
p99
I1
sVdfwap5m
p100
I1
sVd0kf832
p101
I1
sVd3is80d
p102
I1
sVd5xcsgx
p103
I2
sVdfaon59
p104
I1
sVczncbye
p105
I1
sVdglhsna
p106
I1
sVdcdjivr
p107
I1
sVdrqld4n
p108
I1
sVd67igna
p109
I1
sVdnpx0qm
p110
I1
sVcz5h3xw
p111
I1
sVddkcr7b
p112
I1
sVdjbw0mr
p113
I1
sVds68769
p114
I1
sVd8evr76
p115
I1
sVda4g2bj
p116
I1
sVd83w46h
p117
I2
sVdh71mjh
p118
I1
sVd19jhth
p119
I1
sVdbafaor
p120
I1
sVdhgi9w4
p121
I1
sVdten5k1
p122
I1
sVd1xg5y6
p123
I1
sVd5cty9v
p124
I1
sVdauwz20
p125
I1
sVdnmaetr
p126
I1
sVd2ettgp
p127
I1
sVdodg5nv
p128
I1
sVde552ar
p129
I1
sVd07uun5
p130
I1
sVdqgqe19
p131
I1
sVdqoyfv3
p132
I1
sVdgg4fr2
p133
I1
sVd6c59cl
p134
I1
sVdpuqo9j
p135
I1
sVd1tf9ul
p136
I1
sVdefv63v
p137
I1
sVddhtwdn
p138
I1
sVd33sekj
p139
I1
sVdqkuqyr
p140
I1
sVdb10kvp
p141
I1
sVczsx2fv
p142
I1
sVd6zuful
p143
I1
sVdnh411z
p144
I1
sVd76zhia
p145
I1
sVdgkhkob
p146
I1
sVd1bspao
p147
I1
sVdfieila
p148
I1
sVdmn1nx6
p149
I1
sVdrvy9ji
p150
I1
sVdep07zu
p151
I1
sVdiqdvix
p152
I2
sVd3k7k9v
p153
I1
sVcyxe5z3
p154
I1
sVdosdaou
p155
I1
sVczv1kqi
p156
I1
sVcyqtawd
p157
I1
sVd4olgmh
p158
I1
sVdb2f4t7
p159
I1
sVdf6e9p2
p160
I1
sVd0j8h32
p161
I1
sVdb2gj7c
p162
I1
sVdjb8eyh
p163
I1
sVd2liu6q
p164
I1
sVdcctaw9
p165
I1
sVdgohihu
p166
I1
sVd49w9cb
p167
I1
sVd8yqspr
p168
I1
sVcz34fr9
p169
I1
sVd12npsh
p170
I1
sVd8qc306
p171
I1
sVd90eves
p172
I3
sVdoz5898
p173
I1
sVd1bfu3f
p174
I1
sVd0komh7
p175
I1
sVdcjzk2f
p176
I1
sVdfqinih
p177
I1
sVd37ve01
p178
I1
sVd8nxuh1
p179
I1
sVd4t2vs1
p180
I1
sVddbrq7c
p181
I1
sVdnqsblq
p182
I1
sVdjnva1e
p183
I1
sVdgiczd9
p184
I1
sVdjfopf9
p185
I1
sVd6f2jdo
p186
I1
sVdqa6ver
p187
I1
sVczf2l2r
p188
I1
sVdenwgbv
p189
I1
sVd6x0rjx
p190
I1
sVd877v9f
p191
I1
sVdctlvhv
p192
I1
sVd2nbilm
p193
I2
sVdpau7m3
p194
I1
sVd1d8ooq
p195
I1
sVd5n25hp
p196
I1
sVd381pyr
p197
I1
sVdiz1yxb
p198
I1
sVd71gahr
p199
I1
sVd5pzw7i
p200
I1
sVd7n2csz
p201
I1
sVd71i19k
p202
I1
sVd968g7l
p203
I1
sVdbjcela
p204
I1
sVdr33sag
p205
I1
sVdjvvcdh
p206
I1
sVdezy8nj
p207
I2
sVdg7vzgu
p208
I1
sVdfykukd
p209
I1
sVczcl2q2
p210
I1
sVdi9kqup
p211
I1
sVdtdt4n8
p212
I1
sVd359vym
p213
I1
sVdaeuhvq
p214
I1
sVdo3fydu
p215
I1
sVcynt7am
p216
I2
sVd3ew7du
p217
I1
sVd8m2k1w
p218
I1
sVdaomjsn
p219
I1
sVdfyh0wo
p220
I1
sVd33bp5q
p221
I1
sVd1evzzn
p222
I1
sVd7529m3
p223
I1
sVdqmmpnw
p224
I1
sVd03xarg
p225
I1
sVdeg0f56
p226
I1
sVdnefim2
p227
I1
sVdmt3wbg
p228
I2
sVd61ume3
p229
I1
sVdfiu09q
p230
I1
sVd8sacg2
p231
I1
sVcz22osp
p232
I1
sVd1gblpw
p233
I1
sVd3bcwif
p234
I1
sVdivtube
p235
I1
sVd6k97n9
p236
I1
sVdfowoy8
p237
I1
sVddurfui
p238
I1
sVd2x9gv7
p239
I1
sVdhjs1ly
p240
I1
sVdb1g08u
p241
I1
sVd8yyt85
p242
I1
sVcyo16o1
p243
I1
sVd2g6gct
p244
I1
sVdakma1z
p245
I1
sVdic8wuc
p246
I1
sVdje9uac
p247
I1
sVdciln5w
p248
I1
sVdcmffv6
p249
I1
sVczslk0f
p250
I1
sVd31dnbg
p251
I2
sVdekb6lf
p252
I1
sVdfhho4s
p253
I1
sVd12s516
p254
I1
sVdo1nfjm
p255
I2
sVd38ovpx
p256
I1
sVdhceklu
p257
I1
sVd0475ns
p258
I1
sVds7i0vl
p259
I1
sVdfi7qxb
p260
I1
sVd39bftl
p261
I1
sVddrinr6
p262
I1
sVd7l4mmj
p263
I1
sVd32qw8g
p264
I1
sVdd62fbi
p265
I3
sVdjejhzo
p266
I1
sVd0kkznl
p267
I1
sVdg72qhe
p268
I1
sVdqbhsxm
p269
I1
sVd72f726
p270
I1
sVd2djawj
p271
I1
sVddnnn7t
p272
I1
sVdmilqoc
p273
I1
sVd2k516q
p274
I1
sVd3sfbyr
p275
I1
sVd2nlt9d
p276
I1
sVdn4e2s3
p277
I1
sVd1364og
p278
I1
sVde6wktl
p279
I1
sVd1apogf
p280
I1
sVd0a7med
p281
I1
sVdej0rcg
p282
I1
sVdomx2nr
p283
I1
sVd8spqii
p284
I1
sVd7npl17
p285
I1
sVdc7qp3x
p286
I1
sVdg0rhf6
p287
I1
sVd7c8h4w
p288
I1
sVd31pvmp
p289
I1
sVddqqijq
p290
I1
sVcyyyf13
p291
I1
sVd1cq20b
p292
I1
sVde4yd06
p293
I1
sVd0b6eg9
p294
I1
sVdkpjpao
p295
I1
sVd6si7zz
p296
I1
sVdqcgxlb
p297
I1
sVd8hoq9b
p298
I1
sVdfcx69u
p299
I1
sVdghwli8
p300
I1
sVczwxp1z
p301
I1
sVd0rtbr4
p302
I1
sVd1av7ua
p303
I1
sVd7rduyw
p304
I1
sVcz0bvn2
p305
I2
sVdfmy422
p306
I1
sVdarbki0
p307
I1
sVd617xsh
p308
I1
sVda6zhun
p309
I1
sVd3msf6f
p310
I1
sVdik7hbm
p311
I1
sVdqrjusb
p312
I1
sVd1gcbno
p313
I1
sVd6za48c
p314
I1
sVd0qwrx9
p315
I2
sVd5w5i4d
p316
I1
sVdje8mb6
p317
I1
sVd94948b
p318
I1
sVd5llsgh
p319
I1
sVdayljqy
p320
I1
sVdjbecyh
p321
I1
sVdgb2y0m
p322
I1
sVcykdaw3
p323
I1
sVdr33ltk
p324
I1
sVd2w9pwc
p325
I1
sVdfq18rc
p326
I1
sVd3yfdlf
p327
I2
sVdrvf6je
p328
I1
sVd0ufr2x
p329
I1
sVdj3otfv
p330
I1
sVdjhqqgg
p331
I1
sVdkm4ms6
p332
I1
sVda99hpd
p333
I1
sVdj7dqof
p334
I1
sVd7octdq
p335
I1
sVd1pa6gk
p336
I1
sVczxvon1
p337
I1
sVcyng4qa
p338
I1
sVd5s8gza
p339
I1
sVdsq7hat
p340
I1
sVdbj17hp
p341
I1
sVdspr9ji
p342
I1
sVdh5ygdk
p343
I1
sVde8w4gl
p344
I1
sVd5luh0p
p345
I1
sVd6yflpd
p346
I1
sVdkwzp46
p347
I1
sVcynsale
p348
I1
sVczgaw2b
p349
I1
sVdagbl6v
p350
I1
sVd62e6fw
p351
I1
sVdnelz7q
p352
I1
sVde42diq
p353
I1
sVdg5bdv2
p354
I1
sVdc7o8ls
p355
I1
sVdha0e76
p356
I1
sVdjkmkeu
p357
I1
sVdr6lngu
p358
I1
sVdnhe3as
p359
I1
sVdp5st5q
p360
I1
sVd2858h6
p361
I1
sVd98asfu
p362
I1
sVdqhr0xp
p363
I1
sVd7kb2zm
p364
I1
sVd3tivxk
p365
I1
sVdh1lqlo
p366
I1
sVd4qtrrh
p367
I1
sVdjli0l1
p368
I1
sVdc5l6wx
p369
I1
sVdmmi2p1
p370
I1
sVdqapqcr
p371
I1
sVd9pqb6b
p372
I1
sVd3bqsd8
p373
I1
sVdr0tjnu
p374
I1
sVdd3w550
p375
I1
sVczuqxg8
p376
I1
sVdg90fmy
p377
I2
sVdamav9c
p378
I1
sVdcxectq
p379
I1
sVdha2xsg
p380
I1
sVdkod6y7
p381
I1
sVdc0zyy1
p382
I1
sVdkhjk1c
p383
I1
sVdjl1yuu
p384
I1
sVdcj9hns
p385
I1
sVdp0zrud
p386
I1
sVdabrq84
p387
I1
sVdtdkfin
p388
I1
sVd748j0b
p389
I1
sVdj91iyg
p390
I1
sVdam28x4
p391
I2
sVdri98va
p392
I1
sVd147y5s
p393
I1
sVdeuckm1
p394
I1
sVdb29zyb
p395
I1
sVd9vxiqr
p396
I1
sVdtdzmq3
p397
I1
sVdqp5ct9
p398
I1
sVdfljd9q
p399
I1
sVd4fiqyz
p400
I1
sVdj4mk50
p401
I1
sVd2o2fz4
p402
I1
sVd88l2u5
p403
I1
sVd3yhypt
p404
I2
sVdteafns
p405
I1
sVd38armc
p406
I1
sVcz1no3n
p407
I1
sVd3atlce
p408
I1
sVd1gbtsc
p409
I1
sVcz5e1jo
p410
I1
sVdelimzy
p411
I1
sVdtgdwai
p412
I1
sVdffv6qz
p413
I1
sVczjgb7i
p414
I1
sVd4swgtp
p415
I1
sVd2a7cys
p416
I1
sVdkqcjpc
p417
I2
sVdddcuz5
p418
I1
sVdc11sb6
p419
I1
sVdngpqb3
p420
I1
sVdk11olj
p421
I1
sVd99fb2v
p422
I1
sVd0060lj
p423
I1
sVdfut1f2
p424
I1
sVdpr3o5b
p425
I1
sVd1da1xg
p426
I1
sVd5vthu3
p427
I1
sVdhxfe2w
p428
I1
sVd76z10w
p429
I1
sVdfzvhow
p430
I1
sVd3qil2v
p431
I1
sVdg85snq
p432
I1
sVdt2h1vj
p433
I1
sVd24zysm
p434
I1
sVdd8i3y1
p435
I1
sVdqz1omb
p436
I1
sVd5zrd37
p437
I1
sVdj4c6iq
p438
I1
sVdcy8m6q
p439
I1
sVd9disid
p440
I1
sVd6kbozs
p441
I1
sVdd81t50
p442
I1
sVdknzcqy
p443
I1
sVd8qzz5r
p444
I1
sVdbqj3hi
p445
I1
sVdrgvsb9
p446
I1
sVdqccdhr
p447
I1
sVdimmgau
p448
I1
sVczg85f7
p449
I1
sVd306p6i
p450
I1
sVdhtb69r
p451
I1
sVd9p0o0x
p452
I1
sVdald6wj
p453
I1
sVdhvabed
p454
I1
sVdc6bh9s
p455
I1
sVdkfwpws
p456
I1
sVdd5wxi4
p457
I1
sVdsgvglh
p458
I1
sVdivsx79
p459
I1
sVd8kcs4r
p460
I1
sVcz3g0tz
p461
I2
sVdg8qxb3
p462
I1
sVdo6zzm2
p463
I1
sVd86v1gd
p464
I1
sVdeu86uc
p465
I2
sVdogb77s
p466
I1
sVds864rt
p467
I1
sVcywb40o
p468
I1
sVd3bwlb2
p469
I1
sVd8u9vx2
p470
I2
sVdf6ac4p
p471
I1
sVd3dzzvv
p472
I1
sVczxskxk
p473
I1
sVdccjbzk
p474
I1
sVd9p9nqh
p475
I1
sVdhyraij
p476
I1
sVdbl5wa3
p477
I1
sVd8qc2uc
p478
I1
sVdmfwfl8
p479
I1
sVdilza6i
p480
I1
sVdst9jw1
p481
I1
sVczu1cf8
p482
I1
sVde9qls1
p483
I1
sVd9vtou6
p484
I1
sVdct3dba
p485
I1
sVd3k4qsu
p486
I1
sVd5zu1hj
p487
I1
sVdc9rjdy
p488
I1
sVd4pma1x
p489
I1
sVdesx1e0
p490
I1
sVdjjgml4
p491
I1
sVde5gujh
p492
I1
sVdnucml5
p493
I1
sVdniw6df
p494
I2
sVczfdj7v
p495
I1
sVd1w51ji
p496
I1
sVdnffi49
p497
I1
sVd9wsad2
p498
I1
sVcymrota
p499
I1
sVdseq8w1
p500
I1
s.