(dp0
Vcytzj8g
p1
I1
sVddk84bs
p2
I1
sVdbwqf2v
p3
I1
sVd633qiv
p4
I1
sVdox7nlu
p5
I1
sVdfhshbp
p6
I1
sVd0uvs2u
p7
I1
sVd3ca5m1
p8
I1
sVd0ai88s
p9
I1
sVdg873zt
p10
I1
sVd2npzus
p11
I1
sVd45jl2t
p12
I1
sVcz3n5mz
p13
I1
sVdd85h4i
p14
I1
sVdd866er
p15
I1
s.