(dp0
Vd1znq9g
p1
I1
s.(dp0
Vd1zor96
p1
I1
sVd1znq9g
p2
I1
s.(dp0
Vd2g1ibb
p1
I1
sVd1znq9g
p2
I1
s.(dp0
Vd1znq9g
p1
I1
sVd2y9wyl
p2
I1
s.(dp0
Vd2ynjle
p1
I1
sVd1znq9g
p2
I1
s.(dp0
Vd3j8yez
p1
I1
sVd1znq9g
p2
I1
s.(dp0
Vd1znq9g
p1
I1
sVd6qb2q5
p2
I1
s.(dp0
Vd79ojhs
p1
I1
sVd1znq9g
p2
I1
s.(dp0
Vd7z1gwh
p1
I1
sVd1znq9g
p2
I1
s.(dp0
Vd7z4mls
p1
I1
sVd1znq9g
p2
I1
s.(dp0
Vd7z4mls
p1
I1
sVd1znq9g
p2
I1
s.(dp0
Vd7z4o49
p1
I1
sVd1znq9g
p2
I1
s.(dp0
Vd7z4o49
p1
I1
sVd1znq9g
p2
I1
s.(dp0
Vd1znq9g
p1
I1
sVd7z59t0
p2
I1
s.(dp0
Vd1znq9g
p1
I1
sVd7z59t0
p2
I1
s.(dp0
Vd86nvkm
p1
I1
sVd1znq9g
p2
I1
s.(dp0
Vd8zdzhw
p1
I1
sVd1znq9g
p2
I1
s.(dp0
Vd1znq9g
p1
I1
sVdbz8ll2
p2
I1
s.(dp0
Vdcmwcid
p1
I1
sVd1znq9g
p2
I1
s.(dp0
Vdcpjxge
p1
I1
sVd1znq9g
p2
I1
s.(dp0
Vd1znq9g
p1
I1
sVdd58k2b
p2
I1
s.(dp0
Vdde0uth
p1
I1
sVd1znq9g
p2
I1
s.(dp0
Vdfhkyzy
p1
I1
sVd1znq9g
p2
I1
s.(dp0
Vd1znq9g
p1
I1
sVdg2ajec
p2
I1
s.(dp0
Vd1znq9g
p1
I1
sVdhjlkmc
p2
I1
s.(dp0
Vdn8bjth
p1
I1
sVd1znq9g
p2
I1
s.(dp0
Vdn8bjth
p1
I1
sVd1znq9g
p2
I1
s.(dp0
Vd1znq9g
p1
I1
sVdpq1q1q
p2
I1
s.(dp0
Vd1znq9g
p1
I1
sVdpq1q1q
p2
I1
s.(dp0
Vd1znq9g
p1
I1
sVdpq1q1q
p2
I1
s.(dp0
Vd1znq9g
p1
I1
sVdpvv2ad
p2
I1
s.(dp0
Vd1znq9g
p1
I1
sVdpvv2ad
p2
I1
s.(dp0
Vdq94uoq
p1
I1
sVd1znq9g
p2
I1
s.(dp0
Vd1znq9g
p1
I1
sVdqfgcql
p2
I1
s.(dp0
Vdqkja30
p1
I1
sVd1znq9g
p2
I1
s.(dp0
Vd1znq9g
p1
I1
sVdrc3bso
p2
I1
s.(dp0
Vdtab8nr
p1
I1
sVd1znq9g
p2
I1
s.(dp0
Vdtcaixl
p1
I1
sVd1znq9g
p2
I1
s.(dp0
Vdtidix9
p1
I1
sVd1znq9g
p2
I1
s.