(dp0
Vd00wyx4
p1
I1
s.(dp0
Vd00wyx4
p1
I1
sVd1uzhjc
p2
I1
s.(dp0
Vd00wyx4
p1
I1
sVd26iuoj
p2
I1
s.(dp0
Vd5sqlpq
p1
I1
sVd00wyx4
p2
I1
s.(dp0
Vdabvjoq
p1
I1
sVd00wyx4
p2
I1
s.(dp0
Vd00wyx4
p1
I1
sVdb0xyt7
p2
I1
s.(dp0
Vd00wyx4
p1
I1
sVdb0xyt7
p2
I1
s.(dp0
Vd00wyx4
p1
I1
sVdbvgpr7
p2
I1
s.(dp0
Vd00wyx4
p1
I1
sVdbvgpr7
p2
I1
s.(dp0
Vd00wyx4
p1
I1
sVdck4tgt
p2
I1
s.(dp0
Vd00wyx4
p1
I1
sVdczs3wl
p2
I1
s.(dp0
Vd00wyx4
p1
I1
sVdd8lwfl
p2
I1
s.(dp0
Vd00wyx4
p1
I1
sVde4sr9k
p2
I1
s.(dp0
Vd00wyx4
p1
I1
sVdfvkt12
p2
I1
s.(dp0
Vd00wyx4
p1
I1
sVdh1qrh9
p2
I1
s.(dp0
Vdhd7u43
p1
I1
sVd00wyx4
p2
I1
s.(dp0
Vdhtdkrq
p1
I1
sVd00wyx4
p2
I1
s.(dp0
Vdj17p93
p1
I1
sVd00wyx4
p2
I1
s.(dp0
Vd00wyx4
p1
I1
sVdk89ti3
p2
I1
s.(dp0
Vd00wyx4
p1
I1
sVdkjfd7j
p2
I1
s.(dp0
Vdof7yev
p1
I1
sVd00wyx4
p2
I1
s.(dp0
Vd00wyx4
p1
I1
sVdqiykyq
p2
I1
s.(dp0
Vd00wyx4
p1
I1
sVdstvilq
p2
I1
s.(dp0
Vd00wyx4
p1
I1
sVdsz7v5l
p2
I1
s.