(dp0
Vd9evcjs
p1
I1
s.(dp0
Vd9evcjs
p1
I1
sVdc5n5pu
p2
I1
s.(dp0
Vd9evcjs
p1
I1
sVdcky8f6
p2
I1
s.(dp0
Vdjuy191
p1
I1
sVd9evcjs
p2
I1
s.(dp0
Vdnk4vqg
p1
I1
sVd9evcjs
p2
I1
s.(dp0
Vdnk4vqg
p1
I1
sVd9evcjs
p2
I1
s.(dp0
Vd9evcjs
p1
I1
sVdnkf6e7
p2
I1
s.