(dp0
Vdaguu2c
p1
I2
sVdbjd7n8
p2
I2
sVd1frv1k
p3
I1
sVd0vlqqt
p4
I2
sVd4o1h9t
p5
I1
sVdem4qpq
p6
I2
sVd1go4mj
p7
I1
sVd9d93j7
p8
I1
sVdsmaslw
p9
I1
sVd9hggdl
p10
I1
sVdfj40j1
p11
I1
sVddc7ozf
p12
I1
sVdg8i2ck
p13
I2
sVd316ovd
p14
I1
sVdch9zfx
p15
I1
sVdoe7zwi
p16
I1
sVdmmipnj
p17
I1
sVdj27kfp
p18
I1
sVdf4nz7b
p19
I1
sVdmje3ho
p20
I2
sVdcbu3yw
p21
I1
sVd2vwohp
p22
I1
sVdaqwihs
p23
I1
sVdbyboeq
p24
I2
sVdbtry2g
p25
I1
sVcz4trv6
p26
I1
sVd9jtn5x
p27
I1
sVd9aqr4x
p28
I1
sVdcezjzd
p29
I1
sVd7wrc6f
p30
I1
sVdhpgw8w
p31
I1
sVdh7nb22
p32
I1
sVdsp3pdb
p33
I2
sVdbk3ht7
p34
I2
sVczdiiza
p35
I1
sVcynd5kg
p36
I1
sVdk3jtt4
p37
I1
sVdejnusm
p38
I1
sVdt3r2wn
p39
I1
sVdmzf5mj
p40
I1
sVd3eghb6
p41
I1
sVdj4kyn9
p42
I2
sVdckcrvb
p43
I1
sVd1gmfan
p44
I1
sVda9r2u4
p45
I1
sVczkzzng
p46
I1
sVd1ou6bz
p47
I1
sVd79su7g
p48
I1
sVcztogn8
p49
I1
sVd0ko14u
p50
I1
sVdbapqcq
p51
I1
sVdgwrb6y
p52
I1
sVdddopii
p53
I2
sVdmj1zix
p54
I7
sVd5xuaic
p55
I1
sVdegp2ct
p56
I1
sVd16he8d
p57
I1
sVd40r5e8
p58
I1
sVdbeqy8s
p59
I1
sVdhyp7l9
p60
I1
sVdfq72b6
p61
I1
sVd5cphix
p62
I1
sVdn2cjaq
p63
I1
sVdqg42um
p64
I1
sVd19530g
p65
I1
sVd2w9c6c
p66
I1
sVdd74dow
p67
I1
sVdku9p5s
p68
I1
sVdjuqtm7
p69
I1
sVdg7ysh2
p70
I1
sVd4awyl4
p71
I4
sVd2juhbh
p72
I1
sVd8brqs4
p73
I1
sVdfykxru
p74
I1
sVdd61yop
p75
I1
sVd2mvqgy
p76
I1
sVdhzfeie
p77
I1
sVd8lge1a
p78
I1
sVdj4hpoa
p79
I1
sVd8eprs5
p80
I1
sVdmqptv5
p81
I1
sVdkowlfa
p82
I1
sVd8ci5fa
p83
I1
sVdfxur75
p84
I2
sVd6kill2
p85
I1
sVdacpro0
p86
I1
sVdbjzla5
p87
I1
sVdkvev9g
p88
I1
sVdcz65ka
p89
I1
sVdg0zsy7
p90
I1
sVd7ca462
p91
I1
sVd5sxbmm
p92
I2
s.