(dp0
Vdi5hfa3
p1
I2
sVde7xij9
p2
I2
sVd55kf4m
p3
I1
sVczvl5my
p4
I3
sVdq0zwjs
p5
I1
sVczvwfmg
p6
I2
sVczvrmaw
p7
I3
sVdbtl2xu
p8
I2
sVczvsr0s
p9
I7
sVdbtl7u4
p10
I2
sVd0ha5q0
p11
I1
sVdbfubuj
p12
I5
sVdcyuekv
p13
I1
sVd2i0p2i
p14
I1
sVdhr3cf6
p15
I11
sVd0q40fa
p16
I1
sVczvnibj
p17
I1
sVdhqyrgg
p18
I1
sVdcuuav5
p19
I1
sVczvgcvq
p20
I1
sVdqmj0ct
p21
I6
sVdg03h2u
p22
I1
sVczvpphn
p23
I3
s.