(dp0
Vd2iex47
p1
I1
s.(dp0
Vd2iex47
p1
I1
sVd3cxxnn
p2
I1
s.(dp0
Vd2iex47
p1
I1
sVd45y215
p2
I1
s.(dp0
Vd2iex47
p1
I1
sVd463flf
p2
I1
s.(dp0
Vd2iex47
p1
I1
sVd6v0ftz
p2
I1
s.(dp0
Vd2iex47
p1
I1
sVd84amio
p2
I1
s.(dp0
Vd2iex47
p1
I1
sVdb0fy7s
p2
I1
s.(dp0
Vd2iex47
p1
I1
sVdda3vc4
p2
I1
s.(dp0
Vd2iex47
p1
I1
sVddt4e27
p2
I1
s.(dp0
Vd2iex47
p1
I1
sVdg32679
p2
I1
s.(dp0
Vd2iex47
p1
I1
sVdhows4e
p2
I1
s.(dp0
Vd2iex47
p1
I1
sVdj3t0hc
p2
I1
s.(dp0
Vd2iex47
p1
I1
sVdj3t0hc
p2
I1
s.(dp0
Vd2iex47
p1
I1
sVdpf25iz
p2
I1
s.(dp0
Vd2iex47
p1
I1
sVdq80znr
p2
I1
s.(dp0
Vd2iex47
p1
I1
sVdsxzimx
p2
I1
s.