(dp0
Vd5wv145
p1
I1
sVdgh0mxq
p2
I1
sVdaumft7
p3
I1
sVdg5ud2n
p4
I1
sVddpddhh
p5
I1
sVddspxwr
p6
I1
sVcyisdp6
p7
I1
sVdiqu9wi
p8
I1
sVdt83m0c
p9
I1
sVdpxyxws
p10
I2
sVd0zi3vv
p11
I4
sVdpx3gqx
p12
I1
sVd8lmduc
p13
I2
sVd7ggt5i
p14
I2
sVd87heuq
p15
I2
sVd7837y6
p16
I1
sVdjuyklk
p17
I1
sVczeozdz
p18
I1
sVdg0kcny
p19
I1
sVdn3xp0l
p20
I1
sVdf5re51
p21
I1
sVczy5apn
p22
I1
sVddkuo2f
p23
I1
sVdb24f70
p24
I1
sVdt7dqzd
p25
I2
sVd9yynoc
p26
I2
sVdiul4mr
p27
I1
sVd4m00rn
p28
I2
sVdd53hdi
p29
I1
sVdo0yz1p
p30
I1
sVdkyae6v
p31
I1
sVd0je19z
p32
I1
sVdcwicjr
p33
I2
sVdcugx8b
p34
I1
sVczwnuf2
p35
I1
sVdfq9eyz
p36
I1
sVdau37uj
p37
I1
sVdbe68r9
p38
I1
sVddsrh6y
p39
I2
sVd30irjm
p40
I2
sVdi3ugrr
p41
I1
sVdbc3xlv
p42
I1
sVczeoawd
p43
I1
sVd0i7f1r
p44
I1
sVd4xqxqg
p45
I1
sVddkuj6q
p46
I1
sVdfoo1rt
p47
I1
sVdgvpl0t
p48
I1
sVdhy7bf6
p49
I1
sVczi9cdn
p50
I1
sVde5syho
p51
I1
sVdcgrth6
p52
I1
sVddn7r85
p53
I1
sVd6hgit9
p54
I3
sVdc0b05r
p55
I2
sVd8wp0y7
p56
I2
sVdi4i6bi
p57
I1
sVdifbx2l
p58
I1
sVd0fxw3d
p59
I1
sVdd0v80e
p60
I4
sVd39tkis
p61
I1
sVdh66axy
p62
I1
sVddcvhrp
p63
I3
sVde98lzu
p64
I1
sVcz2ozxd
p65
I1
sVdg734jz
p66
I1
sVd5uac6d
p67
I2
sVd0kpnza
p68
I2
sVd434866
p69
I1
sVdbwzzlu
p70
I1
sVdfl29tp
p71
I1
sVdki3i1q
p72
I1
sVdpsc66c
p73
I2
sVdbjk13a
p74
I3
sVdgtlqfc
p75
I1
sVd1eny0k
p76
I2
sVdcwmen9
p77
I1
sVd07ci8v
p78
I1
sVdi2rfxf
p79
I2
sVd8vpnrt
p80
I2
sVdix6y34
p81
I1
sVdo2w0ox
p82
I1
sVd6ylw14
p83
I2
sVd14l95o
p84
I4
sVcz0h694
p85
I1
sVdcez606
p86
I1
sVdbgz8ck
p87
I1
sVd1h992u
p88
I5
sVd05wlxi
p89
I1
sVd9t9rom
p90
I1
sVd4kgz6o
p91
I2
sVdd1xc7g
p92
I1
sVdhaqnlc
p93
I1
sVd1gzrvt
p94
I1
sVdamelpt
p95
I2
sVdb7xccu
p96
I1
sVd17tzpm
p97
I1
sVdibouwe
p98
I8
sVda3x8gu
p99
I1
sVd53o7j6
p100
I1
sVd06xker
p101
I1
sVd60e1ck
p102
I1
sVd9xytkj
p103
I1
sVd8u26z8
p104
I2
sVd6h0m5r
p105
I1
sVd5vlj1j
p106
I1
sVdj0khot
p107
I1
sVd1k7nvv
p108
I1
sVdj7h3gq
p109
I1
sVd16he8d
p110
I1
sVdkitxfm
p111
I1
sVdczw1n6
p112
I2
sVdp89vsv
p113
I1
sVdg94jyg
p114
I1
sVdf1nvi6
p115
I1
sVddss0az
p116
I1
sVd3rzxmd
p117
I1
sVd2zijet
p118
I1
sVd8ue4a4
p119
I1
sVd8ipk19
p120
I1
sVd6ermy1
p121
I1
sVd6edhso
p122
I1
sVd2flqxe
p123
I3
sVd36u1qy
p124
I2
sVd3waqng
p125
I1
sVd85vsxt
p126
I1
sVdf5j681
p127
I1
sVd59edq7
p128
I1
sVdb5kiyj
p129
I1
sVdiwrin0
p130
I2
sVdexkro7
p131
I1
sVd342yo6
p132
I1
sVdfvbauq
p133
I2
sVddks5i2
p134
I4
sVd6aonl4
p135
I1
sVd0rmcen
p136
I1
sVdeioh8l
p137
I5
sVdkl4g4p
p138
I1
sVd0yyo9h
p139
I1
sVdcgd5tl
p140
I1
sVd7tad8w
p141
I2
sVd9p2w0e
p142
I3
sVczneyl8
p143
I1
sVd8gk2j6
p144
I1
sVddsjniz
p145
I1
sVdfnq7sx
p146
I1
sVd3eqoby
p147
I1
sVczbj4y8
p148
I1
sVdi4ljce
p149
I1
sVdgh1fkk
p150
I2
sVdcxlmyj
p151
I1
sVdfaq310
p152
I2
sVd3tg7lg
p153
I2
sVdgck5qd
p154
I1
sVd30f3pr
p155
I2
sVdc6f7ml
p156
I1
sVdivcdq7
p157
I4
sVddcex1q
p158
I1
sVd54ieqj
p159
I2
sVcyyrooy
p160
I1
sVdf7poug
p161
I3
sVd2wv8h3
p162
I1
sVd6ffuqc
p163
I1
sVcyxpcux
p164
I1
sVddjgysu
p165
I1
sVddssfp0
p166
I1
sVd1uf119
p167
I1
sVd7gob0c
p168
I1
sVdd4li8i
p169
I1
sVd0yxxut
p170
I1
sVd65v3ec
p171
I1
sVczi883h
p172
I3
sVdfk0dd3
p173
I1
sVdcn2ohh
p174
I1
sVdeq9jdp
p175
I1
sVdfbldvo
p176
I1
sVdh5nyic
p177
I3
sVdhbgisd
p178
I1
sVdctzhdt
p179
I1
sVd0pownj
p180
I1
sVd9p588m
p181
I2
sVd19snnw
p182
I1
sVd5kjlqf
p183
I1
sVd5jmd8i
p184
I1
sVdh4cdgd
p185
I1
sVdo3emjw
p186
I1
sVd3863c9
p187
I1
sVd5icivk
p188
I1
sVdglqugb
p189
I1
sVd0vrj05
p190
I2
sVcyps2t0
p191
I1
sVd1ruo9c
p192
I1
sVcyuajce
p193
I1
sVd2cczns
p194
I1
sVd0ponqz
p195
I1
sVdd9vsr1
p196
I1
sVdch9zfx
p197
I1
sVd70en07
p198
I1
sVdjq5gci
p199
I2
sVd9hb1zd
p200
I1
sVdrwpf1h
p201
I2
sVczdy1zo
p202
I1
sVdhyjm3x
p203
I3
sVddghgq5
p204
I1
sVdjby3ny
p205
I2
sVdk20sn3
p206
I1
sVcyuefuo
p207
I2
sVd455l8t
p208
I1
sVdcxt5dg
p209
I1
sVdibmfco
p210
I1
sVd4kuo5a
p211
I1
sVd71xwyf
p212
I1
sVdfvam6z
p213
I4
sVdfeul7p
p214
I1
sVd3mgxbn
p215
I1
sVd30dmbs
p216
I1
sVdjo0i8a
p217
I1
sVdj76zt4
p218
I1
sVdcyayse
p219
I1
sVd7xu11m
p220
I1
sVdpp7rdl
p221
I1
sVd0c1xtb
p222
I1
sVdaax2kz
p223
I1
sVd4kfj4g
p224
I1
sVdroezq6
p225
I1
sVdh0zubb
p226
I1
sVd2snqes
p227
I1
sVdgnrnff
p228
I1
sVdoiepqy
p229
I1
sVd7dp4lr
p230
I1
sVdil3a8y
p231
I1
sVdgkc7ke
p232
I1
sVdez8spc
p233
I1
sVcyvdltu
p234
I1
sVd6n2y2q
p235
I1
sVdoiuaw2
p236
I1
sVdcl7kml
p237
I3
sVd3vx1ct
p238
I1
sVdnw8ce9
p239
I1
sVd6uy6e2
p240
I2
sVd9p31m9
p241
I2
sVde0wdsg
p242
I1
sVdpbxwgg
p243
I2
sVd0yyexd
p244
I1
sVd9gcsoc
p245
I1
sVde1hn2u
p246
I1
sVddy5t6j
p247
I1
sVddj5sm8
p248
I1
sVcztg2im
p249
I1
sVd18rqj4
p250
I4
sVczzgb6b
p251
I1
sVdf8e27o
p252
I1
sVdg7148j
p253
I1
sVd0o6jek
p254
I1
sVdhy4pxa
p255
I1
sVd0aq3u6
p256
I1
sVdeihm4z
p257
I2
sVdmojn1a
p258
I2
sVdnexxtk
p259
I1
sVd9kdsd0
p260
I1
sVdcxjc6h
p261
I1
sVdfwoyxi
p262
I1
sVd7mrmqt
p263
I1
sVczywdys
p264
I1
sVdjz2fvo
p265
I1
sVdcmv570
p266
I1
sVd2apfs1
p267
I2
sVdn4v29d
p268
I1
sVdbmgo97
p269
I1
sVd5cwmmj
p270
I1
sVdh7kn3y
p271
I1
sVd15ac8d
p272
I1
sVd0i8c3c
p273
I1
sVd28b5iu
p274
I1
sVdd8c6tj
p275
I1
sVdesglal
p276
I1
sVdiada4c
p277
I3
sVd4lqjnq
p278
I1
sVdcwi9xm
p279
I4
sVdsvd8n9
p280
I1
sVd59ehsd
p281
I2
sVdba3nb0
p282
I1
sVdeg9v0f
p283
I1
sVdd5l4wr
p284
I1
sVdcwn9q9
p285
I2
sVdhzl2ua
p286
I1
sVcz5caco
p287
I1
sVcyknht0
p288
I1
sVdc6a9t3
p289
I1
sVdcezrwx
p290
I1
sVdk040y2
p291
I1
sVdqtmhk7
p292
I2
sVd77blf7
p293
I1
sVd4m55l7
p294
I1
sVdb72fiz
p295
I1
sVdqldmm8
p296
I1
sVd6bxd8p
p297
I1
sVd4tx523
p298
I1
sVd9vkchn
p299
I1
sVd13jynq
p300
I1
sVdj68bt3
p301
I1
sVd18rd2o
p302
I1
sVdi4plod
p303
I1
sVd4di2wt
p304
I1
sVddlzukq
p305
I2
sVcyt2n7h
p306
I2
sVdd8l7wb
p307
I1
sVd6evamv
p308
I1
sVcynuck3
p309
I1
sVd0yyfhk
p310
I1
sVd5uchzg
p311
I3
sVcz8nsl5
p312
I1
sVddsog6p
p313
I1
sVdex1f4d
p314
I1
sVd99vriv
p315
I1
sVdc46wxs
p316
I1
sVdobcji9
p317
I1
sVddwc30x
p318
I1
sVdcy1zjm
p319
I2
sVddnukg6
p320
I1
sVddjd1pp
p321
I1
sVczn9qb9
p322
I3
sVdbbx1pt
p323
I1
sVdcef7du
p324
I1
sVdccpu23
p325
I1
sVd1380xl
p326
I1
sVd0snezq
p327
I1
sVd7bfyvb
p328
I1
sVd2xlkyy
p329
I1
sVdcwafcn
p330
I1
sVd572bno
p331
I1
sVdcz6czn
p332
I4
sVd6btue8
p333
I1
sVdiwm778
p334
I1
sVdpkekb7
p335
I1
sVdd4qiad
p336
I1
sVd4rcsts
p337
I1
sVd60t8i4
p338
I1
sVd4ofl7m
p339
I1
sVdgryv9c
p340
I1
sVddvh6sy
p341
I2
sVd6okd9a
p342
I1
sVdfvg7qh
p343
I1
sVcz5yfow
p344
I1
sVd6kapvy
p345
I1
sVdmq9x85
p346
I1
sVd1teiv8
p347
I2
sVddjfqmo
p348
I3
sVd8zfhzd
p349
I1
sVdaunyug
p350
I1
sVdd7a9eb
p351
I1
sVdc1kqo1
p352
I1
sVd9b19n3
p353
I1
sVds56i15
p354
I1
sVd0nwert
p355
I1
sVcz6adcq
p356
I1
sVdkmulzx
p357
I1
sVczd2okg
p358
I1
sVda3av5f
p359
I1
sVda1yapb
p360
I1
sVdo9ybsf
p361
I1
sVd0sw9wp
p362
I2
sVdbsuicc
p363
I4
sVdd3w2ni
p364
I1
sVdgia9hj
p365
I3
sVdac2bd7
p366
I1
sVd0a2xe4
p367
I1
sVdpjxqtw
p368
I1
sVcykwkrj
p369
I3
sVdj2vpiv
p370
I2
sVdc4bsq7
p371
I3
sVd3u76ky
p372
I1
sVd0sze91
p373
I1
sVd1usit3
p374
I1
sVder3yny
p375
I1
sVdo3e50y
p376
I1
sVd6eyu3v
p377
I2
sVd9ydxvq
p378
I1
sVdixzg6t
p379
I2
sVdf1by3f
p380
I1
sVde4odon
p381
I2
sVdeu9pa9
p382
I1
sVdbyv9vh
p383
I2
sVczl3zvv
p384
I1
sVd6r74n4
p385
I1
sVd9vba8w
p386
I1
sVd6b0sdz
p387
I1
sVdel8gw5
p388
I2
sVdneyw6b
p389
I1
sVdnvwfw5
p390
I1
sVd1f8md2
p391
I2
sVd0j333p
p392
I1
sVd039zrf
p393
I1
sVdewcxsg
p394
I1
sVddnyk3f
p395
I1
sVdn4hgo4
p396
I1
sVd44qlax
p397
I2
sVdgx7v7y
p398
I1
sVczysf51
p399
I1
sVdcl90oh
p400
I1
sVdntl6dr
p401
I1
sVdfds4i4
p402
I1
sVd1ocvwg
p403
I1
sVd0d9ljp
p404
I1
sVdisoc91
p405
I1
sVddspim2
p406
I1
sVdpduzbn
p407
I1
sVd68cpes
p408
I1
sVd7bh2s6
p409
I2
sVd1h7q5j
p410
I2
sVdr0pp6i
p411
I1
sVdeljhka
p412
I1
sVddlyhve
p413
I1
sVddvg3tl
p414
I1
sVd6zddop
p415
I1
sVdce05uk
p416
I1
sVd0z8x5e
p417
I2
sVcz5e8vr
p418
I1
sVdqev22j
p419
I1
sVdfv7f8o
p420
I1
sVdcnyu8g
p421
I1
sVdgb3xij
p422
I1
sVdfv0k53
p423
I3
sVdfatbj5
p424
I1
sVdhorodo
p425
I1
sVdc2bazt
p426
I1
sVds8k7re
p427
I1
sVd2atl10
p428
I1
sVdi0wa1u
p429
I1
sVdndghgs
p430
I1
sVdcvp8os
p431
I1
sVdd0x3ps
p432
I1
sVcyjp4f2
p433
I2
sVd1bxjgz
p434
I1
sVdnxd6s4
p435
I2
sVd3k995x
p436
I2
sVcyn3or4
p437
I1
sVd0zstyt
p438
I1
sVd2muhfl
p439
I1
sVcyyf4bb
p440
I1
sVd5x3vth
p441
I1
sVd76aiy9
p442
I1
sVdjaigs5
p443
I1
sVd5jdyvc
p444
I1
sVd1grn7y
p445
I1
sVdqp1rc9
p446
I1
sVdgar4xk
p447
I2
sVddwo76p
p448
I1
sVd77tlc5
p449
I3
sVde1qnsv
p450
I2
sVd1gc56n
p451
I2
sVd384rpl
p452
I1
sVdbzefc9
p453
I2
sVdgb419q
p454
I2
sVd33wkj4
p455
I1
sVdcztgxa
p456
I1
sVdtf0vrd
p457
I1
sVcynqp4b
p458
I2
sVczqypuq
p459
I1
sVdfvirdf
p460
I1
sVdaww5tu
p461
I1
sVd679p8a
p462
I1
sVczlmk24
p463
I3
sVdclb2h6
p464
I1
sVdkulpdn
p465
I1
sVcyicce8
p466
I1
sVd41cr9t
p467
I1
sVdj2eiuu
p468
I1
sVcztb76u
p469
I1
sVddo0n5x
p470
I1
sVdftepaw
p471
I2
sVdjztmtr
p472
I1
sVdie4kry
p473
I1
sVd3lfg0t
p474
I1
sVdijeiy7
p475
I1
sVd966cyy
p476
I1
sVd4awyl4
p477
I1
sVdatbp34
p478
I1
sVd6f6ioq
p479
I1
sVdcy3cxp
p480
I1
sVd25oce0
p481
I1
sVdf3eomq
p482
I1
sVd5kl5x3
p483
I1
sVd6aq11k
p484
I1
sVdeg9s18
p485
I1
sVd7szxsx
p486
I1
sVdpshogv
p487
I3
sVd6i8t64
p488
I1
sVdaqfkkb
p489
I2
sVdig2o5n
p490
I1
sVczc4opz
p491
I1
sVdbux9vf
p492
I1
sVdccguvm
p493
I2
sVdc52bsm
p494
I1
sVdczw2zu
p495
I3
sVd81ihuk
p496
I1
sVdra8xtf
p497
I1
sVdesyeyo
p498
I1
sVd0w26z5
p499
I2
sVczyqtt1
p500
I1
sVdcwhstb
p501
I1
sVdd42dl6
p502
I1
sVd760ljx
p503
I2
sVdjdpvqc
p504
I1
sVdc6t105
p505
I2
sVdjs1j1x
p506
I1
sVdbd2fjp
p507
I1
sVdpb2o0d
p508
I3
sVd6m7wqx
p509
I1
sVddvj4v0
p510
I1
sVd2syb2v
p511
I2
sVd80utzd
p512
I1
sVd2arzul
p513
I1
sVczbucwy
p514
I1
sVdevur2i
p515
I1
sVdpc79pg
p516
I2
sVde40y6h
p517
I1
sVcz8kvjz
p518
I2
sVd6po6g1
p519
I3
sVdafagdq
p520
I1
sVd04jaht
p521
I1
sVd3tn9el
p522
I1
sVddsumml
p523
I4
sVd0i4767
p524
I6
sVd2aqpiy
p525
I1
sVdf155vr
p526
I4
sVd06eg34
p527
I1
sVdstw328
p528
I1
sVds0kkin
p529
I1
sVcz7s12s
p530
I1
sVd30j1h8
p531
I1
sVdeqw8n0
p532
I1
sVdj2vi13
p533
I1
sVd0vbmdw
p534
I1
sVdi2iohz
p535
I1
sVdatdayx
p536
I2
sVdc9kx2n
p537
I2
sVd1olbas
p538
I1
sVd29fhbz
p539
I3
sVdczw7xh
p540
I2
sVdcq1z89
p541
I1
sVdi5c4wl
p542
I2
sVdhle5ba
p543
I1
sVcz2ihl0
p544
I2
sVdgilxw7
p545
I1
sVczb46u7
p546
I1
sVd5f1udo
p547
I1
sVcz9g82t
p548
I2
sVde3vv1x
p549
I1
sVdebf0xa
p550
I2
sVcyr9cpa
p551
I2
sVd6rrmia
p552
I1
sVd2xmf1t
p553
I1
sVd4rcww2
p554
I3
sVddu6a9k
p555
I1
sVdau25sl
p556
I2
sVd1acmef
p557
I1
sVcz8thys
p558
I2
sVd0z7w4t
p559
I1
sVdo7y24y
p560
I1
sVd0ocwnw
p561
I1
sVcz37etp
p562
I1
sVd84uuxr
p563
I1
sVdk7p354
p564
I2
sVd2npu2m
p565
I2
sVd8aq57k
p566
I3
sVdbrfawu
p567
I1
sVd95mk56
p568
I2
sVdgilj2n
p569
I1
sVdb7p4ic
p570
I1
sVd7exw43
p571
I1
sVdkvl7f0
p572
I1
sVd38yxij
p573
I1
sVdpmq31w
p574
I1
sVda1edyz
p575
I1
sVd0ru4yn
p576
I1
sVdhanx5r
p577
I1
sVdiofl9v
p578
I3
sVdbezea0
p579
I1
sVd13vjn4
p580
I1
sVd5wy0pn
p581
I1
sVczr12h5
p582
I3
sVd2n3hio
p583
I1
sVdq8yh45
p584
I1
sVd7yh74d
p585
I1
sVdbwe5x6
p586
I1
sVd5lb252
p587
I2
sVdb897s6
p588
I1
sVd1p1prt
p589
I1
sVd9uf3xp
p590
I1
sVd2gnt00
p591
I1
sVd1k3ryw
p592
I1
sVdh09ctt
p593
I4
sVdcxuy1k
p594
I3
sVczh3ngf
p595
I1
sVd1r26kw
p596
I2
sVd7p3zkr
p597
I1
sVdcxbht3
p598
I2
sVd4s4cpj
p599
I1
sVd8eqwes
p600
I1
sVd7f78pq
p601
I1
sVd4nzyxk
p602
I1
sVddx8pe5
p603
I1
sVcyqtjs6
p604
I1
sVddgmcwf
p605
I1
sVcz053fn
p606
I1
sVde88okj
p607
I1
sVd1me6az
p608
I1
sVczhdt7x
p609
I3
sVdbd13wa
p610
I1
sVd22tyar
p611
I1
sVd5kmqf7
p612
I3
sVddpz1tj
p613
I1
sVdgp2uyd
p614
I1
sVd6sumsu
p615
I1
sVdig9zqn
p616
I1
sVdd1y2i5
p617
I1
sVdbnz258
p618
I1
sVd2r103c
p619
I1
sVdnfvug4
p620
I1
sVcyyztqm
p621
I1
sVdeybkf7
p622
I1
sVdi51emq
p623
I1
sVdbhlni0
p624
I2
sVdrc5lbz
p625
I1
sVd0i6t3z
p626
I2
sVdbdxswo
p627
I2
sVda538q9
p628
I2
sVcyibhtc
p629
I1
sVd8c8b4z
p630
I1
sVczzw9qi
p631
I1
sVd5r8m8j
p632
I1
sVczomelq
p633
I1
sVd0umu72
p634
I1
sVd8a3i9k
p635
I1
sVdcdse2e
p636
I1
sVd68cq67
p637
I1
sVczm9ck2
p638
I2
sVd1hbq8d
p639
I1
sVdraswcr
p640
I1
sVd8yewjw
p641
I1
sVd0g3mpz
p642
I1
sVdax4tze
p643
I2
sVdh3k5mr
p644
I1
sVd19530g
p645
I1
sVd149bpz
p646
I2
sVd4gh2xz
p647
I1
sVdbsqecs
p648
I2
sVdh6qkdb
p649
I1
sVdcdaexr
p650
I1
sVdfvaba6
p651
I3
sVd0yyrq2
p652
I1
sVdbsjmzx
p653
I1
sVd385y5f
p654
I1
sVdt98p1y
p655
I5
sVcykrl4m
p656
I2
sVd8qen39
p657
I1
sVd6mdsz5
p658
I1
sVd2aj9ka
p659
I1
sVd0fcxkz
p660
I2
sVdaby5hp
p661
I1
sVddgk3yr
p662
I1
sVczbatpg
p663
I1
sVd49bluh
p664
I1
sVdcsx2d5
p665
I1
sVcylwu8x
p666
I1
sVd650988
p667
I1
sVd8lxpeo
p668
I1
sVd65gvdn
p669
I1
sVdf37r6t
p670
I2
sVdehu5o5
p671
I1
sVdk1w1ut
p672
I1
sVd5esnhb
p673
I1
sVdhhodp0
p674
I1
sVd0zrq5h
p675
I1
sVdew77ln
p676
I1
sVdgr0xfu
p677
I1
sVczzfwth
p678
I1
sVdjtmxs1
p679
I1
sVdi7qgu2
p680
I2
sVd384q8h
p681
I1
sVd8j2ja8
p682
I4
sVd4n20dk
p683
I2
sVd2sjcxn
p684
I2
sVdgi15wd
p685
I1
sVdqtc6o8
p686
I1
sVd86s3oc
p687
I1
sVd4jfj8j
p688
I1
s.