(dp0
Vcykp8q2
p1
I1
s.(dp0
Vcykp8q2
p1
I2
s.(dp0
Vcynrwqq
p1
I1
sVcykp8q2
p2
I1
s.(dp0
Vcyyv109
p1
I1
sVcykp8q2
p2
I1
s.(dp0
Vcykp8q2
p1
I1
sVczdwcxi
p2
I1
s.(dp0
Vcykp8q2
p1
I1
sVczfoc0e
p2
I1
s.(dp0
Vczgwlwn
p1
I1
sVcykp8q2
p2
I1
s.(dp0
Vczgwlwn
p1
I1
sVcykp8q2
p2
I1
s.(dp0
Vczh9gpb
p1
I1
sVcykp8q2
p2
I1
s.(dp0
Vcykp8q2
p1
I1
sVczi9l8w
p2
I1
s.(dp0
Vcykp8q2
p1
I1
sVczjzuhn
p2
I1
s.(dp0
Vcykp8q2
p1
I1
sVczjzuhn
p2
I1
s.(dp0
Vcykp8q2
p1
I1
sVczjzuhn
p2
I1
s.(dp0
Vczkb26i
p1
I1
sVcykp8q2
p2
I1
s.(dp0
Vczs4b2i
p1
I1
sVcykp8q2
p2
I1
s.(dp0
Vczs4b2i
p1
I1
sVcykp8q2
p2
I1
s.(dp0
Vczvb9ci
p1
I1
sVcykp8q2
p2
I1
s.(dp0
Vcykp8q2
p1
I1
sVczveect
p2
I1
s.(dp0
Vczvj73l
p1
I1
sVcykp8q2
p2
I1
s.(dp0
Vczvpsw4
p1
I1
sVcykp8q2
p2
I1
s.(dp0
Vczx73gz
p1
I1
sVcykp8q2
p2
I1
s.(dp0
Vcykp8q2
p1
I1
sVd0029v5
p2
I1
s.(dp0
Vcykp8q2
p1
I1
sVd00seq2
p2
I1
s.(dp0
Vd01ar64
p1
I1
sVcykp8q2
p2
I1
s.(dp0
Vd01ar64
p1
I1
sVcykp8q2
p2
I1
s.(dp0
Vd030vkm
p1
I1
sVcykp8q2
p2
I1
s.(dp0
Vd035zt5
p1
I1
sVcykp8q2
p2
I1
s.(dp0
Vd07zyzc
p1
I1
sVcykp8q2
p2
I1
s.(dp0
Vd0khfir
p1
I1
sVcykp8q2
p2
I1
s.(dp0
Vcykp8q2
p1
I1
sVd15anob
p2
I1
s.(dp0
Vd17shu7
p1
I1
sVcykp8q2
p2
I1
s.(dp0
Vcykp8q2
p1
I1
sVd1d5w8c
p2
I1
s.(dp0
Vd1g97e4
p1
I1
sVcykp8q2
p2
I1
s.(dp0
Vd1oowra
p1
I1
sVcykp8q2
p2
I1
s.(dp0
Vd1y0358
p1
I1
sVcykp8q2
p2
I1
s.(dp0
Vd1y0358
p1
I1
sVcykp8q2
p2
I1
s.(dp0
Vd22mcsr
p1
I1
sVcykp8q2
p2
I1
s.(dp0
Vcykp8q2
p1
I1
sVd27kr7g
p2
I1
s.(dp0
Vcykp8q2
p1
I1
sVd28fx01
p2
I1
s.(dp0
Vcykp8q2
p1
I1
sVd2me7gn
p2
I1
s.(dp0
Vcykp8q2
p1
I1
sVd2me7gn
p2
I1
s.(dp0
Vcykp8q2
p1
I1
sVd2me7gn
p2
I1
s.(dp0
Vcykp8q2
p1
I1
sVd2y1z5a
p2
I1
s.(dp0
Vd30wq92
p1
I1
sVcykp8q2
p2
I1
s.(dp0
Vd30wq92
p1
I1
sVcykp8q2
p2
I1
s.(dp0
Vcykp8q2
p1
I1
sVd34f7rd
p2
I1
s.(dp0
Vd3a7zdk
p1
I1
sVcykp8q2
p2
I1
s.(dp0
Vd3dfdhm
p1
I1
sVcykp8q2
p2
I1
s.(dp0
Vd3j51ts
p1
I1
sVcykp8q2
p2
I1
s.(dp0
Vcykp8q2
p1
I1
sVd3p8hgb
p2
I1
s.(dp0
Vcykp8q2
p1
I1
sVd3pen0x
p2
I1
s.(dp0
Vd407gyy
p1
I1
sVcykp8q2
p2
I1
s.(dp0
Vd434jdt
p1
I1
sVcykp8q2
p2
I1
s.(dp0
Vcykp8q2
p1
I1
sVd49s6g7
p2
I1
s.(dp0
Vd4anvoa
p1
I1
sVcykp8q2
p2
I1
s.(dp0
Vd4gdq5z
p1
I1
sVcykp8q2
p2
I1
s.(dp0
Vd4o71ms
p1
I1
sVcykp8q2
p2
I1
s.(dp0
Vd4w0tio
p1
I1
sVcykp8q2
p2
I1
s.(dp0
Vcykp8q2
p1
I1
sVd4wmxcs
p2
I1
s.(dp0
Vcykp8q2
p1
I1
sVd4wmxcs
p2
I1
s.(dp0
Vd5p8hag
p1
I1
sVcykp8q2
p2
I1
s.(dp0
Vd5p8hag
p1
I1
sVcykp8q2
p2
I1
s.(dp0
Vcykp8q2
p1
I1
sVd5zowpz
p2
I1
s.(dp0
Vd65qfgq
p1
I1
sVcykp8q2
p2
I1
s.(dp0
Vcykp8q2
p1
I1
sVd6p0q63
p2
I1
s.(dp0
Vcykp8q2
p1
I1
sVd6p0q63
p2
I1
s.(dp0
Vcykp8q2
p1
I1
sVd6sbuql
p2
I1
s.(dp0
Vcykp8q2
p1
I1
sVd70vgwe
p2
I1
s.(dp0
Vd76vroo
p1
I1
sVcykp8q2
p2
I1
s.(dp0
Vd7fgce3
p1
I1
sVcykp8q2
p2
I1
s.(dp0
Vd7rogcr
p1
I1
sVcykp8q2
p2
I1
s.(dp0
Vd84h39s
p1
I1
sVcykp8q2
p2
I1
s.(dp0
Vcykp8q2
p1
I1
sVd8e3ag4
p2
I1
s.(dp0
Vd8ez7x0
p1
I1
sVcykp8q2
p2
I1
s.(dp0
Vd8m0wxs
p1
I1
sVcykp8q2
p2
I1
s.(dp0
Vcykp8q2
p1
I1
sVd96epgb
p2
I1
s.(dp0
Vd9btn45
p1
I1
sVcykp8q2
p2
I1
s.(dp0
Vd9btn45
p1
I1
sVcykp8q2
p2
I1
s.(dp0
Vcykp8q2
p1
I1
sVd9fay9f
p2
I1
s.(dp0
Vcykp8q2
p1
I1
sVd9lqmvc
p2
I1
s.(dp0
Vcykp8q2
p1
I1
sVd9lqmvc
p2
I1
s.(dp0
Vcykp8q2
p1
I1
sVd9oast4
p2
I1
s.(dp0
Vcykp8q2
p1
I1
sVd9oast4
p2
I1
s.(dp0
Vd9v8xn1
p1
I1
sVcykp8q2
p2
I1
s.(dp0
Vdat4uqz
p1
I1
sVcykp8q2
p2
I1
s.(dp0
Vcykp8q2
p1
I1
sVdav7a35
p2
I1
s.(dp0
Vcykp8q2
p1
I1
sVdaxokbe
p2
I1
s.(dp0
Vdb0wql2
p1
I1
sVcykp8q2
p2
I1
s.(dp0
Vcykp8q2
p1
I1
sVdbi4ykq
p2
I1
s.(dp0
Vdbsr1yv
p1
I1
sVcykp8q2
p2
I1
s.(dp0
Vdciyr58
p1
I1
sVcykp8q2
p2
I1
s.(dp0
Vdclxgat
p1
I1
sVcykp8q2
p2
I1
s.(dp0
Vcykp8q2
p1
I1
sVdd6snd8
p2
I1
s.(dp0
Vdd7a5j7
p1
I1
sVcykp8q2
p2
I1
s.(dp0
Vddqck88
p1
I1
sVcykp8q2
p2
I1
s.(dp0
Vddtqyb5
p1
I1
sVcykp8q2
p2
I1
s.(dp0
Vddy16w8
p1
I1
sVcykp8q2
p2
I1
s.(dp0
Vde10ix8
p1
I1
sVcykp8q2
p2
I1
s.(dp0
Vde1c7ye
p1
I1
sVcykp8q2
p2
I1
s.(dp0
Vcykp8q2
p1
I1
sVde38mf2
p2
I1
s.(dp0
Vde79scs
p1
I1
sVcykp8q2
p2
I1
s.(dp0
Vdeb39qp
p1
I1
sVcykp8q2
p2
I1
s.(dp0
Vdebdz9o
p1
I1
sVcykp8q2
p2
I1
s.(dp0
Vdefehct
p1
I1
sVcykp8q2
p2
I1
s.(dp0
Vcykp8q2
p1
I1
sVdehj4s4
p2
I1
s.(dp0
Vdehw1x0
p1
I1
sVcykp8q2
p2
I1
s.(dp0
Vdemtzju
p1
I1
sVcykp8q2
p2
I1
s.(dp0
Vdemtzju
p1
I1
sVcykp8q2
p2
I1
s.(dp0
Vdezreo8
p1
I1
sVcy(dp0
Vdtcly4q
p1
I1
sVcykp8q2
p2
I1
s.