(dp0
Vdpd7nm0
p1
I1
sVdfr3mj9
p2
I1
sVded4ip9
p3
I1
sVd7pjzd8
p4
I1
sVdfnomfn
p5
I1
sVd81z3ve
p6
I1
sVd1m3s4a
p7
I1
sVd8iy1v5
p8
I1
sVdje3zdq
p9
I1
sVd74dvs6
p10
I1
sVdaa0qql
p11
I1
sVd1nt877
p12
I1
sVd338ldf
p13
I1
s.