(dp0
Vd94ebkd
p1
I1
sVdga9ulg
p2
I1
sVdmugc3f
p3
I1
sVd6p344k
p4
I1
sVd5bpfk4
p5
I1
sVdkifw0l
p6
I1
sVd1gqkru
p7
I1
sVd4qsvtb
p8
I1
sVcz4mmnr
p9
I1
sVd6nrvhn
p10
I1
sVdaeotwg
p11
I1
sVd28664n
p12
I1
sVdh3ojq7
p13
I2
sVd19kmzl
p14
I1
sVdiqpkqi
p15
I3
sVds170rz
p16
I1
sVd4hzlzu
p17
I1
sVd31t3l9
p18
I1
sVdiwmq3u
p19
I1
sVdjze1wd
p20
I2
sVd8w0xi2
p21
I1
sVdq77u0v
p22
I1
sVda1vprx
p23
I1
sVdgkq1bt
p24
I2
sVd6t7nx0
p25
I1
sVdjqqmsg
p26
I1
sVdch9zfx
p27
I1
sVdkhe4ou
p28
I1
sVdiofl9v
p29
I1
sVd4wd8jd
p30
I1
sVdg4yado
p31
I1
sVddsftiy
p32
I1
sVd0fq26o
p33
I1
sVczzl5ip
p34
I1
sVdhjb8zb
p35
I3
sVczi2ioe
p36
I1
sVd013ge4
p37
I1
sVd49ltlj
p38
I1
sVdgbdet8
p39
I1
sVczs30q1
p40
I1
sVdaaxskm
p41
I1
sVdhprya6
p42
I1
sVdi6dwra
p43
I3
sVdc2j0r4
p44
I1
sVdgkrecn
p45
I1
sVdj5dgsv
p46
I1
sVd8yh0kv
p47
I1
sVdd3e7lo
p48
I1
sVd2i8i0m
p49
I1
sVcyu29c9
p50
I1
sVdrro1tv
p51
I1
sVd6nkntk
p52
I1
sVdaaurfw
p53
I1
sVd4mruqh
p54
I1
sVddkzgq1
p55
I1
sVd5ak8f0
p56
I1
sVd1gppuy
p57
I1
sVds6gx21
p58
I1
sVdfpxpqh
p59
I3
sVd5y0vbu
p60
I1
sVdc8fqgz
p61
I1
sVdsplteu
p62
I1
s.