(dp0
Vdr1fq0s
p1
I2
sVdocggb3
p2
I1
sVd16q1kt
p3
I1
sVdklp2e1
p4
I1
sVdoxxq03
p5
I1
sVd331opp
p6
I1
sVdfsgtxr
p7
I1
sVd8lnbgj
p8
I2
sVd7e7kn2
p9
I1
sVdevylcc
p10
I2
sVd2kv40q
p11
I1
sVdnzsnw0
p12
I1
sVdgd2zoy
p13
I1
sVd9yvns0
p14
I1
sVd16wc1m
p15
I1
sVd36tzfm
p16
I1
sVdpoqzph
p17
I1
sVd3b0kes
p18
I1
sVd7bkly8
p19
I3
sVdmuqgjk
p20
I1
sVcytj05c
p21
I1
sVd12q1ej
p22
I2
sVdt7hvbc
p23
I1
sVdcetpgh
p24
I1
sVdmh06t6
p25
I1
sVczh0otp
p26
I1
sVd1pi692
p27
I3
sVd083gr1
p28
I1
sVd5ljzig
p29
I1
sVd0sr95n
p30
I2
sVd1w3sev
p31
I1
sVdqc0f75
p32
I1
sVdfiv7ff
p33
I1
sVder4nkm
p34
I1
sVd2tm5ze
p35
I1
sVdqk1cr4
p36
I1
sVdarf1bv
p37
I1
sVdrbh9d0
p38
I1
sVdb2ores
p39
I1
sVd6g8p5u
p40
I1
sVdk59px6
p41
I1
sVd3odgkg
p42
I4
sVdgxojm4
p43
I1
sVdclh2a7
p44
I1
sVdnyfwfa
p45
I1
sVdbesqw8
p46
I1
sVddg8lqh
p47
I1
sVdjlkwyr
p48
I1
sVdtczyyc
p49
I1
sVczjag3q
p50
I1
sVdrt7lol
p51
I1
sVdksmswj
p52
I9
sVdaclpfe
p53
I1
sVd8w7eh2
p54
I1
sVd2i60so
p55
I1
sVdpi2jjc
p56
I1
sVdk19thl
p57
I1
sVdndzbf8
p58
I1
sVdd45yi6
p59
I1
sVd0g2uni
p60
I1
sVdp8n9eh
p61
I1
sVdcxlene
p62
I1
sVd5qpp2n
p63
I1
sVd7w0o06
p64
I2
sVd5asclv
p65
I1
sVd9qeah8
p66
I1
sVdrqhla6
p67
I1
sVd5n5xca
p68
I2
sVcyk00ne
p69
I2
sVdpvcv28
p70
I1
sVdb9l6am
p71
I1
sVdftuefv
p72
I3
sVddv2dku
p73
I1
sVda0fpmk
p74
I1
sVdaqslgh
p75
I1
sVd01ra90
p76
I3
sVdgk6zcy
p77
I1
sVdc0at3z
p78
I1
sVdiwglqc
p79
I1
sVd2ig3ib
p80
I1
sVd4lcg2v
p81
I1
sVd6o6o2y
p82
I1
sVdh8ijqt
p83
I1
sVd0knw4w
p84
I2
sVd2th7p0
p85
I1
sVdcghflf
p86
I1
sVcyx64ud
p87
I1
sVdgvrs4t
p88
I1
sVd9xmljm
p89
I1
sVd73lzfy
p90
I1
sVd0vav22
p91
I2
sVdejywwd
p92
I1
sVd05v33k
p93
I1
sVdkqhft2
p94
I1
sVdcg6xop
p95
I2
sVdkjgl4q
p96
I3
sVd26cjgj
p97
I1
sVdb9gkt8
p98
I1
sVczucb5d
p99
I1
sVdihs1dz
p100
I1
sVd6tp5sc
p101
I1
sVdne2ogq
p102
I1
sVd5yhkvp
p103
I1
sVdieo73z
p104
I4
sVcyoz6kd
p105
I1
sVd7bwcwk
p106
I1
sVdbhod1o
p107
I1
sVdozro6d
p108
I1
sVdejumyg
p109
I1
sVdnti0lh
p110
I1
sVds6hvy0
p111
I1
sVdfaemyk
p112
I1
sVdqevfj9
p113
I1
sVdqmpj5r
p114
I1
sVdstblag
p115
I1
sVdevm9uz
p116
I2
sVd9i6r84
p117
I1
sVdgmkxba
p118
I1
sVd5mkrbw
p119
I1
sVd1sb9ns
p120
I1
sVdp3r2hd
p121
I2
sVd7j7nlx
p122
I1
sVdhcl631
p123
I3
sVd4rglvb
p124
I2
sVd0dvc9y
p125
I1
sVd2u4jne
p126
I1
sVd8krxfx
p127
I1
sVdij2pb0
p128
I1
sVd5glw7q
p129
I1
sVdsmey17
p130
I1
sVdg8esvj
p131
I1
sVd3fbk3t
p132
I1
sVd3sy6nj
p133
I1
sVd1bsj44
p134
I1
sVdf00cw8
p135
I1
sVczc60l9
p136
I1
sVd1bchn1
p137
I1
sVddv71io
p138
I1
sVdd5f1cc
p139
I1
sVdgwapbc
p140
I1
sVdh6szsy
p141
I1
sVd1n15o7
p142
I1
sVdb4afjx
p143
I1
sVdomuumv
p144
I1
sVdedfbxf
p145
I1
sVd070lbt
p146
I1
sVd34fker
p147
I1
sVdmq2usw
p148
I1
sVdejqmjy
p149
I1
sVd9nw5u8
p150
I1
sVdo27sbc
p151
I1
sVd0xoltr
p152
I1
sVd1kgtgv
p153
I1
sVd8yd50p
p154
I1
sVd296qh4
p155
I1
sVczqiiho
p156
I1
sVdog08mv
p157
I2
sVdaou6h5
p158
I1
sVd2ibv6f
p159
I1
sVcyqtm9h
p160
I1
sVd3mmwiq
p161
I1
sVd08zgv7
p162
I1
sVd4nejqg
p163
I2
sVddgk8b9
p164
I1
sVdboomi0
p165
I1
sVdnoh1pz
p166
I2
sVd9e3i1n
p167
I1
sVdde1dbu
p168
I3
sVczrhfgw
p169
I1
sVdd3ffuo
p170
I3
sVdhfliw6
p171
I1
sVdgy364r
p172
I1
sVd3ldjbr
p173
I1
sVde5btea
p174
I2
sVd4jfben
p175
I1
sVdcm6lb9
p176
I1
sVd8dtldh
p177
I1
sVd2ibchp
p178
I1
sVd1gal51
p179
I1
sVd3ftu75
p180
I2
sVd1tpt5a
p181
I1
sVdqfzp3f
p182
I1
sVd0zo7ta
p183
I1
sVd5t72f4
p184
I1
sVdfn26m2
p185
I1
sVd51k19h
p186
I1
sVdg1noqj
p187
I1
sVd84nm0z
p188
I1
sVd63lgt2
p189
I1
sVd6crx4p
p190
I1
sVd9l6m1n
p191
I1
sVczchw14
p192
I1
sVd6g9caf
p193
I1
sVdjo2b1u
p194
I1
sVdclwq74
p195
I1
sVcze3lao
p196
I1
sVd2ltrt0
p197
I2
sVd5mzw75
p198
I1
sVdk0lg9r
p199
I1
sVd7ylyz5
p200
I1
sVd69kel6
p201
I2
sVdi2sx24
p202
I1
sVdjbv3mv
p203
I1
sVdb5gtpe
p204
I1
sVd2tginh
p205
I2
sVd11f4r1
p206
I4
sVdg24chz
p207
I2
sVdcrx269
p208
I1
sVd88vgws
p209
I1
sVdi3u9hq
p210
I1
sVddyt9ut
p211
I1
sVdrzwsjm
p212
I1
sVcynbb3v
p213
I2
sVd4wd8jd
p214
I1
sVdffkto0
p215
I1
sVd83r5m9
p216
I1
sVcz4vka8
p217
I2
sVdsuuvy8
p218
I1
sVd4tifrh
p219
I2
sVdnilpgs
p220
I1
sVcyzn9j4
p221
I1
sVdg5uhzl
p222
I1
sVd5wjmhc
p223
I1
sVdfx10y8
p224
I1
sVddh480m
p225
I1
sVd070y36
p226
I1
sVddkjkm3
p227
I1
sVcylycha
p228
I1
sVdkkh89y
p229
I1
sVdfbonj6
p230
I1
sVd1px4qf
p231
I1
sVdio8003
p232
I1
sVdssgmud
p233
I1
sVd2luuie
p234
I1
sVdj6ijb1
p235
I1
sVdrvrcaw
p236
I2
sVdf267z7
p237
I1
sVdj2pmxg
p238
I1
sVdc49kpb
p239
I1
sVd59j3y6
p240
I1
sVdqj61co
p241
I2
sVd3e7zot
p242
I1
sVdclm28w
p243
I1
sVdgu1chx
p244
I1
sVdb6w8al
p245
I1
sVdohmmyb
p246
I1
sVd28d8tj
p247
I1
sVd4xa7rs
p248
I2
sVdftqtgv
p249
I1
sVdr5f7aq
p250
I1
sVd990ui7
p251
I3
sVd8g8n2b
p252
I1
sVd1w620k
p253
I1
sVdn8gaqz
p254
I1
sVd1czj5a
p255
I1
sVdar1ri3
p256
I1
sVdn3x17h
p257
I1
sVdej6rgw
p258
I1
sVdkqaddb
p259
I1
sVd05aff3
p260
I1
sVcz2vox2
p261
I1
sVd5meoob
p262
I1
sVdtdh5dz
p263
I1
sVdho7n93
p264
I1
sVd7575cp
p265
I1
sVdivroq5
p266
I1
sVdjbj1hp
p267
I2
sVdi30g19
p268
I1
sVda8wyex
p269
I1
sVdr1wab7
p270
I1
sVdst0o6e
p271
I1
sVcz3n081
p272
I1
sVd3ug2gz
p273
I1
sVdkd6uyg
p274
I1
sVczt6dwp
p275
I1
sVd6knlzr
p276
I1
sVdeh56pb
p277
I1
sVd07z4i4
p278
I1
sVdbu74g2
p279
I1
sVd17f5mo
p280
I1
sVd1a44ew
p281
I1
sVd9befam
p282
I1
sVdr5b99h
p283
I1
sVdevoocp
p284
I1
sVdpdku3b
p285
I1
sVd1v29cs
p286
I1
sVdbeg2mi
p287
I1
sVdn8hoiv
p288
I1
sVd74kwbf
p289
I2
sVd1e4lvb
p290
I1
sVd9l3x52
p291
I1
sVdefc761
p292
I1
sVd1mjy18
p293
I1
sVd0ykosg
p294
I1
sVdrq5ion
p295
I1
sVdcbddk9
p296
I1
sVd7bxkvp
p297
I1
sVdqucr41
p298
I1
sVdae1ecm
p299
I2
sVd2ve05o
p300
I1
sVczaoo78
p301
I1
sVd279daa
p302
I1
sVd1i6848
p303
I1
sVczl9pdb
p304
I2
sVd1j3uwb
p305
I1
sVdj6hd9r
p306
I1
sVdfp0zwf
p307
I2
sVd838f67
p308
I1
sVdf121ws
p309
I1
sVdfi5jnu
p310
I2
sVd41gxtp
p311
I1
sVdi6tiaj
p312
I2
sVde8p8uj
p313
I1
sVd6htjn8
p314
I1
sVcymwtvw
p315
I3
sVd96u64u
p316
I7
sVd9182to
p317
I1
sVd9ry5s9
p318
I1
sVd0v1qej
p319
I1
sVd5hxjl8
p320
I1
sVdc7lgi2
p321
I1
sVdrc8icb
p322
I1
sVd3pmmzn
p323
I1
sVdql7a6k
p324
I2
sVcyz2j95
p325
I1
sVdb011sz
p326
I1
sVdb447lo
p327
I1
sVd9l0qwa
p328
I2
sVdqjq5mq
p329
I1
sVd9f0io4
p330
I1
sVcyi0j0l
p331
I2
sVdsi9thg
p332
I1
sVdjgkh66
p333
I1
sVdocnvug
p334
I1
sVdny98ga
p335
I1
sVd3v6ezs
p336
I1
sVd55qbhz
p337
I2
sVdt0hgug
p338
I1
sVd2xfkol
p339
I1
sVd2mn48u
p340
I1
sVdsczhr4
p341
I1
sVd1zajl6
p342
I1
sVdki1cwo
p343
I1
sVdn3x5sd
p344
I1
sVd02in9w
p345
I2
sVdg8zsfj
p346
I1
sVd8h2asp
p347
I1
sVde4s6wx
p348
I1
sVcywihbm
p349
I1
sVd6yepo7
p350
I1
sVd9p11di
p351
I1
sVcyi6uq8
p352
I1
sVd5qygsf
p353
I1
sVd3wrk5n
p354
I1
sVd17ypkk
p355
I1
sVdin6l09
p356
I1
sVd2ukga5
p357
I1
sVdakfve7
p358
I1
sVdgvz1dv
p359
I1
sVdt8lseb
p360
I1
sVd6214nb
p361
I1
sVdmutt49
p362
I1
sVd6w4rq3
p363
I1
sVd1h6rvc
p364
I1
sVdc3rr8y
p365
I1
sVdam2ggc
p366
I1
sVdbg3ops
p367
I1
sVd80c2qz
p368
I1
sVd073feb
p369
I1
sVdfzzqu5
p370
I1
sVdcw5caz
p371
I2
sVd8fyktf
p372
I1
sVdihhn20
p373
I1
sVdg6b4cf
p374
I1
sVdedxs21
p375
I2
sVd89he7t
p376
I1
sVdkb3vqh
p377
I1
sVdhr9l95
p378
I1
sVd0xtvvz
p379
I1
sVdgqku3f
p380
I1
sVdfvspjr
p381
I1
sVd1up7bv
p382
I1
sVczyeskr
p383
I1
sVd6mdd0e
p384
I1
sVdfnmch6
p385
I1
sVd6snd33
p386
I1
sVd2a5btm
p387
I1
sVcznoqcy
p388
I1
sVddr4lqg
p389
I1
sVdq9qwqx
p390
I4
sVd9ymvuf
p391
I2
sVczfuszs
p392
I1
sVcyp3p9l
p393
I1
sVd4rxw2p
p394
I1
sVd7ocsj7
p395
I1
sVdb4uoe6
p396
I1
sVdqxpdys
p397
I1
sVd946brn
p398
I1
sVd3rmy9o
p399
I1
sVd8aqj3v
p400
I1
sVd6y17tq
p401
I1
sVdobjryl
p402
I1
sVdp2o8dq
p403
I1
sVd77kfok
p404
I1
sVdekyqdp
p405
I2
sVddw98kh
p406
I1
sVd4rqke7
p407
I4
sVdt359nu
p408
I1
sVddosxmg
p409
I1
sVd1vh7v1
p410
I1
sVd9bqd13
p411
I1
sVdhd45tb
p412
I1
sVdqutyo3
p413
I2
sVd10vdtm
p414
I1
sVdkpjipw
p415
I1
sVdohjzdj
p416
I1
sVdinnx9i
p417
I1
sVdeyd2u4
p418
I1
sVddcbgwl
p419
I1
sVdemsxu6
p420
I2
sVd7vvy15
p421
I2
sVd5vcf2d
p422
I1
sVdfvxnr4
p423
I1
sVd1zegqs
p424
I1
sVdgtc2wl
p425
I1
sVd5317ix
p426
I1
sVdf1kv8k
p427
I1
sVdfmwwlb
p428
I1
sVdntmxg9
p429
I1
sVdjml9v3
p430
I1
sVd28wpcw
p431
I1
sVd0jharq
p432
I1
sVd3eqi2l
p433
I2
sVde40lkt
p434
I1
sVd0xc0w0
p435
I1
sVd18bysj
p436
I1
sVd71oeo3
p437
I1
sVda1gpqw
p438
I1
sVd466l6x
p439
I1
sVd9dpip7
p440
I1
sVd562vqr
p441
I2
sVd1bp5fi
p442
I1
sVdge4qja
p443
I1
sVd0yqqmp
p444
I2
sVdhlmbpj
p445
I1
sVdex952b
p446
I1
sVdq8qvod
p447
I1
sVda0g5jg
p448
I1
sVdho3lj8
p449
I1
sVd70jqzn
p450
I1
sVd03usiy
p451
I1
sVdj5r27q
p452
I1
sVdghnd2z
p453
I1
sVd0n85w1
p454
I1
sVdcphnwo
p455
I1
sVd358j5l
p456
I1
sVd7xn6no
p457
I1
sVdcmu4ma
p458
I1
sVcywth19
p459
I1
sVd3aidbd
p460
I1
sVd9nufyg
p461
I1
sVddspt3p
p462
I1
sVd0k1miw
p463
I2
sVcz6gblh
p464
I1
sVdqx0xng
p465
I1
sVd2a9loq
p466
I2
sVd1vgzx8
p467
I1
sVcyp3l3p
p468
I1
sVdigdrp7
p469
I1
sVdd6yqzv
p470
I1
sVdh28v6u
p471
I1
sVde1w608
p472
I1
sVd0entcf
p473
I1
sVd2j989r
p474
I1
sVdbx5rmt
p475
I2
sVd8vabqn
p476
I1
sVdf7rxch
p477
I1
sVd0s0ntz
p478
I1
sVdf45nsc
p479
I1
sVdsu8u9t
p480
I1
sVdh04bu7
p481
I1
sVddog6ia
p482
I1
sVd4ij0hs
p483
I1
sVdj2j651
p484
I1
sVd5o8jjc
p485
I1
sVd6ttcd3
p486
I1
sVd6j97en
p487
I1
sVd7qcw3v
p488
I1
sVdeclokx
p489
I1
sVdrgd3qv
p490
I1
sVdoj6uh7
p491
I1
sVd684c1u
p492
I1
sVdfkfvrm
p493
I2
sVd14hhyh
p494
I1
sVd1gdqe6
p495
I1
sVdbsycda
p496
I1
sVd2vusfq
p497
I1
sVdc2esb4
p498
I1
sVd78wyd2
p499
I2
sVdcw74pp
p500
I1
sVdaujrjv
p501
I1
sVd2swbkf
p502
I1
sVd9ey7bw
p503
I1
sVd67hoki
p504
I2
sVdsxqxaw
p505
I1
sVd3eptli
p506
I1
sVdjokwlo
p507
I1
sVdcsit44
p508
I1
sVcziqhro
p509
I1
sVdjdkezt
p510
I1
sVdorihaq
p511
I1
sVdpok5nd
p512
I1
sVd8f6m4v
p513
I1
sVdedoqsf
p514
I1
sVd01kci2
p515
I2
sVdp588ik
p516
I1
sVdjqzh4s
p517
I1
sVdbw33rm
p518
I1
sVd4vkyun
p519
I1
sVdivn9e9
p520
I1
sVdnpe7to
p521
I1
sVd6oxdtq
p522
I1
sVdefmvpx
p523
I1
sVdid33dk
p524
I1
sVdjbp5p9
p525
I1
sVd4gio1h
p526
I1
sVd29eayj
p527
I1
sVdaygpib
p528
I3
sVd3djor6
p529
I1
sVd2gb2h0
p530
I1
sVdkzctnf
p531
I1
sVdboiq03
p532
I3
sVdni7sya
p533
I1
sVdmfnohs
p534
I1
sVd4qrilh
p535
I1
sVd45cu5q
p536
I1
sVdd0p9vw
p537
I1
sVd42d77e
p538
I1
sVd0mgdxz
p539
I1
sVdgbscj8
p540
I1
sVddynb3h
p541
I1
sVdmzenlz
p542
I1
sVd6p8d00
p543
I1
sVdqgvyhm
p544
I1
sVdpqrwlw
p545
I1
sVd2id07t
p546
I1
sVdh4xk8k
p547
I1
sVdqcq21m
p548
I1
sVd4y8fxf
p549
I1
sVddrf0mb
p550
I1
sVd4l7ls8
p551
I1
sVdj4jlwn
p552
I1
sVd249w8l
p553
I1
sVdf06865
p554
I1
sVdg0wwzo
p555
I2
sVd496sh8
p556
I1
sVd7bs49e
p557
I1
sVcyqnlb1
p558
I3
sVdapk1lp
p559
I1
sVd04zwv2
p560
I1
sVdtcvhpy
p561
I1
sVd9aes5s
p562
I2
sVd1xzyar
p563
I1
sVd1pvaag
p564
I1
sVd7m4eje
p565
I1
sVd7a7wpb
p566
I1
sVd51h049
p567
I1
sVd1m9zlx
p568
I1
sVday0gbh
p569
I1
sVdosjntf
p570
I1
sVdit3hsq
p571
I1
sVda3soyd
p572
I1
sVdk5j1xz
p573
I1
sVd7w2403
p574
I1
sVds1j5j3
p575
I3
sVdq3z6ni
p576
I1
sVdjvbyrd
p577
I2
sVd1i9x6k
p578
I1
sVczj13iw
p579
I2
sVdg2w9kx
p580
I1
sVd6a34df
p581
I1
sVdch8bib
p582
I1
sVdftkbqc
p583
I1
sVd797fnp
p584
I1
sVd8dlc6v
p585
I1
sVdhv3k2r
p586
I1
sVdgv0vsl
p587
I1
sVd1dk3rj
p588
I1
sVdf6p0a7
p589
I1
sVd2awqve
p590
I1
sVd876k5y
p591
I1
sVdrorvh3
p592
I1
sVdgmv1ji
p593
I1
sVdkxva61
p594
I1
sVdazpr01
p595
I1
sVd86n0ph
p596
I1
sVd7b3hij
p597
I1
sVde0132y
p598
I1
sVdkh1342
p599
I1
sVdksa7k5
p600
I1
sVdejbsa1
p601
I1
sVdnm9w37
p602
I1
sVd079hs7
p603
I2
sVd9w9uyr
p604
I1
sVd2yr855
p605
I1
sVda1ncz5
p606
I1
sVd64wdz2
p607
I1
sVd0iv5bd
p608
I1
sVdamckxr
p609
I1
sVd25l0aw
p610
I2
sVda2qb7p
p611
I2
sVddpobp5
p612
I1
sVd5q9d0h
p613
I1
sVddrbc5l
p614
I1
sVddsoq96
p615
I1
sVd6ka3fj
p616
I1
sVdku8px2
p617
I1
sVd1iwq5k
p618
I1
sVd98j96t
p619
I2
sVdqclj5a
p620
I1
sVcyj1idr
p621
I1
sVd19o44i
p622
I1
sVd9151fd
p623
I1
sVd56b2ik
p624
I1
sVdhkkp1c
p625
I1
sVdc431p9
p626
I1
sVdhin9c0
p627
I1
sVdeweac9
p628
I1
sVdj91iyg
p629
I1
sVdgzu3hy
p630
I1
sVdk6s652
p631
I1
sVdjmffcs
p632
I1
sVdekw9fv
p633
I1
sVd86wuwk
p634
I1
sVdafjxhf
p635
I1
sVdiywc2s
p636
I1
sVczjr94z
p637
I1
sVdipkjsw
p638
I1
sVd9xkzzz
p639
I1
sVd9n127n
p640
I3
sVd69zpj3
p641
I1
sVdrk0pyj
p642
I1
sVd84vwhd
p643
I1
sVd0hvirz
p644
I1
sVdh126f2
p645
I1
sVdqtkkxc
p646
I1
sVd2g3kgo
p647
I1
sVd4oqcfj
p648
I1
sVdbopl7e
p649
I1
sVczc7zk8
p650
I2
sVd61rmzk
p651
I1
sVd2o3eq5
p652
I1
sVd1xayya
p653
I1
sVd6px81h
p654
I1
sVd6c3rhq
p655
I1
sVd3ujbp0
p656
I1
sVdqdwxlt
p657
I1
sVd7flemd
p658
I2
sVdahzrgh
p659
I1
sVd89bi95
p660
I1
sVd61ot6f
p661
I1
sVddcgmyi
p662
I1
sVd91ledr
p663
I1
sVdpie5xn
p664
I1
sVdkm1agq
p665
I1
sVd6pi358
p666
I1
sVcz0xsph
p667
I1
sVdk4ztm4
p668
I1
sVdj1xiwm
p669
I1
sVd4qdhkg
p670
I1
sVdtiblw9
p671
I1
sVd7i59lc
p672
I2
sVd2j3lnz
p673
I1
sVdj3vkzt
p674
I1
sVdbd8bip
p675
I1
sVd05xb6p
p676
I2
sVcz0ns0g
p677
I2
sVdb56hh7
p678
I1
sVdbrbzv8
p679
I1
sVdjzo6ow
p680
I2
sVcz79z5f
p681
I1
sVda8o42a
p682
I1
sVd1dpo31
p683
I1
sVdh44ddz
p684
I1
sVdh4eup6
p685
I1
sVd19fee1
p686
I1
sVdbskgza
p687
I1
sVdsg38cb
p688
I1
sVdqxlak3
p689
I3
sVdaa2tj2
p690
I1
sVdqy1ig2
p691
I1
sVczk319t
p692
I2
sVdao58fi
p693
I1
sVdqb0dva
p694
I2
sVdnybsqt
p695
I4
sVd3n9rxe
p696
I1
sVdfpnd9m
p697
I1
sVdopcxt4
p698
I1
sVdd5j28e
p699
I1
sVdrrvxh3
p700
I2
sVdglvjov
p701
I1
sVd3pkwsv
p702
I1
sVddfssrh
p703
I1
sVdbrhqil
p704
I1
sVd12wpo7
p705
I1
sVdc4iwzt
p706
I1
sVdk262n1
p707
I1
sVdh64yg0
p708
I1
sVd29lizg
p709
I2
sVddeadh4
p710
I1
sVdc2t871
p711
I1
sVdi5g2ky
p712
I1
sVdcz8a46
p713
I1
sVdsbovfp
p714
I1
sVdpmxv1b
p715
I1
sVdmipk65
p716
I2
sVd2ynywq
p717
I1
sVdetf6e0
p718
I1
sVddetnje
p719
I1
sVd80s1yj
p720
I1
sVdryly2s
p721
I2
sVddpfoy0
p722
I1
sVdmr4hdi
p723
I1
sVdgx2qdt
p724
I1
sVd891gwu
p725
I1
sVcz5rxfl
p726
I1
sVdkosjy3
p727
I1
sVd9c4ki9
p728
I1
sVd4nl2a6
p729
I1
sVdr1yxk2
p730
I2
sVdmqrrfu
p731
I1
sVd3d0995
p732
I1
sVdatzw0e
p733
I1
sVdn9328j
p734
I1
sVdo97nkw
p735
I1
sVdazmak4
p736
I1
sVdeg03ty
p737
I1
sVdrxde4v
p738
I1
sVdabwkge
p739
I1
sVdqii130
p740
I3
sVd0vwkjb
p741
I2
sVd72u095
p742
I2
sVdcrha6l
p743
I1
sVdjzc4d2
p744
I1
sVd86kw45
p745
I1
sVdow4215
p746
I1
sVd7u03ce
p747
I1
sVd3bwdsb
p748
I1
sVdgupob2
p749
I1
sVczrmzcn
p750
I1
sVdnbwz7f
p751
I1
sVd3ce68k
p752
I1
sVd077epq
p753
I2
sVdf3z20n
p754
I1
sVcynhyi7
p755
I1
sVczgw5yq
p756
I1
sVdami57t
p757
I1
sVcz8c2sa
p758
I1
sVd0m3vs7
p759
I1
sVda4w4nv
p760
I1
sVdqcbhho
p761
I1
sVd64sx9n
p762
I1
sVdio6v2w
p763
I1
sVdbwv8cj
p764
I1
sVd1d73s1
p765
I1
sVdqztu9p
p766
I1
sVdju4ef9
p767
I1
sVddup9i8
p768
I1
sVd3bkkvr
p769
I1
sVdokn3hj
p770
I1
sVcz13q4l
p771
I1
sVd3q35xh
p772
I2
sVdipjg9e
p773
I1
sVdgn9079
p774
I1
sVdbcflfj
p775
I4
sVdos7cja
p776
I1
sVdbghtaj
p777
I1
sVd9my16w
p778
I1
sVdh8jlnq
p779
I3
sVds1eqks
p780
I1
sVdffnxxq
p781
I2
sVd3l9sy3
p782
I1
sVdca9wj1
p783
I1
sVd0qdq23
p784
I1
sVd7zwsr2
p785
I1
sVd3i08ii
p786
I2
sVczhrt9i
p787
I1
sVdcgp6zc
p788
I1
sVdfum8rs
p789
I1
sVdhpfd1y
p790
I1
sVd0kyio7
p791
I1
sVd0fi2bc
p792
I1
sVd72i359
p793
I1
sVd68pglf
p794
I1
sVdaonlpw
p795
I1
sVd7agyp4
p796
I1
sVd005rwy
p797
I1
sVd9v6sm9
p798
I1
sVddqi8nd
p799
I1
sVdk2doys
p800
I1
sVdaqyxja
p801
I1
sVdcyw05c
p802
I1
sVd9pf8z8
p803
I1
sVdpqu0ed
p804
I1
sVdo81nrq
p805
I1
sVdgc580t
p806
I1
sVczm5qmf
p807
I2
sVdco5qd6
p808
I1
sVd9n4s42
p809
I1
sVczf3545
p810
I1
sVd7227nx
p811
I1
sVd21khi6
p812
I1
sVcyjlx5r
p813
I1
sVdch3x9j
p814
I2
sVd1htynd
p815
I2
sVd4ohe3x
p816
I1
sVdjb33w6
p817
I1
sVd7b8bxk
p818
I1
sVdhqa5yw
p819
I4
sVd6qk8fu
p820
I1
sVdbe8o07
p821
I1
sVd38lk9l
p822
I1
sVd8i5d98
p823
I1
sVczht4y2
p824
I1
sVcyu1x3d
p825
I2
sVdc64yd6
p826
I1
sVd6581pj
p827
I1
sVd0zpdwq
p828
I1
sVd5gh0jv
p829
I1
sVd82tjpp
p830
I1
sVdd6w9w0
p831
I1
sVdiaxnoq
p832
I1
sVd39ew1w
p833
I1
sVd1ok3pd
p834
I1
sVdfyj9o3
p835
I1
sVdec3p3g
p836
I2
sVdpjpmfk
p837
I1
sVdcivmti
p838
I1
sVd076o8o
p839
I1
sVddf15b5
p840
I1
sVddg8kkb
p841
I1
sVd3sfm2h
p842
I1
sVczm636i
p843
I1
sVdjyxtar
p844
I1
sVd2i1hcx
p845
I2
sVdh1hyx3
p846
I1
sVdt573s4
p847
I1
sVdizc4i2
p848
I1
sVd9x50be
p849
I1
sVdpzee3c
p850
I1
sVd62prp0
p851
I1
sVd30wq92
p852
I3
sVdr7oiiv
p853
I1
sVdgu1zq5
p854
I1
sVd73ojn4
p855
I1
sVcz0q6ak
p856
I1
sVd0d2xdo
p857
I1
sVdgb7vi4
p858
I2
sVdb8til1
p859
I2
sVd1wsmpu
p860
I1
sVd70zcxa
p861
I2
sVd0s35l1
p862
I1
sVdjqv5a8
p863
I1
sVd4z21p5
p864
I1
sVd7sc2fz
p865
I1
sVdaj2esa
p866
I1
sVd068dhj
p867
I1
sVdh3ojq7
p868
I1
sVdbj18p5
p869
I1
sVdf63l99
p870
I1
sVdrm954o
p871
I1
sVdh0j4gt
p872
I1
sVdfyjkby
p873
I1
sVd80u5ou
p874
I1
sVdr4rluj
p875
I1
sVdmla2i7
p876
I1
sVczkgood
p877
I1
sVdhwfvsn
p878
I1
sVde73any
p879
I3
sVd8y4ifc
p880
I1
sVdffmjy4
p881
I1
sVd5576w1
p882
I1
sVd88o3s4
p883
I1
sVd3fb2ci
p884
I1
sVd2jgox4
p885
I3
sVczc86wl
p886
I5
sVd6cuin3
p887
I1
sVd25cm2r
p888
I1
sVdi61zqh
p889
I3
sVd417oxv
p890
I4
sVd72xl1m
p891
I2
sVdgyovfe
p892
I1
sVdawci3y
p893
I1
sVd94z6mu
p894
I1
sVd97hxh5
p895
I1
sVdgjxbns
p896
I1
sVdbgxuwg
p897
I1
sVczm11hh
p898
I1
sVd9hdu37
p899
I1
sVd8nderp
p900
I1
sVd445m1a
p901
I1
sVdhw75gh
p902
I1
sVd08lpzz
p903
I1
sVd0ssyx2
p904
I1
sVdimf9a5
p905
I1
sVd0ch0v1
p906
I1
sVd1zxuji
p907
I1
sVd8d0726
p908
I1
sVdbzdoi2
p909
I1
sVd0t9ej4
p910
I2
sVdfu9vwh
p911
I1
sVdk4xwwd
p912
I1
sVd1kpkn8
p913
I1
sVd7pch9k
p914
I2
sVd9aklac
p915
I1
sVdo7bwyp
p916
I1
sVdeeq1i1
p917
I1
sVdkx80u1
p918
I1
sVdosp0rn
p919
I1
sVdh17rjb
p920
I1
sVdjz99sj
p921
I1
sVd2zujby
p922
I1
sVdrfw1sz
p923
I1
sVds0e5x4
p924
I1
sVda4hajk
p925
I1
sVd7x88qu
p926
I1
sVdmue2qa
p927
I2
sVdg1y6mx
p928
I1
sVd39aaz9
p929
I1
sVdpmer0g
p930
I1
sVdbh66gs
p931
I1
sVdaqdplu
p932
I1
sVd877mg7
p933
I1
sVd9yq8gt
p934
I1
sVd76xyz0
p935
I1
sVdbeqyzh
p936
I1
sVd5hjpqi
p937
I1
sVd9gkyyx
p938
I1
sVd711o9f
p939
I1
sVczv2esq
p940
I1
sVdt6omht
p941
I1
sVddyollw
p942
I1
sVdeohjtw
p943
I1
sVdc2t69k
p944
I1
sVd2py0sn
p945
I1
sVd5xvear
p946
I2
sVdru74s8
p947
I2
sVdq06v20
p948
I1
sVd714ers
p949
I1
sVddoagrp
p950
I1
sVdpxtrxh
p951
I2
sVdnwdixd
p952
I1
sVdii3f99
p953
I1
sVdiuwkcq
p954
I2
sVd48j8dq
p955
I1
sVd9unbln
p956
I1
sVdfzgh13
p957
I1
sVds3hpfd
p958
I1
sVde6beiu
p959
I2
sVddmnerl
p960
I1
sVdr82tfa
p961
I1
sVd078740
p962
I1
sVdosu7qn
p963
I1
sVdaakf8x
p964
I1
sVd9l2pqi
p965
I1
sVdda1qfx
p966
I1
sVdhvpxyb
p967
I1
sVdauj1wu
p968
I1
sVdk7c627
p969
I1
sVdhxufjq
p970
I1
sVdmko5hk
p971
I1
sVd35grrr
p972
I1
sVd13h3n4
p973
I1
sVd0d4j23
p974
I1
sVcz6dic8
p975
I1
sVd4rqxi6
p976
I1
sVdjc23gf
p977
I1
sVd83i5ct
p978
I1
sVdceyv9i
p979
I1
sVd3aqng6
p980
I1
sVdkq631k
p981
I1
sVd0708yg
p982
I1
sVdfvd67v
p983
I2
sVd6la9g8
p984
I1
sVdg275ub
p985
I2
sVczgv06f
p986
I1
sVdhwxalc
p987
I1
sVdg1d2tt
p988
I1
sVdjvoybb
p989
I2
sVcz1gpe5
p990
I1
sVdpj6r2h
p991
I2
sVd8umwsb
p992
I1
sVczkq687
p993
I1
sVd7aoku9
p994
I1
sVd3pnj50
p995
I1
sVd8v8e0p
p996
I1
sVded0fn2
p997
I1
sVdae6kg2
p998
I1
sVdncr2kq
p999
I1
sVdcwxh92
p1000
I1
sVdkirdma
p1001
I1
sVdbxwp3t
p1002
I1
sVdcx54mi
p1003
I1
sVdalujz7
p1004
I2
sVdamqq3v
p1005
I1
sVdmzvycz
p1006
I1
sVdfdwswq
p1007
I1
sVdbsl9n6
p1008
I1
sVdcc1khf
p1009
I1
sVd7n5wyl
p1010
I1
sVdk13akb
p1011
I1
sVdf6bt7u
p1012
I3
sVd2hibrt
p1013
I1
sVd6md2mr
p1014
I1
sVdp08bm2
p1015
I1
sVd9er0hz
p1016
I2
sVdfb3hx4
p1017
I1
sVd5ni6dt
p1018
I1
sVd0rav3a
p1019
I1
sVdhj30ko
p1020
I1
sVd73msg6
p1021
I1
sVd8a0shj
p1022
I1
sVdgzd1sj
p1023
I1
sVdr3e6ru
p1024
I6
sVdjjox8h
p1025
I1
sVd9sj8to
p1026
I2
sVd0q0d5x
p1027
I2
sVdrkqf2w
p1028
I1
sVd6w97qy
p1029
I1
sVds1r31s
p1030
I1
sVdi7bbb0
p1031
I1
sVdjy4c2m
p1032
I1
sVczathzt
p1033
I1
sVdk2jx7t
p1034
I1
sVd8a2xb2
p1035
I1
sVdbcizee
p1036
I1
sVddpuk0q
p1037
I1
sVddvbdox
p1038
I1
sVddhe89v
p1039
I2
sVd7wplx1
p1040
I2
sVd90j1qp
p1041
I1
sVczlnkzz
p1042
I1
sVdnmywil
p1043
I1
sVd7kg6i1
p1044
I1
sVczog4rd
p1045
I1
sVddt75sm
p1046
I1
sVdh6a9me
p1047
I1
sVd2tbssi
p1048
I1
sVdtj19y9
p1049
I1
sVd0obwxn
p1050
I2
sVd1h863l
p1051
I1
sVd235wgs
p1052
I1
sVdfceymh
p1053
I1
sVdhtd9zw
p1054
I2
sVdh1tps7
p1055
I1
sVdp34wnm
p1056
I1
sVdd4li8i
p1057
I1
sVd8ai5f6
p1058
I1
sVd1iq9k7
p1059
I1
sVdf6zf1i
p1060
I1
sVdc49yfm
p1061
I1
sVd0ggu4a
p1062
I1
sVdi3ugrr
p1063
I1
sVd1w9jb1
p1064
I1
sVdh47xhd
p1065
I2
sVcyoy3oi
p1066
I1
sVdmgg56b
p1067
I1
sVd28pqrw
p1068
I1
sVczhj8e2
p1069
I1
sVdfj28m4
p1070
I1
sVd1cp08m
p1071
I1
sVd4i4qhw
p1072
I1
sVd64qvk2
p1073
I1
sVdhsn19i
p1074
I1
sVd9ntam5
p1075
I1
sVde5rhna
p1076
I1
sVdgibdkh
p1077
I1
sVd4b3lvt
p1078
I1
sVdjxagmt
p1079
I1
sVdjjqdc6
p1080
I1
sVdi045sm
p1081
I1
sVdde5tok
p1082
I1
sVdfii2j0
p1083
I1
sVdbzd81b
p1084
I1
sVdfwp9ak
p1085
I1
sVdbly7wg
p1086
I1
sVdn86nqk
p1087
I1
sVdirmmu0
p1088
I2
sVdf9hwcd
p1089
I1
sVdrje8bn
p1090
I1
sVcze944n
p1091
I1
sVdetvcpz
p1092
I1
sVdef06h5
p1093
I1
sVdhk3uuu
p1094
I1
sVd4mn99u
p1095
I1
sVd8l93r3
p1096
I1
sVd1e9asb
p1097
I1
sVdhn7o84
p1098
I1
sVd6bny75
p1099
I1
sVdt3cauk
p1100
I1
sVcyrgv4q
p1101
I1
sVd0d7uz1
p1102
I1
sVdgbxg9l
p1103
I2
sVd5gc6rj
p1104
I1
sVdnqs7ou
p1105
I1
sVdh2e6jb
p1106
I1
sVdpfqelu
p1107
I1
sVdsgh4w9
p1108
I1
sVd6fdmbo
p1109
I1
sVdjtxcwq
p1110
I1
sVd8j2r8d
p1111
I1
sVd82l7qb
p1112
I1
sVdfsa6ip
p1113
I1
sVd0hab5x
p1114
I1
sVd95v8tz
p1115
I1
sVd3z90av
p1116
I1
sVdoxnfpe
p1117
I1
sVdrt889s
p1118
I1
sVd2g695y
p1119
I1
sVd7qt3hy
p1120
I1
sVdcarnh6
p1121
I2
sVd2808uo
p1122
I1
sVdncromu
p1123
I1
sVdg51is3
p1124
I1
sVde36yyl
p1125
I3
sVczwadjl
p1126
I1
sVd26zc3g
p1127
I1
sVdh8hcn0
p1128
I1
sVdf48j3t
p1129
I1
sVd1wu9g4
p1130
I1
sVd1tsjl2
p1131
I1
sVd1hiuf0
p1132
I1
sVd8amht0
p1133
I1
sVd7bh7s8
p1134
I1
sVdpa8qif
p1135
I1
sVd972aj2
p1136
I1
sVd8kv6l5
p1137
I2
sVd87zd6d
p1138
I1
sVd8hhyge
p1139
I3
sVde90phf
p1140
I1
sVd5ob2cg
p1141
I1
sVd091a87
p1142
I1
sVdph2v2q
p1143
I1
sVdo7gijv
p1144
I1
sVdfwy00u
p1145
I1
sVczhb0m8
p1146
I1
sVdmowfml
p1147
I1
sVczzajms
p1148
I2
sVdnq86bl
p1149
I1
sVdjiff6q
p1150
I1
sVdjom6ah
p1151
I1
sVdp0jfu6
p1152
I1
sVdet92lv
p1153
I1
sVdfh2f79
p1154
I1
sVdeuzhy8
p1155
I3
sVd3dcgh6
p1156
I2
sVd8hjlug
p1157
I2
sVdmmvlx3
p1158
I3
sVdmtf7dx
p1159
I1
sVda419xp
p1160
I1
sVdin9u69
p1161
I1
sVd5krp93
p1162
I1
sVczsbqaq
p1163
I3
sVdb8a4db
p1164
I1
sVd08n364
p1165
I1
sVd0568r7
p1166
I1
sVd1tk3z9
p1167
I1
sVdj6clbz
p1168
I1
sVd861s3z
p1169
I1
sVds5c3dk
p1170
I1
sVdc3c9i1
p1171
I1
sVdot27vq
p1172
I2
sVd4r8ke0
p1173
I1
sVdegvozp
p1174
I1
sVd7x5a8y
p1175
I2
sVd7pbfj0
p1176
I1
sVdkvqy7a
p1177
I1
sVdikfl7h
p1178
I1
sVdg6a00f
p1179
I1
sVdcksu8g
p1180
I1
sVczodq36
p1181
I1
sVdn81tzs
p1182
I1
sVdhlwz48
p1183
I1
sVdrjns5k
p1184
I1
sVcyvphu7
p1185
I1
sVdio6zw4
p1186
I1
sVd7nemp3
p1187
I1
sVdi4wrxp
p1188
I1
sVdi2cfof
p1189
I1
sVdt9lipi
p1190
I1
sVd97jc7l
p1191
I1
sVd8vgjb2
p1192
I1
sVdngog3q
p1193
I1
sVd4zsktv
p1194
I1
sVdqvw3j0
p1195
I1
sVdhwfduf
p1196
I1
sVdn7r12r
p1197
I1
sVdguhkto
p1198
I1
sVd7abad8
p1199
I1
sVd39kwrx
p1200
I1
sVdqa6f2w
p1201
I1
sVd7w5cp6
p1202
I2
sVdgmo6nq
p1203
I1
sVd6614vv
p1204
I1
sVdfkum55
p1205
I1
sVddjkosj
p1206
I1
sVdi44rpv
p1207
I1
sVd9n39bt
p1208
I1
sVd425p54
p1209
I1
sVd098ay7
p1210
I2
sVczfdbei
p1211
I1
sVd2emgkp
p1212
I2
sVddmmwcy
p1213
I1
sVdcz4gcy
p1214
I1
sVdkjogfq
p1215
I2
sVds3wxbw
p1216
I1
sVdbx9m07
p1217
I1
sVd53dzwc
p1218
I1
sVdpeqvo3
p1219
I1
sVddwc30x
p1220
I1
sVdar6bee
p1221
I1
sVdcel4yy
p1222
I1
sVd1cmyfq
p1223
I1
sVdbt9u33
p1224
I1
sVdbe8ihp
p1225
I1
sVd3i7amm
p1226
I2
sVd805zga
p1227
I1
sVd4u3l3j
p1228
I3
sVd0baywd
p1229
I1
sVd536kq8
p1230
I1
sVdqeyxk3
p1231
I1
sVdfaylvi
p1232
I1
sVd3rj9ye
p1233
I1
sVcyrtuh3
p1234
I1
sVd062cc9
p1235
I1
sVdifiiff
p1236
I1
sVd8grvjt
p1237
I1
sVdcy7qal
p1238
I1
sVczit34v
p1239
I1
sVdfego40
p1240
I2
sVdklrn1i
p1241
I1
sVd1a8bqn
p1242
I2
sVdjhgnbx
p1243
I1
sVd7zzsaf
p1244
I1
sVdrdmtp7
p1245
I1
sVdn1k9dj
p1246
I1
sVd1o9p7c
p1247
I1
sVcz5a4id
p1248
I1
sVcz3poy4
p1249
I1
sVd3hazsj
p1250
I1
sVd3ufsfg
p1251
I3
sVd7qu17i
p1252
I2
sVdc4j1w8
p1253
I1
sVdti59k6
p1254
I1
sVdqilqep
p1255
I1
sVczoaaoe
p1256
I1
sVd7kb8of
p1257
I1
sVdnm7aq6
p1258
I1
sVd9o5e4s
p1259
I1
sVdk6nogl
p1260
I1
sVdhjl3rf
p1261
I2
sVdkevzjo
p1262
I1
sVcz1fnpg
p1263
I1
sVd5dkleq
p1264
I1
sVdje3zdq
p1265
I1
sVd62kefs
p1266
I1
sVd0444b5
p1267
I1
sVdbi9kjw
p1268
I1
sVdmug9e1
p1269
I1
sVd4sd5k4
p1270
I4
sVczsaro1
p1271
I3
sVd7wo0lt
p1272
I1
sVd0ou6im
p1273
I1
sVd354wha
p1274
I1
sVd1wdy8k
p1275
I1
sVdcs3ebp
p1276
I1
sVd8zmego
p1277
I1
sVdkicoxy
p1278
I1
sVdkxy4s4
p1279
I1
sVdh8byay
p1280
I1
sVdom9p8p
p1281
I1
sVd43ljd1
p1282
I1
sVdebo8bl
p1283
I1
sVdav4abs
p1284
I1
sVcz11pn5
p1285
I1
sVdozjfcm
p1286
I2
sVczo2iiw
p1287
I1
sVdmerjkt
p1288
I1
sVd55isga
p1289
I2
sVd62tsxt
p1290
I1
sVdqhp4t3
p1291
I1
sVd8gqaka
p1292
I1
sVd2zhyfj
p1293
I1
sVd4s0j3t
p1294
I1
sVd6a9bpv
p1295
I2
sVdh7uu36
p1296
I1
sVdb9y22j
p1297
I1
sVd1tkhoa
p1298
I1
sVd0qzwz7
p1299
I1
sVdgyc6h7
p1300
I1
sVdj96aaa
p1301
I1
sVd6oux8g
p1302
I1
sVdf7lhtw
p1303
I1
sVd05lel5
p1304
I1
sVd98zoal
p1305
I1
sVd7c2m1h
p1306
I1
sVd66feus
p1307
I1
sVd9mwdod
p1308
I1
sVd9hzy6y
p1309
I1
sVd74sx2s
p1310
I1
sVd9imrw9
p1311
I1
sVdqvdy72
p1312
I3
sVdf2dmg0
p1313
I1
sVd26s4wq
p1314
I1
sVd11mchq
p1315
I1
sVdjou4j4
p1316
I1
sVddyoomo
p1317
I1
sVdhv4l5b
p1318
I1
sVd55hzwa
p1319
I1
sVd5vvvm5
p1320
I1
sVdasckjw
p1321
I1
sVcytxda7
p1322
I1
sVdhdaz3o
p1323
I1
sVdh8fok4
p1324
I1
sVdd2o6ie
p1325
I1
sVd356pm4
p1326
I1
sVd24fqj9
p1327
I1
sVdcg9gtd
p1328
I1
sVd1mdmuk
p1329
I1
sVd2dcju1
p1330
I1
sVdhk4qzv
p1331
I1
sVdemdi2y
p1332
I1
sVd047oxm
p1333
I1
sVdn6wqus
p1334
I1
sVd0yrokv
p1335
I1
sVdqn839s
p1336
I1
sVczatlur
p1337
I1
sVd6pr835
p1338
I1
sVd2sj1fv
p1339
I1
sVcyu4y1i
p1340
I1
sVd9r7w7x
p1341
I1
sVdc0t3ww
p1342
I1
sVcywjudn
p1343
I1
sVd7gjsjv
p1344
I1
sVde7bmv2
p1345
I1
sVd03fry8
p1346
I1
sVdf01y65
p1347
I2
sVdfrtctj
p1348
I1
sVd7tmjbq
p1349
I1
sVdpf4mol
p1350
I1
sVcz79dwo
p1351
I1
sVd0ug0x6
p1352
I1
sVd4gueh3
p1353
I1
sVd3pca1e
p1354
I4
sVdc9hm5p
p1355
I1
sVdpu3yo4
p1356
I1
sVdd3bhhs
p1357
I1
sVcyowsbq
p1358
I1
sVddol6wm
p1359
I1
sVdgt4m4r
p1360
I1
sVcyruqhl
p1361
I1
sVddc0dnp
p1362
I1
sVcyze01v
p1363
I1
sVdeqx2vo
p1364
I1
sVd8ecw3p
p1365
I2
sVd60da6a
p1366
I1
sVd3fa2jx
p1367
I1
sVdntyld8
p1368
I1
sVdti9tan
p1369
I1
sVdjh81xo
p1370
I1
sVczhin4o
p1371
I1
sVdqxvfsy
p1372
I1
sVdh50lui
p1373
I1
sVcz6s3lq
p1374
I1
sVdpore3n
p1375
I4
sVd0j3jxy
p1376
I3
sVczayo8j
p1377
I1
sVd2tl8zf
p1378
I1
sVdb23ccj
p1379
I1
sVdqjtuz9
p1380
I1
sVdrovdk2
p1381
I1
sVda5ncnp
p1382
I1
sVd37s5ix
p1383
I1
sVdbzllr8
p1384
I1
sVd3cqnh4
p1385
I1
sVddmouga
p1386
I1
sVd2zzwnc
p1387
I1
sVda84sod
p1388
I1
sVdkkazyh
p1389
I1
sVddqyqsi
p1390
I1
sVczlsz1c
p1391
I1
sVczaqx9r
p1392
I1
sVd265uik
p1393
I1
sVdmfr02l
p1394
I1
sVd28sxhr
p1395
I1
sVdems5wa
p1396
I1
sVdcrwncu
p1397
I1
sVdenx9w0
p1398
I3
sVdhn87ik
p1399
I1
sVdoccthc
p1400
I1
sVd1gri22
p1401
I1
sVdgykakw
p1402
I1
sVdfquxl9
p1403
I1
sVd7wuiq5
p1404
I1
sVd5k2nb8
p1405
I1
sVdd9z1bn
p1406
I1
sVdaichdb
p1407
I1
sVd1vtqkz
p1408
I1
sVdjfvmms
p1409
I1
sVdt0g0vy
p1410
I1
sVcylyi32
p1411
I1
sVd5wuprd
p1412
I1
sVdes3wof
p1413
I1
sVd1xfrud
p1414
I1
sVd5466p1
p1415
I1
sVdrxqiq5
p1416
I1
sVcyn87li
p1417
I1
sVd80zedz
p1418
I1
sVdeh8cl4
p1419
I2
sVd5wu5xw
p1420
I1
sVd38pjzo
p1421
I1
sVdarkqv5
p1422
I1
sVdhig7za
p1423
I1
sVczdl91q
p1424
I1
sVdhk15yb
p1425
I1
sVd3fv55a
p1426
I1
sVdfx9tk4
p1427
I1
sVdskkwgr
p1428
I1
sVdb8wn8d
p1429
I1
sVdcxqzv6
p1430
I1
sVczlvnj1
p1431
I1
sVdcphyce
p1432
I1
sVdrlz3on
p1433
I1
sVdsylded
p1434
I1
sVdgevplc
p1435
I1
sVd3fi3dp
p1436
I1
sVdr7hl0w
p1437
I2
sVdke6wwe
p1438
I1
sVd1mcq8d
p1439
I1
sVdcvpyy6
p1440
I4
sVday4zh9
p1441
I1
sVdcech2t
p1442
I2
sVdo05gyw
p1443
I1
sVd3cdjwl
p1444
I2
sVdjh5q8j
p1445
I1
sVdp7gtn3
p1446
I1
sVdjze1wd
p1447
I1
sVdio4up6
p1448
I1
sVd4zpzsu
p1449
I3
sVd0fkzof
p1450
I1
sVdh4n0ao
p1451
I1
sVd2l6xzj
p1452
I1
sVdhprya6
p1453
I1
sVdoslb85
p1454
I1
sVczyxn5m
p1455
I1
sVdcsaytf
p1456
I1
sVd2fvcld
p1457
I1
sVcznv03o
p1458
I1
sVd6m46c6
p1459
I1
sVd2vyckp
p1460
I1
sVdpp6vae
p1461
I1
sVdhlr6cn
p1462
I1
sVd659l5y
p1463
I1
sVd7zk4do
p1464
I1
sVcztf2tz
p1465
I2
sVdcbyx63
p1466
I1
sVdby5o3o
p1467
I1
sVdog72df
p1468
I1
sVd9hgf15
p1469
I1
sVdpiyzvq
p1470
I1
sVd6omdsf
p1471
I1
sVd0qmdvp
p1472
I1
sVcz4gxnz
p1473
I1
sVd1ny98f
p1474
I1
sVd68r2rl
p1475
I1
sVd2orgxs
p1476
I1
sVdnqutrl
p1477
I1
sVd0h20k3
p1478
I1
sVd7t4v9z
p1479
I1
sVdeakr8v
p1480
I1
sVcz1zbly
p1481
I1
sVdi6qhiw
p1482
I1
sVdax2vpj
p1483
I1
sVd9ila8n
p1484
I1
sVdev18nd
p1485
I1
sVdchx9rx
p1486
I2
sVdqvs0jw
p1487
I1
sVdihm0gz
p1488
I1
sVcyzc30a
p1489
I1
sVdqf9lgj
p1490
I1
sVdgb2f70
p1491
I1
sVd2h0y6d
p1492
I1
sVdf3ctfd
p1493
I2
sVd52wr2m
p1494
I1
sVdk22ntp
p1495
I1
sVd6rztki
p1496
I1
sVdqkndtl
p1497
I1
sVdr0phzr
p1498
I1
sVddkfhqo
p1499
I1
sVczb4u2p
p1500
I1
sVcym5ri6
p1501
I1
sVd2pufrc
p1502
I1
sVd4ffpf4
p1503
I2
sVd6qgu4h
p1504
I1
sVd6ctrsr
p1505
I1
sVczds0ft
p1506
I2
sVdsq65hl
p1507
I1
sVddqm9sj
p1508
I1
sVd1gx2o8
p1509
I1
sVdsnrp2v
p1510
I1
sVdccy1u0
p1511
I1
sVdi87z3s
p1512
I1
sVd43thlu
p1513
I1
sVdj348ou
p1514
I1
sVd5mjosn
p1515
I1
sVd9i9zdt
p1516
I2
sVdcjtlok
p1517
I1
sVdg8obqh
p1518
I1
sVdqw6u0x
p1519
I1
sVczohr09
p1520
I1
sVdicntyz
p1521
I1
sVcyqd8r3
p1522
I2
sVd1cpgdl
p1523
I1
sVdkgbkpz
p1524
I1
sVddnxqv6
p1525
I1
sVdmow1tu
p1526
I1
sVdn892w5
p1527
I1
sVd3wzpit
p1528
I1
sVdjhyftu
p1529
I1
sVdr5211z
p1530
I1
sVdi70r3f
p1531
I1
sVdbmg0a6
p1532
I1
sVd3ae07l
p1533
I3
sVdrv9myp
p1534
I1
sVd346988
p1535
I2
sVdiyj5wv
p1536
I1
sVdcvnk24
p1537
I1
sVdox3rwa
p1538
I1
sVdo9yqn1
p1539
I1
sVcz91npu
p1540
I1
sVdg5my5n
p1541
I2
sVdgk281a
p1542
I1
sVdefnpi5
p1543
I1
sVd8nby0z
p1544
I1
sVd3jal0u
p1545
I1
sVd5np3tv
p1546
I1
sVcz3mrkh
p1547
I1
sVdjd79zk
p1548
I4
sVdeoafxq
p1549
I1
sVd1mtf71
p1550
I1
sVd8d1zpi
p1551
I1
sVdo7sdyb
p1552
I1
sVd2akym3
p1553
I1
sVd7lhhrr
p1554
I1
sVdhff25f
p1555
I1
sVd7nkxy0
p1556
I2
sVd2gx8dc
p1557
I1
sVdh9uko6
p1558
I1
sVdes1cco
p1559
I1
sVd56o80l
p1560
I1
sVdkmnfc7
p1561
I1
sVdreo2l3
p1562
I1
sVdj5hr2i
p1563
I1
sVd9xrqh7
p1564
I1
sVdesnayj
p1565
I1
sVdg0qdiu
p1566
I1
sVd4kzu94
p1567
I1
sVd87kidl
p1568
I1
sVd3g2oq3
p1569
I1
sVd7vwb46
p1570
I1
sVdrw7i33
p1571
I1
sVd4htq4f
p1572
I1
sVd4ww5w8
p1573
I1
sVd1o3ywt
p1574
I1
sVd6n186a
p1575
I1
sVcywloga
p1576
I1
sVd2azzcm
p1577
I1
sVdfioyga
p1578
I1
sVd66u3by
p1579
I1
sVdg7psd3
p1580
I1
sVcz30zxd
p1581
I1
sVd4krboy
p1582
I1
sVd83vb20
p1583
I1
sVdkkx6ai
p1584
I3
sVdjpoc1r
p1585
I1
sVdq1ig7p
p1586
I1
sVd2fnhc8
p1587
I1
sVd0elni8
p1588
I1
sVdaunyug
p1589
I1
sVdt3bsbk
p1590
I1
sVd5dy38p
p1591
I3
sVcyrwh1l
p1592
I1
sVdmpizpp
p1593
I1
sVd41msf3
p1594
I1
sVdadhvxm
p1595
I1
sVdaax8wl
p1596
I2
sVdkeu497
p1597
I1
sVd4px1ch
p1598
I1
sVd3jcphq
p1599
I1
sVd0a7med
p1600
I1
sVd76v46k
p1601
I1
sVdijcgdt
p1602
I1
sVd2dyjj6
p1603
I1
sVde8hk99
p1604
I1
sVdduz7j9
p1605
I1
sVd6rf5ly
p1606
I1
sVd5h7ea1
p1607
I2
sVdsb9y3o
p1608
I1
sVdqicuak
p1609
I1
sVdnwqw8d
p1610
I2
sVd4cg4lw
p1611
I1
sVcyn23jh
p1612
I1
sVd6lc4ie
p1613
I1
sVcz57l28
p1614
I1
sVda1ymzn
p1615
I1
sVd6sksj3
p1616
I1
sVdruz2nl
p1617
I2
sVdfsx3v8
p1618
I1
sVcz7mh6v
p1619
I1
sVd1v1jzu
p1620
I1
sVd2dbfnn
p1621
I1
sVdem3bcq
p1622
I1
sVd14q5bi
p1623
I1
sVdkytyvs
p1624
I1
sVdpcg9st
p1625
I1
sVdepmuk4
p1626
I1
sVd2cp2ow
p1627
I1
sVdhxjq08
p1628
I1
sVd0bebb7
p1629
I1
sVdmrlroo
p1630
I1
sVdhn8mzn
p1631
I1
sVdspyaqn
p1632
I1
sVdcbc5hc
p1633
I2
sVd759mnq
p1634
I2
sVd40r5e8
p1635
I1
sVd1bg175
p1636
I1
sVcz7e5hh
p1637
I1
sVdn2y8cl
p1638
I1
sVds3ju12
p1639
I1
sVdqqfi9t
p1640
I1
sVd1tr4t2
p1641
I2
sVdaah3e8
p1642
I2
sVds05itq
p1643
I1
sVd8krjl7
p1644
I1
sVdabjubv
p1645
I1
sVdndw9y6
p1646
I1
sVdjbob75
p1647
I1
sVd10lvdl
p1648
I2
sVd9uc9g3
p1649
I1
sVd9aoh5c
p1650
I1
sVdtf2mtl
p1651
I1
sVdcbe0h2
p1652
I2
sVdt0t1h8
p1653
I1
sVdp18tf7
p1654
I1
sVd6e7iv2
p1655
I2
sVdkzmi58
p1656
I1
sVd684f0o
p1657
I1
sVd2kunst
p1658
I1
sVd46gpyd
p1659
I1
sVdgdh30v
p1660
I1
sVd5r6s8c
p1661
I1
sVd2rdfmh
p1662
I1
sVd6xdzcw
p1663
I1
sVdneb4dr
p1664
I2
sVd6hdjpc
p1665
I1
sVdbmzfn6
p1666
I1
sVdjgvg0b
p1667
I1
sVd2aeauq
p1668
I1
sVde827ah
p1669
I1
sVd73ujk4
p1670
I1
sVdcw58gt
p1671
I1
sVde57epx
p1672
I1
sVddokz8p
p1673
I1
sVdqw3zb4
p1674
I1
sVdfxm5bp
p1675
I1
sVcz5cl2q
p1676
I1
sVdndxi1s
p1677
I1
sVd1ajsvx
p1678
I1
sVczt51zo
p1679
I2
sVczv2kxm
p1680
I1
sVcz2nl3x
p1681
I1
sVdefqnv1
p1682
I1
sVde71818
p1683
I1
sVdkn0vc1
p1684
I1
sVdhngb2r
p1685
I1
sVdj0tiyj
p1686
I1
sVdhn8n5m
p1687
I1
sVd6jlijh
p1688
I1
sVdro2qpl
p1689
I2
sVd2hhxrz
p1690
I1
sVd1gi322
p1691
I1
sVdfhi05s
p1692
I2
sVd829iw9
p1693
I1
sVdko1q5x
p1694
I1
sVdp8981c
p1695
I1
sVdpqs9gn
p1696
I1
sVdqatwbq
p1697
I1
sVd9z3h6i
p1698
I1
sVdr1wzm9
p1699
I2
sVdftmj4r
p1700
I1
sVdczr6zw
p1701
I1
sVd6925s6
p1702
I1
sVd1pjiyu
p1703
I1
sVdeufemr
p1704
I1
sVcz7hspj
p1705
I2
sVdazdc50
p1706
I1
sVdj1l4xw
p1707
I1
sVd9lp8oy
p1708
I1
sVdffdsph
p1709
I1
sVdk2d3or
p1710
I1
sVcykynfk
p1711
I1
sVdjb7ll2
p1712
I1
sVdqyjm6n
p1713
I1
sVdc1def7
p1714
I1
sVdsfr556
p1715
I1
sVdsbiq9f
p1716
I1
sVdf0gom8
p1717
I1
sVczhd6aj
p1718
I1
sVczzw9qi
p1719
I1
sVd0xeooi
p1720
I1
sVdqsfb85
p1721
I1
sVd4g3ddg
p1722
I1
sVd73u08r
p1723
I1
sVddhcja1
p1724
I1
sVd2lb8hn
p1725
I1
sVdbp4z8a
p1726
I1
sVdewtibp
p1727
I2
sVd5a5vty
p1728
I1
sVd4rpv5z
p1729
I4
sVdjymo1m
p1730
I1
sVdas8nwv
p1731
I1
sVd8f53qg
p1732
I1
sVczzp62a
p1733
I1
sVdazq1je
p1734
I1
sVdhjxoml
p1735
I1
sVd1pwp2l
p1736
I1
sVdmjv64q
p1737
I1
sVdhknomd
p1738
I3
sVdaxc44w
p1739
I1
sVdjgs9fi
p1740
I1
sVda3ejek
p1741
I1
sVd59lf9a
p1742
I1
sVd0gvx7y
p1743
I1
sVczg8vbv
p1744
I1
sVd49ltlj
p1745
I1
sVdifqzb8
p1746
I1
sVdjy7mcs
p1747
I1
sVdb5eo2m
p1748
I1
sVdikna7d
p1749
I1
sVd9atlz7
p1750
I1
sVd6q84fo
p1751
I1
sVdsmiebb
p1752
I1
sVd1l3ktn
p1753
I1
sVdaieo8n
p1754
I1
sVdkutdsw
p1755
I1
sVds2hujn
p1756
I1
sVddscibm
p1757
I1
sVdqglr58
p1758
I1
sVd9szfjt
p1759
I1
sVd0nc5ah
p1760
I1
sVd22ct1n
p1761
I1
sVcyovsdm
p1762
I1
sVdi6mcns
p1763
I2
sVd2pxvgc
p1764
I2
sVddj8af9
p1765
I1
sVdmsa8xb
p1766
I1
sVd7to5vm
p1767
I1
sVd7rxsfa
p1768
I1
sVd3nxf4h
p1769
I1
sVd24h8j7
p1770
I1
sVdcflpqy
p1771
I2
sVdexl7jd
p1772
I1
sVd68l6y0
p1773
I1
sVdim3op3
p1774
I1
sVdiobj0c
p1775
I1
sVdgc9qwz
p1776
I1
sVdjbpz3w
p1777
I1
sVd3jvu0i
p1778
I1
sVdaxcywn
p1779
I1
sVda3zyy8
p1780
I6
sVd10ti1r
p1781
I1
sVdbeio77
p1782
I1
sVdprho4l
p1783
I1
sVdob4pk7
p1784
I1
sVd1t9m2m
p1785
I1
sVd42kf5j
p1786
I1
sVd6sjjk1
p1787
I1
sVdkft57k
p1788
I1
sVdpofmha
p1789
I1
sVdhoenvh
p1790
I1
sVdek37y5
p1791
I1
sVd1v8r78
p1792
I1
sVdehrfua
p1793
I1
sVd8ql3i6
p1794
I1
sVd46dms5
p1795
I1
sVdn4imyo
p1796
I1
sVd1dnkbk
p1797
I1
sVdrwpt09
p1798
I1
sVdkofbjr
p1799
I1
sVdg2nyd7
p1800
I1
sVds2cxm5
p1801
I1
sVdn07xtp
p1802
I2
sVdczao7k
p1803
I1
sVdjqqmsg
p1804
I1
sVdpsws2y
p1805
I1
sVdqfxjtb
p1806
I1
sVdiu52su
p1807
I1
sVd1wobeb
p1808
I1
sVdmsu5px
p1809
I1
sVdrga2pq
p1810
I2
sVdbidvj1
p1811
I1
sVd1v7ihc
p1812
I1
sVd20a05s
p1813
I2
sVd50lsnz
p1814
I2
sVddvv4rv
p1815
I2
sVdax9vaa
p1816
I1
sVd2js5c0
p1817
I1
sVdfv0a7e
p1818
I3
sVd2g4lrj
p1819
I3
sVdduhkb7
p1820
I1
sVd05v6xh
p1821
I1
sVdkyg0lh
p1822
I1
sVdkpzp9f
p1823
I2
sVczt19sn
p1824
I1
sVdnoqwsz
p1825
I1
sVdb8wfil
p1826
I1
sVdfbecwi
p1827
I1
sVd6rsgjs
p1828
I1
sVcykcgnx
p1829
I1
sVdjpwuxr
p1830
I1
sVdfzb6ng
p1831
I1
sVd4ps6x7
p1832
I1
sVczfpkxk
p1833
I1
sVd1pd0mq
p1834
I1
sVd7pz1s1
p1835
I2
sVdofnyk1
p1836
I1
sVcyoxqqi
p1837
I1
sVdk1hhpl
p1838
I2
sVd79e62v
p1839
I1
sVdg9uks6
p1840
I1
sVdb4v8f4
p1841
I1
sVd1qg90n
p1842
I1
sVd0kllti
p1843
I1
sVd3363jb
p1844
I1
sVd72xvo8
p1845
I1
sVd0nw4a1
p1846
I1
sVdms3j9q
p1847
I1
sVdplyfgd
p1848
I1
sVd1h810v
p1849
I1
sVd7hkzfi
p1850
I1
sVdoree68
p1851
I1
sVd45vt65
p1852
I1
sVcyyt5ch
p1853
I1
sVd3cs4tc
p1854
I1
sVdb32ghq
p1855
I3
sVd6npqef
p1856
I1
sVdjm9njy
p1857
I1
sVcz1z2lj
p1858
I1
sVd2dvsjh
p1859
I1
sVdj0l1b6
p1860
I1
sVdijbagv
p1861
I1
sVcyhx7k2
p1862
I1
sVcysdyxy
p1863
I1
sVcz86qya
p1864
I2
sVdrliyhf
p1865
I2
sVdh0mxgz
p1866
I1
sVdkusp9t
p1867
I1
sVdhm8avk
p1868
I1
sVd1gk3ij
p1869
I1
sVdfdnl1y
p1870
I1
sVd2i8t6r
p1871
I2
sVdcezi72
p1872
I2
sVdj032f8
p1873
I1
sVcz1ffmm
p1874
I1
sVdoeg5wh
p1875
I1
sVczkkaqw
p1876
I1
sVd089wed
p1877
I1
sVdazygxl
p1878
I1
sVd40zoug
p1879
I1
sVdhqu20b
p1880
I1
sVdggyrks
p1881
I1
sVd11jbb9
p1882
I1
sVd0m7slb
p1883
I1
sVdnkklo2
p1884
I1
sVdmufs5l
p1885
I1
sVd2ussf4
p1886
I1
sVd2pv90y
p1887
I1
sVcysv7v3
p1888
I1
sVd5f1k99
p1889
I1
sVdjox47j
p1890
I1
sVczjoz37
p1891
I1
sVddtuuxp
p1892
I1
sVdjjhdmi
p1893
I1
sVdrz07pu
p1894
I1
sVcynh6ff
p1895
I2
sVd13zggk
p1896
I3
sVd3z84ay
p1897
I1
sVd2eso9g
p1898
I1
sVd8djqz3
p1899
I1
sVd2mtxkz
p1900
I2
sVcywkdfd
p1901
I1
sVdj6xj5z
p1902
I1
sVdiaz3ug
p1903
I1
sVd5kt2k1
p1904
I1
sVczdk41l
p1905
I1
sVd5rehsb
p1906
I1
sVd8yjy95
p1907
I1
sVd2oaeuz
p1908
I1
sVddchf8a
p1909
I1
sVdst46ln
p1910
I1
sVdhzuegv
p1911
I1
sVdbesxgl
p1912
I2
sVd0iuem9
p1913
I1
sVd9fk9r2
p1914
I1
sVcz74ucw
p1915
I1
sVd437lhs
p1916
I1
sVdmfvbox
p1917
I1
sVdq8mmlb
p1918
I1
sVcyntmzl
p1919
I1
sVdguxmma
p1920
I1
sVdknub6d
p1921
I1
sVdqf0kv5
p1922
I1
sVdre382c
p1923
I1
sVd1wdpld
p1924
I1
sVd08lqj8
p1925
I1
sVdhrkras
p1926
I1
sVd54vpyj
p1927
I1
sVczsn7bw
p1928
I1
sVd616bgu
p1929
I1
sVdcm5kas
p1930
I1
sVd430p0x
p1931
I2
sVds9r4kh
p1932
I1
sVd6fdg36
p1933
I1
sVdawpif5
p1934
I1
sVd3hxdkh
p1935
I1
sVd9917zz
p1936
I1
sVdgjr6lr
p1937
I1
sVdhdrjtu
p1938
I1
sVd6e7guh
p1939
I3
sVdkigfbp
p1940
I1
sVdec08ib
p1941
I1
sVdgec2le
p1942
I1
sVd6zo5r7
p1943
I1
sVczogt5w
p1944
I1
sVd4u7h28
p1945
I2
sVd0rlg74
p1946
I1
sVdo0v03c
p1947
I1
sVddg37cl
p1948
I1
sVddrn8kg
p1949
I1
sVdqp3msm
p1950
I2
sVcz157sg
p1951
I1
sVd5fqyy3
p1952
I1
sVd2bxv0q
p1953
I1
sVd5lzppa
p1954
I1
sVdo86ffe
p1955
I1
sVdimdzdl
p1956
I1
sVd3yr6vr
p1957
I1
sVdk9yvh2
p1958
I1
sVd0nkrux
p1959
I1
sVdgcdf5g
p1960
I1
sVczwjrvf
p1961
I1
sVd23u14j
p1962
I1
sVdamyyhm
p1963
I1
sVd9k9w8j
p1964
I1
sVdiqzmvt
p1965
I2
sVdowe3x9
p1966
I1
sVd7q7as3
p1967
I1
sVde4zbf3
p1968
I1
sVdmn30oh
p1969
I1
sVdgs67bg
p1970
I1
sVd8lktkr
p1971
I1
sVdopni6w
p1972
I1
sVd3ezxnt
p1973
I2
sVdpcicbk
p1974
I1
sVdip9y9y
p1975
I1
sVd4za65l
p1976
I1
sVdhiuo8f
p1977
I1
sVdf6q3g3
p1978
I1
sVd2uzqb7
p1979
I1
sVd305hxo
p1980
I1
sVd01cd2b
p1981
I1
sVd3a7x8s
p1982
I1
sVd4fzxx1
p1983
I1
sVdqn21vr
p1984
I1
sVdh6568p
p1985
I1
sVdhngo3l
p1986
I1
sVdqnr1kl
p1987
I1
sVda0qjcb
p1988
I1
sVd2v6wxz
p1989
I1
sVd4344au
p1990
I1
sVdcciw1m
p1991
I1
sVd4gpbs3
p1992
I1
sVd1w88pr
p1993
I1
sVcyu6ixe
p1994
I1
sVdgyagpt
p1995
I1
sVdkn9e5q
p1996
I1
sVdf55qv0
p1997
I1
sVdcm0rzu
p1998
I1
sVde0csvt
p1999
I2
sVdeuywfn
p2000
I1
sVdszll4s
p2001
I2
sVdtg540b
p2002
I1
sVd13zr84
p2003
I1
sVds7wiuc
p2004
I1
sVdad4dic
p2005
I1
sVd14lvc8
p2006
I1
sVd6zj7ze
p2007
I1
sVdbor49e
p2008
I1
sVdgy9lwa
p2009
I1
sVddnqmxv
p2010
I1
sVdf6h75c
p2011
I1
sVd5hyvvn
p2012
I1
sVdgoe57s
p2013
I1
sVd4odjcn
p2014
I1
sVd5vt4fb
p2015
I2
sVd8vzklu
p2016
I1
sVczkbc83
p2017
I1
sVdfyusm8
p2018
I1
sVd9vk4rx
p2019
I1
sVd4hg9t1
p2020
I1
sVd7cjvic
p2021
I1
sVd081ves
p2022
I3
sVd42imwh
p2023
I2
sVd88l2u5
p2024
I1
sVdmi5un3
p2025
I1
sVdi3unpj
p2026
I1
sVdoud9zo
p2027
I4
sVddnebhp
p2028
I1
sVdc6fs53
p2029
I3
sVd3uettv
p2030
I1
sVddia8dw
p2031
I1
sVdn8xmq4
p2032
I1
sVd100ne2
p2033
I1
sVds3hr6s
p2034
I6
sVda1lnw9
p2035
I2
sVd7zw21s
p2036
I2
sVd08yxvo
p2037
I1
sVdiy98hx
p2038
I1
sVcyr6ete
p2039
I1
sVd89mru5
p2040
I1
sVd1wkhic
p2041
I1
sVd8vhmgf
p2042
I1
sVd0oc5vi
p2043
I1
sVdg3k4en
p2044
I1
sVd5s305d
p2045
I1
sVd5kh4ts
p2046
I1
sVd2pjwg2
p2047
I1
sVdin29qa
p2048
I1
sVddt86sv
p2049
I1
sVdajr1op
p2050
I1
sVd4ompqv
p2051
I1
sVdbuxo0k
p2052
I1
sVdeg9amp
p2053
I1
sVd27ahf4
p2054
I1
sVdkfz07b
p2055
I1
sVd01g5an
p2056
I2
sVdkn6abc
p2057
I1
sVdn0w21h
p2058
I2
sVcymgwb0
p2059
I1
sVdgz7ygf
p2060
I1
sVd919mlu
p2061
I1
sVda8p503
p2062
I1
sVdb10x8t
p2063
I1
sVczs30q1
p2064
I1
sVdbn1l4c
p2065
I2
sVdagiznb
p2066
I3
sVddxy3wc
p2067
I1
sVdaqe92f
p2068
I2
sVdantdlk
p2069
I1
sVdhntz4d
p2070
I1
sVdo51u5n
p2071
I1
sVdeakfcv
p2072
I1
sVd3urax3
p2073
I1
sVd9j9z9x
p2074
I1
sVd38ezai
p2075
I1
sVd21qxmv
p2076
I1
sVd2w9c6c
p2077
I1
sVdj6xgip
p2078
I1
sVdt3c935
p2079
I1
sVd64tr28
p2080
I1
sVdjip93n
p2081
I1
sVd39dq0l
p2082
I1
sVd3vhqah
p2083
I1
sVdei3dj3
p2084
I1
sVd1rpedt
p2085
I1
sVd1qud9s
p2086
I1
sVd7p3jzg
p2087
I1
sVdec086q
p2088
I1
sVd08ssy7
p2089
I1
sVdt82zkj
p2090
I1
sVdrb6rje
p2091
I1
sVde0g778
p2092
I1
sVdh868lf
p2093
I1
sVdhq5dar
p2094
I2
sVdhr4eke
p2095
I1
sVd8q4ktb
p2096
I1
sVdbwza48
p2097
I2
sVd1o0pgc
p2098
I1
sVd9jz44p
p2099
I1
sVd7b0sbn
p2100
I1
sVd5gklni
p2101
I1
sVdccf9se
p2102
I1
sVdexqcdy
p2103
I1
sVd3n621v
p2104
I1
sVd3946t4
p2105
I2
sVd81aefo
p2106
I1
sVdhfn3ef
p2107
I2
sVd1rsp2z
p2108
I2
sVdkc5gnt
p2109
I1
sVdjuwpch
p2110
I1
sVdiqgz3k
p2111
I1
sVdjocl1p
p2112
I1
sVdkjpq0g
p2113
I1
sVdgpx357
p2114
I2
sVddi5lg6
p2115
I1
sVdmf51m9
p2116
I1
sVdk5n7rw
p2117
I1
sVdosui60
p2118
I1
sVdjzzj71
p2119
I1
sVd21gtca
p2120
I1
sVdawf7dv
p2121
I1
sVdswwt39
p2122
I3
sVd24948i
p2123
I1
sVd5bytqg
p2124
I1
sVdrau8dp
p2125
I1
sVddzdetp
p2126
I1
sVd0mg44c
p2127
I1
sVdbhkvxo
p2128
I1
sVd0goazk
p2129
I1
sVd39iytr
p2130
I1
sVd8on8n7
p2131
I1
sVd0s7psw
p2132
I1
sVdqgz7sz
p2133
I2
sVdj6vd22
p2134
I1
sVdezusla
p2135
I1
sVd8kpo6h
p2136
I1
sVdgwrb6y
p2137
I1
sVdhmng51
p2138
I2
sVda58xsb
p2139
I1
sVdcvq2sf
p2140
I1
sVd4xxrsv
p2141
I1
sVdns1pz9
p2142
I1
sVcyjv4zq
p2143
I1
sVdbeius0
p2144
I1
sVd052eds
p2145
I1
sVcysuoo6
p2146
I1
sVdig1ftw
p2147
I1
sVdf169a5
p2148
I1
sVds5rx47
p2149
I1
sVd095roh
p2150
I1
sVdfic87t
p2151
I2
sVd597752
p2152
I2
sVczl2i4r
p2153
I1
sVdr4qtbt
p2154
I1
sVdikj3tz
p2155
I1
sVdqxkgue
p2156
I1
sVdgldxoz
p2157
I1
sVd5bj3x9
p2158
I3
sVd1dzqdl
p2159
I1
sVd917sq0
p2160
I1
sVd1ulpdo
p2161
I1
sVdcw61ei
p2162
I1
sVdjn4855
p2163
I1
sVdbjralv
p2164
I2
sVdd0l4sj
p2165
I2
sVdcbbbie
p2166
I1
sVdhudndv
p2167
I1
sVd6uxllk
p2168
I1
sVdi3nrsn
p2169
I1
sVd358437
p2170
I1
sVcznlbia
p2171
I1
sVdejhfde
p2172
I1
sVdjuq0fz
p2173
I1
sVd2gyi5z
p2174
I1
sVd9mheq3
p2175
I2
sVd13zefh
p2176
I1
sVd49zwul
p2177
I1
sVdspb5kr
p2178
I1
sVdkoaq15
p2179
I1
sVdauh9cz
p2180
I1
sVdoxm85w
p2181
I1
sVd10eqn7
p2182
I1
sVdermjgf
p2183
I1
sVdbtmi7y
p2184
I1
sVdhtis1n
p2185
I1
sVdatn4ek
p2186
I1
sVd0hrevi
p2187
I1
sVcz7c657
p2188
I1
sVdauobmb
p2189
I2
sVdhrbwc5
p2190
I2
sVdqu13xx
p2191
I1
sVdcuhvvi
p2192
I1
sVdd7p3ll
p2193
I1
sVcyshtgp
p2194
I1
sVdhewsom
p2195
I2
sVdi2w5et
p2196
I1
sVczkwsbd
p2197
I1
sVddw879r
p2198
I3
sVdam1qtz
p2199
I1
sVcyoap0s
p2200
I1
sVd5zl4bi
p2201
I1
sVd0su618
p2202
I1
sVddsb38i
p2203
I1
sVd9eo4a2
p2204
I1
sVczehoqx
p2205
I1
sVd0tsirf
p2206
I1
sVd5nlsqr
p2207
I1
sVd9cf6vl
p2208
I1
sVdmfcv2e
p2209
I1
sVda0w8gy
p2210
I1
sVdnmajq0
p2211
I2
sVd0xn5qt
p2212
I1
sVczf0hqc
p2213
I1
sVcyozwtr
p2214
I2
sVd8edjky
p2215
I1
sVdsliifv
p2216
I2
sVdrp379v
p2217
I4
sVdjna76b
p2218
I1
sVd7ntbjq
p2219
I1
sVdn8h8h8
p2220
I1
sVd94sth7
p2221
I1
sVdao1ene
p2222
I2
sVd4ugxcs
p2223
I1
sVdipl9dy
p2224
I2
sVd8ec6gt
p2225
I1
sVdj5zrxq
p2226
I3
sVdgwpfht
p2227
I1
sVddnaeg0
p2228
I3
sVd09cl6m
p2229
I2
sVdheufe0
p2230
I2
sVdi6r6u7
p2231
I1
sVdb53650
p2232
I1
sVd9z2p6d
p2233
I2
sVdps6fzs
p2234
I2
sVcyosb6x
p2235
I1
sVd09ijpm
p2236
I1
sVd131nw2
p2237
I1
sVd9aytgt
p2238
I1
sVdedrfcg
p2239
I2
sVdfconvg
p2240
I1
sVczh0234
p2241
I1
sVddvj4v0
p2242
I1
sVddji3os
p2243
I1
sVd3u6tyl
p2244
I1
sVd1sguu0
p2245
I1
sVd8p14rn
p2246
I4
sVdhh8qto
p2247
I1
sVdhewdw0
p2248
I1
sVdmsh64o
p2249
I1
sVdn90hdu
p2250
I1
sVddzh4wr
p2251
I1
sVdhwisgs
p2252
I1
sVdhnc0jv
p2253
I1
sVczmv79y
p2254
I1
sVdeh02tw
p2255
I1
sVdclxtd9
p2256
I2
sVd7ex1j0
p2257
I1
sVcyl3fta
p2258
I1
sVd87awhc
p2259
I1
sVd572bno
p2260
I1
sVdegiqyq
p2261
I3
sVd3btndh
p2262
I1
sVdg9gi4n
p2263
I1
sVdpw8e31
p2264
I1
sVd1tlqds
p2265
I1
sVd91t73k
p2266
I1
sVd0i5zc5
p2267
I1
sVd3w756l
p2268
I1
sVd85wioj
p2269
I1
sVd13he7j
p2270
I1
sVdi98ov3
p2271
I1
sVdnybger
p2272
I1
sVdgiu2cm
p2273
I1
sVdsb9k4m
p2274
I1
sVddptz9k
p2275
I1
sVdns9w9c
p2276
I1
sVddh6fjd
p2277
I1
sVdqlvrfw
p2278
I1
sVd9t5vxy
p2279
I1
sVdfac5kc
p2280
I2
sVdnm9t10
p2281
I1
sVdgpccv3
p2282
I1
sVdbdh9gi
p2283
I1
sVd2tgd3l
p2284
I1
sVd2qatt3
p2285
I1
sVd1raffv
p2286
I1
sVdbblu85
p2287
I1
sVd3bccwn
p2288
I2
sVd55o1cc
p2289
I1
sVdhixr0x
p2290
I3
sVdhjf91x
p2291
I1
sVd5f8lxa
p2292
I1
sVd3yjbp7
p2293
I1
sVdhlfdsa
p2294
I1
sVd1zgywv
p2295
I1
sVdbw4qdf
p2296
I1
sVdi1ya1v
p2297
I1
sVd33x1ks
p2298
I1
sVdtdw5uf
p2299
I1
sVdfoq5sn
p2300
I1
sVdt0u3l2
p2301
I1
sVd18t34p
p2302
I2
sVd3wiiso
p2303
I1
sVdch78cn
p2304
I1
sVdberb01
p2305
I1
sVdtbjvzs
p2306
I1
sVd1zd3wu
p2307
I2
sVdctacr6
p2308
I1
sVdb63e1a
p2309
I4
sVdqpf73f
p2310
I1
sVdqfu6g5
p2311
I1
sVd0pnyd5
p2312
I1
sVdrpxgyt
p2313
I1
sVd48d0xv
p2314
I1
sVdf3yqs8
p2315
I1
sVdjy802y
p2316
I1
sVdmw3p8f
p2317
I1
sVcz93kpn
p2318
I1
sVd8aayt4
p2319
I1
sVczsick1
p2320
I1
sVd5hbscz
p2321
I1
sVdqbwgb1
p2322
I1
sVdti8pvw
p2323
I2
sVd68p0ig
p2324
I1
sVdda4123
p2325
I1
sVd3ry0cj
p2326
I1
sVdf6c3wk
p2327
I2
sVdq6zs6u
p2328
I2
sVde9stir
p2329
I1
sVdb5azut
p2330
I1
sVd0xo7xf
p2331
I1
sVdha5740
p2332
I1
sVde7tklf
p2333
I1
sVd9k1vdx
p2334
I1
sVdjyizh6
p2335
I1
sVd1uo9o6
p2336
I1
sVdak33ob
p2337
I1
sVdp812bl
p2338
I1
sVdj3wy2y
p2339
I1
sVd8iw6hm
p2340
I1
sVdkfazfd
p2341
I1
sVd1czgq9
p2342
I2
sVdkkygcj
p2343
I1
sVd80653r
p2344
I1
sVd31ft6g
p2345
I1
sVdad8ebb
p2346
I1
sVdbj94u8
p2347
I1
sVdf3ou86
p2348
I1
sVdpac9za
p2349
I2
sVd5bhli6
p2350
I1
sVd1zjzhf
p2351
I2
sVdpy39ih
p2352
I1
sVd9yy03k
p2353
I1
sVdoyi3qf
p2354
I1
sVd1kzt9b
p2355
I1
sVcz7jaon
p2356
I1
sVdipuh27
p2357
I1
sVde0yk06
p2358
I1
sVd04nk17
p2359
I1
sVdmek6h0
p2360
I1
sVd618pjb
p2361
I1
sVdeujnxw
p2362
I1
sVddwvrma
p2363
I4
sVdafxhcr
p2364
I1
sVdg9r4p2
p2365
I1
sVd0u245s
p2366
I1
sVdk9r9fw
p2367
I1
sVddszdle
p2368
I1
sVdad6hu6
p2369
I1
sVdcn193v
p2370
I1
sVczsaqzn
p2371
I4
sVdjyxv99
p2372
I2
sVdcyhvik
p2373
I1
sVdf5dqbe
p2374
I1
sVdmz13w6
p2375
I1
sVd0snkn4
p2376
I1
sVd9jnpyb
p2377
I2
sVd8kvm2z
p2378
I1
sVd6lvta8
p2379
I1
sVdkocv6q
p2380
I1
sVd6sv8px
p2381
I3
sVd4m9e5z
p2382
I1
sVdbz3uzz
p2383
I1
sVdt0lmr8
p2384
I1
sVd6sh037
p2385
I1
sVde6c72a
p2386
I1
sVdenetjs
p2387
I1
sVdry4ys1
p2388
I1
sVd9pup51
p2389
I1
sVd25p61t
p2390
I1
sVdelky3s
p2391
I2
sVdev9nth
p2392
I1
sVd0ha2ze
p2393
I3
sVd4oa3kw
p2394
I1
sVd37q2j0
p2395
I1
sVdkbuwb6
p2396
I1
sVd97im55
p2397
I1
sVcz6noz7
p2398
I1
sVd645ypv
p2399
I1
sVdkv8dv2
p2400
I1
sVdhvt1wa
p2401
I1
sVdc2hc05
p2402
I1
sVd630z7d
p2403
I1
sVdk9pv13
p2404
I1
sVd4nvykx
p2405
I1
sVdh7fhvq
p2406
I2
sVdakpk68
p2407
I1
sVd303wtq
p2408
I1
sVdrozc37
p2409
I2
sVdfsm8ah
p2410
I1
sVdbrnhir
p2411
I1
sVdrwl49e
p2412
I1
sVdn2qerm
p2413
I1
sVdeltd8j
p2414
I7
sVddzn7nr
p2415
I1
sVdaf2v36
p2416
I2
sVd90kf39
p2417
I1
sVd8g5rqp
p2418
I1
sVdex3d8b
p2419
I1
sVd5ulkom
p2420
I1
sVddi29ko
p2421
I2
sVdejode2
p2422
I1
sVdfs8ye0
p2423
I5
sVd8lixgm
p2424
I1
sVdqap8yi
p2425
I1
sVcyy4pbc
p2426
I1
sVdfum3z8
p2427
I1
sVdcugm8t
p2428
I1
sVczmwhfp
p2429
I1
sVd2r4ar2
p2430
I1
sVdrt3lhy
p2431
I3
sVd95zrds
p2432
I1
sVd9fw1gn
p2433
I1
sVdhjt606
p2434
I1
sVczmrum4
p2435
I1
sVdd3ygj5
p2436
I1
sVdg3pe3m
p2437
I1
sVd8tjem0
p2438
I3
sVd027ygf
p2439
I4
sVdien2ri
p2440
I1
sVdqun5sa
p2441
I1
sVdmyr0xy
p2442
I1
sVczktsyd
p2443
I1
sVd9meda0
p2444
I2
sVd31rgop
p2445
I1
sVdfszkkc
p2446
I3
sVd5hoc8c
p2447
I1
sVderbpum
p2448
I1
sVdrlf7f1
p2449
I2
sVcyif314
p2450
I1
sVdkyql60
p2451
I1
sVdr5qx7z
p2452
I1
sVd57bjsn
p2453
I1
sVdtfshuy
p2454
I1
sVdsdk0mk
p2455
I1
sVdbseykv
p2456
I1
sVd7hhqwu
p2457
I1
sVd8bttsm
p2458
I3
sVd9j2x0u
p2459
I1
sVd18t1l6
p2460
I1
sVd3z67c5
p2461
I1
sVdpj82b9
p2462
I1
sVd5cf7ot
p2463
I1
sVdivece0
p2464
I1
sVdeopfru
p2465
I1
sVdekl2lr
p2466
I1
sVd34i5k3
p2467
I2
sVdtf1fgu
p2468
I1
sVdcgrth6
p2469
I1
sVdku235u
p2470
I1
sVdbc8olc
p2471
I1
sVddd53ap
p2472
I1
sVd6s8dws
p2473
I1
sVdp25jbh
p2474
I1
sVcyq533x
p2475
I2
sVderms9r
p2476
I1
sVddj7ejt
p2477
I1
sVd2u7brd
p2478
I1
sVczavspe
p2479
I1
sVdjzgd4r
p2480
I1
sVd53r373
p2481
I1
sVczevzda
p2482
I1
sVdg2cgaw
p2483
I1
sVdn8xidx
p2484
I1
sVd1k800j
p2485
I1
sVdf0h3qa
p2486
I1
sVdo4hrv8
p2487
I2
sVd7x1zyh
p2488
I1
sVczcng72
p2489
I1
sVdfz12bw
p2490
I1
sVd5w1cfy
p2491
I1
sVd2rit6j
p2492
I1
sVdbdyy2u
p2493
I2
sVdhj63c7
p2494
I1
sVd1d6hn6
p2495
I1
sVd8jsyh0
p2496
I1
sVd1vy6tj
p2497
I1
sVdedpnoe
p2498
I1
sVd7f4zxn
p2499
I1
sVd48ixiv
p2500
I1
sVczzxmqn
p2501
I1
sVd4oyc5w
p2502
I1
sVdn2v3lu
p2503
I1
sVd32hffd
p2504
I1
sVdcw0zxy
p2505
I1
sVdip2m8x
p2506
I1
sVdckw3c8
p2507
I1
sVdbngwpj
p2508
I1
sVdpzho4f
p2509
I1
sVdal1xk0
p2510
I1
sVd3ni6dw
p2511
I1
sVdmvqm5y
p2512
I1
sVd6jdwdy
p2513
I1
sVd7fg1qj
p2514
I1
sVdcm6cgy
p2515
I1
sVcz4t7v1
p2516
I1
sVdfxy0sb
p2517
I2
sVdnkin33
p2518
I1
sVd82pc4s
p2519
I2
sVdn6r3fw
p2520
I1
sVdb2wkfk
p2521
I1
sVdk7iht3
p2522
I1
sVdo2pvgb
p2523
I1
sVdql8azu
p2524
I1
sVd9f9cyz
p2525
I2
sVdiaxq1n
p2526
I1
sVd1evpso
p2527
I1
sVdh637gt
p2528
I1
sVdo24fr4
p2529
I1
sVdf5s9fm
p2530
I1
sVd67q89y
p2531
I1
sVd1kutzf
p2532
I1
sVdf1skv6
p2533
I1
sVd3ox9sx
p2534
I1
sVd149hn1
p2535
I1
sVd6ksaec
p2536
I1
sVdk1kxmt
p2537
I1
sVd6t70dh
p2538
I1
sVdbu0joj
p2539
I1
sVd21abdw
p2540
I1
sVd26mnq4
p2541
I1
sVd2x0o99
p2542
I1
sVd4nblwq
p2543
I1
sVdgf3liv
p2544
I2
sVdd3m3mt
p2545
I1
sVdetxy23
p2546
I1
sVdkn8gmz
p2547
I1
sVdaqkcey
p2548
I1
sVdadqqs0
p2549
I1
sVd2gp5sr
p2550
I1
sVd7cekkl
p2551
I4
sVdsy8mwi
p2552
I1
sVddc52gs
p2553
I1
sVdox4igz
p2554
I2
sVda0dpo4
p2555
I1
sVcyldgzm
p2556
I1
sVd235gs9
p2557
I1
sVd07civ8
p2558
I1
sVd5cg3nc
p2559
I1
sVd9ewpvx
p2560
I1
sVdg4vu43
p2561
I1
sVd20jdsa
p2562
I1
sVdfs01vy
p2563
I1
sVdsid5fu
p2564
I1
sVd50r33u
p2565
I3
sVd2zo0bh
p2566
I1
sVd9a44fe
p2567
I1
sVd0nmzcv
p2568
I1
sVdb9h6a1
p2569
I1
sVdezyole
p2570
I1
sVdqngmlu
p2571
I1
sVd3ps3ip
p2572
I1
sVdtf6lx2
p2573
I3
sVdds2xtf
p2574
I1
sVdb0maug
p2575
I1
sVdmhpp3a
p2576
I1
sVdgb69ba
p2577
I1
sVdaus13r
p2578
I1
sVczsluqq
p2579
I1
sVd4gqcmz
p2580
I1
sVdg3qqxr
p2581
I1
sVd8qpt6b
p2582
I2
sVd3csg9u
p2583
I1
sVd22jlfh
p2584
I1
sVd15lij2
p2585
I1
sVdcmpevf
p2586
I1
sVd03da3c
p2587
I2
sVdp30lcw
p2588
I1
sVd5h97an
p2589
I1
sVdeo9bj2
p2590
I1
sVds3n87q
p2591
I1
sVdqa5igw
p2592
I1
sVdcq6yyw
p2593
I1
sVdg69tic
p2594
I2
sVdedyfib
p2595
I1
sVdcbja9x
p2596
I1
sVdtdx9zy
p2597
I2
sVdqw6g9o
p2598
I1
sVd9vkkmz
p2599
I1
sVczzrv8y
p2600
I1
sVd0kjx4q
p2601
I1
sVczgfaj8
p2602
I1
sVdqymicc
p2603
I1
sVdk67jyy
p2604
I1
sVd8hm615
p2605
I1
sVdsfciut
p2606
I1
sVd3u66tk
p2607
I1
sVd01kzjp
p2608
I1
sVdb33wgu
p2609
I1
sVdr0qwv1
p2610
I1
sVd7rihwo
p2611
I1
sVd7yykcu
p2612
I3
sVdf0zt68
p2613
I1
sVdbwt2bw
p2614
I2
sVdq7zobn
p2615
I1
sVdbc6k4g
p2616
I1
sVd9mm9xx
p2617
I1
sVdcyjr61
p2618
I2
sVdj6o05j
p2619
I1
sVddyd5tw
p2620
I1
sVdkfzjwm
p2621
I1
sVd02qtzv
p2622
I1
sVdft9mo9
p2623
I1
sVdeludyg
p2624
I1
sVd7xqzmp
p2625
I1
sVcztsjox
p2626
I1
sVdknn4k5
p2627
I1
sVdmqvx54
p2628
I1
sVd999pu2
p2629
I2
sVdmpu1ef
p2630
I1
sVd9z3lwh
p2631
I4
sVd6g49mk
p2632
I1
sVdjxy1uj
p2633
I1
sVd4fer55
p2634
I1
sVde35lio
p2635
I1
sVczwkg0k
p2636
I1
sVdhsgcjz
p2637
I1
sVd8xxvqo
p2638
I1
sVdilht6q
p2639
I1
sVd5my79f
p2640
I2
sVdgvxtwo
p2641
I1
sVda20atn
p2642
I1
sVdcjxrz5
p2643
I1
sVde5fcmg
p2644
I1
sVdk73quq
p2645
I1
sVdsx7myj
p2646
I1
sVdmfiqmx
p2647
I2
sVd7ev3p5
p2648
I1
sVd7kmfd8
p2649
I1
sVd7uc5sq
p2650
I1
sVd62fqiz
p2651
I2
sVczn0pkb
p2652
I1
sVcytpkuf
p2653
I1
sVdo5wo5r
p2654
I1
sVdqedb1a
p2655
I1
sVdkbr1mz
p2656
I2
sVdmeiuzw
p2657
I3
sVd9sl40n
p2658
I1
sVd9vkdes
p2659
I1
sVd695hss
p2660
I1
sVcz6b1jw
p2661
I1
sVd6hqdm2
p2662
I1
sVdspzagf
p2663
I1
sVd0dq45r
p2664
I2
sVdagqnhy
p2665
I2
sVd234lp8
p2666
I1
sVdhmphkh
p2667
I1
sVd0hry50
p2668
I1
sVdoaa8vf
p2669
I1
sVd2croeq
p2670
I1
sVd0ta4e4
p2671
I1
sVdeity9o
p2672
I1
sVd9nf18y
p2673
I1
sVd35t91f
p2674
I2
sVdmn28zp
p2675
I1
sVd0hsggs
p2676
I1
sVd2tecap
p2677
I1
sVdojp6op
p2678
I6
sVd5s71tw
p2679
I2
sVdpqf0iy
p2680
I1
sVd5gprw9
p2681
I1
sVd2doqe9
p2682
I1
sVd0wyujw
p2683
I1
sVd13khua
p2684
I1
sVdd8rfo9
p2685
I4
sVdd2yg9n
p2686
I1
sVdemjuhm
p2687
I1
sVdi7o82v
p2688
I3
sVd55kg5m
p2689
I1
sVdt1xkhd
p2690
I1
sVdng4ck7
p2691
I1
sVd2fir0p
p2692
I1
sVdkivh2m
p2693
I1
sVdb3qep8
p2694
I1
sVdjq9lbt
p2695
I1
sVdps5opk
p2696
I1
sVczarvl7
p2697
I1
sVdsvrt9b
p2698
I1
sVcykkrxi
p2699
I1
sVddx2an1
p2700
I1
sVdelvuzf
p2701
I1
sVd93m0j8
p2702
I2
sVde7jak8
p2703
I1
sVd7qp4ev
p2704
I1
sVd8enudr
p2705
I2
sVd7gb11o
p2706
I1
sVd8grjtd
p2707
I1
sVd0ild3d
p2708
I2
sVdq0363q
p2709
I1
sVdsccn10
p2710
I1
sVdssvv2l
p2711
I1
sVd3c4yc4
p2712
I1
sVdgx7kgn
p2713
I1
sVdp8xco0
p2714
I1
sVd17aoax
p2715
I1
sVdik9ccq
p2716
I1
sVd0m8hah
p2717
I3
sVd7knsox
p2718
I1
sVd1v6oqe
p2719
I1
sVcyzlklr
p2720
I1
sVd8iwcvt
p2721
I1
sVcyuj0hr
p2722
I1
sVd8xzcqz
p2723
I1
sVd3i0ijl
p2724
I1
sVdcj9z8o
p2725
I1
sVda1vprx
p2726
I1
sVd6g1vpn
p2727
I1
sVd8pzo1u
p2728
I1
sVdh7nlzr
p2729
I1
sVdo9geal
p2730
I1
sVdfbxxjt
p2731
I1
sVdp3bde6
p2732
I1
sVda3leqv
p2733
I1
sVdfa8uaz
p2734
I1
sVd3l88nj
p2735
I1
sVdkiiquv
p2736
I1
sVdsn6ahw
p2737
I1
sVdf2utkg
p2738
I1
sVdmtav3n
p2739
I1
sVdbpudre
p2740
I1
sVdewfyb3
p2741
I1
sVd0h3g2s
p2742
I1
sVcyti4oi
p2743
I1
sVdb8avh7
p2744
I1
sVdh7z1kq
p2745
I1
sVd32krpz
p2746
I1
sVdivrahw
p2747
I1
sVdocu8yf
p2748
I1
sVdjou3d7
p2749
I1
sVczcvsii
p2750
I1
sVd8xi12w
p2751
I1
sVdo4z2k2
p2752
I1
sVdeltiys
p2753
I3
sVdfovwgs
p2754
I1
sVdh7cdhz
p2755
I1
sVd39yf9y
p2756
I1
sVdown4ut
p2757
I1
sVd7i6zly
p2758
I1
sVdi336h9
p2759
I2
sVdcu9psw
p2760
I1
sVd0l7q98
p2761
I1
sVd37uxa2
p2762
I1
sVdqmy9z8
p2763
I1
sVd7m3iyd
p2764
I1
sVcys79ad
p2765
I2
sVdrum98u
p2766
I1
sVd1ju0th
p2767
I1
sVdim6jbp
p2768
I1
sVde2z07v
p2769
I1
sVdbelw21
p2770
I1
sVdfc74eg
p2771
I2
sVd1i4fup
p2772
I1
sVdhz87h6
p2773
I1
sVdh8wjdy
p2774
I1
sVd48jwle
p2775
I1
sVd10m0ym
p2776
I2
sVd71om97
p2777
I1
sVdp6nebe
p2778
I1
sVcztpecm
p2779
I1
sVdgcz5qd
p2780
I1
sVd11jsqz
p2781
I1
sVd1task8
p2782
I1
sVd342lu0
p2783
I1
sVdhfc822
p2784
I2
sVd59sbs7
p2785
I1
sVdk9t784
p2786
I1
sVczimxei
p2787
I1
sVd125cev
p2788
I2
sVda2ku9y
p2789
I1
sVdp717qz
p2790
I1
sVczrtefd
p2791
I1
sVd6rth0s
p2792
I1
sVdcev5co
p2793
I1
sVddr0yxr
p2794
I1
sVdfqhbey
p2795
I1
sVd86n232
p2796
I1
sVdi2bzle
p2797
I1
sVdthjq33
p2798
I1
sVdg6a9xn
p2799
I1
sVdffy4im
p2800
I1
sVd3xqnn1
p2801
I1
sVdf1buv5
p2802
I1
sVdksm6ng
p2803
I1
sVdoj2xmu
p2804
I1
sVd71s64y
p2805
I1
sVddzzeuu
p2806
I1
sVdhr3toi
p2807
I1
sVd092ewe
p2808
I1
sVdgimiyf
p2809
I1
sVdtdzsoj
p2810
I1
sVddcllp1
p2811
I1
sVdgdyj7p
p2812
I1
sVdp5kbww
p2813
I1
sVcz6ghbr
p2814
I1
sVdsf6t11
p2815
I1
sVdijkiz7
p2816
I2
sVd4q4xc2
p2817
I1
sVd9hl3qe
p2818
I1
sVdca7w9b
p2819
I1
sVd3qqopz
p2820
I1
sVd87yxkh
p2821
I1
sVda447wr
p2822
I1
sVdgo85fk
p2823
I2
sVdefp2mg
p2824
I1
sVd0ibk6s
p2825
I1
sVd5l1x2a
p2826
I1
sVd22j77v
p2827
I1
sVd0071hn
p2828
I2
sVd96lzii
p2829
I1
sVdj5bck2
p2830
I1
sVdoiatkh
p2831
I1
sVd7dy552
p2832
I1
sVd39ikj1
p2833
I2
sVdfwv789
p2834
I1
sVd642bkw
p2835
I1
sVczbq05e
p2836
I1
sVdiioap8
p2837
I1
sVd3y3cni
p2838
I1
sVdcbgehj
p2839
I2
sVdr3q6g3
p2840
I1
sVdhv1488
p2841
I1
sVdklp716
p2842
I1
sVdahq8j1
p2843
I1
sVd83uvsc
p2844
I2
sVdn651yh
p2845
I1
sVdd2w3l2
p2846
I1
sVd6db3fr
p2847
I1
sVd044dh7
p2848
I1
sVd0cjtju
p2849
I1
sVdji0qoz
p2850
I1
sVd364gri
p2851
I1
sVcyxx2xh
p2852
I1
sVd2i5u3y
p2853
I1
sVdsabvpd
p2854
I1
sVd9f244o
p2855
I1
sVcyweuv6
p2856
I1
sVdbpqchm
p2857
I1
sVdak7pmi
p2858
I1
sVd5w9dna
p2859
I1
sVczvf5od
p2860
I1
sVd7vgtsz
p2861
I1
sVd0ztnvs
p2862
I1
sVd7gs3mq
p2863
I1
sVdsotn72
p2864
I1
sVdjc1xqr
p2865
I2
sVd1qsw6z
p2866
I1
sVd729ocu
p2867
I1
sVcz4kdfg
p2868
I1
sVds3i8ah
p2869
I1
sVdhsw5hg
p2870
I1
sVdr00jyp
p2871
I1
sVdtgdgqv
p2872
I1
sVdgsybq1
p2873
I1
sVdjyfjv7
p2874
I1
sVdbsrg8f
p2875
I1
sVdd3era7
p2876
I1
sVdciv6wx
p2877
I1
sVdeeveyo
p2878
I1
sVdbz9vay
p2879
I1
sVd2s48sr
p2880
I3
sVd7pp7ep
p2881
I2
sVd135tw8
p2882
I1
sVdhw2n5c
p2883
I1
sVdro9czm
p2884
I1
sVdb6v7ia
p2885
I1
sVd1o1nj2
p2886
I1
sVczi55rh
p2887
I1
sVd1ma0vf
p2888
I2
sVdfpj9u9
p2889
I1
sVd51xvk4
p2890
I1
sVddtotfw
p2891
I1
sVdbyjx78
p2892
I1
sVdmks5g3
p2893
I1
sVd11icg3
p2894
I1
sVcyjd0u3
p2895
I1
sVdq6phjk
p2896
I1
sVczh4y07
p2897
I2
sVdi5w520
p2898
I1
sVd3oviws
p2899
I1
sVdrhsenf
p2900
I1
sVdedez88
p2901
I1
sVd2lg5mx
p2902
I1
sVdchzo9h
p2903
I1
sVd44lfw1
p2904
I1
sVdehjlcv
p2905
I1
sVd06bkaw
p2906
I3
sVdj9jnnc
p2907
I1
sVd6mdhf7
p2908
I1
sVde1yztt
p2909
I1
sVdcl2rqn
p2910
I1
sVdcuo5kh
p2911
I1
sVdc8x2tp
p2912
I1
sVd2e094x
p2913
I2
sVdrwzfyo
p2914
I1
sVdantcq6
p2915
I1
sVcylqx9r
p2916
I1
sVdhm0xx0
p2917
I1
sVd79z1p0
p2918
I1
sVd06cdai
p2919
I1
sVdthbgvw
p2920
I1
sVd2u9ruj
p2921
I2
sVd6mg77v
p2922
I1
sVdrm1lbh
p2923
I2
sVdnkislt
p2924
I1
sVd2kxvov
p2925
I1
sVd0fqbi3
p2926
I1
sVd8aennf
p2927
I1
sVdghvang
p2928
I1
sVd0ccsgq
p2929
I1
sVdd434wu
p2930
I1
sVddeqcuc
p2931
I2
sVdb4lfin
p2932
I1
sVd9xyfrp
p2933
I1
sVdrxgsgr
p2934
I1
sVdehdrrc
p2935
I1
sVcz9247b
p2936
I1
sVdalrmwq
p2937
I1
sVd55se4w
p2938
I1
sVde1vzhv
p2939
I2
sVdqykqq0
p2940
I1
sVdn1vyol
p2941
I1
sVd8ek67h
p2942
I1
sVd0g3czq
p2943
I1
sVdec29sq
p2944
I2
sVdhmaox9
p2945
I2
sVdbtsvao
p2946
I1
sVddsptm0
p2947
I1
sVd0ozjmc
p2948
I1
sVdg6v7hc
p2949
I1
sVdrhmz2z
p2950
I2
sVd0oj0tt
p2951
I1
sVd9n72vi
p2952
I1
sVczawy4c
p2953
I1
sVd6cfx1i
p2954
I1
sVdhwmdtd
p2955
I3
sVdem4r0v
p2956
I2
sVd570z1m
p2957
I2
sVdsradub
p2958
I1
sVd8c78tk
p2959
I1
sVd1xa0dp
p2960
I2
sVdfs92tc
p2961
I1
sVdjn4e9d
p2962
I1
sVd3stfeq
p2963
I1
sVdjbrfpc
p2964
I1
sVd02b08j
p2965
I1
sVd4zu4lz
p2966
I1
sVdg7npb0
p2967
I1
sVd5n391v
p2968
I1
sVdbmyhyk
p2969
I2
sVd26hsai
p2970
I1
sVdnhniv2
p2971
I1
sVd3hlszu
p2972
I1
sVdt7mihe
p2973
I1
sVdhmnq91
p2974
I1
sVd9yk8l5
p2975
I1
sVdp3ixag
p2976
I1
sVdh53yd6
p2977
I1
sVdompsgf
p2978
I1
sVda6unkq
p2979
I1
sVd3wd7tj
p2980
I1
sVczgh7bv
p2981
I1
sVdj4dc5s
p2982
I1
sVdd9g3ef
p2983
I1
sVdir4n3n
p2984
I1
sVdgvyecs
p2985
I1
sVd5syqy4
p2986
I1
sVdqgi5xp
p2987
I1
sVd40n5yw
p2988
I1
sVdglvuw0
p2989
I1
sVdsckwde
p2990
I2
sVdbw15kf
p2991
I1
sVd5kg1w4
p2992
I1
sVdmgxjio
p2993
I1
sVdcytb9z
p2994
I1
sVdf0keab
p2995
I1
sVd4gx0gz
p2996
I1
sVdgbdet8
p2997
I1
sVcyu32rj
p2998
I1
sVd28bapo
p2999
I1
sVdogbah3
p3000
I4
sVd27pha4
p3001
I1
sVd6b17na
p3002
I1
sVcysinlr
p3003
I1
sVdjpt9db
p3004
I1
sVd78gorv
p3005
I1
sVd9tkknh
p3006
I1
sVcz07qah
p3007
I1
sVdftx2kc
p3008
I1
sVdiw83nu
p3009
I1
sVczojzgv
p3010
I1
sVd0ioo97
p3011
I1
sVd9rsa4w
p3012
I1
sVd7e89la
p3013
I2
sVdb809sr
p3014
I1
sVd91derl
p3015
I2
sVd6rms4i
p3016
I1
sVd0r17ai
p3017
I3
sVdip3jae
p3018
I2
sVdcce6vv
p3019
I1
sVdeunxqe
p3020
I1
sVdbmcyte
p3021
I1
sVd7ao4qv
p3022
I1
sVcz0prbc
p3023
I1
sVdnat6ir
p3024
I2
sVdjugmlh
p3025
I1
sVdmowoeq
p3026
I1
sVd08095o
p3027
I1
sVd6h03pf
p3028
I1
sVds4pkqt
p3029
I1
sVdbydngf
p3030
I1
sVdffkzq9
p3031
I1
sVdagcopk
p3032
I1
sVd8por26
p3033
I3
sVdpgob88
p3034
I1
sVd3gdy22
p3035
I1
sVdf1vo7h
p3036
I1
sVda1og9c
p3037
I1
sVd7thkzx
p3038
I1
sVd5tsnk3
p3039
I1
sVd60oevm
p3040
I1
sVdkde71j
p3041
I1
sVddbfnp8
p3042
I1
sVd311ydr
p3043
I1
sVdf6noxb
p3044
I1
sVdkqq924
p3045
I1
sVczbapnr
p3046
I3
sVcz2jnk2
p3047
I1
sVd4qibte
p3048
I1
sVd08w8kq
p3049
I1
sVcynyy4d
p3050
I1
sVd7o2oeq
p3051
I1
sVdnppf2h
p3052
I1
sVdimkzgl
p3053
I2
sVd96k5n8
p3054
I1
sVd0tenmn
p3055
I1
sVdcfup42
p3056
I1
sVddtkvb3
p3057
I1
sVd1d2gap
p3058
I1
sVdmfv3g8
p3059
I1
sVdco4y3i
p3060
I1
sVdffh1om
p3061
I1
sVd0wkmu9
p3062
I1
sVdr59xs0
p3063
I1
sVdbb7mvv
p3064
I1
sVd8zwhgh
p3065
I1
sVdmrsiwx
p3066
I2
sVdnrcs3p
p3067
I2
sVdnn8r5m
p3068
I1
sVdjl37xu
p3069
I1
sVdpn2f0g
p3070
I1
sVdsv78qm
p3071
I1
sVd513qjl
p3072
I1
sVdkqu3sq
p3073
I1
sVdomo2g5
p3074
I1
sVd1o62zy
p3075
I1
sVdftgsul
p3076
I1
sVdhmdhes
p3077
I1
sVdit1rj8
p3078
I1
sVdexhvwq
p3079
I1
sVd19i3xu
p3080
I1
sVd04ll95
p3081
I2
sVdrzutgw
p3082
I1
sVdet2ivw
p3083
I1
sVdef3jpq
p3084
I1
sVd17l7ay
p3085
I1
sVdac8ja5
p3086
I1
sVd4qpeg5
p3087
I1
sVd8ou4fz
p3088
I2
sVdmsjly0
p3089
I1
sVcyllmub
p3090
I1
sVdb5iyb2
p3091
I1
sVdt7h3c1
p3092
I1
sVd3crq0x
p3093
I2
sVcyujys5
p3094
I1
sVczg5gcl
p3095
I3
sVda29qlb
p3096
I1
sVczs3yyb
p3097
I1
sVddesigr
p3098
I1
sVdtbvqeh
p3099
I1
sVd2w7tdi
p3100
I1
sVdh4uh9s
p3101
I1
sVdik7rkx
p3102
I1
sVdcbjv01
p3103
I1
sVd2ehrd0
p3104
I1
sVd88z5oy
p3105
I1
sVdjozsrk
p3106
I2
sVd3vfz9q
p3107
I1
sVd5atb5g
p3108
I1
sVcz8hjmg
p3109
I1
sVd0l2unk
p3110
I1
sVdai1bvc
p3111
I1
sVd7pta6f
p3112
I1
sVd02baev
p3113
I1
sVddwbj51
p3114
I1
sVd3fir7w
p3115
I1
sVdt9g1hv
p3116
I1
sVd1fnjxu
p3117
I1
sVd865src
p3118
I1
sVdat8l6f
p3119
I2
sVdfcwcup
p3120
I1
sVdrd3t5z
p3121
I1
sVd8g500s
p3122
I1
sVczo3czv
p3123
I1
sVdf6mtg1
p3124
I1
sVdbg86no
p3125
I1
sVdgb46ri
p3126
I1
sVdkk7t9t
p3127
I1
sVczwonej
p3128
I1
sVd58qulo
p3129
I2
sVdoj3y6u
p3130
I1
sVdcx3bw8
p3131
I1
sVdt8509p
p3132
I1
sVdrhubn4
p3133
I1
sVdeuj0ul
p3134
I1
sVdqxldt9
p3135
I1
sVd9pwj1x
p3136
I2
sVcytsr4g
p3137
I1
sVdh8rfh3
p3138
I2
sVdhk2xju
p3139
I1
sVd84pxl8
p3140
I1
sVdnwmoi8
p3141
I3
sVcys0fv4
p3142
I1
sVd1riz4f
p3143
I1
sVd70pgxs
p3144
I1
sVdqrdj3d
p3145
I1
sVd7vxadj
p3146
I1
sVdjts0dm
p3147
I1
sVd3ubuge
p3148
I1
sVddgg4ht
p3149
I1
sVcywdiwj
p3150
I2
sVd1i2dun
p3151
I1
sVdbsfbs8
p3152
I1
sVczhjr18
p3153
I2
sVd1hvf83
p3154
I1
sVd65rl7w
p3155
I2
sVd7vz965
p3156
I5
sVd0dxjb0
p3157
I2
sVd9wj3bn
p3158
I1
sVdjgsz75
p3159
I1
sVdq1pmie
p3160
I1
sVd1xmeca
p3161
I1
sVdj3mhii
p3162
I1
sVd40w7bz
p3163
I1
sVd9w7dqr
p3164
I1
sVdi8v2aj
p3165
I1
sVdszx9j9
p3166
I1
sVd24me2n
p3167
I1
sVczanpo5
p3168
I1
sVd89hjko
p3169
I1
sVdn1kzcu
p3170
I2
sVdi5fiq8
p3171
I1
sVdalxohi
p3172
I1
sVd03ewg4
p3173
I1
sVd0xzcxq
p3174
I2
sVdeigmyr
p3175
I1
sVd03b0oj
p3176
I1
sVdrogq6q
p3177
I1
sVcz7tn6p
p3178
I1
sVde8hpxv
p3179
I1
sVcz2o1wf
p3180
I2
sVd7skqu6
p3181
I1
sVd3xuge3
p3182
I2
sVdsuuxzh
p3183
I1
sVdji516e
p3184
I1
sVdc2bazt
p3185
I1
sVdr0q7r2
p3186
I4
sVd1kkhwt
p3187
I1
sVdmquk01
p3188
I1
sVdqidzh9
p3189
I1
sVdkfna87
p3190
I1
sVdnwcj91
p3191
I1
sVd89ok67
p3192
I1
sVdej66hz
p3193
I1
sVd3unenl
p3194
I1
sVdhjlbdc
p3195
I1
sVde0c80s
p3196
I1
sVd3popzn
p3197
I1
sVddscdf4
p3198
I1
sVd3yqnfu
p3199
I1
sVdaz32la
p3200
I1
sVdih8ol9
p3201
I1
sVdmz9z9u
p3202
I1
sVdf5yypi
p3203
I1
sVd5h9l8k
p3204
I1
sVdc2cad1
p3205
I1
sVddj9zs7
p3206
I1
sVddbuht4
p3207
I1
sVdcspbdx
p3208
I2
sVdetiahi
p3209
I1
sVdc69soh
p3210
I2
sVd7c4pya
p3211
I1
sVd27oqqb
p3212
I1
sVdj7bhij
p3213
I1
sVdncgjgd
p3214
I2
sVd12qpmj
p3215
I1
sVd3boib9
p3216
I1
sVdfbembd
p3217
I2
sVdf9ajgy
p3218
I1
sVdke3evb
p3219
I2
sVdastwnp
p3220
I1
sVdcmgidv
p3221
I1
sVcyqt4km
p3222
I1
sVdjlgixj
p3223
I1
sVd93e7kj
p3224
I1
sVdbx8k0l
p3225
I1
sVdcxglx6
p3226
I5
sVd1stpg3
p3227
I1
sVd67ycv1
p3228
I1
sVda7o8ho
p3229
I1
sVd2aines
p3230
I1
sVd3zuhx4
p3231
I1
sVdqj5lvc
p3232
I1
sVd1fmc73
p3233
I1
sVdjmxpvj
p3234
I1
sVd2qujsc
p3235
I1
sVd2pc4gw
p3236
I1
sVdp85tbe
p3237
I1
sVd9pcxqc
p3238
I1
sVd6100i5
p3239
I1
sVd4pn2qq
p3240
I1
sVdcjxzdv
p3241
I1
sVd0n3nxw
p3242
I2
sVd1guxby
p3243
I1
sVdbeokgh
p3244
I1
sVdqr9z8d
p3245
I1
sVdopd06s
p3246
I5
sVczishmp
p3247
I2
sVdks9daj
p3248
I1
sVdeteuo3
p3249
I1
sVcyq7y3c
p3250
I1
sVdfxi2ub
p3251
I1
sVd39xc11
p3252
I1
sVd99sqs2
p3253
I1
sVcyv5eut
p3254
I1
sVdauc4x2
p3255
I1
sVdozwyih
p3256
I1
sVd0346x3
p3257
I1
sVdao55nj
p3258
I1
sVd7ls5go
p3259
I1
sVd2fvxk9
p3260
I1
sVdkyq14d
p3261
I1
sVdnd7b6g
p3262
I1
sVd35d9v2
p3263
I1
sVdcoa6bi
p3264
I1
sVdd5pwa2
p3265
I1
sVd1gewo4
p3266
I1
sVd0wgua3
p3267
I1
sVd2hk336
p3268
I1
sVdn780lu
p3269
I1
sVdcslg2h
p3270
I1
sVdqkso8f
p3271
I1
sVd7oba28
p3272
I2
sVd9ffg7k
p3273
I1
sVd5y0xs1
p3274
I1
sVd9vfnxl
p3275
I1
sVd77er30
p3276
I1
sVd0aol1q
p3277
I1
sVdn3qf4l
p3278
I1
sVd3qk61z
p3279
I1
sVd8v0c27
p3280
I1
sVczsolov
p3281
I1
sVdk6k45d
p3282
I1
sVdfvfskg
p3283
I1
sVd2sni40
p3284
I1
sVd8yljcn
p3285
I1
sVd0rj4yy
p3286
I3
sVddhc5he
p3287
I1
sVdbfsoht
p3288
I1
sVcyts2ix
p3289
I1
sVcyzifzk
p3290
I1
sVddwzmtt
p3291
I2
sVdr0oxdr
p3292
I1
sVddeecug
p3293
I2
sVdsokoqd
p3294
I1
sVd6wxaw0
p3295
I1
sVdfapny1
p3296
I1
sVd7zwgqi
p3297
I1
sVdcf3cnc
p3298
I1
sVd9ayw3d
p3299
I1
sVd1m80ax
p3300
I1
sVd2yzerh
p3301
I1
sVd6o0rxg
p3302
I3
sVdfehp05
p3303
I1
sVdcmrx9j
p3304
I1
sVdkma9xk
p3305
I1
sVdavhlqi
p3306
I3
sVdrtadv3
p3307
I1
sVde1w97w
p3308
I1
sVdbatw14
p3309
I2
sVdqx0h4h
p3310
I1
sVdi0flgb
p3311
I2
sVdg2kuqt
p3312
I1
sVdcaxx43
p3313
I1
sVd6i73ri
p3314
I1
sVdb7ypmb
p3315
I1
sVdco92e0
p3316
I1
sVdmj1zix
p3317
I1
sVdn2g9t1
p3318
I1
sVdkgjqb6
p3319
I1
sVdeb2n6u
p3320
I1
sVdd19000
p3321
I1
sVcz5ivcr
p3322
I1
sVcz0v7my
p3323
I2
sVdbnto3x
p3324
I1
sVczqibju
p3325
I1
sVdg6b2o3
p3326
I1
sVd68sjy6
p3327
I1
sVd7znsd0
p3328
I1
sVdelch9m
p3329
I1
sVd9csw5o
p3330
I1
sVdbw56ip
p3331
I2
sVdi4slwa
p3332
I1
sVdmvkuwc
p3333
I1
sVd1w6mq0
p3334
I1
sVdepq8fs
p3335
I1
sVdqt1zuq
p3336
I1
sVdbfioj0
p3337
I1
sVdt6zevu
p3338
I1
sVdehroyn
p3339
I1
sVdajxf7a
p3340
I1
sVdb1bpsh
p3341
I1
sVdaj2qwh
p3342
I1
sVdgo9azm
p3343
I1
sVd2yqyjo
p3344
I1
sVd086bzp
p3345
I3
sVd2i9318
p3346
I1
sVd7w0hxy
p3347
I1
sVd3d5uai
p3348
I1
sVd2hkcts
p3349
I1
sVdnu708t
p3350
I1
sVczvjjjz
p3351
I1
sVd8ai6q9
p3352
I1
sVd2h16vx
p3353
I1
sVdbb7ial
p3354
I1
sVdef5qkc
p3355
I2
sVdqky08g
p3356
I1
sVdbbafoz
p3357
I1
sVd8ueqi7
p3358
I1
sVdapocez
p3359
I2
sVdi1hywu
p3360
I1
sVczwpa1p
p3361
I1
sVdir87i6
p3362
I2
sVd4m6u1n
p3363
I1
sVd0d1wnx
p3364
I1
sVde2i3yh
p3365
I1
sVd76ukdy
p3366
I1
sVdp0g6ae
p3367
I1
sVd35brem
p3368
I1
sVdr58s3y
p3369
I1
sVd8ufb9s
p3370
I1
sVd67jwrt
p3371
I1
sVczpqwuw
p3372
I1
sVd9xmzyi
p3373
I1
sVdr2rjat
p3374
I1
sVd9g9d11
p3375
I1
sVdiamr3y
p3376
I1
sVd7p5qeb
p3377
I1
sVd42qs4e
p3378
I2
sVd707vae
p3379
I1
sVddc2ntk
p3380
I1
sVd6si7zz
p3381
I2
sVdkop75f
p3382
I1
sVd69gv9r
p3383
I1
sVdc97px7
p3384
I1
sVd4u073j
p3385
I1
sVd4pwn3m
p3386
I1
sVd1e1kfd
p3387
I1
sVd2g61pj
p3388
I3
sVczrkve4
p3389
I1
sVdfz9i21
p3390
I1
sVdscwi6e
p3391
I1
sVdavscmb
p3392
I1
sVdq1z1fm
p3393
I1
sVdia63n0
p3394
I2
sVdmk80z3
p3395
I1
sVddplg0o
p3396
I1
sVdd9bmpg
p3397
I1
sVdiyl0dl
p3398
I1
sVdnci6hj
p3399
I1
sVczsrh04
p3400
I3
sVd0bvach
p3401
I1
sVd6tntrx
p3402
I1
sVdswzued
p3403
I2
sVdbsfx4d
p3404
I1
sVdilhwmt
p3405
I1
sVd41dw36
p3406
I3
sVd0id07g
p3407
I1
sVdmvl28r
p3408
I1
sVd6hju4m
p3409
I3
sVd9cwmor
p3410
I1
sVcysh6an
p3411
I1
sVdndgniq
p3412
I1
sVcyz96bx
p3413
I2
sVd7xu71q
p3414
I1
sVdahgygy
p3415
I1
sVdkm4vu1
p3416
I1
sVd05r5w3
p3417
I2
sVdinr7cd
p3418
I1
sVdex1jp1
p3419
I1
sVdfoicao
p3420
I1
sVd6acj2u
p3421
I1
sVdaobyyr
p3422
I1
sVdmxfolu
p3423
I1
sVd72fopk
p3424
I1
sVczwyc2f
p3425
I1
sVda562w2
p3426
I4
sVddozbaq
p3427
I1
sVd24m8zu
p3428
I1
sVdtfjdga
p3429
I1
sVd7pbscv
p3430
I1
sVcyy4gat
p3431
I1
sVdh7uku6
p3432
I1
sVdjl0dt2
p3433
I1
sVddvmsdf
p3434
I1
sVd6zy9h3
p3435
I3
sVd1pfv83
p3436
I1
sVdb8uksj
p3437
I1
sVd8e21um
p3438
I1
sVdt7w6sx
p3439
I3
sVdp3s8ew
p3440
I1
sVde6x7sg
p3441
I1
sVdn7lrh8
p3442
I1
sVdbd30f8
p3443
I2
sVda7vs9t
p3444
I1
sVdt0womu
p3445
I1
sVdklv823
p3446
I1
sVda8gdap
p3447
I1
sVdms4m88
p3448
I1
sVd7z9u1g
p3449
I1
sVd0pepe8
p3450
I1
sVdcjz5d5
p3451
I1
sVd055xur
p3452
I1
sVd6fhoky
p3453
I1
sVds2wkyz
p3454
I2
sVd5yroyq
p3455
I1
sVd575gdx
p3456
I1
sVd4lsk8y
p3457
I2
sVdepmhqj
p3458
I1
sVde1ycgr
p3459
I1
sVczkiurd
p3460
I1
sVdci652b
p3461
I2
sVd9lizyp
p3462
I1
sVdhr8qqk
p3463
I1
sVdjnlymo
p3464
I1
sVdd5v0gz
p3465
I1
sVdtcv3uy
p3466
I2
sVd7i3czo
p3467
I1
sVdielzyb
p3468
I1
sVd2qvv9s
p3469
I1
sVd0pjjiq
p3470
I2
sVddeo0j6
p3471
I1
sVdhpgqds
p3472
I1
sVd0frmac
p3473
I1
sVdhuvb6x
p3474
I1
sVd5prk6i
p3475
I1
sVd0yrt4x
p3476
I1
sVdjntc0n
p3477
I2
sVdbbke3c
p3478
I1
sVdj4gnog
p3479
I1
sVddej049
p3480
I1
sVd3pxxdx
p3481
I1
sVd0xpn4p
p3482
I1
sVdc8av9b
p3483
I1
sVdnsfxw8
p3484
I1
sVd58vvzq
p3485
I1
sVczatmpn
p3486
I1
sVdhfodqt
p3487
I3
sVdaqbg60
p3488
I1
sVdqg2jbr
p3489
I1
sVdfw9eww
p3490
I1
sVczl8xia
p3491
I1
sVczy1p67
p3492
I1
sVdcweq0h
p3493
I1
sVd5hny2w
p3494
I1
sVd2zlnbg
p3495
I1
sVd0j2100
p3496
I1
sVd8hv9dn
p3497
I1
sVdsxce6s
p3498
I1
sVd4dngea
p3499
I1
sVd8u9vx2
p3500
I1
sVd0batvt
p3501
I2
sVdkvojua
p3502
I1
sVdekny9e
p3503
I1
sVdeax44q
p3504
I1
sVdqu6785
p3505
I1
sVd1a5via
p3506
I1
sVdhw2jpp
p3507
I2
sVd0qys7i
p3508
I2
sVdftlzur
p3509
I1
sVdijhtna
p3510
I2
sVdrqflc6
p3511
I1
sVdgtm3fm
p3512
I1
sVd09wkue
p3513
I1
sVdr2etdw
p3514
I1
sVd7waqxz
p3515
I1
sVd5jv2uo
p3516
I1
sVcz6zllb
p3517
I3
sVdcg8zwk
p3518
I1
sVd0emkv8
p3519
I1
sVd37v9tt
p3520
I1
sVczj41l7
p3521
I3
sVdfibb73
p3522
I2
sVd7rre52
p3523
I1
sVdfngyoc
p3524
I1
sVdo9oeeo
p3525
I1
sVd1wrypn
p3526
I1
sVdenb8u0
p3527
I1
sVdj5vlca
p3528
I2
sVdsoy4zq
p3529
I1
sVcze01vj
p3530
I1
sVd9prtu6
p3531
I1
sVdcqekas
p3532
I1
sVde3bd4p
p3533
I1
sVdhc3ve7
p3534
I1
sVd3cguya
p3535
I2
sVczdmqap
p3536
I1
sVczziswo
p3537
I1
sVdc2pion
p3538
I1
sVdri5uqk
p3539
I1
sVdtepcja
p3540
I1
sVdkx7l3q
p3541
I1
sVdiasl68
p3542
I1
sVd1vkw5v
p3543
I1
sVd8vzt04
p3544
I1
sVczdk5s6
p3545
I1
sVd1ju04c
p3546
I1
sVds90jdm
p3547
I1
sVcyhzv6w
p3548
I1
sVde2rla8
p3549
I1
sVd515vbv
p3550
I2
sVdiay8io
p3551
I3
sVd0kpyd6
p3552
I1
sVddif02h
p3553
I1
sVd2hsuo7
p3554
I1
sVd0rlpfn
p3555
I2
sVdd6xarg
p3556
I1
sVd868fyy
p3557
I1
sVdg8ohoi
p3558
I1
sVdameh1x
p3559
I1
sVcz7oil5
p3560
I1
sVdf6pdwe
p3561
I1
sVd5dragd
p3562
I1
sVczj38k7
p3563
I1
sVd8cznql
p3564
I1
sVdcf6p60
p3565
I2
sVdctixs2
p3566
I1
sVdhjo4yn
p3567
I1
sVd28sswc
p3568
I2
sVd2tjymj
p3569
I1
sVd47eocf
p3570
I1
sVdql1e43
p3571
I1
sVdblyduo
p3572
I1
sVdej99t9
p3573
I1
sVdhdurae
p3574
I1
sVdodleah
p3575
I1
sVdndbked
p3576
I1
sVdna5hia
p3577
I1
sVdmvzfrk
p3578
I2
sVdpr4yzl
p3579
I1
sVdgt90dq
p3580
I1
sVdosjhpa
p3581
I1
sVdq61y3n
p3582
I1
sVd953e9m
p3583
I1
sVdbatrzk
p3584
I1
sVd1yh4l5
p3585
I1
sVd00pipm
p3586
I1
sVdp7g1qd
p3587
I1
sVd07v3q3
p3588
I1
sVdajm3fc
p3589
I1
sVdce3uy1
p3590
I1
sVdh72pzi
p3591
I1
sVd9zq8u7
p3592
I1
sVd7bm8lz
p3593
I2
sVd93wyyn
p3594
I1
sVd2cvgwv
p3595
I1
sVdrwj366
p3596
I1
sVd8v7vix
p3597
I1
sVczoy611
p3598
I1
sVd61h08w
p3599
I2
sVdd6eytb
p3600
I1
sVd5l2qn5
p3601
I1
sVcyo9h9n
p3602
I1
sVd1veiry
p3603
I1
sVd5g040f
p3604
I1
sVdbp90m3
p3605
I1
sVdbiht88
p3606
I1
sVdsxnbnj
p3607
I1
sVd41x8u1
p3608
I1
sVd1pcwe0
p3609
I1
sVcz811jy
p3610
I1
sVd9nw2f6
p3611
I1
sVd312b4p
p3612
I1
sVd3ztkbz
p3613
I1
sVczmh349
p3614
I1
sVdtf850x
p3615
I1
sVdcpx0r3
p3616
I2
sVdsvet1d
p3617
I1
sVd9y0fai
p3618
I2
sVdnfmbux
p3619
I1
sVdfco7q7
p3620
I1
sVd16kipu
p3621
I1
sVczfxqz9
p3622
I1
sVd935ynp
p3623
I1
sVd9lkq9d
p3624
I1
sVdamdxl4
p3625
I1
sVd6hgttq
p3626
I1
sVdrp522m
p3627
I1
sVdsowgtb
p3628
I1
sVd3r8uui
p3629
I1
sVdkv4hs9
p3630
I2
sVd7x2tsh
p3631
I1
sVd0vq691
p3632
I1
sVcyn9081
p3633
I1
sVdjssx2f
p3634
I1
sVczn8538
p3635
I1
sVdj3p8di
p3636
I1
sVdiyk8h5
p3637
I1
sVdg62li8
p3638
I1
sVd5qoaf1
p3639
I1
sVddy2bj7
p3640
I1
sVdagbp9w
p3641
I2
sVd0e95mo
p3642
I1
sVdd6gtn8
p3643
I1
sVd3npn0u
p3644
I2
sVdb3xgdq
p3645
I1
sVd3x0sak
p3646
I1
sVd3xenc1
p3647
I1
sVd8fsd1o
p3648
I1
sVdmrc43a
p3649
I1
sVd52yfez
p3650
I1
sVdf6jrd5
p3651
I1
sVdirwq0y
p3652
I1
sVd8uh6fc
p3653
I4
sVdj9m195
p3654
I1
sVd4mmwel
p3655
I1
sVdmvk87t
p3656
I1
sVdcta5ob
p3657
I1
sVd8mxdu6
p3658
I1
sVdkvolar
p3659
I1
sVdaho9gs
p3660
I1
sVd3bip9k
p3661
I1
sVczk0vra
p3662
I1
sVd6muikl
p3663
I1
sVdoafv90
p3664
I1
sVcyysrcu
p3665
I1
sVdeo5y9j
p3666
I1
sVdcju86b
p3667
I1
sVdt3azxn
p3668
I1
sVddp04t3
p3669
I1
sVdboz8h5
p3670
I1
sVdh0u7sf
p3671
I2
sVd9u33qq
p3672
I1
sVd1y7ejf
p3673
I1
sVd2solrx
p3674
I1
sVd6okiou
p3675
I1
sVd1d06t9
p3676
I1
sVd6rsjo9
p3677
I1
sVd2f7td0
p3678
I1
sVd2zvidy
p3679
I1
sVd3zbd2r
p3680
I1
sVdap9asz
p3681
I1
sVd2zy0co
p3682
I2
sVdd6bv63
p3683
I1
sVd2keig0
p3684
I1
sVdowgdi1
p3685
I1
sVdp7akj9
p3686
I1
sVdmuhutp
p3687
I1
sVdfdmlok
p3688
I1
sVdrzzj68
p3689
I1
sVdmugc3f
p3690
I1
sVdogii6t
p3691
I1
sVdo5az91
p3692
I1
sVdn1gl2t
p3693
I1
sVcykcl7h
p3694
I1
sVdfftjst
p3695
I1
sVd0zsunq
p3696
I1
sVd1q92e8
p3697
I1
sVdf6amx5
p3698
I1
sVdpa3l02
p3699
I1
sVd5gr3ta
p3700
I2
sVd3dmly4
p3701
I1
sVdbtwund
p3702
I1
sVdt5u5zj
p3703
I2
sVdot6hft
p3704
I1
sVd4powr0
p3705
I1
sVdt2fzvy
p3706
I1
sVcytojae
p3707
I1
sVd0cq37i
p3708
I1
sVdsvvl6d
p3709
I1
sVd6ezpv1
p3710
I1
sVdo9sf5e
p3711
I1
sVdgekfcq
p3712
I1
sVd015m1r
p3713
I1
sVd0sinm0
p3714
I1
sVdimkuu1
p3715
I1
sVd0okzwm
p3716
I1
sVd32ixlp
p3717
I1
sVd2qepck
p3718
I1
sVd22mska
p3719
I1
sVdo2uae7
p3720
I2
sVdhlunbm
p3721
I1
sVdc1f2az
p3722
I1
sVdkxb588
p3723
I1
sVdccdcaw
p3724
I1
sVd1w0xas
p3725
I1
sVdnyd85g
p3726
I1
sVd6c2ruy
p3727
I1
sVdneow01
p3728
I1
sVd37t8r7
p3729
I1
sVdohuxjz
p3730
I1
sVdpodot8
p3731
I1
sVcziym41
p3732
I1
sVdflyaqo
p3733
I2
sVds60tqp
p3734
I1
sVd96jse5
p3735
I1
sVdckhbgp
p3736
I1
sVdpxvl7s
p3737
I1
sVd2yraps
p3738
I1
sVdoheadi
p3739
I1
sVd39tg75
p3740
I1
sVdkgef53
p3741
I1
sVdrqqcwy
p3742
I1
sVdk0pv2i
p3743
I1
sVd0a41ls
p3744
I1
sVdqmn5cr
p3745
I2
sVczdrt69
p3746
I1
sVddoxy0d
p3747
I1
sVd3xxyx8
p3748
I1
sVczulzen
p3749
I1
sVdimkk81
p3750
I1
sVcz3vfuo
p3751
I3
sVd1i3caw
p3752
I1
sVdkifw0l
p3753
I1
sVd9yvg40
p3754
I1
sVddwihr1
p3755
I1
sVczn45yt
p3756
I1
sVdmr25y6
p3757
I1
sVd7p1wt4
p3758
I1
sVdt3m6ui
p3759
I1
sVdfv6je0
p3760
I1
sVddqluh5
p3761
I1
sVdgvpnpq
p3762
I2
sVd2ukz6m
p3763
I1
sVdamcjdv
p3764
I1
sVd98tr0g
p3765
I2
sVdet1gpv
p3766
I1
sVdpz5okn
p3767
I4
sVd7iqy06
p3768
I1
sVd12jn3s
p3769
I1
sVdgi9do1
p3770
I1
sVdqntya9
p3771
I1
sVdr6lngu
p3772
I1
sVdmpfwou
p3773
I1
sVd6pwe2q
p3774
I1
sVdolya7n
p3775
I1
sVd2dplj3
p3776
I1
sVd2dt233
p3777
I1
sVdexpsc4
p3778
I1
sVdraazai
p3779
I1
sVdfwxy6b
p3780
I1
sVdr1ic55
p3781
I1
sVdj5r8mh
p3782
I1
sVdcyer6y
p3783
I2
sVdebk423
p3784
I1
sVd3nxtpo
p3785
I1
sVd0rvm3v
p3786
I1
sVdodqqte
p3787
I1
sVdberiay
p3788
I1
sVcywmouj
p3789
I1
sVd7oitvl
p3790
I1
sVdr0ksbt
p3791
I1
sVczt859b
p3792
I1
sVd391ee4
p3793
I1
sVcyrmjo8
p3794
I1
sVdbb1ute
p3795
I1
sVdegdvqh
p3796
I1
sVczt0vgz
p3797
I2
sVd1b3udh
p3798
I1
sVdhiioya
p3799
I1
sVdtcvy45
p3800
I1
sVdketh4u
p3801
I2
sVdkp62e2
p3802
I1
sVddafxrk
p3803
I1
sVdhvrs39
p3804
I1
sVdiqf30x
p3805
I1
sVd8upz09
p3806
I1
sVdfigebf
p3807
I1
sVdq0rzpx
p3808
I2
sVdgo50o3
p3809
I1
sVd4bsax7
p3810
I1
sVdoplzds
p3811
I1
sVddt5m64
p3812
I1
sVdj0sgiz
p3813
I1
sVdfsgkg3
p3814
I2
sVcym9hxh
p3815
I1
sVd2ew7yv
p3816
I1
sVds4iavf
p3817
I1
sVd0zixkv
p3818
I2
sVdaxwasv
p3819
I1
sVdk7vzkd
p3820
I2
sVd87pxx2
p3821
I1
sVd5v26af
p3822
I1
sVd4l3c6b
p3823
I1
sVdeppb56
p3824
I1
sVdgb1i9b
p3825
I1
sVdeaxweg
p3826
I1
sVd8zyndk
p3827
I1
sVcz8m7y4
p3828
I1
sVd2xpfxe
p3829
I1
sVd0vebqw
p3830
I1
sVd1iufxi
p3831
I1
sVd6yb1d7
p3832
I1
sVdet2umv
p3833
I1
sVdd34p8o
p3834
I1
sVd26o9sh
p3835
I1
sVdhg3ahi
p3836
I1
sVdgul5ol
p3837
I1
sVd8zz855
p3838
I1
sVd3a9mqq
p3839
I1
sVdd84rs1
p3840
I1
sVd2r62d9
p3841
I1
sVd3gosou
p3842
I2
sVdmrjugd
p3843
I1
sVdoy5hcs
p3844
I1
sVdg1tl5e
p3845
I1
sVd1nmd9x
p3846
I1
sVdauzyee
p3847
I1
sVdftttbz
p3848
I1
sVdj4ti6k
p3849
I1
sVddzlmw1
p3850
I1
sVd1w5yqn
p3851
I1
sVdh8evog
p3852
I1
sVde2hz6m
p3853
I1
sVdj1o9ku
p3854
I1
sVdsfehww
p3855
I1
sVdiq572m
p3856
I1
sVdq3f50e
p3857
I1
sVdgf7g7h
p3858
I1
sVdf6lboe
p3859
I1
sVdeogs0r
p3860
I3
sVd8dcp70
p3861
I1
sVdc5qmye
p3862
I1
sVdflxq71
p3863
I2
sVdtc3bpe
p3864
I3
sVd87am3q
p3865
I2
sVdqhihtt
p3866
I1
sVd3pyd5d
p3867
I1
sVdcoatu6
p3868
I2
sVdhafahx
p3869
I1
sVdr421ds
p3870
I1
sVdsvhuwm
p3871
I1
sVd49vbu1
p3872
I1
sVdams67h
p3873
I1
sVdcapgiy
p3874
I1
sVd9ywybo
p3875
I1
sVd25cx6j
p3876
I1
sVdqxjf6d
p3877
I1
sVd1tclrz
p3878
I1
sVczran92
p3879
I1
sVdmhadja
p3880
I1
sVd31b0er
p3881
I2
sVdahdw6r
p3882
I1
sVda74tay
p3883
I1
sVd0icb5l
p3884
I1
sVd1uq6kv
p3885
I2
sVd3mv237
p3886
I1
sVd7bac70
p3887
I1
sVdrq6ji0
p3888
I1
sVd4we0l7
p3889
I1
sVdjz87u6
p3890
I1
sVdhnqrhb
p3891
I1
sVdea0cxx
p3892
I1
sVdi40tts
p3893
I1
sVdc4kvab
p3894
I1
sVd1roleu
p3895
I1
sVdkvhhv1
p3896
I1
sVd1znxhp
p3897
I1
sVcytasj2
p3898
I2
sVdo4xcd4
p3899
I3
sVdc9cnzq
p3900
I1
sVdajo342
p3901
I1
sVd5l9f4z
p3902
I1
sVdij02xt
p3903
I1
sVd6wk5ku
p3904
I1
sVd5vpkeu
p3905
I1
sVdjg0s6b
p3906
I1
sVdk46dgn
p3907
I1
sVd6aiv4d
p3908
I2
sVdhdvvm3
p3909
I1
sVdqhatvc
p3910
I1
sVd5klmvk
p3911
I1
sVdew3cb9
p3912
I1
sVdcuc4o8
p3913
I1
sVdi7ij1a
p3914
I1
sVdeqfs8e
p3915
I1
sVd5zkc8v
p3916
I3
sVd8wzw0z
p3917
I1
sVd22z087
p3918
I1
sVdem27qj
p3919
I2
sVdsdx379
p3920
I2
sVd5swvit
p3921
I2
sVdnzep5a
p3922
I1
sVde33u07
p3923
I1
sVd8oyk8q
p3924
I1
sVcykimro
p3925
I1
sVdstwpz6
p3926
I1
sVdel5tbg
p3927
I3
sVdcpuqtf
p3928
I1
sVdao9rk4
p3929
I1
sVczqnhbr
p3930
I1
sVdgcuiua
p3931
I1
sVdhd6omj
p3932
I1
sVd6rk5hz
p3933
I1
sVcypk5ze
p3934
I1
sVdc9whcx
p3935
I1
sVd3z8oq9
p3936
I1
sVd0sb8qx
p3937
I2
sVdpm2crv
p3938
I1
sVdgjmts8
p3939
I1
sVdcn5g8x
p3940
I1
sVd3yptzi
p3941
I1
sVdgqtm6z
p3942
I2
sVdn9qnb0
p3943
I1
sVdfgjiri
p3944
I1
sVdbww3ed
p3945
I1
sVddbwvgx
p3946
I2
sVdhia4y4
p3947
I1
sVdhtjrzk
p3948
I1
sVd8qc64o
p3949
I1
sVdg8kk8j
p3950
I1
sVdh97907
p3951
I2
sVdbt5xtj
p3952
I1
sVdtd5glz
p3953
I1
sVcyn4dy0
p3954
I1
sVddh88tn
p3955
I1
sVdkt0xlq
p3956
I1
sVd5end6q
p3957
I1
sVd5w7f4l
p3958
I1
sVdi2p9yt
p3959
I1
sVd5ykjau
p3960
I1
sVdct5gvu
p3961
I1
sVd4tezcq
p3962
I1
sVdjme371
p3963
I1
sVdmqdqwp
p3964
I1
sVdj6wyp3
p3965
I1
sVdh80p1q
p3966
I1
sVd60s1tk
p3967
I1
sVd39aoje
p3968
I1
sVdmlm8ya
p3969
I1
sVd55c9sh
p3970
I1
sVds4p5pf
p3971
I1
sVdab2k4w
p3972
I1
sVda24g39
p3973
I1
sVd72tmir
p3974
I1
sVdgg5j1b
p3975
I1
sVcz0pbpa
p3976
I1
sVdjwwliw
p3977
I1
sVdak5obe
p3978
I1
sVcyisaf1
p3979
I1
sVdfunqxj
p3980
I1
sVdibp9mb
p3981
I1
sVd45n5kl
p3982
I1
sVdkxsclo
p3983
I1
sVd9hhehq
p3984
I1
sVd24lnl1
p3985
I1
sVdbom0ru
p3986
I1
sVd1cccua
p3987
I2
sVd6cnws0
p3988
I1
sVd8h64f8
p3989
I1
sVd657uvt
p3990
I1
sVd5en2hj
p3991
I1
sVdqtlcgo
p3992
I1
sVdi5wecp
p3993
I3
sVdf1fi4s
p3994
I2
sVdb50caq
p3995
I1
sVd427as8
p3996
I1
sVdqpdx3n
p3997
I1
sVdpbqpud
p3998
I1
sVd0ru7y1
p3999
I1
sVd4ymt4l
p4000
I1
sVd0m2ojg
p4001
I2
sVdkw7kzo
p4002
I1
sVdowj8df
p4003
I1
sVdtb3d7t
p4004
I1
sVd3bmncf
p4005
I2
sVdh35qna
p4006
I1
sVdey5a6c
p4007
I1
sVd9aud4u
p4008
I1
sVczd3kg3
p4009
I1
sVcz9v8ai
p4010
I1
sVd9604kt
p4011
I1
sVdhzzmfm
p4012
I1
sVdk8xnn6
p4013
I1
sVdhvde7n
p4014
I1
sVd2z2n47
p4015
I1
sVdrz1vht
p4016
I1
sVdavmt3c
p4017
I1
sVdbbth2q
p4018
I1
sVd7eakjs
p4019
I1
sVczczs7s
p4020
I2
sVd4gxyxn
p4021
I1
sVdnm5wuc
p4022
I1
sVdbo9ign
p4023
I1
sVdrsca4k
p4024
I1
sVdfaavig
p4025
I1
sVdqtnerq
p4026
I1
sVd53v7xh
p4027
I1
sVd891ah2
p4028
I1
sVdpgz61c
p4029
I1
sVd7kru84
p4030
I1
sVdccmtgo
p4031
I1
sVdqkuzj6
p4032
I1
sVd4vg01s
p4033
I1
sVdb40ryj
p4034
I1
sVd73dhjm
p4035
I1
sVdnze09i
p4036
I1
sVd4mg480
p4037
I1
sVdjtyyxv
p4038
I1
sVdp7ci4c
p4039
I1
sVdketdxr
p4040
I1
sVdtfquql
p4041
I2
sVd6z3otl
p4042
I1
sVd177xni
p4043
I1
sVd8lcx0y
p4044
I1
sVd24j5az
p4045
I2
sVdh64zhw
p4046
I2
sVd6asg8c
p4047
I1
sVdqp7sej
p4048
I1
sVd9q0978
p4049
I1
sVd2u2wvt
p4050
I1
sVdr2gd8g
p4051
I1
sVd1br40a
p4052
I1
sVdc7jfwc
p4053
I1
sVdhn4dkr
p4054
I1
sVd73iad5
p4055
I1
sVder9uts
p4056
I1
sVdje4n9y
p4057
I1
sVd2lya1m
p4058
I1
sVdru9gnb
p4059
I1
sVdn3ooev
p4060
I1
sVdkm4odp
p4061
I1
sVd1wp5ie
p4062
I1
sVdoeras5
p4063
I1
sVdbn05yv
p4064
I2
sVdhsugty
p4065
I1
sVd901mih
p4066
I1
sVd0hntg3
p4067
I1
sVd1spgjm
p4068
I1
sVdhg40si
p4069
I1
sVdht0wwc
p4070
I1
sVd0bv0nd
p4071
I1
sVdamrn4g
p4072
I1
sVdbqhozp
p4073
I1
sVdeu38k7
p4074
I1
sVdaj5orf
p4075
I1
sVdofc1hn
p4076
I1
sVd0tbz88
p4077
I1
sVdcxmx2i
p4078
I2
sVd8032m8
p4079
I1
sVdd9ytlp
p4080
I1
sVddyrlhl
p4081
I4
sVdf9s645
p4082
I1
sVdorbjny
p4083
I1
sVd53u861
p4084
I2
sVd7nk2tg
p4085
I1
sVdj6ekwa
p4086
I1
sVd19ocos
p4087
I1
sVd9y53w0
p4088
I1
sVdstuo0c
p4089
I1
sVcz7dg3a
p4090
I1
sVd8jio9w
p4091
I1
sVddxjz7x
p4092
I1
sVdf4j2qe
p4093
I1
sVd2ejoz2
p4094
I1
sVcylo6ej
p4095
I1
sVdegnby0
p4096
I1
sVd7f4lcy
p4097
I1
sVcynfnwe
p4098
I1
sVdr4h8zi
p4099
I1
sVd50z79e
p4100
I1
sVczqjjfh
p4101
I1
sVdeoo7qh
p4102
I1
sVd5wa4vk
p4103
I1
sVda01v44
p4104
I1
sVdsrwvdp
p4105
I1
sVdpmndtl
p4106
I1
sVdo5x8kq
p4107
I1
sVdjogrew
p4108
I2
sVd0r9du3
p4109
I1
sVdhu79c5
p4110
I1
sVdmjbf62
p4111
I1
sVd157ln6
p4112
I1
sVd9rd5tl
p4113
I1
sVdsvrjj2
p4114
I1
sVdrsvui7
p4115
I2
sVd46ayyj
p4116
I1
sVdgsikhm
p4117
I1
sVdjq9cax
p4118
I1
sVdfdjo12
p4119
I1
sVdeek70s
p4120
I2
sVdc9tiu0
p4121
I1
sVd34tban
p4122
I1
sVd34lg50
p4123
I1
sVddztifd
p4124
I1
sVddvniz9
p4125
I1
sVdp9xsv0
p4126
I1
sVdo22wlo
p4127
I1
sVdn2j5v5
p4128
I1
sVdgafy97
p4129
I1
sVdfjgd8k
p4130
I1
sVdg15rgs
p4131
I1
sVdmi41wl
p4132
I1
sVdahwo2z
p4133
I1
sVdh5zp8m
p4134
I1
sVdquk327
p4135
I1
sVdmtpwdm
p4136
I1
sVd2mycoq
p4137
I1
sVdk3zp7l
p4138
I1
sVdjtpsvb
p4139
I1
sVcytewxr
p4140
I1
sVd8jrhha
p4141
I1
sVd6rvb25
p4142
I3
sVdjbgmui
p4143
I1
sVd66kr1w
p4144
I1
sVczdswzu
p4145
I1
sVd5j7ji2
p4146
I1
sVcz2pag8
p4147
I3
sVd8po74o
p4148
I1
sVd7alndw
p4149
I1
sVd6x0ljp
p4150
I1
sVdahzlf2
p4151
I1
sVd7nxujb
p4152
I1
sVd4ee35r
p4153
I1
sVd0ajr4r
p4154
I1
sVde1aei0
p4155
I1
sVd4chym0
p4156
I1
sVd6x5796
p4157
I1
sVczqgxuh
p4158
I1
sVdp9hbkz
p4159
I1
sVdb5p7f3
p4160
I1
sVdg7i49j
p4161
I1
sVdnpjo2d
p4162
I1
sVdayfs9h
p4163
I1
sVd0gw9rk
p4164
I1
sVdbqraji
p4165
I1
sVcylvfn7
p4166
I1
sVdi26tgw
p4167
I1
sVdt4cvzi
p4168
I1
sVd1jjej9
p4169
I1
sVd916ymr
p4170
I1
sVd30uflb
p4171
I1
sVdfb3yyf
p4172
I1
sVddaqvf5
p4173
I1
sVd1pf7hc
p4174
I1
sVdfrr1cl
p4175
I1
sVd7lsdgq
p4176
I1
sVdey2jqr
p4177
I1
sVdk3i0dg
p4178
I1
sVdnyc4e2
p4179
I4
sVd7l6ztc
p4180
I1
sVdmvi2vo
p4181
I1
sVdf54zwt
p4182
I1
sVdh3jf6f
p4183
I1
sVdarma95
p4184
I1
sVd2ygqpl
p4185
I1
sVd9wz21i
p4186
I1
sVd5z43m7
p4187
I1
sVdkgvi95
p4188
I1
sVd6thehv
p4189
I1
sVd2bcsjp
p4190
I2
sVczot33b
p4191
I1
sVdhnpxy0
p4192
I1
sVdevnq3v
p4193
I1
sVcyqm69b
p4194
I1
sVdjk46gx
p4195
I2
sVdai52mw
p4196
I1
sVd1x0xpi
p4197
I1
sVdj4pwzd
p4198
I1
sVd682v7r
p4199
I1
sVdj9669p
p4200
I2
sVdg27k2m
p4201
I1
sVd9ob4ff
p4202
I1
sVdecsc5j
p4203
I2
sVd9qbjjv
p4204
I1
sVdctlf51
p4205
I1
sVdsri0v2
p4206
I1
sVd4pnaa7
p4207
I2
sVdof7tgc
p4208
I1
sVd9idzk6
p4209
I1
sVdqvhh0v
p4210
I6
sVd8ksi9v
p4211
I1
sVdbwz7c8
p4212
I1
sVd08ecgr
p4213
I2
sVdd6axyy
p4214
I1
sVd6w3hr8
p4215
I1
sVd46wbi9
p4216
I1
sVd8cw6qh
p4217
I1
sVd1o7dri
p4218
I1
sVdcq00es
p4219
I1
sVcyjhsuf
p4220
I1
sVda2d5gn
p4221
I1
sVd1j2yvq
p4222
I1
sVdb80he6
p4223
I2
sVd8kxbea
p4224
I1
sVdpp231w
p4225
I1
sVda2qi8o
p4226
I1
sVdjmred1
p4227
I1
sVdkd9zdz
p4228
I1
sVd3k4qsu
p4229
I1
sVdh5wjjc
p4230
I2
sVd2wtw32
p4231
I1
sVdfku8fz
p4232
I2
sVdbu51nu
p4233
I1
sVdhr2z83
p4234
I1
sVd05tqhe
p4235
I1
sVdgoxj97
p4236
I1
sVdegxgk3
p4237
I1
sVcyv5o6z
p4238
I1
sVd30xal0
p4239
I1
sVdckra1p
p4240
I1
sVd46bruy
p4241
I1
sVdp8y4e7
p4242
I1
sVd7qf4zh
p4243
I1
sVcyi3kuv
p4244
I1
sVdrzp66l
p4245
I1
sVdin7e5p
p4246
I1
sVdqfbs5n
p4247
I1
sVdi4fq4h
p4248
I1
sVdck21nt
p4249
I1
sVd990s00
p4250
I1
sVd0ba2sa
p4251
I1
sVdbxpryd
p4252
I1
sVdamrpi5
p4253
I1
sVdekwdrw
p4254
I1
sVdj2vb62
p4255
I2
sVcyij2e8
p4256
I1
sVdcbji04
p4257
I2
sVczm8oba
p4258
I1
sVdo0llxv
p4259
I1
sVd1q7x5f
p4260
I2
sVd31cn3u
p4261
I1
sVdnjixv0
p4262
I1
sVdpu47n4
p4263
I1
sVdpjaqa5
p4264
I1
sVd2u9ina
p4265
I1
sVdax1c0u
p4266
I1
sVdgkp1m8
p4267
I1
sVczorugr
p4268
I1
sVdpgidfi
p4269
I1
sVddnu75g
p4270
I1
sVd3cvx50
p4271
I1
sVd8xjtp4
p4272
I1
sVd0j7dtf
p4273
I1
sVd6a8te0
p4274
I1
sVdbd95re
p4275
I1
sVd5jobcv
p4276
I1
sVd2z3kjp
p4277
I1
sVd4ygo6n
p4278
I1
sVdibvv2y
p4279
I1
sVdb7obke
p4280
I1
sVdrt88tq
p4281
I1
sVdqeev7d
p4282
I1
sVd1aktr4
p4283
I1
sVdch2hbh
p4284
I1
sVd0btlj1
p4285
I1
sVdi1dx6j
p4286
I2
sVdsrzvmd
p4287
I1
sVd8c0fxv
p4288
I1
sVdba7ux4
p4289
I1
sVd27f13f
p4290
I1
sVd8oshu7
p4291
I1
sVdagx6jl
p4292
I2
sVd1u5jvl
p4293
I1
sVd95vk7a
p4294
I1
sVdhfl27n
p4295
I1
sVd23nnre
p4296
I1
sVdmwmnaj
p4297
I1
sVdhap5hz
p4298
I1
sVd056efx
p4299
I1
sVd3qssxd
p4300
I1
sVdi3d1ao
p4301
I1
sVddxyz4b
p4302
I2
sVdj0jbzk
p4303
I2
sVdnnjpld
p4304
I1
sVd7c04b7
p4305
I1
sVdceqjn2
p4306
I1
sVdfa4aus
p4307
I1
sVddp2711
p4308
I1
sVd0r5qog
p4309
I2
sVd8i2vnz
p4310
I1
sVd3wep4n
p4311
I1
sVd1ahh32
p4312
I1
sVdh9ue98
p4313
I5
sVcz0lnoc
p4314
I1
sVddhms35
p4315
I1
sVd1qufgl
p4316
I1
sVdd6zdy1
p4317
I1
sVcykpsx0
p4318
I1
sVd7xd5ij
p4319
I1
sVdiuxlrj
p4320
I1
sVd1czc9a
p4321
I1
sVdir7vw9
p4322
I2
sVd1xqlu2
p4323
I1
sVda03g02
p4324
I1
sVdn7hurv
p4325
I2
sVdcmn4g3
p4326
I1
sVcyn8fp3
p4327
I1
sVdomve24
p4328
I1
sVd7c7v8b
p4329
I1
sVd9c32fj
p4330
I1
sVd013aip
p4331
I1
sVd5wxv8n
p4332
I1
sVdf3wb6c
p4333
I1
sVdny7vkp
p4334
I1
sVcz6n5xl
p4335
I1
sVd6rdm5r
p4336
I2
sVd7wgueo
p4337
I1
sVdhi8m7p
p4338
I1
sVd7wr6so
p4339
I1
sVdbvaycn
p4340
I1
sVdbtqdxi
p4341
I1
sVd175dxa
p4342
I1
sVdasch6c
p4343
I1
sVd0m28i4
p4344
I1
sVd0pyuuv
p4345
I1
sVd1cyrcd
p4346
I1
sVd7pmtfz
p4347
I3
sVd326d2m
p4348
I1
sVd04m3i7
p4349
I1
sVd1rcsav
p4350
I1
sVdbutlia
p4351
I1
sVd93eke3
p4352
I1
sVd88lcx3
p4353
I1
sVd2qebsd
p4354
I1
sVdho9uad
p4355
I1
sVczvjs0s
p4356
I1
sVdkd6eko
p4357
I3
sVdecq9tr
p4358
I1
sVdicubw7
p4359
I1
sVdg9brqg
p4360
I1
sVd1bey5w
p4361
I1
sVczd4i5s
p4362
I1
sVdc3vihg
p4363
I1
sVd1iyq7l
p4364
I1
sVdeb7fgl
p4365
I1
sVdht1edt
p4366
I1
sVdakvtz7
p4367
I1
sVczmd9jg
p4368
I1
sVdj4qrai
p4369
I1
sVdgnnp1h
p4370
I1
sVdtf642y
p4371
I1
sVd7fymat
p4372
I1
sVd0qy84x
p4373
I1
sVdcormgh
p4374
I1
sVdt6da0p
p4375
I1
sVd39v6ms
p4376
I1
sVd4fx9ev
p4377
I1
sVdbga5dc
p4378
I1
sVdc9job1
p4379
I3
sVdbf8ocm
p4380
I1
sVd3pqu09
p4381
I3
sVczfzkht
p4382
I1
sVdp7xal5
p4383
I1
sVd1vno77
p4384
I1
sVdrp6q5i
p4385
I1
sVd037nsa
p4386
I1
sVd9n6966
p4387
I1
sVdojekas
p4388
I1
sVd3uwf0g
p4389
I2
sVdmyerv3
p4390
I1
sVdg3rpvb
p4391
I1
sVd1h7a59
p4392
I1
sVdk3upf5
p4393
I1
sVdbu0faj
p4394
I2
sVdahoslo
p4395
I1
sVdnm86kz
p4396
I2
sVd0xmwsz
p4397
I1
sVcztcvv0
p4398
I1
sVdd5s4ir
p4399
I1
sVd9hzvjs
p4400
I1
sVdbbc77s
p4401
I1
sVdpypmfc
p4402
I1
sVdkokpja
p4403
I1
sVdbv646p
p4404
I2
sVdqplr1w
p4405
I1
sVdmzzlr5
p4406
I1
sVcyo0j95
p4407
I1
sVd26u8fx
p4408
I2
sVdejndwt
p4409
I1
sVdsljcdh
p4410
I1
sVd0d2na0
p4411
I1
sVcysj517
p4412
I1
sVdcrj0ww
p4413
I1
sVdqmei6d
p4414
I2
sVdc21z0r
p4415
I1
sVd2t4vn5
p4416
I1
sVdhnt3a9
p4417
I1
sVcz19j5x
p4418
I1
sVd62pp6x
p4419
I1
sVd2gdimn
p4420
I1
sVd9bxlwx
p4421
I1
sVczonkig
p4422
I1
sVdc02sog
p4423
I1
sVdjhua1q
p4424
I1
sVdg6cdbz
p4425
I1
sVddhu3az
p4426
I1
sVdd5brc3
p4427
I1
sVd2ppyza
p4428
I1
sVczymb1i
p4429
I1
sVdfgjeof
p4430
I1
sVd007r5h
p4431
I1
sVdbw8r8t
p4432
I1
sVd0c796i
p4433
I1
sVdcjw6c9
p4434
I1
sVd8azv36
p4435
I1
sVdgaaa8h
p4436
I1
sVd3jo1hu
p4437
I1
sVd2h7yw3
p4438
I1
sVd8rb4u6
p4439
I1
sVd08judi
p4440
I1
sVd50lhis
p4441
I2
sVd20r31c
p4442
I1
sVdi25z02
p4443
I1
sVd4lm5aq
p4444
I1
sVddtenv4
p4445
I1
sVd3u7jj5
p4446
I1
sVdiatp8d
p4447
I1
sVdi2y9dt
p4448
I1
sVdikg61s
p4449
I1
sVd2sqf5c
p4450
I2
sVd8ejwtg
p4451
I1
sVdhzte12
p4452
I1
sVd90bpx6
p4453
I3
sVczxl7ac
p4454
I1
sVdqhjtrt
p4455
I1
sVczcdlff
p4456
I1
sVdkvfv9m
p4457
I1
sVczu16kl
p4458
I2
sVd6qxvr0
p4459
I2
sVd6nviyn
p4460
I2
sVd7oglbw
p4461
I1
sVdn0esfu
p4462
I4
sVd3edme2
p4463
I2
sVdarnglf
p4464
I1
sVdnw8giu
p4465
I1
sVd5k9niu
p4466
I1
sVdfhnr7y
p4467
I1
sVdav96gy
p4468
I1
sVd9cpzle
p4469
I1
sVd508ztk
p4470
I1
sVdj0p62c
p4471
I5
sVda69xat
p4472
I1
sVdbprilg
p4473
I1
sVdkw2fl5
p4474
I1
sVd9b0ibr
p4475
I1
sVddplyhj
p4476
I3
sVd16bew8
p4477
I1
sVdcr1qre
p4478
I1
sVd7lcizd
p4479
I1
sVd7ofy41
p4480
I1
sVdbncv0u
p4481
I1
sVdn1dvfk
p4482
I2
sVdsb2gzg
p4483
I1
sVdcap8lk
p4484
I1
sVd2ehu62
p4485
I1
sVdps3ydf
p4486
I1
sVd624zs3
p4487
I1
sVde2otkx
p4488
I1
sVd2l3nc5
p4489
I1
sVd1zsg4r
p4490
I1
sVdaksu88
p4491
I1
sVdjaz3uf
p4492
I3
sVdhxp3n7
p4493
I1
sVdaas71u
p4494
I1
sVdbsnae3
p4495
I1
sVdfwuy61
p4496
I1
sVdfvd37g
p4497
I1
sVd2n2olg
p4498
I1
sVd1fmqc1
p4499
I1
sVd4hm95r
p4500
I2
sVdcff3hs
p4501
I1
sVcyyq9ni
p4502
I1
sVd8sqdja
p4503
I1
sVdi2c837
p4504
I1
sVdd5rq7e
p4505
I1
sVdmutd44
p4506
I1
sVdkliuue
p4507
I1
sVd07ouji
p4508
I1
sVcyu0c9o
p4509
I1
sVde11v2j
p4510
I2
sVdo024sh
p4511
I1
sVdj5vp89
p4512
I1
sVd8nepbe
p4513
I1
sVdhsmoa1
p4514
I2
sVdj8h111
p4515
I1
sVcylj14h
p4516
I1
sVdn9hp3r
p4517
I1
sVdnb2aqd
p4518
I1
sVcz2tmwi
p4519
I1
sVdj28559
p4520
I1
sVd09cdkc
p4521
I1
sVdmgh33o
p4522
I2
sVd5mkfz4
p4523
I2
sVdpmgdhw
p4524
I1
sVdmrb205
p4525
I1
sVczmbf9m
p4526
I1
sVdhm2o55
p4527
I1
sVdf45j2h
p4528
I1
sVdfq56cq
p4529
I1
sVd8btcme
p4530
I1
sVdj3p83t
p4531
I1
sVd5ivefi
p4532
I1
sVd0bjmmy
p4533
I1
sVda0u328
p4534
I1
sVd76n64v
p4535
I2
sVd8vii3v
p4536
I1
sVdiwye3n
p4537
I1
sVdsn5ozq
p4538
I1
sVd2dizbj
p4539
I1
sVdrbbwpj
p4540
I1
sVd807r5o
p4541
I1
sVd3362k4
p4542
I1
sVd0hdjx9
p4543
I1
sVd972cbz
p4544
I1
sVddyopd2
p4545
I1
sVdjadisr
p4546
I1
sVd1pw10n
p4547
I1
sVd14hx1o
p4548
I2
sVdgleb0y
p4549
I3
sVdixqqgk
p4550
I1
sVd5yeof6
p4551
I1
sVd8zd15e
p4552
I1
sVddia62x
p4553
I1
sVde0jf93
p4554
I1
sVdf3oeus
p4555
I1
sVd96wvnx
p4556
I1
sVdslh7q3
p4557
I1
sVdgymn9w
p4558
I1
sVdj1g99e
p4559
I1
sVd7hptdl
p4560
I1
sVd1mvxe6
p4561
I1
sVdsb3cnc
p4562
I2
sVdex2whv
p4563
I1
sVd79lur7
p4564
I1
sVddytwka
p4565
I1
sVdepq84q
p4566
I1
sVd7ms95u
p4567
I1
sVd91cart
p4568
I1
sVd1mml38
p4569
I1
sVd5neic8
p4570
I1
sVd2ehxge
p4571
I1
sVddfi5mf
p4572
I1
sVd8wwdlb
p4573
I1
sVd4mfj1d
p4574
I1
sVdax38ip
p4575
I1
sVd6rvsa2
p4576
I1
sVd0cmvuh
p4577
I2
sVdbtky0y
p4578
I1
sVdeataot
p4579
I1
sVdmg1yhx
p4580
I1
sVdfc3vqy
p4581
I1
sVd4moevh
p4582
I1
sVdtfqdgj
p4583
I2
sVdjgmqcn
p4584
I1
sVdn3gqya
p4585
I1
sVds6g092
p4586
I1
sVdfid57v
p4587
I1
sVcynaiht
p4588
I1
sVdfk4m3t
p4589
I2
sVd790sfn
p4590
I1
sVdb9laox
p4591
I1
sVdivnwt0
p4592
I1
sVd6j0rhl
p4593
I1
sVdkhtlkg
p4594
I1
sVdiktayq
p4595
I1
sVdt0hvxx
p4596
I1
sVd3vtk7r
p4597
I1
sVdp9g8gq
p4598
I1
sVdkf0e56
p4599
I1
sVcyi5ont
p4600
I1
sVdku0kjp
p4601
I1
sVdbvzkvq
p4602
I1
sVcz0sut1
p4603
I1
sVdf9ym1c
p4604
I1
sVd89wrj7
p4605
I1
sVd3w00so
p4606
I1
sVdj5aihe
p4607
I1
sVd6o292i
p4608
I1
sVds2mduk
p4609
I1
sVdbqxq3l
p4610
I1
sVd8g5638
p4611
I1
sVcz1fzqg
p4612
I1
sVdeudajf
p4613
I1
sVd10qcjq
p4614
I1
sVdca2b37
p4615
I1
sVd6r6d32
p4616
I2
sVdc3hipq
p4617
I1
sVdn9r41u
p4618
I1
sVdd8k4kf
p4619
I1
sVdahrtha
p4620
I1
sVdrhxyjp
p4621
I1
sVd5jh2gr
p4622
I1
sVd5iakel
p4623
I1
sVd1mc2cl
p4624
I2
sVd5a6v2m
p4625
I1
sVd88ttiv
p4626
I1
sVdb919ki
p4627
I1
sVdp09w9q
p4628
I1
sVd59p4jy
p4629
I1
sVdh1y01a
p4630
I1
sVd237zh3
p4631
I2
sVd2zhhb9
p4632
I1
sVddec5fm
p4633
I1
sVd8dxkva
p4634
I1
sVdklw1rg
p4635
I1
sVdmiutwf
p4636
I1
sVdo9lf3t
p4637
I1
sVd6wxqxd
p4638
I1
sVd3jnlu7
p4639
I1
sVdgbn20a
p4640
I2
sVd7b752f
p4641
I1
sVd50xi5c
p4642
I1
sVd0n7ngg
p4643
I1
sVdq8g73l
p4644
I1
sVd7gs4wy
p4645
I1
sVdcjar6j
p4646
I1
sVdrptf8h
p4647
I1
sVcz8az47
p4648
I1
sVd7tjxcp
p4649
I1
sVdjvphli
p4650
I1
sVdby50tw
p4651
I1
sVdtime9i
p4652
I1
sVdibq0ov
p4653
I1
sVd17azrr
p4654
I1
sVdaqj0bk
p4655
I1
sVds0d0vx
p4656
I1
sVd45u47n
p4657
I1
sVczzhucu
p4658
I1
sVdpj6g07
p4659
I1
sVd1lwmgm
p4660
I1
sVdprnngt
p4661
I1
sVdr85xr9
p4662
I1
sVd52nnxf
p4663
I1
sVcyw1cdm
p4664
I1
sVda5gqor
p4665
I1
sVd067eb6
p4666
I1
sVdompg0o
p4667
I1
sVd1vnym5
p4668
I2
sVd2bgpf4
p4669
I1
sVd9w1pdf
p4670
I1
sVd30k82z
p4671
I1
sVd2hjvmv
p4672
I1
sVdeghv17
p4673
I1
sVdrxs54c
p4674
I1
sVdih8aih
p4675
I1
sVdc29f3a
p4676
I1
sVdk99rdn
p4677
I1
sVd38l3ue
p4678
I1
sVd3esu58
p4679
I2
sVdkfrjj9
p4680
I1
sVd4h90e9
p4681
I4
sVdkkydz4
p4682
I1
sVd2f6v0o
p4683
I1
sVdh18fr0
p4684
I1
sVd3zji4p
p4685
I1
sVdfqatjv
p4686
I1
sVdhjqrm3
p4687
I1
sVdqhx27c
p4688
I1
sVcyjcmbv
p4689
I1
sVdq1x498
p4690
I1
sVdf2ddys
p4691
I1
sVdeny8j7
p4692
I1
sVdjq7929
p4693
I1
sVd18dn5k
p4694
I1
sVddo65gr
p4695
I1
sVdft142i
p4696
I1
sVd4zq9qp
p4697
I1
sVd61r50e
p4698
I1
sVd2t0k0x
p4699
I2
sVdhfyzov
p4700
I1
sVdpy7i8e
p4701
I1
sVd1gjubh
p4702
I2
sVd3n4xkr
p4703
I1
sVdeym4zr
p4704
I1
sVdr3i4my
p4705
I2
sVdqjsrk4
p4706
I1
sVdo5sdwi
p4707
I1
sVdcwiqjp
p4708
I1
sVde9phpg
p4709
I3
sVdb0jhd1
p4710
I1
sVdfriahj
p4711
I1
sVdo9oq32
p4712
I2
sVdihh3wg
p4713
I2
sVcz29tjf
p4714
I1
sVde1c62v
p4715
I1
sVddxptnd
p4716
I1
sVd9o8dgy
p4717
I1
sVd9p9olt
p4718
I1
sVd60s1la
p4719
I1
sVdqzkuru
p4720
I2
sVcz9lzt9
p4721
I1
sVd3nv94a
p4722
I1
sVd0ywnbo
p4723
I1
sVd0em3pd
p4724
I1
sVd572gmt
p4725
I1
sVd7tbtxc
p4726
I1
sVd239ctz
p4727
I1
sVd8twrqb
p4728
I1
sVdd8madf
p4729
I1
sVdd0kt40
p4730
I1
sVdd937wl
p4731
I1
sVddpwutl
p4732
I2
sVdfchfmp
p4733
I1
sVd2nx98z
p4734
I1
sVdsnss85
p4735
I1
sVdozaexi
p4736
I2
sVdnw5zje
p4737
I1
sVd525ona
p4738
I2
sVdagfc4k
p4739
I1
sVdbmdajs
p4740
I1
sVd1qadjt
p4741
I1
sVdq52sxn
p4742
I1
sVd73lbaq
p4743
I1
sVdr7ymci
p4744
I1
sVddnfft8
p4745
I1
sVdi0mzl2
p4746
I1
sVdn8j040
p4747
I1
sVd4striq
p4748
I1
sVdhc9uys
p4749
I1
sVd7kqsq7
p4750
I1
sVdfqawsv
p4751
I1
sVd62auve
p4752
I1
sVd046fui
p4753
I1
sVdhsx3vi
p4754
I1
sVczw3sbo
p4755
I1
sVdqumo7j
p4756
I2
sVdoktvzk
p4757
I1
sVdnkx43w
p4758
I1
sVdf7zisr
p4759
I2
sVddx9f9j
p4760
I1
sVdfj8fyk
p4761
I1
sVdi6gyha
p4762
I1
sVd3h1s9t
p4763
I1
sVdea2b9t
p4764
I1
sVdqaz6ap
p4765
I1
sVdj4qx8o
p4766
I1
sVd2nsm7w
p4767
I1
sVd8fgnzs
p4768
I1
sVdskrunl
p4769
I1
sVdgksutw
p4770
I1
sVdns79dk
p4771
I1
sVdfnu92r
p4772
I1
sVczqvqlx
p4773
I1
sVda6zhun
p4774
I1
sVd0wlj1o
p4775
I1
sVd69e936
p4776
I1
sVdpt468u
p4777
I1
sVd845g0v
p4778
I1
sVdibmir4
p4779
I2
sVcz3z9kw
p4780
I1
sVd3eit06
p4781
I1
sVd3vzl70
p4782
I1
sVdn9kvmu
p4783
I1
sVdqdcn2r
p4784
I1
sVdqw4v1o
p4785
I1
sVdr8cwv0
p4786
I1
sVd0ulcj0
p4787
I1
sVd5fkq9t
p4788
I2
sVdmg2cda
p4789
I1
sVdc6nntg
p4790
I1
sVcztaodt
p4791
I1
sVdr3hp2w
p4792
I1
sVcynqp4b
p4793
I1
sVd5eqd8q
p4794
I1
sVdcwm2ok
p4795
I1
sVdc12ggn
p4796
I1
sVd5hw2c4
p4797
I1
sVd0au5zm
p4798
I2
sVdr7p32s
p4799
I1
sVdk9tfzi
p4800
I1
sVdpzk8e3
p4801
I1
sVdsny3s0
p4802
I1
sVd1gn2ul
p4803
I1
sVd1yvu7n
p4804
I1
sVds2bjnk
p4805
I1
sVdanek74
p4806
I1
sVd2qdk4n
p4807
I1
sVdjjy6xg
p4808
I1
sVd71wzqd
p4809
I1
sVd206002
p4810
I1
sVd1siclo
p4811
I1
sVczd15ra
p4812
I1
sVdg2c34m
p4813
I1
sVdfp8s4d
p4814
I1
sVcz8b14w
p4815
I1
sVdmstlm9
p4816
I1
sVd8pjjky
p4817
I1
sVdojailk
p4818
I1
sVczvgvmk
p4819
I1
sVd00qj15
p4820
I1
sVdhiq9ln
p4821
I1
sVdfivfi1
p4822
I1
sVd7wwtic
p4823
I1
sVd8hijhv
p4824
I1
sVdaqcjp3
p4825
I1
sVdnb44qq
p4826
I2
sVdfh9232
p4827
I1
sVd07hcx3
p4828
I1
sVdstw328
p4829
I2
sVdopzuvt
p4830
I1
sVdktyc5q
p4831
I1
sVdobefsb
p4832
I1
sVd85uj8d
p4833
I1
sVd4jpp9x
p4834
I1
sVdez8rrn
p4835
I1
sVdebwgww
p4836
I1
sVddmmx7y
p4837
I1
sVdmuf6ew
p4838
I1
sVd4tm7fb
p4839
I2
sVdjuzyq6
p4840
I1
sVdf4f8u2
p4841
I1
sVdnq2veh
p4842
I1
sVdihr0kh
p4843
I1
sVdejbk54
p4844
I1
sVdaif6ue
p4845
I1
sVd824bkb
p4846
I2
sVdkgkihi
p4847
I2
sVdbf4nfq
p4848
I1
sVd1w0z7u
p4849
I1
sVdeysb6w
p4850
I2
sVd5q0kmi
p4851
I1
sVd0t6poq
p4852
I1
sVd6z7td3
p4853
I2
sVd2emfpp
p4854
I1
sVd1ch5g7
p4855
I1
sVcz8tum8
p4856
I1
sVdagbg0k
p4857
I1
sVdatumzd
p4858
I1
sVd7npeco
p4859
I2
sVd0xqlg7
p4860
I2
sVdmmgq12
p4861
I2
sVde7wk0x
p4862
I1
sVcyj9skh
p4863
I1
sVczi1j41
p4864
I2
sVddqgifh
p4865
I2
sVdbp18ls
p4866
I2
sVd5284xz
p4867
I2
sVd3x51a2
p4868
I1
sVdkm9cih
p4869
I1
sVdjp5hl2
p4870
I1
sVdedv9zx
p4871
I1
sVdpdcngw
p4872
I1
sVdcb4e2l
p4873
I1
sVcznf5rc
p4874
I2
sVdmj1bxl
p4875
I1
sVdi8mpvy
p4876
I1
sVdj2skx8
p4877
I1
sVdbx4vol
p4878
I1
sVdo4qnbl
p4879
I1
sVd1ddp1b
p4880
I1
sVdt7g4a5
p4881
I3
sVd24aysh
p4882
I1
sVdixr575
p4883
I1
sVd9prvkq
p4884
I1
sVd39gyma
p4885
I2
sVdsaaf4p
p4886
I2
sVcyp6t85
p4887
I1
sVdf61b03
p4888
I1
sVdpd4yb9
p4889
I1
sVdpwmjws
p4890
I1
sVdefop95
p4891
I1
sVdcijfrd
p4892
I1
sVdbpejvi
p4893
I1
sVd2accok
p4894
I2
sVd4qdefb
p4895
I1
sVdexfm1u
p4896
I1
sVdgtlwpk
p4897
I1
sVd7moeip
p4898
I1
sVddvj09p
p4899
I1
sVd9b756o
p4900
I2
sVczb5mm9
p4901
I1
sVdbxrdbw
p4902
I3
sVd08824q
p4903
I1
sVdiza2p7
p4904
I3
sVdgnuaix
p4905
I1
sVdn9c3w0
p4906
I2
sVdrmjknl
p4907
I1
sVd8h87gl
p4908
I1
sVdorh446
p4909
I1
sVdh3fp4i
p4910
I1
sVdnffi49
p4911
I3
sVczsa6y5
p4912
I1
sVdhsggku
p4913
I2
sVd7y8rky
p4914
I1
sVdbzs3bt
p4915
I1
sVdt8ogj0
p4916
I1
sVd5rbjb3
p4917
I4
sVdc729b8
p4918
I1
sVdkqt6l6
p4919
I1
sVder3zok
p4920
I1
sVdq6ovzg
p4921
I1
sVdmsh1ps
p4922
I1
sVdrctmoq
p4923
I1
sVdo6y3sz
p4924
I1
sVdslsgim
p4925
I1
sVdf24pwb
p4926
I1
sVd7rik06
p4927
I1
sVddmscjp
p4928
I1
sVd88c0uj
p4929
I1
sVd83ryzi
p4930
I1
sVd5poxal
p4931
I1
sVd8fss70
p4932
I1
sVdcjys5g
p4933
I1
sVd37baba
p4934
I1
sVcz8vyz1
p4935
I1
sVd2tj4ej
p4936
I3
sVdq9x99s
p4937
I1
sVdiuqyjf
p4938
I1
sVdikoq5e
p4939
I2
sVdjx61mx
p4940
I1
sVd9yhe4x
p4941
I1
sVd82mghy
p4942
I1
sVdt0flpg
p4943
I1
sVdfwsx47
p4944
I1
sVdo0p76i
p4945
I1
sVd398f3h
p4946
I1
sVdcue3xv
p4947
I1
sVdq8zgzc
p4948
I1
sVd7wigep
p4949
I1
sVdn1gkt6
p4950
I2
sVd2gsi5c
p4951
I1
sVd5aq6bs
p4952
I1
sVdc4dx1v
p4953
I2
sVdmuzidn
p4954
I1
sVdftq1z0
p4955
I1
sVd8yf97j
p4956
I1
sVdn86a44
p4957
I2
sVd26ekd0
p4958
I1
sVde6cg3v
p4959
I1
sVdfi9len
p4960
I1
sVczveect
p4961
I1
sVd49djcx
p4962
I1
sVda6wqgo
p4963
I1
sVdcivphp
p4964
I1
sVdfwu39r
p4965
I1
sVdbchdac
p4966
I1
sVcykezeo
p4967
I1
sVdbr5c99
p4968
I1
sVd3p13ma
p4969
I1
sVdjtkoyy
p4970
I2
sVdh1jza1
p4971
I1
sVdqijib4
p4972
I1
sVdf2v0y7
p4973
I1
sVdnn2nrr
p4974
I1
sVdkvqz25
p4975
I2
sVdqqqdke
p4976
I1
sVddgwg20
p4977
I1
sVdr0t85u
p4978
I3
sVdeerpbq
p4979
I1
sVdi2xpzy
p4980
I2
sVddhqduu
p4981
I1
sVdh8zjyy
p4982
I2
sVd6zg5nb
p4983
I1
sVd4rgnc8
p4984
I1
sVd56ek3f
p4985
I1
sVdfg3oga
p4986
I1
sVd785uzj
p4987
I1
sVdthn5zh
p4988
I1
sVdi6yhqd
p4989
I1
sVdbq35n9
p4990
I1
sVd54bdlw
p4991
I1
sVd0wfy47
p4992
I1
sVd1dt0c2
p4993
I1
sVczz1av0
p4994
I1
sVdc0ga8q
p4995
I1
sVcytw65m
p4996
I1
sVd27i2gd
p4997
I1
sVd9p588m
p4998
I1
sVdfcfmed
p4999
I2
sVd6cwqe3
p5000
I1
sVdkez9aj
p5001
I1
sVd3j8yez
p5002
I1
sVdc8agmx
p5003
I3
sVdch9zfx
p5004
I1
sVdexa1c0
p5005
I1
sVdeww814
p5006
I1
sVcyx2c3c
p5007
I1
sVdqdfiqj
p5008
I1
sVdo2oj1i
p5009
I1
sVdivfivr
p5010
I1
sVd87j9ly
p5011
I1
sVdppsb16
p5012
I1
sVddec3b5
p5013
I1
sVde3356r
p5014
I2
sVd8iburz
p5015
I3
sVdaqwn23
p5016
I1
sVd3poqca
p5017
I1
sVdhvgxbu
p5018
I1
sVddol5k1
p5019
I1
sVdb3ud2h
p5020
I1
sVczuwzm2
p5021
I2
sVdgj6qd4
p5022
I1
sVdg8mt3x
p5023
I2
sVd0icfmp
p5024
I4
sVd1kw03e
p5025
I1
sVd52mr72
p5026
I2
sVd26ubxt
p5027
I1
sVdnklkls
p5028
I1
sVcz7ixib
p5029
I1
sVdkuijye
p5030
I1
sVdr96e51
p5031
I1
sVdfkouvo
p5032
I2
sVd2tgktz
p5033
I1
sVdi6nm8r
p5034
I2
sVdadiapl
p5035
I2
sVd65o8qz
p5036
I2
sVddc8qz4
p5037
I1
sVdb60a65
p5038
I2
sVd7qwlix
p5039
I1
sVdqg3cb9
p5040
I1
sVd3f3j2j
p5041
I1
sVdmhd8gr
p5042
I1
sVdc2law3
p5043
I2
sVd2pxdn8
p5044
I1
sVd8lfa1c
p5045
I1
sVddnjolm
p5046
I2
sVddp6j1f
p5047
I2
sVd47yxhn
p5048
I1
sVdakq100
p5049
I1
sVds7pnc0
p5050
I1
sVdetiuut
p5051
I1
sVd58szp9
p5052
I1
sVdhwk0i2
p5053
I1
sVdg7jbke
p5054
I1
sVdg3i5h9
p5055
I1
sVdadgny7
p5056
I1
sVd504yrn
p5057
I1
sVd7ltnz0
p5058
I1
sVd9y6fad
p5059
I1
sVdt3ck1j
p5060
I1
sVdc3b6hv
p5061
I1
sVd5g5i0t
p5062
I2
sVdeb3i4i
p5063
I1
sVdnjwe7u
p5064
I1
sVdpsglrd
p5065
I1
sVdol2v0i
p5066
I1
sVdrt74l3
p5067
I1
sVd0r2md0
p5068
I1
sVdj1gb4n
p5069
I1
sVcz4cfzx
p5070
I1
sVd75tfsl
p5071
I1
sVdevghyl
p5072
I1
sVdqfk98l
p5073
I1
sVczj7uc0
p5074
I2
sVdgtcaa2
p5075
I2
sVd92ms8j
p5076
I1
sVd4aqwho
p5077
I1
sVd82zmv1
p5078
I1
sVdd1ya0k
p5079
I1
sVdopq038
p5080
I1
sVd1huxz0
p5081
I1
sVd3un7hb
p5082
I1
sVdsq1qii
p5083
I1
sVdd0dxmw
p5084
I1
sVdgqagb3
p5085
I1
sVdb4z9nt
p5086
I1
sVdeunaa1
p5087
I1
sVd53h1cp
p5088
I1
sVdebkms0
p5089
I1
sVd16j6s7
p5090
I1
sVd8wvs51
p5091
I1
sVdbh8s79
p5092
I1
sVd8kezf6
p5093
I2
sVcypr4rp
p5094
I1
sVdohcm00
p5095
I1
sVdh90wct
p5096
I1
sVczymhro
p5097
I1
sVd9v3qz9
p5098
I1
sVd3x3dsq
p5099
I1
sVdk0x93t
p5100
I1
sVdi30imn
p5101
I1
sVdcb4ny5
p5102
I1
sVdec7dcg
p5103
I3
sVczzri6t
p5104
I1
sVdnksmkc
p5105
I1
sVdhjxpr8
p5106
I1
sVddo9fpj
p5107
I2
sVd6mbl1e
p5108
I1
sVdmvqivy
p5109
I1
sVdec9809
p5110
I1
sVd7mab93
p5111
I1
sVddbrm9u
p5112
I1
sVdhjd6fo
p5113
I1
sVdnguo81
p5114
I1
sVdb199yy
p5115
I1
sVdfaiagw
p5116
I1
sVd5dactb
p5117
I1
sVcz1g53n
p5118
I1
sVczkj6fh
p5119
I1
sVd7mczkv
p5120
I1
sVd3wyrt0
p5121
I1
sVdrqal2p
p5122
I1
sVdiuomf5
p5123
I1
sVczxdgw8
p5124
I1
sVd2jra1k
p5125
I1
sVddd7ion
p5126
I3
sVdj4gs6t
p5127
I1
sVd708eaw
p5128
I1
sVdgvhe78
p5129
I1
sVdarvznn
p5130
I1
sVd0zw1z0
p5131
I2
sVd5kwnw5
p5132
I1
sVdh697au
p5133
I1
sVcyjhpng
p5134
I3
sVd64tuki
p5135
I1
sVd6l9g38
p5136
I1
sVdotekb2
p5137
I1
sVd38lo49
p5138
I2
sVddfo2ys
p5139
I1
sVdcgdqnk
p5140
I1
sVczkw841
p5141
I1
sVdk1t3jh
p5142
I1
sVdavjd2z
p5143
I1
sVd7fn1cx
p5144
I1
sVdikwc7m
p5145
I1
sVd3pbje3
p5146
I1
sVdkrycse
p5147
I1
sVdfvirdf
p5148
I1
sVd39hne7
p5149
I1
sVdr7aldg
p5150
I1
sVdbfehc1
p5151
I1
sVd5pyydw
p5152
I1
sVdblgbw2
p5153
I1
sVdcpq85z
p5154
I1
sVczvp8me
p5155
I1
sVdevvbra
p5156
I1
sVd0i9yjp
p5157
I1
sVdd61yop
p5158
I1
sVdpmsz42
p5159
I1
sVdfxwsdo
p5160
I1
sVda0dsw7
p5161
I1
sVd49nwkl
p5162
I1
sVdq2xrei
p5163
I1
sVd3cfjpl
p5164
I1
sVd2z2cnk
p5165
I3
sVcyyjm5f
p5166
I1
sVdbyk6ya
p5167
I1
sVde9b2wz
p5168
I1
sVdmv7brn
p5169
I1
sVd44js1h
p5170
I1
sVd836o97
p5171
I1
sVd0uir0a
p5172
I1
sVds5l12p
p5173
I1
sVd0c8dg4
p5174
I1
sVd4lftpc
p5175
I1
sVd0h6vty
p5176
I1
sVczitlqw
p5177
I1
sVd397c4u
p5178
I1
sVd98ixtm
p5179
I1
sVdc0jqj0
p5180
I2
sVcyj5330
p5181
I1
sVcyr36fa
p5182
I1
sVd0xr7yb
p5183
I1
sVdf44rkr
p5184
I1
sVd3ccgkw
p5185
I1
sVdi0exw2
p5186
I2
sVddzkn27
p5187
I1
sVd3wmvby
p5188
I1
sVd61utv2
p5189
I1
sVczb4ryk
p5190
I1
sVdc09pli
p5191
I1
sVdadci0m
p5192
I1
sVd4q1t95
p5193
I1
sVd1ksxwk
p5194
I1
sVdimek7w
p5195
I2
sVdo4vij1
p5196
I1
sVcyjol9u
p5197
I1
sVd9z55p6
p5198
I1
sVcypzup3
p5199
I1
sVdfhyly7
p5200
I1
sVd9bram7
p5201
I1
sVd50i049
p5202
I1
sVd90g24y
p5203
I1
sVdgsrvtf
p5204
I1
sVdksipgr
p5205
I1
sVdkcynjy
p5206
I1
sVd779fqi
p5207
I1
sVdfxmnnf
p5208
I1
sVdsidppj
p5209
I1
sVcypktgi
p5210
I1
sVdb39xnb
p5211
I1
sVdfk794l
p5212
I1
sVdj5gj5r
p5213
I1
sVdaxe8vh
p5214
I1
sVd1ok16z
p5215
I1
sVdkjpq72
p5216
I1
sVdkvgkly
p5217
I1
sVdbn7ru3
p5218
I1
sVd73duer
p5219
I1
sVd6bpu7u
p5220
I1
sVdfr69gu
p5221
I1
sVdf3l1yl
p5222
I2
sVdfnqkco
p5223
I1
sVdgar58i
p5224
I1
sVd85r2o6
p5225
I1
sVd9ccp9e
p5226
I1
sVd0h5u4t
p5227
I1
sVd05vupz
p5228
I1
sVd11puwu
p5229
I1
sVd1l54i9
p5230
I1
sVczhs2q4
p5231
I1
sVdihihqj
p5232
I1
sVd33usup
p5233
I1
sVd8ruozs
p5234
I1
sVd0zr6ke
p5235
I2
sVdi6z1vd
p5236
I1
sVd9bmix7
p5237
I1
sVdthlxdk
p5238
I1
sVczozql2
p5239
I1
sVd55o45z
p5240
I1
sVdi9bhmz
p5241
I1
sVcyrqi62
p5242
I2
sVdqo6ohj
p5243
I1
sVdknn8eu
p5244
I1
sVdi68id0
p5245
I1
sVdi0g9p6
p5246
I1
sVcyx9rc8
p5247
I1
sVdbyy718
p5248
I1
sVdio7s0m
p5249
I1
sVdh2dv5t
p5250
I1
sVd26n2xq
p5251
I1
sVcyuao26
p5252
I1
sVdnsnhky
p5253
I1
sVdqjneym
p5254
I1
sVd7h39aj
p5255
I2
sVdex0n62
p5256
I1
sVd9uiodh
p5257
I1
sVd3bep85
p5258
I1
sVde301wg
p5259
I1
sVdn7w80e
p5260
I1
sVd7bnw9a
p5261
I1
sVdn6jzyk
p5262
I1
sVd5m3avh
p5263
I1
sVdeibffw
p5264
I1
sVd9f08ta
p5265
I1
sVdptgf7c
p5266
I1
sVde3dl7n
p5267
I1
sVdp0wpy3
p5268
I1
sVdf1vtk4
p5269
I1
sVdqrbrdv
p5270
I1
sVdg1vil3
p5271
I1
sVd020l42
p5272
I1
sVddxcnnd
p5273
I2
sVdgxsgvy
p5274
I1
sVczncxmk
p5275
I1
sVd00hiw2
p5276
I1
sVd6hxdn8
p5277
I1
sVdcgv9zn
p5278
I1
sVdk051va
p5279
I1
sVdcb6nuh
p5280
I1
sVdo5edc8
p5281
I1
sVdb9p1jt
p5282
I1
sVcz2ntbd
p5283
I1
sVdckpld0
p5284
I1
sVd04la6v
p5285
I1
sVd999ya9
p5286
I2
sVdj59z7f
p5287
I1
sVd0dlenw
p5288
I3
sVdgewlbq
p5289
I1
sVd8g5g6h
p5290
I1
sVdaw460v
p5291
I1
sVdr3b18h
p5292
I1
sVd2au12f
p5293
I1
sVd21qygb
p5294
I1
sVdqt2qb6
p5295
I1
sVdkxypsg
p5296
I1
sVd05wztg
p5297
I1
sVcywh0o2
p5298
I1
sVdeuyu41
p5299
I1
sVdsq5h7y
p5300
I1
sVderqbk4
p5301
I1
sVcz5oq05
p5302
I2
sVd32tlxx
p5303
I1
sVdev313f
p5304
I1
sVczk08m5
p5305
I1
sVd2kkplo
p5306
I2
sVd3h207x
p5307
I2
sVdbor7b1
p5308
I1
sVd121ztm
p5309
I1
sVdml5d7f
p5310
I2
sVdavbw7j
p5311
I1
sVd4f63es
p5312
I2
sVd8tbs8o
p5313
I1
sVdgh2kos
p5314
I1
sVd10sh9h
p5315
I1
sVdhtb21s
p5316
I1
sVd1h992u
p5317
I1
sVd850odq
p5318
I1
sVd3facta
p5319
I3
sVdmkqro8
p5320
I1
sVd84c1el
p5321
I1
sVdbinaqj
p5322
I1
sVd64di6k
p5323
I1
sVde5uhfk
p5324
I2
sVde6rcpc
p5325
I1
sVdht34xr
p5326
I1
sVd9wtik5
p5327
I1
sVd5k73jk
p5328
I2
sVd8yvrg8
p5329
I2
sVd9sm6rd
p5330
I1
sVcyozymb
p5331
I1
sVdhnhsnh
p5332
I1
sVd33acv5
p5333
I1
sVdc70fi7
p5334
I1
sVd4w23du
p5335
I1
sVdgvxab4
p5336
I2
sVd5uqev0
p5337
I1
sVdbckqmv
p5338
I1
sVd5b0dj6
p5339
I1
sVd9u7j7j
p5340
I1
sVde7t2cl
p5341
I1
sVdk1yaty
p5342
I1
sVd2xvdl7
p5343
I1
sVdj5bzop
p5344
I1
sVdaf5o4v
p5345
I1
sVd14hga6
p5346
I1
sVdrrfzwm
p5347
I1
sVdh63mfj
p5348
I1
sVdakosw9
p5349
I1
sVd2ssmzj
p5350
I1
sVd9kr7j4
p5351
I1
sVdmm7uzz
p5352
I1
sVdnfyekr
p5353
I1
sVd1xfrnz
p5354
I1
sVdgtbq9z
p5355
I2
sVd88v6hz
p5356
I1
sVd13r338
p5357
I1
sVdfrqbra
p5358
I1
sVd57a891
p5359
I1
sVdjhfz0v
p5360
I2
sVdp4s534
p5361
I1
sVdqsbqao
p5362
I1
sVd4xd17n
p5363
I1
sVdafb4ox
p5364
I1
sVcz5em1t
p5365
I1
sVd9agry2
p5366
I1
sVddimw6m
p5367
I1
sVd5b7wv0
p5368
I1
sVdbnhc02
p5369
I1
sVdrunrej
p5370
I1
sVdnjh1ok
p5371
I1
sVdqcvok0
p5372
I1
sVd8jabsq
p5373
I1
sVdawx38m
p5374
I1
sVdb3u6ig
p5375
I1
sVdkbjwlh
p5376
I1
sVd04wrkf
p5377
I1
sVd5qb6ye
p5378
I1
sVcyyd1qi
p5379
I1
sVdi6dwra
p5380
I3
sVdscp0pq
p5381
I1
sVd7w3m6o
p5382
I1
sVd1dely5
p5383
I1
sVczcb3xu
p5384
I1
sVdd453i6
p5385
I2
sVd5064un
p5386
I1
sVdkx0d0p
p5387
I1
sVd8g58ff
p5388
I1
sVdbntdev
p5389
I2
sVd9livfc
p5390
I1
sVd3jro7e
p5391
I2
sVd68p2ye
p5392
I1
sVdgbqryt
p5393
I1
sVd8j06mz
p5394
I1
sVdb0xe4z
p5395
I1
sVdd674y7
p5396
I1
sVd4g0cbz
p5397
I2
sVdheoi62
p5398
I1
sVdj4t9qe
p5399
I1
sVd0vnbxv
p5400
I1
sVd7wl8oj
p5401
I1
sVdnfxnwr
p5402
I1
sVdcrl3jg
p5403
I1
sVdemdtt7
p5404
I1
sVd2iu1au
p5405
I1
sVddwnr7y
p5406
I1
sVddgm6pu
p5407
I1
sVdakdomr
p5408
I2
sVdfxqcs7
p5409
I1
sVd3ayn81
p5410
I1
sVdseth3y
p5411
I1
sVd076v0z
p5412
I1
sVdgdksqs
p5413
I1
sVd1g82om
p5414
I1
sVd1exmp3
p5415
I1
sVczg4gsg
p5416
I1
sVdjbkw1n
p5417
I1
sVddwmdvk
p5418
I1
sVd2ydl12
p5419
I1
sVdgk6q1v
p5420
I1
sVdqh22kt
p5421
I1
sVdmyu0qb
p5422
I1
sVd1lw9bv
p5423
I1
sVdh9yw2m
p5424
I1
sVd05qhjs
p5425
I1
sVdftsu7c
p5426
I1
sVd5858bo
p5427
I1
sVdeebhzd
p5428
I1
sVd21rnmh
p5429
I1
sVdjsi34g
p5430
I1
sVd333yw8
p5431
I1
sVcyia4x0
p5432
I1
sVd4ulq2c
p5433
I1
sVdqlf59j
p5434
I1
sVdbczl9b
p5435
I1
sVd4bt747
p5436
I1
sVdbcl8es
p5437
I1
sVd1s8cis
p5438
I1
sVd7o5r0x
p5439
I1
sVd49zdlm
p5440
I1
sVdpnkmt6
p5441
I1
sVdgl11ol
p5442
I1
sVcyrpxy6
p5443
I1
sVdie30oo
p5444
I1
sVdi00e8a
p5445
I1
sVdpj42h8
p5446
I1
sVdnet9ej
p5447
I1
sVd7rufbq
p5448
I2
sVdc2k7a0
p5449
I1
sVdnj8duf
p5450
I1
sVdfbeaa4
p5451
I1
sVd17t529
p5452
I1
sVdiswebr
p5453
I1
sVdels1gm
p5454
I1
sVdaoqkpk
p5455
I1
sVdhy87t9
p5456
I1
sVd80i9hj
p5457
I1
sVdbalor8
p5458
I1
sVdeoo8ny
p5459
I4
sVdfs0kd3
p5460
I1
sVde8pslh
p5461
I1
sVdozd8p5
p5462
I1
sVdqxbsgx
p5463
I1
sVdj1qszn
p5464
I1
sVdazflzd
p5465
I1
sVdgw8d10
p5466
I1
sVdi1z1cj
p5467
I1
sVdehwzgf
p5468
I1
sVd18yyci
p5469
I1
sVcz5fhb3
p5470
I1
sVd6kqvet
p5471
I1
sVd3bu5on
p5472
I1
sVdhtgpvq
p5473
I1
sVczcmf4o
p5474
I1
sVd0ay59e
p5475
I1
sVd4vo3mw
p5476
I1
sVde84o2d
p5477
I1
sVdh5559m
p5478
I1
sVde3fflw
p5479
I1
sVdi6mpxg
p5480
I1
sVdj263ik
p5481
I1
sVd95oai9
p5482
I1
sVdb534od
p5483
I1
sVdbv46g3
p5484
I1
sVd45bqvw
p5485
I1
sVdpy2guu
p5486
I1
sVdqlb04f
p5487
I1
sVdoeeeb8
p5488
I1
sVdbx5m0f
p5489
I1
sVdbp5rn2
p5490
I1
sVddyn1es
p5491
I2
sVdirhmpb
p5492
I1
sVdksldi1
p5493
I1
sVdmq2s7h
p5494
I1
sVdrcu4bi
p5495
I2
sVd26ddwa
p5496
I1
sVdn8inod
p5497
I2
sVd3eowdi
p5498
I1
sVdd8h3li
p5499
I1
sVds159b8
p5500
I1
sVdd5juc5
p5501
I1
sVcyz9scd
p5502
I1
sVdhwu3fj
p5503
I1
sVdtjejl7
p5504
I1
sVde4vxrj
p5505
I2
sVd25ddar
p5506
I1
sVdih62e2
p5507
I2
sVd7kodf1
p5508
I1
sVd8v1dvs
p5509
I2
sVdsa1vgz
p5510
I1
sVd6kjrgo
p5511
I1
sVdke6nlv
p5512
I1
sVcyytkeb
p5513
I1
sVd2sm2m8
p5514
I1
sVd0t08wy
p5515
I1
sVda6zsdf
p5516
I2
sVdik2rny
p5517
I1
sVd66tihm
p5518
I1
sVdt7ya8n
p5519
I1
sVd41guwv
p5520
I1
sVd2mf2xb
p5521
I1
sVd25oxa6
p5522
I1
sVczgq7ob
p5523
I1
sVd60ozlh
p5524
I1
sVdq4av8q
p5525
I1
sVdqflncn
p5526
I3
sVd2vkpuj
p5527
I1
sVd34yu5o
p5528
I1
sVdopcp11
p5529
I1
sVdkrok5f
p5530
I1
sVd9c6971
p5531
I1
sVd0l2nb8
p5532
I1
sVcz28zt8
p5533
I1
sVdfowvoi
p5534
I1
sVdbqizk1
p5535
I1
sVdiejnjq
p5536
I1
sVd63qu3p
p5537
I1
sVd4es5gu
p5538
I1
sVd8zyt0y
p5539
I1
sVdh9ptjq
p5540
I1
sVdjlmcq8
p5541
I2
sVdiernyt
p5542
I1
sVdszwyb6
p5543
I3
sVd1q93yz
p5544
I1
sVd0y5qgg
p5545
I1
sVd1rrx2b
p5546
I1
sVdassp1l
p5547
I1
sVdcbt3yh
p5548
I1
sVdbwt4wy
p5549
I1
sVdgm0rwp
p5550
I1
sVdrnjyzo
p5551
I1
sVcz9tton
p5552
I1
sVd8sh8sh
p5553
I1
sVdeml4fn
p5554
I2
sVdnrafqp
p5555
I1
sVddgczxy
p5556
I1
sVderhryv
p5557
I1
sVddm93a4
p5558
I1
sVdekvgqs
p5559
I1
sVdjcdf92
p5560
I2
sVdel4e4v
p5561
I1
sVdjlvuyo
p5562
I1
sVdez7gtk
p5563
I1
sVdcexve4
p5564
I4
sVd42frjv
p5565
I1
sVdb0gqdz
p5566
I1
sVd6z1e6o
p5567
I1
sVdjjj8ie
p5568
I1
sVdb0c9ne
p5569
I1
sVcyxa916
p5570
I1
sVd8kjyne
p5571
I1
sVd61h6xi
p5572
I1
sVdafzmlv
p5573
I1
sVczsi7gb
p5574
I1
sVdca2p0o
p5575
I1
sVcyu5q9d
p5576
I1
sVdd88apy
p5577
I1
sVdp7crwz
p5578
I1
sVd33zxec
p5579
I2
sVdgt348i
p5580
I1
sVcyooa2x
p5581
I1
sVdgyh8zj
p5582
I1
sVdaypmmy
p5583
I1
sVdnx356r
p5584
I1
sVdgga1k2
p5585
I1
sVd8swx11
p5586
I1
sVd40x5u9
p5587
I1
sVd96ltjb
p5588
I2
sVd780w8u
p5589
I1
sVdbz3oxx
p5590
I1
sVd5lcq44
p5591
I1
sVdbdd3fx
p5592
I1
sVdrrfr1a
p5593
I3
sVd4hzmbj
p5594
I1
sVd08smck
p5595
I1
sVd33c56q
p5596
I1
sVd40duou
p5597
I1
sVdfkozho
p5598
I1
sVd55jonr
p5599
I1
sVd202jbq
p5600
I1
sVd8ebhec
p5601
I1
sVds1v3fe
p5602
I1
sVdqxkpud
p5603
I2
sVd0ygns1
p5604
I1
sVd8qc2uc
p5605
I1
sVdi6pzyc
p5606
I1
sVddbymwg
p5607
I1
sVdgthaft
p5608
I1
sVczrn4kw
p5609
I1
sVdhvv0wq
p5610
I1
sVdhv6vpu
p5611
I1
sVdrzz40p
p5612
I1
sVdgbdavz
p5613
I1
sVd086lsb
p5614
I1
sVdjf168q
p5615
I1
sVdistfw7
p5616
I1
sVdawtbz7
p5617
I1
sVd09almv
p5618
I1
sVdh8rj4b
p5619
I1
sVdk0d3m2
p5620
I1
sVcynwc67
p5621
I1
s.