(dp0
Vczm636i
p1
I1
s.(dp0
Vd4wqbmx
p1
I1
sVczm636i
p2
I1
s.(dp0
Vd889zk3
p1
I1
sVczm636i
p2
I1
s.(dp0
Vd8rn16t
p1
I1
sVczm636i
p2
I1
s.(dp0
Vdbkby42
p1
I1
sVczm636i
p2
I1
s.(dp0
Vdehf2js
p1
I1
sVczm636i
p2
I1
s.