(dp0
Vcyib5d4
p1
I1
s.(dp0
Vcyib5d4
p1
I2
s.(dp0
Vcyib5d4
p1
I1
sVcyj1gvq
p2
I1
s.(dp0
Vcyib5d4
p1
I1
sVcyjkrv8
p2
I1
s.(dp0
Vcyib5d4
p1
I1
sVcykn7dt
p2
I1
s.(dp0
Vcyib5d4
p1
I1
sVcyl36i8
p2
I1
s.(dp0
Vcyib5d4
p1
I1
sVcynw2fu
p2
I1
s.(dp0
Vcyqtgtq
p1
I1
sVcyib5d4
p2
I1
s.(dp0
Vcyv58q5
p1
I1
sVcyib5d4
p2
I1
s.(dp0
Vcyib5d4
p1
I1
sVcyyos8b
p2
I1
s.(dp0
Vcyib5d4
p1
I1
sVcyz2ent
p2
I1
s.(dp0
Vcyib5d4
p1
I1
sVcyzli4i
p2
I1
s.(dp0
Vcyib5d4
p1
I1
sVcz1wwjt
p2
I1
s.(dp0
Vcyib5d4
p1
I1
sVcz1wxte
p2
I1
s.(dp0
Vcyib5d4
p1
I1
sVcz1x3ah
p2
I1
s.(dp0
Vcz1ywb5
p1
I1
sVcyib5d4
p2
I1
s.(dp0
Vcz2ic3a
p1
I1
sVcyib5d4
p2
I1
s.(dp0
Vcz51oho
p1
I1
sVcyib5d4
p2
I1
s.(dp0
Vcyib5d4
p1
I1
sVcz5bkbg
p2
I1
s.(dp0
Vcyib5d4
p1
I1
sVczmh349
p2
I1
s.(dp0
Vcyib5d4
p1
I1
sVczob3oc
p2
I1
s.(dp0
Vcyib5d4
p1
I1
sVczswlxy
p2
I1
s.(dp0
Vcyib5d4
p1
I1
sVczuj3wf
p2
I1
s.(dp0
Vcyib5d4
p1
I1
sVczzozdy
p2
I1
s.(dp0
Vcyib5d4
p1
I1
sVd09d301
p2
I1
s.(dp0
Vd09ees1
p1
I1
sVcyib5d4
p2
I1
s.(dp0
Vd09ees1
p1
I1
sVcyib5d4
p2
I1
s.(dp0
Vcyib5d4
p1
I1
sVd09xfjd
p2
I1
s.(dp0
Vcyib5d4
p1
I1
sVd0a3occ
p2
I1
s.(dp0
Vcyib5d4
p1
I1
sVd0fjs7l
p2
I1
s.(dp0
Vcyib5d4
p1
I1
sVd0mrqba
p2
I1
s.(dp0
Vcyib5d4
p1
I1
sVd0nmwsw
p2
I1
s.(dp0
Vcyib5d4
p1
I1
sVd0omo8o
p2
I1
s.(dp0
Vcyib5d4
p1
I1
sVd0s28eg
p2
I1
s.(dp0
Vcyib5d4
p1
I1
sVd0u19ds
p2
I1
s.(dp0
Vcyib5d4
p1
I1
sVd0vx8hq
p2
I1
s.(dp0
Vcyib5d4
p1
I1
sVd0xqub8
p2
I1
s.(dp0
Vd12ne3l
p1
I1
sVcyib5d4
p2
I1
s.(dp0
Vd1duagg
p1
I1
sVcyib5d4
p2
I1
s.(dp0
Vcyib5d4
p1
I1
sVd1dy3f9
p2
I1
s.(dp0
Vcyib5d4
p1
I1
sVd1e4fu4
p2
I1
s.(dp0
Vcyib5d4
p1
I1
sVd1exjsi
p2
I1
s.(dp0
Vcyib5d4
p1
I1
sVd1pp23w
p2
I1
s.(dp0
Vcyib5d4
p1
I1
sVd1uym6f
p2
I1
s.(dp0
Vd1yj4kb
p1
I1
sVcyib5d4
p2
I1
s.(dp0
Vd1yj4kb
p1
I1
sVcyib5d4
p2
I1
s.(dp0
Vcyib5d4
p1
I1
sVd226tsh
p2
I1
s.(dp0
Vcyib5d4
p1
I1
sVd22b21d
p2
I1
s.(dp0
Vcyib5d4
p1
I1
sVd2adwdf
p2
I1
s.(dp0
Vcyib5d4
p1
I1
sVd2d0zue
p2
I1
s.(dp0
Vcyib5d4
p1
I1
sVd2de27o
p2
I1
s.(dp0
Vcyib5d4
p1
I1
sVd2h5k02
p2
I1
s.(dp0
Vcyib5d4
p1
I1
sVd2smpkv
p2
I1
s.(dp0
Vcyib5d4
p1
I1
sVd2z2pfu
p2
I1
s.(dp0
Vcyib5d4
p1
I1
sVd2zzz4q
p2
I1
s.(dp0
Vcyib5d4
p1
I1
sVd348vzd
p2
I1
s.(dp0
Vcyib5d4
p1
I1
sVd3bl2tf
p2
I1
s.(dp0
Vd3eu71l
p1
I1
sVcyib5d4
p2
I1
s.(dp0
Vcyib5d4
p1
I1
sVd3fkt26
p2
I1
s.(dp0
Vd3gisnk
p1
I1
sVcyib5d4
p2
I1
s.(dp0
Vcyib5d4
p1
I1
sVd3icbd6
p2
I1
s.(dp0
Vcyib5d4
p1
I1
sVd3jgc17
p2
I1
s.(dp0
Vcyib5d4
p1
I1
sVd3jgc17
p2
I1
s.(dp0
Vcyib5d4
p1
I1
sVd3jgc17
p2
I1
s.(dp0
Vcyib5d4
p1
I1
sVd3jgc17
p2
I1
s.(dp0
Vcyib5d4
p1
I1
sVd3u8eod
p2
I1
s.(dp0
Vcyib5d4
p1
I1
sVd3u8eod
p2
I1
s.(dp0
Vcyib5d4
p1
I1
sVd3uycfh
p2
I1
s.(dp0
Vcyib5d4
p1
I1
sVd3waqng
p2
I1
s.(dp0
Vcyib5d4
p1
I1
sVd40za02
p2
I1
s.(dp0
Vcyib5d4
p1
I1
sVd43okd9
p2
I1
s.(dp0
Vd43puxy
p1
I1
sVcyib5d4
p2
I1
s.(dp0
Vcyib5d4
p1
I1
sVd49038p
p2
I1
s.(dp0
Vcyib5d4
p1
I1
sVd492rds
p2
I1
s.(dp0
Vcyib5d4
p1
I1
sVd492rds
p2
I1
s.(dp0
Vcyib5d4
p1
I1
sVd49sgxq
p2
I1
s.(dp0
Vcyib5d4
p1
I1
sVd4drvm7
p2
I1
s.(dp0
Vcyib5d4
p1
I1
sVd4drvm7
p2
I1
s.(dp0
Vcyib5d4
p1
I1
sVd4drvm7
p2
I1
s.(dp0
Vcyib5d4
p1
I1
sVd4dx9gf
p2
I1
s.(dp0
Vcyib5d4
p1
I1
sVd4ha3t2
p2
I1
s.(dp0
Vcyib5d4
p1
I1
sVd4m253v
p2
I1
s.(dp0
Vcyib5d4
p1
I1
sVd4m253v
p2
I1
s.(dp0
Vd4n69h2
p1
I1
sVcyib5d4
p2
I1
s.(dp0
Vcyib5d4
p1
I1
sVd4rhboo
p2
I1
s.(dp0
Vcyib5d4
p1
I1
sVd4tuwu5
p2
I1
s.(dp0
Vcyib5d4
p1
I1
sVd4u8doh
p2
I1
s.(dp0
Vd4u957q
p1
I1
sVcyib5d4
p2
I1
s.(dp0
Vcyib5d4
p1
I1
sVd58bzc0
p2
I1
s.(dp0
Vcyib5d4
p1
I1
sVd5b7ee1
p2
I1
s.(dp0
Vcyib5d4
p1
I1
sVd5cs41c
p2
I1
s.(dp0
Vcyib5d4
p1
I1
sVd5cs41c
p2
I1
s.(dp0
Vcyib5d4
p1
I1
sVd5cs41c
p2
I1
s.(dp0
Vcyib5d4
p1
I1
sVd5cu7kc
p2
I1
s.(dp0
Vcyib5d4
p1
I1
sVd5cud8z
p2
I1
s.(dp0
Vcyib5d4
p1
I1
sVd5t5sok
p2
I1
s.(dp0
Vd5t9cbr
p1
I1
sVcyib5d4
p2
I1
s.(dp0
Vd5t9cbr
p1
I1
sVcyib5d4
p2
I1
s.(dp0
Vd5x2l8z
p1
I1
sVcyib5d4
p2
I1
s.(dp0
Vcyib5d4
p1
I1
sVd60e5iv
p2
I1
s.(dp0
Vcyib5d4
p1
I1
sVd64f7g7
p2
I1
s.(dp0
Vcyib5d4
p1
I1
sVd64f7g7
p2
I1
s.(dp0
Vcyib5d4
p1
I1
sVd651ts0
p2
I1
s.(dp0
Vcyib5d4
p1
I1
sVd690pkc
p2
I1
s.(dp0
Vcyib5d4
p1
I1
sVd6f5g23
p2
I1
s.(dp0
Vcyib5d4
p1
I1
sVd6j4jsr
p2
I1
s.(dp0
Vcyib5d4
p1
I1
sVd6j4jsr
p2
I1
s.(dp0
Vcyib5d4
p1
I1
sVd6k44h3
p2
I1
s.(dp0
Vcyib5d4
p1
I1
sVd6(dp0
Vcyib5d4
p1
I1
sVdtel7za
p2
I1
s.