(dp0
Vds70v2w
p1
I1
sVd11h28g
p2
I1
sVd5ysgoh
p3
I1
sVd1721pf
p4
I1
sVd4c9sf2
p5
I1
sVd563ss8
p6
I1
sVdkcbqju
p7
I1
sVdrp6q5i
p8
I3
sVd25958i
p9
I1
sVdf6amx5
p10
I1
sVdet2ivw
p11
I2
sVd76mrxj
p12
I1
sVcyr36fa
p13
I1
sVdaesv2n
p14
I1
sVdo27sbc
p15
I1
sVdncofy8
p16
I1
sVdso322w
p17
I1
sVdcmb4o0
p18
I1
sVczw6i8i
p19
I1
sVd33ml42
p20
I1
sVdc7tay2
p21
I1
sVdk2xrlt
p22
I1
sVd0w4guz
p23
I1
sVdatn4ek
p24
I1
sVczkwocd
p25
I1
sVd35brem
p26
I1
sVd91zvv1
p27
I1
sVd6r99gl
p28
I1
sVczitwm6
p29
I1
sVd0ddzn6
p30
I1
sVd1opnzx
p31
I1
sVddyq5dl
p32
I1
sVd89m6ow
p33
I1
sVd4bx4xi
p34
I1
sVdnyc4e2
p35
I1
sVdbb3b16
p36
I1
sVd3qk61z
p37
I1
sVczirst8
p38
I1
sVd11f4r1
p39
I1
sVd17kxsc
p40
I1
sVd8hmek1
p41
I1
sVdb6p1rg
p42
I1
sVdes3i0e
p43
I1
sVdcrx269
p44
I1
sVcz5cshh
p45
I1
sVdal2gqb
p46
I1
sVd7ndyxg
p47
I1
sVd4po4za
p48
I2
sVdk1vbhs
p49
I2
sVdp7psi0
p50
I1
sVdmfouxl
p51
I1
sVdnbmiz3
p52
I4
sVd3eto5p
p53
I1
sVcylit8j
p54
I1
sVd123y8z
p55
I1
sVdc5uvbf
p56
I1
sVd4fm1j1
p57
I1
sVdqdxzc9
p58
I1
sVczj13iw
p59
I6
sVds26dkq
p60
I1
sVd6pr835
p61
I1
sVdrf6fu4
p62
I1
sVd8kkqdu
p63
I1
sVcyn23jh
p64
I1
sVd0ct7rp
p65
I1
sVd0ko2hz
p66
I1
sVdnozner
p67
I1
sVdqsrl2b
p68
I1
sVd8zyndk
p69
I1
sVdan8ws3
p70
I1
sVdjv2tvn
p71
I1
sVdql1e43
p72
I1
sVdqpdm4o
p73
I1
sVd2o5nms
p74
I1
sVd66n3e1
p75
I1
sVdrp379v
p76
I2
sVdrlymo1
p77
I1
sVd4un7ut
p78
I1
sVd0fcdmf
p79
I1
sVdpmj5kd
p80
I2
sVdq1z1fm
p81
I2
sVdpbiszc
p82
I1
sVddy74dw
p83
I1
sVdp9xsv0
p84
I1
sVczrlco9
p85
I1
sVdfr69gu
p86
I1
sVdropgav
p87
I5
sVdsnrp2v
p88
I1
sVd4f465a
p89
I1
sVdjlbb04
p90
I1
sVd08zxe0
p91
I1
sVdnqs7ou
p92
I1
sVdew165v
p93
I2
sVd11gyc1
p94
I1
sVd5skn4u
p95
I1
sVdatq3uq
p96
I1
sVd38lo49
p97
I1
sVdpcci3l
p98
I3
sVdjbdhlb
p99
I1
sVd7id41r
p100
I1
sVd1oc78v
p101
I1
sVd8mpdse
p102
I1
sVd21ptvq
p103
I1
sVd4mg480
p104
I2
sVdk2vp88
p105
I1
sVd5hxjl8
p106
I1
sVdrt88tq
p107
I1
sVdoj400j
p108
I1
sVd83v108
p109
I1
sVdks39b1
p110
I1
sVdjzo6ow
p111
I1
sVcyrdoy9
p112
I1
sVdjgdwmc
p113
I1
sVddqluh5
p114
I3
sVdiyteex
p115
I2
sVdcq6yyw
p116
I1
sVdfb4lav
p117
I1
sVdhtrclk
p118
I1
sVdjvhsxi
p119
I1
sVdcbc5hc
p120
I1
sVd177xni
p121
I3
sVd9e9d3p
p122
I1
sVczyp1d9
p123
I1
sVdjjox8h
p124
I1
sVdt6p9k2
p125
I1
sVd55r0z1
p126
I4
sVd0ec0hm
p127
I1
sVdf8k36n
p128
I1
sVd1jovgf
p129
I1
sVd91aa4l
p130
I1
sVdrpbhl6
p131
I4
sVdcdsxrn
p132
I1
sVd1bp5fi
p133
I1
sVdmpdbju
p134
I1
sVdqjn35n
p135
I1
sVdirkbqq
p136
I1
sVd1jofbm
p137
I1
sVdcq7a8u
p138
I1
sVdj5vi4n
p139
I2
sVdrt74l3
p140
I1
sVd9qyc1d
p141
I1
sVdejdyx3
p142
I1
sVd1zjkki
p143
I2
sVdgbabbf
p144
I2
sVd0qnguk
p145
I1
sVdo2nwij
p146
I1
sVcylg1be
p147
I1
sVd2uyw0y
p148
I1
sVdevm9uz
p149
I1
sVdci3c3t
p150
I1
sVdqyk4vl
p151
I1
sVd5faxp5
p152
I1
sVdde3ulk
p153
I1
sVdde0yxy
p154
I1
sVdp5gn44
p155
I1
sVdq34yxg
p156
I1
sVd5l17dq
p157
I1
sVdkcc2lv
p158
I1
sVczfd76l
p159
I1
sVcypis8w
p160
I1
sVd15hoxq
p161
I1
sVdrovdk2
p162
I2
sVdsnrxvj
p163
I1
sVd7nx8j5
p164
I1
sVd8453ns
p165
I1
sVdpgnjuh
p166
I1
sVdrp2vtj
p167
I3
sVd2dizbj
p168
I1
sVd4mfi2y
p169
I1
sVd1utwsy
p170
I1
sVdk8fw89
p171
I1
sVd1bm0v8
p172
I1
sVdrozc37
p173
I3
sVdegxpxs
p174
I1
sVdemqrd2
p175
I1
sVczeoe8w
p176
I1
sVdsmiebb
p177
I1
s.