(dp0
Vdgs3ig8
p1
I1
sVd6eu0rf
p2
I1
sVddibk82
p3
I1
sVdg5wfku
p4
I1
sVdd1f6wr
p5
I1
sVczmapaw
p6
I1
sVdd4d9j5
p7
I1
sVd4wv6s7
p8
I1
sVd7bymiu
p9
I1
sVd6ge6me
p10
I1
sVdkqnh3s
p11
I1
sVd6guiy7
p12
I1
sVdg2bbmz
p13
I1
sVd2ttgci
p14
I1
sVdhldd3n
p15
I1
sVdcktlv6
p16
I1
sVd13jj1z
p17
I1
sVdenevf7
p18
I1
sVd36md2q
p19
I1
sVczzl5ip
p20
I1
sVdef8v2j
p21
I1
sVdecm8pq
p22
I1
sVd0n8abl
p23
I1
sVddhhg58
p24
I1
sVdnczxjh
p25
I1
sVdbv682f
p26
I1
sVd80ou20
p27
I1
sVdd3e7lo
p28
I2
sVdnzk60o
p29
I1
sVd7o5sh5
p30
I1
sVd9pcqbb
p31
I1
sVdjo2vbp
p32
I1
sVdc2s7mf
p33
I1
sVdiv59td
p34
I1
sVdb43d0w
p35
I1
sVcyij2e8
p36
I1
sVczr5j8h
p37
I1
sVdg374up
p38
I1
sVdhvoi5l
p39
I1
sVdq1bwk1
p40
I1
sVd4h90e9
p41
I1
sVd47wigp
p42
I1
sVcyqctp3
p43
I1
sVdiruvfw
p44
I1
sVdj0ayak
p45
I1
sVd1j8fjp
p46
I1
sVd972zda
p47
I1
sVddgx9d0
p48
I1
sVd2yro9f
p49
I1
sVd13w4ol
p50
I1
sVd89l1es
p51
I1
sVdeh8cl4
p52
I2
sVd61ghok
p53
I1
sVdax1c0u
p54
I1
sVdizw557
p55
I2
sVddbea2p
p56
I1
sVd089wed
p57
I1
sVda37ahu
p58
I1
sVd60dvbe
p59
I1
sVd2tnin7
p60
I1
sVd2o46wg
p61
I1
sVdn0w7w3
p62
I2
sVdryr1rl
p63
I1
sVdhgtcos
p64
I1
sVdjyc6vw
p65
I1
sVcys5gpy
p66
I1
sVdrybs14
p67
I1
sVd0f9uat
p68
I1
sVdb18qod
p69
I1
sVd91azzw
p70
I1
sVdtcv7o9
p71
I1
sVdhv1488
p72
I1
sVdk0b4yp
p73
I1
sVd93awoj
p74
I1
sVczylhqe
p75
I1
sVdfi2m9z
p76
I1
sVdkgodw6
p77
I1
sVdc8xxzp
p78
I1
sVd2ax1pl
p79
I2
sVd62gie6
p80
I1
sVd3eaqmn
p81
I1
sVda0fdlw
p82
I1
sVcz5qvdn
p83
I1
sVd3nq9u3
p84
I1
sVdnwdau4
p85
I1
sVd3cdjwl
p86
I1
sVdgc9zf2
p87
I1
sVd3b55ru
p88
I1
sVdrl1jx4
p89
I1
sVddxc72n
p90
I2
sVd1vg2ao
p91
I1
sVd4ccbbw
p92
I1
sVdphxj3y
p93
I1
sVcyxx2xh
p94
I2
sVdtczyyc
p95
I1
sVdqeev7d
p96
I1
sVdhprya6
p97
I1
sVd0btlj1
p98
I1
sVd71g024
p99
I1
sVd6r4a2n
p100
I1
sVdgdyj7p
p101
I1
sVddvgnq2
p102
I1
sVdhrbm1y
p103
I1
sVdjwvsma
p104
I1
sVdh32m2z
p105
I1
sVd8wiigt
p106
I1
sVcyovdnv
p107
I1
sVczjqdu3
p108
I1
sVdf3eomq
p109
I1
sVd1mahls
p110
I1
sVdisw4oq
p111
I1
sVdg93tiu
p112
I2
sVcz1zkjd
p113
I1
sVd95vk7a
p114
I1
sVd1yudic
p115
I1
sVdg7a0c0
p116
I1
sVdqjv3xl
p117
I1
sVdqs6hfl
p118
I1
sVdhcl631
p119
I1
sVdgew9nc
p120
I1
sVd288gj1
p121
I1
sVdgod7d9
p122
I1
sVczvdixf
p123
I1
sVd8326tj
p124
I1
sVdisv8s2
p125
I1
sVdhoijbe
p126
I2
sVdr1x8sn
p127
I1
sVdh4ydum
p128
I1
sVd2orgxs
p129
I1
sVdne5654
p130
I1
sVd2ehn9g
p131
I1
sVd6j9c3s
p132
I1
sVdpaw475
p133
I1
sVd5cn1px
p134
I1
sVdiif5bk
p135
I2
sVdboh119
p136
I1
sVdg818ad
p137
I1
sVd7blo0v
p138
I2
sVdsctlob
p139
I1
sVdg2n9yz
p140
I1
sVddhmuxf
p141
I1
sVdcbl2w4
p142
I1
sVdbvi6hf
p143
I1
sVd1dagog
p144
I1
sVd6od06a
p145
I1
sVdmxtlvt
p146
I1
sVd7t1a05
p147
I1
sVdi251g4
p148
I1
sVcymr9rh
p149
I1
sVd4athjh
p150
I1
sVd6mquyn
p151
I1
sVdsngfi5
p152
I1
sVd2zmm6x
p153
I1
sVdf0p9qw
p154
I1
sVdj6btf8
p155
I1
sVdapszb4
p156
I2
sVdki52sd
p157
I1
sVdia884p
p158
I1
sVdf99rih
p159
I1
sVd9xmljm
p160
I1
sVdewpnq7
p161
I1
sVczk8cul
p162
I1
sVdbia5ov
p163
I1
sVdjaupqn
p164
I2
sVdqfqm75
p165
I1
sVdny0in9
p166
I1
sVd64fwf5
p167
I1
sVd2wwnz0
p168
I1
sVdi8ysm4
p169
I1
sVddwetr9
p170
I1
sVd1r6qqd
p171
I1
sVdszv0qv
p172
I1
sVdir7vw9
p173
I1
sVd1ma0vf
p174
I1
sVdorv7u8
p175
I1
sVdft696w
p176
I1
sVde6w0pf
p177
I1
sVcypndj1
p178
I1
sVdok3yoh
p179
I1
sVd6tp5sc
p180
I1
sVcyqttvj
p181
I1
sVd6oplxq
p182
I1
sVdd8xa35
p183
I1
sVdqhzrj1
p184
I1
sVdgle1z6
p185
I1
sVd0spbvy
p186
I1
sVde5vh80
p187
I5
sVdnbik0e
p188
I1
sVdqhvk0d
p189
I1
sVd4yy4lh
p190
I1
sVd00nlgp
p191
I2
sVd6xer6q
p192
I1
sVczohr09
p193
I1
sVd5wxv8n
p194
I1
sVd3myvv3
p195
I1
sVdsmiebb
p196
I1
sVd8a2dpy
p197
I1
sVdapzse9
p198
I1
sVd6ogo8b
p199
I1
sVdblhkrh
p200
I1
sVdhi8m7p
p201
I2
sVdf5cw6h
p202
I1
sVdj37os8
p203
I1
sVd3njzhf
p204
I1
sVd0cxc0f
p205
I1
sVd9lhqhg
p206
I1
sVdp3r2hd
p207
I1
sVdn9qc85
p208
I1
sVdrwzfyo
p209
I1
sVdq31mmy
p210
I1
sVd1qaqih
p211
I1
sVdbh2yam
p212
I1
sVdcya6lk
p213
I1
sVdthbgvw
p214
I1
sVd3ae07l
p215
I1
sVd5fauhb
p216
I1
sVdepttaq
p217
I1
sVd346988
p218
I1
sVd89094s
p219
I1
sVd83hpmi
p220
I1
sVdirrqbj
p221
I1
sVd9cxvg6
p222
I1
sVd0aupon
p223
I1
sVdiang7b
p224
I1
sVdnfoyut
p225
I1
sVdrwokpw
p226
I1
sVd2x2qcg
p227
I1
sVd2kirah
p228
I1
sVd159nwt
p229
I1
sVd9z6v8p
p230
I1
sVdj2i3b6
p231
I1
sVd3xvgfa
p232
I1
sVdesx7qa
p233
I1
sVdpua7zf
p234
I4
sVde29bqp
p235
I1
sVd4gtsx6
p236
I1
sVd03zwcc
p237
I1
sVdtezb77
p238
I1
sVdp3wnqo
p239
I1
sVd3q4qcs
p240
I1
sVddr8bbh
p241
I1
sVdedfbxf
p242
I1
sVdd9z1bn
p243
I2
sVdctuvhv
p244
I2
sVd7haw66
p245
I1
sVdd8nkgd
p246
I1
sVd0ygo5k
p247
I1
sVdftwgr0
p248
I1
sVdh1eba6
p249
I1
sVd2xlb7i
p250
I1
sVdats6nm
p251
I2
sVd2g72yt
p252
I2
sVd296qh4
p253
I1
sVd8gah4k
p254
I1
sVd8izjgf
p255
I1
sVdog08mv
p256
I1
sVdbs3wjr
p257
I1
sVd0bb49y
p258
I1
sVd5wknn6
p259
I7
sVd171lx2
p260
I2
sVd6lwjnv
p261
I1
sVdi1rx9l
p262
I1
sVdt8flwr
p263
I1
sVdprzl7n
p264
I1
sVdppmxfh
p265
I1
sVdi1h2ce
p266
I1
sVdgaugrz
p267
I1
sVd1mia06
p268
I2
sVded15j5
p269
I1
sVd3hlszu
p270
I1
sVdch5m5r
p271
I1
sVd9dzkl3
p272
I1
sVdpp6vae
p273
I2
sVd25zgei
p274
I2
sVd4fx9ev
p275
I2
sVcyqaodp
p276
I3
sVd2ewpu1
p277
I1
sVdchki5e
p278
I1
sVd0hvdog
p279
I1
sVdbga5dc
p280
I1
sVdht555g
p281
I1
sVd4krboy
p282
I1
sVdcqrz0b
p283
I1
sVd3pqu09
p284
I1
sVd0gfp09
p285
I1
sVdsfjnax
p286
I1
sVd10j4ym
p287
I1
sVd8fuy5o
p288
I1
sVdowai6l
p289
I1
sVd4rh7em
p290
I1
sVdazrcr3
p291
I2
sVdib0m73
p292
I1
sVcyzmnha
p293
I1
sVdi9kqup
p294
I1
sVdf3cjty
p295
I1
sVdhmdhes
p296
I1
sVdaunyug
p297
I1
sVd1rqiql
p298
I1
sVdh2mcfo
p299
I1
sVczkygch
p300
I1
sVczv2nsc
p301
I1
sVdgi0nei
p302
I1
sVdnv9aar
p303
I1
sVd3aqypn
p304
I1
sVdf1yzdg
p305
I1
sVd5kyt9o
p306
I1
sVd5wfeyu
p307
I1
sVdizwhhu
p308
I3
sVd3aaa4q
p309
I1
sVdery4q3
p310
I1
sVd08rb9f
p311
I2
sVdh84bqq
p312
I1
sVdermjs0
p313
I1
sVd6hm7pw
p314
I1
sVd85abk4
p315
I1
sVdhj1syf
p316
I1
sVdrgpfhs
p317
I1
sVdcqkh5u
p318
I1
sVd69kel6
p319
I1
sVdijcgdt
p320
I1
sVdbv646p
p321
I1
sVd2dsp5b
p322
I1
sVdhv5471
p323
I1
sVd4xlq3s
p324
I1
sVdadq1tx
p325
I5
sVd2tginh
p326
I2
sVd6z9umj
p327
I1
sVd6d976q
p328
I2
sVdiw83nu
p329
I1
sVd5okdl3
p330
I1
sVds8xndd
p331
I1
sVd063fur
p332
I1
sVdbyadzm
p333
I1
sVdegseft
p334
I1
sVd5pyscz
p335
I1
sVdcrx269
p336
I1
sVdjmwi0f
p337
I1
sVdjnve68
p338
I1
sVdk8ar0h
p339
I1
sVcywm1dg
p340
I1
sVd9ymwuv
p341
I1
sVdow4acu
p342
I1
sVdc2du1x
p343
I1
sVd520209
p344
I1
sVdeunxqe
p345
I1
sVd3xdhd2
p346
I1
sVd7ao4qv
p347
I1
sVdjugmlh
p348
I1
sVdrum98u
p349
I1
sVdbukruk
p350
I1
sVddoa3a7
p351
I1
sVd38rvuk
p352
I1
sVdo7br4f
p353
I1
sVcz7mh6v
p354
I1
sVdj5e6gl
p355
I1
sVd4bzzx3
p356
I1
sVd0c796i
p357
I1
sVdhbapkm
p358
I1
sVd54b2l4
p359
I1
sVd14q5bi
p360
I3
sVddrwlpl
p361
I1
sVd11p6yf
p362
I1
sVdgnvd5c
p363
I1
sVdn6wqus
p364
I1
sVdjwk0hq
p365
I1
sVdhxjq08
p366
I1
sVdd5pc43
p367
I1
sVcylycha
p368
I1
sVdbzbt7y
p369
I2
sVd5fg6jw
p370
I1
sVdk8vlzd
p371
I1
sVd8o860v
p372
I1
sVd699zm2
p373
I1
sVd35cz7g
p374
I1
sVd3mvsjv
p375
I1
sVd6cu7hm
p376
I1
sVcznqml7
p377
I1
sVd15z7b4
p378
I1
sVdnik84b
p379
I1
sVddxbkq8
p380
I2
sVdhggrme
p381
I1
sVdff4r3f
p382
I1
sVd0yezzn
p383
I1
sVdi2y9dt
p384
I1
sVdikg61s
p385
I1
sVde71gw3
p386
I1
sVdn34cfm
p387
I1
sVdcqh8so
p388
I1
sVd33c8xg
p389
I2
sVdg7o79h
p390
I1
sVd2gsi5c
p391
I1
sVdaybsti
p392
I1
sVd9dz7q2
p393
I1
sVdg1zws2
p394
I1
sVd3qzike
p395
I1
sVd1ttzyj
p396
I1
sVd90d96n
p397
I1
sVd3epiqj
p398
I1
sVdfvoqd2
p399
I1
sVdstlkj8
p400
I1
sVd25wxif
p401
I1
sVdgqmr3c
p402
I1
sVd0mf7jg
p403
I2
sVdkzctnf
p404
I1
sVd6202m2
p405
I1
sVd7bv7ys
p406
I1
sVd20fv0k
p407
I2
sVd6cmr8g
p408
I1
sVdrkv622
p409
I1
sVd233rjz
p410
I1
sVd4jmtms
p411
I1
sVdowaf1p
p412
I1
sVdhni7hp
p413
I1
sVdbvz52e
p414
I1
sVdd6fn4a
p415
I1
sVdjrc8e7
p416
I1
sVd3bayf0
p417
I2
sVcyuomtk
p418
I2
sVd08i8hb
p419
I1
sVcztdb0v
p420
I1
sVdkqu3sq
p421
I1
sVd2diudv
p422
I1
sVd66rh3w
p423
I1
sVd63pnxh
p424
I2
sVdgo26sj
p425
I1
sVdjwk31w
p426
I1
sVdffl4qv
p427
I1
sVdpgidfi
p428
I1
sVdbrw7et
p429
I1
sVcyu5hgt
p430
I1
sVczglzpe
p431
I1
sVdc91n8b
p432
I1
sVdexhvwq
p433
I1
sVdea37k5
p434
I1
sVddwc30x
p435
I1
sVd0407si
p436
I1
sVd8ue2gd
p437
I1
sVdfrrgti
p438
I1
sVdgpzqb3
p439
I1
sVd76td23
p440
I1
sVdgnjvhf
p441
I1
sVd1mqcyh
p442
I1
sVdmf69b1
p443
I2
sVd2i998n
p444
I1
sVds24y40
p445
I1
sVdcajngp
p446
I1
sVd3sc1cq
p447
I2
sVdiyp4a1
p448
I1
sVdhbxfrf
p449
I1
sVd2ehu62
p450
I1
sVdd1kib1
p451
I1
sVczs28ed
p452
I2
sVdadoxk2
p453
I1
sVdpqhjoh
p454
I1
sVdcaxult
p455
I1
sVd8ocs9r
p456
I1
sVd8g6n1w
p457
I2
sVdi0ky2m
p458
I1
sVcyujcy6
p459
I3
sVdfirr2h
p460
I1
sVd7jfczp
p461
I1
sVdb9ov3z
p462
I1
sVdem2nkg
p463
I1
sVd4prott
p464
I1
sVd17mcyo
p465
I1
sVdcvpyy6
p466
I1
sVczxnwan
p467
I1
sVdkn0vc1
p468
I1
sVd83i5ct
p469
I1
sVczi85bi
p470
I1
sVdj2h5dc
p471
I1
sVdrp1wdh
p472
I1
sVdfwm4vl
p473
I1
sVdflpob7
p474
I1
sVdd0r0r2
p475
I1
sVdc2h2lf
p476
I1
sVdezusla
p477
I1
sVdfhi05s
p478
I1
sVd5m64nr
p479
I1
sVdjmpyiw
p480
I1
sVdjuxr57
p481
I1
sVdp8981c
p482
I1
sVddoo7az
p483
I1
sVd1yom6o
p484
I1
sVd581qvt
p485
I1
sVd3eto5p
p486
I1
sVdqucr41
p487
I2
sVd8pwhk9
p488
I3
sVd1hafjz
p489
I1
sVdhg57ea
p490
I1
sVdat8l6f
p491
I2
sVd4ig27r
p492
I1
sVddxvgzb
p493
I2
sVd0spbb4
p494
I1
sVczg3osu
p495
I1
sVd2kz53n
p496
I1
sVd0rx7cf
p497
I1
sVczyueqw
p498
I2
sVdaa4wc1
p499
I1
sVdos7cja
p500
I1
sVd97hijq
p501
I1
sVczbo4lc
p502
I5
sVdhxv005
p503
I1
sVdcpjzaj
p504
I1
sVdfp0zwf
p505
I1
sVcyu0c9o
p506
I1
sVd2klhk9
p507
I1
sVddyl719
p508
I1
sVcyhwzs0
p509
I1
sVdbnypp8
p510
I1
sVdehehox
p511
I1
sVdc0g6vf
p512
I2
sVd59xcok
p513
I1
sVdh5j00j
p514
I1
sVdkz6wwq
p515
I1
sVd6n6c1n
p516
I1
sVd4tq1ms
p517
I1
sVdck3lqy
p518
I1
sVd8f447r
p519
I1
sVd1e94i8
p520
I1
sVd09cdkc
p521
I1
sVd9dc6p6
p522
I5
sVdmyxrvv
p523
I1
sVda2g96d
p524
I1
sVd6hcx19
p525
I1
sVdq52sxn
p526
I1
sVcznwd21
p527
I1
sVd0qhjql
p528
I1
sVdkt17ru
p529
I1
sVd1mp1hm
p530
I1
sVdc8yoal
p531
I1
sVdq317fx
p532
I1
sVd4rpv5z
p533
I1
sVdd2ml5i
p534
I1
sVdq7j53g
p535
I1
sVd48lx8d
p536
I1
sVd65rl7w
p537
I3
sVdjymo1m
p538
I1
sVdmxhsl7
p539
I1
sVd9l0qwa
p540
I2
sVd53403e
p541
I1
sVd2ei8w7
p542
I1
sVdd0c07r
p543
I1
sVda15i0q
p544
I1
sVd798uya
p545
I1
sVd6g9tw1
p546
I2
sVdt9ibj4
p547
I2
sVd1pwp2l
p548
I1
sVd7cyppr
p549
I1
sVd1xmeca
p550
I1
sVdhknomd
p551
I5
sVdnhizg7
p552
I1
sVdike6h9
p553
I1
sVddgl8vx
p554
I1
sVcyvbod9
p555
I2
sVdr7hd7b
p556
I1
sVdgyl7sj
p557
I1
sVdj8p0i5
p558
I1
sVds3nv1r
p559
I1
sVdfny28d
p560
I1
sVd1p8xrh
p561
I2
sVd9p11di
p562
I1
sVd6dweqw
p563
I1
sVdewvc8d
p564
I1
sVd76id36
p565
I1
sVdfbdtjl
p566
I1
sVddr2w6q
p567
I1
sVd80ccm5
p568
I1
sVdgq9snm
p569
I1
sVddurkiq
p570
I1
sVd6q2qar
p571
I1
sVd4a9j5y
p572
I1
sVdcbhpcr
p573
I1
sVdoc97qk
p574
I3
sVd76p196
p575
I1
sVdqjk3lv
p576
I1
sVddoeuzh
p577
I2
sVd6dwiwg
p578
I1
sVd45cxw3
p579
I1
sVdfefom9
p580
I1
sVd5f8q01
p581
I1
sVdc3rr8y
p582
I1
sVd67phzf
p583
I1
sVd6rhj13
p584
I1
sVdhmsss2
p585
I1
sVd2xayd8
p586
I1
sVdjkl10u
p587
I1
sVd0avn73
p588
I1
sVd6wd31k
p589
I2
sVd80c2qz
p590
I1
sVdep2vs4
p591
I1
sVd2p86ny
p592
I1
sVd055fo7
p593
I1
sVd0lisuh
p594
I1
sVdg6b4cf
p595
I2
sVdt8x2ij
p596
I1
sVdc9qash
p597
I1
sVdam42t8
p598
I1
sVdna6y3y
p599
I1
sVdrk9b9d
p600
I1
sVd2l81li
p601
I1
sVd8c8xtv
p602
I1
sVdfq6q1q
p603
I1
sVdia4lvr
p604
I1
sVdfamrqp
p605
I1
sVddxng0m
p606
I1
sVdim3op3
p607
I2
sVd8v1ui1
p608
I1
sVdpqfuf9
p609
I1
sVdbo7p51
p610
I1
sVcz0ha91
p611
I1
sVdbjm5ne
p612
I1
sVd6s6mqx
p613
I1
sVd3popzn
p614
I2
sVdaxcywn
p615
I1
sVd3mq6q4
p616
I1
sVd2ux8dm
p617
I3
sVd1btbdz
p618
I1
sVdj7num1
p619
I1
sVdeissws
p620
I1
sVddxlytk
p621
I2
sVd0h9777
p622
I1
sVdtdv8dk
p623
I1
sVdk2jwa2
p624
I1
sVdihuirp
p625
I1
sVdihmfzb
p626
I1
sVd7ocsj7
p627
I1
sVcz3s0as
p628
I1
sVd173f39
p629
I1
sVdkhwjg0
p630
I1
sVdsfgfop
p631
I1
sVd47m424
p632
I1
sVdjyvyun
p633
I1
sVdp2o8dq
p634
I5
sVdosdaou
p635
I1
sVd7c4pya
p636
I1
sVd6cjs9t
p637
I1
sVd59ms72
p638
I1
sVdjnrkif
p639
I1
sVd46dms5
p640
I1
sVd8xqg6f
p641
I1
sVd760ljx
p642
I1
sVdjtkiog
p643
I1
sVd35hrre
p644
I1
sVdg2nyd7
p645
I1
sVdf85g18
p646
I1
sVd7e4vxf
p647
I1
sVdf9ajgy
p648
I1
sVd76ik19
p649
I1
sVczkh7lf
p650
I2
sVdcmgidv
p651
I1
sVd1zegqs
p652
I1
sVdjr0p79
p653
I2
sVd6p2ffv
p654
I1
sVd84k4jf
p655
I1
sVdr4qtbt
p656
I1
sVds2mduk
p657
I1
sVdf4ago6
p658
I2
sVd1d2d80
p659
I1
sVddiernj
p660
I1
sVczwz2kx
p661
I1
sVd2kdrai
p662
I1
sVdjstopi
p663
I1
sVd01rpyh
p664
I1
sVdcxglx6
p665
I2
sVd28wpcw
p666
I1
sVdq0eys2
p667
I2
sVdc3hipq
p668
I1
sVd8b9vco
p669
I1
sVd8w6o35
p670
I1
sVd2hddma
p671
I1
sVd28vfek
p672
I1
sVde40lkt
p673
I1
sVdahrtha
p674
I1
sVdazu8uj
p675
I1
sVcyrzl96
p676
I1
sVdchobw7
p677
I1
sVdh0gmz1
p678
I1
sVczsl3et
p679
I1
sVdam32t6
p680
I1
sVdeg054k
p681
I1
sVd1p32in
p682
I2
sVd0xsos3
p683
I1
sVd5iakel
p684
I1
sVd5e5p8b
p685
I1
sVd19mzw5
p686
I1
sVd6wdlkz
p687
I1
sVd79725v
p688
I1
sVd0yqqmp
p689
I1
sVd4qsvtb
p690
I2
sVd20be7z
p691
I1
sVddun8h6
p692
I2
sVcyp0x59
p693
I1
sVdautv9f
p694
I1
sVd0h1u1t
p695
I1
sVdox8zoq
p696
I1
sVdbhqnim
p697
I1
sVd0azzhu
p698
I1
sVd8zqwq9
p699
I1
sVdoyigog
p700
I2
sVdahrpbc
p701
I1
sVd4pn2qq
p702
I1
sVczf1puz
p703
I1
sVdfppsjx
p704
I1
sVderdouc
p705
I1
sVdow9rzk
p706
I1
sVd2p56ev
p707
I1
sVdqr9z8d
p708
I1
sVd0wk4qf
p709
I1
sVd03xs2c
p710
I1
sVde65g22
p711
I1
sVd7pz1s1
p712
I1
sVdshaprd
p713
I1
sVdqx0xng
p714
I1
sVdsplkav
p715
I1
sVdihc6lz
p716
I1
sVd6izyku
p717
I1
sVdj1k9g1
p718
I1
sVdmxp9pa
p719
I1
sVd2o4b1q
p720
I1
sVdnabg0z
p721
I1
sVczn1fef
p722
I1
sVcz6wyib
p723
I1
sVd2wec1t
p724
I1
sVd6i23bz
p725
I1
sVddbadrs
p726
I1
sVdb9k0pp
p727
I1
sVd73jxji
p728
I1
sVd27duu1
p729
I1
sVdbr91j8
p730
I2
sVdbv51si
p731
I1
sVdb7xpaf
p732
I2
sVd1yl80h
p733
I1
sVd234lp8
p734
I1
sVdmz5kfp
p735
I1
sVd54ptez
p736
I1
sVdfmyj0c
p737
I1
sVczi76se
p738
I1
sVcyxw0jd
p739
I2
sVd95p3r9
p740
I2
sVd999kit
p741
I1
sVd8rpqd5
p742
I1
sVd3to5u7
p743
I1
sVdc0h4u1
p744
I1
sVdig5uz3
p745
I1
sVdgkfbyq
p746
I1
sVd7cp2f3
p747
I1
sVd1776e8
p748
I1
sVdarnk6s
p749
I1
sVdnr4ix6
p750
I1
sVd0utt08
p751
I1
sVd27gt7q
p752
I1
sVdq1xs0x
p753
I2
sVdiwsgpm
p754
I1
sVdfjgzte
p755
I1
sVdfmltcq
p756
I1
sVd2jqq4c
p757
I1
sVdc0tyaj
p758
I1
sVdjmp5n8
p759
I1
sVdco74l7
p760
I1
sVdmvhvey
p761
I1
sVd14ipk6
p762
I1
sVdrliyhf
p763
I1
sVdd8pgd3
p764
I1
sVd0878mn
p765
I3
sVd7m3iyd
p766
I1
sVd7j6tsr
p767
I1
sVdekuius
p768
I1
sVdc5q0jz
p769
I1
sVdieeydo
p770
I2
sVcz7g83m
p771
I3
sVdcmrkqw
p772
I1
sVd3rz8cs
p773
I1
sVd31ams7
p774
I1
sVd5cy6s1
p775
I1
sVd58pidx
p776
I1
sVd9boils
p777
I1
sVcyup45w
p778
I1
sVd0auwa6
p779
I1
sVd9eqk0m
p780
I1
sVd6v2ydz
p781
I1
sVdqnpw1q
p782
I1
sVdfytckg
p783
I1
sVd513wp5
p784
I1
sVd6kbat1
p785
I2
sVdnm6gga
p786
I1
sVdnp9b8b
p787
I1
sVdsokoqd
p788
I1
sVdhq6sqo
p789
I1
sVd33wvck
p790
I1
sVdepkb40
p791
I1
sVd2s7ari
p792
I1
sVd8yttu4
p793
I1
sVdejvo6u
p794
I1
sVdggyrks
p795
I2
sVdef1igf
p796
I1
sVd3bk89g
p797
I1
sVdfytrds
p798
I1
sVd1phdm2
p799
I1
sVdn1h9ks
p800
I2
sVd0g4zip
p801
I2
sVcziqhro
p802
I1
sVdjiuefe
p803
I1
sVdg97uhm
p804
I1
sVd4zqeya
p805
I1
sVd0anbo2
p806
I1
sVd03atgx
p807
I1
sVdt3de8a
p808
I1
sVdhipyco
p809
I1
sVd2pv90y
p810
I4
sVd1r5e6h
p811
I1
sVdc6iw47
p812
I1
sVdia2448
p813
I1
sVdsyvhfc
p814
I1
sVd4ztson
p815
I1
sVdg2kuqt
p816
I1
sVdmy2462
p817
I1
sVdjqzh4s
p818
I2
sVdn6cxd1
p819
I1
sVd6uzjfu
p820
I1
sVda668yz
p821
I1
sVd86o878
p822
I2
sVd13zggk
p823
I2
sVd070lbt
p824
I2
sVdeym4zr
p825
I1
sVda5ljjn
p826
I1
sVcyvjcy1
p827
I1
sVdo5sdwi
p828
I1
sVdnqoiu2
p829
I1
sVdcl5n5s
p830
I1
sVd2xud4b
p831
I1
sVdf6fidc
p832
I2
sVdgx1wrx
p833
I1
sVd8vg8tv
p834
I1
sVdbeavt8
p835
I1
sVdflvf6p
p836
I1
sVdrg6ahr
p837
I1
sVd6fe2p8
p838
I1
sVdspxvcd
p839
I1
sVd3pbh2c
p840
I1
sVdb700zv
p841
I1
sVdnwmoi8
p842
I2
sVdfm9mqm
p843
I3
sVd39dbx7
p844
I1
sVd047h3h
p845
I1
sVd5kt2k1
p846
I1
sVd3m1s51
p847
I1
sVdgyet60
p848
I1
sVdh66d7c
p849
I2
sVcyj6n33
p850
I1
sVd4twc3f
p851
I1
sVd7y5ezd
p852
I1
sVd2bb1sp
p853
I2
sVdc6w65c
p854
I1
sVd6suhk8
p855
I1
sVd7w33f8
p856
I1
sVdpb42lm
p857
I1
sVd5mfozk
p858
I2
sVdatoaqe
p859
I1
sVd6g4yvr
p860
I1
sVczq06b3
p861
I1
sVd7hvdxm
p862
I1
sVdbp3xkm
p863
I1
sVdk4llmz
p864
I1
sVd7xg596
p865
I1
sVczieobp
p866
I1
sVd42d77e
p867
I2
sVd93djmt
p868
I1
sVdeq0ky9
p869
I1
sVdaa54gy
p870
I1
sVd51i7hc
p871
I1
sVdbs8fx2
p872
I1
sVdo9rgsr
p873
I1
sVde8ywcu
p874
I1
sVczmul99
p875
I1
sVcz6vk51
p876
I1
sVd60oevm
p877
I1
sVdsnss85
p878
I3
sVdfj3mhl
p879
I1
sVd22qzxc
p880
I1
sVddxy0g9
p881
I1
sVd1y1kiz
p882
I1
sVd1ekc3c
p883
I1
sVd7sdwlv
p884
I1
sVd9wgi0v
p885
I1
sVdqfeev4
p886
I1
sVd87iize
p887
I1
sVdf4co8l
p888
I1
sVdn8j040
p889
I1
sVd1mbspw
p890
I1
sVd7vwgt0
p891
I1
sVdkog86m
p892
I1
sVd55fir5
p893
I1
sVdaeumvp
p894
I1
sVdrdp2m7
p895
I1
sVdaslumo
p896
I1
sVde8x6xo
p897
I1
sVd76ukdy
p898
I2
sVcym3vhh
p899
I1
sVdjwga8a
p900
I1
sVczgvqpi
p901
I1
sVd8ufb9s
p902
I1
sVdk0jmxw
p903
I1
sVd4pymn6
p904
I2
sVczgnbay
p905
I1
sVdo0v03c
p906
I1
sVdhd8bln
p907
I1
sVdmrqtn3
p908
I1
sVdev3zc6
p909
I1
sVd3myyx9
p910
I2
sVd51h049
p911
I1
sVdabisk5
p912
I1
sVd5fqyy3
p913
I1
sVdoc2ql0
p914
I1
sVd6poqd5
p915
I1
sVdanuw88
p916
I1
sVdgmnqza
p917
I1
sVdkdid6f
p918
I1
sVd5r9tqw
p919
I1
sVdbohf4w
p920
I1
sVd42qs4e
p921
I2
sVd1nv9p0
p922
I1
sVdimdzdl
p923
I1
sVdq35qav
p924
I3
sVdd5s7wx
p925
I2
sVdfpf1zw
p926
I1
sVdhhhdeq
p927
I1
sVdmwuhm2
p928
I1
sVd4g9n3n
p929
I1
sVd7eagl4
p930
I1
sVd3x7mqv
p931
I1
sVd8c2r4s
p932
I1
sVdb1ptbq
p933
I1
sVd5vs19k
p934
I1
sVdiw44a3
p935
I1
sVdqb5icc
p936
I1
sVdquw008
p937
I1
sVd35fc8k
p938
I1
sVdidizoe
p939
I1
sVd5xny7u
p940
I1
sVdq5j1vf
p941
I1
sVdhguhe3
p942
I1
sVdh4xf35
p943
I1
sVdckh07b
p944
I1
sVczg13gw
p945
I1
sVd9ca425
p946
I1
sVdcvtn1a
p947
I1
sVdmx5y47
p948
I1
sVd0l3hlf
p949
I1
sVd69e936
p950
I1
sVd5i8n0x
p951
I1
sVd8n3hp6
p952
I1
sVdjbg3bg
p953
I1
sVdmk80z3
p954
I1
sVcz3z9kw
p955
I1
sVd4wmjxh
p956
I1
sVdafym1v
p957
I1
sVdekq96u
p958
I2
sVdfns382
p959
I1
sVdfzob3q
p960
I1
sVdhiuo8f
p961
I1
sVd3i3y0a
p962
I1
sVdg6iami
p963
I1
sVdd67fhz
p964
I1
sVd0s3hvb
p965
I1
sVd9v13yj
p966
I1
sVdee7sue
p967
I1
sVcza5w2j
p968
I1
sVd1kegtc
p969
I1
sVdmv4kwa
p970
I1
sVddub3r5
p971
I1
sVd0w1xik
p972
I1
sVd8wewd1
p973
I1
sVd3xq6af
p974
I1
sVd4to4cs
p975
I2
sVd4gbj9r
p976
I2
sVd9v19kh
p977
I1
sVdegwyu1
p978
I1
sVczmgzfh
p979
I1
sVdepzu64
p980
I1
sVddvg46k
p981
I1
sVd46x18k
p982
I1
sVd00ovgn
p983
I1
sVdsny3s0
p984
I3
sVdr1v3v0
p985
I1
sVdssljgd
p986
I1
sVd0p6517
p987
I1
sVd7e9qvr
p988
I1
sVdomuumv
p989
I1
sVd3aurge
p990
I1
sVd9rna60
p991
I1
sVdkdswb0
p992
I1
sVd85zft3
p993
I1
sVdqrk2ky
p994
I1
sVd7cp8xe
p995
I1
sVde6cw1u
p996
I1
sVd2bp6vp
p997
I1
sVdc9e7am
p998
I1
sVdhl2jb2
p999
I1
sVdbesjuq
p1000
I2
sVd3ct46b
p1001
I1
sVd8ez32w
p1002
I1
sVddsoq96
p1003
I2
sVdizgx2r
p1004
I5
sVd6cv9zy
p1005
I3
sVd98asfu
p1006
I1
sVdmq3zjf
p1007
I1
sVdkbbczx
p1008
I1
sVd9d2lau
p1009
I1
sVdd4l7ir
p1010
I1
sVd4wzrsj
p1011
I1
sVdmn4u91
p1012
I1
sVdsmxixd
p1013
I1
sVczeb2b7
p1014
I1
sVd43ux9a
p1015
I1
sVd28iga5
p1016
I1
sVdk3wla5
p1017
I1
sVd3mmix2
p1018
I1
sVd453q9y
p1019
I1
sVd8lktkr
p1020
I3
sVdqm4hbx
p1021
I1
sVd3r5hxq
p1022
I1
sVd2hw1mv
p1023
I2
sVd647mn7
p1024
I2
sVdnnrc5d
p1025
I1
sVd2a3rn6
p1026
I1
sVdibuagk
p1027
I1
sVdhks8dx
p1028
I1
sVdj19wz8
p1029
I1
sVdnupuo2
p1030
I1
sVd3qamtl
p1031
I1
sVdsvllfg
p1032
I1
sVcyqdmte
p1033
I1
sVdkpk21v
p1034
I1
sVd300o8r
p1035
I1
sVdc3c2vf
p1036
I1
sVd1jht6x
p1037
I1
sVd94fzz8
p1038
I1
sVd27zqxf
p1039
I1
sVdbu5gqg
p1040
I1
sVdecw5qy
p1041
I2
sVdjmffcs
p1042
I2
sVde6x7sg
p1043
I1
sVd931kuu
p1044
I1
sVddbvprc
p1045
I1
sVddvj6me
p1046
I1
sVd28l9cu
p1047
I1
sVczm6yct
p1048
I2
sVdadzmp0
p1049
I1
sVdk3idr5
p1050
I1
sVdizmvb5
p1051
I3
sVdj97cl0
p1052
I1
sVdayr0al
p1053
I1
sVdrm1lbh
p1054
I1
sVdmv2nto
p1055
I1
sVdiywc2s
p1056
I1
sVdmuf6ew
p1057
I1
sVdmqhdmp
p1058
I1
sVdhyrpgb
p1059
I1
sVd3kfhgp
p1060
I1
sVd4zev3j
p1061
I1
sVd6vgknk
p1062
I1
sVd3wzge2
p1063
I1
sVdpxgbf4
p1064
I1
sVdjba3y6
p1065
I1
sVd75dtzc
p1066
I1
sVds2wkyz
p1067
I1
sVdepewas
p1068
I1
sVd25r2ey
p1069
I1
sVdklhnbe
p1070
I1
sVdii7n4n
p1071
I1
sVczepcem
p1072
I1
sVd7zw21s
p1073
I1
sVdjn3stl
p1074
I1
sVdke4dvd
p1075
I1
sVdixwvjy
p1076
I1
sVdbf4nfq
p1077
I1
sVdfgtkp2
p1078
I1
sVczx04bi
p1079
I1
sVdci652b
p1080
I1
sVdjnlymo
p1081
I1
sVd5ld7dd
p1082
I1
sVdovnozs
p1083
I2
sVd0t6poq
p1084
I1
sVdewg6sm
p1085
I1
sVczkzukl
p1086
I1
sVdfrwdsl
p1087
I1
sVd99fb2v
p1088
I1
sVdbopl7e
p1089
I1
sVdielzyb
p1090
I2
sVdc166kl
p1091
I2
sVd57kd12
p1092
I3
sVdmjrbnu
p1093
I1
sVd9vq90h
p1094
I1
sVdchb2eh
p1095
I1
sVd6zlxjv
p1096
I1
sVd089nt0
p1097
I1
sVdn2czve
p1098
I1
sVdh1i792
p1099
I1
sVd9boej7
p1100
I1
sVd77sddl
p1101
I1
sVcz78kt5
p1102
I1
sVdbp18ls
p1103
I1
sVd7mjtqh
p1104
I3
sVdh6gugc
p1105
I1
sVd8qc64o
p1106
I1
sVdfx1v7p
p1107
I1
sVde36yyl
p1108
I2
sVdj4gnog
p1109
I1
sVcz49dyv
p1110
I1
sVd79i2vg
p1111
I2
sVdp0jfu6
p1112
I1
sVczdax11
p1113
I1
sVdi5wecp
p1114
I1
sVd4fw3i0
p1115
I1
sVd87qk4z
p1116
I1
sVdnsfxw8
p1117
I1
sVd7i59lc
p1118
I2
sVdcuiv3x
p1119
I1
sVdiso09h
p1120
I1
sVd7i0l49
p1121
I2
sVd6on61f
p1122
I1
sVd5a0jsv
p1123
I1
sVd08iam6
p1124
I1
sVd5t1nj4
p1125
I1
sVdsd4lxv
p1126
I1
sVdjbdhlb
p1127
I1
sVde184py
p1128
I1
sVd3ezx00
p1129
I1
sVd0bm87b
p1130
I1
sVdkz7btt
p1131
I1
sVd1dtrti
p1132
I1
sVczs30q1
p1133
I2
sVczght8j
p1134
I1
sVd71ruas
p1135
I1
sVdkrdzaf
p1136
I1
sVczqpjy9
p1137
I1
sVdeib1bw
p1138
I1
sVd32et3c
p1139
I1
sVdnt67h0
p1140
I1
sVcyyim6x
p1141
I1
sVdrqvw1y
p1142
I1
sVdqn21vr
p1143
I1
sVdd25s6r
p1144
I1
sVdf43q7q
p1145
I1
sVdbsr5nb
p1146
I1
sVdbwlc26
p1147
I1
sVdg10559
p1148
I1
sVdnybsqt
p1149
I1
sVdbx8m1c
p1150
I1
sVda5pnxo
p1151
I1
sVczse72i
p1152
I1
sVdfwu7lf
p1153
I1
sVdg8x6l6
p1154
I1
sVd1oim90
p1155
I2
sVditr5xt
p1156
I1
sVdakfve7
p1157
I1
sVd3k8qig
p1158
I1
sVd70t1eq
p1159
I1
sVd7aahil
p1160
I1
sVd5w3no8
p1161
I1
sVd0quo8p
p1162
I1
sVdc7u8ix
p1163
I1
sVdgy92uo
p1164
I2
sVd2e4s85
p1165
I2
sVdi1qsz6
p1166
I1
sVd2xfd5x
p1167
I1
sVd3a5oui
p1168
I1
sVdj4apqw
p1169
I1
sVdcwggk7
p1170
I1
sVd33yvc5
p1171
I1
sVdn8l076
p1172
I1
sVd5qkz7l
p1173
I1
sVd1fd2cb
p1174
I1
sVdb8bxow
p1175
I1
sVd9hjcta
p1176
I1
sVd16jumm
p1177
I2
sVdda6sfy
p1178
I2
sVdraswcr
p1179
I1
sVd1w5tkw
p1180
I1
sVdnf0qmb
p1181
I1
sVdnffi49
p1182
I1
sVdrqp1fr
p1183
I1
sVd29lizg
p1184
I1
sVczyuamy
p1185
I1
sVd97pojv
p1186
I1
sVddeadh4
p1187
I1
sVd05tqhe
p1188
I1
sVdnb7jcd
p1189
I1
sVd07e77h
p1190
I1
sVd2dp5k3
p1191
I2
sVdn82osb
p1192
I2
sVd9ubmng
p1193
I1
sVdfhe0ay
p1194
I1
sVdp7x42t
p1195
I1
sVd3nj9xo
p1196
I1
sVd54bb78
p1197
I2
sVdcqjqfq
p1198
I1
sVdd16p15
p1199
I1
sVdiv308p
p1200
I1
sVdbwm7g1
p1201
I1
sVdh5w34v
p1202
I1
sVdeetfcg
p1203
I1
sVdsjzdaa
p1204
I1
sVdfixqg2
p1205
I1
sVddk84bs
p1206
I1
sVdc6nzqh
p1207
I1
sVddxqku4
p1208
I1
sVdk6d1pp
p1209
I1
sVdri5uqk
p1210
I1
sVdqhycvx
p1211
I1
sVd4xlmj8
p1212
I1
sVd6ddcij
p1213
I1
sVdfanzb4
p1214
I1
sVde0rgso
p1215
I1
sVdfnqfye
p1216
I1
sVdh42nle
p1217
I1
sVd34w3en
p1218
I1
sVdmf51m9
p1219
I1
sVcyt0b73
p1220
I1
sVd0f4uce
p1221
I1
sVd2k9lsf
p1222
I1
sVdh1kcew
p1223
I1
sVdooavrk
p1224
I1
sVdp7psi0
p1225
I1
sVd3azdow
p1226
I1
sVdk0xzqg
p1227
I1
sVdezp2rx
p1228
I1
sVdr2ud0t
p1229
I1
sVdtdt8bm
p1230
I2
sVdcamphf
p1231
I1
sVdo97nkw
p1232
I1
sVczb8tqr
p1233
I1
sVd2cqgxk
p1234
I1
sVczvy44i
p1235
I1
sVdc0x5ih
p1236
I1
sVd57hys6
p1237
I1
sVdf61hl7
p1238
I1
sVde7qs1l
p1239
I1
sVd8er3gr
p1240
I1
sVdftq1z0
p1241
I1
sVd8yf97j
p1242
I1
sVdgtomq5
p1243
I1
sVd2haeg3
p1244
I2
sVd73ujk4
p1245
I1
sVd10md58
p1246
I1
sVd65zmok
p1247
I1
sVdfi9len
p1248
I1
sVdfntdb8
p1249
I2
sVd1ph6qd
p1250
I1
sVdmj3059
p1251
I1
sVd5giwi7
p1252
I3
sVdqgftst
p1253
I1
sVd2ei3ul
p1254
I1
sVdhieyss
p1255
I1
sVd1v5ugp
p1256
I1
sVdewwr5m
p1257
I1
sVd2bo87k
p1258
I1
sVd3e3scw
p1259
I1
sVd1tzjuh
p1260
I1
sVdoeox80
p1261
I1
sVd85sxdr
p1262
I1
sVde5rdqc
p1263
I1
sVd2b44n1
p1264
I1
sVd16logy
p1265
I1
sVd4gpbs3
p1266
I1
sVd78k85c
p1267
I1
sVdc1x388
p1268
I1
sVdfop2dq
p1269
I1
sVde0sdc5
p1270
I1
sVczl2i4r
p1271
I1
sVdosi6rf
p1272
I1
sVdosjhpa
p1273
I1
sVd2663xv
p1274
I1
sVddnyr16
p1275
I2
sVczgxfue
p1276
I1
sVcyi5ont
p1277
I1
sVd3xdm5r
p1278
I1
sVdr0q7r2
p1279
I1
sVdii2ino
p1280
I1
sVdaglhnt
p1281
I1
sVd1ub4et
p1282
I1
sVd54r2ug
p1283
I1
sVdoeb4j3
p1284
I1
sVd904f4z
p1285
I1
sVdhsx8y5
p1286
I1
sVd4ctdy1
p1287
I1
sVdglja93
p1288
I1
sVd7hkzfi
p1289
I1
sVdmzbg6y
p1290
I1
sVd2svipp
p1291
I1
sVdaxriiu
p1292
I2
sVdejhfde
p1293
I1
sVdc8hxxo
p1294
I2
sVd6rksqp
p1295
I1
sVdbtvjek
p1296
I1
sVds2rjx8
p1297
I1
sVd0vk8tu
p1298
I1
sVd9mheq3
p1299
I1
sVd2v0a4m
p1300
I1
sVda46ze2
p1301
I1
sVd49zwul
p1302
I1
sVdf1zbja
p1303
I2
sVd03wot7
p1304
I1
sVdcnzeva
p1305
I1
sVcymi51q
p1306
I2
sVd1ekeq4
p1307
I1
sVczmyhk5
p1308
I1
sVd73udds
p1309
I1
sVd2rlr2a
p1310
I1
sVczh3mua
p1311
I1
sVd3fjofb
p1312
I1
sVdhh1qq8
p1313
I1
sVd1jp7lc
p1314
I1
sVda0h38j
p1315
I2
sVds8af0y
p1316
I1
sVd2ue004
p1317
I1
sVdqaw6ss
p1318
I1
sVd15owzs
p1319
I1
sVdi04y5c
p1320
I2
sVdpqinc2
p1321
I1
sVdizzenq
p1322
I1
sVdcolp4z
p1323
I1
sVdjkgkq9
p1324
I1
sVdhpfd1y
p1325
I1
sVd91xxpe
p1326
I1
sVd0i63dk
p1327
I1
sVdc8agmx
p1328
I1
sVd4x8lgd
p1329
I1
sVdmgw552
p1330
I1
sVd5l8wr6
p1331
I1
sVczoy12j
p1332
I1
sVd1p911o
p1333
I1
sVdkf9c2u
p1334
I1
sVdpzo7kj
p1335
I1
sVd9dzml9
p1336
I1
sVds4a5w4
p1337
I2
sVdeh0ej5
p1338
I1
sVdjshyld
p1339
I1
sVd3jsjsv
p1340
I1
sVdpm2crv
p1341
I2
sVd1siclo
p1342
I1
sVdhewsom
p1343
I1
sVdfh1mp6
p1344
I1
sVczynb5y
p1345
I1
sVd4rfrja
p1346
I1
sVdkqa9uj
p1347
I1
sVcz7dtpd
p1348
I1
sVdj7w0lh
p1349
I1
sVdkw517f
p1350
I1
sVd0gr7dz
p1351
I1
sVd82i2fr
p1352
I1
sVd8wulqp
p1353
I2
sVdamdxl4
p1354
I1
sVdsixci7
p1355
I1
sVdknirfb
p1356
I1
sVddc92po
p1357
I1
sVdo81nrq
p1358
I1
sVddsf6oy
p1359
I1
sVd3poqca
p1360
I4
sVddmnm61
p1361
I1
sVdg6ndc0
p1362
I1
sVcz8pj9p
p1363
I1
sVdjqwack
p1364
I1
sVdf7i3u2
p1365
I1
sVda0x06r
p1366
I1
sVczufjjo
p1367
I1
sVdg1df0f
p1368
I1
sVdg62li8
p1369
I1
sVd26ubxt
p1370
I2
sVddt3lvu
p1371
I1
sVdhclsur
p1372
I2
sVdrb3nky
p1373
I1
sVdh1cc1v
p1374
I1
sVdbf4wi6
p1375
I1
sVdhqwk9g
p1376
I1
sVd6ghwfj
p1377
I1
sVd0r9tk0
p1378
I2
sVd5deqz0
p1379
I1
sVde8gdgu
p1380
I1
sVd7rc1uw
p1381
I1
sVd8xl7id
p1382
I1
sVdoicc6w
p1383
I1
sVd6bq22t
p1384
I1
sVdjwv6s8
p1385
I1
sVderla5y
p1386
I1
sVddc8qz4
p1387
I1
sVd1gsnn6
p1388
I1
sVdgl0jk3
p1389
I1
sVd2mxaqs
p1390
I1
sVd8b38ko
p1391
I1
sVd6ghbk8
p1392
I1
sVd9b25wx
p1393
I1
sVdff7rt4
p1394
I1
sVdh0sqya
p1395
I1
sVdjqeojc
p1396
I1
sVdd6w9w0
p1397
I1
sVddnjolm
p1398
I1
sVd400jqq
p1399
I1
sVdheufe0
p1400
I2
sVdcdsmwj
p1401
I1
sVd2jca1z
p1402
I1
sVdj1yg3l
p1403
I1
sVd3o0445
p1404
I1
sVd2q3cvu
p1405
I1
sVd86tywo
p1406
I1
sVd63bbmy
p1407
I1
sVcz96ywd
p1408
I2
sVd7cfxmk
p1409
I1
sVd85wioj
p1410
I1
sVdego1tm
p1411
I2
sVdcpt0po
p1412
I2
sVd0v5kfl
p1413
I1
sVdgggnzb
p1414
I1
sVd0r4p3g
p1415
I3
sVdi61hdc
p1416
I2
sVcz1ihsq
p1417
I1
sVcynsojw
p1418
I1
sVczh0234
p1419
I1
sVd3qso37
p1420
I1
sVdj32m6y
p1421
I1
sVd8aykf4
p1422
I1
sVd1zpj0m
p1423
I1
sVdoafv90
p1424
I2
sVcz9ys34
p1425
I1
sVd7cbhvz
p1426
I1
sVdsoekpp
p1427
I1
sVdinwxhm
p1428
I1
sVdje6ybf
p1429
I1
sVd5d6liu
p1430
I1
sVdhclcg8
p1431
I1
sVd0iav4t
p1432
I2
sVd2x36qt
p1433
I1
sVdeg0f56
p1434
I1
sVdc1aebq
p1435
I1
sVcyvpndf
p1436
I1
sVd7u7a7k
p1437
I1
sVd43znb0
p1438
I1
sVdktm1vh
p1439
I1
sVd40vf7l
p1440
I1
sVdfux7jf
p1441
I1
sVdb2gli4
p1442
I2
sVdmog9l7
p1443
I1
sVd9u33qq
p1444
I1
sVczoqcum
p1445
I1
sVddyalz4
p1446
I1
sVd33o09k
p1447
I1
sVdsq1qux
p1448
I1
sVd73ojn4
p1449
I1
sVdg22xc0
p1450
I2
sVdgb7vi4
p1451
I1
sVd6m1qyf
p1452
I1
sVdmz9z9u
p1453
I1
sVdjoxlwy
p1454
I2
sVdjpoo0k
p1455
I2
sVd1pxruh
p1456
I1
sVd5l1ykh
p1457
I1
sVdgj2h14
p1458
I1
sVddhqrp4
p1459
I1
sVdajbujp
p1460
I1
sVdawgvsl
p1461
I2
sVd3muy5a
p1462
I1
sVd1lc4o8
p1463
I1
sVdsnb439
p1464
I1
sVdnybger
p1465
I2
sVd1mntcl
p1466
I1
sVdceyh4a
p1467
I1
sVdooehoz
p1468
I1
sVdgdsfx6
p1469
I2
sVdgnpv5l
p1470
I1
sVdebkms0
p1471
I1
sVdndn2wr
p1472
I1
sVdmq72dm
p1473
I1
sVd0jalka
p1474
I1
sVdjv3arb
p1475
I1
sVd72wikk
p1476
I1
sVd6wp0lu
p1477
I1
sVd1lmfx3
p1478
I1
sVd992sc6
p1479
I1
sVde7a6m6
p1480
I1
sVd4jmdun
p1481
I1
sVdc8ydld
p1482
I1
sVd8fmg6d
p1483
I1
sVd0ct9v2
p1484
I1
sVd7pdtrf
p1485
I1
sVd0mfqul
p1486
I2
sVde73any
p1487
I2
sVdf05gjr
p1488
I1
sVdmpkrum
p1489
I1
sVdbdjtms
p1490
I2
sVdba4o9p
p1491
I1
sVdej0rcg
p1492
I1
sVdgekfcq
p1493
I1
sVd9mip2b
p1494
I1
sVcylj2jj
p1495
I1
sVdgyu7ow
p1496
I1
sVcyuvxpc
p1497
I1
sVd1el9o8
p1498
I1
sVcznbkzd
p1499
I1
sVd9d6fwk
p1500
I1
sVddx9kmm
p1501
I1
sVd3yjbp7
p1502
I1
sVd4wtj35
p1503
I1
sVdnyl5h0
p1504
I1
sVdemrvzg
p1505
I1
sVdc1f2az
p1506
I1
sVdojx4ms
p1507
I2
sVd0tpjoz
p1508
I1
sVd981v4v
p1509
I1
sVd3afgjl
p1510
I1
sVdenxwjb
p1511
I1
sVd9xu67z
p1512
I1
sVdim0pg2
p1513
I2
sVdi61zqh
p1514
I1
sVcz5jy30
p1515
I2
sVd6o0wqz
p1516
I1
sVd33x1ks
p1517
I1
sVdqmng19
p1518
I1
sVde63cak
p1519
I5
sVd0quhy9
p1520
I1
sVd6gpkhf
p1521
I1
sVdkxyfnn
p1522
I1
sVdps1xu4
p1523
I1
sVd7r95q4
p1524
I1
sVdf09bf5
p1525
I1
sVdb341p5
p1526
I1
sVddv2bfx
p1527
I1
sVczgsz9q
p1528
I1
sVczzrk66
p1529
I1
sVdefjxcn
p1530
I1
sVcypsjwi
p1531
I1
sVd6c06bp
p1532
I2
sVdt91sxu
p1533
I1
sVdrlymo1
p1534
I1
sVd6z1xbt
p1535
I1
sVddda3l0
p1536
I1
sVdhsgk8s
p1537
I1
sVd6vft61
p1538
I1
sVd6h50yv
p1539
I1
sVcz9ll20
p1540
I1
sVdo6c3bq
p1541
I1
sVd24lasg
p1542
I3
sVdpwealo
p1543
I1
sVcyzqacp
p1544
I1
sVcz6xall
p1545
I1
sVd05ep3s
p1546
I1
sVd2uzvi9
p1547
I1
sVd9qt3p6
p1548
I1
sVczjy2a4
p1549
I1
sVd40gyw1
p1550
I1
sVd13oegw
p1551
I1
sVczulzen
p1552
I1
sVd8l9id3
p1553
I1
sVdk2x2y0
p1554
I1
sVdhx63xs
p1555
I2
sVddnypct
p1556
I1
sVd7nblxs
p1557
I1
sVda0ffqo
p1558
I1
sVd0m22s2
p1559
I2
sVd1tvjpy
p1560
I1
sVdh58ftw
p1561
I1
sVdmjq9e2
p1562
I1
sVcz3s514
p1563
I1
sVdikwc7m
p1564
I1
sVdrbsci0
p1565
I1
sVddylsev
p1566
I1
sVddyi67g
p1567
I1
sVd8hoqy1
p1568
I1
sVd06vbz5
p1569
I1
sVd2boz45
p1570
I4
sVdka2z9g
p1571
I1
sVdhb8ov0
p1572
I1
sVd2kdsvy
p1573
I1
sVdgllpra
p1574
I1
sVdet1gpv
p1575
I1
sVczifwny
p1576
I1
sVczwl11e
p1577
I1
sVd2yysya
p1578
I2
sVdbih5yb
p1579
I1
sVd2ng32f
p1580
I1
sVdpz5okn
p1581
I1
sVdpz3iz3
p1582
I1
sVdg1y6mx
p1583
I1
sVde69cp1
p1584
I1
sVd7lvgy3
p1585
I1
sVde4a1fa
p1586
I1
sVd0i9yjp
p1587
I1
sVdo0t7r3
p1588
I1
sVd4c1asv
p1589
I1
sVdhgsqfm
p1590
I1
sVdrfi7n8
p1591
I1
sVdgi9do1
p1592
I1
sVdgwipvs
p1593
I2
sVdboveqw
p1594
I1
sVd5lp8ah
p1595
I2
sVddyollw
p1596
I1
sVd56ibsd
p1597
I1
sVdq0sini
p1598
I1
sVddnanb6
p1599
I1
sVd8zsgyn
p1600
I1
sVdrv9myp
p1601
I1
sVd8k8jfm
p1602
I1
sVd3kg8ch
p1603
I1
sVdkpjipw
p1604
I1
sVdio6mng
p1605
I1
sVd7qwkjl
p1606
I1
sVd7qanor
p1607
I3
sVdn16nmm
p1608
I2
sVdfwxy6b
p1609
I1
sVd085xvx
p1610
I1
sVdn85bdm
p1611
I1
sVczg4qym
p1612
I1
sVd23hi2y
p1613
I1
sVdaayw82
p1614
I1
sVd6lbwgx
p1615
I1
sVd390eee
p1616
I1
sVd36bore
p1617
I1
sVd4tzf65
p1618
I1
sVdgzf233
p1619
I1
sVd0cwlru
p1620
I1
sVdagfwxk
p1621
I1
sVd1cy94o
p1622
I1
sVdj079wk
p1623
I1
sVdn8gsba
p1624
I1
sVd3j1iqb
p1625
I1
sVd1zcjif
p1626
I1
sVd6gbkmw
p1627
I1
sVdhdh3s1
p1628
I1
sVdpzhyy5
p1629
I1
sVdosu7qn
p1630
I1
sVdjbrti8
p1631
I1
sVdfohdia
p1632
I1
sVcyshhhr
p1633
I1
sVcyr4y87
p1634
I1
sVddcly8c
p1635
I1
sVd8ylddz
p1636
I1
sVdal1o1z
p1637
I1
sVdn309ws
p1638
I1
sVd1wrxgd
p1639
I1
sVdbn4uof
p1640
I1
sVd90zp88
p1641
I1
sVd3zsayl
p1642
I1
sVd03xugx
p1643
I1
sVd0d4j23
p1644
I1
sVdeiga1u
p1645
I1
sVd4xmkq4
p1646
I1
sVdqxisbe
p1647
I2
sVd61utv2
p1648
I1
sVd78zznm
p1649
I2
sVd4uwa5n
p1650
I1
sVd147oku
p1651
I1
sVdcbmi3p
p1652
I1
sVdb5tuqf
p1653
I1
sVd2kf1e8
p1654
I1
sVd1w59bd
p1655
I1
sVd2pymtg
p1656
I1
sVdgkksk4
p1657
I1
sVd2ueiqy
p1658
I1
sVdihpjb4
p1659
I1
sVdbiwwyc
p1660
I1
sVdg0sqtr
p1661
I1
sVddif6wc
p1662
I1
sVd2up993
p1663
I1
sVd7vxadj
p1664
I1
sVcyu8t87
p1665
I1
sVd38l6vs
p1666
I1
sVdg275ub
p1667
I1
sVdfix6l4
p1668
I1
sVd4d8892
p1669
I1
sVdd3vypl
p1670
I1
sVdi1wmkk
p1671
I1
sVcz1gpe5
p1672
I2
sVdh5qjm9
p1673
I2
sVd1ela5q
p1674
I1
sVd1u1m6l
p1675
I1
sVd0t4x2q
p1676
I1
sVd2dhxf3
p1677
I1
sVd9n61qr
p1678
I1
sVdcftl45
p1679
I1
sVdcghxhb
p1680
I1
sVd7aoku9
p1681
I1
sVdii03lu
p1682
I1
sVd0173lr
p1683
I1
sVd8gn2we
p1684
I1
sVdj8kvty
p1685
I1
sVdgn0qlk
p1686
I1
sVd85ed4u
p1687
I1
sVd08e5ri
p1688
I1
sVd0ajjc6
p1689
I1
sVdfkes0t
p1690
I1
sVdk9pnwc
p1691
I1
sVdfs47kf
p1692
I1
sVdq81tnv
p1693
I1
sVd28ptow
p1694
I1
sVdg64b0v
p1695
I1
sVd804k6i
p1696
I1
sVdmoqaji
p1697
I1
sVd6i876v
p1698
I1
sVdamqq3v
p1699
I1
sVdntfh2b
p1700
I1
sVdan49sf
p1701
I2
sVd9ccp9e
p1702
I2
sVdjfxbiz
p1703
I1
sVd3a9mqq
p1704
I1
sVdc7az4t
p1705
I1
sVdfzueph
p1706
I1
sVdoadjny
p1707
I2
sVd9tnsn2
p1708
I1
sVdnfewfs
p1709
I2
sVd9x2xv3
p1710
I1
sVd7b9mtr
p1711
I2
sVd3gosou
p1712
I1
sVd6nd48g
p1713
I1
sVdcpcyb4
p1714
I1
sVd6i2grs
p1715
I1
sVcztp4pw
p1716
I1
sVdh5zbcx
p1717
I1
sVddzn7nr
p1718
I1
sVdcp6sjc
p1719
I1
sVdccdev8
p1720
I1
sVd8ruozs
p1721
I1
sVd8agzg3
p1722
I1
sVdbl5wa3
p1723
I1
sVdek5kku
p1724
I1
sVdnhniv2
p1725
I1
sVdi8oc8x
p1726
I1
sVd7busvi
p1727
I2
sVd1am4tb
p1728
I1
sVcykrl4m
p1729
I1
sVczdhe5n
p1730
I1
sVcz847nm
p1731
I1
sVd9q6tek
p1732
I1
sVdpoumtf
p1733
I1
sVdd84ady
p1734
I1
sVd2h5y79
p1735
I2
sVcz9l9u5
p1736
I1
sVd7wnt74
p1737
I1
sVdh0rn4p
p1738
I1
sVd7h39aj
p1739
I1
sVdtiolsz
p1740
I1
sVdg7uou8
p1741
I1
sVdcg08ea
p1742
I1
sVd51l9hx
p1743
I1
sVd6d6v0h
p1744
I1
sVd9jnurc
p1745
I1
sVdj4dc5s
p1746
I1
sVdp3xog2
p1747
I1
sVdrt3lhy
p1748
I1
sVd7aqx68
p1749
I1
sVd0v5d5j
p1750
I1
sVcys221b
p1751
I1
sVcyv39yt
p1752
I1
sVdphv9fl
p1753
I1
sVd0ulcj0
p1754
I1
sVd5qums6
p1755
I1
sVd87am3q
p1756
I1
sVd8tjem0
p1757
I1
sVdewyp8l
p1758
I1
sVdhh5uil
p1759
I1
sVd027ygf
p1760
I1
sVdgwom8g
p1761
I1
sVd3ka47t
p1762
I1
sVdax1jar
p1763
I1
sVd0w8waw
p1764
I1
sVd8c8b4z
p1765
I1
sVdb5h6fk
p1766
I1
sVd8ul530
p1767
I1
sVdaechn6
p1768
I1
sVd3mhl0r
p1769
I1
sVczog4rd
p1770
I1
sVd3eqi2l
p1771
I2
sVd7cp5oe
p1772
I1
sVdfs483n
p1773
I1
sVdifqjei
p1774
I1
sVd78shbu
p1775
I1
sVd0icb5l
p1776
I1
sVd66ry8x
p1777
I1
sVczqfvnp
p1778
I1
sVdgniw9u
p1779
I1
sVd020l42
p1780
I1
sVde6i5r7
p1781
I1
sVd7bac70
p1782
I1
sVd3q35iv
p1783
I4
sVd9yqclj
p1784
I1
sVd4we0l7
p1785
I1
sVd92284d
p1786
I2
sVdi40tts
p1787
I1
sVddj7tdm
p1788
I1
sVdi8ugdu
p1789
I1
sVd1znxhp
p1790
I2
sVd3zx8zj
p1791
I1
sVd1iq9k7
p1792
I1
sVdi81o8e
p1793
I1
sVda48hs5
p1794
I1
sVddiiph7
p1795
I2
sVd0dlenw
p1796
I2
sVd5l9f4z
p1797
I1
sVdcx6j8i
p1798
I1
sVd7r88vq
p1799
I1
sVd2wrk2z
p1800
I2
sVd032r13
p1801
I1
sVdn2wly9
p1802
I1
sVdfidbmh
p1803
I1
sVcyjamrw
p1804
I1
sVdbt5xtj
p1805
I1
sVd6d272t
p1806
I1
sVdfgq0t4
p1807
I1
sVd9rgjpp
p1808
I1
sVd9ntam5
p1809
I1
sVdc2m5su
p1810
I1
sVdo9anp5
p1811
I1
sVcymvupa
p1812
I1
sVcz7h8rh
p1813
I1
sVdi7ij1a
p1814
I1
sVd60putl
p1815
I1
sVdp4dcj8
p1816
I1
sVd3j89nk
p1817
I1
sVd1ndae2
p1818
I1
sVdde5tok
p1819
I1
sVd0yx9tg
p1820
I3
sVdfii2j0
p1821
I3
sVd07zjmh
p1822
I1
sVd8aolmp
p1823
I1
sVdjis7vv
p1824
I1
sVds8o09c
p1825
I1
sVdnupozv
p1826
I1
sVd3hapn3
p1827
I1
sVdizoj5s
p1828
I1
sVd5rr6vj
p1829
I1
sVd2c96rd
p1830
I1
sVdmz2icp
p1831
I1
sVd7efsgn
p1832
I1
sVd9yy985
p1833
I1
sVdrtigz1
p1834
I1
sVdazn3kc
p1835
I1
sVdkfcwha
p1836
I1
sVdrzjl23
p1837
I1
sVdgtl2rj
p1838
I1
sVdkqrxrn
p1839
I1
sVdo1fcsc
p1840
I1
sVdswd32h
p1841
I1
sVdsevdm0
p1842
I1
sVdp1ddrm
p1843
I1
sVd12d47o
p1844
I1
sVd3b62x0
p1845
I1
sVd5prk6i
p1846
I5
sVd15vy8n
p1847
I1
sVd33acv5
p1848
I1
sVd4oyc5w
p1849
I1
sVdap5fmx
p1850
I1
sVdcjysh7
p1851
I2
sVd0hab5x
p1852
I1
sVcysmvqf
p1853
I1
sVdhghdtb
p1854
I1
sVdbdqv1k
p1855
I1
sVd9u7j7j
p1856
I1
sVd087hbp
p1857
I1
sVd91liy8
p1858
I1
sVdf0keab
p1859
I2
sVd58pivl
p1860
I1
sVdb7cqlj
p1861
I1
sVdrxbljj
p1862
I2
sVdb4714q
p1863
I1
sVd2nbg9w
p1864
I1
sVdc1nsbg
p1865
I1
sVcyqc00y
p1866
I1
sVd2xvdl7
p1867
I1
sVcz2p9wt
p1868
I1
sVd1jwtfc
p1869
I1
sVdcuhvvi
p1870
I1
sVd08fecv
p1871
I1
sVd4plu9a
p1872
I1
sVdnww2lr
p1873
I1
sVd4cai5h
p1874
I1
sVd7gas37
p1875
I1
sVd6le39j
p1876
I1
sVd7hohky
p1877
I1
sVddg2xwr
p1878
I1
sVdhwslxe
p1879
I1
sVdq7xett
p1880
I6
sVd8lvpdr
p1881
I1
sVdsxaz24
p1882
I1
sVdt4wrnl
p1883
I1
sVdmuv132
p1884
I1
sVderifwk
p1885
I1
sVdgv8kxy
p1886
I1
sVd2bof6q
p1887
I1
sVdizmp4i
p1888
I1
sVdkere77
p1889
I1
sVdk7iht3
p1890
I1
sVde3vmwi
p1891
I1
sVdtgh6a0
p1892
I1
sVdh7xuu7
p1893
I1
sVd59jn3f
p1894
I1
sVdgqq7dt
p1895
I1
sVd5ob2cg
p1896
I1
sVdqfogvs
p1897
I1
sVd24j5az
p1898
I2
sVd9zlb1i
p1899
I1
sVdk6ekiw
p1900
I1
sVdrbw8uc
p1901
I1
sVd9pf8z8
p1902
I1
sVdp1dywh
p1903
I1
sVdfhguo4
p1904
I1
sVdajyeab
p1905
I1
sVdko8n7k
p1906
I1
sVdg73ue5
p1907
I1
sVdn9nhkt
p1908
I1
sVd7naghh
p1909
I1
sVd3drvjo
p1910
I1
sVdg5idju
p1911
I2
sVdcdurxs
p1912
I1
sVdgmom64
p1913
I1
sVcz3ycgo
p1914
I1
sVdk1kxmt
p1915
I2
sVd6t70dh
p1916
I1
sVd5w574m
p1917
I1
sVdbu0joj
p1918
I1
sVd6s94x6
p1919
I3
sVds9x0b6
p1920
I1
sVd7kkt67
p1921
I1
sVdkvu04f
p1922
I1
sVdjbcg32
p1923
I1
sVdjix8c6
p1924
I1
sVd4rx4jl
p1925
I2
sVd7mx9ee
p1926
I1
sVcyrqz2u
p1927
I1
sVdiyvtnm
p1928
I1
sVdh4ajfo
p1929
I1
sVcyy5gy0
p1930
I1
sVcyyd1qi
p1931
I1
sVdncz8ko
p1932
I1
sVd5jq8ap
p1933
I1
sVd3r2hoo
p1934
I1
sVdo9l786
p1935
I1
sVdeiznhf
p1936
I1
sVdf9undi
p1937
I1
sVdin9u69
p1938
I1
sVd3j152n
p1939
I1
sVdecyrmz
p1940
I1
sVd5zadwe
p1941
I1
sVczqyget
p1942
I2
sVdcnst39
p1943
I1
sVd9ewpvx
p1944
I1
sVd1cmw8w
p1945
I1
sVddsoge5
p1946
I1
sVcyqwtkc
p1947
I1
sVd1yxiv9
p1948
I1
sVcyiduby
p1949
I1
sVdetiiwt
p1950
I1
sVczlurij
p1951
I1
sVdcfmo71
p1952
I1
sVdryvt3i
p1953
I1
sVd6gbiok
p1954
I1
sVdb9h6a1
p1955
I1
sVd02tfno
p1956
I1
sVdgbeqxq
p1957
I2
sVdjmt297
p1958
I1
sVdrz1vht
p1959
I1
sVd09hpc2
p1960
I1
sVdcfc03y
p1961
I1
sVdfg9e2h
p1962
I1
sVdkfv5d1
p1963
I1
sVd1gnqyv
p1964
I1
sVd91m7ud
p1965
I1
sVdayuc7k
p1966
I2
sVczhxbjs
p1967
I1
sVd668j60
p1968
I1
sVd1jq7h1
p1969
I1
sVd97ex04
p1970
I1
sVdg4mnef
p1971
I1
sVd1x5qz8
p1972
I1
sVd5qqps6
p1973
I1
sVdivdbhg
p1974
I1
sVdi4puxy
p1975
I2
sVda7cxme
p1976
I1
sVdaz706g
p1977
I1
sVd7o084a
p1978
I1
sVdqr1lek
p1979
I1
sVdgko6rk
p1980
I2
sVcyzebfe
p1981
I1
sVd6j0kmt
p1982
I1
sVd2oenbd
p1983
I1
sVds27itb
p1984
I1
sVdih7vx2
p1985
I1
sVd5c3r26
p1986
I1
sVd5hft0g
p1987
I1
sVd7hzwsi
p1988
I1
sVczslnze
p1989
I1
sVd3csg9u
p1990
I1
sVdn024qf
p1991
I1
sVd20wrvw
p1992
I2
sVd0d9ch8
p1993
I1
sVdqvhh0v
p1994
I3
sVdemdsjy
p1995
I1
sVd6jg4v0
p1996
I1
sVd2dfkur
p1997
I1
sVd6k29dc
p1998
I1
sVdcjk45i
p1999
I1
sVdd5cl2i
p2000
I2
sVdh7vpca
p2001
I1
sVd58u4w6
p2002
I1
sVcz44rog
p2003
I1
sVdef5byv
p2004
I1
sVdnyfbfu
p2005
I1
sVdgzusff
p2006
I1
sVdbs20xo
p2007
I1
sVdpii1ff
p2008
I1
sVd6kq8ff
p2009
I1
sVdosh6nc
p2010
I1
sVd177xni
p2011
I1
sVdc9ojcn
p2012
I1
sVdizu046
p2013
I1
sVdcaxpe1
p2014
I1
sVd2fhjd3
p2015
I1
sVd0d69a7
p2016
I1
sVd425p54
p2017
I1
sVdetw0v7
p2018
I1
sVd1jgruk
p2019
I3
sVd0o9bj3
p2020
I2
sVczhii1q
p2021
I1
sVd7dpcsm
p2022
I1
sVczq5bao
p2023
I1
sVdjk8ejz
p2024
I2
sVd8hm615
p2025
I1
sVdjclb5v
p2026
I1
sVd2u2wvt
p2027
I1
sVd111a5r
p2028
I1
sVdbg6h13
p2029
I1
sVd0koagx
p2030
I1
sVdavunzw
p2031
I1
sVdr0qwv1
p2032
I1
sVd7yykcu
p2033
I1
sVdnr6ale
p2034
I1
sVdbaiprw
p2035
I1
sVdt56u9a
p2036
I1
sVdocuv8s
p2037
I1
sVd78rnbw
p2038
I1
sVdcydren
p2039
I1
sVd4gwp11
p2040
I1
sVd0xp6j5
p2041
I1
sVd62vnkn
p2042
I1
sVdswuehy
p2043
I1
sVd4u3l3j
p2044
I2
sVdbih8ln
p2045
I1
sVdiysmo8
p2046
I1
sVdcqp4zu
p2047
I1
sVd2qpiu3
p2048
I1
sVd68maen
p2049
I1
sVd6sh037
p2050
I1
sVd202kua
p2051
I1
sVcyqx4qn
p2052
I1
sVdecie3r
p2053
I1
sVddvh6sy
p2054
I4
sVdduemka
p2055
I1
sVdmvtu8j
p2056
I1
sVd0bv0nd
p2057
I1
sVd19wlm0
p2058
I1
sVd9ttfc6
p2059
I1
sVdt0b3x0
p2060
I1
sVdam1f6n
p2061
I1
sVd1t7p3p
p2062
I1
sVd95846y
p2063
I1
sVd70ypii
p2064
I1
sVdnwotbe
p2065
I2
sVd2oykst
p2066
I1
sVdcxmx2i
p2067
I1
sVddyrlhl
p2068
I1
sVd19pghg
p2069
I1
sVd4s23qa
p2070
I1
sVd8okjek
p2071
I1
sVdjhgnbx
p2072
I1
sVdce0fcg
p2073
I1
sVd1zo7o0
p2074
I1
sVczpkyn6
p2075
I1
sVdi34ah4
p2076
I1
sVdeejm46
p2077
I2
sVdp5slww
p2078
I1
sVd3t7yha
p2079
I1
sVd222tqv
p2080
I1
sVdcouv7y
p2081
I1
sVdry531i
p2082
I1
sVds60tqp
p2083
I1
sVd8jio9w
p2084
I2
sVczw6fb1
p2085
I1
sVdbxkj2f
p2086
I2
sVdmfiqmx
p2087
I2
sVdj2qqm2
p2088
I1
sVddl20rj
p2089
I1
sVds987zl
p2090
I1
sVddxqqzf
p2091
I1
sVdspsfak
p2092
I1
sVdj263ik
p2093
I1
sVd8xnlff
p2094
I1
sVd9agry2
p2095
I1
sVdb2z4rv
p2096
I1
sVd5bjhtg
p2097
I1
sVd0juzxd
p2098
I2
sVdi5ghop
p2099
I1
sVdnvzwxx
p2100
I1
sVdo2bmlo
p2101
I1
sVdsg38cb
p2102
I1
sVd40kbaz
p2103
I1
sVdj773zx
p2104
I1
sVdgkivs2
p2105
I1
sVcz1pimq
p2106
I1
sVdo044zi
p2107
I1
sVd8wuwa7
p2108
I1
sVdh8mk4b
p2109
I1
sVde9l6oq
p2110
I1
sVdgpmdm5
p2111
I2
sVd8s4cn8
p2112
I1
sVdn602a7
p2113
I1
sVdruefgr
p2114
I1
sVdgb3dww
p2115
I2
sVd9r93k2
p2116
I1
sVd7p458n
p2117
I2
sVcyr74dg
p2118
I1
sVd61r9ei
p2119
I1
sVdaisr6t
p2120
I1
sVdg7qcf6
p2121
I1
sVdafz4vl
p2122
I1
sVdrkt5lh
p2123
I1
sVdtegzct
p2124
I2
sVd1eufqf
p2125
I3
sVdell1c9
p2126
I1
sVd7wo0lt
p2127
I1
sVdetqeju
p2128
I1
sVd29rnzn
p2129
I1
sVd7tblev
p2130
I1
sVd3t47zd
p2131
I1
sVd7k9r7u
p2132
I1
sVdhp0b79
p2133
I1
sVd31g26x
p2134
I1
sVdhqqnw8
p2135
I1
sVd7kodf1
p2136
I2
sVdbc38d9
p2137
I1
sVcykdaw3
p2138
I1
sVdjmd1gh
p2139
I1
sVd5sh2qk
p2140
I1
sVd2hzt4q
p2141
I2
sVdbde433
p2142
I1
sVd2d23q7
p2143
I1
sVdb541kz
p2144
I1
sVd3ejoxf
p2145
I3
sVczm8fw7
p2146
I1
sVdqvnlxc
p2147
I1
sVd7gt488
p2148
I1
sVd7txs5q
p2149
I1
sVdn5yv7n
p2150
I1
sVddxy3wc
p2151
I1
sVdtcvmmc
p2152
I1
sVd0liale
p2153
I1
sVdc2juqz
p2154
I1
sVdojp6op
p2155
I1
sVdpw0y7e
p2156
I1
sVdbie55s
p2157
I1
sVd27c7fh
p2158
I1
sVd7vwon5
p2159
I1
sVd26t1hr
p2160
I1
sVd4dvaiu
p2161
I1
sVdgb4npa
p2162
I1
sVdkge0q8
p2163
I2
sVdfwy8ey
p2164
I1
sVd2mycoq
p2165
I1
sVd3ez7oj
p2166
I1
sVd60pt76
p2167
I1
sVd9trk4o
p2168
I1
sVdfb392v
p2169
I1
sVd25oxa6
p2170
I1
sVdhownen
p2171
I1
sVdhpl84n
p2172
I2
sVd9kfaln
p2173
I1
sVdj03coa
p2174
I1
sVdmerjkt
p2175
I1
sVdanh73b
p2176
I1
sVd036fco
p2177
I1
sVd63w91j
p2178
I1
sVd1j4kyt
p2179
I1
sVd2o5am1
p2180
I1
sVdqivq5p
p2181
I1
sVdowv0mc
p2182
I2
sVdn1q8yh
p2183
I2
sVcyjp24v
p2184
I1
sVdsev91v
p2185
I2
sVdiqdtt8
p2186
I1
sVdmwmhyh
p2187
I1
sVdelmw1b
p2188
I1
sVdqek1pn
p2189
I1
sVdgi402n
p2190
I1
sVddmxql1
p2191
I1
sVdqqttn6
p2192
I1
sVdbfdhgx
p2193
I1
sVdnildt5
p2194
I1
sVdevyc86
p2195
I1
sVd9ad2sk
p2196
I1
sVdhqdlhs
p2197
I1
sVd0oz1mj
p2198
I1
sVdbklu01
p2199
I1
sVd4lk729
p2200
I1
sVdgojmgq
p2201
I1
sVdeualxp
p2202
I1
sVdh0xgah
p2203
I1
sVd3k0vj7
p2204
I1
sVczh8ytc
p2205
I1
sVdeuftty
p2206
I1
sVd4o6xli
p2207
I1
sVdddw6s9
p2208
I1
sVd0m8hah
p2209
I1
sVdjlo70d
p2210
I1
sVd81dc0q
p2211
I1
sVd6oqxzj
p2212
I1
sVdd1yfbe
p2213
I1
sVdizr31q
p2214
I1
sVd4u8doh
p2215
I1
sVd7r30b6
p2216
I1
sVdoaduz6
p2217
I1
sVdkpz01l
p2218
I1
sVd8f9n33
p2219
I1
sVddr0yxr
p2220
I1
sVd5n3dz0
p2221
I1
sVdfqurr9
p2222
I1
sVd1dvd4f
p2223
I1
sVd2dvsjh
p2224
I1
sVd89915p
p2225
I1
sVd2qcoxw
p2226
I1
sVdqjif1r
p2227
I1
sVde7mj0n
p2228
I1
sVdjbcnbb
p2229
I1
sVd2cyo94
p2230
I1
sVdg98hn2
p2231
I1
sVd1qzybj
p2232
I1
sVde6qvcu
p2233
I1
sVdqm99c2
p2234
I2
sVdnyc4e2
p2235
I2
sVda35o8o
p2236
I1
sVcyjdabr
p2237
I1
sVd8ftepz
p2238
I1
sVddm544v
p2239
I1
sVdry9lwm
p2240
I1
sVdjjr11w
p2241
I1
sVd6thehv
p2242
I1
sVdo86q3k
p2243
I2
sVdi5n0xa
p2244
I1
sVd2ouvtc
p2245
I1
sVdnzn3kr
p2246
I1
sVd3cw3z7
p2247
I1
sVdaj112e
p2248
I1
sVd6ka6fu
p2249
I1
sVdhjt606
p2250
I1
sVd7ju5ol
p2251
I1
sVd20i2l0
p2252
I1
sVd32krpz
p2253
I1
sVdih3ota
p2254
I1
sVdn58pyw
p2255
I2
sVdbpqo8k
p2256
I1
sVd5e2pmo
p2257
I1
sVd4b74e7
p2258
I1
sVd34167c
p2259
I1
sVd1c671s
p2260
I1
sVd045uex
p2261
I1
sVdcur5kz
p2262
I1
sVd110n3s
p2263
I1
sVd1sal3g
p2264
I1
sVd3atye5
p2265
I1
sVdj03f7j
p2266
I1
sVdc7wr3u
p2267
I1
sVdc0t3ww
p2268
I1
sVdd6n5sq
p2269
I1
sVd6fmj95
p2270
I1
sVd8b8qts
p2271
I1
sVd8ndsdw
p2272
I1
sVdavgknr
p2273
I1
sVdjzzcn3
p2274
I1
sVdg27k2m
p2275
I2
sVdobgb9f
p2276
I1
sVdfhfj1r
p2277
I1
sVdfrtctj
p2278
I1
sVdhfnwfa
p2279
I1
sVczetmhi
p2280
I1
sVdd1474m
p2281
I4
sVcztfwyo
p2282
I2
sVdhdl8va
p2283
I1
sVd37uxa2
p2284
I2
sVddeghpc
p2285
I1
sVdgwfhx6
p2286
I1
sVdiz2ipm
p2287
I2
sVdndol5l
p2288
I1
sVdh5q69i
p2289
I1
sVdfkfvrm
p2290
I1
sVddaslme
p2291
I1
sVd1i2ra9
p2292
I1
sVdc9hm5p
p2293
I1
sVd6x3j8w
p2294
I1
sVdcov7lg
p2295
I1
sVdbes3rl
p2296
I1
sVd7cmr9a
p2297
I1
sVdizoq18
p2298
I1
sVd0kjx4q
p2299
I1
sVdi4ppb5
p2300
I1
sVd9eb6mr
p2301
I1
sVd0n4ryh
p2302
I1
sVddwn11a
p2303
I1
sVdf2qvia
p2304
I1
sVd4zri1m
p2305
I1
sVcz3dtfl
p2306
I2
sVdbtx563
p2307
I1
sVd1br1qa
p2308
I2
sVd0hveuu
p2309
I2
sVdf8wl46
p2310
I1
sVdtfd3pq
p2311
I1
sVd8dosaw
p2312
I2
sVdcvt7s3
p2313
I1
sVd0dnksl
p2314
I1
sVddu4yiq
p2315
I1
sVd08cx8k
p2316
I1
sVdsste28
p2317
I1
sVd60da6a
p2318
I1
sVd2cyfpr
p2319
I1
sVdb4eqdq
p2320
I2
sVd9lqeov
p2321
I1
sVddezy41
p2322
I1
sVd05azn4
p2323
I1
sVdoj6sro
p2324
I1
sVdhlvs5u
p2325
I1
sVd4hiacb
p2326
I1
sVder7fpv
p2327
I2
sVdciu3py
p2328
I1
sVdq8j491
p2329
I1
sVdj1slsb
p2330
I1
sVd8eprs5
p2331
I1
sVdc5n5pu
p2332
I1
sVd1jaw5g
p2333
I1
sVdecqp4j
p2334
I1
sVd3ui348
p2335
I1
sVd5jpnt1
p2336
I1
sVdh50lui
p2337
I1
sVdjn7gdc
p2338
I1
sVdd7jo6r
p2339
I1
sVd6cmnve
p2340
I1
sVd086lsb
p2341
I1
sVcz6s3lq
p2342
I1
sVcyxvczr
p2343
I1
sVdmmg1ld
p2344
I1
sVdb977go
p2345
I1
sVdh0ntfe
p2346
I1
sVd0j3jxy
p2347
I5
sVdgzn0s8
p2348
I1
sVd25i1p7
p2349
I2
sVdk10cvx
p2350
I1
sVd0pv95x
p2351
I1
sVd4n0ho6
p2352
I1
sVd2pks6n
p2353
I1
sVd3ex1r2
p2354
I1
sVd3sq9ti
p2355
I1
sVdh8a4zq
p2356
I1
sVd7iml4c
p2357
I1
sVdgayc74
p2358
I1
sVdbi3wds
p2359
I1
sVd6rnhhs
p2360
I1
sVdpw2hs4
p2361
I2
sVdpmwimt
p2362
I1
s.