(dp0
Vdaxt1c9
p1
I1
sVd5suv66
p2
I1
sVdov202z
p3
I1
sVdklzt41
p4
I1
sVde3eeu8
p5
I1
sVd6ppxcm
p6
I2
sVdeony75
p7
I1
sVdh8nkyp
p8
I1
sVdilb61k
p9
I1
sVczgi8jx
p10
I2
sVdbmxauw
p11
I2
sVdhi04kp
p12
I1
sVd0xv4fu
p13
I1
sVd1c6ipk
p14
I2
sVd79chh9
p15
I1
sVdmufnc2
p16
I1
sVdcveku7
p17
I1
sVd2cgndk
p18
I1
sVdi6mcns
p19
I1
sVdeurtkr
p20
I3
sVdgwtfnk
p21
I1
sVdn3umjr
p22
I1
sVcyrsp30
p23
I1
sVd6527tb
p24
I1
sVd7j1y9h
p25
I1
sVdckk47c
p26
I2
sVdjfqqlr
p27
I2
sVdesdn4m
p28
I1
sVdayoe50
p29
I1
sVcz5l3r9
p30
I3
sVdemgoye
p31
I1
sVddavr9n
p32
I1
sVd0tf34s
p33
I1
sVd885se2
p34
I1
sVdj4gb98
p35
I2
sVdo66alz
p36
I1
sVd2r5sky
p37
I1
sVd1p6gsg
p38
I1
sVdktk2oe
p39
I1
sVdkljk8j
p40
I1
sVdbewzk1
p41
I2
sVdeksrus
p42
I1
sVd4fs78a
p43
I1
sVd14ozyc
p44
I1
sVd8bvekt
p45
I1
sVdtamc5k
p46
I1
sVd0tu3ms
p47
I3
sVdewy6sc
p48
I1
sVdkep1hg
p49
I1
sVd88vdlm
p50
I8
sVd71ry1s
p51
I1
sVdpahq7d
p52
I1
sVd30p0rp
p53
I1
sVd1zszfi
p54
I1
sVd7o7lrm
p55
I1
sVddu77i6
p56
I1
sVdbgsj0y
p57
I1
sVd03za9b
p58
I1
sVd7t4bkf
p59
I1
sVd5l2mdw
p60
I1
sVdppha2d
p61
I1
sVcymfnnq
p62
I1
sVdf63yby
p63
I1
sVdimjxtd
p64
I2
sVd55dtme
p65
I1
sVdag3hkb
p66
I1
sVdcgh982
p67
I1
sVczooyq7
p68
I5
sVdo2k6d0
p69
I1
sVdi1eyb8
p70
I1
sVdkp39gp
p71
I1
sVd3aumcg
p72
I1
sVd7pm2um
p73
I1
sVdn75crg
p74
I1
sVdb9j9k7
p75
I1
sVdhjgq78
p76
I1
sVd5nkpsx
p77
I1
sVdfh8xt7
p78
I1
sVd0tes61
p79
I1
sVd8djjxb
p80
I1
sVd4nru4t
p81
I1
sVdih12c8
p82
I1
sVd0vzhl9
p83
I1
sVczrrkkg
p84
I1
sVczm9ck2
p85
I1
sVd4popsi
p86
I1
sVd1l6z4s
p87
I1
sVdnr4q9a
p88
I1
sVddyr97y
p89
I1
sVdhrhjgv
p90
I1
sVcyz1g0c
p91
I1
sVde4a1fa
p92
I1
sVd0487hh
p93
I4
sVdpmcztm
p94
I1
sVdn8tow2
p95
I1
sVdb7120p
p96
I1
sVdgyryjb
p97
I1
sVd2r1t9r
p98
I1
sVczp09g8
p99
I1
sVdctepux
p100
I1
sVdj0sus0
p101
I2
sVd7qt3hy
p102
I1
sVcyvq8v1
p103
I1
sVd3g98pm
p104
I1
sVd53il0q
p105
I1
sVdhkw8uo
p106
I1
sVd2c69nc
p107
I1
sVd6b7oq3
p108
I1
sVcyp0x59
p109
I1
sVdsq37yp
p110
I1
sVd7rgm1p
p111
I1
sVdfxy0sb
p112
I1
sVd69e7em
p113
I1
sVd0oab6k
p114
I1
sVd5v7msk
p115
I1
sVdc22w6w
p116
I1
sVderifwk
p117
I1
sVd91f4s3
p118
I1
sVd4khxji
p119
I1
sVd95csle
p120
I1
sVdcg60oa
p121
I1
sVdhdfsi5
p122
I1
sVd36ydjh
p123
I2
sVda7sezs
p124
I1
sVcykuhwm
p125
I1
sVdaci6pi
p126
I1
sVdmudto0
p127
I2
sVd6zb7bj
p128
I1
sVcz6gblh
p129
I2
sVd0weq6p
p130
I1
sVczys2sh
p131
I1
sVddbxlcj
p132
I1
sVd8hgbco
p133
I1
sVd8wjiam
p134
I2
sVd9lpi4j
p135
I2
sVddjdbjr
p136
I1
sVd2g1qa1
p137
I1
sVdadnyjv
p138
I1
sVdire1yc
p139
I1
sVdcho0xm
p140
I1
sVd2twxzv
p141
I1
sVdbszhp3
p142
I1
sVd47zoif
p143
I1
sVdq9r0om
p144
I1
sVda5dfkj
p145
I1
sVdcth6wp
p146
I1
sVdje7lkf
p147
I1
sVd30zk4w
p148
I1
sVdci2nom
p149
I1
sVdbgzvp4
p150
I1
sVdr64967
p151
I1
sVd7arcv2
p152
I3
sVdrzunsq
p153
I1
sVd4bk73b
p154
I1
sVdpig05p
p155
I1
sVd0ealyh
p156
I1
sVd0ial8z
p157
I1
sVdpuhdz6
p158
I2
sVd38s4d6
p159
I2
sVcym7o4v
p160
I1
sVd6kngis
p161
I1
sVds2cykn
p162
I1
sVd7088wk
p163
I1
sVdd39386
p164
I1
sVdejnrqs
p165
I1
sVczoro16
p166
I1
sVdikcdcy
p167
I1
sVdbi9ql2
p168
I1
sVdmtdjr3
p169
I1
sVdsfzugt
p170
I1
sVd7j7w2s
p171
I2
sVdfsniqv
p172
I1
sVdjk6179
p173
I1
sVd5wmx4h
p174
I2
sVdjy64y2
p175
I1
sVdcui7bp
p176
I1
sVd3b2mtu
p177
I1
sVdggj2ei
p178
I2
sVd2dbn01
p179
I1
sVdpomhv2
p180
I1
sVd9u4iwe
p181
I1
sVddvc7zb
p182
I1
sVdhmc4og
p183
I1
sVd72skk7
p184
I1
sVd4dranq
p185
I1
sVd0ypa2q
p186
I1
sVczy6fmt
p187
I1
sVdd3zzm7
p188
I1
sVdbptc3u
p189
I1
sVd057sef
p190
I1
sVd0u6dji
p191
I1
sVdi2u92z
p192
I2
sVd4qwnof
p193
I1
sVd14szm0
p194
I1
sVd4ous6m
p195
I1
sVday73pj
p196
I1
sVdd233u6
p197
I3
sVdgh25rd
p198
I1
sVde0jgix
p199
I1
sVd07jlsb
p200
I1
sVdsnrvd1
p201
I1
sVdhnflrn
p202
I1
sVdosra0q
p203
I1
sVd0my9iw
p204
I1
sVdgck4lg
p205
I2
sVd30vx9n
p206
I1
sVdgwm2pm
p207
I1
sVd9z76ls
p208
I1
sVd7ka6wn
p209
I1
sVdg8efd9
p210
I1
sVdby6me7
p211
I1
sVdpp663w
p212
I1
sVdbe5jlt
p213
I1
sVdjk7xqh
p214
I1
sVd2qon6z
p215
I1
sVdb40ryj
p216
I1
sVd67v2wt
p217
I1
sVd1yagqr
p218
I1
sVdsqpti0
p219
I1
sVdoqmcse
p220
I1
sVdbhopt2
p221
I1
sVd5h4ceb
p222
I1
sVd9re53v
p223
I1
sVcz11lrq
p224
I1
sVdgueeho
p225
I1
sVddtx7j7
p226
I1
sVd01p76e
p227
I1
sVd5bt8b2
p228
I1
sVd2spohd
p229
I1
sVd5wxvok
p230
I2
sVd95tz8s
p231
I1
sVdax5owx
p232
I3
sVcymngzs
p233
I1
sVd8t1roh
p234
I1
sVd7h8dzx
p235
I1
sVd9ugdws
p236
I1
sVd8t1dar
p237
I4
sVdo61qph
p238
I3
sVd253hf3
p239
I5
sVde5vy48
p240
I1
sVd8vtm5k
p241
I1
sVdh58ftw
p242
I1
sVdfvccry
p243
I1
sVdh74gt0
p244
I1
sVd6sa4l9
p245
I1
sVd586o5k
p246
I1
sVdddzhok
p247
I1
sVdq40jl1
p248
I1
sVddqi371
p249
I1
sVd5op49m
p250
I2
sVd4ft43i
p251
I1
sVd39vylu
p252
I1
sVdbnlm1n
p253
I1
sVdr268wj
p254
I1
sVdfu7jte
p255
I1
sVcz5atgt
p256
I1
sVdet0wlq
p257
I1
sVd58slkc
p258
I1
sVdjdlveo
p259
I1
sVd2bka6g
p260
I2
sVd2kei08
p261
I2
sVd1bxzcc
p262
I1
sVd572bno
p263
I1
sVd0hfu0u
p264
I1
sVd7b5bhi
p265
I1
sVdmhxbpe
p266
I1
sVdrafcrb
p267
I1
sVd8k5nft
p268
I8
sVdgc34t0
p269
I1
sVdbwwcxd
p270
I1
sVd8bq3z2
p271
I1
sVdmjqv0l
p272
I1
sVdq21hfi
p273
I1
sVdg0vbp7
p274
I1
sVdcbl0fz
p275
I4
sVcz4zv6z
p276
I1
sVdk94ogj
p277
I1
sVd1ttu7p
p278
I1
sVdf958mm
p279
I1
sVd3lr6op
p280
I1
sVd73lbaq
p281
I1
sVdh8f4fp
p282
I1
sVd17hjvt
p283
I1
sVcys3j4q
p284
I1
sVdcigh19
p285
I1
sVd8hownm
p286
I2
sVd84nm0z
p287
I1
sVddmkg6b
p288
I1
sVd4e67pb
p289
I1
sVd7qo9tl
p290
I1
sVdhm0gus
p291
I1
sVcyo85a4
p292
I1
sVd6y5j7l
p293
I3
sVdhc7560
p294
I1
sVdc5k40q
p295
I1
sVdd8mpag
p296
I1
sVd21a34j
p297
I1
sVcz64wg0
p298
I1
sVdf9yo1c
p299
I1
sVd1r7dxe
p300
I1
sVd35f2ki
p301
I1
sVdf1usuw
p302
I1
sVcz0hb7v
p303
I1
sVd2l7mp1
p304
I2
sVdmwrmhu
p305
I1
sVdhpdcp1
p306
I3
sVd3xehum
p307
I1
sVdho53qz
p308
I1
sVdfkjfvb
p309
I1
sVdc63gmz
p310
I1
sVd4rnjr7
p311
I1
sVcyrf398
p312
I1
sVdsiaffo
p313
I1
sVd8ay70m
p314
I1
sVdpfzyep
p315
I2
sVdffl2op
p316
I1
sVdirhqac
p317
I1
sVcz7etnd
p318
I1
sVd01ze14
p319
I1
sVddwhu1l
p320
I1
sVddba1i5
p321
I1
sVdf8r2zs
p322
I2
sVdrzz3l4
p323
I1
sVd7mwhgh
p324
I1
sVd7eagl4
p325
I1
sVd29ll3c
p326
I1
sVdhj8isc
p327
I1
sVdjtibif
p328
I2
sVdcqdbbi
p329
I1
sVd3fbtmm
p330
I9
sVdf46a24
p331
I1
sVd2650ix
p332
I1
sVd4vp1kp
p333
I1
sVd9n2kkv
p334
I1
sVd11vx6i
p335
I1
sVdba1qa3
p336
I1
sVdcxl3vj
p337
I4
sVd1pt6do
p338
I1
sVdcrb58x
p339
I1
sVczhvitv
p340
I4
sVd84hd2e
p341
I2
sVd5vte3p
p342
I2
sVd1nb8wm
p343
I1
sVd84pvp8
p344
I1
sVdfhlthc
p345
I1
sVdrqal2p
p346
I1
sVcyv8bgh
p347
I2
sVd5mqkxj
p348
I1
sVdbmz69f
p349
I1
sVd92j8ar
p350
I1
sVda0c75k
p351
I1
sVdixj4p2
p352
I1
sVd6tdqtj
p353
I1
sVdas5u6t
p354
I1
sVd0u4dlb
p355
I1
sVdndekuu
p356
I1
sVdb3iuhx
p357
I1
sVczg9fy4
p358
I1
sVd2qzh55
p359
I1
sVd1a0ncd
p360
I2
sVdcu9nmj
p361
I1
sVd519yjx
p362
I2
sVday7x7h
p363
I1
sVcykab8f
p364
I1
sVdqhn0j9
p365
I1
sVdbkmd8c
p366
I1
sVdd5okql
p367
I1
sVd3hfimq
p368
I2
sVd5vnxw9
p369
I2
sVdc6by97
p370
I2
sVdjgdyza
p371
I2
sVdmj870k
p372
I1
sVd3ka8us
p373
I1
sVdbvp83b
p374
I2
sVd3h8b98
p375
I2
sVdjbco95
p376
I1
sVdnr6pi5
p377
I1
sVdc5iuog
p378
I1
sVdh4zfie
p379
I1
sVdbea0c5
p380
I1
sVddhrk10
p381
I1
sVdn0w7w3
p382
I2
sVd54qdo6
p383
I1
sVd6f27a4
p384
I1
sVczn7p77
p385
I1
sVdijznxf
p386
I1
sVddl7u8j
p387
I1
sVdech1m9
p388
I2
sVd0r1f0w
p389
I1
sVdpuffug
p390
I1
sVcyofem9
p391
I2
sVd1i6hi2
p392
I3
sVdjnuk5u
p393
I1
sVddwivwt
p394
I1
sVd72shbn
p395
I3
sVd5e7ncd
p396
I2
sVd703nyp
p397
I1
sVdh5xs5v
p398
I1
sVd0emqiy
p399
I1
sVd9z495k
p400
I1
sVd22rysy
p401
I1
sVdg1corz
p402
I1
sVdgsji3z
p403
I1
sVd3095gm
p404
I1
sVd6hunq1
p405
I2
sVdny54j6
p406
I1
sVczhe8ox
p407
I1
sVdpm15qx
p408
I1
sVdeuapre
p409
I1
sVdjrzy9e
p410
I1
sVda80s1a
p411
I2
sVdnbjm1i
p412
I1
sVd7zc4en
p413
I1
sVd6i2oax
p414
I1
sVdraazai
p415
I1
sVdbrmpth
p416
I1
sVd46qfvr
p417
I1
sVd43vllr
p418
I1
sVd5swgp3
p419
I1
sVdbroied
p420
I1
sVczls23c
p421
I2
sVd38nfw1
p422
I1
sVd75iubb
p423
I1
sVdi3o15p
p424
I1
sVd48uggs
p425
I1
sVd7ibn69
p426
I2
sVd5q3yj4
p427
I1
sVcys4nr8
p428
I1
sVdevu7vm
p429
I1
sVdbt035h
p430
I5
sVd757g1e
p431
I1
sVd9rg5yi
p432
I1
sVdfjjsbj
p433
I1
sVd3xc4il
p434
I1
sVdnwse62
p435
I1
sVdg1348l
p436
I1
sVd69kqcw
p437
I1
sVd053mgp
p438
I1
sVdmtrsfg
p439
I1
sVd2o0lc6
p440
I1
sVdkor5fz
p441
I2
sVdcy1w2r
p442
I1
sVdcj16c4
p443
I1
sVdprlmtj
p444
I1
sVd55hzwa
p445
I1
sVdhle5ba
p446
I1
sVdq1vyc8
p447
I1
sVde6ib6f
p448
I1
sVdk4drue
p449
I1
sVd6knlzr
p450
I1
sVdc2o1zd
p451
I1
sVdrx8bew
p452
I1
sVdcz26v7
p453
I1
sVd6b0li3
p454
I2
sVdhkrnl0
p455
I1
sVd99bzc2
p456
I1
sVdgvtbav
p457
I2
sVd0ohqtt
p458
I1
sVd8famgg
p459
I1
sVd9jmwf7
p460
I1
sVd5ycx3i
p461
I2
sVd01sspb
p462
I3
sVdezyi3j
p463
I1
sVdplvs27
p464
I1
sVdao9n68
p465
I1
sVcyi4bbt
p466
I1
sVd3fzb5p
p467
I1
sVdhizwb0
p468
I3
sVd0r4xx3
p469
I1
sVd5m64nr
p470
I1
sVd99fb2v
p471
I1
sVd5qgmfg
p472
I1
sVd92fb8x
p473
I2
sVd1rqbua
p474
I1
sVd7eh5lq
p475
I1
sVdeivpiz
p476
I1
sVde62zv5
p477
I1
sVd8ymi42
p478
I1
sVd9ane7l
p479
I1
sVdhtgzc5
p480
I2
sVd2cbjgq
p481
I1
sVd0st512
p482
I1
sVds1w63s
p483
I1
sVdfzsknl
p484
I1
sVdk47z8h
p485
I1
sVczi75oy
p486
I1
sVdcdlapg
p487
I4
sVdn5mms0
p488
I3
sVdd0skwc
p489
I1
sVd4faxm5
p490
I1
sVd17gfiv
p491
I3
sVdg23fif
p492
I1
sVdqem1qr
p493
I1
sVd2alm2z
p494
I1
sVdc9ftr9
p495
I4
sVd008b7g
p496
I1
sVd1owxn5
p497
I1
sVd4vsnts
p498
I7
sVd6kn8ce
p499
I1
sVdhh8s1l
p500
I1
sVcz3y45e
p501
I1
sVdbxchb3
p502
I1
sVd9d94ol
p503
I1
sVd12wge4
p504
I1
sVdbibdab
p505
I2
sVdj0wtic
p506
I1
sVdfi5jnu
p507
I3
sVddpyt5d
p508
I1
sVd6j0u3b
p509
I1
sVdh8ao8q
p510
I1
sVdbt13g6
p511
I1
sVdbrnzju
p512
I1
sVd5wu82h
p513
I1
sVdfykc7y
p514
I1
sVd7l6dr9
p515
I2
sVda089tq
p516
I2
sVd3issxp
p517
I1
sVdi1ea44
p518
I1
sVdoxr0x7
p519
I1
sVd1lc60a
p520
I1
sVde6kg31
p521
I1
sVd03ca0l
p522
I1
sVd3c5zyq
p523
I1
sVdeyq6p9
p524
I1
sVds0ziza
p525
I1
sVd2tms3l
p526
I1
sVdncr9ts
p527
I1
sVd1k7nvv
p528
I1
sVdjzo6ow
p529
I1
sVd68lneh
p530
I1
sVdbgacig
p531
I1
sVdizzvn5
p532
I2
sVczob3oc
p533
I1
sVdpnjzue
p534
I1
sVczayzab
p535
I1
sVdczasnp
p536
I1
sVddf75tq
p537
I1
sVczw6q2i
p538
I1
sVczk319t
p539
I1
sVddzlmw1
p540
I1
sVdc2xqtp
p541
I1
sVdosr2b7
p542
I1
sVd57ge0i
p543
I1
sVd47ihri
p544
I1
sVdj90pgh
p545
I1
sVd285etm
p546
I1
sVdhx2h20
p547
I1
sVdhgqxlt
p548
I1
sVdq37z8y
p549
I1
sVd6bfrwz
p550
I1
sVdkrew5y
p551
I1
sVdhqqbqa
p552
I1
sVd18own4
p553
I1
sVd0nd357
p554
I1
sVdcpuiu0
p555
I3
sVdd5bz88
p556
I1
sVczzk4sf
p557
I2
sVd4ed0eb
p558
I1
sVd43oome
p559
I1
sVdhccnjm
p560
I1
sVd7748el
p561
I1
sVddbjl68
p562
I1
sVd1isz05
p563
I1
sVcyt7iha
p564
I1
sVdgqplmv
p565
I1
sVdi03y4k
p566
I1
sVdnb36ir
p567
I1
sVdpihqe4
p568
I1
sVdavcyl6
p569
I1
sVcyolspy
p570
I1
sVd378813
p571
I1
sVdgqymww
p572
I1
sVdbs5wi3
p573
I1
sVde8ya5s
p574
I1
sVdphszpk
p575
I1
sVdgyt5pw
p576
I2
sVdkkexun
p577
I1
sVdcnlaox
p578
I1
sVdfabzp9
p579
I1
sVdf212kq
p580
I1
sVdhnuoo3
p581
I1
sVd7gyupl
p582
I1
sVdbsfie5
p583
I1
s.