(dp0
Vd2rdlfo
p1
I2
sVdbt8b6m
p2
I1
sVd4ciq2w
p3
I1
sVd559ysc
p4
I1
sVd71ohmq
p5
I1
sVd1vhzu9
p6
I1
sVd6evgf3
p7
I1
sVde39m4y
p8
I1
sVdfoat7m
p9
I2
sVdbgu9of
p10
I1
sVd9gcofc
p11
I1
sVd7rj7yo
p12
I1
sVd2ubgbq
p13
I1
sVdmw8moe
p14
I1
sVd19cob0
p15
I1
sVd1h810v
p16
I1
sVdfbbv0s
p17
I1
sVdgby4fk
p18
I1
sVd4u8doh
p19
I1
sVdbqraji
p20
I1
sVd7rcadw
p21
I1
sVdgplx5v
p22
I1
sVdirnwev
p23
I1
sVdb2q4wz
p24
I1
sVde0mipg
p25
I1
sVdmzglok
p26
I1
sVdf1uu6n
p27
I1
sVdb8qd7g
p28
I1
sVdste3vm
p29
I1
sVdbvmof4
p30
I1
sVd3jfxr5
p31
I1
sVcykj6nb
p32
I1
sVdb5erwy
p33
I1
sVd0ofor5
p34
I1
sVdj3w5mr
p35
I1
sVddih3q8
p36
I1
sVd1g720u
p37
I1
sVczbhro5
p38
I1
sVd0ncd5l
p39
I1
sVdel9wd0
p40
I1
sVditr2ww
p41
I1
sVdnjhse7
p42
I1
sVd1hy4t5
p43
I1
sVdi434zj
p44
I1
sVdeg7sja
p45
I1
sVdkc16d3
p46
I1
sVdig28zo
p47
I1
sVd18parf
p48
I1
sVdeskayl
p49
I1
sVcyqzgla
p50
I1
sVd1mgill
p51
I1
sVdmwmjen
p52
I1
sVde8syka
p53
I1
sVdho59m7
p54
I1
sVd9797wu
p55
I1
sVd8nhson
p56
I1
sVdecfnuz
p57
I1
sVd3r47us
p58
I1
sVdhb9u9i
p59
I1
sVcztkbvr
p60
I1
sVczmpni8
p61
I1
sVd0zmj9p
p62
I1
sVczbda4p
p63
I1
sVdcsccmx
p64
I1
sVd28xw75
p65
I1
sVd993drt
p66
I1
sVdjj50qm
p67
I1
sVdnzeggg
p68
I1
sVdjotsqw
p69
I1
sVdghkugo
p70
I1
sVdd7srzi
p71
I1
sVd1hxiep
p72
I1
sVdb5dq72
p73
I1
sVd3ptr2h
p74
I1
sVd63cthj
p75
I1
sVdkyu3p7
p76
I1
sVd4l191w
p77
I1
sVczck0a0
p78
I1
sVd1eo4tx
p79
I1
sVd4g9n3n
p80
I1
sVdnijai0
p81
I1
sVdfn26m2
p82
I1
sVdqp3ykx
p83
I1
sVdifnieb
p84
I1
sVdf1wfxv
p85
I1
sVd7atz5p
p86
I1
sVd0665he
p87
I1
sVcyxz3lb
p88
I1
sVd8s6m5c
p89
I1
sVdel7v5t
p90
I1
sVdkvzsae
p91
I1
sVdivdbhg
p92
I1
sVczsi0be
p93
I2
sVdqmkefx
p94
I2
sVd6a7au6
p95
I1
sVd5w5i4d
p96
I1
sVd3i3tsp
p97
I1
sVd5ze8vo
p98
I1
sVcz0awhj
p99
I1
sVdiia376
p100
I1
sVd2qclhi
p101
I1
sVdkgy9ko
p102
I1
sVdek9pjh
p103
I1
sVdnkubfp
p104
I1
sVd6qjelp
p105
I1
sVd4rxm59
p106
I1
sVdepnmm7
p107
I3
sVdhk3d2m
p108
I1
sVd42cbeg
p109
I1
sVd1x3mgd
p110
I1
sVdmi94tz
p111
I1
sVdjn3dfs
p112
I1
sVdbmw373
p113
I1
sVddtg858
p114
I1
sVddik5ct
p115
I1
sVcyvxse1
p116
I1
sVdmxn9wd
p117
I1
sVd400jqq
p118
I1
sVdhpiuad
p119
I1
sVdrchnca
p120
I1
sVd3wvycx
p121
I1
sVcza1ae7
p122
I1
sVd6aj1ud
p123
I1
sVd5bly82
p124
I1
sVdb5kend
p125
I1
sVda8digr
p126
I1
sVdgfv3k0
p127
I1
sVdhdu1sq
p128
I1
sVcyhy2e4
p129
I1
sVdoavlf9
p130
I1
sVdj9waz4
p131
I1
sVd8elzne
p132
I1
sVdce7km7
p133
I1
sVcze18v0
p134
I1
sVd8kqpva
p135
I1
sVdgt8hji
p136
I1
sVdhwm9lz
p137
I1
sVd87x2q7
p138
I1
sVdiaqr3l
p139
I1
sVd1mwa5a
p140
I1
sVdb8oj28
p141
I1
sVdmfwfl8
p142
I1
sVdhbhk4o
p143
I1
sVdmobyqu
p144
I1
sVdenu37n
p145
I1
sVd1twjnd
p146
I1
sVd2k5th3
p147
I1
sVd6tl0l2
p148
I1
sVdorw7zc
p149
I1
sVdmhpla7
p150
I1
sVd0v7px3
p151
I1
sVd738yhn
p152
I2
sVd05pjon
p153
I1
sVdc1d3ik
p154
I1
sVdgvrju1
p155
I1
sVddfya5b
p156
I2
sVdghqj53
p157
I1
sVdn1rbxf
p158
I2
sVd086lsb
p159
I1
sVdn5psxx
p160
I1
sVd7b4i9g
p161
I1
sVdipskrn
p162
I1
sVddtjk0a
p163
I1
sVdbrr8l0
p164
I1
sVdk96bhn
p165
I1
sVczrmb8y
p166
I1
sVd7t8z0d
p167
I1
sVde4s6wx
p168
I1
sVcyum0h1
p169
I1
sVdggu6jb
p170
I1
sVd8vb37k
p171
I1
sVdn44ciy
p172
I1
sVdogh1lq
p173
I1
sVd88xzfj
p174
I1
sVde3kg0k
p175
I1
sVdbt8a2f
p176
I1
sVd3j1yel
p177
I1
sVdb5i1p5
p178
I1
sVd9hhzxs
p179
I1
sVdklg0nm
p180
I1
sVd423emh
p181
I1
sVddoh50p
p182
I1
sVdisn55p
p183
I1
sVdp1692f
p184
I1
sVd04stz5
p185
I1
sVdbammhx
p186
I1
sVdt0izhb
p187
I1
sVd2jpnt0
p188
I1
sVd6g6ppw
p189
I1
sVd5zowpz
p190
I1
sVd3gczfa
p191
I1
sVdoc6xw8
p192
I1
sVdcdwlga
p193
I1
sVdfgcp8y
p194
I1
sVdbia6xd
p195
I1
s.