(dp0
Vcz8dich
p1
I1
sVd4or4v6
p2
I2
sVdjvfrnh
p3
I2
sVdiil82x
p4
I1
sVdcm5gcr
p5
I1
sVdbc0k01
p6
I1
sVdf303gw
p7
I1
sVdjhbrp2
p8
I1
sVd7j5n8v
p9
I1
sVd2a5opb
p10
I1
sVdqauqtb
p11
I1
sVdifecjv
p12
I1
sVd0u7qq6
p13
I1
sVdjuwgxi
p14
I1
sVd0yf2b2
p15
I1
sVdkmo93k
p16
I1
sVded9278
p17
I1
sVdifw6yv
p18
I2
sVd61avbq
p19
I1
sVdengir2
p20
I2
sVdfj3dcy
p21
I1
sVd7e5d3p
p22
I2
sVd6ffh0u
p23
I1
sVdn5ipsz
p24
I1
sVdfj3j8q
p25
I1
sVdigdncw
p26
I1
sVd6d8f6c
p27
I1
sVdsnw3lr
p28
I1
sVdk0ygt1
p29
I1
sVdjuwr7o
p30
I1
sVddbxav0
p31
I1
sVdcghou3
p32
I1
sVd8jha47
p33
I1
sVdb0fx9k
p34
I1
sVd8k4ahw
p35
I2
sVdhlzras
p36
I1
sVd3ha04i
p37
I1
sVdj8k1yg
p38
I1
sVdoskoo0
p39
I2
sVd922kwz
p40
I1
sVdbhx8cu
p41
I1
sVdf2wpru
p42
I3
sVdq4xnfz
p43
I1
sVd0qfqdx
p44
I2
sVdq21rqn
p45
I2
sVdhe4okt
p46
I1
sVdmh1j98
p47
I3
sVdf30465
p48
I1
sVdclzfim
p49
I1
sVdmh1zo5
p50
I1
sVddpfvrf
p51
I1
sVdegsobf
p52
I1
sVd35goob
p53
I1
sVdcydxnr
p54
I3
sVd2ed9ji
p55
I1
sVdnvwzc2
p56
I1
sVdaho40n
p57
I1
sVd7j9xi8
p58
I1
sVd4qay1b
p59
I1
sVd4ob86v
p60
I1
sVdrrfr1a
p61
I1
sVda3ko3f
p62
I1
sVdjuxcep
p63
I1
sVdnw04tc
p64
I1
sVdq5ro56
p65
I2
sVddwi7rs
p66
I1
sVdjl4u9t
p67
I1
sVdf2wsxs
p68
I3
sVdj2g1uf
p69
I1
sVd1wesw3
p70
I1
sVd4265xn
p71
I1
sVd3mtjz6
p72
I1
sVdet2kjh
p73
I1
sVdteanbv
p74
I1
sVdte5c5l
p75
I1
sVd8w1wka
p76
I1
sVdp2txgn
p77
I1
sVdi4rwgt
p78
I1
sVcyk8er9
p79
I2
sVdp33xd3
p80
I1
sVdoir06j
p81
I1
sVdfjg5le
p82
I1
sVdasfag4
p83
I1
sVdacfesq
p84
I1
sVd70jwrr
p85
I3
sVdmhpla7
p86
I1
sVddwrbe4
p87
I1
sVdjvphli
p88
I1
sVdnhizg7
p89
I1
sVcyplzms
p90
I2
sVd4hljfe
p91
I1
s.