(dp0
Vdeldmye
p1
I1
sVdbn8h8m
p2
I1
sVdau2ko5
p3
I1
sVdflzrq4
p4
I1
sVd3zmq46
p5
I1
sVcyswbs8
p6
I1
sVdaa1vpo
p7
I1
sVddbh6ja
p8
I1
sVdfw33y6
p9
I1
sVd4zv67a
p10
I1
sVdchnmi5
p11
I1
sVd3zt1s4
p12
I1
sVd8g1e7r
p13
I1
s.