(dp0
Vd124oqf
p1
I1
sVd1gj7yq
p2
I1
sVd1tmf8w
p3
I1
sVd4l4jzp
p4
I1
sVdexj06u
p5
I1
sVd3qcz8y
p6
I1
sVd6niztk
p7
I1
sVcz28zt8
p8
I1
sVd2voky9
p9
I1
sVdi6lyi2
p10
I1
sVd19fadl
p11
I1
sVd2v7nrs
p12
I1
sVd5c97hi
p13
I1
sVddqp370
p14
I1
sVdf4o4wx
p15
I1
sVdauc2x0
p16
I1
sVdk66sd7
p17
I1
sVd0evncz
p18
I1
sVdmyyzyt
p19
I1
s.