(dp0
Vdol2gwr
p1
I1
sVdibgjy0
p2
I1
sVdf04e5z
p3
I2
sVd2yig8j
p4
I1
sVd0g4d89
p5
I1
sVde3sz3o
p6
I1
sVdgs39q1
p7
I1
sVcyvdw31
p8
I1
sVd6yub8y
p9
I1
sVdewxw6l
p10
I3
sVdcw75dj
p11
I1
sVdh0sqya
p12
I1
sVd2cdz8m
p13
I1
sVd8q1csi
p14
I1
sVd6gu2v8
p15
I1
sVdc58im5
p16
I1
sVdcdqbe0
p17
I1
sVdrvcd50
p18
I7
sVdhewhq5
p19
I1
sVdjra5ht
p20
I3
sVd0ar1ga
p21
I1
sVd0wnvv6
p22
I1
sVdjo0nnh
p23
I1
sVdpxp09r
p24
I1
sVdckrhhe
p25
I1
sVdcs3r70
p26
I1
sVd7gnvje
p27
I2
sVdbbrhe0
p28
I1
sVd4vbntc
p29
I1
sVdbn1gcx
p30
I1
sVd3ohu80
p31
I1
sVd8mfrw8
p32
I1
sVcz7z8gk
p33
I1
sVdr0ic6f
p34
I2
sVdawhy9d
p35
I1
sVczh5y12
p36
I1
sVdir75qe
p37
I1
sVd5m9ego
p38
I1
sVdgdqcjv
p39
I1
sVd015534
p40
I1
sVdq5qddd
p41
I1
sVd6c4859
p42
I1
sVczx5qz0
p43
I1
sVdaq13g3
p44
I1
s.