(dp0
Vczhdw5t
p1
I1
s.(dp0
Vczhdw5t
p1
I1
sVd0yws7a
p2
I1
s.(dp0
Vczhdw5t
p1
I1
sVd2cnrty
p2
I1
s.(dp0
Vd46wr02
p1
I1
sVczhdw5t
p2
I1
s.(dp0
Vd4tgift
p1
I1
sVczhdw5t
p2
I1
s.(dp0
Vdat0bv1
p1
I1
sVczhdw5t
p2
I1
s.(dp0
Vdat0bv1
p1
I1
sVczhdw5t
p2
I1
s.