(dp0
Vcyhzuz7
p1
I1
s.(dp0
Vcyhzuz7
p1
I1
sVcz5nuvu
p2
I1
s.(dp0
Vcyhzuz7
p1
I1
sVczh9gpb
p2
I1
s.(dp0
Vcyhzuz7
p1
I1
sVczt92vn
p2
I1
s.(dp0
Vcyhzuz7
p1
I1
sVczyy1ei
p2
I1
s.(dp0
Vcyhzuz7
p1
I1
sVd02s0zt
p2
I1
s.(dp0
Vcyhzuz7
p1
I1
sVd0ashy7
p2
I1
s.(dp0
Vcyhzuz7
p1
I1
sVd0ne8rb
p2
I1
s.(dp0
Vcyhzuz7
p1
I1
sVd0r4aba
p2
I1
s.(dp0
Vcyhzuz7
p1
I1
sVd0r4aba
p2
I1
s.(dp0
Vcyhzuz7
p1
I1
sVd0snk9f
p2
I1
s.(dp0
Vcyhzuz7
p1
I1
sVd0snkn4
p2
I1
s.(dp0
Vcyhzuz7
p1
I1
sVd0snkn4
p2
I1
s.(dp0
Vcyhzuz7
p1
I1
sVd135yrm
p2
I1
s.(dp0
Vd136dhu
p1
I1
sVcyhzuz7
p2
I1
s.(dp0
Vcyhzuz7
p1
I1
sVd13oxyn
p2
I1
s.(dp0
Vcyhzuz7
p1
I1
sVd1d5y48
p2
I1
s.(dp0
Vcyhzuz7
p1
I1
sVd1e2oab
p2
I1
s.(dp0
Vcyhzuz7
p1
I1
sVd1nhc7b
p2
I1
s.(dp0
Vcyhzuz7
p1
I1
sVd3yqbqj
p2
I1
s.(dp0
Vcyhzuz7
p1
I1
sVd4e2hz3
p2
I1
s.(dp0
Vcyhzuz7
p1
I1
sVd4jomcf
p2
I1
s.(dp0
Vcyhzuz7
p1
I1
sVd57rjpf
p2
I1
s.(dp0
Vcyhzuz7
p1
I1
sVd5ehyiq
p2
I1
s.(dp0
Vcyhzuz7
p1
I1
sVd5r4aea
p2
I1
s.(dp0
Vcyhzuz7
p1
I1
sVd687oqm
p2
I1
s.(dp0
Vcyhzuz7
p1
I1
sVd6a1hen
p2
I1
s.(dp0
Vcyhzuz7
p1
I1
sVd88vdlm
p2
I1
s.(dp0
Vcyhzuz7
p1
I1
sVd88vdlm
p2
I1
s.(dp0
Vcyhzuz7
p1
I1
sVd88vdlm
p2
I1
s.(dp0
Vcyhzuz7
p1
I1
sVd88vdlm
p2
I1
s.(dp0
Vcyhzuz7
p1
I1
sVd88vdlm
p2
I1
s.(dp0
Vcyhzuz7
p1
I1
sVd8giubt
p2
I1
s.(dp0
Vcyhzuz7
p1
I1
sVd90v8oo
p2
I1
s.(dp0
Vcyhzuz7
p1
I1
sVd9z41g6
p2
I1
s.(dp0
Vcyhzuz7
p1
I1
sVdabujxe
p2
I1
s.(dp0
Vcyhzuz7
p1
I1
sVdbn5ljl
p2
I1
s.(dp0
Vdbnepjn
p1
I1
sVcyhzuz7
p2
I1
s.(dp0
Vcyhzuz7
p1
I1
sVdc9sj0f
p2
I1
s.(dp0
Vcyhzuz7
p1
I1
sVdcaf3k1
p2
I1
s.(dp0
Vcyhzuz7
p1
I1
sVdctzhdt
p2
I1
s.(dp0
Vcyhzuz7
p1
I1
sVdcuhllu
p2
I1
s.(dp0
Vcyhzuz7
p1
I1
sVdd4rdio
p2
I1
s.(dp0
Vcyhzuz7
p1
I1
sVddfl23a
p2
I1
s.(dp0
Vcyhzuz7
p1
I1
sVde1whwz
p2
I1
s.(dp0
Vde3srx4
p1
I1
sVcyhzuz7
p2
I1
s.(dp0
Vcyhzuz7
p1
I1
sVdefi6hb
p2
I1
s.(dp0
Vcyhzuz7
p1
I1
sVdekiq5x
p2
I1
s.(dp0
Vcyhzuz7
p1
I1
sVdel1ld8
p2
I1
s.(dp0
Vcyhzuz7
p1
I1
sVderly92
p2
I1
s.(dp0
Vcyhzuz7
p1
I1
sVdfa0ygr
p2
I1
s.(dp0
Vcyhzuz7
p1
I1
sVdgarfeb
p2
I1
s.(dp0
Vcyhzuz7
p1
I1
sVdgc2xia
p2
I1
s.(dp0
Vcyhzuz7
p1
I1
sVdgc2xia
p2
I1
s.(dp0
Vcyhzuz7
p1
I1
sVdgkceit
p2
I1
s.(dp0
Vcyhzuz7
p1
I1
sVdgkceit
p2
I1
s.(dp0
Vcyhzuz7
p1
I1
sVdgrrgt0
p2
I1
s.(dp0
Vcyhzuz7
p1
I1
sVdh9zif4
p2
I1
s.(dp0
Vcyhzuz7
p1
I1
sVdhiw0n6
p2
I1
s.(dp0
Vcyhzuz7
p1
I1
sVdhupfrd
p2
I1
s.(dp0
Vcyhzuz7
p1
I1
sVdivpbzr
p2
I1
s.(dp0
Vcyhzuz7
p1
I1
sVdj3wy2y
p2
I1
s.(dp0
Vcyhzuz7
p1
I1
sVdju56dx
p2
I1
s.(dp0
Vcyhzuz7
p1
I1
sVdju56dx
p2
I1
s.(dp0
Vcyhzuz7
p1
I1
sVdju56dx
p2
I1
s.(dp0
Vcyhzuz7
p1
I1
sVdpg3ckw
p2
I1
s.(dp0
Vcyhzuz7
p1
I1
sVdq45x2z
p2
I1
s.