(dp0
Vdr0sclw
p1
I1
sVdk9ekd1
p2
I1
sVdmuy05f
p3
I1
sVd9z41g6
p4
I1
sVdosj3j3
p5
I1
sVdaf64t0
p6
I1
sVdbqczm7
p7
I1
sVd2fwp81
p8
I1
sVd46vago
p9
I1
sVdcxt5dg
p10
I1
sVdr3jrlt
p11
I1
sVd4gozja
p12
I1
sVd60pfcx
p13
I1
s.