(dp0
Vddwd85q
p1
I1
sVdf9kcdn
p2
I3
sVdfow0b3
p3
I1
sVda45zxf
p4
I2
sVdabvr1a
p5
I3
sVdoboluq
p6
I1
sVd0ubhye
p7
I1
sVdhownen
p8
I2
sVd59ip6z
p9
I1
sVdhrklwv
p10
I1
sVdgcqeim
p11
I1
sVdhrfyq4
p12
I1
sVda5z327
p13
I2
sVdt11q5k
p14
I1
sVdofnmv0
p15
I3
sVdemw95j
p16
I1
sVdipzigg
p17
I2
sVdigcns6
p18
I1
sVd96asoq
p19
I1
sVdo9rsnl
p20
I1
sVd1oa1ic
p21
I2
sVd2b1g0y
p22
I3
sVczovyp9
p23
I1
sVdhctlfz
p24
I1
sVdeajzne
p25
I1
sVdklsyr8
p26
I1
sVdd1sfbd
p27
I1
sVdpywwwm
p28
I1
sVczl9sch
p29
I1
sVd3wawhu
p30
I2
sVds1e2et
p31
I1
sVde9250u
p32
I1
sVdnqtwrc
p33
I2
sVd4h6umf
p34
I1
sVdjqlwpu
p35
I1
sVdkkka1n
p36
I1
sVda69xat
p37
I1
sVdkbrj9e
p38
I2
sVdnukilt
p39
I3
sVczoy2kb
p40
I1
sVczm0rbc
p41
I1
sVda3sikw
p42
I1
sVdazv6n2
p43
I1
sVdfohy5a
p44
I2
sVdd1u6ul
p45
I1
sVdp8l5g7
p46
I1
sVcz8abs7
p47
I1
sVdd73y67
p48
I2
sVd4daugm
p49
I1
sVdijxdwi
p50
I1
sVd95qx9f
p51
I1
sVdov8cj9
p52
I1
sVd1ybb83
p53
I1
sVdhrehnm
p54
I1
sVdgcxc6h
p55
I1
sVd8n8r3o
p56
I1
sVdmv3cs7
p57
I2
sVdfxnm8b
p58
I1
sVdclze5x
p59
I1
sVd290sb9
p60
I1
sVczwexb4
p61
I2
sVdejfkm2
p62
I1
sVdfh1enx
p63
I1
sVdkvmlyc
p64
I1
sVczz955e
p65
I1
sVdoqbcah
p66
I1
sVdk0akri
p67
I1
sVdbcxvik
p68
I1
sVdhks8dx
p69
I1
sVdadiapl
p70
I1
sVdipy691
p71
I1
sVdim3op3
p72
I1
sVdgcztlu
p73
I3
sVdk0l0lv
p74
I1
sVd92jili
p75
I1
sVdb4y6if
p76
I1
sVdb7e029
p77
I1
s.