(dp0
Vcyl152v
p1
I1
s.(dp0
Vcyl152v
p1
I1
sVcyr32qx
p2
I1
s.(dp0
Vcyl152v
p1
I1
sVcytasj2
p2
I1
s.(dp0
Vcyu0c9o
p1
I1
sVcyl152v
p2
I1
s.(dp0
Vcyxwqpx
p1
I1
sVcyl152v
p2
I1
s.(dp0
Vcz2u4m2
p1
I1
sVcyl152v
p2
I1
s.(dp0
Vcz3ehoj
p1
I1
sVcyl152v
p2
I1
s.(dp0
Vcyl152v
p1
I1
sVcz3pe25
p2
I1
s.(dp0
Vcz6014t
p1
I1
sVcyl152v
p2
I1
s.(dp0
Vcyl152v
p1
I1
sVcz7jtwq
p2
I1
s.(dp0
Vcz9kxhg
p1
I1
sVcyl152v
p2
I1
s.(dp0
Vcz9m147
p1
I1
sVcyl152v
p2
I1
s.(dp0
Vczbo1oa
p1
I1
sVcyl152v
p2
I1
s.(dp0
Vcyl152v
p1
I1
sVczc8exu
p2
I1
s.(dp0
Vczd0m4c
p1
I1
sVcyl152v
p2
I1
s.(dp0
Vcyl152v
p1
I1
sVczfuszs
p2
I1
s.(dp0
Vcyl152v
p1
I1
sVczoeezl
p2
I1
s.(dp0
Vczrlkka
p1
I1
sVcyl152v
p2
I1
s.(dp0
Vczuwaoc
p1
I1
sVcyl152v
p2
I1
s.(dp0
Vczxcmgg
p1
I1
sVcyl152v
p2
I1
s.(dp0
Vcyl152v
p1
I1
sVd008ft6
p2
I1
s.(dp0
Vd00qu9q
p1
I1
sVcyl152v
p2
I1
s.(dp0
Vd01uk4g
p1
I1
sVcyl152v
p2
I1
s.(dp0
Vd03zgpf
p1
I1
sVcyl152v
p2
I1
s.(dp0
Vcyl152v
p1
I1
sVd05njuv
p2
I1
s.(dp0
Vcyl152v
p1
I1
sVd072l2w
p2
I1
s.(dp0
Vd07z3b2
p1
I1
sVcyl152v
p2
I1
s.(dp0
Vd0b81et
p1
I1
sVcyl152v
p2
I1
s.(dp0
Vd0d7uz1
p1
I1
sVcyl152v
p2
I1
s.(dp0
Vd0fn12f
p1
I1
sVcyl152v
p2
I1
s.(dp0
Vd0j2oj0
p1
I1
sVcyl152v
p2
I1
s.(dp0
Vcyl152v
p1
I1
sVd0lsijo
p2
I1
s.(dp0
Vd0oo6fx
p1
I1
sVcyl152v
p2
I1
s.(dp0
Vd0r8lnt
p1
I1
sVcyl152v
p2
I1
s.(dp0
Vd17dq1i
p1
I1
sVcyl152v
p2
I1
s.(dp0
Vd1jxyx9
p1
I1
sVcyl152v
p2
I1
s.(dp0
Vd1l9x2x
p1
I1
sVcyl152v
p2
I1
s.(dp0
Vd1n56ca
p1
I1
sVcyl152v
p2
I1
s.(dp0
Vd1rhsgt
p1
I1
sVcyl152v
p2
I1
s.(dp0
Vcyl152v
p1
I1
sVd1wxmla
p2
I1
s.(dp0
Vd1wxnc5
p1
I1
sVcyl152v
p2
I1
s.(dp0
Vd1wxnc5
p1
I1
sVcyl152v
p2
I1
s.(dp0
Vcyl152v
p1
I1
sVd20fmy2
p2
I1
s.(dp0
Vd20fv0k
p1
I1
sVcyl152v
p2
I1
s.(dp0
Vd20fv0k
p1
I1
sVcyl152v
p2
I1
s.(dp0
Vd20fv0k
p1
I1
sVcyl152v
p2
I1
s.(dp0
Vd233keh
p1
I1
sVcyl152v
p2
I1
s.(dp0
Vd2451fq
p1
I1
sVcyl152v
p2
I1
s.(dp0
Vd26328p
p1
I1
sVcyl152v
p2
I1
s.(dp0
Vd2966p5
p1
I1
sVcyl152v
p2
I1
s.(dp0
Vd2aaidb
p1
I1
sVcyl152v
p2
I1
s.(dp0
Vcyl152v
p1
I1
sVd2gv946
p2
I1
s.(dp0
Vcyl152v
p1
I1
sVd2gv946
p2
I1
s.(dp0
Vd2ko28b
p1
I1
sVcyl152v
p2
I1
s.(dp0
Vd2lld2l
p1
I1
sVcyl152v
p2
I1
s.(dp0
Vcyl152v
p1
I1
sVd2qg3do
p2
I1
s.(dp0
Vd37huzy
p1
I1
sVcyl152v
p2
I1
s.(dp0
Vcyl152v
p1
I1
sVd3fjijo
p2
I1
s.(dp0
Vcyl152v
p1
I1
sVd3unfrj
p2
I1
s.(dp0
Vcyl152v
p1
I1
sVd3v4djk
p2
I1
s.(dp0
Vd43h4oq
p1
I1
sVcyl152v
p2
I1
s.(dp0
Vcyl152v
p1
I1
sVd4iy1dy
p2
I1
s.(dp0
Vd4o034u
p1
I1
sVcyl152v
p2
I1
s.(dp0
Vcyl152v
p1
I1
sVd4snbzu
p2
I1
s.(dp0
Vd4wiwvb
p1
I1
sVcyl152v
p2
I1
s.(dp0
Vd4wiwvb
p1
I1
sVcyl152v
p2
I1
s.(dp0
Vd4xpw4l
p1
I1
sVcyl152v
p2
I1
s.(dp0
Vcyl152v
p1
I1
sVd4xq4x5
p2
I1
s.(dp0
Vcyl152v
p1
I1
sVd4xq4x5
p2
I1
s.(dp0
Vd58frdg
p1
I1
sVcyl152v
p2
I1
s.(dp0
Vd58frdg
p1
I1
sVcyl152v
p2
I1
s.(dp0
Vd5ar8zg
p1
I1
sVcyl152v
p2
I1
s.(dp0
Vd5hpw2t
p1
I1
sVcyl152v
p2
I1
s.(dp0
Vcyl152v
p1
I1
sVd5mgruv
p2
I1
s.(dp0
Vd5mjraq
p1
I1
sVcyl152v
p2
I1
s.(dp0
Vd5qp6sa
p1
I1
sVcyl152v
p2
I1
s.(dp0
Vcyl152v
p1
I1
sVd5ybft6
p2
I1
s.(dp0
Vd5ze8vo
p1
I1
sVcyl152v
p2
I1
s.(dp0
Vd6dpuz3
p1
I1
sVcyl152v
p2
I1
s.(dp0
Vd6m2w4n
p1
I1
sVcyl152v
p2
I1
s.(dp0
Vcyl152v
p1
I1
sVd6m5opa
p2
I1
s.(dp0
Vcyl152v
p1
I1
sVd6m5opa
p2
I1
s.(dp0
Vcyl152v
p1
I1
sVd6m5opa
p2
I1
s.(dp0
Vcyl152v
p1
I1
sVd6m7pdn
p2
I1
s.(dp0
Vd6mdhf7
p1
I1
sVcyl152v
p2
I1
s.(dp0
Vd6mk96m
p1
I1
sVcyl152v
p2
I1
s.(dp0
Vd6mk96m
p1
I1
sVcyl152v
p2
I1
s.(dp0
Vd6mk96m
p1
I1
sVcyl152v
p2
I1
s.(dp0
Vcyl152v
p1
I1
sVd6nkntk
p2
I1
s.(dp0
Vd6v612w
p1
I1
sVcyl152v
p2
I1
s.(dp0
Vcyl152v
p1
I1
sVd77fo7k
p2
I1
s.(dp0
Vcyl152v
p1
I1
sVd78zznm
p2
I1
s.(dp0
Vd7d5nez
p1
I1
sVcyl152v
p2
I1
s.(dp0
Vd7qj56r
p1
I1
sVcyl152v
p2
I1
s.(dp0
Vcyl152v
p1
I1
sVd7rcqgl
p2
I1
s.(dp0
Vd7svktk
p1
I1
sVcyl152v
p2
I1
s.(dp0
Vd7svktk
p1
I1
sVcyl152v
p2
I1
s.(dp0
Vd7t327l
p1
I1
sVcyl152v
p2
I1
s.(dp0
Vd7t327l
p1
I1
sVcyl152v
p2
I1
s.(dp0
Vd7t327l
p1
I1
sVcyl152v
p2
I1
s.(dp0
Vcyl152v
p1
I1
sVd7ukv1a
p2
I1
s.(dp0
Vcyl152v
p1
I1
sVd7ukv1a
p2
I1
s.(dp0
Vd7ul4nh
p1
I1
sVcyl152v
p2
I1
s.(dp0
Vd7ul4nh
p1
I1
sVcyl152v
p2
I1
s.(dp0
Vd7ul4nh
p1
I1
sVcyl152v
p2
I1
s.(dp0
Vd7ul4nh
p1
I1
sVcyl152v
p2
I1
s.(dp0
Vd7ul4nh
p1
I1
sVcyl152v
p2
I1
s.(dp0
Vcyl152v
p1
I1
sVd84a19w
p2
I1
s.(dp0
Vd8(dp0
Vdsvww7v
p1
I1
sVcyl152v
p2
I1
s.