(dp0
Vdti42cw
p1
I1
sVdffqxhq
p2
I1
sVd2o7fbg
p3
I1
sVdbw6836
p4
I1
sVdipkdc9
p5
I1
sVcyhx7k2
p6
I1
sVd3ax86y
p7
I1
sVdsioac4
p8
I1
sVcypln20
p9
I1
sVdqkcfyb
p10
I1
sVd1bzrdi
p11
I1
sVdb0kwq4
p12
I1
sVdd3txb8
p13
I1
s.