(dp0
Vcykx159
p1
I1
s.(dp0
Vcymfkb7
p1
I1
sVcykx159
p2
I1
s.(dp0
Vcymuae3
p1
I1
sVcykx159
p2
I1
s.(dp0
Vcyofkf7
p1
I1
sVcykx159
p2
I1
s.(dp0
Vcytgpg0
p1
I1
sVcykx159
p2
I1
s.(dp0
Vcz1g53n
p1
I1
sVcykx159
p2
I1
s.(dp0
Vcz1xyxt
p1
I1
sVcykx159
p2
I1
s.(dp0
Vczd0dlz
p1
I1
sVcykx159
p2
I1
s.(dp0
Vczd1i52
p1
I1
sVcykx159
p2
I1
s.(dp0
Vczd2okg
p1
I1
sVcykx159
p2
I1
s.(dp0
Vczf81g7
p1
I1
sVcykx159
p2
I1
s.(dp0
Vczf81g7
p1
I1
sVcykx159
p2
I1
s.(dp0
Vczf81g7
p1
I1
sVcykx159
p2
I1
s.(dp0
Vczf81g7
p1
I1
sVcykx159
p2
I1
s.(dp0
Vczf81g7
p1
I1
sVcykx159
p2
I1
s.(dp0
Vczf81g7
p1
I1
sVcykx159
p2
I1
s.(dp0
Vczsfq0s
p1
I1
sVcykx159
p2
I1
s.(dp0
Vczzbig7
p1
I1
sVcykx159
p2
I1
s.(dp0
Vd059w81
p1
I1
sVcykx159
p2
I1
s.(dp0
Vd1gxqu9
p1
I1
sVcykx159
p2
I1
s.(dp0
Vd1lzxxx
p1
I1
sVcykx159
p2
I1
s.(dp0
Vd1n4khj
p1
I1
sVcykx159
p2
I1
s.(dp0
Vd1pj7o1
p1
I1
sVcykx159
p2
I1
s.(dp0
Vd1pj7o1
p1
I1
sVcykx159
p2
I1
s.(dp0
Vd1pj7o1
p1
I1
sVcykx159
p2
I1
s.(dp0
Vd1qv4vt
p1
I1
sVcykx159
p2
I1
s.(dp0
Vd1utf6h
p1
I1
sVcykx159
p2
I1
s.(dp0
Vd1utf6h
p1
I1
sVcykx159
p2
I1
s.(dp0
Vd1zfjdw
p1
I1
sVcykx159
p2
I1
s.(dp0
Vd1zlm7s
p1
I1
sVcykx159
p2
I1
s.(dp0
Vd25pw84
p1
I1
sVcykx159
p2
I1
s.(dp0
Vd25wxif
p1
I1
sVcykx159
p2
I1
s.(dp0
Vd26ajcf
p1
I1
sVcykx159
p2
I1
s.(dp0
Vd2705by
p1
I1
sVcykx159
p2
I1
s.(dp0
Vd2apq6i
p1
I1
sVcykx159
p2
I1
s.(dp0
Vd2db37n
p1
I1
sVcykx159
p2
I1
s.(dp0
Vd2grtn1
p1
I1
sVcykx159
p2
I1
s.(dp0
Vd2ktyf1
p1
I1
sVcykx159
p2
I1
s.(dp0
Vd2ktyf1
p1
I1
sVcykx159
p2
I1
s.(dp0
Vd2mf2xb
p1
I1
sVcykx159
p2
I1
s.(dp0
Vd2oy5k8
p1
I1
sVcykx159
p2
I1
s.(dp0
Vd2yrllo
p1
I1
sVcykx159
p2
I1
s.(dp0
Vd364gri
p1
I1
sVcykx159
p2
I1
s.(dp0
Vd366pp9
p1
I1
sVcykx159
p2
I1
s.(dp0
Vd366pp9
p1
I1
sVcykx159
p2
I1
s.(dp0
Vd36a61r
p1
I1
sVcykx159
p2
I1
s.(dp0
Vd38onii
p1
I1
sVcykx159
p2
I1
s.(dp0
Vd3gzxo6
p1
I1
sVcykx159
p2
I1
s.(dp0
Vd423lsi
p1
I1
sVcykx159
p2
I1
s.(dp0
Vd4b4ao8
p1
I1
sVcykx159
p2
I1
s.(dp0
Vd4da5yv
p1
I1
sVcykx159
p2
I1
s.(dp0
Vd4fbt2k
p1
I1
sVcykx159
p2
I1
s.(dp0
Vd4ucrnr
p1
I1
sVcykx159
p2
I1
s.(dp0
Vd504g7h
p1
I1
sVcykx159
p2
I1
s.(dp0
Vd57m9t1
p1
I1
sVcykx159
p2
I1
s.(dp0
Vd5hkt51
p1
I1
sVcykx159
p2
I1
s.(dp0
Vd5lun58
p1
I1
sVcykx159
p2
I1
s.(dp0
Vd5mu33q
p1
I1
sVcykx159
p2
I1
s.(dp0
Vd5mu33q
p1
I1
sVcykx159
p2
I1
s.(dp0
Vd5zi7qn
p1
I1
sVcykx159
p2
I1
s.(dp0
Vd60auwy
p1
I1
sVcykx159
p2
I1
s.(dp0
Vd624l7o
p1
I1
sVcykx159
p2
I1
s.(dp0
Vd624l7o
p1
I1
sVcykx159
p2
I1
s.(dp0
Vd624l7o
p1
I1
sVcykx159
p2
I1
s.(dp0
Vd66o2cw
p1
I1
sVcykx159
p2
I1
s.(dp0
Vd6a53n1
p1
I1
sVcykx159
p2
I1
s.(dp0
Vd6boa25
p1
I1
sVcykx159
p2
I1
s.(dp0
Vd6q4tvo
p1
I1
sVcykx159
p2
I1
s.(dp0
Vd71z25l
p1
I1
sVcykx159
p2
I1
s.(dp0
Vd7iul0m
p1
I1
sVcykx159
p2
I1
s.(dp0
Vd7kc4ew
p1
I1
sVcykx159
p2
I1
s.(dp0
Vd7kyo3w
p1
I1
sVcykx159
p2
I1
s.(dp0
Vd7t67x4
p1
I1
sVcykx159
p2
I1
s.(dp0
Vd7xmxly
p1
I1
sVcykx159
p2
I1
s.(dp0
Vd87xzi6
p1
I1
sVcykx159
p2
I1
s.(dp0
Vd882jws
p1
I1
sVcykx159
p2
I1
s.(dp0
Vd8a97g1
p1
I1
sVcykx159
p2
I1
s.(dp0
Vd8a97g1
p1
I1
sVcykx159
p2
I1
s.(dp0
Vd8a97g1
p1
I1
sVcykx159
p2
I1
s.(dp0
Vd8fk9m5
p1
I1
sVcykx159
p2
I1
s.(dp0
Vd8q757w
p1
I1
sVcykx159
p2
I1
s.(dp0
Vd8sagvk
p1
I1
sVcykx159
p2
I1
s.(dp0
Vd8xsz1h
p1
I1
sVcykx159
p2
I1
s.(dp0
Vd91ezjv
p1
I1
sVcykx159
p2
I1
s.(dp0
Vd91ezjv
p1
I1
sVcykx159
p2
I1
s.(dp0
Vd9h71g6
p1
I1
sVcykx159
p2
I1
s.(dp0
Vd9k6vqk
p1
I1
sVcykx159
p2
I1
s.(dp0
Vd9kwemn
p1
I1
sVcykx159
p2
I1
s.(dp0
Vd9m0mfj
p1
I1
sVcykx159
p2
I1
s.(dp0
Vd9qkp6h
p1
I1
sVcykx159
p2
I1
s.(dp0
Vd9to9dq
p1
I1
sVcykx159
p2
I1
s.(dp0
Vd9to9dq
p1
I1
sVcykx159
p2
I1
s.(dp0
Vdaaxn2m
p1
I1
sVcykx159
p2
I1
s.(dp0
Vdai1r33
p1
I1
sVcykx159
p2
I1
s.(dp0
Vdas8xx8
p1
I1
sVcykx159
p2
I1
s.(dp0
Vdb539g4
p1
I1
sVcykx159
p2
I1
s.(dp0
Vdb5ucvz
p1
I1
sVcykx159
p2
I1
s.(dp0
Vdbdyy2u
p1
I1
sVcykx159
p2
I1
s.(dp0
Vdbdyy2u
p1
I1
sVcykx159
p2
I1
s.(dp0
Vdbjgdxn
p1
I1
sVcykx159
p2
I1
s.(dp0
Vdbt9anb
p1
I1
sVcykx159
p2
I1
s.(dp0
Vdby3ikl
p1
I1
sVcykx159
p2
I1
s.(dp0
Vdc794ob
p1
I1
sVcykx159
p2
I1
s.(dp0
Vdc7gw2j
p1
I1
sVcykx159
p2
I1
s.(dp0
Vdcaocrx
p1
I1
sVcykx159
p2
I1
s.(dp0
Vdcb0ob3
p1
I1
sVcykx159
p2
I1
s.(dp0
Vdct3ymq
p1
I1
sVcykx159
p2
I1
s.(dp0
Vdcva84r
p1
I1
sVcykx159
p2
I1
s.(dp0
Vdd(dp0
Vdti6mzf
p1
I1
sVcykx159
p2
I1
s.