(dp0
Vdn04e0h
p1
I2
sVczbu67o
p2
I1
sVcyjtrst
p3
I1
sVd375aen
p4
I1
sVdi8rqtu
p5
I1
sVdeaaiz2
p6
I5
sVdhhsw4r
p7
I1
sVdjbk03z
p8
I1
sVd9vf0va
p9
I4
sVdneo4bg
p10
I1
sVddjttff
p11
I1
sVd9v5qs3
p12
I1
sVddun2z7
p13
I1
sVdjiux5q
p14
I1
sVczxzu75
p15
I1
sVd6ona19
p16
I1
sVdijd6ve
p17
I1
sVdgrxotk
p18
I2
sVd8d909j
p19
I1
s.