(dp0
Vd16yhg9
p1
I2
sVdbbk5gm
p2
I1
sVd0wvsrk
p3
I1
sVd41z027
p4
I2
sVdk59ciy
p5
I1
sVdp8wtqv
p6
I2
sVd37pr1h
p7
I12
sVdmseahm
p8
I1
sVd0eqc5t
p9
I4
sVdjc0s6p
p10
I1
sVdabwj5s
p11
I2
sVd37smju
p12
I1
sVdp8lids
p13
I2
sVd37k2aa
p14
I1
sVd5zgfhc
p15
I2
sVdfj1cm1
p16
I1
sVdfj2ye0
p17
I1
sVd37nbfp
p18
I1
sVd5i1igf
p19
I2
sVd795l6a
p20
I3
sVd093dzl
p21
I2
sVdfjarij
p22
I1
sVd5zh6ev
p23
I1
sVd00rlyu
p24
I1
sVd6qtrrz
p25
I2
sVcz9qjpq
p26
I2
sVd00v0dv
p27
I1
sVd3861j8
p28
I1
sVd25apws
p29
I1
sVd7h78vg
p30
I1
s.