(dp0
Vcynv73y
p1
I2
sVdflrysb
p2
I1
sVdn0s00n
p3
I2
sVczi49ys
p4
I1
sVdhwhcsg
p5
I2
sVdbiqjqj
p6
I1
sVdpmd44t
p7
I1
sVcz323ux
p8
I1
sVd0i0feb
p9
I1
sVd692vxv
p10
I1
sVczs3qi5
p11
I1
sVddg8dv7
p12
I1
sVdeb3ghq
p13
I1
sVdddyt74
p14
I1
sVdcx77u5
p15
I1
sVd243who
p16
I1
sVcyjog7k
p17
I1
sVd1fm8e1
p18
I1
sVczta8x7
p19
I1
sVdeffgrv
p20
I1
sVcyjnt0e
p21
I1
sVdgp9ob2
p22
I1
sVdebjx95
p23
I1
sVdevcs3a
p24
I1
sVczgobq8
p25
I1
sVd219l8t
p26
I1
sVdj75ldv
p27
I2
sVdafi1o0
p28
I1
sVd2r103c
p29
I1
sVd3jfgau
p30
I1
sVd4z3qno
p31
I2
sVd17tadk
p32
I2
sVd1k9x9b
p33
I3
sVdemcids
p34
I1
sVd5rizq7
p35
I2
sVdajglbt
p36
I2
sVdhkrnpc
p37
I1
sVd21igf5
p38
I1
sVd15egv7
p39
I1
sVd9nv4bx
p40
I1
sVd58f12d
p41
I1
sVcyk24of
p42
I2
sVd14wu7b
p43
I1
sVddjaot5
p44
I1
sVdbcfon8
p45
I1
sVcz25uso
p46
I1
sVd2zpy2m
p47
I1
sVdgo921q
p48
I3
sVdcj9mbo
p49
I2
sVddwnjrb
p50
I1
sVd8jdo1c
p51
I1
sVcyjrfco
p52
I2
sVdedlpvb
p53
I2
sVdb6ki1y
p54
I1
sVdh94qxe
p55
I1
sVd0i0dun
p56
I2
sVdhv4l5b
p57
I1
sVdh9p6ks
p58
I1
sVcz46irm
p59
I1
sVdqjz6qk
p60
I1
sVdjhbtqd
p61
I1
sVd2l3sr0
p62
I1
sVd6knjdy
p63
I1
sVdcobeqh
p64
I1
sVdo61ldi
p65
I2
sVczs0rwq
p66
I1
sVd34pkk5
p67
I1
sVd8n3v53
p68
I1
sVddol021
p69
I1
sVdqt4kzw
p70
I1
sVczbs4ww
p71
I1
sVcyw2e7f
p72
I1
sVd56l2hr
p73
I1
sVdfpunpe
p74
I1
sVd2yogqv
p75
I1
sVd2yc8wu
p76
I1
sVdq5ldc5
p77
I1
s.