(dp0
Vczit9cs
p1
I1
sVczxemeo
p2
I1
sVd5eprjy
p3
I1
sVdnfw6e6
p4
I1
sVd5zrbir
p5
I1
sVdibns0s
p6
I1
sVd70lrrd
p7
I1
sVd4s74ba
p8
I1
sVd6d1p6s
p9
I1
sVdficlj3
p10
I1
sVdddo5bs
p11
I1
sVdhayify
p12
I2
sVd6ctyiw
p13
I1
sVd17aad3
p14
I1
sVczcpd1h
p15
I1
sVd65op9b
p16
I1
sVdeh4yzv
p17
I1
sVd65acn0
p18
I2
sVdgm92fh
p19
I1
sVd6c030d
p20
I1
sVczv1351
p21
I1
sVd6cu1up
p22
I1
sVd6czwnt
p23
I1
sVddctn9s
p24
I1
sVdteur7j
p25
I1
sVdjoho8s
p26
I1
sVd53qqt6
p27
I1
sVdt4a6an
p28
I1
sVdmx964u
p29
I1
sVd5fj8su
p30
I1
sVd1zp3gt
p31
I1
sVdcyga8a
p32
I1
sVd0qhj69
p33
I1
sVd0rns1j
p34
I1
sVddr2bf9
p35
I1
sVd6dg5bi
p36
I1
sVdgm7ptb
p37
I1
sVczcqhx8
p38
I1
sVd6culg7
p39
I2
sVd65rl7w
p40
I1
sVd6czfye
p41
I1
s.