(dp0
Vd2atszm
p1
I1
sVdcghflf
p2
I1
sVdioxfog
p3
I1
sVd83i5ct
p4
I2
sVdcj1hko
p5
I1
sVd3xdm5r
p6
I2
sVczvtxzi
p7
I1
sVdcfuh7n
p8
I1
sVd0ss1fc
p9
I2
sVdrhqr1a
p10
I1
sVdeuxnc1
p11
I2
sVd7lrzlj
p12
I1
sVczjxcox
p13
I1
sVd6eqxlo
p14
I1
sVdbx4vol
p15
I1
sVd1etx9y
p16
I1
sVdbc83xl
p17
I1
sVd4oray3
p18
I2
sVdaedslb
p19
I1
sVcyson2h
p20
I1
sVdhtf5yn
p21
I1
sVd8t15kd
p22
I1
sVd82i2fr
p23
I1
sVd4dpcxj
p24
I1
sVd97kr1s
p25
I1
sVdc9hm5p
p26
I1
sVdtdv8dk
p27
I1
sVdogty19
p28
I1
sVddslwbt
p29
I1
sVd9jzhlb
p30
I1
sVd5613fg
p31
I2
sVd8kj57j
p32
I1
sVd1c96dx
p33
I1
sVd38b564
p34
I1
sVd1c98ht
p35
I1
sVd1x8fsy
p36
I2
sVd2kxd1j
p37
I1
sVdo6nr3e
p38
I1
sVczx5m6o
p39
I1
sVdsj14ln
p40
I1
sVdnrcs3p
p41
I2
sVd0hzx3u
p42
I1
sVd0blelz
p43
I1
sVdpxtrxh
p44
I1
sVd5hfa6r
p45
I1
sVdcajngp
p46
I1
sVddzt42t
p47
I1
sVdi5ki3e
p48
I1
sVdks130k
p49
I1
sVdq31mmy
p50
I1
sVcz146nc
p51
I1
sVd56h822
p52
I1
sVddbwvgx
p53
I1
sVdgekfcq
p54
I1
sVd0iy60x
p55
I1
sVdmoautb
p56
I1
sVd1cmeiq
p57
I1
sVdhxjq08
p58
I1
sVd1uknse
p59
I2
sVd3ybtyu
p60
I1
sVdcf9qmo
p61
I1
sVd5eee3y
p62
I1
sVdin9u69
p63
I1
sVdrkc5oc
p64
I1
sVdkhdxpx
p65
I1
sVddyavcx
p66
I1
sVdprddt2
p67
I1
sVdcbkwp2
p68
I1
sVd06qall
p69
I1
sVdoei1mo
p70
I1
sVdq5133f
p71
I2
sVdakfve7
p72
I2
sVcz6mddo
p73
I1
sVdfxi2ub
p74
I1
sVdksmi0q
p75
I1
sVdbr6brz
p76
I1
sVd10mphs
p77
I1
sVcynhc2u
p78
I1
sVd2yysya
p79
I1
sVd032r13
p80
I1
sVd2ar3v6
p81
I1
sVdbe61if
p82
I1
sVdgtphc7
p83
I1
sVdhv5471
p84
I1
sVd79i2vg
p85
I2
s.