(dp0
Vd57j4no
p1
I1
sVdgew9nc
p2
I1
sVdc5q0jz
p3
I2
sVdc5mg23
p4
I1
sVczm8fw7
p5
I1
sVd5wx3qw
p6
I1
sVdeq0ky9
p7
I2
sVdr2dihv
p8
I2
sVd3zbm56
p9
I1
sVdqhvk0d
p10
I1
sVdozk6yu
p11
I4
sVczmahdv
p12
I1
sVd94fzz8
p13
I1
sVdbjirbr
p14
I1
s.