(dp0
Vdfu25gn
p1
I1
sVdab0cgr
p2
I1
sVdawv18w
p3
I1
sVdh6e8b8
p4
I1
sVdmsqu5i
p5
I1
sVdi7sbfv
p6
I1
sVds4x3ad
p7
I2
sVdklp2e1
p8
I1
sVd89djw0
p9
I1
sVdkizgj6
p10
I1
sVdfwzm2x
p11
I2
sVd7ym6sf
p12
I1
sVdi7ikhk
p13
I1
sVdclix3y
p14
I1
sVcypji73
p15
I1
sVd3xl4k5
p16
I1
sVdil2o14
p17
I1
sVdopnil4
p18
I1
sVdftx09t
p19
I1
sVdt1pvq9
p20
I1
sVdcryco2
p21
I1
sVd163xt7
p22
I1
sVdj08hwm
p23
I1
sVcyubwec
p24
I1
sVd8mjc98
p25
I1
sVdegmrmk
p26
I1
sVdg93tiu
p27
I1
sVdck7ne7
p28
I1
sVdnebxv3
p29
I1
sVd97lxf8
p30
I2
sVdpe4pmi
p31
I1
sVd61h08w
p32
I1
sVdcgipfo
p33
I1
sVdr0oxdr
p34
I1
sVd8k21wy
p35
I1
sVd70i5lb
p36
I1
sVd7ekjog
p37
I1
sVdr5o1ik
p38
I1
sVdd1urcl
p39
I1
sVcyy9ppz
p40
I1
sVd3b4vwz
p41
I1
sVcz9tejj
p42
I1
sVdebis0z
p43
I1
sVdegc6fi
p44
I1
sVdaxtxxb
p45
I1
sVdhj971f
p46
I1
sVd2qdauc
p47
I1
sVddwp4xh
p48
I1
sVd0ap3zm
p49
I1
sVd382696
p50
I1
sVdgesqxx
p51
I1
sVd39nvn8
p52
I1
sVcz9fqkg
p53
I1
sVd77m0n7
p54
I1
sVd9x5y46
p55
I1
sVdiparg6
p56
I1
sVdmow1tu
p57
I1
sVdgibjlw
p58
I1
sVcz7febq
p59
I1
sVdrktqvh
p60
I1
sVdbfilsl
p61
I1
sVdn4oe2d
p62
I1
sVd0rlpfn
p63
I1
sVd2gmvwy
p64
I1
sVdb1be7j
p65
I1
sVd5ptw1d
p66
I3
sVdbxey4r
p67
I1
sVczje3pb
p68
I1
sVd8yf41x
p69
I2
sVdfl02ut
p70
I1
sVdf8k2kw
p71
I1
sVdfmf35h
p72
I1
sVdgwklsy
p73
I1
sVd3du6dn
p74
I1
sVd7hhs7u
p75
I1
sVdqjm8u8
p76
I1
sVd2uxdh3
p77
I1
sVdek08mc
p78
I1
sVdj22ixm
p79
I1
sVd9pndo8
p80
I1
sVdeygxdt
p81
I2
sVdt89qt3
p82
I1
sVd001f6c
p83
I1
sVdp2o8dq
p84
I1
sVd22x9zf
p85
I1
sVd0h4n3z
p86
I1
sVdeck3qc
p87
I2
sVd85c27u
p88
I1
sVcyl3bbh
p89
I1
sVdb7ku5x
p90
I1
sVdkr23op
p91
I1
sVdfrhny3
p92
I1
sVdnh6qa6
p93
I1
sVczssz1r
p94
I1
sVdenkzl6
p95
I1
sVd7s9sfo
p96
I1
sVczorugr
p97
I1
sVd7aoay4
p98
I1
sVcz9wj49
p99
I1
sVczpj0yc
p100
I1
sVd034q86
p101
I1
sVdfvnyt6
p102
I1
sVds7wn9u
p103
I1
sVd5vosd9
p104
I1
sVd7ibkgk
p105
I1
sVdicntyz
p106
I1
sVd6p7uc3
p107
I1
sVd4zvloh
p108
I1
sVdfi65o6
p109
I1
sVd9bq6pg
p110
I1
sVd3aoq5n
p111
I1
sVdbzuk9a
p112
I1
sVdsbgnqh
p113
I1
sVdbvd6ge
p114
I1
sVdfq1wxt
p115
I1
sVcyxn9cq
p116
I1
sVddu2l4a
p117
I1
sVdrlkcst
p118
I1
sVd4h3jp8
p119
I1
sVd3zitzo
p120
I1
sVcz04j6x
p121
I1
sVde6shr5
p122
I1
sVdtbrowg
p123
I1
sVd1k0ksi
p124
I1
sVd0fdw24
p125
I1
sVd373q4d
p126
I1
sVdav85hx
p127
I1
sVd859txd
p128
I1
sVd86ys7x
p129
I1
sVdip2m8x
p130
I1
sVd8362gu
p131
I1
sVdotw8zk
p132
I1
sVcz3q2gi
p133
I1
sVdb5909a
p134
I1
sVd6lsov2
p135
I1
sVddm1l3n
p136
I1
sVd17fulg
p137
I1
sVd5tz4ye
p138
I1
sVde1n3tb
p139
I1
sVd72racp
p140
I1
sVdosjhpa
p141
I1
sVdknfdkc
p142
I1
sVd9asqq3
p143
I1
sVd6abrdw
p144
I1
sVdqq8fmt
p145
I1
sVdq3c61g
p146
I1
sVdio1d5n
p147
I1
sVd2w11is
p148
I1
sVdi84vr9
p149
I1
sVdo8ps5a
p150
I1
sVdclc6k0
p151
I1
sVd1esrhj
p152
I2
sVd3bkkvr
p153
I1
sVddbvoet
p154
I1
sVddgpg7v
p155
I1
sVdnr7hol
p156
I2
sVdk4zhex
p157
I1
sVdkgg5mp
p158
I1
sVd0lbwsq
p159
I1
sVdnkrxuv
p160
I1
sVd3k7aw2
p161
I1
sVd5watgf
p162
I1
sVdghnd2z
p163
I1
sVd3ucydf
p164
I1
sVd5ip1rq
p165
I2
sVdsotn72
p166
I1
sVda1iv8j
p167
I1
sVd6lpa5o
p168
I1
sVd6wxqxd
p169
I1
sVdf1xjup
p170
I1
sVd0z7s30
p171
I1
sVd64rsa0
p172
I1
sVd8t8wo7
p173
I1
sVd0jb8kg
p174
I1
sVdq0444f
p175
I1
sVd4jgqvt
p176
I1
sVd6xloqk
p177
I1
sVd5ivvq5
p178
I1
sVdcf1we1
p179
I1
sVczy604j
p180
I1
sVd5kk882
p181
I1
sVdjo0nnh
p182
I1
sVczgqjuu
p183
I1
sVd1jqucu
p184
I1
sVd9qjumc
p185
I1
sVczyfm6r
p186
I1
sVdog0xro
p187
I1
sVd44752l
p188
I1
sVd1p0iju
p189
I1
sVd3cakdg
p190
I1
sVd95ed1o
p191
I1
sVdadbbdc
p192
I1
sVdh2wsm1
p193
I1
sVdtji25y
p194
I1
sVd62djgv
p195
I1
sVdbdhzzc
p196
I1
sVdcbclqz
p197
I1
sVdi7bh98
p198
I1
sVdh5uo7g
p199
I1
sVcz8nio2
p200
I1
sVd6sf53x
p201
I1
sVdcbcdnj
p202
I1
sVd3nyggu
p203
I1
sVd87nohh
p204
I1
sVd01u43w
p205
I1
sVdq9r0om
p206
I1
sVdhpfd1y
p207
I1
sVdioi2e2
p208
I1
sVd4n9rc8
p209
I1
sVdfennmi
p210
I1
sVd7ap0r2
p211
I1
sVdn1stkd
p212
I1
sVd6p8pei
p213
I1
sVdn0yhn4
p214
I2
sVd1xqlu2
p215
I1
sVd5lz3mf
p216
I1
sVddw8lp4
p217
I1
sVdqfol6p
p218
I1
sVdey24ax
p219
I1
sVdcu5o7c
p220
I1
sVd2dnned
p221
I1
sVdmzwv3w
p222
I1
sVdfqp90i
p223
I1
sVd8hkymj
p224
I2
sVd0lccu6
p225
I1
sVdabmdjj
p226
I1
sVdezdhwm
p227
I1
sVd1gx2o8
p228
I1
sVdq4j4tc
p229
I1
sVd8stf4p
p230
I1
sVdkd5pul
p231
I1
sVdfq7gv4
p232
I1
sVczdfs62
p233
I1
sVdexr5fa
p234
I1
sVd1kyis0
p235
I1
sVd48letl
p236
I1
sVdrda7kg
p237
I1
sVdcw3phu
p238
I1
sVdc2dsb1
p239
I1
sVd96y8xj
p240
I1
sVcz9fipj
p241
I1
sVd7ordeb
p242
I1
sVd94c449
p243
I1
sVddknn5e
p244
I1
sVd5zpg72
p245
I1
sVdqzvhrj
p246
I1
sVdo8q7nu
p247
I1
sVdi7qgu2
p248
I1
sVdncfb69
p249
I1
sVd2svwo0
p250
I1
sVd02vfbx
p251
I1
sVdcj19dz
p252
I1
sVd3hjp96
p253
I1
sVd1rxfc7
p254
I1
sVd039m63
p255
I1
sVdawu3c4
p256
I1
sVdkpto99
p257
I2
sVddbhn7v
p258
I1
sVdg74szf
p259
I2
sVd07t43t
p260
I1
sVd2ifrjl
p261
I1
sVdalhseo
p262
I1
sVde5pesp
p263
I1
sVd80qxjy
p264
I1
sVd5irclb
p265
I1
sVd3fcpej
p266
I1
sVdeu1qiv
p267
I1
sVd4wwj8g
p268
I1
sVd064zty
p269
I1
sVda40tru
p270
I1
sVdd3emb5
p271
I1
sVdbqz6j8
p272
I2
sVczrmja2
p273
I1
sVcyr6as0
p274
I1
sVd1l6kib
p275
I1
sVd18yn6x
p276
I1
sVd5b000n
p277
I1
sVd26d1n1
p278
I1
sVdgnevei
p279
I1
sVd2xdosw
p280
I1
sVcyiz2gd
p281
I1
sVczuxy7d
p282
I1
sVddugbmr
p283
I1
sVdcbji04
p284
I1
sVd2rsaud
p285
I1
sVdqllg3s
p286
I1
sVdtess3u
p287
I1
sVdg903fk
p288
I1
sVd7yedfp
p289
I2
sVdkgv3uo
p290
I1
sVdkmv1dx
p291
I1
sVczcbiey
p292
I1
sVdkvev9g
p293
I1
sVd6bzgw2
p294
I1
sVcykt8ye
p295
I1
sVdfrwhkw
p296
I1
sVcyjyske
p297
I1
sVdcgbot2
p298
I1
sVdqtwtuf
p299
I1
sVd5n25hp
p300
I3
sVdf823lx
p301
I1
sVdffqxhq
p302
I1
sVdd99ts6
p303
I1
sVdfvfp4h
p304
I1
sVddrwv21
p305
I1
sVd31lyn1
p306
I1
sVdnpq7lm
p307
I1
sVdgv3efj
p308
I1
sVdercdo5
p309
I1
sVd74b2f0
p310
I1
sVdk2j0is
p311
I1
sVdqzynyp
p312
I1
sVdq35qav
p313
I1
sVd0hj1i6
p314
I1
sVd5rvlev
p315
I1
sVcyv6qh5
p316
I1
sVcz84ih3
p317
I1
sVdja3wys
p318
I1
sVddytjlp
p319
I1
sVdgj6kme
p320
I1
sVd11fycz
p321
I1
sVd45y215
p322
I1
sVdsi28vx
p323
I1
sVdd8218f
p324
I2
sVdha2w5q
p325
I1
sVd88gfk5
p326
I1
sVdrun7or
p327
I1
sVdc0u42g
p328
I1
sVdqmwwjs
p329
I1
sVdffwmew
p330
I1
sVd84epy2
p331
I1
sVd440m4p
p332
I1
sVd2nht9w
p333
I1
sVd3m1s51
p334
I1
sVd07p5sf
p335
I1
sVdmi8opm
p336
I1
sVd0d71ih
p337
I1
sVd36v3cf
p338
I1
sVdoeadoh
p339
I1
sVdeteuo3
p340
I1
sVd8tg92w
p341
I1
sVdkkt2hl
p342
I1
sVd5w1aq5
p343
I1
sVcz6qu9g
p344
I1
sVdjt33nk
p345
I1
sVd9s0gyh
p346
I1
sVd76otex
p347
I1
sVdqh3cnx
p348
I1
sVd227tge
p349
I1
sVdb2w4np
p350
I1
sVd8euw1l
p351
I1
sVdfxrzxn
p352
I1
sVdkjaa9h
p353
I1
sVd3b5kt0
p354
I1
sVd3pgkvp
p355
I1
sVdg8ww9d
p356
I1
sVdrk2sr7
p357
I1
sVdc463aw
p358
I2
sVdiofl9v
p359
I1
sVdcbtgpb
p360
I1
sVdd5x7q5
p361
I1
sVde3jkx8
p362
I1
sVdprqezv
p363
I1
sVd1c34eh
p364
I1
sVdaizl23
p365
I1
sVdq3y0t4
p366
I1
sVd2oe7b4
p367
I1
sVd41lcvq
p368
I1
sVdfsqq7a
p369
I1
sVcyva6pb
p370
I1
sVd0gwm8w
p371
I1
sVd5h3i99
p372
I1
sVdgzc837
p373
I1
sVd5hc2g3
p374
I1
sVd2bm18a
p375
I2
sVdb0l7uv
p376
I1
sVdcy98sc
p377
I1
sVd6mvalg
p378
I1
sVd1ppvb5
p379
I3
sVd06k54m
p380
I1
sVdmqd893
p381
I1
sVdca2ijt
p382
I1
sVdgy5yh5
p383
I1
sVd8dmccd
p384
I1
sVcykxfce
p385
I1
sVd1kufk4
p386
I1
sVddhaa3h
p387
I2
sVdoyezca
p388
I1
sVczh86z9
p389
I1
sVdjyyrnq
p390
I1
sVd3loivb
p391
I1
sVddihq5r
p392
I1
sVdixkoq5
p393
I1
sVdip3n4f
p394
I1
sVd728k3i
p395
I1
sVd8z4h9i
p396
I1
sVda231sa
p397
I1
sVdjmakhv
p398
I1
sVdo044zi
p399
I1
sVd39n64x
p400
I1
sVdjn8r65
p401
I1
sVdrbyqgr
p402
I1
sVcyv0z68
p403
I2
sVczd6dq3
p404
I1
sVdisqsqf
p405
I1
sVddwm510
p406
I1
sVd2aua51
p407
I1
sVd7tn18i
p408
I1
sVdcg4nwu
p409
I2
sVda2wybl
p410
I1
sVd20i64i
p411
I1
sVdeprln9
p412
I1
sVdkinzi6
p413
I1
sVczc7uvl
p414
I1
sVd5d0tdq
p415
I1
sVd7vwgt0
p416
I1
sVd726xx1
p417
I1
sVd8v5vgw
p418
I1
sVdq69h3s
p419
I1
sVdhw7n1q
p420
I1
sVd0m97ql
p421
I1
sVdmtbfze
p422
I1
sVddah1p6
p423
I1
sVd7g3nvb
p424
I1
sVd0v8c84
p425
I1
sVdrk0pyj
p426
I1
sVd9hzvjs
p427
I1
sVd8yhqo5
p428
I1
sVdcjv4b2
p429
I1
sVd8q10up
p430
I1
sVd3j3r7m
p431
I1
sVdf9ygbg
p432
I1
sVdqkwxa4
p433
I1
sVd2jv0ib
p434
I1
sVdqjz2xx
p435
I1
sVdjzgzwl
p436
I1
sVd4agl2y
p437
I1
sVd9mqe89
p438
I1
sVd89j69e
p439
I1
sVdabnioa
p440
I1
sVd3rwh90
p441
I1
sVdcf9qmo
p442
I1
sVdnmbw6x
p443
I1
sVd169gcs
p444
I1
sVd1tq93e
p445
I1
sVd7szwbb
p446
I1
sVd8klhh3
p447
I1
sVdarkyok
p448
I1
sVd0vhnlw
p449
I1
sVd4b4j99
p450
I1
sVd5ivwws
p451
I1
sVdg2jakm
p452
I1
sVdcgg6zw
p453
I1
sVdjltkzv
p454
I1
sVda7erwk
p455
I1
sVd7wa34c
p456
I1
sVdatuwtd
p457
I1
sVda7ku1u
p458
I2
sVd3aww3z
p459
I1
sVdh6j1ro
p460
I1
sVdcrj0ww
p461
I1
sVcynsojw
p462
I1
sVdbojjcm
p463
I1
sVd9r3s32
p464
I1
sVdgdckfr
p465
I1
sVd9k3o3o
p466
I1
sVd4zi8za
p467
I1
sVd95tj9u
p468
I1
sVdklvkeu
p469
I1
sVd6vr1iy
p470
I1
sVdgultza
p471
I1
sVdik1g4n
p472
I1
sVd0lma44
p473
I1
sVdaedfhu
p474
I1
sVd45my7z
p475
I1
sVdo7e579
p476
I1
sVdk5ddfd
p477
I1
sVdnc5zgl
p478
I1
sVd7i0eb6
p479
I1
sVd1vhpt0
p480
I1
sVdfgg2rs
p481
I1
sVdsi3vrd
p482
I1
sVdhipc2w
p483
I1
sVdgb9u3z
p484
I1
sVdfighva
p485
I1
sVdav0vye
p486
I1
sVdhu79c5
p487
I1
sVd84vg2j
p488
I1
sVdkm6dab
p489
I1
sVd5wwn3c
p490
I1
sVd10cf63
p491
I1
sVdgpx357
p492
I1
sVdkpt9wk
p493
I2
sVdhr32i3
p494
I1
sVddkcioh
p495
I1
sVd0610rm
p496
I1
sVd5uhxys
p497
I1
sVd1wbths
p498
I1
sVcz4t8ts
p499
I1
sVd5q9hne
p500
I1
sVd1p9gj6
p501
I1
sVd0gzc7f
p502
I1
sVdb3fita
p503
I1
sVdj0jdxq
p504
I1
sVdcs3ebp
p505
I1
sVd9qgri5
p506
I1
sVdbm81dq
p507
I1
sVdi149yi
p508
I1
sVdf1vo7h
p509
I1
sVcz9m4l2
p510
I1
sVdsseyx6
p511
I2
sVdqdg7by
p512
I1
sVdgskl0w
p513
I1
sVd48s4yy
p514
I1
sVd4ggi4a
p515
I1
sVd5xuaic
p516
I1
sVd9v13yj
p517
I1
sVd4lnams
p518
I1
sVdftdj5q
p519
I1
sVcz713mg
p520
I1
sVd2tm6tz
p521
I1
sVddr1832
p522
I1
sVd61mcv8
p523
I1
sVdn72ove
p524
I1
sVdcef48d
p525
I1
sVd5oozqg
p526
I1
sVd0xoh4s
p527
I1
sVdhepzvo
p528
I1
sVd8svcs6
p529
I1
sVdf6c3wk
p530
I1
sVd2zipp5
p531
I1
sVd5tib4v
p532
I1
sVdjlo64l
p533
I1
sVd49q6qn
p534
I1
sVdd2ic3o
p535
I1
sVd927e61
p536
I1
sVdei249d
p537
I1
sVd7hq22g
p538
I1
sVdkijkdq
p539
I1
sVds3fjrx
p540
I1
sVd9x9zyw
p541
I1
sVd8ou4fz
p542
I1
sVdqfyd57
p543
I1
sVdi2vmkf
p544
I1
sVdkmek5w
p545
I1
sVde69cp1
p546
I1
sVcza545z
p547
I1
sVd6vh8yb
p548
I1
sVd76xyz0
p549
I1
sVd87m3yj
p550
I1
sVds2wkyz
p551
I1
sVdio55te
p552
I1
sVd0ew12u
p553
I1
sVdqt4o42
p554
I1
sVd63w91j
p555
I2
sVd3q52tf
p556
I1
sVdrnsyrh
p557
I1
sVd6i4bxq
p558
I2
sVdsv4gb1
p559
I1
sVdieintq
p560
I1
sVdg9jjz0
p561
I1
sVd3p2c5t
p562
I1
sVdcrom30
p563
I1
sVddy2dsv
p564
I1
sVdmf86mn
p565
I1
sVd8zsgyn
p566
I1
sVdisw2hv
p567
I1
sVd0o9e7y
p568
I1
sVd5zj4vs
p569
I1
sVczonmox
p570
I1
sVd7t8z0d
p571
I1
sVdc12hyd
p572
I1
sVd3tcirs
p573
I1
sVdnfbv96
p574
I1
sVdk7msp5
p575
I1
sVdt349ih
p576
I1
sVdir03ap
p577
I1
sVdbmicwh
p578
I1
sVd27xh1u
p579
I1
sVdjuwkm6
p580
I1
sVd714ers
p581
I1
sVd1rufb2
p582
I1
sVdkrlt5x
p583
I2
sVcyuit9h
p584
I1
sVddxeggu
p585
I1
sVdpa35x3
p586
I1
sVdr8ct51
p587
I1
sVdjsqd0k
p588
I1
sVdefl2fk
p589
I1
sVdmq5tq0
p590
I1
sVdedommt
p591
I1
sVdr0d6c9
p592
I1
sVdapt340
p593
I1
sVdk3984t
p594
I1
sVd1yrru9
p595
I1
sVd6v5vlz
p596
I1
sVdsegq2d
p597
I1
sVd0i8phi
p598
I1
sVdfwic3v
p599
I2
sVdbingx5
p600
I1
sVdirgz4d
p601
I1
sVd6lqmjo
p602
I1
sVdjdu3sk
p603
I1
sVdjqiz30
p604
I1
sVdecw5qy
p605
I1
sVdg1u9jw
p606
I1
sVdklu1u2
p607
I1
sVdonssye
p608
I1
sVdj7mqcg
p609
I1
sVd0cn0hf
p610
I1
sVd1k7s87
p611
I1
sVdi87uzm
p612
I1
sVdknh2vd
p613
I1
sVd3p9sid
p614
I1
sVd62kcse
p615
I1
sVd0qrzhq
p616
I1
sVd8fk9m5
p617
I1
sVd6jjgfl
p618
I1
sVdb7yfcs
p619
I1
sVdkn5bq2
p620
I1
sVd4oh614
p621
I1
sVcysm82j
p622
I1
sVd6fcz9d
p623
I1
sVczav3zi
p624
I1
sVdff8e1c
p625
I1
sVd3qpjsy
p626
I1
sVdh3qt9o
p627
I1
sVd2xm2tx
p628
I1
sVd77mlv6
p629
I1
sVd3wc91i
p630
I1
sVd1pf7hc
p631
I1
sVd0s5gpt
p632
I1
sVd1lv499
p633
I1
sVd1vgu4r
p634
I1
sVd0m9ub3
p635
I2
sVdi9gxlj
p636
I1
sVd11tatw
p637
I1
sVd9vpduq
p638
I1
sVd1c5dlo
p639
I1
sVdq8fwdh
p640
I1
sVd7r6vgt
p641
I1
sVdfpln0i
p642
I1
sVdjps3km
p643
I1
sVdpf14ac
p644
I1
sVd84uv9w
p645
I1
sVda88i26
p646
I1
sVdas8xx8
p647
I1
sVdox9wyx
p648
I1
sVdbz48k9
p649
I1
sVdam9pgc
p650
I1
sVd78cjqb
p651
I1
sVdjkmnr0
p652
I1
sVdbcazyo
p653
I1
sVd56izh5
p654
I1
sVdg7crqm
p655
I1
sVdcb90vl
p656
I1
sVd0hb9om
p657
I1
sVdbh6ff9
p658
I1
sVdnk47zb
p659
I1
sVd9xjc8k
p660
I1
sVd8yw1wp
p661
I1
sVd1ku690
p662
I1
sVd70r2x0
p663
I1
sVczfh5rj
p664
I1
sVczy0ihy
p665
I1
sVd50fmul
p666
I1
sVd16zbjz
p667
I1
sVdkoq5vb
p668
I1
sVd1e7gqb
p669
I1
sVd78kjy7
p670
I1
sVd68l2ky
p671
I2
sVd9na6wz
p672
I1
sVd3m7do2
p673
I1
sVdg23fif
p674
I1
sVcyq20ts
p675
I1
sVdik5b2w
p676
I1
sVde5bzd3
p677
I1
sVd3eloii
p678
I1
sVd2o3rtu
p679
I1
sVdd4tqbt
p680
I1
sVdio5owe
p681
I1
sVdsau82w
p682
I1
sVd1nnzpu
p683
I1
sVdjv0ya1
p684
I2
sVd3r46jv
p685
I1
sVda1qgns
p686
I2
sVdjgd2qe
p687
I1
sVdaupce2
p688
I1
sVdi5wecp
p689
I1
sVdg722jl
p690
I1
sVdi2b2sk
p691
I1
sVczzjzid
p692
I1
sVdg1df0f
p693
I1
sVdpqo5fq
p694
I1
sVd95tw5l
p695
I1
sVczm6xu0
p696
I1
sVd4noq5v
p697
I1
sVdt9ghwl
p698
I1
sVdmjdxer
p699
I1
sVdhd4npb
p700
I1
sVd3xd5ul
p701
I1
sVd6sy83y
p702
I2
sVd0uaevn
p703
I1
sVd00ktd0
p704
I1
sVdn0durd
p705
I2
sVd0fovzy
p706
I1
sVdbgp7fl
p707
I2
sVdrer26z
p708
I1
sVde4tln6
p709
I1
sVd6fr2fc
p710
I1
sVcz3y3n0
p711
I1
sVdgt4m4r
p712
I1
sVdhlrven
p713
I1
sVd6lq5rh
p714
I2
sVdg9fgl1
p715
I1
sVdf8pi4a
p716
I1
sVd45yn4a
p717
I1
sVdngcgxo
p718
I1
sVdeitjbm
p719
I1
sVddq68er
p720
I1
sVd7llcmh
p721
I1
sVddc1hf8
p722
I1
sVdhirnl3
p723
I1
sVdipmb6c
p724
I1
sVd15gfuo
p725
I1
sVddjs6z3
p726
I1
sVczqfrab
p727
I2
sVd9mbm2m
p728
I1
sVdd16p15
p729
I1
sVd8pua6t
p730
I1
sVd5grwai
p731
I1
sVcyrfoj0
p732
I1
sVdp8klzt
p733
I1
sVczqto4c
p734
I1
sVdcaijxf
p735
I1
sVde0oj21
p736
I1
sVcyva4ea
p737
I1
sVd835a5o
p738
I1
sVd38df5c
p739
I2
sVczzxm65
p740
I1
sVd50fu6t
p741
I1
sVdfl2zuk
p742
I1
sVdcul68h
p743
I1
sVdpp1qbg
p744
I1
sVd4rvxzo
p745
I1
sVdom2yb1
p746
I1
sVdmxf19w
p747
I1
sVdb05c5n
p748
I1
sVdbj03ji
p749
I1
sVdnrhire
p750
I1
sVdj8uyfk
p751
I1
sVdk5o19i
p752
I1
sVd1ddw4q
p753
I1
sVd1i13rf
p754
I1
sVcyuo6qq
p755
I1
sVdc8xngw
p756
I1
sVd5bhv4x
p757
I1
sVdip5w8m
p758
I1
sVcyu09pz
p759
I1
sVdfqhbey
p760
I1
sVdp33xd3
p761
I1
sVd55c3l7
p762
I1
sVdbg8ypl
p763
I1
sVdnuu8kz
p764
I1
sVdkti1p2
p765
I1
sVdnd5hmk
p766
I1
sVdigb4cj
p767
I1
sVd11cpwv
p768
I2
sVdbjo0kq
p769
I1
sVd4h4c51
p770
I1
sVd6uooar
p771
I1
sVcysphrd
p772
I1
sVd1ksy34
p773
I1
sVd2q86v3
p774
I1
sVd87dhxy
p775
I1
sVdbirfjj
p776
I1
sVdd0rwah
p777
I1
sVdsv4kmr
p778
I1
sVdavc2tw
p779
I1
sVd6lch7f
p780
I1
sVdimgcit
p781
I1
sVd9ltwlb
p782
I1
sVd9n4kcu
p783
I1
sVczi9b5a
p784
I1
sVd7t6706
p785
I1
sVdnvkguw
p786
I2
s.