(dp0
Vcyllid0
p1
I2
sVdbijjql
p2
I1
sVdnt3vsy
p3
I1
sVdhgm7gh
p4
I2
sVczpc031
p5
I1
sVda3ocgu
p6
I1
sVdkjdgl5
p7
I1
sVdqikftk
p8
I1
sVd7loc3u
p9
I1
sVdbn5ljl
p10
I1
sVdb13ake
p11
I1
sVd1wff8r
p12
I1
sVd0rocxq
p13
I1
sVdb5nws2
p14
I1
sVdjsg1lt
p15
I1
sVd2qlhey
p16
I1
sVd7atehv
p17
I1
sVd9ea2uv
p18
I1
sVd1nd9b0
p19
I1
sVdc253xc
p20
I1
sVd01awbj
p21
I1
sVczd963a
p22
I1
sVdfi516m
p23
I5
sVd1uzhjc
p24
I1
sVdcud3as
p25
I1
sVdcm1gmo
p26
I1
sVcyq58od
p27
I1
sVdacf9lm
p28
I2
sVdd7lt83
p29
I1
sVd9ixfnl
p30
I1
sVdf1x9g2
p31
I1
sVd9yr0cr
p32
I1
sVdpz6ctv
p33
I2
sVcyzghi5
p34
I1
sVd5prcu7
p35
I1
sVdddadiu
p36
I2
sVdfyi7g6
p37
I1
sVd2gdxoc
p38
I1
sVdt59390
p39
I1
sVdgeh26g
p40
I1
sVd0dlenw
p41
I1
sVd2kob87
p42
I1
sVdkv2unj
p43
I1
sVdiijlvd
p44
I1
sVd74h794
p45
I3
sVd36tzfm
p46
I1
sVdejx7u0
p47
I1
sVda1vfsf
p48
I1
sVd96oq6m
p49
I1
sVdo1u911
p50
I1
sVdcbji04
p51
I1
sVdb9oqci
p52
I1
sVdfxqf1e
p53
I4
sVdcvnhlx
p54
I1
sVd7szv5y
p55
I1
sVd2nf4xm
p56
I1
sVd30i8nf
p57
I1
sVdnexlz9
p58
I3
sVdjrggkz
p59
I1
sVd0frmac
p60
I1
sVds05itq
p61
I2
sVdnu0z9y
p62
I1
sVd8t59nj
p63
I1
sVd8g75c0
p64
I1
sVd0s6j8c
p65
I1
sVd22uydd
p66
I1
sVdfvs6co
p67
I1
sVd18tsbb
p68
I1
sVdiy94a1
p69
I1
sVdg9vrcl
p70
I1
sVd66h1nn
p71
I1
sVda1v9rr
p72
I1
sVddjhd6g
p73
I1
sVdihkvly
p74
I1
sVd2g6sar
p75
I1
sVd125jio
p76
I1
sVd5nq0cy
p77
I1
sVd53nu6d
p78
I1
sVdpez3l6
p79
I1
sVd2k9lsf
p80
I1
sVd0193fw
p81
I1
sVdcuuge0
p82
I1
sVd1n11wj
p83
I1
sVddwr7gr
p84
I1
sVdb4uoe6
p85
I2
sVd4govu2
p86
I1
sVd1wgm7g
p87
I1
sVcytda62
p88
I1
sVd3k8pk2
p89
I1
sVd1gn756
p90
I1
sVdhc6u1x
p91
I1
sVd9xxlk0
p92
I1
sVdc5s5td
p93
I1
sVd528shi
p94
I1
sVd5zz867
p95
I1
sVdctjo1u
p96
I1
sVcyiqvua
p97
I1
sVd1k3y9c
p98
I1
sVcyptqoi
p99
I1
sVd887wj5
p100
I1
sVdervz4s
p101
I1
sVdfrociz
p102
I1
sVdeiypnn
p103
I1
sVdapokg4
p104
I1
sVczgi4lb
p105
I1
sVdahh04z
p106
I2
sVdsl3usv
p107
I1
sVd7kfg5u
p108
I2
sVcz9m924
p109
I1
sVdf6d27d
p110
I1
sVddgrfef
p111
I1
sVds2c0m3
p112
I1
sVdcw37pg
p113
I1
sVd6l1bia
p114
I1
sVd1pzkcg
p115
I1
sVd99jrcw
p116
I1
sVdjdkryz
p117
I1
sVd0rowgn
p118
I1
sVd9vk9at
p119
I1
sVddoh1hl
p120
I4
sVd048193
p121
I1
sVd0cnv8s
p122
I1
sVd1mh6gc
p123
I1
sVdf973b1
p124
I1
sVdmgx407
p125
I1
sVd0ebqpi
p126
I1
sVdc62r4f
p127
I1
sVd7gblqu
p128
I1
sVd14kfoz
p129
I2
sVdh6y543
p130
I1
sVdcb8js1
p131
I3
sVcyzvq8m
p132
I1
sVd1qesvm
p133
I1
sVczb3ha1
p134
I1
sVda1xldz
p135
I1
sVdcpogb6
p136
I3
sVd3kkha2
p137
I1
sVd1hit0n
p138
I1
sVd84k4jf
p139
I1
sVd3ygp0i
p140
I1
sVd018y1b
p141
I1
sVdfh8xt7
p142
I1
sVdhl1fhl
p143
I1
sVdbis9h2
p144
I1
sVd8jsyh0
p145
I2
sVdhki3n3
p146
I1
sVd2woly3
p147
I1
sVdkxdnfb
p148
I1
sVd1uold9
p149
I1
sVdcuby96
p150
I1
sVdqqpc5i
p151
I1
sVcz64gc9
p152
I2
sVdcpds3e
p153
I1
sVdhrabb0
p154
I1
sVdggsdlk
p155
I1
sVd7kj1gy
p156
I1
sVd82zzgz
p157
I1
sVd5zccn5
p158
I1
sVd1stpg3
p159
I1
sVdkm4vu1
p160
I1
sVcynhyi7
p161
I1
sVdg64fgr
p162
I1
sVcyxc7ww
p163
I1
sVddfydvt
p164
I1
sVdgt1umu
p165
I1
sVdihgd3l
p166
I1
sVd3by5wu
p167
I1
sVdsn15ws
p168
I1
sVczkvenl
p169
I1
sVdhb6ern
p170
I1
sVd3qyii0
p171
I1
sVdg7gmk4
p172
I1
sVd9ei99e
p173
I1
sVd9en8c8
p174
I2
sVd92yiho
p175
I1
sVdodpa9b
p176
I1
sVdb58sdh
p177
I1
sVd1fmc73
p178
I1
sVczhu1j7
p179
I1
sVde8nl8x
p180
I1
sVd84r737
p181
I1
sVdc1pj0h
p182
I1
sVdsujri8
p183
I1
sVd0f9fkv
p184
I1
sVdb91o4b
p185
I1
sVdqibf2w
p186
I1
sVdewf20z
p187
I1
sVdnx52x4
p188
I1
sVd42xwdh
p189
I3
sVdghdwl4
p190
I1
sVdf9t97d
p191
I1
sVdc3upoe
p192
I1
sVdo8b9hw
p193
I1
sVd02k64a
p194
I2
sVdpy5cs7
p195
I2
sVd17aad3
p196
I2
sVd8xxfy7
p197
I1
sVdir4sfi
p198
I1
sVd5lmbfv
p199
I1
sVdgzmcnp
p200
I1
sVdebmcbh
p201
I1
sVdjrvytv
p202
I1
sVczn3wbo
p203
I1
sVddge0y5
p204
I1
sVdpxv1zz
p205
I1
sVd0i6er1
p206
I1
sVcym9sx6
p207
I1
sVd0fnjyp
p208
I1
sVcz0jb0e
p209
I1
sVda1xhz3
p210
I1
sVczoe70h
p211
I1
sVderikta
p212
I1
sVd3qy7io
p213
I1
sVdf93ya3
p214
I2
sVd01p0yh
p215
I1
sVd35uyls
p216
I1
sVdmxng66
p217
I1
sVdjgli29
p218
I1
sVdfnj44p
p219
I1
sVd25xt9u
p220
I1
sVdajb9n8
p221
I1
sVdhlqdav
p222
I1
sVczugsjk
p223
I1
sVd3lkht9
p224
I1
sVcz9hvw8
p225
I1
sVdpj79vj
p226
I1
sVdsgro86
p227
I1
sVdhfjfjc
p228
I2
sVcyyz2pc
p229
I1
sVdbwpzd3
p230
I1
sVczbd97z
p231
I1
sVcyp5odn
p232
I1
sVd9q29bl
p233
I1
sVda1scru
p234
I1
sVdcwxh92
p235
I2
sVd3hx48t
p236
I1
sVdn1js1p
p237
I1
sVd1dxufm
p238
I1
sVdpn9e13
p239
I1
sVdirifed
p240
I1
sVczjd1gi
p241
I1
sVd1kmau5
p242
I1
sVcyvj9xq
p243
I3
sVdr0mt7m
p244
I1
sVdbbk2q8
p245
I1
sVd0y6z5p
p246
I1
sVdj1rxtt
p247
I1
sVdj4weo1
p248
I1
sVd8bq3z2
p249
I2
sVdmisdef
p250
I1
sVd1jeuy1
p251
I2
sVdn73o0x
p252
I1
sVdd21mut
p253
I1
sVdf2e3pm
p254
I1
sVds34uv8
p255
I1
sVdc70ewd
p256
I1
sVd0r3ali
p257
I1
sVdczjf1f
p258
I1
sVdejfi46
p259
I2
sVdinnx9i
p260
I1
sVdgknnlr
p261
I2
sVdd4s76z
p262
I1
sVd033fs5
p263
I1
sVd9dfdgh
p264
I1
sVda03g02
p265
I3
sVdgtw4l6
p266
I2
sVd0s8mxy
p267
I1
sVcyyd1qi
p268
I1
sVd8auqcf
p269
I1
sVcz97prw
p270
I1
sVdivpbzr
p271
I1
sVdd5yf2h
p272
I1
sVdap30bd
p273
I1
sVd5k0f5r
p274
I1
sVd0tk35l
p275
I1
sVd97f6yk
p276
I1
sVdiuu9ah
p277
I2
sVd3gh912
p278
I1
sVdrqeos3
p279
I1
sVcz5olms
p280
I1
sVd3bv8xr
p281
I1
sVdf3aaoj
p282
I1
sVdnkcaeu
p283
I3
sVd6p2mlj
p284
I1
sVd0haslj
p285
I1
sVdiraiwd
p286
I1
sVdj348ou
p287
I2
sVd4wxh05
p288
I1
sVd6ubjz0
p289
I1
sVcyw07fr
p290
I1
sVdh0uhaf
p291
I1
sVdhcre79
p292
I1
sVd309nls
p293
I1
sVd4jsxhv
p294
I1
sVdk95o4k
p295
I1
sVdt84nee
p296
I1
sVdjb3q28
p297
I1
sVcynqmdt
p298
I1
sVdsqwpgu
p299
I1
sVd7xmeck
p300
I1
sVd3dbqnn
p301
I1
sVdefxzmb
p302
I1
sVd9ekkok
p303
I1
sVdabopo8
p304
I1
sVdf6kqmp
p305
I2
sVdfnomfn
p306
I1
sVdstsaa5
p307
I1
sVd09g5w2
p308
I1
sVdj8ystz
p309
I1
sVdsxmuu2
p310
I1
sVde9fex1
p311
I1
sVczonbio
p312
I1
sVd5df0fe
p313
I1
sVczjbhn6
p314
I1
sVdfnhs6r
p315
I1
sVd9hjpe0
p316
I1
sVdnu3qy9
p317
I1
sVd4h4cjf
p318
I1
sVdamefxv
p319
I1
sVd34cfrg
p320
I1
sVdizpjqg
p321
I1
sVdp1qie7
p322
I1
sVdgq9yey
p323
I1
sVd2yofvt
p324
I1
sVdfapny1
p325
I2
sVd1fg2pz
p326
I1
sVdgfh222
p327
I1
sVdmnhev5
p328
I1
sVdeuj0ul
p329
I1
sVdc5aqwf
p330
I1
sVdn9rxy5
p331
I1
sVdb6av6p
p332
I1
sVdddrvuo
p333
I1
sVczk7zkc
p334
I1
sVdoctzem
p335
I1
sVdj05wrh
p336
I1
sVd2s4yuu
p337
I1
sVdn3b3f5
p338
I1
sVczlz515
p339
I1
sVdn625db
p340
I1
sVdd6b7xk
p341
I3
sVdth127n
p342
I1
sVd0951my
p343
I1
sVdhlr0mn
p344
I1
sVdsfd073
p345
I1
sVd12wiib
p346
I1
sVd7si5ss
p347
I1
sVdelo7vk
p348
I1
sVdgkbxwr
p349
I1
sVdnb8h64
p350
I1
sVdg99ubg
p351
I1
sVdh36el5
p352
I1
sVd0e52cm
p353
I2
sVd9x0oy8
p354
I1
sVddhxea3
p355
I1
sVd6kzzk3
p356
I2
sVdjk359v
p357
I1
sVdjz9wcf
p358
I1
sVdqabxby
p359
I1
sVd70cckb
p360
I1
sVdd4yh6b
p361
I1
sVd3rr0o9
p362
I1
sVd00r8ou
p363
I1
sVdds1wbi
p364
I1
sVdboiv8q
p365
I1
sVd6f71gn
p366
I1
sVcytzqx5
p367
I1
sVdjdknfw
p368
I1
sVdf1zjek
p369
I3
sVd9wk8v1
p370
I1
sVd1uh2dx
p371
I2
sVd4ys2ur
p372
I1
sVdfnhwsc
p373
I1
sVcykgxqx
p374
I1
sVdiib7li
p375
I1
sVdmhizxu
p376
I3
sVdsjrkc0
p377
I1
sVdexeah8
p378
I1
sVddt460v
p379
I2
sVd1qc5ty
p380
I1
sVdhpjk5x
p381
I1
sVdco7yr3
p382
I1
sVdphlk2z
p383
I1
sVdbhdd1p
p384
I1
sVczthzet
p385
I1
sVdbn5i0p
p386
I1
sVds26qv3
p387
I1
sVd8ez6d1
p388
I1
sVczu0v8n
p389
I1
sVdihe32j
p390
I1
sVdbmak5h
p391
I1
sVdfyi96t
p392
I1
sVd9nw5u8
p393
I1
sVd68hdye
p394
I1
sVd20vqrp
p395
I1
sVdhruz7l
p396
I1
sVdax7md8
p397
I1
sVdaj6ere
p398
I1
sVd6sxbek
p399
I1
sVdt4f4rn
p400
I1
sVdmnl6on
p401
I1
sVd50elkl
p402
I1
sVdk05uk5
p403
I3
sVdkkdibw
p404
I2
sVdaou6h5
p405
I1
sVdqtnrfz
p406
I2
sVd1kdi3g
p407
I1
sVdb5csru
p408
I1
sVd3nt56l
p409
I1
sVd42sfka
p410
I1
sVdf8dsg6
p411
I1
sVddfm0gz
p412
I1
sVdb60t6d
p413
I1
sVdckxutb
p414
I1
sVd44k3pr
p415
I1
sVdsqdudd
p416
I1
sVd066b4a
p417
I1
sVd1yxu0o
p418
I1
sVd6m5opa
p419
I1
sVda2h22i
p420
I1
sVd98yq1c
p421
I1
sVd3zpn5j
p422
I1
sVd0qlh8g
p423
I2
sVcznkapf
p424
I1
sVd1mxdcm
p425
I1
sVdibaeau
p426
I1
sVcyw83in
p427
I2
sVd0eggja
p428
I1
sVdhgqofn
p429
I1
sVdfiq0gv
p430
I1
sVd4uafu2
p431
I1
sVdtj4fgw
p432
I1
sVdp52u46
p433
I1
sVd97diz6
p434
I1
sVd2q97w0
p435
I1
sVd07qh5t
p436
I1
sVdbfytie
p437
I5
sVd995ude
p438
I1
sVd36lzea
p439
I2
sVdpul9w7
p440
I1
sVdcr4s9p
p441
I1
sVdfkjnb1
p442
I1
sVdknub6d
p443
I2
sVd3qyr0b
p444
I1
sVd06705o
p445
I1
sVdq2yvrh
p446
I1
sVd8c8qjw
p447
I1
sVdolkqmh
p448
I1
sVd0gfp09
p449
I1
sVdkz8v39
p450
I1
sVdimhlr4
p451
I1
sVdfk55el
p452
I1
sVd4s0qe6
p453
I1
sVczyujs2
p454
I1
sVdrtqquj
p455
I1
sVd4kw09a
p456
I1
sVdnzwtu5
p457
I2
sVdi0u2it
p458
I2
sVdk65h6y
p459
I1
sVdibc5e1
p460
I1
sVd0z88vs
p461
I1
sVdaj24qt
p462
I1
sVdfwmrxz
p463
I1
sVd0x9p33
p464
I1
sVdggqt4f
p465
I2
sVdev6zwi
p466
I1
sVd8yt4ly
p467
I1
sVdczmqdw
p468
I1
sVdgg63zb
p469
I1
sVcyjnhn4
p470
I1
sVd17hjvt
p471
I1
sVd03hd1k
p472
I1
sVdkvjdoi
p473
I1
sVdagcxqn
p474
I1
sVdbo6p18
p475
I1
sVd0an0o5
p476
I1
sVddej049
p477
I1
sVdbtvqqi
p478
I1
sVdhpc6h1
p479
I2
sVde4rbmq
p480
I1
sVde5yzlb
p481
I1
sVd4m8mgv
p482
I1
sVdkvmlyc
p483
I1
sVd0ctk8f
p484
I1
sVd20sjzb
p485
I1
sVd5gr3ta
p486
I1
sVd1xv15m
p487
I2
sVdf99q5o
p488
I1
sVdgg78vf
p489
I1
sVdfdle1v
p490
I1
sVdpczgul
p491
I1
sVdqmj2nd
p492
I1
sVddpwr31
p493
I1
sVd3g5uy9
p494
I1
sVdkd2wxj
p495
I1
sVddfkv7g
p496
I1
sVde9zvrv
p497
I2
sVdbtxjqv
p498
I1
sVdoghgjm
p499
I1
sVd3kmp57
p500
I1
sVd9eog1l
p501
I1
sVd3uu4pf
p502
I1
sVdp7fvoc
p503
I1
sVdavabym
p504
I2
sVdflzyqw
p505
I1
sVdq0dso1
p506
I1
sVdhlcrjs
p507
I1
sVdgw2ctf
p508
I1
sVd668bff
p509
I1
sVd291lev
p510
I1
sVdn16y4p
p511
I2
sVddfzu2l
p512
I1
sVdjplio6
p513
I1
sVdcxzyc4
p514
I1
sVdd6yiag
p515
I1
sVdkixw80
p516
I1
sVd7envii
p517
I1
sVd5fmfyc
p518
I1
sVdpydkwn
p519
I4
sVde06t63
p520
I1
sVdmstqy1
p521
I1
sVd297o1p
p522
I1
sVd36qv76
p523
I1
sVdfvl8cu
p524
I2
sVd3zubvw
p525
I1
sVd1xumpy
p526
I1
sVdh7hd60
p527
I1
sVddfso48
p528
I1
sVd1ici48
p529
I1
sVd21m0xa
p530
I1
sVdnb4hnz
p531
I1
sVd3nymko
p532
I2
sVdbfo2js
p533
I1
sVdq1bclj
p534
I1
sVd0ph25y
p535
I2
sVdr243im
p536
I1
sVdhd0efb
p537
I1
sVdrn99pf
p538
I1
sVd0xr34p
p539
I1
sVdbv46g3
p540
I1
sVd4gqvin
p541
I1
sVdhgfih5
p542
I2
sVdc8lu2c
p543
I1
sVcyrmlla
p544
I1
sVdnn5wqn
p545
I1
sVda09zof
p546
I1
sVdthy3yi
p547
I1
sVd5v5bje
p548
I1
sVdrpgm98
p549
I1
sVdp70uls
p550
I1
sVdtgwjxc
p551
I1
sVdgoy7s5
p552
I1
sVd3h3yqo
p553
I1
sVdnrd8jr
p554
I1
sVdpmwt4q
p555
I1
sVd4lomnt
p556
I1
sVdb0g81n
p557
I1
sVdp8oqjd
p558
I1
sVdnuv1fv
p559
I1
sVd68caji
p560
I1
sVdpii7yv
p561
I1
sVdevc3n1
p562
I1
sVdhn2zxt
p563
I1
sVdb5f0kn
p564
I1
sVd30idcn
p565
I1
sVdivo329
p566
I2
sVdejcg0m
p567
I1
sVd8nderp
p568
I1
sVdqu02y3
p569
I2
sVdgh0fdi
p570
I2
sVdkk9j2m
p571
I1
sVdbfzmk2
p572
I3
sVdfvtert
p573
I1
sVdjrs0k3
p574
I1
sVdgffrqq
p575
I1
sVd93trhj
p576
I1
sVdnroo8a
p577
I1
sVdpndo15
p578
I1
sVcyuawuj
p579
I2
sVd2g8vew
p580
I1
sVd4gmydd
p581
I2
sVdcvtn1a
p582
I1
sVcyn09y2
p583
I1
sVdauso76
p584
I1
sVcz3mfys
p585
I1
sVdn39kdw
p586
I1
sVdafmr5n
p587
I1
sVdfaemyk
p588
I1
sVde9kqfo
p589
I1
sVd15nbc6
p590
I1
sVdgxzl3k
p591
I1
sVdpkixof
p592
I1
sVd4jivxu
p593
I1
sVdh6973e
p594
I1
sVde0lowe
p595
I1
sVdgghfei
p596
I1
sVdjngt2i
p597
I1
sVde4f09k
p598
I1
sVd0tqs7q
p599
I1
sVddj902f
p600
I1
sVdh84rxo
p601
I1
sVdipxytj
p602
I1
sVczljix5
p603
I1
sVd043bh2
p604
I1
sVd3tzede
p605
I1
sVd7m0mix
p606
I1
sVdrp14o0
p607
I1
sVd0c77og
p608
I1
sVd2qvg46
p609
I1
sVd1uy7cx
p610
I1
sVddcnpsr
p611
I1
sVd602p8m
p612
I1
sVd23wyzl
p613
I1
sVcyibugh
p614
I2
sVd0f26tw
p615
I1
sVdbioc5f
p616
I3
sVdfz6fgn
p617
I1
sVd9frg3t
p618
I1
sVdn3a4ox
p619
I1
sVdgcql5u
p620
I1
sVdqiokfs
p621
I1
sVd4l1xc6
p622
I1
sVdhbnmbg
p623
I1
sVd5vog19
p624
I1
sVdawqxh2
p625
I1
sVdsizrlb
p626
I1
sVd208x2b
p627
I1
sVd07tf6m
p628
I1
sVd09nxa9
p629
I1
sVdghhrjg
p630
I1
sVdab705x
p631
I1
sVd1l9x2x
p632
I2
sVdfme41c
p633
I1
sVdkibhpa
p634
I1
sVcz7e5hh
p635
I2
sVcz7ix1p
p636
I2
sVd7p5pv2
p637
I2
sVdg2ojjg
p638
I1
sVd33rqvg
p639
I1
sVd4gvt77
p640
I1
sVdjix8c6
p641
I2
sVd5s8gza
p642
I1
sVdclvwav
p643
I1
sVdaz0oj5
p644
I1
sVdi3pnhr
p645
I1
sVd3x0nua
p646
I1
sVdisp4ot
p647
I1
sVczme274
p648
I1
sVdsxbbdn
p649
I1
sVdqmco9v
p650
I1
sVdq2fcil
p651
I1
sVd5q63fx
p652
I1
sVd99y9tl
p653
I2
sVd64o94u
p654
I3
sVd9woqvf
p655
I1
sVd0655si
p656
I1
sVd8wosv7
p657
I1
sVd1j5jdn
p658
I1
sVczgv9xa
p659
I1
sVdgdga08
p660
I1
sVd06grmr
p661
I1
sVd76xyz0
p662
I3
sVdkcvf1c
p663
I1
sVdf3nfms
p664
I1
sVd9mmnkd
p665
I1
sVdhlq5ma
p666
I1
sVd2p9s1k
p667
I1
sVdfp08qx
p668
I1
sVdnicbfl
p669
I1
sVd4uklo9
p670
I3
sVd8yn1lf
p671
I1
sVd2g6f0k
p672
I3
sVdgaoujr
p673
I1
sVdftowg2
p674
I1
sVd5i2uux
p675
I1
sVd2r0b77
p676
I1
sVd5h0prp
p677
I1
sVdoayg4o
p678
I1
sVd933ttp
p679
I1
sVdctrl5d
p680
I1
sVdii1w4e
p681
I1
sVdaz0f2l
p682
I1
sVd132e3a
p683
I1
sVd9bmnv5
p684
I1
sVd2i7jk7
p685
I1
sVdqcl2gp
p686
I1
sVczbsl8f
p687
I1
sVd24hdp0
p688
I1
sVd61m3ai
p689
I2
sVdkog79h
p690
I1
sVd68oydd
p691
I1
sVd3v7vpy
p692
I1
sVczrc7rx
p693
I1
sVczlnmk6
p694
I1
sVdsblsol
p695
I1
sVdg12j5s
p696
I1
sVdqjchaz
p697
I1
sVdrk3n2h
p698
I1
sVd97c5xw
p699
I2
sVdawnghw
p700
I1
sVdoihkl6
p701
I1
sVd0ansfg
p702
I1
sVd21nw8p
p703
I1
sVcyttj3n
p704
I1
sVd7c2m1h
p705
I1
sVd71plac
p706
I1
sVd2d0duh
p707
I1
sVd0avmep
p708
I1
sVdej3qxe
p709
I1
sVdbuwe4l
p710
I1
sVd97ay9o
p711
I1
sVdmswcet
p712
I1
sVd3zo0iy
p713
I1
sVd6zy9h3
p714
I1
sVd2541h8
p715
I2
sVd97qw4x
p716
I1
sVd9bpvov
p717
I1
sVdggcny8
p718
I1
sVdjss34g
p719
I1
sVd01nmce
p720
I2
sVdmvixk2
p721
I1
sVdfox3ig
p722
I1
sVdo6mn90
p723
I1
sVdafbm71
p724
I2
sVd50m1hq
p725
I1
sVd6f2wr4
p726
I1
sVd3r8722
p727
I1
sVdircj6i
p728
I1
sVd3fjijo
p729
I1
sVcyl5mh1
p730
I1
sVd9uijgo
p731
I1
sVdcquejf
p732
I1
sVd7ztveg
p733
I1
sVdiqpt0r
p734
I1
sVd7c40sh
p735
I2
sVdsodhzq
p736
I2
sVdpcuc3n
p737
I1
sVdpfy5h0
p738
I1
sVd0c5ndr
p739
I1
sVdjdby7p
p740
I1
sVd3j190n
p741
I1
sVdiic7f7
p742
I1
sVdtgjy1q
p743
I2
sVd430smi
p744
I1
sVdilzk9l
p745
I1
sVd39oppw
p746
I1
sVda4eze1
p747
I1
sVd824qoi
p748
I1
sVde2otkx
p749
I1
sVdbjrujd
p750
I1
sVd147oku
p751
I1
sVdexsrl2
p752
I1
sVdeg478h
p753
I1
sVcyw6pgz
p754
I1
sVdpyvq47
p755
I1
sVdpy7rb0
p756
I1
sVdb13vzd
p757
I1
sVdenyiah
p758
I1
sVdscwpga
p759
I1
sVdq6pfb8
p760
I1
sVdhgzsm0
p761
I1
sVdb5aue1
p762
I2
sVczh08k9
p763
I1
sVd2v0iyt
p764
I1
sVd22i6pp
p765
I1
sVddlfdyb
p766
I1
sVdgcw3pf
p767
I5
sVdndja4d
p768
I1
sVddx49yv
p769
I1
sVd3lj4kq
p770
I2
sVdaquxcu
p771
I1
sVdsjx83e
p772
I1
sVd3j8xuv
p773
I1
sVdp65wnd
p774
I1
sVcyqb613
p775
I1
sVdq7jhe3
p776
I1
sVczz8xmg
p777
I1
sVdsfd9eh
p778
I1
sVd9uphpm
p779
I1
sVd0kz9kc
p780
I1
sVd40bb6k
p781
I1
sVddjpb2j
p782
I2
sVde71py6
p783
I1
sVd92dia5
p784
I2
sVd4rbrwk
p785
I1
sVcync49u
p786
I1
sVdf5djr9
p787
I1
sVcylxooy
p788
I1
sVdbfah03
p789
I1
sVdndz0t2
p790
I1
sVdhgwmqf
p791
I1
sVdmskxgs
p792
I1
sVd0cnoi7
p793
I1
sVczatlur
p794
I1
sVd1oh637
p795
I1
sVddeeuw8
p796
I1
sVdb5d0a6
p797
I1
sVd8f4g19
p798
I1
sVdbikj72
p799
I1
sVdbpa01k
p800
I1
sVcywoxtk
p801
I1
sVdatlye2
p802
I2
sVd8rpzzd
p803
I1
sVdcur5kz
p804
I1
sVdo5v87t
p805
I3
sVd7rcqgl
p806
I1
sVdgkmphf
p807
I2
sVddgezax
p808
I1
sVdd204fn
p809
I1
sVd9y946b
p810
I1
sVdoroffn
p811
I1
sVdrq736h
p812
I1
sVdp5269u
p813
I2
sVdq9bcze
p814
I1
sVd1h2m10
p815
I1
sVd9dq701
p816
I1
sVdpxnhw4
p817
I1
sVd1iytna
p818
I1
sVdo66r71
p819
I1
sVdg12j1j
p820
I1
sVd79zhg4
p821
I1
sVdf9b6lq
p822
I1
sVd31um3a
p823
I2
sVdarsfwj
p824
I1
sVd1nnzpu
p825
I1
sVdc1hpt4
p826
I2
sVdbeextx
p827
I1
sVd5ivrzw
p828
I1
sVdb58tvu
p829
I1
sVd0l5ftx
p830
I1
sVdjcezzw
p831
I1
sVd03iedo
p832
I2
sVdkhsuji
p833
I1
sVd40x5u9
p834
I1
sVdjvecg8
p835
I1
sVdnd9pzg
p836
I1
sVczatmpn
p837
I1
sVds12fj1
p838
I1
sVds7e8tu
p839
I1
sVczaetre
p840
I1
sVdbebjv1
p841
I1
sVdny21ee
p842
I1
sVdr8otqo
p843
I2
sVd323rm4
p844
I1
sVdpf1nl9
p845
I1
sVdiru1rt
p846
I1
sVdfx10y8
p847
I1
sVdfh182i
p848
I1
sVdo5vfxz
p849
I1
sVd35gm4j
p850
I1
sVde4qgz4
p851
I1
sVd97hn5n
p852
I1
sVddhf8bu
p853
I1
sVczzw9qi
p854
I2
sVdb52ydd
p855
I2
sVd8rt6eh
p856
I1
sVdoi1naf
p857
I2
sVdj53dqp
p858
I1
sVdjt6820
p859
I1
sVdho3obg
p860
I1
sVd7rfjif
p861
I2
sVd8kka9y
p862
I1
sVdrgwjrt
p863
I1
sVdgv0504
p864
I1
sVdf4kynm
p865
I1
sVdgtq6ms
p866
I1
sVcyzyzno
p867
I1
sVdmrxttd
p868
I1
sVcz7wuem
p869
I1
sVd97cpwq
p870
I1
sVdgz01j8
p871
I1
sVd0yemgy
p872
I1
sVd0l9kxy
p873
I1
sVd2zl0g9
p874
I1
sVcyiwa9d
p875
I1
sVd2t1pse
p876
I1
sVdqftp4e
p877
I1
sVd5ihhsm
p878
I1
sVcznup74
p879
I1
sVd1l4ljy
p880
I1
sVd84jaog
p881
I1
sVdcc3513
p882
I5
sVdbdtwnx
p883
I1
sVdo0sf3e
p884
I1
sVd285etm
p885
I1
sVdisdztu
p886
I1
sVd1gud4u
p887
I1
sVd3g0qfc
p888
I1
sVd3h885c
p889
I1
sVdbqohy9
p890
I1
sVdt7ya8n
p891
I1
sVde49mp4
p892
I1
sVd5ch334
p893
I1
sVd0ask0o
p894
I1
sVdjvhh2y
p895
I1
sVdberkd0
p896
I1
sVd7mpurj
p897
I1
sVd2mn48u
p898
I1
sVdjviuqu
p899
I1
sVdbittzn
p900
I2
sVd1n1qy9
p901
I1
sVdehlzpi
p902
I1
sVdr4cbex
p903
I1
sVdggy95f
p904
I1
sVdjvm1k9
p905
I1
sVd0omzg9
p906
I1
sVd7p4131
p907
I1
sVczjcgdg
p908
I1
sVcyipvaj
p909
I1
sVd3pj5q3
p910
I1
sVddct29i
p911
I1
sVd3565cx
p912
I1
sVdae5vtk
p913
I1
sVcyk24of
p914
I1
sVdhohvx8
p915
I1
sVczc9z9g
p916
I1
sVdsfzugt
p917
I2
sVdrikg7d
p918
I1
sVd89jh73
p919
I1
sVdpybdhg
p920
I1
sVd1d1y8l
p921
I1
sVdfii9qz
p922
I2
sVdfw1v6q
p923
I1
sVdgdz0hv
p924
I1
sVd3kb15j
p925
I1
sVdckc804
p926
I1
sVczz9h7x
p927
I1
sVdpw2hs4
p928
I1
sVdmx9nyp
p929
I1
sVdk0sn38
p930
I1
sVczx1wbu
p931
I1
sVdepyn93
p932
I1
sVd2uix4i
p933
I1
sVdbfxgty
p934
I1
sVdbi2a08
p935
I1
sVd7rj538
p936
I1
sVd33g58r
p937
I2
s.