(dp0
Vcyrfcc7
p1
I1
s.(dp0
Vczaipq5
p1
I1
sVcyrfcc7
p2
I1
s.(dp0
Vd06uy8d
p1
I1
sVcyrfcc7
p2
I1
s.(dp0
Vd06xh1q
p1
I1
sVcyrfcc7
p2
I1
s.(dp0
Vd0qpggh
p1
I1
sVcyrfcc7
p2
I1
s.(dp0
Vd14mszi
p1
I1
sVcyrfcc7
p2
I1
s.(dp0
Vd1n701i
p1
I1
sVcyrfcc7
p2
I1
s.(dp0
Vd1vcdkk
p1
I1
sVcyrfcc7
p2
I1
s.(dp0
Vd26fgar
p1
I1
sVcyrfcc7
p2
I1
s.(dp0
Vcyrfcc7
p1
I1
sVd2n809g
p2
I1
s.(dp0
Vd3583jr
p1
I1
sVcyrfcc7
p2
I1
s.(dp0
Vd3bjwk5
p1
I1
sVcyrfcc7
p2
I1
s.(dp0
Vd727vn4
p1
I1
sVcyrfcc7
p2
I1
s.(dp0
Vdb0u0yc
p1
I1
sVcyrfcc7
p2
I1
s.(dp0
Vcyrfcc7
p1
I1
sVdc8xx4y
p2
I1
s.(dp0
Vddojijf
p1
I1
sVcyrfcc7
p2
I1
s.(dp0
Vddojijf
p1
I1
sVcyrfcc7
p2
I1
s.(dp0
Vddojijf
p1
I1
sVcyrfcc7
p2
I1
s.(dp0
Vdebtdqs
p1
I1
sVcyrfcc7
p2
I1
s.(dp0
Vdebtjzv
p1
I1
sVcyrfcc7
p2
I1
s.(dp0
Vdfor004
p1
I1
sVcyrfcc7
p2
I1
s.(dp0
Vdfriebv
p1
I1
sVcyrfcc7
p2
I1
s.(dp0
Vdfvs8mu
p1
I1
sVcyrfcc7
p2
I1
s.(dp0
Vdip9ani
p1
I1
sVcyrfcc7
p2
I1
s.(dp0
Vcyrfcc7
p1
I1
sVdjcbnzw
p2
I1
s.(dp0
Vdpyk6fi
p1
I1
sVcyrfcc7
p2
I1
s.