(dp0
Vcz8cmuq
p1
I1
sVdkuaamg
p2
I1
sVdekwuhi
p3
I1
sVcyujny1
p4
I1
sVdk8zpsj
p5
I1
sVdi5ewrv
p6
I1
sVdcyuclh
p7
I1
sVd7kceu6
p8
I1
sVd375cj6
p9
I1
sVd1wrf28
p10
I1
sVcz7ai28
p11
I1
sVd7y3jus
p12
I1
sVddygz0z
p13
I1
sVd2labvo
p14
I1
sVdbanjcw
p15
I1
sVddbzy4l
p16
I1
sVdah9hhg
p17
I1
sVdg23fif
p18
I1
sVd38m095
p19
I1
sVd68maen
p20
I1
sVcz7nusc
p21
I1
sVd3nimhe
p22
I1
s.