(dp0
Vd1kla7u
p1
I1
sVd1ube6h
p2
I1
sVdtftwsr
p3
I1
sVd3o8yo5
p4
I1
sVd1tqmd2
p5
I2
sVdtf977i
p6
I1
sVdtfqt39
p7
I2
sVd4s4vu8
p8
I1
sVd1tk3to
p9
I1
sVdkq717i
p10
I2
sVdtf87v9
p11
I2
sVdtfl2xl
p12
I4
sVdkkt0to
p13
I1
sVdh42rde
p14
I1
sVd1usit3
p15
I1
sVd6ihdh0
p16
I2
sVd1rbrt8
p17
I1
sVdbrcmid
p18
I2
sVdtfm81h
p19
I1
sVdjhgecb
p20
I1
sVdtfc4i5
p21
I1
sVdg056rk
p22
I3
sVd0ocwnw
p23
I3
sVdkbm5i6
p24
I1
sVd9apgjd
p25
I1
sVdgvpl0t
p26
I3
sVd7xu11m
p27
I2
sVdtfk5yz
p28
I7
sVdbrfawu
p29
I4
sVdtfghl1
p30
I1
sVcz6l3qr
p31
I1
sVd1uj96s
p32
I1
sVdk68xnq
p33
I1
sVczi9ype
p34
I1
sVdgw4bob
p35
I2
sVds3h429
p36
I1
sVdd0v80e
p37
I2
sVdc75kzj
p38
I1
sVd1klc5o
p39
I1
sVd7e6pry
p40
I1
sVdtf9ruf
p41
I3
sVddeecug
p42
I1
sVd7shvbc
p43
I1
sVdg05g85
p44
I1
sVcz2r1oh
p45
I1
sVd0yjstt
p46
I1
sVd0cgivx
p47
I2
sVdtfmtb6
p48
I2
sVdb55ura
p49
I1
sVdkbqicv
p50
I3
sVdcxuy1k
p51
I2
sVd1kl28g
p52
I1
sVd8yy75b
p53
I2
sVda1zgp4
p54
I1
sVd1tk3j0
p55
I1
sVdtfmxbe
p56
I1
sVdfra170
p57
I1
sVde7qs1l
p58
I1
sVdtffb71
p59
I1
sVcypowvp
p60
I1
sVcz4l7dr
p61
I1
sVddnzda5
p62
I3
sVd2apfs1
p63
I2
sVd0ccjn0
p64
I1
sVd2d3bjo
p65
I1
sVdhnh9ef
p66
I1
sVcz4qak7
p67
I2
sVczv0zyb
p68
I1
sVd1gc56n
p69
I1
sVd1qjcag
p70
I1
sVcz6gw5j
p71
I1
sVczz0ws9
p72
I3
sVdhfn801
p73
I1
sVdkku1vv
p74
I1
sVdtf9ao0
p75
I2
sVdn6pc8p
p76
I1
sVd01hqk7
p77
I1
sVdnegyg1
p78
I1
sVcz5j2dr
p79
I1
sVcyzx9hn
p80
I1
sVdtfoq2l
p81
I4
sVdtfme28
p82
I1
sVdn6jzjz
p83
I1
sVczx3mwz
p84
I1
sVcyzqul4
p85
I1
sVd1kptx2
p86
I1
sVdg89xuq
p87
I2
sVdtfcxld
p88
I1
sVcyt2n7h
p89
I1
sVdkm4vu1
p90
I1
sVdi9u9yp
p91
I1
sVcykfdct
p92
I2
sVdtfdkra
p93
I3
sVcykrl4m
p94
I1
sVdtfbaqw
p95
I2
sVd1tk17n
p96
I1
sVdga2js1
p97
I2
sVd37jlnz
p98
I1
sVdfnaej5
p99
I1
sVdtfea5z
p100
I3
sVdkbmabl
p101
I1
sVd1nt877
p102
I1
sVd1tl1fh
p103
I2
sVdiqef8b
p104
I1
sVd8y9jka
p105
I1
sVd15egv7
p106
I1
sVd3l0rmv
p107
I3
sVdcnm9yq
p108
I1
sVd380ue5
p109
I1
sVd2arzul
p110
I1
sVdtf9awi
p111
I1
sVdk96bhn
p112
I1
sVd07psjy
p113
I1
sVdccguvm
p114
I1
s.