(dp0
Vd6pn9jz
p1
I3
sVdnnjiul
p2
I1
sVdq8mmlb
p3
I1
sVdr1b442
p4
I5
sVczq71bf
p5
I2
sVdsnhnoi
p6
I1
sVdeubg0k
p7
I5
sVd3p47g3
p8
I1
sVden1wxt
p9
I1
sVdjwkyb2
p10
I2
sVdexl3ds
p11
I1
sVddfjymc
p12
I3
sVd7o8dz1
p13
I1
sVd0awv0j
p14
I1
sVdru7f98
p15
I1
sVdfnl8vo
p16
I2
sVd0nl8cn
p17
I1
sVd536on3
p18
I1
sVd22kkra
p19
I1
sVdmsbku2
p20
I1
sVczpuvu0
p21
I1
sVddx5w3s
p22
I1
sVdk0jmxw
p23
I1
s.