(dp0
Vczjog9h
p1
I1
s.(dp0
Vd0ia4mi
p1
I1
sVczjog9h
p2
I1
s.(dp0
Vczjog9h
p1
I1
sVd5rmd66
p2
I1
s.(dp0
Vd9ppj68
p1
I1
sVczjog9h
p2
I1
s.(dp0
Vdaoeojr
p1
I1
sVczjog9h
p2
I1
s.(dp0
Vdaubl7y
p1
I1
sVczjog9h
p2
I1
s.(dp0
Vczjog9h
p1
I1
sVdehc0cs
p2
I1
s.(dp0
Vdjo55kb
p1
I1
sVczjog9h
p2
I1
s.