(dp0
Vcyz1q0e
p1
I1
s.(dp0
Vcyz1q0e
p1
I2
s.(dp0
Vcyz1q0e
p1
I2
s.(dp0
Vcz26jrh
p1
I1
sVcyz1q0e
p2
I1
s.(dp0
Vd0j4sxj
p1
I1
sVcyz1q0e
p2
I1
s.(dp0
Vd0j4sxj
p1
I1
sVcyz1q0e
p2
I1
s.(dp0
Vdqxapew
p1
I1
sVcyz1q0e
p2
I1
s.