(dp0
Vcynxo4o
p1
I1
s.(dp0
Vcynxo4o
p1
I1
sVcyujcy6
p2
I1
s.(dp0
Vcynxo4o
p1
I1
sVcywj294
p2
I1
s.(dp0
Vcynxo4o
p1
I1
sVcz1doaz
p2
I1
s.(dp0
Vcz3dtfl
p1
I1
sVcynxo4o
p2
I1
s.(dp0
Vcynxo4o
p1
I1
sVcz6r8di
p2
I1
s.(dp0
Vcynxo4o
p1
I1
sVcz83sl5
p2
I1
s.(dp0
Vcynxo4o
p1
I1
sVcz8fjg1
p2
I1
s.(dp0
Vczadbep
p1
I1
sVcynxo4o
p2
I1
s.(dp0
Vczcd7aq
p1
I1
sVcynxo4o
p2
I1
s.(dp0
Vczgv1nx
p1
I1
sVcynxo4o
p2
I1
s.(dp0
Vczm0rbc
p1
I1
sVcynxo4o
p2
I1
s.(dp0
Vcznxzhc
p1
I1
sVcynxo4o
p2
I1
s.(dp0
Vcznxzhc
p1
I1
sVcynxo4o
p2
I1
s.(dp0
Vcynxo4o
p1
I1
sVczs5j4e
p2
I1
s.(dp0
Vcynxo4o
p1
I1
sVczxlbez
p2
I1
s.(dp0
Vcynxo4o
p1
I1
sVczzdq33
p2
I1
s.(dp0
Vcynxo4o
p1
I1
sVd00jzxz
p2
I1
s.(dp0
Vd02fjrm
p1
I1
sVcynxo4o
p2
I1
s.(dp0
Vd02fjrm
p1
I1
sVcynxo4o
p2
I1
s.(dp0
Vd02fjrm
p1
I1
sVcynxo4o
p2
I1
s.(dp0
Vcynxo4o
p1
I1
sVd03teht
p2
I1
s.(dp0
Vd045dao
p1
I1
sVcynxo4o
p2
I1
s.(dp0
Vd0912zs
p1
I1
sVcynxo4o
p2
I1
s.(dp0
Vd0b32o3
p1
I1
sVcynxo4o
p2
I1
s.(dp0
Vd0df8ib
p1
I1
sVcynxo4o
p2
I1
s.(dp0
Vd0eba1i
p1
I1
sVcynxo4o
p2
I1
s.(dp0
Vd0ejzd8
p1
I1
sVcynxo4o
p2
I1
s.(dp0
Vd0h3ifx
p1
I1
sVcynxo4o
p2
I1
s.(dp0
Vd0lvu2b
p1
I1
sVcynxo4o
p2
I1
s.(dp0
Vcynxo4o
p1
I1
sVd0nivh1
p2
I1
s.(dp0
Vcynxo4o
p1
I1
sVd0ordl0
p2
I1
s.(dp0
Vd0pur1k
p1
I1
sVcynxo4o
p2
I1
s.(dp0
Vd0s0p9h
p1
I1
sVcynxo4o
p2
I1
s.(dp0
Vcynxo4o
p1
I1
sVd0zw1z0
p2
I1
s.(dp0
Vcynxo4o
p1
I1
sVd141rlv
p2
I1
s.(dp0
Vd14hw8i
p1
I1
sVcynxo4o
p2
I1
s.(dp0
Vd14r3nl
p1
I1
sVcynxo4o
p2
I1
s.(dp0
Vd14r3nl
p1
I1
sVcynxo4o
p2
I1
s.(dp0
Vd16x79d
p1
I1
sVcynxo4o
p2
I1
s.(dp0
Vd17a0m9
p1
I1
sVcynxo4o
p2
I1
s.(dp0
Vd18ggyh
p1
I1
sVcynxo4o
p2
I1
s.(dp0
Vd1qk3z9
p1
I1
sVcynxo4o
p2
I1
s.(dp0
Vd1roka3
p1
I1
sVcynxo4o
p2
I1
s.(dp0
Vd1rv5wj
p1
I1
sVcynxo4o
p2
I1
s.(dp0
Vd1vu4e9
p1
I1
sVcynxo4o
p2
I1
s.(dp0
Vd1xod4h
p1
I1
sVcynxo4o
p2
I1
s.(dp0
Vcynxo4o
p1
I1
sVd1y6o2s
p2
I1
s.(dp0
Vcynxo4o
p1
I1
sVd20odfa
p2
I1
s.(dp0
Vcynxo4o
p1
I1
sVd2gssdk
p2
I1
s.(dp0
Vcynxo4o
p1
I1
sVd2h7apx
p2
I1
s.(dp0
Vcynxo4o
p1
I1
sVd2hx8m3
p2
I1
s.(dp0
Vcynxo4o
p1
I1
sVd2pks6n
p2
I1
s.(dp0
Vcynxo4o
p1
I1
sVd2qnpd9
p2
I1
s.(dp0
Vd2swbkf
p1
I1
sVcynxo4o
p2
I1
s.(dp0
Vd2zhhb9
p1
I1
sVcynxo4o
p2
I1
s.(dp0
Vd35ezto
p1
I1
sVcynxo4o
p2
I1
s.(dp0
Vd35ezto
p1
I1
sVcynxo4o
p2
I1
s.(dp0
Vd39fnlh
p1
I1
sVcynxo4o
p2
I1
s.(dp0
Vcynxo4o
p1
I1
sVd3anrn4
p2
I1
s.(dp0
Vcynxo4o
p1
I1
sVd3edyt0
p2
I1
s.(dp0
Vd3ef1c2
p1
I1
sVcynxo4o
p2
I1
s.(dp0
Vd3mtjz6
p1
I1
sVcynxo4o
p2
I1
s.(dp0
Vcynxo4o
p1
I1
sVd3nwyqq
p2
I1
s.(dp0
Vcynxo4o
p1
I1
sVd43858w
p2
I1
s.(dp0
Vcynxo4o
p1
I1
sVd4d0f8b
p2
I1
s.(dp0
Vcynxo4o
p1
I1
sVd4d0f8b
p2
I1
s.(dp0
Vd4mt2es
p1
I1
sVcynxo4o
p2
I1
s.(dp0
Vd4sr6vv
p1
I1
sVcynxo4o
p2
I1
s.(dp0
Vd4sr6vv
p1
I1
sVcynxo4o
p2
I1
s.(dp0
Vcynxo4o
p1
I1
sVd4w07vx
p2
I1
s.(dp0
Vd4z59f6
p1
I1
sVcynxo4o
p2
I1
s.(dp0
Vd4zn4ak
p1
I1
sVcynxo4o
p2
I1
s.(dp0
Vcynxo4o
p1
I1
sVd51k19h
p2
I1
s.(dp0
Vd51t20r
p1
I1
sVcynxo4o
p2
I1
s.(dp0
Vd5546nc
p1
I1
sVcynxo4o
p2
I1
s.(dp0
Vd57zgco
p1
I1
sVcynxo4o
p2
I1
s.(dp0
Vd5q9k7i
p1
I1
sVcynxo4o
p2
I1
s.(dp0
Vd5vunec
p1
I1
sVcynxo4o
p2
I1
s.(dp0
Vd60pt76
p1
I1
sVcynxo4o
p2
I1
s.(dp0
Vcynxo4o
p1
I1
sVd62jb8q
p2
I1
s.(dp0
Vd63qezy
p1
I1
sVcynxo4o
p2
I1
s.(dp0
Vd663ery
p1
I1
sVcynxo4o
p2
I1
s.(dp0
Vd68sflo
p1
I1
sVcynxo4o
p2
I1
s.(dp0
Vcynxo4o
p1
I1
sVd6e6jp5
p2
I1
s.(dp0
Vd6fq7cf
p1
I1
sVcynxo4o
p2
I1
s.(dp0
Vcynxo4o
p1
I1
sVd6fr3gz
p2
I1
s.(dp0
Vcynxo4o
p1
I1
sVd6qgzoc
p2
I1
s.(dp0
Vd6xlj9w
p1
I1
sVcynxo4o
p2
I1
s.(dp0
Vd75n7m6
p1
I1
sVcynxo4o
p2
I1
s.(dp0
Vd762i26
p1
I1
sVcynxo4o
p2
I1
s.(dp0
Vcynxo4o
p1
I1
sVd763hh2
p2
I1
s.(dp0
Vcynxo4o
p1
I1
sVd76mos0
p2
I1
s.(dp0
Vd77chgd
p1
I1
sVcynxo4o
p2
I1
s.(dp0
Vcynxo4o
p1
I1
sVd77qv9d
p2
I1
s.(dp0
Vcynxo4o
p1
I1
sVd7ca5gm
p2
I1
s.(dp0
Vd7cbmeu
p1
I1
sVcynxo4o
p2
I1
s.(dp0
Vcynxo4o
p1
I1
sVd7fn1cx
p2
I1
s.(dp0
Vcynxo4o
p1
I1
sVd7gle86
p2
I1
s.(dp0
Vd7gs8fa
p1
I1
sVcynxo4o
p2
I1
s.(dp0
Vd7soctk
p1
I1
sVcynxo4o
p2
I1
s.(dp0
Vd7wl235
p1
I1
sVcynxo4o
p2
I1
s.(dp0
Vd7yhaje
p1
I1
sVcynxo4o
p2
I1
s.(dp0
Vd7yhaje
p1
I1
sVcynxo4o
p2
I1
s.(dp0
Vcynxo4o
p1
I1
sVd7ysiyq
p2
I1
s.(dp0
Vcynxo4o
p1
I1
sVd7ysiyq
p2
I1
s.(dp0
Vd81iwsj
p1
I1
sVcynxo4o
p2
I1
s.(dp0
Vcynxo4o
p1
I1
sVd84492n
p2
I1
s.(dp0
Vcy(dp0
Vdtieie8
p1
I1
sVcynxo4o
p2
I1
s.