(dp0
Vddfu7uw
p1
I1
sVd4xmzsx
p2
I1
sVd2yii66
p3
I1
sVde0dujl
p4
I1
sVdat389m
p5
I1
sVdn1dtmn
p6
I2
sVdpnq6sb
p7
I1
sVd4ajgdy
p8
I1
sVdc4jacq
p9
I1
sVd24e83z
p10
I2
sVd1dts34
p11
I1
sVdijlvcx
p12
I1
s.