(dp0
Vd5guc4k
p1
I1
sVdizozk8
p2
I1
sVddohf9j
p3
I1
sVd8iy96d
p4
I1
sVd2tal8r
p5
I1
sVd858ojf
p6
I1
sVdclg8o5
p7
I1
sVdgkbxwr
p8
I1
sVdg4lzpb
p9
I1
sVczedzpb
p10
I1
sVd7gl2i5
p11
I1
sVd3gi6xg
p12
I1
sVcyqaoxz
p13
I1
sVdjen3wj
p14
I1
sVdjuperu
p15
I1
sVdbi2htc
p16
I1
sVdiyy0l0
p17
I1
sVdpu9068
p18
I1
sVd5s4g88
p19
I1
sVdqq1xoi
p20
I1
sVdkoyo0h
p21
I1
sVd62oipo
p22
I1
sVd570k1j
p23
I1
sVdgum1v5
p24
I1
sVdq7gk02
p25
I1
sVd71afrt
p26
I1
sVd16w7f5
p27
I1
sVcz3xrne
p28
I1
sVczglfts
p29
I1
sVdf1wjp4
p30
I2
sVd7ua6ek
p31
I1
sVdk3aebm
p32
I1
sVdc9sm2c
p33
I1
sVdikoq5e
p34
I3
sVd5rtcxw
p35
I1
sVd74ylmr
p36
I1
sVdfcrq6b
p37
I1
sVd2or81a
p38
I1
sVcz3080v
p39
I1
sVdg0kiaw
p40
I1
sVd68m93l
p41
I1
sVdd0cstv
p42
I1
sVd849sby
p43
I1
sVd1xx75j
p44
I1
sVd0j2yv3
p45
I2
sVdh1t400
p46
I1
sVd953ra3
p47
I1
sVdmn30oh
p48
I1
sVd6i2oax
p49
I1
sVd0a52it
p50
I1
sVd4735k0
p51
I1
sVd0iikes
p52
I1
sVdis53s4
p53
I1
sVd0pn63r
p54
I1
sVd9diur6
p55
I1
sVd01yllj
p56
I1
sVcyzvca5
p57
I1
sVdhtrqj9
p58
I1
sVcz4l8y4
p59
I1
sVdffuerl
p60
I1
sVd87b6f1
p61
I1
sVdcl20mw
p62
I1
sVd8g6bps
p63
I1
sVd1v2fgc
p64
I1
sVdeil3bv
p65
I1
sVdevjalm
p66
I1
sVd1sit2f
p67
I1
sVdsazpzh
p68
I1
sVd8iuswc
p69
I1
sVd3jbi5r
p70
I1
sVd8ixe8k
p71
I2
sVdgfo1ml
p72
I1
sVd3cbqae
p73
I1
sVdj21erj
p74
I1
s.