(dp0
Vdhg6v2c
p1
I1
sVd8hm615
p2
I1
sVdo6rxto
p3
I1
sVdblwvnd
p4
I1
sVdpwt0yl
p5
I1
sVdr3e6ru
p6
I1
sVdo7nndc
p7
I2
sVdknp9oj
p8
I1
sVd4fbdv6
p9
I1
sVd07cp32
p10
I1
sVd4xpav9
p11
I1
sVdhn1f24
p12
I1
sVdmej748
p13
I3
sVded9hk8
p14
I1
sVd4nuytz
p15
I1
sVdnzebe3
p16
I1
sVdo6w7bv
p17
I1
sVdo6m5yg
p18
I1
sVded2k1m
p19
I1
sVdr7nlpn
p20
I1
sVdj9xiwu
p21
I1
sVdo6mz74
p22
I1
sVd88eyfm
p23
I1
sVdn6twyl
p24
I1
sVd2y1jk6
p25
I1
sVdo6tj8f
p26
I1
sVdiy4yik
p27
I1
sVdo68qck
p28
I1
sVdi4cgkb
p29
I1
sVdc3qmin
p30
I1
sVdoaa47o
p31
I1
sVd0xfpl5
p32
I1
s.