(dp0
Vd6260v8
p1
I1
sVdsdyt8w
p2
I1
sVd2q78pg
p3
I1
sVdetxnrx
p4
I1
sVczvba0q
p5
I1
sVczfr3ap
p6
I1
sVcyw69n5
p7
I1
sVdfqvfqt
p8
I1
sVdhpvnly
p9
I1
sVdq63w1o
p10
I1
sVd097y6f
p11
I1
sVdtbgo6k
p12
I1
sVczqibug
p13
I1
sVdbs8rx9
p14
I1
sVd07wios
p15
I1
sVd2vsb9c
p16
I1
sVdqgyvec
p17
I1
sVdbqnncj
p18
I1
sVdbrh3ze
p19
I1
sVd0pl9rc
p20
I1
sVd4orl0l
p21
I1
sVd3oey6x
p22
I1
sVdpp7q2p
p23
I1
sVd1fekdr
p24
I1
sVcypl21t
p25
I1
sVdhhh9fg
p26
I1
sVd6lw9xd
p27
I1
sVd18l0ln
p28
I1
sVd0nfxqm
p29
I1
sVd3bliro
p30
I1
sVdazzhtv
p31
I1
sVdq7gqne
p32
I1
sVd4jcl29
p33
I2
sVd3qt3kr
p34
I1
sVdd84cla
p35
I1
sVd0nt57h
p36
I1
sVcysfqt8
p37
I1
sVdndeh3u
p38
I1
sVdfjvere
p39
I1
sVd3ljk7f
p40
I1
sVd9vonso
p41
I1
sVczg7ptd
p42
I1
sVd1pp1w2
p43
I1
sVd3daaim
p44
I1
sVd02fjrm
p45
I4
sVdnravuz
p46
I1
sVd69otgc
p47
I1
sVd1b06u0
p48
I1
sVd1lxpg4
p49
I2
sVd2o3luj
p50
I1
sVdf2qvia
p51
I1
sVddy2isa
p52
I1
sVdhyqge3
p53
I1
sVczksa4i
p54
I1
sVd18pjmq
p55
I1
sVd4adz0h
p56
I1
sVd2z3kjp
p57
I1
sVdoxw9vv
p58
I1
sVcz892ey
p59
I1
sVdkkhbc4
p60
I1
sVcyw8sq3
p61
I1
sVd1qv736
p62
I1
sVdd5l9sn
p63
I1
sVdakrqog
p64
I2
sVd1sl8xl
p65
I1
sVd5rtuf9
p66
I1
sVdd5hk0j
p67
I1
sVdqszui1
p68
I1
sVdkh4wlu
p69
I1
sVd6m46c6
p70
I1
sVd35jx4o
p71
I1
sVdjxkq47
p72
I1
sVdgc4bdk
p73
I1
sVd0dvn56
p74
I1
sVd7xlmhn
p75
I1
sVdabxqmo
p76
I1
sVdkij7c4
p77
I1
sVdbk5c0o
p78
I1
sVd23t0bq
p79
I1
sVdmlz2p4
p80
I1
sVdfgkrf8
p81
I1
sVdcw2dno
p82
I1
sVda1mpn8
p83
I1
sVdri5fdt
p84
I1
sVdgwgt76
p85
I1
sVd9xq2xe
p86
I1
sVdk2yyww
p87
I1
sVd1uyorz
p88
I1
sVd766fm8
p89
I1
sVdaqslgh
p90
I1
sVda4g2bj
p91
I1
sVdkvw8n9
p92
I1
sVd3shmau
p93
I2
sVd44752l
p94
I1
sVd57n5fy
p95
I1
sVdfudcr9
p96
I1
sVdso2cyn
p97
I1
sVd04a3jk
p98
I1
sVcz0bjk6
p99
I1
sVd1lysed
p100
I1
sVdkjrkrw
p101
I1
sVdfwcj7i
p102
I1
sVd3863c9
p103
I1
sVd6nwqh8
p104
I1
sVdndqdyc
p105
I1
sVd5ug6ir
p106
I1
sVczu53n9
p107
I1
sVda1pvz2
p108
I1
sVdistsme
p109
I1
sVdr8e80n
p110
I1
sVdit8si0
p111
I1
sVdh09z05
p112
I2
sVczzpnjy
p113
I1
sVd6izptz
p114
I1
sVd1qjeq0
p115
I1
sVd8d247p
p116
I1
sVd0u7s13
p117
I1
sVdqtnerq
p118
I1
sVdcbmgok
p119
I1
sVd4cyl83
p120
I1
sVdsxfgco
p121
I1
sVda1yk4m
p122
I1
sVd49fq6u
p123
I1
sVdb9vk1e
p124
I1
sVdfljgto
p125
I1
sVdifocg9
p126
I1
sVd6mdhf7
p127
I1
sVdatlz0h
p128
I2
sVd2lbol2
p129
I1
sVdeuhlbk
p130
I1
sVd7vmlih
p131
I1
sVd1jzp1y
p132
I1
sVczxt4nc
p133
I1
sVdgr3rj7
p134
I1
sVdgs5dh1
p135
I1
sVd2n3k74
p136
I1
sVd6wodh4
p137
I1
sVd68m93l
p138
I1
sVdfosymr
p139
I1
sVcyx6fm4
p140
I1
sVdg8fytw
p141
I1
sVdex6moa
p142
I1
sVd28dce8
p143
I1
sVdaewjmv
p144
I1
sVcz2u4m2
p145
I1
sVddvk3n2
p146
I1
sVdh3wcut
p147
I1
sVd159nwt
p148
I1
sVdefnpi5
p149
I1
sVdhggpiv
p150
I1
sVdrv87xi
p151
I1
sVdgy9br1
p152
I1
sVd7j7xb4
p153
I1
sVdij4583
p154
I1
sVd0yb0v5
p155
I1
sVd45697s
p156
I1
sVdb9j2om
p157
I2
sVdrkurq5
p158
I2
sVd2otpq1
p159
I1
sVczzwory
p160
I1
sVd6dv3fi
p161
I1
sVd7qlgwc
p162
I1
sVdhkfzxu
p163
I1
sVcz9vlby
p164
I1
sVddmcu7i
p165
I1
sVdopabp8
p166
I1
sVd54dhtd
p167
I1
sVditlez6
p168
I5
sVd0so32s
p169
I1
sVdd5hcy4
p170
I1
sVcyk7wm1
p171
I1
sVd9yz12h
p172
I1
sVd04yszl
p173
I1
sVdb9nngj
p174
I2
sVdar2jtb
p175
I1
sVd5w02sp
p176
I1
sVdinhhtg
p177
I1
sVd1ul47s
p178
I1
sVd6acpl2
p179
I1
sVdc463aw
p180
I1
sVd0srxiu
p181
I1
sVd18kzvt
p182
I2
sVd3yu4fk
p183
I1
sVdevl0u2
p184
I2
sVcyva5xz
p185
I1
sVd7o6brw
p186
I1
sVdolb1hm
p187
I1
sVds81rxc
p188
I1
sVd43b0l8
p189
I1
sVd29zl97
p190
I1
sVd2bq47z
p191
I1
sVd7oy1uz
p192
I1
sVdgi6s5q
p193
I2
sVd0pvt1t
p194
I1
sVd2asvdm
p195
I1
sVd4c3rsm
p196
I2
sVczp70rt
p197
I1
sVd0noyfa
p198
I1
sVdidp564
p199
I1
sVd2t4fss
p200
I1
sVd5w5zen
p201
I1
sVd16jt6r
p202
I1
sVd75n7m6
p203
I1
sVdgefvz1
p204
I1
sVdadgyo0
p205
I1
sVd0p9dwm
p206
I1
sVd27uhvz
p207
I1
sVd25g75b
p208
I1
sVdfn26m2
p209
I1
sVd7sekny
p210
I1
sVdj03pe0
p211
I1
sVczlhlaq
p212
I1
sVdb42fuv
p213
I1
sVdacbg85
p214
I1
sVdjc0l4g
p215
I1
sVd34ziog
p216
I1
sVde5resn
p217
I1
sVd310w65
p218
I1
sVd7hkvl2
p219
I1
sVcytiuca
p220
I1
sVd97ra3k
p221
I1
sVdn9328j
p222
I1
sVd1l7w7w
p223
I1
sVd3n07ny
p224
I1
sVd1crn9x
p225
I1
sVdnsomes
p226
I1
sVdnsn3lg
p227
I1
sVdcds5jh
p228
I1
sVcyyhvo1
p229
I1
sVczcixsh
p230
I1
sVd6pp8az
p231
I2
sVcytlqfe
p232
I1
sVdt9qaj9
p233
I1
sVdop6cn3
p234
I1
sVd1e5fg5
p235
I2
sVd14yta9
p236
I1
sVdb5xmm3
p237
I1
sVdefls45
p238
I1
sVd098ay7
p239
I1
sVdtfmtb6
p240
I1
sVczmef19
p241
I1
sVda1vu0y
p242
I1
sVdh6l9br
p243
I1
sVdi3d83o
p244
I1
sVdjtfmvc
p245
I1
sVdd16ig2
p246
I1
sVdr079nk
p247
I1
sVdrweohf
p248
I1
sVdkqmgu6
p249
I1
sVdidrgam
p250
I1
sVdbfz64j
p251
I1
sVd24rvfr
p252
I2
sVcz6zwhy
p253
I1
sVdn45a0z
p254
I1
sVdojbeod
p255
I1
sVd6vejv8
p256
I2
sVdsqsvie
p257
I1
sVdepmuk4
p258
I1
sVd7g1lml
p259
I1
sVddpxe8a
p260
I1
sVdhuuo3f
p261
I1
sVd5vr07r
p262
I1
sVdh6i5hq
p263
I1
sVd0so48q
p264
I4
sVdn3pcxi
p265
I1
sVdr5pnaz
p266
I1
sVde8oeqs
p267
I1
sVdeyef7d
p268
I1
sVd1pamfl
p269
I1
sVdcsh18v
p270
I1
sVczpxjmp
p271
I1
sVdd6yagu
p272
I2
sVdex3h8x
p273
I1
sVd8zcpa7
p274
I1
sVd7suhro
p275
I1
sVdtd7u06
p276
I1
sVd2sqf5c
p277
I1
sVd28hzyk
p278
I1
sVd2gnwmu
p279
I2
sVd3ef1c2
p280
I1
sVda9l84h
p281
I1
sVd01r72t
p282
I1
sVdbv9ldo
p283
I1
sVd1r1ydl
p284
I1
sVd1ttzyj
p285
I1
sVcz4imp4
p286
I1
sVdfkc9a7
p287
I1
sVdnn9trd
p288
I1
sVdd5lo96
p289
I1
sVd1nplai
p290
I1
sVd7pm5io
p291
I3
sVd5i2uux
p292
I1
sVd4oas6n
p293
I1
sVd4owajd
p294
I1
sVdq1196u
p295
I1
sVdem9mf2
p296
I1
sVdadep5u
p297
I1
sVd3r5yjn
p298
I1
sVdor9m6a
p299
I1
sVd86axdc
p300
I1
sVczlj51c
p301
I1
sVdiffp6d
p302
I1
sVd39vg9r
p303
I1
sVd63pnxh
p304
I1
sVdje43n5
p305
I1
sVd2cu54m
p306
I1
sVdhjoa39
p307
I1
sVd2mwp7f
p308
I1
sVdo6mn90
p309
I1
sVdjcs4ut
p310
I1
sVdopygoy
p311
I1
sVd5ya4o8
p312
I1
sVdj6rsxb
p313
I1
sVdhtcp94
p314
I1
sVdep8fyo
p315
I1
sVd0e5pir
p316
I1
sVdp2mr5l
p317
I1
sVdf6c96e
p318
I1
sVd85vag1
p319
I1
sVd05lb8h
p320
I1
sVdif0hfe
p321
I1
sVdceqanx
p322
I1
sVd526dkt
p323
I1
sVdixb56m
p324
I1
sVcz7rro9
p325
I1
sVd4jqdef
p326
I1
sVdh1hrbt
p327
I1
sVd077v7a
p328
I1
sVdb7i3r4
p329
I1
sVdgq7wi9
p330
I1
sVd18cup5
p331
I1
sVdbz48k9
p332
I1
sVd0yiw91
p333
I2
sVd2ou2cr
p334
I1
sVdbnguca
p335
I1
sVd6m5ipv
p336
I1
sVd1q10cr
p337
I1
sVd0nuxa9
p338
I1
sVdj6ycy9
p339
I1
sVczswpt8
p340
I1
sVd3yyb08
p341
I1
sVd1229c1
p342
I1
sVdgkn7sv
p343
I1
sVcz801me
p344
I1
sVd9xurum
p345
I1
sVdik5b2w
p346
I1
sVd0y4aww
p347
I1
sVcyjockh
p348
I1
sVcyrlosq
p349
I1
sVdi31tp9
p350
I1
sVcykynfk
p351
I1
sVd5wzha1
p352
I1
sVdbnypp8
p353
I1
sVdcm8h7q
p354
I1
sVdnd9pzg
p355
I1
sVdd97tdh
p356
I1
sVd1j8mgn
p357
I1
sVdawa90m
p358
I1
sVd8opa20
p359
I1
sVdk2ye3e
p360
I1
sVd6yahwk
p361
I1
sVd6z2sh0
p362
I1
sVd7sgoev
p363
I1
sVdmv0ne9
p364
I3
sVd6qm6yd
p365
I1
sVd23gdcy
p366
I1
sVdh0fvln
p367
I1
sVdjm78r7
p368
I1
sVdrzy12f
p369
I1
sVdfoj00s
p370
I1
sVdb9xlxb
p371
I2
sVd05npnx
p372
I1
sVd95qjaz
p373
I1
sVd7eljah
p374
I1
sVdhsxjp1
p375
I2
sVdcxjkn9
p376
I1
sVd7p8bc8
p377
I1
sVde1o7ns
p378
I1
sVdsi1zdk
p379
I1
sVd3362k4
p380
I1
sVdkn7yx1
p381
I1
sVdemq8yv
p382
I1
sVdanhxue
p383
I1
sVde6nswh
p384
I2
sVdnn1ku3
p385
I1
sVddgn1j4
p386
I2
sVdktp41o
p387
I1
sVd5crsyz
p388
I1
sVdrtltc8
p389
I1
sVcyk85oe
p390
I1
sVdc8xngw
p391
I1
sVdd43pto
p392
I1
sVd6snuyu
p393
I1
sVda8hhoy
p394
I1
sVdalcdu2
p395
I1
sVdefndse
p396
I1
sVdk0cnpi
p397
I1
sVczpqsul
p398
I1
sVddcqns3
p399
I1
sVd412rnh
p400
I1
sVdp9qlqp
p401
I1
sVdho7ux1
p402
I1
sVdgsi4ad
p403
I1
sVd9f0n3b
p404
I1
sVcysx0m9
p405
I1
sVdbyuzkc
p406
I1
sVdb0to2m
p407
I1
sVdhymmoa
p408
I1
sVcyq8pvs
p409
I1
sVdhvf3hy
p410
I1
sVd5kkluz
p411
I1
sVda3zayq
p412
I1
sVdfkzmqu
p413
I1
sVcywvilf
p414
I1
sVd3zg1a3
p415
I1
sVd1j987m
p416
I2
sVdj3wm6c
p417
I1
sVczxoms1
p418
I1
sVd1t1bh4
p419
I2
sVdhc1md2
p420
I1
sVd9497yr
p421
I1
sVdpsvj5h
p422
I1
sVczvlfkt
p423
I1
sVd7odz7t
p424
I2
sVd6doyy5
p425
I1
sVd4hnrjk
p426
I1
sVd7bhoza
p427
I1
sVdbh8rvo
p428
I1
sVczpp168
p429
I1
sVdf4pka0
p430
I1
sVde9z9f0
p431
I1
sVdhrbm1y
p432
I1
sVd91cart
p433
I1
sVczflyv5
p434
I1
sVd3ov3xo
p435
I1
sVd90eves
p436
I1
sVdb8r7up
p437
I1
sVd1trjh2
p438
I1
sVdbo7p51
p439
I1
sVd2wxhpn
p440
I1
sVd1p6gsg
p441
I1
sVdiwge8j
p442
I1
sVd8wn83p
p443
I1
sVd1q6uf8
p444
I1
sVdn1j99m
p445
I1
sVdk9243e
p446
I1
sVczku12b
p447
I1
sVdqcbhho
p448
I1
sVdn7hpwj
p449
I1
sVcyu146a
p450
I1
sVd5rtcxw
p451
I1
sVd1xod4h
p452
I1
sVd4lnneo
p453
I1
sVd9qktw3
p454
I1
sVdfzziwb
p455
I1
sVczesipb
p456
I1
sVd9cttwl
p457
I1
sVcz6emu6
p458
I1
sVd6gb9lr
p459
I1
sVdd4w788
p460
I1
sVd3ifucg
p461
I3
sVd7zt2wo
p462
I1
sVd9jo5cx
p463
I1
sVcz4ivzp
p464
I1
sVdp22gov
p465
I1
sVd4oo5c0
p466
I1
sVczghx8z
p467
I1
sVdruwiht
p468
I1
sVd0qkczd
p469
I1
sVcz66egq
p470
I1
sVd4gczxr
p471
I1
sVddsc0aw
p472
I2
sVdk17dbj
p473
I1
sVd39g48p
p474
I1
sVdeh498b
p475
I1
sVd5209f8
p476
I1
sVd6gyhy5
p477
I1
sVdbjauol
p478
I1
sVd00xzfm
p479
I1
sVdcvqk6u
p480
I1
sVd5piay9
p481
I1
sVddq2ve9
p482
I1
sVcyxc7ww
p483
I1
sVd8co6g1
p484
I1
sVd6ebhrr
p485
I1
sVd0yuwd5
p486
I1
sVd180ocw
p487
I2
sVdc69ddn
p488
I1
sVd91v1j4
p489
I1
sVddm7ukc
p490
I1
sVdmex1lf
p491
I1
sVd0vg106
p492
I1
sVd3jny7q
p493
I1
sVdahz07p
p494
I1
sVd95y71w
p495
I1
sVd2zhhb9
p496
I1
sVdd294jr
p497
I1
sVdny5wbe
p498
I1
sVdkn85gu
p499
I1
sVdieuxzj
p500
I1
sVdb8y1ck
p501
I1
sVd03bdsd
p502
I2
sVdb25rys
p503
I1
sVd4l487o
p504
I1
sVd9re3f3
p505
I1
sVdmudto0
p506
I2
sVdbx014e
p507
I1
sVd22xcjr
p508
I1
sVd87bgd0
p509
I1
sVczpzwgi
p510
I1
sVdccpnt9
p511
I1
sVdq1zwmc
p512
I1
sVda179aq
p513
I1
sVdryeml3
p514
I1
sVd907vqb
p515
I1
sVddh8qlt
p516
I1
sVdje3rza
p517
I1
sVds50q23
p518
I1
sVd3adgod
p519
I1
sVd204nzf
p520
I1
sVd8e5w8z
p521
I1
sVd1jqwoe
p522
I1
sVcyl9fev
p523
I1
sVdpn4vmo
p524
I1
sVd1ec08s
p525
I1
sVdhkbgl4
p526
I1
sVd6ow0s0
p527
I1
sVd4kuwk6
p528
I1
sVd8cmo4g
p529
I1
sVd7s93lw
p530
I1
sVdmowqi1
p531
I1
sVd0423e0
p532
I1
sVdklvtdr
p533
I1
sVd2xvtu9
p534
I1
sVd8nikpf
p535
I1
sVczd7j7b
p536
I3
sVdc6an1v
p537
I1
sVd3hazko
p538
I1
sVdb3jfzm
p539
I1
sVdnm6ig6
p540
I1
sVd5u07c3
p541
I1
sVd0xg8on
p542
I1
sVd3bk9wj
p543
I1
sVdcw3phu
p544
I2
sVcys4zla
p545
I1
sVdfi93f4
p546
I2
sVdef3dc8
p547
I1
sVd7gbt9r
p548
I1
sVd9fkvpw
p549
I1
sVd9l1amd
p550
I1
sVd1iy0u6
p551
I1
sVdf5kni2
p552
I1
sVdfytckg
p553
I1
sVd1g6hnd
p554
I2
sVdavbeud
p555
I1
sVd43lq53
p556
I1
sVd06fmx3
p557
I1
sVczrfe1o
p558
I1
sVd2p2jwr
p559
I1
sVdbytfc7
p560
I1
sVd3z55mr
p561
I1
sVdjhvtfi
p562
I1
sVdnsmwic
p563
I2
sVd3mil8a
p564
I1
sVdizg8ii
p565
I1
sVdddcc5t
p566
I1
sVd6djlxu
p567
I1
sVdaybckw
p568
I1
sVdh9jar7
p569
I1
sVdda4jw0
p570
I1
sVd3vvd8p
p571
I1
sVdftirt6
p572
I1
sVdqfg9d7
p573
I1
sVdmuew6o
p574
I1
sVdooch6n
p575
I1
sVd5fhgjd
p576
I2
sVczh6cqy
p577
I1
sVd15ac8d
p578
I1
sVdd53rep
p579
I1
sVdscwi6e
p580
I1
sVdo9m1uy
p581
I1
sVd5lvglq
p582
I1
sVd8owsob
p583
I1
sVdgrrw4n
p584
I1
sVd1bdh4u
p585
I1
sVd8w8zud
p586
I1
sVd1rf6ct
p587
I1
sVcywlh83
p588
I1
sVd46n56h
p589
I1
sVda231aq
p590
I1
sVdb5cjow
p591
I1
sVd1xxs7p
p592
I1
sVd2p9vmz
p593
I3
sVcykc66p
p594
I1
sVdpwbvvf
p595
I1
sVd3m1s51
p596
I1
sVd3de8gp
p597
I1
sVd6bv61q
p598
I1
sVczc7phk
p599
I1
sVd9hao70
p600
I1
sVdejetyd
p601
I1
sVda3p039
p602
I1
sVdeiirc6
p603
I1
sVd4dpcxj
p604
I1
sVdj5v6jj
p605
I1
sVdaerbdw
p606
I1
sVdi63ffq
p607
I1
sVd3yjt0t
p608
I1
sVd4guhue
p609
I1
sVdry8h1f
p610
I1
sVczwm6df
p611
I1
sVd2q97w0
p612
I1
sVd2ctwc1
p613
I1
sVdtgeh9g
p614
I1
sVdrz55q6
p615
I1
sVd010t9j
p616
I1
sVdj8hkfn
p617
I1
sVd7e0j1u
p618
I1
sVdg4pkhe
p619
I3
sVdeqswd4
p620
I1
sVd25kfwx
p621
I1
sVd7numm7
p622
I1
sVd270632
p623
I1
sVd3y6h0p
p624
I1
sVcz7jgq0
p625
I1
sVdbriw6e
p626
I1
sVdt7fmuy
p627
I1
sVcz84vap
p628
I1
sVd0and0x
p629
I1
sVdir87i6
p630
I1
sVd2wxn6m
p631
I1
sVd96xqaw
p632
I1
sVcz8fmih
p633
I2
sVdgli7oa
p634
I1
sVd88malm
p635
I1
sVczxfqpl
p636
I1
sVdihh49a
p637
I1
sVd9d0qdm
p638
I1
sVd2b7cgz
p639
I1
sVd53nkrb
p640
I1
sVddefcqu
p641
I1
sVdq713lv
p642
I1
sVdh35utd
p643
I1
sVdj5xepg
p644
I1
sVddwklme
p645
I1
sVd22fjrj
p646
I1
sVd44sji5
p647
I2
sVddijgvh
p648
I1
sVd3j4eft
p649
I1
sVdea2b9t
p650
I1
sVdsxjxed
p651
I1
sVdmit483
p652
I1
sVdsmaitc
p653
I3
sVczgv1nx
p654
I1
sVdqxds6c
p655
I1
sVdklkcoz
p656
I1
sVdkx1unv
p657
I1
sVdiizxct
p658
I1
sVd4ary8f
p659
I1
sVd1uk6iw
p660
I1
sVd5hvvsn
p661
I1
sVd7hz47f
p662
I2
sVcynonz7
p663
I1
sVd2sp9vr
p664
I1
sVd0mf8o2
p665
I1
sVd1fjc2n
p666
I1
sVdntte01
p667
I1
sVdjbco95
p668
I2
sVdfmvobm
p669
I1
sVdkiz3j5
p670
I1
sVdq2fcil
p671
I1
sVd04iepd
p672
I1
sVdh3wh9d
p673
I1
sVcynmlw7
p674
I1
sVdfa2ud5
p675
I1
sVcytqihf
p676
I1
sVczxe2o4
p677
I1
sVdmnl27f
p678
I1
sVd3ul0ur
p679
I1
sVd10iib0
p680
I1
sVd1ubsqt
p681
I1
sVd70ogn0
p682
I1
sVda8bcdm
p683
I1
sVdcapn8z
p684
I1
sVdhei4yb
p685
I1
sVd4z6zin
p686
I1
sVdjz8xju
p687
I1
sVdp5dip7
p688
I1
sVd80nnvr
p689
I1
sVcytocx9
p690
I1
sVd3xq6af
p691
I1
sVczmvphw
p692
I1
sVd02wrfn
p693
I1
sVd02j64q
p694
I2
sVd7htqbh
p695
I1
sVd675ral
p696
I2
sVczxnkv3
p697
I1
sVdatlnki
p698
I1
sVcytk1l5
p699
I1
sVdfaeh81
p700
I1
sVd8adakr
p701
I1
sVdgv6hvm
p702
I1
sVd8xxbwm
p703
I1
sVdp86y71
p704
I1
sVdbneixz
p705
I1
sVd0vpnd8
p706
I1
sVdhvjszu
p707
I1
sVdeuywfn
p708
I1
sVdp222ig
p709
I1
sVdcmidpt
p710
I1
sVdk09kx7
p711
I1
sVd3yn2es
p712
I1
sVd1dlzqa
p713
I1
sVdabb6n5
p714
I1
sVdat3ivt
p715
I1
sVdbzjmgf
p716
I1
sVdqd2wvh
p717
I1
sVddsh8i3
p718
I1
sVd51p2fx
p719
I1
sVd0aq0vo
p720
I1
sVd6zj7ze
p721
I1
sVdhkhh8f
p722
I1
sVd92qymj
p723
I1
sVd1ccxs6
p724
I1
sVde8xih9
p725
I1
sVd5q3yj4
p726
I1
sVdixb5sj
p727
I1
sVd36kht2
p728
I1
sVdddx5t3
p729
I1
sVdhn2jic
p730
I1
sVd2dautb
p731
I1
sVdjvei2c
p732
I1
sVddj03h2
p733
I1
sVd3b7txk
p734
I1
sVdo4w39g
p735
I1
sVdrnirmr
p736
I1
sVdhfljj5
p737
I1
sVd3202e0
p738
I1
sVdajki4u
p739
I1
sVdmz7um5
p740
I1
sVdbwokjw
p741
I1
sVd8eq2bx
p742
I1
sVdii82v0
p743
I1
sVd0i99ew
p744
I2
sVdcbii8q
p745
I1
sVd1v79dx
p746
I1
sVcz83310
p747
I1
sVdjycc3s
p748
I1
sVd48cfo2
p749
I1
sVd1whcdn
p750
I1
sVdk7p354
p751
I1
sVderjmxv
p752
I1
sVdc6t4sl
p753
I1
sVd8cocex
p754
I1
sVd1lm4uj
p755
I1
sVdeysb6w
p756
I1
sVdip9ani
p757
I1
sVdhq1ofi
p758
I1
sVd8h7a6u
p759
I1
sVdhqaffj
p760
I1
sVddbg981
p761
I1
sVcyxc8h3
p762
I1
sVd7rk1fa
p763
I1
sVd69rx28
p764
I1
sVdbh6ff9
p765
I1
sVdnizy99
p766
I1
sVd9dj11h
p767
I1
sVdchb2eh
p768
I1
sVdgv38hr
p769
I1
sVd0ofimv
p770
I1
sVdj6b709
p771
I1
sVdh9wyiu
p772
I2
sVd22ixne
p773
I1
sVdb8xbz9
p774
I1
sVd0c2uis
p775
I1
sVdhvf138
p776
I1
sVddu8po2
p777
I1
sVdibvsgb
p778
I1
sVdba7m9h
p779
I2
sVdnp9wju
p780
I1
sVddej049
p781
I2
sVd1bhmd3
p782
I1
sVdjyygx7
p783
I1
sVcz4wkkj
p784
I1
sVd3wkykq
p785
I1
sVdrm6a56
p786
I1
sVd5wu82h
p787
I1
sVd0wos5b
p788
I1
sVd26tyrn
p789
I1
sVdncskuk
p790
I2
sVd12cfrn
p791
I1
sVd6j93st
p792
I1
sVdt7g4a5
p793
I1
sVczmgc9v
p794
I1
sVdg6ny7g
p795
I1
sVdb9la9m
p796
I3
sVd0qxq5x
p797
I1
sVdiwqszt
p798
I1
sVdcrvexr
p799
I1
sVdbn1l4c
p800
I1
sVdd03wh6
p801
I1
sVd6a1gur
p802
I1
sVdhn4ewy
p803
I1
sVd1bq3jd
p804
I1
sVczob3oc
p805
I1
sVd3h2x8o
p806
I1
sVd6z2luy
p807
I1
sVdd21mut
p808
I1
sVdh73iy5
p809
I1
sVdqvpq5q
p810
I1
sVd78jtfm
p811
I1
sVd7w30lo
p812
I2
sVd1gj3xu
p813
I2
sVd08m2lc
p814
I1
sVdgpnzac
p815
I1
sVd8brqs4
p816
I1
sVdepj3lg
p817
I1
sVd57x608
p818
I1
sVdg8x6l6
p819
I1
sVd0hmmyp
p820
I1
sVdkwuyfm
p821
I1
sVd5jnd06
p822
I1
sVd1u5s2l
p823
I1
sVd0quo8p
p824
I1
sVd1inlhf
p825
I1
sVdjz8g0x
p826
I1
sVczsr7t2
p827
I2
sVdekeghq
p828
I1
sVd6vt13o
p829
I1
sVdbulo9a
p830
I1
sVdqu1ene
p831
I1
sVd88mkn1
p832
I1
sVdnc6k2h
p833
I1
sVdek4nyg
p834
I1
sVdqdjh8z
p835
I1
sVd7ujfwl
p836
I1
sVd02olfi
p837
I1
sVd0nw5ad
p838
I1
sVdc31ezs
p839
I1
sVd0fbgsy
p840
I1
sVczzqrqn
p841
I1
sVddduyjp
p842
I1
sVd6tj62o
p843
I1
sVdbn9vxs
p844
I1
sVdrrvyly
p845
I2
sVd3e5jdz
p846
I1
sVd17yglw
p847
I1
sVd54wnpn
p848
I1
sVd07chim
p849
I1
sVdi5g2ky
p850
I1
sVd2gj83e
p851
I1
sVd95smr9
p852
I1
sVdjae2r8
p853
I1
sVdf6al0k
p854
I1
sVd07naf5
p855
I1
sVcykd2um
p856
I1
sVdfk1ipq
p857
I1
sVdbe8ve8
p858
I1
sVd52ycta
p859
I1
sVdhe4q2c
p860
I1
sVdn629cl
p861
I1
sVddcu47p
p862
I1
sVdg0wiq6
p863
I1
sVd0s1gu7
p864
I1
sVd47dbs0
p865
I1
sVdepl4t5
p866
I1
sVda0c9y9
p867
I1
sVd8fa1lw
p868
I1
sVd1oypkh
p869
I1
sVd0ku04i
p870
I1
sVdfyaflv
p871
I1
sVd0n5a7h
p872
I1
sVdg0zv9c
p873
I3
sVd3sf1e6
p874
I1
sVd6z8f5g
p875
I1
sVd2g1xbp
p876
I1
sVd87dvm1
p877
I1
sVd25epun
p878
I1
sVdikekaf
p879
I1
sVd3dv3jf
p880
I1
sVd13ixa3
p881
I1
sVdkinss0
p882
I1
sVd3mnho1
p883
I1
sVdnl2l9d
p884
I1
sVdc2u32x
p885
I1
sVdf0c5x6
p886
I1
sVd148y7q
p887
I1
sVd30p0rp
p888
I1
sVd1heqdx
p889
I1
sVd18q68e
p890
I1
sVdfvc4sz
p891
I1
sVd90z2sh
p892
I1
sVdk7c1ro
p893
I2
sVczhp3nr
p894
I1
sVczrltbl
p895
I1
sVdqe8grg
p896
I1
sVdeafh7p
p897
I1
sVdde054k
p898
I1
sVd80ihmi
p899
I1
sVdd6q2p4
p900
I1
sVd4szxo2
p901
I1
sVd5giwi7
p902
I2
sVdje6icy
p903
I1
sVd8zg1ah
p904
I1
sVd6u7mcm
p905
I1
sVdj0khot
p906
I1
sVd26d1n1
p907
I6
sVdodleah
p908
I1
sVdg94jyg
p909
I1
sVdknvomu
p910
I1
sVdrzi82u
p911
I1
sVdsprqla
p912
I1
sVde9eu2w
p913
I1
sVdami57t
p914
I1
sVdclx5yw
p915
I1
sVdgtercs
p916
I1
sVd64d8vy
p917
I1
sVd0h133m
p918
I1
sVdidklb7
p919
I1
sVd3mdwa6
p920
I3
sVdd9dku8
p921
I2
sVd2x82p1
p922
I1
sVdmsctm0
p923
I1
sVd6ptchg
p924
I1
sVcyixsjz
p925
I1
sVdig6i1m
p926
I1
sVdec4mzq
p927
I1
sVd9l6sxm
p928
I1
sVd52y6ho
p929
I1
sVdbmcxhf
p930
I1
sVdpa0bjf
p931
I1
sVdt0yml3
p932
I1
sVd1v7w4d
p933
I1
sVcyxytvy
p934
I1
sVdilu87o
p935
I1
sVd1veiry
p936
I1
sVdteijz1
p937
I3
sVdfolxaq
p938
I1
sVd0xsdug
p939
I1
sVdhjm0zu
p940
I1
sVcywf94r
p941
I1
sVdj5le4w
p942
I1
sVd3h65y0
p943
I1
sVdg5qx8z
p944
I1
sVd7la8c4
p945
I1
sVd0n3y2w
p946
I1
sVd7l74k8
p947
I1
sVcz4z76g
p948
I1
sVd2dsarp
p949
I1
sVd2gzmlu
p950
I1
sVdjcezzw
p951
I1
sVdcgcikd
p952
I1
sVde8iltf
p953
I1
sVd1w6tda
p954
I1
sVd09gnip
p955
I1
sVd19s7bf
p956
I1
sVd99jbx1
p957
I2
sVcz6m7nc
p958
I1
sVd01czgw
p959
I1
sVdcbdl5a
p960
I2
sVdp9k6n8
p961
I1
sVd5fnwqg
p962
I2
sVd0yd7hv
p963
I1
sVd5ivt8o
p964
I1
sVdftvrfp
p965
I1
sVd4o7iuh
p966
I1
sVdbgiosc
p967
I1
sVd0n005s
p968
I1
sVcykfs4r
p969
I1
sVcymdw26
p970
I1
sVcz6ptlg
p971
I1
sVd4ptsrr
p972
I2
sVd7sxgud
p973
I1
sVdjx5kgn
p974
I1
sVdb9v1d9
p975
I2
sVd9pciya
p976
I1
sVczlr5a5
p977
I2
sVdie427f
p978
I1
sVdiopomj
p979
I1
sVdj5audr
p980
I2
sVcz48q3k
p981
I1
sVdcso44a
p982
I1
sVda2xbuj
p983
I1
sVdilur5s
p984
I2
sVcz1xyxt
p985
I1
sVdhedes9
p986
I1
sVd3zsmj3
p987
I1
sVdnwonb7
p988
I1
sVd2vlcz1
p989
I1
sVdbdck10
p990
I1
sVdt1mn3i
p991
I1
sVdswwu1p
p992
I1
sVcyyv109
p993
I1
sVd3vwqtm
p994
I1
sVdbak74p
p995
I1
sVd7stiky
p996
I1
sVd0h8zjp
p997
I1
sVdffbzod
p998
I1
sVdn93gd8
p999
I1
sVdp4qxom
p1000
I1
sVddo5imq
p1001
I1
sVd1bwxea
p1002
I1
sVdelwhfh
p1003
I1
sVd9cog07
p1004
I1
sVddc7t80
p1005
I1
sVdesg0hx
p1006
I1
sVdsqc48w
p1007
I1
sVd1qziz6
p1008
I1
sVd9cr4rl
p1009
I1
sVdr9pl8n
p1010
I1
sVd120ai6
p1011
I1
sVd9ny499
p1012
I1
sVdgst1fc
p1013
I1
sVdkwrs32
p1014
I1
sVdcm2ukp
p1015
I2
sVdeikkaj
p1016
I1
sVdokso6f
p1017
I1
sVddjd1pp
p1018
I2
sVdfudaru
p1019
I2
sVdkf1k2g
p1020
I1
sVdqujle8
p1021
I1
sVd34im10
p1022
I1
sVd69ccq8
p1023
I1
sVcylh4cs
p1024
I1
sVda3mkeb
p1025
I2
sVdpw8e31
p1026
I2
sVd86wm09
p1027
I1
sVdi2hfpu
p1028
I1
sVdtcve3d
p1029
I1
sVd29m53t
p1030
I1
sVd3s892z
p1031
I1
sVd31bhh4
p1032
I1
sVd702axe
p1033
I1
sVdakysbs
p1034
I1
sVd3y3kh5
p1035
I1
sVdawqptp
p1036
I1
sVd0f5e3s
p1037
I1
sVdapbozn
p1038
I1
sVdkm57t8
p1039
I1
sVde4apyc
p1040
I1
sVdg3fyy2
p1041
I1
sVdcxdb82
p1042
I1
sVd0pv1ka
p1043
I1
sVdk0x93t
p1044
I1
sVd04exdl
p1045
I1
sVdhfwscy
p1046
I1
sVcymq8nk
p1047
I1
sVdi6kciy
p1048
I1
sVdgirf0f
p1049
I1
sVdhffylp
p1050
I1
sVd08ivjg
p1051
I1
sVd5w4udg
p1052
I1
sVdb0jzeg
p1053
I1
sVdelq8t4
p1054
I2
sVdrlpmjm
p1055
I1
sVdeo5hb2
p1056
I1
sVd6z7fub
p1057
I1
sVd7lseyu
p1058
I1
sVdgsfkdn
p1059
I1
sVdt20zd6
p1060
I1
sVdajpnmv
p1061
I1
sVd9g4yur
p1062
I1
sVdgultza
p1063
I1
sVd1rp2nf
p1064
I2
sVd55rfqk
p1065
I1
sVdoheadi
p1066
I1
sVdfmy422
p1067
I1
sVd95wtsx
p1068
I1
sVde6sczx
p1069
I1
sVd19um84
p1070
I1
sVdaxfchk
p1071
I1
sVdnn4jse
p1072
I1
sVdi5ins8
p1073
I2
sVdk3pzq4
p1074
I1
sVczmxjj2
p1075
I1
sVd6fpef7
p1076
I1
sVd658kqn
p1077
I1
sVdbqtip7
p1078
I1
sVd7udfvz
p1079
I1
sVczn9j0d
p1080
I1
sVd0me20p
p1081
I1
sVdhyr9bo
p1082
I1
sVd97lqus
p1083
I1
sVdmovdf1
p1084
I1
sVdqsv7rk
p1085
I1
sVdduhuv5
p1086
I1
sVdektxu7
p1087
I2
sVcyzt6ks
p1088
I1
sVddfo2ys
p1089
I1
sVd3hfimq
p1090
I1
sVd7hwxqd
p1091
I1
sVdhhku9r
p1092
I1
sVdi0hcwc
p1093
I1
sVdh5vze1
p1094
I1
sVdivd7vz
p1095
I1
sVd0fjyc2
p1096
I2
sVdkfliph
p1097
I1
sVd5s8gza
p1098
I1
sVdctpwf9
p1099
I2
sVdtb3vje
p1100
I1
sVdff2gd1
p1101
I2
sVdko0fb4
p1102
I1
sVd1cqcmz
p1103
I1
sVdi9yv3m
p1104
I1
sVds3flfd
p1105
I1
sVczwf0xq
p1106
I1
sVdofqqoe
p1107
I1
sVdh67asc
p1108
I1
sVcyl062q
p1109
I1
sVdrg4ezm
p1110
I1
sVd52xvft
p1111
I1
sVdaep1u5
p1112
I1
sVdh3n57i
p1113
I1
sVcz6cssv
p1114
I1
sVdg9ixr4
p1115
I1
sVdn4229s
p1116
I1
sVdrv72nb
p1117
I1
sVdag2dfu
p1118
I1
sVd65fzqk
p1119
I1
sVdmen0eh
p1120
I1
sVdpsgge0
p1121
I3
sVd3e7b2a
p1122
I1
sVd00q4yq
p1123
I1
sVd2nkxoh
p1124
I1
sVd81mad4
p1125
I1
sVdj4dikk
p1126
I1
sVd5q574t
p1127
I1
sVd4ob1na
p1128
I1
sVdpp9l65
p1129
I1
sVddshfhs
p1130
I1
sVdc8bl4n
p1131
I1
sVda31grl
p1132
I1
sVd7eiifa
p1133
I1
sVcyq860u
p1134
I1
sVd9rgi9u
p1135
I1
sVdf7k1lw
p1136
I1
sVdizl52d
p1137
I1
sVdcjv1qn
p1138
I1
sVd4b7ndp
p1139
I1
sVd4l0kxj
p1140
I1
sVde9x6jn
p1141
I1
sVd3hw61s
p1142
I1
sVd7ee4n8
p1143
I1
sVdcja52p
p1144
I1
sVdt5pot4
p1145
I1
sVd87m3pi
p1146
I1
sVdk348yg
p1147
I1
sVdcw0qa8
p1148
I2
sVdib45dd
p1149
I1
sVdcpek8o
p1150
I1
sVd6sasyw
p1151
I1
sVdhjtwza
p1152
I1
sVd3kespn
p1153
I1
sVdhzwm8q
p1154
I1
sVd9k2j14
p1155
I1
sVd7ksacl
p1156
I1
sVd2ikol8
p1157
I1
sVdc5lrft
p1158
I1
sVdheys3u
p1159
I1
sVdcx1nb5
p1160
I1
sVdqd7lhr
p1161
I1
sVdtjmbf4
p1162
I1
sVcz0vhpu
p1163
I1
sVde97t0g
p1164
I1
sVd05qpe1
p1165
I1
sVd6vbk7g
p1166
I1
sVdjof2s2
p1167
I1
sVd7kofg9
p1168
I2
sVdkalc5q
p1169
I1
sVczxp38c
p1170
I1
sVdjoufrx
p1171
I1
sVdj8vftb
p1172
I1
sVdeyivp4
p1173
I1
sVdmov58j
p1174
I4
sVdd36ves
p1175
I1
sVd76egwp
p1176
I1
sVd6ht7s1
p1177
I1
sVd7zfgkx
p1178
I2
sVd38nh54
p1179
I1
sVd3ffbc7
p1180
I1
sVdeipgck
p1181
I1
sVdf6bt7u
p1182
I1
sVd5nmz9q
p1183
I1
sVdqbceef
p1184
I1
sVd6mcilw
p1185
I1
sVd9z4okd
p1186
I1
sVd0hbfn0
p1187
I1
sVdhbx0uo
p1188
I1
sVd7edq3l
p1189
I1
sVd7l2kap
p1190
I1
sVd3g0qfc
p1191
I1
sVdhjogtp
p1192
I1
sVcza5huc
p1193
I2
sVd2mjape
p1194
I1
sVdjh040v
p1195
I1
sVdhhg12d
p1196
I1
sVdc98jiq
p1197
I1
sVd2aaidb
p1198
I1
sVdg6axbh
p1199
I1
sVcza1zxg
p1200
I1
sVdetlevh
p1201
I1
sVdhk8dd6
p1202
I1
sVdhylcb4
p1203
I1
sVdd9jet0
p1204
I1
sVddpjc5z
p1205
I1
sVdgt449s
p1206
I1
sVdflme0f
p1207
I1
sVdj4l5mv
p1208
I1
sVd8q7k6k
p1209
I1
sVdjq3kap
p1210
I1
sVdgj7sxd
p1211
I1
sVd8vlhdx
p1212
I1
sVdka54op
p1213
I1
sVdhb0o2f
p1214
I1
sVdcud3as
p1215
I1
sVdmgm92i
p1216
I1
sVdq6bsmo
p1217
I1
sVcyvsuri
p1218
I1
sVd1g47lv
p1219
I1
sVd83orbt
p1220
I1
sVd2mwvxc
p1221
I3
sVddys6ww
p1222
I1
sVd7j739u
p1223
I1
sVdbyboeq
p1224
I1
sVdk7rqfj
p1225
I2
sVde5j08p
p1226
I1
sVdrsaqvg
p1227
I1
sVd1ilhue
p1228
I1
sVcz9vdwi
p1229
I1
sVdp66374
p1230
I1
sVd38nvee
p1231
I1
sVdnuj8pl
p1232
I1
sVdry3qog
p1233
I1
sVd1l9w2b
p1234
I1
sVd4doy1m
p1235
I1
sVdkbft6a
p1236
I2
sVd3ys4gt
p1237
I1
sVdebjx95
p1238
I1
sVdf63m8x
p1239
I1
sVd0fxw3d
p1240
I1
sVdabvjoq
p1241
I1
sVde0q9di
p1242
I1
sVdc8z7na
p1243
I1
sVdjjqdc6
p1244
I1
sVdmnomud
p1245
I1
sVd205rkz
p1246
I1
sVd0as7xc
p1247
I1
sVd64beis
p1248
I1
sVdecw5qy
p1249
I1
sVd0ycwqv
p1250
I1
sVdgx1icw
p1251
I1
sVdbln9js
p1252
I1
sVdd5dwsh
p1253
I1
sVdbjah4n
p1254
I1
sVd3hapn3
p1255
I1
sVd9ruzc4
p1256
I1
sVddnyk3f
p1257
I1
sVdgp7jv2
p1258
I1
sVd445crq
p1259
I1
sVd4o7ud7
p1260
I1
sVcyxnp6k
p1261
I1
sVdj5zxjm
p1262
I1
sVdaqnrfc
p1263
I1
sVddpkfqm
p1264
I1
sVdk4gujt
p1265
I1
sVdpus8nm
p1266
I1
sVdcl9f20
p1267
I1
sVd0si3sl
p1268
I1
sVd038jgx
p1269
I1
sVdn5za9e
p1270
I1
sVdd6xxkb
p1271
I1
sVdoh5h0e
p1272
I1
sVd8jbk43
p1273
I1
sVdepfj8d
p1274
I1
sVdes05nr
p1275
I1
sVdiqdnvi
p1276
I1
sVd1j5443
p1277
I1
sVdhudk5k
p1278
I2
sVczky2o5
p1279
I1
sVdd9n4d9
p1280
I1
sVdby85d2
p1281
I1
sVd1ciz12
p1282
I1
sVdtjhxjb
p1283
I1
sVd60putl
p1284
I1
sVdg4nany
p1285
I1
sVdkdwj44
p1286
I1
sVd7rdc3r
p1287
I1
sVdc1pj0h
p1288
I1
sVd5ogipk
p1289
I1
sVdqibf2w
p1290
I1
sVczrsw8j
p1291
I1
sVdabl86i
p1292
I1
sVdr0ufdv
p1293
I1
sVdemb29n
p1294
I1
sVd18y8zb
p1295
I1
sVd6dg9e4
p1296
I1
sVd82pc4s
p1297
I1
sVd75hiif
p1298
I1
sVdguw6hv
p1299
I1
sVdsn4r0p
p1300
I1
sVdsnkbfa
p1301
I1
sVcz8fjg1
p1302
I1
sVd8kv6l5
p1303
I1
sVd4cszxa
p1304
I1
sVd8gs8ao
p1305
I1
sVd06dyqy
p1306
I1
sVd1fa0ur
p1307
I2
sVdcr7lmu
p1308
I1
sVdh0a9a8
p1309
I1
sVd7ka2va
p1310
I1
sVczn1647
p1311
I1
sVdhpuest
p1312
I1
sVdfxwvmd
p1313
I1
sVd8bdg54
p1314
I1
sVcz09coa
p1315
I1
sVdqwaqi0
p1316
I1
sVdgyhnxf
p1317
I1
sVdgkkio2
p1318
I1
sVcz1fqqo
p1319
I1
sVd7lbd8e
p1320
I1
sVdkqgy3h
p1321
I1
sVd45m5ih
p1322
I1
sVcymr5aa
p1323
I1
sVdqj1mcs
p1324
I1
sVdo5uafr
p1325
I1
sVdachoso
p1326
I1
sVdi6anjb
p1327
I2
sVdpai0c7
p1328
I1
sVdf1fi4s
p1329
I1
sVde06ytv
p1330
I1
sVd2xja9q
p1331
I2
sVcynvq7c
p1332
I1
sVdquimp6
p1333
I3
sVd8hkymj
p1334
I1
sVddc1g5o
p1335
I1
sVda48yr8
p1336
I1
sVcz06e0t
p1337
I1
sVd8yy5wd
p1338
I1
sVdsn7pw5
p1339
I1
sVd423s2g
p1340
I1
sVcyi1n0l
p1341
I1
sVdkydx9h
p1342
I1
sVczu344y
p1343
I1
sVd5j4x9c
p1344
I1
sVd3r47us
p1345
I1
sVd360hm0
p1346
I1
sVd67fhkp
p1347
I1
sVd49rmt7
p1348
I1
sVczx66bc
p1349
I1
sVdoj5t6v
p1350
I1
sVd7wl8oj
p1351
I2
sVdda5flx
p1352
I1
sVdfufyex
p1353
I1
sVddt84di
p1354
I1
sVdpmgbis
p1355
I1
sVcyx0695
p1356
I1
sVczvwh9i
p1357
I1
sVde4oaw1
p1358
I1
sVd3dsfvb
p1359
I1
sVd1fg2pz
p1360
I1
sVd5h390d
p1361
I1
sVddwhuk5
p1362
I1
sVd47ejcj
p1363
I1
sVdivl300
p1364
I1
sVdi8yp2d
p1365
I1
sVd2g85g6
p1366
I1
sVdfc7ydn
p1367
I1
sVd3n229a
p1368
I1
sVdfeiz15
p1369
I1
sVd1wgtnn
p1370
I1
sVdca2pl9
p1371
I1
sVd5hft0g
p1372
I1
sVd97jc7l
p1373
I3
sVd20wrvw
p1374
I1
sVddc6y4w
p1375
I1
sVdpdnvy9
p1376
I1
sVd3h67yc
p1377
I1
sVd8qz1zj
p1378
I2
sVd1ohchr
p1379
I1
sVdbaplof
p1380
I1
sVdn4frx2
p1381
I1
sVd4qm9bl
p1382
I2
sVdcps56s
p1383
I1
sVd4mou5q
p1384
I1
sVdeegwur
p1385
I1
sVda1qwxi
p1386
I3
sVcyuo52s
p1387
I1
sVd1xeqm0
p1388
I1
sVd2el0y4
p1389
I1
sVdbzvv16
p1390
I1
sVdq2aek9
p1391
I1
sVddrsvk8
p1392
I1
sVdi4gjd8
p1393
I1
sVdkrdkuu
p1394
I1
sVd7f0bkk
p1395
I1
sVd42419i
p1396
I1
sVcys6hzm
p1397
I1
sVda51ypi
p1398
I1
sVd4wlro6
p1399
I1
sVd16r903
p1400
I1
sVd9dm4gs
p1401
I1
sVd3l0rmv
p1402
I3
sVd8gwyml
p1403
I2
sVdgdqhci
p1404
I1
sVdaukvce
p1405
I1
sVdbnpha6
p1406
I1
sVde30g8p
p1407
I1
sVdflk9ml
p1408
I1
sVd7y2389
p1409
I1
sVd4y0hgc
p1410
I1
sVd538tp8
p1411
I1
sVd0g4d89
p1412
I1
sVd563ss8
p1413
I1
sVd3skytq
p1414
I1
sVddpxai3
p1415
I1
sVcyx6sly
p1416
I1
sVddpwr31
p1417
I1
sVd6zhx9x
p1418
I1
sVd3g5uy9
p1419
I1
sVcz1xl51
p1420
I1
sVcyplu53
p1421
I1
sVdbtxjqv
p1422
I1
sVcz56kqe
p1423
I2
sVd200kas
p1424
I1
sVd8ny6gs
p1425
I1
sVcyrlubw
p1426
I1
sVcz3kmic
p1427
I1
sVdf0s9ac
p1428
I1
sVczgiu51
p1429
I1
sVde5fcmg
p1430
I1
sVczsj2fh
p1431
I1
sVddw48c0
p1432
I1
sVd7rizv5
p1433
I1
sVdhfie27
p1434
I1
sVd04uhac
p1435
I1
sVdmndafq
p1436
I2
sVdb9ze2t
p1437
I1
sVdcce6vv
p1438
I1
sVdcswrxn
p1439
I1
sVd0hf7sp
p1440
I1
sVd2o3phs
p1441
I1
sVd5zfe1u
p1442
I1
sVdt5nqow
p1443
I1
sVd0f6hvt
p1444
I1
sVd2aeim0
p1445
I1
sVd5l306u
p1446
I2
sVdcanahs
p1447
I1
sVdooj0yp
p1448
I1
sVdomjbzt
p1449
I1
sVd7p458n
p1450
I1
sVdba1qa3
p1451
I1
sVd7m178k
p1452
I1
sVdjqy228
p1453
I1
sVdjq3kqw
p1454
I1
sVd0hry50
p1455
I1
sVdb10mb0
p1456
I1
sVdg1b8bl
p1457
I1
sVdetqeju
p1458
I1
sVdn39kdw
p1459
I1
sVcyt755e
p1460
I1
sVd3c06s4
p1461
I1
sVd92pwhk
p1462
I1
sVcyr7c7i
p1463
I1
sVd5eh2t0
p1464
I1
sVdhz2cvu
p1465
I1
sVdj3tz96
p1466
I1
sVdsprvfe
p1467
I1
sVdfpzlfz
p1468
I1
sVd28xr6b
p1469
I1
sVcz8di4s
p1470
I1
sVd7q9dw1
p1471
I1
sVdpc9zpe
p1472
I1
sVd8etb90
p1473
I1
sVd98tzzq
p1474
I1
sVdmx1e3u
p1475
I1
sVd60pt76
p1476
I1
sVdcritfv
p1477
I1
sVd9n2bj1
p1478
I1
sVdi7o82v
p1479
I1
sVdkb3zh1
p1480
I1
sVd523djz
p1481
I2
sVdeegstp
p1482
I1
sVddbus77
p1483
I1
sVd8wosv7
p1484
I1
sVdppt59f
p1485
I1
sVd4h4xs6
p1486
I1
sVdqrl9la
p1487
I1
sVdn9m3no
p1488
I1
sVdgjvwzl
p1489
I1
sVdhpfwrn
p1490
I1
sVczizjrs
p1491
I2
sVd6tsdcj
p1492
I1
sVd3zate4
p1493
I1
sVdg391cg
p1494
I1
sVdenyleb
p1495
I1
sVd68uvc2
p1496
I1
sVd5su28c
p1497
I1
sVdfm5g0e
p1498
I1
sVdisdad4
p1499
I1
sVdaarw1l
p1500
I1
sVd9c2eh9
p1501
I1
sVd03fom7
p1502
I1
sVdbpaolg
p1503
I1
sVdixnfdk
p1504
I1
sVdnvx5hh
p1505
I1
sVdgkfkt6
p1506
I1
sVdenmzgg
p1507
I2
sVczzozz2
p1508
I1
sVddvhtz7
p1509
I1
sVd36034m
p1510
I1
sVd3wedbk
p1511
I1
sVdnlkff0
p1512
I1
sVdklnvl0
p1513
I1
sVczmq1qy
p1514
I1
sVd7w3m6o
p1515
I2
sVdjpwbic
p1516
I1
sVdhu8hlc
p1517
I1
sVd07nlug
p1518
I1
sVd73tmim
p1519
I1
sVd1pft31
p1520
I1
sVdaoflk1
p1521
I1
sVdad59r6
p1522
I1
sVdsi1u7z
p1523
I1
sVdepnsap
p1524
I1
sVdf5hu7u
p1525
I1
sVd1tqkhm
p1526
I1
sVd5gpa5o
p1527
I1
sVd029o3c
p1528
I1
sVcyx5ha8
p1529
I1
sVd431ha0
p1530
I1
sVdbfryq9
p1531
I1
sVdahvfy8
p1532
I1
sVd54hwya
p1533
I1
sVd19m66u
p1534
I1
sVd10fjsw
p1535
I1
sVd67epv2
p1536
I1
sVd7pc1xt
p1537
I1
sVd017snm
p1538
I1
sVdinj4cq
p1539
I1
sVdbafped
p1540
I1
sVdoek91u
p1541
I2
sVd664kpd
p1542
I1
sVd4b74e7
p1543
I1
sVd6n5agy
p1544
I1
sVdp8ck36
p1545
I2
sVcz3z2cg
p1546
I1
sVd91tdou
p1547
I1
sVd7usbqm
p1548
I1
sVdcxjtrn
p1549
I1
sVdslhrwf
p1550
I1
sVdcw16yl
p1551
I1
sVdbvvq7u
p1552
I1
sVdetisw1
p1553
I1
sVd217zcl
p1554
I1
sVd1owxn5
p1555
I1
sVdhx03aw
p1556
I1
sVd7e9lkg
p1557
I1
sVdguq4mw
p1558
I3
sVd2rl385
p1559
I1
sVdi1mhoo
p1560
I1
sVdcvum41
p1561
I1
sVdex0zp0
p1562
I1
sVdih96jp
p1563
I1
sVdbh2lb4
p1564
I1
sVdnm1mam
p1565
I1
sVdbdd3fx
p1566
I1
sVdip788g
p1567
I1
sVdd3xkek
p1568
I1
sVcyuogwd
p1569
I1
sVdi0vi04
p1570
I1
sVd147bca
p1571
I1
sVdh2hm9u
p1572
I1
sVd1qddgt
p1573
I1
sVd8pliln
p1574
I1
sVd5nr1y1
p1575
I1
sVd9qlr3d
p1576
I1
sVdazn75z
p1577
I1
sVdejfg58
p1578
I1
sVdeqx2vo
p1579
I1
sVd1q3z45
p1580
I1
sVdbks070
p1581
I1
sVdkcjtvg
p1582
I1
sVd1l4ljy
p1583
I1
sVddtplhh
p1584
I1
sVddcm4u4
p1585
I1
sVdd96gii
p1586
I1
sVdds7ipd
p1587
I1
sVdaw96mj
p1588
I1
sVdf5chgt
p1589
I1
sVd125cev
p1590
I1
sVd10kkrx
p1591
I1
sVdfo3lre
p1592
I1
sVdjn7gdc
p1593
I1
sVdeunpgn
p1594
I1
sVdexsrl2
p1595
I1
sVd4ewl4y
p1596
I1
sVdf21qkd
p1597
I1
sVd0tvw83
p1598
I1
sVd2fmt2b
p1599
I1
sVd2tl8zf
p1600
I1
sVdc8bkdz
p1601
I1
sVd78o93j
p1602
I1
sVdiwwgfu
p1603
I1
sVd5nwn5a
p1604
I1
sVdnq8pu1
p1605
I1
sVdeg1n4h
p1606
I1
sVcynwc67
p1607
I1
s.