(dp0
Vcyo58vb
p1
I1
s.(dp0
Vcyt8agh
p1
I1
sVcyo58vb
p2
I1
s.(dp0
Vcyv0tmr
p1
I1
sVcyo58vb
p2
I1
s.(dp0
Vcyxofgg
p1
I1
sVcyo58vb
p2
I1
s.(dp0
Vcz892ey
p1
I1
sVcyo58vb
p2
I1
s.(dp0
Vczehoqx
p1
I1
sVcyo58vb
p2
I1
s.(dp0
Vczfhn8i
p1
I1
sVcyo58vb
p2
I1
s.(dp0
Vczfl3h4
p1
I1
sVcyo58vb
p2
I1
s.(dp0
Vczfl3h4
p1
I1
sVcyo58vb
p2
I1
s.(dp0
Vczirst8
p1
I1
sVcyo58vb
p2
I1
s.(dp0
Vczj950l
p1
I1
sVcyo58vb
p2
I1
s.(dp0
Vczjbvt7
p1
I1
sVcyo58vb
p2
I1
s.(dp0
Vczjpjy1
p1
I1
sVcyo58vb
p2
I1
s.(dp0
Vczjpjy1
p1
I1
sVcyo58vb
p2
I1
s.(dp0
Vczjpjy1
p1
I1
sVcyo58vb
p2
I1
s.(dp0
Vczjqf02
p1
I1
sVcyo58vb
p2
I1
s.(dp0
Vczju6iy
p1
I1
sVcyo58vb
p2
I1
s.(dp0
Vczjur2k
p1
I1
sVcyo58vb
p2
I1
s.(dp0
Vczjut2s
p1
I1
sVcyo58vb
p2
I1
s.(dp0
Vczjut2s
p1
I1
sVcyo58vb
p2
I1
s.(dp0
Vczjut2s
p1
I1
sVcyo58vb
p2
I1
s.(dp0
Vczknw26
p1
I1
sVcyo58vb
p2
I1
s.(dp0
Vczoyxlo
p1
I1
sVcyo58vb
p2
I1
s.(dp0
Vd00pxi2
p1
I1
sVcyo58vb
p2
I1
s.(dp0
Vd00pxi2
p1
I1
sVcyo58vb
p2
I1
s.(dp0
Vd00pxi2
p1
I1
sVcyo58vb
p2
I1
s.(dp0
Vd05bh89
p1
I1
sVcyo58vb
p2
I1
s.(dp0
Vd0bn77m
p1
I1
sVcyo58vb
p2
I1
s.(dp0
Vd0pmmmd
p1
I1
sVcyo58vb
p2
I1
s.(dp0
Vd0w60lv
p1
I1
sVcyo58vb
p2
I1
s.(dp0
Vd1897we
p1
I1
sVcyo58vb
p2
I1
s.(dp0
Vd18s94g
p1
I1
sVcyo58vb
p2
I1
s.(dp0
Vd18s94g
p1
I1
sVcyo58vb
p2
I1
s.(dp0
Vd18s94g
p1
I1
sVcyo58vb
p2
I1
s.(dp0
Vd1akqy0
p1
I1
sVcyo58vb
p2
I1
s.(dp0
Vd1anzxx
p1
I1
sVcyo58vb
p2
I1
s.(dp0
Vd1b5622
p1
I1
sVcyo58vb
p2
I1
s.(dp0
Vd1d9m8y
p1
I1
sVcyo58vb
p2
I1
s.(dp0
Vd1ho4i8
p1
I1
sVcyo58vb
p2
I1
s.(dp0
Vd1mls79
p1
I1
sVcyo58vb
p2
I1
s.(dp0
Vd1uzhjc
p1
I1
sVcyo58vb
p2
I1
s.(dp0
Vd1uzhjc
p1
I1
sVcyo58vb
p2
I1
s.(dp0
Vd1uzhjc
p1
I1
sVcyo58vb
p2
I1
s.(dp0
Vd1uzhjc
p1
I1
sVcyo58vb
p2
I1
s.(dp0
Vd1w02ao
p1
I1
sVcyo58vb
p2
I1
s.(dp0
Vd2i8qvc
p1
I1
sVcyo58vb
p2
I1
s.(dp0
Vd2i8qvc
p1
I1
sVcyo58vb
p2
I1
s.(dp0
Vd2i8qvc
p1
I1
sVcyo58vb
p2
I1
s.(dp0
Vd2j88lc
p1
I1
sVcyo58vb
p2
I1
s.(dp0
Vd2kxvov
p1
I1
sVcyo58vb
p2
I1
s.(dp0
Vd2kxvov
p1
I1
sVcyo58vb
p2
I1
s.(dp0
Vd2kxvov
p1
I1
sVcyo58vb
p2
I1
s.(dp0
Vd2kxvov
p1
I1
sVcyo58vb
p2
I1
s.(dp0
Vd2ui126
p1
I1
sVcyo58vb
p2
I1
s.(dp0
Vd308zrs
p1
I1
sVcyo58vb
p2
I1
s.(dp0
Vd331opp
p1
I1
sVcyo58vb
p2
I1
s.(dp0
Vd3362td
p1
I1
sVcyo58vb
p2
I1
s.(dp0
Vd3gmhy3
p1
I1
sVcyo58vb
p2
I1
s.(dp0
Vd3hapn3
p1
I1
sVcyo58vb
p2
I1
s.(dp0
Vd3hapn3
p1
I1
sVcyo58vb
p2
I1
s.(dp0
Vd3hapn3
p1
I1
sVcyo58vb
p2
I1
s.(dp0
Vd3hapn3
p1
I1
sVcyo58vb
p2
I1
s.(dp0
Vd3hfimq
p1
I1
sVcyo58vb
p2
I1
s.(dp0
Vd3hfimq
p1
I1
sVcyo58vb
p2
I1
s.(dp0
Vd3hfimq
p1
I1
sVcyo58vb
p2
I1
s.(dp0
Vd3hfimq
p1
I1
sVcyo58vb
p2
I1
s.(dp0
Vd3hfimq
p1
I1
sVcyo58vb
p2
I1
s.(dp0
Vd3huc33
p1
I1
sVcyo58vb
p2
I1
s.(dp0
Vd3hvxzb
p1
I1
sVcyo58vb
p2
I1
s.(dp0
Vd3hvxzb
p1
I1
sVcyo58vb
p2
I1
s.(dp0
Vd3otizf
p1
I1
sVcyo58vb
p2
I1
s.(dp0
Vd3otizf
p1
I1
sVcyo58vb
p2
I1
s.(dp0
Vd3otizf
p1
I1
sVcyo58vb
p2
I1
s.(dp0
Vd3sfm2h
p1
I1
sVcyo58vb
p2
I1
s.(dp0
Vd40zww5
p1
I1
sVcyo58vb
p2
I1
s.(dp0
Vd434jdt
p1
I1
sVcyo58vb
p2
I1
s.(dp0
Vd45iavq
p1
I1
sVcyo58vb
p2
I1
s.(dp0
Vd45lvk7
p1
I1
sVcyo58vb
p2
I1
s.(dp0
Vd45r8de
p1
I1
sVcyo58vb
p2
I1
s.(dp0
Vd48uegk
p1
I1
sVcyo58vb
p2
I1
s.(dp0
Vd4r873m
p1
I1
sVcyo58vb
p2
I1
s.(dp0
Vd4snrj5
p1
I1
sVcyo58vb
p2
I1
s.(dp0
Vd4sypuz
p1
I1
sVcyo58vb
p2
I1
s.(dp0
Vd5821e7
p1
I1
sVcyo58vb
p2
I1
s.(dp0
Vd5b7ufx
p1
I1
sVcyo58vb
p2
I1
s.(dp0
Vd5b9968
p1
I1
sVcyo58vb
p2
I1
s.(dp0
Vd5b9968
p1
I1
sVcyo58vb
p2
I1
s.(dp0
Vd5gx0mz
p1
I1
sVcyo58vb
p2
I1
s.(dp0
Vd5hyehs
p1
I1
sVcyo58vb
p2
I1
s.(dp0
Vd5hyehs
p1
I1
sVcyo58vb
p2
I1
s.(dp0
Vd5jpnt1
p1
I1
sVcyo58vb
p2
I1
s.(dp0
Vd5wdo9y
p1
I1
sVcyo58vb
p2
I1
s.(dp0
Vd60ikcq
p1
I1
sVcyo58vb
p2
I1
s.(dp0
Vd6sbgsj
p1
I1
sVcyo58vb
p2
I1
s.(dp0
Vd6tkwgs
p1
I1
sVcyo58vb
p2
I1
s.(dp0
Vd74mp8b
p1
I1
sVcyo58vb
p2
I1
s.(dp0
Vd79xaz5
p1
I1
sVcyo58vb
p2
I1
s.(dp0
Vd7b56xq
p1
I1
sVcyo58vb
p2
I1
s.(dp0
Vd7b56xq
p1
I1
sVcyo58vb
p2
I1
s.(dp0
Vd7c8h4w
p1
I1
sVcyo58vb
p2
I1
s.(dp0
Vd7ilvkr
p1
I1
sVcyo58vb
p2
I1
s.(dp0
Vd7z7rvw
p1
I1
sVcyo58vb
p2
I1
s.(dp0
Vd7zfvz5
p1
I1
sVcyo58vb
p2
I1
s.(dp0
Vd807ums
p1
I1
sVcyo58vb
p2
I1
s.(dp0
Vd8223zw
p1
I1
sVcyo58vb
p2
I1
s.(dp0
Vd86ims4
p1
I1
sVcyo58vb
p2
I1
s.(dp0
Vd86ims4
p1
I1
sVcyo58vb
p2
I1
s.(dp0
Vd8eckhf
p1
I1
sVcyo58vb
p2
I1
s.(dp0
Vd8(dp0
Vdtf8enb
p1
I1
sVcyo58vb
p2
I1
s.