(dp0
Vdd38q6o
p1
I1
sVd1grgad
p2
I1
sVd67phzf
p3
I1
sVdkdid6f
p4
I1
sVdh0db90
p5
I1
sVdssmapx
p6
I1
sVdbgzc9u
p7
I1
sVd76otex
p8
I3
sVdihegha
p9
I1
sVdaxjuw7
p10
I1
sVd2enl66
p11
I3
sVdonqb1q
p12
I1
sVdd9qg70
p13
I1
sVd712vo4
p14
I1
sVdpp2p3b
p15
I1
sVd9ba1tc
p16
I1
sVdk9yr1y
p17
I3
sVdjkfjt9
p18
I2
sVdhregeh
p19
I1
sVd07onzt
p20
I1
sVdjk56ld
p21
I1
sVd74q5wu
p22
I1
sVdeyezvk
p23
I1
sVdgd2zoy
p24
I1
sVd2ohvdx
p25
I1
sVdhnr25p
p26
I1
sVdr921jh
p27
I1
sVd1grizw
p28
I1
sVddrwqac
p29
I1
sVcymrota
p30
I1
s.