(dp0
Vdifw6yv
p1
I1
sVd2ac0u2
p2
I1
sVdggi8op
p3
I1
sVdayljqy
p4
I1
sVdbgi4gw
p5
I2
sVdqrdmem
p6
I1
sVdsmiebb
p7
I1
sVd1j9xf9
p8
I1
sVd5vrucq
p9
I1
sVd08zgv7
p10
I2
sVdne602g
p11
I1
sVd6sxoz3
p12
I2
sVds3p3rs
p13
I1
sVd7ynlvo
p14
I1
sVdg87xoc
p15
I1
sVddbz0y1
p16
I1
sVd0wn5gp
p17
I1
sVdji0zie
p18
I1
sVd6b3wpp
p19
I1
sVd6oyi24
p20
I2
sVdjq9aq0
p21
I1
sVdsxl79f
p22
I1
sVd4qzg60
p23
I1
sVd0rj1l8
p24
I1
sVd3b81e1
p25
I1
sVd7sm3ec
p26
I1
sVdrrll20
p27
I1
sVdesfzdy
p28
I1
sVd4u0z8k
p29
I1
sVda900un
p30
I1
sVdn4pkyg
p31
I3
sVdcrme62
p32
I1
sVdac5xfb
p33
I1
sVd6xhqbs
p34
I1
sVdjukdfi
p35
I3
sVdgwapbc
p36
I1
sVd4mqnmh
p37
I1
sVd4f0x3i
p38
I1
sVd1xrqq8
p39
I1
sVczd5hag
p40
I1
sVdndkklk
p41
I1
sVd6b4xip
p42
I2
sVdpq8wtd
p43
I1
sVdb7k1qv
p44
I1
sVdea5xpj
p45
I1
sVd5fwlic
p46
I1
sVdes6u5q
p47
I1
sVdh4yvg2
p48
I1
sVd2g85tb
p49
I1
sVdbp3cpq
p50
I1
sVdcb20p1
p51
I1
sVdbpii6o
p52
I1
sVd9bfwhr
p53
I1
sVdmioxzr
p54
I2
sVd4d0nqh
p55
I1
sVd4yvvr7
p56
I1
sVd6gy4lu
p57
I1
sVcysbmco
p58
I1
sVdgk9qo0
p59
I1
sVdes6ws4
p60
I1
sVdq9ij85
p61
I1
sVd0avcce
p62
I1
sVd1n1zqd
p63
I1
sVd2dze18
p64
I1
sVd1x5f0o
p65
I2
sVdf57h1m
p66
I4
sVd349mtp
p67
I1
sVddxafg6
p68
I1
sVdafz4vl
p69
I1
sVdih9nl6
p70
I1
sVdrd3t5z
p71
I2
sVd92hq8m
p72
I1
sVczbfmm7
p73
I1
sVdgm2hwm
p74
I1
sVdt9g6h1
p75
I2
sVddi146r
p76
I1
sVdi53b2i
p77
I1
sVdrcexon
p78
I2
sVd6hir7b
p79
I1
sVdfrm0am
p80
I2
sVd3b5aqv
p81
I1
s.