(dp0
Vdsusdxf
p1
I1
sVdateuhc
p2
I1
sVcz57gsu
p3
I1
sVdd3si05
p4
I1
sVd70ypii
p5
I1
sVdf348x9
p6
I1
sVd2h68fl
p7
I1
sVd0i99e4
p8
I1
sVdppu2u7
p9
I1
sVdj1oi8l
p10
I1
sVd4khffj
p11
I1
sVdfhg7k5
p12
I1
sVde9w34f
p13
I1
sVddunxu4
p14
I1
sVdpt1aen
p15
I1
sVdt3vz0a
p16
I1
sVdgl6eb3
p17
I1
sVdsxj84a
p18
I1
sVczynb5y
p19
I1
sVcz9rvqo
p20
I1
sVdjw5lx9
p21
I1
sVd8nj3k8
p22
I1
sVd8cg39k
p23
I1
sVdrukr5s
p24
I1
sVczco2qm
p25
I1
sVdifsaum
p26
I1
sVdsazpzh
p27
I1
sVdjc2new
p28
I1
sVdsr34nq
p29
I1
sVddndvuw
p30
I1
sVdrln4i2
p31
I1
sVdh0uhaf
p32
I1
sVdreboug
p33
I1
sVcz3wbb1
p34
I1
sVdsuoq9f
p35
I1
sVd5em93m
p36
I1
sVddv6j1f
p37
I1
sVdpo12g5
p38
I1
sVdhv2kxo
p39
I1
sVdjohoz6
p40
I1
sVd3nlzws
p41
I1
sVd8r0sxn
p42
I1
sVd07qh5t
p43
I1
sVdteib3h
p44
I1
sVdbbukd5
p45
I1
sVdams3k6
p46
I1
sVdrufld7
p47
I1
sVdi0hyrz
p48
I1
sVdqqsrcw
p49
I1
sVdjhzafs
p50
I1
sVd3dea7l
p51
I1
sVczq4l2r
p52
I1
sVdipc1oc
p53
I1
sVdhqc7av
p54
I1
sVd6vtsqx
p55
I1
sVd6e6kul
p56
I1
sVddt5u5k
p57
I1
sVd0f8wor
p58
I1
sVd2in6l0
p59
I1
sVd3q70wo
p60
I1
sVcz4q6bi
p61
I1
sVddfpucv
p62
I1
sVddiudp0
p63
I1
sVcz0v4k3
p64
I1
sVdsd52zn
p65
I1
sVcynczo5
p66
I1
sVdf1uzak
p67
I1
sVdp6ciay
p68
I1
sVd6j64o6
p69
I1
sVd1rlz5p
p70
I1
sVdflhjf8
p71
I1
sVd6qg45h
p72
I1
sVd4b8jej
p73
I1
sVczv9c8x
p74
I1
sVddcyhqw
p75
I1
sVdj886lg
p76
I1
sVdkf6qr1
p77
I1
sVdkfts7h
p78
I1
sVdf2gbi0
p79
I1
sVdqcl2gp
p80
I1
sVd1ru64f
p81
I1
sVd9rizmy
p82
I1
sVdbzqfw4
p83
I1
sVdid1nbr
p84
I1
sVd8qwydo
p85
I1
sVdesfrvl
p86
I1
sVdck393u
p87
I1
sVdots58y
p88
I1
sVdai9nl5
p89
I1
sVdcc2nbz
p90
I1
sVd604wvj
p91
I1
sVddv5v5j
p92
I1
sVdj6n3vn
p93
I1
sVcyqmdj2
p94
I1
sVd6cmi33
p95
I1
sVd3qfh9d
p96
I1
sVd5yem7d
p97
I1
sVd9xw4lm
p98
I1
sVcyj6szo
p99
I1
sVdbsx0lm
p100
I1
sVdqcshwz
p101
I1
sVdgo9azm
p102
I1
sVdt776mr
p103
I1
sVdbd93kf
p104
I1
sVdqhvykl
p105
I1
sVdjpwuxr
p106
I1
sVdaanl2e
p107
I1
sVcz7jaon
p108
I1
sVd9mheq3
p109
I1
sVdbxbdah
p110
I1
sVdj5cbrd
p111
I1
sVd69e936
p112
I1
sVd05oi5i
p113
I1
sVdh8rj4b
p114
I1
sVdr8otqo
p115
I1
sVddyn776
p116
I1
sVdsitil1
p117
I1
sVd1hiji5
p118
I1
sVdikz4zz
p119
I1
sVdqclj5a
p120
I1
sVd9x3x3y
p121
I1
sVdh7ws94
p122
I1
sVcz3wss8
p123
I1
s.