(dp0
Vdmir68i
p1
I1
sVdffkzq9
p2
I2
sVd4j2833
p3
I3
sVczbv2kn
p4
I2
sVd9aoptx
p5
I1
sVd3ge9ky
p6
I1
sVdjn0r51
p7
I1
sVd2p363e
p8
I1
sVd06brkr
p9
I5
sVdrxf40j
p10
I1
sVda6gww5
p11
I1
sVdfwtipu
p12
I1
sVdctfckg
p13
I1
sVdahg9b8
p14
I1
sVd334vnl
p15
I1
sVd3jnlu7
p16
I1
sVddk2c33
p17
I1
sVd6tt9h5
p18
I1
sVdgpoy7u
p19
I1
sVd6tunbq
p20
I1
sVdipw3jl
p21
I1
sVdcbkttd
p22
I3
sVczvwt9w
p23
I1
sVd0kjsyo
p24
I2
sVd3a7cwc
p25
I1
s.