(dp0
Vd90ly92
p1
I1
sVdj56it9
p2
I1
sVds9wkcc
p3
I1
sVd0v2gar
p4
I1
sVdfv5tgz
p5
I1
sVdaxt1c9
p6
I1
sVdml77mh
p7
I1
sVczgxo0v
p8
I1
sVcypqsuj
p9
I1
sVdh5wasv
p10
I1
sVd1pb1fp
p11
I1
sVdadpoiu
p12
I1
sVdh62usi
p13
I1
s.