(dp0
Vdr1fq0s
p1
I1
sVcyix8ru
p2
I1
sVcym9xum
p3
I1
sVcyzhe7d
p4
I1
sVczidtye
p5
I3
sVdgjmuxm
p6
I1
sVdoi2p3i
p7
I2
sVcymsesq
p8
I3
sVcylkhr1
p9
I1
sVdhcjv2s
p10
I1
sVczz1m7z
p11
I1
sVd6mb3mw
p12
I3
sVdiu85yp
p13
I4
sVcyx55zk
p14
I1
sVczeozdz
p15
I1
sVcysxllj
p16
I5
sVcyj4ekn
p17
I1
sVd2uzcfc
p18
I1
sVdjqnsku
p19
I1
sVdp5kbww
p20
I1
sVd3t1al5
p21
I2
sVczzbk1n
p22
I1
sVczibwfm
p23
I1
sVdh5z0ut
p24
I2
sVd19hsm9
p25
I1
sVd4j1596
p26
I1
sVczi5g3h
p27
I1
sVd890bxg
p28
I1
sVcz0qpzg
p29
I12
sVcytwq0t
p30
I1
sVdcez1ei
p31
I1
sVdbp9y1u
p32
I1
sVdehqzts
p33
I1
sVdjd6mu6
p34
I1
sVd1nyh7d
p35
I1
sVd2iq598
p36
I1
sVde1bbj1
p37
I5
sVdc0t8s4
p38
I1
sVd1gr843
p39
I2
sVd3pfn08
p40
I1
sVdag1j2q
p41
I6
sVdazqvih
p42
I1
sVczn9ysz
p43
I1
sVd17qhj4
p44
I7
sVdqgaaro
p45
I2
sVddcfca6
p46
I1
sVdni1s4j
p47
I1
sVdk2oq41
p48
I1
sVd8qb79b
p49
I6
sVd68u0hz
p50
I1
sVcyp7e91
p51
I2
sVdhp4dc5
p52
I6
sVdrz1vht
p53
I1
sVcyv66ag
p54
I1
sVczmazs4
p55
I4
sVd2u9ina
p56
I1
sVdac3chf
p57
I1
sVd3rfggy
p58
I5
sVds0jwss
p59
I1
sVdhrtop7
p60
I1
sVd6cf546
p61
I1
sVd2gv233
p62
I2
sVdd090nl
p63
I1
sVd7j72pa
p64
I1
sVd17uel6
p65
I3
sVcz3hh6c
p66
I1
sVcyt01ox
p67
I4
sVdaq0li2
p68
I3
sVd0zygmc
p69
I2
sVcz1hu7g
p70
I1
sVdhwt1d7
p71
I1
sVd1kffte
p72
I1
sVddafmr3
p73
I1
sVd1qqo0u
p74
I1
sVdnrc6ke
p75
I1
sVdeqehj2
p76
I2
sVdprzp80
p77
I1
sVdbju91r
p78
I2
sVdmiwm4x
p79
I1
sVdicvl72
p80
I1
sVczi65q4
p81
I1
sVdeaxhuf
p82
I1
sVczrfy3c
p83
I1
sVczve2qm
p84
I1
sVdpfqujf
p85
I1
sVdjszdol
p86
I2
sVdaq1gjx
p87
I1
sVd1pg14r
p88
I1
sVdozirsd
p89
I1
sVd40rta5
p90
I1
sVdbzg0kk
p91
I1
sVd8407md
p92
I1
sVd69bj50
p93
I1
sVd1zbcnj
p94
I1
sVdf8e27o
p95
I1
sVdt7cyj7
p96
I2
sVd9ctea7
p97
I1
sVd49tinh
p98
I1
sVdi96lbr
p99
I2
sVdda3kgh
p100
I1
sVdba4snx
p101
I2
sVdjpttpl
p102
I1
sVd6sk1z3
p103
I3
sVd0aaej1
p104
I2
sVdd7ty7b
p105
I1
sVcyju54w
p106
I1
sVdcmgdff
p107
I1
sVczyxn5m
p108
I2
sVdbkwj1c
p109
I1
sVdcygdnw
p110
I1
sVdbqfun4
p111
I4
sVdatzgfi
p112
I3
sVdo9owpf
p113
I1
sVd090xc5
p114
I1
sVdimo1im
p115
I1
sVda9kdmo
p116
I4
sVdhnkp7c
p117
I1
sVd2mkcty
p118
I1
sVde74xdd
p119
I3
sVczxrjmi
p120
I1
sVcym92k3
p121
I2
sVczxlbez
p122
I3
sVczsco3c
p123
I1
sVdho3lj8
p124
I1
sVd4xjfw9
p125
I2
sVdcxlmyj
p126
I2
sVddwcic1
p127
I1
sVdnb1lwg
p128
I1
sVdcm4ptf
p129
I1
sVd3uuwuz
p130
I1
sVd7b4i9g
p131
I5
sVczjru85
p132
I2
sVdqo6al0
p133
I1
sVdfjg5le
p134
I2
sVd0dyq7x
p135
I2
sVd1vrvqv
p136
I3
sVd42mbdd
p137
I1
sVd2wv8h3
p138
I3
sVcyvtpds
p139
I4
sVd1fua5m
p140
I1
sVdddmjm6
p141
I1
sVd841gpv
p142
I1
sVdf64dd5
p143
I1
sVdgrvvip
p144
I1
sVd1hh4gw
p145
I1
sVd7j0izb
p146
I1
sVdjtzyck
p147
I2
sVcyp5odn
p148
I7
sVdjc9p4k
p149
I1
sVd3xd7sh
p150
I1
sVd5do8tp
p151
I2
sVdfkkqet
p152
I1
sVd1o5xq3
p153
I1
sVdf1us1f
p154
I1
sVddwyk90
p155
I1
sVdhj32nu
p156
I1
sVdajtbns
p157
I4
sVdrauw6t
p158
I1
sVcyz43be
p159
I1
sVd81z0en
p160
I1
sVd31bmx2
p161
I1
sVd5aao0i
p162
I5
sVd11l3me
p163
I2
sVd2a5qag
p164
I1
sVd2h0y6d
p165
I2
sVd5h7n2f
p166
I1
sVdau6upg
p167
I4
sVdai1jvj
p168
I1
sVdnae9il
p169
I1
sVd8kl2ah
p170
I2
sVdmotccb
p171
I1
sVdiiq3ce
p172
I1
sVdb3tz3s
p173
I4
sVdgbej53
p174
I1
sVcyo3kpu
p175
I1
sVd06tu2z
p176
I2
sVdaugn6i
p177
I1
sVdanaayu
p178
I1
sVd8sgdz4
p179
I1
sVdhx6uqe
p180
I1
sVd9qurz8
p181
I1
sVd6z8sx4
p182
I1
sVd3oqyet
p183
I2
sVdcmn4g3
p184
I1
sVd7syanb
p185
I1
sVd2sl4xk
p186
I2
sVdgmr8qi
p187
I1
sVdatoyh9
p188
I1
sVd2yt79z
p189
I1
sVczyhy3l
p190
I2
sVdeqyynx
p191
I1
sVd94pts2
p192
I1
sVd4s86pj
p193
I1
sVdb7ok59
p194
I1
sVdnti0lh
p195
I1
sVdj1lxpj
p196
I1
sVd9g920k
p197
I1
sVd3s1hci
p198
I1
sVd4zsktv
p199
I1
sVd4g2916
p200
I4
sVdeuqnte
p201
I1
sVd6fnjke
p202
I4
sVdjmvn9g
p203
I3
sVdaty3kq
p204
I5
sVdbk3ht7
p205
I1
sVcz3jpur
p206
I2
sVdisc3bw
p207
I1
sVdfyzzi0
p208
I1
sVdgp7op9
p209
I1
sVdmse868
p210
I1
sVdak0pg4
p211
I3
sVdauxypi
p212
I1
sVdkx62of
p213
I1
sVd1ewfkm
p214
I1
sVdcwo5jq
p215
I1
sVd338me4
p216
I1
sVd308fxk
p217
I2
sVd1e5pac
p218
I1
sVd83ljpz
p219
I1
sVczqvxl7
p220
I1
sVczxy8nh
p221
I1
sVdky4i1s
p222
I2
sVczktypc
p223
I5
sVczxxvr4
p224
I2
sVd0pdimz
p225
I2
sVdbqhosr
p226
I1
sVd16loo6
p227
I1
sVdd3i590
p228
I1
sVddsr52s
p229
I1
sVd7mrmqt
p230
I4
sVdqiwsod
p231
I1
sVdbnv7vo
p232
I2
sVdqa09ul
p233
I1
sVd0zr0dv
p234
I1
sVdnjzjh9
p235
I1
sVd6cecxk
p236
I1
sVcz028xh
p237
I7
sVd8th5u4
p238
I3
sVd4xusej
p239
I8
sVd5ubu8k
p240
I1
sVd7ulysy
p241
I1
sVdb6ocg2
p242
I2
sVdclr5f7
p243
I3
sVd4y9fhj
p244
I1
sVd26j9aa
p245
I1
sVcyz3pnu
p246
I1
sVd8mqrva
p247
I2
sVcyiku16
p248
I2
sVd9t5guu
p249
I1
sVdo4xk8h
p250
I1
sVd2gtpw8
p251
I1
sVdov4wwr
p252
I1
sVcyz9t6i
p253
I2
sVcz5lrhr
p254
I1
sVczu6fs6
p255
I5
sVd37pwys
p256
I1
sVdihh2d1
p257
I1
sVd44vvxz
p258
I3
sVdq1e4kf
p259
I1
sVdr0ay1d
p260
I1
sVds9uwg1
p261
I6
sVd1nz0s9
p262
I1
sVd0bb49y
p263
I1
sVcznael6
p264
I1
sVds0my7w
p265
I1
sVd4o6xv7
p266
I1
sVdfdtvxq
p267
I1
sVd1e3y2v
p268
I2
sVdfoaz76
p269
I2
sVdfhe1ib
p270
I1
sVdece7ud
p271
I1
sVd1ovbta
p272
I1
sVd9rrdvo
p273
I3
sVdcnxbmd
p274
I2
sVd4sq53q
p275
I2
sVddqxqms
p276
I1
sVd83td3v
p277
I2
sVd2go2bk
p278
I1
sVds69uvm
p279
I2
sVd8jdo1c
p280
I2
sVd5gvmdc
p281
I2
sVdpt96qo
p282
I2
sVdb3lxht
p283
I3
sVcys1wsm
p284
I1
sVd87dt0e
p285
I1
sVd54c5h9
p286
I2
sVd84jfb9
p287
I4
sVdbhnptn
p288
I1
sVd9sj8to
p289
I1
sVd3mkq4o
p290
I1
sVdarxttz
p291
I2
sVdj8ib64
p292
I1
sVd1tpt5a
p293
I1
sVd2bkvms
p294
I1
sVdhebg9u
p295
I1
sVd5krvzo
p296
I5
sVddye5ft
p297
I1
sVdhg5un6
p298
I2
sVdaunyug
p299
I1
sVczmi27c
p300
I3
sVd3r1ykv
p301
I1
sVdaurnrc
p302
I8
sVd365uwz
p303
I1
sVdgom8kl
p304
I3
sVdkx8fpz
p305
I1
sVd0p2roa
p306
I1
sVdrgbjc6
p307
I3
sVd0sw9wp
p308
I1
sVczxdl9z
p309
I1
sVd0op0j1
p310
I1
sVd6es9a7
p311
I1
sVdccvnuh
p312
I1
sVdikdpfv
p313
I3
sVda3sikw
p314
I1
sVcyxj9ud
p315
I1
sVd5vxyiu
p316
I1
sVddbxlcj
p317
I1
sVcymw43s
p318
I1
sVdsqgduk
p319
I1
sVd1guk62
p320
I3
sVdc4af4o
p321
I1
sVd0evncz
p322
I1
sVd9ydxvq
p323
I1
sVdfg1ppy
p324
I1
sVd9baif4
p325
I1
sVd6iapeb
p326
I4
sVdq1car7
p327
I1
sVczxr6pp
p328
I1
sVdblxt1f
p329
I1
sVcyj2m8p
p330
I1
sVdcdr1nd
p331
I1
sVczx71hp
p332
I4
sVd7vwdq9
p333
I1
sVdnqy2lb
p334
I1
sVd8jfojo
p335
I1
sVdazrhok
p336
I1
sVd35fine
p337
I2
sVczh3ntq
p338
I1
sVcywh2f3
p339
I1
sVdbnaxp3
p340
I1
sVd2y541b
p341
I1
sVd1sjb6m
p342
I1
sVd83j73c
p343
I4
sVd7faqdc
p344
I2
sVdepl2o5
p345
I1
sVdblp746
p346
I1
sVd6fdoy8
p347
I4
sVdj0tkye
p348
I1
sVdoe7pzm
p349
I1
sVd9pu3hf
p350
I1
sVdh6ovaz
p351
I1
sVd1to166
p352
I1
sVdkts8hy
p353
I1
sVd0n9n0e
p354
I8
sVdipq56z
p355
I1
sVd8exu7i
p356
I3
sVcz10zkx
p357
I2
sVdn1k9dj
p358
I1
sVdcccrly
p359
I1
sVczjl1s0
p360
I1
sVdn15gfd
p361
I2
sVdchstk8
p362
I1
sVdegf0tu
p363
I1
sVd83r5m9
p364
I12
sVcyijt8r
p365
I1
sVd6kafka
p366
I1
sVd1h7q5j
p367
I1
sVd1pcbpq
p368
I1
sVczymvwl
p369
I1
sVdjbj7a0
p370
I1
sVde5h20i
p371
I1
sVd3pkmpm
p372
I1
sVd3lfwwx
p373
I2
sVd7a61x7
p374
I1
sVd19uegb
p375
I1
sVdikvh38
p376
I4
sVdcg7qkw
p377
I2
sVd2kcko5
p378
I1
sVd5y6a7c
p379
I1
sVdcwnl1l
p380
I3
sVdeu7mnr
p381
I1
sVdfwuk5e
p382
I2
sVd16pt9v
p383
I1
sVdau34z0
p384
I2
sVdr286qy
p385
I1
sVdcf5x2w
p386
I1
sVd3r96sl
p387
I4
sVd1iizw3
p388
I1
sVdbn7tos
p389
I1
sVd0zstyt
p390
I2
sVdivoavu
p391
I1
sVdiqegkk
p392
I1
sVdcygc8i
p393
I3
sVddylhaf
p394
I1
sVdiiouy6
p395
I2
sVd1grn7y
p396
I1
sVd6578yf
p397
I1
sVdaxn8dg
p398
I6
sVdhoxk9c
p399
I1
sVdknf84w
p400
I1
sVddcq9d5
p401
I2
sVdbbot74
p402
I1
sVdf0r3u9
p403
I1
sVdmfklmi
p404
I1
sVcyn09k7
p405
I1
sVdd7mh10
p406
I3
sVdmvvf95
p407
I1
sVczi3zgn
p408
I2
sVd0na3z1
p409
I1
sVdjtug1j
p410
I1
sVczrv7n5
p411
I2
sVdezyauq
p412
I4
sVdi521kj
p413
I1
sVddmu3dl
p414
I1
sVdcgipfo
p415
I1
sVdgvj11d
p416
I1
sVdde0bsk
p417
I1
sVd4pluko
p418
I1
sVdhmdahn
p419
I1
sVdea0g1b
p420
I1
sVdo3bky6
p421
I1
sVd4u82kk
p422
I1
sVdq5d3ny
p423
I1
sVdnejflv
p424
I2
sVdawf97z
p425
I3
sVczdgmvd
p426
I1
sVdgm4ovv
p427
I1
sVd53zhmy
p428
I2
sVdi4y549
p429
I1
sVd7hyfzs
p430
I1
sVd669zh5
p431
I2
sVdevji3d
p432
I1
sVdaq9zww
p433
I9
sVd0wc34i
p434
I1
sVczthbhp
p435
I1
sVd8yty73
p436
I5
sVdawdlwi
p437
I1
sVdauagc5
p438
I7
sVd4ro0hk
p439
I2
sVcytsoyj
p440
I4
sVd19d3zp
p441
I3
sVdn7c6yn
p442
I1
sVdfs078f
p443
I1
sVd38b3iv
p444
I2
sVdbqhqfr
p445
I2
sVdarnglf
p446
I2
sVdcl4inz
p447
I6
sVd07fjb5
p448
I2
sVcymtowr
p449
I1
sVddrrk9d
p450
I1
sVd4h2gji
p451
I1
sVd8bsi4i
p452
I2
sVd46b4ck
p453
I1
sVd5tg154
p454
I1
sVd5pthc7
p455
I1
sVdho15l6
p456
I1
sVdau54nz
p457
I1
sVczce5q7
p458
I1
sVdc86g68
p459
I1
sVdnhcqmd
p460
I1
sVd1gpiur
p461
I1
sVdqrz5e0
p462
I2
sVdc3a9zj
p463
I2
sVda2itnn
p464
I1
sVd2ktsif
p465
I1
sVczt5qjk
p466
I1
sVdgobmh0
p467
I1
sVdauhoe1
p468
I6
sVdeyevfy
p469
I2
sVd02lqhc
p470
I1
sVd1bxu1u
p471
I5
sVd2q167k
p472
I4
sVdau8d0a
p473
I1
sVd8stw5o
p474
I2
sVd7lcizd
p475
I2
sVdcl38x2
p476
I1
sVd45vjxy
p477
I1
sVd90q32j
p478
I1
sVcypy1hj
p479
I1
sVd3u2bm1
p480
I1
sVdfzrqg6
p481
I1
sVd8p8x9x
p482
I1
sVd44cizp
p483
I1
sVdfa2a1k
p484
I1
sVdggi7nj
p485
I1
sVczuy846
p486
I1
sVczzcqrx
p487
I1
sVdqto3j9
p488
I1
sVdonapg5
p489
I1
sVd08es1i
p490
I3
sVddp2xzl
p491
I2
sVdjiu734
p492
I5
sVdid02av
p493
I2
sVczzcojq
p494
I1
sVd84uuxr
p495
I1
sVda4nzh8
p496
I1
sVd4tlx5i
p497
I1
sVda160fw
p498
I1
sVdt6bzae
p499
I1
sVd9yqtoe
p500
I1
sVds6dqf8
p501
I5
sVdn6zzl2
p502
I1
sVd0ougc8
p503
I1
sVd4xgd8i
p504
I1
sVd4adzue
p505
I2
sVd5v3ouv
p506
I1
sVd73e4jy
p507
I1
sVddbyarm
p508
I1
sVdawkvw6
p509
I1
sVd17vdws
p510
I1
sVd6a6asp
p511
I1
sVddwqbpq
p512
I1
sVd8oemdi
p513
I1
sVcyz9kfw
p514
I1
sVd023e9k
p515
I3
sVd5njno6
p516
I1
sVczv9i2v
p517
I1
sVd1halt2
p518
I1
sVdo78o8d
p519
I3
sVdfwvcy7
p520
I1
sVdaaz9rm
p521
I1
sVdi8o0mp
p522
I2
sVdt7dqzd
p523
I2
sVcyquqtd
p524
I2
sVdmuo92y
p525
I1
sVdknub6d
p526
I1
sVdh0vsgm
p527
I1
sVd1r12mi
p528
I1
sVd4jm6xb
p529
I2
sVdb0s2tn
p530
I1
sVdihqygq
p531
I3
sVd1hku9t
p532
I3
sVddcrs13
p533
I3
sVd954nhe
p534
I1
sVcz9s3at
p535
I3
sVd2f3uvu
p536
I1
sVdau3qc8
p537
I6
sVdau7y9t
p538
I2
sVdi51emq
p539
I1
sVczp5dzm
p540
I1
sVd4mj21k
p541
I1
sVd6wfvzc
p542
I1
sVd5b3gqb
p543
I2
sVd7rr0rv
p544
I1
sVddojexa
p545
I1
sVd5urkqx
p546
I1
sVczomelq
p547
I2
sVdadhxv9
p548
I1
sVdcqswih
p549
I2
sVd0nqotq
p550
I1
sVd1hbq8d
p551
I3
sVdrlusk8
p552
I1
sVczi16dm
p553
I1
sVdf0vrv6
p554
I1
sVdix6b9o
p555
I1
sVde5x31x
p556
I1
sVd2qc4rc
p557
I2
sVd30mo6a
p558
I1
sVd36wh1z
p559
I3
sVdekyab1
p560
I3
sVdgmedl4
p561
I2
sVd6989f9
p562
I3
sVcz8s300
p563
I4
sVd53403e
p564
I1
sVdov4uke
p565
I2
sVdb3ctpy
p566
I3
sVdnsdqxj
p567
I6
sVdclo3y9
p568
I2
sVdkyta3m
p569
I1
sVcytk1l5
p570
I1
sVdaq3hzq
p571
I5
sVdby0vdt
p572
I1
sVdetsm75
p573
I1
sVd0org9v
p574
I1
sVd94orge
p575
I1
sVdcxj7na
p576
I2
sVdbd8skb
p577
I1
sVdcet1jb
p578
I1
sVdb5gaiw
p579
I2
sVd7hectw
p580
I1
sVdc8xurs
p581
I1
sVdg7q27n
p582
I1
sVd0tez7y
p583
I1
sVd29gy7j
p584
I1
sVdbwhjo1
p585
I1
sVddyo7jw
p586
I2
sVd17o78h
p587
I1
sVdjdrt2r
p588
I1
sVdk7a9ru
p589
I1
sVdatxrqr
p590
I8
sVd6ozlxn
p591
I1
sVd4jtass
p592
I5
sVd11l9gu
p593
I4
sVd7vch00
p594
I1
sVddfpbwn
p595
I1
sVd7fy2n2
p596
I1
sVdjp9g7e
p597
I7
sVd8l5b3u
p598
I7
sVddp1x3t
p599
I1
sVdau039z
p600
I1
sVdnhs8de
p601
I2
sVd1kuzh0
p602
I1
sVdnlme1k
p603
I1
sVdcu81sr
p604
I2
sVdglzzxs
p605
I2
sVdg8y5ep
p606
I1
sVdfwzm2x
p607
I1
sVcynmqml
p608
I1
sVdd3p869
p609
I1
sVd89t83c
p610
I1
sVd83rmmn
p611
I1
sVd3c0erh
p612
I1
sVdf6elte
p613
I5
sVd8fyktf
p614
I3
sVdj3qn49
p615
I2
sVd34p0gy
p616
I1
sVczr69fw
p617
I1
sVd5ciuo7
p618
I2
sVd126zsn
p619
I1
sVd0fomsi
p620
I1
sVd47diu0
p621
I3
sVd4e3lkf
p622
I1
sVd264b40
p623
I1
sVdr037hj
p624
I3
sVdbc8842
p625
I1
sVd6d9y62
p626
I4
sVd4xeobw
p627
I1
sVd3sqxn1
p628
I1
sVdk04rtz
p629
I5
sVdi8y766
p630
I1
sVdr1lclj
p631
I1
sVcyv0ye2
p632
I1
sVddwnf3c
p633
I1
sVdkccnsl
p634
I1
sVd2qdauc
p635
I1
sVdbpa6f9
p636
I1
sVd85rc7y
p637
I2
sVdcgu1kp
p638
I1
sVds1evhw
p639
I1
sVd0qrx27
p640
I1
sVd091ak3
p641
I1
sVdjit1nx
p642
I1
sVczifjtv
p643
I1
sVdbq5xhc
p644
I1
sVcyv927n
p645
I9
sVda6zc33
p646
I3
sVd5n5qg8
p647
I1
sVdd2j0zo
p648
I1
sVd0z8p62
p649
I1
sVdaq652c
p650
I3
sVdfn34p2
p651
I1
sVcziu8fo
p652
I4
sVd4jl4k1
p653
I1
sVdt89qt3
p654
I1
sVd2k82ad
p655
I1
sVdb3u1qf
p656
I2
sVdmiqvq4
p657
I1
sVd3nrch8
p658
I1
sVdms3cvv
p659
I1
sVdh9f58x
p660
I1
sVdde4dzn
p661
I2
sVd7hyxin
p662
I1
sVdf3nk2b
p663
I2
sVdjkoixg
p664
I1
sVdgbt8rg
p665
I1
sVd4pnz9u
p666
I1
sVdjdpvqc
p667
I1
sVdk3brvo
p668
I1
sVd905s38
p669
I1
sVdf948ab
p670
I1
sVdd6g4zi
p671
I1
sVdchtgn3
p672
I4
sVd3ur4sw
p673
I2
sVczzn9u8
p674
I1
sVdp3k7pl
p675
I1
sVda6yovx
p676
I1
sVcz6o25m
p677
I1
sVdobshcb
p678
I2
sVdic0qmn
p679
I1
sVd06gju0
p680
I2
sVdngwvbu
p681
I1
sVd7kqv51
p682
I1
sVd7hhvwi
p683
I1
sVdaxlj18
p684
I1
sVdb3kgy1
p685
I1
sVd3k9j08
p686
I6
sVd9p163y
p687
I4
sVdaup6bo
p688
I6
sVd423cgu
p689
I1
sVcyxbmic
p690
I1
sVcypf5wg
p691
I2
sVczcnf7o
p692
I1
sVddyshau
p693
I4
sVdnb1qa5
p694
I1
sVd28wpcw
p695
I3
sVd5sgs0v
p696
I1
sVddnbpmd
p697
I1
sVd69dnpu
p698
I1
sVdci9rcs
p699
I1
sVcyw3tti
p700
I2
sVdao45sy
p701
I1
sVd2v26a2
p702
I1
sVd1j6nst
p703
I1
sVdtihq8w
p704
I1
sVd5w4tmg
p705
I2
sVdj15r6t
p706
I1
sVd3t1cze
p707
I4
sVd0ustof
p708
I2
sVd3jkwrd
p709
I4
sVdcoasd5
p710
I1
sVddun8h6
p711
I1
sVd113ck0
p712
I1
sVdk3bnbx
p713
I5
sVdoqxwnr
p714
I1
sVcyt3z3o
p715
I1
sVdjf97uk
p716
I1
sVczbj4y8
p717
I1
sVd2gdqqc
p718
I1
sVd2b1hns
p719
I1
sVdjg8dpl
p720
I1
sVd0mcb9l
p721
I1
sVdcbtljj
p722
I1
sVd6ltnux
p723
I1
sVdcmnf6d
p724
I1
sVddiyjak
p725
I1
sVdtaj2ms
p726
I1
sVd7obzmt
p727
I3
sVdan751d
p728
I9
sVdno9pw2
p729
I1
sVdcmelcr
p730
I3
sVdny44hy
p731
I1
sVdhul18m
p732
I1
sVdatg0vf
p733
I1
sVd78u6l2
p734
I1
sVd5nquhv
p735
I1
sVdouxape
p736
I3
sVd3qy4xt
p737
I1
sVdnq57we
p738
I2
sVdb09eog
p739
I2
sVcz190aa
p740
I1
sVde09mb1
p741
I2
sVd6a6c3z
p742
I1
sVdf07g9o
p743
I1
sVd6bm93l
p744
I1
sVd3gczfa
p745
I1
sVdj1k9g1
p746
I4
sVd0kzaig
p747
I2
sVd16wzwh
p748
I1
sVdtbqjky
p749
I2
sVdmwe2is
p750
I2
sVdmuh0um
p751
I1
sVd17skfx
p752
I1
sVd4bxnaa
p753
I1
sVcywhcob
p754
I1
sVdprmi96
p755
I1
sVdbptq8w
p756
I1
sVd080d59
p757
I1
sVczi76se
p758
I7
sVd2e15v9
p759
I3
sVcyv96ya
p760
I3
sVdg81h95
p761
I1
sVdmrolyo
p762
I1
sVdi8q1fz
p763
I1
sVdcx18qs
p764
I1
sVd2ge2qx
p765
I1
sVcywp5fv
p766
I1
sVdeltd8j
p767
I1
sVdb3cveg
p768
I4
sVdarnk6s
p769
I8
sVdh36aho
p770
I1
sVd1hl257
p771
I2
sVcyyq2wm
p772
I1
sVdgi2m5v
p773
I1
sVdcgr0zo
p774
I1
sVdckm9ou
p775
I2
sVd67dylh
p776
I2
sVd2gip48
p777
I1
sVdgaibgi
p778
I1
sVd38592i
p779
I2
sVd9vfnxl
p780
I1
sVd3wvx8z
p781
I1
sVdr57sfn
p782
I1
sVdpgeadi
p783
I1
sVd7somp1
p784
I1
sVd0da1kb
p785
I2
sVdgv0kgp
p786
I1
sVd9vxjr8
p787
I1
sVd3qtzjt
p788
I2
sVds7wr04
p789
I1
sVdr37746
p790
I1
sVdjfhr5m
p791
I3
sVd15vmcz
p792
I1
sVd88j6l9
p793
I1
sVdjd6s5o
p794
I2
sVczitj27
p795
I1
sVd1v24dv
p796
I2
sVd96m6a7
p797
I2
sVdd3ow5m
p798
I1
sVdakbeaz
p799
I1
sVd3r8jru
p800
I1
sVd5mmaol
p801
I1
sVdgtyk0k
p802
I3
sVd8t81vv
p803
I2
sVd71828z
p804
I1
sVd5es4wl
p805
I3
sVdaujhaz
p806
I5
sVd4xjtit
p807
I3
sVd54j51l
p808
I1
sVd06fmx3
p809
I2
sVcyoa3j4
p810
I2
sVd0d3qlu
p811
I1
sVd0s3o2m
p812
I1
sVd6jwtof
p813
I6
sVd1taanl
p814
I2
sVdpmhtvb
p815
I1
sVdicio23
p816
I1
sVcyphpxu
p817
I3
sVd0nbzjy
p818
I1
sVdhotn5j
p819
I1
sVdgck4lg
p820
I2
sVd5dp246
p821
I5
sVd17utlo
p822
I2
sVd3lftdz
p823
I9
sVdfsceqj
p824
I1
sVdjfql6u
p825
I1
sVdj0sej2
p826
I2
sVd1hdmge
p827
I1
sVczh6cqy
p828
I1
sVdofe7z2
p829
I1
sVdd5om76
p830
I1
sVd2r103c
p831
I1
sVd9c8t7o
p832
I1
sVdrd3t5z
p833
I1
sVdn0jbos
p834
I2
sVcyrjzse
p835
I1
sVdbq5mhy
p836
I2
sVd5lvglq
p837
I1
sVcyyztqm
p838
I1
sVdc04rpb
p839
I1
sVd7gpohe
p840
I4
sVd73lk6p
p841
I1
sVdco4crz
p842
I1
sVdhotiuu
p843
I1
sVd1r7rne
p844
I1
sVdfsi2tv
p845
I1
sVd2k2q14
p846
I1
sVd4ne3to
p847
I2
sVd0gdz1i
p848
I1
sVcz2hm53
p849
I1
sVdeuf7w3
p850
I2
sVdjepsf9
p851
I4
sVddwdtcy
p852
I1
sVdko4rmw
p853
I1
sVdatkg0s
p854
I2
sVd8bsvs9
p855
I10
sVdgm6jiv
p856
I2
sVdalkli6
p857
I1
sVdcagz8t
p858
I1
sVddcf0z2
p859
I2
sVd17pwri
p860
I1
sVd8w1wka
p861
I2
sVd2j2u4f
p862
I3
sVdt9kepd
p863
I1
sVddbue3f
p864
I1
sVdd9eat0
p865
I1
sVdnv4rwr
p866
I1
sVd0ugq67
p867
I1
sVd5ftf32
p868
I1
sVd01wuvy
p869
I1
sVczieobp
p870
I1
sVd4ijy4s
p871
I2
sVdrgx8ot
p872
I1
sVd1v3ujn
p873
I1
sVd1xdyp5
p874
I1
sVd349q7b
p875
I1
sVdhi1jmg
p876
I1
sVdkqlitz
p877
I1
sVd2rlkia
p878
I1
sVd3we5om
p879
I1
sVddyn776
p880
I1
sVd7p4c23
p881
I2
sVdcu23bn
p882
I5
sVd27qqz9
p883
I1
sVd9co07f
p884
I1
sVdbn8ics
p885
I1
sVd4jfv0r
p886
I2
sVd4ad2dy
p887
I1
sVdcq4cau
p888
I1
sVd2774cd
p889
I1
sVdbzo53w
p890
I1
sVcz9rfke
p891
I1
sVdongk0e
p892
I1
sVcypjpe3
p893
I1
sVdcmj5sl
p894
I1
sVdqix3ev
p895
I1
sVdbilc4q
p896
I1
sVdgj3ng0
p897
I1
sVd5038e4
p898
I1
sVd0ykfqm
p899
I1
sVd19akxo
p900
I1
sVd3wh4c9
p901
I1
sVd9oh6gn
p902
I1
sVdel95st
p903
I1
sVd365m1e
p904
I1
sVdgjpyv7
p905
I1
sVdchqebs
p906
I2
sVdaruwo1
p907
I4
sVcyw1y9b
p908
I1
sVdp4tsa3
p909
I1
sVdbjfee6
p910
I1
sVczv1k07
p911
I1
sVdcx56le
p912
I3
sVdi3h038
p913
I1
sVd3xay9d
p914
I1
sVdfsb3zi
p915
I2
sVdjbyehv
p916
I1
sVddv0ljo
p917
I3
sVdt583o7
p918
I1
sVcynrw6a
p919
I1
sVcypbhtd
p920
I1
sVd0firnr
p921
I1
sVd52x7z3
p922
I2
sVdf052fm
p923
I1
sVdibns0s
p924
I2
sVcyirshh
p925
I1
sVd49xtai
p926
I1
sVdjtmsr7
p927
I2
sVd153meg
p928
I1
sVd1he0ub
p929
I1
sVd5gupyh
p930
I1
sVdiwrb6a
p931
I1
sVd4xgmqz
p932
I4
sVdavdx05
p933
I1
sVczgv1nx
p934
I1
sVcypfbow
p935
I1
sVdkx5zh1
p936
I1
sVds0f1t7
p937
I2
sVd0t6ak6
p938
I1
sVdtc6eic
p939
I1
sVdehaoco
p940
I1
sVdcdv73n
p941
I1
sVd9zatve
p942
I2
sVdr02o2t
p943
I1
sVdajq29l
p944
I2
sVd78emjy
p945
I1
sVcyr0rel
p946
I7
sVdcxl3vj
p947
I1
sVd2gw2oz
p948
I1
sVdczokka
p949
I1
sVd7eu3wk
p950
I1
sVd8t4md9
p951
I2
sVdktjebg
p952
I1
sVd9phc66
p953
I1
sVd5xrdpt
p954
I2
sVdjeb17b
p955
I1
sVd2qbglj
p956
I1
sVd5n4ff2
p957
I1
sVdivjnet
p958
I1
sVdprrpn1
p959
I1
sVd2q9s3d
p960
I2
sVdi8seye
p961
I2
sVd2aekre
p962
I5
sVdhtvl76
p963
I1
sVd1yvex7
p964
I1
sVd88pf85
p965
I1
sVd3hie2k
p966
I1
sVdbvbg0e
p967
I1
sVczkqzco
p968
I4
sVda9hqtg
p969
I3
sVdb9j1hs
p970
I1
sVd9wa56d
p971
I1
sVdky6i42
p972
I7
sVdiw1wva
p973
I2
sVd8l2j7o
p974
I1
sVd2wwdmg
p975
I1
sVd3zdnx7
p976
I1
sVdde0qv6
p977
I1
sVdkqt6l6
p978
I1
sVd9v17cl
p979
I1
sVczbj7is
p980
I1
sVdauf8cq
p981
I1
sVcyzajmw
p982
I1
sVdkqhx5v
p983
I1
sVdb563h6
p984
I1
sVdgcdjlm
p985
I1
sVd7eh0k2
p986
I4
sVczqypuq
p987
I1
sVcyp2xua
p988
I1
sVdhp6tqn
p989
I1
sVdatqm5d
p990
I3
sVczqyeyb
p991
I1
sVcztb76u
p992
I1
sVdgnigmj
p993
I1
sVdbcxqh6
p994
I1
sVdokzf7v
p995
I2
sVcyoam8h
p996
I1
sVcyr80jc
p997
I1
sVdd08ix7
p998
I1
sVd199b8v
p999
I3
sVczu5otc
p1000
I4
sVd1qrcx1
p1001
I2
sVdrj9wjj
p1002
I2
sVdcyltdr
p1003
I1
sVdbiw3m5
p1004
I1
sVdb5fabg
p1005
I1
sVcyka1mt
p1006
I1
sVdi7cgj7
p1007
I1
sVd5ktfuo
p1008
I1
sVdbbp8gh
p1009
I1
sVd3lhq97
p1010
I1
sVd6s9ddp
p1011
I1
sVdb3pg2u
p1012
I5
sVdmu9jkm
p1013
I1
sVczwzb1t
p1014
I2
sVdeakihc
p1015
I1
sVd6ox231
p1016
I1
sVdgq521l
p1017
I6
sVd270r4n
p1018
I1
sVcyzjd9w
p1019
I1
sVd3tivxk
p1020
I1
sVcz8jqcy
p1021
I1
sVdde0e14
p1022
I1
sVczgy64d
p1023
I1
sVdfqzogc
p1024
I2
sVd7m1sfm
p1025
I5
sVd1wk160
p1026
I1
sVdhulsxx
p1027
I1
sVdnkww36
p1028
I4
sVdau3b5u
p1029
I3
sVdo79p66
p1030
I1
sVd844wrz
p1031
I3
sVde8lva2
p1032
I1
sVdgvfhkl
p1033
I1
sVdeowt0p
p1034
I1
sVdqtn4r8
p1035
I3
sVd0mimz4
p1036
I1
sVdct9efa
p1037
I1
sVcyllbk9
p1038
I2
sVd7n3c6e
p1039
I1
sVd7fybah
p1040
I2
sVdauj329
p1041
I1
sVd19cob0
p1042
I1
sVd85jghh
p1043
I1
sVdi80bzt
p1044
I1
sVdeht5fa
p1045
I2
sVdbhw8i8
p1046
I1
sVdb558jq
p1047
I2
sVdokiuyx
p1048
I1
sVdms4m88
p1049
I2
sVd0zs0wz
p1050
I1
sVd61mqt2
p1051
I4
sVdbmek2v
p1052
I1
sVdbwokjw
p1053
I1
sVcyy75w1
p1054
I1
sVd44e05m
p1055
I2
sVd3g4gg4
p1056
I1
sVdciqpf3
p1057
I1
sVdhks4ja
p1058
I1
sVd0ygs9z
p1059
I3
sVdedib63
p1060
I2
sVdidb6v2
p1061
I1
sVd3jqonx
p1062
I2
sVczh634z
p1063
I2
sVdiyfdjs
p1064
I1
sVd13bf10
p1065
I1
sVdfviinn
p1066
I1
sVd197mp7
p1067
I1
sVcz1xg4o
p1068
I1
sVd7csch6
p1069
I2
sVdg94hb8
p1070
I2
sVd7d3co9
p1071
I1
sVde4s6wx
p1072
I2
sVddxg6qg
p1073
I1
sVdes1wpp
p1074
I1
sVdg0s86s
p1075
I1
sVd033oim
p1076
I1
sVd7tu920
p1077
I1
sVd3r6qm7
p1078
I1
sVd78xm6s
p1079
I2
sVd0jkq4j
p1080
I1
sVd6i7gki
p1081
I2
sVddp2di0
p1082
I3
sVd1exfms
p1083
I1
sVdauk4xd
p1084
I5
sVdfwt12d
p1085
I1
sVczi75oy
p1086
I3
sVdiufd9w
p1087
I2
sVd9ykm16
p1088
I1
sVd0b5q6c
p1089
I3
sVdajk1uy
p1090
I1
sVd2by80h
p1091
I2
sVdauabej
p1092
I1
sVczgo2d0
p1093
I1
sVdb1fuv5
p1094
I4
sVd4h1m4n
p1095
I3
sVdiqxf65
p1096
I1
sVdd3c9pr
p1097
I1
sVd9gsfpm
p1098
I1
sVd1s9kuf
p1099
I3
sVd7u9i1e
p1100
I2
sVdnbzg55
p1101
I2
sVdmz99u2
p1102
I1
sVd5ze8vo
p1103
I1
sVd1ptkh6
p1104
I1
sVd3qyt5v
p1105
I5
sVdi4a0j8
p1106
I2
sVcyir9yb
p1107
I4
sVdjblv9q
p1108
I1
sVczrhbxl
p1109
I1
sVd3r3m3p
p1110
I1
sVdtdshjw
p1111
I1
sVd6aj7og
p1112
I1
sVczsd4kt
p1113
I1
sVdc5h4do
p1114
I6
sVd1oqsmi
p1115
I1
sVdr06u3j
p1116
I1
sVdpqr5ol
p1117
I5
sVd9nsypg
p1118
I1
sVd3jfgau
p1119
I1
sVddhzn6b
p1120
I1
sVd1cib46
p1121
I1
sVdjuqtm7
p1122
I1
sVdbwdjdx
p1123
I1
sVd4p8sat
p1124
I3
sVdcjzcrc
p1125
I1
sVd2rkek7
p1126
I2
sVd001kfa
p1127
I1
sVdsrx4vq
p1128
I1
sVdanxd4k
p1129
I1
sVd86v1gd
p1130
I1
sVdqu0n3x
p1131
I1
sVdpxwx9s
p1132
I1
sVd16sm34
p1133
I3
sVd2690d6
p1134
I1
sVd6wh2n9
p1135
I1
sVd7kc4ew
p1136
I7
sVd41p3n8
p1137
I1
sVd1xfb5z
p1138
I2
sVczyq298
p1139
I1
sVd78jtfm
p1140
I1
sVdh6qkdb
p1141
I1
sVdd7yfik
p1142
I1
sVd83vi2s
p1143
I4
sVdikwt4m
p1144
I1
sVd4xh7ol
p1145
I6
sVdf69d1t
p1146
I1
sVdcmjkv7
p1147
I2
sVdihfb3k
p1148
I1
sVdf387vs
p1149
I6
sVczt8rgw
p1150
I1
sVd634df0
p1151
I1
sVd7ikutg
p1152
I2
sVdeu336f
p1153
I5
sVd3r3hp1
p1154
I1
sVdak295c
p1155
I3
sVd25uvnh
p1156
I2
sVdedtaos
p1157
I1
sVdjn6clw
p1158
I1
sVd2nr6hi
p1159
I1
sVd7dp4lr
p1160
I1
sVdf37r6t
p1161
I11
sVd38aujf
p1162
I1
sVdan4pwp
p1163
I1
sVd3nlnue
p1164
I1
sVddeowoc
p1165
I1
sVd0zrq5h
p1166
I3
sVd5giklg
p1167
I11
sVczu9uwh
p1168
I1
sVddh7ypf
p1169
I1
sVdnaex6l
p1170
I2
sVd3qn1nm
p1171
I4
sVdhzl2ua
p1172
I1
sVd9yp3by
p1173
I1
sVd9c2gvv
p1174
I1
sVd237cf3
p1175
I1
sVcyr7rgv
p1176
I2
sVde4k6x3
p1177
I1
sVd92spxk
p1178
I1
sVdmluznu
p1179
I1
sVd2dwgur
p1180
I1
sVdcjohwh
p1181
I2
sVdniql1l
p1182
I2
sVd48obel
p1183
I1
sVd2p5e4k
p1184
I1
sVd9dsgyo
p1185
I1
sVd0143w9
p1186
I1
sVcysmjxw
p1187
I1
sVds512te
p1188
I1
sVd2znpm6
p1189
I1
sVdqiwza0
p1190
I1
sVdg8xhes
p1191
I2
sVdfdu97r
p1192
I2
sVdbaffqa
p1193
I1
sVd4eubmw
p1194
I1
sVd6i3qt9
p1195
I1
sVdia3o93
p1196
I1
sVd211up7
p1197
I1
sVdbazhb2
p1198
I4
sVd81vdqk
p1199
I1
sVdf5eo8g
p1200
I4
sVdds3kx4
p1201
I3
sVd0an5ez
p1202
I1
sVd1eu0rm
p1203
I2
sVdcpqrdb
p1204
I1
sVdelgb9l
p1205
I1
sVd1pg4nh
p1206
I1
sVdgk9phn
p1207
I3
sVdgr3rj7
p1208
I2
sVd9blss9
p1209
I1
sVdcjyqn2
p1210
I1
sVd5mgmrm
p1211
I1
sVden0ur4
p1212
I1
sVd0hnafl
p1213
I2
sVdaubl7y
p1214
I11
sVd83ryzi
p1215
I7
sVd47dbs0
p1216
I2
sVdjrnjk7
p1217
I1
sVczhz7fr
p1218
I1
sVd872f0u
p1219
I1
sVdbncto2
p1220
I4
sVd98q4dy
p1221
I1
sVdcfux7u
p1222
I1
sVczpstq1
p1223
I3
sVdgucivs
p1224
I1
sVdaudksg
p1225
I4
sVd7a17qm
p1226
I3
sVda90e4y
p1227
I1
sVd9bbv01
p1228
I1
sVd0knw4w
p1229
I1
sVd9xsogw
p1230
I1
sVd19hipq
p1231
I1
sVcyzrj3j
p1232
I1
sVczxw4nm
p1233
I1
sVddq3fqz
p1234
I1
sVdq1zand
p1235
I3
sVd3qxyeq
p1236
I2
sVdac2bd7
p1237
I11
sVcypzfux
p1238
I1
sVdkinss0
p1239
I4
sVd1bde6e
p1240
I2
sVd9wmtqi
p1241
I1
sVdbnclmf
p1242
I1
sVczc92xw
p1243
I2
sVd7o2h85
p1244
I1
sVczzuukt
p1245
I1
sVcz178ii
p1246
I1
sVd15cern
p1247
I1
sVdcawqgt
p1248
I1
sVd8f493u
p1249
I1
sVdim6eae
p1250
I1
sVd1heqdx
p1251
I1
sVdizox69
p1252
I1
sVcyybq6q
p1253
I1
sVd2czub4
p1254
I1
sVddlkomx
p1255
I1
sVdjd6hq2
p1256
I1
sVd5mh2k5
p1257
I1
sVdmhwt7i
p1258
I2
sVdjj76fa
p1259
I1
sVdci6xvc
p1260
I3
sVdgh89i0
p1261
I1
sVdatpwx5
p1262
I6
sVdcf6p60
p1263
I1
sVden3s59
p1264
I1
sVd8gwr64
p1265
I1
sVcz1jszk
p1266
I1
sVcyvtvox
p1267
I2
sVdmzpfnc
p1268
I1
sVcywg88q
p1269
I1
sVd98pxko
p1270
I1
sVdb3sxx8
p1271
I1
sVd5pqam1
p1272
I1
sVd0dyn7t
p1273
I1
sVd4chkhc
p1274
I1
sVdbj9o86
p1275
I1
sVd83dgvq
p1276
I1
sVdavh48s
p1277
I1
sVd1aryke
p1278
I1
sVdieme93
p1279
I1
sVdbkxofq
p1280
I3
sVdadev03
p1281
I2
sVd0ory3i
p1282
I1
sVd5jn31i
p1283
I1
sVcyuezd1
p1284
I2
sVdte2q0z
p1285
I1
sVdotw8zk
p1286
I1
sVd4je5xx
p1287
I2
sVdck46da
p1288
I1
sVdixewxp
p1289
I2
sVdiy0v0s
p1290
I2
sVdmlf9rl
p1291
I1
sVd1c2s1a
p1292
I1
sVd09uuly
p1293
I1
sVdpy6eko
p1294
I2
sVd21ze5i
p1295
I1
sVdbwdn8f
p1296
I2
sVd9uwyui
p1297
I1
sVdg8dv18
p1298
I1
sVdaco4xv
p1299
I4
sVdfwu4yl
p1300
I1
sVdjp2a7a
p1301
I1
sVd3mlnxb
p1302
I2
sVcykk1tt
p1303
I1
sVdf2zag2
p1304
I2
sVdcy3jl3
p1305
I1
sVd65ctfe
p1306
I10
sVdo7xgx6
p1307
I1
sVd2jxrgz
p1308
I1
sVdau11az
p1309
I1
sVdjxxfev
p1310
I1
sVdgh1fkk
p1311
I1
sVd04ysby
p1312
I2
sVdkxc0eu
p1313
I1
sVdfnka4h
p1314
I1
sVddhkrmg
p1315
I1
sVd01pcfv
p1316
I1
sVd9zq8u7
p1317
I1
sVd502eux
p1318
I1
sVczuwiai
p1319
I1
sVd3xc8x0
p1320
I1
sVdbk3jze
p1321
I1
sVdjpoc1r
p1322
I1
sVd2kejdz
p1323
I1
sVd3re1gs
p1324
I2
sVdeiyots
p1325
I1
sVdhylbjk
p1326
I1
sVcyie7b0
p1327
I2
sVczwy46x
p1328
I2
sVddi2n2u
p1329
I1
sVdnexxtk
p1330
I1
sVd54phb7
p1331
I2
sVdjqozri
p1332
I1
sVd5nrugv
p1333
I8
sVdn2uc43
p1334
I2
sVdethah9
p1335
I1
sVcyjhteb
p1336
I1
sVcysn018
p1337
I1
sVczid9wi
p1338
I1
sVd5epwcx
p1339
I1
sVd449pl5
p1340
I1
sVdp65uwm
p1341
I1
sVdhmde25
p1342
I1
sVd8cllpx
p1343
I2
sVd526x1n
p1344
I5
sVd2a88b8
p1345
I1
sVd9zukwp
p1346
I1
sVdign63j
p1347
I1
sVdccfbcr
p1348
I1
sVcyl8ngk
p1349
I2
sVdi8vsrj
p1350
I1
sVd9bqnxm
p1351
I6
sVdf3u2i8
p1352
I1
sVd1hf4nu
p1353
I1
sVd0svruy
p1354
I1
sVcyzli4i
p1355
I7
sVdr1pedb
p1356
I1
sVd0kyo2n
p1357
I1
sVdjd6l34
p1358
I1
sVcyvwcat
p1359
I1
sVddsw82y
p1360
I1
sVd1evf7l
p1361
I2
sVd01czgw
p1362
I1
sVdccgr4j
p1363
I3
sVcyk7vix
p1364
I2
sVdd4rok0
p1365
I9
sVdfco7q7
p1366
I1
sVd1wzgwt
p1367
I1
sVczzcsit
p1368
I1
sVcym0066
p1369
I2
sVdcerlsm
p1370
I1
sVd72jj46
p1371
I1
sVdigdhpb
p1372
I3
sVd7v3rfe
p1373
I1
sVd8yy75b
p1374
I3
sVczgslga
p1375
I1
sVczi49ys
p1376
I4
sVdqpjyyr
p1377
I1
sVd3r8uui
p1378
I5
sVcyt0gw9
p1379
I3
sVdroezq6
p1380
I1
sVdb3ud2h
p1381
I5
sVdh0zubb
p1382
I1
sVd7a57q6
p1383
I4
sVczottzt
p1384
I1
sVdau0610
p1385
I8
sVdhr9l95
p1386
I2
sVdgkc7ke
p1387
I1
sVdbkwd5v
p1388
I1
sVd5nlsqr
p1389
I25
sVd85pj3x
p1390
I1
sVd9ftsob
p1391
I1
sVd0kv3na
p1392
I1
sVd514fa9
p1393
I1
sVd3ius59
p1394
I1
sVd5odjpq
p1395
I1
sVdf3mz05
p1396
I3
sVd60riz0
p1397
I1
sVd66081o
p1398
I1
sVcyj493i
p1399
I2
sVdkvukn0
p1400
I2
sVdirg4zw
p1401
I1
sVczmvs16
p1402
I2
sVdixu62s
p1403
I1
sVdgck5qd
p1404
I1
sVd16wj80
p1405
I1
sVcyo93x6
p1406
I1
sVd86zp48
p1407
I1
sVdfa0g49
p1408
I1
sVdgjxr66
p1409
I3
sVd35vuqn
p1410
I1
sVd05z7nz
p1411
I1
sVd1hdip1
p1412
I1
sVddolpsd
p1413
I2
sVd2myx0g
p1414
I2
sVdd6snd8
p1415
I1
sVd79su7g
p1416
I10
sVddn29qq
p1417
I1
sVdd38rlx
p1418
I2
sVd6m306n
p1419
I1
sVd59l7ox
p1420
I6
sVdmuji3r
p1421
I1
sVdbyqp3p
p1422
I1
sVd8g56yy
p1423
I1
sVdsj0bo1
p1424
I1
sVdg176nx
p1425
I1
sVd6zpmdu
p1426
I1
sVdeh4yzv
p1427
I1
sVdk040y2
p1428
I6
sVd3wlvbf
p1429
I1
sVd1bwxea
p1430
I3
sVd7p8un6
p1431
I1
sVd629sm8
p1432
I1
sVda5j3fo
p1433
I1
sVcyj65jf
p1434
I1
sVdaueoxq
p1435
I7
sVdcy2vnw
p1436
I1
sVd1gyi7d
p1437
I2
sVdbknoew
p1438
I1
sVdqn8v4d
p1439
I2
sVdiiw30b
p1440
I1
sVczzudta
p1441
I1
sVcyt12af
p1442
I4
sVd8ul7hq
p1443
I1
sVd59nwaa
p1444
I2
sVddpt0k3
p1445
I2
sVddj8vid
p1446
I1
sVd9nh199
p1447
I1
sVdfd0a11
p1448
I1
sVdcag2u6
p1449
I1
sVd5oea72
p1450
I1
sVdai2e0w
p1451
I1
sVdibvki4
p1452
I1
sVdsoekpp
p1453
I1
sVdcn53lf
p1454
I2
sVdi9u9yp
p1455
I1
sVd6i3brr
p1456
I1
sVdkelb9a
p1457
I1
sVddkrmco
p1458
I3
sVcyi9stv
p1459
I1
sVdmsh64o
p1460
I1
sVd4sq43n
p1461
I1
sVdbil918
p1462
I1
sVd3lhsim
p1463
I1
sVd3s13hf
p1464
I1
sVd5oqn0z
p1465
I8
sVdfj2uww
p1466
I1
sVdcin7yh
p1467
I1
sVd21unfd
p1468
I1
sVd6t9tad
p1469
I1
sVcysgq9f
p1470
I1
sVd05y14c
p1471
I1
sVd848x5q
p1472
I2
sVcz4fbsf
p1473
I1
sVdpj6jhb
p1474
I1
sVcyzj0g8
p1475
I6
sVd0lrg4s
p1476
I1
sVd6zjeps
p1477
I5
sVddxtq8z
p1478
I1
sVd5r8m8j
p1479
I1
sVdmhxbpe
p1480
I1
sVd86wm09
p1481
I2
sVdf95zu9
p1482
I1
sVcz27eiy
p1483
I1
sVdo5i7ga
p1484
I2
sVd1tomth
p1485
I1
sVdgryv9c
p1486
I8
sVd591yyg
p1487
I1
sVd22qc16
p1488
I1
sVd7n06iu
p1489
I1
sVdb21pb4
p1490
I2
sVczqnei3
p1491
I2
sVd2ldae1
p1492
I1
sVdb59vkn
p1493
I1
sVddco9bk
p1494
I1
sVdqg8qc8
p1495
I2
sVdjow0uu
p1496
I1
sVdauveji
p1497
I3
sVd7ymgxp
p1498
I1
sVdf9arig
p1499
I2
sVd83u60t
p1500
I3
sVd1ewb2z
p1501
I3
sVczc7uvl
p1502
I1
sVdcnk2tm
p1503
I1
sVd0a7j6t
p1504
I1
sVd83yjvc
p1505
I2
sVd21ijo6
p1506
I1
sVcyyf3bv
p1507
I3
sVczjh1iw
p1508
I1
sVd7v07nk
p1509
I1
sVd83toyz
p1510
I1
sVdd6n77p
p1511
I1
sVdarv6nq
p1512
I7
sVdc7c0nh
p1513
I1
sVd7lnrf1
p1514
I3
sVdek1z7a
p1515
I1
sVd6d2mzp
p1516
I1
sVdc03rit
p1517
I1
sVdatxah5
p1518
I1
sVdf05gjr
p1519
I1
sVd53zql6
p1520
I1
sVd83mots
p1521
I2
sVdj7eljf
p1522
I1
sVd4bflqv
p1523
I6
sVd08d03g
p1524
I1
sVczs0rwq
p1525
I1
sVd9erk0p
p1526
I1
sVdqu3se3
p1527
I1
sVczuflzq
p1528
I1
sVd77wtu4
p1529
I1
sVdf8ynsb
p1530
I2
sVcyxxtm6
p1531
I2
sVdmk6v0m
p1532
I1
sVdcjoqb3
p1533
I2
sVdhffylp
p1534
I1
sVdgahap8
p1535
I1
sVd1gzgnx
p1536
I1
sVdbnqjl5
p1537
I1
sVdmfnlpe
p1538
I1
sVd06fol3
p1539
I1
sVd4rzmbi
p1540
I6
sVddhkkkv
p1541
I1
sVdft8pef
p1542
I1
sVd33a78b
p1543
I1
sVd2026py
p1544
I1
sVdf9lnqm
p1545
I1
sVd54wk0x
p1546
I2
sVde2xq4g
p1547
I1
sVdgvqzix
p1548
I1
sVd96pi6l
p1549
I2
sVcyptzcv
p1550
I5
sVdmi7sbh
p1551
I2
sVdeu39ve
p1552
I1
sVd8czfek
p1553
I1
sVd8iy5eb
p1554
I1
sVdhwkmoq
p1555
I1
sVd0p873o
p1556
I1
sVdsnir6g
p1557
I1
sVdb571ic
p1558
I1
sVcyw4spm
p1559
I1
sVdjr0zsq
p1560
I1
sVdo41ucq
p1561
I1
sVdo8dva9
p1562
I1
sVdcx93a6
p1563
I1
sVdhwx3oh
p1564
I1
sVd5nftb4
p1565
I1
sVd84uepz
p1566
I2
sVdo43nvj
p1567
I1
sVdmr2fks
p1568
I2
sVd8m65ac
p1569
I2
sVd32p6e9
p1570
I1
sVdjoubnl
p1571
I1
sVdgvoc41
p1572
I1
sVd2j527v
p1573
I2
sVdeboc1f
p1574
I1
sVd95mk56
p1575
I2
sVdb1gkap
p1576
I10
sVdcuafki
p1577
I6
sVdj30kqr
p1578
I1
sVcyyf4bb
p1579
I3
sVd3jfja7
p1580
I3
sVd0372qi
p1581
I3
sVdeufd72
p1582
I5
sVd4m2lsp
p1583
I1
sVcyipazj
p1584
I1
sVdicz7h4
p1585
I1
sVdgjrkt6
p1586
I1
sVd3ls57d
p1587
I5
sVd5mukfo
p1588
I1
sVd7ijvlu
p1589
I1
sVd3pu968
p1590
I1
sVd1r6b60
p1591
I3
sVczlmk24
p1592
I5
sVdhepzvo
p1593
I1
sVd1mseup
p1594
I1
sVd7eoc1y
p1595
I1
sVczifwny
p1596
I2
sVdd3kvu0
p1597
I1
sVd83r8np
p1598
I2
sVdath22n
p1599
I1
sVd7krqjs
p1600
I1
sVd61muas
p1601
I1
sVd3fslgs
p1602
I1
sVd87asq5
p1603
I1
sVd0ci9od
p1604
I1
sVdr3n616
p1605
I6
sVd61okik
p1606
I3
sVdi0ia0e
p1607
I3
sVdk39rij
p1608
I1
sVczbrno7
p1609
I1
sVd8muk70
p1610
I1
sVdorvsn7
p1611
I1
sVd7k3330
p1612
I1
sVd8giubt
p1613
I1
sVd6mont5
p1614
I1
sVcz9v6gg
p1615
I1
sVd0uyi3g
p1616
I1
sVdcxj3bf
p1617
I1
sVd8fnso2
p1618
I1
sVdai0r11
p1619
I1
sVdk90i9j
p1620
I1
sVdpworhb
p1621
I1
sVd157mq8
p1622
I2
sVdi7esz4
p1623
I1
sVczawmeu
p1624
I1
sVdekxr9f
p1625
I2
sVd17v4nu
p1626
I1
sVdrblxoz
p1627
I1
sVd3zkoxi
p1628
I4
sVd41rzkp
p1629
I3
sVdbnyudi
p1630
I1
sVdmsr9qa
p1631
I1
sVdjbycca
p1632
I1
sVdmi1air
p1633
I1
sVd1e83t4
p1634
I1
sVdi9v1bg
p1635
I1
sVddcz7n3
p1636
I1
sVcyis92v
p1637
I1
sVd2wsz0v
p1638
I3
sVdau5bk9
p1639
I2
sVdmfq730
p1640
I1
sVdib9kgs
p1641
I2
sVdpqxe5s
p1642
I1
sVdf47qbm
p1643
I1
sVd67e1iw
p1644
I1
sVd1jamo7
p1645
I1
sVd2h0ou8
p1646
I2
sVdf4f8u2
p1647
I7
sVcyuxzwf
p1648
I1
sVdodvnk5
p1649
I1
sVd0t84oq
p1650
I2
sVd23ric0
p1651
I3
sVdd4tqbt
p1652
I6
sVd1s64xv
p1653
I1
sVdjigbgg
p1654
I1
sVdibkzel
p1655
I1
sVd5kydxo
p1656
I6
sVdepi6qn
p1657
I2
sVdau2ko5
p1658
I5
sVd6r21vd
p1659
I2
sVd1da5kr
p1660
I1
sVd7hk00c
p1661
I4
sVd5jsyyf
p1662
I1
sVddd7fdt
p1663
I5
sVdjktng4
p1664
I2
sVdgdv7bo
p1665
I1
sVcyt0p0x
p1666
I1
sVd0zrufv
p1667
I2
sVd1egq3w
p1668
I1
sVd99q384
p1669
I1
sVd6g4drd
p1670
I1
sVdi9n026
p1671
I1
sVddvcx6f
p1672
I2
sVd0rg3pd
p1673
I1
sVddg2t8t
p1674
I6
sVddchf8a
p1675
I4
sVdbag1o8
p1676
I1
sVd5jd4tv
p1677
I2
sVd7ywuf5
p1678
I1
sVd6het7i
p1679
I2
sVdjmvpc1
p1680
I1
sVdbzj3dp
p1681
I5
sVd1t269s
p1682
I1
sVdk2dc9r
p1683
I1
sVd05jji1
p1684
I1
sVd0cidz0
p1685
I1
sVd9ykwm0
p1686
I1
sVd423l3b
p1687
I1
sVd4xk6dd
p1688
I7
sVd3mg3i0
p1689
I1
sVd9yt7c4
p1690
I1
sVddcmx1c
p1691
I2
sVdatpj2f
p1692
I15
sVd1ypf8d
p1693
I1
sVdaui4vi
p1694
I2
sVd9onmpt
p1695
I3
sVdkqlh3p
p1696
I3
sVd7ry93h
p1697
I1
sVd3s2aed
p1698
I1
sVdcrgck9
p1699
I1
sVdatwqi1
p1700
I2
sVczxl93k
p1701
I1
sVd4xwumc
p1702
I1
sVczffxo3
p1703
I2
sVd6vz7nm
p1704
I1
sVdhctc6p
p1705
I1
sVd4msbhk
p1706
I2
sVdeqvcwf
p1707
I2
sVdau4g8b
p1708
I1
sVd7mn5xi
p1709
I4
sVd05k8ea
p1710
I2
sVczrzbty
p1711
I1
sVdd9vtkc
p1712
I1
sVd5gurrx
p1713
I4
sVdk1uexo
p1714
I2
sVd1iw8a3
p1715
I1
sVdboxqp5
p1716
I1
sVdcgicjg
p1717
I1
sVd1hhd4a
p1718
I1
sVdkj1td0
p1719
I1
sVd4sv8x5
p1720
I1
sVdawav1m
p1721
I5
sVczodtsp
p1722
I1
sVdkbgw2y
p1723
I2
sVd7ijmwz
p1724
I1
sVdiijbcq
p1725
I1
sVdoqu48b
p1726
I1
sVdamqq3v
p1727
I1
sVd81g51h
p1728
I1
sVdp7nm64
p1729
I2
sVdecxg7c
p1730
I2
sVdihau6o
p1731
I1
sVd0muc0f
p1732
I3
sVd26gdom
p1733
I1
sVczcmhh5
p1734
I1
sVdctdtjp
p1735
I1
sVcznamn8
p1736
I1
sVd1h1dn7
p1737
I7
sVd1zj2tx
p1738
I1
sVd4jfben
p1739
I2
sVd5kkr7k
p1740
I1
sVd300o8r
p1741
I1
sVdjxc61y
p1742
I1
sVdfljxqj
p1743
I1
sVdpmu5sn
p1744
I1
sVdns8jju
p1745
I3
sVdtfjcsq
p1746
I1
sVdcgtvpe
p1747
I1
sVdotv3s3
p1748
I1
sVcyurdhj
p1749
I2
sVd19hjbe
p1750
I2
sVd6ya5j2
p1751
I1
sVdjy5v9e
p1752
I1
sVd4r2e32
p1753
I2
sVcz08kbi
p1754
I1
sVcyi6kub
p1755
I4
sVddwiyk3
p1756
I1
sVdjui44i
p1757
I1
sVdcr957p
p1758
I2
sVd9x0vuk
p1759
I1
sVd2ig2qe
p1760
I1
sVd2j4zfp
p1761
I3
sVd4c6b33
p1762
I1
sVdg0guh7
p1763
I1
sVd7fawtb
p1764
I1
sVd1yhhqe
p1765
I1
sVcyw4tvj
p1766
I1
sVczc8exu
p1767
I5
sVczbamqb
p1768
I2
sVd2dlhf7
p1769
I2
sVd8dk7tt
p1770
I3
sVdeeo47y
p1771
I5
sVd8db8pa
p1772
I1
sVd7jrimb
p1773
I1
sVd19cd2k
p1774
I1
sVdibbh7h
p1775
I1
sVd4rfart
p1776
I1
sVddx8pe5
p1777
I1
sVda56rsp
p1778
I1
sVdau9uwd
p1779
I1
sVdq5eccu
p1780
I3
sVde6igja
p1781
I1
sVd2z6x6k
p1782
I1
sVcypt172
p1783
I3
sVd838ulw
p1784
I1
sVdei3apa
p1785
I1
sVdajjhof
p1786
I1
sVd6lv2r7
p1787
I3
sVdjw6i9g
p1788
I1
sVdbvj5rh
p1789
I1
sVd8lp0ag
p1790
I3
sVdgi15wd
p1791
I1
sVdg7puvd
p1792
I1
sVd68gjsd
p1793
I1
sVd86s3oc
p1794
I4
sVdhcjjyk
p1795
I2
sVd4gml1i
p1796
I1
sVd0n3zfv
p1797
I1
sVcynfluc
p1798
I1
sVdgpqn73
p1799
I1
sVd3r5fyb
p1800
I2
sVczvz5nc
p1801
I1
sVd00gv68
p1802
I4
sVdeyewlb
p1803
I1
sVd8g2oxe
p1804
I2
sVdbjmatx
p1805
I3
sVdigd6pj
p1806
I4
sVd0cziwr
p1807
I1
sVd5vrt0q
p1808
I1
sVcz4ji5l
p1809
I1
sVczy5apn
p1810
I1
sVdctbweq
p1811
I2
sVddo0dj3
p1812
I2
sVdn05b9i
p1813
I2
sVdtelsue
p1814
I1
sVdi9uksz
p1815
I1
sVd8gn9kj
p1816
I1
sVdihr203
p1817
I1
sVdgu1m1n
p1818
I1
sVddculqw
p1819
I2
sVd1958zr
p1820
I1
sVdauejbz
p1821
I2
sVd1edi41
p1822
I2
sVd78f0t4
p1823
I2
sVd4jl7l1
p1824
I4
sVdibvjag
p1825
I1
sVdbngj3f
p1826
I1
sVd0fcqjr
p1827
I1
sVdd5n21y
p1828
I1
sVdcsbmvm
p1829
I1
sVdizl32r
p1830
I2
sVdqtodi5
p1831
I4
sVdcgrth6
p1832
I3
sVd6oqd4n
p1833
I1
sVdclnxv9
p1834
I1
sVd1eucow
p1835
I1
sVd3dp2qe
p1836
I1
sVd7drt57
p1837
I2
sVde4plak
p1838
I1
sVd16pdxu
p1839
I1
sVd166mgv
p1840
I1
sVcyj6b4z
p1841
I2
sVd1a6y8g
p1842
I1
sVdke5t95
p1843
I1
sVdcqmd9u
p1844
I1
sVd19hcmn
p1845
I1
sVdcmkop9
p1846
I1
sVdfqxat9
p1847
I1
sVdeufgyb
p1848
I2
sVdr7rnzj
p1849
I1
sVdgnt97o
p1850
I3
sVczvexky
p1851
I2
sVd5bpe8z
p1852
I1
sVdhn8e44
p1853
I1
sVdenv1pg
p1854
I1
sVdfqzqen
p1855
I3
sVdb7zcdq
p1856
I1
sVd4xggtc
p1857
I7
sVd1h992u
p1858
I11
sVdh8oews
p1859
I7
sVdanlrcu
p1860
I4
sVdieh835
p1861
I1
sVd8eeehc
p1862
I1
sVd17tzpm
p1863
I1
sVd2vh05q
p1864
I1
sVddx3m25
p1865
I1
sVd3buebl
p1866
I1
sVdko4o7n
p1867
I1
sVd73x2u7
p1868
I1
sVddlphgt
p1869
I1
sVdcxffu5
p1870
I1
sVcze0dso
p1871
I3
sVd6uj6jp
p1872
I5
sVd3y3afl
p1873
I2
sVdbf0k7a
p1874
I1
sVd9p2w0e
p1875
I1
sVd9vfgpt
p1876
I1
sVcz6qp4z
p1877
I2
sVdax9zvc
p1878
I1
sVczm9nel
p1879
I1
sVdgak0uu
p1880
I4
sVdjcmp8t
p1881
I1
sVdcc55ip
p1882
I1
sVdbprbdp
p1883
I1
sVcztckd2
p1884
I1
sVdajkywi
p1885
I5
sVdmnaw88
p1886
I1
sVcz5cilo
p1887
I1
sVde0w2z1
p1888
I2
sVd11pi9r
p1889
I1
sVd5xhrtl
p1890
I1
sVczik46q
p1891
I1
sVcyide9q
p1892
I1
sVds9uig2
p1893
I2
sVda9e57r
p1894
I1
sVdf395ra
p1895
I1
sVdf42nit
p1896
I1
sVdhcynvi
p1897
I1
sVdf37evd
p1898
I1
sVd2tlojh
p1899
I3
sVdmxl7lz
p1900
I2
sVdaslvii
p1901
I1
sVd7kr92x
p1902
I1
sVdh34wjk
p1903
I2
sVdf6wpe9
p1904
I1
sVdc1d3ik
p1905
I1
sVd7hjdkp
p1906
I1
sVcynsr7m
p1907
I1
sVd1o12ox
p1908
I1
sVd556ti4
p1909
I1
sVd02oqoe
p1910
I4
sVd718zm7
p1911
I3
sVda88oiy
p1912
I1
sVd30qdqd
p1913
I1
sVdbnq68g
p1914
I1
sVdk0jxtj
p1915
I2
sVd2pgtee
p1916
I2
sVdfdufqf
p1917
I1
sVdgdt6kv
p1918
I3
sVd0pfmi4
p1919
I1
sVdb5ewsh
p1920
I1
sVd0047hi
p1921
I1
sVde7mw3j
p1922
I2
sVdjbctji
p1923
I1
sVdggjnfp
p1924
I1
sVdeul9hn
p1925
I7
sVdfzsarf
p1926
I1
sVd9ks4zm
p1927
I5
sVda0zikx
p1928
I1
sVd59cwfb
p1929
I1
sVdjt4661
p1930
I1
sVd4rypx0
p1931
I2
sVczkuclr
p1932
I2
sVd6xgmtu
p1933
I1
sVdctzhdt
p1934
I3
sVczxld70
p1935
I4
sVd4jlv46
p1936
I4
sVdaz97z8
p1937
I1
sVd1sbucf
p1938
I3
sVcyuq4yc
p1939
I1
sVcyx2z6v
p1940
I1
sVdkie22u
p1941
I1
sVd69d4c7
p1942
I1
sVd96k475
p1943
I3
sVd6til66
p1944
I1
sVdkqle0r
p1945
I1
sVd54jglr
p1946
I5
sVdcg41nb
p1947
I1
sVdn2vbaj
p1948
I2
sVdifda6u
p1949
I2
sVd2uxxly
p1950
I1
sVd1ajcsw
p1951
I1
sVcyqve61
p1952
I1
sVdc3ypxa
p1953
I1
sVd14nyat
p1954
I1
sVdmhz8aa
p1955
I1
sVd6t6ft7
p1956
I1
sVd5hacnb
p1957
I1
sVcytwvos
p1958
I1
sVdokjylh
p1959
I1
sVcyuefuo
p1960
I1
sVddc4i8y
p1961
I3
sVdmje3ho
p1962
I13
sVd23bhpd
p1963
I1
sVd1s4u2a
p1964
I1
sVd7982y9
p1965
I1
sVd2yzslg
p1966
I1
sVdo99h05
p1967
I1
sVdt8dg6k
p1968
I1
sVddwqa7c
p1969
I1
sVcyozkg1
p1970
I1
sVdiaj2hn
p1971
I1
sVdiv0rby
p1972
I1
sVd81vyb1
p1973
I4
sVd6mkjn7
p1974
I1
sVdjb3q28
p1975
I1
sVdayspjt
p1976
I1
sVcz4x7s5
p1977
I1
sVd59xvzv
p1978
I1
sVdacmoqf
p1979
I1
sVdmiwas1
p1980
I3
sVd1yfdbf
p1981
I1
sVdnetaui
p1982
I1
sVdbbmzo7
p1983
I1
sVczi9mc5
p1984
I1
sVdgbbdm3
p1985
I1
sVd2vhbr4
p1986
I1
sVd6hed53
p1987
I1
sVd2rfcpb
p1988
I3
sVdky501o
p1989
I1
sVdcj0j5o
p1990
I1
sVd3fcpej
p1991
I1
sVdkg5ryu
p1992
I1
sVdctjo1u
p1993
I7
sVczhz9iz
p1994
I2
sVd0lcwjk
p1995
I8
sVczm8bvj
p1996
I1
sVdjxouom
p1997
I2
sVdkw7o9f
p1998
I1
sVdqw1ty2
p1999
I1
sVdbjbwoa
p2000
I1
sVdi83pzv
p2001
I1
sVdcqoqpo
p2002
I1
sVdgwu2k4
p2003
I1
sVdtdseqo
p2004
I1
sVd59eppg
p2005
I1
sVcyip3bo
p2006
I1
sVdiuxlrj
p2007
I2
sVczcidaz
p2008
I3
sVcyiibmf
p2009
I1
sVd5vxw84
p2010
I1
sVdn0a85c
p2011
I4
sVdgyalfy
p2012
I1
sVd6e0qrb
p2013
I1
sVdjnkhyk
p2014
I2
sVdeehw0v
p2015
I1
sVd16qg9u
p2016
I3
sVdk2n8e5
p2017
I1
sVd0m3sdf
p2018
I1
sVd4o0ras
p2019
I1
sVdd3t50d
p2020
I1
sVdbxwsee
p2021
I1
sVdau1ru8
p2022
I3
sVdhemdur
p2023
I3
sVczyzcka
p2024
I1
sVd49wzud
p2025
I1
sVd312yvz
p2026
I2
sVcyns7oj
p2027
I2
sVdi4vfey
p2028
I2
sVd63mmeo
p2029
I1
sVd5q2b5z
p2030
I1
sVdboo6da
p2031
I1
sVd5fvs2k
p2032
I1
sVd5tgudf
p2033
I1
sVd91ifql
p2034
I1
sVdbcl8es
p2035
I1
sVdhz6k51
p2036
I2
sVddkzlk8
p2037
I1
sVddktblz
p2038
I10
sVd49zdlm
p2039
I1
sVd6ajetw
p2040
I2
sVde7vlgc
p2041
I1
sVdau8s0v
p2042
I4
sVd9dcbfk
p2043
I2
sVd8dk043
p2044
I2
sVdexgbcx
p2045
I1
sVdco9v2q
p2046
I3
sVdclre0d
p2047
I1
sVcynuck3
p2048
I5
sVd0gvdg0
p2049
I3
sVde7l9pz
p2050
I1
sVdbckbgq
p2051
I2
sVdfljauh
p2052
I1
sVdcmwm2d
p2053
I1
sVd8djwq4
p2054
I1
sVdi7xtk0
p2055
I1
sVdb5m79h
p2056
I2
sVd2xeefd
p2057
I1
sVdh7x2pi
p2058
I1
sVcyzbomd
p2059
I1
sVdmx10iz
p2060
I1
sVde40by3
p2061
I1
sVcyxsv9t
p2062
I1
sVdibsd62
p2063
I4
sVd5zocpi
p2064
I3
sVcym6ir5
p2065
I1
sVdfo4f0k
p2066
I3
sVd1ttyzo
p2067
I4
sVd3x9sfa
p2068
I2
sVdifjbi6
p2069
I1
sVd4st47k
p2070
I1
sVd0129ci
p2071
I1
sVdcvb6dy
p2072
I1
sVcyt5fuw
p2073
I2
sVd0hk6z1
p2074
I1
sVd8pzl7s
p2075
I1
sVd3r0f87
p2076
I2
sVd3lhkvs
p2077
I1
sVd0mupuy
p2078
I6
sVd1ecg4r
p2079
I1
sVdaqpp2b
p2080
I2
sVdiiraci
p2081
I1
sVczitm5j
p2082
I1
sVczpt73e
p2083
I1
sVd2cnntz
p2084
I1
sVdkyq8z5
p2085
I1
sVd5mm5h6
p2086
I2
sVdatxtnn
p2087
I5
sVddgk3yr
p2088
I2
sVd9qx4l5
p2089
I2
sVd2gjjfd
p2090
I1
sVdn86cpz
p2091
I1
sVcykj6nb
p2092
I1
sVd5ubats
p2093
I1
sVdk145bw
p2094
I1
sVda92evx
p2095
I7
sVd8hu6xg
p2096
I1
sVdixpnos
p2097
I1
sVd9bttby
p2098
I3
sVdhz7feq
p2099
I1
sVdi6htp9
p2100
I3
sVddqs69r
p2101
I1
sVd4rfybt
p2102
I1
sVdc9vznr
p2103
I1
sVczlmh6v
p2104
I1
sVd3vd9l1
p2105
I1
sVdeqx2vo
p2106
I2
sVdid0uw6
p2107
I1
sVcz9txky
p2108
I4
sVdopk62q
p2109
I2
sVddfj0g8
p2110
I14
sVd7usmr1
p2111
I1
sVdjcl7xm
p2112
I1
sVdnrllxw
p2113
I1
sVd49znnm
p2114
I2
sVd3l9zzy
p2115
I1
sVd69514g
p2116
I5
sVdq1t28n
p2117
I3
sVdhss6d2
p2118
I1
sVdkvojua
p2119
I1
sVcyla1zy
p2120
I2
sVd59c8uh
p2121
I1
sVd9k3o3o
p2122
I1
sVd04kcit
p2123
I1
sVcylupl8
p2124
I1
sVdi9ny6f
p2125
I1
sVczi2ioe
p2126
I1
sVd541nvz
p2127
I3
sVddh4f9x
p2128
I3
sVdexaops
p2129
I1
sVdghwli8
p2130
I7
sVcyphmr6
p2131
I1
sVd3r1vev
p2132
I2
sVd1d7vxx
p2133
I3
sVd77j9nm
p2134
I2
sVddhpohi
p2135
I1
sVdnv5x4o
p2136
I1
sVdtficpi
p2137
I1
sVdmuj2v9
p2138
I2
sVdcmc1tb
p2139
I1
sVdaunfx8
p2140
I2
sVdafz4vl
p2141
I1
sVdjtqo3i
p2142
I1
sVdc3lzgw
p2143
I2
sVd29sckr
p2144
I1
sVdcy3zh5
p2145
I1
sVdb5kbm9
p2146
I2
sVd131agt
p2147
I1
sVdau72np
p2148
I2
sVd6dh3rf
p2149
I4
sVd1t9fe4
p2150
I1
sVd604sqf
p2151
I2
sVdka3x7m
p2152
I1
sVczmf87k
p2153
I1
sVd3qy0ij
p2154
I1
sVdce7tgy
p2155
I1
sVd4jlg8c
p2156
I2
sVd5cpcpf
p2157
I1
sVdb7s9oy
p2158
I1
sVd4myq6g
p2159
I1
sVda90rn7
p2160
I5
sVde8l999
p2161
I2
sVd7m1two
p2162
I7
sVd89hppz
p2163
I1
sVd11l2wo
p2164
I2
sVddw30de
p2165
I1
sVdjqiued
p2166
I1
sVd4sugvm
p2167
I1
sVdnio7op
p2168
I1
sVczz12x0
p2169
I1
sVd4cobil
p2170
I1
sVd2p3b1c
p2171
I1
sVd0o2pjd
p2172
I2
sVdarl30n
p2173
I1
sVdb3cquk
p2174
I6
sVczgx9oz
p2175
I1
sVd67skpz
p2176
I1
sVd01tv6v
p2177
I1
sVd0nudmm
p2178
I1
sVd33bcqf
p2179
I1
sVczgq7ob
p2180
I1
sVd4h4xs6
p2181
I1
sVdb308ys
p2182
I1
sVdbiiuru
p2183
I1
sVdeufs69
p2184
I5
sVdea2epv
p2185
I1
sVd0aaat1
p2186
I1
sVdduzb1q
p2187
I1
sVcyj8yln
p2188
I1
sVcyvdvc8
p2189
I2
sVdb5jxet
p2190
I2
sVdena52k
p2191
I1
sVdmub6k4
p2192
I4
sVde1mzzp
p2193
I1
sVde93mv6
p2194
I1
sVdp82ln8
p2195
I1
sVdf10v7a
p2196
I1
sVdq5k5l7
p2197
I4
sVdfwbrhq
p2198
I1
sVd1w29uo
p2199
I1
sVd10gm6q
p2200
I1
sVd59xdse
p2201
I2
sVd98z3wl
p2202
I1
sVdh1ujss
p2203
I1
sVds3ol5i
p2204
I1
sVd2oe2xk
p2205
I1
sVd2g2jhu
p2206
I1
sVdftxlmp
p2207
I1
sVd7zat5o
p2208
I1
sVd54esp0
p2209
I1
sVczq635e
p2210
I1
sVcyses9o
p2211
I1
sVcyzwxqk
p2212
I9
sVdqi1zvt
p2213
I1
sVddjwkbd
p2214
I1
sVdjhbna9
p2215
I1
sVdrf9oxs
p2216
I1
sVdgt5ns4
p2217
I1
sVcyjvpm6
p2218
I1
sVdatw7bx
p2219
I3
sVddi0c5g
p2220
I1
sVdeqw8n0
p2221
I10
sVd4jn9zh
p2222
I1
sVdnn4jse
p2223
I1
sVd68ui74
p2224
I2
sVdiswfy5
p2225
I2
sVd7fbzf5
p2226
I1
sVcylvpi2
p2227
I2
sVd3jfl4a
p2228
I1
sVdg5uxx6
p2229
I1
sVdelxjyh
p2230
I1
sVd8di0vg
p2231
I1
sVdff8e1c
p2232
I1
sVd5wdo9y
p2233
I2
sVdergld0
p2234
I1
sVddm93a4
p2235
I1
sVcyx9y9z
p2236
I1
sVd0yl5yq
p2237
I1
sVdf0rqlh
p2238
I2
sVd1ahgm7
p2239
I2
sVdmfj6qa
p2240
I1
sVdkde0py
p2241
I3
sVdcbu3yw
p2242
I2
sVddko2p2
p2243
I1
sVd7l6ztc
p2244
I1
sVdojkqbi
p2245
I1
sVd3p4a7f
p2246
I1
sVdf90bp7
p2247
I1
sVdglwh6q
p2248
I4
sVd17p5xq
p2249
I1
sVd4xd564
p2250
I1
sVcz3om5r
p2251
I1
sVcylkqhg
p2252
I7
sVd0aadyr
p2253
I2
sVdcwrddf
p2254
I1
sVd5bpn0p
p2255
I3
sVdibu9lr
p2256
I1
sVdcjzqsv
p2257
I2
sVd8j75b4
p2258
I1
sVdr3c1nv
p2259
I1
sVd3c7wwx
p2260
I1
sVcz93a7v
p2261
I2
sVd2r0r4v
p2262
I1
sVd08ofjo
p2263
I1
sVdokvdd9
p2264
I1
sVdg3wicg
p2265
I1
sVdf7z5gq
p2266
I1
sVcz5cdfb
p2267
I2
sVd251uqm
p2268
I1
sVczm7kje
p2269
I1
sVd23yyrj
p2270
I1
sVczrtxcd
p2271
I1
sVd4sg0sz
p2272
I3
sVd4o0z7h
p2273
I2
sVd83t0lq
p2274
I2
sVd3e8ewr
p2275
I3
sVd83wwpy
p2276
I5
sVd00mh1f
p2277
I2
sVdeb4sg2
p2278
I1
sVczbs4ww
p2279
I3
sVcz32ngy
p2280
I1
sVd8f3kdo
p2281
I3
sVd5ev59o
p2282
I2
sVdjtjgoj
p2283
I2
sVdp2cqgk
p2284
I2
sVd0cixc3
p2285
I1
sVd6f5qu5
p2286
I1
sVdjjj7w1
p2287
I1
sVddmk9rv
p2288
I1
sVd16sfp8
p2289
I1
sVcyixtjp
p2290
I7
sVdraxgsa
p2291
I1
sVd8bsd0v
p2292
I3
sVdd505wk
p2293
I3
sVdr7a04m
p2294
I3
sVdhmdccz
p2295
I2
sVd4jeh5z
p2296
I2
sVd8koagd
p2297
I4
sVd69iqr3
p2298
I1
sVdgabz2a
p2299
I1
sVdf36h7d
p2300
I1
sVdi6wfu8
p2301
I2
sVd21ulkn
p2302
I2
sVdakz2uy
p2303
I2
sVdmwdwzh
p2304
I1
sVczxapcy
p2305
I1
sVdjcl5x8
p2306
I1
sVddjp8ov
p2307
I1
sVdcrexth
p2308
I1
sVdoi2e1y
p2309
I1
sVdf8wl46
p2310
I4
sVdrt9xbx
p2311
I3
sVczwnfvu
p2312
I1
sVdav9u43
p2313
I3
sVddwjcmf
p2314
I2
sVdknt4wd
p2315
I1
sVdgs3tq3
p2316
I2
sVd4n7yyn
p2317
I1
sVczai3i6
p2318
I1
sVczew96n
p2319
I1
sVd98qhbp
p2320
I2
sVd67dku3
p2321
I1
sVd3jz1de
p2322
I1
sVd3nkhtn
p2323
I1
sVddcm4u4
p2324
I1
sVd3uipqx
p2325
I1
sVd8eprs5
p2326
I1
sVdclnl4x
p2327
I1
sVd3qzhlh
p2328
I1
sVd3u487u
p2329
I1
sVd6mcywf
p2330
I2
sVd68ulaz
p2331
I1
sVcz17hqh
p2332
I1
sVdh9p6ks
p2333
I2
sVd1o1hcb
p2334
I1
sVdjtnyz4
p2335
I9
sVdbpxtds
p2336
I1
sVddq2js5
p2337
I3
sVdicxoj8
p2338
I1
sVd039bj6
p2339
I1
sVd7fy8sx
p2340
I1
sVdf3ou86
p2341
I3
sVdajkkcs
p2342
I1
sVd0jfmnm
p2343
I1
sVcypd5l0
p2344
I4
sVde646cj
p2345
I1
sVcyz07ma
p2346
I1
sVdct38my
p2347
I1
sVdatevy0
p2348
I1
sVde8fzun
p2349
I3
sVczjcllu
p2350
I7
sVd0d926n
p2351
I1
sVdn98ni6
p2352
I1
sVde66kub
p2353
I1
sVd3r74a1
p2354
I2
sVdhk5trq
p2355
I1
s.