(dp0
Vczuxukk
p1
I1
s.(dp0
Vczuxukk
p1
I2
s.(dp0
Vczuybxk
p1
I1
sVczuxukk
p2
I1
s.(dp0
Vczuybxk
p1
I1
sVczuxukk
p2
I1
s.(dp0
Vczuxukk
p1
I1
sVda1zerm
p2
I1
s.(dp0
Vczuxukk
p1
I1
sVdhifajt
p2
I1
s.(dp0
Vdo5kye7
p1
I1
sVczuxukk
p2
I1
s.(dp0
Vdo5kye7
p1
I1
sVczuxukk
p2
I1
s.(dp0
Vdo5kye7
p1
I1
sVczuxukk
p2
I1
s.(dp0
Vdo5kye7
p1
I1
sVczuxukk
p2
I1
s.