(dp0
Vdd26t8w
p1
I2
sVdrlkrj1
p2
I1
sVd9xpg09
p3
I1
sVdrkrk8j
p4
I2
sVd91zmqa
p5
I3
sVdcw0rek
p6
I1
sVdke6q5i
p7
I3
sVdiyi4n2
p8
I1
sVd78tgx2
p9
I1
sVd1z5yao
p10
I3
sVdkexj3x
p11
I1
sVd4f1v90
p12
I1
sVdrkrul8
p13
I3
sVd7poizf
p14
I1
sVdrkrr9a
p15
I1
sVdrlap6m
p16
I1
sVd1ttd6t
p17
I1
sVd34p0gy
p18
I3
sVd1i3im3
p19
I1
sVd0xr9oz
p20
I1
sVd7qs7eb
p21
I1
sVdrl5jdf
p22
I8
sVdacycez
p23
I1
sVddmikyw
p24
I1
sVd91zvv1
p25
I2
sVdnlfxkk
p26
I1
sVd7nx8j5
p27
I1
sVd1inwg5
p28
I1
sVd8wz66j
p29
I1
sVd2dizbj
p30
I1
sVda4atuw
p31
I1
sVd09hql8
p32
I1
sVdrop5tl
p33
I6
s.