(dp0
Vdplpte4
p1
I1
sVd0puvcy
p2
I1
sVd3tfg7q
p3
I2
sVdcrv31v
p4
I5
sVd0psb0g
p5
I1
sVdommda2
p6
I1
sVdevl6tz
p7
I2
sVdjykx19
p8
I1
sVdj8gu1b
p9
I1
sVdsl3n62
p10
I1
sVdbjo0kq
p11
I2
sVd0ruhol
p12
I1
sVd2veycj
p13
I2
sVdbh4oof
p14
I1
sVczjan0p
p15
I2
sVddasqbh
p16
I1
sVd3a76zd
p17
I1
sVdd3wves
p18
I1
sVdjwux27
p19
I1
sVd6knwv8
p20
I1
sVd3x49h5
p21
I4
sVda42hld
p22
I1
sVd7gbqqi
p23
I2
sVd0p6v9y
p24
I1
sVd1gtvq5
p25
I1
sVdg8rion
p26
I1
sVda06c1y
p27
I1
sVddiz3ei
p28
I1
sVdrok4uo
p29
I1
sVd468f6f
p30
I1
sVd7rqj0a
p31
I1
sVdrgis0t
p32
I1
sVdpr6mao
p33
I1
sVd3wu0ua
p34
I1
sVdrq37a4
p35
I1
s.