(dp0
Vd7o90y0
p1
I2
sVd7088wk
p2
I1
sVdfcn29b
p3
I2
sVdhn2etw
p4
I1
sVdi4uia0
p5
I1
sVdhne0pv
p6
I1
sVd3npjea
p7
I1
sVdhna25o
p8
I1
sVd4fwh3f
p9
I1
sVd7vb7rb
p10
I2
sVczjufcj
p11
I1
sVd65zz5n
p12
I1
sVd2uhhbd
p13
I1
sVdcu84y0
p14
I1
sVd4bqhwf
p15
I1
sVdhmyqfa
p16
I1
sVcztrith
p17
I4
sVd86sqnm
p18
I2
sVdb3cveg
p19
I1
sVd1eclph
p20
I2
sVdje8r1y
p21
I1
sVcym0066
p22
I1
sVd8hu6xg
p23
I1
sVdhnac9w
p24
I1
sVd3d3z8e
p25
I1
sVdgcacov
p26
I2
sVcyjz9kr
p27
I1
sVd3e56xm
p28
I1
sVdcbhffo
p29
I1
s.