(dp0
Vd3k70ff
p1
I1
sVdd611ae
p2
I5
sVcytstfr
p3
I1
sVd8yxcl9
p4
I1
sVdro8q83
p5
I2
sVd5dwwjc
p6
I1
sVdimtlnu
p7
I3
sVczs4gc4
p8
I1
sVdd7b8eg
p9
I1
sVd1hom60
p10
I1
sVd5dyg1j
p11
I1
sVdrfastf
p12
I2
sVdha7mjw
p13
I1
sVd472ecu
p14
I9
sVcytvymj
p15
I3
sVdd0d9ev
p16
I1
sVd49eta7
p17
I1
sVcyswah6
p18
I1
sVd8z77ge
p19
I1
sVd1szhnk
p20
I3
sVddp7rfl
p21
I2
sVd5dysmx
p22
I1
sVdimr8gg
p23
I1
sVcyt9djt
p24
I5
sVd792us2
p25
I1
sVdg8h7k0
p26
I1
sVdbiicln
p27
I3
sVcytgbpj
p28
I3
sVcyswz3y
p29
I3
sVdg8a1cq
p30
I2
sVd5dhpqi
p31
I3
sVczam84y
p32
I2
sVdrf9feb
p33
I4
sVdha7di7
p34
I1
sVd2jvd3d
p35
I1
sVczse81q
p36
I1
sVdha6u8j
p37
I2
sVdhwr0ry
p38
I4
sVdfzn5lo
p39
I1
sVdefp0l1
p40
I1
sVczr25t5
p41
I1
sVcyt62sy
p42
I1
sVcyteap9
p43
I1
sVd16lut5
p44
I1
sVczigjg1
p45
I1
sVdih6zoi
p46
I2
sVdhwisq0
p47
I5
sVd23duwf
p48
I1
sVd39w2dm
p49
I2
sVd2ozchm
p50
I1
sVdbq3teq
p51
I1
sVd1b45ju
p52
I1
sVd23y871
p53
I2
sVd4735k0
p54
I4
sVdi03clb
p55
I2
sVcyt7m66
p56
I4
sVdro9349
p57
I7
sVd39pwbz
p58
I3
sVdcoc3nv
p59
I1
sVdruzq52
p60
I1
sVdil97wm
p61
I1
sVd39ag0u
p62
I3
sVczao4of
p63
I1
sVd2np6jb
p64
I1
sVd8yx3k7
p65
I1
sVd5e4p6t
p66
I1
sVd6p0tv5
p67
I2
sVd5dwnnj
p68
I1
sVdg89hzk
p69
I1
sVdezg9j5
p70
I1
sVdcniczp
p71
I2
sVd8yx76z
p72
I4
sVd3karqw
p73
I1
sVdefp2mg
p74
I1
sVd3bkzi7
p75
I1
sVdn0pxns
p76
I2
sVd1k1paj
p77
I1
sVcyt9yhs
p78
I1
sVdimlixo
p79
I5
sVdg89fbm
p80
I7
sVd8gfrpr
p81
I3
sVdhqmo7n
p82
I1
s.