(dp0
Vczymgry
p1
I2
sVd39hwd5
p2
I1
sVdfgvv1d
p3
I3
sVd82km6n
p4
I1
sVdcbrvxs
p5
I1
sVdgaxxk6
p6
I1
sVda45z4i
p7
I1
sVdh3fof5
p8
I1
sVdedar83
p9
I3
sVd6xy1ju
p10
I1
sVdmi3sti
p11
I1
sVdp3ja1s
p12
I1
sVdc7oao6
p13
I1
sVde18pvv
p14
I1
sVdg5qrk8
p15
I5
sVdi3ddqg
p16
I1
sVdmuctkg
p17
I2
sVddqs4b9
p18
I1
sVdrsierk
p19
I1
sVd55kpmr
p20
I1
sVderrvbr
p21
I1
sVd52id2f
p22
I1
sVde0o5uh
p23
I1
sVddcr4pl
p24
I2
sVd7ckucm
p25
I1
sVd8cyrxk
p26
I1
sVd27z9zn
p27
I1
sVd33wdma
p28
I1
sVdejlt83
p29
I1
sVdeaoqsw
p30
I4
sVdgnnzcu
p31
I2
sVd8sxv8f
p32
I1
sVd3rdtz6
p33
I1
sVczg7ajz
p34
I1
sVdn5xk9m
p35
I1
sVdp2o8dq
p36
I1
sVdgoj74z
p37
I1
sVd1lrpo2
p38
I2
sVd3i14kp
p39
I1
sVdhdqbl1
p40
I1
sVd4rwt59
p41
I1
sVczbg2gh
p42
I1
sVd3i2gr4
p43
I1
sVdjd4zkw
p44
I1
sVd3svonz
p45
I1
sVd75pqcd
p46
I1
sVcyngryg
p47
I1
sVd4wfecu
p48
I1
sVd3mldej
p49
I1
sVcyjbrvf
p50
I1
sVd03e6ww
p51
I2
sVd2a31zq
p52
I1
sVdqjlz4j
p53
I1
sVdiz5t3s
p54
I1
sVd9n5f1t
p55
I3
sVdpjykxk
p56
I3
sVdcs7p6z
p57
I2
sVd806wzi
p58
I1
sVdajvedy
p59
I1
sVdtdh1h4
p60
I1
sVdd7230j
p61
I1
sVdd4v13r
p62
I3
sVdgojiym
p63
I1
sVdhrcsij
p64
I1
sVd8q4pwz
p65
I2
sVdn2lkku
p66
I1
sVd6pxzxc
p67
I1
sVd8exjdr
p68
I1
sVdedcznh
p69
I1
sVd3j8g5a
p70
I1
sVdd3mz7r
p71
I1
sVdc8wn2c
p72
I1
sVd4b7yi7
p73
I1
sVd2pdes1
p74
I1
sVd9n5rcb
p75
I1
sVdj0l1b6
p76
I1
sVdieuxzj
p77
I1
sVdk9yr1y
p78
I4
sVd1fd9hv
p79
I1
sVd7e2vgw
p80
I1
sVdj2js0i
p81
I1
sVczwrgoo
p82
I1
sVd1v1cdt
p83
I1
sVd09flj7
p84
I2
sVcypxh00
p85
I1
sVdmsiujy
p86
I1
sVdcbogbt
p87
I1
sVd3hicn7
p88
I1
sVd7h5pen
p89
I1
sVdp6zywn
p90
I1
sVdn49fbl
p91
I1
sVdesz6n4
p92
I1
sVdht1gfq
p93
I1
sVdqkiu1x
p94
I2
sVdqjjvnr
p95
I1
sVdearesr
p96
I1
sVd3deoec
p97
I1
sVd1v7e3u
p98
I1
sVdc5j4no
p99
I2
sVdrclfl9
p100
I3
sVddakhzo
p101
I1
sVdbdv2wg
p102
I2
sVdc8agmx
p103
I1
sVd3ef56u
p104
I1
sVdcyuekv
p105
I1
sVd0lxlbf
p106
I1
sVdcgvacy
p107
I1
sVds3i5k1
p108
I1
sVdf8id5w
p109
I1
sVdc43l41
p110
I1
sVdti876l
p111
I1
sVd9i6bm9
p112
I1
sVd68p2ye
p113
I1
sVdf8f0t4
p114
I1
sVd7gp5vs
p115
I1
sVdn3zx2w
p116
I1
sVdmtbsbk
p117
I1
sVd54hcty
p118
I1
sVd6ilwcf
p119
I1
sVdjmz675
p120
I1
sVd5pdoz7
p121
I1
sVcyru24h
p122
I1
sVd9wnp4y
p123
I1
sVdimktbh
p124
I2
sVdjt2mdn
p125
I1
sVdqgv4n0
p126
I1
sVdjnqhgy
p127
I1
sVd4co512
p128
I1
sVdpz9ey8
p129
I1
sVcyvsk2b
p130
I1
sVddrb30i
p131
I1
sVdn63gmq
p132
I1
sVdmyiqfm
p133
I1
sVd118dih
p134
I1
sVcylciv0
p135
I1
sVd1alor4
p136
I1
sVd7untsn
p137
I1
sVd9mu4dy
p138
I2
sVd0zd9ze
p139
I1
sVd5i0bb4
p140
I1
sVd6cbbr1
p141
I1
sVd9br1nc
p142
I1
sVd7h65et
p143
I1
sVdagvd8q
p144
I1
sVd608pws
p145
I1
sVd8euxxq
p146
I1
sVdf1112e
p147
I3
sVdsg4380
p148
I1
sVdeayr7j
p149
I1
sVdf9n9vr
p150
I1
sVdg7qp9c
p151
I2
sVddc7t80
p152
I1
sVd4bcipl
p153
I1
sVdjls66b
p154
I3
sVdhryk7w
p155
I1
sVdfolszy
p156
I1
sVdeayhyj
p157
I1
sVdf42yln
p158
I1
sVdflclis
p159
I1
sVdoamlnj
p160
I1
sVd7fymat
p161
I4
sVdp5wo7p
p162
I1
sVdsfezan
p163
I1
sVdj7mqcg
p164
I1
sVd7ad15e
p165
I1
sVdj773zx
p166
I1
sVd38nz5j
p167
I1
sVdntxrk5
p168
I1
sVdgo9azm
p169
I1
sVdbikiaa
p170
I1
sVdpcs29r
p171
I1
sVdg5pbmj
p172
I8
sVd1f93ve
p173
I1
sVdjw06ws
p174
I1
sVddlgtii
p175
I4
sVdbe3h2v
p176
I3
sVd946mye
p177
I1
sVda6fsgk
p178
I1
sVdge0ldj
p179
I1
sVdcf8nxw
p180
I1
sVd5ybft6
p181
I1
sVdbalor8
p182
I1
sVd1iyyyv
p183
I1
sVdn71dpn
p184
I2
sVcz3hbv9
p185
I1
sVdfwylbp
p186
I1
sVdi9bj8q
p187
I1
sVdjz54s1
p188
I1
sVd7mimkb
p189
I1
sVd3i3h6g
p190
I1
sVde2hy57
p191
I1
sVdo2waut
p192
I1
sVczj2suv
p193
I5
sVd7m7nmu
p194
I1
sVdjxyyz6
p195
I2
sVdcxfrgv
p196
I1
sVd0ij6pg
p197
I1
sVd55c5na
p198
I1
sVd3a2xll
p199
I1
sVdkx69fd
p200
I1
sVd5p2eqt
p201
I1
sVdb8lk8v
p202
I3
sVdb5hdnl
p203
I1
sVd7zrbir
p204
I1
sVd3fclne
p205
I1
sVdiwjr5z
p206
I1
sVczzri6t
p207
I1
sVd8q1csi
p208
I1
sVcymuae3
p209
I1
sVd0rbi0p
p210
I1
sVdc16s8z
p211
I1
sVd8t6xxg
p212
I1
sVd20jjr9
p213
I1
sVdithooy
p214
I2
sVda5ve7v
p215
I1
sVd6yosky
p216
I1
sVd3mitja
p217
I1
sVdkxz1kj
p218
I1
sVd8k3xpz
p219
I1
sVd5y41ab
p220
I1
sVdd5t3k5
p221
I1
sVdqt1b09
p222
I1
sVd84a451
p223
I1
sVdj4kyn9
p224
I1
sVdqc8hwi
p225
I2
sVdpc0yyf
p226
I1
sVd4l4jzp
p227
I1
sVd0c1jw0
p228
I1
sVdo4pnnu
p229
I1
sVdaehssw
p230
I1
sVd4ljlcr
p231
I1
sVdg6spe7
p232
I1
sVd6ve6fs
p233
I1
sVdng0l68
p234
I1
sVdd335ay
p235
I1
sVd31xhab
p236
I1
sVdfyj9dh
p237
I2
sVd4uxmi3
p238
I1
sVdczuepl
p239
I1
sVdo2ovqv
p240
I1
sVd0xa3ea
p241
I1
sVcz7kyid
p242
I1
sVdn5m7m4
p243
I1
sVdruczmp
p244
I1
sVdpxp09r
p245
I1
sVdse4pcn
p246
I1
sVd3ui05c
p247
I1
sVd02uy2w
p248
I2
sVdiumqzb
p249
I1
sVd1vnifv
p250
I1
sVd3pltxk
p251
I1
sVcz2yw37
p252
I1
sVdnarhwd
p253
I1
sVdgoge0c
p254
I1
sVd5abhwf
p255
I1
sVdox9992
p256
I1
sVd1se0ny
p257
I2
sVd0cla8x
p258
I1
sVde2wkx8
p259
I2
sVdagc50j
p260
I1
sVcyz68ht
p261
I2
sVd3kuqjo
p262
I1
sVdequkbc
p263
I1
sVdjf3bnz
p264
I1
sVd8z7o8z
p265
I1
sVd5os35f
p266
I1
sVd3n0uv3
p267
I1
sVde2ezco
p268
I3
sVdgowlvq
p269
I2
sVdr0tjnu
p270
I2
sVd7ju7hd
p271
I2
sVd1o56cu
p272
I1
sVdfdrkj1
p273
I1
sVd3esgc2
p274
I1
sVdn2mjaa
p275
I1
sVdfrouel
p276
I1
sVdhzpml1
p277
I1
sVd8k1uuk
p278
I1
sVd5v66ij
p279
I1
sVd1ssblg
p280
I3
sVdkyhand
p281
I1
sVd7m9gmd
p282
I1
sVd6f2wr4
p283
I1
sVdi1321t
p284
I1
sVd8ql566
p285
I1
sVda6swtj
p286
I1
sVd93w27r
p287
I1
sVd5rxzf3
p288
I4
sVd6szm08
p289
I1
sVdepbj53
p290
I1
sVd3v7nxd
p291
I2
sVd49ew2u
p292
I1
sVd7k2q9m
p293
I2
sVd1xemh8
p294
I1
sVdn6kq2j
p295
I1
sVdda87zr
p296
I1
sVdh3su5v
p297
I1
sVdbe590c
p298
I1
sVd8rcth0
p299
I1
sVd64mw68
p300
I1
sVdi70n57
p301
I1
sVd4lih6i
p302
I1
sVd8pmmk4
p303
I1
sVczs3rru
p304
I1
sVde80s09
p305
I1
sVdf7ytcb
p306
I2
sVdfw025d
p307
I1
sVdir56gj
p308
I1
sVd5n93mw
p309
I1
sVdgnocbu
p310
I1
sVdqn7f0n
p311
I1
sVdhk0zcl
p312
I1
sVd0fsvdh
p313
I1
sVda9xg2w
p314
I1
sVd420p83
p315
I1
sVcypx11x
p316
I1
sVdg92udq
p317
I1
sVdshjvb7
p318
I1
sVdaz84j2
p319
I2
sVczjen3i
p320
I2
sVdpz99dq
p321
I1
sVd57xbnh
p322
I1
sVd6ht7s1
p323
I1
sVd67hoki
p324
I1
sVdatlj50
p325
I1
sVddfqbgf
p326
I2
sVd0yb64s
p327
I1
sVdjkchai
p328
I1
sVd9dc6p6
p329
I1
sVd3f0s5k
p330
I1
sVdd5hqe1
p331
I2
sVdqe2pse
p332
I1
sVdb6eci0
p333
I1
sVdeoeqio
p334
I1
sVdnsk9jm
p335
I1
sVdrwgtzp
p336
I2
sVdi22d1e
p337
I2
sVd1jcobb
p338
I1
sVczvgcvq
p339
I1
sVd9htjwe
p340
I3
sVd54qk3g
p341
I1
sVdn2tm6e
p342
I1
sVd9n21z8
p343
I1
sVdame0ul
p344
I1
sVd3mc33k
p345
I1
sVd83bon0
p346
I2
sVdjes9lq
p347
I1
sVd5y6av3
p348
I1
sVdaw80ol
p349
I1
sVdj9rpy1
p350
I1
sVd5xyh51
p351
I1
sVdjo0nnh
p352
I1
sVddigyx6
p353
I1
sVd7g1mmj
p354
I1
sVdganbb0
p355
I1
sVdes62f6
p356
I1
sVd1j3urs
p357
I1
sVdn154k4
p358
I2
sVd8z426t
p359
I1
sVdb54rat
p360
I1
sVde87l2i
p361
I1
sVdq9apbq
p362
I1
sVd9b5sux
p363
I2
sVdimrxad
p364
I2
sVdepeugk
p365
I1
sVd6q84fo
p366
I1
sVdh6zlty
p367
I1
sVdf4b2d0
p368
I1
sVdcgvjqn
p369
I4
s.