(dp0
Vd2fkfgr
p1
I1
s.(dp0
Vd39w2dm
p1
I1
sVd2fkfgr
p2
I1
s.(dp0
Vdcbqk4s
p1
I1
sVd2fkfgr
p2
I1
s.(dp0
Vdcni3iw
p1
I1
sVd2fkfgr
p2
I1
s.(dp0
Vdd7e3qn
p1
I1
sVd2fkfgr
p2
I1
s.(dp0
Vdd7e3qn
p1
I1
sVd2fkfgr
p2
I1
s.(dp0
Vdjreh68
p1
I1
sVd2fkfgr
p2
I1
s.(dp0
Vdmz66rf
p1
I1
sVd2fkfgr
p2
I1
s.(dp0
Vdrf9feb
p1
I1
sVd2fkfgr
p2
I1
s.