(dp0
Vcyjcswz
p1
I1
s.(dp0
Vcyjcswz
p1
I1
sVcylr87z
p2
I1
s.(dp0
Vcyx9oxq
p1
I1
sVcyjcswz
p2
I1
s.(dp0
Vcyjcswz
p1
I1
sVcyyqfum
p2
I1
s.(dp0
Vcz19e4o
p1
I1
sVcyjcswz
p2
I1
s.(dp0
Vcz3x01p
p1
I1
sVcyjcswz
p2
I1
s.(dp0
Vcz69zvp
p1
I1
sVcyjcswz
p2
I1
s.(dp0
Vcz8d7x7
p1
I1
sVcyjcswz
p2
I1
s.(dp0
Vcyjcswz
p1
I1
sVczbddev
p2
I1
s.(dp0
Vczcip6w
p1
I1
sVcyjcswz
p2
I1
s.(dp0
Vczqp0uh
p1
I1
sVcyjcswz
p2
I1
s.(dp0
Vczqp0uh
p1
I1
sVcyjcswz
p2
I1
s.(dp0
Vczw56dh
p1
I1
sVcyjcswz
p2
I1
s.(dp0
Vcyjcswz
p1
I1
sVczyug91
p2
I1
s.(dp0
Vcyjcswz
p1
I1
sVczz1rxj
p2
I1
s.(dp0
Vd02cfaq
p1
I1
sVcyjcswz
p2
I1
s.(dp0
Vcyjcswz
p1
I1
sVd0g4d89
p2
I1
s.(dp0
Vcyjcswz
p1
I1
sVd0g4d89
p2
I1
s.(dp0
Vd0gnocj
p1
I1
sVcyjcswz
p2
I1
s.(dp0
Vcyjcswz
p1
I1
sVd0hwmoh
p2
I1
s.(dp0
Vcyjcswz
p1
I1
sVd0hwmoh
p2
I1
s.(dp0
Vcyjcswz
p1
I1
sVd0urugw
p2
I1
s.(dp0
Vd13zr84
p1
I1
sVcyjcswz
p2
I1
s.(dp0
Vcyjcswz
p1
I1
sVd19n87k
p2
I1
s.(dp0
Vcyjcswz
p1
I1
sVd1cyrcd
p2
I1
s.(dp0
Vd1woik9
p1
I1
sVcyjcswz
p2
I1
s.(dp0
Vd28x02y
p1
I1
sVcyjcswz
p2
I1
s.(dp0
Vcyjcswz
p1
I1
sVd2anz3x
p2
I1
s.(dp0
Vcyjcswz
p1
I1
sVd2qd5wj
p2
I1
s.(dp0
Vcyjcswz
p1
I1
sVd2qd5wj
p2
I1
s.(dp0
Vcyjcswz
p1
I1
sVd2s8g8d
p2
I1
s.(dp0
Vd2sov8l
p1
I1
sVcyjcswz
p2
I1
s.(dp0
Vd2zzwnc
p1
I1
sVcyjcswz
p2
I1
s.(dp0
Vd2zzwnc
p1
I1
sVcyjcswz
p2
I1
s.(dp0
Vd3bkpon
p1
I1
sVcyjcswz
p2
I1
s.(dp0
Vd3dgmzn
p1
I1
sVcyjcswz
p2
I1
s.(dp0
Vd3k59lw
p1
I1
sVcyjcswz
p2
I1
s.(dp0
Vcyjcswz
p1
I1
sVd3yh9et
p2
I1
s.(dp0
Vcyjcswz
p1
I1
sVd47clix
p2
I1
s.(dp0
Vd49gmso
p1
I1
sVcyjcswz
p2
I1
s.(dp0
Vd4ba495
p1
I1
sVcyjcswz
p2
I1
s.(dp0
Vd4fpsua
p1
I1
sVcyjcswz
p2
I1
s.(dp0
Vd4i8x3e
p1
I1
sVcyjcswz
p2
I1
s.(dp0
Vcyjcswz
p1
I1
sVd4lm5aq
p2
I1
s.(dp0
Vd4oy47q
p1
I1
sVcyjcswz
p2
I1
s.(dp0
Vd4vog7p
p1
I1
sVcyjcswz
p2
I1
s.(dp0
Vcyjcswz
p1
I1
sVd4y2xlm
p2
I1
s.(dp0
Vd507zfq
p1
I1
sVcyjcswz
p2
I1
s.(dp0
Vd51rfho
p1
I1
sVcyjcswz
p2
I1
s.(dp0
Vd55b3av
p1
I1
sVcyjcswz
p2
I1
s.(dp0
Vd5ay2w2
p1
I1
sVcyjcswz
p2
I1
s.(dp0
Vd5dhsmm
p1
I1
sVcyjcswz
p2
I1
s.(dp0
Vd5i7coy
p1
I1
sVcyjcswz
p2
I1
s.(dp0
Vd5n3dz0
p1
I1
sVcyjcswz
p2
I1
s.(dp0
Vd5sr0jn
p1
I1
sVcyjcswz
p2
I1
s.(dp0
Vcyjcswz
p1
I1
sVd657bk3
p2
I1
s.(dp0
Vcyjcswz
p1
I1
sVd657bk3
p2
I1
s.(dp0
Vd69az0e
p1
I1
sVcyjcswz
p2
I1
s.(dp0
Vcyjcswz
p1
I1
sVd6emsns
p2
I1
s.(dp0
Vd6oua51
p1
I1
sVcyjcswz
p2
I1
s.(dp0
Vcyjcswz
p1
I1
sVd6sxh8w
p2
I1
s.(dp0
Vd6zqqfj
p1
I1
sVcyjcswz
p2
I1
s.(dp0
Vcyjcswz
p1
I1
sVd70ypii
p2
I1
s.(dp0
Vd723y72
p1
I1
sVcyjcswz
p2
I1
s.(dp0
Vd723y72
p1
I1
sVcyjcswz
p2
I1
s.(dp0
Vcyjcswz
p1
I1
sVd77tzf2
p2
I1
s.(dp0
Vd7ahdil
p1
I1
sVcyjcswz
p2
I1
s.(dp0
Vcyjcswz
p1
I1
sVd7ay85v
p2
I1
s.(dp0
Vd7e0j1u
p1
I1
sVcyjcswz
p2
I1
s.(dp0
Vd8n9awo
p1
I1
sVcyjcswz
p2
I1
s.(dp0
Vcyjcswz
p1
I1
sVd8u7oyp
p2
I1
s.(dp0
Vd8wwwvp
p1
I1
sVcyjcswz
p2
I1
s.(dp0
Vd978jqb
p1
I1
sVcyjcswz
p2
I1
s.(dp0
Vd9946uu
p1
I1
sVcyjcswz
p2
I1
s.(dp0
Vcyjcswz
p1
I1
sVd99s8bc
p2
I1
s.(dp0
Vd9asqq3
p1
I1
sVcyjcswz
p2
I1
s.(dp0
Vd9gux9s
p1
I1
sVcyjcswz
p2
I1
s.(dp0
Vd9o741a
p1
I1
sVcyjcswz
p2
I1
s.(dp0
Vcyjcswz
p1
I1
sVd9wh9dm
p2
I1
s.(dp0
Vd9x5nw4
p1
I1
sVcyjcswz
p2
I1
s.(dp0
Vda6hbh4
p1
I1
sVcyjcswz
p2
I1
s.(dp0
Vda6hbh4
p1
I1
sVcyjcswz
p2
I1
s.(dp0
Vdaf5thm
p1
I1
sVcyjcswz
p2
I1
s.(dp0
Vcyjcswz
p1
I1
sVdahaqeg
p2
I1
s.(dp0
Vcyjcswz
p1
I1
sVdaoa0k7
p2
I1
s.(dp0
Vdapi0wn
p1
I1
sVcyjcswz
p2
I1
s.(dp0
Vcyjcswz
p1
I1
sVdaqbgot
p2
I1
s.(dp0
Vdav7v4r
p1
I1
sVcyjcswz
p2
I1
s.(dp0
Vdb2xdwr
p1
I1
sVcyjcswz
p2
I1
s.(dp0
Vcyjcswz
p1
I1
sVdbf8itc
p2
I1
s.(dp0
Vdbl9h0l
p1
I1
sVcyjcswz
p2
I1
s.(dp0
Vdblu16s
p1
I1
sVcyjcswz
p2
I1
s.(dp0
Vdbtv9xj
p1
I1
sVcyjcswz
p2
I1
s.(dp0
Vcyjcswz
p1
I1
sVdbz8gx6
p2
I1
s.(dp0
Vdc7k6ia
p1
I1
sVcyjcswz
p2
I1
s.(dp0
Vdciuttt
p1
I1
sVcyjcswz
p2
I1
s.(dp0
Vcyjcswz
p1
I1
sVdd3kvc8
p2
I1
s.(dp0
Vddllu1g
p1
I1
sVcyjcswz
p2
I1
s.(dp0
Vddml0xm
p1
I1
sVcyjcswz
p2
I1
s.(dp0
Vddrscoe
p1
I1
sVcyjcswz
p2
I1
s.(dp0
Vddrscoe
p1
I1
sVcyjcswz
p2
I1
s.(dp0
Vddynb3h
p1
I1
sVcyjcswz
p2
I1
s.(dp0
Vcyjcswz
p1
I1
sVde1uoth
p2
I1
s.(dp0
Vcyjcswz
p1
I1
sVde9mjyb
p2
I1
s.(dp0
Vdeg6epv
p1
I1
sVcyjcswz
p2
I1
s.(dp0
Vcyjcswz
p1
I1
sVdeqkhrd
p2
I1
s.(dp0
Vdf1v3qn
p1
I1
sVcyjcswz
p2
I1
s.(dp0
Vcyjcswz
p1
I1
sVdf4i1bb
p2
I1
s.(dp0
Vcy(dp0
Vds5lr1w
p1
I1
sVcyjcswz
p2
I1
s.