(dp0
Vdbb96ie
p1
I1
sVcz1wkc5
p2
I2
sVd9cvy2y
p3
I1
sVczki86d
p4
I2
sVd3xg8am
p5
I1
sVd61cclx
p6
I1
sVczfuks5
p7
I1
sVd3mtjm4
p8
I1
sVcyjq997
p9
I2
sVd1ftusm
p10
I1
sVcz5gk4e
p11
I1
sVcyml8m3
p12
I1
sVd01qtwi
p13
I1
sVcyml3br
p14
I1
sVd0hlzsq
p15
I1
sVcyjq1gq
p16
I1
s.