(dp0
Vd4ijy4s
p1
I1
sVda6uuud
p2
I1
sVdeedwy6
p3
I1
sVdr0hrm5
p4
I1
sVdhlipy3
p5
I1
sVd0vzsit
p6
I1
sVcz50us7
p7
I1
sVdfmpqlm
p8
I1
sVd0klr2s
p9
I1
sVdka9fbd
p10
I1
sVdbuzf1x
p11
I1
sVd6gybcy
p12
I1
sVdoe7zwi
p13
I1
sVdbbywui
p14
I1
sVdi3dfm1
p15
I1
sVd83i19q
p16
I1
sVcyvs1r6
p17
I1
sVd24aysh
p18
I1
sVdd7ga6a
p19
I1
s.