(dp0
Vcyhvlgq
p1
I1
s.(dp0
Vcyhvlgq
p1
I1
sVcyikros
p2
I1
s.(dp0
Vcyhvlgq
p1
I1
sVcyim58t
p2
I1
s.(dp0
Vcyhvlgq
p1
I1
sVcyix9zp
p2
I1
s.(dp0
Vcyhvlgq
p1
I1
sVcyj6gxj
p2
I1
s.(dp0
Vcyhvlgq
p1
I1
sVcyjdkm2
p2
I1
s.(dp0
Vcyhvlgq
p1
I1
sVcyjgkjv
p2
I1
s.(dp0
Vcyhvlgq
p1
I1
sVcyjifup
p2
I1
s.(dp0
Vcyhvlgq
p1
I1
sVcyjkmh9
p2
I1
s.(dp0
Vcyjvfz7
p1
I1
sVcyhvlgq
p2
I1
s.(dp0
Vcyhvlgq
p1
I1
sVcyk8g7s
p2
I1
s.(dp0
Vcyhvlgq
p1
I1
sVcykdbok
p2
I1
s.(dp0
Vcyhvlgq
p1
I1
sVcykdbok
p2
I1
s.(dp0
Vcyhvlgq
p1
I1
sVcykiw2l
p2
I1
s.(dp0
Vcyhvlgq
p1
I1
sVcykiy1r
p2
I1
s.(dp0
Vcyktwba
p1
I1
sVcyhvlgq
p2
I1
s.(dp0
Vcyhvlgq
p1
I1
sVcyl1iy1
p2
I1
s.(dp0
Vcyhvlgq
p1
I1
sVcyl1iy1
p2
I1
s.(dp0
Vcyhvlgq
p1
I1
sVcyl9081
p2
I1
s.(dp0
Vcyhvlgq
p1
I1
sVcylivyl
p2
I1
s.(dp0
Vcylpwsi
p1
I1
sVcyhvlgq
p2
I1
s.(dp0
Vcyhvlgq
p1
I1
sVcylx63y
p2
I1
s.(dp0
Vcyhvlgq
p1
I1
sVcylyi32
p2
I1
s.(dp0
Vcyhvlgq
p1
I1
sVcylyi32
p2
I1
s.(dp0
Vcyhvlgq
p1
I1
sVcylz2m4
p2
I1
s.(dp0
Vcymbkov
p1
I1
sVcyhvlgq
p2
I1
s.(dp0
Vcyhvlgq
p1
I1
sVcynmma0
p2
I1
s.(dp0
Vcyhvlgq
p1
I1
sVcynmma0
p2
I1
s.(dp0
Vcyo2mm8
p1
I1
sVcyhvlgq
p2
I1
s.(dp0
Vcyonch5
p1
I1
sVcyhvlgq
p2
I1
s.(dp0
Vcyhvlgq
p1
I1
sVcypa8ua
p2
I1
s.(dp0
Vcypevs7
p1
I1
sVcyhvlgq
p2
I1
s.(dp0
Vcyps2t0
p1
I1
sVcyhvlgq
p2
I1
s.(dp0
Vcyhvlgq
p1
I1
sVcyq1ffs
p2
I1
s.(dp0
Vcyqtpoo
p1
I1
sVcyhvlgq
p2
I1
s.(dp0
Vcyhvlgq
p1
I1
sVcysuhu9
p2
I1
s.(dp0
Vcyhvlgq
p1
I1
sVcytdv13
p2
I1
s.(dp0
Vcyhvlgq
p1
I1
sVcyttd9j
p2
I1
s.(dp0
Vcyhvlgq
p1
I1
sVcyv481y
p2
I1
s.(dp0
Vcywul2u
p1
I1
sVcyhvlgq
p2
I1
s.(dp0
Vcyhvlgq
p1
I1
sVcyz3xyw
p2
I1
s.(dp0
Vcyhvlgq
p1
I1
sVcyz7su2
p2
I1
s.(dp0
Vcyhvlgq
p1
I1
sVcyz7zyl
p2
I1
s.(dp0
Vcyhvlgq
p1
I1
sVcyz7zyl
p2
I1
s.(dp0
Vcyzn8u0
p1
I1
sVcyhvlgq
p2
I1
s.(dp0
Vcyhvlgq
p1
I1
sVcz028xh
p2
I1
s.(dp0
Vcz096ep
p1
I1
sVcyhvlgq
p2
I1
s.(dp0
Vcyhvlgq
p1
I1
sVcz2lq0c
p2
I1
s.(dp0
Vcyhvlgq
p1
I1
sVcz37j1h
p2
I1
s.(dp0
Vcyhvlgq
p1
I1
sVcz37wm3
p2
I1
s.(dp0
Vcyhvlgq
p1
I1
sVcz4kfls
p2
I1
s.(dp0
Vcyhvlgq
p1
I1
sVcz4njd6
p2
I1
s.(dp0
Vcyhvlgq
p1
I1
sVcz4v6zb
p2
I1
s.(dp0
Vcyhvlgq
p1
I1
sVcz4v6zb
p2
I1
s.(dp0
Vcyhvlgq
p1
I1
sVcz6is65
p2
I1
s.(dp0
Vcyhvlgq
p1
I1
sVcz6ptlg
p2
I1
s.(dp0
Vcz875qq
p1
I1
sVcyhvlgq
p2
I1
s.(dp0
Vcyhvlgq
p1
I1
sVcz88ks5
p2
I1
s.(dp0
Vcyhvlgq
p1
I1
sVcz8mgew
p2
I1
s.(dp0
Vcyhvlgq
p1
I1
sVcz8sp34
p2
I1
s.(dp0
Vcyhvlgq
p1
I1
sVcz9pslk
p2
I1
s.(dp0
Vcyhvlgq
p1
I1
sVcz9qh9j
p2
I1
s.(dp0
Vczamltp
p1
I1
sVcyhvlgq
p2
I1
s.(dp0
Vczayj0f
p1
I1
sVcyhvlgq
p2
I1
s.(dp0
Vczayj0f
p1
I1
sVcyhvlgq
p2
I1
s.(dp0
Vcyhvlgq
p1
I1
sVczbr3is
p2
I1
s.(dp0
Vcyhvlgq
p1
I1
sVczbx4kq
p2
I1
s.(dp0
Vcyhvlgq
p1
I1
sVczc6cw7
p2
I1
s.(dp0
Vcyhvlgq
p1
I1
sVczc6cw7
p2
I1
s.(dp0
Vcyhvlgq
p1
I1
sVczc6cw7
p2
I1
s.(dp0
Vcyhvlgq
p1
I1
sVczc8osa
p2
I1
s.(dp0
Vcyhvlgq
p1
I1
sVczc8qqx
p2
I1
s.(dp0
Vcyhvlgq
p1
I1
sVczd4ula
p2
I1
s.(dp0
Vcyhvlgq
p1
I1
sVczdisc4
p2
I1
s.(dp0
Vcyhvlgq
p1
I1
sVcze5czr
p2
I1
s.(dp0
Vcyhvlgq
p1
I1
sVczew96n
p2
I1
s.(dp0
Vczfdw3j
p1
I1
sVcyhvlgq
p2
I1
s.(dp0
Vcyhvlgq
p1
I1
sVczfs2uw
p2
I1
s.(dp0
Vcyhvlgq
p1
I1
sVczfs2uw
p2
I1
s.(dp0
Vcyhvlgq
p1
I1
sVczfs2uw
p2
I1
s.(dp0
Vcyhvlgq
p1
I1
sVczh9cj2
p2
I1
s.(dp0
Vcyhvlgq
p1
I1
sVczi2ioe
p2
I1
s.(dp0
Vcyhvlgq
p1
I1
sVczi2ioe
p2
I1
s.(dp0
Vcyhvlgq
p1
I1
sVczi883h
p2
I1
s.(dp0
Vcyhvlgq
p1
I1
sVczj4th5
p2
I1
s.(dp0
Vcyhvlgq
p1
I1
sVczjc4pl
p2
I1
s.(dp0
Vcyhvlgq
p1
I1
sVczjlfxz
p2
I1
s.(dp0
Vcyhvlgq
p1
I1
sVczkqzco
p2
I1
s.(dp0
Vcyhvlgq
p1
I1
sVczku3zn
p2
I1
s.(dp0
Vcyhvlgq
p1
I1
sVczku3zn
p2
I1
s.(dp0
Vcyhvlgq
p1
I1
sVczku3zn
p2
I1
s.(dp0
Vcyhvlgq
p1
I1
sVczku3zn
p2
I1
s.(dp0
Vcyhvlgq
p1
I1
sVczkuign
p2
I1
s.(dp0
Vcyhvlgq
p1
I1
sVczkuign
p2
I1
s.(dp0
Vcyhvlgq
p1
I1
sVczkuign
p2
I1
s.(dp0
Vcyhvlgq
p1
I1
sVczkuign
p2
I1
s.(dp0
Vcyhvlgq
p1
I1
sVczkuign
p2
I1
s.(dp0
Vcyhvlgq
p1
I1
sVczkuign
p2
I1
s.(dp0
Vcyhvlgq
p1
I1
sVczkuign
p2
I1
s.(dp0
Vcyhvlgq
p1
I1
sVczkuign
p2
I1
s.(dp0
Vcyhvlgq
p1
I1
sVczkw841
p2
I1
s.(dp0
Vcyhvlgq
p1
I1
sVczlciq0
p2
I1
s.(dp0
Vcyhvlgq
p1
I1
sVczljot4
p2
I1
s.(dp0
Vcyhvlgq
p1
I1
sVczlt093
p2
I1
s.(dp0
Vcyhvlgq
p1
I1
sVczmc36r
p2
I1
s.(dp0
Vcyhvlgq
p1
I1
sVczmh349
p2
I1
s.(dp0
Vcyhvlgq
p1
I1
sVcznj40c
p2
I1
s.(dp0
Vcznxf86
p1
I1
sVcyhvlgq
p2
I1
s.(dp0
Vcy(dp0
Vcyhvlgq
p1
I1
sVdtihg00
p2
I1
s.