(dp0
Vdjmr41i
p1
I1
sVding2mi
p2
I1
sVd69um1s
p3
I1
sVd4wgyjm
p4
I1
sVdk9mxds
p5
I1
sVd3d6yr5
p6
I1
sVdcud1gq
p7
I1
sVdgglmf1
p8
I2
sVczzfu50
p9
I1
sVd6mb3mw
p10
I1
sVdiu85yp
p11
I1
sVd0vtq8j
p12
I1
sVdbv79o1
p13
I1
sVd0q5l07
p14
I1
sVdgrjj8q
p15
I2
sVdeorok7
p16
I1
sVdemjd0v
p17
I1
sVdg2lp77
p18
I1
sVczkbtjn
p19
I1
sVddry7ka
p20
I1
sVcyo9kqm
p21
I1
sVd0arxh6
p22
I1
sVcyj753o
p23
I1
sVcz5bc4k
p24
I1
sVd949da7
p25
I1
sVdbdtmx0
p26
I1
sVdogqzxn
p27
I1
sVd5rodyy
p28
I1
sVd3k4k93
p29
I1
sVdjcouhs
p30
I1
sVdczg6xg
p31
I1
sVcyr5rrg
p32
I1
sVdbc83xl
p33
I2
sVdhsxq5t
p34
I1
sVdhhh9fg
p35
I1
sVdeuugg3
p36
I1
sVd3ymlsk
p37
I1
sVdfelf23
p38
I2
sVd332wdv
p39
I1
sVdem0lk4
p40
I1
sVdca6nqs
p41
I1
sVczm6izy
p42
I1
sVdt3ny6l
p43
I1
sVdgmd1jp
p44
I1
sVdij40bi
p45
I1
sVd9ci83r
p46
I1
sVd05qebf
p47
I1
sVczigjg1
p48
I1
sVd82a47l
p49
I1
sVd90jlrx
p50
I1
sVdd4m9ep
p51
I1
sVdnru3im
p52
I1
sVd3n054g
p53
I1
sVddon2sb
p54
I1
sVcz4mkcs
p55
I1
sVd8lmduc
p56
I1
sVdok5od0
p57
I1
sVczit6bd
p58
I1
sVd1l1q2l
p59
I1
sVd5y1fwd
p60
I1
sVd5g1zab
p61
I1
sVd3bhvfa
p62
I1
sVdd16ig2
p63
I1
sVd0u2lyx
p64
I1
sVczuxctl
p65
I1
sVddfvkrr
p66
I1
sVd8el50y
p67
I1
sVdefu8gb
p68
I1
sVdnuiul0
p69
I1
sVdeqehj2
p70
I1
sVd4i8so6
p71
I1
sVd1elr6a
p72
I1
sVd353c8t
p73
I1
sVd0cf3ck
p74
I1
sVdjc85ur
p75
I1
sVdcech2t
p76
I1
sVd0hh6uz
p77
I1
sVdbesqw8
p78
I1
sVcyzsd3f
p79
I1
sVcyw8sq3
p80
I1
sVd3f63tb
p81
I1
sVdno0r6i
p82
I1
sVd12mm6f
p83
I1
sVdjk84ke
p84
I1
sVd3qmnpm
p85
I1
sVd8z85bg
p86
I1
sVd8v73r3
p87
I1
sVcypjsr3
p88
I1
sVd4fgmst
p89
I1
sVdj5ejfh
p90
I1
sVd05f7gz
p91
I1
sVcyritu5
p92
I1
sVcywzlak
p93
I1
sVdn4to4a
p94
I1
sVdqlhz81
p95
I1
sVd4jnyy5
p96
I2
sVdfnglng
p97
I1
sVdh5ec8o
p98
I1
sVdfv50c3
p99
I2
sVd23g4rv
p100
I1
sVdd770xm
p101
I1
sVcymto87
p102
I2
sVde715k7
p103
I1
sVd923ks5
p104
I1
sVcyxn5r3
p105
I2
sVd1jl85q
p106
I2
sVdfa2afp
p107
I2
sVdrbokd7
p108
I1
sVdkx5el5
p109
I1
sVd2bwd4u
p110
I6
sVcynzike
p111
I1
sVdc96xtl
p112
I1
sVd476qmj
p113
I1
sVdc4bkgy
p114
I1
sVd9zb9yp
p115
I2
sVcyrrktt
p116
I1
sVdgisjaq
p117
I1
sVd1d47lp
p118
I1
sVdb9l6am
p119
I1
sVdh07zg0
p120
I1
sVdgp16pi
p121
I2
sVdgh5m95
p122
I1
sVd1n5i1e
p123
I4
sVd9e0kjn
p124
I2
sVdghtgi9
p125
I1
sVczww65a
p126
I2
sVd2a784u
p127
I1
sVdibp92f
p128
I1
sVdjdvki7
p129
I1
sVczs5in2
p130
I1
sVd6nxwx0
p131
I2
sVdc8ypvs
p132
I1
sVdhpflsw
p133
I1
sVd7cs70a
p134
I1
sVdqcyup2
p135
I1
sVdc4moqe
p136
I1
sVd1cse70
p137
I1
sVd5aao0i
p138
I4
sVd2z4hib
p139
I1
sVdj114h3
p140
I1
sVd0qr3lc
p141
I1
sVd8aedb3
p142
I2
sVda9wnss
p143
I1
sVd4nprwt
p144
I1
sVd1pqx0u
p145
I1
sVd03lfuh
p146
I1
sVd3dftsd
p147
I3
sVde8heih
p148
I1
sVdomfhhl
p149
I1
sVdeqout4
p150
I1
sVdcwjj2c
p151
I1
sVdfs8f9z
p152
I1
sVdiya58l
p153
I1
sVdrate39
p154
I1
sVdg1iei2
p155
I1
sVd3n9b76
p156
I1
sVdkj0wse
p157
I1
sVdh36rg2
p158
I2
sVdfriizf
p159
I1
sVderqv2l
p160
I1
sVdels333
p161
I1
sVd8fozsz
p162
I1
sVdegq935
p163
I1
sVd69lz27
p164
I1
sVdk7rkmt
p165
I1
sVdd9szh7
p166
I1
sVdmujtll
p167
I1
sVddgt4z4
p168
I5
sVdg4uvho
p169
I2
sVd1xpl8f
p170
I1
sVd7wr6so
p171
I1
sVd4jnqjh
p172
I1
sVd7kq9d7
p173
I1
sVdddj7cw
p174
I1
sVdhjdzan
p175
I1
sVdqe1l3r
p176
I1
sVd0nj61i
p177
I1
sVdjqupwl
p178
I5
sVdg6hwee
p179
I1
sVd18df9r
p180
I1
sVd8ox0zo
p181
I1
sVdexl3ds
p182
I1
sVdfl9i6u
p183
I1
sVdj2vm22
p184
I3
sVd2wqitv
p185
I4
sVd01ucno
p186
I1
sVdn98asx
p187
I1
sVdf4yz1k
p188
I1
sVdbcg7ls
p189
I1
sVdces4dh
p190
I1
sVd9gqte0
p191
I1
sVdi0bg2q
p192
I1
sVd8qsxcm
p193
I1
sVd6ajzr7
p194
I1
sVd6a5fmb
p195
I1
sVdgi3r5r
p196
I1
sVdq8ehl3
p197
I1
sVddrk87f
p198
I2
sVd4l6zu7
p199
I1
sVdrsk6jb
p200
I1
sVdg1d00i
p201
I1
sVdfw5gud
p202
I1
sVd7mrmqt
p203
I1
sVda5jfu3
p204
I1
sVdke2nit
p205
I1
sVd8ppkng
p206
I1
sVde6l0gx
p207
I1
sVd5jb4rd
p208
I1
sVd2r15df
p209
I2
sVdbq1l8e
p210
I3
sVd27a5fb
p211
I1
sVczi1ewu
p212
I1
sVd3ky3cw
p213
I2
sVdqy1en1
p214
I1
sVczl7kb5
p215
I1
sVdmhizxu
p216
I1
sVdecq9tr
p217
I1
sVdctuvhv
p218
I1
sVd0tjukn
p219
I2
sVdazsht1
p220
I1
sVd8s5ljv
p221
I1
sVd3stfeq
p222
I1
sVdgcrf8l
p223
I1
sVd3xur4k
p224
I1
sVd8o69zz
p225
I1
sVdocfw9x
p226
I1
sVd4u4duo
p227
I3
sVdb16e12
p228
I1
sVczu6fs6
p229
I1
sVd4rt885
p230
I1
sVdiiarbp
p231
I1
sVdd60qf6
p232
I1
sVdiulcdc
p233
I1
sVdf142ka
p234
I1
sVd0oau2x
p235
I1
sVd3fr8an
p236
I1
sVdeinesw
p237
I1
sVdgfdl5q
p238
I1
sVd37ik4e
p239
I6
sVd19kmzl
p240
I2
sVdmwwte4
p241
I1
sVd1qmj97
p242
I1
sVd17iawj
p243
I1
sVdfo1vx7
p244
I1
sVd0d9czi
p245
I1
sVdbmf095
p246
I1
sVdqtanpn
p247
I1
sVd279sil
p248
I1
sVcyx30os
p249
I2
sVdn9e9il
p250
I1
sVdc5lrft
p251
I1
sVdgtt9b5
p252
I1
sVdsxkyu4
p253
I1
sVdeuedo4
p254
I1
sVcyslwod
p255
I1
sVd3ldjbr
p256
I1
sVd5ytehx
p257
I1
sVd3vg4gx
p258
I1
sVd6fpcpg
p259
I1
sVde99ahw
p260
I1
sVdoiwmf0
p261
I1
sVd15umdy
p262
I1
sVd5hdly6
p263
I1
sVdoczdpc
p264
I1
sVdh62btb
p265
I1
sVd0bb146
p266
I1
sVd5krvzo
p267
I1
sVde4n3dt
p268
I2
sVczgrr4h
p269
I1
sVdg4em8a
p270
I1
sVd8vztr3
p271
I1
sVcyqvnd9
p272
I3
sVczd2okg
p273
I4
sVd3n0ilj
p274
I1
sVdaxnqnc
p275
I1
sVdd23zev
p276
I1
sVcz4gi8e
p277
I1
sVdbaulp7
p278
I1
sVdt8isxe
p279
I2
sVdfng7me
p280
I1
sVdahwxej
p281
I2
sVd09z7o7
p282
I1
sVd2r7gdk
p283
I2
sVditss9s
p284
I1
sVcysjaoi
p285
I1
sVd2hu3t9
p286
I1
sVdgi0zb9
p287
I1
sVd3si72j
p288
I1
sVdgyhnxf
p289
I1
sVd04td5j
p290
I1
sVd7hkvl2
p291
I1
sVd9gtfoo
p292
I1
sVd2tk46x
p293
I1
sVdcknvtv
p294
I1
sVd72hfs8
p295
I1
sVcz1m3q5
p296
I1
sVdpbxk12
p297
I1
sVd2dsp5b
p298
I2
sVdcxga8s
p299
I1
sVdjckoj8
p300
I1
sVd3pgvtr
p301
I1
sVczh3dq0
p302
I1
sVd6nhbs9
p303
I1
sVdr3yrlz
p304
I1
sVd5rvtiv
p305
I1
sVdbhmhj3
p306
I1
sVda3hauh
p307
I1
sVda9unvx
p308
I1
sVdhgdop4
p309
I1
sVdemh6gc
p310
I1
sVd9xa2hx
p311
I1
sVddhjeob
p312
I2
sVdrulxq0
p313
I1
sVd2ackrw
p314
I1
sVdhausis
p315
I1
sVdi3d83o
p316
I1
sVdjtfmvc
p317
I1
sVdgt9gls
p318
I1
sVd4m9gjg
p319
I1
sVd2o6vmo
p320
I1
sVcyznt3m
p321
I1
sVdea347e
p322
I1
sVd7t8xm0
p323
I1
sVdb3d4su
p324
I2
sVdjf4h0z
p325
I1
sVd3tgowj
p326
I2
sVdn8ngdx
p327
I1
sVdktksbd
p328
I2
sVdepndk9
p329
I1
sVd2ftpp6
p330
I1
sVd1nb96a
p331
I1
sVdcx77u5
p332
I1
sVdt8h5r3
p333
I2
sVd1a0ncd
p334
I1
sVdd89oud
p335
I3
sVdqhn0j9
p336
I1
sVd532hz0
p337
I1
sVdcak3jd
p338
I1
sVd8orwlw
p339
I1
sVdi41u06
p340
I1
sVdj4jzx3
p341
I1
sVcyt6n6a
p342
I1
sVd9iin0u
p343
I2
sVcyqc726
p344
I1
sVdn2y8cl
p345
I1
sVdakus8t
p346
I1
sVdbqfrp8
p347
I1
sVd37dqj9
p348
I1
sVd62gh50
p349
I1
sVdczuepl
p350
I2
sVd8nety3
p351
I1
sVcypp594
p352
I1
sVdizgx2r
p353
I1
sVdt3i1lh
p354
I1
sVd4v5acn
p355
I1
sVd2l23gr
p356
I1
sVd2bqt1c
p357
I1
sVdfvsrk0
p358
I1
sVdge75j7
p359
I1
sVd4pxmok
p360
I1
sVdbzdkyv
p361
I1
sVd853gus
p362
I1
sVd1d2gap
p363
I2
sVdin5sy6
p364
I3
sVcysv93j
p365
I2
sVd4730k9
p366
I2
sVddj4ixm
p367
I1
sVdh7cbq6
p368
I1
sVd3zxi9d
p369
I1
sVdqz233y
p370
I1
sVdpkcbtv
p371
I1
sVd81ihuk
p372
I1
sVdgx4l77
p373
I1
sVd4ro0hk
p374
I1
sVdcpn6oj
p375
I2
sVdj0sc7h
p376
I1
sVdrzsbgb
p377
I1
sVd0fogjg
p378
I1
sVd0er7qm
p379
I3
sVdcca2lk
p380
I1
sVdasxogt
p381
I1
sVd2l8z84
p382
I2
sVd8ym6qb
p383
I1
sVd8bsi4i
p384
I3
sVd8b3r7m
p385
I1
sVd9kjev3
p386
I1
sVd9r7br8
p387
I1
sVdcw7buy
p388
I1
sVdo479lg
p389
I1
sVddrwbj2
p390
I2
sVd1o62zy
p391
I1
sVde4dis7
p392
I1
sVdbe4nvy
p393
I3
sVd7rxhvs
p394
I1
sVdo432op
p395
I1
sVds5amqb
p396
I1
sVdaezlvq
p397
I2
sVdexhvwq
p398
I1
sVd5jlczx
p399
I1
sVcyqiwxr
p400
I2
sVdgjj1oz
p401
I1
sVd8oz0v1
p402
I1
sVd50m1hq
p403
I1
sVdei496c
p404
I1
sVdbo5lu2
p405
I1
sVddh0bs5
p406
I1
sVd015mxq
p407
I1
sVd1xo446
p408
I1
sVd7ad15e
p409
I1
sVd4j1c9n
p410
I1
sVdh8jitr
p411
I1
sVcz9g82t
p412
I2
sVcz9yiv4
p413
I1
sVdbi31ag
p414
I2
sVd2ww0o0
p415
I1
sVd9vouqz
p416
I2
sVd7hfksk
p417
I1
sVdb2snqm
p418
I1
sVdqpme4c
p419
I1
sVd51ldyh
p420
I1
sVdcayien
p421
I1
sVdefb74t
p422
I1
sVdhxvh0j
p423
I1
sVdbiddlt
p424
I1
sVdrs5rxh
p425
I1
sVd8cl2pl
p426
I1
sVdblc1kw
p427
I1
sVd2zlw6p
p428
I1
sVdbz48k9
p429
I1
sVcz4m8u0
p430
I1
sVcyp7spu
p431
I1
sVdp50p71
p432
I1
sVd041rs9
p433
I1
sVd8viw3z
p434
I1
sVd4xgq5h
p435
I1
sVdfwn3sy
p436
I1
sVdtbc828
p437
I1
sVd3mf38c
p438
I1
sVd8rpgpa
p439
I1
sVd2uq7a0
p440
I1
sVczjw9sx
p441
I1
sVdkjysfm
p442
I1
sVd195pn9
p443
I1
sVcywgiwt
p444
I1
sVd7clo1f
p445
I1
sVd6a7au6
p446
I1
sVds0qv6f
p447
I1
sVdccdhrg
p448
I1
sVdbdqhph
p449
I1
sVd1gkxfq
p450
I1
sVd6irzlh
p451
I1
sVd1yl3z9
p452
I1
sVdtae2ob
p453
I1
sVd83dgvq
p454
I1
sVdhn8okr
p455
I1
sVderd8pt
p456
I2
sVd13m8g6
p457
I1
sVdqm8arj
p458
I1
sVdfh182i
p459
I2
sVdf9j5bv
p460
I1
sVdida83t
p461
I1
sVd8vjr1s
p462
I1
sVdaig3re
p463
I1
sVdtji25y
p464
I3
sVd2djjkc
p465
I1
sVd9rhnwq
p466
I1
sVdd38odi
p467
I1
sVd9cyy51
p468
I1
sVcz9vijx
p469
I2
sVdjey4xo
p470
I2
sVd3r8xrw
p471
I1
sVdg469ny
p472
I1
sVdghtih8
p473
I1
sVdfx1xyw
p474
I1
sVdmtw9jk
p475
I1
sVd1c8y9n
p476
I1
sVcz391k2
p477
I1
sVd4se4bk
p478
I1
sVdnc1h0p
p479
I1
sVdpa1gz8
p480
I1
sVd3rytsi
p481
I1
sVdgomlfr
p482
I1
sVdaq3hzq
p483
I4
sVdr1gqj6
p484
I1
sVdoeqp17
p485
I1
sVd0eqc5t
p486
I1
sVdfekaiu
p487
I1
sVd9q0sks
p488
I1
sVdgt56e3
p489
I1
sVdf4c4t5
p490
I1
sVd5mffpz
p491
I1
sVdasbg5p
p492
I1
sVd0jn7w1
p493
I2
sVd2siawd
p494
I1
sVd6sk1z3
p495
I1
sVdkj20vb
p496
I1
sVdatxrqr
p497
I1
sVd639y7t
p498
I1
sVdnr9od1
p499
I1
sVd60c2mn
p500
I1
sVdjuwler
p501
I1
sVd4gbyl2
p502
I3
sVd0kyv6d
p503
I1
sVd2d7yjf
p504
I1
sVd5srk4e
p505
I1
sVdjuuswy
p506
I1
sVcz8upt7
p507
I1
sVd5p2zmc
p508
I3
sVdj2uqzc
p509
I1
sVd5yeof6
p510
I1
sVcysyuyz
p511
I1
sVdcu81sr
p512
I1
sVd0l8zw1
p513
I1
sVdt5xj2c
p514
I1
sVd9hyuy0
p515
I1
sVdfyn30u
p516
I2
sVd2i9tmh
p517
I1
sVddmwzeq
p518
I1
sVdipers0
p519
I2
sVdg4mx3n
p520
I1
sVdnrulwr
p521
I1
sVdggnfwa
p522
I1
sVd5jnfvt
p523
I1
sVd1aerhb
p524
I1
sVdocm069
p525
I1
sVdhx3ppo
p526
I1
sVczc34bx
p527
I1
sVdh7h8ze
p528
I1
sVdgd6kdc
p529
I1
sVd1cv7dq
p530
I1
sVdikbpoi
p531
I1
sVdi9h4n9
p532
I1
sVdmquk01
p533
I1
sVdkwtrta
p534
I1
sVd0bff3v
p535
I1
sVd6blfgg
p536
I3
sVdkf21lj
p537
I1
sVdami57t
p538
I1
sVd5jz2if
p539
I1
sVd4j0ewj
p540
I1
sVdkfna87
p541
I1
sVd7d0p6j
p542
I2
sVd5jg2a9
p543
I1
sVczbp7kr
p544
I1
sVd3guz1c
p545
I1
sVddzwevm
p546
I1
sVdh9v11w
p547
I1
sVdqskd4v
p548
I1
sVd7szv5y
p549
I1
sVczn6rzx
p550
I1
sVd59nwaa
p551
I2
sVdgtc2am
p552
I1
sVd5es4wl
p553
I1
sVdr16ex3
p554
I1
sVd8bemm3
p555
I1
sVd9ke8ku
p556
I2
sVd7v3w27
p557
I1
sVddpzm51
p558
I1
sVdia1i06
p559
I1
sVd61yiml
p560
I3
sVddbdvo7
p561
I1
sVdewkv9i
p562
I1
sVczs5z26
p563
I1
sVczzp4hc
p564
I1
sVczhg2nv
p565
I1
sVdhko1kz
p566
I1
sVd1kx7kp
p567
I1
sVdia2os1
p568
I1
sVd1eig9d
p569
I1
sVcyl1n81
p570
I1
sVdghmwma
p571
I1
sVdb3u1qf
p572
I1
sVd4hc6lh
p573
I1
sVdadat9u
p574
I1
sVda24iyt
p575
I1
sVdg35ss2
p576
I1
sVd5ppg1k
p577
I1
sVdf6ymdi
p578
I1
sVdom7vld
p579
I1
sVczwis6s
p580
I1
sVdhnr25p
p581
I1
sVd2qdpn0
p582
I4
sVcyw1b3c
p583
I1
sVczt24ki
p584
I1
sVd3ifucg
p585
I1
sVd1m9l1g
p586
I1
sVdgo1a2a
p587
I1
sVdmxverm
p588
I1
sVdao7os7
p589
I1
sVd9mg11w
p590
I1
sVdgurboz
p591
I1
sVd2n81hg
p592
I1
sVd16d0vm
p593
I1
sVcz8un8w
p594
I1
sVd93cmo7
p595
I1
sVd8u26z8
p596
I1
sVdi3o8cf
p597
I1
sVdckntwe
p598
I1
sVdoj69wd
p599
I1
sVd0lls7v
p600
I1
sVd7kygdp
p601
I1
sVdsnzvnl
p602
I1
sVdpsws2y
p603
I1
sVd8et7hd
p604
I1
sVdayr2ar
p605
I1
sVdcvpdnx
p606
I1
sVd0qz2uc
p607
I1
sVd65uyvj
p608
I1
sVdiem49s
p609
I1
sVd87heuq
p610
I2
sVd4xg6n8
p611
I1
sVd3fu07n
p612
I1
sVdd8h443
p613
I1
sVd6ot09d
p614
I1
sVcyidhp6
p615
I1
sVdspvp39
p616
I1
sVd97xasf
p617
I1
sVd66js3v
p618
I1
sVdbxur9i
p619
I1
sVd43qxae
p620
I1
sVdkb899a
p621
I1
sVdd1r8fi
p622
I1
sVd3t1cze
p623
I2
sVd9t419x
p624
I1
sVd2gaq17
p625
I1
sVczd51xz
p626
I1
sVczqw2i0
p627
I1
sVd0rdunk
p628
I1
sVdgjl3vt
p629
I2
sVd2bzjvx
p630
I1
sVdoeqt4w
p631
I1
sVd5f3fau
p632
I1
sVd9e5zag
p633
I1
sVd9jwob3
p634
I1
sVd237zh3
p635
I1
sVdi2jokg
p636
I1
sVcyug2m3
p637
I1
sVd8d8dwh
p638
I2
sVdg97oe6
p639
I1
sVczeoame
p640
I2
sVdb12qd5
p641
I1
sVd7hf1oy
p642
I1
sVd587674
p643
I1
sVd9euqtf
p644
I1
sVdtaj2ms
p645
I2
sVd79tgie
p646
I1
sVd9d7zd0
p647
I1
sVd084bkw
p648
I1
sVd62zs51
p649
I1
sVd45mnku
p650
I2
sVd1qy0ga
p651
I2
sVd3ibcz4
p652
I1
sVdatvada
p653
I1
sVd3d0pgl
p654
I1
sVdasvq81
p655
I1
sVd30s6av
p656
I1
sVdiju9zp
p657
I1
sVd6bm93l
p658
I1
sVdo496cy
p659
I1
sVdr7os2k
p660
I1
sVdq1zwmc
p661
I1
sVdh5nyic
p662
I1
sVd1706zx
p663
I1
sVd2bh3om
p664
I1
sVdelv8aj
p665
I1
sVdda67ra
p666
I1
sVd0xfm2j
p667
I1
sVdbusxe1
p668
I1
sVd0dq45r
p669
I1
sVd2tv08r
p670
I1
sVdcbqgui
p671
I2
sVdckl83j
p672
I2
sVdchumy9
p673
I1
sVd4kuwk6
p674
I2
sVdd9qg70
p675
I1
sVd7i31c1
p676
I1
sVdrbidzn
p677
I1
sVd938pcb
p678
I1
sVczdy1zo
p679
I1
sVd1j7qnd
p680
I3
sVdqgcjo2
p681
I1
sVdjm9njy
p682
I1
sVda2ir7i
p683
I1
sVdq563rg
p684
I1
sVdetldd9
p685
I1
sVd5y0xs1
p686
I1
sVdbldvyr
p687
I1
sVd704y00
p688
I2
sVdbomqk3
p689
I1
sVdk6emsj
p690
I1
sVdbykzt6
p691
I1
sVd2xqpzl
p692
I2
sVdovv8c0
p693
I1
sVd9a208v
p694
I2
sVczh3t4l
p695
I1
sVczzxm65
p696
I1
sVdbsycda
p697
I1
sVdb01kod
p698
I1
sVd1iy0u6
p699
I1
sVd63sb9r
p700
I1
sVdd3aaol
p701
I1
sVd2gw6r6
p702
I1
sVdaujhaz
p703
I1
sVd0zwy87
p704
I1
sVd8f6fxy
p705
I1
sVcz01kl2
p706
I2
sVd34cw1s
p707
I1
sVd2z2l3c
p708
I1
sVdns6jf6
p709
I1
sVddwine9
p710
I1
sVdhda4oo
p711
I1
sVdjn0au3
p712
I1
sVdkavg2p
p713
I1
sVd2kuxsh
p714
I1
sVday73pj
p715
I2
sVcziqhro
p716
I1
sVd4989hz
p717
I1
sVd57x4ey
p718
I1
sVd7yedfp
p719
I1
sVcypbkk2
p720
I1
sVdfsceqj
p721
I1
sVdchzo9h
p722
I1
sVdcs3l27
p723
I1
sVdo61ldi
p724
I1
sVd27sfb9
p725
I1
sVdpvbl3d
p726
I1
sVdos7f60
p727
I1
sVdhfie27
p728
I1
sVcz36ymj
p729
I1
sVdeki3zz
p730
I1
sVdf3s9la
p731
I1
sVdqvglw7
p732
I1
sVd15q7ab
p733
I1
sVd26abji
p734
I3
sVd5uku82
p735
I4
sVd1bdh4u
p736
I1
sVd7s5t2i
p737
I1
sVczlgf2x
p738
I1
sVd3tqwii
p739
I1
sVd0qx6nx
p740
I2
sVdk29t67
p741
I1
sVd0ish5o
p742
I1
sVdgggt10
p743
I1
sVdcw3a1s
p744
I1
sVd7t8cix
p745
I1
sVd5zeo85
p746
I1
sVd2p9vmz
p747
I1
sVcyoawdx
p748
I1
sVdiur6oa
p749
I1
sVdosu5ht
p750
I1
sVd1oszz2
p751
I1
sVd285p2z
p752
I2
sVdjxjsyh
p753
I3
sVcyoyhee
p754
I1
sVd7w33f8
p755
I1
sVd6siu0u
p756
I1
sVd3l929q
p757
I1
sVdduu53j
p758
I1
sVdfo14ps
p759
I1
sVd12i1ld
p760
I1
sVdfuc066
p761
I1
sVd2t4mz2
p762
I2
sVcyk80w6
p763
I1
sVd5gy5wl
p764
I1
sVd2jlb6f
p765
I1
sVcylnjxd
p766
I1
sVdec05rh
p767
I1
sVd0qohvo
p768
I1
sVdmfvbox
p769
I1
sVczwm6df
p770
I1
sVd85mx8b
p771
I1
sVd58ygiz
p772
I2
sVddewgym
p773
I2
sVd9q6diz
p774
I1
sVdeadk8o
p775
I1
sVd7cyku1
p776
I1
sVdktjsew
p777
I1
sVd0gx1uh
p778
I1
sVd009lnw
p779
I2
sVcz7hlrc
p780
I2
sVdj0wezm
p781
I1
sVd1elsw1
p782
I1
sVdbn4xd0
p783
I1
sVd7eu1ws
p784
I1
sVd8vbog7
p785
I1
sVd1mabr8
p786
I1
sVd7zde3e
p787
I1
sVdqnr03g
p788
I1
sVdp5b3c9
p789
I1
sVdbwnj19
p790
I1
sVdaonbst
p791
I3
sVd8qbfd4
p792
I1
sVd6es6vj
p793
I1
sVdg4w4tg
p794
I1
sVdgl7tma
p795
I2
sVdk7tbjv
p796
I1
sVdf1fp2z
p797
I1
sVd1yk4h6
p798
I1
sVda67eyz
p799
I1
sVd0ciwz1
p800
I1
sVczm0rbc
p801
I1
sVczx7n3o
p802
I1
sVcyl1y4m
p803
I1
sVczqvz1o
p804
I1
sVd3w0yrj
p805
I1
sVdfvkwgo
p806
I1
sVd4sc1u2
p807
I1
sVd03lywr
p808
I1
sVdchx3b0
p809
I1
sVd3ffffp
p810
I1
sVcyl0jxb
p811
I1
sVczm8d76
p812
I1
sVcz8g5ph
p813
I1
sVdeq3qaq
p814
I1
sVdelbahx
p815
I1
sVdbwi8hc
p816
I2
sVdc8fp9k
p817
I1
sVda13cl0
p818
I1
sVczl8kj3
p819
I2
sVdhdz15z
p820
I1
sVdpczgul
p821
I1
sVd1km4vr
p822
I1
sVd7pp7ep
p823
I1
sVczb6bog
p824
I1
sVdgzdpfd
p825
I1
sVdb41k6z
p826
I1
sVd65fu54
p827
I1
sVd0rn0p8
p828
I1
sVdbvex5u
p829
I1
sVddndckg
p830
I1
sVd0knug4
p831
I1
sVd3ugats
p832
I1
sVd6dm6mz
p833
I1
sVdi6ejot
p834
I1
sVd6hr5la
p835
I4
sVd04v5uw
p836
I1
sVd5xs9cb
p837
I2
sVd37k8hx
p838
I1
sVd1yqor6
p839
I1
sVd0fo5p4
p840
I1
sVd0k9pgp
p841
I1
sVdisaa2o
p842
I1
sVd1jt4o7
p843
I1
sVdc2t3dk
p844
I1
sVd7l2cyk
p845
I1
sVdkgzujp
p846
I1
sVdd9xyik
p847
I1
sVdca1wvm
p848
I2
sVdbig6bd
p849
I1
sVdd6zrel
p850
I1
sVddbx7qi
p851
I1
sVdiijs89
p852
I1
sVd30wnzo
p853
I1
sVdd6t358
p854
I1
sVcytqihf
p855
I1
sVdjj8cgg
p856
I1
sVdi98egt
p857
I2
sVdjilcu9
p858
I1
sVdr0gdnb
p859
I1
sVdeoau9x
p860
I1
sVdfs8pwo
p861
I2
sVdekq96u
p862
I1
sVd9z1dea
p863
I1
sVdqgyvqe
p864
I1
sVdfworm7
p865
I1
sVde6dxsv
p866
I1
sVdg9ns7q
p867
I1
sVdmwwqlt
p868
I2
sVdq0dznw
p869
I1
sVd2xac8z
p870
I2
sVdp23oit
p871
I1
sVd5yobne
p872
I1
sVdb2vipb
p873
I1
sVde0gekx
p874
I1
sVdfnyg2u
p875
I1
sVd9jwzif
p876
I1
sVcyridhq
p877
I1
sVdjyzruc
p878
I1
sVdr8wqlh
p879
I1
sVdbga1zi
p880
I1
sVd5j38dk
p881
I1
sVd8vwyzi
p882
I1
sVcyu0c9o
p883
I1
sVd2hl2u9
p884
I1
sVd4u5k77
p885
I1
sVdfxxs29
p886
I1
sVddagli7
p887
I1
sVd47morb
p888
I1
sVd42g9zg
p889
I2
sVdnksf4u
p890
I1
sVdcuk01c
p891
I1
sVcys7z6v
p892
I3
sVdfalwox
p893
I1
sVddwivwt
p894
I1
sVd5ktfuo
p895
I1
sVdkvcjdk
p896
I1
sVdb3pg2u
p897
I1
sVdixq5a7
p898
I1
sVdrzuor6
p899
I2
sVde8x1i6
p900
I1
sVdby5bfe
p901
I1
sVd4wthuv
p902
I2
sVdfrjpi2
p903
I1
sVczayk8u
p904
I1
sVd6ik7x3
p905
I1
sVdc5m0g8
p906
I1
sVd0epek9
p907
I1
sVd4yy0e3
p908
I1
sVdbb8sik
p909
I1
sVdr0y7mx
p910
I1
sVdbsyvjy
p911
I1
sVd8btn6a
p912
I1
sVd7r4f41
p913
I1
sVdaqqp2i
p914
I1
sVd9mr8q6
p915
I1
sVd4d4q9q
p916
I1
sVdjtm9t6
p917
I1
sVd0tglmk
p918
I1
sVd7qveho
p919
I1
sVdrxtzu1
p920
I1
sVd8rnnjk
p921
I1
sVdenvv44
p922
I1
sVcyo4udf
p923
I1
sVd4yn2ni
p924
I1
sVd8b0ilr
p925
I1
sVdb5a3lc
p926
I1
sVd6wrt6v
p927
I1
sVd86vkwu
p928
I1
sVdfiz2w7
p929
I1
sVcz7s12s
p930
I1
sVd13e8ln
p931
I2
sVd9tnsn2
p932
I1
sVd1t7ol4
p933
I1
sVd2dautb
p934
I1
sVdi7v1rp
p935
I1
sVcze55bz
p936
I1
sVcyz4vkl
p937
I1
sVd3p9sid
p938
I1
sVderatql
p939
I1
sVddyg9ok
p940
I2
sVd05xfhf
p941
I1
sVd2866pk
p942
I1
sVddhhygt
p943
I1
sVdmzbr4p
p944
I1
sVd1yperb
p945
I1
sVd39gn1v
p946
I2
sVd1k7477
p947
I1
sVdsdum3t
p948
I1
sVddgejnm
p949
I1
sVd1q0wxu
p950
I1
sVd1yvz3r
p951
I1
sVd1wzkgf
p952
I1
sVdcsexun
p953
I1
sVd3barqb
p954
I1
sVd3i8trb
p955
I1
sVd6ds15n
p956
I3
sVdeto8cb
p957
I1
sVczaclze
p958
I1
sVd1de719
p959
I1
sVdi35ogu
p960
I1
sVd2q8rn4
p961
I2
sVd65r7ex
p962
I1
sVd5w5nge
p963
I1
sVcyjcwxc
p964
I1
sVdqn3jv0
p965
I1
sVd4878mi
p966
I1
sVdoz0gy6
p967
I1
sVcz1bvzh
p968
I1
sVd3kr63m
p969
I2
sVdj7g1eh
p970
I1
sVd1ij9gs
p971
I2
sVd8shgtu
p972
I1
sVdd9qclu
p973
I1
sVd0kc2j4
p974
I1
sVd9vmnhj
p975
I1
sVdh9wyiu
p976
I1
sVd2ktai6
p977
I1
sVdet0jja
p978
I1
sVdb52tg6
p979
I1
sVd6uhyqi
p980
I1
sVd9dwo24
p981
I1
sVd4rr0g8
p982
I1
sVd0eev7y
p983
I1
sVd6a96e6
p984
I1
sVdb112lh
p985
I2
sVde7xcjo
p986
I1
sVd30w54p
p987
I1
sVd4moziy
p988
I1
sVddu8po2
p989
I1
sVd2ukr56
p990
I1
sVd0oqhbf
p991
I1
sVd7f78pq
p992
I1
sVcyyos8b
p993
I1
sVdaok1qg
p994
I2
sVdi4chvi
p995
I1
sVd95naor
p996
I1
sVd5kdczg
p997
I1
sVd48jaaj
p998
I1
sVdphp33c
p999
I1
sVd3bxb0a
p1000
I3
sVdtfnpmx
p1001
I1
sVd3zunul
p1002
I1
sVd2paopb
p1003
I1
sVd3bffvg
p1004
I3
sVd8b4iqo
p1005
I1
sVd3hdywo
p1006
I1
sVdc3gvrs
p1007
I1
sVd4783qz
p1008
I1
sVdgcz1rx
p1009
I1
sVd0zk10g
p1010
I1
sVd8e2w9s
p1011
I1
sVd6ub63i
p1012
I1
sVdkqum31
p1013
I1
sVd7tagpu
p1014
I1
sVczjs4we
p1015
I1
sVd0izbka
p1016
I1
sVd047s69
p1017
I1
sVd5ausxd
p1018
I1
sVcziqd43
p1019
I2
sVdac9ted
p1020
I1
sVcyzl8qf
p1021
I1
sVdg71hud
p1022
I1
sVdcf2ev3
p1023
I1
sVdn00i3i
p1024
I1
sVd97d4p5
p1025
I1
sVd05eh6c
p1026
I2
sVd5dxb1z
p1027
I1
sVdkvojua
p1028
I1
sVd4xh7ol
p1029
I1
sVdfvpjvf
p1030
I1
sVdqom9lh
p1031
I1
sVcykqzwk
p1032
I1
sVded40bb
p1033
I1
sVdisvuq1
p1034
I3
sVdcxh7az
p1035
I1
sVdnkxwk3
p1036
I1
sVdn2o1xw
p1037
I1
sVdhuqero
p1038
I2
sVd0a07hf
p1039
I2
sVd280jx1
p1040
I1
sVdcwj8xq
p1041
I1
sVdbux9vf
p1042
I3
sVczxyypf
p1043
I1
sVd15veo4
p1044
I1
sVdh3czkc
p1045
I1
sVd1m2mzz
p1046
I1
sVdgina65
p1047
I1
sVd09qeu6
p1048
I1
sVdmf8q0z
p1049
I2
sVd5giklg
p1050
I9
sVd0d7qtv
p1051
I1
sVddk5v21
p1052
I1
sVd156quy
p1053
I1
sVd3vxt0h
p1054
I1
sVda0yl9z
p1055
I1
sVd1taspd
p1056
I1
sVd2uz6cx
p1057
I1
sVdk8kcsa
p1058
I1
sVde2ibub
p1059
I1
sVcz9rbcx
p1060
I2
sVd011wnv
p1061
I1
sVdbh94m2
p1062
I1
sVdht7mov
p1063
I2
sVdibn3f0
p1064
I1
sVd6a6qwp
p1065
I1
sVdixd8dl
p1066
I1
sVddw86p1
p1067
I1
sVd5aosyu
p1068
I1
sVd9dz04h
p1069
I1
sVd1xozho
p1070
I1
sVdipjbz7
p1071
I1
sVd6m28fq
p1072
I1
sVddnayb6
p1073
I1
sVcykswkd
p1074
I1
sVdofmv1s
p1075
I2
sVczzsgkb
p1076
I1
sVdj3v1rw
p1077
I1
sVda3nxi7
p1078
I1
sVd6vltqr
p1079
I1
sVdjc3lhc
p1080
I1
sVddggghv
p1081
I1
sVdgpu58m
p1082
I1
sVd9elyb7
p1083
I1
sVd19okv8
p1084
I1
sVd1s236z
p1085
I1
sVdj303ug
p1086
I2
sVd3uu0jm
p1087
I1
sVdkcieyp
p1088
I1
sVdj2zpet
p1089
I2
sVd5a6bls
p1090
I1
sVdfgyah5
p1091
I1
sVdivyxvk
p1092
I1
sVd6biz3q
p1093
I1
sVdf6idef
p1094
I1
sVdb6jzej
p1095
I1
sVda5wzyg
p1096
I1
sVd0kpyd6
p1097
I1
sVd90pgfi
p1098
I1
sVd6je6da
p1099
I1
sVdftacil
p1100
I1
sVddou1tq
p1101
I1
sVdpti359
p1102
I1
sVd5fz5aj
p1103
I2
sVdnnqp7x
p1104
I1
sVczz4z2g
p1105
I1
sVd6wx3ua
p1106
I1
sVd63who1
p1107
I1
sVd88vdlm
p1108
I1
sVdijt1na
p1109
I1
sVdb56nix
p1110
I1
sVd5vt6qw
p1111
I1
sVd78rj2r
p1112
I1
sVdqhjjw1
p1113
I1
sVd0xbqri
p1114
I1
sVd022z4j
p1115
I1
sVdqd224d
p1116
I1
sVcyoulme
p1117
I1
sVdtii0al
p1118
I1
sVd8rangv
p1119
I1
sVd05kugt
p1120
I1
sVdj4bu9d
p1121
I1
sVd9xdzwn
p1122
I1
sVd8bad4w
p1123
I2
sVdh4e6cc
p1124
I1
sVdipezoy
p1125
I2
sVdi97xsc
p1126
I1
sVdfnnojb
p1127
I1
sVdfkhc13
p1128
I2
sVdiminjp
p1129
I1
sVdkyrzzs
p1130
I1
sVdpcuvtn
p1131
I1
sVcz664xf
p1132
I1
sVcyjjb1s
p1133
I1
sVdfnw9b9
p1134
I2
sVd52pqji
p1135
I1
sVddwxaxs
p1136
I5
sVdg4wdv2
p1137
I3
sVd08b9d0
p1138
I1
sVczes8yg
p1139
I1
sVdenxjzx
p1140
I1
sVd6f3idu
p1141
I1
sVd3y8dww
p1142
I1
sVdkmy322
p1143
I1
sVczbu94s
p1144
I2
sVdeatnlu
p1145
I1
sVd3kwg5j
p1146
I1
sVdib8t1b
p1147
I1
sVcz4m4bu
p1148
I1
sVdc67nia
p1149
I1
sVdktpmid
p1150
I1
sVd2yltn0
p1151
I1
sVdi9y2kf
p1152
I1
sVd1n2pop
p1153
I1
sVd1ztkzr
p1154
I1
sVd0rmcen
p1155
I1
sVd3axts5
p1156
I1
sVdesglal
p1157
I1
sVdg2dpzk
p1158
I1
sVd24acwv
p1159
I2
sVdej6v1j
p1160
I1
sVd3s7uo8
p1161
I1
sVd24f5nw
p1162
I1
sVdf6f55g
p1163
I1
sVdbeams6
p1164
I1
sVdidklb7
p1165
I1
sVczt5m5d
p1166
I1
sVdb91o4b
p1167
I1
sVdfrikyg
p1168
I1
sVdj7xqkt
p1169
I3
sVdde7man
p1170
I1
sVd0pur1k
p1171
I1
sVdgrqjzj
p1172
I1
sVdaw7xsq
p1173
I1
sVd3tg7lg
p1174
I1
sVdcwrm8d
p1175
I3
sVd7qv86t
p1176
I1
sVdgtcq69
p1177
I1
sVd61n9ft
p1178
I1
sVdb67dw3
p1179
I1
sVdebhjx1
p1180
I1
sVdj24zt9
p1181
I1
sVdj5v5zc
p1182
I1
sVdbyr086
p1183
I1
sVdiheejj
p1184
I1
sVdsustqy
p1185
I4
sVd415vsx
p1186
I1
sVdd8lebz
p1187
I1
sVd0wfy47
p1188
I1
sVd5e79b4
p1189
I1
sVde88ct7
p1190
I1
sVdbilc4q
p1191
I2
sVd1o5h1v
p1192
I2
sVdkrmx2w
p1193
I1
sVd8cllpx
p1194
I1
sVd0b9ua9
p1195
I1
sVd1it4ah
p1196
I1
sVd8c0dfo
p1197
I1
sVd3zo4xd
p1198
I1
sVczrw2h5
p1199
I1
sVd4l6qz4
p1200
I2
sVd0ymjea
p1201
I1
sVdsqauz5
p1202
I1
sVddahh43
p1203
I1
sVde4txea
p1204
I4
sVd7rxkya
p1205
I1
sVdcmkziy
p1206
I1
sVdn988xg
p1207
I1
sVcyl0mdr
p1208
I1
sVd1tkoh5
p1209
I1
sVdjmpt2t
p1210
I2
sVdndbwet
p1211
I1
sVd9g2xf6
p1212
I1
sVd33jva0
p1213
I1
sVd0vz75q
p1214
I1
sVdaacif6
p1215
I3
sVd0eou02
p1216
I3
sVdp31kk2
p1217
I1
sVdmzabv1
p1218
I1
sVdhq1qie
p1219
I1
sVczx0mln
p1220
I1
sVd0xb9a8
p1221
I2
sVdhcm7wm
p1222
I1
sVczthpkp
p1223
I1
sVdihnoix
p1224
I2
sVd4oamg3
p1225
I1
sVd984j9k
p1226
I1
sVd17lp74
p1227
I1
sVd7x2tsh
p1228
I1
sVd35bb9g
p1229
I1
sVde4k6x3
p1230
I1
sVdjtweoh
p1231
I3
sVdp8yece
p1232
I2
sVd7w3z4j
p1233
I1
sVdc2epct
p1234
I1
sVda0w8gy
p1235
I1
sVdnmuekx
p1236
I1
sVdbq2b1w
p1237
I1
sVdba5qxb
p1238
I1
sVcz0d0wd
p1239
I1
sVd1rulrl
p1240
I1
sVd1cuplz
p1241
I2
sVda6x84d
p1242
I1
sVdbev2lk
p1243
I1
sVd2hc0yq
p1244
I1
sVddolpsd
p1245
I5
sVdornh34
p1246
I1
sVdbuplm8
p1247
I1
sVczj88a2
p1248
I1
sVdebebbn
p1249
I3
sVd2c56el
p1250
I1
sVd36dtnt
p1251
I1
sVdkskpdw
p1252
I1
sVdb19usi
p1253
I1
sVd59l7ox
p1254
I1
sVdir2a8i
p1255
I1
sVdbqmql6
p1256
I3
sVd7stiky
p1257
I1
sVdb3x5xh
p1258
I1
sVdcbcsz0
p1259
I1
sVdry2hp3
p1260
I1
sVdg4bq5z
p1261
I1
sVd2o29rv
p1262
I1
sVd9n54el
p1263
I1
sVdcaa3qz
p1264
I1
sVd28b5iu
p1265
I1
sVds42eu4
p1266
I1
sVdiymsoa
p1267
I1
sVdgfx67j
p1268
I1
sVdms6uuc
p1269
I1
sVd0h032o
p1270
I1
sVdpw9pma
p1271
I1
sVdiz6csg
p1272
I1
sVcyum7x6
p1273
I1
sVd21curt
p1274
I1
sVda3pea2
p1275
I1
sVderd6ws
p1276
I1
sVddnb8e7
p1277
I1
sVcylazau
p1278
I1
sVdffa101
p1279
I1
sVdml77mh
p1280
I1
sVdejdyin
p1281
I1
sVdkf853t
p1282
I2
sVdfnuiyg
p1283
I1
sVdhzn1cq
p1284
I1
sVd7i8bwg
p1285
I1
sVd727hf1
p1286
I1
sVd07hxsj
p1287
I1
sVdfh2a7e
p1288
I2
sVdrtf9s6
p1289
I1
sVdf3s2xd
p1290
I1
sVcyu5qid
p1291
I1
sVddcqo6v
p1292
I1
sVd472v1m
p1293
I2
sVdewydva
p1294
I1
sVd1kwc0b
p1295
I1
sVcyvpndf
p1296
I2
sVda8f1y1
p1297
I1
sVdcye5ts
p1298
I2
sVdgrogt4
p1299
I1
sVdf73dcf
p1300
I1
sVdftzs8m
p1301
I1
sVdeezz1w
p1302
I1
sVdea8l91
p1303
I1
sVd0emmpj
p1304
I2
sVd7gjb86
p1305
I1
sVdpq1rej
p1306
I1
sVdqe926y
p1307
I1
sVd9jngcg
p1308
I1
sVczxebod
p1309
I1
sVdoiuaw2
p1310
I1
sVddyp0d0
p1311
I1
sVdezdcwh
p1312
I1
sVd0d2xdo
p1313
I1
sVd5w8sd4
p1314
I1
sVd0cqtvo
p1315
I2
sVd2g6sar
p1316
I1
sVd0gs22c
p1317
I1
sVd00r92z
p1318
I1
sVdbevisx
p1319
I1
sVd4xl2av
p1320
I1
sVde9leoo
p1321
I2
sVd5l1ykh
p1322
I1
sVczd4jzf
p1323
I1
sVczi7hhc
p1324
I1
sVd1gd94i
p1325
I1
sVdbahgwq
p1326
I1
sVdbxt6zx
p1327
I1
sVd2b1e2m
p1328
I1
sVddbv80n
p1329
I1
sVd8it1vx
p1330
I1
sVdcfpr8c
p1331
I1
sVdaqj7xo
p1332
I2
sVcys7ie3
p1333
I1
sVdfgm54l
p1334
I1
sVd7i4rzv
p1335
I1
sVdawqptp
p1336
I2
sVd3uckqh
p1337
I1
sVcz2tnqt
p1338
I1
sVd6l12rt
p1339
I2
sVd95xe4i
p1340
I1
sVd4kp7dr
p1341
I1
sVdtbv3em
p1342
I1
sVcz0wt82
p1343
I1
sVcz5fusi
p1344
I1
sVd13n8kg
p1345
I1
sVdgdppkm
p1346
I1
sVd94ws6w
p1347
I1
sVdaqp1r6
p1348
I1
sVd1yl246
p1349
I1
sVd5ugn21
p1350
I1
sVd31r33r
p1351
I1
sVdnt5588
p1352
I1
sVd8ay70m
p1353
I2
sVdo1u911
p1354
I1
sVd4tc6cb
p1355
I1
sVdhjfcuf
p1356
I1
sVd4rzmbi
p1357
I1
sVd1btyrk
p1358
I1
sVd6b19u6
p1359
I1
sVdbe72iu
p1360
I3
sVdb4150o
p1361
I1
sVdenx4v7
p1362
I1
sVdcrsq30
p1363
I1
sVdt8hipc
p1364
I1
sVd0tkmrp
p1365
I1
sVdh1iby6
p1366
I1
sVd1pajug
p1367
I1
sVd66x0wd
p1368
I1
sVdex4pds
p1369
I1
sVdsdo1b0
p1370
I3
sVd0k6xhg
p1371
I1
sVcynx8dw
p1372
I1
sVdgonb43
p1373
I1
sVd2bgclm
p1374
I1
sVdk1xctd
p1375
I1
sVdhjts6p
p1376
I1
sVdcw7qbc
p1377
I1
sVdii9kn3
p1378
I1
sVd5t8d12
p1379
I1
sVd5dactb
p1380
I2
sVdbyrsnh
p1381
I1
sVdam173b
p1382
I1
sVd3o00mu
p1383
I1
sVdrnciuh
p1384
I1
sVddduazk
p1385
I1
sVcyykkdz
p1386
I1
sVd0qzbqp
p1387
I2
sVdh7wv7z
p1388
I2
sVczdrt69
p1389
I1
sVdnhv2zn
p1390
I1
sVdfk5979
p1391
I1
sVdcuafki
p1392
I1
sVdafplaf
p1393
I1
sVd9e6njs
p1394
I1
sVdn4c9bh
p1395
I1
sVdecsgxe
p1396
I2
sVd1mmjmx
p1397
I1
sVdgm8d7y
p1398
I1
sVdapa3f2
p1399
I1
sVczgchr0
p1400
I1
sVd1pa6gk
p1401
I1
sVdgfqjm6
p1402
I1
sVcz96w0e
p1403
I1
sVd7ifqky
p1404
I1
sVd8v0rye
p1405
I1
sVczb9aku
p1406
I1
sVd6vgsrl
p1407
I1
sVd06vbz5
p1408
I2
sVd6m8fk4
p1409
I1
sVdgf69hn
p1410
I1
sVdratm9x
p1411
I1
sVdmr9mdw
p1412
I1
sVd201lv1
p1413
I1
sVczhix9g
p1414
I1
sVdih7229
p1415
I1
sVdgy4vhw
p1416
I1
sVd2cay0u
p1417
I1
sVd18cqrp
p1418
I1
sVd39aaz9
p1419
I1
sVdbspxch
p1420
I1
sVd2tyz67
p1421
I1
sVd1s5y66
p1422
I1
sVd6ba4fp
p1423
I1
sVd229mkp
p1424
I1
sVd3nbkvt
p1425
I1
sVdo9h4m2
p1426
I1
sVd90ly92
p1427
I1
sVd460y0n
p1428
I1
sVd18l2eb
p1429
I1
sVd2dd2fm
p1430
I1
sVdq8ennv
p1431
I1
sVdii4rdv
p1432
I1
sVdh5b261
p1433
I1
sVd9i7rcx
p1434
I1
sVdcuqvov
p1435
I1
sVd41rzkp
p1436
I2
sVdk52ue2
p1437
I1
sVdkxdit1
p1438
I1
sVdhn7znw
p1439
I1
sVdn85bdm
p1440
I1
sVdsqmds3
p1441
I1
sVddj0y84
p1442
I1
sVcyve721
p1443
I1
sVcz845mm
p1444
I1
sVdizyop6
p1445
I1
sVd9bss4t
p1446
I1
sVdj2vpiv
p1447
I1
sVd29yl4h
p1448
I1
sVdcm2jy1
p1449
I1
sVd1ssblg
p1450
I1
sVd9kwt59
p1451
I1
sVdec693h
p1452
I1
sVdballym
p1453
I3
sVdt42f5r
p1454
I1
sVd0t84oq
p1455
I1
sVdd4tqbt
p1456
I2
sVdmfwtiq
p1457
I1
sVdhkbrld
p1458
I1
sVdauzhzd
p1459
I1
sVd9zifxp
p1460
I1
sVdau2ko5
p1461
I3
sVdf7k1lw
p1462
I3
sVd3px2i4
p1463
I1
sVd7dha7t
p1464
I1
sVday8l41
p1465
I1
sVdadtple
p1466
I1
sVd02m7qg
p1467
I1
sVdbfzmk2
p1468
I1
sVd010iy9
p1469
I1
sVdco8f50
p1470
I1
sVd0s9a1j
p1471
I1
sVdb5e68z
p1472
I1
sVczq2avd
p1473
I3
sVdrqfrer
p1474
I1
sVdhdaxra
p1475
I1
sVd00tt47
p1476
I1
sVd76cztn
p1477
I1
sVd2ze07l
p1478
I1
sVd4zciyn
p1479
I2
sVd448j5g
p1480
I2
sVd3i0mis
p1481
I1
sVd6l4rq3
p1482
I1
sVdaqra4v
p1483
I2
sVdg8ovq2
p1484
I1
sVdrdl79e
p1485
I1
sVdi2fthc
p1486
I1
sVd7kc98u
p1487
I1
sVd5sljkx
p1488
I1
sVdd5uu8l
p1489
I1
sVd233keh
p1490
I1
sVdnjd1zy
p1491
I1
sVdcwrtry
p1492
I3
sVd4ph413
p1493
I1
sVdajr89w
p1494
I1
sVdj1v7lp
p1495
I1
sVddxeyfj
p1496
I1
sVdtgj09h
p1497
I1
sVdatlye2
p1498
I3
sVd2y9sck
p1499
I1
sVdemj85m
p1500
I1
sVd7r0dz4
p1501
I1
sVdnw664m
p1502
I1
sVdq6b0ug
p1503
I1
sVdb60bkd
p1504
I1
sVdg34k29
p1505
I2
sVd94ykow
p1506
I3
sVda4j17n
p1507
I1
sVcz9qvyl
p1508
I1
sVdh7ewvi
p1509
I1
sVdbjie5f
p1510
I2
sVczbuyzg
p1511
I1
sVdcxlrdx
p1512
I1
sVd5f12nc
p1513
I1
sVczro77e
p1514
I1
sVdcc9w8t
p1515
I1
sVdcy57zp
p1516
I1
sVdhloil6
p1517
I1
sVdd198oa
p1518
I1
sVdtagndv
p1519
I1
sVd1jfkl4
p1520
I1
sVd3pc3os
p1521
I1
sVcyn7a2d
p1522
I1
sVdhdczg7
p1523
I1
sVdihau6o
p1524
I3
sVcyr3k10
p1525
I1
sVd0b9rsx
p1526
I1
sVcym3ml9
p1527
I1
sVd728s3k
p1528
I1
sVdefmvpx
p1529
I1
sVddjfeps
p1530
I1
sVddzheh2
p1531
I1
sVde97tyx
p1532
I1
sVdgo1z1k
p1533
I1
sVdcaluj5
p1534
I1
sVdf3bsqh
p1535
I1
sVd3iwtzm
p1536
I1
sVdbqe0l9
p1537
I3
sVd5ze435
p1538
I1
sVd6mhg01
p1539
I1
sVcyw0qcb
p1540
I2
sVde92i2r
p1541
I1
sVcz8cboi
p1542
I1
sVd2d7s2z
p1543
I1
sVdfa3s25
p1544
I1
sVdarbcal
p1545
I1
sVd4ymyfn
p1546
I2
sVdoernc4
p1547
I1
sVdjbypzq
p1548
I1
sVd063pd6
p1549
I1
sVd7n44a7
p1550
I1
sVdjy5v9e
p1551
I1
sVd62ucja
p1552
I2
sVd22pgbf
p1553
I1
sVd0jkdrc
p1554
I1
sVdcpkk8j
p1555
I6
sVdgaj4eq
p1556
I1
sVdjt3wb4
p1557
I3
sVd3qb4mw
p1558
I2
sVdaww5tu
p1559
I1
sVdaaxgkd
p1560
I1
sVdmjj9to
p1561
I1
sVdhgarbl
p1562
I1
sVdc2zy2f
p1563
I1
sVd0ptpt7
p1564
I1
sVczxm7id
p1565
I1
sVd7h39aj
p1566
I1
sVd3zl2jz
p1567
I1
sVdnawmyh
p1568
I1
sVd4e5akd
p1569
I1
sVd88eyfm
p1570
I1
sVd00jqzg
p1571
I1
sVdelagbb
p1572
I1
sVdezfhzz
p1573
I1
sVdjs3err
p1574
I1
sVdfnglox
p1575
I1
sVdahcnso
p1576
I1
sVd1lekxk
p1577
I1
sVd13v62i
p1578
I2
sVdelymjf
p1579
I1
sVdc6rbzu
p1580
I1
sVd2srn1i
p1581
I1
sVd52tdjc
p1582
I1
sVd4ipi9t
p1583
I1
sVdglmy1b
p1584
I1
sVd9tssbq
p1585
I1
sVddt50tb
p1586
I1
sVd6n96w4
p1587
I1
sVcze7uaq
p1588
I4
sVd8496do
p1589
I1
sVdgigbpz
p1590
I1
sVdi0whef
p1591
I2
sVddkwe18
p1592
I1
sVcz6rhwr
p1593
I1
sVdgtn2eg
p1594
I1
sVd9h8f80
p1595
I1
sVd1z2bgm
p1596
I1
sVd7e4reh
p1597
I1
sVcz9bzq7
p1598
I1
sVd5ppqyj
p1599
I1
sVcylyefw
p1600
I1
sVd8c1f7o
p1601
I1
sVdf9zsoq
p1602
I1
sVdcuczqk
p1603
I2
sVdfiye9d
p1604
I1
sVcz741rm
p1605
I1
sVd7bac70
p1606
I1
sVdh4vof3
p1607
I1
sVczhocsy
p1608
I1
sVdidxfq8
p1609
I1
sVcyptv0l
p1610
I1
sVdcb8cba
p1611
I1
sVd1i8r9m
p1612
I1
sVdmhdrjv
p1613
I1
sVdfve9sf
p1614
I2
sVdfksyjg
p1615
I1
sVdirappx
p1616
I1
sVdbn5rj4
p1617
I1
sVde96wmu
p1618
I1
sVdmu6cvd
p1619
I2
sVdgeh26g
p1620
I1
sVdhaf5q9
p1621
I1
sVd0wn8t6
p1622
I1
sVczv2md7
p1623
I2
sVdmp42th
p1624
I2
sVdfc63cm
p1625
I2
sVddtjq2x
p1626
I1
sVd2i72wb
p1627
I3
sVdept5zp
p1628
I1
sVd5l3t1q
p1629
I1
sVd66lt91
p1630
I1
sVd6a388u
p1631
I1
sVdc7juna
p1632
I2
sVdi0tmlz
p1633
I1
sVdndw76g
p1634
I1
sVdcgcxa4
p1635
I1
sVd6j3ezh
p1636
I1
sVdjixq3e
p1637
I1
sVdoerqwv
p1638
I1
sVdizugjb
p1639
I1
sVcz36hm6
p1640
I1
sVd02mptv
p1641
I1
sVdhpbpb0
p1642
I3
sVcyi20eu
p1643
I1
sVdesd4cw
p1644
I1
sVdnbifeh
p1645
I1
sVdb0fx9k
p1646
I1
sVdke5t95
p1647
I3
sVd26gtpa
p1648
I1
sVd1jzegs
p1649
I1
sVdbwx378
p1650
I2
sVde1c5rg
p1651
I1
sVdf9ttro
p1652
I2
sVd81ujgz
p1653
I1
sVczm8v0p
p1654
I1
sVdn183ru
p1655
I2
sVcyp17qb
p1656
I1
sVd50tsns
p1657
I1
sVdbirzkb
p1658
I1
sVd0llswe
p1659
I1
sVcyt7coi
p1660
I1
sVcyjog1y
p1661
I1
sVd7hlaxd
p1662
I1
sVdi5d3e1
p1663
I1
sVd1oji6b
p1664
I2
sVddwwh1x
p1665
I1
sVd06xker
p1666
I1
sVd4pln6h
p1667
I1
sVd8py45r
p1668
I1
sVdco7bar
p1669
I1
sVd67sbik
p1670
I1
sVd3u5lfx
p1671
I1
sVd5dwwjc
p1672
I1
sVdkew4vu
p1673
I2
sVd0re2st
p1674
I2
sVd15aqri
p1675
I1
sVd3sygl0
p1676
I1
sVdmzoqph
p1677
I1
sVdbcv32x
p1678
I1
sVdjx5hnx
p1679
I1
sVdd9w9jj
p1680
I2
sVd8rav9p
p1681
I1
sVd7yhhap
p1682
I1
sVdqiwen2
p1683
I1
sVdghe9kq
p1684
I1
sVd3i4l7w
p1685
I2
sVd160kca
p1686
I1
sVd2h9p97
p1687
I1
sVd1rwec0
p1688
I1
sVd0ag7be
p1689
I1
sVdej5z4e
p1690
I1
sVdink3r7
p1691
I1
sVd9rj80l
p1692
I2
sVd6w4aqg
p1693
I1
sVdje3gvx
p1694
I1
sVdjv82f6
p1695
I1
sVdcprwor
p1696
I1
sVdn01a1m
p1697
I1
sVd9hal8h
p1698
I1
sVd7wvtfd
p1699
I1
sVdkltone
p1700
I1
sVd797m6r
p1701
I1
sVd3iov3d
p1702
I2
sVdg0l6eq
p1703
I1
sVdf9400g
p1704
I1
sVdkag5qn
p1705
I1
sVd5uy48u
p1706
I1
sVdcaa5rw
p1707
I1
sVdc1d3ik
p1708
I1
sVdrhvtxf
p1709
I1
sVd33sekj
p1710
I2
sVdenwi6g
p1711
I1
sVd37h9qs
p1712
I1
sVdnwkepw
p1713
I1
sVd9q2cri
p1714
I1
sVd4z7rjt
p1715
I1
sVd1mi8j9
p1716
I1
sVdjmp6i5
p1717
I1
sVdc75mmj
p1718
I1
sVdd7jrvi
p1719
I1
sVd0qa5tv
p1720
I1
sVcyi67wo
p1721
I1
sVdarv6nq
p1722
I1
sVder2mvh
p1723
I1
sVd4bs1x7
p1724
I1
sVd72tmir
p1725
I1
sVdbx0wb0
p1726
I8
sVd9dy6l2
p1727
I1
sVdmz99u2
p1728
I1
sVcyjqtpv
p1729
I1
sVdt9iqyj
p1730
I1
sVde3x26d
p1731
I1
sVd3wud8e
p1732
I2
sVd148cdq
p1733
I1
sVd6eiks7
p1734
I1
sVdpuls3d
p1735
I1
sVdkwwacc
p1736
I1
sVdohimar
p1737
I1
sVczg40kh
p1738
I2
sVd5bhrbo
p1739
I1
sVd2k4feq
p1740
I1
sVd4ypfpu
p1741
I1
sVd0kwzr0
p1742
I1
sVdckn6hc
p1743
I2
sVdocft6n
p1744
I2
sVdn2vbaj
p1745
I1
sVddbh6ja
p1746
I1
sVd6l6wfe
p1747
I2
sVdijr2ik
p1748
I1
sVdmm7hnk
p1749
I2
sVdfbhygg
p1750
I1
sVd3ym5p0
p1751
I1
sVdd89gqn
p1752
I1
sVd2it9i4
p1753
I1
sVdnaiuoq
p1754
I1
sVd6iph8n
p1755
I1
sVd6l01xp
p1756
I2
sVdokqsxk
p1757
I1
sVd33640t
p1758
I1
sVdp64dk4
p1759
I1
sVdmn1nx6
p1760
I1
sVdhgqj13
p1761
I1
sVdexn822
p1762
I2
sVd00qse1
p1763
I1
sVd7srmwd
p1764
I1
sVczep9iv
p1765
I1
sVd036vd8
p1766
I1
sVd1lo6uc
p1767
I2
sVdmu2njn
p1768
I1
sVdiw8gpc
p1769
I1
sVdayix9b
p1770
I1
sVdju520q
p1771
I1
sVd5vibee
p1772
I1
sVdoabdk1
p1773
I1
sVd0g2c69
p1774
I1
sVdjy2pr1
p1775
I1
sVd64o2d3
p1776
I1
sVd5ihqgr
p1777
I1
sVd4k65v5
p1778
I1
sVdbi2htc
p1779
I1
sVdccivs0
p1780
I1
sVddz1vk5
p1781
I3
sVd8s3cp0
p1782
I1
sVdfoxszj
p1783
I1
sVd64etvw
p1784
I2
sVdiphp5b
p1785
I1
sVdmw37ud
p1786
I1
sVd2tz6d3
p1787
I1
sVd1zqeiy
p1788
I1
sVdenvhwk
p1789
I1
sVdj3o0vi
p1790
I1
sVde8m855
p1791
I1
sVdt6865y
p1792
I2
sVd1jvxbs
p1793
I1
sVd984830
p1794
I1
sVdobe5is
p1795
I1
sVd04iwap
p1796
I2
sVdc42eyc
p1797
I1
sVdga3r5s
p1798
I1
sVdnj406w
p1799
I1
sVda651ak
p1800
I2
sVd3n0nzq
p1801
I1
sVcyyhjw7
p1802
I2
sVd0wclx6
p1803
I1
sVd3yju8c
p1804
I1
sVdcuqv2m
p1805
I1
sVd44knae
p1806
I1
sVdnsomes
p1807
I1
sVd3qxs5i
p1808
I1
sVd5u5y14
p1809
I1
sVd569l4b
p1810
I1
sVd4zsktv
p1811
I1
sVdbj3j8x
p1812
I1
sVdii6n4k
p1813
I1
sVd3301xw
p1814
I1
sVd7pjnnt
p1815
I1
sVdjuian5
p1816
I1
sVd2a7z8c
p1817
I1
sVdi83dpj
p1818
I1
sVd16qg9u
p1819
I2
sVd49meqn
p1820
I1
sVd5d830u
p1821
I1
sVde2k86b
p1822
I1
sVdihaw5p
p1823
I1
sVd84p23y
p1824
I1
sVdhijgej
p1825
I1
sVdeh9itv
p1826
I1
sVd56qlfm
p1827
I1
sVdppkvx7
p1828
I1
sVcyi50bv
p1829
I1
sVd73m9ws
p1830
I1
sVdaarfty
p1831
I1
sVd6fdtnx
p1832
I1
sVdsg4380
p1833
I1
sVczzatui
p1834
I2
sVd3vfdqa
p1835
I1
sVdc0u42g
p1836
I1
sVd8fn5yz
p1837
I1
sVd4tbd0r
p1838
I1
sVddktblz
p1839
I2
sVd0jen74
p1840
I1
sVd1onxlr
p1841
I2
sVdda44jr
p1842
I1
sVd4kwvai
p1843
I1
sVd10yxiy
p1844
I1
sVdhke6pv
p1845
I1
sVdco9v2q
p1846
I1
sVddwvdru
p1847
I1
sVds93moe
p1848
I2
sVdkx6wks
p1849
I2
sVd5xp02c
p1850
I1
sVcz10iln
p1851
I1
sVd4wlro6
p1852
I1
sVdg62ac3
p1853
I1
sVdcly8rm
p1854
I1
sVdequi77
p1855
I1
sVd9bzk6o
p1856
I1
sVd9b00lo
p1857
I1
sVdoerh99
p1858
I1
sVdeqcb5q
p1859
I1
sVdn9xe2i
p1860
I1
sVd0yczh5
p1861
I3
sVczddiz4
p1862
I1
sVd3uglrj
p1863
I1
sVdjbvfhn
p1864
I2
sVcylqr0n
p1865
I1
sVcyigzhn
p1866
I1
sVd4zuqzs
p1867
I1
sVdb0l7uv
p1868
I1
sVd0rkljr
p1869
I1
sVczlgwfa
p1870
I1
sVdd752a3
p1871
I1
sVd6zdgvl
p1872
I1
sVdc1avct
p1873
I1
sVd4720em
p1874
I1
sVcz26evx
p1875
I1
sVdavofoh
p1876
I1
sVdcncbwk
p1877
I1
sVd8epupu
p1878
I1
sVdbpii6o
p1879
I1
sVdcqalps
p1880
I1
sVd95846y
p1881
I2
sVczczfb4
p1882
I1
sVdbjtmk5
p1883
I1
sVd6da61v
p1884
I1
sVd8qynmw
p1885
I1
sVdefauxt
p1886
I1
sVd3fjhp3
p1887
I1
sVd7wmesq
p1888
I1
sVd1s100a
p1889
I1
sVd8tp3xv
p1890
I1
sVd3fe1py
p1891
I1
sVd3v0vee
p1892
I1
sVdi040nu
p1893
I1
sVdayvu3e
p1894
I1
sVd2qzsyw
p1895
I1
sVd19ocov
p1896
I1
sVdggol6c
p1897
I1
sVd5z7uvg
p1898
I1
sVd7dbl7j
p1899
I2
sVdkjf4tv
p1900
I1
sVdd4dovw
p1901
I1
sVd2911vs
p1902
I1
sVd1qsie3
p1903
I1
sVdsnk128
p1904
I1
sVdcyo1k2
p1905
I1
sVd4qscms
p1906
I1
sVd56j8at
p1907
I1
sVd3fclne
p1908
I1
sVdcbckae
p1909
I1
sVdeehmjs
p1910
I1
sVdbzf1bp
p1911
I1
sVdmfyp2l
p1912
I1
sVdnwjneh
p1913
I1
sVd5ivwws
p1914
I1
sVdtaicr5
p1915
I2
sVdej4awp
p1916
I3
sVdqiw4tx
p1917
I3
sVdjpsyaq
p1918
I2
sVd6ks2gd
p1919
I2
sVd0k6wtx
p1920
I1
sVd3yu37z
p1921
I1
sVd342dxi
p1922
I1
sVdsv996j
p1923
I1
sVdr7xbtg
p1924
I1
sVd2bd8zp
p1925
I1
sVd5ll0mt
p1926
I1
sVdbqmez0
p1927
I1
sVdo1ve4s
p1928
I1
sVd3ys6mp
p1929
I1
sVd8xcm28
p1930
I1
sVd9xc0l1
p1931
I1
sVd34mglr
p1932
I1
sVdmpzr2l
p1933
I1
sVdnaxpbq
p1934
I1
sVd2k84d3
p1935
I1
sVdjrh3g3
p1936
I1
sVd1u2kbu
p1937
I1
sVdcdg339
p1938
I1
sVdmxbzkq
p1939
I1
sVd04eqno
p1940
I1
sVdciuxv2
p1941
I1
sVd1l7az7
p1942
I1
sVd1k5m7k
p1943
I1
sVd4jfsi6
p1944
I1
sVdoz53xs
p1945
I1
sVdcamaxa
p1946
I2
sVd7crgxj
p1947
I1
sVdprpeqh
p1948
I1
sVcyqueyk
p1949
I1
sVdk2uxtz
p1950
I1
sVdapnbhh
p1951
I1
sVdca87a0
p1952
I1
sVd1n701i
p1953
I1
sVd56diyb
p1954
I1
sVdau72np
p1955
I2
sVd0mimz4
p1956
I1
sVdoywqsq
p1957
I1
sVde0lowe
p1958
I1
sVdbmp266
p1959
I1
sVdakvll2
p1960
I2
sVd3lrotc
p1961
I1
sVcyiqbkr
p1962
I1
sVdd7f9fw
p1963
I1
sVd4rb7wq
p1964
I1
sVd2wvsce
p1965
I1
sVdg6dwxz
p1966
I3
sVd05wi6n
p1967
I1
sVcz3tyxw
p1968
I2
sVcz3grev
p1969
I1
sVdf4v88q
p1970
I1
sVdhzdzcv
p1971
I1
sVdhf5yjc
p1972
I1
sVd978zfq
p1973
I1
sVdizywug
p1974
I1
sVdcg0ge7
p1975
I1
sVcz9zjtv
p1976
I1
sVd1p69pz
p1977
I1
sVdhczz1a
p1978
I1
sVd0avcce
p1979
I1
sVdijese0
p1980
I1
sVcynpsfi
p1981
I1
sVdny7kof
p1982
I1
sVdqwb0yh
p1983
I2
sVdez6vw5
p1984
I1
sVd9disz9
p1985
I1
sVdbwowlh
p1986
I1
sVd5bg2jq
p1987
I1
sVd1iq3cx
p1988
I1
sVdemuxcz
p1989
I1
sVdb25rpq
p1990
I1
sVdfvy03u
p1991
I1
sVd6zxy4h
p1992
I1
sVd9vf0va
p1993
I1
sVdat04qc
p1994
I2
sVd68o6x7
p1995
I1
sVdem11bz
p1996
I2
sVdoi96fi
p1997
I1
sVd36rpus
p1998
I1
sVdcztc6j
p1999
I2
sVd6jlfre
p2000
I1
sVd7bxj47
p2001
I1
sVdbxm40s
p2002
I1
sVdrqvjep
p2003
I1
sVde7h08r
p2004
I1
sVcz93s7k
p2005
I1
sVdda2umz
p2006
I1
sVdhciu5w
p2007
I1
sVdq1xylr
p2008
I2
sVd6wczlf
p2009
I1
sVdcauvr8
p2010
I1
sVd2zgegh
p2011
I2
sVdd2bsyo
p2012
I1
sVd4nbkpi
p2013
I1
sVdmmys1d
p2014
I2
sVdc3170d
p2015
I1
sVd08ag2n
p2016
I1
sVdb8jed9
p2017
I2
sVdn19ghk
p2018
I2
sVd87jkae
p2019
I1
sVd5su28c
p2020
I1
sVd598qtm
p2021
I1
sVd8ucczp
p2022
I2
sVd7v5z3x
p2023
I4
sVdelt26q
p2024
I1
sVd1o0lj8
p2025
I2
sVdmv2rma
p2026
I4
sVd2iv0ms
p2027
I1
sVddpzkta
p2028
I1
sVd6x5796
p2029
I1
sVd3tycdf
p2030
I1
sVdadl8b0
p2031
I1
sVd65ziao
p2032
I1
sVdd19dws
p2033
I1
sVd4q5m0p
p2034
I1
sVd1q93yz
p2035
I2
sVd8eu3sn
p2036
I2
sVd35l93d
p2037
I1
sVd4h8cys
p2038
I2
sVcyjvpm6
p2039
I1
sVd19cikq
p2040
I1
sVdeqw8n0
p2041
I1
sVdejbyy1
p2042
I1
sVdmkxx0j
p2043
I1
sVd3i0ijl
p2044
I3
sVd8dl3ql
p2045
I1
sVd0jlv10
p2046
I1
sVdcuhh37
p2047
I1
sVdda3jnk
p2048
I1
sVd0wie3i
p2049
I1
sVd2pdg7d
p2050
I2
sVcyjd2qp
p2051
I1
sVddz1wkz
p2052
I1
sVdep5lz6
p2053
I1
sVdkrb5f4
p2054
I1
sVdi9zivv
p2055
I2
sVd00sbv0
p2056
I1
sVdbu9h2c
p2057
I1
sVdc92gfd
p2058
I1
sVdk0jihh
p2059
I1
sVdbr8nbi
p2060
I1
sVddwx6g9
p2061
I1
sVdrqh3k5
p2062
I1
sVdn4il1v
p2063
I1
sVdrgiech
p2064
I1
sVd2kq1wi
p2065
I1
sVdaajgqj
p2066
I1
sVdhxo73l
p2067
I2
sVd54hwya
p2068
I2
sVcyjdabr
p2069
I1
sVd1r4m9k
p2070
I1
sVdbfnqol
p2071
I1
sVd878diw
p2072
I1
sVda07cag
p2073
I1
sVdpsq4he
p2074
I1
sVd9ee3rp
p2075
I1
sVdb1fg61
p2076
I1
sVde87w4o
p2077
I1
sVdeipe0s
p2078
I1
sVd4fm7p2
p2079
I1
sVdn8wfhp
p2080
I1
sVd141rlv
p2081
I1
sVdqdomkn
p2082
I1
sVd251uqm
p2083
I1
sVczyv10a
p2084
I1
sVd0i91pb
p2085
I1
sVdfh3umr
p2086
I2
sVdfvqmqw
p2087
I1
sVdnmu2jk
p2088
I1
sVdqx1v97
p2089
I2
sVdte486h
p2090
I2
sVde7f3mc
p2091
I1
sVd0worrb
p2092
I1
sVdj4apqw
p2093
I1
sVdbwns4d
p2094
I1
sVd1k69lo
p2095
I2
sVcz5gz88
p2096
I1
sVdjkshdk
p2097
I1
sVdhbekdg
p2098
I1
sVddq2js5
p2099
I1
sVd77h0an
p2100
I1
sVdqltioo
p2101
I3
sVdmt4a9k
p2102
I1
sVd7e9lkg
p2103
I1
sVdawhw1s
p2104
I1
sVdqwogba
p2105
I1
sVdj2nvob
p2106
I2
sVd7gsvj0
p2107
I1
sVdp3hyty
p2108
I2
sVd8qbbyg
p2109
I1
sVd0nugnx
p2110
I1
sVd0b8k42
p2111
I1
sVdmfc88e
p2112
I3
sVd7ayczb
p2113
I1
sVd8ksi9v
p2114
I1
sVd6013cy
p2115
I1
sVd2zhj6m
p2116
I1
sVdimvd0h
p2117
I1
sVd287kre
p2118
I1
sVd30zmkx
p2119
I2
sVdsclpw3
p2120
I1
sVdqm6vmu
p2121
I1
sVdf8wl46
p2122
I1
sVde6g8tb
p2123
I1
sVdeqx2vo
p2124
I1
sVd3v492w
p2125
I1
sVdia1lsx
p2126
I1
sVdh9at1c
p2127
I1
sVdkl4t97
p2128
I1
sVd8ovg24
p2129
I1
sVdft9p1q
p2130
I2
sVd2y3tbi
p2131
I1
sVcyj23k6
p2132
I1
sVds53aj6
p2133
I1
sVd5cb8rf
p2134
I1
sVdthq6rf
p2135
I1
sVd777be8
p2136
I1
sVdkylgz4
p2137
I1
sVdkxycyc
p2138
I1
sVd19mqqq
p2139
I1
sVdq9tcp0
p2140
I1
sVd93cqbe
p2141
I1
sVdepqp3u
p2142
I1
sVd2tl8zf
p2143
I1
sVdfdess0
p2144
I1
sVdb23ccj
p2145
I2
sVdqw27im
p2146
I1
sVd1qdjyf
p2147
I1
sVdkrvwp1
p2148
I1
sVd2v88mw
p2149
I2
sVdag6vji
p2150
I1
sVcztjr6q
p2151
I1
sVdbifo8r
p2152
I1
sVdjqv733
p2153
I1
sVd865syr
p2154
I1
s.