(dp0
Vcyiqozu
p1
I1
s.(dp0
Vcyiqozu
p1
I1
sVcyizkmv
p2
I1
s.(dp0
Vcyiqozu
p1
I1
sVcypsu7b
p2
I1
s.(dp0
Vcyiqozu
p1
I1
sVcypsu7b
p2
I1
s.(dp0
Vcyiqozu
p1
I1
sVcz1u0hs
p2
I1
s.(dp0
Vcyiqozu
p1
I1
sVcz6x7iq
p2
I1
s.(dp0
Vcz7lfwf
p1
I1
sVcyiqozu
p2
I1
s.(dp0
Vcyiqozu
p1
I1
sVczjan0p
p2
I1
s.(dp0
Vcyiqozu
p1
I1
sVczxdkdf
p2
I1
s.(dp0
Vcyiqozu
p1
I1
sVczxdkhv
p2
I1
s.(dp0
Vcyiqozu
p1
I1
sVd036vd8
p2
I1
s.(dp0
Vcyiqozu
p1
I1
sVd036vd8
p2
I1
s.(dp0
Vcyiqozu
p1
I1
sVd03ha6z
p2
I1
s.(dp0
Vcyiqozu
p1
I1
sVd03lo0r
p2
I1
s.(dp0
Vcyiqozu
p1
I1
sVd03vxgi
p2
I1
s.(dp0
Vcyiqozu
p1
I1
sVd0aop1u
p2
I1
s.(dp0
Vcyiqozu
p1
I1
sVd0ek8pi
p2
I1
s.(dp0
Vcyiqozu
p1
I1
sVd0f84a1
p2
I1
s.(dp0
Vcyiqozu
p1
I1
sVd0fie41
p2
I1
s.(dp0
Vcyiqozu
p1
I1
sVd0i2uw3
p2
I1
s.(dp0
Vcyiqozu
p1
I1
sVd0l2gd3
p2
I1
s.(dp0
Vcyiqozu
p1
I1
sVd0lyt8k
p2
I1
s.(dp0
Vcyiqozu
p1
I1
sVd0lyt8k
p2
I1
s.(dp0
Vcyiqozu
p1
I1
sVd0ne8rb
p2
I1
s.(dp0
Vcyiqozu
p1
I1
sVd0qek12
p2
I1
s.(dp0
Vcyiqozu
p1
I1
sVd17zzsg
p2
I1
s.(dp0
Vcyiqozu
p1
I1
sVd1d76l8
p2
I1
s.(dp0
Vcyiqozu
p1
I1
sVd1hwzb3
p2
I1
s.(dp0
Vcyiqozu
p1
I1
sVd1iw1a0
p2
I1
s.(dp0
Vcyiqozu
p1
I1
sVd1ru49e
p2
I1
s.(dp0
Vcyiqozu
p1
I1
sVd1ruao3
p2
I1
s.(dp0
Vcyiqozu
p1
I1
sVd1s9blr
p2
I1
s.(dp0
Vcyiqozu
p1
I1
sVd1s9blr
p2
I1
s.(dp0
Vcyiqozu
p1
I1
sVd1s9blr
p2
I1
s.(dp0
Vcyiqozu
p1
I1
sVd1s9blr
p2
I1
s.(dp0
Vcyiqozu
p1
I1
sVd1s9blr
p2
I1
s.(dp0
Vcyiqozu
p1
I1
sVd1s9blr
p2
I1
s.(dp0
Vcyiqozu
p1
I1
sVd1s9blr
p2
I1
s.(dp0
Vcyiqozu
p1
I1
sVd1s9blr
p2
I1
s.(dp0
Vcyiqozu
p1
I1
sVd1s9blr
p2
I1
s.(dp0
Vcyiqozu
p1
I1
sVd1s9blr
p2
I1
s.(dp0
Vcyiqozu
p1
I1
sVd1tl41j
p2
I1
s.(dp0
Vcyiqozu
p1
I1
sVd1vr8g6
p2
I1
s.(dp0
Vcyiqozu
p1
I1
sVd1z7si1
p2
I1
s.(dp0
Vcyiqozu
p1
I1
sVd221m57
p2
I1
s.(dp0
Vcyiqozu
p1
I1
sVd2gm80j
p2
I1
s.(dp0
Vcyiqozu
p1
I1
sVd2hvbr6
p2
I1
s.(dp0
Vcyiqozu
p1
I1
sVd2in091
p2
I1
s.(dp0
Vcyiqozu
p1
I1
sVd2naubx
p2
I1
s.(dp0
Vcyiqozu
p1
I1
sVd2oxb76
p2
I1
s.(dp0
Vd2xgd08
p1
I1
sVcyiqozu
p2
I1
s.(dp0
Vcyiqozu
p1
I1
sVd3li83v
p2
I1
s.(dp0
Vcyiqozu
p1
I1
sVd3obo9d
p2
I1
s.(dp0
Vcyiqozu
p1
I1
sVd3obo9d
p2
I1
s.(dp0
Vcyiqozu
p1
I1
sVd3zpgkk
p2
I1
s.(dp0
Vcyiqozu
p1
I1
sVd4xgmqz
p2
I1
s.(dp0
Vcyiqozu
p1
I1
sVd57y3yo
p2
I1
s.(dp0
Vcyiqozu
p1
I1
sVd5glvgy
p2
I1
s.(dp0
Vcyiqozu
p1
I1
sVd5l1k73
p2
I1
s.(dp0
Vcyiqozu
p1
I1
sVd5nr41r
p2
I1
s.(dp0
Vcyiqozu
p1
I1
sVd5t4a46
p2
I1
s.(dp0
Vcyiqozu
p1
I1
sVd5t56r0
p2
I1
s.(dp0
Vcyiqozu
p1
I1
sVd5t8bi8
p2
I1
s.(dp0
Vcyiqozu
p1
I1
sVd5t8bi8
p2
I1
s.(dp0
Vcyiqozu
p1
I1
sVd5t8bi8
p2
I1
s.(dp0
Vd5u885r
p1
I1
sVcyiqozu
p2
I1
s.(dp0
Vd5u885r
p1
I1
sVcyiqozu
p2
I1
s.(dp0
Vd5u885r
p1
I1
sVcyiqozu
p2
I1
s.(dp0
Vcyiqozu
p1
I1
sVd5zccn5
p2
I1
s.(dp0
Vcyiqozu
p1
I1
sVd6hdjpc
p2
I1
s.(dp0
Vcyiqozu
p1
I1
sVd6hfzip
p2
I1
s.(dp0
Vcyiqozu
p1
I1
sVd6hfzip
p2
I1
s.(dp0
Vcyiqozu
p1
I1
sVd6u61bc
p2
I1
s.(dp0
Vcyiqozu
p1
I1
sVd6v66bw
p2
I1
s.(dp0
Vcyiqozu
p1
I1
sVd76qycy
p2
I1
s.(dp0
Vcyiqozu
p1
I1
sVd76x2sn
p2
I1
s.(dp0
Vcyiqozu
p1
I1
sVd76x2sn
p2
I1
s.(dp0
Vcyiqozu
p1
I1
sVd7m56wm
p2
I1
s.(dp0
Vcyiqozu
p1
I1
sVd88vdlm
p2
I1
s.(dp0
Vd8gi3a7
p1
I1
sVcyiqozu
p2
I1
s.(dp0
Vd8go7hb
p1
I1
sVcyiqozu
p2
I1
s.(dp0
Vcyiqozu
p1
I1
sVd93byt3
p2
I1
s.(dp0
Vcyiqozu
p1
I1
sVd94cw8o
p2
I1
s.(dp0
Vcyiqozu
p1
I1
sVd97ay9o
p2
I1
s.(dp0
Vcyiqozu
p1
I1
sVd99uv52
p2
I1
s.(dp0
Vcyiqozu
p1
I1
sVd9a5hwm
p2
I1
s.(dp0
Vcyiqozu
p1
I1
sVd9alx5t
p2
I1
s.(dp0
Vcyiqozu
p1
I1
sVd9aytgt
p2
I1
s.(dp0
Vcyiqozu
p1
I1
sVd9aytgt
p2
I1
s.(dp0
Vcyiqozu
p1
I1
sVd9b1esf
p2
I1
s.(dp0
Vcyiqozu
p1
I1
sVdadoxk2
p2
I1
s.(dp0
Vcyiqozu
p1
I1
sVdadoxk2
p2
I1
s.(dp0
Vcyiqozu
p1
I1
sVdae1v8n
p2
I1
s.(dp0
Vcyiqozu
p1
I1
sVdafhurv
p2
I1
s.(dp0
Vcyiqozu
p1
I1
sVdaue8h9
p2
I1
s.(dp0
Vcyiqozu
p1
I1
sVdazlz11
p2
I1
s.(dp0
Vcyiqozu
p1
I1
sVdb53m2g
p2
I1
s.(dp0
Vcyiqozu
p1
I1
sVdb53m2g
p2
I1
s.(dp0
Vcyiqozu
p1
I1
sVdb53m2g
p2
I1
s.(dp0
Vcyiqozu
p1
I1
sVdb53m2g
p2
I1
s.(dp0
Vcyiqozu
p1
I1
sVdb5b9fb
p2
I1
s.(dp0
Vcyiqozu
p1
I1
sVdb5f8uv
p2
I1
s.(dp0
Vcyiqozu
p1
I1
sVdb5f8uv
p2
I1
s.(dp0
Vcyiqozu
p1
I1
sVdb5kokq
p2
I1
s.(dp0
Vcyiqozu
p1
I1
sVdbmjm1z
p2
I1
s.(dp0
Vcyiqozu
p1
I1
sVdbmv5xj
p2
I1
s.(dp0
Vcyiqozu
p1
I1
sVdbmwb2k
p2
I1
s.(dp0
Vcyiqozu
p1
I1
sVdbn0d7i
p2
I1
s.(dp0
Vcy(dp0
Vcyiqozu
p1
I1
sVdtho672
p2
I1
s.