(dp0
Vcz3koxa
p1
I1
s.(dp0
Vczx3338
p1
I1
sVcz3koxa
p2
I1
s.(dp0
Vcz3koxa
p1
I1
sVd01u43w
p2
I1
s.(dp0
Vd0ylw1b
p1
I1
sVcz3koxa
p2
I1
s.(dp0
Vd2ln9ln
p1
I1
sVcz3koxa
p2
I1
s.(dp0
Vd5om9f6
p1
I1
sVcz3koxa
p2
I1
s.(dp0
Vd6e72nd
p1
I1
sVcz3koxa
p2
I1
s.(dp0
Vd76p569
p1
I1
sVcz3koxa
p2
I1
s.(dp0
Vd7x2tsh
p1
I1
sVcz3koxa
p2
I1
s.(dp0
Vd98r3hs
p1
I1
sVcz3koxa
p2
I1
s.(dp0
Vd98r3hs
p1
I1
sVcz3koxa
p2
I1
s.(dp0
Vdcsd9qg
p1
I1
sVcz3koxa
p2
I1
s.(dp0
Vdgxt94o
p1
I1
sVcz3koxa
p2
I1
s.(dp0
Vdh3k5mr
p1
I1
sVcz3koxa
p2
I1
s.(dp0
Vdix8vr8
p1
I1
sVcz3koxa
p2
I1
s.(dp0
Vdkd0ae6
p1
I1
sVcz3koxa
p2
I1
s.(dp0
Vcz3koxa
p1
I1
sVdn0jbos
p2
I1
s.(dp0
Vcz3koxa
p1
I1
sVdn0jbos
p2
I1
s.(dp0
Vdnrbm08
p1
I1
sVcz3koxa
p2
I1
s.(dp0
Vdoeny9c
p1
I1
sVcz3koxa
p2
I1
s.(dp0
Vdqvbphd
p1
I1
sVcz3koxa
p2
I1
s.(dp0
Vcz3koxa
p1
I1
sVdteph92
p2
I1
s.(dp0
Vcz3koxa
p1
I1
sVdteph92
p2
I1
s.