(dp0
Vd9fkmuq
p1
I2
sVd81g00f
p2
I1
sVd85b9gw
p3
I1
sVdomr0h7
p4
I1
sVdhuxznn
p5
I2
sVd44l7sg
p6
I1
sVdcepl3a
p7
I3
sVd4k0c7f
p8
I1
sVd9m9rw7
p9
I1
sVdoe7oh4
p10
I1
sVd17anf5
p11
I2
sVd9kzetw
p12
I1
sVd4jxk4g
p13
I1
sVd5yrf8c
p14
I2
sVdn2br9h
p15
I1
sVd7ntulo
p16
I1
sVdi9lmnm
p17
I1
sVd40qzvu
p18
I1
sVd09yzzw
p19
I2
sVd7pjnnt
p20
I1
sVd80rcy9
p21
I1
sVdgaaa8h
p22
I1
sVd3fjhp3
p23
I1
sVd111f93
p24
I1
sVcz1j8xx
p25
I1
sVd7ecm85
p26
I1
sVdkxhjve
p27
I2
sVdduvv5e
p28
I2
sVdb28ndo
p29
I1
sVdqgj13c
p30
I1
sVd2l9cb4
p31
I1
sVdbtxjya
p32
I1
sVd4k35ss
p33
I1
sVd1o12ox
p34
I3
sVdqebdd4
p35
I1
sVd8sryzp
p36
I1
sVd31dr72
p37
I4
sVd9n1qle
p38
I1
sVdr2cn1b
p39
I1
sVd08fijn
p40
I1
sVdflvloj
p41
I1
sVd3kyqe7
p42
I1
sVd8ee1aw
p43
I1
sVdf7h205
p44
I1
sVdho9xzm
p45
I1
sVdnaxpbq
p46
I1
sVd4paumz
p47
I1
sVd8yhyv8
p48
I1
sVdti59k6
p49
I1
sVdpy6kg7
p50
I2
sVdeyn0l5
p51
I1
sVdclmzky
p52
I1
sVdomnv97
p53
I1
sVd81mson
p54
I1
sVd6l01xp
p55
I1
sVdasu723
p56
I2
sVczzzqtt
p57
I1
sVdhucw66
p58
I1
sVczvcgvh
p59
I2
sVd8awxpq
p60
I2
sVdavabym
p61
I1
sVd7kem3b
p62
I1
sVd0rpctw
p63
I1
sVd28wewz
p64
I1
sVcymk38d
p65
I1
sVd9x5y46
p66
I2
sVdj2g9ay
p67
I1
sVd5ycx3i
p68
I1
sVda6xisl
p69
I1
sVdc3d9bu
p70
I1
sVd2lir1s
p71
I2
sVdkm8djy
p72
I1
sVdfv5hdw
p73
I1
sVd4k0fjp
p74
I1
sVdhowljm
p75
I1
sVdc6xdv5
p76
I1
sVd17gbrt
p77
I4
sVd757ypg
p78
I1
sVd8vv9va
p79
I2
sVd8vlxzm
p80
I1
sVd2dlbxp
p81
I1
sVd4lf3wk
p82
I2
sVdh3jas0
p83
I1
sVd0nvlbx
p84
I2
s.