(dp0
Vcytdia1
p1
I1
sVdimvrp3
p2
I1
sVdsjck0a
p3
I1
sVd77ke4u
p4
I1
sVczdqnnc
p5
I1
sVd952j46
p6
I1
sVdfspiw3
p7
I1
sVdditrrb
p8
I1
sVd19xgnd
p9
I1
sVdq8r0k6
p10
I4
sVdr35rui
p11
I1
sVdavmr65
p12
I2
sVd0zi3vv
p13
I1
sVdisg6vw
p14
I1
sVd7x44wo
p15
I1
sVcz5tiot
p16
I1
sVdphbd4u
p17
I2
sVdhxab8s
p18
I1
sVdsarqzx
p19
I1
sVdjx8z0w
p20
I1
sVcz4gya0
p21
I1
sVcyqghx0
p22
I1
sVdixxj5s
p23
I1
sVd1pbcix
p24
I1
sVczihycx
p25
I1
sVdhmwegs
p26
I1
sVd7njplo
p27
I1
sVdfh8xt7
p28
I1
sVdfyk3qj
p29
I1
sVdkfcebz
p30
I1
sVdpr75xq
p31
I1
sVditt9g2
p32
I1
sVd9kfeov
p33
I1
sVd7vfmy4
p34
I1
sVdexjswq
p35
I1
sVd4xn3ki
p36
I1
sVd468kdn
p37
I1
sVdmipj8n
p38
I1
sVczzl5ip
p39
I1
sVd6jenhi
p40
I1
sVdfiljn4
p41
I1
sVd1d4i13
p42
I1
sVdf5sisk
p43
I1
sVda442qj
p44
I1
sVd3mzkqe
p45
I1
sVdghcthz
p46
I1
sVdf0m7ba
p47
I1
sVdneiilr
p48
I1
sVd0gqmkw
p49
I1
sVczzta5m
p50
I1
sVdk48ldo
p51
I1
sVderp750
p52
I2
sVdb1cflf
p53
I1
sVd3gf50t
p54
I1
sVdaq5gfp
p55
I1
sVdfrssfs
p56
I1
sVd1kg7zn
p57
I1
sVdf64kfy
p58
I1
sVder240g
p59
I1
sVczwhzss
p60
I1
sVd3zx7ox
p61
I1
sVdia3dv5
p62
I1
sVd0kj1qd
p63
I1
sVdizhupo
p64
I2
sVd1znfe8
p65
I1
sVdesyvrg
p66
I1
sVd85mb1x
p67
I1
sVdb2j2c4
p68
I1
sVddxglin
p69
I1
sVdbzmi8w
p70
I1
sVd9xz03x
p71
I1
sVdgdrfoz
p72
I1
sVd9dme6q
p73
I1
sVd1xkoek
p74
I1
sVdbmra82
p75
I1
sVdnwc6xe
p76
I1
sVdt0bq8f
p77
I1
sVdhjl9f3
p78
I1
sVd7wo3bk
p79
I1
sVdp8ht2h
p80
I1
sVd3zwmwo
p81
I1
sVds05itq
p82
I1
sVdaelgqy
p83
I1
sVdc9oa7b
p84
I1
sVd7i22dc
p85
I1
sVds6d8v0
p86
I1
sVd0blt3j
p87
I1
sVdi2bb5y
p88
I1
sVd1uwjsk
p89
I1
sVdk24we7
p90
I1
sVd4a3v31
p91
I1
sVdhminy9
p92
I1
sVdgzvado
p93
I1
sVdccurcu
p94
I1
sVd53nu6d
p95
I1
sVd8gd6h9
p96
I2
sVdhrcj0q
p97
I1
sVdeibvtv
p98
I1
sVd4cuxi8
p99
I1
sVdpjaqa5
p100
I1
sVd54cdeh
p101
I1
sVdomuexk
p102
I2
sVd1kgp5y
p103
I1
sVd53wf2z
p104
I1
sVd2u4trv
p105
I1
sVd620tqq
p106
I2
sVd1r55h2
p107
I1
sVdaci3i0
p108
I1
sVd1e7zps
p109
I2
sVdmrhlmz
p110
I1
sVczit6bd
p111
I1
sVdg35zq7
p112
I1
sVcylj13x
p113
I1
sVd317acl
p114
I1
sVdfwup00
p115
I1
sVda1upj5
p116
I1
sVdo7pbx1
p117
I1
sVdh8xysp
p118
I1
sVdeq57bs
p119
I1
sVdo6kqzo
p120
I1
sVdgst58h
p121
I1
sVdjktng4
p122
I1
sVdner9me
p123
I2
sVczs81xt
p124
I1
sVd4dykf0
p125
I1
sVdg28ydb
p126
I2
sVczsntk4
p127
I1
sVcyiswmp
p128
I1
sVd4e2hz3
p129
I1
sVdamlonc
p130
I1
sVdaa6fjw
p131
I1
sVddycb8s
p132
I1
sVcz4gmib
p133
I1
sVdngxfz2
p134
I1
sVd8dlds5
p135
I1
sVd2doloq
p136
I1
sVd53epwg
p137
I1
sVdi14uia
p138
I1
sVdcr644z
p139
I2
sVd9rjb90
p140
I1
sVd1jl1lc
p141
I1
sVdi084c1
p142
I1
sVdj9flja
p143
I1
sVd5xbu70
p144
I1
sVdfrr59r
p145
I1
sVdhcjd8o
p146
I1
sVczouot3
p147
I2
sVdmvw343
p148
I1
sVdq3x9e5
p149
I1
sVd4emoby
p150
I1
sVdqjh0ch
p151
I1
sVdcx111v
p152
I1
sVdbe8xtv
p153
I1
sVdcy6j6j
p154
I1
sVdoypvji
p155
I1
sVd5d2x1j
p156
I1
sVd87b752
p157
I1
sVdr8onid
p158
I1
sVdgxpl45
p159
I1
sVd1o54xi
p160
I1
sVdjweuzd
p161
I1
sVdc4berz
p162
I1
sVdh75aww
p163
I1
sVdihxovo
p164
I1
sVdbffvco
p165
I1
sVddn1aqj
p166
I1
sVd0vcqap
p167
I1
sVcyob5j9
p168
I1
sVcytlt60
p169
I1
sVd09m6tq
p170
I1
sVd474g3c
p171
I1
sVcymrbxi
p172
I1
sVdmjae3g
p173
I1
sVd2c1uyg
p174
I1
sVcyszqga
p175
I1
sVd4vvs0d
p176
I1
sVd2go2w1
p177
I1
sVd3hgkjm
p178
I3
sVddlkme7
p179
I1
sVdng0e4o
p180
I2
sVddzvc3m
p181
I1
sVd20j512
p182
I1
sVdqlns40
p183
I1
sVd24b1sm
p184
I1
sVdj3kfgk
p185
I2
sVd9ew9zw
p186
I1
sVdphrdra
p187
I1
sVd0oe8t4
p188
I1
sVdgmz71y
p189
I2
sVd5c9z35
p190
I1
sVd5xmcoo
p191
I1
sVds1nbki
p192
I1
sVd21vz2k
p193
I2
sVd0vi0es
p194
I1
sVdb7kz0j
p195
I1
sVd17g30d
p196
I1
sVdegib9d
p197
I2
sVd0vz6ov
p198
I1
sVd15lyju
p199
I1
sVd33dp84
p200
I4
sVd7witx0
p201
I1
sVddaocby
p202
I1
sVda9z0qz
p203
I1
sVdco6ct6
p204
I1
sVd3alh95
p205
I1
sVd1ob784
p206
I1
sVdnuonrz
p207
I1
sVd1iv8xi
p208
I1
sVdooaq6c
p209
I2
sVdgxle6v
p210
I1
sVd0o1aoe
p211
I1
sVdj9ihvj
p212
I1
sVdjhw3g1
p213
I1
sVdg2h0hu
p214
I1
sVd7z9hjs
p215
I1
sVdr0umkh
p216
I1
sVdg7a0c0
p217
I1
sVde1agew
p218
I2
sVddmb5qp
p219
I1
sVdt7885o
p220
I1
sVdg8gzx9
p221
I1
sVczkajzx
p222
I1
sVdssmapx
p223
I1
sVdryzky0
p224
I1
sVddbau01
p225
I1
sVd1nd1lj
p226
I1
sVdc3jnp9
p227
I1
sVdqs5h3j
p228
I1
sVdgdj8tp
p229
I1
sVda79yga
p230
I1
sVdgvfyhf
p231
I1
sVd8ga1a3
p232
I1
sVdpmc54l
p233
I1
sVdjj7ewi
p234
I1
sVdpvcv28
p235
I1
sVd30f3pr
p236
I1
sVd2f33rq
p237
I1
sVdp3sxwk
p238
I2
sVdjc1xqr
p239
I1
sVd9zc6np
p240
I2
sVdgadb6l
p241
I1
sVd61fz8l
p242
I1
sVczzyfpp
p243
I1
sVdnjpsdw
p244
I1
sVd2oy5k8
p245
I1
sVdag0mey
p246
I2
sVdicyyaj
p247
I1
sVczicv9v
p248
I2
sVdj10x85
p249
I2
sVd0o120f
p250
I1
sVczw2vv7
p251
I1
sVdj26luo
p252
I1
sVdkio9up
p253
I1
sVdrm146t
p254
I1
sVd6dac44
p255
I1
sVd25xt9u
p256
I1
sVddhmuxf
p257
I4
sVdivz0qs
p258
I1
sVdhnufyv
p259
I1
sVcz1zbly
p260
I1
sVdjhbtqd
p261
I1
sVd96eddx
p262
I1
sVd0zeta7
p263
I1
sVcyub6cx
p264
I1
sVdmolhn5
p265
I1
sVd5os05b
p266
I1
sVd62dhcr
p267
I1
sVcyn1757
p268
I1
sVdoa3s3a
p269
I2
sVd2ksqju
p270
I1
sVdj9oqx9
p271
I1
sVdrwp5bq
p272
I1
sVd5drzpo
p273
I1
sVdpjll7q
p274
I1
sVcyzpz1m
p275
I1
sVdi4fq4h
p276
I1
sVcyjwdan
p277
I1
sVd7cs70a
p278
I1
sVdqb3xqp
p279
I1
sVdjpyjn3
p280
I2
sVczdm7mb
p281
I1
sVdhk4faw
p282
I1
sVd6o6069
p283
I1
sVd5aao0i
p284
I1
sVd1tt0eh
p285
I1
sVd4vohtu
p286
I1
sVd5xnzo4
p287
I1
sVd2a0az4
p288
I2
sVd6v2jva
p289
I1
sVczzaqhw
p290
I1
sVdhd30oy
p291
I1
sVdkbp9fp
p292
I1
sVd4tdavd
p293
I1
sVd388xqe
p294
I1
sVdgvwz0j
p295
I2
sVddemn7w
p296
I1
sVd83nbri
p297
I1
sVdai1jvj
p298
I1
sVdhvbbbr
p299
I1
sVda6z9bp
p300
I2
sVdqidzh9
p301
I1
sVdistsme
p302
I2
sVd5c02k8
p303
I1
sVdawo8ba
p304
I1
sVde2s7q1
p305
I1
sVdf62smp
p306
I1
sVdkme9ap
p307
I1
sVd5zh6ev
p308
I1
sVd6arz5m
p309
I1
sVcz4ipmb
p310
I1
sVd738c83
p311
I1
sVdnwnsli
p312
I3
sVdottszt
p313
I1
sVd42avfr
p314
I1
sVdecy5e0
p315
I1
sVdazppte
p316
I2
sVdbx3b0w
p317
I1
sVdf411kl
p318
I1
sVd3qwch1
p319
I1
sVd7pb617
p320
I1
sVd9bvi9l
p321
I1
sVdir87i6
p322
I1
sVd9uigjb
p323
I1
sVd1ugxpf
p324
I1
sVczds0ft
p325
I1
sVczkm80c
p326
I2
sVd0cdcdl
p327
I2
sVdmfkzht
p328
I1
sVd1zd7io
p329
I1
sVd0o1duy
p330
I1
sVdagv7by
p331
I1
sVdg1asnt
p332
I1
sVd5mjosn
p333
I1
sVdk5uqvo
p334
I1
sVd6bxyrm
p335
I1
sVd7ufnho
p336
I1
sVd7icpbu
p337
I1
sVdntpxhd
p338
I3
sVd6r8rzg
p339
I1
sVds3g9kf
p340
I1
sVd1d8ooq
p341
I2
sVdd24q2j
p342
I1
sVdbg6ind
p343
I1
sVdbsm7ia
p344
I1
sVdmiedbi
p345
I1
sVd4ttjol
p346
I1
sVd6nn0jp
p347
I1
sVdfm60bd
p348
I1
sVdk4aplw
p349
I1
sVdczl14g
p350
I1
sVdav9lf5
p351
I1
sVdbrhqil
p352
I1
sVdnvmk7r
p353
I2
sVcz1plb5
p354
I1
sVczu0h4v
p355
I1
sVdtgq3r5
p356
I1
sVd7ffpcq
p357
I1
sVdqbmld6
p358
I1
sVdat1iaa
p359
I2
sVd1v0mk6
p360
I2
sVd935fbf
p361
I1
sVd17sj3n
p362
I1
sVdjxpt47
p363
I2
sVdjvbilw
p364
I1
sVd6tqxii
p365
I1
sVd18erlo
p366
I1
sVdnv37kk
p367
I1
sVdpp663w
p368
I1
sVdafns4w
p369
I1
sVdbe3wcb
p370
I1
sVd951qzg
p371
I1
sVd5hm4yx
p372
I1
sVd5nhbv0
p373
I1
sVdj9klc5
p374
I1
sVdfkxy8o
p375
I1
sVd8vpq4k
p376
I1
sVdo9qzkp
p377
I1
sVd3b63fn
p378
I1
sVd175dxa
p379
I1
sVczqvxl7
p380
I1
sVdnw0gvs
p381
I1
sVd2shw71
p382
I1
sVd0aupon
p383
I1
sVd4uncp8
p384
I2
sVczxy8nh
p385
I1
sVd7sjjrb
p386
I1
sVddvk3n2
p387
I1
sVdcok1ur
p388
I1
sVd1dihh5
p389
I1
sVddl2wke
p390
I1
sVdbziofc
p391
I1
sVdd3lk5h
p392
I1
sVd8z7o8z
p393
I1
sVdc2c9si
p394
I1
sVd8t4yfw
p395
I1
sVdbqgtys
p396
I1
sVd2cv9mt
p397
I1
sVczdiz9k
p398
I1
sVdnrd59a
p399
I1
sVczoylte
p400
I1
sVd2qbruf
p401
I1
sVd0ajsn6
p402
I1
sVds6eiw7
p403
I1
sVd79lp4b
p404
I3
sVd65jph1
p405
I1
sVdf8fdso
p406
I1
sVcyijykr
p407
I1
sVd53pyap
p408
I1
sVd3qzh0v
p409
I1
sVdf5aguc
p410
I2
sVdfzz0oj
p411
I1
sVczeqk90
p412
I1
sVd5ykwnf
p413
I1
sVdg4n0oh
p414
I1
sVd75jknl
p415
I1
sVczadbep
p416
I1
sVd1uyp3h
p417
I1
sVd4b4snb
p418
I2
sVd6iynlg
p419
I1
sVd90ouhm
p420
I1
sVcyxp6pr
p421
I1
sVdk2llnk
p422
I1
sVd4xusej
p423
I2
sVd6qpvmb
p424
I1
sVd0tqn15
p425
I1
sVd0fq26o
p426
I1
sVdav841o
p427
I1
sVd1gqcxj
p428
I1
sVd85hyld
p429
I1
sVd1n1um9
p430
I1
sVd18tidm
p431
I1
sVd83v108
p432
I1
sVdfjxngu
p433
I2
sVd2wca6g
p434
I1
sVdfvtexb
p435
I1
sVdctuvhv
p436
I2
sVd08ivpu
p437
I1
sVdjpt0tt
p438
I1
sVd1lh337
p439
I1
sVd2z01he
p440
I2
sVd9nw5u8
p441
I1
sVdei8p9d
p442
I1
sVda0fmag
p443
I1
sVdf92sz6
p444
I1
sVd5x3olp
p445
I1
sVd1in62o
p446
I1
sVd4uy8ld
p447
I1
sVd96zs8q
p448
I1
sVdfk7h9s
p449
I1
sVd54n40r
p450
I1
sVdes3770
p451
I1
sVdhw8mjm
p452
I1
sVdq5qddd
p453
I1
sVdeb7fgl
p454
I1
sVd8izjgf
p455
I1
sVd7jk5lj
p456
I1
sVdgvu7o6
p457
I1
sVdbk1i97
p458
I2
sVdeudajf
p459
I1
sVdq5ldc5
p460
I1
sVdbps88y
p461
I1
sVdhggpiv
p462
I2
sVda9m7f4
p463
I1
sVd4le37n
p464
I1
sVd4h3jp8
p465
I1
sVd2y2jd2
p466
I3
sVdfyaflv
p467
I3
sVd880uk3
p468
I1
sVdjrbb75
p469
I1
sVcz1doaz
p470
I1
sVd8sckgx
p471
I1
sVd586o5k
p472
I1
sVdd7azhh
p473
I1
sVdqxhgat
p474
I1
sVdiumpyu
p475
I1
sVd94z37n
p476
I1
sVd4lx4yu
p477
I1
sVde9dt3w
p478
I1
sVdqbnrzm
p479
I1
sVde4kq87
p480
I1
sVd5lb1ls
p481
I1
sVdq5ugvf
p482
I1
sVdeephsn
p483
I1
sVdjor5hd
p484
I1
sVd6896vf
p485
I1
sVd88aeqk
p486
I1
sVd1uuhz7
p487
I1
sVd9no3j6
p488
I1
sVdr2co2q
p489
I1
sVcykus6i
p490
I3
sVd4up4a0
p491
I3
sVde0n8sq
p492
I1
sVd1fvn1b
p493
I1
sVd0egcuk
p494
I2
sVd3812n0
p495
I1
sVdbn28gn
p496
I1
sVd7j71ti
p497
I1
sVd17ertq
p498
I1
sVdramtmd
p499
I1
sVdnvyiyl
p500
I1
sVd8s4kza
p501
I1
sVdgqcz4z
p502
I1
sVdg2o467
p503
I1
sVd22ook5
p504
I1
sVdok384i
p505
I1
sVdthhlze
p506
I1
sVdt6zlul
p507
I1
sVdkr12sx
p508
I1
sVd78tmd2
p509
I1
sVdrfzr7a
p510
I1
sVcymvmzl
p511
I1
sVd9nsifj
p512
I1
sVd78g0sz
p513
I1
sVdjftbpj
p514
I1
sVddoj8ej
p515
I1
sVd62o65b
p516
I1
sVd0yfwgp
p517
I1
sVd44px1h
p518
I1
sVdk6v8q6
p519
I1
sVd1pquju
p520
I1
sVcz26npf
p521
I1
sVdin3bv4
p522
I1
sVdfe9090
p523
I1
sVdcriqi4
p524
I1
sVdkcf4pu
p525
I1
sVd0fju2h
p526
I1
sVcz7z2se
p527
I1
sVdbr1v7x
p528
I1
sVdidp564
p529
I2
sVdcfc1wq
p530
I1
sVd52zdyq
p531
I2
sVd7t4328
p532
I1
sVdpwmoxp
p533
I2
sVdi9kqup
p534
I1
sVd0x9p33
p535
I1
sVd1xlqdv
p536
I1
sVdppqcv1
p537
I1
sVd9o49ye
p538
I1
sVdeet3un
p539
I1
sVd7ua6ek
p540
I1
sVd971cp9
p541
I1
sVdflecqx
p542
I1
sVdjzo6ow
p543
I1
sVdr00jyp
p544
I3
sVczwouat
p545
I1
sVd71br2m
p546
I1
sVdmq94i1
p547
I1
sVdr4qcb1
p548
I1
sVd0dsyl4
p549
I3
sVdis71a5
p550
I1
sVd697bjn
p551
I1
sVdrk3a37
p552
I1
sVd7obuio
p553
I1
sVdg1dxxu
p554
I1
sVd5i9y0b
p555
I1
sVdbk34fj
p556
I1
sVd0htna3
p557
I1
sVds7eedf
p558
I1
sVdiukuha
p559
I1
sVd0jxqlf
p560
I1
sVdtikg90
p561
I1
sVdrmtwgz
p562
I1
sVd9u12k8
p563
I1
sVd91lpwq
p564
I3
sVcz7epp5
p565
I1
sVcykb7mz
p566
I1
sVdb10dcl
p567
I1
sVdh7fwvk
p568
I1
sVdfmx6fu
p569
I1
sVdmvbk09
p570
I1
sVdo05r0b
p571
I1
sVd98w20w
p572
I1
sVdovfurd
p573
I1
sVdpyb5jp
p574
I1
sVd0jdtpu
p575
I1
sVd1qjgre
p576
I1
sVd27pha4
p577
I1
sVddt446l
p578
I1
sVd0745cn
p579
I1
sVdh4v5fb
p580
I1
sVdt7tucn
p581
I1
sVdc7o5dc
p582
I2
sVd1j8xfc
p583
I1
sVd8rrldo
p584
I1
sVdt7yoh5
p585
I1
sVdcviv12
p586
I1
sVd8lzofo
p587
I1
sVd4jpwon
p588
I1
sVdgd7g4v
p589
I1
sVdq2j1gk
p590
I1
sVczl7rn7
p591
I1
sVdeethz2
p592
I1
sVd5xg92t
p593
I1
sVcyod31h
p594
I1
sVd5cv0px
p595
I1
sVd2vxhiv
p596
I1
sVdff3cod
p597
I6
sVdegl0z8
p598
I1
sVd21m0xa
p599
I1
sVd0dl113
p600
I1
sVdnh1kzv
p601
I1
sVdtazrhg
p602
I1
sVd1q90ms
p603
I1
sVcysyz0t
p604
I1
sVdfi6ets
p605
I1
sVd7faqdc
p606
I1
sVd3ka632
p607
I1
sVd8p2jct
p608
I1
sVdqnic8g
p609
I1
sVczlna5h
p610
I1
sVditcb8z
p611
I1
sVd09vt7i
p612
I1
sVczyyvbq
p613
I1
sVderbyw8
p614
I1
sVdfn8kzb
p615
I1
sVdfgwyw8
p616
I1
sVdcw7scv
p617
I1
sVdc28axy
p618
I1
sVde88uqt
p619
I1
sVdat3yu4
p620
I1
sVdklug0e
p621
I1
sVdfhc619
p622
I1
sVd2o5p25
p623
I1
sVd2w97an
p624
I1
sVcylmj0c
p625
I1
sVd6vr1iy
p626
I1
sVd3arr10
p627
I1
sVd1h7q5j
p628
I1
sVdp8i9ix
p629
I1
sVd1apcns
p630
I1
sVczuodh8
p631
I1
sVdqa3yfp
p632
I1
sVdqh2er4
p633
I1
sVdbmwywt
p634
I1
sVd2iggau
p635
I1
sVcyxz99z
p636
I1
sVd2j9gu6
p637
I1
sVdkmhwgq
p638
I2
sVczz6ff6
p639
I1
sVdi25mv4
p640
I1
sVd5nk2kn
p641
I1
sVdd1v0lg
p642
I1
sVdqgpxwe
p643
I1
sVddhu3az
p644
I1
sVczwexb4
p645
I1
sVd58do9r
p646
I1
sVd0txc4r
p647
I1
sVd3830f7
p648
I1
sVdhbiu9s
p649
I1
sVcyzywk4
p650
I1
sVdfoeo8l
p651
I1
sVdgrx0io
p652
I1
sVczljot4
p653
I1
sVd81ysxr
p654
I1
sVdbfz64j
p655
I1
sVdppd1mv
p656
I1
sVd24rvfr
p657
I1
sVd842wg1
p658
I1
sVczdshx0
p659
I1
sVcz0a9y7
p660
I1
sVd05mtft
p661
I1
sVdfx10y8
p662
I1
sVd2jtxsa
p663
I1
sVdj1nb5z
p664
I2
sVdii238g
p665
I1
sVd69ff5v
p666
I1
sVd4umx3l
p667
I1
sVdt8h5r3
p668
I1
sVd1wb67n
p669
I1
sVdsqefoz
p670
I1
sVdf63rb6
p671
I1
sVdc70j3o
p672
I1
sVd121c77
p673
I1
sVd8whscs
p674
I1
sVd8wdpux
p675
I1
sVdrqagyk
p676
I1
sVcylycha
p677
I1
sVdrjjnkj
p678
I1
sVdcpveyt
p679
I1
sVd5u7341
p680
I1
sVdan1pk6
p681
I1
sVdfhssl0
p682
I1
sVdhn8mzn
p683
I1
sVd2g02uq
p684
I1
sVd0ma35n
p685
I1
sVd2551l2
p686
I1
sVdkr23op
p687
I1
sVdfajs23
p688
I1
sVdev27w9
p689
I1
sVdizegez
p690
I1
sVd88q5qj
p691
I1
sVcyn09k7
p692
I1
sVdo7lsaf
p693
I1
sVd2cwfhp
p694
I1
sVdb3u0xe
p695
I2
sVdba6gev
p696
I1
sVd6bg41g
p697
I2
sVczb9ya5
p698
I1
sVd2a5o9a
p699
I1
sVd00sd2v
p700
I2
sVd3r3y5m
p701
I1
sVcyreo6t
p702
I1
sVd1tmf8w
p703
I1
sVdcw3dpg
p704
I1
sVd7sndba
p705
I1
sVczwl4sb
p706
I1
sVd1ftw59
p707
I1
sVd75j62t
p708
I1
sVdn3mewa
p709
I1
sVdqlste3
p710
I1
sVd04d46s
p711
I1
sVdav8m2x
p712
I1
sVd9h72dm
p713
I1
sVdfomn6g
p714
I1
sVcz7sk7t
p715
I1
sVdotonjf
p716
I1
sVd0ry4f5
p717
I1
sVd3y4d4l
p718
I1
sVdaki7xc
p719
I1
sVd4ulhr1
p720
I1
sVdc5i26w
p721
I1
sVdaybsti
p722
I1
sVdhz0rho
p723
I1
sVd1b9hsu
p724
I1
sVd0f2oli
p725
I1
sVdbo4q3r
p726
I1
sVda89fwv
p727
I1
sVdmve4q1
p728
I1
sVdck6iwc
p729
I1
sVcyopzc5
p730
I1
sVdjbm59u
p731
I1
sVd019rtz
p732
I1
sVd25klso
p733
I2
sVdiioxro
p734
I1
sVd1t1fqn
p735
I1
sVd740c50
p736
I1
sVdhsn7d1
p737
I1
sVd00h3bw
p738
I1
sVd5jt7v9
p739
I1
sVd9h48uz
p740
I2
sVd7kgfq1
p741
I1
sVd3s18rz
p742
I1
sVdam3cjs
p743
I1
sVd7k99r2
p744
I1
sVd8qu3uu
p745
I1
sVds8nm2t
p746
I1
sVd0mf7jg
p747
I1
sVd1br40a
p748
I1
sVdext3zu
p749
I1
sVd7pkk4q
p750
I2
sVdg5qmlb
p751
I1
sVdam3307
p752
I1
sVd8g6dep
p753
I1
sVd5677q2
p754
I1
sVczthbhp
p755
I1
sVdinp2v6
p756
I1
sVd769tyf
p757
I1
sVdbctvba
p758
I1
sVd0l5oq3
p759
I2
sVdmhpdha
p760
I1
sVdmhxnpy
p761
I1
sVdc9892p
p762
I1
sVddbo7i9
p763
I1
sVdsvq1mh
p764
I1
sVdnl450k
p765
I1
sVdn5wsx5
p766
I1
sVdcbgwjy
p767
I1
sVdarnglf
p768
I1
sVdaq09i8
p769
I1
sVdg41t6n
p770
I1
sVd1e0ly9
p771
I1
sVd8wm9ow
p772
I1
sVdavsqkt
p773
I1
sVde946y1
p774
I1
sVd39y9nm
p775
I1
sVd4uhbs2
p776
I1
sVd9a55s4
p777
I1
sVdg7gmtu
p778
I1
sVddlg4cf
p779
I1
sVd1lb9mh
p780
I1
sVd87ttkp
p781
I1
sVdkj08qi
p782
I1
sVd3vmn88
p783
I1
sVdco85qd
p784
I1
sVd9zaec5
p785
I2
sVdhg7p6x
p786
I1
sVdftgsul
p787
I1
sVdmu4vcz
p788
I1
sVd5h3k6g
p789
I1
sVd72t9he
p790
I3
sVd66rfiq
p791
I1
sVcyntynd
p792
I1
sVddd54t5
p793
I1
sVcytzyv8
p794
I1
sVd9qtlzb
p795
I1
sVdpnawdi
p796
I1
sVddnqsed
p797
I1
sVd0i8phi
p798
I1
sVdpo9s55
p799
I1
sVd6glquk
p800
I1
sVdo5xq3z
p801
I2
sVddneb4k
p802
I1
sVdt9jr98
p803
I1
sVddwe8r6
p804
I1
sVd17t8bi
p805
I1
sVdffc2s1
p806
I1
sVd742h4u
p807
I1
sVdt2opzv
p808
I1
sVdjy633p
p809
I1
sVd61jps1
p810
I1
sVdcj6922
p811
I1
sVd90q32j
p812
I1
sVdfxm5bp
p813
I1
sVd3gmhy3
p814
I3
sVd0qrzhq
p815
I1
sVder75ww
p816
I1
sVd9pb4dw
p817
I1
sVdhagp09
p818
I1
sVdj7cuya
p819
I2
sVdputev6
p820
I1
sVd0wgq2o
p821
I1
sVd5re8g2
p822
I1
sVde7mdlu
p823
I1
sVdqpaaw5
p824
I1
sVd4hml52
p825
I1
sVdnxufln
p826
I1
sVcypd6jy
p827
I1
sVdiil82x
p828
I1
sVd31maj5
p829
I1
sVdeh86yu
p830
I2
sVddu6a9k
p831
I1
sVd0d18by
p832
I1
sVczqqwcz
p833
I1
sVd91ij74
p834
I1
sVd110f8e
p835
I1
sVd0npo1b
p836
I1
sVd3gyavy
p837
I1
sVd7f4vcu
p838
I1
sVdq1zc0w
p839
I2
sVd67inou
p840
I4
sVcz8pzms
p841
I1
sVd9befam
p842
I1
sVdhfslir
p843
I1
sVdhjeh7k
p844
I1
sVd7lsuq4
p845
I1
sVdipezoy
p846
I1
sVdhca8aa
p847
I1
sVd52lfyc
p848
I1
sVd37m3cw
p849
I1
sVcypkqz0
p850
I1
sVdrrq7xd
p851
I1
sVd06w970
p852
I1
sVd3uw2a1
p853
I1
sVdhc7agt
p854
I1
sVdcech2t
p855
I1
sVd23uls6
p856
I1
sVdmfvbox
p857
I1
sVdfl88t4
p858
I1
sVdfnml0r
p859
I1
sVd4htz09
p860
I1
sVd9xym43
p861
I1
sVd9rhda5
p862
I1
sVd73icdp
p863
I1
sVd5c4e8h
p864
I1
sVdeac8lt
p865
I1
sVd0btyom
p866
I1
sVd5giwi7
p867
I1
sVdbq77gy
p868
I1
sVcyvfap4
p869
I1
sVd5m64nr
p870
I1
sVd1gruxo
p871
I1
sVdr5elj4
p872
I1
sVdkm02ll
p873
I1
sVdgfd2ci
p874
I1
sVczl0ewe
p875
I1
sVd9i003w
p876
I1
sVdd3153g
p877
I1
sVde130iv
p878
I1
sVd1yom6o
p879
I1
sVdkriyo5
p880
I1
sVdaue8h9
p881
I1
sVdiopomj
p882
I1
sVdddb5if
p883
I1
sVd08o32c
p884
I1
sVdjlmcq8
p885
I1
sVdon3as3
p886
I1
sVdg7shd3
p887
I1
sVcywulw2
p888
I1
sVdeauigl
p889
I2
sVd803yfd
p890
I1
sVd7j9p30
p891
I1
sVd9na6wz
p892
I1
sVd76omgt
p893
I1
sVdt0wvyu
p894
I1
sVd8y1y7r
p895
I1
sVdidodo4
p896
I1
sVdim9ffg
p897
I1
sVd0te6nh
p898
I1
sVdf1ewqr
p899
I1
sVd1z4cu4
p900
I1
sVd309kuq
p901
I1
sVd1u5vpu
p902
I1
sVd0if3le
p903
I1
sVd87bsew
p904
I1
sVdpmof5j
p905
I1
sVdj2hif1
p906
I1
sVd92iyqu
p907
I1
sVczgkzd1
p908
I1
sVdevo3z3
p909
I1
sVdera750
p910
I1
sVd2gc7ai
p911
I1
sVdntuyfx
p912
I1
sVcynb8vd
p913
I1
sVdnepwys
p914
I2
sVdhght59
p915
I1
sVdivjyka
p916
I1
sVd8mtxra
p917
I1
sVdnbr0ts
p918
I1
sVd9vkj0b
p919
I1
sVdj57e0q
p920
I1
sVdou2f3i
p921
I1
sVdfqub0f
p922
I1
sVdqg410t
p923
I1
sVd4id28j
p924
I1
sVdek9pjh
p925
I1
sVddl0qoz
p926
I1
sVd4ia6va
p927
I1
sVdsknvbn
p928
I1
sVd72z4ti
p929
I1
sVdmsrmtc
p930
I1
sVd9d72v9
p931
I1
sVdb6fbua
p932
I1
sVd367ufp
p933
I1
sVd9nfmrh
p934
I1
sVd8m0mrx
p935
I1
sVcyzh2ij
p936
I1
sVdivhaex
p937
I1
sVdbajuay
p938
I1
sVdnjv40o
p939
I1
sVd3gml9i
p940
I2
sVdn4r21t
p941
I1
sVd88bfw0
p942
I1
sVdax5owx
p943
I1
sVd4oynu6
p944
I1
sVdd5nd2x
p945
I1
sVdes76zu
p946
I1
sVdaxhv94
p947
I1
sVdh7n3f5
p948
I2
sVdsdhaxn
p949
I1
sVd11fycz
p950
I1
sVd3v6e3d
p951
I1
sVd19cr5s
p952
I1
sVdh2galc
p953
I1
sVd9182to
p954
I1
sVdr4yzyu
p955
I1
sVdhrbiaq
p956
I1
sVczhd6aj
p957
I1
sVczomelq
p958
I1
sVdd937wl
p959
I1
sVdof9bgu
p960
I1
sVd000evx
p961
I2
sVdkj932x
p962
I1
sVdgi0wqp
p963
I1
sVdkw6gn9
p964
I1
sVczvp9i8
p965
I1
sVd5gyvyq
p966
I1
sVd606vs3
p967
I1
sVd9xo464
p968
I2
sVd535t8j
p969
I1
sVdb85sy9
p970
I1
sVdgdvq5g
p971
I1
sVdc8yoal
p972
I1
sVdtalb6b
p973
I1
sVdoeva0j
p974
I1
sVd5xpi6i
p975
I1
sVdj8m2xl
p976
I1
sVddx12or
p977
I1
sVd901mih
p978
I1
sVdr4nneh
p979
I1
sVd1c8y9n
p980
I1
sVdahc1z8
p981
I1
sVczs00zz
p982
I1
sVdr1ql8e
p983
I1
sVdpkmxdt
p984
I2
sVdo8wvyh
p985
I1
sVdmg2cda
p986
I1
sVdabodr1
p987
I1
sVcz4mmnr
p988
I1
sVd32exb3
p989
I1
sVd6s2029
p990
I1
sVddh5evc
p991
I1
sVdhizwb0
p992
I1
sVdeqrmbw
p993
I1
sVdeu0sgw
p994
I1
sVd9q0b60
p995
I1
sVcz5hfke
p996
I1
sVd2gfaj4
p997
I1
sVd3ln4bo
p998
I1
sVd1t8jfj
p999
I1
sVcz2ogde
p1000
I1
sVdgkg9p9
p1001
I1
sVdgtdjgj
p1002
I2
sVdc8xngw
p1003
I1
sVczjj5rq
p1004
I1
sVdmi9l2y
p1005
I1
sVde1acde
p1006
I1
sVdi9papl
p1007
I1
sVdjozdl7
p1008
I1
sVd7jdxz6
p1009
I1
sVdrvnbqh
p1010
I1
sVcyl5f9d
p1011
I3
sVdgyl7sj
p1012
I1
sVd0h9cho
p1013
I1
sVd449fep
p1014
I1
sVd1d5w8c
p1015
I1
sVczqfrab
p1016
I2
sVd2my5sx
p1017
I1
sVd25im42
p1018
I1
sVdhgvotm
p1019
I2
sVddgrqv4
p1020
I1
sVdmv8wq4
p1021
I2
sVd8yxre9
p1022
I1
sVdnjd1zy
p1023
I1
sVde78br7
p1024
I1
sVdkhylrf
p1025
I1
sVcyy9j3g
p1026
I1
sVdhghibj
p1027
I1
sVdcfimsk
p1028
I1
sVd31qve4
p1029
I1
sVd42dy4o
p1030
I3
sVdd0nzjl
p1031
I1
sVdouilos
p1032
I1
sVdndrrjw
p1033
I2
sVdo5ne2v
p1034
I1
sVczpuvu0
p1035
I1
sVde68ijl
p1036
I3
sVdmf8q0z
p1037
I1
sVczzw187
p1038
I1
sVdklyrmr
p1039
I1
sVdfw7k4q
p1040
I1
sVdnbw3ik
p1041
I2
sVczwb93t
p1042
I1
sVddir4a0
p1043
I1
sVddntv45
p1044
I2
sVd32rwx9
p1045
I1
sVd3pb9j1
p1046
I1
sVd5ea09v
p1047
I1
sVdi46av5
p1048
I1
sVd9tq6m9
p1049
I1
sVdjuxr57
p1050
I1
sVd0tvqa8
p1051
I1
sVdd8x96p
p1052
I1
sVd5ode83
p1053
I1
sVdgcxar5
p1054
I1
sVdmznd0t
p1055
I1
sVdji516e
p1056
I1
sVd6h71xe
p1057
I1
sVde59nu1
p1058
I1
sVdfiu83g
p1059
I2
sVd0ydbcj
p1060
I1
sVd9ujjff
p1061
I1
sVd02iptl
p1062
I1
sVdnm3sxl
p1063
I1
sVd75dt0i
p1064
I1
sVd0hpigl
p1065
I1
sVdk18d8c
p1066
I1
sVdsqo426
p1067
I1
sVd1igswa
p1068
I1
sVdc2bazt
p1069
I1
sVczigc6w
p1070
I2
sVd0nprpb
p1071
I1
sVd020rfh
p1072
I1
sVdrbz99p
p1073
I1
sVdjvug9v
p1074
I1
sVdbia00x
p1075
I1
sVdie6s54
p1076
I1
sVd1cv7dq
p1077
I1
sVdkhx8yw
p1078
I1
sVdmj9gw5
p1079
I2
sVczlvy3j
p1080
I1
sVdmvr61r
p1081
I1
sVdficcss
p1082
I1
sVcztgv7m
p1083
I1
sVd6uz2di
p1084
I1
sVd0ursd7
p1085
I1
sVczztotl
p1086
I1
sVdiaye0i
p1087
I1
sVdtg2afr
p1088
I1
sVd5wo48f
p1089
I1
sVd3ipzf6
p1090
I1
sVd97cwax
p1091
I1
sVdo5vnt2
p1092
I1
sVd8lpaai
p1093
I1
sVdpjsg4n
p1094
I1
sVd1uxq42
p1095
I1
sVdc1d0wn
p1096
I1
sVd1trg8d
p1097
I1
sVdhiapzz
p1098
I1
sVd92k59i
p1099
I1
sVdfic87t
p1100
I1
sVdnxwnr7
p1101
I1
sVd738ua7
p1102
I1
sVd07ot4c
p1103
I1
sVd8m6fml
p1104
I1
sVd24r5kg
p1105
I1
sVdbdmjbe
p1106
I1
sVdcy8pm0
p1107
I1
sVd342yo6
p1108
I1
sVdc5bwp8
p1109
I1
sVcyrm1f0
p1110
I1
sVdk4gbfc
p1111
I1
sVd1dyygh
p1112
I2
sVcyokcbc
p1113
I1
sVcziqv5p
p1114
I1
sVde0c80s
p1115
I1
sVdc12z9o
p1116
I1
sVd1d4nua
p1117
I1
sVdatpj2f
p1118
I1
sVdjsvg7u
p1119
I1
sVdp4006u
p1120
I1
sVcz0b9fo
p1121
I1
sVdtiizm7
p1122
I1
sVdain8k6
p1123
I1
sVd50he2z
p1124
I1
sVd85gnl7
p1125
I2
sVd07zuhy
p1126
I1
sVd1ybgd7
p1127
I1
sVdead7im
p1128
I1
sVdi0xp9j
p1129
I1
sVdfc3vqy
p1130
I1
sVdn1j99m
p1131
I1
sVdiu6hfl
p1132
I1
sVdhtoquf
p1133
I1
sVdf9wa3z
p1134
I1
sVd9myqfe
p1135
I1
sVczrauew
p1136
I1
sVdn1bnlg
p1137
I2
sVdbid9bw
p1138
I1
sVd6g49mk
p1139
I1
sVdmm7hnk
p1140
I1
sVd9vtath
p1141
I1
sVdd8bj8s
p1142
I1
sVd2i7t4i
p1143
I1
sVd862tq1
p1144
I1
sVdgj3viv
p1145
I1
sVd1nqeh7
p1146
I1
sVdgy5qwq
p1147
I1
sVdk851v6
p1148
I1
sVd00nwpa
p1149
I1
sVdafyj6y
p1150
I1
sVdeeh7fy
p1151
I1
sVde54ro1
p1152
I1
sVd7c4pya
p1153
I1
sVdbtm67u
p1154
I2
sVdozx6rz
p1155
I1
sVdjjiagc
p1156
I1
sVd6gog6l
p1157
I2
sVd5jctx4
p1158
I1
sVdgfic9c
p1159
I1
sVdk04jdb
p1160
I1
sVdakncq0
p1161
I1
sVd6acfjk
p1162
I2
sVd0jfq41
p1163
I1
sVdcssnus
p1164
I1
sVd3bfo37
p1165
I2
sVdgnqbl0
p1166
I1
sVdjmczlq
p1167
I1
sVd2n3pht
p1168
I1
sVd7x2c75
p1169
I1
sVd9uevxr
p1170
I1
sVdio34e2
p1171
I1
sVd3vtk7r
p1172
I1
sVdbqi2b6
p1173
I1
sVcz5bthp
p1174
I1
sVdn20sco
p1175
I1
sVd1r6nuu
p1176
I1
sVcz4ivzp
p1177
I1
sVd2mefv4
p1178
I1
sVd61w58l
p1179
I1
sVd7nxz9t
p1180
I1
sVdinnx9i
p1181
I1
sVd8f0k8b
p1182
I1
sVd4jsqdh
p1183
I1
sVdg5w9sp
p1184
I5
sVdnw664m
p1185
I1
sVdftwo4s
p1186
I1
sVd8im0ix
p1187
I1
sVda7z1yv
p1188
I1
sVdix01xi
p1189
I1
sVdb8dzh1
p1190
I1
sVcze4wrv
p1191
I1
sVdi1eyb8
p1192
I1
sVdsbg1og
p1193
I1
sVde1ozc8
p1194
I1
sVd8f0oka
p1195
I1
sVd020saa
p1196
I1
sVczgzyhs
p1197
I1
sVdmhlb9i
p1198
I1
sVcz8un8w
p1199
I1
sVdhhxnhl
p1200
I1
sVdb94txm
p1201
I1
sVdsmhezk
p1202
I1
sVczah1sl
p1203
I1
sVdeqva0z
p1204
I2
sVdr5bhie
p1205
I1
sVdt6ag8x
p1206
I1
sVcyz4b9t
p1207
I1
sVd2g7gbt
p1208
I1
sVdo6hnir
p1209
I1
sVd4n51it
p1210
I1
sVd5y4q5j
p1211
I1
sVdqitb3x
p1212
I1
sVdbh9704
p1213
I1
sVd9p163y
p1214
I1
sVda8rej3
p1215
I1
sVcyz2617
p1216
I1
sVd9ug17k
p1217
I1
sVdcgiud2
p1218
I1
sVd9qgt5i
p1219
I1
sVdb5ooj3
p1220
I1
sVdhdbidx
p1221
I1
sVdhond6g
p1222
I1
sVdhjhqjt
p1223
I1
sVda646zk
p1224
I2
sVdn285vf
p1225
I1
sVdbqc2wo
p1226
I1
sVcz0iudy
p1227
I1
sVd0d17mn
p1228
I1
sVdo2s0l6
p1229
I1
sVdbvebey
p1230
I1
sVdaak6vy
p1231
I1
sVdazu8uj
p1232
I2
sVczpzjo8
p1233
I1
sVdjnshpt
p1234
I1
sVd74srt2
p1235
I1
sVd8axc56
p1236
I1
sVdpr8fws
p1237
I1
sVdmu4829
p1238
I1
sVdoi52c3
p1239
I1
sVdou4g1r
p1240
I1
sVd562vqr
p1241
I1
sVd62osn5
p1242
I1
sVdibzia6
p1243
I1
sVdapqycc
p1244
I1
sVd884dod
p1245
I2
sVdh64jbh
p1246
I2
sVd415qci
p1247
I1
sVcyjr07t
p1248
I1
sVdgt8ywe
p1249
I1
sVd8i4u1p
p1250
I1
sVcynatnv
p1251
I1
sVdhdnhk4
p1252
I1
sVd209d4g
p1253
I1
sVdciwxfh
p1254
I1
sVdevl2fc
p1255
I1
sVd73nn6a
p1256
I1
sVcyoeq27
p1257
I1
sVd5mpb8g
p1258
I1
sVdcbyx63
p1259
I1
sVdc2w993
p1260
I2
sVd9l5st7
p1261
I2
sVcz026qa
p1262
I2
sVd1qel11
p1263
I1
sVczh65we
p1264
I1
sVd5q98hv
p1265
I1
sVdnf0qmb
p1266
I1
sVdekze1y
p1267
I1
sVdd7x27o
p1268
I1
sVd027kh2
p1269
I1
sVd9tps3e
p1270
I1
sVddwogri
p1271
I2
sVdieuxzj
p1272
I1
sVdrszjav
p1273
I1
sVdj1ridc
p1274
I1
sVd34ba5g
p1275
I1
sVdo8tpfb
p1276
I1
sVdfr59ow
p1277
I1
sVdontwgr
p1278
I1
sVd4pn2qq
p1279
I1
sVd40xurw
p1280
I1
sVdb8y1ck
p1281
I1
sVcz23v9f
p1282
I1
sVd8eln87
p1283
I3
sVdavbmaz
p1284
I1
sVd5t0a3i
p1285
I1
sVdf1g447
p1286
I1
sVczch81r
p1287
I1
sVd37ppjx
p1288
I1
sVdcqs1zr
p1289
I1
sVd4ic0i6
p1290
I2
sVdp6di69
p1291
I1
sVd8cyzgv
p1292
I1
sVdbxc1ay
p1293
I1
sVcyja6nz
p1294
I1
sVdpu7jnx
p1295
I1
sVd380ue5
p1296
I2
sVdshaprd
p1297
I2
sVd2t3erg
p1298
I1
sVdeteuo3
p1299
I1
sVdf51rea
p1300
I1
sVd3wibb2
p1301
I1
sVd9hwmnk
p1302
I1
sVd9iusb4
p1303
I1
sVd5ud396
p1304
I1
sVdi3g2y7
p1305
I1
sVdqttz4g
p1306
I1
sVd9nfss8
p1307
I1
sVdcvtc39
p1308
I1
sVd2x1jb5
p1309
I1
sVdtbqjky
p1310
I1
sVdao55nj
p1311
I1
sVcytsue6
p1312
I1
sVdi6uzmi
p1313
I1
sVdsr2mdl
p1314
I1
sVdnm3ghz
p1315
I1
sVdthlrls
p1316
I1
sVdiwk5ui
p1317
I1
sVdn4r6l4
p1318
I1
sVczl2v8t
p1319
I1
sVd1qalkh
p1320
I1
sVddb4osc
p1321
I1
sVd3f130j
p1322
I1
sVd7g1ybv
p1323
I1
sVdel0hga
p1324
I2
sVdi6kc5d
p1325
I2
sVdhlmlpi
p1326
I1
sVdb27wgw
p1327
I1
sVd5no80j
p1328
I1
sVdc0c1uv
p1329
I1
sVd50h8ro
p1330
I1
sVd2czfw5
p1331
I2
sVd1ec08s
p1332
I1
sVd7sqkfo
p1333
I1
sVcz9ap8i
p1334
I1
sVcyq6ho7
p1335
I1
sVd7clqre
p1336
I1
sVdfbbv0s
p1337
I1
sVdco2q3j
p1338
I1
sVd5v27iv
p1339
I1
sVd0s3y4k
p1340
I1
sVd6z9n2m
p1341
I1
sVdatkqkb
p1342
I1
sVcz83m0m
p1343
I1
sVd0wgua3
p1344
I1
sVde15pbv
p1345
I1
sVdbh9db8
p1346
I1
sVdhlsn3c
p1347
I1
sVdcm3m7d
p1348
I1
sVcyi2lbq
p1349
I1
sVdj8h111
p1350
I1
sVdqgcjo2
p1351
I1
sVd0g7e73
p1352
I1
sVdfkgv3b
p1353
I1
sVczav0f0
p1354
I1
sVd35mebc
p1355
I1
sVdmw5502
p1356
I2
sVd7bn86a
p1357
I1
sVd8vd5zj
p1358
I1
sVdc7nri7
p1359
I1
sVd3w2rmd
p1360
I1
sVdd3r023
p1361
I1
sVd2hjvmv
p1362
I2
sVd4j7q3i
p1363
I1
sVdggj6nh
p1364
I1
sVdryj9qy
p1365
I1
sVd7ulkmv
p1366
I1
sVcyvb4z2
p1367
I1
sVdpocgws
p1368
I1
sVdadjv3w
p1369
I1
sVdaz3a55
p1370
I1
sVdjzac2s
p1371
I1
sVd2ih5hw
p1372
I3
sVdr9cpq3
p1373
I1
sVczm0ag8
p1374
I1
sVdeqcwt3
p1375
I1
sVdfy2dha
p1376
I1
sVdnuqalm
p1377
I1
sVd7qxe90
p1378
I1
sVd2ig3ib
p1379
I1
sVdp1djl0
p1380
I1
sVd17anf5
p1381
I1
sVdco5u30
p1382
I1
sVd312g8u
p1383
I1
sVdmvabm0
p1384
I2
sVdp67pec
p1385
I1
sVdnmy4w0
p1386
I1
sVdddfpxu
p1387
I1
sVd39uyf6
p1388
I1
sVddkf4oy
p1389
I1
sVd4uf7aj
p1390
I3
sVdej0d81
p1391
I1
sVdo98o0t
p1392
I1
sVdajb58h
p1393
I1
sVd01rqzo
p1394
I1
sVdgiz40g
p1395
I2
sVdgi3uqw
p1396
I1
sVd1hu13e
p1397
I1
sVdp7o0g9
p1398
I1
sVd3r5zwz
p1399
I1
sVd1o6ksg
p1400
I1
sVd864nl3
p1401
I1
sVd0dnawv
p1402
I1
sVd4qxa5t
p1403
I1
sVd3lqlbv
p1404
I1
sVdej1dfa
p1405
I1
sVd23ktie
p1406
I1
sVdsc42b6
p1407
I1
sVdqwahsi
p1408
I1
sVdb9m5qk
p1409
I1
sVdc7qnuw
p1410
I1
sVd9cmzcb
p1411
I1
sVdcksgox
p1412
I1
sVd5f8v0l
p1413
I1
sVdqumo7j
p1414
I2
sVdjn0au3
p1415
I1
sVdakd9ro
p1416
I1
sVd48mt9q
p1417
I1
sVd181dql
p1418
I1
sVd6xelbu
p1419
I1
sVd6bgbxf
p1420
I1
sVdryce5s
p1421
I1
sVdgbely9
p1422
I1
sVd07l1xr
p1423
I1
sVde7g7qr
p1424
I3
sVdcdlwmc
p1425
I1
sVd68unlx
p1426
I1
sVdaza8if
p1427
I1
sVdc4mybt
p1428
I1
sVd6182wj
p1429
I1
sVde1w97w
p1430
I2
sVd8b4enk
p1431
I1
sVdntte01
p1432
I1
sVdc0cycd
p1433
I1
sVdh9npfc
p1434
I1
sVddyirn4
p1435
I1
sVcyqyepz
p1436
I1
sVdtdxvr6
p1437
I1
sVd0c0lr6
p1438
I1
sVd0ko14u
p1439
I1
sVd1i4ipy
p1440
I1
sVcz9d1la
p1441
I1
sVdi3f5v1
p1442
I1
sVdmg42vz
p1443
I1
sVddmj11j
p1444
I1
sVdgzrezr
p1445
I1
sVdspb5kr
p1446
I1
sVdaggbzd
p1447
I1
sVdrsgzi1
p1448
I1
sVd2f3uvu
p1449
I1
sVdhpyhvt
p1450
I1
sVdn6cxd1
p1451
I1
sVd4s72yk
p1452
I2
sVd7aojoe
p1453
I1
sVdslkz0q
p1454
I1
sVdjx2j4q
p1455
I1
sVdsujxu7
p1456
I1
sVdibth8t
p1457
I3
sVd8ev5b5
p1458
I1
sVd77kl68
p1459
I1
sVd62fqiz
p1460
I1
sVdnsnoq8
p1461
I1
sVd992c8n
p1462
I1
sVdbjthrv
p1463
I1
sVd6qt0or
p1464
I4
sVdny4haa
p1465
I1
sVdsc9bxg
p1466
I1
sVddaya2f
p1467
I1
sVdsovjfx
p1468
I1
sVdslzgs5
p1469
I1
sVdhxpm5e
p1470
I1
sVd35lg3h
p1471
I1
sVdcx50ng
p1472
I1
sVdiiax9d
p1473
I1
sVdkc2zau
p1474
I1
sVda3zpg2
p1475
I2
sVdntuq1y
p1476
I1
sVcztso5u
p1477
I1
sVdcsnpyg
p1478
I1
sVdt2x4ms
p1479
I1
sVd8jyfl3
p1480
I1
sVczxmy59
p1481
I1
sVd1rf6ct
p1482
I1
sVd054vmz
p1483
I1
sVd1nt61u
p1484
I1
sVd7yp185
p1485
I1
sVdgn21m0
p1486
I2
sVdnymgt1
p1487
I1
sVdd8218f
p1488
I1
sVd6i0dp3
p1489
I1
sVd718ohy
p1490
I1
sVdn8qqly
p1491
I1
sVd1oye65
p1492
I1
sVdelch9m
p1493
I1
sVdbtgxgh
p1494
I1
sVdjup8ax
p1495
I1
sVd39mmyj
p1496
I1
sVdjnbpcf
p1497
I1
sVcyo55d8
p1498
I1
sVd62q60a
p1499
I1
sVd3m1s51
p1500
I1
sVd6rejev
p1501
I1
sVdmiaatc
p1502
I1
sVd3ip5qc
p1503
I1
sVdd7v3aq
p1504
I2
sVdi4orrw
p1505
I1
sVd569s0p
p1506
I1
sVd29dqe5
p1507
I1
sVdimvtva
p1508
I2
sVdop6nqe
p1509
I1
sVdms5jz2
p1510
I1
sVdnr4nxk
p1511
I1
sVdklpasa
p1512
I1
sVdc3juoi
p1513
I1
sVdehtwoc
p1514
I1
sVd081a51
p1515
I1
sVd2d7u9v
p1516
I1
sVdmzoqph
p1517
I1
sVd8g81bv
p1518
I1
sVdanuwae
p1519
I1
sVdaorp17
p1520
I1
sVd04nd6q
p1521
I1
sVdd50aou
p1522
I1
sVdk2jeqh
p1523
I1
sVd0j5u8r
p1524
I1
sVd1g03s1
p1525
I1
sVddn4zny
p1526
I1
sVd0h5892
p1527
I1
sVcyzmuwm
p1528
I1
sVd9tbj7h
p1529
I1
sVd5gy5wl
p1530
I3
sVdar8wiu
p1531
I1
sVdccpu23
p1532
I1
sVdsq5h7y
p1533
I1
sVdehjonb
p1534
I1
sVd3uefik
p1535
I1
sVd1v29cs
p1536
I1
sVdpw7dq0
p1537
I1
sVd42d77e
p1538
I1
sVdbctvb6
p1539
I1
sVdrcp06q
p1540
I1
sVdbctvb3
p1541
I1
sVd7wfjy8
p1542
I1
sVdbctvb1
p1543
I1
sVd1f93ve
p1544
I1
sVd8iowe4
p1545
I1
sVdkdxpyw
p1546
I1
sVdmmsh19
p1547
I1
sVdk8e0t2
p1548
I1
sVdkktis1
p1549
I1
sVdfmaoo0
p1550
I1
sVczbd5ry
p1551
I1
sVdo4mgw8
p1552
I1
sVdnehmn7
p1553
I1
sVdb8mzxr
p1554
I2
sVdppfa2k
p1555
I1
sVdkqsdn3
p1556
I1
sVdn3d2az
p1557
I1
sVdemivrw
p1558
I1
sVdimra8m
p1559
I1
sVd47vuvi
p1560
I1
sVdpuq8px
p1561
I1
sVdo6ia1f
p1562
I1
sVdc9p0cn
p1563
I2
sVdazc0ua
p1564
I1
sVcynkprn
p1565
I1
sVd88bfqa
p1566
I1
sVd6nyw3i
p1567
I1
sVd17dq1i
p1568
I1
sVd0zp5oh
p1569
I1
sVdbympia
p1570
I1
sVd4jfv0r
p1571
I1
sVdhcpli9
p1572
I1
sVcz3yhk8
p1573
I1
sVd7eu1ws
p1574
I1
sVd0ky278
p1575
I1
sVd2bg3mv
p1576
I1
sVd5oqxpe
p1577
I1
sVd2321sv
p1578
I1
sVddqqong
p1579
I2
sVczunj4g
p1580
I1
sVdkc2r1f
p1581
I1
sVdscj315
p1582
I1
sVd8ce9os
p1583
I1
sVdt068bh
p1584
I1
sVczxkys0
p1585
I1
sVdaonbst
p1586
I2
sVd7b6fnf
p1587
I1
sVd1gg76j
p1588
I1
sVd6lykh7
p1589
I1
sVdjbmsx4
p1590
I1
sVdj1oi8l
p1591
I1
sVd3h0u4b
p1592
I1
sVd7vwgt0
p1593
I1
sVd3hre0v
p1594
I1
sVdia4dv6
p1595
I1
sVdau0ou7
p1596
I1
sVdcpk1kb
p1597
I1
sVd5ckzgt
p1598
I1
sVd5r7ffj
p1599
I1
sVd0pvwsp
p1600
I1
sVd4ihl28
p1601
I1
sVd8ahbjc
p1602
I1
sVdc0wf6h
p1603
I2
sVczm0rbc
p1604
I1
sVdbn1gcx
p1605
I1
sVdo1miya
p1606
I1
sVczfjaof
p1607
I1
sVcz7jmxs
p1608
I1
sVdftrggz
p1609
I1
sVda1uo61
p1610
I1
sVd3n9yu2
p1611
I1
sVdj06xnv
p1612
I1
sVcz8230b
p1613
I1
sVd4h4uy6
p1614
I1
sVd0yk3l8
p1615
I1
sVcyl0jxb
p1616
I1
sVd209e47
p1617
I2
sVdtiq2yx
p1618
I1
sVdbe2e5q
p1619
I1
sVd48zrgl
p1620
I1
sVd2b7cgz
p1621
I1
sVdrmbb51
p1622
I1
sVd5x9tk5
p1623
I1
sVd0m0lqo
p1624
I1
sVdcjjzdo
p1625
I2
sVcysvoq8
p1626
I1
sVd36ekr2
p1627
I2
sVdgpnqx8
p1628
I1
sVd66gd8l
p1629
I1
sVd1xp2ez
p1630
I1
sVdfgkpkr
p1631
I1
sVdocuv8s
p1632
I1
sVdcau424
p1633
I3
sVdp1glt7
p1634
I1
sVd1n4qm6
p1635
I1
sVdeymbne
p1636
I1
sVd68qbxl
p1637
I1
sVdcls1vi
p1638
I1
sVcznnh64
p1639
I1
sVdrsq922
p1640
I1
sVd9br6ch
p1641
I1
sVd1nv9p0
p1642
I1
sVd2t3byz
p1643
I1
sVd0zsk6y
p1644
I1
sVdehii9o
p1645
I1
sVczz69u3
p1646
I2
sVdhz98dz
p1647
I1
sVdmkb0ci
p1648
I1
sVdd7il3o
p1649
I1
sVdb30bp0
p1650
I1
sVdag0ob7
p1651
I1
sVdk48bqt
p1652
I2
sVd95tpxl
p1653
I1
sVd7pp16p
p1654
I1
sVczor21q
p1655
I1
sVcyq48fc
p1656
I1
sVdivpguz
p1657
I1
sVdb8gapo
p1658
I1
sVdkchsbw
p1659
I1
sVdjo5ntt
p1660
I1
sVdi0lz5r
p1661
I1
sVdfb1g5a
p1662
I1
sVdst9tsl
p1663
I1
sVdc679s4
p1664
I1
sVdfdtvxq
p1665
I1
sVd58c5fe
p1666
I1
sVde0tk5p
p1667
I1
sVdc7u7wd
p1668
I1
sVddkghhh
p1669
I1
sVdfbb13i
p1670
I1
sVdci8n40
p1671
I1
sVdcyqqv8
p1672
I1
sVdnuoe6x
p1673
I1
sVd2in091
p1674
I1
sVdd3zk2h
p1675
I1
sVd1koaju
p1676
I3
sVddwvtyx
p1677
I1
sVdhgjyjd
p1678
I2
sVd7eu3wk
p1679
I1
sVdcy15k2
p1680
I1
sVczg13gw
p1681
I1
sVdowe3x9
p1682
I1
sVdh265iu
p1683
I1
sVd3d4cpr
p1684
I1
sVdcz54yq
p1685
I1
sVdfym7dc
p1686
I1
sVdjtpklw
p1687
I1
sVdml2xb3
p1688
I1
sVdd6t358
p1689
I1
sVdgyvmyl
p1690
I1
sVd6h3yyz
p1691
I1
sVd7zuy4o
p1692
I1
sVdfflkb9
p1693
I1
sVdd5owht
p1694
I1
sVcyo3hfz
p1695
I1
sVdkg55ga
p1696
I1
sVdfx2cky
p1697
I1
sVcz69o2c
p1698
I1
sVdkupstv
p1699
I1
sVd4twvsa
p1700
I1
sVdhtvl76
p1701
I2
sVdiqtq2a
p1702
I1
sVdprvup8
p1703
I1
sVd2p3b8s
p1704
I2
sVdnm9h67
p1705
I1
sVddn5e04
p1706
I1
sVd691wl4
p1707
I1
sVderjmxv
p1708
I1
sVdd2n99y
p1709
I1
sVcyvwlm1
p1710
I1
sVd7kppmb
p1711
I1
sVdkm9l96
p1712
I1
sVdbitpub
p1713
I1
sVdkoyajx
p1714
I1
sVdc0wd2z
p1715
I2
sVd1xxzwf
p1716
I1
sVdcom8vz
p1717
I1
sVdr65h5y
p1718
I1
sVda5x8mm
p1719
I1
sVd888o53
p1720
I1
sVdsrmjf5
p1721
I1
sVddcbjoq
p1722
I1
sVd6tntrx
p1723
I1
sVdiitupw
p1724
I1
sVd40goi1
p1725
I1
sVd4czp3h
p1726
I1
sVdcrzh7f
p1727
I1
sVde9tcrc
p1728
I1
sVdarbw25
p1729
I3
sVd2bf1w0
p1730
I1
sVdo43zv1
p1731
I1
sVdfpoxw3
p1732
I1
sVdtcylhd
p1733
I1
sVdkxcqhb
p1734
I1
sVdbqkm6h
p1735
I1
sVd7l94wz
p1736
I1
sVd5oozqg
p1737
I1
sVd02wrfn
p1738
I2
sVdqs2iz5
p1739
I1
sVczglfts
p1740
I1
sVdahmw4i
p1741
I1
sVdclb2h6
p1742
I1
sVdbqh2dn
p1743
I1
sVd5fprhq
p1744
I1
sVdgnigmj
p1745
I1
sVcz2855t
p1746
I1
sVdje7jfz
p1747
I1
sVdazpnaz
p1748
I3
sVdewtybb
p1749
I1
sVd6bgfmh
p1750
I1
sVd04tpzo
p1751
I1
sVd4v8khy
p1752
I1
sVd72m5bi
p1753
I1
sVde2sc8j
p1754
I1
sVdg5e07m
p1755
I1
sVczc9lhg
p1756
I3
sVdalypk4
p1757
I1
sVdis26u0
p1758
I1
sVcz7utx3
p1759
I1
sVdhfe9v8
p1760
I1
sVcysmrmb
p1761
I2
sVdhhvzg4
p1762
I1
sVdrcxx4a
p1763
I1
sVdifk1j8
p1764
I1
sVdd12l50
p1765
I1
sVde11w05
p1766
I1
sVdsvrjj2
p1767
I1
sVdk6zxyc
p1768
I1
sVdgjq2fj
p1769
I1
sVd6lstlq
p1770
I1
sVd9s7b4m
p1771
I1
sVdaznupl
p1772
I1
sVdjn89lv
p1773
I1
sVd5yvjwe
p1774
I1
sVd1uuj6q
p1775
I1
sVd5815vj
p1776
I1
sVd99luoa
p1777
I1
sVdqhsw7i
p1778
I1
sVdagnsoi
p1779
I1
sVd3dbc1o
p1780
I1
sVdnm4etm
p1781
I1
sVd4rk2vb
p1782
I1
sVdc3hvwe
p1783
I1
sVdc91tgt
p1784
I3
sVcyyk4lk
p1785
I1
sVdhowljm
p1786
I1
sVd2jk9vc
p1787
I1
sVdeleagd
p1788
I1
sVczxl60t
p1789
I1
sVde6s8rl
p1790
I1
sVdkgx6ib
p1791
I1
sVdf1vie7
p1792
I1
sVdmxvcbh
p1793
I1
sVdklsr64
p1794
I1
sVdf68in2
p1795
I1
sVdo5o8do
p1796
I1
sVdpb92tx
p1797
I1
sVczspu0c
p1798
I1
sVdirsuj2
p1799
I1
sVdpw7h2m
p1800
I1
sVdhjl6kk
p1801
I1
sVczfns0g
p1802
I1
sVdatzs7n
p1803
I1
sVd5i1whm
p1804
I1
sVdnffe5f
p1805
I1
sVdrrjsyw
p1806
I1
sVd0epek9
p1807
I1
sVdad4dic
p1808
I1
sVdjshyld
p1809
I1
sVd3hz5de
p1810
I1
sVdd7crp0
p1811
I2
sVdggovsf
p1812
I2
sVdhm8665
p1813
I1
sVczrn9ej
p1814
I1
sVde94t6p
p1815
I1
sVdjx8k1u
p1816
I1
sVcz0zu33
p1817
I1
sVd4umswj
p1818
I1
sVd3qporv
p1819
I1
sVdh4zw7m
p1820
I1
sVdal5ayz
p1821
I1
sVd1bshwf
p1822
I1
sVcz70hk0
p1823
I1
sVd0kstki
p1824
I1
sVd1zray0
p1825
I1
sVd8o8ae1
p1826
I1
sVdhcem3b
p1827
I2
sVdr0srvf
p1828
I1
sVdbmv5xj
p1829
I1
sVd5em8jg
p1830
I1
sVd3mqy04
p1831
I1
sVdo7lw5u
p1832
I1
sVdix19kf
p1833
I1
sVd1isukv
p1834
I1
sVdinv7rm
p1835
I1
sVdbingx5
p1836
I1
sVdgnyvfk
p1837
I1
sVd41hhve
p1838
I1
sVd5gvnf3
p1839
I2
sVdaea603
p1840
I1
sVd30j1h8
p1841
I2
sVd30p8c9
p1842
I1
sVd3979gy
p1843
I1
sVdd72mn5
p1844
I1
sVd2nthm9
p1845
I1
sVd4rhxhn
p1846
I1
sVdn45g0e
p1847
I1
sVd4zl0vn
p1848
I1
sVdi7v1rp
p1849
I1
sVdc3vpih
p1850
I1
sVd4jpp9x
p1851
I1
sVd4hmxmd
p1852
I1
sVd0fqxe6
p1853
I1
sVd9iwoil
p1854
I1
sVdgmwp1x
p1855
I5
sVdjqx97x
p1856
I1
sVdd9lt7v
p1857
I1
sVczu5d86
p1858
I1
sVdgpwjoq
p1859
I1
sVczh2yzr
p1860
I1
sVd91639h
p1861
I1
sVdizl8yk
p1862
I1
sVdoklput
p1863
I1
sVddgj0ef
p1864
I1
sVczz39e7
p1865
I1
sVdfazw3i
p1866
I2
sVdco9tm6
p1867
I1
sVdgxk6rl
p1868
I1
sVd6j7zfh
p1869
I1
sVdjv0457
p1870
I1
sVd3z7fo6
p1871
I2
sVdpov2l1
p1872
I2
sVdemjqio
p1873
I1
sVd15fv8l
p1874
I1
sVdr9byg3
p1875
I1
sVd0i99ew
p1876
I1
sVd9d020h
p1877
I1
sVd9ytvfh
p1878
I1
sVdamg89o
p1879
I1
sVd4ffghm
p1880
I1
sVczip80d
p1881
I1
sVd02cfaq
p1882
I1
sVd7948ey
p1883
I1
sVdqt0jez
p1884
I1
sVd756uvb
p1885
I1
sVdqmjbxs
p1886
I1
sVd7xi091
p1887
I1
sVdobbn38
p1888
I1
sVd7rtq7w
p1889
I1
sVcyna5b1
p1890
I1
sVd1bndbo
p1891
I1
sVdaxlytg
p1892
I1
sVd7sd6kt
p1893
I1
sVd5iom0t
p1894
I1
sVdjj0jil
p1895
I2
sVd65gvdn
p1896
I1
sVd5fuzrm
p1897
I1
sVd02kbor
p1898
I1
sVdgh88b8
p1899
I1
sVcym3yss
p1900
I1
sVdt06j7q
p1901
I1
sVcyujb7c
p1902
I1
sVdamb7py
p1903
I1
sVdrzxddq
p1904
I2
sVdb5vg91
p1905
I2
sVcytwhue
p1906
I1
sVd9dpntg
p1907
I1
sVdbrqk7y
p1908
I1
sVczcdidx
p1909
I1
sVd19su9k
p1910
I1
sVd1abskq
p1911
I1
sVdmzabv1
p1912
I1
sVdf6g9qt
p1913
I1
sVddkfi49
p1914
I1
sVdrhsenf
p1915
I2
sVd7tfri6
p1916
I1
sVd4uxxii
p1917
I1
sVdnxjkvo
p1918
I1
sVd4ubx83
p1919
I1
sVd2agh4m
p1920
I2
sVdpbr2cw
p1921
I1
sVdp03n06
p1922
I1
sVd3vi1ng
p1923
I1
sVcyu985v
p1924
I1
sVd4l191w
p1925
I1
sVdmlyeca
p1926
I1
sVdexza5s
p1927
I1
sVd4jwp0h
p1928
I1
sVdte2ccb
p1929
I1
sVdezfkdh
p1930
I1
sVcz8p26n
p1931
I1
sVdducodb
p1932
I1
sVd8x1c1n
p1933
I1
sVdauk4xd
p1934
I1
sVdfv8gjy
p1935
I1
sVdcu9nmj
p1936
I1
sVd2w34ki
p1937
I1
sVd0f42ru
p1938
I1
sVd21197z
p1939
I1
sVd9fmfpx
p1940
I1
sVdmqm4tk
p1941
I1
sVd930omk
p1942
I1
sVdj4dcew
p1943
I1
sVczultki
p1944
I1
sVdknammn
p1945
I2
sVdd1go0m
p1946
I1
sVdodagvd
p1947
I1
sVczc0azi
p1948
I1
sVczw4294
p1949
I1
sVd05bu88
p1950
I1
sVd0kz4xe
p1951
I1
sVddoy0tz
p1952
I1
sVd57vqf8
p1953
I1
sVdehuans
p1954
I1
sVdn2ru7a
p1955
I1
sVdb59arl
p1956
I1
sVd143d58
p1957
I1
sVd8vowo1
p1958
I1
sVdcuf6w3
p1959
I1
sVdfofgeu
p1960
I1
sVcyn1t78
p1961
I1
sVdb0qmhc
p1962
I1
sVdfcw6vp
p1963
I1
sVdeqtd8h
p1964
I1
sVd1me6az
p1965
I2
sVdgf3zfd
p1966
I1
sVd558jld
p1967
I1
sVdoahsq1
p1968
I1
sVczynuhg
p1969
I1
sVd50mpzg
p1970
I1
sVd2rnkdy
p1971
I1
sVdpb0y0t
p1972
I1
sVdo81zo0
p1973
I1
sVdertjfx
p1974
I2
sVd5a0jsv
p1975
I1
sVd6u9etg
p1976
I1
sVd2sgbh2
p1977
I1
sVdgqv5jv
p1978
I2
sVdbd0dt7
p1979
I1
sVdrb7ghd
p1980
I1
sVd0zk10g
p1981
I1
sVdkiodsw
p1982
I1
sVd61r7cu
p1983
I1
sVd0zakd1
p1984
I1
sVdp23oit
p1985
I1
sVd05xb6p
p1986
I1
sVdptzl4n
p1987
I1
sVd4uqu1w
p1988
I1
sVd0bm87b
p1989
I1
sVdqphor7
p1990
I1
sVdfyn8eb
p1991
I1
sVdnwt58n
p1992
I1
sVdaypsvg
p1993
I1
sVdjj76fa
p1994
I1
sVdny7ulh
p1995
I1
sVdek1iy7
p1996
I1
sVdjle2r9
p1997
I1
sVdb11mtt
p1998
I1
sVdbn1l4c
p1999
I1
sVd153hdh
p2000
I1
sVdevz6k1
p2001
I1
sVdg1qsux
p2002
I1
sVdj5vqcw
p2003
I1
sVd25v4sa
p2004
I1
sVdnl6a3l
p2005
I1
sVdauz2cp
p2006
I1
sVdgxrsh0
p2007
I1
sVd29hvvd
p2008
I1
sVdsax2jf
p2009
I1
sVdag7ed0
p2010
I1
sVd0lvt7l
p2011
I1
sVdeemj1n
p2012
I1
sVdoa3z04
p2013
I1
sVdk0q5yy
p2014
I1
sVd1j32b4
p2015
I1
sVdehuvyo
p2016
I1
sVda2qyd9
p2017
I1
sVdrqvw1y
p2018
I1
sVd0ntmrz
p2019
I1
sVde9j0jj
p2020
I1
sVd0batvt
p2021
I1
sVczi4em4
p2022
I1
sVds4p9d7
p2023
I1
sVdfdzcla
p2024
I1
sVdfp8a2t
p2025
I1
sVdmtfv9b
p2026
I1
sVdh5o4k6
p2027
I1
sVdt8icla
p2028
I1
sVdaybz34
p2029
I1
sVdfs7lqv
p2030
I1
sVdd5036d
p2031
I2
sVdr3s8sq
p2032
I2
sVd9f08ta
p2033
I1
sVdbuy0vg
p2034
I1
sVda3ambo
p2035
I3
sVd2qfs3j
p2036
I1
sVcym9nyh
p2037
I1
sVdhxb60c
p2038
I1
sVdg8x6l6
p2039
I1
sVd2w9c6c
p2040
I2
sVdc5e3y1
p2041
I1
sVd70rvso
p2042
I1
sVd9rabkk
p2043
I1
sVd0yjnin
p2044
I1
sVcz6zllb
p2045
I1
sVd0jw643
p2046
I1
sVdnd95hl
p2047
I1
sVd1noyrd
p2048
I1
sVdpwnbx6
p2049
I1
sVd7yzn0x
p2050
I1
sVczqjnbq
p2051
I1
sVd1inlhf
p2052
I1
sVdgy92uo
p2053
I1
sVczcdaiv
p2054
I1
sVd9boej7
p2055
I1
sVdag0x13
p2056
I1
sVcz5hpk2
p2057
I1
sVczsr7t2
p2058
I2
sVdd455vx
p2059
I1
sVd8ikrq2
p2060
I1
sVdphrrjo
p2061
I1
sVdpcoyni
p2062
I1
sVdaom4f3
p2063
I2
sVdqrniue
p2064
I1
sVdk4c75r
p2065
I1
sVcymp7fn
p2066
I1
sVdn79igk
p2067
I1
sVd7qwr4x
p2068
I2
sVdi016zm
p2069
I2
sVdkm660n
p2070
I1
sVddme3hj
p2071
I2
sVd5qkz7l
p2072
I1
sVdgxl82m
p2073
I1
sVdrmk2k7
p2074
I1
sVde0bp2t
p2075
I1
sVd20jz7r
p2076
I2
sVdrp0ype
p2077
I1
sVd3lkut2
p2078
I1
sVdiecnd7
p2079
I1
sVd9tm4lp
p2080
I1
sVdtg2osl
p2081
I1
sVdg5pstq
p2082
I1
sVcynko7h
p2083
I1
sVdqvmv2d
p2084
I1
sVd3vxt0h
p2085
I1
sVdaee9jc
p2086
I1
sVdde9juu
p2087
I1
sVdnf2cfb
p2088
I1
sVdbxu70v
p2089
I1
sVd1859oc
p2090
I1
sVdn7tndi
p2091
I1
sVd2tynlo
p2092
I1
sVd08h0r9
p2093
I1
sVczm3lou
p2094
I1
sVd3ymc62
p2095
I1
sVd4ox2e1
p2096
I1
sVdoahg8m
p2097
I1
sVdcdr0a9
p2098
I1
sVcz4kzu5
p2099
I1
sVde2jn0p
p2100
I1
sVdbrwzsv
p2101
I1
sVdenypa3
p2102
I1
sVd1vrw5g
p2103
I3
sVdrgaxdq
p2104
I1
sVcyp7v48
p2105
I1
sVdsbqq4t
p2106
I1
sVdgun77u
p2107
I1
sVd89shbs
p2108
I1
sVdi3mnpq
p2109
I1
sVdc5o0ea
p2110
I1
sVdt07mtk
p2111
I1
sVdgs3abe
p2112
I1
sVd2241q1
p2113
I1
sVd5uf52n
p2114
I1
sVdok5od0
p2115
I1
sVdbzh0su
p2116
I1
sVdcnwrvi
p2117
I1
sVdc9e2b9
p2118
I1
sVd6f1dye
p2119
I1
sVdatqm5d
p2120
I1
sVczf7m1m
p2121
I1
sVdcgnt4z
p2122
I1
sVd4fmd08
p2123
I1
sVd1h0un5
p2124
I2
sVdcj1ygp
p2125
I1
sVdg2pi6l
p2126
I1
sVd90olil
p2127
I1
sVd7yk4ik
p2128
I1
sVdpyo8yg
p2129
I1
sVd30i4n5
p2130
I2
sVd6j5ge4
p2131
I2
sVd19okv8
p2132
I1
sVcznv8rg
p2133
I1
sVd97ksrw
p2134
I1
sVdcf01x3
p2135
I1
sVd7vtq46
p2136
I1
sVdc0c0gv
p2137
I1
sVdgrwzed
p2138
I1
sVcykg81g
p2139
I1
sVd773hxs
p2140
I1
sVd1nnyhy
p2141
I1
sVcz6czz8
p2142
I1
sVdkdgt1y
p2143
I1
sVczsjowk
p2144
I1
sVd2rc8gz
p2145
I1
sVdgattp5
p2146
I1
sVd9ivzqa
p2147
I1
sVdnws2tr
p2148
I1
sVd08oiy0
p2149
I1
sVddia0wv
p2150
I1
sVd3z6jj6
p2151
I1
sVd4hlkwp
p2152
I1
sVdsszqz6
p2153
I1
sVdodi73w
p2154
I1
sVdg4c3nk
p2155
I1
sVd39ykub
p2156
I1
sVd8w6ugb
p2157
I1
sVd9mg24b
p2158
I1
sVdci6t32
p2159
I1
sVd7kd1to
p2160
I1
sVde8ddr2
p2161
I1
sVd138eby
p2162
I1
sVd32z0oq
p2163
I1
sVd87tacf
p2164
I1
sVd49n2ml
p2165
I2
sVd1oqc3v
p2166
I1
sVddif02h
p2167
I1
sVcz4ymqn
p2168
I1
sVd7d1fbl
p2169
I1
sVdmocnjn
p2170
I1
sVdrujihw
p2171
I1
sVd7buwsc
p2172
I1
sVdk929of
p2173
I1
sVd2auq8v
p2174
I1
sVdihl935
p2175
I1
sVdgkqbrd
p2176
I1
sVdqa1078
p2177
I2
sVd7nyrco
p2178
I1
sVdf0wp9g
p2179
I1
sVddrib7g
p2180
I1
sVd0uoo8g
p2181
I1
sVd13a34q
p2182
I1
sVdel0qe7
p2183
I1
sVd18p62d
p2184
I1
sVdjyj423
p2185
I1
sVdqzp5r7
p2186
I3
sVd08e75e
p2187
I1
sVdg2otg3
p2188
I1
sVd0ti4cp
p2189
I1
sVdej945s
p2190
I1
sVd8adxrt
p2191
I1
sVdb01in9
p2192
I1
sVdkbnvm5
p2193
I1
sVcymcsd1
p2194
I2
sVdtbwtzm
p2195
I1
sVddjd4fd
p2196
I1
sVd950yb8
p2197
I1
sVdd08ix7
p2198
I1
sVdsvz770
p2199
I1
sVd2j5x8i
p2200
I1
sVdopxh9z
p2201
I1
sVdi84l9t
p2202
I1
sVdaziid2
p2203
I1
sVdagrsf9
p2204
I1
sVdhj9mo7
p2205
I1
sVd41qm5x
p2206
I1
sVdhjnjsy
p2207
I1
sVdncfb69
p2208
I1
sVd48cgz6
p2209
I1
sVdaaq9t8
p2210
I1
sVdo9rm53
p2211
I1
sVd2ok7n2
p2212
I1
sVdh2sapg
p2213
I1
sVdfx5jfo
p2214
I1
sVd7phxe2
p2215
I1
sVdmqala4
p2216
I1
sVdc2wds1
p2217
I1
sVd1lnrih
p2218
I1
sVdp04egp
p2219
I1
sVdjnhfvi
p2220
I1
sVd14kfoz
p2221
I1
sVdjok8mc
p2222
I1
sVdh9x8b7
p2223
I1
sVdbddtzp
p2224
I1
sVcyye0cj
p2225
I1
sVcz1jf5s
p2226
I1
sVcyyhbco
p2227
I1
sVd1a8lhr
p2228
I1
sVdgmdv9v
p2229
I1
sVdn2i944
p2230
I1
sVdfwu39r
p2231
I1
sVd3qujwv
p2232
I1
sVd4qwj9h
p2233
I1
sVdaxobl0
p2234
I1
sVdc00dz5
p2235
I1
sVcymbzrz
p2236
I1
sVd02j1t1
p2237
I1
sVdd9d3zr
p2238
I1
sVdbgpejv
p2239
I1
sVdeqbqyt
p2240
I1
sVd74vluu
p2241
I1
sVd9n0lm2
p2242
I1
sVdicx29r
p2243
I1
sVdf9vuw8
p2244
I1
sVd85lt5h
p2245
I1
sVdbiwia0
p2246
I1
sVd05vdnx
p2247
I1
sVddl7wes
p2248
I1
sVdb882a7
p2249
I1
sVd353zkd
p2250
I1
sVdjgmag2
p2251
I1
sVddy8n01
p2252
I1
sVddmmyvc
p2253
I2
sVdeqqbtn
p2254
I1
sVd2n58m1
p2255
I1
sVdg7zfxn
p2256
I1
sVdawuhcd
p2257
I1
sVdoe3i7s
p2258
I1
sVczc3man
p2259
I1
sVdf38v9h
p2260
I1
sVdeo3vaf
p2261
I1
sVcyi6y4t
p2262
I1
sVd0m3vs7
p2263
I1
sVd0kpden
p2264
I1
sVd0c9txa
p2265
I1
sVdhhpws4
p2266
I1
sVd3rxxuw
p2267
I1
sVdkqmn52
p2268
I1
sVdr4ojpl
p2269
I1
sVd2kr2e3
p2270
I1
sVdmmfon0
p2271
I1
sVd10s9ph
p2272
I1
sVczgxfue
p2273
I1
sVdiu8c4l
p2274
I1
sVd4jdy6d
p2275
I1
sVdkupdfb
p2276
I1
sVde7lc73
p2277
I1
sVdajm3fc
p2278
I1
sVdct3s9r
p2279
I1
sVdbavbk0
p2280
I1
sVd3bkkvr
p2281
I1
sVdizn8zf
p2282
I1
sVdn56xg2
p2283
I1
sVd0xqnd4
p2284
I1
sVd4vfjkl
p2285
I1
sVdpsov9n
p2286
I1
sVd538mr6
p2287
I1
sVd1ulpdo
p2288
I1
sVdkm5otl
p2289
I1
sVdntrt9q
p2290
I1
sVdgi05dh
p2291
I1
sVd87lsvq
p2292
I1
sVdf8302l
p2293
I1
sVdhwue9j
p2294
I1
sVdcge6d8
p2295
I1
sVdna97f7
p2296
I1
sVd2x82p1
p2297
I1
sVdbhirrb
p2298
I1
sVdeqlir9
p2299
I2
sVdsismww
p2300
I1
sVdeupudn
p2301
I1
sVdhn7o84
p2302
I1
sVd9pxv42
p2303
I1
sVddmqw31
p2304
I1
sVdi9ph1c
p2305
I1
sVcyuxihc
p2306
I1
sVdbo80u9
p2307
I1
sVdd0dxmw
p2308
I1
sVdem734s
p2309
I1
sVd3clgwy
p2310
I1
sVddbi2a3
p2311
I1
sVd03m7pi
p2312
I1
sVd60varz
p2313
I1
sVd0tk57m
p2314
I1
sVd1eacmw
p2315
I1
sVd9aylxl
p2316
I1
sVdhgw8jm
p2317
I1
sVdayh66f
p2318
I1
sVd9g6wj4
p2319
I1
sVds68769
p2320
I1
sVd8nvb2b
p2321
I2
sVdrdrlyr
p2322
I1
sVdnc7rei
p2323
I1
sVd0y37zj
p2324
I1
sVd7kq0kc
p2325
I3
sVcz0mk6b
p2326
I1
sVdc6v3fx
p2327
I1
sVde4b91e
p2328
I1
sVd7bo37m
p2329
I1
sVd91vqfu
p2330
I1
sVd44jwr2
p2331
I1
sVda24w50
p2332
I1
sVdnl4hgf
p2333
I1
sVdev100z
p2334
I1
sVdcn8ute
p2335
I1
sVd3hf51w
p2336
I4
sVdis0vov
p2337
I1
sVcyxld6i
p2338
I1
sVdp89dx1
p2339
I1
sVd9tig5g
p2340
I1
sVdmma758
p2341
I1
sVdg64nsv
p2342
I2
sVd3p0iez
p2343
I1
sVded3j3o
p2344
I1
sVdd3fblx
p2345
I1
sVdsdhy8y
p2346
I1
sVdhpgoj8
p2347
I1
sVcyyxjmc
p2348
I1
sVcz7k2oz
p2349
I1
sVdfkan2a
p2350
I1
sVdg2ew8v
p2351
I1
sVddoxh0p
p2352
I1
sVd1oct23
p2353
I1
sVd4iw8fm
p2354
I1
sVdr6yzh3
p2355
I1
sVd40qt2w
p2356
I1
sVdqe0038
p2357
I1
sVd4ra6cp
p2358
I1
sVd0wp9f4
p2359
I1
sVd0m6t3m
p2360
I1
sVda3ivzb
p2361
I1
sVdjqfhak
p2362
I3
sVdcolp4z
p2363
I1
sVd88x9fp
p2364
I1
sVd0hii9c
p2365
I2
sVd9bqnxm
p2366
I1
sVcysfh4g
p2367
I1
sVde4txea
p2368
I1
sVdb0fuaf
p2369
I1
sVdbuxhim
p2370
I1
sVdt9p5x5
p2371
I1
sVdknmqhe
p2372
I1
sVdc3c7zs
p2373
I1
sVczkxlop
p2374
I1
sVdirnwev
p2375
I1
sVdrsmmnm
p2376
I1
sVdmxpysa
p2377
I1
sVdhml1r2
p2378
I1
sVdcxjt40
p2379
I1
sVdri5fdt
p2380
I1
sVdfkyy2a
p2381
I1
sVdjr5lm5
p2382
I1
sVdg8rc9i
p2383
I1
sVd59k07q
p2384
I1
sVd4bcuix
p2385
I1
sVd86ap5d
p2386
I1
sVdn2htzc
p2387
I2
sVcymxoi2
p2388
I1
sVdrhi8w6
p2389
I1
sVd3wa2ip
p2390
I1
sVd9pir15
p2391
I1
sVdd076xa
p2392
I1
sVd62knmu
p2393
I1
sVdaa8vkl
p2394
I1
sVdd7fxr3
p2395
I1
sVd1rnmgd
p2396
I1
sVdiqg2hw
p2397
I1
sVdd55bnw
p2398
I1
sVd00hzy1
p2399
I1
sVd4pm2wm
p2400
I1
sVd2u4yai
p2401
I1
sVdcgb9pn
p2402
I1
sVdsy0hvn
p2403
I1
sVdfcklmx
p2404
I1
sVdixnps3
p2405
I2
sVdgardej
p2406
I1
sVd71nmff
p2407
I1
sVdedzbbk
p2408
I1
sVczp701z
p2409
I1
sVdhcm7wm
p2410
I1
sVd0t6956
p2411
I1
sVdbcpf1t
p2412
I1
sVdbe2vxm
p2413
I1
sVda4hx5x
p2414
I1
sVdi2hn9a
p2415
I1
sVd0x4egh
p2416
I1
sVddsb38i
p2417
I4
sVd4ivujv
p2418
I1
sVdi2zalh
p2419
I1
sVd1p2axs
p2420
I1
sVdacnhxk
p2421
I1
sVdd53l5t
p2422
I1
sVd3g8vam
p2423
I1
sVdeustrz
p2424
I1
sVdtclz0q
p2425
I1
sVcz5ipww
p2426
I1
sVdhan7s3
p2427
I1
sVd5nlsqr
p2428
I1
sVdn4oe2d
p2429
I1
sVdkez9aj
p2430
I1
sVddy8tha
p2431
I1
sVdc8xox3
p2432
I1
sVczes77o
p2433
I1
sVdau0q3u
p2434
I1
sVd93sw8p
p2435
I1
sVd9ua5w4
p2436
I1
sVd1w9jb1
p2437
I1
sVd6hjzpu
p2438
I1
sVdnxla0l
p2439
I1
sVdtgj09h
p2440
I1
sVd0ztf0h
p2441
I1
sVd2guagu
p2442
I1
sVdgxd133
p2443
I3
sVdkn814b
p2444
I1
sVdfgblks
p2445
I1
sVdodp0gm
p2446
I1
sVd95dtys
p2447
I1
sVdiwufi4
p2448
I1
sVdan1yg2
p2449
I1
sVd0ycfxa
p2450
I1
sVd0qrhp5
p2451
I1
sVd0kq29a
p2452
I1
sVdgbk02s
p2453
I1
sVd5r1ev8
p2454
I1
sVdn45ncj
p2455
I1
sVdcwegu7
p2456
I1
sVda288v5
p2457
I1
sVdau8s0v
p2458
I1
sVdcbprjk
p2459
I1
sVdbiqg6r
p2460
I1
sVdotsvh5
p2461
I1
sVd7h46ok
p2462
I1
sVddbcriy
p2463
I1
sVdiknbnq
p2464
I2
sVd0hmn2b
p2465
I1
sVdcdlo1y
p2466
I1
sVddugbmr
p2467
I1
sVd11lnin
p2468
I1
sVdivglrm
p2469
I1
sVdbjl8n3
p2470
I1
sVdnhqcop
p2471
I1
sVd6waghs
p2472
I1
sVddc8qz4
p2473
I1
sVd2bg4nh
p2474
I1
sVdqo7vr7
p2475
I1
sVd8j7da5
p2476
I1
sVdconbya
p2477
I1
sVdkpe8hz
p2478
I1
sVcys30zm
p2479
I1
sVd0kmssg
p2480
I1
sVdbv6xr0
p2481
I1
sVd0iyqt9
p2482
I1
sVd9gwdnk
p2483
I1
sVdgm18lx
p2484
I1
sVdogm7xh
p2485
I1
sVdirwq0y
p2486
I1
sVdfnd0fy
p2487
I1
sVd27do2y
p2488
I1
sVdn3f38w
p2489
I1
sVdc4ctrg
p2490
I1
sVd84qdmt
p2491
I1
sVcyjp5in
p2492
I1
sVdau08zm
p2493
I1
sVdicejiy
p2494
I1
sVd5on975
p2495
I1
sVdsm6zi9
p2496
I2
sVdfcfof8
p2497
I1
sVd0yhqu1
p2498
I1
sVdhgk1mp
p2499
I1
sVdj2582m
p2500
I1
sVdhw6w0x
p2501
I1
sVdch9zfx
p2502
I1
sVd65in28
p2503
I1
sVdh64id5
p2504
I1
sVd6p0q63
p2505
I1
sVdamo2qw
p2506
I1
sVd03jvgr
p2507
I1
sVdqw6e06
p2508
I1
sVd9x5y46
p2509
I2
sVdjeg4hk
p2510
I1
sVdg7jbke
p2511
I1
sVd1qukjy
p2512
I1
sVd89bv68
p2513
I1
sVditc189
p2514
I1
sVdego1tm
p2515
I1
sVddr8bbh
p2516
I1
sVd2bojrp
p2517
I1
sVd70r3jb
p2518
I1
sVdekp6x5
p2519
I1
sVdix5vd2
p2520
I1
sVd9gemzj
p2521
I1
sVd58d9je
p2522
I2
sVdmfk6h1
p2523
I1
sVd6rxm6g
p2524
I2
sVderj2pv
p2525
I1
sVczslq7h
p2526
I1
sVd8ejirm
p2527
I1
sVd9kgzqx
p2528
I2
sVd26jgto
p2529
I1
sVdesg0hx
p2530
I1
sVd907kuz
p2531
I1
sVdgwfhx6
p2532
I2
sVdry9cyp
p2533
I1
sVdb7co5z
p2534
I1
sVd6ne1sc
p2535
I1
sVd2n3oku
p2536
I1
sVdhng1iz
p2537
I1
sVdhs920q
p2538
I1
sVd5n1yy0
p2539
I1
sVde1zzqv
p2540
I1
sVd5vp9il
p2541
I1
sVdgvokk7
p2542
I1
sVdbi0axx
p2543
I1
sVd2jpnt0
p2544
I1
sVd2cv72a
p2545
I1
sVdonwdtw
p2546
I1
sVdr02c72
p2547
I1
sVd73zjw6
p2548
I1
sVdol2v0i
p2549
I1
sVdhd5dss
p2550
I1
sVddvd83s
p2551
I1
sVdadgyo0
p2552
I1
sVdovdvdd
p2553
I1
sVdj1nkkq
p2554
I2
sVde0ktlq
p2555
I1
sVd0o8bw2
p2556
I1
sVdj9rpy1
p2557
I1
sVczk30c9
p2558
I1
sVdj9pe52
p2559
I1
sVd97vfoa
p2560
I1
sVdqmyky5
p2561
I1
sVdddvanz
p2562
I1
sVdkyu23j
p2563
I1
sVdadqwij
p2564
I1
sVdc1g0cy
p2565
I2
sVderm98k
p2566
I1
sVdqhd36d
p2567
I3
sVddk2ur7
p2568
I1
sVdo7ttb0
p2569
I1
sVdfj2lrx
p2570
I1
sVdpl2svg
p2571
I1
sVd57vmhy
p2572
I1
sVdaizl23
p2573
I1
sVdipqw47
p2574
I1
sVd83ztlv
p2575
I1
sVdp8yvg8
p2576
I1
sVd5xtyvh
p2577
I1
sVd09wg0t
p2578
I1
sVddq1nfq
p2579
I1
sVd7qm5cm
p2580
I2
sVdp8rqux
p2581
I2
sVdcgz9bo
p2582
I1
sVd3jdhs1
p2583
I1
sVdce46dt
p2584
I3
sVdinyz0i
p2585
I1
sVddvalvx
p2586
I1
sVd0vjzwp
p2587
I1
sVdnwftuy
p2588
I1
sVd570z1m
p2589
I1
sVdg652qt
p2590
I1
sVd5so0u7
p2591
I1
sVdobjo6w
p2592
I1
sVd2oarrx
p2593
I1
sVdfvg7qh
p2594
I1
sVdqei8zt
p2595
I1
sVdf7vbq6
p2596
I1
sVdeaheb9
p2597
I1
sVdn1opcs
p2598
I2
sVdpamcuk
p2599
I2
sVd55xxpw
p2600
I1
sVdjnz6wv
p2601
I1
sVdpux7i3
p2602
I1
sVd4wf8oa
p2603
I1
sVd2rn0tz
p2604
I1
sVde67947
p2605
I1
sVdblrnpj
p2606
I1
sVd0373os
p2607
I1
sVcyxxmdk
p2608
I1
sVdaeaev3
p2609
I2
sVd6dvbxm
p2610
I1
sVdf6nmn2
p2611
I1
sVd1tvkab
p2612
I1
sVdcwwzm0
p2613
I1
sVd549itx
p2614
I1
sVd0f5e3s
p2615
I1
sVdgmsl9u
p2616
I1
sVcz2tnqt
p2617
I1
sVd55f544
p2618
I1
sVddy8squ
p2619
I1
sVcz9riwa
p2620
I1
sVd6tzi9l
p2621
I1
sVd1f1gnz
p2622
I1
sVd0elj0d
p2623
I1
sVd6298v3
p2624
I1
sVd1ydk6x
p2625
I1
sVda368n2
p2626
I1
sVd546jrv
p2627
I2
sVcyq2np8
p2628
I1
sVd3ted4g
p2629
I1
sVdn4v8jj
p2630
I1
sVd8vku87
p2631
I1
sVdpxsas7
p2632
I1
sVdckfl8o
p2633
I1
sVdre6qxg
p2634
I1
sVd1e68rz
p2635
I1
sVd159ybx
p2636
I1
sVddqe3vw
p2637
I1
sVdgdlcd1
p2638
I1
sVd1t63j8
p2639
I1
sVdbbl6e4
p2640
I1
sVd5i0zu3
p2641
I1
sVdaqp1r6
p2642
I1
sVcyxc9jw
p2643
I1
sVdbsri22
p2644
I1
sVdj7y09m
p2645
I1
sVd2cz3u4
p2646
I1
sVczjqfux
p2647
I1
sVdopzgec
p2648
I3
sVdbez1sz
p2649
I1
sVd8gc4fv
p2650
I1
sVd9nqoty
p2651
I1
sVdirzfvq
p2652
I1
sVdt5sp7w
p2653
I1
sVdcfjg6k
p2654
I1
sVdix24lp
p2655
I2
sVd2nzaj5
p2656
I1
sVdjsm6la
p2657
I1
sVd63fsv4
p2658
I1
sVdhom5t4
p2659
I1
sVdbhshiu
p2660
I1
sVd5trhhn
p2661
I1
sVd12hekh
p2662
I1
sVdehvnqi
p2663
I1
sVcylftef
p2664
I1
sVd8j9e5u
p2665
I1
sVd0kyk7k
p2666
I1
sVdfpavel
p2667
I1
sVdgx7v7y
p2668
I1
sVdeqtt0p
p2669
I1
sVdicnl41
p2670
I1
sVd3mnho1
p2671
I1
sVdqy19wy
p2672
I1
sVd2j6ooq
p2673
I1
sVdh9ahf9
p2674
I2
sVdo098ps
p2675
I1
sVd0npxe5
p2676
I4
sVdhicqva
p2677
I1
sVdtf6xii
p2678
I1
sVd5rizq7
p2679
I1
sVd1hlnl5
p2680
I1
sVdcrik41
p2681
I1
sVd5isbq3
p2682
I2
sVd1tvndw
p2683
I2
sVd5kltis
p2684
I1
sVd0qi4yl
p2685
I1
sVd6hiyzc
p2686
I2
sVdqf2eh8
p2687
I1
sVd30idcn
p2688
I1
sVdafyiz3
p2689
I1
sVd9qor9b
p2690
I1
sVdc3goom
p2691
I1
sVd5s71tw
p2692
I1
sVdsza1hz
p2693
I1
sVdde0ibp
p2694
I1
sVdrv6kku
p2695
I1
sVd30kte2
p2696
I2
sVd2yd1o3
p2697
I1
sVdfw2nkn
p2698
I1
sVd7f9qxk
p2699
I3
sVdazx020
p2700
I1
sVdcdfiuw
p2701
I1
sVd95n274
p2702
I1
sVdi46x9t
p2703
I1
sVd8j8lss
p2704
I1
sVd7vr5u1
p2705
I1
sVczdrt69
p2706
I1
sVdeqq1ku
p2707
I1
sVdh4p866
p2708
I1
sVde4f09k
p2709
I1
sVd30gbf3
p2710
I1
sVdfv2one
p2711
I1
sVdcjpbvb
p2712
I1
sVdcuafki
p2713
I1
sVddhuxla
p2714
I1
sVd2vdxh9
p2715
I1
sVdn4c9bh
p2716
I1
sVde6zeva
p2717
I1
sVdgmon14
p2718
I1
sVdb3doeg
p2719
I1
sVd4h9vq9
p2720
I1
sVdmvl7aa
p2721
I1
sVdg1em6w
p2722
I2
sVd1p9ens
p2723
I1
sVd1bnxoy
p2724
I1
sVd4ed60u
p2725
I1
sVd1tk8zp
p2726
I1
sVd2523iv
p2727
I1
sVde7xjid
p2728
I1
sVczn6ern
p2729
I1
sVd2cdyf4
p2730
I2
sVd2t4czj
p2731
I1
sVdc9pwkp
p2732
I1
sVdnhg7fn
p2733
I1
sVd4tet2v
p2734
I1
sVd1pa6gk
p2735
I1
sVd9xxwo6
p2736
I1
sVczo1g5m
p2737
I1
sVd3h8b98
p2738
I1
sVdcsyb4v
p2739
I1
sVddlas3k
p2740
I1
sVdnaiuoq
p2741
I1
sVdre4w4t
p2742
I1
sVdh3s1gs
p2743
I1
sVdhlprok
p2744
I1
sVdnt47kk
p2745
I1
sVdspwr2a
p2746
I1
sVdgry5a1
p2747
I1
sVda63roq
p2748
I1
sVddgm89z
p2749
I1
sVd66lrm9
p2750
I1
sVd9bv1h9
p2751
I1
sVdfjrkjz
p2752
I1
sVdksmf2h
p2753
I1
sVdgp5ja4
p2754
I1
sVdd2ic3o
p2755
I1
sVdgpxf9m
p2756
I1
sVd8t4ber
p2757
I1
sVcyrqrjy
p2758
I2
sVd56n3tg
p2759
I1
sVd5l626g
p2760
I1
sVd1kxhlh
p2761
I1
sVde3ehgq
p2762
I2
sVdh0hi2s
p2763
I1
sVdj0ou96
p2764
I1
sVdngrcw8
p2765
I1
sVczku3j5
p2766
I1
sVd0qukdf
p2767
I1
sVdqr2tda
p2768
I1
sVczwp2xf
p2769
I1
sVd0nylwe
p2770
I1
sVd8d2c4t
p2771
I1
sVd7lvgy3
p2772
I1
sVd2sotqp
p2773
I1
sVdmst8my
p2774
I1
sVd9nljis
p2775
I1
sVd9qi5y2
p2776
I1
sVd0tb0r4
p2777
I1
sVd1czgq9
p2778
I3
sVdo2xsq2
p2779
I1
sVdp94sq0
p2780
I1
sVdat27qq
p2781
I1
sVdh15ueo
p2782
I1
sVdpc6jjd
p2783
I1
sVcykfed4
p2784
I1
sVdeekzpf
p2785
I1
sVdjw9jng
p2786
I1
sVd74egm6
p2787
I1
sVdijeiy7
p2788
I1
sVdjsutyg
p2789
I1
sVdbgvpbn
p2790
I1
sVdnzx9v8
p2791
I2
sVd84k34s
p2792
I1
sVd4uklo9
p2793
I1
sVd68tbxc
p2794
I1
sVdil6sdc
p2795
I1
sVd0pommt
p2796
I1
sVdpnazwb
p2797
I1
sVdqa6jrb
p2798
I1
sVdkmf0ep
p2799
I1
sVdd7sd53
p2800
I1
sVdmypzle
p2801
I1
sVcywe4qo
p2802
I1
sVd2dplj3
p2803
I2
sVday0gbh
p2804
I1
sVd2yl1h2
p2805
I1
sVdb207a7
p2806
I1
sVcz97xrm
p2807
I1
sVd19ggg3
p2808
I1
sVd9jr846
p2809
I1
sVdcrfrjc
p2810
I1
sVd3mw2j4
p2811
I1
sVd7kfyol
p2812
I1
sVd1mw3cw
p2813
I1
sVdde8zdv
p2814
I1
sVd8j18wn
p2815
I1
sVcz51khm
p2816
I1
sVd6b8sxy
p2817
I4
sVdfh1bnc
p2818
I1
sVd5gy8xc
p2819
I1
sVdr0rma4
p2820
I1
sVdeu06vo
p2821
I1
sVd4ulkdb
p2822
I2
sVd2o4gt2
p2823
I1
sVdpdl6px
p2824
I1
sVd7sk9o2
p2825
I1
sVdhjp8bc
p2826
I1
sVd076q73
p2827
I1
sVd2kmu52
p2828
I1
sVdt6g53e
p2829
I2
sVd14yw92
p2830
I1
sVdmgqwjm
p2831
I1
sVd0uir0a
p2832
I1
sVdr96e51
p2833
I1
sVdgvmdab
p2834
I1
sVdf63yby
p2835
I1
sVd5k4rei
p2836
I2
sVd2mw16j
p2837
I1
sVd8stini
p2838
I2
sVdh70asp
p2839
I1
sVdivtube
p2840
I1
sVd98a6lz
p2841
I1
sVdh2pi73
p2842
I1
sVdnwu2a6
p2843
I1
sVdn3lzdt
p2844
I1
sVde2q9y6
p2845
I1
sVda4dmep
p2846
I1
sVde2vjkt
p2847
I1
sVd4fionj
p2848
I1
sVdd1pzxb
p2849
I1
sVd12iffv
p2850
I1
sVdoeqwc2
p2851
I1
sVdcqzn04
p2852
I1
sVczmc505
p2853
I1
sVd58s4um
p2854
I1
sVd4uqyr2
p2855
I2
sVd0m250t
p2856
I1
sVd4pklt9
p2857
I1
sVdejhfde
p2858
I1
sVdijssmn
p2859
I1
sVd3qgyne
p2860
I1
sVdh9aj3w
p2861
I1
sVdt9ho4r
p2862
I1
sVd72z291
p2863
I1
sVd5f6nrw
p2864
I1
sVdk4e1tp
p2865
I1
sVda6t479
p2866
I1
sVdgruylu
p2867
I1
sVdpmqkve
p2868
I1
sVcz06kzq
p2869
I1
sVd5dscmz
p2870
I2
sVd7z03kv
p2871
I2
sVd3pqdps
p2872
I1
sVdthj787
p2873
I1
sVd36ltav
p2874
I1
sVd5h56i7
p2875
I1
sVd7cmaca
p2876
I1
sVd2v3s3u
p2877
I1
sVdr5e7k7
p2878
I1
sVdihultp
p2879
I1
sVdelk4oq
p2880
I1
sVd7oufcj
p2881
I1
sVdglxa2y
p2882
I1
sVda88lzs
p2883
I1
sVde953kh
p2884
I1
sVdf90qmj
p2885
I1
sVd1jv0r5
p2886
I1
sVdp633gz
p2887
I1
sVdp48dr1
p2888
I1
sVdnuntk5
p2889
I1
sVd7up7j1
p2890
I1
sVdcok4vw
p2891
I2
sVdf43h5p
p2892
I1
sVd4zz6rj
p2893
I1
sVdfvd67v
p2894
I2
sVdbws4zy
p2895
I1
sVdc8xtmk
p2896
I1
sVd8fcwvr
p2897
I1
sVczjop2b
p2898
I1
sVd7504st
p2899
I1
sVd6190g5
p2900
I2
sVd4x25l5
p2901
I1
sVdkc5viz
p2902
I1
sVd5cvw5v
p2903
I1
sVd3t1xcm
p2904
I1
sVdfgzp7f
p2905
I1
sVdgxjdrh
p2906
I1
sVd7x0qbt
p2907
I1
sVdomwbxj
p2908
I1
sVdc50616
p2909
I3
sVds82mlb
p2910
I1
sVdk6ypyj
p2911
I1
sVderx7yf
p2912
I1
sVd12wp7s
p2913
I1
sVd0nrm47
p2914
I1
sVd1hdw62
p2915
I1
sVdajr89w
p2916
I1
sVdiq1lis
p2917
I1
sVd8vgeqa
p2918
I1
sVd1rhmnl
p2919
I1
sVdce3wgt
p2920
I1
sVdq3y32x
p2921
I1
sVdiv2b4j
p2922
I1
sVd6bvcy7
p2923
I1
sVdpmk0uc
p2924
I1
sVcz0vhpu
p2925
I2
sVd25xbfx
p2926
I1
sVdkuvev9
p2927
I3
sVdaah746
p2928
I1
sVd65la39
p2929
I1
sVd65m1c3
p2930
I1
sVd01jn7j
p2931
I1
sVczgpnej
p2932
I1
sVdd6vmun
p2933
I1
sVdojilf5
p2934
I1
sVdetw4x3
p2935
I1
sVdh6u8xw
p2936
I1
sVd009e66
p2937
I1
sVd6tn7ve
p2938
I1
sVdqwd8d2
p2939
I1
sVdi5czv6
p2940
I1
sVdptjfkf
p2941
I1
sVdt0su4t
p2942
I1
sVd07deke
p2943
I1
sVdnvkguw
p2944
I1
sVcyyfof1
p2945
I2
sVczlnskl
p2946
I2
sVdj5aihe
p2947
I1
sVcynfzpg
p2948
I1
sVdenrqdh
p2949
I1
sVda4ox49
p2950
I1
sVdbwciko
p2951
I1
sVdb35p2v
p2952
I1
sVd5q32ic
p2953
I1
sVd33p86c
p2954
I1
sVdd96s38
p2955
I1
sVddbpey0
p2956
I1
sVd1th44t
p2957
I1
sVdi25386
p2958
I2
sVdfghyv0
p2959
I1
sVdczmzeh
p2960
I1
sVdhut21t
p2961
I1
sVd6xbu51
p2962
I1
sVdk36oeh
p2963
I2
sVdb9oywx
p2964
I1
sVd2y8uf4
p2965
I2
sVdo7th00
p2966
I1
sVd4joswr
p2967
I1
sVdc02ixc
p2968
I1
sVdbyec5l
p2969
I1
sVd6079b3
p2970
I1
sVdn3jn5h
p2971
I1
sVczl8ydx
p2972
I1
sVd2aqw80
p2973
I1
sVdk4gujt
p2974
I1
sVdntxfha
p2975
I1
sVdcjtbli
p2976
I1
sVd582e15
p2977
I1
sVd4srpc9
p2978
I1
sVdsr9wll
p2979
I1
sVd8zz855
p2980
I1
sVdn4frx2
p2981
I1
sVdqvn4y7
p2982
I1
sVczqjxa7
p2983
I1
sVdaihwgl
p2984
I1
sVd7b9htx
p2985
I1
sVdop6cn3
p2986
I1
sVd2hibrt
p2987
I3
sVczbfu57
p2988
I1
sVdajbo9l
p2989
I1
sVd0i0ag4
p2990
I1
sVdf6tyhy
p2991
I1
sVd1nr3de
p2992
I1
sVd6lq5rh
p2993
I1
sVd55izn9
p2994
I1
sVdcsuckh
p2995
I1
sVdf46tae
p2996
I1
sVczz9xtm
p2997
I1
sVdj7cwjo
p2998
I1
sVdqbceef
p2999
I1
sVd4m3c6k
p3000
I1
sVd0xcyqn
p3001
I1
sVd9ae9vp
p3002
I1
sVdkmj3gr
p3003
I1
sVddc1hf8
p3004
I1
sVd9z16dg
p3005
I1
sVd1ywq4e
p3006
I1
sVd8k8ioz
p3007
I1
sVd6t25d1
p3008
I1
sVd3bh2co
p3009
I1
sVdndhe0u
p3010
I1
sVdiaemnp
p3011
I3
sVdhds1mx
p3012
I1
sVd0ob5sh
p3013
I1
sVd64m6kt
p3014
I1
sVdbyy642
p3015
I1
sVdozv8n2
p3016
I1
sVddw5e9g
p3017
I1
sVdf0ybsz
p3018
I1
sVdenwxbr
p3019
I1
sVdp7vtmo
p3020
I1
sVdbq5ire
p3021
I1
sVdftop3h
p3022
I1
sVdaxtaog
p3023
I1
sVdd5pyjy
p3024
I1
sVd2h25on
p3025
I1
sVdcmlrs5
p3026
I1
sVde2v0dn
p3027
I1
sVdo4j4fh
p3028
I1
sVdhin6wp
p3029
I1
sVd1jvwaa
p3030
I1
sVd8fng3g
p3031
I1
sVdafzw78
p3032
I1
sVdj8jewd
p3033
I1
sVd370n60
p3034
I1
sVdnja7pu
p3035
I2
sVd8hvux7
p3036
I1
sVd0wnxdr
p3037
I1
sVd5nijcy
p3038
I1
sVd91t73k
p3039
I2
sVczc0u6t
p3040
I1
sVdait9nw
p3041
I1
sVdrkqf2w
p3042
I1
sVdbivm1m
p3043
I1
sVd0912zs
p3044
I1
sVd4wp252
p3045
I2
sVdkornp1
p3046
I1
sVdamp65j
p3047
I1
sVd2qjyhw
p3048
I1
sVdf09dm8
p3049
I1
sVd48tpdd
p3050
I1
sVdowbiau
p3051
I1
sVd4rs6hx
p3052
I1
sVdggmn1i
p3053
I1
sVd2euxyt
p3054
I1
sVd0amvfl
p3055
I1
sVdefm19w
p3056
I1
sVdfs4kce
p3057
I1
sVd2hmrgr
p3058
I1
sVdi7murk
p3059
I1
sVd3bep85
p3060
I1
sVdhatq5k
p3061
I1
sVdffebgz
p3062
I1
sVdh1x38k
p3063
I2
sVdpw7mnm
p3064
I1
sVdhzg6gv
p3065
I3
sVd3ase21
p3066
I1
sVdqyz6ne
p3067
I1
sVd7kj26w
p3068
I1
sVdjaxnqi
p3069
I1
sVdozd3ji
p3070
I1
sVd2jen6v
p3071
I1
sVddp2e32
p3072
I1
sVczravfi
p3073
I1
sVda9i1yg
p3074
I1
sVdq1i47c
p3075
I1
sVdngmwzf
p3076
I1
sVd2vyfu2
p3077
I1
sVdfv1vlz
p3078
I1
sVcyzdlrp
p3079
I1
sVdeupkdh
p3080
I2
sVd2qnkq3
p3081
I1
sVd8zbk9l
p3082
I1
sVd7ndcb1
p3083
I1
sVd7uycz7
p3084
I1
sVd0v19n2
p3085
I2
sVdsvhuwm
p3086
I1
sVdniql1l
p3087
I1
sVd3mhl0r
p3088
I1
sVdjko1by
p3089
I1
sVddhveeo
p3090
I1
sVdsi4imq
p3091
I1
sVd72e5gp
p3092
I1
sVd1xmdr1
p3093
I1
sVdrzbths
p3094
I1
sVdtayp9s
p3095
I1
sVdc8j4se
p3096
I1
sVd44ar8t
p3097
I1
sVd5uqev0
p3098
I1
sVd60s78j
p3099
I1
sVd25yvon
p3100
I1
sVd4lmsjr
p3101
I1
sVd7nv923
p3102
I1
sVd1h1eqq
p3103
I1
sVdjgc88q
p3104
I1
sVd2jwd41
p3105
I1
sVdevbkbh
p3106
I1
sVdcdl6ah
p3107
I1
sVdazd5v9
p3108
I1
sVdcg5wrk
p3109
I1
sVdgxe1t4
p3110
I3
sVd50f3jp
p3111
I1
sVdibqm6f
p3112
I1
sVdgkchii
p3113
I1
sVdr5ibjt
p3114
I1
sVdho198r
p3115
I1
sVdmrd6xq
p3116
I1
sVd2z6n0m
p3117
I1
sVdkpzgyh
p3118
I1
sVd0u2oei
p3119
I1
sVd0g28r2
p3120
I1
sVd0uq44n
p3121
I2
sVd0rouij
p3122
I1
sVd6acj2u
p3123
I1
sVd5zogwd
p3124
I1
sVdaqgqdu
p3125
I1
sVdmwqnnq
p3126
I1
sVdf1x9g2
p3127
I1
sVcz87set
p3128
I1
sVd5lqe6l
p3129
I2
sVd6l5jto
p3130
I1
sVdbn5rj4
p3131
I1
sVdghcwk7
p3132
I1
sVdmm6ew3
p3133
I1
sVd3gorer
p3134
I1
sVd6llo0t
p3135
I1
sVdp0495i
p3136
I1
sVd0conlm
p3137
I1
sVdc2b2zc
p3138
I1
sVd9kakq3
p3139
I1
sVdeeh3ah
p3140
I2
sVd57y3yo
p3141
I1
sVdpfcwpt
p3142
I1
sVd2by20m
p3143
I1
sVczuivep
p3144
I1
sVd6qajdj
p3145
I1
sVdruczmp
p3146
I3
sVcysj4bg
p3147
I1
sVdaa9cb7
p3148
I1
sVd4ut4mv
p3149
I1
sVd3swclw
p3150
I1
sVdk4f722
p3151
I1
sVdcizx7z
p3152
I1
sVdo8xpu0
p3153
I2
sVdje2i84
p3154
I1
sVdf6jao3
p3155
I1
sVd20ul2s
p3156
I1
sVdmiskda
p3157
I2
sVd2nbz0z
p3158
I1
sVdjhxbmx
p3159
I1
sVcz4y7pv
p3160
I1
sVd6zbhzv
p3161
I1
sVdry3qog
p3162
I1
sVdobwle0
p3163
I1
sVcze1fsd
p3164
I1
sVddpl9pg
p3165
I1
sVd71bi2d
p3166
I1
sVd62wpzk
p3167
I1
sVdriv6pe
p3168
I1
sVd7j08ui
p3169
I1
sVd82mhno
p3170
I1
sVdqqbd63
p3171
I1
sVdemj1ld
p3172
I1
sVdr9jwr7
p3173
I1
sVd2ha5y5
p3174
I1
sVcyvvcr1
p3175
I3
sVd9evnf7
p3176
I1
sVdmisdef
p3177
I1
sVczqjdxc
p3178
I1
sVdcuc4o8
p3179
I1
sVd8p34x4
p3180
I1
sVde4a1s0
p3181
I1
sVd8xqcj1
p3182
I1
sVd4dwqy1
p3183
I1
sVddsvp9c
p3184
I1
sVdoob38l
p3185
I1
sVdjxagmt
p3186
I1
sVd8brww4
p3187
I1
sVcywz07y
p3188
I1
sVd2deixk
p3189
I1
sVdo7h5pm
p3190
I1
sVcytda62
p3191
I1
sVdg4wglp
p3192
I1
sVdsp3pdb
p3193
I1
sVdfbmfz7
p3194
I1
sVd79iwjy
p3195
I1
sVd5utvkv
p3196
I1
sVdn62mne
p3197
I1
sVdenhp20
p3198
I2
sVdaijoor
p3199
I1
sVd45u7ym
p3200
I2
sVdayl6ly
p3201
I1
sVdml5d7f
p3202
I1
sVdbiab40
p3203
I1
sVd428687
p3204
I1
sVdcmn3hk
p3205
I1
sVdnk3vcp
p3206
I1
sVd48oojr
p3207
I1
sVdftc15i
p3208
I3
sVd36lvb0
p3209
I1
sVdbtqs66
p3210
I1
sVdi2rfxf
p3211
I3
sVd114pei
p3212
I2
sVdrq5n1c
p3213
I1
sVdg7c9ov
p3214
I1
sVd4qn2h4
p3215
I1
sVd0shncn
p3216
I1
sVdcpuqtf
p3217
I1
sVdn339hn
p3218
I2
sVd64k342
p3219
I1
sVdi9h82p
p3220
I1
sVd88yjrz
p3221
I2
sVd4pue91
p3222
I1
sVdfvnyt6
p3223
I1
sVddjee8a
p3224
I1
sVd2bi68v
p3225
I1
sVd7t8aga
p3226
I1
sVdcii1zm
p3227
I1
sVd7jzhdm
p3228
I1
sVczvkib2
p3229
I1
sVdh5k4u1
p3230
I1
sVddx119t
p3231
I1
sVdi5d3e1
p3232
I2
sVczzccw5
p3233
I1
sVd3buebl
p3234
I2
sVddxzsy8
p3235
I1
sVdbcduo5
p3236
I1
sVde5udtc
p3237
I1
sVdq78c9u
p3238
I1
sVdmyg0x1
p3239
I1
sVd0qor6y
p3240
I1
sVd680bvy
p3241
I1
sVd6co03h
p3242
I1
sVd179yju
p3243
I3
sVdhwi2gz
p3244
I1
sVczu0rw7
p3245
I3
sVd67sbik
p3246
I1
sVdrvnsbb
p3247
I1
sVd92uxt6
p3248
I1
sVd6obu5o
p3249
I1
sVd16rlpp
p3250
I2
sVd3g72j6
p3251
I1
sVdo88foz
p3252
I1
sVd8jsyh0
p3253
I1
sVdfvkt12
p3254
I1
sVddgcxxg
p3255
I1
sVdosxz0t
p3256
I1
sVdod521l
p3257
I1
sVd1144ik
p3258
I1
sVcyozymb
p3259
I1
sVddu40k7
p3260
I1
sVdb86b3y
p3261
I1
sVd33acv5
p3262
I1
sVd0oo4u9
p3263
I1
sVd0jltrp
p3264
I1
sVdg5onyy
p3265
I1
sVd1slhth
p3266
I1
sVdr4z6gu
p3267
I1
sVdjktdzz
p3268
I1
sVdmts4s9
p3269
I1
sVdaiplju
p3270
I1
sVdkh4qnl
p3271
I1
sVd24q0xo
p3272
I1
sVddj8e5u
p3273
I1
sVd8c1f7o
p3274
I1
sVd0ha5q0
p3275
I1
sVd3waqng
p3276
I1
sVd375bs6
p3277
I1
sVdjk524s
p3278
I1
sVd7fcjkl
p3279
I1
sVdrg3wl3
p3280
I1
sVdbkcke8
p3281
I1
sVdn2hh4z
p3282
I1
sVd0096pm
p3283
I1
sVd1uxwhg
p3284
I1
sVdk3nkpf
p3285
I1
sVczh9gpb
p3286
I1
sVdcxvcqz
p3287
I1
sVdd8fbb8
p3288
I1
sVd2cj8mk
p3289
I2
sVd1td2zr
p3290
I1
sVdqq8fmt
p3291
I1
sVd1nowr3
p3292
I1
sVd00gp5j
p3293
I1
sVdko7yab
p3294
I1
sVd4pmrgr
p3295
I1
sVd02zn1x
p3296
I2
sVd6yq64q
p3297
I1
sVd55kzs5
p3298
I1
sVdg6yimg
p3299
I1
sVdbnt4ny
p3300
I1
sVd40u7mx
p3301
I1
sVdqbauyo
p3302
I1
sVd4urnso
p3303
I1
sVd3iov3d
p3304
I5
sVd42xwdh
p3305
I1
sVd21coav
p3306
I1
sVdh0a4ae
p3307
I1
sVdow24ki
p3308
I2
sVdt7tm8m
p3309
I1
sVdmyf8ab
p3310
I1
sVdsetbyg
p3311
I1
sVd4hslvt
p3312
I1
sVdd0tfml
p3313
I1
sVcz8n9zj
p3314
I1
sVd33sekj
p3315
I1
sVd4wgq43
p3316
I2
sVdbjyumj
p3317
I1
sVdmf6nn7
p3318
I1
sVdpjr90c
p3319
I1
sVd0knyta
p3320
I1
sVd9v8e5k
p3321
I1
sVd59g2ig
p3322
I1
sVdiej6s5
p3323
I1
sVd2ssmzj
p3324
I1
sVd9r7hs2
p3325
I1
sVd1pqloo
p3326
I1
sVd9j0jlj
p3327
I1
sVdhwt5pi
p3328
I1
sVdbvajgc
p3329
I1
sVdpa8qif
p3330
I1
sVdh4x85d
p3331
I1
sVdan9oem
p3332
I1
sVd9cl6x0
p3333
I1
sVd42g26s
p3334
I1
sVcyqcko8
p3335
I1
sVd6vj74j
p3336
I1
sVdq9thjw
p3337
I1
sVdkzkxwf
p3338
I1
sVd4xwx1f
p3339
I1
sVdgmp40z
p3340
I1
sVdcbpklf
p3341
I2
sVdi85jzw
p3342
I1
sVd7c6n2b
p3343
I1
sVdgbip1j
p3344
I1
sVdjn4jdt
p3345
I1
sVdhcrx1j
p3346
I1
sVdecgamm
p3347
I1
sVd0e089k
p3348
I2
sVd24kk5s
p3349
I1
sVdf4ap5p
p3350
I1
sVdfajr3l
p3351
I1
sVda2rf2o
p3352
I1
sVdgayc74
p3353
I1
sVcyisaf1
p3354
I2
sVd38cgcz
p3355
I1
sVdgyzjxi
p3356
I1
sVdc8utw1
p3357
I1
sVd9dez97
p3358
I1
sVds4pel5
p3359
I1
sVd0lwpet
p3360
I1
sVcz0dnwz
p3361
I1
sVd40wheq
p3362
I2
sVdczq7gl
p3363
I1
sVdmwtd01
p3364
I1
sVdeq1i3g
p3365
I1
sVd0nfni9
p3366
I1
sVdcc0g9a
p3367
I1
sVd2k4feq
p3368
I1
sVd0vrj05
p3369
I1
sVd7hs3ko
p3370
I1
sVddtimd8
p3371
I1
sVd29ls7f
p3372
I1
sVd972wz8
p3373
I1
sVdjr41ph
p3374
I1
sVdgwwgoy
p3375
I1
sVdfty5wr
p3376
I1
sVdfljerj
p3377
I2
sVczn2lk8
p3378
I1
sVd3wuyg8
p3379
I1
sVd0l8syd
p3380
I1
sVdd8idbn
p3381
I1
sVdau00yo
p3382
I1
sVder7m66
p3383
I1
sVd5aei0x
p3384
I1
sVcz8n1ha
p3385
I1
sVcz8u0nu
p3386
I1
sVcyk46g8
p3387
I1
sVcyqve61
p3388
I1
sVdi9wmo9
p3389
I2
sVd4vnj9v
p3390
I1
sVd40gumi
p3391
I1
sVdaypj3n
p3392
I1
sVd7r20sp
p3393
I1
sVd8pfexd
p3394
I1
sVdp2kdde
p3395
I2
sVczbm85x
p3396
I1
sVdmuta51
p3397
I1
sVd63l8ub
p3398
I1
sVcyyd1qi
p3399
I1
sVdci2nom
p3400
I1
sVdey24ax
p3401
I1
sVcz97prw
p3402
I1
sVd8veu2e
p3403
I1
sVdjyygx7
p3404
I1
sVdn6ka4j
p3405
I1
sVd1t5zd7
p3406
I1
sVd3y5t68
p3407
I1
sVd0xn6ge
p3408
I1
sVdd3rcr2
p3409
I1
sVddc52gs
p3410
I1
sVd0hvbne
p3411
I1
sVdet3o64
p3412
I1
sVd0tr8ob
p3413
I1
sVcyxo7tm
p3414
I1
sVd2oupra
p3415
I1
sVcz9v64m
p3416
I1
sVdknwq0x
p3417
I1
sVdtaj2ms
p3418
I1
sVd2ddlho
p3419
I1
sVdfq38jj
p3420
I1
sVd04g04o
p3421
I1
sVdgqjzp9
p3422
I1
sVdnflt7o
p3423
I1
sVd48letl
p3424
I1
sVd26i1st
p3425
I1
sVd235gs9
p3426
I1
sVd18rdhm
p3427
I1
sVd37pr1h
p3428
I1
sVd092b9g
p3429
I1
sVczwzoxc
p3430
I4
sVd8aj1el
p3431
I1
sVdsdkqvg
p3432
I1
sVdn9rtq9
p3433
I1
sVd9ap4ca
p3434
I1
sVczqchck
p3435
I1
sVdpo3h9p
p3436
I1
sVcz1be0b
p3437
I1
sVdghqzsm
p3438
I1
sVdeh3gr4
p3439
I1
sVd8g5u7j
p3440
I2
sVdiyy0l0
p3441
I1
sVd1x7t64
p3442
I1
sVdipwrau
p3443
I1
sVdcy65xi
p3444
I1
sVde76swo
p3445
I1
sVdg1fy04
p3446
I3
sVd148fd4
p3447
I1
sVd3zx2yv
p3448
I1
sVd0t0rtw
p3449
I1
sVdessn6g
p3450
I1
sVdfm93ag
p3451
I2
sVda1q5om
p3452
I1
sVd9zhghq
p3453
I1
sVdbymw7w
p3454
I1
sVdmouxny
p3455
I1
sVdgfl2ey
p3456
I1
sVdmfc6w1
p3457
I1
sVd25l6g9
p3458
I2
sVdettbwt
p3459
I1
sVdh8bun7
p3460
I1
sVd6b2hoo
p3461
I1
sVdj5vkcu
p3462
I2
sVdcrl3jg
p3463
I1
sVcyu2wtd
p3464
I1
sVdesyus4
p3465
I2
sVd7gfcx8
p3466
I1
sVczuzu5j
p3467
I1
sVdere43j
p3468
I1
sVd3z6mga
p3469
I2
sVdgezo5x
p3470
I1
sVdi9dhz1
p3471
I1
sVczn92rl
p3472
I1
sVdsu9vef
p3473
I1
sVdhwipqn
p3474
I1
sVddqtchx
p3475
I1
sVdpff93k
p3476
I1
sVdordex6
p3477
I1
sVdbpp96h
p3478
I1
sVcykrxba
p3479
I1
sVd91m7ud
p3480
I2
sVd7z9leg
p3481
I1
sVd6e6vry
p3482
I1
sVd3i3t73
p3483
I1
sVdhjc1jb
p3484
I1
sVdfvh4fi
p3485
I1
sVds6edg1
p3486
I1
sVczjt0v4
p3487
I1
sVdj4ggbd
p3488
I1
sVd3stbci
p3489
I1
sVd41fiif
p3490
I1
sVd89mwlh
p3491
I1
sVdim4tim
p3492
I1
sVdpcyo7b
p3493
I1
sVcyxqj06
p3494
I1
sVdk3iemo
p3495
I1
sVdgo2w4p
p3496
I1
sVd6wuo11
p3497
I1
sVd1ou6bz
p3498
I1
sVdc9s085
p3499
I1
sVcz1ofn2
p3500
I1
sVd8s0495
p3501
I1
sVd4mgurs
p3502
I1
sVd79p11o
p3503
I1
sVdafkm2f
p3504
I1
sVdfeiz15
p3505
I1
sVdbji6r2
p3506
I1
sVdqvs0jw
p3507
I1
sVdilg018
p3508
I1
sVd8pz5e1
p3509
I1
sVcyxnj9k
p3510
I1
sVdgt6mnr
p3511
I1
sVdfuys59
p3512
I1
sVddhxea3
p3513
I1
sVdatuwtd
p3514
I1
sVda5rc1h
p3515
I1
sVdd62q33
p3516
I1
sVczeurao
p3517
I1
sVd0d9ch8
p3518
I1
sVde5aaba
p3519
I1
sVd570k1j
p3520
I3
sVd6d62b0
p3521
I1
sVdbnn73c
p3522
I1
sVd9563bk
p3523
I2
sVdp2ve3u
p3524
I1
sVdgzoy8x
p3525
I1
sVdbe75f0
p3526
I1
sVd30mgec
p3527
I1
sVd9vqmxt
p3528
I1
sVdekvya5
p3529
I1
sVd6zl2by
p3530
I1
sVdn6dgr7
p3531
I1
sVdco67ii
p3532
I1
sVdfodss4
p3533
I1
sVd8bt6du
p3534
I1
sVd58u4w6
p3535
I1
sVdklekdw
p3536
I1
sVdff6ceg
p3537
I1
sVdqgpv8e
p3538
I1
sVdays61t
p3539
I1
sVd6kuxgp
p3540
I1
sVdgp8u13
p3541
I1
sVdnczjlj
p3542
I1
sVdbwkqo8
p3543
I1
sVd1ooum7
p3544
I1
sVdp268fs
p3545
I1
sVd8ezdwl
p3546
I1
sVdhmf55w
p3547
I1
sVd035msx
p3548
I1
sVdbzvv16
p3549
I1
sVd757b7q
p3550
I1
sVdaomjsn
p3551
I1
sVdjaspi4
p3552
I1
sVdax7md8
p3553
I1
sVd1jgruk
p3554
I1
sVdsbyl0l
p3555
I2
sVd1342xz
p3556
I1
sVd5aycp1
p3557
I1
sVdgnt8ly
p3558
I1
sVdbh8ysm
p3559
I1
sVdjztcie
p3560
I1
sVd7yz0of
p3561
I1
sVd2nmqu7
p3562
I1
sVdr22o3g
p3563
I1
sVcyu2q8t
p3564
I1
sVdjk5kzr
p3565
I1
sVddkn5cl
p3566
I1
sVdfgndzb
p3567
I1
sVdac2pwi
p3568
I1
sVczcsjia
p3569
I1
sVczhdqj8
p3570
I1
sVd9c5nz0
p3571
I1
sVd90ti8m
p3572
I1
sVd4uticl
p3573
I1
sVd8ggozt
p3574
I1
sVdbnnbzc
p3575
I1
sVdrwokpw
p3576
I1
sVd1oq3qg
p3577
I1
sVd1tonuh
p3578
I1
sVddwc30x
p3579
I2
sVdf1z8ck
p3580
I1
sVdipa3jk
p3581
I1
sVdhn7ia9
p3582
I1
sVd4us5hz
p3583
I3
sVd58m0ez
p3584
I1
sVd0adrdv
p3585
I1
sVdfj2jnb
p3586
I1
sVcz6yvlj
p3587
I1
sVdfjx2od
p3588
I1
sVd8v7qnj
p3589
I1
sVdgfm716
p3590
I1
sVdcgj22n
p3591
I1
sVdgxlszk
p3592
I1
sVd0evzte
p3593
I1
sVdd8sgmj
p3594
I1
sVd06ohqv
p3595
I1
sVdjror55
p3596
I1
sVdgb419q
p3597
I1
sVdfijsn9
p3598
I1
sVdjpzcip
p3599
I1
sVd80jpxj
p3600
I1
sVdn9fdr6
p3601
I1
sVdgoy8ef
p3602
I1
sVdoey0bt
p3603
I2
sVdfcw1q6
p3604
I1
sVd27obv4
p3605
I2
sVdgtotql
p3606
I1
sVd2urqui
p3607
I1
sVdbn05yv
p3608
I1
sVd7cpsi8
p3609
I1
sVd9svdwm
p3610
I1
sVd1zdnes
p3611
I1
sVd8k5nft
p3612
I1
sVdqeyxk3
p3613
I1
sVcz8u1ez
p3614
I1
sVd0r4zxm
p3615
I1
sVde19bfe
p3616
I1
sVddinxs0
p3617
I1
sVdsrs3bf
p3618
I1
sVczel5c4
p3619
I1
sVcyklet1
p3620
I1
sVd5eiz9v
p3621
I2
sVdfzspk7
p3622
I1
sVczzf142
p3623
I1
sVd4lo45w
p3624
I1
sVdeawmwp
p3625
I1
sVdnet8vb
p3626
I1
sVdfiebvb
p3627
I1
sVd5hkfy7
p3628
I1
sVd5x6yif
p3629
I1
sVdgdz9m1
p3630
I1
sVdibqei7
p3631
I1
sVdrdd37f
p3632
I1
sVdaasjmc
p3633
I1
sVd38c76c
p3634
I1
sVdntrzd9
p3635
I1
sVdjupbqk
p3636
I1
sVdk30fcc
p3637
I1
sVcz0ryf7
p3638
I1
sVdsd0kqu
p3639
I1
sVczustuf
p3640
I1
sVd0rd65i
p3641
I1
sVdcy7qal
p3642
I1
sVd6yle5s
p3643
I1
sVczx0ptv
p3644
I1
sVdii6dw7
p3645
I1
sVd1hwzb3
p3646
I1
sVd0mupuy
p3647
I1
sVd2i6i6h
p3648
I1
sVd7qdfbq
p3649
I1
sVd1fmn2v
p3650
I1
sVddv1s5z
p3651
I1
sVda1yapb
p3652
I1
sVda75tur
p3653
I2
sVdoi62na
p3654
I1
sVdrqbi9t
p3655
I1
sVd484e4g
p3656
I1
sVd2kp6qm
p3657
I1
sVd3g6fyq
p3658
I1
sVdccdolp
p3659
I1
sVdrn2nmv
p3660
I1
sVd03mgxk
p3661
I1
sVd84xqk8
p3662
I1
sVdjcb5z0
p3663
I1
sVdfzvx4y
p3664
I1
sVd7mhrlc
p3665
I2
sVd6vvj6u
p3666
I1
sVd5w5nge
p3667
I1
sVd8xho2u
p3668
I1
sVdcu0xbw
p3669
I1
sVdd34han
p3670
I1
sVdh5cw4e
p3671
I1
sVdra4gfg
p3672
I1
sVd0y3buz
p3673
I1
sVd5zm1tk
p3674
I1
sVd6min4i
p3675
I1
sVdmvuyhe
p3676
I1
sVdo8byrt
p3677
I1
sVd71guou
p3678
I1
sVczi3a5y
p3679
I1
sVd7fuply
p3680
I1
sVd8fmq7e
p3681
I1
sVczi9ddl
p3682
I1
sVdrmucjn
p3683
I1
sVd5x8ya1
p3684
I1
sVd060zrc
p3685
I2
sVdeq7zjp
p3686
I1
sVdgjzktg
p3687
I1
sVd08as90
p3688
I1
sVdqbln23
p3689
I1
sVdbe98yy
p3690
I1
sVd5ur6f5
p3691
I1
sVd7uhh2e
p3692
I1
sVcyq0u7a
p3693
I1
sVd05iwqe
p3694
I1
sVdgvtw8n
p3695
I1
sVdguoggq
p3696
I1
sVdb307m9
p3697
I1
sVd19mapj
p3698
I2
sVdo9erdd
p3699
I1
sVdame0jk
p3700
I2
sVdctatwr
p3701
I1
sVd1kogqq
p3702
I1
sVdjxhhp5
p3703
I1
sVd7h7g8p
p3704
I1
sVdo2bmlo
p3705
I1
sVd8e3if1
p3706
I1
sVdiz5yjg
p3707
I1
sVdcswzx5
p3708
I1
sVdrlnvli
p3709
I1
sVcyjtpqe
p3710
I1
sVd5gpemr
p3711
I1
sVcz2wf30
p3712
I1
sVd29ydc6
p3713
I2
sVdeqo203
p3714
I1
sVdnezxwu
p3715
I1
sVdrybezj
p3716
I1
sVdalrwpz
p3717
I2
sVde5kmwd
p3718
I1
sVczyq58l
p3719
I1
sVd82u9lq
p3720
I1
sVd9xc0l1
p3721
I4
sVd4i0snl
p3722
I1
sVd82wzvj
p3723
I1
sVdgq8e8j
p3724
I1
sVd1p9md8
p3725
I1
sVdnaxpbq
p3726
I2
sVdc7eko0
p3727
I1
sVd09kjqs
p3728
I1
sVdcdudww
p3729
I1
sVdrsdq7h
p3730
I1
sVd662910
p3731
I1
sVd30rdi7
p3732
I1
sVded4674
p3733
I1
sVdb6av6p
p3734
I2
sVczywf5e
p3735
I1
sVd25s08b
p3736
I1
sVd9ad05b
p3737
I1
sVdaej4vi
p3738
I1
sVdgh0fdi
p3739
I1
sVd8o681r
p3740
I1
sVdd4nlp5
p3741
I1
sVdmmcdj2
p3742
I1
sVd9bpclo
p3743
I2
sVczhazlz
p3744
I1
sVd8u2byy
p3745
I1
sVdd8qarb
p3746
I1
sVd27e3c9
p3747
I1
sVdi54hsc
p3748
I1
sVd58elel
p3749
I1
sVd2n74dd
p3750
I1
sVd46ayyj
p3751
I1
sVd6xytjy
p3752
I2
sVczzdoop
p3753
I1
sVdauso76
p3754
I1
sVd42mq09
p3755
I4
sVd0f2x6c
p3756
I1
sVd0ualxn
p3757
I1
sVdhtdg7l
p3758
I1
sVdruwzaz
p3759
I1
sVdhnbjk2
p3760
I1
sVdhy4g68
p3761
I1
sVd1hxd8l
p3762
I1
sVd6efp32
p3763
I1
sVd5vumzt
p3764
I1
sVdh652v1
p3765
I1
sVdb898lz
p3766
I1
sVdjtjnli
p3767
I1
sVd88esc1
p3768
I1
sVcyt755e
p3769
I1
sVdei1s8r
p3770
I1
sVderskac
p3771
I1
sVd4usa4s
p3772
I1
sVde9nkgm
p3773
I1
sVcznowl3
p3774
I1
sVddztifd
p3775
I1
sVd1hzkqs
p3776
I2
sVds6cs2s
p3777
I1
sVd15w1bs
p3778
I1
sVdheq1k9
p3779
I2
sVdko91l8
p3780
I1
sVd0uigzk
p3781
I1
sVddp2di0
p3782
I1
sVczqi5o3
p3783
I1
sVcymo861
p3784
I1
sVdeiywna
p3785
I1
sVdmt7hq7
p3786
I1
sVd389w1e
p3787
I1
sVd37leg4
p3788
I1
sVdauyi9t
p3789
I1
sVd40pixd
p3790
I1
sVdczex55
p3791
I1
sVdjpsi6m
p3792
I1
sVdh4pmem
p3793
I1
sVdrjsz5c
p3794
I1
sVdfmy422
p3795
I1
sVdmgw552
p3796
I1
sVd4ts65l
p3797
I1
sVdhzdzcv
p3798
I1
sVd25kmem
p3799
I2
sVdg8d0c0
p3800
I1
sVdnxg949
p3801
I1
sVdevcz8n
p3802
I1
sVd1thpq6
p3803
I1
sVdfzxaqm
p3804
I1
sVd9il68h
p3805
I1
sVdcwggk7
p3806
I1
sVd43lwu6
p3807
I1
sVdaumg1n
p3808
I1
sVdgo1b37
p3809
I1
sVd5r79ev
p3810
I1
sVdd4mdfc
p3811
I2
sVdc2g5xe
p3812
I1
sVd7zgsu9
p3813
I1
sVd233j9p
p3814
I1
sVd6rp324
p3815
I1
sVdiq3jr0
p3816
I1
sVdmyggik
p3817
I1
sVd4hx5l3
p3818
I1
sVd046gwh
p3819
I1
sVcz9rtxq
p3820
I1
sVd0gyl7l
p3821
I1
sVd4i9q77
p3822
I1
sVd2ecboc
p3823
I1
sVdhfwqgx
p3824
I1
sVdfe5vy5
p3825
I1
sVdgfoees
p3826
I1
sVd53o3ex
p3827
I1
sVdcpjxge
p3828
I1
sVddi7934
p3829
I1
sVdglr8i2
p3830
I1
sVda00s9s
p3831
I1
sVdacvkjm
p3832
I1
sVdqhdzec
p3833
I1
sVdr64967
p3834
I1
sVd72959i
p3835
I1
sVdilslso
p3836
I1
sVdk9f5vs
p3837
I1
sVda4cxnx
p3838
I1
sVd0lb3r8
p3839
I1
sVdf3iyta
p3840
I1
sVdr5w6gh
p3841
I1
sVde5uefh
p3842
I1
sVddhs7p8
p3843
I1
sVdmztv7y
p3844
I1
sVdej7jg3
p3845
I1
sVd8upvrm
p3846
I1
sVd2imz27
p3847
I1
sVd190b24
p3848
I1
sVdqsyr8h
p3849
I1
sVd6kkjd6
p3850
I1
sVdgwgtkw
p3851
I1
sVdqzwe4p
p3852
I1
sVdowg9e3
p3853
I1
sVdp969fu
p3854
I1
sVdddkxl5
p3855
I1
sVdkv7flq
p3856
I1
sVd8gvx64
p3857
I1
sVcyvmxr1
p3858
I1
sVczhsggs
p3859
I2
sVd2oo6a8
p3860
I2
sVda14tez
p3861
I2
sVd0jyvpi
p3862
I1
sVd8esmdq
p3863
I1
sVdggneg7
p3864
I1
sVdfowvoi
p3865
I1
sVd0p46j8
p3866
I1
sVdfiq0gv
p3867
I1
sVdn8inod
p3868
I1
sVdaobuxo
p3869
I1
sVdrmalk2
p3870
I1
sVczmb7p4
p3871
I1
sVd15oyrl
p3872
I1
sVd4gqj89
p3873
I2
sVdihj1vu
p3874
I1
sVd7ucq3n
p3875
I1
sVd87jkae
p3876
I1
sVd0vwtew
p3877
I1
sVdng0nhc
p3878
I1
sVddxzjjp
p3879
I1
sVdoa45de
p3880
I2
sVd0tj20q
p3881
I1
sVd1sguu0
p3882
I1
sVdk9bw56
p3883
I1
sVdg4dghv
p3884
I1
sVd94ngdz
p3885
I1
sVdcgktmw
p3886
I1
sVdafwkxt
p3887
I1
sVd6259or
p3888
I1
sVd1i64f2
p3889
I1
sVcz4p3c9
p3890
I1
sVdbklu01
p3891
I2
sVd6lubvp
p3892
I1
sVd3tfg7q
p3893
I1
sVddu233g
p3894
I1
sVdjn4ono
p3895
I1
sVdse1z97
p3896
I1
sVdenmzgg
p3897
I1
sVd05is0i
p3898
I1
sVd5zf09v
p3899
I1
sVdf6duwc
p3900
I1
sVd67ysxa
p3901
I1
sVdmhiquc
p3902
I1
sVd1aeb1m
p3903
I1
sVdbteyzr
p3904
I1
sVd4vhhxy
p3905
I1
sVd0m8hah
p3906
I1
sVdpxcoip
p3907
I1
sVdbi7clo
p3908
I1
sVd099e1c
p3909
I2
sVde6n0bu
p3910
I1
sVdiw704y
p3911
I1
sVd7ye11e
p3912
I1
sVdi0t3ru
p3913
I1
sVdnwfgwt
p3914
I1
sVcz4wd9y
p3915
I1
sVdip6jdz
p3916
I1
sVd2xs753
p3917
I1
sVdfl6osi
p3918
I1
sVcznphgy
p3919
I1
sVd5tib4v
p3920
I1
sVd8nlcta
p3921
I1
sVdbr5kml
p3922
I1
sVdazk695
p3923
I1
sVd1bqbjr
p3924
I1
sVdgf4gkv
p3925
I1
sVd2qkuoj
p3926
I1
sVdfrk0ci
p3927
I1
sVczs7ajx
p3928
I1
sVdhjlkw2
p3929
I1
sVddx57jl
p3930
I1
sVd2jwxh5
p3931
I1
sVdasjnut
p3932
I1
sVd7a1iop
p3933
I1
sVd8xlbil
p3934
I1
sVd2snt8j
p3935
I1
sVd0m9wr9
p3936
I1
sVd6hqiyb
p3937
I1
sVd29lodd
p3938
I1
sVd3fbq7z
p3939
I1
sVddqa8b5
p3940
I1
sVdnb1wuk
p3941
I1
sVdqno6l5
p3942
I1
sVd9u0a5l
p3943
I1
sVdbvqzns
p3944
I1
sVcyw6pgz
p3945
I1
sVde04y38
p3946
I1
sVd4geovt
p3947
I1
sVd6dxt77
p3948
I1
sVcyz5ph4
p3949
I1
sVdo9ix6o
p3950
I1
sVdbsx4z1
p3951
I1
sVddz92lm
p3952
I1
sVdp3zlbn
p3953
I2
sVdiuqm1h
p3954
I1
sVdftuj9t
p3955
I1
sVdhoqucj
p3956
I1
sVcz9wf5a
p3957
I1
sVdas8xx8
p3958
I1
sVdgmcrck
p3959
I1
sVdg9t7iq
p3960
I1
sVderyyof
p3961
I1
sVdqkeeav
p3962
I1
sVde4cpwc
p3963
I1
sVd0tr2iv
p3964
I1
sVdcu85s3
p3965
I1
sVd1zsf4m
p3966
I1
sVdhn1noq
p3967
I1
sVdkhqfyr
p3968
I1
sVd14s5w2
p3969
I1
sVdp7zgte
p3970
I1
sVdaq280t
p3971
I1
sVdgxjtdq
p3972
I1
sVd4wy15o
p3973
I2
sVdn58pyw
p3974
I1
sVdk9qg5a
p3975
I1
sVdc7f079
p3976
I2
sVd0zez3q
p3977
I1
sVd42cbeg
p3978
I1
sVdp8oz11
p3979
I1
sVcykhwyw
p3980
I1
sVdt277w6
p3981
I1
sVdf7z5gq
p3982
I1
sVd2vt4wm
p3983
I1
sVdk5m9py
p3984
I1
sVdbks85a
p3985
I1
sVdgorf0l
p3986
I1
sVd4glcxi
p3987
I2
sVd90tv8m
p3988
I1
sVdgqc033
p3989
I1
sVdimd5ne
p3990
I1
sVd3qivvf
p3991
I1
sVd4ov771
p3992
I1
sVdegqwyf
p3993
I1
sVdcik7bx
p3994
I1
sVd1okvsu
p3995
I1
sVdrq3m32
p3996
I1
sVdmzupbs
p3997
I1
sVd39gslh
p3998
I1
sVdhn8n5m
p3999
I1
sVd33cjuv
p4000
I1
sVcyp9arg
p4001
I1
sVd830a9s
p4002
I1
sVdbgz8ck
p4003
I1
sVdsq6h01
p4004
I1
sVczi72bk
p4005
I1
sVdf7lsfa
p4006
I1
sVdf8hb1w
p4007
I1
sVdph1bhz
p4008
I1
sVdelglak
p4009
I1
sVd4tywzl
p4010
I1
sVd5olbg2
p4011
I1
sVdio5owe
p4012
I1
sVdjlclvv
p4013
I1
sVdjzvdo1
p4014
I1
sVd3d5w4b
p4015
I1
sVd2vn2au
p4016
I1
sVd178yvh
p4017
I1
sVdaot4ls
p4018
I1
sVdaypmmy
p4019
I1
sVcyoggmf
p4020
I1
sVdsvti0g
p4021
I2
sVdt6zzzs
p4022
I1
sVd6z1h3z
p4023
I1
sVdc7e35f
p4024
I1
sVd4qvg85
p4025
I1
sVd0sb5y7
p4026
I1
sVddeghpc
p4027
I4
sVdd47w57
p4028
I1
sVdf1uvou
p4029
I1
sVdkrjva7
p4030
I1
sVdfkreww
p4031
I1
sVdd05eoi
p4032
I1
sVddcofxu
p4033
I1
sVd8t4tp0
p4034
I1
sVdbh7ndg
p4035
I1
sVcz2iii4
p4036
I1
sVd5067it
p4037
I1
sVdbqrjri
p4038
I1
sVcz30rhg
p4039
I1
sVczlae7z
p4040
I1
sVdox6cwy
p4041
I3
sVdgy6rsj
p4042
I1
sVd0trfqk
p4043
I1
sVd729auf
p4044
I1
sVd6hn76o
p4045
I1
sVdf25hg3
p4046
I1
sVde2z07v
p4047
I1
sVdhocbrn
p4048
I1
sVd4qgcz7
p4049
I1
sVdaps0pm
p4050
I1
sVdj5ig8o
p4051
I1
sVd62gu8e
p4052
I1
sVczlvlww
p4053
I1
sVdhz87h6
p4054
I1
sVczjs06z
p4055
I1
sVde70d08
p4056
I1
sVdds7gp6
p4057
I1
sVdeuvitc
p4058
I1
sVd9d78vr
p4059
I1
sVd7443rk
p4060
I1
sVd5c1hpm
p4061
I1
sVdhh0xep
p4062
I1
sVdp5slww
p4063
I1
sVd3yd3w2
p4064
I1
sVdky2xw4
p4065
I2
sVdj4wtxv
p4066
I1
sVd33wmd6
p4067
I1
sVdd4mbo7
p4068
I1
sVdiwdonw
p4069
I1
sVdiythhv
p4070
I1
sVcynrwqq
p4071
I1
sVdgo6lje
p4072
I1
sVdavc2tw
p4073
I1
sVd40duou
p4074
I1
sVdfe9uza
p4075
I1
sVczjbptk
p4076
I1
sVddo6tfn
p4077
I4
sVd8l0gix
p4078
I2
sVd6rfz3o
p4079
I1
sVda18cxu
p4080
I1
sVd3v492w
p4081
I1
sVczv7sh2
p4082
I1
sVddbpz7w
p4083
I1
sVd462ci7
p4084
I1
sVd9n21z8
p4085
I1
sVd1k96nl
p4086
I1
sVd3ge0gz
p4087
I1
sVdbrcizi
p4088
I1
sVdj35qsx
p4089
I1
sVd0acpdv
p4090
I1
sVdgdl0w9
p4091
I1
sVd8dusqg
p4092
I1
sVddo9hyl
p4093
I1
sVd4cy0wt
p4094
I1
sVdksm6ng
p4095
I1
sVdfxg4qg
p4096
I1
sVdc7lcxs
p4097
I4
sVd0slogt
p4098
I1
sVdtfoq2l
p4099
I1
sVcyzjunl
p4100
I1
sVd15rvtl
p4101
I1
sVddg7zav
p4102
I1
sVdbqfiiy
p4103
I1
sVcyn0gst
p4104
I1
sVd2fqb8f
p4105
I1
sVdfqhiik
p4106
I1
sVdf6o0f2
p4107
I1
sVdks0lib
p4108
I1
sVdh9cf3i
p4109
I1
sVdi80any
p4110
I2
sVd0zz30o
p4111
I1
sVdexb48v
p4112
I1
sVcyvd6xl
p4113
I1
sVd5wsc4o
p4114
I1
sVczeqx65
p4115
I1
sVdesb4g1
p4116
I1
sVd3g1czi
p4117
I1
sVdrvdjhx
p4118
I1
sVd0ztocc
p4119
I1
sVd7znmhm
p4120
I1
sVdkvmvue
p4121
I1
sVdr9lx9f
p4122
I1
sVdgcn5mn
p4123
I1
sVd682myu
p4124
I1
sVdc1u0av
p4125
I1
sVdrijglz
p4126
I1
sVdrrr8mz
p4127
I1
sVdkti1p2
p4128
I1
sVd9j566i
p4129
I1
sVd263lg6
p4130
I1
sVdbcs294
p4131
I1
sVd4ohlvs
p4132
I1
sVd93cqbe
p4133
I1
sVd11cpwv
p4134
I1
sVdab3q9i
p4135
I1
sVd2tl8zf
p4136
I1
sVdhndzdl
p4137
I1
sVd7soc4k
p4138
I1
sVcysphrd
p4139
I1
sVd8fjtht
p4140
I1
sVdda8zku
p4141
I1
sVdaryz3q
p4142
I1
sVd8g3mji
p4143
I1
sVd3bi9gb
p4144
I1
sVdhn4dkr
p4145
I1
sVdfku8fz
p4146
I1
sVd1qdjyf
p4147
I1
sVdest57h
p4148
I1
sVdpwkjts
p4149
I1
sVd789kke
p4150
I1
sVdomstbk
p4151
I1
sVdg9c8c3
p4152
I1
sVdd8bm56
p4153
I1
sVd2slxa4
p4154
I1
sVd0iu4cm
p4155
I3
sVd10xq2o
p4156
I1
sVcyix9zp
p4157
I1
sVde02k9q
p4158
I1
sVd1obpxo
p4159
I1
s.