(dp0
Vcz6mddo
p1
I1
s.(dp0
Vcz6mddo
p1
I2
s.(dp0
Vcz6mddo
p1
I1
sVd0m8hah
p2
I1
s.(dp0
Vcz6mddo
p1
I1
sVd0op0j1
p2
I1
s.(dp0
Vcz6mddo
p1
I1
sVd0org9v
p2
I1
s.(dp0
Vcz6mddo
p1
I1
sVd0osdd5
p2
I1
s.(dp0
Vcz6mddo
p1
I1
sVd0osdd5
p2
I1
s.(dp0
Vcz6mddo
p1
I1
sVd39hyk5
p2
I1
s.(dp0
Vcz6mddo
p1
I1
sVd4h3jp8
p2
I1
s.(dp0
Vcz6mddo
p1
I1
sVd6ksx7d
p2
I1
s.(dp0
Vcz6mddo
p1
I1
sVd6z68lj
p2
I1
s.(dp0
Vcz6mddo
p1
I1
sVd72g1f3
p2
I1
s.(dp0
Vcz6mddo
p1
I1
sVd9pqcni
p2
I1
s.(dp0
Vcz6mddo
p1
I1
sVdba3ox0
p2
I1
s.(dp0
Vcz6mddo
p1
I1
sVdbx9bwx
p2
I1
s.(dp0
Vcz6mddo
p1
I1
sVdcw2qvg
p2
I1
s.(dp0
Vcz6mddo
p1
I1
sVdcw2qvg
p2
I1
s.(dp0
Vcz6mddo
p1
I1
sVdcw7v4x
p2
I1
s.(dp0
Vcz6mddo
p1
I1
sVdjkovra
p2
I1
s.(dp0
Vcz6mddo
p1
I1
sVdoivnu6
p2
I1
s.