(dp0
Vdsl4cfh
p1
I1
sVdhnl1zf
p2
I1
sVd6bwk6q
p3
I1
sVd3nwyqq
p4
I1
sVdd1audw
p5
I1
sVdb49mqk
p6
I1
sVdrkv622
p7
I1
sVd6c22ja
p8
I1
sVd4kpxk5
p9
I1
sVdawpif5
p10
I1
sVdr82o9a
p11
I2
sVdr00jyp
p12
I6
sVdhs62y4
p13
I1
sVdr81v21
p14
I1
sVdqzyh2q
p15
I2
sVdh6zb3z
p16
I1
sVd7p458n
p17
I1
sVd7wezp6
p18
I1
sVd9fj1di
p19
I1
sVde8tf5i
p20
I1
sVdiay10i
p21
I1
sVd06dnp6
p22
I1
sVdbu1h5l
p23
I1
sVdi2dx0c
p24
I3
s.