(dp0
Vd6hzq4j
p1
I1
sVdh9cf3i
p2
I1
sVd7sx4v1
p3
I2
sVdfwtipu
p4
I1
sVcz5l3r9
p5
I1
sVd29ybdy
p6
I1
sVd9ik8hm
p7
I1
sVdfpwg1c
p8
I1
sVdinqfo8
p9
I1
sVd2klb1n
p10
I1
sVd7mjgat
p11
I1
sVd2ag1vy
p12
I3
sVdfpmxkv
p13
I2
sVd886qjx
p14
I1
sVd3mutbb
p15
I1
s.