(dp0
Vczqa3lk
p1
I1
sVdkz4iaq
p2
I1
sVd1yotjs
p3
I1
sVcytvuuc
p4
I1
sVd0sbrno
p5
I1
sVdr1lclj
p6
I1
sVczjr81x
p7
I2
sVd67phzf
p8
I2
sVdmt0qzt
p9
I1
sVdd57rtd
p10
I1
sVd2hbezc
p11
I1
sVd3wvmuc
p12
I1
sVdf19hoq
p13
I1
sVdofp4tl
p14
I1
sVcz8mpr1
p15
I1
sVd6p5swc
p16
I1
sVd5jphrm
p17
I1
sVdau2ubv
p18
I1
sVd62eg7a
p19
I1
sVd6f1dye
p20
I1
sVdg30erm
p21
I1
sVdjk7ex7
p22
I1
sVde9622h
p23
I1
sVdkjx7bl
p24
I1
sVde37a11
p25
I1
sVdh2hg68
p26
I1
sVd48iud7
p27
I1
sVdj8buyw
p28
I1
sVd1a43h4
p29
I1
sVdt1thc6
p30
I1
sVd4typ95
p31
I1
sVd4vpip2
p32
I1
sVcze6j07
p33
I1
sVddftbrt
p34
I1
sVdb9i2y4
p35
I1
sVdnh9su7
p36
I1
sVd38xh1k
p37
I1
sVdd8lidw
p38
I1
sVd2gtueo
p39
I3
sVdfepov0
p40
I1
sVd51ugcf
p41
I1
sVdqdomkn
p42
I1
sVdky47qo
p43
I1
sVdhj7t1b
p44
I1
sVdsca5q8
p45
I1
sVdiepvgb
p46
I1
sVdoh6ro8
p47
I1
sVd1edcnx
p48
I1
sVdcrc04k
p49
I1
sVcz51mmf
p50
I1
sVd1n60b0
p51
I1
sVdpjn4le
p52
I1
sVdf4bql8
p53
I1
sVdexwmar
p54
I1
sVd3wyvpv
p55
I1
sVd37mk55
p56
I1
sVdqooj9w
p57
I1
sVde950h4
p58
I1
sVdaq4ru7
p59
I1
sVdayltxc
p60
I1
sVd903kh6
p61
I1
sVcz2843o
p62
I1
sVd3v22bg
p63
I1
sVdi4adqo
p64
I1
sVdcrq35e
p65
I1
sVdkq09o6
p66
I1
sVd2n85ry
p67
I1
sVd9jqfwf
p68
I1
sVd6624an
p69
I1
sVdpgn593
p70
I1
sVdn0fni6
p71
I2
sVdgmeq54
p72
I1
sVd3zgcoh
p73
I1
sVdte4qms
p74
I1
sVdgurj2t
p75
I1
sVd00hphb
p76
I1
sVd5uwwtf
p77
I1
sVd2k9lsf
p78
I1
sVczztd1n
p79
I1
sVd63who1
p80
I1
sVdr8zsv6
p81
I1
sVd84arf4
p82
I1
sVd8wzw0z
p83
I1
sVd9dlzaj
p84
I1
sVd36b40s
p85
I1
sVd5uac6d
p86
I1
sVdpc9572
p87
I1
sVdh17v7s
p88
I2
sVd8ojdrf
p89
I1
sVd19hcmn
p90
I1
sVcyk6ft5
p91
I1
sVdkl4g4p
p92
I1
sVdpfzcyy
p93
I1
sVdbq8xoi
p94
I2
sVcyvz2nw
p95
I1
sVd0f5q96
p96
I1
sVdfyi33p
p97
I1
sVd7z59t0
p98
I1
sVd04el5t
p99
I1
sVd5h7ssw
p100
I1
sVdmtusfm
p101
I1
sVdmxaz2m
p102
I1
sVdfrn5im
p103
I1
sVdb1bvi8
p104
I1
sVd8sxi2a
p105
I1
sVd86mcsk
p106
I1
sVd8696yk
p107
I1
sVd8l10v7
p108
I1
sVddwnkf2
p109
I1
sVd5vosd9
p110
I2
sVdh3qcln
p111
I1
sVdhxszy8
p112
I1
sVdo6wc8n
p113
I1
sVdqgzcxf
p114
I1
sVdqfk39v
p115
I1
sVdh5r9uy
p116
I1
sVdcdwi87
p117
I1
sVdeypiks
p118
I1
sVczwivmf
p119
I1
sVdqx9515
p120
I1
sVcylez7p
p121
I1
sVd7gbrvs
p122
I1
sVczqho22
p123
I1
sVczblj2u
p124
I1
sVd8h108o
p125
I1
sVdrrlms1
p126
I1
sVd3q36zj
p127
I1
sVdg669dn
p128
I1
sVd7qmy9r
p129
I1
sVdajfqb1
p130
I1
sVd8och87
p131
I1
sVdr3msi4
p132
I1
sVdhttsox
p133
I1
sVdcy2tv6
p134
I1
sVd5pyepd
p135
I1
sVd9zhg60
p136
I1
sVd8pbwx8
p137
I1
sVd6j1clh
p138
I1
sVdbo2r20
p139
I1
sVdi865t6
p140
I1
sVd0u2kig
p141
I1
sVd9gmfyd
p142
I1
sVdrryhgr
p143
I1
sVd7remaz
p144
I1
sVde09mb1
p145
I1
sVdapi5ro
p146
I1
sVdspima6
p147
I1
sVdig3izz
p148
I1
sVdkl7qcr
p149
I1
sVd045x7t
p150
I1
sVdpxi2dl
p151
I1
sVd6u4zdm
p152
I1
sVd3yxzmd
p153
I1
sVd02juy2
p154
I1
sVdjun092
p155
I1
sVdg6gpod
p156
I1
sVd17g30d
p157
I1
sVd0yuwd5
p158
I1
sVcymbkov
p159
I1
sVd98tpfp
p160
I1
sVd1rk6u8
p161
I1
sVd3845uc
p162
I1
sVd25fb5b
p163
I1
sVd64d8vy
p164
I1
sVd4sk8c0
p165
I1
sVd1q2wg4
p166
I1
sVd97uzux
p167
I1
sVddztm9y
p168
I1
sVd2z3l7b
p169
I1
sVczjg75n
p170
I2
sVdfviort
p171
I1
sVczr6uny
p172
I1
sVd30vd5r
p173
I1
sVdfnq7sx
p174
I1
sVd5w9dna
p175
I1
sVd1wqn2p
p176
I1
sVd2t1khl
p177
I1
sVd9tkgjk
p178
I1
sVd5bmu5j
p179
I1
sVddfksjg
p180
I1
sVdg6i5o6
p181
I2
sVd26fgvy
p182
I1
sVd8vw83r
p183
I1
sVcysusxe
p184
I1
sVd2zhhb9
p185
I1
sVczda0i7
p186
I1
sVdbpbae6
p187
I1
sVdkqs3yn
p188
I1
sVd546jrv
p189
I1
sVcyu3tmv
p190
I1
sVd9aylxl
p191
I1
sVdes6h6m
p192
I1
sVdserwfj
p193
I1
sVdaym62d
p194
I1
sVdpfy0dz
p195
I1
sVdel3cs0
p196
I1
sVdbwzoso
p197
I1
sVd35w0h0
p198
I1
sVd22a55g
p199
I1
sVd92gbu0
p200
I1
sVd6ak9pe
p201
I1
sVd009exw
p202
I1
sVdblmd4i
p203
I1
sVdggv66u
p204
I1
sVdfjml21
p205
I1
sVd0zl4h5
p206
I1
sVd4uroiy
p207
I1
sVczugsjk
p208
I1
sVczqg2gx
p209
I1
sVd1263s4
p210
I1
sVdc6v3fx
p211
I1
sVdghtbw8
p212
I1
sVda1nx7f
p213
I1
sVdaoyw5u
p214
I1
sVd8o44q3
p215
I1
sVdfhguo4
p216
I1
sVd4iqy2r
p217
I1
sVcz2zfd1
p218
I1
sVdogr88i
p219
I1
sVdcij587
p220
I1
sVdoshh4u
p221
I1
sVd0c20q0
p222
I1
sVcyiianv
p223
I1
sVd4af2de
p224
I1
sVd2p1007
p225
I1
sVdb24lou
p226
I1
sVdnfw1bu
p227
I1
sVd5c58c6
p228
I1
sVd9hefrk
p229
I1
sVd7rf10e
p230
I1
sVdd2x8nf
p231
I1
sVdcx58yu
p232
I1
sVd5kjlqf
p233
I1
sVdikqzze
p234
I1
sVd98lvhb
p235
I1
sVd79iiho
p236
I1
sVd37qjwz
p237
I1
sVddp1vna
p238
I3
sVczaqgvn
p239
I1
sVd3h0qiq
p240
I1
sVdbdeloa
p241
I2
sVdkkh7hw
p242
I2
sVd9cgxsp
p243
I1
sVd0abxwe
p244
I1
sVd38uib0
p245
I1
sVd9mrqpc
p246
I1
sVd7vl1hf
p247
I1
sVd2quzzk
p248
I1
sVdaxawd7
p249
I1
sVd90wzsr
p250
I1
sVdgtn9p6
p251
I2
sVd46x18k
p252
I1
sVd4nwrgw
p253
I1
sVdfp3goe
p254
I1
sVda0vopv
p255
I2
sVdg6b36b
p256
I1
sVcz2jv2l
p257
I1
sVdfltgse
p258
I1
sVdctrfj0
p259
I1
sVderh9vt
p260
I1
sVdidwwmi
p261
I1
sVdsp0vu9
p262
I1
sVd6wef1c
p263
I1
sVd7xibhe
p264
I1
sVdjz3jtg
p265
I1
sVd2dvsjh
p266
I1
sVdkvyan4
p267
I1
sVdgb2ugc
p268
I1
sVdms2t5h
p269
I1
sVcypwpfd
p270
I1
sVdjra5ht
p271
I1
sVd15687z
p272
I1
sVdk00aqc
p273
I1
sVd3cd13e
p274
I1
sVdjkrusb
p275
I1
sVd2ajt9s
p276
I1
sVd09tfqw
p277
I1
sVczvc4u1
p278
I1
sVdhimpcy
p279
I1
sVdgtg621
p280
I1
sVdi4a0j8
p281
I1
sVd8oy637
p282
I1
sVdhthqur
p283
I1
sVdhmoetk
p284
I1
sVde55wbx
p285
I1
sVd59ghev
p286
I1
sVd5wxawa
p287
I1
sVd3r8uui
p288
I1
sVds158gf
p289
I1
sVdg14309
p290
I1
sVd5bpcof
p291
I1
sVcza15y5
p292
I1
sVdnuvo4m
p293
I1
sVdg0rze2
p294
I1
sVd7j7w2s
p295
I1
sVdg8j12b
p296
I1
sVdmui2vi
p297
I1
sVdticedy
p298
I1
sVd03oq9e
p299
I1
sVd3b50fr
p300
I1
sVddqr67g
p301
I1
sVdcwn2w3
p302
I1
sVdqmpal5
p303
I1
sVd1qaqih
p304
I1
sVd07kmck
p305
I1
sVdej7e08
p306
I1
sVdhm0hp8
p307
I2
sVdf5wjoo
p308
I1
sVcyoa3j4
p309
I1
sVd05kugt
p310
I1
sVd0qrhp5
p311
I1
sVdg0wcmq
p312
I1
sVdeaaiz2
p313
I1
sVd7vjpq9
p314
I1
sVdpkc6bh
p315
I1
sVd6p4woq
p316
I1
sVd1xon7j
p317
I1
sVdjzhekf
p318
I1
sVcyxw2ty
p319
I1
sVdjk24tz
p320
I1
sVd2ydi6t
p321
I1
sVddaoalo
p322
I1
sVczgg7li
p323
I1
sVdenwgiw
p324
I1
sVd08233h
p325
I1
sVd5uza9x
p326
I1
sVdnj406w
p327
I1
sVdbhs57h
p328
I1
sVdjks0hr
p329
I3
sVd40v08c
p330
I1
sVdd6snd8
p331
I1
sVddmbif3
p332
I1
sVd04fomb
p333
I1
sVdn3l9ko
p334
I1
sVd5lhtdk
p335
I1
sVdef1ty6
p336
I1
sVdiawuck
p337
I1
sVdbnsona
p338
I1
sVdgasymv
p339
I1
sVdnpqb7l
p340
I1
sVdflu21t
p341
I1
sVdszevqp
p342
I1
sVd4h3pmz
p343
I1
sVdehvgia
p344
I1
sVd9ubv5x
p345
I1
sVdgj1z2j
p346
I1
sVczv4jcl
p347
I1
sVd2cv206
p348
I1
sVd30mgec
p349
I2
sVcz5jtxe
p350
I1
sVd7d0t2t
p351
I1
sVd4juvo8
p352
I1
sVdf24ltz
p353
I1
sVdbbtbn3
p354
I1
sVdi9h8zq
p355
I1
sVd312yvz
p356
I1
sVd96yhux
p357
I1
sVd0gznse
p358
I1
sVde312pw
p359
I1
sVddqvoo3
p360
I1
sVcyo670b
p361
I1
sVdctuvhv
p362
I1
sVdixose7
p363
I1
sVdmjbdgn
p364
I1
sVcyrdoy9
p365
I1
sVdeayr7j
p366
I1
sVdnubu06
p367
I1
sVdh645ti
p368
I1
sVd1nt61u
p369
I1
sVdivn9e9
p370
I1
sVd8dze4j
p371
I1
sVd5tu094
p372
I1
sVdk8r870
p373
I1
sVdddmqrg
p374
I1
sVdeyxn3w
p375
I1
sVdetmj1u
p376
I1
sVdevukb2
p377
I1
sVdga96q6
p378
I1
sVdhlxxfa
p379
I1
sVd9ehjuu
p380
I1
sVdg2bwyg
p381
I1
sVdh0ibgb
p382
I1
sVd7sdqq5
p383
I1
sVd59qr57
p384
I1
sVd22inhk
p385
I1
sVdrzwcgj
p386
I1
sVd99k1my
p387
I1
sVda8g621
p388
I1
sVdkqrxhv
p389
I1
sVd3jh9ra
p390
I1
sVdq167io
p391
I1
sVdi5kn8t
p392
I1
sVd5htlx9
p393
I1
sVdifn11p
p394
I1
sVcz582wo
p395
I1
sVdha4qoj
p396
I1
sVd84hs3e
p397
I1
sVd3016c4
p398
I1
sVd4k0yla
p399
I1
sVdsca3g0
p400
I1
sVdj9xgzj
p401
I1
sVczn9qb9
p402
I1
sVdkp2rpa
p403
I1
sVdqvml27
p404
I1
sVd85erjd
p405
I1
sVdo4hcel
p406
I2
sVd2oe7b4
p407
I1
sVdbe8ihp
p408
I1
sVdhhr1ck
p409
I1
sVdbdnwcz
p410
I2
sVd8t4iwo
p411
I1
sVdp0nhkr
p412
I1
sVd9o99h4
p413
I1
sVdbta5pn
p414
I1
sVdb42z75
p415
I1
sVd7vuc69
p416
I1
sVdcgdqnk
p417
I1
sVdcz4w0t
p418
I1
sVd8bhqq6
p419
I1
sVd5avgjr
p420
I1
sVd7vshjy
p421
I1
sVczyr72g
p422
I1
sVdk8wlu1
p423
I1
sVdnepbcy
p424
I1
sVdjv31v8
p425
I1
sVd6jc8ad
p426
I1
sVdhoh95m
p427
I1
sVdfp0heb
p428
I1
sVcyif1oa
p429
I1
sVdmsv9on
p430
I1
sVdeyljdk
p431
I2
sVdr8li74
p432
I1
sVdol53e7
p433
I1
sVd62ck6t
p434
I1
sVd3pg8t9
p435
I1
sVdqhmugh
p436
I1
sVdjd3opg
p437
I1
sVd2774cd
p438
I1
sVdc0thf8
p439
I1
sVd5n9uh2
p440
I1
sVd1nolku
p441
I1
sVd9aph7g
p442
I1
sVdprz7h2
p443
I1
sVdb60cwi
p444
I1
sVdaxnqnc
p445
I1
sVd6inx8i
p446
I1
sVddeq1vs
p447
I1
sVdcalj02
p448
I1
sVdsl3sfv
p449
I1
sVde4a1s0
p450
I1
sVdntvg8u
p451
I1
sVd0vqzbm
p452
I1
sVdcba656
p453
I1
sVdefh51e
p454
I1
sVd7g85u0
p455
I1
sVdjsibmq
p456
I1
sVdhoawu5
p457
I1
sVd300uuw
p458
I1
sVd7vmscq
p459
I1
sVd9dqctr
p460
I3
sVd923g2e
p461
I1
sVdoqxwnr
p462
I1
sVda00btx
p463
I1
sVczoyfeo
p464
I1
sVd4u5v3d
p465
I2
sVd91mnlr
p466
I1
sVcz78w98
p467
I1
sVdgyhnxf
p468
I1
sVdmt0eg7
p469
I1
sVdhly2rm
p470
I1
sVdiqu8vz
p471
I1
sVdexrqgu
p472
I2
sVd35p19i
p473
I1
sVdd62eot
p474
I1
sVdcymyox
p475
I1
sVd9yz51h
p476
I1
sVd6mgwdl
p477
I1
sVdkixw80
p478
I1
sVdgmldkm
p479
I1
sVdpydkwn
p480
I1
sVcz5yu9g
p481
I1
sVd04kjdv
p482
I1
sVd3zdnaf
p483
I1
sVd9wdo3d
p484
I1
sVczzrh0q
p485
I1
sVd1ito0s
p486
I1
sVdh0i39k
p487
I1
sVd9f0vla
p488
I1
sVdjsm6la
p489
I1
sVd7faqdc
p490
I1
sVdn4hgo4
p491
I1
sVd40twmo
p492
I1
sVd68ehml
p493
I1
sVday7g0r
p494
I1
sVd8pgae5
p495
I1
sVda13igv
p496
I1
sVd1xq8zp
p497
I1
sVdfbjp8a
p498
I1
sVdeee9h9
p499
I1
sVddr866z
p500
I1
sVdmpibdd
p501
I1
sVd2r1pmu
p502
I1
sVcze7dyd
p503
I1
sVdn3w7ns
p504
I1
sVdnrvqj8
p505
I1
sVdhnuoo3
p506
I1
sVd0l5fhv
p507
I1
sVddc5t1z
p508
I1
sVd8o0y5v
p509
I1
sVd611xoz
p510
I1
sVddgknvs
p511
I1
sVdeamck6
p512
I2
sVd7l9w1z
p513
I1
sVd9i76je
p514
I1
sVd9y4bxg
p515
I1
sVd4kocme
p516
I1
sVczzrk66
p517
I1
sVdaenclj
p518
I1
sVd9zr6xy
p519
I1
sVdn8inod
p520
I1
sVdob33ln
p521
I1
sVdik0pnc
p522
I1
sVdonapg5
p523
I1
sVdar6ybl
p524
I1
sVd1mv2nn
p525
I2
sVdprqbqp
p526
I1
sVdssuw1i
p527
I1
sVd134xep
p528
I1
sVd9k4tte
p529
I1
sVdc967cy
p530
I1
sVdhpteep
p531
I1
sVd7dr3ss
p532
I1
sVdkrzbtv
p533
I1
sVdbu8afv
p534
I1
sVd1twsn9
p535
I1
sVdiyfc10
p536
I1
sVde2md9b
p537
I1
sVdrys8r1
p538
I1
sVd0sg5t7
p539
I1
sVdfnmzid
p540
I1
sVd3sptrx
p541
I1
sVd32p6e9
p542
I1
sVddc1aol
p543
I1
sVdhw75gh
p544
I1
sVdmjd75m
p545
I1
sVdf036az
p546
I1
sVdhiqcxe
p547
I1
sVd1lovob
p548
I1
sVdtbqu4o
p549
I1
sVdco6tky
p550
I1
sVcyueh1o
p551
I1
sVdgpcse0
p552
I1
sVd86icqj
p553
I1
sVdbeb37u
p554
I1
sVdr8wicv
p555
I1
sVddq6lby
p556
I1
sVdbsfx4d
p557
I1
sVdawveca
p558
I1
sVd65pwic
p559
I1
sVdcbrkja
p560
I1
sVdbh2d1s
p561
I1
sVdj35qsx
p562
I1
sVd0eoy3x
p563
I1
sVd1s9blr
p564
I1
sVd1d31fc
p565
I1
sVcz5gygk
p566
I1
sVdfqbbsv
p567
I1
sVdeq15wv
p568
I1
sVdp0c88o
p569
I1
sVdjlbx0i
p570
I1
sVdc0bu2l
p571
I1
sVdagcv5o
p572
I1
sVd62qp6u
p573
I1
sVda1dkao
p574
I1
sVdtjodnd
p575
I1
sVd9eerpa
p576
I1
sVdgwi3n0
p577
I1
sVdp0flpu
p578
I2
sVdojq7xm
p579
I1
sVdqwugjp
p580
I1
sVd5gvp2o
p581
I1
sVd3fmjd7
p582
I1
sVdk5977b
p583
I1
sVczm0waa
p584
I1
sVdb7dfbu
p585
I1
sVczxdds6
p586
I1
sVd53wf2z
p587
I1
sVdeemntm
p588
I1
sVdjxwbs7
p589
I1
sVd9jqjnt
p590
I1
sVdc2b2iw
p591
I1
sVd2ng32f
p592
I1
sVdt7toyh
p593
I1
sVd2juewu
p594
I1
sVdgpzlf8
p595
I1
sVdbmc0zn
p596
I1
sVder52ob
p597
I1
sVdin9z5d
p598
I1
sVdmfldkc
p599
I1
sVdawrl29
p600
I1
sVd4xsqjz
p601
I1
sVd4v3mvf
p602
I1
sVd70gjwi
p603
I1
sVd036fco
p604
I1
sVdej00yt
p605
I1
sVcz62d3f
p606
I2
sVdmmfxbo
p607
I1
sVd4uklo9
p608
I1
sVdbfrwnf
p609
I1
sVdtb0s9a
p610
I1
sVdbtlp0d
p611
I1
sVd6jv0z5
p612
I1
sVd1l63j4
p613
I1
sVcz7bt0e
p614
I2
sVdfcrq6b
p615
I1
sVdhnfkf6
p616
I3
sVdfcsav5
p617
I1
sVdhdaxra
p618
I1
sVdacwivp
p619
I1
sVditlin5
p620
I1
sVdhuiuby
p621
I1
sVd6qbw50
p622
I1
sVd0te3zz
p623
I1
sVczn10a0
p624
I1
sVd4141yi
p625
I1
sVdc9187g
p626
I1
sVd6wrvl6
p627
I1
sVdh36aho
p628
I1
sVd88nka7
p629
I1
sVdda7his
p630
I1
sVdnnkzys
p631
I1
sVdho05r4
p632
I1
sVdsnjet7
p633
I1
sVczmwgfh
p634
I1
sVd3esgc2
p635
I1
sVczt9z62
p636
I1
sVd2l2f2o
p637
I1
sVdipe8cd
p638
I1
sVdf6fhuh
p639
I1
sVdj5ne69
p640
I1
sVd0bqn9r
p641
I1
sVd0w71fp
p642
I1
sVdckqlya
p643
I1
sVddlxi4s
p644
I1
sVd6zy9h3
p645
I1
sVdkr33nl
p646
I1
sVd6kjdyb
p647
I1
sVd8r5ge4
p648
I1
sVd6br3gh
p649
I1
sVdr268wj
p650
I1
sVczmv22s
p651
I1
sVdj3ylso
p652
I1
sVd4h4dqp
p653
I1
sVdhlqe9l
p654
I1
sVd6nxect
p655
I1
sVd9bs7cr
p656
I1
sVdiqpkqi
p657
I2
sVd59qzk3
p658
I1
sVd03zanq
p659
I1
sVdhnf86t
p660
I1
sVdd3uaky
p661
I1
sVd1jdt9p
p662
I1
sVcz4wd9y
p663
I1
sVdfu3890
p664
I1
sVddr7nme
p665
I1
sVd63vcfc
p666
I1
sVde9587c
p667
I1
sVdnbdze5
p668
I1
sVdde03sz
p669
I1
sVcym6y3r
p670
I1
sVd2gfuxz
p671
I1
sVcyz7zyl
p672
I1
sVdol03kn
p673
I1
sVdsre5li
p674
I1
sVd0s6z3h
p675
I1
sVdbqfrjr
p676
I1
sVdq3mixl
p677
I1
sVcysp3l2
p678
I1
sVda4v5sl
p679
I1
sVczl3u54
p680
I1
sVd9ptq4l
p681
I1
sVdamhcpx
p682
I1
sVd0q70uw
p683
I1
sVdejw9a5
p684
I1
sVdfjuyuu
p685
I1
sVdkmenwn
p686
I1
sVd147oku
p687
I1
sVd933xi5
p688
I1
sVdpm1ko5
p689
I1
sVd3e4k5l
p690
I1
sVd2un80v
p691
I1
sVdoun3if
p692
I1
sVda5qc4y
p693
I1
sVdkblqqc
p694
I1
sVd6wbc26
p695
I3
sVd5seepd
p696
I1
sVd0xyuz0
p697
I1
sVdefeuor
p698
I1
sVd5p8pec
p699
I1
sVdcmemqh
p700
I1
sVdao9n68
p701
I1
sVdrp1wdh
p702
I1
sVcz1gf3r
p703
I1
sVd20cbsm
p704
I1
sVd0nrfil
p705
I1
sVdaogakm
p706
I1
sVde3rukf
p707
I1
sVd0qt4hq
p708
I1
sVdazevhz
p709
I2
sVdkhqfyr
p710
I1
sVddxg6qg
p711
I1
sVd3p22sr
p712
I1
sVd6gc31m
p713
I1
sVddgegba
p714
I3
sVdenwz2v
p715
I1
sVdjf3pak
p716
I1
sVczmahu0
p717
I2
sVd3g3u9h
p718
I1
sVdfp3cmk
p719
I2
sVd20xive
p720
I1
sVd79gh3w
p721
I1
sVdfvz0z5
p722
I1
sVd43mmmn
p723
I1
sVcze3vg1
p724
I1
sVd87pxx2
p725
I1
sVdeno9rc
p726
I1
sVd36yo35
p727
I1
sVd67u3pb
p728
I1
sVdeio2m0
p729
I1
sVdgqdbmd
p730
I2
sVdnyy598
p731
I1
sVd8y47so
p732
I1
sVdbq2uj3
p733
I1
sVda24iyt
p734
I1
sVd7nh7n4
p735
I1
sVd34dotr
p736
I1
sVd4o0z7h
p737
I1
sVdqjf0s2
p738
I1
sVcyqwlof
p739
I1
sVd62qwcy
p740
I1
sVdo38quc
p741
I1
sVd2jy942
p742
I1
sVdbjc9mu
p743
I1
sVdg48mi8
p744
I1
sVd2zh0d8
p745
I1
sVdrgbwk3
p746
I1
sVdar1kef
p747
I1
sVdgxdlt3
p748
I1
sVde1ya39
p749
I1
sVd4yatq5
p750
I1
sVczch81r
p751
I1
sVczjen3i
p752
I1
sVd3xsa0p
p753
I1
sVdcilhk4
p754
I2
sVdb7r2bg
p755
I1
sVdg98s4d
p756
I1
sVd18ikk9
p757
I2
sVdi9uer7
p758
I1
sVd5epp8f
p759
I2
sVdojqj2p
p760
I1
sVdsxr4co
p761
I1
sVd78x6hw
p762
I1
sVdr30lck
p763
I1
sVd7b5k0d
p764
I1
sVd6j0u3b
p765
I1
sVdc5zgkr
p766
I1
sVd4ps1ro
p767
I1
sVd65pv0h
p768
I1
sVd3hdywo
p769
I1
sVdrgvsb9
p770
I1
sVdfb2ri1
p771
I1
sVd49rhya
p772
I1
sVdr7a962
p773
I1
sVdf25hg3
p774
I1
sVd9y2avl
p775
I1
sVd94kgns
p776
I1
sVd5bl4gs
p777
I1
sVd8yem0c
p778
I1
sVdnukilt
p779
I1
sVdcjyl12
p780
I1
sVd9zaec5
p781
I1
sVdde0paj
p782
I1
sVdgk301w
p783
I1
sVd1d6r6j
p784
I1
sVdfl9mu5
p785
I1
sVdjdmlih
p786
I1
sVd7kp6zn
p787
I1
sVd2eb6hd
p788
I1
sVd9ae9vp
p789
I1
sVd8fj423
p790
I1
sVd3ginah
p791
I1
sVd3m8yhf
p792
I2
sVd59dtdc
p793
I1
sVd9pflgb
p794
I1
sVd81kmk1
p795
I1
sVdirs786
p796
I1
sVdrsxmdn
p797
I1
sVdh9rxj0
p798
I1
sVdgeqn6c
p799
I1
sVdd79ncf
p800
I1
sVd3b9l7t
p801
I1
sVdkwsq53
p802
I1
sVcyvixik
p803
I1
sVdmwr6pt
p804
I1
sVd3bkyrq
p805
I1
sVd3p8bf6
p806
I1
sVdfp6o6u
p807
I1
sVdcc8j5o
p808
I1
sVdenvvjl
p809
I1
sVddhvvua
p810
I1
sVdsgelqf
p811
I1
sVdcy88gd
p812
I1
sVd2w9c6c
p813
I1
sVd62kger
p814
I1
sVdjjgoc1
p815
I1
sVczfcco3
p816
I1
sVd5elmy2
p817
I1
sVd7jedlq
p818
I1
sVdn98ni6
p819
I1
sVd8d424h
p820
I1
sVdgadxli
p821
I1
sVd5nijcy
p822
I1
sVde6m1q2
p823
I1
sVd7ggd1u
p824
I1
sVdflwds6
p825
I1
sVdbx58cq
p826
I1
sVdd2ix3l
p827
I1
sVdfkumy5
p828
I1
sVczg6fg7
p829
I1
sVd084v30
p830
I1
sVd49jxx2
p831
I1
sVdc8rm24
p832
I1
sVd4gfrtx
p833
I1
sVdkirw4j
p834
I1
sVd3t115l
p835
I1
sVczxy5jr
p836
I1
sVdn2l988
p837
I1
sVdq9b5rr
p838
I1
sVd0v5d5j
p839
I1
sVdqxpl03
p840
I3
sVdj6sel3
p841
I1
sVcysphrd
p842
I1
sVd3s6h51
p843
I1
sVdijxlp1
p844
I1
sVd5giklg
p845
I1
sVdi1vvyw
p846
I1
sVd8ll5xq
p847
I1
sVd6gnxa2
p848
I1
sVdewyp8l
p849
I1
sVdkrruhr
p850
I1
sVd8l5b3u
p851
I1
sVd6hyplu
p852
I1
sVd4k78f7
p853
I1
sVdey56hz
p854
I1
sVd2cacpa
p855
I1
sVd7nwxs2
p856
I1
sVd4e3dws
p857
I1
sVd0pwcxu
p858
I1
sVddtjbdy
p859
I1
sVd9vx96j
p860
I1
s.