(dp0
Vdimqdhm
p1
I1
sVdputli3
p2
I1
sVdfozw01
p3
I1
sVde88w5f
p4
I1
sVdenxpn3
p5
I1
sVdbiuj0u
p6
I2
sVdfy2w6z
p7
I1
sVdpdmfg5
p8
I1
sVd5cpjua
p9
I1
sVd4d81y5
p10
I1
sVd84h7xq
p11
I1
sVd8ftjrh
p12
I2
sVd0qzutn
p13
I1
sVdeuott0
p14
I1
sVdgfavlu
p15
I1
sVcypko22
p16
I3
sVdkcdwzf
p17
I1
sVd0hke50
p18
I1
sVd7cpe70
p19
I1
sVdf4gq18
p20
I1
sVd1fjl8f
p21
I1
sVczb1p7u
p22
I3
sVd79cbuo
p23
I2
sVd94ses7
p24
I1
sVdb41gz0
p25
I1
sVdhoqrgl
p26
I2
sVdbx9bwx
p27
I1
sVdfdg0ls
p28
I1
sVdc0repu
p29
I1
sVd6g7stm
p30
I2
sVd0j9icu
p31
I1
sVd0elj0d
p32
I1
sVd95tj9u
p33
I1
sVd0kjx4q
p34
I1
sVdddpc95
p35
I1
sVcz11gnj
p36
I1
sVd1awt0p
p37
I1
sVdjkf0yu
p38
I2
sVdduaekl
p39
I4
sVddndckg
p40
I1
sVdbmz9xg
p41
I1
sVd9gvrfw
p42
I1
sVdd6sd90
p43
I1
sVdjml9v3
p44
I1
sVdkqw02z
p45
I1
sVdkoq5vb
p46
I1
sVdhqseia
p47
I1
sVddcvhrp
p48
I1
sVdmtyxu7
p49
I1
sVd1sycu2
p50
I1
sVcz2y6ii
p51
I2
sVdg22wa7
p52
I3
sVd7wrbi0
p53
I1
sVd9sthyi
p54
I1
sVdj2fgf2
p55
I1
sVd2ackrw
p56
I3
sVd8dnkds
p57
I3
sVdczrax8
p58
I1
sVd9b8hnc
p59
I1
sVd78hfis
p60
I1
sVdral0ka
p61
I1
sVd0j02p0
p62
I1
sVd8el50y
p63
I2
sVd6w4aqg
p64
I1
sVdqfj8n2
p65
I1
sVd88gx2d
p66
I3
sVd0ldmv4
p67
I1
sVdfvttf3
p68
I9
sVczzrv8y
p69
I2
sVdh7tqxz
p70
I1
sVd1pdalu
p71
I1
sVdjon17s
p72
I1
s.