(dp0
Vdnbw3ik
p1
I1
sVdogqyjg
p2
I1
sVd2ygvmc
p3
I1
sVczkajzx
p4
I1
sVdbthj9e
p5
I1
sVdigfd55
p6
I1
sVdi3u9hq
p7
I1
sVde4q8lx
p8
I1
sVdc3pkea
p9
I1
sVd5nzoxv
p10
I1
sVcyo74m4
p11
I1
sVdg03h2u
p12
I1
sVdb48me8
p13
I1
sVd1numom
p14
I1
sVdey4zmj
p15
I1
sVd6wt6lx
p16
I1
sVdhvncyh
p17
I1
sVcylbix1
p18
I1
sVd5hvvsn
p19
I1
sVdqgrui7
p20
I1
sVd2byt6k
p21
I3
sVd59m2v0
p22
I1
sVczt8346
p23
I1
sVdnduqf7
p24
I5
sVdpi73zz
p25
I1
sVd9k2mc3
p26
I1
sVdh2lvr4
p27
I1
sVd1gbtsc
p28
I1
sVd2y8itt
p29
I1
sVdbgz8ck
p30
I1
sVd6rfg6o
p31
I1
sVcyjag74
p32
I1
sVdbqv4vs
p33
I1
sVd9dykd8
p34
I1
sVd3e4k5l
p35
I1
sVd5hqacv
p36
I1
sVdkum53b
p37
I1
s.