(dp0
Vczj2suv
p1
I1
s.(dp0
Vczj2suv
p1
I2
s.(dp0
Vczj2suv
p1
I2
s.(dp0
Vczj2suv
p1
I2
s.(dp0
Vczj2suv
p1
I2
s.(dp0
Vczj2suv
p1
I2
s.(dp0
Vczj2suv
p1
I1
sVczpxvor
p2
I1
s.(dp0
Vczj2suv
p1
I1
sVd4c9ycz
p2
I1
s.(dp0
Vczj2suv
p1
I1
sVd4c9ycz
p2
I1
s.(dp0
Vczj2suv
p1
I1
sVd6uw94p
p2
I1
s.(dp0
Vczj2suv
p1
I1
sVd9h1x0q
p2
I1
s.(dp0
Vczj2suv
p1
I1
sVdpvmmdd
p2
I1
s.