(dp0
Vd50j4cb
p1
I2
sVcznd5zm
p2
I1
sVdmfga4q
p3
I1
sVdbmjjss
p4
I1
sVddu46vp
p5
I1
sVd664ggz
p6
I2
sVdgwo60d
p7
I1
sVdqskycy
p8
I1
sVd16ymxy
p9
I2
sVdqjlaeu
p10
I2
sVcyn1a4j
p11
I1
sVd0lyu68
p12
I1
sVdk3xoeq
p13
I1
sVd954kxx
p14
I1
sVd2xeiqb
p15
I1
sVdgzh9sb
p16
I1
sVdqpm47s
p17
I2
sVcz6zllb
p18
I1
sVcyswrlz
p19
I1
sVdbtvqqi
p20
I1
sVczoxg0c
p21
I1
sVdc8lfqe
p22
I1
sVczsg8ob
p23
I1
sVdbfn4tp
p24
I1
sVdc03rit
p25
I1
sVcyn3mw3
p26
I1
sVd2qshyb
p27
I1
sVd28ye2d
p28
I2
sVd16xh2b
p29
I1
sVd5juk16
p30
I1
sVda5dnyd
p31
I1
sVdkep1hg
p32
I2
sVdampsvb
p33
I1
sVcyi766b
p34
I1
sVd16renu
p35
I1
sVd5b19os
p36
I1
sVdkeqdvd
p37
I1
sVd3sc6g2
p38
I1
sVdja5612
p39
I1
sVdc05p5c
p40
I2
sVddtvvlg
p41
I1
sVdroj8e2
p42
I1
sVdkgnq3h
p43
I1
sVcz15sqa
p44
I2
sVd1f7hqx
p45
I1
sVczzuvgo
p46
I1
sVd290i25
p47
I1
sVd2w8y7y
p48
I2
sVdazdt0q
p49
I1
sVd4uzzuu
p50
I1
sVd5ptkav
p51
I1
sVdrnhbq1
p52
I1
sVdi3rc60
p53
I1
sVdibcjhp
p54
I1
sVdk6g46d
p55
I1
sVd7rhefg
p56
I1
sVd195w2b
p57
I1
sVdou4esh
p58
I1
sVdamqrjl
p59
I1
sVd6nqk9r
p60
I2
sVdcgl0ow
p61
I1
sVcyp7yaq
p62
I1
sVd14pl28
p63
I2
sVdgtiulw
p64
I1
sVd5961vf
p65
I1
sVcze3jhw
p66
I1
sVdf967fc
p67
I1
sVdkf40jm
p68
I1
sVdnaiooo
p69
I1
sVczb6px1
p70
I3
sVdij08ib
p71
I1
sVde30g8p
p72
I2
sVdcgju8w
p73
I1
sVdajwf0n
p74
I1
sVd1y5cic
p75
I1
sVd66uexs
p76
I1
s.