(dp0
Vcz9w8l6
p1
I1
s.(dp0
Vcz9w8l6
p1
I1
sVd0nh3fg
p2
I1
s.(dp0
Vcz9w8l6
p1
I1
sVd1p1efc
p2
I1
s.(dp0
Vcz9w8l6
p1
I1
sVd2bv50s
p2
I1
s.(dp0
Vcz9w8l6
p1
I1
sVd3gzpum
p2
I1
s.(dp0
Vcz9w8l6
p1
I1
sVd4372r9
p2
I1
s.(dp0
Vcz9w8l6
p1
I1
sVd6n5j3u
p2
I1
s.(dp0
Vcz9w8l6
p1
I1
sVd87lsvq
p2
I1
s.(dp0
Vcz9w8l6
p1
I1
sVd88cdmt
p2
I1
s.(dp0
Vcz9w8l6
p1
I1
sVd8ennk2
p2
I1
s.(dp0
Vcz9w8l6
p1
I1
sVd9xjc8k
p2
I1
s.(dp0
Vcz9w8l6
p1
I1
sVd9xjc8k
p2
I1
s.(dp0
Vcz9w8l6
p1
I1
sVdafmqan
p2
I1
s.(dp0
Vcz9w8l6
p1
I1
sVdagjrhg
p2
I1
s.(dp0
Vcz9w8l6
p1
I1
sVdagjrhg
p2
I1
s.(dp0
Vcz9w8l6
p1
I1
sVdb8d5by
p2
I1
s.(dp0
Vcz9w8l6
p1
I1
sVdc4bxc2
p2
I1
s.(dp0
Vcz9w8l6
p1
I1
sVddojgew
p2
I1
s.(dp0
Vcz9w8l6
p1
I1
sVddsgxud
p2
I1
s.(dp0
Vcz9w8l6
p1
I1
sVdg2571c
p2
I1
s.(dp0
Vcz9w8l6
p1
I1
sVdhlx4mm
p2
I1
s.(dp0
Vcz9w8l6
p1
I1
sVdhzbwea
p2
I1
s.(dp0
Vcz9w8l6
p1
I1
sVdindw6u
p2
I1
s.(dp0
Vcz9w8l6
p1
I1
sVdix840u
p2
I1
s.(dp0
Vcz9w8l6
p1
I1
sVdj8l47s
p2
I1
s.(dp0
Vcz9w8l6
p1
I1
sVdosgna7
p2
I1
s.(dp0
Vcz9w8l6
p1
I1
sVdoto3f5
p2
I1
s.