(dp0
Vda2sgsh
p1
I1
sVczdrt69
p2
I1
sVd6cusdi
p3
I1
sVczjy20d
p4
I1
sVd1rqw78
p5
I1
sVdmzfklp
p6
I1
sVdd0izh9
p7
I1
sVczl4e8g
p8
I1
sVcznkhep
p9
I1
sVdfiljn4
p10
I1
sVdgvkacd
p11
I1
sVdkg5bt0
p12
I1
sVd09o4ij
p13
I1
sVd1i97ue
p14
I1
sVd53bo9h
p15
I1
sVd2glx77
p16
I1
sVd1iq9k7
p17
I1
sVd08rcaz
p18
I1
sVdf2w7tc
p19
I1
sVde7pdmj
p20
I1
sVdix9ns7
p21
I2
sVd4vfeg3
p22
I1
sVd94cw8o
p23
I1
sVdb4ypxs
p24
I1
sVdenbbef
p25
I1
sVds90jdm
p26
I1
sVdgdt6gg
p27
I1
sVdqpjjcb
p28
I1
sVd4vprkp
p29
I1
s.