(dp0
Vcyy94ce
p1
I1
s.(dp0
Vd0dvlib
p1
I1
sVcyy94ce
p2
I1
s.(dp0
Vd2a1v9e
p1
I1
sVcyy94ce
p2
I1
s.(dp0
Vd2agcdh
p1
I1
sVcyy94ce
p2
I1
s.(dp0
Vd2m0dhg
p1
I1
sVcyy94ce
p2
I1
s.(dp0
Vd5fgkzv
p1
I1
sVcyy94ce
p2
I1
s.(dp0
Vd81el74
p1
I1
sVcyy94ce
p2
I1
s.(dp0
Vcyy94ce
p1
I1
sVd935ynp
p2
I1
s.(dp0
Vcyy94ce
p1
I1
sVdinklc7
p2
I1
s.(dp0
Vdjf9c9c
p1
I1
sVcyy94ce
p2
I1
s.(dp0
Vdkhkczh
p1
I1
sVcyy94ce
p2
I1
s.