(dp0
Vcyn0ujy
p1
I1
s.(dp0
Vcyspqro
p1
I1
sVcyn0ujy
p2
I1
s.(dp0
Vcyvv3tb
p1
I1
sVcyn0ujy
p2
I1
s.(dp0
Vcywk023
p1
I1
sVcyn0ujy
p2
I1
s.(dp0
Vczoz7p5
p1
I1
sVcyn0ujy
p2
I1
s.(dp0
Vczoz7p5
p1
I1
sVcyn0ujy
p2
I1
s.(dp0
Vd00hpxn
p1
I1
sVcyn0ujy
p2
I1
s.(dp0
Vd0626dl
p1
I1
sVcyn0ujy
p2
I1
s.(dp0
Vd0626dl
p1
I1
sVcyn0ujy
p2
I1
s.(dp0
Vd07r0v3
p1
I1
sVcyn0ujy
p2
I1
s.(dp0
Vd07r0v3
p1
I1
sVcyn0ujy
p2
I1
s.(dp0
Vd07tzui
p1
I1
sVcyn0ujy
p2
I1
s.(dp0
Vd0952jy
p1
I1
sVcyn0ujy
p2
I1
s.(dp0
Vd0erobf
p1
I1
sVcyn0ujy
p2
I1
s.(dp0
Vd0hd2ao
p1
I1
sVcyn0ujy
p2
I1
s.(dp0
Vd0hd2ao
p1
I1
sVcyn0ujy
p2
I1
s.(dp0
Vd0w77t9
p1
I1
sVcyn0ujy
p2
I1
s.(dp0
Vd0yuwd5
p1
I1
sVcyn0ujy
p2
I1
s.(dp0
Vd1hna2n
p1
I1
sVcyn0ujy
p2
I1
s.(dp0
Vd1ny98f
p1
I1
sVcyn0ujy
p2
I1
s.(dp0
Vd1pknoj
p1
I1
sVcyn0ujy
p2
I1
s.(dp0
Vd1ttzyj
p1
I1
sVcyn0ujy
p2
I1
s.(dp0
Vd2aeauq
p1
I1
sVcyn0ujy
p2
I1
s.(dp0
Vd2gxd1b
p1
I1
sVcyn0ujy
p2
I1
s.(dp0
Vd2pchw8
p1
I1
sVcyn0ujy
p2
I1
s.(dp0
Vd339gn9
p1
I1
sVcyn0ujy
p2
I1
s.(dp0
Vd3y5rbt
p1
I1
sVcyn0ujy
p2
I1
s.(dp0
Vd3ynng5
p1
I1
sVcyn0ujy
p2
I1
s.(dp0
Vd3ynng5
p1
I1
sVcyn0ujy
p2
I1
s.(dp0
Vd3ynng5
p1
I1
sVcyn0ujy
p2
I1
s.(dp0
Vd3ynng5
p1
I1
sVcyn0ujy
p2
I1
s.(dp0
Vd3ynng5
p1
I1
sVcyn0ujy
p2
I1
s.(dp0
Vd3ynng5
p1
I1
sVcyn0ujy
p2
I1
s.(dp0
Vd3ynng5
p1
I1
sVcyn0ujy
p2
I1
s.(dp0
Vd3ys9xp
p1
I1
sVcyn0ujy
p2
I1
s.(dp0
Vd3z8poo
p1
I1
sVcyn0ujy
p2
I1
s.(dp0
Vd3z8poo
p1
I1
sVcyn0ujy
p2
I1
s.(dp0
Vd3zi1ju
p1
I1
sVcyn0ujy
p2
I1
s.(dp0
Vd45459n
p1
I1
sVcyn0ujy
p2
I1
s.(dp0
Vd4rnk4x
p1
I1
sVcyn0ujy
p2
I1
s.(dp0
Vd4v8x37
p1
I1
sVcyn0ujy
p2
I1
s.(dp0
Vd4zy0e9
p1
I1
sVcyn0ujy
p2
I1
s.(dp0
Vd500431
p1
I1
sVcyn0ujy
p2
I1
s.(dp0
Vd52fytn
p1
I1
sVcyn0ujy
p2
I1
s.(dp0
Vd54b2l4
p1
I1
sVcyn0ujy
p2
I1
s.(dp0
Vd55pukj
p1
I1
sVcyn0ujy
p2
I1
s.(dp0
Vd5bly82
p1
I1
sVcyn0ujy
p2
I1
s.(dp0
Vd5g040f
p1
I1
sVcyn0ujy
p2
I1
s.(dp0
Vd5g040f
p1
I1
sVcyn0ujy
p2
I1
s.(dp0
Vd5g040f
p1
I1
sVcyn0ujy
p2
I1
s.(dp0
Vd5jjj0o
p1
I1
sVcyn0ujy
p2
I1
s.(dp0
Vd5jjj0o
p1
I1
sVcyn0ujy
p2
I1
s.(dp0
Vd5jjj0o
p1
I1
sVcyn0ujy
p2
I1
s.(dp0
Vd5jjj0o
p1
I1
sVcyn0ujy
p2
I1
s.(dp0
Vd5jjj0o
p1
I1
sVcyn0ujy
p2
I1
s.(dp0
Vd5jlgeg
p1
I1
sVcyn0ujy
p2
I1
s.(dp0
Vd5jmfp4
p1
I1
sVcyn0ujy
p2
I1
s.(dp0
Vd5jov22
p1
I1
sVcyn0ujy
p2
I1
s.(dp0
Vd5jov22
p1
I1
sVcyn0ujy
p2
I1
s.(dp0
Vd5jov22
p1
I1
sVcyn0ujy
p2
I1
s.(dp0
Vd6acpl2
p1
I1
sVcyn0ujy
p2
I1
s.(dp0
Vd7f5zg3
p1
I1
sVcyn0ujy
p2
I1
s.(dp0
Vd7f9vly
p1
I1
sVcyn0ujy
p2
I1
s.(dp0
Vd7jxa1g
p1
I1
sVcyn0ujy
p2
I1
s.(dp0
Vd7qpk40
p1
I1
sVcyn0ujy
p2
I1
s.(dp0
Vd7vw8gn
p1
I1
sVcyn0ujy
p2
I1
s.(dp0
Vd7vw8gn
p1
I1
sVcyn0ujy
p2
I1
s.(dp0
Vd7vw8gn
p1
I1
sVcyn0ujy
p2
I1
s.(dp0
Vd7vw8gn
p1
I1
sVcyn0ujy
p2
I1
s.(dp0
Vd7vw8gn
p1
I1
sVcyn0ujy
p2
I1
s.(dp0
Vd8dmftm
p1
I1
sVcyn0ujy
p2
I1
s.(dp0
Vd8doeg3
p1
I1
sVcyn0ujy
p2
I1
s.(dp0
Vd8dtldh
p1
I1
sVcyn0ujy
p2
I1
s.(dp0
Vd8dxq6q
p1
I1
sVcyn0ujy
p2
I1
s.(dp0
Vd8dzql7
p1
I1
sVcyn0ujy
p2
I1
s.(dp0
Vd8dzql7
p1
I1
sVcyn0ujy
p2
I1
s.(dp0
Vd8dzql7
p1
I1
sVcyn0ujy
p2
I1
s.(dp0
Vd8e5ba6
p1
I1
sVcyn0ujy
p2
I1
s.(dp0
Vd8e8u8t
p1
I1
sVcyn0ujy
p2
I1
s.(dp0
Vd8sawy8
p1
I1
sVcyn0ujy
p2
I1
s.(dp0
Vd8sawy8
p1
I1
sVcyn0ujy
p2
I1
s.(dp0
Vd8t0rsr
p1
I1
sVcyn0ujy
p2
I1
s.(dp0
Vd92b7wa
p1
I1
sVcyn0ujy
p2
I1
s.(dp0
Vd96wilx
p1
I1
sVcyn0ujy
p2
I1
s.(dp0
Vd9cn6gu
p1
I1
sVcyn0ujy
p2
I1
s.(dp0
Vd9tnk9h
p1
I1
sVcyn0ujy
p2
I1
s.(dp0
Vda0pnf8
p1
I1
sVcyn0ujy
p2
I1
s.(dp0
Vdaklr32
p1
I1
sVcyn0ujy
p2
I1
s.(dp0
Vdb07bc1
p1
I1
sVcyn0ujy
p2
I1
s.(dp0
Vdb07bc1
p1
I1
sVcyn0ujy
p2
I1
s.(dp0
Vdb37h35
p1
I1
sVcyn0ujy
p2
I1
s.(dp0
Vdb7wwa3
p1
I1
sVcyn0ujy
p2
I1
s.(dp0
Vdd6nrrg
p1
I1
sVcyn0ujy
p2
I1
s.(dp0
Vdd6nrrg
p1
I1
sVcyn0ujy
p2
I1
s.(dp0
Vdd8r4xw
p1
I1
sVcyn0ujy
p2
I1
s.(dp0
Vddhus9p
p1
I1
sVcyn0ujy
p2
I1
s.(dp0
Vddptwhs
p1
I1
sVcyn0ujy
p2
I1
s.(dp0
Vddptwhs
p1
I1
sVcyn0ujy
p2
I1
s.(dp0
Vddptwhs
p1
I1
sVcyn0ujy
p2
I1
s.(dp0
Vddsjv95
p1
I1
sVcyn0ujy
p2
I1
s.(dp0
Vddsjv95
p1
I1
sVcyn0ujy
p2
I1
s.(dp0
Vddsjv95
p1
I1
sVcyn0ujy
p2
I1
s.(dp0
Vddsjv95
p1
I1
sVcyn0ujy
p2
I1
s.(dp0
Vddsvrnp
p1
I1
sVcyn0ujy
p2
I1
s.(dp0
Vddwsoj8
p1
I1
sVcyn0ujy
p2
I1
s.(dp0
Vddwsoj8
p1
I1
sVcyn0ujy
p2
I1
s.(dp0
Vde0i3s3
p1
I1
sVcyn0ujy
p2
I1
s.(dp0
Vde3x0jn
p1
I1
sVcyn0ujy
p2
I1
s.(dp0
Vde(dp0
Vdtcvvgu
p1
I1
sVcyn0ujy
p2
I1
s.