(dp0
Vdgo1a2a
p1
I1
sVdqs8vc0
p2
I1
sVd4xis1i
p3
I2
sVczinktt
p4
I1
sVd4xshxq
p5
I1
sVd9mdhmh
p6
I1
sVdcrwen1
p7
I1
sVd8re16o
p8
I1
sVd4xkvpz
p9
I2
sVd19xgnd
p10
I1
sVdpnbyho
p11
I1
sVd2cs8ka
p12
I1
sVdafkm2f
p13
I1
sVd3vtx28
p14
I1
sVda8t4cj
p15
I1
sVdiu8ajb
p16
I1
sVdb1jshc
p17
I1
sVdcjaeld
p18
I1
sVd164p0p
p19
I1
sVd3p3qqn
p20
I1
sVds8a88e
p21
I2
sVdciebv9
p22
I1
sVdgmp0t8
p23
I1
sVd1bmbks
p24
I1
sVd8ve676
p25
I1
sVd3yalzl
p26
I1
sVd5avfuu
p27
I2
sVdcf4ge7
p28
I1
s.