(dp0
Vdrjsz5c
p1
I1
sVdf052fm
p2
I1
sVdg3ad32
p3
I1
sVcyt5fuw
p4
I1
sVd6zfpmj
p5
I1
sVczhnd9n
p6
I1
sVd6z6gsx
p7
I1
sVdjlr60x
p8
I1
sVd94pzy3
p9
I2
sVdmui2vi
p10
I2
sVd4zxiyc
p11
I1
sVd859wwe
p12
I1
sVd3qy0ij
p13
I1
sVdkn8d3u
p14
I1
sVcz2nd3f
p15
I1
sVdh6ipty
p16
I1
sVdms4m88
p17
I1
sVczawkhg
p18
I1
sVdaw8ko2
p19
I1
sVd94q1yo
p20
I1
sVd4110r7
p21
I1
sVd6hd589
p22
I2
sVd0s94rk
p23
I1
sVd8nazfz
p24
I3
sVd5vmeqy
p25
I1
sVdfx36pe
p26
I1
sVdc8ypg5
p27
I9
sVdcsvb4f
p28
I1
sVd9uwq09
p29
I1
sVczawird
p30
I1
sVd94xyx9
p31
I3
sVdmuer0r
p32
I1
sVdcnbb4k
p33
I1
sVd9gobti
p34
I1
sVdr98040
p35
I1
sVdicgetv
p36
I1
sVdbf6dxo
p37
I1
sVdetw2mo
p38
I1
sVd7mj0or
p39
I1
sVdqhu1po
p40
I1
sVdkpynnt
p41
I1
sVd4hfu8k
p42
I1
sVdaeibnb
p43
I1
sVd1263s4
p44
I2
sVdclmvra
p45
I1
sVdgsb18r
p46
I1
sVd856qp8
p47
I1
sVdelk04x
p48
I1
sVd1i3i2y
p49
I2
sVd1pu5h1
p50
I1
sVd2t7whk
p51
I1
sVdflz5dw
p52
I1
sVdg8oq0z
p53
I1
sVd3qzs99
p54
I1
sVdj2iuu5
p55
I1
sVdf6xjjg
p56
I2
sVdmv6ju0
p57
I1
sVdo4rwui
p58
I1
sVcykylc8
p59
I1
sVd411hu1
p60
I2
sVd0jfmnm
p61
I1
sVdo4d1yx
p62
I2
sVdg34dy2
p63
I1
sVdbedr3s
p64
I1
sVdg34opt
p65
I1
sVd9r5s26
p66
I1
sVd8nej0m
p67
I3
sVdjz3qke
p68
I1
sVczryekw
p69
I1
sVd8nuhji
p70
I1
sVd7miz4w
p71
I1
sVdmvd0tk
p72
I2
sVdiad3q3
p73
I1
sVdf6xamx
p74
I1
sVd11sm9t
p75
I1
sVdc8yya2
p76
I3
s.