(dp0
Vdssi15r
p1
I1
sVdcls244
p2
I1
sVdf12s9x
p3
I1
sVdotfzzu
p4
I1
sVd83r01w
p5
I1
sVd4j3iax
p6
I1
sVdbxa1kg
p7
I1
sVd8j4wfk
p8
I1
sVdkh36wd
p9
I2
sVdq8diw1
p10
I1
sVd2pzh0e
p11
I1
sVd30rl67
p12
I1
sVds0d7jh
p13
I1
sVd5sartm
p14
I1
sVdbibats
p15
I1
sVd88eyfm
p16
I1
sVdbi6yiz
p17
I2
sVczk4loc
p18
I1
sVd34ggqd
p19
I3
sVdbi1y6k
p20
I1
sVd6erib8
p21
I1
sVdh9ohar
p22
I1
sVdbqauqm
p23
I1
sVdobj2th
p24
I1
sVd4795ox
p25
I1
sVdgd788g
p26
I1
sVdhzqif9
p27
I1
sVd5poxal
p28
I1
s.