(dp0
Vdmex1lf
p1
I1
sVczyivnx
p2
I1
sVdflrlyj
p3
I1
sVd2ebvvd
p4
I1
sVcytl8vz
p5
I1
sVdpvizsm
p6
I2
sVd405rxk
p7
I1
sVd0adqcd
p8
I1
sVdrpfvem
p9
I1
sVd3wawhu
p10
I1
sVdn1dtmn
p11
I2
sVdkc9aoi
p12
I1
sVdhhxvxc
p13
I1
sVdhx8rbx
p14
I1
sVd3i924v
p15
I1
sVd2utupc
p16
I1
sVdoenlty
p17
I1
sVdb4xgft
p18
I1
sVdqzwult
p19
I1
sVdkpr0mf
p20
I1
s.