(dp0
Vczidtye
p1
I1
sVd2rdlfo
p2
I3
sVde6ly9r
p3
I1
sVdhrlc23
p4
I2
sVda3ocgu
p5
I1
sVd4qwtoe
p6
I2
sVd60pfcx
p7
I1
sVdcg8x7c
p8
I1
sVd2xepnm
p9
I2
sVdmr6bej
p10
I1
sVdi4lkjq
p11
I1
sVdsng99x
p12
I1
sVdjzmq0y
p13
I1
sVdmiem7y
p14
I1
sVdig1ftw
p15
I2
sVdcj1ygp
p16
I1
sVczq9w7f
p17
I1
sVdmipj8n
p18
I1
sVcz13q4l
p19
I1
sVdgyuicf
p20
I1
sVczbiw74
p21
I1
sVd2oucha
p22
I1
sVdhjgb6y
p23
I1
sVdswpa87
p24
I1
sVdj2lvk8
p25
I1
sVdnce8wn
p26
I1
sVd6wk5ku
p27
I1
sVdc6ig5z
p28
I1
sVdsg6ssh
p29
I1
sVd0n2inw
p30
I1
sVdnujk8q
p31
I1
sVd8zftnx
p32
I1
sVd6sng1f
p33
I1
sVdp0lnm2
p34
I1
sVddwh47p
p35
I1
sVd6pipq1
p36
I1
sVdf5de98
p37
I1
sVdcdj8cj
p38
I1
sVd17suhn
p39
I1
sVdi9hik4
p40
I1
sVd358qjw
p41
I1
sVd1ijwpu
p42
I1
sVdrqiesu
p43
I1
sVdticedy
p44
I1
sVd9ubxfd
p45
I2
sVdo04pw1
p46
I1
sVd6zp8i7
p47
I1
sVdcenp2e
p48
I1
sVdr3rf6s
p49
I1
sVdhhkyo9
p50
I1
sVdoyikym
p51
I1
sVcyrknpj
p52
I1
sVdbq3teq
p53
I1
sVd6bxwna
p54
I1
sVdcqk0wb
p55
I1
sVdqlk7m3
p56
I1
sVdeh6e49
p57
I1
sVdelka0o
p58
I1
sVdpcinh9
p59
I1
sVd2hnygf
p60
I1
sVdj10e0w
p61
I1
sVd8hbnsj
p62
I1
sVdnrb8jb
p63
I1
sVd9lqia3
p64
I1
sVdfsd1fn
p65
I1
sVdn11vo0
p66
I2
sVdi53wxj
p67
I2
sVdnnok9x
p68
I1
sVcyir5oq
p69
I1
sVdb9zl05
p70
I1
sVd8k7hm4
p71
I1
sVdi2rs74
p72
I1
sVdijvwf0
p73
I1
sVd1ibg62
p74
I1
sVdc86vny
p75
I1
sVdnbwecs
p76
I1
sVdhpujnv
p77
I1
sVd16u68z
p78
I1
sVdkzn4a0
p79
I1
sVdomlpr6
p80
I1
sVdmgl17p
p81
I1
sVczjwh4p
p82
I1
sVczqzdmd
p83
I1
sVdbtujba
p84
I1
sVdeksmae
p85
I1
sVd2l3uol
p86
I1
sVd2260cl
p87
I1
sVdkh8zt9
p88
I1
sVd2n3q60
p89
I1
sVdfe76m3
p90
I1
sVdi865t6
p91
I3
sVdjs188t
p92
I1
sVd5d47kb
p93
I1
sVd6bx8k3
p94
I2
sVdistkic
p95
I1
sVd3waqng
p96
I1
sVdmij2ux
p97
I2
sVdt5qto6
p98
I1
sVd4fhvpl
p99
I1
sVdeuq6fs
p100
I1
sVd18corf
p101
I1
sVdbh9704
p102
I1
sVdikdtrp
p103
I2
sVdel5q9i
p104
I1
sVdb9uz3x
p105
I1
sVdrpi4pk
p106
I1
sVd3a6o6f
p107
I1
sVdflyrn4
p108
I2
sVdhu8pgd
p109
I1
sVdatxart
p110
I1
sVd4p2szu
p111
I1
sVdhhpfnv
p112
I1
sVde21pp0
p113
I1
sVdspiuia
p114
I1
sVdi0d6tn
p115
I1
sVdmf094m
p116
I2
sVdsxyrbn
p117
I1
sVczwft1n
p118
I1
sVdkn9pd8
p119
I1
sVd31898w
p120
I3
sVdkhppk9
p121
I2
sVdbjhq70
p122
I1
sVd8q749l
p123
I1
sVd8jggw2
p124
I1
sVde08z6u
p125
I1
sVdemkdal
p126
I1
sVd8zkosx
p127
I1
sVdcntrh9
p128
I1
sVdhzea6s
p129
I1
sVcyse4t9
p130
I1
sVdr73p35
p131
I1
sVd49jt85
p132
I1
sVdifz5fk
p133
I1
sVcypp7rt
p134
I1
sVdf6t9yg
p135
I1
sVdj1tww0
p136
I1
sVddxwbsc
p137
I1
sVd4wodn6
p138
I2
sVd860cz9
p139
I1
sVdnyguut
p140
I1
sVdihd0ud
p141
I1
sVdk4npoa
p142
I1
sVd2b7ztc
p143
I1
sVd5h0xk3
p144
I1
sVcywny4i
p145
I1
sVcz0juzt
p146
I1
sVdg98v0o
p147
I1
sVd0y5l95
p148
I1
sVd6nmz8s
p149
I1
sVdt9lipi
p150
I1
sVcz4y2x8
p151
I1
sVdhs0qub
p152
I1
sVdp6xt17
p153
I1
sVdirnwev
p154
I1
sVddrfb1i
p155
I1
sVd771yx8
p156
I1
sVdacvhsn
p157
I1
sVd538qmu
p158
I1
sVdjggh9x
p159
I1
sVd694zzy
p160
I1
sVd016atx
p161
I1
sVdifwia0
p162
I2
sVd0pezdt
p163
I1
sVdcungzc
p164
I1
sVd2exevr
p165
I2
sVdpym58q
p166
I1
sVdmpte1s
p167
I1
sVdqr2djm
p168
I1
sVdflvwh5
p169
I1
sVcypgru3
p170
I1
sVdr0dlya
p171
I1
sVd00nlgp
p172
I1
sVdazdsn3
p173
I1
sVd4n4g51
p174
I1
sVdhomfkt
p175
I2
sVcykrq78
p176
I1
sVdqn2zr6
p177
I1
sVd1wdr1s
p178
I1
sVcz5ayi1
p179
I1
sVdihf4wk
p180
I1
sVds8xebe
p181
I1
sVd1w3w10
p182
I1
sVd3zu6vg
p183
I1
sVd0iwz9h
p184
I1
sVdmjd9rl
p185
I1
sVdt9mkyk
p186
I1
sVdesuqxv
p187
I2
sVdrd7lgi
p188
I1
sVd3hf5ia
p189
I1
sVczd5hag
p190
I1
sVd7w84nq
p191
I1
sVd37cqgt
p192
I2
sVdhmctlu
p193
I1
sVdq5vijm
p194
I1
sVcz76yew
p195
I1
sVddccqm5
p196
I1
sVdflotxt
p197
I1
sVd6ccoz8
p198
I1
sVdj1bqk8
p199
I1
sVdinjmkb
p200
I1
sVcyjvw3u
p201
I1
sVdq4q39c
p202
I1
sVdratoy1
p203
I1
sVd2qpawd
p204
I1
sVdkv4f57
p205
I1
sVdh69wlm
p206
I1
sVdfid6xw
p207
I1
sVdqg3cb9
p208
I1
sVd80c7ss
p209
I1
sVd36dtnt
p210
I2
sVdsnrp2v
p211
I1
sVda7wfgi
p212
I1
sVd31b17k
p213
I1
sVd4qbsws
p214
I1
sVdcehaw7
p215
I1
sVd29jxi6
p216
I1
sVd9ao1z5
p217
I1
sVdny3y9b
p218
I1
sVd6p7yqn
p219
I2
sVdoohunu
p220
I1
sVd6w72qw
p221
I2
sVdmelewe
p222
I1
sVd0kjg3r
p223
I1
sVddxce1f
p224
I1
sVczxm0ah
p225
I1
sVd9dgnc8
p226
I1
sVdnbc61b
p227
I1
sVdalm6g2
p228
I1
sVdpibg0g
p229
I1
sVd9xpvqb
p230
I1
sVd9xscqc
p231
I1
sVd7ghjjj
p232
I1
sVd0mmbfq
p233
I1
sVdj4zlae
p234
I1
sVda7x8sf
p235
I1
sVdn171rh
p236
I2
sVdnl8kwo
p237
I1
sVdb9duba
p238
I1
sVdf9144a
p239
I1
sVcz5bh6p
p240
I1
sVdjso0mu
p241
I1
sVdaou6h5
p242
I1
sVdai5v64
p243
I1
sVdrmqtfz
p244
I1
sVdozf1ba
p245
I1
sVdr5hbkt
p246
I1
sVdnet9ej
p247
I1
sVdd9mlcp
p248
I1
sVdppmxfh
p249
I1
sVd89m0ue
p250
I1
sVdth1l0m
p251
I1
sVdndyhmc
p252
I1
sVdpzkhkj
p253
I1
sVd0egcuk
p254
I1
sVde7l285
p255
I1
sVd5oij2p
p256
I1
sVdjdaaqj
p257
I1
sVd2uhhbd
p258
I1
sVddvxf86
p259
I1
sVdn1cnh1
p260
I2
sVdpsjqcb
p261
I1
sVdt9ppyi
p262
I1
sVdnyfbfu
p263
I1
sVczsgdv4
p264
I1
sVdopq038
p265
I1
sVcyup8o6
p266
I1
sVczvwqeh
p267
I1
sVcyx8kbv
p268
I1
sVdr9iv0j
p269
I1
sVd88b65y
p270
I1
sVd0d66qs
p271
I1
sVdhqjwtp
p272
I1
sVdojekas
p273
I1
sVddvmsdf
p274
I1
sVcyw0oa3
p275
I1
sVdn6ivvx
p276
I1
sVdkybmam
p277
I1
sVdjthrtd
p278
I1
sVdatdblw
p279
I1
sVcz4qd82
p280
I1
sVdaxtnbi
p281
I2
sVdt9nkwm
p282
I1
sVda81215
p283
I1
sVdifpj0b
p284
I1
sVdhd6juy
p285
I1
sVdmuta51
p286
I1
sVd0bi6w8
p287
I2
sVd52qusu
p288
I1
sVdoron14
p289
I1
sVd9uyd2y
p290
I1
sVdggjaah
p291
I1
sVdettegb
p292
I1
sVdga7x11
p293
I1
sVd958fso
p294
I1
sVddwghfl
p295
I1
sVdozu2mb
p296
I1
sVdjzcc7w
p297
I1
sVd9v8f9m
p298
I1
sVdqqqbcy
p299
I1
sVderd2tv
p300
I1
sVcyoaona
p301
I1
sVd9zxcwt
p302
I1
sVdhx6bn4
p303
I1
sVdcajh6w
p304
I1
sVdpj3827
p305
I2
sVddcv0hp
p306
I1
sVddne7ds
p307
I1
sVdo1ve4s
p308
I1
sVd1a8rc4
p309
I1
sVdmeysif
p310
I1
sVd5jhw6d
p311
I1
sVd7vkdum
p312
I1
sVdhxlbkz
p313
I1
sVdfvgm6x
p314
I2
sVd4et2h3
p315
I2
sVddhegdw
p316
I1
sVdgiap11
p317
I1
sVdkrbel4
p318
I1
sVdp7h3xf
p319
I1
sVdhows4e
p320
I1
sVd1gbayw
p321
I3
sVddd76xa
p322
I1
sVdafz4vl
p323
I1
sVdti93uj
p324
I1
sVd11a1hf
p325
I1
sVdgegwaz
p326
I1
sVdo0ib7o
p327
I1
sVdjmijzk
p328
I1
sVdfflkb9
p329
I1
sVd4wwrk7
p330
I1
sVdb7d824
p331
I1
sVdas5u6t
p332
I1
sVdf89xuu
p333
I1
sVdkh7o31
p334
I1
sVdmrx7nn
p335
I1
sVdsujri8
p336
I1
sVdd6efvu
p337
I2
sVdplt42w
p338
I1
sVd1wdy8k
p339
I1
sVdq6w0jp
p340
I1
sVdfwzs4p
p341
I1
sVd7xdd1l
p342
I1
sVdo64e8l
p343
I1
sVdnz5hq8
p344
I1
sVdhus1h9
p345
I1
sVczzxwov
p346
I6
sVdojmt1s
p347
I1
sVczzs47n
p348
I1
sVdga7ycf
p349
I1
sVde5y26k
p350
I1
sVdj4zhzs
p351
I1
sVd62kn0q
p352
I1
sVd7l2gvx
p353
I1
sVd8vccsp
p354
I1
sVdq3y4f6
p355
I1
sVd7dq2ss
p356
I1
sVdsa8u3n
p357
I1
sVdps0lpe
p358
I1
sVd3dthnk
p359
I1
sVd9udp41
p360
I1
sVd15ass9
p361
I1
sVdpo5s9u
p362
I1
sVdh96uwo
p363
I1
sVd3q307u
p364
I1
sVd54741g
p365
I1
sVdcb2ech
p366
I1
sVd10ch27
p367
I1
sVdnvv4ne
p368
I1
sVdn4oca4
p369
I1
sVdtf2mtl
p370
I1
sVdfwqcq4
p371
I1
sVd7k99r2
p372
I1
sVdbbycu0
p373
I1
sVdgtitcn
p374
I1
sVd4s0j3t
p375
I1
sVde760p1
p376
I1
sVdtici3m
p377
I1
sVdbeyhbi
p378
I1
sVdj8nop5
p379
I1
sVd6p6yxp
p380
I1
sVd4og3it
p381
I1
sVdb207a7
p382
I1
sVdcbdwi6
p383
I1
sVd4rf4cf
p384
I1
sVdaodo42
p385
I2
sVdcwxaqt
p386
I1
sVd04d7ms
p387
I1
sVd8ulwpt
p388
I2
sVddqrzd0
p389
I1
sVd647mn7
p390
I1
sVd2h40mm
p391
I1
sVdruk9ao
p392
I1
sVd9up2qq
p393
I1
sVdkcclyk
p394
I1
sVdqfbpnf
p395
I1
sVd6vq03v
p396
I1
sVdidon0k
p397
I1
sVd4mezi2
p398
I1
sVd7z9s4k
p399
I1
sVdadidr8
p400
I1
sVd38xhn4
p401
I1
sVdk10avj
p402
I1
sVdmnss7q
p403
I1
sVd78lt0u
p404
I1
sVdp4xkcy
p405
I1
sVdov0c89
p406
I1
sVdffmxb1
p407
I1
sVdc8cmc9
p408
I1
sVdd9qils
p409
I1
sVd73kz3l
p410
I1
sVczxmqfo
p411
I1
sVd9utor6
p412
I1
sVdfh64s5
p413
I1
sVd7ax3b4
p414
I1
sVdb5m66u
p415
I1
sVdgd6r3o
p416
I1
sVdi0e7o4
p417
I1
sVd6nklwq
p418
I1
sVdoxnzdg
p419
I1
sVdjh5m9i
p420
I1
sVdezvzqs
p421
I1
sVdb9q6oy
p422
I1
sVdd3vo4n
p423
I1
sVdgkpl2f
p424
I1
sVdgchs0r
p425
I1
sVdfuvu0a
p426
I1
sVdbnu9ju
p427
I1
sVdav6fd3
p428
I1
sVdcx9lcf
p429
I1
sVd6te6u9
p430
I1
sVd1uutqu
p431
I1
sVdrzxayp
p432
I1
sVdh6t6bl
p433
I1
sVd9ucf3p
p434
I1
sVdrp0ype
p435
I1
sVdn1gl2t
p436
I1
sVd4fb341
p437
I1
sVcywnt8q
p438
I1
sVdhmyclh
p439
I1
sVdjelczo
p440
I2
sVd4iu1do
p441
I2
sVd1p8xrh
p442
I1
sVd8xw96h
p443
I2
sVd4oqcfj
p444
I2
sVcyw0bpv
p445
I1
sVd25c4m4
p446
I1
sVdh2wvj5
p447
I1
sVdcw1boj
p448
I1
sVdiatmyu
p449
I1
sVd0e9a46
p450
I1
sVdg4t8bp
p451
I2
sVd26yath
p452
I1
sVd2utult
p453
I1
sVdcur5kz
p454
I2
sVdnw664m
p455
I2
sVdblmfiv
p456
I1
sVdhp7rea
p457
I1
sVd1cdb4e
p458
I2
sVcyksptz
p459
I1
sVd0n8mjb
p460
I1
sVdkj0ynx
p461
I1
sVdcy864m
p462
I1
sVdel99tq
p463
I1
sVdr6fviz
p464
I1
sVdh889m5
p465
I1
sVdsxusna
p466
I1
sVcymwbak
p467
I1
sVdohkeem
p468
I1
sVd0bf9gq
p469
I1
sVd6ht7s1
p470
I1
sVczn4f1h
p471
I1
sVd6ysw1g
p472
I1
sVd395rly
p473
I1
sVdaodnq2
p474
I2
sVd028mmi
p475
I1
sVdhn3x6p
p476
I1
sVdfsm8ah
p477
I1
sVcyy1m83
p478
I1
sVd0zckq8
p479
I1
sVd6yahwk
p480
I1
sVdtc0r3s
p481
I1
sVdh4xv4r
p482
I1
sVd49ws41
p483
I1
sVd0zq8mu
p484
I1
sVdbbync3
p485
I1
sVcyvafil
p486
I1
sVd130x9i
p487
I1
sVdekvdpr
p488
I1
sVd3badbu
p489
I1
sVdi5q5nn
p490
I1
sVd071hcb
p491
I1
sVderitjn
p492
I1
sVdhsejql
p493
I1
sVdas8xx8
p494
I1
sVd81k5r2
p495
I1
sVdjhv0l1
p496
I1
sVddai80b
p497
I1
sVdo7y98j
p498
I1
sVd0hz48a
p499
I1
sVd6v6hnn
p500
I3
sVdei4p9r
p501
I1
sVdaknhv2
p502
I1
sVde88w5f
p503
I1
sVcypn2dq
p504
I1
sVdgohvq7
p505
I1
sVd3xhewj
p506
I1
sVd52mogn
p507
I1
sVdpv6d34
p508
I1
sVd4qv2s7
p509
I1
sVdacusye
p510
I1
sVd1zio1g
p511
I1
sVd6bvsd9
p512
I1
sVdtiolsz
p513
I1
sVd96e98k
p514
I1
sVd6oyphy
p515
I1
sVd3665w0
p516
I1
sVd55to4x
p517
I1
sVd4nz1pv
p518
I4
sVd9001t7
p519
I2
sVdhb4jbj
p520
I1
sVd065b0z
p521
I3
sVd6m3m0l
p522
I1
sVdowv5ut
p523
I1
sVdkf4v8c
p524
I1
sVdh1uiad
p525
I1
sVdiehite
p526
I1
sVd3nlvc4
p527
I1
sVdh4qqqf
p528
I1
sVd6hwz0w
p529
I1
sVd9ulked
p530
I2
s.