(dp0
Vd3owuh9
p1
I1
sVddn7ulz
p2
I1
sVd97ay9o
p3
I1
sVdhf20nt
p4
I1
sVd2068p9
p5
I1
sVdqmi50d
p6
I1
sVczgl46u
p7
I1
sVdorncw6
p8
I1
sVcyqou4m
p9
I1
sVczkwx0j
p10
I1
sVd09p0ah
p11
I2
sVcyrozmt
p12
I1
sVdg4ywnz
p13
I1
sVdj9n36b
p14
I1
sVd1gg9bi
p15
I1
sVdb53dna
p16
I1
sVd1pqxt3
p17
I1
sVdk1mark
p18
I1
sVdgba1xr
p19
I1
sVddd8mde
p20
I1
sVd72jj46
p21
I1
sVde7ysy3
p22
I1
sVdc50616
p23
I1
sVdoiu21t
p24
I1
sVdhsnf26
p25
I1
sVd64xxxz
p26
I1
sVdagdsf4
p27
I1
sVd3ggy6q
p28
I1
sVd56lfii
p29
I1
sVdi8bth1
p30
I1
sVdmi5yqu
p31
I1
sVdfr20f2
p32
I1
sVdese6e7
p33
I1
sVdcnk9n8
p34
I1
sVd794ukd
p35
I1
sVdexotdw
p36
I1
sVdc43mcm
p37
I1
sVdfw13yw
p38
I2
sVdrz1vht
p39
I1
sVd7gne5j
p40
I1
sVdc50f8a
p41
I1
sVddmxyhw
p42
I1
sVdfskuhx
p43
I1
sVdc3953e
p44
I1
sVczfk625
p45
I1
sVd0xf6cg
p46
I1
sVdfdrm4y
p47
I1
sVd07deke
p48
I1
sVd7dlrjk
p49
I1
sVd16xnup
p50
I1
sVd8jljfg
p51
I1
sVd142b20
p52
I1
sVd8vrsyo
p53
I1
sVd8v68el
p54
I1
sVd6jb0g9
p55
I1
sVd1xmz5p
p56
I1
sVdkma9xk
p57
I1
sVdcc9eld
p58
I1
sVd0uqs9i
p59
I1
sVd38ok63
p60
I1
sVdpu08im
p61
I1
sVd8whscs
p62
I1
sVd8j6xuk
p63
I1
sVdohdsx1
p64
I1
sVd7wzz80
p65
I1
sVdeac2wn
p66
I1
sVd249lr3
p67
I1
sVdnpq7lm
p68
I1
sVds2kao8
p69
I1
sVdeyu7ag
p70
I1
sVd9nwcio
p71
I1
sVczmdhom
p72
I1
sVcylib1e
p73
I1
sVd1d1ml7
p74
I1
sVda66rc1
p75
I1
sVcywto71
p76
I1
sVd2vzasp
p77
I1
sVdjfodff
p78
I1
sVddcofgk
p79
I1
sVcyqqhv8
p80
I1
sVcz08s4v
p81
I1
sVdnfbv96
p82
I1
sVdi8bili
p83
I1
sVdaexw0e
p84
I1
sVd3qhhhh
p85
I1
sVdn1674p
p86
I2
sVczculbv
p87
I1
sVdix49la
p88
I1
sVd8jb1e7
p89
I1
sVddngjmz
p90
I1
sVd6mn6lt
p91
I1
sVd5u9u06
p92
I1
sVdfe1vpz
p93
I1
sVdagbygd
p94
I1
sVd1zto0g
p95
I1
sVdfdok7r
p96
I1
sVd44vke8
p97
I1
sVdii43qm
p98
I1
sVd511k2i
p99
I1
sVdg2x9gy
p100
I1
sVdk3sow9
p101
I1
sVdr8uccj
p102
I1
sVdi813ml
p103
I1
sVd2scfed
p104
I1
sVcz1eqg7
p105
I1
sVd9cau6e
p106
I1
sVd2r7yx5
p107
I1
sVd5x1cz9
p108
I1
sVde22wc7
p109
I1
sVdc9tdf9
p110
I1
sVcynekvh
p111
I1
sVd6ve8ws
p112
I1
sVd1pbngx
p113
I1
sVdde9foh
p114
I1
sVdg7ujx6
p115
I1
sVdidauxr
p116
I1
sVd4qj0rj
p117
I1
sVd0ail6n
p118
I1
sVdjdg4ss
p119
I1
sVdmsonyq
p120
I1
sVdb0h68a
p121
I1
sVd6une0r
p122
I1
sVd5pu0y5
p123
I1
s.