(dp0
Vdg845d0
p1
I1
sVdkdxzty
p2
I1
sVdpy6lpf
p3
I2
sVcz57jce
p4
I1
sVczaa0tv
p5
I1
sVdmufqzx
p6
I1
sVd6e1tau
p7
I2
sVd5yrf8c
p8
I7
sVd2pc4gw
p9
I1
sVd4lf1w4
p10
I7
sVcymu6jh
p11
I1
sVd42419i
p12
I1
sVd1qqbsw
p13
I1
sVd0dsyl4
p14
I1
sVdfi9fd8
p15
I1
sVczab1d6
p16
I1
sVd97vsu1
p17
I1
sVdagwxzr
p18
I1
sVd2l9cb4
p19
I2
sVdjh40lu
p20
I1
sVdqh86mf
p21
I1
sVd6abatc
p22
I2
sVdjo4e0m
p23
I1
sVdcvu21g
p24
I1
sVd6ab1qr
p25
I1
sVdba4czq
p26
I1
sVd31cd65
p27
I1
sVdkahv0m
p28
I2
sVdduvv5e
p29
I1
sVdbkk8ma
p30
I1
sVdanfz1o
p31
I1
sVdpy6kg7
p32
I2
sVd1dgnop
p33
I2
sVd151d7t
p34
I2
sVd7clwny
p35
I1
sVd4bcuix
p36
I1
sVd98j5zt
p37
I6
sVdpp4g0f
p38
I1
sVczukih3
p39
I1
sVdevigdu
p40
I1
sVdg9vfq5
p41
I1
sVdgjm7er
p42
I1
sVd468f6f
p43
I1
sVdfcagwj
p44
I2
sVdghmwx4
p45
I1
sVd795ovj
p46
I1
sVd1c31sz
p47
I1
sVd5ycx3i
p48
I4
sVd4hy6hq
p49
I1
sVd2lir1s
p50
I5
sVd16k2ws
p51
I1
sVdk5bac5
p52
I1
sVdc1oxn0
p53
I1
sVd1us1oz
p54
I1
sVd81mson
p55
I1
sVdq0jykg
p56
I1
sVd749bhh
p57
I2
sVd4qr659
p58
I1
sVdq60286
p59
I1
sVdkxhmy3
p60
I1
sVd4lf3wk
p61
I14
sVcyp5acq
p62
I1
sVdg7zkir
p63
I1
s.