(dp0
Vd7ui1qf
p1
I1
sVdqz7dht
p2
I1
sVd0yge40
p3
I1
sVdje0s5x
p4
I1
sVd80820l
p5
I1
sVd7ul557
p6
I1
sVdfvliqb
p7
I1
sVd49ht81
p8
I1
sVd995cl9
p9
I1
sVdr432q1
p10
I1
sVdjdx9wh
p11
I1
sVd47lb01
p12
I1
sVd2p862c
p13
I1
sVd7ul0ki
p14
I1
s.