(dp0
Vdaqlp22
p1
I1
sVdfy747s
p2
I1
sVdhh627f
p3
I1
sVdff4ap9
p4
I1
sVdikwc7m
p5
I1
sVdbnvd37
p6
I1
sVdjeb8v8
p7
I1
sVdtbradd
p8
I1
sVdg8pv66
p9
I1
sVd0hqmtb
p10
I1
sVd48xevw
p11
I1
sVdeg2wvy
p12
I1
sVd3h3vny
p13
I1
sVczgjlig
p14
I1
sVd5q4nwz
p15
I1
sVddajsr8
p16
I1
sVcz3i912
p17
I1
sVdjsvf3p
p18
I2
sVdbkux7q
p19
I1
sVdfybtwt
p20
I1
s.