(dp0
Vdbuxgne
p1
I1
sVd5vumzt
p2
I1
sVd1dshgm
p3
I1
sVdc93fq1
p4
I1
sVdfwuh1o
p5
I1
sVd1m9jvn
p6
I1
sVde3wu16
p7
I1
sVdhkw8uo
p8
I1
sVdf4btg2
p9
I1
sVd1k8158
p10
I1
sVdizw3wb
p11
I1
sVcz92ouu
p12
I1
sVczm6w1s
p13
I1
sVdr06u3j
p14
I1
sVd40t2ve
p15
I1
sVdhjrvxx
p16
I1
sVdfty91k
p17
I1
sVdnabg0z
p18
I1
sVd9h7t8e
p19
I1
sVdc2jyfl
p20
I1
sVd39fq7k
p21
I1
sVdgk74bo
p22
I1
sVdj58rk3
p23
I1
sVdhxbxx7
p24
I1
sVdebr1a9
p25
I1
sVdnrtabg
p26
I1
sVdg9e5r7
p27
I1
sVd7vch00
p28
I1
sVd3380bi
p29
I1
sVd6e6vry
p30
I1
sVddxtq8z
p31
I1
sVd8doz64
p32
I1
sVdf4ytd4
p33
I1
sVd8scers
p34
I1
sVd6ciiw2
p35
I1
sVdee4isz
p36
I1
sVczqqoyp
p37
I1
sVdj15r6t
p38
I1
sVdapl5rr
p39
I1
sVdec0bym
p40
I1
s.