(dp0
Vczni0rx
p1
I1
s.(dp0
Vczni0rx
p1
I1
sVd0vv0cs
p2
I1
s.(dp0
Vd0vxbsl
p1
I1
sVczni0rx
p2
I1
s.(dp0
Vd0vxbsl
p1
I1
sVczni0rx
p2
I1
s.(dp0
Vd0vxbsl
p1
I1
sVczni0rx
p2
I1
s.(dp0
Vd8f7wyc
p1
I1
sVczni0rx
p2
I1
s.(dp0
Vde83vx4
p1
I1
sVczni0rx
p2
I1
s.(dp0
Vdfi55ou
p1
I1
sVczni0rx
p2
I1
s.(dp0
Vdfi55ou
p1
I1
sVczni0rx
p2
I1
s.(dp0
Vdplf41w
p1
I1
sVczni0rx
p2
I1
s.(dp0
Vdq14130
p1
I1
sVczni0rx
p2
I1
s.(dp0
Vdra6big
p1
I1
sVczni0rx
p2
I1
s.