(dp0
Vd8m4rew
p1
I1
sVds8vku9
p2
I1
sVd2ffsod
p3
I1
sVcziqsre
p4
I1
sVd8ro84u
p5
I1
sVd7eek9d
p6
I1
sVdbh1daj
p7
I1
sVd9gzyqq
p8
I1
sVcyomhye
p9
I1
sVd5d2v07
p10
I1
sVdahssvu
p11
I1
sVdnb4hnz
p12
I1
sVdfdu97r
p13
I3
sVdj2ds1g
p14
I1
sVdqtmsrp
p15
I1
sVdn4hgo4
p16
I1
sVdewfyb3
p17
I1
sVdnccdib
p18
I1
sVd6nxect
p19
I1
sVdatw7bx
p20
I1
sVd9rrrfe
p21
I1
sVd5mpxco
p22
I1
sVdb3hgcx
p23
I1
sVdr9c7xk
p24
I1
sVdbtor3y
p25
I1
sVddwtrs9
p26
I1
sVdi8u7a2
p27
I1
sVd3liia6
p28
I1
sVdjf97uk
p29
I1
sVd6nzi0x
p30
I1
sVdaml8ct
p31
I1
sVd7gcev9
p32
I1
sVdd5ght0
p33
I1
sVdn0bske
p34
I2
sVd7bac70
p35
I1
sVd0s0r48
p36
I1
sVd0fqxe6
p37
I1
sVczl3xgf
p38
I1
sVdj9kfzm
p39
I1
sVdgfx67j
p40
I1
sVdg2v4mh
p41
I1
sVd028qij
p42
I1
sVd9zfq8w
p43
I1
sVczwnxxo
p44
I1
sVdfb4rz5
p45
I1
sVdnw92y1
p46
I1
sVdnplywe
p47
I1
sVdq62z8a
p48
I1
sVd2wsbvs
p49
I1
sVcyyq2wm
p50
I1
sVd159ybx
p51
I1
sVdbewyh6
p52
I1
sVdddsstd
p53
I1
sVd85rylv
p54
I1
sVd7frk60
p55
I1
sVd9nfuky
p56
I1
sVda2rjci
p57
I1
sVd8wzw0z
p58
I1
sVcymh9m5
p59
I1
sVdhwohj5
p60
I2
sVd1958zr
p61
I1
sVd0pt5iv
p62
I1
sVd8yb4mu
p63
I2
sVdjckoj8
p64
I1
sVddjb069
p65
I1
sVd9m6lgg
p66
I1
sVdfrxgbe
p67
I1
sVdjkp5nw
p68
I1
sVd4u5pee
p69
I1
sVdcezjzd
p70
I1
sVcz0s623
p71
I1
sVd3h0zgk
p72
I1
sVd3shbct
p73
I1
sVd0d7nm2
p74
I1
sVdfnipv0
p75
I1
sVcyjamrw
p76
I1
sVd6684lo
p77
I1
sVd4qbhv0
p78
I1
sVd8aq57k
p79
I1
sVd15j2un
p80
I1
sVdc7fosh
p81
I1
sVd8eon1l
p82
I1
sVczdbn69
p83
I2
sVdr32fff
p84
I1
sVd88xpxg
p85
I1
sVd45fkai
p86
I1
sVd20zgw3
p87
I1
sVdk35xne
p88
I1
sVdbbzkuk
p89
I1
sVcz0flup
p90
I1
sVdh646nr
p91
I1
sVdjm5ey0
p92
I1
sVdk2mgi5
p93
I1
sVd9v0sd1
p94
I1
sVdbg99pe
p95
I3
sVd9amfci
p96
I1
sVde1ejk7
p97
I1
sVd3na71g
p98
I2
sVdikd2ro
p99
I1
sVdi1tzk0
p100
I1
sVda2crjb
p101
I2
sVdeaxbqi
p102
I1
sVczjnmgj
p103
I1
sVdk4gujt
p104
I2
sVcyt6bll
p105
I1
sVdajr89w
p106
I1
sVdfwv9v6
p107
I1
sVd3qh8km
p108
I1
sVd5k5ggr
p109
I1
sVdni1adb
p110
I1
sVd7t01wd
p111
I1
sVd4tqtlk
p112
I1
sVd9gxidj
p113
I1
sVdgjy303
p114
I1
sVczuxayq
p115
I2
sVd0fr0hv
p116
I1
sVdgqdbmd
p117
I1
sVczv1d2h
p118
I1
sVdq5sms9
p119
I1
sVd9hbvo8
p120
I1
sVd18tjbj
p121
I1
sVd84gw8x
p122
I1
sVdjwh98a
p123
I1
sVdbdqer5
p124
I1
sVd1515wa
p125
I1
sVd5yb45u
p126
I1
sVdco9zsm
p127
I1
sVdimhsfo
p128
I1
sVdcptme4
p129
I1
sVdj23nza
p130
I1
sVdrfup88
p131
I1
sVd9tpbil
p132
I1
sVd6jwtof
p133
I1
sVczdby0c
p134
I1
sVd33g46i
p135
I1
sVdbgtc2k
p136
I1
sVdge95e0
p137
I2
sVdhcalnm
p138
I1
sVdazokz9
p139
I1
sVd3rpx30
p140
I1
sVdom3ui6
p141
I1
sVd75lfdx
p142
I1
sVd2a7s98
p143
I1
sVd7yfi94
p144
I1
sVdibx88x
p145
I1
sVdbudenq
p146
I1
sVcyowfdy
p147
I1
sVczy4jjd
p148
I1
sVd4lzbx3
p149
I1
sVcyyyuy9
p150
I1
sVdi0occl
p151
I1
sVdcqqzpj
p152
I1
sVd3yfbxb
p153
I1
sVcypczks
p154
I1
sVdki8vum
p155
I1
sVddfe0yx
p156
I1
sVd018nkq
p157
I1
sVd1c3c2f
p158
I1
sVdevwdde
p159
I1
sVdd3vbsb
p160
I1
sVd15c0mu
p161
I1
sVd8hwy74
p162
I1
sVd7lanws
p163
I1
sVd373n9q
p164
I1
sVczfau9x
p165
I1
sVd743tkt
p166
I1
sVdhd5jkp
p167
I1
sVd9x0oy8
p168
I1
sVd0ms738
p169
I1
sVd3qa4gs
p170
I2
sVd18px9l
p171
I1
sVczirm84
p172
I1
sVdgxo4vd
p173
I1
sVdkdmmp7
p174
I1
sVdd0v9km
p175
I1
sVd0kmc6w
p176
I1
sVdhf40jb
p177
I1
sVd16d0vm
p178
I2
sVd32i8z7
p179
I1
sVdh5b0j9
p180
I1
sVd95yibc
p181
I1
sVdf52l1k
p182
I1
sVd5vi947
p183
I1
sVdmz95ow
p184
I1
sVczevntn
p185
I1
sVcz5885z
p186
I1
sVd65op9b
p187
I1
sVd9apiuf
p188
I1
sVdd3a70j
p189
I1
sVdj8vpyw
p190
I1
sVd15aqri
p191
I1
sVd0jks2g
p192
I1
sVdczy45o
p193
I1
sVd1mnu2x
p194
I1
sVdny0zpz
p195
I1
sVdd2ais0
p196
I1
sVdn0qoxv
p197
I2
sVdssmapx
p198
I1
sVcyrmxqt
p199
I1
sVd6p8e2h
p200
I1
sVd0jzr7e
p201
I1
sVd43rj8v
p202
I1
sVdpu1iby
p203
I1
sVds9ahkc
p204
I1
sVdbnnkjs
p205
I1
sVdctag68
p206
I1
sVd3h30ee
p207
I1
sVdfot0y1
p208
I1
sVd7afrsy
p209
I1
sVdqgpv8e
p210
I1
sVd6ozlxn
p211
I1
sVd06ifvz
p212
I1
sVdfyaeth
p213
I1
sVd9xurum
p214
I1
sVd1d2gap
p215
I1
sVd4uah25
p216
I1
sVdd3a4z1
p217
I1
sVd3hpzvd
p218
I1
sVd8jei58
p219
I1
sVd5xmfex
p220
I1
sVdmzlv63
p221
I1
sVd38gffr
p222
I1
sVd84fh6d
p223
I1
sVd4nkpl4
p224
I1
sVdbdp3k5
p225
I1
sVd1dsozz
p226
I1
sVd5gvp2o
p227
I1
sVd3e2p00
p228
I1
sVdb41fry
p229
I1
sVdn548ge
p230
I1
sVdte6r2f
p231
I1
sVcyvou51
p232
I1
sVdczbh8z
p233
I1
sVdkpjtnr
p234
I1
sVdd4uy9a
p235
I1
sVd80xucs
p236
I1
sVd7vp7b4
p237
I1
sVczlya21
p238
I1
sVcyoohb7
p239
I1
sVdeu24em
p240
I1
sVdnh6qa6
p241
I1
sVczxrjmi
p242
I1
sVdb7rdyq
p243
I1
sVd9pqfa7
p244
I1
sVdbg6uop
p245
I1
sVd0gy962
p246
I1
sVd6hm28s
p247
I1
sVdh7fhvq
p248
I1
sVd85rgt1
p249
I1
sVdebyzt6
p250
I1
sVddelrfu
p251
I1
sVdp042xc
p252
I1
sVd3mmwiq
p253
I1
sVd0am81x
p254
I1
sVdgf0oq9
p255
I1
sVd6aopjo
p256
I1
sVd670xpw
p257
I1
sVczfashb
p258
I1
sVd6i3brr
p259
I1
sVdbg2w1h
p260
I1
sVcyqvjdr
p261
I2
sVd0o6xdu
p262
I1
sVdqx2rfc
p263
I1
sVczcdxc5
p264
I1
sVdcoyr7x
p265
I1
sVczc4opz
p266
I1
sVd4mwvyk
p267
I1
sVcysohew
p268
I1
sVdb6tlem
p269
I1
sVdivetkb
p270
I1
sVdduvrck
p271
I1
sVd3bgobi
p272
I1
sVdi6c9z1
p273
I2
sVdmiycu2
p274
I1
sVd2k0yrp
p275
I1
sVdkdndt1
p276
I1
sVdit9ln6
p277
I1
sVd7iw0lp
p278
I1
sVdi7rhbd
p279
I1
sVdmr8d5p
p280
I1
sVczp427d
p281
I1
sVdbxrdbw
p282
I1
sVdow2m0e
p283
I1
sVdb3u9r4
p284
I1
sVd57ohmc
p285
I1
sVdbvqzns
p286
I1
sVdo5bl79
p287
I1
sVd7ooh3l
p288
I1
sVdpgxqt6
p289
I1
sVd2tl8zf
p290
I1
sVczqfrab
p291
I1
sVdc1dfrx
p292
I2
sVdfvruez
p293
I1
sVdh38ird
p294
I1
sVdoe0no3
p295
I1
sVczu7r0b
p296
I1
sVcyziaz2
p297
I1
sVdou0ibx
p298
I1
sVd7c1sex
p299
I1
sVdjx6gr6
p300
I1
sVcyu58f6
p301
I1
sVd3d5238
p302
I1
sVczugsjk
p303
I1
sVd7y96tg
p304
I1
sVdbeharc
p305
I1
sVd3n77sh
p306
I1
sVdddoaaq
p307
I1
sVd3enqkg
p308
I1
sVd67arbd
p309
I1
sVd0exgu9
p310
I1
sVd3uko75
p311
I1
sVdpuozqh
p312
I1
sVddgtcs9
p313
I1
sVd0ztgfd
p314
I1
sVd7k8bgc
p315
I1
sVd1v07kv
p316
I1
sVd2jrtio
p317
I1
sVd3hdrxb
p318
I1
sVczkvfog
p319
I1
sVczobcgw
p320
I1
sVdqobkkd
p321
I1
sVdawo3we
p322
I1
s.