(dp0
Vd0tp2zu
p1
I1
sVd1ajnoi
p2
I1
sVddvh6sy
p3
I1
sVdrn0ouv
p4
I1
sVddjwbkn
p5
I1
sVd5mgu9g
p6
I1
sVd58ga39
p7
I1
sVcylnctg
p8
I1
sVdctr145
p9
I1
sVdgi2jst
p10
I1
sVczmci97
p11
I1
sVd1anjkf
p12
I1
sVde1qtyr
p13
I1
sVdn7ppm3
p14
I1
sVdbvxsac
p15
I1
sVd0jh4t8
p16
I1
sVdgulr2w
p17
I1
sVdn8ooib
p18
I1
sVd4qrv0c
p19
I1
sVd78q8xk
p20
I1
sVdbhpi6x
p21
I1
sVdsvpay1
p22
I1
sVd5op1l2
p23
I2
sVd33aajg
p24
I1
sVd2gt07l
p25
I1
sVd1jxpaf
p26
I1
sVdawntv6
p27
I1
sVdbq77gy
p28
I1
sVdmr87ld
p29
I1
sVd1kjznf
p30
I1
sVdeltrks
p31
I1
sVdi729df
p32
I1
sVd4gbj9r
p33
I1
sVd79ltdd
p34
I1
sVd1tik84
p35
I1
sVd1o51dg
p36
I1
sVczds0ft
p37
I1
sVcyjfv5f
p38
I1
sVdiqmbla
p39
I1
sVdbobgho
p40
I1
sVd6m4igb
p41
I1
sVd2bdizd
p42
I1
sVd1w9jb1
p43
I1
sVd7hqb5c
p44
I1
sVdfl9i6u
p45
I1
s.