(dp0
Vczkqzco
p1
I1
sVd1taanl
p2
I1
sVdrcu4bi
p3
I1
sVd3c7wwx
p4
I1
sVd2ep5wh
p5
I1
sVd5xrdpt
p6
I3
sVdaawjbs
p7
I1
sVd9xiuc9
p8
I2
sVd8qb79b
p9
I4
sVd7l6ztc
p10
I1
sVdf927ah
p11
I1
sVdt89qt3
p12
I2
sVd9wmtqi
p13
I1
s.