(dp0
Vd040k2k
p1
I1
sVdenm9lb
p2
I1
sVd03chuo
p3
I1
sVddttp54
p4
I1
sVd8k82y3
p5
I1
sVd9i14q2
p6
I1
sVd7jaokx
p7
I2
sVczshlds
p8
I1
sVdg8u9ec
p9
I1
sVdg4jj3e
p10
I1
sVd405rxk
p11
I1
sVdaiqoln
p12
I1
sVd0hii9c
p13
I1
sVcz4wd9y
p14
I3
sVd7r30b6
p15
I1
sVdhjqivx
p16
I1
sVd8xsz1h
p17
I1
sVcyy2gmh
p18
I1
sVcyoz0ft
p19
I1
sVdqduusj
p20
I1
sVcyjd8l3
p21
I1
sVczhbpz5
p22
I1
sVd58eggh
p23
I1
sVdc4z7jo
p24
I1
sVdel85bp
p25
I1
sVd0dgn30
p26
I1
sVdjle2r9
p27
I1
sVcz5l8r6
p28
I1
sVd0mflh2
p29
I1
sVd85qwx9
p30
I1
sVdmiovsi
p31
I1
sVd79xph2
p32
I3
sVdea2b9t
p33
I2
sVdf0wp9g
p34
I1
sVdh8t82w
p35
I1
sVd8z85bg
p36
I1
sVcz1r1va
p37
I1
sVdd9xnwc
p38
I1
sVdaf1chg
p39
I1
sVd25bbia
p40
I1
sVdsbuhsc
p41
I1
sVd5cxbs6
p42
I1
sVdcfw31q
p43
I1
sVdjc1d83
p44
I1
sVd1x4l5p
p45
I1
sVd346988
p46
I1
sVdd3zk2h
p47
I1
sVdr1ekpt
p48
I1
sVdbvogb9
p49
I1
sVdco74l7
p50
I1
sVdbwn88b
p51
I1
sVd1rrb1d
p52
I1
sVdb7lzh1
p53
I1
sVdgs67bg
p54
I2
sVdpksgo6
p55
I1
sVdb24wr3
p56
I1
sVd8iy96d
p57
I1
sVd22yur0
p58
I1
sVd57l8ka
p59
I3
sVd59l7ox
p60
I1
sVcylhqfe
p61
I1
sVdgs3cnc
p62
I1
sVdr7hppr
p63
I1
sVd1syu0l
p64
I1
sVdoe7a7y
p65
I1
sVd6xn0fa
p66
I1
sVdqgj13c
p67
I1
sVd02qhbv
p68
I1
sVd9wdxe7
p69
I1
sVddw8l6p
p70
I1
sVd1bw8pk
p71
I1
sVczqcrf5
p72
I1
sVd9fdyz5
p73
I1
sVdho39tr
p74
I1
sVdagvd8q
p75
I3
sVd1l9x2x
p76
I1
sVd6sh356
p77
I1
sVd3y8zug
p78
I1
sVdcrdbzr
p79
I1
sVdkpbovt
p80
I1
sVdfp1z2d
p81
I1
sVd56ypk3
p82
I1
sVdepzu64
p83
I1
sVd2js3z5
p84
I2
sVdel7yo6
p85
I1
sVd4zw6gs
p86
I1
sVdayrxpz
p87
I1
sVd0x7nph
p88
I1
sVdgpbgm7
p89
I1
sVdhgarbl
p90
I1
sVddrenif
p91
I1
sVd1qmj97
p92
I1
sVdqwin6a
p93
I1
sVdd5juc5
p94
I1
sVdnyto9a
p95
I1
sVdasdh87
p96
I1
sVd5o6krk
p97
I1
sVdft1tv6
p98
I1
sVdiekb7h
p99
I1
sVcyml8m3
p100
I1
sVd20s68q
p101
I1
sVdn0wevv
p102
I2
sVcz1zbly
p103
I1
sVddoqdp0
p104
I1
sVcyiysmi
p105
I1
sVdbxu70v
p106
I1
sVd3hcxmm
p107
I1
sVdn3ztzs
p108
I2
sVd5g040f
p109
I1
sVdio7x3p
p110
I1
sVd2lksdm
p111
I1
sVd4mk1dk
p112
I1
s.