(dp0
Vd5lenp9
p1
I1
sVd8wjiam
p2
I1
sVdgi7fi9
p3
I1
sVd33udb7
p4
I1
sVdt0xueu
p5
I1
sVdt6hadt
p6
I1
sVczwzcu0
p7
I1
sVdcmdcc8
p8
I1
sVd9ccdav
p9
I1
sVczdisc4
p10
I1
sVcyxbqf3
p11
I1
sVczbduvj
p12
I1
sVd1rkv62
p13
I1
sVd6vr1iy
p14
I1
sVcyp92l7
p15
I1
sVcz1liz8
p16
I1
sVdnv4jtd
p17
I1
sVcza0hfc
p18
I1
sVded32to
p19
I1
sVcyoi4hh
p20
I1
sVdjske2k
p21
I1
sVdjmhyys
p22
I1
sVdjzifft
p23
I1
s.