(dp0
Vd36u39u
p1
I1
s.(dp0
Vdbxmbzl
p1
I1
sVd36u39u
p2
I1
s.(dp0
Vdceezqg
p1
I1
sVd36u39u
p2
I1
s.(dp0
Vdfrxlv8
p1
I1
sVd36u39u
p2
I1
s.(dp0
Vdnhprof
p1
I1
sVd36u39u
p2
I1
s.(dp0
Vdpsdxvp
p1
I1
sVd36u39u
p2
I1
s.