(dp0
Vdd92u1o
p1
I1
sVdfz37ls
p2
I1
sVd69h0bq
p3
I1
sVd0zbogi
p4
I1
sVd4sdw0v
p5
I1
sVd1o6fyk
p6
I1
sVdekhb9a
p7
I1
sVdexyx82
p8
I1
sVdexkt5w
p9
I4
sVd3d6yr5
p10
I2
sVd3au787
p11
I2
sVd9wdgw0
p12
I2
sVdio6fgc
p13
I2
sVda0jf31
p14
I1
sVdhh6hs4
p15
I1
sVd7xpebo
p16
I2
sVd8ompuo
p17
I2
sVdh2ewif
p18
I2
sVczqh0g7
p19
I1
sVd6q4n4a
p20
I1
sVdbt542e
p21
I1
sVczimvza
p22
I1
sVd0k6egh
p23
I1
sVd8gpjkx
p24
I1
sVdc7edy6
p25
I1
sVd4z3qno
p26
I3
sVd5s4plq
p27
I3
sVdcwpno7
p28
I1
sVczgw5yq
p29
I1
sVdn981lx
p30
I1
sVd0o4jwp
p31
I1
sVdb2q4wz
p32
I1
sVd8rrx5n
p33
I1
sVd2z72w6
p34
I1
sVdakvhxj
p35
I1
sVcziash3
p36
I1
sVd7e66b9
p37
I1
sVd6gpz5z
p38
I2
sVdhbghri
p39
I1
sVdenyh8u
p40
I1
sVdp47e3g
p41
I1
sVd67uh34
p42
I3
sVdam0h7i
p43
I1
sVdcrbgff
p44
I1
sVczs3gft
p45
I2
sVdhp2q5q
p46
I1
sVda5hqj2
p47
I1
sVdexl7jd
p48
I2
sVcystv09
p49
I1
sVd29uoqi
p50
I1
sVd4w51qv
p51
I1
sVden37kb
p52
I1
sVd58eggh
p53
I3
sVdhfmd9u
p54
I1
sVd4ndwkg
p55
I1
sVcziuxkl
p56
I1
sVdee3775
p57
I1
sVd19g7qc
p58
I1
sVda7z2x8
p59
I1
sVczewcav
p60
I2
sVd3fgfy5
p61
I1
sVddd006l
p62
I1
sVdidv8w7
p63
I1
sVdck5p9t
p64
I1
sVd8so9b4
p65
I1
sVdelyfat
p66
I2
sVdgalp9q
p67
I1
sVddcbt3e
p68
I1
sVdd8cxry
p69
I2
sVcywjw2a
p70
I1
sVdsb9pxx
p71
I1
sVd072dlz
p72
I1
sVdmqrrfu
p73
I1
sVd0bbwyu
p74
I1
sVd39uay5
p75
I1
sVda3nuzv
p76
I2
sVczz05oq
p77
I1
sVd9cpdjz
p78
I1
sVd5uwwtf
p79
I1
sVd90h0tr
p80
I1
sVdezzf18
p81
I1
sVd90mdvy
p82
I2
sVd3d0995
p83
I2
sVdk5go9q
p84
I7
sVd5ul881
p85
I1
sVdigulct
p86
I1
sVdbo2g38
p87
I2
sVdeatjke
p88
I1
sVd156ua5
p89
I1
sVdf9tvna
p90
I1
sVcyudsee
p91
I1
sVdeqy7ct
p92
I4
sVdhlthbz
p93
I1
sVdivydgg
p94
I1
sVd1fws5y
p95
I2
sVdbr0mnc
p96
I1
sVd03zjkt
p97
I1
sVdh17v7s
p98
I2
sVd08nvxk
p99
I1
sVdg8pfxy
p100
I1
sVddia9hg
p101
I1
sVd38z57l
p102
I1
sVd0zvpqa
p103
I1
sVdaitbd0
p104
I1
sVdizox69
p105
I7
sVdfxeyy6
p106
I1
sVdibfaq8
p107
I1
sVd0t7x0s
p108
I2
sVdnxy6bx
p109
I1
sVdeoif9k
p110
I1
sVdftkoqm
p111
I6
sVczre3wr
p112
I1
sVcz4gmib
p113
I1
sVdf6etnf
p114
I1
sVddghqwy
p115
I1
sVdi2rs74
p116
I1
sVd67l8wh
p117
I2
sVd29qxjk
p118
I2
sVd42b1m2
p119
I2
sVddyq4oj
p120
I1
sVdnlorag
p121
I1
sVd32mj8r
p122
I1
sVdsdsyc3
p123
I2
sVdccrrbo
p124
I1
sVcyjjvf2
p125
I1
sVd67tfzh
p126
I1
sVd3cc9fz
p127
I3
sVd14kfoz
p128
I2
sVdcx111v
p129
I1
sVdefbvy5
p130
I1
sVd2emahx
p131
I1
sVdd435dl
p132
I1
sVdddyt74
p133
I2
sVczojm1w
p134
I1
sVd0ylw1b
p135
I5
sVd8rhrzj
p136
I1
sVd24q2gl
p137
I1
sVd3cccd7
p138
I3
sVczxz0a1
p139
I1
sVd1gflpn
p140
I2
sVd67sbik
p141
I1
sVczalk32
p142
I2
sVd1a4mca
p143
I1
sVdmpriy4
p144
I2
sVdaas7i0
p145
I1
sVdfh5zwk
p146
I6
sVcyw8sq3
p147
I1
sVd9vtj50
p148
I2
sVd9921d6
p149
I1
sVdpb9w12
p150
I2
sVdcz4jrq
p151
I1
sVczkm80c
p152
I1
sVd0688mn
p153
I1
sVcza0wc4
p154
I1
sVde9brfd
p155
I1
sVdpqzjkv
p156
I4
sVd38wzm8
p157
I1
sVd4wk3sw
p158
I1
sVd8c1f7o
p159
I11
sVd1io33j
p160
I1
sVcztmg6q
p161
I1
sVd35txdl
p162
I1
sVdcrjwm3
p163
I6
sVd8aiplv
p164
I1
sVdink3r7
p165
I1
sVdepksa2
p166
I7
sVdinpi6e
p167
I1
sVd1ztkzr
p168
I4
sVd071d1k
p169
I1
sVdiof2ii
p170
I1
sVd17gbrt
p171
I2
sVdfngyoc
p172
I1
sVdj74sqy
p173
I1
sVd8s0j3a
p174
I1
sVdhg9mkk
p175
I1
sVdsfo8s9
p176
I1
sVd8yj51x
p177
I1
sVd2sbcwm
p178
I1
sVd90fjsy
p179
I1
sVdaztj77
p180
I1
sVdhlvn3i
p181
I2
sVd5w5nge
p182
I1
sVdf9ttro
p183
I2
sVd60s68b
p184
I1
sVd0smapu
p185
I1
sVd035025
p186
I1
sVdap87cy
p187
I1
sVd8pxgqf
p188
I3
sVdf6y6hx
p189
I1
sVd3minu5
p190
I2
sVdigtwvp
p191
I2
sVdkag5qn
p192
I1
sVd2n6gyp
p193
I1
sVdf6fhuh
p194
I3
sVd9z7t9q
p195
I1
sVd1thf49
p196
I2
sVd3lpzxt
p197
I1
sVdcm4ptf
p198
I1
sVd8m0wxs
p199
I1
sVddl986j
p200
I3
sVczpe2s3
p201
I1
sVdam77sv
p202
I2
sVdh9h32k
p203
I1
sVd02u6rk
p204
I2
sVdi2qc8x
p205
I1
sVde0req7
p206
I1
sVdeyf08t
p207
I1
sVdd8f5gt
p208
I1
sVd0yskno
p209
I3
sVdio5owe
p210
I1
sVda131w8
p211
I1
sVdioasyr
p212
I1
sVdipp9do
p213
I1
sVd9tr878
p214
I1
sVdpa0bjf
p215
I1
sVdn7sc1y
p216
I1
sVd0mtk1f
p217
I1
sVd0qavns
p218
I4
sVcynmma0
p219
I1
sVdcezwgd
p220
I1
sVd4unney
p221
I3
sVdhwyh6f
p222
I1
sVdpf4up4
p223
I1
sVd464c0b
p224
I1
sVczz1av0
p225
I2
sVd27t5h2
p226
I1
sVdai4dgc
p227
I1
sVd3fx0un
p228
I2
sVdazusht
p229
I4
sVdcpuplu
p230
I2
sVd1vw6ok
p231
I1
sVdfbldvo
p232
I1
sVd1txdyq
p233
I1
sVdha18vk
p234
I1
sVdbibi3g
p235
I1
sVd0u6ltg
p236
I1
sVd1inzl7
p237
I1
sVcyyzxj8
p238
I1
sVdfnh3nj
p239
I2
sVdfxc7lv
p240
I1
sVd0d819v
p241
I1
sVd85p05m
p242
I2
sVdi85chn
p243
I1
sVdb94txm
p244
I1
sVd315epn
p245
I4
sVdip2ejq
p246
I2
sVd5k9gkk
p247
I1
sVd1954j6
p248
I2
sVdbj3j8x
p249
I1
sVd0h4z3z
p250
I1
sVdckn6hc
p251
I1
sVd4ud73c
p252
I1
sVddumdgd
p253
I2
sVd0xn231
p254
I1
sVd9m2qnx
p255
I2
sVd2c9tk7
p256
I1
sVdrhm3eq
p257
I1
sVddxq3ep
p258
I1
sVdj2yvjp
p259
I1
sVdhln4bl
p260
I1
sVd27cvhp
p261
I3
sVdeo9yzi
p262
I3
sVd0yrvpj
p263
I1
sVdf4d704
p264
I1
sVdekiq5x
p265
I1
sVdg7kp47
p266
I1
sVd4a739b
p267
I2
sVdcoc4jd
p268
I1
sVd94rds8
p269
I1
sVdghe13e
p270
I4
sVdta5wm3
p271
I1
sVd67dylh
p272
I2
sVdiabijm
p273
I1
sVczz6b0b
p274
I1
sVdcz5ss2
p275
I2
sVdbz19hq
p276
I2
sVda29sx0
p277
I1
sVd935ynp
p278
I1
sVd8utmea
p279
I1
sVd9n3wgj
p280
I1
sVdcpu73v
p281
I1
sVd14qmms
p282
I1
sVd0rqapl
p283
I1
sVcylxooy
p284
I2
sVd2p4uj3
p285
I1
sVd4rfsl9
p286
I1
sVd1wk73j
p287
I1
sVdf6al0k
p288
I1
sVdk10pk1
p289
I1
sVd37a2vr
p290
I3
sVd071yy1
p291
I1
sVdiwoj3g
p292
I1
sVdizlubb
p293
I2
sVd2emkx0
p294
I1
sVd12kn50
p295
I1
sVcykfs4r
p296
I1
sVd5sysax
p297
I1
sVdigimsa
p298
I1
sVdc7emip
p299
I1
sVdkifpx0
p300
I4
sVdhmrc2g
p301
I1
sVd8zlkls
p302
I1
sVd0lns9b
p303
I2
sVd4dbejf
p304
I1
sVdfnj4io
p305
I1
sVdd7480m
p306
I1
sVdidm6m4
p307
I1
sVdg5eper
p308
I5
sVd102qov
p309
I1
sVd6pq1oc
p310
I1
sVd21jhrf
p311
I1
sVd2z0yjo
p312
I1
sVd18erlo
p313
I1
sVdaa6v8e
p314
I2
sVcz7ai28
p315
I1
sVdbiicln
p316
I1
sVdihey38
p317
I1
sVdt3hc4k
p318
I4
sVddrxy4q
p319
I2
sVddaol7z
p320
I2
sVdf4diee
p321
I4
sVd05kugt
p322
I1
sVdd6mbqx
p323
I1
sVcz3koxa
p324
I1
sVd9gqte0
p325
I2
sVd6b5ryh
p326
I2
sVcz4r64h
p327
I1
sVd739il4
p328
I1
sVd24cx80
p329
I4
sVd6p0tv5
p330
I1
sVd11zpc1
p331
I2
sVd315iq2
p332
I4
sVde6heb5
p333
I4
sVd3c1q5b
p334
I1
sVdehcqsj
p335
I1
sVdd7enwu
p336
I1
sVda1x4c0
p337
I2
sVd0wzg72
p338
I2
sVd07l1xr
p339
I1
sVczoi7bs
p340
I2
sVd5cvwy4
p341
I1
sVdf8ynsb
p342
I2
sVddpdn4c
p343
I1
sVczod1g3
p344
I1
sVddq1b39
p345
I1
sVcztrpxp
p346
I1
sVdjto2qq
p347
I1
sVdsb2flw
p348
I1
sVd2mxaqs
p349
I4
sVd1eeki4
p350
I1
sVd13pzpf
p351
I2
sVd5vxw84
p352
I1
sVd4n1e31
p353
I1
sVd81pna3
p354
I1
sVd15m85h
p355
I4
sVdnawmyh
p356
I1
sVdg9vi4w
p357
I1
sVd467r0v
p358
I2
sVd4lkpap
p359
I1
sVdaz7vtz
p360
I1
sVd02a70i
p361
I4
sVd9es6s5
p362
I1
sVdjznux4
p363
I1
sVd0zbwvp
p364
I1
sVdiokksh
p365
I1
sVczhkx1x
p366
I2
sVd5cwmmj
p367
I1
sVd2d3bjo
p368
I1
sVcyzhivo
p369
I1
sVd14jjc6
p370
I1
sVd4lj7ra
p371
I1
sVd9tgy2m
p372
I1
sVdc4e3ma
p373
I1
sVd2cd5au
p374
I1
sVda7fbz1
p375
I1
sVd8yx49c
p376
I1
sVd87jkae
p377
I1
sVdix24lp
p378
I2
sVda63txi
p379
I1
sVd312yvz
p380
I1
sVd0xbv1y
p381
I2
sVdjkfjt9
p382
I1
sVdelwuqc
p383
I1
sVdjvlgbj
p384
I3
sVddu3l8r
p385
I1
sVd5w8sd4
p386
I1
sVdeqd3ie
p387
I1
sVd65rbar
p388
I1
sVd3tqwii
p389
I1
sVd2snrrd
p390
I3
sVd2jjc4a
p391
I2
sVd3j3xth
p392
I1
sVd0wm1q1
p393
I1
sVdaz5uad
p394
I1
sVd39jvs6
p395
I2
sVd08mz2i
p396
I1
sVczjpm5p
p397
I1
sVczjpwug
p398
I1
sVd9x3p5i
p399
I1
sVd4zv67a
p400
I1
sVd95ukdv
p401
I1
sVd4c6v3g
p402
I1
sVczz5818
p403
I3
sVda99du0
p404
I1
sVdalg5zm
p405
I1
sVdkp3gf0
p406
I2
sVd00tt8h
p407
I1
sVd1ets1c
p408
I3
sVdip1rkd
p409
I3
sVdedkpw6
p410
I1
sVd9yz12h
p411
I1
sVczcp13d
p412
I1
sVczvew58
p413
I1
sVdjmvwz5
p414
I3
sVd9n3lgu
p415
I1
sVdilohop
p416
I2
sVd17iawj
p417
I2
sVdd54dog
p418
I1
sVd738yhn
p419
I1
sVddu4rl0
p420
I1
sVdfb0u5c
p421
I1
sVdri6gxc
p422
I1
sVdddz0gb
p423
I1
sVcyw83in
p424
I1
sVdam0ep9
p425
I1
sVcza5tf3
p426
I1
sVd4ysnp5
p427
I5
sVdimjpjp
p428
I3
sVd2lozag
p429
I1
sVdazhigz
p430
I1
sVdjc9p4k
p431
I2
sVdmtq8pu
p432
I3
sVdd3vypl
p433
I4
sVd0yeydd
p434
I3
sVdgeytk5
p435
I3
sVdtcqjwa
p436
I1
sVd7wfjy8
p437
I2
sVda1bbzo
p438
I1
sVdd6tfn8
p439
I3
sVczz3mua
p440
I3
sVddfm2nu
p441
I1
sVcywcfux
p442
I2
sVdnf376r
p443
I1
sVdhyqid6
p444
I1
sVd7we2b6
p445
I1
sVd18eoaq
p446
I3
sVczh8i0d
p447
I1
sVdderoo5
p448
I1
sVd311l4c
p449
I5
sVd0gx1uh
p450
I2
sVdcrt2rm
p451
I1
sVdfdtleb
p452
I1
sVd8fuy5o
p453
I1
sVdh0rqvj
p454
I1
sVdancxgj
p455
I1
sVd3oytma
p456
I2
sVdcz5bxd
p457
I1
sVderldib
p458
I1
sVd78mrgb
p459
I1
sVdcntapz
p460
I1
sVd534sgt
p461
I1
sVd2a2zb0
p462
I1
sVdbqnc8i
p463
I2
sVdd5xjxz
p464
I4
sVd1xk8t5
p465
I1
sVdeo0eg7
p466
I1
sVdc2qudp
p467
I1
sVdg0cd2v
p468
I2
sVczt099z
p469
I1
sVdbnsdxy
p470
I1
sVd9t9rom
p471
I1
sVdf6aq11
p472
I1
sVdrazocq
p473
I1
sVczs3coa
p474
I3
sVd78q8xk
p475
I2
sVd02ql2d
p476
I4
sVdntvg8u
p477
I2
sVdh4wds8
p478
I1
sVcys8rtz
p479
I1
sVdcsczua
p480
I2
sVd5n775d
p481
I1
sVdfgtmai
p482
I1
sVczamltp
p483
I1
sVdam2t5i
p484
I1
sVd2ls6wm
p485
I1
sVdfni5fu
p486
I1
sVd31l2ih
p487
I1
sVddv0ozg
p488
I2
sVd6hha33
p489
I1
sVd0y33oq
p490
I1
sVdggol6c
p491
I2
sVcyoj30r
p492
I1
sVdcu4nx0
p493
I1
sVdgeyuco
p494
I3
sVd22mjei
p495
I2
sVd5dsupr
p496
I2
sVdrb040b
p497
I1
sVdjg1vjr
p498
I1
sVd5n55jf
p499
I1
sVd9l1amd
p500
I1
sVdai99h6
p501
I1
sVdb5mcjd
p502
I1
sVdidlr01
p503
I1
sVdea4mce
p504
I1
sVdiv4e2c
p505
I1
sVdcsaze4
p506
I1
sVd0e52cm
p507
I1
sVdnzikd6
p508
I2
sVd1hm9ml
p509
I1
sVd71r08s
p510
I2
sVd42bdts
p511
I1
sVd5ygjfx
p512
I1
sVde6iibt
p513
I1
sVdd9kv3o
p514
I1
sVdam7vhr
p515
I1
sVdh0vhq2
p516
I1
sVczz69u3
p517
I1
sVdgng8kn
p518
I2
sVd7eagl4
p519
I1
sVdfvynlo
p520
I1
sVdem7pmm
p521
I1
sVdd6yb8n
p522
I1
sVdinixif
p523
I1
sVdtfu8zk
p524
I1
sVd4orhhc
p525
I1
sVdmslbkc
p526
I1
sVd3w98cq
p527
I1
sVd4hoggm
p528
I1
sVd23u14j
p529
I2
sVd076l3d
p530
I1
sVczqg8t2
p531
I2
sVdf3d5rr
p532
I1
sVczjw555
p533
I1
sVd1wemvd
p534
I2
sVdo9vdi7
p535
I1
sVdizogot
p536
I2
sVdnvzybw
p537
I1
sVdip0zhe
p538
I1
sVdeqwmg1
p539
I1
sVdasbw5v
p540
I1
sVd3112py
p541
I1
sVdctacr6
p542
I3
sVczc3lh3
p543
I2
sVdambpxy
p544
I1
sVd2uboa7
p545
I1
sVd4jpcfn
p546
I1
sVdaddrly
p547
I2
sVd55qng0
p548
I1
sVda2me3s
p549
I1
sVdgkl4x6
p550
I1
sVdaj9r9t
p551
I1
sVczx9n4o
p552
I2
sVd2ihqqw
p553
I4
sVd4q2o55
p554
I1
sVczciqxd
p555
I3
sVdbicvmd
p556
I2
sVd2o9904
p557
I1
sVd5aycp1
p558
I2
sVd3hj6wg
p559
I1
sVd01a4za
p560
I1
sVd1pn1mi
p561
I1
sVd0ypb4n
p562
I1
sVdhn1n7n
p563
I1
sVdnz4m8v
p564
I2
sVd4xov0y
p565
I1
sVdmt8lqj
p566
I1
sVder116f
p567
I1
sVd0neup2
p568
I2
sVdgnnbww
p569
I1
sVd1q7wc0
p570
I1
sVd4q6hrp
p571
I2
sVd6ctlk4
p572
I1
sVdqgyvqe
p573
I2
sVd475xym
p574
I1
sVd27ijva
p575
I1
sVd0atf6k
p576
I2
sVdqd5dh9
p577
I1
sVdejm1ez
p578
I2
sVcz4dthr
p579
I1
sVd045awi
p580
I1
sVd54s44f
p581
I2
sVczi1zbp
p582
I1
sVd3i5n5w
p583
I3
sVcysf0dv
p584
I1
sVdflpfk6
p585
I2
sVd7qmnwv
p586
I1
sVczywacs
p587
I1
sVdd34ryb
p588
I2
sVdio8003
p589
I2
sVdbbot74
p590
I1
sVdssgmud
p591
I1
sVczwz9bj
p592
I2
sVdjuu3dx
p593
I1
sVd5upa3d
p594
I3
sVd9t41gk
p595
I1
sVd48b7pp
p596
I1
sVdddqq5e
p597
I2
sVddi9fne
p598
I1
sVd08orgl
p599
I2
sVd8frhm8
p600
I1
sVd75eve9
p601
I1
sVdghgr5k
p602
I2
sVdk3fja3
p603
I1
sVd0774ud
p604
I4
sVdi521kj
p605
I1
sVdfng6na
p606
I1
sVdmq7q2n
p607
I1
sVd853kq9
p608
I2
sVczpcqip
p609
I2
sVdd1aihl
p610
I1
sVd8c0zan
p611
I3
sVczl6mjr
p612
I1
sVcyzhpvi
p613
I1
sVczoa629
p614
I2
sVd9wd29r
p615
I1
sVd0gl7o7
p616
I1
sVd3cj8ic
p617
I1
sVda1ax06
p618
I1
sVde07e99
p619
I2
sVda7s30b
p620
I1
sVdels6z7
p621
I1
sVd21iwyx
p622
I1
sVdfu5o5o
p623
I2
sVcysook6
p624
I1
sVdavrbpy
p625
I1
sVd08mw76
p626
I2
sVdio4kem
p627
I2
sVdhgarbl
p628
I1
sVdck6iwc
p629
I1
sVd1d2gap
p630
I1
sVdivorvp
p631
I1
sVdi4p324
p632
I2
sVd5w9dwe
p633
I1
sVdbq1xqu
p634
I1
sVd38o4vc
p635
I1
sVd9uangr
p636
I1
sVddpw6k5
p637
I1
sVdnjjr9j
p638
I1
sVd90r2q6
p639
I1
sVdf9rap3
p640
I1
sVczovyp9
p641
I2
sVd1z87sd
p642
I1
sVdgjtb3m
p643
I1
sVdi9e9jk
p644
I1
sVd3w10zh
p645
I1
sVd4uklo9
p646
I1
sVd57qwn9
p647
I3
sVdryjap1
p648
I1
sVd7yho6r
p649
I1
sVdj8nop5
p650
I1
sVdrbzvk2
p651
I1
sVd9x2yld
p652
I1
sVdh9rilv
p653
I1
sVd5zi27h
p654
I1
sVdh9cf3i
p655
I1
sVdi2ri9n
p656
I3
sVdeuzhy8
p657
I1
sVd1fxpdh
p658
I1
sVdgo1rbk
p659
I1
sVd0upupt
p660
I1
sVddg5n0a
p661
I2
sVdexlpp4
p662
I1
sVd8umxrf
p663
I2
sVdewem35
p664
I1
sVd1952bp
p665
I1
sVd10gr2f
p666
I1
sVdjegplq
p667
I3
sVd39y9nm
p668
I1
sVd5w3no8
p669
I3
sVde1s1bw
p670
I1
sVdfniy1p
p671
I1
sVd5rmur4
p672
I1
sVddjttff
p673
I1
sVdamb7py
p674
I1
sVdddyvw9
p675
I1
sVddv8gbg
p676
I1
sVdb5z0d2
p677
I1
sVd07733j
p678
I1
sVd22pw8n
p679
I1
sVcyt8ikf
p680
I1
sVd3rytmx
p681
I1
sVdi5wyjs
p682
I1
sVdt8ktll
p683
I1
sVdfdtoli
p684
I1
sVcz5m06f
p685
I1
sVdd5lt69
p686
I1
sVdeq52j8
p687
I1
sVdczcj57
p688
I1
sVdhlhmvt
p689
I1
sVdaz3sde
p690
I1
sVd90gz8p
p691
I2
sVdix19kf
p692
I2
sVdd8cylh
p693
I4
sVdh24edq
p694
I1
sVd07lo4h
p695
I1
sVdbgsxqd
p696
I1
sVd9zs3ur
p697
I1
sVczfa3u1
p698
I1
sVd5y1vms
p699
I2
sVd87x2dq
p700
I1
sVd9vlw9v
p701
I1
sVczjg5jo
p702
I1
sVcywoqxw
p703
I1
sVcyt0us7
p704
I2
sVddi0c5g
p705
I1
sVdalw9il
p706
I2
sVdcukbg1
p707
I1
sVd9a5rqe
p708
I1
sVdfh5n2t
p709
I1
sVd2l93y6
p710
I1
sVdinpki6
p711
I1
sVd7kcq2y
p712
I1
sVczokpki
p713
I2
sVddnypct
p714
I4
sVd1kakj0
p715
I1
sVd9uijgo
p716
I7
sVd30otsz
p717
I1
sVd09ml4x
p718
I3
sVd84leln
p719
I1
sVdh9y05c
p720
I1
sVd2ah8u6
p721
I1
sVd7dzx9r
p722
I2
sVdgf4gkv
p723
I3
sVd0i6lks
p724
I3
sVdddr7cd
p725
I1
sVd84asv5
p726
I1
sVddtpool
p727
I1
sVd9zt7hc
p728
I1
sVd53egq6
p729
I9
sVd6q4acm
p730
I1
sVczz39e7
p731
I7
sVdeqdgnv
p732
I5
sVdml5zdh
p733
I2
sVd0wrxjo
p734
I1
sVd309fby
p735
I1
sVd2ehwit
p736
I1
sVd03mt0o
p737
I1
sVdd6x5lm
p738
I2
sVd040lll
p739
I1
sVddwnlbi
p740
I1
sVcyrebfx
p741
I1
sVd4klfr7
p742
I1
sVcz35hqu
p743
I1
sVdgt6d51
p744
I1
sVd2yxe11
p745
I1
sVdrn4fuz
p746
I1
sVd3p4oxx
p747
I1
sVczi4d2o
p748
I1
sVdqnq20t
p749
I1
sVczkuign
p750
I1
sVcysl0ol
p751
I2
sVdhcgj8u
p752
I1
sVd0i8fbq
p753
I4
sVd3a0cik
p754
I1
sVd37f8w0
p755
I1
sVcytxda7
p756
I1
sVd3ku5si
p757
I1
sVdbqbdtb
p758
I1
sVczuowze
p759
I1
sVd0b3pge
p760
I1
sVd1dsvpq
p761
I2
sVd1cqf2d
p762
I2
sVdhlo5yw
p763
I5
sVdin11tv
p764
I1
sVd38l6vs
p765
I1
sVdfwm4vl
p766
I1
sVde59nu1
p767
I2
sVdco20g5
p768
I1
sVd5vufov
p769
I1
sVd0csp53
p770
I3
sVdms84th
p771
I2
sVd9v0sd1
p772
I1
sVdsmwekw
p773
I1
sVd9uxq4k
p774
I2
sVdd555ax
p775
I3
sVd9bpvov
p776
I1
sVde4qxy9
p777
I1
sVd99pjx9
p778
I1
sVddgegba
p779
I1
sVdf7q791
p780
I2
sVd1aerhb
p781
I1
sVd6pv6me
p782
I1
sVd2wpcfl
p783
I1
sVcyv9b0t
p784
I1
sVcylit8j
p785
I1
sVd67q7hq
p786
I1
sVd3m4i3s
p787
I3
sVdhlwr45
p788
I1
sVd21rdc8
p789
I1
sVdnaxpbq
p790
I1
sVdjuifqz
p791
I1
sVd3kus60
p792
I1
sVdhlulj0
p793
I1
sVczbto6t
p794
I1
sVdg7c9ov
p795
I1
sVdf0x6m3
p796
I1
sVdaebphg
p797
I1
sVdd5d7pl
p798
I1
sVdcxfqcv
p799
I1
sVd2gw60h
p800
I1
sVdd2qlxh
p801
I1
sVdoarl8k
p802
I3
sVczffxo3
p803
I1
sVdfwajrt
p804
I4
sVdjtdwns
p805
I1
sVcymn4ij
p806
I1
sVddspcs1
p807
I2
sVd75hiif
p808
I1
sVd90xhw8
p809
I1
sVdcw83um
p810
I1
sVdi2wpg6
p811
I1
sVdcy94hv
p812
I1
sVdcu9psw
p813
I1
sVcz3s3lh
p814
I1
sVdcht4tv
p815
I1
sVcymcydb
p816
I1
sVdf7e333
p817
I3
sVdt4avz3
p818
I1
sVd6gg3d8
p819
I1
sVdp4oeg8
p820
I1
sVcyonrkv
p821
I1
sVdeug0gz
p822
I1
sVd2becjg
p823
I1
sVd43y5p1
p824
I1
sVdhlkdxx
p825
I1
sVdf1w524
p826
I1
sVd9wga71
p827
I1
sVdjng6g9
p828
I1
sVdfni0ey
p829
I1
sVcyn7a2d
p830
I1
sVd47x7o6
p831
I1
sVdencid8
p832
I2
sVd38rw7e
p833
I1
sVdddmomn
p834
I2
sVczoveau
p835
I1
sVdjtfmvc
p836
I4
sVd21iv5j
p837
I1
sVdfnhbda
p838
I1
sVdfzn5lo
p839
I1
sVdf6awn0
p840
I2
sVdgs4aqq
p841
I1
sVczw2wxs
p842
I1
sVczkk1zb
p843
I2
sVd738pei
p844
I1
sVd95wqc1
p845
I1
sVcyv93aa
p846
I1
sVde5uxgs
p847
I1
sVdb1ep63
p848
I2
sVdhgklcg
p849
I2
sVd9wcu68
p850
I1
sVdhcgmv8
p851
I1
sVdd3av4v
p852
I1
sVdh193kq
p853
I4
sVcz0hvtv
p854
I1
sVdrta8g8
p855
I1
sVdf79air
p856
I1
sVd3hnp25
p857
I1
sVdq3t54j
p858
I1
sVdjqxs1q
p859
I1
sVddhaa3h
p860
I1
sVd23gdcy
p861
I1
sVd5cckd1
p862
I1
sVcyyim6x
p863
I1
sVdflq9yo
p864
I1
sVdbp972e
p865
I2
sVdd2ml5i
p866
I1
sVd1d5y48
p867
I1
sVdhyraij
p868
I1
sVd02y96h
p869
I1
sVdhllc3s
p870
I1
sVd057pvy
p871
I3
sVd7tt4p6
p872
I1
sVdbqlt59
p873
I1
sVdfxewn8
p874
I1
sVd07y4mh
p875
I1
sVd6rzmuw
p876
I2
sVcz5d9ze
p877
I1
sVd9jq5y9
p878
I1
sVdbqohy9
p879
I1
sVd71lnf9
p880
I1
sVdfxevt0
p881
I1
sVdjimga5
p882
I1
sVdmv5g81
p883
I1
sVdhohc2t
p884
I1
sVd61w4az
p885
I1
sVd3t1hfj
p886
I1
sVczc0u6t
p887
I1
sVdgomlp5
p888
I2
sVd5jpnt1
p889
I1
sVczewecz
p890
I1
sVdtd78mq
p891
I1
sVdagj5xf
p892
I1
sVdnkxwk3
p893
I2
sVdfqer5k
p894
I1
sVdam9ok5
p895
I2
sVdjoq340
p896
I2
sVddum1ek
p897
I1
sVd3ppunh
p898
I1
sVdizjuo2
p899
I2
sVcz1lxm3
p900
I2
sVddnz1qp
p901
I1
sVdduoij6
p902
I1
sVdchrx1n
p903
I1
sVdgpyc02
p904
I1
sVdog4sgx
p905
I2
sVd6w0hyu
p906
I2
sVd449fep
p907
I1
sVdg0jln7
p908
I1
sVd4gzl1q
p909
I1
sVdaanl2e
p910
I1
sVdaek6uz
p911
I1
sVd86u55m
p912
I1
sVda7ntvg
p913
I8
sVde2li2p
p914
I1
sVdaupce2
p915
I1
sVd9hljnr
p916
I1
sVd0ov3m9
p917
I1
sVd6gqz70
p918
I1
sVd4m3yr0
p919
I1
sVdeqtnah
p920
I1
sVd7jwn4l
p921
I1
sVczjcllu
p922
I2
sVd074fcz
p923
I1
sVd9ube2u
p924
I2
sVdjqzkid
p925
I1
sVdcc09cc
p926
I2
sVczm3rlh
p927
I5
sVdjn4g15
p928
I1
sVda7swcs
p929
I1
s.