(dp0
Vd2qs3cf
p1
I5
sVd4bgvev
p2
I1
sVdp7nylv
p3
I1
sVd285etm
p4
I1
sVddtqwm7
p5
I1
sVd0ukfvr
p6
I1
sVd1jhb9e
p7
I2
sVdgjiill
p8
I2
sVdehvc4e
p9
I1
sVdcvj4v7
p10
I1
sVdppg4tz
p11
I1
sVd78brfe
p12
I1
sVd3kyku7
p13
I2
sVdehvgia
p14
I2
sVd7a53g9
p15
I1
sVd7wpcgv
p16
I5
sVdhhauew
p17
I1
sVdc5jqqw
p18
I1
sVdq1ilwu
p19
I1
sVd5suqix
p20
I1
sVd28ls3j
p21
I1
sVd88m3g1
p22
I2
sVcz6gpud
p23
I2
sVd83nbri
p24
I1
sVd1pml7n
p25
I1
sVd2qs3j1
p26
I1
sVd1p05wv
p27
I4
sVdoxizvd
p28
I1
sVd4bgpi1
p29
I1
sVdac4bpx
p30
I2
sVd1p0a61
p31
I1
sVd7a66jv
p32
I1
sVdfp2bhl
p33
I2
sVdeo1681
p34
I3
sVdmmcdj2
p35
I1
sVd28g3q8
p36
I1
sVd4b4snb
p37
I1
sVddev8ko
p38
I1
sVdiejlhg
p39
I1
sVdamallp
p40
I1
sVddiuzms
p41
I2
sVdjy7r2l
p42
I1
sVdeqb0wk
p43
I1
sVd02a2zd
p44
I1
sVdfp3cmk
p45
I1
sVdkfepgp
p46
I1
sVdhnf86t
p47
I1
sVd8c0qym
p48
I1
sVd1jh1k6
p49
I1
sVde9qmyn
p50
I2
s.