(dp0
Vczqa3lk
p1
I1
sVd1qo2bb
p2
I1
sVczdqnnc
p3
I1
sVd2tp737
p4
I1
sVd9kkkh8
p5
I1
sVddtxllv
p6
I1
sVdnc5nae
p7
I1
sVd3eonre
p8
I1
sVczd963a
p9
I1
sVcz6vi0v
p10
I1
sVd18aa6v
p11
I1
sVcyj4pat
p12
I1
sVdcb8cba
p13
I1
sVd7aoe45
p14
I1
sVd3ai80x
p15
I1
sVdgwtfnk
p16
I1
sVczi2kax
p17
I1
sVd35aeb1
p18
I1
sVdmvrf6n
p19
I1
sVd51kwg2
p20
I1
sVd3lkthi
p21
I1
sVdd4m1gw
p22
I1
sVd3jhhfz
p23
I1
sVdh1pfte
p24
I1
sVdsuo1sd
p25
I1
sVd6m2232
p26
I1
sVd0f488i
p27
I1
sVd21ova1
p28
I1
sVdaelgqy
p29
I1
sVdbu146o
p30
I1
sVd0waotk
p31
I1
sVdf37xf5
p32
I1
sVdnj63tc
p33
I1
sVdf91sd7
p34
I1
sVd9mmya2
p35
I1
sVdhko1kz
p36
I1
sVd4ibrjl
p37
I1
sVdp58uab
p38
I1
sVde3w7wi
p39
I1
sVdg5yo4w
p40
I1
sVdcqmd9u
p41
I1
sVdfwrpau
p42
I1
sVde5vg79
p43
I1
sVdiy1zq3
p44
I1
sVdbo1at6
p45
I1
sVdinfkqs
p46
I1
sVcynf8yu
p47
I1
sVdecbxll
p48
I1
sVdh11tdw
p49
I1
sVczyqtt1
p50
I1
sVdit68vb
p51
I1
sVd6pk8gn
p52
I1
sVdbkwf8x
p53
I1
sVdcyhvik
p54
I1
sVddeq1z1
p55
I1
sVdb8dzh1
p56
I1
sVde8x7l4
p57
I1
sVd9gz8kr
p58
I1
sVd39p39t
p59
I1
sVdgvx30i
p60
I1
sVd5bq1vj
p61
I1
sVd8rhrzj
p62
I1
sVdetkdru
p63
I1
sVd9ulbrh
p64
I1
sVd008b7g
p65
I1
sVdpg10mi
p66
I1
sVd16tsfy
p67
I1
sVdmza9u4
p68
I2
sVd8an1a1
p69
I1
sVcypsu7b
p70
I1
sVd6kwnvu
p71
I1
sVd13bdea
p72
I1
sVdos31yj
p73
I1
sVdsqh1i5
p74
I1
sVdkpl8ya
p75
I1
sVd8c1f7o
p76
I1
sVdcrjwm3
p77
I1
sVcymbkov
p78
I1
sVd7xgp4d
p79
I1
sVczhorj8
p80
I1
sVdexqpxw
p81
I1
sVdthnwdu
p82
I1
sVdgouhay
p83
I1
sVd9a1xol
p84
I1
sVd7bcvk2
p85
I1
sVcytr9xx
p86
I1
sVcze4t8f
p87
I1
sVdbkjxgc
p88
I1
sVd8m0wxs
p89
I1
sVd0y58ym
p90
I1
sVd5pdhht
p91
I1
sVczfr167
p92
I1
sVdt2jarf
p93
I1
sVdfr59ow
p94
I1
sVdo460d7
p95
I1
sVdf6y747
p96
I1
sVcyzmnv2
p97
I1
sVczr0mah
p98
I1
sVder0sro
p99
I1
sVd7l2jli
p100
I1
sVdkxlcgh
p101
I1
sVd4wkahv
p102
I1
sVdn51q6z
p103
I1
sVdf6ewp6
p104
I1
sVdn8gaqz
p105
I1
sVczdxqyg
p106
I1
sVdmmny5u
p107
I1
sVddmbt5y
p108
I1
sVd15owzs
p109
I1
sVdj9jqtp
p110
I1
sVdc8pw70
p111
I1
sVdcyocts
p112
I1
sVd9hggdl
p113
I1
sVdh4z586
p114
I1
sVczzemam
p115
I1
sVcyps2t0
p116
I1
sVdplyfgd
p117
I1
sVdmz9ex0
p118
I1
sVdhvb1z3
p119
I1
sVd5rtixh
p120
I1
sVd6c06j8
p121
I1
sVd2ov6uv
p122
I1
sVds8ytwt
p123
I1
sVd0tra2o
p124
I1
sVdf9ccs8
p125
I1
sVd38nu3e
p126
I1
sVd09x5ec
p127
I1
sVdihoajm
p128
I1
sVd1r12mi
p129
I1
sVd0s8x3b
p130
I1
sVdao54kn
p131
I1
sVdr7y2bh
p132
I1
sVdfgs89z
p133
I1
sVdo5axtc
p134
I1
sVdnaek9j
p135
I1
sVdk0e1ns
p136
I1
sVd7x800u
p137
I1
sVda4e1ni
p138
I1
sVd7dm6z9
p139
I1
sVddcc59c
p140
I1
sVdhopyzv
p141
I1
sVdhnx39y
p142
I1
sVdd3mr2v
p143
I1
sVd4atirq
p144
I1
sVdcbkgh3
p145
I1
sVdobe5is
p146
I1
sVd6u4ym5
p147
I1
sVd08fg37
p148
I1
sVd1q10wh
p149
I1
sVdssgozg
p150
I1
sVddsza0o
p151
I1
sVdicp425
p152
I1
sVd2y33wn
p153
I1
sVcykebmy
p154
I1
sVdfwsd0u
p155
I1
sVdrs1sy8
p156
I1
sVdbyxt1q
p157
I1
sVddsr52s
p158
I1
sVdbkd4y6
p159
I1
sVdp1z2qd
p160
I1
sVdb5mksg
p161
I1
sVczhsweo
p162
I1
sVd9hmkfs
p163
I1
sVdk0x48q
p164
I1
sVd00j64w
p165
I1
sVcz028xh
p166
I1
sVdg0h7jr
p167
I1
sVcyth451
p168
I1
sVd6zjf4h
p169
I1
sVdo8qewv
p170
I2
sVddgtcs9
p171
I1
sVdpjpmfk
p172
I1
sVde50qqo
p173
I1
sVd8yd50p
p174
I1
sVd8237jj
p175
I1
sVdt4i7gi
p176
I1
sVdae5yli
p177
I1
sVdfx2673
p178
I1
sVdeuesk9
p179
I1
sVdo9qf9v
p180
I1
sVcz8ajit
p181
I1
sVdileak0
p182
I1
sVd03aftw
p183
I1
sVdgnnp1h
p184
I1
sVd23nkvz
p185
I1
sVd2amajr
p186
I1
sVd6g4yvr
p187
I1
sVdminb63
p188
I1
sVcz2y2ju
p189
I1
sVdch5m5r
p190
I1
sVdeysdw0
p191
I1
sVdbq77gy
p192
I2
sVdepoul3
p193
I1
sVdfa0870
p194
I1
sVd9de3pz
p195
I1
sVdck0zmg
p196
I1
sVdpxv1zz
p197
I1
sVddyn776
p198
I1
sVd59tq51
p199
I1
sVdfue8kh
p200
I1
sVdmsnnxg
p201
I1
sVd4trr98
p202
I1
sVdeaikdc
p203
I1
sVdkjk3jn
p204
I1
sVdgkdxzl
p205
I1
sVd2cw440
p206
I1
sVd3r1ykv
p207
I1
sVdjbb2e8
p208
I1
sVd17zfyn
p209
I1
sVdqudtch
p210
I1
sVdf38m7c
p211
I1
sVd3h0lb0
p212
I2
sVdbxgb0q
p213
I2
sVddwhhst
p214
I1
sVd18ytuj
p215
I1
sVdh7xuu7
p216
I1
sVdkp33y1
p217
I1
sVdbc4gqp
p218
I1
sVd08oaph
p219
I1
sVdi8nsk0
p220
I1
sVdblxt1f
p221
I1
sVd13nolp
p222
I1
sVd0yy19x
p223
I1
sVd0mi0kg
p224
I1
sVcywvae0
p225
I1
sVda1mrlz
p226
I1
sVd8pzq7j
p227
I1
sVd63fsv4
p228
I1
sVdihg51u
p229
I1
sVdfbnzql
p230
I1
sVdbojjcm
p231
I1
sVdmeu0em
p232
I1
sVd9xc0l1
p233
I1
sVdimhz9b
p234
I1
sVd1apcns
p235
I1
sVdoheadi
p236
I1
sVd8nykol
p237
I1
sVd9q6j94
p238
I1
sVdfmy422
p239
I1
sVdbig6bd
p240
I1
sVd1c8y9n
p241
I1
sVczwexb4
p242
I1
sVdisrvez
p243
I1
sVdplmj82
p244
I1
sVdo46h42
p245
I1
sVdhy3iyi
p246
I1
sVdbw8r8t
p247
I1
sVde2fx01
p248
I1
sVd1vai6r
p249
I1
sVd2dbfnn
p250
I1
sVd6wq9v2
p251
I2
sVd8du5n2
p252
I1
sVcz0lqiv
p253
I1
sVdcy25wv
p254
I1
sVddrwlpl
p255
I1
sVdn6t7t0
p256
I1
sVdec12oj
p257
I1
sVd4i0lvy
p258
I1
sVdczwhyg
p259
I1
sVdsbhsa7
p260
I1
sVd9lzlkd
p261
I1
sVd32n7v2
p262
I1
sVdjhdmvs
p263
I1
sVd87utp1
p264
I1
sVdc4m9l3
p265
I1
sVdda4123
p266
I1
sVd1x7j43
p267
I1
sVd2y8itt
p268
I1
sVdh3mhfi
p269
I1
sVdgnigmj
p270
I1
sVd2yysya
p271
I1
sVd5vro87
p272
I1
sVd4662cf
p273
I1
sVd5mm75m
p274
I1
sVdhslbby
p275
I1
sVdcn6qpi
p276
I1
sVd105myi
p277
I1
sVdgfh4py
p278
I1
sVd0rosc6
p279
I1
sVdijeiy7
p280
I1
sVd6rodo2
p281
I1
sVdrkmhq4
p282
I1
sVdkez9aj
p283
I1
sVd40bxru
p284
I1
sVdg25pza
p285
I1
sVdob9cct
p286
I1
sVdf1vie7
p287
I1
sVddn58n7
p288
I1
sVdkm3srh
p289
I1
sVd2bztbs
p290
I1
sVdi2bucg
p291
I1
sVczknlrf
p292
I1
sVdermyul
p293
I1
sVdfx9jdg
p294
I1
sVd7e7d1a
p295
I1
sVd2ebpoi
p296
I1
sVd0dg87a
p297
I1
sVdb2vcjj
p298
I1
sVd6gbkmw
p299
I1
sVdiy39bo
p300
I1
sVdfox3ig
p301
I1
sVdswc06g
p302
I1
sVd1n1qy9
p303
I1
sVdgs8fsl
p304
I1
sVd10g437
p305
I1
sVdbdv1mt
p306
I1
sVczw0rjr
p307
I1
sVdjfxydn
p308
I1
sVdfmqw73
p309
I1
sVd2u0c7f
p310
I1
sVdn8yk5q
p311
I1
sVdo6p9ag
p312
I1
sVdidfoy4
p313
I1
sVdrf9feb
p314
I1
sVdsvjiev
p315
I2
sVdbr8nbi
p316
I1
sVdhdaxra
p317
I1
sVd81y7hg
p318
I1
sVdoeabno
p319
I1
sVd462c35
p320
I1
sVdchkfna
p321
I1
sVdaka64b
p322
I1
sVdo5wpot
p323
I1
sVdovkyxc
p324
I1
sVdf1t2qo
p325
I1
sVdr1zlqt
p326
I1
sVd79phzp
p327
I1
sVd1pc6kt
p328
I1
sVdfom9kx
p329
I2
sVczpr8rj
p330
I2
sVdo12s04
p331
I1
sVd6ytpuz
p332
I1
sVcym0bul
p333
I1
sVd6a6asp
p334
I1
sVd020jqg
p335
I1
sVda3r89m
p336
I2
sVdcknokd
p337
I1
sVd5uri36
p338
I1
sVcyozvkr
p339
I1
sVczslfmd
p340
I1
sVczo66p8
p341
I1
sVcyv7vn5
p342
I1
sVd6en15n
p343
I1
sVdh7ewvi
p344
I1
sVdfxivla
p345
I1
sVde1epch
p346
I1
sVd68usfx
p347
I1
sVdhdl8va
p348
I1
sVd0bgp0j
p349
I1
sVd82ztpx
p350
I1
sVcz7d7ln
p351
I1
sVddpyt5d
p352
I1
sVdho9ofo
p353
I1
sVczabxum
p354
I1
sVdkf5ret
p355
I1
sVdfufffr
p356
I1
sVdg81lif
p357
I1
sVdihau6o
p358
I1
sVdck5evg
p359
I1
sVdbxjdac
p360
I1
sVd060sbm
p361
I1
sVdd904c0
p362
I1
sVd8lvtq0
p363
I1
sVdpsa5rz
p364
I1
sVcz2c0py
p365
I4
sVdkv1hmi
p366
I1
sVdencvnq
p367
I1
sVd2c0b3i
p368
I1
sVdkx7x75
p369
I1
sVd4d0f8b
p370
I1
sVdp2oq4z
p371
I1
sVdsxi5l2
p372
I1
sVdfi39k3
p373
I1
sVd9ecbqf
p374
I1
sVdsjazid
p375
I2
sVdd62ojh
p376
I1
sVd81gqns
p377
I1
sVcytpqqi
p378
I1
sVdd40h6g
p379
I1
sVd51srtt
p380
I1
sVdacnwij
p381
I1
sVcz90o9y
p382
I1
sVd0j3jxy
p383
I1
sVd2c1bgi
p384
I1
sVdjgbk39
p385
I1
sVdi5xcv5
p386
I1
sVd3ase21
p387
I1
sVddf8kgr
p388
I1
sVdjdzimu
p389
I1
sVd9hjcta
p390
I1
sVd6pdopa
p391
I1
sVd6nx0ww
p392
I1
sVdh5n9aa
p393
I1
sVczae984
p394
I1
sVdri6gxc
p395
I1
sVdk15nqd
p396
I1
sVd7re6us
p397
I1
s.