(dp0
Vdmz9kjp
p1
I1
sVdn4vxvj
p2
I1
sVd0o1jqi
p3
I1
sVczk6sxr
p4
I1
sVd6dooto
p5
I1
sVd2fwz3r
p6
I1
sVd2qo4i1
p7
I1
sVda3ypr7
p8
I1
sVd9t8ii2
p9
I1
sVd5u2wih
p10
I1
sVdnbalh2
p11
I1
sVd0j7dtf
p12
I1
sVdeahm3i
p13
I1
sVdokoak9
p14
I1
sVd2023a7
p15
I1
sVcz05853
p16
I2
sVdoe9k2k
p17
I1
sVd48cob7
p18
I1
sVddp2di0
p19
I2
sVd5v5ta9
p20
I1
sVd5bj3x9
p21
I1
sVddwe10d
p22
I1
sVd2mil98
p23
I1
sVd7rfsft
p24
I1
sVdgzoy8x
p25
I1
sVczk0ku0
p26
I1
sVdnxsdye
p27
I1
sVd50g7xo
p28
I1
sVdcbj9tf
p29
I1
sVdntkavh
p30
I1
sVczxeyc4
p31
I1
sVcyr3uit
p32
I2
sVdam5a90
p33
I1
sVdc99j2h
p34
I1
sVdkk7ov3
p35
I1
sVdf5l37s
p36
I2
sVd7jzw5i
p37
I1
sVczm0rbc
p38
I3
sVd36ydjh
p39
I1
sVd5ioouz
p40
I1
sVczy64tb
p41
I1
sVd216xnd
p42
I1
sVdj054e1
p43
I1
sVdg2e03m
p44
I1
sVdjm9e4e
p45
I1
sVczju9qx
p46
I1
sVdnbj23o
p47
I1
sVd65ziao
p48
I3
sVd5yhkvp
p49
I1
sVdi6wfu8
p50
I1
sVderhlkl
p51
I1
sVd6wrfxb
p52
I3
sVdb5ojfh
p53
I1
sVd4tvvmj
p54
I1
sVd5p1w6q
p55
I1
sVd0614j0
p56
I1
sVdsqh4e9
p57
I1
sVdjn0au3
p58
I1
sVdfbdi97
p59
I1
sVdj2g9ay
p60
I1
sVdd8dvf5
p61
I1
sVdi96m9w
p62
I1
sVdd96qis
p63
I1
sVd20gtjr
p64
I1
sVd1k27ra
p65
I1
sVdp1bnvr
p66
I1
sVdeqw8n0
p67
I1
sVdeu3ams
p68
I1
sVdab0nsl
p69
I1
sVdftjlxi
p70
I1
sVddhijwr
p71
I1
sVcz36wdd
p72
I2
sVd2x7sm9
p73
I1
sVd5m7kql
p74
I1
sVcz87b3c
p75
I1
s.