(dp0
Vdt4l9si
p1
I1
sVdetxpja
p2
I3
sVd0xk86i
p3
I1
sVcz6q62m
p4
I3
sVd7jaokx
p5
I1
sVcz4vfkd
p6
I1
sVddl76ga
p7
I1
sVd0x6eku
p8
I2
sVdhwnhr1
p9
I1
sVd3cc9fz
p10
I1
sVczwj6b4
p11
I1
sVd52jte3
p12
I1
sVd2ejkas
p13
I1
sVd7qzvod
p14
I3
sVcysx0ti
p15
I1
sVdhkrjo1
p16
I3
sVd1dp0dh
p17
I3
sVdphhqmw
p18
I1
sVd097y6f
p19
I1
sVd9mnepj
p20
I3
sVd1rv5wj
p21
I1
sVdtbgo6k
p22
I2
sVddpxqdq
p23
I2
sVdg0samu
p24
I1
sVcyp5sgw
p25
I1
sVd94hgzp
p26
I1
sVd8lomi3
p27
I1
sVczw9oi6
p28
I1
sVd7pa5ib
p29
I1
sVdndett9
p30
I1
sVdfawcn1
p31
I1
sVdshayng
p32
I1
sVdkfp1xc
p33
I1
sVd6ls91c
p34
I1
sVdav3qrs
p35
I1
sVdca6nqs
p36
I1
sVd45qv1p
p37
I2
sVd8e1tcb
p38
I1
sVd561ai2
p39
I1
sVdn0ebaz
p40
I1
sVdi951hw
p41
I1
sVdsnedyr
p42
I1
sVdho8m3a
p43
I1
sVd30t5wl
p44
I1
sVdoaqyyn
p45
I1
sVd480rhk
p46
I1
sVcz5907y
p47
I1
sVdb555bv
p48
I2
sVczm6vxk
p49
I1
sVd7cjlnb
p50
I1
sVd5zx5cd
p51
I2
sVczbgr6u
p52
I1
sVddmnok8
p53
I1
sVd1jjtnu
p54
I1
sVdftkoqm
p55
I2
sVdn6qgxw
p56
I2
sVddt9dsv
p57
I1
sVd28y8pj
p58
I1
sVdjo7x7h
p59
I1
sVd50j30p
p60
I1
sVd6jf01w
p61
I2
sVddgyb12
p62
I1
sVdfug1hl
p63
I1
sVd5un002
p64
I1
sVd9z65ag
p65
I1
sVd893ugx
p66
I1
sVdqn41g8
p67
I1
sVd1qy8bf
p68
I1
sVdbesqw8
p69
I1
sVd27ikep
p70
I1
sVddg8lqh
p71
I1
sVddrkuk4
p72
I1
sVd3b55ru
p73
I1
sVdkyg808
p74
I1
sVd2d7w28
p75
I1
sVd1z6y8h
p76
I1
sVd1vgbd2
p77
I1
sVd12mm6f
p78
I1
sVd19i53z
p79
I1
sVddss82e
p80
I1
sVd3g3bxb
p81
I1
sVddcyhqw
p82
I1
sVd0afe8g
p83
I1
sVczkywnx
p84
I1
sVd7tldur
p85
I1
sVdf35nqh
p86
I1
sVd0lnpdg
p87
I1
sVdmmu2ui
p88
I1
sVdkm2exm
p89
I1
sVdimo1im
p90
I1
sVd2g73w5
p91
I1
sVdhm9lqx
p92
I1
sVd7wdy1x
p93
I1
sVdg93tiu
p94
I1
sVcz0iv39
p95
I1
sVdolm374
p96
I2
sVd9d8fse
p97
I1
sVdfthh30
p98
I1
sVdici3tk
p99
I1
sVdt6eo2r
p100
I1
sVd40d1le
p101
I1
sVdofz824
p102
I3
sVdbuxoq4
p103
I1
sVd3ncajw
p104
I2
sVddktme0
p105
I1
sVdd0izh9
p106
I1
sVd2sxc45
p107
I1
sVdeq70mr
p108
I1
sVdc4bkgy
p109
I1
sVd3u53x4
p110
I1
sVda4g2bj
p111
I1
sVd1zusqx
p112
I1
sVd83w46h
p113
I4
sVcz3xffu
p114
I1
sVdmx5jwx
p115
I1
sVdibp92f
p116
I1
sVdssfpt5
p117
I1
sVd1qgffm
p118
I1
sVdjtldwy
p119
I1
sVd25krfi
p120
I1
sVdivredh
p121
I1
sVd7njzko
p122
I1
sVd5wjzxd
p123
I1
sVd5fvin5
p124
I1
sVdejjfmj
p125
I1
sVczp6dwj
p126
I1
sVdbqrm4p
p127
I2
sVd80w5g3
p128
I1
sVd3bk0dn
p129
I1
sVczeao1a
p130
I1
sVd5v0epo
p131
I2
sVdn038l5
p132
I2
sVd13l481
p133
I1
sVd1zp3gt
p134
I2
sVd5hy4i6
p135
I1
sVd01py03
p136
I1
sVd0gdg2b
p137
I1
sVd948add
p138
I1
sVdautg9y
p139
I1
sVdb06vkf
p140
I1
sVd2p4uj3
p141
I1
sVddavr9n
p142
I2
sVdb5bt2y
p143
I1
sVd2ml6m4
p144
I1
sVcz555sk
p145
I1
sVdgyxco5
p146
I1
sVdb904lu
p147
I2
sVdglxqdb
p148
I4
sVd2ow6in
p149
I1
sVd505g9s
p150
I2
sVdavvzkv
p151
I1
sVd9r08wp
p152
I1
sVdpxi8x4
p153
I1
sVdi4ec25
p154
I1
sVd7mic8h
p155
I2
sVdhynxz1
p156
I3
sVdp36g4n
p157
I1
sVd7v75x0
p158
I1
sVdo9qzkp
p159
I5
sVdrzxzsp
p160
I1
sVdhgas18
p161
I2
sVd3c1q5b
p162
I2
sVdhn5uec
p163
I1
sVddvk3n2
p164
I3
sVdd4kt5k
p165
I1
sVd21rqdj
p166
I1
sVd0my9iw
p167
I1
sVds4z8xb
p168
I1
sVdjsj5bj
p169
I1
sVcylhy5t
p170
I1
sVd8bami7
p171
I2
sVdhsjuig
p172
I1
sVd0ka5rx
p173
I2
sVcz3sq66
p174
I1
sVd92e5iz
p175
I3
sVd897ffq
p176
I1
sVdbmjjss
p177
I1
sVd0np7xb
p178
I1
sVdhsswfq
p179
I1
sVdqps8y0
p180
I2
sVd22ob4g
p181
I2
sVd9cydw9
p182
I1
sVcz5aiux
p183
I1
sVdfa7u20
p184
I1
sVdi26dgl
p185
I1
sVdg0z7h2
p186
I1
sVdmpvn6m
p187
I1
sVdnm47z5
p188
I1
sVd24icqv
p189
I1
sVd4xusej
p190
I1
sVd50iskv
p191
I1
sVdhqulyr
p192
I1
sVd5s4km5
p193
I1
sVdnyjve9
p194
I1
sVd8p5eun
p195
I1
sVd1j72io
p196
I1
sVd171ray
p197
I1
sVd906ly1
p198
I1
sVd9t5guu
p199
I2
sVd19n41s
p200
I3
sVd87wxh5
p201
I1
sVdbh40ej
p202
I1
sVdfu50w5
p203
I2
sVd5qt7br
p204
I1
sVdokv1ql
p205
I3
sVdj3y6jq
p206
I1
sVdfb8weg
p207
I1
sVd1o3k1c
p208
I1
sVd7q8n5o
p209
I1
sVczcxwov
p210
I1
sVd2d7izt
p211
I2
sVdggt8xp
p212
I1
sVcyqtm9h
p213
I1
sVdkjld4z
p214
I1
sVd44rsva
p215
I2
sVdnoh1pz
p216
I2
sVd2hj8n3
p217
I1
sVdae96i3
p218
I4
sVdmikp7s
p219
I1
sVdmew0am
p220
I2
sVd8sawy8
p221
I2
sVdhqdas1
p222
I1
sVdknwo8c
p223
I2
sVd6c1sr3
p224
I1
sVd0t4x2q
p225
I4
sVddguhx0
p226
I1
sVczugy6g
p227
I1
sVd7u3mld
p228
I1
sVd4avs7y
p229
I1
sVd1k0ztg
p230
I1
sVd0cnply
p231
I3
sVdetvcoh
p232
I2
sVdgxehn4
p233
I1
sVd10j4ym
p234
I2
sVdpytbzt
p235
I1
sVday50h5
p236
I1
sVd073m5a
p237
I1
sVdcpnjsd
p238
I1
sVdgx3xle
p239
I1
sVdhdrazj
p240
I1
sVczrk2um
p241
I1
sVd52zdyq
p242
I1
sVczdelbe
p243
I1
sVdpplqbx
p244
I1
sVd1jeskg
p245
I1
sVdc2qudp
p246
I4
sVd9bd90d
p247
I2
sVcyw0oa3
p248
I1
sVdskn9ir
p249
I1
sVd5nlplq
p250
I1
sVdiofzc3
p251
I1
sVd51k19h
p252
I1
sVcyvbv7b
p253
I2
sVd8ip9gy
p254
I1
sVdivgllk
p255
I1
sVd1gfixx
p256
I1
sVcz4rvig
p257
I1
sVd63lgt2
p258
I2
sVd19gjiv
p259
I2
sVdeawsmu
p260
I1
sVde4b0m6
p261
I1
sVd7f9vly
p262
I1
sVdcmhd4e
p263
I1
sVdbay0fj
p264
I1
sVd05z796
p265
I1
sVd32btyh
p266
I2
sVdddt4ug
p267
I1
sVdbwjcw9
p268
I1
sVdc0er2x
p269
I1
sVd9483oz
p270
I1
sVd7ylyz5
p271
I1
sVd87cjo6
p272
I1
sVdpc6159
p273
I1
sVdi9dsc3
p274
I3
sVd1v5yzg
p275
I1
sVdplijoc
p276
I1
sVd74dvs6
p277
I1
sVd26r5dp
p278
I1
sVd3ya5lf
p279
I1
sVdbgcnz2
p280
I2
sVdgzme2g
p281
I1
sVczb30q8
p282
I1
sVdaxjgtv
p283
I2
sVd6nhbs9
p284
I1
sVdb650ce
p285
I2
sVd2ifoas
p286
I2
sVdkm3k78
p287
I1
sVdhz5f6m
p288
I1
sVd9yjats
p289
I1
sVdpqds5s
p290
I1
sVd83r5m9
p291
I1
sVdn2fxz5
p292
I2
sVd964b0k
p293
I1
sVds356qk
p294
I2
sVczn9tvz
p295
I1
sVd71pxvk
p296
I1
sVdonwq2o
p297
I1
sVd4ycj2d
p298
I1
sVdkrzbtv
p299
I1
sVdnopdzg
p300
I1
sVd1l7a9f
p301
I1
sVdfx10y8
p302
I4
sVd9molf1
p303
I1
sVcza0zdc
p304
I1
sVd4ei0zn
p305
I1
sVdae90vh
p306
I1
sVd7u0ev6
p307
I1
sVd9tohii
p308
I1
sVd7genii
p309
I1
sVd9viyad
p310
I2
sVdbkwjj2
p311
I1
sVdan1za1
p312
I1
sVd6hn92l
p313
I1
sVcz1x24w
p314
I2
sVdbe6uek
p315
I2
sVdc8ojbw
p316
I1
sVd2a2o5h
p317
I1
sVdelde1r
p318
I1
sVdkzm9b5
p319
I1
sVdbcfon8
p320
I1
sVd2u120o
p321
I1
sVdqwm0wb
p322
I1
sVd2jqfhb
p323
I1
sVdj6ijb1
p324
I1
sVczhffkz
p325
I1
sVd02oj2h
p326
I1
sVdi521kj
p327
I2
sVdgkou1k
p328
I1
sVdoc4fo5
p329
I1
sVd7y1a1s
p330
I1
sVdde0bsk
p331
I1
sVdbcjjoy
p332
I1
sVdpmqkve
p333
I1
sVdmj3gpt
p334
I1
sVcz7mdhw
p335
I1
sVd7xt4pt
p336
I4
sVdcvqqxc
p337
I1
sVd4mss9d
p338
I1
sVdb7qstk
p339
I1
sVd24nt2q
p340
I1
sVczitc3o
p341
I1
sVd2bl26v
p342
I1
sVdor0fct
p343
I1
sVdkldckf
p344
I1
sVd337dzd
p345
I1
sVd4c1uva
p346
I1
sVds28slh
p347
I2
sVcyz6sgf
p348
I1
sVd38cevf
p349
I1
sVd8h4mem
p350
I1
sVd8ovcdj
p351
I1
sVds008j8
p352
I2
sVd330f8l
p353
I1
sVd6s8pai
p354
I2
sVdd3w0xx
p355
I3
sVdar1ri3
p356
I5
sVdo5qkao
p357
I1
sVdhrpt5z
p358
I1
sVdhjhc6n
p359
I1
sVdgcb721
p360
I2
sVdjx8ahi
p361
I1
sVd05aff3
p362
I1
sVd5tg154
p363
I1
sVdp3l2nd
p364
I1
sVdgfdl5q
p365
I1
sVdhn8nuo
p366
I1
sVdntll6c
p367
I5
sVdpfs81m
p368
I2
sVdt6zlul
p369
I1
sVczf35oe
p370
I1
sVd30sxos
p371
I1
sVd5ywpl8
p372
I1
sVd3j5xet
p373
I1
sVda2itnn
p374
I1
sVd2aqpiy
p375
I2
sVd5meoob
p376
I1
sVdb07kxq
p377
I1
sVcykf4ht
p378
I1
sVdb3o9ys
p379
I1
sVcyqxd6p
p380
I1
sVdqxisbe
p381
I1
sVdijpcyr
p382
I4
sVd0qe26l
p383
I1
sVd8dhkia
p384
I1
sVd7n2q6b
p385
I1
sVdqe1wcy
p386
I1
sVd596izv
p387
I2
sVd9j9u5b
p388
I1
sVd2r89hm
p389
I1
sVd0ly6cd
p390
I1
sVdcxp94u
p391
I1
sVd7gys1i
p392
I1
sVd1rmb3t
p393
I2
sVdot2e9c
p394
I1
sVd8wcp40
p395
I1
sVdasarw7
p396
I1
sVds9sz7t
p397
I1
sVd2kk7a3
p398
I1
sVdpziii8
p399
I1
sVd17big2
p400
I1
sVdn6zzl2
p401
I1
sVdddfntw
p402
I1
sVd3rjnmh
p403
I1
sVdjgs9fi
p404
I1
sVcz4371i
p405
I1
sVd060olf
p406
I1
sVdayzn7s
p407
I1
sVd5m64nr
p408
I1
sVd9wrljz
p409
I1
sVcyhykpc
p410
I1
sVczmddwp
p411
I1
sVdctzzys
p412
I1
sVdhfyrsf
p413
I1
sVdfuo3wk
p414
I1
sVd3k1qp1
p415
I1
sVdh0lkdo
p416
I1
sVdh2muym
p417
I1
sVdjmkh5s
p418
I1
sVdcamwli
p419
I2
sVdj23nza
p420
I1
sVdg9e5r7
p421
I1
sVd939nvp
p422
I2
sVdic8ejn
p423
I1
sVdaa7m4t
p424
I1
sVd7ksn0q
p425
I1
sVd6d74ys
p426
I1
sVd0y4aww
p427
I1
sVdg5uufr
p428
I2
sVd24zysm
p429
I2
sVczjha70
p430
I1
sVdbnwf6k
p431
I1
sVd690pkc
p432
I1
sVdn73kw2
p433
I2
sVdgq44si
p434
I1
sVda6724l
p435
I2
sVd2vzq08
p436
I1
sVd27ezr8
p437
I1
sVdk6tejp
p438
I2
sVdb41gz0
p439
I1
sVdiht4kh
p440
I1
sVd3ik4nq
p441
I1
sVd5f9wn4
p442
I1
sVd2f3uvu
p443
I1
sVdnuktp6
p444
I1
sVd2lw6vw
p445
I1
sVczw2wxs
p446
I1
sVdjevfsq
p447
I1
sVd6ahiyx
p448
I1
sVd8m6mtx
p449
I1
sVdd52r0i
p450
I1
sVd5ivj5x
p451
I1
sVd0dw65b
p452
I1
sVd6bj86u
p453
I1
sVd10kd65
p454
I1
sVdqvsomn
p455
I1
sVd9c2leb
p456
I1
sVdbwphnr
p457
I1
sVd3odrw3
p458
I2
sVd54lnc0
p459
I1
sVdnqzt2r
p460
I1
sVdk161e8
p461
I2
sVdfh6heu
p462
I6
sVd5hnt8h
p463
I1
sVdde8w20
p464
I1
sVdfuujp5
p465
I1
sVcyphje6
p466
I1
sVd2mt5el
p467
I1
sVdj2t7qc
p468
I1
sVd1s2g9x
p469
I1
sVd7l8u2q
p470
I1
sVdd3dwsl
p471
I1
sVczjyymv
p472
I1
sVdnq6iv1
p473
I4
sVd0lntqk
p474
I1
sVdk2lj9o
p475
I3
sVdgjzem3
p476
I1
sVd2x78yd
p477
I2
sVd72vd0y
p478
I1
sVda3256v
p479
I1
sVdk3g53s
p480
I1
sVd4gkvc1
p481
I1
sVd5sn7rm
p482
I1
sVdbtetha
p483
I1
sVddwyrmq
p484
I1
sVd8v1yux
p485
I1
sVdngxi91
p486
I1
sVd6yepo7
p487
I1
sVdatxrqr
p488
I2
sVd3b9b1c
p489
I2
sVd3380bi
p490
I1
sVd0pxqqf
p491
I1
sVdglw4o4
p492
I1
sVdaklala
p493
I1
sVd2rdlfo
p494
I1
sVdbb1f9k
p495
I1
sVdh6zjaj
p496
I1
sVdhdtucq
p497
I1
sVd4qg38z
p498
I1
sVdh0lggu
p499
I1
sVd18zx00
p500
I1
sVdhkwaak
p501
I2
sVdgzpkxt
p502
I2
sVdd5lk1r
p503
I3
sVdmi1hq9
p504
I2
sVdt3dudu
p505
I1
sVdfl6ccg
p506
I4
sVd3qdylm
p507
I2
sVd1u582t
p508
I1
sVdgpbgm7
p509
I2
sVd9i61b3
p510
I1
sVdeounhf
p511
I1
sVcywvilf
p512
I2
sVdq2x6k8
p513
I2
sVdhv8f5f
p514
I2
sVd2xn2hn
p515
I1
sVd2f69co
p516
I1
sVd21s2t8
p517
I1
sVdr049ri
p518
I2
sVd97c9c7
p519
I1
sVd2i0m9u
p520
I2
sVd6hdqs3
p521
I1
sVdocdmyy
p522
I1
sVdjokq5p
p523
I1
sVdafkold
p524
I3
sVdqslvlw
p525
I1
sVds57nlu
p526
I1
sVdi4se41
p527
I1
sVd2pvdh9
p528
I1
sVd4l15ay
p529
I1
sVddy40pw
p530
I1
sVdb1uib4
p531
I2
sVddzwevm
p532
I1
sVd1qju5v
p533
I1
sVd46nlxe
p534
I1
sVd8fvgvm
p535
I4
sVdcsgrt1
p536
I1
sVcynb6p0
p537
I1
sVddx5tuq
p538
I1
sVdfnmch6
p539
I1
sVd2umknd
p540
I1
sVdh1x7sa
p541
I1
sVdro3azl
p542
I1
sVd27z9zn
p543
I1
sVdkydm5m
p544
I1
sVdbozjbm
p545
I1
sVdejaypn
p546
I1
sVczcjejq
p547
I1
sVdcxj2bf
p548
I1
sVdb4uoe6
p549
I1
sVdhixr0x
p550
I1
sVdakep05
p551
I1
sVdn1segz
p552
I1
sVdc0xxhq
p553
I1
sVdbgsrsn
p554
I1
sVd13v9m8
p555
I1
sVd9ce5z4
p556
I1
sVdeicod7
p557
I1
sVdn415rc
p558
I2
sVd56vcv1
p559
I1
sVcz9t16l
p560
I1
sVdimf1ln
p561
I1
sVcym3r4p
p562
I1
sVdjxu22k
p563
I2
sVdc1op5s
p564
I1
sVd85n2p8
p565
I2
sVcynz810
p566
I3
sVdka1ir0
p567
I1
sVddmbkyh
p568
I1
sVdhwm4v6
p569
I1
sVd0egque
p570
I1
sVdrymv82
p571
I1
sVdiab4ep
p572
I2
sVdkkfph1
p573
I2
sVd7jxa1g
p574
I1
sVdcksb24
p575
I1
sVdntmxg9
p576
I3
sVdjml9v3
p577
I1
sVdbki19t
p578
I1
sVd71z9sa
p579
I1
sVdf8lzal
p580
I1
sVd1a949l
p581
I1
sVd04bnxm
p582
I1
sVdd17rw5
p583
I2
sVdmrmp8g
p584
I3
sVdfwp0hd
p585
I1
sVd4rxejn
p586
I1
sVcz0ekk8
p587
I2
sVdi8cjk4
p588
I1
sVdeqtjz4
p589
I1
sVd6he8fq
p590
I2
sVd4z5051
p591
I1
sVdcoasd5
p592
I1
sVdj2wt4c
p593
I1
sVczolng2
p594
I2
sVdrz4aq1
p595
I1
sVd40ff4i
p596
I1
sVdgwje4q
p597
I5
sVd87qme3
p598
I1
sVd0mcb9l
p599
I1
sVdcbtljj
p600
I1
sVdms3wwv
p601
I3
sVd3kndug
p602
I1
sVczh2hvb
p603
I1
sVdi0d6tn
p604
I1
sVdjbl2jc
p605
I2
sVd8c2q5s
p606
I2
sVdgxg3c7
p607
I2
sVd6m9mio
p608
I2
sVdisnea2
p609
I1
sVd0jkknn
p610
I2
sVdjdqd2a
p611
I1
sVder0sro
p612
I1
sVd380ue5
p613
I1
sVcz6gblh
p614
I2
sVd050q5j
p615
I1
sVdafl3yc
p616
I1
sVd94dptn
p617
I1
sVd451rcs
p618
I1
sVczye6yo
p619
I1
sVdh28v6u
p620
I1
sVdhif894
p621
I1
sVdofagyp
p622
I1
sVdfb6105
p623
I3
sVd2stwrb
p624
I1
sVd5kjlqf
p625
I2
sVdg8gwo3
p626
I1
sVczhfe2i
p627
I1
sVdr8ycx1
p628
I2
sVd0s0ntz
p629
I1
sVd7kt1lt
p630
I1
sVd9pj5uy
p631
I1
sVd7s93lw
p632
I1
sVd9dfdgh
p633
I1
sVdpv7gl2
p634
I1
sVczamqce
p635
I1
sVdbsgu3m
p636
I1
sVd7oelr4
p637
I1
sVd94ngdz
p638
I1
sVdmiilfj
p639
I1
sVdcyga8a
p640
I1
sVd5ad763
p641
I3
sVd67n5h2
p642
I1
sVd35p19i
p643
I1
sVdff4l3e
p644
I2
sVd5asq71
p645
I1
sVczp6d3p
p646
I1
sVds2cykn
p647
I1
sVd7yfp1j
p648
I1
sVdc413ol
p649
I1
sVd7m3iyd
p650
I2
sVdmslmtq
p651
I1
sVd5pwaby
p652
I1
sVd38y76f
p653
I1
sVd73fmyc
p654
I1
sVdcvu21g
p655
I1
sVdipldne
p656
I1
sVcymibfg
p657
I1
sVd6y9fwc
p658
I1
sVdnu78ct
p659
I1
sVd3b2mtu
p660
I1
sVdg74szf
p661
I1
sVd2sli5i
p662
I1
sVdtfsx4b
p663
I1
sVd3wi40b
p664
I1
sVd9fz265
p665
I1
sVdt7ctqb
p666
I1
sVd03jn92
p667
I1
sVdjhxbmx
p668
I3
sVd6hq09j
p669
I2
sVdjwbfb8
p670
I1
sVd6hbx6h
p671
I2
sVd08fg37
p672
I1
sVddof1qo
p673
I1
sVdpmhtvb
p674
I1
sVdhgyfm5
p675
I1
sVd6c2eo8
p676
I1
sVdg4952y
p677
I1
sVddvehtz
p678
I1
sVd5dqxaz
p679
I1
sVdfty91k
p680
I1
sVcz0p5pj
p681
I1
sVd8onmzz
p682
I2
sVdr0lect
p683
I1
sVd3uign1
p684
I1
sVcys55td
p685
I1
sVczueeiz
p686
I1
sVd7yedfp
p687
I2
sVdrlxx1p
p688
I1
sVdojdz28
p689
I1
sVd1v7f4x
p690
I2
sVdr8qul0
p691
I1
sVd0d8sdi
p692
I4
sVd5qx9qa
p693
I2
sVd6uzjfu
p694
I1
sVdhbo1vm
p695
I1
sVdqtal7i
p696
I4
sVdkkn47q
p697
I1
sVd7d90xy
p698
I2
sVdiq4kvn
p699
I1
sVd2rcy6k
p700
I1
sVd1yawp6
p701
I1
sVd85nqwx
p702
I1
sVcyjg645
p703
I1
sVd7s5t2i
p704
I1
sVdg3mdxk
p705
I1
sVdmyfqye
p706
I1
sVdsmwuez
p707
I1
sVd6o4sdz
p708
I1
sVdc5iszo
p709
I1
sVdrmeeqe
p710
I1
sVdcu7os7
p711
I1
sVd37e91v
p712
I2
sVdetzob2
p713
I1
sVdhgh318
p714
I2
sVdkj0lt9
p715
I1
sVds02iw4
p716
I1
sVdaygpib
p717
I1
sVdg0erp4
p718
I1
sVd8vad64
p719
I1
sVd8oce93
p720
I1
sVd7v63nl
p721
I2
sVdjhqjm2
p722
I5
sVdbg4yun
p723
I1
sVdavxovj
p724
I4
sVdhon3e9
p725
I1
sVdfunbk6
p726
I1
sVdbqop7y
p727
I1
sVcyw0qcb
p728
I1
sVdbzsb7r
p729
I3
sVdkngb57
p730
I1
sVdfnixam
p731
I1
sVda6fsgk
p732
I1
sVd9jj14u
p733
I1
sVd9tg964
p734
I1
sVddt6tor
p735
I1
sVdeqjvqz
p736
I1
sVd832wis
p737
I1
sVcz8nh9g
p738
I1
sVd7hst5y
p739
I1
sVd5547xt
p740
I1
sVdp6luwy
p741
I1
sVdcoc1m2
p742
I1
sVcyi7vat
p743
I1
sVcywouxt
p744
I1
sVd6lhu4p
p745
I2
sVd6bop9w
p746
I2
sVdejp5c7
p747
I1
sVcz1q7pm
p748
I3
sVcym5cm6
p749
I1
sVczxbe7s
p750
I1
sVdidjjqk
p751
I1
sVdbxmjpl
p752
I1
sVdqrwkhm
p753
I2
sVddhao39
p754
I1
sVdfbrdjr
p755
I1
sVdpt8leb
p756
I1
sVdoqxwnr
p757
I1
sVddby5k1
p758
I3
sVczcdgcr
p759
I1
sVdmwzfse
p760
I2
sVdo1zbhr
p761
I2
sVd8avfy0
p762
I1
sVd3sjvlm
p763
I1
sVd7m3ssn
p764
I1
sVd9kqkyf
p765
I2
sVd6r74n4
p766
I2
sVd2my1ii
p767
I1
sVd1nudzx
p768
I1
sVd2mocf0
p769
I1
sVdkpx2uv
p770
I1
sVd2g9sc7
p771
I1
sVd1n4qm6
p772
I1
sVdmshf4b
p773
I1
sVcywqvmv
p774
I2
sVdkwq5gx
p775
I1
sVdr59aiu
p776
I1
sVd60878j
p777
I1
sVdam0txl
p778
I1
sVdqxds6c
p779
I1
sVdku3hq1
p780
I1
sVdfv6x7u
p781
I1
sVd15g97z
p782
I1
sVd5heigp
p783
I1
sVdj4uwaf
p784
I2
sVdjvbyrd
p785
I1
sVd7rf9pe
p786
I1
sVdgvzg28
p787
I1
sVdct3rgn
p788
I1
sVd4mazeo
p789
I1
sVdjsv63g
p790
I1
sVdjkaewp
p791
I1
sVcz28r6p
p792
I1
sVcyka2z1
p793
I3
sVdgkcgwt
p794
I1
sVddzlmw1
p795
I1
sVdcvtn1a
p796
I1
sVd1q2mk2
p797
I1
sVde2dxfd
p798
I1
sVd1n3327
p799
I1
sVd5x0g8y
p800
I1
sVd6hu0n9
p801
I1
sVd0juohs
p802
I3
sVd2awqve
p803
I2
sVdnm24ea
p804
I1
sVd4b4zco
p805
I1
sVd4m2712
p806
I1
sVd2aekre
p807
I1
sVdfxyvlt
p808
I1
sVd867sq6
p809
I1
sVdjd2ufw
p810
I2
sVddxfnyr
p811
I1
sVdbhzqeb
p812
I1
sVdck3zh4
p813
I1
sVdopxl0t
p814
I1
sVd15fnz6
p815
I1
sVd4n23mr
p816
I1
sVdbciwfd
p817
I1
sVdky6i42
p818
I1
sVd2eb3he
p819
I1
sVcz4tfej
p820
I1
sVdaitsvf
p821
I1
sVdessr5r
p822
I1
sVdbplrqr
p823
I1
sVdf16e14
p824
I3
sVd2yr855
p825
I4
sVdclb2h6
p826
I1
sVdax91g6
p827
I1
sVddfos8p
p828
I1
sVdcgtw4n
p829
I1
sVdbepjmo
p830
I2
sVda68o0a
p831
I1
sVdsw0joa
p832
I1
sVd2owtxf
p833
I2
sVd4pu9du
p834
I1
sVd77o1oi
p835
I1
sVd6qtlsz
p836
I2
sVdbkcphs
p837
I1
sVddpobp5
p838
I1
sVd4e0aju
p839
I1
sVdr6bwsp
p840
I1
sVd2bbvwn
p841
I1
sVdqrk2ky
p842
I4
sVd30foud
p843
I1
sVdkfsvn4
p844
I1
sVd5hnldx
p845
I1
sVd6ll990
p846
I1
sVdafa1li
p847
I1
sVdoihrsw
p848
I1
sVd24ymoq
p849
I1
sVd4vrx2l
p850
I1
sVdaoa0k7
p851
I1
sVdhbxxtf
p852
I1
sVd6053e4
p853
I1
sVdpq8ahz
p854
I1
sVcz39jse
p855
I1
sVddsoq96
p856
I3
sVdcqae29
p857
I1
sVdjwam81
p858
I1
sVd2hsxj2
p859
I1
sVdoeor5z
p860
I1
sVd7qtssb
p861
I1
sVd7m2p48
p862
I1
sVd0x3gp6
p863
I1
sVcz7e1rc
p864
I1
sVdbs6b2o
p865
I1
sVdo7uzsy
p866
I2
sVd4as0wu
p867
I1
sVcz7hj5q
p868
I1
sVd1wdjn5
p869
I1
sVdpu05xe
p870
I3
sVdsgkwzk
p871
I1
sVdkvvotl
p872
I1
sVd3tn9el
p873
I2
sVdqqj0ii
p874
I1
sVd4c5n6t
p875
I1
sVdo4xi1e
p876
I1
sVdirgz4d
p877
I1
sVdaxobao
p878
I2
sVd7c0put
p879
I1
sVdmpgi84
p880
I2
sVdk1cxvn
p881
I1
sVdgewu5z
p882
I1
sVdauzck5
p883
I1
sVdo1ih7o
p884
I1
sVdqszyz7
p885
I1
sVdmqhdmp
p886
I2
sVdoxc0n9
p887
I1
sVdhtvl76
p888
I1
sVd5t4tls
p889
I1
sVdr4hnqd
p890
I1
sVdf0gdxj
p891
I1
sVczr0fq2
p892
I1
sVdsbknv1
p893
I1
sVdka4w6q
p894
I1
sVd0b0b8u
p895
I1
sVd3tgn5a
p896
I2
sVd5qt3u9
p897
I3
sVd703dgm
p898
I1
sVdggsexy
p899
I1
sVdj5uo2x
p900
I1
sVcz7kocq
p901
I1
sVd9sovy4
p902
I1
sVderjmxv
p903
I4
sVd477h6k
p904
I1
sVd8stf4p
p905
I1
sVdf7rqsz
p906
I1
sVdk2mgi5
p907
I1
sVcyxmfno
p908
I1
sVddi1sup
p909
I1
sVd1zpv8o
p910
I2
sVd69rx28
p911
I1
sVd4ubx83
p912
I4
sVdnbkohm
p913
I1
sVdk2xqvl
p914
I1
sVda6xw0m
p915
I4
sVd9c615b
p916
I1
sVd27jaya
p917
I1
sVd6h4y75
p918
I1
sVdgt73z8
p919
I1
sVdpjoa96
p920
I1
sVdbxmq3e
p921
I1
sVd45ydev
p922
I1
sVd3y3afl
p923
I1
sVd4h1m4n
p924
I2
sVdeldenf
p925
I1
sVd91ledr
p926
I1
sVdtgsb0b
p927
I1
sVdo4my9n
p928
I1
sVd3ao9en
p929
I5
sVdjleig3
p930
I1
sVd6kcarx
p931
I2
sVda9laz2
p932
I1
sVczn4f1h
p933
I1
sVd6cbjz8
p934
I1
sVdj3vkzt
p935
I1
sVd7uj2js
p936
I1
sVdj2wgoj
p937
I2
sVdkx13ok
p938
I1
sVdmn00i1
p939
I1
sVdals9h6
p940
I1
sVd3kvhuc
p941
I1
sVczsx72t
p942
I1
sVd4b0hz9
p943
I1
sVdptox2m
p944
I1
sVdbrbzv8
p945
I1
sVd0s52vu
p946
I1
sVdnet8vb
p947
I1
sVd9evcjs
p948
I6
sVdiwzabo
p949
I1
sVd3197u8
p950
I2
sVd0q90zb
p951
I1
sVdfdeptp
p952
I1
sVd3hd3ux
p953
I2
sVdr2zz8r
p954
I1
sVdteq37c
p955
I1
sVd4iyvsf
p956
I1
sVd76fcb0
p957
I1
sVdghv8bo
p958
I1
sVd3sl1xk
p959
I3
sVd6omr2o
p960
I1
sVd3n9rxe
p961
I1
sVd0babhv
p962
I1
sVd2xegoc
p963
I2
sVdhjf7tt
p964
I2
sVdek1ow3
p965
I1
sVd1l8i2d
p966
I1
sVd0hmmyp
p967
I2
sVdfl2qrw
p968
I1
sVdfp04aj
p969
I1
sVd7gpk9l
p970
I1
sVde5fo07
p971
I1
sVdbtoua2
p972
I1
sVdmk13ps
p973
I7
sVd2nr6hi
p974
I1
sVdmnked2
p975
I1
sVd15eiq2
p976
I1
sVdn4ackt
p977
I1
sVdfw1v6q
p978
I1
sVdiecnd7
p979
I2
sVd9u435o
p980
I2
sVdbjv1om
p981
I1
sVd2r51w5
p982
I1
sVcz5iiof
p983
I1
sVd3db2mj
p984
I2
sVd96gldp
p985
I1
sVdshn305
p986
I1
sVd9bqfxu
p987
I1
sVd9najr6
p988
I1
sVd2p5e4k
p989
I1
sVd3sk0jv
p990
I1
sVd3gtigx
p991
I1
sVdn82osb
p992
I1
sVd3fiucm
p993
I1
sVdc31bzc
p994
I2
sVd9pa6j3
p995
I1
sVd3t2nqn
p996
I1
sVdnhw2zh
p997
I1
sVd51plxq
p998
I1
sVd0tjaip
p999
I2
sVdiueehn
p1000
I1
sVd1lf4jj
p1001
I2
sVd2sfqos
p1002
I1
sVd6bz3a0
p1003
I1
sVd212ynv
p1004
I3
sVd2c2ida
p1005
I1
sVd2f9s4x
p1006
I1
sVdbjo6yw
p1007
I1
sVdhtjl61
p1008
I1
sVd24d6je
p1009
I1
sVdg7079p
p1010
I1
sVd0pist8
p1011
I1
sVdmqzkjs
p1012
I1
sVde8ddr2
p1013
I2
sVczxt9jk
p1014
I1
sVd37us0y
p1015
I6
sVdtfk5yz
p1016
I1
sVdj1nb5z
p1017
I1
sVd89sile
p1018
I1
sVd1hoplg
p1019
I1
sVdgq8xei
p1020
I2
sVdc8rt9a
p1021
I1
sVd8e2xnr
p1022
I1
sVdac2bd7
p1023
I4
sVdcvdjs9
p1024
I2
sVdp9plu1
p1025
I1
sVdni3iox
p1026
I1
sVdg91d5a
p1027
I3
sVd0689ea
p1028
I1
sVdf8z2l9
p1029
I1
sVd1spur8
p1030
I1
sVdanun9u
p1031
I2
sVdc68uy0
p1032
I1
sVdpifgs8
p1033
I1
sVd2vi7mg
p1034
I1
sVdff52by
p1035
I2
sVdi84l9t
p1036
I1
sVcyypyo6
p1037
I1
sVd0xdas1
p1038
I1
sVd0x88ru
p1039
I1
sVd47ev83
p1040
I1
sVdbkwf8x
p1041
I1
sVdqfci4e
p1042
I2
sVd8uv100
p1043
I1
sVd8ylbtz
p1044
I1
sVdbkyvpq
p1045
I2
sVdcrau2v
p1046
I1
sVd5fn20l
p1047
I2
sVdsgcx1m
p1048
I1
sVddwqldw
p1049
I1
sVdbklqaf
p1050
I1
sVdg7srzw
p1051
I1
sVcz865n4
p1052
I1
sVdkwhole
p1053
I1
sVczn5efa
p1054
I1
sVdgxaiaz
p1055
I2
sVd1f4anb
p1056
I2
sVde51zn0
p1057
I1
sVd8jei58
p1058
I1
sVd1if5g1
p1059
I1
sVd6z7wzh
p1060
I1
sVd00vs3t
p1061
I1
sVdghipgy
p1062
I1
sVd7c7zqm
p1063
I2
sVda1cft0
p1064
I1
sVcyiw17w
p1065
I2
sVd3pghmy
p1066
I1
sVdmxw87y
p1067
I1
sVd6ktmce
p1068
I1
sVdethmrq
p1069
I2
sVcytjekb
p1070
I1
sVd68fjsd
p1071
I1
sVdhq1esv
p1072
I1
sVd9n1vto
p1073
I1
sVdg47q08
p1074
I1
sVczd5wgr
p1075
I1
sVcz12xqb
p1076
I1
sVdcrn16b
p1077
I1
sVcyyps6w
p1078
I1
sVdaza8if
p1079
I1
sVd9my16w
p1080
I1
sVdexdu8t
p1081
I1
sVdmfrnkb
p1082
I1
sVczkmusz
p1083
I1
sVd7y7nx6
p1084
I2
sVczc3jyi
p1085
I3
sVdgfa1w0
p1086
I1
sVdg89hzk
p1087
I1
sVdjx36sj
p1088
I2
sVdh5j5tw
p1089
I2
sVcyj0fx0
p1090
I2
sVd1wleta
p1091
I1
sVd6ln6vv
p1092
I2
sVdb3p7ep
p1093
I1
sVdc93da2
p1094
I2
sVcz0m9p9
p1095
I2
sVdnu93w3
p1096
I1
sVd2neliv
p1097
I2
sVdp7tiej
p1098
I2
sVddso235
p1099
I4
sVd9687kr
p1100
I1
sVd2m6o7v
p1101
I2
sVd0kyio7
p1102
I1
sVdfwashi
p1103
I1
sVdjhoqjq
p1104
I2
sVd1aag2l
p1105
I1
sVd1wkgdm
p1106
I1
sVd3k50ee
p1107
I1
sVcyq4oxy
p1108
I1
sVd2js6kt
p1109
I2
sVdd4rok0
p1110
I1
sVd1wzgwt
p1111
I1
sVdsc8z5g
p1112
I1
sVdq329ic
p1113
I1
sVd5ljesp
p1114
I1
sVd5xcuty
p1115
I2
sVdgqq8if
p1116
I1
sVdot2xri
p1117
I1
sVde337t7
p1118
I2
sVd0hjryk
p1119
I1
sVdghrvq1
p1120
I1
sVd4ehq14
p1121
I1
sVd9be4tp
p1122
I1
sVd7xu11m
p1123
I1
sVd4e9v7s
p1124
I1
sVdi2v5ix
p1125
I1
sVdnh36t1
p1126
I2
sVd673ag5
p1127
I1
sVd85pj3x
p1128
I2
sVdhfo22g
p1129
I1
sVdevhm75
p1130
I1
sVdqdrx2u
p1131
I1
sVd4x1tvd
p1132
I1
sVcyp3f90
p1133
I1
sVd2pwk87
p1134
I2
sVdhswjdf
p1135
I2
sVdbx9z9x
p1136
I1
sVdr40k5d
p1137
I1
sVd0w2qoe
p1138
I1
sVcyoy3oi
p1139
I1
sVd75d1jf
p1140
I1
sVdhoyvmg
p1141
I1
sVd0jbhky
p1142
I1
sVddl7wes
p1143
I1
sVdnfytav
p1144
I3
sVdd77dm8
p1145
I1
sVdtihg00
p1146
I2
sVcyrx5mk
p1147
I1
sVdegyppu
p1148
I1
sVdee14yn
p1149
I1
sVcyuc69v
p1150
I1
sVdqoprgv
p1151
I1
sVd074v35
p1152
I1
sVcz41rnx
p1153
I1
sVdgo921q
p1154
I1
sVd4lej52
p1155
I1
sVdps1crj
p1156
I1
sVds3j32x
p1157
I1
sVdo8umcb
p1158
I1
sVddcpfvi
p1159
I1
sVd8dk0o7
p1160
I1
sVd5cwmmj
p1161
I1
sVdaa6dl0
p1162
I1
sVd6xss4v
p1163
I2
sVddsv7lz
p1164
I1
sVd3rt6cl
p1165
I1
sVdom62qq
p1166
I1
sVdt4j3x1
p1167
I1
sVd0ti0zw
p1168
I1
sVd64qvk2
p1169
I1
sVdqswao3
p1170
I1
sVd2t55g4
p1171
I3
sVd5k7ags
p1172
I1
sVd550a1t
p1173
I1
sVdcivmti
p1174
I1
sVdrbfuot
p1175
I3
sVd20d9cx
p1176
I2
sVd7kp7rv
p1177
I1
sVda4vy8d
p1178
I1
sVdckw7zh
p1179
I1
sVdmp93bi
p1180
I1
sVd5icnxk
p1181
I1
sVdnbs4av
p1182
I2
sVd6ca1ns
p1183
I1
sVd7ugkvz
p1184
I1
sVd3zc6kn
p1185
I4
sVdhwlc60
p1186
I1
sVdoua63s
p1187
I1
sVddshxhu
p1188
I2
sVdhdsvfy
p1189
I1
sVd2751yy
p1190
I2
sVdcnnlua
p1191
I1
sVddkrmco
p1192
I1
sVda7l7if
p1193
I2
sVd2upwu1
p1194
I2
sVd6vq1oi
p1195
I1
sVd6e6lot
p1196
I1
sVd5f15wb
p1197
I1
sVd7impd8
p1198
I1
sVdeenszz
p1199
I2
sVdft51s2
p1200
I1
sVd4hz7tg
p1201
I1
sVdfl96zf
p1202
I1
sVd0sz2a1
p1203
I2
sVdjvnon3
p1204
I1
sVdbjfg20
p1205
I1
sVd0j6xmx
p1206
I1
sVdhocln8
p1207
I1
sVdht3x4s
p1208
I1
sVdkoqent
p1209
I2
sVdc46rd4
p1210
I1
sVd2d0duh
p1211
I1
sVczi7hhc
p1212
I2
sVdk7bcl1
p1213
I1
sVcynb4sp
p1214
I1
sVddex2c8
p1215
I1
sVcz7gezx
p1216
I1
sVdgrwt9k
p1217
I1
sVdag0rn0
p1218
I1
sVcz992pr
p1219
I1
sVdb3l0qm
p1220
I1
sVd7pdtrf
p1221
I1
sVd7rxitq
p1222
I2
sVd1zklla
p1223
I1
sVd4hprbd
p1224
I1
sVdalqcv7
p1225
I1
sVdel475s
p1226
I1
sVdqd4637
p1227
I2
sVdgr6d6c
p1228
I1
sVd942afi
p1229
I3
sVcz4l8y4
p1230
I1
sVdbsri22
p1231
I1
sVdfu2dai
p1232
I2
sVd72p2la
p1233
I1
sVdqmivh0
p1234
I1
sVdchtah5
p1235
I1
sVdnmbw6x
p1236
I1
sVdb10f3p
p1237
I1
sVdhcc5qb
p1238
I1
sVd7p1eh7
p1239
I1
sVczog66e
p1240
I1
sVd8u6tqa
p1241
I1
sVdgf8lzi
p1242
I1
sVcz22spm
p1243
I1
sVdhv1nj9
p1244
I2
sVd417oxv
p1245
I5
sVdcmnlpm
p1246
I1
sVd5z36vv
p1247
I1
sVd31cj0o
p1248
I2
sVdffzbad
p1249
I1
sVdjbo8ds
p1250
I1
sVdg2dwa2
p1251
I1
sVd5rizq7
p1252
I2
sVdkxyfnn
p1253
I1
sVd0qi4yl
p1254
I1
sVdje8mb6
p1255
I1
sVd6zl8kd
p1256
I1
sVdhniop8
p1257
I1
sVd7pghwk
p1258
I1
sVd6sbuql
p1259
I1
sVd1vkk7e
p1260
I1
sVczl27uf
p1261
I1
sVdaj9r9t
p1262
I1
sVd3o00mu
p1263
I2
sVdt0fdpw
p1264
I1
sVdeufgyb
p1265
I3
sVd8rgubu
p1266
I1
sVd3mvq65
p1267
I4
sVdel4e4v
p1268
I1
sVdmifmds
p1269
I1
sVdry81d7
p1270
I1
sVdg4fczb
p1271
I1
sVd712w3q
p1272
I1
sVdjhuhwt
p1273
I1
sVdfu9vwh
p1274
I1
sVczurs77
p1275
I1
sVdk4xwwd
p1276
I1
sVd3ajhc5
p1277
I1
sVd81plzq
p1278
I1
sVd7pcck7
p1279
I1
sVd0jbmjq
p1280
I3
sVdbfp31i
p1281
I2
sVdfnccoz
p1282
I1
sVd0rdb5x
p1283
I1
sVde3tgw4
p1284
I1
sVdgi14mp
p1285
I1
sVd4pma1x
p1286
I1
sVdmjqsgr
p1287
I1
sVd1mseup
p1288
I1
sVczn9ct1
p1289
I1
sVdbifv6u
p1290
I1
sVdnmydsh
p1291
I1
sVczifwny
p1292
I3
sVd04504c
p1293
I1
sVdbo70d2
p1294
I1
sVdf1jgwq
p1295
I1
sVd0nnztt
p1296
I3
sVdbmwziq
p1297
I1
sVd6ghlr0
p1298
I1
sVd0sk86e
p1299
I1
sVd0y7n7x
p1300
I1
sVd6rwjzg
p1301
I1
sVd19injf
p1302
I3
sVdasewnh
p1303
I4
sVdqsr3d8
p1304
I1
sVdijeiy7
p1305
I3
sVd4govii
p1306
I1
sVd460y0n
p1307
I1
sVder4z7y
p1308
I2
sVdg3br0d
p1309
I1
sVcz1x015
p1310
I1
sVcyloke5
p1311
I1
sVdnclhup
p1312
I1
sVcz2b32k
p1313
I1
sVd2py0sn
p1314
I1
sVdmjw8ag
p1315
I1
sVd6zubu6
p1316
I2
sVdd4ungr
p1317
I2
sVddtwf3a
p1318
I1
sVd8gwtib
p1319
I1
sVd6hdf10
p1320
I1
sVdrkurq5
p1321
I2
sVd2480qj
p1322
I1
sVd900vze
p1323
I1
sVdiir4i2
p1324
I1
sVdiedvbr
p1325
I1
sVdhlwa3t
p1326
I1
sVdah1r25
p1327
I1
sVdd1xekt
p1328
I1
sVdfsqzkd
p1329
I1
sVd1yy31f
p1330
I1
sVcz21m39
p1331
I1
sVdaspxjn
p1332
I1
sVdjeg4hk
p1333
I1
sVd75y9vu
p1334
I4
sVdalw9il
p1335
I1
sVdjd5sxf
p1336
I2
sVdjb1lzw
p1337
I1
sVdcv7hzl
p1338
I1
sVdez6rzm
p1339
I1
sVd61n8x6
p1340
I1
sVd1q08j5
p1341
I1
sVd5pa7wj
p1342
I1
sVdmsgc7d
p1343
I1
sVcz68p94
p1344
I2
sVdb9q6oy
p1345
I3
sVd1oelui
p1346
I1
sVd18vo2l
p1347
I2
sVdbjtydr
p1348
I1
sVdd29zhp
p1349
I1
sVdmulhb2
p1350
I1
sVdqgt5cd
p1351
I1
sVd4tyn2a
p1352
I2
sVd5n69v8
p1353
I3
sVdr6lays
p1354
I3
sVdcvz5rh
p1355
I1
sVdhmyclh
p1356
I1
sVdcxb0bq
p1357
I1
sVdck5z3j
p1358
I1
sVdr3by8v
p1359
I1
sVdfpln0i
p1360
I1
sVd8xo8c3
p1361
I1
sVdc3hzm9
p1362
I1
sVdihf7hc
p1363
I1
sVcyql8z1
p1364
I1
sVd09f038
p1365
I1
sVdha1kti
p1366
I1
sVdcipyzv
p1367
I2
sVdpjavon
p1368
I1
sVdhh6hs4
p1369
I1
sVd8q8drx
p1370
I1
sVdhqcvoc
p1371
I1
sVdjodv4u
p1372
I1
sVdb4w3hg
p1373
I1
sVd95e9nc
p1374
I1
sVdn2hn4n
p1375
I1
sVdhgfiog
p1376
I2
sVd1ybwyo
p1377
I1
sVdaneayq
p1378
I1
sVdatwqi1
p1379
I1
sVdem2h9t
p1380
I1
sVdfmxu2v
p1381
I1
sVd62qz2c
p1382
I1
sVdjw47kh
p1383
I1
sVdablmgc
p1384
I1
sVczsv6of
p1385
I2
sVdkxwox5
p1386
I1
sVdnm4vkd
p1387
I2
sVddhlg3h
p1388
I1
sVd5xlspa
p1389
I1
sVdsew6m8
p1390
I1
sVdcwxh92
p1391
I2
sVd48feh6
p1392
I2
sVddv04os
p1393
I1
sVd86d272
p1394
I1
sVd54hodf
p1395
I1
sVdekih1p
p1396
I1
sVd4q0lag
p1397
I1
sVd44l3x9
p1398
I1
sVd1hy0hu
p1399
I1
sVd5vr2jd
p1400
I1
sVdam5k9e
p1401
I1
sVd1h1dn7
p1402
I1
sVd94hlf3
p1403
I1
sVd444aq1
p1404
I1
sVd8o9g8h
p1405
I1
sVdcpqm1a
p1406
I4
sVdencvnq
p1407
I3
sVdeqgks1
p1408
I1
sVdd5sn1a
p1409
I1
sVd2y2cee
p1410
I1
sVdaini3w
p1411
I1
sVdo42ihl
p1412
I1
sVd7y6ys1
p1413
I4
sVdbgf1bq
p1414
I1
sVd8ys0xt
p1415
I1
sVdh66a2d
p1416
I1
sVds2dl31
p1417
I1
sVd52n8dz
p1418
I2
sVdn2mo17
p1419
I1
sVdaa0x8j
p1420
I1
sVd64wdz2
p1421
I1
sVczb2ycm
p1422
I6
sVdn7h487
p1423
I1
sVd5elmy2
p1424
I1
sVdtbcuub
p1425
I1
sVdkjer9f
p1426
I1
sVdi0istj
p1427
I1
sVd4tfinl
p1428
I2
sVddoiuqn
p1429
I1
sVcz9l9u5
p1430
I1
sVd1kuxu2
p1431
I2
sVd35bpxz
p1432
I1
sVdixwvjy
p1433
I1
sVd4l1e06
p1434
I1
sVdehu5o5
p1435
I1
sVd9130zh
p1436
I1
sVdr7hojw
p1437
I1
sVczc990e
p1438
I1
sVd6n57y3
p1439
I1
sVda7xrpq
p1440
I1
sVd90j1qp
p1441
I1
sVdh0sjz9
p1442
I2
sVd9lep4d
p1443
I1
sVdpb8v2e
p1444
I1
sVdo4yjq9
p1445
I1
sVd1ea09e
p1446
I1
sVdjupe67
p1447
I1
sVd4nyn1a
p1448
I1
sVd5qd8d6
p1449
I3
sVd5oizna
p1450
I1
sVd038knd
p1451
I1
sVczgsze3
p1452
I1
sVdbeizwy
p1453
I1
sVd1run50
p1454
I1
sVdd8gu5q
p1455
I1
sVd6x7fjo
p1456
I2
sVdb573vv
p1457
I1
sVdb2ycrp
p1458
I1
sVda5wzyg
p1459
I1
sVdfx9gyf
p1460
I2
sVd4y2tt5
p1461
I1
sVd3nez4p
p1462
I1
sVd0k6egh
p1463
I4
sVd55vok6
p1464
I1
sVcz741rm
p1465
I1
sVd01q2xq
p1466
I1
sVde9brfd
p1467
I1
sVd2b6bno
p1468
I1
sVd2dbc4c
p1469
I1
sVdbz0qjn
p1470
I3
sVdgfcxmj
p1471
I1
sVddj7tdm
p1472
I4
sVdf1x9g2
p1473
I1
sVd3n21fn
p1474
I2
sVdbspvjw
p1475
I2
sVcylqjhc
p1476
I1
sVd2v0knp
p1477
I1
sVd9s243o
p1478
I1
sVd0ub50n
p1479
I1
sVdeahxyw
p1480
I1
sVddiiph7
p1481
I1
sVdhlnhhj
p1482
I1
sVdnlexe3
p1483
I1
sVdi3ugrr
p1484
I1
sVd6fzkvc
p1485
I1
sVd9kabr8
p1486
I1
sVczdg76s
p1487
I1
sVd6p6xtg
p1488
I1
sVcz9fqkg
p1489
I2
sVdd4r7jq
p1490
I2
sVdc1kqo1
p1491
I2
sVdban6ux
p1492
I1
sVd8mfdyg
p1493
I1
sVd6xcumv
p1494
I3
sVdop4sqi
p1495
I2
sVd9ntam5
p1496
I1
sVd6lctrl
p1497
I1
sVddtm6pe
p1498
I2
sVdb21pb4
p1499
I1
sVdgfb4y4
p1500
I1
sVd9ka1v8
p1501
I1
sVddsvp9c
p1502
I1
sVds9w2i0
p1503
I4
sVdfcnvnq
p1504
I1
sVdj1czv6
p1505
I1
sVdcqr4my
p1506
I2
sVd8hwxb5
p1507
I4
sVd0ojf64
p1508
I1
sVdnnf0mk
p1509
I3
sVd476m4k
p1510
I2
sVd4wlzzz
p1511
I1
sVdn86nqk
p1512
I1
sVdp3qumv
p1513
I2
sVdcy3lqw
p1514
I1
sVdgy2ghv
p1515
I3
sVczp9n3o
p1516
I1
sVdmv7pku
p1517
I1
sVdjh9lp4
p1518
I1
sVdetvcpz
p1519
I3
sVdi3n8b7
p1520
I1
sVd19m8p3
p1521
I1
sVddqupe4
p1522
I1
sVdbgfqcn
p1523
I1
sVd84nm0z
p1524
I6
sVd9j0x7a
p1525
I1
sVdqnzflz
p1526
I1
sVd0t9xnh
p1527
I1
sVcyjyeds
p1528
I1
sVddl5nkb
p1529
I2
sVdccalrf
p1530
I2
sVd4pmrgr
p1531
I1
sVddg5u5q
p1532
I4
sVd8py45r
p1533
I2
sVdgfoo63
p1534
I1
sVdsxusna
p1535
I1
sVdtf5rpa
p1536
I1
sVdtc5za7
p1537
I1
sVd1xf62y
p1538
I1
sVdks26z0
p1539
I8
sVdkwou3m
p1540
I1
sVd6nmfcl
p1541
I3
sVd04b1ts
p1542
I1
sVdajkywi
p1543
I1
sVd1iqy29
p1544
I1
sVdnro3nd
p1545
I1
sVd6ermy1
p1546
I1
sVdb8vjdk
p1547
I1
sVd13wq9j
p1548
I1
sVdrc2ra3
p1549
I1
sVd06ib33
p1550
I1
sVdayg6h4
p1551
I1
sVd3avana
p1552
I1
sVdmetzoi
p1553
I1
sVdahkdlh
p1554
I1
sVd0iqlop
p1555
I2
sVdpr0mk0
p1556
I1
sVd8gk2j6
p1557
I1
sVdd0mric
p1558
I1
sVdifh8by
p1559
I1
sVdk095xp
p1560
I1
sVdmt2lwe
p1561
I1
sVd2tc4vp
p1562
I1
sVcz0jdzq
p1563
I1
sVd2xn4hr
p1564
I1
sVddl986j
p1565
I1
sVd08n364
p1566
I1
sVczz2miv
p1567
I1
sVdg4qnoc
p1568
I1
sVdnxk5es
p1569
I1
sVd1sfydf
p1570
I1
sVcyxalrd
p1571
I3
sVdq14130
p1572
I1
sVdfl9x7e
p1573
I1
sVdp1nvi9
p1574
I1
sVdaci6pi
p1575
I2
sVdgjd26g
p1576
I1
sVd9ne4et
p1577
I1
sVd05m2fj
p1578
I1
sVd2sfubg
p1579
I1
sVdc758v1
p1580
I1
sVdjey8so
p1581
I1
sVd76vhtt
p1582
I1
sVd4cjnyc
p1583
I1
sVdob4uzr
p1584
I1
sVdd5jiqv
p1585
I2
sVd1ube6h
p1586
I1
sVdc1d3ik
p1587
I2
sVd84rajn
p1588
I1
sVdi8ljyk
p1589
I1
sVcyrtfps
p1590
I1
sVd7ps767
p1591
I1
sVczcd7aq
p1592
I1
sVdd76kqf
p1593
I1
sVd55jl8f
p1594
I1
sVd0z1gog
p1595
I1
sVdnwg4p4
p1596
I2
sVd1ovv06
p1597
I3
sVda5dfkj
p1598
I1
sVdojcjg4
p1599
I1
sVdcz98je
p1600
I1
sVdgv8skj
p1601
I2
sVd8hjlug
p1602
I1
sVd9h9xpd
p1603
I1
sVd5gzsvh
p1604
I1
sVde1a64c
p1605
I1
sVddwqa7c
p1606
I1
sVdhql20d
p1607
I1
sVdkqafm3
p1608
I1
sVd37pr1h
p1609
I1
sVdd8pyyd
p1610
I1
sVd05cq3m
p1611
I3
sVdfj8hs6
p1612
I1
sVd9xchao
p1613
I1
sVde9wpq4
p1614
I1
sVd7myo2f
p1615
I1
sVddxmu01
p1616
I1
sVd0iwz9h
p1617
I3
sVda82yo5
p1618
I5
sVdbpijv4
p1619
I2
sVden62nh
p1620
I1
sVd2vhbr4
p1621
I2
sVdh8bun7
p1622
I6
sVd95rc1p
p1623
I2
sVd02tfno
p1624
I1
sVdf8r6kc
p1625
I4
sVcyoyvrs
p1626
I1
sVdimd5ne
p1627
I2
sVdgezo5x
p1628
I1
sVdf9gbhv
p1629
I1
sVczhz9iz
p1630
I2
sVdtfp0h2
p1631
I2
sVd0n6glp
p1632
I2
sVd9fr19x
p1633
I1
sVdf8ckm6
p1634
I1
sVd5p1je4
p1635
I1
sVdbh4sob
p1636
I2
sVdowcmi0
p1637
I1
sVdc1n83s
p1638
I1
sVczf686z
p1639
I1
sVdape0mb
p1640
I1
sVdev077s
p1641
I1
sVdfia8wz
p1642
I1
sVdd5ffkn
p1643
I1
sVdeay6sl
p1644
I1
sVdbj3j8x
p1645
I1
sVdh7rq8r
p1646
I1
sVdqar6b6
p1647
I1
sVczf1ly5
p1648
I1
sVdeehw0v
p1649
I1
sVdhj7coj
p1650
I1
sVditw8il
p1651
I1
sVdnjo6rb
p1652
I1
sVd4gj44a
p1653
I1
sVdi8cs30
p1654
I1
sVd7qraac
p1655
I1
sVdelrgrm
p1656
I1
sVd9vgeii
p1657
I1
sVd9mwube
p1658
I1
sVczh3kon
p1659
I1
sVdka7d02
p1660
I1
sVdc3qq4x
p1661
I1
sVdetw0v7
p1662
I1
sVdc00mof
p1663
I3
sVd2emgkp
p1664
I3
sVdjw8vam
p1665
I1
sVda2vrmz
p1666
I1
sVd8h9erb
p1667
I2
sVdg2aoci
p1668
I1
sVd9aiyuh
p1669
I2
sVd3z7ufn
p1670
I2
sVdof7kso
p1671
I1
sVcyqpejr
p1672
I1
sVd85tmb2
p1673
I1
sVcys8u32
p1674
I2
sVdg9hpcw
p1675
I1
sVdb1tdkg
p1676
I1
sVdmooxz6
p1677
I1
sVddbekc6
p1678
I1
sVd397ica
p1679
I1
sVdduwni0
p1680
I1
sVdd6tfn8
p1681
I2
sVd40oej4
p1682
I4
sVddpshj4
p1683
I1
sVddbx38g
p1684
I2
sVd9k7q4i
p1685
I2
sVd4kpm3a
p1686
I1
sVde40by3
p1687
I1
sVdfaylvi
p1688
I4
sVd9nmrwo
p1689
I1
sVdo7gijv
p1690
I1
sVd4k1a33
p1691
I2
sVd91iszj
p1692
I1
sVd4ffm0u
p1693
I1
sVcyt08uk
p1694
I1
sVd5m0lgn
p1695
I1
sVd3rcxdu
p1696
I1
sVdhpc6h1
p1697
I1
sVd0857f0
p1698
I1
sVdrqbi9t
p1699
I1
sVdn1ac84
p1700
I2
sVcyqem62
p1701
I1
sVdqvz84u
p1702
I1
sVdqshoh6
p1703
I1
sVd3g5uy9
p1704
I1
sVd4g9362
p1705
I1
sVd347zf9
p1706
I1
sVdq6ytiv
p1707
I4
sVdiku4as
p1708
I3
sVd6aioz9
p1709
I1
sVd0x71g6
p1710
I1
sVd7jbynx
p1711
I1
sVd6uz0zg
p1712
I2
sVdazu3eu
p1713
I1
sVda8vilz
p1714
I1
sVdcp1fqc
p1715
I1
sVcza2qw1
p1716
I1
sVdr4jr8g
p1717
I2
sVdktzuwl
p1718
I1
sVd5x56o9
p1719
I1
sVd0gvliy
p1720
I1
sVd5o160b
p1721
I1
sVddn1xo5
p1722
I1
sVd4p7ctd
p1723
I1
sVd1j45p3
p1724
I1
sVcz9gyar
p1725
I1
sVd3n1dae
p1726
I1
sVdkevzjo
p1727
I1
sVcypojho
p1728
I1
sVde8ggii
p1729
I1
sVcz1m4zp
p1730
I2
sVd56z1js
p1731
I1
sVdgh4otz
p1732
I1
sVdcvook7
p1733
I3
sVcz7xy85
p1734
I1
sVdab8m1n
p1735
I1
sVdizn33c
p1736
I1
sVd43hsmh
p1737
I1
sVd3akvlf
p1738
I2
sVdpwd4f0
p1739
I1
sVd52ow69
p1740
I1
sVd5ogq46
p1741
I2
sVdht7yvx
p1742
I1
sVd78ifr5
p1743
I1
sVd15g5uw
p1744
I2
sVdhdreok
p1745
I1
sVdbeqoyb
p1746
I1
sVdbbjpf3
p1747
I1
sVd588ptj
p1748
I1
sVdi0out2
p1749
I2
sVcz0lqiv
p1750
I1
sVdgjl3vt
p1751
I1
sVd3jn8bi
p1752
I5
sVcylc273
p1753
I1
sVd7nffsb
p1754
I1
sVda64moz
p1755
I1
sVdivm158
p1756
I1
sVd78ay23
p1757
I1
sVdd8s87h
p1758
I1
sVdnsq1e2
p1759
I2
sVdisipd4
p1760
I1
sVcyya4ne
p1761
I1
sVd5ywcgu
p1762
I2
sVd10kfa3
p1763
I1
sVdjcmyik
p1764
I1
sVdjurusn
p1765
I1
sVdhgm7gh
p1766
I1
sVdhbcskz
p1767
I1
sVdb3cquk
p1768
I1
sVd6r1odc
p1769
I2
sVd4qbmxg
p1770
I1
sVddmun6o
p1771
I2
sVdegs1zy
p1772
I1
sVdoxua89
p1773
I1
sVdoqcie5
p1774
I1
sVda86w1o
p1775
I1
sVd30x02k
p1776
I1
sVd0746nt
p1777
I1
sVd0dwkri
p1778
I2
sVd5th5yl
p1779
I3
sVdiblu84
p1780
I1
sVdhz77ea
p1781
I1
sVdjz9ugi
p1782
I1
sVdfr1tld
p1783
I1
sVd2accok
p1784
I2
sVdathx7k
p1785
I2
sVdsz055g
p1786
I1
sVdjwau29
p1787
I1
sVdrvh1le
p1788
I1
sVd000306
p1789
I1
sVddkuauv
p1790
I1
sVd1f1qed
p1791
I1
sVdcxk515
p1792
I1
sVd3w29nz
p1793
I1
sVd91eegb
p1794
I1
sVd20i0fu
p1795
I1
sVd91usps
p1796
I1
sVcykgsbi
p1797
I2
sVdslyqnk
p1798
I1
sVd0bfvax
p1799
I1
sVd0o77rh
p1800
I1
sVdo7w9na
p1801
I1
sVdq0td5y
p1802
I1
sVdfssnoh
p1803
I1
sVd7zvg2n
p1804
I1
sVdenmzgg
p1805
I1
sVd8h5q3u
p1806
I2
sVdkx69lg
p1807
I2
sVdc2iqd2
p1808
I2
sVd17qh45
p1809
I1
sVd5zpgc4
p1810
I1
sVczxmqfo
p1811
I1
sVdj2x2wx
p1812
I1
sVdf7g5ji
p1813
I1
sVdoz630o
p1814
I1
sVd8lw0fe
p1815
I1
sVdhn1fmp
p1816
I1
sVd5gu41v
p1817
I1
sVdk7tvva
p1818
I1
sVdad59r6
p1819
I3
sVdp0nvzt
p1820
I1
sVdd3bopx
p1821
I1
sVdhv4l5b
p1822
I1
sVd2vizq5
p1823
I1
sVdad8x2t
p1824
I1
sVda7xl74
p1825
I1
sVcyhve1w
p1826
I1
sVd1oip76
p1827
I1
sVdg7c16x
p1828
I2
sVdhxo73l
p1829
I1
sVczh62dx
p1830
I1
sVddz92lm
p1831
I1
sVdb8ze52
p1832
I1
sVdhkn0mo
p1833
I1
sVdez0cxv
p1834
I2
sVczykldx
p1835
I3
sVd21axiz
p1836
I1
sVdb1fg61
p1837
I3
sVdfsja0k
p1838
I1
sVde878ft
p1839
I1
sVd2dcju1
p1840
I1
sVd4kq4il
p1841
I1
sVdk1gvcr
p1842
I1
sVdepkio1
p1843
I1
sVd7usbqm
p1844
I1
sVd1h4oss
p1845
I1
sVddd3kwz
p1846
I1
sVcz2dx8p
p1847
I1
sVddtmt1w
p1848
I1
sVdbgz8ck
p1849
I1
sVd869cou
p1850
I3
sVdio5owe
p1851
I1
sVdhzrncm
p1852
I2
sVd6nqgo9
p1853
I2
sVdr240wo
p1854
I2
sVcz0t9t5
p1855
I1
sVd6gg3d8
p1856
I1
sVcykhcqr
p1857
I1
sVd0ug0x6
p1858
I1
sVdeahmom
p1859
I1
sVcyrcwfl
p1860
I2
sVdmzvpnt
p1861
I1
sVdj0zny3
p1862
I1
sVdr7ugr9
p1863
I2
sVcyixtjp
p1864
I1
sVdnmhh96
p1865
I1
sVd8oi0mw
p1866
I1
sVdkmvpdp
p1867
I1
sVdgzg3w1
p1868
I1
sVdp99151
p1869
I1
sVczlz6y5
p1870
I2
sVd62gu8e
p1871
I1
sVdcdl43p
p1872
I1
sVdgxa94j
p1873
I2
sVdeznfk0
p1874
I1
sVdb8cdux
p1875
I1
sVd8tqmt1
p1876
I1
sVdq0spmp
p1877
I1
sVdbmfjpg
p1878
I1
sVdgdvoiu
p1879
I1
sVdkb7wnf
p1880
I1
sVd4d0f8b
p1881
I4
sVddxeevv
p1882
I1
sVd8mfl3s
p1883
I2
sVd3vpzys
p1884
I1
sVcz2stkx
p1885
I1
sVd2x7sm9
p1886
I1
sVdf3op3z
p1887
I1
sVd7u8svd
p1888
I1
sVczjom5n
p1889
I1
sVd3jz1de
p1890
I1
sVd1vfg6n
p1891
I1
sVdei4p9r
p1892
I1
sVd3hegr4
p1893
I1
sVdke4ezw
p1894
I1
sVdfu1ig5
p1895
I1
sVd23syrn
p1896
I1
sVdt71v9u
p1897
I1
sVddcwi2m
p1898
I1
sVczm67qc
p1899
I2
sVczqix0j
p1900
I1
sVdqqtdrv
p1901
I2
sVdjtnyz4
p1902
I1
sVdcmnacj
p1903
I1
sVdsfnghm
p1904
I1
sVdecncjy
p1905
I1
sVd9k6i5l
p1906
I1
sVdcdn0qn
p1907
I1
sVd29imcu
p1908
I2
sVdjhx9m1
p1909
I1
sVdbtyrev
p1910
I1
sVd10nm56
p1911
I1
sVdcbc693
p1912
I1
sVdhawh4d
p1913
I1
sVdpac1dz
p1914
I1
sVdbkl8b3
p1915
I1
sVd0ozxww
p1916
I1
sVd9kkwk9
p1917
I1
sVdo67jt5
p1918
I1
sVdmsqu5i
p1919
I6
sVdn43ea6
p1920
I1
sVd9d6p94
p1921
I1
sVd691m8p
p1922
I1
sVdhbvuav
p1923
I1
sVdoa4hul
p1924
I1
sVda1bbzo
p1925
I1
sVdi7ooat
p1926
I1
sVdbmxauw
p1927
I6
sVdmjfppn
p1928
I1
sVdnib6x5
p1929
I1
sVcz2ewgj
p1930
I1
sVdrj1w88
p1931
I1
sVda5hqj2
p1932
I2
sVd107mmu
p1933
I1
sVd5nf7qa
p1934
I1
sVdateqqg
p1935
I1
sVdaq6zij
p1936
I1
sVd9i5k2u
p1937
I1
sVdiy7abd
p1938
I1
sVdow3373
p1939
I1
sVdbm950z
p1940
I1
sVd01ax9s
p1941
I1
sVd3ivx65
p1942
I1
sVdhn87ik
p1943
I1
sVdmnsncq
p1944
I1
sVda62gmn
p1945
I1
sVdkc16d3
p1946
I1
sVddmvod8
p1947
I1
sVd23vh1k
p1948
I1
sVdnmypvk
p1949
I1
sVdja4zd1
p1950
I1
sVdbewzk1
p1951
I1
sVd9s55pv
p1952
I1
sVczmwpht
p1953
I1
sVddjhd6g
p1954
I1
sVd580i43
p1955
I5
sVd4rljpa
p1956
I2
sVd2u4trv
p1957
I1
sVdjpt9db
p1958
I1
sVdjfjyo8
p1959
I3
sVdhla0p2
p1960
I2
sVdh086dc
p1961
I1
sVdbo1at6
p1962
I5
sVdei6v36
p1963
I1
sVdh0fdh9
p1964
I2
sVdnjb7ol
p1965
I2
sVd1rrb1d
p1966
I1
sVd4m30mn
p1967
I1
sVczw0wio
p1968
I1
sVd6v4wv5
p1969
I2
sVd4eudfd
p1970
I1
sVdjdgik6
p1971
I1
sVczxun39
p1972
I1
sVd753myx
p1973
I2
sVdmfqk2l
p1974
I1
sVddxxepo
p1975
I1
sVdru0ohi
p1976
I1
sVd7remaz
p1977
I1
sVdfee7js
p1978
I1
sVday4zh9
p1979
I1
sVdo4sz2m
p1980
I1
sVdicz4e1
p1981
I3
sVdd4f7am
p1982
I1
sVd3w7uf0
p1983
I1
sVdextjwm
p1984
I1
sVdekbdq5
p1985
I1
sVdjze1wd
p1986
I1
sVd87paw4
p1987
I2
sVd5lac02
p1988
I2
sVd0ncb5i
p1989
I3
sVd4u8yro
p1990
I1
sVddjmhse
p1991
I2
sVdtbfj6x
p1992
I1
sVd24b1sm
p1993
I1
sVdi16rmj
p1994
I1
sVd3ap55y
p1995
I2
sVdcsaytf
p1996
I1
sVd9x2v5a
p1997
I1
sVdjfqmz9
p1998
I2
sVd5tgthl
p1999
I2
sVczwis6s
p2000
I1
sVdd7ql4a
p2001
I1
sVdedm5wq
p2002
I2
sVd7ml03t
p2003
I1
sVcyhugv1
p2004
I1
sVdecyeiw
p2005
I2
sVcyr3uit
p2006
I1
sVdi395jd
p2007
I1
sVd12ur2k
p2008
I1
sVcykrq78
p2009
I1
sVcywqzwn
p2010
I1
sVdk7wft4
p2011
I1
sVcyjja7d
p2012
I1
sVdd0hw41
p2013
I1
sVd0c7yyc
p2014
I1
sVdaz78ps
p2015
I1
sVdh44ddz
p2016
I2
sVd4unney
p2017
I2
sVd9cv7vi
p2018
I1
sVd1hh4gw
p2019
I1
sVd3gfx7f
p2020
I1
sVd96ub1r
p2021
I2
sVd77epro
p2022
I3
sVd21mghp
p2023
I2
sVd0h00jh
p2024
I2
sVcyrg0df
p2025
I1
sVdbipiui
p2026
I1
sVd0yqzrm
p2027
I1
sVd4vj5e0
p2028
I1
sVdi123ea
p2029
I1
sVdowekp3
p2030
I1
sVd1lysed
p2031
I4
sVd0sk63u
p2032
I1
sVdandzrh
p2033
I1
sVd3nyggu
p2034
I2
sVd3nt8zw
p2035
I1
sVd8aedb3
p2036
I1
sVd52wr2m
p2037
I1
sVd0eilkn
p2038
I2
sVdah24bc
p2039
I1
sVd1y25xy
p2040
I1
sVd8hv8dq
p2041
I1
sVddbv5kk
p2042
I1
sVde8momq
p2043
I1
sVd1fa794
p2044
I4
sVd03d3va
p2045
I1
sVdkyexpa
p2046
I1
sVdmy6ckp
p2047
I1
sVdek3pb6
p2048
I1
sVdt8v8tw
p2049
I1
sVd6c623g
p2050
I3
sVd2pufrc
p2051
I1
sVdf5ysp0
p2052
I1
sVd1qjeq0
p2053
I2
sVd5vhpdy
p2054
I1
sVdfqp90i
p2055
I1
sVczds0ft
p2056
I3
sVde921bo
p2057
I1
sVdhbv6jk
p2058
I2
sVd8cf4a3
p2059
I1
sVdh8965h
p2060
I1
sVd5xo1kr
p2061
I1
sVdap3tuj
p2062
I2
sVdir8vgn
p2063
I1
sVd8634gp
p2064
I1
sVdmow1tu
p2065
I1
sVdi85w6v
p2066
I2
sVd3ni7dn
p2067
I1
sVdpx9u6v
p2068
I1
sVd7vrpiq
p2069
I1
sVd2iwqm5
p2070
I1
sVcylrsoz
p2071
I1
sVds0ko3m
p2072
I1
sVd2vca85
p2073
I1
sVd34qkb8
p2074
I1
sVdpqwc8e
p2075
I1
sVd6sleuw
p2076
I1
sVdgc3qj3
p2077
I1
sVd6nzzkw
p2078
I1
sVd0gvp90
p2079
I1
sVczic3zu
p2080
I1
sVczhr7fv
p2081
I1
sVdp89vsv
p2082
I1
sVd429yuf
p2083
I1
sVdtay7cr
p2084
I1
sVcz0p5mr
p2085
I1
sVd6139ni
p2086
I1
sVd4kuwrd
p2087
I1
sVd0wyfo6
p2088
I1
sVcz1xmd6
p2089
I1
sVd8t4yfw
p2090
I1
sVd65jph1
p2091
I1
sVdakdalr
p2092
I1
sVd1rholn
p2093
I1
sVd1er33l
p2094
I1
sVdgcx18i
p2095
I1
sVd1f8bkf
p2096
I1
sVd29eliy
p2097
I1
sVddxnd3b
p2098
I2
sVd1flh6m
p2099
I1
sVd7nkxy0
p2100
I1
sVdguik9q
p2101
I1
sVdaqoenb
p2102
I1
sVdefp0l1
p2103
I1
sVd4mmony
p2104
I2
sVdhoc2b6
p2105
I1
sVdcep0du
p2106
I3
sVcytf214
p2107
I1
sVd3bnt42
p2108
I1
sVd8h0cib
p2109
I1
sVds57tdi
p2110
I4
sVdphpaq1
p2111
I3
sVdbag25m
p2112
I2
sVdcsjece
p2113
I1
sVdpnvwof
p2114
I1
sVdda2sgr
p2115
I1
sVdfl7osd
p2116
I1
sVdji6nke
p2117
I2
sVdqvp9kv
p2118
I1
sVd5ihbt7
p2119
I1
sVd1l8nmd
p2120
I1
sVdhtr2he
p2121
I1
sVd77kvs2
p2122
I1
sVcz4ymqn
p2123
I2
sVd66m690
p2124
I1
sVdhiqjpn
p2125
I1
sVd9ywfe3
p2126
I1
sVd7v76tx
p2127
I1
sVdn4iqkn
p2128
I3
sVd38xhhj
p2129
I1
sVdf8je6u
p2130
I1
sVd2cxp7n
p2131
I1
sVd4ykye4
p2132
I1
sVdqw3o3g
p2133
I1
sVdc463aw
p2134
I1
sVcyx30os
p2135
I1
sVdcbg6sg
p2136
I1
sVczea281
p2137
I1
sVdg2o467
p2138
I1
sVd9ldx5b
p2139
I1
sVd5yvbft
p2140
I1
sVdq2jery
p2141
I1
sVd9n35jq
p2142
I1
sVdfue8kh
p2143
I1
sVdc9ykid
p2144
I1
sVdps2wol
p2145
I1
sVdet2l79
p2146
I2
sVdhn3slh
p2147
I1
sVdtgl8rl
p2148
I1
sVddeh8jq
p2149
I1
sVdd77a0j
p2150
I1
sVd9itie5
p2151
I2
sVdji5n81
p2152
I1
sVd0f39t1
p2153
I1
sVdcaabb1
p2154
I1
sVd6o5eej
p2155
I1
sVdbl9azh
p2156
I1
sVd3n0ilj
p2157
I2
sVdgal1lx
p2158
I1
sVdd23zev
p2159
I1
sVdjocn2a
p2160
I1
sVdfpz4jk
p2161
I1
sVd57znhh
p2162
I1
sVdhiccz5
p2163
I1
sVd1ka1eg
p2164
I1
sVdbewyh6
p2165
I1
sVddawuhq
p2166
I3
sVd04td5j
p2167
I1
sVd7arenn
p2168
I1
sVd2zfe5h
p2169
I1
sVd078r24
p2170
I1
sVd4hdhmm
p2171
I1
sVd6j2zj3
p2172
I1
sVd76v46k
p2173
I1
sVd3k9vw2
p2174
I2
sVds00w4u
p2175
I3
sVcywseiv
p2176
I1
sVd3u4624
p2177
I1
sVczcuqkx
p2178
I1
sVdjztf0b
p2179
I1
sVdejz9bs
p2180
I1
sVdn7jfch
p2181
I1
sVd8cff6y
p2182
I1
sVdj5j8xr
p2183
I1
sVd2t2hkw
p2184
I1
sVdh62pz7
p2185
I2
sVdh3zvuf
p2186
I1
sVd8exu7i
p2187
I1
sVd918ip8
p2188
I1
sVdd72451
p2189
I1
sVcylmj0c
p2190
I1
sVddl2v0t
p2191
I1
sVd7ijze1
p2192
I2
sVdp86626
p2193
I1
sVd34y28b
p2194
I1
sVdee6fo7
p2195
I1
sVdks0s55
p2196
I1
sVdbqie4o
p2197
I1
sVd7a61x7
p2198
I1
sVd3xq7mh
p2199
I1
sVdoxklqj
p2200
I2
sVdazxzop
p2201
I1
sVdeu0fmu
p2202
I1
sVdihic3x
p2203
I1
sVdhqob7l
p2204
I3
sVd5cqnji
p2205
I1
sVdorox9h
p2206
I1
sVdmsvqzw
p2207
I1
sVdpyiyv5
p2208
I1
sVd75iubb
p2209
I1
sVd35phgh
p2210
I1
sVdoyw61b
p2211
I1
sVdk0nwgy
p2212
I2
sVdhc5vzt
p2213
I1
sVd0gzc7f
p2214
I1
sVd9h8fy8
p2215
I1
sVdohjvs3
p2216
I1
sVdnuc5cb
p2217
I3
sVdq5kjoo
p2218
I1
sVdsfeb1u
p2219
I1
sVdhn8mzn
p2220
I1
sVd8olpkm
p2221
I1
sVdsi8lpi
p2222
I1
sVdbbot74
p2223
I1
sVd40r5e8
p2224
I1
sVdjtbu7c
p2225
I1
sVdmncf4l
p2226
I1
sVds2yhtg
p2227
I1
sVdfwebdz
p2228
I1
sVdnik84b
p2229
I1
sVdp8t76k
p2230
I1
sVdg4a7vv
p2231
I1
sVczgtudw
p2232
I1
sVd7dq2ss
p2233
I2
sVdjlo64l
p2234
I6
sVd5i5gi6
p2235
I1
sVcywt2mv
p2236
I1
sVd04d46s
p2237
I1
sVd275wtq
p2238
I1
sVdruanit
p2239
I1
sVdhglah3
p2240
I1
sVdgw4rd4
p2241
I1
sVd10lvdl
p2242
I2
sVdctmi42
p2243
I1
sVd0rosc6
p2244
I1
sVd8qqor8
p2245
I1
sVd12lulm
p2246
I1
sVddayde6
p2247
I1
sVdam3307
p2248
I1
sVcypeyvm
p2249
I1
sVda3wpng
p2250
I1
sVdqjj6jh
p2251
I1
sVdg4wx8u
p2252
I1
sVdglii4p
p2253
I1
sVdt9t8ff
p2254
I1
sVdiy03xp
p2255
I1
sVd58owrv
p2256
I3
sVd91etq3
p2257
I1
sVdcwqwwa
p2258
I3
sVd1ebjhy
p2259
I1
sVd6xdzcw
p2260
I2
sVd54y7m7
p2261
I1
sVd20qdo6
p2262
I1
sVczis651
p2263
I1
sVd6o3cpl
p2264
I1
sVdoahmg1
p2265
I1
sVdb0b125
p2266
I1
sVd9zx1ga
p2267
I1
sVdduesdn
p2268
I1
sVd8os8va
p2269
I1
sVd2jokq5
p2270
I1
sVdqdj6e8
p2271
I1
sVdnptjzl
p2272
I1
sVdquhtx0
p2273
I3
sVdea37k5
p2274
I1
sVczqn92x
p2275
I1
sVd3lcaw2
p2276
I1
sVdjk5bki
p2277
I1
sVd0407si
p2278
I1
sVdgclams
p2279
I1
sVcykpn82
p2280
I1
sVd8f0rkt
p2281
I1
sVdojdwzi
p2282
I1
sVdjchp1c
p2283
I2
sVdhn7ia9
p2284
I1
sVdsbxfbt
p2285
I1
sVdoi7skg
p2286
I1
sVd5wfg39
p2287
I1
sVdeaa7hw
p2288
I1
sVdiygdhz
p2289
I1
sVd1yt6il
p2290
I1
sVddzwzem
p2291
I2
sVdeg3qxu
p2292
I2
sVd1n9s3i
p2293
I1
sVdrx55da
p2294
I1
sVdqlk7m3
p2295
I1
sVdtihnia
p2296
I1
sVdam6qk0
p2297
I1
sVd3i6ntz
p2298
I1
sVddtoyi6
p2299
I1
sVdf4lqgi
p2300
I1
sVdd6423z
p2301
I1
sVdelxk2h
p2302
I1
sVd0v5pam
p2303
I1
sVdg92vnr
p2304
I1
sVd225oyn
p2305
I1
sVd2qegnz
p2306
I1
sVdbmovtb
p2307
I1
sVdgdqcjv
p2308
I1
sVdntaqqs
p2309
I1
sVd4xm31f
p2310
I5
sVdfwm4vl
p2311
I1
sVd2ndwou
p2312
I3
sVdccd4uo
p2313
I1
sVd15nmsi
p2314
I1
sVd9n0962
p2315
I2
sVd01d2yk
p2316
I1
sVdmf9a6j
p2317
I1
sVd10l48p
p2318
I2
sVdanuil5
p2319
I1
sVd05j6h4
p2320
I1
sVd7yh74d
p2321
I3
sVdi486qg
p2322
I1
sVd2jqdkq
p2323
I1
sVdd07lfy
p2324
I1
sVd27aixo
p2325
I1
sVd5dkpze
p2326
I1
sVd11qux4
p2327
I2
sVdkxzehy
p2328
I1
sVd9k5qja
p2329
I2
sVd58p4zg
p2330
I1
sVczyvzxq
p2331
I1
sVd0p6laz
p2332
I1
sVdc9ftr9
p2333
I1
sVd6co03h
p2334
I1
sVdrvp90c
p2335
I1
sVdftrciv
p2336
I1
sVd095j8k
p2337
I1
sVd8azacy
p2338
I1
sVdcydhqg
p2339
I1
sVdka866x
p2340
I3
sVdhzjq55
p2341
I1
sVdfnwlud
p2342
I1
sVd85olmk
p2343
I1
sVdnfmlfq
p2344
I1
sVdtc43uq
p2345
I1
sVd0u1zy8
p2346
I3
sVd6l0g8k
p2347
I1
sVcyswtbr
p2348
I1
sVd6sopwk
p2349
I1
sVd99e33g
p2350
I1
sVd1t02m5
p2351
I1
sVdas97z3
p2352
I1
sVdfray5g
p2353
I1
sVdfwqmxk
p2354
I1
sVd3ldew3
p2355
I1
sVd80hcvx
p2356
I1
sVdj4jgoy
p2357
I1
sVdon8oa5
p2358
I1
sVd8fj423
p2359
I1
sVdkcdroq
p2360
I1
sVdb8wrrz
p2361
I1
sVdg95mca
p2362
I1
sVcyoljrj
p2363
I2
sVd8qvboz
p2364
I1
sVdel9kbh
p2365
I1
sVd8ggseq
p2366
I1
sVd3lca8q
p2367
I1
sVd0num11
p2368
I1
sVdflv5z4
p2369
I3
sVcyo5lsf
p2370
I2
sVdcshw0p
p2371
I1
sVcz91gf8
p2372
I1
sVd0ntja2
p2373
I1
sVd20vgps
p2374
I1
sVdan8ji3
p2375
I1
sVdaq3hzq
p2376
I1
sVd23et7i
p2377
I1
sVd9rptrz
p2378
I1
sVdqd72tq
p2379
I1
sVdjeut0h
p2380
I1
sVdbhi56y
p2381
I1
sVdcdw9hr
p2382
I2
sVdsq4unm
p2383
I1
sVdkv4lvx
p2384
I1
sVdkpxm02
p2385
I1
sVd5ydqu5
p2386
I1
sVd5lnkvt
p2387
I1
sVdeliv5p
p2388
I1
sVd4f9df4
p2389
I1
sVcyvlbqm
p2390
I1
sVdpsl3ee
p2391
I1
sVddyo7jw
p2392
I2
sVd3pphvx
p2393
I1
sVczyzval
p2394
I1
sVdqwqfbv
p2395
I1
sVd23h9d3
p2396
I1
sVdmmvuen
p2397
I2
sVdho4tmj
p2398
I1
sVdggdpbm
p2399
I1
sVczx7toh
p2400
I1
sVd1b00vw
p2401
I1
sVdca6bjp
p2402
I1
sVd8umhe2
p2403
I2
sVczwitew
p2404
I1
sVd8rku7r
p2405
I1
sVdjpv9yl
p2406
I1
sVd0gzie8
p2407
I1
sVdjzwefh
p2408
I1
sVdhql68x
p2409
I2
sVdpti359
p2410
I2
sVddlb2cl
p2411
I1
sVdey0mji
p2412
I1
sVdq4zmav
p2413
I1
sVd70cexe
p2414
I1
sVd790b8l
p2415
I1
sVdk68rht
p2416
I1
sVd2tt7az
p2417
I2
sVd0hud3e
p2418
I1
sVd6y8h9z
p2419
I1
sVd9zpk0g
p2420
I2
sVd5b0mf8
p2421
I1
sVd8xsz1h
p2422
I2
sVdjvug9v
p2423
I2
sVd9vbs5w
p2424
I1
sVd6ptbpq
p2425
I1
sVd2kn2ep
p2426
I1
sVdgyuicf
p2427
I1
sVcz0h5dh
p2428
I1
sVd5d274i
p2429
I1
sVdnh9su7
p2430
I1
sVd67uh34
p2431
I2
sVddkzigo
p2432
I1
sVd06bw4o
p2433
I1
sVdi8y766
p2434
I1
sVdgov55u
p2435
I1
sVd9gq7yr
p2436
I1
sVd8lrhfz
p2437
I1
sVd7azsme
p2438
I2
sVdikf8qs
p2439
I1
sVd2kkrrf
p2440
I1
sVd6wgucs
p2441
I1
sVdtinth5
p2442
I1
sVdkqnqq3
p2443
I1
sVd4j2833
p2444
I1
sVd5i28f2
p2445
I1
sVdi3if4h
p2446
I1
sVd8s7mif
p2447
I1
sVcyhzayw
p2448
I1
sVczlmnfh
p2449
I1
sVd2tlfde
p2450
I1
sVdjnt18v
p2451
I1
sVdjma6dr
p2452
I2
sVd9myqfe
p2453
I1
sVddkfb6q
p2454
I1
sVda2d0ax
p2455
I1
sVd1fdm4y
p2456
I1
sVdpn626s
p2457
I1
sVd1nzinl
p2458
I1
sVd6sjjk1
p2459
I1
sVdh12byl
p2460
I1
sVd3nrch8
p2461
I1
sVdb55ura
p2462
I1
sVd7yps6x
p2463
I1
sVdg5dfou
p2464
I1
sVdgo77f5
p2465
I1
sVd3vn9l5
p2466
I1
sVczpnyn6
p2467
I1
sVde8v5r0
p2468
I3
sVdexrdrk
p2469
I1
sVd1j7h2j
p2470
I1
sVde9ffds
p2471
I1
sVd9i72iv
p2472
I5
sVdnu83oe
p2473
I1
sVd3je6r7
p2474
I1
sVczzcuq2
p2475
I1
sVdi5mak9
p2476
I1
sVdfl9s7j
p2477
I1
sVdeick8n
p2478
I1
sVdibouwe
p2479
I1
sVds57kqu
p2480
I4
sVdez8fx0
p2481
I1
sVdh5y97h
p2482
I1
sVd33sjv7
p2483
I2
sVd3nvk03
p2484
I1
sVdpsws2y
p2485
I1
sVd3k9j08
p2486
I1
sVczr16ns
p2487
I1
sVdd2alem
p2488
I1
sVd68uige
p2489
I1
sVdiqovrp
p2490
I1
sVdqmmx36
p2491
I1
sVdee4isz
p2492
I1
sVd82zzgz
p2493
I1
sVd8ipk19
p2494
I2
sVd87heuq
p2495
I1
sVdq08hqs
p2496
I3
sVd0glgn6
p2497
I1
sVdhngtrl
p2498
I1
sVczggcbn
p2499
I1
sVd9asqq3
p2500
I1
sVd2jufah
p2501
I1
sVd0ustof
p2502
I1
sVd36bbsx
p2503
I1
sVczd51xz
p2504
I3
sVd9hechk
p2505
I2
sVdnydk7l
p2506
I1
sVd65hli1
p2507
I3
sVdcsehwx
p2508
I1
sVd306725
p2509
I1
sVd7rfcwz
p2510
I3
sVdfm0aeh
p2511
I1
sVd0cvf2x
p2512
I1
sVdh3942z
p2513
I1
sVdcud1qu
p2514
I2
sVdhyrmcd
p2515
I2
sVde0zmx9
p2516
I1
sVdhvorjl
p2517
I1
sVdo200ch
p2518
I1
sVdc3i8qs
p2519
I1
sVcyzn024
p2520
I1
sVdgxt3fi
p2521
I2
sVdb94s0l
p2522
I3
sVdn7sc1y
p2523
I1
sVd3alb3w
p2524
I1
sVdb6ki1y
p2525
I4
sVdd191k3
p2526
I1
sVdr8yjju
p2527
I2
sVdfyn501
p2528
I1
sVd0lnqlt
p2529
I1
sVdficlj3
p2530
I1
sVczi7jhn
p2531
I1
sVdfj40j1
p2532
I1
sVd5avlo6
p2533
I1
sVdbl1bgy
p2534
I1
sVd1lw2df
p2535
I1
sVdi2qyj7
p2536
I1
sVd95p3r9
p2537
I2
sVd9r2072
p2538
I7
sVda7hl0o
p2539
I1
sVdby3ikl
p2540
I1
sVdbh9db8
p2541
I2
sVdj4lpui
p2542
I1
sVdhnifqc
p2543
I2
sVdjujaeo
p2544
I1
sVcztfr64
p2545
I1
sVdd8gv27
p2546
I1
sVdozjpgh
p2547
I2
sVd2i0sug
p2548
I1
sVdeotce3
p2549
I1
sVdb8fegb
p2550
I1
sVdijbagv
p2551
I2
sVcyhx7k2
p2552
I2
sVd00zeqy
p2553
I2
sVd3x4pbw
p2554
I1
sVd9rh0gc
p2555
I1
sVdh8ge6a
p2556
I1
sVdkjnwnv
p2557
I1
sVd2xqpzl
p2558
I1
sVdj4rger
p2559
I2
sVd8gnird
p2560
I1
sVdp1djl0
p2561
I1
sVd5ie9wf
p2562
I1
sVd9k0bw0
p2563
I1
sVd45x4be
p2564
I1
sVcz05853
p2565
I2
sVdbc941r
p2566
I3
sVdnbcax2
p2567
I1
sVd8krpcu
p2568
I2
sVd3rz8cs
p2569
I2
sVd00d09k
p2570
I1
sVdauw2cf
p2571
I1
sVcz3xv9m
p2572
I1
sVdhnx39y
p2573
I1
sVd21jhrf
p2574
I2
sVd5wwvky
p2575
I1
sVde2s4b0
p2576
I1
sVdqcjxf9
p2577
I1
sVdsmdrzv
p2578
I1
sVdj4h3cs
p2579
I1
sVd39wb0u
p2580
I1
sVd1og6gn
p2581
I1
sVd4jxlit
p2582
I3
sVd38adyg
p2583
I1
sVddzp1yy
p2584
I2
sVdsk7pgy
p2585
I1
sVdjn0au3
p2586
I1
sVddyatcl
p2587
I1
sVddmn0py
p2588
I2
sVd2rsaud
p2589
I1
sVd0ja1rp
p2590
I1
sVd2w9vpo
p2591
I1
sVdc73isi
p2592
I2
sVd5zowpz
p2593
I2
sVdmnkab8
p2594
I1
sVdfim9l6
p2595
I1
sVdpuod92
p2596
I2
sVd5z9dam
p2597
I1
sVdi9ce1g
p2598
I1
sVd0unkmv
p2599
I2
sVd1wwo0e
p2600
I1
sVdhyh6np
p2601
I2
sVdomuumv
p2602
I1
sVderdfp1
p2603
I1
sVdao9ey0
p2604
I1
sVddzqsee
p2605
I1
sVd23pqu2
p2606
I1
sVdkj6oug
p2607
I1
sVdehq72d
p2608
I3
sVdagvd8q
p2609
I2
sVdbeqy8s
p2610
I1
sVdgb9tmf
p2611
I1
sVdn45tnb
p2612
I1
sVdghlmnt
p2613
I1
sVdqnh9ym
p2614
I2
sVd40hs94
p2615
I1
sVd00ditk
p2616
I1
sVdf30wwf
p2617
I1
sVdavlw80
p2618
I1
sVdaad9e1
p2619
I1
sVd0gdz1i
p2620
I2
sVd5zeo85
p2621
I1
sVdicl9pn
p2622
I1
sVd1mbhya
p2623
I3
sVdbooh6z
p2624
I1
sVdanoo6v
p2625
I1
sVdk33ily
p2626
I1
sVczp8l9r
p2627
I1
sVdo7vgmg
p2628
I1
sVcyxkr9b
p2629
I1
sVdhrs6en
p2630
I1
sVd05yft3
p2631
I1
sVdf62z9i
p2632
I1
sVdfxsp94
p2633
I1
sVdf3t352
p2634
I1
sVdcvlh9s
p2635
I1
sVdfzw9kb
p2636
I1
sVd6bklyh
p2637
I2
sVdhzuegv
p2638
I3
sVd9friws
p2639
I6
sVd1p0c11
p2640
I1
sVd0alej7
p2641
I1
sVdeccu42
p2642
I1
sVdqnxpvt
p2643
I1
sVdq4376o
p2644
I3
sVddwgdu6
p2645
I1
sVd1v29cs
p2646
I1
sVd6b9kjy
p2647
I2
sVdarfvgr
p2648
I1
sVd9smt09
p2649
I2
sVdn2kbj1
p2650
I1
sVd1gbyd1
p2651
I1
sVczvkb0h
p2652
I1
sVdknub6d
p2653
I1
sVd9gv0ad
p2654
I1
sVd5hkt51
p2655
I1
sVcz5fne3
p2656
I1
sVd05nfss
p2657
I1
sVd6rkjl1
p2658
I1
sVdap7qck
p2659
I1
sVd54vpyj
p2660
I1
sVdixzt9u
p2661
I1
sVd884x0n
p2662
I2
sVdr4yhff
p2663
I1
sVdikesm9
p2664
I2
sVd78htio
p2665
I1
sVdk9mu2d
p2666
I2
sVd1yw58y
p2667
I1
sVd3bn0rj
p2668
I1
sVcz6pzei
p2669
I1
sVdjmj202
p2670
I1
sVd7e2dtq
p2671
I2
sVd9pfghs
p2672
I1
sVdcusxaw
p2673
I1
sVczl7xug
p2674
I1
sVd6inx8i
p2675
I1
sVdk00uey
p2676
I1
sVdj189nd
p2677
I3
sVd312rg6
p2678
I1
sVdd7hw1r
p2679
I1
sVdkog86m
p2680
I1
sVdkx7x75
p2681
I1
sVdbpfuya
p2682
I1
sVczm0rbc
p2683
I1
sVd0tf3vr
p2684
I1
sVd14iy8r
p2685
I1
sVd2a8odq
p2686
I1
sVdfnh3nj
p2687
I2
sVd8u5luz
p2688
I1
sVd6crfb5
p2689
I2
sVdnsz382
p2690
I1
sVd1ckeue
p2691
I1
sVdfhdn70
p2692
I1
sVcyy5waz
p2693
I1
sVd20k5a8
p2694
I2
sVdo63a5x
p2695
I3
sVdcgdsp7
p2696
I1
sVd5fqyy3
p2697
I1
sVcyub0pj
p2698
I1
sVcznnh64
p2699
I2
sVdju9isl
p2700
I1
sVd6ewfny
p2701
I3
sVdnfit45
p2702
I1
sVdo25ekl
p2703
I1
sVd17r19e
p2704
I2
sVdof3skz
p2705
I1
sVd95tpxl
p2706
I2
sVdeyne26
p2707
I3
sVd23u14j
p2708
I1
sVd50t39g
p2709
I1
sVczp5gqi
p2710
I3
sVdkufru5
p2711
I2
sVd7dh78b
p2712
I1
sVcz2s8e8
p2713
I1
sVd443dp4
p2714
I1
sVdrrko59
p2715
I1
sVdrvpodn
p2716
I1
sVdng9z84
p2717
I1
sVdp9w2yp
p2718
I1
sVd95ljj1
p2719
I1
sVcza0loo
p2720
I1
sVd6vku8j
p2721
I1
sVcyuyolj
p2722
I1
sVditz934
p2723
I1
sVdmxb43k
p2724
I1
sVdaw8ko2
p2725
I1
sVddt9kya
p2726
I2
sVdoyyxad
p2727
I1
sVd4b53ak
p2728
I1
sVddi2ipa
p2729
I1
sVd9t41gk
p2730
I1
sVd8ymr1o
p2731
I1
sVd8i4qcn
p2732
I1
sVd9fx3jc
p2733
I2
sVd02wrfn
p2734
I1
sVdepzu64
p2735
I2
sVdg90orl
p2736
I2
sVd4gzvdv
p2737
I2
sVd0lkzvm
p2738
I1
sVd7mbziu
p2739
I1
sVdc2ojsf
p2740
I1
sVdpwajpc
p2741
I1
sVdattz96
p2742
I1
sVdohnygp
p2743
I1
sVdfvvxgr
p2744
I2
sVdavrbpy
p2745
I1
sVdn2dm0b
p2746
I1
sVd1zqtdg
p2747
I1
sVczf1pev
p2748
I2
sVdhn9cf3
p2749
I1
sVczyt69w
p2750
I5
sVd7mcy4l
p2751
I1
sVczxl60t
p2752
I2
sVddao129
p2753
I1
sVdjxz6sb
p2754
I2
sVd30tp8w
p2755
I1
sVd2yspm8
p2756
I1
sVd9x2yld
p2757
I3
sVd934g0g
p2758
I1
sVczb1dhf
p2759
I3
sVdi3hvwy
p2760
I1
sVdeopydm
p2761
I1
sVde9hfi7
p2762
I1
sVd2a4sxx
p2763
I2
sVdfnb3aq
p2764
I1
sVdbsyvjy
p2765
I1
sVdcrlju1
p2766
I1
sVcyq4j1n
p2767
I1
sVd656lkw
p2768
I1
sVdcwd23q
p2769
I1
sVdaca1jh
p2770
I1
sVcyrbmsm
p2771
I1
sVdneeokf
p2772
I1
sVdadidr8
p2773
I3
sVdh0majr
p2774
I1
sVdix19kf
p2775
I1
sVd4or4v6
p2776
I1
sVd21o7gx
p2777
I2
sVd7fihpk
p2778
I1
sVd3dt301
p2779
I2
sVd3n2ydt
p2780
I1
sVdfyusm8
p2781
I1
sVd9vxiqr
p2782
I1
sVdi7ggmu
p2783
I1
sVdhgblbe
p2784
I1
sVd8dbw25
p2785
I1
sVd9mresf
p2786
I1
sVd9enx6w
p2787
I1
sVddhdnfi
p2788
I1
sVcz2mqqm
p2789
I1
sVdq0vwfs
p2790
I2
sVdhle5ba
p2791
I4
sVdbmvjmo
p2792
I1
sVdsrpvk6
p2793
I1
sVdr1l4p0
p2794
I1
sVdezrw6d
p2795
I1
sVczz39e7
p2796
I1
sVdjtq5y9
p2797
I1
sVdotpz4c
p2798
I1
sVd76izov
p2799
I1
sVd8pejco
p2800
I2
sVcylwaj0
p2801
I1
sVcz7p588
p2802
I1
sVd1yawgc
p2803
I2
sVdgqho1e
p2804
I1
sVd9ied5z
p2805
I1
sVdchkfna
p2806
I1
sVdd8y1js
p2807
I1
sVdt8jukh
p2808
I1
sVd3ld9s7
p2809
I1
sVdfu3apu
p2810
I1
sVd01b1cp
p2811
I2
sVdjmvf6x
p2812
I1
sVcz51har
p2813
I1
sVdeqrueg
p2814
I1
sVdeptjmy
p2815
I1
sVdpn3qo9
p2816
I1
sVdny6pjg
p2817
I1
sVdgk1w1u
p2818
I1
sVcze4w7a
p2819
I1
sVcz1bvzh
p2820
I1
sVd6hcqz3
p2821
I1
sVdgkc2rt
p2822
I1
sVd30vbei
p2823
I1
sVdek5phx
p2824
I1
sVd37grcy
p2825
I1
sVd5r2tau
p2826
I2
sVdd8fbb8
p2827
I1
sVdi7bqgc
p2828
I2
sVde36yyl
p2829
I1
sVd9l8dk1
p2830
I1
sVdjq9z3p
p2831
I1
sVd6gbhna
p2832
I2
sVcyw2e7f
p2833
I1
sVdcie24s
p2834
I1
sVdnp9wju
p2835
I1
sVdbngcog
p2836
I1
sVd8oyq0n
p2837
I1
sVdmrmziy
p2838
I1
sVd6kwfwv
p2839
I1
sVdgj0okv
p2840
I1
sVd7e1umx
p2841
I1
sVd9k8ha0
p2842
I3
sVdetyafw
p2843
I1
sVd3r3m3p
p2844
I1
sVdtdshjw
p2845
I1
sVdrv3nsk
p2846
I1
sVdbp3r4m
p2847
I1
sVdjuoh3a
p2848
I3
sVd41fiif
p2849
I1
sVdfnq2e5
p2850
I1
sVdbja0bg
p2851
I2
sVdhqhv2m
p2852
I2
sVdh4mkoz
p2853
I1
sVdeq76ku
p2854
I1
sVd63h4ef
p2855
I1
sVd92a8ek
p2856
I1
sVczaqbai
p2857
I1
sVd919mlu
p2858
I2
sVcyhv6tp
p2859
I1
sVd6clc22
p2860
I1
sVdbn1l4c
p2861
I1
sVd8ekixb
p2862
I1
sVczox3uq
p2863
I1
sVdhq4nek
p2864
I1
sVd5m01os
p2865
I3
sVdpyyl3k
p2866
I1
sVdj2vi13
p2867
I1
sVdhf47lw
p2868
I1
sVdro57jn
p2869
I1
sVdd5036d
p2870
I2
sVd3d40my
p2871
I1
sVdrzoolq
p2872
I1
sVd0nu01x
p2873
I1
sVdi6v671
p2874
I1
sVd035o3h
p2875
I1
sVd4kydnj
p2876
I4
sVdgi402n
p2877
I2
sVd9mwdod
p2878
I2
sVdb378u6
p2879
I1
sVd3es8vi
p2880
I1
sVdo8umk6
p2881
I2
sVd8fvvba
p2882
I1
sVd2u1tdd
p2883
I1
sVdck2ic5
p2884
I2
sVdk8xj3j
p2885
I1
sVdb54rat
p2886
I1
sVczf3xjm
p2887
I1
sVdp2qn2w
p2888
I1
sVdg8eg6t
p2889
I1
sVdknyox6
p2890
I1
sVdbmdkib
p2891
I1
sVd01laxl
p2892
I1
sVdjjj928
p2893
I1
sVdfk0khf
p2894
I1
sVdpx463m
p2895
I1
sVdavmorx
p2896
I2
sVdhxhxnx
p2897
I2
sVd49ci5g
p2898
I1
sVde2ibub
p2899
I2
sVdjxse1c
p2900
I2
sVd670bet
p2901
I2
sVdrqvw1y
p2902
I1
sVd4o1h9t
p2903
I1
sVdsfuuyb
p2904
I1
sVdmsaxcw
p2905
I1
sVcyhu344
p2906
I1
sVdhq5dar
p2907
I1
sVd1dm38t
p2908
I1
sVdsyvdl8
p2909
I1
sVdipnr48
p2910
I1
sVdq64oj0
p2911
I1
sVdrhj12w
p2912
I1
sVcyuu51w
p2913
I1
sVdc9eypb
p2914
I4
sVd4wkcri
p2915
I4
sVdsl8nea
p2916
I1
sVdkdgt1y
p2917
I1
sVczhmxa9
p2918
I1
sVd7wrxka
p2919
I1
sVd65p7on
p2920
I1
sVd3td6r6
p2921
I1
sVd36etfw
p2922
I1
sVdi3ggoc
p2923
I1
sVdq7b3q3
p2924
I1
sVdaq4ru7
p2925
I1
sVd46dnuu
p2926
I1
sVczz8gtj
p2927
I1
sVd4i7mah
p2928
I1
sVczxvkk8
p2929
I1
sVd7kg86z
p2930
I1
sVd19hipq
p2931
I1
sVdbctaha
p2932
I1
sVdtia0dp
p2933
I1
sVd6kt71g
p2934
I1
sVddfaxqu
p2935
I1
sVd3qxyeq
p2936
I1
sVd1ivk1g
p2937
I1
sVdg2js3u
p2938
I1
sVdhoii2k
p2939
I1
sVd0nvk16
p2940
I1
sVdky6kos
p2941
I1
sVd2uxdh3
p2942
I1
sVd98v9z9
p2943
I1
sVd4cs1zz
p2944
I1
sVdcmfrhn
p2945
I1
sVdotkcjy
p2946
I1
sVdcri4tw
p2947
I1
sVd5zq0gp
p2948
I6
sVczjefop
p2949
I1
sVd03ko2z
p2950
I1
sVde98b46
p2951
I2
sVdcl262v
p2952
I1
sVdra3h9x
p2953
I2
sVd2wt4s3
p2954
I1
sVdtii0al
p2955
I2
sVd5oq2ol
p2956
I2
sVddgrfef
p2957
I1
sVd63l6k3
p2958
I1
sVddk64iq
p2959
I1
sVd2udn77
p2960
I1
sVdgtc8ql
p2961
I1
sVd9bknzl
p2962
I1
sVcz6mymm
p2963
I1
sVd7phxe2
p2964
I1
sVczq07ci
p2965
I3
sVden3s59
p2966
I1
sVd67l42e
p2967
I1
sVdie3dvo
p2968
I2
sVczmbcgt
p2969
I1
sVd0ivhxv
p2970
I1
sVdawzuhg
p2971
I2
sVcyyhbco
p2972
I1
sVdnz2fsi
p2973
I2
sVdcidlej
p2974
I1
sVd705atw
p2975
I1
sVd5q0yuc
p2976
I1
sVdeadikc
p2977
I1
sVdcx0dpp
p2978
I1
sVdjho021
p2979
I2
sVdk2l1j3
p2980
I1
sVd84rdbz
p2981
I1
sVdecgbi5
p2982
I1
sVd2h3r7g
p2983
I1
sVd0f8ah7
p2984
I2
sVdjltk4n
p2985
I1
sVdoln6nv
p2986
I5
sVd5ummuq
p2987
I1
sVdmx5r1s
p2988
I1
sVd4vbn90
p2989
I2
sVdqo4hyy
p2990
I1
sVd9y7jtm
p2991
I1
sVcz11inj
p2992
I1
sVd3wt262
p2993
I1
sVdbn7hwb
p2994
I1
sVdenvsib
p2995
I1
sVczd0rn4
p2996
I1
sVdgto9ey
p2997
I3
sVdoa5cep
p2998
I1
sVd1wemvd
p2999
I1
sVdbeanec
p3000
I1
sVd4amriq
p3001
I2
sVdeyvr9d
p3002
I1
sVdbifpps
p3003
I3
sVd6cqnem
p3004
I1
sVdp7qwjt
p3005
I1
sVd592225
p3006
I1
sVcyrcvy1
p3007
I1
sVdixkgew
p3008
I1
sVdf1xjup
p3009
I1
sVdgdre5y
p3010
I1
sVd0v6ryw
p3011
I1
sVcz5fggs
p3012
I1
sVddm7bo3
p3013
I1
sVd8g6f70
p3014
I3
sVdmh7sh5
p3015
I1
sVd8vtja6
p3016
I1
sVd5nrugv
p3017
I2
sVdbwg2hh
p3018
I1
sVcyp7h4q
p3019
I1
sVd6mkq1k
p3020
I1
sVde1mzzp
p3021
I2
sVdn566ck
p3022
I1
sVdcgjn1i
p3023
I1
sVcyjcws3
p3024
I1
sVd9zukwp
p3025
I2
sVd2w7ilr
p3026
I1
sVd8u5pkj
p3027
I1
sVdtb5uee
p3028
I3
sVd2jaqo0
p3029
I1
sVd4e82m7
p3030
I2
sVd40r2v3
p3031
I1
sVde0jz7f
p3032
I1
sVd9grq05
p3033
I1
sVdauyuex
p3034
I3
sVd8idb49
p3035
I1
sVd1qyhuw
p3036
I1
sVdfe0eyg
p3037
I5
sVd5xcgd9
p3038
I1
sVdb53dna
p3039
I1
sVdccgr4j
p3040
I1
sVd8t1owi
p3041
I1
sVdj72h38
p3042
I4
sVdjif09l
p3043
I1
sVdadpoiu
p3044
I2
sVd78sky9
p3045
I1
sVdsfd911
p3046
I1
sVdb5i2z7
p3047
I1
sVdbpj0f7
p3048
I1
sVdmw9bxp
p3049
I1
sVdhhsb7t
p3050
I1
sVd5ivt8o
p3051
I1
sVd30xudq
p3052
I1
sVd0gwdqm
p3053
I2
sVd3zlab3
p3054
I1
sVdk587f4
p3055
I2
sVd9cf6vl
p3056
I1
sVd2vpq3p
p3057
I1
sVddj8wsg
p3058
I3
sVd8w4rbe
p3059
I1
sVd219l8t
p3060
I2
sVdbx3gx7
p3061
I1
sVd5avdkn
p3062
I1
sVdit7g2z
p3063
I1
sVdcpnjqg
p3064
I2
sVd9d0jst
p3065
I1
sVde07qr7
p3066
I1
sVd28jj8c
p3067
I1
sVdi2slms
p3068
I1
sVd4a6mxk
p3069
I1
sVd7sg7es
p3070
I2
sVd1o51dg
p3071
I1
sVdrlw7lg
p3072
I3
sVdjnq95h
p3073
I2
sVdbkp8am
p3074
I1
sVdjna76b
p3075
I1
sVd6cr58g
p3076
I1
sVd3h5sq1
p3077
I1
sVd4bdyoo
p3078
I1
sVczmcxm9
p3079
I2
sVd79su7g
p3080
I1
sVdi6z6ub
p3081
I1
sVdkskpdw
p3082
I1
sVdipl9dy
p3083
I1
sVd1fuz85
p3084
I1
sVdszabxt
p3085
I1
sVczs3p5a
p3086
I1
sVd38ifyq
p3087
I1
sVdan1yg2
p3088
I2
sVdoqcmfn
p3089
I1
sVd7y759d
p3090
I1
sVdheufe0
p3091
I5
sVd2jca1z
p3092
I2
sVdidqgjc
p3093
I1
sVd2x8471
p3094
I1
sVdnlwrah
p3095
I1
sVd2q3cvu
p3096
I1
sVdeqaw5k
p3097
I3
sVdpxvxuw
p3098
I1
sVdjclkaz
p3099
I1
sVd6sf1ew
p3100
I1
sVdpe57w4
p3101
I1
sVd6pmruj
p3102
I2
sVdd8b0yu
p3103
I1
sVd3944sv
p3104
I1
sVdhorirl
p3105
I1
sVderdt7r
p3106
I1
sVd9yek53
p3107
I1
sVdjzgzwl
p3108
I1
sVd7tl67u
p3109
I1
sVdikma06
p3110
I1
sVd4mkt5e
p3111
I1
sVdgkglag
p3112
I1
sVdhryk7w
p3113
I1
sVdhame66
p3114
I1
sVdnpsaey
p3115
I2
sVd87vni6
p3116
I2
sVdjp8icq
p3117
I1
sVdc2inr6
p3118
I1
sVdg23hve
p3119
I1
sVd3hdg3p
p3120
I1
sVdgivw2o
p3121
I1
sVcyrtmnp
p3122
I2
sVd4eafb2
p3123
I1
sVdh5wasv
p3124
I1
sVdcaav6h
p3125
I8
sVd05y14c
p3126
I1
sVd5vtk33
p3127
I1
sVd0ljxou
p3128
I2
sVd2uu2y2
p3129
I1
sVd33gwp3
p3130
I1
sVd0rpl38
p3131
I3
sVds7f9a5
p3132
I1
sVdhh2dap
p3133
I2
sVddclaff
p3134
I1
sVd8szejv
p3135
I1
sVdcc9x3f
p3136
I3
sVdkkn1q6
p3137
I1
sVdco207k
p3138
I2
sVdqt71w3
p3139
I1
sVdswby1q
p3140
I2
sVdmvv83p
p3141
I1
sVditkpa5
p3142
I1
sVcz35m52
p3143
I1
sVd6kf7u3
p3144
I1
sVdmv7nii
p3145
I1
sVd757f33
p3146
I1
sVd0elj0d
p3147
I1
sVd5hfl1l
p3148
I1
sVd9i417n
p3149
I5
sVd5rtcxw
p3150
I1
sVd4jmdun
p3151
I1
sVd89e2pq
p3152
I1
sVdetu3pi
p3153
I1
sVd4o28f4
p3154
I1
sVdkm3xho
p3155
I1
sVdr95uvj
p3156
I2
sVdb21lu9
p3157
I1
sVdchkcc2
p3158
I1
sVdibpcrz
p3159
I3
sVcyp85f5
p3160
I1
sVd3w79gg
p3161
I1
sVdag055l
p3162
I2
sVd4bflqv
p3163
I1
sVd0ldnsh
p3164
I1
sVdnnlcmf
p3165
I1
sVd3a9820
p3166
I1
sVd8kdwf2
p3167
I1
sVcyuvxpc
p3168
I1
sVd6ffh0u
p3169
I1
sVd6c3lk7
p3170
I2
sVd0mbjqi
p3171
I2
sVdqh564v
p3172
I4
sVdf1zyne
p3173
I2
sVdjgqfz3
p3174
I1
sVdegyzs8
p3175
I1
sVd110m7s
p3176
I1
sVczylwfm
p3177
I1
sVdirejn1
p3178
I3
sVdill1uq
p3179
I1
sVd4kvc1z
p3180
I1
sVd2o651y
p3181
I2
sVdhohfjy
p3182
I1
sVd15feyr
p3183
I1
sVdkgvu7g
p3184
I4
sVd5m27g8
p3185
I1
sVdsbvohz
p3186
I1
sVd1wak89
p3187
I1
sVdt7m7n3
p3188
I7
sVd0rbi0p
p3189
I1
sVd4t4nrb
p3190
I2
sVdjuphau
p3191
I1
sVdch78cn
p3192
I2
sVdcmc1tb
p3193
I1
sVd8xjegt
p3194
I1
sVd70sjid
p3195
I1
sVdb6n4ce
p3196
I1
sVd9cwsab
p3197
I2
sVdimhsfo
p3198
I1
sVdnddel8
p3199
I2
sVddwbs2k
p3200
I14
sVd6xu480
p3201
I1
sVd1n477g
p3202
I1
sVcyrvtiu
p3203
I1
sVd8w7wc6
p3204
I1
sVdceuo4k
p3205
I1
sVdadr3ov
p3206
I3
sVd778ugx
p3207
I1
sVczsg1m7
p3208
I1
sVdcuafki
p3209
I1
sVdifyc95
p3210
I1
sVd05tcvi
p3211
I1
sVddv29rg
p3212
I1
sVdt61rq3
p3213
I1
sVd5i4lpc
p3214
I1
sVd5i08gl
p3215
I2
sVd39kr79
p3216
I1
sVdopnlnf
p3217
I2
sVd3ls57d
p3218
I1
sVdpsb9mr
p3219
I1
sVdo8450b
p3220
I1
sVdgfavlu
p3221
I2
sVd9lrbqj
p3222
I2
sVdbz3luh
p3223
I1
sVd3mbmc9
p3224
I1
sVdkviqyt
p3225
I1
sVdpjfv97
p3226
I1
sVdi3jump
p3227
I2
sVd7rg2vf
p3228
I4
sVd3pw45n
p3229
I1
sVdmpllk9
p3230
I1
sVdqa2vjn
p3231
I1
sVd04n5qh
p3232
I1
sVd5evs7s
p3233
I1
sVdkt8aew
p3234
I1
sVd2yxix6
p3235
I1
sVdijtoy9
p3236
I1
sVdi9yv3m
p3237
I1
sVdnuiul0
p3238
I3
sVcyul4lv
p3239
I1
sVdcw9zkg
p3240
I1
sVdj1b8qb
p3241
I1
sVd2sotqp
p3242
I1
sVdflun74
p3243
I2
sVd5tckd5
p3244
I5
sVd703nyp
p3245
I1
sVdbxmd3k
p3246
I1
sVdtgq3r5
p3247
I2
sVdb090uu
p3248
I1
sVd1nmkzi
p3249
I1
sVd2nfv47
p3250
I1
sVdirw10i
p3251
I1
sVd99tawd
p3252
I1
sVd73dqvq
p3253
I1
sVdag40zm
p3254
I1
sVdaexdum
p3255
I1
sVd03hs1c
p3256
I1
sVd5mq0iw
p3257
I1
sVd6p4gr3
p3258
I1
sVd21gjf1
p3259
I1
sVdh1uhvv
p3260
I1
sVd5ygjfx
p3261
I1
sVdqxqkg0
p3262
I1
sVdi0onul
p3263
I3
sVd1n29c3
p3264
I1
sVdth4rod
p3265
I1
sVdsz0k7d
p3266
I1
sVdcwrpxh
p3267
I1
sVdq2z895
p3268
I1
sVdgxewqi
p3269
I2
sVdgsb2wn
p3270
I1
sVd9c44zj
p3271
I1
sVdjnoxth
p3272
I1
sVdnvepvr
p3273
I1
sVdcjyftv
p3274
I1
sVd134hsq
p3275
I1
sVdjdk2w6
p3276
I3
sVcykdn04
p3277
I1
sVdqhmm26
p3278
I3
sVdjyfz0r
p3279
I6
sVdb3r8ev
p3280
I2
sVd2z8ze3
p3281
I1
sVdoliq65
p3282
I1
sVdspaxuu
p3283
I3
sVd2ze07l
p3284
I1
sVdb8pkr7
p3285
I1
sVd9pprfk
p3286
I1
sVdg5wl4x
p3287
I1
sVdj369z7
p3288
I1
sVdbnb7d7
p3289
I1
sVd0h9x5o
p3290
I1
sVdat0i51
p3291
I1
sVdctncaa
p3292
I1
sVdh9r1tw
p3293
I1
sVdsd2ovg
p3294
I1
sVdo1d3tl
p3295
I1
sVd1rhmnl
p3296
I1
sVd2yqmz9
p3297
I1
sVd94730j
p3298
I1
sVd9uf3xp
p3299
I1
sVd5a3maw
p3300
I1
sVdhniwot
p3301
I1
sVdgmnrzk
p3302
I1
sVd3n2p61
p3303
I1
sVdh22qw8
p3304
I2
sVd1sh4zm
p3305
I1
sVd2ucz4t
p3306
I1
sVd814dep
p3307
I1
sVddj0ap8
p3308
I1
sVd07deke
p3309
I1
sVda2z4y9
p3310
I1
sVdmom7ue
p3311
I1
sVd60ex83
p3312
I1
sVdctbtdo
p3313
I1
sVd61nmf7
p3314
I1
sVd3xi7x5
p3315
I1
sVdhtf4v9
p3316
I1
sVddanpls
p3317
I1
sVd98mq4u
p3318
I1
sVcz73dgd
p3319
I1
sVdmoqaji
p3320
I1
sVdbewhlm
p3321
I1
sVd0eqje6
p3322
I2
sVddzmoqo
p3323
I1
sVczkk1zb
p3324
I2
sVdeuf7w3
p3325
I2
sVd96whbp
p3326
I1
sVd2i1zd3
p3327
I1
sVd7zul9o
p3328
I1
sVdcqg6uz
p3329
I1
sVdojgdmh
p3330
I1
sVdji5zmt
p3331
I2
sVd3r7yic
p3332
I2
sVdffh0bz
p3333
I1
sVdnu364n
p3334
I1
sVd19530g
p3335
I2
sVdi4c81d
p3336
I1
sVd6pnww0
p3337
I1
sVd1x1gos
p3338
I1
sVdjmf7tb
p3339
I1
sVdgio4ze
p3340
I2
sVdh0x24e
p3341
I1
sVdgfu4lv
p3342
I1
sVddf4iha
p3343
I1
sVde5n17n
p3344
I1
sVcypn2dq
p3345
I1
sVcyy4pbc
p3346
I1
sVdait9nw
p3347
I2
sVdgphhjb
p3348
I1
sVd0g770z
p3349
I3
sVdhtgbzi
p3350
I1
sVcznj40c
p3351
I1
sVdgy5yh5
p3352
I1
sVdk980xg
p3353
I3
sVd9jnurc
p3354
I1
sVd95zrds
p3355
I1
sVd5vp6do
p3356
I1
sVde7cboo
p3357
I1
sVd73czsc
p3358
I1
sVdcw2uao
p3359
I1
sVden725c
p3360
I1
sVdd3ygj5
p3361
I1
sVdceynnh
p3362
I1
sVd1mk8a1
p3363
I3
sVd5cr3vi
p3364
I4
sVd0pkxse
p3365
I1
sVdcdkn5h
p3366
I1
sVd10paqr
p3367
I1
sVddhveeo
p3368
I1
sVd858ojf
p3369
I1
sVd8dlupx
p3370
I1
sVd88uq9m
p3371
I1
sVcynfluc
p3372
I1
sVd15au4l
p3373
I2
sVdgmeq54
p3374
I1
sVdcuc3ye
p3375
I1
sVdrnzv9h
p3376
I2
sVda80nyc
p3377
I1
sVdflysg4
p3378
I1
sVdo928jr
p3379
I1
sVd7p9l96
p3380
I1
sVdks6h2n
p3381
I1
sVd5mglrm
p3382
I1
sVdab2rjz
p3383
I1
sVd58yjag
p3384
I4
sVd5urfdi
p3385
I1
sVdb1cmow
p3386
I2
sVd191s1p
p3387
I1
sVd7echwq
p3388
I1
sVd0sihod
p3389
I1
sVd95nmkg
p3390
I2
sVd4b9r2j
p3391
I1
sVdrqb78w
p3392
I1
sVd8m62yj
p3393
I2
sVd61jrw9
p3394
I1
sVd38nvee
p3395
I2
sVd6665u9
p3396
I3
sVd4qy1jf
p3397
I1
sVdb0earl
p3398
I1
sVdk8r870
p3399
I1
sVd3td7fl
p3400
I2
sVczs7pix
p3401
I1
sVd4zfvm2
p3402
I2
sVd90jgd8
p3403
I1
sVd9pgxxi
p3404
I1
sVdecei6b
p3405
I1
sVdfope3q
p3406
I1
sVcymvcum
p3407
I1
sVd2usint
p3408
I2
sVcyqef8u
p3409
I1
sVcysjp49
p3410
I1
sVde32104
p3411
I3
sVdarfykv
p3412
I3
sVdkdxhiv
p3413
I1
sVcz4e85b
p3414
I1
sVddx3lpc
p3415
I1
sVdhblmf8
p3416
I3
sVd0vpc67
p3417
I1
sVdbgilug
p3418
I1
sVds2puzd
p3419
I3
sVd9t8ii2
p3420
I1
sVdh17dgz
p3421
I1
sVdiml1h5
p3422
I1
sVdamut4a
p3423
I1
sVd9d3rdf
p3424
I1
sVd3d1ivb
p3425
I1
sVdoiwmf0
p3426
I1
sVdphnkug
p3427
I1
sVd0shncn
p3428
I2
sVd8wz9fk
p3429
I1
sVd9ud7gt
p3430
I1
sVd1bpcxm
p3431
I1
sVdf0h3qa
p3432
I2
sVd2fu5o2
p3433
I1
sVd446u94
p3434
I1
sVdapg7o2
p3435
I1
sVd75a66k
p3436
I1
sVcyxplxo
p3437
I1
sVd1isnjm
p3438
I1
sVdps3gei
p3439
I1
sVd21igf5
p3440
I1
sVdggyn0u
p3441
I2
sVd4ugclv
p3442
I1
sVdeconcc
p3443
I1
sVdcapgiy
p3444
I1
sVd8c1f7o
p3445
I1
sVd3yxzmd
p3446
I1
sVd66oyg1
p3447
I1
sVdawwhqu
p3448
I1
sVd7rdp5u
p3449
I3
sVda9hbhx
p3450
I1
sVd8vumuq
p3451
I1
sVdayr16h
p3452
I1
sVd8ahiud
p3453
I1
sVdmvqm5y
p3454
I1
sVdmk0qpg
p3455
I1
sVd7xskcm
p3456
I1
sVd6jdwdy
p3457
I2
sVdhcynvi
p3458
I3
sVd4plu9a
p3459
I2
sVdccl7de
p3460
I1
sVdc4c4o8
p3461
I3
sVd50gp0j
p3462
I1
sVd97kr1s
p3463
I1
sVddf73a7
p3464
I1
sVd9so35c
p3465
I2
sVd9k13t1
p3466
I1
sVdhwisq0
p3467
I2
sVd27eypz
p3468
I1
sVdf1wfd3
p3469
I1
sVd7vo6fi
p3470
I2
sVdfr20f2
p3471
I1
sVdb1xd40
p3472
I1
sVd1dmwbc
p3473
I1
sVdb686w5
p3474
I1
sVd0mtk1f
p3475
I2
sVdbt9ghg
p3476
I1
sVd917v8x
p3477
I1
sVd6x9zjv
p3478
I2
sVd3s1w9u
p3479
I1
sVda0lebz
p3480
I1
sVd97hcaj
p3481
I2
sVd1tbczu
p3482
I1
sVd2ej1yo
p3483
I1
sVd90sqhv
p3484
I1
sVdixl55q
p3485
I2
sVd9y55vu
p3486
I3
sVdh2ic91
p3487
I1
sVd2ia400
p3488
I2
sVdcxkjv8
p3489
I1
sVdh7yc88
p3490
I1
sVdctbmlh
p3491
I1
sVd9heu79
p3492
I1
sVdau1b3b
p3493
I1
sVd6ctyiw
p3494
I2
sVdn2vbaj
p3495
I1
sVdetxy23
p3496
I2
sVczcsum3
p3497
I1
sVdieboco
p3498
I1
sVdh68uep
p3499
I2
sVdau7abs
p3500
I1
sVdj07rvc
p3501
I1
sVdqmiss9
p3502
I1
sVdapchh1
p3503
I1
sVdg8djf9
p3504
I1
sVd5929tj
p3505
I1
sVdgzatgh
p3506
I2
sVd62s54t
p3507
I1
sVdgojmgq
p3508
I1
sVdpx97z0
p3509
I2
sVcytwvos
p3510
I2
sVdjz3jtg
p3511
I1
sVd1sbrxr
p3512
I1
sVdot4cep
p3513
I6
sVdob3tl4
p3514
I1
sVdas92mt
p3515
I1
sVdg8cn2g
p3516
I1
sVd6zgo6r
p3517
I1
sVd858a4w
p3518
I1
sVdifwv46
p3519
I1
sVdnsg7ez
p3520
I1
sVd6lt16l
p3521
I1
sVda8v6w4
p3522
I1
sVdr5ws3j
p3523
I3
sVd9zfxjb
p3524
I1
sVdrxau1g
p3525
I2
sVdbu2xhv
p3526
I1
sVdfc8w1a
p3527
I1
sVd1eisv3
p3528
I1
sVd39o1pk
p3529
I1
sVd2ilpvj
p3530
I1
sVdcovlv0
p3531
I1
sVdppcmrg
p3532
I1
sVdhn7j9h
p3533
I1
sVczi712f
p3534
I1
sVd08i4mg
p3535
I1
sVd14m94x
p3536
I1
sVdkm8rnv
p3537
I3
sVdhimz8i
p3538
I2
sVcznxvaj
p3539
I1
sVd67clb0
p3540
I3
sVdgmwd2f
p3541
I1
sVd6jy6se
p3542
I1
sVdfmhdee
p3543
I1
sVd6h4po5
p3544
I1
sVd1k4miy
p3545
I1
sVd6rvbz3
p3546
I2
sVd0s3cbi
p3547
I1
sVdrswb1m
p3548
I1
sVdiuxlrj
p3549
I1
sVczbg16l
p3550
I1
sVdsaa2u0
p3551
I2
sVda2f5vh
p3552
I3
sVd5vxw84
p3553
I2
sVdg34opt
p3554
I1
sVdgs47ku
p3555
I1
sVd6jg4v0
p3556
I1
sVdr7uace
p3557
I1
sVd559sdo
p3558
I1
sVd4u4duo
p3559
I3
sVdbazbwr
p3560
I1
sVdrzuqdm
p3561
I1
sVdflluws
p3562
I1
sVd84l5n1
p3563
I1
sVdd8w54a
p3564
I1
sVdd96dkf
p3565
I1
sVds26qv3
p3566
I1
sVd2nse4x
p3567
I1
sVddspt3p
p3568
I1
sVdaaaywc
p3569
I1
sVd2qeqxo
p3570
I1
sVd0p5w2s
p3571
I2
sVdszryjg
p3572
I1
sVdrfvrac
p3573
I1
sVddbmtw3
p3574
I1
sVcyugv34
p3575
I1
sVczsf7z4
p3576
I2
sVd1qk3z9
p3577
I1
sVd2y749r
p3578
I1
sVdo2mpys
p3579
I1
sVda3vuxa
p3580
I1
sVdco9v2q
p3581
I1
sVcz1jw3g
p3582
I1
sVdh46wnm
p3583
I1
sVd8319zf
p3584
I1
sVcyvol9e
p3585
I1
sVdr473k5
p3586
I1
sVdgdqns6
p3587
I1
sVdaerq3f
p3588
I1
sVddfeguv
p3589
I1
sVdcl4inz
p3590
I1
sVd0ljsrg
p3591
I1
sVcz27m9w
p3592
I1
sVdfl3yo0
p3593
I2
sVd4up2b7
p3594
I1
sVd8v7qnj
p3595
I2
sVdcn5anu
p3596
I1
sVczp4bil
p3597
I1
sVd99rx64
p3598
I1
sVd7kdt2i
p3599
I1
sVdbdd6ci
p3600
I1
sVdhe910j
p3601
I1
sVdenrosq
p3602
I1
sVdgio599
p3603
I1
sVd1cs3xm
p3604
I1
sVd06jwbd
p3605
I1
sVczioetk
p3606
I1
sVdj17ts8
p3607
I2
sVd6d7dgw
p3608
I2
sVd0bnsfn
p3609
I1
sVde59nu1
p3610
I2
sVdia60do
p3611
I1
sVdccm55e
p3612
I1
sVcyxhycj
p3613
I1
sVdjf68ys
p3614
I1
sVdcokt5t
p3615
I1
sVd9h7t8e
p3616
I1
sVdhsgcjz
p3617
I3
sVd077bl4
p3618
I1
sVd5mm5h6
p3619
I1
sVd72f726
p3620
I1
sVd2aobgr
p3621
I1
sVd222tqv
p3622
I1
sVd0c3s4m
p3623
I1
sVdd0rbln
p3624
I1
sVdam5e7t
p3625
I1
sVdqkwxa4
p3626
I2
sVdergrpf
p3627
I1
sVdgvnof6
p3628
I2
sVd0777j8
p3629
I1
sVdo26j6d
p3630
I3
sVdg4ac9u
p3631
I1
sVdbw7zql
p3632
I2
sVdsf9zsq
p3633
I1
sVdmndafq
p3634
I1
sVdctatwr
p3635
I2
sVd57ehnc
p3636
I1
sVddqtl8l
p3637
I1
sVcznh821
p3638
I1
sVdd7jmbf
p3639
I1
sVdgng8kn
p3640
I1
sVdo5oru6
p3641
I1
sVdg6xbhd
p3642
I1
sVdb0diw9
p3643
I2
sVdft9jz9
p3644
I1
sVdnlwd0h
p3645
I1
sVdg2djhl
p3646
I1
sVde4qgz4
p3647
I1
sVdepjwka
p3648
I1
sVdf9d75l
p3649
I2
sVdcrhx9a
p3650
I1
sVdbc932d
p3651
I3
sVd695hss
p3652
I3
sVdf1zn40
p3653
I2
sVder3646
p3654
I1
sVd4qyqjh
p3655
I1
sVd9jq07x
p3656
I1
sVdjdbrat
p3657
I3
sVdgb4si2
p3658
I1
sVcyrq2a0
p3659
I5
sVdi4gzvt
p3660
I1
sVdftxe8z
p3661
I1
sVd9qyhen
p3662
I3
sVdauso76
p3663
I1
sVd3hrixo
p3664
I1
sVdcpzlva
p3665
I1
sVdeof5r8
p3666
I1
sVd6vb6i2
p3667
I1
sVdfnmzid
p3668
I1
sVd44l7sg
p3669
I2
sVd4gjby8
p3670
I1
sVdgkeuzh
p3671
I2
sVd9ytvfh
p3672
I1
sVdggnpja
p3673
I1
sVdrzyeme
p3674
I2
sVdbd633d
p3675
I1
sVcyv481y
p3676
I2
sVdphg8qe
p3677
I1
sVd7i0eb6
p3678
I1
sVddmmbwp
p3679
I1
sVd0eu5m0
p3680
I1
sVd1vdu4q
p3681
I1
sVdgy2yjt
p3682
I1
sVdojp6op
p3683
I1
sVdmvvf95
p3684
I1
sVd7xxdqn
p3685
I1
sVd1cosk4
p3686
I1
sVczjbzh1
p3687
I2
sVde9opas
p3688
I1
sVd1zh0ec
p3689
I1
sVdijxrhs
p3690
I1
sVdfipd13
p3691
I2
sVddsnx7e
p3692
I1
sVda9c4tg
p3693
I1
sVd2rjevk
p3694
I1
sVd9to9dq
p3695
I1
sVd0t95d3
p3696
I1
sVdd47b3u
p3697
I1
sVd306o5q
p3698
I1
sVd9ydh2t
p3699
I1
sVd05f09q
p3700
I1
sVdgiiwfb
p3701
I2
sVdcpjxge
p3702
I1
sVdf649qu
p3703
I2
sVdrpghyr
p3704
I1
sVdqhdzec
p3705
I1
sVdg8r4u1
p3706
I4
sVdi9qlj7
p3707
I1
sVdkur517
p3708
I4
sVczkj6fh
p3709
I1
sVdr9pj0y
p3710
I1
sVcyno8eh
p3711
I4
sVcyys1k5
p3712
I1
sVddbu7ki
p3713
I1
sVd9e3ep3
p3714
I1
sVd02wjjf
p3715
I1
sVdi8wma8
p3716
I1
sVdnhynqz
p3717
I1
sVd07wvpo
p3718
I1
sVdp2i8m0
p3719
I2
sVdi0buoz
p3720
I1
sVddnf67w
p3721
I1
sVd91eyqa
p3722
I2
sVdt3c082
p3723
I1
sVd0upupt
p3724
I2
sVdjh2kr8
p3725
I1
sVdf3rpou
p3726
I1
sVd70mmtr
p3727
I2
sVd61vd65
p3728
I1
sVd5xshib
p3729
I1
sVdmuoyvj
p3730
I1
sVdgwnq4l
p3731
I2
sVd40lft4
p3732
I1
sVdanwlb8
p3733
I1
sVddyyx55
p3734
I1
sVdegxpxs
p3735
I1
sVdgvrju1
p3736
I1
sVd96d146
p3737
I1
sVd3tfg7q
p3738
I1
sVd0xyqej
p3739
I1
sVdeyczw2
p3740
I2
sVdq3iqqt
p3741
I1
sVdgtiulw
p3742
I7
sVd7u94mu
p3743
I1
sVd1y0358
p3744
I1
sVd0pwr9m
p3745
I1
sVdatw7bx
p3746
I1
sVczdo9o0
p3747
I1
sVdou05l6
p3748
I1
sVd3wbhbc
p3749
I1
sVdfttws0
p3750
I1
sVdezk0ql
p3751
I2
sVcz4wd9y
p3752
I1
sVd9cj9xf
p3753
I1
sVdeg47ax
p3754
I1
sVdeuccc2
p3755
I1
sVdo5dcy2
p3756
I1
sVdp50vsd
p3757
I1
sVd0528wx
p3758
I1
sVdg5uxx6
p3759
I1
sVd59mz1t
p3760
I1
sVdd59sr4
p3761
I2
sVda9yju9
p3762
I4
sVdald4sb
p3763
I2
sVdk4tie0
p3764
I2
sVd7bp8kt
p3765
I1
sVdh9p6ks
p3766
I1
sVd5ubykq
p3767
I1
sVd6not23
p3768
I1
sVcymtjxp
p3769
I1
sVdb87p7h
p3770
I2
sVd4kxbrb
p3771
I1
sVdbt9fs5
p3772
I1
sVdi2sovs
p3773
I1
sVd154ez8
p3774
I2
sVdcvqug5
p3775
I1
sVdgpyrp1
p3776
I2
sVdbsfjx3
p3777
I3
sVdfvvo0h
p3778
I2
sVdb1gkap
p3779
I2
sVd475hzd
p3780
I1
sVdnuu8kz
p3781
I1
sVdo9qumn
p3782
I4
sVdemo162
p3783
I1
sVdfv4ws7
p3784
I2
sVdjdx415
p3785
I1
sVd1rqbua
p3786
I1
sVdao9k4p
p3787
I1
sVd4p3qbv
p3788
I2
sVddmszc4
p3789
I1
sVdpdd8pn
p3790
I3
sVdgtm85x
p3791
I1
sVdhaz5ab
p3792
I1
sVdcz0496
p3793
I1
sVd6fmj95
p3794
I1
sVd9t19vb
p3795
I1
sVd32kud7
p3796
I1
sVd123r3a
p3797
I1
sVcz5w7ja
p3798
I1
sVd1tk3j0
p3799
I1
sVdcfctqz
p3800
I2
sVd4vsnts
p3801
I1
sVdh34y0r
p3802
I1
sVdhvhtok
p3803
I1
sVd2v779c
p3804
I2
sVds0814v
p3805
I1
sVdry40g5
p3806
I1
sVd4v50qp
p3807
I1
sVdapb5zg
p3808
I1
sVd14qi3g
p3809
I1
sVcymygic
p3810
I3
sVd1n5pa8
p3811
I2
sVd6mqpov
p3812
I1
sVdrum98u
p3813
I3
sVdq6thbn
p3814
I1
sVdq053x5
p3815
I1
sVdbaufue
p3816
I1
sVdst6j6o
p3817
I1
sVdhqf1xa
p3818
I1
sVd56eojy
p3819
I1
sVdf8wl46
p3820
I1
sVdkqa302
p3821
I2
sVde9117l
p3822
I1
sVd8nswvs
p3823
I1
sVdr03npr
p3824
I1
sVd06bdot
p3825
I1
sVdgkzk55
p3826
I2
sVd0s14fh
p3827
I1
sVd0h55p7
p3828
I2
sVda9e43x
p3829
I1
sVdjvjtfw
p3830
I1
sVd2u78e0
p3831
I1
sVdeitsth
p3832
I2
sVdf1by3f
p3833
I1
sVdbebnah
p3834
I1
sVd6fjnq5
p3835
I1
sVdfuy3mo
p3836
I1
sVdnortuq
p3837
I4
sVdb05c5n
p3838
I1
sVdgkto3f
p3839
I1
sVdecqp4j
p3840
I1
sVd3ui348
p3841
I1
sVdhtq7bo
p3842
I1
sVd40fa03
p3843
I1
sVdan8pl4
p3844
I1
sVdrdmy0x
p3845
I1
sVdh6aohz
p3846
I2
sVdqp63l8
p3847
I4
sVdml5o99
p3848
I1
sVd0787nk
p3849
I2
sVd2heu3a
p3850
I1
sVczonvk6
p3851
I1
sVdfzy4li
p3852
I2
sVdc1dfrx
p3853
I2
sVczzewqo
p3854
I1
sVd1tgh1p
p3855
I1
sVdo7t3at
p3856
I1
sVdsced19
p3857
I1
sVdhluwox
p3858
I1
sVdauma6n
p3859
I2
sVde19knd
p3860
I2
sVd242vhw
p3861
I2
sVd6vbif4
p3862
I1
sVdfbiswh
p3863
I2
sVdfz37ls
p3864
I1
sVd614m1x
p3865
I1
sVd4sdw0v
p3866
I1
sVdjvjgcb
p3867
I1
sVd652jaq
p3868
I1
sVd29yjmj
p3869
I1
sVd9x3j23
p3870
I1
sVdrzyxx8
p3871
I1
sVdcud1gq
p3872
I1
sVdq1tjql
p3873
I1
sVdk9p9jd
p3874
I1
sVd8kj57j
p3875
I1
sVdh4zh62
p3876
I2
sVczeozdz
p3877
I1
sVd6264x5
p3878
I1
sVd9004q4
p3879
I1
sVdav9nef
p3880
I1
sVczkbtjn
p3881
I1
sVdfqtp4h
p3882
I1
sVdc935t1
p3883
I5
sVdnebxv3
p3884
I1
sVd5o3iz3
p3885
I1
sVcz0qpzg
p3886
I3
sVdd6s7w9
p3887
I1
sVdgmoac2
p3888
I1
sVd3qqopz
p3889
I3
sVdeuuw0j
p3890
I1
sVd54p39c
p3891
I1
sVde1bbj1
p3892
I1
sVdc0t8s4
p3893
I1
sVd01wk6o
p3894
I1
sVdjc2new
p3895
I2
sVdsrfjva
p3896
I1
sVd5nabcs
p3897
I1
sVdpgy5lr
p3898
I1
sVdd53m26
p3899
I2
sVd7kdpqc
p3900
I2
sVdk9n44e
p3901
I1
sVdmuy05f
p3902
I1
sVd2ksrj4
p3903
I1
sVd070cqu
p3904
I1
sVdf6k0pm
p3905
I1
sVdj0m6p5
p3906
I1
sVd24r48m
p3907
I1
sVdb9wtv2
p3908
I1
sVdhor2qz
p3909
I2
sVdoiitc9
p3910
I1
sVde98lzu
p3911
I1
sVd40kp0j
p3912
I1
sVczgoz5w
p3913
I1
sVdpronto
p3914
I1
sVczzw776
p3915
I1
sVd820x0u
p3916
I1
sVdcc8wyl
p3917
I1
sVdpore3n
p3918
I2
sVd54rt1c
p3919
I1
sVcz1krg8
p3920
I2
sVdnxjq4q
p3921
I1
sVd2lrzal
p3922
I1
sVdse0g0g
p3923
I1
sVcypad2j
p3924
I1
sVd7agx0i
p3925
I1
sVdsd5q7y
p3926
I1
sVdfrhny3
p3927
I1
sVdd9yvb2
p3928
I1
sVcyyltmp
p3929
I1
sVd616qg2
p3930
I2
sVdgss9do
p3931
I1
sVd8c3kfs
p3932
I2
sVdh3d3hx
p3933
I2
sVdfixyv3
p3934
I4
sVcz9wdco
p3935
I1
sVdmifzh6
p3936
I2
sVdbk7zyw
p3937
I2
sVd439mf8
p3938
I1
sVd6bexk2
p3939
I1
sVdrpfvem
p3940
I1
sVdjo3s7p
p3941
I1
sVcz29sy3
p3942
I1
sVd5aozwl
p3943
I1
sVd474g3c
p3944
I1
sVdiyyjno
p3945
I1
sVd9r2x8v
p3946
I1
sVd9m8yqh
p3947
I5
sVdifeb4j
p3948
I1
sVcyo94vb
p3949
I1
sVdbxntm2
p3950
I1
sVcyva4ea
p3951
I1
sVd8yhmn1
p3952
I1
sVd2guthv
p3953
I1
sVdin0hrz
p3954
I1
sVdi4tdux
p3955
I1
sVdbulvup
p3956
I1
sVd5356m5
p3957
I2
sVd2flqxe
p3958
I2
sVdduko82
p3959
I1
sVd8z8wa6
p3960
I1
sVd1kh26c
p3961
I1
sVdnvq5qt
p3962
I1
sVdev061s
p3963
I1
sVds1f2j0
p3964
I1
sVdakisk4
p3965
I1
sVdivhgfz
p3966
I1
sVds57fkg
p3967
I1
sVd06j5gx
p3968
I1
sVd2w11is
p3969
I1
sVd9d5scz
p3970
I1
sVdd4686z
p3971
I2
sVdftua88
p3972
I1
sVd6ejlmn
p3973
I1
sVd9e16re
p3974
I1
sVdpuicx5
p3975
I1
sVd01btao
p3976
I1
sVdab5fj3
p3977
I1
sVdiyz62x
p3978
I1
sVdezj7qw
p3979
I1
sVd06yk4t
p3980
I2
sVd53wsym
p3981
I1
sVd375cj6
p3982
I1
sVd66m353
p3983
I1
sVdsotn72
p3984
I1
sVdc6dc74
p3985
I1
sVdanyo52
p3986
I1
sVdgwgt76
p3987
I1
sVcyqteci
p3988
I1
sVdgpa0lt
p3989
I1
sVcyolib3
p3990
I1
sVd9c8t7o
p3991
I1
sVdjhbtqd
p3992
I1
sVdjhxl25
p3993
I3
sVdcv521a
p3994
I1
sVdihalmy
p3995
I1
sVd1zoxng
p3996
I1
sVdml6q0y
p3997
I1
sVd9pyfco
p3998
I1
sVdejt6fx
p3999
I1
sVdsxj84a
p4000
I1
sVdd3era7
p4001
I4
sVd2zza60
p4002
I1
sVd95drlb
p4003
I1
sVdnmblnj
p4004
I1
sVd2vokrv
p4005
I1
sVd3d660f
p4006
I1
sVd81z0en
p4007
I2
sVdr6e296
p4008
I1
sVddsg7ny
p4009
I2
sVdds8k2s
p4010
I1
sVd5t5sok
p4011
I1
sVdqeryqu
p4012
I1
sVd2c2o5s
p4013
I1
sVd27cvhp
p4014
I1
sVdqinbdz
p4015
I1
sVd6vb13w
p4016
I2
sVd4i4qv5
p4017
I2
sVd4rqayo
p4018
I1
sVd1ea233
p4019
I1
sVd6z1w7i
p4020
I1
sVd49b892
p4021
I1
sVdh2cxdo
p4022
I1
sVd8onvkq
p4023
I1
sVd0mo28c
p4024
I1
sVdtiexx1
p4025
I1
sVcyjd0u3
p4026
I3
sVczwcp24
p4027
I1
sVdaf6xob
p4028
I1
sVdk089jp
p4029
I2
sVd56t04t
p4030
I1
sVd3oviws
p4031
I1
sVdky0ck4
p4032
I1
sVdj2bomw
p4033
I1
sVd45y91l
p4034
I1
sVd52y0hh
p4035
I1
sVd03xdtt
p4036
I1
sVd8ftuoq
p4037
I3
sVd0c1xtb
p4038
I1
sVd6mdhf7
p4039
I1
sVd0go1tw
p4040
I1
sVd9s9j8w
p4041
I1
sVddgfnss
p4042
I1
sVd7vmlih
p4043
I1
sVddt3gu9
p4044
I1
sVdhr3f7h
p4045
I1
sVd5c9424
p4046
I1
sVdaqenck
p4047
I1
sVdi3px3q
p4048
I1
sVdhe9664
p4049
I1
sVdh8bmx9
p4050
I1
sVd09ugpb
p4051
I1
sVd63x90u
p4052
I1
sVdflotxt
p4053
I1
sVd1912pq
p4054
I1
sVd6d7fbf
p4055
I2
sVdt971e1
p4056
I1
sVd0aupon
p4057
I1
sVd0q4koc
p4058
I1
sVczlz515
p4059
I2
sVdd28aji
p4060
I1
sVdn3xdun
p4061
I1
sVdazurph
p4062
I1
sVdk4kpr4
p4063
I2
sVde9tkhk
p4064
I2
sVdf8cf0x
p4065
I1
sVdraf2ue
p4066
I1
sVdfaogcn
p4067
I1
sVdoiepqy
p4068
I3
sVdj3de35
p4069
I1
sVddq1sww
p4070
I1
sVcyvkyj6
p4071
I1
sVd0r3vfp
p4072
I1
sVdg374up
p4073
I1
sVd0lb6xt
p4074
I1
sVdhuj5az
p4075
I2
sVdcnaywe
p4076
I1
sVd5xcewz
p4077
I1
sVd15lf80
p4078
I1
sVd0iad9n
p4079
I1
sVd1rvpph
p4080
I2
sVd6efm8n
p4081
I1
sVd9vkchn
p4082
I1
sVd4v77j4
p4083
I1
sVdcq8ukn
p4084
I1
sVdbbomct
p4085
I1
sVdpyhbho
p4086
I1
sVd2w6u9o
p4087
I2
sVcz6adxe
p4088
I1
sVdr733ne
p4089
I1
sVdcb58rn
p4090
I1
sVdoa8nlg
p4091
I1
sVdgjhhgn
p4092
I1
sVd256sak
p4093
I1
sVd7daymp
p4094
I1
sVd1qc4g0
p4095
I1
sVcykjdw8
p4096
I1
sVd5n8xh0
p4097
I1
sVd8jvz59
p4098
I1
sVd4eyd67
p4099
I1
sVd3bgot7
p4100
I1
sVdj8h8m9
p4101
I4
sVdhipvnq
p4102
I1
sVd8bae3h
p4103
I1
sVd925ldz
p4104
I1
sVddbplrr
p4105
I1
sVdphc1ty
p4106
I1
sVd1abwvp
p4107
I1
sVdiap3qz
p4108
I2
sVd36lzea
p4109
I1
sVdftktj7
p4110
I1
sVd49mltv
p4111
I1
sVdhnw8ji
p4112
I1
sVddi7w9a
p4113
I1
sVdb8l8hy
p4114
I1
sVdrgk2n6
p4115
I1
sVd846bbq
p4116
I1
sVd5chf8i
p4117
I1
sVd1hf2fn
p4118
I2
sVd9o49ye
p4119
I1
sVd40n5yw
p4120
I1
sVdck7qao
p4121
I1
sVd6n7l57
p4122
I2
sVd4nylda
p4123
I1
sVd7b35or
p4124
I1
sVd0x7qnb
p4125
I1
sVdehr9le
p4126
I1
sVdgqjxbw
p4127
I1
sVd7fhl7s
p4128
I1
sVd50fam1
p4129
I1
sVd8dlis5
p4130
I2
sVdh84bqq
p4131
I1
sVdau0b5g
p4132
I1
sVdjhygjs
p4133
I3
sVdp6j39e
p4134
I2
sVd74qvd0
p4135
I2
sVdsjiuh5
p4136
I1
sVddjgoh5
p4137
I1
sVd0h6vty
p4138
I1
sVczils73
p4139
I1
sVdig5n0q
p4140
I1
sVd8jfojo
p4141
I2
sVde7gqt6
p4142
I2
sVcylns1s
p4143
I1
sVd7ja7vd
p4144
I1
sVdcafr5q
p4145
I1
sVdnbjzu1
p4146
I2
sVd7q57n6
p4147
I1
sVdd6qtn0
p4148
I3
sVd8vyspy
p4149
I1
sVdgvikdb
p4150
I1
sVdqnho4t
p4151
I1
sVde2wr6y
p4152
I1
sVda7ku1u
p4153
I1
sVdbiwhwb
p4154
I1
sVddo961k
p4155
I1
sVdbh38tn
p4156
I1
sVd58sgd4
p4157
I1
sVdb7gvn3
p4158
I1
sVdfe37lx
p4159
I1
sVczm9gtk
p4160
I1
sVd8xcm28
p4161
I1
sVdeo0pu7
p4162
I1
sVd10x58a
p4163
I1
sVdh1ndo3
p4164
I2
sVd7aiw51
p4165
I1
sVd09bti7
p4166
I1
sVdquuq1r
p4167
I1
sVdd0nxyc
p4168
I1
sVd80jf9r
p4169
I1
sVdb2337p
p4170
I1
sVd6h03pf
p4171
I1
sVdc8t5kq
p4172
I2
sVd34iai5
p4173
I1
sVdbev5yx
p4174
I1
sVdfnhj1a
p4175
I1
sVd0i7qnt
p4176
I1
sVd9k8aa0
p4177
I1
sVdflrysb
p4178
I1
sVd2jtxsa
p4179
I1
sVdde8zms
p4180
I2
sVdo61qph
p4181
I1
sVczcgfjg
p4182
I1
sVd483mn9
p4183
I2
sVd2aia4m
p4184
I1
sVd8pyq01
p4185
I1
sVd9gc42w
p4186
I1
sVdfcph3p
p4187
I2
sVdmx2vso
p4188
I2
sVdg1ai8f
p4189
I1
sVdcovdg2
p4190
I1
sVde4jy7t
p4191
I3
sVd71eaic
p4192
I1
sVdakus8t
p4193
I1
sVcyicce8
p4194
I1
sVdjb2r4x
p4195
I1
sVdb7etp9
p4196
I1
sVdfbp1q2
p4197
I1
sVd337dfl
p4198
I1
sVdnppf2h
p4199
I2
sVdr0hyhw
p4200
I1
sVd6lb4zs
p4201
I1
sVdmh9swp
p4202
I1
sVd8y0xrw
p4203
I2
sVde4vmvi
p4204
I1
sVd6vx2fk
p4205
I2
sVd5txp16
p4206
I1
sVdcnui7p
p4207
I1
sVd6fe9pw
p4208
I1
sVdh4gkbr
p4209
I1
sVd3d4iov
p4210
I1
sVd2zbsl4
p4211
I1
sVdc42qz7
p4212
I1
sVdcy4xw1
p4213
I1
sVd1ri263
p4214
I2
sVdhhndc6
p4215
I1
sVd4og3it
p4216
I2
sVdawlc4x
p4217
I3
sVdp62ip8
p4218
I1
sVdi47qzj
p4219
I1
sVcymrd3g
p4220
I1
sVdcxep5e
p4221
I2
sVd6ccg4d
p4222
I1
sVcyk0180
p4223
I1
sVdkfu6fv
p4224
I2
sVda8rjnu
p4225
I1
sVd63qhpz
p4226
I1
sVd2fb72w
p4227
I2
sVdc4taa3
p4228
I1
sVd70pmso
p4229
I1
sVdjy2v30
p4230
I1
sVd19i3xu
p4231
I1
sVdnmojqm
p4232
I2
sVd6ul52b
p4233
I1
sVd1qxxdg
p4234
I1
sVdd70sxr
p4235
I1
sVcz6ucr5
p4236
I2
sVd7k984b
p4237
I1
sVdd70ybo
p4238
I1
sVdmfd3hn
p4239
I1
sVdcnvljx
p4240
I1
sVd9o1983
p4241
I2
sVd91besp
p4242
I1
sVczqm2z6
p4243
I1
sVd2p9lfh
p4244
I1
sVde6xxmm
p4245
I1
sVd5v7qyw
p4246
I1
sVczuhtej
p4247
I1
sVd6mgka8
p4248
I1
sVd30h9yt
p4249
I1
sVd18xn41
p4250
I1
sVd3kmty6
p4251
I1
sVd0x7sav
p4252
I1
sVda6flg0
p4253
I1
sVd7ffw3s
p4254
I1
sVd4q0l0a
p4255
I1
sVdfbmb3k
p4256
I1
sVd2w7tdi
p4257
I1
sVd88z5oy
p4258
I2
sVdoypvji
p4259
I1
sVdb5jblk
p4260
I2
sVd0d1g4g
p4261
I2
sVczt7xr7
p4262
I1
sVd60xxqq
p4263
I1
sVd73icdp
p4264
I2
sVczc8nyr
p4265
I1
sVdbjb5d3
p4266
I1
sVczxjn54
p4267
I1
sVdd1wl51
p4268
I1
sVd6gkbat
p4269
I1
sVd0abtg3
p4270
I1
sVdh75aww
p4271
I1
sVdnurwv7
p4272
I1
sVd8y0cb8
p4273
I1
sVdjes00l
p4274
I1
sVdc6ilt4
p4275
I2
sVddqyi76
p4276
I1
sVdqc2vcb
p4277
I1
sVd9xurum
p4278
I2
sVdjhgvhd
p4279
I1
sVdeddaw3
p4280
I2
sVd37cl7m
p4281
I1
sVd90k8dp
p4282
I2
sVd0i41mr
p4283
I1
sVdf7daw5
p4284
I1
sVdp8gw2j
p4285
I1
sVdti7ewu
p4286
I1
sVd5peg1k
p4287
I1
sVd7199ov
p4288
I1
sVdihqygq
p4289
I1
sVdtae2ob
p4290
I1
sVdddopii
p4291
I1
sVdaz36ch
p4292
I1
sVcyun0qr
p4293
I1
sVdgzrezr
p4294
I1
sVdnpdpd0
p4295
I1
sVdt7etoa
p4296
I1
sVd78c0ui
p4297
I1
sVdd5f6yn
p4298
I1
sVd1cgot0
p4299
I1
sVdd0rm3z
p4300
I1
sVdkezg7t
p4301
I1
sVdjz6w6n
p4302
I1
sVd76x2sn
p4303
I1
sVdoaxnqy
p4304
I1
sVd12v8bd
p4305
I1
sVdq6uk64
p4306
I1
sVdbidhsk
p4307
I1
sVdjvfdza
p4308
I1
sVd3m2qfs
p4309
I1
sVde85k33
p4310
I1
sVd6mdtzk
p4311
I1
sVd8dlxvz
p4312
I1
sVdax4tze
p4313
I1
sVdrzwi38
p4314
I2
sVdi149yi
p4315
I1
sVdrzy12f
p4316
I1
sVd06b0u3
p4317
I1
sVd65rl7w
p4318
I1
sVd8j132c
p4319
I2
sVde2bx8f
p4320
I2
sVd280gcj
p4321
I1
sVd050n76
p4322
I1
sVdf6u3cr
p4323
I1
sVdegxrq7
p4324
I1
sVd8gjs3r
p4325
I2
sVdsl2d9q
p4326
I1
sVdnhiw4x
p4327
I2
sVdeyhu32
p4328
I1
sVdefli95
p4329
I1
sVd29gy7j
p4330
I1
sVddh7xs2
p4331
I2
sVd88xunt
p4332
I1
sVd5qdl4r
p4333
I1
sVddgrqv4
p4334
I2
sVdi2ln07
p4335
I1
sVdt8tkv4
p4336
I1
sVdjvmk7q
p4337
I1
sVd9z9hgp
p4338
I1
sVd7vch00
p4339
I2
sVdc7toq0
p4340
I1
sVdbp1o03
p4341
I1
sVdcbhpcr
p4342
I1
sVdh8doy6
p4343
I2
sVdjezx0s
p4344
I1
sVdbhdvu2
p4345
I1
sVdrop5da
p4346
I1
sVd5a0wk5
p4347
I1
sVdmkrwh6
p4348
I1
sVd6d1zzs
p4349
I1
sVdc2sh2p
p4350
I4
sVde8hpxv
p4351
I1
sVdji516e
p4352
I1
sVd5tbhrf
p4353
I1
sVd24kfaj
p4354
I1
sVd22xqfp
p4355
I1
sVdan8y8m
p4356
I1
sVdh0wn50
p4357
I1
sVd65ctfe
p4358
I2
sVdc1vtyo
p4359
I1
sVdmoubpi
p4360
I1
sVd126zsn
p4361
I3
sVdfn6kl8
p4362
I1
sVdggjj9k
p4363
I2
sVcyj938r
p4364
I2
sVdrha3x6
p4365
I1
sVdfbp5lr
p4366
I1
sVdej6zvy
p4367
I3
sVd5redtv
p4368
I1
sVczyn9m6
p4369
I1
sVd62bq6d
p4370
I1
sVdaa1vpo
p4371
I1
sVd41484g
p4372
I1
sVdc3b2e5
p4373
I4
sVd56vixm
p4374
I1
sVd2hqnzz
p4375
I1
sVdmoyend
p4376
I1
sVd19g7qc
p4377
I1
sVdongk0e
p4378
I1
sVczpp9em
p4379
I2
sVdqpbwgy
p4380
I1
sVd6jnje5
p4381
I1
sVdd2tohl
p4382
I1
sVd8ldgca
p4383
I1
sVdpi3qp1
p4384
I1
sVdb17320
p4385
I1
sVdfbg6qv
p4386
I1
sVdpphwpc
p4387
I1
sVd0qh7mz
p4388
I1
sVczasciv
p4389
I1
sVd624l7o
p4390
I1
sVdbhd2j6
p4391
I1
sVdoj4pus
p4392
I1
sVdd2chck
p4393
I1
sVd28ovkt
p4394
I1
sVdmxwglf
p4395
I1
sVdprkkw8
p4396
I1
sVd7c4yu0
p4397
I2
sVdczns41
p4398
I1
sVdb3u1qf
p4399
I1
sVd6zeugg
p4400
I1
sVd423ig1
p4401
I1
sVd33g46i
p4402
I1
sVdcc6o1l
p4403
I2
sVd4uuqz7
p4404
I1
sVddw7yk9
p4405
I1
sVcz80dt9
p4406
I1
sVd3ydvax
p4407
I1
sVdcllcqv
p4408
I1
sVd17xdee
p4409
I1
sVd3rz2ly
p4410
I1
sVdi3geli
p4411
I1
sVd4zvloh
p4412
I1
sVdhv9ie6
p4413
I1
sVd0m0idp
p4414
I1
sVdi75gkb
p4415
I1
sVcyy2fnt
p4416
I1
sVczyocyx
p4417
I2
sVd4v8x37
p4418
I1
sVczus9p9
p4419
I1
sVd5kmu6h
p4420
I1
sVdaxlj18
p4421
I2
sVd0ehapt
p4422
I1
sVddj832t
p4423
I1
sVd1dal6v
p4424
I1
sVdil4v7y
p4425
I1
sVczinm5s
p4426
I2
sVdjvgtl5
p4427
I2
sVd4hahwu
p4428
I1
sVd6o7uz7
p4429
I1
sVczhrskc
p4430
I1
sVdt8y8iz
p4431
I1
sVdr5nc3a
p4432
I1
sVdqabei0
p4433
I2
sVcz7ofq0
p4434
I1
sVd3f4nui
p4435
I1
sVd3lpfou
p4436
I1
sVdhn0zbe
p4437
I2
sVczevboo
p4438
I1
sVd2ra2zw
p4439
I1
sVdms56ij
p4440
I1
sVd2ulx8r
p4441
I1
sVddsjniz
p4442
I1
sVdaia97f
p4443
I2
sVd5omtgb
p4444
I1
sVda8nei6
p4445
I1
sVda0z4an
p4446
I1
sVd9pcxqc
p4447
I1
sVdj8kvty
p4448
I1
sVdhn6iex
p4449
I1
sVdchqebs
p4450
I2
sVd6lpa5o
p4451
I1
sVd0w68vq
p4452
I1
sVdno9pw2
p4453
I1
sVdkr23a0
p4454
I1
sVds7acwu
p4455
I1
sVd4n9gww
p4456
I1
sVdot0sxx
p4457
I1
sVdshaprd
p4458
I1
sVdbd3fhf
p4459
I1
sVdf2r2np
p4460
I1
sVdq9x3yk
p4461
I1
sVdhfsz0t
p4462
I1
sVd0y2q9l
p4463
I1
sVd3fx0un
p4464
I1
sVdo608ne
p4465
I1
sVcyipymd
p4466
I1
sVdhe973r
p4467
I1
sVdccpnt9
p4468
I1
sVd4ypmox
p4469
I1
sVdhaybjp
p4470
I2
sVd023s0l
p4471
I1
sVds08fy3
p4472
I2
sVd2fvxk9
p4473
I1
sVdahcdg4
p4474
I6
sVdafzsvk
p4475
I1
sVdmm59vw
p4476
I3
sVd5bxbjf
p4477
I1
sVdeab5eo
p4478
I2
sVde14cok
p4479
I1
sVd68sr08
p4480
I2
sVd7sqkfo
p4481
I2
sVdmug7ob
p4482
I1
sVcypxfva
p4483
I1
sVd2zfu67
p4484
I1
sVdijsn6p
p4485
I1
sVd0wgua3
p4486
I1
sVd826eml
p4487
I1
sVdg8d04l
p4488
I1
sVdaxpjv7
p4489
I1
sVd8dylgl
p4490
I1
sVdh9zn30
p4491
I1
sVd3h0zgk
p4492
I1
sVdgpz144
p4493
I1
sVd8yqruo
p4494
I1
sVd77er30
p4495
I1
sVd1crz5n
p4496
I1
sVd20okvt
p4497
I1
sVdbnph29
p4498
I1
sVd5mx9ay
p4499
I1
sVd3lqatj
p4500
I1
sVd39aggc
p4501
I1
sVczzaa4n
p4502
I1
sVddlky52
p4503
I1
sVdoc5d7w
p4504
I2
sVd2kreh0
p4505
I3
sVd2mvz9u
p4506
I1
sVdj3ypxb
p4507
I1
sVdgrqyd6
p4508
I1
sVdqodq87
p4509
I1
sVdmki7y7
p4510
I1
sVdhto0pj
p4511
I1
sVcynd5kg
p4512
I1
sVd3tm7lm
p4513
I1
sVdk065b3
p4514
I3
sVdehr1ks
p4515
I1
sVd4912hh
p4516
I2
sVd0yp97z
p4517
I1
sVdbb3bfr
p4518
I1
sVcynf05v
p4519
I1
sVcyovss4
p4520
I1
sVd8yttu4
p4521
I1
sVdi5fj8m
p4522
I5
sVd0sdrrq
p4523
I1
sVdrmnt9y
p4524
I2
sVdi8o9pf
p4525
I1
sVdp9top2
p4526
I1
sVd278c5s
p4527
I1
sVd33vvit
p4528
I1
sVd2voky9
p4529
I1
sVdnlfuaf
p4530
I1
sVdt95xzb
p4531
I1
sVd1krb9s
p4532
I1
sVd6he9pe
p4533
I1
sVd9xtypk
p4534
I2
sVdgxo4vd
p4535
I1
sVdhn7wuq
p4536
I2
sVdg93vf9
p4537
I1
sVd6q4qts
p4538
I1
sVdiku7t5
p4539
I1
sVcysw82k
p4540
I2
sVd77kl68
p4541
I2
sVdmn7ih3
p4542
I1
sVdead82y
p4543
I2
sVdf94tex
p4544
I1
sVdc3qo17
p4545
I1
sVd0zlw26
p4546
I1
sVdhf7w3j
p4547
I1
sVd91z77h
p4548
I1
sVd7odu5u
p4549
I1
sVd4qp9d1
p4550
I1
sVd7ghjjj
p4551
I1
sVd4r9k7c
p4552
I1
sVczqibju
p4553
I2
sVd5vyu97
p4554
I5
sVdevgwk7
p4555
I6
sVcyzj9wn
p4556
I2
sVd6xgjer
p4557
I1
sVddnhfmz
p4558
I2
sVdc6qxyo
p4559
I1
sVdf35k7x
p4560
I1
sVd0v7eer
p4561
I1
sVd2zrkjq
p4562
I1
sVdnt7x6p
p4563
I1
sVd3a7a5g
p4564
I3
sVd6p1e94
p4565
I1
sVdeuesk9
p4566
I1
sVd10hwp9
p4567
I1
sVdsawbhs
p4568
I1
sVdkshovj
p4569
I1
sVdi9oilz
p4570
I1
sVdaorp17
p4571
I1
sVds7wsxb
p4572
I1
sVda1egnh
p4573
I1
sVdokqmc8
p4574
I1
sVd0tdom8
p4575
I3
sVdqbqmcr
p4576
I1
sVdg9o40j
p4577
I1
sVdhueevl
p4578
I1
sVdkbatyu
p4579
I1
sVdeo2lof
p4580
I4
sVdgnl8ba
p4581
I2
sVczzvvmu
p4582
I2
sVdi4kml8
p4583
I2
sVd0gx1uh
p4584
I1
sVdgas3t0
p4585
I1
sVdhsxjp1
p4586
I2
sVdfdtleb
p4587
I1
sVdn25323
p4588
I1
sVcyu725e
p4589
I1
sVdpgym7b
p4590
I1
sVdeyljdk
p4591
I1
sVdc3b1c3
p4592
I2
sVdrogzbj
p4593
I1
sVd5vpz53
p4594
I1
sVdn81ypr
p4595
I1
sVddkpm25
p4596
I1
sVd623cta
p4597
I1
sVd7zde3e
p4598
I1
sVcysm2uf
p4599
I2
sVdhd87gn
p4600
I1
sVdcw2le2
p4601
I1
sVdd4n455
p4602
I3
sVdfb5y0a
p4603
I1
sVd2nwdtv
p4604
I2
sVd0zb1mg
p4605
I2
sVczwpa1p
p4606
I1
sVdf7w6b2
p4607
I1
sVdfincnu
p4608
I1
sVd96xqaw
p4609
I1
sVddoarvs
p4610
I1
sVdtgx4x9
p4611
I1
sVddu5v3h
p4612
I1
sVd2ml0gm
p4613
I1
sVd0yk3l8
p4614
I1
sVddgj4d8
p4615
I1
sVdeq3qaq
p4616
I1
sVdi3h038
p4617
I1
sVdka6ppr
p4618
I1
sVd9yrohg
p4619
I1
sVdiqlraf
p4620
I2
sVdbbwsgc
p4621
I1
sVd5pqm2c
p4622
I2
sVd4kkmgu
p4623
I1
sVdj5xepg
p4624
I1
sVdfkcvdk
p4625
I1
sVd8r9jr4
p4626
I5
sVdc22k95
p4627
I2
sVd9k12kb
p4628
I1
sVd0rb1y5
p4629
I2
sVcyzfpxv
p4630
I3
sVczysf51
p4631
I1
sVde77u1k
p4632
I2
sVdpm1ru0
p4633
I1
sVdfoxgk7
p4634
I1
sVd3rgqt9
p4635
I1
sVdmx2j9w
p4636
I1
sVd5tli31
p4637
I2
sVd2eqory
p4638
I2
sVdnva262
p4639
I1
sVddg2039
p4640
I1
sVd2gw2oz
p4641
I2
sVczzs7tc
p4642
I1
sVdgrqjn1
p4643
I2
sVdgvijcc
p4644
I1
sVd0b5lbl
p4645
I1
sVdqev22j
p4646
I1
sVd8o0qxq
p4647
I1
sVdpmqwne
p4648
I1
sVdb8bvrp
p4649
I1
sVdr6a78o
p4650
I1
sVdn76onw
p4651
I1
sVdj6wyp3
p4652
I1
sVd89s5qm
p4653
I1
sVcyil4go
p4654
I2
sVddsewyi
p4655
I1
sVd1jds44
p4656
I1
sVdk62ftl
p4657
I1
sVddh6uzd
p4658
I2
sVd0y5bd6
p4659
I1
sVcyycll9
p4660
I1
sVddjl5t7
p4661
I2
sVdflt0ig
p4662
I1
sVd0atf6k
p4663
I1
sVdn2n69g
p4664
I1
sVdi08cwp
p4665
I1
sVdstbcyw
p4666
I1
sVdcdjlwo
p4667
I1
sVcyk9q79
p4668
I1
sVdhoysxk
p4669
I1
sVdob33ln
p4670
I1
sVd1h84e2
p4671
I1
sVdaxjpl5
p4672
I1
sVd78hxgd
p4673
I1
sVdi4yweo
p4674
I2
sVd2ju2av
p4675
I1
sVd694ktk
p4676
I1
sVd1sjl4t
p4677
I1
sVd18ralu
p4678
I1
sVd87xzi6
p4679
I1
sVdd2eq6i
p4680
I2
sVdkne6pu
p4681
I1
sVczd6gud
p4682
I1
sVczokwol
p4683
I1
sVdpvkj30
p4684
I2
sVdkm4vu1
p4685
I1
sVdd5btol
p4686
I1
sVd2a024a
p4687
I1
sVdmxuqdf
p4688
I1
sVdt8qftj
p4689
I1
sVdc91tgt
p4690
I1
sVdcy1mks
p4691
I1
sVdbjq0pb
p4692
I1
sVdb569v2
p4693
I1
sVczatk29
p4694
I1
sVdgwgfuo
p4695
I1
sVd0gwc3h
p4696
I1
sVd9d2lau
p4697
I1
sVdfv13ny
p4698
I1
sVd9xisz4
p4699
I1
sVdnb03qt
p4700
I1
sVd8mvqk6
p4701
I1
sVdq4vlt1
p4702
I1
sVddwv1am
p4703
I1
sVda04sm5
p4704
I2
sVd7cr5ld
p4705
I2
sVd5vmp2z
p4706
I1
sVd5m9q4k
p4707
I3
sVdejpcti
p4708
I2
sVd5n4oyl
p4709
I1
sVddy4a1t
p4710
I2
sVd0ygdcc
p4711
I1
sVdobd2el
p4712
I1
sVdrti93f
p4713
I1
sVd37lepj
p4714
I1
sVd5mxxzd
p4715
I2
sVd3m2nob
p4716
I2
sVddzgkin
p4717
I1
sVdfrykpq
p4718
I1
sVdh1of4b
p4719
I1
sVcyllbk9
p4720
I1
sVd6hg3rb
p4721
I1
sVdemijry
p4722
I1
sVdadvm92
p4723
I1
sVdbdv1mt
p4724
I1
sVden5584
p4725
I1
sVdbd30f8
p4726
I1
sVdkftwny
p4727
I1
sVdo8d87m
p4728
I1
sVd9z0io5
p4729
I1
sVd3o1ksp
p4730
I1
sVd0zs0wz
p4731
I1
sVd0c4ki2
p4732
I1
sVd2ose0f
p4733
I1
sVds1e4ry
p4734
I1
sVdi758wt
p4735
I1
sVd1asmjt
p4736
I1
sVdqabl74
p4737
I2
sVdh8mgjw
p4738
I1
sVcz8thys
p4739
I1
sVdblbowh
p4740
I2
sVdks949a
p4741
I2
sVd346qi0
p4742
I1
sVd65ex1p
p4743
I1
sVdjhwtvb
p4744
I2
sVdehcad9
p4745
I1
sVd02kbor
p4746
I1
sVd3i8trb
p4747
I1
sVdb0p66a
p4748
I3
sVdge1sjf
p4749
I1
sVdr4lxto
p4750
I2
sVczpr8rj
p4751
I1
sVdd5qjk9
p4752
I1
sVdezivae
p4753
I1
sVd6m8gqj
p4754
I1
sVd9ehkb7
p4755
I1
sVcz8p26n
p4756
I1
sVdh1i792
p4757
I2
sVdj3uzgp
p4758
I1
sVdg7f6yy
p4759
I1
sVd9cwrrs
p4760
I1
sVdsf4khn
p4761
I1
sVcz8eas8
p4762
I1
sVczvxjfj
p4763
I1
sVdb3rzwb
p4764
I1
sVd334duf
p4765
I2
sVdgq6nuk
p4766
I1
sVd43cla9
p4767
I3
sVdf0wbw6
p4768
I1
sVdj7fi7w
p4769
I2
sVdtafdcj
p4770
I1
sVd7o5n57
p4771
I2
sVdbujlry
p4772
I3
sVcym5k4x
p4773
I1
sVdkhcjfb
p4774
I1
sVd2d8066
p4775
I1
sVd0ipdz2
p4776
I1
sVdf7xyys
p4777
I1
sVdqxxp48
p4778
I4
sVdt9tijj
p4779
I2
sVcz3wvj9
p4780
I1
sVd6aj7og
p4781
I1
sVdnskixm
p4782
I1
sVd01qqlc
p4783
I1
sVdgn465d
p4784
I1
sVd82g4ah
p4785
I1
sVdsvwrqk
p4786
I1
sVczeic5m
p4787
I2
sVd8e2w9s
p4788
I1
sVd2ntj4y
p4789
I1
sVdamx0se
p4790
I1
sVd047s69
p4791
I1
sVd6p8tjm
p4792
I1
sVd152ol2
p4793
I2
sVdbp4v3x
p4794
I1
sVd3j48m1
p4795
I1
sVczyr72g
p4796
I1
sVd09ktq0
p4797
I1
sVdt9colb
p4798
I1
sVcz50d21
p4799
I1
sVddm75wl
p4800
I1
sVd9aizr6
p4801
I2
sVd1ypbx5
p4802
I1
sVd2hbg2e
p4803
I4
sVd05eh6c
p4804
I1
sVd810f4b
p4805
I1
sVdh5o4k6
p4806
I1
sVdnkf4o9
p4807
I1
sVdnjvzer
p4808
I1
sVd0l7ltt
p4809
I1
sVd89tp5m
p4810
I2
sVdg5adyh
p4811
I1
sVd39m1av
p4812
I1
sVdd3fiih
p4813
I4
sVd2pbtos
p4814
I1
sVdord8p5
p4815
I1
sVdfcxu6c
p4816
I1
sVd7ikutg
p4817
I1
sVd54daxw
p4818
I1
sVd5w3no8
p4819
I1
sVcywv2bw
p4820
I1
sVdg5g2lx
p4821
I2
sVdr46e0w
p4822
I2
sVdhe9mj9
p4823
I1
sVdqokl4v
p4824
I1
sVdnukaq8
p4825
I1
sVcyskute
p4826
I1
sVdmwfiqc
p4827
I2
sVdid1rae
p4828
I3
sVdf039cu
p4829
I1
sVdsjccst
p4830
I1
sVda8v47b
p4831
I1
sVd7nx8j5
p4832
I1
sVdr4b2kx
p4833
I4
sVdavvgbn
p4834
I1
sVda78kyu
p4835
I1
sVd8orp5h
p4836
I1
sVczx1wbu
p4837
I1
sVdmp1wro
p4838
I1
sVcyt5qb4
p4839
I1
sVd2vtsjs
p4840
I1
sVd1g45zj
p4841
I2
sVczxng14
p4842
I1
sVd3mhl0r
p4843
I1
sVdo6u2sh
p4844
I1
sVda4007o
p4845
I1
sVdiqrwwb
p4846
I1
sVddcyw11
p4847
I1
sVdcez1ei
p4848
I2
sVd6siyyb
p4849
I1
sVczzv38i
p4850
I1
sVczgmpjd
p4851
I1
sVd9y9udr
p4852
I2
sVdarqctm
p4853
I1
sVd47p1hp
p4854
I3
sVd37hftt
p4855
I1
sVd602q2a
p4856
I1
sVd1eu0rm
p4857
I1
sVd69nkyp
p4858
I1
sVdhy25ku
p4859
I1
sVcznv8rg
p4860
I1
sVdoz4wiy
p4861
I1
sVcz6402l
p4862
I1
sVd6757s4
p4863
I1
sVdqvbphd
p4864
I2
sVds7tuj4
p4865
I1
sVdnimeay
p4866
I1
sVd6bt0aq
p4867
I2
sVdf6alyn
p4868
I5
sVddif02h
p4869
I1
sVdhb4ph0
p4870
I1
sVd88jo2p
p4871
I1
sVdn4lgrf
p4872
I1
sVdpftw89
p4873
I1
sVd3jco5e
p4874
I1
sVdkazicw
p4875
I1
sVdbsxt2p
p4876
I1
sVdbb3af8
p4877
I1
sVd0m2ipw
p4878
I1
sVcyl059h
p4879
I1
sVcz5g6dp
p4880
I1
sVdic8urj
p4881
I1
sVdd4mco0
p4882
I1
sVd3z9dyg
p4883
I1
sVdbrikqq
p4884
I1
sVd9ccj8v
p4885
I1
sVdeslxhy
p4886
I2
sVdi1h7u0
p4887
I1
sVdibht6q
p4888
I1
sVd2txuv9
p4889
I2
sVd2bhjcv
p4890
I1
sVdbya0ws
p4891
I1
sVdb8lux3
p4892
I1
sVde3cmvr
p4893
I1
sVdaa0qql
p4894
I1
sVd1ut957
p4895
I1
sVdgpwlyp
p4896
I2
sVdo02w4x
p4897
I2
sVd2jaxg5
p4898
I1
sVdimjxtd
p4899
I1
sVd9hs7sf
p4900
I1
sVdamelpt
p4901
I1
sVd0g2owx
p4902
I1
sVd60ay9h
p4903
I2
sVda0cdb2
p4904
I2
sVdgth6au
p4905
I1
sVd28sswc
p4906
I1
sVd02oeo2
p4907
I1
sVdir07bc
p4908
I1
sVdj1snnp
p4909
I1
sVd1aryke
p4910
I1
sVdd20mz6
p4911
I1
sVdcafgyt
p4912
I1
sVd0jzr7e
p4913
I1
sVd5hz1fx
p4914
I1
sVd87cg19
p4915
I1
sVdczbhme
p4916
I1
sVdschuv4
p4917
I1
sVd7q3zsf
p4918
I1
sVd85jqva
p4919
I2
sVdeb3ghq
p4920
I1
sVddhh2m2
p4921
I1
sVdnxzyty
p4922
I1
sVd00v0dv
p4923
I1
sVdpjrnjs
p4924
I1
sVdmijxce
p4925
I1
sVcyt9vz4
p4926
I1
sVd691ujc
p4927
I1
sVdeck3qc
p4928
I2
sVdjedm7r
p4929
I1
sVdia6ibt
p4930
I1
sVdjyrsoy
p4931
I1
sVczzkq2q
p4932
I1
sVd3nq95p
p4933
I2
sVdt4hx8j
p4934
I1
sVd4kxx4b
p4935
I1
sVd2upvzs
p4936
I2
sVd8yg1o9
p4937
I1
sVd8d8yrp
p4938
I1
sVczm23gm
p4939
I1
sVdexlht7
p4940
I1
sVd9rtxpf
p4941
I1
sVczx4mfv
p4942
I1
sVdb67dw3
p4943
I1
sVdbnupxw
p4944
I1
sVdfwz3n2
p4945
I1
sVddx3p2h
p4946
I2
sVdks6agq
p4947
I1
sVdgdfi94
p4948
I1
sVd5rm1ig
p4949
I1
sVdtekv8n
p4950
I1
sVcylksm6
p4951
I1
sVdp5b3c9
p4952
I1
sVdrs6a9a
p4953
I1
sVdcu5xd0
p4954
I1
sVdddwhxh
p4955
I1
sVd1veiry
p4956
I1
sVdig663w
p4957
I1
sVdjfdwkl
p4958
I1
sVdsrrgp1
p4959
I2
sVd3cg9j7
p4960
I1
sVdb8cfqj
p4961
I1
sVd40qt2w
p4962
I1
sVdd75a0e
p4963
I2
sVd66oy9v
p4964
I1
sVdcw7o83
p4965
I1
sVd7z48j0
p4966
I2
sVd1k0y1x
p4967
I1
sVdnijz3d
p4968
I1
sVd9a8mid
p4969
I1
sVd9u7rg2
p4970
I1
sVd2u6mrw
p4971
I1
sVd6w6f46
p4972
I1
sVdd4zpt1
p4973
I1
sVdrzuor6
p4974
I1
sVd3kfp82
p4975
I1
sVdfkkfe4
p4976
I1
sVdfh1mp6
p4977
I1
sVd5wyjh0
p4978
I1
sVddxoim8
p4979
I1
sVczfxqz9
p4980
I1
sVdihoajm
p4981
I1
sVdjn8aba
p4982
I1
sVdti876l
p4983
I2
sVdfe3eo9
p4984
I2
sVd8a82bw
p4985
I1
sVdd3bzc9
p4986
I1
sVdt6018r
p4987
I1
sVdi6k67y
p4988
I1
sVdt1t2rq
p4989
I1
sVdra0lwk
p4990
I1
sVd3r8uui
p4991
I1
sVdqkq8vf
p4992
I1
sVd7tzamw
p4993
I1
sVd4qjthv
p4994
I3
sVd2s987y
p4995
I1
sVdg96rfb
p4996
I1
sVdgxiuxg
p4997
I1
sVd8wkru1
p4998
I1
sVdpqoy3c
p4999
I1
sVd1zlcg4
p5000
I1
sVd1jg2ix
p5001
I1
sVd65t72z
p5002
I1
sVdmrz4zv
p5003
I1
sVdqezjes
p5004
I2
sVdt43cx0
p5005
I2
sVdftharl
p5006
I1
sVdkirhoy
p5007
I1
sVdiznl5g
p5008
I1
sVdbum9ic
p5009
I1
sVddwnkf2
p5010
I1
sVd6mbm5m
p5011
I1
sVdfecmtr
p5012
I1
sVdbgj4er
p5013
I4
sVdjdoukv
p5014
I2
sVd2yc1zt
p5015
I2
sVdg175h6
p5016
I1
sVcz1xyxt
p5017
I1
sVdg1lmur
p5018
I3
sVdjmmdto
p5019
I1
sVd5xjalw
p5020
I2
sVdd73t2r
p5021
I1
sVcypowvp
p5022
I1
sVddmd6on
p5023
I1
sVcyyv109
p5024
I1
sVdf6jrd5
p5025
I4
sVd255b60
p5026
I1
sVd9sfv2u
p5027
I1
sVd9tzdsc
p5028
I7
sVcyp9wdt
p5029
I2
sVd9l1uji
p5030
I2
sVd3levef
p5031
I1
sVd0h3y1s
p5032
I2
sVd81zudu
p5033
I1
sVczfu15z
p5034
I1
sVdowbnuj
p5035
I1
sVdf59w1z
p5036
I1
sVd1u9hmj
p5037
I1
sVd5yuxnm
p5038
I2
sVdpfj5x3
p5039
I1
sVdq5jjeg
p5040
I1
sVd66rl5j
p5041
I1
sVdb806yn
p5042
I1
sVd8w9v4z
p5043
I1
sVdd4r5xi
p5044
I1
sVdh3cpux
p5045
I1
sVd8mxdu6
p5046
I1
sVd4m55l7
p5047
I2
sVdfhjlsc
p5048
I1
sVd6yoch5
p5049
I2
sVdry9cyp
p5050
I1
sVdovbrb3
p5051
I1
sVddyi67g
p5052
I1
sVdeo5y9j
p5053
I2
sVd0vupyp
p5054
I1
sVdpvuxuw
p5055
I1
sVd2wa6qf
p5056
I1
sVdkelb9a
p5057
I1
sVcz8megf
p5058
I2
sVdh899w9
p5059
I1
sVd3jrvre
p5060
I3
sVdrblxoz
p5061
I1
sVd8m9v09
p5062
I1
sVdb8mvmc
p5063
I1
sVdi9ua1h
p5064
I1
sVd6c0u6j
p5065
I5
sVdnrekcn
p5066
I1
sVd3zbd2r
p5067
I1
sVcynxms6
p5068
I1
sVd9nlcvr
p5069
I1
sVd7qm5cm
p5070
I1
sVdfnqkco
p5071
I2
sVdqza3eh
p5072
I1
sVd7u2p5y
p5073
I1
sVcyk374p
p5074
I1
sVdmy1yui
p5075
I1
sVdfsrhuf
p5076
I1
sVdir334s
p5077
I1
sVczsle50
p5078
I2
sVde1y5w7
p5079
I2
sVd1c1xj5
p5080
I1
sVdggqy3w
p5081
I1
sVdhwvo45
p5082
I1
sVd211fz2
p5083
I1
sVde8hyee
p5084
I1
sVd45skgu
p5085
I1
sVddbv80n
p5086
I1
sVdptj0hj
p5087
I2
sVdi2mx7w
p5088
I2
sVd7nuta0
p5089
I1
sVd3uw9pu
p5090
I1
sVd1vynuo
p5091
I1
sVddx9tnc
p5092
I2
sVdkhwzqz
p5093
I1
sVdneqluo
p5094
I2
sVd4l5hpg
p5095
I1
sVd5gr3ta
p5096
I1
sVddsc9la
p5097
I1
sVd83yjvc
p5098
I1
sVdcicmeu
p5099
I1
sVdfxxkx8
p5100
I1
sVd4powr0
p5101
I1
sVdedsf0h
p5102
I1
sVd6d2mzp
p5103
I5
sVdael0m6
p5104
I3
sVdsvvl6d
p5105
I2
sVdknb5mt
p5106
I2
sVdk66nlv
p5107
I1
sVd2xnu3k
p5108
I2
sVd3f3emr
p5109
I1
sVdjmkdzb
p5110
I3
sVd0ljejq
p5111
I1
sVdaec8yp
p5112
I2
sVdbezuke
p5113
I1
sVdaw9k9j
p5114
I1
sVd4rzmbi
p5115
I1
sVdd54vkk
p5116
I1
sVd3ruy3f
p5117
I1
sVd6pk33y
p5118
I1
sVdbu4etd
p5119
I1
sVdgows2w
p5120
I1
sVd671kxn
p5121
I1
sVd0ita8i
p5122
I1
sVdirhexj
p5123
I1
sVdhyik70
p5124
I4
sVd8d2w54
p5125
I3
sVdisoc91
p5126
I1
sVddspim2
p5127
I1
sVdb4l219
p5128
I1
sVd115i2k
p5129
I1
sVdd4wiio
p5130
I1
sVdq99h92
p5131
I1
sVd7tl7tw
p5132
I1
sVdfbmdji
p5133
I1
sVdrthib7
p5134
I1
sVdfheewl
p5135
I1
sVdfh0d3m
p5136
I1
sVd28gsa9
p5137
I1
sVd94cod4
p5138
I1
sVd70y9gn
p5139
I2
sVd1yzyz6
p5140
I3
sVczn4zcz
p5141
I1
sVd1cdbs6
p5142
I1
sVd2y2y0h
p5143
I1
sVdh858kt
p5144
I1
sVdfvxub1
p5145
I1
sVdjdgsuo
p5146
I1
sVdc5mlo9
p5147
I1
sVd26nwa0
p5148
I1
sVdej3d45
p5149
I1
sVd6j8ykv
p5150
I1
sVdmzfacd
p5151
I1
sVdgf913a
p5152
I2
sVd8jlwpq
p5153
I1
sVd2w92j7
p5154
I1
sVd6lgt1s
p5155
I1
sVd5mcajd
p5156
I1
sVcym8w1g
p5157
I1
sVdnrb8jb
p5158
I1
sVczcjpbo
p5159
I1
sVd0msz3f
p5160
I2
sVdc3ldlo
p5161
I1
sVd3hnca7
p5162
I1
sVd12cf8f
p5163
I1
sVd75nh5d
p5164
I1
sVd44ugsx
p5165
I1
sVd7uil3a
p5166
I1
sVdsg6ssh
p5167
I1
sVdhllpkn
p5168
I1
sVdqyd9tm
p5169
I1
sVddcnta9
p5170
I1
sVdq3ssu8
p5171
I1
sVd12jn3s
p5172
I1
sVd1ggcle
p5173
I1
sVd1w5fud
p5174
I1
sVddd7gn7
p5175
I1
sVcyo2x5d
p5176
I1
sVddcu3f2
p5177
I1
sVd29jry8
p5178
I2
sVd7bnt94
p5179
I1
sVd57sxj0
p5180
I1
sVddnanb6
p5181
I1
sVdfxclil
p5182
I1
sVd1h992u
p5183
I1
sVd36bana
p5184
I1
sVd4fwot6
p5185
I1
sVdd6g09r
p5186
I1
sVd8j18wn
p5187
I1
sVdpj30a0
p5188
I1
sVcz9g5fh
p5189
I3
sVdqwictr
p5190
I6
sVczhq8a3
p5191
I1
sVdj6kj42
p5192
I1
sVd7seblp
p5193
I1
sVda3sst8
p5194
I2
sVd3nxtpo
p5195
I3
sVdds9yv4
p5196
I1
sVd3hj5f2
p5197
I1
sVdkw2omu
p5198
I2
sVdiigb0a
p5199
I1
sVdi8u9m0
p5200
I1
sVd1e0rwt
p5201
I1
sVd7oitvl
p5202
I1
sVd40qzvu
p5203
I2
sVdj317c8
p5204
I1
sVd5go8w3
p5205
I1
sVdk10pk1
p5206
I2
sVd7sb9mw
p5207
I2
sVd0iegjf
p5208
I2
sVd3r8722
p5209
I1
sVdkfeyda
p5210
I1
sVdeddnxv
p5211
I1
sVdb03f60
p5212
I1
sVd89zllg
p5213
I2
sVd7hk00c
p5214
I1
sVddzbu9w
p5215
I1
sVddd7fdt
p5216
I1
sVdkf18vj
p5217
I2
sVdd638mi
p5218
I1
sVd911gxj
p5219
I1
sVd2ogrqn
p5220
I1
sVd03ovd4
p5221
I2
sVd3k2u74
p5222
I1
sVdjaanjs
p5223
I1
sVd237huk
p5224
I2
sVd5qmsmn
p5225
I1
sVdkfk0lx
p5226
I1
sVdcja52p
p5227
I1
sVd00zkhm
p5228
I1
sVdeu1bay
p5229
I1
sVdd4i2q1
p5230
I1
sVd7jy7hk
p5231
I2
sVd1mf6mv
p5232
I1
sVdizleye
p5233
I2
sVd5f40pl
p5234
I1
sVczgo3g2
p5235
I1
sVd59bcar
p5236
I1
sVdo09fw5
p5237
I1
sVcz7r9f7
p5238
I3
sVdajr89w
p5239
I1
sVdho9x6v
p5240
I1
sVd4yxfp4
p5241
I1
sVd8ktmak
p5242
I1
sVd87pxx2
p5243
I1
sVd5v26af
p5244
I1
sVd4dbw3r
p5245
I1
sVd6o1cjz
p5246
I1
sVcyxuyui
p5247
I1
sVd1u42e9
p5248
I1
sVcz2cefl
p5249
I2
sVd7ql0g7
p5250
I1
sVdaui4vi
p5251
I1
sVdfx95se
p5252
I1
sVd5tlue4
p5253
I1
sVd7e4vxf
p5254
I1
sVd2ve5yn
p5255
I1
sVcz8m7y4
p5256
I1
sVd4rtf4x
p5257
I1
sVda4j17n
p5258
I1
sVdqm0x0h
p5259
I1
sVd6rotir
p5260
I8
sVd9829f6
p5261
I1
sVditfnsm
p5262
I1
sVd6f938u
p5263
I1
sVdcgk2ys
p5264
I1
sVd5k0f5r
p5265
I1
sVdj634wr
p5266
I1
sVdfpn9rr
p5267
I1
sVcyvncax
p5268
I1
sVd4auq3y
p5269
I1
sVdnu85ty
p5270
I1
sVdjq5gyx
p5271
I1
sVdnwcund
p5272
I1
sVdk6tmyr
p5273
I1
sVdif9jq0
p5274
I1
sVdal69iy
p5275
I2
sVdbbo75b
p5276
I1
sVdizyfv4
p5277
I1
sVdgcodlg
p5278
I2
sVczign5m
p5279
I1
sVda1qwxi
p5280
I1
sVdnl8kwo
p5281
I1
sVdd84rs1
p5282
I1
sVd7iunaf
p5283
I2
sVdcp0q6h
p5284
I1
sVde73ylk
p5285
I1
sVd5t81np
p5286
I1
sVdr99xg7
p5287
I2
sVdmiknn7
p5288
I2
sVcynt59j
p5289
I1
sVde6wqcc
p5290
I1
sVdf1soyr
p5291
I1
sVd95qe20
p5292
I2
sVd71zjnl
p5293
I1
sVddw3ukz
p5294
I2
sVd7n44a7
p5295
I1
sVdtc7c61
p5296
I1
sVd2o77km
p5297
I1
sVdflw1s4
p5298
I1
sVdgsbjtd
p5299
I2
sVdd13grc
p5300
I1
sVdch3mar
p5301
I1
sVd1jens4
p5302
I1
sVdd0uns1
p5303
I1
sVdtfdkra
p5304
I1
sVd9ljmpx
p5305
I1
sVdmi1fpn
p5306
I1
sVd2mjape
p5307
I3
sVczionhv
p5308
I1
sVdbwhb3h
p5309
I1
sVd32idm1
p5310
I1
sVdbhvl7e
p5311
I2
sVdcfvg06
p5312
I1
sVd5e5rgn
p5313
I2
sVczgt2m0
p5314
I1
sVd482ed9
p5315
I1
sVd74bxln
p5316
I1
sVd8fj1eo
p5317
I3
sVd7qrtqd
p5318
I1
sVd7ooh3l
p5319
I1
sVczmetmf
p5320
I1
sVdrzz2yu
p5321
I1
sVd8dcp70
p5322
I1
sVdfm6wqz
p5323
I1
sVd1rqnh8
p5324
I1
sVd6gnxa2
p5325
I1
sVdbm56ni
p5326
I1
sVd4awvwo
p5327
I1
sVdrdby1s
p5328
I1
sVdmqmr3y
p5329
I1
sVdnde73d
p5330
I2
sVd0piyei
p5331
I3
sVd8ec6wm
p5332
I1
sVczywig0
p5333
I3
sVdsda712
p5334
I1
sVdghow7a
p5335
I1
sVdpyx9zb
p5336
I1
sVdc5mmba
p5337
I1
sVd1o6fyk
p5338
I1
sVdc30d5n
p5339
I1
sVdbgwz2c
p5340
I1
sVd1uq6kv
p5341
I2
sVd405rxk
p5342
I2
sVd1c6ipk
p5343
I1
sVd7mwib4
p5344
I1
sVdc9d16j
p5345
I1
sVd0n1t7u
p5346
I3
sVds03yrp
p5347
I1
sVdaqgqdu
p5348
I1
sVdhpmbpo
p5349
I1
sVdrzkwhr
p5350
I3
sVdgo4adv
p5351
I1
sVdk68pr9
p5352
I2
sVd2o364q
p5353
I1
sVdbzhxfr
p5354
I1
sVdo4xcd4
p5355
I2
sVds8mdac
p5356
I1
sVdqh4kps
p5357
I1
sVddjc6ea
p5358
I1
sVdd4m2fp
p5359
I2
sVd0xt8jw
p5360
I1
sVd7ghqju
p5361
I1
sVdf6jao3
p5362
I1
sVdd1hrm3
p5363
I1
sVd9kyqwt
p5364
I2
sVd16c2n9
p5365
I1
sVd29m2q1
p5366
I1
sVdcf6pzp
p5367
I1
sVdt925xt
p5368
I2
sVdivtwv5
p5369
I1
sVdrgts1v
p5370
I1
sVdmvouap
p5371
I1
sVdbali4m
p5372
I1
sVcyv2ld3
p5373
I3
sVdafnb79
p5374
I1
sVcz7ylaa
p5375
I1
sVdc4cka2
p5376
I1
sVda1dymb
p5377
I1
sVdhgfih5
p5378
I5
sVdf836bw
p5379
I2
sVd8gh359
p5380
I1
sVdiq8tiq
p5381
I2
sVd1aljai
p5382
I1
sVdf9z6gk
p5383
I1
sVdaecw9w
p5384
I1
sVd4y1evo
p5385
I1
sVdgf7amu
p5386
I1
sVdbd5hbl
p5387
I1
sVcymy4ic
p5388
I1
sVd8deujw
p5389
I1
sVdnt3x4q
p5390
I1
sVdqk8gdf
p5391
I1
sVd8qa1ml
p5392
I1
sVd7s9sfo
p5393
I1
sVdco5bs1
p5394
I1
sVdrfxktd
p5395
I3
sVdn339hn
p5396
I1
sVdob4e10
p5397
I1
sVcz51eh4
p5398
I1
sVdi6vhow
p5399
I1
sVdn01a1m
p5400
I1
sVd6c0lkz
p5401
I6
sVdhmx3k2
p5402
I1
sVd0dh1j0
p5403
I1
sVddxzsy8
p5404
I2
sVdcctuvo
p5405
I1
sVdqk2ekq
p5406
I1
sVdcxg9sy
p5407
I1
sVdh09ctt
p5408
I1
sVdemr7zn
p5409
I1
sVd5m98fh
p5410
I5
sVd0mtd41
p5411
I1
sVd6obu5o
p5412
I1
sVd0iherg
p5413
I1
sVdiu25b0
p5414
I1
sVdgjmts8
p5415
I1
sVdj8hi8e
p5416
I1
sVdavh6ih
p5417
I1
sVd5eic15
p5418
I2
sVd9bjahy
p5419
I1
sVdc9oyab
p5420
I1
sVdc15l7j
p5421
I1
sVddcpuqk
p5422
I1
sVdjuzmcu
p5423
I1
sVde950h4
p5424
I1
sVczug6yz
p5425
I1
sVdkltdku
p5426
I1
sVd9ziguj
p5427
I2
sVdhhhqke
p5428
I1
sVdo5monh
p5429
I5
sVdas6070
p5430
I1
sVds9m1kr
p5431
I1
sVdct5gvu
p5432
I1
sVd7oqj3h
p5433
I1
sVdel6btu
p5434
I1
sVd4tezcq
p5435
I1
sVcyjdtkz
p5436
I1
sVczg7yg7
p5437
I1
sVd5khac4
p5438
I2
sVd6anbeg
p5439
I1
sVdnv0bta
p5440
I1
sVdgu8k4w
p5441
I1
sVd2d4n8c
p5442
I1
sVcyu0d8c
p5443
I1
sVd3sqr0l
p5444
I1
sVdb3r7ot
p5445
I1
sVczlg9us
p5446
I1
sVcz5h3xw
p5447
I1
sVd69oi79
p5448
I1
sVd1btwvq
p5449
I3
sVdhlofup
p5450
I1
sVdab2k4w
p5451
I1
sVczvns9b
p5452
I1
sVd48ls9d
p5453
I1
sVd9c34pm
p5454
I1
sVd6m9e7h
p5455
I1
sVcyisaf1
p5456
I1
sVdgc40by
p5457
I2
sVd1sbucf
p5458
I1
sVd82wh24
p5459
I1
sVdf4jeyq
p5460
I1
sVdcunm3i
p5461
I1
sVdned8n9
p5462
I1
sVdkfhy9z
p5463
I1
sVd88v9nl
p5464
I1
sVddvhvr2
p5465
I1
sVdn1stkd
p5466
I1
sVdqab7mc
p5467
I2
sVd1br63c
p5468
I1
sVd1debu0
p5469
I2
sVdcwj2c9
p5470
I1
sVdf7yw71
p5471
I2
sVdkg54nc
p5472
I2
sVdbd30qf
p5473
I1
sVdag0vit
p5474
I1
sVczco2qm
p5475
I1
sVddj8nru
p5476
I1
sVd1kor05
p5477
I1
sVdq3ii8e
p5478
I1
sVdim6tdj
p5479
I1
sVdhe1u7e
p5480
I1
sVdiw1v9o
p5481
I1
sVdopaodd
p5482
I1
sVdtb3d7t
p5483
I2
sVd9l2buy
p5484
I2
sVd0ev2rc
p5485
I1
sVdqsub61
p5486
I1
sVdmzoxk1
p5487
I2
sVdav9qqh
p5488
I1
sVd8s3cp0
p5489
I1
sVd2r2sjh
p5490
I2
sVdt2k19g
p5491
I4
sVd1wo9kl
p5492
I1
sVdb5ebu5
p5493
I1
sVdc6ixmg
p5494
I2
sVdhz7jzr
p5495
I1
sVd2z2n47
p5496
I1
sVd2ebvvd
p5497
I2
sVdks8bdp
p5498
I2
sVdjpdu8o
p5499
I1
sVddmopmm
p5500
I1
sVdi748d4
p5501
I1
sVd5oxvvi
p5502
I2
sVdedlpvb
p5503
I2
sVczb4fa0
p5504
I1
sVdosyas9
p5505
I1
sVdcexbin
p5506
I1
sVd1x5qz8
p5507
I1
sVdjhihmz
p5508
I4
sVd3flz4j
p5509
I1
sVd8xx4n3
p5510
I1
sVd9c5sju
p5511
I1
sVczz6qod
p5512
I1
sVd42jrj2
p5513
I1
sVd1zbds7
p5514
I1
sVd5otiq6
p5515
I3
sVdh9nys2
p5516
I1
sVddhxea3
p5517
I1
sVdnp4c6c
p5518
I1
sVczeurao
p5519
I1
sVdjvbilw
p5520
I1
sVdbnn73c
p5521
I1
sVd6ctd7a
p5522
I1
sVd1yg5yg
p5523
I1
sVd7ai9hs
p5524
I2
sVdcbqk4s
p5525
I1
sVdek02vu
p5526
I1
sVdhrb51b
p5527
I1
sVdfk26oq
p5528
I1
sVdhz2ozq
p5529
I1
sVd1grq3a
p5530
I4
sVdjdicl2
p5531
I1
sVdnd9bmf
p5532
I3
sVd8j713x
p5533
I1
sVdi13qpp
p5534
I1
sVd035msx
p5535
I1
sVdemgnfd
p5536
I1
sVd012mw8
p5537
I1
sVd6dkcfg
p5538
I1
sVdh3wfuo
p5539
I1
sVdhp02zl
p5540
I2
sVczqogfd
p5541
I1
sVczgm1ip
p5542
I1
sVd5ew6k6
p5543
I1
sVdfvc8n4
p5544
I1
sVdjk5kzr
p5545
I1
sVd7c6n2b
p5546
I1
sVdp75ck8
p5547
I2
sVd6plvet
p5548
I1
sVd24k8o9
p5549
I1
sVdbwaitf
p5550
I1
sVdacaaif
p5551
I1
sVdhn4dkr
p5552
I1
sVd114ebt
p5553
I1
sVd4ooi5m
p5554
I1
sVd66rnvn
p5555
I2
sVczdwqhe
p5556
I2
sVd3k1cbr
p5557
I1
sVder9uts
p5558
I3
sVdiuyncc
p5559
I1
sVd87eio2
p5560
I1
sVd5p0fop
p5561
I1
sVdo8wfts
p5562
I1
sVd4rq82o
p5563
I1
sVd10t3re
p5564
I1
sVd0yczh5
p5565
I1
sVczxsnk9
p5566
I1
sVd8a3i9k
p5567
I1
sVdbrnnwx
p5568
I1
sVd1dok1a
p5569
I2
sVd3jdn08
p5570
I2
sVdq189fa
p5571
I1
sVdasegtw
p5572
I1
sVdj5vqcw
p5573
I1
sVd7jslf3
p5574
I2
sVd95jom0
p5575
I1
sVd7zcdza
p5576
I1
sVdg8qxb3
p5577
I1
sVdocemnv
p5578
I5
sVdflyx48
p5579
I2
sVdmw7nqs
p5580
I1
sVdkej5w0
p5581
I1
sVdeu38k7
p5582
I2
sVdf7tkwo
p5583
I1
sVdja7nce
p5584
I1
sVd3es5at
p5585
I1
sVd5v7ldr
p5586
I1
sVdcm039m
p5587
I5
sVddecic2
p5588
I1
sVd5w58w7
p5589
I2
sVdg617ov
p5590
I1
sVdaj9dme
p5591
I1
sVd8m7o6m
p5592
I2
sVdkrb230
p5593
I1
sVdr4pdy4
p5594
I1
sVd9rdjr7
p5595
I1
sVd7nk2tg
p5596
I2
sVdfbannh
p5597
I1
sVdt8l8pa
p5598
I1
sVdbm1zg3
p5599
I1
sVdb4h6f5
p5600
I1
sVdh27uaj
p5601
I1
sVddk5wl4
p5602
I2
sVdazebnc
p5603
I1
sVd6da5pk
p5604
I1
sVddu1uhx
p5605
I1
sVdhmzqw7
p5606
I1
sVd5c3sv9
p5607
I1
sVdgn794p
p5608
I1
sVddfj0g8
p5609
I2
sVd9apvnw
p5610
I1
sVdpv9okc
p5611
I3
sVdfwtuvj
p5612
I1
sVdi59j57
p5613
I1
sVdaic97m
p5614
I1
sVdc86m2m
p5615
I1
sVdfin8ta
p5616
I1
sVdf279ov
p5617
I1
sVdtfqzg4
p5618
I4
sVd4gqvin
p5619
I1
sVd5a0nak
p5620
I2
sVde8n91j
p5621
I1
sVd5146vn
p5622
I1
sVd5a0dks
p5623
I1
sVdfgq7ru
p5624
I3
sVd30opcv
p5625
I1
sVd7shvbc
p5626
I1
sVcyjsi9f
p5627
I1
sVd71nwah
p5628
I1
sVdr4aa57
p5629
I1
sVdfkkmlh
p5630
I1
sVdco9zsm
p5631
I1
sVdk3abjy
p5632
I1
sVd9k528l
p5633
I1
sVd38s4wi
p5634
I1
sVdkv3rkt
p5635
I1
sVdt7p7ky
p5636
I1
sVdas86qk
p5637
I2
sVdb36ze2
p5638
I1
sVd2w7bco
p5639
I2
sVdn2uyi2
p5640
I2
sVd5cqldy
p5641
I1
sVdnm19zo
p5642
I1
sVdt2a5qj
p5643
I1
sVdnkh6b9
p5644
I1
sVd01o551
p5645
I1
sVdabserh
p5646
I1
sVd6xzfju
p5647
I1
sVdg5bliq
p5648
I1
sVd5yzdtc
p5649
I2
sVdam3sai
p5650
I1
sVdayslbn
p5651
I1
sVd0s4hzi
p5652
I1
sVdapzikb
p5653
I1
sVd1iy10e
p5654
I1
sVdfqzqen
p5655
I2
sVdii1lob
p5656
I1
sVdbucd6e
p5657
I1
sVdmne8oi
p5658
I1
sVd9dklrp
p5659
I1
sVd2wj452
p5660
I1
sVdg9fgl1
p5661
I1
sVdfjgd8k
p5662
I1
sVd01d2a4
p5663
I1
sVd196grf
p5664
I1
sVdab705x
p5665
I1
sVcz2rpe7
p5666
I1
sVd28xr6b
p5667
I2
sVdfzy8sg
p5668
I1
sVd0ynug3
p5669
I1
sVd6pxgnz
p5670
I1
sVdk9n6yk
p5671
I1
sVd1p69pz
p5672
I1
sVcyz7bfl
p5673
I1
sVd8xisgs
p5674
I1
sVd0vmrox
p5675
I1
sVdny7kof
p5676
I1
sVcztipct
p5677
I1
sVdj8apsl
p5678
I1
sVdiwh2uz
p5679
I2
sVczhj1kt
p5680
I1
sVczl8sc1
p5681
I1
sVd3deu9g
p5682
I1
sVdiz0862
p5683
I1
sVd1vxq5n
p5684
I2
sVd4xsqjz
p5685
I1
sVdehli5b
p5686
I1
sVd6jlfre
p5687
I1
sVdjyopvl
p5688
I1
sVd1gppuy
p5689
I1
sVdhgnc9r
p5690
I2
sVdg8qcp3
p5691
I1
sVdaoay7q
p5692
I1
sVdhn3b9z
p5693
I4
sVd2bwe17
p5694
I1
sVd2dsxjr
p5695
I2
sVdcwhstb
p5696
I1
sVdi6chsh
p5697
I1
sVcz46wlk
p5698
I1
sVdics8kc
p5699
I1
sVdfahs6b
p5700
I2
sVczl80a2
p5701
I1
sVd8u4472
p5702
I2
sVd0c8p7b
p5703
I1
sVdjwph32
p5704
I1
sVd1m8zwi
p5705
I1
sVd8d6h1f
p5706
I1
sVdghe13e
p5707
I1
sVd8s0ye0
p5708
I2
sVdmwr2q7
p5709
I1
sVd1aza4i
p5710
I1
sVdowbcf6
p5711
I1
sVdgkfkt6
p5712
I5
sVcz3a4f7
p5713
I1
sVd7ysgph
p5714
I2
sVdcx1crr
p5715
I1
sVdp9hbkz
p5716
I1
sVd5ltnzg
p5717
I1
sVdo1itwj
p5718
I1
sVdby2uwz
p5719
I2
sVd128n68
p5720
I1
sVcywoqxw
p5721
I1
sVdeqw8n0
p5722
I1
sVd7nnczx
p5723
I1
sVcyteub8
p5724
I1
sVd9qgri5
p5725
I1
sVdmqbvah
p5726
I6
sVdfh64s5
p5727
I1
sVd3n734n
p5728
I1
sVczensfb
p5729
I1
sVdhyb06o
p5730
I1
sVd9ujn7c
p5731
I1
sVdjnngwm
p5732
I1
sVdkiihle
p5733
I1
sVdsi0561
p5734
I1
sVd4yx4tf
p5735
I1
sVd0z7w4t
p5736
I1
sVday85zv
p5737
I2
sVcyxgnqd
p5738
I1
sVdd445u7
p5739
I2
sVczb8b65
p5740
I1
sVdjygppc
p5741
I1
sVd933gsp
p5742
I1
sVd2eg6ga
p5743
I1
sVd6jdhn0
p5744
I1
sVdicbiu9
p5745
I1
sVd5hze1s
p5746
I1
sVd0yuzla
p5747
I1
sVde3ywih
p5748
I2
sVdn2vjar
p5749
I1
sVdksddrb
p5750
I2
sVdailpnx
p5751
I1
sVd7sugvo
p5752
I2
sVd65qi2l
p5753
I3
sVdfut1f2
p5754
I1
sVd0z7a0c
p5755
I1
sVdeleg4q
p5756
I1
sVdjievr5
p5757
I1
sVd5du0xi
p5758
I1
sVdjzix0p
p5759
I1
sVdnlo61x
p5760
I1
sVdf2mpxm
p5761
I1
sVdfzsknl
p5762
I1
sVdg7c9ov
p5763
I1
sVddbty7b
p5764
I3
sVczfmrm3
p5765
I1
sVdhiz5f9
p5766
I1
sVdnwbi66
p5767
I2
sVd5gapgs
p5768
I1
sVdbnffp0
p5769
I1
sVdgur4k6
p5770
I3
sVdhiloho
p5771
I1
sVdg6w5ma
p5772
I1
sVczbs4ww
p5773
I1
sVdg27k2m
p5774
I1
sVd7p0sgl
p5775
I1
sVdcfj5o4
p5776
I1
sVddnrscw
p5777
I1
sVdchm1z5
p5778
I1
sVdnqxia8
p5779
I1
sVd1ul65w
p5780
I1
sVd0ig7qs
p5781
I1
sVdt6hems
p5782
I5
sVdn9zdgz
p5783
I1
sVdkvnprz
p5784
I1
sVd3wzwid
p5785
I1
sVddol8hh
p5786
I1
sVds744fn
p5787
I1
sVd4xjl7b
p5788
I1
sVdqtq6cr
p5789
I3
sVd0um6s3
p5790
I2
sVd50ohvd
p5791
I1
sVdjmwbfv
p5792
I1
sVdii3c41
p5793
I2
sVd2jci8t
p5794
I1
sVdb8ados
p5795
I1
sVdceb4ou
p5796
I1
sVd1ytypq
p5797
I1
sVdat85vd
p5798
I1
sVd920y25
p5799
I2
sVd5at6dq
p5800
I1
sVdiub6sk
p5801
I1
sVcyk2qg3
p5802
I1
sVdn6jzjz
p5803
I1
sVdjhp14g
p5804
I1
sVd4famx1
p5805
I1
sVd2m450i
p5806
I1
sVd3yspn6
p5807
I1
sVddo9hyl
p5808
I1
sVd0i6pps
p5809
I2
sVd7ukto3
p5810
I1
sVdfb392v
p5811
I2
sVdb8ve18
p5812
I1
sVcz7puh9
p5813
I1
sVda6lhsz
p5814
I2
sVd5emqte
p5815
I1
sVdgzn0s8
p5816
I1
sVded8erf
p5817
I1
sVda7ykv3
p5818
I1
sVdn2d512
p5819
I1
sVdpe8jz9
p5820
I1
sVcz57a2y
p5821
I1
sVdcbkz3w
p5822
I2
sVdmtegi7
p5823
I1
sVd9k2t3a
p5824
I1
sVdbslqjk
p5825
I1
sVdj6iujh
p5826
I1
sVd0jfmnm
p5827
I2
sVd2jivd8
p5828
I1
sVcz3waz2
p5829
I1
sVdp5ep8l
p5830
I1
sVd2xmtdn
p5831
I1
sVd36433j
p5832
I1
sVdr8rdje
p5833
I1
sVdhx0npb
p5834
I2
sVd3xqxkr
p5835
I1
sVd5ihkgh
p5836
I2
sVdn1e8g3
p5837
I2
sVdgtk7kh
p5838
I1
sVd42btly
p5839
I1
sVd46bruy
p5840
I3
sVd11mzvx
p5841
I1
sVdddoq4q
p5842
I1
sVd7o6gho
p5843
I1
sVd3mviwe
p5844
I1
sVdr0jpvd
p5845
I2
sVdfp0t2i
p5846
I1
sVdt0vldt
p5847
I1
sVdtguse6
p5848
I4
sVdhlnxrc
p5849
I2
sVdirzjp1
p5850
I1
sVd7e5pb8
p5851
I1
sVdq23kd1
p5852
I1
sVdg4qywl
p5853
I1
sVd0b64fy
p5854
I1
sVd8flm2h
p5855
I1
sVdbx744s
p5856
I1
sVdmyapu3
p5857
I2
sVd1m5585
p5858
I1
sVd9mudg1
p5859
I1
sVdq2yvrh
p5860
I2
sVcyvh4ei
p5861
I1
sVdf99tgq
p5862
I1
sVd0asxjh
p5863
I1
sVd91dyz9
p5864
I1
sVd9gd008
p5865
I1
sVcz9s7id
p5866
I1
sVdbegk8u
p5867
I1
sVdau34z0
p5868
I2
sVd0ehh7j
p5869
I2
sVd2gkn7o
p5870
I1
sVdnhy84g
p5871
I1
sVcyiswmp
p5872
I1
sVcz294mg
p5873
I1
sVdg9kfe3
p5874
I2
sVdenbbef
p5875
I2
sVddctgpi
p5876
I1
sVd1p3df2
p5877
I1
sVdkj4dyq
p5878
I1
sVd3k3jvp
p5879
I1
sVdoxt7z6
p5880
I1
sVdcqzdq1
p5881
I2
sVdmvw343
p5882
I5
sVd9sncxf
p5883
I1
sVd8kxtox
p5884
I2
sVdgd7mo3
p5885
I1
sVdnwdau4
p5886
I1
sVd097ooh
p5887
I7
sVd7cqaie
p5888
I1
sVdf4btg2
p5889
I1
sVdf6tn1o
p5890
I1
sVd3rsvsd
p5891
I1
sVd4p4w7u
p5892
I1
sVcytlt60
p5893
I1
sVdgu3l6m
p5894
I4
sVdjwril3
p5895
I1
sVdfurnuw
p5896
I1
sVdc5fb6l
p5897
I1
sVdajyj2d
p5898
I1
sVdd960yr
p5899
I1
sVdj3pvam
p5900
I1
sVdbvm1nh
p5901
I1
sVdf6fwgr
p5902
I1
sVdeuqtfk
p5903
I1
sVdcliwdc
p5904
I2
sVd2uupm4
p5905
I1
sVdggjwxw
p5906
I2
sVd7qffqb
p5907
I1
sVcyrqj6m
p5908
I1
sVd3jb3pf
p5909
I1
sVdgyt6wi
p5910
I1
sVczw7njt
p5911
I1
sVdgtthq9
p5912
I2
sVdfhm01v
p5913
I1
sVd6sr8tv
p5914
I3
sVdjfzg4i
p5915
I1
sVd45wmd6
p5916
I1
sVdhhpfnv
p5917
I2
sVd3hqin2
p5918
I1
sVds008zc
p5919
I1
sVdfxiy1t
p5920
I1
sVdpa70iy
p5921
I1
sVdd4tr95
p5922
I1
sVdhvwg1n
p5923
I1
sVcyo8ghm
p5924
I1
sVd77g5p6
p5925
I1
sVdnb1njy
p5926
I1
sVd3c2p3g
p5927
I1
sVdk9yr1y
p5928
I2
sVd6z92jx
p5929
I1
sVdem6fpw
p5930
I1
sVde2wb1w
p5931
I1
sVdjlyrw0
p5932
I1
sVd8i2vnz
p5933
I1
sVddicng7
p5934
I1
sVd2a784u
p5935
I1
sVdoxgtbf
p5936
I1
sVdoka3po
p5937
I1
sVdehtam5
p5938
I1
sVde78d94
p5939
I1
sVd3xd7sh
p5940
I2
sVd40ml34
p5941
I1
sVd1ahh32
p5942
I1
sVdh9ue98
p5943
I3
sVd7jdx3z
p5944
I1
sVd3qeigz
p5945
I1
sVd3vf7lb
p5946
I1
sVd8wbpkg
p5947
I1
sVdb8dc58
p5948
I2
sVd2d0711
p5949
I1
sVdbn2v3q
p5950
I1
sVczx78sn
p5951
I1
sVd2tlms9
p5952
I1
sVda1pvz2
p5953
I1
sVdflygqb
p5954
I1
sVde41wuz
p5955
I1
sVdkp12th
p5956
I1
sVdbit2xw
p5957
I1
sVdqth01g
p5958
I1
sVddmiyiu
p5959
I1
sVdejceet
p5960
I1
sVd68czia
p5961
I2
sVdii1x13
p5962
I5
sVdcc9o2h
p5963
I2
sVd0ydlss
p5964
I1
sVd94pts2
p5965
I1
sVd02ob53
p5966
I1
sVcylxq6p
p5967
I1
sVd2xs95c
p5968
I1
sVcywqaj4
p5969
I1
sVdd90u6g
p5970
I1
sVd16i67p
p5971
I1
sVdg3jgct
p5972
I1
sVcz2phc1
p5973
I1
sVdat3jqe
p5974
I1
sVdiqkm4g
p5975
I1
sVdq6fnzx
p5976
I1
sVd1v1by5
p5977
I1
sVd872f0u
p5978
I3
sVdgrxotk
p5979
I4
sVdivrh9a
p5980
I1
sVd5n7z0b
p5981
I1
sVdpcuvtn
p5982
I1
sVdeh1aov
p5983
I2
sVd2oau6u
p5984
I1
sVdiegqh3
p5985
I1
sVdap7l7f
p5986
I1
sVd5co4g7
p5987
I1
sVd159nwt
p5988
I1
sVddd2hhn
p5989
I1
sVd1fox9n
p5990
I2
sVd1cyrcd
p5991
I1
sVczisqee
p5992
I1
sVd19eqgx
p5993
I1
sVdickccw
p5994
I1
sVd8hwy74
p5995
I1
sVdg1d00i
p5996
I2
sVd5xugb3
p5997
I1
sVdh5fmvh
p5998
I1
sVcyxvu0d
p5999
I1
sVd4ky5ls
p6000
I1
sVcytsgfa
p6001
I1
sVd6l83ye
p6002
I1
sVd12exux
p6003
I1
sVdhtqhfw
p6004
I1
sVd8jaio8
p6005
I1
sVdfgu1ql
p6006
I1
sVd9pmfw4
p6007
I1
sVdsbntc5
p6008
I2
sVdqzjnpd
p6009
I1
sVczi7kwc
p6010
I1
sVd0gjjcn
p6011
I1
sVdmmzz0d
p6012
I1
sVds8m428
p6013
I2
sVd9v6r8e
p6014
I1
sVd6dv3fi
p6015
I1
sVdicubw7
p6016
I1
sVdn9xwxh
p6017
I1
sVd0ch075
p6018
I1
sVdftwgr0
p6019
I1
sVcz4x7a1
p6020
I1
sVdkbrzfd
p6021
I1
sVdazlucy
p6022
I3
sVd29sn6p
p6023
I2
sVd508ztk
p6024
I5
sVdeb7fgl
p6025
I2
sVds70qxq
p6026
I1
sVd6u1ag0
p6027
I1
sVda7zqto
p6028
I1
sVd0kiz1h
p6029
I1
sVcyq4l8f
p6030
I1
sVcywr6uy
p6031
I3
sVds9uwg1
p6032
I1
sVdj6n3vn
p6033
I1
sVdkd0q1y
p6034
I3
sVd71qnke
p6035
I1
sVdao9gpj
p6036
I1
sVd0u7yju
p6037
I1
sVdh7hrdu
p6038
I2
sVdmo25u6
p6039
I1
sVdfahnu7
p6040
I1
sVd88u9vm
p6041
I2
sVdjd0bv7
p6042
I1
sVdqe2488
p6043
I1
sVdcromg7
p6044
I1
sVdiofl9v
p6045
I4
sVd5wexfo
p6046
I1
sVdi9zki8
p6047
I1
sVdp0k5hn
p6048
I1
sVdfpttaa
p6049
I1
sVd7wrr3a
p6050
I1
sVczu0tfr
p6051
I1
sVd37cm31
p6052
I1
sVd535pli
p6053
I1
sVdehina9
p6054
I3
sVdgew2bp
p6055
I1
sVd1b5odu
p6056
I2
sVd78voty
p6057
I2
sVd0ccas9
p6058
I1
sVdbjd7n8
p6059
I1
sVdcnh6qi
p6060
I1
sVdfbabnj
p6061
I1
sVddiz7tf
p6062
I1
sVda33pw3
p6063
I1
sVdkrdmgf
p6064
I1
sVcymtncy
p6065
I1
sVdgn4d98
p6066
I1
sVdfe7peh
p6067
I1
sVd1sb6a0
p6068
I1
sVd4w07vx
p6069
I3
sVdahoslo
p6070
I1
sVd5l1k73
p6071
I2
sVd8jywgo
p6072
I1
sVd3yijfg
p6073
I2
sVd9n4plp
p6074
I1
sVdji8h15
p6075
I2
sVd2hu3t9
p6076
I1
sVd9hzvjs
p6077
I1
sVdomxwou
p6078
I1
sVdffv3hg
p6079
I1
sVd2fk0b2
p6080
I1
sVd1e1oxx
p6081
I1
sVcz0mpll
p6082
I1
sVdb0fy7s
p6083
I1
sVcz6p4ci
p6084
I1
sVd3zsjwb
p6085
I2
sVczn3033
p6086
I2
sVdamq1q7
p6087
I1
sVd3pbraa
p6088
I1
sVd0c1vyz
p6089
I1
sVd627gng
p6090
I1
sVdnz5j4d
p6091
I1
sVd0wb74w
p6092
I1
sVcyisxz0
p6093
I1
sVdape5fg
p6094
I1
sVdr0vkt0
p6095
I2
sVd50g4ki
p6096
I1
sVddzxf7x
p6097
I1
sVdkm0l4w
p6098
I1
sVddktblz
p6099
I1
sVd30jbrj
p6100
I1
sVd2uumh2
p6101
I1
sVd77fo7k
p6102
I1
sVdb3gqa0
p6103
I1
sVdcir9v4
p6104
I1
sVd8hbb8x
p6105
I3
sVd275sd6
p6106
I2
sVdtfmtb6
p6107
I1
sVd6hzzwg
p6108
I1
sVd37cfk8
p6109
I1
sVdd7mqsc
p6110
I1
sVdoxfym0
p6111
I1
sVd86ofj0
p6112
I1
sVdry8ys2
p6113
I2
sVd5wwn3c
p6114
I4
sVcyquqc3
p6115
I2
sVdbbxkha
p6116
I1
sVdguzr81
p6117
I1
sVdhr32i3
p6118
I1
sVdnm1xiw
p6119
I1
sVd6hyeq5
p6120
I1
sVdn2zduo
p6121
I1
sVd7zgakm
p6122
I1
sVd1bou5j
p6123
I1
sVdirv7hs
p6124
I1
sVd526uxw
p6125
I2
sVdaekm4w
p6126
I1
sVdd50uzj
p6127
I1
sVd2g02uq
p6128
I1
sVcyrq48o
p6129
I1
sVdp1ndmu
p6130
I1
sVdhr37ah
p6131
I2
sVde0lo3b
p6132
I1
sVdh48m10
p6133
I1
sVd5aug4s
p6134
I2
sVcyn09k7
p6135
I1
sVd5rhgpe
p6136
I1
sVdbmq6fr
p6137
I1
sVd48b7pp
p6138
I1
sVcyqc726
p6139
I1
sVdksanr7
p6140
I1
sVdpm54vk
p6141
I1
sVddu6w9w
p6142
I1
sVdr2myj3
p6143
I3
sVddomgna
p6144
I1
sVd1fk6ox
p6145
I1
sVde2fs74
p6146
I1
sVdcnr96a
p6147
I2
sVczyjed7
p6148
I1
sVcyjgf89
p6149
I1
sVczi3opx
p6150
I1
sVdhsvu9w
p6151
I1
sVdnh8wkb
p6152
I1
sVd2eyhhp
p6153
I3
sVczdnjt6
p6154
I2
sVdkccjv7
p6155
I1
sVdnawxvz
p6156
I1
sVd2qg3do
p6157
I1
sVde10nh4
p6158
I2
sVcz8j1ue
p6159
I2
sVd0sah48
p6160
I1
sVdfc0y6y
p6161
I1
sVdgowj2c
p6162
I1
sVd3npet6
p6163
I1
sVdq1196u
p6164
I2
sVd1xssze
p6165
I1
sVd9a6uzu
p6166
I1
sVdrydmzd
p6167
I3
sVd2vqee5
p6168
I1
sVdhp4r6s
p6169
I1
sVd8xr9k6
p6170
I1
sVd2my08b
p6171
I1
sVd7y42u9
p6172
I1
sVd1aapyo
p6173
I5
sVcywhu7t
p6174
I1
sVdcc8jfx
p6175
I1
sVd1zjaz5
p6176
I1
sVcysz7ys
p6177
I1
sVczfnc4q
p6178
I1
sVd20qsfu
p6179
I1
sVd88jju7
p6180
I1
sVd260a9e
p6181
I1
sVd9kjik0
p6182
I1
sVds0yyil
p6183
I1
sVd97lh9d
p6184
I1
sVdbwq48w
p6185
I1
sVdskz8p5
p6186
I3
sVdeudm84
p6187
I2
sVddj0hk1
p6188
I1
sVdnrf43u
p6189
I1
sVdehk7ym
p6190
I1
sVczf00xx
p6191
I1
sVdmf69b1
p6192
I1
sVdi1f61i
p6193
I1
sVdc9anp8
p6194
I1
sVd0p02um
p6195
I1
sVdnzyoc7
p6196
I1
sVdbytl4h
p6197
I1
sVdftg0qe
p6198
I1
sVczqqwcz
p6199
I2
sVd62qu07
p6200
I1
sVd42h6hd
p6201
I1
sVdr2ha9a
p6202
I1
sVd11fhiz
p6203
I1
sVdh0t3yd
p6204
I2
sVdel3pm0
p6205
I1
sVdag3pk0
p6206
I1
sVdfe041s
p6207
I1
sVdcf2ujf
p6208
I1
sVdjaz3uf
p6209
I1
sVdfnml0r
p6210
I1
sVd1nqr9d
p6211
I1
sVd4e878o
p6212
I1
sVd9c2etw
p6213
I2
sVcyjl1t3
p6214
I1
sVd1xaaka
p6215
I2
sVdavekzt
p6216
I2
sVd11kzad
p6217
I1
sVdhysd0w
p6218
I1
sVdhn2nf9
p6219
I2
sVd4pnyv3
p6220
I2
sVdoskoo0
p6221
I1
sVd86nvkm
p6222
I1
sVd6zu4g1
p6223
I1
sVd3dea7l
p6224
I1
sVdk2jgb1
p6225
I1
sVdibte5u
p6226
I1
sVdg12j1j
p6227
I1
sVdd8lwfl
p6228
I1
sVd3bv7o7
p6229
I1
sVde9zl5k
p6230
I1
sVcyka0c2
p6231
I1
sVcz2w404
p6232
I2
sVd56dzin
p6233
I1
sVd0l5ftx
p6234
I1
sVdn70s85
p6235
I1
sVdd3y419
p6236
I1
sVdemvbfa
p6237
I1
sVdh0db90
p6238
I1
sVdaxgk71
p6239
I1
sVd8dghnf
p6240
I1
sVdt6m9sq
p6241
I1
sVdjsgn9p
p6242
I1
sVd6b2681
p6243
I1
sVdahojo9
p6244
I1
sVdnboskh
p6245
I1
sVdgzfcu0
p6246
I1
sVd312svi
p6247
I2
sVdtihrl0
p6248
I1
sVd000evx
p6249
I1
sVdj8rb3v
p6250
I2
sVdiwf2j2
p6251
I2
sVdh193kq
p6252
I2
sVdpqxs8h
p6253
I1
sVd23gdcy
p6254
I1
sVcz9uxkw
p6255
I2
sVdf9yqeb
p6256
I1
sVdq317fx
p6257
I2
sVcztakbt
p6258
I1
sVdi92xlh
p6259
I1
sVdehv1t2
p6260
I1
sVd3zm4ig
p6261
I1
sVdbf01xb
p6262
I1
sVd4s61o7
p6263
I2
sVd1zf7vd
p6264
I1
sVde2eubu
p6265
I1
sVd8derak
p6266
I1
sVdeqmkyl
p6267
I1
sVd27azrq
p6268
I1
sVdfblhng
p6269
I3
sVd798uya
p6270
I2
sVdenao03
p6271
I4
sVd52tpkc
p6272
I1
sVda15u8z
p6273
I1
sVczsg8ob
p6274
I1
sVd00i1er
p6275
I1
sVczu1cf8
p6276
I1
sVds57kyt
p6277
I4
sVd14rp46
p6278
I1
sVd3ppunh
p6279
I1
sVd7h3rv8
p6280
I2
sVdpz30cj
p6281
I1
sVdt47nv3
p6282
I1
sVcyxsu0u
p6283
I1
sVd1d5w8c
p6284
I1
sVdmpmkhf
p6285
I1
sVdotz3or
p6286
I1
sVd1t880z
p6287
I1
sVd2q761t
p6288
I4
sVdbi9y46
p6289
I1
sVde1vf9n
p6290
I2
sVdhi6s51
p6291
I1
sVd7e9ouz
p6292
I1
sVd1mt2oq
p6293
I1
sVdehlckv
p6294
I1
sVdaedyq4
p6295
I4
sVd841tjk
p6296
I2
sVd1aj0re
p6297
I1
sVdd7em6v
p6298
I1
sVdjpwcig
p6299
I2
sVda7wy23
p6300
I1
sVd1zyq3w
p6301
I1
sVdo57rzl
p6302
I4
sVdtbncjn
p6303
I1
sVcz28itb
p6304
I1
sVd9p3kq5
p6305
I1
sVcypxmo1
p6306
I2
sVd1y4d2e
p6307
I1
sVcz18tjd
p6308
I1
sVd7xpebo
p6309
I1
sVcz78awr
p6310
I1
sVdq1oriy
p6311
I1
sVd628rv6
p6312
I1
sVdftktz9
p6313
I1
sVczzc3q9
p6314
I1
sVddja7ib
p6315
I1
sVd72507v
p6316
I1
sVd1p30y0
p6317
I1
sVd1yn967
p6318
I2
sVdbw9f5x
p6319
I1
sVddx5w3s
p6320
I2
sVdbbvpie
p6321
I2
sVdsuao7n
p6322
I1
sVdpqfuf9
p6323
I1
sVdqxscmw
p6324
I1
sVczwd8yi
p6325
I1
sVcyyd0u5
p6326
I1
sVdiok78o
p6327
I1
sVdhdvfqp
p6328
I1
sVdd71feu
p6329
I1
sVd9uk07e
p6330
I1
sVdb3j4z7
p6331
I1
sVdc7sk1f
p6332
I1
sVdck5p9t
p6333
I1
sVdj6xg1r
p6334
I1
sVda3nnjz
p6335
I1
sVcyr3fyk
p6336
I1
sVdet6wr8
p6337
I1
sVczm6naq
p6338
I1
sVdqa8k1w
p6339
I1
sVd0lyt8k
p6340
I1
sVd40pxdj
p6341
I1
sVdhhas5d
p6342
I1
sVdaa9k7e
p6343
I1
sVde0h5qk
p6344
I1
sVdetcg5o
p6345
I1
sVd1ysubo
p6346
I7
sVdr55jdc
p6347
I1
sVdf6a19c
p6348
I1
sVcz3ewl5
p6349
I1
sVd47m424
p6350
I2
sVd8ja4vv
p6351
I1
sVdest1nb
p6352
I2
sVcypftin
p6353
I1
sVczdr6wi
p6354
I1
sVd8nh407
p6355
I1
sVdmhwb9n
p6356
I1
sVd25bvpl
p6357
I1
sVdcssnus
p6358
I1
sVdauawe1
p6359
I1
sVd4pnz9u
p6360
I4
sVd0t8ll4
p6361
I2
sVd344ue4
p6362
I1
sVdctwaer
p6363
I1
sVd9czk68
p6364
I1
sVdku0kjp
p6365
I1
sVdnbb408
p6366
I1
sVdahtaku
p6367
I1
sVd5g1qk4
p6368
I1
sVd06de3g
p6369
I1
sVcz8y270
p6370
I1
sVdfkihn1
p6371
I2
sVd9swovp
p6372
I2
sVdd7b9hk
p6373
I2
sVdd5rfvd
p6374
I1
sVdh1p4f1
p6375
I1
sVdcsg3fy
p6376
I1
sVdcmlrs5
p6377
I2
sVd0qpt5o
p6378
I1
sVdey55w7
p6379
I1
sVdd776al
p6380
I1
sVd7l55cr
p6381
I1
sVdgomlp5
p6382
I1
sVds98a8o
p6383
I1
sVd0v9p52
p6384
I2
sVd8l8467
p6385
I1
sVd6ebhrr
p6386
I1
sVd7xgp4d
p6387
I1
sVdkvrvk0
p6388
I1
sVdivzj28
p6389
I1
sVd2ke68z
p6390
I1
sVd0o0g47
p6391
I1
sVdjhxj16
p6392
I2
sVd8v9kxa
p6393
I1
sVdfgpf14
p6394
I1
sVddun8h6
p6395
I1
sVd95y71w
p6396
I1
sVd96f4om
p6397
I1
sVd60ox0t
p6398
I1
sVdg6cn2h
p6399
I1
sVdkdb1it
p6400
I1
sVdkfzunl
p6401
I1
sVdiugn1e
p6402
I1
sVdaw4jr6
p6403
I1
sVdgto69r
p6404
I1
sVcznjo4r
p6405
I1
sVd4067z9
p6406
I1
sVdrmlofc
p6407
I3
sVdpnnt50
p6408
I1
sVd6bvyi1
p6409
I1
sVd6buyqq
p6410
I1
sVdg43cq5
p6411
I1
sVdnmiu0g
p6412
I1
sVd6csv4z
p6413
I1
sVd6qo91w
p6414
I1
sVdf53wis
p6415
I1
sVdgcp650
p6416
I1
sVdh0cvjp
p6417
I1
sVd38jwhh
p6418
I1
sVdq1pif6
p6419
I1
sVd9hwmnk
p6420
I1
sVdibq0ov
p6421
I1
sVd6607fi
p6422
I1
sVdp8j2yt
p6423
I1
sVdjy7bf4
p6424
I1
sVdt3yuz3
p6425
I1
sVdb1rli3
p6426
I1
sVdqzg8u9
p6427
I1
sVdn8oy2v
p6428
I1
sVdgfpnxd
p6429
I1
sVda0js6w
p6430
I1
sVdhox3go
p6431
I2
sVdio2jwk
p6432
I1
sVdbv51si
p6433
I1
sVd2ubgbq
p6434
I1
sVdh652v1
p6435
I1
sVczygjv7
p6436
I1
sVcyzz3ps
p6437
I1
sVdi39gj0
p6438
I1
sVd36zmgf
p6439
I1
sVdbo71ql
p6440
I1
sVd5ptb9d
p6441
I4
sVczsop8n
p6442
I1
sVdtin1p2
p6443
I3
sVdmy590x
p6444
I3
sVdayw2ku
p6445
I1
sVdo5ew9w
p6446
I1
sVdqr2djm
p6447
I1
sVdgybuby
p6448
I1
sVd8y16xj
p6449
I1
sVd17gnye
p6450
I1
sVd0pu6r3
p6451
I1
sVdenyrg8
p6452
I1
sVdh9d28y
p6453
I8
sVdfjfsow
p6454
I1
sVdjfll9z
p6455
I2
sVd7jsm06
p6456
I1
sVczvakkp
p6457
I1
sVd1xy4zs
p6458
I1
sVd6lcogd
p6459
I1
sVdpmnyxs
p6460
I1
sVdaujhaz
p6461
I1
sVdet8twf
p6462
I4
sVdi3h8fd
p6463
I1
sVdnp9b8b
p6464
I1
sVd7o7t7a
p6465
I1
sVdh18fr0
p6466
I2
sVdhlp8y6
p6467
I3
sVdrslnap
p6468
I1
sVdchr2v6
p6469
I1
sVd0d3qlu
p6470
I1
sVdpgob88
p6471
I3
sVd6vopxd
p6472
I2
sVd93cd8l
p6473
I1
sVd0m69yv
p6474
I1
sVdjqumsz
p6475
I1
sVd46um98
p6476
I1
sVdsfd073
p6477
I1
sVdnjjcb2
p6478
I1
sVd9wil2k
p6479
I1
sVdcixbwl
p6480
I1
sVdcydxnr
p6481
I3
sVd0ko14u
p6482
I2
sVd0gvmmr
p6483
I1
sVdchbi4e
p6484
I1
sVd5ff4of
p6485
I1
sVcyxvyl8
p6486
I1
sVd7yrmk6
p6487
I1
sVcytyv8c
p6488
I1
sVd2lw9bc
p6489
I1
sVczj31yc
p6490
I1
sVdjc8d53
p6491
I2
sVcyv3ush
p6492
I1
sVdd5i736
p6493
I1
sVdcwiqjp
p6494
I1
sVdj58rk3
p6495
I2
sVddj7gf0
p6496
I1
sVdb0jhd1
p6497
I2
sVdieky4d
p6498
I2
sVdpnywv5
p6499
I1
sVd9ixo8x
p6500
I1
sVd7isq4a
p6501
I1
sVdfunvai
p6502
I2
sVdfyi96t
p6503
I4
sVd9bkods
p6504
I1
sVdoskqvq
p6505
I1
sVd3grmcq
p6506
I1
sVd9x3p5i
p6507
I1
sVddyf20o
p6508
I3
sVdao8co5
p6509
I1
sVd9fmwqt
p6510
I3
sVd9hao70
p6511
I1
sVd3hg2xq
p6512
I2
sVczromvt
p6513
I1
sVcywnbuy
p6514
I1
sVdivwsh1
p6515
I1
sVdn4fmjs
p6516
I1
sVd9ywqwd
p6517
I1
sVd0iljhk
p6518
I1
sVd6sfvbh
p6519
I1
sVdchqrcq
p6520
I1
sVdswhbw7
p6521
I1
sVdeq09mx
p6522
I1
sVdaolrpm
p6523
I1
sVd243r0s
p6524
I1
sVd7mg19b
p6525
I1
sVdjb2ewq
p6526
I1
sVcyj6gxj
p6527
I1
sVdgcyjrq
p6528
I1
sVdmqay50
p6529
I1
sVd8xdf8x
p6530
I1
sVd0yk5w1
p6531
I1
sVdqpkd9o
p6532
I2
sVdppcm24
p6533
I1
sVd9z1s4d
p6534
I1
sVd8xhc3o
p6535
I1
sVdjrrwpg
p6536
I1
sVd8deddb
p6537
I1
sVdq52sxn
p6538
I1
sVde5qsyr
p6539
I2
sVdo5d0wr
p6540
I2
sVd9pin3i
p6541
I2
sVdr268ej
p6542
I2
sVdan4m2o
p6543
I1
sVdkmulzx
p6544
I1
sVddj9cdo
p6545
I1
sVdhsja6n
p6546
I1
sVcz1bx29
p6547
I3
sVd9jwdut
p6548
I9
sVcyo974v
p6549
I1
sVd4snyt3
p6550
I2
sVdja5612
p6551
I1
sVdcdr9gf
p6552
I2
sVd95swga
p6553
I1
sVdg170cf
p6554
I2
sVdhpg7gi
p6555
I1
sVcyk1kpy
p6556
I1
sVd9nufyg
p6557
I1
sVd9shd98
p6558
I1
sVczv1k07
p6559
I1
sVdqykoy3
p6560
I1
sVdj6hphw
p6561
I1
sVcypxu8a
p6562
I3
sVdevqlzd
p6563
I1
sVdqumo7j
p6564
I1
sVd554b61
p6565
I1
sVcyim1o3
p6566
I1
sVd3pgyhl
p6567
I1
sVdeuhdza
p6568
I1
sVdfj8fyk
p6569
I1
sVdgwklsy
p6570
I1
sVdj4at1e
p6571
I1
sVdea2b9t
p6572
I1
sVd7awgk4
p6573
I1
sVdj83g9q
p6574
I2
sVdr48dgg
p6575
I1
sVd3opgaa
p6576
I1
sVd48e1rn
p6577
I1
sVdbpg0mg
p6578
I1
sVdhonu39
p6579
I1
sVdeisdpy
p6580
I1
sVdkeczsp
p6581
I2
sVdjgri2v
p6582
I1
sVdnmzl4t
p6583
I1
sVdpt6pam
p6584
I1
sVdhfssfo
p6585
I3
sVdi3x9u0
p6586
I1
sVdgtbm9h
p6587
I2
sVd21htmz
p6588
I1
sVcysk3gg
p6589
I1
sVd4pw9zw
p6590
I1
sVd31o2r2
p6591
I1
sVd0gpq1r
p6592
I1
sVddj1u9x
p6593
I1
sVdo60h0n
p6594
I3
sVd7ur3um
p6595
I1
sVd45whub
p6596
I2
sVd5om14d
p6597
I1
sVda4f7or
p6598
I2
sVddkq34p
p6599
I1
sVdfoadmx
p6600
I3
sVdd0x3ps
p6601
I1
sVd09i690
p6602
I7
sVd70mwrz
p6603
I1
sVcyn3or4
p6604
I1
sVd5awsvw
p6605
I1
sVd20ex2y
p6606
I1
sVd90kkwb
p6607
I1
sVd75b987
p6608
I1
sVcz30jap
p6609
I1
sVd0ulcj0
p6610
I1
sVd3n0bno
p6611
I1
sVdfg6xdp
p6612
I1
sVd8fz95j
p6613
I1
sVdgqkpcc
p6614
I1
sVdimerpc
p6615
I1
sVd4k2v6b
p6616
I1
sVde6ybeo
p6617
I1
sVd6dds2z
p6618
I1
sVd3kp58h
p6619
I1
sVdom2yb1
p6620
I1
sVdn4nrq6
p6621
I1
sVdbesjuq
p6622
I1
sVde1uxst
p6623
I1
sVdb3pg2u
p6624
I1
sVdgpbl9e
p6625
I1
sVd8jgryh
p6626
I1
sVdieintq
p6627
I1
sVd7ohe0o
p6628
I1
sVdod3zf9
p6629
I1
sVdb7rflf
p6630
I1
sVd69fqfa
p6631
I1
sVd4uh45c
p6632
I1
sVd0m4xzh
p6633
I1
sVd1yl8i3
p6634
I1
sVd61pvbf
p6635
I3
sVdmxcoop
p6636
I1
sVd8a8qj8
p6637
I1
sVdjdmt8w
p6638
I1
sVd1ziji0
p6639
I1
sVczevpm4
p6640
I1
sVdi707qa
p6641
I1
sVdd3wzlb
p6642
I1
sVd0k1fcd
p6643
I1
sVd78r73m
p6644
I3
sVdgs5fm7
p6645
I1
sVd529cnc
p6646
I1
sVczbaiwv
p6647
I1
sVd13e8ln
p6648
I1
sVd4h5srm
p6649
I1
sVd6c030d
p6650
I1
sVd63vcfc
p6651
I3
sVd6akq75
p6652
I1
sVd41s5ar
p6653
I1
sVd4ezx96
p6654
I1
sVdf6930u
p6655
I1
sVdt3zocs
p6656
I2
sVd06ad6v
p6657
I1
sVdijpa1j
p6658
I1
sVdo1kigt
p6659
I1
sVcymig8e
p6660
I1
sVdcbfvwe
p6661
I1
sVddjjju2
p6662
I3
sVd3j41hp
p6663
I1
sVdaxlytg
p6664
I1
sVdahb0l3
p6665
I1
sVdbhhbps
p6666
I1
sVdrapmtw
p6667
I1
sVczompfn
p6668
I1
sVd10wq92
p6669
I1
sVdeli7g8
p6670
I1
sVd30if74
p6671
I1
sVd2vfgwp
p6672
I1
sVdawiccy
p6673
I1
sVdmwwupr
p6674
I1
sVdbo7ee6
p6675
I3
sVdhajfy7
p6676
I1
sVd24jc2t
p6677
I1
sVdcinj14
p6678
I1
sVd061nh0
p6679
I1
sVcz1jy1b
p6680
I1
sVd8ruk7j
p6681
I1
sVcz2z6z6
p6682
I1
sVd1q8rw9
p6683
I1
sVdmsyrov
p6684
I2
sVdq292ev
p6685
I1
sVd7o90y0
p6686
I1
sVdiej6s5
p6687
I1
sVdhgnrug
p6688
I5
sVdpl7z01
p6689
I1
sVdpporiu
p6690
I1
sVd7ma9bl
p6691
I1
sVd1it9m8
p6692
I3
sVd3apyic
p6693
I1
sVdi8mpvy
p6694
I1
sVdj2skx8
p6695
I1
sVdowz390
p6696
I3
sVdi5zxu4
p6697
I1
sVd6jjxet
p6698
I1
sVd2h9ubz
p6699
I1
sVd15j6rz
p6700
I4
sVdbzj4qu
p6701
I1
sVdpqr5ol
p6702
I1
sVdnn96nf
p6703
I1
sVdn0durd
p6704
I2
sVd7ukphj
p6705
I1
sVcyqdz0j
p6706
I1
sVds92s6j
p6707
I1
sVdjb3197
p6708
I2
sVdfzbu9i
p6709
I1
sVdbfque3
p6710
I1
sVddtgoip
p6711
I3
sVd1fnirv
p6712
I1
sVdafmjnf
p6713
I1
sVdjmks7q
p6714
I1
sVddd6mke
p6715
I1
sVd85xlw0
p6716
I1
sVdf1zeps
p6717
I1
sVdk0g9ak
p6718
I1
sVdczasnp
p6719
I3
sVdnmzssw
p6720
I1
sVd8a9sj6
p6721
I1
sVd5mvona
p6722
I1
sVdh6qkdb
p6723
I1
sVdizllld
p6724
I1
sVd4xh7ol
p6725
I2
sVdhc0o1n
p6726
I1
sVcyjrhct
p6727
I1
sVd9awxny
p6728
I3
sVdj5p96s
p6729
I1
sVdf4mz76
p6730
I1
sVddrgzu9
p6731
I1
sVdeyjdvu
p6732
I1
sVd2k0utv
p6733
I1
sVdafz9bo
p6734
I1
sVdq37z8y
p6735
I1
sVd9vhild
p6736
I1
sVdcxh7az
p6737
I4
sVcyis407
p6738
I4
sVd0qnrmc
p6739
I1
sVd0xphm1
p6740
I1
sVdaashaa
p6741
I1
sVd0i7v4o
p6742
I2
sVd99stty
p6743
I2
sVd65jw0q
p6744
I2
sVdqspwaj
p6745
I1
sVcz7so2b
p6746
I4
sVdikuc7h
p6747
I1
sVd0ts243
p6748
I1
sVdhmo3fb
p6749
I1
sVdt9xwoq
p6750
I1
sVd1fd2cb
p6751
I1
sVdn00myb
p6752
I1
sVd1lhqh3
p6753
I1
sVcyoyfkq
p6754
I1
sVd2w06e8
p6755
I1
sVd72voer
p6756
I2
sVd19h9ps
p6757
I1
sVdpxz00w
p6758
I1
sVdflt33a
p6759
I1
sVdohkp3e
p6760
I1
sVd9ctsrm
p6761
I1
sVd04cdfi
p6762
I1
sVd9kl0wl
p6763
I1
sVdbukyon
p6764
I1
sVdn803fp
p6765
I1
sVd9t3njw
p6766
I1
sVdiv1lth
p6767
I2
sVd54qrzr
p6768
I2
sVd7rvawl
p6769
I1
sVdemd2ag
p6770
I1
sVdenxis4
p6771
I1
sVdrm3gok
p6772
I1
sVcyi4i4l
p6773
I3
sVd03aj1g
p6774
I1
sVdc9wq32
p6775
I3
sVd1hft9x
p6776
I2
sVd68rtj7
p6777
I3
sVdfvkf72
p6778
I1
sVd21j4w2
p6779
I1
sVdax87jr
p6780
I1
sVdtid9f6
p6781
I1
sVd3lkthi
p6782
I2
sVdb2t1gd
p6783
I1
sVdmoqk87
p6784
I1
sVczw5x8x
p6785
I1
sVd97g7o4
p6786
I1
sVd56ljtk
p6787
I1
sVdctnmhe
p6788
I1
sVd88c0uj
p6789
I2
sVdq1ffkz
p6790
I1
sVd2uje9i
p6791
I1
sVdgh95kr
p6792
I1
sVdclr5f7
p6793
I3
sVd06fl24
p6794
I1
sVdgcmc2b
p6795
I1
sVdam0igp
p6796
I2
sVd18q041
p6797
I4
sVdg3usiq
p6798
I3
sVdt4633i
p6799
I1
sVdbho7zp
p6800
I1
sVdekwscb
p6801
I1
sVd001f6c
p6802
I1
sVd5dqbh6
p6803
I1
sVd53r6cv
p6804
I1
sVdh9tpdu
p6805
I1
sVdihgjrh
p6806
I1
sVdc7dn0g
p6807
I1
sVcz7qg4g
p6808
I1
sVd7qvg25
p6809
I1
sVd6d5ho3
p6810
I1
sVd815zbr
p6811
I1
sVdjd6hq2
p6812
I1
sVda4jolc
p6813
I1
sVdjuw0c4
p6814
I1
sVdag1qoo
p6815
I1
sVd32mlgt
p6816
I1
sVd05ty3l
p6817
I1
sVd3e4wd5
p6818
I1
sVd7byxs0
p6819
I1
sVd0305bj
p6820
I1
sVd14kfoz
p6821
I1
sVd93p5qk
p6822
I1
sVddz90fw
p6823
I1
sVddhdrkp
p6824
I1
sVdt7mu8z
p6825
I1
sVdalsnm2
p6826
I1
sVd0skjzf
p6827
I1
sVd4lpjcm
p6828
I2
sVcz664xf
p6829
I1
sVdtgdpk2
p6830
I1
sVd7db7s0
p6831
I2
sVd0n5tx2
p6832
I1
sVdbr5c99
p6833
I1
sVczme3rs
p6834
I1
sVdjtkoyy
p6835
I1
sVdhw4sfs
p6836
I2
sVdr1as82
p6837
I1
sVdavvnn9
p6838
I1
sVd75aaq3
p6839
I2
sVdh62usi
p6840
I1
sVczzkra6
p6841
I1
sVd15wso6
p6842
I1
sVdnhnms9
p6843
I1
sVd06bakr
p6844
I1
sVdbme1uv
p6845
I1
sVdjiwvkh
p6846
I1
sVdiog2q6
p6847
I1
sVd7orys7
p6848
I2
sVdggpe27
p6849
I3
sVczvsjfu
p6850
I1
sVd44o1sm
p6851
I1
sVdfimn0e
p6852
I1
sVd4qbd3t
p6853
I1
sVdd21qkb
p6854
I1
sVdcssf7z
p6855
I1
sVd8a7chz
p6856
I1
sVd3l5fkf
p6857
I1
sVd4d34o8
p6858
I1
sVdsebmlw
p6859
I1
sVd8ejrne
p6860
I3
sVczvwga2
p6861
I1
sVd0tze6e
p6862
I2
sVdpg8mfw
p6863
I1
sVdfsg5yp
p6864
I1
sVd9wczg7
p6865
I1
sVdn7vn0s
p6866
I1
sVd7sa7no
p6867
I1
sVdeq9jdp
p6868
I1
sVd0ypgh3
p6869
I1
sVd7lpdee
p6870
I1
sVd9432s8
p6871
I1
sVddu4tdh
p6872
I1
sVd6e0a1u
p6873
I1
sVdhiehpy
p6874
I1
sVdpprwbx
p6875
I1
sVdqyx9o8
p6876
I1
sVde1tua9
p6877
I1
sVdinysh2
p6878
I1
sVdfwu8dm
p6879
I1
sVd2cczns
p6880
I4
sVdmka2u3
p6881
I1
sVdcgcikd
p6882
I1
sVdcxg75l
p6883
I1
sVdch9zfx
p6884
I1
sVdhvb1z3
p6885
I1
sVdjh6spy
p6886
I1
sVdexa1c0
p6887
I1
sVdgoayi5
p6888
I1
sVd0ul1sx
p6889
I1
sVd01zzud
p6890
I1
sVd3jsjsv
p6891
I1
sVdbn7um3
p6892
I1
sVdcklyq7
p6893
I1
sVdd076xa
p6894
I1
sVddpkhgd
p6895
I2
sVd9dxms0
p6896
I1
sVdcerlsm
p6897
I1
sVd0dehx6
p6898
I1
sVcyljuex
p6899
I1
sVdqvuy1o
p6900
I3
sVdryz3ri
p6901
I1
sVd2u4yai
p6902
I1
sVddo6s1z
p6903
I1
sVdri4b91
p6904
I1
sVdpt9g0e
p6905
I1
sVdgd788g
p6906
I1
sVdcgkzhi
p6907
I1
sVd3zpmna
p6908
I2
sVdbn6c0i
p6909
I1
sVczi49ys
p6910
I1
sVd3ei2rl
p6911
I4
sVcyp7c3m
p6912
I1
sVdd49ovv
p6913
I3
sVd5kxofq
p6914
I1
sVd4gestl
p6915
I1
sVd22j3x8
p6916
I1
sVddz819t
p6917
I2
sVdd53l5t
p6918
I1
sVd5bglv8
p6919
I1
sVd0wands
p6920
I1
sVczurviu
p6921
I1
sVd68rehr
p6922
I2
sVdfcwlwo
p6923
I1
sVd5dc2vi
p6924
I1
sVcyit3iw
p6925
I1
sVdg8ztou
p6926
I1
sVdaflzq8
p6927
I1
sVddtegfs
p6928
I1
sVdjdzn4b
p6929
I2
sVdi3gar1
p6930
I1
sVdcqvdcr
p6931
I1
sVdptjnh1
p6932
I1
sVdie3ic9
p6933
I1
sVd24cx80
p6934
I1
sVd3ljzil
p6935
I1
sVd0ipmtu
p6936
I1
sVd04zlxt
p6937
I1
sVdjwv6s8
p6938
I1
sVd015534
p6939
I2
sVddllvzi
p6940
I1
sVczevsun
p6941
I3
sVdih8zei
p6942
I1
sVdi6fvlc
p6943
I1
sVczod1g3
p6944
I2
sVdabhdpe
p6945
I1
sVd0d34vb
p6946
I2
sVd2c9c1f
p6947
I1
sVd13pzpf
p6948
I1
sVd22zg2e
p6949
I1
sVd85rc7y
p6950
I2
sVdnrhire
p6951
I1
sVd6m0h9h
p6952
I1
sVd382s0p
p6953
I1
sVdipmix3
p6954
I1
sVdpdpx2a
p6955
I1
sVczjrptf
p6956
I1
sVd0yhqu1
p6957
I1
sVdhy7bf6
p6958
I1
sVdbnmkw3
p6959
I1
sVddbao2f
p6960
I1
sVdbtoek6
p6961
I1
sVd58shzk
p6962
I2
sVdg8e1ti
p6963
I1
sVd1k75gw
p6964
I1
sVdhywa7y
p6965
I2
sVd28z7tg
p6966
I1
sVdi7y8ms
p6967
I1
sVdie1hyq
p6968
I2
sVderd6ws
p6969
I1
sVdgt6ppm
p6970
I1
sVdjcu660
p6971
I1
sVdml77mh
p6972
I1
sVdk040y2
p6973
I1
sVdgvc7bh
p6974
I1
sVd07hxsj
p6975
I1
sVdhrja96
p6976
I2
sVdas07ow
p6977
I1
sVcywhxsh
p6978
I3
sVdimcqam
p6979
I1
sVd1zpj0m
p6980
I1
sVdk8mb5e
p6981
I1
sVdqsmbqw
p6982
I1
sVdb2awtx
p6983
I1
sVd1oadq1
p6984
I1
sVdol2v0i
p6985
I2
sVd1zjgri
p6986
I1
sVdbci6sc
p6987
I1
sVd39bg6o
p6988
I2
sVd1qkf7r
p6989
I1
sVd3tqx00
p6990
I1
sVdcqjoxh
p6991
I1
sVddif6wc
p6992
I1
sVdirlkz7
p6993
I1
sVdssmnx1
p6994
I1
sVd8t4iwo
p6995
I2
sVdafrg4l
p6996
I1
sVddhikih
p6997
I1
sVd5hc2g3
p6998
I1
sVd8jhazm
p6999
I1
sVdj9o6h1
p7000
I1
sVdmvqnk5
p7001
I1
sVd9w2li2
p7002
I1
sVdovux71
p7003
I2
sVd00sdam
p7004
I2
sVdh7xa8u
p7005
I1
sVd7nryvn
p7006
I1
sVdi7tdr5
p7007
I1
sVdk6ssvy
p7008
I1
sVd5dt09z
p7009
I1
sVd8g7mde
p7010
I1
sVdc7je2r
p7011
I1
sVdn1opcs
p7012
I2
sVcympiuv
p7013
I1
sVdr0cuk5
p7014
I1
sVd3qwk6q
p7015
I1
sVdicmh4w
p7016
I1
sVdn1jah9
p7017
I1
sVdauod0m
p7018
I1
sVd77774r
p7019
I1
sVd8rlojs
p7020
I1
sVdfawd3w
p7021
I1
sVcywwr8d
p7022
I1
sVdiphsf1
p7023
I1
sVdi3il1r
p7024
I1
sVd86al4n
p7025
I1
sVczymhro
p7026
I2
sVd1saak7
p7027
I2
sVd8q10up
p7028
I2
sVdjpw3rv
p7029
I1
sVd0952jy
p7030
I1
sVd83420x
p7031
I1
sVd24cn5k
p7032
I1
sVd7b1jlq
p7033
I1
sVczlxs62
p7034
I2
sVdpingla
p7035
I1
sVdnhzi62
p7036
I2
sVd68vg8x
p7037
I1
sVdj8uvin
p7038
I2
sVdjztcie
p7039
I1
sVddauz2h
p7040
I1
sVd1c38z2
p7041
I1
sVdi9yx51
p7042
I1
sVdnwruce
p7043
I1
sVd9q9o19
p7044
I1
sVdjt12ou
p7045
I1
sVdaasocx
p7046
I3
sVddi2cia
p7047
I1
sVdgdckfr
p7048
I1
sVdbsiusl
p7049
I1
sVd2qty4i
p7050
I1
sVdc330gk
p7051
I1
sVd2bq47z
p7052
I1
sVdcjv8fx
p7053
I1
sVdhjd6fo
p7054
I1
sVd9n2kkv
p7055
I1
sVd202cnb
p7056
I1
sVdhiqcxe
p7057
I1
sVd11y7dk
p7058
I1
sVdfmy422
p7059
I5
sVd6bogo2
p7060
I1
sVdozqy1u
p7061
I2
sVdgi8h7g
p7062
I1
sVdan9d2t
p7063
I1
sVd52o6ia
p7064
I1
sVd3qcbn2
p7065
I1
sVdeybu7k
p7066
I1
sVdhrnm0q
p7067
I1
sVdcvq7gc
p7068
I1
sVd8v2dok
p7069
I1
sVd99f1xs
p7070
I1
sVd0zw1z0
p7071
I1
sVdd1tera
p7072
I1
sVdnfzbbl
p7073
I1
sVdbiw6qb
p7074
I1
sVd4ku4xn
p7075
I1
sVdkfab1g
p7076
I1
sVd8p58z8
p7077
I1
sVd0kyq9o
p7078
I1
sVd2f9k0x
p7079
I1
sVd3hr6ot
p7080
I1
sVd9ccrrk
p7081
I1
sVdf9djb6
p7082
I1
sVd4veayk
p7083
I1
sVddn2j8q
p7084
I1
sVd06vbz5
p7085
I1
sVdqx7ygx
p7086
I1
sVczlmk24
p7087
I1
sVd9rasvi
p7088
I1
sVd0rh5xv
p7089
I1
sVcyirutb
p7090
I1
sVd7p24x1
p7091
I1
sVdkajzyf
p7092
I1
sVdre73wd
p7093
I3
sVdcriis7
p7094
I2
sVd48ilgi
p7095
I2
sVdn8a61a
p7096
I1
sVdgixjp2
p7097
I1
sVd3pcvr1
p7098
I2
sVdo8krl8
p7099
I1
sVdr45u3f
p7100
I3
sVd2w4ozg
p7101
I1
sVdsxrvqm
p7102
I1
sVd8pcbo4
p7103
I1
sVd2ecw40
p7104
I1
sVdcjx5r6
p7105
I1
sVdn4imyo
p7106
I1
sVd79ep65
p7107
I1
sVdjyxtar
p7108
I1
sVd05ejdb
p7109
I2
sVdb207a7
p7110
I1
sVditdena
p7111
I1
sVd3wjz1b
p7112
I1
sVd6s7v2g
p7113
I1
sVdmugn1f
p7114
I1
sVd37imih
p7115
I3
sVd3nao1v
p7116
I1
sVd41rzkp
p7117
I1
sVczuihv5
p7118
I4
sVddnwxdq
p7119
I1
sVd7sk9o2
p7120
I2
sVdef17m5
p7121
I1
sVd1otut5
p7122
I2
sVde55km6
p7123
I2
sVdqmpfkg
p7124
I1
sVdamx89r
p7125
I1
sVcyptk1l
p7126
I1
sVdcwutp4
p7127
I2
sVdazg237
p7128
I2
sVddpn1ea
p7129
I1
sVdijxqkq
p7130
I1
sVdpsw4v1
p7131
I1
sVd26w3lf
p7132
I1
sVdqgxsvm
p7133
I1
sVczhso0l
p7134
I2
sVdd9qv58
p7135
I2
sVdklstue
p7136
I2
sVd69kqcw
p7137
I1
sVdeuopm9
p7138
I1
sVdf6jmz7
p7139
I2
sVdau2ko5
p7140
I1
sVdo12apz
p7141
I1
sVdaz4vz2
p7142
I1
sVdilpd22
p7143
I2
sVd64ytuy
p7144
I1
sVds1fjin
p7145
I1
sVddvvg79
p7146
I1
sVdbjtn22
p7147
I1
sVdfyz4j8
p7148
I2
sVcyyq3h7
p7149
I1
sVd4e3zvl
p7150
I2
sVd56g78k
p7151
I1
sVd2a82rs
p7152
I1
sVd2tnsv4
p7153
I1
sVcz36wdd
p7154
I1
sVd8bxwq8
p7155
I2
sVd1grf2j
p7156
I1
sVdjnmpll
p7157
I1
sVd43cows
p7158
I1
sVd33o09k
p7159
I1
sVd3i0mis
p7160
I1
sVdj3qr14
p7161
I1
sVdgd7l71
p7162
I1
sVd4nwx7y
p7163
I1
sVd0m2d20
p7164
I1
sVd4ava3o
p7165
I1
sVd0qhjql
p7166
I1
sVddd7y6g
p7167
I1
sVdbygyf7
p7168
I1
sVczn06xn
p7169
I1
sVdn43hqm
p7170
I1
sVdc7rsd7
p7171
I2
sVdq9apbq
p7172
I1
sVdclhhd4
p7173
I1
sVd22hix1
p7174
I1
sVczn4tjm
p7175
I1
sVd4l140w
p7176
I3
sVdklrfi3
p7177
I1
sVd779fqi
p7178
I2
sVdsidppj
p7179
I1
sVdh6l45i
p7180
I1
sVd7qf30u
p7181
I1
sVdjrmgjt
p7182
I1
sVd50d6lv
p7183
I2
sVdqj9fub
p7184
I1
sVdd5r4e5
p7185
I2
sVddcvx75
p7186
I1
sVd7vvayb
p7187
I2
sVd7v3pdh
p7188
I1
sVd3eloii
p7189
I1
sVd1cjup7
p7190
I1
sVde1wydu
p7191
I1
sVdahldwt
p7192
I1
sVdc6b4wo
p7193
I1
sVd0jxorf
p7194
I1
sVdh6bi7m
p7195
I1
sVdgh53rs
p7196
I1
sVd0wz79k
p7197
I1
sVd1jkc0z
p7198
I1
sVd0h9z7m
p7199
I1
sVdrrkz58
p7200
I1
sVd3h8j8z
p7201
I1
sVd6hnc7e
p7202
I1
sVdomn43r
p7203
I1
sVdknzcqy
p7204
I2
sVdst0tpw
p7205
I1
sVddqps6w
p7206
I1
sVcyn7a2d
p7207
I1
sVd5hnprw
p7208
I2
sVd3j55dm
p7209
I1
sVdbcx8l7
p7210
I1
sVdeh6iw8
p7211
I1
sVdehj4s4
p7212
I1
sVcym3ml9
p7213
I3
sVd0xcfor
p7214
I1
sVdbfy0vt
p7215
I1
sVd5eee3y
p7216
I1
sVcyohyk0
p7217
I2
sVd3f1xy5
p7218
I1
sVd0n4wga
p7219
I1
sVdodxfxv
p7220
I1
sVddgbpn7
p7221
I3
sVd6mhg01
p7222
I1
sVdomgaxx
p7223
I2
sVd06tpij
p7224
I1
sVd1uprln
p7225
I1
sVdhgtap9
p7226
I1
sVd4nkpl4
p7227
I1
sVd33v781
p7228
I1
sVdbj1yeq
p7229
I1
sVd0ed7px
p7230
I1
sVdi3jwrn
p7231
I1
sVd62ucja
p7232
I2
sVdhdt35i
p7233
I1
sVdnqqiku
p7234
I1
sVdhbugij
p7235
I2
sVdbm9tst
p7236
I1
sVd3t1hfj
p7237
I1
sVd4k2oe9
p7238
I1
sVddli269
p7239
I1
sVd3xrywm
p7240
I3
sVdiz2vy0
p7241
I1
sVdqokuwu
p7242
I1
sVd9lizyp
p7243
I1
sVd4e5akd
p7244
I2
sVd7pg3n5
p7245
I1
sVden1f3p
p7246
I1
sVdg53qm1
p7247
I1
sVd3zg6z7
p7248
I1
sVdjy5qyb
p7249
I1
sVd838ulw
p7250
I1
sVdeibffw
p7251
I2
sVdcu0dx9
p7252
I1
sVcylaljr
p7253
I1
sVdp8lwe2
p7254
I4
sVd48755v
p7255
I1
sVdaphgz8
p7256
I1
sVd3208ot
p7257
I1
sVd2r3qo3
p7258
I3
sVczcu6fg
p7259
I5
sVd0843rl
p7260
I1
sVdoz6np7
p7261
I1
sVdbjd3ar
p7262
I1
sVd1x9me2
p7263
I1
sVd4gox3q
p7264
I1
sVdaoc1wm
p7265
I1
sVdc68q7l
p7266
I1
sVd09uf15
p7267
I4
sVd2jwapp
p7268
I1
sVd16rccf
p7269
I2
sVdpujb0t
p7270
I4
sVdsoohcb
p7271
I2
sVd1311ow
p7272
I2
sVdgg92tj
p7273
I1
sVdmtsnqu
p7274
I1
sVczzmsn0
p7275
I1
sVdknb3s0
p7276
I1
sVdfwgt98
p7277
I1
sVdqmm0be
p7278
I1
sVdccqo0e
p7279
I1
sVdrhy422
p7280
I1
sVdj8e4x1
p7281
I1
sVddr4i4q
p7282
I1
sVd3j3lsz
p7283
I1
sVcz2ntbd
p7284
I1
sVdgyarrg
p7285
I1
sVd886cvh
p7286
I1
sVd05bqig
p7287
I1
sVd2ug41k
p7288
I1
sVd1j5khh
p7289
I1
sVd9fc71p
p7290
I1
sVcz64h5c
p7291
I1
sVd932bb2
p7292
I1
sVdhndqrg
p7293
I1
sVdc0zfeb
p7294
I1
sVddi4xmc
p7295
I5
sVd1sb0xg
p7296
I1
sVd0lyfn3
p7297
I2
sVd4xgf4y
p7298
I1
sVdfh06h5
p7299
I1
sVdpto7s2
p7300
I1
sVdhn2zxt
p7301
I1
sVdihbdri
p7302
I1
sVdo7ttb0
p7303
I2
sVd5cti0a
p7304
I1
sVd3dp2qe
p7305
I1
sVd5uwwtf
p7306
I1
sVdo87foo
p7307
I1
sVczasy7t
p7308
I1
sVdilnoef
p7309
I2
sVd2gnoac
p7310
I1
sVd1yjumy
p7311
I1
sVd4bizpj
p7312
I2
sVdr29pq2
p7313
I1
sVddi5viy
p7314
I1
sVdh08m1o
p7315
I1
sVdreyeu5
p7316
I1
sVd4i4eei
p7317
I1
sVd8esi1r
p7318
I1
sVczcbw7e
p7319
I1
sVdgh2kos
p7320
I1
sVd9xzhp1
p7321
I1
sVdf8nl19
p7322
I1
sVdokw1uf
p7323
I1
sVdizogme
p7324
I1
sVdr8ar03
p7325
I1
sVd52tf23
p7326
I1
sVd8jncim
p7327
I1
sVdmw7ey8
p7328
I1
sVcz0o47h
p7329
I1
sVd9pma3s
p7330
I6
sVd0g55ec
p7331
I2
sVcyjpdxf
p7332
I2
sVdk0kh8w
p7333
I1
sVd60wgex
p7334
I1
sVd2u1qn7
p7335
I2
sVczuzfeb
p7336
I1
sVd57xmc2
p7337
I1
sVd51cxua
p7338
I1
sVd4md9z4
p7339
I1
sVd12d47o
p7340
I1
sVd64fnxq
p7341
I1
sVd3jq3ge
p7342
I1
sVd33acv5
p7343
I2
sVd2uq10s
p7344
I1
sVd627bam
p7345
I1
sVd3i4l7w
p7346
I1
sVczvu8fy
p7347
I1
sVdcd6x33
p7348
I1
sVdb2vzc1
p7349
I1
sVde7t2cl
p7350
I1
sVdjmno2j
p7351
I2
sVdazwso5
p7352
I4
sVddvngdz
p7353
I1
sVd6pru6j
p7354
I1
sVdg7ysh2
p7355
I2
sVd2xvdl7
p7356
I1
sVdc1pj0h
p7357
I1
sVdbsiqae
p7358
I1
sVd8aaj86
p7359
I1
sVdmoxb1s
p7360
I1
sVdg0l6eq
p7361
I1
sVditqac7
p7362
I1
sVdjkscye
p7363
I1
sVd1mymxj
p7364
I1
sVdnm7ljq
p7365
I2
sVd9f1o86
p7366
I1
sVda72sfh
p7367
I2
sVczb9v8y
p7368
I1
sVd8nm2zh
p7369
I1
sVd0w5pbq
p7370
I1
sVd1fa0ur
p7371
I1
sVd7fo51u
p7372
I1
sVd3ykmhj
p7373
I1
sVdcipdmb
p7374
I1
sVdduuddk
p7375
I1
sVdeutt2s
p7376
I3
sVczofwmv
p7377
I1
sVd9iij7n
p7378
I1
sVdoikkzx
p7379
I1
sVd0psu5v
p7380
I1
sVdhted0t
p7381
I1
sVd53zql6
p7382
I1
sVd33qvrm
p7383
I1
sVd6vbknu
p7384
I1
sVd9fx6xz
p7385
I2
sVdhi8sxa
p7386
I1
sVcyl8flr
p7387
I1
sVdav56ob
p7388
I1
sVd8m0wxs
p7389
I2
sVczi2e2g
p7390
I1
sVd2l8y8g
p7391
I1
sVdi94xul
p7392
I1
sVcyoo0jt
p7393
I1
sVd03c6sw
p7394
I1
sVddsliuz
p7395
I4
sVd40gumi
p7396
I1
sVd7uttdp
p7397
I1
sVda9zb8u
p7398
I1
sVddhnq9m
p7399
I1
sVdrxaifa
p7400
I1
sVd4a739b
p7401
I1
sVdjth1hj
p7402
I1
sVd2xja9q
p7403
I1
sVda98kjv
p7404
I1
sVd9kgjlt
p7405
I1
sVdfwqp2s
p7406
I1
sVd6aczhr
p7407
I2
sVd44nkwm
p7408
I1
sVczdnuj0
p7409
I1
sVdczkmle
p7410
I1
sVd8ezmyd
p7411
I1
sVdci181x
p7412
I2
sVdp8kebd
p7413
I1
sVd00cmra
p7414
I1
sVd4r4245
p7415
I1
sVdbtm5om
p7416
I1
sVd04g04o
p7417
I1
sVdjhmcjy
p7418
I1
sVda968ew
p7419
I1
sVd3lnrun
p7420
I1
sVd6lh11k
p7421
I1
sVdbixn9q
p7422
I1
sVdmxpqyi
p7423
I1
sVde6fp0u
p7424
I1
sVdjrk5bp
p7425
I1
sVd0nxzmx
p7426
I2
sVdjopqzv
p7427
I1
sVdq55qey
p7428
I1
sVd37l50x
p7429
I1
sVdc566xn
p7430
I1
sVd7yqebp
p7431
I1
sVdg2d2de
p7432
I1
sVd9z2o2c
p7433
I1
sVczy6fmt
p7434
I1
sVdkqagy5
p7435
I1
sVdidrlg3
p7436
I1
sVdjxouom
p7437
I1
sVdando5n
p7438
I2
sVdfti8p1
p7439
I1
sVdg4mnef
p7440
I1
sVd39eaiu
p7441
I1
sVcyzviyp
p7442
I1
sVd1d09ig
p7443
I2
sVd48cob7
p7444
I4
sVdaz706g
p7445
I1
sVdmoquue
p7446
I2
sVdcju3fl
p7447
I1
sVdazxh0m
p7448
I1
sVdj7ehx3
p7449
I1
sVd8ah077
p7450
I1
sVdpxcoip
p7451
I1
sVd2qewvu
p7452
I1
sVd4ysb1o
p7453
I1
sVd81pna3
p7454
I1
sVdcjeb57
p7455
I2
sVdim0vrn
p7456
I1
sVddrwv21
p7457
I2
sVd3k3q79
p7458
I1
sVd4vcmlr
p7459
I2
sVdccb24h
p7460
I5
sVdgxg686
p7461
I1
sVdjcd8be
p7462
I1
sVdj40qxn
p7463
I1
sVd9yzova
p7464
I4
sVdj96x6f
p7465
I2
sVdcdsc5l
p7466
I1
sVdhbmnua
p7467
I1
sVdds2x38
p7468
I1
sVdo0g2cv
p7469
I1
sVd1cd07m
p7470
I3
sVd0b0k47
p7471
I1
sVdjpvroa
p7472
I1
sVdcms02v
p7473
I1
sVd8m2k1w
p7474
I1
sVdnh1kzv
p7475
I1
sVdguyvzg
p7476
I1
sVdadkedw
p7477
I1
sVde2pftr
p7478
I1
sVdb62u6h
p7479
I1
sVd2orf18
p7480
I1
sVd1ec5ru
p7481
I1
sVd0yrusw
p7482
I1
sVde2p7a4
p7483
I2
sVcz4kbnm
p7484
I1
sVd5mreog
p7485
I1
sVdd8helg
p7486
I1
sVdj409zc
p7487
I1
sVdext760
p7488
I2
sVdn812n5
p7489
I1
sVd32dt3f
p7490
I2
sVdtgxcqt
p7491
I1
sVdgfwo50
p7492
I1
sVd2i0lao
p7493
I2
sVdoaoli7
p7494
I1
sVd4nz8ld
p7495
I1
sVdt8yvkh
p7496
I1
sVd80jpxj
p7497
I1
sVd5qmlc7
p7498
I1
sVd41gh6d
p7499
I2
sVdhyqid6
p7500
I1
sVdqmb7vu
p7501
I3
sVda4f9wv
p7502
I1
sVd83o1ct
p7503
I1
sVdemqexk
p7504
I1
sVdtfrj7h
p7505
I1
sVd4bp936
p7506
I1
sVd5r14ha
p7507
I1
sVdqmpryq
p7508
I1
sVdecie3r
p7509
I1
sVd07psjy
p7510
I1
sVdsmhezk
p7511
I1
sVdjdu38u
p7512
I1
sVdazy3ca
p7513
I1
sVdjv3lwk
p7514
I1
sVd6p1dq5
p7515
I1
sVd1lpcju
p7516
I1
sVd60uu6w
p7517
I1
sVdct1vlz
p7518
I1
sVd70ypii
p7519
I1
sVd5ru5tt
p7520
I4
sVdtbqjky
p7521
I1
sVd40zpxc
p7522
I1
sVde8lasw
p7523
I2
sVdgavkgl
p7524
I1
sVd85t0lv
p7525
I1
sVddx1dw0
p7526
I2
sVdqgk4bb
p7527
I1
sVdfdmzl0
p7528
I1
sVdfh4xp3
p7529
I1
sVd1u65ln
p7530
I1
sVdhcoiz6
p7531
I1
sVde81c1m
p7532
I1
sVd651ssz
p7533
I1
sVdf0mnkl
p7534
I1
sVddn7y5y
p7535
I1
sVdhp125c
p7536
I13
sVdfgzwqc
p7537
I1
sVddwj2q5
p7538
I1
sVdn4e2s3
p7539
I3
sVds60tqp
p7540
I1
sVd0101u2
p7541
I2
sVd060zrc
p7542
I1
sVde84o2d
p7543
I1
sVczv35ar
p7544
I1
sVd37z67x
p7545
I1
sVddzjuvp
p7546
I1
sVd6k5779
p7547
I1
sVdbeoq73
p7548
I2
sVdd9u46m
p7549
I2
sVd9eeo1p
p7550
I1
sVd31iim9
p7551
I1
sVdjl71f9
p7552
I1
sVd2090c8
p7553
I1
sVd6eaknu
p7554
I1
sVdio0tge
p7555
I1
sVd57ojj9
p7556
I1
sVdfiyli7
p7557
I1
sVd198j2l
p7558
I1
sVdnl310o
p7559
I1
sVd01lcpl
p7560
I1
sVcyk7i5h
p7561
I1
sVdq5jckx
p7562
I3
sVdrbx5g9
p7563
I1
sVczgl1uo
p7564
I1
sVddhp81c
p7565
I1
sVd0o9uby
p7566
I2
sVdn6zd3c
p7567
I1
sVd890ufj
p7568
I1
sVdnkr3xh
p7569
I1
sVdh4teon
p7570
I1
sVcynuhkj
p7571
I1
sVdc2hfjc
p7572
I1
sVdk2uxtz
p7573
I1
sVd2rsly6
p7574
I2
sVcyvhcqv
p7575
I2
sVdchq9fu
p7576
I1
sVdj8ecsj
p7577
I1
sVdid20vf
p7578
I1
sVd8pph2e
p7579
I1
sVdrs24xt
p7580
I1
sVdd2t5ye
p7581
I1
sVdo3p5es
p7582
I4
sVd3qy0ij
p7583
I1
sVdjzdbls
p7584
I1
sVd475xym
p7585
I1
sVdbb0kol
p7586
I1
sVd3kxo30
p7587
I1
sVd93gtu9
p7588
I1
sVdbggbbv
p7589
I4
sVcz52n9r
p7590
I2
sVdrv01xm
p7591
I1
sVczf1t8f
p7592
I1
sVdiyjp2x
p7593
I1
sVcysds3o
p7594
I1
sVd853kq9
p7595
I1
sVdtj7r16
p7596
I1
sVddcsz14
p7597
I1
sVd2js3z5
p7598
I1
sVdhnp8j0
p7599
I1
sVd2mf2xb
p7600
I2
sVdft0dzq
p7601
I1
sVd9d8vuv
p7602
I2
sVdcun7ep
p7603
I1
sVd40hbhz
p7604
I1
sVd1d599x
p7605
I1
sVd6byoad
p7606
I2
sVcz4yu4u
p7607
I2
sVde9rk4d
p7608
I1
sVczzdtr4
p7609
I2
sVdibr62l
p7610
I1
sVd5mr47u
p7611
I1
sVdbjfgg1
p7612
I2
sVd5sartm
p7613
I1
sVd59xdse
p7614
I1
sVded3k9b
p7615
I1
sVd8crgps
p7616
I1
sVd59mqq5
p7617
I1
sVdaug9jy
p7618
I1
sVd19j0qc
p7619
I1
sVdfbrsuo
p7620
I1
sVcyvd6xl
p7621
I2
sVd0r7kix
p7622
I2
sVdn44kg6
p7623
I1
sVdaacgqs
p7624
I1
sVd51wt4h
p7625
I1
sVdjlmcq8
p7626
I1
sVdtj6vkn
p7627
I1
sVdcx111v
p7628
I1
sVd3g1czi
p7629
I1
sVdg9ca4l
p7630
I1
sVda7xynz
p7631
I2
sVdjl3y9y
p7632
I1
sVd2m43c2
p7633
I1
sVdatpxa4
p7634
I1
sVdf7t9da
p7635
I1
sVd3y8lnr
p7636
I2
sVd14ot0s
p7637
I1
sVd7r30b6
p7638
I1
sVdh9y05c
p7639
I1
sVdelvaql
p7640
I1
sVddsnwed
p7641
I2
sVdfnj03x
p7642
I2
sVd0n6zvm
p7643
I2
sVd9akgec
p7644
I2
sVd1h4oci
p7645
I1
sVd8gdozn
p7646
I1
sVd1kqgvp
p7647
I1
sVdorm0js
p7648
I3
sVd29lodd
p7649
I1
sVd9h8uj3
p7650
I1
sVdr7k814
p7651
I1
sVd1r4m9k
p7652
I1
sVdr1ywfy
p7653
I1
sVd7kb01q
p7654
I2
sVd113i27
p7655
I1
sVdc6hxkf
p7656
I1
sVdco20g5
p7657
I1
sVcyi2puq
p7658
I1
sVd253elt
p7659
I1
sVdgm8n20
p7660
I1
sVczr360q
p7661
I1
sVd8j75b4
p7662
I1
sVd4v8uj7
p7663
I1
sVcz2wgnn
p7664
I1
sVd2kxbmg
p7665
I1
sVdbjusi2
p7666
I1
sVdd51eot
p7667
I4
sVdimfeu0
p7668
I1
sVdokvdd9
p7669
I2
sVd1xzpwc
p7670
I2
sVd0tz79q
p7671
I1
sVdo51o49
p7672
I1
sVdsxmcxc
p7673
I1
sVdhljbu3
p7674
I1
sVddd8olp
p7675
I1
sVczgrb9q
p7676
I1
sVdhyvizw
p7677
I1
sVdedvvqz
p7678
I1
sVczh3ngf
p7679
I1
sVdcggkmj
p7680
I1
sVcywchmq
p7681
I1
sVd9r02g1
p7682
I1
sVd92w7da
p7683
I2
sVdd6gnau
p7684
I1
sVdkpwkee
p7685
I3
sVd5mgruv
p7686
I1
sVd1ybf03
p7687
I1
sVdjtjgoj
p7688
I2
sVcz5fdk7
p7689
I1
sVd1k4hmg
p7690
I2
sVd0664y8
p7691
I1
sVdee878g
p7692
I1
sVczbrc9i
p7693
I1
sVd0tq8eo
p7694
I2
sVd8o2qzq
p7695
I1
sVdjheudd
p7696
I1
sVd9fwqbq
p7697
I1
sVdc9sm2c
p7698
I1
sVcz3ni5e
p7699
I1
sVd6xtk9x
p7700
I5
sVdho39tr
p7701
I1
sVdku2hxf
p7702
I1
sVd0a17c3
p7703
I1
sVdi2h9rj
p7704
I1
sVd2bq9wu
p7705
I1
sVd4735k0
p7706
I1
sVd6mhwdt
p7707
I1
sVd09rtev
p7708
I1
sVddi2bmo
p7709
I1
sVd02azdp
p7710
I1
sVdfvaba6
p7711
I1
sVdkx80u1
p7712
I1
sVd54ll9i
p7713
I1
sVdq2ekf4
p7714
I1
sVd12qy9i
p7715
I1
sVd96cmbg
p7716
I4
sVd5wsc4o
p7717
I1
sVddb8kr2
p7718
I1
sVdi3kiua
p7719
I1
sVdam02tc
p7720
I1
sVdib4qdg
p7721
I2
sVcz351bf
p7722
I1
sVd520sev
p7723
I2
sVdrbsci0
p7724
I1
sVda9akoi
p7725
I4
sVdblbc9w
p7726
I1
sVdhbuthd
p7727
I1
sVd8mfifu
p7728
I1
sVczhtpi6
p7729
I1
sVddmu3z4
p7730
I3
sVd6glae4
p7731
I2
sVczjcllu
p7732
I1
sVdkijj5z
p7733
I2
sVdcpewjt
p7734
I1
sVdd1yji5
p7735
I1
sVcze4h61
p7736
I1
sVd2gnlho
p7737
I1
s.