(dp0
Vdqc8gs2
p1
I1
sVdrk0zud
p2
I1
sVcypw9hx
p3
I1
sVd06euyp
p4
I1
sVdfb9lo8
p5
I1
sVdnd2snn
p6
I1
sVdnqxia8
p7
I1
sVdakbeaz
p8
I1
sVd7tro3b
p9
I1
sVdhf7toc
p10
I1
sVd3qfnpw
p11
I1
sVdnqaqbh
p12
I1
sVdqhs8ci
p13
I1
sVcz5wn20
p14
I1
sVd2meqli
p15
I1
sVdowoy63
p16
I1
sVdn6x8y5
p17
I1
sVd0t12jf
p18
I1
sVd9qcsya
p19
I1
sVd3ipzf6
p20
I1
sVd2mgrpj
p21
I2
sVdho7t8b
p22
I1
sVd2dcvwr
p23
I1
sVdc0xoxk
p24
I1
sVdfie8th
p25
I1
s.