(dp0
Vd0ymd8e
p1
I1
sVd1tr1t8
p2
I1
sVddqxe2a
p3
I6
sVd21apaq
p4
I1
sVd8hm6hu
p5
I1
sVd7ab18h
p6
I1
sVdqaxlfj
p7
I2
sVdd2x8nf
p8
I3
sVd50enek
p9
I1
sVdcl7b6t
p10
I1
sVd4j8k5h
p11
I1
sVdhsxq5t
p12
I1
sVd32cpis
p13
I1
sVcykpn82
p14
I1
sVd9zggf1
p15
I1
sVdmin9v2
p16
I1
sVd2pluz1
p17
I2
sVd0kyio7
p18
I1
sVcyp0fuq
p19
I1
sVdd8tm20
p20
I1
sVd8u6kw6
p21
I1
sVd1x7j8a
p22
I1
sVd0i7qb4
p23
I1
sVd0oefsr
p24
I1
sVdmjtub2
p25
I1
sVd2aryic
p26
I7
sVdrs139n
p27
I1
sVd2u4uy8
p28
I1
sVdd6ke8c
p29
I1
sVdt7vmpt
p30
I1
sVda5n1r6
p31
I1
sVd4zh6sb
p32
I1
sVdijssmn
p33
I2
sVdssqy6v
p34
I1
sVdgxza8i
p35
I1
sVdedtgpm
p36
I1
sVd12sg7j
p37
I2
sVdp8d0nu
p38
I1
sVczfblel
p39
I2
sVd2106pq
p40
I1
sVdegph9j
p41
I1
sVddqw5h8
p42
I2
sVdijn89n
p43
I1
sVdc9du66
p44
I1
sVczcv4xp
p45
I2
sVddhgprv
p46
I1
sVd8oruf3
p47
I1
sVd2kx508
p48
I1
sVd5p76wj
p49
I1
sVd1uoftp
p50
I1
sVddrk159
p51
I6
sVdegq935
p52
I2
sVdkfyhes
p53
I1
sVddlaqvc
p54
I1
sVd1l59yy
p55
I1
sVd0tgmaq
p56
I1
sVdfvtabc
p57
I1
sVd1wle5x
p58
I2
sVdpj3827
p59
I1
sVdrv7xfn
p60
I1
sVdfn5cmu
p61
I1
sVdhd0qf5
p62
I1
sVdj0j713
p63
I1
sVd1davn6
p64
I1
sVdiw8x3h
p65
I1
sVdc99va6
p66
I1
sVcyt6bll
p67
I1
sVdshgwho
p68
I1
sVd0emh4y
p69
I1
sVdebqm7i
p70
I1
sVcymdcm4
p71
I1
sVdcu7os7
p72
I1
sVd0wem47
p73
I1
sVd1dbhdu
p74
I2
sVd7x8ze8
p75
I1
sVdiqkezh
p76
I1
sVdkbvqfu
p77
I1
sVdgyjwd4
p78
I1
sVd6hqdm2
p79
I1
sVd4u5qp4
p80
I1
sVd0hmzri
p81
I1
sVdq81cls
p82
I1
sVdf6dyxh
p83
I1
sVd3kji2s
p84
I1
sVddts6mb
p85
I2
sVdaxfzvx
p86
I2
sVcyrf2y4
p87
I1
sVd0t7x0s
p88
I1
sVd84wf1t
p89
I1
sVdhzqif9
p90
I1
sVd22xqfp
p91
I1
sVd0cera1
p92
I1
sVd3tvhl3
p93
I3
sVcyt4i0c
p94
I1
sVcyv2cbx
p95
I1
sVd24rvfr
p96
I1
sVcykd38t
p97
I1
sVdj885gy
p98
I1
sVdct9jg5
p99
I1
sVdfbzbbe
p100
I1
sVczgp61q
p101
I1
sVdoqb4mq
p102
I1
sVdb19usi
p103
I1
sVdn1dnqp
p104
I2
sVdcl7dey
p105
I1
sVd3kkha2
p106
I1
sVcyl9081
p107
I1
sVd3zgzgl
p108
I1
sVdd9dri6
p109
I1
sVdj455yj
p110
I1
sVdfzb4iu
p111
I2
sVdj4izjd
p112
I1
sVd8ey39u
p113
I1
sVdfym7yk
p114
I1
sVdegw3yx
p115
I1
sVdgcql5u
p116
I1
sVddr8bbh
p117
I1
sVd9y34ul
p118
I3
sVdav3tr0
p119
I1
sVd5vqa28
p120
I1
sVd5uwx2u
p121
I1
sVd8ax5nu
p122
I2
sVcz04z55
p123
I1
sVdtais1j
p124
I1
sVdfnuv03
p125
I1
sVd1uvjmh
p126
I4
sVdaaa8pr
p127
I1
sVdd21ri8
p128
I1
sVd61nxkk
p129
I1
sVda8digr
p130
I1
sVd4rk1t5
p131
I2
sVd7hsaut
p132
I1
sVd7jhxn8
p133
I1
sVd95fhd0
p134
I1
sVdiqe5w7
p135
I1
sVd0jfmnm
p136
I1
sVd5q6r8e
p137
I1
sVdau0wlo
p138
I1
sVd5dssfp
p139
I1
sVd0h57hq
p140
I1
sVd4xjbmp
p141
I1
sVd41in52
p142
I3
sVdd7z4ps
p143
I1
sVdgfaxwf
p144
I1
sVd4vbt1z
p145
I1
sVdkdfzy6
p146
I1
sVdojkdzd
p147
I1
sVd6dx7wt
p148
I1
sVdfs7lqv
p149
I1
sVdhdgjbm
p150
I1
sVcz0az7f
p151
I1
sVdejq4dr
p152
I1
sVdaa1oiw
p153
I1
sVdh47677
p154
I1
sVdjh81xo
p155
I1
sVdh48j6a
p156
I1
sVdoxz5aw
p157
I1
sVd3sv93i
p158
I2
sVdb91o4b
p159
I1
sVd9a75hf
p160
I1
sVd1s31gp
p161
I1
sVd5ifomx
p162
I1
sVdrv72nb
p163
I1
sVd7m26lk
p164
I1
sVd9qtlzb
p165
I1
sVdemp8lz
p166
I1
sVd722kn5
p167
I1
sVd8hqs5j
p168
I1
sVd1g64fb
p169
I1
sVdc8x5dw
p170
I1
sVdhu7hm1
p171
I1
sVdbxrdbw
p172
I1
sVd933ttp
p173
I1
sVd7x0qbt
p174
I3
sVdixnny2
p175
I1
sVd2e3zes
p176
I1
sVdobqqi4
p177
I1
sVd6mk7e5
p178
I1
sVd5qkz7l
p179
I1
sVcyli5p1
p180
I1
sVdeeq1i1
p181
I4
sVd01i9a0
p182
I1
sVd6w1azx
p183
I1
sVd5gy8xc
p184
I1
sVd3w5z4u
p185
I1
sVd73czsc
p186
I1
sVdd552k3
p187
I1
sVczv3r0d
p188
I1
sVczs54tb
p189
I2
sVd62o65b
p190
I5
sVdhgksar
p191
I1
sVdksl152
p192
I1
sVdd7yqr4
p193
I1
sVd1wnagx
p194
I1
sVdix2kdp
p195
I1
sVcylicze
p196
I1
sVdaqqp2i
p197
I1
sVd0ngola
p198
I1
sVddo1l6b
p199
I3
sVczugmok
p200
I1
sVdmxp9pa
p201
I1
sVd42w2ou
p202
I1
s.