(dp0
Vd0ozgur
p1
I1
sVds20w40
p2
I4
sVdmg9h2m
p3
I1
sVdgw518d
p4
I1
sVd09420s
p5
I1
sVdejczbz
p6
I1
sVdrum98u
p7
I5
sVdejavca
p8
I1
sVd0tdom8
p9
I1
sVd8d8w40
p10
I1
sVd1lc60a
p11
I1
sVd9j3v27
p12
I1
sVcyozymb
p13
I1
sVdig5c6o
p14
I1
sVd67y4cx
p15
I1
sVdbn5i0p
p16
I1
sVd1tp7i2
p17
I1
sVdrjgmky
p18
I1
sVd6culg7
p19
I1
sVda18cxu
p20
I1
sVd1l3ktn
p21
I1
sVcykzy3c
p22
I1
sVdjddjae
p23
I1
sVdmx18q0
p24
I1
sVd7mqthq
p25
I1
sVd9at8ke
p26
I1
s.