(dp0
Vdhag6d1
p1
I1
sVd6qawee
p2
I3
sVddu0r3n
p3
I1
sVdel0b5l
p4
I1
sVdo3f4qu
p5
I1
sVdai0lk1
p6
I4
sVdiz1e0c
p7
I2
sVdfxqf1e
p8
I2
sVd96wvnx
p9
I2
sVd46wr02
p10
I1
sVd4x0922
p11
I1
sVdiy857w
p12
I1
sVd08hrcl
p13
I1
sVdeoc1v6
p14
I1
sVdgrknch
p15
I3
sVdf1nm84
p16
I1
sVdknb3s0
p17
I1
sVddmnlaw
p18
I1
sVd53ubs8
p19
I3
sVdara77k
p20
I1
sVdft07be
p21
I1
sVd9nwqxj
p22
I1
sVdkeq7mv
p23
I1
sVcyjpy4s
p24
I2
sVdt1thc6
p25
I2
sVd1jqr27
p26
I1
sVd7vejfx
p27
I1
sVdjxdq0k
p28
I1
sVdfrtg1v
p29
I1
sVcyio46m
p30
I1
sVcyxfyvi
p31
I1
sVd55iggd
p32
I1
sVdguwsca
p33
I1
sVdddadiu
p34
I3
sVdhyqtd8
p35
I1
sVddhxyco
p36
I1
sVd4id2s4
p37
I1
sVd5yf63b
p38
I1
sVd4jc0cz
p39
I1
sVd22qre6
p40
I1
sVd13gc2w
p41
I1
sVcytkoeh
p42
I1
sVdh1ntjm
p43
I1
sVdmxpysa
p44
I1
sVdqq34ie
p45
I1
sVd2bn3kj
p46
I1
sVd2bn5hf
p47
I3
sVdajtv6k
p48
I2
sVd1ij9gs
p49
I1
sVdixpt59
p50
I1
sVczamx9u
p51
I1
sVdhe9664
p52
I1
sVd6yvtlj
p53
I1
sVd4a052b
p54
I3
sVdmiaycz
p55
I1
sVda4y4jt
p56
I2
sVdbfsel1
p57
I1
sVd89sile
p58
I1
sVde5o95t
p59
I1
sVd87iize
p60
I1
sVd8k6oqf
p61
I1
sVd400jqq
p62
I1
sVd3bliro
p63
I1
sVdo8h761
p64
I1
sVds1e4ry
p65
I1
sVd62wpzk
p66
I1
sVd0zgcna
p67
I1
sVd8whw0x
p68
I1
sVczcjejq
p69
I1
sVdda6j1s
p70
I1
sVd3xzq11
p71
I1
sVd64i3ej
p72
I1
sVdj4s6k0
p73
I1
sVdpxh5g5
p74
I2
sVds3jpgp
p75
I1
sVdetv57h
p76
I1
sVd4ms7h2
p77
I1
sVd7kl3pp
p78
I6
sVd6x0h5v
p79
I1
sVd2xns4f
p80
I1
sVcyq533x
p81
I1
sVdofo5ua
p82
I1
sVd99yppj
p83
I1
sVd1g6ahs
p84
I1
sVdgjbzqw
p85
I1
sVdon5qoy
p86
I1
sVd7ygs4r
p87
I1
sVczqx723
p88
I1
sVcyt744d
p89
I1
sVcynaiht
p90
I1
sVd4ppw1w
p91
I1
sVdcl596d
p92
I2
sVdflxc01
p93
I1
sVd589cvm
p94
I3
sVdj30eoh
p95
I1
sVdnfp4je
p96
I1
sVd1cjsn7
p97
I1
sVdhtb21s
p98
I1
sVdkf4amt
p99
I1
sVdieenx5
p100
I2
sVdgtjrgo
p101
I2
sVd514nbs
p102
I1
sVd3hwhiv
p103
I1
sVd7ael58
p104
I1
sVd0en6ri
p105
I2
sVcz282rr
p106
I1
sVdk0wp1g
p107
I1
sVd7l4dzv
p108
I1
sVcz2zz7m
p109
I1
sVddsns5f
p110
I1
sVddyjoos
p111
I1
sVd44c2pi
p112
I1
sVd4egaau
p113
I2
sVd56iho9
p114
I1
sVd42gw22
p115
I1
sVcyqomwz
p116
I1
sVdeb9ql1
p117
I1
sVdavax0h
p118
I2
sVdeilkij
p119
I1
sVd3anasf
p120
I2
sVd062e9t
p121
I1
sVdb4bea2
p122
I1
sVdmu2ptr
p123
I3
sVd2a31zq
p124
I1
sVdfednl7
p125
I1
sVda47dhn
p126
I1
sVczw5fsr
p127
I1
sVdeo5nh7
p128
I1
sVdjtxcwq
p129
I1
sVcymutpi
p130
I1
sVdg5q43g
p131
I1
sVdkc59fq
p132
I1
sVdbjdpwe
p133
I1
sVdcre9sf
p134
I2
sVdbdo8pt
p135
I1
sVdh7lgtg
p136
I1
sVdbvwt64
p137
I2
sVd2escls
p138
I2
sVdkt4r4a
p139
I3
sVcyvp9zj
p140
I1
sVdjghfv5
p141
I1
sVdnovce3
p142
I1
sVdihyo4i
p143
I1
sVda56azi
p144
I1
sVd6ely2y
p145
I1
sVdc9ufjl
p146
I1
sVdc1n83s
p147
I1
sVdg9rbm0
p148
I1
sVdptljoe
p149
I1
sVdal1xk0
p150
I1
sVdgjd26g
p151
I1
sVdcu03bl
p152
I1
sVd462amc
p153
I1
sVdjq6jn2
p154
I1
sVcyieo7r
p155
I1
sVczumra6
p156
I2
sVd744xjt
p157
I1
sVd6nmfcl
p158
I1
sVd1zbrrg
p159
I1
sVd3u0h23
p160
I1
sVdgrqyd6
p161
I1
sVdrxrc9s
p162
I1
sVcz9lg9m
p163
I1
sVd1l065d
p164
I2
sVcypqscn
p165
I4
sVdpacrc5
p166
I1
sVd69q79m
p167
I1
sVdr4rluj
p168
I1
sVcyt2521
p169
I1
sVd3ci1v9
p170
I1
sVdaibhab
p171
I2
sVd835bh2
p172
I1
sVdd6wfku
p173
I1
sVdflbdul
p174
I1
sVcyrrktt
p175
I3
sVd1rjpqb
p176
I3
sVd28k9a4
p177
I1
sVdfbb1ze
p178
I1
sVd2q40dx
p179
I1
sVdelax9m
p180
I1
sVdsnkbfa
p181
I1
sVdibpeed
p182
I2
sVczoe70h
p183
I1
sVdsgp4ho
p184
I1
sVd2lvkcz
p185
I5
sVdhq6l1a
p186
I2
sVd5dyice
p187
I3
sVdn55oy7
p188
I2
sVdfu22ha
p189
I1
sVd6lbp3r
p190
I1
sVd9lf6hl
p191
I1
sVdkf5153
p192
I2
sVdd1dypp
p193
I1
sVd8uao0w
p194
I2
sVdprcghh
p195
I1
sVd8ogvpn
p196
I1
sVdrpq8z3
p197
I1
sVdes3sr7
p198
I1
sVddb7dx2
p199
I1
sVd9xeoyn
p200
I1
sVdhfb23o
p201
I2
sVdp18rus
p202
I1
sVd1g5i6m
p203
I2
sVdrn4heq
p204
I2
sVdilxifu
p205
I1
sVd07r0v3
p206
I3
sVdetnrs2
p207
I1
sVd9d8sxp
p208
I4
sVd4sdxp4
p209
I2
sVdkkin9i
p210
I1
sVczaqgvn
p211
I1
sVdazhml2
p212
I1
sVd0nw4a1
p213
I1
sVdj4t7lm
p214
I1
sVd6wo17c
p215
I1
sVdixyn5k
p216
I1
sVd00aioc
p217
I1
sVcyjd236
p218
I1
sVdckx027
p219
I1
sVd27u2fm
p220
I1
sVdi4v8ky
p221
I1
sVdjzxjd4
p222
I1
sVd795l3q
p223
I1
sVd8valcv
p224
I1
sVd4m595t
p225
I1
sVdkep5yc
p226
I2
sVczieb1s
p227
I1
sVdqi1k9z
p228
I1
sVdh9qdwz
p229
I4
sVd78wjam
p230
I1
sVddt2c5h
p231
I1
sVczi20oo
p232
I1
sVdt34x1g
p233
I1
sVdsn4r0p
p234
I1
sVczfxqz9
p235
I1
sVdeakihc
p236
I1
sVda81pls
p237
I1
sVdnm9cge
p238
I1
sVdfvkdin
p239
I1
sVd591g5x
p240
I1
sVd1k826a
p241
I1
sVd1bnf06
p242
I1
sVdi3iti9
p243
I1
sVd2jafvi
p244
I1
sVdmjihme
p245
I1
sVdbhoisc
p246
I2
sVdeevsy6
p247
I1
sVdo81nrq
p248
I1
sVd76scsl
p249
I1
sVda20m84
p250
I1
sVd647wy1
p251
I1
sVd3pn8k3
p252
I1
sVdhhsqds
p253
I1
sVcyj0ast
p254
I1
sVdqevfj9
p255
I1
sVddf63e0
p256
I1
sVdspk3ig
p257
I1
sVd9ny2cl
p258
I1
sVd62t5yj
p259
I1
sVdq6jyge
p260
I1
sVdcd6bvn
p261
I1
sVdqb6cm3
p262
I1
sVd08hsge
p263
I1
sVdd4t5mf
p264
I1
sVdn4oe2d
p265
I1
sVdgzy80x
p266
I1
sVdi5bdk6
p267
I3
sVdt40p19
p268
I1
sVdjf9c9c
p269
I1
sVdhnkhlr
p270
I1
sVd8ykf37
p271
I3
sVdnrbru9
p272
I2
sVdr7icxt
p273
I1
sVdae64sa
p274
I1
sVdqn21vr
p275
I1
sVdajwf0n
p276
I1
sVd9orhlt
p277
I2
sVd0cic6i
p278
I2
sVd0rr1oz
p279
I1
sVd2c46vl
p280
I1
sVdkfv5d1
p281
I1
sVdob49my
p282
I1
sVdeenc1g
p283
I2
sVd0komh7
p284
I1
sVd6e1llu
p285
I2
sVdmlh50c
p286
I1
sVd26d1n1
p287
I3
sVdq81tnv
p288
I1
sVd4ous6m
p289
I1
sVdo9boys
p290
I1
sVdarkv2j
p291
I1
sVcyjqyxt
p292
I1
sVd5iyerz
p293
I1
sVd6qfkt3
p294
I1
sVddnho6i
p295
I1
sVdk1q3gg
p296
I1
sVd9q3io1
p297
I1
sVczyyq3z
p298
I1
sVd3i293r
p299
I1
sVdtgnar8
p300
I1
sVddyirn4
p301
I1
sVdmyfks7
p302
I1
sVd78uqh9
p303
I1
sVdgakmzj
p304
I1
sVd90a9t7
p305
I1
sVd7ezdjd
p306
I2
sVdhzzyil
p307
I1
sVdfymsp4
p308
I1
sVde6l0gx
p309
I1
sVd7skf2p
p310
I1
sVdemdsjy
p311
I1
sVd3rr0o9
p312
I1
sVd6rotir
p313
I2
sVd5p6835
p314
I6
sVdghpe8f
p315
I1
sVdhhlvep
p316
I1
sVdqmt0zu
p317
I3
sVcz85nmo
p318
I1
sVdeg9b8w
p319
I1
sVd49rpn7
p320
I1
sVd3ibrt5
p321
I1
sVdqi5184
p322
I1
sVddcq8ul
p323
I1
sVdhtcbmh
p324
I1
sVdgeuaif
p325
I1
sVd7f1q7p
p326
I1
sVdh1u73k
p327
I1
sVd7d9quy
p328
I1
sVdg1puu2
p329
I1
sVdbk4fgn
p330
I1
sVd86xmto
p331
I1
sVd1h9k8u
p332
I1
sVd9s08se
p333
I1
sVd8noqnf
p334
I1
sVd6dz6of
p335
I5
sVda5rp9q
p336
I1
sVd8ujql4
p337
I1
sVddfocaw
p338
I1
sVczntou7
p339
I1
sVdkf19gd
p340
I5
sVd89sfl4
p341
I1
sVcyxb8du
p342
I1
sVd83aana
p343
I1
sVczsq9de
p344
I1
sVd6q1bsj
p345
I1
sVd29eayj
p346
I2
sVdefs9ca
p347
I1
sVdkcwqg3
p348
I1
sVd9pxese
p349
I2
sVczjlk7z
p350
I1
sVdcjx5r6
p351
I1
sVd28ojvv
p352
I2
sVd481b1p
p353
I3
sVd3fxp15
p354
I1
sVd3e7gwh
p355
I2
sVdr82o9a
p356
I1
sVdtb85ag
p357
I1
sVdsdp4q0
p358
I1
sVdkxb588
p359
I1
sVds0psrg
p360
I1
sVdeatwbn
p361
I1
sVdh82cfc
p362
I3
sVdr74wba
p363
I1
sVdd7u18k
p364
I1
sVd6re62p
p365
I1
sVdoinit3
p366
I1
sVdgq1at5
p367
I1
sVdjlae9m
p368
I1
sVdg9v6ur
p369
I4
sVdb0y0j3
p370
I1
sVdkehtvm
p371
I1
sVd21mxgs
p372
I1
sVdg08fbm
p373
I2
sVd4mv0dj
p374
I1
sVdd53o90
p375
I1
sVcyjr2uj
p376
I2
sVcyjuw6r
p377
I1
sVcytak38
p378
I1
sVde2umty
p379
I1
sVcyjpzys
p380
I1
sVdpsbykz
p381
I2
sVdn7cuhp
p382
I2
sVd0up4mz
p383
I1
sVdhw6xt8
p384
I1
sVdt7pgr6
p385
I2
sVdoszhkj
p386
I3
sVd0r4zxm
p387
I1
sVd6rkjl1
p388
I1
sVdid63iv
p389
I1
sVdiiqb4p
p390
I1
sVdh7pqfe
p391
I1
sVdgjsd2j
p392
I1
sVd6vsf9d
p393
I1
sVdcgju8w
p394
I1
sVd5dso8l
p395
I2
sVdc1n8eg
p396
I1
sVd2pfb2b
p397
I1
sVdrn84nv
p398
I1
sVddlzwyc
p399
I1
sVdbovvri
p400
I1
sVdcfas31
p401
I1
sVd0bq017
p402
I1
sVd4wo7ez
p403
I1
sVdoa2ih0
p404
I1
sVdb26v4f
p405
I2
sVdaidlps
p406
I1
sVdmg8pj8
p407
I1
sVd4xlt9u
p408
I2
sVdien7vt
p409
I1
sVdrvky1o
p410
I1
sVdgyylom
p411
I3
sVcyii1ez
p412
I2
sVd6jdzz3
p413
I1
sVcyksaa8
p414
I2
sVder71hf
p415
I2
sVd3pipg9
p416
I1
sVddti36s
p417
I1
sVd00wu3r
p418
I1
sVcyxb2m0
p419
I1
sVdiqhdsc
p420
I1
sVd4264rx
p421
I2
sVdhtfshf
p422
I1
sVd8th6qz
p423
I1
sVd7eld19
p424
I1
sVd0hvdog
p425
I1
sVd0elj0d
p426
I1
sVddwvrma
p427
I6
sVd62t0l3
p428
I1
sVdketiwm
p429
I1
sVd09n6hl
p430
I1
sVcykrowo
p431
I1
sVd1yzawc
p432
I1
sVd9vi9r1
p433
I1
sVd2mov50
p434
I1
sVdie64ss
p435
I1
sVdtd3pjm
p436
I1
sVd5aoazu
p437
I1
sVd35f2ki
p438
I2
sVcz020n2
p439
I1
sVd84mmha
p440
I1
sVdayizss
p441
I1
sVd9jowsj
p442
I1
sVdqkwxa4
p443
I1
sVdh4nyja
p444
I1
sVd5pwxin
p445
I1
sVd48i4n3
p446
I1
sVddt2ko5
p447
I1
sVd27tepd
p448
I1
sVdog75f4
p449
I1
sVd3zseey
p450
I2
sVd13cd0p
p451
I1
sVcylk3ps
p452
I1
sVczn3033
p453
I1
sVdf8guni
p454
I2
sVdbz56ub
p455
I1
sVdbxw2qa
p456
I1
sVdadq1tx
p457
I1
sVd3k7yiu
p458
I1
sVdbyc3f1
p459
I1
sVd8nkoys
p460
I1
sVdb3fyo4
p461
I2
sVdmodvy4
p462
I1
sVdp3rzlj
p463
I2
sVdb5cjow
p464
I1
sVd8pshe1
p465
I1
sVd5lzppa
p466
I1
sVd2hfeg7
p467
I1
sVdf4u7yo
p468
I1
sVcz7q1qh
p469
I1
sVd8grqiy
p470
I1
sVdim3yul
p471
I1
sVd3afgjl
p472
I2
sVdaq1uvp
p473
I1
sVd69qs4n
p474
I1
sVdn1qvo7
p475
I2
sVd5oeda7
p476
I1
sVd0xvnuu
p477
I1
sVd1sovz5
p478
I1
sVdi1ya1v
p479
I1
sVdj5b1ra
p480
I1
sVdo8q536
p481
I1
sVdk0cadv
p482
I2
sVdgp9qpx
p483
I1
sVdffzbad
p484
I3
sVdfm6wkr
p485
I2
sVd0qonow
p486
I1
sVdi5c88j
p487
I1
sVde3zq40
p488
I1
sVd5mcvmg
p489
I2
sVdhwlins
p490
I1
sVd9olbs8
p491
I1
sVdkewisc
p492
I1
sVd7p458n
p493
I1
sVd342t2i
p494
I1
sVd77qh7o
p495
I1
sVdt3ttcd
p496
I1
sVdoheadi
p497
I1
sVd797fnp
p498
I1
sVd9emkxr
p499
I1
sVdpv9h6b
p500
I1
sVd7zoz5w
p501
I1
sVcz28r6p
p502
I1
sVd4nt47k
p503
I1
sVdg7ui9u
p504
I1
sVdawjgrz
p505
I1
sVdijqyle
p506
I1
sVdr6jwuw
p507
I1
sVdbsevpb
p508
I1
sVdbtwgk2
p509
I1
sVd1l7xwg
p510
I1
sVdaxbgzg
p511
I4
sVd0tju3o
p512
I1
sVdpbl08e
p513
I1
sVdgk2quy
p514
I1
sVd5zks1c
p515
I1
sVdfxthc6
p516
I1
sVd4lq2af
p517
I1
sVdi21c2h
p518
I1
sVd1la7oy
p519
I2
sVds87o81
p520
I1
sVdogm7xh
p521
I1
sVdfu3mbe
p522
I1
sVd84gel7
p523
I1
sVdi4hp6r
p524
I1
sVdgjbzh5
p525
I1
sVd5cpcpf
p526
I2
sVdfu1ylf
p527
I1
sVd3ipkcj
p528
I1
sVdhabb1o
p529
I2
sVd7f8ir4
p530
I1
sVczdi4pg
p531
I1
sVd5p56yp
p532
I1
sVd03bhwd
p533
I1
sVd4kpwkn
p534
I1
sVdjuc1u6
p535
I2
sVd2hk5k8
p536
I3
sVczx78sn
p537
I1
sVd70dm05
p538
I1
sVdpi0s6v
p539
I1
sVd2otywd
p540
I1
sVdbwfj23
p541
I1
sVdspl5fh
p542
I1
sVd1s9blr
p543
I1
sVd9lrbqj
p544
I1
sVd71irtm
p545
I1
sVd6tq2ic
p546
I1
sVdhnflrn
p547
I1
sVdgnelu1
p548
I1
sVdjtxrd5
p549
I1
sVdkv2unj
p550
I1
sVd1j9xf9
p551
I1
sVd7enent
p552
I3
sVdcspm0e
p553
I1
sVdka2z9g
p554
I1
sVd9kqdoh
p555
I1
sVd69m96g
p556
I1
sVdax91g6
p557
I1
sVdd59oz3
p558
I1
sVdaxt1os
p559
I1
sVdet1gpv
p560
I2
sVdi46ib7
p561
I1
sVdcnx4u4
p562
I1
sVdhfuocd
p563
I1
sVd2fiq5k
p564
I1
sVd0s2ceh
p565
I1
sVdj3bo0f
p566
I1
sVdgguz50
p567
I1
sVczl8sc1
p568
I1
sVdb4ropl
p569
I1
sVcyzwtyw
p570
I2
sVd55isga
p571
I1
sVd1czgq9
p572
I1
sVds0r2ml
p573
I1
sVd04ursl
p574
I1
sVdenu37n
p575
I1
sVcz2cv4p
p576
I2
sVdcoun7l
p577
I2
sVdbla85e
p578
I1
sVd7j78x4
p579
I1
sVdaqiep5
p580
I1
sVd3w10zh
p581
I2
sVddsoq96
p582
I1
sVd1zs2al
p583
I2
sVd1nplai
p584
I3
sVd9nvvbl
p585
I1
sVdavxue8
p586
I1
sVd5jv4vw
p587
I1
sVdi2dy1o
p588
I1
sVdfgsh80
p589
I1
sVdj0cwy4
p590
I1
sVdq7vcwz
p591
I1
sVd3tivxk
p592
I1
sVdcr85um
p593
I2
sVd218xip
p594
I1
sVd4gulte
p595
I3
sVddcdsyr
p596
I2
sVd43q44p
p597
I1
sVdkfj0ho
p598
I2
sVdmt6j2p
p599
I1
sVdaqkky8
p600
I1
sVde0yk06
p601
I1
sVd225199
p602
I1
sVdmmo5xy
p603
I4
sVczdkc9l
p604
I2
sVd9rwe5b
p605
I1
sVdd41941
p606
I1
sVd9x3s3r
p607
I1
sVd53oao7
p608
I1
sVdcome4r
p609
I1
sVd672i01
p610
I2
sVd1ivoyz
p611
I1
sVd0uir0a
p612
I1
sVd9duadp
p613
I1
sVdj5rzvt
p614
I1
sVd7ujl7c
p615
I1
sVdkuukqa
p616
I2
sVd8spdsq
p617
I1
sVd0b2itp
p618
I1
sVd5x7rck
p619
I1
sVd4z9udm
p620
I2
sVd8ubeb2
p621
I1
sVdg5krhp
p622
I1
sVdqfhr5b
p623
I1
sVdkenauh
p624
I1
sVd23wyo9
p625
I1
sVd0afpf5
p626
I1
sVczwkku8
p627
I1
sVdfiz2w7
p628
I1
sVd1ycw80
p629
I1
sVd54njoc
p630
I9
sVd4m7jgm
p631
I1
sVdgy8hpe
p632
I1
sVczdshx0
p633
I1
sVdcq4jm0
p634
I1
sVd0ogtbr
p635
I1
sVd6ue2hw
p636
I1
sVd93w27r
p637
I2
sVdp50vsd
p638
I2
sVd9iqjho
p639
I1
sVdndasum
p640
I1
sVdepbj53
p641
I1
sVdndekuu
p642
I1
sVcznzamk
p643
I1
sVczh2yzr
p644
I1
sVdkpatd7
p645
I1
sVd6fcz9d
p646
I1
sVdbb8zgp
p647
I1
sVcyteo7k
p648
I1
sVdeilmaq
p649
I1
sVd49ew2u
p650
I1
sVd5k6r5p
p651
I2
sVddn66n3
p652
I1
sVd23mmsf
p653
I1
sVdk4e1tp
p654
I1
sVd6fcv4a
p655
I1
sVd8k3n1i
p656
I1
sVda1qsez
p657
I1
sVd6dyvja
p658
I2
sVdeovbxv
p659
I1
sVdjfcv6u
p660
I2
sVdhny02b
p661
I1
sVdpw8e31
p662
I1
sVd4q9p2r
p663
I1
sVcyzh5ga
p664
I2
sVcz7xxx5
p665
I1
sVczkc9m3
p666
I1
sVd0m2d20
p667
I1
sVdoa7ce5
p668
I2
sVdaui9gt
p669
I2
sVcytoz6y
p670
I2
sVda5fe42
p671
I1
sVd5y095n
p672
I1
sVdnekpvl
p673
I1
sVd8celo6
p674
I1
sVd6x2wkb
p675
I2
sVdn27ss3
p676
I1
sVdae6f8m
p677
I1
sVdb5sgv2
p678
I1
sVdh6r4g9
p679
I1
sVd6x1ri2
p680
I1
sVd0efh2l
p681
I1
sVd87ckks
p682
I1
sVdco70iq
p683
I1
sVdqdomkn
p684
I1
sVdmjrbnu
p685
I2
sVd04iek4
p686
I1
sVdkxo0an
p687
I2
sVd3bzwio
p688
I1
sVdqrmpfj
p689
I1
sVd1hafjz
p690
I1
sVdatlye2
p691
I1
sVd45w6vo
p692
I1
sVdd6ch7t
p693
I1
sVd6tn7ve
p694
I1
sVdecsz5y
p695
I2
sVdrk0pyj
p696
I4
sVdgg59da
p697
I1
sVdhvf138
p698
I1
sVd41kjw1
p699
I2
sVdg4fx5l
p700
I1
sVdt5bi3e
p701
I1
sVdi55t1d
p702
I1
sVd90ibay
p703
I1
sVd9ootn8
p704
I1
sVd8b1cwq
p705
I1
sVdi9uer7
p706
I1
sVdmvghzn
p707
I1
sVdkdckhr
p708
I1
sVddgmcwf
p709
I1
sVd8swx11
p710
I1
sVcznu8tr
p711
I1
sVdax9ftl
p712
I1
sVd7qffba
p713
I1
sVdivq8po
p714
I2
sVdcfoyry
p715
I2
sVde6tyco
p716
I7
sVd1dcser
p717
I1
sVdd1i39r
p718
I1
sVd63r0av
p719
I1
sVd5jw315
p720
I7
sVdjh2hkr
p721
I1
sVd6l0g8k
p722
I1
sVdc4yrvc
p723
I1
sVdfqldat
p724
I2
sVcyt55v3
p725
I1
sVd3issxp
p726
I1
sVdj2wgoj
p727
I2
sVd4p5h8p
p728
I1
sVdss6xgw
p729
I1
sVded3eko
p730
I1
sVczgga2j
p731
I1
sVdo6ixkq
p732
I1
sVdhnhm9b
p733
I1
sVdbov7vh
p734
I2
sVdcwbk19
p735
I1
sVdjflkjw
p736
I1
sVdjsibmq
p737
I1
sVd3ttdrr
p738
I1
sVdmjvah9
p739
I1
sVdc92ajw
p740
I1
sVd2bygw3
p741
I1
sVd96npgo
p742
I1
sVdee7sue
p743
I3
sVcznn2at
p744
I1
sVd3w7tt0
p745
I4
sVddux4c0
p746
I1
sVdrue49p
p747
I1
sVdn4r462
p748
I1
sVd561120
p749
I1
sVdew7ohp
p750
I1
sVdghnd2z
p751
I1
sVd4d89n1
p752
I1
sVdh58dc4
p753
I1
sVdh1jvt2
p754
I1
sVdofu2ia
p755
I1
sVd3zjn49
p756
I1
sVd0639a4
p757
I2
sVd97h4wi
p758
I1
sVd0h4151
p759
I1
sVdh68g9c
p760
I1
sVd5l09q6
p761
I1
sVczkzkom
p762
I1
sVd9g01rg
p763
I2
sVd59sbs7
p764
I3
sVdbgqivl
p765
I1
sVdaqvm4a
p766
I1
sVd0tujtr
p767
I2
sVd5mutrb
p768
I2
sVd15wit1
p769
I1
sVdncmlxp
p770
I1
sVd8lq35s
p771
I1
sVdnravuz
p772
I1
sVdbzd4fu
p773
I1
sVd6hg1l7
p774
I1
sVd0gja32
p775
I1
sVdrejgoy
p776
I1
sVdh9mlhr
p777
I1
sVdodgq0d
p778
I1
sVdk7hw5f
p779
I1
sVd0l0zzn
p780
I2
sVd0gisk0
p781
I2
sVdg6axbh
p782
I1
sVd0u3788
p783
I4
sVddivcch
p784
I1
sVdipgh5n
p785
I2
sVczy5ubm
p786
I1
sVd2kjnui
p787
I2
sVd2z1xq2
p788
I1
sVdiqovrp
p789
I1
sVdkfc4g6
p790
I2
sVdcqhtla
p791
I1
sVdel5n9a
p792
I2
sVdhj199s
p793
I1
sVd8i7ihe
p794
I1
sVczw1g3m
p795
I3
sVdqf9bri
p796
I1
sVda3tyds
p797
I1
sVdoivnu6
p798
I1
sVdg2ctvk
p799
I1
sVd599gnf
p800
I1
sVds4p5pf
p801
I2
sVd72voer
p802
I1
sVdtclar3
p803
I1
sVd6tmzlm
p804
I1
sVd9ve51h
p805
I2
sVd6ug1lg
p806
I1
s.