(dp0
Vczfmm2r
p1
I1
s.(dp0
Vczlp9oo
p1
I1
sVczfmm2r
p2
I1
s.(dp0
Vczlp9oo
p1
I1
sVczfmm2r
p2
I1
s.(dp0
Vczlp9oo
p1
I1
sVczfmm2r
p2
I1
s.(dp0
Vd0emkv8
p1
I1
sVczfmm2r
p2
I1
s.(dp0
Vczfmm2r
p1
I1
sVd119ae2
p2
I1
s.(dp0
Vczfmm2r
p1
I1
sVd119ae2
p2
I1
s.(dp0
Vd1amij5
p1
I1
sVczfmm2r
p2
I1
s.(dp0
Vd27asna
p1
I1
sVczfmm2r
p2
I1
s.(dp0
Vd27asna
p1
I1
sVczfmm2r
p2
I1
s.(dp0
Vczfmm2r
p1
I1
sVd2o9xni
p2
I1
s.(dp0
Vczfmm2r
p1
I1
sVd34tban
p2
I1
s.(dp0
Vd3e6603
p1
I1
sVczfmm2r
p2
I1
s.(dp0
Vd3e6603
p1
I1
sVczfmm2r
p2
I1
s.(dp0
Vd3e6603
p1
I1
sVczfmm2r
p2
I1
s.(dp0
Vd3e6603
p1
I1
sVczfmm2r
p2
I1
s.(dp0
Vd3e6603
p1
I1
sVczfmm2r
p2
I1
s.(dp0
Vd3e6603
p1
I1
sVczfmm2r
p2
I1
s.(dp0
Vd3e6603
p1
I1
sVczfmm2r
p2
I1
s.(dp0
Vd3e6603
p1
I1
sVczfmm2r
p2
I1
s.(dp0
Vd4unaa3
p1
I1
sVczfmm2r
p2
I1
s.(dp0
Vd4unaa3
p1
I1
sVczfmm2r
p2
I1
s.(dp0
Vczfmm2r
p1
I1
sVd56rtj8
p2
I1
s.(dp0
Vczfmm2r
p1
I1
sVd56rtj8
p2
I1
s.(dp0
Vczfmm2r
p1
I1
sVd56rtj8
p2
I1
s.(dp0
Vczfmm2r
p1
I1
sVd56rtj8
p2
I1
s.(dp0
Vczfmm2r
p1
I1
sVd56rtj8
p2
I1
s.(dp0
Vczfmm2r
p1
I1
sVd56rtj8
p2
I1
s.(dp0
Vczfmm2r
p1
I1
sVd56rtj8
p2
I1
s.(dp0
Vczfmm2r
p1
I1
sVd56rtj8
p2
I1
s.(dp0
Vczfmm2r
p1
I1
sVd56rtj8
p2
I1
s.(dp0
Vczfmm2r
p1
I1
sVd56rtj8
p2
I1
s.(dp0
Vd57ehnc
p1
I1
sVczfmm2r
p2
I1
s.(dp0
Vczfmm2r
p1
I1
sVd5oq6vw
p2
I1
s.(dp0
Vczfmm2r
p1
I1
sVd6371l1
p2
I1
s.(dp0
Vczfmm2r
p1
I1
sVd6371l1
p2
I1
s.(dp0
Vd6fdwvz
p1
I1
sVczfmm2r
p2
I1
s.(dp0
Vczfmm2r
p1
I1
sVd78tgx2
p2
I1
s.(dp0
Vd7dk0q0
p1
I1
sVczfmm2r
p2
I1
s.(dp0
Vczfmm2r
p1
I1
sVd7mf8vt
p2
I1
s.(dp0
Vczfmm2r
p1
I1
sVd7mf8vt
p2
I1
s.(dp0
Vd8f60uy
p1
I1
sVczfmm2r
p2
I1
s.(dp0
Vczfmm2r
p1
I1
sVd8jmedq
p2
I1
s.(dp0
Vczfmm2r
p1
I1
sVd8ovcdj
p2
I1
s.(dp0
Vczfmm2r
p1
I1
sVd8ovcdj
p2
I1
s.(dp0
Vczfmm2r
p1
I1
sVd8ovcdj
p2
I1
s.(dp0
Vczfmm2r
p1
I1
sVd8ovcdj
p2
I1
s.(dp0
Vczfmm2r
p1
I1
sVdbq22qe
p2
I1
s.(dp0
Vczfmm2r
p1
I1
sVdc4dl5j
p2
I1
s.(dp0
Vczfmm2r
p1
I1
sVdc4dl5j
p2
I1
s.(dp0
Vczfmm2r
p1
I1
sVdcnksnp
p2
I1
s.(dp0
Vddrwv21
p1
I1
sVczfmm2r
p2
I1
s.(dp0
Vczfmm2r
p1
I1
sVdej3cja
p2
I1
s.(dp0
Vczfmm2r
p1
I1
sVdfee5ux
p2
I1
s.(dp0
Vdg8xxs7
p1
I1
sVczfmm2r
p2
I1
s.(dp0
Vczfmm2r
p1
I1
sVdhelnn8
p2
I1
s.(dp0
Vczfmm2r
p1
I1
sVdhelnn8
p2
I1
s.(dp0
Vczfmm2r
p1
I1
sVdiejnjq
p2
I1
s.(dp0
Vczfmm2r
p1
I1
sVdjoho8s
p2
I1
s.(dp0
Vczfmm2r
p1
I1
sVdnfp9k2
p2
I1
s.(dp0
Vczfmm2r
p1
I1
sVdnggpls
p2
I1
s.(dp0
Vczfmm2r
p1
I1
sVdo1v1mv
p2
I1
s.(dp0
Vczfmm2r
p1
I1
sVdo1v54z
p2
I1
s.(dp0
Vczfmm2r
p1
I1
sVdo1v54z
p2
I1
s.(dp0
Vczfmm2r
p1
I1
sVdpodot8
p2
I1
s.(dp0
Vdqoc9ey
p1
I1
sVczfmm2r
p2
I1
s.(dp0
Vczfmm2r
p1
I1
sVdt7oe9k
p2
I1
s.(dp0
Vczfmm2r
p1
I1
sVdt7qhg8
p2
I1
s.