(dp0
Vd3jbwho
p1
I1
sVd5e1esa
p2
I1
sVdh890ye
p3
I2
sVd15au4l
p4
I1
sVd97c7py
p5
I1
sVd7qmagw
p6
I3
sVdiuxlrj
p7
I1
sVd0emkv8
p8
I1
sVdjb3tbz
p9
I2
sVdcwfuaq
p10
I1
sVdiomvnx
p11
I1
sVd2q2lsn
p12
I1
sVd39zxfn
p13
I1
sVdejfi46
p14
I2
sVdgknnlr
p15
I1
sVdau2ko5
p16
I1
sVdmz9k3k
p17
I9
sVd0w5d5l
p18
I1
sVd89ad7x
p19
I1
sVdiwoif8
p20
I1
sVdcaqigf
p21
I1
sVdp4tsa3
p22
I1
sVdmeknbu
p23
I1
sVd3wpq8g
p24
I1
sVdjaanjs
p25
I2
sVd1pf7hc
p26
I1
sVdjef5iv
p27
I1
sVd6crfb5
p28
I1
sVdbbvpie
p29
I1
sVddylqem
p30
I1
sVd9d4l0e
p31
I1
sVdfznv05
p32
I1
sVd7qphkm
p33
I1
sVdaic97m
p34
I1
sVd1fq7op
p35
I1
sVcyzaslq
p36
I1
sVdp1jbih
p37
I3
sVd2qvp66
p38
I1
sVdbfah03
p39
I1
sVdiiabki
p40
I3
sVdis6ckk
p41
I2
sVd8o9kh4
p42
I1
sVd89btoo
p43
I1
sVcz3ovqj
p44
I1
sVdgn21m0
p45
I1
sVcyjiv6t
p46
I1
sVd9ag18v
p47
I1
sVdhx12fz
p48
I1
sVd53ylzh
p49
I6
sVdavh8g6
p50
I1
sVd7kfg5u
p51
I7
sVdomxpzr
p52
I1
sVdj8kvty
p53
I2
sVd1o6ole
p54
I1
sVdgjqhbz
p55
I1
sVd9n8vdr
p56
I1
sVd4y7iuc
p57
I2
sVd34tban
p58
I1
sVdapb5zg
p59
I1
sVdqv0agg
p60
I2
sVd6bhecg
p61
I1
sVdjy4rsq
p62
I1
sVd5hbyek
p63
I2
sVczo5kki
p64
I1
sVda1azsj
p65
I1
sVd6zw7g5
p66
I1
sVd1h4i04
p67
I1
sVdkmmpjg
p68
I1
sVd5ezc35
p69
I1
sVdqftrny
p70
I4
sVdku9jzo
p71
I1
sVdn10knt
p72
I2
sVczpnyn6
p73
I2
sVcz5s78o
p74
I1
sVd7qp17q
p75
I1
sVdh86amg
p76
I2
sVdh0p5ox
p77
I1
sVde7pgr1
p78
I1
sVdavaonm
p79
I1
sVdg61rqp
p80
I1
sVcz0d7hm
p81
I1
sVdj2u6r6
p82
I1
sVd9k62cg
p83
I1
sVdekwuhi
p84
I2
sVdfc70ry
p85
I2
sVdbdzsmt
p86
I1
sVdi9zhdd
p87
I1
sVd65jw0q
p88
I2
sVdd24rn1
p89
I2
sVcztwpul
p90
I1
sVd58jzom
p91
I1
sVd9kqwyb
p92
I1
sVdcwhstb
p93
I2
sVd65gvdn
p94
I1
sVdekwivb
p95
I1
sVdrzsbgb
p96
I1
sVd39k139
p97
I1
sVdba0s9z
p98
I1
sVd5wkzr3
p99
I2
sVd9f35c9
p100
I2
sVd2avpng
p101
I1
sVdfl2b5s
p102
I1
sVd4n2ztc
p103
I1
sVdnzwtu5
p104
I2
sVd9nbfbm
p105
I1
s.