(dp0
Vd1e6cka
p1
I1
sVd1e69sn
p2
I1
sVczfocbs
p3
I1
sVdiyh25p
p4
I1
sVd3z2qtj
p5
I1
sVd1e8kp8
p6
I2
sVdhtozok
p7
I1
sVczfy6kf
p8
I1
sVd6p9np9
p9
I1
sVdowgooq
p10
I1
sVdencvnq
p11
I1
sVdgzecvc
p12
I1
sVdksxpmi
p13
I1
sVd2tv9hw
p14
I1
sVd7t4qe6
p15
I1
sVd3y0xoy
p16
I3
s.