(dp0
Vcz6q8n4
p1
I1
s.(dp0
Vcz6q8n4
p1
I2
s.(dp0
Vcz6q8n4
p1
I1
sVd07tf6m
p2
I1
s.(dp0
Vd52fi8u
p1
I1
sVcz6q8n4
p2
I1
s.(dp0
Vcz6q8n4
p1
I1
sVd7n30lg
p2
I1
s.(dp0
Vcz6q8n4
p1
I1
sVd7n30lg
p2
I1
s.(dp0
Vcz6q8n4
p1
I1
sVd7n30lg
p2
I1
s.(dp0
Vcz6q8n4
p1
I1
sVdhwniz0
p2
I1
s.(dp0
Vcz6q8n4
p1
I1
sVdi5liof
p2
I1
s.(dp0
Vdj9li4v
p1
I1
sVcz6q8n4
p2
I1
s.(dp0
Vdj9li4v
p1
I1
sVcz6q8n4
p2
I1
s.(dp0
Vdj9li4v
p1
I1
sVcz6q8n4
p2
I1
s.(dp0
Vcz6q8n4
p1
I1
sVdq8zv1i
p2
I1
s.(dp0
Vdsji7nc
p1
I1
sVcz6q8n4
p2
I1
s.