(dp0
Vd2kz8mk
p1
I1
sVd1txdyq
p2
I1
sVczwb93t
p3
I1
sVd4kuzwt
p4
I1
sVd4or4v6
p5
I1
sVd7iwemd
p6
I2
sVd3q6elh
p7
I3
sVddr8tln
p8
I1
sVd9a7aet
p9
I1
sVd2wwnz0
p10
I1
sVdisoc12
p11
I1
sVd0g0wie
p12
I1
sVdn6zfkq
p13
I1
sVczh2yzr
p14
I1
sVd9mv985
p15
I1
sVcza770o
p16
I1
sVdnwnsli
p17
I1
sVddxa273
p18
I1
sVcz6hvdu
p19
I1
sVd1fvgl9
p20
I1
sVd0aiw5z
p21
I1
sVdpm10xf
p22
I1
sVdf47bpx
p23
I2
sVd13ryqy
p24
I1
sVddvc3s1
p25
I1
sVd3j4b19
p26
I1
sVdjtrxbc
p27
I1
sVdhsnf26
p28
I1
sVd4kwy9j
p29
I1
sVcypke92
p30
I1
sVdj146vv
p31
I1
sVdcywqbh
p32
I1
sVd40xkk5
p33
I1
sVd2uuwfk
p34
I1
sVcza3qe6
p35
I1
sVdnvsofy
p36
I1
sVdhjpmuq
p37
I1
sVdneow01
p38
I1
sVdpt7rzt
p39
I1
sVd3djiaj
p40
I1
sVdcbadpd
p41
I1
sVdgwivzg
p42
I1
sVdncqs80
p43
I1
sVdecg17n
p44
I1
sVdnr71lp
p45
I1
sVdbwm895
p46
I1
sVd1u42e9
p47
I1
sVdjl6ind
p48
I1
sVcziauuj
p49
I1
sVdk80la0
p50
I1
sVd6cjs9t
p51
I1
sVd0d3qlu
p52
I1
sVdfynviq
p53
I1
sVdpyysj7
p54
I1
sVdfbvade
p55
I1
sVd1uhxwl
p56
I1
sVd4a4q9j
p57
I1
sVdmwh51t
p58
I1
sVdo1j6xx
p59
I1
sVd4kvfbt
p60
I1
sVcz14q57
p61
I1
sVdbi68ra
p62
I1
sVd4kwkzn
p63
I1
sVd1lfwr2
p64
I1
sVdfaafjh
p65
I1
sVd9lqmvc
p66
I1
sVdfq1wxt
p67
I2
sVdqsv7rk
p68
I1
sVdf48ohs
p69
I1
sVdha7w4k
p70
I1
sVddwxaxs
p71
I1
sVcynekvh
p72
I2
sVdpv9h6b
p73
I1
sVdpmdbrl
p74
I1
sVcz285eb
p75
I1
sVdohwcs7
p76
I1
sVd407gyy
p77
I1
sVd4kt8zc
p78
I1
sVd3amrfc
p79
I1
sVdbnnbzc
p80
I1
sVdejqsro
p81
I1
sVd0qj7ep
p82
I1
sVdof905l
p83
I1
sVd3yk5rc
p84
I1
sVd3zntd5
p85
I1
sVdoeox80
p86
I1
sVd3ssg3f
p87
I1
sVdc6hgbs
p88
I1
sVde0xxbq
p89
I2
sVd9rbf9m
p90
I1
sVd0kg9m2
p91
I2
sVdiwye3n
p92
I1
sVd3e56xm
p93
I1
sVdo5bxeg
p94
I1
sVdqfnize
p95
I1
sVddgw0mu
p96
I2
sVde3wpam
p97
I1
sVd97er1w
p98
I1
sVdhfwzqf
p99
I1
sVd0rtdon
p100
I1
sVdbujskn
p101
I2
sVdiwqe1u
p102
I1
sVdb6np9y
p103
I1
sVdenu37n
p104
I1
sVdfx0jci
p105
I1
sVdcblp3e
p106
I1
sVd35934v
p107
I1
sVcz0g0w3
p108
I1
sVdimr8gg
p109
I1
sVdk7zwmi
p110
I1
sVcyq3tfz
p111
I1
sVdalz6mg
p112
I1
sVd8j36ld
p113
I1
sVdb6lxov
p114
I3
sVd98h2n9
p115
I1
sVdam9evm
p116
I1
sVdagnnqj
p117
I3
sVd1zjzhf
p118
I1
sVddwyrmq
p119
I1
sVcyne9du
p120
I1
sVdhymhoj
p121
I1
sVdhq0ozv
p122
I1
sVd0svgoy
p123
I1
sVdjlez9v
p124
I1
sVdirldae
p125
I1
sVdnb4pfs
p126
I1
sVddzvth4
p127
I1
sVdkljewh
p128
I1
sVcz62tfs
p129
I1
sVdhf90uf
p130
I1
sVd342hr6
p131
I1
sVdbasmz1
p132
I1
sVdmhlyxz
p133
I1
s.