(dp0
Vdaouvnp
p1
I2
sVdd8uw1y
p2
I1
sVd002fe3
p3
I1
sVdf09rbe
p4
I1
sVdo4ow73
p5
I1
sVdt1a7h0
p6
I1
sVdabyy3q
p7
I1
sVdcrc04k
p8
I1
sVd6a7jeo
p9
I1
sVczcsp51
p10
I1
sVd1y05r9
p11
I1
sVdc010la
p12
I1
sVdt7bk6b
p13
I1
sVd1ozruw
p14
I1
sVd139f5a
p15
I1
sVdcq70k8
p16
I1
sVcyqdu48
p17
I1
sVdqfbs5n
p18
I1
sVd3xl4k5
p19
I2
sVds4zw3m
p20
I1
sVd2y0psi
p21
I1
sVdqfbce4
p22
I1
sVdkfdtye
p23
I1
sVdmm3yyb
p24
I1
sVd865t77
p25
I1
sVds1akw0
p26
I1
sVczn5gd7
p27
I1
sVddr7nme
p28
I2
sVczltp9a
p29
I2
sVdfxm5bp
p30
I1
sVd0lrle3
p31
I1
sVdsos3s0
p32
I1
sVd3bltr4
p33
I1
sVd1wvll2
p34
I1
sVdf5clwt
p35
I1
sVd8o365l
p36
I1
sVdffv6qz
p37
I1
sVdgi1zut
p38
I1
sVdrpaaqk
p39
I2
sVdgwpc7j
p40
I1
sVcyz6auk
p41
I1
sVdt2f6tp
p42
I1
sVd0pb6hj
p43
I1
sVd0ludaq
p44
I1
sVczw5acc
p45
I1
sVdecz1gs
p46
I1
sVd9piv5m
p47
I1
sVdewwod1
p48
I2
sVd5ph137
p49
I1
sVdjo6ak2
p50
I1
sVd0qdhmk
p51
I2
sVdi0nca8
p52
I2
sVddrd6ba
p53
I2
sVde3v4hk
p54
I1
sVdepon40
p55
I1
sVdmh0t62
p56
I1
sVdamallp
p57
I1
sVdsp1025
p58
I1
sVdaxevog
p59
I1
sVd1iwshx
p60
I1
sVd6wfthp
p61
I1
sVd1mntcl
p62
I1
sVdr0t4l7
p63
I1
sVcyjdabr
p64
I1
sVdnttht1
p65
I1
sVd0m9u3e
p66
I1
sVcyqxu78
p67
I1
sVdhr8qqk
p68
I1
sVdi5zxu4
p69
I1
sVdn8ls2v
p70
I1
sVd9tlox4
p71
I1
sVd07yunq
p72
I1
sVd00s5u6
p73
I1
sVdak42sw
p74
I1
sVdok41sn
p75
I1
sVd21m6oq
p76
I1
sVd1p066u
p77
I1
sVd5mcmve
p78
I1
sVdqp4uju
p79
I1
sVd3h1cs4
p80
I1
sVdk8gcwb
p81
I1
sVdcay89i
p82
I2
sVdscyag8
p83
I1
sVd6wt6lx
p84
I2
sVd6w8a8c
p85
I2
sVdbw84pl
p86
I1
sVd1brpcn
p87
I1
sVdel5x77
p88
I2
sVdqnpw1q
p89
I1
sVd6hzq4j
p90
I2
sVd4v6a23
p91
I1
sVdrb1d6s
p92
I1
sVdhh08j2
p93
I1
sVcyl2xxy
p94
I1
sVdcjx5r6
p95
I1
sVd0mmrt4
p96
I1
sVczom9ul
p97
I1
sVdegdo89
p98
I1
sVdpa4q9n
p99
I1
sVd9fhxkl
p100
I1
sVdc96ho6
p101
I1
sVd1okvsu
p102
I1
sVdt8e04w
p103
I1
sVd8oi64h
p104
I1
sVd62qwcy
p105
I2
sVdnjlot4
p106
I3
sVdhjfrqm
p107
I1
sVd8t782f
p108
I1
sVdhyabjp
p109
I1
sVd0kufmj
p110
I1
sVdg01qmv
p111
I1
sVd3w00so
p112
I1
sVd5rohf1
p113
I1
sVd0r69lm
p114
I1
sVdiben44
p115
I1
sVd21rqdj
p116
I1
sVdfg0eod
p117
I1
sVd8d9zea
p118
I1
sVdgj87hy
p119
I1
sVd0m1sn2
p120
I1
sVdo6z602
p121
I1
sVcyu0c9o
p122
I1
sVd4xotam
p123
I1
sVdoey0bt
p124
I1
sVczj5le6
p125
I1
sVd5geo76
p126
I1
sVd3re521
p127
I1
sVd0816uf
p128
I2
sVdazn3kc
p129
I1
sVdi5a1vo
p130
I1
sVdp6ie8h
p131
I1
sVd5tjq4b
p132
I1
sVd092rf5
p133
I1
sVdjswhnc
p134
I1
sVdmm33qo
p135
I1
sVd1ybbly
p136
I1
sVd6pbkdy
p137
I1
sVdh6568p
p138
I1
sVdsbjywo
p139
I1
sVd4h3pmz
p140
I2
sVdi48pqw
p141
I1
sVd5u286d
p142
I1
sVdh2wm3d
p143
I1
sVdrm5lli
p144
I1
sVczm5me4
p145
I1
sVczztcgq
p146
I1
sVdi2bh0s
p147
I1
sVcymg5vb
p148
I1
sVd61tp18
p149
I1
sVczwjzug
p150
I1
sVdbw1ro0
p151
I1
sVdarlgcs
p152
I2
sVd2pzojq
p153
I2
sVdeetjeh
p154
I1
sVdpp2p3b
p155
I1
sVdcc8j5o
p156
I2
sVdmmr2uz
p157
I1
sVdh8ejzd
p158
I1
sVdb563h6
p159
I1
sVd17o33p
p160
I2
sVcylc62k
p161
I2
sVdfcuypp
p162
I1
sVczyy8r4
p163
I1
sVda9i1yg
p164
I1
sVd54s8z6
p165
I1
sVd2ubr15
p166
I1
sVd0fzqgt
p167
I1
sVde0r6u0
p168
I1
sVdo6jyyp
p169
I1
sVdou4ba0
p170
I1
sVdf05npy
p171
I1
sVdprlvfp
p172
I1
sVdpbo0ze
p173
I2
sVczlefgp
p174
I1
sVdizu046
p175
I1
sVd7gcxec
p176
I1
sVd82i2uf
p177
I1
sVdbfu2qa
p178
I1
sVdpfqmfn
p179
I1
sVd1jcobb
p180
I1
sVdhh307b
p181
I1
sVcz5w6o7
p182
I1
sVdkyrr9d
p183
I1
sVdr0dib9
p184
I1
sVd4ycw85
p185
I1
sVd629l33
p186
I1
sVcz2y0y7
p187
I2
sVcztt9do
p188
I1
sVdtfg6l2
p189
I1
sVd4rz9p1
p190
I1
sVd9uy4i5
p191
I2
sVdc6w65c
p192
I1
sVczzr6if
p193
I1
sVdf550ck
p194
I1
sVddiom3v
p195
I1
sVdbb47qw
p196
I1
sVd5bmu5j
p197
I2
sVcyvakhb
p198
I1
sVdc01bux
p199
I1
sVd11v11v
p200
I1
sVdf4oodr
p201
I2
sVd9b7gxg
p202
I1
sVdt2djav
p203
I1
sVd06k52e
p204
I1
sVd4n7lja
p205
I1
sVd6vw14g
p206
I2
sVdi81o8e
p207
I1
sVd2snmhi
p208
I1
sVda5idsz
p209
I1
sVdaufduj
p210
I1
sVdilyxmo
p211
I1
sVd00h92y
p212
I1
sVda934zx
p213
I2
sVdfgh1v8
p214
I1
sVdbvel87
p215
I1
sVdbsx4z1
p216
I1
sVdhfo5sf
p217
I1
sVd7b4vn3
p218
I1
sVdefvmri
p219
I1
sVdhmnq91
p220
I1
sVdhezquf
p221
I2
sVdeq15wv
p222
I2
sVdnduqf7
p223
I1
sVdg0aizy
p224
I2
sVd921r5d
p225
I1
sVdsbdwqd
p226
I1
sVd1xhpuo
p227
I2
sVd6atkv3
p228
I1
sVdjniwx6
p229
I1
sVd0569j3
p230
I1
sVdf8fcwg
p231
I1
sVdmtpxp7
p232
I1
sVd7ifctk
p233
I1
sVd3mumho
p234
I1
sVd97jhxb
p235
I1
sVd5xshib
p236
I1
sVd0gucwd
p237
I1
sVdsbqxv9
p238
I1
sVdf5uzs8
p239
I1
sVdq41be8
p240
I2
sVdcn5j70
p241
I1
sVd1jkgts
p242
I1
sVczsn7bw
p243
I1
sVd3ipra5
p244
I1
sVd6rg5xo
p245
I1
sVd3yjyqi
p246
I1
sVczg432s
p247
I3
s.