(dp0
Vcyibla3
p1
I1
s.(dp0
Vcyibla3
p1
I1
sVcyibmg0
p2
I1
s.(dp0
Vcyibla3
p1
I1
sVcyjja7d
p2
I1
s.(dp0
Vcyibla3
p1
I1
sVcyju54w
p2
I1
s.(dp0
Vcyibla3
p1
I1
sVcyjy27c
p2
I1
s.(dp0
Vcyibla3
p1
I1
sVcykf0d4
p2
I1
s.(dp0
Vcyibla3
p1
I1
sVcylz73i
p2
I1
s.(dp0
Vcyibla3
p1
I1
sVcymb6o8
p2
I1
s.(dp0
Vcyibla3
p1
I1
sVcyno4iw
p2
I1
s.(dp0
Vcyibla3
p1
I1
sVcyog3md
p2
I1
s.(dp0
Vcyibla3
p1
I1
sVcyqvpak
p2
I1
s.(dp0
Vcyibla3
p1
I1
sVcyw1cdm
p2
I1
s.(dp0
Vcyibla3
p1
I1
sVcz146nc
p2
I1
s.(dp0
Vcyibla3
p1
I1
sVcz6o25m
p2
I1
s.(dp0
Vcyibla3
p1
I1
sVcz6v93s
p2
I1
s.(dp0
Vcyibla3
p1
I1
sVcz843e9
p2
I1
s.(dp0
Vcyibla3
p1
I1
sVcz9ydx8
p2
I1
s.(dp0
Vcyibla3
p1
I1
sVczc9n6o
p2
I1
s.(dp0
Vcyibla3
p1
I1
sVczdo0vy
p2
I1
s.(dp0
Vcyibla3
p1
I1
sVczdxezz
p2
I1
s.(dp0
Vcyibla3
p1
I1
sVczeqbug
p2
I1
s.(dp0
Vcyibla3
p1
I1
sVczeqbug
p2
I1
s.(dp0
Vcyibla3
p1
I1
sVczgclm6
p2
I1
s.(dp0
Vcyibla3
p1
I1
sVczgpebf
p2
I1
s.(dp0
Vcyibla3
p1
I1
sVczinktt
p2
I1
s.(dp0
Vcyibla3
p1
I1
sVczmbawp
p2
I1
s.(dp0
Vcyibla3
p1
I1
sVczmrtar
p2
I1
s.(dp0
Vcyibla3
p1
I1
sVcznpcn1
p2
I1
s.(dp0
Vcyibla3
p1
I1
sVczomelq
p2
I1
s.(dp0
Vcyibla3
p1
I1
sVczomqx6
p2
I1
s.(dp0
Vcyibla3
p1
I1
sVczpnlcp
p2
I1
s.(dp0
Vcyibla3
p1
I1
sVczpqwuw
p2
I1
s.(dp0
Vcyibla3
p1
I1
sVczrb5um
p2
I1
s.(dp0
Vcyibla3
p1
I1
sVczrgroa
p2
I1
s.(dp0
Vcyibla3
p1
I1
sVczsx3ht
p2
I1
s.(dp0
Vcyibla3
p1
I1
sVcztjt8i
p2
I1
s.(dp0
Vcyibla3
p1
I1
sVczv1yz5
p2
I1
s.(dp0
Vcyibla3
p1
I1
sVczvc8v6
p2
I1
s.(dp0
Vcyibla3
p1
I1
sVczvc8v6
p2
I1
s.(dp0
Vcyibla3
p1
I1
sVczxq9x5
p2
I1
s.(dp0
Vcyibla3
p1
I1
sVczyqudm
p2
I1
s.(dp0
Vcyibla3
p1
I1
sVczzgyhd
p2
I1
s.(dp0
Vcyibla3
p1
I1
sVd01rh85
p2
I1
s.(dp0
Vcyibla3
p1
I1
sVd03377q
p2
I1
s.(dp0
Vcyibla3
p1
I1
sVd07t6ov
p2
I1
s.(dp0
Vcyibla3
p1
I1
sVd09hihn
p2
I1
s.(dp0
Vcyibla3
p1
I1
sVd0abd4l
p2
I1
s.(dp0
Vcyibla3
p1
I1
sVd0afe8g
p2
I1
s.(dp0
Vcyibla3
p1
I1
sVd0ano53
p2
I1
s.(dp0
Vcyibla3
p1
I1
sVd0cwvo1
p2
I1
s.(dp0
Vcyibla3
p1
I1
sVd0id9kh
p2
I1
s.(dp0
Vcyibla3
p1
I1
sVd0iodu8
p2
I1
s.(dp0
Vcyibla3
p1
I1
sVd0iy60x
p2
I1
s.(dp0
Vcyibla3
p1
I1
sVd0l4jwk
p2
I1
s.(dp0
Vcyibla3
p1
I1
sVd0lyfn3
p2
I1
s.(dp0
Vcyibla3
p1
I1
sVd0o1jqi
p2
I1
s.(dp0
Vcyibla3
p1
I1
sVd0o1jqi
p2
I1
s.(dp0
Vcyibla3
p1
I1
sVd0o73w1
p2
I1
s.(dp0
Vcyibla3
p1
I1
sVd0pjpe6
p2
I1
s.(dp0
Vcyibla3
p1
I1
sVd0q4z1e
p2
I1
s.(dp0
Vcyibla3
p1
I1
sVd0qtzu0
p2
I1
s.(dp0
Vcyibla3
p1
I1
sVd0qtzu0
p2
I1
s.(dp0
Vcyibla3
p1
I1
sVd0qwaxl
p2
I1
s.(dp0
Vcyibla3
p1
I1
sVd0qzbqp
p2
I1
s.(dp0
Vcyibla3
p1
I1
sVd0tp7wl
p2
I1
s.(dp0
Vcyibla3
p1
I1
sVd0ubhye
p2
I1
s.(dp0
Vcyibla3
p1
I1
sVd0vyqv7
p2
I1
s.(dp0
Vcyibla3
p1
I1
sVd0wfels
p2
I1
s.(dp0
Vcyibla3
p1
I1
sVd0xqf7v
p2
I1
s.(dp0
Vcyibla3
p1
I1
sVd0ydg04
p2
I1
s.(dp0
Vcyibla3
p1
I1
sVd10g437
p2
I1
s.(dp0
Vcyibla3
p1
I1
sVd14i2zu
p2
I1
s.(dp0
Vcyibla3
p1
I1
sVd15fudi
p2
I1
s.(dp0
Vcyibla3
p1
I1
sVd17sofk
p2
I1
s.(dp0
Vcyibla3
p1
I1
sVd1aafli
p2
I1
s.(dp0
Vcyibla3
p1
I1
sVd1amxp5
p2
I1
s.(dp0
Vcyibla3
p1
I1
sVd1d2brw
p2
I1
s.(dp0
Vcyibla3
p1
I1
sVd1d2itu
p2
I1
s.(dp0
Vcyibla3
p1
I1
sVd1jzp1y
p2
I1
s.(dp0
Vcyibla3
p1
I1
sVd1oaw8x
p2
I1
s.(dp0
Vcyibla3
p1
I1
sVd1ofylf
p2
I1
s.(dp0
Vcyibla3
p1
I1
sVd1t7ol4
p2
I1
s.(dp0
Vcyibla3
p1
I1
sVd1vkk7e
p2
I1
s.(dp0
Vcyibla3
p1
I1
sVd1vo1k4
p2
I1
s.(dp0
Vcyibla3
p1
I1
sVd1ypegy
p2
I1
s.(dp0
Vcyibla3
p1
I1
sVd1zomfk
p2
I1
s.(dp0
Vcyibla3
p1
I1
sVd1zxlur
p2
I1
s.(dp0
Vcyibla3
p1
I1
sVd20v5yy
p2
I1
s.(dp0
Vcyibla3
p1
I1
sVd268lyt
p2
I1
s.(dp0
Vcyibla3
p1
I1
sVd26i1st
p2
I1
s.(dp0
Vcyibla3
p1
I1
sVd29etn9
p2
I1
s.(dp0
Vcyibla3
p1
I1
sVd2bx69w
p2
I1
s.(dp0
Vcyibla3
p1
I1
sVd2d7u9v
p2
I1
s.(dp0
Vcyibla3
p1
I1
sVd2f8vrx
p2
I1
s.(dp0
Vcyibla3
p1
I1
sVd2gcsp4
p2
I1
s.(dp0
Vcyibla3
p1
I1
sVd2k0utv
p2
I1
s.(dp0
Vcyibla3
p1
I1
sVd2kod3h
p2
I1
s.(dp0
Vcyibla3
p1
I1
sVd2kshih
p2
I1
s.(dp0
Vcyibla3
p1
I1
sVd2lzwk3
p2
I1
s.(dp0
Vcyibla3
p1
I1
sVd2nyhs3
p2
I1
s.(dp0
Vcyibla3
p1
I1
sVd2pib6b
p2
I1
s.(dp0
Vcyibla3
p1
I1
sVd2tnin7
p2
I1
s.(dp0
Vcyibla3
p1
I1
sVd2ussf4
p2
I1
s.(dp0
Vcyibla3
p1
I1
sVd2yfq29
p2
I1
s.(dp0
Vcyibla3
p1
I1
sVd30572k
p2
I1
s.(dp0
Vcyibla3
p1
I1
sVd30lt93
p2
I1
s.(dp0
Vcyibla3
p1
I1
sVd3b93w3
p2
I1
s.(dp0
Vcyibla3
p1
I1
sVd3brm9y
p2
I1
s.(dp0
Vcy(dp0
Vcyibla3
p1
I1
sVdtigut0
p2
I1
s.