(dp0
Vdjc8ndt
p1
I1
sVd1wu9g4
p2
I3
sVdhxdybx
p3
I3
sVdeh1xav
p4
I1
sVdhxb60c
p5
I1
sVd7b1wxb
p6
I1
sVcyw7nqg
p7
I1
sVdgdw38b
p8
I3
sVd6y58se
p9
I1
sVdcu0xbw
p10
I5
sVdccwtv3
p11
I10
sVdiy7qtv
p12
I1
sVddw0ct3
p13
I2
sVd86dg7t
p14
I3
sVd6u9dii
p15
I1
sVd5ryf5r
p16
I3
sVdiy8b0d
p17
I1
sVdpoctde
p18
I1
sVdbqetjw
p19
I1
sVdccnxdr
p20
I2
sVd35f2ye
p21
I1
sVd9er886
p22
I1
sVd8whap6
p23
I1
sVd76l3sx
p24
I1
sVd96ty7s
p25
I1
sVd3fic3j
p26
I1
s.