(dp0
Vd17r1i3
p1
I1
sVdku2nid
p2
I1
sVd4oo2zo
p3
I1
sVdi11zvw
p4
I1
sVdeu67a3
p5
I1
sVdjhboq9
p6
I1
sVdaoc1wm
p7
I1
sVdc8j4se
p8
I1
sVdr8ymev
p9
I1
sVdfwzm2x
p10
I1
sVdcqjqfq
p11
I1
sVd0vcy8n
p12
I3
sVdhguzzu
p13
I1
sVdonftqj
p14
I1
sVdadex3a
p15
I1
sVd8ymoqg
p16
I1
sVcz3tamm
p17
I1
sVdj20r0t
p18
I1
sVd84m0un
p19
I1
sVcyqvjdr
p20
I1
sVd3xanzl
p21
I1
sVdjxdq0k
p22
I1
sVczi2kax
p23
I1
sVdhjpd2h
p24
I1
sVdmquk01
p25
I1
sVdneksgp
p26
I1
sVdcxiwm2
p27
I1
sVdnm6pdj
p28
I1
sVdcnbetc
p29
I1
sVd7pa5ib
p30
I1
sVd0jbjy3
p31
I1
sVdaxa3en
p32
I1
sVdhvbvqn
p33
I1
sVd138eby
p34
I1
sVd55jpce
p35
I1
sVddwkf51
p36
I1
sVd0amg68
p37
I1
sVdead7im
p38
I1
sVd1wle5x
p39
I2
sVczqgrlt
p40
I1
sVdawy638
p41
I2
sVczcbn83
p42
I1
sVdnfguiv
p43
I1
sVdhmnagt
p44
I1
sVd7obuio
p45
I1
sVdax2ysy
p46
I1
sVdo6a9iy
p47
I3
sVd7krs4q
p48
I1
sVd3fiqrp
p49
I1
sVdmwb000
p50
I1
sVda8ko6w
p51
I1
sVd1k5sdm
p52
I1
sVd65opl7
p53
I1
sVd23901r
p54
I1
sVdfk7e3g
p55
I1
sVdhxtnmv
p56
I1
sVdjz8w0w
p57
I1
sVcyiqvua
p58
I1
sVd0juraa
p59
I1
sVdohrhnm
p60
I2
sVdedp91d
p61
I1
sVd3pwt4k
p62
I1
sVdd7ga6a
p63
I1
sVdt4uzqa
p64
I3
sVd92zrww
p65
I3
sVdk4nk63
p66
I1
sVd2g4jj2
p67
I1
sVdklyb9b
p68
I1
sVdqjmdl1
p69
I1
sVcyplz6b
p70
I1
sVdh2pi73
p71
I1
sVdiat7u7
p72
I1
sVdf932no
p73
I1
sVd42gw22
p74
I1
sVdqoz4a6
p75
I1
sVdp8e8k3
p76
I1
sVdkyah27
p77
I1
sVd4wyf87
p78
I1
sVdglpd5t
p79
I1
sVdt4r1uh
p80
I1
sVczf6ln6
p81
I1
sVd8d8d2r
p82
I1
sVdosr2b7
p83
I1
sVdiy9ooz
p84
I1
sVd356rkj
p85
I1
sVd64pv2b
p86
I1
sVd859txd
p87
I1
sVdiqovrp
p88
I1
sVdg2jbg7
p89
I2
sVdpeyywu
p90
I1
sVdml5w5i
p91
I1
sVdjtr4xs
p92
I1
sVd72uc5k
p93
I1
sVddfydvt
p94
I1
sVdk7rjob
p95
I1
sVdc4bmni
p96
I1
sVd3ggwok
p97
I1
sVd7k6vaf
p98
I1
sVd8k1y0m
p99
I1
sVd1r8cq5
p100
I1
sVd592ptr
p101
I1
sVda8ptam
p102
I1
sVd176ho7
p103
I1
sVd1zaurw
p104
I5
sVd9fnpu7
p105
I1
sVd2k43ek
p106
I1
sVd8dc61q
p107
I2
sVd59e75v
p108
I1
sVdnbgxa7
p109
I1
sVdesnqn0
p110
I1
sVd113ck0
p111
I1
sVde3sfex
p112
I1
sVdfrq4xs
p113
I1
sVdgkbw2m
p114
I1
sVd8o60fq
p115
I1
sVdk3d6wo
p116
I1
sVdoafkgq
p117
I1
sVd08pjtn
p118
I1
sVd57pbzx
p119
I1
sVdejasia
p120
I1
sVdj3n3x2
p121
I1
sVd747jet
p122
I1
sVde16l3q
p123
I1
sVdovfim6
p124
I1
sVd8d177n
p125
I1
sVdj0ot64
p126
I1
sVdbv5jf7
p127
I2
sVdb2202w
p128
I1
sVcz0jb0e
p129
I1
sVdgmxbsy
p130
I1
sVdh2mhoi
p131
I1
sVdgxyoxd
p132
I1
sVd9g4wlg
p133
I1
sVdhyqrje
p134
I1
sVdnkritc
p135
I2
sVczolx9c
p136
I1
sVdqhzeek
p137
I1
sVd71wfvf
p138
I1
sVd0jsrx0
p139
I1
sVd8w0ba1
p140
I2
sVdh2aoqg
p141
I1
sVdd2da4e
p142
I1
sVdaw52fx
p143
I1
sVd0mf3l9
p144
I1
sVczczbkd
p145
I3
sVdc3ipka
p146
I1
sVdeavjso
p147
I1
sVcztc9wg
p148
I1
sVdcx5se8
p149
I1
sVdcbp4nx
p150
I1
sVczi76se
p151
I1
sVd76e8si
p152
I1
sVd2l7gd2
p153
I1
sVdpcuc3n
p154
I1
sVdhqbnvr
p155
I1
sVd7ziexv
p156
I1
sVdhhg2o8
p157
I3
sVdjeyen0
p158
I1
sVd2z2r4l
p159
I1
sVd03d3va
p160
I1
sVd8kazto
p161
I1
sVdgrmfu8
p162
I1
sVd1xe1y0
p163
I1
sVd2llqsv
p164
I1
sVdbtkcs7
p165
I1
sVd05imz4
p166
I1
sVd4ydcw3
p167
I1
sVd3e7kmv
p168
I1
sVd64zk8o
p169
I1
sVdh3x1yl
p170
I1
sVda9q51e
p171
I1
sVdi1nedm
p172
I1
sVdf7uozv
p173
I1
sVdoo8r1w
p174
I1
sVd5hp2pf
p175
I1
sVd2iwtmq
p176
I1
sVdg6eoqg
p177
I1
sVdcb294y
p178
I1
sVd9moaeo
p179
I1
sVdg5yba5
p180
I1
sVdf0t91y
p181
I1
sVd0ktyv1
p182
I1
sVd3lnrun
p183
I1
sVdiikgn4
p184
I1
sVdra0anr
p185
I1
sVd4x28z6
p186
I1
sVdmzoxk1
p187
I1
sVdn4ajfy
p188
I1
sVd2my2ee
p189
I4
sVczacu5t
p190
I1
sVd72vypk
p191
I1
sVdi2rz1w
p192
I1
sVdjk6uxc
p193
I1
sVdn7cc9c
p194
I1
sVdc4b75r
p195
I1
sVdc3r8vb
p196
I1
sVd8rt0mv
p197
I1
sVd2u45a8
p198
I1
sVd3hgw50
p199
I1
sVd3z7ijh
p200
I1
sVd6krq3d
p201
I1
sVd195w2b
p202
I1
sVdrmnt9y
p203
I1
sVdefnq9r
p204
I1
sVd230qty
p205
I1
sVdcu98ym
p206
I1
sVdpw70ue
p207
I1
sVdbxlig5
p208
I1
sVd3bh2s0
p209
I1
sVdrxgsgr
p210
I2
sVczes83j
p211
I1
sVdfurk59
p212
I1
sVd7e7dne
p213
I1
sVdf6heb3
p214
I1
sVdi1xfh7
p215
I1
sVdrrm8ft
p216
I1
sVd2y1qwb
p217
I1
sVd8d8w40
p218
I1
sVdt9gece
p219
I1
sVddi2ktx
p220
I1
sVd80b0na
p221
I1
sVd29k3pu
p222
I1
sVdqjsrk4
p223
I1
sVd025qna
p224
I1
sVdppkvx7
p225
I1
sVdsqpti0
p226
I1
sVdh1x9l2
p227
I1
sVd1s896e
p228
I1
sVd28wv1q
p229
I1
sVdrq1ldz
p230
I1
sVdhdcni4
p231
I1
sVdjhwkep
p232
I1
sVdmlvkx1
p233
I1
sVdqn60ea
p234
I1
sVdhxtkca
p235
I1
sVdposehm
p236
I1
sVdddpv07
p237
I1
sVd3grmcq
p238
I1
sVdeeg3lr
p239
I1
sVdcsql3g
p240
I1
sVdabby3c
p241
I1
sVde2gbmi
p242
I1
sVd5fg6jw
p243
I1
sVd8pvob0
p244
I1
sVdnr4nxk
p245
I1
sVd1j9xf9
p246
I2
sVdcagz8t
p247
I1
sVd0ij8ot
p248
I1
sVdfq430j
p249
I1
sVdmfzdjs
p250
I1
sVd1pj8s2
p251
I1
sVd6jrwa3
p252
I1
sVdpiaip2
p253
I1
sVd2vsrvw
p254
I1
sVdda41ot
p255
I1
sVdcqqabi
p256
I1
sVdd9wp3z
p257
I1
sVdcqrd1a
p258
I1
sVde3nb1t
p259
I1
sVd7v11bq
p260
I1
sVd6r66n6
p261
I1
sVd1tktna
p262
I1
sVde5a1xp
p263
I1
sVdrt1umk
p264
I1
sVdg9i6mm
p265
I1
sVdaet6o5
p266
I3
sVdfif3i1
p267
I1
sVdkz8v39
p268
I2
sVdtc7c61
p269
I1
sVdec95f0
p270
I1
sVdmsnnxg
p271
I1
sVdbssywe
p272
I1
sVd9r361e
p273
I1
sVdhceh8o
p274
I1
sVdhypewb
p275
I1
sVdef7cpu
p276
I1
sVdsmhezk
p277
I1
sVdeeyomg
p278
I1
sVd862zb1
p279
I1
sVda8lgs5
p280
I1
sVczbk6po
p281
I1
sVcz95m3i
p282
I1
sVd84o4br
p283
I1
sVdsnb439
p284
I1
sVdmyc34f
p285
I1
sVd7sc2fz
p286
I1
sVd935zer
p287
I1
sVdcug21r
p288
I1
sVdaqj7xo
p289
I1
sVdbb0ng7
p290
I1
sVd0hxv07
p291
I1
sVd9zesdi
p292
I1
sVdkkkht4
p293
I1
sVd1acqbj
p294
I1
sVd8woa8z
p295
I1
sVdf960hv
p296
I1
sVdf0keab
p297
I1
sVdta42on
p298
I1
sVd7jxjqd
p299
I1
sVdo8sqte
p300
I1
sVd84bkfs
p301
I1
sVd2qipau
p302
I1
sVdcyocts
p303
I3
sVdeeqjv8
p304
I1
sVd4isaci
p305
I1
sVdae7lu8
p306
I1
sVd721amm
p307
I1
sVdbbtz2t
p308
I2
sVdbdeem5
p309
I1
sVd24id8j
p310
I1
sVd69g543
p311
I1
sVd8lz1f2
p312
I1
sVdkevzjo
p313
I1
sVdfto93v
p314
I1
sVdg32ut3
p315
I1
sVdcvwxmb
p316
I1
sVddl6lsb
p317
I1
sVd2irq6v
p318
I1
sVdf7rzru
p319
I3
sVd9b0ibr
p320
I1
sVdhyo8ic
p321
I2
sVdau9c8i
p322
I1
sVd62ncd2
p323
I1
sVd4orjoo
p324
I1
sVdnbemmo
p325
I1
sVd4p40jr
p326
I1
sVd47um1d
p327
I1
sVd81jx0s
p328
I1
sVd0ii7sl
p329
I1
sVcyppi7i
p330
I1
sVdef9uvz
p331
I1
sVd8t7jkc
p332
I1
sVd3a6xqf
p333
I1
sVd9injms
p334
I1
sVd4olhy2
p335
I1
sVczur8ac
p336
I1
sVdtf9sul
p337
I1
sVdfejqoa
p338
I1
sVdaw4yd8
p339
I1
sVdqee8vh
p340
I1
sVd0772s1
p341
I1
sVdmjtvur
p342
I1
sVdbpo2qb
p343
I1
sVdpwd4f0
p344
I1
sVd013ylm
p345
I2
sVd0012uy
p346
I1
sVd5601lt
p347
I1
sVdejb6np
p348
I2
sVd0qmzwy
p349
I1
sVddf2xb8
p350
I1
sVd1l7xwg
p351
I1
sVdgqujso
p352
I2
sVdtaud2q
p353
I1
sVdffqzls
p354
I1
sVdgst58h
p355
I1
sVczk2pyr
p356
I1
sVd95mk56
p357
I1
sVdsu7k7q
p358
I1
sVczdisc4
p359
I1
sVdarqdzh
p360
I1
sVd0ehbad
p361
I1
sVd0tidtr
p362
I1
sVdckuusl
p363
I1
sVdfotyd4
p364
I1
sVdk8vlzd
p365
I1
sVdfjgd8k
p366
I1
sVd9aqjtb
p367
I1
sVd01d2a4
p368
I1
sVd8d7gs1
p369
I1
sVdkmr3c8
p370
I1
sVd2jagdf
p371
I1
sVdh3rczx
p372
I1
sVde1dyzz
p373
I1
sVdjske2k
p374
I1
sVdnfyl8y
p375
I1
sVd6tnp5u
p376
I1
sVd2p3b1c
p377
I1
sVddjty0g
p378
I1
sVdke3ksp
p379
I2
sVd36v4kf
p380
I4
sVdjvhuc3
p381
I2
sVd43hfr5
p382
I1
sVd3try0u
p383
I3
sVczej69f
p384
I1
sVda8mhlt
p385
I1
sVdi1up6q
p386
I1
sVdc9xiai
p387
I1
sVdja7ocf
p388
I1
sVd8j6ruq
p389
I1
sVdn4nrq6
p390
I1
sVdaes52a
p391
I3
sVddj4ixm
p392
I1
sVd7rfyhl
p393
I1
sVdt23ecz
p394
I1
sVdq3kh12
p395
I1
sVd0x84ne
p396
I1
sVd8btkir
p397
I1
sVd82dek9
p398
I3
sVdoxcwq8
p399
I1
sVd7pm5io
p400
I1
sVd1c9wf5
p401
I1
sVd691hfp
p402
I3
sVd9oyxls
p403
I3
sVd0l5oq3
p404
I1
sVd3tvhl3
p405
I3
sVdb5ioxs
p406
I1
sVdhdp1ts
p407
I1
sVd30mkqs
p408
I1
sVdqmw0un
p409
I1
sVd8dgf04
p410
I2
sVd935mkv
p411
I1
sVdb40q1h
p412
I1
sVdbpmam1
p413
I1
sVdh23wpd
p414
I1
sVdsottf6
p415
I1
sVd36bore
p416
I2
sVd85vj89
p417
I1
sVdevqdt9
p418
I1
sVdadt7at
p419
I2
sVd88ja4v
p420
I1
sVd36kht2
p421
I1
sVdb3m72l
p422
I1
sVd04bsf6
p423
I1
sVd2et6wt
p424
I1
sVdr23g74
p425
I1
sVdky7vyi
p426
I1
sVd2detm5
p427
I1
sVd311ydr
p428
I1
sVd0da7is
p429
I1
sVczwpv3h
p430
I1
sVd54iwgj
p431
I1
sVdnx6ua0
p432
I1
sVd8t4ca9
p433
I1
sVdmko5hk
p434
I1
sVd5ayset
p435
I1
sVdefx468
p436
I1
sVd3202e0
p437
I1
sVdh8jitr
p438
I1
sVd27dg1w
p439
I1
sVdatakie
p440
I2
sVd9vouqz
p441
I1
sVd5851pn
p442
I1
sVdti876l
p443
I1
sVdqt0jez
p444
I1
sVdd29a73
p445
I1
sVczb923v
p446
I1
sVd1go6yx
p447
I7
sVde2wyfn
p448
I3
sVdo2uu4a
p449
I1
sVdcv1f5r
p450
I1
sVd4mb18m
p451
I1
sVd9r5s26
p452
I1
sVdq43umj
p453
I1
sVdmkfn9y
p454
I1
sVd3e2du0
p455
I1
sVd4nj8j7
p456
I1
sVd3yj14s
p457
I1
sVd8ysl92
p458
I1
sVczx5gzq
p459
I2
sVd2da2lc
p460
I1
sVd3md99k
p461
I1
sVd9i003w
p462
I1
sVdgnimlf
p463
I1
sVd11kzad
p464
I1
sVdeuezdx
p465
I1
sVd2f60dj
p466
I1
sVdozau2j
p467
I1
sVd0u6gkj
p468
I1
sVd2a914b
p469
I1
sVd9f3mep
p470
I1
sVd3kx1i1
p471
I1
sVdigap36
p472
I1
sVd92673v
p473
I1
sVdix840u
p474
I1
sVd8yj8bn
p475
I1
sVd9vq53o
p476
I1
sVdnez63v
p477
I1
sVd5x6v8s
p478
I1
sVdh3im4b
p479
I1
sVdet7kif
p480
I1
sVdb182pp
p481
I1
sVddujoou
p482
I1
sVd48e4rf
p483
I2
sVdd223hy
p484
I1
sVdb9685e
p485
I1
sVd68lcf4
p486
I1
sVdsm9esl
p487
I1
sVd65cctt
p488
I1
sVddat755
p489
I2
sVdg1ouut
p490
I1
sVd0ykp0m
p491
I1
sVddfjw77
p492
I1
sVdrxym8g
p493
I1
sVd2a9dxz
p494
I1
sVdg6cul7
p495
I1
sVczlxm50
p496
I1
sVdae76ce
p497
I1
sVdoxkf4t
p498
I7
sVdc4yrvc
p499
I1
sVdha6vi8
p500
I1
sVdad1xjx
p501
I2
sVd6284nk
p502
I1
sVd47tbtb
p503
I2
sVd6xtk9x
p504
I3
sVdiprmvd
p505
I1
sVd7qoylu
p506
I1
sVczf6mx6
p507
I1
sVcz1fhze
p508
I1
sVdjxc61y
p509
I2
sVd1dxpus
p510
I1
sVdhe7co8
p511
I1
sVdj9ke9l
p512
I1
sVdat8sh9
p513
I6
sVdmwdwzh
p514
I1
sVd2bejrd
p515
I1
sVcyxa3p0
p516
I1
sVd5hedlb
p517
I1
sVdd6mbqx
p518
I1
sVd6mdhf7
p519
I1
sVd1kvzpb
p520
I1
sVd23aoun
p521
I1
sVd92tp7r
p522
I1
sVd37kd62
p523
I1
sVd297qym
p524
I1
sVd8f53qg
p525
I1
sVd0yyrq2
p526
I1
sVd37nwrb
p527
I1
sVdan8axt
p528
I1
sVcymgynb
p529
I1
sVdiulj1w
p530
I1
sVdb467dm
p531
I1
sVdgwgtkw
p532
I1
sVd1ko51v
p533
I1
sVczewecz
p534
I1
sVdjosw0o
p535
I1
sVcyttzub
p536
I2
sVd05yj1e
p537
I1
sVdmg91tj
p538
I1
sVd8i8n40
p539
I1
sVddivcch
p540
I1
sVdae3ein
p541
I1
sVd21p766
p542
I1
sVdf1jp4w
p543
I1
sVd7sq7m4
p544
I1
sVd8uavw0
p545
I1
sVdcpczpb
p546
I1
sVcyjvl2i
p547
I1
sVdn1pfi4
p548
I2
sVcynd9l2
p549
I1
sVdf8ss18
p550
I1
sVd726e79
p551
I1
sVczja8dr
p552
I3
sVd9ec1bw
p553
I1
sVdc31ezs
p554
I1
sVdftl9ha
p555
I1
sVdgsh0g4
p556
I1
sVde84quh
p557
I1
sVcyux2th
p558
I1
sVdfdt99n
p559
I2
s.