(dp0
Vdjhooqt
p1
I2
sVd512bq4
p2
I1
sVdn65vur
p3
I1
sVdojekas
p4
I2
sVdii20qv
p5
I1
sVdn1gl2t
p6
I1
sVczcd7aq
p7
I1
sVdpxjh8u
p8
I2
sVd5en2hj
p9
I1
sVdcwjj2c
p10
I1
sVd4typ95
p11
I1
sVcz4p8h8
p12
I1
sVdswpa87
p13
I2
sVdt6018r
p14
I1
sVd6qnu3i
p15
I1
sVdi6htp9
p16
I1
sVdglhixe
p17
I1
sVdao54kn
p18
I1
sVdrhoeoc
p19
I1
sVdox6cwy
p20
I1
sVczfztai
p21
I1
sVd6qvdev
p22
I1
sVdeelm3h
p23
I1
sVdhgxhaf
p24
I1
sVd2llwif
p25
I1
sVdb0xhz6
p26
I1
sVd2h2dhq
p27
I1
sVd17idxd
p28
I2
sVdpjcsn8
p29
I1
sVd1h5f2p
p30
I1
sVdjhnr9z
p31
I1
sVdeog6vq
p32
I1
sVczfb749
p33
I1
sVdje3zdq
p34
I1
sVd6hzzwg
p35
I1
sVd0ycxuw
p36
I1
sVd15lvmj
p37
I1
sVcyzfx7o
p38
I2
sVde90eje
p39
I1
sVdgbniru
p40
I1
sVdh79u0c
p41
I1
sVdpn7gl8
p42
I1
sVdoja5mw
p43
I2
sVdmk2eao
p44
I1
sVdndu3zp
p45
I1
sVd74yu4i
p46
I1
sVd8sqv7k
p47
I2
sVcyj9iln
p48
I1
sVdhhku9r
p49
I1
sVdiw9ptp
p50
I1
sVd96rvkm
p51
I2
sVdngcgxo
p52
I1
sVd8iy1f3
p53
I1
sVdbuyyu2
p54
I1
sVd6cpbat
p55
I2
sVdhzsoyp
p56
I1
sVd2owtxf
p57
I1
sVdrnsff2
p58
I1
sVd8j9bk3
p59
I1
sVdfgtrhq
p60
I1
sVdh0vwkp
p61
I2
sVczrh853
p62
I1
sVd24k09e
p63
I1
sVdotkzx7
p64
I1
sVd5cezjg
p65
I1
sVd25h8q7
p66
I1
sVd3ck9ms
p67
I1
sVczzk4sf
p68
I1
sVcz8k2hz
p69
I1
sVd1a3ap3
p70
I1
sVdahfj9o
p71
I1
sVdae5vtk
p72
I1
sVcymjo7s
p73
I1
sVdt1j4hj
p74
I1
sVdgu168r
p75
I1
sVdgk8um8
p76
I1
sVdcq45o8
p77
I1
sVd6c30u1
p78
I1
sVd8tssyv
p79
I1
sVd6b1sim
p80
I1
sVdc7gkf7
p81
I1
sVd8lp0ag
p82
I1
sVdglhpcb
p83
I1
sVdfznj7a
p84
I1
sVdhx6zgz
p85
I1
sVd359dp7
p86
I1
s.