(dp0
Vcyjeu6s
p1
I1
s.(dp0
Vcyql8z1
p1
I1
sVcyjeu6s
p2
I1
s.(dp0
Vcyjeu6s
p1
I1
sVcyss1n9
p2
I1
s.(dp0
Vcyjeu6s
p1
I1
sVcyvazhw
p2
I1
s.(dp0
Vcyjeu6s
p1
I1
sVcywuprt
p2
I1
s.(dp0
Vcyjeu6s
p1
I1
sVcyyhqtn
p2
I1
s.(dp0
Vcyjeu6s
p1
I1
sVcyzz2il
p2
I1
s.(dp0
Vcyjeu6s
p1
I1
sVcz074u7
p2
I1
s.(dp0
Vcyjeu6s
p1
I1
sVcz2oipk
p2
I1
s.(dp0
Vcyjeu6s
p1
I1
sVcz5bm5u
p2
I1
s.(dp0
Vcyjeu6s
p1
I1
sVcz6gblh
p2
I1
s.(dp0
Vcyjeu6s
p1
I1
sVczaxi3i
p2
I1
s.(dp0
Vcyjeu6s
p1
I1
sVczc7uvl
p2
I1
s.(dp0
Vcyjeu6s
p1
I1
sVczfw9x4
p2
I1
s.(dp0
Vcyjeu6s
p1
I1
sVczgn2gs
p2
I1
s.(dp0
Vcyjeu6s
p1
I1
sVczkkl4l
p2
I1
s.(dp0
Vczl3u54
p1
I1
sVcyjeu6s
p2
I1
s.(dp0
Vczl8ohl
p1
I1
sVcyjeu6s
p2
I1
s.(dp0
Vcyjeu6s
p1
I1
sVczlarg8
p2
I1
s.(dp0
Vcyjeu6s
p1
I1
sVczvx9ew
p2
I1
s.(dp0
Vcyjeu6s
p1
I1
sVczxlrkw
p2
I1
s.(dp0
Vcyjeu6s
p1
I1
sVczy1vpx
p2
I1
s.(dp0
Vczys2sh
p1
I1
sVcyjeu6s
p2
I1
s.(dp0
Vczys2sh
p1
I1
sVcyjeu6s
p2
I1
s.(dp0
Vcyjeu6s
p1
I1
sVd01j4hr
p2
I1
s.(dp0
Vcyjeu6s
p1
I1
sVd03kxxh
p2
I1
s.(dp0
Vcyjeu6s
p1
I1
sVd067430
p2
I1
s.(dp0
Vd06yk4t
p1
I1
sVcyjeu6s
p2
I1
s.(dp0
Vcyjeu6s
p1
I1
sVd0b0b8u
p2
I1
s.(dp0
Vcyjeu6s
p1
I1
sVd0b9yxi
p2
I1
s.(dp0
Vcyjeu6s
p1
I1
sVd0b9yxi
p2
I1
s.(dp0
Vcyjeu6s
p1
I1
sVd0dd7c5
p2
I1
s.(dp0
Vcyjeu6s
p1
I1
sVd0ix18w
p2
I1
s.(dp0
Vcyjeu6s
p1
I1
sVd0mmrt4
p2
I1
s.(dp0
Vcyjeu6s
p1
I1
sVd0nv70c
p2
I1
s.(dp0
Vcyjeu6s
p1
I1
sVd0uc9hl
p2
I1
s.(dp0
Vcyjeu6s
p1
I1
sVd14oyuv
p2
I1
s.(dp0
Vd150n9p
p1
I1
sVcyjeu6s
p2
I1
s.(dp0
Vcyjeu6s
p1
I1
sVd15wgor
p2
I1
s.(dp0
Vcyjeu6s
p1
I1
sVd1izcvy
p2
I1
s.(dp0
Vcyjeu6s
p1
I1
sVd1nqqdk
p2
I1
s.(dp0
Vcyjeu6s
p1
I1
sVd1ohchr
p2
I1
s.(dp0
Vcyjeu6s
p1
I1
sVd1pqoph
p2
I1
s.(dp0
Vcyjeu6s
p1
I1
sVd1pqx0u
p2
I1
s.(dp0
Vcyjeu6s
p1
I1
sVd1pqx0u
p2
I1
s.(dp0
Vcyjeu6s
p1
I1
sVd1qvl5d
p2
I1
s.(dp0
Vd22uydd
p1
I1
sVcyjeu6s
p2
I1
s.(dp0
Vcyjeu6s
p1
I1
sVd2bjfc0
p2
I1
s.(dp0
Vcyjeu6s
p1
I1
sVd2fskiu
p2
I1
s.(dp0
Vcyjeu6s
p1
I1
sVd2nbd9b
p2
I1
s.(dp0
Vd2ru6gj
p1
I1
sVcyjeu6s
p2
I1
s.(dp0
Vcyjeu6s
p1
I1
sVd2s536u
p2
I1
s.(dp0
Vcyjeu6s
p1
I1
sVd2uwas0
p2
I1
s.(dp0
Vcyjeu6s
p1
I1
sVd2y0d3q
p2
I1
s.(dp0
Vcyjeu6s
p1
I1
sVd35mcu8
p2
I1
s.(dp0
Vcyjeu6s
p1
I1
sVd3abu48
p2
I1
s.(dp0
Vcyjeu6s
p1
I1
sVd3aewgz
p2
I1
s.(dp0
Vcyjeu6s
p1
I1
sVd3aeyw0
p2
I1
s.(dp0
Vcyjeu6s
p1
I1
sVd3aeyw0
p2
I1
s.(dp0
Vcyjeu6s
p1
I1
sVd3agc9h
p2
I1
s.(dp0
Vcyjeu6s
p1
I1
sVd3agc9h
p2
I1
s.(dp0
Vcyjeu6s
p1
I1
sVd3akeqo
p2
I1
s.(dp0
Vcyjeu6s
p1
I1
sVd3amomn
p2
I1
s.(dp0
Vcyjeu6s
p1
I1
sVd3aoy54
p2
I1
s.(dp0
Vcyjeu6s
p1
I1
sVd3aoy54
p2
I1
s.(dp0
Vcyjeu6s
p1
I1
sVd3apmxa
p2
I1
s.(dp0
Vcyjeu6s
p1
I1
sVd3cre35
p2
I1
s.(dp0
Vd3heslw
p1
I1
sVcyjeu6s
p2
I1
s.(dp0
Vcyjeu6s
p1
I1
sVd3njzhf
p2
I1
s.(dp0
Vcyjeu6s
p1
I1
sVd3nvk03
p2
I1
s.(dp0
Vcyjeu6s
p1
I1
sVd3rwh90
p2
I1
s.(dp0
Vd3sn1gf
p1
I1
sVcyjeu6s
p2
I1
s.(dp0
Vcyjeu6s
p1
I1
sVd3sv30w
p2
I1
s.(dp0
Vcyjeu6s
p1
I1
sVd3xe11v
p2
I1
s.(dp0
Vcyjeu6s
p1
I1
sVd3xy8ep
p2
I1
s.(dp0
Vcyjeu6s
p1
I1
sVd46qfvr
p2
I1
s.(dp0
Vcyjeu6s
p1
I1
sVd46rh6f
p2
I1
s.(dp0
Vcyjeu6s
p1
I1
sVd4e3rfw
p2
I1
s.(dp0
Vd4h4mfh
p1
I1
sVcyjeu6s
p2
I1
s.(dp0
Vcyjeu6s
p1
I1
sVd4k91y6
p2
I1
s.(dp0
Vcyjeu6s
p1
I1
sVd4me4u3
p2
I1
s.(dp0
Vcyjeu6s
p1
I1
sVd4mnb9k
p2
I1
s.(dp0
Vcyjeu6s
p1
I1
sVd4q87n4
p2
I1
s.(dp0
Vd4x5v8w
p1
I1
sVcyjeu6s
p2
I1
s.(dp0
Vd4x5v8w
p1
I1
sVcyjeu6s
p2
I1
s.(dp0
Vd4x5v8w
p1
I1
sVcyjeu6s
p2
I1
s.(dp0
Vd4x5v8w
p1
I1
sVcyjeu6s
p2
I1
s.(dp0
Vd4x5v8w
p1
I1
sVcyjeu6s
p2
I1
s.(dp0
Vd4x5v8w
p1
I1
sVcyjeu6s
p2
I1
s.(dp0
Vd4x5v8w
p1
I1
sVcyjeu6s
p2
I1
s.(dp0
Vd4x5v8w
p1
I1
sVcyjeu6s
p2
I1
s.(dp0
Vcyjeu6s
p1
I1
sVd56vcv1
p2
I1
s.(dp0
Vcyjeu6s
p1
I1
sVd58vvzq
p2
I1
s.(dp0
Vcyjeu6s
p1
I1
sVd5e7ncd
p2
I1
s.(dp0
Vcyjeu6s
p1
I1
sVd5h4ceb
p2
I1
s.(dp0
Vcyjeu6s
p1
I1
sVd5mhvwn
p2
I1
s.(dp0
Vcyjeu6s
p1
I1
sVd5mpxco
p2
I1
s.(dp0
Vcyjeu6s
p1
I1
sVd5q63fx
p2
I1
s.(dp0
Vcyjeu6s
p1
I1
sVd5wwm67
p2
I1
s.(dp0
Vcyjeu6s
p1
I1
sVd622vw4
p2
I1
s.(dp0
Vcyjeu6s
p1
I1
sVd67qj5k
p2
I1
s.(dp0
Vd68u0hz
p1
I1
sVcyjeu6s
p2
I1
s.(dp0
Vcyjeu6s
p1
I1
sVd69707b
p2
I1
s.(dp0
Vcyjeu6s
p1
I1
sVd69hh90
p2
I1
s.(dp0
Vcyjeu6s
p1
I1
sVd6ffm75
p2
I1
s.(dp0
Vd6heh3z
p1
I1
sVcyjeu6s
p2
I1
s.(dp0
Vd6igyno
p1
I1
sVcyjeu6s
p2
I1
s.(dp0
Vd6igyno
p1
I1
sVcyjeu6s
p2
I1
s.(dp0
Vcy(dp0
Vdtjg30o
p1
I1
sVcyjeu6s
p2
I1
s.