(dp0
Vd51l9hx
p1
I1
sVdjcu9sq
p2
I1
sVdhpvnly
p3
I1
sVdaqp1r6
p4
I1
sVdi7qgu2
p5
I1
sVd2iu1au
p6
I1
sVdb9nrgm
p7
I1
sVdjk5ozp
p8
I2
sVd2864xw
p9
I1
sVdien2ri
p10
I1
sVcz68p94
p11
I1
sVd9914i5
p12
I1
sVcyy96t9
p13
I1
sVdcabmkq
p14
I1
sVd3g86uj
p15
I2
sVdndbc92
p16
I1
sVd5k5ggr
p17
I1
sVdt7g4a5
p18
I1
sVdeldmye
p19
I1
sVdihiuve
p20
I1
sVd7sxife
p21
I1
s.