(dp0
Vcyxa916
p1
I1
s.(dp0
Vcyxa916
p1
I2
s.(dp0
Vcz6mymm
p1
I1
sVcyxa916
p2
I1
s.(dp0
Vcyxa916
p1
I1
sVd0cirp4
p2
I1
s.(dp0
Vcyxa916
p1
I1
sVd0cirp4
p2
I1
s.(dp0
Vd0ic9yo
p1
I1
sVcyxa916
p2
I1
s.(dp0
Vcyxa916
p1
I1
sVd0mupuy
p2
I1
s.(dp0
Vd258jyl
p1
I1
sVcyxa916
p2
I1
s.(dp0
Vd2dlhf7
p1
I1
sVcyxa916
p2
I1
s.(dp0
Vd3jod16
p1
I1
sVcyxa916
p2
I1
s.(dp0
Vd3na71g
p1
I1
sVcyxa916
p2
I1
s.(dp0
Vcyxa916
p1
I1
sVd40qt2w
p2
I1
s.(dp0
Vd4ku1sg
p1
I1
sVcyxa916
p2
I1
s.(dp0
Vd4qsxua
p1
I1
sVcyxa916
p2
I1
s.(dp0
Vd4y7iuc
p1
I1
sVcyxa916
p2
I1
s.(dp0
Vd57x4ey
p1
I1
sVcyxa916
p2
I1
s.(dp0
Vcyxa916
p1
I1
sVd58vvzq
p2
I1
s.(dp0
Vcyxa916
p1
I1
sVd58vvzq
p2
I1
s.(dp0
Vd5mj0e2
p1
I1
sVcyxa916
p2
I1
s.(dp0
Vd6rclam
p1
I1
sVcyxa916
p2
I1
s.(dp0
Vcyxa916
p1
I1
sVd717sfu
p2
I1
s.(dp0
Vd7jzkrz
p1
I1
sVcyxa916
p2
I1
s.(dp0
Vd8ce9os
p1
I1
sVcyxa916
p2
I1
s.(dp0
Vcyxa916
p1
I1
sVd8exu7i
p2
I1
s.(dp0
Vd8td4t1
p1
I1
sVcyxa916
p2
I1
s.(dp0
Vcyxa916
p1
I1
sVd8z89lz
p2
I1
s.(dp0
Vcyxa916
p1
I1
sVd8z90y4
p2
I1
s.(dp0
Vd9d4l0e
p1
I1
sVcyxa916
p2
I1
s.(dp0
Vcyxa916
p1
I1
sVd9gyyqu
p2
I1
s.(dp0
Vcyxa916
p1
I1
sVdajyj2d
p2
I1
s.(dp0
Vdat5d1v
p1
I1
sVcyxa916
p2
I1
s.(dp0
Vdatevy0
p1
I1
sVcyxa916
p2
I1
s.(dp0
Vcyxa916
p1
I1
sVdb27vtw
p2
I1
s.(dp0
Vdb5pgxf
p1
I1
sVcyxa916
p2
I1
s.(dp0
Vdbbzkuk
p1
I1
sVcyxa916
p2
I1
s.(dp0
Vdc9vvb8
p1
I1
sVcyxa916
p2
I1
s.(dp0
Vdcfre83
p1
I1
sVcyxa916
p2
I1
s.(dp0
Vcyxa916
p1
I1
sVdcxga8s
p2
I1
s.(dp0
Vcyxa916
p1
I1
sVdd3snbn
p2
I1
s.(dp0
Vcyxa916
p1
I1
sVddv0v9r
p2
I1
s.(dp0
Vcyxa916
p1
I1
sVdeig3pj
p2
I1
s.(dp0
Vcyxa916
p1
I1
sVden725c
p2
I1
s.(dp0
Vdeoau9x
p1
I1
sVcyxa916
p2
I1
s.(dp0
Vdeubdx9
p1
I1
sVcyxa916
p2
I1
s.(dp0
Vcyxa916
p1
I1
sVdexa1c0
p2
I1
s.(dp0
Vdfa472i
p1
I1
sVcyxa916
p2
I1
s.(dp0
Vcyxa916
p1
I1
sVdfaa9nq
p2
I1
s.(dp0
Vcyxa916
p1
I1
sVdfaa9nq
p2
I1
s.(dp0
Vdfjxngu
p1
I1
sVcyxa916
p2
I1
s.(dp0
Vdfpgc09
p1
I1
sVcyxa916
p2
I1
s.(dp0
Vcyxa916
p1
I1
sVdfz7l36
p2
I1
s.(dp0
Vdg8ycl6
p1
I1
sVcyxa916
p2
I1
s.(dp0
Vdgdpczs
p1
I1
sVcyxa916
p2
I1
s.(dp0
Vdgfavlu
p1
I1
sVcyxa916
p2
I1
s.(dp0
Vcyxa916
p1
I1
sVdggkp83
p2
I1
s.(dp0
Vdgst2s0
p1
I1
sVcyxa916
p2
I1
s.(dp0
Vcyxa916
p1
I1
sVdhqx51k
p2
I1
s.(dp0
Vcyxa916
p1
I1
sVdhxdkj1
p2
I1
s.(dp0
Vcyxa916
p1
I1
sVdi4ux4p
p2
I1
s.(dp0
Vdi8n3hf
p1
I1
sVcyxa916
p2
I1
s.(dp0
Vdijhkmy
p1
I1
sVcyxa916
p2
I1
s.(dp0
Vdj2470p
p1
I1
sVcyxa916
p2
I1
s.(dp0
Vcyxa916
p1
I1
sVdjmkdzb
p2
I1
s.(dp0
Vdjxfhbq
p1
I1
sVcyxa916
p2
I1
s.(dp0
Vdjxfhbq
p1
I1
sVcyxa916
p2
I1
s.(dp0
Vdnaex6l
p1
I1
sVcyxa916
p2
I1
s.(dp0
Vcyxa916
p1
I1
sVdnperov
p2
I1
s.(dp0
Vdo432op
p1
I1
sVcyxa916
p2
I1
s.(dp0
Vcyxa916
p1
I1
sVdq3j2y1
p2
I1
s.(dp0
Vdqtp5h1
p1
I1
sVcyxa916
p2
I1
s.(dp0
Vdr0tjnu
p1
I1
sVcyxa916
p2
I1
s.(dp0
Vdratm9x
p1
I1
sVcyxa916
p2
I1
s.(dp0
Vdrwbk1j
p1
I1
sVcyxa916
p2
I1
s.(dp0
Vdsnd648
p1
I1
sVcyxa916
p2
I1
s.(dp0
Vdtinth5
p1
I1
sVcyxa916
p2
I1
s.