(dp0
Vcyl2h2d
p1
I1
s.(dp0
Vczl5l6h
p1
I1
sVcyl2h2d
p2
I1
s.(dp0
Vczl5l6h
p1
I1
sVcyl2h2d
p2
I1
s.(dp0
Vczx1zq6
p1
I1
sVcyl2h2d
p2
I1
s.(dp0
Vczzrv8y
p1
I1
sVcyl2h2d
p2
I1
s.(dp0
Vd03gqye
p1
I1
sVcyl2h2d
p2
I1
s.(dp0
Vd0jxv5g
p1
I1
sVcyl2h2d
p2
I1
s.(dp0
Vd2lo4tc
p1
I1
sVcyl2h2d
p2
I1
s.(dp0
Vd2o5g4c
p1
I1
sVcyl2h2d
p2
I1
s.(dp0
Vd2tl8zf
p1
I1
sVcyl2h2d
p2
I1
s.(dp0
Vd3h0u4b
p1
I1
sVcyl2h2d
p2
I1
s.(dp0
Vd3qkb54
p1
I1
sVcyl2h2d
p2
I1
s.(dp0
Vd3qkb54
p1
I1
sVcyl2h2d
p2
I1
s.(dp0
Vd5awsvw
p1
I1
sVcyl2h2d
p2
I1
s.(dp0
Vd6u8hli
p1
I1
sVcyl2h2d
p2
I1
s.(dp0
Vd8g5638
p1
I1
sVcyl2h2d
p2
I1
s.(dp0
Vda0lebz
p1
I1
sVcyl2h2d
p2
I1
s.(dp0
Vdcnq0ye
p1
I1
sVcyl2h2d
p2
I1
s.(dp0
Vdelwhfh
p1
I1
sVcyl2h2d
p2
I1
s.(dp0
Vdhz1sxn
p1
I1
sVcyl2h2d
p2
I1
s.(dp0
Vdhz32qo
p1
I1
sVcyl2h2d
p2
I1
s.(dp0
Vdmxv0ku
p1
I1
sVcyl2h2d
p2
I1
s.(dp0
Vdmxv0ku
p1
I1
sVcyl2h2d
p2
I1
s.(dp0
Vdmxv0ku
p1
I1
sVcyl2h2d
p2
I1
s.(dp0
Vdmxv0ku
p1
I1
sVcyl2h2d
p2
I1
s.(dp0
Vdmxv0ku
p1
I1
sVcyl2h2d
p2
I1
s.(dp0
Vdpc7yr3
p1
I1
sVcyl2h2d
p2
I1
s.(dp0
Vdpxjh8u
p1
I1
sVcyl2h2d
p2
I1
s.