(dp0
Vdfzwpvy
p1
I1
sVd8c86fc
p2
I1
sVcyojnxi
p3
I1
sVd2bd0m3
p4
I1
sVdk0pfc9
p5
I1
sVdnqfpvz
p6
I1
sVdgc9zf2
p7
I1
sVdaxwfww
p8
I1
sVd6o4sdz
p9
I1
sVdetr1ru
p10
I1
sVdju8nms
p11
I1
sVdmx37jq
p12
I1
sVd0qavns
p13
I1
sVdcuw81r
p14
I1
sVdqdjh8z
p15
I1
sVd9za7sv
p16
I1
sVd76cutj
p17
I1
s.