(dp0
Vdsn2by7
p1
I1
sVdfksv07
p2
I1
sVdrxmxwd
p3
I1
sVdnhk2b6
p4
I1
sVdioy7d9
p5
I1
sVczoelq8
p6
I1
sVds2mpho
p7
I1
sVd1zlcg4
p8
I1
sVdc8ummq
p9
I1
sVd897kfy
p10
I1
sVd1xgho7
p11
I1
sVdfn2sgw
p12
I1
sVdp7gxml
p13
I1
sVdrfr5sn
p14
I1
sVd6s78on
p15
I2
sVdfk1ipq
p16
I1
sVcysb2iw
p17
I1
sVdhnqrhb
p18
I2
sVd5jkun9
p19
I1
sVdtc03kl
p20
I1
sVdb58dt3
p21
I1
sVdkhkczh
p22
I1
sVd0t214t
p23
I1
sVd3k558n
p24
I1
sVdgmtm3r
p25
I1
sVd2oucha
p26
I1
sVczs92l0
p27
I1
sVczwhzss
p28
I1
sVd354g91
p29
I2
sVd86klxu
p30
I2
sVda80zhu
p31
I1
sVd367m1b
p32
I1
sVdkx5ro3
p33
I2
sVdnujk8q
p34
I1
sVd1xagi8
p35
I1
sVd4x4yjy
p36
I1
sVd5gme2q
p37
I1
sVd0qu3je
p38
I1
sVdqldarn
p39
I1
sVdt5zfu0
p40
I1
sVczcibzm
p41
I1
sVczedbmk
p42
I1
sVddcbt3e
p43
I1
sVd9v36v0
p44
I1
sVd2q6igj
p45
I1
sVdbeu165
p46
I2
sVdo5s5xf
p47
I1
sVcztcl70
p48
I1
sVd8ec3gf
p49
I1
sVd0nvk16
p50
I1
sVd1rdoo5
p51
I1
sVczasy7t
p52
I1
sVdix4024
p53
I1
sVd5h9vu1
p54
I1
sVddztg0o
p55
I1
sVddd5rem
p56
I1
sVdr404h8
p57
I1
sVd7v0kyv
p58
I1
sVd7ygs4r
p59
I1
sVdh1wr65
p60
I1
sVdsry4s2
p61
I2
sVdflxc01
p62
I2
sVd3vg3dm
p63
I1
sVda58t4l
p64
I1
sVd2qmeew
p65
I1
sVdj74sqy
p66
I1
sVdeur8dp
p67
I1
sVczxjri7
p68
I3
sVd16xm39
p69
I1
sVdbv6m77
p70
I1
sVd850odq
p71
I1
sVdhn87ik
p72
I1
sVd22mcsr
p73
I5
sVd1o8wi0
p74
I1
sVdd0kyyh
p75
I2
sVcyknfox
p76
I1
sVczibmx6
p77
I1
sVd43eg3h
p78
I1
sVd0xwxpr
p79
I1
sVdrr51j0
p80
I1
sVdihpjb4
p81
I1
sVdi2kc1b
p82
I1
sVdccahm9
p83
I1
sVdgzc4mx
p84
I1
sVd0xk5ql
p85
I1
sVdccq2n4
p86
I1
sVd17s7q1
p87
I1
sVdsni82s
p88
I1
sVd8nxcs8
p89
I1
sVdjekzqk
p90
I1
sVcyv28cr
p91
I1
sVdgxqqam
p92
I1
sVczauxsf
p93
I2
sVdt7cbqr
p94
I1
sVdaeavpk
p95
I1
sVdqj91y1
p96
I1
sVd1owycy
p97
I1
sVdjno2dn
p98
I1
sVdanbg1n
p99
I1
sVd4zcr9e
p100
I1
sVdezep2b
p101
I1
sVdawwhqu
p102
I1
sVddhnq9m
p103
I1
sVdfkeorp
p104
I1
sVd31fyqf
p105
I1
sVdptjfkf
p106
I2
sVczhocsy
p107
I1
sVd9rj80l
p108
I1
sVd4ppmmt
p109
I1
sVd055fke
p110
I1
sVdrkt0h5
p111
I1
sVdftc15i
p112
I1
sVdhn0zbe
p113
I1
sVd7tpxga
p114
I1
sVdi6661d
p115
I1
sVcyzwv2z
p116
I1
sVdbr3ioq
p117
I1
sVd09hrl2
p118
I1
sVd93da23
p119
I1
sVdc82b8j
p120
I1
sVdjtcqed
p121
I1
sVd967n1g
p122
I1
sVdbkw50h
p123
I1
sVd0h8afl
p124
I1
sVdb6uzk5
p125
I1
sVd08gb4l
p126
I1
sVd3nq95p
p127
I2
sVd8tunv8
p128
I1
sVd3w5xsp
p129
I1
sVd0pur1k
p130
I1
sVdcwxktl
p131
I1
sVdi7bv14
p132
I1
sVd23t0bq
p133
I1
sVd3719tu
p134
I1
sVdbju45p
p135
I1
sVd82pc4s
p136
I3
sVczm23gm
p137
I1
sVda71p7b
p138
I1
sVd0cnoi7
p139
I1
sVd5r6w0t
p140
I1
sVd2oh7dt
p141
I2
sVd03m7pi
p142
I1
sVd56ecjr
p143
I1
sVcz0jb0e
p144
I1
sVcz12xqb
p145
I1
sVd2o0te8
p146
I2
sVcz4ute6
p147
I1
sVd8gpdp6
p148
I1
sVdkifsn4
p149
I1
sVdesmjxi
p150
I1
sVczzf8o0
p151
I2
sVd1mm4ma
p152
I1
sVdf6t9yg
p153
I1
sVdctpr8z
p154
I1
sVdirgzuv
p155
I1
sVdbhi7rg
p156
I1
sVcz22325
p157
I1
sVd9379uo
p158
I1
sVdi180zt
p159
I1
sVcyqk9xu
p160
I1
sVdgyhnxf
p161
I1
sVdof6lrd
p162
I2
sVd6v66bw
p163
I1
sVd3p9qoc
p164
I1
sVdqllx58
p165
I1
sVdibobgd
p166
I1
sVdggmp3a
p167
I1
sVd42tbcn
p168
I1
sVdeswk1s
p169
I1
sVdokthpf
p170
I1
sVd0nvq1h
p171
I1
sVdn4aqgt
p172
I1
sVdfyi7g6
p173
I1
sVd080d59
p174
I1
sVdcbp4nx
p175
I1
sVcypeo54
p176
I1
sVd0ymjea
p177
I1
sVcz6mhbg
p178
I1
sVd20xitz
p179
I1
sVda1pvz2
p180
I1
sVdgh6ljx
p181
I1
sVdbgzlr1
p182
I1
sVd817iw0
p183
I2
sVd89rduo
p184
I1
sVd134exw
p185
I1
sVdfsyc18
p186
I1
sVd4l6c1w
p187
I1
sVdo0l2u6
p188
I1
sVd81syoy
p189
I1
sVcz4p8h8
p190
I1
sVd6w259m
p191
I1
sVd1sbrxr
p192
I2
sVczuc0hu
p193
I1
sVdbmeqkr
p194
I1
sVdtickrk
p195
I1
sVdalucq3
p196
I1
sVdd1x21t
p197
I1
sVdg7gmk4
p198
I1
sVczk2ajz
p199
I1
sVd5z9vld
p200
I2
sVde6lfow
p201
I1
sVd684c1u
p202
I1
sVdpa5xcx
p203
I1
sVdawcyw5
p204
I1
sVdd8nyvg
p205
I1
sVdcoqr49
p206
I1
sVdrm4vxr
p207
I1
sVczztp78
p208
I1
sVdasrycf
p209
I1
sVd0dj4kt
p210
I1
sVdbf43q5
p211
I1
sVddt2c5h
p212
I1
sVd0h6ev8
p213
I1
sVds4y8mg
p214
I1
sVd1eluza
p215
I1
sVdh4rjf3
p216
I1
sVczdz31k
p217
I3
sVd68rehr
p218
I1
sVd4u12jm
p219
I1
sVdmyk4ai
p220
I1
sVd6tz3pj
p221
I1
sVd0vb5uf
p222
I1
sVdec4edh
p223
I3
sVdcijpvv
p224
I1
sVd0i12mj
p225
I1
sVd2pedv1
p226
I1
sVd3ea69s
p227
I1
sVdjx8qdq
p228
I1
sVd4a4rwm
p229
I1
sVczbzydt
p230
I1
sVdmj3059
p231
I1
sVdgewv5y
p232
I1
sVdok4lt6
p233
I1
sVdilpxht
p234
I1
sVdr96e51
p235
I1
sVdqrhqeg
p236
I1
sVd6ccoz8
p237
I1
sVd6alsxw
p238
I1
sVd2s4yuu
p239
I1
sVd96sw2p
p240
I1
sVdj1bqk8
p241
I6
sVdnx7xpp
p242
I1
sVdcckx0u
p243
I1
sVdpsb9mr
p244
I1
sVdazxh0m
p245
I2
sVdnm5wuc
p246
I1
sVd5l3t1q
p247
I1
sVdo7pf1q
p248
I1
sVd5ilbdv
p249
I1
sVdomdkqx
p250
I1
sVdseyn2e
p251
I1
sVdco88yt
p252
I1
sVd0rf7ls
p253
I1
sVdj8e3vc
p254
I1
sVdj9vizs
p255
I1
sVd1mtxm0
p256
I1
sVdjz9wcf
p257
I1
sVd82imr4
p258
I1
sVdc78s46
p259
I1
sVdkc38zq
p260
I1
sVd0q4koc
p261
I2
sVcz9217h
p262
I1
sVczmsqg0
p263
I1
sVdf7daw5
p264
I1
sVdf0hay5
p265
I1
sVdkcb0hf
p266
I1
sVd0ij5d8
p267
I1
sVdfgu1ql
p268
I1
sVcyze5q5
p269
I2
sVd85nqwx
p270
I1
sVdkschmy
p271
I1
sVdrq1ldz
p272
I1
sVd3vxx5p
p273
I2
sVdie1hyq
p274
I1
sVcyosb6x
p275
I1
sVdhd4p8k
p276
I1
sVd7ssa4o
p277
I2
sVdfon55z
p278
I2
sVd2v1yvl
p279
I1
sVd2838xi
p280
I1
sVdix9uju
p281
I1
sVd3vtxny
p282
I1
sVd93fzpz
p283
I1
sVd32xxvt
p284
I1
sVd7lvyjv
p285
I1
sVddnkcea
p286
I1
sVde61djm
p287
I1
sVd0hhfku
p288
I2
sVdbrivgp
p289
I1
sVd6nncmo
p290
I1
sVdadrrjy
p291
I1
sVdtg4pte
p292
I1
sVdizc4i2
p293
I2
sVdo9qf9v
p294
I1
sVcz4t3wh
p295
I3
sVdihcml2
p296
I1
sVdmo25u6
p297
I1
sVd7yykcu
p298
I1
sVd44ujfw
p299
I2
sVddahlgt
p300
I1
sVdftxlmp
p301
I1
sVdhtkcfz
p302
I2
sVcymckxg
p303
I1
sVdd9wp3z
p304
I1
sVd95mxq1
p305
I1
sVdmooxz6
p306
I1
sVdg2p0f7
p307
I1
sVd2rizet
p308
I1
sVd0c34wr
p309
I1
sVd8i9jxz
p310
I1
sVd3uglrj
p311
I1
sVdmt0yka
p312
I1
sVdah29xk
p313
I2
sVdr0r033
p314
I1
sVd3w5z4u
p315
I1
sVczv2ri5
p316
I1
sVd3pfetj
p317
I2
sVdcvb2pt
p318
I1
sVdi8j87w
p319
I1
sVdsi8lpi
p320
I1
sVdft9mo9
p321
I1
sVdc4lcs8
p322
I1
sVdc5llkw
p323
I1
sVd5wp6l2
p324
I1
sVdahjmjy
p325
I1
sVdmno5b3
p326
I1
sVd3ekqeu
p327
I1
sVdnso2cc
p328
I1
sVdqryj55
p329
I1
sVd5fzp28
p330
I1
sVdaaylmu
p331
I1
sVdjyso5x
p332
I1
sVd055mjc
p333
I1
sVd3es5at
p334
I1
sVdju0wdt
p335
I1
sVcyolz4p
p336
I2
sVd48htzo
p337
I2
sVd0dsyl4
p338
I1
sVdafbas0
p339
I1
sVdgcubmf
p340
I1
sVdpy484h
p341
I1
sVdivgllk
p342
I1
sVczs1use
p343
I1
sVdea67cj
p344
I1
sVdih2ux3
p345
I2
sVdjxknex
p346
I1
sVdixhdgr
p347
I1
sVdqx2rfc
p348
I1
sVd1uijql
p349
I1
sVd6s609j
p350
I4
sVdan3ppp
p351
I1
sVdqqbi6b
p352
I1
sVd7bfj8c
p353
I1
sVd8bi40u
p354
I1
sVd9bpgyv
p355
I2
sVd2zfe5h
p356
I1
sVd534rkm
p357
I1
sVdfk39vo
p358
I1
sVdba4o9p
p359
I3
sVd6g4l6u
p360
I1
sVd9ixa2k
p361
I1
sVdruuye1
p362
I1
sVdawpw8k
p363
I1
sVdfk53lq
p364
I1
sVdja3ocf
p365
I1
sVd886vow
p366
I1
sVd2cd5au
p367
I2
sVdhr2si4
p368
I1
sVdf98mzg
p369
I1
sVczgt0bs
p370
I1
sVd2dxrfx
p371
I1
sVdavq9qq
p372
I1
sVda3r0n4
p373
I1
sVd74f0ml
p374
I1
sVdgx2c11
p375
I1
sVdmjarpc
p376
I1
sVdfka7nw
p377
I1
sVdpjcsn8
p378
I1
sVd50gubb
p379
I2
sVddc4kns
p380
I1
sVdnttsuj
p381
I1
sVd7lseyu
p382
I1
sVd82u9lq
p383
I1
sVd5avemu
p384
I1
sVd2advhc
p385
I2
sVd9mt1sp
p386
I2
sVd51s1yb
p387
I1
sVdi09c2v
p388
I1
sVd2jlrzq
p389
I1
sVd172171
p390
I1
sVdbtwgk2
p391
I1
sVdbwst39
p392
I1
sVdfah8yh
p393
I1
sVd55m6z0
p394
I1
sVd0z8x5e
p395
I1
sVcz28r6p
p396
I1
sVdfgy712
p397
I1
sVdb2g68m
p398
I1
sVcyp5acq
p399
I1
sVd5u3bi1
p400
I1
sVdg0z38v
p401
I2
sVdgv0vsl
p402
I1
sVcyxwcyk
p403
I1
sVczatlf7
p404
I1
sVdd1o3kk
p405
I1
sVde3acdl
p406
I1
sVd91xxpe
p407
I1
sVdb1c1f1
p408
I1
sVde4f09k
p409
I1
sVd4q4skw
p410
I1
sVdqkaygv
p411
I1
sVd8tlhgm
p412
I1
sVdjb7ls2
p413
I1
sVdsjhkdf
p414
I1
sVd5cpcpf
p415
I1
sVd8wdpux
p416
I1
sVddfo2ys
p417
I2
sVdo44886
p418
I1
sVdjivi5u
p419
I1
sVdkgu9rt
p420
I3
sVd2y6xlw
p421
I1
sVdmzg571
p422
I1
sVdepvj9d
p423
I1
sVd0jdxji
p424
I2
sVd97tde6
p425
I2
sVd7fohan
p426
I1
sVdedvb3k
p427
I1
sVd7td83d
p428
I1
sVdjllniv
p429
I1
sVd71wu0a
p430
I2
sVdcf0k3q
p431
I1
sVdfkcco0
p432
I1
sVdsupdnh
p433
I1
sVdcsyb4v
p434
I1
sVcz7noyx
p435
I1
sVd2doqe9
p436
I15
sVdnnt4ab
p437
I1
sVdbmiqw8
p438
I1
sVd02j64q
p439
I1
sVdmoasio
p440
I1
sVczpl7ol
p441
I1
sVd79a7ui
p442
I1
sVdrkdmli
p443
I1
sVd7k6puc
p444
I1
sVd5vro87
p445
I1
sVcys6fpd
p446
I1
sVczl8sc1
p447
I3
sVd0v93qq
p448
I1
sVdd52ap5
p449
I1
sVdgtyaul
p450
I1
sVd64t10p
p451
I1
sVdi9nz84
p452
I1
sVdi7cgj7
p453
I1
sVd20da70
p454
I1
sVd2enn8m
p455
I1
sVdptzgvk
p456
I1
sVdevlee5
p457
I1
sVcykjrdp
p458
I1
sVd7xp2fh
p459
I1
sVdbsfb4e
p460
I3
sVdftowg2
p461
I1
sVdd6yobr
p462
I1
sVdrzuor6
p463
I1
sVd1ym7vh
p464
I1
sVczayk8u
p465
I1
sVdinb3nv
p466
I1
sVd8u6h6s
p467
I1
sVd2dlyzm
p468
I2
sVddfl23a
p469
I1
sVd7rb39y
p470
I1
sVd2gwq0y
p471
I1
sVdi9ejpx
p472
I1
sVdokvux8
p473
I1
sVdeuydyv
p474
I1
sVdb3d4su
p475
I1
sVdnrhire
p476
I1
sVdptdul2
p477
I1
sVdmvk87t
p478
I1
sVd1zhmh8
p479
I1
sVdinfvko
p480
I1
sVde9i21d
p481
I1
sVd0bxjtb
p482
I1
sVd0ansfg
p483
I3
sVczki5yw
p484
I6
sVd7aedt0
p485
I1
sVd07uyck
p486
I1
sVdhmyp4j
p487
I1
sVdhay75y
p488
I1
sVdkc16d3
p489
I1
sVdd8mpag
p490
I1
sVd1rrx2b
p491
I1
sVdaakf8x
p492
I1
sVdmgqtts
p493
I1
sVd1gyknx
p494
I1
sVdatpxa4
p495
I1
sVd0geyy2
p496
I1
sVdowdlx9
p497
I1
sVdngw6mo
p498
I1
sVddcly8c
p499
I3
sVd75eo1t
p500
I1
sVd2chsex
p501
I1
sVdhrxid0
p502
I1
sVdcugqsl
p503
I2
sVd57ugaa
p504
I1
sVcyu7rjo
p505
I1
sVd5qccdx
p506
I1
sVdczoull
p507
I1
sVd2hukjt
p508
I1
sVd0v3fa5
p509
I1
sVd0axkrr
p510
I1
sVdsre5li
p511
I1
sVdo0y3sg
p512
I1
sVd93dvo6
p513
I1
sVdkxlbtq
p514
I2
sVdam70z4
p515
I2
sVdimfun0
p516
I1
sVdpjgt7x
p517
I1
sVczd8v0c
p518
I1
sVdcb2zwp
p519
I1
sVdjimlbi
p520
I1
sVd0btzuc
p521
I1
sVdidb6v2
p522
I1
sVczqix0j
p523
I3
sVdmhu3z6
p524
I1
sVd52g6ur
p525
I1
sVdq6pfb8
p526
I1
sVdb7i3r4
p527
I2
sVcyvfsud
p528
I3
sVdat86it
p529
I1
sVd35wp5s
p530
I1
sVds2dl31
p531
I3
sVd4bhti0
p532
I1
sVd0oqp28
p533
I1
sVd0c12ro
p534
I1
sVd01l4lt
p535
I1
sVd25p61t
p536
I1
sVd9a0ec9
p537
I1
sVdcbhkds
p538
I1
sVczxjn54
p539
I2
sVdpthfxo
p540
I1
sVdgk1w1u
p541
I2
sVdgdjq70
p542
I1
sVdh0d23j
p543
I1
sVd2oiv88
p544
I1
sVddneqo8
p545
I3
sVdjomadu
p546
I2
sVd3epnv1
p547
I1
sVd1miebn
p548
I1
sVd48m441
p549
I1
sVd2ur3fd
p550
I1
sVdpatqnt
p551
I1
sVd6a5noz
p552
I1
sVczr8wkx
p553
I1
sVdfy7zxs
p554
I1
sVdebbxf8
p555
I1
sVczpr8a1
p556
I1
sVdd6ch7t
p557
I1
sVdcu54vg
p558
I1
sVdd2qlxh
p559
I1
sVd3tzuy2
p560
I1
sVdj43tex
p561
I1
sVd6nqtyk
p562
I1
sVdhau6xh
p563
I1
sVd2cot2d
p564
I1
sVcyx4gc6
p565
I2
sVd5edpo5
p566
I1
sVda55xac
p567
I1
sVdmntp6t
p568
I2
sVd4gy7n0
p569
I1
sVd7u4p04
p570
I1
sVd0bjem5
p571
I1
sVcz87b3c
p572
I1
sVdcwxh92
p573
I2
sVd0p7hzu
p574
I1
sVd9jzel3
p575
I1
sVd37ip86
p576
I1
sVd6throc
p577
I1
sVdn25323
p578
I1
sVd2vzq08
p579
I2
sVdii9ztf
p580
I1
sVd27zl16
p581
I2
sVdbz3w1t
p582
I1
sVdgdu4tz
p583
I2
sVd6y269q
p584
I1
sVd9q95oq
p585
I1
sVd0c886h
p586
I1
sVdk971d7
p587
I1
sVde2ix13
p588
I1
sVd1023zw
p589
I1
sVd2z2pfu
p590
I1
sVd89m74a
p591
I1
sVdraoewo
p592
I2
sVd0c23b0
p593
I1
sVdjfq8v9
p594
I1
sVd24aysh
p595
I1
sVdpsbykz
p596
I1
sVd3etweh
p597
I1
sVd3krl21
p598
I1
sVd4sm1ck
p599
I1
sVdn07xtp
p600
I2
sVdi2lx4g
p601
I1
sVd4gcocm
p602
I2
sVd31bzql
p603
I1
sVdqpr92t
p604
I2
sVdqjlmca
p605
I1
sVd0k17lb
p606
I1
sVddux4c0
p607
I4
sVdrfszyd
p608
I1
sVdovnvip
p609
I1
sVcz8dscr
p610
I1
sVd11o32z
p611
I1
sVd6nk8yx
p612
I1
sVdot7l7o
p613
I1
sVd2zszd5
p614
I1
sVd8g5rqp
p615
I1
sVd0pl3wt
p616
I1
sVdefela6
p617
I1
sVd645349
p618
I1
sVd6t38d5
p619
I1
sVczqw951
p620
I1
sVdav4abs
p621
I2
sVdb8ay7y
p622
I1
sVd2pnoyz
p623
I1
sVdopgsgb
p624
I1
sVd144yuo
p625
I1
sVd2ohb4r
p626
I1
sVd0vo9rb
p627
I1
sVdo5rx0q
p628
I6
sVd2a8zfj
p629
I1
sVd7wbv7n
p630
I2
sVd8q8ucq
p631
I1
sVdd53l5t
p632
I1
sVd25h8q7
p633
I1
sVd5gttlj
p634
I1
sVdpu5eof
p635
I1
sVdf97rna
p636
I1
sVdsuwia1
p637
I1
sVd0bt5ln
p638
I1
sVdqdafry
p639
I2
sVd1k34eb
p640
I1
sVdexsrl2
p641
I1
sVd4zc5dw
p642
I1
sVdkxk1ow
p643
I1
sVdr9zcr9
p644
I3
sVd7pncnj
p645
I1
sVd6nvb3s
p646
I1
sVdjb6i4z
p647
I3
sVd09almv
p648
I2
sVcynqbp3
p649
I1
sVd3m811c
p650
I1
sVd0c0nik
p651
I2
sVd3nlvc4
p652
I1
sVdq7omq0
p653
I1
sVdiofgqh
p654
I1
sVdb2uhmk
p655
I1
sVdkms61g
p656
I1
sVdkkxcte
p657
I1
sVdhv6dqa
p658
I1
sVd9gm8ju
p659
I1
sVdanod3j
p660
I1
sVdjqzkid
p661
I1
sVd1za3l5
p662
I1
s.