(dp0
Vcyjvvud
p1
I1
s.(dp0
Vcynoiag
p1
I1
sVcyjvvud
p2
I1
s.(dp0
Vcyns7oj
p1
I1
sVcyjvvud
p2
I1
s.(dp0
Vcyu878n
p1
I1
sVcyjvvud
p2
I1
s.(dp0
Vcyys1k5
p1
I1
sVcyjvvud
p2
I1
s.(dp0
Vcz1i8wa
p1
I1
sVcyjvvud
p2
I1
s.(dp0
Vcz1va3p
p1
I1
sVcyjvvud
p2
I1
s.(dp0
Vcz4qzl5
p1
I1
sVcyjvvud
p2
I1
s.(dp0
Vcz5cqwm
p1
I1
sVcyjvvud
p2
I1
s.(dp0
Vcz6g9rw
p1
I1
sVcyjvvud
p2
I1
s.(dp0
Vcz6qp4z
p1
I1
sVcyjvvud
p2
I1
s.(dp0
Vcz6qp4z
p1
I1
sVcyjvvud
p2
I1
s.(dp0
Vcz6qp4z
p1
I1
sVcyjvvud
p2
I1
s.(dp0
Vcz6qp4z
p1
I1
sVcyjvvud
p2
I1
s.(dp0
Vczh2bam
p1
I1
sVcyjvvud
p2
I1
s.(dp0
Vcyjvvud
p1
I1
sVczhiw1f
p2
I1
s.(dp0
Vcziqe2n
p1
I1
sVcyjvvud
p2
I1
s.(dp0
Vczjcllu
p1
I1
sVcyjvvud
p2
I1
s.(dp0
Vczod5kv
p1
I1
sVcyjvvud
p2
I1
s.(dp0
Vczomivg
p1
I1
sVcyjvvud
p2
I1
s.(dp0
Vczq0ghr
p1
I1
sVcyjvvud
p2
I1
s.(dp0
Vczu7872
p1
I1
sVcyjvvud
p2
I1
s.(dp0
Vczwhzss
p1
I1
sVcyjvvud
p2
I1
s.(dp0
Vczyb3zl
p1
I1
sVcyjvvud
p2
I1
s.(dp0
Vd00fqjf
p1
I1
sVcyjvvud
p2
I1
s.(dp0
Vd00qu9q
p1
I1
sVcyjvvud
p2
I1
s.(dp0
Vd03lw9c
p1
I1
sVcyjvvud
p2
I1
s.(dp0
Vd03lw9c
p1
I1
sVcyjvvud
p2
I1
s.(dp0
Vd0adrdv
p1
I1
sVcyjvvud
p2
I1
s.(dp0
Vcyjvvud
p1
I1
sVd0kqx35
p2
I1
s.(dp0
Vd0pq1vm
p1
I1
sVcyjvvud
p2
I1
s.(dp0
Vd0qj0ug
p1
I1
sVcyjvvud
p2
I1
s.(dp0
Vcyjvvud
p1
I1
sVd0qsqzo
p2
I1
s.(dp0
Vd0sg9p8
p1
I1
sVcyjvvud
p2
I1
s.(dp0
Vd0ua3e2
p1
I1
sVcyjvvud
p2
I1
s.(dp0
Vd0wclx6
p1
I1
sVcyjvvud
p2
I1
s.(dp0
Vcyjvvud
p1
I1
sVd0xbqri
p2
I1
s.(dp0
Vd0ytotk
p1
I1
sVcyjvvud
p2
I1
s.(dp0
Vd1263s4
p1
I1
sVcyjvvud
p2
I1
s.(dp0
Vd15g7wv
p1
I1
sVcyjvvud
p2
I1
s.(dp0
Vd18n080
p1
I1
sVcyjvvud
p2
I1
s.(dp0
Vd1d4m8m
p1
I1
sVcyjvvud
p2
I1
s.(dp0
Vd1d8qjh
p1
I1
sVcyjvvud
p2
I1
s.(dp0
Vd1i7h2n
p1
I1
sVcyjvvud
p2
I1
s.(dp0
Vd1jteis
p1
I1
sVcyjvvud
p2
I1
s.(dp0
Vd1ruo9c
p1
I1
sVcyjvvud
p2
I1
s.(dp0
Vd1uywef
p1
I1
sVcyjvvud
p2
I1
s.(dp0
Vd1vs01w
p1
I1
sVcyjvvud
p2
I1
s.(dp0
Vd1weevv
p1
I1
sVcyjvvud
p2
I1
s.(dp0
Vd1xgh4i
p1
I1
sVcyjvvud
p2
I1
s.(dp0
Vd21hyq7
p1
I1
sVcyjvvud
p2
I1
s.(dp0
Vd244wgf
p1
I1
sVcyjvvud
p2
I1
s.(dp0
Vd24rvfr
p1
I1
sVcyjvvud
p2
I1
s.(dp0
Vd24rvfr
p1
I1
sVcyjvvud
p2
I1
s.(dp0
Vd25mnbl
p1
I1
sVcyjvvud
p2
I1
s.(dp0
Vd30wnzo
p1
I1
sVcyjvvud
p2
I1
s.(dp0
Vd34z24j
p1
I1
sVcyjvvud
p2
I1
s.(dp0
Vcyjvvud
p1
I1
sVd37hqgz
p2
I1
s.(dp0
Vd37vyva
p1
I1
sVcyjvvud
p2
I1
s.(dp0
Vd3c4s7q
p1
I1
sVcyjvvud
p2
I1
s.(dp0
Vcyjvvud
p1
I1
sVd3ibu6q
p2
I1
s.(dp0
Vd3mumho
p1
I1
sVcyjvvud
p2
I1
s.(dp0
Vd3qz9oy
p1
I1
sVcyjvvud
p2
I1
s.(dp0
Vd3ua82m
p1
I1
sVcyjvvud
p2
I1
s.(dp0
Vd40goi1
p1
I1
sVcyjvvud
p2
I1
s.(dp0
Vd436kyl
p1
I1
sVcyjvvud
p2
I1
s.(dp0
Vd4p089d
p1
I1
sVcyjvvud
p2
I1
s.(dp0
Vd5363c9
p1
I1
sVcyjvvud
p2
I1
s.(dp0
Vd5363c9
p1
I1
sVcyjvvud
p2
I1
s.(dp0
Vcyjvvud
p1
I1
sVd582ewi
p2
I1
s.(dp0
Vcyjvvud
p1
I1
sVd582ewi
p2
I1
s.(dp0
Vcyjvvud
p1
I1
sVd582ewi
p2
I1
s.(dp0
Vcyjvvud
p1
I1
sVd582ewi
p2
I1
s.(dp0
Vcyjvvud
p1
I1
sVd582ewi
p2
I1
s.(dp0
Vcyjvvud
p1
I1
sVd582ewi
p2
I1
s.(dp0
Vd5a7drb
p1
I1
sVcyjvvud
p2
I1
s.(dp0
Vd5a7drb
p1
I1
sVcyjvvud
p2
I1
s.(dp0
Vcyjvvud
p1
I1
sVd5o022h
p2
I1
s.(dp0
Vd6b4c35
p1
I1
sVcyjvvud
p2
I1
s.(dp0
Vd6f1xy3
p1
I1
sVcyjvvud
p2
I1
s.(dp0
Vd6wx551
p1
I1
sVcyjvvud
p2
I1
s.(dp0
Vd73zjw6
p1
I1
sVcyjvvud
p2
I1
s.(dp0
Vd7fodx8
p1
I1
sVcyjvvud
p2
I1
s.(dp0
Vd7jag77
p1
I1
sVcyjvvud
p2
I1
s.(dp0
Vd7jag77
p1
I1
sVcyjvvud
p2
I1
s.(dp0
Vd7jyk2j
p1
I1
sVcyjvvud
p2
I1
s.(dp0
Vd7skf2p
p1
I1
sVcyjvvud
p2
I1
s.(dp0
Vd7yakua
p1
I1
sVcyjvvud
p2
I1
s.(dp0
Vd83iy8i
p1
I1
sVcyjvvud
p2
I1
s.(dp0
Vd83rf91
p1
I1
sVcyjvvud
p2
I1
s.(dp0
Vd846gu7
p1
I1
sVcyjvvud
p2
I1
s.(dp0
Vd846gu7
p1
I1
sVcyjvvud
p2
I1
s.(dp0
Vd8bo4br
p1
I1
sVcyjvvud
p2
I1
s.(dp0
Vd8f0oka
p1
I1
sVcyjvvud
p2
I1
s.(dp0
Vcyjvvud
p1
I1
sVd8h3pm6
p2
I1
s.(dp0
Vcyjvvud
p1
I1
sVd8skxy5
p2
I1
s.(dp0
Vcyjvvud
p1
I1
sVd8skxy5
p2
I1
s.(dp0
Vcyjvvud
p1
I1
sVd910juc
p2
I1
s.(dp0
Vd9196ff
p1
I1
sVcyjvvud
p2
I1
s.(dp0
Vd9afct4
p1
I1
sVcyjvvud
p2
I1
s.(dp0
Vd9u12k8
p1
I1
sVcyjvvud
p2
I1
s.(dp0
Vd9z4zmj
p1
I1
sVcyjvvud
p2
I1
s.(dp0
Vda5dwjm
p1
I1
sVcyjvvud
p2
I1
s.(dp0
Vda5x469
p1
I1
sVcyjvvud
p2
I1
s.(dp0
Vdadh7zs
p1
I1
sVcyjvvud
p2
I1
s.(dp0
Vdaqkcmz
p1
I1
sVcyjvvud
p2
I1
s.(dp0
Vcyjvvud
p1
I1
sVdav26y2
p2
I1
s.(dp0
Vdavvil8
p1
I1
sVcyjvvud
p2
I1
s.(dp0
Vda(dp0
Vds4vjka
p1
I1
sVcyjvvud
p2
I1
s.