(dp0
Vd5oeomt
p1
I1
sVdrpe6h1
p2
I1
sVde7xcjo
p3
I1
sVday1ney
p4
I1
sVdape5fg
p5
I1
sVddwhuk5
p6
I1
sVdeli7g8
p7
I1
sVdebbxf8
p8
I1
sVd0kora4
p9
I1
sVd3xn4dz
p10
I1
sVcykg7nb
p11
I1
sVdk0tjg2
p12
I1
sVd02wrfn
p13
I1
sVdkj3kf3
p14
I1
sVd68tiy2
p15
I1
sVd56qlfm
p16
I1
sVd42zvwi
p17
I1
s.