(dp0
Vdn1krxf
p1
I2
sVd7xgmko
p2
I1
sVd87fa6p
p3
I1
sVdjoefnw
p4
I1
sVdi9w2jl
p5
I1
sVd9r3s32
p6
I1
sVd5a4fc6
p7
I1
sVd2w39xs
p8
I1
sVdakvll2
p9
I2
sVd30gbf3
p10
I1
sVdn4divj
p11
I1
sVdqu8te3
p12
I1
sVd63bdir
p13
I1
sVdc90kye
p14
I1
s.