(dp0
Vd17r1i3
p1
I1
sVdgh0mxq
p2
I1
sVd1gqys8
p3
I1
sVd1do53r
p4
I1
sVd1e7idr
p5
I1
sVd7ggt5i
p6
I1
sVdjhbrp2
p7
I1
sVdalarbr
p8
I1
sVdmtsnqu
p9
I1
sVddkuo2f
p10
I1
sVd3ijmeb
p11
I1
sVd1qjxk6
p12
I1
sVd83xzwn
p13
I1
sVd9twjht
p14
I1
sVdfoy82a
p15
I1
sVdmnc546
p16
I3
sVdkvhhv1
p17
I1
sVd700a0a
p18
I1
sVdbzhxfr
p19
I1
sVdcjhzk8
p20
I1
sVdfqo0z1
p21
I1
sVdprs774
p22
I1
sVd0i7f1r
p23
I1
sVcyozhwg
p24
I1
sVddkuj6q
p25
I1
sVdka2cui
p26
I1
sVdp8ht2h
p27
I1
sVdivece0
p28
I2
sVdegupp3
p29
I2
sVd4j4qsa
p30
I1
sVdficdix
p31
I1
sVd2pvrga
p32
I3
sVdohgd9j
p33
I1
sVdd0v80e
p34
I1
sVd38fk4b
p35
I1
sVdixzg6t
p36
I1
sVd241k4c
p37
I1
sVdetq0d3
p38
I1
sVdjtacy3
p39
I1
sVdpda8vp
p40
I1
sVdbn9a2w
p41
I1
sVdix6y34
p42
I1
sVdiy0c55
p43
I1
sVdt2rguj
p44
I1
sVdtevfg9
p45
I1
sVdmpfv2y
p46
I1
sVd14kfoz
p47
I1
sVdb5it47
p48
I1
sVdta5i3t
p49
I1
sVdtd1mpp
p50
I1
sVcyjebuw
p51
I1
sVddxwzyn
p52
I1
sVd6o292i
p53
I1
sVdn7bab7
p54
I1
sVdg2cv0v
p55
I1
sVdczw1n6
p56
I1
sVd3z7qww
p57
I1
sVd7rewlt
p58
I1
sVdf6xjjg
p59
I1
sVddi6a3m
p60
I1
sVd5cmu3c
p61
I1
sVd0rmcen
p62
I1
sVd4kx08h
p63
I1
sVd39y2yw
p64
I1
sVd5kl5x3
p65
I1
sVdoa5cep
p66
I1
sVd03sfzx
p67
I1
sVdatxart
p68
I1
sVdt5aigm
p69
I1
sVd4rzvg0
p70
I1
sVd298g2p
p71
I2
sVddktme0
p72
I1
sVd56yeil
p73
I1
sVd23t0bq
p74
I2
sVdi804hs
p75
I3
sVde19k0k
p76
I1
sVde0ojzz
p77
I1
sVdjzhekf
p78
I1
sVdc6f7ml
p79
I1
sVd1ndoy9
p80
I1
sVdcadgbt
p81
I1
sVcziw9sr
p82
I1
sVcyxpcux
p83
I1
sVddx3p2h
p84
I1
sVddjgysu
p85
I1
sVdq36yit
p86
I1
sVdoh5hp6
p87
I1
sVd8mglmw
p88
I1
sVd49lui9
p89
I6
sVdglndac
p90
I1
sVd3hf51w
p91
I1
sVdt9jr98
p92
I1
sVdpkzsy6
p93
I1
sVd3kgi5i
p94
I2
sVd1o5xq3
p95
I2
sVdb5jqpg
p96
I1
sVdnvyp3y
p97
I1
sVd1tdue4
p98
I1
sVd0pownj
p99
I1
sVd9nvi91
p100
I1
sVd4usa4s
p101
I1
sVdgaoczg
p102
I1
sVd1hf4nu
p103
I1
sVdfvbauq
p104
I1
sVdav9ind
p105
I1
sVdesyeyo
p106
I1
sVd2g8li4
p107
I2
sVddujsks
p108
I1
sVdbx3b0w
p109
I1
sVcynvq7c
p110
I1
sVcyo8ghm
p111
I1
sVd397n6x
p112
I2
sVcz7lde0
p113
I1
sVdkg2ehz
p114
I1
sVdcxt5dg
p115
I1
sVd6d5ucs
p116
I1
sVdbsgwup
p117
I1
sVds7ih4b
p118
I1
sVd61oc8o
p119
I1
sVczsys0b
p120
I1
sVdj23u5r
p121
I2
sVd2cb9tv
p122
I1
sVd6m9h7j
p123
I1
sVdav9lf5
p124
I2
sVdhghl62
p125
I1
sVd7w3z4j
p126
I1
sVczzwt1e
p127
I1
sVdcy0uky
p128
I1
sVd115gcf
p129
I3
sVd7mic8h
p130
I1
sVd6kbat1
p131
I2
sVdn891z6
p132
I1
sVd15mwco
p133
I1
sVczlxs62
p134
I1
sVd18rqj4
p135
I1
sVdrqeos3
p136
I1
sVd6hq09j
p137
I1
sVdmlh50c
p138
I1
sVdhnid0e
p139
I1
sVd1iv8xi
p140
I1
sVczzsqn2
p141
I1
sVd1qolsr
p142
I1
sVd5ow7sp
p143
I1
sVdh9vzsa
p144
I1
sVda8sdaz
p145
I1
sVd4rhboo
p146
I1
sVd5vpra2
p147
I1
sVd5xcuty
p148
I1
sVdo895m4
p149
I1
sVd5ewl3y
p150
I1
sVdmfz7ei
p151
I1
sVdc9hqyg
p152
I1
sVd55k5kw
p153
I1
sVd6d2ttf
p154
I1
sVd8htqy1
p155
I1
sVd3sc6g2
p156
I1
sVd2q3cvu
p157
I2
sVcyy21iv
p158
I1
sVdpj6l88
p159
I1
sVd1gyi7d
p160
I1
sVd7m3mqn
p161
I1
sVdrqa3ne
p162
I1
sVdaovapz
p163
I1
sVdt434gy
p164
I1
sVd3wvycx
p165
I1
sVddu5v6z
p166
I1
sVd4xe1py
p167
I1
sVd0gdlpu
p168
I1
sVdk7ewtt
p169
I1
sVdeape26
p170
I1
sVdkm6ocn
p171
I1
sVd8oam6l
p172
I1
sVdn4fmjs
p173
I1
sVd7m0448
p174
I1
sVdosj5wg
p175
I1
sVd7bfyvb
p176
I1
sVdcwafcn
p177
I1
sVdfp0bhy
p178
I1
sVd6l7xo0
p179
I1
sVd1kqdod
p180
I1
sVdif1tvu
p181
I2
sVde1y5w7
p182
I1
sVd60i09a
p183
I1
sVcz179fg
p184
I1
sVdciiwfm
p185
I1
sVdaqpp2b
p186
I1
sVdi8u7a2
p187
I2
sVd20j5ia
p188
I1
sVdb3glot
p189
I1
sVd14osf2
p190
I1
sVd077bl4
p191
I1
sVcykwkrj
p192
I1
sVdo1miya
p193
I4
sVdjxyyz6
p194
I1
sVd0lmeoy
p195
I1
sVd9y53w0
p196
I1
sVd9ydxvq
p197
I1
sVd0i4767
p198
I4
sVdmeqgni
p199
I3
sVczc0220
p200
I1
sVdpdasur
p201
I1
sVd1gzgnx
p202
I1
sVd48s3ue
p203
I1
sVd0n1t7u
p204
I1
sVdaic97m
p205
I2
sVdgn8qlt
p206
I1
sVd20j54h
p207
I1
sVd7mt4s7
p208
I1
sVd9eqfqr
p209
I1
sVd3ga5qu
p210
I1
sVda80vvs
p211
I1
sVdogtars
p212
I1
sVd0z8x5e
p213
I1
sVd13jynq
p214
I1
sVdafz4vl
p215
I1
sVdgb3xij
p216
I1
sVdcahds3
p217
I2
sVczjvoou
p218
I1
sVd7nexty
p219
I2
sVd5ds64l
p220
I1
sVd5x3vth
p221
I1
sVdbzefc9
p222
I2
sVdnen8o4
p223
I1
sVczc4xu1
p224
I1
sVd2vcbha
p225
I1
sVdbfvd0v
p226
I1
sVddzvc3m
p227
I1
sVdftepaw
p228
I1
sVd2kskcy
p229
I1
sVd3lfg0t
p230
I1
sVdd49ryp
p231
I1
sVdf1k13h
p232
I1
sVd069o47
p233
I1
sVcyonbfn
p234
I1
sVdn3lo13
p235
I1
sVddkthgv
p236
I1
sVd074jxz
p237
I1
sVd7ytd7w
p238
I1
sVd2hljkl
p239
I1
sVdd6v6s8
p240
I1
sVd7j78x4
p241
I1
sVd6c1sr3
p242
I1
sVd57qjld
p243
I1
sVddzgw8v
p244
I1
sVd1zyhik
p245
I2
sVd5aj789
p246
I1
sVdfmvhmv
p247
I1
sVd1222kp
p248
I1
sVd1dlzqa
p249
I1
sVdf4uv2b
p250
I1
sVdddihv5
p251
I1
sVdot70pr
p252
I1
sVdgmz71y
p253
I1
sVd2owlsv
p254
I1
sVd50e3tk
p255
I1
sVdkcclyk
p256
I1
sVde3lwc6
p257
I1
sVd4q0f7p
p258
I1
sVd8we0ar
p259
I1
sVcz6lk5t
p260
I1
sVdgqhyuc
p261
I1
sVdmfyc2n
p262
I2
sVd9eh38m
p263
I3
sVd13a8y7
p264
I2
sVd1bxu1u
p265
I1
sVdjmffcs
p266
I1
sVdjby3ny
p267
I1
sVd8dbw25
p268
I3
sVdd96qis
p269
I1
sVddihw3d
p270
I1
sVdfoxlo9
p271
I1
sVd38z7rw
p272
I1
sVdebf0xa
p273
I1
sVd4o1z1m
p274
I1
sVcyr9cpa
p275
I1
sVdr2h7gu
p276
I1
sVdacuvjj
p277
I1
sVdau25sl
p278
I1
sVdj6ingz
p279
I1
sVdd72aj7
p280
I1
sVdmm8tss
p281
I1
sVd9kpxtp
p282
I1
sVdb7p4ic
p283
I1
sVd00tfqm
p284
I1
sVd98qjd8
p285
I1
sVd0tlmiq
p286
I1
sVd0kz9kc
p287
I1
sVdn8ooib
p288
I1
sVdrm5cyw
p289
I1
sVdgv6rca
p290
I1
sVd28z8x7
p291
I1
sVdfvqmqw
p292
I1
sVda4f0fj
p293
I1
sVdewcs8m
p294
I1
sVdj5gj5r
p295
I1
sVcyoxbht
p296
I1
sVdcxuy1k
p297
I1
sVdc0pdwm
p298
I1
sVd6g8bsx
p299
I1
sVdom9n6g
p300
I1
sVdam13z5
p301
I1
sVddtqk3y
p302
I1
sVdf9swvv
p303
I1
sVcyka0c2
p304
I1
sVde8zvi6
p305
I2
sVd368m31
p306
I1
sVd7p0sgl
p307
I1
sVdc0zvl7
p308
I1
sVdjafprh
p309
I1
sVd4gueh3
p310
I1
sVd1jfkl4
p311
I1
sVdmugj3v
p312
I1
sVdkf5ret
p313
I1
sVcyo335u
p314
I1
sVd0ip4mq
p315
I1
sVdd1y2i5
p316
I1
sVdsrldx3
p317
I1
sVdjhm55q
p318
I1
sVdjgfb00
p319
I1
sVd84pxl8
p320
I1
sVdf3bsqh
p321
I1
sVcyibhtc
p322
I1
sVdfpu62v
p323
I1
sVcyonf00
p324
I1
sVdhwiajn
p325
I1
sVde43jce
p326
I1
sVd2czvg1
p327
I1
sVd64fzeo
p328
I1
sVdjmopbq
p329
I1
sVdis7o8n
p330
I1
sVdav9p9r
p331
I3
sVd09swmv
p332
I1
sVd4n7yyn
p333
I1
sVd1n2e0h
p334
I1
sVdbsjmzx
p335
I1
sVdkq4zsy
p336
I2
sVdfxty8y
p337
I1
sVdcz1azv
p338
I2
sVdo0iyof
p339
I1
sVd1wk160
p340
I1
sVdobmf1l
p341
I1
sVdtjmlgh
p342
I1
sVdaby5hp
p343
I1
sVd3lis4h
p344
I1
sVd2tl8zf
p345
I1
sVdpymevg
p346
I1
sVdirtvnb
p347
I1
sVde87l2i
p348
I2
sVcz5yq8i
p349
I1
sVcyonqow
p350
I1
sVd68gjsd
p351
I1
sVd4jfj8j
p352
I1
s.