(dp0
Vdhlkjej
p1
I1
sVdaaykfj
p2
I1
sVd5j1mj0
p3
I1
sVd7bk60p
p4
I1
sVd6zp3rj
p5
I1
sVdi8lfi6
p6
I1
sVdcc6sf1
p7
I1
sVd6zfrob
p8
I1
sVdfelf23
p9
I1
sVdd7z7kh
p10
I1
sVd0ki5tq
p11
I1
sVdjemu9x
p12
I1
s.