(dp0
Vczhay3a
p1
I1
s.(dp0
Vd0wa371
p1
I1
sVczhay3a
p2
I1
s.(dp0
Vd1a86us
p1
I1
sVczhay3a
p2
I1
s.(dp0
Vczhay3a
p1
I1
sVd31n969
p2
I1
s.(dp0
Vczhay3a
p1
I1
sVd35g66d
p2
I1
s.(dp0
Vczhay3a
p1
I1
sVd5kr758
p2
I1
s.(dp0
Vd75xusn
p1
I1
sVczhay3a
p2
I1
s.(dp0
Vd75xusn
p1
I1
sVczhay3a
p2
I1
s.(dp0
Vd75xusn
p1
I1
sVczhay3a
p2
I1
s.(dp0
Vd75xusn
p1
I1
sVczhay3a
p2
I1
s.(dp0
Vd75xusn
p1
I1
sVczhay3a
p2
I1
s.(dp0
Vd75yj8j
p1
I1
sVczhay3a
p2
I1
s.(dp0
Vd75yj8j
p1
I1
sVczhay3a
p2
I1
s.(dp0
Vd75yj8j
p1
I1
sVczhay3a
p2
I1
s.(dp0
Vczhay3a
p1
I1
sVd76cgbe
p2
I1
s.(dp0
Vd8eohk1
p1
I1
sVczhay3a
p2
I1
s.(dp0
Vczhay3a
p1
I1
sVda462vq
p2
I1
s.(dp0
Vdc478bi
p1
I1
sVczhay3a
p2
I1
s.(dp0
Vczhay3a
p1
I1
sVdc5fubt
p2
I1
s.(dp0
Vczhay3a
p1
I1
sVddiiph7
p2
I1
s.(dp0
Vczhay3a
p1
I1
sVddiiph7
p2
I1
s.(dp0
Vczhay3a
p1
I1
sVddiiph7
p2
I1
s.(dp0
Vczhay3a
p1
I1
sVdes2f44
p2
I1
s.(dp0
Vdeviaju
p1
I1
sVczhay3a
p2
I1
s.(dp0
Vczhay3a
p1
I1
sVdfu34kg
p2
I1
s.(dp0
Vdgl2pst
p1
I1
sVczhay3a
p2
I1
s.(dp0
Vczhay3a
p1
I1
sVdh8a7ss
p2
I1
s.(dp0
Vczhay3a
p1
I1
sVdho0ix8
p2
I1
s.(dp0
Vdis6ckk
p1
I1
sVczhay3a
p2
I1
s.(dp0
Vdks61os
p1
I1
sVczhay3a
p2
I1
s.(dp0
Vdqg5nr6
p1
I1
sVczhay3a
p2
I1
s.(dp0
Vdr0ntgw
p1
I1
sVczhay3a
p2
I1
s.