(dp0
Vdpbiszc
p1
I1
sVdd1gv4s
p2
I1
sVdnnf695
p3
I2
sVdj23u5r
p4
I1
sVd7b1cow
p5
I1
sVdix8b6k
p6
I1
sVdni5w5h
p7
I1
sVd2ov2ub
p8
I1
sVdihqygq
p9
I1
sVdd9wg4w
p10
I1
sVdf4gq18
p11
I1
sVd71xdtr
p12
I1
sVd4if4vt
p13
I1
sVdhh3ma3
p14
I1
sVd6r5xmy
p15
I1
sVd3si85x
p16
I1
sVdjen3wj
p17
I1
sVd6uh87b
p18
I1
sVdc9kdii
p19
I1
sVdcy8c9i
p20
I1
sVd3efcuz
p21
I1
sVd517q3i
p22
I1
sVdqdzio7
p23
I1
sVd4f9mhd
p24
I1
sVd77d7fm
p25
I2
sVdn92y2n
p26
I2
sVdnxr8t6
p27
I1
sVcytasj2
p28
I1
sVdafflk9
p29
I1
sVd4iyeew
p30
I1
sVdh65dou
p31
I1
sVdc0zd5o
p32
I2
sVd33tmpw
p33
I1
sVd1mz3l6
p34
I1
sVd934c0o
p35
I1
sVdrlb9pa
p36
I1
sVd5acb0r
p37
I1
sVdik9wsz
p38
I1
sVdb8juuy
p39
I1
sVdms23xx
p40
I1
sVd8spqii
p41
I1
s.