(dp0
Vdeqgks1
p1
I1
sVd52tpkc
p2
I1
sVd1ttu7p
p3
I1
sVd621e4y
p4
I2
sVczdiz9k
p5
I1
sVd62djgv
p6
I1
sVdf8ynsb
p7
I2
sVd17tzpm
p8
I2
sVd1v7t2t
p9
I1
sVd44sji5
p10
I2
sVcysosfx
p11
I2
sVdfntdb8
p12
I2
sVd191s1p
p13
I1
sVcysp3ud
p14
I2
sVd2cg257
p15
I1
sVczepzt2
p16
I1
sVd9y6kj4
p17
I1
sVd5elmy2
p18
I1
sVdecmf23
p19
I1
sVddwvkk5
p20
I2
sVczarg1f
p21
I1
sVd1hy7wu
p22
I1
sVdec693h
p23
I1
sVd2ac679
p24
I2
sVcylckmv
p25
I1
sVdmrx07j
p26
I1
sVdtihrl0
p27
I3
sVd1a3dx7
p28
I1
sVd8v81ws
p29
I1
sVdg1c4fi
p30
I1
sVd2k9lsf
p31
I1
sVd7o6tq4
p32
I2
sVd9dqv7i
p33
I1
sVdfd0b6h
p34
I2
sVdah0pid
p35
I1
sVd1k7nvv
p36
I1
sVd8qen39
p37
I1
sVd1twbr5
p38
I1
sVcyl0xf4
p39
I1
sVd18x5ad
p40
I1
sVd18df9r
p41
I2
sVd437s10
p42
I1
sVdmmp56p
p43
I1
sVdflwds6
p44
I1
sVd8s8blr
p45
I1
sVdiidoy8
p46
I1
sVd0fhb44
p47
I1
sVda89ndi
p48
I1
sVd6gg3d8
p49
I1
sVdfvc8n4
p50
I1
sVdeoeebh
p51
I2
sVcykb65a
p52
I1
sVde6tlzg
p53
I1
sVd5gh4f4
p54
I1
sVd8s92w3
p55
I3
sVd0xvhip
p56
I2
sVdkl4g4p
p57
I1
sVcyjd5ou
p58
I1
sVd1e090o
p59
I1
sVd5rggx4
p60
I1
sVcyoucky
p61
I3
sVd3xay9d
p62
I1
sVdgcl8zr
p63
I2
sVd1y1fkk
p64
I1
sVdtihg00
p65
I1
sVczqs02v
p66
I1
sVd147oku
p67
I1
sVd8krdmb
p68
I1
sVd3h5sq1
p69
I1
sVd6a6asp
p70
I1
sVdhjjeba
p71
I1
sVd65dpk5
p72
I1
sVd627llq
p73
I1
sVdag1a92
p74
I1
s.