(dp0
Vd2ya7qq
p1
I1
sVdndawun
p2
I1
sVd0m0anf
p3
I1
sVd04q7pn
p4
I1
sVdkx8fpz
p5
I1
sVdfmccn4
p6
I1
sVdsmczt9
p7
I1
sVdbor6se
p8
I1
sVd6mdqrd
p9
I1
sVdgmk09p
p10
I1
sVdfyk13o
p11
I1
sVdngh3yd
p12
I1
sVd117p1v
p13
I1
sVdin66aq
p14
I1
sVd10ym3f
p15
I1
sVd5fzrl4
p16
I1
sVd6nqk9r
p17
I1
sVd4v9l4q
p18
I1
sVd4u9igd
p19
I1
sVd5gsaav
p20
I1
sVddg6ihn
p21
I1
sVcywyh6k
p22
I1
sVd9zrd8x
p23
I1
sVd4io6w9
p24
I1
sVdjz8i0d
p25
I1
sVczk7t68
p26
I1
sVd5lik6g
p27
I1
sVdggxq3q
p28
I1
sVdgn3v88
p29
I1
sVdbnph29
p30
I1
sVdkn1xf5
p31
I1
sVd1lm4uj
p32
I1
sVd2tpny8
p33
I1
sVd58fjdq
p34
I1
sVdd07a7h
p35
I1
sVdk60zoj
p36
I1
sVdaxfmpp
p37
I1
sVdovnozs
p38
I1
sVdgrqyd6
p39
I1
sVdo12jey
p40
I1
sVdgdwgsu
p41
I1
sVcykkrxi
p42
I1
sVd83dtfi
p43
I1
sVd3d62ra
p44
I1
sVdg1ucwl
p45
I1
sVdemuzdz
p46
I1
sVd00dbsj
p47
I1
sVdfdu61w
p48
I1
sVd0g5gs4
p49
I1
sVdmrf5z5
p50
I1
sVdfytckg
p51
I1
sVdiwj7u6
p52
I1
sVd7jeryz
p53
I1
sVd796s43
p54
I1
sVdq2a4u3
p55
I1
sVdi9z421
p56
I1
sVd0kyuv2
p57
I1
sVczg13gw
p58
I1
sVd4w84wq
p59
I1
sVd47lapp
p60
I1
sVdkbfds7
p61
I1
sVdc5ez2x
p62
I1
sVcz7mh6v
p63
I1
sVdf7vylv
p64
I1
sVd690pkc
p65
I1
sVde19vmu
p66
I1
sVda2o9dy
p67
I2
sVdihk2jt
p68
I1
sVd7efk4q
p69
I1
sVdpg9f8p
p70
I1
sVdqmks8a
p71
I1
sVdiqvrza
p72
I1
sVdam087u
p73
I1
sVdctlvhv
p74
I1
sVdddw1zi
p75
I1
sVdnfs8di
p76
I1
sVdk9p2n0
p77
I1
sVddezlfv
p78
I2
sVdcmwtov
p79
I1
sVdjdadt7
p80
I1
sVd1vobf5
p81
I1
sVde799u5
p82
I1
sVdago47f
p83
I1
sVdfjgd8k
p84
I1
sVdahlpt5
p85
I1
sVcyuefja
p86
I1
sVdf75np4
p87
I1
sVd96pi6l
p88
I1
sVdocqjji
p89
I1
sVcyprd71
p90
I1
sVd2p06on
p91
I1
sVdf1zeps
p92
I1
sVdk0tw7a
p93
I1
sVd14pl28
p94
I1
sVdbqrxyu
p95
I1
sVdsj14ln
p96
I1
sVdogvhyx
p97
I1
sVdk32b6c
p98
I1
sVd5bw4a8
p99
I1
sVczjwqsp
p100
I1
sVdbg6h13
p101
I1
sVd9ga7vd
p102
I1
sVd7busvi
p103
I1
sVd9vo0co
p104
I1
sVdh7eh23
p105
I1
sVd7i3b98
p106
I1
sVd39ycd3
p107
I1
sVd03hs1c
p108
I1
sVde16l3q
p109
I1
sVdhrfv8a
p110
I2
sVdaei43r
p111
I1
sVdgij6v0
p112
I1
sVdntqt4c
p113
I1
sVd9zoxn3
p114
I2
sVdg794no
p115
I1
sVdfncter
p116
I1
sVcyqlyug
p117
I1
sVd1a2nvb
p118
I1
sVdnml37a
p119
I1
sVd39qb3l
p120
I1
sVd0180jk
p121
I1
sVda6715t
p122
I1
sVdrhxv3l
p123
I1
s.