(dp0
Vcyhv27z
p1
I1
s.(dp0
Vcyhv27z
p1
I2
s.(dp0
Vcyhv27z
p1
I1
sVcyhvj7m
p2
I1
s.(dp0
Vcyhv27z
p1
I1
sVcyhvj7m
p2
I1
s.(dp0
Vcyhv27z
p1
I1
sVcyhvj7m
p2
I1
s.(dp0
Vcyhv27z
p1
I1
sVcyqkwag
p2
I1
s.(dp0
Vcyhv27z
p1
I1
sVcys5xts
p2
I1
s.(dp0
Vcyhv27z
p1
I1
sVcys5xts
p2
I1
s.(dp0
Vcyhv27z
p1
I1
sVcyswrlz
p2
I1
s.(dp0
Vcyhv27z
p1
I1
sVcyuschc
p2
I1
s.(dp0
Vcyhv27z
p1
I1
sVcz3cvn0
p2
I1
s.(dp0
Vcyhv27z
p1
I1
sVczaaxvw
p2
I1
s.(dp0
Vcyhv27z
p1
I1
sVczaazrw
p2
I1
s.(dp0
Vcyhv27z
p1
I1
sVczaazrw
p2
I1
s.(dp0
Vcyhv27z
p1
I1
sVczb1dhf
p2
I1
s.(dp0
Vcyhv27z
p1
I1
sVczb1dhf
p2
I1
s.(dp0
Vcyhv27z
p1
I1
sVczb1dhf
p2
I1
s.(dp0
Vcyhv27z
p1
I1
sVczhjhu0
p2
I1
s.(dp0
Vcyhv27z
p1
I1
sVczhjhu0
p2
I1
s.(dp0
Vcyhv27z
p1
I1
sVczi76se
p2
I1
s.(dp0
Vcyhv27z
p1
I1
sVczioc3v
p2
I1
s.(dp0
Vcyhv27z
p1
I1
sVczisqee
p2
I1
s.(dp0
Vcyhv27z
p1
I1
sVczn2hj4
p2
I1
s.(dp0
Vcyhv27z
p1
I1
sVcztjr6q
p2
I1
s.(dp0
Vcyhv27z
p1
I1
sVcztleuz
p2
I1
s.(dp0
Vcyhv27z
p1
I1
sVcztlfgp
p2
I1
s.(dp0
Vcyhv27z
p1
I1
sVcztmfhb
p2
I1
s.(dp0
Vcyhv27z
p1
I1
sVcztmfhb
p2
I1
s.(dp0
Vcyhv27z
p1
I1
sVcztmfhb
p2
I1
s.(dp0
Vcyhv27z
p1
I1
sVcztomr1
p2
I1
s.(dp0
Vcyhv27z
p1
I1
sVcztomr1
p2
I1
s.(dp0
Vcyhv27z
p1
I1
sVcztp6aw
p2
I1
s.(dp0
Vcyhv27z
p1
I1
sVczzqrqn
p2
I1
s.(dp0
Vcyhv27z
p1
I1
sVd06heyt
p2
I1
s.(dp0
Vcyhv27z
p1
I1
sVd06l2lx
p2
I1
s.(dp0
Vcyhv27z
p1
I1
sVd0b70a3
p2
I1
s.(dp0
Vcyhv27z
p1
I1
sVd0bjem5
p2
I1
s.(dp0
Vcyhv27z
p1
I1
sVd0fj1nx
p2
I1
s.(dp0
Vcyhv27z
p1
I1
sVd0gdgew
p2
I1
s.(dp0
Vcyhv27z
p1
I1
sVd0gdp0h
p2
I1
s.(dp0
Vcyhv27z
p1
I1
sVd0gun07
p2
I1
s.(dp0
Vcyhv27z
p1
I1
sVd0gun07
p2
I1
s.(dp0
Vcyhv27z
p1
I1
sVd0irq8z
p2
I1
s.(dp0
Vcyhv27z
p1
I1
sVd0t62xn
p2
I1
s.(dp0
Vcyhv27z
p1
I1
sVd0tlhh4
p2
I1
s.(dp0
Vcyhv27z
p1
I1
sVd0tlhh4
p2
I1
s.(dp0
Vcyhv27z
p1
I1
sVd0tlhh4
p2
I1
s.(dp0
Vcyhv27z
p1
I1
sVd0tlhh4
p2
I1
s.(dp0
Vcyhv27z
p1
I1
sVd0tm2pf
p2
I1
s.(dp0
Vcyhv27z
p1
I1
sVd0vf64f
p2
I1
s.(dp0
Vcyhv27z
p1
I1
sVd0zenbq
p2
I1
s.(dp0
Vcyhv27z
p1
I1
sVd0zg96f
p2
I1
s.(dp0
Vcyhv27z
p1
I1
sVd16m92v
p2
I1
s.(dp0
Vcyhv27z
p1
I1
sVd1g64fb
p2
I1
s.(dp0
Vcyhv27z
p1
I1
sVd1gnq4z
p2
I1
s.(dp0
Vcyhv27z
p1
I1
sVd1ihopv
p2
I1
s.(dp0
Vcyhv27z
p1
I1
sVd1qlo9g
p2
I1
s.(dp0
Vcyhv27z
p1
I1
sVd1qlo9g
p2
I1
s.(dp0
Vcyhv27z
p1
I1
sVd1qlo9g
p2
I1
s.(dp0
Vcyhv27z
p1
I1
sVd1qyhuw
p2
I1
s.(dp0
Vcyhv27z
p1
I1
sVd1wxi9m
p2
I1
s.(dp0
Vcyhv27z
p1
I1
sVd1x4dtn
p2
I1
s.(dp0
Vcyhv27z
p1
I1
sVd1x4dtn
p2
I1
s.(dp0
Vcyhv27z
p1
I1
sVd1ycc9o
p2
I1
s.(dp0
Vcyhv27z
p1
I1
sVd1ycc9o
p2
I1
s.(dp0
Vcyhv27z
p1
I1
sVd1ycc9o
p2
I1
s.(dp0
Vcyhv27z
p1
I1
sVd1ycc9o
p2
I1
s.(dp0
Vcyhv27z
p1
I1
sVd1ycy36
p2
I1
s.(dp0
Vcyhv27z
p1
I1
sVd1zpj0m
p2
I1
s.(dp0
Vcyhv27z
p1
I1
sVd22fjrj
p2
I1
s.(dp0
Vcyhv27z
p1
I1
sVd2345t1
p2
I1
s.(dp0
Vcyhv27z
p1
I1
sVd23gxm4
p2
I1
s.(dp0
Vcyhv27z
p1
I1
sVd2ddlho
p2
I1
s.(dp0
Vcyhv27z
p1
I1
sVd2h0y6d
p2
I1
s.(dp0
Vcyhv27z
p1
I1
sVd2ls0qt
p2
I1
s.(dp0
Vcyhv27z
p1
I1
sVd2ls0qt
p2
I1
s.(dp0
Vcyhv27z
p1
I1
sVd2ls0qt
p2
I1
s.(dp0
Vcyhv27z
p1
I1
sVd2ls0qt
p2
I1
s.(dp0
Vcyhv27z
p1
I1
sVd2ls0qt
p2
I1
s.(dp0
Vcyhv27z
p1
I1
sVd2ls0qt
p2
I1
s.(dp0
Vcyhv27z
p1
I1
sVd2ls6wm
p2
I1
s.(dp0
Vcyhv27z
p1
I1
sVd2ls6wm
p2
I1
s.(dp0
Vcyhv27z
p1
I1
sVd2ls6wm
p2
I1
s.(dp0
Vcyhv27z
p1
I1
sVd2ls6wm
p2
I1
s.(dp0
Vcyhv27z
p1
I1
sVd2t1a2w
p2
I1
s.(dp0
Vcyhv27z
p1
I1
sVd2wfha9
p2
I1
s.(dp0
Vcyhv27z
p1
I1
sVd2wfha9
p2
I1
s.(dp0
Vcyhv27z
p1
I1
sVd312yvz
p2
I1
s.(dp0
Vcyhv27z
p1
I1
sVd33wax1
p2
I1
s.(dp0
Vcyhv27z
p1
I1
sVd33wax1
p2
I1
s.(dp0
Vcyhv27z
p1
I1
sVd358hn7
p2
I1
s.(dp0
Vcyhv27z
p1
I1
sVd37ytd3
p2
I1
s.(dp0
Vcyhv27z
p1
I1
sVd3pe8xr
p2
I1
s.(dp0
Vcyhv27z
p1
I1
sVd3rv36z
p2
I1
s.(dp0
Vcyhv27z
p1
I1
sVd3yzgck
p2
I1
s.(dp0
Vcyhv27z
p1
I1
sVd45qv1p
p2
I1
s.(dp0
Vcyhv27z
p1
I1
sVd4pg9mo
p2
I1
s.(dp0
Vcyhv27z
p1
I1
sVd4pg9mo
p2
I1
s.(dp0
Vcyhv27z
p1
I1
sVd4pqlks
p2
I1
s.(dp0
Vcyhv27z
p1
I1
sVd4pr8su
p2
I1
s.(dp0
Vcyhv27z
p1
I1
sVd4ukw41
p2
I1
s.(dp0
Vcyhv27z
p1
I1
sVd4z7tdl
p2
I1
s.(dp0
Vcyhv27z
p1
I1
sVd4z7tdl
p2
I1
s.(dp0
Vcyhv27z
p1
I1
sVd51cxua
p2
I1
s.(dp0
Vcyhv27z
p1
I1
sVd58eggh
p2
I1
s.(dp0
Vcyhv27z
p1
I1
sVd58eggh
p2
I1
s.(dp0
Vcyhv27z
p1
I1
sVd5ba286
p2
I1
s.(dp0
Vcyhv27z
p1
I1
sVd5c82jb
p2
I1
s.(dp0
Vcyhv27z
p1
I1
sVd5(dp0
Vcyhv27z
p1
I1
sVdt0pkii
p2
I1
s.