(dp0
Vczidtye
p1
I1
sVdcl4x04
p2
I2
sVdencid8
p3
I1
sVdptrs02
p4
I1
sVdg8pfxy
p5
I1
sVdekhb9a
p6
I3
sVdmm8fwg
p7
I1
sVdfd7p74
p8
I1
sVda1dme4
p9
I1
sVdfvse05
p10
I2
sVddbcoku
p11
I1
sVd1jshf4
p12
I1
sVdf0jkya
p13
I1
sVd367zmf
p14
I1
sVd98l3f7
p15
I1
sVd7gttwy
p16
I1
sVdd4xwsb
p17
I1
sVd1zg847
p18
I1
sVcyk7336
p19
I1
sVd19unk9
p20
I3
sVd6fbnml
p21
I1
sVd85bhsd
p22
I1
sVdd0727w
p23
I1
sVcyzlo81
p24
I4
sVdg6hlzf
p25
I1
sVdg58omh
p26
I1
sVdheo3xl
p27
I1
sVcyi4esn
p28
I1
sVd1f9fmq
p29
I1
sVd4s9egh
p30
I2
sVd7l14os
p31
I1
sVd9087k5
p32
I1
sVd30irjm
p33
I1
sVczq7slu
p34
I1
sVczuiafn
p35
I1
sVd7e5pb8
p36
I1
sVd0oocpn
p37
I1
sVcytt9sy
p38
I1
sVdt57r0u
p39
I1
sVdbwmhwk
p40
I3
sVddwbqxe
p41
I2
sVdewde29
p42
I1
sVd3ez4ee
p43
I1
sVd2bcc11
p44
I1
sVd0zjhca
p45
I1
sVdczls6h
p46
I1
sVd53nu6d
p47
I1
sVdtcovcn
p48
I1
sVczbq05e
p49
I1
sVcylp090
p50
I1
sVdkqg5xy
p51
I1
sVdjs10fm
p52
I1
sVd7g6p2r
p53
I1
sVdb555bv
p54
I1
sVd1v2hpd
p55
I9
sVd1y8v5y
p56
I1
sVd0kpnza
p57
I2
sVd0fhb44
p58
I1
sVddn2g8z
p59
I1
sVd6rs29o
p60
I1
sVdg8epj0
p61
I2
sVdhtc63t
p62
I1
sVd5uqv3q
p63
I1
sVddn7ct2
p64
I1
sVdrufulg
p65
I1
sVczunqi1
p66
I1
sVdid6fst
p67
I1
sVcz4nbqh
p68
I1
sVd7k8yvw
p69
I2
sVcz1hu7g
p70
I1
sVd57tvzf
p71
I1
sVd0nnchh
p72
I1
sVdd90q3i
p73
I1
sVdp47e3g
p74
I1
sVdjnolo5
p75
I1
sVd05a086
p76
I1
sVddv2xq8
p77
I1
sVdn731om
p78
I1
sVd050zqn
p79
I2
sVd9ejcy9
p80
I1
sVdpmuvc4
p81
I1
sVd4h15x3
p82
I1
sVd3fg0lg
p83
I1
sVd4iansu
p84
I1
sVdfzwj4f
p85
I1
sVdhvwfcs
p86
I1
sVdmvg42o
p87
I2
sVczn7jgc
p88
I1
sVdczajqp
p89
I1
sVd0w5grf
p90
I1
sVdibhhuh
p91
I1
sVd3amguv
p92
I1
sVdno9jkc
p93
I1
sVd2gnk6k
p94
I2
sVdi9s27j
p95
I1
sVd865kwh
p96
I1
sVdd5l9sn
p97
I1
sVdbozcii
p98
I1
sVd2sn3nb
p99
I1
sVd3pya86
p100
I1
sVdas6cb8
p101
I1
sVdg7y25r
p102
I1
sVczoey45
p103
I1
sVd7jrpfd
p104
I3
sVd67mkx9
p105
I1
sVd0nitmc
p106
I1
sVd9fkciw
p107
I6
sVd9qfe8g
p108
I4
sVdno3pt7
p109
I3
sVd4mk1dk
p110
I1
sVdrqtjm0
p111
I1
sVd2458qg
p112
I2
sVdjbm59u
p113
I2
sVddnsa9t
p114
I1
sVd8397jy
p115
I1
sVd1663nq
p116
I1
sVd821pd8
p117
I3
sVdrnye5i
p118
I2
sVd1joicw
p119
I1
sVddw9wmr
p120
I1
sVdhnkp7c
p121
I1
sVddaocby
p122
I1
sVdbbywui
p123
I1
sVd43eiun
p124
I1
sVdjq6jn2
p125
I1
sVde755hu
p126
I2
sVdgbt8rg
p127
I1
sVd8gin1n
p128
I1
sVczesms5
p129
I2
sVd2qs3cf
p130
I1
sVdeha3jp
p131
I1
sVdq0eys2
p132
I1
sVczdguz6
p133
I1
sVdd7ql4a
p134
I1
sVdqgprga
p135
I1
sVd8q6sgd
p136
I1
sVdf13yph
p137
I1
sVdho3lj8
p138
I2
sVdhcjq52
p139
I1
sVd5dysmx
p140
I1
sVdn2g0v8
p141
I2
sVdpacrc5
p142
I1
sVdeq6ogd
p143
I1
sVd1etjyw
p144
I2
sVd23t0bq
p145
I4
sVdfaq310
p146
I3
sVdmoss6w
p147
I2
sVdabhbi1
p148
I1
sVdfvdp3t
p149
I1
sVdod9yes
p150
I1
sVdixdcwq
p151
I1
sVdfylif3
p152
I1
sVdkeddog
p153
I2
sVd8try9z
p154
I1
sVd1w32go
p155
I3
sVdpoqzph
p156
I3
sVda183j0
p157
I1
sVdt3svws
p158
I1
sVdkifpx0
p159
I1
sVczc40oo
p160
I1
sVd5yd1y3
p161
I2
sVdj9w9pw
p162
I1
sVd9ba8yv
p163
I1
sVdalzpnw
p164
I1
sVd2bhj1r
p165
I1
sVde2wb1w
p166
I1
sVdbr0hhp
p167
I1
sVddul00s
p168
I1
sVdgrvvip
p169
I2
sVdefloym
p170
I1
sVdjlyrw0
p171
I1
sVda1a9ua
p172
I1
sVd37e91v
p173
I4
sVdi4y549
p174
I2
sVdn0y5x8
p175
I4
sVdratoy1
p176
I1
sVd9ogcob
p177
I2
sVd4ow345
p178
I1
sVd0h00jh
p179
I1
sVdptk67f
p180
I1
sVd3x4v49
p181
I2
sVddwjtjt
p182
I1
sVd22gsrd
p183
I1
sVd1p2kwl
p184
I2
sVdd7hyjr
p185
I1
sVdevecjg
p186
I1
sVdh4dctu
p187
I1
sVd5myxma
p188
I1
sVd7g4iy6
p189
I1
sVd13eklk
p190
I1
sVdkcqd06
p191
I1
sVd7pp7ep
p192
I1
sVdish4nq
p193
I2
sVddwjban
p194
I3
sVd8m3zxe
p195
I1
sVdcbcdnj
p196
I2
sVdikc9cy
p197
I1
sVd9xbhz4
p198
I1
sVde4byrh
p199
I1
sVd4n1czm
p200
I1
sVdhhnpto
p201
I1
sVdkbp9fp
p202
I2
sVcz57zen
p203
I1
sVd4s7a20
p204
I8
sVdj0naud
p205
I1
sVddwetr9
p206
I5
sVd4b6lel
p207
I1
sVdf7xh26
p208
I1
sVdbzq4ih
p209
I2
sVdj4xhqr
p210
I1
sVdgxmnnd
p211
I1
sVdoko0wj
p212
I1
sVdfnhhfg
p213
I1
sVdd5iinq
p214
I1
sVd36djvy
p215
I1
sVd9mvcg5
p216
I1
sVdd0migg
p217
I5
sVdk5a9jm
p218
I1
sVdge9w2p
p219
I1
sVdkj0wse
p220
I1
sVdbt12q3
p221
I1
sVdeaubow
p222
I1
sVd1buhqn
p223
I1
sVcyw2egs
p224
I1
sVdfq7gv4
p225
I1
sVd3xc6ux
p226
I1
sVd5yhkvp
p227
I2
sVd4r79gn
p228
I1
sVdd5zmaq
p229
I1
sVczbz8s2
p230
I1
sVd3bz7ik
p231
I1
sVdks2kfp
p232
I1
sVdbhh0p6
p233
I1
sVdg46uwu
p234
I2
sVd02bmvl
p235
I1
sVd8vd1w3
p236
I1
sVdd3mxg5
p237
I1
sVd3abu48
p238
I1
sVdgjwmdq
p239
I1
sVdeh63ke
p240
I1
sVdda7bwo
p241
I1
sVd1us9nk
p242
I2
sVdb207a7
p243
I3
sVcz2phc1
p244
I1
sVd7phzat
p245
I1
sVczwhdoy
p246
I1
sVcz3jpur
p247
I1
sVd8mh0bl
p248
I1
sVddulciv
p249
I1
sVd4igdno
p250
I1
sVds8lwae
p251
I1
sVdjnkhyk
p252
I1
sVdgb8zsi
p253
I1
sVcyigiuj
p254
I1
sVd61irr2
p255
I1
sVd7pa5ib
p256
I3
sVdif0qbq
p257
I1
sVd8ox0zo
p258
I1
sVdel8reo
p259
I1
sVd1ewfkm
p260
I1
sVdgrss8s
p261
I1
sVd4u5qp4
p262
I1
sVd2lloqi
p263
I1
sVdholdmh
p264
I1
sVd0i5jg8
p265
I1
sVd1vpfg1
p266
I3
sVd1f94dp
p267
I1
sVcz0fial
p268
I4
sVddhgqhe
p269
I1
sVdi33m6r
p270
I1
sVd4xflw6
p271
I1
sVd52lh0u
p272
I1
sVdjvlgbj
p273
I1
sVdedtf7i
p274
I1
sVd0pyuuv
p275
I1
sVcz414jm
p276
I1
sVdbsou8f
p277
I1
sVdjejd4v
p278
I1
sVdndndl2
p279
I1
sVcywmv43
p280
I1
sVdfv7pw2
p281
I2
sVd2dxid8
p282
I1
sVd0pdimz
p283
I1
sVdgzoy8x
p284
I1
sVdbtt9e9
p285
I1
sVd6cugtb
p286
I1
sVdkkkt2c
p287
I1
sVd897ffq
p288
I1
sVdci6bhp
p289
I1
sVdhmqhpm
p290
I1
sVdd4au66
p291
I1
sVdoiepqy
p292
I1
sVdd5f1cc
p293
I1
sVd9cpl69
p294
I1
sVdn7bh0d
p295
I1
sVdik2tb9
p296
I1
sVd1f8bkf
p297
I1
sVd4qzg60
p298
I1
sVd1j7ep6
p299
I1
sVdqk35xi
p300
I1
sVddxnd3b
p301
I1
sVdfs8n8t
p302
I1
sVd0rau31
p303
I1
sVd01bde6
p304
I1
sVdesglal
p305
I1
sVd7d0t2t
p306
I1
sVd4th5ib
p307
I1
sVdc9kgan
p308
I1
sVd4mmony
p309
I1
sVd88jl8j
p310
I1
sVd20rdyh
p311
I1
sVdfzw3u8
p312
I1
sVddjmfz2
p313
I3
sVdgglyo9
p314
I1
sVde4k6x3
p315
I1
sVd5ev3vc
p316
I1
sVd46gf6f
p317
I1
sVdgds6gp
p318
I1
sVd1h9k8u
p319
I1
sVd8mqrva
p320
I2
sVda06i9e
p321
I1
sVddjebbe
p322
I2
sVdfnefp3
p323
I1
sVdf2lrsg
p324
I2
sVd14pl28
p325
I1
sVdf5f892
p326
I2
sVdhsy933
p327
I1
sVdb16e12
p328
I1
sVd1pcoh2
p329
I3
sVdfk01qq
p330
I2
sVdau1ru8
p331
I1
sVcyoikyo
p332
I1
sVdkkoppn
p333
I1
sVd0d71ih
p334
I1
sVd46pnzx
p335
I1
sVdakvtz7
p336
I1
sVd4zkkhv
p337
I1
sVd46hdd6
p338
I1
sVdfu8ulm
p339
I1
sVdg4eg6i
p340
I1
sVd5kr3p0
p341
I1
sVda1gjyr
p342
I1
sVdqgyyo5
p343
I1
sVddv0euk
p344
I3
sVdapapb0
p345
I1
sVd1beppc
p346
I1
sVd2s10vo
p347
I1
sVdqlit5d
p348
I2
sVd4gish9
p349
I1
sVddac5od
p350
I1
sVd04ello
p351
I1
sVdftkl1w
p352
I1
sVdpwp5d4
p353
I2
sVcykus6i
p354
I2
sVdfl4j32
p355
I1
sVd2otvg2
p356
I1
sVcyymxb4
p357
I1
sVdhzftbc
p358
I1
sVdkk7ov3
p359
I4
sVd081jyt
p360
I1
sVczkvxx1
p361
I3
sVdmmlrbj
p362
I1
sVdejhhhb
p363
I1
sVdhn825o
p364
I2
sVd36lzea
p365
I1
sVdcklcun
p366
I1
sVd8jdo1c
p367
I1
sVdogpury
p368
I1
sVdgukg2f
p369
I1
sVdb5jqux
p370
I1
sVdgxehn4
p371
I1
sVdb6pm3z
p372
I2
sVdh0rqvj
p373
I2
sVd00qllb
p374
I1
sVdivtvum
p375
I1
sVd8prdmm
p376
I1
sVd6ev8yw
p377
I2
sVdii6ely
p378
I1
sVdc257i6
p379
I1
sVd2y0591
p380
I1
sVde36m34
p381
I1
sVdejss4f
p382
I2
sVdjv32wa
p383
I2
sVd9xvaxm
p384
I1
sVdf3cjty
p385
I2
sVdg48d9t
p386
I2
sVd0elni8
p387
I1
sVdg9e7gq
p388
I1
sVcznv3kn
p389
I2
sVdc1kqo1
p390
I2
sVd8fwpi7
p391
I1
sVd5jspmp
p392
I1
sVdcxkj36
p393
I1
sVdc7hgat
p394
I1
sVdemdeow
p395
I1
sVdntvg8u
p396
I1
sVd8jywgo
p397
I1
sVcyo4lb6
p398
I1
sVdn034cl
p399
I2
sVdgeskgc
p400
I3
sVdsyuz6z
p401
I1
sVdcyaw3p
p402
I1
sVd2ozyji
p403
I1
sVdc4af4o
p404
I1
sVdadptl4
p405
I1
sVddt1mcz
p406
I1
sVdjezhrf
p407
I1
sVczrf125
p408
I3
sVd75v1cw
p409
I1
sVd29u17d
p410
I1
sVdg4d08z
p411
I1
sVd08oz36
p412
I1
sVd2dyjj6
p413
I1
sVdbh4ddk
p414
I1
sVdkypgmh
p415
I1
sVdg89fbm
p416
I1
sVd2m0dhg
p417
I1
sVcywh2f3
p418
I1
sVcyo6ku2
p419
I1
sVdglullw
p420
I1
sVdam7vhr
p421
I1
sVd7lwvva
p422
I1
sVdkyynle
p423
I1
sVdryaz6k
p424
I1
sVda3ypr7
p425
I1
sVd4elqsq
p426
I1
sVdgx4adv
p427
I1
sVdgzme2g
p428
I1
sVdcy98sc
p429
I2
sVd6brv48
p430
I1
sVd6235vl
p431
I1
sVdbr0mnc
p432
I2
sVd0jy1wl
p433
I2
sVdgnc8se
p434
I1
sVdcccrly
p435
I1
sVdalzt7s
p436
I1
sVd6qywhs
p437
I2
sVd78chuz
p438
I1
sVdn99qik
p439
I2
sVdcilsh2
p440
I1
sVd8fjwph
p441
I2
sVd8hih21
p442
I1
sVdhxurut
p443
I1
sVd78r8g6
p444
I1
sVdi4ralf
p445
I1
sVczwexb4
p446
I1
sVd55qng0
p447
I1
sVda14u04
p448
I4
sVd1bp62x
p449
I1
sVdbfzdgl
p450
I1
sVdjt9nt2
p451
I1
sVd1o468b
p452
I1
sVdas9f7a
p453
I1
sVcyzc2um
p454
I1
sVdaa7vqn
p455
I1
sVdhayy0f
p456
I1
sVczg9fy4
p457
I1
sVcyu1peg
p458
I1
sVd4sce4z
p459
I1
sVdmqumz9
p460
I1
sVd3lj14w
p461
I2
sVd1bou5j
p462
I2
sVda1evef
p463
I1
sVcys3lki
p464
I1
sVd7hw1vg
p465
I2
sVdgcm3ep
p466
I1
sVd9vmt28
p467
I2
sVdbk90du
p468
I1
sVd94l7pt
p469
I1
sVd13cg27
p470
I1
sVdox6fuz
p471
I1
sVdc6jf5c
p472
I1
sVdgw35ti
p473
I2
sVde60dql
p474
I1
sVd5xms21
p475
I1
sVd8pn00l
p476
I1
sVdcyvve1
p477
I1
sVd88q5qj
p478
I7
sVdg9xt95
p479
I1
sVdiz28cy
p480
I1
sVd7mctjq
p481
I1
sVdjy3dgt
p482
I2
sVdg4yb7b
p483
I5
sVde33hi2
p484
I1
sVdn1stkd
p485
I1
sVd4egs37
p486
I1
sVdgj2o1q
p487
I4
sVd7vn2wm
p488
I1
sVcyjsg3x
p489
I1
sVd1fmz0o
p490
I1
sVdksehit
p491
I7
sVdduv9g1
p492
I2
sVd2ejbm0
p493
I1
sVdqfsess
p494
I1
sVcyiotje
p495
I1
sVd7dzx9r
p496
I1
sVddwc5hq
p497
I1
sVd9sxacy
p498
I2
sVdcz38xr
p499
I1
sVd7jltel
p500
I1
sVd3h1y1n
p501
I1
sVde2g8ca
p502
I1
sVcyqxep7
p503
I1
sVd141jh5
p504
I1
sVde2kk41
p505
I1
sVd38o4vc
p506
I1
sVd9l683x
p507
I4
sVd0rosc6
p508
I1
sVdghfdwp
p509
I4
sVdfztgh7
p510
I1
sVdcim25v
p511
I1
sVdabe0qs
p512
I1
sVddicng7
p513
I2
sVdryjhcm
p514
I1
sVdiuxolj
p515
I1
sVdfetdu6
p516
I1
sVdnuc5cb
p517
I1
sVdga9q7s
p518
I1
sVde3427f
p519
I1
sVdi6nx71
p520
I1
sVdhxshui
p521
I1
sVdco4qzl
p522
I1
sVd4u957q
p523
I1
sVd6ve8ws
p524
I2
sVd40hool
p525
I1
sVd8umxrf
p526
I1
sVcysya9o
p527
I1
sVdec2423
p528
I1
sVd141xav
p529
I1
sVczi0exh
p530
I1
sVdei101n
p531
I1
sVd4bf79u
p532
I1
sVdel748h
p533
I1
sVd3zo0iy
p534
I3
sVdcq1e63
p535
I3
sVdb1qx2g
p536
I1
sVczt5qjk
p537
I1
sVdtfea5z
p538
I1
sVczhl3tk
p539
I1
sVcypbdey
p540
I1
sVd04ud2u
p541
I1
sVd5mpxco
p542
I2
sVd4fx07l
p543
I3
sVd7xv50p
p544
I2
sVd7pjzd8
p545
I1
sVdirfvyd
p546
I2
sVd1m27ko
p547
I1
sVd1ie65j
p548
I1
sVd157a4r
p549
I1
sVd85kum5
p550
I1
sVd0e5pir
p551
I2
sVd7qy5dg
p552
I2
sVd0cfi7y
p553
I1
sVddhoik7
p554
I1
sVcyr05bs
p555
I1
sVddjzuh4
p556
I1
sVd641px9
p557
I1
sVd9x9u3a
p558
I1
sVd528lo0
p559
I1
sVdh42rde
p560
I3
sVdd3a3i9
p561
I1
sVcyr9cpa
p562
I1
sVd07z4i4
p563
I1
sVdgopq31
p564
I1
sVd1cz4ht
p565
I1
sVdeugrj8
p566
I1
sVdmqke14
p567
I1
sVdfuvu0a
p568
I1
sVd8m6gd4
p569
I2
sVd0tjzd7
p570
I3
sVd20g2n5
p571
I2
sVd3e4k5l
p572
I1
sVcz3fipj
p573
I1
sVd71971q
p574
I1
sVd2al42h
p575
I1
sVdcht4tv
p576
I1
sVdgg475j
p577
I1
sVd314q3s
p578
I2
sVd3i43pq
p579
I5
sVcyjgv5w
p580
I1
sVczr4a2x
p581
I1
sVdjaxnqi
p582
I1
sVd4ijy4s
p583
I1
sVdnyarb8
p584
I1
sVdemh58o
p585
I1
sVd1a3mz2
p586
I2
sVdddyt74
p587
I1
sVd4liqu2
p588
I1
sVd26dey8
p589
I2
sVczirkb6
p590
I1
sVdhbgk2z
p591
I1
sVdd9vn5w
p592
I1
sVczilh9f
p593
I1
sVd2v4pi4
p594
I2
sVcz58rs7
p595
I1
sVdk4z4hz
p596
I1
sVdc6p5o6
p597
I1
sVd0hqtgq
p598
I2
sVczjwaeq
p599
I1
sVdd3j8hp
p600
I1
sVd4dn7co
p601
I1
sVd4bqhwf
p602
I2
sVdgx63r0
p603
I11
sVd82bs8b
p604
I1
sVd170lqg
p605
I1
sVdcfw31q
p606
I3
sVd0628so
p607
I1
sVcz6r5ux
p608
I2
sVd88dg81
p609
I1
sVd6ixgy6
p610
I1
sVczewffy
p611
I1
sVdfvks2a
p612
I1
sVdj4k7cf
p613
I1
sVcyxmkow
p614
I1
sVdik5b2w
p615
I1
sVdghmu04
p616
I1
sVd2whn70
p617
I1
sVczjn9la
p618
I1
sVdhp6phv
p619
I1
sVdihr7d3
p620
I1
sVd68usfx
p621
I1
sVdhn577d
p622
I1
sVdpt2qyj
p623
I1
sVdfs5c0r
p624
I2
sVdpu9i59
p625
I5
sVdd3m941
p626
I2
sVd6hfzip
p627
I3
sVda5vlcy
p628
I1
sVd16t0zd
p629
I1
sVdg0li66
p630
I1
sVdd5zhxp
p631
I1
sVdey8ska
p632
I1
sVdnd9pzg
p633
I1
sVdjcd8be
p634
I5
sVdt8509p
p635
I1
sVd40xayx
p636
I2
sVd1q8jh9
p637
I3
sVdhwafna
p638
I1
sVde5z5t0
p639
I1
sVczdjb51
p640
I1
sVdjsgn9p
p641
I1
sVd2h6qid
p642
I1
sVd2o3apu
p643
I1
sVd4c140c
p644
I1
sVdnpdpd0
p645
I1
sVdjv3kfy
p646
I4
sVd3fiwwo
p647
I1
sVdfzn5lo
p648
I2
sVd2l6qog
p649
I2
sVdjaq1kc
p650
I1
sVd0zckq8
p651
I2
sVd6p8e2h
p652
I3
sVd95ukdv
p653
I1
sVdq85m20
p654
I1
sVcz1nwjp
p655
I2
sVd915cn0
p656
I1
sVd2r15t1
p657
I1
sVd4xruh9
p658
I1
sVd7z9s4k
p659
I1
sVdhplig3
p660
I2
sVd18y4hd
p661
I1
sVd2hlrt3
p662
I1
sVczi16dm
p663
I1
sVcz9vijx
p664
I4
sVdg4clu4
p665
I2
sVd3r8xrw
p666
I1
sVd2i22ui
p667
I1
sVdhy737h
p668
I2
sVdbqlt59
p669
I4
sVdjbmsx4
p670
I1
sVd88pztm
p671
I2
sVd3re5f5
p672
I1
sVdfu31zy
p673
I1
sVdehv1t2
p674
I5
sVda7323v
p675
I1
sVd88i9sn
p676
I1
sVdj6op57
p677
I1
sVda1ckgo
p678
I5
sVdo833i6
p679
I1
sVd3o4vaw
p680
I2
sVdahappg
p681
I1
sVd0y1c9l
p682
I1
sVdenutgk
p683
I1
sVdeinc4q
p684
I1
sVd5xjdd4
p685
I2
sVdkob3zx
p686
I2
sVdam8qc6
p687
I7
sVdby0vdt
p688
I1
sVdfw4ke9
p689
I1
sVd5rbd6x
p690
I1
sVdgt56e3
p691
I2
sVdfw1cnk
p692
I1
sVd0org9v
p693
I1
sVdb0xhz6
p694
I1
sVdosimwj
p695
I1
sVd8ljoim
p696
I2
sVdjo6kvs
p697
I1
sVdgblsln
p698
I1
sVdc8xurs
p699
I1
sVdod6owx
p700
I2
sVczgpzhm
p701
I2
sVd25im42
p702
I1
sVd1asrbw
p703
I1
sVd3psxxn
p704
I1
sVddvyp6x
p705
I2
sVdgac1ms
p706
I1
sVd05pu4k
p707
I1
sVdjo4rks
p708
I1
sVderldib
p709
I1
sVdbu7ugq
p710
I1
sVdb7h2qt
p711
I1
sVdh15hzy
p712
I3
sVdk340lq
p713
I1
sVdhnuoo3
p714
I1
sVdcddsak
p715
I2
sVd6tmzlm
p716
I2
sVdiff0kc
p717
I1
sVd39u7wu
p718
I1
sVd43rnv1
p719
I1
sVdjr2fbu
p720
I1
sVd5bklst
p721
I1
sVd2716rj
p722
I3
sVddey350
p723
I1
sVdk41kqf
p724
I2
sVczjky8m
p725
I1
sVd2ln9ln
p726
I1
sVd4mly9g
p727
I2
sVdao4bjm
p728
I1
sVdmrrz1r
p729
I1
sVd3zg1a3
p730
I1
sVdi5chib
p731
I1
sVdaxpdu9
p732
I2
sVd2xczrk
p733
I1
sVdf1nm84
p734
I9
sVdg7zfxn
p735
I1
sVd15wso6
p736
I1
sVdjbfa4p
p737
I1
sVd9iwsbq
p738
I1
sVdo426nk
p739
I1
sVd2admd7
p740
I1
sVd0jejv9
p741
I1
sVd79jy9s
p742
I1
sVdfolrah
p743
I1
sVdjsdbtx
p744
I1
sVdmquk01
p745
I1
sVd67uh34
p746
I1
sVdcff3hs
p747
I1
sVdr037hj
p748
I1
sVd035nej
p749
I1
sVd2gcamr
p750
I1
sVdj8muys
p751
I2
sVdfnjsfp
p752
I1
sVdexl7jd
p753
I1
sVd3sqxn1
p754
I2
sVdev0h9p
p755
I1
sVd2dqych
p756
I1
sVd1zf268
p757
I1
sVdhan7s3
p758
I1
sVdcsiqyq
p759
I1
sVdic6a3r
p760
I1
sVd8bx2ud
p761
I1
sVdh2zcw7
p762
I6
sVdccyr5n
p763
I1
sVd498p0m
p764
I1
sVcyp07zl
p765
I1
sVd8u8svh
p766
I1
sVd55jpce
p767
I2
sVdobjf9q
p768
I1
sVczifjtv
p769
I1
sVcyt2a7c
p770
I1
sVd0buspi
p771
I1
sVd253sre
p772
I1
sVd0hnopd
p773
I1
sVdb0lzja
p774
I1
sVdejlt83
p775
I1
sVdi2kkaq
p776
I1
sVd9ke8ku
p777
I1
sVdaolsks
p778
I1
sVd6isnoq
p779
I1
sVdeyqnea
p780
I1
sVdeopg93
p781
I1
sVddbuht4
p782
I1
sVdd8b5mk
p783
I1
sVdjma6dr
p784
I1
sVdnek2yk
p785
I2
sVdavapn7
p786
I1
sVdb1w1u6
p787
I1
sVczn9ng1
p788
I1
sVdcjs6sh
p789
I1
sVddn4e4g
p790
I1
sVczibb0t
p791
I1
sVdil2a3w
p792
I1
sVd5yid5a
p793
I1
sVdfs1o4c
p794
I1
sVdaqpp2b
p795
I1
sVd9k83c9
p796
I2
sVcyxzw0h
p797
I1
sVdc5z0xp
p798
I2
sVd15tnf0
p799
I1
sVcz5arjn
p800
I1
sVdg22l9t
p801
I2
sVd5rskvb
p802
I2
sVdi2rs74
p803
I1
sVdppu2u7
p804
I1
sVd8on88n
p805
I1
sVdegsobf
p806
I2
sVdcemjdp
p807
I1
sVd550jke
p808
I1
sVd67gfov
p809
I1
sVd9xonb9
p810
I1
sVd1gd5oi
p811
I1
sVd1j9091
p812
I1
sVds63f7g
p813
I1
sVdbz3uzz
p814
I1
sVcyy2fnt
p815
I1
sVd1ddy8j
p816
I1
sVczyqh95
p817
I1
sVdcthbqp
p818
I1
sVd6s6ayw
p819
I8
sVcz84a9i
p820
I2
sVczm8hhx
p821
I1
sVd5urfdi
p822
I1
sVdrya1dm
p823
I1
sVd6e72nd
p824
I1
sVdbprmr3
p825
I1
sVczoo7ai
p826
I1
sVdnei8j3
p827
I1
sVdc6ph0q
p828
I1
sVd6smxbp
p829
I1
sVdf9aw46
p830
I2
sVdpqug60
p831
I1
sVd5b13f5
p832
I1
sVd7z4o49
p833
I1
sVdee4isz
p834
I1
sVdatwcri
p835
I1
sVd65uyvj
p836
I1
sVdhwactz
p837
I1
sVd0o2ogd
p838
I1
sVd0qm5ta
p839
I1
sVd2v26a2
p840
I1
sVdbt1kdo
p841
I1
sVdnh3c51
p842
I1
sVd3ocm8x
p843
I1
sVd4ri8l1
p844
I1
sVd1w8puo
p845
I1
sVczxxtq9
p846
I1
sVddvkpk4
p847
I1
sVd4emxnx
p848
I2
sVd76sf4q
p849
I1
sVdi4p003
p850
I2
sVczolng2
p851
I1
sVdmuddsa
p852
I1
sVczg71ph
p853
I1
sVd3ck7i2
p854
I1
sVdj2mjwk
p855
I1
sVd5f3fau
p856
I1
sVd2tf76h
p857
I2
sVd3g6tub
p858
I1
sVczigwc0
p859
I1
sVd0hosg7
p860
I2
sVd3hk59u
p861
I1
sVdjn1b5g
p862
I1
sVd8a5re2
p863
I1
sVdivcdq7
p864
I3
sVczh2hvb
p865
I1
sVczhxayo
p866
I1
sVdptifzf
p867
I2
sVdkr23a0
p868
I1
sVda65lin
p869
I1
sVd97jqgc
p870
I1
sVdhyf1yl
p871
I1
sVd5l5uvj
p872
I1
sVd2ic5i7
p873
I1
sVd2mbaxw
p874
I1
sVd9smdnc
p875
I1
sVdo7xgx6
p876
I3
sVd3t7uo2
p877
I1
sVczbjnh1
p878
I1
sVdgeqkf6
p879
I1
sVdkcn734
p880
I2
sVd92y4f0
p881
I1
sVd0n7m4b
p882
I1
sVdof59uj
p883
I1
sVd9y2npw
p884
I1
sVdgpktf3
p885
I1
sVdpem8qe
p886
I1
sVdfi26mw
p887
I1
sVdmuh0um
p888
I1
sVdet03am
p889
I1
sVdh158ja
p890
I1
sVd5jmd8i
p891
I1
sVd9ajz1s
p892
I1
sVdgh73dg
p893
I1
sVd5no80j
p894
I1
sVde48x7g
p895
I2
sVdbp30xh
p896
I2
sVd752q4r
p897
I1
sVczi76se
p898
I7
sVd48oi5q
p899
I1
sVdduh4ks
p900
I2
sVdishefm
p901
I1
sVd4l15ni
p902
I1
sVd1paoz4
p903
I2
sVd8y7cgn
p904
I1
sVd4nwrgw
p905
I1
sVddwxs8r
p906
I1
sVdkkiaml
p907
I1
sVdhkrki8
p908
I1
sVdoree68
p909
I1
sVd34afui
p910
I1
sVd2hk336
p911
I3
sVdam5e7t
p912
I1
sVd9k6nz7
p913
I1
sVd15mfu2
p914
I1
sVd4en1to
p915
I1
sVd6i8gtb
p916
I1
sVdbrw48u
p917
I1
sVcztfr64
p918
I1
sVdanqzh5
p919
I1
sVddyeakp
p920
I1
sVczmd4ql
p921
I1
sVdmx7twm
p922
I1
sVdf6mj32
p923
I1
sVd9ffg7k
p924
I1
sVdeed70a
p925
I2
sVdhjmfl8
p926
I2
sVd6adsu4
p927
I1
sVdh78pmx
p928
I1
sVcz89bm6
p929
I1
sVdpf709x
p930
I1
sVdf5adxp
p931
I1
sVd2u2fwq
p932
I2
sVd14hhyh
p933
I1
sVd9keuvi
p934
I1
sVde316xv
p935
I3
sVd0lepgp
p936
I1
sVczvivcr
p937
I4
sVddlky52
p938
I1
sVd45x4be
p939
I1
sVd01t1cm
p940
I1
sVda17hrd
p941
I1
sVdneko30
p942
I1
sVdra1vp4
p943
I1
sVdbz5uqb
p944
I2
sVd6ipkqj
p945
I1
sVczew1rk
p946
I1
sVd3lqlbv
p947
I1
sVd56j8at
p948
I3
sVdfvjjcn
p949
I1
sVcyoa3j4
p950
I1
sVd0u8zav
p951
I1
sVddtro2l
p952
I1
sVdid27j2
p953
I1
sVdazygxl
p954
I1
sVdjhvtfi
p955
I1
sVdc5mzid
p956
I1
sVd1taanl
p957
I2
sVd43vx61
p958
I1
sVd3tpntj
p959
I1
sVczi1oqp
p960
I1
sVd6ngvse
p961
I1
sVczfoc0e
p962
I1
sVd18dn5k
p963
I1
sVdfxkxxa
p964
I1
sVdfyo6qf
p965
I3
sVd3y2kt0
p966
I1
sVdf9kcdn
p967
I2
sVd9my16w
p968
I1
sVcys55td
p969
I7
sVdi2xa40
p970
I1
sVd5sfji0
p971
I1
sVd21a3to
p972
I1
sVdbd4nbo
p973
I1
sVdhfyzov
p974
I1
sVddul5go
p975
I2
sVdqtkh04
p976
I1
sVdelbra4
p977
I1
sVdctzjm3
p978
I1
sVczhldb1
p979
I2
sVd6pi7bp
p980
I6
sVd2gd9so
p981
I1
sVd9o8xja
p982
I3
sVdjc8d53
p983
I4
sVd05equo
p984
I1
sVcz01ob4
p985
I1
sVdmiskda
p986
I2
sVd1k6sw8
p987
I1
sVd86ldrf
p988
I1
sVcywm3kx
p989
I1
sVdt2x4ms
p990
I1
sVd5vyu97
p991
I1
sVdpkl4ew
p992
I1
sVdd7ty7b
p993
I1
sVd1akc29
p994
I1
sVd1s54yz
p995
I7
sVczrw6ld
p996
I9
sVd55ka1g
p997
I1
sVd251lcp
p998
I1
sVddyyvjv
p999
I1
sVdepm7jd
p1000
I1
sVdb5ecfn
p1001
I1
sVdgybmox
p1002
I1
sVd9wee1l
p1003
I1
sVde3w3mc
p1004
I1
sVdd3odw9
p1005
I1
sVd7td83d
p1006
I2
sVdeuesk9
p1007
I2
sVda1g3vn
p1008
I2
sVdjv37ji
p1009
I3
sVdejdhxw
p1010
I1
sVd8m98ah
p1011
I1
sVd05nxd5
p1012
I1
sVddcf0z2
p1013
I1
sVd1er6j6
p1014
I1
sVdmsh1ps
p1015
I1
sVd9z3qef
p1016
I1
sVd3r5yjn
p1017
I1
sVdduu53j
p1018
I1
sVdhzuegv
p1019
I7
sVddiie9i
p1020
I1
sVda1egnh
p1021
I2
sVd5wcqn9
p1022
I1
sVdas8imo
p1023
I1
sVcz75x49
p1024
I4
sVdrrll20
p1025
I2
sVdddu9qn
p1026
I1
sVd3yjt0t
p1027
I1
sVdhwng1b
p1028
I1
sVdpfqujf
p1029
I1
sVdbl4axx
p1030
I1
sVd4mh3jr
p1031
I1
sVd4cea9h
p1032
I2
sVd3uefik
p1033
I1
sVddkn494
p1034
I1
sVd4g2916
p1035
I3
sVd9smt09
p1036
I1
sVdbyy5to
p1037
I1
sVdg0rlsm
p1038
I1
sVdtb2gzh
p1039
I1
sVd401j3d
p1040
I1
sVdqdxaez
p1041
I1
sVdf0l1ai
p1042
I1
sVcyzggiw
p1043
I1
sVddse8nh
p1044
I3
sVdq8ql71
p1045
I1
sVdb5gi0v
p1046
I1
sVdkkmq6f
p1047
I1
sVd2wogbj
p1048
I1
sVd9xpfjr
p1049
I1
sVdg8t9ah
p1050
I1
sVd6kpi0j
p1051
I1
sVd0qp5g0
p1052
I3
sVdfvpw85
p1053
I1
sVcyr3j3m
p1054
I1
sVd5uyrfm
p1055
I1
sVdf1wrdw
p1056
I2
sVdntejhf
p1057
I1
sVdgmuquh
p1058
I1
sVdpawxtc
p1059
I1
sVd49r3s4
p1060
I3
sVdk580qj
p1061
I1
sVd8yx76z
p1062
I1
sVdmw5wqm
p1063
I1
sVddhaa3h
p1064
I1
sVd8deddb
p1065
I1
sVdaj24qt
p1066
I1
sVdjd3opg
p1067
I1
sVdns1299
p1068
I1
sVd2xdu3i
p1069
I1
sVdddlglp
p1070
I1
sVczgrecu
p1071
I1
sVdjzjo5f
p1072
I1
sVd5vpz53
p1073
I1
sVde34rp0
p1074
I3
sVd1q13of
p1075
I1
sVd2jq186
p1076
I1
sVczb1p7u
p1077
I1
sVdd5qhrj
p1078
I1
sVd92b3j7
p1079
I1
sVd7jy1ev
p1080
I1
sVdrqh3sj
p1081
I1
sVd1e1wu1
p1082
I1
sVd3wawhu
p1083
I1
sVdmye4ba
p1084
I1
sVczuzban
p1085
I1
sVdhzroic
p1086
I3
sVdbha90p
p1087
I1
sVd9vrt9s
p1088
I1
sVdhnkaxr
p1089
I1
sVcyqgliq
p1090
I1
sVdcaqigf
p1091
I1
sVd1iidsd
p1092
I3
sVd1qsbor
p1093
I1
sVdtas91d
p1094
I1
sVd6q8uzm
p1095
I2
sVd198u8c
p1096
I1
sVdolarfd
p1097
I2
sVdb0xyt7
p1098
I1
sVd7a4yb0
p1099
I1
sVdpzmydd
p1100
I3
sVd8u5luz
p1101
I1
sVdg58tuy
p1102
I3
sVczn8ddz
p1103
I2
sVd6qnu3i
p1104
I1
sVdgbbgbe
p1105
I1
sVcym4kmh
p1106
I2
sVcyz9dkr
p1107
I1
sVd03cxgm
p1108
I2
sVd98oiab
p1109
I1
sVdcbymyb
p1110
I1
sVdg478an
p1111
I1
sVcz2dv6n
p1112
I1
sVdivoo09
p1113
I1
sVdjw7wm2
p1114
I2
sVd3md3s5
p1115
I1
sVdaki7eo
p1116
I1
sVdqfe71a
p1117
I1
sVdqmu2ij
p1118
I1
sVd85p05m
p1119
I1
sVdo86ffe
p1120
I2
sVdav7g98
p1121
I1
sVda19kw7
p1122
I1
sVd5ftf32
p1123
I1
sVdr6ydrp
p1124
I3
sVdflkut8
p1125
I1
sVczysf51
p1126
I1
sVcyjomnd
p1127
I1
sVdpack6r
p1128
I1
sVdio54gc
p1129
I2
sVd2h3x5o
p1130
I2
sVd0rnyjy
p1131
I1
sVd3sl9y4
p1132
I1
sVd1mekps
p1133
I1
sVdc8xzqv
p1134
I1
sVd4g9n3n
p1135
I1
sVdheorl6
p1136
I1
sVdog92ss
p1137
I1
sVdnuoe6x
p1138
I1
sVda80vvs
p1139
I1
sVczrkve4
p1140
I1
sVd7iv757
p1141
I1
sVcyzb8xu
p1142
I1
sVd1dxksa
p1143
I1
sVd7erc34
p1144
I1
sVdemj0xk
p1145
I2
sVdfkkmlh
p1146
I2
sVdrl67wj
p1147
I1
sVd5e4tpz
p1148
I1
sVcyktywf
p1149
I1
sVd035bni
p1150
I1
sVdhf9r17
p1151
I1
sVcynxnd3
p1152
I1
sVd7y7vw4
p1153
I1
sVdfjeulf
p1154
I3
sVd8lfl1q
p1155
I1
sVdkmorwm
p1156
I1
sVdry9bc2
p1157
I1
sVd2kn6i4
p1158
I3
sVd1qkvdp
p1159
I1
sVcymdnho
p1160
I1
sVd3fmgpl
p1161
I1
sVdbcxqh6
p1162
I1
sVd0rh014
p1163
I1
sVcz8pvo6
p1164
I1
sVd17dgfh
p1165
I1
sVd373p9h
p1166
I1
sVdh4jwiu
p1167
I1
sVdduym08
p1168
I1
sVczkqzco
p1169
I1
sVdd3zk2h
p1170
I2
sVdh2wm3d
p1171
I1
sVd20ex2y
p1172
I1
sVcz5oc5w
p1173
I1
sVd2ui8c6
p1174
I4
sVdjoqeok
p1175
I1
sVdfr23tb
p1176
I1
sVdetlgcr
p1177
I1
sVdeomqgv
p1178
I1
sVd1ukouv
p1179
I1
sVczng1n1
p1180
I1
sVcyzwyky
p1181
I1
sVdh4lrsg
p1182
I1
sVd285etm
p1183
I1
sVdbhsluu
p1184
I2
sVd6t8vvr
p1185
I1
sVd83sr5o
p1186
I3
sVdq3r8jr
p1187
I2
sVdbplrqr
p1188
I1
sVdgjg3d1
p1189
I1
sVdqfgcql
p1190
I3
sVdhkjwq3
p1191
I1
sVczzbuaj
p1192
I1
sVdq4hnqz
p1193
I1
sVd4ukr3d
p1194
I1
sVd6tdhes
p1195
I1
sVdhwacd3
p1196
I2
sVdb0prku
p1197
I1
sVdrkwwd4
p1198
I2
sVdf990ij
p1199
I1
sVdi635q3
p1200
I1
sVde7rshf
p1201
I1
sVczxsd3x
p1202
I1
sVd1bljru
p1203
I1
sVdkxkbpx
p1204
I3
sVd87w4t8
p1205
I1
sVdjtar05
p1206
I2
sVczu5otc
p1207
I1
sVdirfuvn
p1208
I1
sVdfttrfg
p1209
I1
sVdhnwmzp
p1210
I2
sVd5fue8k
p1211
I1
sVdsz2ifa
p1212
I1
sVd0j985f
p1213
I1
sVd1w88pr
p1214
I1
sVdfalwox
p1215
I1
sVdi7cgj7
p1216
I4
sVcz5ei0w
p1217
I1
sVdjc3vxr
p1218
I1
sVdhhwkaa
p1219
I2
sVdsin61j
p1220
I3
sVdi16pdn
p1221
I1
sVdhkzaxw
p1222
I1
sVd6aqy9u
p1223
I2
sVd4p4h7a
p1224
I1
sVdjwam81
p1225
I1
sVczphwf0
p1226
I1
sVd2el2sc
p1227
I1
sVdf1vie7
p1228
I4
sVdhtc7sm
p1229
I1
sVd43uikq
p1230
I1
sVdfnf0qn
p1231
I2
sVcz9yrl2
p1232
I1
sVdr2rsgd
p1233
I1
sVdb0p4y6
p1234
I3
sVcz4feas
p1235
I2
sVdg4w0ts
p1236
I1
sVdf1nrnh
p1237
I1
sVd0x3gp6
p1238
I1
sVd3gpfec
p1239
I1
sVd9o3go1
p1240
I1
sVcyqlyug
p1241
I1
sVd5tmvs8
p1242
I1
sVdid6rhz
p1243
I1
sVdjaqdqb
p1244
I1
sVczowe21
p1245
I2
sVdijwool
p1246
I3
sVdfr3t53
p1247
I1
sVdef2j14
p1248
I1
sVdkkb7ls
p1249
I1
sVdflsdin
p1250
I1
sVdnpw6ld
p1251
I1
sVdhfrmsl
p1252
I1
sVdo56s25
p1253
I1
sVd19c5o0
p1254
I1
sVcz84l4w
p1255
I1
sVd0tglmk
p1256
I1
sVd0ojukm
p1257
I1
sVdejsg20
p1258
I1
sVdg4bcb9
p1259
I1
sVdehpa0w
p1260
I1
sVd63hmud
p1261
I1
sVd26e3e7
p1262
I1
sVdimhc95
p1263
I1
sVd6pz3xs
p1264
I1
sVd0kodyr
p1265
I1
sVdiezrky
p1266
I1
sVd84jb8t
p1267
I1
sVd8j0tz1
p1268
I1
sVdovltet
p1269
I1
sVd6il0fk
p1270
I1
sVdakm4cg
p1271
I2
sVdqfmgul
p1272
I1
sVdi2w5et
p1273
I1
sVdkz3th0
p1274
I1
sVd8xl4k1
p1275
I4
sVd4c0u3p
p1276
I1
sVdbdv1mt
p1277
I1
sVdfnmzid
p1278
I2
sVd20p8r3
p1279
I1
sVd7z2b3x
p1280
I1
sVdfcojzi
p1281
I1
sVdcqayq0
p1282
I1
sVdpdl5pk
p1283
I1
sVdduvx31
p1284
I1
sVczkz3so
p1285
I1
sVd8du5n2
p1286
I4
sVdf6930u
p1287
I1
sVd4tm7fb
p1288
I1
sVdi01o6x
p1289
I1
sVczu106w
p1290
I1
sVdhhk8jb
p1291
I1
sVd10xtev
p1292
I1
sVdas3yej
p1293
I1
sVd7hsaqq
p1294
I1
sVd6p0tv5
p1295
I1
sVdmuqu3o
p1296
I1
sVdef4me3
p1297
I1
sVd1k7477
p1298
I1
sVdntafdr
p1299
I2
sVdf14ufg
p1300
I2
sVd4swgtp
p1301
I1
sVdrbne2k
p1302
I1
sVdhn7b61
p1303
I1
sVd3a0cik
p1304
I1
sVcz1nguh
p1305
I1
sVdgt62js
p1306
I4
sVdpjof62
p1307
I1
sVdip7baj
p1308
I1
sVdfucm1l
p1309
I2
sVdfzxaqm
p1310
I7
sVde01zrg
p1311
I1
sVczompfn
p1312
I2
sVdbg209a
p1313
I1
sVdhzared
p1314
I2
sVd3vs4ff
p1315
I1
sVcynkgl5
p1316
I1
sVd0ssqim
p1317
I4
sVdausag4
p1318
I1
sVdbvtnr8
p1319
I1
sVd9r2s9o
p1320
I1
sVd1ij9gs
p1321
I3
sVd015zc8
p1322
I1
sVd03zf0p
p1323
I1
sVdfedz15
p1324
I1
sVd628nih
p1325
I1
sVdmp97u5
p1326
I1
sVdn0pxns
p1327
I1
sVd1dglb2
p1328
I1
sVddyq4oj
p1329
I3
sVdcm3put
p1330
I1
sVcypi1zq
p1331
I2
sVd6o6bwz
p1332
I3
sVdpi6mqf
p1333
I2
sVd5s51qm
p1334
I1
sVda175w8
p1335
I3
sVd0fknk5
p1336
I1
sVd4axnc8
p1337
I1
sVd99jz3y
p1338
I1
sVdbublmn
p1339
I1
sVd8vcoze
p1340
I1
sVdie5te5
p1341
I1
sVdpywbyt
p1342
I1
sVd2lcnfa
p1343
I7
sVcznuonw
p1344
I1
sVdeg9amp
p1345
I1
sVdnbuo8l
p1346
I1
sVde28z90
p1347
I1
sVddw9lht
p1348
I1
sVdfnj4io
p1349
I1
sVdcb0kz2
p1350
I1
sVd0qohvo
p1351
I1
sVdjadqfz
p1352
I1
sVdidq28y
p1353
I2
sVdhzg6sh
p1354
I1
sVd13vrpc
p1355
I1
sVcz41a5a
p1356
I2
sVd4s86pj
p1357
I9
sVd3zx6hc
p1358
I1
sVczirwxp
p1359
I1
sVd1uybd4
p1360
I2
sVd39j7il
p1361
I1
sVczc8pkj
p1362
I1
sVdb7pe32
p1363
I1
sVd17a28y
p1364
I1
sVdnwt58n
p1365
I1
sVdb6p57q
p1366
I2
sVd2mvqgy
p1367
I1
sVdn2e0re
p1368
I2
sVd8axc56
p1369
I1
sVdiprbph
p1370
I1
sVdghho3b
p1371
I1
sVd63hpqr
p1372
I1
sVd7qp5il
p1373
I1
sVdkjpq0g
p1374
I1
sVd381ui4
p1375
I1
sVczj891x
p1376
I1
sVd8j8fns
p1377
I2
sVd9w44b7
p1378
I1
sVd1ga5e0
p1379
I1
sVczg4gh9
p1380
I1
sVd41okmz
p1381
I1
sVdir0jbc
p1382
I1
sVd00edmv
p1383
I1
sVdbzcz4t
p1384
I1
sVdspl5fh
p1385
I1
sVd8gkkg7
p1386
I2
sVd19kgic
p1387
I1
sVd885mt9
p1388
I1
sVd3fjci5
p1389
I1
sVdiilzpe
p1390
I1
sVdn3b0bq
p1391
I5
sVdd3fiih
p1392
I1
sVdges8f8
p1393
I1
sVdc9546j
p1394
I3
sVd0w26z5
p1395
I1
sVdsyuhup
p1396
I1
sVczlciq0
p1397
I1
sVdrbovme
p1398
I1
sVdbizcz3
p1399
I1
sVd48viei
p1400
I1
sVddjmtct
p1401
I1
sVczq5ttx
p1402
I1
sVdfoeuqo
p1403
I1
sVcz8qtgy
p1404
I1
sVdbi0e5e
p1405
I3
sVd3755wd
p1406
I1
sVda0g54k
p1407
I1
sVdei0oq1
p1408
I3
sVdpumt1k
p1409
I1
sVd2nbjax
p1410
I2
sVd3foghy
p1411
I1
sVd01935c
p1412
I1
sVd1rpedt
p1413
I2
sVddpv3ph
p1414
I1
sVdfxubwn
p1415
I1
sVd6snviz
p1416
I1
sVda1gb96
p1417
I3
sVdinpki6
p1418
I2
sVd0b8l0u
p1419
I1
sVd72j4a4
p1420
I1
sVdc6baly
p1421
I4
sVdbj266v
p1422
I1
sVdpmc0bw
p1423
I1
sVd1jjwbw
p1424
I1
sVddss2db
p1425
I2
sVd5cxigm
p1426
I1
sVd309gda
p1427
I1
sVddi54jl
p1428
I1
sVd2p5e4k
p1429
I1
sVdbt1t7x
p1430
I1
sVd01m6qm
p1431
I1
sVd0i87dr
p1432
I1
sVd2jxdqd
p1433
I2
sVdk0a4yc
p1434
I1
sVd0y44y3
p1435
I2
sVd00ckxv
p1436
I1
sVdafkpy5
p1437
I1
sVdpwkfm3
p1438
I1
sVdkm82xd
p1439
I1
sVdshqh5f
p1440
I1
sVd5odhi6
p1441
I1
sVd4eubmw
p1442
I1
sVdkgx3dl
p1443
I1
sVd1u388f
p1444
I1
sVd3olcgn
p1445
I2
sVdofmv1s
p1446
I2
sVdkqt6l6
p1447
I3
sVdfbyekt
p1448
I1
sVcyi96du
p1449
I1
sVd1x069h
p1450
I1
sVd68rtj7
p1451
I3
sVczcm0vu
p1452
I1
sVd4l0ara
p1453
I1
sVdoq57ob
p1454
I1
sVd7ib2sm
p1455
I1
sVdelgb9l
p1456
I1
sVd3ear5t
p1457
I1
sVdf1s0ft
p1458
I1
sVdnebamz
p1459
I1
sVd1o51gg
p1460
I2
sVd9blss9
p1461
I1
sVcz6402l
p1462
I1
sVczhmxa9
p1463
I3
sVd04pfwe
p1464
I1
sVdire6o8
p1465
I1
sVdduuohz
p1466
I2
sVdauxypi
p1467
I1
sVd275vij
p1468
I3
sVd5ximo7
p1469
I1
sVd7i33zn
p1470
I1
sVdaq4ru7
p1471
I1
sVcz1l79m
p1472
I1
sVcywmlw5
p1473
I1
sVdk5k0c6
p1474
I1
sVdqfjjze
p1475
I2
sVdgucivs
p1476
I2
sVdbl0x3w
p1477
I1
sVdb1y98z
p1478
I1
sVdfy2w6z
p1479
I1
sVd1zx8j3
p1480
I2
sVd2uuwfk
p1481
I4
sVdfoz5x4
p1482
I1
sVd56chdj
p1483
I1
sVdgyw4hw
p1484
I1
sVdadqrcj
p1485
I2
sVdqgubx7
p1486
I2
sVd7ua6ek
p1487
I3
sVd1n11wj
p1488
I1
sVdhoii2k
p1489
I2
sVdeu7hs4
p1490
I1
sVd3x2aje
p1491
I1
sVczzdz3u
p1492
I1
sVdhf7toc
p1493
I1
sVdhw1t0u
p1494
I1
sVdiyqoj5
p1495
I1
sVd2yzrts
p1496
I1
sVd8rip8s
p1497
I1
sVd7ygs4r
p1498
I1
sVdemgx2a
p1499
I1
sVd4okkyg
p1500
I1
sVdokby3f
p1501
I1
sVd250n9p
p1502
I1
sVd3yjqr2
p1503
I1
sVd3o8rn3
p1504
I1
sVdq5d3ny
p1505
I1
sVczcmg4o
p1506
I1
sVdel1104
p1507
I1
sVdn4gwqg
p1508
I1
sVd9n0iie
p1509
I1
sVdc2wds1
p1510
I2
sVdi0vutt
p1511
I1
sVd0xsn0q
p1512
I1
sVcyzmq6k
p1513
I1
sVd9wtujd
p1514
I1
sVd30ymad
p1515
I1
sVdaqza2x
p1516
I1
sVd1gi322
p1517
I1
sVdmzpfnc
p1518
I3
sVd1n40w0
p1519
I1
sVd68vxah
p1520
I1
sVdgwnmdw
p1521
I1
sVd0tes61
p1522
I1
sVd6pbjlk
p1523
I1
sVdpw2z5e
p1524
I1
sVdkkcb81
p1525
I1
sVdagw3yt
p1526
I1
sVdkc7zxa
p1527
I1
sVdkyq14d
p1528
I1
sVdipur2z
p1529
I1
sVdbd8skb
p1530
I3
sVdicxtgx
p1531
I1
sVd5nlsqr
p1532
I3
sVd9asgnf
p1533
I1
sVdg9tp1n
p1534
I2
sVdc39aen
p1535
I1
sVd24x7pa
p1536
I1
sVdkg4q55
p1537
I1
sVdfvuz9k
p1538
I1
sVcys9l5c
p1539
I1
sVdcvtn7q
p1540
I1
sVczhzo72
p1541
I1
sVdh2rxid
p1542
I13
sVd9p8eaw
p1543
I1
sVd3dyxrq
p1544
I1
sVdbr3ioq
p1545
I1
sVcys360i
p1546
I1
sVd3mlnxb
p1547
I1
sVd3pqotq
p1548
I2
sVdgd2uq3
p1549
I1
sVdg7pjgl
p1550
I1
sVdc8wn2c
p1551
I1
sVczcod7v
p1552
I1
sVdasn8dq
p1553
I4
sVd3eno8w
p1554
I1
sVd2u324a
p1555
I1
sVdeiok6c
p1556
I1
sVd68vw9c
p1557
I1
sVdinbk8i
p1558
I1
sVdi8r17z
p1559
I1
sVd40ix5u
p1560
I1
sVdcammmh
p1561
I1
sVdazv6n2
p1562
I2
sVdduoek4
p1563
I1
sVddoolqz
p1564
I1
sVd60582i
p1565
I1
sVdbnupxw
p1566
I1
sVdj24zt9
p1567
I1
sVd3pq44h
p1568
I1
sVdh65cvi
p1569
I1
sVcysnzal
p1570
I1
sVdi6qzkv
p1571
I2
sVczu7r0b
p1572
I1
sVd516jtk
p1573
I1
sVcynmma0
p1574
I1
sVdjk6q1n
p1575
I1
sVdcsjycn
p1576
I1
sVdev3gj2
p1577
I1
sVdhghu5g
p1578
I1
sVdmnrvwv
p1579
I1
sVd1roleu
p1580
I1
sVdejdd1m
p1581
I1
sVd3ane54
p1582
I1
sVdf85roy
p1583
I1
sVdgar5nf
p1584
I1
sVdhwigb4
p1585
I1
sVd5azp75
p1586
I1
sVdeq9jdp
p1587
I2
sVdjrfdhf
p1588
I1
sVd1oscir
p1589
I1
sVdhtis1n
p1590
I1
sVd2ue004
p1591
I1
sVd5ryi5o
p1592
I1
sVd8cs29f
p1593
I1
sVdekvz92
p1594
I1
sVczcq6n2
p1595
I1
sVdbk07oq
p1596
I1
sVdiahic0
p1597
I1
sVd2a88b8
p1598
I2
sVdipfizm
p1599
I1
sVd5oicqp
p1600
I1
sVdiy4rg1
p1601
I1
sVd2cczns
p1602
I2
sVd2m6o7v
p1603
I1
sVd0svruy
p1604
I1
sVd6emdfl
p1605
I1
sVddsw82y
p1606
I1
sVd7xkscz
p1607
I1
sVdktmneu
p1608
I5
sVcyjd8l3
p1609
I1
sVdg7kp47
p1610
I1
sVd30zk4w
p1611
I1
sVd9d9rh0
p1612
I1
sVd7ip9p5
p1613
I2
sVd270r4n
p1614
I1
sVdmicqeg
p1615
I1
sVdd45wj5
p1616
I1
sVd67ty70
p1617
I1
sVd37bm7t
p1618
I1
sVdgtmcup
p1619
I1
sVd0dhj4d
p1620
I1
sVdedwwxx
p1621
I1
sVd3std11
p1622
I1
sVdhmz480
p1623
I1
sVdff0eom
p1624
I1
sVd3zpmna
p1625
I1
sVd2tpsh9
p1626
I1
sVd54jsia
p1627
I1
sVd8jb2zi
p1628
I2
sVdqc2ztf
p1629
I3
sVd3r8uui
p1630
I2
sVd9eg77i
p1631
I1
sVdmsof2n
p1632
I1
sVd0gwdqm
p1633
I1
sVdtd78mq
p1634
I3
sVdijwnp1
p1635
I2
sVd7g6366
p1636
I2
sVdam2861
p1637
I1
sVdcjv8up
p1638
I1
sVd5c2zya
p1639
I1
sVd43wil8
p1640
I1
sVdgzd5aw
p1641
I2
sVddfr33e
p1642
I1
sVdgarfeb
p1643
I2
sVdj2bgzp
p1644
I1
sVd3hf5ia
p1645
I1
sVd5odjpq
p1646
I2
sVd65os4b
p1647
I1
sVdgx2c11
p1648
I1
sVd0w2qoe
p1649
I2
sVdkmiqs8
p1650
I1
sVd5qjnks
p1651
I1
sVd1pbncu
p1652
I4
sVdhja9y5
p1653
I1
sVdpoxtkj
p1654
I1
sVd739il4
p1655
I5
sVd24cx80
p1656
I1
sVd7isgbb
p1657
I1
sVdd77dm8
p1658
I1
sVdgpr872
p1659
I1
sVdernmk8
p1660
I1
sVcyxomso
p1661
I1
sVd1603os
p1662
I6
sVdpamqmi
p1663
I1
sVd99sbw5
p1664
I1
sVd3kb0ab
p1665
I1
sVd00r8ou
p1666
I1
sVdjxd2n3
p1667
I1
sVdb3thfp
p1668
I1
sVdf5cdm8
p1669
I3
sVdbmee05
p1670
I1
sVcynv73y
p1671
I1
sVd70mmtr
p1672
I1
sVdf18txj
p1673
I2
sVddmd6on
p1674
I1
sVdqmpxtb
p1675
I1
sVd81z3ve
p1676
I5
sVdibut2g
p1677
I1
sVd6dx5ys
p1678
I1
sVd8iq4do
p1679
I2
sVd81xnc0
p1680
I1
sVdkn1xf5
p1681
I2
sVd50g7xo
p1682
I1
sVdgsb18r
p1683
I1
sVd5on975
p1684
I1
sVda9bmcn
p1685
I3
sVczrhsyj
p1686
I1
sVdcmbsiu
p1687
I1
sVd80glyr
p1688
I2
sVd1mnu2x
p1689
I2
sVdbnmkw3
p1690
I1
sVd6w6bno
p1691
I3
sVcyzqvpx
p1692
I3
sVd5ur8ew
p1693
I2
sVcyjznq3
p1694
I1
sVczxm0ah
p1695
I2
sVd9pdy55
p1696
I1
sVcyjj7v6
p1697
I1
sVdg6qi69
p1698
I1
sVd2fh8bs
p1699
I1
sVdgvrh58
p1700
I1
sVdf3bkuf
p1701
I1
sVdelwuqc
p1702
I1
sVddql7i7
p1703
I1
sVdn3ifsy
p1704
I1
sVczymwwa
p1705
I1
sVcyjrfco
p1706
I1
sVdfsbd6v
p1707
I1
sVcyion75
p1708
I2
sVd57z3yt
p1709
I1
sVd1aqul9
p1710
I1
sVdfyjl8n
p1711
I2
sVd6bbgec
p1712
I1
sVczttx70
p1713
I1
sVdc7fugk
p1714
I2
sVdn1674p
p1715
I2
sVd8ejirm
p1716
I1
sVd9kgzqx
p1717
I1
sVd3o8sq8
p1718
I1
sVde2xq4g
p1719
I1
sVdatduc2
p1720
I1
sVd0j9mo5
p1721
I1
sVdffon9b
p1722
I4
sVdjh7hrh
p1723
I1
sVd37o7p5
p1724
I1
sVdhvbn6x
p1725
I1
sVdgma4oq
p1726
I6
sVdejhzuw
p1727
I1
sVdpmjt15
p1728
I1
sVd7pc89e
p1729
I1
sVd882seo
p1730
I1
sVd73zjw6
p1731
I2
sVd1pbzlp
p1732
I2
sVd2h3aep
p1733
I2
sVdf9epfn
p1734
I1
sVdfdexh3
p1735
I2
sVd27keqn
p1736
I1
sVdorjhno
p1737
I1
sVd6eja9g
p1738
I1
sVd1r1dsp
p1739
I1
sVd6f5u0g
p1740
I4
sVddewxof
p1741
I3
sVd6t9tad
p1742
I2
sVdah0pid
p1743
I1
sVd0i7wbi
p1744
I1
sVdml43c9
p1745
I1
sVdhi9sko
p1746
I1
sVdaemspt
p1747
I1
sVd48hsmv
p1748
I1
sVdjelen2
p1749
I1
sVd0ljxou
p1750
I1
sVdcoc1m2
p1751
I1
sVd7a1ann
p1752
I1
sVdfa1ya3
p1753
I1
sVd7tmhck
p1754
I1
sVdas9659
p1755
I1
sVdeffgrv
p1756
I1
sVd3u0n3j
p1757
I1
sVdopq038
p1758
I1
sVdid5qib
p1759
I1
sVd5vrpko
p1760
I1
sVczhvrng
p1761
I2
sVdg7qex0
p1762
I2
sVdnepbcy
p1763
I3
sVd9dfw21
p1764
I2
sVd88b65y
p1765
I1
sVdhiwdti
p1766
I1
sVdephrlc
p1767
I1
sVd0gboco
p1768
I1
sVddzyybk
p1769
I1
sVd13qb64
p1770
I1
sVd1q8xgo
p1771
I1
sVdabkpqe
p1772
I1
sVdpi5t5a
p1773
I3
sVdeitmou
p1774
I1
sVdqjb8b0
p1775
I1
sVd7g51ge
p1776
I1
sVdqg8qc8
p1777
I2
sVdges7d0
p1778
I4
sVdezzf18
p1779
I1
sVda30xhm
p1780
I1
sVd3orjnl
p1781
I1
sVcys7ie3
p1782
I1
sVdgx7kgn
p1783
I1
sVd5ec9u1
p1784
I3
sVd8q8trn
p1785
I1
sVd0a7j6t
p1786
I6
sVdfjm52r
p1787
I1
sVdqt68op
p1788
I1
sVcyyf3bv
p1789
I2
sVd7v07nk
p1790
I2
sVd6fcqc1
p1791
I1
sVd2kn1t6
p1792
I1
sVd1n3la0
p1793
I1
sVddwwqy9
p1794
I1
sVd6d2mzp
p1795
I1
sVd0oohu6
p1796
I1
sVd2bxyb6
p1797
I2
sVdbgqpfm
p1798
I1
sVdd1dtt4
p1799
I2
sVde8iqyn
p1800
I1
sVdeqb072
p1801
I1
sVd8frz1p
p1802
I1
sVd83420x
p1803
I1
sVd1nlcjp
p1804
I1
sVdhcje1v
p1805
I1
sVd1wlfks
p1806
I1
sVdckb81j
p1807
I1
sVd3j6npo
p1808
I1
sVdpp5qk0
p1809
I1
sVdchtah5
p1810
I1
sVdh0x83g
p1811
I1
sVczrj0en
p1812
I1
sVd36034m
p1813
I1
sVd7u94mu
p1814
I1
sVd2nzaj5
p1815
I1
sVd3onqio
p1816
I1
sVdmpxuql
p1817
I1
sVdtbtn16
p1818
I1
sVdckuo3d
p1819
I1
sVde9sok8
p1820
I1
sVdauecsg
p1821
I1
sVdhx6bn4
p1822
I1
sVd4733lm
p1823
I1
sVdq14akr
p1824
I5
sVdjyvabh
p1825
I1
sVd6pk33y
p1826
I1
sVd1k13j4
p1827
I1
sVdgyz798
p1828
I1
sVczpusck
p1829
I1
sVd38ev2l
p1830
I1
sVdejvrs4
p1831
I1
sVdauj9wj
p1832
I2
sVd5rizq7
p1833
I2
sVd7zhs9d
p1834
I1
sVd6gpkhf
p1835
I1
sVd1pajug
p1836
I7
sVd31825u
p1837
I1
sVdaqbcch
p1838
I1
sVd5jpxbw
p1839
I1
sVd9cfypg
p1840
I2
sVdglrzoy
p1841
I1
sVd277ohg
p1842
I2
sVdbrl9d6
p1843
I1
sVdfh0d3m
p1844
I1
sVcz5a56b
p1845
I1
sVdt28tnz
p1846
I1
sVdtaibzo
p1847
I1
sVczt8pum
p1848
I1
sVd5nftb4
p1849
I1
sVdpvaoui
p1850
I1
sVdg8gmj4
p1851
I1
sVdeijdcx
p1852
I1
sVd1s8gfk
p1853
I1
sVd658kqn
p1854
I2
sVd9kksry
p1855
I1
sVd0zw1z0
p1856
I1
sVdhey648
p1857
I1
sVd1f8w3a
p1858
I1
sVdnw77kq
p1859
I1
sVdibfaq8
p1860
I1
sVdbrmq2d
p1861
I1
sVddbz0y1
p1862
I3
sVdhnakey
p1863
I1
sVcyr034t
p1864
I1
sVddretwg
p1865
I1
sVdn3uhl5
p1866
I2
sVd04peii
p1867
I1
sVdcpzbzf
p1868
I2
sVd19udfx
p1869
I1
sVd1c14vs
p1870
I1
sVdj7dqof
p1871
I1
sVdeoad5i
p1872
I1
sVd3fxu7q
p1873
I1
sVdgk4b7b
p1874
I1
sVd73069e
p1875
I1
sVd2wn2rr
p1876
I1
sVddw9qtf
p1877
I1
sVd8hoqy1
p1878
I1
sVd4538ga
p1879
I1
sVd8hp90k
p1880
I1
sVd5s8gza
p1881
I1
sVd88r1dh
p1882
I1
sVd5oxyal
p1883
I1
sVdfgfvup
p1884
I2
sVd28lfw2
p1885
I1
sVd5bkyvi
p1886
I1
sVdi27y46
p1887
I1
sVdeu0qif
p1888
I3
sVdeifja9
p1889
I1
sVdk5go9q
p1890
I1
sVdes8dei
p1891
I1
sVdg5dqi6
p1892
I1
sVdnb0mud
p1893
I1
sVd7d294l
p1894
I1
sVdb9itol
p1895
I1
sVdgd1cm7
p1896
I2
sVdivorvp
p1897
I1
sVd08vh4y
p1898
I1
sVd44vke8
p1899
I1
sVdiroj5b
p1900
I1
sVd6f3y01
p1901
I3
sVdahfj9o
p1902
I1
sVdjcfw0z
p1903
I1
sVcz2ui64
p1904
I2
sVdd6rx4b
p1905
I1
sVdecsgxe
p1906
I2
sVdomxqyq
p1907
I1
sVdjt1vbw
p1908
I2
sVdtf9t34
p1909
I1
sVdchyrpv
p1910
I1
sVd0uyi3g
p1911
I1
sVd6fmaol
p1912
I1
sVd4xxywb
p1913
I1
sVdhau6xh
p1914
I1
sVd1klz5j
p1915
I1
sVdre46gk
p1916
I1
sVd3wljng
p1917
I1
sVdk4zh31
p1918
I1
sVdn16nmm
p1919
I2
sVd45mtqz
p1920
I5
sVcyk1kfp
p1921
I1
sVdf1mars
p1922
I1
sVd8nwgnh
p1923
I1
sVd3za1os
p1924
I1
sVddcz7n3
p1925
I2
sVcyis92v
p1926
I1
sVd327lh4
p1927
I1
sVd45l25h
p1928
I3
sVdeqm6u3
p1929
I1
sVdqb4gzh
p1930
I1
sVdc8nqyo
p1931
I1
sVd3s13hf
p1932
I2
sVdbuwe4l
p1933
I1
sVd2922y1
p1934
I3
sVd4uyv9l
p1935
I1
sVd5boqki
p1936
I1
sVddktjn1
p1937
I2
sVdbxh259
p1938
I1
sVdq5k5l7
p1939
I2
sVdbk6wgy
p1940
I1
sVdodvnk5
p1941
I1
sVd0xzx7s
p1942
I1
sVd3wcrf4
p1943
I1
sVdogchdy
p1944
I1
sVdd1wk5e
p1945
I1
sVdeb03n4
p1946
I2
sVczhujaq
p1947
I1
sVdepi6qn
p1948
I1
sVd0tcuij
p1949
I1
sVd7s2x3z
p1950
I1
sVdku8rmn
p1951
I1
sVd1ghzfu
p1952
I1
sVcyu7rjo
p1953
I3
sVd14sb85
p1954
I1
sVdkcwwu7
p1955
I1
sVcyjdbti
p1956
I1
sVdky2yhe
p1957
I1
sVd18vo2l
p1958
I1
sVdef8m77
p1959
I2
sVd9519ag
p1960
I1
sVd33gs6a
p1961
I1
sVdmoi68q
p1962
I1
sVd1riode
p1963
I1
sVdgbvelw
p1964
I1
sVda89fwv
p1965
I1
sVd0rg3pd
p1966
I1
sVdpy64zz
p1967
I1
sVdhgver3
p1968
I1
sVdiai6lw
p1969
I1
sVcyz7pf7
p1970
I1
sVdes553n
p1971
I2
sVda8hxbi
p1972
I1
sVd9zpqeh
p1973
I1
sVdae52ex
p1974
I1
sVd80whpz
p1975
I1
sVd4hxej5
p1976
I1
sVd1iiig5
p1977
I1
sVd2ueiqy
p1978
I1
sVd8bxwq8
p1979
I1
sVdf1w2ud
p1980
I1
sVd2inns2
p1981
I1
sVd7a1j8j
p1982
I1
sVdd5zj7f
p1983
I2
sVd66gizo
p1984
I1
sVdgy6r9s
p1985
I1
sVcyrdks7
p1986
I1
sVd1qs34e
p1987
I2
sVcz4voqx
p1988
I1
sVddy7dad
p1989
I1
sVda19vkk
p1990
I3
sVdfom9kx
p1991
I1
sVdpusc9h
p1992
I1
sVd7cojb9
p1993
I1
sVda1edyz
p1994
I2
sVddilz5a
p1995
I1
sVd0nrm47
p1996
I2
sVdpsje5a
p1997
I1
sVdajr89w
p1998
I1
sVdheys3u
p1999
I1
sVcyocibm
p2000
I1
sVd67q7hq
p2001
I1
sVdo95du9
p2002
I2
sVda1n53a
p2003
I1
sVdpyfpkv
p2004
I1
sVd9h8qkg
p2005
I3
sVdtc3ghx
p2006
I1
sVczd0m4c
p2007
I1
sVdfzw8vq
p2008
I4
sVcz2f55m
p2009
I1
sVd3ur4sw
p2010
I2
sVdksp6hw
p2011
I2
sVd9o7kt7
p2012
I1
sVdhgxhaf
p2013
I3
sVdfb2c77
p2014
I1
sVd2bbsg9
p2015
I1
sVczd0rzh
p2016
I2
sVd1padz7
p2017
I5
sVdd3iv2g
p2018
I1
sVd9yp91j
p2019
I1
sVdgrzky1
p2020
I1
sVdhds8go
p2021
I1
sVd6vz7nm
p2022
I1
sVda66m9j
p2023
I1
sVd1k5cau
p2024
I1
sVd1per3b
p2025
I1
sVdnrvqj8
p2026
I1
sVcz7keh6
p2027
I2
sVdp7x42t
p2028
I1
sVdhood06
p2029
I1
sVd5y8h36
p2030
I1
sVcyonrkv
p2031
I1
sVdgnt7ys
p2032
I2
sVdemj5gx
p2033
I2
sVdbo2cyh
p2034
I1
sVdakpk68
p2035
I1
sVd0w77t9
p2036
I1
sVdh9wump
p2037
I1
sVd94igxb
p2038
I1
sVd1ym2a5
p2039
I1
sVd3oqyet
p2040
I2
sVdi33gbi
p2041
I1
sVdf3bsqh
p2042
I1
sVd3f1xy5
p2043
I1
sVd5e09bv
p2044
I1
sVdgae59d
p2045
I1
sVd887t8e
p2046
I1
sVd0umu72
p2047
I1
sVd8eiwx6
p2048
I1
sVd0i77pi
p2049
I2
sVdfz0fal
p2050
I1
sVd47brqh
p2051
I1
sVd8xuy8p
p2052
I1
sVdbcgq3l
p2053
I1
sVds9mo5i
p2054
I1
sVdgaf7bi
p2055
I1
sVd2dxumq
p2056
I1
sVdin11tv
p2057
I1
sVd405ml0
p2058
I1
sVdjz2fvo
p2059
I1
sVcyyykub
p2060
I2
sVddoil3p
p2061
I1
sVdjmf7tb
p2062
I1
sVdgo1rbk
p2063
I1
sVdfal6d9
p2064
I1
sVdflw1s4
p2065
I1
sVd6w3if6
p2066
I1
sVd1o9t7c
p2067
I1
sVdklqhhb
p2068
I1
sVdd5pyjy
p2069
I1
sVd0viwqr
p2070
I1
sVdirg927
p2071
I1
sVdf1nit8
p2072
I1
sVdb7sv93
p2073
I1
sVd0nl0wj
p2074
I1
sVd4668ji
p2075
I2
sVdtfdkra
p2076
I1
sVdhgarbl
p2077
I1
sVd49rk0e
p2078
I1
sVdh011gq
p2079
I1
sVczc0u6t
p2080
I1
sVdejsquq
p2081
I4
sVd46x4xe
p2082
I1
sVdbk2u84
p2083
I1
sVd01xe6t
p2084
I2
sVdid71y5
p2085
I2
sVdbmek2v
p2086
I1
sVdezos5m
p2087
I1
sVdat6wxe
p2088
I1
sVdc5hl56
p2089
I1
sVd3b9eiu
p2090
I1
sVdnawmyh
p2091
I1
sVd9gge7c
p2092
I1
sVd5oqn0z
p2093
I1
sVddxddiz
p2094
I1
sVd624ijf
p2095
I1
sVdfgqa0k
p2096
I1
sVdhgj594
p2097
I2
sVd4of6ko
p2098
I1
sVd0kp688
p2099
I1
sVd3i3qfn
p2100
I1
sVdhg38dh
p2101
I1
sVd838ulw
p2102
I1
sVd96c0i5
p2103
I1
sVd32ydlb
p2104
I1
sVds15rak
p2105
I1
sVdaphgz8
p2106
I5
sVd0nvrfk
p2107
I1
sVd9pxi7m
p2108
I5
sVdi4xez1
p2109
I1
sVdb62dva
p2110
I2
sVdidp564
p2111
I11
sVdkjtade
p2112
I1
sVczb3pm4
p2113
I1
sVd1xu2u5
p2114
I1
sVd69eoj7
p2115
I1
sVditcb8z
p2116
I2
sVd4gox3q
p2117
I1
sVddw0ff7
p2118
I1
sVczhz7fr
p2119
I4
sVd5y4oms
p2120
I1
sVda1eiv6
p2121
I1
sVdd4lofv
p2122
I1
sVcyjnhga
p2123
I1
sVd9pidw6
p2124
I1
sVdebnsni
p2125
I1
sVdisrq51
p2126
I1
sVd3bfw8z
p2127
I1
sVdenoinm
p2128
I1
sVd00gv68
p2129
I1
sVdiptapu
p2130
I4
sVdkr21od
p2131
I3
sVcyjfhha
p2132
I1
sVd255qdz
p2133
I1
sVczm9o7p
p2134
I1
sVd1c6ipk
p2135
I1
sVdcg4l0c
p2136
I2
sVdk0dahu
p2137
I1
sVd83xzwn
p2138
I6
sVdfossh2
p2139
I1
sVd3xpne4
p2140
I1
sVczeixcg
p2141
I1
sVdejqs3o
p2142
I1
sVdgh2pbl
p2143
I1
sVdhceklu
p2144
I3
sVd03cmz3
p2145
I1
sVdhs4pcu
p2146
I1
sVd8uskvs
p2147
I1
sVddfvr03
p2148
I1
sVdhlhyd1
p2149
I1
sVd5dofu4
p2150
I2
sVd4flqy9
p2151
I1
sVdeuext6
p2152
I1
sVd21qygb
p2153
I1
sVd8ffis3
p2154
I1
sVd58eggh
p2155
I1
sVdq5id5u
p2156
I2
sVde6heb5
p2157
I1
sVdi2cqg8
p2158
I1
sVd7k8lnj
p2159
I2
sVdn2wly9
p2160
I1
sVdokwpa8
p2161
I1
sVdarc56q
p2162
I1
sVdhzmijb
p2163
I1
sVdcxcalp
p2164
I1
sVczfxht7
p2165
I3
sVd018t15
p2166
I1
sVczcibzm
p2167
I3
sVdefehct
p2168
I1
sVd9zb7gx
p2169
I1
sVddxc87p
p2170
I1
sVd8kyap4
p2171
I1
sVdk8r870
p2172
I1
sVd1pcduw
p2173
I1
sVd7mktaa
p2174
I1
sVdo5s5xf
p2175
I1
sVdaz9c8d
p2176
I1
sVdh0u9me
p2177
I1
sVd5uwwtf
p2178
I1
sVd90h0tr
p2179
I1
sVdhf98ve
p2180
I1
sVdozmleq
p2181
I1
sVdffcpxo
p2182
I1
sVdam5ehr
p2183
I4
sVd9fryqh
p2184
I1
sVdt35xyw
p2185
I1
sVd2x0663
p2186
I1
sVd71ry1s
p2187
I1
sVd2zhkqz
p2188
I1
sVdhgfih5
p2189
I2
sVd88lwz3
p2190
I1
sVdjr9u2h
p2191
I1
sVd1vrhfo
p2192
I1
sVdaijoor
p2193
I4
sVdbjah4n
p2194
I1
sVdqfdh2a
p2195
I1
sVd476m4k
p2196
I1
sVd1d6bnp
p2197
I1
sVd2u7brd
p2198
I1
sVdg7mhi7
p2199
I1
sVd1d845t
p2200
I1
sVdgqzg7f
p2201
I2
sVdq9san0
p2202
I1
sVd9d3rdf
p2203
I1
sVdix6y34
p2204
I1
sVdhor64o
p2205
I2
sVdf6d27d
p2206
I1
sVdnnpkmr
p2207
I1
sVcz2qaz2
p2208
I1
sVdfzw20v
p2209
I1
sVddjmra5
p2210
I1
sVcyp6acr
p2211
I1
sVd4wc715
p2212
I2
sVd284ifg
p2213
I1
sVczur217
p2214
I1
sVdko4o7n
p2215
I1
sVczou9us
p2216
I1
sVd3i424a
p2217
I7
sVdfos8q5
p2218
I2
sVd9voqp8
p2219
I1
sVdf1qhtz
p2220
I5
sVdnp9hkc
p2221
I1
sVcyswz3y
p2222
I1
sVd05k8ea
p2223
I3
sVd0xxbqt
p2224
I1
sVdguycvz
p2225
I1
sVcyysvcp
p2226
I2
sVdi1qhn5
p2227
I1
sVd9fqao2
p2228
I1
sVdc3hcmf
p2229
I1
sVdjcuazv
p2230
I1
sVd3jq3ge
p2231
I1
sVdb9pxlw
p2232
I1
sVdg1p5fl
p2233
I1
sVd1vbeym
p2234
I2
sVd5rtbsi
p2235
I2
sVd3zlxya
p2236
I1
sVdhiqu2p
p2237
I1
sVdf5hw7s
p2238
I1
sVdghe9kq
p2239
I5
sVczue9ax
p2240
I2
sVdhjdshu
p2241
I3
sVddwf8zb
p2242
I1
sVd7fe2v0
p2243
I1
sVdisbh07
p2244
I1
sVdbvhky5
p2245
I1
sVdako0ko
p2246
I1
sVd0elpzq
p2247
I1
sVdeya85j
p2248
I1
sVdb4714q
p2249
I4
sVd15wgor
p2250
I1
sVdia394o
p2251
I1
sVd2vr186
p2252
I1
sVczh9gpb
p2253
I1
sVd0f8neg
p2254
I2
sVdimlixo
p2255
I3
sVd1o1eq7
p2256
I1
sVdrho3pe
p2257
I1
sVdkqiawg
p2258
I1
sVd2q8bmh
p2259
I1
sVd9e32j9
p2260
I1
sVcz2nd3f
p2261
I1
sVdaub6ep
p2262
I1
sVdsyf0go
p2263
I1
sVd7jqwth
p2264
I1
sVdao6lnr
p2265
I1
sVd49z689
p2266
I1
sVda1akmo
p2267
I1
sVd5khac4
p2268
I1
sVdj6wyp3
p2269
I1
sVde19k0k
p2270
I1
sVdgx1ea4
p2271
I1
sVd49tpzo
p2272
I1
sVdt10uz1
p2273
I1
sVd6tddsj
p2274
I1
sVdf6fqyp
p2275
I1
sVdkv6xtk
p2276
I1
sVdave7y6
p2277
I2
sVdbisilj
p2278
I1
sVdbje4c0
p2279
I1
sVdnchgem
p2280
I1
sVdehbj9g
p2281
I1
sVdiekb7h
p2282
I1
sVdbnq68g
p2283
I1
sVdc1cnsc
p2284
I1
sVd7i1hru
p2285
I1
sVdjfhon8
p2286
I1
sVd2prkc6
p2287
I1
sVdcqi255
p2288
I1
sVd0av2gm
p2289
I1
sVd0y33oq
p2290
I1
sVdfjqc1t
p2291
I2
sVd4zn4ak
p2292
I1
sVd5ftnsk
p2293
I1
sVd2b7q1j
p2294
I1
sVdaxo0q3
p2295
I1
sVdicut07
p2296
I1
sVd2el3di
p2297
I1
sVd6f44b5
p2298
I1
sVczbjbkt
p2299
I2
sVdea65bq
p2300
I1
sVczoo6oy
p2301
I1
sVd14p3ga
p2302
I1
sVddcmu2y
p2303
I1
sVd27jrga
p2304
I7
sVdgdyx8t
p2305
I1
sVczetmhi
p2306
I3
sVdqfnsis
p2307
I2
sVdd6nfx0
p2308
I1
sVdg4dhmu
p2309
I1
sVddbh5pj
p2310
I3
sVdc6y7v2
p2311
I1
sVd9heu79
p2312
I1
sVd7kf00u
p2313
I1
sVdfsi406
p2314
I1
sVdosyyc3
p2315
I1
sVd69aheo
p2316
I2
sVd9m2qnx
p2317
I1
sVddeie9s
p2318
I1
sVdghnd2z
p2319
I1
sVd0qpxu7
p2320
I6
sVd17ypwj
p2321
I1
sVd2q9bic
p2322
I1
sVddpjs44
p2323
I3
sVd0p4vte
p2324
I2
sVdekiq5x
p2325
I1
sVd3nfv3g
p2326
I1
sVcz97prw
p2327
I1
sVcz91xxt
p2328
I1
sVdjpz9b2
p2329
I1
sVd7u85my
p2330
I1
sVdf7utee
p2331
I2
sVdqgca9f
p2332
I1
sVdbudi7u
p2333
I1
sVd7ie2gl
p2334
I1
sVd4bk73b
p2335
I2
sVd67ub33
p2336
I1
sVd761gja
p2337
I1
sVdkqfa2l
p2338
I1
sVd2m6k3e
p2339
I3
sVd7k16ji
p2340
I1
sVdhrhfjy
p2341
I1
sVdrz4n0k
p2342
I1
sVd1khr07
p2343
I1
sVdj1uo2y
p2344
I1
sVdaa8rv1
p2345
I1
sVdn4dw27
p2346
I4
sVdkqtztg
p2347
I1
sVdfr0fcg
p2348
I1
sVdavvucj
p2349
I1
sVdt9tijj
p2350
I2
sVdoeomn5
p2351
I1
sVd2qf007
p2352
I2
sVd6mkjn7
p2353
I4
sVd6eymyj
p2354
I1
sVcz4x7s5
p2355
I1
sVdc7o5dc
p2356
I1
sVdemegsq
p2357
I1
sVdmf4kcf
p2358
I1
sVdbi2htc
p2359
I1
sVd9vahxb
p2360
I1
sVdd8670j
p2361
I1
sVd5zpg72
p2362
I1
sVdkczlzf
p2363
I1
sVd17y0gl
p2364
I2
sVdh6b67n
p2365
I1
sVdgx1ar1
p2366
I1
sVda7yxm7
p2367
I1
sVcykqt5b
p2368
I2
sVdrz1vht
p2369
I4
sVdaateew
p2370
I1
sVd1pzlt6
p2371
I1
sVdb6uypf
p2372
I1
sVdsw3bik
p2373
I1
sVczvj1f8
p2374
I1
sVdhsdd9s
p2375
I1
sVczv7dhl
p2376
I1
sVd048lr0
p2377
I1
sVd4gxyxn
p2378
I3
sVdkhokrn
p2379
I1
sVdn83fms
p2380
I3
sVd2g85g6
p2381
I1
sVcys1hro
p2382
I1
sVd4vjokd
p2383
I1
sVd9alx5t
p2384
I1
sVd2v1uoq
p2385
I1
sVdf14ioz
p2386
I2
sVd25d8v2
p2387
I2
sVdjkqbrk
p2388
I1
sVdckqi4v
p2389
I1
sVddxq3ep
p2390
I2
sVdg34opt
p2391
I1
sVdrhoeoc
p2392
I1
sVd5lxs1v
p2393
I1
sVdf17x2b
p2394
I1
sVd46tqt2
p2395
I1
sVd4p8b96
p2396
I1
sVdh5mbi2
p2397
I1
sVcz54u63
p2398
I5
sVd570k1j
p2399
I1
sVdoj894b
p2400
I1
sVd3mgaup
p2401
I1
sVdb4qx7y
p2402
I1
sVd6pnswe
p2403
I1
sVd7slxm7
p2404
I1
sVdit0fq3
p2405
I1
sVd1o25q7
p2406
I1
sVd1dwcx2
p2407
I1
sVd1785vy
p2408
I1
sVd9yodqa
p2409
I1
sVd87c1e8
p2410
I1
sVczbn178
p2411
I1
sVd1isiae
p2412
I1
sVcyz728b
p2413
I1
sVczu7sxz
p2414
I1
sVdd9v09h
p2415
I1
sVdboo6da
p2416
I1
sVdk95q3m
p2417
I3
sVddxkd78
p2418
I1
sVdc3e7dq
p2419
I1
sVdgma81a
p2420
I4
sVd5geedy
p2421
I1
sVdrguty0
p2422
I3
sVde60li1
p2423
I1
sVd2qr79o
p2424
I1
sVd9h5hbj
p2425
I1
sVdasvq81
p2426
I1
sVdemh6gc
p2427
I1
sVdkvjmo5
p2428
I1
sVd5y71d9
p2429
I1
sVdbh5qic
p2430
I1
sVda65e1v
p2431
I2
sVdjk5kzr
p2432
I1
sVd9aiyuh
p2433
I2
sVdckncmm
p2434
I1
sVdicwnnu
p2435
I1
sVda9grmu
p2436
I1
sVd4bnkwb
p2437
I2
sVd5hwqif
p2438
I1
sVdf6rebd
p2439
I1
sVd6i06pv
p2440
I1
sVddjqz4m
p2441
I1
sVdfa87bz
p2442
I1
sVdbxtlc5
p2443
I2
sVd4ft1vj
p2444
I1
sVd077ptt
p2445
I1
sVdg120rj
p2446
I1
sVd85tmb2
p2447
I1
sVd4up2b7
p2448
I2
sVdkbn282
p2449
I1
sVd4bq7e1
p2450
I1
sVd1nt877
p2451
I1
sVdbxvwva
p2452
I1
sVdgfwo50
p2453
I1
sVdfncq9z
p2454
I1
sVd8tdp3y
p2455
I1
sVdrdwcuh
p2456
I2
sVd4nz8ld
p2457
I1
sVdqllx58
p2458
I1
sVdds7gp6
p2459
I1
sVd1wp5ie
p2460
I1
sVczzw1l2
p2461
I1
sVdhedn9t
p2462
I1
sVcywq2g3
p2463
I1
sVd24hk6l
p2464
I1
sVdg54me6
p2465
I1
sVd1t02m5
p2466
I1
sVdoe75yu
p2467
I1
sVd8qq6n4
p2468
I4
sVdqmu90r
p2469
I1
sVcyietzv
p2470
I1
sVdcq1s93
p2471
I1
sVdnhkruc
p2472
I1
sVddm4u1w
p2473
I1
sVd07psjy
p2474
I1
sVd9n7olr
p2475
I1
sVcz30mri
p2476
I1
sVd0bv0nd
p2477
I1
sVd2wxe9k
p2478
I1
sVdjrsp8l
p2479
I1
sVdh7cl69
p2480
I1
sVdclg8o5
p2481
I1
sVd9hkieo
p2482
I1
sVcynad0d
p2483
I1
sVd0ksceh
p2484
I1
sVdms8aqp
p2485
I1
sVd56z3je
p2486
I1
sVd1zy4im
p2487
I1
sVczfncoa
p2488
I1
sVdg4gqc5
p2489
I3
sVd5c1fod
p2490
I1
sVdjxvo3t
p2491
I1
sVdjf68ys
p2492
I1
sVd84xqk8
p2493
I2
sVdehbgpl
p2494
I2
sVcyymm51
p2495
I1
sVd51yfps
p2496
I1
sVd1bmzdf
p2497
I3
sVd72f726
p2498
I1
sVd2x2ncq
p2499
I1
sVd86bv90
p2500
I1
sVd916u6w
p2501
I1
sVd4mxkbo
p2502
I1
sVdoevgdq
p2503
I3
sVcyi9vk2
p2504
I1
sVdexh0o0
p2505
I1
sVd0myr1l
p2506
I1
sVd2fls5i
p2507
I1
sVdji9jd7
p2508
I2
sVdauy1f6
p2509
I1
sVdazqk9x
p2510
I1
sVdft9o8o
p2511
I1
sVdi6htp9
p2512
I1
sVdfsv5xd
p2513
I1
sVdd6yiag
p2514
I2
sVd76p569
p2515
I2
sVczs4z8l
p2516
I1
sVddw48c0
p2517
I2
sVda76s9s
p2518
I2
sVdea45i0
p2519
I1
sVdjeoh2w
p2520
I1
sVdpummcg
p2521
I1
sVdqfgc6a
p2522
I1
sVd1v7t2t
p2523
I1
sVdhcdd4s
p2524
I1
sVd1qlo9g
p2525
I1
sVdkkj3vm
p2526
I1
sVdas7ruz
p2527
I1
sVd4d5enz
p2528
I2
sVdg4669f
p2529
I1
sVdewcxsg
p2530
I1
sVdiv0rby
p2531
I1
sVdgng8kn
p2532
I3
sVd8thwj9
p2533
I2
sVdhss6d2
p2534
I1
sVddu3cjs
p2535
I1
sVdksy9cm
p2536
I1
sVdn1aojk
p2537
I10
sVdnhalro
p2538
I3
sVd0gfl3r
p2539
I1
sVdizjhwn
p2540
I1
sVd1nc2zv
p2541
I1
sVdd3ob8e
p2542
I1
sVdnaxpbq
p2543
I1
sVd4f49sm
p2544
I2
sVdclh169
p2545
I1
sVcyu7nv9
p2546
I2
sVd77j9nm
p2547
I2
sVd8f8elr
p2548
I1
sVdjeblwv
p2549
I1
sVd31ewa0
p2550
I1
sVddi08u6
p2551
I1
sVd7hi5h2
p2552
I4
sVdbkzjdc
p2553
I3
sVdixyw1g
p2554
I2
sVd15wf71
p2555
I4
sVcyn09y2
p2556
I1
sVd90xr0p
p2557
I1
sVd2krnnh
p2558
I3
sVdf8tv56
p2559
I1
sVd8vrsyo
p2560
I1
sVczx5dt4
p2561
I1
sVczs2adb
p2562
I1
sVdn43hqm
p2563
I1
sVd7oiyeo
p2564
I1
sVd44zwfx
p2565
I1
sVdo5n962
p2566
I1
sVdimm4td
p2567
I1
sVczi6uch
p2568
I1
sVd1fuxxd
p2569
I1
sVdbi98tq
p2570
I2
sVd9nokhm
p2571
I1
sVda9y5mz
p2572
I1
sVdf1r4db
p2573
I5
sVdgkjntx
p2574
I1
sVdjix8c6
p2575
I1
sVd6t0ojx
p2576
I1
sVd66icgp
p2577
I1
sVd8zmego
p2578
I1
sVd2y1ehl
p2579
I1
sVdazokz9
p2580
I1
sVde8l999
p2581
I1
sVdeuoomp
p2582
I1
sVdqfi78o
p2583
I1
sVd7if9pn
p2584
I1
sVcyo1wts
p2585
I1
sVdkm4vu1
p2586
I1
sVdgbja44
p2587
I1
sVd0339ou
p2588
I1
sVcz3grev
p2589
I6
sVdho9ofo
p2590
I1
sVd1r3gsy
p2591
I1
sVdskv0dg
p2592
I1
sVdetx12m
p2593
I1
sVd1btxxz
p2594
I1
sVd7ypjoi
p2595
I3
sVdbp2svi
p2596
I1
sVd56jbvo
p2597
I4
sVd1ug7vv
p2598
I1
sVd7z2o3w
p2599
I3
sVdhgdop4
p2600
I1
sVd6dyqg4
p2601
I1
sVdhgavb2
p2602
I1
sVdiaedxj
p2603
I1
sVdstsq7p
p2604
I1
sVdq506zz
p2605
I1
sVdcw2l4o
p2606
I1
sVdd3jkp0
p2607
I1
sVd2p3b1c
p2608
I1
sVdh6847h
p2609
I2
sVdarl30n
p2610
I1
sVd2145e3
p2611
I1
sVdi0jyh4
p2612
I1
sVdr1660t
p2613
I1
sVdo9b6ce
p2614
I1
sVd0klf6r
p2615
I1
sVdj7l5vu
p2616
I1
sVdht1ub9
p2617
I1
sVda13j11
p2618
I2
sVdputn8x
p2619
I1
sVdc1omtd
p2620
I1
sVcyrqhu5
p2621
I8
sVd07ouxg
p2622
I1
sVde9hfp1
p2623
I1
sVdeiyr3f
p2624
I1
sVcyji9p4
p2625
I1
sVd5a98dz
p2626
I1
sVdjnuk5u
p2627
I2
sVdbl7u40
p2628
I1
sVd2bmg7v
p2629
I1
sVcyno8eh
p2630
I1
sVd9inbxx
p2631
I2
sVdfk0dd3
p2632
I2
sVd3v2d1e
p2633
I1
sVdfzmr84
p2634
I1
sVds19p0a
p2635
I1
sVdb5y4dx
p2636
I1
sVczizjrs
p2637
I1
sVd08p81o
p2638
I2
sVd2m37d6
p2639
I1
sVdbf44wz
p2640
I1
sVd98z3wl
p2641
I1
sVdbg0c9h
p2642
I1
sVdazieb5
p2643
I1
sVdmfnqtq
p2644
I1
sVd75gxq8
p2645
I1
sVdrrcvdz
p2646
I1
sVd1w9eix
p2647
I1
sVdbcp3qi
p2648
I1
sVcyjzk83
p2649
I1
sVd9dhalu
p2650
I2
sVd7kf3st
p2651
I1
sVd1mgtx2
p2652
I1
sVd4qhrsm
p2653
I1
sVdejny0d
p2654
I1
sVd9d8rw3
p2655
I1
sVddyyx55
p2656
I1
sVdhxdg1j
p2657
I2
sVdrz7tbj
p2658
I5
sVd0d3cxt
p2659
I1
sVd6bcbbp
p2660
I4
sVd3tfg7q
p2661
I1
sVd6l65mw
p2662
I1
sVd3stylo
p2663
I1
sVdegzcmo
p2664
I1
sVd497pq8
p2665
I1
sVdn72xt9
p2666
I2
sVd88q0nb
p2667
I4
sVd00xcd9
p2668
I1
sVd9ifjr1
p2669
I1
sVcywoqxw
p2670
I1
sVdatw7bx
p2671
I1
sVdeethmd
p2672
I1
sVdbwbi9s
p2673
I1
sVdcuhh37
p2674
I1
sVdbjciq2
p2675
I3
sVd55kjg7
p2676
I1
sVdcyga8a
p2677
I1
sVdcx2yt5
p2678
I2
sVczl86ol
p2679
I1
sVd0528wx
p2680
I1
sVdfvhem3
p2681
I1
sVdhyrc77
p2682
I1
sVdd59sr4
p2683
I1
sVd0e0l0v
p2684
I1
sVd1ktmn1
p2685
I2
sVd8m5xki
p2686
I2
sVdmhs35j
p2687
I1
sVd966bzm
p2688
I1
sVd93dvo6
p2689
I1
sVd4pg9mo
p2690
I2
sVdduoij6
p2691
I1
sVd8thml3
p2692
I1
sVdbsltfz
p2693
I1
sVd6nqk9r
p2694
I1
sVdgadteb
p2695
I1
sVczht1z8
p2696
I1
sVd5d6oq7
p2697
I1
sVdaawjbs
p2698
I1
sVczr08kl
p2699
I2
sVdj5lkxv
p2700
I1
sVd3rpe27
p2701
I1
sVdgu502c
p2702
I4
sVdns2alb
p2703
I1
sVddxpgox
p2704
I1
sVcywtgpp
p2705
I4
sVd3o8szy
p2706
I1
sVcyzd4p3
p2707
I1
sVd3cpuww
p2708
I1
sVd17p5xq
p2709
I2
sVd8e7qrf
p2710
I2
sVdthgc2n
p2711
I2
sVd3mstnp
p2712
I1
sVcz4gn22
p2713
I3
sVd2xm8td
p2714
I1
sVdkxk1ow
p2715
I2
sVd6yda1d
p2716
I1
sVddkvlxq
p2717
I1
sVda94c2t
p2718
I1
sVd1l0aay
p2719
I1
sVdhwzucv
p2720
I2
sVdft9wlt
p2721
I2
sVdkik89v
p2722
I1
sVd6wwhvt
p2723
I1
sVdadusy4
p2724
I2
sVdi0vlc6
p2725
I1
sVd28riot
p2726
I1
sVdemihf4
p2727
I1
sVd2p643k
p2728
I1
sVdeydxou
p2729
I1
sVdh8ldur
p2730
I1
sVdjwet21
p2731
I1
sVdmv4cgg
p2732
I2
sVd1ksykj
p2733
I1
sVdkt162x
p2734
I2
sVdfzw5un
p2735
I1
sVdgsqjdo
p2736
I1
sVdajilyn
p2737
I1
sVdiwqjj5
p2738
I1
sVde9dnp3
p2739
I1
sVdgmxclu
p2740
I2
sVcz1i13t
p2741
I1
sVd00mh1f
p2742
I1
sVd8nz5um
p2743
I1
sVd8r14oy
p2744
I1
sVd1vh3os
p2745
I1
sVdeu7mnr
p2746
I1
sVd54s44f
p2747
I2
sVczasfd2
p2748
I1
sVczi2vxx
p2749
I1
sVd23wyzl
p2750
I1
sVcz25gm9
p2751
I3
sVdf92e1k
p2752
I1
sVdiptfv9
p2753
I1
sVd753405
p2754
I1
sVdr1ba1j
p2755
I1
sVdjajoqg
p2756
I1
sVd749ozi
p2757
I1
sVddxoeo9
p2758
I1
sVd65oedn
p2759
I1
sVddh57ee
p2760
I1
sVcyz68lk
p2761
I1
sVd16sfp8
p2762
I1
sVd0l2jid
p2763
I1
sVd5kdba6
p2764
I1
sVcyiisan
p2765
I1
sVd3q8upi
p2766
I1
sVdd2ais0
p2767
I1
sVczpu3k8
p2768
I1
sVdnukilt
p2769
I1
sVcz3ltwu
p2770
I1
sVdhzhbyb
p2771
I1
sVd5ylona
p2772
I1
sVdiq3o82
p2773
I1
sVd70jfzi
p2774
I1
sVd9ugl39
p2775
I1
sVd9d99gx
p2776
I1
sVd96npgo
p2777
I1
sVdf8etbm
p2778
I1
sVcykv7br
p2779
I2
sVd6acdn1
p2780
I1
sVdmuoebp
p2781
I1
sVd5mmpb9
p2782
I1
sVczpl3v3
p2783
I1
sVdb5x3fe
p2784
I1
sVczwnfvu
p2785
I1
sVd3i40sm
p2786
I7
sVd3jfojb
p2787
I1
sVd3v492w
p2788
I2
sVda1fbh0
p2789
I3
sVd81k5r2
p2790
I1
sVd5n6l3m
p2791
I1
sVdp361a6
p2792
I1
sVd54ll9i
p2793
I1
sVd2y3tbi
p2794
I1
sVdpk4tol
p2795
I1
sVd5fxil8
p2796
I1
sVd7ukto3
p2797
I7
sVdojiucb
p2798
I1
sVcyzjunl
p2799
I1
sVdawv2sk
p2800
I1
sVdcm29qj
p2801
I1
sVd77bcuy
p2802
I1
sVdgt5s7z
p2803
I2
sVddq91to
p2804
I2
sVdey56hz
p2805
I1
sVczkvurn
p2806
I1
sVdafwdi7
p2807
I1
sVdf3lhrk
p2808
I1
sVczm67qc
p2809
I1
sVdcwbc6s
p2810
I1
sVd3t115l
p2811
I2
sVd20olgo
p2812
I1
sVd93cqbe
p2813
I2
sVdgx3nxv
p2814
I1
sVdfpzb48
p2815
I1
sVdfpwmt5
p2816
I1
sVdajkkcs
p2817
I1
sVd8v24a5
p2818
I1
sVda2dlrk
p2819
I1
sVdheowgs
p2820
I1
sVd0gi4lo
p2821
I1
sVd3i3u2c
p2822
I8
sVdbe6m19
p2823
I1
sVde2ibub
p2824
I1
sVcyix9zp
p2825
I1
sVdbsfie5
p2826
I1
sVcz3wss8
p2827
I1
sVdg9vx00
p2828
I1
s.