(dp0
Vdc0g9nx
p1
I1
sVdo9lscd
p2
I1
sVdd1zspe
p3
I1
sVdc49ior
p4
I1
sVdosm74i
p5
I3
sVdqmgral
p6
I2
sVd2xxq28
p7
I1
sVd1dddm3
p8
I3
sVczhbzym
p9
I1
sVd4lcq7f
p10
I1
sVdqacl49
p11
I1
sVdoskoo0
p12
I1
s.