(dp0
Vd1rc3o9
p1
I1
sVdgw8t07
p2
I2
sVd3pqotq
p3
I2
sVd3lp4qf
p4
I1
sVdfjzlc6
p5
I1
sVd2ph42j
p6
I1
sVd1x5air
p7
I2
sVd61upc2
p8
I1
sVdsyx7bh
p9
I1
sVd56yeil
p10
I1
sVdhmcx4x
p11
I1
sVdqmn7gz
p12
I1
sVdj8z5q6
p13
I1
sVd0z5107
p14
I1
sVd8nq5b9
p15
I1
sVdsmfuxb
p16
I1
sVd7ji35h
p17
I1
sVddj5wct
p18
I1
sVd3ekdu5
p19
I1
sVd9o9yyz
p20
I1
sVd1ikkdg
p21
I1
sVd9c8ret
p22
I1
sVczzvqec
p23
I1
sVdbnrtob
p24
I1
sVda9f637
p25
I1
sVdf52rl8
p26
I2
sVdn03esi
p27
I4
sVdfk36bd
p28
I1
s.