(dp0
Vczajmla
p1
I1
sVd0rfhmv
p2
I2
sVd0rghx4
p3
I1
sVd5nvapj
p4
I1
sVde7xij9
p5
I1
sVdsdyt8w
p6
I1
sVd3dq1pm
p7
I2
sVdof905l
p8
I1
sVd3ymnbx
p9
I1
sVd6kxe0b
p10
I1
sVd3muu21
p11
I1
sVdkv7fyx
p12
I1
sVd6nciqi
p13
I1
sVcz6hnvf
p14
I1
sVdkyhand
p15
I1
sVdo3zm1c
p16
I1
sVd0r4juv
p17
I2
sVdnavk8u
p18
I1
sVdpy484h
p19
I1
sVdbnlm1n
p20
I1
sVdaqmmbm
p21
I1
sVdrnnkhi
p22
I1
sVdbwozxs
p23
I1
sVd35u0vf
p24
I1
sVd0r7cqf
p25
I1
sVdf9fcau
p26
I1
sVd3o6jx4
p27
I1
sVdaget88
p28
I1
sVd76d5vn
p29
I1
sVdekpxkh
p30
I2
sVd1qetmz
p31
I1
sVdb58p8a
p32
I1
sVdocsegn
p33
I1
sVdhtp8gm
p34
I1
sVd30yc0f
p35
I1
sVdnanlo7
p36
I1
sVd15zc0j
p37
I1
sVdn8yd0w
p38
I2
sVda3b5dj
p39
I1
sVd2i0p2i
p40
I1
sVd0r4f9q
p41
I1
sVdika4kj
p42
I1
sVdj8r0nl
p43
I1
sVdqiue7h
p44
I1
sVdb5azjd
p45
I1
sVd0r53l9
p46
I1
sVdd8218f
p47
I1
sVdcuuav5
p48
I1
sVdbx000u
p49
I1
sVdqshoh6
p50
I1
sVdb1cwea
p51
I1
sVdh79bt1
p52
I1
sVd3zfnk4
p53
I1
sVd7y9qyp
p54
I1
sVczs0t3g
p55
I1
sVd5rq20w
p56
I1
s.