(dp0
Vda2sgsh
p1
I5
sVcz8lafb
p2
I1
sVda35by5
p3
I1
sVdqfjjze
p4
I1
sVdjkikbn
p5
I1
sVcyv95z2
p6
I1
sVd5jmr7s
p7
I1
sVdg1vqwo
p8
I1
sVd170trr
p9
I1
sVdfkhsj4
p10
I1
sVd7cuwso
p11
I1
sVd2f1pva
p12
I1
sVd0twfe5
p13
I1
sVdipzigg
p14
I1
sVd8d9ar3
p15
I1
sVdd2eq6i
p16
I1
sVd1uz22h
p17
I1
sVdpfj5x3
p18
I1
sVdgzvado
p19
I2
sVdj0wamf
p20
I1
sVda30sw3
p21
I2
sVdhwafna
p22
I1
sVd1y822x
p23
I1
sVda3b7tx
p24
I1
sVdimqhjq
p25
I1
sVcznfbps
p26
I1
sVd3o8llq
p27
I1
sVcyrwyv2
p28
I1
sVd1mvs7z
p29
I1
sVdh4vyao
p30
I1
sVd9d1oo0
p31
I1
sVd5ltoi4
p32
I1
sVd59twsq
p33
I1
sVdp3au68
p34
I1
sVdgafy97
p35
I1
sVcyp22fc
p36
I1
sVda364g7
p37
I2
sVcyobkl1
p38
I1
sVd9z6fxe
p39
I1
sVd0y3dea
p40
I1
sVdr96oul
p41
I1
sVdeto2l4
p42
I1
sVdkdp9bt
p43
I1
sVd9zoxn3
p44
I1
sVdkwsf9g
p45
I1
sVd6iz55y
p46
I1
sVdjy9yc1
p47
I1
sVd9vi9r1
p48
I2
sVd0d7j9g
p49
I2
sVddg2eiv
p50
I1
sVd74h4vt
p51
I1
sVcz7hrbl
p52
I1
sVdi2a313
p53
I1
sVdey24ax
p54
I1
sVdjlgf1w
p55
I1
sVdc2oege
p56
I1
sVd1kg7zn
p57
I1
sVd3n2qtt
p58
I1
sVdgrtwor
p59
I1
sVd6vypgq
p60
I1
sVda3zu7j
p61
I3
sVd6p7wud
p62
I2
sVdgflgr5
p63
I1
sVdj409zc
p64
I1
sVd3shmau
p65
I1
sVd4ym1ie
p66
I1
sVda195cu
p67
I1
sVdemje7z
p68
I1
sVdgz29u6
p69
I1
sVczh4s4j
p70
I1
s.