(dp0
Vdgetnrf
p1
I1
sVdo9ix6o
p2
I1
sVd880uk3
p3
I1
sVdnedf4o
p4
I1
sVd0ffonp
p5
I2
sVd8k3n1i
p6
I1
sVdj8k19l
p7
I1
sVd9bd90d
p8
I1
sVdj0f1d6
p9
I1
sVdb3r50d
p10
I1
sVd4km8d1
p11
I1
sVdgm7c5i
p12
I1
sVd4ku4xn
p13
I1
sVdpvoc1o
p14
I1
sVdou436o
p15
I1
sVda2rsvp
p16
I2
sVd0eyphl
p17
I1
sVd0eqje6
p18
I1
sVdb8d8ui
p19
I1
sVdeyvr9d
p20
I1
sVdb884nl
p21
I1
sVdkx13ok
p22
I1
sVd9u12k8
p23
I1
sVd3f3pcz
p24
I1
sVdks26z0
p25
I1
sVczazscc
p26
I1
sVdf4ago6
p27
I1
sVdb8fuq9
p28
I1
sVd015d2j
p29
I1
sVd7cptru
p30
I1
sVdson0x2
p31
I1
sVd50gqgg
p32
I1
sVdsb6sfk
p33
I2
sVddwsjvf
p34
I1
sVd1dse5y
p35
I1
sVcyugx5y
p36
I1
sVdr43hyu
p37
I2
sVdt3wvzv
p38
I1
sVd7v93t0
p39
I1
sVdej6zvy
p40
I1
sVcyjf4mt
p41
I1
sVd3n802t
p42
I1
sVddx50l6
p43
I1
sVd00oi5k
p44
I2
sVdbngy3h
p45
I1
s.