(dp0
Vcyhzuz7
p1
I1
s.(dp0
Vcyi0j0l
p1
I1
sVcyhzuz7
p2
I1
s.(dp0
Vcyhzuz7
p1
I1
sVcyi8ilf
p2
I1
s.(dp0
Vcyhzuz7
p1
I1
sVcyidzzc
p2
I1
s.(dp0
Vcyhzuz7
p1
I1
sVcyif1oa
p2
I1
s.(dp0
Vcyhzuz7
p1
I1
sVcyiihrv
p2
I1
s.(dp0
Vcyhzuz7
p1
I1
sVcyiiihc
p2
I1
s.(dp0
Vcyik9wc
p1
I1
sVcyhzuz7
p2
I1
s.(dp0
Vcyik9wc
p1
I1
sVcyhzuz7
p2
I1
s.(dp0
Vcyik9wc
p1
I1
sVcyhzuz7
p2
I1
s.(dp0
Vcyik9wc
p1
I1
sVcyhzuz7
p2
I1
s.(dp0
Vcyik9wc
p1
I1
sVcyhzuz7
p2
I1
s.(dp0
Vcyik9wc
p1
I1
sVcyhzuz7
p2
I1
s.(dp0
Vcyhzuz7
p1
I1
sVcyilfgo
p2
I1
s.(dp0
Vcyhzuz7
p1
I1
sVcyirlvo
p2
I1
s.(dp0
Vcyhzuz7
p1
I1
sVcyjnvpt
p2
I1
s.(dp0
Vcyhzuz7
p1
I1
sVcyjuw6r
p2
I1
s.(dp0
Vcyhzuz7
p1
I1
sVcyjwfx3
p2
I1
s.(dp0
Vcyhzuz7
p1
I1
sVcyk00ne
p2
I1
s.(dp0
Vcyhzuz7
p1
I1
sVcyk3wn1
p2
I1
s.(dp0
Vcyhzuz7
p1
I1
sVcykqr70
p2
I1
s.(dp0
Vcyhzuz7
p1
I1
sVcykswkd
p2
I1
s.(dp0
Vcyhzuz7
p1
I1
sVcyktbw8
p2
I1
s.(dp0
Vcyhzuz7
p1
I1
sVcyku98p
p2
I1
s.(dp0
Vcyhzuz7
p1
I1
sVcyku98p
p2
I1
s.(dp0
Vcyhzuz7
p1
I1
sVcykuej8
p2
I1
s.(dp0
Vcyhzuz7
p1
I1
sVcykyiul
p2
I1
s.(dp0
Vcyhzuz7
p1
I1
sVcykyiul
p2
I1
s.(dp0
Vcyhzuz7
p1
I1
sVcyl1r66
p2
I1
s.(dp0
Vcyhzuz7
p1
I1
sVcyl9fev
p2
I1
s.(dp0
Vcyhzuz7
p1
I1
sVcyldgzm
p2
I1
s.(dp0
Vcyhzuz7
p1
I1
sVcyldycl
p2
I1
s.(dp0
Vcyhzuz7
p1
I1
sVcyldycl
p2
I1
s.(dp0
Vcyhzuz7
p1
I1
sVcyljd92
p2
I1
s.(dp0
Vcyhzuz7
p1
I1
sVcylycha
p2
I1
s.(dp0
Vcyhzuz7
p1
I1
sVcylz6ws
p2
I1
s.(dp0
Vcyhzuz7
p1
I1
sVcymqocx
p2
I1
s.(dp0
Vcyhzuz7
p1
I1
sVcymux2s
p2
I1
s.(dp0
Vcyn9c56
p1
I1
sVcyhzuz7
p2
I1
s.(dp0
Vcyhzuz7
p1
I1
sVcyncbk9
p2
I1
s.(dp0
Vcyhzuz7
p1
I1
sVcynhqnu
p2
I1
s.(dp0
Vcyhzuz7
p1
I1
sVcynhqnu
p2
I1
s.(dp0
Vcyhzuz7
p1
I1
sVcynqnpz
p2
I1
s.(dp0
Vcyhzuz7
p1
I1
sVcynqnpz
p2
I1
s.(dp0
Vcyhzuz7
p1
I1
sVcynstx9
p2
I1
s.(dp0
Vcyhzuz7
p1
I1
sVcynyfvi
p2
I1
s.(dp0
Vcyhzuz7
p1
I1
sVcynzike
p2
I1
s.(dp0
Vcyhzuz7
p1
I1
sVcyo670b
p2
I1
s.(dp0
Vcyoda1z
p1
I1
sVcyhzuz7
p2
I1
s.(dp0
Vcyhzuz7
p1
I1
sVcyojc56
p2
I1
s.(dp0
Vcyhzuz7
p1
I1
sVcyozdr0
p2
I1
s.(dp0
Vcyhzuz7
p1
I1
sVcyozdr0
p2
I1
s.(dp0
Vcyhzuz7
p1
I1
sVcyp1yrw
p2
I1
s.(dp0
Vcyhzuz7
p1
I1
sVcyp8q1u
p2
I1
s.(dp0
Vcyhzuz7
p1
I1
sVcypj9kz
p2
I1
s.(dp0
Vcyhzuz7
p1
I1
sVcypkfit
p2
I1
s.(dp0
Vcyhzuz7
p1
I1
sVcypm7lw
p2
I1
s.(dp0
Vcyhzuz7
p1
I1
sVcypqh27
p2
I1
s.(dp0
Vcyhzuz7
p1
I1
sVcypuqos
p2
I1
s.(dp0
Vcyq0kun
p1
I1
sVcyhzuz7
p2
I1
s.(dp0
Vcyqmjgb
p1
I1
sVcyhzuz7
p2
I1
s.(dp0
Vcyhzuz7
p1
I1
sVcyqmkpm
p2
I1
s.(dp0
Vcyhzuz7
p1
I1
sVcyqp35u
p2
I1
s.(dp0
Vcyhzuz7
p1
I1
sVcyqrm20
p2
I1
s.(dp0
Vcyhzuz7
p1
I1
sVcyqrm20
p2
I1
s.(dp0
Vcyhzuz7
p1
I1
sVcyqupx4
p2
I1
s.(dp0
Vcyhzuz7
p1
I1
sVcyqwbwt
p2
I1
s.(dp0
Vcyhzuz7
p1
I1
sVcyr0w91
p2
I1
s.(dp0
Vcyhzuz7
p1
I1
sVcyr6in2
p2
I1
s.(dp0
Vcyhzuz7
p1
I1
sVcys77cw
p2
I1
s.(dp0
Vcyhzuz7
p1
I1
sVcys7jw1
p2
I1
s.(dp0
Vcysaco5
p1
I1
sVcyhzuz7
p2
I1
s.(dp0
Vcysaco5
p1
I1
sVcyhzuz7
p2
I1
s.(dp0
Vcyhzuz7
p1
I1
sVcysbzzy
p2
I1
s.(dp0
Vcyhzuz7
p1
I1
sVcyt01ox
p2
I1
s.(dp0
Vcyhzuz7
p1
I1
sVcyt50hi
p2
I1
s.(dp0
Vcytc30i
p1
I1
sVcyhzuz7
p2
I1
s.(dp0
Vcyhzuz7
p1
I1
sVcytdwg8
p2
I1
s.(dp0
Vcyhzuz7
p1
I1
sVcytgbpj
p2
I1
s.(dp0
Vcyhzuz7
p1
I1
sVcytq7ev
p2
I1
s.(dp0
Vcyhzuz7
p1
I1
sVcytr9xx
p2
I1
s.(dp0
Vcyhzuz7
p1
I1
sVcytzf8y
p2
I1
s.(dp0
Vcyhzuz7
p1
I1
sVcyu0c9o
p2
I1
s.(dp0
Vcyhzuz7
p1
I1
sVcyu0c9o
p2
I1
s.(dp0
Vcyhzuz7
p1
I1
sVcyu5i3f
p2
I1
s.(dp0
Vcyhzuz7
p1
I1
sVcyu5q9d
p2
I1
s.(dp0
Vcyhzuz7
p1
I1
sVcyu5q9d
p2
I1
s.(dp0
Vcyhzuz7
p1
I1
sVcyu5q9d
p2
I1
s.(dp0
Vcyhzuz7
p1
I1
sVcyu64ds
p2
I1
s.(dp0
Vcyhzuz7
p1
I1
sVcyu7xnw
p2
I1
s.(dp0
Vcyhzuz7
p1
I1
sVcyuc69v
p2
I1
s.(dp0
Vcyhzuz7
p1
I1
sVcyucpvh
p2
I1
s.(dp0
Vcyhzuz7
p1
I1
sVcyudjs0
p2
I1
s.(dp0
Vcyhzuz7
p1
I1
sVcyuefuo
p2
I1
s.(dp0
Vcyhzuz7
p1
I1
sVcyug8uk
p2
I1
s.(dp0
Vcyhzuz7
p1
I1
sVcyugwtv
p2
I1
s.(dp0
Vcyhzuz7
p1
I1
sVcyuj0hr
p2
I1
s.(dp0
Vcyhzuz7
p1
I1
sVcyumrrb
p2
I1
s.(dp0
Vcyhzuz7
p1
I1
sVcyus526
p2
I1
s.(dp0
Vcyhzuz7
p1
I1
sVcyuxqv7
p2
I1
s.(dp0
Vcyhzuz7
p1
I1
sVcyuxzwf
p2
I1
s.(dp0
Vcyhzuz7
p1
I1
sVcyv5k44
p2
I1
s.(dp0
Vcyhzuz7
p1
I1
sVcyv5w9f
p2
I1
s.(dp0
Vcyhzuz7
p1
I1
sVcyv7o2v
p2
I1
s.(dp0
Vcyhzuz7
p1
I1
sVcyvemou
p2
I1
s.(dp0
Vcyhzuz7
p1
I1
sVcyvhmq2
p2
I1
s.(dp0
Vcyhzuz7
p1
I1
sVcyw9x7e
p2
I1
s.(dp0
Vcyhzuz7
p1
I1
sVcywhwfy
p2
I1
s.(dp0
Vcy(dp0
Vcyhzuz7
p1
I1
sVdtj9guu
p2
I1
s.