(dp0
Vdhxo73l
p1
I1
sVdmk0qpg
p2
I1
sVdi5dihc
p3
I1
sVd5kr3p0
p4
I1
sVcz5fdk7
p5
I1
sVd41in52
p6
I1
sVd31fvci
p7
I1
sVdg8pv66
p8
I1
sVdf2x85m
p9
I1
sVdi5ewrv
p10
I1
sVczm6izy
p11
I1
sVczzw9qi
p12
I1
sVd12ofsl
p13
I1
sVd0kz9kc
p14
I1
sVdepcmcj
p15
I1
sVdpiuwc9
p16
I1
sVcz4wa1q
p17
I1
sVdc8x44v
p18
I1
sVd3gfj8x
p19
I1
sVd9q2cri
p20
I1
sVdn1mabd
p21
I2
sVdaij363
p22
I1
sVd3a02bu
p23
I1
sVddpwr31
p24
I1
sVdc4cka2
p25
I1
sVdepw7uf
p26
I1
sVd17c90a
p27
I1
sVdflygqb
p28
I1
sVd1d8e0m
p29
I1
sVd23nkvz
p30
I1
sVcyli5p1
p31
I1
sVdii4mhm
p32
I1
sVdh193kq
p33
I1
sVdawvlbj
p34
I1
sVdi729df
p35
I1
sVd9p4723
p36
I1
sVd1u55x4
p37
I1
sVdk09flo
p38
I1
sVd6nttm6
p39
I1
sVdhwe2pf
p40
I1
sVcylicze
p41
I1
sVczruslp
p42
I1
sVd00zvqi
p43
I1
sVdj8z5q6
p44
I1
sVd2kx508
p45
I1
s.