(dp0
Vcz2l1or
p1
I1
s.(dp0
Vd17o9on
p1
I1
sVcz2l1or
p2
I1
s.(dp0
Vcz2l1or
p1
I1
sVd1l3c52
p2
I1
s.(dp0
Vcz2l1or
p1
I1
sVd4sky9u
p2
I1
s.(dp0
Vcz2l1or
p1
I1
sVd6cfbpp
p2
I1
s.(dp0
Vcz2l1or
p1
I1
sVdecjpky
p2
I1
s.(dp0
Vdf6e44p
p1
I1
sVcz2l1or
p2
I1
s.(dp0
Vdnj7415
p1
I1
sVcz2l1or
p2
I1
s.(dp0
Vcz2l1or
p1
I1
sVdsfbf2m
p2
I1
s.