(dp0
Vcyk7j27
p1
I1
s.(dp0
Vczji7mv
p1
I1
sVcyk7j27
p2
I1
s.(dp0
Vd00k60y
p1
I1
sVcyk7j27
p2
I1
s.(dp0
Vd14apk3
p1
I1
sVcyk7j27
p2
I1
s.(dp0
Vd1d8hw4
p1
I1
sVcyk7j27
p2
I1
s.(dp0
Vcyk7j27
p1
I1
sVd1ggkb8
p2
I1
s.(dp0
Vcyk7j27
p1
I1
sVd1ggkb8
p2
I1
s.(dp0
Vcyk7j27
p1
I1
sVd1knif9
p2
I1
s.(dp0
Vd24m56q
p1
I1
sVcyk7j27
p2
I1
s.(dp0
Vd2lkc6p
p1
I1
sVcyk7j27
p2
I1
s.(dp0
Vd2ve5yn
p1
I1
sVcyk7j27
p2
I1
s.(dp0
Vd3tz5w0
p1
I1
sVcyk7j27
p2
I1
s.(dp0
Vd56jbvo
p1
I1
sVcyk7j27
p2
I1
s.(dp0
Vd5vxpq7
p1
I1
sVcyk7j27
p2
I1
s.(dp0
Vd6727oj
p1
I1
sVcyk7j27
p2
I1
s.(dp0
Vd6t9qbq
p1
I1
sVcyk7j27
p2
I1
s.(dp0
Vd7xd6fi
p1
I1
sVcyk7j27
p2
I1
s.(dp0
Vcyk7j27
p1
I1
sVd8d4uuz
p2
I1
s.(dp0
Vd8ixhkr
p1
I1
sVcyk7j27
p2
I1
s.(dp0
Vd958uue
p1
I1
sVcyk7j27
p2
I1
s.(dp0
Vd96xpny
p1
I1
sVcyk7j27
p2
I1
s.(dp0
Vd9eo8qg
p1
I1
sVcyk7j27
p2
I1
s.(dp0
Vd9eo8qg
p1
I1
sVcyk7j27
p2
I1
s.(dp0
Vd9x0vuk
p1
I1
sVcyk7j27
p2
I1
s.(dp0
Vcyk7j27
p1
I1
sVdak02eu
p2
I1
s.(dp0
Vdanqzh5
p1
I1
sVcyk7j27
p2
I1
s.(dp0
Vdb7wwa3
p1
I1
sVcyk7j27
p2
I1
s.(dp0
Vdbwhjo1
p1
I1
sVcyk7j27
p2
I1
s.(dp0
Vdbwhjo1
p1
I1
sVcyk7j27
p2
I1
s.(dp0
Vdccpnt9
p1
I1
sVcyk7j27
p2
I1
s.(dp0
Vdcx3sc3
p1
I1
sVcyk7j27
p2
I1
s.(dp0
Vdetyafw
p1
I1
sVcyk7j27
p2
I1
s.(dp0
Vdfgcp8y
p1
I1
sVcyk7j27
p2
I1
s.(dp0
Vdfk0sp7
p1
I1
sVcyk7j27
p2
I1
s.(dp0
Vdfmeq4t
p1
I1
sVcyk7j27
p2
I1
s.(dp0
Vdfx6aca
p1
I1
sVcyk7j27
p2
I1
s.(dp0
Vdgi05dh
p1
I1
sVcyk7j27
p2
I1
s.(dp0
Vdgji97u
p1
I1
sVcyk7j27
p2
I1
s.(dp0
Vdh4fz0t
p1
I1
sVcyk7j27
p2
I1
s.(dp0
Vdi1a4ng
p1
I1
sVcyk7j27
p2
I1
s.(dp0
Vdis1qfo
p1
I1
sVcyk7j27
p2
I1
s.(dp0
Vdjsxwpb
p1
I1
sVcyk7j27
p2
I1
s.(dp0
Vdjupe67
p1
I1
sVcyk7j27
p2
I1
s.(dp0
Vdkd8fnx
p1
I1
sVcyk7j27
p2
I1
s.(dp0
Vdniq9j0
p1
I1
sVcyk7j27
p2
I1
s.(dp0
Vdphp59h
p1
I1
sVcyk7j27
p2
I1
s.(dp0
Vdpj949g
p1
I1
sVcyk7j27
p2
I1
s.(dp0
Vdqznk2m
p1
I1
sVcyk7j27
p2
I1
s.(dp0
Vdrh1mvh
p1
I1
sVcyk7j27
p2
I1
s.(dp0
Vdrjilzj
p1
I1
sVcyk7j27
p2
I1
s.(dp0
Vcyk7j27
p1
I1
sVdry3nnr
p2
I1
s.(dp0
Vdtj3j1l
p1
I1
sVcyk7j27
p2
I1
s.