(dp0
Vd7x6jr8
p1
I2
sVdfic3mn
p2
I2
sVdqu53cg
p3
I2
sVdndh6ou
p4
I1
sVder8yva
p5
I1
sVdcm0y4r
p6
I1
sVcz5yvue
p7
I2
sVd0vtq8j
p8
I1
sVdj3lx7p
p9
I3
sVdiru556
p10
I1
sVdemqkl7
p11
I1
sVd8lnbgj
p12
I1
sVds4dhmg
p13
I1
sVd1todw1
p14
I1
sVd6hrbv9
p15
I1
sVd0m292z
p16
I1
sVdauhktd
p17
I1
sVdkcbqju
p18
I2
sVd5mmaol
p19
I1
sVdd3e7lo
p20
I1
sVd8oc1a2
p21
I1
sVdq4ssue
p22
I1
sVde1bbj1
p23
I5
sVdknsjoi
p24
I1
sVd7pa5ib
p25
I1
sVd184gp8
p26
I1
sVdmtbier
p27
I1
sVcyx3k1z
p28
I1
sVdhwmcig
p29
I1
sVdow0u3r
p30
I1
sVddelluj
p31
I1
sVd4cuxi8
p32
I2
sVdszldap
p33
I1
sVd5l626g
p34
I1
sVd6tzwg5
p35
I1
sVddqbgsi
p36
I1
sVd7v0kyv
p37
I1
sVd3bhvfa
p38
I1
sVdt7he9p
p39
I1
sVdk3zlyp
p40
I1
sVcyujtwo
p41
I1
sVdbu6syp
p42
I1
sVd7c23rh
p43
I1
sVdnnzui8
p44
I1
sVd8ewnq9
p45
I1
sVdpmuvc4
p46
I1
sVczs14zb
p47
I1
sVdf6php3
p48
I1
sVd0j7dtf
p49
I1
sVd38adyg
p50
I1
sVd9ithtd
p51
I1
sVd2jtmsv
p52
I2
sVd0zjq91
p53
I1
sVdi5eq2w
p54
I1
sVdc5fb6l
p55
I1
sVd8fgb1m
p56
I1
sVdmq9va1
p57
I1
sVczkcsjd
p58
I1
sVdd33ozg
p59
I2
sVd9fs1st
p60
I1
sVd0b1rag
p61
I1
sVd83ioio
p62
I1
sVd09mj42
p63
I3
sVd0twb2c
p64
I1
sVd0w8bwx
p65
I1
sVdbxk2y0
p66
I1
sVddy478u
p67
I1
sVdpttqzk
p68
I1
sVdkg3wbz
p69
I1
sVdbwewmk
p70
I1
sVdjadk1f
p71
I1
sVdbws0kk
p72
I3
sVd3wtfg8
p73
I1
sVd8sojf5
p74
I2
sVdbnmla5
p75
I1
sVdhhpfnv
p76
I1
sVddz2p8p
p77
I3
sVdg7fk9d
p78
I1
sVd1thf49
p79
I5
sVdnz2nv1
p80
I1
sVdpsusuq
p81
I1
sVd1uztww
p82
I1
sVddmchdi
p83
I1
sVdaewy1k
p84
I1
sVd036x0l
p85
I2
sVdhz8f3a
p86
I1
sVd05qutc
p87
I1
sVd1ms6du
p88
I1
sVd1sbncc
p89
I1
sVdaybf3b
p90
I1
sVdqj3w2s
p91
I1
sVdfjugzy
p92
I1
sVd57n5fy
p93
I1
sVdjy9yc1
p94
I1
sVdfkyzqt
p95
I1
sVdk569oq
p96
I1
sVcz1l7xf
p97
I1
sVd5e1esa
p98
I1
sVdbcj13v
p99
I1
sVd8c27za
p100
I1
sVdbdeloa
p101
I1
sVd0vav22
p102
I2
sVd9p3b1f
p103
I1
sVdkcjieb
p104
I3
sVdhwmwmg
p105
I1
sVd0tel5c
p106
I1
sVdcc9kr8
p107
I1
sVdt1hyec
p108
I1
sVd1xn53w
p109
I1
sVde8j7ld
p110
I1
sVd5v0epo
p111
I1
sVdo6iz0h
p112
I1
sVdidu83y
p113
I1
sVddmiyiu
p114
I1
sVd2m6gcr
p115
I1
sVdipte5u
p116
I1
sVdde75o7
p117
I1
sVdrufulg
p118
I1
sVdp8m097
p119
I1
sVde9oeyt
p120
I1
sVdd0o1rv
p121
I3
sVd1gi83g
p122
I3
sVd3mgyzr
p123
I1
sVdc3tabl
p124
I1
sVdffpmbd
p125
I1
sVcz5yxsj
p126
I1
sVczc46h7
p127
I1
sVddpuypa
p128
I1
sVdknlu6m
p129
I1
sVd03byei
p130
I2
sVd54setn
p131
I1
sVd0cxc0f
p132
I1
sVdsorx4y
p133
I2
sVcz2sw1v
p134
I1
sVdjk6hax
p135
I1
sVcywuj2z
p136
I1
sVddx00op
p137
I1
sVd01p5i2
p138
I1
sVd9ri7p8
p139
I1
sVd1vqmra
p140
I1
sVdeaf1ho
p141
I1
sVda51dmi
p142
I1
sVdmj3059
p143
I1
sVdbcg7ls
p144
I1
sVdg5my5n
p145
I1
sVddgxu1w
p146
I1
sVd5crnec
p147
I1
sVdj4dzyv
p148
I1
sVdbwk0dy
p149
I1
sVdsvcd3u
p150
I1
sVdan0qjx
p151
I1
sVdfi7wxn
p152
I1
sVdqtwtuf
p153
I3
sVdcwq4hx
p154
I2
sVdq4nebv
p155
I1
sVd4qa089
p156
I1
sVd6067k1
p157
I1
sVd25humi
p158
I1
sVdgs5f24
p159
I1
sVdrjn5at
p160
I1
sVcyiku16
p161
I1
sVdjzef0r
p162
I1
sVdncmlxp
p163
I1
sVd7cvpk4
p164
I1
sVdjogooy
p165
I1
sVdjp5owt
p166
I2
sVdb9g80j
p167
I1
sVdcw9kpx
p168
I1
sVdfsh2cn
p169
I1
sVd1dadaa
p170
I1
sVd2ddz7z
p171
I1
sVd0oc91o
p172
I1
sVde8u7un
p173
I1
sVdhpqtez
p174
I1
sVdeinesw
p175
I1
sVd2eso9g
p176
I1
sVd26ixwt
p177
I1
sVd77j6in
p178
I1
sVd0j11ck
p179
I1
sVd2vcn9e
p180
I1
sVdborib1
p181
I1
sVd847nrq
p182
I1
sVdb4ob6m
p183
I1
sVdae96i3
p184
I1
sVdmijmy4
p185
I1
sVd1ftzwt
p186
I1
sVd7pd1yx
p187
I2
sVd1f3dk0
p188
I1
sVdfpzatv
p189
I1
sVdnu9ym9
p190
I1
sVdohmtax
p191
I1
sVd1o62zy
p192
I1
sVddc1hf8
p193
I1
sVdp5a95q
p194
I1
sVdmzl7nn
p195
I2
sVcza8fkg
p196
I2
sVdfyk9u8
p197
I1
sVcyui2va
p198
I1
sVdnkm9cl
p199
I1
sVd5syqy4
p200
I1
sVdg6abar
p201
I1
sVdev15g4
p202
I1
sVdfc0dq6
p203
I1
sVcyqvnd9
p204
I1
sVdamism6
p205
I1
sVd3jzubk
p206
I3
sVdd23zev
p207
I3
sVd84nm0z
p208
I1
sVd0yuoar
p209
I1
sVd4eu0e0
p210
I1
sVd0ha5q0
p211
I1
sVde2x9w1
p212
I1
sVdbay0fj
p213
I1
sVczzpudu
p214
I1
sVdh7fwvk
p215
I1
sVd9eznjf
p216
I1
sVd2exw8l
p217
I1
sVd5gzeca
p218
I1
sVd6hr7ph
p219
I2
sVd7qhsp1
p220
I1
sVdhzbwea
p221
I1
sVczgkwfu
p222
I1
sVdfwdym4
p223
I1
sVd7qm1vj
p224
I3
sVd2z134h
p225
I2
sVd3zsjwb
p226
I1
sVd1emjzx
p227
I1
sVd8jfojo
p228
I1
sVdd3doej
p229
I1
sVd191dk8
p230
I1
sVddmsh8u
p231
I1
sVdj87i2c
p232
I1
sVdt8limb
p233
I1
sVddza3ft
p234
I1
sVdi99x49
p235
I1
sVdo426nk
p236
I1
sVd3rkk83
p237
I1
sVdce92e1
p238
I1
sVcynbb3v
p239
I1
sVdr6evjg
p240
I2
sVd56yqtl
p241
I1
sVd3kr63m
p242
I1
sVd7lqyby
p243
I1
sVdhhuvy1
p244
I1
sVddu3oxy
p245
I1
sVdii75i2
p246
I1
sVd8n0koi
p247
I1
sVdcxva19
p248
I1
sVczsso8b
p249
I1
sVdhhbmt5
p250
I1
sVd6h03pf
p251
I1
sVdql3ydb
p252
I4
sVd3fqnf0
p253
I1
sVd44w0qq
p254
I1
sVdjniwx6
p255
I2
sVd68xs9l
p256
I1
sVd0i7qnt
p257
I1
sVdcu8q67
p258
I1
sVdao6xjc
p259
I1
sVd0c5u1l
p260
I1
sVdhcfst6
p261
I1
sVdn7zf7y
p262
I1
sVdb1vcrw
p263
I1
sVcz4xozh
p264
I1
sVddc4d56
p265
I1
sVdt38gk5
p266
I1
sVd7nukli
p267
I2
sVcziqrht
p268
I1
sVd2a8im5
p269
I1
sVd1bg175
p270
I1
sVcz3x0y4
p271
I1
sVd8g3mji
p272
I1
sVdmvvf95
p273
I1
sVdmyw91d
p274
I1
sVdexie0c
p275
I1
sVdoehreh
p276
I1
sVd5mjk3e
p277
I1
sVd8osi3v
p278
I2
sVczfd7i8
p279
I1
sVd0qcdl9
p280
I1
sVdidi53x
p281
I1
sVdornae0
p282
I1
sVdbrknmg
p283
I1
sVdnu0a6v
p284
I5
sVd8000pa
p285
I1
sVd4gabzv
p286
I1
sVdp18tf7
p287
I1
sVdgcpl28
p288
I1
sVdaetmuw
p289
I1
sVdj53s1r
p290
I2
sVdibq71d
p291
I1
sVdazp6a4
p292
I1
sVds1fjin
p293
I1
sVd9qi93t
p294
I1
sVd2y6og1
p295
I1
sVdb9vjzl
p296
I3
sVd50e3tk
p297
I2
sVd02aryf
p298
I1
sVde4pi7l
p299
I1
sVd078933
p300
I1
sVdeij3z2
p301
I1
sVczepmmw
p302
I1
sVdefl2fk
p303
I1
sVdk4oqpn
p304
I1
sVdkxtgqw
p305
I1
sVcztlrvv
p306
I2
sVdf70udo
p307
I1
sVdo9os7t
p308
I1
sVdmf69b1
p309
I1
sVdet2ivw
p310
I1
sVdmob48d
p311
I1
sVdk6262b
p312
I1
sVdnuktp6
p313
I1
sVd2fy10h
p314
I1
sVd00sd2v
p315
I1
sVdi3lyhw
p316
I1
sVdcvwilr
p317
I1
sVdkuji6x
p318
I1
sVdk4orj6
p319
I1
sVcyn45sa
p320
I1
sVdf1wfd3
p321
I1
sVdajkdv3
p322
I1
sVdkly5pw
p323
I1
sVd0fwggd
p324
I4
sVcyujcy6
p325
I1
sVdfntdb8
p326
I1
sVdjmntfy
p327
I1
sVd3cvx50
p328
I1
sVdhwqu1v
p329
I1
sVcyqt6hu
p330
I1
sVdg52w0w
p331
I1
sVdjwp3by
p332
I1
sVd8ey97n
p333
I1
sVd2s89n6
p334
I1
sVdkeksaf
p335
I2
sVdbz48k9
p336
I1
sVdq3zhev
p337
I1
sVcyouwk7
p338
I2
sVd2ergrg
p339
I1
sVcyl31bh
p340
I5
sVdf26t86
p341
I1
sVdf04u4z
p342
I2
sVdczhqhg
p343
I1
sVd4dn7co
p344
I1
sVd59j331
p345
I1
sVdidb5cg
p346
I2
sVd6a5noz
p347
I1
sVcyl2xxy
p348
I1
sVd2annbj
p349
I1
sVdfjp1fr
p350
I1
sVdj131dl
p351
I2
sVd5hu1mb
p352
I1
sVd8n18fu
p353
I1
sVd3dea7l
p354
I1
sVd0xe4um
p355
I1
sVd47uv8m
p356
I1
sVd31um3a
p357
I1
sVdgs94m4
p358
I3
sVd6si6sc
p359
I1
sVd3f3hnc
p360
I1
sVdfbzbbe
p361
I1
sVcz5xpx6
p362
I1
sVdqlx8ym
p363
I3
sVdhwd21e
p364
I1
sVd9i7fcu
p365
I1
sVdt6bzae
p366
I1
sVdjs0uyd
p367
I1
sVd1lc60a
p368
I1
sVd8tc3wn
p369
I1
sVcyrs9tk
p370
I1
sVdkiynf9
p371
I1
sVd2jumx7
p372
I1
sVd3bjtd6
p373
I1
sVdep97u1
p374
I1
sVdh14nfh
p375
I1
sVcz58cpc
p376
I1
sVd0xu6ll
p377
I1
sVdc11o55
p378
I1
sVdhw6rwu
p379
I1
sVdmnab9u
p380
I1
sVcyniz5h
p381
I1
sVdh5b0j9
p382
I1
sVddygyeh
p383
I2
sVds27eej
p384
I2
sVd727vn4
p385
I1
sVd0tjtm0
p386
I1
sVczs3sbn
p387
I1
sVdcxfoat
p388
I1
sVdbgkptv
p389
I1
sVd9ra9eu
p390
I1
sVd4jie09
p391
I1
sVd8oc6jj
p392
I1
sVd0kbsyl
p393
I1
sVd63phsx
p394
I1
sVdeldmye
p395
I1
sVdbwhjo1
p396
I1
sVd8y8zc4
p397
I3
sVdfiifl7
p398
I1
sVd9lb95r
p399
I1
sVd4jtass
p400
I2
sVd14r7go
p401
I1
sVdbih0b3
p402
I1
sVdtc0c2x
p403
I1
sVdap1ajv
p404
I1
sVdrg0w0l
p405
I2
sVdf1qxrn
p406
I1
sVd4a9j5y
p407
I1
sVdacjz51
p408
I3
sVd0aaej1
p409
I1
sVdgced8e
p410
I1
sVdjqzkid
p411
I4
sVdpjfppx
p412
I1
sVd2p8sp3
p413
I1
sVdrmwb7v
p414
I1
sVdpxjlbb
p415
I1
sVddubprj
p416
I1
sVdifx870
p417
I1
sVdewx51t
p418
I1
sVdcl262v
p419
I1
sVd0qngwz
p420
I1
sVcz80cjy
p421
I1
sVdomby3j
p422
I1
sVdks0k0k
p423
I1
sVczo81gk
p424
I1
sVd8xsz1h
p425
I1
sVdd6bukg
p426
I1
sVdqd3zh9
p427
I2
sVdd17fdr
p428
I1
sVcysxx3s
p429
I1
sVdc81396
p430
I1
sVd49vz72
p431
I2
sVdhyzone
p432
I1
sVd7kdvz4
p433
I1
sVds5r4fx
p434
I1
sVd56vixm
p435
I1
sVd5acqxd
p436
I1
sVdq4xrtc
p437
I1
sVdgc9qwz
p438
I1
sVd9rupra
p439
I1
sVd5rhfr0
p440
I1
sVdns7dv6
p441
I1
sVd3jvu0i
p442
I2
sVd03lzzh
p443
I1
sVd827lem
p444
I1
sVd8bemm3
p445
I1
sVd69c4vo
p446
I1
sVd868dml
p447
I1
sVd41hgx8
p448
I1
sVd38zumo
p449
I1
sVd60rmod
p450
I1
sVd7qkpnd
p451
I2
sVd1ky2t9
p452
I2
sVd2nwgj3
p453
I1
sVdobjryl
p454
I2
sVdnwah38
p455
I1
sVd2plhy4
p456
I1
sVdim151z
p457
I1
sVd6z2qki
p458
I1
sVde9ow19
p459
I2
sVdivnwt0
p460
I1
sVd5hsq97
p461
I1
sVd9vumuk
p462
I1
sVd4181vt
p463
I1
sVcytxbb5
p464
I1
sVd4gey6c
p465
I1
sVdpy484h
p466
I2
sVd32vpwd
p467
I1
sVdcllcqv
p468
I1
sVdfnr8ch
p469
I1
sVdcyhvik
p470
I2
sVdc9sx2q
p471
I1
sVd008b7g
p472
I1
sVd18qzkm
p473
I1
sVd16earv
p474
I2
sVd3vdca0
p475
I2
sVdpsws2y
p476
I1
sVd17t7uv
p477
I2
sVdjuq1uy
p478
I1
sVd1vcb5p
p479
I3
sVdrga2pq
p480
I1
sVd72tgj1
p481
I1
sVdg198d9
p482
I1
sVdd8h443
p483
I1
sVd6ebhrr
p484
I1
sVdhgldt9
p485
I1
sVdrxeqv2
p486
I3
sVczxmnvr
p487
I1
sVd1o4dpd
p488
I1
sVds0b0z5
p489
I5
sVdmr1ia4
p490
I3
sVd3navrm
p491
I1
sVd0c16it
p492
I1
sVdg52q18
p493
I1
sVd64hz08
p494
I1
sVd1vaguo
p495
I1
sVd77klmd
p496
I1
sVdkaylyg
p497
I3
sVd047b3d
p498
I1
sVdpczr9n
p499
I1
sVd5wn5fu
p500
I1
sVczv3lej
p501
I1
sVd84hkrw
p502
I1
sVdgd3brj
p503
I1
sVd9zr3ix
p504
I3
sVdhlc7jf
p505
I1
sVd3t7uo2
p506
I1
sVd1mm4ma
p507
I1
sVczy9f9n
p508
I1
sVdf34wyk
p509
I2
sVd0kb4b0
p510
I1
sVd2s563s
p511
I4
sVdeefehz
p512
I2
sVcyuug8x
p513
I1
sVdbrr3ig
p514
I1
sVdotlauu
p515
I1
sVdmlinbu
p516
I1
sVdn4aqgt
p517
I1
sVdkqmn52
p518
I1
sVd9rqtug
p519
I2
sVdf3w50w
p520
I1
sVd28p142
p521
I1
sVdd9vsr1
p522
I1
sVd0s0ntz
p523
I1
sVd97xnhx
p524
I1
sVd7imngq
p525
I1
sVd0pu8ho
p526
I1
sVdmlxuf2
p527
I1
sVdq9uiey
p528
I2
sVdjeyen0
p529
I1
sVd84usda
p530
I1
sVdel55t9
p531
I1
sVd27gt7q
p532
I1
sVd05imz4
p533
I4
sVd694zzy
p534
I1
sVdjsdda1
p535
I1
sVdo162g1
p536
I4
sVdpeys8w
p537
I1
sVde78x32
p538
I1
sVdksnllz
p539
I1
sVd3n8ud1
p540
I1
sVdd4an4u
p541
I1
sVdkmcn85
p542
I1
sVd5uxq15
p543
I1
sVdel1neq
p544
I1
sVd5uvqt4
p545
I1
sVdk4rfsw
p546
I1
sVcz05853
p547
I1
sVd7qav0c
p548
I1
sVd1nqdaw
p549
I2
sVd2hw4pl
p550
I1
sVd0lweuh
p551
I2
sVd5zas1g
p552
I1
sVdb9aazx
p553
I1
sVd3r5zwz
p554
I1
sVcz1ffmm
p555
I1
sVd1uwjsk
p556
I1
sVd9esmmb
p557
I1
sVd2pedv1
p558
I1
sVd7kffhx
p559
I1
sVdcf3cnc
p560
I2
sVderkjk0
p561
I2
sVdafmqan
p562
I1
sVdkmmpjg
p563
I1
sVd35f721
p564
I1
sVcz9kfco
p565
I1
sVdiakb7w
p566
I2
sVdpuhn3e
p567
I1
sVd4989hz
p568
I1
sVdpok5nd
p569
I1
sVd6pkdrk
p570
I1
sVdhby67d
p571
I2
sVdc6l18n
p572
I1
sVdgpln0b
p573
I1
sVdos7f60
p574
I2
sVd3n7n0u
p575
I1
sVd8xr6z4
p576
I1
sVd2b416a
p577
I1
sVczhkl3o
p578
I1
sVd0xwpxv
p579
I2
sVczdxezz
p580
I1
sVd80b0na
p581
I3
sVd8003jm
p582
I1
sVd03rdvh
p583
I1
sVd1lbbtj
p584
I1
sVdarkyok
p585
I3
sVdmzwbua
p586
I3
sVdet2mhk
p587
I1
sVd0un6qj
p588
I1
sVd3grmcq
p589
I1
sVdmg8pyc
p590
I2
sVd2c1k9r
p591
I1
sVdj4r53y
p592
I1
sVdbv4b0e
p593
I1
sVdflrysb
p594
I1
sVd161p7l
p595
I1
sVd399zr9
p596
I1
sVdixtdew
p597
I1
sVdepq8fs
p598
I1
sVdjcq1ru
p599
I2
sVd6timro
p600
I1
sVd62m75k
p601
I1
sVdh38099
p602
I1
sVdhwr33f
p603
I1
sVd7wu2je
p604
I1
sVdap6o24
p605
I1
sVdhmec3c
p606
I1
sVdbq77gy
p607
I1
sVddcg0hr
p608
I1
sVd87bsew
p609
I1
sVd5cavec
p610
I1
sVdbwiz0k
p611
I1
sVdkayq4c
p612
I1
sVdjw96pw
p613
I1
sVd8g3tkk
p614
I4
sVdex8qi5
p615
I1
sVd4jfv0r
p616
I1
sVdb3pt7f
p617
I1
sVdcufsxm
p618
I1
sVd3tffks
p619
I1
sVdg7xu6w
p620
I1
sVdig0l8p
p621
I1
sVdbtvqqi
p622
I1
sVczangw3
p623
I1
sVczm0rbc
p624
I1
sVdjawynj
p625
I1
sVd25t3vs
p626
I1
sVczai8yn
p627
I3
sVdpq70cu
p628
I2
sVd8nqe3u
p629
I1
sVd6qnu3i
p630
I4
sVd4pymn6
p631
I1
sVdftirt6
p632
I1
sVda13cl0
p633
I1
sVdt4up9c
p634
I1
sVd2mimcc
p635
I1
sVdcv5uiq
p636
I1
sVday0gbh
p637
I12
sVd40uyr5
p638
I1
sVda865zj
p639
I1
sVczh1ng9
p640
I2
sVdhonu39
p641
I1
sVd6s96vj
p642
I1
sVd0fo5p4
p643
I1
sVds28slh
p644
I4
sVcyt508g
p645
I1
sVczz6cb1
p646
I1
sVd7eu3wk
p647
I1
sVd0ra904
p648
I1
sVdbr77mr
p649
I1
sVddrzlvj
p650
I1
sVdgflgr5
p651
I2
sVd560hmx
p652
I1
sVcz5gaoq
p653
I1
sVdg8bxb2
p654
I1
sVdphvirn
p655
I3
sVdno7auk
p656
I1
sVddz0twt
p657
I1
sVdjx95uk
p658
I1
sVdnxndjy
p659
I1
sVdc2b8mx
p660
I1
sVd09glqc
p661
I1
sVdgtfbil
p662
I2
sVcyjkzek
p663
I1
sVdgmc7o8
p664
I1
sVd253cfl
p665
I1
sVdigkdff
p666
I1
sVderigst
p667
I1
sVd9aqjtb
p668
I2
sVd079hs7
p669
I2
sVcyrm18u
p670
I1
sVdfpa5vi
p671
I2
sVd3js3ev
p672
I1
sVd0ogi70
p673
I1
sVczvxrsm
p674
I1
sVd9ts30f
p675
I1
sVdq4qkbx
p676
I1
sVdmm3ssi
p677
I1
sVdblsocr
p678
I1
sVdmyd8ed
p679
I1
sVd0jbjy3
p680
I1
sVd3gn1x1
p681
I1
sVd807r5o
p682
I1
sVdo14mvj
p683
I1
sVczb51cf
p684
I1
sVdmjg2lc
p685
I1
sVdjf0cdv
p686
I1
sVcz64y5m
p687
I1
sVd99b14w
p688
I1
sVd0o32u3
p689
I1
sVdblg4gg
p690
I1
sVdbi1qr3
p691
I3
sVd7mcy4l
p692
I1
sVd298lvh
p693
I1
sVd06tqx3
p694
I1
sVdfjslbs
p695
I1
sVd31o2r2
p696
I1
sVdgl6ogd
p697
I1
sVdnb03qt
p698
I1
sVdnv3jkb
p699
I1
sVdb0p4y6
p700
I1
sVdajk8pa
p701
I1
sVd8kaakm
p702
I1
sVdc0tyaj
p703
I2
sVdnrhire
p704
I1
sVd647mn7
p705
I1
sVdk3qpra
p706
I4
sVczb86ag
p707
I1
sVdf9aicn
p708
I1
sVd0tglmk
p709
I1
sVds553qf
p710
I1
sVdix19kf
p711
I1
sVdcrq35e
p712
I1
sVd3cw0eq
p713
I3
sVd00rdoo
p714
I1
sVdadpxr8
p715
I1
sVcz7s12s
p716
I1
sVdg9qyve
p717
I1
sVd1ghy2g
p718
I2
sVcyj2xgk
p719
I2
sVdedj3b7
p720
I1
sVd8l9poy
p721
I2
sVdf19en1
p722
I3
sVd0qwxan
p723
I1
sVd4r9vfe
p724
I1
sVd80s00t
p725
I1
sVd0ad1h9
p726
I1
sVd2ahi54
p727
I1
sVdndbewq
p728
I2
sVdndh3md
p729
I1
sVd4hb2tk
p730
I1
sVd2jojo1
p731
I1
sVdait5w2
p732
I1
sVdnjt5it
p733
I2
sVdeghxtl
p734
I1
sVd0i99ew
p735
I2
sVdr7up0i
p736
I1
sVdgrxay6
p737
I1
sVdib8j5f
p738
I1
sVdd7qqb5
p739
I1
sVdrud2no
p740
I1
sVdfzv8jb
p741
I1
sVdmqtqse
p742
I1
sVdnc8tmz
p743
I1
sVd22i6pp
p744
I1
sVd5c014g
p745
I1
sVdo6jyyp
p746
I1
sVd83r72z
p747
I1
sVdmi1fpn
p748
I1
sVd8gxgso
p749
I2
sVd3e7pw7
p750
I2
sVd6uhqob
p751
I1
sVd1y6y0e
p752
I1
sVdjupe67
p753
I1
sVd7rj538
p754
I3
sVd4oqcfj
p755
I1
sVdr0efmr
p756
I2
sVds3nv1r
p757
I1
sVdfahbcn
p758
I1
sVd2a913h
p759
I2
sVdelb24y
p760
I1
sVdexza5s
p761
I1
sVd92rvft
p762
I1
sVcz218ew
p763
I1
sVd0y93qr
p764
I1
sVdh9wyiu
p765
I1
sVd6kxitu
p766
I1
sVd5lmkbr
p767
I1
sVdcxfqcv
p768
I5
sVcz5p74o
p769
I1
sVdj4dcew
p770
I1
sVdrl7lcr
p771
I1
sVdhnx39y
p772
I1
sVdd342hd
p773
I1
sVdftna69
p774
I1
sVd68lcf4
p775
I1
sVdex8ojv
p776
I1
sVd87qk4z
p777
I1
sVdg1ouut
p778
I1
sVddrz9bg
p779
I2
sVd5mh1rs
p780
I1
sVd8eqdd7
p781
I1
sVd9yfyex
p782
I3
sVd591yay
p783
I1
sVdgy9pkh
p784
I1
sVd00qu9q
p785
I1
sVdspv3hr
p786
I1
sVd6sy83y
p787
I2
sVdrpyjui
p788
I1
sVd3y8ibg
p789
I1
sVd04ttah
p790
I1
sVdk6eb43
p791
I1
sVd8z3tl5
p792
I1
sVd5cu68l
p793
I1
sVdsw7nyo
p794
I1
sVd0u3oy5
p795
I1
sVdbk304d
p796
I1
sVd02mlb7
p797
I1
sVdia1lci
p798
I1
sVd41okmz
p799
I1
sVd80agdd
p800
I2
sVcymy42e
p801
I1
sVdkive3v
p802
I1
sVd4eluv7
p803
I1
sVddwojo5
p804
I1
sVd6jeonu
p805
I1
sVcyjb2xa
p806
I1
sVdr0c4kh
p807
I2
sVd0b99fv
p808
I1
sVdtjmlgh
p809
I1
sVdhkw09d
p810
I1
sVd8can6e
p811
I1
sVddholi7
p812
I1
sVd7z8t59
p813
I3
sVdce72ov
p814
I1
sVdteizxr
p815
I1
sVdatonms
p816
I1
sVd5qkz7l
p817
I1
sVd4aww6d
p818
I1
sVd8556ub
p819
I2
sVczp1g14
p820
I3
sVdad3qtb
p821
I1
sVdk0ygt1
p822
I1
sVd7s9i6j
p823
I2
sVdhna3ek
p824
I1
sVd7p3jzg
p825
I1
sVd1loh9t
p826
I1
sVdgnvfjm
p827
I1
sVd07chim
p828
I1
sVdhwnmzt
p829
I1
sVdmw1739
p830
I2
sVd40u1wj
p831
I1
sVd7rexfr
p832
I1
sVdo7v734
p833
I1
sVda8vrmi
p834
I2
sVcyoczn5
p835
I1
sVdh94jjz
p836
I1
sVczjbj8a
p837
I1
sVcyzlrus
p838
I1
sVdg32pdr
p839
I2
sVdbehx51
p840
I1
sVd9zqzj0
p841
I2
sVdri5uqk
p842
I1
sVdcr8t2c
p843
I1
sVdjx6oug
p844
I1
sVd62b3qp
p845
I1
sVcyj4kl3
p846
I1
sVdkn62wa
p847
I1
sVczgl6v8
p848
I1
sVdo4hw90
p849
I1
sVd6mqmrs
p850
I1
sVdblbhpj
p851
I1
sVd2rmpq9
p852
I1
sVd6m59lh
p853
I1
sVdbl3p3j
p854
I1
sVd6j1mtp
p855
I1
sVdt9oiue
p856
I1
sVddwfk5g
p857
I1
sVdnkmr3n
p858
I1
sVcyocysd
p859
I1
sVdjbcixf
p860
I1
sVczm1a39
p861
I1
sVd6zp8i7
p862
I1
sVdd794nm
p863
I1
sVczdwudz
p864
I1
sVdhm32rf
p865
I1
sVdmojf6n
p866
I1
sVd3pgd5o
p867
I1
sVdkrj57a
p868
I1
sVdnrn3aj
p869
I1
sVdrumpkn
p870
I1
sVdiscwv5
p871
I1
sVdn69q9i
p872
I1
sVdi84l9t
p873
I1
sVdf2r8xt
p874
I1
sVd2jltqo
p875
I5
sVdiqebmw
p876
I2
sVd1qpad2
p877
I1
sVd5vteyz
p878
I1
sVd85x3he
p879
I1
sVd21b5hb
p880
I1
sVczfk0d2
p881
I1
sVczq0du1
p882
I2
sVdb0nukg
p883
I1
sVdhuqk46
p884
I1
sVddwe8r6
p885
I1
sVd8foiq2
p886
I1
sVdbjoii3
p887
I1
sVdkn8v3g
p888
I1
sVd7lydlj
p889
I1
sVcyi520y
p890
I1
sVde5s4z8
p891
I1
sVcz3vlwm
p892
I2
sVdd0o0um
p893
I3
sVdccd5ju
p894
I1
sVdavvnn9
p895
I1
sVd4yolp4
p896
I2
sVddn4edh
p897
I1
sVda1k1cm
p898
I1
sVd0rpctw
p899
I1
sVdcufu74
p900
I1
sVdmqxbx2
p901
I1
sVdbvvwuc
p902
I1
sVd5mj62e
p903
I1
sVd9hfyfy
p904
I1
sVdg3ivel
p905
I1
sVde9daxq
p906
I2
sVd2ud99h
p907
I1
sVczwad8u
p908
I1
sVd4o5mbp
p909
I1
sVd0np5n0
p910
I1
sVdps5opk
p911
I1
sVdqwin6a
p912
I1
sVdjmdah1
p913
I1
sVdgue047
p914
I1
sVd908cwd
p915
I1
sVdfjjk1w
p916
I1
sVdj6xuel
p917
I1
sVdb9gj38
p918
I1
sVcyirva8
p919
I1
sVd9wczg7
p920
I2
sVdijjr16
p921
I2
sVdbjvln5
p922
I1
sVczdcalj
p923
I1
sVd01lmwi
p924
I1
sVd3avw7n
p925
I1
sVd9fivcv
p926
I1
sVddmbt5y
p927
I1
sVdkd5zbb
p928
I1
sVd3cg9j7
p929
I1
sVdnvyyq3
p930
I1
sVczqv5om
p931
I1
sVdhatfxh
p932
I1
sVd1qsxm0
p933
I1
sVddz1y1z
p934
I1
sVcyovzvg
p935
I4
sVcyszv8o
p936
I3
sVdgzwhnm
p937
I1
sVda9sun4
p938
I1
sVd6w6f46
p939
I1
sVcz4osz3
p940
I4
sVdn077rs
p941
I1
sVdhc1n1j
p942
I1
sVd52rxsh
p943
I2
sVdhewsom
p944
I1
sVdkkr4nl
p945
I2
sVdmsobx4
p946
I1
sVczfxqz9
p947
I2
sVd0nxwdi
p948
I1
sVd0jtk30
p949
I2
sVd6wm47e
p950
I1
sVdfc0msl
p951
I1
sVdhh1jr3
p952
I2
sVdg3zmlb
p953
I1
sVdr4ukxl
p954
I1
sVde7da29
p955
I1
sVddruz5y
p956
I1
sVd7c9g9q
p957
I1
sVd85pj3x
p958
I1
sVddri6ls
p959
I1
sVd7dsj0a
p960
I1
sVdcv07un
p961
I1
sVd8ohf6k
p962
I1
sVdjt44zb
p963
I2
sVdixvq3s
p964
I4
sVd4jt36l
p965
I1
sVd4jq7j2
p966
I1
sVd5odjpq
p967
I1
sVcz4krxa
p968
I1
sVd0yyexd
p969
I1
sVdd3dbkn
p970
I1
sVdbr4gmt
p971
I1
sVdjmfd28
p972
I1
sVdkpom60
p973
I1
sVd5jb4rd
p974
I3
sVdeeijqw
p975
I1
sVdowd4zg
p976
I1
sVdn8h8h8
p977
I1
sVd3nhlxr
p978
I1
sVd37wcl0
p979
I1
sVcyokbpi
p980
I1
sVdconbya
p981
I1
sVd5bnwno
p982
I1
sVdndbwet
p983
I4
sVcyn1a4j
p984
I1
sVczybpea
p985
I1
sVdktv8ev
p986
I1
sVd6yxq5y
p987
I1
sVd98sz6c
p988
I1
sVdjrtszm
p989
I3
sVdheufe0
p990
I1
sVdnb1az1
p991
I1
sVd1gj8ag
p992
I2
sVdsqp8aq
p993
I1
sVdhufkbc
p994
I2
sVd8yt4ly
p995
I1
sVd04yhxl
p996
I2
sVd0ljx4v
p997
I1
sVdf6nmn2
p998
I1
sVdhuvqjm
p999
I1
sVd4orce4
p1000
I1
sVd11x9j2
p1001
I1
sVd5g5i0t
p1002
I1
sVd471k0z
p1003
I1
sVde2xq4g
p1004
I2
sVdmz9kjp
p1005
I1
sVded4ip9
p1006
I1
sVd2k9znl
p1007
I1
sVd8p14rn
p1008
I1
sVd7pc89e
p1009
I2
sVd35sysc
p1010
I1
sVdmzsyip
p1011
I1
sVd5pv18f
p1012
I1
sVdb0owvy
p1013
I1
sVdcv0baz
p1014
I3
sVd4cyy7z
p1015
I1
sVdcl1u75
p1016
I1
sVdaxonav
p1017
I1
sVd0fxvc1
p1018
I2
sVdqghcjx
p1019
I2
sVdkqv475
p1020
I1
sVd3t8i0u
p1021
I1
sVd6lx689
p1022
I1
sVd572bno
p1023
I1
sVdnhlqii
p1024
I1
sVddd53ap
p1025
I4
sVdmtpxp7
p1026
I3
sVcz4m68b
p1027
I1
sVdf4f21p
p1028
I1
sVddx9hc5
p1029
I1
sVd1tlqds
p1030
I1
sVcyme235
p1031
I1
sVdnolr22
p1032
I1
sVdegc23s
p1033
I1
sVd1trjoe
p1034
I3
sVd4lzalq
p1035
I1
sVdo07j3f
p1036
I2
sVdgso4pd
p1037
I1
sVdciiwfm
p1038
I1
sVdji43tb
p1039
I1
sVcyv95z2
p1040
I1
sVdcuby96
p1041
I1
sVdibwpgj
p1042
I1
sVd9r5aul
p1043
I1
sVcysxagi
p1044
I1
sVd6ftqo2
p1045
I2
sVd8fz4l0
p1046
I1
sVdh7xuu7
p1047
I1
sVd088lrz
p1048
I1
sVcz2pksn
p1049
I1
sVcypuhun
p1050
I1
sVdewwbjq
p1051
I1
sVcyk0bou
p1052
I1
sVdbu92km
p1053
I1
sVdiac5iu
p1054
I1
sVdmg6d7a
p1055
I1
sVdkn8d3u
p1056
I1
sVd2c2l6o
p1057
I1
sVddem404
p1058
I1
sVdpz874h
p1059
I1
sVd2jb3ni
p1060
I1
sVd7lseyu
p1061
I1
sVdabrigp
p1062
I2
sVd099e1c
p1063
I2
sVd5naqvv
p1064
I1
sVd81ap58
p1065
I1
sVdmy0ead
p1066
I1
sVd80hmxb
p1067
I1
sVd4t4nrb
p1068
I1
sVdaj0wv0
p1069
I4
sVczorai0
p1070
I1
sVde19220
p1071
I1
sVdixwdww
p1072
I1
sVdo05r0b
p1073
I1
sVdafmr5n
p1074
I1
sVdq8jeyc
p1075
I1
sVdj4ukui
p1076
I1
sVdj3xlcw
p1077
I1
sVdcf442q
p1078
I1
sVczqiyrp
p1079
I1
sVdochfay
p1080
I1
sVdab8131
p1081
I2
sVd1szhnk
p1082
I1
sVczdk2yf
p1083
I1
sVdkrlj8w
p1084
I1
sVddo5e69
p1085
I1
sVd7jug3x
p1086
I1
sVdc8yrbj
p1087
I1
sVd7ne14j
p1088
I2
sVdit2or6
p1089
I1
sVdbcf62n
p1090
I1
sVd2w2mx1
p1091
I2
sVdjovla6
p1092
I2
sVdcjyq9u
p1093
I1
sVdiimlor
p1094
I1
sVd7wanyp
p1095
I1
sVdcf0k3q
p1096
I1
sVd0dhnrj
p1097
I1
sVd68p0ig
p1098
I1
sVde1bv3g
p1099
I1
sVczg67i6
p1100
I1
sVde6dbdd
p1101
I2
sVcyirutb
p1102
I1
sVd8t4ber
p1103
I1
sVd3kdsxd
p1104
I1
sVdetu4gk
p1105
I1
sVd07p82q
p1106
I1
sVdfghihf
p1107
I1
sVd9qm06v
p1108
I1
sVd9rg2qs
p1109
I1
sVd0eir4o
p1110
I2
sVdkvapti
p1111
I2
sVdf4nhnz
p1112
I1
sVd310rbn
p1113
I1
sVd208b1q
p1114
I1
sVdramlwg
p1115
I1
sVdhtg01i
p1116
I1
sVdjyjzzy
p1117
I1
sVd6m6792
p1118
I1
sVdqe6r3a
p1119
I3
sVd9z495k
p1120
I1
sVczyy56o
p1121
I1
sVd5j2bv8
p1122
I1
sVdfb4rz5
p1123
I1
sVcz2b32k
p1124
I1
sVddctyhd
p1125
I1
sVdf0zhfh
p1126
I2
sVd2qqnnp
p1127
I1
sVd3m4h7y
p1128
I1
sVd5x07h1
p1129
I1
sVd22w7mz
p1130
I2
sVczt8ixv
p1131
I1
sVdpulwbc
p1132
I1
sVd8pg8c6
p1133
I1
sVd6gg33v
p1134
I1
sVdegi4t4
p1135
I1
sVds0045i
p1136
I1
sVd4jg6rm
p1137
I1
sVdi9v1bg
p1138
I1
sVd9othso
p1139
I1
sVcyu878n
p1140
I1
sVd4uzmv7
p1141
I1
sVdcvp4bx
p1142
I1
sVdeunrmn
p1143
I1
sVddktjn1
p1144
I1
sVds2x0mi
p1145
I1
sVd1zcjif
p1146
I5
sVcyjqw9c
p1147
I1
sVdmzmbqr
p1148
I1
sVd9wv4kp
p1149
I1
sVd54cobk
p1150
I1
sVdg6u23g
p1151
I1
sVd3zh12c
p1152
I1
sVd5vtp3h
p1153
I2
sVdov6vuz
p1154
I1
sVddwpu7l
p1155
I1
sVd2nycfx
p1156
I1
sVdjmmhhe
p1157
I1
sVd037mg1
p1158
I1
sVdc6op7y
p1159
I1
sVd8u7muc
p1160
I1
sVdbo4utu
p1161
I1
sVd4tyn2a
p1162
I1
sVdd3jnkk
p1163
I2
sVdc6mxgl
p1164
I2
sVd2ud6cb
p1165
I1
sVdaztdnw
p1166
I1
sVdhojzjn
p1167
I1
sVcz36wdd
p1168
I1
sVdc6uxd3
p1169
I1
sVd3ncmou
p1170
I1
sVd2nbd9b
p1171
I1
sVde17899
p1172
I1
sVd2qfk0k
p1173
I1
sVdr7iw3v
p1174
I1
sVds273xz
p1175
I1
sVd3uj5ek
p1176
I1
sVdngjwoh
p1177
I1
sVd1bxm8d
p1178
I4
sVdnws63b
p1179
I1
sVdho43rf
p1180
I1
sVdff4bsu
p1181
I1
sVd7t1knv
p1182
I1
sVdtc3ghx
p1183
I3
sVdniq9j0
p1184
I1
sVd2zcpgu
p1185
I1
sVczir3bl
p1186
I7
sVdo1e88v
p1187
I3
sVd2x0gi2
p1188
I1
sVd7mn5xi
p1189
I1
sVd0cxq18
p1190
I1
sVd0j7l85
p1191
I2
sVd6gfsmd
p1192
I2
sVd56roui
p1193
I2
sVdou40pu
p1194
I1
sVddmfnvx
p1195
I3
sVd3aybjq
p1196
I1
sVdftivga
p1197
I1
sVdhlory6
p1198
I1
sVcyikqoq
p1199
I1
sVcyp0y2y
p1200
I1
sVd3n3m3j
p1201
I2
sVdjx8ahi
p1202
I1
sVdgb31ya
p1203
I1
sVdncr9ts
p1204
I1
sVd11af4b
p1205
I2
sVd8di37s
p1206
I1
sVdfqtzt5
p1207
I1
sVdbqw0uj
p1208
I1
sVd0ysh05
p1209
I1
sVdficaxb
p1210
I1
sVdbrktuj
p1211
I1
sVcyxxsvd
p1212
I1
sVd7ip677
p1213
I1
sVczoxoz1
p1214
I1
sVd8oahfv
p1215
I3
sVdfppy74
p1216
I1
sVd4ua0ep
p1217
I1
sVd1q7qu7
p1218
I1
sVdnvxtck
p1219
I1
sVd2fl324
p1220
I1
sVdam1pqi
p1221
I1
sVdglqmj2
p1222
I1
sVdqc3lpz
p1223
I1
sVd18mf7f
p1224
I2
sVddp9kid
p1225
I1
sVdal71c8
p1226
I1
sVd1huxz0
p1227
I1
sVd1d1y8l
p1228
I1
sVd0jfz5a
p1229
I1
sVd1v1er8
p1230
I1
sVd0fweii
p1231
I3
sVdc6usmu
p1232
I1
sVcyojwua
p1233
I2
sVdny04f2
p1234
I1
sVdri6gxc
p1235
I3
sVdd7825n
p1236
I1
sVdkqbvmh
p1237
I1
sVd8c9f9w
p1238
I3
sVd9yea32
p1239
I1
sVdbi8kre
p1240
I1
sVdnjkwb5
p1241
I3
sVdhv6v45
p1242
I1
sVdksty9k
p1243
I1
sVdaexglj
p1244
I1
sVdknl2qy
p1245
I1
sVdf2tyf5
p1246
I1
sVd97xqtz
p1247
I1
sVczdjv2e
p1248
I1
sVdcw5a1s
p1249
I1
sVd4we0l7
p1250
I1
sVd3f3cag
p1251
I1
sVdaeibnb
p1252
I1
sVdapi9ee
p1253
I1
sVd0eihk9
p1254
I1
sVcyjkutp
p1255
I3
sVcz07vss
p1256
I1
sVdhuggs5
p1257
I1
sVdi6xdft
p1258
I1
sVdpa42k0
p1259
I1
sVderdf1j
p1260
I2
sVd3y4jdn
p1261
I1
sVczuivep
p1262
I1
sVd093x49
p1263
I1
sVd7xn00i
p1264
I5
sVdkuavax
p1265
I1
sVd83r1b3
p1266
I2
sVdqtodi5
p1267
I1
sVdayaz3u
p1268
I1
sVd18tsbb
p1269
I1
sVd7z27qh
p1270
I3
sVdoerqwv
p1271
I1
sVczyb0ib
p1272
I1
sVdholdmh
p1273
I1
sVdsq5h7y
p1274
I3
sVds3jpgp
p1275
I3
sVdoenlty
p1276
I1
sVd26mp8y
p1277
I2
sVdkhwzqz
p1278
I1
sVd4snrj5
p1279
I6
sVdbcezze
p1280
I1
sVdcrha6l
p1281
I7
sVdr14q5h
p1282
I2
sVdavbw7j
p1283
I1
sVdkyde0g
p1284
I1
sVd5vtw9o
p1285
I3
sVd7m1vhu
p1286
I1
sVdkpjtnr
p1287
I1
sVddoky9l
p1288
I1
sVdhk3uuu
p1289
I1
sVd0mt49y
p1290
I1
sVd1t5q89
p1291
I1
sVd7xxs5j
p1292
I1
sVddj83mh
p1293
I1
sVddyq4oj
p1294
I1
sVdn0miib
p1295
I4
sVddzarah
p1296
I13
sVd2hlzry
p1297
I1
sVd80064a
p1298
I2
sVd23fnr0
p1299
I1
sVd9hdpw2
p1300
I1
sVd1utts8
p1301
I2
sVdqsgcrz
p1302
I1
sVd2g1rel
p1303
I1
sVd1i6rit
p1304
I1
sVdoi4nlg
p1305
I1
sVdnckoch
p1306
I1
sVdrzhd2z
p1307
I1
sVddz25up
p1308
I1
sVdattfqo
p1309
I1
sVdkppzq4
p1310
I1
sVd7yhhap
p1311
I1
sVd65ux2o
p1312
I1
sVdmufqzx
p1313
I2
sVd160kca
p1314
I3
sVd21hjqb
p1315
I4
sVdhz6zc3
p1316
I3
sVdepc7yq
p1317
I1
sVdsxp7t6
p1318
I1
sVdj0yjrp
p1319
I1
sVd3pnr6t
p1320
I1
sVd2a74k9
p1321
I1
sVd43t1sg
p1322
I1
sVczwadjl
p1323
I1
sVd3fmv22
p1324
I1
sVdhig15c
p1325
I1
sVdqibf2w
p1326
I2
sVdcv0dnj
p1327
I2
sVdizyvwh
p1328
I1
sVd9mjy33
p1329
I3
sVczns0lc
p1330
I1
sVd0pldwy
p1331
I1
sVdkcj1fj
p1332
I1
sVdblo4jn
p1333
I1
sVdd2rlzj
p1334
I1
sVd7xmq1x
p1335
I2
sVdif4to6
p1336
I1
sVd4n24lv
p1337
I1
sVdkr6hfo
p1338
I1
sVdc6oouv
p1339
I1
sVdea2fbi
p1340
I1
sVd8ogvpn
p1341
I1
sVdkeb1w7
p1342
I1
sVdfp5ix1
p1343
I1
sVd4174ts
p1344
I2
sVdpx4qwr
p1345
I2
sVd53qkt6
p1346
I1
sVdgvtw8n
p1347
I1
sVcz1fqqo
p1348
I1
sVdo9tnqy
p1349
I1
sVdo67rez
p1350
I1
sVdo06gj2
p1351
I3
sVdcc5cxg
p1352
I1
sVczu9eb2
p1353
I2
sVcytjudx
p1354
I2
sVdruewke
p1355
I1
sVd4n9rc8
p1356
I2
sVd6f9i7n
p1357
I1
sVdixzvls
p1358
I1
sVddx63n1
p1359
I1
sVd18s3cl
p1360
I1
sVd02oked
p1361
I2
sVdi6dwra
p1362
I1
sVdmvp8ak
p1363
I1
sVdgn6f1l
p1364
I1
sVd9wr9vt
p1365
I1
sVdclmtg7
p1366
I1
sVdomx4m3
p1367
I3
sVd3yh0vs
p1368
I1
sVdohadq8
p1369
I1
sVdedhcgb
p1370
I3
sVdcdw5n1
p1371
I1
sVde3ii51
p1372
I1
sVdawcyw5
p1373
I1
sVdjrgx9q
p1374
I1
sVd71e431
p1375
I1
sVddcc59c
p1376
I1
sVdi6nnki
p1377
I1
sVd7pbfj0
p1378
I1
sVd6b2hoo
p1379
I3
sVd5yfqsp
p1380
I1
sVd82w909
p1381
I1
sVdindjmn
p1382
I1
sVdmqbf6o
p1383
I1
sVd2z2dqa
p1384
I2
sVd4qv1ib
p1385
I1
sVddpw1an
p1386
I1
sVdbx5ppn
p1387
I1
sVdhbv5o8
p1388
I1
sVczhve9n
p1389
I1
sVdkcbsf9
p1390
I1
sVd61zxdi
p1391
I1
sVd0bv3d0
p1392
I1
sVd2tzla6
p1393
I1
sVd47aigd
p1394
I1
sVd17tdrr
p1395
I1
sVdj9k5yo
p1396
I1
sVd77wtu4
p1397
I1
sVdrs61is
p1398
I1
sVd7p87w1
p1399
I1
sVdcu2w9j
p1400
I1
sVd05i7qd
p1401
I1
sVd9fdyz5
p1402
I1
sVdppkvx7
p1403
I1
sVd0c8xsx
p1404
I1
sVdnw9a6g
p1405
I4
sVd6stu8k
p1406
I1
sVdh0f893
p1407
I1
sVd1681m1
p1408
I1
sVd3i88ai
p1409
I2
sVdmgsef3
p1410
I1
sVdpqy0dp
p1411
I1
sVde8u6a0
p1412
I1
sVdn50o5y
p1413
I1
sVdg08w32
p1414
I1
sVda3u9a5
p1415
I1
sVd1qk3z9
p1416
I1
sVde1nww2
p1417
I1
sVdg7o79h
p1418
I1
sVdjf38v8
p1419
I3
sVdbcio3k
p1420
I1
sVd9um2nm
p1421
I1
sVd19gtqx
p1422
I1
sVd1fnirv
p1423
I1
sVdbcdsr7
p1424
I1
sVd32dt3f
p1425
I1
sVd8v7qnj
p1426
I1
sVd9mm9xx
p1427
I1
sVdhkbcfy
p1428
I1
sVdfp69v0
p1429
I1
sVd7q2qlk
p1430
I1
sVdghorjm
p1431
I1
sVd0yczh5
p1432
I1
sVdgoy8ef
p1433
I3
sVdd2hizl
p1434
I2
sVd0c4wh5
p1435
I2
sVdeqg6to
p1436
I1
sVdcg6s8d
p1437
I2
sVd2o3dfa
p1438
I1
sVdht0wwc
p1439
I1
sVdq8rr53
p1440
I1
sVcyxavdc
p1441
I3
sVd3y0xoy
p1442
I1
sVdbalor8
p1443
I1
sVdaasjmc
p1444
I1
sVd28ye2d
p1445
I1
sVdcjabw1
p1446
I1
sVczvwxvn
p1447
I1
sVdcky8f6
p1448
I1
sVd21jsvp
p1449
I1
sVdc4v0o2
p1450
I1
sVd0mupuy
p1451
I1
sVddx1dw0
p1452
I1
sVd26kvvw
p1453
I1
sVdgq4w1a
p1454
I1
sVdedhuul
p1455
I4
sVd093yfw
p1456
I1
sVd1ywekh
p1457
I1
sVd0l7jgu
p1458
I1
sVdgo1u1n
p1459
I1
sVd6ltnux
p1460
I1
sVd4adhcx
p1461
I1
sVd7i0h0z
p1462
I1
sVczv39y8
p1463
I1
sVd1pdgdl
p1464
I1
sVdgksuaz
p1465
I1
sVdn962hi
p1466
I1
sVdao1zoc
p1467
I1
sVdecerhd
p1468
I1
sVcz6hjor
p1469
I1
sVddza1d4
p1470
I2
sVdji8ap1
p1471
I3
sVd7t4kps
p1472
I1
sVd7fjb2h
p1473
I1
sVdkx4scc
p1474
I1
sVd52qusu
p1475
I1
sVdegnby0
p1476
I1
sVd9ytni1
p1477
I1
sVdbrks5s
p1478
I1
sVdomfojg
p1479
I1
sVdgueeho
p1480
I1
sVdjkk0sa
p1481
I2
sVd0ukfvr
p1482
I1
sVdqejjpc
p1483
I2
sVd3bfxdx
p1484
I1
sVdn7jc4f
p1485
I2
sVd5rai2u
p1486
I1
sVdmxhuc8
p1487
I1
sVdr82haj
p1488
I2
sVd2bwek3
p1489
I2
sVdsgqigw
p1490
I1
sVds2mwda
p1491
I1
sVdn2vr59
p1492
I1
sVcznx5nq
p1493
I1
sVdpfqmfn
p1494
I1
sVdcbi84k
p1495
I1
sVd1unj20
p1496
I1
sVdfu2wn6
p1497
I1
sVd1yfgw8
p1498
I1
sVcyty19x
p1499
I1
sVd8hmm7h
p1500
I2
sVd1zlllo
p1501
I7
sVd3szsvp
p1502
I1
sVdauso76
p1503
I1
sVdov3278
p1504
I1
sVdg3bznv
p1505
I1
sVdg5uubw
p1506
I1
sVddc1aol
p1507
I1
sVd3c06s4
p1508
I1
sVdiffuhw
p1509
I1
sVczdisc4
p1510
I1
sVd5sngxm
p1511
I1
sVdbieap9
p1512
I1
sVdn943ey
p1513
I1
sVd8nnkoe
p1514
I1
sVd4l9n6y
p1515
I1
sVdk41kbl
p1516
I2
sVdalzrl5
p1517
I1
sVdn2i39p
p1518
I1
sVd1h5onk
p1519
I1
sVdbm5r9d
p1520
I5
sVd0rapay
p1521
I1
sVdso5f5v
p1522
I1
sVdbd5s26
p1523
I1
sVd68sqlb
p1524
I1
sVdjltwjl
p1525
I1
sVd84j0lx
p1526
I1
sVd0o2pjd
p1527
I1
sVdtevk51
p1528
I1
sVd7fphp0
p1529
I1
sVdjvhuc3
p1530
I2
sVd9csuln
p1531
I1
sVd7yob8s
p1532
I1
sVd1gkftb
p1533
I2
sVd4agmi9
p1534
I1
sVdbwowlh
p1535
I1
sVdteetig
p1536
I1
sVdktiygp
p1537
I2
sVd55isga
p1538
I1
sVdipwb83
p1539
I1
sVd9zr1d4
p1540
I1
sVd7geela
p1541
I1
sVd6e8uz2
p1542
I1
sVd0aaat1
p1543
I1
sVd9pzq9s
p1544
I2
sVd0tgdv5
p1545
I1
sVcyinyw9
p1546
I1
sVdpzkuvy
p1547
I1
sVded29jf
p1548
I1
sVd8lo85l
p1549
I2
sVddb7dx2
p1550
I2
sVdduvrck
p1551
I4
sVd8y9fcd
p1552
I4
sVdr4eyj8
p1553
I2
sVdbq4fwq
p1554
I2
sVd0g8z04
p1555
I1
sVdike5wv
p1556
I1
sVdia78yo
p1557
I2
sVdkp9o0p
p1558
I2
sVd5zpv93
p1559
I1
sVdk9h78x
p1560
I1
sVd7p5csh
p1561
I1
sVd97it7e
p1562
I1
sVddcpxm5
p1563
I1
sVdct0jew
p1564
I2
sVd15dwby
p1565
I1
sVd4hua1h
p1566
I1
sVdhqdlhs
p1567
I1
sVdj23yku
p1568
I1
sVdmzo6v2
p1569
I1
sVdbpaolg
p1570
I1
sVd9bqpbn
p1571
I2
sVcz2oipk
p1572
I3
sVd4q5m0p
p1573
I1
sVd0tp68v
p1574
I1
sVd1q93yz
p1575
I1
sVd2b336m
p1576
I1
sVcywoqxw
p1577
I1
sVd3gd2q8
p1578
I1
sVdol4ru1
p1579
I1
sVdn7s066
p1580
I1
sVd1j2m1o
p1581
I1
sVd20j6j5
p1582
I1
sVcz6625g
p1583
I4
sVd0ogtbr
p1584
I2
sVd0wie3i
p1585
I1
sVdd59oz3
p1586
I2
sVd1bqbjr
p1587
I1
sVd02m13k
p1588
I1
sVdhr5ktc
p1589
I1
sVd2r1b26
p1590
I1
sVd0pwt7n
p1591
I1
sVd4kxbrb
p1592
I1
sVcytxda7
p1593
I1
sVdc50616
p1594
I1
sVd0xvbqs
p1595
I1
sVdf04v3v
p1596
I1
sVd7kd71l
p1597
I1
sVd87hix1
p1598
I1
sVd2o25i6
p1599
I2
sVd0aadyr
p1600
I1
sVdorsgsj
p1601
I1
sVcztcojk
p1602
I2
sVdeipe0s
p1603
I1
sVczqwsp5
p1604
I1
sVdp6fjvp
p1605
I2
sVda8jgwd
p1606
I1
sVd91wl8m
p1607
I1
sVdkigdhy
p1608
I1
sVcyr3h76
p1609
I1
sVdhqhusm
p1610
I2
sVdaby17x
p1611
I1
sVczsi7gb
p1612
I1
sVd39mwd3
p1613
I1
sVdpadghd
p1614
I4
sVdj31j8f
p1615
I2
sVdmgknpg
p1616
I1
sVdf7lsfa
p1617
I1
sVd3e8ewr
p1618
I1
sVd6ncx8u
p1619
I1
sVdfpw3q5
p1620
I1
sVdp6phuo
p1621
I1
sVd5tqirt
p1622
I1
sVd8swx11
p1623
I1
sVdhml0vy
p1624
I2
sVdqx8zuj
p1625
I1
sVdk8tzos
p1626
I1
sVcyj6xnl
p1627
I1
sVd323rm4
p1628
I1
sVcz4qa6k
p1629
I1
sVd0dapp9
p1630
I1
sVd6284nk
p1631
I1
sVdf29ivz
p1632
I2
sVd46wr4d
p1633
I1
sVdfv4sxw
p1634
I1
sVdqbyq0e
p1635
I2
sVdobkaur
p1636
I2
sVdewyj76
p1637
I1
sVd85ft7s
p1638
I1
sVdihdipj
p1639
I1
sVd298it5
p1640
I1
sVd7t11yr
p1641
I1
sVdboajxm
p1642
I1
sVdhv6r3u
p1643
I1
sVdjh9vjv
p1644
I1
sVdbi5d78
p1645
I1
sVdr6ogz2
p1646
I1
sVdhu5yrd
p1647
I1
sVd4jwp0h
p1648
I3
sVd7p6h4a
p1649
I4
sVdojkdzd
p1650
I1
sVd4n7yyn
p1651
I2
sVcyn8tqk
p1652
I1
sVd3oxd0m
p1653
I2
sVd17uzgz
p1654
I1
sVcza7cyc
p1655
I2
sVdj41gpx
p1656
I2
sVdcghylh
p1657
I1
sVdc5hvc9
p1658
I2
sVdrevqls
p1659
I1
sVd4na8qu
p1660
I1
sVdgs3sqz
p1661
I1
sVdrdmy0x
p1662
I1
sVddigyx6
p1663
I2
sVdtclz0q
p1664
I1
sVdgn7ocp
p1665
I1
sVdhodivk
p1666
I1
sVdqsn4y3
p1667
I1
sVdg3hb05
p1668
I1
sVd796ozf
p1669
I1
sVd71s64y
p1670
I1
sVdakzhh5
p1671
I1
sVd5cf5hc
p1672
I1
sVdkcc2lv
p1673
I4
sVdowyefn
p1674
I1
sVd1tgh1p
p1675
I3
sVd4u2beu
p1676
I1
sVdjflkjw
p1677
I1
sVd072odu
p1678
I1
sVd1zlzn3
p1679
I1
sVdh6koyc
p1680
I1
sVdctqohr
p1681
I1
sVdbdrhxz
p1682
I3
sVd4jang2
p1683
I1
sVdhyldwz
p1684
I1
s.