(dp0
Vd9dpbix
p1
I1
sVdf876z0
p2
I2
sVdkh8cxt
p3
I1
sVddbanho
p4
I1
sVdab35tn
p5
I1
sVdja25ee
p6
I1
sVdkvz4t1
p7
I1
sVd5rf7dk
p8
I1
sVdb92zf6
p9
I1
sVdkctab3
p10
I1
sVdn9o3gf
p11
I1
sVdnno6nz
p12
I1
sVdfvh6ot
p13
I1
sVda8hakj
p14
I1
sVczehoqx
p15
I1
sVdkw0fpp
p16
I2
sVdazeijf
p17
I1
sVdmq39lj
p18
I1
sVdbmbba3
p19
I1
sVdcdkfbn
p20
I1
sVdgh3j7o
p21
I1
sVdthjdfs
p22
I1
sVda4zu1f
p23
I1
sVddetz24
p24
I1
sVdj50s2a
p25
I1
sVdhpmbpo
p26
I1
sVd4e4aom
p27
I1
sVd6pxxh3
p28
I1
sVdfv0sfq
p29
I1
sVczjykxh
p30
I1
sVd9lrbqj
p31
I2
sVczpwfkh
p32
I1
sVd2q3cvu
p33
I1
sVd9ynv0n
p34
I1
sVd8u7muc
p35
I1
sVcz002qo
p36
I1
sVdd0wt0g
p37
I1
sVdk7wft4
p38
I1
sVd8hl4dl
p39
I2
sVd0xp6j5
p40
I1
sVdfviupy
p41
I1
sVcz5bc4k
p42
I1
sVdfao4bq
p43
I2
sVcymvj2g
p44
I1
sVdekm2mq
p45
I1
sVd6nmnkr
p46
I1
sVdcc8odm
p47
I1
sVdsl7kg8
p48
I1
sVdbjrujd
p49
I1
sVdmt8jrc
p50
I1
sVd4zry5w
p51
I1
sVdkvdxnn
p52
I1
sVd9i8myf
p53
I1
sVdfvgkbt
p54
I1
sVd4bb71v
p55
I1
sVd7djem2
p56
I1
sVcywdvvr
p57
I1
sVd0wqbkm
p58
I1
s.