(dp0
Vd1ut0n2
p1
I1
sVd7c7zqm
p2
I1
sVd6j72zx
p3
I1
sVd3u9104
p4
I1
sVdg1iikm
p5
I1
sVdc9wrib
p6
I1
sVdjthqnz
p7
I1
sVd1k4hmg
p8
I1
sVdmgvxzg
p9
I1
sVdbrnx3k
p10
I1
sVdjlvfi8
p11
I2
sVd3l150e
p12
I1
sVdhsgcjz
p13
I1
sVdfyddsg
p14
I1
sVd2bv50s
p15
I1
sVd2bwvhx
p16
I1
sVdjdbrat
p17
I1
sVd1dok1a
p18
I1
sVdenuz7l
p19
I1
sVd5xpsh6
p20
I1
sVde0qzc4
p21
I1
sVdbkakxr
p22
I1
sVdnkm89o
p23
I1
sVd4eh07m
p24
I1
sVd72jy02
p25
I1
s.