(dp0
Vcyswbs8
p1
I1
s.(dp0
Vcyt2s8x
p1
I1
sVcyswbs8
p2
I1
s.(dp0
Vcytklvt
p1
I1
sVcyswbs8
p2
I1
s.(dp0
Vcytklvt
p1
I1
sVcyswbs8
p2
I1
s.(dp0
Vd13nixv
p1
I1
sVcyswbs8
p2
I1
s.(dp0
Vd4vfslu
p1
I1
sVcyswbs8
p2
I1
s.(dp0
Vdegms9i
p1
I1
sVcyswbs8
p2
I1
s.