(dp0
Vdenm2y8
p1
I1
sVdfigwrd
p2
I1
sVdehdisx
p3
I1
sVdeypl6t
p4
I1
sVdfibc62
p5
I1
sVdiuy6zj
p6
I1
sVd6co03h
p7
I1
sVdn2a59c
p8
I1
sVdf96nfz
p9
I1
sVd02vpfn
p10
I1
sVdp3s8ew
p11
I3
sVdt6m9sq
p12
I1
sVd6e6cb3
p13
I1
sVdoyvyi7
p14
I1
sVcyjoc5q
p15
I2
sVd4v8x37
p16
I1
sVd0usa7d
p17
I1
sVd8834uu
p18
I1
sVd3lx8nq
p19
I1
sVdd6d6mv
p20
I1
sVdgxecpb
p21
I1
sVdg3z9bq
p22
I1
sVdih9311
p23
I2
sVddw8lp4
p24
I3
sVd09q80v
p25
I1
sVdst41rx
p26
I1
sVd45y215
p27
I1
sVd7c2qpo
p28
I1
sVdd9m79e
p29
I1
sVdfi8thn
p30
I1
sVcyjockh
p31
I1
sVd7tc5qv
p32
I1
sVdhojzjn
p33
I1
sVdb0fy7s
p34
I1
sVdi794fl
p35
I1
sVczv0j74
p36
I1
sVdbs6foz
p37
I1
sVd7rzdxw
p38
I2
s.