(dp0
Vd03skw1
p1
I1
s.(dp0
Vd03skw1
p1
I1
sVd1qok8w
p2
I1
s.(dp0
Vdbz3luh
p1
I1
sVd03skw1
p2
I1
s.(dp0
Vd03skw1
p1
I1
sVdcmaj5w
p2
I1
s.(dp0
Vd03skw1
p1
I1
sVdda8zku
p2
I1
s.(dp0
Vd03skw1
p1
I1
sVdeuu8ap
p2
I1
s.(dp0
Vd03skw1
p1
I1
sVdeuu8ap
p2
I1
s.(dp0
Vd03skw1
p1
I1
sVdeuu8ap
p2
I1
s.(dp0
Vdg84h2q
p1
I1
sVd03skw1
p2
I1
s.(dp0
Vd03skw1
p1
I1
sVdhaythv
p2
I1
s.(dp0
Vd03skw1
p1
I1
sVdhn1noq
p2
I1
s.(dp0
Vdiz13qh
p1
I1
sVd03skw1
p2
I1
s.(dp0
Vd03skw1
p1
I1
sVdku7rk3
p2
I1
s.(dp0
Vd03skw1
p1
I1
sVdku7rk3
p2
I1
s.(dp0
Vd03skw1
p1
I1
sVdnjrtda
p2
I1
s.(dp0
Vd03skw1
p1
I1
sVdrpv85l
p2
I1
s.