(dp0
Vdkymp1a
p1
I1
sVd4qsxua
p2
I1
sVdeeujwx
p3
I1
sVdbwkw3t
p4
I1
sVder19ol
p5
I1
sVdcxmx2i
p6
I1
sVdrv0z8s
p7
I1
sVdb7y3bp
p8
I1
sVdon18mg
p9
I1
sVcyyipli
p10
I1
sVd0isdge
p11
I1
sVd5nn7jf
p12
I1
sVdbptsu1
p13
I3
sVdrm22j8
p14
I1
sVdmnq99k
p15
I1
sVdc2qsiu
p16
I1
sVd8i62wt
p17
I2
sVd0i6149
p18
I1
sVczfxu3k
p19
I1
sVdpyrzh7
p20
I1
sVdioeflh
p21
I1
sVd5xpi6i
p22
I1
sVdak3lek
p23
I2
sVd5y9ltu
p24
I1
sVdoxua89
p25
I1
s.