(dp0
Vdi9bhmz
p1
I5
sVd5zqvd8
p2
I1
sVcytn1y7
p3
I1
sVd3814v6
p4
I1
sVd1cp08m
p5
I1
sVd5f8q01
p6
I1
sVcz0gr2j
p7
I1
sVczxgq7i
p8
I1
sVd2rqvgh
p9
I1
sVd2inxin
p10
I1
sVdggvjp4
p11
I1
sVdt0jx64
p12
I1
sVda2en2i
p13
I2
sVdf9kcdn
p14
I1
sVdkiulgb
p15
I1
sVdg974dg
p16
I1
sVdgsf7ux
p17
I1
sVdj4gsre
p18
I2
sVd97qz10
p19
I1
sVcyqlyug
p20
I1
sVdiy8sp4
p21
I1
sVdd84ady
p22
I1
sVd1st4ix
p23
I1
sVd72ohp3
p24
I1
sVdsn2l4b
p25
I1
sVdbuawfz
p26
I1
sVdsevdm0
p27
I1
sVdge3cw5
p28
I3
sVdjdm2of
p29
I1
sVd5d3sut
p30
I1
sVdh0jxog
p31
I1
sVcyovsdm
p32
I1
sVdqki68c
p33
I1
sVdgcsjd7
p34
I1
sVcyqm69b
p35
I2
sVdhr413r
p36
I1
sVdqdfiqj
p37
I1
sVda3cwm5
p38
I1
sVdonyslp
p39
I1
sVd97yb5u
p40
I1
sVdjthbhz
p41
I1
sVcz0ohte
p42
I1
sVd56ypk3
p43
I1
sVdj96aaa
p44
I1
sVd1nr1lc
p45
I1
sVd9kypb9
p46
I1
sVdazw6ml
p47
I2
sVdc98e82
p48
I1
sVdc3tym1
p49
I1
sVdcyta4v
p50
I1
sVdk3qpra
p51
I1
sVdj4nmbs
p52
I1
sVdn5lcpz
p53
I1
sVd9ridui
p54
I1
sVdq4m6gk
p55
I1
sVd15pn0c
p56
I1
sVdkl61ub
p57
I1
sVdi4vmix
p58
I1
sVdt9ek9e
p59
I1
s.