(dp0
Vczzrv8y
p1
I1
s.(dp0
Vczzrv8y
p1
I1
sVd07zhz7
p2
I1
s.(dp0
Vczzrv8y
p1
I1
sVd07zuhy
p2
I1
s.(dp0
Vczzrv8y
p1
I1
sVd07zuhy
p2
I1
s.(dp0
Vczzrv8y
p1
I1
sVd2sl40c
p2
I1
s.(dp0
Vczzrv8y
p1
I1
sVd31i7bt
p2
I1
s.(dp0
Vczzrv8y
p1
I1
sVd3r5yjn
p2
I1
s.(dp0
Vczzrv8y
p1
I1
sVd3r5yjn
p2
I1
s.(dp0
Vd4n726l
p1
I1
sVczzrv8y
p2
I1
s.(dp0
Vczzrv8y
p1
I1
sVd4szipl
p2
I1
s.(dp0
Vczzrv8y
p1
I1
sVd4szipl
p2
I1
s.(dp0
Vczzrv8y
p1
I1
sVd4szipl
p2
I1
s.(dp0
Vczzrv8y
p1
I1
sVd5aosyu
p2
I1
s.(dp0
Vczzrv8y
p1
I1
sVd5un002
p2
I1
s.(dp0
Vczzrv8y
p1
I1
sVd5xw235
p2
I1
s.(dp0
Vczzrv8y
p1
I1
sVd7teksu
p2
I1
s.(dp0
Vczzrv8y
p1
I1
sVd843zbq
p2
I1
s.(dp0
Vczzrv8y
p1
I1
sVd8ffis3
p2
I1
s.(dp0
Vczzrv8y
p1
I1
sVdb1cmow
p2
I1
s.(dp0
Vczzrv8y
p1
I1
sVdb1fg61
p2
I1
s.(dp0
Vczzrv8y
p1
I1
sVdcgj22n
p2
I1
s.(dp0
Vdd0rxmj
p1
I1
sVczzrv8y
p2
I1
s.(dp0
Vczzrv8y
p1
I1
sVdd53rep
p2
I1
s.(dp0
Vczzrv8y
p1
I1
sVddf4iha
p2
I1
s.(dp0
Vczzrv8y
p1
I1
sVdee4isz
p2
I1
s.(dp0
Vczzrv8y
p1
I1
sVdgvr4wr
p2
I1
s.(dp0
Vdhkrjo1
p1
I1
sVczzrv8y
p2
I1
s.(dp0
Vdia02jm
p1
I1
sVczzrv8y
p2
I1
s.(dp0
Vczzrv8y
p1
I1
sVdilyxmo
p2
I1
s.(dp0
Vczzrv8y
p1
I1
sVdjmmqkk
p2
I1
s.(dp0
Vczzrv8y
p1
I1
sVdkmo3ml
p2
I1
s.(dp0
Vczzrv8y
p1
I1
sVdkmo3ml
p2
I1
s.(dp0
Vczzrv8y
p1
I1
sVdkmo3ml
p2
I1
s.(dp0
Vczzrv8y
p1
I1
sVdkvl7f0
p2
I1
s.(dp0
Vczzrv8y
p1
I1
sVdmi1fpn
p2
I1
s.(dp0
Vczzrv8y
p1
I1
sVdnak30t
p2
I1
s.(dp0
Vczzrv8y
p1
I1
sVdnu0jxj
p2
I1
s.(dp0
Vczzrv8y
p1
I1
sVdnu2dza
p2
I1
s.(dp0
Vczzrv8y
p1
I1
sVdnzd0v0
p2
I1
s.(dp0
Vdoct9q3
p1
I1
sVczzrv8y
p2
I1
s.(dp0
Vczzrv8y
p1
I1
sVdop6cn3
p2
I1
s.(dp0
Vdr0pece
p1
I1
sVczzrv8y
p2
I1
s.(dp0
Vczzrv8y
p1
I1
sVdrv50gf
p2
I1
s.