(dp0
Vda2mxlt
p1
I1
sVdammmzs
p2
I1
sVdcgj22n
p3
I1
sVd6lozld
p4
I1
sVdggur6a
p5
I1
sVcztibeh
p6
I1
sVdire6o8
p7
I1
sVcypya2p
p8
I1
sVdde0bsk
p9
I1
sVdbohf4w
p10
I1
sVcz8tr7i
p11
I1
sVczmcfkp
p12
I1
sVd7v4f0a
p13
I1
sVdjozkwb
p14
I2
sVd69krnj
p15
I1
s.