(dp0
Vd9vkfw8
p1
I1
sVd0xofsv
p2
I1
sVdqze2qf
p3
I1
sVdaitsvf
p4
I1
sVdbegk8u
p5
I1
sVd0wfy47
p6
I1
sVd6syqis
p7
I2
sVd1f97n3
p8
I1
sVdgc9zf2
p9
I1
sVdaicp2q
p10
I1
sVdgd7g4v
p11
I1
sVd264fen
p12
I1
s.