(dp0
Vcyn8ckf
p1
I1
s.(dp0
Vcyn8ckf
p1
I1
sVcyuxzwf
p2
I1
s.(dp0
Vd0d0i59
p1
I1
sVcyn8ckf
p2
I1
s.(dp0
Vd0njazh
p1
I1
sVcyn8ckf
p2
I1
s.(dp0
Vcyn8ckf
p1
I1
sVd1a1q7m
p2
I1
s.(dp0
Vd248wxn
p1
I1
sVcyn8ckf
p2
I1
s.(dp0
Vd2drc35
p1
I1
sVcyn8ckf
p2
I1
s.(dp0
Vd2ls0qt
p1
I1
sVcyn8ckf
p2
I1
s.(dp0
Vcyn8ckf
p1
I1
sVd4538ga
p2
I1
s.(dp0
Vd5c5ii5
p1
I1
sVcyn8ckf
p2
I1
s.(dp0
Vd6hgf63
p1
I1
sVcyn8ckf
p2
I1
s.(dp0
Vd844xal
p1
I1
sVcyn8ckf
p2
I1
s.(dp0
Vcyn8ckf
p1
I1
sVd8nbubc
p2
I1
s.(dp0
Vd8puyib
p1
I1
sVcyn8ckf
p2
I1
s.(dp0
Vcyn8ckf
p1
I1
sVd992sc6
p2
I1
s.(dp0
Vcyn8ckf
p1
I1
sVdc6w65c
p2
I1
s.(dp0
Vcyn8ckf
p1
I1
sVdfttrfg
p2
I1
s.(dp0
Vdfxdmq2
p1
I1
sVcyn8ckf
p2
I1
s.(dp0
Vdgd5s6o
p1
I1
sVcyn8ckf
p2
I1
s.(dp0
Vcyn8ckf
p1
I1
sVdgr7g6s
p2
I1
s.(dp0
Vcyn8ckf
p1
I1
sVdn45a0z
p2
I1
s.(dp0
Vcyn8ckf
p1
I1
sVdnvp6ou
p2
I1
s.(dp0
Vcyn8ckf
p1
I1
sVdowhkku
p2
I1
s.(dp0
Vdsp2lxt
p1
I1
sVcyn8ckf
p2
I1
s.