(dp0
Vdahlv82
p1
I1
sVdilorq7
p2
I1
sVdhcs1ld
p3
I1
sVd9fgoxi
p4
I1
sVd22vp51
p5
I1
sVd9hjcta
p6
I1
sVd1tudsg
p7
I1
sVd4467mq
p8
I1
sVdczmqdw
p9
I1
sVd4892d4
p10
I1
sVdde7rlf
p11
I1
sVdo5vnt2
p12
I1
sVdhcif6m
p13
I1
sVdcdj7x8
p14
I1
sVdd05eoi
p15
I2
sVdbgpsl8
p16
I1
sVd53brrr
p17
I1
sVdf0miwv
p18
I1
sVdivchjp
p19
I1
sVdtfrd4m
p20
I1
sVdboc4t7
p21
I1
sVdbo2nn6
p22
I1
sVdfnqni2
p23
I1
sVdfp87tb
p24
I1
sVds2rwov
p25
I1
sVdo3jto6
p26
I2
sVd5ec3i3
p27
I7
sVd3stylo
p28
I1
sVdmwqxm2
p29
I1
sVd14r4fr
p30
I1
sVd2qkb8p
p31
I2
sVddf1k3t
p32
I1
sVdefv63v
p33
I1
sVdfzzqu5
p34
I1
sVdmrz4zv
p35
I1
sVd7nbbcg
p36
I2
sVcyk46g8
p37
I1
sVdakbi0x
p38
I1
sVdp2i8m0
p39
I1
sVdft6sfr
p40
I1
sVd2abhgx
p41
I1
sVdaojvon
p42
I1
sVd5o1jxo
p43
I1
sVd1by8id
p44
I1
sVd5ed0s1
p45
I1
sVda03g02
p46
I1
sVd89132p
p47
I1
sVdncxpy8
p48
I1
sVdd3df1w
p49
I1
sVdi359dz
p50
I1
sVdsxrz3j
p51
I1
sVdbcdimg
p52
I1
sVdmj5gso
p53
I2
sVdbkoad3
p54
I1
sVd66gbf1
p55
I2
sVdtfedzj
p56
I1
sVdanyy84
p57
I1
sVd95j7du
p58
I1
sVd1r1bsw
p59
I1
sVd7ek53l
p60
I1
sVdkf3qdo
p61
I1
sVd9e1lph
p62
I1
sVd4kxbrb
p63
I1
sVd0tybfw
p64
I1
sVde7s1c2
p65
I1
sVd2d8grf
p66
I1
sVdaquxcu
p67
I1
sVd89mgwt
p68
I1
sVdcaycuo
p69
I1
sVd4ymt4l
p70
I1
sVd2o24ie
p71
I3
sVdcx58yu
p72
I1
sVd2o0p1a
p73
I1
sVd3bgst0
p74
I2
sVcyltn6e
p75
I1
sVddgzvqw
p76
I1
sVczlxs62
p77
I1
sVd448j5g
p78
I1
sVdc6pfre
p79
I1
sVd7yfp1j
p80
I1
sVd3bkpon
p81
I1
sVd1gz481
p82
I1
sVczsj6o1
p83
I1
sVddk1rzm
p84
I1
sVd19mapj
p85
I1
sVd18smy9
p86
I1
sVdahfliz
p87
I1
sVdmndafq
p88
I1
sVdeiyots
p89
I1
sVcz6las6
p90
I1
sVd3qgpav
p91
I1
sVdhrmpft
p92
I1
sVdn8l7h0
p93
I1
sVd8ardmw
p94
I1
sVdq189fa
p95
I1
sVd4oyexa
p96
I1
sVdgt89yj
p97
I2
sVd6nn0jp
p98
I1
sVd3q3xqk
p99
I1
sVdpyk4sk
p100
I1
sVdewzp5v
p101
I1
sVdq9apbq
p102
I1
sVcyx5cwp
p103
I1
sVd180rc2
p104
I1
sVd91lp0m
p105
I1
sVd95wpea
p106
I1
sVd78zge7
p107
I1
sVddlgtii
p108
I1
sVdeykq7v
p109
I1
sVd5zfe1u
p110
I2
sVdd1wl51
p111
I1
sVdkmpdm3
p112
I1
sVdhk4qzv
p113
I1
sVd4wxqaa
p114
I1
sVd1duagg
p115
I1
sVdq98aq5
p116
I1
sVddhesj0
p117
I2
sVd9ydsos
p118
I1
sVd3c4s7q
p119
I1
sVdbesuuk
p120
I3
sVdsp3pdb
p121
I1
sVdhgdr04
p122
I1
sVd0rr1oz
p123
I1
sVdp4kxje
p124
I1
sVd0w6qn7
p125
I2
sVdi34m52
p126
I2
sVd3ygxzw
p127
I1
sVd4g0own
p128
I1
sVd37eebj
p129
I1
sVdi0gpwx
p130
I1
sVd7dcm3u
p131
I1
sVd6hq09j
p132
I1
sVd2szeck
p133
I1
sVdmz274g
p134
I1
sVdjn0au3
p135
I1
sVd1l79qt
p136
I1
sVdja5612
p137
I1
sVdq1xgre
p138
I1
sVd6sdjg2
p139
I1
sVd2o2ljv
p140
I1
sVdt3zzdn
p141
I1
sVd6hv9p9
p142
I1
sVdgrlws3
p143
I2
sVd7wldyg
p144
I1
sVdbuyiia
p145
I1
sVdi5f6fx
p146
I1
sVdqqy98k
p147
I3
sVd50mhp5
p148
I1
sVdgehf15
p149
I1
sVd95naor
p150
I1
sVcz2owj2
p151
I1
sVdakq5tz
p152
I1
sVdd20or4
p153
I1
sVdo6cjww
p154
I2
sVd1cnt7r
p155
I1
sVdctz95n
p156
I1
sVd95elvf
p157
I1
sVd1cvt8g
p158
I1
sVd9at8qa
p159
I1
sVdhyeyom
p160
I1
sVcz6mhbg
p161
I1
sVd2nawc9
p162
I1
sVd036de9
p163
I2
sVdh7hd60
p164
I1
sVd1i1xmo
p165
I1
sVdnp4c6c
p166
I1
sVdjk3gnr
p167
I1
sVdrbh9d0
p168
I1
sVdiaqr3l
p169
I1
sVcysnthf
p170
I1
sVdaom69q
p171
I1
sVd3xgzyx
p172
I1
sVd3bcbkm
p173
I1
sVdfgbeoz
p174
I1
sVd7cngvp
p175
I1
sVdjmwi0f
p176
I1
sVd3int0l
p177
I1
sVd5eswwg
p178
I1
sVd9nvsj3
p179
I1
sVd5vlw8i
p180
I1
sVcymzar5
p181
I1
sVd1uyp3h
p182
I1
sVd9y51a7
p183
I1
sVdom6i53
p184
I1
sVd0e116d
p185
I1
sVd8usi89
p186
I1
sVd27a5fb
p187
I2
sVdf6jao3
p188
I1
sVdox5l13
p189
I1
sVdfubar8
p190
I1
sVcynan48
p191
I1
sVdnirx43
p192
I1
sVd12c5c0
p193
I1
sVdaokhxf
p194
I1
sVcz18k22
p195
I1
sVdc5rsre
p196
I1
sVd8ymr1o
p197
I2
sVd1iqy29
p198
I1
sVd88v8fy
p199
I2
sVczsivd3
p200
I1
sVd28ook7
p201
I1
sVd9fujen
p202
I1
sVd1b8tkh
p203
I1
sVd160kca
p204
I1
sVdf7t9da
p205
I1
sVcym0h37
p206
I1
sVdd8kydy
p207
I1
sVdgtgggg
p208
I1
sVdfknb9f
p209
I1
sVd28nbth
p210
I1
sVdszajso
p211
I1
sVd8npto6
p212
I1
sVd5zfb7o
p213
I1
sVdbiczx2
p214
I1
sVdht3wqp
p215
I2
sVdao340f
p216
I1
sVd9tfm60
p217
I1
sVd5xpi6i
p218
I1
sVd6sp09j
p219
I1
sVdq3zd8q
p220
I1
sVd2vyckp
p221
I3
sVd1lt3m9
p222
I2
sVd996x14
p223
I1
sVdimcqam
p224
I1
sVcylz3sr
p225
I1
sVd2jegqr
p226
I1
sVd5lu8fm
p227
I1
sVcz3vzl8
p228
I1
sVdii5glk
p229
I1
sVdex379r
p230
I1
sVd7mzph0
p231
I1
sVdglin7p
p232
I1
sVdczlowa
p233
I1
sVd8u183m
p234
I1
sVdkvapti
p235
I1
sVdjh81xo
p236
I1
sVdbl6o7s
p237
I1
sVcypkj66
p238
I1
sVdnzd0v0
p239
I1
sVdjzclyg
p240
I1
sVddwr14o
p241
I1
sVd08gmwk
p242
I1
sVdanhxue
p243
I1
sVdkowpm2
p244
I1
sVdiqcvqv
p245
I1
sVd69wv29
p246
I1
sVdecbd07
p247
I1
sVdpxhhkd
p248
I1
sVd8rhfbp
p249
I1
sVdfjscgr
p250
I1
sVder9uts
p251
I1
sVde0hmel
p252
I1
sVdfut1f2
p253
I1
sVdko7s0u
p254
I1
sVdjp306j
p255
I2
sVd2gv9j5
p256
I1
sVdf0llia
p257
I1
sVdf944uw
p258
I1
sVdr5u0yt
p259
I1
sVd7g3vtt
p260
I1
sVdf92w6t
p261
I1
sVd6sywl3
p262
I1
sVdmzw5s0
p263
I1
sVdh75oz4
p264
I1
sVdc2ci21
p265
I1
sVdoav1xr
p266
I1
sVd9pzxxe
p267
I1
sVdanqflx
p268
I1
sVdqvylsl
p269
I1
sVd9n01cs
p270
I1
sVdfpje3e
p271
I1
sVdgp7jv2
p272
I1
sVdavsqkt
p273
I1
sVczlqpv3
p274
I1
sVd0vqbz7
p275
I1
sVd5ikj5n
p276
I1
sVdrm3f6i
p277
I1
sVdi4yweo
p278
I1
sVd3nng7v
p279
I1
sVczef2hh
p280
I1
sVd2a9loq
p281
I1
sVdn7apzo
p282
I1
sVdao03w6
p283
I1
sVdhguo5v
p284
I1
sVdqlmind
p285
I1
sVcz4oq3e
p286
I1
sVdjdero6
p287
I1
sVd34v552
p288
I1
s.