(dp0
Vcyifwlq
p1
I1
sVd85j1tu
p2
I1
sVdgmhcn9
p3
I1
sVd4t6u3m
p4
I1
sVd0fz6tv
p5
I1
sVdaxnqnc
p6
I1
sVdoz297i
p7
I5
sVd27pks9
p8
I1
sVczirwxp
p9
I1
sVd9al3d8
p10
I1
sVd6odnhr
p11
I1
sVd9g5ks3
p12
I2
sVd9iwsbq
p13
I1
sVdbtsnrs
p14
I1
sVczx7kh5
p15
I1
sVdd1qgg4
p16
I1
sVczmpsch
p17
I1
sVdgqz4b2
p18
I1
sVd9030y4
p19
I1
sVdazpnaz
p20
I1
sVd1uutqu
p21
I1
sVdrkv2yx
p22
I1
sVdnp452u
p23
I1
sVdkids9m
p24
I1
s.