(dp0
Vcyjs4dx
p1
I1
s.(dp0
Vcyjs4dx
p1
I1
sVcytwvos
p2
I1
s.(dp0
Vcyjs4dx
p1
I1
sVcz0hvtv
p2
I1
s.(dp0
Vcyjs4dx
p1
I1
sVczm6izy
p2
I1
s.(dp0
Vcyjs4dx
p1
I1
sVczobp64
p2
I1
s.(dp0
Vcyjs4dx
p1
I1
sVczobp64
p2
I1
s.(dp0
Vcyjs4dx
p1
I1
sVczobp64
p2
I1
s.(dp0
Vcyjs4dx
p1
I1
sVczttrgp
p2
I1
s.(dp0
Vcyjs4dx
p1
I1
sVczuqry6
p2
I1
s.(dp0
Vcyjs4dx
p1
I1
sVczw7njt
p2
I1
s.(dp0
Vcyjs4dx
p1
I1
sVczxun39
p2
I1
s.(dp0
Vcyjs4dx
p1
I1
sVd024na9
p2
I1
s.(dp0
Vcyjs4dx
p1
I1
sVd0q70uw
p2
I1
s.(dp0
Vcyjs4dx
p1
I1
sVd0yuwd5
p2
I1
s.(dp0
Vcyjs4dx
p1
I1
sVd0yuwd5
p2
I1
s.(dp0
Vcyjs4dx
p1
I1
sVd0yuwd5
p2
I1
s.(dp0
Vcyjs4dx
p1
I1
sVd0yuwd5
p2
I1
s.(dp0
Vcyjs4dx
p1
I1
sVd0z4v7n
p2
I1
s.(dp0
Vcyjs4dx
p1
I1
sVd195pn9
p2
I1
s.(dp0
Vcyjs4dx
p1
I1
sVd1fox9n
p2
I1
s.(dp0
Vcyjs4dx
p1
I1
sVd1jf6jb
p2
I1
s.(dp0
Vcyjs4dx
p1
I1
sVd1jzjyy
p2
I1
s.(dp0
Vcyjs4dx
p1
I1
sVd1jzjyy
p2
I1
s.(dp0
Vcyjs4dx
p1
I1
sVd1zc9r3
p2
I1
s.(dp0
Vcyjs4dx
p1
I1
sVd21j4w2
p2
I1
s.(dp0
Vcyjs4dx
p1
I1
sVd25im42
p2
I1
s.(dp0
Vcyjs4dx
p1
I1
sVd25krfi
p2
I1
s.(dp0
Vcyjs4dx
p1
I1
sVd2azy1w
p2
I1
s.(dp0
Vcyjs4dx
p1
I1
sVd2i1nbx
p2
I1
s.(dp0
Vcyjs4dx
p1
I1
sVd2i9tmh
p2
I1
s.(dp0
Vcyjs4dx
p1
I1
sVd2j5c1o
p2
I1
s.(dp0
Vcyjs4dx
p1
I1
sVd2oe7b4
p2
I1
s.(dp0
Vcyjs4dx
p1
I1
sVd2oe7b4
p2
I1
s.(dp0
Vcyjs4dx
p1
I1
sVd2tlojh
p2
I1
s.(dp0
Vcyjs4dx
p1
I1
sVd2tlojh
p2
I1
s.(dp0
Vcyjs4dx
p1
I1
sVd37kd62
p2
I1
s.(dp0
Vcyjs4dx
p1
I1
sVd386anh
p2
I1
s.(dp0
Vcyjs4dx
p1
I1
sVd3fgfy5
p2
I1
s.(dp0
Vcyjs4dx
p1
I1
sVd40t2ve
p2
I1
s.(dp0
Vcyjs4dx
p1
I1
sVd45n5kl
p2
I1
s.(dp0
Vcyjs4dx
p1
I1
sVd48b7pp
p2
I1
s.(dp0
Vcyjs4dx
p1
I1
sVd4emoby
p2
I1
s.(dp0
Vcyjs4dx
p1
I1
sVd4mou5q
p2
I1
s.(dp0
Vcyjs4dx
p1
I1
sVd5er0ev
p2
I1
s.(dp0
Vcyjs4dx
p1
I1
sVd5rhfr0
p2
I1
s.(dp0
Vcyjs4dx
p1
I1
sVd6akz4x
p2
I1
s.(dp0
Vcyjs4dx
p1
I1
sVd6e7stg
p2
I1
s.(dp0
Vcyjs4dx
p1
I1
sVd6ewfny
p2
I1
s.(dp0
Vcyjs4dx
p1
I1
sVd7ync5h
p2
I1
s.(dp0
Vcyjs4dx
p1
I1
sVd87jkae
p2
I1
s.(dp0
Vcyjs4dx
p1
I1
sVd8bvekt
p2
I1
s.(dp0
Vcyjs4dx
p1
I1
sVd94f3bk
p2
I1
s.(dp0
Vcyjs4dx
p1
I1
sVd99uv52
p2
I1
s.(dp0
Vcyjs4dx
p1
I1
sVd9yym5t
p2
I1
s.(dp0
Vcyjs4dx
p1
I1
sVdaa3ag2
p2
I1
s.(dp0
Vcyjs4dx
p1
I1
sVdahtaku
p2
I1
s.(dp0
Vcyjs4dx
p1
I1
sVdaj3vsk
p2
I1
s.(dp0
Vcyjs4dx
p1
I1
sVdawiccy
p2
I1
s.(dp0
Vcyjs4dx
p1
I1
sVdb67dw3
p2
I1
s.(dp0
Vcyjs4dx
p1
I1
sVdbd7637
p2
I1
s.(dp0
Vcyjs4dx
p1
I1
sVdbifo8r
p2
I1
s.(dp0
Vcyjs4dx
p1
I1
sVdbjr50p
p2
I1
s.(dp0
Vcyjs4dx
p1
I1
sVdbnupxw
p2
I1
s.(dp0
Vcyjs4dx
p1
I1
sVdbw3cp4
p2
I1
s.(dp0
Vcyjs4dx
p1
I1
sVdcg1obm
p2
I1
s.(dp0
Vcyjs4dx
p1
I1
sVdck5evg
p2
I1
s.(dp0
Vcyjs4dx
p1
I1
sVdco194a
p2
I1
s.(dp0
Vcyjs4dx
p1
I1
sVdco207k
p2
I1
s.(dp0
Vcyjs4dx
p1
I1
sVdco207k
p2
I1
s.(dp0
Vcyjs4dx
p1
I1
sVdco207k
p2
I1
s.(dp0
Vcyjs4dx
p1
I1
sVdcxcwa2
p2
I1
s.(dp0
Vcyjs4dx
p1
I1
sVdcxcwa2
p2
I1
s.(dp0
Vcyjs4dx
p1
I1
sVdcxgjmx
p2
I1
s.(dp0
Vcyjs4dx
p1
I1
sVdd4rok0
p2
I1
s.(dp0
Vcyjs4dx
p1
I1
sVdd4rok0
p2
I1
s.(dp0
Vcyjs4dx
p1
I1
sVdd5jp86
p2
I1
s.(dp0
Vcyjs4dx
p1
I1
sVddnzhc9
p2
I1
s.(dp0
Vcyjs4dx
p1
I1
sVdeloqxd
p2
I1
s.(dp0
Vcyjs4dx
p1
I1
sVdepo0k5
p2
I1
s.(dp0
Vcyjs4dx
p1
I1
sVdev0os3
p2
I1
s.(dp0
Vcyjs4dx
p1
I1
sVdfcn1up
p2
I1
s.(dp0
Vcyjs4dx
p1
I1
sVdfgsibx
p2
I1
s.(dp0
Vcyjs4dx
p1
I1
sVdgn3x14
p2
I1
s.(dp0
Vcyjs4dx
p1
I1
sVdgt0l29
p2
I1
s.(dp0
Vcyjs4dx
p1
I1
sVdh3cbm2
p2
I1
s.(dp0
Vcyjs4dx
p1
I1
sVdi521kj
p2
I1
s.(dp0
Vcyjs4dx
p1
I1
sVdijbagv
p2
I1
s.(dp0
Vcyjs4dx
p1
I1
sVdjp0uug
p2
I1
s.(dp0
Vcyjs4dx
p1
I1
sVdmug7ob
p2
I1
s.(dp0
Vcyjs4dx
p1
I1
sVdmug7ob
p2
I1
s.(dp0
Vcyjs4dx
p1
I1
sVdnb133v
p2
I1
s.(dp0
Vcyjs4dx
p1
I1
sVdojz1e9
p2
I1
s.(dp0
Vcyjs4dx
p1
I1
sVdq0eys2
p2
I1
s.(dp0
Vcyjs4dx
p1
I1
sVdrv50gf
p2
I1
s.(dp0
Vcyjs4dx
p1
I1
sVdteph92
p2
I1
s.(dp0
Vcyjs4dx
p1
I1
sVdtf9dhy
p2
I1
s.