(dp0
Vd3i7g9f
p1
I1
sVdjyrvrz
p2
I1
sVda8qkez
p3
I1
sVd24rvfr
p4
I1
sVdf2orzn
p5
I1
sVcz0bjk6
p6
I1
sVcysutgx
p7
I1
sVd9ole1j
p8
I1
sVczs34zb
p9
I1
sVd04cdfi
p10
I1
sVd1vbn02
p11
I1
sVdge7hoz
p12
I1
sVd2tjksb
p13
I1
sVd9gs1yx
p14
I1
sVd9r120r
p15
I1
sVd6p826o
p16
I1
sVdihd0ud
p17
I1
sVdnotc8i
p18
I1
sVdc4cmmh
p19
I1
sVd42flan
p20
I1
sVd17y2ho
p21
I1
sVdbqk6fo
p22
I1
sVd3rcxdu
p23
I1
sVdb1aj9g
p24
I1
sVd1jeuy1
p25
I1
sVdeho7a5
p26
I1
sVdi7pz7c
p27
I1
sVdg16z01
p28
I1
sVcykt977
p29
I1
sVcz3o9vn
p30
I1
sVdcn5ymj
p31
I1
sVd0ch54u
p32
I1
sVdh4wds8
p33
I1
sVd5nf7qa
p34
I1
sVd71ydas
p35
I1
sVd5zetju
p36
I1
sVcznkhep
p37
I1
sVd1ux23f
p38
I1
sVdgwhw18
p39
I1
sVd16q0ly
p40
I1
sVdfwwidx
p41
I1
sVczkrval
p42
I1
sVddf6i49
p43
I1
sVdmxverm
p44
I1
sVdh8jitr
p45
I1
sVd9wab2q
p46
I1
sVd2aryic
p47
I2
sVdjon1tc
p48
I1
sVcyvar6q
p49
I1
sVdcgk2ys
p50
I1
sVdeq06se
p51
I1
sVcysffka
p52
I1
sVdfwj7rr
p53
I1
sVcykg81g
p54
I1
sVd6hqro8
p55
I3
sVcymtjxp
p56
I1
sVd1sbrxr
p57
I1
sVdqtdmye
p58
I1
sVdiqssak
p59
I1
sVd2b7cgz
p60
I1
sVd98unm1
p61
I1
sVd6wqdvs
p62
I1
sVd4m2lsp
p63
I1
sVd6hqiyb
p64
I1
sVdh8n2tr
p65
I1
sVd5mnqn7
p66
I1
sVcziriyn
p67
I1
sVd9zrg39
p68
I1
sVd08yxvo
p69
I2
sVd7ltqm2
p70
I1
sVddjc6ea
p71
I1
sVd0xg8on
p72
I3
sVdd2zo0s
p73
I1
sVd2ndpur
p74
I1
sVdjmi46f
p75
I1
sVczx28h9
p76
I1
sVd6hrrmq
p77
I1
sVd9914i5
p78
I1
sVdetjwoc
p79
I1
sVd8aq57k
p80
I1
sVdjgs3nj
p81
I1
sVcyzd4p3
p82
I1
sVdj423h9
p83
I1
sVd66mzyd
p84
I1
sVd7x2tsh
p85
I1
sVd3vpvby
p86
I1
sVdmljs64
p87
I1
sVd6ks2gd
p88
I1
sVdi3xzzz
p89
I1
sVdac0i1k
p90
I2
sVczh3dq0
p91
I2
sVdko8ugo
p92
I1
sVdbkzuea
p93
I1
sVdmuxpud
p94
I1
sVd7lebs6
p95
I1
sVdnezxwu
p96
I1
sVd4m3nk8
p97
I1
sVd1rqbua
p98
I1
sVdag1a92
p99
I1
sVd1iuzqa
p100
I1
sVdbnv7vo
p101
I1
sVd0689ea
p102
I1
sVd5gmwhf
p103
I1
sVdrks42k
p104
I1
sVdgak0o4
p105
I1
sVdfvdwbj
p106
I1
sVd1vdzg7
p107
I1
sVdfe31vs
p108
I1
sVd2a3f1g
p109
I2
sVd9twsms
p110
I1
sVczbojcg
p111
I1
sVdhfami6
p112
I1
sVd1d4p6b
p113
I1
sVdk2juvp
p114
I1
sVdf5g3qq
p115
I1
sVd1uydax
p116
I1
sVd36nzb0
p117
I1
sVdawx8gt
p118
I1
sVd1v9paq
p119
I1
sVdq6g1wm
p120
I1
sVd4awlf9
p121
I1
sVd1a8x53
p122
I2
sVdpux7i3
p123
I1
sVdimwfgt
p124
I1
sVcyvjfo6
p125
I1
sVd0ou6im
p126
I1
sVd3bx8u7
p127
I1
sVcza6otf
p128
I1
sVdcuh53g
p129
I1
sVdmmv140
p130
I2
sVd61sljg
p131
I1
sVd4aw7ui
p132
I1
sVd9tb60l
p133
I1
sVd7ukgre
p134
I1
sVddb445b
p135
I1
sVd71xw03
p136
I1
sVdmfl2ue
p137
I1
sVd4jnoua
p138
I1
sVdmnkab8
p139
I1
sVd4hmsnh
p140
I1
sVd4svoym
p141
I1
sVd467r0v
p142
I1
sVd2dv4ca
p143
I1
sVd16od1v
p144
I1
sVdo1ih7o
p145
I1
sVd5jb4rd
p146
I1
sVd40nu7p
p147
I1
sVd04dlvl
p148
I2
sVdjopai2
p149
I1
sVczxhju7
p150
I1
sVdex9vh4
p151
I1
sVd0j6bao
p152
I1
sVd2xac8z
p153
I1
sVdeukmkp
p154
I1
sVd6hga4x
p155
I1
sVdfn08g0
p156
I1
sVd3k96rf
p157
I1
sVdd53rep
p158
I1
sVd9e72yj
p159
I1
sVd3h8xcv
p160
I1
sVczzsi0i
p161
I1
sVczlz6y5
p162
I1
sVdd20iu6
p163
I1
sVdaitsvf
p164
I1
sVddk4mfn
p165
I1
sVd0pwuah
p166
I1
sVdg94jyg
p167
I1
sVdjjcgz3
p168
I1
sVd3y8dww
p169
I1
sVdc1js2r
p170
I1
sVd001kfa
p171
I1
sVd97m8z8
p172
I1
sVdbkypl6
p173
I1
sVd16rntz
p174
I1
sVcz5caco
p175
I1
sVczxf3wv
p176
I1
sVdfwqy5c
p177
I1
sVdkzbty4
p178
I1
sVd052kp4
p179
I1
sVdfxxs29
p180
I1
sVd273kfm
p181
I1
sVdt7g4a5
p182
I1
sVdjfu9vp
p183
I1
sVcz42f86
p184
I1
sVdc2hfjc
p185
I1
sVd17y1ke
p186
I2
sVdclx5yw
p187
I1
sVd1uywef
p188
I1
sVd8pn69p
p189
I3
sVd8g5rqp
p190
I5
sVczy207p
p191
I1
sVdo9egnp
p192
I1
sVda8so8y
p193
I1
sVdd53hdi
p194
I1
sVdfm49y3
p195
I1
sVcywjls8
p196
I1
sVcz391k2
p197
I1
sVd3nqyyh
p198
I1
sVd04annx
p199
I1
sVdp6wzum
p200
I2
sVd0nylwe
p201
I1
sVdek5kku
p202
I1
sVd1105gj
p203
I1
sVddbymwg
p204
I1
sVdizc4i2
p205
I1
sVdcbztuz
p206
I1
sVcysv93j
p207
I1
sVdhh8qto
p208
I1
sVd381jt9
p209
I1
sVd9yz12h
p210
I1
sVdeqiy9u
p211
I1
sVd14d8ex
p212
I1
sVd167k9k
p213
I1
sVcz4yu4u
p214
I1
sVd19kmzl
p215
I1
sVdh7hrdu
p216
I1
sVdgelauh
p217
I1
sVd6hg1l7
p218
I1
sVdq8gfvl
p219
I1
sVcykwkrj
p220
I1
sVdem0lk4
p221
I1
sVdcf2i9v
p222
I1
sVdizqdnl
p223
I1
sVdiip0tk
p224
I1
sVdg460rn
p225
I1
sVd4kaqlq
p226
I1
sVd9ecxzf
p227
I1
sVd17yg6g
p228
I1
sVd6xjb8y
p229
I1
sVdex643b
p230
I1
sVd9othso
p231
I1
sVd9dzkl3
p232
I3
sVcz2p5vo
p233
I1
sVdnawmyh
p234
I1
sVd849sby
p235
I1
sVd22g7ku
p236
I1
sVd38b3iv
p237
I1
sVczpgnuy
p238
I1
sVd9fw1gn
p239
I1
sVdqjz45m
p240
I1
sVd75lcd6
p241
I1
sVd3lk2dn
p242
I1
sVdhah3jo
p243
I1
sVdrblxoz
p244
I1
sVd9jowsj
p245
I1
sVdgz81se
p246
I1
sVd8ax5nu
p247
I1
sVdcvjfmo
p248
I1
sVczhjhu0
p249
I1
sVd05nfss
p250
I1
sVdd3pyuf
p251
I1
sVdqebdd4
p252
I1
sVdqte2qr
p253
I1
sVd9vkkmz
p254
I1
sVczptrbp
p255
I1
sVdhsxjp1
p256
I1
sVdjwh98a
p257
I1
sVdc5mmba
p258
I1
sVdd5ty36
p259
I1
sVd8nid73
p260
I1
sVdabguyj
p261
I1
sVdc9ltwc
p262
I1
s.