(dp0
Vdenypa3
p1
I1
sVczh86z9
p2
I1
sVdbjunzx
p3
I2
sVd0iwh7o
p4
I2
sVczixopy
p5
I1
sVd4tvr4v
p6
I1
sVdizele9
p7
I1
sVdhkeejt
p8
I1
sVcyljcc2
p9
I1
sVd8ggyg5
p10
I1
sVdj4hoso
p11
I1
sVd4t6voh
p12
I1
sVdermiga
p13
I1
sVd4tfbpv
p14
I1
sVdedotew
p15
I1
sVdadnyjv
p16
I1
sVdqscmgs
p17
I1
sVd143d58
p18
I2
sVdc3ya19
p19
I1
sVde7enu6
p20
I1
sVdbhqnim
p21
I1
sVd0pcvou
p22
I1
sVd75d8w0
p23
I1
sVd3x74b1
p24
I1
sVdc438kc
p25
I1
sVdnbqpv1
p26
I1
sVd34wt5q
p27
I1
sVd0kwtxo
p28
I1
sVcykt2yp
p29
I1
sVdolt0v3
p30
I1
sVd6kq8ff
p31
I3
sVdne5654
p32
I1
sVdnbuspx
p33
I1
sVdiw5erg
p34
I1
sVdswuyxi
p35
I1
sVdazn3kc
p36
I1
sVdagh9as
p37
I1
sVcykj6nb
p38
I1
sVde0yc37
p39
I2
sVd6mx62g
p40
I1
sVd9rnaz1
p41
I1
sVd8u1xj6
p42
I2
sVcztdbv8
p43
I1
sVd3499jb
p44
I1
sVdcve8pn
p45
I1
sVdn0djku
p46
I2
sVd4sn7xp
p47
I1
sVdjpw3rv
p48
I1
sVdce4alf
p49
I1
sVdh7nz5n
p50
I1
sVdodqngb
p51
I1
sVdrm1h64
p52
I1
sVde42m81
p53
I1
sVd4kqm98
p54
I1
sVdawz8te
p55
I2
sVdfkjfvb
p56
I1
sVd06bhas
p57
I2
sVczt6c1p
p58
I2
sVddx5w3s
p59
I2
sVd8tufdj
p60
I1
sVdjses5z
p61
I1
sVdntoxen
p62
I2
sVddx130i
p63
I1
sVd0qv396
p64
I1
sVd3xvajx
p65
I1
sVd0xt8jw
p66
I1
sVd03e1co
p67
I1
sVd1jg825
p68
I2
sVdfp8e3t
p69
I1
sVddyo9fa
p70
I2
sVd1iqpfk
p71
I1
sVd9e985u
p72
I1
sVd5sh2qk
p73
I1
sVd3f1td7
p74
I1
sVd5vwq4k
p75
I1
sVdcuwjoc
p76
I1
sVdgj2o1q
p77
I1
sVda7j3da
p78
I1
sVddyp4fd
p79
I1
sVdd23rxs
p80
I1
sVdgn6m4e
p81
I1
sVd2ww4pp
p82
I1
sVdhhxbhw
p83
I1
sVd59ki1o
p84
I1
sVdmrjafh
p85
I1
sVd4thmpf
p86
I1
sVd0vmi41
p87
I3
sVdi8lplt
p88
I2
sVd658d82
p89
I1
sVdhyyp3c
p90
I1
sVdiw5413
p91
I1
sVd1ztqpb
p92
I1
sVdj3fjik
p93
I1
sVdaqq4vk
p94
I1
sVd2g9vuo
p95
I1
sVd3hvo0g
p96
I1
sVd3xvimc
p97
I3
sVd7vkdum
p98
I1
sVd2bd6zi
p99
I2
sVczrfe1o
p100
I1
sVd4kqhkk
p101
I1
sVd4gn2qn
p102
I1
sVdggijnw
p103
I1
sVdh84xb1
p104
I1
sVdew4hsu
p105
I1
sVdq76wzf
p106
I1
sVdhiea14
p107
I1
sVdqtigdl
p108
I2
sVd1ier5u
p109
I1
sVdqsl2tn
p110
I1
sVd03w3eu
p111
I1
sVdjv2tvn
p112
I1
sVczfbw6a
p113
I1
sVde799u5
p114
I2
sVd66n3e1
p115
I1
sVd2rvyxa
p116
I1
sVdfat6ln
p117
I1
sVddod92o
p118
I1
sVdo7br4f
p119
I1
sVd4tcp0z
p120
I2
sVdohakk1
p121
I1
sVda351kk
p122
I1
sVdnbti8b
p123
I3
sVddyholk
p124
I2
sVdbmra82
p125
I1
sVdku06gc
p126
I1
sVdnyarb8
p127
I1
sVdt8d0cg
p128
I1
sVcykynfk
p129
I1
sVcykvh4o
p130
I1
sVdpt28v8
p131
I1
sVczsv0qx
p132
I1
sVd33y5cz
p133
I1
sVdrh3fdv
p134
I1
sVd5uhxys
p135
I2
sVd9bwtl9
p136
I1
sVd4u8wtx
p137
I1
sVcyphklk
p138
I1
sVd9jqg78
p139
I1
sVddyr5p4
p140
I1
sVdaz5ro4
p141
I1
sVcyj3q4l
p142
I1
sVdh79efs
p143
I1
sVddy9rrz
p144
I1
sVds138w9
p145
I1
sVd6gdd9n
p146
I1
sVd6db2ea
p147
I1
sVd4twc3f
p148
I3
sVddx2w23
p149
I1
sVdjlxx3v
p150
I1
sVd1iql0i
p151
I1
sVdc3y8vf
p152
I2
sVd90h50r
p153
I1
sVddye8h5
p154
I1
sVdel4efc
p155
I1
sVd5vvn9c
p156
I1
sVd5w4wdr
p157
I1
sVdhknh23
p158
I1
sVd5piay9
p159
I1
sVdqkox95
p160
I1
sVczgu1qr
p161
I1
sVdjlyjun
p162
I3
sVddwyw2k
p163
I1
sVdc6rad3
p164
I1
sVdf8mnck
p165
I1
sVd0y8r9x
p166
I2
sVddyr97y
p167
I1
sVd1bg175
p168
I1
sVdpcuo8o
p169
I2
sVd9hsouy
p170
I2
sVd3ex5mm
p171
I1
sVdgzj0ci
p172
I1
sVd3gei00
p173
I1
sVdqikvg6
p174
I1
sVdos338o
p175
I1
sVd07br2q
p176
I1
sVdbd5s26
p177
I3
sVd0dvrxt
p178
I1
sVd4svmyh
p179
I1
sVdg1tl5e
p180
I2
sVdfb4lav
p181
I1
sVcywi24j
p182
I2
sVczjvfzw
p183
I1
sVd72in8w
p184
I1
sVczob3oc
p185
I4
sVd0gkdzj
p186
I1
sVcylgz3f
p187
I1
sVdrtv17p
p188
I2
sVd06n4fr
p189
I1
sVd8iuswc
p190
I2
sVdjvo379
p191
I1
sVdktfwpt
p192
I1
sVd6td19g
p193
I1
sVd13dnfv
p194
I1
sVcz6yk5i
p195
I2
sVczn7p77
p196
I1
sVczvks22
p197
I1
sVcykqzwk
p198
I2
sVd8ggxd1
p199
I1
sVd10jic5
p200
I1
sVd5imnas
p201
I1
sVd4ttjol
p202
I6
sVdpf88tp
p203
I1
sVdb1mx6i
p204
I1
sVd66y4rn
p205
I2
sVdcqp4zu
p206
I1
sVd7oxw3y
p207
I1
sVddzhq89
p208
I2
sVd6m6792
p209
I1
sVd8n1iqj
p210
I1
sVd0nvygx
p211
I1
sVdaq3y6f
p212
I1
sVd42dmwk
p213
I1
sVd0kw6g2
p214
I1
sVdpbsu4i
p215
I1
sVdt4qtlz
p216
I1
sVczkca1m
p217
I1
sVdorox9h
p218
I1
sVdeb8y2p
p219
I1
sVd90i4j1
p220
I1
sVdt0uv5t
p221
I2
sVdb4i0dh
p222
I1
sVdaarqes
p223
I1
sVd0yivlx
p224
I1
sVczqv5ug
p225
I1
sVdsfumb0
p226
I2
sVde7aaql
p227
I1
sVdddkxl5
p228
I1
sVd4uafu2
p229
I1
sVd4t663n
p230
I5
sVcyl5f9d
p231
I1
sVddwyrmq
p232
I1
sVdh117ya
p233
I1
sVde7za0m
p234
I1
sVdjrqj5w
p235
I2
sVd13zr84
p236
I1
sVdt56bbf
p237
I3
sVda7sezs
p238
I1
sVdel0uim
p239
I1
sVd77v4d3
p240
I1
sVdos5cvl
p241
I1
sVd5vru7o
p242
I1
sVdhqsdt6
p243
I1
sVd53x6qx
p244
I1
sVdg1m8q9
p245
I2
sVdii65a0
p246
I1
sVd4tvvmj
p247
I1
sVddhgmbr
p248
I1
sVdd3vzer
p249
I1
sVd9btfmg
p250
I1
sVdjuwkm6
p251
I1
sVd3otizf
p252
I1
sVd344m12
p253
I1
sVdedommt
p254
I1
sVdpr7odb
p255
I1
sVdjhesvl
p256
I1
sVdjmab7y
p257
I2
sVd2wxjtz
p258
I1
sVd5abhwf
p259
I1
sVd4trr98
p260
I2
sVdeikhdo
p261
I1
sVd4t4ccn
p262
I1
sVd0rn36w
p263
I1
sVd3mikl9
p264
I1
sVdg21b5m
p265
I1
sVddwxdjf
p266
I1
s.