(dp0
Vded391o
p1
I1
sVd9lgvtv
p2
I1
sVdg867nr
p3
I1
sVda6lz6u
p4
I2
sVczyug91
p5
I1
sVd8aqdet
p6
I1
sVd85us5z
p7
I4
sVdcey8re
p8
I1
sVd31d0y0
p9
I2
sVdaoofmd
p10
I1
sVd6h0n8w
p11
I2
sVd319zlu
p12
I2
sVd9eaoh9
p13
I1
sVd477sd8
p14
I1
sVd6p3nmj
p15
I1
sVd9k21un
p16
I1
s.