(dp0
Vdfgs89z
p1
I1
sVd8et7hd
p2
I2
sVdaie30u
p3
I3
sVd0gzrjb
p4
I1
sVcz4t97t
p5
I1
sVd27scnd
p6
I2
sVd3ujr1j
p7
I1
sVd49s96n
p8
I1
sVd6wkswm
p9
I3
sVd0zz30o
p10
I1
sVd0jjqnf
p11
I1
sVd5avlo6
p12
I1
sVdn0kgyq
p13
I2
sVd19jtff
p14
I1
sVdmf3p2m
p15
I1
sVcyzli4i
p16
I1
sVd5apxu1
p17
I1
sVcz92gn1
p18
I1
sVdmf3kv8
p19
I1
sVd12mm6f
p20
I1
sVdcyinft
p21
I3
sVda37x3h
p22
I1
sVd5ausxd
p23
I1
sVdnv85ow
p24
I1
sVdks0vqh
p25
I1
sVdq6hy7j
p26
I2
sVd1ko0vi
p27
I1
sVczz2ol6
p28
I1
sVd8zxs6a
p29
I1
sVczg32c1
p30
I1
sVd9q7n0w
p31
I2
sVd18mvs6
p32
I1
sVd6ljgy0
p33
I2
sVd201lv1
p34
I1
sVd5amjq3
p35
I2
sVd49vz72
p36
I2
sVd8eh4c4
p37
I1
sVdfgm54l
p38
I1
sVdbaud8e
p39
I1
sVd7xx4fg
p40
I1
sVdfkhc13
p41
I1
sVcz3fpcq
p42
I1
sVdequ3qi
p43
I2
sVdt2uqdw
p44
I1
sVd6qt2qf
p45
I2
s.