(dp0
Vd00tqgd
p1
I1
sVdkuexqq
p2
I1
sVdfhs0kr
p3
I1
sVdbdw084
p4
I1
sVd8syztl
p5
I1
sVdc5ka88
p6
I1
sVddl9zdw
p7
I1
sVd7yl360
p8
I2
sVd1n2bxf
p9
I1
sVde3x0jn
p10
I3
sVddi222h
p11
I2
sVdbqux4n
p12
I1
sVdd3bfsi
p13
I1
sVd5apxu1
p14
I3
sVd2bv50s
p15
I1
sVd75cx4c
p16
I1
sVd3mvhq2
p17
I1
sVdhujnfm
p18
I1
sVdt2f6tp
p19
I1
sVd856o6u
p20
I2
sVdedhhle
p21
I1
sVd19vayw
p22
I1
sVdq3amlx
p23
I2
sVdiwusku
p24
I2
sVdfduz0x
p25
I2
sVd49vz72
p26
I1
sVdggjc75
p27
I1
sVd6eopyq
p28
I1
sVcz3fpcq
p29
I1
sVdcbji04
p30
I1
sVd025fdp
p31
I1
sVdmxb9cy
p32
I1
sVcyxuwqk
p33
I1
sVdb7l65v
p34
I1
sVd8hetv4
p35
I1
sVd1hboqe
p36
I1
sVd67hz1g
p37
I1
sVcyjsyax
p38
I2
sVdfckyaj
p39
I4
sVcz51oum
p40
I1
sVdkx36yu
p41
I2
sVdfgt4e0
p42
I1
sVd4zf77q
p43
I3
sVd2ra5rb
p44
I1
sVdsbg3ap
p45
I1
sVdmm1s9z
p46
I1
sVd04uc5a
p47
I1
sVda60znd
p48
I2
sVd7yvyl1
p49
I1
sVd9ag18v
p50
I2
sVd16k6va
p51
I1
sVd7n2mnn
p52
I1
sVd064zty
p53
I1
sVdmm0wcg
p54
I2
sVdc7mpbg
p55
I2
sVcysv2cq
p56
I1
sVdcc6819
p57
I1
sVdqd224d
p58
I1
sVdk496sq
p59
I1
sVdkabama
p60
I1
sVd8a50nw
p61
I2
sVda3u2re
p62
I1
sVd7slpye
p63
I1
sVcz4jzel
p64
I1
sVdfkhhlw
p65
I2
sVdcq48p6
p66
I1
sVd6wlzmb
p67
I1
sVdnv85ow
p68
I1
sVdd0chhb
p69
I1
sVd5kmu6h
p70
I1
sVd8hxqv6
p71
I1
sVczzr12b
p72
I1
sVd1ouw8y
p73
I1
sVdoto3f5
p74
I2
sVddh65ec
p75
I1
sVczzfc59
p76
I3
sVd1xo0kz
p77
I1
sVd079gzt
p78
I1
sVd1z2bgm
p79
I3
sVd88y77q
p80
I1
sVd93pt99
p81
I1
sVdkn3nyd
p82
I2
sVdetmvob
p83
I1
sVdhz6zc3
p84
I1
sVdndaic3
p85
I2
sVdokigs2
p86
I1
sVdfnglng
p87
I1
sVdk702sn
p88
I1
sVddp5bnf
p89
I2
sVd415qci
p90
I1
sVdj9lfrx
p91
I1
sVd862tq1
p92
I1
sVd15253h
p93
I1
sVdmmnrgi
p94
I1
sVdgj8e36
p95
I2
sVdkag5qn
p96
I2
sVd17nkr8
p97
I1
sVdrrwtzz
p98
I1
sVd9ku1bc
p99
I1
sVdjawynj
p100
I1
sVde3z1wx
p101
I1
sVcz92gn1
p102
I1
sVd3v3dhy
p103
I1
sVd5asy9i
p104
I6
sVd0zavq7
p105
I1
sVdrc0vc4
p106
I2
sVd6mk7e5
p107
I4
sVd7173pe
p108
I1
sVdi55t1d
p109
I3
sVd5aql9q
p110
I3
sVdpvbl3d
p111
I2
sVd8j4ftt
p112
I1
sVdq0ppe5
p113
I1
sVd7zy0eu
p114
I1
sVdfg21hc
p115
I1
sVd1qu31y
p116
I1
sVdmkxk7e
p117
I1
sVcz1prys
p118
I1
sVd166qy5
p119
I1
sVd1o5h1v
p120
I1
sVd69xarn
p121
I1
sVdfm8xts
p122
I1
sVdkqmn52
p123
I3
sVdj38uvm
p124
I1
sVdjidlcg
p125
I1
sVdfvlrcn
p126
I1
sVdn1p8wh
p127
I2
sVdhja5xi
p128
I1
sVd65jk2o
p129
I1
sVd0ydg04
p130
I1
sVdo0c8u8
p131
I2
sVczw4h3i
p132
I1
sVd17x5fw
p133
I1
sVdti6mzf
p134
I1
sVd3yn7ue
p135
I1
sVd5kta52
p136
I1
sVdkim9i4
p137
I1
sVd8zr8lr
p138
I1
sVd8cdohv
p139
I1
sVdirendc
p140
I3
sVd5mwbjh
p141
I1
sVd3nb3sv
p142
I1
sVczan9a4
p143
I1
sVdh9d2d8
p144
I1
sVd6ug8z8
p145
I1
sVdqskndp
p146
I1
sVd0xd9m8
p147
I2
sVdsqv7o3
p148
I1
sVczxndye
p149
I1
sVda4ophi
p150
I1
sVcz4x7s5
p151
I1
sVdevm9uz
p152
I1
sVdey5a6c
p153
I6
sVdmiio79
p154
I2
sVd7j9kkv
p155
I1
sVdede0ub
p156
I1
sVd8jcw5o
p157
I1
sVd18972j
p158
I1
sVd2kx7gp
p159
I1
sVdcn43yg
p160
I1
sVd5qcl36
p161
I1
sVddmmdhv
p162
I1
sVczghdm8
p163
I4
sVd9806ku
p164
I1
sVdsc98r0
p165
I1
sVdpz9ey8
p166
I1
sVd149c63
p167
I1
sVd3z7ijh
p168
I1
sVd26jsdu
p169
I1
sVdmqbf6o
p170
I1
sVdhot1dh
p171
I2
sVd35szux
p172
I1
sVd1ojrq8
p173
I2
sVdsqyc7r
p174
I1
sVd5crnec
p175
I1
sVczei03t
p176
I1
sVd2auzr5
p177
I1
sVdedizz6
p178
I1
sVdt30bnj
p179
I4
sVd04egvc
p180
I1
sVcz5yxsj
p181
I1
sVd4zsktv
p182
I1
sVdrl6egf
p183
I1
sVdkilvkh
p184
I1
sVd1uo199
p185
I1
sVdsw5k32
p186
I1
sVddrivid
p187
I1
sVdqvglw7
p188
I1
sVdae8y2v
p189
I3
sVdrp6hsk
p190
I1
sVdc4bxc2
p191
I1
sVd1oz2lk
p192
I2
sVdg820ky
p193
I1
sVdjkuicz
p194
I1
sVd7r3n3q
p195
I1
sVdbsp7s9
p196
I2
sVdgbhsuh
p197
I1
sVd3bdn6n
p198
I1
sVd8c0eek
p199
I1
sVcyv2pw4
p200
I1
sVdjlnco6
p201
I1
sVdfyjl8n
p202
I2
sVdfpwfmi
p203
I1
sVd835meo
p204
I1
sVdfnfln6
p205
I1
sVddki7yk
p206
I2
sVd8c3gxw
p207
I1
sVd6kizkn
p208
I1
sVd9yz12h
p209
I2
sVdedcmh7
p210
I1
sVdfzdvei
p211
I1
sVddp5gus
p212
I1
sVdpx3twg
p213
I1
sVd49s96n
p214
I2
sVdkbio99
p215
I2
sVd5bvohk
p216
I2
sVdf9b8mv
p217
I1
sVdk6ypyj
p218
I1
sVd8786g0
p219
I1
sVdd7srzi
p220
I1
sVdgi5g4r
p221
I1
sVdfwcv5x
p222
I1
sVdd4iyv7
p223
I1
sVd8zxs6a
p224
I1
sVcyuw545
p225
I1
sVdoli5cd
p226
I1
sVdbaoun8
p227
I2
sVdjwqc4q
p228
I3
sVd0yg0zv
p229
I2
sVde3jkx8
p230
I1
sVd5arfwg
p231
I1
sVdf5rcyy
p232
I1
sVdnf5bpg
p233
I1
sVdgi5hnm
p234
I1
sVd9f9jgn
p235
I2
sVd044wqm
p236
I1
sVd0p0aaa
p237
I1
sVd7yncpa
p238
I1
sVd13p0sy
p239
I1
sVdaeaev3
p240
I1
sVd84nm0z
p241
I1
sVdhlls1p
p242
I1
sVdj3e623
p243
I2
sVdfngmkd
p244
I2
sVd618sl0
p245
I2
sVdb0ev7p
p246
I1
sVdo1ugio
p247
I1
sVd5n825r
p248
I1
sVdeq2g66
p249
I1
sVd4vaiz8
p250
I1
sVdbytqxe
p251
I3
sVd4xw36d
p252
I2
sVdpyxunv
p253
I1
sVdjb6fr5
p254
I1
sVdgg67k7
p255
I1
sVcz8prb1
p256
I1
sVd2kfv26
p257
I1
sVdk128lm
p258
I1
sVczegg90
p259
I1
sVcymx3j7
p260
I1
sVd4ce606
p261
I1
sVd1855i0
p262
I1
sVd2fqmk2
p263
I1
sVdo25ekl
p264
I1
sVdhbjrsl
p265
I1
sVdox0yqr
p266
I1
sVd12qbmu
p267
I1
sVd4kyor4
p268
I1
sVcyl2aks
p269
I2
sVdefls45
p270
I1
sVdihbpfd
p271
I2
sVdhuc5dd
p272
I1
sVcz1zxsp
p273
I1
sVdk6nul3
p274
I1
sVdaf9ya9
p275
I2
sVdeq29nr
p276
I3
sVd9q7n0w
p277
I2
sVda0lijg
p278
I1
sVd7dr3ss
p279
I1
sVdf5bhwl
p280
I1
sVd1i1o6o
p281
I1
sVde98oxy
p282
I1
sVdmnp3yy
p283
I1
sVdpjlib8
p284
I1
sVdbywo0f
p285
I1
sVdahmc1g
p286
I1
sVdhm0w6x
p287
I2
sVdrc0tfn
p288
I1
sVdklzy2s
p289
I1
sVdddc0t5
p290
I1
sVczbtttb
p291
I1
sVczal5m0
p292
I2
sVdi776hw
p293
I1
sVd6qt9su
p294
I1
sVd2s470r
p295
I1
sVd7fy9no
p296
I1
sVczcbhf5
p297
I1
sVdgq8kax
p298
I1
sVdbtkbmw
p299
I2
sVd7uhnjz
p300
I1
sVdbqkjo3
p301
I1
sVdd3wfsd
p302
I1
sVdhuok6m
p303
I2
sVcz3e2fn
p304
I1
sVdcbijiq
p305
I2
sVd266hfz
p306
I2
sVdcrlzq3
p307
I1
sVdqp0tjz
p308
I1
sVd9zli5i
p309
I2
sVddi1uxq
p310
I1
sVdd5cgfd
p311
I1
sVdid77m4
p312
I1
sVd7n30lg
p313
I1
sVdmzz4m8
p314
I1
sVdpxt8mj
p315
I2
sVd0qy6uf
p316
I1
sVde5hlaf
p317
I1
sVdiip0tk
p318
I1
sVdqdbxo4
p319
I1
sVdfjbmwk
p320
I1
sVd2vg332
p321
I2
sVdiyqn9p
p322
I1
sVd9x4dmg
p323
I3
sVd6ik7x3
p324
I2
sVdb7d1cu
p325
I1
sVdievjox
p326
I1
sVdbsr3ad
p327
I1
sVd7ucq3n
p328
I1
sVdip0zhe
p329
I1
sVdgiyvy7
p330
I2
sVdmx3gkd
p331
I1
sVde9xase
p332
I1
sVd02aryf
p333
I1
sVdpjccig
p334
I1
sVd51wt4h
p335
I1
sVcz8d9sz
p336
I6
sVdgvp2vn
p337
I1
sVdqptek0
p338
I1
sVdk4oqpn
p339
I1
sVd4or4v6
p340
I1
sVdt9zxwg
p341
I1
sVd69kqcw
p342
I1
sVd1vhfok
p343
I1
sVd65h6us
p344
I1
sVd4sevmj
p345
I1
sVdkhv4yf
p346
I1
sVd14umao
p347
I1
sVd2c4yrj
p348
I1
sVdoqqjc8
p349
I1
sVdjkfjt9
p350
I1
sVd14uozi
p351
I1
sVdbvpccv
p352
I4
sVd7xiosq
p353
I1
sVczg7drt
p354
I1
sVd6srw1h
p355
I1
sVdj8ag0a
p356
I1
sVd18oxo6
p357
I1
sVd0urpbv
p358
I4
sVdqsklkt
p359
I2
sVd6tb4f0
p360
I1
sVda2iawe
p361
I1
sVd6ca859
p362
I1
sVdrvjadm
p363
I1
sVdb55nex
p364
I1
sVdqblk6i
p365
I1
sVdqkeeav
p366
I1
sVdjuv9js
p367
I1
sVd878diw
p368
I3
sVd97dq6q
p369
I1
sVdj41nz5
p370
I4
sVdfnglox
p371
I1
sVd8irr8t
p372
I2
sVd978jqb
p373
I1
sVd009s76
p374
I1
sVd8ls26i
p375
I2
sVdnlzefh
p376
I1
sVdb53f34
p377
I1
sVdj3grnl
p378
I2
sVd2blz2o
p379
I1
sVdg7f6yy
p380
I1
sVdjx5hnx
p381
I1
sVd6xr1vy
p382
I1
sVcys7jw1
p383
I1
sVdthuaum
p384
I1
sVdp6764d
p385
I2
sVd5jletk
p386
I2
sVd12nntg
p387
I1
sVdpz99dq
p388
I1
sVddw469v
p389
I1
sVdt2uqdw
p390
I1
sVdn0x17d
p391
I2
sVczt9ezl
p392
I1
sVd61brqf
p393
I2
sVd7v7tqr
p394
I1
sVdojqj2p
p395
I2
sVdcjyjry
p396
I1
sVd59hwg6
p397
I1
sVdted1c5
p398
I1
sVd8oi0mw
p399
I1
sVde97tyx
p400
I1
sVdhukh4b
p401
I1
sVdixr575
p402
I1
sVd4gn2qn
p403
I1
sVdjzo6ow
p404
I1
sVczz2ol6
p405
I3
sVdhcgytq
p406
I1
sVdqdaetf
p407
I2
sVd1ouw0n
p408
I1
sVdhsx3vi
p409
I1
sVdfwgq03
p410
I1
sVd7j5mkt
p411
I1
sVddi9t08
p412
I1
sVd70w5pp
p413
I1
sVds9mo5i
p414
I1
sVdae708w
p415
I1
sVdihfb3k
p416
I3
sVdnak30t
p417
I2
sVdrfk6zl
p418
I1
sVdfuqutg
p419
I1
sVd3orqf8
p420
I1
sVdej9ua2
p421
I1
sVczgict2
p422
I4
sVdta6gyw
p423
I1
sVdgxle6v
p424
I4
sVdg7wpjv
p425
I1
sVd65heqx
p426
I1
sVcz4szvd
p427
I1
sVd3m4orb
p428
I1
sVdk8xj3j
p429
I1
sVde26iay
p430
I1
sVd624jzk
p431
I3
sVd0w4hd7
p432
I1
sVd5kmvzx
p433
I1
sVdbammhx
p434
I1
sVczzdpac
p435
I1
sVd1uva2n
p436
I1
sVdh27ip8
p437
I1
sVdcbitvo
p438
I1
sVdhupr08
p439
I1
sVdt8lseb
p440
I1
sVd20fg9l
p441
I1
s.