(dp0
Vd4nm6ky
p1
I1
sVd5vzea2
p2
I1
sVd8c5ny4
p3
I1
sVddwkrf1
p4
I1
sVdizjuo2
p5
I1
sVd95naor
p6
I1
sVd3ug0db
p7
I1
sVddbops4
p8
I1
sVd86ap5d
p9
I1
sVd1284su
p10
I1
sVd3uhu68
p11
I1
sVdeptl3n
p12
I1
sVczojm1w
p13
I1
sVddijpiu
p14
I1
sVd6ebpy1
p15
I1
sVd9ry115
p16
I1
sVdf1ybd9
p17
I2
sVd17r19e
p18
I1
sVddsimzo
p19
I1
sVddwgyzb
p20
I1
sVd0jpw8c
p21
I1
sVd35elyk
p22
I2
sVdbo2g38
p23
I1
sVd5bf8c5
p24
I2
sVdb09rqo
p25
I1
sVdcht4tv
p26
I1
sVddas0vf
p27
I1
sVd9vk62z
p28
I1
sVdaiwozs
p29
I1
sVdj4nays
p30
I1
sVdcxjt40
p31
I1
sVdd0jy8r
p32
I1
sVdjuvw8c
p33
I1
sVdhcdx3y
p34
I1
sVd367obp
p35
I1
sVddx417e
p36
I2
sVd1r8jlq
p37
I2
sVdcul1m1
p38
I1
sVddwkpna
p39
I1
sVd8v24a5
p40
I1
sVd9687kr
p41
I1
sVdggjj9k
p42
I5
sVd0wsjts
p43
I1
sVdihfbe0
p44
I1
sVdg7c9ov
p45
I1
sVcyzhpvi
p46
I1
sVdkt8aew
p47
I1
sVdjbcnbb
p48
I1
sVdggvbmf
p49
I1
sVdihd31j
p50
I1
sVds95jze
p51
I1
sVd07ewcp
p52
I1
sVdq0ppe5
p53
I1
sVd3no328
p54
I1
sVdf1xcin
p55
I1
sVcza32g5
p56
I1
s.