(dp0
Vd7enxxr
p1
I1
s.(dp0
Vd7enxxr
p1
I2
s.(dp0
Vd7enxxr
p1
I2
s.(dp0
Vd7enxxr
p1
I2
s.(dp0
Vd7enxxr
p1
I1
sVd9cr7du
p2
I1
s.(dp0
Vde7019t
p1
I1
sVd7enxxr
p2
I1
s.(dp0
Vdflyrn4
p1
I1
sVd7enxxr
p2
I1
s.(dp0
Vd7enxxr
p1
I1
sVdhs16tj
p2
I1
s.(dp0
Vdi3d6fc
p1
I1
sVd7enxxr
p2
I1
s.(dp0
Vd7enxxr
p1
I1
sVdk0nwgy
p2
I1
s.