(dp0
Vd15mwco
p1
I1
s.(dp0
Vd15mwco
p1
I1
sVd1v62pg
p2
I1
s.(dp0
Vd372r6a
p1
I1
sVd15mwco
p2
I1
s.(dp0
Vd15mwco
p1
I1
sVd3iux1t
p2
I1
s.(dp0
Vd4ov771
p1
I1
sVd15mwco
p2
I1
s.(dp0
Vd15mwco
p1
I1
sVdbed3yc
p2
I1
s.(dp0
Vdcxjtrn
p1
I1
sVd15mwco
p2
I1
s.(dp0
Vd15mwco
p1
I1
sVdd5avkm
p2
I1
s.(dp0
Vd15mwco
p1
I1
sVdf7k1lw
p2
I1
s.(dp0
Vdhfljj5
p1
I1
sVd15mwco
p2
I1
s.(dp0
Vd15mwco
p1
I1
sVdihh49a
p2
I1
s.(dp0
Vdmzbr4p
p1
I1
sVd15mwco
p2
I1
s.