(dp0
Vcyhvog3
p1
I1
s.(dp0
Vcyi1chj
p1
I1
sVcyhvog3
p2
I1
s.(dp0
Vcyhvog3
p1
I1
sVcyi7rdb
p2
I1
s.(dp0
Vcyicat8
p1
I1
sVcyhvog3
p2
I1
s.(dp0
Vcyhvog3
p1
I1
sVcyikjrv
p2
I1
s.(dp0
Vcyhvog3
p1
I1
sVcyj3pjg
p2
I1
s.(dp0
Vcyj41vw
p1
I1
sVcyhvog3
p2
I1
s.(dp0
Vcyj56fr
p1
I1
sVcyhvog3
p2
I1
s.(dp0
Vcyj9g5z
p1
I1
sVcyhvog3
p2
I1
s.(dp0
Vcyhvog3
p1
I1
sVcyjv5pm
p2
I1
s.(dp0
Vcyjvidq
p1
I1
sVcyhvog3
p2
I1
s.(dp0
Vcyk9em1
p1
I1
sVcyhvog3
p2
I1
s.(dp0
Vcyhvog3
p1
I1
sVcykgsbi
p2
I1
s.(dp0
Vcykicog
p1
I1
sVcyhvog3
p2
I1
s.(dp0
Vcykqr70
p1
I1
sVcyhvog3
p2
I1
s.(dp0
Vcyhvog3
p1
I1
sVcyl3bjl
p2
I1
s.(dp0
Vcyldthq
p1
I1
sVcyhvog3
p2
I1
s.(dp0
Vcyljclh
p1
I1
sVcyhvog3
p2
I1
s.(dp0
Vcyljclh
p1
I1
sVcyhvog3
p2
I1
s.(dp0
Vcyhvog3
p1
I1
sVcylkhds
p2
I1
s.(dp0
Vcylwnvm
p1
I1
sVcyhvog3
p2
I1
s.(dp0
Vcyhvog3
p1
I1
sVcymgg7n
p2
I1
s.(dp0
Vcyhvog3
p1
I1
sVcymhym2
p2
I1
s.(dp0
Vcymtgng
p1
I1
sVcyhvog3
p2
I1
s.(dp0
Vcyhvog3
p1
I1
sVcyn9081
p2
I1
s.(dp0
Vcyna17z
p1
I1
sVcyhvog3
p2
I1
s.(dp0
Vcyna4pq
p1
I1
sVcyhvog3
p2
I1
s.(dp0
Vcync7nr
p1
I1
sVcyhvog3
p2
I1
s.(dp0
Vcyhvog3
p1
I1
sVcyngzrw
p2
I1
s.(dp0
Vcyhvog3
p1
I1
sVcynob8u
p2
I1
s.(dp0
Vcyhvog3
p1
I1
sVcyo1ne1
p2
I1
s.(dp0
Vcyhvog3
p1
I1
sVcyocqzx
p2
I1
s.(dp0
Vcyop3mh
p1
I1
sVcyhvog3
p2
I1
s.(dp0
Vcyop3mh
p1
I1
sVcyhvog3
p2
I1
s.(dp0
Vcyos513
p1
I1
sVcyhvog3
p2
I1
s.(dp0
Vcyp04dd
p1
I1
sVcyhvog3
p2
I1
s.(dp0
Vcyp78mi
p1
I1
sVcyhvog3
p2
I1
s.(dp0
Vcypiitm
p1
I1
sVcyhvog3
p2
I1
s.(dp0
Vcypji73
p1
I1
sVcyhvog3
p2
I1
s.(dp0
Vcypji73
p1
I1
sVcyhvog3
p2
I1
s.(dp0
Vcypsjwi
p1
I1
sVcyhvog3
p2
I1
s.(dp0
Vcypsvq3
p1
I1
sVcyhvog3
p2
I1
s.(dp0
Vcypsvq3
p1
I1
sVcyhvog3
p2
I1
s.(dp0
Vcyhvog3
p1
I1
sVcypuiue
p2
I1
s.(dp0
Vcypzo5a
p1
I1
sVcyhvog3
p2
I1
s.(dp0
Vcyq3tfz
p1
I1
sVcyhvog3
p2
I1
s.(dp0
Vcyhvog3
p1
I1
sVcyqc00y
p2
I1
s.(dp0
Vcyqgbre
p1
I1
sVcyhvog3
p2
I1
s.(dp0
Vcyqgbre
p1
I1
sVcyhvog3
p2
I1
s.(dp0
Vcyhvog3
p1
I1
sVcyqm7zg
p2
I1
s.(dp0
Vcyr5esb
p1
I1
sVcyhvog3
p2
I1
s.(dp0
Vcysj0h2
p1
I1
sVcyhvog3
p2
I1
s.(dp0
Vcysljcq
p1
I1
sVcyhvog3
p2
I1
s.(dp0
Vcyhvog3
p1
I1
sVcysohjl
p2
I1
s.(dp0
Vcyt1nfz
p1
I1
sVcyhvog3
p2
I1
s.(dp0
Vcyt4b64
p1
I1
sVcyhvog3
p2
I1
s.(dp0
Vcyti6s4
p1
I1
sVcyhvog3
p2
I1
s.(dp0
Vcytp44s
p1
I1
sVcyhvog3
p2
I1
s.(dp0
Vcyuehpc
p1
I1
sVcyhvog3
p2
I1
s.(dp0
Vcyv5cz6
p1
I1
sVcyhvog3
p2
I1
s.(dp0
Vcyhvog3
p1
I1
sVcyv6qh5
p2
I1
s.(dp0
Vcyhvog3
p1
I1
sVcyv8sdh
p2
I1
s.(dp0
Vcyhvog3
p1
I1
sVcyvap6u
p2
I1
s.(dp0
Vcyhvog3
p1
I1
sVcyvazcd
p2
I1
s.(dp0
Vcyvqadq
p1
I1
sVcyhvog3
p2
I1
s.(dp0
Vcyvqadq
p1
I1
sVcyhvog3
p2
I1
s.(dp0
Vcyvvzsu
p1
I1
sVcyhvog3
p2
I1
s.(dp0
Vcyhvog3
p1
I1
sVcywjcbp
p2
I1
s.(dp0
Vcyhvog3
p1
I1
sVcywzrdy
p2
I1
s.(dp0
Vcyhvog3
p1
I1
sVcyxavdc
p2
I1
s.(dp0
Vcyhvog3
p1
I1
sVcyxuotd
p2
I1
s.(dp0
Vcyyp8c6
p1
I1
sVcyhvog3
p2
I1
s.(dp0
Vcyhvog3
p1
I1
sVcyyrooy
p2
I1
s.(dp0
Vcyzevgx
p1
I1
sVcyhvog3
p2
I1
s.(dp0
Vcyzgq1j
p1
I1
sVcyhvog3
p2
I1
s.(dp0
Vcyzk9l1
p1
I1
sVcyhvog3
p2
I1
s.(dp0
Vcz1940t
p1
I1
sVcyhvog3
p2
I1
s.(dp0
Vcyhvog3
p1
I1
sVcz1gblz
p2
I1
s.(dp0
Vcz1liz8
p1
I1
sVcyhvog3
p2
I1
s.(dp0
Vcz1liz8
p1
I1
sVcyhvog3
p2
I1
s.(dp0
Vcz2jwa7
p1
I1
sVcyhvog3
p2
I1
s.(dp0
Vcyhvog3
p1
I1
sVcz30y8c
p2
I1
s.(dp0
Vcz3oah5
p1
I1
sVcyhvog3
p2
I1
s.(dp0
Vcz3q2gi
p1
I1
sVcyhvog3
p2
I1
s.(dp0
Vcz4h5d2
p1
I1
sVcyhvog3
p2
I1
s.(dp0
Vcz4h5d2
p1
I1
sVcyhvog3
p2
I1
s.(dp0
Vcz4h5d2
p1
I1
sVcyhvog3
p2
I1
s.(dp0
Vcz4mbrw
p1
I1
sVcyhvog3
p2
I1
s.(dp0
Vcyhvog3
p1
I1
sVcz4nscs
p2
I1
s.(dp0
Vcyhvog3
p1
I1
sVcz4szvd
p2
I1
s.(dp0
Vcyhvog3
p1
I1
sVcz506gk
p2
I1
s.(dp0
Vcz51ksz
p1
I1
sVcyhvog3
p2
I1
s.(dp0
Vcz55qnk
p1
I1
sVcyhvog3
p2
I1
s.(dp0
Vcz55qnk
p1
I1
sVcyhvog3
p2
I1
s.(dp0
Vcyhvog3
p1
I1
sVcz5azlc
p2
I1
s.(dp0
Vcz5btqr
p1
I1
sVcyhvog3
p2
I1
s.(dp0
Vcyhvog3
p1
I1
sVcz6w6x8
p2
I1
s.(dp0
Vcyhvog3
p1
I1
sVcz6w6x8
p2
I1
s.(dp0
Vcz6yvlj
p1
I1
sVcyhvog3
p2
I1
s.(dp0
Vcz6zllb
p1
I1
sVcyhvog3
p2
I1
s.(dp0
Vcz8n7jx
p1
I1
sVcyhvog3
p2
I1
s.(dp0
Vcyhvog3
p1
I1
sVcza00pb
p2
I1
s.(dp0
Vcza127a
p1
I1
sVcyhvog3
p2
I1
s.(dp0
Vcyhvog3
p1
I1
sVczb5on4
p2
I1
s.(dp0
Vcyhvog3
p1
I1
sVczbm6zu
p2
I1
s.(dp0
Vcyhvog3
p1
I1
sVczbq05e
p2
I1
s.(dp0
Vczbtj3w
p1
I1
sVcyhvog3
p2
I1
s.(dp0
Vczcb33v
p1
I1
sVcyhvog3
p2
I1
s.(dp0
Vcy(dp0
Vcyhvog3
p1
I1
sVdtie98z
p2
I1
s.