(dp0
Vddt52s4
p1
I1
sVd4i7nf2
p2
I1
sVd8zpn14
p3
I3
sVdpbgstt
p4
I1
sVdohzcr9
p5
I1
sVd4i7mah
p6
I1
sVdrxs54c
p7
I1
sVdh438tv
p8
I1
sVdfriz93
p9
I1
sVdd48b4z
p10
I1
sVdn6o8z8
p11
I1
sVddiudp0
p12
I1
sVdnybwor
p13
I1
sVdkyz7qb
p14
I1
sVdg3mozo
p15
I1
sVd82xtrq
p16
I1
sVdsi4imq
p17
I1
sVdtbvslm
p18
I1
sVdmrlroo
p19
I4
sVdg7hp6c
p20
I1
sVddygazx
p21
I1
sVd3y0ky8
p22
I1
sVczy8g49
p23
I1
sVdgqgvwz
p24
I1
sVdc3m4i1
p25
I1
sVdco8u70
p26
I1
sVdhjjom4
p27
I1
sVd6zlran
p28
I1
sVdg3n8bo
p29
I4
sVd35645u
p30
I1
sVdn8s1ou
p31
I1
sVdp215f3
p32
I1
sVd1qazn6
p33
I2
sVd9bsqrn
p34
I2
sVdtfukj8
p35
I1
sVdihq2iv
p36
I1
sVd83orbt
p37
I1
sVd2pmgyd
p38
I1
sVdk90lc7
p39
I1
sVd1lfkbo
p40
I1
sVd46by7z
p41
I1
sVdfgafdv
p42
I1
sVd9zy4kk
p43
I2
sVdox4igz
p44
I4
sVd5kypjv
p45
I2
sVdjl3wkh
p46
I1
sVd8zrnkg
p47
I2
sVd4i8zrz
p48
I1
sVdq88333
p49
I1
sVd696dzi
p50
I2
sVddwuv6o
p51
I1
sVczxswnx
p52
I1
sVd2ayq91
p53
I1
sVdshu2j2
p54
I1
sVddeo2x0
p55
I2
sVd8zo9wg
p56
I1
sVd1tvp3c
p57
I1
sVdh8ijqt
p58
I2
sVdt99t15
p59
I1
sVd1wdkka
p60
I1
sVdot4mv7
p61
I1
sVdais4be
p62
I1
s.