(dp0
Vczlnyhe
p1
I1
s.(dp0
Vczlnyhe
p1
I1
sVd9dorqk
p2
I1
s.(dp0
Vczlnyhe
p1
I1
sVdaq4ru7
p2
I1
s.(dp0
Vczlnyhe
p1
I1
sVdbbqrjh
p2
I1
s.(dp0
Vczlnyhe
p1
I1
sVdbp18ls
p2
I1
s.(dp0
Vczlnyhe
p1
I1
sVdgaemxk
p2
I1
s.(dp0
Vczlnyhe
p1
I1
sVdnp741b
p2
I1
s.(dp0
Vczlnyhe
p1
I1
sVdst5p85
p2
I1
s.(dp0
Vczlnyhe
p1
I1
sVdst5p85
p2
I1
s.(dp0
Vczlnyhe
p1
I1
sVdst5p85
p2
I1
s.(dp0
Vczlnyhe
p1
I1
sVdst5p85
p2
I1
s.(dp0
Vczlnyhe
p1
I1
sVdstxwmd
p2
I1
s.(dp0
Vczlnyhe
p1
I1
sVdstxwmd
p2
I1
s.(dp0
Vczlnyhe
p1
I1
sVdsugh7t
p2
I1
s.(dp0
Vczlnyhe
p1
I1
sVdsugh7t
p2
I1
s.