(dp0
Vdd3wdtu
p1
I1
sVczktypc
p2
I1
sVd3msz6n
p3
I1
sVdn6yi0y
p4
I1
sVd83r5m9
p5
I4
sVdeu4v02
p6
I1
sVd5o45cv
p7
I3
sVd2i9cws
p8
I1
sVd3j51ts
p9
I1
sVd030s95
p10
I1
sVddoezb5
p11
I1
sVdbir1c9
p12
I1
sVdjp8icq
p13
I1
sVd1fkss8
p14
I1
sVdr64xon
p15
I1
sVdjg066s
p16
I1
sVd0urpbv
p17
I2
sVd54daxw
p18
I1
sVd0p2roa
p19
I1
sVdcdl15y
p20
I1
sVd032ll5
p21
I1
sVdbu4u7y
p22
I1
sVd3fvi38
p23
I1
sVddl6ozw
p24
I1
sVd03odv3
p25
I1
sVd0ugq67
p26
I1
sVdhzte12
p27
I1
sVdekwscb
p28
I1
sVd6aigv5
p29
I1
sVczgict2
p30
I2
sVdj8ag0a
p31
I1
sVd4mj21k
p32
I1
sVcz2oxyj
p33
I1
sVd032u4z
p34
I1
sVdti2gm6
p35
I2
sVd37rrk9
p36
I1
sVd5vv0ah
p37
I1
sVd95rkoh
p38
I1
sVdfn34p2
p39
I2
sVczghdm8
p40
I2
sVd4ae3nw
p41
I2
sVd4pnyv3
p42
I1
sVcyv927n
p43
I2
sVd3a1gsq
p44
I2
sVdfg0lx3
p45
I1
sVdggv66u
p46
I2
sVd2xyjve
p47
I1
sVd0zsq8x
p48
I1
sVd5nquhv
p49
I2
sVdb52a9o
p50
I1
sVdh0ownr
p51
I1
sVdf4rgy2
p52
I1
sVd4ne3to
p53
I3
sVd1ho716
p54
I1
sVdhrhfjy
p55
I1
sVd92f7my
p56
I1
sVd5o022h
p57
I2
sVd1lhl7q
p58
I1
sVdot7l7o
p59
I1
sVd5nrugv
p60
I4
sVdti08qb
p61
I2
sVdh0dd6p
p62
I1
sVdekvq8l
p63
I1
sVd034ufr
p64
I1
sVdq3yis8
p65
I1
sVd083r0c
p66
I1
sVd5ntuzy
p67
I2
sVd5rb8uy
p68
I1
s.