(dp0
Vczaubn9
p1
I1
s.(dp0
Vd2up1sw
p1
I1
sVczaubn9
p2
I1
s.(dp0
Vd2z2oeg
p1
I1
sVczaubn9
p2
I1
s.(dp0
Vczaubn9
p1
I1
sVdcw8t33
p2
I1
s.(dp0
Vczaubn9
p1
I1
sVdcw8t33
p2
I1
s.(dp0
Vczaubn9
p1
I1
sVdpizusu
p2
I1
s.