(dp0
Vd6w5d6d
p1
I1
sVd6lgt1s
p2
I5
sVdbu1jt0
p3
I1
sVdou0ibx
p4
I1
sVdhnc9o9
p5
I1
sVd2apxbd
p6
I1
sVdc87efh
p7
I1
sVd8gqaka
p8
I1
sVd2apohb
p9
I3
sVd19j1zx
p10
I1
sVdsfi5sn
p11
I1
sVd3c1ovu
p12
I1
sVd090ekt
p13
I2
sVd2b20iv
p14
I2
sVdnhfluh
p15
I1
sVdfeyb68
p16
I1
sVdkzfbrb
p17
I1
sVddrpsfz
p18
I1
sVdogufqo
p19
I1
sVdcgwipg
p20
I1
sVd57di1c
p21
I1
sVd2aigr1
p22
I4
sVdtf7z41
p23
I1
sVd2ajwyw
p24
I1
sVd9fx3jc
p25
I1
sVdbqcfko
p26
I1
sVdhn0oao
p27
I1
sVdhn1k4c
p28
I1
sVdbqizk1
p29
I3
sVd2al9gk
p30
I1
sVd2a9loq
p31
I2
sVd6m2h0g
p32
I4
sVd19f8py
p33
I1
sVd08yd0o
p34
I2
sVdbqgbkr
p35
I1
sVdbj2pui
p36
I1
sVdgrarv1
p37
I3
sVd2awqve
p38
I1
s.