(dp0
Vd0ia4mi
p1
I1
sVd6042tt
p2
I1
sVdnzkdxw
p3
I1
sVdbuz8ig
p4
I1
sVczs05nr
p5
I1
sVda01vo9
p6
I1
sVdpimxj2
p7
I1
sVd5vxw84
p8
I2
sVd1jgqtq
p9
I1
sVd3k9tb6
p10
I1
sVd4cyv0n
p11
I1
sVd99rvdv
p12
I1
sVd2e293s
p13
I1
sVd5vufov
p14
I1
sVd4flsjc
p15
I1
sVd15ovrx
p16
I1
sVd1bo0bd
p17
I1
sVcz3hbv9
p18
I1
sVdk1de19
p19
I1
sVd0hii9c
p20
I1
sVdfe0jmv
p21
I1
sVd0db6dr
p22
I1
sVdoeb6cp
p23
I1
sVczyy24e
p24
I1
sVd6zsh0f
p25
I1
sVdontwgr
p26
I1
sVdej4xqs
p27
I1
sVdgtsnb4
p28
I1
sVd7116nu
p29
I1
sVdg7arva
p30
I1
sVd6z9n2m
p31
I1
sVd16vf4c
p32
I1
sVdfvu9fb
p33
I1
sVd3af7wy
p34
I1
sVddwmmav
p35
I1
sVdijwool
p36
I1
sVd23amer
p37
I1
sVdd5grai
p38
I1
sVdq8hv37
p39
I1
sVd2fbdna
p40
I1
sVdduf1y3
p41
I1
sVd8iejtw
p42
I1
sVddi3t5d
p43
I1
s.