(dp0
Vdhpexqt
p1
I1
sVdo9zvxc
p2
I1
sVdbn00q9
p3
I1
sVdfxqtxe
p4
I2
sVd7e7zca
p5
I1
sVcz7qre0
p6
I1
sVdn803fp
p7
I1
sVd92r4nw
p8
I3
sVd6877dl
p9
I1
sVcyxh9c1
p10
I2
sVdfxijub
p11
I1
sVdkq3nzi
p12
I1
sVd16pnjz
p13
I4
sVdj36lqn
p14
I3
sVd7mwib4
p15
I3
sVd3uxvjg
p16
I1
sVczc0xvk
p17
I2
sVd8e47go
p18
I1
sVd7mt1vo
p19
I1
sVd8khzyg
p20
I1
sVdbfr8b4
p21
I1
sVdre0bfd
p22
I10
sVder0e88
p23
I2
sVd6gx3tl
p24
I1
sVd7n3eui
p25
I5
sVcys928v
p26
I4
sVdbyjyks
p27
I2
sVdfw9l2b
p28
I1
sVd8cbsy4
p29
I1
sVd530gty
p30
I1
sVd976fex
p31
I4
sVdk5g9t3
p32
I1
sVdcz4w0t
p33
I1
sVdeza3jr
p34
I2
sVcz0mxad
p35
I1
sVd580i43
p36
I1
sVddnqpyq
p37
I2
sVd378eqj
p38
I2
sVczfqsh4
p39
I2
sVds7npa2
p40
I1
sVd2bnjf3
p41
I1
sVd90rpdq
p42
I1
sVd1zm5kz
p43
I1
sVdcg4nwu
p44
I1
sVds82q1c
p45
I1
sVd1zztdw
p46
I2
sVd5lf76k
p47
I2
sVd6v8vbj
p48
I1
sVdnlfwo2
p49
I1
sVd1fjb9q
p50
I2
sVd7774zt
p51
I1
sVd4rxm59
p52
I1
sVd86vo9l
p53
I4
sVdg6069a
p54
I1
sVdhefn0f
p55
I9
sVdalej2n
p56
I1
sVd0tz6rg
p57
I2
sVd6gkdxs
p58
I1
sVdbt2756
p59
I1
sVdkwcn04
p60
I1
sVdjgirdr
p61
I1
sVd365ice
p62
I2
sVd2hddma
p63
I1
sVd7sxife
p64
I1
sVdg6gpod
p65
I1
sVd7mt941
p66
I2
sVdc4e1n4
p67
I1
sVd0w3nz8
p68
I1
sVd9n4plp
p69
I1
sVdbckd1v
p70
I1
sVd5bf4hs
p71
I2
sVd4u1uu8
p72
I3
sVd1zokh4
p73
I1
sVdmu7mf1
p74
I2
sVd2i5in6
p75
I1
sVd4njiwi
p76
I1
sVdmgn6it
p77
I8
sVd5xtj4y
p78
I1
sVdckzi1h
p79
I1
sVdapjxrm
p80
I5
sVdg6w8oc
p81
I2
sVdpg8mfw
p82
I1
sVdq3iej5
p83
I2
sVd7tp1a0
p84
I1
sVd6g33hc
p85
I1
sVd8e693m
p86
I16
sVdre222m
p87
I2
sVdjgcjin
p88
I1
sVd7mw69z
p89
I4
sVd7i6gmz
p90
I1
sVcyuv6yd
p91
I2
sVczgq2fn
p92
I2
sVd7oi2du
p93
I1
sVczpf8up
p94
I3
sVd6gsjzo
p95
I3
sVdbqwq6q
p96
I3
sVd3kxa1b
p97
I5
sVd34hd73
p98
I2
sVdh5uo7g
p99
I2
sVdh1lchc
p100
I1
sVcz0j9dk
p101
I1
sVdbzgxfs
p102
I2
sVdf0l2qx
p103
I5
sVd1fa794
p104
I1
sVdgftxfd
p105
I1
sVd2hk336
p106
I2
sVczsjmjc
p107
I1
sVdfwqp2s
p108
I3
sVdn5f2pt
p109
I5
sVdg1qhpq
p110
I1
sVd0oy0xa
p111
I1
sVdd7tzox
p112
I3
sVcz2qywo
p113
I1
sVd1fj8by
p114
I1
sVd16r3kv
p115
I2
sVdri4b91
p116
I2
sVd6xbm2n
p117
I1
sVdgshptb
p118
I1
sVd2x384d
p119
I1
sVds7o4ue
p120
I2
sVczztmg4
p121
I5
sVd15drxg
p122
I2
sVdny3s4b
p123
I1
sVdkaze4u
p124
I1
sVd7pu6n5
p125
I1
sVd93g6yz
p126
I1
sVd08lqvr
p127
I7
sVdjw2tqy
p128
I1
sVd8cbfao
p129
I1
sVd378ixg
p130
I5
sVdnklkls
p131
I1
sVd3vtofn
p132
I1
sVcz0i20p
p133
I1
sVdi30jho
p134
I1
sVdhs804w
p135
I1
sVd2lce18
p136
I3
sVdda4jw0
p137
I11
sVczueeiz
p138
I1
sVdbwr9j0
p139
I1
sVd7esb1j
p140
I1
sVdnp0ycv
p141
I1
sVdgj5qav
p142
I1
sVdhk8zd6
p143
I5
sVdb4qx7y
p144
I1
sVdqza5tc
p145
I2
sVd7ai9hs
p146
I1
sVdk4w435
p147
I2
sVdom62qq
p148
I1
sVdg6v7hc
p149
I2
sVd2bka6g
p150
I1
sVd3dyopx
p151
I1
sVdgiuo7y
p152
I1
sVd4aj78s
p153
I1
sVd60x1or
p154
I6
sVdtg8dsv
p155
I1
sVdhryk7w
p156
I1
sVdmu9y32
p157
I1
sVd2gb2h0
p158
I1
sVdjbg3z2
p159
I1
sVd9mbl67
p160
I1
sVd69frv6
p161
I1
sVd6rzgyu
p162
I1
sVcyurvsa
p163
I1
sVczyhn7c
p164
I1
sVd6ge7x0
p165
I7
sVd3takku
p166
I1
sVd6wafp8
p167
I2
sVd4v4fja
p168
I1
sVdjkl8n1
p169
I2
sVdaneayq
p170
I5
sVd35hgm0
p171
I2
sVcz30zxd
p172
I1
sVd8453ns
p173
I1
sVdj901ay
p174
I1
sVcysb0mn
p175
I2
sVd99dpki
p176
I2
sVd2a1jej
p177
I1
sVdsmwzsw
p178
I4
sVddrieq6
p179
I1
sVdc04tp5
p180
I3
sVd2arx0t
p181
I1
sVd8e430j
p182
I4
sVd058lvc
p183
I1
sVdgdgf5f
p184
I1
sVczrcx0w
p185
I1
sVdj46e3l
p186
I2
sVd8a4sar
p187
I1
sVd1rrst6
p188
I1
sVdf0keab
p189
I3
sVd9mbo1a
p190
I1
sVd081cm3
p191
I2
sVdebr0ep
p192
I1
sVd96xqaw
p193
I1
sVdfq8jho
p194
I5
sVd5p00sw
p195
I1
sVddrijms
p196
I4
sVcymc7yw
p197
I1
sVdg6vj8x
p198
I2
sVd4tzhzb
p199
I1
sVdd39l9q
p200
I2
sVd98d10j
p201
I1
sVczyqudm
p202
I1
sVd5nbpgr
p203
I1
sVd7djem2
p204
I1
sVdqw54u3
p205
I1
sVdii2984
p206
I5
sVdkwcryf
p207
I1
sVd7nnoh5
p208
I5
sVczkb5l1
p209
I1
sVddi280p
p210
I1
sVd09tzgi
p211
I1
sVd3o2fd7
p212
I1
sVdhjuohx
p213
I1
sVczscqap
p214
I1
sVdn57bgn
p215
I2
sVdalbh8n
p216
I1
sVd6fqh60
p217
I1
sVd6g8wwd
p218
I8
sVd6fzt3t
p219
I7
sVcz7xy85
p220
I1
sVd7oipgd
p221
I3
sVdqp4luq
p222
I1
sVd5kypjv
p223
I1
sVdhnav2s
p224
I1
sVdibr57q
p225
I1
sVcyux5nd
p226
I3
sVd7qbcv7
p227
I1
sVdk7zo6l
p228
I2
sVd2awqve
p229
I1
sVdbnifdx
p230
I1
sVd96v6hu
p231
I7
sVds176og
p232
I2
sVdic72it
p233
I1
sVd34hfww
p234
I1
sVd8v1dvs
p235
I3
sVdiprepi
p236
I1
sVdrd8sjx
p237
I2
sVdb541kz
p238
I1
sVd3tvfq2
p239
I5
sVcyv0aes
p240
I2
sVdf0h36y
p241
I1
sVddv0v9r
p242
I1
sVd6v9s26
p243
I1
sVdj4awcl
p244
I1
sVd6tybsa
p245
I1
sVd6g38er
p246
I1
sVd92t88i
p247
I1
sVcys96qs
p248
I11
sVd90m08u
p249
I1
sVdgfv3k0
p250
I8
sVd76jd7x
p251
I1
sVd37us0y
p252
I2
sVd978t5l
p253
I2
sVd84arf4
p254
I1
sVderbn88
p255
I1
sVd4ohq5m
p256
I2
sVdnlfjdj
p257
I1
sVd0mrdg0
p258
I1
sVdb7yv8o
p259
I1
sVdj1sxrk
p260
I1
sVczaoqac
p261
I1
sVd8l86yr
p262
I1
sVdj4gkbl
p263
I3
sVdgxxhbi
p264
I1
sVd28l1ti
p265
I1
sVdh2q4vk
p266
I1
sVcz7x4bs
p267
I1
sVddkeljx
p268
I2
sVdnld53n
p269
I2
sVd28oaff
p270
I1
sVdmstybl
p271
I1
sVcyv7z1l
p272
I2
sVdihwjz2
p273
I2
sVdh1khyt
p274
I1
sVczrbb86
p275
I1
sVd004sgj
p276
I1
sVd5lwnpy
p277
I2
sVd1fjhrj
p278
I1
sVd663ery
p279
I1
sVd91besp
p280
I1
sVdpnqdy3
p281
I1
sVd9aznge
p282
I1
sVdhygd69
p283
I5
sVdifx4hb
p284
I1
sVd8vr73k
p285
I1
sVczrkvt0
p286
I1
sVdscf59n
p287
I2
sVdhkeulp
p288
I1
sVd5oto4c
p289
I1
sVd23azit
p290
I3
sVdowqrbb
p291
I2
sVd1zrfwf
p292
I2
sVdqddg6l
p293
I1
sVdj46j9e
p294
I1
sVdbzdyq1
p295
I1
sVd9y85ob
p296
I1
sVcys1yx1
p297
I10
sVd4odr36
p298
I1
sVd08lm86
p299
I1
sVdcb7ery
p300
I1
sVd99fb2v
p301
I1
sVdk6kgck
p302
I1
sVdbfah03
p303
I1
sVdgibk7n
p304
I3
sVd668s6x
p305
I1
sVd8qn0dk
p306
I1
sVd4rpt3i
p307
I3
sVdpo3tsd
p308
I1
sVdgtm85x
p309
I1
sVd5p526p
p310
I1
sVd0c73rg
p311
I1
sVcznusxm
p312
I2
sVdsmoyou
p313
I1
sVdbnffp0
p314
I1
sVdhbs8p9
p315
I3
sVd8b8qts
p316
I1
sVdg6w5ma
p317
I7
sVdcbhffo
p318
I5
sVdkpwkee
p319
I7
sVczuyzop
p320
I1
sVdj7l2fg
p321
I2
sVdbtjy25
p322
I1
sVdjk0k59
p323
I3
sVd0n9x0b
p324
I2
sVd8r4osq
p325
I1
sVdkq3jf7
p326
I1
sVdaymoc5
p327
I1
sVd8a1mu9
p328
I2
sVdcruqac
p329
I1
sVdqmo6u7
p330
I5
sVdbrbzv8
p331
I4
sVd6us71r
p332
I1
sVd7n3kn9
p333
I20
sVdkoif3f
p334
I1
sVd70e9lr
p335
I2
sVdb9j5ap
p336
I2
sVdi4xuyg
p337
I1
sVd8opb35
p338
I1
sVddrw8j2
p339
I1
sVdh0x24e
p340
I9
sVcyzih7z
p341
I4
sVdfq7kks
p342
I1
sVdcxh7az
p343
I2
sVd8a1e08
p344
I1
sVd5899z6
p345
I2
sVd48wxy6
p346
I1
sVczxh81f
p347
I1
sVdj4bhd2
p348
I1
sVdk6ohv7
p349
I4
sVdddyz63
p350
I1
sVdkq3m2k
p351
I1
sVdkrz0xu
p352
I3
sVde301wg
p353
I7
sVd8v0zzp
p354
I2
sVdeexfkv
p355
I1
sVdi2ln07
p356
I1
sVdfwku6w
p357
I2
sVdccpdb1
p358
I2
sVdc9t1yr
p359
I1
sVd81hl0h
p360
I1
s.