(dp0
Vcyvaktl
p1
I1
s.(dp0
Vcywujyf
p1
I1
sVcyvaktl
p2
I1
s.(dp0
Vczah1sl
p1
I1
sVcyvaktl
p2
I1
s.(dp0
Vczg5p6g
p1
I1
sVcyvaktl
p2
I1
s.(dp0
Vcyvaktl
p1
I1
sVczi9yru
p2
I1
s.(dp0
Vczia4es
p1
I1
sVcyvaktl
p2
I1
s.(dp0
Vczia4es
p1
I1
sVcyvaktl
p2
I1
s.(dp0
Vczia4es
p1
I1
sVcyvaktl
p2
I1
s.(dp0
Vcyvaktl
p1
I1
sVczsg8ob
p2
I1
s.(dp0
Vcyvaktl
p1
I1
sVd0urnix
p2
I1
s.(dp0
Vd1jw1jd
p1
I1
sVcyvaktl
p2
I1
s.(dp0
Vd1l7xwg
p1
I1
sVcyvaktl
p2
I1
s.(dp0
Vcyvaktl
p1
I1
sVd3i8t5w
p2
I1
s.(dp0
Vcyvaktl
p1
I1
sVd3i8t5w
p2
I1
s.(dp0
Vd4bp0ti
p1
I1
sVcyvaktl
p2
I1
s.(dp0
Vd4x8lgd
p1
I1
sVcyvaktl
p2
I1
s.(dp0
Vd65jaur
p1
I1
sVcyvaktl
p2
I1
s.(dp0
Vd6cil16
p1
I1
sVcyvaktl
p2
I1
s.(dp0
Vd7lm8cm
p1
I1
sVcyvaktl
p2
I1
s.(dp0
Vcyvaktl
p1
I1
sVd8a8qj8
p2
I1
s.(dp0
Vcyvaktl
p1
I1
sVd8fhdys
p2
I1
s.(dp0
Vd8mjc98
p1
I1
sVcyvaktl
p2
I1
s.(dp0
Vd9qelzo
p1
I1
sVcyvaktl
p2
I1
s.(dp0
Vd9zfv0r
p1
I1
sVcyvaktl
p2
I1
s.(dp0
Vcyvaktl
p1
I1
sVda4zu1f
p2
I1
s.(dp0
Vdaaq9t8
p1
I1
sVcyvaktl
p2
I1
s.(dp0
Vdbbo2za
p1
I1
sVcyvaktl
p2
I1
s.(dp0
Vdd41wur
p1
I1
sVcyvaktl
p2
I1
s.(dp0
Vdd6wfku
p1
I1
sVcyvaktl
p2
I1
s.(dp0
Vcyvaktl
p1
I1
sVdd9k79e
p2
I1
s.(dp0
Vddhsq7b
p1
I1
sVcyvaktl
p2
I1
s.(dp0
Vddllt4l
p1
I1
sVcyvaktl
p2
I1
s.(dp0
Vddp4t1v
p1
I1
sVcyvaktl
p2
I1
s.(dp0
Vdemlum7
p1
I1
sVcyvaktl
p2
I1
s.(dp0
Vdfb5y0a
p1
I1
sVcyvaktl
p2
I1
s.(dp0
Vdfij468
p1
I1
sVcyvaktl
p2
I1
s.(dp0
Vcyvaktl
p1
I1
sVdfk53lq
p2
I1
s.(dp0
Vcyvaktl
p1
I1
sVdg5udr5
p2
I1
s.(dp0
Vdg8bik4
p1
I1
sVcyvaktl
p2
I1
s.(dp0
Vcyvaktl
p1
I1
sVdi0hyrz
p2
I1
s.(dp0
Vcyvaktl
p1
I1
sVdi5n9sz
p2
I1
s.(dp0
Vcyvaktl
p1
I1
sVdiug5ri
p2
I1
s.(dp0
Vdivuo96
p1
I1
sVcyvaktl
p2
I1
s.(dp0
Vdkg78lr
p1
I1
sVcyvaktl
p2
I1
s.(dp0
Vcyvaktl
p1
I1
sVdphpgud
p2
I1
s.(dp0
Vcyvaktl
p1
I1
sVdphrdra
p2
I1
s.(dp0
Vcyvaktl
p1
I1
sVdqo5r1c
p2
I1
s.(dp0
Vcyvaktl
p1
I1
sVdrz07pu
p2
I1
s.(dp0
Vdsotn72
p1
I1
sVcyvaktl
p2
I1
s.