(dp0
Vdtgig30
p1
I1
sVd2cmegg
p2
I1
sVd0pewkb
p3
I1
sVd98co3r
p4
I1
sVd09n42p
p5
I3
sVdbpnhvf
p6
I1
sVdp8oqjd
p7
I1
sVdb57vt1
p8
I1
sVd9t8nxq
p9
I1
sVdb5vxma
p10
I1
sVdb5gh4m
p11
I1
sVd9i7c2k
p12
I1
sVdi0xdd7
p13
I2
s.