(dp0
Vcyi3ks0
p1
I1
s.(dp0
Vcyi3ks0
p1
I1
sVcykneny
p2
I1
s.(dp0
Vcyi3ks0
p1
I1
sVcytslp2
p2
I1
s.(dp0
Vcyi3ks0
p1
I1
sVcz412b5
p2
I1
s.(dp0
Vcyi3ks0
p1
I1
sVcz66o1y
p2
I1
s.(dp0
Vcyi3ks0
p1
I1
sVczdekvx
p2
I1
s.(dp0
Vcyi3ks0
p1
I1
sVczflx0j
p2
I1
s.(dp0
Vcyi3ks0
p1
I1
sVczgle9z
p2
I1
s.(dp0
Vcyi3ks0
p1
I1
sVczi76se
p2
I1
s.(dp0
Vcyi3ks0
p1
I1
sVczmgmf7
p2
I1
s.(dp0
Vcyi3ks0
p1
I1
sVd07hxsj
p2
I1
s.(dp0
Vcyi3ks0
p1
I1
sVd0hek48
p2
I1
s.(dp0
Vcyi3ks0
p1
I1
sVd0i8wox
p2
I1
s.(dp0
Vcyi3ks0
p1
I1
sVd0imrvk
p2
I1
s.(dp0
Vcyi3ks0
p1
I1
sVd0j604a
p2
I1
s.(dp0
Vcyi3ks0
p1
I1
sVd0q4koc
p2
I1
s.(dp0
Vcyi3ks0
p1
I1
sVd0wmbiq
p2
I1
s.(dp0
Vcyi3ks0
p1
I1
sVd11zeem
p2
I1
s.(dp0
Vcyi3ks0
p1
I1
sVd12v8bd
p2
I1
s.(dp0
Vd172171
p1
I1
sVcyi3ks0
p2
I1
s.(dp0
Vcyi3ks0
p1
I1
sVd1btvqh
p2
I1
s.(dp0
Vcyi3ks0
p1
I1
sVd1cyrcd
p2
I1
s.(dp0
Vcyi3ks0
p1
I1
sVd1d31u0
p2
I1
s.(dp0
Vcyi3ks0
p1
I1
sVd1gu10g
p2
I1
s.(dp0
Vcyi3ks0
p1
I1
sVd1kogep
p2
I1
s.(dp0
Vcyi3ks0
p1
I1
sVd1rmw6e
p2
I1
s.(dp0
Vcyi3ks0
p1
I1
sVd23lxob
p2
I1
s.(dp0
Vcyi3ks0
p1
I1
sVd2ac7kc
p2
I1
s.(dp0
Vcyi3ks0
p1
I1
sVd2al84s
p2
I1
s.(dp0
Vcyi3ks0
p1
I1
sVd2chsex
p2
I1
s.(dp0
Vd2h7y23
p1
I1
sVcyi3ks0
p2
I1
s.(dp0
Vd2m1vr3
p1
I1
sVcyi3ks0
p2
I1
s.(dp0
Vcyi3ks0
p1
I1
sVd2rrb8g
p2
I1
s.(dp0
Vd2uzxrx
p1
I1
sVcyi3ks0
p2
I1
s.(dp0
Vcyi3ks0
p1
I1
sVd2y6xlw
p2
I1
s.(dp0
Vcyi3ks0
p1
I1
sVd2z6ybs
p2
I1
s.(dp0
Vd387slx
p1
I1
sVcyi3ks0
p2
I1
s.(dp0
Vcyi3ks0
p1
I1
sVd38eg1o
p2
I1
s.(dp0
Vcyi3ks0
p1
I1
sVd3970mq
p2
I1
s.(dp0
Vd399cah
p1
I1
sVcyi3ks0
p2
I1
s.(dp0
Vcyi3ks0
p1
I1
sVd399u2x
p2
I1
s.(dp0
Vcyi3ks0
p1
I1
sVd3dqa37
p2
I1
s.(dp0
Vcyi3ks0
p1
I1
sVd3oadh2
p2
I1
s.(dp0
Vd3qvofx
p1
I1
sVcyi3ks0
p2
I1
s.(dp0
Vcyi3ks0
p1
I1
sVd44jys3
p2
I1
s.(dp0
Vcyi3ks0
p1
I1
sVd4dnaw6
p2
I1
s.(dp0
Vcyi3ks0
p1
I1
sVd4jxlit
p2
I1
s.(dp0
Vcyi3ks0
p1
I1
sVd5t4fd2
p2
I1
s.(dp0
Vcyi3ks0
p1
I1
sVd5xcuty
p2
I1
s.(dp0
Vcyi3ks0
p1
I1
sVd62latc
p2
I1
s.(dp0
Vcyi3ks0
p1
I1
sVd62latc
p2
I1
s.(dp0
Vd64wdz2
p1
I1
sVcyi3ks0
p2
I1
s.(dp0
Vcyi3ks0
p1
I1
sVd66q4xi
p2
I1
s.(dp0
Vd6d5ho3
p1
I1
sVcyi3ks0
p2
I1
s.(dp0
Vcyi3ks0
p1
I1
sVd6hd425
p2
I1
s.(dp0
Vcyi3ks0
p1
I1
sVd6w966c
p2
I1
s.(dp0
Vcyi3ks0
p1
I1
sVd84xazy
p2
I1
s.(dp0
Vd88jo2p
p1
I1
sVcyi3ks0
p2
I1
s.(dp0
Vd8f4g19
p1
I1
sVcyi3ks0
p2
I1
s.(dp0
Vcyi3ks0
p1
I1
sVd8qg4ej
p2
I1
s.(dp0
Vcyi3ks0
p1
I1
sVd8zctoh
p2
I1
s.(dp0
Vcyi3ks0
p1
I1
sVd9730xk
p2
I1
s.(dp0
Vcyi3ks0
p1
I1
sVd9amdka
p2
I1
s.(dp0
Vcyi3ks0
p1
I1
sVd9l5yd3
p2
I1
s.(dp0
Vcyi3ks0
p1
I1
sVd9ppqgn
p2
I1
s.(dp0
Vcyi3ks0
p1
I1
sVda1k1cm
p2
I1
s.(dp0
Vcyi3ks0
p1
I1
sVda6vnc9
p2
I1
s.(dp0
Vcyi3ks0
p1
I1
sVdang1jz
p2
I1
s.(dp0
Vdawiec4
p1
I1
sVcyi3ks0
p2
I1
s.(dp0
Vdbbync3
p1
I1
sVcyi3ks0
p2
I1
s.(dp0
Vcyi3ks0
p1
I1
sVdbe15bp
p2
I1
s.(dp0
Vcyi3ks0
p1
I1
sVdbe786d
p2
I1
s.(dp0
Vcyi3ks0
p1
I1
sVdbe786d
p2
I1
s.(dp0
Vdbels8w
p1
I1
sVcyi3ks0
p2
I1
s.(dp0
Vcyi3ks0
p1
I1
sVdbemx06
p2
I1
s.(dp0
Vcyi3ks0
p1
I1
sVdben4hn
p2
I1
s.(dp0
Vcyi3ks0
p1
I1
sVdbnouca
p2
I1
s.(dp0
Vcyi3ks0
p1
I1
sVdc9ibd2
p2
I1
s.(dp0
Vcyi3ks0
p1
I1
sVdcafxea
p2
I1
s.(dp0
Vcyi3ks0
p1
I1
sVdcauumk
p2
I1
s.(dp0
Vcyi3ks0
p1
I1
sVdcbbbie
p2
I1
s.(dp0
Vdcct7rx
p1
I1
sVcyi3ks0
p2
I1
s.(dp0
Vcyi3ks0
p1
I1
sVdcie24s
p2
I1
s.(dp0
Vcyi3ks0
p1
I1
sVdcj2aqv
p2
I1
s.(dp0
Vdcwxh92
p1
I1
sVcyi3ks0
p2
I1
s.(dp0
Vcyi3ks0
p1
I1
sVdcxcwa2
p2
I1
s.(dp0
Vcyi3ks0
p1
I1
sVdd0x3ps
p2
I1
s.(dp0
Vcyi3ks0
p1
I1
sVdd2z9c5
p2
I1
s.(dp0
Vcyi3ks0
p1
I1
sVdd5xw9m
p2
I1
s.(dp0
Vcyi3ks0
p1
I1
sVdd8lebz
p2
I1
s.(dp0
Vcyi3ks0
p1
I1
sVdda7j90
p2
I1
s.(dp0
Vcyi3ks0
p1
I1
sVddgs8e0
p2
I1
s.(dp0
Vcyi3ks0
p1
I1
sVddkghcq
p2
I1
s.(dp0
Vcyi3ks0
p1
I1
sVddkghcq
p2
I1
s.(dp0
Vcyi3ks0
p1
I1
sVddlxz4p
p2
I1
s.(dp0
Vddq18dm
p1
I1
sVcyi3ks0
p2
I1
s.(dp0
Vcyi3ks0
p1
I1
sVde1hdcj
p2
I1
s.(dp0
Vcyi3ks0
p1
I1
sVdeevemo
p2
I1
s.(dp0
Vdeksrus
p1
I1
sVcyi3ks0
p2
I1
s.(dp0
Vcyi3ks0
p1
I1
sVdesak32
p2
I1
s.(dp0
Vcyi3ks0
p1
I1
sVdf1dbbg
p2
I1
s.(dp0
Vcyi3ks0
p1
I1
sVdf8em1r
p2
I1
s.(dp0
Vcyi3ks0
p1
I1
sVdfc66t1
p2
I1
s.(dp0
Vcyi3ks0
p1
I1
sVdfe5vj7
p2
I1
s.(dp0
Vcyi3ks0
p1
I1
sVdfot6hz
p2
I1
s.(dp0
Vcyi3ks0
p1
I1
sVdftowg2
p2
I1
s.(dp0
Vcyi3ks0
p1
I1
sVdftowg2
p2
I1
s.(dp0
Vdftrtfm
p1
I1
sVcyi3ks0
p2
I1
s.(dp0
Vcy(dp0
Vcyi3ks0
p1
I1
sVds4yqc6
p2
I1
s.