(dp0
Vcymyobb
p1
I1
s.(dp0
Vcymyobb
p1
I1
sVczf53x1
p2
I1
s.(dp0
Vcymyobb
p1
I1
sVczg18lu
p2
I1
s.(dp0
Vcymyobb
p1
I1
sVd02mha6
p2
I1
s.(dp0
Vcymyobb
p1
I1
sVd0rwva5
p2
I1
s.(dp0
Vd1zto70
p1
I1
sVcymyobb
p2
I1
s.(dp0
Vcymyobb
p1
I1
sVd5dud00
p2
I1
s.(dp0
Vcymyobb
p1
I1
sVd8h4mem
p2
I1
s.(dp0
Vcymyobb
p1
I1
sVdabkmuy
p2
I1
s.(dp0
Vcymyobb
p1
I1
sVdbm9tst
p2
I1
s.(dp0
Vdbrknmg
p1
I1
sVcymyobb
p2
I1
s.(dp0
Vcymyobb
p1
I1
sVddyjdwr
p2
I1
s.(dp0
Vcymyobb
p1
I1
sVdefeuor
p2
I1
s.(dp0
Vcymyobb
p1
I1
sVdisnx2z
p2
I1
s.(dp0
Vdp8vx3u
p1
I1
sVcymyobb
p2
I1
s.(dp0
Vdq0b63i
p1
I1
sVcymyobb
p2
I1
s.