(dp0
Vd585jro
p1
I1
sVdju520q
p2
I1
sVdamo2qw
p3
I1
sVdbn8h8m
p4
I1
sVdt2ut5a
p5
I1
sVdiefnje
p6
I1
sVczjprhr
p7
I1
sVdcovlv0
p8
I1
sVdt7sw66
p9
I1
sVd65i2ct
p10
I1
sVdda2umz
p11
I1
sVdn168n4
p12
I2
sVdknbusy
p13
I1
sVde7m01h
p14
I1
s.