(dp0
Vdb6zej2
p1
I2
sVd0h55p7
p2
I1
sVdh6753a
p3
I1
sVdha9msl
p4
I1
sVczcdgmb
p5
I1
sVdbnatok
p6
I2
sVdg8awaf
p7
I1
sVd57yjj0
p8
I1
sVd7ap0r2
p9
I1
sVdbjzbk9
p10
I1
sVdgi4vgz
p11
I1
sVdtbjbb9
p12
I1
sVdck7qao
p13
I1
sVdoihrsw
p14
I1
sVdb151id
p15
I1
sVd3fsgo4
p16
I1
sVdd8cxry
p17
I1
sVd2xm8td
p18
I1
sVd5go8w3
p19
I1
sVdfiu83g
p20
I1
sVdi336h9
p21
I1
sVdfyzmr5
p22
I1
sVdc93fq1
p23
I1
sVdi4y549
p24
I1
sVd56e9jz
p25
I1
sVd0nz3zh
p26
I1
sVdeo91nw
p27
I1
sVd22t40j
p28
I1
sVdkm466m
p29
I1
sVd2y6eh6
p30
I1
sVdcuhvvi
p31
I1
sVczqu8kv
p32
I1
sVd5rai2u
p33
I1
sVd0c3ghj
p34
I1
sVdaal1dq
p35
I1
sVds64upr
p36
I1
sVd165dun
p37
I1
sVdkk8gar
p38
I1
sVdb6vop8
p39
I1
sVd35a7l0
p40
I1
sVcz4hqh3
p41
I1
sVdgi5c99
p42
I1
sVdaqjctk
p43
I1
sVdie10tj
p44
I1
sVd2bf1w0
p45
I1
sVczit6bd
p46
I1
sVdhfqqi8
p47
I1
sVde0okbs
p48
I1
sVdf92gpl
p49
I1
sVd2zgw3h
p50
I1
sVd65rbar
p51
I1
sVcyw23eu
p52
I1
sVdmrwkxa
p53
I1
sVdgq2ns1
p54
I1
sVd1gfu8n
p55
I1
sVdg2x9gy
p56
I1
sVd3vg4gx
p57
I1
sVd17gfiv
p58
I1
sVdqgyvec
p59
I1
sVdclobpd
p60
I1
sVdac2l1y
p61
I1
sVdbjrlfc
p62
I1
sVd60wra7
p63
I1
sVd2zh0d8
p64
I1
sVcz1m3q5
p65
I1
sVdelph59
p66
I1
sVd1gkb36
p67
I1
sVdt5ef7b
p68
I1
sVdgh44ow
p69
I1
sVdn95nt1
p70
I1
sVdnbifeh
p71
I1
sVddoxh0p
p72
I1
sVdhhbk56
p73
I1
sVdeu24em
p74
I1
sVdarm8n4
p75
I1
sVdeppzbq
p76
I1
s.