(dp0
Vcym7oas
p1
I1
s.(dp0
Vcym7oas
p1
I1
sVcyridhq
p2
I1
s.(dp0
Vcym7oas
p1
I1
sVcyridhq
p2
I1
s.(dp0
Vcym7oas
p1
I1
sVcysw82k
p2
I1
s.(dp0
Vcym7oas
p1
I1
sVd47lapp
p2
I1
s.(dp0
Vcym7oas
p1
I1
sVdcf3pky
p2
I1
s.(dp0
Vcym7oas
p1
I1
sVdg48x61
p2
I1
s.