(dp0
Vdnebv70
p1
I1
sVdejbvbk
p2
I1
sVd692qwc
p3
I1
sVdpg9cfk
p4
I2
sVdhkkp1c
p5
I1
sVd4l6zu7
p6
I2
sVdc8sp6k
p7
I1
sVdb14k22
p8
I1
sVd1f264t
p9
I1
sVdghsjgg
p10
I1
sVd6m8e6o
p11
I1
sVczy8g49
p12
I2
sVdof7kso
p13
I1
sVdr0f24t
p14
I1
s.