(dp0
Vcynswun
p1
I1
s.(dp0
Vcynswun
p1
I1
sVcyvt5tr
p2
I1
s.(dp0
Vcynswun
p1
I1
sVcyvt5tr
p2
I1
s.(dp0
Vcynswun
p1
I1
sVcz7dq4d
p2
I1
s.(dp0
Vczq735s
p1
I1
sVcynswun
p2
I1
s.(dp0
Vcynswun
p1
I1
sVczqvxl7
p2
I1
s.(dp0
Vcynswun
p1
I1
sVczxk5b4
p2
I1
s.(dp0
Vcynswun
p1
I1
sVd0qv5tf
p2
I1
s.(dp0
Vcynswun
p1
I1
sVd1775o8
p2
I1
s.(dp0
Vcynswun
p1
I1
sVd1tgait
p2
I1
s.(dp0
Vd256t9d
p1
I1
sVcynswun
p2
I1
s.(dp0
Vd25ussi
p1
I1
sVcynswun
p2
I1
s.(dp0
Vcynswun
p1
I1
sVd30s6av
p2
I1
s.(dp0
Vcynswun
p1
I1
sVd54bzoe
p2
I1
s.(dp0
Vcynswun
p1
I1
sVd587200
p2
I1
s.(dp0
Vd6uzsda
p1
I1
sVcynswun
p2
I1
s.(dp0
Vcynswun
p1
I1
sVd7kbi9x
p2
I1
s.(dp0
Vcynswun
p1
I1
sVd8gcjgh
p2
I1
s.(dp0
Vcynswun
p1
I1
sVd8wvhd1
p2
I1
s.(dp0
Vda2oin8
p1
I1
sVcynswun
p2
I1
s.(dp0
Vda8g621
p1
I1
sVcynswun
p2
I1
s.(dp0
Vcynswun
p1
I1
sVdacv5ym
p2
I1
s.(dp0
Vcynswun
p1
I1
sVdae1v8n
p2
I1
s.(dp0
Vcynswun
p1
I1
sVdaz7vtz
p2
I1
s.(dp0
Vcynswun
p1
I1
sVdbg5ti6
p2
I1
s.(dp0
Vcynswun
p1
I1
sVdc7fi1g
p2
I1
s.(dp0
Vcynswun
p1
I1
sVdc8yt9h
p2
I1
s.(dp0
Vcynswun
p1
I1
sVdd6g4zi
p2
I1
s.(dp0
Vcynswun
p1
I1
sVdeh9cdt
p2
I1
s.(dp0
Vcynswun
p1
I1
sVdej4awp
p2
I1
s.(dp0
Vcynswun
p1
I1
sVdfraed2
p2
I1
s.(dp0
Vdfx1rgt
p1
I1
sVcynswun
p2
I1
s.(dp0
Vdg3yk26
p1
I1
sVcynswun
p2
I1
s.(dp0
Vcynswun
p1
I1
sVdgvqsch
p2
I1
s.(dp0
Vcynswun
p1
I1
sVdhcrw7y
p2
I1
s.(dp0
Vcynswun
p1
I1
sVdkiukaw
p2
I1
s.(dp0
Vdkkdibw
p1
I1
sVcynswun
p2
I1
s.(dp0
Vdmv0qqh
p1
I1
sVcynswun
p2
I1
s.(dp0
Vcynswun
p1
I1
sVdo5c7i5
p2
I1
s.(dp0
Vcynswun
p1
I1
sVdpsq4he
p2
I1
s.