(dp0
Vd0fl5ni
p1
I1
s.(dp0
Vd1gk3ij
p1
I1
sVd0fl5ni
p2
I1
s.(dp0
Vd0fl5ni
p1
I1
sVd35fc8k
p2
I1
s.(dp0
Vd0fl5ni
p1
I1
sVd35fc8k
p2
I1
s.(dp0
Vd8326tj
p1
I1
sVd0fl5ni
p2
I1
s.(dp0
Vd0fl5ni
p1
I1
sVda20o94
p2
I1
s.(dp0
Vd0fl5ni
p1
I1
sVdbmhixt
p2
I1
s.(dp0
Vd0fl5ni
p1
I1
sVddnq8f4
p2
I1
s.(dp0
Vdinakgw
p1
I1
sVd0fl5ni
p2
I1
s.(dp0
Vdmj0ctk
p1
I1
sVd0fl5ni
p2
I1
s.(dp0
Vd0fl5ni
p1
I1
sVdrt9fch
p2
I1
s.