(dp0
Vcytyp6u
p1
I1
s.(dp0
Vcytyp6u
p1
I1
sVczl55oz
p2
I1
s.(dp0
Vcytyp6u
p1
I1
sVczwsgga
p2
I1
s.(dp0
Vcytyp6u
p1
I1
sVczwymd4
p2
I1
s.(dp0
Vd03nyz8
p1
I1
sVcytyp6u
p2
I1
s.(dp0
Vcytyp6u
p1
I1
sVd13yfql
p2
I1
s.(dp0
Vcytyp6u
p1
I1
sVd13yfql
p2
I1
s.(dp0
Vcytyp6u
p1
I1
sVd13yfql
p2
I1
s.(dp0
Vd1wy23o
p1
I1
sVcytyp6u
p2
I1
s.(dp0
Vd2meqli
p1
I1
sVcytyp6u
p2
I1
s.(dp0
Vd2meqli
p1
I1
sVcytyp6u
p2
I1
s.(dp0
Vd2xw73p
p1
I1
sVcytyp6u
p2
I1
s.(dp0
Vd36izly
p1
I1
sVcytyp6u
p2
I1
s.(dp0
Vd3vhqah
p1
I1
sVcytyp6u
p2
I1
s.(dp0
Vd419q89
p1
I1
sVcytyp6u
p2
I1
s.(dp0
Vd5d0tdq
p1
I1
sVcytyp6u
p2
I1
s.(dp0
Vcytyp6u
p1
I1
sVd6727oj
p2
I1
s.(dp0
Vd67phzf
p1
I1
sVcytyp6u
p2
I1
s.(dp0
Vd67phzf
p1
I1
sVcytyp6u
p2
I1
s.(dp0
Vd67phzf
p1
I1
sVcytyp6u
p2
I1
s.(dp0
Vcytyp6u
p1
I1
sVd6iog74
p2
I1
s.(dp0
Vd9l2pqi
p1
I1
sVcytyp6u
p2
I1
s.(dp0
Vcytyp6u
p1
I1
sVdb5gi0v
p2
I1
s.(dp0
Vcytyp6u
p1
I1
sVdba4o9p
p2
I1
s.(dp0
Vcytyp6u
p1
I1
sVdc7ifhz
p2
I1
s.(dp0
Vdcm640a
p1
I1
sVcytyp6u
p2
I1
s.(dp0
Vdcy20o5
p1
I1
sVcytyp6u
p2
I1
s.(dp0
Vcytyp6u
p1
I1
sVdexayrc
p2
I1
s.(dp0
Vcytyp6u
p1
I1
sVdexayrc
p2
I1
s.(dp0
Vdfqtsmr
p1
I1
sVcytyp6u
p2
I1
s.(dp0
Vcytyp6u
p1
I1
sVdftgsul
p2
I1
s.(dp0
Vcytyp6u
p1
I1
sVdgwkwx5
p2
I1
s.(dp0
Vdh5jk70
p1
I1
sVcytyp6u
p2
I1
s.(dp0
Vcytyp6u
p1
I1
sVdh6muht
p2
I1
s.(dp0
Vdhg0bqr
p1
I1
sVcytyp6u
p2
I1
s.(dp0
Vdhr5mfm
p1
I1
sVcytyp6u
p2
I1
s.(dp0
Vcytyp6u
p1
I1
sVdi635q3
p2
I1
s.(dp0
Vcytyp6u
p1
I1
sVdi635q3
p2
I1
s.(dp0
Vcytyp6u
p1
I1
sVdi635q3
p2
I1
s.(dp0
Vcytyp6u
p1
I1
sVdi635q3
p2
I1
s.(dp0
Vcytyp6u
p1
I1
sVdi635q3
p2
I1
s.(dp0
Vcytyp6u
p1
I1
sVdi635q3
p2
I1
s.(dp0
Vcytyp6u
p1
I1
sVdi635q3
p2
I1
s.(dp0
Vcytyp6u
p1
I1
sVdi635q3
p2
I1
s.(dp0
Vcytyp6u
p1
I1
sVdi7is4x
p2
I1
s.(dp0
Vcytyp6u
p1
I1
sVdi7is4x
p2
I1
s.(dp0
Vcytyp6u
p1
I1
sVdi7is4x
p2
I1
s.(dp0
Vcytyp6u
p1
I1
sVdi7is4x
p2
I1
s.(dp0
Vdifyc95
p1
I1
sVcytyp6u
p2
I1
s.(dp0
Vcytyp6u
p1
I1
sVdknarfp
p2
I1
s.(dp0
Vcytyp6u
p1
I1
sVdknarfp
p2
I1
s.(dp0
Vcytyp6u
p1
I1
sVdknarfp
p2
I1
s.(dp0
Vdmmmwib
p1
I1
sVcytyp6u
p2
I1
s.(dp0
Vdniojwe
p1
I1
sVcytyp6u
p2
I1
s.(dp0
Vdnqgdvw
p1
I1
sVcytyp6u
p2
I1
s.(dp0
Vcytyp6u
p1
I1
sVdomiuyw
p2
I1
s.(dp0
Vcytyp6u
p1
I1
sVdonyslp
p2
I1
s.(dp0
Vdosh6nc
p1
I1
sVcytyp6u
p2
I1
s.(dp0
Vcytyp6u
p1
I1
sVdqkfoeb
p2
I1
s.(dp0
Vdqsm4kt
p1
I1
sVcytyp6u
p2
I1
s.