(dp0
Vd0guknn
p1
I1
sVcyskcwn
p2
I1
sVde2gbmi
p3
I1
sVdczn3mr
p4
I1
sVdb1kitl
p5
I1
sVdod39z2
p6
I1
sVd6k0vei
p7
I1
sVdfd5gop
p8
I1
sVdb618fv
p9
I1
sVdagzciw
p10
I1
sVcz1jf5s
p11
I1
sVd6wi01b
p12
I1
sVd5mgxii
p13
I1
sVd5fve6d
p14
I1
sVd6yhja5
p15
I2
sVde1u6ne
p16
I2
sVdfqkg7z
p17
I2
sVdg5zmu9
p18
I1
sVd0xdjun
p19
I1
sVd1btjx1
p20
I1
sVdbf0k7a
p21
I1
sVd3ibrt5
p22
I1
sVdq3pav5
p23
I1
sVd902lai
p24
I1
sVdnzlntn
p25
I1
sVd0sz2a1
p26
I1
sVdslo2my
p27
I1
sVcynyd72
p28
I1
sVd5zogwd
p29
I1
sVddijay8
p30
I1
sVcyzb3pc
p31
I1
sVd8ekixb
p32
I1
sVddglh0i
p33
I1
sVdaiwiou
p34
I1
sVcz259ql
p35
I1
sVd3g3ggv
p36
I1
sVdbzsb7r
p37
I1
sVdj64iny
p38
I1
sVd0km1mm
p39
I1
sVdjz7f4h
p40
I1
sVdhzbwea
p41
I1
sVdffus18
p42
I2
sVdmm4cfl
p43
I1
sVd38jwhh
p44
I1
sVdqdog9q
p45
I1
sVdgiiwfb
p46
I1
s.