(dp0
Vd1q3z45
p1
I1
s.(dp0
Vd9ywfe3
p1
I1
sVd1q3z45
p2
I1
s.(dp0
Vd9ywfe3
p1
I1
sVd1q3z45
p2
I1
s.(dp0
Vdabxr68
p1
I1
sVd1q3z45
p2
I1
s.(dp0
Vdbykzt6
p1
I1
sVd1q3z45
p2
I1
s.(dp0
Vdeph549
p1
I1
sVd1q3z45
p2
I1
s.(dp0
Vdgy806v
p1
I1
sVd1q3z45
p2
I1
s.(dp0
Vdhqldwd
p1
I1
sVd1q3z45
p2
I1
s.(dp0
Vdkxpiya
p1
I1
sVd1q3z45
p2
I1
s.