(dp0
Vcyimlrr
p1
I1
s.(dp0
Vcyrfoj0
p1
I1
sVcyimlrr
p2
I1
s.(dp0
Vcz5s22z
p1
I1
sVcyimlrr
p2
I1
s.(dp0
Vcyimlrr
p1
I1
sVcz6g94j
p2
I1
s.(dp0
Vcz7s5q7
p1
I1
sVcyimlrr
p2
I1
s.(dp0
Vcyimlrr
p1
I1
sVczd5wy6
p2
I1
s.(dp0
Vczmsy3h
p1
I1
sVcyimlrr
p2
I1
s.(dp0
Vcyimlrr
p1
I1
sVd00ptsq
p2
I1
s.(dp0
Vd00xjdv
p1
I1
sVcyimlrr
p2
I1
s.(dp0
Vd0rxbv8
p1
I1
sVcyimlrr
p2
I1
s.(dp0
Vcyimlrr
p1
I1
sVd0zoilz
p2
I1
s.(dp0
Vcyimlrr
p1
I1
sVd10jl17
p2
I1
s.(dp0
Vd1hm8iv
p1
I1
sVcyimlrr
p2
I1
s.(dp0
Vcyimlrr
p1
I1
sVd1q1nyv
p2
I1
s.(dp0
Vd1zksyh
p1
I1
sVcyimlrr
p2
I1
s.(dp0
Vcyimlrr
p1
I1
sVd2hlptz
p2
I1
s.(dp0
Vd35mh6e
p1
I1
sVcyimlrr
p2
I1
s.(dp0
Vd3kz559
p1
I1
sVcyimlrr
p2
I1
s.(dp0
Vcyimlrr
p1
I1
sVd3mbz04
p2
I1
s.(dp0
Vcyimlrr
p1
I1
sVd3n4xkr
p2
I1
s.(dp0
Vd4irk0k
p1
I1
sVcyimlrr
p2
I1
s.(dp0
Vd4oo5c0
p1
I1
sVcyimlrr
p2
I1
s.(dp0
Vcyimlrr
p1
I1
sVd4p9cte
p2
I1
s.(dp0
Vcyimlrr
p1
I1
sVd4wcqxz
p2
I1
s.(dp0
Vd5jyron
p1
I1
sVcyimlrr
p2
I1
s.(dp0
Vcyimlrr
p1
I1
sVd5k6jsi
p2
I1
s.(dp0
Vd5ky7a0
p1
I1
sVcyimlrr
p2
I1
s.(dp0
Vd5sp79i
p1
I1
sVcyimlrr
p2
I1
s.(dp0
Vd5t823s
p1
I1
sVcyimlrr
p2
I1
s.(dp0
Vd5v7xu2
p1
I1
sVcyimlrr
p2
I1
s.(dp0
Vcyimlrr
p1
I1
sVd5y49zt
p2
I1
s.(dp0
Vcyimlrr
p1
I1
sVd65gpa5
p2
I1
s.(dp0
Vd6nt5hf
p1
I1
sVcyimlrr
p2
I1
s.(dp0
Vd6tjvpm
p1
I1
sVcyimlrr
p2
I1
s.(dp0
Vcyimlrr
p1
I1
sVd6x5sdh
p2
I1
s.(dp0
Vcyimlrr
p1
I1
sVd6xh2bb
p2
I1
s.(dp0
Vd8d9ar3
p1
I1
sVcyimlrr
p2
I1
s.(dp0
Vd8f7fh9
p1
I1
sVcyimlrr
p2
I1
s.(dp0
Vd8g1pjm
p1
I1
sVcyimlrr
p2
I1
s.(dp0
Vd96w407
p1
I1
sVcyimlrr
p2
I1
s.(dp0
Vd99ps2y
p1
I1
sVcyimlrr
p2
I1
s.(dp0
Vd9bhy6s
p1
I1
sVcyimlrr
p2
I1
s.(dp0
Vd9fc71p
p1
I1
sVcyimlrr
p2
I1
s.(dp0
Vd9zmg0r
p1
I1
sVcyimlrr
p2
I1
s.(dp0
Vda4fcwh
p1
I1
sVcyimlrr
p2
I1
s.(dp0
Vdapbxtm
p1
I1
sVcyimlrr
p2
I1
s.(dp0
Vcyimlrr
p1
I1
sVdb7n77x
p2
I1
s.(dp0
Vdbnea41
p1
I1
sVcyimlrr
p2
I1
s.(dp0
Vcyimlrr
p1
I1
sVdc01sqg
p2
I1
s.(dp0
Vcyimlrr
p1
I1
sVdccieko
p2
I1
s.(dp0
Vcyimlrr
p1
I1
sVddl87mm
p2
I1
s.(dp0
Vcyimlrr
p1
I1
sVddswa5u
p2
I1
s.(dp0
Vde55icb
p1
I1
sVcyimlrr
p2
I1
s.(dp0
Vdeced0d
p1
I1
sVcyimlrr
p2
I1
s.(dp0
Vdeguswi
p1
I1
sVcyimlrr
p2
I1
s.(dp0
Vcyimlrr
p1
I1
sVdf3w9xk
p2
I1
s.(dp0
Vcyimlrr
p1
I1
sVdf3w9xk
p2
I1
s.(dp0
Vdfpoxw3
p1
I1
sVcyimlrr
p2
I1
s.(dp0
Vdg6xrfv
p1
I1
sVcyimlrr
p2
I1
s.(dp0
Vcyimlrr
p1
I1
sVdgaid6q
p2
I1
s.(dp0
Vdgcxty6
p1
I1
sVcyimlrr
p2
I1
s.(dp0
Vdh8x46g
p1
I1
sVcyimlrr
p2
I1
s.(dp0
Vcyimlrr
p1
I1
sVdi2hn9a
p2
I1
s.(dp0
Vdjcw9ks
p1
I1
sVcyimlrr
p2
I1
s.(dp0
Vdk4p64n
p1
I1
sVcyimlrr
p2
I1
s.(dp0
Vdk5ftg1
p1
I1
sVcyimlrr
p2
I1
s.(dp0
Vdkklsp6
p1
I1
sVcyimlrr
p2
I1
s.(dp0
Vcyimlrr
p1
I1
sVdmk9a3v
p2
I1
s.(dp0
Vdmol7iy
p1
I1
sVcyimlrr
p2
I1
s.(dp0
Vcyimlrr
p1
I1
sVdnjjcb2
p2
I1
s.(dp0
Vdnu2xkv
p1
I1
sVcyimlrr
p2
I1
s.(dp0
Vdnukilt
p1
I1
sVcyimlrr
p2
I1
s.(dp0
Vdobjryl
p1
I1
sVcyimlrr
p2
I1
s.(dp0
Vdqba9wq
p1
I1
sVcyimlrr
p2
I1
s.(dp0
Vdqiqdm3
p1
I1
sVcyimlrr
p2
I1
s.(dp0
Vcyimlrr
p1
I1
sVdqjv7ff
p2
I1
s.(dp0
Vdqr5vdc
p1
I1
sVcyimlrr
p2
I1
s.(dp0
Vcyimlrr
p1
I1
sVdr4p1tz
p2
I1
s.(dp0
Vdr6hjpx
p1
I1
sVcyimlrr
p2
I1
s.(dp0
Vcyimlrr
p1
I1
sVdr9k66k
p2
I1
s.(dp0
Vdrmvxqy
p1
I1
sVcyimlrr
p2
I1
s.(dp0
Vcyimlrr
p1
I1
sVds94dhu
p2
I1
s.(dp0
Vdt2kehw
p1
I1
sVcyimlrr
p2
I1
s.