(dp0
Vcyi47bu
p1
I1
s.(dp0
Vcylj2jj
p1
I1
sVcyi47bu
p2
I1
s.(dp0
Vcymjo7s
p1
I1
sVcyi47bu
p2
I1
s.(dp0
Vcyttj3n
p1
I1
sVcyi47bu
p2
I1
s.(dp0
Vcyxredd
p1
I1
sVcyi47bu
p2
I1
s.(dp0
Vczia45f
p1
I1
sVcyi47bu
p2
I1
s.(dp0
Vczolx9c
p1
I1
sVcyi47bu
p2
I1
s.(dp0
Vcyi47bu
p1
I1
sVczpsws2
p2
I1
s.(dp0
Vd08cgbq
p1
I1
sVcyi47bu
p2
I1
s.(dp0
Vd0b7248
p1
I1
sVcyi47bu
p2
I1
s.(dp0
Vd0b7248
p1
I1
sVcyi47bu
p2
I1
s.(dp0
Vd0bm87b
p1
I1
sVcyi47bu
p2
I1
s.(dp0
Vd0jx4lw
p1
I1
sVcyi47bu
p2
I1
s.(dp0
Vd0nz4zc
p1
I1
sVcyi47bu
p2
I1
s.(dp0
Vd16g0hy
p1
I1
sVcyi47bu
p2
I1
s.(dp0
Vd175u2y
p1
I1
sVcyi47bu
p2
I1
s.(dp0
Vd17hz5w
p1
I1
sVcyi47bu
p2
I1
s.(dp0
Vd17izax
p1
I1
sVcyi47bu
p2
I1
s.(dp0
Vd1g57ku
p1
I1
sVcyi47bu
p2
I1
s.(dp0
Vd1ojrq8
p1
I1
sVcyi47bu
p2
I1
s.(dp0
Vd297qmu
p1
I1
sVcyi47bu
p2
I1
s.(dp0
Vd2g6sar
p1
I1
sVcyi47bu
p2
I1
s.(dp0
Vd2qy8v6
p1
I1
sVcyi47bu
p2
I1
s.(dp0
Vd365kn3
p1
I1
sVcyi47bu
p2
I1
s.(dp0
Vd3aeyw0
p1
I1
sVcyi47bu
p2
I1
s.(dp0
Vd3fdzph
p1
I1
sVcyi47bu
p2
I1
s.(dp0
Vd3hzg8v
p1
I1
sVcyi47bu
p2
I1
s.(dp0
Vcyi47bu
p1
I1
sVd3kjycx
p2
I1
s.(dp0
Vd3kk1zv
p1
I1
sVcyi47bu
p2
I1
s.(dp0
Vd3kk4kf
p1
I1
sVcyi47bu
p2
I1
s.(dp0
Vd3n1gc1
p1
I1
sVcyi47bu
p2
I1
s.(dp0
Vd48hrwx
p1
I1
sVcyi47bu
p2
I1
s.(dp0
Vd4db1bm
p1
I1
sVcyi47bu
p2
I1
s.(dp0
Vd51tnuy
p1
I1
sVcyi47bu
p2
I1
s.(dp0
Vd58lu0i
p1
I1
sVcyi47bu
p2
I1
s.(dp0
Vd5rilbz
p1
I1
sVcyi47bu
p2
I1
s.(dp0
Vd5rilbz
p1
I1
sVcyi47bu
p2
I1
s.(dp0
Vd5yrmbi
p1
I1
sVcyi47bu
p2
I1
s.(dp0
Vd6zz6iq
p1
I1
sVcyi47bu
p2
I1
s.(dp0
Vd7t1dwb
p1
I1
sVcyi47bu
p2
I1
s.(dp0
Vd82ucbs
p1
I1
sVcyi47bu
p2
I1
s.(dp0
Vd8bsspi
p1
I1
sVcyi47bu
p2
I1
s.(dp0
Vd9dzml9
p1
I1
sVcyi47bu
p2
I1
s.(dp0
Vda35ef0
p1
I1
sVcyi47bu
p2
I1
s.(dp0
Vda9i1yg
p1
I1
sVcyi47bu
p2
I1
s.(dp0
Vdbhc2bm
p1
I1
sVcyi47bu
p2
I1
s.(dp0
Vcyi47bu
p1
I1
sVdbsfie5
p2
I1
s.(dp0
Vcyi47bu
p1
I1
sVdbsfie5
p2
I1
s.(dp0
Vcyi47bu
p1
I1
sVdbsfie5
p2
I1
s.(dp0
Vdbsfx4d
p1
I1
sVcyi47bu
p2
I1
s.(dp0
Vcyi47bu
p1
I1
sVdcb8uv8
p2
I1
s.(dp0
Vdco3c3a
p1
I1
sVcyi47bu
p2
I1
s.(dp0
Vcyi47bu
p1
I1
sVdcphyce
p2
I1
s.(dp0
Vdctxjkj
p1
I1
sVcyi47bu
p2
I1
s.(dp0
Vdd6c7ar
p1
I1
sVcyi47bu
p2
I1
s.(dp0
Vddai80b
p1
I1
sVcyi47bu
p2
I1
s.(dp0
Vddalqm7
p1
I1
sVcyi47bu
p2
I1
s.(dp0
Vdddw1zi
p1
I1
sVcyi47bu
p2
I1
s.(dp0
Vddjjqwz
p1
I1
sVcyi47bu
p2
I1
s.(dp0
Vddlyk0y
p1
I1
sVcyi47bu
p2
I1
s.(dp0
Vcyi47bu
p1
I1
sVddp8oux
p2
I1
s.(dp0
Vddr3jq0
p1
I1
sVcyi47bu
p2
I1
s.(dp0
Vdds2vua
p1
I1
sVcyi47bu
p2
I1
s.(dp0
Vddw8tsa
p1
I1
sVcyi47bu
p2
I1
s.(dp0
Vde2s7q1
p1
I1
sVcyi47bu
p2
I1
s.(dp0
Vdf1w1fc
p1
I1
sVcyi47bu
p2
I1
s.(dp0
Vdfdrm4y
p1
I1
sVcyi47bu
p2
I1
s.(dp0
Vcyi47bu
p1
I1
sVdfr8c3b
p2
I1
s.(dp0
Vcyi47bu
p1
I1
sVdfwzvp5
p2
I1
s.(dp0
Vdfy6ket
p1
I1
sVcyi47bu
p2
I1
s.(dp0
Vcyi47bu
p1
I1
sVdfyaflv
p2
I1
s.(dp0
Vdga2mg8
p1
I1
sVcyi47bu
p2
I1
s.(dp0
Vdgulzhe
p1
I1
sVcyi47bu
p2
I1
s.(dp0
Vdh155zt
p1
I1
sVcyi47bu
p2
I1
s.(dp0
Vcyi47bu
p1
I1
sVdh7q642
p2
I1
s.(dp0
Vdhpips6
p1
I1
sVcyi47bu
p2
I1
s.(dp0
Vdhv99sj
p1
I1
sVcyi47bu
p2
I1
s.(dp0
Vcyi47bu
p1
I1
sVdhvglbu
p2
I1
s.(dp0
Vdhvgplc
p1
I1
sVcyi47bu
p2
I1
s.(dp0
Vdhvi3vf
p1
I1
sVcyi47bu
p2
I1
s.(dp0
Vcyi47bu
p1
I1
sVdhvkyf4
p2
I1
s.(dp0
Vcyi47bu
p1
I1
sVdhwxss1
p2
I1
s.(dp0
Vdi6gj2u
p1
I1
sVcyi47bu
p2
I1
s.(dp0
Vdimjxtd
p1
I1
sVcyi47bu
p2
I1
s.(dp0
Vdix31fj
p1
I1
sVcyi47bu
p2
I1
s.(dp0
Vdiyk4z0
p1
I1
sVcyi47bu
p2
I1
s.(dp0
Vdj9dem2
p1
I1
sVcyi47bu
p2
I1
s.(dp0
Vdjtuvir
p1
I1
sVcyi47bu
p2
I1
s.(dp0
Vdkg78lr
p1
I1
sVcyi47bu
p2
I1
s.(dp0
Vdkhsuji
p1
I1
sVcyi47bu
p2
I1
s.(dp0
Vdkvpvv4
p1
I1
sVcyi47bu
p2
I1
s.(dp0
Vdmiyf5s
p1
I1
sVcyi47bu
p2
I1
s.(dp0
Vdmx91r2
p1
I1
sVcyi47bu
p2
I1
s.(dp0
Vdnillin
p1
I1
sVcyi47bu
p2
I1
s.(dp0
Vdnvfrmt
p1
I1
sVcyi47bu
p2
I1
s.(dp0
Vdojw9mm
p1
I1
sVcyi47bu
p2
I1
s.(dp0
Vdozzjc0
p1
I1
sVcyi47bu
p2
I1
s.(dp0
Vcyi47bu
p1
I1
sVdrqz2ry
p2
I1
s.(dp0
Vdruz2nl
p1
I1
sVcyi47bu
p2
I1
s.