(dp0
Vdhthxxw
p1
I1
sVd35rx3e
p2
I1
sVdt4jfe0
p3
I1
sVds5peq0
p4
I1
sVdhtdg7l
p5
I1
sVd992aho
p6
I1
sVdhtdoam
p7
I1
sVdcrwncu
p8
I2
sVd1fwune
p9
I1
sVdhtmbq0
p10
I1
sVcylhvx0
p11
I4
sVdhta1wd
p12
I1
sVdrylvjw
p13
I2
sVcztt73x
p14
I1
sVczs21f9
p15
I1
sVdcsiqyq
p16
I2
sVdau00yo
p17
I1
sVdhu7feg
p18
I2
sVdhtkcfz
p19
I8
sVd367dff
p20
I1
sVd6lvjbv
p21
I1
s.