(dp0
Vd0qy6g7
p1
I1
sVdcwa2by
p2
I1
sVd0qr3lc
p3
I1
sVdd6xarg
p4
I1
sVd4enelb
p5
I1
sVdcw4fr3
p6
I1
sVdpjytsh
p7
I1
sVd0qvwq9
p8
I1
sVd0qz2uc
p9
I1
sVdhlhh1g
p10
I1
sVdolb1hm
p11
I1
sVd0qy22t
p12
I1
sVdcw3zhr
p13
I1
sVdcw35le
p14
I1
sVdbiwia0
p15
I1
s.