(dp0
Vd1bhmd3
p1
I1
sVd33rpo0
p2
I1
sVd2a06c0
p3
I1
sVd75ujnf
p4
I1
sVdg5d7dy
p5
I1
sVdbh8rvo
p6
I1
sVd1zch31
p7
I1
sVczqxf85
p8
I3
sVd5yips9
p9
I1
sVdswwu1p
p10
I1
sVd4358ff
p11
I3
sVd6fmxpp
p12
I1
sVdskz8p5
p13
I1
sVdgkwdwj
p14
I1
sVd38hxfp
p15
I3
sVd9z76ls
p16
I1
sVd39p39t
p17
I1
sVd7711g2
p18
I1
sVcym3pwr
p19
I1
sVdah7zx6
p20
I1
sVdc2a13v
p21
I1
sVdi4gakc
p22
I1
sVd0nvygx
p23
I1
sVcyy3wjw
p24
I1
sVd420p83
p25
I1
sVd7bcbdv
p26
I2
sVdg1u9jw
p27
I1
sVd770zpa
p28
I1
sVd49xr6a
p29
I1
sVd7efx66
p30
I1
sVd2o3apu
p31
I2
sVd67bza0
p32
I1
sVd6y8qp3
p33
I1
sVd27p4rp
p34
I2
sVdnhiw4x
p35
I1
sVdju356h
p36
I1
sVdhz5f6m
p37
I1
sVdem0ml2
p38
I1
sVdhgklcg
p39
I1
sVd9vtipm
p40
I1
sVd2ndipa
p41
I2
sVdcpmkiu
p42
I1
sVd3nyes2
p43
I1
sVdag4cqa
p44
I1
sVd4r4aoj
p45
I2
sVd7lopdf
p46
I1
sVdammmzs
p47
I1
sVd8wo4pq
p48
I1
sVcz5099l
p49
I1
sVd8jbk43
p50
I1
sVd9g48q5
p51
I1
sVdbce0vr
p52
I1
sVd1ii23a
p53
I1
sVdkek9bh
p54
I2
sVddtfu24
p55
I1
sVdf7xe44
p56
I1
sVdigyzdl
p57
I1
sVd4rhboo
p58
I1
sVd4i3s2z
p59
I1
sVd3dt301
p60
I1
sVdchiiu2
p61
I1
sVd1d7vxx
p62
I1
sVdein30x
p63
I1
sVd3hoas8
p64
I1
sVdjbdlzr
p65
I1
sVd3n9b76
p66
I1
sVdjlvuyo
p67
I1
sVd66p0v9
p68
I1
sVd6fbu5m
p69
I1
sVdb3dzfc
p70
I1
sVdhfyx2r
p71
I1
sVdjuf2h7
p72
I1
sVd1gx2o8
p73
I1
sVdnh1kzv
p74
I1
sVdi9wcrn
p75
I1
sVczi0flr
p76
I1
sVddp2xzl
p77
I1
sVdb633gf
p78
I1
sVd59hkqw
p79
I1
sVd9ks4zm
p80
I2
sVdpporiu
p81
I1
sVdcz8q9z
p82
I2
sVdow36r2
p83
I1
sVcyrx0kf
p84
I1
sVdt8yltk
p85
I1
s.