(dp0
Vd3ne18b
p1
I1
sVdn5p428
p2
I1
sVczsivd3
p3
I1
sVd9br2e5
p4
I1
sVczsj6o1
p5
I1
sVd21ek7i
p6
I1
sVdh75oz4
p7
I1
sVd14r4fr
p8
I1
sVcyzexte
p9
I1
sVdq3zd8q
p10
I1
sVd2abhgx
p11
I1
sVdc6pfre
p12
I1
sVdtfrd4m
p13
I1
sVd0vnokq
p14
I1
sVdbyh2eh
p15
I1
s.