(dp0
Vd6zow52
p1
I2
sVdk26wo1
p2
I1
sVd2o3luj
p3
I1
sVdkzde3q
p4
I1
sVdmmdumy
p5
I1
sVdnabs7w
p6
I1
sVd2gassu
p7
I1
sVd26ofam
p8
I1
sVcz2xpl4
p9
I1
sVddr4yhv
p10
I1
sVd1d19p2
p11
I1
sVd7clqre
p12
I1
sVd7fc7yq
p13
I1
sVdagt5h7
p14
I1
sVdqrmvkt
p15
I1
sVd45u32w
p16
I2
sVdb6y27t
p17
I5
sVdbu0dff
p18
I1
sVd8kcteq
p19
I2
sVdmqg1x9
p20
I1
sVdhz24gc
p21
I1
sVdesgfm4
p22
I1
sVd1pm058
p23
I1
s.