(dp0
Vdse4pcn
p1
I2
sVd43q7ie
p2
I2
sVdelfz1x
p3
I1
sVd0sbkb7
p4
I1
sVdedizz6
p5
I2
sVdd72aj7
p6
I1
sVdnyaxb8
p7
I1
sVdd6q2p4
p8
I1
sVddkvo6n
p9
I1
sVcypevs7
p10
I1
sVd0sxqzv
p11
I2
sVd2febse
p12
I1
sVdsbg6yr
p13
I1
sVddmxfg7
p14
I1
sVddbqzg6
p15
I1
sVdf1z8ck
p16
I3
sVdcxvbak
p17
I1
sVd4rbrwk
p18
I1
sVd0s1yqx
p19
I1
sVdene1rq
p20
I1
sVd53l7dx
p21
I1
sVdqa2vjn
p22
I1
sVd9qvnbg
p23
I2
sVd27jaya
p24
I2
sVd0s3psu
p25
I3
sVdt2fzvy
p26
I1
sVd5hc2g3
p27
I1
sVd3118eh
p28
I1
sVd847g9r
p29
I4
sVdfkajzx
p30
I1
sVd2wi5wu
p31
I1
sVcyklet1
p32
I1
sVd0s07nd
p33
I1
sVdet2l79
p34
I2
sVddis31l
p35
I1
s.