(dp0
Vcyjcvxa
p1
I1
s.(dp0
Vcyjnael
p1
I1
sVcyjcvxa
p2
I1
s.(dp0
Vcyjpflv
p1
I1
sVcyjcvxa
p2
I1
s.(dp0
Vcykk9m7
p1
I1
sVcyjcvxa
p2
I1
s.(dp0
Vcyl67om
p1
I1
sVcyjcvxa
p2
I1
s.(dp0
Vcylsus3
p1
I1
sVcyjcvxa
p2
I1
s.(dp0
Vcyng12c
p1
I1
sVcyjcvxa
p2
I1
s.(dp0
Vcynh5ip
p1
I1
sVcyjcvxa
p2
I1
s.(dp0
Vcynp57z
p1
I1
sVcyjcvxa
p2
I1
s.(dp0
Vcyo0j95
p1
I1
sVcyjcvxa
p2
I1
s.(dp0
Vcyp2nlu
p1
I1
sVcyjcvxa
p2
I1
s.(dp0
Vcypeo54
p1
I1
sVcyjcvxa
p2
I1
s.(dp0
Vcypf0s1
p1
I1
sVcyjcvxa
p2
I1
s.(dp0
Vcypysgj
p1
I1
sVcyjcvxa
p2
I1
s.(dp0
Vcyqkqko
p1
I1
sVcyjcvxa
p2
I1
s.(dp0
Vcyrlyyu
p1
I1
sVcyjcvxa
p2
I1
s.(dp0
Vcyrvdov
p1
I1
sVcyjcvxa
p2
I1
s.(dp0
Vcyrvl4i
p1
I1
sVcyjcvxa
p2
I1
s.(dp0
Vcysw1jc
p1
I1
sVcyjcvxa
p2
I1
s.(dp0
Vcytkoeh
p1
I1
sVcyjcvxa
p2
I1
s.(dp0
Vcytquka
p1
I1
sVcyjcvxa
p2
I1
s.(dp0
Vcytquka
p1
I1
sVcyjcvxa
p2
I1
s.(dp0
Vcyum6zr
p1
I1
sVcyjcvxa
p2
I1
s.(dp0
Vcyum6zr
p1
I1
sVcyjcvxa
p2
I1
s.(dp0
Vcyvao1d
p1
I1
sVcyjcvxa
p2
I1
s.(dp0
Vcyvbod9
p1
I1
sVcyjcvxa
p2
I1
s.(dp0
Vcyvbrth
p1
I1
sVcyjcvxa
p2
I1
s.(dp0
Vcyvocm8
p1
I1
sVcyjcvxa
p2
I1
s.(dp0
Vcyvu0pw
p1
I1
sVcyjcvxa
p2
I1
s.(dp0
Vcywl84g
p1
I1
sVcyjcvxa
p2
I1
s.(dp0
Vcywutlu
p1
I1
sVcyjcvxa
p2
I1
s.(dp0
Vcywutlu
p1
I1
sVcyjcvxa
p2
I1
s.(dp0
Vcywvilf
p1
I1
sVcyjcvxa
p2
I1
s.(dp0
Vcyx5eme
p1
I1
sVcyjcvxa
p2
I1
s.(dp0
Vcyx5eme
p1
I1
sVcyjcvxa
p2
I1
s.(dp0
Vcyxnkmv
p1
I1
sVcyjcvxa
p2
I1
s.(dp0
Vcyyz9b3
p1
I1
sVcyjcvxa
p2
I1
s.(dp0
Vcyyzlb8
p1
I1
sVcyjcvxa
p2
I1
s.(dp0
Vcyzti9k
p1
I1
sVcyjcvxa
p2
I1
s.(dp0
Vcz3hh6c
p1
I1
sVcyjcvxa
p2
I1
s.(dp0
Vcz3s6qg
p1
I1
sVcyjcvxa
p2
I1
s.(dp0
Vcz4q2aq
p1
I1
sVcyjcvxa
p2
I1
s.(dp0
Vcz59tyu
p1
I1
sVcyjcvxa
p2
I1
s.(dp0
Vcz59tyu
p1
I1
sVcyjcvxa
p2
I1
s.(dp0
Vcz59tyu
p1
I1
sVcyjcvxa
p2
I1
s.(dp0
Vcz7w72r
p1
I1
sVcyjcvxa
p2
I1
s.(dp0
Vcz7w88d
p1
I1
sVcyjcvxa
p2
I1
s.(dp0
Vcz80uyv
p1
I1
sVcyjcvxa
p2
I1
s.(dp0
Vcz8dmcr
p1
I1
sVcyjcvxa
p2
I1
s.(dp0
Vcz8dscr
p1
I1
sVcyjcvxa
p2
I1
s.(dp0
Vcz8dscr
p1
I1
sVcyjcvxa
p2
I1
s.(dp0
Vcz8seot
p1
I1
sVcyjcvxa
p2
I1
s.(dp0
Vcz8seot
p1
I1
sVcyjcvxa
p2
I1
s.(dp0
Vcz923ua
p1
I1
sVcyjcvxa
p2
I1
s.(dp0
Vczb0vqj
p1
I1
sVcyjcvxa
p2
I1
s.(dp0
Vczccyuy
p1
I1
sVcyjcvxa
p2
I1
s.(dp0
Vczccyuy
p1
I1
sVcyjcvxa
p2
I1
s.(dp0
Vczccyuy
p1
I1
sVcyjcvxa
p2
I1
s.(dp0
Vczdakno
p1
I1
sVcyjcvxa
p2
I1
s.(dp0
Vczej69f
p1
I1
sVcyjcvxa
p2
I1
s.(dp0
Vczej69f
p1
I1
sVcyjcvxa
p2
I1
s.(dp0
Vczej69f
p1
I1
sVcyjcvxa
p2
I1
s.(dp0
Vczeklmy
p1
I1
sVcyjcvxa
p2
I1
s.(dp0
Vczeklmy
p1
I1
sVcyjcvxa
p2
I1
s.(dp0
Vczf162h
p1
I1
sVcyjcvxa
p2
I1
s.(dp0
Vczglhyn
p1
I1
sVcyjcvxa
p2
I1
s.(dp0
Vczhog8k
p1
I1
sVcyjcvxa
p2
I1
s.(dp0
Vczhog8k
p1
I1
sVcyjcvxa
p2
I1
s.(dp0
Vczhog8k
p1
I1
sVcyjcvxa
p2
I1
s.(dp0
Vczhog8k
p1
I1
sVcyjcvxa
p2
I1
s.(dp0
Vczhwyqc
p1
I1
sVcyjcvxa
p2
I1
s.(dp0
Vczi0itr
p1
I1
sVcyjcvxa
p2
I1
s.(dp0
Vczi28pl
p1
I1
sVcyjcvxa
p2
I1
s.(dp0
Vczi28pl
p1
I1
sVcyjcvxa
p2
I1
s.(dp0
Vczi28pl
p1
I1
sVcyjcvxa
p2
I1
s.(dp0
Vczi32ij
p1
I1
sVcyjcvxa
p2
I1
s.(dp0
Vczi32ij
p1
I1
sVcyjcvxa
p2
I1
s.(dp0
Vczienvl
p1
I1
sVcyjcvxa
p2
I1
s.(dp0
Vczietz5
p1
I1
sVcyjcvxa
p2
I1
s.(dp0
Vcziytby
p1
I1
sVcyjcvxa
p2
I1
s.(dp0
Vczj81gt
p1
I1
sVcyjcvxa
p2
I1
s.(dp0
Vczjqa3k
p1
I1
sVcyjcvxa
p2
I1
s.(dp0
Vczjqa3k
p1
I1
sVcyjcvxa
p2
I1
s.(dp0
Vczkudwc
p1
I1
sVcyjcvxa
p2
I1
s.(dp0
Vczl9qch
p1
I1
sVcyjcvxa
p2
I1
s.(dp0
Vczlybgr
p1
I1
sVcyjcvxa
p2
I1
s.(dp0
Vczm3lou
p1
I1
sVcyjcvxa
p2
I1
s.(dp0
Vczm3lou
p1
I1
sVcyjcvxa
p2
I1
s.(dp0
Vczm3lou
p1
I1
sVcyjcvxa
p2
I1
s.(dp0
Vczm3lou
p1
I1
sVcyjcvxa
p2
I1
s.(dp0
Vczm5me4
p1
I1
sVcyjcvxa
p2
I1
s.(dp0
Vczmrujm
p1
I1
sVcyjcvxa
p2
I1
s.(dp0
Vczn4tjm
p1
I1
sVcyjcvxa
p2
I1
s.(dp0
Vczn6ern
p1
I1
sVcyjcvxa
p2
I1
s.(dp0
Vcznc6hw
p1
I1
sVcyjcvxa
p2
I1
s.(dp0
Vcznkjgn
p1
I1
sVcyjcvxa
p2
I1
s.(dp0
Vcznu2ap
p1
I1
sVcyjcvxa
p2
I1
s.(dp0
Vcznu2ap
p1
I1
sVcyjcvxa
p2
I1
s.(dp0
Vczo4ywd
p1
I1
sVcyjcvxa
p2
I1
s.(dp0
Vczpwssa
p1
I1
sVcyjcvxa
p2
I1
s.(dp0
Vczqdzfo
p1
I1
sVcyjcvxa
p2
I1
s.(dp0
Vczql178
p1
I1
sVcyjcvxa
p2
I1
s.(dp0
Vczql5f2
p1
I1
sVcyjcvxa
p2
I1
s.(dp0
Vczr333i
p1
I1
sVcyjcvxa
p2
I1
s.(dp0
Vczscbyw
p1
I1
sVcyjcvxa
p2
I1
s.(dp0
Vczswsqn
p1
I1
sVcyjcvxa
p2
I1
s.(dp0
Vczswsqn
p1
I1
sVcyjcvxa
p2
I1
s.(dp0
Vczswsqn
p1
I1
sVcyjcvxa
p2
I1
s.(dp0
Vcz(dp0
Vdtiv1wi
p1
I1
sVcyjcvxa
p2
I1
s.