(dp0
Vczo8wjg
p1
I1
sVdbsfrb7
p2
I1
sVddktguu
p3
I1
sVdcf01x3
p4
I1
sVd48oxgj
p5
I1
sVdry40g5
p6
I1
sVcz811jy
p7
I2
sVdmib24r
p8
I1
sVdaonbst
p9
I2
sVcz86s1s
p10
I1
sVcyucclb
p11
I1
sVd5skn4u
p12
I1
sVd76b8o9
p13
I1
sVdqxbnpw
p14
I1
sVd86wyvh
p15
I1
sVdnqvab9
p16
I1
sVd04xpy6
p17
I1
sVdrmmp5c
p18
I1
sVd1vuexe
p19
I1
sVd75us81
p20
I1
sVd4efuhq
p21
I1
sVdepr9tw
p22
I1
sVd6m5l8d
p23
I1
sVdrguhk1
p24
I1
sVdoovzn9
p25
I3
sVdhkeulp
p26
I1
sVdadqqs0
p27
I1
sVd9w2nfa
p28
I1
sVdmvrqe4
p29
I1
sVdpo3h9p
p30
I1
sVdaerkba
p31
I1
sVdde281u
p32
I1
sVd3exxpp
p33
I1
sVd7c0r75
p34
I1
sVd7tf0x6
p35
I1
sVd15lmiw
p36
I1
sVdketyd0
p37
I1
sVdhja2eb
p38
I1
sVd2azok1
p39
I1
sVd5si8i1
p40
I1
sVd4jy0vk
p41
I7
sVd9noif7
p42
I2
sVd5uw1yj
p43
I1
sVd58sipp
p44
I1
sVczviotl
p45
I1
sVdc9q7qu
p46
I1
sVd0run14
p47
I1
sVcz0mnrs
p48
I1
sVdt9kkft
p49
I1
sVd6ty3mj
p50
I1
sVdckkg1z
p51
I1
sVdbxlig5
p52
I1
sVdslbrqw
p53
I1
sVdjze1wd
p54
I1
sVd0rpl38
p55
I1
sVd4951nf
p56
I1
sVdtdtkeg
p57
I1
sVd2s4lid
p58
I1
sVd3rflqz
p59
I1
sVdazgvxx
p60
I1
sVdqoutic
p61
I1
sVdsvt6gv
p62
I3
sVd0vcvjb
p63
I2
sVd0xxbqt
p64
I1
sVddol8hh
p65
I1
sVdbc3axl
p66
I1
sVd2gm4n4
p67
I1
sVd48s4yy
p68
I1
sVd6h91xg
p69
I1
sVdexwfom
p70
I1
sVdrn9iiq
p71
I1
sVd2d1ai5
p72
I1
sVdh3dpz1
p73
I2
sVdankpki
p74
I1
sVd1kvv4v
p75
I1
sVdr5drk7
p76
I1
sVdf57h1m
p77
I1
sVdaw2uui
p78
I1
sVd3qrhnp
p79
I1
sVd0iszyz
p80
I1
sVdjyj423
p81
I1
sVdkebwgb
p82
I2
sVd3f0dw9
p83
I4
sVdc63lws
p84
I1
sVdbqs0k7
p85
I1
sVd9wzdyi
p86
I1
sVdjwnolj
p87
I1
sVdc6clbt
p88
I1
sVdjxron5
p89
I1
sVdb05c5n
p90
I1
sVczmkrfo
p91
I1
sVdo24ma1
p92
I1
sVd0slpka
p93
I1
sVd0f13bc
p94
I1
sVd3p592z
p95
I2
sVd496fj4
p96
I1
sVd7qwf87
p97
I1
sVd4jww72
p98
I2
sVdhmwhqh
p99
I1
sVdaokvwc
p100
I2
sVdbwipiq
p101
I1
sVd0w589d
p102
I1
sVdq0yyty
p103
I2
sVcykcyvn
p104
I1
sVdc0knj5
p105
I1
sVd458lst
p106
I1
sVd2h40mm
p107
I3
sVd8c0a6b
p108
I1
sVdazdlqf
p109
I1
sVdoodug3
p110
I3
sVdqcknbz
p111
I1
sVdqkdgk7
p112
I1
sVd1kufk4
p113
I1
s.