(dp0
Vdfrtalz
p1
I1
sVdqodbde
p2
I1
sVdjdz8jm
p3
I2
sVd9vofce
p4
I1
sVd0mhf20
p5
I1
sVda8nxvs
p6
I1
sVde0tnjw
p7
I1
sVdil0etp
p8
I1
sVdj2exkc
p9
I1
sVdfxqtxe
p10
I1
sVds19c38
p11
I1
sVddi54jl
p12
I1
sVdieyke4
p13
I1
sVd0bkqrz
p14
I1
sVd3d6yr5
p15
I1
sVdny93r6
p16
I1
sVd0n4iae
p17
I2
sVdag1wfx
p18
I1
sVd921ceq
p19
I1
sVdr0oxdr
p20
I21
sVd9dldp0
p21
I1
sVdcl9rx4
p22
I1
sVczhgi8c
p23
I1
sVdhr4ury
p24
I1
sVd9bfcgc
p25
I2
sVd9coicp
p26
I1
sVd7qf4zh
p27
I1
sVdaq88em
p28
I1
sVdara77k
p29
I4
sVd16p6qv
p30
I1
sVd2gv946
p31
I1
sVd20daoa
p32
I3
sVdqqxsmz
p33
I1
sVdf1w5oy
p34
I1
sVdblk345
p35
I1
sVd3ov6yq
p36
I1
sVd0wrmap
p37
I1
sVd5z5ypx
p38
I1
sVd83aqlu
p39
I1
sVd0s3vx4
p40
I1
sVddpxqdq
p41
I1
sVdhxmpa2
p42
I1
sVdjc9gk1
p43
I3
sVd4l58ba
p44
I2
sVdin66aq
p45
I1
sVd1kg7zn
p46
I1
sVdp7ux14
p47
I1
sVdggxln5
p48
I2
sVd9mingc
p49
I2
sVdcw1v2a
p50
I3
sVdr7wnkn
p51
I1
sVcywnrfk
p52
I1
sVd12ycac
p53
I1
sVd6mufxh
p54
I1
sVcynhkjv
p55
I1
sVdphdwxg
p56
I1
sVdbhoisc
p57
I1
sVdge0bvv
p58
I2
sVd9n0xg3
p59
I1
sVdekwdrw
p60
I1
sVd70ac8w
p61
I1
sVd135p02
p62
I3
sVdi03kmt
p63
I1
sVd21ihxe
p64
I1
sVdd30bgf
p65
I1
sVd0du9es
p66
I1
sVd1oa06a
p67
I3
sVdenyiah
p68
I1
sVdbx744s
p69
I1
sVd8vwrs7
p70
I1
sVdko53ji
p71
I1
sVde7766z
p72
I2
sVcynazj5
p73
I3
sVcyndbuf
p74
I2
sVda1gjyr
p75
I1
sVd2fsmex
p76
I1
sVda93nnm
p77
I1
sVdsqqjf6
p78
I1
sVdkm3mnf
p79
I1
sVd4a3v31
p80
I1
sVdh6hrns
p81
I1
sVdk5w1m4
p82
I1
sVdig05lq
p83
I1
sVd18ceag
p84
I1
sVd7dds6r
p85
I1
sVd1jpnhe
p86
I1
sVdez87va
p87
I1
sVdb094bs
p88
I1
sVdd3qj6b
p89
I1
sVd8qmyjt
p90
I1
sVd2xsunf
p91
I2
sVddwexk3
p92
I1
sVdpcg9st
p93
I1
sVcz95blo
p94
I1
sVd5x77ia
p95
I1
sVdav1zp6
p96
I1
sVdarkqv5
p97
I1
sVd048guh
p98
I1
sVd0butva
p99
I1
sVd3tej1o
p100
I1
sVd528shi
p101
I1
sVd4lnt0x
p102
I2
sVcyuwaq7
p103
I1
sVd3y3cni
p104
I1
sVdgijz9c
p105
I2
sVd3brm9y
p106
I4
sVddad07q
p107
I1
sVdc6rxh2
p108
I1
sVczagskh
p109
I1
sVdi68qfb
p110
I3
sVdksoqod
p111
I5
sVd7k8yvw
p112
I1
sVd06raxm
p113
I1
sVdnkfc4m
p114
I1
sVdenkzl6
p115
I1
sVd0lye76
p116
I1
sVdjd904r
p117
I1
sVdk0dnm6
p118
I1
sVd79rk24
p119
I1
sVd0qy8mx
p120
I1
sVdaiqncj
p121
I1
sVd5g5eym
p122
I1
sVcyl67om
p123
I1
sVdh3d3hx
p124
I1
sVd1lxpg4
p125
I1
sVd7esbrx
p126
I2
sVcyx2mit
p127
I1
sVdjwul44
p128
I2
sVdetmjzm
p129
I1
sVds7p2rh
p130
I2
sVdcgf4kr
p131
I1
sVdjhk1s0
p132
I1
sVdix8b6k
p133
I2
sVdeqdgnv
p134
I1
sVd3eaqmn
p135
I3
sVcyoxmfu
p136
I1
sVd56jbvo
p137
I1
sVdrt0v18
p138
I1
sVcynsale
p139
I1
sVdioeerx
p140
I2
sVcym3j7u
p141
I1
sVdtftdk9
p142
I3
sVcymgmk3
p143
I2
sVdkqcxc0
p144
I1
sVd4gm8df
p145
I3
sVdih4ot1
p146
I2
sVdq2usry
p147
I1
sVdjwf7mo
p148
I1
sVcys49rf
p149
I1
sVczqgj5x
p150
I2
sVdozemuu
p151
I1
sVd67m12b
p152
I1
sVdouxab5
p153
I1
sVd8701rm
p154
I1
sVdehgsno
p155
I1
sVd2c1uyg
p156
I2
sVdsfghzq
p157
I2
sVdheutcq
p158
I3
sVd7vv68u
p159
I1
sVdjg6uss
p160
I3
sVd7km71f
p161
I1
sVd12gfuk
p162
I1
sVdj8lpx2
p163
I1
sVdgua9sh
p164
I1
sVdacerom
p165
I1
sVdnl2rkt
p166
I1
sVczs05nr
p167
I1
sVdkkryst
p168
I1
sVd7xks1d
p169
I2
sVd9y4gsn
p170
I1
sVddt5y3n
p171
I1
sVd2ezz6g
p172
I1
sVd1kxyvv
p173
I2
sVdi4h2mv
p174
I1
sVd6rlmb6
p175
I1
sVdr0wn9l
p176
I2
sVd9yq8gt
p177
I1
sVdproh6z
p178
I1
sVdbeu833
p179
I1
sVcyibra6
p180
I1
sVd39z93a
p181
I1
sVd21vz2k
p182
I6
sVdb7kz0j
p183
I1
sVddq9lc4
p184
I1
sVdh6sk2j
p185
I1
sVdgfjsv5
p186
I1
sVd5xv4b6
p187
I1
sVdj278lq
p188
I1
sVdaag633
p189
I1
sVdi8wjc0
p190
I2
sVdep6u8o
p191
I1
sVd2idcyz
p192
I1
sVdggjj9k
p193
I1
sVd5bfmha
p194
I4
sVdfnebw2
p195
I1
sVdfex7pl
p196
I2
sVczi463h
p197
I1
sVdehrwtz
p198
I2
sVdnfk83v
p199
I1
sVdmzr6oe
p200
I1
sVcz32x4x
p201
I1
sVd3svonz
p202
I1
sVdg4952y
p203
I3
sVdskh2d8
p204
I1
sVd9d5scz
p205
I5
sVd8bzid3
p206
I1
sVd7z9hjs
p207
I1
sVdnhbbuf
p208
I1
sVdfoftbl
p209
I2
sVdn7ivjn
p210
I1
sVda2oin8
p211
I2
sVdd1s5ul
p212
I1
sVd35epfm
p213
I1
sVdff2d0t
p214
I1
sVdofz824
p215
I1
sVd8orxdg
p216
I3
sVdd40bxd
p217
I2
sVdkt162x
p218
I1
sVd8j36ld
p219
I2
sVdevylcc
p220
I1
sVd2zudb3
p221
I1
sVdmjeycw
p222
I1
sVd1ixbbp
p223
I4
sVd68677t
p224
I1
sVdg2nbar
p225
I1
sVdffh1om
p226
I1
sVdhm8k7z
p227
I1
sVdb8k73w
p228
I1
sVds0077e
p229
I4
sVdpoqzph
p230
I2
sVd3heslw
p231
I1
sVddplrff
p232
I1
sVdb9l6am
p233
I2
sVdh9vzsa
p234
I1
sVdb06ehl
p235
I2
sVdem2cmp
p236
I2
sVd1eac1b
p237
I1
sVdhvc3qo
p238
I1
sVd4ezomy
p239
I1
sVcznvopc
p240
I1
sVd9d2z8g
p241
I1
sVczb0fia
p242
I1
sVd6dac44
p243
I1
sVdi7n0ue
p244
I2
sVdf64dd5
p245
I1
sVd0lfywr
p246
I1
sVdp4uvvc
p247
I3
sVddbglvp
p248
I3
sVd81jt0y
p249
I1
sVdb86zgz
p250
I2
sVdeegl8t
p251
I1
sVd9c5sju
p252
I3
sVdfs1o9w
p253
I1
sVd1271jo
p254
I2
sVdp9wlma
p255
I2
sVczv1i7h
p256
I3
sVczml96h
p257
I1
sVdg4me9u
p258
I1
sVd9jues4
p259
I1
sVd9bs547
p260
I1
sVd3al7j8
p261
I1
sVdnso0fk
p262
I1
sVcyrpdeb
p263
I1
sVd6gpjsq
p264
I1
sVd2hp530
p265
I1
sVd78acyz
p266
I1
sVdcpk1kb
p267
I1
sVd9pj75p
p268
I1
sVdnspjex
p269
I2
sVd7m9pcg
p270
I1
sVd01fhfn
p271
I1
sVdtaqx5h
p272
I1
sVdccb6s5
p273
I4
sVd2ozvmo
p274
I1
sVd3zxqfp
p275
I1
sVd07xi6s
p276
I1
sVdfhwpf8
p277
I1
sVderjmxv
p278
I1
sVd135tw8
p279
I1
sVdk3miwd
p280
I1
sVdepjvxt
p281
I2
sVd81cosl
p282
I1
sVd4n1czm
p283
I2
sVd47o650
p284
I1
sVdgk9phn
p285
I1
sVdd5vxg3
p286
I3
sVd62xq0m
p287
I1
sVddgot2w
p288
I2
sVdgnnhc4
p289
I3
sVdra7ofs
p290
I1
sVczc1wvw
p291
I1
sVczoqeic
p292
I1
sVdc42nwq
p293
I2
sVd8eohg1
p294
I1
sVdn40kxf
p295
I1
sVdhvbbbr
p296
I1
sVdhu9rc6
p297
I2
sVd90pk1u
p298
I1
sVdnm421z
p299
I2
sVdti6mzf
p300
I1
sVd81aefo
p301
I1
sVd93asa4
p302
I1
sVd25j3fz
p303
I1
sVdkjz0dj
p304
I1
sVdc4gu5x
p305
I1
sVdaccyka
p306
I1
sVd9hi7x5
p307
I2
sVcz57eb7
p308
I1
sVdelbngj
p309
I1
sVdd4ym81
p310
I1
sVdhueo3f
p311
I2
sVcyojfi0
p312
I5
sVd6cmmmg
p313
I1
sVda6v4fx
p314
I1
sVd8nlbt6
p315
I1
sVcylkbmu
p316
I1
sVd5z2pd3
p317
I2
sVd0ddzn6
p318
I2
sVdaxld87
p319
I1
sVd65t2sc
p320
I1
sVdioeflh
p321
I1
sVdr53aza
p322
I2
sVcyibkov
p323
I1
sVcz47ubm
p324
I1
sVde81w8f
p325
I1
sVdsoc7pm
p326
I1
sVd3zgecz
p327
I1
sVd0wri3c
p328
I1
sVd10fxpc
p329
I1
sVczcuee3
p330
I1
sVdadq5sj
p331
I1
sVdi1w9ex
p332
I1
sVdcmm51u
p333
I1
sVdi49l54
p334
I1
sVdca5or8
p335
I1
sVd9ch1pk
p336
I6
sVdnaek9j
p337
I1
sVdda7bwo
p338
I3
sVdb207a7
p339
I1
sVd8ozy7n
p340
I1
sVdbuzdbi
p341
I1
sVdjnc1y6
p342
I1
sVdgzahmi
p343
I1
sVdcd6bvn
p344
I1
sVdb8ug82
p345
I1
sVd4t5x3e
p346
I1
sVd03gqye
p347
I1
sVdaqkbxo
p348
I1
sVd5mkrbw
p349
I1
sVdgi7srs
p350
I1
sVdgun77u
p351
I1
sVdpucbds
p352
I1
sVd43lp72
p353
I1
sVda4bmt2
p354
I1
sVd65t6i6
p355
I1
sVdisis0o
p356
I1
sVdimktbh
p357
I5
sVdbh2it9
p358
I1
sVd3k5ljw
p359
I1
sVdaw00ul
p360
I1
sVdcn6bdi
p361
I1
sVdq70b9b
p362
I1
sVd1dnvrj
p363
I1
sVd20zway
p364
I1
sVdthbgvw
p365
I1
sVdjvzh6r
p366
I1
sVdn8w7o9
p367
I1
sVd0t72pn
p368
I1
sVdkd2v28
p369
I2
sVd16bs32
p370
I1
sVdbklqaf
p371
I1
sVd0dvc9y
p372
I2
sVczy98d1
p373
I1
sVd7hy4ts
p374
I1
sVdq4o1sm
p375
I1
sVdh15zpm
p376
I2
sVdpozskq
p377
I1
sVd0oxd53
p378
I1
sVd26ur8b
p379
I1
sVczktzhf
p380
I1
sVd359whm
p381
I1
sVdh9q2p8
p382
I1
sVdtgqksl
p383
I2
sVddjuezd
p384
I1
sVdiwf2j2
p385
I1
sVczqmxnk
p386
I1
sVd5yrb20
p387
I2
sVdb3mlzg
p388
I1
sVddnho6i
p389
I1
sVdbsias7
p390
I4
sVdkhe0rd
p391
I2
sVd70dt0h
p392
I1
sVdeauigl
p393
I1
sVd3eumak
p394
I1
sVdb1g0g8
p395
I1
sVczo3czv
p396
I2
sVdf72j5g
p397
I3
sVd48s0t9
p398
I4
sVdb92zf6
p399
I2
sVda2nx1o
p400
I1
sVdevf04y
p401
I1
sVd2gdpbp
p402
I1
sVd5ztsjr
p403
I1
sVdqaya0y
p404
I1
sVdd7pxvw
p405
I1
sVd5tdtw1
p406
I1
sVdigbp8k
p407
I1
sVd4xhyy2
p408
I2
sVczacf6b
p409
I1
sVdgtjxyn
p410
I2
sVcyuxqv7
p411
I1
sVdr0rma4
p412
I7
sVd3lfba0
p413
I1
sVdetsvg8
p414
I2
sVd639urr
p415
I1
sVdbrj36l
p416
I1
sVdcaxult
p417
I1
sVdgq6ilp
p418
I1
sVdmj3mxp
p419
I1
sVdsig9d7
p420
I4
sVdbdb5zx
p421
I1
sVd0hb4p8
p422
I2
sVcyxzicf
p423
I1
sVdpc9572
p424
I2
sVdin8tbm
p425
I3
sVdac30t1
p426
I1
sVcysi3t0
p427
I1
sVd87lh65
p428
I1
sVd24fwdd
p429
I1
sVdhwy33h
p430
I2
sVdau88pq
p431
I2
sVd96obki
p432
I1
sVdk4dhfe
p433
I1
sVdpj6l88
p434
I1
sVd8noqnf
p435
I4
sVczg35uy
p436
I1
sVdbk3322
p437
I1
sVdsfee94
p438
I1
sVdfl7osd
p439
I1
sVcyl953l
p440
I1
sVd0jcskc
p441
I1
sVdf24ltz
p442
I2
sVd964op5
p443
I2
sVdhoviol
p444
I2
sVd7kauuc
p445
I3
sVd17ve5s
p446
I1
sVd6v4a4o
p447
I1
sVd5pt453
p448
I1
sVd7vwb46
p449
I3
sVdf0szdx
p450
I1
sVcz5bkbg
p451
I1
sVdinsgv4
p452
I1
sVdgnyy3r
p453
I1
sVd85e2fz
p454
I1
sVd2w6u9o
p455
I1
sVd24ztbg
p456
I1
sVdpuin9q
p457
I1
sVd11s7tc
p458
I1
sVdbpj8oq
p459
I4
sVd7ypddg
p460
I1
sVd1zp5dj
p461
I2
sVd1x6sbh
p462
I1
sVdfxc7lv
p463
I1
sVd71qnke
p464
I1
sVczr1191
p465
I1
sVdeffbz0
p466
I1
sVdf3l0v4
p467
I2
sVdg6khhh
p468
I1
sVczhqdly
p469
I2
sVdovpq32
p470
I3
sVd3382j7
p471
I1
sVdflclis
p472
I2
sVdii6oyq
p473
I1
sVd6rzgyu
p474
I2
sVd5n8xh0
p475
I1
sVdtii8bp
p476
I1
sVdnspwlm
p477
I1
sVd1zwjnj
p478
I1
sVdfnnbum
p479
I1
sVd24dl7x
p480
I1
sVdh642pz
p481
I1
sVds04o61
p482
I5
sVdex17yx
p483
I1
sVcymx0nz
p484
I1
sVd38nz5j
p485
I1
sVd6teshg
p486
I1
sVd0m4x7t
p487
I1
sVd39cyal
p488
I1
sVd6gdesk
p489
I1
sVdkk7ov3
p490
I1
sVcypmm3b
p491
I1
sVczy2xvw
p492
I1
sVdf92g1z
p493
I1
sVczgyosm
p494
I1
sVd9zp1q6
p495
I1
sVdt4htf7
p496
I1
sVd2g695y
p497
I1
sVdk2wlts
p498
I1
sVdiapjtz
p499
I1
sVde3z0ov
p500
I1
sVd20s68q
p501
I1
sVd2v9qq6
p502
I1
sVdeph549
p503
I8
sVdr0euyw
p504
I1
sVd84sue2
p505
I1
sVdjzcuws
p506
I1
sVdbsjts5
p507
I2
sVdcwllph
p508
I1
sVd6dpwry
p509
I2
sVdkdhiz9
p510
I2
sVddleyw8
p511
I1
sVd9rgi34
p512
I1
sVdha2ua7
p513
I1
sVda7hj9k
p514
I1
sVdj0pyf0
p515
I1
sVczardpy
p516
I1
sVcz2rl7j
p517
I2
sVdeza3jr
p518
I1
sVdfjjv6g
p519
I1
sVd778afi
p520
I1
sVdbeizwy
p521
I3
sVd0xzc2i
p522
I1
sVda50c1g
p523
I1
sVdhdkc38
p524
I1
sVde78d94
p525
I1
sVdk0dahu
p526
I1
sVds3n87q
p527
I1
sVdadpkyb
p528
I3
sVdeuebkz
p529
I1
sVdcjsysc
p530
I1
sVdhrtsjg
p531
I3
sVd6tb12u
p532
I1
sVczyqo9y
p533
I2
sVdjaxr1r
p534
I1
sVd64ezku
p535
I1
sVd8qp27k
p536
I1
sVcznelah
p537
I3
sVds0clem
p538
I1
sVdmtusfm
p539
I2
sVdaawn6p
p540
I1
sVdmjvvox
p541
I1
sVd0l13le
p542
I1
sVdgnioih
p543
I1
sVd3bk537
p544
I1
sVdkyycnx
p545
I2
sVdahwxej
p546
I1
sVd3yijfg
p547
I1
sVdo7zacz
p548
I4
sVd19d0im
p549
I2
sVdruqpf8
p550
I1
sVcz426fw
p551
I2
sVdabeuli
p552
I1
sVd0v8c84
p553
I1
sVddr8aze
p554
I1
sVczn8hpl
p555
I1
sVdonrysl
p556
I2
sVdr8zsv6
p557
I3
sVdkp33y1
p558
I2
sVdnebgfx
p559
I1
sVde5zwr1
p560
I1
sVdr6jzq2
p561
I2
sVd5hwnnh
p562
I1
sVdbkguaa
p563
I1
sVd01y1c3
p564
I1
sVczzo12y
p565
I1
sVd0qxs2i
p566
I2
sVdr2a6ua
p567
I1
sVd96w407
p568
I1
sVdfebi76
p569
I4
sVdbzvv16
p570
I1
sVdstvs6g
p571
I1
sVda2qh46
p572
I1
sVdhrtttc
p573
I1
sVd3mnho1
p574
I1
sVcz6p4ci
p575
I1
sVd9rgb06
p576
I3
sVd9py21b
p577
I2
sVcypz2xu
p578
I1
sVd3xgat3
p579
I1
sVd81sl43
p580
I1
sVd7qkgs0
p581
I1
sVcylyn8u
p582
I1
sVd9lm0gr
p583
I1
sVd2otpq1
p584
I1
sVd41b51r
p585
I1
sVd580ztj
p586
I1
sVdqj20wu
p587
I1
sVd89u03p
p588
I1
sVdcw3a1s
p589
I1
sVd9d1vtf
p590
I1
sVd5lygi2
p591
I1
sVd4vyx1w
p592
I1
sVdcail3f
p593
I1
sVde8iqcb
p594
I1
sVddgkr4q
p595
I1
sVd0pwx41
p596
I1
sVdc9kfb8
p597
I2
sVdcmedqh
p598
I1
sVdsg6l01
p599
I1
sVd9eh38m
p600
I1
sVd2u6c0s
p601
I1
sVd0kf8yh
p602
I2
sVcymjean
p603
I1
sVd24budc
p604
I2
sVd174whl
p605
I1
sVd4up84o
p606
I1
sVdall1wj
p607
I1
sVdb539g4
p608
I1
sVcz0mwf6
p609
I1
sVdi8fuw5
p610
I4
sVdalzt7s
p611
I1
sVde2oiwj
p612
I1
sVdgjm8kz
p613
I3
sVcz0jt22
p614
I1
sVd12niow
p615
I2
sVdf7i3u2
p616
I2
sVd8p8che
p617
I8
sVdkjg04k
p618
I1
sVcyp3f1d
p619
I1
sVdrgs9fd
p620
I1
sVd6rs29o
p621
I6
sVdbu7ur4
p622
I2
sVd7vw47o
p623
I2
sVd902f6p
p624
I1
sVd8hbb8x
p625
I3
sVdcmym7x
p626
I2
sVdiizon3
p627
I1
sVd22h2oo
p628
I1
sVcz0prbc
p629
I1
sVdi0wa1u
p630
I3
sVdd8y409
p631
I1
sVdiyd9c8
p632
I1
sVdghf2v1
p633
I1
sVdjbd40y
p634
I1
sVd0ojru9
p635
I1
sVdazihpy
p636
I1
sVcz8aqv3
p637
I1
sVdkroshg
p638
I1
sVdk7wd5g
p639
I3
sVd8hewn8
p640
I1
sVdk3i2m8
p641
I4
sVd566d4p
p642
I1
sVdfoeo8l
p643
I1
sVd10cf63
p644
I1
sVd1l7xwg
p645
I2
sVdkpxvjb
p646
I2
sVd7dajt6
p647
I1
sVdjwmt1g
p648
I1
sVdgo45ii
p649
I1
sVd5ya4o8
p650
I1
sVd872qd6
p651
I1
sVczinktt
p652
I1
sVdflrysb
p653
I1
sVdgeha68
p654
I1
sVdr0l0jz
p655
I2
sVdi0w5ge
p656
I1
sVdhnc0jv
p657
I1
sVdgq9e6t
p658
I2
sVddfqnyc
p659
I1
sVdaaw0f2
p660
I2
sVdsjl479
p661
I1
sVdad6hu6
p662
I1
sVdrbvn3x
p663
I2
sVd8932yf
p664
I1
sVdc70j3o
p665
I1
sVd5tuj9h
p666
I1
sVdaqs3iy
p667
I2
sVczhfs2c
p668
I1
sVd85us5z
p669
I1
sVdsg3zig
p670
I1
sVd1qqw0r
p671
I2
sVd0tidtr
p672
I1
sVcz3rjgq
p673
I1
sVdh86qb4
p674
I1
sVdben4hn
p675
I1
sVdngyt1o
p676
I1
sVd5j1eee
p677
I2
sVdhoxk9c
p678
I1
sVdrm33ak
p679
I1
sVdgdlr8c
p680
I1
sVd19hpkv
p681
I1
sVcz9wek8
p682
I1
sVd046f3e
p683
I1
sVd3q4c9f
p684
I2
sVdmvskuk
p685
I2
sVdavcch1
p686
I1
sVcztzb92
p687
I2
sVddrig56
p688
I1
sVdkzm9b5
p689
I1
sVcyn09k7
p690
I1
sVd4uimp4
p691
I1
sVd6eunp8
p692
I1
sVdgsq80o
p693
I1
sVd3rspeg
p694
I1
sVda9jja8
p695
I1
sVdonc7hv
p696
I6
sVcza4b5w
p697
I1
sVddc2f7q
p698
I2
sVczpnlcp
p699
I1
sVdf3kuit
p700
I1
sVd2fk35d
p701
I3
sVd43ezme
p702
I4
sVdi521kj
p703
I1
sVcz47e9w
p704
I2
sVddt840q
p705
I1
sVd0pulqc
p706
I1
sVdnes9y4
p707
I1
sVd4052oh
p708
I1
sVdhp04h5
p709
I2
sVd99fy9s
p710
I1
sVddneox2
p711
I1
sVda8dy1n
p712
I1
sVd4erzhm
p713
I1
sVd2f6fu8
p714
I2
sVd966cyy
p715
I1
sVczhas2t
p716
I1
sVdtd1mpp
p717
I1
sVd1q8r9q
p718
I3
sVd89o3ky
p719
I1
sVd0mrdg0
p720
I1
sVdh6we0c
p721
I1
sVdcezjjz
p722
I1
sVde0u38n
p723
I5
sVcz2v1xf
p724
I1
sVd7h456b
p725
I1
sVdp4weh6
p726
I1
sVcz6n6q1
p727
I1
sVdfexjdq
p728
I2
sVd5txp16
p729
I1
sVdq3t9z0
p730
I1
sVd9vqbw6
p731
I2
sVdmp56jj
p732
I1
sVdqfhokw
p733
I1
sVd4onc53
p734
I1
sVd9amdka
p735
I1
sVdhwaqfw
p736
I1
sVd1t8gc8
p737
I1
sVd4f2g03
p738
I1
sVd77tg93
p739
I1
sVdejatzt
p740
I1
sVd4latpt
p741
I2
sVdrctohc
p742
I2
sVd1nplai
p743
I1
sVdfxrzxn
p744
I2
sVcyypgtf
p745
I1
sVd2ahmj9
p746
I1
sVd0kz8uh
p747
I1
sVd04489b
p748
I1
sVd4qk82r
p749
I1
sVdks4lwc
p750
I1
sVda2gyue
p751
I1
sVdgylut8
p752
I1
sVddz4tvx
p753
I1
sVdfrht1c
p754
I1
sVdkeikbi
p755
I1
sVdh699cu
p756
I1
sVdjf7sw6
p757
I1
sVdpws1q0
p758
I1
sVd4rhboo
p759
I2
sVd58owrv
p760
I1
sVd7dxyoq
p761
I1
sVdmr8152
p762
I1
sVdco6id1
p763
I1
sVd39y9nm
p764
I1
sVd4ia3fs
p765
I1
sVdi2lw1r
p766
I3
sVd141xav
p767
I1
sVd62wur6
p768
I1
sVd0x3q8o
p769
I3
sVdkqu3sq
p770
I3
sVdmrdnd0
p771
I1
sVd2jr2ya
p772
I1
sVczi0exh
p773
I1
sVdeyr3ud
p774
I1
sVdih3rhq
p775
I1
sVcze3jhw
p776
I1
sVdemm0z3
p777
I1
sVd7rv2f8
p778
I1
sVdqgkgwc
p779
I1
sVd7itq0f
p780
I1
sVcz93m20
p781
I1
sVds3mz50
p782
I1
sVcyi1chj
p783
I1
sVdr98yfm
p784
I1
sVdipjux9
p785
I1
sVd5zj3t4
p786
I1
sVdcsd9qg
p787
I1
sVd0y40ss
p788
I1
sVd84k7k3
p789
I1
sVd9dmij2
p790
I2
sVdb18rg0
p791
I3
sVd6omp0i
p792
I1
sVdhs85e3
p793
I1
sVd2a9iub
p794
I1
sVdtdh5dz
p795
I1
sVdtjk0m7
p796
I1
sVd6cthqz
p797
I1
sVd1qxxdg
p798
I3
sVdc3yxqb
p799
I1
sVdba126q
p800
I2
sVdbvhd4z
p801
I2
sVd0tze3y
p802
I1
sVd0okure
p803
I1
sVda7yowi
p804
I1
sVd94nll9
p805
I5
sVd03l3sc
p806
I2
sVdjllniv
p807
I1
sVdgmbvz2
p808
I1
sVczuq1hy
p809
I1
sVdgooya7
p810
I1
sVdr0srvf
p811
I6
sVdsay4ho
p812
I4
sVdf1ya43
p813
I1
sVczr2wml
p814
I1
sVdh9dnbg
p815
I1
sVd4ltdc0
p816
I1
sVd7n2q6b
p817
I1
sVd330kf8
p818
I1
sVdip1ej9
p819
I2
sVd1r4zft
p820
I2
sVdcgeo2r
p821
I1
sVddzwzem
p822
I1
sVczrkvt0
p823
I1
sVddzz1cv
p824
I2
sVd05nee8
p825
I3
sVd4jz7d7
p826
I1
sVdr0i32n
p827
I1
sVdofdh1e
p828
I1
sVd31maj5
p829
I1
sVd8dso3c
p830
I1
sVdhb66ye
p831
I1
sVdcfymzh
p832
I1
sVdtd6cl4
p833
I2
sVd7gys1i
p834
I2
sVdfwemtn
p835
I1
sVdcel4yy
p836
I1
sVddob5il
p837
I1
sVda2xiv3
p838
I1
sVd841tjk
p839
I1
sVd0hqtgq
p840
I1
sVd4prott
p841
I1
sVd7fvwi6
p842
I1
sVdioyxkh
p843
I1
sVd3ziamj
p844
I1
sVddzamb3
p845
I1
sVdmwlxj1
p846
I1
sVd87xrz7
p847
I1
sVdg52w0w
p848
I1
sVd1q0ezx
p849
I1
sVdmr8z9o
p850
I1
sVdikmdk1
p851
I1
sVd7neihl
p852
I1
sVdcf2ujf
p853
I1
sVdgk301w
p854
I2
sVd6n2gg6
p855
I1
sVdakkprx
p856
I1
sVdhrmpft
p857
I1
sVdovq0mf
p858
I1
sVdebyi5j
p859
I1
sVd643lzq
p860
I3
sVddy9dmf
p861
I1
sVdk32b6c
p862
I1
sVcykfshb
p863
I1
sVczwz6rz
p864
I1
sVd14vjc7
p865
I1
sVd0n99h0
p866
I1
sVd2ergrg
p867
I1
sVdj0m6p5
p868
I7
sVdcmgat8
p869
I1
sVd1xaaka
p870
I1
sVd14yynt
p871
I1
sVdmsixnp
p872
I1
sVdah1x1v
p873
I1
sVdbybyuh
p874
I4
sVdeph96o
p875
I1
sVdp2k7u7
p876
I1
sVd55c5na
p877
I1
sVde130iv
p878
I1
sVdgsllgs
p879
I1
sVd0qblig
p880
I1
sVdcff3hs
p881
I2
sVd5g7y58
p882
I4
sVd4m7wl6
p883
I1
sVdi4g2jj
p884
I1
sVdi0v68t
p885
I1
sVd8vgm7o
p886
I1
sVd01s4t3
p887
I1
sVcyogafo
p888
I2
sVdd8bm56
p889
I1
sVd40482h
p890
I1
sVda6vssj
p891
I5
sVdebbxf8
p892
I1
sVczveafu
p893
I1
sVdj735dk
p894
I2
sVdeevux1
p895
I1
sVdryo3lq
p896
I4
sVd2zqj7o
p897
I1
sVd7q7s3i
p898
I1
sVd15fudi
p899
I1
sVd3y3bgi
p900
I3
sVd6svuao
p901
I1
sVczdby0c
p902
I1
sVd6gdyuw
p903
I2
sVczienvl
p904
I1
sVd5b1zhn
p905
I1
sVdgg59da
p906
I1
sVdh6bct5
p907
I1
sVdeeo5pd
p908
I1
sVda4kkf8
p909
I1
sVdn6gr49
p910
I1
sVdfhxkgo
p911
I1
sVd5043sc
p912
I1
sVdifg0zq
p913
I1
sVd9fvdpj
p914
I1
sVcymynqy
p915
I3
sVd0n7ngg
p916
I1
sVd90k8dp
p917
I1
sVd91a5ce
p918
I1
sVdjg1cgo
p919
I3
sVd0g0jc6
p920
I1
sVd5wzha1
p921
I1
sVcyojc56
p922
I3
sVdikg4su
p923
I1
sVdfysbwz
p924
I1
sVd3aemxh
p925
I1
sVdb073in
p926
I1
sVdpozdks
p927
I2
sVdghs3px
p928
I3
sVdhz7arq
p929
I1
sVdcx3bw8
p930
I1
sVczqrmr4
p931
I1
sVdmujnn0
p932
I1
sVdeq2cmt
p933
I1
sVdg7ehki
p934
I1
sVd5rhh7d
p935
I1
sVd4ff3xu
p936
I2
sVcznxi7f
p937
I1
sVd4bvfbh
p938
I1
sVcyun0qr
p939
I1
sVcyy7zz6
p940
I1
sVd0qkem7
p941
I1
sVcz6xpel
p942
I1
sVdepncf7
p943
I2
sVdfky9ff
p944
I1
sVd593ylt
p945
I2
sVdkudys9
p946
I1
sVd2t30rq
p947
I1
sVd2kx81t
p948
I1
sVdq73lew
p949
I1
sVd6ofvto
p950
I1
sVdp9k512
p951
I1
sVd4jzv7v
p952
I1
sVd7cpkvs
p953
I1
sVd8u1kis
p954
I1
sVdc17smx
p955
I1
sVdog4tfo
p956
I1
sVd2pyzg2
p957
I1
sVd30wixp
p958
I1
sVdgpxi2v
p959
I1
sVd15wfkj
p960
I1
sVde15cpv
p961
I1
sVdj4u4hs
p962
I1
sVd1d0lye
p963
I2
sVd9c2leb
p964
I3
sVdqjka7d
p965
I1
sVdmifd9l
p966
I1
sVd9wbssv
p967
I2
sVdt9d7ez
p968
I2
sVd0v8cp6
p969
I1
sVdjaz3uf
p970
I1
sVdccxzyr
p971
I1
sVdc8x0f8
p972
I1
sVdgakwky
p973
I1
sVd1w1ndx
p974
I1
sVd66baxo
p975
I1
sVdrbr27i
p976
I1
sVd3hpcy2
p977
I1
sVd14y7q9
p978
I1
sVderdwv1
p979
I2
sVdda65nb
p980
I1
sVdh1qxwi
p981
I1
sVdbmvcne
p982
I1
sVddpzd01
p983
I2
sVd6aegss
p984
I1
sVcz3kzyr
p985
I1
sVd4trkn0
p986
I1
sVddf19gs
p987
I1
sVd4zw6gs
p988
I1
sVd10qoqr
p989
I1
sVd3e823f
p990
I1
sVd1e69sn
p991
I1
sVd5kq73x
p992
I1
sVde849oc
p993
I3
sVd97ie08
p994
I1
sVcz6ant2
p995
I1
sVdh6m7if
p996
I1
sVdpkh4lr
p997
I1
sVd55qin1
p998
I1
sVdd3ipay
p999
I1
sVde48kj3
p1000
I3
sVcyub4ba
p1001
I1
sVczfcco3
p1002
I1
sVdfakm5v
p1003
I1
sVdq1pmie
p1004
I3
sVdryuvsb
p1005
I2
sVdkx4k0k
p1006
I2
sVdcpds3e
p1007
I1
sVdn19ogg
p1008
I2
sVdebqkuo
p1009
I1
sVd2bhhg2
p1010
I1
sVdkv4lvx
p1011
I1
sVd48wxy6
p1012
I2
sVdga9379
p1013
I1
sVdnfpvco
p1014
I1
sVd1exuc2
p1015
I1
sVdqufy5m
p1016
I1
sVczia33l
p1017
I1
sVddwsjvf
p1018
I1
sVczlhqok
p1019
I2
sVczxssm3
p1020
I1
sVdnj6686
p1021
I1
sVdrkqagk
p1022
I1
sVd7jl1xb
p1023
I1
sVd7zf76k
p1024
I1
sVdggnyq8
p1025
I3
sVczm8ipo
p1026
I1
sVd1f26ov
p1027
I1
sVd05oyvf
p1028
I1
sVd6jgfoa
p1029
I1
sVcz5geiw
p1030
I1
sVdbba58m
p1031
I1
sVd17o78h
p1032
I1
sVdn3z7qa
p1033
I1
sVd0esyq9
p1034
I2
sVde0t4ez
p1035
I2
sVd3n60bj
p1036
I1
sVde3iitz
p1037
I1
sVdi7j5fo
p1038
I1
sVdf26wph
p1039
I1
sVdkqa8jz
p1040
I1
sVd6j9x78
p1041
I1
sVdi28cxj
p1042
I5
sVd6zdgvl
p1043
I1
sVd0rns1j
p1044
I1
sVdiucl7f
p1045
I1
sVczwr3wq
p1046
I1
sVd2zrf60
p1047
I1
sVd4j79l7
p1048
I2
sVd94bvgn
p1049
I1
sVd57rjpf
p1050
I1
sVdcajrea
p1051
I1
sVdmklfcg
p1052
I1
sVdgsi4ad
p1053
I1
sVdd5y7m6
p1054
I1
sVd4n20dk
p1055
I1
sVcyysq7r
p1056
I1
sVdp0a69k
p1057
I1
sVd03fddj
p1058
I1
sVdca6bjp
p1059
I1
sVdg68wun
p1060
I2
sVcz7gh3d
p1061
I1
sVdk3hqe5
p1062
I1
sVdj0o316
p1063
I1
sVcyydlw5
p1064
I1
sVdnxdf3e
p1065
I1
sVdrtjatb
p1066
I1
sVdtdh1h4
p1067
I2
sVdhyabjp
p1068
I2
sVcyhykpc
p1069
I1
sVda4uhik
p1070
I1
sVdp3vks5
p1071
I1
sVdq8fldl
p1072
I1
sVd0tl8of
p1073
I1
sVde8hpxv
p1074
I1
sVdnenkac
p1075
I1
sVdczktij
p1076
I1
sVdh1c4gm
p1077
I1
sVdb7wwa3
p1078
I1
sVdeyljdk
p1079
I2
sVd3y3eez
p1080
I1
sVd0qleg2
p1081
I1
sVdnnbcq8
p1082
I1
sVd2qw27s
p1083
I1
sVdgpbgm7
p1084
I1
sVdo8m9qt
p1085
I1
sVdfweahh
p1086
I1
sVd8zape8
p1087
I1
sVdoqbxvm
p1088
I1
sVdnd2c2b
p1089
I1
sVdjazymd
p1090
I1
sVdak7xk8
p1091
I2
sVde4i7du
p1092
I1
sVdix7zl0
p1093
I5
sVde5qsyr
p1094
I5
sVdn2r6kl
p1095
I1
sVd81fvjo
p1096
I1
sVd9h6d3s
p1097
I1
sVd0a5l33
p1098
I1
sVd9g4uga
p1099
I2
sVdc9yvvo
p1100
I2
sVd97c9c7
p1101
I1
sVd9yynoc
p1102
I1
sVd41516i
p1103
I1
sVdbfv0ut
p1104
I1
sVd17skym
p1105
I1
sVddi1faj
p1106
I1
sVdawfnz7
p1107
I1
sVd2519sp
p1108
I1
sVd6qsikm
p1109
I4
sVdpym6pr
p1110
I1
sVcyn55mp
p1111
I1
sVdc7m6pq
p1112
I1
sVdg2nt17
p1113
I1
sVcz9908k
p1114
I1
sVdiyujn6
p1115
I2
sVddw72d3
p1116
I3
sVda6rvzr
p1117
I1
sVd226k9u
p1118
I3
sVdnqqdhx
p1119
I1
sVdizxbnf
p1120
I3
sVd9anqe1
p1121
I1
sVder0e88
p1122
I1
sVd3r32wm
p1123
I2
sVdj3wm6c
p1124
I2
sVd12kyqd
p1125
I1
sVdmg0twh
p1126
I1
sVd08rzcj
p1127
I1
sVd62bq6d
p1128
I2
sVd41484g
p1129
I1
sVd738ua7
p1130
I1
sVd5gf6f0
p1131
I1
sVd116p53
p1132
I1
sVd4oudfc
p1133
I2
sVd7ll309
p1134
I1
sVd19av8m
p1135
I1
sVdf2ksvb
p1136
I1
sVdeyzb19
p1137
I5
sVd9uk07e
p1138
I1
sVdhrqoed
p1139
I1
sVdk96skf
p1140
I2
sVd38wy24
p1141
I1
sVdeogun3
p1142
I2
sVd0r3lz7
p1143
I1
sVd7mgw9g
p1144
I1
sVddj25wh
p1145
I1
sVd1ybgd7
p1146
I2
sVd1fthtr
p1147
I1
sVd0icsj3
p1148
I1
sVd6ofnug
p1149
I2
sVdinqy3y
p1150
I1
sVd4zyidz
p1151
I2
sVdf95zu9
p1152
I1
sVd7nyh1x
p1153
I2
sVdamydm6
p1154
I1
sVdebyklg
p1155
I2
sVd2hfq5h
p1156
I4
sVdkf2rnd
p1157
I1
sVdgocie1
p1158
I1
sVd8wo4pq
p1159
I1
sVd0y78y7
p1160
I1
sVcz4ajr0
p1161
I1
sVdixawc4
p1162
I1
sVd1yu5v0
p1163
I1
sVd8d96fb
p1164
I2
sVdr55jdc
p1165
I2
sVdnek2yk
p1166
I1
sVcza25j2
p1167
I1
sVdaebvg3
p1168
I1
sVdqsb3xg
p1169
I1
sVddajarp
p1170
I1
sVdeofps0
p1171
I1
sVczn9ng1
p1172
I1
sVdj5g8gn
p1173
I1
sVdboye2b
p1174
I1
sVdmshejr
p1175
I2
sVdh0u0wn
p1176
I1
sVd7vvf4x
p1177
I1
sVd3djg8m
p1178
I1
sVd9k1ssr
p1179
I1
sVd3rcxdu
p1180
I3
sVdip0h8w
p1181
I1
sVcyt7ga3
p1182
I1
sVd0gntra
p1183
I2
sVd7hyxin
p1184
I4
sVd3vn9l5
p1185
I1
sVd7k3tt3
p1186
I1
sVdjpxec9
p1187
I1
sVcyl6ad2
p1188
I1
sVczdl359
p1189
I1
sVd0zwbge
p1190
I1
sVdjw4v7f
p1191
I3
sVd1t9alv
p1192
I1
sVcz2pcq4
p1193
I1
sVcypainf
p1194
I2
sVd514nbs
p1195
I1
sVd5q7zae
p1196
I1
sVdb3fita
p1197
I1
sVdb7v7j5
p1198
I2
sVd5mn27p
p1199
I1
sVcyphtme
p1200
I1
sVcytxbb5
p1201
I1
sVdip4w0d
p1202
I3
sVd6ti6jr
p1203
I1
sVd8rgvjq
p1204
I1
sVdaniazd
p1205
I1
sVds4ai0x
p1206
I1
sVdfjgt31
p1207
I2
sVdb9as7z
p1208
I1
sVdhwy4xv
p1209
I2
sVd2qjq75
p1210
I1
sVdc62r4f
p1211
I1
sVdggvy3l
p1212
I5
sVdcujw16
p1213
I2
sVdio2dtg
p1214
I1
sVdqusnms
p1215
I2
sVdrvq4gc
p1216
I1
sVd15jx76
p1217
I1
sVdjp1pg5
p1218
I1
sVds7goig
p1219
I1
sVdonyc05
p1220
I1
sVd24q2gl
p1221
I1
sVdq365fa
p1222
I5
sVcz8un8w
p1223
I2
sVdeyxytz
p1224
I1
sVczs03hi
p1225
I1
sVdefq9oe
p1226
I2
sVdkmto5a
p1227
I1
sVd8xabph
p1228
I1
sVdr0qc3c
p1229
I2
sVdne1285
p1230
I1
sVdnhrvke
p1231
I1
sVdh0249z
p1232
I1
sVd6dk2zd
p1233
I1
sVd3vdca0
p1234
I1
sVczgsz6a
p1235
I1
sVdav7s4f
p1236
I1
sVd5evjng
p1237
I1
sVd8noo6w
p1238
I2
sVdrb7je2
p1239
I1
sVdq3oyqd
p1240
I1
sVd9ly4mt
p1241
I2
sVd7db17m
p1242
I1
sVdkqaany
p1243
I1
sVd81dg2g
p1244
I1
sVdnoddx5
p1245
I1
sVd0cio22
p1246
I2
sVdiyap5v
p1247
I3
sVczmd48m
p1248
I1
sVdmi9eo7
p1249
I1
sVdary8bp
p1250
I1
sVd5j1boh
p1251
I1
sVd1x9me2
p1252
I1
sVcz5sny7
p1253
I1
sVdf6mtg1
p1254
I1
sVdh5z0ut
p1255
I1
sVdb2o2qv
p1256
I2
sVddmpom9
p1257
I1
sVdhmx1zh
p1258
I1
sVdhe8sjp
p1259
I2
sVdjnqidc
p1260
I1
sVdth0756
p1261
I3
sVdfb5y0a
p1262
I1
sVdeuq6fs
p1263
I3
sVdc968kb
p1264
I1
sVddn7r85
p1265
I2
sVd6wknfs
p1266
I1
sVd4v1jze
p1267
I1
sVdab5f69
p1268
I1
sVd7i0l49
p1269
I2
sVd2bayq5
p1270
I4
sVdgmxngd
p1271
I1
sVd8okjek
p1272
I6
sVdj94vgn
p1273
I1
sVdierp7s
p1274
I1
sVd6jmamd
p1275
I1
sVd4mdioa
p1276
I2
sVda2nw1t
p1277
I1
sVcznkdih
p1278
I1
sVcyvvfbt
p1279
I1
sVczdmr5l
p1280
I7
sVd0oyz21
p1281
I2
sVd8eabci
p1282
I1
sVdnhkod3
p1283
I1
sVd7uim7z
p1284
I1
sVdp0txcs
p1285
I1
sVdbwidl4
p1286
I1
sVd62frz6
p1287
I4
sVczmbl0e
p1288
I1
sVdikdtrp
p1289
I2
sVd920qd9
p1290
I2
sVdbr2rw9
p1291
I1
sVd3r97ig
p1292
I1
sVdhxlpsg
p1293
I1
sVdkyg0lh
p1294
I1
sVdjzhekf
p1295
I3
sVd74pna1
p1296
I4
sVd4ef7gv
p1297
I1
sVdmticxa
p1298
I3
sVd2tf76h
p1299
I1
sVd4vrc7v
p1300
I1
sVdf3d4gc
p1301
I2
sVd687oqm
p1302
I1
sVde3bwqf
p1303
I1
sVcz2nuds
p1304
I1
sVdj8kvty
p1305
I1
sVd37cnma
p1306
I1
sVdbsvhbd
p1307
I1
sVdhun6dg
p1308
I1
sVdck5tri
p1309
I1
sVdpfkkm9
p1310
I2
sVdgj8s5n
p1311
I1
sVd8zqwq9
p1312
I1
sVd0x4pp7
p1313
I1
sVdgpsqpm
p1314
I1
sVdkro54v
p1315
I1
sVdhdvb0x
p1316
I1
sVd4067z9
p1317
I1
sVcz2uqr2
p1318
I1
sVd6vf75j
p1319
I1
sVdbimvh9
p1320
I1
sVdhajt03
p1321
I2
sVd33p86c
p1322
I3
sVdawte6r
p1323
I1
sVd45mnku
p1324
I1
sVdc9tdf9
p1325
I1
sVd0m3jms
p1326
I1
sVdb25rys
p1327
I1
sVczh2sna
p1328
I1
sVdkph2ej
p1329
I1
sVdbhcb4n
p1330
I1
sVd54e5l5
p1331
I1
sVdtcwu8e
p1332
I1
sVddspt3p
p1333
I4
sVdjkeun9
p1334
I1
sVd9vkkmz
p1335
I1
sVdgnbg5n
p1336
I2
sVdnsmya2
p1337
I1
sVczyxszu
p1338
I2
sVdcg9x1q
p1339
I1
sVdayz0j6
p1340
I5
sVd1bqik6
p1341
I1
sVd1kxfd5
p1342
I1
sVda2mxo7
p1343
I1
sVd1frum6
p1344
I1
sVd9zfkwx
p1345
I1
sVdmihz6b
p1346
I1
sVd453uz7
p1347
I1
sVdjvxi2a
p1348
I1
sVczr56w4
p1349
I3
sVdgesr3w
p1350
I1
sVdh0hjq7
p1351
I1
sVdfq96nb
p1352
I1
sVd0m37vp
p1353
I1
sVd2fgyc9
p1354
I3
sVd95g3oj
p1355
I1
sVdhi5v7i
p1356
I2
sVda5njxh
p1357
I3
sVdb3hozc
p1358
I1
sVd8oi4pi
p1359
I1
sVd2kvygw
p1360
I1
sVd6vso9n
p1361
I1
sVd2lld2l
p1362
I1
sVd9575q2
p1363
I1
sVdmzvfdx
p1364
I1
sVd6u0j3y
p1365
I1
sVcz20aq8
p1366
I1
sVd1lw2df
p1367
I1
sVderpl8t
p1368
I1
sVd004k65
p1369
I1
sVd2gx998
p1370
I1
sVdi2qyj7
p1371
I1
sVd1syrpq
p1372
I2
sVds8r8c8
p1373
I1
sVd6z9n2m
p1374
I1
sVdaitcwh
p1375
I1
sVdaojrwk
p1376
I1
sVdni6hdt
p1377
I2
sVde6wljh
p1378
I1
sVd4qxx8t
p1379
I1
sVd7proo5
p1380
I1
sVdkx10yc
p1381
I1
sVdbsgu3m
p1382
I1
sVd05z0b5
p1383
I4
sVcyyt5ch
p1384
I2
sVdeorzp6
p1385
I2
sVdsuv164
p1386
I1
sVd6zvekp
p1387
I1
sVcymfyry
p1388
I1
sVd397n6x
p1389
I1
sVd1jqlbn
p1390
I1
sVd08u044
p1391
I1
sVde420dc
p1392
I1
sVd9djbzc
p1393
I1
sVd9w1pdf
p1394
I1
sVd8yqruo
p1395
I2
sVd4j7q3i
p1396
I1
sVd3fyrip
p1397
I1
sVdb3pt7f
p1398
I1
sVdgzywph
p1399
I1
sVd2blqsq
p1400
I1
sVdoo6fch
p1401
I1
sVds7ih4b
p1402
I1
sVd4evr58
p1403
I1
sVdaks8su
p1404
I1
sVd8sfnjm
p1405
I1
sVdg0vicc
p1406
I1
sVd88fd7n
p1407
I1
sVd48i0se
p1408
I1
sVdeevsy6
p1409
I3
sVdd5kdnl
p1410
I1
sVdho9qbo
p1411
I2
sVdel1neq
p1412
I2
sVddiesgk
p1413
I1
sVd33tykr
p1414
I1
sVcyshxpq
p1415
I1
sVcz42dq0
p1416
I1
sVd45x4be
p1417
I2
sVdbw6fus
p1418
I1
sVdc6pnbh
p1419
I1
sVdcvu21g
p1420
I2
sVd2qwwyp
p1421
I1
sVdbu7lq9
p1422
I1
sVdcmhofm
p1423
I1
sVdk2m1m8
p1424
I1
sVczhphao
p1425
I1
sVdaisvi2
p1426
I1
sVdc6henx
p1427
I6
sVdn034cl
p1428
I2
sVd43dqiy
p1429
I1
sVdkp326s
p1430
I1
sVd557w42
p1431
I2
sVd21jhrf
p1432
I1
sVdj523js
p1433
I1
sVdjwe91u
p1434
I1
sVdeyrkvf
p1435
I2
sVd3xeygq
p1436
I1
sVd274gj0
p1437
I1
sVd7amwwi
p1438
I1
sVdtavkkf
p1439
I1
sVd89mbe1
p1440
I1
sVczntz4e
p1441
I1
sVdgj2xdc
p1442
I1
sVczclqeu
p1443
I1
sVd8kcyl6
p1444
I1
sVdc98haw
p1445
I3
sVdcwaa8d
p1446
I1
sVdhsc2wp
p1447
I1
sVdtcmh2j
p1448
I1
sVd2f7km9
p1449
I1
sVdba4snx
p1450
I1
sVdjn0au3
p1451
I2
sVdeu9it7
p1452
I1
sVdp26hy9
p1453
I1
sVd45hw3q
p1454
I1
sVczw7vcn
p1455
I1
sVddjm32q
p1456
I1
sVdejasia
p1457
I1
sVd3cjs9z
p1458
I1
sVdf1upe0
p1459
I1
sVdhxhbnx
p1460
I2
sVd6wwpnt
p1461
I1
sVd6mcy5q
p1462
I3
sVd135ot8
p1463
I1
sVd1d88ld
p1464
I1
sVd1x9f2i
p1465
I3
sVd66stw3
p1466
I1
sVdr0lect
p1467
I5
sVd33vvit
p1468
I1
sVdgxt3fi
p1469
I1
sVd5h6pch
p1470
I1
sVdeo2du1
p1471
I2
sVd3wzeh9
p1472
I1
sVd0qxzhp
p1473
I1
sVdizdh5t
p1474
I1
sVd62uvhh
p1475
I1
sVd00k9l3
p1476
I1
sVd8861gk
p1477
I2
sVd6gp4th
p1478
I1
sVd0o2u0f
p1479
I2
sVdi7jg6j
p1480
I1
sVd1j4uvo
p1481
I1
sVd05mpn1
p1482
I1
sVde2wb1w
p1483
I1
sVdoihw1k
p1484
I1
sVd1wl68v
p1485
I1
sVcz9x3gy
p1486
I1
sVdizcxtj
p1487
I1
sVdcgdsp7
p1488
I1
sVdqqj4ni
p1489
I7
sVd39ma9x
p1490
I1
sVdrwl2at
p1491
I1
sVdc3a84l
p1492
I1
sVd6rotir
p1493
I1
sVd1x2hb8
p1494
I5
sVd8opgwe
p1495
I1
sVd5w45j4
p1496
I1
sVd9r7wzg
p1497
I1
sVcysw82k
p1498
I1
sVdff3sg6
p1499
I1
sVdkj3hum
p1500
I1
sVdomuumv
p1501
I1
sVdjf2iay
p1502
I8
sVdc2t69k
p1503
I1
sVd9zmo64
p1504
I1
sVdprivso
p1505
I2
sVd1fyoe8
p1506
I2
sVdg2w8oy
p1507
I3
sVdd6mnio
p1508
I1
sVdcmr4tt
p1509
I1
sVd1eeh5s
p1510
I1
sVdqd2lar
p1511
I1
sVd99fb2v
p1512
I1
sVd5t8lbl
p1513
I1
sVd6lmrl4
p1514
I1
sVdc97h22
p1515
I1
sVcytzvht
p1516
I1
sVd0jnhon
p1517
I1
sVd0iuux5
p1518
I1
sVddq9nsr
p1519
I1
sVczvke7h
p1520
I3
sVczumbzo
p1521
I1
sVd95f4qt
p1522
I1
sVdk3a3fr
p1523
I1
sVcz94t63
p1524
I1
sVddfscbx
p1525
I1
sVdazbjms
p1526
I1
sVddbmfb1
p1527
I2
sVdd7ty7b
p1528
I1
sVd66xzo3
p1529
I1
sVczyqudm
p1530
I1
sVd3e2p00
p1531
I1
sVcze915h
p1532
I2
sVdbqd93i
p1533
I1
sVdb700zv
p1534
I1
sVczxmlw5
p1535
I1
sVd4ewmil
p1536
I1
sVd39dbx7
p1537
I2
sVdaylw65
p1538
I1
sVdh66d7c
p1539
I1
sVd9qkh1h
p1540
I1
sVd68n7lx
p1541
I1
sVdbdowfm
p1542
I1
sVda2nmmf
p1543
I2
sVdimvtva
p1544
I3
sVdgn3ruk
p1545
I1
sVdrsdaex
p1546
I1
sVcyxkr9b
p1547
I2
sVdmqmr3y
p1548
I1
sVd4k2ug7
p1549
I1
sVdnofmc2
p1550
I1
sVdg68oi7
p1551
I1
sVd1uyi6l
p1552
I1
sVd2ph0w2
p1553
I1
sVd10eyfg
p1554
I2
sVdpukh29
p1555
I1
sVd84amio
p1556
I2
sVdbctvba
p1557
I1
sVdahwjle
p1558
I1
sVdb890er
p1559
I1
sVcyretg2
p1560
I1
sVd9friws
p1561
I1
sVczq06b3
p1562
I3
sVdgvrju1
p1563
I1
sVdr0afql
p1564
I1
sVdfd8bau
p1565
I2
sVdqaw3s1
p1566
I1
sVd6h8pxe
p1567
I1
sVd764v40
p1568
I2
sVdpfy5h0
p1569
I1
sVds9bwz8
p1570
I1
sVd1bvj7q
p1571
I2
sVcyz7kxd
p1572
I1
sVdnsqmlp
p1573
I1
sVd4uafu2
p1574
I1
sVd2kk7a3
p1575
I1
sVdsj1ugr
p1576
I1
sVd073ua4
p1577
I1
sVdeo2lof
p1578
I1
sVdi38u2e
p1579
I8
sVdbctvb6
p1580
I1
sVdhwvoac
p1581
I1
sVcz71rzs
p1582
I1
sVdbctvb1
p1583
I1
sVcyva6pb
p1584
I1
sVd5wxp00
p1585
I1
sVd0mgdxz
p1586
I1
sVdnahict
p1587
I1
sVd8xdf8x
p1588
I5
sVczr333i
p1589
I7
sVde11zdk
p1590
I1
sVdcc4e3p
p1591
I1
sVd8pv1q4
p1592
I1
sVddyn776
p1593
I1
sVdh6w0fg
p1594
I2
sVda1svjn
p1595
I1
sVd47nwqq
p1596
I1
sVdmtlcv4
p1597
I1
sVdhiokog
p1598
I1
sVdfynnfz
p1599
I1
sVd6rkjl1
p1600
I1
sVddt6tor
p1601
I1
sVdbsp1l3
p1602
I1
sVdkzij9t
p1603
I1
sVd6payu3
p1604
I2
sVdqcknbz
p1605
I1
sVd009lnw
p1606
I1
sVdgpipmt
p1607
I1
sVcz8s5op
p1608
I1
sVczs03os
p1609
I1
sVde6jxg0
p1610
I1
sVdk73a4w
p1611
I1
sVd3d6q2z
p1612
I3
sVdq226fp
p1613
I1
sVdd0l6ax
p1614
I1
sVd3msekn
p1615
I1
sVdf45j2h
p1616
I1
sVd12s516
p1617
I2
sVd8cjcm2
p1618
I1
sVd73lbaq
p1619
I2
sVd0cev6q
p1620
I1
sVcz3yhk8
p1621
I1
sVdk0rdft
p1622
I1
sVd02zlju
p1623
I1
sVdbvtl0c
p1624
I1
sVdel909k
p1625
I1
sVdje3lul
p1626
I1
sVd2iyq81
p1627
I1
sVd5xbj53
p1628
I1
sVda2nb1e
p1629
I1
sVd0lkvdi
p1630
I1
sVd23f0i5
p1631
I1
sVdgscs33
p1632
I1
sVdr0tajj
p1633
I5
sVczgztu5
p1634
I1
sVdk00aqc
p1635
I2
sVczmccs1
p1636
I1
sVdfnfs9w
p1637
I1
sVdbgwm3v
p1638
I1
sVd28l52l
p1639
I1
sVdiab4ep
p1640
I1
sVczfumdc
p1641
I1
sVdg1si74
p1642
I2
sVdk2yh02
p1643
I1
sVdaxtnbi
p1644
I1
sVd2iidwz
p1645
I1
sVdbip43p
p1646
I1
sVd2ndipa
p1647
I5
sVd0zb1mg
p1648
I1
sVde05pnz
p1649
I1
sVdf06865
p1650
I1
sVdg170cf
p1651
I1
sVdffon9b
p1652
I2
sVd08xxq2
p1653
I1
sVd9kuvl1
p1654
I2
sVdhl098a
p1655
I1
sVd0qoxgz
p1656
I1
sVdbjfee6
p1657
I1
sVdbt73zg
p1658
I1
sVd4f4qju
p1659
I1
sVczgq2fn
p1660
I1
sVdmqtdxs
p1661
I1
sVdiha74o
p1662
I2
sVd3ffffp
p1663
I1
sVdgetqr1
p1664
I1
sVd4isaci
p1665
I2
sVdkojzi9
p1666
I1
sVdqgc2uy
p1667
I2
sVd04v5lg
p1668
I1
sVd988137
p1669
I1
sVda7xqrz
p1670
I1
sVda4hq59
p1671
I1
sVcz59u8v
p1672
I1
sVcyubzvh
p1673
I2
sVdbvoogb
p1674
I3
sVdiunjt7
p1675
I1
sVdh52ad4
p1676
I1
sVd7kc7q4
p1677
I2
sVd3tm7lm
p1678
I1
sVdcyufnx
p1679
I1
sVdnl310o
p1680
I1
sVd62enxp
p1681
I2
sVdihzn7z
p1682
I1
sVd2149qs
p1683
I1
sVdkfp329
p1684
I1
sVdg7uevd
p1685
I1
sVddfjfyt
p1686
I4
sVd1xp2ez
p1687
I1
sVdel4dx4
p1688
I2
sVda9qp0k
p1689
I2
sVdtjo11q
p1690
I2
sVd9ayi6b
p1691
I2
sVdjmpykr
p1692
I1
sVdguxehr
p1693
I2
sVcz9q784
p1694
I1
sVdcmz3ua
p1695
I1
sVddj4vh0
p1696
I1
sVddyk8rc
p1697
I1
sVddxvj7i
p1698
I2
sVdmsq9wx
p1699
I3
sVdbj9t5j
p1700
I1
sVdjg1rfz
p1701
I12
sVde8ggii
p1702
I3
sVdmmbedq
p1703
I1
sVdoc4l5s
p1704
I1
sVdehii9o
p1705
I1
sVczz69u3
p1706
I1
sVd72zh2d
p1707
I1
sVda2texz
p1708
I1
sVdinj1go
p1709
I1
sVd7mnv55
p1710
I1
sVdgurboz
p1711
I1
sVd4lgrgr
p1712
I1
sVd65acn0
p1713
I1
sVdhs62y4
p1714
I3
sVdce110y
p1715
I1
sVd9bmoo6
p1716
I1
sVd56rco1
p1717
I1
sVdalbh8n
p1718
I1
sVd37wb0l
p1719
I1
sVczs16r5
p1720
I1
sVdf4am8l
p1721
I1
sVd68odfw
p1722
I1
sVdrzy12f
p1723
I2
sVdhyc6c0
p1724
I1
sVdonq6i3
p1725
I1
sVdmzjqp7
p1726
I1
sVd86ep85
p1727
I3
sVdff9qx1
p1728
I3
sVd7rj7yo
p1729
I1
sVd6zg9zi
p1730
I2
sVdark8ew
p1731
I1
sVd2f8is7
p1732
I1
sVdbjs87u
p1733
I1
sVdapwcyd
p1734
I1
sVddso235
p1735
I2
sVdejbnzt
p1736
I1
sVd39d9nu
p1737
I1
sVdjzvxou
p1738
I1
sVd0y5bd6
p1739
I1
sVdd7wp4h
p1740
I1
sVddszdle
p1741
I1
sVd8wpmwa
p1742
I1
sVdcy15k2
p1743
I1
sVd8tdm95
p1744
I1
sVdblln49
p1745
I2
sVdn9q6sv
p1746
I1
sVdiv4gv3
p1747
I1
sVd12z0zi
p1748
I1
sVd9l0758
p1749
I1
sVda6zhun
p1750
I2
sVdhp6gf9
p1751
I1
sVdh7ed8t
p1752
I1
sVd25bimw
p1753
I1
sVd3rz7wr
p1754
I1
sVdk0sk56
p1755
I1
sVdeyo8k9
p1756
I2
sVdfjbmwk
p1757
I1
sVd45whub
p1758
I2
sVdnm2auz
p1759
I1
sVd23prjt
p1760
I1
sVdgst58h
p1761
I1
sVdb3ctpy
p1762
I1
sVd2uq0l6
p1763
I1
sVddfwo1n
p1764
I1
sVd8a0shj
p1765
I1
sVddo0icp
p1766
I1
sVd8bzqcb
p1767
I2
sVdigikte
p1768
I1
sVdbrar8w
p1769
I2
sVdcuw5fd
p1770
I1
sVdio66iw
p1771
I2
sVd2zny71
p1772
I1
sVdswctus
p1773
I1
sVd3j8yez
p1774
I1
sVdrpdv3u
p1775
I1
sVdh7d2dj
p1776
I2
sVdbfuepx
p1777
I5
sVdje15lu
p1778
I1
sVdc2wrn6
p1779
I1
sVd4triom
p1780
I2
sVd90kkwb
p1781
I2
sVdp1tajo
p1782
I2
sVdal2hrr
p1783
I1
sVcz4rw31
p1784
I1
sVdjqfps4
p1785
I7
sVdgr6qeh
p1786
I4
sVdqn21vr
p1787
I9
sVddcb7rz
p1788
I1
sVd24a8dj
p1789
I2
sVdp0gdam
p1790
I1
sVdohhg7j
p1791
I1
sVd3tx184
p1792
I1
sVdohcm00
p1793
I1
sVczl100z
p1794
I1
sVda99ss8
p1795
I1
sVd2wpoge
p1796
I1
sVdghzey1
p1797
I1
sVdjyefq5
p1798
I2
sVdetl6jv
p1799
I3
sVd4fclad
p1800
I1
sVd6gam8d
p1801
I1
sVdgsampt
p1802
I1
sVd2j0ryx
p1803
I1
sVdqkytje
p1804
I1
sVd9v87mu
p1805
I1
sVd2yr855
p1806
I2
sVd39umgb
p1807
I1
sVdqfhvkf
p1808
I2
sVd5v2ghj
p1809
I1
sVdcqe9b6
p1810
I1
sVd8lixgm
p1811
I1
sVcznnf0j
p1812
I1
sVczvqwql
p1813
I1
sVdn19h37
p1814
I2
sVdkphqgw
p1815
I9
sVd5nktbq
p1816
I1
sVdn0yhn4
p1817
I2
sVd09n42p
p1818
I1
sVdje7jfz
p1819
I1
sVdh3239n
p1820
I1
sVdjej4oy
p1821
I1
sVdssljgd
p1822
I1
sVd978t5l
p1823
I1
sVdf8w9b6
p1824
I1
sVdnucia1
p1825
I1
sVdhag09u
p1826
I1
sVd63yj1m
p1827
I1
sVd0612co
p1828
I1
sVd46pdlz
p1829
I1
sVd87w4t8
p1830
I1
sVdfwt4e2
p1831
I1
sVd2re2z8
p1832
I1
sVdi2vmkf
p1833
I1
sVd0auagj
p1834
I1
sVdn8h257
p1835
I1
sVd71wzqd
p1836
I2
sVd7rkwrn
p1837
I2
sVdbmc0zn
p1838
I1
sVdh06mah
p1839
I1
sVczmzafj
p1840
I3
sVd2bp6vp
p1841
I1
sVd8zaxmy
p1842
I1
sVd6f5jlg
p1843
I6
sVdb00gm0
p1844
I1
sVd8ghlno
p1845
I1
sVd3y3br0
p1846
I1
sVd0qw0c9
p1847
I1
sVda5y5ed
p1848
I2
sVd5w6l94
p1849
I1
sVd6xytjy
p1850
I2
sVd4qjmfj
p1851
I1
sVdh1z43t
p1852
I1
sVd9s7tnr
p1853
I1
sVd5795ua
p1854
I1
sVdaws476
p1855
I4
sVcysf2xz
p1856
I1
sVd98asfu
p1857
I1
sVdaphllt
p1858
I1
sVdsiex2o
p1859
I1
sVdrd7tx3
p1860
I1
sVdit4adw
p1861
I1
sVd9x2yld
p1862
I1
sVdhrfv8a
p1863
I1
sVdf1h7fp
p1864
I1
sVd2r7yx5
p1865
I1
sVdb0ougi
p1866
I1
sVdqrty5k
p1867
I2
sVdg1jpb9
p1868
I3
sVd1iopak
p1869
I1
sVddji5gs
p1870
I1
sVdayzi35
p1871
I1
sVd3yewmw
p1872
I2
sVdip02lr
p1873
I1
sVczb1dhf
p1874
I1
sVd8lwb6q
p1875
I2
sVdi4rz1o
p1876
I1
sVczdmtl3
p1877
I5
sVdn3ei7o
p1878
I1
sVdpsqb3z
p1879
I1
sVde9hfi7
p1880
I2
sVd0cju07
p1881
I1
sVddre6zv
p1882
I1
sVdefr2el
p1883
I1
sVd11191z
p1884
I2
sVdhsswfq
p1885
I2
sVd6se9kt
p1886
I1
sVdmvk87t
p1887
I1
sVde19l4j
p1888
I1
sVdaipxzg
p1889
I1
sVdcf9rmg
p1890
I1
sVd2g2k26
p1891
I1
sVd7t1xec
p1892
I1
sVdcxmgz2
p1893
I1
sVdc3t401
p1894
I1
sVd3arlxr
p1895
I1
sVdbc4gqp
p1896
I3
sVdcldg6r
p1897
I1
sVdg84mwe
p1898
I1
sVdidon0k
p1899
I1
sVd1b9br8
p1900
I1
sVdipf1et
p1901
I1
sVd62qlqq
p1902
I1
sVdece879
p1903
I2
sVd1by2gs
p1904
I1
sVdj4cd9p
p1905
I2
sVd674uvh
p1906
I4
sVd0dg87a
p1907
I1
sVd9bx6za
p1908
I1
sVdn4gc2i
p1909
I1
sVdj4uvld
p1910
I1
sVcyocd2u
p1911
I1
sVdopwwgz
p1912
I1
sVda97tf7
p1913
I1
sVcza9btb
p1914
I2
sVd82lqzf
p1915
I3
sVdcrq35e
p1916
I1
sVd46248j
p1917
I2
sVdqqgtm9
p1918
I1
sVcyywmt7
p1919
I1
sVd4ncsy2
p1920
I2
sVdcc0sp2
p1921
I1
sVd2je7bj
p1922
I1
sVdgxzl3k
p1923
I1
sVdmmcjhg
p1924
I1
sVdnsllm9
p1925
I1
sVdolj9r1
p1926
I1
sVd4m8qis
p1927
I1
sVd8svxsr
p1928
I1
sVdkncpm8
p1929
I1
sVd5iaxwx
p1930
I1
sVdiy6pik
p1931
I1
sVczvk2zz
p1932
I1
sVd7vq1vr
p1933
I2
sVddafszm
p1934
I1
sVcyl8hqa
p1935
I1
sVdiq0nhe
p1936
I2
sVdjc5mw9
p1937
I1
sVdpnqgx3
p1938
I1
sVdq867jr
p1939
I1
sVd0lmte3
p1940
I1
sVdpiccuu
p1941
I2
sVd95ov4t
p1942
I2
sVd434auj
p1943
I2
sVczo4ywd
p1944
I1
sVdn51air
p1945
I2
sVd00vq60
p1946
I1
sVd2m39el
p1947
I1
sVdjtq5y9
p1948
I1
sVdacuvjj
p1949
I1
sVd7mhzcs
p1950
I1
sVdnjnepy
p1951
I1
sVdixh68h
p1952
I1
sVdbpyoqo
p1953
I1
sVdii82v0
p1954
I2
sVd4ffghm
p1955
I1
sVd0asfax
p1956
I3
sVdoxl2om
p1957
I1
sVddxfnyr
p1958
I1
sVdgqho1e
p1959
I1
sVdhqltv1
p1960
I3
sVd2keyag
p1961
I1
sVd0y3f05
p1962
I1
sVdarvhvy
p1963
I3
sVdaoh6v5
p1964
I1
sVdrl92ai
p1965
I1
sVdikw1zp
p1966
I1
sVcyna5b1
p1967
I1
sVd4h3vdb
p1968
I1
sVdsydphb
p1969
I2
sVddwvxmd
p1970
I2
sVdcapn8z
p1971
I1
sVd39g8cs
p1972
I1
sVd5qdku6
p1973
I1
sVd129iio
p1974
I1
sVd7llqkw
p1975
I2
sVcz957uv
p1976
I2
sVdrfk6zl
p1977
I1
sVdiy2u67
p1978
I1
sVdk2mgi5
p1979
I1
sVdb62oib
p1980
I1
sVd7rqbc2
p1981
I1
sVdhvbupm
p1982
I1
sVdcbuzd4
p1983
I1
sVdecehfv
p1984
I1
sVdn82osb
p1985
I1
sVdsufnhs
p1986
I1
sVd30by08
p1987
I2
sVdh6r4g9
p1988
I1
sVd0qoupf
p1989
I1
sVd6fxcws
p1990
I2
sVd7ub4rw
p1991
I1
sVdbh6ff9
p1992
I1
sVd3l78e8
p1993
I1
sVdbshxte
p1994
I2
sVdrvdyet
p1995
I2
sVdnb1fv7
p1996
I1
sVd4xcvyg
p1997
I1
sVddn4zny
p1998
I1
sVczt92vn
p1999
I1
sVdgf24e1
p2000
I1
sVd993drt
p2001
I1
sVd8k4ahw
p2002
I4
sVd13c240
p2003
I1
sVdducodb
p2004
I3
sVd7r3op0
p2005
I3
sVdg7ehre
p2006
I2
sVd2mlrpw
p2007
I1
sVdk0hz42
p2008
I1
sVdkiuqaw
p2009
I2
sVczb1l0l
p2010
I1
sVdc8r4jg
p2011
I2
sVdh91fxi
p2012
I1
sVdog6bf0
p2013
I1
sVdgsm77r
p2014
I1
sVds2ikh8
p2015
I1
sVd6a96e6
p2016
I1
sVdiq8ct7
p2017
I1
sVd05lpbz
p2018
I2
sVdc15l7j
p2019
I2
sVde631vq
p2020
I1
sVd2la0b4
p2021
I1
sVd4s1ep0
p2022
I1
sVdfaat6i
p2023
I2
sVd9jp383
p2024
I1
sVdb7xezq
p2025
I1
sVd9z7t9q
p2026
I1
sVd18crwo
p2027
I1
sVddi1ugk
p2028
I1
sVda6zsdf
p2029
I5
sVd8vowo1
p2030
I1
sVdgjb66s
p2031
I4
sVd5n4jwj
p2032
I1
sVdg0tc3v
p2033
I1
sVdhegay1
p2034
I1
sVdd7jo6r
p2035
I1
sVdsuldvt
p2036
I1
sVdqn2n07
p2037
I1
sVdi4dccr
p2038
I1
sVd743tkt
p2039
I2
sVd3r3m3p
p2040
I1
sVd7i59lc
p2041
I1
sVd6zu2gj
p2042
I1
sVd7xqff7
p2043
I1
sVdisocpn
p2044
I1
sVdoyno4z
p2045
I2
sVd2j3lnz
p2046
I1
sVdc5h4do
p2047
I1
sVdhomt8l
p2048
I1
sVdrjdd1k
p2049
I1
sVdotr2pz
p2050
I1
sVd7uj2js
p2051
I1
sVd797qfz
p2052
I1
sVczpr6fi
p2053
I1
sVdio1x6r
p2054
I8
sVdjgjmmi
p2055
I1
sVd42jx96
p2056
I1
sVdh67swb
p2057
I1
sVd39j7il
p2058
I1
sVddmkb0d
p2059
I1
sVd8oibmh
p2060
I1
sVd0c2b2m
p2061
I1
sVdi55ixt
p2062
I1
sVdhi6s51
p2063
I1
sVdoiitc9
p2064
I1
sVdat81qx
p2065
I1
sVdfic932
p2066
I1
sVd153hdh
p2067
I1
sVdedvllh
p2068
I1
sVczl1543
p2069
I1
sVd1zfyrb
p2070
I2
sVd0s52vu
p2071
I2
sVdjsx1ay
p2072
I1
sVdsfdxu3
p2073
I2
sVd2530ac
p2074
I1
sVd9f5zd1
p2075
I1
sVdbrzft0
p2076
I1
sVdozd0tx
p2077
I1
sVdeaxy0f
p2078
I1
sVcznpk3n
p2079
I1
sVd7j7t54
p2080
I1
sVdc0b8on
p2081
I1
sVd5yctmk
p2082
I2
sVd9u1hxo
p2083
I1
sVd48y5ys
p2084
I1
sVd5wyoix
p2085
I1
sVd3uwow9
p2086
I1
sVd1vi1cc
p2087
I1
sVdhg0wn1
p2088
I1
sVd92tp7r
p2089
I5
sVd4nc3k4
p2090
I1
sVdbkmicl
p2091
I1
sVdi0wb5m
p2092
I1
sVdbdovwk
p2093
I4
sVd16kznd
p2094
I1
sVdf26lj7
p2095
I1
sVdr0d2mr
p2096
I1
sVcyxxqp1
p2097
I1
sVde3iuxy
p2098
I1
sVdcqnu7c
p2099
I1
sVd9c1e94
p2100
I1
sVdqng95f
p2101
I1
sVczku7hx
p2102
I2
sVdqmh9by
p2103
I1
sVd885mt9
p2104
I1
sVdqkgewa
p2105
I1
sVdan3sm3
p2106
I1
sVdmkz559
p2107
I1
sVd16tv0o
p2108
I1
sVdhxy6oz
p2109
I1
sVddj56m9
p2110
I1
sVdcz1azv
p2111
I1
sVdb2vdb6
p2112
I1
sVdid6z81
p2113
I1
sVdcngab1
p2114
I1
sVczn6kz3
p2115
I1
sVdcca1lq
p2116
I1
sVd2bec8x
p2117
I1
sVd2sgplc
p2118
I1
sVd5lx107
p2119
I1
sVd304zjg
p2120
I3
sVdeo0s2h
p2121
I5
sVd5i7iem
p2122
I1
sVd3y57j0
p2123
I2
sVdtas346
p2124
I1
sVcysfvsn
p2125
I3
sVd2t4tcj
p2126
I1
sVdjx85vy
p2127
I2
sVdiwvev5
p2128
I1
sVd9qkmss
p2129
I1
sVdkirw4j
p2130
I1
sVdc85rx9
p2131
I1
sVdci3ix5
p2132
I3
sVdayn5n8
p2133
I1
sVcyzcd6i
p2134
I1
sVd05ef9f
p2135
I1
sVdblv0su
p2136
I1
sVdgkr5el
p2137
I1
sVcz85v3e
p2138
I1
sVdo0ersg
p2139
I2
sVdq6fahs
p2140
I1
sVd4wbfbm
p2141
I2
sVd01miu9
p2142
I2
sVd64x4dl
p2143
I1
sVdhoor1l
p2144
I2
sVczv6khq
p2145
I1
sVdkd0ae6
p2146
I1
sVczkus8d
p2147
I2
sVd35q9gf
p2148
I1
sVdccbwy8
p2149
I1
sVdea0488
p2150
I1
sVde44cir
p2151
I1
sVd8ynpyn
p2152
I1
sVdfql3ln
p2153
I1
sVdnsziys
p2154
I1
sVdfk0khf
p2155
I1
sVdcw05l4
p2156
I4
sVdjtv81h
p2157
I1
sVdt81fzm
p2158
I1
sVd4f796d
p2159
I2
sVdhjd7rx
p2160
I1
sVd8z5z7s
p2161
I1
sVd5cxigm
p2162
I1
sVdijxf03
p2163
I2
sVdcjqit6
p2164
I4
sVd5ihkgh
p2165
I1
sVdiftleq
p2166
I1
sVd1hrqlj
p2167
I1
sVdbt1t7x
p2168
I1
sVcytvuuc
p2169
I1
sVda4007o
p2170
I1
sVcz2wt74
p2171
I1
sVd1h2dlo
p2172
I1
sVcywp1a9
p2173
I1
sVdncf7d7
p2174
I1
sVcyp7v48
p2175
I1
sVdfhs0kr
p2176
I2
sVd7xpq81
p2177
I1
sVd05hdeo
p2178
I1
sVd5xvsoa
p2179
I1
sVdt8ogj0
p2180
I1
sVdcw35le
p2181
I1
sVd71ydas
p2182
I1
sVd30t8e6
p2183
I1
sVczvt277
p2184
I1
sVdddikkv
p2185
I1
sVdepzu64
p2186
I3
sVdh91asb
p2187
I1
sVdki19tk
p2188
I1
sVdpxx7bp
p2189
I2
sVdiqovrp
p2190
I1
sVd6t2q3j
p2191
I1
sVd7b56xq
p2192
I1
sVdfk1ipq
p2193
I1
sVdr2hjmy
p2194
I8
sVd68rtj7
p2195
I1
sVdikfrc1
p2196
I2
sVd8js8z2
p2197
I1
sVd2aj37q
p2198
I1
sVd3uf87r
p2199
I1
sVdg1mpwv
p2200
I1
sVdpoboj3
p2201
I1
sVdopxabs
p2202
I3
sVdq31mmy
p2203
I1
sVdk46voi
p2204
I1
sVd8mbqxl
p2205
I1
sVdg5rl4q
p2206
I1
sVcznv8rg
p2207
I1
sVdbxr9uo
p2208
I1
sVdium50r
p2209
I4
sVd3946t4
p2210
I1
sVde64tfk
p2211
I2
sVddkhbrx
p2212
I1
sVdomxe80
p2213
I1
sVd32uwkz
p2214
I1
sVczllsou
p2215
I1
sVdqc78wv
p2216
I1
sVdgn1r1h
p2217
I1
sVdpm10xf
p2218
I1
sVda5taoe
p2219
I2
sVczrse84
p2220
I1
sVdccemnv
p2221
I2
sVdk89kh3
p2222
I1
sVd745g9t
p2223
I1
sVdnwah38
p2224
I1
sVd0z6oci
p2225
I1
sVcz0xxo9
p2226
I2
sVcywip7w
p2227
I1
sVdj4v9cq
p2228
I1
sVd9h4epr
p2229
I2
sVdhgeisy
p2230
I4
sVdsyx3bl
p2231
I1
sVdqza5tc
p2232
I2
sVdr03fw7
p2233
I1
sVdjlesni
p2234
I1
sVdti6b8g
p2235
I3
sVddc86ad
p2236
I1
sVcz7febq
p2237
I1
sVdbti5g8
p2238
I1
sVdoe8pp7
p2239
I1
sVdbrl1r4
p2240
I1
sVd18q041
p2241
I6
sVd8o6500
p2242
I1
sVdrzz2yu
p2243
I2
sVdfzwcbk
p2244
I1
sVdnu5wwk
p2245
I1
sVczw14f5
p2246
I1
sVdsmwzsw
p2247
I1
sVd99ddgs
p2248
I1
sVdem2qw6
p2249
I1
sVd0qk3jm
p2250
I1
sVdmqck6z
p2251
I2
sVd3niun6
p2252
I1
sVdehaiqn
p2253
I1
sVdizcmmk
p2254
I1
sVdgdi0jl
p2255
I1
sVdczinvd
p2256
I1
sVd9zbdoi
p2257
I1
sVcyjoipp
p2258
I1
sVdhhkyo9
p2259
I1
sVd5uac6d
p2260
I1
sVd08xqkm
p2261
I2
sVdflct4y
p2262
I1
sVdintvss
p2263
I1
sVd001f6c
p2264
I6
sVd25nrsm
p2265
I1
sVdfk8q6x
p2266
I1
sVdr12myx
p2267
I2
sVderbcqi
p2268
I1
sVd6bw4dx
p2269
I1
sVd9lrjqj
p2270
I1
sVd3slhim
p2271
I1
sVdhrafxq
p2272
I1
sVdjc6rzb
p2273
I1
sVdc4h3cc
p2274
I1
sVdinqywl
p2275
I1
sVd08vbm3
p2276
I1
sVdd69cqq
p2277
I1
sVdhs2i85
p2278
I1
sVcyqmm5h
p2279
I3
sVdbpzkbc
p2280
I1
sVd0anf4t
p2281
I1
sVd6wha5s
p2282
I1
sVd3k8mrb
p2283
I1
sVdcff1dh
p2284
I1
sVddkfxj7
p2285
I1
sVd4zr2f2
p2286
I1
sVd6a3myq
p2287
I1
sVdgagr7b
p2288
I1
sVczq07ci
p2289
I1
sVdqgz7sz
p2290
I1
sVdrrsems
p2291
I3
sVd9vesce
p2292
I2
sVd04uzp5
p2293
I1
sVd0mav5q
p2294
I2
sVdbsniqm
p2295
I1
sVdjzc4d2
p2296
I3
sVd56iho9
p2297
I1
sVd86kw45
p2298
I1
sVda6wqgo
p2299
I7
sVddljlxk
p2300
I1
sVdnkjoxh
p2301
I2
sVdr240wo
p2302
I1
sVczfn3fj
p2303
I1
sVdd43swh
p2304
I1
sVdn85xf3
p2305
I1
sVd4vjpe4
p2306
I1
sVdhhsw4r
p2307
I1
sVdav7a35
p2308
I1
sVdk6awwv
p2309
I1
sVd0dapp9
p2310
I2
sVd0g1mbf
p2311
I8
sVdmek166
p2312
I1
sVdhwhg5g
p2313
I1
sVd2opoal
p2314
I1
sVdhg0zcp
p2315
I1
sVd6rz6h3
p2316
I3
sVdhs52n6
p2317
I1
sVdntc5jy
p2318
I1
sVdakhzh0
p2319
I3
sVdodleah
p2320
I1
sVd8aiycp
p2321
I3
sVd9kxj12
p2322
I1
sVd1g5lr9
p2323
I1
sVd3qc5ho
p2324
I1
sVd077epq
p2325
I2
sVdi2a313
p2326
I1
sVcz2d1kb
p2327
I4
sVd8nomw1
p2328
I1
sVd05wk8k
p2329
I1
sVd0y9f15
p2330
I1
sVdh62usi
p2331
I2
sVd2nut7i
p2332
I1
sVdg6gpod
p2333
I1
sVdhs9jij
p2334
I1
sVd98tpfp
p2335
I1
sVd6v82im
p2336
I1
sVdnejl5e
p2337
I1
sVdc4e1n4
p2338
I1
sVdae4pzp
p2339
I2
sVd146y69
p2340
I1
sVd0w3nz8
p2341
I2
sVdij40bi
p2342
I1
sVdqn1naw
p2343
I1
sVd90t4j6
p2344
I1
sVd4gahi5
p2345
I1
sVd0joldf
p2346
I1
sVdq6b3bh
p2347
I1
sVdrkt0h5
p2348
I1
sVdkjrbi5
p2349
I3
sVdrit8o1
p2350
I2
sVdnnbb9q
p2351
I2
sVcyjnhd1
p2352
I2
sVdrokw7a
p2353
I1
sVdn0pko9
p2354
I4
sVdbi9247
p2355
I1
sVd1krtc3
p2356
I4
sVddup9i8
p2357
I1
sVddxu6rw
p2358
I2
sVdoa5cep
p2359
I2
sVdo9pauk
p2360
I1
sVdkebq4p
p2361
I1
sVda2nki5
p2362
I1
sVd97ld8e
p2363
I1
sVdc9t83m
p2364
I1
sVdfd9dgi
p2365
I1
sVdmvfrru
p2366
I1
sVde0ep7w
p2367
I1
sVdfc0dq6
p2368
I2
sVdnbvd2x
p2369
I1
sVddwgzdu
p2370
I1
sVddec5fm
p2371
I1
sVcyxuh7w
p2372
I1
sVdin8lmi
p2373
I1
sVdazqybo
p2374
I1
sVd1ulpdo
p2375
I1
sVczgndmk
p2376
I1
sVdhsx8y5
p2377
I1
sVd658vw0
p2378
I1
sVdacq5yx
p2379
I1
sVdb3n06m
p2380
I1
sVd78vxi6
p2381
I1
sVd3is80d
p2382
I1
sVdr0ntgw
p2383
I4
sVd4dc7kr
p2384
I1
sVdeqlir9
p2385
I1
sVd7gix17
p2386
I2
sVdbg2nn8
p2387
I1
sVd1qrwr5
p2388
I2
sVdjvw62j
p2389
I3
sVdcff0u3
p2390
I1
sVdse4uqj
p2391
I1
sVdawpif5
p2392
I1
sVd55aw8g
p2393
I2
sVd9gzdxx
p2394
I1
sVdilff6i
p2395
I4
sVdiobyso
p2396
I3
sVdjxdq0k
p2397
I2
sVdjq4fup
p2398
I1
sVds6z4ym
p2399
I1
sVd68jucg
p2400
I1
sVd05lvqh
p2401
I1
sVdryoc2e
p2402
I2
sVd1vblwx
p2403
I2
sVdffn7b3
p2404
I3
sVdjaaux4
p2405
I1
sVd5aql9q
p2406
I1
sVdayr1xw
p2407
I1
sVcz8ytin
p2408
I1
sVdjxd2n3
p2409
I1
sVdosiupi
p2410
I1
sVdgjsd2j
p2411
I1
sVdtekv8n
p2412
I1
sVd97gazi
p2413
I1
sVd8vtja6
p2414
I1
sVd2g6nhm
p2415
I1
sVdeldl9r
p2416
I4
sVd44jwr2
p2417
I1
sVdach8jb
p2418
I2
sVd32tgae
p2419
I1
sVdh7oj5o
p2420
I4
sVdt4lnds
p2421
I1
sVdcca8gq
p2422
I1
sVdmvr61r
p2423
I3
sVdbxm40s
p2424
I1
sVdi7opri
p2425
I1
sVdf85zye
p2426
I2
sVdcydw3m
p2427
I1
sVd95ed1o
p2428
I1
sVdgt3ll0
p2429
I1
sVd9kdil5
p2430
I1
sVdhdrjtu
p2431
I1
sVdnoh1pz
p2432
I3
sVd7wrbi0
p2433
I1
sVdaujvmi
p2434
I2
sVd0hamyz
p2435
I1
sVd3hljot
p2436
I1
sVd6y04pf
p2437
I6
sVd0qy22t
p2438
I1
sVdfprrwz
p2439
I2
sVdk99rwv
p2440
I1
sVdms8nta
p2441
I1
sVddxzf0p
p2442
I1
sVcyjcws3
p2443
I1
sVdddw1zi
p2444
I1
sVcz4z76g
p2445
I1
sVd9ql6k1
p2446
I1
sVdc2usrp
p2447
I1
sVdfyh6jy
p2448
I2
sVd0gzyfc
p2449
I1
sVdd4zjhh
p2450
I3
sVd5cvi13
p2451
I3
sVd2i9zzp
p2452
I1
sVdf5pzxb
p2453
I1
sVdbjlu84
p2454
I1
sVd37lbbs
p2455
I1
sVdd75wm8
p2456
I1
sVd5o0h5t
p2457
I1
sVdk5gbje
p2458
I1
sVdrqpot0
p2459
I1
sVdhwebw4
p2460
I1
sVd2eyhhp
p2461
I1
sVddsoq96
p2462
I6
sVd3f0xey
p2463
I1
sVd1q063m
p2464
I2
sVd3a2316
p2465
I1
sVdgxgkrx
p2466
I1
sVdo3p7nv
p2467
I1
sVd1jzdw6
p2468
I1
sVcyq4oxy
p2469
I1
sVd95euhe
p2470
I1
sVdeyz3av
p2471
I2
sVdav1xnk
p2472
I1
sVdpw9pma
p2473
I1
sVdmvrc55
p2474
I3
sVd02kuur
p2475
I1
sVd8p8jnb
p2476
I1
sVdcw1k8f
p2477
I2
sVdiy5bs4
p2478
I1
sVd9188ux
p2479
I2
sVdeth00f
p2480
I1
sVdbqleps
p2481
I1
sVd3hreef
p2482
I1
sVdo5llf3
p2483
I1
sVd8a82bw
p2484
I3
sVd17zq8g
p2485
I1
sVdj8eg5j
p2486
I1
sVdenwhsp
p2487
I1
sVd591g5x
p2488
I1
sVd28qi6x
p2489
I1
sVd8n4h8i
p2490
I1
sVd59vp5q
p2491
I1
sVd2atwaf
p2492
I1
sVd9ly8to
p2493
I4
sVd3wfiek
p2494
I1
sVdio65sz
p2495
I2
sVdi6k67y
p2496
I1
sVd40ebiq
p2497
I1
sVdmejw4w
p2498
I1
sVczpajjs
p2499
I1
sVdcjn6n7
p2500
I2
sVd1dnr6r
p2501
I1
sVde3xj91
p2502
I1
sVd5kxofq
p2503
I3
sVcz8nhsm
p2504
I1
sVd4jkz1g
p2505
I1
sVd9uf8te
p2506
I1
sVd4qjthv
p2507
I1
sVdo8j1ie
p2508
I2
sVdny3s4b
p2509
I2
sVd91w3ha
p2510
I1
sVd6dk8ps
p2511
I1
sVdqrvi4w
p2512
I1
sVdqmco9v
p2513
I1
sVd0ic7jy
p2514
I1
sVd4tts7m
p2515
I1
sVdht2tnr
p2516
I1
sVdephk0v
p2517
I2
sVd9gmczt
p2518
I1
sVczsqhuc
p2519
I1
sVd40q36v
p2520
I1
sVdr0w85r
p2521
I2
sVd21bcju
p2522
I1
sVcyiasbx
p2523
I3
sVd64dnsf
p2524
I1
sVdrddbsd
p2525
I1
sVdfd4nt3
p2526
I1
sVdj2u209
p2527
I1
sVd7l02q3
p2528
I1
sVdb1uib4
p2529
I1
sVd9p31m9
p2530
I4
sVdqewbgt
p2531
I1
sVdkv1rfo
p2532
I1
sVdj8kcov
p2533
I1
sVcyipmue
p2534
I1
sVddgdfci
p2535
I1
sVdozdxxs
p2536
I1
sVd22rnrk
p2537
I1
sVdcjny5w
p2538
I1
sVd5y1yqt
p2539
I3
sVdmwah51
p2540
I2
sVd3g0z7z
p2541
I1
sVd05kpkm
p2542
I2
sVdi5cm8c
p2543
I1
sVczbzydt
p2544
I1
sVds538wk
p2545
I1
sVd18rqj4
p2546
I1
sVdhkrf0f
p2547
I2
sVda4wiry
p2548
I1
sVd3l0kf8
p2549
I1
sVdpny5bb
p2550
I3
sVdaylf8z
p2551
I1
sVd4l6d96
p2552
I1
sVd2afpre
p2553
I1
sVd2zhsnm
p2554
I1
sVdcy8pm0
p2555
I1
sVdf1beno
p2556
I1
sVd47f1xd
p2557
I1
sVd6pzr3z
p2558
I1
sVdhhpaog
p2559
I3
sVdsn9edr
p2560
I1
sVdbzmi8w
p2561
I1
sVd4vf58n
p2562
I1
sVd1ly8d1
p2563
I1
sVdbuplm8
p2564
I1
sVdcan5or
p2565
I2
sVd074v35
p2566
I1
sVd3mpsjz
p2567
I1
sVdb42ki1
p2568
I1
sVdbuyoww
p2569
I1
sVdr0e80j
p2570
I1
sVddhpy3b
p2571
I1
sVd4k7wy2
p2572
I1
sVdipl9dy
p2573
I4
sVd7cuwso
p2574
I1
sVdbp152l
p2575
I1
sVd42a6sw
p2576
I1
sVdi6obp5
p2577
I1
sVd50g7xo
p2578
I1
sVddc7bt5
p2579
I1
sVdngzk4d
p2580
I1
sVdauxkqs
p2581
I1
sVd8jct0v
p2582
I1
sVd46712g
p2583
I1
sVdoj6xlx
p2584
I1
sVdobmf1l
p2585
I1
sVdavn1mb
p2586
I1
sVd0xvzvh
p2587
I1
sVdh7kn3y
p2588
I1
sVd8u6ofc
p2589
I1
sVdfgyah5
p2590
I1
sVd60qafu
p2591
I1
sVczxm0ah
p2592
I1
sVd58shzk
p2593
I1
sVd6p0q63
p2594
I1
sVd99c5dd
p2595
I1
sVdbd5kw2
p2596
I1
sVdathh86
p2597
I1
sVd61lpc4
p2598
I1
sVd3ytzjb
p2599
I2
sVd2jgvvx
p2600
I7
sVd27ngbq
p2601
I1
sVdsk0r5y
p2602
I1
sVd4zprvs
p2603
I2
sVdeb6nh7
p2604
I1
sVd5b3oh8
p2605
I1
sVd45y215
p2606
I2
sVdd8lgqr
p2607
I1
sVd9y6fad
p2608
I1
sVd97lnnp
p2609
I1
sVd4rnk4x
p2610
I2
sVd9gemzj
p2611
I2
sVdc9t7y8
p2612
I1
sVcz0p7ta
p2613
I1
sVdp9k6n8
p2614
I1
sVd1aqul9
p2615
I1
sVdi53m37
p2616
I1
sVdbctvb3
p2617
I1
sVdepm9z2
p2618
I1
sVdffwmew
p2619
I1
sVdgizuqo
p2620
I1
sVdbfqr0q
p2621
I3
sVd045tcv
p2622
I1
sVd07juje
p2623
I1
sVdrj2s7e
p2624
I1
sVcyt59qi
p2625
I5
sVdemlcjt
p2626
I1
sVdjjlej5
p2627
I1
sVd5u2wih
p2628
I1
sVd0xyude
p2629
I1
sVcyn51yj
p2630
I2
sVdoyityi
p2631
I1
sVcz96n05
p2632
I1
sVd6m8fk4
p2633
I1
sVdr1ba1j
p2634
I1
sVdcpu0gq
p2635
I1
sVdig5b1e
p2636
I1
sVd5uchzg
p2637
I1
sVdg4dghv
p2638
I1
sVdhict0s
p2639
I1
sVd7oho22
p2640
I2
sVdbfurxs
p2641
I2
sVdjswkp9
p2642
I2
sVdinug5k
p2643
I2
sVd7x8x9b
p2644
I1
sVdbqlfqe
p2645
I2
sVd4ul3ek
p2646
I1
sVczi8bxm
p2647
I1
sVcyp2uil
p2648
I1
sVd96suy1
p2649
I1
sVdabys1l
p2650
I1
sVdddidlv
p2651
I1
sVdb0earl
p2652
I1
sVczu10eo
p2653
I1
sVdie3ek2
p2654
I1
sVdig2g5n
p2655
I1
sVddewxof
p2656
I1
sVdh5wasv
p2657
I2
sVdc92evy
p2658
I1
sVd2jo2qi
p2659
I1
sVd0i7wbi
p2660
I1
sVdj6x0tq
p2661
I1
sVd5cugqi
p2662
I1
sVcyx5z2v
p2663
I1
sVdo95b3y
p2664
I1
sVdjm8ps5
p2665
I1
sVdaizl23
p2666
I1
sVdozbwlz
p2667
I1
sVd8yhyv8
p2668
I1
sVdn8bf0c
p2669
I1
sVdipw5xg
p2670
I1
sVdkgc9x4
p2671
I1
sVdgtcaa2
p2672
I2
sVdnyh9nc
p2673
I1
sVd266iv5
p2674
I1
sVd1xv6l6
p2675
I3
sVdtbos7m
p2676
I1
sVczen6om
p2677
I1
sVdotsvh5
p2678
I1
sVd1o0bdh
p2679
I1
sVdr045ev
p2680
I1
sVdqvz0ij
p2681
I1
sVd6nxc2x
p2682
I7
sVdcsuy3k
p2683
I1
sVdem9kpw
p2684
I1
sVd49ghis
p2685
I2
sVd00r92z
p2686
I3
sVcyme235
p2687
I1
sVdo21gvq
p2688
I2
sVdkpehi5
p2689
I3
sVd4rv07o
p2690
I3
sVdmvg1bh
p2691
I2
sVczmren4
p2692
I1
sVdal0q2f
p2693
I1
sVdpgydon
p2694
I1
sVcznvv0p
p2695
I1
sVd7v9xpj
p2696
I1
sVd2qy31d
p2697
I1
sVdmir68i
p2698
I2
sVd3x4o1c
p2699
I3
sVdhqhssm
p2700
I1
sVdmgvmo8
p2701
I2
sVdbdaweb
p2702
I1
sVdsuguhc
p2703
I1
sVczkrc49
p2704
I1
sVdctt8hd
p2705
I2
sVdje7asl
p2706
I1
sVd2aua51
p2707
I2
sVdioet4l
p2708
I2
sVd97e7mm
p2709
I1
sVd36jk6x
p2710
I2
sVd24a6op
p2711
I1
sVd1q92e8
p2712
I7
sVdb7imyn
p2713
I1
sVd9anw2n
p2714
I2
sVd8aj6n1
p2715
I1
sVcz5f2s8
p2716
I1
sVd1vls15
p2717
I2
sVd0ch54u
p2718
I2
sVd1z7si1
p2719
I1
sVdhrtvyx
p2720
I1
sVd3dmly4
p2721
I1
sVdrumf4j
p2722
I1
sVdc9ufjl
p2723
I4
sVdc7tgg3
p2724
I1
sVdb4rkk3
p2725
I1
sVdo03woz
p2726
I1
sVd80u5ou
p2727
I1
sVdcqm7na
p2728
I1
sVdhp64xr
p2729
I3
sVdbyq888
p2730
I1
sVd1srdi3
p2731
I1
sVd61mte2
p2732
I3
sVd6fxkxc
p2733
I1
sVd1wqtt6
p2734
I1
sVd2h0qk2
p2735
I1
sVdnu4hka
p2736
I1
sVdc09uhm
p2737
I1
sVdhf14s9
p2738
I1
sVcztnr8w
p2739
I1
sVd01cz3d
p2740
I1
sVd2qipau
p2741
I2
sVd1xps1l
p2742
I2
sVcyjv7sl
p2743
I1
sVdne68rl
p2744
I1
sVdevp40u
p2745
I1
sVdtby0d4
p2746
I1
sVdnshe0y
p2747
I1
sVd2me7gn
p2748
I1
sVdg1fy04
p2749
I4
sVdgt9mag
p2750
I1
sVdiedqyu
p2751
I3
sVddr4u2h
p2752
I3
sVddaol7z
p2753
I2
sVdt5sp7w
p2754
I1
sVd5576w1
p2755
I1
sVddtimwv
p2756
I1
sVd2ey878
p2757
I1
sVdjg1d1c
p2758
I1
sVdnzjn9s
p2759
I1
sVd2aykew
p2760
I1
sVdcjkykd
p2761
I1
sVd126lfw
p2762
I1
sVd0h998j
p2763
I1
sVdnq5nxl
p2764
I1
sVd11na6s
p2765
I1
sVdbfujme
p2766
I1
sVd39dr2g
p2767
I2
sVdidjnws
p2768
I1
sVd009bko
p2769
I1
sVcyr30my
p2770
I1
sVdjnk6bq
p2771
I2
sVdiw44a3
p2772
I1
sVd4616t7
p2773
I10
sVd7e7zca
p2774
I1
sVds7oxrs
p2775
I3
sVdav7vot
p2776
I1
sVdqmng19
p2777
I1
sVd7l7ur3
p2778
I2
sVdgt8hqa
p2779
I1
sVd8ojv5u
p2780
I1
sVdms687v
p2781
I1
sVd3w1i9f
p2782
I1
sVd3uewnm
p2783
I1
sVdtfgbkk
p2784
I1
sVcz9h5ld
p2785
I2
sVdhgmogq
p2786
I1
sVd6rzg72
p2787
I1
sVd66x0wd
p2788
I2
sVcypuaj0
p2789
I1
sVda0hrbx
p2790
I1
sVdf682z4
p2791
I3
sVd9r5bse
p2792
I1
sVd8j1m5l
p2793
I1
sVdcj00bk
p2794
I1
sVdiuxytk
p2795
I1
sVcyjaxya
p2796
I1
sVd6zddop
p2797
I2
sVdjht4mw
p2798
I1
sVdk1xctd
p2799
I3
sVd3ga5qu
p2800
I1
sVd62dds1
p2801
I2
sVdot88jd
p2802
I1
sVdhzniny
p2803
I1
sVdsiutaa
p2804
I1
sVcyjsdd2
p2805
I1
sVdekshru
p2806
I1
sVdhgygp5
p2807
I1
sVd5ylns8
p2808
I1
sVdbh3exo
p2809
I2
sVdpypywc
p2810
I1
sVcz7y4qi
p2811
I1
sVd4gk05s
p2812
I1
sVddcu65y
p2813
I2
sVczzdtr4
p2814
I1
sVdj7bt4s
p2815
I1
sVczfhefk
p2816
I1
sVcz803yg
p2817
I1
sVdct989i
p2818
I1
sVdeguaqx
p2819
I1
sVd8hsbvm
p2820
I1
sVdazzd11
p2821
I2
sVcz0se8u
p2822
I1
sVd9oqnm8
p2823
I3
sVd557zvf
p2824
I3
sVd85uj8d
p2825
I1
sVd0fur88
p2826
I1
sVcyks075
p2827
I1
sVd0ohklk
p2828
I1
sVd25w5x5
p2829
I1
sVds2puzd
p2830
I6
sVd91vep1
p2831
I1
sVd778ugx
p2832
I2
sVddhs1vs
p2833
I1
sVd35shyn
p2834
I1
sVdcbt3er
p2835
I1
sVcyo9a38
p2836
I1
sVcz993bl
p2837
I4
sVdcjpbvb
p2838
I1
sVde8icvu
p2839
I1
sVd4aml30
p2840
I1
sVdbwozxs
p2841
I1
sVd66q4xi
p2842
I1
sVd009dex
p2843
I3
sVdi0v2gt
p2844
I1
sVdotekb2
p2845
I2
sVdqmpgqx
p2846
I1
sVcyt2mug
p2847
I1
sVda9ad7m
p2848
I1
sVd4xsvqp
p2849
I1
sVd0fw7bh
p2850
I1
sVdhpo053
p2851
I1
sVdik55em
p2852
I1
sVcz6adxe
p2853
I3
sVdcbrkja
p2854
I1
sVdhf1cht
p2855
I1
sVd6rr80o
p2856
I2
sVd0i7bhn
p2857
I1
sVdd7x6jp
p2858
I1
sVdddn8a8
p2859
I1
sVd9nd444
p2860
I1
sVd0isb5r
p2861
I1
sVdp8gtjy
p2862
I1
sVd20ywkj
p2863
I1
sVd1l2yrj
p2864
I1
sVd39tziw
p2865
I3
sVdqr4q2x
p2866
I1
sVdcpgo1r
p2867
I1
sVd0x3xv6
p2868
I1
sVd4ib297
p2869
I1
sVd8lw0fe
p2870
I3
sVdc4g5um
p2871
I2
sVd5zl9i2
p2872
I1
sVd48cij5
p2873
I1
sVdoeivj1
p2874
I2
sVcz9dpzl
p2875
I1
sVczs021o
p2876
I1
sVdkhloyj
p2877
I15
sVdiyje7a
p2878
I1
sVd8cl5m0
p2879
I1
sVdej4vdg
p2880
I2
sVd0j6mw2
p2881
I1
sVdcriis7
p2882
I1
sVds02jmi
p2883
I1
sVd8v14q4
p2884
I1
sVd64kp1d
p2885
I1
sVd0xz88t
p2886
I1
sVdst72a9
p2887
I1
sVd7lvgy3
p2888
I4
sVd2sotqp
p2889
I1
sVcz2pceu
p2890
I1
sVd1d0gnf
p2891
I1
sVd62gabi
p2892
I6
sVdbv9hm6
p2893
I2
sVdbvrs47
p2894
I1
sVddbfts4
p2895
I1
sVda1yln5
p2896
I1
sVdgmbn5k
p2897
I1
sVdhey7ry
p2898
I1
sVdc55668
p2899
I1
sVdgs9s1d
p2900
I1
sVczaoqac
p2901
I2
sVdo2w0ox
p2902
I1
sVdg21a58
p2903
I1
sVd1ho716
p2904
I1
sVd8btkir
p2905
I1
sVdf3ou86
p2906
I1
sVdjfopf9
p2907
I1
sVdsb9g46
p2908
I1
sVdpac9za
p2909
I1
sVd6wypal
p2910
I3
sVds8ht47
p2911
I4
sVczd20v1
p2912
I1
sVcz2b32k
p2913
I5
sVd7aoay4
p2914
I1
sVdfhfkm4
p2915
I3
sVd7luqe9
p2916
I5
sVd7qh3vc
p2917
I1
sVd44ys2o
p2918
I2
sVdaypzza
p2919
I1
sVd4ztawd
p2920
I1
sVde32hia
p2921
I1
sVdezkyqx
p2922
I1
sVdnfbv96
p2923
I1
sVdjdpvqc
p2924
I1
sVd2fscd7
p2925
I2
sVd6tarcm
p2926
I1
sVdjofdet
p2927
I2
sVdbidmc2
p2928
I1
sVdamd3hg
p2929
I2
sVdfidtn8
p2930
I3
sVd7yrcoj
p2931
I9
sVdc2hcml
p2932
I4
sVd93jkrv
p2933
I1
sVd8636c4
p2934
I1
sVd9ncfr3
p2935
I1
sVd1x2i4z
p2936
I1
sVd6gsbw0
p2937
I1
sVdizq6j7
p2938
I2
sVdmsh2zw
p2939
I1
sVd3qt6xv
p2940
I1
sVdfatsrj
p2941
I1
sVd9d9glc
p2942
I1
sVdmma3zz
p2943
I1
sVdkzls4p
p2944
I1
sVdksl72d
p2945
I3
sVd5sorro
p2946
I1
sVd73rvu8
p2947
I1
sVdnvszrg
p2948
I1
sVdcwgvs8
p2949
I2
sVdivtube
p2950
I1
sVdp56zu0
p2951
I1
sVdghk5d1
p2952
I1
sVd3iyl73
p2953
I1
sVcysdmw1
p2954
I1
sVd1zcjif
p2955
I1
sVd1icyin
p2956
I1
sVdggcny8
p2957
I1
sVdbyk5co
p2958
I1
sVdqfogvs
p2959
I1
sVdh9l4ma
p2960
I2
sVdha805u
p2961
I1
sVd1if8sy
p2962
I1
sVczjj20h
p2963
I1
sVdprro1n
p2964
I2
sVcyuxzwf
p2965
I1
sVd3cks07
p2966
I1
sVddokg9m
p2967
I2
sVdballym
p2968
I1
sVds1e4ry
p2969
I1
sVdf7cuac
p2970
I4
sVdgrpx6r
p2971
I3
sVdjz7apg
p2972
I1
sVd6xms7j
p2973
I2
sVd8ma2jr
p2974
I1
sVd79tks1
p2975
I2
sVcysvnsv
p2976
I1
sVdryo01w
p2977
I4
sVd7i0c2l
p2978
I6
sVdjit0k6
p2979
I1
sVd2sf98d
p2980
I1
sVd40zvkp
p2981
I1
sVddwi2u3
p2982
I1
sVcyp04dd
p2983
I1
sVd5m1jfj
p2984
I1
sVd4uvio5
p2985
I14
sVdcjv1qn
p2986
I1
sVd71zzgu
p2987
I1
sVd2pupat
p2988
I1
sVd18ou6c
p2989
I1
sVdkpatd7
p2990
I9
sVcyz68ht
p2991
I4
sVdg1bjlc
p2992
I1
sVcymss52
p2993
I1
sVdnfvs68
p2994
I2
sVd3yazat
p2995
I1
sVdcpvaxo
p2996
I1
sVdakj51r
p2997
I1
sVdam8x4n
p2998
I1
sVcyjd5ou
p2999
I1
sVdtgj3wr
p3000
I1
sVdi4c1kf
p3001
I2
sVdqyoi7u
p3002
I1
sVdghrmel
p3003
I1
sVd18p4oj
p3004
I1
sVd7jkvby
p3005
I1
sVde79sx9
p3006
I2
sVd2zc7m9
p3007
I1
sVdsjvnu0
p3008
I1
sVdacct7y
p3009
I2
sVdj2pk3s
p3010
I1
sVdjkak10
p3011
I1
sVdrzxayp
p3012
I1
sVdjbvpm4
p3013
I1
sVdhtby8s
p3014
I1
sVdowqrbb
p3015
I1
sVdi0svam
p3016
I1
sVd43j7p6
p3017
I1
sVd7wizsi
p3018
I1
sVd7iah6p
p3019
I1
sVddqc264
p3020
I1
sVdoytg80
p3021
I1
sVd9v4u0e
p3022
I1
sVd8m03k7
p3023
I1
sVd43cows
p3024
I3
sVd2qpg8j
p3025
I1
sVdnwljkp
p3026
I1
sVddqo3yq
p3027
I1
sVcz7iyyw
p3028
I1
sVd62fslb
p3029
I3
sVdhoib7v
p3030
I3
sVdpslis6
p3031
I2
sVd1mp1hm
p3032
I1
sVd4t7awx
p3033
I1
sVddoncb8
p3034
I1
sVdb7yfcs
p3035
I1
sVdazekz8
p3036
I1
sVdg7ixzm
p3037
I6
sVddy9a1n
p3038
I1
sVdiqw5x6
p3039
I1
sVczsnl5a
p3040
I8
sVdartm3d
p3041
I1
sVd0ru4yn
p3042
I1
sVdcaarfi
p3043
I2
sVd9io8jk
p3044
I1
sVddrmkvm
p3045
I2
sVd1yfa38
p3046
I2
sVdk9jriv
p3047
I3
sVd9n3nzx
p3048
I1
sVdgy8uhb
p3049
I1
sVds9p9cy
p3050
I1
sVdebzjxj
p3051
I2
sVd0opgkd
p3052
I1
sVdahgks4
p3053
I3
sVdpjz4rt
p3054
I1
sVdqrk2ky
p3055
I1
sVd87pxx2
p3056
I1
sVd4l3c6b
p3057
I1
sVd4v6a23
p3058
I2
sVdfxmnnf
p3059
I1
sVdigd8ly
p3060
I5
sVdfto2j7
p3061
I1
sVd5oqcec
p3062
I1
sVdhniwot
p3063
I1
sVdfjy7sg
p3064
I1
sVdbao6v3
p3065
I1
sVd12qpmj
p3066
I2
sVdb0t4qt
p3067
I1
sVdbn2bnb
p3068
I1
sVd4h3jp8
p3069
I2
sVdmqt95b
p3070
I1
sVdgjcmzy
p3071
I1
sVdbj9tx7
p3072
I1
sVdb60bkd
p3073
I1
sVdcw5q0s
p3074
I1
sVczijzi0
p3075
I1
sVd78oweb
p3076
I1
sVdb2q2fm
p3077
I1
sVd7mohng
p3078
I2
sVdq2ql4m
p3079
I1
sVdfn01q3
p3080
I1
sVdem9a04
p3081
I1
sVd3tr3x3
p3082
I1
sVd584t64
p3083
I1
sVdca8hif
p3084
I1
sVd2aa7ac
p3085
I1
sVdsmbgrt
p3086
I1
sVd4jtlb9
p3087
I1
sVd1k0s94
p3088
I1
sVdggswn5
p3089
I1
sVd2e89nf
p3090
I1
sVczb0vqj
p3091
I1
sVddculqw
p3092
I1
sVdc62gyr
p3093
I1
sVdnm749y
p3094
I1
sVdcwf2dy
p3095
I1
sVdd59ccn
p3096
I3
sVd3gx1n7
p3097
I1
sVdrzdhbt
p3098
I1
sVds8bvz6
p3099
I1
sVdn64ifq
p3100
I1
sVdegvysk
p3101
I1
sVdjgvn79
p3102
I1
sVd1kwlq7
p3103
I1
sVcz2agr9
p3104
I1
sVcz3axc1
p3105
I1
sVd5ec25c
p3106
I1
sVczk838q
p3107
I1
sVddye7jz
p3108
I1
sVdii4kfs
p3109
I1
sVcyrrxwb
p3110
I1
sVdbiln2w
p3111
I1
sVdqaxqyq
p3112
I1
sVdderoo5
p3113
I1
sVdnl8kwo
p3114
I1
sVd7kaqvk
p3115
I2
sVdcu7os7
p3116
I1
sVcz8d640
p3117
I1
sVd9dr5mh
p3118
I1
sVdbfc80d
p3119
I2
sVd6lq5rh
p3120
I1
sVd2pmgyd
p3121
I1
sVd49ws41
p3122
I1
sVcyojow2
p3123
I5
sVd0zsod0
p3124
I1
sVd6usp81
p3125
I1
sVdonb59n
p3126
I1
sVcyqlas1
p3127
I1
sVd4lf4nc
p3128
I1
sVdfxy8lh
p3129
I3
sVdbm2iwu
p3130
I1
sVdauo97x
p3131
I1
sVcyrchp5
p3132
I3
sVd1fghiy
p3133
I3
sVd4xzyxf
p3134
I4
sVd387slx
p3135
I1
sVd5lnvl0
p3136
I27
sVdkc1qvg
p3137
I1
sVdbsv8q4
p3138
I1
sVd71zjnl
p3139
I1
sVd7ut6ss
p3140
I1
sVdbkpnzi
p3141
I2
sVd42iic6
p3142
I1
sVdpcizu1
p3143
I3
sVdgdxmer
p3144
I3
sVd8agzg3
p3145
I2
sVd1azyhu
p3146
I1
sVd85rgt1
p3147
I1
sVdficaxb
p3148
I1
sVdgaj4eq
p3149
I1
sVd3c099j
p3150
I1
sVdjzzwty
p3151
I2
sVdfabrwe
p3152
I1
sVd6jr2lv
p3153
I1
sVdf4lk5n
p3154
I1
sVd3y6iga
p3155
I2
sVd385y5f
p3156
I1
sVd1uyorz
p3157
I1
sVd17h7ek
p3158
I1
sVd0447m4
p3159
I2
sVd5kho1c
p3160
I1
sVd8pe0t4
p3161
I1
sVds0b9f1
p3162
I1
sVdcuc3ye
p3163
I1
sVdio7s0m
p3164
I1
sVdmekfmc
p3165
I1
sVd5x7tut
p3166
I1
sVdglaaxa
p3167
I1
sVdh2dv5t
p3168
I1
sVdi24lhs
p3169
I1
sVd7ggd1u
p3170
I1
sVd18own4
p3171
I1
sVd5m43kz
p3172
I1
sVde7m958
p3173
I2
sVdncj0u8
p3174
I1
sVdqxnz16
p3175
I1
sVdk360od
p3176
I3
sVd2a9num
p3177
I1
sVcyqssmz
p3178
I2
sVd4yx6cm
p3179
I1
sVdcl51zw
p3180
I1
sVdagnnqj
p3181
I1
sVd0731d7
p3182
I1
sVd3zl2jz
p3183
I1
sVd7nsdrz
p3184
I1
sVd12w4ya
p3185
I1
sVdka1k9w
p3186
I1
sVdkuksxe
p3187
I1
sVde9erew
p3188
I1
sVdka4ucy
p3189
I1
sVdrw2w5o
p3190
I1
sVd4csfqu
p3191
I1
sVcyz1fgg
p3192
I1
sVd0llmvm
p3193
I1
sVczvh1w6
p3194
I1
sVczpaj1i
p3195
I1
sVdb5k16q
p3196
I3
sVddruxez
p3197
I1
sVd43cujp
p3198
I1
sVdiuoffh
p3199
I3
sVda9i1yg
p3200
I5
sVdb84rso
p3201
I1
sVdaukhat
p3202
I2
sVd7txuas
p3203
I2
sVd09wkue
p3204
I1
sVd6l54cd
p3205
I1
sVcyjayna
p3206
I2
sVd8ymf1f
p3207
I1
sVdj20l3a
p3208
I1
sVd1bs841
p3209
I1
sVd94m2q7
p3210
I2
sVdh67fh2
p3211
I1
sVd8ec6wm
p3212
I1
sVd2oecg8
p3213
I1
sVdams67h
p3214
I1
sVd6kk36b
p3215
I2
sVdrdf7ba
p3216
I1
sVd4etekv
p3217
I2
sVdcwjutv
p3218
I1
sVddkdvxy
p3219
I1
sVd0jbcdx
p3220
I1
sVdrzzi9r
p3221
I2
sVd71m8wm
p3222
I1
sVd92fb8x
p3223
I1
sVd8vzwu3
p3224
I1
sVdmp6o2b
p3225
I2
sVcyvvki6
p3226
I1
sVdeud0nd
p3227
I1
sVd1uq6kv
p3228
I3
sVd2g2hob
p3229
I1
sVd0ileqn
p3230
I2
sVd8ggid9
p3231
I1
sVdd74tv2
p3232
I1
sVczvqwte
p3233
I1
sVd76bb6x
p3234
I1
sVdj3rmce
p3235
I2
sVd1emqpo
p3236
I1
sVd6t87mh
p3237
I1
sVdmgm92i
p3238
I1
sVd3fi5n7
p3239
I1
sVdqglj7w
p3240
I1
sVcysh61o
p3241
I1
sVd2nlfp2
p3242
I2
sVdasdzq4
p3243
I1
sVdgs1km5
p3244
I2
sVdq488t4
p3245
I2
sVdkd54t8
p3246
I2
sVdf8qbkq
p3247
I4
sVd2n5yd0
p3248
I1
sVcz0a98b
p3249
I1
sVdigkj89
p3250
I1
sVda4ueq2
p3251
I1
sVdf5ee3p
p3252
I1
sVdsytj7h
p3253
I2
sVd58yjag
p3254
I1
sVdfyj2tr
p3255
I1
sVd3bp894
p3256
I1
sVdctw32b
p3257
I1
sVdqxk8jx
p3258
I1
sVd5gkjn0
p3259
I1
sVd4v9l4q
p3260
I1
sVd70gst4
p3261
I1
sVdajo342
p3262
I1
sVdc1e6s4
p3263
I2
sVczmd0ap
p3264
I1
sVdbapx9b
p3265
I1
sVd7echwq
p3266
I4
sVd3v1k7z
p3267
I2
sVd541jpy
p3268
I2
sVdcw3dfl
p3269
I1
sVd6fzkvc
p3270
I1
sVczp78w6
p3271
I2
sVdg1gysx
p3272
I1
sVdev15g4
p3273
I1
sVdcubx88
p3274
I1
sVd9nucik
p3275
I1
sVdmx1ok0
p3276
I3
sVd61z5r7
p3277
I2
sVd4szept
p3278
I1
sVdhgr6hb
p3279
I1
sVdb5ioxs
p3280
I2
sVd1uucpp
p3281
I1
sVdqn1l24
p3282
I1
sVd2wcjsv
p3283
I1
sVczpuozl
p3284
I1
sVdjxron5
p3285
I1
sVcz5x8bc
p3286
I1
sVd5wtp9k
p3287
I1
sVd7xaeb6
p3288
I1
sVczmcjjs
p3289
I1
sVdbu146o
p3290
I1
sVd1tplfe
p3291
I1
sVddx7nke
p3292
I3
sVd2u10t2
p3293
I2
sVd3zgcoh
p3294
I1
sVdou58tm
p3295
I2
sVd19c8x6
p3296
I1
sVd7j7ils
p3297
I1
sVczvhv6u
p3298
I1
sVczsk80n
p3299
I1
sVd2v7nrs
p3300
I2
sVddiekix
p3301
I1
sVdrzyi9p
p3302
I2
sVd90tv8m
p3303
I1
sVdi386rf
p3304
I5
sVdqhgebl
p3305
I1
sVdavlpvi
p3306
I1
sVd1ocmds
p3307
I1
sVdcv5rlv
p3308
I1
sVdbr1yws
p3309
I1
sVd59ounb
p3310
I2
sVdi9gia4
p3311
I1
sVdifbo98
p3312
I1
sVdebtuyd
p3313
I1
sVdofo5ua
p3314
I1
sVd6tkaok
p3315
I1
sVdgq5sza
p3316
I1
sVd2zhkqz
p3317
I1
sVdcvszg1
p3318
I3
sVdjp9adu
p3319
I1
sVdk9h363
p3320
I1
sVdsnir6g
p3321
I1
sVd28wghi
p3322
I1
sVdqibf2w
p3323
I1
sVdbn6q5j
p3324
I1
sVdbjah4n
p3325
I2
sVd2s92zb
p3326
I1
sVdbwx378
p3327
I1
sVdis6rtd
p3328
I1
sVde1c5rg
p3329
I1
sVdbf14te
p3330
I1
sVddsxjjb
p3331
I1
sVdddm2v4
p3332
I1
sVd2ozpqf
p3333
I1
sVd8rpzzd
p3334
I1
sVdqq8fmt
p3335
I1
sVdmv7pku
p3336
I1
sVd4m2qx7
p3337
I1
sVdb9zl05
p3338
I3
sVcyz1dqh
p3339
I2
sVcyzurvc
p3340
I1
sVd0nzhyt
p3341
I1
sVd7ibgqw
p3342
I1
sVdis5k5a
p3343
I1
sVdnkvy99
p3344
I2
sVcz0awhj
p3345
I2
sVd6w966c
p3346
I1
sVd7c3498
p3347
I1
sVdsg2agq
p3348
I1
sVdbbu79k
p3349
I1
sVdf0h3qa
p3350
I1
sVd1d8j3r
p3351
I1
sVdimotd5
p3352
I3
sVdajxi4l
p3353
I4
sVdg1dxxu
p3354
I2
sVdc12ip2
p3355
I1
sVdbn65md
p3356
I1
sVdic53op
p3357
I2
sVdbgxz1d
p3358
I1
sVd3a524o
p3359
I1
sVd0tptx8
p3360
I1
sVdcjutz8
p3361
I1
sVdkuo95z
p3362
I1
sVd4hyjun
p3363
I1
sVd211mhh
p3364
I1
sVdrmu6vs
p3365
I1
sVdk3qbfo
p3366
I1
sVd39tp2y
p3367
I1
sVd9p2w0e
p3368
I2
sVd2ahroy
p3369
I1
sVczgtisz
p3370
I1
sVdetrxcw
p3371
I1
sVdc0tofc
p3372
I1
sVd71ib0b
p3373
I1
sVd8j6g51
p3374
I1
sVdd7dr5q
p3375
I1
sVd6xcv10
p3376
I5
sVcz3tm9x
p3377
I2
sVdqv8lr3
p3378
I1
sVd0u2kig
p3379
I1
sVd2h5tj4
p3380
I1
sVdenoa7n
p3381
I1
sVd62q97r
p3382
I1
sVdhu7cty
p3383
I2
sVd8wbfep
p3384
I1
sVdgsqjdo
p3385
I1
sVdcjysh7
p3386
I1
sVd5hqjqf
p3387
I1
sVdmnaw88
p3388
I1
sVdhghdtb
p3389
I1
sVdnbmp63
p3390
I1
sVdb8vjdk
p3391
I1
sVds16r13
p3392
I1
sVde7t2cl
p3393
I1
sVd0fcd3f
p3394
I1
sVdnnbkj4
p3395
I3
sVd29e40m
p3396
I1
sVdgoolsb
p3397
I1
sVd89e0hm
p3398
I1
sVd2dobb7
p3399
I2
sVd50mbeb
p3400
I1
sVczug6yz
p3401
I1
sVdayg6h4
p3402
I1
sVdd9vx97
p3403
I1
sVd8dg9ma
p3404
I2
sVdhax1g8
p3405
I1
sVdbki0hx
p3406
I1
sVdbd7b3y
p3407
I2
sVdbpntjy
p3408
I2
sVd8t2nta
p3409
I1
sVd9ilvet
p3410
I1
sVd891q5x
p3411
I3
sVd6u8xbb
p3412
I1
sVd50txpr
p3413
I1
sVdd0mric
p3414
I1
sVd32v9cg
p3415
I1
sVd6ln4mn
p3416
I1
sVdh8xsez
p3417
I1
sVd5yedzv
p3418
I1
sVczjl59e
p3419
I1
sVdgd3w6b
p3420
I1
sVd9yaq5y
p3421
I1
sVczti73v
p3422
I1
sVdneecrw
p3423
I1
sVdibvsgb
p3424
I2
sVdnqgb39
p3425
I1
sVdo1smks
p3426
I2
sVdt4l9si
p3427
I1
sVcyt2521
p3428
I2
sVd9gsb7p
p3429
I2
sVddtimd8
p3430
I2
sVdgu8k4w
p3431
I2
sVd2nceze
p3432
I4
sVddnuiz4
p3433
I1
sVcz9prbs
p3434
I1
sVd1w0xuz
p3435
I1
sVde16l3q
p3436
I4
sVd0jj0m5
p3437
I3
sVdblo4jn
p3438
I2
sVdkjvbec
p3439
I1
sVdkur517
p3440
I3
sVd0lpi2r
p3441
I1
sVd5wnx0x
p3442
I1
sVd2fmhbl
p3443
I1
sVd98v3ij
p3444
I2
sVdcogq9e
p3445
I1
sVd6qhgh6
p3446
I1
sVddr89ee
p3447
I1
sVdjai36c
p3448
I1
sVd05oi5i
p3449
I1
sVd0qavns
p3450
I1
sVdn2hmuk
p3451
I1
sVdsbd62h
p3452
I1
sVdiodts4
p3453
I1
sVdctxjkj
p3454
I1
sVd1q776y
p3455
I1
sVdhbsx04
p3456
I1
sVdfhfj1r
p3457
I3
sVczwpq9f
p3458
I3
sVd9xm8k8
p3459
I1
sVdfhguo4
p3460
I1
sVdfxwvmd
p3461
I2
sVd2fiaax
p3462
I2
sVdjuc9p3
p3463
I1
sVdmv5uer
p3464
I1
sVdq40m1t
p3465
I4
sVdhohhnu
p3466
I4
sVd7naghh
p3467
I1
sVd00t8cc
p3468
I5
sVczmd7vd
p3469
I1
sVdb29fx4
p3470
I1
sVdaaq9t8
p3471
I1
sVcyjn5lv
p3472
I1
sVd4ncvf5
p3473
I1
sVddgr30s
p3474
I3
sVdbqwq6q
p3475
I1
sVddbt2dz
p3476
I2
sVczlxga3
p3477
I1
sVczgrqlp
p3478
I1
sVdk1uc5s
p3479
I1
sVdehaerl
p3480
I1
sVdbu0joj
p3481
I1
sVd02mw50
p3482
I1
sVdb5zz8o
p3483
I1
sVd7wr66b
p3484
I1
sVcyzxm7b
p3485
I3
sVd47ig8f
p3486
I1
sVd1uw7kv
p3487
I1
sVdi8a17d
p3488
I1
sVdhi8sxa
p3489
I2
sVcywny4i
p3490
I1
sVdkig3qa
p3491
I1
sVd3rsjxo
p3492
I2
sVddwmm8k
p3493
I1
sVd41lwp7
p3494
I1
sVdbzjjle
p3495
I1
sVd0mapvm
p3496
I2
sVcz2dpwn
p3497
I1
sVdeznxzo
p3498
I5
sVd8ye0bk
p3499
I1
sVd233j9p
p3500
I1
sVd4p0bbh
p3501
I1
sVdb5ji2y
p3502
I1
sVd45ys8c
p3503
I1
sVd11wdnt
p3504
I1
sVd48dwxn
p3505
I1
sVd1kf7ua
p3506
I1
sVdachoso
p3507
I1
sVd7uttdp
p3508
I1
sVd21g9sy
p3509
I1
sVcyi1bwt
p3510
I1
sVd0269xy
p3511
I1
sVdieyh39
p3512
I1
sVd7upqz6
p3513
I2
sVd736jrc
p3514
I1
sVd88awyn
p3515
I1
sVd3rppjo
p3516
I4
sVda98kjv
p3517
I1
sVd4slgr6
p3518
I1
sVdc4nksa
p3519
I1
sVdh4hmb6
p3520
I1
sVdb0thxf
p3521
I1
sVdijssmn
p3522
I3
sVdkjibjt
p3523
I2
sVd4bk73b
p3524
I1
sVd50o13v
p3525
I2
sVdexn822
p3526
I1
sVd0ru7y1
p3527
I4
sVd8gxyp7
p3528
I1
sVd8oqssa
p3529
I1
sVd3o2sr9
p3530
I1
sVd2ct8qh
p3531
I2
sVdamjpi6
p3532
I1
sVdbra69e
p3533
I1
sVdt0edfp
p3534
I3
sVd73ukuq
p3535
I1
sVdaen9e6
p3536
I1
sVcynpxkh
p3537
I1
sVdnkqnv4
p3538
I1
sVd3lnrun
p3539
I1
sVcyy7kqy
p3540
I1
sVdix5vd2
p3541
I1
sVdc630kr
p3542
I3
sVdpk32bf
p3543
I1
sVczboxaj
p3544
I1
sVd3yre0s
p3545
I1
sVdpnm3lo
p3546
I1
sVdqx3fpr
p3547
I1
sVds8cal5
p3548
I1
sVdcjmmab
p3549
I3
sVdbixn9q
p3550
I1
sVd9u93wr
p3551
I1
sVd1eisv3
p3552
I1
sVdtbbp0r
p3553
I4
sVdjezu9k
p3554
I1
sVd3gj3aw
p3555
I1
sVdo4sdkx
p3556
I1
sVdb969t6
p3557
I1
sVd76hp2x
p3558
I2
sVd4pzhn0
p3559
I1
sVdoiqxak
p3560
I2
sVdgrxd27
p3561
I1
sVd0iia1h
p3562
I1
sVdmp6zst
p3563
I3
sVd8jcw5o
p3564
I1
sVdmpmu2h
p3565
I2
sVcys59rf
p3566
I1
sVds30anx
p3567
I1
sVd6yxvqx
p3568
I1
sVdhqmqkr
p3569
I2
sVddctn9s
p3570
I1
sVcz44ug5
p3571
I1
sVdcbyk3o
p3572
I1
sVdalhseo
p3573
I1
sVdg15ozi
p3574
I1
sVdms5sr0
p3575
I1
sVd8hcc1c
p3576
I1
sVdnh9su7
p3577
I2
sVdks8bdp
p3578
I1
sVd7xns72
p3579
I1
sVdayy3nj
p3580
I1
sVd058d9d
p3581
I1
sVdih96jp
p3582
I1
sVdcw898i
p3583
I1
sVcyi90ah
p3584
I1
sVdn3ztzs
p3585
I1
sVdau7nrb
p3586
I1
sVd5s8v5m
p3587
I2
sVde8688c
p3588
I1
sVczg4aql
p3589
I1
sVd13ocw9
p3590
I6
sVdc4iuq8
p3591
I1
sVdio6zw4
p3592
I2
sVdfyrrc5
p3593
I1
sVdb8bxow
p3594
I1
sVdjy5yfh
p3595
I1
sVdkadfwf
p3596
I1
sVd4gxyxn
p3597
I1
sVdqfki9q
p3598
I1
sVdhwhprw
p3599
I2
sVdo5wsnx
p3600
I1
sVd8vcgqx
p3601
I1
sVdprpk3q
p3602
I1
sVdifui09
p3603
I1
sVczvg2ah
p3604
I2
sVdjvzn83
p3605
I1
sVdix50lh
p3606
I2
sVcznumg3
p3607
I1
sVdd351eg
p3608
I2
sVd7n7jek
p3609
I1
sVdevp0to
p3610
I1
sVdt9lipi
p3611
I5
sVd800h0o
p3612
I2
sVd3f1cbh
p3613
I1
sVdsjfuxl
p3614
I1
sVdhjeyyp
p3615
I1
sVdhocrfy
p3616
I1
sVd39am8c
p3617
I2
sVd2q02wl
p3618
I2
sVddcmf30
p3619
I1
sVd4zsktv
p3620
I1
sVd47i4b2
p3621
I1
sVdhvy6eo
p3622
I1
sVdn1o1lz
p3623
I1
sVdiy7mgq
p3624
I3
sVdhdq7fb
p3625
I1
sVd6he9pe
p3626
I1
sVczv760f
p3627
I1
sVd0dfvef
p3628
I2
sVd3ib52v
p3629
I1
sVd1gpuih
p3630
I1
sVdp30lcw
p3631
I1
sVd0i8c3c
p3632
I1
sVdccb24h
p3633
I2
sVdqoha5v
p3634
I1
sVdoej5ks
p3635
I3
sVdbfevmf
p3636
I2
sVd7r4z7m
p3637
I1
sVd0o4599
p3638
I1
sVdaux8oq
p3639
I1
sVdohn3x5
p3640
I2
sVd45yifu
p3641
I4
sVdnp2vs0
p3642
I1
sVcyx5eme
p3643
I1
sVdiumpyu
p3644
I1
sVd0mrto7
p3645
I2
sVd5n9vt6
p3646
I2
sVdibj61q
p3647
I2
sVd8hde8k
p3648
I8
sVdprb4mv
p3649
I2
sVcyvv6x0
p3650
I1
sVd2v9zug
p3651
I1
sVd4gjs2p
p3652
I1
sVd2ur2c4
p3653
I1
sVd1vtv0f
p3654
I2
sVddwkzgg
p3655
I1
sVd5tgudf
p3656
I1
sVd1cdt04
p3657
I1
sVdfx7vs4
p3658
I1
sVd39lsrb
p3659
I1
sVd3x6xj8
p3660
I1
sVdf1bthi
p3661
I1
sVde0uuqu
p3662
I1
sVdnh1kzv
p3663
I2
sVd1yd432
p3664
I2
sVdt25xgn
p3665
I1
sVdkvizu1
p3666
I1
sVddbmtw3
p3667
I3
sVdhcgkvc
p3668
I1
sVddmmwcy
p3669
I1
sVd39c9wb
p3670
I2
sVdjdmull
p3671
I1
sVdtjn93p
p3672
I1
sVcz18q8o
p3673
I1
sVd03crly
p3674
I1
sVdf25eqi
p3675
I1
sVd5ce0fr
p3676
I1
sVd1uf2oa
p3677
I1
sVdfvu9fb
p3678
I1
sVdtel7za
p3679
I1
sVdb3wnmw
p3680
I1
sVd6s2bp8
p3681
I1
sVd0oj3sc
p3682
I1
sVdkn0tpd
p3683
I2
sVdq6kwt2
p3684
I1
sVdq85vf6
p3685
I2
sVcypr1hp
p3686
I1
sVdf8lcn9
p3687
I1
sVd6z9f4h
p3688
I1
sVdf0v3g4
p3689
I1
sVd7fzirg
p3690
I2
sVdhld2j0
p3691
I1
sVdda60xo
p3692
I3
sVdnno6nz
p3693
I5
sVdgpqgtm
p3694
I1
sVd1o3xfa
p3695
I2
sVd3ymept
p3696
I2
sVd14s1zd
p3697
I1
sVdi389do
p3698
I1
sVdkbf3t1
p3699
I1
sVdcbtgpb
p3700
I1
sVd32dt3f
p3701
I1
sVdeppwm8
p3702
I1
sVd2osrxt
p3703
I1
sVdcl50vy
p3704
I1
sVdruk9ao
p3705
I2
sVdhnslh4
p3706
I1
sVdcgj22n
p3707
I2
sVd2868zg
p3708
I1
sVdi53cfn
p3709
I1
sVdjoqcso
p3710
I1
sVdgb419q
p3711
I3
sVdbfwgca
p3712
I1
sVd64f7g7
p3713
I1
sVdf8pi4a
p3714
I1
sVdt52luf
p3715
I1
sVd2lii8v
p3716
I1
sVd8zcvc1
p3717
I1
sVdmvqivy
p3718
I1
sVdb8q46m
p3719
I1
sVde8injq
p3720
I1
sVdcjubzd
p3721
I2
sVddoih7d
p3722
I1
sVd466vgo
p3723
I1
sVdi439rv
p3724
I1
sVd6l7xo0
p3725
I2
sVcz49yza
p3726
I1
sVdb0ziot
p3727
I1
sVdqn0tjl
p3728
I1
sVdna09ba
p3729
I1
sVdbp4amo
p3730
I1
sVdgitbzg
p3731
I1
sVdadoxk2
p3732
I1
sVd208l23
p3733
I5
sVdp1iydz
p3734
I1
sVd35t21o
p3735
I1
sVd009juk
p3736
I2
sVdcvzin6
p3737
I1
sVdqgabxr
p3738
I1
sVcza723h
p3739
I1
sVd9gjrdw
p3740
I1
sVd0vzecn
p3741
I1
sVczt8cm8
p3742
I1
sVdd2g3jz
p3743
I1
sVcyxcy76
p3744
I1
sVd6qgzoc
p3745
I1
sVd3y0xoy
p3746
I1
sVdf91sm7
p3747
I2
sVdkakb4f
p3748
I1
sVdmvxntl
p3749
I1
sVdrdd37f
p3750
I1
sVddlsykd
p3751
I1
sVdsiuhrn
p3752
I1
sVd9eg68v
p3753
I1
sVd60uu6w
p3754
I1
sVd3lijem
p3755
I2
sVd085ame
p3756
I1
sVd3j9b3b
p3757
I1
sVd3r4r13
p3758
I1
sVdnkqjc0
p3759
I1
sVdk7zwmi
p3760
I1
sVd6rv20b
p3761
I5
sVdpq70cu
p3762
I4
sVd0v90ur
p3763
I1
sVd5ft9ix
p3764
I1
sVd0qjzor
p3765
I1
sVddpxai3
p3766
I1
sVdph8ufw
p3767
I1
sVd060sbm
p3768
I1
sVd25wdk7
p3769
I1
sVd5u5s5z
p3770
I1
sVd7xiv4j
p3771
I2
sVcypqvph
p3772
I1
sVddycgne
p3773
I1
sVdggl5z6
p3774
I1
sVd73xw5d
p3775
I1
sVddp53ti
p3776
I1
sVd9b21km
p3777
I1
sVdgev5i0
p3778
I1
sVddwjotv
p3779
I1
sVdrzxzsp
p3780
I2
sVdrhwikf
p3781
I4
sVd5jy18w
p3782
I2
sVdjg1gff
p3783
I1
sVd8xho2u
p3784
I1
sVd29jry8
p3785
I1
sVdcu0xbw
p3786
I1
sVdki9onm
p3787
I1
sVdrvccgt
p3788
I1
sVd347zf9
p3789
I1
sVdd1kag0
p3790
I1
sVd7i0h0z
p3791
I2
sVdjzc11z
p3792
I2
sVdkzde3q
p3793
I1
sVdsibtgp
p3794
I1
sVd2casgt
p3795
I1
sVdjzgeni
p3796
I1
sVdiivkdb
p3797
I1
sVd10ym3f
p3798
I1
sVd0cdhfh
p3799
I1
sVd12ym40
p3800
I1
sVdcw7scv
p3801
I1
sVd8gi3a7
p3802
I1
sVdph3s2f
p3803
I1
sVd10ngzk
p3804
I2
sVdqcz4uz
p3805
I1
sVda7pr4p
p3806
I1
sVd2jv0ib
p3807
I2
sVdgkkio2
p3808
I1
sVdt1v01c
p3809
I1
sVczqhhmz
p3810
I1
sVdgl8nis
p3811
I1
sVd89j69e
p3812
I1
sVd1wak89
p3813
I2
sVcywnkaq
p3814
I2
sVdeqx2vo
p3815
I1
sVdd0m0fg
p3816
I2
sVd0o2xtp
p3817
I2
sVdc4dbsx
p3818
I1
sVd7c8h4w
p3819
I1
sVd7fg3dw
p3820
I1
sVdjzfinj
p3821
I3
sVd03kwy4
p3822
I1
sVdj2hif1
p3823
I1
sVdiiwzu5
p3824
I1
sVdepxxm9
p3825
I1
sVda1mrlz
p3826
I1
sVdadc9ju
p3827
I1
sVdms2g4s
p3828
I1
sVdc0coa9
p3829
I1
sVdgrlk2u
p3830
I1
sVdnm7aq6
p3831
I2
sVcysnnku
p3832
I4
sVcyuctuu
p3833
I5
sVddgbae1
p3834
I1
sVcyjjf2a
p3835
I1
sVd4mf4u4
p3836
I1
sVd7uk1tk
p3837
I1
sVczswsvh
p3838
I1
sVd7hlnfk
p3839
I1
sVdetf9a6
p3840
I1
sVdbinczr
p3841
I2
sVddpp7kv
p3842
I1
sVd492rds
p3843
I1
sVdjpuioi
p3844
I1
sVdf3z6nv
p3845
I1
sVdb1xl1c
p3846
I1
sVd0entcf
p3847
I1
sVdjy99i5
p3848
I1
sVd3n1dae
p3849
I1
sVdb8x4of
p3850
I1
sVd420bkq
p3851
I1
sVd9e0pzk
p3852
I1
sVd3taph0
p3853
I1
sVdepw5x2
p3854
I1
sVd6g8wwd
p3855
I1
sVd7nx2f1
p3856
I5
sVdg22e5d
p3857
I2
sVcypfhtd
p3858
I1
sVdin6371
p3859
I3
sVd0o9uby
p3860
I1
sVdfkkmlh
p3861
I1
sVda2h3n7
p3862
I1
sVdepwxw3
p3863
I1
sVd7oipgd
p3864
I2
sVdt2qu61
p3865
I1
sVczmd5el
p3866
I1
sVdjvfp07
p3867
I1
sVd7fohan
p3868
I1
sVcyut9j0
p3869
I2
sVd0m1rvc
p3870
I3
sVd4nt47k
p3871
I2
sVdd4y9hd
p3872
I1
sVdh1t8q0
p3873
I1
sVd07wya6
p3874
I2
sVdoj5rmb
p3875
I1
sVdn86a44
p3876
I1
sVd6b63jy
p3877
I1
sVd4elfw3
p3878
I1
sVd0igqpm
p3879
I1
sVdio1gdp
p3880
I1
sVdn39kdw
p3881
I7
sVdmmx8w4
p3882
I1
sVd18rgyc
p3883
I1
sVczm4ivj
p3884
I1
sVdmi801t
p3885
I1
sVdel6bnl
p3886
I1
sVd3j6zay
p3887
I1
sVdh0wx6i
p3888
I1
sVdd2t5ye
p3889
I2
sVd80rww3
p3890
I1
sVdh6973e
p3891
I3
sVd6m2xad
p3892
I1
sVdbjlqbj
p3893
I1
sVczvvsrh
p3894
I1
sVd6wq2gk
p3895
I1
sVdmnd07d
p3896
I1
sVdmklu8u
p3897
I2
sVdtdu8vx
p3898
I2
sVd4bzmlu
p3899
I1
sVd7coge4
p3900
I3
sVddtgru3
p3901
I1
sVdbieap9
p3902
I2
sVdqss81x
p3903
I1
sVdrjfr25
p3904
I1
sVczhpvf1
p3905
I1
sVdbblxd5
p3906
I1
sVdo2qy41
p3907
I1
sVdh8eoc8
p3908
I1
sVd88p4uh
p3909
I2
sVd2ygryf
p3910
I1
sVdqsen23
p3911
I1
sVdn1i6in
p3912
I2
sVd9r5e1j
p3913
I2
sVdiprbph
p3914
I1
sVdi0jxt4
p3915
I1
sVczrffd2
p3916
I1
sVd9g01rg
p3917
I1
sVd03g579
p3918
I1
sVdnsiusc
p3919
I2
sVdaiajuq
p3920
I1
sVd5t0efl
p3921
I1
sVd7gdi3c
p3922
I1
sVdfupl2z
p3923
I1
sVdebo8bl
p3924
I1
sVdcgcnvb
p3925
I1
sVdg0np36
p3926
I1
sVdkykk5j
p3927
I1
sVdd0jy8r
p3928
I1
sVd8rpqd5
p3929
I1
sVddsnx7e
p3930
I1
sVd1bf2cd
p3931
I1
sVd4iyeew
p3932
I3
sVdi3iti9
p3933
I2
sVd52d512
p3934
I1
sVdf62e3a
p3935
I1
sVdc9s8wp
p3936
I8
sVda2mzx6
p3937
I1
sVdcjml1a
p3938
I1
sVd303fmf
p3939
I1
sVdp0nhkr
p3940
I1
sVdcjv4b2
p3941
I1
sVdibv18v
p3942
I2
sVddltsi3
p3943
I1
sVddui7qx
p3944
I1
sVd4qbmxg
p3945
I3
sVdmlxuf2
p3946
I1
sVcz8xvzz
p3947
I1
sVdi6sgaq
p3948
I1
sVddwojo5
p3949
I1
sVddgdr22
p3950
I1
sVdhdej5w
p3951
I2
sVd2e49br
p3952
I1
sVdaianee
p3953
I1
sVdegs1zy
p3954
I1
sVd6fpa6z
p3955
I2
sVd89gawp
p3956
I1
sVdsvcxy8
p3957
I2
sVdrv256r
p3958
I1
sVdihn9kt
p3959
I1
sVddsodhv
p3960
I6
sVcyog3md
p3961
I1
sVdmzz85u
p3962
I1
sVds045fp
p3963
I1
sVd1kmcw8
p3964
I1
sVdjnuk5u
p3965
I1
sVd14aupt
p3966
I1
sVdkygxbk
p3967
I1
sVcypfj14
p3968
I1
sVda4cxnx
p3969
I1
sVcyzop8i
p3970
I1
sVd7e625j
p3971
I1
sVdehli5b
p3972
I1
sVdneix8q
p3973
I1
sVd9e3ep3
p3974
I4
sVczytl18
p3975
I2
sVdblow9k
p3976
I1
sVdh39n0i
p3977
I1
sVd03fy4i
p3978
I1
sVdc52bsm
p3979
I1
sVdhnanxl
p3980
I1
sVdqzj000
p3981
I1
sVd4ujdki
p3982
I2
sVdhevjxc
p3983
I2
sVdddkxl5
p3984
I1
sVd8rp61q
p3985
I1
sVdi5ao9z
p3986
I1
sVd5xxzl3
p3987
I1
sVdo2j6xd
p3988
I1
sVdejwopj
p3989
I1
sVdixrg7d
p3990
I1
sVdjd143q
p3991
I3
sVdcx93a6
p3992
I1
sVdn45ncj
p3993
I1
sVdeytggi
p3994
I1
sVd1yikoo
p3995
I1
sVdda8c0s
p3996
I1
sVd91eegb
p3997
I1
sVd20i0fu
p3998
I1
sVdcfdan7
p3999
I1
sVddnmi7i
p4000
I1
sVdpcsgof
p4001
I1
sVcyjzk83
p4002
I1
sVdcjwub3
p4003
I1
sVd7jz77p
p4004
I1
sVdk3h585
p4005
I1
sVdjv1ir4
p4006
I1
sVd9cepo8
p4007
I1
sVdbbxkha
p4008
I1
sVdpyl7mn
p4009
I1
sVcymgz8g
p4010
I1
sVdiq9hpe
p4011
I1
sVcz7wqsq
p4012
I1
sVd68o2d7
p4013
I3
sVdhyjm3x
p4014
I1
sVdnopdzg
p4015
I1
sVdmp6bac
p4016
I4
sVcz8p6f8
p4017
I1
sVdpzu6lu
p4018
I1
sVdcchi2z
p4019
I1
sVd8g04ef
p4020
I1
sVd93wbd3
p4021
I1
sVdgkfkt6
p4022
I3
sVdd19dws
p4023
I1
sVdjpzlfe
p4024
I1
sVd3l4sn8
p4025
I1
sVdch78cn
p4026
I1
sVda3hvfm
p4027
I1
sVd9mwdod
p4028
I3
sVdqfhr5b
p4029
I1
sVdi8y6i8
p4030
I5
sVdik7ht3
p4031
I2
sVd8h5q3u
p4032
I2
sVcz9a8h4
p4033
I3
sVd2eq4db
p4034
I1
sVcyoh2ya
p4035
I5
sVd5xt76h
p4036
I1
sVdfoyvrg
p4037
I1
sVd49ixoa
p4038
I1
sVdcvx9vt
p4039
I1
sVdq3t2c8
p4040
I2
sVd56lkxb
p4041
I1
sVdatdayx
p4042
I1
sVdavzsm0
p4043
I1
sVd9cj9xf
p4044
I2
sVcz6625g
p4045
I1
sVdcyga8a
p4046
I1
sVdo2whpd
p4047
I2
sVd39hne7
p4048
I1
sVdsjhkdf
p4049
I1
sVdk35ami
p4050
I1
sVcyyrlj4
p4051
I1
sVd9arzvh
p4052
I1
sVd0ya8ys
p4053
I1
sVddsnwed
p4054
I1
sVczo15fe
p4055
I1
sVd7k8jxq
p4056
I1
sVczmuysp
p4057
I2
sVdmw3p8f
p4058
I2
sVdnsmqzv
p4059
I1
sVdj0k0gj
p4060
I1
sVd1yzbi6
p4061
I1
sVdig0j0z
p4062
I1
sVdiom3qt
p4063
I2
sVd4rnhjd
p4064
I1
sVdhc49eh
p4065
I1
sVcyptk1l
p4066
I1
sVdc3krrl
p4067
I1
sVdio30i5
p4068
I1
sVd70a0va
p4069
I3
sVd7cn5ir
p4070
I1
sVd00famk
p4071
I1
sVdsuuoem
p4072
I1
sVdekvgqs
p4073
I1
sVdipow1h
p4074
I1
sVd9lbgzy
p4075
I1
sVdhx7d6k
p4076
I1
sVd7z10jp
p4077
I2
sVdad8x2t
p4078
I1
sVdmh8wxd
p4079
I2
sVdey2jqr
p4080
I1
sVdncoykc
p4081
I1
sVd1ynydx
p4082
I1
sVd29lodd
p4083
I1
sVd015u7d
p4084
I1
sVd00l737
p4085
I1
sVdjhm55q
p4086
I1
sVdnyc4e2
p4087
I1
sVdhwvyrq
p4088
I1
sVdbrdamz
p4089
I5
sVdhcbsda
p4090
I2
sVd31c2di
p4091
I1
sVdg7c16x
p4092
I1
sVdcj04d6
p4093
I1
sVdrytnfn
p4094
I3
sVcyw2v55
p4095
I1
sVdoq6dfs
p4096
I1
sVd2q738l
p4097
I3
sVdbp1ins
p4098
I1
sVdt11t7u
p4099
I1
sVdjmjt3u
p4100
I2
sVczsm77g
p4101
I2
sVd161m6j
p4102
I2
sVd311xz3
p4103
I2
sVdik9y6q
p4104
I2
sVcz47s0p
p4105
I1
sVdhrhfjy
p4106
I1
sVdow3v52
p4107
I1
sVdnsdnqe
p4108
I1
sVd6metqu
p4109
I1
sVd1p6xax
p4110
I3
sVdih3ota
p4111
I1
sVdb1wluy
p4112
I1
sVdc3v5ba
p4113
I1
sVcyz8p6a
p4114
I5
sVd2vccwo
p4115
I2
sVdnsfxw8
p4116
I2
sVddve5m4
p4117
I1
sVdh0jxog
p4118
I1
sVdannuh8
p4119
I1
sVdiy9k2s
p4120
I1
sVdkrdzaf
p4121
I1
sVds38pde
p4122
I1
sVdo5hb54
p4123
I1
sVd08fc4q
p4124
I1
sVd8ss807
p4125
I1
sVdg4odra
p4126
I2
sVd39vj9u
p4127
I3
sVdonlcmv
p4128
I1
sVd859ojz
p4129
I1
sVd080shq
p4130
I1
sVdbznnbg
p4131
I1
sVdgx3nxv
p4132
I1
sVd33wtj2
p4133
I1
sVdmm360l
p4134
I3
sVdnhf11l
p4135
I1
sVd1gezjj
p4136
I5
sVdfdrm4y
p4137
I1
sVd2raj9m
p4138
I2
sVd9qcsya
p4139
I1
sVdikkp3t
p4140
I2
sVdk3h0gy
p4141
I2
sVd01khkx
p4142
I1
sVcyuoog5
p4143
I2
sVd83wwpy
p4144
I1
sVd79aoem
p4145
I1
sVdam13z5
p4146
I1
sVd1296bn
p4147
I1
sVdsab93v
p4148
I1
sVdf6dtct
p4149
I1
sVd4f2g75
p4150
I2
sVcyoggmf
p4151
I8
sVds8mqwu
p4152
I1
sVda6jxd5
p4153
I1
sVdkpwkee
p4154
I2
sVddlff2q
p4155
I2
sVdge39tf
p4156
I3
sVdsn7lah
p4157
I2
sVdfbziqx
p4158
I1
sVdanhf0o
p4159
I1
sVczzk19b
p4160
I1
sVdgytn96
p4161
I3
sVd73f8zg
p4162
I1
sVd0u910w
p4163
I1
sVd4jlhmr
p4164
I1
sVcypgm3r
p4165
I1
sVd1aljdq
p4166
I1
sVd05r404
p4167
I2
sVd6nciqi
p4168
I1
sVcykmlpq
p4169
I1
sVdsj3u1h
p4170
I1
sVdrp1wdh
p4171
I1
sVd2ap7l4
p4172
I1
sVdgzso5h
p4173
I5
sVd5ar8zg
p4174
I1
sVde3ii51
p4175
I2
sVdkrpgag
p4176
I1
sVdci2mn5
p4177
I4
sVdfu8s9z
p4178
I1
sVd9geqt5
p4179
I4
sVdr2n7mc
p4180
I1
sVdsftsm8
p4181
I2
sVd4p7zmz
p4182
I1
sVdjml9v3
p4183
I1
sVczokoug
p4184
I1
sVdihmzxp
p4185
I1
sVd81plzq
p4186
I1
sVd0um6s3
p4187
I1
sVd7qoylu
p4188
I1
sVd50ohvd
p4189
I2
sVdax1ofv
p4190
I1
sVd62gu8e
p4191
I1
sVczfwjrk
p4192
I1
sVda3tyds
p4193
I1
sVd0amwmd
p4194
I1
sVdf1un7b
p4195
I2
sVd7s8bh5
p4196
I1
sVd9hljnr
p4197
I1
sVdindnfa
p4198
I2
sVd420f9t
p4199
I1
sVdf1qn8u
p4200
I1
sVdgcebpl
p4201
I1
sVd0gsvwo
p4202
I1
sVdb7qett
p4203
I1
sVdsl8poc
p4204
I1
sVd5at6dq
p4205
I1
sVd19hijq
p4206
I1
sVdihfwty
p4207
I1
sVdt4594a
p4208
I1
sVd40duou
p4209
I1
sVd5581mu
p4210
I2
sVdr0n4xf
p4211
I4
sVd7sg5b7
p4212
I1
sVd47llyx
p4213
I1
sVd4lomnt
p4214
I1
sVdmhywgt
p4215
I2
sVdblj8xe
p4216
I1
sVd9dz8vk
p4217
I1
sVdg0mews
p4218
I1
sVdjt4hp5
p4219
I1
sVdclzmkl
p4220
I1
sVd30yxyx
p4221
I2
sVdaruwdl
p4222
I1
sVda3vodg
p4223
I1
sVdaaccja
p4224
I1
sVd7mcv3r
p4225
I1
sVdjx22zc
p4226
I1
sVd9ak6rt
p4227
I4
sVd0ffonp
p4228
I1
sVd0zyytt
p4229
I1
sVdb1b3jj
p4230
I2
sVdj33wsm
p4231
I1
sVdbrmcj4
p4232
I2
sVd1q422m
p4233
I1
sVd7bodhw
p4234
I2
sVd8pf5a0
p4235
I1
sVd12q6q8
p4236
I1
sVddrfzxn
p4237
I1
sVdkylgz4
p4238
I1
sVdfzvbjg
p4239
I1
sVcyo2a0p
p4240
I1
sVdb7y3bp
p4241
I1
sVdeb0c2z
p4242
I2
sVd8hk2m0
p4243
I1
sVdgs3sqz
p4244
I1
sVdg2ic94
p4245
I1
sVd5vzvdv
p4246
I1
sVde0ij62
p4247
I1
sVd8dtete
p4248
I1
sVdmx8e9v
p4249
I1
sVd57mon8
p4250
I1
sVda31grl
p4251
I1
sVczqix0j
p4252
I1
sVd00avi6
p4253
I1
sVdq1oox6
p4254
I2
sVd5ubjw6
p4255
I1
sVdkd9zdz
p4256
I21
sVdn2d512
p4257
I1
sVcyt5qb4
p4258
I1
sVda9akoi
p4259
I2
sVdbmhixt
p4260
I1
sVd1cml13
p4261
I1
sVdhoysxk
p4262
I1
sVdmxpqyi
p4263
I1
sVdh7tfo9
p4264
I1
sVdi06fsb
p4265
I1
sVdqshmdv
p4266
I1
sVd86ysvw
p4267
I1
sVd8yh0kv
p4268
I1
sVda0vrjk
p4269
I1
sVd07pjaa
p4270
I1
sVd55zcr3
p4271
I2
sVdawkyko
p4272
I3
sVdr5t8d8
p4273
I1
sVdsn5lpv
p4274
I1
sVd12bew9
p4275
I1
sVdhi0xy5
p4276
I3
sVd7v945z
p4277
I1
sVdd2aw0x
p4278
I1
sVczd8w40
p4279
I1
sVd65wu1w
p4280
I2
sVd0ox8l6
p4281
I1
sVd7l2gvx
p4282
I1
s.