(dp0
Vd8s9suk
p1
I1
sVdi09uon
p2
I1
sVd7nffsb
p3
I1
sVd405rxk
p4
I1
sVdmpk7pr
p5
I1
sVdezt84c
p6
I1
sVd7db7s0
p7
I1
sVd15ymfv
p8
I1
sVdjmakhv
p9
I1
sVd16wwn6
p10
I1
sVdr6lngu
p11
I1
sVd017wxv
p12
I4
s.