(dp0
Vczn6ox8
p1
I1
s.(dp0
Vczn6ox8
p1
I1
sVczt8346
p2
I1
s.(dp0
Vczn6ox8
p1
I1
sVcztb3nx
p2
I1
s.(dp0
Vd001t5c
p1
I1
sVczn6ox8
p2
I1
s.(dp0
Vd001t5c
p1
I1
sVczn6ox8
p2
I1
s.(dp0
Vczn6ox8
p1
I1
sVd038knd
p2
I1
s.(dp0
Vczn6ox8
p1
I1
sVd038knd
p2
I1
s.(dp0
Vczn6ox8
p1
I1
sVd0i2wq8
p2
I1
s.(dp0
Vd0i2yde
p1
I1
sVczn6ox8
p2
I1
s.(dp0
Vd0i2yde
p1
I1
sVczn6ox8
p2
I1
s.(dp0
Vczn6ox8
p1
I1
sVd0spbvy
p2
I1
s.(dp0
Vczn6ox8
p1
I1
sVd0wzu1q
p2
I1
s.(dp0
Vczn6ox8
p1
I1
sVd243p5j
p2
I1
s.(dp0
Vczn6ox8
p1
I1
sVd2l7yp0
p2
I1
s.(dp0
Vd2n72i7
p1
I1
sVczn6ox8
p2
I1
s.(dp0
Vczn6ox8
p1
I1
sVd2p7m93
p2
I1
s.(dp0
Vczn6ox8
p1
I1
sVd32srfl
p2
I1
s.(dp0
Vczn6ox8
p1
I1
sVd42f4yr
p2
I1
s.(dp0
Vczn6ox8
p1
I1
sVd4cr43g
p2
I1
s.(dp0
Vczn6ox8
p1
I1
sVd4cr43g
p2
I1
s.(dp0
Vczn6ox8
p1
I1
sVd4cr43g
p2
I1
s.(dp0
Vczn6ox8
p1
I1
sVd4d1jzg
p2
I1
s.(dp0
Vczn6ox8
p1
I1
sVd4d1jzg
p2
I1
s.(dp0
Vczn6ox8
p1
I1
sVd4d1jzg
p2
I1
s.(dp0
Vczn6ox8
p1
I1
sVd4d1jzg
p2
I1
s.(dp0
Vczn6ox8
p1
I1
sVd4d1jzg
p2
I1
s.(dp0
Vczn6ox8
p1
I1
sVd4d1jzg
p2
I1
s.(dp0
Vczn6ox8
p1
I1
sVd4d1jzg
p2
I1
s.(dp0
Vczn6ox8
p1
I1
sVd4d1jzg
p2
I1
s.(dp0
Vczn6ox8
p1
I1
sVd4d1jzg
p2
I1
s.(dp0
Vczn6ox8
p1
I1
sVd4d1jzg
p2
I1
s.(dp0
Vczn6ox8
p1
I1
sVd4d1jzg
p2
I1
s.(dp0
Vczn6ox8
p1
I1
sVd4d1jzg
p2
I1
s.(dp0
Vczn6ox8
p1
I1
sVd4kp9er
p2
I1
s.(dp0
Vczn6ox8
p1
I1
sVd4wmgz4
p2
I1
s.(dp0
Vczn6ox8
p1
I1
sVd575gdx
p2
I1
s.(dp0
Vczn6ox8
p1
I1
sVd5ozq21
p2
I1
s.(dp0
Vczn6ox8
p1
I1
sVd5qs9kw
p2
I1
s.(dp0
Vczn6ox8
p1
I1
sVd696dzi
p2
I1
s.(dp0
Vczn6ox8
p1
I1
sVd6c1hei
p2
I1
s.(dp0
Vczn6ox8
p1
I1
sVd6prqpy
p2
I1
s.(dp0
Vczn6ox8
p1
I1
sVd742v5d
p2
I1
s.(dp0
Vczn6ox8
p1
I1
sVd742v5d
p2
I1
s.(dp0
Vczn6ox8
p1
I1
sVd7peo5g
p2
I1
s.(dp0
Vczn6ox8
p1
I1
sVd8841ul
p2
I1
s.(dp0
Vd8t15kd
p1
I1
sVczn6ox8
p2
I1
s.(dp0
Vd8t15kd
p1
I1
sVczn6ox8
p2
I1
s.(dp0
Vczn6ox8
p1
I1
sVd9olsrn
p2
I1
s.(dp0
Vczn6ox8
p1
I1
sVd9zy4kk
p2
I1
s.(dp0
Vczn6ox8
p1
I1
sVdad0saa
p2
I1
s.(dp0
Vdaq32j4
p1
I1
sVczn6ox8
p2
I1
s.(dp0
Vdat81mf
p1
I1
sVczn6ox8
p2
I1
s.(dp0
Vdat81mf
p1
I1
sVczn6ox8
p2
I1
s.(dp0
Vczn6ox8
p1
I1
sVdb8zvu8
p2
I1
s.(dp0
Vczn6ox8
p1
I1
sVdba74d2
p2
I1
s.(dp0
Vczn6ox8
p1
I1
sVdbcseb9
p2
I1
s.(dp0
Vczn6ox8
p1
I1
sVdbxzqsp
p2
I1
s.(dp0
Vczn6ox8
p1
I1
sVdcg08ea
p2
I1
s.(dp0
Vczn6ox8
p1
I1
sVdcgp6zc
p2
I1
s.(dp0
Vczn6ox8
p1
I1
sVdchcds1
p2
I1
s.(dp0
Vczn6ox8
p1
I1
sVdd5hqe1
p2
I1
s.(dp0
Vczn6ox8
p1
I1
sVdd8g1kt
p2
I1
s.(dp0
Vddfxbdw
p1
I1
sVczn6ox8
p2
I1
s.(dp0
Vczn6ox8
p1
I1
sVddp7j8t
p2
I1
s.(dp0
Vczn6ox8
p1
I1
sVddpokgi
p2
I1
s.(dp0
Vczn6ox8
p1
I1
sVddx8iau
p2
I1
s.(dp0
Vczn6ox8
p1
I1
sVde7tdt4
p2
I1
s.(dp0
Vdevd3ng
p1
I1
sVczn6ox8
p2
I1
s.(dp0
Vdey731d
p1
I1
sVczn6ox8
p2
I1
s.(dp0
Vdey731d
p1
I1
sVczn6ox8
p2
I1
s.(dp0
Vczn6ox8
p1
I1
sVdezjnb9
p2
I1
s.(dp0
Vczn6ox8
p1
I1
sVdfke1cg
p2
I1
s.(dp0
Vdgacuq0
p1
I1
sVczn6ox8
p2
I1
s.(dp0
Vczn6ox8
p1
I1
sVdgslkme
p2
I1
s.(dp0
Vczn6ox8
p1
I1
sVdh0t82x
p2
I1
s.(dp0
Vczn6ox8
p1
I1
sVdhpxbnz
p2
I1
s.(dp0
Vczn6ox8
p1
I1
sVdhwcq8i
p2
I1
s.(dp0
Vczn6ox8
p1
I1
sVdi1ls27
p2
I1
s.(dp0
Vczn6ox8
p1
I1
sVdih1jhf
p2
I1
s.(dp0
Vczn6ox8
p1
I1
sVdih1jhf
p2
I1
s.(dp0
Vczn6ox8
p1
I1
sVdih1jhf
p2
I1
s.(dp0
Vczn6ox8
p1
I1
sVdihs1dz
p2
I1
s.(dp0
Vczn6ox8
p1
I1
sVdiso09h
p2
I1
s.(dp0
Vdkmxf70
p1
I1
sVczn6ox8
p2
I1
s.(dp0
Vdmpkzyp
p1
I1
sVczn6ox8
p2
I1
s.(dp0
Vdmpkzyp
p1
I1
sVczn6ox8
p2
I1
s.(dp0
Vczn6ox8
p1
I1
sVdmtjsbe
p2
I1
s.(dp0
Vczn6ox8
p1
I1
sVdn14fqj
p2
I1
s.(dp0
Vczn6ox8
p1
I1
sVdn14fqj
p2
I1
s.(dp0
Vczn6ox8
p1
I1
sVdn14fqj
p2
I1
s.(dp0
Vczn6ox8
p1
I1
sVdn14fqj
p2
I1
s.(dp0
Vczn6ox8
p1
I1
sVdn87vdh
p2
I1
s.(dp0
Vczn6ox8
p1
I1
sVdnr2fv2
p2
I1
s.(dp0
Vdnzwoe2
p1
I1
sVczn6ox8
p2
I1
s.(dp0
Vczn6ox8
p1
I1
sVdo9erdd
p2
I1
s.(dp0
Vdo9geal
p1
I1
sVczn6ox8
p2
I1
s.(dp0
Vczn6ox8
p1
I1
sVdo9i4x6
p2
I1
s.(dp0
Vdoczwao
p1
I1
sVczn6ox8
p2
I1
s.(dp0
Vczn6ox8
p1
I1
sVdoj43vz
p2
I1
s.(dp0
Vczn6ox8
p1
I1
sVdoypnaz
p2
I1
s.(dp0
Vczn6ox8
p1
I1
sVdoypnaz
p2
I1
s.(dp0
Vczn6ox8
p1
I1
sVdoypnaz
p2
I1
s.(dp0
Vczn6ox8
p1
I1
sVdqjpjlw
p2
I1
s.(dp0
Vczn6ox8
p1
I1
sVdrglpg4
p2
I1
s.(dp0
Vczn6ox8
p1
I1
sVdrglpg4
p2
I1
s.(dp0
Vczn6ox8
p1
I1
sVdrglpg4
p2
I1
s.(dp0
Vczn6ox8
p1
I1
sVdrjamzs
p2
I1
s.(dp0
Vczn6ox8
p1
I1
sVdrtpbpl
p2
I1
s.(dp0
Vcz(dp0
Vczn6ox8
p1
I1
sVdtfukj8
p2
I1
s.