(dp0
Vdaa6209
p1
I1
sVczmofwx
p2
I1
sVd910ie0
p3
I1
sVd3f3hbu
p4
I1
sVdmskg4k
p5
I1
sVd3ezl9r
p6
I1
sVdj8iu6g
p7
I1
sVd1xctco
p8
I1
sVd2rf2d6
p9
I1
sVdms3j9q
p10
I1
sVd628rv6
p11
I1
sVcyx11r1
p12
I1
sVd9coicp
p13
I1
sVcyty9tc
p14
I1
sVd06dpn5
p15
I1
sVdgpacp1
p16
I1
sVdmsui4j
p17
I1
sVdjdjb6t
p18
I1
sVd2cz3u4
p19
I1
sVdjreh03
p20
I1
sVdroi6gk
p21
I1
sVd81g8ol
p22
I1
sVddc92po
p23
I1
sVd7ak5hb
p24
I1
sVdcpr0kt
p25
I1
sVd6d272t
p26
I1
sVdk24we7
p27
I1
sVd598qcn
p28
I1
sVdau2f96
p29
I1
sVdgltg5o
p30
I1
sVd41orzi
p31
I1
sVdfc7h0j
p32
I1
sVdeivpiz
p33
I1
sVdcsksuy
p34
I1
sVd5isbq3
p35
I2
sVd2a9tm1
p36
I1
sVdk4w2im
p37
I1
sVcyx60c4
p38
I1
sVde4jsnk
p39
I1
sVddwhuk5
p40
I1
sVd56a91b
p41
I1
sVd0rvp1n
p42
I1
sVcz0b80t
p43
I1
sVd7s2xy4
p44
I1
sVd8vcoze
p45
I1
sVcz8819x
p46
I1
sVd4lzbx3
p47
I1
sVdh1k1cc
p48
I1
sVd222jcw
p49
I1
sVdolc2jo
p50
I1
sVdkafyes
p51
I2
sVdg1df0f
p52
I1
sVcyo1hxo
p53
I1
sVdd2spbo
p54
I1
sVd1flh6m
p55
I1
sVdbet003
p56
I1
sVdol23o4
p57
I1
sVdqm0a5u
p58
I1
sVd88q5qj
p59
I1
sVdb70hk9
p60
I1
sVdokoj6z
p61
I1
sVdnfcdc4
p62
I1
sVde9iyz0
p63
I1
sVdk4dter
p64
I1
sVd6w63mv
p65
I1
sVdqay0vz
p66
I1
sVdiydzk8
p67
I1
sVdn1bfq8
p68
I2
sVd1uynfr
p69
I1
sVdpc6df7
p70
I1
sVd3rawlk
p71
I1
sVdj9xgzj
p72
I1
sVczgu1jf
p73
I1
sVcyn1757
p74
I1
sVd1ja2mr
p75
I1
sVdrda3ru
p76
I1
sVd3r8vpt
p77
I1
sVdpmuh2x
p78
I1
sVdkpc850
p79
I1
sVdix93jz
p80
I1
sVd86wm09
p81
I1
sVdfj5uwy
p82
I1
sVd6wm8d4
p83
I1
sVcyt6kb5
p84
I1
sVczrsezy
p85
I1
sVdo9ktzd
p86
I1
sVdc257i6
p87
I1
s.