(dp0
Vcz5mrec
p1
I1
s.(dp0
Vd01kci2
p1
I1
sVcz5mrec
p2
I1
s.(dp0
Vd127vcw
p1
I1
sVcz5mrec
p2
I1
s.(dp0
Vdaig97v
p1
I1
sVcz5mrec
p2
I1
s.(dp0
Vcz5mrec
p1
I1
sVdctkh9k
p2
I1
s.(dp0
Vdd8n96w
p1
I1
sVcz5mrec
p2
I1
s.(dp0
Vddpw77i
p1
I1
sVcz5mrec
p2
I1
s.(dp0
Vdh5ygdk
p1
I1
sVcz5mrec
p2
I1
s.(dp0
Vdkibhpa
p1
I1
sVcz5mrec
p2
I1
s.