(dp0
Vcyiianv
p1
I1
sVcz4nytq
p2
I1
sVdmtm7k7
p3
I1
sVdjsbaw7
p4
I1
sVdncccwh
p5
I1
sVdhnks1l
p6
I1
sVdnxkjpt
p7
I1
sVdc0og9t
p8
I1
sVd8h5q3u
p9
I1
sVd2q0pg4
p10
I2
sVd0hl489
p11
I1
sVd807t0b
p12
I2
sVdjcl2gx
p13
I2
sVdk1qm9a
p14
I1
sVdhttfkv
p15
I1
sVdfmyk6d
p16
I1
sVd1buay7
p17
I2
sVczihycx
p18
I1
sVdg2bn8y
p19
I1
sVdcho0xm
p20
I1
sVdkgqhdi
p21
I1
sVdpqbn46
p22
I1
sVdfvpgx6
p23
I1
sVd300uuw
p24
I1
sVczgylpy
p25
I1
sVdgpm0ph
p26
I1
sVdn45r6u
p27
I4
sVd8ho0r4
p28
I1
sVdc4jxm8
p29
I1
sVdnv55oh
p30
I1
sVd1utpd6
p31
I1
sVd29sxqh
p32
I1
sVdkuomif
p33
I3
sVdbsrp7i
p34
I1
sVdq8stvq
p35
I1
sVd4zn6wg
p36
I1
sVd3hiw11
p37
I2
sVd0hi21t
p38
I1
sVcyjn1uf
p39
I1
sVdpd140n
p40
I1
sVd8yrfpv
p41
I1
sVd3qxi93
p42
I1
sVd55w18h
p43
I2
sVdagdsf4
p44
I2
sVdb0qye9
p45
I1
sVd1ito0s
p46
I1
sVdcjkta4
p47
I1
sVdaxfmpp
p48
I1
sVdn6nayc
p49
I1
sVdhgvw5h
p50
I1
sVdny3tiv
p51
I1
sVd4rmo80
p52
I1
sVd2uhb1o
p53
I1
sVdjwfa01
p54
I1
sVdkp05os
p55
I1
sVdnat8vg
p56
I1
sVd5otshv
p57
I2
sVd1ydk33
p58
I1
sVd2gaii3
p59
I1
sVdf5urho
p60
I1
sVd2ueiqy
p61
I2
sVdg7ez9o
p62
I2
sVdjsluqb
p63
I1
sVd6iz04x
p64
I1
sVdn2a59c
p65
I1
sVd1qjx33
p66
I1
sVdcho6cz
p67
I1
sVd39ts15
p68
I2
sVdghvang
p69
I1
sVdifpcwl
p70
I1
sVdgmp74l
p71
I1
sVdmyp4dv
p72
I1
sVdk3pzq4
p73
I1
sVdp48rpw
p74
I1
sVd1ou6bz
p75
I2
sVd2t6h4d
p76
I1
sVd2q26d8
p77
I1
sVdobq856
p78
I1
sVdd66llm
p79
I6
sVdr2frms
p80
I1
sVcza4hvu
p81
I1
sVdepnmm7
p82
I2
sVd5sh2qk
p83
I1
sVd5ns9bs
p84
I2
sVcznz8bc
p85
I5
sVd0yfvfj
p86
I1
sVdn432fe
p87
I6
sVdkx5jk0
p88
I1
sVd9c7jff
p89
I1
sVdojmw59
p90
I2
sVdd09bf8
p91
I1
sVdn3yzx9
p92
I2
sVdhay13x
p93
I2
sVdqn21vr
p94
I1
sVd7wtgif
p95
I1
sVdac8tjz
p96
I1
sVderd3c0
p97
I1
sVd6uaiji
p98
I1
sVdb41reb
p99
I1
sVd1ek055
p100
I1
sVd0jktwr
p101
I1
sVdojni94
p102
I1
sVd1b8tkh
p103
I1
sVczuvnto
p104
I2
sVczbapnr
p105
I1
sVd0588yb
p106
I1
sVdazsrnj
p107
I1
sVdgv8few
p108
I1
sVdjih75z
p109
I1
sVdnhalro
p110
I1
sVd1vcdkk
p111
I1
sVdgfg39z
p112
I1
sVczbvs53
p113
I1
sVddtplhh
p114
I2
sVdseib7s
p115
I1
sVdhhhenr
p116
I1
sVd0epoel
p117
I3
sVds88ccd
p118
I1
sVdaxundg
p119
I1
sVd6bu12h
p120
I1
sVdb998dw
p121
I5
sVdk9k3vv
p122
I2
sVdq3uxly
p123
I1
sVdr16ex3
p124
I1
sVd9tnk9h
p125
I2
sVd39v34a
p126
I2
sVdb7awe8
p127
I4
sVdevi23b
p128
I1
sVdhfojd6
p129
I2
sVd2cse3f
p130
I1
sVddpn860
p131
I1
sVd8t95du
p132
I1
sVdaqar4i
p133
I2
sVd7xh785
p134
I1
sVd9t5e5u
p135
I1
sVdbpcu08
p136
I1
sVdiuw7yo
p137
I1
sVdd6tfn8
p138
I1
sVd0mtk1f
p139
I1
sVdkwqsoz
p140
I1
sVd9u65vk
p141
I1
sVdjwcxsc
p142
I1
sVd8ii8d4
p143
I1
sVdn6q57l
p144
I1
sVdei6nnr
p145
I3
s.