(dp0
Vcynvrnk
p1
I1
s.(dp0
Vcynvrnk
p1
I1
sVcypmi8t
p2
I1
s.(dp0
Vcynvrnk
p1
I1
sVcywopku
p2
I1
s.(dp0
Vcynvrnk
p1
I1
sVcywopku
p2
I1
s.(dp0
Vcynvrnk
p1
I1
sVczarwpq
p2
I1
s.(dp0
Vcynvrnk
p1
I1
sVczm6yct
p2
I1
s.(dp0
Vcynvrnk
p1
I1
sVczm6yct
p2
I1
s.(dp0
Vcynvrnk
p1
I1
sVczndbh4
p2
I1
s.(dp0
Vcynvrnk
p1
I1
sVczrpe52
p2
I1
s.(dp0
Vcynvrnk
p1
I1
sVd035fgn
p2
I1
s.(dp0
Vcynvrnk
p1
I1
sVd06xmsk
p2
I1
s.(dp0
Vcynvrnk
p1
I1
sVd0htna3
p2
I1
s.(dp0
Vcynvrnk
p1
I1
sVd0kvwox
p2
I1
s.(dp0
Vcynvrnk
p1
I1
sVd0o7j7m
p2
I1
s.(dp0
Vcynvrnk
p1
I1
sVd0p4zj1
p2
I1
s.(dp0
Vcynvrnk
p1
I1
sVd0svruy
p2
I1
s.(dp0
Vcynvrnk
p1
I1
sVd0y18yl
p2
I1
s.(dp0
Vcynvrnk
p1
I1
sVd14pl28
p2
I1
s.(dp0
Vcynvrnk
p1
I1
sVd16m92v
p2
I1
s.(dp0
Vcynvrnk
p1
I1
sVd1fofff
p2
I1
s.(dp0
Vcynvrnk
p1
I1
sVd1yvo6k
p2
I1
s.(dp0
Vcynvrnk
p1
I1
sVd3bdcs3
p2
I1
s.(dp0
Vcynvrnk
p1
I1
sVd3u76ky
p2
I1
s.(dp0
Vcynvrnk
p1
I1
sVd4gp4lc
p2
I1
s.(dp0
Vcynvrnk
p1
I1
sVd4ig5gy
p2
I1
s.(dp0
Vcynvrnk
p1
I1
sVd4sergw
p2
I1
s.(dp0
Vcynvrnk
p1
I1
sVd5g5kyg
p2
I1
s.(dp0
Vcynvrnk
p1
I1
sVd5vl4l8
p2
I1
s.(dp0
Vcynvrnk
p1
I1
sVd5zz0ga
p2
I1
s.(dp0
Vcynvrnk
p1
I1
sVd65fzqk
p2
I1
s.(dp0
Vcynvrnk
p1
I1
sVd6gvmd8
p2
I1
s.(dp0
Vcynvrnk
p1
I1
sVd6gvmd8
p2
I1
s.(dp0
Vcynvrnk
p1
I1
sVd6iog74
p2
I1
s.(dp0
Vcynvrnk
p1
I1
sVd6l0ru6
p2
I1
s.(dp0
Vcynvrnk
p1
I1
sVd6nqk9r
p2
I1
s.(dp0
Vcynvrnk
p1
I1
sVd7echwq
p2
I1
s.(dp0
Vcynvrnk
p1
I1
sVd7k8lnj
p2
I1
s.(dp0
Vcynvrnk
p1
I1
sVd7sa9og
p2
I1
s.(dp0
Vcynvrnk
p1
I1
sVd85zmkz
p2
I1
s.(dp0
Vcynvrnk
p1
I1
sVd9kt4bm
p2
I1
s.(dp0
Vcynvrnk
p1
I1
sVdafadpb
p2
I1
s.(dp0
Vcynvrnk
p1
I1
sVdapu8hp
p2
I1
s.(dp0
Vcynvrnk
p1
I1
sVdapu8hp
p2
I1
s.(dp0
Vcynvrnk
p1
I1
sVdazn4gy
p2
I1
s.(dp0
Vcynvrnk
p1
I1
sVdb1xsyl
p2
I1
s.(dp0
Vcynvrnk
p1
I1
sVdb5gi0v
p2
I1
s.(dp0
Vcynvrnk
p1
I1
sVdc87efh
p2
I1
s.(dp0
Vcynvrnk
p1
I1
sVddut6rf
p2
I1
s.(dp0
Vcynvrnk
p1
I1
sVde9brfd
p2
I1
s.(dp0
Vcynvrnk
p1
I1
sVdejbqyw
p2
I1
s.(dp0
Vcynvrnk
p1
I1
sVdemj5gx
p2
I1
s.(dp0
Vcynvrnk
p1
I1
sVdeufs69
p2
I1
s.(dp0
Vcynvrnk
p1
I1
sVdex643b
p2
I1
s.(dp0
Vcynvrnk
p1
I1
sVdfiomvm
p2
I1
s.(dp0
Vcynvrnk
p1
I1
sVdfui02p
p2
I1
s.(dp0
Vcynvrnk
p1
I1
sVdgf0hy9
p2
I1
s.(dp0
Vcynvrnk
p1
I1
sVdgh89i0
p2
I1
s.(dp0
Vcynvrnk
p1
I1
sVdhp6umd
p2
I1
s.(dp0
Vcynvrnk
p1
I1
sVdhts8sv
p2
I1
s.(dp0
Vcynvrnk
p1
I1
sVdilcw74
p2
I1
s.(dp0
Vcynvrnk
p1
I1
sVdk8mb5e
p2
I1
s.(dp0
Vcynvrnk
p1
I1
sVdmixrkd
p2
I1
s.(dp0
Vcynvrnk
p1
I1
sVdmrkpvd
p2
I1
s.(dp0
Vcynvrnk
p1
I1
sVdn55v7n
p2
I1
s.(dp0
Vcynvrnk
p1
I1
sVdnpwo99
p2
I1
s.(dp0
Vcynvrnk
p1
I1
sVdnyvrmf
p2
I1
s.(dp0
Vcynvrnk
p1
I1
sVdo6came
p2
I1
s.(dp0
Vcynvrnk
p1
I1
sVdog94k1
p2
I1
s.(dp0
Vcynvrnk
p1
I1
sVdpdnee5
p2
I1
s.(dp0
Vcynvrnk
p1
I1
sVdpppkml
p2
I1
s.(dp0
Vcynvrnk
p1
I1
sVdqclyf0
p2
I1
s.(dp0
Vcynvrnk
p1
I1
sVdqclyf0
p2
I1
s.(dp0
Vcynvrnk
p1
I1
sVdqj8f76
p2
I1
s.(dp0
Vcynvrnk
p1
I1
sVdt5sl1e
p2
I1
s.(dp0
Vcynvrnk
p1
I1
sVdtbdbis
p2
I1
s.