(dp0
Vcyi3gc3
p1
I1
s.(dp0
Vcyigzec
p1
I1
sVcyi3gc3
p2
I1
s.(dp0
Vcyj3iei
p1
I1
sVcyi3gc3
p2
I1
s.(dp0
Vcyj498z
p1
I1
sVcyi3gc3
p2
I1
s.(dp0
Vcyj498z
p1
I1
sVcyi3gc3
p2
I1
s.(dp0
Vcyj498z
p1
I1
sVcyi3gc3
p2
I1
s.(dp0
Vcyj7ney
p1
I1
sVcyi3gc3
p2
I1
s.(dp0
Vcyj7ney
p1
I1
sVcyi3gc3
p2
I1
s.(dp0
Vcylhqfe
p1
I1
sVcyi3gc3
p2
I1
s.(dp0
Vcyli6e4
p1
I1
sVcyi3gc3
p2
I1
s.(dp0
Vcym1mve
p1
I1
sVcyi3gc3
p2
I1
s.(dp0
Vcymvmzl
p1
I1
sVcyi3gc3
p2
I1
s.(dp0
Vcyohfp7
p1
I1
sVcyi3gc3
p2
I1
s.(dp0
Vcyi3gc3
p1
I1
sVcyoq9op
p2
I1
s.(dp0
Vcypuqsn
p1
I1
sVcyi3gc3
p2
I1
s.(dp0
Vcyq0meo
p1
I1
sVcyi3gc3
p2
I1
s.(dp0
Vcyqdku6
p1
I1
sVcyi3gc3
p2
I1
s.(dp0
Vcyqdku6
p1
I1
sVcyi3gc3
p2
I1
s.(dp0
Vcyr6bl9
p1
I1
sVcyi3gc3
p2
I1
s.(dp0
Vcysnof7
p1
I1
sVcyi3gc3
p2
I1
s.(dp0
Vcysxdhs
p1
I1
sVcyi3gc3
p2
I1
s.(dp0
Vcysxejl
p1
I1
sVcyi3gc3
p2
I1
s.(dp0
Vcysxejl
p1
I1
sVcyi3gc3
p2
I1
s.(dp0
Vcysxejl
p1
I1
sVcyi3gc3
p2
I1
s.(dp0
Vcysxihv
p1
I1
sVcyi3gc3
p2
I1
s.(dp0
Vcysxihv
p1
I1
sVcyi3gc3
p2
I1
s.(dp0
Vcyt0l7v
p1
I1
sVcyi3gc3
p2
I1
s.(dp0
Vcytd0ih
p1
I1
sVcyi3gc3
p2
I1
s.(dp0
Vcytd0ih
p1
I1
sVcyi3gc3
p2
I1
s.(dp0
Vcytd0ih
p1
I1
sVcyi3gc3
p2
I1
s.(dp0
Vcytd0ih
p1
I1
sVcyi3gc3
p2
I1
s.(dp0
Vcyi3gc3
p1
I1
sVcyte5eu
p2
I1
s.(dp0
Vcyvdnza
p1
I1
sVcyi3gc3
p2
I1
s.(dp0
Vcyvop9e
p1
I1
sVcyi3gc3
p2
I1
s.(dp0
Vcywodtk
p1
I1
sVcyi3gc3
p2
I1
s.(dp0
Vcyyyt83
p1
I1
sVcyi3gc3
p2
I1
s.(dp0
Vcyz314l
p1
I1
sVcyi3gc3
p2
I1
s.(dp0
Vcz0mnrs
p1
I1
sVcyi3gc3
p2
I1
s.(dp0
Vcz0qr2m
p1
I1
sVcyi3gc3
p2
I1
s.(dp0
Vcz28x5b
p1
I1
sVcyi3gc3
p2
I1
s.(dp0
Vcz2rrf8
p1
I1
sVcyi3gc3
p2
I1
s.(dp0
Vcz2rrf8
p1
I1
sVcyi3gc3
p2
I1
s.(dp0
Vcz2tmwi
p1
I1
sVcyi3gc3
p2
I1
s.(dp0
Vcz30o30
p1
I1
sVcyi3gc3
p2
I1
s.(dp0
Vcz3mxkt
p1
I1
sVcyi3gc3
p2
I1
s.(dp0
Vcz4rvig
p1
I1
sVcyi3gc3
p2
I1
s.(dp0
Vcz5bri7
p1
I1
sVcyi3gc3
p2
I1
s.(dp0
Vcz66i56
p1
I1
sVcyi3gc3
p2
I1
s.(dp0
Vcyi3gc3
p1
I1
sVcz7ck4l
p2
I1
s.(dp0
Vcyi3gc3
p1
I1
sVcz7ck4l
p2
I1
s.(dp0
Vcz7l4uc
p1
I1
sVcyi3gc3
p2
I1
s.(dp0
Vcz7l4uc
p1
I1
sVcyi3gc3
p2
I1
s.(dp0
Vcz89k61
p1
I1
sVcyi3gc3
p2
I1
s.(dp0
Vcz89k61
p1
I1
sVcyi3gc3
p2
I1
s.(dp0
Vcz8c5dw
p1
I1
sVcyi3gc3
p2
I1
s.(dp0
Vcz8ftuc
p1
I1
sVcyi3gc3
p2
I1
s.(dp0
Vcz9217h
p1
I1
sVcyi3gc3
p2
I1
s.(dp0
Vcz939yl
p1
I1
sVcyi3gc3
p2
I1
s.(dp0
Vcz9wek8
p1
I1
sVcyi3gc3
p2
I1
s.(dp0
Vcz9zwhm
p1
I1
sVcyi3gc3
p2
I1
s.(dp0
Vczalims
p1
I1
sVcyi3gc3
p2
I1
s.(dp0
Vczao7v1
p1
I1
sVcyi3gc3
p2
I1
s.(dp0
Vczapsxq
p1
I1
sVcyi3gc3
p2
I1
s.(dp0
Vczapsxq
p1
I1
sVcyi3gc3
p2
I1
s.(dp0
Vczb9aku
p1
I1
sVcyi3gc3
p2
I1
s.(dp0
Vczbkw24
p1
I1
sVcyi3gc3
p2
I1
s.(dp0
Vczbtey6
p1
I1
sVcyi3gc3
p2
I1
s.(dp0
Vcyi3gc3
p1
I1
sVczcenpg
p2
I1
s.(dp0
Vczec7th
p1
I1
sVcyi3gc3
p2
I1
s.(dp0
Vczec7th
p1
I1
sVcyi3gc3
p2
I1
s.(dp0
Vczed4hw
p1
I1
sVcyi3gc3
p2
I1
s.(dp0
Vczg80iu
p1
I1
sVcyi3gc3
p2
I1
s.(dp0
Vczhyvm9
p1
I1
sVcyi3gc3
p2
I1
s.(dp0
Vczj6bgc
p1
I1
sVcyi3gc3
p2
I1
s.(dp0
Vcyi3gc3
p1
I1
sVczj9tpd
p2
I1
s.(dp0
Vczjgagu
p1
I1
sVcyi3gc3
p2
I1
s.(dp0
Vczjllnc
p1
I1
sVcyi3gc3
p2
I1
s.(dp0
Vczk0cmd
p1
I1
sVcyi3gc3
p2
I1
s.(dp0
Vczk2ba8
p1
I1
sVcyi3gc3
p2
I1
s.(dp0
Vczk2ba8
p1
I1
sVcyi3gc3
p2
I1
s.(dp0
Vczk2ba8
p1
I1
sVcyi3gc3
p2
I1
s.(dp0
Vczl04wx
p1
I1
sVcyi3gc3
p2
I1
s.(dp0
Vczn9jiu
p1
I1
sVcyi3gc3
p2
I1
s.(dp0
Vcznocqs
p1
I1
sVcyi3gc3
p2
I1
s.(dp0
Vcznocqs
p1
I1
sVcyi3gc3
p2
I1
s.(dp0
Vczoombc
p1
I1
sVcyi3gc3
p2
I1
s.(dp0
Vczozf6a
p1
I1
sVcyi3gc3
p2
I1
s.(dp0
Vczp9n3o
p1
I1
sVcyi3gc3
p2
I1
s.(dp0
Vczrsxwy
p1
I1
sVcyi3gc3
p2
I1
s.(dp0
Vczrtvnm
p1
I1
sVcyi3gc3
p2
I1
s.(dp0
Vczukh2q
p1
I1
sVcyi3gc3
p2
I1
s.(dp0
Vczw5joc
p1
I1
sVcyi3gc3
p2
I1
s.(dp0
Vczw5joc
p1
I1
sVcyi3gc3
p2
I1
s.(dp0
Vczwd2xb
p1
I1
sVcyi3gc3
p2
I1
s.(dp0
Vczwd2xb
p1
I1
sVcyi3gc3
p2
I1
s.(dp0
Vczxmqfo
p1
I1
sVcyi3gc3
p2
I1
s.(dp0
Vczybnxg
p1
I1
sVcyi3gc3
p2
I1
s.(dp0
Vczytl5a
p1
I1
sVcyi3gc3
p2
I1
s.(dp0
Vczytl5a
p1
I1
sVcyi3gc3
p2
I1
s.(dp0
Vczytl5a
p1
I1
sVcyi3gc3
p2
I1
s.(dp0
Vczytl5a
p1
I1
sVcyi3gc3
p2
I1
s.(dp0
Vczytl5a
p1
I1
sVcyi3gc3
p2
I1
s.(dp0
Vczytm0l
p1
I1
sVcyi3gc3
p2
I1
s.(dp0
Vczytm0l
p1
I1
sVcyi3gc3
p2
I1
s.(dp0
Vczytm0l
p1
I1
sVcyi3gc3
p2
I1
s.(dp0
Vczz1k0f
p1
I1
sVcyi3gc3
p2
I1
s.(dp0
Vczz835d
p1
I1
sVcyi3gc3
p2
I1
s.(dp0
Vczzcczx
p1
I1
sVcyi3gc3
p2
I1
s.(dp0
Vcz(dp0
Vdtiptzi
p1
I1
sVcyi3gc3
p2
I1
s.