(dp0
Vcyro7ct
p1
I1
s.(dp0
Vcyro7ct
p1
I2
s.(dp0
Vczi2ioe
p1
I1
sVcyro7ct
p2
I1
s.(dp0
Vd3sqxn1
p1
I1
sVcyro7ct
p2
I1
s.(dp0
Vd3sqxn1
p1
I1
sVcyro7ct
p2
I1
s.(dp0
Vd5lxs1v
p1
I1
sVcyro7ct
p2
I1
s.(dp0
Vd6lh11k
p1
I1
sVcyro7ct
p2
I1
s.(dp0
Vdbtifrl
p1
I1
sVcyro7ct
p2
I1
s.(dp0
Vddwd03l
p1
I1
sVcyro7ct
p2
I1
s.(dp0
Vdfemaw3
p1
I1
sVcyro7ct
p2
I1
s.(dp0
Vdteizxr
p1
I1
sVcyro7ct
p2
I1
s.