(dp0
Vcyhu441
p1
I1
sVd5mybc7
p2
I1
sVcyxnkmv
p3
I1
sVdkjnair
p4
I1
sVd6ejlmn
p5
I1
sVd6mcywf
p6
I1
sVds6y9uh
p7
I1
sVdesxwlb
p8
I1
sVcz5c8l9
p9
I1
sVd5w1aq5
p10
I1
sVcyye2bl
p11
I1
sVdbov7vh
p12
I1
sVdnkbhlg
p13
I1
sVd91tdou
p14
I1
sVdsauo3l
p15
I1
sVdahdhsv
p16
I1
sVd2woaoy
p17
I1
sVd2j1548
p18
I1
sVczhlwdi
p19
I1
sVd0tcppp
p20
I1
sVdd8fpo4
p21
I1
sVd04e8gh
p22
I1
sVddeijcs
p23
I1
sVd8sz13z
p24
I1
sVdq6gi1a
p25
I1
s.