(dp0
Vdbo4r0l
p1
I1
sVd6rlxtj
p2
I1
sVd5k4rei
p3
I3
sVd6eu0rf
p4
I1
sVd9kp6x9
p5
I1
sVdpc0dxk
p6
I1
sVdceyh4a
p7
I2
sVdju5o72
p8
I1
sVdfi7qxb
p9
I1
sVdf9ni3u
p10
I1
sVdecw5qy
p11
I1
sVdeclnnx
p12
I2
sVd2kzgzd
p13
I1
sVdec1dfi
p14
I1
sVdfqpcj0
p15
I1
sVd9vbs5w
p16
I1
sVd1mty11
p17
I1
sVd5oss0g
p18
I1
sVdbrhgib
p19
I1
sVdergld0
p20
I1
sVdk1hrjc
p21
I1
sVd128v91
p22
I1
sVddrihzh
p23
I2
sVd302h5n
p24
I1
sVdketh4u
p25
I1
sVdfyz4j8
p26
I1
sVd58p786
p27
I1
sVdcerlsm
p28
I1
sVd6nqk9r
p29
I16
sVd3vs2d8
p30
I1
sVd2u4yai
p31
I1
sVdgrm47g
p32
I1
sVd56t04t
p33
I2
sVdoiu21t
p34
I1
sVdhlhen9
p35
I1
sVdk877v6
p36
I1
sVd3qk61z
p37
I4
sVd88z5oy
p38
I2
sVdo9ix6o
p39
I1
sVdqgqe19
p40
I1
sVd2bc9v6
p41
I1
sVd278xew
p42
I1
sVd8xrcth
p43
I1
sVd88cxv8
p44
I1
sVd12noym
p45
I1
sVd5nn09y
p46
I2
sVdicnl41
p47
I1
sVdh3zvuf
p48
I1
sVdg1mpwv
p49
I1
sVdbk97ds
p50
I3
sVd1fnb5o
p51
I1
sVd3b4jec
p52
I1
sVcz7ipgk
p53
I1
sVdqo6dyj
p54
I1
sVda90n9w
p55
I1
sVdfvhz3n
p56
I1
sVd29hgjz
p57
I1
sVd25958i
p58
I4
sVd8esmdq
p59
I1
sVd7pbb8n
p60
I2
sVdfsucq4
p61
I1
sVd2u5bkb
p62
I1
sVdhbhi2f
p63
I3
sVdiv7bzq
p64
I1
sVd708eaw
p65
I1
sVden3s59
p66
I5
sVd175egk
p67
I1
sVd4km8d1
p68
I1
sVdpaoj0y
p69
I2
sVdhj63c7
p70
I1
sVdb5m2ab
p71
I1
sVd6qvmnk
p72
I2
sVdrqflc6
p73
I1
sVdqykvzq
p74
I1
sVdbq5mhy
p75
I1
sVdpglmqi
p76
I1
sVd79n10a
p77
I2
sVdg7zfxn
p78
I3
sVdd4ye15
p79
I1
sVd14pl28
p80
I17
sVdalrfqu
p81
I1
sVd1298p7
p82
I1
sVddz0ijm
p83
I1
sVdbusmd1
p84
I1
sVd38ezai
p85
I1
sVd862tq1
p86
I1
sVdrre6vn
p87
I1
sVdmib24r
p88
I1
sVdj1mqgl
p89
I1
sVdro2qpl
p90
I2
sVdhkgi6w
p91
I1
sVdk4scgh
p92
I1
sVdmjw4xg
p93
I1
sVdmjw8ag
p94
I1
sVdjfo62z
p95
I1
sVdgsauny
p96
I2
sVd8c0oew
p97
I1
sVd5piyp3
p98
I1
sVdb94buw
p99
I1
sVd06e83x
p100
I1
sVdb5ejw4
p101
I1
sVdadk6k0
p102
I1
sVd3ilqtj
p103
I1
sVddlsxk1
p104
I1
sVdn7vn0s
p105
I1
sVd8ti19i
p106
I1
sVd9y9220
p107
I1
sVd1a6gzz
p108
I1
sVdfm6ftg
p109
I1
s.