(dp0
Vcyor9z1
p1
I1
s.(dp0
Vcyor9z1
p1
I2
s.(dp0
Vcyp5w05
p1
I1
sVcyor9z1
p2
I1
s.(dp0
Vcype3pz
p1
I1
sVcyor9z1
p2
I1
s.(dp0
Vcyqg487
p1
I1
sVcyor9z1
p2
I1
s.(dp0
Vcyqg487
p1
I1
sVcyor9z1
p2
I1
s.(dp0
Vcyor9z1
p1
I1
sVcyqq0kb
p2
I1
s.(dp0
Vcysnthf
p1
I1
sVcyor9z1
p2
I1
s.(dp0
Vcytl1ay
p1
I1
sVcyor9z1
p2
I1
s.(dp0
Vcytl1ay
p1
I1
sVcyor9z1
p2
I1
s.(dp0
Vcyor9z1
p1
I1
sVcyvpidb
p2
I1
s.(dp0
Vcz5szm4
p1
I1
sVcyor9z1
p2
I1
s.(dp0
Vcz6qxfc
p1
I1
sVcyor9z1
p2
I1
s.(dp0
Vczcd7aq
p1
I1
sVcyor9z1
p2
I1
s.(dp0
Vczcd7aq
p1
I1
sVcyor9z1
p2
I1
s.(dp0
Vcyor9z1
p1
I1
sVczf81g7
p2
I1
s.(dp0
Vczr23sb
p1
I1
sVcyor9z1
p2
I1
s.(dp0
Vcyor9z1
p1
I1
sVczzmsn0
p2
I1
s.(dp0
Vczzw3ab
p1
I1
sVcyor9z1
p2
I1
s.(dp0
Vcyor9z1
p1
I1
sVd00hbip
p2
I1
s.(dp0
Vcyor9z1
p1
I1
sVd0193fw
p2
I1
s.(dp0
Vd01j2q7
p1
I1
sVcyor9z1
p2
I1
s.(dp0
Vd01ksgz
p1
I1
sVcyor9z1
p2
I1
s.(dp0
Vd01nmce
p1
I1
sVcyor9z1
p2
I1
s.(dp0
Vd01nmce
p1
I1
sVcyor9z1
p2
I1
s.(dp0
Vcyor9z1
p1
I1
sVd043bh2
p2
I1
s.(dp0
Vd05ot8v
p1
I1
sVcyor9z1
p2
I1
s.(dp0
Vd07mr4w
p1
I1
sVcyor9z1
p2
I1
s.(dp0
Vd0b9n78
p1
I1
sVcyor9z1
p2
I1
s.(dp0
Vcyor9z1
p1
I1
sVd0i2uw3
p2
I1
s.(dp0
Vd0i7qnt
p1
I1
sVcyor9z1
p2
I1
s.(dp0
Vcyor9z1
p1
I1
sVd0vbmdw
p2
I1
s.(dp0
Vd0yrvpj
p1
I1
sVcyor9z1
p2
I1
s.(dp0
Vcyor9z1
p1
I1
sVd179yju
p2
I1
s.(dp0
Vd17z156
p1
I1
sVcyor9z1
p2
I1
s.(dp0
Vcyor9z1
p1
I1
sVd1pxdp3
p2
I1
s.(dp0
Vcyor9z1
p1
I1
sVd23d6i9
p2
I1
s.(dp0
Vcyor9z1
p1
I1
sVd257v6h
p2
I1
s.(dp0
Vd284ifg
p1
I1
sVcyor9z1
p2
I1
s.(dp0
Vd2ew6tq
p1
I1
sVcyor9z1
p2
I1
s.(dp0
Vd2f124l
p1
I1
sVcyor9z1
p2
I1
s.(dp0
Vd2f124l
p1
I1
sVcyor9z1
p2
I1
s.(dp0
Vd2h2l6e
p1
I1
sVcyor9z1
p2
I1
s.(dp0
Vd2k0jth
p1
I1
sVcyor9z1
p2
I1
s.(dp0
Vcyor9z1
p1
I1
sVd2mxaqs
p2
I1
s.(dp0
Vd2n3k74
p1
I1
sVcyor9z1
p2
I1
s.(dp0
Vd2ut4bb
p1
I1
sVcyor9z1
p2
I1
s.(dp0
Vd2zrpan
p1
I1
sVcyor9z1
p2
I1
s.(dp0
Vd30ye6l
p1
I1
sVcyor9z1
p2
I1
s.(dp0
Vd3t7hss
p1
I1
sVcyor9z1
p2
I1
s.(dp0
Vd3t7hss
p1
I1
sVcyor9z1
p2
I1
s.(dp0
Vd3zlab3
p1
I1
sVcyor9z1
p2
I1
s.(dp0
Vd4latpt
p1
I1
sVcyor9z1
p2
I1
s.(dp0
Vcyor9z1
p1
I1
sVd4nhaiu
p2
I1
s.(dp0
Vcyor9z1
p1
I1
sVd4okkyg
p2
I1
s.(dp0
Vd4q69d7
p1
I1
sVcyor9z1
p2
I1
s.(dp0
Vd4q69d7
p1
I1
sVcyor9z1
p2
I1
s.(dp0
Vcyor9z1
p1
I1
sVd4qbmxg
p2
I1
s.(dp0
Vcyor9z1
p1
I1
sVd4qu1pb
p2
I1
s.(dp0
Vd4szkpn
p1
I1
sVcyor9z1
p2
I1
s.(dp0
Vcyor9z1
p1
I1
sVd4t29tw
p2
I1
s.(dp0
Vd4vih7z
p1
I1
sVcyor9z1
p2
I1
s.(dp0
Vd53lu1c
p1
I1
sVcyor9z1
p2
I1
s.(dp0
Vcyor9z1
p1
I1
sVd5h0njf
p2
I1
s.(dp0
Vcyor9z1
p1
I1
sVd5t5aao
p2
I1
s.(dp0
Vcyor9z1
p1
I1
sVd5yrf8c
p2
I1
s.(dp0
Vd65oyq3
p1
I1
sVcyor9z1
p2
I1
s.(dp0
Vcyor9z1
p1
I1
sVd68o2c6
p2
I1
s.(dp0
Vd6fcusp
p1
I1
sVcyor9z1
p2
I1
s.(dp0
Vd6hdjpc
p1
I1
sVcyor9z1
p2
I1
s.(dp0
Vcyor9z1
p1
I1
sVd6n57y3
p2
I1
s.(dp0
Vd6n5m55
p1
I1
sVcyor9z1
p2
I1
s.(dp0
Vd6wxqxd
p1
I1
sVcyor9z1
p2
I1
s.(dp0
Vd7bn7er
p1
I1
sVcyor9z1
p2
I1
s.(dp0
Vd7fihpk
p1
I1
sVcyor9z1
p2
I1
s.(dp0
Vd7gys1i
p1
I1
sVcyor9z1
p2
I1
s.(dp0
Vd7jzqa6
p1
I1
sVcyor9z1
p2
I1
s.(dp0
Vd7jzqa6
p1
I1
sVcyor9z1
p2
I1
s.(dp0
Vcyor9z1
p1
I1
sVd7rfjif
p2
I1
s.(dp0
Vcyor9z1
p1
I1
sVd7s9m56
p2
I1
s.(dp0
Vd8305o8
p1
I1
sVcyor9z1
p2
I1
s.(dp0
Vd83orbt
p1
I1
sVcyor9z1
p2
I1
s.(dp0
Vd8nmkvu
p1
I1
sVcyor9z1
p2
I1
s.(dp0
Vd993jjm
p1
I1
sVcyor9z1
p2
I1
s.(dp0
Vd99dcxt
p1
I1
sVcyor9z1
p2
I1
s.(dp0
Vd9ak6rt
p1
I1
sVcyor9z1
p2
I1
s.(dp0
Vd9b1esf
p1
I1
sVcyor9z1
p2
I1
s.(dp0
Vd9de3pz
p1
I1
sVcyor9z1
p2
I1
s.(dp0
Vd9de3pz
p1
I1
sVcyor9z1
p2
I1
s.(dp0
Vcyor9z1
p1
I1
sVd9eza6b
p2
I1
s.(dp0
Vd9fe98o
p1
I1
sVcyor9z1
p2
I1
s.(dp0
Vd9swovp
p1
I1
sVcyor9z1
p2
I1
s.(dp0
Vda21tx8
p1
I1
sVcyor9z1
p2
I1
s.(dp0
Vdabiwm9
p1
I1
sVcyor9z1
p2
I1
s.(dp0
Vdabiwm9
p1
I1
sVcyor9z1
p2
I1
s.(dp0
Vdadoxk2
p1
I1
sVcyor9z1
p2
I1
s.(dp0
Vcyor9z1
p1
I1
sVdaq3der
p2
I1
s.(dp0
Vcyor9z1
p1
I1
sVdaq3der
p2
I1
s.(dp0
Vcyor9z1
p1
I1
sVdaq3der
p2
I1
s.(dp0
Vdauzyqt
p1
I1
sVcyor9z1
p2
I1
s.(dp0
Vdazsyex
p1
I1
sVcyor9z1
p2
I1
s.(dp0
Vdb7yfcs
p1
I1
sVcyor9z1
p2
I1
s.(dp0
Vcyor9z1
p1
I1
sVdbhpqa2
p2
I1
s.(dp0
Vdbium26
p1
I1
sVcyor9z1
p2
I1
s.(dp0
Vcyor9z1
p1
I1
sVdbqz076
p2
I1
s.(dp0
Vcyor9z1
p1
I1
sVdcc88xg
p2
I1
s.(dp0
Vcyor9z1
p1
I1
sVdcjkfzr
p2
I1
s.(dp0
Vdcn8yed
p1
I1
sVcyor9z1
p2
I1
s.(dp0
Vdcn8yed
p1
I1
sVcy(dp0
Vcyor9z1
p1
I1
sVdtho672
p2
I1
s.