(dp0
Vcyhwj6y
p1
I1
s.(dp0
Vcyiianv
p1
I1
sVcyhwj6y
p2
I1
s.(dp0
Vcykrpxm
p1
I1
sVcyhwj6y
p2
I1
s.(dp0
Vcymyn4o
p1
I1
sVcyhwj6y
p2
I1
s.(dp0
Vcyozfgv
p1
I1
sVcyhwj6y
p2
I1
s.(dp0
Vcyozymb
p1
I1
sVcyhwj6y
p2
I1
s.(dp0
Vcyozymb
p1
I1
sVcyhwj6y
p2
I1
s.(dp0
Vcyq64ov
p1
I1
sVcyhwj6y
p2
I1
s.(dp0
Vcyqwcff
p1
I1
sVcyhwj6y
p2
I1
s.(dp0
Vcyrm1f0
p1
I1
sVcyhwj6y
p2
I1
s.(dp0
Vcysifea
p1
I1
sVcyhwj6y
p2
I1
s.(dp0
Vcyubbog
p1
I1
sVcyhwj6y
p2
I1
s.(dp0
Vcyuw93i
p1
I1
sVcyhwj6y
p2
I1
s.(dp0
Vcyvspxw
p1
I1
sVcyhwj6y
p2
I1
s.(dp0
Vcywsw8s
p1
I1
sVcyhwj6y
p2
I1
s.(dp0
Vcyxe0ok
p1
I1
sVcyhwj6y
p2
I1
s.(dp0
Vcyyqctp
p1
I1
sVcyhwj6y
p2
I1
s.(dp0
Vcyze6tn
p1
I1
sVcyhwj6y
p2
I1
s.(dp0
Vcz2jrri
p1
I1
sVcyhwj6y
p2
I1
s.(dp0
Vcz5558u
p1
I1
sVcyhwj6y
p2
I1
s.(dp0
Vcz5s22z
p1
I1
sVcyhwj6y
p2
I1
s.(dp0
Vcz5s22z
p1
I1
sVcyhwj6y
p2
I1
s.(dp0
Vcz5s22z
p1
I1
sVcyhwj6y
p2
I1
s.(dp0
Vcz5s22z
p1
I1
sVcyhwj6y
p2
I1
s.(dp0
Vcz5wn20
p1
I1
sVcyhwj6y
p2
I1
s.(dp0
Vcz5wn20
p1
I1
sVcyhwj6y
p2
I1
s.(dp0
Vcz5wn20
p1
I1
sVcyhwj6y
p2
I1
s.(dp0
Vcz7l4uc
p1
I1
sVcyhwj6y
p2
I1
s.(dp0
Vcz8lipv
p1
I1
sVcyhwj6y
p2
I1
s.(dp0
Vcz8lipv
p1
I1
sVcyhwj6y
p2
I1
s.(dp0
Vczbaqvm
p1
I1
sVcyhwj6y
p2
I1
s.(dp0
Vczc72sj
p1
I1
sVcyhwj6y
p2
I1
s.(dp0
Vczdccvc
p1
I1
sVcyhwj6y
p2
I1
s.(dp0
Vczdcj9k
p1
I1
sVcyhwj6y
p2
I1
s.(dp0
Vczexbif
p1
I1
sVcyhwj6y
p2
I1
s.(dp0
Vczg15q5
p1
I1
sVcyhwj6y
p2
I1
s.(dp0
Vczg5reo
p1
I1
sVcyhwj6y
p2
I1
s.(dp0
Vczl1z2s
p1
I1
sVcyhwj6y
p2
I1
s.(dp0
Vczlpoh5
p1
I1
sVcyhwj6y
p2
I1
s.(dp0
Vczm40rg
p1
I1
sVcyhwj6y
p2
I1
s.(dp0
Vczo98rl
p1
I1
sVcyhwj6y
p2
I1
s.(dp0
Vczrzz06
p1
I1
sVcyhwj6y
p2
I1
s.(dp0
Vczrzz06
p1
I1
sVcyhwj6y
p2
I1
s.(dp0
Vczrzz06
p1
I1
sVcyhwj6y
p2
I1
s.(dp0
Vczsvy2j
p1
I1
sVcyhwj6y
p2
I1
s.(dp0
Vczt6e1w
p1
I1
sVcyhwj6y
p2
I1
s.(dp0
Vcztd9z0
p1
I1
sVcyhwj6y
p2
I1
s.(dp0
Vczw0s6w
p1
I1
sVcyhwj6y
p2
I1
s.(dp0
Vczwvsp4
p1
I1
sVcyhwj6y
p2
I1
s.(dp0
Vczyskrx
p1
I1
sVcyhwj6y
p2
I1
s.(dp0
Vd00c45b
p1
I1
sVcyhwj6y
p2
I1
s.(dp0
Vd00h92y
p1
I1
sVcyhwj6y
p2
I1
s.(dp0
Vd00r7ld
p1
I1
sVcyhwj6y
p2
I1
s.(dp0
Vd00r7ld
p1
I1
sVcyhwj6y
p2
I1
s.(dp0
Vd00r7ld
p1
I1
sVcyhwj6y
p2
I1
s.(dp0
Vd00s5u6
p1
I1
sVcyhwj6y
p2
I1
s.(dp0
Vd00u5h8
p1
I1
sVcyhwj6y
p2
I1
s.(dp0
Vd01kci2
p1
I1
sVcyhwj6y
p2
I1
s.(dp0
Vd01r72t
p1
I1
sVcyhwj6y
p2
I1
s.(dp0
Vd026vzn
p1
I1
sVcyhwj6y
p2
I1
s.(dp0
Vd026vzn
p1
I1
sVcyhwj6y
p2
I1
s.(dp0
Vd02vfbx
p1
I1
sVcyhwj6y
p2
I1
s.(dp0
Vd04or9q
p1
I1
sVcyhwj6y
p2
I1
s.(dp0
Vd04or9q
p1
I1
sVcyhwj6y
p2
I1
s.(dp0
Vd07mmlx
p1
I1
sVcyhwj6y
p2
I1
s.(dp0
Vd089i7j
p1
I1
sVcyhwj6y
p2
I1
s.(dp0
Vd0bs7ug
p1
I1
sVcyhwj6y
p2
I1
s.(dp0
Vd0cla8x
p1
I1
sVcyhwj6y
p2
I1
s.(dp0
Vd0covsr
p1
I1
sVcyhwj6y
p2
I1
s.(dp0
Vd0d2jd3
p1
I1
sVcyhwj6y
p2
I1
s.(dp0
Vd0d2na0
p1
I1
sVcyhwj6y
p2
I1
s.(dp0
Vd0d2na0
p1
I1
sVcyhwj6y
p2
I1
s.(dp0
Vd0d2na0
p1
I1
sVcyhwj6y
p2
I1
s.(dp0
Vd0ddy49
p1
I1
sVcyhwj6y
p2
I1
s.(dp0
Vd0ddy49
p1
I1
sVcyhwj6y
p2
I1
s.(dp0
Vd0ilh7u
p1
I1
sVcyhwj6y
p2
I1
s.(dp0
Vd0j2kke
p1
I1
sVcyhwj6y
p2
I1
s.(dp0
Vd0kn6b4
p1
I1
sVcyhwj6y
p2
I1
s.(dp0
Vd0knyta
p1
I1
sVcyhwj6y
p2
I1
s.(dp0
Vd0l5idi
p1
I1
sVcyhwj6y
p2
I1
s.(dp0
Vd0lj8yc
p1
I1
sVcyhwj6y
p2
I1
s.(dp0
Vd0m12hv
p1
I1
sVcyhwj6y
p2
I1
s.(dp0
Vd0m12hv
p1
I1
sVcyhwj6y
p2
I1
s.(dp0
Vd0n3f3d
p1
I1
sVcyhwj6y
p2
I1
s.(dp0
Vd0rrn8w
p1
I1
sVcyhwj6y
p2
I1
s.(dp0
Vd0sz5g8
p1
I1
sVcyhwj6y
p2
I1
s.(dp0
Vd0taxpl
p1
I1
sVcyhwj6y
p2
I1
s.(dp0
Vd0vmvy0
p1
I1
sVcyhwj6y
p2
I1
s.(dp0
Vd0x9bkc
p1
I1
sVcyhwj6y
p2
I1
s.(dp0
Vd10oytu
p1
I1
sVcyhwj6y
p2
I1
s.(dp0
Vd12n2x0
p1
I1
sVcyhwj6y
p2
I1
s.(dp0
Vd177xni
p1
I1
sVcyhwj6y
p2
I1
s.(dp0
Vd1bdh4u
p1
I1
sVcyhwj6y
p2
I1
s.(dp0
Vd1c34eh
p1
I1
sVcyhwj6y
p2
I1
s.(dp0
Vd1dmdu7
p1
I1
sVcyhwj6y
p2
I1
s.(dp0
Vd1dziwk
p1
I1
sVcyhwj6y
p2
I1
s.(dp0
Vd1e9asb
p1
I1
sVcyhwj6y
p2
I1
s.(dp0
Vd1f46yx
p1
I1
sVcyhwj6y
p2
I1
s.(dp0
Vd1gn3zn
p1
I1
sVcyhwj6y
p2
I1
s.(dp0
Vd1h6epx
p1
I1
sVcyhwj6y
p2
I1
s.(dp0
Vd1m3b5z
p1
I1
sVcyhwj6y
p2
I1
s.(dp0
Vd1o037d
p1
I1
sVcyhwj6y
p2
I1
s.(dp0
Vd1tv38h
p1
I1
sVcyhwj6y
p2
I1
s.(dp0
Vd1vnifv
p1
I1
sVcyhwj6y
p2
I1
s.(dp0
Vd1vnifv
p1
I1
sVcyhwj6y
p2
I1
s.(dp0
Vd1vnifv
p1
I1
sVcyhwj6y
p2
I1
s.(dp0
Vd1w0xas
p1
I1
sVcyhwj6y
p2
I1
s.(dp0
Vd1w0xas
p1
I1
sVcyhwj6y
p2
I1
s.(dp0
Vd1(dp0
Vdtjejl7
p1
I1
sVcyhwj6y
p2
I1
s.