(dp0
Vdk8cf93
p1
I1
sVddexsp0
p2
I1
sVd4m2712
p3
I1
sVcz4l7dr
p4
I1
sVdggok1b
p5
I1
sVdpesv31
p6
I1
sVdig3whu
p7
I1
sVdq3torq
p8
I1
sVd9ads0k
p9
I1
sVd5js5ow
p10
I1
sVdehlogs
p11
I1
sVdhdp9h4
p12
I1
sVd35t91f
p13
I1
sVddgv0ag
p14
I1
sVd6ftfqu
p15
I1
sVdre0oz9
p16
I1
sVdo5xq3z
p17
I1
sVdmmc2se
p18
I1
sVcz28ko1
p19
I1
sVdsp23sh
p20
I1
sVdhx445q
p21
I1
sVdplmv73
p22
I1
sVdhjl6kk
p23
I1
sVd83iy8i
p24
I1
sVdk6d4b2
p25
I1
sVdbsxpza
p26
I1
sVd1pgypv
p27
I1
sVd3zcl86
p28
I1
sVdjti4ik
p29
I1
sVd8sh8sh
p30
I1
sVdcv3cps
p31
I1
sVd8alzfk
p32
I1
sVdejq689
p33
I1
sVd6yq7a9
p34
I1
sVd3p76rr
p35
I1
sVdb8f7ol
p36
I1
sVd3kr63m
p37
I1
sVdgafsfb
p38
I1
sVdfgyguk
p39
I1
sVdjsdbtx
p40
I1
sVd53ptdz
p41
I1
sVcyjhs5k
p42
I1
sVds0k6hp
p43
I1
sVd9al5gq
p44
I1
sVcz2knxn
p45
I1
sVd00g5om
p46
I1
sVdf95nh2
p47
I1
sVdd6w1ja
p48
I1
sVdnnsfb4
p49
I1
sVdsr7hzf
p50
I1
sVczfbgm4
p51
I1
sVd3t7yha
p52
I1
sVdbvzyx8
p53
I1
sVdadpoiu
p54
I2
sVdd6xarg
p55
I1
sVd2ebt8o
p56
I2
sVd2qj4m4
p57
I1
sVdbbvup1
p58
I1
sVddvbdox
p59
I1
sVd97edfp
p60
I2
sVd4mq9ld
p61
I1
sVdnh652i
p62
I2
sVda9kdmo
p63
I1
sVdeul9hn
p64
I1
sVcyrqrjy
p65
I1
sVd1j5gb1
p66
I1
sVdc3hrty
p67
I1
sVdtc5tdk
p68
I1
sVdad6b3t
p69
I1
sVczwdsg8
p70
I1
sVdh9x53b
p71
I1
sVdmf0wcz
p72
I1
sVd9n026l
p73
I2
sVd12c0y7
p74
I1
s.