(dp0
Vdr8li74
p1
I2
sVdmumr5y
p2
I1
sVd0d4fff
p3
I1
sVcz5c8fn
p4
I1
sVd4sghox
p5
I1
sVds4x3ad
p6
I1
sVd0d85sk
p7
I1
sVd2ay7pb
p8
I1
sVd3y32kx
p9
I1
sVd00gb2m
p10
I1
sVdjg2mq7
p11
I1
sVdgf4yj5
p12
I1
sVczy46hc
p13
I1
sVdmuqvni
p14
I1
sVd4t6pez
p15
I1
sVdr8r3nd
p16
I5
sVdgem8d3
p17
I1
sVdbg54up
p18
I1
sVdftslz9
p19
I1
sVd64h0ol
p20
I1
sVdf02gdi
p21
I1
sVd0ahg1k
p22
I1
sVczni0rx
p23
I1
sVdi56a5l
p24
I1
sVd3o32rj
p25
I1
sVdjokwtf
p26
I1
sVczy64tb
p27
I1
sVdg8hz4h
p28
I1
sVd8ivzoh
p29
I1
sVde7sfij
p30
I2
sVd1iwt6d
p31
I2
sVd1hs2nd
p32
I1
sVdbyd088
p33
I1
sVd3mck5s
p34
I1
sVczw5acc
p35
I1
sVdfoa7i3
p36
I1
sVd67phzf
p37
I1
sVdf9ygbg
p38
I1
sVdi0nca8
p39
I1
sVczw0s6w
p40
I1
sVd3b0kes
p41
I1
sVdarwc6j
p42
I1
sVd4u7y1s
p43
I1
sVd8d4zcc
p44
I1
sVdi11fi3
p45
I1
sVd0nwjv9
p46
I1
sVd7i59lc
p47
I1
sVdgj58kt
p48
I1
sVdbnmxri
p49
I1
sVdhe6fal
p50
I1
sVczx3ke5
p51
I2
sVd0ggu4a
p52
I1
sVd6sqbkm
p53
I1
sVdf9ykg4
p54
I1
sVdfibst4
p55
I1
sVdio8pt7
p56
I1
sVdi91qtf
p57
I1
sVds92vpq
p58
I1
sVddgwabv
p59
I1
sVd7q6l9h
p60
I1
sVd595dab
p61
I1
sVd4r0wk9
p62
I2
sVd4r19ou
p63
I1
sVdaijadn
p64
I1
sVd41a3uo
p65
I1
sVdac6j11
p66
I1
sVcz45hzm
p67
I1
sVd080vnz
p68
I1
sVd0pagyc
p69
I1
sVd1515wa
p70
I1
sVd6p7a3r
p71
I1
sVd3mmkwa
p72
I1
sVdh35utd
p73
I1
sVd5a9cwg
p74
I1
sVdcvnk24
p75
I1
sVdrlk9cl
p76
I1
sVdfty91k
p77
I1
sVd6c63he
p78
I1
sVd2bzffy
p79
I1
sVdejzbsn
p80
I1
sVdei27vv
p81
I1
sVd1i82xl
p82
I1
sVdc38hx9
p83
I1
sVczwauh2
p84
I1
sVdd0c62i
p85
I1
sVdctfi42
p86
I1
sVdq63huc
p87
I1
sVd865qle
p88
I1
sVdsow8g2
p89
I1
sVd1xo0z7
p90
I1
sVdidy03l
p91
I1
sVdmlxt8q
p92
I1
sVd3jlpa8
p93
I1
sVdrqh34b
p94
I1
sVd9tbs53
p95
I1
sVddtv98r
p96
I1
sVd2gppf3
p97
I1
sVdgon4zn
p98
I1
sVd96u64u
p99
I1
sVdqorhrs
p100
I1
sVd7cmr9a
p101
I1
sVdnh6qa6
p102
I3
sVd0ptu8j
p103
I1
sVdspmbuf
p104
I1
sVd414o2h
p105
I1
sVdsqpti0
p106
I1
sVd60618d
p107
I1
sVdaig3re
p108
I2
sVdezwe4w
p109
I1
sVdgq0ga5
p110
I1
sVd967n1g
p111
I1
sVdkn5fch
p112
I1
sVdd3xtaf
p113
I1
sVczu0v8n
p114
I1
sVdbn4n8g
p115
I1
sVd24x7pa
p116
I1
sVdqst4ky
p117
I1
sVdfa486r
p118
I1
sVd5n65mh
p119
I1
sVdisymso
p120
I1
sVdr414k8
p121
I1
sVdcy9tmi
p122
I1
sVcyxegi7
p123
I1
sVdeo91nw
p124
I1
sVdfrxlv8
p125
I1
sVczlnddb
p126
I1
sVd031cq9
p127
I1
sVczxb2cu
p128
I4
sVdblyw6u
p129
I1
sVd0l20ok
p130
I1
sVdpk64r5
p131
I1
sVdb3h3qc
p132
I1
sVdaia97f
p133
I1
sVd0r2md0
p134
I1
sVdn2i944
p135
I2
sVdjkkax5
p136
I1
sVd93056f
p137
I1
sVdf034gu
p138
I2
sVd3ylbpj
p139
I1
sVczwg27o
p140
I1
sVczbep5e
p141
I1
sVczyoe1i
p142
I1
sVdkmf0ep
p143
I1
sVdnglxhz
p144
I1
sVdrywexu
p145
I1
sVd7aa4cz
p146
I1
sVd9d32nq
p147
I2
sVczzyfpp
p148
I2
sVdn2pyp3
p149
I1
sVdq7g98z
p150
I1
sVd0lfmma
p151
I1
sVcz4qwdb
p152
I1
sVdjrd1ga
p153
I1
sVdijxlp1
p154
I1
sVd5sqh8m
p155
I1
sVdt472pk
p156
I1
sVdd3fgf8
p157
I1
sVdfwh8ep
p158
I1
sVd10tpvc
p159
I1
sVcyp8hkl
p160
I2
sVdo94mv3
p161
I1
sVd5vp9il
p162
I1
sVdgj3me7
p163
I1
sVd5bynfi
p164
I1
sVczsn7bw
p165
I1
sVczw4b1q
p166
I2
sVdb3ha3x
p167
I1
s.