(dp0
Vdavwizh
p1
I1
sVcztfwyo
p2
I2
sVddsvib9
p3
I1
sVdi4dpr4
p4
I1
sVdfcw6vp
p5
I1
sVd3jcfbq
p6
I1
sVddnfckx
p7
I1
sVda6odk8
p8
I1
sVdecd2um
p9
I1
sVdbprilg
p10
I1
sVczbtdtj
p11
I1
sVdb2lut9
p12
I1
sVdn5lb6m
p13
I2
sVcykeyc6
p14
I1
sVdmm59vw
p15
I1
sVd96stcr
p16
I1
sVczv4m53
p17
I1
sVdi6n39s
p18
I1
sVdezfzzs
p19
I1
sVd0xvnuu
p20
I3
sVdis6kvr
p21
I1
sVdbbser5
p22
I4
sVdg8a1cq
p23
I1
sVdgrmjmx
p24
I1
sVcysy99o
p25
I1
sVdmfwruy
p26
I1
sVd3uckqh
p27
I5
sVd3dv3jf
p28
I1
sVdn539jd
p29
I1
sVd63bw56
p30
I1
sVdk4p001
p31
I1
sVdbbt8lw
p32
I1
sVd1xod4h
p33
I1
sVd244v38
p34
I1
sVd55aw8g
p35
I2
sVdo2twr6
p36
I1
sVd23plv7
p37
I2
sVdn3de3n
p38
I2
sVdri3tya
p39
I1
sVdr47n3g
p40
I1
sVdr2ha9a
p41
I1
sVd0o68nv
p42
I1
sVdkoz4cz
p43
I2
sVd63bbmy
p44
I1
sVdmm6ew3
p45
I3
sVczral9c
p46
I2
sVd257v6h
p47
I1
sVdf2bjkv
p48
I1
sVdckp2hb
p49
I1
sVd8j4ftt
p50
I1
sVdbsrp7i
p51
I1
sVd3vdo91
p52
I1
sVda0m9fv
p53
I1
sVdgxi5u3
p54
I1
sVd6nd48g
p55
I1
sVdfwc3sh
p56
I1
sVdhjksbs
p57
I1
sVdbbtz2t
p58
I5
sVd1qj4jq
p59
I1
sVdd258x0
p60
I1
sVdaa1vpo
p61
I1
sVcz5oneo
p62
I1
sVd087kff
p63
I1
sVd9cgqcd
p64
I1
sVdfyae9b
p65
I1
sVd12b5n1
p66
I1
sVdi9h82p
p67
I1
sVdod30sa
p68
I2
sVdsaf8ar
p69
I2
sVdbbtg33
p70
I1
sVdoytg80
p71
I1
s.