(dp0
Vd18ck25
p1
I1
sVdj4qqk5
p2
I1
sVdes7bkr
p3
I1
sVdp3ja1s
p4
I1
sVdkbfq1g
p5
I1
sVddnuz1m
p6
I1
sVd8bwdl8
p7
I1
sVdd5zom9
p8
I1
sVddxcnnd
p9
I1
sVdfihx1r
p10
I1
sVd41es5i
p11
I1
sVdetjqvw
p12
I1
sVczz240l
p13
I1
sVcykl3xa
p14
I1
sVdgsf7ux
p15
I1
sVdhajryi
p16
I1
sVdjk8wxl
p17
I1
sVd10jwje
p18
I1
sVcz7so2b
p19
I1
s.