(dp0
Vdj7euk9
p1
I1
sVdrswb1m
p2
I4
sVcyrgm92
p3
I2
sVcyu3mai
p4
I1
sVdmzc1w2
p5
I1
sVd24r5kg
p6
I1
sVdg4baqk
p7
I1
sVdgy42qx
p8
I6
sVdewlahv
p9
I2
sVdrlswec
p10
I1
sVdd42ho6
p11
I1
sVdb58ddm
p12
I1
sVdf4mzge
p13
I1
sVd9c1n7w
p14
I1
sVdc8uewe
p15
I1
sVd20hyk1
p16
I2
sVdcikc7d
p17
I1
sVdo0cp1a
p18
I1
sVdg1gapl
p19
I1
sVdmiow3z
p20
I2
sVd7b4gna
p21
I1
sVdesbmyd
p22
I1
sVd2n3rmm
p23
I1
sVdpor0ok
p24
I2
sVdrkc5oc
p25
I1
sVdgydkys
p26
I1
sVd2b3txi
p27
I1
sVd6m2h0g
p28
I1
sVdjv0pty
p29
I1
sVdnpmy9v
p30
I1
sVdqsw3lf
p31
I1
sVd5vz6xd
p32
I2
sVdpeqlcw
p33
I1
sVdo0i6sg
p34
I1
sVdd9jwzw
p35
I1
sVd66dwmv
p36
I1
sVczqchck
p37
I1
sVd1wdr1s
p38
I1
sVdjudvuq
p39
I1
sVdkq6uzz
p40
I2
sVd2pewpb
p41
I1
sVd33fxiv
p42
I6
sVdhmnagt
p43
I1
sVdgx7v7y
p44
I3
sVdeia2i2
p45
I1
sVdhe652q
p46
I1
sVd4g797m
p47
I2
sVdhixr0x
p48
I1
sVd4px0zl
p49
I1
sVde7n26v
p50
I1
sVdp9lbdi
p51
I1
sVczqif75
p52
I1
sVdpore3n
p53
I7
sVd94j8b2
p54
I1
sVd3lk2sg
p55
I1
sVdc8kcte
p56
I1
sVdr47jbb
p57
I2
sVd7fjxjg
p58
I4
sVd5h53oh
p59
I1
sVd0hwmoh
p60
I2
sVdgm0r3d
p61
I1
sVdpoaq0r
p62
I1
sVde3w090
p63
I2
sVdn9mpl9
p64
I1
sVdhplpea
p65
I1
sVd0p4zj1
p66
I1
sVdqbl7aj
p67
I1
sVdn6l0rq
p68
I1
sVdklj4pj
p69
I1
sVdo4r1im
p70
I1
sVdfskvlp
p71
I1
sVda6wqgo
p72
I1
sVd3nvmrk
p73
I1
sVdmioqsw
p74
I1
sVdq6w0jp
p75
I1
sVdgx6v96
p76
I1
sVdc3r4f1
p77
I1
sVddezlfv
p78
I5
sVd6tshzw
p79
I1
sVddok9gr
p80
I1
sVdgxjjkm
p81
I1
sVde28e8s
p82
I1
sVdcj0e8q
p83
I1
sVd6cfx1i
p84
I1
sVdk8115w
p85
I1
sVdmiosd3
p86
I1
sVdo09hx8
p87
I3
sVd9y7jtm
p88
I1
sVdsrn87q
p89
I1
sVd38gffr
p90
I2
sVdcf50y7
p91
I2
sVd1jqjvw
p92
I1
sVdrn1sm3
p93
I1
sVd98wu3h
p94
I1
sVcynsojw
p95
I1
sVdg5e07m
p96
I1
sVd7tqnp9
p97
I1
sVdfpbswx
p98
I1
sVdmvqm5y
p99
I1
sVdhlr6cn
p100
I1
sVd36v3cf
p101
I1
sVd3jrol7
p102
I1
sVdhlyy7m
p103
I3
sVd3kny6i
p104
I1
sVd5mgu9g
p105
I1
sVd61ume3
p106
I2
sVcz6zllb
p107
I1
sVdo0c1bn
p108
I4
sVdc6duw6
p109
I1
sVdbx4wcz
p110
I1
sVddmh68j
p111
I1
sVdpp018p
p112
I1
sVd1wdo04
p113
I2
sVdeh8nb4
p114
I1
sVdkq6sv2
p115
I1
sVdpyfvnr
p116
I1
sVdt3c082
p117
I2
sVczqfrab
p118
I2
sVdfpbq2a
p119
I2
sVdi5sn8m
p120
I2
sVd1b29gs
p121
I2
sVd25btqo
p122
I1
sVd5a39w0
p123
I1
sVdiqrb4b
p124
I1
sVdgthaft
p125
I2
sVdem5hh9
p126
I1
sVdd2hd8m
p127
I1
sVdgxjkjg
p128
I1
sVdf7wswi
p129
I1
s.