(dp0
Vd4788t7
p1
I1
sVdflme0f
p2
I1
sVdi4v9cg
p3
I1
sVdr06l8l
p4
I1
sVdgoj44t
p5
I2
sVd8g5mad
p6
I1
sVd42lwtg
p7
I2
sVdoygg1t
p8
I1
sVdggmipt
p9
I1
sVd7u7qri
p10
I2
sVd3d6yr5
p11
I3
sVd2i9tmh
p12
I1
sVd60pfcx
p13
I1
sVd386anh
p14
I1
sVde59nu1
p15
I1
sVd4yytpj
p16
I1
sVcyx55zk
p17
I1
sVdev0os3
p18
I1
sVd107mmu
p19
I1
sVdq0fdef
p20
I1
sVd34wvl3
p21
I1
sVd6h24mi
p22
I1
sVczkbtjn
p23
I1
sVd9yym5t
p24
I1
sVd9siva3
p25
I1
sVczy5sc4
p26
I1
sVd863h14
p27
I1
sVcylmova
p28
I1
sVdf1x9g2
p29
I3
sVdfksyjg
p30
I2
sVdrfofvs
p31
I2
sVd2jzklq
p32
I2
sVd9wb4og
p33
I1
sVdaxj5do
p34
I3
sVdfx9moh
p35
I1
sVdcxip0n
p36
I1
sVddhi2ky
p37
I1
sVd8l49rb
p38
I2
sVdivp5pp
p39
I1
sVdokkpus
p40
I1
sVd6cbfve
p41
I1
sVd7z6q91
p42
I1
sVd73j9c3
p43
I2
sVddjty0g
p44
I5
sVdqvbphd
p45
I2
sVddjb069
p46
I2
sVdf5kni2
p47
I1
sVdgori8l
p48
I3
sVd2ih6kp
p49
I1
sVd773djf
p50
I1
sVdrvuhp9
p51
I1
sVczv61d5
p52
I1
sVdbbzxp8
p53
I1
sVczf1hys
p54
I1
sVdg9covu
p55
I1
sVdizmqgn
p56
I1
sVdhay13x
p57
I1
sVd4i3iu6
p58
I1
sVczv5z7h
p59
I1
sVd3fgfy5
p60
I1
sVdc6pibk
p61
I1
sVdbv2s4q
p62
I1
sVdgmzk8h
p63
I2
sVd0crz6p
p64
I1
sVddypnxi
p65
I1
sVd9va66g
p66
I1
sVdteph92
p67
I1
sVde7ni9n
p68
I1
sVczm6izy
p69
I1
sVd47bg6k
p70
I1
sVczhdc40
p71
I1
sVdndo4p5
p72
I2
sVcyidh07
p73
I2
sVd4gy3fv
p74
I1
sVdd9kdhb
p75
I2
sVd2ex0wk
p76
I1
sVdi3vmbb
p77
I1
sVdhp9t4c
p78
I1
sVd5d6bzv
p79
I2
sVdc8z7na
p80
I1
sVdiik0wn
p81
I1
sVd3auh3o
p82
I1
sVczkimil
p83
I3
sVd08a1fr
p84
I1
sVdb381vn
p85
I4
sVdco194a
p86
I3
sVdizufuw
p87
I1
sVdq86mhy
p88
I2
sVd2vf9bv
p89
I1
sVdk70439
p90
I1
sVddr4a6t
p91
I1
sVd98z1d9
p92
I1
sVd1jzegs
p93
I2
sVddtx3qr
p94
I3
sVd0ua3e2
p95
I1
sVdd71i43
p96
I1
sVd6gog6l
p97
I1
sVdqiak0x
p98
I1
sVdj1ayt3
p99
I1
sVdf9obt3
p100
I1
sVdivnwt0
p101
I2
sVd75um0g
p102
I1
sVd8qa1ml
p103
I1
sVdcqdtzb
p104
I1
sVdfa830e
p105
I1
sVd7vc90l
p106
I1
sVdircmnb
p107
I1
sVdhqulyr
p108
I1
sVderdv1a
p109
I1
sVd7zzcou
p110
I1
sVdixzocg
p111
I1
sVd2g4jj2
p112
I1
sVd9k4jxp
p113
I1
sVdin0hrz
p114
I1
sVd8td3rg
p115
I2
sVdinnx9i
p116
I1
sVd4emoby
p117
I4
sVd1rxcg6
p118
I1
sVd4m7re5
p119
I1
sVdefbvy5
p120
I1
sVd1hk0a7
p121
I1
sVd3gzxo6
p122
I2
sVd9c3hki
p123
I1
sVd2bwc06
p124
I1
sVd3kkha2
p125
I1
sVda1yhrc
p126
I1
sVdibhhuh
p127
I2
sVdh09ctt
p128
I1
sVd8d0qfd
p129
I2
sVdali7nh
p130
I1
sVdd5jp86
p131
I1
sVd01o7z1
p132
I1
sVcz13ajt
p133
I1
sVdfh5zwk
p134
I4
sVda3u1yg
p135
I1
sVd82bisn
p136
I1
sVd9ohtqq
p137
I1
sVcypsu7b
p138
I1
sVd1gx3ld
p139
I1
sVdckapqo
p140
I2
sVddla50c
p141
I1
sVd8ydsp2
p142
I1
sVdb7l10r
p143
I1
sVd014ctk
p144
I1
sVdph44v2
p145
I1
sVczuyzyq
p146
I1
sVd9ohj53
p147
I1
sVd8ljyud
p148
I1
sVd6prs6w
p149
I1
sVd12weq3
p150
I1
sVdfbm6ql
p151
I1
sVdeswkjw
p152
I1
sVd7b0f5x
p153
I1
sVdaid09m
p154
I1
sVd8c1f7o
p155
I1
sVdf02j8c
p156
I1
sVd02juy2
p157
I2
sVdd8hcyz
p158
I1
sVd0yuwd5
p159
I3
sVdmu4829
p160
I1
sVdeaht0m
p161
I1
sVdqpbwgy
p162
I4
sVcykf5pi
p163
I1
sVdgb6fbq
p164
I1
sVczw7njt
p165
I1
sVdei0v9i
p166
I1
sVdbqqqoa
p167
I1
sVd2663xv
p168
I1
sVdiof2ii
p169
I4
sVdh48m10
p170
I1
sVd5mj62e
p171
I1
sVcyhvj7m
p172
I1
sVdfgsibx
p173
I1
sVdepo0k5
p174
I3
sVdcroqlr
p175
I1
sVdfk1vsm
p176
I1
sVdnbb408
p177
I1
sVdqrniue
p178
I7
sVd1maau7
p179
I1
sVd6vkpge
p180
I1
sVdam2t5i
p181
I1
sVddchpeq
p182
I1
sVdcy1s2f
p183
I1
sVdd770xm
p184
I1
sVdq0eys2
p185
I1
sVdi521kj
p186
I1
sVd9q89a2
p187
I1
sVd1yi3nu
p188
I1
sVd2tlojh
p189
I2
sVczsdt70
p190
I3
sVdjyt5dy
p191
I1
sVds008zc
p192
I1
sVd18xiug
p193
I1
sVd9eza6b
p194
I1
sVd3gqkl1
p195
I1
sVd40za02
p196
I1
sVdgcgqhv
p197
I1
sVdr9c7xk
p198
I1
sVd0h2la8
p199
I2
sVd0ur3ll
p200
I9
sVd50yafh
p201
I1
sVd8m0wxs
p202
I2
sVd0bkspk
p203
I1
sVd6e7stg
p204
I1
sVd8vcoze
p205
I1
sVdekyqdp
p206
I1
sVdew0z4n
p207
I1
sVdhf6dw2
p208
I1
sVdhc54vk
p209
I1
sVcyhylo3
p210
I1
sVdfvkf72
p211
I1
sVdb67dw3
p212
I2
sVczf1puz
p213
I1
sVd9fokwi
p214
I2
sVd4greu9
p215
I2
sVd2tsr2f
p216
I1
sVdbnupxw
p217
I1
sVda1xhz3
p218
I1
sVd9iitga
p219
I2
sVcznxf86
p220
I1
sVd1f08ag
p221
I1
sVdj9mvkg
p222
I1
sVcypi2re
p223
I1
sVd1d85gg
p224
I1
sVd33fox0
p225
I1
sVd2p065y
p226
I4
sVd4uroiy
p227
I1
sVczkmusz
p228
I1
sVd8jda9f
p229
I1
sVd6csv4z
p230
I1
sVd5uykx8
p231
I1
sVdftl0yo
p232
I1
sVdteldka
p233
I2
sVdrfol5l
p234
I1
sVd7q87kk
p235
I1
sVczz1av0
p236
I1
sVddwn3xj
p237
I1
sVd0180jk
p238
I1
sVd0h00jh
p239
I1
sVd2hyys7
p240
I3
sVdq9b0hi
p241
I1
sVd149hn1
p242
I1
sVdk30vv0
p243
I1
sVdd62eot
p244
I3
sVdd3cfxh
p245
I1
sVd0c3pvk
p246
I1
sVcykn51n
p247
I1
sVdf1tgug
p248
I1
sVdmx91r2
p249
I2
sVcywfqha
p250
I1
sVd45n5kl
p251
I1
sVdf9ccs8
p252
I1
sVdc1hpt4
p253
I1
sVd25krfi
p254
I1
sVd2b06t0
p255
I1
sVczvzcu2
p256
I1
sVd1jqwoe
p257
I1
sVdnmzarb
p258
I1
sVdctbmlh
p259
I1
sVcynrmwy
p260
I1
sVdinzqol
p261
I4
sVdbia5ov
p262
I1
sVde16v9u
p263
I1
sVddlaka4
p264
I3
sVd0b5s9x
p265
I1
sVdn1looq
p266
I2
sVd0tel5c
p267
I1
sVdco2q3j
p268
I2
sVd2v4iak
p269
I1
sVdi4uqa1
p270
I1
sVd9grq05
p271
I2
sVdgez0br
p272
I2
sVd3nzk5e
p273
I1
sVdn6miuv
p274
I1
sVdkgqxf9
p275
I3
sVdetk9qs
p276
I1
sVdnel0l1
p277
I1
sVdemid34
p278
I1
sVdjwnoem
p279
I3
sVd8502ok
p280
I1
sVcyiw680
p281
I3
sVd4a739b
p282
I4
sVdd4rok0
p283
I2
sVdghe13e
p284
I1
sVd8tvakl
p285
I2
sVd1ea233
p286
I2
sVditcj0s
p287
I1
sVd79embz
p288
I1
sVcytwvos
p289
I1
sVdcseesm
p290
I1
sVdd5yf2h
p291
I3
sVdd0zxyk
p292
I1
sVd53egq6
p293
I1
sVd62q2z1
p294
I1
sVcyu5xwp
p295
I2
sVd0w8ykq
p296
I1
sVczrnsi5
p297
I1
sVd0r668h
p298
I3
sVd0b6z9h
p299
I1
sVdqmyp31
p300
I1
sVczep9iv
p301
I1
sVdo1b27j
p302
I1
sVdnjhse7
p303
I2
sVd83r4y7
p304
I2
sVdmi94tz
p305
I1
sVczqhllt
p306
I1
sVczujmgl
p307
I1
sVd4yxtt9
p308
I1
sVddi5w0x
p309
I1
sVd5xo1kr
p310
I1
sVd5o9sji
p311
I1
sVdmug7ob
p312
I1
sVczkwas0
p313
I4
sVd5xh14x
p314
I1
sVd2emkx0
p315
I1
sVd1lldyj
p316
I1
sVdpkf0vv
p317
I2
sVd1q9k8z
p318
I1
sVdtafcnw
p319
I2
sVddnzhc9
p320
I2
sVdiahc9j
p321
I1
sVddlky52
p322
I1
sVd1k3gaz
p323
I2
sVdd6sxje
p324
I1
sVd14897b
p325
I1
sVd9esbb2
p326
I1
sVdr6paxq
p327
I1
sVd5x71tl
p328
I1
sVd8yd8ja
p329
I1
sVczt1cyn
p330
I2
sVd9r3iik
p331
I1
sVd5u8zme
p332
I2
sVcztzi0v
p333
I1
sVdclquzv
p334
I1
sVdicu6qj
p335
I2
sVd4jg59e
p336
I8
sVd580pbz
p337
I1
sVddwt7yh
p338
I1
sVdettbwt
p339
I1
sVd4yx8q7
p340
I1
sVdhchx4a
p341
I1
sVd1k6dch
p342
I1
sVdfurdcy
p343
I2
sVd6yr6cj
p344
I1
sVdb5juap
p345
I1
sVdhal4ds
p346
I1
sVd16s6qh
p347
I1
sVd0eydq3
p348
I1
sVd7tczs3
p349
I2
sVd1g3xaa
p350
I1
sVda1qlgz
p351
I1
sVddomcqc
p352
I1
sVd26gvtf
p353
I1
sVcyvvv9y
p354
I1
sVdr9lju3
p355
I1
sVd0asuk1
p356
I1
sVd8tacb6
p357
I1
sVczht9q8
p358
I1
sVdgcuj9w
p359
I1
sVd8a74e7
p360
I2
sVdazi0ql
p361
I1
sVday73pj
p362
I1
sVd4nhp1e
p363
I1
sVda1x4c0
p364
I1
sVdqubw1v
p365
I1
sVd1rzwt1
p366
I1
sVd1q30ha
p367
I1
sVdgn3x14
p368
I1
sVdfro5pk
p369
I2
sVd0s3cbi
p370
I2
sVd6f2jdo
p371
I1
sVd2iqeri
p372
I2
sVdeex00g
p373
I2
sVdh6ghqy
p374
I1
sVdq394sp
p375
I1
sVdelo7vk
p376
I2
sVd0mj7vt
p377
I1
sVd0bcy00
p378
I1
sVdfuys59
p379
I1
sVd8efhvu
p380
I1
sVdfjnadj
p381
I2
sVdr8wsyu
p382
I1
sVdtabdwq
p383
I1
sVdgwpfht
p384
I1
sVdgpyc02
p385
I1
sVd25begz
p386
I2
sVcyp9wdt
p387
I1
sVd6b2ot8
p388
I1
sVcz2jzby
p389
I1
sVczeqk90
p390
I1
sVczhkx1x
p391
I2
sVdivn9e9
p392
I1
sVczv3yhi
p393
I3
sVd40t2ve
p394
I1
sVd8oqlcg
p395
I1
sVcyvxse1
p396
I1
sVd4lj7ra
p397
I1
sVd6vmxxc
p398
I1
sVdfkreww
p399
I1
sVddt460v
p400
I1
sVdekolvp
p401
I1
sVdi0b2ql
p402
I1
sVczawmuh
p403
I1
sVcze3inj
p404
I1
sVdmwdwzh
p405
I1
sVd4mou5q
p406
I1
sVde35wbx
p407
I2
sVcz37e37
p408
I2
sVd46gf6f
p409
I1
sVd21kwsp
p410
I1
sVdfjxngu
p411
I4
sVd057xqb
p412
I1
sVd5ot0et
p413
I2
sVd2j5c1o
p414
I1
sVczm8sek
p415
I1
sVczu0v8n
p416
I1
sVdsqcc2m
p417
I2
sVdcezrwx
p418
I1
sVczlxja7
p419
I1
sVdj9knxz
p420
I2
sVdolfyny
p421
I2
sVd4m55l7
p422
I1
sVd7w24wn
p423
I1
sVd7x9veq
p424
I1
sVde50qqo
p425
I1
sVd4n4uj5
p426
I1
sVd3gcoif
p427
I2
sVd4mkt5e
p428
I2
sVdneoy2i
p429
I1
sVdioasyr
p430
I1
sVdh3cbm2
p431
I2
sVcztqkxr
p432
I1
sVd3r6eyu
p433
I1
sVdcn1j3g
p434
I1
sVdoeadoh
p435
I1
sVd4mmony
p436
I1
sVd1r7xn7
p437
I1
sVdc8th12
p438
I1
sVd2hve8n
p439
I3
sVd5j5mk8
p440
I1
sVdd8l7wb
p441
I1
sVdebr9ki
p442
I1
sVdqqapqc
p443
I1
sVdf3qaj5
p444
I1
sVcz8k2hz
p445
I1
sVdiqkhaw
p446
I2
sVd1pj8s2
p447
I1
sVdbw3cp4
p448
I4
sVd9rv828
p449
I1
sVd5hnwxw
p450
I1
sVdaj3vsk
p451
I1
sVdeccu42
p452
I1
sVd0ycqz1
p453
I1
sVdcromg7
p454
I1
sVd0px1qv
p455
I1
sVczelegs
p456
I1
sVddhkkkv
p457
I1
sVd2by9u0
p458
I1
sVd7ntx4i
p459
I1
sVd7w4g12
p460
I1
sVd9i2zpm
p461
I1
sVdiidikx
p462
I2
sVd2lozag
p463
I1
sVczp4bil
p464
I2
sVd2oe7b4
p465
I2
sVd8yhyv8
p466
I1
sVd0ic9yo
p467
I1
sVd28xw75
p468
I1
sVd7wfjy8
p469
I2
sVdgp9jee
p470
I1
sVdmom7ue
p471
I1
sVdbidmc2
p472
I1
sVdq7v3j9
p473
I1
sVd0rpl38
p474
I1
sVd18eoaq
p475
I1
sVd5vurgj
p476
I1
sVd0jx4lw
p477
I1
sVd2bli25
p478
I1
sVd2bm18a
p479
I2
sVdd4pjbe
p480
I1
sVd84tp2i
p481
I1
sVd1jag3v
p482
I1
sVdieky4d
p483
I1
sVczmqe23
p484
I1
sVdjiz7wd
p485
I1
sVd9h46pq
p486
I1
sVd8f9acw
p487
I1
sVd9r1j95
p488
I2
sVdco780f
p489
I1
sVd24i698
p490
I1
sVdh9cyq1
p491
I1
sVd1c1xj5
p492
I4
sVczvjjjz
p493
I1
sVdhoh95m
p494
I1
sVdfp0heb
p495
I1
sVdgo9kf2
p496
I1
sVd0x9p33
p497
I1
sVdhud3iv
p498
I1
sVdd5xjxz
p499
I1
sVdi6ttta
p500
I1
sVd2a6vzs
p501
I1
sVdcvrorh
p502
I1
sVd65ziao
p503
I2
sVdfq2nr0
p504
I1
sVdcrnvva
p505
I3
sVczhkq9i
p506
I1
sVdfassru
p507
I2
sVcz0hvtv
p508
I2
sVd9j2zwy
p509
I1
sVd0b2ki0
p510
I1
sVd2p3qs5
p511
I2
sVdj9ke9l
p512
I2
sVd33jj2f
p513
I1
sVdr2w27d
p514
I1
sVdaj9dme
p515
I1
sVd5tdx7d
p516
I1
sVdkve09c
p517
I1
sVdc1q6z8
p518
I2
sVdkqg5xy
p519
I1
sVda1u6ts
p520
I4
sVczs3coa
p521
I1
sVdocrd1g
p522
I1
sVddietx7
p523
I1
sVd5er0ev
p524
I2
sVd84lgh8
p525
I1
sVdssfpt5
p526
I2
sVcz8p5k5
p527
I1
sVd0k896z
p528
I1
sVd1n4edf
p529
I1
sVditss9s
p530
I2
sVdf79air
p531
I1
sVdcpl18c
p532
I3
sVdfxxkx8
p533
I1
sVcymjpve
p534
I1
sVd45jh2y
p535
I2
sVdeh246d
p536
I2
sVczfdq75
p537
I1
sVdcnq9bn
p538
I1
sVd4jwitr
p539
I1
sVdp7fvoc
p540
I2
sVd2i1nbx
p541
I1
sVd2bl07m
p542
I1
sVdrpp46g
p543
I1
sVdjff7dg
p544
I1
sVd8pveb0
p545
I1
sVdexrqgu
p546
I1
sVdddyfpv
p547
I1
sVd9tr2xp
p548
I1
sVd0v2nhv
p549
I2
sVd95w7l2
p550
I1
sVd4e39q3
p551
I1
sVd67pese
p552
I1
sVdh63cw8
p553
I1
sVdfbhth6
p554
I3
sVdog4sgx
p555
I1
sVd39t2m1
p556
I1
sVdb5qftp
p557
I1
sVda1psbb
p558
I1
sVdj1avhe
p559
I1
sVd0m37vp
p560
I1
sVczcjlf3
p561
I1
sVdc2wu1q
p562
I2
sVd1ja2z0
p563
I1
sVd1l59yy
p564
I1
sVdctatwr
p565
I1
sVczz7o20
p566
I2
sVczymjno
p567
I1
sVd60kk6h
p568
I2
sVcz92i07
p569
I1
sVd6ewfny
p570
I3
sVdgb6kjf
p571
I1
sVdill1uq
p572
I7
sVdadd0jv
p573
I2
sVd58m0ez
p574
I1
sVdic0sdy
p575
I1
sVd0vk4ye
p576
I1
sVdn4hgo4
p577
I1
sVdb8k8bn
p578
I1
sVdbn8h8m
p579
I2
sVdr341dq
p580
I1
sVd90jstr
p581
I1
sVdd7evd1
p582
I1
sVdiqpes3
p583
I1
sVd42ho2f
p584
I1
sVdd59tpx
p585
I1
sVdtaukb3
p586
I1
sVd2k916b
p587
I1
sVdc8z71z
p588
I2
sVd20u3l5
p589
I1
sVdflaggn
p590
I2
sVd2spwdt
p591
I1
sVdgzqg8v
p592
I1
sVd4rwc7l
p593
I1
sVdgfh13c
p594
I1
sVdhmmex1
p595
I1
sVd1jf6jb
p596
I1
sVd6psuoe
p597
I1
sVd30idcn
p598
I1
sVddpmo3m
p599
I1
sVdip0zhe
p600
I2
sVd1rqe7y
p601
I1
sVdrj3o63
p602
I1
sVd94f3bk
p603
I1
sVdcrxqcq
p604
I1
sVd8aifms
p605
I1
sVdfmyk6d
p606
I1
sVd4god73
p607
I1
sVddzlmw1
p608
I1
sVd6lmay9
p609
I1
sVdhbvwen
p610
I2
sVd9iswm9
p611
I1
sVdaj9r9t
p612
I1
sVdo3ls44
p613
I1
sVdcwdubx
p614
I1
sVdcpuiih
p615
I2
sVd8lktkr
p616
I2
sVdfnlkhg
p617
I1
sVd6xu79v
p618
I1
sVdihd31j
p619
I1
sVdov3278
p620
I2
sVdgybmox
p621
I1
sVd1a20hw
p622
I1
sVd6vku8j
p623
I1
sVdddr7cd
p624
I2
sVd5uu9nf
p625
I1
sVdb3iuhx
p626
I1
sVd3qgbml
p627
I3
sVd4qchrp
p628
I2
sVd14m0ys
p629
I1
sVd357r1m
p630
I1
sVd5p4y8i
p631
I1
sVdd2n99y
p632
I1
sVdnb958o
p633
I1
sVdaspaz7
p634
I1
sVd9i2m9q
p635
I1
sVdijfm52
p636
I1
sVczkqzco
p637
I2
sVd510rp9
p638
I1
sVd0c6iqu
p639
I1
sVd04dlvl
p640
I1
sVdd42f04
p641
I1
sVd1q4beu
p642
I1
sVdfcn1up
p643
I1
sVczayj0f
p644
I1
sVd6pf467
p645
I2
sVdd4wtfz
p646
I1
sVd3s3fac
p647
I1
sVczfeucl
p648
I1
sVd2bahio
p649
I1
sVczvgxpx
p650
I1
sVd9105og
p651
I1
sVcz212tl
p652
I1
sVdr6vu7b
p653
I1
sVdov2us6
p654
I1
sVd8d7gs1
p655
I1
sVdfx2673
p656
I2
sVd9uijgo
p657
I1
sVd368rwu
p658
I1
sVd5upa3d
p659
I1
sVczbekv5
p660
I1
sVdkvij0a
p661
I2
sVd48b7pp
p662
I1
sVdddqq5e
p663
I2
sVd0z4v7n
p664
I1
sVd8d029v
p665
I1
sVczz12x0
p666
I3
sVd8c9rmu
p667
I2
sVd4gvt77
p668
I1
sVd5uqhks
p669
I1
sVdgt6d51
p670
I1
sVd1ujxe4
p671
I1
sVdhbx5xd
p672
I1
sVdabn52u
p673
I1
sVdhwacd3
p674
I1
sVdoxdlvf
p675
I1
sVddc6i5c
p676
I1
sVd83r72z
p677
I1
sVd43hfr5
p678
I2
sVd6jxzbx
p679
I1
sVd8arf3l
p680
I1
sVdd6cl2d
p681
I1
sVdel8j4x
p682
I1
sVd9a0qjj
p683
I1
sVd2e49br
p684
I1
sVdgiiwfb
p685
I1
sVdc8tpv6
p686
I1
sVd4gw6i1
p687
I2
sVdd68me8
p688
I1
sVdivjirg
p689
I1
sVdavaonm
p690
I1
sVcza545z
p691
I1
sVd8ge5pd
p692
I1
sVd9vf0va
p693
I3
sVdjp0uug
p694
I1
sVdhbmoyv
p695
I1
sVdh2fsck
p696
I1
sVd4e6f7g
p697
I1
sVdhoawu5
p698
I1
sVddg4a0r
p699
I1
sVd01xjt0
p700
I1
sVderdizk
p701
I1
sVd6iriga
p702
I1
sVdf1xb5q
p703
I1
sVdtax7uq
p704
I1
sVd941zub
p705
I1
sVd8083pm
p706
I1
sVdhohc2t
p707
I2
sVd85okdu
p708
I2
sVd0iigoe
p709
I1
sVcz2cajq
p710
I1
sVd57qwn9
p711
I1
sVde3ht8v
p712
I1
sVdd1qnaz
p713
I1
sVd8d424h
p714
I1
sVczxl60t
p715
I1
sVdbq4fwq
p716
I1
sVdo9da52
p717
I2
sVdgflgr5
p718
I1
sVdc1mgsz
p719
I1
sVd8yty73
p720
I1
sVd0xz4tg
p721
I3
sVd3naozv
p722
I1
sVdkvojua
p723
I1
sVdkrvwp1
p724
I1
sVd4i1u23
p725
I2
sVczobp64
p726
I3
sVd01ft35
p727
I1
sVdd19a9j
p728
I1
sVdi0qsaa
p729
I2
sVdfgyrro
p730
I1
sVd5wsg7q
p731
I1
sVdfwtgiz
p732
I1
sVd9wtdk1
p733
I1
sVdj3iojt
p734
I1
sVd233keh
p735
I2
sVd6ccg4d
p736
I1
sVcykgsbi
p737
I1
sVd87jkae
p738
I1
sVddvpjno
p739
I1
sVdpjzcpw
p740
I1
sVd1jzjyy
p741
I2
sVd5zejk8
p742
I1
sVddy42j4
p743
I1
sVd14aewn
p744
I1
sVd1o0lj8
p745
I2
sVd3j50uv
p746
I1
sVdemju7t
p747
I1
sVcznwl86
p748
I1
sVd5oppej
p749
I1
sVczvzf00
p750
I1
sVd2ozkl2
p751
I1
sVdsottf6
p752
I1
sVd00v05i
p753
I1
sVdevv2vv
p754
I1
sVd6fb3d6
p755
I1
sVd4ni1ss
p756
I2
sVd1ztn4e
p757
I1
sVczbmpzp
p758
I1
sVd043zvm
p759
I1
sVd359cnt
p760
I2
sVcyvntwx
p761
I1
sVd1isk6i
p762
I3
sVddi0c5g
p763
I1
sVd20cwag
p764
I1
sVd67vqsu
p765
I1
sVdra7yr7
p766
I1
sVdqqwgiw
p767
I1
sVcyzmgpw
p768
I1
sVd7x2hix
p769
I1
sVddb7r20
p770
I1
sVd08f81w
p771
I1
sVde4irqu
p772
I1
sVdcbw4gw
p773
I1
sVd6irggb
p774
I1
sVd1dksxu
p775
I1
sVdcurn3f
p776
I1
sVdnhy1a8
p777
I1
sVd22t5jv
p778
I2
sVd83b1ke
p779
I1
sVdbt6yru
p780
I1
sVd8dhkia
p781
I1
sVd8puyib
p782
I1
sVd1q08j5
p783
I1
sVdrv50gf
p784
I1
sVd04134m
p785
I1
sVcyxc3jb
p786
I2
sVddxvtih
p787
I1
sVdamypgq
p788
I1
sVdq7skge
p789
I1
sVczqkgni
p790
I1
sVczyjc61
p791
I1
sVd9r5ti3
p792
I1
sVd430smi
p793
I1
sVd18p6f2
p794
I1
sVd5ubykq
p795
I1
sVd1z16r2
p796
I2
sVdc92gfd
p797
I1
sVd2ebt8o
p798
I1
sVdimfun0
p799
I1
sVczttrgp
p800
I1
sVd0q70uw
p801
I1
sVd8gs0wr
p802
I1
sVcykecax
p803
I1
sVd131poe
p804
I1
sVdiq8cfq
p805
I1
sVdeh4t4n
p806
I1
sVdfyxyn4
p807
I1
sVd9sedsd
p808
I2
sVdc9du66
p809
I1
sVd9vjwz6
p810
I1
sVd33wc5h
p811
I1
sVd2ze07l
p812
I1
sVd4bz643
p813
I1
sVd1y90kb
p814
I2
sVd2345t1
p815
I2
sVdiu7ab8
p816
I1
sVdc60n57
p817
I1
sVddz92lm
p818
I1
sVd9z0jzq
p819
I1
sVczv1wxx
p820
I1
sVd60es57
p821
I1
sVd1ywq4e
p822
I1
sVd11zv0q
p823
I1
sVdgwhj75
p824
I1
sVd5ur0ol
p825
I1
sVcz2o3vf
p826
I1
sVcys3527
p827
I1
sVdhq1ofi
p828
I1
sVdrn6eqy
p829
I1
sVdriv8fs
p830
I1
sVda0zwn7
p831
I1
sVcym0yx2
p832
I1
sVdcnpvxh
p833
I1
sVdgmw8z7
p834
I2
sVda5iso1
p835
I1
sVd3p22sr
p836
I2
sVdhceklu
p837
I1
sVd1gntrb
p838
I2
sVczl0ewe
p839
I1
sVd1aerhb
p840
I1
sVdeloqxd
p841
I1
sVd8shkmt
p842
I2
sVd39t4jj
p843
I1
sVcyv9b0t
p844
I1
sVdise7n2
p845
I1
sVd0yrokv
p846
I1
sVdhy7bf6
p847
I1
sVd4z8kqr
p848
I1
sVds744fn
p849
I1
sVdh9c1ep
p850
I1
sVdmm1v4o
p851
I1
sVddhkrmg
p852
I1
sVd82bs8b
p853
I2
sVdd51fzt
p854
I2
sVd62mrzf
p855
I1
sVd5umu2t
p856
I4
sVd0awu2n
p857
I1
sVd11qux4
p858
I2
sVdd78ntk
p859
I2
sVde9tmrt
p860
I1
sVd2azy1w
p861
I1
sVd6o6bwz
p862
I1
sVdflcy7m
p863
I1
sVdem2h9t
p864
I1
sVd14cdkj
p865
I1
sVd8yy75b
p866
I1
sVd8ikrq2
p867
I1
sVd195pn9
p868
I1
sVczyvzxq
p869
I1
sVddo0zov
p870
I1
sVdd42lrg
p871
I1
sVd8tvjj2
p872
I2
sVddu8po2
p873
I1
sVcynhw8y
p874
I1
sVdfxwm5m
p875
I4
sVcz3sqb3
p876
I1
sVda31v1h
p877
I2
sVd1k2zcm
p878
I1
sVd2if36o
p879
I3
sVds5nlmg
p880
I1
sVdhbm00b
p881
I1
sVd1it9m8
p882
I1
sVcymcydb
p883
I1
sVdan1io1
p884
I1
sVd9kavoj
p885
I1
sVd3dqa37
p886
I2
sVdi09moa
p887
I7
sVczw3klr
p888
I1
sVdf79z3k
p889
I1
sVczksno6
p890
I1
sVd3gui8a
p891
I1
sVcyvbrth
p892
I1
sVda1yqct
p893
I1
sVd6o2p3u
p894
I1
sVdgll7dk
p895
I1
sVdhbw486
p896
I1
sVczvepet
p897
I1
sVdcoeora
p898
I1
sVdj1ccwo
p899
I2
sVdcxcwa2
p900
I1
sVd3qrjmv
p901
I1
sVd39u2bs
p902
I1
sVdfq41ev
p903
I1
sVdck5evg
p904
I1
sVd18piv0
p905
I1
sVdcxgjmx
p906
I2
sVdk13akb
p907
I2
sVcz2w8ul
p908
I1
sVdh581kb
p909
I1
sVd08mz2i
p910
I1
sVd2hibrt
p911
I2
sVd03ca0l
p912
I1
sVcytt6bm
p913
I1
sVdd1mfpe
p914
I2
sVd08nd5p
p915
I2
sVd4gw158
p916
I2
sVddjr4u9
p917
I1
sVdgi2m5v
p918
I1
sVd8m7kw9
p919
I1
sVd1cf8ea
p920
I1
sVdohncz0
p921
I1
sVd1jcck3
p922
I2
sVd8ha346
p923
I1
sVczk38hz
p924
I1
sVdojrnli
p925
I3
sVdgu7evv
p926
I1
sVczqal5w
p927
I1
sVd82gf3u
p928
I1
sVdd6mbqx
p929
I1
sVdq3t54j
p930
I1
sVdjvmyvj
p931
I1
sVd05gkld
p932
I2
sVdbeeqea
p933
I1
sVd19530g
p934
I1
sVdr7kdhk
p935
I1
sVd484j9w
p936
I1
sVdimik9r
p937
I2
sVd06bdot
p938
I2
sVdglb7th
p939
I1
sVd9iqcmr
p940
I1
sVd017wxv
p941
I2
sVddhhtu1
p942
I2
sVd37kd62
p943
I2
sVd308zrs
p944
I1
sVd2ieja4
p945
I1
sVd5dfk1i
p946
I1
sVd4jdedg
p947
I1
sVdg9c8c3
p948
I1
sVdc8yt9h
p949
I1
sVdcvy2xz
p950
I1
sVdetqlm8
p951
I1
sVds8xndd
p952
I1
sVd01t3wg
p953
I1
sVd057ojk
p954
I1
sVd0ougc8
p955
I1
sVdnjhzjq
p956
I4
sVdbifo8r
p957
I1
sVczz50dc
p958
I1
sVd0qvdn3
p959
I1
sVczxqjaf
p960
I1
sVddwkhrv
p961
I1
sVdeu0sgw
p962
I1
sVd5o7lp4
p963
I1
sVdgta1fu
p964
I2
sVdhstdu3
p965
I1
sVd64tr28
p966
I1
sVdhjzorl
p967
I2
sVdd34p8o
p968
I1
sVdddnhh9
p969
I2
sVd15zvoo
p970
I1
sVd1dum95
p971
I1
sVdhy4g68
p972
I1
sVd0k6iuw
p973
I2
sVd4xnthy
p974
I1
sVd2ak7ml
p975
I1
sVd4gkvc1
p976
I1
sVd7k45gy
p977
I1
sVd74ylmr
p978
I1
sVd5b6wbp
p979
I2
sVd6t8vvr
p980
I1
sVdjrjtm8
p981
I2
sVdae5vtk
p982
I1
sVddbfnp8
p983
I1
sVd8t87ou
p984
I1
sVddu1gd1
p985
I1
sVczxbkp1
p986
I1
sVcym4aos
p987
I2
sVdtf9dhy
p988
I1
sVdh7no7q
p989
I1
sVdaa3ag2
p990
I2
sVdfbziqx
p991
I1
sVczkvt9s
p992
I4
sVd357jv2
p993
I1
sVd5b3gqb
p994
I1
sVcyvdjjq
p995
I1
sVd4mq8bi
p996
I1
sVdb1fg61
p997
I1
sVd4pyz5k
p998
I1
sVdiwwoxj
p999
I1
sVd4m3yr0
p1000
I4
sVczja8dr
p1001
I4
sVdbci3jc
p1002
I1
sVd4jwc8s
p1003
I1
sVd4a9j5y
p1004
I3
sVd2igy9y
p1005
I5
sVczmxy0e
p1006
I2
sVdenkqs3
p1007
I2
sVdmm5vcx
p1008
I1
sVd1r74t1
p1009
I1
sVdeevlui
p1010
I2
sVd6akz4x
p1011
I1
sVdeqtnah
p1012
I3
sVdsrrgp1
p1013
I2
s.