(dp0
Vdki4l6j
p1
I1
sVdil8ioi
p2
I1
sVdam9mji
p3
I1
sVd65qfgq
p4
I1
sVdex6ufw
p5
I1
sVdfx2673
p6
I1
sVdtalb6b
p7
I1
sVd8q1gud
p8
I2
sVddw0ff7
p9
I1
sVdhsdd9s
p10
I1
sVd58eggh
p11
I1
sVdc8ogpa
p12
I1
sVdg8pktr
p13
I1
sVda7swcs
p14
I1
s.