(dp0
Vd9okz6c
p1
I1
sVdelxjyh
p2
I1
sVdmswcet
p3
I1
sVd312yvz
p4
I1
sVdbnd7r7
p5
I1
sVdaisj4l
p6
I1
sVddsumml
p7
I1
sVd8ir9dh
p8
I1
sVd9idvlq
p9
I1
sVdbo7ee6
p10
I1
sVdi2g461
p11
I1
sVdb5gaiw
p12
I1
sVd9mm9xx
p13
I1
s.