(dp0
Vcym1ugz
p1
I1
s.(dp0
Vcyok0lc
p1
I1
sVcym1ugz
p2
I1
s.(dp0
Vcyok0lc
p1
I1
sVcym1ugz
p2
I1
s.(dp0
Vcym1ugz
p1
I1
sVcysxagi
p2
I1
s.(dp0
Vcym1ugz
p1
I1
sVd0m0t34
p2
I1
s.(dp0
Vd17zvco
p1
I1
sVcym1ugz
p2
I1
s.(dp0
Vcym1ugz
p1
I1
sVd1hyjfm
p2
I1
s.(dp0
Vcym1ugz
p1
I1
sVd1k0ksi
p2
I1
s.(dp0
Vd2496c7
p1
I1
sVcym1ugz
p2
I1
s.(dp0
Vd2496c7
p1
I1
sVcym1ugz
p2
I1
s.(dp0
Vd24togu
p1
I1
sVcym1ugz
p2
I1
s.(dp0
Vcym1ugz
p1
I1
sVd2d0x4p
p2
I1
s.(dp0
Vd2d699n
p1
I1
sVcym1ugz
p2
I1
s.(dp0
Vd2d699n
p1
I1
sVcym1ugz
p2
I1
s.(dp0
Vcym1ugz
p1
I1
sVd354l0c
p2
I1
s.(dp0
Vcym1ugz
p1
I1
sVd3j6pqw
p2
I1
s.(dp0
Vd4i99ya
p1
I1
sVcym1ugz
p2
I1
s.(dp0
Vd4xe74b
p1
I1
sVcym1ugz
p2
I1
s.(dp0
Vcym1ugz
p1
I1
sVd65cijy
p2
I1
s.(dp0
Vcym1ugz
p1
I1
sVd65s4x1
p2
I1
s.(dp0
Vcym1ugz
p1
I1
sVd6w95wz
p2
I1
s.(dp0
Vcym1ugz
p1
I1
sVd6w95wz
p2
I1
s.(dp0
Vcym1ugz
p1
I1
sVd6waghs
p2
I1
s.(dp0
Vcym1ugz
p1
I1
sVd6waghs
p2
I1
s.(dp0
Vcym1ugz
p1
I1
sVd6waghs
p2
I1
s.(dp0
Vcym1ugz
p1
I1
sVd70y9gn
p2
I1
s.(dp0
Vcym1ugz
p1
I1
sVd72q1vk
p2
I1
s.(dp0
Vcym1ugz
p1
I1
sVd7drt57
p2
I1
s.(dp0
Vcym1ugz
p1
I1
sVd7hj2o6
p2
I1
s.(dp0
Vcym1ugz
p1
I1
sVd7hjbqw
p2
I1
s.(dp0
Vd7nwgh4
p1
I1
sVcym1ugz
p2
I1
s.(dp0
Vcym1ugz
p1
I1
sVd8a3ava
p2
I1
s.(dp0
Vcym1ugz
p1
I1
sVd92v6a3
p2
I1
s.(dp0
Vd95t00x
p1
I1
sVcym1ugz
p2
I1
s.(dp0
Vd95t00x
p1
I1
sVcym1ugz
p2
I1
s.(dp0
Vcym1ugz
p1
I1
sVd9w05k4
p2
I1
s.(dp0
Vcym1ugz
p1
I1
sVdan0x77
p2
I1
s.(dp0
Vdbchf9a
p1
I1
sVcym1ugz
p2
I1
s.(dp0
Vcym1ugz
p1
I1
sVdbr2dnc
p2
I1
s.(dp0
Vcym1ugz
p1
I1
sVdbr2dnc
p2
I1
s.(dp0
Vcym1ugz
p1
I1
sVdbzt1fz
p2
I1
s.(dp0
Vcym1ugz
p1
I1
sVdc637f7
p2
I1
s.(dp0
Vcym1ugz
p1
I1
sVdd1vyt2
p2
I1
s.(dp0
Vcym1ugz
p1
I1
sVdd1vyt2
p2
I1
s.(dp0
Vdd3ot9o
p1
I1
sVcym1ugz
p2
I1
s.(dp0
Vdd3ot9o
p1
I1
sVcym1ugz
p2
I1
s.(dp0
Vcym1ugz
p1
I1
sVddmob1n
p2
I1
s.(dp0
Vcym1ugz
p1
I1
sVddst68x
p2
I1
s.(dp0
Vddt5byh
p1
I1
sVcym1ugz
p2
I1
s.(dp0
Vcym1ugz
p1
I1
sVde1ddyo
p2
I1
s.(dp0
Vdevwjk9
p1
I1
sVcym1ugz
p2
I1
s.(dp0
Vdf6q3g3
p1
I1
sVcym1ugz
p2
I1
s.(dp0
Vcym1ugz
p1
I1
sVdfnh9jb
p2
I1
s.(dp0
Vdgem8d3
p1
I1
sVcym1ugz
p2
I1
s.(dp0
Vcym1ugz
p1
I1
sVdgf4yj5
p2
I1
s.(dp0
Vcym1ugz
p1
I1
sVdgfet28
p2
I1
s.(dp0
Vdgpczk1
p1
I1
sVcym1ugz
p2
I1
s.(dp0
Vcym1ugz
p1
I1
sVdiropht
p2
I1
s.(dp0
Vcym1ugz
p1
I1
sVdirrxp6
p2
I1
s.(dp0
Vdkab387
p1
I1
sVcym1ugz
p2
I1
s.(dp0
Vcym1ugz
p1
I1
sVdndett9
p2
I1
s.(dp0
Vcym1ugz
p1
I1
sVdndett9
p2
I1
s.(dp0
Vdo6mz74
p1
I1
sVcym1ugz
p2
I1
s.(dp0
Vcym1ugz
p1
I1
sVdoxg5pp
p2
I1
s.(dp0
Vcym1ugz
p1
I1
sVdq9r0om
p2
I1
s.(dp0
Vcym1ugz
p1
I1
sVdrh8fz3
p2
I1
s.(dp0
Vcym1ugz
p1
I1
sVdrqlgca
p2
I1
s.(dp0
Vdsvqbl9
p1
I1
sVcym1ugz
p2
I1
s.(dp0
Vdt6lsyc
p1
I1
sVcym1ugz
p2
I1
s.