(dp0
Vdfey0iu
p1
I1
sVdk0qkh5
p2
I3
sVdnnsiln
p3
I1
sVderto0s
p4
I1
sVdnohkcy
p5
I1
sVddhveeo
p6
I1
sVd6x7c7g
p7
I1
sVcylk7ho
p8
I1
sVdc2sh2p
p9
I1
sVd200b9i
p10
I1
sVd4j2jhw
p11
I2
sVd12m39z
p12
I1
sVdq3iqqt
p13
I1
sVd7l2zwl
p14
I2
sVcylfd4u
p15
I1
sVdsa7fl2
p16
I3
sVcytnde7
p17
I1
sVdivchjp
p18
I1
sVde5fif8
p19
I1
sVcypko22
p20
I1
sVd7cpe70
p21
I1
sVdflysg4
p22
I1
sVdbmxauw
p23
I1
sVdgcxx30
p24
I4
sVcz4gya0
p25
I1
sVdokn7s2
p26
I1
sVd9758f8
p27
I1
sVdogyco7
p28
I2
sVdbbjowe
p29
I1
sVdd8ctd7
p30
I5
sVd6lz48w
p31
I1
sVd2vrj5y
p32
I1
sVde337t7
p33
I1
sVdmoasio
p34
I1
sVd6vcasb
p35
I2
sVdddc2f1
p36
I1
sVczzl5ip
p37
I1
sVd8xsz1h
p38
I1
sVdkm8rnv
p39
I2
sVdea0cxx
p40
I2
sVdhmd1be
p41
I3
sVd4iuef7
p42
I1
sVdtgfzdr
p43
I1
sVdrti93f
p44
I1
sVdbvmof4
p45
I1
sVd3dp796
p46
I2
sVddeqd7o
p47
I1
sVdbncq9x
p48
I1
sVd9gazzr
p49
I2
sVd0qo2g1
p50
I1
sVdi59wg5
p51
I1
sVcz12xfx
p52
I1
sVdmicqeg
p53
I1
sVd9ut5xj
p54
I1
sVdjmi53o
p55
I1
sVdfzvmv3
p56
I1
sVdao6qm9
p57
I1
sVd1zst22
p58
I2
sVdtguse6
p59
I3
sVdhvet63
p60
I2
sVdblpakn
p61
I3
sVdixkyo1
p62
I1
sVdp7kd8h
p63
I1
sVddzk0h7
p64
I1
sVd66jgf0
p65
I2
sVdelj4wg
p66
I1
sVd3rclqq
p67
I1
sVdayguz0
p68
I1
sVdnzkqpw
p69
I1
sVd1sc6rh
p70
I1
sVdbx744s
p71
I1
sVdol3wzw
p72
I1
sVd17kxbw
p73
I1
sVd433q16
p74
I1
sVdsteb0c
p75
I2
sVdmlp7b9
p76
I1
sVdk6l6dx
p77
I1
sVddbyfep
p78
I1
sVd7w1tc1
p79
I1
sVdmyd5zo
p80
I1
sVd3kp7zt
p81
I1
sVdhlpw3l
p82
I2
sVdcme6qs
p83
I1
sVd99tpxc
p84
I1
sVdet6wr8
p85
I4
sVdeqstnc
p86
I1
sVdbpktzd
p87
I1
sVd3td7fl
p88
I1
sVd1bqts8
p89
I2
sVczuzzhx
p90
I1
sVdoxfl6b
p91
I1
sVdbo0rd5
p92
I1
sVdccm55e
p93
I1
sVd010iq0
p94
I1
sVdf5hrrt
p95
I2
sVdj6p3uu
p96
I2
sVd8xqcj1
p97
I3
sVdbpccn4
p98
I1
sVcz5bj5g
p99
I1
sVdgmbn5k
p100
I1
sVdbemx06
p101
I1
sVd0gt2mj
p102
I1
sVd3na7s1
p103
I1
sVdgdaghw
p104
I1
sVdetcg5o
p105
I1
sVdaoig22
p106
I1
sVdj07rvc
p107
I1
sVdix4024
p108
I1
sVd2zhkqz
p109
I1
sVdkhr66n
p110
I1
sVd7xbmn2
p111
I1
sVdet7iqc
p112
I1
sVd3n1gc1
p113
I4
sVdp7zgte
p114
I5
sVdntv66g
p115
I2
sVdpawcte
p116
I1
sVdhblmf8
p117
I3
sVd6bp1cd
p118
I2
sVczfxsjl
p119
I4
sVd22x9zf
p120
I1
sVdnxjq4q
p121
I1
sVdjc1d83
p122
I1
sVdjlx9hq
p123
I1
sVd5zq0gp
p124
I1
sVdg5dfou
p125
I2
sVd7qvg25
p126
I1
sVdamut4a
p127
I1
sVddz0bj0
p128
I1
sVdgkp1m8
p129
I1
sVdbo4q3r
p130
I1
sVd3vhksa
p131
I2
sVcyj8f9h
p132
I1
sVczrayi3
p133
I1
sVczh0tqi
p134
I1
sVd1dnkbk
p135
I1
sVd5jq9l2
p136
I1
sVd5jphrm
p137
I2
sVdk91sbs
p138
I1
sVdbeubd4
p139
I2
sVdefggtj
p140
I1
sVdaz8ioq
p141
I1
sVd87lczf
p142
I3
sVde1bwys
p143
I1
sVdbpkx48
p144
I2
sVdjnr07y
p145
I1
sVd3fg0lg
p146
I1
sVdqb580q
p147
I1
sVd284ifg
p148
I1
sVd4kx4ws
p149
I2
sVdjebktn
p150
I1
sVdevxaa6
p151
I2
sVd3r776f
p152
I1
sVdkz7mem
p153
I1
sVdr00pmo
p154
I1
sVdg9r914
p155
I1
sVd3fel7r
p156
I1
sVdduaekl
p157
I2
sVdgrvich
p158
I3
sVddfzckb
p159
I1
sVdfq0gyt
p160
I1
sVd6zhzfg
p161
I1
sVd41tr9q
p162
I1
sVdn1bed7
p163
I6
sVd6s6ayw
p164
I1
sVdtf28g2
p165
I1
sVd72he00
p166
I2
sVdkxfwwv
p167
I1
sVd3mvcq2
p168
I2
sVdbvu0xp
p169
I1
sVdhs8flm
p170
I1
sVczme3rs
p171
I2
sVd4ea5ux
p172
I1
sVcypkb3u
p173
I1
sVdfjdrr9
p174
I2
sVdattfqo
p175
I1
sVdotct09
p176
I1
sVdeco9aj
p177
I1
sVd5w90do
p178
I1
sVdkesju7
p179
I1
sVdj9vo45
p180
I1
sVd0oc2fr
p181
I2
sVdaud3e5
p182
I1
sVdn8cmfg
p183
I1
sVdc4ppxy
p184
I1
sVd96c0i5
p185
I1
sVdeconcc
p186
I1
sVd16di87
p187
I1
sVdc9pij5
p188
I2
sVda7wy23
p189
I2
sVdbvc2hy
p190
I1
sVd4274rs
p191
I1
sVdevgdvu
p192
I1
sVczqg24v
p193
I1
sVdbt4xn0
p194
I1
sVdawwhqu
p195
I1
sVdhiapzz
p196
I5
sVdfmrjss
p197
I1
sVd3ap55y
p198
I1
sVd1dcas8
p199
I1
sVdjk3p31
p200
I1
sVd9ugfai
p201
I1
sVdddvn1p
p202
I2
sVd1zw3pa
p203
I1
sVdom2yb1
p204
I1
sVddkm524
p205
I1
sVdjfqmz9
p206
I1
sVd1f1gnz
p207
I2
sVd4sk8c0
p208
I2
sVdfbcbtq
p209
I1
sVdoaa47o
p210
I2
sVd1ob784
p211
I1
sVdn4q7mz
p212
I1
sVdn8nzu2
p213
I1
sVdop6nqe
p214
I1
sVdcmhofm
p215
I2
sVdrqdj42
p216
I2
sVdd84quv
p217
I2
sVdsm3na7
p218
I1
sVd3jny7q
p219
I1
sVd1enm4z
p220
I1
sVd3cao6m
p221
I1
sVddnbuwo
p222
I6
sVdc4uyta
p223
I1
sVdrkkbn9
p224
I1
sVddugmi4
p225
I3
sVdgmw1hx
p226
I1
sVd1tqra6
p227
I1
sVdjdhj3j
p228
I1
sVd3a2uqj
p229
I1
sVda33n3r
p230
I1
sVcz28phh
p231
I2
sVdef821e
p232
I1
sVd5jd6a5
p233
I1
sVda0z4an
p234
I1
sVdrp7nxj
p235
I1
sVd7rgggj
p236
I1
sVd6tq0km
p237
I2
sVdfq7gv4
p238
I2
sVdnbn3ui
p239
I3
sVdp7qwjt
p240
I1
sVd66m353
p241
I1
sVdfc8fkt
p242
I8
sVd3fie4e
p243
I1
sVde08z6u
p244
I1
sVd3f77ku
p245
I1
sVd3heslw
p246
I2
sVd57j4no
p247
I1
sVdcy65xi
p248
I1
sVdpvxv19
p249
I1
sVdmm4asi
p250
I1
sVdgc4gmq
p251
I1
sVd71l6j1
p252
I1
sVdcwsnqg
p253
I4
sVdf63ehj
p254
I1
sVdooh650
p255
I1
sVd8t08ds
p256
I1
sVd3mtiwv
p257
I1
sVd0jkknn
p258
I1
sVdf2wxm1
p259
I2
sVdd6eytb
p260
I2
sVd5rm1ig
p261
I1
sVd3mviwe
p262
I1
sVd0avxy5
p263
I1
sVds0fc0s
p264
I1
sVdjlyrw0
p265
I5
sVd0wfy47
p266
I1
sVdax3ug5
p267
I1
sVdh6ukqq
p268
I1
sVd9pf8z8
p269
I1
sVdrg7big
p270
I1
sVdsmhezk
p271
I1
sVdhiloho
p272
I1
sVdf76sxy
p273
I1
sVcyns11y
p274
I1
sVd3mv1g5
p275
I2
sVdjoiczx
p276
I1
sVdh97irn
p277
I1
sVde26uqn
p278
I1
sVdhit0f6
p279
I4
sVd1111h8
p280
I1
sVd04mdc8
p281
I1
sVdf3325x
p282
I1
sVdhif894
p283
I10
sVdhgdxgg
p284
I1
sVdhzrncm
p285
I1
sVd3iknjl
p286
I1
sVd1uom11
p287
I1
sVdpeuktj
p288
I1
sVddjz3qi
p289
I1
sVdfigit7
p290
I1
sVds03cv8
p291
I1
sVdmrmziy
p292
I1
sVdcc0g9a
p293
I1
sVdih63r1
p294
I1
sVdd0maea
p295
I1
sVd0vav22
p296
I1
sVdji516e
p297
I6
sVdkpxm02
p298
I1
sVdbwkz6t
p299
I1
sVd63lwjg
p300
I1
sVdgaupxw
p301
I1
sVds9azzk
p302
I2
sVdmpxuql
p303
I1
sVd1pn76d
p304
I1
sVdff5a44
p305
I3
sVdi6lyi2
p306
I1
sVd75b987
p307
I1
sVdfbv3kc
p308
I1
sVd0kj7bb
p309
I1
sVdd3e7lo
p310
I1
sVdqab7mc
p311
I1
sVdblqh4s
p312
I2
sVcyj6j9z
p313
I1
sVdjhoqjq
p314
I1
sVdnm86kz
p315
I5
sVd49u4ou
p316
I1
sVdg4pq68
p317
I1
sVd0jmho6
p318
I1
sVd0ul1sx
p319
I2
sVdjfwt8y
p320
I3
sVcyl7e07
p321
I1
sVd3z9rzb
p322
I1
sVdt8v8tw
p323
I3
sVdnildt5
p324
I1
sVdb32ghq
p325
I1
sVd3et0as
p326
I3
sVddg1qr5
p327
I1
sVd0u7jz7
p328
I2
sVdta5wm3
p329
I1
sVdcajpqf
p330
I1
sVd0yhhkq
p331
I1
sVdntwsyy
p332
I1
sVdb9fkzn
p333
I1
sVdozjpgh
p334
I1
sVdb7aaxp
p335
I1
sVdpsa44e
p336
I1
sVd1dhdc2
p337
I1
sVd1vgu4r
p338
I1
sVcz0iqpb
p339
I1
sVd9b9tem
p340
I1
sVd35qtcc
p341
I1
sVdgrnsaa
p342
I3
sVd3oviws
p343
I1
sVdfgbg6k
p344
I2
sVczk32pf
p345
I1
sVde7izpe
p346
I3
sVdfimbda
p347
I1
sVdn4aymx
p348
I1
sVd0nfzne
p349
I1
sVds98hky
p350
I1
sVdfb8wap
p351
I2
sVd0qz3jm
p352
I1
sVd9427x0
p353
I1
sVd3x7yl8
p354
I1
sVdqo51kg
p355
I1
sVd37pr1h
p356
I1
sVdrm5lli
p357
I2
sVd3jbk5k
p358
I2
sVdgsbgx6
p359
I1
sVdcirm3r
p360
I1
sVd39n07i
p361
I1
sVczseg5p
p362
I1
sVd48kj7c
p363
I1
sVddm0l7l
p364
I1
sVdhua01n
p365
I1
sVdf1tinf
p366
I2
sVd28n4sx
p367
I1
sVdds52y1
p368
I1
sVd1dytr0
p369
I1
sVdax648l
p370
I1
sVczov1mf
p371
I1
sVd57uyvo
p372
I2
sVd8ghqeg
p373
I1
sVd3enu20
p374
I1
sVdj6t52f
p375
I1
sVda82yo5
p376
I1
sVdfkdzk7
p377
I1
sVd68rehr
p378
I1
sVdetd132
p379
I6
sVd3qh8km
p380
I2
sVdkxetr6
p381
I1
sVdjk43o7
p382
I1
sVd5y5bx0
p383
I1
sVdgt7fjn
p384
I1
sVd0bwx2w
p385
I1
sVdslqyfp
p386
I1
sVddkj3ua
p387
I1
sVd7rynxi
p388
I1
sVd3mxml7
p389
I3
sVdcirarb
p390
I1
sVd4z8g1h
p391
I1
sVd9uu0zc
p392
I1
sVcywx9v2
p393
I1
sVd4912hh
p394
I5
sVd0yp97z
p395
I4
sVdpsllyt
p396
I3
sVdehmr6k
p397
I1
sVdat2tmh
p398
I1
sVdfr8q7j
p399
I1
sVdcct5w5
p400
I2
sVd4by72d
p401
I1
sVd9e19gg
p402
I1
sVdoln6nv
p403
I1
sVdfu1w21
p404
I3
sVdmikgfk
p405
I1
sVcywlak0
p406
I1
sVdik6eqk
p407
I1
sVd7gknsi
p408
I1
sVcyrili5
p409
I1
sVdrrjsyw
p410
I1
sVd34yltw
p411
I2
sVdjhg8r9
p412
I1
sVd48cob7
p413
I2
sVdqot3e7
p414
I1
sVd6rvbz3
p415
I1
sVcz2dlq7
p416
I1
sVdc4evnr
p417
I1
sVd1k5xmo
p418
I1
sVdnmrvrx
p419
I1
sVd3bjnxh
p420
I1
sVd48ds16
p421
I1
sVcys55td
p422
I1
sVd2n3y54
p423
I1
sVcz8ctiq
p424
I1
sVd0un4ls
p425
I1
sVd0ka5rx
p426
I2
sVda8v880
p427
I1
sVdnobin2
p428
I1
sVdjnta0o
p429
I1
sVd1se1kj
p430
I1
sVd3znsk3
p431
I1
sVda7wfgi
p432
I3
sVddxnd3b
p433
I2
sVdcfcfuo
p434
I3
sVdcl4ycf
p435
I1
sVdf5pvkx
p436
I5
sVdaczp8d
p437
I1
sVdcjukj9
p438
I1
sVdbkk8ma
p439
I1
sVda0bind
p440
I1
sVd43mlia
p441
I2
sVd5qx9qa
p442
I1
sVd4s72yk
p443
I2
sVd77gb8b
p444
I1
sVdt3ntet
p445
I1
sVdg374up
p446
I1
sVdhj7coj
p447
I5
sVdnh8wkb
p448
I2
sVd54l275
p449
I3
sVdhqrg7w
p450
I1
sVd9y2me1
p451
I1
sVdd3ecop
p452
I1
sVdgkh1ea
p453
I1
sVdbjzdrp
p454
I1
sVd3n4xkr
p455
I6
sVddjfdpx
p456
I1
sVd1fki7g
p457
I1
sVd3n1m9h
p458
I3
sVdsbntc5
p459
I2
sVdblghof
p460
I1
sVdh4qd7j
p461
I1
sVd3fey19
p462
I1
sVdblxd93
p463
I1
sVdbojtn2
p464
I1
sVdjgcopm
p465
I2
sVd2t55g4
p466
I1
sVd1vp1r6
p467
I1
sVdjhaent
p468
I1
sVdn1earb
p469
I2
sVddtw5g9
p470
I1
sVd2wthj5
p471
I1
sVd1hzm9o
p472
I1
sVdac7wk0
p473
I1
sVdh9luco
p474
I1
sVdh79vj9
p475
I1
sVd21w7go
p476
I1
sVdd8b0yu
p477
I3
sVd126orx
p478
I1
sVd0j9siu
p479
I1
sVd6ii5jt
p480
I8
sVdcc08he
p481
I1
sVdddvs2l
p482
I1
sVd5xhill
p483
I1
sVd6rjds3
p484
I1
sVd923opt
p485
I1
sVczrw6ld
p486
I2
sVdfvttf3
p487
I1
sVczlrvsn
p488
I1
sVdjs8477
p489
I2
sVdmwcwka
p490
I1
sVd0havvz
p491
I1
sVd2emgkp
p492
I1
sVdjh7hrh
p493
I2
sVdnh30ww
p494
I1
sVdh28gmi
p495
I2
sVczm525h
p496
I1
sVd012xoi
p497
I1
sVdb0jeo7
p498
I1
sVd05vvr7
p499
I1
sVd816hfl
p500
I2
sVda1bf0h
p501
I1
sVd3hg2xq
p502
I1
sVdfbj2ye
p503
I1
sVd2ph0w2
p504
I1
sVdnfit45
p505
I1
sVd0koagx
p506
I5
sVdileak0
p507
I1
sVdfzw9kb
p508
I1
sVddgwl3u
p509
I1
sVdiumeym
p510
I1
sVczrn0e1
p511
I1
sVdi9m37p
p512
I1
sVdntcmgv
p513
I1
sVdhi6s51
p514
I5
sVds0p9ar
p515
I1
sVd2i3j6r
p516
I1
sVd6ibyry
p517
I1
sVdetah7o
p518
I2
sVcyuehpc
p519
I1
sVdb6wk7g
p520
I1
sVdfe7vu9
p521
I1
sVderm98k
p522
I1
sVdntll6c
p523
I2
sVd27oymw
p524
I1
sVdgf8lzi
p525
I2
sVd7p1zg3
p526
I1
sVd1o5lp1
p527
I2
sVdo82cic
p528
I1
sVdarlfw8
p529
I1
sVdhieug1
p530
I4
sVd48hsmv
p531
I1
sVdf3i53j
p532
I1
sVdc9c3b4
p533
I2
sVdhpvm8h
p534
I1
sVdmmjtiw
p535
I1
sVd1wp5ie
p536
I1
sVd235jwt
p537
I5
sVdhr038m
p538
I1
sVcyiqozu
p539
I1
sVd5lbpz4
p540
I1
sVd13fqgg
p541
I1
sVd1isgi1
p542
I1
sVdny2zhf
p543
I1
sVdar8rs2
p544
I2
sVdghlqaz
p545
I1
sVd0shm4n
p546
I1
sVd1q15co
p547
I1
sVdbvtv64
p548
I1
sVdio4r0x
p549
I1
sVdcpxnua
p550
I1
sVdcq1s93
p551
I1
sVdn3ztzs
p552
I1
sVdgo1pjj
p553
I1
sVdi5kk5t
p554
I2
sVdoigzqk
p555
I1
sVdd0yxit
p556
I3
sVdik2pd6
p557
I2
sVdj6u3yu
p558
I1
sVdsctftt
p559
I2
sVcykprau
p560
I2
sVdmm4z1k
p561
I1
sVdjapzi1
p562
I1
sVdjppcp7
p563
I1
sVdmlz9ol
p564
I1
sVd700a0a
p565
I1
sVd1mpxj2
p566
I1
sVd0k6dm2
p567
I3
sVdn1e8g3
p568
I2
sVda7trjo
p569
I1
sVczxbe7s
p570
I1
sVd8my0lh
p571
I1
sVd9acdbu
p572
I1
sVdmzrtke
p573
I1
sVd3upeon
p574
I1
sVd1a39ph
p575
I1
sVdaxnqnc
p576
I1
sVdo7zoi7
p577
I1
sVd12xgn3
p578
I1
sVdde4t6k
p579
I3
sVd70073x
p580
I1
sVdaz3sde
p581
I1
sVd4cwupb
p582
I1
sVd3mutbb
p583
I4
sVdd3z55f
p584
I1
sVdkjs1mv
p585
I1
sVdsmnlxk
p586
I1
sVczdr9dq
p587
I1
sVd3pf8ri
p588
I2
sVdg5tqt3
p589
I1
sVdgiaijo
p590
I1
sVd3n9yu2
p591
I2
sVd37mcl0
p592
I1
sVds4yqc6
p593
I1
sVde3fsnm
p594
I1
sVd9fetbw
p595
I1
sVd8dx8v7
p596
I1
sVdbm1zg3
p597
I1
sVdjo8aig
p598
I1
sVdh59632
p599
I1
sVcyz3o38
p600
I1
sVd616fax
p601
I1
sVdqmdem4
p602
I1
sVd06afjw
p603
I1
sVdhih0st
p604
I3
sVdix1dns
p605
I1
sVdjh2o0j
p606
I3
sVczhwujk
p607
I2
sVdjspif4
p608
I1
sVdnil2qr
p609
I1
sVddlillm
p610
I1
sVd32exkq
p611
I1
sVd8kdwf2
p612
I1
sVdg27dta
p613
I1
sVcyrszjv
p614
I1
sVd5775n6
p615
I1
sVdc3clwa
p616
I1
sVdnlg5vb
p617
I1
sVdhvfwpr
p618
I1
sVdfb9bkh
p619
I1
sVd630cpu
p620
I1
sVdk44yf4
p621
I1
sVd655tyr
p622
I1
sVdntci2p
p623
I1
sVd2cd5au
p624
I1
sVczrk8at
p625
I4
sVd3n3cte
p626
I1
sVd2pczyq
p627
I2
sVdrqfrer
p628
I1
sVd0yyqqf
p629
I2
sVdcj0bvw
p630
I1
sVd9xdibt
p631
I1
sVdhvhjxo
p632
I1
sVdjgzu1c
p633
I1
sVdfq9b5p
p634
I1
sVdd1rnl1
p635
I1
sVd77qksd
p636
I1
sVd2u7ru9
p637
I1
sVdbezu0b
p638
I1
sVd9g1ekd
p639
I1
sVdjglrqg
p640
I1
sVdnlfuaf
p641
I2
sVdbn8h8m
p642
I1
sVd2mqprc
p643
I2
sVditcb8z
p644
I5
sVdape5fg
p645
I1
sVd1mzhyd
p646
I1
sVda09zof
p647
I2
sVd1h5f2p
p648
I1
sVdt7w6sx
p649
I1
sVd82u9lq
p650
I1
sVd9x5sjw
p651
I1
sVd0tc4t6
p652
I1
sVdfgq7ru
p653
I1
sVdnjd1zy
p654
I1
sVcyp06h5
p655
I1
sVdfdp9h9
p656
I1
sVdc330gk
p657
I1
sVdmk78qd
p658
I1
sVd9bxlwx
p659
I1
sVd695hss
p660
I5
sVd3mvf0e
p661
I1
sVd10rsrf
p662
I1
sVd8zdusm
p663
I1
sVd7r95q4
p664
I1
sVda1tz2c
p665
I1
sVd6itaok
p666
I1
sVdb3gqa0
p667
I4
sVdhmaxue
p668
I2
sVdh17hwx
p669
I2
sVd3396kf
p670
I1
sVdervjud
p671
I1
sVd3pecmw
p672
I1
sVdajs13l
p673
I1
sVdd8y409
p674
I2
sVdiyrrn0
p675
I1
sVd7i0eb6
p676
I1
sVd8o681r
p677
I2
sVdhslbby
p678
I2
sVdf6d9ii
p679
I1
sVdjhnvuk
p680
I2
sVdc2hfjc
p681
I1
sVd2rsly6
p682
I1
sVdi8p73j
p683
I3
sVd3xhocr
p684
I1
sVdf5rc4t
p685
I1
sVditjroi
p686
I1
sVd9k4tte
p687
I1
sVcyv15gj
p688
I1
sVd1bp62x
p689
I1
sVdil8r6q
p690
I2
sVdn0gwml
p691
I2
sVd5x0g8y
p692
I2
sVcytwtpz
p693
I1
sVdii3zya
p694
I1
sVd9ppqgn
p695
I1
sVdji0c1r
p696
I1
sVdnli633
p697
I1
sVdkrbel4
p698
I2
sVda13ua2
p699
I6
sVd0zw1z0
p700
I1
sVdmyapu3
p701
I4
sVdfa8wup
p702
I2
sVdb8ze52
p703
I2
sVddfqnyc
p704
I1
sVd1wdy8k
p705
I1
sVd5awsvw
p706
I1
sVd66oclq
p707
I1
sVdfbiswh
p708
I1
sVd6ohmko
p709
I1
sVd82mhlw
p710
I4
sVcylc273
p711
I1
sVd9tohii
p712
I2
sVd8whscs
p713
I1
sVdg3myfl
p714
I1
sVdes8bnw
p715
I1
sVd7l73lq
p716
I1
sVdiml1h5
p717
I1
sVcz0i8gq
p718
I2
sVcz41a5a
p719
I2
sVdiojcin
p720
I1
sVd6tntrx
p721
I1
sVd3ftwh0
p722
I1
sVd39kr79
p723
I1
sVd2wjthn
p724
I2
sVd01d2a4
p725
I1
sVdk14qvm
p726
I1
sVdfnccoz
p727
I2
sVd8nhtxn
p728
I1
sVdhlvs5u
p729
I1
sVdqo8u3q
p730
I2
sVdfq7lyy
p731
I1
sVdc6lbm5
p732
I1
sVdfdkx42
p733
I1
sVdmsx7y7
p734
I1
sVcz7e5hh
p735
I1
sVd2jqfhb
p736
I1
sVdadmv0l
p737
I1
sVdgw1kmd
p738
I2
sVdkdxg47
p739
I1
sVczgkva9
p740
I2
sVdd13z5k
p741
I1
sVdc930ik
p742
I2
sVd8cqtcg
p743
I1
sVdfviupy
p744
I1
sVdauzhzd
p745
I1
sVdcuh2gn
p746
I1
sVdmp54gy
p747
I1
sVdn3se48
p748
I1
sVcz4p884
p749
I3
sVdc7zyed
p750
I1
sVdjc9hzd
p751
I1
sVdhizl1z
p752
I1
sVda154m9
p753
I1
sVd54pgr6
p754
I1
sVdtcrda8
p755
I1
sVd0wi1xl
p756
I2
sVcz27hvo
p757
I1
sVdbmm7vw
p758
I1
sVd1dcmxq
p759
I1
sVd48qdy5
p760
I1
sVdijtoy9
p761
I6
sVd35bfav
p762
I1
sVdbenyee
p763
I1
sVd2mf2xb
p764
I1
sVd2ejbm0
p765
I1
sVdjtar05
p766
I1
sVdfiskwa
p767
I1
sVdimerpc
p768
I2
sVcyrqhu5
p769
I2
sVda9apcq
p770
I1
sVdmnss7q
p771
I1
sVd727lmk
p772
I1
sVd5haoqs
p773
I1
sVdiu564h
p774
I1
sVd0y89ib
p775
I1
sVd99hsk8
p776
I1
sVdbz0vsy
p777
I1
sVdcb2ech
p778
I1
sVdc67nia
p779
I1
sVdmzc50p
p780
I1
sVcztla86
p781
I2
sVdtf2mtl
p782
I3
sVd3eo9g5
p783
I2
sVdn4229s
p784
I1
sVdd20928
p785
I1
sVdco5bs1
p786
I1
sVczomu78
p787
I2
sVdk17hnk
p788
I1
sVd9e7s83
p789
I1
sVdiygdhz
p790
I2
sVdrkjh8r
p791
I1
sVd5e9tkd
p792
I2
sVdjxwdef
p793
I1
sVd57qjld
p794
I1
sVd4c0xjt
p795
I1
sVdgjuq5l
p796
I1
sVdd24rn1
p797
I1
sVdaxwjj7
p798
I1
sVd6vtsqx
p799
I1
sVd6tfk45
p800
I1
sVdsqqb7z
p801
I1
sVdei41h8
p802
I1
sVdaok57j
p803
I1
sVd43uikq
p804
I1
sVdgsbe2f
p805
I1
sVdi6nx71
p806
I2
sVd3fl91w
p807
I2
sVdell37h
p808
I1
sVcz55i0x
p809
I1
sVddrsvk8
p810
I1
sVd559do8
p811
I1
sVdffzvdc
p812
I1
sVd0z9vr6
p813
I1
sVdewbwd1
p814
I1
sVd3wjz1b
p815
I2
sVdbyk6ya
p816
I2
sVdd3d09f
p817
I2
sVdeoafxq
p818
I1
sVczth5ub
p819
I1
sVdd3e5iu
p820
I4
sVd15oyrl
p821
I5
sVdo9rsnl
p822
I2
sVdcofwhx
p823
I1
sVdizkcxv
p824
I1
sVdirr9l6
p825
I1
sVdc7hupt
p826
I1
sVdn3x17h
p827
I1
sVd4jma4z
p828
I2
sVd2qg1fh
p829
I1
sVdaiwdrb
p830
I3
sVdijwool
p831
I8
sVdov7u1p
p832
I1
sVdf3li8o
p833
I1
sVd2c4410
p834
I3
sVd3za1os
p835
I1
sVd0bxjtb
p836
I1
sVd59uz8j
p837
I1
sVd0r3hq8
p838
I1
sVdc05t4q
p839
I1
sVd1ph2yt
p840
I1
sVdr6gqc4
p841
I1
sVdpz94yn
p842
I1
sVdblwtzr
p843
I1
sVd2dvm6u
p844
I4
sVdpfs81m
p845
I2
sVd9zx1ga
p846
I1
sVd4a0n46
p847
I1
sVcz4l6pd
p848
I1
sVdhesxh5
p849
I1
sVdej7hqe
p850
I1
sVd7z9503
p851
I1
sVdajv3u3
p852
I1
sVdoe1stc
p853
I1
sVdal2x6f
p854
I1
sVd1cy94o
p855
I1
sVdb71945
p856
I1
sVd8w6etu
p857
I1
sVdk1gyhh
p858
I1
sVdoqkudg
p859
I1
sVd9o7wwe
p860
I1
sVdd87rn4
p861
I1
sVdmlpzsn
p862
I1
sVd6gtqwy
p863
I1
sVdgzirtx
p864
I1
sVcysjolg
p865
I1
sVdcj07q6
p866
I2
sVd5gleoq
p867
I1
sVdkiiywu
p868
I1
sVczkloi8
p869
I2
sVd3fn9hi
p870
I1
sVd9l6c3h
p871
I1
sVd7oavn0
p872
I2
sVd3wcrf4
p873
I2
sVczkbr6y
p874
I1
sVd694zzy
p875
I2
sVcz4wd9y
p876
I1
sVdjh754j
p877
I1
sVdf7g5ji
p878
I2
sVd3g4wor
p879
I1
sVdf5zsh7
p880
I2
sVdk7c627
p881
I1
sVd6tiwbt
p882
I1
sVd4vgawx
p883
I1
sVd3pfg4n
p884
I1
sVdhw050r
p885
I2
sVdk7tvva
p886
I3
sVd9a5sjr
p887
I1
sVczu5d86
p888
I1
sVdox6fuz
p889
I1
sVcz9gop5
p890
I1
sVds9rtxk
p891
I1
sVczav3zi
p892
I1
sVdejtxbl
p893
I1
sVdj6v7hv
p894
I1
sVdf6930u
p895
I3
sVdguz7zo
p896
I1
sVdgdlyyx
p897
I1
sVd1s2tbe
p898
I1
sVd7s5d5n
p899
I1
sVdiq4uk8
p900
I1
sVddrrgde
p901
I1
sVddf4ga4
p902
I1
sVd9tmu5w
p903
I1
sVdfa6x8w
p904
I1
sVd085vh7
p905
I1
sVddeghpc
p906
I1
sVdf9ajgy
p907
I1
sVdetalpv
p908
I1
sVd1oxxvg
p909
I1
sVdti876l
p910
I4
sVdjmcedb
p911
I1
sVdhtkcfz
p912
I1
sVdj9uhmb
p913
I1
sVdk1c36j
p914
I1
sVdoh9umk
p915
I1
sVdnvacbh
p916
I1
sVdtctz88
p917
I1
sVdcvowng
p918
I2
sVd3f6ujd
p919
I1
sVd6hfvcp
p920
I1
sVd8xo8c3
p921
I6
sVdi0jghh
p922
I1
sVdc8xtmk
p923
I2
sVdb5jblk
p924
I2
sVdrrmx08
p925
I1
sVd8rf7u2
p926
I1
sVdhvfp15
p927
I1
sVdd83fck
p928
I1
sVdi2ws1g
p929
I1
sVdhizwb0
p930
I1
sVd14h3js
p931
I1
sVd3n3lfk
p932
I1
sVd7e6jmn
p933
I1
sVczffvr7
p934
I1
sVdewg6sm
p935
I1
sVdbobauv
p936
I1
sVdbeuupw
p937
I2
sVcyvfap4
p938
I1
sVdkllxuv
p939
I1
sVdjupe67
p940
I1
sVdcoy3ev
p941
I2
sVdp7527b
p942
I1
sVddjpb2j
p943
I1
sVd01d2yk
p944
I1
sVdqta9jl
p945
I1
sVd9m0mfj
p946
I1
sVd8am9ky
p947
I1
sVdte2xur
p948
I2
sVdc1e9cg
p949
I1
sVdd06r9m
p950
I1
sVd0wgw8p
p951
I1
sVdnb1fv7
p952
I1
sVddqlx3w
p953
I1
sVdsjh6bg
p954
I1
sVd125600
p955
I1
sVd7qway9
p956
I1
sVdet20w5
p957
I1
sVd03zf0p
p958
I1
sVd9y9cty
p959
I1
sVdrewubg
p960
I1
sVdcddc3v
p961
I1
sVczfo42w
p962
I1
sVd19rjx0
p963
I1
sVdat6j1e
p964
I1
sVdglvxro
p965
I1
sVdku7ctv
p966
I1
sVdk7sd4f
p967
I1
sVd1sh4zm
p968
I1
sVdfbk7u2
p969
I2
sVczicbcp
p970
I2
sVdde0b2a
p971
I1
sVddj0ap8
p972
I1
sVdgrrkph
p973
I1
sVd3tc1jb
p974
I1
sVdiwfoda
p975
I1
sVdi33xvl
p976
I1
sVdfwgtj4
p977
I1
sVdgmd6rq
p978
I2
sVd1v39nw
p979
I1
sVddclv5v
p980
I1
sVdnzvqmj
p981
I1
sVdox3h3o
p982
I2
sVdjuq35f
p983
I3
sVdgkgm7l
p984
I1
sVda9kxrt
p985
I2
sVd3ao9en
p986
I1
sVdeu0zx4
p987
I1
sVddj3grx
p988
I1
sVd1l70md
p989
I2
sVdghqzn8
p990
I1
sVdbhxoo2
p991
I1
sVdpf4mol
p992
I1
sVd67fm7t
p993
I1
sVd3olvvw
p994
I1
sVd5peg1k
p995
I1
sVdbtle1f
p996
I1
sVdsex0z9
p997
I1
sVdd3c527
p998
I1
sVdj2v76j
p999
I1
sVd2paopb
p1000
I1
sVd2na3ex
p1001
I1
sVdjfll9z
p1002
I3
sVd279bps
p1003
I1
sVdntegut
p1004
I1
sVdekih1p
p1005
I2
sVcyr44lx
p1006
I1
sVd65oedn
p1007
I1
sVdkm0l4w
p1008
I1
sVdc329hc
p1009
I1
sVdhi89s4
p1010
I1
sVd2gssdk
p1011
I3
sVczdr5o8
p1012
I1
sVddcnmw5
p1013
I1
sVd32b16m
p1014
I1
sVdha6vi8
p1015
I4
sVd1j4uvo
p1016
I1
sVdmgrcb3
p1017
I2
sVdijwnp1
p1018
I3
sVdhlatlh
p1019
I1
sVd5zpagd
p1020
I1
sVd3fiwwo
p1021
I1
sVdc0repu
p1022
I1
sVdbm33m4
p1023
I2
sVd3a9mqq
p1024
I1
sVdd84rs1
p1025
I2
sVdghd8nd
p1026
I1
sVdetabvk
p1027
I2
sVd2v40rr
p1028
I1
sVdet6hmq
p1029
I1
sVdgxtwig
p1030
I1
sVd5kkr7k
p1031
I1
sVcywmfx6
p1032
I1
sVd67ng4k
p1033
I1
sVd32cs87
p1034
I1
sVdcdl43p
p1035
I2
sVdetksza
p1036
I1
sVdrdsd1h
p1037
I1
sVd2bq9wu
p1038
I2
sVda0tyoa
p1039
I1
sVd1b5w9v
p1040
I2
sVdekio0k
p1041
I2
sVdn480r7
p1042
I1
sVd5d5mga
p1043
I2
sVdkj46je
p1044
I1
sVd3flace
p1045
I1
sVdjg4f7z
p1046
I1
sVd1v9b43
p1047
I1
sVdgro3aw
p1048
I1
sVdblgbw2
p1049
I1
sVd32docr
p1050
I1
sVdaqt1o9
p1051
I2
sVdbuyyu2
p1052
I1
sVdij1vu8
p1053
I1
sVdswdzh4
p1054
I1
sVd9unmr8
p1055
I1
sVd86vez1
p1056
I1
sVd60hciw
p1057
I1
sVdf100y0
p1058
I1
sVdcngnfl
p1059
I1
sVd2ez3x0
p1060
I2
sVdbullzk
p1061
I3
sVdorr72d
p1062
I2
sVdk0y4ar
p1063
I6
sVdbm56ni
p1064
I1
sVdqclj5a
p1065
I1
sVdd5036d
p1066
I1
sVd5ap3mu
p1067
I1
sVdgsbjtd
p1068
I3
sVd2boc2u
p1069
I1
sVdei4p9r
p1070
I1
sVd3fcac0
p1071
I1
sVd6z84n3
p1072
I1
sVczbpcsr
p1073
I1
sVdbpejvi
p1074
I3
sVd04ckrw
p1075
I4
sVd9gs9gw
p1076
I1
sVdj72h38
p1077
I1
sVdgdl5bu
p1078
I1
sVds4oq6l
p1079
I4
sVdhvdttw
p1080
I1
sVdbm8oll
p1081
I1
sVdd3dwsl
p1082
I3
sVdehina9
p1083
I1
sVd1t9cw0
p1084
I1
sVdiy6e91
p1085
I3
sVd8aplfa
p1086
I1
sVczxa91a
p1087
I1
sVdmketn7
p1088
I1
sVd69wv29
p1089
I2
sVdk1mhrw
p1090
I2
sVd43ipox
p1091
I5
sVd5fj3ra
p1092
I1
sVd5zf09v
p1093
I1
sVdhjkby9
p1094
I1
sVdg3jgct
p1095
I1
sVdd528w2
p1096
I1
sVdfnhhfg
p1097
I1
sVdjnc1y6
p1098
I1
sVdd883wm
p1099
I1
sVdoeb6cp
p1100
I1
sVdfgc6zk
p1101
I1
sVdfcaehq
p1102
I4
sVdfj4n0o
p1103
I2
sVd21p766
p1104
I1
sVdqokl4v
p1105
I1
sVdcab5oc
p1106
I2
sVcylk7zm
p1107
I1
sVd8wes9j
p1108
I1
sVdt1j4hj
p1109
I3
sVd7pg3n5
p1110
I1
sVdi016zm
p1111
I1
sVdbrlng4
p1112
I1
sVdp8sztm
p1113
I1
sVd6nviyn
p1114
I1
sVdexi6os
p1115
I1
sVd48hrwx
p1116
I1
sVdt3o8pi
p1117
I1
sVdnznft4
p1118
I1
sVd8yh0kv
p1119
I2
sVd3380bi
p1120
I1
sVddtwyhz
p1121
I1
sVd7qwtf8
p1122
I2
sVd3e7ito
p1123
I1
sVd0c0nik
p1124
I1
sVcyj7f1f
p1125
I2
sVddmu3z4
p1126
I1
sVczuhz5o
p1127
I1
sVdessr5r
p1128
I4
sVdhil0aq
p1129
I1
sVd31qve4
p1130
I1
sVd81ooz0
p1131
I1
sVddpyfp1
p1132
I3
sVd1g2eff
p1133
I2
sVddbdmwc
p1134
I2
sVd05339g
p1135
I1
sVdp5ep8l
p1136
I1
sVd5qd8d6
p1137
I1
sVd9u9nai
p1138
I1
sVdkv5sj3
p1139
I1
sVdci160f
p1140
I1
sVdkz43f6
p1141
I1
sVd3fg5au
p1142
I1
s.