(dp0
Vcymseid
p1
I1
s.(dp0
Vcymseid
p1
I2
s.(dp0
Vcymseid
p1
I1
sVcz3m4e7
p2
I1
s.(dp0
Vcz4dned
p1
I1
sVcymseid
p2
I1
s.(dp0
Vcz50k8z
p1
I1
sVcymseid
p2
I1
s.(dp0
Vcymseid
p1
I1
sVczb0vqj
p2
I1
s.(dp0
Vczfpjhb
p1
I1
sVcymseid
p2
I1
s.(dp0
Vczfqg9w
p1
I1
sVcymseid
p2
I1
s.(dp0
Vcymseid
p1
I1
sVczz6cb1
p2
I1
s.(dp0
Vcymseid
p1
I1
sVczz6cb1
p2
I1
s.(dp0
Vd0ciw77
p1
I1
sVcymseid
p2
I1
s.(dp0
Vcymseid
p1
I1
sVd0xf02h
p2
I1
s.(dp0
Vcymseid
p1
I1
sVd0xf473
p2
I1
s.(dp0
Vd1tqdzt
p1
I1
sVcymseid
p2
I1
s.(dp0
Vd1uv1fh
p1
I1
sVcymseid
p2
I1
s.(dp0
Vcymseid
p1
I1
sVd314512
p2
I1
s.(dp0
Vd36hbzh
p1
I1
sVcymseid
p2
I1
s.(dp0
Vd36hbzh
p1
I1
sVcymseid
p2
I1
s.(dp0
Vcymseid
p1
I1
sVd3af8ov
p2
I1
s.(dp0
Vcymseid
p1
I1
sVd3ao2o3
p2
I1
s.(dp0
Vcymseid
p1
I1
sVd3ao2o3
p2
I1
s.(dp0
Vcymseid
p1
I1
sVd3ao2o3
p2
I1
s.(dp0
Vd3aphv2
p1
I1
sVcymseid
p2
I1
s.(dp0
Vd3aphv2
p1
I1
sVcymseid
p2
I1
s.(dp0
Vd3ihh3b
p1
I1
sVcymseid
p2
I1
s.(dp0
Vd3nftfj
p1
I1
sVcymseid
p2
I1
s.(dp0
Vd3nftfj
p1
I1
sVcymseid
p2
I1
s.(dp0
Vd3nftfj
p1
I1
sVcymseid
p2
I1
s.(dp0
Vd3v62oy
p1
I1
sVcymseid
p2
I1
s.(dp0
Vd463flf
p1
I1
sVcymseid
p2
I1
s.(dp0
Vd463flf
p1
I1
sVcymseid
p2
I1
s.(dp0
Vd49f59z
p1
I1
sVcymseid
p2
I1
s.(dp0
Vd4ek801
p1
I1
sVcymseid
p2
I1
s.(dp0
Vcymseid
p1
I1
sVd4f7kw3
p2
I1
s.(dp0
Vd4fas65
p1
I1
sVcymseid
p2
I1
s.(dp0
Vd4fas65
p1
I1
sVcymseid
p2
I1
s.(dp0
Vd4fipl1
p1
I1
sVcymseid
p2
I1
s.(dp0
Vd4fkgil
p1
I1
sVcymseid
p2
I1
s.(dp0
Vd4fm5b1
p1
I1
sVcymseid
p2
I1
s.(dp0
Vd4fm5b1
p1
I1
sVcymseid
p2
I1
s.(dp0
Vd4fm5b1
p1
I1
sVcymseid
p2
I1
s.(dp0
Vd4fp24m
p1
I1
sVcymseid
p2
I1
s.(dp0
Vd4fp24m
p1
I1
sVcymseid
p2
I1
s.(dp0
Vd4fp24m
p1
I1
sVcymseid
p2
I1
s.(dp0
Vd4fp24m
p1
I1
sVcymseid
p2
I1
s.(dp0
Vd4y21yx
p1
I1
sVcymseid
p2
I1
s.(dp0
Vcymseid
p1
I1
sVd53ys8j
p2
I1
s.(dp0
Vcymseid
p1
I1
sVd54mbse
p2
I1
s.(dp0
Vcymseid
p1
I1
sVd54mbse
p2
I1
s.(dp0
Vcymseid
p1
I1
sVd54mbse
p2
I1
s.(dp0
Vcymseid
p1
I1
sVd54mbse
p2
I1
s.(dp0
Vcymseid
p1
I1
sVd54mbse
p2
I1
s.(dp0
Vd5ogipk
p1
I1
sVcymseid
p2
I1
s.(dp0
Vd5ogipk
p1
I1
sVcymseid
p2
I1
s.(dp0
Vd5ogipk
p1
I1
sVcymseid
p2
I1
s.(dp0
Vd5ogzio
p1
I1
sVcymseid
p2
I1
s.(dp0
Vd5ogzio
p1
I1
sVcymseid
p2
I1
s.(dp0
Vd5ogzio
p1
I1
sVcymseid
p2
I1
s.(dp0
Vcymseid
p1
I1
sVd5sg1vf
p2
I1
s.(dp0
Vd62k6e7
p1
I1
sVcymseid
p2
I1
s.(dp0
Vd6d1zzs
p1
I1
sVcymseid
p2
I1
s.(dp0
Vcymseid
p1
I1
sVd7ghyxm
p2
I1
s.(dp0
Vd7gu4h7
p1
I1
sVcymseid
p2
I1
s.(dp0
Vcymseid
p1
I1
sVd84udjs
p2
I1
s.(dp0
Vd86bntc
p1
I1
sVcymseid
p2
I1
s.(dp0
Vd8ylva7
p1
I1
sVcymseid
p2
I1
s.(dp0
Vd91nm0z
p1
I1
sVcymseid
p2
I1
s.(dp0
Vd91nm0z
p1
I1
sVcymseid
p2
I1
s.(dp0
Vd9bn6o3
p1
I1
sVcymseid
p2
I1
s.(dp0
Vd9ci3x8
p1
I1
sVcymseid
p2
I1
s.(dp0
Vcymseid
p1
I1
sVd9da7zl
p2
I1
s.(dp0
Vcymseid
p1
I1
sVd9da7zl
p2
I1
s.(dp0
Vda8r1nb
p1
I1
sVcymseid
p2
I1
s.(dp0
Vdaoae6x
p1
I1
sVcymseid
p2
I1
s.(dp0
Vdar2qsd
p1
I1
sVcymseid
p2
I1
s.(dp0
Vdbaufue
p1
I1
sVcymseid
p2
I1
s.(dp0
Vdbaufue
p1
I1
sVcymseid
p2
I1
s.(dp0
Vdbaufue
p1
I1
sVcymseid
p2
I1
s.(dp0
Vdbaufue
p1
I1
sVcymseid
p2
I1
s.(dp0
Vdbevizp
p1
I1
sVcymseid
p2
I1
s.(dp0
Vcymseid
p1
I1
sVdbhzzp6
p2
I1
s.(dp0
Vcymseid
p1
I1
sVdbuzdbi
p2
I1
s.(dp0
Vcymseid
p1
I1
sVdbuzdbi
p2
I1
s.(dp0
Vcymseid
p1
I1
sVdbuzdbi
p2
I1
s.(dp0
Vdbz501w
p1
I1
sVcymseid
p2
I1
s.(dp0
Vcymseid
p1
I1
sVdcms20q
p2
I1
s.(dp0
Vdcmt7zr
p1
I1
sVcymseid
p2
I1
s.(dp0
Vdcmt7zr
p1
I1
sVcymseid
p2
I1
s.(dp0
Vddd8uws
p1
I1
sVcymseid
p2
I1
s.(dp0
Vddkawlp
p1
I1
sVcymseid
p2
I1
s.(dp0
Vcymseid
p1
I1
sVddl72w8
p2
I1
s.(dp0
Vcymseid
p1
I1
sVddl72w8
p2
I1
s.(dp0
Vcymseid
p1
I1
sVddvv7ap
p2
I1
s.(dp0
Vcymseid
p1
I1
sVddvv7ap
p2
I1
s.(dp0
Vcymseid
p1
I1
sVddvv7ap
p2
I1
s.(dp0
Vddvw6b5
p1
I1
sVcymseid
p2
I1
s.(dp0
Vddvw6b5
p1
I1
sVcymseid
p2
I1
s.(dp0
Vddvw6b5
p1
I1
sVcymseid
p2
I1
s.(dp0
Vddw76uc
p1
I1
sVcymseid
p2
I1
s.(dp0
Vde6vvxp
p1
I1
sVcymseid
p2
I1
s.(dp0
Vdel7p6p
p1
I1
sVcymseid
p2
I1
s.(dp0
Vdeof4ib
p1
I1
sVcymseid
p2
I1
s.(dp0
Vcymseid
p1
I1
sVdfweuqe
p2
I1
s.(dp0
Vcymseid
p1
I1
sVdg4njsa
p2
I1
s.(dp0
Vcymseid
p1
I1
sVdhtz61a
p2
I1
s.(dp0
Vdhzjq55
p1
I1
sVcymseid
p2
I1
s.(dp0
Vcymseid
p1
I1
sVdiuz5gm
p2
I1
s.(dp0
Vdiwglqc
p1
I1
sVcymseid
p2
I1
s.(dp0
Vdiwglqc
p1
I1
sVcy(dp0
Vdt6q33h
p1
I1
sVcymseid
p2
I1
s.