(dp0
Vdbkwb3l
p1
I1
sVdf56xxa
p2
I1
sVd8u8vgl
p3
I1
sVd2f6v0o
p4
I1
sVdexvy5g
p5
I1
sVcyr4y87
p6
I1
sVd178454
p7
I1
sVd7ywpye
p8
I1
sVd9qhnxr
p9
I1
sVdeh8cl4
p10
I1
sVdhc1e9e
p11
I1
sVd613wy3
p12
I1
s.