(dp0
Vdqh4haj
p1
I1
sVcyxxdj2
p2
I1
sVczdqnnc
p3
I1
sVddqz47z
p4
I1
sVd3y9l23
p5
I1
sVd6lqpir
p6
I1
sVdbmumtg
p7
I1
sVd00soo1
p8
I1
sVdglejd9
p9
I2
sVd9b62zz
p10
I1
sVdq0dhej
p11
I1
sVdbpps6z
p12
I1
sVdc9wq32
p13
I1
sVdosuo6i
p14
I1
sVdczm9tb
p15
I1
sVd4w6yqn
p16
I1
sVd2admd7
p17
I1
sVdqy2rye
p18
I1
sVdppuihe
p19
I1
sVdj9qsdi
p20
I1
sVd2e55y7
p21
I1
sVcyuq28t
p22
I1
sVdny7lw1
p23
I1
sVd94nj77
p24
I1
sVdnvmk7r
p25
I1
sVd51ugcf
p26
I1
sVd2ggezk
p27
I1
sVdiqex1v
p28
I1
sVd7sn28y
p29
I1
sVd3b4vwz
p30
I1
sVde1gbll
p31
I2
sVdfpa22r
p32
I1
sVd7g5pom
p33
I1
sVdc0zd5o
p34
I1
sVcztehux
p35
I1
sVd543as8
p36
I1
sVdp3oqh2
p37
I1
sVdqdjtxu
p38
I1
sVdis0n2n
p39
I1
sVd2ogibr
p40
I1
sVdigdncw
p41
I2
sVdcr94p7
p42
I1
sVd4mrwqm
p43
I1
sVdgfqwk7
p44
I1
sVdiqgx4s
p45
I1
sVd4o04uj
p46
I1
sVdd8ozvv
p47
I1
sVczpgsaq
p48
I1
sVdedvhop
p49
I1
sVdmisdef
p50
I1
sVdekuppn
p51
I1
sVddc9774
p52
I1
sVdpyv3vu
p53
I1
sVdgtqpb2
p54
I1
sVd0xsk7b
p55
I1
sVdqb4gzh
p56
I1
sVd59lifc
p57
I1
sVdilnoef
p58
I1
sVd3il1s3
p59
I1
sVdbcnbev
p60
I1
sVd5o40dj
p61
I1
sVdhpu3l8
p62
I1
sVdji2nf2
p63
I1
sVdhn2zxt
p64
I1
sVdsza1hz
p65
I1
sVdbx8glt
p66
I2
sVd01qhii
p67
I1
sVdbe8wz4
p68
I1
sVdc3953e
p69
I1
sVdadblal
p70
I1
sVdbumxvw
p71
I1
sVdhbakhe
p72
I2
sVd6ajxz5
p73
I1
sVd61dh54
p74
I1
sVdqd0h0u
p75
I1
sVd2blw8v
p76
I1
sVd0nnchh
p77
I1
sVd8ifgwo
p78
I2
sVczriyim
p79
I1
sVd0o39ch
p80
I1
sVd1hfoz1
p81
I1
sVdaz8ioq
p82
I1
sVd5rj1m5
p83
I1
sVd0521at
p84
I1
sVdnhi6yc
p85
I1
sVdhd6omj
p86
I1
sVdt38ljj
p87
I1
sVdazn3kc
p88
I2
sVd6p5ajy
p89
I1
sVdkzn4a0
p90
I1
sVd6w9i5i
p91
I2
sVd6gn58m
p92
I1
sVd4pxmok
p93
I1
sVdexjhoy
p94
I1
sVd8kpo6h
p95
I1
sVdd9wg4w
p96
I1
sVd23cpqn
p97
I1
sVcywleom
p98
I1
sVczu0rw7
p99
I1
sVd5lwsoy
p100
I1
sVddok9gr
p101
I1
sVd8701rm
p102
I1
sVdhyp7l9
p103
I1
sVdbw1ro0
p104
I1
sVdqeklmw
p105
I1
sVdbrwtpy
p106
I1
sVd9lhmlf
p107
I1
sVdezwe4w
p108
I1
sVd53hvms
p109
I1
sVdqipyex
p110
I1
sVd0ib3tj
p111
I1
sVdn1ogrl
p112
I2
sVdg04vcx
p113
I1
sVdk0tw7a
p114
I1
sVde950h4
p115
I1
sVd3t6tzb
p116
I1
sVd10hzl7
p117
I1
sVdsflr6r
p118
I1
sVcyq86xv
p119
I1
sVd0fhc9j
p120
I1
sVd2f96zb
p121
I1
sVdcmhofm
p122
I1
sVdio12i1
p123
I1
sVdhjxuyf
p124
I1
sVdajosvh
p125
I1
sVdqibf2w
p126
I1
sVd5bmu5j
p127
I1
sVdjzpxpi
p128
I1
sVdhmdvo4
p129
I1
sVd4zwrtu
p130
I3
sVczwn55u
p131
I1
sVcyxegtb
p132
I1
sVdikc0b3
p133
I1
sVczp0dwa
p134
I1
sVd27cvzh
p135
I1
sVdfbnrv9
p136
I1
sVdawq072
p137
I1
sVddj14uf
p138
I1
sVd7vo6fi
p139
I1
sVdio114p
p140
I1
sVd1xyogi
p141
I1
sVdhwhprw
p142
I1
sVd3mgaup
p143
I2
sVd0a1kvf
p144
I1
sVd37e91v
p145
I1
sVddfq729
p146
I1
sVdduv73j
p147
I1
sVd8iwmsr
p148
I1
sVdg4me9u
p149
I1
sVdt4jv5a
p150
I1
sVd3rx1w6
p151
I1
sVdt6zzzs
p152
I1
sVdeefehz
p153
I1
sVdqgel1l
p154
I1
sVd4iw8fm
p155
I1
sVdc9wrib
p156
I2
sVd4of3wd
p157
I1
sVd8dde42
p158
I1
sVd9nw2f6
p159
I1
sVd3hlx8p
p160
I1
sVdmva2l1
p161
I1
sVd0ecj01
p162
I1
sVczi6uch
p163
I1
sVdn6pqs7
p164
I1
sVd40pixd
p165
I1
sVdffb7mz
p166
I1
sVdegtoq3
p167
I1
sVdrhuven
p168
I1
sVdram8sa
p169
I1
sVczznitn
p170
I1
sVdi6p1ng
p171
I1
sVd01zzud
p172
I1
sVdhv4fq5
p173
I1
sVd94rds8
p174
I2
sVdepv46i
p175
I1
sVdpnkjr5
p176
I1
sVcyyk2pl
p177
I1
sVd8sn5nc
p178
I1
sVd928cl6
p179
I1
sVdpbwosw
p180
I1
sVd3n5wlb
p181
I1
sVdpe0voj
p182
I1
sVd7j7dz3
p183
I1
sVd60haks
p184
I1
sVd7trgtl
p185
I1
sVde5wzux
p186
I1
sVd3mxspy
p187
I1
sVd98nrk0
p188
I1
sVczhvc9b
p189
I1
sVde0gwxq
p190
I1
sVdo18yeh
p191
I1
sVdhxb60c
p192
I1
sVdtdykjy
p193
I1
sVd9fhi1u
p194
I1
sVd8g674s
p195
I1
sVddihq5r
p196
I1
sVdn4oe2d
p197
I1
sVdryccld
p198
I1
sVddt3tta
p199
I1
sVdjc3qr0
p200
I1
sVdne9hmw
p201
I2
sVde66njn
p202
I1
sVdbf15c0
p203
I1
sVdky501o
p204
I1
sVczb5ju0
p205
I1
sVdr8mj50
p206
I1
sVd8d2i2v
p207
I1
sVcyjim5u
p208
I1
sVdd21301
p209
I1
sVd82da52
p210
I1
sVdevsro9
p211
I1
sVdcksgox
p212
I1
sVd3uauuq
p213
I1
sVd26owl1
p214
I1
sVdj6gc28
p215
I1
sVd01k8wi
p216
I1
sVd68pfzj
p217
I1
sVddhqms5
p218
I1
sVd3bc1xo
p219
I1
sVd3y31rc
p220
I1
sVddtt01z
p221
I1
sVczga7em
p222
I1
sVdk65ahs
p223
I2
sVd1xo0z7
p224
I1
sVd4h3pmz
p225
I1
sVczyb3zl
p226
I1
sVdbgpo80
p227
I1
sVdbgvr07
p228
I1
sVddbqab7
p229
I1
sVde8qfhy
p230
I1
sVdgyj6q5
p231
I1
sVdeianv0
p232
I1
sVdab7cgf
p233
I1
sVcyphwz6
p234
I1
sVd9pxogu
p235
I1
sVd7p87w1
p236
I1
sVd7xah75
p237
I1
sVdqia457
p238
I1
sVdjhm55q
p239
I1
sVda2tluq
p240
I1
sVdare696
p241
I1
sVd410hzq
p242
I1
sVd7idbuy
p243
I1
sVd9i8bux
p244
I1
sVdjhagwm
p245
I1
sVdocwz2l
p246
I1
sVdnz51r2
p247
I1
sVdp7ea6w
p248
I1
sVdc4lvjr
p249
I1
sVd3bjc3f
p250
I1
sVdgolwoc
p251
I1
sVddxzac0
p252
I1
sVd8pn69p
p253
I1
sVdi149nu
p254
I1
sVdbwg4vu
p255
I2
sVdqbwgb1
p256
I1
sVd0v93kf
p257
I1
sVdcr70fs
p258
I1
sVdsvcabz
p259
I1
sVdkb2t5f
p260
I1
sVdhd5dss
p261
I1
sVd3m9ktj
p262
I1
sVdcabgyh
p263
I1
sVd46t6aw
p264
I2
sVczi970k
p265
I1
sVd9vbwgl
p266
I1
sVdgrrw4n
p267
I1
sVdf7vpb4
p268
I1
sVd4wmgz4
p269
I1
sVde5c6tn
p270
I1
sVdemlr0z
p271
I1
sVdijxtc7
p272
I1
sVddktxdm
p273
I1
sVdees6u5
p274
I1
sVday50h5
p275
I1
sVd8i5fat
p276
I1
sVdnw5zje
p277
I1
sVd06ssyf
p278
I1
sVd17d51w
p279
I1
sVdd780l1
p280
I1
sVd7t4n1f
p281
I2
sVd4y6ev3
p282
I3
sVdfc0dq6
p283
I1
sVd27l2qg
p284
I1
sVd41zsdp
p285
I1
sVdqqbzgq
p286
I1
sVd220lix
p287
I1
sVd2svlf6
p288
I2
sVdaqpp2b
p289
I1
sVd5l8f0r
p290
I1
sVcz9wkbd
p291
I1
sVdrj0ky1
p292
I1
sVdt36m2i
p293
I1
sVcytjfiz
p294
I2
sVdiuuy6h
p295
I1
sVdi32l5c
p296
I1
sVd2gjjfd
p297
I1
sVdogrfa7
p298
I1
sVd6movbt
p299
I1
sVd4i4hxg
p300
I1
sVdmreya0
p301
I1
sVd29wz6u
p302
I1
sVdj7csh3
p303
I1
sVddvc3s1
p304
I1
sVd5hax20
p305
I1
sVdbjrba3
p306
I1
sVdehlogs
p307
I1
sVdhkc9qh
p308
I1
sVd0uo5x8
p309
I1
sVd78bqxu
p310
I1
sVdtd3yzi
p311
I1
sVd70h3oi
p312
I1
sVczidjp9
p313
I1
sVdsrcq96
p314
I1
sVda01v44
p315
I1
sVdq012e4
p316
I1
sVds8g1do
p317
I1
sVczrjjfk
p318
I1
sVdnkhzva
p319
I1
sVdixh9a7
p320
I1
sVcz9h5ld
p321
I1
sVdeqa0op
p322
I1
sVdfa1fp4
p323
I2
sVczywg9e
p324
I1
sVdiqzmvt
p325
I1
sVd4a6kc4
p326
I1
sVddd76xa
p327
I1
sVd9yxuhr
p328
I1
sVd5601lt
p329
I1
sVdd6t358
p330
I1
sVddojtds
p331
I1
sVdhpj2ga
p332
I1
sVd0n848u
p333
I1
sVd0c796i
p334
I1
sVcz2ioc9
p335
I1
sVdkgy9ko
p336
I1
sVdj71zlr
p337
I1
sVdb8f3cj
p338
I1
sVd8coezz
p339
I1
sVczfod2r
p340
I1
sVdnre7ol
p341
I1
sVdbhzqeb
p342
I1
sVdbrmu5h
p343
I1
sVdrks168
p344
I1
sVdago47f
p345
I1
sVdazet8j
p346
I1
sVddgxs8g
p347
I1
sVdeq15wv
p348
I1
sVcz93kh0
p349
I1
sVdnaiuoq
p350
I1
sVdgdov8w
p351
I1
sVdeyxzeb
p352
I1
sVdo9qf9v
p353
I1
sVdo7cvws
p354
I1
sVd8rh4cn
p355
I1
sVd7q7as3
p356
I1
sVcz91m3e
p357
I1
sVdbze0tv
p358
I1
sVd4erzhm
p359
I1
sVd6wgiwv
p360
I1
sVd0hh6uz
p361
I1
sVd9n4yc7
p362
I1
sVd9vbq38
p363
I1
sVd02h6ff
p364
I2
sVd020qv2
p365
I1
sVddv90vo
p366
I1
sVdblg4gg
p367
I1
sVd3q52tf
p368
I1
sVdhpt7xx
p369
I1
sVd2vkpuj
p370
I1
sVcymktuh
p371
I1
sVdeohjtw
p372
I1
sVd5aj789
p373
I1
sVdpv9gl9
p374
I1
sVdj4u3mo
p375
I1
sVdjlng2l
p376
I1
sVddjeg5n
p377
I1
sVdolftbk
p378
I1
sVd6ve8ws
p379
I1
sVd2e3zes
p380
I4
sVdjzknmp
p381
I1
sVdd6b7xk
p382
I1
sVd3hklmd
p383
I1
sVd9d6lr4
p384
I2
sVdj5c3wp
p385
I1
sVdfhnr7y
p386
I1
sVdoj400j
p387
I1
sVd4jg6rm
p388
I1
sVdpfs81m
p389
I1
sVczau0zr
p390
I2
sVd88zuff
p391
I1
sVdmnuw0m
p392
I1
sVdo5xq3z
p393
I1
sVdjzxxka
p394
I1
sVdjl53sc
p395
I1
sVd495qy1
p396
I1
sVdirvr8l
p397
I1
sVd7ye11e
p398
I1
sVdmt8lqj
p399
I1
sVdatdayx
p400
I1
sVddr7nme
p401
I1
sVd3ccgkw
p402
I1
sVdf2z7ww
p403
I1
sVdrp4ek4
p404
I1
sVd6nklwq
p405
I1
sVdk4gojo
p406
I1
sVcz8y5tx
p407
I1
sVd69x0aj
p408
I1
sVdbmufj7
p409
I1
sVdoktrhw
p410
I1
sVdsuuoem
p411
I1
sVdrukr5s
p412
I1
sVd3ae0xe
p413
I1
sVddbm56r
p414
I1
sVcz3fipj
p415
I1
sVd346qi0
p416
I1
sVd5rxcac
p417
I1
sVdgt34t6
p418
I1
sVdamlt7v
p419
I1
sVdibw4fq
p420
I2
sVddq4u0f
p421
I1
sVdbasrr2
p422
I1
sVd80064a
p423
I1
sVdsaf8ar
p424
I1
sVdh3aeq8
p425
I1
sVd2emfpp
p426
I1
sVdka0a9a
p427
I1
sVdbeuupw
p428
I1
sVd2r3qo3
p429
I1
sVdnaypvi
p430
I1
sVdd1wl51
p431
I1
sVdo51o49
p432
I2
sVd8856pw
p433
I1
sVd9f3mep
p434
I1
sVdigap36
p435
I1
sVda4f0fj
p436
I1
sVd3vns7r
p437
I1
sVd8i5lny
p438
I2
sVdn2a59c
p439
I1
sVda083tr
p440
I1
sVd62qwcy
p441
I1
sVcyickig
p442
I1
sVczhnwvg
p443
I1
sVdcnjcuz
p444
I1
sVdkvgkly
p445
I1
sVdf1s1x2
p446
I1
sVdoxoyzh
p447
I1
sVdg2dgbj
p448
I1
sVddojfzi
p449
I1
sVd2i5rrt
p450
I1
sVdt6bnob
p451
I1
sVdcabrto
p452
I5
sVdj61vhp
p453
I1
sVd4iliff
p454
I1
sVd4y1034
p455
I1
sVd0crhii
p456
I1
sVd52r3a5
p457
I1
sVdkkjp8h
p458
I1
sVdnl6ycs
p459
I1
sVdg2w8oy
p460
I1
sVdike6k4
p461
I1
sVd1zlyms
p462
I3
sVdhotwzt
p463
I4
sVdkyj4ra
p464
I1
sVdnr4nxk
p465
I1
sVdt5hezr
p466
I1
sVdroj8e2
p467
I1
sVdb7j6es
p468
I2
sVcywmfx6
p469
I1
sVd8o9g8h
p470
I3
sVd30by08
p471
I1
sVd06qtvd
p472
I1
sVdj2rzqv
p473
I1
sVcz93lbe
p474
I1
sVd8rej1q
p475
I2
sVdt4qq42
p476
I1
sVd3197u8
p477
I1
sVddhxsbm
p478
I1
sVdajxcdt
p479
I1
sVdh5b3gv
p480
I1
sVdnmoyow
p481
I1
sVdetnd1u
p482
I1
sVd6064q5
p483
I1
sVczdq3sc
p484
I1
sVd452yb1
p485
I1
sVdbwo8om
p486
I1
sVdkkcb81
p487
I1
sVd8wg8g1
p488
I1
sVdh5b0j9
p489
I1
sVdsarqzx
p490
I1
sVd2hplsx
p491
I2
sVdclz7rp
p492
I1
sVdcc8j5o
p493
I1
sVd170q9f
p494
I1
sVdcmq31b
p495
I1
sVdb69lb0
p496
I2
sVdanhxue
p497
I1
sVdo07rs7
p498
I1
sVdkha3u4
p499
I1
sVde01zrg
p500
I1
sVdkd9zdz
p501
I1
sVd1nzejy
p502
I1
sVdi8on4l
p503
I1
sVd09q80v
p504
I1
sVdo765l8
p505
I1
sVdk7sd4f
p506
I1
sVdgscu7n
p507
I1
sVdo9cq4l
p508
I1
sVd065b0z
p509
I2
sVdekshru
p510
I1
sVd7peo5g
p511
I1
sVdf43q7q
p512
I1
sVdeefyst
p513
I1
sVcyjunmf
p514
I1
sVd07ykeh
p515
I1
sVdhict0s
p516
I1
sVda8oout
p517
I1
sVd1vz0wm
p518
I1
s.