(dp0
Vcz8stoe
p1
I1
s.(dp0
Vd1syu0l
p1
I1
sVcz8stoe
p2
I1
s.(dp0
Vd3c07rn
p1
I1
sVcz8stoe
p2
I1
s.(dp0
Vcz8stoe
p1
I1
sVd3xcmng
p2
I1
s.(dp0
Vcz8stoe
p1
I1
sVd6jidop
p2
I1
s.(dp0
Vcz8stoe
p1
I1
sVdi9zhdd
p2
I1
s.