(dp0
Vdeg5luj
p1
I3
sVd8ro84u
p2
I1
sVdp0tfjp
p3
I1
sVdrbx7uk
p4
I1
sVdbtnjik
p5
I1
sVdnnandv
p6
I1
sVd9pin3i
p7
I1
sVdcq98oc
p8
I1
sVdhs7scs
p9
I1
sVd79mcpp
p10
I1
sVd5fi1eg
p11
I1
sVdnt74h9
p12
I2
sVdmhi79d
p13
I1
sVd0todo9
p14
I2
sVda1z8zz
p15
I1
sVd4ejb27
p16
I1
sVdjp8qur
p17
I2
sVdcdfc8a
p18
I1
sVd8uw9wl
p19
I1
sVdb3nrzp
p20
I1
sVdgjw143
p21
I1
sVd3coznz
p22
I1
sVdcjczd5
p23
I2
sVcz3ugss
p24
I1
sVd5jyron
p25
I2
sVdaac1dx
p26
I2
sVczarlzl
p27
I1
sVdaz0ekh
p28
I2
sVdg8z7ul
p29
I1
sVds8p461
p30
I1
sVdk7u404
p31
I1
sVdf59uoi
p32
I1
sVd6q6ure
p33
I1
sVdsxdif1
p34
I1
sVd3mwrla
p35
I2
sVd9x8721
p36
I1
sVd7spgxa
p37
I1
sVdrwauoc
p38
I1
sVdsgp2ha
p39
I1
sVdc9eypb
p40
I1
sVdbv6xr0
p41
I1
sVd3y5t68
p42
I1
sVd2nyuw3
p43
I1
sVd2pgrm5
p44
I1
sVds48749
p45
I1
sVd7hqwlq
p46
I1
sVd1tdwqa
p47
I1
sVdki6art
p48
I1
sVdo0dniv
p49
I1
sVd0m24ge
p50
I1
sVd6suzma
p51
I1
sVd59jryh
p52
I1
sVd21vk0f
p53
I1
sVd36mmqn
p54
I1
sVdbkryvf
p55
I1
sVdcndp8k
p56
I1
sVdoytg80
p57
I1
sVdnv37kk
p58
I3
sVczasyij
p59
I4
sVd5mtwk4
p60
I1
sVdjscsdp
p61
I1
sVdhsmalc
p62
I1
sVd1hom60
p63
I1
sVde83djy
p64
I1
sVdah83kf
p65
I1
sVdh1b64g
p66
I3
sVdjrousd
p67
I1
sVd647akl
p68
I1
sVd8pasuj
p69
I2
sVdmiwjq6
p70
I1
sVdea6z5t
p71
I1
sVdmo4qqj
p72
I1
sVcysqq33
p73
I1
sVdg79whq
p74
I1
sVd1bpkpc
p75
I1
sVd0rkw4d
p76
I1
sVdiwrjlr
p77
I1
sVd798s5h
p78
I1
sVdcsd7ay
p79
I1
sVcynsojw
p80
I1
sVd2xc5oj
p81
I3
sVdekh4im
p82
I1
sVd19qcwt
p83
I1
sVd1c6xgk
p84
I1
sVd53wnjh
p85
I1
sVdp17r2h
p86
I1
sVdaakvem
p87
I1
sVd1cu4m9
p88
I1
sVcysfqt8
p89
I1
sVdnh4otf
p90
I1
sVd0t1axo
p91
I1
sVd472ecu
p92
I1
sVdc09ngb
p93
I1
sVdbbr480
p94
I1
sVdc4xrf5
p95
I3
sVdpnrzur
p96
I2
sVdevii18
p97
I1
sVdaah746
p98
I1
sVd74lmgk
p99
I2
sVd8hc2so
p100
I1
sVd0o3g3f
p101
I2
sVd9lylzo
p102
I2
sVd1t1804
p103
I1
sVdtic66m
p104
I1
sVd5x8bu2
p105
I1
sVdgru9tw
p106
I1
sVde383qe
p107
I1
sVcyjv5pm
p108
I2
sVdt3544r
p109
I1
sVd38m095
p110
I1
sVddq77p4
p111
I1
sVdsb7lc2
p112
I1
sVd7sjjrb
p113
I1
sVdmn30oh
p114
I1
sVd1rkj0q
p115
I1
sVdgwir5q
p116
I1
sVdjwau29
p117
I1
sVd0sinm0
p118
I1
sVd3eprn1
p119
I1
sVd35p1cu
p120
I1
sVd2lxk5r
p121
I1
sVdho2y0c
p122
I1
sVdocv9dx
p123
I1
sVd3je6r7
p124
I1
sVd8izs6z
p125
I1
sVdozh2sr
p126
I1
sVdg11363
p127
I1
sVd7rqzk8
p128
I1
sVd5x2v67
p129
I1
sVdow7nce
p130
I1
sVd2q86v3
p131
I1
sVdbbuxn3
p132
I1
sVd7jwrqz
p133
I1
sVd7lsz7w
p134
I1
sVdbaux0c
p135
I3
sVd7v42sv
p136
I1
sVd74uy0c
p137
I1
sVd6nwki3
p138
I1
sVd1nzk3h
p139
I2
sVdhqwy78
p140
I1
sVdpsa44e
p141
I2
sVdj626qp
p142
I1
sVdajfqb1
p143
I1
sVd34exqn
p144
I1
sVcytyv8c
p145
I1
sVd7f9ffd
p146
I1
sVdbs46km
p147
I1
sVdtj4bfr
p148
I1
sVd77zgbm
p149
I1
sVde90ba0
p150
I1
sVdiprxnk
p151
I1
sVdpeet0l
p152
I3
sVd6nwhh4
p153
I1
sVcyxcpfi
p154
I1
sVddug1a3
p155
I1
sVdrnank3
p156
I1
sVds2cc5i
p157
I1
sVdifkqj9
p158
I1
sVdkejkrx
p159
I1
sVdptd3vm
p160
I2
sVde695fw
p161
I1
sVdqbceef
p162
I1
sVdr39vvt
p163
I1
sVd7jkcpw
p164
I1
sVd5p9gvp
p165
I2
sVdgvm8ua
p166
I1
sVd96ma17
p167
I1
sVd5k3mr1
p168
I2
sVd7vzzd9
p169
I2
sVd5kqqcw
p170
I1
sVd7v4f0a
p171
I1
sVda0fmag
p172
I1
sVddu7s6q
p173
I1
sVdht0mt9
p174
I1
sVd4fwkaj
p175
I1
sVdi1nme6
p176
I3
sVdbybj2p
p177
I1
sVdcqdki4
p178
I1
sVdcjr56q
p179
I2
sVd080mcl
p180
I1
sVdevammi
p181
I1
sVd7c15wb
p182
I1
sVd35afdm
p183
I1
sVd1dyigw
p184
I2
sVd179yju
p185
I7
sVdrogjlx
p186
I1
sVdcx4tpc
p187
I1
sVdihpdiu
p188
I2
sVdd96gii
p189
I1
sVd2xcmwd
p190
I1
sVdhrlss5
p191
I1
sVdt0jgsb
p192
I1
sVdkhfhft
p193
I1
sVd8uw6u6
p194
I1
sVcyuewgh
p195
I2
sVdpx9i09
p196
I1
sVdnu72if
p197
I1
sVdesfxfb
p198
I1
sVdbk17x1
p199
I1
sVd71k4by
p200
I1
sVd85wl1w
p201
I1
sVdhnbm4o
p202
I1
sVd61kci6
p203
I1
sVdgkt3q4
p204
I1
sVda6w8pq
p205
I1
sVd1o12ox
p206
I1
sVdbcm6tk
p207
I1
sVdk7s2pt
p208
I1
sVddbh5pj
p209
I1
sVdkfrjj9
p210
I1
sVd9p6i4l
p211
I1
sVdg2qee0
p212
I1
sVd86evli
p213
I1
sVdjdff3x
p214
I1
sVdde7szf
p215
I1
sVdby14y9
p216
I1
sVd6pawfw
p217
I1
sVcymr3bh
p218
I1
sVdcjthl0
p219
I1
sVd07wzk4
p220
I3
sVdkm0xp1
p221
I1
sVd3g4tzl
p222
I1
sVdq2wzjb
p223
I1
sVd6uib1u
p224
I1
sVd1c65zu
p225
I2
sVdkkrosc
p226
I1
sVdo7kmh6
p227
I1
sVd3eogev
p228
I1
sVdho7ux1
p229
I1
sVd0o3q3o
p230
I1
sVdhd6tnp
p231
I1
sVddvalvx
p232
I1
sVddm0hq3
p233
I1
sVd20x6oa
p234
I1
sVd8ocxyd
p235
I1
sVdilx50r
p236
I1
sVd4r6p3j
p237
I1
sVd6kdchs
p238
I1
sVdgo0zjp
p239
I1
s.