(dp0
Vd21gw8b
p1
I1
sVdskr40k
p2
I1
sVdcfaij7
p3
I1
sVcyir0jr
p4
I1
sVcymyvas
p5
I1
sVdjpv9yl
p6
I1
sVd1kz4xr
p7
I1
sVdpy0oi7
p8
I1
sVd2o4cju
p9
I7
sVd96wvnx
p10
I1
sVd3r5344
p11
I1
sVdkk3lew
p12
I1
sVd84vp0x
p13
I1
sVd0e3mow
p14
I1
sVd9ecbty
p15
I2
sVdi8j31v
p16
I1
sVdmgy3ye
p17
I1
sVds84wuk
p18
I1
sVdhe53gy
p19
I1
sVdjtxhei
p20
I1
sVczhocsy
p21
I1
sVd3e09bk
p22
I1
sVd7kem3b
p23
I2
sVd0w5d5l
p24
I1
sVd1i8r9m
p25
I2
sVdb0ari0
p26
I1
sVd0sx3iv
p27
I1
sVcyrsxzz
p28
I1
sVda0lcrx
p29
I2
sVdag3sss
p30
I1
sVd00tkf1
p31
I3
sVd23s58f
p32
I1
sVd098z5x
p33
I1
sVdppgw0z
p34
I2
sVd1qizp8
p35
I1
sVd7cktd1
p36
I1
sVdskd6o4
p37
I1
sVczy5abw
p38
I1
sVdgf0hy9
p39
I1
sVdeamh6x
p40
I1
sVdakqj3u
p41
I1
sVdtfk5yz
p42
I2
sVd15qpzy
p43
I1
sVcypgsmm
p44
I1
sVczd5ose
p45
I1
sVdtg8fe0
p46
I1
sVdgjydqx
p47
I1
sVdcgzspp
p48
I1
sVcz875qq
p49
I2
sVddbciud
p50
I1
sVd4jcl29
p51
I2
sVdd0v80e
p52
I1
sVddr3jq0
p53
I1
sVdh66axy
p54
I1
sVda5n1r6
p55
I1
sVdktkm1x
p56
I1
sVdiszzqj
p57
I1
sVd47m424
p58
I1
sVdfxm99s
p59
I1
sVd3rxwmt
p60
I1
sVddr4a6t
p61
I1
sVdif0iqi
p62
I1
sVdekyqdp
p63
I1
sVdd58jpx
p64
I1
sVcyt18eu
p65
I1
sVd1v8g89
p66
I1
sVd0gy5ao
p67
I1
sVczxun39
p68
I1
sVd2wzy3p
p69
I1
sVd60ud8n
p70
I1
sVdeh89mu
p71
I1
sVdh7f4ew
p72
I1
sVdctewyv
p73
I1
sVd16xou7
p74
I1
sVd06dygi
p75
I1
sVd8py45r
p76
I1
sVdr7mal3
p77
I1
sVdaqnrfc
p78
I1
sVcz6ut6o
p79
I1
sVd7mu88s
p80
I2
sVd7f2hua
p81
I1
sVdhl9v1c
p82
I1
sVd9t3v5a
p83
I2
sVdjz8jz1
p84
I1
sVdh6we0c
p85
I4
sVd3tfrlp
p86
I1
sVd1say5u
p87
I1
sVd53bamy
p88
I1
sVdcygafj
p89
I2
sVd83yjvc
p90
I1
sVdee4isz
p91
I1
sVczi01s1
p92
I1
sVd0qqmk1
p93
I1
sVdc9r5zo
p94
I1
sVdslybhm
p95
I1
sVdaumrpl
p96
I1
sVd78xr5j
p97
I1
sVd3xsbd7
p98
I1
sVdqtpv0w
p99
I1
sVdgv7pen
p100
I1
sVdcyqy7n
p101
I1
sVd62p873
p102
I1
sVdpdnoov
p103
I1
sVdo800kf
p104
I1
sVcysdkbw
p105
I1
sVda0h4yd
p106
I1
sVd0iaaem
p107
I1
sVdhrmjpa
p108
I1
sVd2pilu8
p109
I1
sVd13e4hp
p110
I2
sVdidebes
p111
I1
sVd68xqar
p112
I1
sVdd60lhn
p113
I1
sVdh9wh6q
p114
I1
sVdjxuq7w
p115
I1
sVdhjo4kg
p116
I1
sVd8tieui
p117
I1
sVcytjekb
p118
I1
sVdcbtljj
p119
I1
sVdmwc6gg
p120
I1
sVd4bmmtl
p121
I1
sVczwnem0
p122
I1
sVd71k2rd
p123
I1
sVdfz18j9
p124
I1
sVd2nilp0
p125
I1
sVdfwz3n2
p126
I1
sVdd11se3
p127
I1
sVdby0o4l
p128
I1
sVdevw3yy
p129
I1
sVd84nd7r
p130
I1
sVdcu9l6z
p131
I3
sVd4unney
p132
I1
sVdd552k3
p133
I1
sVd9m9yby
p134
I1
sVda9n94s
p135
I1
sVd1d4kwy
p136
I2
sVdn470om
p137
I1
sVdcsfxcx
p138
I1
sVd259t2w
p139
I2
sVd8xznz2
p140
I1
sVd2chj2g
p141
I1
sVdibp92f
p142
I1
sVczx660d
p143
I1
sVcyyzxj8
p144
I1
sVd0w470c
p145
I1
sVdswenye
p146
I1
sVd7pp7ep
p147
I1
sVda498d8
p148
I1
sVdd9wy2n
p149
I1
sVd3863c9
p150
I1
sVd48gu20
p151
I1
sVd5h7n2f
p152
I1
sVd0hii9c
p153
I2
sVdckn6hc
p154
I1
sVdhdhei1
p155
I1
sVdbhstj3
p156
I1
sVd887m8x
p157
I1
sVd6ejf2o
p158
I1
sVdawo8ba
p159
I4
sVdg5tlzw
p160
I2
sVd73bxut
p161
I1
sVdrsk6jb
p162
I2
sVdh36aho
p163
I4
sVdjbjrbt
p164
I1
sVd7egusa
p165
I1
sVd49b892
p166
I1
sVd5hy4i6
p167
I1
sVd0ngyas
p168
I1
sVdd7dmpu
p169
I1
sVczmt7fo
p170
I2
sVd38592i
p171
I1
sVdh36rg2
p172
I1
sVd6xynun
p173
I1
sVd3iuaay
p174
I1
sVd0qpggh
p175
I1
sVde0qir1
p176
I1
sVdojz1e9
p177
I1
sVd46go8t
p178
I1
sVdgcz1rx
p179
I1
sVdbhod1o
p180
I1
sVd39z93a
p181
I1
sVcz6n5xl
p182
I1
sVdskwhgq
p183
I1
sVdiln6xe
p184
I1
sVd0kengo
p185
I1
sVdhbjb18
p186
I1
sVczjbov8
p187
I1
sVd69axds
p188
I2
sVd88j6l9
p189
I1
sVcyp8bo7
p190
I1
sVdsrp3z4
p191
I1
sVd0vf78z
p192
I4
sVden62nh
p193
I1
sVd9a44fe
p194
I1
sVd8oskrw
p195
I1
sVd7pbfj0
p196
I1
sVdd9ie2t
p197
I1
sVdiopomj
p198
I1
sVdii1cc0
p199
I1
sVd9udvpd
p200
I1
sVd33wvck
p201
I1
sVdctjo1u
p202
I3
sVd2a3f1g
p203
I1
sVczpj0yc
p204
I1
sVd9ed950
p205
I1
sVczht9q8
p206
I1
sVd1uw8ac
p207
I1
sVd9e8ih7
p208
I1
sVd8m67jl
p209
I1
sVdcwox0w
p210
I1
sVczod1g3
p211
I1
sVdixyfj3
p212
I1
sVd2mxaqs
p213
I2
sVd85mqr6
p214
I1
sVd58mbp7
p215
I1
sVd01valm
p216
I1
sVd4l7mru
p217
I1
sVd3qzh0v
p218
I1
sVdg3u8a4
p219
I2
sVd5rlpi3
p220
I1
sVddhkkkv
p221
I1
sVdd02321
p222
I1
sVd6ons4r
p223
I1
sVd5d830u
p224
I1
sVd07ssmy
p225
I1
sVd0ys01j
p226
I1
sVd7z73s2
p227
I2
sVcz06l5a
p228
I1
sVd6fd9kx
p229
I1
sVdihphc9
p230
I1
sVdfzwmt2
p231
I1
sVdeyxiyg
p232
I1
sVd9e9qi9
p233
I1
sVdo5sdwi
p234
I1
sVdb6ocg2
p235
I2
sVdnw9a6g
p236
I1
sVd2h09ne
p237
I2
sVdfjxngu
p238
I1
sVdi6iuyu
p239
I2
sVdhzzcw6
p240
I1
sVderd6ws
p241
I1
sVdiw9hiw
p242
I1
sVd6dv3fi
p243
I1
sVd8gfict
p244
I1
sVdo66yoc
p245
I1
sVd3lq17y
p246
I1
sVdax5owx
p247
I1
sVd7qp17q
p248
I1
sVd5zeo85
p249
I1
sVd0fr4zd
p250
I1
sVczwq4rl
p251
I1
sVdd60qf6
p252
I1
sVddiecud
p253
I1
sVdbq9div
p254
I1
sVdfq4gu5
p255
I1
sVdkyi364
p256
I1
sVdb2awtx
p257
I1
sVdjxjsyh
p258
I1
sVdd4mdfc
p259
I1
sVdtax7uq
p260
I1
sVdak02eu
p261
I1
sVdktwn0w
p262
I1
sVdcl4inz
p263
I1
sVd2j0nyx
p264
I1
sVdg7qnfh
p265
I1
sVd9e3i1n
p266
I1
sVczxrw3u
p267
I1
sVczth8db
p268
I1
sVd1vhdvr
p269
I1
sVdmt77ph
p270
I1
sVdcwbdzq
p271
I1
sVdj2glpl
p272
I2
sVd4ysnp5
p273
I1
sVd23bea3
p274
I1
sVdkf1k2g
p275
I3
sVd85bk6b
p276
I1
sVd21mxgs
p277
I1
sVde5r2nh
p278
I1
sVdcoc1m2
p279
I1
sVczfnc4q
p280
I1
sVd0d2xdo
p281
I1
sVdejh9cm
p282
I1
sVdetvcoh
p283
I1
sVdfv5hdw
p284
I1
sVd9sj8to
p285
I1
sVddk8vhr
p286
I1
sVdrp54lm
p287
I1
sVdh9cyq1
p288
I1
sVd59a70m
p289
I1
sVdkm8djy
p290
I1
sVd0i6q83
p291
I1
sVd56bs1y
p292
I1
sVd2d7n8k
p293
I1
sVdhdkc38
p294
I1
sVdh4rbb7
p295
I1
sVdpamcuk
p296
I1
sVcz0fq3p
p297
I1
sVdk0miro
p298
I1
sVdifr2ob
p299
I1
sVdag1n8s
p300
I1
sVd1hwzb3
p301
I1
sVdhbbrtf
p302
I1
sVd7zde3e
p303
I1
sVd4h0jam
p304
I1
sVcylk0by
p305
I1
sVd0gqp65
p306
I1
sVdkm3k78
p307
I1
sVdpczgul
p308
I1
sVd2o7141
p309
I2
sVdhy7iv6
p310
I1
sVd9amfza
p311
I1
sVdmmd4iz
p312
I1
sVdkn2fv3
p313
I1
sVdbfi8bp
p314
I1
sVdoywugb
p315
I1
sVdcu4nx0
p316
I1
sVd18r97m
p317
I1
sVdrt5707
p318
I1
sVd1rbrt8
p319
I1
sVdtem1pr
p320
I1
sVde5e9mp
p321
I1
sVczmgiw5
p322
I1
sVd5yjto8
p323
I2
sVdgt9mag
p324
I1
sVd2812er
p325
I2
sVcyjai5e
p326
I1
sVd8hlcek
p327
I1
sVd5kjlqf
p328
I1
sVd13d7za
p329
I1
sVcylns1s
p330
I1
sVdix24lp
p331
I1
sVd8xknp4
p332
I1
sVd4je2af
p333
I1
sVd6gpkhf
p334
I1
sVd5hygrv
p335
I1
sVdd42jz9
p336
I2
sVd2ek2zb
p337
I1
sVd58m0ez
p338
I2
sVddb9n5k
p339
I1
sVd6b19u6
p340
I2
sVd2ha1zs
p341
I1
sVdb650ce
p342
I1
sVddf857y
p343
I1
sVdb59sq6
p344
I1
sVdoomrfp
p345
I1
sVd9xc0l1
p346
I1
sVdcccrly
p347
I1
sVd59wl99
p348
I3
sVd7807yu
p349
I1
sVdhe4hlj
p350
I1
sVd5vs19k
p351
I1
sVddor69k
p352
I1
sVdcvook7
p353
I2
sVd69gv9r
p354
I1
sVdis88cr
p355
I1
sVd04eqno
p356
I1
sVdczokka
p357
I1
sVczhjepw
p358
I3
sVd660zbw
p359
I1
sVd86udw3
p360
I1
sVdegxxz2
p361
I1
sVd6dpuz3
p362
I1
sVdkeifvs
p363
I1
sVd1c8i39
p364
I1
sVd9ex6hk
p365
I5
sVd14ckde
p366
I1
sVdepd747
p367
I1
sVd9ee3rp
p368
I1
sVdgvoc41
p369
I1
sVd17tm54
p370
I1
sVd1bou5j
p371
I1
sVdgm6jiv
p372
I1
sVcz0nnaw
p373
I1
sVd0nsupb
p374
I1
sVczfmp7j
p375
I1
sVd1pxius
p376
I2
sVdnpsaey
p377
I1
sVdbi9j0p
p378
I1
sVcz4qak7
p379
I1
sVdqppmii
p380
I1
sVd266vps
p381
I1
sVdbmq6fr
p382
I1
sVddi9fne
p383
I2
sVd2gz0dv
p384
I1
sVdd1f8z9
p385
I2
sVd6286ae
p386
I1
sVd3td6r6
p387
I1
sVd9e6sdu
p388
I1
sVdkgqxf9
p389
I2
sVd21ls3z
p390
I1
sVdhevwj8
p391
I1
sVdam0gl4
p392
I1
sVdhfwqgx
p393
I2
sVd7j6276
p394
I1
sVd01tv6v
p395
I4
sVdfghihf
p396
I1
sVdr1zjg8
p397
I1
sVcywjls8
p398
I1
sVd21iwyx
p399
I1
sVdcmt7zr
p400
I1
sVcza2gqs
p401
I2
sVddcg5ih
p402
I1
sVd6av8rk
p403
I1
sVczszg0l
p404
I1
sVdjn0r51
p405
I1
sVddpw6k5
p406
I1
sVdmub6k4
p407
I1
sVdigzeav
p408
I2
sVdcs9fgw
p409
I2
sVda49fwy
p410
I1
sVd4o034u
p411
I1
sVd5i2uux
p412
I1
sVd7c7hnu
p413
I1
sVd8upxs3
p414
I1
sVdpt9g0e
p415
I1
sVd0l5oq3
p416
I2
sVd8g8n2b
p417
I1
sVd2br38m
p418
I1
sVdd19a9j
p419
I1
sVdcn6284
p420
I1
sVcytwnur
p421
I1
sVd52eniz
p422
I2
sVdeopydm
p423
I1
sVdislcb8
p424
I1
sVdcp1dz4
p425
I1
sVdtayp9s
p426
I2
sVd8bsi4i
p427
I1
sVd2syb2v
p428
I2
sVdiqdigo
p429
I1
sVdhc09h1
p430
I1
sVdaqqp2i
p431
I1
sVdhdq7fb
p432
I1
sVd757ypg
p433
I1
sVdk649rn
p434
I1
sVdd8mpag
p435
I1
sVd0hl489
p436
I1
sVd9kwt59
p437
I1
sVd32zwvd
p438
I1
sVd02611p
p439
I1
sVd9q3b9k
p440
I1
sVdr2ci3x
p441
I1
sVdi2w5et
p442
I1
sVczu2udp
p443
I2
sVd9uijgo
p444
I1
sVdekw9fv
p445
I1
sVdbrfxz9
p446
I1
sVd5tib4v
p447
I1
sVd4b2431
p448
I1
sVd0btvum
p449
I1
sVd1x9szp
p450
I1
sVd4rnhjd
p451
I1
sVd5kwnw5
p452
I1
sVdk0t526
p453
I1
sVdc50616
p454
I1
sVcylzwv0
p455
I1
sVdceyv9i
p456
I1
sVdiubvkm
p457
I1
sVdjquv3x
p458
I1
sVdqlybcd
p459
I1
sVd54hwya
p460
I1
sVdq6zi5v
p461
I1
sVd3i8trb
p462
I1
sVd1ja2mr
p463
I3
sVd21evpr
p464
I1
sVdijrbey
p465
I1
sVdfvcx05
p466
I1
sVdacuq2g
p467
I1
sVdjmp458
p468
I1
sVczi4ge7
p469
I1
sVdduak2q
p470
I1
sVdklv03t
p471
I1
sVd562luy
p472
I1
sVdkjpivb
p473
I1
sVdie5nhz
p474
I1
sVd7q8iaw
p475
I1
sVd25agkx
p476
I1
sVdf98qlr
p477
I1
sVdndp7hb
p478
I1
sVd1jupml
p479
I1
sVdflea5q
p480
I1
sVdqt7dop
p481
I1
sVd9t5hh1
p482
I1
sVdepy5vo
p483
I1
sVcz6xi4i
p484
I1
sVdtgj09h
p485
I9
sVdqopeaz
p486
I1
sVdcxjtrn
p487
I1
sVdf3pa1e
p488
I1
sVdg3go67
p489
I1
sVd1n4dfw
p490
I1
sVdjbcnbb
p491
I1
sVdedv9zx
p492
I1
sVdhds8go
p493
I1
sVdgiqos8
p494
I1
sVd0wknyl
p495
I1
sVdam13z5
p496
I1
sVd35e3sm
p497
I1
sVdgw29n9
p498
I1
sVdhxdkj1
p499
I1
sVddulua6
p500
I1
sVd8m1ds4
p501
I1
sVdphp33c
p502
I1
sVdb22cul
p503
I1
sVdahb0l3
p504
I1
sVcyklx6v
p505
I1
sVdd5l8u5
p506
I1
sVdbzes3f
p507
I1
sVdc9sm2c
p508
I1
sVd5b3gqb
p509
I1
sVd8c8b4z
p510
I1
sVd1nr3de
p511
I2
sVd2jk4lg
p512
I1
sVdd0245w
p513
I1
sVdnf5bpg
p514
I1
sVda9let3
p515
I1
sVda1smwy
p516
I1
sVd6dfl9b
p517
I1
sVd2i8okv
p518
I1
sVdq11vif
p519
I1
sVdnndt8g
p520
I1
sVdou1i0g
p521
I1
sVd2ns334
p522
I1
sVd7b3yga
p523
I1
sVddcvnu5
p524
I1
sVd1c8y9n
p525
I1
sVdh1vnvi
p526
I1
sVdp6gsfe
p527
I1
sVd3jz1de
p528
I1
sVdahappg
p529
I1
sVddf4iha
p530
I1
sVda9e43x
p531
I1
sVd4rhnze
p532
I1
sVcyo5lsf
p533
I3
sVdc63dce
p534
I1
sVd9m9rw7
p535
I1
sVdb27vtw
p536
I1
sVdjui44i
p537
I1
sVdo1td22
p538
I1
sVd3lpwab
p539
I3
sVd5tihhl
p540
I2
sVd8qen39
p541
I1
sVd0zmj9p
p542
I1
sVd4na8qu
p543
I1
sVd5hxrs2
p544
I2
sVdd3bkmw
p545
I1
sVd3ln4bo
p546
I1
sVddb8kr2
p547
I1
sVczsr7t2
p548
I1
sVdpzaemw
p549
I1
sVdf0gt4n
p550
I1
sVdcwj8xq
p551
I1
sVd1tl1fh
p552
I1
sVdmwkn31
p553
I1
sVd4z1q7t
p554
I1
sVd7qwf87
p555
I1
sVd31akp7
p556
I1
sVd6dp64m
p557
I1
sVda7ntvg
p558
I1
sVd9vqyio
p559
I1
sVczqiu6j
p560
I1
sVdflx32j
p561
I1
sVdh6ivhn
p562
I1
sVd2z1vrb
p563
I1
sVd1oim90
p564
I1
sVd12jchl
p565
I3
sVd2sjcxn
p566
I1
sVd7krjsi
p567
I1
s.