(dp0
Vd3mhl0r
p1
I1
sVd0fw877
p2
I1
sVdeknbw9
p3
I1
sVd00tqgd
p4
I1
sVdg8pfxy
p5
I1
sVdnwg4p4
p6
I2
sVd4mgty2
p7
I1
sVd36gnvo
p8
I1
sVddt4x7z
p9
I1
sVdjtug1j
p10
I1
sVd0d66qs
p11
I2
sVd2cpas7
p12
I1
sVcykn4ar
p13
I1
sVd872gda
p14
I2
sVdk1aqnk
p15
I3
sVczsubjm
p16
I1
sVdihhui3
p17
I1
sVd7yo7d4
p18
I1
sVd7yl360
p19
I1
sVd0hf9mv
p20
I1
sVdb3lz09
p21
I1
sVd26khs8
p22
I1
sVd3liia6
p23
I1
sVddtpo5l
p24
I1
sVdn7odpw
p25
I1
sVdn63lc2
p26
I1
sVdcpkixx
p27
I1
sVdge3bkf
p28
I1
sVd4qam6p
p29
I1
sVd0ffncq
p30
I1
sVd2apjfn
p31
I1
sVd9crbrt
p32
I1
sVddb8sos
p33
I1
sVd0o2pjd
p34
I1
sVdmui2vi
p35
I1
sVdjz3tv0
p36
I2
sVdetxqmw
p37
I1
sVd5v90u1
p38
I1
sVd1todw1
p39
I1
sVd4uxvql
p40
I2
sVd3knsm2
p41
I1
sVd0arxh6
p42
I1
sVddydpuv
p43
I1
sVdqjgvwz
p44
I1
sVd7rxsfa
p45
I1
sVdhxv289
p46
I1
sVd6idtuq
p47
I2
sVdbw8rst
p48
I1
sVddqdqle
p49
I1
sVd5e7ncd
p50
I2
sVdjnn4ul
p51
I1
sVde2dvom
p52
I1
sVdhfhi7u
p53
I1
sVd4ruccz
p54
I1
sVdhhsw4r
p55
I1
sVd47b95g
p56
I1
sVdo1skf2
p57
I3
sVdi3mj8x
p58
I1
sVczvbbzr
p59
I1
sVdcsfimz
p60
I1
sVddmnnws
p61
I1
sVd1xrn9p
p62
I1
sVdqkbad2
p63
I2
sVdohd5em
p64
I4
sVd3n6fgu
p65
I1
sVd472npm
p66
I1
sVdbe07q0
p67
I1
sVdb0gg7x
p68
I1
sVdg9covu
p69
I1
sVcz0zxj1
p70
I1
sVdpdpx2a
p71
I1
sVd59l9rk
p72
I1
sVd5rhfr0
p73
I1
sVcz6p9m9
p74
I1
sVdie124q
p75
I1
sVd06fl24
p76
I1
sVd4gtfjr
p77
I1
sVd7q1f45
p78
I1
sVdembpkc
p79
I1
sVd13vubi
p80
I1
sVd0nbcm4
p81
I1
sVd4t3wci
p82
I1
sVd45vilj
p83
I1
sVdawj1ym
p84
I1
sVdadqrcj
p85
I1
sVcyvvcr1
p86
I1
sVd3arxau
p87
I1
sVdr3kgn6
p88
I2
sVdhf98ve
p89
I1
sVd2wqr2s
p90
I1
sVd9y83e2
p91
I1
sVdc9oe87
p92
I1
sVddr3jq0
p93
I2
sVdqq3mmi
p94
I1
sVdixzg6t
p95
I1
sVdkilvkh
p96
I1
sVd3auh3o
p97
I1
sVdikn5kw
p98
I2
sVdsavzt1
p99
I2
sVd1fws5y
p100
I1
sVd0fhb44
p101
I1
sVd8tasn9
p102
I1
sVd2n441w
p103
I1
sVdaoa192
p104
I1
sVcztchld
p105
I1
sVdizox69
p106
I1
sVdc3953e
p107
I1
sVdruvwih
p108
I2
sVdmjbvqq
p109
I1
sVdcvadfr
p110
I2
sVdiy1zq3
p111
I2
sVdbmsmrp
p112
I1
sVd9jvhub
p113
I1
sVdppts7p
p114
I1
sVd7megjm
p115
I1
sVdno0r6i
p116
I2
sVd4o71ms
p117
I1
sVdg494lp
p118
I1
sVcz6v0ge
p119
I1
sVdbobgho
p120
I1
sVd11y5ab
p121
I1
sVdqgwotz
p122
I1
sVdfygub1
p123
I1
sVd8c3kfs
p124
I1
sVd6f8bg8
p125
I1
sVdb6s88d
p126
I2
sVdgy6w4a
p127
I1
sVde9gwyi
p128
I1
sVdeq5d3p
p129
I1
sVdcvkzhk
p130
I2
sVdd20257
p131
I1
sVcz1cv2y
p132
I1
sVd6i7lrm
p133
I1
sVd29j8cz
p134
I1
sVd8zfvs1
p135
I1
sVdggubrq
p136
I1
sVdakyd6d
p137
I1
sVdgxsgvy
p138
I1
sVd9ygn9g
p139
I2
sVd81iqlu
p140
I1
sVdco7bar
p141
I5
sVd4l2cx8
p142
I1
sVd36xdho
p143
I1
sVczui3xa
p144
I1
sVdeisyw3
p145
I2
sVcz1mz7c
p146
I2
sVdmza9u4
p147
I1
sVdiqqycp
p148
I1
sVd9y51a7
p149
I1
sVdd0skwc
p150
I1
sVdivss6m
p151
I1
sVddu40k7
p152
I2
sVddvep1u
p153
I1
sVdgnbcgs
p154
I1
sVcyxrjn2
p155
I1
sVdc04rpb
p156
I1
sVdb112lh
p157
I1
sVdb89gfg
p158
I1
sVcyx3ngp
p159
I1
sVdb5nlhs
p160
I1
sVdi3i222
p161
I1
sVd9jf9ob
p162
I1
sVd8x35ed
p163
I1
sVdhwqkgc
p164
I1
sVddo46wx
p165
I1
sVdkpl8ya
p166
I1
sVd47q4db
p167
I1
sVd20lm2u
p168
I1
sVdd5df0j
p169
I1
sVd085l24
p170
I1
sVd05q3sl
p171
I1
sVdnsi508
p172
I1
sVdtgir15
p173
I1
sVdo1vwsl
p174
I1
sVd386w1e
p175
I1
sVdiodezj
p176
I1
sVd8mqrva
p177
I1
sVd08amjr
p178
I2
sVd1gggiy
p179
I1
sVd3yp550
p180
I1
sVdrrtene
p181
I2
sVd6tlfbv
p182
I1
sVd7h4aih
p183
I1
sVdppdtlz
p184
I1
sVd6e79uj
p185
I1
sVd05owwh
p186
I1
sVd179yju
p187
I1
sVd8ge2jf
p188
I1
sVd9p2w0e
p189
I1
sVdj8hi8e
p190
I1
sVdbgwjry
p191
I1
sVdg7g4q0
p192
I1
sVcyo3uvj
p193
I1
sVdf66t8y
p194
I1
sVdi8kkc5
p195
I1
sVd46a0h5
p196
I1
sVd9zoemy
p197
I1
sVd2tkqbb
p198
I1
sVczrtxcd
p199
I1
sVdfuj8jk
p200
I1
sVcyrdcpf
p201
I1
sVd1u25qd
p202
I1
sVdsogoe9
p203
I1
sVd5hpw2t
p204
I1
sVd591daj
p205
I1
sVczm4443
p206
I1
sVd18xiug
p207
I3
sVd2aybmh
p208
I1
sVd9mjy33
p209
I1
sVd1fddn1
p210
I1
sVd9310sv
p211
I1
sVdoe7oh4
p212
I1
sVd33sekj
p213
I2
sVd298g2p
p214
I3
sVd3ubhh9
p215
I1
sVd3nuni3
p216
I1
sVdnxk5es
p217
I1
sVddroxhh
p218
I1
sVdms3cvv
p219
I2
sVd26mdrv
p220
I1
sVd91f4s3
p221
I4
sVdjrvytv
p222
I2
sVd26lcah
p223
I1
sVddcor8e
p224
I1
sVddojgew
p225
I1
sVdj83j55
p226
I2
sVdg21t8v
p227
I8
sVdfx6uge
p228
I1
sVdiqd30a
p229
I3
sVdb2202w
p230
I1
sVd8t9ekg
p231
I1
sVd0zavq7
p232
I2
sVd8rgtiz
p233
I1
sVdrv2x1t
p234
I1
sVd3bzf10
p235
I1
sVdakfqnv
p236
I2
sVdeubg0k
p237
I1
sVdfopl86
p238
I1
sVdjd3tpf
p239
I1
sVd2ic5i7
p240
I1
sVdtc7q0x
p241
I1
sVdmtgdhj
p242
I1
sVd3ck8rb
p243
I1
sVd7u7o40
p244
I1
sVcyo4xxq
p245
I1
sVd3qy4xt
p246
I4
sVdp4tsa3
p247
I1
sVd1263s4
p248
I1
sVd1c65zu
p249
I1
sVdcr3oxd
p250
I1
sVd5h57r1
p251
I1
sVcywz45u
p252
I4
sVd2mgrpj
p253
I1
sVd5e79b4
p254
I1
sVczddqp2
p255
I1
sVddej049
p256
I1
sVd83vmq8
p257
I1
sVd4wkahv
p258
I1
sVdjptdvt
p259
I1
sVdjve1k4
p260
I1
sVdj7igq6
p261
I1
sVdeq9jdp
p262
I4
sVdde9lo3
p263
I1
sVdcc88xg
p264
I1
sVdhynxz1
p265
I2
sVd3mvvru
p266
I1
sVd62djgv
p267
I1
sVd5e1esa
p268
I1
sVdhs8p2d
p269
I2
sVdbii9n8
p270
I2
sVd9d93j7
p271
I2
sVd2su3th
p272
I1
sVd05641a
p273
I1
sVdd76kqf
p274
I4
sVdavgewm
p275
I1
sVdidfucq
p276
I1
sVdhing76
p277
I1
sVdqxsu7h
p278
I1
sVd69d4c7
p279
I1
sVcyriiik
p280
I1
sVd0m6t3m
p281
I1
sVczf2l2r
p282
I3
sVd7iv757
p283
I1
sVdg227se
p284
I1
sVd5avlo6
p285
I1
sVd67uh34
p286
I2
sVdijbs45
p287
I1
sVddy4g8v
p288
I1
sVd9ciiuf
p289
I1
sVcyrwyv2
p290
I1
sVcz4sfz5
p291
I1
sVdfe0jmv
p292
I1
sVdifda6u
p293
I1
sVdt1pcky
p294
I1
sVd65wkjs
p295
I1
sVczfope6
p296
I2
sVdaz7r82
p297
I3
sVd1yy9r0
p298
I1
sVd8tpaoh
p299
I1
sVd94q4q5
p300
I1
sVd2ledje
p301
I1
sVd0mexzh
p302
I1
sVd91jsqs
p303
I1
sVdhrkiqw
p304
I6
sVcz2jv2l
p305
I3
sVdhfrmsl
p306
I2
sVdghe13e
p307
I2
sVd36djvy
p308
I1
sVdco82qe
p309
I1
sVcz9rvqo
p310
I1
sVdar04wo
p311
I1
sVdml6jjh
p312
I1
sVdaeadvi
p313
I3
sVcz8oq1v
p314
I1
sVd67ub33
p315
I1
sVd8lo25i
p316
I1
sVcz3cg8x
p317
I1
sVdh3sgxt
p318
I1
sVd4mq9ld
p319
I1
sVd5n0exe
p320
I1
sVdijbagv
p321
I1
sVdevak8n
p322
I1
sVd2o0ao4
p323
I1
sVdbjzbk9
p324
I1
sVd3wvx8z
p325
I1
sVdgaf6g1
p326
I1
sVd45vz0l
p327
I2
sVdojhec4
p328
I1
sVd7p825n
p329
I1
sVdn3g4m9
p330
I1
sVd68tf99
p331
I1
sVdgasymv
p332
I2
sVd984j9k
p333
I2
sVd9g8t8u
p334
I1
sVd3r8uui
p335
I2
sVdfotsmk
p336
I1
sVcytslfk
p337
I1
sVcywqaj4
p338
I2
sVd9g920k
p339
I2
sVdaw78q3
p340
I1
sVd3r47us
p341
I6
sVd6wgnf7
p342
I3
sVdhxzh6k
p343
I1
sVd0dxyg1
p344
I1
sVd40td35
p345
I3
sVdhhi9l0
p346
I1
sVdjgh9cg
p347
I1
sVdmy3bth
p348
I1
sVdhwvl2h
p349
I3
sVdhfixju
p350
I1
sVd624uto
p351
I1
sVd9zhghq
p352
I2
sVdfcwlwo
p353
I5
sVd13w0xd
p354
I1
sVczhc8hb
p355
I1
sVdg1psu4
p356
I1
sVcyi0ssb
p357
I1
sVd103du9
p358
I1
sVd35w1di
p359
I1
sVdixiqxr
p360
I1
sVd1xt11x
p361
I1
sVd0ztf0h
p362
I1
sVcyzrj3j
p363
I1
sVde0iaz5
p364
I1
sVdptu6vq
p365
I1
sVd9z2o2c
p366
I1
sVdfjvere
p367
I1
sVdjd6hq2
p368
I1
sVdrspusd
p369
I2
sVdgfaxwf
p370
I2
sVdcj4hna
p371
I2
sVda63nad
p372
I4
sVdds2xtf
p373
I1
sVdbp143n
p374
I1
sVdrh1vq2
p375
I2
sVd4q7nwe
p376
I2
sVd88qawv
p377
I1
sVd0wzg72
p378
I1
sVdco3c3a
p379
I1
sVd138pgz
p380
I1
sVdfkptn6
p381
I3
sVdcsbin6
p382
I1
sVd7ra2ch
p383
I1
sVddjuezd
p384
I2
sVdc9m3qk
p385
I1
sVde7up02
p386
I1
sVdoomrfp
p387
I2
sVdb8cfqj
p388
I1
sVd2h6k00
p389
I1
sVd217k9g
p390
I1
sVdr8hs67
p391
I1
sVdf6f3iy
p392
I1
sVdiioris
p393
I1
sVd13cmis
p394
I1
sVdk1lj3p
p395
I1
sVd7vatxv
p396
I2
sVd3lftdz
p397
I2
sVd7lc0wj
p398
I2
sVden4618
p399
I1
sVddd3ztz
p400
I1
sVdipcwc3
p401
I1
sVd47evt4
p402
I1
sVdbak74p
p403
I1
sVdpvbl3d
p404
I1
sVdble5a1
p405
I1
sVdihgk6k
p406
I1
sVd1ojy8i
p407
I1
sVdaj9kus
p408
I1
sVdhoh89n
p409
I1
sVdec9xec
p410
I1
sVd27fnum
p411
I1
sVd5t5ut2
p412
I1
sVdcpj342
p413
I1
sVd9f3yr1
p414
I7
sVdhy7bf6
p415
I2
sVdfxj1rt
p416
I1
sVd1ok3pd
p417
I1
sVd2ksuch
p418
I1
sVdc9kgan
p419
I2
sVd6zfvv7
p420
I2
sVdjv9uus
p421
I1
sVddo27si
p422
I3
sVdfon0lo
p423
I1
sVd9mg9b7
p424
I1
sVddcaw2w
p425
I1
sVd3vmq84
p426
I1
sVdn39zok
p427
I4
sVd73aznc
p428
I1
sVdiqdvnw
p429
I1
sVd9buzoy
p430
I1
sVd42nwvo
p431
I2
sVd09fxwg
p432
I1
sVcyz6xxy
p433
I1
sVd5g8hyy
p434
I1
sVcyrdoy9
p435
I1
sVd73b7ch
p436
I3
sVdgma81a
p437
I1
sVddvvgmg
p438
I1
sVd2nw55b
p439
I1
sVdddzed9
p440
I1
sVde5gu9i
p441
I1
sVdf7oths
p442
I1
sVd4m1am9
p443
I1
sVddvrqkf
p444
I1
sVd9j1zhh
p445
I1
sVdjtx8dy
p446
I1
sVd2qy96b
p447
I1
sVdb72fiz
p448
I4
sVdickonw
p449
I1
sVd5tss6c
p450
I1
sVdf17x2b
p451
I2
sVdf92ngl
p452
I1
sVcysw9dx
p453
I1
sVdbmeh0t
p454
I1
sVd0226ty
p455
I3
sVddj9uw0
p456
I2
sVdnchgem
p457
I1
sVdc960pj
p458
I1
sVd1jzi1u
p459
I1
sVd95mlwy
p460
I1
sVd2w6u9o
p461
I1
sVd5kr3p0
p462
I1
sVd0vjebi
p463
I1
sVdecbtny
p464
I1
sVdd74hw2
p465
I1
sVdg4yb7b
p466
I1
sVcz1xxjt
p467
I2
sVd0ypi1n
p468
I1
sVdt5ef7b
p469
I1
sVddcm4u4
p470
I1
sVd4q9hcp
p471
I2
sVcz1noh7
p472
I2
sVdqmpal5
p473
I1
sVdkku57t
p474
I1
sVdbnblus
p475
I1
sVd6z9f4h
p476
I1
sVd5pqx35
p477
I1
sVdddyi49
p478
I1
sVd6ti5gw
p479
I2
sVd626ctp
p480
I1
sVdgp3ab5
p481
I1
sVdhozvep
p482
I1
sVd3ong1y
p483
I1
sVdrn7hpm
p484
I1
sVdan4xpd
p485
I1
sVcz75x49
p486
I1
sVdjdf80s
p487
I1
sVcz5atgt
p488
I1
sVd7p8702
p489
I1
sVd6kyywa
p490
I1
sVd0agxps
p491
I1
sVdsca3g0
p492
I1
sVd20g2n5
p493
I1
sVczfoleb
p494
I1
sVd9gar8h
p495
I1
sVd9in4xw
p496
I2
sVdck0zmg
p497
I1
sVdtaagdx
p498
I1
sVd2ibz19
p499
I1
sVdin8tbm
p500
I1
sVd1xdyp5
p501
I1
sVd266iv5
p502
I1
sVda4fwus
p503
I1
sVd9ippaf
p504
I3
sVddc0erb
p505
I1
sVdco62aw
p506
I1
sVd2m65gi
p507
I1
sVdg4uvho
p508
I4
sVd7eagl4
p509
I1
sVdr3bqt8
p510
I2
sVdj27kfp
p511
I2
sVdi39vr0
p512
I1
sVczi7hhc
p513
I2
sVdkids9m
p514
I1
sVdk6ssvy
p515
I2
sVdcobunh
p516
I1
sVd26l1xl
p517
I1
sVd08m8mh
p518
I1
sVczac07o
p519
I1
sVdb5zidd
p520
I3
sVdgu7ign
p521
I2
sVd1nftms
p522
I1
sVdfgq0t4
p523
I1
sVdbh1daj
p524
I1
sVd0zil1q
p525
I1
sVdg48d9t
p526
I1
sVd34tnsf
p527
I1
sVd71ohmq
p528
I1
sVd1pgova
p529
I1
sVdk65bvh
p530
I1
sVd8k82y3
p531
I1
sVd6wh4z7
p532
I3
sVd3i7k04
p533
I2
sVd40zpxc
p534
I2
sVd0nwert
p535
I1
sVdirju4m
p536
I3
sVdajcx4a
p537
I1
sVdh5nyic
p538
I1
sVd3n0ilj
p539
I1
sVd1c0jdi
p540
I1
sVdg6rtsa
p541
I1
sVcz7q8g4
p542
I1
sVd0d13y4
p543
I2
sVd2gicnd
p544
I1
sVdkqg5xy
p545
I1
sVd39uv2f
p546
I5
sVczc7uvl
p547
I1
sVds9r4kh
p548
I1
sVd5gr3ta
p549
I1
sVdr3bunp
p550
I1
sVdihe7ow
p551
I1
sVd37av0b
p552
I1
sVd0vqzbm
p553
I1
sVd1bmzdf
p554
I1
sVdavci1j
p555
I1
sVd34ks79
p556
I1
sVd8982wg
p557
I1
sVdc8ydld
p558
I1
sVd0tf3vr
p559
I1
sVdfqawsv
p560
I1
sVdcsbhwr
p561
I1
sVd402doe
p562
I1
sVdpyxunv
p563
I1
sVd4pf9lm
p564
I1
sVdpw3fod
p565
I1
sVd2je0t5
p566
I1
sVdcnpy9p
p567
I1
sVczogt5w
p568
I1
sVdcobq36
p569
I1
sVdj2251k
p570
I2
sVd2i1nbx
p571
I1
sVd6hm86h
p572
I1
sVdp8pbyi
p573
I1
sVd05drku
p574
I3
sVdkojton
p575
I1
sVdededw2
p576
I1
sVdqtvezc
p577
I1
sVdne3h87
p578
I1
sVd67pese
p579
I1
sVd0zt0p3
p580
I1
sVdt7xw64
p581
I1
sVdgd7g4v
p582
I1
sVd7vwdq9
p583
I1
sVd4l28bw
p584
I1
sVd5x3olp
p585
I1
sVd2f287b
p586
I1
sVd8ay70m
p587
I2
sVda60znd
p588
I1
sVd43zefx
p589
I1
sVdfv6yi5
p590
I1
sVdjw7wm2
p591
I1
sVd6b2ot8
p592
I2
sVdcjoqb3
p593
I2
sVdg49ffc
p594
I1
sVd7dzks1
p595
I1
sVcz5e4in
p596
I1
sVdk39qab
p597
I1
sVdnfihsi
p598
I1
sVdehlogs
p599
I3
sVd2jc5sa
p600
I3
sVday0gbh
p601
I2
sVdav7g98
p602
I1
sVdmp8dl5
p603
I2
sVdg4669f
p604
I1
sVdq7fex2
p605
I1
sVd12ai9t
p606
I1
sVd972ugp
p607
I2
sVd5gpemr
p608
I2
sVdfm710n
p609
I2
sVdfwlonp
p610
I1
sVcyz1q0e
p611
I1
sVdcl90oh
p612
I1
sVcyx5qkm
p613
I1
sVd0baxac
p614
I1
sVcypqtqx
p615
I1
sVd1j47dh
p616
I2
sVd6pcixk
p617
I1
sVddruxez
p618
I1
sVd0dvpwl
p619
I1
sVdawhiy3
p620
I1
sVd0rwgqg
p621
I1
sVdnf6a6f
p622
I1
sVdgcdf5g
p623
I1
sVdo4zn1y
p624
I2
sVd470an0
p625
I1
sVddgbae1
p626
I1
sVd1apcns
p627
I1
sVd6fajp6
p628
I2
sVd7e67ml
p629
I1
sVd7r9x9n
p630
I1
sVd36xj4o
p631
I4
sVddouvln
p632
I1
sVdecfkgs
p633
I2
sVdaej4vi
p634
I1
sVd24aq46
p635
I1
sVd2su0ny
p636
I2
sVd9fdrfs
p637
I2
sVdarbki0
p638
I1
sVd07cgwr
p639
I1
sVdnio7op
p640
I1
sVdf7rps7
p641
I1
sVdmyd8ed
p642
I3
sVdaqfg8d
p643
I1
sVdg480qu
p644
I1
sVdc9nint
p645
I1
sVdkku9dh
p646
I1
sVdc09a44
p647
I1
sVddalqm7
p648
I1
sVdbavfpz
p649
I1
sVczgb0ft
p650
I1
sVdaw8oob
p651
I1
sVds11unt
p652
I2
sVdq3ez5z
p653
I1
sVdbpnhvf
p654
I3
sVd0fur88
p655
I1
sVdoboavd
p656
I1
sVd86sx0h
p657
I2
sVd2jhttn
p658
I1
sVd2900d3
p659
I1
sVd9hx1m4
p660
I1
sVdh9d3k0
p661
I1
sVd38ok63
p662
I1
sVdmwe2is
p663
I1
sVd62hd8l
p664
I1
sVd3h1ewp
p665
I1
sVdiugb9d
p666
I1
sVd1buwxt
p667
I1
sVd1g57ku
p668
I2
sVd48dst3
p669
I1
sVd3zatsf
p670
I1
sVd6k44h3
p671
I1
sVdmp97u5
p672
I1
sVd9sq2fb
p673
I1
sVdju0pab
p674
I1
sVddouu9y
p675
I1
sVczzh0f0
p676
I1
sVd28x2by
p677
I1
sVdq29k54
p678
I1
sVd2wr8b4
p679
I1
sVczs7jlm
p680
I1
sVdbsfx4d
p681
I2
sVdo4hx74
p682
I2
sVczwv316
p683
I2
sVde485fq
p684
I1
sVd56e5g2
p685
I1
sVdcjyq9u
p686
I1
sVdgdqwwt
p687
I1
sVd1tktna
p688
I1
sVd0vs45r
p689
I1
sVd8eo9jr
p690
I1
sVdnbyeap
p691
I1
sVdfk9u0g
p692
I1
sVcynxk3k
p693
I1
sVdh4a726
p694
I1
sVdbcp4bd
p695
I1
sVdms4z3m
p696
I1
sVdb3w0fa
p697
I1
sVd2jb2kr
p698
I1
sVdee8qo2
p699
I1
sVddmu3dl
p700
I1
sVdk003yz
p701
I1
sVcz2r7cz
p702
I1
sVd4qbmxg
p703
I1
sVdeauyyl
p704
I1
sVdd5sbsi
p705
I1
sVdrauw6t
p706
I2
sVcyjosg8
p707
I2
sVd62rk2w
p708
I1
sVcyopf59
p709
I3
sVdiwfesw
p710
I2
sVdgcjuh0
p711
I1
sVdiemu6p
p712
I1
sVdeg6h67
p713
I2
sVd6wlzmb
p714
I1
sVd1kz77a
p715
I1
sVd9k0dei
p716
I1
sVddts8of
p717
I1
sVdio4kem
p718
I1
sVdn10g6s
p719
I2
sVdj32zk0
p720
I1
sVd4tszwy
p721
I3
sVdn0pko9
p722
I2
sVdd1i39r
p723
I1
sVd3faafb
p724
I1
sVd4xsqjz
p725
I3
sVdduknl4
p726
I1
sVd9itwc1
p727
I1
sVdbo8njg
p728
I1
sVd8k54p4
p729
I3
sVdg2b1gz
p730
I1
sVdmudto0
p731
I2
sVdenvw1e
p732
I2
sVd475x6u
p733
I1
sVde2mbdx
p734
I2
sVd2tlms9
p735
I1
sVczyygs5
p736
I1
sVd0kmdug
p737
I1
sVd6z6mku
p738
I1
sVdj2q4ol
p739
I1
sVdco4qzl
p740
I1
sVdprzp80
p741
I1
sVcz4feas
p742
I1
sVdoq7pqk
p743
I1
sVdduym08
p744
I1
sVd2jmqe2
p745
I1
sVd3yl04z
p746
I1
sVda4cd3r
p747
I3
sVdemaft9
p748
I3
sVdj3iojt
p749
I1
sVde96dws
p750
I1
sVdig0j0z
p751
I2
sVd7dhhrd
p752
I1
sVd2alfr9
p753
I1
sVd46yrco
p754
I1
sVdip0zhe
p755
I4
sVdgta2eq
p756
I1
sVdn9py2b
p757
I1
sVdgsumq6
p758
I1
sVdevyc86
p759
I1
sVd7m8h3h
p760
I1
sVdiqd1lm
p761
I2
sVdn8ucra
p762
I1
sVdo1n4rg
p763
I1
sVd9d8rw3
p764
I1
sVd73qchx
p765
I1
sVdgjshx2
p766
I1
sVd1z9i80
p767
I1
sVdhfehsy
p768
I1
sVdco85qd
p769
I2
sVddj0y84
p770
I1
sVd0y5nag
p771
I1
sVdeig34x
p772
I1
sVdhreb3n
p773
I1
sVd0yfhme
p774
I1
sVd07d2l9
p775
I1
sVd7t0tix
p776
I2
sVd6z9j38
p777
I1
sVdp206ke
p778
I1
sVdix19kf
p779
I2
sVd100xjd
p780
I1
sVd0i11xd
p781
I1
sVdas0x5u
p782
I1
sVdi3l9wy
p783
I1
sVdnwtphq
p784
I1
sVdh1e5k5
p785
I1
sVd3n2ydt
p786
I4
sVd1dc6tk
p787
I1
sVd3gzpum
p788
I1
sVczsudzd
p789
I1
sVdkrz55m
p790
I3
sVd3xasvo
p791
I1
sVdmz28re
p792
I1
sVdhwkmoq
p793
I1
sVd8ul3r2
p794
I1
sVdpdnjm6
p795
I1
sVdjt6tu7
p796
I2
sVdco6pp0
p797
I1
sVdekdp12
p798
I1
sVd3r8722
p799
I2
sVdca9nm9
p800
I4
sVdi1321t
p801
I1
sVdarsm5b
p802
I1
sVd1koh7b
p803
I1
sVd4xriix
p804
I1
sVdfm72q9
p805
I5
sVd9ftl8o
p806
I1
sVd0e5pir
p807
I2
sVdmon2zi
p808
I1
sVdsvpay1
p809
I1
sVdh9y05c
p810
I1
sVd4mqm44
p811
I1
sVd9d1ryk
p812
I1
sVdg4il58
p813
I1
sVdmvkid5
p814
I1
sVcz8ssbc
p815
I1
sVdjn8aba
p816
I1
sVdokjylh
p817
I1
sVd290i25
p818
I4
sVdakat7k
p819
I1
sVd38owqi
p820
I1
sVd6ctrsr
p821
I1
sVdd7iyl0
p822
I1
sVdek291f
p823
I1
sVdd29zhp
p824
I1
sVdk0nwgy
p825
I2
sVdhv4l5b
p826
I3
sVdklhsg8
p827
I1
sVd1wzyo9
p828
I1
sVdhgver3
p829
I1
sVd9ytvfh
p830
I1
sVd8mdani
p831
I1
sVd6727oj
p832
I2
sVcz03d9j
p833
I1
sVd4t5tb5
p834
I1
sVd1ktynf
p835
I1
sVd4jp8t9
p836
I1
sVdejw9a5
p837
I1
sVd1377r4
p838
I1
sVd82yqgp
p839
I1
sVdnxdf3e
p840
I1
sVdbmaja7
p841
I1
sVdd2ic7r
p842
I1
sVd9buii7
p843
I1
sVczdrbcv
p844
I1
sVd4lwavu
p845
I1
sVd40tuqp
p846
I1
sVcztraxf
p847
I1
sVczuowze
p848
I1
sVd6sasyw
p849
I1
sVd0mx4se
p850
I1
sVdrrthth
p851
I1
sVdggpmz7
p852
I1
sVd3v3uuw
p853
I1
sVd8t1fb3
p854
I1
sVd94pmqt
p855
I1
sVczemfe1
p856
I1
sVd1rqbua
p857
I1
sVdg4et9q
p858
I1
sVdebzjxj
p859
I1
sVdpnfduq
p860
I2
sVds20w40
p861
I1
sVd0yrokv
p862
I1
sVczfdso3
p863
I1
sVcz9rkfq
p864
I4
sVd7mcl4f
p865
I2
sVczsko4f
p866
I1
sVd8x1m0s
p867
I1
sVdjvjx19
p868
I1
sVd298de2
p869
I1
sVdjn3stl
p870
I1
sVd3ui1yb
p871
I1
sVd5pvzpk
p872
I1
sVcyvdyrr
p873
I1
sVdhhc923
p874
I2
sVdbn5d4i
p875
I1
sVcz31ras
p876
I1
sVd341i8q
p877
I1
sVcylpfnt
p878
I1
sVd07deke
p879
I2
sVd6ic41x
p880
I1
sVd7v3pdh
p881
I1
sVde172ag
p882
I1
sVd3e37dj
p883
I1
sVds7wgvq
p884
I1
sVd0adkrl
p885
I2
sVdatg0vf
p886
I1
sVd0grglw
p887
I3
sVdcu9psw
p888
I1
sVd1vh3os
p889
I1
sVcykynfk
p890
I2
sVd99xsu5
p891
I2
sVdgaffpf
p892
I1
sVd8ble6d
p893
I1
sVdjs3dh5
p894
I1
sVdawav1m
p895
I1
sVd2i7y95
p896
I1
sVd591o5e
p897
I5
sVdk7yswd
p898
I1
sVd53cigo
p899
I2
sVd1p2r86
p900
I2
sVd6wglsp
p901
I1
sVd7035io
p902
I1
sVdiv1zkk
p903
I1
sVd83i19q
p904
I1
sVdj2iu2j
p905
I1
sVdtae2ob
p906
I2
sVcz15sqa
p907
I1
sVdesl6ow
p908
I2
sVd09f3yx
p909
I1
sVdco6axc
p910
I1
sVdfyo6qf
p911
I1
sVczr4a2x
p912
I3
sVdfyrti5
p913
I1
sVdmk64qh
p914
I1
sVd38nh54
p915
I1
sVdbrboq1
p916
I1
sVd9kfhoa
p917
I1
sVd7w03jm
p918
I1
sVdiemjqi
p919
I2
sVdefmvpx
p920
I2
sVdd678xa
p921
I1
sVd3nvh2i
p922
I1
sVdo0l2u6
p923
I2
sVdgb1y4l
p924
I1
sVdpvsuc2
p925
I1
sVd2mvqgy
p926
I1
sVdqvz1n1
p927
I1
sVdbj9lrt
p928
I1
sVdegsjoy
p929
I1
sVdqa4dr0
p930
I1
sVdep6sow
p931
I3
sVdgcif59
p932
I1
sVdig27vn
p933
I1
sVdf7mnsm
p934
I1
sVcyzl8qf
p935
I1
sVdrya0cp
p936
I1
sVdkf2j70
p937
I1
sVdoxd9wy
p938
I1
sVdihzcx3
p939
I1
sVd6mhwdt
p940
I1
sVd0zmeca
p941
I1
sVd9khktu
p942
I1
sVdnb22zc
p943
I1
sVd6wh2n9
p944
I1
sVd0napf0
p945
I1
sVde5x31x
p946
I1
sVdjbypzq
p947
I1
sVda1luuz
p948
I1
sVdc971qa
p949
I1
sVdffh0bz
p950
I1
sVdg4z56c
p951
I1
sVd0zq3sv
p952
I1
sVdetuccn
p953
I1
sVdfaqu26
p954
I1
sVd83rzji
p955
I1
sVd37cezu
p956
I1
sVd1l4ljy
p957
I1
sVddgj049
p958
I1
sVdn41xms
p959
I3
sVczsudoy
p960
I2
sVd14xm4r
p961
I1
sVdsbknv1
p962
I1
sVdmepxto
p963
I1
sVdebychi
p964
I1
sVdbdtwnx
p965
I1
sVd3pl5fn
p966
I1
sVdqzfgdv
p967
I1
sVd1hju4x
p968
I1
sVd07w7x5
p969
I1
sVdb7sv93
p970
I1
sVdi5czv6
p971
I1
sVdgf1ot3
p972
I1
sVdcjfrx8
p973
I1
sVd057ojk
p974
I1
sVdjdofxy
p975
I1
sVd0ny7n6
p976
I1
sVd509j78
p977
I1
sVcyvzasr
p978
I1
sVd3ui348
p979
I2
sVdb0n631
p980
I1
sVczsu9qj
p981
I1
sVdg4d9p7
p982
I2
sVdhq6gln
p983
I1
sVdp8krt0
p984
I3
sVde8oeqs
p985
I1
sVcyy2roi
p986
I1
sVd0g52b3
p987
I2
sVdhy4g68
p988
I1
sVd2niqgv
p989
I1
sVddj4m52
p990
I1
sVdg225ai
p991
I2
sVczm67qc
p992
I1
sVda364g7
p993
I1
sVd4adzqw
p994
I1
sVdf66xe4
p995
I1
sVd26hlb7
p996
I1
sVdjc85ur
p997
I1
sVdiq4miz
p998
I2
sVd355op4
p999
I1
sVddycqu8
p1000
I1
sVd46ea9s
p1001
I1
sVdqj91y1
p1002
I1
sVdhffylp
p1003
I1
sVdna5bde
p1004
I1
sVdjbyjby
p1005
I1
sVdfxbqb8
p1006
I1
sVdbs5wi3
p1007
I1
sVd27a3mo
p1008
I3
sVdfm139k
p1009
I1
sVd0jfmnm
p1010
I1
sVdhy4tlx
p1011
I1
sVdrqnlxq
p1012
I1
sVdfybbpa
p1013
I1
sVd01ghe2
p1014
I1
sVczhs40h
p1015
I1
sVdedtzws
p1016
I1
sVd3ar1qa
p1017
I1
sVdjn7n6l
p1018
I1
sVde19l4j
p1019
I1
sVdaphgz8
p1020
I7
sVd0nvrfk
p1021
I1
sVdipl04q
p1022
I4
sVdbsfie5
p1023
I1
s.