(dp0
Vdne9hmw
p1
I1
sVd22151w
p2
I1
sVdnnjpld
p3
I1
sVd4af2de
p4
I1
sVdk75lqj
p5
I1
sVdbdd6ci
p6
I1
sVdgy7d8p
p7
I1
sVdkji5dn
p8
I1
sVd3fyzh8
p9
I1
sVdg73ue5
p10
I1
sVdfe2h9q
p11
I1
sVdddfnq5
p12
I1
sVd04etln
p13
I1
sVd1wa3u6
p14
I1
sVd2yfusi
p15
I1
s.