(dp0
Vdc8yoey
p1
I1
sVczhnd9n
p2
I1
sVd69ibuc
p3
I1
sVdg1d00i
p4
I1
sVdboh5y8
p5
I1
sVdas8imo
p6
I1
sVcz5ayi1
p7
I1
sVdgdxdbz
p8
I1
sVd732ths
p9
I1
sVd2oyml3
p10
I1
sVdq9x99s
p11
I1
sVdcgufwh
p12
I1
sVddrkuk4
p13
I1
sVdaisj4l
p14
I1
sVdf70rdm
p15
I1
sVd1yv8ng
p16
I1
sVczi2ioe
p17
I1
sVd55cesk
p18
I2
sVdbp0l5h
p19
I1
sVday5gk5
p20
I2
sVd99q384
p21
I1
sVd51ejjt
p22
I1
sVd0f8xwp
p23
I1
sVdb3y3a1
p24
I1
sVdfmi0bj
p25
I1
sVdbobgho
p26
I1
sVdg9368y
p27
I1
sVd115k3f
p28
I1
sVdi3yw45
p29
I1
s.