(dp0
Vdf4ap5p
p1
I1
sVd3bprou
p2
I1
sVczqh0g7
p3
I1
sVdbfc80d
p4
I1
sVda9ysjl
p5
I1
sVd1gg051
p6
I1
sVdg5eper
p7
I1
sVd6oa7o9
p8
I1
sVdntafdr
p9
I1
sVcyjq997
p10
I1
sVdmfnqtq
p11
I1
sVd1lg1gl
p12
I1
sVdkk67fh
p13
I1
sVd1dn950
p14
I1
sVcyml8m3
p15
I1
sVd8oskrw
p16
I1
sVd3ykken
p17
I1
sVczk6xwa
p18
I1
sVdsmdrzv
p19
I1
s.