(dp0
Vdjjq7eq
p1
I1
sVdhe7mao
p2
I1
sVdegzcmo
p3
I1
sVd6ot09d
p4
I4
sVd2g5itz
p5
I1
sVdiqkijq
p6
I2
sVdiqj6nh
p7
I1
sVdh4fhvf
p8
I1
sVdk09aw5
p9
I1
sVdbv79o1
p10
I2
sVdqxldt9
p11
I3
sVczd9qsq
p12
I1
sVd2g4u6v
p13
I1
sVd2g6doq
p14
I1
sVd84i6il
p15
I2
sVdjjqdc6
p16
I3
sVdeoycij
p17
I3
sVdchpuyo
p18
I6
sVd2g6mvw
p19
I3
sVd2e3zes
p20
I2
sVdk09flo
p21
I2
sVd2g6fd0
p22
I1
sVdhu8hlc
p23
I1
sVd2g744f
p24
I1
sVdqxkpud
p25
I1
sVd63q6kw
p26
I1
sVd0r49pr
p27
I2
sVd9bpcnk
p28
I1
sVdk3e3xd
p29
I1
sVdeoyqip
p30
I5
sVdaz5nu1
p31
I1
sVdiqj4yl
p32
I1
sVdk3i0dg
p33
I4
sVd2g4lrj
p34
I3
sVdk3eitj
p35
I3
s.