(dp0
Vdj3hvsf
p1
I1
sVd114m3i
p2
I1
sVd2emzcv
p3
I1
sVd61lpc4
p4
I1
sVd5sq79n
p5
I2
sVdg9ow0t
p6
I1
sVdbg6ind
p7
I1
sVdgwnk7q
p8
I1
sVda2m0jk
p9
I1
sVczju1rz
p10
I1
sVdr9ev1q
p11
I1
sVdcg60oa
p12
I1
sVd82ttz9
p13
I1
sVd2fwkym
p14
I1
sVcyjbfxg
p15
I1
sVd4czp3h
p16
I1
sVdhw4sfs
p17
I1
sVd5ya8j3
p18
I1
sVcylx99k
p19
I2
sVdao4fjk
p20
I1
sVdc9suov
p21
I1
sVd3i8eqv
p22
I1
sVcyot1vo
p23
I1
sVd1vtdmy
p24
I1
sVd9cfgp9
p25
I1
sVdp8lx94
p26
I2
sVd3w20iw
p27
I1
sVdbaez7d
p28
I1
sVdn8a61a
p29
I4
sVdomx4m3
p30
I1
sVdn89v5b
p31
I1
sVd3oadh2
p32
I1
sVd20pt1p
p33
I1
sVd80qy8m
p34
I1
sVd11klv4
p35
I2
sVdhwvott
p36
I1
sVdkoq5vb
p37
I1
s.