(dp0
Vdbosjfy
p1
I1
sVdai0lk1
p2
I1
sVd72gmhc
p3
I1
sVde8kd4o
p4
I2
sVdddv7pv
p5
I1
sVdjcogv4
p6
I1
sVdcm2do3
p7
I1
sVddxqmh2
p8
I1
sVdbeq5dt
p9
I2
sVd1iualv
p10
I1
sVd2oy5k8
p11
I2
sVdq8a2d8
p12
I2
sVd8anqeu
p13
I1
sVczwubch
p14
I2
sVdmmemvr
p15
I1
sVdhbybnb
p16
I1
sVdeg6epv
p17
I1
sVdd9qg70
p18
I1
sVcypy8yz
p19
I1
sVdsxhvng
p20
I1
sVdg7dpfb
p21
I4
sVd2g656p
p22
I5
sVdjcorhd
p23
I4
sVdig0j0z
p24
I1
sVde3l2ar
p25
I1
sVczfxqz9
p26
I1
sVdirendc
p27
I2
sVdrogzbj
p28
I1
sVd1t4oou
p29
I1
sVdht3kp0
p30
I1
sVdgt6d51
p31
I1
sVd1mr47q
p32
I1
sVdag6j74
p33
I3
sVczuzivu
p34
I1
sVdt99cua
p35
I1
sVd7whl7p
p36
I1
sVd8k88xr
p37
I2
sVd0xd9m8
p38
I1
sVde6c72a
p39
I1
sVdfagwzl
p40
I1
sVd49xtai
p41
I1
sVd2dk4hg
p42
I1
sVdac6ci2
p43
I1
sVdfeaq8e
p44
I1
sVdht120r
p45
I1
sVdp7db6r
p46
I1
sVd1iy0u6
p47
I1
sVdi4nmtv
p48
I1
sVdfnhsmg
p49
I1
sVdq7egph
p50
I1
sVd1om983
p51
I1
sVd7j8fko
p52
I3
sVczgoz5w
p53
I1
sVdoskoo0
p54
I1
sVd8haxs7
p55
I2
sVd5ddvsu
p56
I1
sVcyiad3d
p57
I1
sVdoz5898
p58
I5
sVd9k5qja
p59
I1
sVd0pzy4i
p60
I1
sVdgrtpws
p61
I1
sVdhr4zpb
p62
I1
sVdhu93zq
p63
I1
sVd25rovs
p64
I1
sVd9c5sju
p65
I1
sVdgd7qxt
p66
I1
sVdd72n7c
p67
I1
sVd1qbvz0
p68
I2
sVdhd5jkp
p69
I1
sVdb618fv
p70
I1
sVd9jp0tt
p71
I1
sVd69jri9
p72
I1
sVd0vcvjb
p73
I1
sVdnnpkmr
p74
I1
sVd8d8w40
p75
I2
sVd82s13f
p76
I1
sVczgga2j
p77
I1
sVdicjoce
p78
I1
sVd6lfkh4
p79
I3
sVdmsvrye
p80
I1
sVd8no9tp
p81
I6
sVdjkuicz
p82
I1
sVdptiek1
p83
I1
sVdaz63bl
p84
I1
sVd0zmeca
p85
I1
sVd78k85c
p86
I1
sVd5rorla
p87
I2
sVdf0o3zd
p88
I1
sVdevjalm
p89
I1
sVd8iuswc
p90
I1
sVda38j4c
p91
I1
sVdhtaow1
p92
I1
sVd49zdlm
p93
I2
sVdehmyuu
p94
I1
sVdbq9div
p95
I1
sVczmaxic
p96
I1
sVdg6fo58
p97
I1
sVdcuxd6h
p98
I2
sVd1w88pr
p99
I1
sVcze8z64
p100
I1
sVd9ynfy2
p101
I1
sVczthr86
p102
I1
sVd0451io
p103
I1
sVdb54wyu
p104
I1
sVd7fmfcj
p105
I1
sVd0azgj9
p106
I3
sVd7k3330
p107
I1
sVd1mz3l6
p108
I2
sVd6l4bgx
p109
I4
sVd2pn3bv
p110
I1
sVdbwaitf
p111
I1
sVde2x375
p112
I1
sVdnn8r5m
p113
I3
sVd6nnc2y
p114
I1
sVd2fmhbl
p115
I1
sVdq79auj
p116
I1
sVdczopz9
p117
I1
sVdidt3yk
p118
I14
sVdgdf8dz
p119
I1
sVdac6deh
p120
I1
sVdnboskh
p121
I1
sVd83w46h
p122
I1
sVdj0hzyt
p123
I1
sVdq4t40e
p124
I1
sVczy3mqm
p125
I1
sVd3qporv
p126
I1
sVd3genrk
p127
I1
sVde6hfsc
p128
I1
sVdb1jzkn
p129
I1
sVd0uir0a
p130
I1
sVd95yj6y
p131
I5
s.