(dp0
Vd16m92v
p1
I1
sVdfuuvs2
p2
I1
sVdklnvl0
p3
I4
sVdr9ev1q
p4
I1
sVczynt29
p5
I1
sVcz83hw4
p6
I1
sVd9f9lok
p7
I1
sVdhde5pv
p8
I1
sVczw0k3j
p9
I1
sVczdekvx
p10
I1
sVcyumn39
p11
I1
sVdi9yprp
p12
I1
sVd8n8l48
p13
I1
sVd2nkkfu
p14
I1
sVd1riode
p15
I1
sVd8q10up
p16
I1
sVdhvirhp
p17
I1
sVcynr2qh
p18
I1
sVd96hbtn
p19
I3
sVdikbmyn
p20
I1
sVda8ugp7
p21
I1
sVdj348ou
p22
I1
sVd5o1zrc
p23
I1
sVd1ub0mq
p24
I1
sVd0gm3pe
p25
I1
sVd26gthx
p26
I1
sVdb64wdr
p27
I1
sVdreboug
p28
I1
sVd8oaly4
p29
I1
sVd6cuin3
p30
I1
sVdorgn2t
p31
I1
sVcziphkl
p32
I1
sVdgtc2am
p33
I1
sVdracwwu
p34
I1
sVd3g86uj
p35
I1
sVd9vahxb
p36
I1
sVdf2z8zl
p37
I1
sVdd3e8u5
p38
I1
sVd5oz9rd
p39
I1
sVd0n9n0e
p40
I1
sVdsa3ipp
p41
I1
sVd1ewx3c
p42
I1
sVd6gpkhf
p43
I1
sVd51s1yb
p44
I1
sVczx0jfp
p45
I1
sVd5ii1jp
p46
I1
sVd0zm2wu
p47
I1
sVd0cw2wa
p48
I1
sVda8oiif
p49
I1
sVdd3ikf8
p50
I1
sVdsjpfy9
p51
I1
sVd7q7as3
p52
I1
sVdaz920e
p53
I1
sVdc91hs3
p54
I1
sVd5cxfs7
p55
I1
sVd2c48j1
p56
I1
sVd9aph7g
p57
I1
sVd9d94ol
p58
I1
sVd7l8sxo
p59
I1
sVd3wbjwo
p60
I5
sVd1595pq
p61
I1
sVd5wjx2m
p62
I1
sVdmru52n
p63
I1
sVd15ovrx
p64
I1
sVdcgj4ye
p65
I1
sVdnvz0uv
p66
I1
sVcz32zet
p67
I1
sVdjntz2e
p68
I1
sVdfr945u
p69
I1
sVd0lmwfd
p70
I1
sVdn4hb0b
p71
I1
sVd9rbdbw
p72
I1
sVdifx870
p73
I1
sVddagli7
p74
I1
sVd7wy4v8
p75
I1
sVdav07zb
p76
I1
sVdizu046
p77
I1
sVdkqaqr9
p78
I1
sVdk1ddb0
p79
I1
sVdb7ywyx
p80
I1
sVdtjczy5
p81
I1
sVd8nufih
p82
I1
sVdi3mbks
p83
I3
sVdgqxh7d
p84
I1
sVdbvylf4
p85
I1
sVdewy64w
p86
I1
sVd5oih9u
p87
I1
sVdeqlspa
p88
I1
sVd22w4ss
p89
I1
sVdbci6sc
p90
I1
sVd36rpus
p91
I1
sVdpuicx5
p92
I1
sVd4szkpn
p93
I1
sVdj9ppo3
p94
I1
sVd539akz
p95
I1
sVd2i3j6r
p96
I1
sVdb7y3bp
p97
I1
sVdinokpa
p98
I1
sVd6i8t64
p99
I1
sVda06qa7
p100
I2
sVdgag4i8
p101
I1
sVdaghukm
p102
I1
sVd25im42
p103
I1
sVdqj78u3
p104
I1
sVdazbvtq
p105
I1
sVdn2hmuk
p106
I1
sVdo7xgx6
p107
I1
sVdjfwjq4
p108
I1
sVd10td6j
p109
I1
sVdcgm5vw
p110
I1
sVd0o94w9
p111
I1
sVd14hx1o
p112
I1
sVdbk74fw
p113
I2
sVd5j5hb9
p114
I1
sVdi8r672
p115
I1
s.