(dp0
Vcyisaf1
p1
I1
sVcyrgm92
p2
I1
sVdgbhqro
p3
I1
sVdbl5de7
p4
I2
sVd4dml4m
p5
I1
sVdb1eoe6
p6
I1
sVdd697ng
p7
I1
sVdhbir6c
p8
I2
sVd9lnr7c
p9
I1
sVd8sz5fy
p10
I1
sVd79eh68
p11
I1
sVd7bnolu
p12
I1
sVdczl9ui
p13
I1
sVd7rjb51
p14
I1
sVdbjpgjj
p15
I2
sVdnly6xq
p16
I1
sVdh2jber
p17
I1
sVdfp8e3t
p18
I1
sVdaxcywn
p19
I1
sVdbbg8el
p20
I1
sVdkzc3f6
p21
I1
sVdgsv3bo
p22
I1
sVd7j7ils
p23
I1
sVddkfi49
p24
I1
sVdqky25p
p25
I1
sVddx50l6
p26
I1
sVd6jfpyo
p27
I2
sVdt5q4v5
p28
I1
sVdbj4rl4
p29
I1
sVdgf24e1
p30
I1
sVd7bqcox
p31
I1
sVdfapcnf
p32
I1
sVdq25uu9
p33
I2
sVdp8t76k
p34
I1
sVd2hofo5
p35
I1
sVdretavh
p36
I1
sVd9yt1z2
p37
I1
sVde537d8
p38
I1
sVdf9rap3
p39
I1
sVdd2o0b3
p40
I1
sVdhs9jij
p41
I1
sVdgqny2k
p42
I1
sVd3hrixo
p43
I2
sVdccttb5
p44
I1
sVd4a64wf
p45
I1
sVd5k0f5r
p46
I1
sVd0s2zty
p47
I1
sVdncbt55
p48
I2
sVcyryvwa
p49
I1
sVd60o4em
p50
I1
sVdaxobl0
p51
I1
sVd77gb8b
p52
I3
sVdczf2ay
p53
I2
sVdcaw2kj
p54
I1
sVdbiwgzt
p55
I1
sVdozk6yu
p56
I1
sVd2wjthn
p57
I1
sVdddgv1h
p58
I1
sVdptn50r
p59
I1
sVdgey1tx
p60
I1
sVd7ga98x
p61
I1
sVdfw92ea
p62
I1
sVdda2sgr
p63
I1
sVdk0g9ak
p64
I2
sVdq2ww4q
p65
I1
sVdeg68l7
p66
I1
sVd6j9tc2
p67
I2
sVdey8gqc
p68
I1
sVd7fv4ev
p69
I1
sVdd69997
p70
I2
sVddpobp5
p71
I1
sVdh28gmi
p72
I1
sVdhbipjv
p73
I1
sVd7ejxj7
p74
I2
sVd3pghmy
p75
I1
sVd1x34bw
p76
I1
sVdpaaz41
p77
I1
sVd4cy2f8
p78
I1
sVcyug8rh
p79
I1
sVdgj8s5n
p80
I1
sVd2g0se7
p81
I1
sVd8n6owh
p82
I1
sVcyxt4tb
p83
I1
sVd7chzan
p84
I5
sVddz55ug
p85
I1
sVdhocln8
p86
I1
sVdqvnt7s
p87
I1
sVdfnee2v
p88
I1
sVdhj183v
p89
I1
sVd2g0ttj
p90
I1
sVd36vt0r
p91
I1
sVdaoo5sf
p92
I1
sVdosja5b
p93
I1
sVdecudjh
p94
I3
s.