(dp0
Vcyqdwcw
p1
I1
s.(dp0
Vcz6qj5p
p1
I1
sVcyqdwcw
p2
I1
s.(dp0
Vd05p1oy
p1
I1
sVcyqdwcw
p2
I1
s.(dp0
Vd06k5vg
p1
I1
sVcyqdwcw
p2
I1
s.(dp0
Vd06k5vg
p1
I1
sVcyqdwcw
p2
I1
s.(dp0
Vd0cdvh5
p1
I1
sVcyqdwcw
p2
I1
s.(dp0
Vd0cdvh5
p1
I1
sVcyqdwcw
p2
I1
s.(dp0
Vd0cknhy
p1
I1
sVcyqdwcw
p2
I1
s.(dp0
Vd1qaqih
p1
I1
sVcyqdwcw
p2
I1
s.(dp0
Vd1qaqih
p1
I1
sVcyqdwcw
p2
I1
s.(dp0
Vd1qaqih
p1
I1
sVcyqdwcw
p2
I1
s.(dp0
Vd2hqdq2
p1
I1
sVcyqdwcw
p2
I1
s.(dp0
Vd2hqdq2
p1
I1
sVcyqdwcw
p2
I1
s.(dp0
Vd2o5am1
p1
I1
sVcyqdwcw
p2
I1
s.(dp0
Vd2o5et9
p1
I1
sVcyqdwcw
p2
I1
s.(dp0
Vd31ejpa
p1
I1
sVcyqdwcw
p2
I1
s.(dp0
Vd31htlb
p1
I1
sVcyqdwcw
p2
I1
s.(dp0
Vd31maj5
p1
I1
sVcyqdwcw
p2
I1
s.(dp0
Vd31maj5
p1
I1
sVcyqdwcw
p2
I1
s.(dp0
Vd31maj5
p1
I1
sVcyqdwcw
p2
I1
s.(dp0
Vd31maj5
p1
I1
sVcyqdwcw
p2
I1
s.(dp0
Vd35f29a
p1
I1
sVcyqdwcw
p2
I1
s.(dp0
Vd35f29a
p1
I1
sVcyqdwcw
p2
I1
s.(dp0
Vd35it78
p1
I1
sVcyqdwcw
p2
I1
s.(dp0
Vd35it78
p1
I1
sVcyqdwcw
p2
I1
s.(dp0
Vd3gozmo
p1
I1
sVcyqdwcw
p2
I1
s.(dp0
Vd3gozmo
p1
I1
sVcyqdwcw
p2
I1
s.(dp0
Vd3vrxc8
p1
I1
sVcyqdwcw
p2
I1
s.(dp0
Vd3vs9h9
p1
I1
sVcyqdwcw
p2
I1
s.(dp0
Vd3vs9h9
p1
I1
sVcyqdwcw
p2
I1
s.(dp0
Vd3vsi9v
p1
I1
sVcyqdwcw
p2
I1
s.(dp0
Vd3vsi9v
p1
I1
sVcyqdwcw
p2
I1
s.(dp0
Vd3vt6p1
p1
I1
sVcyqdwcw
p2
I1
s.(dp0
Vd3vt6p1
p1
I1
sVcyqdwcw
p2
I1
s.(dp0
Vd3vtcnx
p1
I1
sVcyqdwcw
p2
I1
s.(dp0
Vd3vtx28
p1
I1
sVcyqdwcw
p2
I1
s.(dp0
Vd3vtx28
p1
I1
sVcyqdwcw
p2
I1
s.(dp0
Vd3vtx28
p1
I1
sVcyqdwcw
p2
I1
s.(dp0
Vd3vtx28
p1
I1
sVcyqdwcw
p2
I1
s.(dp0
Vd4f1bxm
p1
I1
sVcyqdwcw
p2
I1
s.(dp0
Vd59jryh
p1
I1
sVcyqdwcw
p2
I1
s.(dp0
Vd5pj9k4
p1
I1
sVcyqdwcw
p2
I1
s.(dp0
Vd7aoku9
p1
I1
sVcyqdwcw
p2
I1
s.(dp0
Vd7aoku9
p1
I1
sVcyqdwcw
p2
I1
s.(dp0
Vd9h71g6
p1
I1
sVcyqdwcw
p2
I1
s.(dp0
Vd9ncfr3
p1
I1
sVcyqdwcw
p2
I1
s.(dp0
Vd9ud1fm
p1
I1
sVcyqdwcw
p2
I1
s.(dp0
Vd9yu666
p1
I1
sVcyqdwcw
p2
I1
s.(dp0
Vdafygij
p1
I1
sVcyqdwcw
p2
I1
s.(dp0
Vdasog6h
p1
I1
sVcyqdwcw
p2
I1
s.(dp0
Vdasog6h
p1
I1
sVcyqdwcw
p2
I1
s.(dp0
Vdauxfxd
p1
I1
sVcyqdwcw
p2
I1
s.(dp0
Vdb7tg0o
p1
I1
sVcyqdwcw
p2
I1
s.(dp0
Vdbgqbkd
p1
I1
sVcyqdwcw
p2
I1
s.(dp0
Vdc2hxd2
p1
I1
sVcyqdwcw
p2
I1
s.(dp0
Vdcgjsuu
p1
I1
sVcyqdwcw
p2
I1
s.(dp0
Vdcld2ty
p1
I1
sVcyqdwcw
p2
I1
s.(dp0
Vdcld2ty
p1
I1
sVcyqdwcw
p2
I1
s.(dp0
Vdcntk0f
p1
I1
sVcyqdwcw
p2
I1
s.(dp0
Vdcw9kpx
p1
I1
sVcyqdwcw
p2
I1
s.(dp0
Vdd82t3m
p1
I1
sVcyqdwcw
p2
I1
s.(dp0
Vddcn607
p1
I1
sVcyqdwcw
p2
I1
s.(dp0
Vddcn607
p1
I1
sVcyqdwcw
p2
I1
s.(dp0
Vddut6rf
p1
I1
sVcyqdwcw
p2
I1
s.(dp0
Vdek82ye
p1
I1
sVcyqdwcw
p2
I1
s.(dp0
Vdeptg53
p1
I1
sVcyqdwcw
p2
I1
s.(dp0
Vdes8bnw
p1
I1
sVcyqdwcw
p2
I1
s.(dp0
Vdesctjz
p1
I1
sVcyqdwcw
p2
I1
s.(dp0
Vdfrnq2f
p1
I1
sVcyqdwcw
p2
I1
s.(dp0
Vdfrnq2f
p1
I1
sVcyqdwcw
p2
I1
s.(dp0
Vdh395z1
p1
I1
sVcyqdwcw
p2
I1
s.(dp0
Vdh5aal5
p1
I1
sVcyqdwcw
p2
I1
s.(dp0
Vdh5aal5
p1
I1
sVcyqdwcw
p2
I1
s.(dp0
Vdh5aal5
p1
I1
sVcyqdwcw
p2
I1
s.(dp0
Vdh5aal5
p1
I1
sVcyqdwcw
p2
I1
s.(dp0
Vdh5aal5
p1
I1
sVcyqdwcw
p2
I1
s.(dp0
Vdh5aal5
p1
I1
sVcyqdwcw
p2
I1
s.(dp0
Vdhelmjz
p1
I1
sVcyqdwcw
p2
I1
s.(dp0
Vdhp5m0k
p1
I1
sVcyqdwcw
p2
I1
s.(dp0
Vdhp5m0k
p1
I1
sVcyqdwcw
p2
I1
s.(dp0
Vdhtjrzk
p1
I1
sVcyqdwcw
p2
I1
s.(dp0
Vdhtjrzk
p1
I1
sVcyqdwcw
p2
I1
s.(dp0
Vdivgllk
p1
I1
sVcyqdwcw
p2
I1
s.(dp0
Vdjj4b0a
p1
I1
sVcyqdwcw
p2
I1
s.(dp0
Vdjo2p2k
p1
I1
sVcyqdwcw
p2
I1
s.(dp0
Vdjo2p2k
p1
I1
sVcyqdwcw
p2
I1
s.(dp0
Vdjo2p2k
p1
I1
sVcyqdwcw
p2
I1
s.(dp0
Vdjo2p2k
p1
I1
sVcyqdwcw
p2
I1
s.(dp0
Vdju4iv2
p1
I1
sVcyqdwcw
p2
I1
s.(dp0
Vdkqvcfa
p1
I1
sVcyqdwcw
p2
I1
s.(dp0
Vdkqvcfa
p1
I1
sVcyqdwcw
p2
I1
s.(dp0
Vdqnzsm7
p1
I1
sVcyqdwcw
p2
I1
s.(dp0
Vdqnzsm7
p1
I1
sVcyqdwcw
p2
I1
s.(dp0
Vds0jra1
p1
I1
sVcyqdwcw
p2
I1
s.