(dp0
Vd1dzgzt
p1
I1
sVd33lpo8
p2
I1
sVddibk82
p3
I1
sVd0gx5fm
p4
I1
sVdhr3toi
p5
I1
sVd6d9ezs
p6
I1
sVdcckpst
p7
I2
sVdof905l
p8
I1
sVdeiagol
p9
I1
sVdgfmr41
p10
I1
sVdsq4ov4
p11
I1
sVdnpjo2d
p12
I2
sVdauufl3
p13
I1
sVdi3ozes
p14
I1
sVde3wu16
p15
I1
sVdqh4haj
p16
I2
sVdfvse05
p17
I1
sVd3wgbr5
p18
I1
sVdaugxsl
p19
I1
sVd61tmb2
p20
I1
sVd3bsidw
p21
I1
sVd87fkgh
p22
I1
sVdcm1gmo
p23
I1
sVdr24aka
p24
I1
sVdmve9tk
p25
I1
sVd2p8rlb
p26
I1
sVd97dw5u
p27
I1
sVd55fb7v
p28
I2
sVd21g0p7
p29
I1
sVdhjo40o
p30
I1
sVdt3u4cr
p31
I1
sVdcr8rnt
p32
I1
sVd8sx2k5
p33
I1
sVdncfiur
p34
I2
sVdo1ul4m
p35
I1
sVd20k1ii
p36
I1
sVda62gmn
p37
I1
sVd0r9qvd
p38
I1
sVd04nggn
p39
I2
sVd7rh0tx
p40
I3
sVd3jebam
p41
I1
sVdcbji04
p42
I1
sVcylkb59
p43
I2
sVdgvpl0t
p44
I1
sVczup8k9
p45
I1
sVds6vsxg
p46
I1
sVd2blbou
p47
I1
sVd2kvjs6
p48
I2
sVd5xvtl2
p49
I1
sVd070cqu
p50
I3
sVdq37eh1
p51
I1
sVcyoqipe
p52
I1
sVdfrn0ho
p53
I1
sVd1vjke7
p54
I1
sVczzy4eh
p55
I1
sVddkhrio
p56
I1
sVdd44qqn
p57
I1
sVdnn0i9x
p58
I1
sVdorqpe9
p59
I1
sVdkpo0mz
p60
I1
sVd85xd42
p61
I1
sVdkw7rfe
p62
I2
sVdhhbmt5
p63
I1
sVdnko2i6
p64
I2
sVdjnmltd
p65
I1
sVczsntk4
p66
I1
sVd6hyiwd
p67
I1
sVdq8rr53
p68
I1
sVd746m6z
p69
I1
sVd53epwg
p70
I1
sVdhjz875
p71
I1
sVdapbl61
p72
I1
sVd29451w
p73
I1
sVd1kuiop
p74
I1
sVddk28zr
p75
I1
sVdsrs3bf
p76
I2
sVdnv1f11
p77
I1
sVdhbnuaw
p78
I1
sVd044dh7
p79
I1
sVddxqtjl
p80
I1
sVddm2y4z
p81
I1
sVdh9d8lz
p82
I2
sVdkvr854
p83
I1
sVd40rta5
p84
I4
sVd9m2hhk
p85
I1
sVdez3vfz
p86
I1
sVcyp288w
p87
I1
sVdjn2q77
p88
I1
sVczqgj5x
p89
I1
sVd0yb8qn
p90
I1
sVd8u1kis
p91
I1
sVd9pprfk
p92
I1
sVd5mi0yq
p93
I1
sVde1frjw
p94
I1
sVdda7j90
p95
I2
sVdkaw982
p96
I1
sVdnoie4h
p97
I1
sVdb6mm0j
p98
I1
sVdc58yvp
p99
I1
sVcyprd71
p100
I1
sVdmthf44
p101
I1
sVdr5ahgu
p102
I1
sVd2uupm4
p103
I1
sVd82o9qc
p104
I1
sVd25297i
p105
I1
sVdcrhlh5
p106
I2
sVcykf0d4
p107
I1
sVd0b584g
p108
I1
sVdo2wsj2
p109
I1
sVdqeuzbh
p110
I1
sVdf64h19
p111
I1
sVdhnbbm8
p112
I1
sVczd26m9
p113
I1
sVczi6qy8
p114
I1
sVdfnq7sx
p115
I1
sVd35epfm
p116
I1
sVd1irm1c
p117
I1
sVdofz824
p118
I5
sVczkluco
p119
I1
sVd10nd3b
p120
I2
sVdcq0c6s
p121
I2
sVd7u1tjg
p122
I1
sVdipumjr
p123
I1
sVd8qdrha
p124
I1
sVdnz2nv1
p125
I1
sVdheqibc
p126
I1
sVcynzike
p127
I1
sVd30f3pr
p128
I1
sVdsuli5a
p129
I1
sVds3de03
p130
I1
sVd75205e
p131
I1
sVddg4u7v
p132
I3
sVdtizx2g
p133
I2
sVd1fkc39
p134
I3
sVcyx199v
p135
I1
sVd25xt9u
p136
I1
sVd8e5brv
p137
I1
sVdjq7kde
p138
I1
sVdip4q7w
p139
I1
sVczv1i7h
p140
I2
sVdk67quo
p141
I2
sVdpnfalj
p142
I1
sVdnso0fk
p143
I1
sVddmqib3
p144
I1
sVd6dnl4c
p145
I1
sVdhqosdr
p146
I1
sVdcriciw
p147
I1
sVd8opqo9
p148
I2
sVdin66aq
p149
I1
sVczcsp51
p150
I1
sVd2ozvmo
p151
I1
sVd5xnzo4
p152
I2
sVdfbcxpu
p153
I1
sVdbxzu9s
p154
I1
sVdfxgufn
p155
I1
sVcyhtqdu
p156
I1
sVd8vctzj
p157
I1
sVdihn9kt
p158
I2
sVdbkroep
p159
I1
sVczeao1a
p160
I1
sVdh4zbo8
p161
I1
sVdrxfkr3
p162
I1
sVd0o0bsz
p163
I1
sVd1vj69j
p164
I1
sVdrvlc8a
p165
I1
sVdfao4na
p166
I1
sVdcwamxn
p167
I1
sVdowow6g
p168
I2
sVd1gx2o8
p169
I1
sVdcimguj
p170
I1
sVd02ob53
p171
I1
sVd1vbp96
p172
I1
sVd2u4ed9
p173
I1
sVdcx5amm
p174
I1
sVdre035l
p175
I1
sVd3b7x41
p176
I3
sVczafu56
p177
I1
sVd1elrp6
p178
I1
sVdjp2whm
p179
I1
sVdpucbds
p180
I1
sVdjl8co1
p181
I1
sVczt3iaj
p182
I1
sVdbnrjzc
p183
I1
sVd2z0yjo
p184
I1
sVdc051c5
p185
I3
sVdbpa01k
p186
I1
sVd57k0ec
p187
I1
sVd7mic8h
p188
I1
sVdmqrrfu
p189
I1
sVd3ql9zd
p190
I1
sVd2b63a1
p191
I1
sVdkjw1mr
p192
I1
sVd1tuckt
p193
I1
sVd4vjpe4
p194
I1
sVdfoyvrg
p195
I1
sVdgzvt69
p196
I1
sVdaj1gp4
p197
I1
sVd08s7tx
p198
I2
sVdh8jlnq
p199
I2
sVdes95ex
p200
I2
sVdfoxp6m
p201
I1
sVd0vqrv6
p202
I1
sVd0tfy8e
p203
I1
sVddjnok6
p204
I1
sVcz86srs
p205
I1
sVdmj4w6v
p206
I1
sVdnp0ycv
p207
I1
sVd5n25hp
p208
I1
sVd7t44dy
p209
I1
sVd120028
p210
I1
sVdcy6og9
p211
I1
sVdqza5tc
p212
I1
sVddwlk6a
p213
I1
sVd6f71gn
p214
I1
sVd31lyn1
p215
I1
sVdadxv71
p216
I1
sVd1g4ih1
p217
I1
sVd9end18
p218
I1
sVd2ep0fe
p219
I1
sVdikftm3
p220
I1
sVdhr2v1x
p221
I1
sVd023o35
p222
I1
sVdik3uuz
p223
I1
sVdfq4kzw
p224
I1
sVd1iuuxv
p225
I1
sVcz4xmar
p226
I1
sVdmzcau5
p227
I1
sVd8elzne
p228
I1
sVdjmuzok
p229
I1
sVdp2rstn
p230
I1
sVdhjn0i5
p231
I3
sVczw91jc
p232
I1
sVd401kev
p233
I1
sVdbuxyrh
p234
I1
sVdcr9zgl
p235
I4
sVdrzyyp2
p236
I1
sVd3nt56l
p237
I1
sVcyq0x76
p238
I1
sVd1hvz0t
p239
I3
sVdoukssx
p240
I1
sVdjkr9hb
p241
I2
sVd1gyrj0
p242
I1
sVd6lh4a0
p243
I1
sVd7hktlp
p244
I2
sVdsm27ny
p245
I1
sVdb3dzfc
p246
I2
sVdco6x95
p247
I1
sVddurfui
p248
I1
sVdgbj98e
p249
I1
sVdoyqbqj
p250
I1
sVd6vt97j
p251
I1
sVd8aailc
p252
I1
sVd8nrnkg
p253
I1
sVde3h89n
p254
I1
sVd1otut5
p255
I1
sVdikhhxn
p256
I1
sVd0yfwgp
p257
I1
sVdoz5m8r
p258
I1
sVd9sj8to
p259
I1
sVcyjy27c
p260
I1
sVd1jkgts
p261
I1
sVd6wqpgy
p262
I1
sVdbehwol
p263
I1
sVd0xzc2i
p264
I1
sVdopk7uq
p265
I1
sVd3zvb9g
p266
I2
sVd1jeskg
p267
I1
sVdn5tf7y
p268
I1
sVd3yrjro
p269
I1
sVdaunyug
p270
I1
sVda33pw3
p271
I1
sVdmvouap
p272
I1
sVd0lz76y
p273
I1
sVdfn26m2
p274
I1
sVd20i64i
p275
I1
sVd1wt37b
p276
I1
sVdeey8f5
p277
I1
sVdenn2ko
p278
I1
sVd7fchlp
p279
I1
sVdcnm08w
p280
I1
sVd4k6fsz
p281
I1
sVdc7ys0m
p282
I1
sVdgo5dqv
p283
I1
sVd3eh672
p284
I1
sVd188xf1
p285
I1
sVd7bfj8c
p286
I1
sVd3sfbyr
p287
I9
sVd1guk62
p288
I1
sVdmxsicl
p289
I1
sVdhmtzdj
p290
I1
sVcz48gno
p291
I1
sVdn16y4p
p292
I2
sVd3l6ywj
p293
I1
sVdjvzn83
p294
I1
sVd655veo
p295
I1
sVczxi50e
p296
I1
sVd8bstfp
p297
I1
sVdbdt708
p298
I1
sVdc9kfb8
p299
I1
sVdit4yfn
p300
I3
sVd499sdi
p301
I2
sVd6235vl
p302
I1
sVdj5j8xr
p303
I2
sVdi37mn3
p304
I1
sVd50g4ki
p305
I1
sVd8exu7i
p306
I1
sVdcgjn1i
p307
I1
sVdbykvcl
p308
I1
sVd39iibt
p309
I1
sVd3xdhd2
p310
I1
sVd86t2wr
p311
I3
sVdaaowhn
p312
I1
sVdigtlce
p313
I1
sVdckviyq
p314
I1
sVddgvwxp
p315
I1
sVd4dzf2n
p316
I1
sVcytw76v
p317
I1
sVdixe3i6
p318
I1
sVdbjb3wv
p319
I1
sVdjohr3h
p320
I1
sVdcdf7us
p321
I1
sVdnck9k7
p322
I1
sVdayrxpz
p323
I1
sVd53kp2y
p324
I3
sVd2tmzw6
p325
I1
sVd5xlvbr
p326
I1
sVdr2wd19
p327
I1
sVdbydngf
p328
I1
sVd9nth9d
p329
I1
sVdn9b2wc
p330
I1
sVd6ve6fs
p331
I1
sVdclmcwr
p332
I1
sVdqp7sej
p333
I1
sVd7jbocz
p334
I1
sVd6aekes
p335
I1
sVcyueh1o
p336
I2
sVd83m96c
p337
I1
sVd77tlc5
p338
I1
sVd86rezv
p339
I3
sVd699zm2
p340
I2
sVd61waop
p341
I1
sVdmx2vso
p342
I1
sVdsxlkss
p343
I1
sVdeq15wv
p344
I1
sVd3t0dy4
p345
I1
sVdf0blof
p346
I2
sVd088kx3
p347
I1
sVdn8izp0
p348
I1
sVd7mctjq
p349
I1
sVd73m8qw
p350
I2
sVd0xr54t
p351
I1
sVdesyvrg
p352
I2
sVd9n0xg3
p353
I3
sVd5ub745
p354
I1
sVdq3o5ld
p355
I2
sVd5pomo4
p356
I1
sVdout7ca
p357
I1
sVdn4gi5w
p358
I1
sVd60937t
p359
I1
sVdse2hex
p360
I1
sVd728pvz
p361
I1
sVd2nm1mg
p362
I1
sVdrapluk
p363
I1
sVczfq164
p364
I1
sVdshgrcm
p365
I1
sVd88fwct
p366
I1
sVczummao
p367
I1
sVdenvv44
p368
I1
sVd1r4zft
p369
I2
sVd96p2ur
p370
I4
sVdof7kso
p371
I4
sVd0mf7jg
p372
I1
sVd33oo5w
p373
I1
sVd3w9v09
p374
I1
sVczatknd
p375
I1
sVdny54j6
p376
I1
sVdbsmcc7
p377
I1
sVczxw2t6
p378
I1
sVdar1ri3
p379
I1
sVd1qdvrn
p380
I1
sVdiwgmoa
p381
I1
sVdr6i46d
p382
I1
sVdb1f4vy
p383
I1
sVdcz7oaj
p384
I1
sVdbuth8p
p385
I2
sVd827q6q
p386
I1
sVd1zle5p
p387
I1
sVczltoov
p388
I1
sVdgj6erq
p389
I1
sVd3hztkn
p390
I1
sVdtaiyx0
p391
I1
sVdkyycnx
p392
I1
sVdhjoa39
p393
I1
sVdj1xwvj
p394
I1
sVde384ex
p395
I1
sVden8lit
p396
I1
sVdea5tgu
p397
I1
sVd7gqf6k
p398
I1
sVdc92evy
p399
I1
sVdsb3cnc
p400
I1
sVdf93xwh
p401
I1
sVd237huk
p402
I1
sVd0qe26l
p403
I2
sVdoj01oq
p404
I1
sVdr9s8cd
p405
I1
sVdb2z6p5
p406
I1
sVd8e6sok
p407
I2
sVd77tg93
p408
I1
sVda5p2s6
p409
I1
sVdg4njsa
p410
I1
sVdmtahbv
p411
I1
sVdku9zi4
p412
I1
sVd53z9fx
p413
I1
sVdeugrj8
p414
I5
sVdi97tf1
p415
I2
sVdfn4d5c
p416
I1
sVdii73j1
p417
I1
sVda6flg0
p418
I4
sVd27tn2m
p419
I1
sVczawmp6
p420
I1
sVddtoyi6
p421
I1
sVdd0apr6
p422
I1
sVdq9bo5m
p423
I1
sVdq8fwdh
p424
I1
sVd11fhiz
p425
I2
sVdcn5anu
p426
I3
sVdgzfoww
p427
I1
sVdj2h5dc
p428
I1
sVd1a3mz2
p429
I1
sVd5xvvcj
p430
I1
sVd6mk9dn
p431
I2
sVdna5bde
p432
I1
sVczh5s8g
p433
I1
sVdcr9apk
p434
I1
sVdbuxrff
p435
I1
sVd3ivv7x
p436
I1
sVd4rbrwk
p437
I1
sVd8yy0v8
p438
I1
sVd5g7y58
p439
I1
sVd4m7wl6
p440
I1
sVd8wo4pq
p441
I2
sVd38fk4b
p442
I1
sVdqiuo9q
p443
I2
sVd5oywqq
p444
I1
sVdhn2nf9
p445
I1
sVd6bmghb
p446
I1
sVdjmkh5s
p447
I1
sVdkxzehy
p448
I1
sVdjn6l2y
p449
I1
sVd0gbtfg
p450
I1
sVd86nvkm
p451
I1
sVd2fknku
p452
I1
sVd0gzjy1
p453
I1
sVdhioeua
p454
I1
sVd5c68sa
p455
I2
sVdbedsxl
p456
I1
sVdk8tqzn
p457
I2
sVczjha70
p458
I3
sVd3pjs22
p459
I1
sVddxrooi
p460
I1
sVd8b1cwq
p461
I1
sVdn00z67
p462
I1
sVd59xcok
p463
I1
sVdf887kd
p464
I1
sVd3bx1f3
p465
I1
sVcyqagmn
p466
I1
sVdcbh6lt
p467
I1
sVd05kbd2
p468
I1
sVd0242ex
p469
I1
sVd4jczpy
p470
I1
sVd8oftx8
p471
I1
sVdsfeqxg
p472
I1
sVd55y4tq
p473
I1
sVdhviy87
p474
I1
sVcykwhvf
p475
I2
sVdso5ydp
p476
I1
sVdrxv756
p477
I2
sVdkm605u
p478
I1
sVdr9ss34
p479
I1
sVdhqkd26
p480
I1
sVd371rxs
p481
I2
sVdmolssn
p482
I1
sVdauifl3
p483
I1
sVdspr9ji
p484
I2
sVdnl261u
p485
I2
sVd5xpi6i
p486
I1
sVdn3ebxg
p487
I1
sVd3t7vt7
p488
I1
sVdiu329x
p489
I1
sVdg50cs7
p490
I1
sVdhh65c4
p491
I1
sVd2juhbh
p492
I1
sVd0217n0
p493
I1
sVde1o7ns
p494
I1
sVdenwxbr
p495
I1
sVd2k8q3v
p496
I1
sVdaj9i8y
p497
I1
sVd6mdsz5
p498
I1
sVddgn1j4
p499
I1
sVdmjzcgt
p500
I1
sVdjdmd4c
p501
I1
sVdktjvs1
p502
I1
sVdeltrr8
p503
I1
sVdf0sdr7
p504
I1
sVczw2sra
p505
I1
sVd9rdml6
p506
I1
sVdg5treb
p507
I1
sVdb5gaiw
p508
I1
sVdpfguxg
p509
I1
sVdfe9mw4
p510
I1
sVdfbbnxw
p511
I1
sVdmnsrbx
p512
I1
sVd49ltlj
p513
I1
sVd9n04d7
p514
I1
sVdpprtod
p515
I1
sVd82kkmu
p516
I1
sVdht6aay
p517
I1
sVdbxsemq
p518
I3
sVd3uh8z1
p519
I2
sVczw1g3m
p520
I1
sVd5h2q1o
p521
I2
sVd4ikx3b
p522
I1
sVdklyz6o
p523
I1
sVde1l20l
p524
I4
sVd1a2nvb
p525
I1
sVdjp9g7e
p526
I1
sVdhja2eb
p527
I1
sVdi5uil0
p528
I1
sVd3qwcp7
p529
I1
sVdqdb731
p530
I1
sVd32rwx9
p531
I1
sVdde9yvg
p532
I1
sVdhjn3tj
p533
I1
sVdjcjnkx
p534
I1
sVdtidcm2
p535
I5
sVd11h28g
p536
I1
sVd2gv7kx
p537
I1
sVdbilcwe
p538
I1
sVdef5e9j
p539
I1
sVd8t6itp
p540
I1
sVdejb2ga
p541
I1
sVd2uraas
p542
I1
sVd0avn73
p543
I2
sVdapefa0
p544
I1
sVdoxr0x7
p545
I1
sVd4rkkm0
p546
I1
sVd1n17ao
p547
I2
sVd61hn4e
p548
I1
sVd0fo93r
p549
I1
sVczkywnx
p550
I1
sVdjnj0pm
p551
I2
sVdhra3v3
p552
I2
sVdmquk01
p553
I1
sVdgwmkby
p554
I1
sVczr0r8e
p555
I1
sVder0e88
p556
I1
sVdazv7jo
p557
I1
sVd2jp7jm
p558
I2
sVdjojwip
p559
I1
sVcyvm68a
p560
I1
sVdaa1vpo
p561
I1
sVd14c972
p562
I1
sVcyjkc21
p563
I1
sVddzwevm
p564
I1
sVd1j14in
p565
I2
sVdcdbffx
p566
I1
sVddbdlnn
p567
I1
sVde1y6xw
p568
I2
sVd7e6faz
p569
I1
sVd07pcls
p570
I1
sVd2zzz4q
p571
I1
sVd0jvojp
p572
I2
sVdkovgvo
p573
I1
sVd3enspe
p574
I1
sVcz975pa
p575
I1
sVcyrv3pf
p576
I1
sVd61yiml
p577
I1
sVdsqjyvw
p578
I1
sVda9qqbn
p579
I2
sVdko1ckp
p580
I1
sVd72743i
p581
I1
sVd5t88b0
p582
I1
sVdczns41
p583
I1
sVd1fss41
p584
I1
sVdkic2ud
p585
I1
sVd1xhti9
p586
I1
sVcznbrre
p587
I1
sVdnfzbbl
p588
I1
sVd9xpa9e
p589
I1
sVd5slw89
p590
I1
sVdchlhsq
p591
I1
sVdb4qjav
p592
I1
sVdt0hvxx
p593
I1
sVd1in4uu
p594
I1
sVczok5it
p595
I2
sVddmq16i
p596
I2
sVd85v2q2
p597
I1
sVd9kn07h
p598
I1
sVczu72r5
p599
I1
sVdahtaku
p600
I1
sVd4h1y60
p601
I1
sVdibpmcf
p602
I1
sVd0u0fy2
p603
I1
sVdavfgac
p604
I1
sVdiio0mo
p605
I1
sVdbtf1sh
p606
I1
sVcz8un8w
p607
I1
sVd2aae50
p608
I1
sVd8hqqmz
p609
I1
sVdt3ll6d
p610
I1
sVd5piay9
p611
I1
sVd10qcjq
p612
I1
sVdg477rr
p613
I1
sVdsfhzm7
p614
I1
sVd7re29y
p615
I1
sVd0qu9un
p616
I1
sVd2gc4cl
p617
I1
sVd6f231y
p618
I3
sVdb2o2qv
p619
I2
sVd7jdh4w
p620
I1
sVdd42lrg
p621
I1
sVdapokg4
p622
I1
sVd673wua
p623
I1
sVd5t4a46
p624
I1
sVdmnmfu6
p625
I2
sVd6ajai9
p626
I11
sVdnumh9g
p627
I1
sVdebcilm
p628
I1
sVdgxo9qw
p629
I1
sVdr5yfg3
p630
I1
sVdd48b4z
p631
I1
sVczdf1el
p632
I3
sVcyq3tfz
p633
I1
sVdms5zeo
p634
I1
sVcza9ruo
p635
I1
sVdeyfa09
p636
I1
sVd5bmu5j
p637
I1
sVdqp757d
p638
I1
sVcyrhwxc
p639
I1
sVde0zmx9
p640
I1
sVcz0nzdy
p641
I1
sVd5hm9lb
p642
I1
sVcyz69n5
p643
I1
sVdk4nk63
p644
I1
sVcytz2yk
p645
I1
sVdju7mai
p646
I1
sVdd5uym3
p647
I1
sVdisnea2
p648
I3
sVcyr4qh1
p649
I2
sVde2b3lm
p650
I1
sVd3nt1cp
p651
I1
sVd1peyu3
p652
I1
sVdfavvi8
p653
I1
sVczcwfcv
p654
I1
sVd046nam
p655
I1
sVdev4wl2
p656
I1
sVde8uz79
p657
I1
sVd1i1h1w
p658
I1
sVddh1kow
p659
I1
sVdbv51si
p660
I1
sVdsl2ilt
p661
I1
sVds04ohs
p662
I1
sVd1p93jf
p663
I1
sVd3k7aw2
p664
I1
sVdi0glol
p665
I1
sVd2wbq1t
p666
I1
sVdf1yusk
p667
I1
sVd5zkvqr
p668
I1
sVddrpsfz
p669
I2
sVdjx1fuq
p670
I1
sVd9qkh1h
p671
I1
sVd4h60ps
p672
I1
sVd2hk336
p673
I1
sVdhj823o
p674
I1
sVdh36aho
p675
I2
sVdiaeibx
p676
I1
sVdnbhu9m
p677
I1
sVd6j97en
p678
I1
sVd12w4ya
p679
I1
sVdafwq2s
p680
I3
sVdtfm81h
p681
I1
sVd35qtcc
p682
I1
sVde78x32
p683
I2
sVdqarnzt
p684
I1
sVczc16cu
p685
I1
sVczyr7kf
p686
I1
sVd8gnird
p687
I1
sVd0ohajq
p688
I1
sVd6dhzdt
p689
I1
sVd9cvpdl
p690
I1
sVdjkdq3i
p691
I1
sVdo8q7nu
p692
I2
sVdieyke4
p693
I1
sVd22gwi2
p694
I1
sVdiidfsk
p695
I1
sVdha4zqz
p696
I1
sVdqmgagj
p697
I1
sVdij55q0
p698
I1
sVdbdy6m8
p699
I1
sVdhid6m7
p700
I1
sVd6kbat1
p701
I1
sVdb64ei0
p702
I1
sVd7q39xh
p703
I1
sVcz0fu84
p704
I1
sVdhn62rl
p705
I2
sVd7lt9gm
p706
I1
sVdf2i7jy
p707
I1
sVdkyat5p
p708
I1
sVd8yttu4
p709
I1
sVdgabwhq
p710
I2
sVdkwydmx
p711
I1
sVdddpc95
p712
I1
sVdj3z7jm
p713
I1
sVdg97uhm
p714
I1
sVczxwsxf
p715
I1
sVdefeyts
p716
I2
sVd57x4ey
p717
I1
sVddf03ap
p718
I1
sVdh1gw4n
p719
I1
sVdbgvzdo
p720
I1
sVdi0noke
p721
I1
sVdpy7i8e
p722
I1
sVd4h3pmz
p723
I1
sVd98ku6v
p724
I1
sVd2apfs1
p725
I1
sVd6gka3d
p726
I1
sVd9o2fg4
p727
I1
sVd4ziz8i
p728
I2
sVd6q4qts
p729
I1
sVddl304e
p730
I1
sVd3f0uht
p731
I1
sVd82pej6
p732
I1
sVd19jzzh
p733
I1
sVdc2t69k
p734
I1
sVd5hma2o
p735
I2
sVd07362w
p736
I1
sVd3x5xs2
p737
I1
sVdf5s1yd
p738
I2
sVdhfnlpb
p739
I2
sVdo8ippt
p740
I3
sVd1eqbp8
p741
I1
sVd2cpcft
p742
I1
sVdemipsb
p743
I1
sVd39dbx7
p744
I1
sVdkgjscv
p745
I1
sVczdk41l
p746
I1
sVd4pok9s
p747
I1
sVde7pgr1
p748
I1
sVdfh0gar
p749
I1
sVde1uzrf
p750
I1
sVdcl2mno
p751
I1
sVd28ee8f
p752
I1
sVddy16w8
p753
I2
sVderbyw8
p754
I2
sVd3nv94a
p755
I1
sVdak02eu
p756
I1
sVdft5zih
p757
I1
sVdh5j5tw
p758
I1
sVdmfnohs
p759
I1
sVd4dpmn1
p760
I2
sVdmvxpr2
p761
I2
sVdj2la4q
p762
I1
sVdrt7pwk
p763
I1
sVdoq5g5c
p764
I2
sVd1gbyd1
p765
I1
sVdr30sz1
p766
I1
sVdknub6d
p767
I1
sVd62shcb
p768
I1
sVdpwq6gt
p769
I1
sVdqajbrv
p770
I1
sVcylknaf
p771
I1
sVczo0vi7
p772
I1
sVdbt73h7
p773
I1
sVdchmd3b
p774
I1
sVczz8ses
p775
I1
sVdknu3kz
p776
I1
sVd8epwo4
p777
I2
sVdrnwbed
p778
I1
sVdef5qkc
p779
I1
sVd0cgv20
p780
I1
sVds3l9l3
p781
I1
sVde7b7kr
p782
I1
sVdt15wdq
p783
I1
sVdigeixm
p784
I1
sVd3h0u4b
p785
I1
sVd830rig
p786
I1
sVd8aauhs
p787
I1
sVd1rrst6
p788
I1
sVdbip43p
p789
I1
sVd963k9x
p790
I2
sVd427fqf
p791
I2
sVdr6nmwh
p792
I1
sVdo1miya
p793
I2
sVdchqebs
p794
I1
sVdj43h4z
p795
I2
sVdfqawsv
p796
I1
sVd5zjtcm
p797
I2
sVdogrfa7
p798
I1
sVda2pdj7
p799
I1
sVdhqq98t
p800
I2
sVda1q5wd
p801
I1
sVdad0h8t
p802
I1
sVddek4af
p803
I1
sVdft27zh
p804
I7
sVcyj75ou
p805
I1
sVdr8kzbi
p806
I1
sVczpqwuw
p807
I2
sVdhmwvx3
p808
I1
sVdc22k95
p809
I1
sVczxpme3
p810
I1
sVdhfs6hv
p811
I3
sVd2t0ur5
p812
I3
sVdbw9mvj
p813
I1
sVdcngu49
p814
I1
sVd3arldz
p815
I1
sVdoazntf
p816
I3
sVd3ugats
p817
I1
sVd53pvm5
p818
I1
sVd90n41o
p819
I1
sVd95manh
p820
I2
sVczw0ebl
p821
I1
sVdegjyxs
p822
I1
sVdenwak5
p823
I1
sVd4boqll
p824
I1
sVdhzris9
p825
I2
sVdpvscq5
p826
I1
sVdpbf1l3
p827
I1
sVdfvtgbg
p828
I1
sVczcpj66
p829
I2
sVdkmxf70
p830
I3
sVd86i264
p831
I1
sVdb5m4jx
p832
I2
sVd0a12nz
p833
I1
sVcymztkd
p834
I2
sVdqnz2hz
p835
I1
sVd1xs550
p836
I1
sVd1qmae0
p837
I1
sVdbl3izm
p838
I1
sVddkq34p
p839
I1
sVd1jds44
p840
I2
sVd06bhas
p841
I1
sVd04fl7t
p842
I1
sVdbimeyt
p843
I2
sVd0fj1nx
p844
I1
sVd0wmbiq
p845
I1
sVdf3u2i8
p846
I1
sVd3tvfq2
p847
I1
sVd008ae4
p848
I1
sVcz0nnaw
p849
I1
sVdqdg7by
p850
I1
sVd5t8bi8
p851
I1
sVd9aqjtb
p852
I1
sVcyqrp14
p853
I1
sVdch9zfx
p854
I1
sVd5fkq9t
p855
I5
sVd2bf1w0
p856
I1
sVdktvvrw
p857
I1
sVds62485
p858
I1
sVddr1832
p859
I2
sVd2yr855
p860
I1
sVd9ts30f
p861
I1
sVdg90orl
p862
I2
sVcyte5eu
p863
I1
sVdclb2h6
p864
I2
sVdopszby
p865
I1
sVd41cr9t
p866
I1
sVds8fm7j
p867
I1
sVd8k68i7
p868
I1
sVdjzxjd4
p869
I1
sVd71ad44
p870
I1
sVdihc91v
p871
I1
sVd2dfxpm
p872
I1
sVd6fp8c6
p873
I1
sVdbds0kp
p874
I2
sVd11px3f
p875
I1
sVdi4uzdj
p876
I1
sVd9znoog
p877
I1
sVd3phnzv
p878
I1
sVdcpruvc
p879
I1
sVdosc0af
p880
I1
sVdgtv45w
p881
I1
sVdejq0uv
p882
I1
sVd771cs5
p883
I1
sVdb5fabg
p884
I2
sVdso529h
p885
I2
sVd66peb5
p886
I1
sVd2kxfnt
p887
I2
sVdcyi2ch
p888
I1
sVd4jyk5h
p889
I1
sVdi12gur
p890
I1
sVd6cv9zy
p891
I1
sVdggt6b5
p892
I1
sVdduz1ae
p893
I1
sVdatsly7
p894
I4
sVdpsdzs9
p895
I1
sVdelljwc
p896
I1
sVd6ik7x3
p897
I1
sVdenw7cf
p898
I1
sVd4txvcv
p899
I2
sVd6jzhrs
p900
I2
sVdeopydm
p901
I2
sVdjcd39v
p902
I1
sVdijnztz
p903
I1
sVd8a8qj8
p904
I1
sVdhouz86
p905
I1
sVdnavo4f
p906
I1
sVdo4hcel
p907
I1
sVdg0w51r
p908
I1
sVd5lpbip
p909
I4
sVczublc3
p910
I1
sVd897ts1
p911
I2
sVdhay75y
p912
I1
sVczj4koo
p913
I1
sVdc3b3rd
p914
I1
sVd3nrrba
p915
I1
sVd2bvzlm
p916
I2
sVd7q7jdk
p917
I3
sVdgj2ttd
p918
I1
sVdotw8zk
p919
I1
sVd27zqxf
p920
I1
sVdd02e0e
p921
I1
sVd7hqm6x
p922
I1
sVd9vxiqr
p923
I1
sVd82m5xh
p924
I2
sVd1vigko
p925
I1
sVdhqebyb
p926
I1
sVczxqpog
p927
I1
sVczova2q
p928
I1
sVd2l5pp6
p929
I1
sVdcd1jvd
p930
I1
sVdknoc1v
p931
I1
sVd31cmkn
p932
I1
sVda743iz
p933
I1
sVdf96qlj
p934
I1
sVdir03ap
p935
I1
sVdmuf6ew
p936
I1
sVd3kfhgp
p937
I2
sVd53me0t
p938
I1
sVdmzbr4p
p939
I1
sVdhse9xd
p940
I1
sVczrlkka
p941
I1
sVdgkwdwj
p942
I1
sVd9qw074
p943
I1
sVd8m8jid
p944
I1
sVd65ex1p
p945
I1
sVd8m3n62
p946
I1
sVdnyj46x
p947
I1
sVdgqv2qe
p948
I1
sVd85rgt1
p949
I1
sVdrfk6zl
p950
I5
sVd95pgfx
p951
I1
sVdd4ye15
p952
I1
sVdnda16m
p953
I1
sVdn82osb
p954
I1
sVcz0zw5q
p955
I1
sVddt42xr
p956
I1
sVdkvfgtq
p957
I2
sVd4ubx83
p958
I1
sVdcrb8b4
p959
I4
sVd4eqg9f
p960
I1
sVdt0obox
p961
I1
sVd6lblof
p962
I1
sVdpo3vx2
p963
I1
sVd3i58vk
p964
I1
sVdbedtjf
p965
I1
sVdsmoyou
p966
I1
sVdn2vuoq
p967
I1
sVdcjuvif
p968
I1
sVdekg0ln
p969
I1
sVdg0jpvt
p970
I1
sVdgvgh3c
p971
I1
sVcyqfzi7
p972
I1
sVdab56dw
p973
I1
sVd86lxya
p974
I1
sVd080f7q
p975
I2
sVcz0jvl0
p976
I1
sVdn1pt6u
p977
I2
sVd5ze8vo
p978
I1
sVd40lf5o
p979
I1
sVd9n9bzo
p980
I1
sVd6gftgb
p981
I1
sVd0pn3i5
p982
I1
sVdbq5nd5
p983
I1
sVdfk6oqy
p984
I1
sVdi5zxu4
p985
I2
sVd7035io
p986
I1
sVcyndb4m
p987
I2
sVd8onui3
p988
I1
sVdqiuc5z
p989
I1
sVd1o6s9c
p990
I2
sVd2ysicl
p991
I1
sVdgcpuvu
p992
I1
sVdn10ej6
p993
I2
sVdf525xm
p994
I2
sVd5t5aao
p995
I1
sVd5j8kdn
p996
I2
sVdfosuxj
p997
I1
sVd060sbm
p998
I1
sVczwc8pw
p999
I1
sVdatr6uk
p1000
I1
sVdbe03db
p1001
I8
sVdaqi66y
p1002
I1
sVdg9hpcw
p1003
I2
sVdmflxl1
p1004
I1
sVdorb7f3
p1005
I1
sVd2nb61n
p1006
I1
sVd9f5zd1
p1007
I3
sVdeu86uc
p1008
I1
sVdiwzabo
p1009
I1
sVdd0f4zl
p1010
I1
sVd7kc4ew
p1011
I1
sVczob3oc
p1012
I2
sVd1vi1cc
p1013
I1
sVdbvogrg
p1014
I1
sVd0qewq9
p1015
I6
sVddmqrlx
p1016
I1
sVd7swyjl
p1017
I1
sVdnd89qw
p1018
I1
sVdjzdhw1
p1019
I1
sVd32mr0k
p1020
I1
sVdtibrgd
p1021
I1
sVdap5y4m
p1022
I1
sVczku7hx
p1023
I1
sVdeikq2m
p1024
I1
sVddbanho
p1025
I2
sVdfgknlx
p1026
I1
sVd37gymf
p1027
I1
sVd0ydkp1
p1028
I1
sVdcxh7az
p1029
I2
sVdb25dvq
p1030
I1
sVd7ikutg
p1031
I2
sVdi2bm5l
p1032
I1
sVdpqf0iy
p1033
I1
sVdp3v73z
p1034
I1
sVd5jzvqr
p1035
I1
sVdbxo98f
p1036
I1
sVcylb43z
p1037
I1
sVddff2p1
p1038
I1
sVcyxcd5k
p1039
I1
sVd64r3ts
p1040
I1
sVdjn6clw
p1041
I1
sVdcwj8xq
p1042
I1
sVdayn5n8
p1043
I1
sVd8e0kfz
p1044
I1
sVdd5ty36
p1045
I1
sVd39dq0l
p1046
I1
sVczxbkp1
p1047
I1
sVd89jh73
p1048
I2
sVdekshru
p1049
I1
sVdjtq5y9
p1050
I1
sVd893881
p1051
I1
sVd57sn9w
p1052
I1
sVdogaxd8
p1053
I4
sVcz55x6l
p1054
I1
sVd679drv
p1055
I1
sVdgau7di
p1056
I1
sVd39h5kz
p1057
I1
sVd65pw7x
p1058
I1
sVd1rc3o9
p1059
I1
sVd7y8rky
p1060
I1
sVd1u6n8n
p1061
I1
sVdn803fp
p1062
I1
sVd5lebcn
p1063
I1
sVd5xvsoa
p1064
I1
sVdjtyszy
p1065
I1
sVd54qrzr
p1066
I1
sVd2ijf25
p1067
I2
sVdi56n2f
p1068
I1
sVdhjhhny
p1069
I1
sVdia3o93
p1070
I1
sVdpzcmo1
p1071
I1
sVdfxbfre
p1072
I1
sVdendonc
p1073
I3
sVd37hftt
p1074
I1
sVdgm0p2x
p1075
I2
sVczxw1vj
p1076
I1
sVddk84bs
p1077
I1
sVdiolu7p
p1078
I1
sVd3n621v
p1079
I1
sVd2u4uy8
p1080
I1
sVdkgp55h
p1081
I1
sVdjqupwl
p1082
I1
sVdslsgim
p1083
I1
sVd773hxs
p1084
I3
sVdej35ub
p1085
I2
sVdfj2gw2
p1086
I1
sVdpmsfy7
p1087
I1
sVd4lop3c
p1088
I2
sVddt73u4
p1089
I1
sVde7tjf1
p1090
I1
sVdiqgz3k
p1091
I1
sVd7cktd1
p1092
I1
sVd3ujgr6
p1093
I1
sVdbvddln
p1094
I1
sVczat8xn
p1095
I2
sVd9ygrrg
p1096
I1
sVd9jw96y
p1097
I2
sVddwd85q
p1098
I1
sVddomqvd
p1099
I1
sVd2pypcf
p1100
I2
sVcylgl85
p1101
I2
sVd1k38xr
p1102
I2
sVdewze8c
p1103
I2
sVdb0d340
p1104
I1
sVd3ikyr6
p1105
I1
sVdj233ny
p1106
I1
sVdtj19y9
p1107
I1
sVdht3b88
p1108
I1
sVd8hckjo
p1109
I1
sVd19lzj2
p1110
I1
sVdkc3oft
p1111
I1
sVdqxeh59
p1112
I1
sVcylabse
p1113
I2
sVcyx6fm4
p1114
I1
sVdikekaf
p1115
I1
sVda14kw7
p1116
I1
sVddwr7gr
p1117
I1
sVdn8hjfi
p1118
I1
sVd7gg0x3
p1119
I1
sVd2uxdh3
p1120
I2
sVdkgac1j
p1121
I1
sVd3k8pk2
p1122
I1
sVdh6ovaz
p1123
I2
sVdhcjmt8
p1124
I2
sVdt0f8zl
p1125
I1
sVderbn88
p1126
I1
sVdraceb3
p1127
I1
sVdo8gwss
p1128
I1
sVd3bp9hv
p1129
I2
sVd7xgmko
p1130
I3
sVdewlook
p1131
I1
sVdb8lux3
p1132
I1
sVd7ysc4y
p1133
I2
sVd3swdnv
p1134
I1
sVdcx8hv1
p1135
I1
sVdg0wwzo
p1136
I1
sVd02cz5w
p1137
I1
sVd8on8n7
p1138
I1
sVd62dbs4
p1139
I1
sVdt1nfps
p1140
I1
sVdctixs2
p1141
I3
sVddljlxk
p1142
I1
sVdfq1wxt
p1143
I1
sVd5pufhd
p1144
I1
sVd23cpqn
p1145
I1
sVcz9pslk
p1146
I1
sVd1tu7wy
p1147
I1
sVdfcjpvk
p1148
I1
sVdao76gw
p1149
I1
sVd579wix
p1150
I1
sVdhpxdrg
p1151
I1
sVd6rz6h3
p1152
I1
sVdkc7zxa
p1153
I1
sVdhfv4nr
p1154
I1
sVd3fkeku
p1155
I1
sVdfbbwe3
p1156
I1
sVd3q6onr
p1157
I1
sVdhssych
p1158
I1
sVde9eu2w
p1159
I1
sVdnxzyty
p1160
I1
sVd0yp4tv
p1161
I3
sVdb8ul4q
p1162
I1
sVd69hnvi
p1163
I4
sVdiectje
p1164
I1
sVd2t0ls5
p1165
I1
sVde9zw39
p1166
I1
sVd72kqmm
p1167
I1
sVdrfyyho
p1168
I1
sVddwhwor
p1169
I2
sVd01eky4
p1170
I2
sVdbhrvmy
p1171
I1
sVd4au7wo
p1172
I1
sVdbeams6
p1173
I1
sVdguntqh
p1174
I1
sVd6q517h
p1175
I1
sVd82po7v
p1176
I1
sVdfimn0e
p1177
I1
sVdolifd9
p1178
I1
sVd4amriq
p1179
I1
sVdb07bc1
p1180
I1
sVd3bvhe8
p1181
I1
sVdq37jnr
p1182
I1
sVd6eyysm
p1183
I1
sVcyjaoqp
p1184
I1
sVda9513f
p1185
I1
sVczty9lq
p1186
I1
sVd0r9fz0
p1187
I1
sVd00452u
p1188
I1
sVcyuxihc
p1189
I1
sVdmjlgwu
p1190
I1
sVdmjtq4c
p1191
I1
sVd1nx88e
p1192
I1
sVdmjr69h
p1193
I2
sVd1jnz61
p1194
I1
sVdas3h67
p1195
I1
sVdhtf8kr
p1196
I1
sVd2mtxkz
p1197
I1
sVdjvzov1
p1198
I1
sVdgfa1w0
p1199
I1
sVd5nrugv
p1200
I1
sVcyqr1dr
p1201
I1
sVdteh4q0
p1202
I1
sVdn99x27
p1203
I1
sVd0ypgh3
p1204
I2
sVd6ywuwx
p1205
I1
sVczw1356
p1206
I1
sVd508v8v
p1207
I1
sVcyvtv5w
p1208
I2
sVd29g67s
p1209
I1
sVcz811jy
p1210
I1
sVd0cd5tk
p1211
I1
sVd2eke0x
p1212
I1
sVd37vavd
p1213
I1
sVcyzli4i
p1214
I3
sVd6xa3ww
p1215
I1
sVdi5vbd6
p1216
I1
sVd5stfps
p1217
I1
sVdkergdy
p1218
I1
sVdggu6jb
p1219
I1
sVdp647u5
p1220
I1
sVcz3r2os
p1221
I1
sVd3dt301
p1222
I1
sVdsp0vu9
p1223
I1
sVd8b90s3
p1224
I1
sVcymoaju
p1225
I1
sVd0tk35l
p1226
I2
sVdira5l7
p1227
I1
sVdczlev3
p1228
I1
sVd68qh0v
p1229
I1
sVczgy9hu
p1230
I1
sVdabe9z1
p1231
I1
sVd0t6956
p1232
I1
sVd1l3db5
p1233
I1
sVde8obeg
p1234
I3
sVdpuyn14
p1235
I2
sVd6ai92b
p1236
I1
sVdj2iu2j
p1237
I1
sVdqbf036
p1238
I1
sVd6xcfzt
p1239
I1
sVdp9eiy5
p1240
I1
sVdqtg94r
p1241
I1
sVdroezq6
p1242
I1
sVd3czt5k
p1243
I1
sVcyl35cw
p1244
I1
sVd1zlcg4
p1245
I1
sVdd6trkl
p1246
I1
sVd671481
p1247
I1
sVcyit3iw
p1248
I1
sVdscleb8
p1249
I2
sVdiopomj
p1250
I1
sVd3srruq
p1251
I1
sVd4izfba
p1252
I1
sVd75d1jf
p1253
I1
sVdfvqsk0
p1254
I1
sVd5q1f74
p1255
I1
sVdbta0ha
p1256
I1
sVcz1xyxt
p1257
I1
sVd39olhb
p1258
I1
sVdowwpoj
p1259
I1
sVd3p39fc
p1260
I1
sVd2bg4nh
p1261
I1
sVdjmius8
p1262
I1
sVd2mxaqs
p1263
I8
sVd1qm9wr
p1264
I1
sVdmwxypl
p1265
I2
sVd1b7sc0
p1266
I1
sVdfbiztu
p1267
I1
sVd7efx66
p1268
I1
sVdmoycf9
p1269
I1
sVd6jxihs
p1270
I1
sVda2llf8
p1271
I1
sVd1yk3ka
p1272
I1
sVdc23jc2
p1273
I1
sVd8u6ofc
p1274
I1
sVde7ek9c
p1275
I1
sVde8xv9l
p1276
I1
sVdog9cpj
p1277
I1
sVdbpkn9x
p1278
I1
sVdnttlat
p1279
I1
sVcz9hcp2
p1280
I1
sVdqsfzva
p1281
I1
sVdtjlbr7
p1282
I1
sVdfwvni4
p1283
I1
sVd8frz1p
p1284
I1
sVd2bw0s2
p1285
I1
sVdb72fiz
p1286
I1
sVd5xhill
p1287
I2
sVdbzvh9u
p1288
I1
sVd2nkaa8
p1289
I1
sVdczncdx
p1290
I1
sVdpq5n9r
p1291
I1
sVdabby3c
p1292
I2
sVddfrefu
p1293
I1
sVcz6coir
p1294
I1
sVdr9pl8n
p1295
I1
sVd3v9tt7
p1296
I1
sVdjxfzv6
p1297
I1
sVd2ljts4
p1298
I1
sVd43znb0
p1299
I2
sVd8ln46o
p1300
I1
sVcyn98bj
p1301
I1
sVd0ortmi
p1302
I1
sVdh407zl
p1303
I1
sVddc5wl4
p1304
I1
sVdonqeao
p1305
I1
sVdb8mvmc
p1306
I1
sVdccdr89
p1307
I3
sVdjit0k6
p1308
I1
sVd1qdpz7
p1309
I1
sVdo8nx2l
p1310
I1
sVdihwjz2
p1311
I1
sVdtiapek
p1312
I1
sVd6s7zv5
p1313
I2
sVd4t042r
p1314
I1
sVdiweik9
p1315
I1
sVd2hy8cv
p1316
I1
sVddwkyqp
p1317
I1
sVd70j0bb
p1318
I1
sVczs36e3
p1319
I1
sVdjp2c4e
p1320
I1
sVd7buazc
p1321
I1
sVda3mkeb
p1322
I1
sVd2ltj2z
p1323
I1
sVd66i8tn
p1324
I1
sVd75xusn
p1325
I1
sVdjw0y08
p1326
I1
sVd00r92z
p1327
I1
sVddclaff
p1328
I1
sVczfn1xz
p1329
I1
sVdaw6qk2
p1330
I1
sVd379v1z
p1331
I1
sVd59a70m
p1332
I1
sVdhwvo45
p1333
I1
sVdivtwv5
p1334
I1
sVdjom4nx
p1335
I1
sVd1lc4o8
p1336
I1
sVdel9yef
p1337
I1
sVd7l5qp0
p1338
I1
sVd7ci51w
p1339
I1
sVd191s1p
p1340
I1
sVdei4fl9
p1341
I1
sVddbxnlf
p1342
I2
sVdauod0m
p1343
I1
sVd40w3rq
p1344
I1
sVdbj18p5
p1345
I1
sVdt0ej1m
p1346
I1
sVdesqf18
p1347
I1
sVdpbfpjm
p1348
I2
sVd8p0qnn
p1349
I1
sVdso715x
p1350
I1
sVd2bmqde
p1351
I1
sVd6zy9h3
p1352
I2
sVdflame2
p1353
I1
sVd1k0dl0
p1354
I1
sVd9igw6y
p1355
I1
sVd80u5ou
p1356
I1
sVdbbjdoj
p1357
I2
sVdppkx1b
p1358
I1
sVdrla9z1
p1359
I1
sVdivi58m
p1360
I1
sVdfpdeg6
p1361
I1
sVd8fbqit
p1362
I1
sVdjrcgi8
p1363
I1
sVd4l3lw0
p1364
I1
sVd61sa9o
p1365
I1
sVd3k4o7r
p1366
I1
sVd2zym0g
p1367
I1
sVd4ichos
p1368
I1
sVd24cn5k
p1369
I1
sVd3i7dgg
p1370
I1
sVdfatft0
p1371
I1
sVcyuvxpc
p1372
I1
sVdrf62po
p1373
I1
sVde8syka
p1374
I1
sVdbv44pn
p1375
I1
sVdbnqjl5
p1376
I1
sVdfza140
p1377
I1
sVde45r6w
p1378
I1
sVdc2mriv
p1379
I1
sVds27eej
p1380
I1
sVdpv3quy
p1381
I1
sVdpl8e9s
p1382
I1
sVd95yyl4
p1383
I1
sVd07ukb6
p1384
I1
sVczscqap
p1385
I1
sVdmv9zm7
p1386
I1
sVdmirgg9
p1387
I2
sVdd9xbut
p1388
I1
sVd8x7bqd
p1389
I1
sVdh1zm0p
p1390
I1
sVd1wak89
p1391
I1
sVdbk09cq
p1392
I1
sVddwi4lj
p1393
I3
sVcz9h5ld
p1394
I1
sVdaq8utk
p1395
I1
sVd85ma3e
p1396
I1
sVdd3b41x
p1397
I1
sVczarspk
p1398
I1
sVd6gy4lu
p1399
I1
sVd8n3xnv
p1400
I1
sVdcnyu8g
p1401
I1
sVd6xkrli
p1402
I1
sVdqq1dhe
p1403
I1
sVczgmunl
p1404
I1
sVdn2sog6
p1405
I1
sVdmwyxdw
p1406
I1
sVd6dyq0f
p1407
I1
sVdihh3o7
p1408
I1
sVdbcacds
p1409
I1
sVd3i1t64
p1410
I1
sVdmjfn9g
p1411
I1
sVdadr3ov
p1412
I1
sVdj9fwn0
p1413
I1
sVd04yfaf
p1414
I1
sVdd6rsnm
p1415
I1
sVd95mk56
p1416
I1
sVdei2uae
p1417
I1
sVd42cbeg
p1418
I3
sVd16wcsn
p1419
I1
sVdnpsaey
p1420
I2
sVd38w3rc
p1421
I2
sVdfwvvhx
p1422
I1
sVdf5l37s
p1423
I1
sVde5k5ph
p1424
I1
sVda80nfk
p1425
I1
sVdewwekf
p1426
I1
sVd2pzojq
p1427
I1
sVdc5q32i
p1428
I2
sVdahpv27
p1429
I1
sVd1pa6gk
p1430
I1
sVczcjpbo
p1431
I1
sVd2am8ad
p1432
I1
sVd5vzn1t
p1433
I2
sVd7uxph3
p1434
I1
sVd3lltm4
p1435
I1
sVd1mmx26
p1436
I1
sVd1j8sdf
p1437
I1
sVd3e20le
p1438
I1
sVdgq8v5j
p1439
I1
sVdhi6l4g
p1440
I1
sVczl7gbh
p1441
I1
sVd0rcsql
p1442
I1
sVd2c2q1a
p1443
I1
sVd3pgh7w
p1444
I1
sVdazbg7d
p1445
I1
sVdo6klmd
p1446
I1
sVd41eanl
p1447
I1
sVdbspxch
p1448
I1
sVd9vbq38
p1449
I1
sVdkvapti
p1450
I1
sVdedts7d
p1451
I1
sVdfnj03x
p1452
I2
sVdka5mdi
p1453
I1
sVd68jaic
p1454
I1
sVd6jalg0
p1455
I1
sVdkm7i7a
p1456
I1
sVd1weevv
p1457
I1
sVdf3ou86
p1458
I1
sVdft630z
p1459
I1
sVdmsjad3
p1460
I2
sVddlbl7k
p1461
I1
sVdmvin2r
p1462
I2
sVdkrrsuj
p1463
I1
sVdikqpnl
p1464
I1
sVdfhfkm4
p1465
I1
sVd2qk3xe
p1466
I1
sVdnkqy3c
p1467
I1
sVddtvvlg
p1468
I1
sVd1jw1jd
p1469
I1
sVdcz5oh4
p1470
I1
sVdn3ue9l
p1471
I1
sVdhfsdi2
p1472
I1
sVdhtnq7y
p1473
I1
sVdjuwkm6
p1474
I1
sVd0lw9cw
p1475
I1
sVd9sufie
p1476
I1
sVdbnhved
p1477
I1
sVdqrmvkt
p1478
I1
sVd399cah
p1479
I1
sVczqteur
p1480
I1
sVdi1qjbv
p1481
I1
sVdj2g2pw
p1482
I1
sVd3qmoix
p1483
I1
sVdaiy9wc
p1484
I1
sVd38mi02
p1485
I1
sVcyhu7cm
p1486
I1
sVd4tzf65
p1487
I3
sVczia6vk
p1488
I1
sVdqdj6e8
p1489
I1
sVdsnip5k
p1490
I1
sVdcm5gcr
p1491
I1
sVde2q9y6
p1492
I1
sVcyqv204
p1493
I1
sVd7bdlyh
p1494
I3
sVdbxh259
p1495
I1
sVd2m1g9b
p1496
I1
sVddwg3ea
p1497
I1
sVdgywr60
p1498
I1
sVddr7nme
p1499
I1
sVdh1rh67
p1500
I2
sVd9i7c2k
p1501
I1
sVd01hydf
p1502
I1
sVd1gk4ub
p1503
I1
sVdd4fg4d
p1504
I1
sVdbqhqfr
p1505
I1
sVdo7t3at
p1506
I1
sVdb6bg97
p1507
I2
sVdg8fnt9
p1508
I2
sVdmve8t0
p1509
I2
sVdhpxol6
p1510
I1
sVd6g4drd
p1511
I1
sVdq0l9yn
p1512
I1
sVdjaanjs
p1513
I1
sVd2jxe27
p1514
I1
sVd4l0kxj
p1515
I1
sVdr0nol7
p1516
I1
sVdemfefy
p1517
I1
sVdjfcv6u
p1518
I2
sVdbguyur
p1519
I2
sVdi08y0p
p1520
I1
sVdj0uwx2
p1521
I1
sVdf1j5i6
p1522
I1
sVdo8x23t
p1523
I1
sVdmjm9ho
p1524
I1
sVd14v5xb
p1525
I1
sVd0ru4yn
p1526
I1
sVdg1d2tt
p1527
I1
sVd56izh5
p1528
I1
sVd1qzfpw
p1529
I1
sVd5fnis8
p1530
I1
sVdj27kfp
p1531
I1
sVd71skmb
p1532
I1
sVd6u57uq
p1533
I1
sVdpqo8i9
p1534
I1
sVdsvhjuu
p1535
I2
sVd8920it
p1536
I2
sVd4k673h
p1537
I1
sVd4wjxfe
p1538
I1
sVd1jeoj7
p1539
I1
sVczluczw
p1540
I1
sVdb60bkd
p1541
I1
sVdfmxu2v
p1542
I1
sVde4krt3
p1543
I1
sVdfkhtu2
p1544
I1
sVd16xnup
p1545
I2
sVdcm1mge
p1546
I1
sVd6jioa2
p1547
I1
sVd27vh9h
p1548
I1
sVd2y4kvz
p1549
I1
sVd3cbu0n
p1550
I1
sVczrp2m3
p1551
I1
sVdgsf7ux
p1552
I1
sVdn10knt
p1553
I2
sVdei2tn2
p1554
I2
sVdf3l1yl
p1555
I2
sVdmw7ipz
p1556
I1
sVd3h8j8z
p1557
I1
sVdfgfdvi
p1558
I2
sVd5t468m
p1559
I2
sVdjmm7lu
p1560
I1
sVdnzyut1
p1561
I1
sVcyikqoq
p1562
I1
sVczn4f1h
p1563
I1
sVdt9lsv8
p1564
I1
sVdjyahto
p1565
I1
sVd314c6d
p1566
I2
sVdgtbjrz
p1567
I2
sVdtiiox2
p1568
I1
sVdr8t59b
p1569
I1
sVdihl3zx
p1570
I1
sVd8vnzck
p1571
I1
sVdayrqin
p1572
I1
sVd89adoo
p1573
I1
sVd3rx4hs
p1574
I1
sVcyvafil
p1575
I2
sVdbcgq3l
p1576
I1
sVddfbxg7
p1577
I1
sVdgihbda
p1578
I1
sVdbkpnzi
p1579
I1
sVdfnhe06
p1580
I1
sVdfx08al
p1581
I1
sVdb28nqe
p1582
I1
sVd12jdfd
p1583
I1
sVddg2k43
p1584
I1
sVdar1rat
p1585
I1
sVd8u183m
p1586
I1
sVd3fdrl4
p1587
I1
sVdfopo0b
p1588
I1
sVdg4iwby
p1589
I1
sVdjllrgt
p1590
I1
sVcymgynb
p1591
I1
sVdjlvibm
p1592
I1
sVd9tnk9h
p1593
I1
sVdjviuqu
p1594
I1
sVd48b2vx
p1595
I4
sVdpc6159
p1596
I2
sVdgchq50
p1597
I1
sVd6d6v0h
p1598
I2
sVcz53tvm
p1599
I1
sVd7bnw9a
p1600
I2
sVd9fw1gn
p1601
I1
sVdos2y52
p1602
I1
sVcztwhsj
p1603
I1
sVdg0z7h2
p1604
I1
sVd31o7sj
p1605
I1
sVdazyqj6
p1606
I5
sVdc5qmye
p1607
I1
sVdoet4uq
p1608
I1
sVdaax7ps
p1609
I1
sVd5ix7j6
p1610
I1
sVd5ysl9o
p1611
I1
sVdox2svj
p1612
I1
sVd1yotjs
p1613
I3
sVd91f7jr
p1614
I1
sVdaph7go
p1615
I1
sVd7hc21d
p1616
I1
sVdrzzi9r
p1617
I1
sVd7uc4k5
p1618
I1
sVdi7x46z
p1619
I1
sVd8z42vr
p1620
I2
sVdgio3aj
p1621
I1
sVd1zgs73
p1622
I2
sVdgtba8l
p1623
I1
sVd2si9rr
p1624
I1
sVdc794ob
p1625
I1
sVdaxcdah
p1626
I1
sVdoh5dvs
p1627
I1
sVd316jwr
p1628
I1
sVd0b5gik
p1629
I1
sVdi0hyrz
p1630
I2
sVdczotzh
p1631
I1
sVddr4i4q
p1632
I1
sVdcu40wp
p1633
I1
sVddj7tdm
p1634
I6
sVdegc0kx
p1635
I2
sVd06y1rs
p1636
I1
sVd5v1ghx
p1637
I1
sVdnklter
p1638
I1
sVd0ncd5l
p1639
I1
sVdi6xdft
p1640
I1
sVd5ns6zp
p1641
I1
sVd7seew9
p1642
I1
sVdb00r3o
p1643
I1
sVdtigut0
p1644
I2
sVdbxyabc
p1645
I1
sVdbg5m7s
p1646
I1
sVd7h9pkd
p1647
I2
sVd66b3op
p1648
I1
sVd1br7r3
p1649
I1
sVdcza3jt
p1650
I1
sVdejz9bs
p1651
I2
sVd4doy1m
p1652
I1
sVdiatmyu
p1653
I1
sVd8ql19v
p1654
I1
sVcymvupa
p1655
I1
sVdbfitx5
p1656
I1
sVd5bbsvf
p1657
I1
sVdsbhsa7
p1658
I1
sVd1qceua
p1659
I1
sVd3y5z50
p1660
I2
sVdi6ah07
p1661
I1
sVdnmao8p
p1662
I1
sVdoxjst9
p1663
I1
sVcz9sxrx
p1664
I1
sVdfot46j
p1665
I1
sVd65ws01
p1666
I1
sVd71ouob
p1667
I1
sVd2yxix6
p1668
I3
sVddocuyu
p1669
I1
sVdg91oov
p1670
I2
sVczr37ie
p1671
I1
sVd4i4eei
p1672
I1
sVdklrjca
p1673
I1
sVdt0facp
p1674
I1
sVdbxhnld
p1675
I1
sVdh0nojj
p1676
I1
sVdg7ysh2
p1677
I1
sVd6qbirp
p1678
I1
sVdpqrar7
p1679
I1
sVd2lut0o
p1680
I1
sVcywgzcq
p1681
I1
sVd3an2f8
p1682
I1
sVdgubrwf
p1683
I1
sVdhtby8s
p1684
I1
sVd1ci0z6
p1685
I1
sVd7pmqk0
p1686
I1
sVdkfl8pc
p1687
I1
sVd6d9t7g
p1688
I1
sVdgf5eis
p1689
I1
sVd8967d0
p1690
I1
sVdn7bab7
p1691
I1
sVd6obu5o
p1692
I2
sVdbznsmv
p1693
I1
sVd1isnjm
p1694
I1
sVd0jdgjf
p1695
I1
sVdg1qg9q
p1696
I1
sVd3h0lb0
p1697
I1
sVcztdjpq
p1698
I1
sVcyozymb
p1699
I2
sVdkwou3m
p1700
I1
sVd3dfx41
p1701
I1
sVdcf3ojp
p1702
I1
sVdggu51k
p1703
I1
sVd63ik39
p1704
I1
sVdkwkjrg
p1705
I1
sVdbxllel
p1706
I1
sVd98unm1
p1707
I1
sVdi2p4tf
p1708
I1
sVdpj622r
p1709
I1
sVdaym9xi
p1710
I1
sVdb7cqlj
p1711
I1
sVdazwso5
p1712
I1
sVd33ezg5
p1713
I1
sVd5bf4hs
p1714
I6
sVd3nl1gz
p1715
I1
sVd5b9fyw
p1716
I1
sVd30p2xe
p1717
I1
sVdiq7qte
p1718
I1
sVczlgo8c
p1719
I1
sVd5xzvgo
p1720
I1
sVd5a708e
p1721
I1
sVd8gof4l
p1722
I1
sVd936wge
p1723
I1
sVd6ln4mn
p1724
I2
sVd4nvnm3
p1725
I1
sVdij5x05
p1726
I1
sVd1az4gc
p1727
I1
sVdc4c4o8
p1728
I1
sVd6m9ruw
p1729
I1
sVd0acyxv
p1730
I1
sVdc4ml7o
p1731
I1
sVdcv0t0c
p1732
I1
sVdn86nqk
p1733
I1
sVd2yy6sa
p1734
I1
sVd0lpi2r
p1735
I1
sVdpwlcfk
p1736
I1
sVd30z5l7
p1737
I1
sVdab2k4w
p1738
I2
sVd9wwr67
p1739
I1
sVd69ikmc
p1740
I1
sVcznun9n
p1741
I1
sVd1q7lwh
p1742
I1
sVdsvm97i
p1743
I1
sVdrkr2lp
p1744
I1
sVd4zj8la
p1745
I1
sVd9w9ixu
p1746
I3
sVd1flqv0
p1747
I1
sVdh066in
p1748
I1
sVdp18rus
p1749
I1
sVdfhlios
p1750
I2
sVd3mvvru
p1751
I1
sVddrj123
p1752
I1
sVd7ahdil
p1753
I1
sVdkqx7j7
p1754
I1
sVdgkkio2
p1755
I1
sVddjlj3l
p1756
I1
sVddjdbjr
p1757
I1
sVdhted0t
p1758
I1
sVdoh6h9h
p1759
I1
sVdgtvrpz
p1760
I1
sVd5h0xk3
p1761
I1
sVdcvmikh
p1762
I1
sVd2gk0nf
p1763
I1
sVd0b9x9l
p1764
I1
sVdkn8gmz
p1765
I1
sVdaxawd7
p1766
I2
sVd3zw7bm
p1767
I1
sVdmon2zi
p1768
I1
sVd367dff
p1769
I1
sVd2l5fhz
p1770
I1
sVdrmmp5c
p1771
I1
sVd2xo9v2
p1772
I1
sVdrmr6ge
p1773
I1
sVdnrclgv
p1774
I1
sVdf1fi4s
p1775
I1
sVde3zo74
p1776
I1
sVddghgq5
p1777
I1
sVdtbwazg
p1778
I1
sVd0ypstx
p1779
I1
sVddxwm2y
p1780
I1
sVdhjt444
p1781
I1
sVd054ql4
p1782
I1
sVdkv3e5r
p1783
I1
sVd5ok66p
p1784
I1
sVdgq8w0v
p1785
I1
sVdach95t
p1786
I1
sVd9db7yh
p1787
I1
sVd2zbdb7
p1788
I1
sVd8eqwes
p1789
I1
sVdnq8k9c
p1790
I1
sVd1cmw8w
p1791
I1
sVd0uh9jo
p1792
I1
sVd2sd75t
p1793
I1
sVdcxty5d
p1794
I1
sVdn05ieq
p1795
I2
sVcyqwtkc
p1796
I1
sVdr3b6k2
p1797
I1
sVdktb6my
p1798
I1
sVd41c13v
p1799
I1
sVd4r8ke0
p1800
I1
sVd37tq94
p1801
I1
sVcynshou
p1802
I1
sVdho01fm
p1803
I2
sVdegvozp
p1804
I1
sVdfywufd
p1805
I1
sVda80odd
p1806
I1
sVd7j8fko
p1807
I1
sVdi5mwc2
p1808
I1
sVde3etnm
p1809
I1
sVd2huggg
p1810
I1
sVdayy3nj
p1811
I1
sVdkemlah
p1812
I2
sVdmowfml
p1813
I1
sVdgq2ns1
p1814
I1
sVddcq7ak
p1815
I1
sVd2az1xy
p1816
I1
sVdi4kdcb
p1817
I1
sVcz9wks8
p1818
I1
sVczo7v99
p1819
I1
sVd2wtreo
p1820
I1
sVdfaavig
p1821
I1
sVd59dgr9
p1822
I1
sVdccmtgo
p1823
I3
sVde2k86b
p1824
I1
sVdnptca7
p1825
I1
sVdbpxmph
p1826
I1
sVdg60jjb
p1827
I1
sVdh50hq4
p1828
I1
sVdeejs68
p1829
I1
sVd239n3b
p1830
I1
sVdbdd3fx
p1831
I5
sVd4ulq2c
p1832
I1
sVdkica55
p1833
I6
sVdmerits
p1834
I1
sVd6z3otl
p1835
I1
sVd8p1enx
p1836
I1
sVdfdhtkm
p1837
I1
sVdgtf3o1
p1838
I1
sVdag8196
p1839
I2
sVdp92ep5
p1840
I1
sVdj5qu4q
p1841
I1
sVddkzlk8
p1842
I1
sVd6dkcfg
p1843
I5
sVd7fulky
p1844
I1
sVdbr989e
p1845
I1
sVczi9gxo
p1846
I1
sVdomeu0g
p1847
I1
sVd6by6u5
p1848
I1
sVd8br5rj
p1849
I1
sVcyopdf2
p1850
I1
sVdi00e8a
p1851
I1
sVdtiazae
p1852
I1
sVd3li7mk
p1853
I1
sVd9mm9xx
p1854
I1
sVd9xspyz
p1855
I2
sVde2ipxx
p1856
I2
sVd2kei08
p1857
I3
sVd3uglrj
p1858
I1
sVdh9x71u
p1859
I1
sVd57bcn9
p1860
I1
sVdh05jkm
p1861
I1
sVdhg8hva
p1862
I1
sVd9ipfp9
p1863
I2
sVdkfca5h
p1864
I1
sVd60t8i4
p1865
I1
sVd4trr98
p1866
I2
sVdfi60im
p1867
I2
sVdeym8ho
p1868
I1
sVd8b1omv
p1869
I1
sVdevmqa5
p1870
I1
sVczcpfuc
p1871
I1
sVd8br38v
p1872
I1
sVd563ss8
p1873
I1
sVd4h3o82
p1874
I1
sVd9ry115
p1875
I1
sVdabl92n
p1876
I1
sVdfij468
p1877
I1
sVd6dbt85
p1878
I1
sVczatqog
p1879
I1
sVd5mm5h6
p1880
I2
sVd0dn0v9
p1881
I1
sVd97cy9c
p1882
I1
sVddgk3yr
p1883
I1
sVd88fv11
p1884
I1
sVd80diu9
p1885
I1
sVdjssdmo
p1886
I1
sVd8hu6xg
p1887
I1
sVd2jv0ib
p1888
I2
sVdej0hvr
p1889
I1
sVds4pel5
p1890
I1
sVdefakso
p1891
I1
sVdphgca8
p1892
I1
sVdn3nq06
p1893
I1
sVdfefvrq
p1894
I2
sVd5581mu
p1895
I1
sVdf69nxz
p1896
I1
sVd7szwbb
p1897
I1
sVdh381uc
p1898
I1
sVdjy2l7t
p1899
I1
sVdda60xo
p1900
I1
sVdgt3ml1
p1901
I2
sVd29rqo4
p1902
I1
sVdcy3jl3
p1903
I1
sVcyuercp
p1904
I1
sVdmxgg5x
p1905
I2
sVd9r3s32
p1906
I1
sVdopfqjw
p1907
I1
sVdt5nqow
p1908
I1
sVdj2lksj
p1909
I1
sVdhzpjnh
p1910
I2
sVdj4u742
p1911
I1
sVdckxjsl
p1912
I1
sVd0f4kr3
p1913
I1
sVdil74sa
p1914
I1
sVdep71iz
p1915
I1
sVd5d1i5u
p1916
I1
sVd9ib90c
p1917
I1
sVd1adoxr
p1918
I1
sVdjxr1sz
p1919
I1
sVd8322gf
p1920
I2
sVcz1n3m9
p1921
I1
sVd06h1ar
p1922
I1
sVd33nyxz
p1923
I1
sVdafz4vl
p1924
I3
sVdenujte
p1925
I1
sVdd13nty
p1926
I1
sVd6q33vq
p1927
I1
sVd33q3ej
p1928
I1
sVdk6pikn
p1929
I1
sVdivqzf9
p1930
I1
sVdg5ifmd
p1931
I1
sVdehb3xi
p1932
I1
sVd3ntw26
p1933
I1
sVd62jef2
p1934
I1
sVd6gbo5g
p1935
I2
sVd8o2gg6
p1936
I1
sVdekguy3
p1937
I2
sVcyw05ct
p1938
I1
sVd73owhy
p1939
I1
sVdidro82
p1940
I1
sVdr2bl08
p1941
I1
sVdciqmey
p1942
I1
sVdcc8j5o
p1943
I1
sVdgjyyjj
p1944
I1
sVd1thpq6
p1945
I1
sVdr7oat7
p1946
I1
sVdfzy8sg
p1947
I1
sVd7am4it
p1948
I1
sVdn1sqo0
p1949
I2
sVd6nz6dt
p1950
I1
sVd2bxet8
p1951
I1
sVd1kr7na
p1952
I1
sVdbjrw4c
p1953
I1
sVdcr5n2r
p1954
I3
sVdi2pait
p1955
I1
sVd79a7ui
p1956
I1
sVdmjqegj
p1957
I1
sVdnklrme
p1958
I2
sVdprkzut
p1959
I1
sVdc18yxi
p1960
I1
sVd5ciqnr
p1961
I1
sVd9wu792
p1962
I1
sVdti4zhw
p1963
I1
sVdkur517
p1964
I1
sVd8gqaka
p1965
I1
sVdcztc6j
p1966
I1
sVd7lgdxi
p1967
I1
sVdrnsyrh
p1968
I1
sVdjbgmui
p1969
I1
sVd9u1sxm
p1970
I1
sVd9n7fyj
p1971
I1
sVd1vikp0
p1972
I1
sVd74neq3
p1973
I1
sVdqo45c8
p1974
I1
sVdcwhstb
p1975
I1
sVdgo00j3
p1976
I1
sVd36pg43
p1977
I1
sVdoccz0i
p1978
I1
sVd82pxno
p1979
I1
sVdoj8bht
p1980
I1
sVd0upupt
p1981
I2
sVd8grjtd
p1982
I1
sVd0rqedr
p1983
I1
sVd3r40k4
p1984
I1
sVd8xdg3m
p1985
I1
sVdhrhmbr
p1986
I2
sVdejny0d
p1987
I1
sVdam1gwi
p1988
I1
sVdt2omlw
p1989
I1
sVd5d1r3n
p1990
I1
sVd1m4yv5
p1991
I1
sVdd6jy2c
p1992
I1
sVd07db9u
p1993
I1
sVd1p99qa
p1994
I1
sVcypjvo7
p1995
I1
sVd19c18t
p1996
I1
sVdassp1l
p1997
I1
sVd6ama9s
p1998
I1
sVdgxlo46
p1999
I2
sVcztxl8f
p2000
I1
sVd1o33g4
p2001
I1
sVd52tdom
p2002
I1
sVdp49w90
p2003
I1
sVd1j2m1o
p2004
I2
sVdfsy1uf
p2005
I1
sVdip6jdz
p2006
I1
sVd5129sh
p2007
I1
sVd5tib4v
p2008
I1
sVd933fcf
p2009
I1
sVdrzzrh3
p2010
I1
sVdaxkxr7
p2011
I1
sVdnwhxrt
p2012
I2
sVddc1bj4
p2013
I1
sVd45459n
p2014
I1
sVd5erc5t
p2015
I1
sVdqqefsp
p2016
I1
sVdtg0n1q
p2017
I1
sVd85nvu0
p2018
I1
sVdd0b1ie
p2019
I1
sVdku8rmn
p2020
I1
sVd27dg1w
p2021
I1
sVdihytpd
p2022
I1
sVd4mhj6o
p2023
I1
sVd5gpa5o
p2024
I1
sVdmh42lz
p2025
I1
sVd61nmf7
p2026
I1
sVd0gbi2i
p2027
I1
sVd6rxyjp
p2028
I1
sVcyigf45
p2029
I2
sVdejik26
p2030
I2
sVd5hpfdg
p2031
I3
sVd01onut
p2032
I1
sVd5kqw6x
p2033
I1
sVdtgqksl
p2034
I1
sVd8p66p3
p2035
I1
sVdksddrb
p2036
I1
sVd94m2q7
p2037
I1
sVdbcy03x
p2038
I1
sVd0zklz3
p2039
I2
sVdivrahw
p2040
I1
sVdn8wfhp
p2041
I1
sVd0szmoj
p2042
I1
sVd3exnas
p2043
I1
sVdb897s6
p2044
I1
sVdf9fll9
p2045
I1
sVdnxx0vs
p2046
I1
sVd48uvqc
p2047
I1
sVd85num3
p2048
I1
sVd2ex91s
p2049
I1
sVddutvlr
p2050
I1
sVd62qwcy
p2051
I1
sVdegqsqa
p2052
I1
sVd38moae
p2053
I1
sVd39jhhx
p2054
I1
sVcywchmq
p2055
I1
sVd8se8gc
p2056
I1
sVdd5p99x
p2057
I1
sVdema0jx
p2058
I1
sVd01yqr8
p2059
I1
sVd8eqhmz
p2060
I3
sVdo5nbbw
p2061
I1
sVdp6phuo
p2062
I1
sVdnkubfp
p2063
I1
sVdc15inr
p2064
I1
sVdja4pms
p2065
I1
sVd84g6fe
p2066
I2
sVdd437pm
p2067
I1
sVd4ivqgj
p2068
I1
sVd5x94m6
p2069
I1
sVd2zhj6m
p2070
I1
sVczz0ws9
p2071
I2
sVdhgbjiw
p2072
I1
sVdab5kkz
p2073
I6
sVdh0p2o6
p2074
I1
sVd71jnr9
p2075
I2
sVdfib76i
p2076
I1
sVdbi5d78
p2077
I1
sVd34fgcu
p2078
I1
sVd55jonr
p2079
I1
sVdfrf357
p2080
I1
sVd9r9qlt
p2081
I1
sVdbncp1m
p2082
I1
sVdgqt3f4
p2083
I1
sVdd0nk35
p2084
I1
sVd4w4f41
p2085
I1
sVd2g7wpx
p2086
I1
sVd331ts6
p2087
I1
sVd3kxo30
p2088
I1
sVcyvqle4
p2089
I3
sVdqbbo9y
p2090
I1
sVd125cev
p2091
I1
sVd8eprs5
p2092
I2
sVd4zscpe
p2093
I1
sVd0p9fs0
p2094
I1
sVd57awsd
p2095
I2
sVdecmwwd
p2096
I1
sVd0mvnid
p2097
I1
sVdh8903g
p2098
I2
sVcyo2a0p
p2099
I1
sVdh1px6x
p2100
I1
sVd6dcipk
p2101
I2
sVd82mrj5
p2102
I2
sVddu143d
p2103
I1
sVd05kfm0
p2104
I5
sVd6dfi46
p2105
I1
sVd5arko9
p2106
I1
sVde0i45t
p2107
I1
sVdjmred1
p2108
I1
sVd3lrpkr
p2109
I1
sVdf074r2
p2110
I1
sVdfzsmfi
p2111
I1
sVda9akoi
p2112
I1
sVdfh1enx
p2113
I1
sVd54dfgz
p2114
I3
sVdcpkune
p2115
I1
sVd1ebv0x
p2116
I1
sVdmvlhfi
p2117
I1
sVde66kub
p2118
I1
sVd82pto0
p2119
I1
sVdbigc2k
p2120
I1
sVdd6zhp5
p2121
I1
sVdpmwimt
p2122
I1
sVdf8m61i
p2123
I1
s.