(dp0
Vdccc1o4
p1
I1
sVdgupv8l
p2
I1
sVdaphxgb
p3
I1
sVdb51uwo
p4
I1
sVdgmom64
p5
I1
sVdesumvc
p6
I1
sVdiszoqu
p7
I1
sVcyigdtr
p8
I1
sVd1jeskg
p9
I2
sVdabkpqe
p10
I1
sVd1j8tp9
p11
I1
sVdch9s8v
p12
I1
sVd2sq2ss
p13
I1
sVdr323q9
p14
I1
sVdasbjnn
p15
I2
sVd3vxoz3
p16
I1
sVdjscqm0
p17
I1
sVdbdh5d4
p18
I2
sVd5t12fq
p19
I1
sVdeog40a
p20
I1
sVd3r5344
p21
I1
sVdnyjyis
p22
I1
sVdpcn07k
p23
I1
sVd0aa0nu
p24
I1
sVdr5ahgu
p25
I1
sVcykitxg
p26
I1
sVdecw5qy
p27
I1
sVd0aohmn
p28
I1
sVde6s8rl
p29
I1
sVd971kn5
p30
I1
sVd9fv36u
p31
I1
sVd7c0put
p32
I1
sVd3wu2ze
p33
I1
sVdcub3qw
p34
I1
sVdj22ju6
p35
I1
sVdnu81v7
p36
I1
sVd4hmxmd
p37
I1
sVd6d1zzs
p38
I1
sVczyvibv
p39
I1
sVdhn2nf9
p40
I3
sVd0m77vg
p41
I1
sVd89zllg
p42
I1
sVd5yhhg7
p43
I1
sVdeumw89
p44
I1
sVdcq5s2w
p45
I1
sVde2pkn1
p46
I1
sVdbec12f
p47
I1
sVd8rwvqx
p48
I1
sVczkz3so
p49
I1
sVd5t4f7p
p50
I1
sVd1aafli
p51
I1
sVd5erc5t
p52
I1
sVd15vgyb
p53
I1
sVdful8b9
p54
I1
sVdqlba2d
p55
I1
sVdha08jf
p56
I1
sVdj2s9bx
p57
I1
sVdpepsg3
p58
I1
sVdsplteu
p59
I1
sVdr0oxdr
p60
I1
sVdg5yl5v
p61
I1
sVdbg9r3v
p62
I1
sVdqbykif
p63
I2
sVdkokpja
p64
I3
sVdpsa44e
p65
I1
sVczto6h0
p66
I1
sVd63x5dk
p67
I2
sVd0h0lvl
p68
I1
sVdswfer2
p69
I1
sVcz7nusc
p70
I1
sVdf6l257
p71
I1
sVd6c3xsu
p72
I1
sVdfx977h
p73
I1
sVdnsz382
p74
I1
sVd885se2
p75
I1
sVdrz63q2
p76
I1
sVdt86iu4
p77
I2
sVd23nofl
p78
I1
sVd3ghpev
p79
I1
sVdb5c45a
p80
I2
sVdiff4xt
p81
I1
sVdfvuwyw
p82
I1
sVdey6zif
p83
I1
sVd8s3s0p
p84
I1
sVdogdksa
p85
I1
sVdqfk98l
p86
I1
sVd4929nu
p87
I1
sVdc6o284
p88
I1
sVcz44cub
p89
I1
sVdhifush
p90
I1
sVddajsr8
p91
I1
sVde45r6w
p92
I1
sVdk60zoj
p93
I1
sVdrfk6zl
p94
I1
sVczvvc69
p95
I1
sVd0gpizf
p96
I1
sVddbf2cr
p97
I1
sVdgrfa88
p98
I1
sVd6ib1qd
p99
I1
sVdpw7h2m
p100
I1
sVczs7pix
p101
I1
sVd8z85bg
p102
I1
sVdi1ya1v
p103
I1
sVd4k1a33
p104
I1
sVczrl8ns
p105
I1
sVd3bflir
p106
I1
sVdsn18ls
p107
I1
sVdpjaqa5
p108
I1
sVdmlvvfe
p109
I1
sVd2fsw0r
p110
I1
sVdf5o7t6
p111
I1
sVdo1miya
p112
I2
sVdb4p4rx
p113
I1
sVdjx61mx
p114
I1
sVdqlb04f
p115
I1
sVdeac25x
p116
I2
sVdgi0qoh
p117
I1
sVdr4skx3
p118
I1
sVdr3fva4
p119
I1
sVd92rvft
p120
I1
sVd3exnas
p121
I1
sVczrcuya
p122
I1
sVd8rt0mv
p123
I1
sVd3b4rvi
p124
I1
sVddup7w3
p125
I1
sVdj22ixm
p126
I1
sVd8a5l6q
p127
I1
sVd1473ub
p128
I1
sVdnojxpg
p129
I1
sVd6bmghb
p130
I1
sVd4uf2af
p131
I1
sVdqjdpti
p132
I1
sVdcizvhn
p133
I1
sVdjb33w6
p134
I1
sVd2vx160
p135
I1
sVdd58sd0
p136
I1
sVdd2qgyl
p137
I1
sVd18yn6x
p138
I1
sVd85wcll
p139
I1
sVd4i4eei
p140
I1
sVdbrdamz
p141
I1
sVd2nfdl5
p142
I1
sVdeo707z
p143
I1
sVdj4ztp2
p144
I1
sVdaz920e
p145
I1
sVd7rilzo
p146
I1
sVczryp7t
p147
I1
sVdg5uq4v
p148
I1
sVd9l2pqi
p149
I1
sVd6o5tcv
p150
I1
sVd934c0o
p151
I2
sVd2b6l5w
p152
I1
sVdil8r6q
p153
I1
sVd1965n8
p154
I1
sVd278c5s
p155
I1
sVd4lzbx3
p156
I1
sVds4z8xb
p157
I1
sVdketdxr
p158
I1
sVdh0x24e
p159
I1
sVdfjgt31
p160
I1
sVczk2rp2
p161
I1
sVd2auf3d
p162
I1
sVd3apyic
p163
I1
sVcz9wdco
p164
I1
sVd99f1xs
p165
I1
sVdi2ln07
p166
I1
sVd92gkh1
p167
I1
sVd0zw1z0
p168
I1
sVd1phwls
p169
I1
sVdf9ajgy
p170
I1
sVdext0r2
p171
I1
sVd4ei0zn
p172
I1
sVdt9tijj
p173
I1
sVdixc81r
p174
I1
sVd3nfuau
p175
I1
sVdt0kp8e
p176
I1
sVdcc1ymd
p177
I1
sVdk7x6bk
p178
I1
sVd8k2pkd
p179
I1
sVds004o3
p180
I1
sVdmj1zix
p181
I1
sVd16wcsn
p182
I1
sVdo5e3le
p183
I1
sVd83w46h
p184
I1
sVdk98vr3
p185
I1
sVdbgmndc
p186
I1
sVdj601nh
p187
I1
sVdio8ffn
p188
I1
sVdjuaydw
p189
I1
sVdiiu0xm
p190
I1
sVcz97naw
p191
I1
sVdcxty5d
p192
I1
sVd729auf
p193
I1
sVdmgk1oz
p194
I1
sVdjotz5n
p195
I1
sVd5j8kdn
p196
I1
sVda3jy6k
p197
I1
sVd6g33hc
p198
I1
sVd28l3x0
p199
I1
sVdh2y2o5
p200
I1
sVdf6ef3v
p201
I1
sVd9o9s5b
p202
I1
sVd4jfsi6
p203
I1
sVd6d23sm
p204
I1
sVd6c57de
p205
I1
sVdpwdkp6
p206
I1
sVdhr2v1x
p207
I1
sVdiszukj
p208
I1
sVczox3uq
p209
I3
sVdem2ua5
p210
I1
sVd0km0dy
p211
I1
sVdin8nja
p212
I1
sVd9d93j7
p213
I1
sVdj629d5
p214
I1
sVd1wnvhe
p215
I2
sVczq37o7
p216
I1
sVd1vtv0f
p217
I1
sVdgzc504
p218
I1
sVd7ufufn
p219
I1
sVd5lxznr
p220
I1
sVd02oj2h
p221
I1
sVddbyfhv
p222
I1
sVdewsmtx
p223
I1
sVdt2qrsu
p224
I1
sVdby3z6l
p225
I1
sVdjlo64l
p226
I1
sVd5shzja
p227
I1
sVcysdnr7
p228
I1
sVdbfe1b7
p229
I1
sVdfznv05
p230
I1
sVdbqauqm
p231
I1
sVdp7izd1
p232
I1
sVdr0t97s
p233
I1
sVd275wtq
p234
I1
sVd012mw8
p235
I1
sVcyn0je9
p236
I1
sVda0r0do
p237
I1
sVd40tinw
p238
I1
sVd1yh4l5
p239
I1
sVdctrnz2
p240
I1
sVdbftqc5
p241
I1
sVdjqh1k1
p242
I1
sVd1j5idy
p243
I1
sVd37o7p5
p244
I1
sVd0kmmuk
p245
I1
sVdfvy03u
p246
I1
sVdeejs68
p247
I1
sVdbkw50h
p248
I1
sVd8p14rn
p249
I1
sVdq8pz9n
p250
I1
sVdpxfbpf
p251
I1
sVdekwuhi
p252
I1
sVd2ig2qe
p253
I1
sVdjhg8r9
p254
I1
sVd5ew298
p255
I1
sVd4ur89s
p256
I1
sVd3m9ktj
p257
I1
sVd65hli1
p258
I1
sVd5581fm
p259
I1
sVdc9jisu
p260
I1
sVd7m290r
p261
I1
sVdqjsrk4
p262
I1
sVdied7bt
p263
I1
sVd319ujh
p264
I1
sVd4hui6w
p265
I1
sVdcfkvrk
p266
I1
sVd19k037
p267
I1
sVd3h0paj
p268
I1
sVdqzsrez
p269
I1
sVddd7fdt
p270
I1
sVd9vbwgl
p271
I1
sVd0b8tlr
p272
I1
sVdo0hxv6
p273
I1
sVd0zbidt
p274
I1
sVdi11w5k
p275
I1
sVddlos7e
p276
I1
sVdny54j6
p277
I1
sVd2698ht
p278
I1
sVd0hhn5h
p279
I1
sVdqcaoeu
p280
I1
sVdcpp8wv
p281
I1
sVdedvxp3
p282
I1
sVddg4u7v
p283
I1
sVdexfm1u
p284
I1
sVdpwwd6u
p285
I1
sVdhwvoac
p286
I1
sVd88eyfm
p287
I1
sVdgng8kn
p288
I1
sVd30z5l7
p289
I1
sVd4sx7gc
p290
I1
sVd17npug
p291
I1
sVd0n2fts
p292
I1
sVdenncqp
p293
I1
sVdd3w0xx
p294
I1
sVddo25db
p295
I1
sVd3mtiwv
p296
I1
sVdt7cyj7
p297
I1
sVd340dv0
p298
I1
sVd7vch00
p299
I1
sVddy42j4
p300
I1
sVd2yn0a2
p301
I1
sVdpatszc
p302
I1
sVd5lvcs0
p303
I1
sVdk7d0zl
p304
I1
sVczmz6ma
p305
I1
sVd08pjdr
p306
I1
sVdjgljji
p307
I1
sVdhts8sv
p308
I1
sVdrbw8uc
p309
I1
sVdn82osb
p310
I1
sVd5kk882
p311
I1
sVdknp9oj
p312
I1
sVdkvhhv1
p313
I1
sVdkdzyms
p314
I1
sVd99fb2v
p315
I2
sVcykdy7p
p316
I1
sVdcf3ojp
p317
I1
sVd0cwysg
p318
I2
sVdg5vfoi
p319
I2
sVd1a6gzz
p320
I1
sVd7fbzf5
p321
I1
s.