(dp0
Vcysm44t
p1
I1
s.(dp0
Vcythemq
p1
I1
sVcysm44t
p2
I1
s.(dp0
Vcyustri
p1
I1
sVcysm44t
p2
I1
s.(dp0
Vcyusvjw
p1
I1
sVcysm44t
p2
I1
s.(dp0
Vcz3feeb
p1
I1
sVcysm44t
p2
I1
s.(dp0
Vcz5tlet
p1
I1
sVcysm44t
p2
I1
s.(dp0
Vcz77njc
p1
I1
sVcysm44t
p2
I1
s.(dp0
Vcz782ha
p1
I1
sVcysm44t
p2
I1
s.(dp0
Vczcibzm
p1
I1
sVcysm44t
p2
I1
s.(dp0
Vczdrt69
p1
I1
sVcysm44t
p2
I1
s.(dp0
Vczdrt69
p1
I1
sVcysm44t
p2
I1
s.(dp0
Vczgk58q
p1
I1
sVcysm44t
p2
I1
s.(dp0
Vczh2hvb
p1
I1
sVcysm44t
p2
I1
s.(dp0
Vczhnd9n
p1
I1
sVcysm44t
p2
I1
s.(dp0
Vczjkkw0
p1
I1
sVcysm44t
p2
I1
s.(dp0
Vcztv25e
p1
I1
sVcysm44t
p2
I1
s.(dp0
Vcztyce7
p1
I1
sVcysm44t
p2
I1
s.(dp0
Vcztyce7
p1
I1
sVcysm44t
p2
I1
s.(dp0
Vd00g5om
p1
I1
sVcysm44t
p2
I1
s.(dp0
Vd02kuur
p1
I1
sVcysm44t
p2
I1
s.(dp0
Vd02wrfn
p1
I1
sVcysm44t
p2
I1
s.(dp0
Vd09slir
p1
I1
sVcysm44t
p2
I1
s.(dp0
Vd0w98cp
p1
I1
sVcysm44t
p2
I1
s.(dp0
Vd0yjor4
p1
I1
sVcysm44t
p2
I1
s.(dp0
Vd0z8x5e
p1
I1
sVcysm44t
p2
I1
s.(dp0
Vd11y33l
p1
I1
sVcysm44t
p2
I1
s.(dp0
Vd18rj6o
p1
I1
sVcysm44t
p2
I1
s.(dp0
Vd1ajk4n
p1
I1
sVcysm44t
p2
I1
s.(dp0
Vd1xdyp5
p1
I1
sVcysm44t
p2
I1
s.(dp0
Vd1zqtdg
p1
I1
sVcysm44t
p2
I1
s.(dp0
Vd26hqwz
p1
I1
sVcysm44t
p2
I1
s.(dp0
Vd2ejkas
p1
I1
sVcysm44t
p2
I1
s.(dp0
Vd2rjaac
p1
I1
sVcysm44t
p2
I1
s.(dp0
Vd32qrx4
p1
I1
sVcysm44t
p2
I1
s.(dp0
Vd34ngjp
p1
I1
sVcysm44t
p2
I1
s.(dp0
Vd34oyqn
p1
I1
sVcysm44t
p2
I1
s.(dp0
Vd34oyqn
p1
I1
sVcysm44t
p2
I1
s.(dp0
Vd34oyqn
p1
I1
sVcysm44t
p2
I1
s.(dp0
Vd35f5kp
p1
I1
sVcysm44t
p2
I1
s.(dp0
Vd378813
p1
I1
sVcysm44t
p2
I1
s.(dp0
Vd37mge1
p1
I1
sVcysm44t
p2
I1
s.(dp0
Vd3bw2qr
p1
I1
sVcysm44t
p2
I1
s.(dp0
Vd3c07rn
p1
I1
sVcysm44t
p2
I1
s.(dp0
Vd3nbkvt
p1
I1
sVcysm44t
p2
I1
s.(dp0
Vd4465wo
p1
I1
sVcysm44t
p2
I1
s.(dp0
Vd45bqvw
p1
I1
sVcysm44t
p2
I1
s.(dp0
Vd4bcxbb
p1
I1
sVcysm44t
p2
I1
s.(dp0
Vd4mgurs
p1
I1
sVcysm44t
p2
I1
s.(dp0
Vd4rzmbi
p1
I1
sVcysm44t
p2
I1
s.(dp0
Vd51fro2
p1
I1
sVcysm44t
p2
I1
s.(dp0
Vd5d47kb
p1
I1
sVcysm44t
p2
I1
s.(dp0
Vd5wm564
p1
I1
sVcysm44t
p2
I1
s.(dp0
Vd6tblaj
p1
I1
sVcysm44t
p2
I1
s.(dp0
Vd6tcr6j
p1
I1
sVcysm44t
p2
I1
s.(dp0
Vd6tcr6j
p1
I1
sVcysm44t
p2
I1
s.(dp0
Vd7yl360
p1
I1
sVcysm44t
p2
I1
s.(dp0
Vd89h4e1
p1
I1
sVcysm44t
p2
I1
s.(dp0
Vd8mlhrx
p1
I1
sVcysm44t
p2
I1
s.(dp0
Vd8pzzpq
p1
I1
sVcysm44t
p2
I1
s.(dp0
Vd8u6im2
p1
I1
sVcysm44t
p2
I1
s.(dp0
Vd8u6im2
p1
I1
sVcysm44t
p2
I1
s.(dp0
Vdakp705
p1
I1
sVcysm44t
p2
I1
s.(dp0
Vdamqh35
p1
I1
sVcysm44t
p2
I1
s.(dp0
Vdb72fiz
p1
I1
sVcysm44t
p2
I1
s.(dp0
Vdbaa2t1
p1
I1
sVcysm44t
p2
I1
s.(dp0
Vdbaa2t1
p1
I1
sVcysm44t
p2
I1
s.(dp0
Vdbfuhll
p1
I1
sVcysm44t
p2
I1
s.(dp0
Vdbgmhgh
p1
I1
sVcysm44t
p2
I1
s.(dp0
Vdbklfg0
p1
I1
sVcysm44t
p2
I1
s.(dp0
Vdc4uhft
p1
I1
sVcysm44t
p2
I1
s.(dp0
Vdc6dnab
p1
I1
sVcysm44t
p2
I1
s.(dp0
Vdc827ro
p1
I1
sVcysm44t
p2
I1
s.(dp0
Vdc9c3b4
p1
I1
sVcysm44t
p2
I1
s.(dp0
Vdc9j1tp
p1
I1
sVcysm44t
p2
I1
s.(dp0
Vdcezi72
p1
I1
sVcysm44t
p2
I1
s.(dp0
Vdckmczx
p1
I1
sVcysm44t
p2
I1
s.(dp0
Vdcxr1ib
p1
I1
sVcysm44t
p2
I1
s.(dp0
Vdd5j28e
p1
I1
sVcysm44t
p2
I1
s.(dp0
Vddupkie
p1
I1
sVcysm44t
p2
I1
s.(dp0
Vddw21ep
p1
I1
sVcysm44t
p2
I1
s.(dp0
Vddxesnb
p1
I1
sVcysm44t
p2
I1
s.(dp0
Vdegml58
p1
I1
sVcysm44t
p2
I1
s.(dp0
Vdepmjc7
p1
I1
sVcysm44t
p2
I1
s.(dp0
Vderskac
p1
I1
sVcysm44t
p2
I1
s.(dp0
Vdeus5d7
p1
I1
sVcysm44t
p2
I1
s.(dp0
Vdf023cd
p1
I1
sVcysm44t
p2
I1
s.(dp0
Vdfjqb2v
p1
I1
sVcysm44t
p2
I1
s.(dp0
Vdflwmhi
p1
I1
sVcysm44t
p2
I1
s.(dp0
Vdfo5tbt
p1
I1
sVcysm44t
p2
I1
s.(dp0
Vdfym7yk
p1
I1
sVcysm44t
p2
I1
s.(dp0
Vdg0rtai
p1
I1
sVcysm44t
p2
I1
s.(dp0
Vdg0rze2
p1
I1
sVcysm44t
p2
I1
s.(dp0
Vdg12k1v
p1
I1
sVcysm44t
p2
I1
s.(dp0
Vdg9rf7s
p1
I1
sVcysm44t
p2
I1
s.(dp0
Vdggqt4f
p1
I1
sVcysm44t
p2
I1
s.(dp0
Vdh8bhy5
p1
I1
sVcysm44t
p2
I1
s.(dp0
Vdhqar3d
p1
I1
sVcysm44t
p2
I1
s.(dp0
Vdi3kksm
p1
I1
sVcysm44t
p2
I1
s.(dp0
Vdi5ppz6
p1
I1
sVcysm44t
p2
I1
s.(dp0
Vdi9yv3m
p1
I1
sVcysm44t
p2
I1
s.(dp0
Vdj03pe0
p1
I1
sVcysm44t
p2
I1
s.(dp0
Vdj3tur4
p1
I1
sVcysm44t
p2
I1
s.(dp0
Vdjmtnmb
p1
I1
sVcysm44t
p2
I1
s.(dp0
Vdjo5zvv
p1
I1
sVcysm44t
p2
I1
s.(dp0
Vdjuaa2b
p1
I1
sVcysm44t
p2
I1
s.(dp0
Vdkve2d1
p1
I1
sVcysm44t
p2
I1
s.(dp0
Vdmpefz6
p1
I1
sVcysm44t
p2
I1
s.(dp0
Vdmpu1ef
p1
I1
sVcysm44t
p2
I1
s.(dp0
Vdm(dp0
Vdtamksc
p1
I1
sVcysm44t
p2
I1
s.