(dp0
Vdqnz54u
p1
I1
sVd9b17wm
p2
I1
sVdeed70a
p3
I1
sVd0v3c36
p4
I1
sVdqfenjl
p5
I1
sVd4y81fm
p6
I1
sVdcquejf
p7
I1
sVdp7em9v
p8
I1
sVd9x5y46
p9
I2
sVd8g8s11
p10
I1
sVczs3tft
p11
I1
sVcyp6dp3
p12
I1
sVde1q9wu
p13
I1
sVdizh52o
p14
I1
sVd04jki3
p15
I1
sVd5yzjum
p16
I1
sVdqbrray
p17
I1
sVdnre7ol
p18
I1
sVddda3l0
p19
I1
sVdb356wb
p20
I1
sVdjb7ls2
p21
I1
sVd5p4fyc
p22
I1
sVdjvhh2y
p23
I1
sVdio4r0x
p24
I1
sVd5cc9q3
p25
I1
sVcze6il5
p26
I1
sVczmt6f1
p27
I1
sVdowc5rl
p28
I2
sVd3td93o
p29
I1
sVd3ccj53
p30
I1
sVdb353if
p31
I1
sVdrchnca
p32
I1
sVddcb7rz
p33
I1
sVdgjhiqr
p34
I1
sVdel40u2
p35
I1
sVd1smnxx
p36
I1
sVd5r6w0t
p37
I1
sVdie10tj
p38
I1
sVdmfzdjs
p39
I1
sVdrljnwj
p40
I1
sVde0dujl
p41
I1
sVdsgwgb9
p42
I1
sVdagyzf2
p43
I1
sVd5rd9op
p44
I1
sVderikta
p45
I1
sVdq5539y
p46
I1
sVd77l41k
p47
I1
sVd01p0yh
p48
I1
sVd387l9n
p49
I1
sVd5c49o8
p50
I1
sVdgxhmpj
p51
I2
sVd71rjrh
p52
I1
sVddrg6wg
p53
I1
sVd04tj68
p54
I1
sVdmt1rc9
p55
I1
sVdhay75y
p56
I2
sVdmgiuyn
p57
I1
sVde4f09k
p58
I1
sVdihonwl
p59
I1
sVd9k68j2
p60
I1
sVd45vysa
p61
I1
sVdcfkvrk
p62
I1
sVda651ak
p63
I1
sVdaymn8u
p64
I1
sVdb35436
p65
I1
sVd4lah5s
p66
I1
sVd9c0eji
p67
I1
sVdb3607t
p68
I2
s.