(dp0
Vd26l1xl
p1
I1
sVdsqhcgr
p2
I1
sVdh76yra
p3
I1
sVd4jmkhc
p4
I1
sVds3rl4h
p5
I1
sVd9kkwk9
p6
I1
sVd9hkieo
p7
I1
sVczt8bi6
p8
I1
sVdaof3bc
p9
I1
sVdr427j7
p10
I1
sVdmy6t8u
p11
I2
sVde10vqq
p12
I1
sVd1y0358
p13
I1
sVd0h9b9x
p14
I1
sVd8w6wvx
p15
I1
sVdmom7ue
p16
I1
sVd7xbw8e
p17
I1
sVd8o4ski
p18
I1
sVd8htheu
p19
I1
sVdg7xvc7
p20
I1
sVdhzf8om
p21
I1
sVdcefllx
p22
I1
sVd5aei0x
p23
I1
sVdb64k6z
p24
I1
sVdr68abd
p25
I1
sVdnsbqwz
p26
I1
sVdghkd06
p27
I1
sVdo5jjhn
p28
I1
sVdaas7i0
p29
I1
sVczsc7fv
p30
I1
sVdk4puu0
p31
I1
sVd05xfhf
p32
I1
sVd2ztz0i
p33
I1
sVdb89t2e
p34
I1
sVd347zf9
p35
I1
sVdbbl6e4
p36
I1
sVdkm66ni
p37
I1
sVd03cmz3
p38
I1
sVcyyd8x4
p39
I1
sVdgyhnxf
p40
I1
sVd8nnykt
p41
I1
sVdewozh7
p42
I1
sVd8q10up
p43
I1
sVd0cqq0g
p44
I1
sVdeyezvk
p45
I1
sVd4ruccz
p46
I1
sVdbjg43t
p47
I1
sVdo03s1c
p48
I1
sVd6hqro8
p49
I1
sVd6iapeb
p50
I1
sVdscybu3
p51
I1
sVdgd3brj
p52
I1
sVddzlir1
p53
I1
sVd8jtdgl
p54
I1
sVdcuuy6j
p55
I1
sVdgf0hy9
p56
I1
sVd1hlb5n
p57
I1
sVd22f0xi
p58
I1
sVds59fqy
p59
I1
sVd8iqbbh
p60
I1
sVczh62dx
p61
I1
sVdkvqszl
p62
I1
sVcylxq6p
p63
I1
sVdbfnqol
p64
I1
sVczq7gqd
p65
I1
sVdb47tsk
p66
I1
sVdhoj800
p67
I1
sVdpnq0zm
p68
I1
sVd0wphf5
p69
I1
sVdnda16m
p70
I1
sVdgiqzof
p71
I1
sVd1ppj7h
p72
I1
sVdifbx2l
p73
I1
sVd9cpdjz
p74
I1
sVd8o5b97
p75
I1
sVd5w5k9p
p76
I1
sVdjghzqv
p77
I1
sVdepab6o
p78
I1
sVdim3op3
p79
I2
sVd90n41o
p80
I1
sVdisoc91
p81
I1
sVd18df9r
p82
I1
sVd2sydja
p83
I1
sVddggzkg
p84
I1
sVdmu3983
p85
I1
sVddv6o5l
p86
I1
sVd8xcm28
p87
I1
sVdgzkfp0
p88
I1
sVdi5s08y
p89
I1
sVdgfczrs
p90
I1
sVd1d7vxx
p91
I1
sVd0x77rs
p92
I1
sVdi4ralf
p93
I1
sVd0q1mj5
p94
I1
sVd8hkq3j
p95
I1
sVde8epa1
p96
I2
sVczrkve4
p97
I1
sVdd7ga6a
p98
I1
sVdphhf5j
p99
I1
sVcynra8u
p100
I1
sVdbr77mr
p101
I1
sVdhbvwen
p102
I1
sVdbdig9t
p103
I1
sVczzdoop
p104
I1
sVdeveojg
p105
I1
sVd8varmr
p106
I1
sVdbavfpz
p107
I1
sVd4gplnn
p108
I1
sVdj9lfrx
p109
I1
sVd4w8uo9
p110
I1
sVcz358ag
p111
I1
sVdf0jzrf
p112
I1
sVdtf8enb
p113
I1
sVdfwgb0r
p114
I1
sVdhkt4nb
p115
I1
sVd2f1nsp
p116
I1
sVd0l5ftx
p117
I1
sVcyi60jv
p118
I1
sVcz6q8n4
p119
I1
sVdg34opt
p120
I1
sVdnqpyua
p121
I1
sVd1p2r86
p122
I1
sVd1c4yyp
p123
I1
sVcz30rhg
p124
I1
sVdkyat5p
p125
I1
sVdh4kc96
p126
I1
sVd8nfs8s
p127
I1
sVdecsgxe
p128
I1
sVd5u8o90
p129
I1
sVdc7wnbs
p130
I1
sVdf3t9b5
p131
I1
sVd0yb8qn
p132
I1
sVd2khfun
p133
I1
sVd3bsrgp
p134
I1
sVdqh6zxc
p135
I1
sVdcevwm5
p136
I1
sVdn2c28r
p137
I1
sVdfrztjr
p138
I1
sVdphvy3m
p139
I1
sVd8o4jck
p140
I1
sVcyibhtc
p141
I1
sVdfsqa22
p142
I1
sVdcoalbz
p143
I1
sVdb1xsyl
p144
I1
sVddlzukq
p145
I1
sVd9l5tsl
p146
I1
sVd42nwvo
p147
I1
sVdete6ar
p148
I1
sVdcqg6uz
p149
I1
sVdfjd69x
p150
I1
sVd5nyrrx
p151
I1
sVd71snf3
p152
I1
sVczl1mrl
p153
I1
sVd6zgcrj
p154
I1
sVd5uqhks
p155
I1
sVdr7yxsg
p156
I1
sVd1ftw59
p157
I1
sVdd58jpx
p158
I1
sVd72qt28
p159
I1
sVdehr1ks
p160
I1
sVd44qlax
p161
I1
sVdq7c1oy
p162
I1
sVd0iqlop
p163
I2
sVdilzc10
p164
I1
sVdn3z4sv
p165
I1
sVd314egc
p166
I1
sVdaww5tu
p167
I1
sVdejny0d
p168
I1
sVcyj3muf
p169
I1
sVd8rmsyt
p170
I1
sVd218kb7
p171
I1
sVczwad8u
p172
I1
sVczidxvp
p173
I1
sVdo5rx0q
p174
I1
sVd0ep6xv
p175
I1
sVd8qen39
p176
I2
sVdrkmhq4
p177
I1
sVdfzvbjg
p178
I1
sVd33sekj
p179
I1
sVd8q172s
p180
I1
sVd1hbhwa
p181
I1
sVd51i0mv
p182
I1
sVcysy36b
p183
I1
sVczxu680
p184
I1
sVdaxriiu
p185
I1
sVdco9735
p186
I1
sVd1xssze
p187
I1
sVd1zzpsv
p188
I1
sVdgl6k45
p189
I1
sVdco85qd
p190
I1
sVdau2h9t
p191
I1
sVd9ldx5b
p192
I1
sVdkgr5sz
p193
I1
sVdb19hba
p194
I1
sVdelk04x
p195
I1
sVdpuvxq9
p196
I1
sVd2sf8ou
p197
I1
sVd0rqedr
p198
I1
sVdgaemxk
p199
I1
sVdaru3pz
p200
I1
sVd27fnum
p201
I1
sVdajkkcs
p202
I1
sVdqnkfde
p203
I1
sVd8ooau1
p204
I1
sVdpyts91
p205
I1
sVd8sx5l4
p206
I1
sVcyn0wj3
p207
I1
sVd3vxt0h
p208
I1
sVczzxj5t
p209
I1
sVd37e91v
p210
I1
sVd5eg4rm
p211
I1
sVczjcllu
p212
I1
sVdan1za1
p213
I1
sVdhwvott
p214
I1
sVdsxqzat
p215
I1
sVd5ha0b8
p216
I1
sVdpz3c7x
p217
I1
sVd2syqca
p218
I1
sVd66otz9
p219
I1
sVd0xtsud
p220
I1
sVdfvm8ff
p221
I1
sVd3eqgjq
p222
I1
s.