(dp0
Vd6l3xnf
p1
I1
sVd0pocrd
p2
I1
sVdklsyr8
p3
I1
sVdejc1j0
p4
I1
sVd1j4uvo
p5
I1
sVd0t214t
p6
I1
sVdit1hhd
p7
I1
sVdo2dhfx
p8
I1
sVd2ose0f
p9
I1
sVd3bkk2e
p10
I1
sVd312iug
p11
I1
sVd35eyis
p12
I1
sVd05n3w8
p13
I1
s.