(dp0
Vdh7zbo7
p1
I1
sVds553qf
p2
I1
sVdhp5s2f
p3
I1
sVd8ml08v
p4
I1
sVdd7hyjr
p5
I1
sVdn62fc2
p6
I1
sVdhppkej
p7
I2
sVdhw2n5c
p8
I1
sVdfz9i21
p9
I1
sVd5i9y0b
p10
I1
sVd0f0hu4
p11
I1
sVdmvin2r
p12
I1
sVdfyn9ww
p13
I1
sVdi81o8e
p14
I1
sVd5i0zu3
p15
I1
sVdbr8nbi
p16
I1
sVdfy20h4
p17
I1
sVdim10l1
p18
I1
sVd0nvbi1
p19
I1
sVdg6hc49
p20
I1
sVdc61fo7
p21
I1
sVdj0f1d6
p22
I1
sVdop6cn3
p23
I1
sVd9dasax
p24
I1
sVdhpk4gx
p25
I1
sVdp8l5g7
p26
I1
sVd6d1bzs
p27
I1
sVd9wmtqi
p28
I1
sVdp9top2
p29
I1
sVcz8vjc6
p30
I1
sVdbpm6fp
p31
I1
sVdji7fcp
p32
I1
sVd2oqhsi
p33
I1
sVdbig6bd
p34
I1
sVdf39ib4
p35
I1
sVdiz28cy
p36
I1
sVd2h0y6d
p37
I1
sVd8b8qts
p38
I1
sVdfq3wn3
p39
I1
sVdgopnjl
p40
I1
sVdg9368y
p41
I1
sVdi31tp9
p42
I1
sVd81cwrp
p43
I1
sVd9d94ol
p44
I1
sVd092rf5
p45
I1
sVdb64wdr
p46
I1
sVdf3dfo1
p47
I3
sVdhph9vv
p48
I1
sVdk2muqp
p49
I1
sVdhpsoy2
p50
I1
sVdbsoacx
p51
I1
sVd9cay0v
p52
I1
sVdi34nyc
p53
I1
sVdczkpw2
p54
I1
sVdgmp1bw
p55
I1
sVdj4zkq7
p56
I1
sVd8okksa
p57
I1
sVdel96r5
p58
I1
sVdtcvfod
p59
I1
sVdt279ts
p60
I1
sVdg52han
p61
I1
sVdeemcx9
p62
I1
sVczzk7tq
p63
I1
sVdptjfkf
p64
I1
sVdh3cbm2
p65
I1
sVd1w5u4y
p66
I2
sVd01nmmp
p67
I1
sVdqpd060
p68
I1
sVczg38lf
p69
I1
sVdew9rk9
p70
I1
sVdhpcpfx
p71
I1
sVdh48cle
p72
I1
sVdilxz2b
p73
I1
sVdmum7gc
p74
I1
sVd7xjxhz
p75
I1
sVd43d4yf
p76
I1
sVd4ijx76
p77
I1
sVdhp9sga
p78
I1
sVczxr85o
p79
I1
sVdhpfwrn
p80
I1
sVdatwppv
p81
I1
sVd9xq2xe
p82
I1
sVd66isvp
p83
I1
sVd6r66n6
p84
I1
sVd29lizg
p85
I1
sVd1y6w6g
p86
I1
sVdiwm778
p87
I1
sVdhpcga7
p88
I1
sVd87am3q
p89
I1
sVd9la6zq
p90
I1
sVdokyerx
p91
I1
sVdc9p0cn
p92
I1
sVd2aay08
p93
I1
sVdhefuc0
p94
I1
sVdfa8bhu
p95
I1
s.