(dp0
Vdswbp26
p1
I1
sVd9yfyex
p2
I1
sVd9io0kk
p3
I2
sVdcz835k
p4
I1
sVdq4h9ch
p5
I1
sVd3knr5i
p6
I3
sVd2iup9z
p7
I1
sVdaoulas
p8
I2
sVcyqzusg
p9
I1
sVd2k466f
p10
I1
sVdejq8f6
p11
I5
sVd9rm3lf
p12
I3
sVdhs8wu8
p13
I1
sVdb58ddm
p14
I2
sVdoaz2l1
p15
I2
sVd9rlluy
p16
I1
sVdsq1qii
p17
I1
sVdf0l2qx
p18
I2
sVd0ru9oh
p19
I1
sVdametyx
p20
I1
sVdoef2bm
p21
I6
sVd2l7gd2
p22
I1
sVd69lnt4
p23
I1
sVd8n2q1a
p24
I2
sVdgr90d3
p25
I1
sVd6m5pn9
p26
I7
sVd8ne4d2
p27
I7
sVdjn7qk3
p28
I1
sVd2jhjhs
p29
I4
sVd6fcqc1
p30
I1
sVdjwdr7l
p31
I2
sVd0swaxc
p32
I1
sVdsngfi5
p33
I1
sVd79jy9s
p34
I3
sVdcfizrr
p35
I2
sVd3873br
p36
I1
sVd8xbagz
p37
I1
sVcz5fusi
p38
I1
sVd1alku7
p39
I1
sVdr5o0hm
p40
I3
sVdj13xi1
p41
I8
sVd2gnbii
p42
I1
sVdkxl9gp
p43
I1
sVdaot19n
p44
I3
sVd2l81li
p45
I1
sVd15uaq3
p46
I2
sVddqzh3t
p47
I1
sVdiihvha
p48
I1
sVd2gaeru
p49
I1
sVdmkgyh7
p50
I1
sVd1kw5ce
p51
I1
sVdedzmct
p52
I3
sVdc08ob6
p53
I1
sVdqzqm2k
p54
I3
sVd889ado
p55
I2
sVd4x3tz4
p56
I1
sVdo1v1mv
p57
I1
sVdbfqh4b
p58
I2
sVdaje45z
p59
I6
sVdooaua2
p60
I1
sVdrnmmc7
p61
I1
sVd9a0kf0
p62
I3
sVdhv5471
p63
I1
sVdh4jasj
p64
I1
sVdejpsi1
p65
I2
sVd8g3x74
p66
I1
sVdfytckg
p67
I3
sVczztmg4
p68
I4
sVd33udb7
p69
I2
sVd433q16
p70
I1
sVdb6y83c
p71
I2
sVdt7pnii
p72
I2
sVd7kqhez
p73
I2
sVdfp77jm
p74
I1
sVdsfklyr
p75
I2
sVdai6eoi
p76
I1
sVd9j37s6
p77
I10
sVd28l1ti
p78
I1
sVd0n4pf2
p79
I4
sVd4pe7io
p80
I1
sVdqztw9z
p81
I1
sVd2dv8ft
p82
I3
sVd4ka9jz
p83
I3
sVd2t1nn9
p84
I1
sVd99fb2v
p85
I4
sVd2suypw
p86
I1
sVczs4ovd
p87
I1
sVdfwrx6w
p88
I1
sVdjn7hf9
p89
I4
sVdc095kp
p90
I1
sVdo8ordf
p91
I1
sVd37g22u
p92
I2
sVd1htynd
p93
I1
sVd3sc0dt
p94
I2
sVczulzen
p95
I2
sVd4xdlio
p96
I1
sVdo9zp4k
p97
I2
sVdhjd6fo
p98
I4
sVd37nbfp
p99
I1
sVdou7i2y
p100
I1
sVdk92828
p101
I1
sVd0n5lzl
p102
I6
sVd4ka73m
p103
I3
sVd4k9p5h
p104
I5
sVczsqyun
p105
I1
sVd5vnz7x
p106
I1
sVczanrz0
p107
I1
sVd9xo7av
p108
I1
sVdaou8tf
p109
I2
sVczx2ugg
p110
I1
sVdk9243e
p111
I4
sVdkfzjwm
p112
I2
sVd4i8zrz
p113
I1
sVd51ablb
p114
I1
sVcz7oil5
p115
I1
sVd2aux3a
p116
I1
sVddo5qv4
p117
I1
sVdbts4id
p118
I1
sVda0jgwm
p119
I8
sVd8x15qq
p120
I1
sVdg5pw0h
p121
I1
sVczrxf3n
p122
I1
sVdg3e5er
p123
I2
sVdgadrtw
p124
I1
sVd95u4tz
p125
I6
sVdt77par
p126
I1
sVd8ynz6q
p127
I1
sVdjffyni
p128
I1
sVd7k9r7u
p129
I3
sVdegsobf
p130
I1
sVdbtmaoh
p131
I1
sVdiltdxc
p132
I1
sVd2kroqq
p133
I2
sVd8x2223
p134
I1
sVd71s3w7
p135
I3
sVdauxtsp
p136
I1
sVd326d2m
p137
I2
sVdqzxbh0
p138
I6
sVdbpd8h8
p139
I2
sVd5zrwq4
p140
I1
sVcznusxm
p141
I1
sVd43hc6t
p142
I1
sVd10hx7s
p143
I1
sVdfu4w26
p144
I3
sVdnaa56c
p145
I2
sVd07yj47
p146
I1
sVczkh7lf
p147
I2
sVd2hwe9g
p148
I1
sVdfwku6w
p149
I1
sVczt1vsn
p150
I4
sVdge95e0
p151
I1
sVdgcmyux
p152
I3
sVdix8shd
p153
I1
sVdo9ztsk
p154
I1
sVdjtkoyy
p155
I1
sVdoayus4
p156
I2
sVcz58uc6
p157
I2
sVdmik0v5
p158
I1
sVd06o2bv
p159
I2
sVdaeb5wl
p160
I1
sVdeuu8ap
p161
I1
sVcyva4ea
p162
I1
sVdijhtna
p163
I1
sVdh0vaa0
p164
I1
sVd7bl7vi
p165
I1
sVd13lmga
p166
I4
sVdmtn8b4
p167
I1
sVd2u7jlm
p168
I2
sVdo8qewv
p169
I5
sVdmer6yt
p170
I3
sVd4zb37f
p171
I5
sVddo0ubc
p172
I1
sVdqzynyp
p173
I9
sVd7945xu
p174
I2
sVd9xmn2r
p175
I4
sVd0btlj1
p176
I3
sVdd8pgd3
p177
I1
sVdbn1dmc
p178
I2
sVdpjjwnw
p179
I2
sVd53v4lh
p180
I1
sVdfpgggs
p181
I2
sVd8vku87
p182
I4
sVdfnhp9p
p183
I1
sVdjnq73s
p184
I2
sVd0lm83b
p185
I5
sVd0ng6r0
p186
I9
sVd13lfjc
p187
I1
sVd2t6dzw
p188
I1
sVd2ghwa5
p189
I2
sVd23qill
p190
I1
sVd9j0hbq
p191
I2
sVdapzse9
p192
I2
sVdsflr6r
p193
I4
sVdbe1j87
p194
I2
sVdn9g20s
p195
I3
sVdejq0uv
p196
I6
sVd8ygvnq
p197
I1
sVdo9c1oy
p198
I1
sVdkfz07b
p199
I1
sVdcqmyw9
p200
I2
sVdr5k1mt
p201
I3
sVd6c648a
p202
I2
sVdtb9xre
p203
I1
sVd2auvai
p204
I1
sVd3rbcm7
p205
I1
sVdajm3fc
p206
I1
sVdjy2r8g
p207
I1
sVdnjrq93
p208
I1
sVd8xsz1h
p209
I2
sVd8x6pzs
p210
I1
sVdfbkle0
p211
I2
sVdh855gv
p212
I1
sVdk9cioj
p213
I4
sVdd48b4z
p214
I1
sVdb54az9
p215
I1
sVdnjopau
p216
I2
sVdrnsyrh
p217
I2
sVdo3r2ho
p218
I1
sVczskzfu
p219
I1
sVd6oo0ji
p220
I3
sVd55f15x
p221
I1
sVdex1jp1
p222
I1
sVdkkz6yc
p223
I2
sVd1jnnn3
p224
I2
sVd2t0an4
p225
I2
sVd3a5oui
p226
I1
sVdhjao46
p227
I1
sVd8e5umw
p228
I1
sVd2sm7b5
p229
I2
sVdn9a53q
p230
I1
sVcztrg3q
p231
I1
sVd5g6c7p
p232
I1
sVdaje9vv
p233
I1
sVd3roxpk
p234
I1
sVdafrg4l
p235
I2
sVdjna3ql
p236
I1
sVddln7sb
p237
I3
sVdbls58f
p238
I1
sVdbe0vhz
p239
I1
sVdq5m0uu
p240
I2
sVd0y13q5
p241
I1
sVdewrxz9
p242
I1
sVdsh3nzo
p243
I1
sVdre222m
p244
I1
sVddrztxg
p245
I1
sVdajdhk8
p246
I2
sVdn46sf5
p247
I1
sVd0sozw6
p248
I1
sVcypd2om
p249
I1
sVddfp8lk
p250
I1
sVdn8zbnv
p251
I3
sVdk4ybk2
p252
I2
sVdsrfp2b
p253
I1
sVd92myvu
p254
I2
sVd8odwhc
p255
I1
sVd2uz508
p256
I2
s.