(dp0
Vds7ldhi
p1
I1
sVdfvxxx4
p2
I2
sVdi2rdix
p3
I2
sVdmowxxz
p4
I1
sVd5rmd66
p5
I6
sVdi8mnii
p6
I1
sVddbge2q
p7
I1
sVd5lf3f9
p8
I3
sVdihqygq
p9
I1
sVdkqmn52
p10
I3
sVdfvm0pt
p11
I3
sVdspeth8
p12
I2
sVdilqqxy
p13
I5
sVdfvjqaw
p14
I1
sVdi94a7s
p15
I1
sVdj2b4ci
p16
I1
sVdfwashi
p17
I4
sVd3rbzzo
p18
I2
sVdmzoaiy
p19
I1
sVdi97f8d
p20
I1
sVdfvn00u
p21
I2
sVdokyn08
p22
I1
sVdfvx2td
p23
I3
sVdr5p2mk
p24
I1
sVdi8q4n1
p25
I1
sVdiu8i84
p26
I2
sVdivllp7
p27
I1
sVdfw18ea
p28
I2
sVdj9qsr9
p29
I1
sVdfvkj0h
p30
I3
sVd3rkiec
p31
I2
sVdi9slp9
p32
I1
sVdp6fwfq
p33
I1
s.