(dp0
Vdrfpsos
p1
I1
sVdgfslg3
p2
I1
sVd015evk
p3
I2
sVdbjaogd
p4
I1
sVdot64q0
p5
I1
sVds3p3rs
p6
I1
sVddu1i81
p7
I1
sVdot7l7o
p8
I1
sVdfh8xt7
p9
I1
sVdrxd4v4
p10
I1
sVdj0ayti
p11
I1
sVd82ffs1
p12
I1
sVdosoj2e
p13
I1
sVdo8h761
p14
I1
sVdrfr5sn
p15
I1
sVdejn5p8
p16
I1
sVdc444gm
p17
I1
s.