(dp0
Vdmv6eez
p1
I1
sVdsvvl6d
p2
I1
sVdd6mtlx
p3
I1
sVdkijen3
p4
I1
sVdo899r9
p5
I1
sVcz7xy85
p6
I1
sVd0n5mwa
p7
I1
sVd14u80k
p8
I1
sVdoepfew
p9
I1
sVd8som60
p10
I1
sVczzucoj
p11
I1
sVdte0bzy
p12
I1
sVdnepagv
p13
I1
sVd7l4sdb
p14
I1
sVd4pm5io
p15
I1
sVddoo4d6
p16
I1
s.