(dp0
Vd0povjb
p1
I1
sVd19xwqp
p2
I1
sVdda3kgh
p3
I1
sVdfttrfg
p4
I1
sVcz5fkty
p5
I1
sVdhpljfl
p6
I1
sVdil97wm
p7
I1
sVd3wiiso
p8
I1
sVdbnpha6
p9
I1
sVdb57oej
p10
I1
sVdim3871
p11
I3
sVd4qrv0c
p12
I1
sVd14rcja
p13
I1
sVczmb16t
p14
I1
sVdet2acu
p15
I1
sVcz5r944
p16
I1
sVcz5c7mx
p17
I1
sVd31t8s9
p18
I1
s.