(dp0
Vdot27vq
p1
I1
sVdaxt6rv
p2
I1
sVd25wc5a
p3
I1
sVdpsu8sx
p4
I1
sVdc00wni
p5
I2
sVd73z67n
p6
I1
sVdmfxmd2
p7
I2
sVdjjk17a
p8
I1
sVd87eo8h
p9
I1
sVd7ln58m
p10
I1
sVd547c1e
p11
I1
sVdhde5pv
p12
I1
sVdanhpl7
p13
I1
sVdety77e
p14
I1
sVdclghzd
p15
I1
sVczze7al
p16
I1
sVd05gwc8
p17
I1
sVdhlnvkw
p18
I1
sVdac71jj
p19
I2
sVd27hccf
p20
I1
sVdflvy0m
p21
I1
sVde47x52
p22
I1
sVd1nyh7d
p23
I1
sVdn7sc1y
p24
I1
sVczgqt18
p25
I1
sVd0u19tt
p26
I1
sVdcq69ia
p27
I1
sVd2vvq7z
p28
I1
sVczqdviw
p29
I1
sVd9mayt9
p30
I1
sVdg973fc
p31
I1
sVd988137
p32
I1
sVd3xuees
p33
I1
sVd4u1gbi
p34
I1
sVdthdtzk
p35
I1
sVdmvdpjb
p36
I1
sVd8g3gv8
p37
I1
sVd2ac0bp
p38
I1
sVd03k7wz
p39
I1
sVdn83391
p40
I1
sVd4rljpa
p41
I1
sVd0nt57h
p42
I1
sVdr21ch8
p43
I1
sVdg6a00f
p44
I1
sVd48ilgi
p45
I1
sVddad07q
p46
I1
sVd1m4ry9
p47
I1
sVd0ne749
p48
I1
sVd3xrt62
p49
I1
sVczjgzi6
p50
I1
sVd0rgusq
p51
I1
sVdaiqncj
p52
I1
sVdfn2mia
p53
I1
sVdb363kx
p54
I1
sVdaajcl0
p55
I1
sVcyjuvia
p56
I1
sVd1pg14r
p57
I1
sVdrapluk
p58
I1
sVd9ithtd
p59
I1
sVdo9fnsc
p60
I1
sVdbn5d4i
p61
I2
sVdavt30i
p62
I1
sVczttqk2
p63
I1
sVczbfood
p64
I1
sVd42tzne
p65
I1
sVdhjquyd
p66
I1
sVdod1vgw
p67
I1
sVd792xa6
p68
I1
sVdbq9g53
p69
I1
sVdb8dde1
p70
I1
sVd17qvm0
p71
I1
sVd8x35ed
p72
I1
sVcyiic6t
p73
I1
sVdndz0t2
p74
I1
sVcykf0d4
p75
I1
sVdfoub4m
p76
I1
sVd9lnakx
p77
I1
sVdk4pphy
p78
I1
sVdevz8ky
p79
I1
sVdj8k19l
p80
I1
sVdqyp0gh
p81
I1
sVd5lqlav
p82
I1
sVd2w11is
p83
I1
sVddw8rnt
p84
I1
sVd8bzid3
p85
I1
sVdpguheu
p86
I1
sVdrpkaz5
p87
I1
sVd6gybcy
p88
I1
sVd0ri2gv
p89
I1
sVdehqbvr
p90
I1
sVd3jboxe
p91
I1
sVd8m0k12
p92
I1
sVdd40bxd
p93
I1
sVdqxi59y
p94
I1
sVdio55te
p95
I1
sVd555iy2
p96
I1
sVdpzr1go
p97
I1
sVd2igrun
p98
I1
sVdr9sn6p
p99
I1
sVd5q99lv
p100
I2
sVd1w32go
p101
I1
sVd5yus4i
p102
I1
sVd89l2hn
p103
I1
sVdi85wmk
p104
I1
sVdelyac6
p105
I1
sVcz6pmel
p106
I1
sVdj9w9pw
p107
I1
sVd0p73mz
p108
I1
sVdnvcyn3
p109
I1
sVd52n4gl
p110
I2
sVcyp8hkl
p111
I1
sVdt9dg2x
p112
I1
sVd9hjlim
p113
I2
sVdfudcr9
p114
I1
sVd3x4v49
p115
I1
sVd7ln9vb
p116
I1
sVd3qjeln
p117
I1
sVdeuccs9
p118
I1
sVd88ccwb
p119
I1
sVdhz5dly
p120
I1
sVd8c27za
p121
I1
sVdexuga1
p122
I1
sVdcbcdnj
p123
I1
sVd3av04c
p124
I1
sVd2c0056
p125
I1
sVdmwjwum
p126
I2
sVdt6gvgs
p127
I1
sVd70en07
p128
I1
sVdq013x7
p129
I1
sVdkjgl4q
p130
I1
sVdefrlej
p131
I1
sVczu7log
p132
I1
sVd3n4rao
p133
I1
sVczy5bnl
p134
I1
sVd055xur
p135
I1
sVdq52u7f
p136
I1
sVda98ub1
p137
I1
sVdff4ap9
p138
I1
sVdeppzbq
p139
I1
sVd3oaue8
p140
I1
sVcz12lcz
p141
I1
sVdaa9wod
p142
I1
sVdj6yy5t
p143
I1
sVczincef
p144
I1
sVd8ku8wy
p145
I1
sVczz6kcr
p146
I2
sVddf63e0
p147
I1
sVdhl2ccs
p148
I1
sVdqbmld6
p149
I1
sVdk6n3e0
p150
I1
sVda4bmt2
p151
I2
sVdcw68h3
p152
I1
sVdkqi9oo
p153
I1
sVdhysfiz
p154
I1
sVdew610p
p155
I1
sVd0i0hvf
p156
I1
sVdcvnk24
p157
I1
sVd8s0j3a
p158
I1
sVd1hqt2o
p159
I1
sVd0kptz3
p160
I1
sVdex2v3f
p161
I1
sVdfoozhu
p162
I1
sVdcn1xf3
p163
I1
sVd0xqz6e
p164
I1
sVcyw1wl1
p165
I1
sVdjkz6iw
p166
I1
sVddsw82y
p167
I1
sVd89ybfz
p168
I1
sVd897ffq
p169
I1
sVcz86srs
p170
I1
sVdbkubfn
p171
I1
sVddrf756
p172
I1
sVd29eliy
p173
I1
sVdfa7u20
p174
I1
sVdhgg9vq
p175
I1
sVddrkuk4
p176
I1
sVd3ka2ba
p177
I1
sVd829ee4
p178
I1
sVd3n4xkr
p179
I1
sVdiqdvnw
p180
I1
sVdneced7
p181
I1
sVdgffa9g
p182
I1
sVdbag25m
p183
I1
sVczsumzk
p184
I1
sVd6dv3fi
p185
I1
sVczckvnt
p186
I1
sVdfq4kzw
p187
I1
sVd476cmo
p188
I1
sVd7scit9
p189
I1
sVd65jhlo
p190
I1
sVdg29sie
p191
I1
sVdba5zcg
p192
I2
sVddx8iau
p193
I1
sVdfee5ux
p194
I1
sVd19xwqp
p195
I1
sVd2w6u9o
p196
I1
sVdp8lx94
p197
I1
sVdkr9yu7
p198
I1
sVczzh9lv
p199
I1
sVdc0m9px
p200
I1
sVd0i8axp
p201
I1
sVd8m490s
p202
I1
sVd2amajr
p203
I1
sVdg5tcgh
p204
I1
sVdhfydfk
p205
I1
sVd135p02
p206
I1
sVd4rxd1y
p207
I1
sVdmnv1ob
p208
I1
sVd9i2zpm
p209
I1
sVdfwzr54
p210
I1
sVdj3o0b8
p211
I1
sVcyhzimt
p212
I2
sVd7dhf48
p213
I1
sVczln4wj
p214
I1
sVdpnqaxo
p215
I1
sVd3eu71l
p216
I2
sVcyo16o1
p217
I1
sVd1ak3c5
p218
I1
sVdbprfps
p219
I1
sVdixns3a
p220
I1
sVday50h5
p221
I1
sVdet2l79
p222
I1
sVdj6u3yu
p223
I1
sVdbjd7n8
p224
I1
sVdsl4cfh
p225
I2
sVdcpqin2
p226
I1
sVdh25ymx
p227
I1
sVdg3h9er
p228
I1
sVd7hgxka
p229
I1
sVdjdsd40
p230
I1
sVd51k19h
p231
I1
sVdd23zev
p232
I2
sVd628yey
p233
I2
sVdozt52l
p234
I2
sVde9bawz
p235
I1
sVdj03pe0
p236
I1
sVdpvro1m
p237
I1
sVczwtk8r
p238
I1
sVd0ha5q0
p239
I1
sVdhto8c4
p240
I1
sVd0lyfi8
p241
I1
sVd4f036d
p242
I1
sVddthifw
p243
I1
sVdn9tphr
p244
I1
sVd4xuyej
p245
I1
sVd5n07qs
p246
I1
sVdsqgduk
p247
I1
sVd7qhwhu
p248
I1
sVd0a7med
p249
I1
sVdj054e1
p250
I1
sVdkc6wzm
p251
I1
sVd2ykcsf
p252
I1
sVdpmgmzt
p253
I1
sVdnqq8f9
p254
I1
sVdhdgy80
p255
I1
sVdjmrt6b
p256
I1
sVddgkr4q
p257
I1
sVdpl4ads
p258
I1
sVdn1cnh1
p259
I2
sVdi3u9hq
p260
I1
sVd6fdoy8
p261
I1
sVdbcxbxe
p262
I1
sVd0emriz
p263
I1
sVdqz3ahi
p264
I1
sVd1numom
p265
I2
sVcz7ngmv
p266
I1
sVd1cgfit
p267
I1
sVd8lf7p2
p268
I1
sVd0rcd6g
p269
I1
sVdmulegd
p270
I1
sVczl9khq
p271
I1
sVdhgme0v
p272
I1
sVd4cg4lw
p273
I1
sVdd8xzjx
p274
I1
sVdclh169
p275
I1
sVdhhkexq
p276
I1
sVd1ucc27
p277
I1
sVdbh4f8q
p278
I1
sVdd7mqsc
p279
I2
sVdih5q38
p280
I1
sVdstipj0
p281
I1
sVdqfztuj
p282
I1
sVd7rpos5
p283
I1
sVdqp5ct9
p284
I1
sVcyrqnzn
p285
I1
sVdk8ndz3
p286
I2
sVdbo5lu2
p287
I1
sVcyj4oi2
p288
I1
sVdhizyx5
p289
I1
sVd4ei0zn
p290
I1
sVdh0tm0y
p291
I1
sVdo1n4rg
p292
I1
sVcznoo37
p293
I1
sVdekun32
p294
I1
sVdd89oud
p295
I1
sVdin4588
p296
I1
sVd76aiy9
p297
I1
sVd50hn6b
p298
I1
sVdj3pda8
p299
I1
sVd0y64hc
p300
I1
sVd2ce6aa
p301
I1
sVdfdydzw
p302
I1
sVd9gbtu9
p303
I1
sVd322ehe
p304
I1
sVdfzxaiy
p305
I1
sVd3mvfow
p306
I1
sVdc6w65c
p307
I1
sVcyjkrv8
p308
I2
sVdtdy06q
p309
I1
sVd2tvtex
p310
I1
sVd077b52
p311
I1
sVd7l4v8x
p312
I1
sVdgqir0g
p313
I1
sVczm5f2z
p314
I2
sVd8krjl7
p315
I1
sVdflf1bz
p316
I1
sVd1jo3nc
p317
I1
sVdd6wbub
p318
I1
sVdh9x53b
p319
I1
sVdq7q6ht
p320
I1
sVd9sxacy
p321
I1
sVdmve4q1
p322
I1
sVd1ob0mb
p323
I1
sVdf9iqcy
p324
I1
sVd0rosc6
p325
I1
sVd9qyc1d
p326
I2
sVddicng7
p327
I1
sVdpmvdr4
p328
I2
sVd28ksyz
p329
I1
sVd2tlms9
p330
I1
sVd7qyv20
p331
I1
sVd61lje1
p332
I1
sVdn0224o
p333
I2
sVczps0r8
p334
I1
sVdn4gwqg
p335
I1
sVdn7fgze
p336
I1
sVdknarfp
p337
I1
sVdhzuegv
p338
I1
sVdseqsyh
p339
I1
sVd469ckg
p340
I1
sVdec2423
p341
I1
sVd2lu9s0
p342
I1
sVdau7gof
p343
I1
sVd04ae6b
p344
I1
sVd9aqfyc
p345
I1
sVdhv17ow
p346
I1
sVdqdj6e8
p347
I1
sVd3ql1d1
p348
I1
sVdi2krcz
p349
I1
sVdn7utmu
p350
I1
sVd5dzxqn
p351
I1
sVdjk5vr8
p352
I1
sVdg7sreq
p353
I1
sVd3a13pl
p354
I1
sVcyu2xyg
p355
I1
sVdih1d17
p356
I1
sVdfrdjox
p357
I1
sVdjsl30d
p358
I1
sVde8deun
p359
I1
sVdklkbzd
p360
I1
sVd30otsz
p361
I1
sVd7ad15e
p362
I1
sVd7qy5dg
p363
I1
sVd0qrzhq
p364
I1
sVd2jhjhs
p365
I1
sVdf7uimi
p366
I1
sVdf6c96e
p367
I1
sVdh8jitr
p368
I1
sVdn8j0ju
p369
I1
sVdejn0s8
p370
I1
sVdinakgw
p371
I1
sVd92f2rw
p372
I1
sVdb0h7hk
p373
I1
sVd9eyez5
p374
I1
sVdf139hy
p375
I1
sVdcz1njc
p376
I1
sVdbc3yho
p377
I1
sVdikmdk1
p378
I1
sVdrvkyx9
p379
I1
sVdkwfe0k
p380
I2
sVdfmb1lq
p381
I1
sVdfjax4x
p382
I1
sVdbbjj4r
p383
I1
sVdmpcc08
p384
I1
sVd1utbyt
p385
I1
sVdbc1taj
p386
I1
sVdcy9bby
p387
I1
sVcyuz2f9
p388
I2
sVd99l6th
p389
I1
sVd5dnyti
p390
I1
sVdnd0bhs
p391
I1
sVd2kf9rw
p392
I1
sVdp5g5ir
p393
I1
sVcz3fipj
p394
I1
sVdel5x77
p395
I1
sVdmn4mrp
p396
I1
sVdetpnqk
p397
I1
sVd5n93mw
p398
I1
sVd205m15
p399
I1
sVd05urzn
p400
I1
sVdj8k1yg
p401
I1
sVd2alm2z
p402
I1
sVdd4nqvy
p403
I1
sVdkajvze
p404
I1
sVdbvxsac
p405
I1
sVd6bn564
p406
I1
sVd20fmy2
p407
I1
sVdhh8s1l
p408
I1
sVcyxw22k
p409
I1
sVd0cn6zx
p410
I1
sVdojhi2d
p411
I1
sVd0pmlib
p412
I1
sVd9zwh8d
p413
I1
sVcz1i13t
p414
I1
sVd4ja3bz
p415
I1
sVdj3b31j
p416
I1
sVddohrlg
p417
I1
sVd3kw49e
p418
I1
sVd3gml9i
p419
I1
sVcz422og
p420
I1
sVdbom6g8
p421
I1
sVdkfqppv
p422
I1
sVdktrwk2
p423
I1
sVddoli00
p424
I1
sVd3cszvq
p425
I1
sVd8uxuld
p426
I1
sVdiwf2j2
p427
I1
sVdk4mc3k
p428
I1
sVdkr4xdf
p429
I1
sVde0r6u0
p430
I1
sVdjdskgh
p431
I2
sVd2pfs0a
p432
I1
sVd1udd0l
p433
I1
sVdprt944
p434
I1
sVdjbcnbb
p435
I1
sVdgdt6gg
p436
I1
sVcym55bc
p437
I2
sVdb7cd95
p438
I1
sVdfrxlv8
p439
I1
sVd1mfztx
p440
I1
sVdqskycy
p441
I1
sVdopzhfr
p442
I1
sVd32ihvq
p443
I1
sVd4pm5io
p444
I1
sVd0org9v
p445
I1
sVczu1cf8
p446
I1
sVdnfu6n5
p447
I1
sVd5keduk
p448
I1
sVd5ydqu5
p449
I1
sVdft654d
p450
I1
sVdeldmye
p451
I1
sVd77qato
p452
I1
sVdfcrxqp
p453
I1
sVdfw9e74
p454
I1
sVczy1lr3
p455
I1
sVdglq4qd
p456
I1
sVdehzmnn
p457
I1
sVdjy7mcs
p458
I1
sVdabnioa
p459
I1
sVdj7kf6z
p460
I1
sVdt5m0zn
p461
I1
sVczixdv1
p462
I1
sVd03fddj
p463
I1
sVcykvzjh
p464
I1
sVd095m9b
p465
I1
sVczftann
p466
I1
sVdc2sh2p
p467
I1
sVd88a9nv
p468
I1
sVcz6jnay
p469
I1
sVde259jm
p470
I1
sVdizyfda
p471
I1
sVdkk9h8z
p472
I2
sVdni58r7
p473
I1
sVdq226fp
p474
I1
sVdbb20tf
p475
I1
sVd0lisuh
p476
I1
sVd1ypul2
p477
I1
sVd83lebp
p478
I1
sVdppuihe
p479
I2
sVdawfnz7
p480
I1
sVdkdpv8x
p481
I3
sVde2jork
p482
I2
sVd2an6x3
p483
I1
sVdg8wc7p
p484
I1
sVdkdao66
p485
I6
sVd4zn6wg
p486
I1
sVd1p30y0
p487
I3
sVdjn9f6t
p488
I2
sVdak1tev
p489
I1
sVd773djf
p490
I1
sVdism1tc
p491
I1
sVdae6ulq
p492
I1
sVdn4to4a
p493
I1
sVd36yle9
p494
I1
sVdjk22gk
p495
I1
sVdguvpk4
p496
I1
sVd827lem
p497
I1
sVdgtfggs
p498
I1
sVdawvlbj
p499
I1
sVdcg1obm
p500
I1
sVd9onw33
p501
I1
sVd6078h2
p502
I1
sVdt7b2xv
p503
I2
sVczjkcuh
p504
I1
sVcyto4ej
p505
I1
sVczhg2nv
p506
I1
sVdha7xfc
p507
I1
sVd6gqs5y
p508
I1
sVd0ivipf
p509
I1
sVdnr76zx
p510
I1
sVd0mlmyy
p511
I1
sVdielnyw
p512
I1
sVdan2fs0
p513
I1
sVdhz37m2
p514
I1
sVczmgyjn
p515
I1
sVdbz3luh
p516
I1
sVcyvhx0r
p517
I1
sVd97o8yh
p518
I1
sVd5h5mbt
p519
I1
sVdivvzsr
p520
I1
sVdcssnus
p521
I1
sVdarxw07
p522
I1
sVd1az7ry
p523
I1
sVd9jo5cx
p524
I1
sVd8rgvjq
p525
I1
sVd3ydvax
p526
I1
sVd6niagc
p527
I1
sVd4n1i06
p528
I1
sVcyza7ay
p529
I1
sVd7go44g
p530
I1
sVczzn9u8
p531
I1
sVdc7ov4r
p532
I1
sVdmg9j1s
p533
I1
sVd8b0qc2
p534
I1
sVczzwl26
p535
I1
sVdkbqicv
p536
I1
sVd8ggxd1
p537
I1
sVd4l7ls8
p538
I1
sVdhnh9ef
p539
I1
sVcyl1b32
p540
I1
sVd5piay9
p541
I1
sVdp7jzwt
p542
I1
sVdjcnzbv
p543
I1
sVdq73u42
p544
I1
sVd423cgu
p545
I1
sVcyp5qkb
p546
I1
sVczgxn9l
p547
I1
sVdiz2vy0
p548
I1
sVdj2me9u
p549
I1
sVd09d5w1
p550
I1
sVdsv2uhg
p551
I1
sVdmu4829
p552
I2
sVd7xgp4d
p553
I1
sVd1j6nst
p554
I1
sVdjtgnnd
p555
I1
sVdficaxb
p556
I1
sVcz3xr2f
p557
I1
sVdqffevr
p558
I1
sVd5t4a46
p559
I1
sVd90hz9t
p560
I1
sVd55jv50
p561
I1
sVdb739m4
p562
I1
sVdq6v197
p563
I1
sVdsm6012
p564
I2
sVd5x5mhg
p565
I1
sVd0gun07
p566
I1
sVdhz1rpj
p567
I1
sVdmsljlz
p568
I1
sVd1qs9i1
p569
I1
sVdf9fh3h
p570
I1
sVd4bm1wz
p571
I1
sVd3cxukc
p572
I1
sVdf563rl
p573
I1
sVdnd12f1
p574
I2
sVd8nxra9
p575
I1
sVdo71a49
p576
I3
sVd45mnku
p577
I1
sVczpxcyg
p578
I3
sVdb25rys
p579
I1
sVd4cx73k
p580
I1
sVdd9z0rk
p581
I1
sVdj20n97
p582
I1
sVd8bytde
p583
I1
sVczh5y12
p584
I1
sVd6xy9p9
p585
I1
sVd3ilqtj
p586
I3
sVdcdd13s
p587
I1
sVd4u3cap
p588
I1
sVdotn20a
p589
I1
sVd8l5rmq
p590
I1
sVdqttz4g
p591
I1
sVd3a6zqs
p592
I1
sVdoshh4u
p593
I1
sVczpz0r3
p594
I1
sVdep2hqk
p595
I1
sVd3i8qhg
p596
I1
sVd953vs8
p597
I1
sVdhz8b8h
p598
I1
sVdoqzk2n
p599
I1
sVcyvxbyh
p600
I1
sVd7k5utf
p601
I1
sVd3lep09
p602
I1
sVcyntxbk
p603
I1
sVdrcu20b
p604
I1
sVdfjtyew
p605
I1
sVd6ec0e6
p606
I1
sVdirehzk
p607
I2
sVd8ngfsh
p608
I1
sVdmvhm8i
p609
I1
sVd5vv0f5
p610
I1
sVdal0r99
p611
I1
sVdjed0q1
p612
I1
sVdaw7wmq
p613
I1
sVdqp5ljo
p614
I2
sVdpp746o
p615
I2
sVdh9zn30
p616
I1
sVd325j2j
p617
I1
sVdk7dxeh
p618
I1
sVd3x4pbw
p619
I1
sVdfq39bq
p620
I1
sVcz58w3s
p621
I1
sVdaks8su
p622
I1
sVdqltioo
p623
I1
sVd715s56
p624
I1
sVd1crz5n
p625
I1
sVdc2dsb1
p626
I1
sVdeao6u4
p627
I1
sVd17anf5
p628
I3
sVdihf3cb
p629
I1
sVdg0x6ax
p630
I1
sVdg7aeh7
p631
I1
sVd8lvyfg
p632
I2
sVd93jvv7
p633
I1
sVd32smas
p634
I1
sVdiq3o82
p635
I2
sVdbw6fus
p636
I1
sVdak9na8
p637
I1
sVdgszrs0
p638
I1
sVd9vb283
p639
I1
sVdh5wx16
p640
I2
sVdi8v7j4
p641
I1
sVd7qd36y
p642
I1
sVd1ri1fl
p643
I1
sVdchsi2p
p644
I1
sVdqemu41
p645
I1
sVd3deqqx
p646
I1
sVcyjcmbv
p647
I1
sVdj0usk1
p648
I1
sVdaybckw
p649
I1
sVcz04lc5
p650
I1
sVdgr4euj
p651
I1
sVdth127n
p652
I1
sVdabdync
p653
I1
sVdio4w3m
p654
I1
sVd1k5xmo
p655
I1
sVdejv499
p656
I1
sVd17utlo
p657
I1
sVdgkzk55
p658
I1
sVddd3ztz
p659
I1
sVd4768iv
p660
I1
sVdnboyhs
p661
I1
sVd42bsmb
p662
I1
sVd9ljptj
p663
I1
sVdax8z83
p664
I1
sVczta8x7
p665
I1
sVdcud2ko
p666
I1
sVdjsulgt
p667
I1
sVddgc8p2
p668
I3
sVd7znnss
p669
I1
sVdg5kfpq
p670
I1
sVdhcf73u
p671
I1
sVdrxwv5e
p672
I1
sVdrq1ldz
p673
I1
sVdohm1t8
p674
I1
sVdmh7sh5
p675
I1
sVdtcpssj
p676
I1
sVdi9kqup
p677
I1
sVdsw07mu
p678
I1
sVd27i0zf
p679
I1
sVd72dq72
p680
I1
sVd86e480
p681
I1
sVd90uf9l
p682
I1
sVczrw6ld
p683
I1
sVdq8dtw0
p684
I1
sVde7pgr1
p685
I1
sVdkjm9mf
p686
I1
sVd2aia4m
p687
I1
sVda1g3vn
p688
I1
sVd5vrucq
p689
I1
sVdi7heb9
p690
I1
sVczill1h
p691
I1
sVd5b2865
p692
I1
sVdo5lqva
p693
I1
sVdnnt0j2
p694
I1
sVdadmk99
p695
I1
sVdkjgp8z
p696
I1
sVdb1sv3q
p697
I1
sVd5fmpzv
p698
I1
sVdj56it9
p699
I2
sVd0lr28e
p700
I1
sVd0a364i
p701
I1
sVdf7vylv
p702
I1
sVd1hrhia
p703
I1
sVczzvvmu
p704
I1
sVd97oij5
p705
I1
sVdmvkz5r
p706
I1
sVd2z3v6t
p707
I1
sVcyo20z1
p708
I1
sVd5668si
p709
I1
sVdnl5t9d
p710
I1
sVd3lff4h
p711
I1
sVdmspx7i
p712
I1
sVdcuqhzf
p713
I1
sVdpiki5z
p714
I1
sVd9lgumd
p715
I1
sVdksbnaq
p716
I1
sVd1teiv8
p717
I1
sVdg8crzf
p718
I1
sVdakxhy3
p719
I1
sVd8k82y3
p720
I1
sVczzps6g
p721
I1
sVddwoj5i
p722
I1
sVd87fvkf
p723
I1
sVd0mz7gm
p724
I1
sVd1tkgyf
p725
I1
sVddr866z
p726
I1
sVdgzmcnp
p727
I1
sVd3lp8k6
p728
I1
sVdsup7pz
p729
I1
sVdtabvqk
p730
I1
sVdfjlvnl
p731
I1
sVdnrjdxu
p732
I1
sVd9shd98
p733
I1
sVdcixzgm
p734
I1
sVd2wqhlr
p735
I2
sVczgnbay
p736
I1
sVde5hwd6
p737
I1
sVdd41vdm
p738
I1
sVdt9kxf9
p739
I1
sVd1nudzx
p740
I1
sVdowncxn
p741
I1
sVdfkcvdk
p742
I1
sVd1k508i
p743
I1
sVczh159u
p744
I1
sVdkzc3f6
p745
I1
sVd6jzlh9
p746
I1
sVdf2k87d
p747
I1
sVd877rip
p748
I1
sVd2eejh0
p749
I1
sVd00hwg5
p750
I1
sVczhwqwe
p751
I1
sVdhfsw3m
p752
I1
sVd34d5cp
p753
I1
sVczd2aof
p754
I1
sVczor21q
p755
I1
sVd33qmj4
p756
I1
sVd3x8bsj
p757
I1
sVd59grqt
p758
I1
sVd7rj7yo
p759
I2
sVdb1xg1c
p760
I1
sVd7le4f7
p761
I1
sVd4u073j
p762
I1
sVda7pq5a
p763
I1
sVdgoxew6
p764
I1
sVcztslf0
p765
I1
sVdppm04x
p766
I1
sVdpt468u
p767
I1
sVdd611ae
p768
I1
sVdir3ygm
p769
I1
sVcyv9mly
p770
I1
sVd1xnp6w
p771
I1
sVdka6m2h
p772
I1
sVd9b6aqz
p773
I1
sVda71pnx
p774
I1
sVdd285z6
p775
I2
sVdgw6pnd
p776
I1
sVd2w9pwc
p777
I1
sVdk24zp7
p778
I1
sVda9hqtg
p779
I1
sVd008ae4
p780
I1
sVdmqgt0n
p781
I1
sVd790n4b
p782
I1
sVdrlt5ri
p783
I1
sVd95mhbx
p784
I1
sVd16ew1o
p785
I1
sVdsg5cx8
p786
I2
sVd1d6ve2
p787
I1
sVdmzm9si
p788
I1
sVdbrszst
p789
I1
sVdnvxosh
p790
I1
sVdfk9u0g
p791
I1
sVd9fx3jc
p792
I1
sVdbn3x0d
p793
I1
sVd4u5k77
p794
I1
sVd6ei03a
p795
I1
sVd7gb54j
p796
I2
sVd2a1lud
p797
I1
sVd2sochk
p798
I1
sVdc11vg6
p799
I2
sVcyqt1uk
p800
I1
sVdgkl0vs
p801
I1
sVdqy9p1b
p802
I1
sVdcek72h
p803
I1
sVds1p5ud
p804
I1
sVd6eepkq
p805
I1
sVd8nw6br
p806
I1
sVd7i0zam
p807
I1
sVd46563t
p808
I1
sVde16wtz
p809
I1
sVd9nb2z6
p810
I1
sVdarlya8
p811
I1
sVdax8dbo
p812
I1
sVdf6gas5
p813
I1
sVdhkqtbr
p814
I1
sVda6ot66
p815
I1
sVdfeyb68
p816
I1
sVd1xohd2
p817
I1
sVd5ryw1l
p818
I1
sVczwjur5
p819
I2
sVcywq6kh
p820
I1
sVd49h5p4
p821
I1
sVdrqmg2n
p822
I2
sVd18s94g
p823
I1
sVd9o3go1
p824
I1
sVdpn7aty
p825
I2
sVd458lst
p826
I1
sVde8lva2
p827
I1
sVd135pjf
p828
I1
sVdn2mjaa
p829
I1
sVdb1203o
p830
I1
sVdq6eah7
p831
I2
sVd674uvh
p832
I1
sVdojawz0
p833
I1
sVd1pp6gp
p834
I1
sVdbux4mj
p835
I1
sVd5z0r2p
p836
I1
sVdkj3kf3
p837
I1
sVczia33l
p838
I1
sVcyv58q5
p839
I1
sVd5ojc87
p840
I1
sVd4jpp9x
p841
I1
sVdhp0b79
p842
I1
sVd00h8qx
p843
I1
sVdf19en1
p844
I1
sVdt15paa
p845
I1
sVcz85mpl
p846
I1
sVdfg9o8c
p847
I1
sVd1xd6gy
p848
I1
sVd2h9c77
p849
I1
sVd65fzqk
p850
I1
sVd61mqt2
p851
I1
sVdmuf6ew
p852
I1
sVdak5tbw
p853
I1
sVdc47414
p854
I1
sVdka4w6q
p855
I1
sVd7qeyhv
p856
I3
sVdjfydik
p857
I1
sVdeynct2
p858
I1
sVcykvace
p859
I1
sVd2bx2a2
p860
I1
sVd7r6vgt
p861
I1
sVdaxn3m7
p862
I2
sVdip802e
p863
I1
sVde38mf2
p864
I1
sVcz51har
p865
I1
sVdrfk6zl
p866
I1
sVdjb4qrr
p867
I1
sVd6fxcws
p868
I1
sVd3wl83x
p869
I1
sVd95scmr
p870
I1
sVddq0y47
p871
I1
sVd1a2gem
p872
I1
sVd0n5lzl
p873
I2
sVd648t1f
p874
I2
sVddqgifh
p875
I1
sVcyw1nlf
p876
I1
sVdnjlot4
p877
I1
sVdpb72gf
p878
I1
sVdis12hx
p879
I1
sVdjjqn2t
p880
I1
sVdiqi8gw
p881
I1
sVdcbzl1s
p882
I1
sVd2xawdm
p883
I1
sVdj9im5z
p884
I1
sVddcgmyi
p885
I1
sVcyw43jt
p886
I2
sVdhfqv7t
p887
I1
sVdmvghzn
p888
I1
sVdj9dxz6
p889
I1
sVdiumzby
p890
I1
sVdi4dccr
p891
I1
sVczrawwe
p892
I1
sVd4cthvk
p893
I1
sVd1i99ht
p894
I1
sVda62stv
p895
I2
sVd2j3lnz
p896
I1
sVdppk2uf
p897
I1
sVd3ngy9r
p898
I1
sVdertjfx
p899
I1
sVdctrmg3
p900
I1
sVdifv0q6
p901
I1
sVdr273ow
p902
I1
sVczzb436
p903
I1
sVd6emrar
p904
I1
sVd4z3k8e
p905
I1
sVd6z8m3h
p906
I1
sVdd5wxi4
p907
I1
sVd3c5zyq
p908
I1
sVdnzgx9l
p909
I3
sVdkpv89o
p910
I1
sVd0x2l9s
p911
I1
sVdnr9xlr
p912
I1
sVdfu8yda
p913
I1
sVd5sezr9
p914
I1
sVd25v4sa
p915
I1
sVczrhivt
p916
I1
sVdfnlwjv
p917
I1
sVdodz2oh
p918
I1
sVdd3bbgq
p919
I1
sVd8fwsx1
p920
I2
sVdkuwbme
p921
I1
sVd05eh6c
p922
I1
sVde8t4pa
p923
I1
sVd6gnxa2
p924
I1
sVdfs7lqv
p925
I1
sVds6fgdz
p926
I1
sVda3ambo
p927
I1
sVd9vhild
p928
I2
sVdbw42xf
p929
I1
sVdniqpuq
p930
I1
sVdt6g2uh
p931
I1
sVdnbsbz0
p932
I1
sVdiis87v
p933
I1
sVczgic0y
p934
I1
sVddwyscb
p935
I1
sVdsab93v
p936
I1
sVd1tl1fh
p937
I1
sVdidi2q4
p938
I1
sVdqpwf06
p939
I1
sVdbpywyi
p940
I1
sVd6tgpvo
p941
I1
sVdcxgpe1
p942
I2
sVdb224po
p943
I1
sVdpi73zz
p944
I1
sVdrybhl4
p945
I1
sVdbh1i0a
p946
I1
sVd8v8i7h
p947
I1
sVdccbwy8
p948
I1
sVdh68nvv
p949
I1
sVdfvfaql
p950
I1
sVd1isate
p951
I1
sVdkiyuhr
p952
I2
sVd5nlsqr
p953
I1
sVd881g8j
p954
I2
sVcyzh66o
p955
I1
sVdcg9hxr
p956
I1
sVd3facta
p957
I1
sVd7re6us
p958
I1
sVdks4lwc
p959
I1
sVdobv7c1
p960
I1
sVd1h2dlo
p961
I1
sVdhs08za
p962
I1
sVd2ms5kx
p963
I1
sVdqdpd4g
p964
I1
sVdjg2mq7
p965
I2
sVd0jh4t8
p966
I1
sVda6ge80
p967
I1
sVd2ynywq
p968
I1
sVdfxbfre
p969
I1
sVd1xchae
p970
I1
sVdaqlipt
p971
I2
sVdn5q48n
p972
I2
sVdfea7ph
p973
I1
sVd80l7kr
p974
I1
sVd0b263i
p975
I1
sVdi2uebk
p976
I1
sVdi899bz
p977
I1
sVdax87jr
p978
I2
sVdgwpc7j
p979
I1
sVdjcvnxa
p980
I1
sVd1br9e9
p981
I1
sVdjzv6dp
p982
I2
sVdmeqzri
p983
I1
sVdg3znut
p984
I1
sVdk41kqf
p985
I1
sVdk8al5s
p986
I1
sVddwd85q
p987
I1
sVcyi47bu
p988
I1
sVcz0cf9v
p989
I1
sVdg5huqu
p990
I1
sVd23oz3i
p991
I1
sVd9wxx5d
p992
I1
sVdho8h5q
p993
I2
sVd2uuwfk
p994
I1
sVczxvr7q
p995
I1
sVdq9x99s
p996
I1
sVd043ylo
p997
I1
sVd7ua6ek
p998
I1
sVd1c96dx
p999
I1
sVdd9libz
p1000
I1
sVdffnp09
p1001
I1
sVd27axhd
p1002
I1
sVddculqw
p1003
I1
sVdjz0t8v
p1004
I1
sVdfhn71h
p1005
I1
sVd0akbjy
p1006
I1
sVd9ec40l
p1007
I1
sVd0juraa
p1008
I1
sVcz12b3o
p1009
I1
sVdsvrofn
p1010
I1
sVdazmak4
p1011
I1
sVdgrtpws
p1012
I1
sVd7xgmko
p1013
I1
sVds1tv42
p1014
I1
sVd2xznmb
p1015
I1
sVdjgul6u
p1016
I1
sVdduamvu
p1017
I1
sVdkdvwdw
p1018
I1
sVd3hbcti
p1019
I2
sVdh699cu
p1020
I1
sVd08l0vt
p1021
I1
sVd63aev0
p1022
I1
sVdcw58gt
p1023
I1
sVd84e8xp
p1024
I1
sVd0dvl8k
p1025
I1
sVdgb2092
p1026
I1
sVdepfbwu
p1027
I1
sVcyqth82
p1028
I1
sVdq2t5y8
p1029
I1
sVdteldka
p1030
I1
sVd5gto1a
p1031
I1
sVdnjrdou
p1032
I1
sVd353zkd
p1033
I1
sVd26v8t2
p1034
I3
sVdkx4j9q
p1035
I1
sVdd4ye15
p1036
I1
sVdqxhxka
p1037
I2
sVd0kpden
p1038
I1
sVd3845uc
p1039
I4
sVdqq9mni
p1040
I1
sVdk9sgi8
p1041
I1
sVdi6dwra
p1042
I1
sVd7mxnpw
p1043
I1
sVdd42l7m
p1044
I1
sVdi9vd9k
p1045
I1
sVd1idpo4
p1046
I1
sVdtbk7dc
p1047
I1
sVd0i7mch
p1048
I1
sVdbbekc4
p1049
I1
sVddp6oq5
p1050
I1
sVdahutyi
p1051
I1
sVdba2gr2
p1052
I1
sVd28sdjg
p1053
I1
sVd3u0h23
p1054
I1
sVds01p99
p1055
I1
sVcyw4t27
p1056
I1
sVdk0ynst
p1057
I1
sVdaukxoy
p1058
I1
sVd07932m
p1059
I1
sVdjnwfcl
p1060
I1
sVdhn4yv4
p1061
I1
sVd178rtl
p1062
I1
sVdizzg7l
p1063
I1
sVd21ey74
p1064
I1
sVdfd0ojh
p1065
I1
sVdglja93
p1066
I1
sVdj37hzb
p1067
I1
sVd2lxkv1
p1068
I1
sVd6gu2v8
p1069
I1
sVdjasayb
p1070
I1
sVdh2jinc
p1071
I1
sVdt23ecz
p1072
I1
sVdbghtaj
p1073
I1
sVd9my16w
p1074
I1
sVdsyvhfc
p1075
I1
sVd4pense
p1076
I1
sVd23hoeo
p1077
I1
sVdgb9tmf
p1078
I1
sVdijjr16
p1079
I1
sVd998iif
p1080
I1
sVd8jv6yt
p1081
I1
sVdach8jb
p1082
I1
sVczzeff2
p1083
I1
sVdswk1st
p1084
I1
sVd803i5o
p1085
I1
sVcz95zn9
p1086
I1
sVdpbnwgc
p1087
I2
sVdducppo
p1088
I1
sVdedvft2
p1089
I1
sVddu46vp
p1090
I1
sVdj5le4w
p1091
I1
sVdnivttg
p1092
I1
sVdo4xcd4
p1093
I1
sVdquoji1
p1094
I1
sVdhfsvbn
p1095
I1
sVdoooydb
p1096
I1
sVd3de1r3
p1097
I1
sVdifqdq6
p1098
I1
sVd2hnr1e
p1099
I1
sVd6eqp4y
p1100
I1
sVd3eebt5
p1101
I1
sVdhneolj
p1102
I1
sVd2ztik6
p1103
I1
sVdjshyld
p1104
I1
sVd8rohxu
p1105
I1
sVczttgc5
p1106
I1
sVd7k0q69
p1107
I3
sVd4qzn79
p1108
I1
sVdn12dxx
p1109
I4
sVd2w39xs
p1110
I1
sVd1d9mzn
p1111
I1
sVd69fvmv
p1112
I1
sVd38nlv5
p1113
I1
sVdirwq0y
p1114
I1
sVd30nmgf
p1115
I1
sVdo1skf2
p1116
I1
sVdt4uirt
p1117
I1
sVd2wyrb3
p1118
I1
sVdi2v5ix
p1119
I1
sVdhapqhd
p1120
I1
sVdd5f1cc
p1121
I1
sVds83ltt
p1122
I1
sVde4k6x3
p1123
I1
sVdg62li8
p1124
I1
sVdn4oe2d
p1125
I1
sVdbrfj6x
p1126
I2
sVd9k8v8p
p1127
I1
sVdcm6gll
p1128
I1
sVd6mayq9
p1129
I1
sVd0ovwhd
p1130
I1
sVdgkm7ob
p1131
I1
sVdjj76fa
p1132
I1
sVdbg0c9h
p1133
I1
sVczom8hx
p1134
I1
sVdj4oes4
p1135
I1
sVd6tcl8o
p1136
I1
sVdncjcvr
p1137
I1
sVdf1beno
p1138
I1
sVd4sfhlw
p1139
I2
sVczuxy7d
p1140
I1
sVd3h5sq1
p1141
I1
sVczmcxm9
p1142
I1
sVdo1wkzt
p1143
I1
sVdrv0mck
p1144
I1
sVdqqxdk7
p1145
I1
sVd2bg4nh
p1146
I1
sVd0qp3lw
p1147
I1
sVdjrdcuj
p1148
I1
sVd22zg2e
p1149
I1
sVdhh8598
p1150
I1
sVdhfvztt
p1151
I1
sVdenl1bh
p1152
I1
sVd43mlia
p1153
I1
sVdo28cb0
p1154
I1
sVd3k6ll8
p1155
I2
sVdej61ws
p1156
I1
sVd9pcvxw
p1157
I1
sVd3rt6cl
p1158
I1
sVdb2im8s
p1159
I1
sVdic838w
p1160
I1
sVd7338ch
p1161
I1
sVdftnkoo
p1162
I1
sVddwclsl
p1163
I1
sVd8ul7hq
p1164
I1
sVd27bdec
p1165
I1
sVdbfqr0q
p1166
I1
sVd8y02jd
p1167
I1
sVdiglmp3
p1168
I1
sVdnppei5
p1169
I1
sVdga96q6
p1170
I1
sVdf1p284
p1171
I2
sVdi0qsaa
p1172
I1
sVdcmh5t5
p1173
I1
sVd8p14rn
p1174
I2
sVdcmuw51
p1175
I1
sVdgqaxlt
p1176
I1
sVdiyzakk
p1177
I1
sVdbci6sc
p1178
I1
sVdg2ttf8
p1179
I1
sVczjqny5
p1180
I1
sVd0c02a1
p1181
I1
sVdd596c7
p1182
I1
sVd9lg8dk
p1183
I1
sVd313dhm
p1184
I1
sVdnzgnvp
p1185
I1
sVdkwrs32
p1186
I1
sVcyv9esl
p1187
I1
sVdgy8mnr
p1188
I1
sVdfj2lrx
p1189
I1
sVd7e0j1u
p1190
I1
sVd0ei24f
p1191
I1
sVdngie7w
p1192
I1
sVd60pona
p1193
I1
sVd07a799
p1194
I1
sVd2ltj2z
p1195
I1
sVdprddt2
p1196
I1
sVdg6y6u4
p1197
I1
sVddxesnb
p1198
I1
sVd1cjfxw
p1199
I1
sVddclaff
p1200
I1
sVde59za1
p1201
I1
sVdcc9x3f
p1202
I1
sVcykffyc
p1203
I1
sVdf0wapj
p1204
I2
sVd27a50j
p1205
I1
sVddiqq8a
p1206
I1
sVdf1us9i
p1207
I1
sVde3q1q7
p1208
I1
sVczncohd
p1209
I1
sVdkkxg4f
p1210
I1
sVdsvjf2b
p1211
I1
sVcz7q8g4
p1212
I1
sVd19hg9u
p1213
I1
sVd9t74pv
p1214
I1
sVdaa3nx4
p1215
I1
sVdgbiah6
p1216
I1
sVd49gmso
p1217
I1
sVdnpb81r
p1218
I1
sVdiaj2hn
p1219
I1
sVd55f544
p1220
I1
sVd3k59lw
p1221
I1
sVdnnbkj4
p1222
I1
sVdo5jjhn
p1223
I3
sVd7nndmu
p1224
I1
sVdmv54yu
p1225
I1
sVd6kotxa
p1226
I1
sVd0dk2v1
p1227
I1
sVdqun1j9
p1228
I1
sVdmla2i7
p1229
I1
sVdo2ryiy
p1230
I1
sVdffg5l6
p1231
I1
sVcylh3du
p1232
I1
sVdeq1o2x
p1233
I1
sVdnpom5j
p1234
I1
sVd0ohpen
p1235
I1
sVda0nsq2
p1236
I1
sVdkj44v3
p1237
I1
sVd8wpxsf
p1238
I1
sVdi942xr
p1239
I1
sVdjsm6la
p1240
I1
sVdh0vdk1
p1241
I1
sVdd3fx7e
p1242
I1
sVdkm5vh0
p1243
I1
sVdettuyy
p1244
I1
sVdgb6kjf
p1245
I1
sVdcby7qj
p1246
I1
sVdf6hoyn
p1247
I1
sVdevdxpm
p1248
I1
sVczff282
p1249
I1
sVdcmnlpm
p1250
I1
sVd171vcq
p1251
I1
sVdgzt6yb
p1252
I1
sVd9g4yur
p1253
I1
sVd4pi6b6
p1254
I2
sVd59va9b
p1255
I1
sVd8qkmd7
p1256
I1
sVcyjaxya
p1257
I1
sVcyjvxeo
p1258
I1
sVdkf06e2
p1259
I1
sVdnvfy8g
p1260
I1
sVcz05tpx
p1261
I1
sVcyjsdd2
p1262
I1
sVd5t8d12
p1263
I1
sVd0naixq
p1264
I1
sVd03fy4i
p1265
I1
sVcz803yg
p1266
I1
sVdkfvwm7
p1267
I1
sVdcdfiuw
p1268
I1
sVddp7mnr
p1269
I1
sVd4lg7gk
p1270
I1
sVdk4m3cs
p1271
I1
sVd1jpx0m
p1272
I1
sVdg5phjt
p1273
I1
sVd4k9ggz
p1274
I1
sVdq02g1l
p1275
I1
sVd8k2pkd
p1276
I1
sVdr48qtl
p1277
I1
sVd40es44
p1278
I1
sVdqkwjsf
p1279
I1
sVdbeb37u
p1280
I1
sVd2uy1pk
p1281
I1
sVdgcql5u
p1282
I2
sVczyy9ay
p1283
I1
sVdqqxa8t
p1284
I1
sVde8len7
p1285
I1
sVday1dbe
p1286
I1
sVczb3g8p
p1287
I1
sVdobhcat
p1288
I1
sVdgfqjm6
p1289
I1
sVdcvu5t4
p1290
I1
sVdnu9t7t
p1291
I1
sVd01dm3a
p1292
I1
sVd51i19l
p1293
I1
sVd4n8q4y
p1294
I1
sVd3ry0cj
p1295
I1
sVd259x8g
p1296
I1
sVdj8r0nl
p1297
I1
sVdgzckxt
p1298
I1
sVdfc784s
p1299
I1
sVcz9dpzl
p1300
I1
sVcyo3vwg
p1301
I1
sVdckqsax
p1302
I1
sVde3ehgq
p1303
I1
sVddctb4b
p1304
I1
sVd38v3bd
p1305
I1
sVd52ghut
p1306
I1
sVczzzsop
p1307
I3
sVdeqsazx
p1308
I1
sVdhhj5yr
p1309
I1
sVcz9f3fz
p1310
I1
sVd8j5xph
p1311
I1
sVd4khqu2
p1312
I1
sVd0xb5ft
p1313
I2
sVd24wock
p1314
I1
sVd1nvxxl
p1315
I1
sVd00h92y
p1316
I1
sVdaei43r
p1317
I1
sVcynzj6i
p1318
I1
sVdc2hcml
p1319
I1
sVdf6i5yb
p1320
I1
sVd28r6m4
p1321
I1
sVdnaw3k0
p1322
I1
sVddwhdhs
p1323
I1
sVd1sechw
p1324
I1
sVd1ffe9j
p1325
I1
sVd30uxzb
p1326
I1
sVdmt6258
p1327
I1
sVcyi83uc
p1328
I1
sVd5vosd9
p1329
I1
sVcyjo9q0
p1330
I1
sVddktjn1
p1331
I1
sVdmnk88q
p1332
I1
sVdg6u23g
p1333
I1
sVd0x7b9t
p1334
I1
sVdfvrpah
p1335
I1
sVd0c9mcl
p1336
I1
sVd8ylddz
p1337
I1
sVdbpbq93
p1338
I1
sVdcfc8xc
p1339
I1
sVd5et3er
p1340
I1
sVdd3jnkk
p1341
I1
sVdnepht2
p1342
I1
sVdql8o7e
p1343
I4
sVdcegidg
p1344
I1
sVdfyih5t
p1345
I1
sVddzarah
p1346
I1
sVd5jd4tv
p1347
I1
sVd5gsaav
p1348
I2
sVdnxdf3e
p1349
I1
sVcyvx7jh
p1350
I1
sVdshn305
p1351
I1
sVdj3qr14
p1352
I1
sVdo4vij1
p1353
I1
sVcyxxl1v
p1354
I1
sVdk2qtzc
p1355
I1
sVdjm5ey0
p1356
I1
sVdfmhuup
p1357
I1
sVdjd78ax
p1358
I1
sVdocetxe
p1359
I1
sVdgu4rdg
p1360
I1
sVd4ujnvo
p1361
I1
sVd4k673h
p1362
I1
sVdmoypiz
p1363
I1
sVczv8doq
p1364
I1
sVdfvqpk4
p1365
I1
sVd98wbl4
p1366
I1
sVcz2f55m
p1367
I2
sVdbe8edd
p1368
I1
sVcyoxbht
p1369
I2
sVdg4vzdf
p1370
I1
sVdd8i3y1
p1371
I1
sVd6vgboh
p1372
I1
sVdcsqdvw
p1373
I1
sVczmqql0
p1374
I1
sVdoojnn4
p1375
I1
sVd9mqe89
p1376
I1
sVdb8ht3z
p1377
I1
sVdcx54mi
p1378
I1
sVd3k6x7i
p1379
I1
sVdd36ves
p1380
I1
sVd2p2jwr
p1381
I1
sVcynxo4o
p1382
I1
sVdk10hbv
p1383
I1
sVddmx4m6
p1384
I1
sVd3x4rfn
p1385
I1
sVdmfzn1r
p1386
I1
sVdo70dl6
p1387
I1
sVcyhtnrc
p1388
I1
sVd69mnz7
p1389
I1
sVdq00163
p1390
I1
sVd0napf0
p1391
I1
sVd8ruozs
p1392
I1
sVcztciy0
p1393
I1
sVczi79k1
p1394
I1
sVdhjupuc
p1395
I1
sVddvx1hn
p1396
I2
sVde0oj21
p1397
I1
sVdhchs6e
p1398
I1
sVdfto716
p1399
I1
sVdi68id0
p1400
I1
sVdknlxig
p1401
I1
sVd49wgqg
p1402
I2
sVda6xf1h
p1403
I1
sVd79ne97
p1404
I2
sVdo9aw72
p1405
I1
sVdppgf3o
p1406
I1
sVds4tknm
p1407
I1
sVd5txn1n
p1408
I1
sVd80j8li
p1409
I1
sVdo24ma1
p1410
I1
sVdnrhire
p1411
I2
sVdk360od
p1412
I1
sVd8j9cam
p1413
I1
sVd2c0isl
p1414
I1
sVdemdojl
p1415
I1
sVcz53tvm
p1416
I1
sVdehu5o5
p1417
I1
sVd5ky7a0
p1418
I1
sVd7aqx68
p1419
I1
sVdoz9de0
p1420
I1
sVd078nl8
p1421
I1
sVdkz1nk8
p1422
I1
sVd8qi2bh
p1423
I2
sVdj0y1es
p1424
I1
sVd065b0z
p1425
I1
sVd8orh7b
p1426
I1
sVd5aww5w
p1427
I1
sVdn8diis
p1428
I1
sVds1i8kb
p1429
I1
sVdgq0id3
p1430
I1
sVd4bambz
p1431
I1
sVdcjavvo
p1432
I1
sVdgwom8g
p1433
I1
sVdazt92r
p1434
I1
sVd6vzle3
p1435
I1
sVdjwufi4
p1436
I1
sVdb08wl6
p1437
I1
sVd8ctqvt
p1438
I1
sVd4gml1i
p1439
I1
sVdkosp84
p1440
I1
sVdhx6hv5
p1441
I1
sVd0z84em
p1442
I1
sVdmjbvqq
p1443
I1
sVd9lqxwg
p1444
I1
sVddlkomx
p1445
I1
sVd0tqzhy
p1446
I1
sVd3u3c5v
p1447
I1
sVdkr21od
p1448
I1
sVdpc05uw
p1449
I1
sVdd8auki
p1450
I1
sVd33mwjz
p1451
I1
sVd7mzg1y
p1452
I1
sVd2a84g3
p1453
I1
sVd31e8om
p1454
I1
sVd2ddobe
p1455
I1
sVczxdnq1
p1456
I1
sVdsaixwq
p1457
I1
sVd5d6ng0
p1458
I1
sVcyzuor1
p1459
I1
sVcynipbj
p1460
I1
sVczv2md7
p1461
I1
sVdbapx9b
p1462
I1
sVd1w9jb1
p1463
I1
sVdr0m13z
p1464
I1
sVdmwxypl
p1465
I1
sVcz02tx0
p1466
I1
sVd1edy4e
p1467
I1
sVd7e8g4w
p1468
I1
sVdaf2pd6
p1469
I1
sVdfk53lq
p1470
I1
sVdmzsyip
p1471
I1
sVdf165v6
p1472
I1
sVd342blp
p1473
I1
sVd7j7ils
p1474
I1
sVdeq77i1
p1475
I1
sVcypqwva
p1476
I1
sVd6s8dws
p1477
I1
sVdnb57jd
p1478
I1
sVdcbeure
p1479
I1
sVdnb5n90
p1480
I1
sVd3oq8r8
p1481
I1
sVd2rpy6y
p1482
I1
sVd1a6y8g
p1483
I1
sVdh6nnpa
p1484
I1
sVcztd9z0
p1485
I1
sVd3dgmzn
p1486
I1
sVddcd9dk
p1487
I1
sVdmffyvc
p1488
I1
sVds1o2i5
p1489
I1
sVd61ka5p
p1490
I2
sVd3i2gr4
p1491
I2
sVdmvqm5y
p1492
I1
sVd9rj6me
p1493
I1
sVd10p6ml
p1494
I1
sVdpm496v
p1495
I1
sVd0llswe
p1496
I1
sVd2lut0o
p1497
I1
sVd5f1hap
p1498
I1
sVd7edc4s
p1499
I1
sVd1d8j3r
p1500
I1
sVd9fywor
p1501
I1
sVdivaebl
p1502
I1
sVd220t2v
p1503
I1
sVdk5el8t
p1504
I1
sVd57xmc2
p1505
I1
sVd9iua41
p1506
I1
sVd1cj82l
p1507
I1
sVcyzzbni
p1508
I1
sVcztbuyd
p1509
I1
sVdfkhtu2
p1510
I1
sVda45lls
p1511
I1
sVd6hd589
p1512
I1
sVd3u5lfx
p1513
I1
sVdpmqr6l
p1514
I1
sVdkaw8b2
p1515
I1
sVd6jbdcd
p1516
I1
sVczsb1cy
p1517
I1
sVdnlsh54
p1518
I1
sVdthfoik
p1519
I1
sVd055q7l
p1520
I1
sVds7vvhk
p1521
I1
sVd6qo3ue
p1522
I1
sVd06heyt
p1523
I1
sVdd1p8uk
p1524
I1
sVdcpiitx
p1525
I1
sVd9kn178
p1526
I1
sVdn5cw1w
p1527
I1
sVd9a6zyk
p1528
I1
sVdnuqce3
p1529
I1
sVd9oys12
p1530
I1
sVd9njkw3
p1531
I2
sVdhtpdyc
p1532
I1
sVd1zw4u9
p1533
I1
sVdppsfwi
p1534
I1
sVdkujdj5
p1535
I1
sVdimlixo
p1536
I1
sVdi1jxg2
p1537
I1
sVd8j0g5f
p1538
I1
sVdhv97ss
p1539
I1
sVdhfccgk
p1540
I1
sVd719xsf
p1541
I1
sVdj5ixq8
p1542
I1
sVd2wq1py
p1543
I1
sVdnx8c35
p1544
I1
sVd4512zc
p1545
I1
sVdr28stm
p1546
I1
sVdjekz8m
p1547
I1
sVd5blc1x
p1548
I1
sVdj4lcj3
p1549
I1
sVdp3gx2w
p1550
I1
sVdo706wu
p1551
I1
sVdjrvytv
p1552
I1
sVcyk7s2k
p1553
I1
sVcyk8fp7
p1554
I1
sVd9ue820
p1555
I1
sVdgmqjp8
p1556
I1
sVd372iz3
p1557
I1
sVddowmgy
p1558
I1
sVd8gpdp6
p1559
I1
sVds68rdl
p1560
I1
sVdql7tmr
p1561
I2
sVdcsfxcx
p1562
I1
sVdg7351b
p1563
I1
sVdgbip1j
p1564
I1
sVd9jerjr
p1565
I1
sVd8s1n5g
p1566
I1
sVdsf9zsq
p1567
I1
sVdqgzqut
p1568
I1
sVd8vs14y
p1569
I1
sVczk1j4a
p1570
I1
sVdgmom64
p1571
I1
sVdmvx04p
p1572
I1
sVd19r01e
p1573
I1
sVczp4cjm
p1574
I1
sVdmo7fp2
p1575
I1
sVdo4peg4
p1576
I1
sVdd7z7kh
p1577
I1
sVd6vw14g
p1578
I3
sVdhi8sxa
p1579
I1
sVd6a5ppr
p1580
I1
sVcykt06w
p1581
I1
sVdjqm2z2
p1582
I1
sVde22lbe
p1583
I1
sVdqldevm
p1584
I1
sVdmpkrum
p1585
I1
sVd21g9sy
p1586
I1
sVdga1f71
p1587
I1
sVcyok4f9
p1588
I1
sVd1xem42
p1589
I1
sVdo9l786
p1590
I1
sVd8thml3
p1591
I1
sVda7k7jg
p1592
I1
sVdhsfsor
p1593
I1
sVd2ct8qh
p1594
I1
sVczyp3rn
p1595
I1
sVcz0ao0c
p1596
I1
sVdn4dw27
p1597
I1
sVdatg1ks
p1598
I1
sVdoeomn5
p1599
I1
sVd59xvzv
p1600
I1
sVd3up7ql
p1601
I1
sVd8zzagb
p1602
I1
sVdca6cxp
p1603
I1
sVczepygj
p1604
I1
sVd1e1e9t
p1605
I1
sVd0rwva5
p1606
I2
sVdi408gj
p1607
I1
sVd6wt6lx
p1608
I2
sVd2tj3cp
p1609
I1
sVdf8zspi
p1610
I1
sVdbb6txt
p1611
I1
sVddv1m0i
p1612
I1
sVdetwqbw
p1613
I1
sVd30xj3u
p1614
I1
sVdkqnflq
p1615
I1
sVd3gzmfk
p1616
I1
sVdffhdum
p1617
I1
sVdal63d6
p1618
I1
sVd27yy8p
p1619
I1
sVcz3u62d
p1620
I1
sVdhn6xh0
p1621
I1
sVd59xq2a
p1622
I1
sVdfyrrc5
p1623
I2
sVd1e1ha6
p1624
I2
sVdb71rpa
p1625
I1
sVdpx55q9
p1626
I1
sVdoewj72
p1627
I1
sVddbr713
p1628
I1
sVd037kwj
p1629
I1
sVd2wu50r
p1630
I1
sVd3hqhih
p1631
I2
sVdcg9iky
p1632
I1
sVdj78g71
p1633
I1
sVdip7nrl
p1634
I1
sVd5vxw84
p1635
I1
sVd87np60
p1636
I1
sVd0fzuum
p1637
I1
sVcyrthia
p1638
I1
sVdcmv570
p1639
I1
sVd8q7f25
p1640
I1
sVd9b8wyk
p1641
I1
sVcz77j67
p1642
I1
sVd1qtt19
p1643
I1
sVd3op8qr
p1644
I1
sVd4swinc
p1645
I1
sVd05i7qd
p1646
I1
sVda4avix
p1647
I1
sVdtd0l8r
p1648
I1
sVd7fsc0m
p1649
I1
sVda2xeq2
p1650
I1
sVdbczl9b
p1651
I1
sVd5geedy
p1652
I1
sVd2jjc4a
p1653
I1
sVd22szaj
p1654
I1
sVd9mz4at
p1655
I1
sVdgtvve1
p1656
I1
sVd3wrq08
p1657
I1
sVdotkmey
p1658
I1
sVdb492mi
p1659
I1
sVdan0x77
p1660
I1
sVd1gkbcl
p1661
I1
sVdhrxkw0
p1662
I1
sVdc08voi
p1663
I1
sVdi55vew
p1664
I1
sVdf8k41a
p1665
I1
sVdemh58o
p1666
I1
sVcz4i8bq
p1667
I1
sVd921r5d
p1668
I2
sVdkv9067
p1669
I1
sVdj2rzqv
p1670
I1
sVdjxas7i
p1671
I1
sVdfsxrb0
p1672
I1
sVdiwt9b4
p1673
I1
sVdao0x7s
p1674
I1
sVdgx5zn1
p1675
I1
sVdjzo6ow
p1676
I1
sVd6jc8ad
p1677
I1
sVd2673gq
p1678
I1
sVdqz9xit
p1679
I1
sVdbk7bto
p1680
I1
sVdsie87n
p1681
I3
sVd2026py
p1682
I1
sVd75qd3w
p1683
I1
sVd1tepwi
p1684
I1
sVd2zil5g
p1685
I1
sVd70ypii
p1686
I1
sVd97hcaj
p1687
I1
sVddkg7z1
p1688
I1
sVd3dyr89
p1689
I1
sVd8xv6ec
p1690
I1
sVcywb5xt
p1691
I1
sVdmtugn4
p1692
I1
sVdjcn48g
p1693
I1
sVdmfotil
p1694
I1
sVdg3jcxn
p1695
I1
sVdfgkopr
p1696
I1
sVd9tudqh
p1697
I1
sVdcu0xbw
p1698
I1
sVdo5nxw3
p1699
I1
sVd801jn8
p1700
I1
sVd2jjl7l
p1701
I1
sVd9y53w0
p1702
I1
sVd8w4fop
p1703
I2
sVdjh040v
p1704
I1
sVd4o7ziv
p1705
I1
sVdergrpf
p1706
I1
sVdo6i7pf
p1707
I1
sVdel87jw
p1708
I1
sVdem2qh6
p1709
I1
sVdqmxukl
p1710
I1
sVd7f4lcy
p1711
I1
sVd05isz8
p1712
I1
sVcyr5i3g
p1713
I2
sVd0vhnlw
p1714
I1
sVd2xnv6a
p1715
I1
sVdgm3guk
p1716
I1
sVdehtwoc
p1717
I1
sVd59l0fl
p1718
I1
sVczvzak1
p1719
I1
sVd492rds
p1720
I1
sVdfwq24d
p1721
I1
sVd52jf7p
p1722
I1
sVdezv58v
p1723
I1
sVdqq34ie
p1724
I1
sVd4tifrh
p1725
I1
sVdhu3ga4
p1726
I1
sVcz16h27
p1727
I1
sVd1p1ux1
p1728
I1
sVd7p458n
p1729
I1
sVda2u99w
p1730
I1
sVdad05n8
p1731
I1
sVd01crmo
p1732
I1
sVd8hmm7h
p1733
I1
sVdb6drys
p1734
I1
sVdj4wtxv
p1735
I1
sVd9xjlo8
p1736
I1
sVd1aqtxv
p1737
I1
sVdpljfuj
p1738
I1
sVczbfmm7
p1739
I1
sVdbwgw03
p1740
I1
sVda5jxvm
p1741
I1
sVdbx4xak
p1742
I1
sVdg7vft6
p1743
I1
sVdqb8frf
p1744
I1
sVcz996ro
p1745
I1
sVd44zwfx
p1746
I1
sVdf4note
p1747
I1
sVdd7f9fw
p1748
I1
sVdhn68gf
p1749
I1
sVdbieap9
p1750
I1
sVd2qvg46
p1751
I1
sVczfmp7j
p1752
I1
sVdn7t3an
p1753
I1
sVdpxwx9s
p1754
I1
sVdercxil
p1755
I1
sVdges8f8
p1756
I1
sVd4a9bzd
p1757
I1
sVczgte3t
p1758
I1
sVdg5x3pj
p1759
I1
sVdsv7eti
p1760
I1
sVd978zfq
p1761
I1
sVd79n10a
p1762
I1
sVdd2yg9n
p1763
I1
sVd7fphp0
p1764
I1
sVdgesqxx
p1765
I1
sVdny7kof
p1766
I1
sVdkyrr9d
p1767
I1
sVdc9ivnb
p1768
I1
sVdhownen
p1769
I1
sVcz096ep
p1770
I1
sVdb308ys
p1771
I1
sVdggvnex
p1772
I1
sVdb3m6ut
p1773
I1
sVdeumw89
p1774
I1
sVdqt4o42
p1775
I1
sVcyvdvc8
p1776
I1
sVdngnphk
p1777
I1
sVdmrkbkj
p1778
I1
sVdfrj5up
p1779
I1
sVdtb0s9a
p1780
I1
sVdfamwz2
p1781
I1
sVdj9vnd2
p1782
I1
sVdb5y4dx
p1783
I1
sVdepon40
p1784
I1
sVdgw5i90
p1785
I1
sVdj1vj5s
p1786
I1
sVdhezquf
p1787
I1
sVdg8ac7i
p1788
I1
sVdbvy8pq
p1789
I1
sVdjdhvjd
p1790
I1
sVdg8bd8p
p1791
I1
sVcysrwul
p1792
I1
sVd3w91on
p1793
I1
sVdhznr68
p1794
I1
sVd41txi0
p1795
I1
sVdjhw20q
p1796
I1
sVd7au2e9
p1797
I1
sVdejny0d
p1798
I1
sVde23zab
p1799
I1
sVd37moi7
p1800
I1
sVddu72d3
p1801
I1
sVdnhkod3
p1802
I1
sVd0fxmtq
p1803
I1
sVdnvx5hh
p1804
I1
sVd3qotfk
p1805
I1
sVdfvn9es
p1806
I1
sVdp1406u
p1807
I1
sVd29k4qg
p1808
I1
sVdkx69lg
p1809
I1
sVdc7ou7w
p1810
I1
sVd8iwcvt
p1811
I1
sVdsd5xdq
p1812
I1
sVdchfkxl
p1813
I1
sVdfyj9dh
p1814
I1
sVd5rxzf3
p1815
I1
sVdbj17hp
p1816
I1
sVd382fjd
p1817
I1
sVd8di0vg
p1818
I1
sVdi617ec
p1819
I1
sVd0c5ndr
p1820
I1
sVd4pg9mo
p1821
I1
sVdfr38vx
p1822
I1
sVdsjbf6k
p1823
I1
sVdgmeft4
p1824
I1
sVdhunkwp
p1825
I1
sVcytxda7
p1826
I1
sVdmzukbx
p1827
I1
sVd0kvgaq
p1828
I1
sVdmxnx8j
p1829
I1
sVdbjclb8
p1830
I1
sVd0ozjy5
p1831
I3
sVdguzo24
p1832
I1
sVdgu502c
p1833
I1
sVdso67mj
p1834
I1
sVdd9d9x4
p1835
I1
sVd06e8sl
p1836
I1
sVd05wg8r
p1837
I1
sVdtah88y
p1838
I1
sVdd8kgte
p1839
I1
sVds3hgom
p1840
I1
sVdibah82
p1841
I1
sVde3jo7k
p1842
I1
sVd184pjl
p1843
I1
sVczbp4ch
p1844
I1
sVdi689y3
p1845
I1
sVd12mbvl
p1846
I1
sVd3si85x
p1847
I1
sVd5i3wvc
p1848
I1
sVddofqna
p1849
I1
sVdqni23q
p1850
I1
sVd99pran
p1851
I1
sVds60fd7
p1852
I1
sVdfzuoap
p1853
I1
sVdg7c9ov
p1854
I1
sVdfvtlbz
p1855
I1
sVdewne6f
p1856
I1
sVdj619jq
p1857
I1
sVd09mzrg
p1858
I1
sVd71jimz
p1859
I1
sVdacjv99
p1860
I1
sVdnma755
p1861
I1
sVd6en15n
p1862
I1
sVdjefns8
p1863
I1
sVd2an49o
p1864
I1
sVd9r20mh
p1865
I1
sVdbyndb0
p1866
I1
sVd0xzcdv
p1867
I1
sVd79o1fm
p1868
I1
sVd2qz7tr
p1869
I1
sVdax6h3s
p1870
I1
sVd1imlvw
p1871
I1
sVd7qpk40
p1872
I1
sVd1k4hmg
p1873
I1
sVdh2t909
p1874
I1
sVdeoet0j
p1875
I1
sVd67hoki
p1876
I1
sVcyixtjp
p1877
I1
sVdeqcwt3
p1878
I2
sVcyjcswz
p1879
I1
sVdjkchai
p1880
I2
sVd97nzqm
p1881
I1
sVddek56z
p1882
I1
sVdd3xkek
p1883
I1
sVd0sy2ud
p1884
I1
sVd1d6r6j
p1885
I1
sVd4s8w3l
p1886
I1
sVd39usc7
p1887
I1
sVdbip7ka
p1888
I1
sVczxapcy
p1889
I1
sVde2ng4l
p1890
I1
sVdg88x52
p1891
I1
sVczrj1h6
p1892
I1
sVd3fa2jx
p1893
I1
sVdc2xqtp
p1894
I1
sVdh7tfo9
p1895
I1
sVd9uy4i5
p1896
I2
sVcyu1r1r
p1897
I1
sVd5pnwr1
p1898
I1
sVdj6z318
p1899
I1
sVd8a1e08
p1900
I1
sVdh9cf3i
p1901
I1
sVd3ui348
p1902
I1
sVd2xxq28
p1903
I1
sVd0enysk
p1904
I1
sVdiv3igg
p1905
I1
sVd0qmj5d
p1906
I1
sVd1dum95
p1907
I1
sVdoaeeba
p1908
I1
sVdjdl9pi
p1909
I1
sVdmh0t62
p1910
I1
sVd0m01oh
p1911
I1
sVdkutfmm
p1912
I1
sVdsid5fu
p1913
I1
sVdpljh45
p1914
I1
sVd16hh30
p1915
I1
sVdj0ur5a
p1916
I1
sVd0ku7lw
p1917
I1
sVd13d758
p1918
I1
sVd1fmy31
p1919
I1
sVdqzvhrj
p1920
I1
sVdajkkcs
p1921
I1
sVd0i6jsu
p1922
I1
sVczhs40h
p1923
I1
sVdedi0bz
p1924
I1
sVd3sbdfa
p1925
I1
sVd3etyub
p1926
I1
sVdtbe41e
p1927
I1
sVdksxr8g
p1928
I1
sVd13jdz5
p1929
I1
s.