(dp0
Vd9z6tn6
p1
I1
s.(dp0
Vd9z6tn6
p1
I1
sVdbedimr
p2
I1
s.(dp0
Vd9z6tn6
p1
I1
sVdcbaobb
p2
I1
s.(dp0
Vd9z6tn6
p1
I1
sVdd8l7wb
p2
I1
s.(dp0
Vd9z6tn6
p1
I1
sVdqhn0j9
p2
I1
s.(dp0
Vd9z6tn6
p1
I1
sVdtabdwq
p2
I1
s.(dp0
Vd9z6tn6
p1
I1
sVdtbd4of
p2
I1
s.