(dp0
Vdkfniv0
p1
I1
sVd3iknjl
p2
I1
sVcyij58e
p3
I1
sVdefd965
p4
I2
sVd6lzvks
p5
I1
sVcztla86
p6
I1
sVd1c9ls0
p7
I1
sVdj616l0
p8
I1
sVd6jz85t
p9
I1
sVde48x7g
p10
I1
sVdfaxnaf
p11
I1
sVdjh7po2
p12
I1
sVdben4hn
p13
I1
sVdqz89xm
p14
I1
sVdocu8yf
p15
I1
sVdblghof
p16
I1
sVd3aq3xb
p17
I1
sVdix4024
p18
I1
sVdd64b7r
p19
I1
sVdetbx8c
p20
I1
sVd3xhocr
p21
I1
sVdecq9tr
p22
I1
sVd0pq5ju
p23
I1
sVd6gy4lu
p24
I1
sVd9btn45
p25
I1
sVd9rj80l
p26
I1
sVdmlvibk
p27
I1
sVdrf0bf1
p28
I1
sVdfhn71h
p29
I1
s.