(dp0
Vcz52u0y
p1
I1
sVd7o5n57
p2
I1
sVd0w8o5b
p3
I1
sVdteqli8
p4
I1
sVdbyxm7z
p5
I1
sVdf7xvtt
p6
I1
sVd4gqmki
p7
I1
sVdfzxaqm
p8
I1
sVdbib3me
p9
I1
sVd4ltj2o
p10
I1
sVd8mhale
p11
I1
sVd1dc6tk
p12
I1
sVd828uni
p13
I1
sVd1mzura
p14
I1
sVdd20928
p15
I1
sVdb63ev4
p16
I1
sVd1n5pa8
p17
I1
sVdjvhh2y
p18
I1
sVd4d5n1p
p19
I1
sVd2hjkoy
p20
I1
sVdii74m8
p21
I1
sVdt61rq3
p22
I1
sVdc2hu46
p23
I1
sVdii6k5v
p24
I1
sVdjotsn4
p25
I1
sVdb12qd5
p26
I1
sVddnzhc9
p27
I1
sVd23b8tx
p28
I1
sVdgar5nf
p29
I1
sVdkf5153
p30
I1
sVdq5k5l7
p31
I1
sVcyuahs8
p32
I1
sVd52qi9a
p33
I1
sVcyx5eme
p34
I1
sVdg9th20
p35
I1
sVdc6oyia
p36
I1
sVcz3tcnk
p37
I1
sVddb8sos
p38
I1
sVddi780i
p39
I1
sVdpiyzvq
p40
I1
sVd4zibw5
p41
I1
sVd7lix79
p42
I1
sVdt8nfbk
p43
I1
sVczk5v13
p44
I1
sVd90q32j
p45
I1
sVd1e68rz
p46
I1
sVd8z7o8z
p47
I1
sVdnaxpbq
p48
I1
sVd7cjlnb
p49
I1
sVdruf09s
p50
I1
sVcz7lnxz
p51
I1
sVdg5qr1w
p52
I1
sVd23k4jn
p53
I1
sVd98q4dy
p54
I1
sVcz4mzc4
p55
I1
sVdd94bir
p56
I1
sVd2ra9gq
p57
I1
sVdk5a9jm
p58
I1
sVdrp4r1q
p59
I1
sVdjtfmvc
p60
I1
sVd1n2pop
p61
I1
sVcyqe6ao
p62
I1
sVdirhloc
p63
I1
sVdcpt4zq
p64
I1
sVdauo0wg
p65
I1
sVddywudi
p66
I1
sVdbwciko
p67
I1
sVdcbclqz
p68
I1
sVd0kz4eo
p69
I1
sVdbej8k8
p70
I1
sVd89r86h
p71
I1
sVd9ankhu
p72
I1
s.