(dp0
Vdr1fq0s
p1
I1
sVdn2uxai
p2
I1
sVd6tioaa
p3
I1
sVdcchnm5
p4
I2
sVds4x3ad
p5
I1
sVdo8azdr
p6
I1
sVdfwa83c
p7
I1
sVd2ukkhr
p8
I1
sVddgpzl3
p9
I1
sVdfycvl3
p10
I1
sVdihs3gf
p11
I1
sVdpi3rr0
p12
I1
sVdp0k5hn
p13
I1
sVdhxy004
p14
I1
sVd09p0ah
p15
I2
sVde85av6
p16
I1
sVd9f1hsf
p17
I1
sVd1nd1lj
p18
I1
sVczb8dxd
p19
I1
sVd9vmpfc
p20
I1
sVd9ankhu
p21
I1
sVd06lccc
p22
I1
sVczb9t9t
p23
I1
sVcznlb5f
p24
I1
sVdop2d5r
p25
I1
sVdgo85fk
p26
I1
sVdr53aza
p27
I1
sVcyj3e18
p28
I1
sVddavr9n
p29
I1
sVd7trud1
p30
I1
sVd0071hn
p31
I1
sVd566sbc
p32
I1
sVdjwe91u
p33
I1
sVdprlhyx
p34
I1
sVdsntd11
p35
I1
sVd7wo3bk
p36
I1
sVdg374up
p37
I1
sVdhk1zqw
p38
I1
sVd2tfin2
p39
I1
sVde5o95t
p40
I1
sVcynrv8f
p41
I1
sVdi2bb5y
p42
I1
sVdjwu795
p43
I1
sVd68okms
p44
I1
sVdiskqng
p45
I1
sVda3nuzv
p46
I1
sVd8ksw6r
p47
I1
sVd4t29tw
p48
I1
sVczkhai5
p49
I1
sVd1v2hpd
p50
I1
sVdb381vn
p51
I1
sVdcc8wyl
p52
I1
sVd9vonso
p53
I1
sVdket1h2
p54
I1
sVdclm2tq
p55
I3
sVdce2m23
p56
I1
sVdkf1env
p57
I1
sVd3ocgyh
p58
I1
sVdq9bty4
p59
I1
sVdfay0qd
p60
I1
sVdqbfmuv
p61
I1
sVd050bax
p62
I1
sVdkb9m5m
p63
I1
sVcyj41vw
p64
I1
sVd3gfxav
p65
I1
sVczxun39
p66
I1
sVdqqy98k
p67
I1
sVdfn2mia
p68
I1
sVdol5820
p69
I1
sVd0jjr1m
p70
I1
sVd4kx4ws
p71
I1
sVday4zh9
p72
I1
sVdrtcfuy
p73
I1
sVd4adz0h
p74
I1
sVdbmekm7
p75
I1
sVdbn5d4i
p76
I1
sVczz9gyz
p77
I1
sVd7absfp
p78
I1
sVdgu3l6m
p79
I1
sVda3jy6k
p80
I1
sVd9n5n3h
p81
I1
sVd87asq5
p82
I1
sVczaqx9r
p83
I1
sVdt0qr07
p84
I1
sVd20hj6e
p85
I1
sVdhb3e8x
p86
I1
sVdqeev7d
p87
I2
sVd1kxyvv
p88
I1
sVd6u3wiz
p89
I1
sVd2i8gz0
p90
I1
sVdjb8bpd
p91
I1
sVd1rhg27
p92
I1
sVddnsa9t
p93
I1
sVdggjwxw
p94
I1
sVd2e92xm
p95
I2
sVd8uker7
p96
I1
sVdbaqosw
p97
I2
sVdb6v6e8
p98
I1
sVczesms5
p99
I1
sVdihgl5s
p100
I1
sVczbcnfe
p101
I1
sVdn2br9h
p102
I1
sVdielrmk
p103
I1
sVdnul7se
p104
I1
sVd6aj5w7
p105
I1
sVdeq6ogd
p106
I1
sVdghfdwp
p107
I1
sVd3lpzxt
p108
I1
sVdac9veo
p109
I1
sVddwgccl
p110
I1
sVd8nmkvu
p111
I2
sVdk4j9zo
p112
I1
sVddioixt
p113
I1
sVd26lcah
p114
I1
sVd01b4sx
p115
I1
sVddiviz4
p116
I1
sVdg86d2j
p117
I1
sVdasfag4
p118
I1
sVdgcuj9w
p119
I2
sVcyjja7d
p120
I1
sVdrrdws3
p121
I1
sVdad8ebb
p122
I1
sVcywidyw
p123
I1
sVdjtzyck
p124
I1
sVczy8h3l
p125
I1
sVddzqdkh
p126
I1
sVd8qer73
p127
I1
sVd1og6ch
p128
I1
sVd0zea5n
p129
I1
sVczg432s
p130
I1
sVdbn8ics
p131
I1
sVddwnur0
p132
I1
sVczov5iy
p133
I1
sVd1p2kwl
p134
I1
sVd2iajfj
p135
I1
sVczczbkd
p136
I1
sVd5fj8su
p137
I1
sVd71jwu9
p138
I1
sVd2lertj
p139
I1
sVdjtldwy
p140
I1
sVd18d3dn
p141
I1
sVdswwmds
p142
I1
sVd6v2jva
p143
I1
sVd380ajq
p144
I1
sVd3fuiif
p145
I1
sVdehn59h
p146
I1
sVd7hw07n
p147
I1
sVda1pvz2
p148
I1
sVd5f1sk1
p149
I1
sVd6qtlsz
p150
I1
sVd8u6im2
p151
I1
sVd488u7u
p152
I1
sVdbcl6jz
p153
I1
sVd6ct7kc
p154
I1
sVd4rv81o
p155
I1
sVde7ta2i
p156
I1
sVdel1yow
p157
I1
sVddghnx0
p158
I1
sVd0kz8uh
p159
I1
sVd5eivqg
p160
I1
sVczgno0b
p161
I1
sVdni66d1
p162
I1
sVd3t3f0q
p163
I1
sVdbx5z6m
p164
I1
sVdq8bp8x
p165
I1
sVczxxgpd
p166
I1
sVd1nh1j7
p167
I1
sVd3amxhl
p168
I1
sVdk8rskv
p169
I1
sVd1n8it6
p170
I1
sVdmhqb0u
p171
I1
sVd2na3ex
p172
I1
sVdkx3ujd
p173
I3
sVdrnank3
p174
I1
sVdcfa1te
p175
I1
sVd6fnjke
p176
I1
sVd3w2hoz
p177
I1
sVdoaws2b
p178
I1
sVcyzaslq
p179
I1
sVd6rvwxc
p180
I1
sVd7wpcgv
p181
I1
sVdavvzkv
p182
I1
sVdbnrjzc
p183
I1
sVdpv3syo
p184
I1
sVd9a76ik
p185
I1
sVdepr4o3
p186
I1
sVdhmctlu
p187
I1
sVdam2umi
p188
I1
sVd70i8ad
p189
I1
sVczmpsch
p190
I4
sVdor9be8
p191
I1
sVd0dvc9y
p192
I1
sVdkx8qho
p193
I1
sVd6ccoz8
p194
I1
sVdqwsgvk
p195
I1
sVd3c1q5b
p196
I2
sVdk0lwpu
p197
I1
sVd2fr705
p198
I1
sVczu9lvb
p199
I1
sVdsjv83c
p200
I1
sVd4m9o4k
p201
I1
sVddhqms5
p202
I1
sVdmnqqa3
p203
I1
sVd1orcyk
p204
I1
sVdr0pece
p205
I1
sVd5np3tv
p206
I1
sVdq67kc9
p207
I1
sVd5anll9
p208
I2
sVdeoafxq
p209
I1
sVddej54i
p210
I1
sVd43hc6t
p211
I1
sVcym7rgo
p212
I1
sVczgp8j3
p213
I1
sVddv4ym4
p214
I1
sVdr7hppr
p215
I1
sVd9aejt0
p216
I1
sVdd7rmlv
p217
I1
sVd1603os
p218
I1
sVdijmi92
p219
I1
sVd5hbyek
p220
I1
sVdhf7394
p221
I1
sVdfvfp4h
p222
I1
sVd3xhjzf
p223
I1
sVdpq3rq8
p224
I1
sVdt9gece
p225
I1
sVdrg81mm
p226
I1
sVd1s896e
p227
I1
sVdjfj90i
p228
I1
sVddrmnxm
p229
I1
sVddietx7
p230
I1
sVd02lcya
p231
I1
sVd2z01he
p232
I1
sVdcwa5kk
p233
I1
sVdpq1q1q
p234
I1
sVczeh5pb
p235
I1
sVd14pl28
p236
I1
sVdf5f892
p237
I1
sVdo9gnv3
p238
I1
sVdhooefp
p239
I2
sVd43ogov
p240
I1
sVdha1i80
p241
I1
sVd99t5re
p242
I1
sVdorqkku
p243
I1
sVd4ib297
p244
I1
sVdc1j0yg
p245
I1
sVdrbiiup
p246
I1
sVdnivwjv
p247
I2
sVdt7mr58
p248
I1
sVdboomi0
p249
I1
sVd4gish9
p250
I1
sVd3hhu4h
p251
I1
sVd1q021h
p252
I1
sVdb7r5xb
p253
I1
sVd22lz9v
p254
I1
sVdnq4mv0
p255
I1
sVdc463aw
p256
I1
sVd1rmxse
p257
I1
sVdjdlveo
p258
I1
sVdjx9fob
p259
I1
sVd0y82t1
p260
I1
sVdmx2php
p261
I2
sVd081jyt
p262
I1
sVdbl17g2
p263
I1
sVddpl2yx
p264
I1
sVdfvk8kt
p265
I1
sVd0inzds
p266
I1
sVd1uwqcp
p267
I2
sVdpfj055
p268
I1
sVdt0bokt
p269
I1
sVd0ynpph
p270
I1
sVcyjblxg
p271
I1
sVdg1348l
p272
I1
sVd3otizf
p273
I1
sVd1bso36
p274
I1
sVd9n35jq
p275
I1
sVd3apt2f
p276
I1
sVcz4to0c
p277
I1
sVdrv5d5d
p278
I1
sVdd316j7
p279
I1
sVdhdbslm
p280
I1
sVd1r7rwq
p281
I1
sVdidp564
p282
I2
sVd52zdyq
p283
I1
sVdgo9kf2
p284
I2
sVd3yibys
p285
I1
sVdd52k4p
p286
I1
sVd0skgeb
p287
I1
sVdgfl4it
p288
I1
sVdb8bomg
p289
I1
sVdda31e0
p290
I1
sVd3zfi1d
p291
I1
sVdaxnqnc
p292
I1
sVdhsci88
p293
I1
sVd156y5g
p294
I1
sVczw1912
p295
I1
sVdh4m5y7
p296
I1
sVddqqe7b
p297
I1
sVdeug0gz
p298
I1
sVdba0k9h
p299
I1
sVd4vw9f9
p300
I1
sVde1ctgm
p301
I1
sVdic6leg
p302
I1
sVd9kvsfb
p303
I1
sVczxdm4t
p304
I1
sVdgbdet8
p305
I1
sVdsnh1r7
p306
I1
sVd5lrd24
p307
I1
sVdd7d7i3
p308
I1
sVd55wdq9
p309
I1
sVd2fk0b2
p310
I1
sVd972wz8
p311
I1
sVd7fadah
p312
I1
sVdd39l9q
p313
I1
sVd4px2u0
p314
I1
sVdr3ww8v
p315
I1
sVd1j30nz
p316
I1
sVdnyxsk3
p317
I1
sVd2dyjj6
p318
I1
sVdilq2jv
p319
I2
sVdcfti6d
p320
I1
sVdskh9j7
p321
I1
sVdnwojr8
p322
I1
sVd0bw611
p323
I1
sVdmngycm
p324
I1
sVczw6ycs
p325
I1
sVdfjyht8
p326
I1
sVdoe75yu
p327
I1
sVcznnz4h
p328
I1
sVdn72cr4
p329
I1
sVd1ibo2x
p330
I1
sVdcccrly
p331
I1
sVd0ykntg
p332
I1
sVczhzgv4
p333
I1
sVdkuaamg
p334
I1
sVdjh7bj6
p335
I1
sVd7r9x9n
p336
I1
sVdjepsf9
p337
I1
sVczw16y0
p338
I1
sVd66bn39
p339
I1
sVd09bti7
p340
I2
sVd1fpeqa
p341
I1
sVcyow1c1
p342
I2
sVd55m6z0
p343
I1
sVdjj403x
p344
I1
sVd1wn3yt
p345
I1
sVdfdmq4t
p346
I1
sVdfk7vc4
p347
I2
sVdjtfmvc
p348
I1
sVd9yxuhr
p349
I1
sVdorox9h
p350
I2
sVdka0a9a
p351
I1
sVd2o6vmo
p352
I1
sVda3sjpk
p353
I1
sVczinktt
p354
I2
sVdegrcva
p355
I1
sVdhayy0f
p356
I1
sVd3dkn5v
p357
I1
sVdh6gugc
p358
I1
sVcyjqvou
p359
I1
sVd51tcyc
p360
I1
sVd8h3pm6
p361
I1
sVdhufiuy
p362
I1
sVdcygc8i
p363
I1
sVd9qaeai
p364
I1
sVcz32zet
p365
I1
sVd1qzzq6
p366
I1
sVdox6fuz
p367
I1
sVdhz92j6
p368
I1
sVd8nhtxn
p369
I1
sVdflwds6
p370
I1
sVd7fnxel
p371
I1
sVcz7e5hh
p372
I1
sVcyswa11
p373
I1
sVd9ibf67
p374
I1
sVd3r3y5m
p375
I1
sVd0qewq9
p376
I1
sVdi7vd9l
p377
I2
sVcziokzk
p378
I1
sVdoh53b1
p379
I1
sVdakfo2z
p380
I2
sVd3oyazl
p381
I1
sVdmjaw3b
p382
I1
sVdc05x5e
p383
I1
sVdqy699o
p384
I1
sVdjxjsyh
p385
I1
sVd264i87
p386
I1
sVdcr9ily
p387
I1
sVdj94cxw
p388
I1
sVd3436vf
p389
I1
sVd5fqw26
p390
I1
sVdbjl6rs
p391
I1
sVd2qg3do
p392
I1
sVd077j7l
p393
I1
sVd4upr2s
p394
I1
sVd4gabzv
p395
I2
sVd1z43tu
p396
I1
sVd06cmbf
p397
I1
sVd9u4wk9
p398
I1
sVdegss2h
p399
I1
sVdho3nts
p400
I2
sVd2dzbf1
p401
I1
sVd8dirip
p402
I1
sVdeijju6
p403
I1
sVdek73qn
p404
I1
sVd27cpj3
p405
I1
sVdj2m1pi
p406
I1
sVd53x6qx
p407
I2
sVd1yx53m
p408
I1
sVd1952bp
p409
I2
sVdq2b7lv
p410
I1
sVd1c1d5h
p411
I1
sVd0eji4t
p412
I1
sVd25ncj3
p413
I1
sVd93urmd
p414
I1
sVdh0ofb7
p415
I1
sVderc7ku
p416
I1
sVd9r7br8
p417
I1
sVdoeuwuy
p418
I1
sVd26svz0
p419
I1
sVczk7cmb
p420
I1
sVd72t9he
p421
I1
sVd5zj3t4
p422
I1
sVd9kjik0
p423
I3
sVd2p0kgg
p424
I1
sVd5vxyiu
p425
I1
sVdfvum72
p426
I1
sVd8dgpch
p427
I1
sVdoj6l73
p428
I1
sVdgvmrg7
p429
I1
sVddwe8r6
p430
I2
sVdnxof0m
p431
I1
sVd0bczpq
p432
I1
sVdms286o
p433
I1
sVd657el2
p434
I1
sVdk6262b
p435
I1
sVdb5dzzm
p436
I1
sVdn4pkyg
p437
I1
sVd9lukoy
p438
I1
sVdiwv5ct
p439
I1
sVd7qvzks
p440
I1
sVd8ou4fz
p441
I2
sVdd8bi4h
p442
I1
sVdfukxej
p443
I1
sVd3yg8tw
p444
I1
sVdhz47e3
p445
I1
sVd7oqofl
p446
I1
sVdg93lvy
p447
I1
sVddc1ksr
p448
I1
sVdqlk7m3
p449
I1
sVda1ivoi
p450
I1
sVdh9q1f0
p451
I1
sVd7mypvm
p452
I1
sVdkjysfm
p453
I1
sVd5ntuzy
p454
I1
sVd42lbtr
p455
I1
sVdt6bzae
p456
I3
sVd8cl2pl
p457
I1
sVdn6zzl2
p458
I1
sVd60xxqq
p459
I2
sVddv6tz1
p460
I1
sVd71c2cj
p461
I1
sVd9am90w
p462
I1
sVd73icdp
p463
I1
sVd7a1bba
p464
I2
sVdfww6qr
p465
I1
sVd8hdnho
p466
I1
sVdit7ovu
p467
I1
sVd3xzbgz
p468
I2
sVd8kpo6h
p469
I1
sVd70ut8z
p470
I1
sVdcjuamz
p471
I1
sVd0qblig
p472
I1
sVdef557r
p473
I2
sVd4dn7co
p474
I1
sVczs6tki
p475
I1
sVd40fpwi
p476
I1
sVddglrk9
p477
I1
sVczbto6t
p478
I1
sVdafzl79
p479
I1
sVdoztvhh
p480
I1
sVdbqadgi
p481
I1
sVd4cpcb2
p482
I2
sVd3uc4pp
p483
I1
sVd3j0ox4
p484
I1
sVd6jbtv7
p485
I1
sVd392qnq
p486
I1
sVd85td3c
p487
I1
sVdah1roo
p488
I1
sVdi4s76j
p489
I1
sVd6wxjm8
p490
I1
sVdn00z67
p491
I1
sVdgc9zf2
p492
I1
sVdftg3xz
p493
I1
sVde71uuw
p494
I1
sVd4peoxs
p495
I1
sVdfy2dha
p496
I1
sVd26b6jm
p497
I1
sVdd97tdh
p498
I1
sVd3nbvnl
p499
I1
sVd9euhx9
p500
I1
sVd7lgbve
p501
I1
sVd3ygxzw
p502
I1
sVdbtwahn
p503
I1
sVd0eeigx
p504
I1
sVdd12p0d
p505
I1
sVcyjdoqp
p506
I1
sVdgfc4vi
p507
I1
sVdqyj2io
p508
I1
sVddkm5sk
p509
I1
sVdi8n3hf
p510
I1
sVd4lawiq
p511
I1
sVdg3pusj
p512
I1
sVdtiegu2
p513
I1
sVdsd20qx
p514
I1
sVcytxvmn
p515
I1
sVdkj932x
p516
I1
sVdbe786d
p517
I1
sVdcl99py
p518
I1
sVdag3pyd
p519
I1
sVdjbafrk
p520
I1
sVde2p4px
p521
I1
sVderdwv1
p522
I1
sVd2zl0g9
p523
I1
sVd8ggseq
p524
I1
sVdmf2dkd
p525
I1
sVdjsl6dq
p526
I1
sVd0fjmzl
p527
I1
sVd10qoqr
p528
I1
sVd9p6e4w
p529
I1
sVd5xjdd4
p530
I1
sVd727vn4
p531
I1
sVdfxfxfw
p532
I1
sVdam8qc6
p533
I1
sVdhs4gx3
p534
I1
sVd6s2029
p535
I1
sVd305j9y
p536
I1
sVddwd03l
p537
I1
sVd61o028
p538
I1
sVdf856lh
p539
I1
sVdebqkuo
p540
I1
sVczsg8ob
p541
I1
sVd0org9v
p542
I3
sVdtgce0x
p543
I1
sVdpql99c
p544
I1
sVd5gpq1d
p545
I1
sVdgyl7sj
p546
I1
sVdfx4ngo
p547
I1
sVddz55ug
p548
I1
sVdijxlp1
p549
I1
sVdiotr4y
p550
I1
sVd3its4b
p551
I1
sVd5lxoek
p552
I1
sVd1t8x1k
p553
I1
sVdjo4rks
p554
I1
sVd0mtni6
p555
I1
sVdfu7jte
p556
I1
sVda7t6sw
p557
I1
sVdoe55ek
p558
I1
sVddbdmwc
p559
I1
sVddol021
p560
I1
sVddffxo7
p561
I1
sVdhnuoo3
p562
I1
sVd0ugvxq
p563
I1
sVd9o2y85
p564
I1
sVdrugclv
p565
I1
sVdo7ktiq
p566
I1
sVdn4tm1t
p567
I1
sVdgaotdl
p568
I1
sVdfefom9
p569
I2
sVdai8sxo
p570
I2
sVdjf2g8j
p571
I1
sVd2o4cju
p572
I1
sVdfwzm2x
p573
I1
sVdrzlqi9
p574
I1
sVddmwzeq
p575
I1
sVdj510qh
p576
I1
sVdfwooch
p577
I2
sVdkysbqm
p578
I1
sVdihehzv
p579
I1
sVdbch3ar
p580
I1
sVdr6p28z
p581
I1
sVd1mvxe6
p582
I1
sVd19ekzl
p583
I1
sVd2o21yb
p584
I1
sVdoq4ewu
p585
I1
sVd84v40o
p586
I1
sVcyq264n
p587
I1
sVd8mjc98
p588
I1
sVdai1iqq
p589
I2
sVdr85azo
p590
I1
sVd8f4g19
p591
I1
sVd3o32rj
p592
I1
sVd5wtkcf
p593
I1
sVd126zsn
p594
I1
sVdna64oh
p595
I1
sVcyveqr6
p596
I1
sVdg2voc4
p597
I1
sVd2an6x3
p598
I1
sVdfnjsfp
p599
I1
sVdb06yu2
p600
I1
sVd0h48b2
p601
I1
sVdr1lclj
p602
I2
sVdrb53zt
p603
I1
sVdim3op3
p604
I1
sVds1xdll
p605
I1
sVcz5y0cy
p606
I1
sVdbxihke
p607
I1
sVd4c1a2g
p608
I1
sVdg5vj58
p609
I1
sVd8grvjt
p610
I1
sVd6dks7x
p611
I1
sVdazwhnb
p612
I1
sVd9x5y46
p613
I1
sVdgod97y
p614
I1
sVd19i3gk
p615
I1
sVd1qxzcs
p616
I1
sVd5spyuj
p617
I1
sVd2zvi43
p618
I2
sVd61yiml
p619
I1
sVd3bhygh
p620
I1
sVdfq8zsm
p621
I2
sVcz5upjm
p622
I1
sVdco194a
p623
I1
sVdgodlt2
p624
I1
sVczesipb
p625
I1
sVdmv91x6
p626
I1
sVd9ag18v
p627
I1
sVcz6hh5c
p628
I1
sVdby88km
p629
I1
sVdal4v3e
p630
I1
sVdmlx7gy
p631
I1
sVdi8qops
p632
I1
sVd4tuihs
p633
I1
sVd6v7mdl
p634
I1
sVde59zjv
p635
I1
sVdnlzp14
p636
I1
sVdeh5a3o
p637
I1
sVdaup8tf
p638
I1
sVd9czk68
p639
I1
sVddohf9j
p640
I1
sVddistku
p641
I1
sVdcyhvik
p642
I2
sVdkyht48
p643
I1
sVdn1dnqp
p644
I2
sVczta2un
p645
I1
sVd0u0fy2
p646
I1
sVdc6y2i9
p647
I1
sVdg4rar9
p648
I1
sVdf9yfwq
p649
I1
sVd008b7g
p650
I1
sVdolc98z
p651
I1
sVddy6519
p652
I1
sVdg2k4rc
p653
I1
sVddoemh0
p654
I1
sVd5lnvl0
p655
I2
sVdehvf2c
p656
I1
sVd1wae3z
p657
I1
sVd5p1w6q
p658
I1
sVdpoat0y
p659
I1
sVdr0ntgw
p660
I1
sVd0qz2uc
p661
I1
sVd3d8zk7
p662
I1
sVd0d17mn
p663
I1
sVd1iufxi
p664
I1
sVd2k213h
p665
I3
sVd1v7ihc
p666
I1
sVdgxdh8f
p667
I1
sVdcrjwm3
p668
I1
sVdhngtrl
p669
I1
sVdi8rfs8
p670
I1
sVd2l0f48
p671
I1
sVdjtgnnd
p672
I1
sVd0nro42
p673
I1
sVdrq9ytx
p674
I1
sVdcuih83
p675
I1
sVd8v9kxa
p676
I1
sVdfviort
p677
I1
sVd4njiwi
p678
I1
sVcysy36b
p679
I1
sVdmh4nua
p680
I1
sVd9czdjz
p681
I1
sVdkdb1it
p682
I1
sVd2gdqqc
p683
I1
sVdti42cw
p684
I1
sVcyoz4hb
p685
I1
sVd0xsq4v
p686
I1
sVdq3kagm
p687
I1
sVd9ds9qm
p688
I2
sVd3s0yh1
p689
I1
sVd6100i5
p690
I1
sVdh5t5qh
p691
I1
sVdnnutau
p692
I1
sVd5pvnfy
p693
I1
sVd232cl6
p694
I1
sVczm6avn
p695
I1
sVds4b8xm
p696
I1
sVd5lwtwu
p697
I1
sVdbp3cpq
p698
I1
sVdb77dzv
p699
I1
sVd9om6mu
p700
I1
sVd9ixjtq
p701
I1
sVd1njwm4
p702
I1
sVd4iqc96
p703
I1
sVdshaprd
p704
I1
sVdd037v1
p705
I1
sVdgcp650
p706
I1
sVdqkqntl
p707
I1
sVdql4x8b
p708
I1
sVdfvvxw9
p709
I1
sVdao55nj
p710
I1
sVd6nwpd0
p711
I1
sVd9hefrk
p712
I1
sVdsm3j0b
p713
I1
sVdk145bw
p714
I1
sVddxqqzf
p715
I1
sVdef60zy
p716
I1
sVdh7c89d
p717
I1
sVczuogry
p718
I1
sVd2qhj2g
p719
I1
sVdgu9ri9
p720
I1
sVczedtnf
p721
I1
sVd9byh85
p722
I1
sVdhnhzqi
p723
I1
sVdo2uhli
p724
I1
sVd0hxbth
p725
I1
sVdd5pwa2
p726
I1
sVdso5f5v
p727
I1
sVczaywh6
p728
I1
sVdjnqleb
p729
I1
sVdkkiaml
p730
I1
sVda1rlwy
p731
I1
sVddog6ia
p732
I1
sVdgy6wlw
p733
I1
sVd0g7e73
p734
I1
sVdeh89mu
p735
I1
sVdanqzh5
p736
I1
sVdg8z7ul
p737
I1
sVcyqs2au
p738
I1
sVdbfii2g
p739
I1
sVd59jryh
p740
I1
sVdppb8mb
p741
I1
sVdh3s519
p742
I1
sVd09erzn
p743
I1
sVd8p7kd1
p744
I1
sVdetd9o0
p745
I1
sVde72gfq
p746
I1
sVdaznfrv
p747
I1
sVdjqzqzp
p748
I2
sVd3z7wr7
p749
I1
sVdeu0ybj
p750
I1
sVd0dxyg1
p751
I1
sVdk0icla
p752
I1
sVdcvu21g
p753
I1
sVdcmrkqw
p754
I1
sVd0lv2na
p755
I1
sVdd303g4
p756
I1
sVdgrxh53
p757
I1
sVdal1q0t
p758
I1
sVd3r5zwz
p759
I1
sVdqbj7l2
p760
I2
sVdoe0www
p761
I1
sVd1dcser
p762
I1
sVdbobsf5
p763
I1
sVdhzm6hr
p764
I1
sVdktpvnk
p765
I1
sVdq8oifv
p766
I1
sVd38m095
p767
I1
sVd5rq20w
p768
I1
sVdhhybzk
p769
I1
sVd5ov6aq
p770
I3
sVd7dgo8s
p771
I1
sVd8zt8u0
p772
I1
sVd6nzur9
p773
I1
sVcz2dlq7
p774
I1
sVdgq7o0a
p775
I1
sVdc0cycd
p776
I1
sVd3czpid
p777
I1
sVd0mj7vt
p778
I3
sVd1krb9s
p779
I1
sVdimhsbb
p780
I1
sVd7llmkx
p781
I1
sVdrp8vk6
p782
I2
sVd4apeai
p783
I1
sVdanfz1o
p784
I1
sVczi79k1
p785
I1
sVdcqd0wn
p786
I1
sVd12w63d
p787
I1
sVd1vjxs5
p788
I1
sVdmq4tjm
p789
I1
sVdetw2mo
p790
I1
sVcz48s67
p791
I1
sVdcghtye
p792
I2
sVdcs8ab4
p793
I1
sVd13wzb4
p794
I1
sVd21wqwq
p795
I1
sVd07dz1g
p796
I1
sVcyssjcx
p797
I1
sVddv0dno
p798
I1
sVdkroshg
p799
I1
sVdevammi
p800
I2
sVd3vkb31
p801
I1
sVcyx5flo
p802
I1
sVdjxv916
p803
I1
sVczb8bw9
p804
I1
sVdi1ls27
p805
I1
sVd8m98ah
p806
I1
sVd5f5fiu
p807
I1
sVdk4mxkp
p808
I1
sVd6m5opa
p809
I1
sVdhx6lz7
p810
I1
sVdpsu5s9
p811
I1
sVddllbxv
p812
I1
sVdigbrqv
p813
I1
sVdcqrd1a
p814
I1
sVd6lq95d
p815
I1
sVd258w3c
p816
I1
sVczvrvcg
p817
I1
sVdbpkyuj
p818
I1
sVd2q97w0
p819
I1
sVd1hzxgv
p820
I1
sVdiseft5
p821
I1
sVd1vs5o2
p822
I1
sVddoltnx
p823
I1
sVd8xdf8x
p824
I1
sVdgcf2xb
p825
I1
sVczrs97i
p826
I1
sVd2rlkia
p827
I1
sVd6kpi0j
p828
I1
sVczk36i4
p829
I1
sVd0d9lwg
p830
I1
sVd1jt0a0
p831
I1
sVd9pqt94
p832
I1
sVdeqn8vw
p833
I1
sVdf8nis6
p834
I1
sVdeg7cym
p835
I1
sVcz7hlrc
p836
I1
sVdf519m2
p837
I1
sVdhhgh39
p838
I1
sVd62eg7a
p839
I1
sVdbvyvlw
p840
I1
sVdciihpq
p841
I1
sVdgez61z
p842
I1
sVdqug3u5
p843
I1
sVd8ce9os
p844
I1
sVde34rp0
p845
I1
sVcz1m8tg
p846
I1
sVd5qsm7h
p847
I1
sVdijjkmb
p848
I1
sVdkihc2e
p849
I1
sVd8qa0p1
p850
I1
sVd2kc5re
p851
I1
sVddlxrhj
p852
I1
sVdphh56z
p853
I1
sVdkd5zbb
p854
I1
sVdeguobs
p855
I1
sVdswbeob
p856
I1
sVdenvigf
p857
I1
sVdq1vzzd
p858
I1
sVcyl0jxb
p859
I3
sVdd1grn5
p860
I1
sVdmgnpgd
p861
I1
sVd24bbzj
p862
I1
sVd1py3nt
p863
I1
sVdh35utd
p864
I1
sVd6t5ir5
p865
I1
sVdgl5ywb
p866
I1
sVdj33e40
p867
I1
sVdilqqxy
p868
I1
sVd1zoavy
p869
I1
sVd7w1tc1
p870
I1
sVdgaydfj
p871
I1
sVdsqnsj1
p872
I1
sVd8r9jr4
p873
I1
sVday0gbh
p874
I7
sVdd5mxvs
p875
I1
sVd1x7il6
p876
I1
sVdfrzfzb
p877
I1
sVcz7q1qh
p878
I1
sVdfwo9yx
p879
I1
sVd09l1fz
p880
I1
sVdcsccmx
p881
I1
sVdnvsofy
p882
I1
sVdio30wk
p883
I1
sVdg8lrde
p884
I1
sVdcxl91f
p885
I1
sVdnv1fdr
p886
I1
sVd3qkrgu
p887
I1
sVdo4zn1y
p888
I1
sVdao3677
p889
I1
sVdcmeb25
p890
I1
sVd2g9b27
p891
I1
sVd1vfda6
p892
I1
sVdr8lprz
p893
I1
sVdbi6rbr
p894
I1
sVdkmbpir
p895
I1
sVdbn46c3
p896
I1
sVd9ecbqf
p897
I1
sVddi2hiq
p898
I1
sVdbu98gb
p899
I2
sVdd6t358
p900
I1
sVdf0x0h0
p901
I1
sVdq1z1fm
p902
I1
sVd8n3hp6
p903
I1
sVdh7bzjn
p904
I1
sVddgot2w
p905
I1
sVdkwq07u
p906
I1
sVd2jd45k
p907
I1
sVd0j30df
p908
I1
sVda8bcdm
p909
I1
sVdaynmsv
p910
I1
sVd8mhale
p911
I1
sVdaw8ko2
p912
I1
sVcyn3or4
p913
I1
sVdt0kp8e
p914
I1
sVd0i5dse
p915
I1
sVdh2wm3d
p916
I1
sVdh646nr
p917
I1
sVdrlt5ri
p918
I1
sVdpcci3l
p919
I2
sVd5ha117
p920
I2
sVd85kgeh
p921
I1
sVdihiwit
p922
I1
sVd70dm05
p923
I1
sVdcsnnzx
p924
I1
sVdfkcco0
p925
I1
sVd78hxgd
p926
I1
sVdeq3ylv
p927
I1
sVd3bvg4c
p928
I1
sVd0s5vek
p929
I1
sVd43e8vp
p930
I1
sVczzbuaj
p931
I1
sVdk5ogtb
p932
I1
sVd9hw8ir
p933
I1
sVdmm3ssi
p934
I1
sVd002bdr
p935
I1
sVd0btuz2
p936
I3
sVdd8aazz
p937
I1
sVcz48up2
p938
I1
sVcyqueyk
p939
I1
sVdc3xy02
p940
I1
sVdidf5k0
p941
I1
sVddoqt75
p942
I1
sVd05saol
p943
I1
sVd783uck
p944
I1
sVdb641ct
p945
I1
sVd90qdpa
p946
I1
sVdbdo8pt
p947
I1
sVcz5ei0w
p948
I1
sVdbwjssg
p949
I1
sVd3x28sc
p950
I1
sVdaqfkkb
p951
I1
sVd5tqpgq
p952
I2
sVd1dxi3n
p953
I1
sVdsqjebe
p954
I1
sVdfe0jmv
p955
I1
sVdehbcqe
p956
I1
sVdh3fj9g
p957
I1
sVd31o2r2
p958
I1
sVdb0noed
p959
I3
sVdo5tg0v
p960
I1
sVd9xt43n
p961
I1
sVczup6wz
p962
I1
sVdf1nrnh
p963
I1
sVdo9rsnl
p964
I1
sVdnhc7pa
p965
I1
sVdip2o0j
p966
I2
sVd0ak22s
p967
I1
sVd14qfky
p968
I2
sVdc0tyaj
p969
I1
sVd2a3rn6
p970
I1
sVddhu2zg
p971
I1
sVd6ujkwc
p972
I2
sVdo4zv75
p973
I1
sVd6u9akq
p974
I1
sVcyjbcik
p975
I1
sVdrzhzyc
p976
I1
sVcz8kvjz
p977
I1
sVd9cr9t8
p978
I2
sVdc5c3vf
p979
I1
sVd3ijo6p
p980
I1
sVdawda4d
p981
I1
sVdipkdc9
p982
I1
sVdcuivlp
p983
I1
sVddi4hh5
p984
I1
sVdk2ma7x
p985
I1
sVd3ae28j
p986
I1
sVdmjfia6
p987
I1
sVd2je7bj
p988
I1
sVdfhvsqv
p989
I1
sVd13e8ln
p990
I1
sVdfr5nq2
p991
I1
sVdiasrmh
p992
I1
sVdg7sdsp
p993
I2
sVd5ffath
p994
I1
sVdj97cl0
p995
I1
sVd3x8itl
p996
I1
sVdg3x2se
p997
I1
sVd28waaf
p998
I1
sVd2e0nx2
p999
I1
sVd9csebo
p1000
I1
sVd4bb0oh
p1001
I1
sVd2enxme
p1002
I1
sVdkqh6p4
p1003
I1
sVdda1uvy
p1004
I1
sVdpewhg7
p1005
I1
sVd1kyptf
p1006
I1
sVdj02l22
p1007
I1
sVd54e26y
p1008
I1
sVdhfqyk8
p1009
I1
sVd16830x
p1010
I1
sVczzdlej
p1011
I1
sVdhbugmm
p1012
I1
sVd5pv390
p1013
I1
sVdgt62js
p1014
I1
sVdabbnnt
p1015
I1
sVdcy6inh
p1016
I1
sVcym3yss
p1017
I1
sVd4szh2k
p1018
I1
sVd5vufov
p1019
I1
sVd61vfpu
p1020
I2
sVd9o9e42
p1021
I1
sVd2vqrim
p1022
I1
sVdduqyc3
p1023
I2
sVdg6bncw
p1024
I1
sVdt9kli4
p1025
I1
sVdn8ooib
p1026
I1
sVdn79r5i
p1027
I1
sVd7mjgat
p1028
I1
sVd25xj18
p1029
I1
sVdeh42r6
p1030
I1
sVd9bfwhr
p1031
I1
sVdh1x38k
p1032
I1
sVd2rlfwl
p1033
I1
sVczt92vn
p1034
I1
sVdkj8dbk
p1035
I1
sVd9c2sky
p1036
I1
sVdhfjfjc
p1037
I1
sVd8y47so
p1038
I1
sVd5o4ea8
p1039
I1
sVd5ya79e
p1040
I1
sVdfrociz
p1041
I1
sVd8ruk7j
p1042
I1
sVdbm9ros
p1043
I1
sVcz6lcl5
p1044
I1
sVcz5p74o
p1045
I1
sVd6tlj8o
p1046
I1
sVdjyjqq9
p1047
I1
sVdflvu1r
p1048
I1
sVdb112lh
p1049
I1
sVd2jy942
p1050
I1
sVdh4xvb0
p1051
I1
sVd61oc8o
p1052
I1
sVdbh5cgm
p1053
I1
sVdfon67m
p1054
I1
sVddbwhp4
p1055
I1
sVd3bp76l
p1056
I2
sVd080f7q
p1057
I1
sVd14j8uq
p1058
I1
sVcyn1t78
p1059
I1
sVdkdv7pg
p1060
I1
sVd97qdt6
p1061
I1
sVdrym5da
p1062
I1
sVdb7uvzx
p1063
I1
sVdmfteeo
p1064
I1
sVdk7yswd
p1065
I1
sVdadw0em
p1066
I1
sVd3z89y2
p1067
I1
sVdi48pqw
p1068
I1
sVds6pkpm
p1069
I1
sVdotr2pz
p1070
I1
sVdof905l
p1071
I1
sVdieg27j
p1072
I1
sVdnimosb
p1073
I1
sVdckxlyk
p1074
I1
sVdn3ifsy
p1075
I1
sVdqnj68u
p1076
I1
sVdbgfs20
p1077
I1
sVda1zerm
p1078
I1
sVd9zy4kk
p1079
I1
sVd6iun4e
p1080
I1
sVdbk6pn5
p1081
I1
sVdd9puj0
p1082
I1
sVdpfdxj8
p1083
I1
sVcz0oa2i
p1084
I1
sVdbr8z9q
p1085
I1
sVdspmjc2
p1086
I1
sVd43ln7t
p1087
I1
sVdn3cozn
p1088
I1
sVd59scrp
p1089
I1
sVdoeesy5
p1090
I1
sVddrje29
p1091
I1
sVcz4x3jq
p1092
I1
sVdfsl0fw
p1093
I1
sVd1noyrd
p1094
I1
sVd5w3no8
p1095
I1
sVdq1w2uh
p1096
I1
sVd8tnk4e
p1097
I1
sVd280jx1
p1098
I1
sVd0wnqnv
p1099
I1
sVdnukaq8
p1100
I1
sVczios6w
p1101
I1
sVd77tmnv
p1102
I1
sVdac3p7x
p1103
I1
sVd1rpedt
p1104
I1
sVd323a6o
p1105
I2
sVd5zpagd
p1106
I2
sVdimeq3s
p1107
I2
sVczv7sh2
p1108
I1
sVcyjucmx
p1109
I1
sVdbxu70v
p1110
I1
sVd6ovxfo
p1111
I1
sVd0s720v
p1112
I3
sVd05230k
p1113
I1
sVd2p5e4k
p1114
I1
sVd62noof
p1115
I2
sVdb584qm
p1116
I1
sVd69hh90
p1117
I1
sVd10shbm
p1118
I1
sVd00ckxv
p1119
I1
sVddtne41
p1120
I1
sVdfdu97r
p1121
I1
sVdknbel5
p1122
I1
sVd8svqaf
p1123
I1
sVdsrfp2b
p1124
I1
sVdivtma2
p1125
I1
sVd5dgsef
p1126
I1
sVdfp293j
p1127
I2
sVdd7z7kh
p1128
I1
sVdi2mhk7
p1129
I1
sVd40ufdc
p1130
I1
sVdgxgkrx
p1131
I2
sVdjb2r4x
p1132
I1
sVd5gklni
p1133
I1
sVddxnkto
p1134
I1
sVdgmoajw
p1135
I1
sVd25cx6j
p1136
I1
sVdqtf84w
p1137
I1
sVdhlooe9
p1138
I1
sVd1e16q6
p1139
I1
sVdbslvqs
p1140
I1
sVd1hphqq
p1141
I1
sVczx09be
p1142
I1
sVd5bzwwa
p1143
I1
sVdgh5k5n
p1144
I1
sVdaf5chk
p1145
I1
sVd25y948
p1146
I1
sVds7tuj4
p1147
I1
sVdrthdc1
p1148
I1
sVdf1wa1a
p1149
I1
sVdh75q7y
p1150
I1
sVcyi47bu
p1151
I2
sVdt1jmq1
p1152
I1
sVdnkmr3n
p1153
I1
sVdclr5f7
p1154
I1
sVdgzphr3
p1155
I1
sVczrf9lo
p1156
I1
sVd0yddix
p1157
I1
sVdfyaflv
p1158
I4
sVdnckhgx
p1159
I1
sVdpftw89
p1160
I1
sVdcdog7u
p1161
I1
sVdf0wp9g
p1162
I1
sVd2qvp66
p1163
I1
sVd9azowe
p1164
I1
sVd8zzo0w
p1165
I1
sVdfbn1ks
p1166
I1
sVdoneck1
p1167
I1
sVdmznd0t
p1168
I1
sVdefc9iw
p1169
I1
sVdt48pkt
p1170
I1
sVd9hc4ts
p1171
I1
sVdf0c5x6
p1172
I1
sVdd8wd60
p1173
I1
sVdi8ts8e
p1174
I1
sVda3s8oy
p1175
I1
sVdghn4c1
p1176
I1
sVdrbz1ra
p1177
I1
sVdqjd2pm
p1178
I1
sVcz7my6p
p1179
I1
sVdjhy390
p1180
I1
sVdbzj5ys
p1181
I1
sVdq5d3ny
p1182
I1
sVdhda754
p1183
I1
sVdqjjju2
p1184
I1
sVd3k8mrb
p1185
I1
sVdhrjpmw
p1186
I1
sVd668gk5
p1187
I1
sVdgh89i0
p1188
I1
sVczi08fd
p1189
I1
sVd7s6n2t
p1190
I1
sVdnroccm
p1191
I1
sVden3s59
p1192
I1
sVd8zfvs1
p1193
I1
sVd49djcx
p1194
I1
sVdbddtzp
p1195
I1
sVd3f9zi7
p1196
I1
sVdp5p2jy
p1197
I1
sVdt9jr98
p1198
I1
sVdisccvh
p1199
I1
sVdbvylf4
p1200
I1
sVd1n40w0
p1201
I1
sVd1qu22z
p1202
I1
sVd5in0xl
p1203
I1
sVddlm0rz
p1204
I1
sVd72he00
p1205
I1
sVdn4r21t
p1206
I1
sVd8uxw59
p1207
I1
sVczdkz38
p1208
I1
sVdjho021
p1209
I1
sVd4ckqdh
p1210
I1
sVdqs7rir
p1211
I1
sVd1tbx8a
p1212
I1
sVdq2etsa
p1213
I1
sVdifkqj9
p1214
I1
sVd7kz133
p1215
I1
sVcysuoo6
p1216
I1
sVdjz6mth
p1217
I1
sVdmgqwjm
p1218
I1
sVdhldo8m
p1219
I1
sVd1yd5mo
p1220
I1
sVd0wfhih
p1221
I1
sVdq6ajca
p1222
I1
sVdg7zfxn
p1223
I6
sVdkvq41l
p1224
I1
sVdami57t
p1225
I1
sVds17r4d
p1226
I1
sVdhnfcw1
p1227
I1
sVd2t0ls5
p1228
I1
sVd146y69
p1229
I1
sVd25fb5b
p1230
I1
sVdszv0qv
p1231
I1
sVdd42l7m
p1232
I1
sVdnkelbq
p1233
I1
sVdamh1tv
p1234
I1
sVdfnvntf
p1235
I1
sVdcxvtdt
p1236
I1
sVdknco2b
p1237
I1
sVd3pqotq
p1238
I1
sVd5vme6r
p1239
I2
sVdq70ljn
p1240
I1
sVdmr1ia4
p1241
I1
sVdccgxxr
p1242
I1
sVdde7man
p1243
I1
sVdnku58h
p1244
I1
sVdfzvjmb
p1245
I1
sVdc3vbvl
p1246
I1
sVd0w5n39
p1247
I1
sVdinbk8i
p1248
I1
sVdoe5u7g
p1249
I1
sVd0ig0k7
p1250
I1
sVd2tnnmt
p1251
I1
sVd7qgj4i
p1252
I1
sVd458b0g
p1253
I1
sVdhcu01m
p1254
I1
sVczxn5hx
p1255
I1
sVd3st4mj
p1256
I1
sVdiis4iw
p1257
I1
sVcytoade
p1258
I1
sVd1jnz61
p1259
I1
sVdf3sfrs
p1260
I1
sVd7mzi81
p1261
I1
sVd4452av
p1262
I1
sVd1upksu
p1263
I1
sVd6tmhec
p1264
I2
sVd1746jl
p1265
I1
sVddnyn97
p1266
I1
sVdmqxqmn
p1267
I1
sVcynyfvi
p1268
I1
sVd0xsdug
p1269
I1
sVcz8d7x7
p1270
I1
sVdchwn2l
p1271
I1
sVdhs8p2d
p1272
I1
sVddoxh0p
p1273
I1
sVdc7fqo5
p1274
I1
sVde0z83i
p1275
I1
sVd1jrcgw
p1276
I1
sVd4of3wd
p1277
I1
sVd202kya
p1278
I1
sVdfyi7g6
p1279
I1
sVdbmr80f
p1280
I1
sVdddxxd2
p1281
I1
sVdrve9wk
p1282
I1
sVd0kyio7
p1283
I1
sVd64rhu7
p1284
I1
sVcyzli4i
p1285
I1
sVd9n1qle
p1286
I1
sVd5agg8s
p1287
I2
sVczw6i8i
p1288
I1
sVdcxjt40
p1289
I1
sVcyzkcaq
p1290
I1
sVdflsnuk
p1291
I1
sVdqazul2
p1292
I1
sVdasfcna
p1293
I1
sVdnd9bmf
p1294
I1
sVdiabijm
p1295
I1
sVda3fqcy
p1296
I1
sVdd2zu66
p1297
I3
sVd43nh1q
p1298
I1
sVd12sg7j
p1299
I1
sVd3d6zjm
p1300
I2
sVd80rgiz
p1301
I1
sVd1uzhjc
p1302
I1
sVd4io6w9
p1303
I1
sVd1uzfaa
p1304
I1
sVdnfpgb6
p1305
I1
sVdo81zo0
p1306
I2
sVczn7cib
p1307
I1
sVdcz2ahc
p1308
I1
sVdqc2ztf
p1309
I1
sVdjdbobj
p1310
I1
sVdi684po
p1311
I1
sVd1h3vjo
p1312
I1
sVd0z2mo4
p1313
I1
sVdbxl1s8
p1314
I1
sVddwhw5h
p1315
I1
sVdjes5kt
p1316
I1
sVdgxiuxg
p1317
I1
sVde1znfb
p1318
I1
sVdjgphkc
p1319
I1
sVdjjfmo5
p1320
I1
sVdfr6nmb
p1321
I1
sVd8qhagc
p1322
I1
sVdbrj36l
p1323
I1
sVd2hengs
p1324
I1
sVdjz3qke
p1325
I1
sVd5pwe8g
p1326
I1
sVddd8uws
p1327
I1
sVd0ztf0h
p1328
I1
sVdchrdhs
p1329
I1
sVd7mbv9f
p1330
I1
sVd15tcae
p1331
I1
sVd1gyfkj
p1332
I1
sVd6zshk7
p1333
I1
sVd9ffpbz
p1334
I2
sVd1kkb5p
p1335
I1
sVd8z7xtb
p1336
I1
sVd2ennhw
p1337
I1
sVczjehhk
p1338
I1
sVdbjl8n3
p1339
I1
sVczo8n2j
p1340
I1
sVd18ehi1
p1341
I1
sVddc8qz4
p1342
I1
sVdqe8yb3
p1343
I1
sVcz6wefu
p1344
I1
sVdbjgdxn
p1345
I1
sVd13pzpf
p1346
I1
sVdjle2r9
p1347
I1
sVdmx37jq
p1348
I2
sVdodp0gm
p1349
I1
sVd1wgi2q
p1350
I1
sVd0zeav4
p1351
I1
sVdnvse33
p1352
I2
sVdjo4stc
p1353
I1
sVdfiozv9
p1354
I1
sVd7bjqau
p1355
I1
sVdelyek0
p1356
I1
sVdsg6ghi
p1357
I1
sVdbolif6
p1358
I2
sVdjta8j6
p1359
I1
sVdf6nvv4
p1360
I1
sVd3hcgif
p1361
I1
sVdocwz2l
p1362
I3
sVd1hzm9o
p1363
I1
sVd1gyi7d
p1364
I1
sVcyhxj5w
p1365
I1
sVczzrvd0
p1366
I1
sVddtimwv
p1367
I1
sVd0ild3d
p1368
I1
sVd9ubw99
p1369
I1
sVdddmvuz
p1370
I1
sVdj9xyl5
p1371
I1
sVdc7qykw
p1372
I1
sVddcqlly
p1373
I2
sVd07yz7u
p1374
I1
sVdsmtkpb
p1375
I1
sVd1rvxv8
p1376
I1
sVdflmnjm
p1377
I1
sVd9rasvi
p1378
I1
sVdebr9ki
p1379
I1
sVd6966ct
p1380
I1
sVdgemtxk
p1381
I1
sVds189iw
p1382
I2
sVda7l7if
p1383
I1
sVdmsh64o
p1384
I1
sVdr3jf16
p1385
I1
sVd0co86o
p1386
I1
sVd4hvzo7
p1387
I1
sVd3lhsim
p1388
I1
sVd1r1dsp
p1389
I1
sVd3acmoq
p1390
I1
sVdbntvij
p1391
I1
sVdbkxpf6
p1392
I1
sVdhxi1t4
p1393
I1
sVdex3snw
p1394
I1
sVd2s76pk
p1395
I1
sVdd1shk7
p1396
I1
sVd3jk2jf
p1397
I1
sVd0yjrat
p1398
I2
sVczocia6
p1399
I1
sVdpmuh2x
p1400
I1
sVd7c2m1h
p1401
I1
sVdr8otqo
p1402
I1
sVdrv5zqc
p1403
I1
sVdbey2ya
p1404
I1
sVdibpl5l
p1405
I1
sVd19s62y
p1406
I1
sVd1qcatk
p1407
I1
sVd0l4zas
p1408
I1
sVdo5s5xf
p1409
I2
sVd9dfw21
p1410
I1
sVdggqt4f
p1411
I1
sVdbra2fy
p1412
I2
sVd5pgm2p
p1413
I2
sVde36xzm
p1414
I1
sVczrk13m
p1415
I2
sVdtep6tw
p1416
I1
sVdnx7gel
p1417
I1
sVdg4wta6
p1418
I1
sVd82jmb7
p1419
I1
sVdq43gkj
p1420
I2
sVd8z7hdf
p1421
I1
sVds0ipyv
p1422
I1
sVdjv3arb
p1423
I1
sVd66o4jd
p1424
I1
sVdo2i4jd
p1425
I1
sVdbtpo1z
p1426
I1
sVdgjzn5c
p1427
I1
sVdg933gn
p1428
I1
sVd7qwyf3
p1429
I1
sVd0vz5mi
p1430
I1
sVdn4v8jj
p1431
I1
sVdbzt1fz
p1432
I1
sVdrkrx2a
p1433
I1
sVdcuhk55
p1434
I2
sVdg5euuq
p1435
I1
sVd7kyrbw
p1436
I1
sVdc0eq24
p1437
I1
sVdededw2
p1438
I1
sVcz35pc8
p1439
I2
sVczdjeoy
p1440
I1
sVd5576w1
p1441
I4
sVcz7w4uh
p1442
I1
sVd5lxjxg
p1443
I1
sVd1kfsi7
p1444
I1
sVdaqwihs
p1445
I1
sVd3onqio
p1446
I1
sVdc2k152
p1447
I1
sVdjlhctt
p1448
I1
sVd5h9vu1
p1449
I1
sVd7ctm3f
p1450
I1
sVdhlunbm
p1451
I1
sVcyj9b2h
p1452
I1
sVd58m0ez
p1453
I1
sVd19h2zq
p1454
I1
sVdd4xseu
p1455
I1
sVd2kg7ja
p1456
I1
sVdobiq0n
p1457
I1
sVdi1ya1v
p1458
I2
sVdneow01
p1459
I1
sVdgx7v7y
p1460
I1
sVcyp2zhl
p1461
I1
sVd9146i2
p1462
I1
sVd7lseyu
p1463
I2
sVd3rgvym
p1464
I1
sVdaycetd
p1465
I1
sVdmi2iyh
p1466
I1
sVddl75dk
p1467
I1
sVds1a5mg
p1468
I1
sVdns5462
p1469
I1
sVdki4sxj
p1470
I2
sVd30idcn
p1471
I1
sVddwf30z
p1472
I1
sVdg6emrf
p1473
I1
sVdc3goom
p1474
I1
sVdsuqt8d
p1475
I1
sVdgi8h7g
p1476
I1
sVczkj6fh
p1477
I1
sVdajnz5v
p1478
I1
sVdrnciuh
p1479
I1
sVda9j6w1
p1480
I1
sVdau0fkw
p1481
I1
sVdkxva61
p1482
I1
sVdjf7166
p1483
I2
sVdg4lzpb
p1484
I1
sVd13oxyn
p1485
I1
sVd0nnnte
p1486
I1
sVdh86qb4
p1487
I1
sVdivtz4b
p1488
I1
sVd6l9g38
p1489
I1
sVdpw44v0
p1490
I1
sVd96ltjb
p1491
I1
sVd33zgm0
p1492
I1
sVd59gh15
p1493
I1
sVdcxwqm6
p1494
I1
sVdphqgx1
p1495
I1
sVd49sicf
p1496
I1
sVdmmfon0
p1497
I1
sVcyleu7u
p1498
I1
sVdfi7gd7
p1499
I1
sVd9nd444
p1500
I1
sVd9zm945
p1501
I1
sVd8hoqy1
p1502
I2
sVdc930ik
p1503
I1
sVdkhu91x
p1504
I1
sVdqiqwyk
p1505
I1
sVdfic932
p1506
I1
sVd0ylhcc
p1507
I2
sVdpiq6da
p1508
I1
sVd2yysya
p1509
I1
sVczc3bqx
p1510
I1
sVczgaw2b
p1511
I1
sVd1qg9nu
p1512
I1
sVda7uz7u
p1513
I1
sVdedts7d
p1514
I1
sVd0k5tga
p1515
I1
sVdc5kcop
p1516
I1
sVdn9ian4
p1517
I2
sVdk39rij
p1518
I1
sVdf6xunw
p1519
I1
sVd126o0w
p1520
I1
sVcym46pe
p1521
I1
sVd0xb5ft
p1522
I1
sVd31cg76
p1523
I2
sVd9cj2a1
p1524
I1
sVd62tfh9
p1525
I1
sVdjdqqic
p1526
I1
sVdbvytvq
p1527
I1
sVd9o6ech
p1528
I1
sVde5n13m
p1529
I1
sVd7rrrjq
p1530
I1
sVdcw1nub
p1531
I1
sVd8w39ag
p1532
I1
sVd9knc8d
p1533
I1
sVdh9zu1s
p1534
I1
sVd9jr846
p1535
I1
sVcyyjm5f
p1536
I1
sVd14x47r
p1537
I1
sVd1xajbj
p1538
I1
sVcz9u3gy
p1539
I1
sVdet3vpb
p1540
I1
sVdr0rma4
p1541
I1
sVdexfruo
p1542
I1
sVdsfrsip
p1543
I1
sVd5cg5fx
p1544
I1
sVdau6t0k
p1545
I1
sVdgivw2o
p1546
I1
sVdezj43g
p1547
I1
sVddwhdhs
p1548
I1
sVd1ph2yt
p1549
I1
sVdsd60t6
p1550
I1
sVdevur2i
p1551
I1
sVd6c1sr3
p1552
I1
sVdah8irh
p1553
I1
sVd5k4rei
p1554
I1
sVd5mapac
p1555
I1
sVd20qzb9
p1556
I1
sVd1zcjif
p1557
I1
sVdieatwp
p1558
I1
sVd0ovb5h
p1559
I1
sVdevsznp
p1560
I1
sVdc7cqud
p1561
I1
sVd0iegjf
p1562
I1
sVd69vqj5
p1563
I1
sVdppxiy9
p1564
I1
sVdc20ch9
p1565
I2
sVdan5y2p
p1566
I1
sVdak7zt9
p1567
I1
sVddwpu7l
p1568
I1
sVdaxe8vh
p1569
I1
sVd6r21vd
p1570
I1
sVd3px2i4
p1571
I1
sVd14ofu3
p1572
I1
sVdei101n
p1573
I1
sVczrqp9y
p1574
I1
sVdkls1yk
p1575
I1
sVdrqfrer
p1576
I1
sVdbqbdtb
p1577
I1
sVddetczf
p1578
I1
sVdirbbgf
p1579
I1
sVdd8euqi
p1580
I1
sVd4zciyn
p1581
I1
sVd04x2rm
p1582
I1
sVcz0rinp
p1583
I1
sVd0oo5hk
p1584
I1
sVdke4xp5
p1585
I1
sVdjoqeio
p1586
I1
sVdg8ae2c
p1587
I1
sVdk2qtzc
p1588
I1
sVd7kc98u
p1589
I1
sVdhtq5v6
p1590
I1
sVd5wvn3p
p1591
I1
sVd8pmlpb
p1592
I1
sVd64mw68
p1593
I1
sVdi2a6gp
p1594
I1
sVd3qvsqy
p1595
I1
sVddpjgsl
p1596
I1
sVdntafdr
p1597
I1
sVdsd2ovg
p1598
I1
sVdgk7vg7
p1599
I1
sVdringro
p1600
I1
sVda5cnnk
p1601
I1
sVd1yv8ng
p1602
I1
sVdgkcri7
p1603
I1
sVcyjndpv
p1604
I1
sVdhxfe2w
p1605
I1
sVdc3m1q1
p1606
I2
sVd1jd8c5
p1607
I1
sVd65i2ct
p1608
I1
sVd7rcqgl
p1609
I1
sVd5h9l0r
p1610
I1
sVdpc2yzw
p1611
I1
sVdmknlrq
p1612
I1
sVda4j17n
p1613
I1
sVd3pnj50
p1614
I1
sVcz58y47
p1615
I1
sVd81cb9t
p1616
I1
sVdhkwngv
p1617
I1
sVdcxlrdx
p1618
I1
sVdbqp1pf
p1619
I1
sVd1o10h5
p1620
I1
sVd44quii
p1621
I1
sVcynkusy
p1622
I1
sVcz91pxt
p1623
I1
sVczb0vqj
p1624
I1
sVddgmcwf
p1625
I1
sVddcs1hm
p1626
I1
sVdfbfvga
p1627
I1
sVd2a8lub
p1628
I1
sVd9q95oq
p1629
I1
sVd07yj47
p1630
I2
sVdemj5gx
p1631
I1
sVczn4f1h
p1632
I1
sVdakpk68
p1633
I1
sVdnu2xkv
p1634
I1
sVd9nf6wj
p1635
I1
sVd65op9b
p1636
I1
sVdas8pcw
p1637
I1
sVd4jnejf
p1638
I1
sVd8ip5ez
p1639
I3
sVdj2royd
p1640
I1
sVd8idz8m
p1641
I1
sVdevn3nf
p1642
I1
sVd924a1i
p1643
I1
sVd5kkr7k
p1644
I1
sVdci652b
p1645
I1
sVdf7mnsm
p1646
I1
sVd7x7rxx
p1647
I1
sVd9i8j5b
p1648
I1
sVd6qcg8r
p1649
I1
sVdabug9x
p1650
I1
sVd42z2kf
p1651
I1
sVdhoqucj
p1652
I1
sVd5ava7x
p1653
I1
sVdht7alr
p1654
I1
sVdea37k5
p1655
I1
sVd89ydy3
p1656
I1
sVd18jwvo
p1657
I1
sVdqcvm3c
p1658
I1
sVd3e56xm
p1659
I1
sVcytwtpz
p1660
I1
sVd3fe9t7
p1661
I1
sVczg38lf
p1662
I1
sVd2pnoyz
p1663
I1
sVd4116gs
p1664
I1
sVdait9nw
p1665
I1
sVcyuao26
p1666
I1
sVdnwdixd
p1667
I1
sVczewecz
p1668
I1
sVdbcvzao
p1669
I1
sVdamebpw
p1670
I1
sVddryjj3
p1671
I1
sVd4oe38f
p1672
I1
sVdf1pgwf
p1673
I1
sVd55c3l7
p1674
I1
sVd62q97r
p1675
I1
sVd3lj8aq
p1676
I1
sVd2u8gzp
p1677
I1
sVd3mix6h
p1678
I1
sVdqy0btr
p1679
I1
sVd7g7ko6
p1680
I1
sVd88eyfm
p1681
I1
sVdje0s5x
p1682
I1
sVd3r5zc7
p1683
I1
sVd4kfdsi
p1684
I1
sVde9i4bk
p1685
I1
sVd87dhxy
p1686
I1
sVddk4mfn
p1687
I1
sVde0liaa
p1688
I1
sVdei3apa
p1689
I1
sVd9iqr57
p1690
I2
sVdg2jbg7
p1691
I1
sVdaphgz8
p1692
I1
sVdfsbd6v
p1693
I1
sVd1r74t1
p1694
I1
sVdmkafba
p1695
I1
sVd6pqgfd
p1696
I1
sVdcba8r4
p1697
I1
sVdd0y30d
p1698
I1
sVdakrvaf
p1699
I1
sVd7xswdz
p1700
I1
sVdj4d3z4
p1701
I1
sVd47p1hp
p1702
I1
sVczkm1pz
p1703
I1
sVdckds8h
p1704
I1
sVde4turo
p1705
I1
sVcynfluc
p1706
I1
sVd2hq7p1
p1707
I1
sVd8cv03q
p1708
I1
sVdp3tpiu
p1709
I1
sVd9lqxwg
p1710
I1
sVd405rxk
p1711
I1
sVd9b3xki
p1712
I1
sVd4evi6v
p1713
I1
sVdif6kk5
p1714
I1
sVczbidg2
p1715
I1
sVd3dw5ej
p1716
I1
sVdfj41nx
p1717
I1
sVd1i8r9m
p1718
I1
sVd29negj
p1719
I1
sVd3pf7ph
p1720
I1
sVcyv9jif
p1721
I1
sVd2cmzhx
p1722
I1
sVdb1gc3s
p1723
I1
sVd0dlenw
p1724
I1
sVdg71eks
p1725
I1
sVdc49yfm
p1726
I1
sVd1edi41
p1727
I1
sVdc8hgzc
p1728
I1
sVdr07m8x
p1729
I1
sVcyp4fn5
p1730
I1
sVdjm9kz9
p1731
I1
sVd032r13
p1732
I2
sVdcxmrw7
p1733
I1
sVcznkvzn
p1734
I1
sVdg9covu
p1735
I1
sVdje2i84
p1736
I2
sVdiugr0o
p1737
I2
sVde8l5zq
p1738
I1
sVd1keae0
p1739
I1
sVdmf7w2y
p1740
I1
sVd9kyqwt
p1741
I1
sVd8g75c0
p1742
I1
sVdbeqb7a
p1743
I1
sVd0tpqdh
p1744
I1
sVdev633e
p1745
I1
sVd8tmwkb
p1746
I1
sVd66h1nn
p1747
I1
sVdc1uwdn
p1748
I1
sVd19c8x6
p1749
I1
sVd7we2b6
p1750
I1
sVdc5cse6
p1751
I1
sVd437a88
p1752
I1
sVdqei8zt
p1753
I1
sVd5y8phf
p1754
I1
sVdclmvra
p1755
I1
sVdjrb9s3
p1756
I1
sVdhfstee
p1757
I1
sVd6qgiqq
p1758
I1
sVd6t0p8n
p1759
I1
sVczasy7t
p1760
I1
sVdbsbefv
p1761
I1
sVda34ezf
p1762
I1
sVd1yjumy
p1763
I1
sVd1nv3cg
p1764
I2
sVdayvjuw
p1765
I1
sVdbu8afv
p1766
I1
sVdq7rwqh
p1767
I1
sVdn2wc7n
p1768
I1
sVd2fd35h
p1769
I1
sVdkrmf32
p1770
I1
sVdh4y1tr
p1771
I1
sVdez92sw
p1772
I1
sVdpz9zkg
p1773
I1
sVd08bb95
p1774
I1
sVdcpuqtf
p1775
I1
sVd5p6mir
p1776
I1
sVdix6cbz
p1777
I1
sVdpddzk3
p1778
I1
sVde5ipjl
p1779
I1
sVdbaomcl
p1780
I2
sVdibiyns
p1781
I1
sVdg83nog
p1782
I1
sVd0n6jiv
p1783
I1
sVd9iua41
p1784
I1
sVd9hdpw2
p1785
I2
sVd0pince
p1786
I1
sVczj23tb
p1787
I1
sVdqt8jyc
p1788
I1
sVd5r0n51
p1789
I1
sVd98emkb
p1790
I1
sVd1fn39m
p1791
I1
sVd87ww27
p1792
I1
sVderf1wu
p1793
I1
sVcyozymb
p1794
I1
sVdgfpq0q
p1795
I1
sVczr13au
p1796
I2
sVd6fcv8s
p1797
I1
sVd3li5xj
p1798
I1
sVd3waqng
p1799
I1
sVdhts603
p1800
I1
sVdi4k3o3
p1801
I1
sVdmzdlhl
p1802
I1
sVdn4mpsg
p1803
I1
sVdayg6h4
p1804
I1
sVdcxvcqz
p1805
I1
sVdoq0brw
p1806
I1
sVd43t1sg
p1807
I1
sVcz1stoh
p1808
I1
sVd744xjt
p1809
I1
sVd02zn1x
p1810
I1
sVdfv7f8o
p1811
I1
sVd6k52ex
p1812
I1
sVd2ls6wm
p1813
I1
sVd0mexek
p1814
I1
sVcyj2g8a
p1815
I2
sVddgqvsn
p1816
I1
sVczufwoi
p1817
I1
sVd22b21d
p1818
I1
sVd82pc4s
p1819
I1
sVdkmfy8u
p1820
I1
sVdb11i0s
p1821
I2
sVdixr733
p1822
I1
sVd0lv4g9
p1823
I1
sVd9al3d8
p1824
I1
sVd1btwvq
p1825
I1
sVdk5vm4a
p1826
I1
sVdcogq9e
p1827
I1
sVdab2k4w
p1828
I1
sVds31au0
p1829
I1
sVdb1fmgi
p1830
I2
sVcz4qwdb
p1831
I1
sVd7lhxa8
p1832
I1
sVdfpnu2z
p1833
I1
sVdpl7z01
p1834
I1
sVdi6exp1
p1835
I2
sVddj93ho
p1836
I1
sVdkk2i9x
p1837
I1
sVdb5ewsh
p1838
I1
sVdooxc6b
p1839
I1
sVds9ca8c
p1840
I1
sVd9c34pm
p1841
I1
sVdf7h5nm
p1842
I1
sVd0ryxg4
p1843
I1
sVdhtixrt
p1844
I1
sVddunzil
p1845
I1
sVcyisaf1
p1846
I1
sVdaia3d6
p1847
I1
sVdnvyp3y
p1848
I1
sVdhbfm72
p1849
I2
sVddlrhku
p1850
I1
sVdhted0t
p1851
I1
sVdktlq02
p1852
I1
sVd1jjodx
p1853
I2
sVd159pgz
p1854
I1
sVdelh7l0
p1855
I1
sVdaw4jr6
p1856
I1
sVczh449x
p1857
I1
sVdgvm8ua
p1858
I1
sVdc5mg23
p1859
I1
sVd66upie
p1860
I1
sVd3vtgzv
p1861
I1
sVd1dziwk
p1862
I1
sVd3dcgh6
p1863
I2
sVczqb2u4
p1864
I1
sVd3n10yw
p1865
I1
sVd2qw14t
p1866
I1
sVcz2o7as
p1867
I1
sVcz97prw
p1868
I1
sVcynvq7c
p1869
I1
sVd6tddsj
p1870
I1
sVd3y5t68
p1871
I1
sVd9h9xpd
p1872
I1
sVdij3m6x
p1873
I1
sVdcsf6u0
p1874
I1
sVdgd3brj
p1875
I2
sVdohadq8
p1876
I1
sVde3jbd2
p1877
I1
sVdaf4akt
p1878
I1
sVdfr0fcg
p1879
I1
sVd071yy1
p1880
I1
sVdf2rlef
p1881
I1
sVd3mxspy
p1882
I1
sVd018mut
p1883
I1
sVdeh3gr4
p1884
I1
sVdbi2htc
p1885
I1
sVczepygj
p1886
I1
sVd1yfdbf
p1887
I1
sVdort07w
p1888
I1
sVd1ios76
p1889
I1
sVder7tzk
p1890
I1
sVdgn0t2n
p1891
I1
sVcz5n51j
p1892
I1
sVd4jk8ek
p1893
I1
sVd3z6mga
p1894
I1
sVdb7asxi
p1895
I1
sVdbf7w8e
p1896
I1
sVd6e6vry
p1897
I1
sVddqnync
p1898
I1
sVdiac5iu
p1899
I1
sVdk9blve
p1900
I1
sVcz3u62d
p1901
I1
sVdmkyd38
p1902
I1
sVdeq4ndk
p1903
I3
sVdsfofuw
p1904
I1
sVdhcxmca
p1905
I1
sVdkz4vdd
p1906
I1
sVdc4evnr
p1907
I1
sVd0da3z7
p1908
I1
sVdacv33o
p1909
I1
sVczf2l2r
p1910
I1
sVd0ghm1a
p1911
I1
sVd2xnlcv
p1912
I1
sVd09g1eh
p1913
I1
sVd5mbgsu
p1914
I1
sVdkr67q4
p1915
I1
sVdaytz6a
p1916
I1
sVd1upsvp
p1917
I1
sVdktfbq9
p1918
I1
sVd3xlth9
p1919
I1
sVdkly0az
p1920
I1
sVd0zm5om
p1921
I1
sVd3o8llq
p1922
I1
sVd40t2ve
p1923
I2
sVdouxqhu
p1924
I1
sVd30hgbo
p1925
I1
sVd56qlfm
p1926
I1
sVd4gj44a
p1927
I1
sVd013ge4
p1928
I1
sVdaarfty
p1929
I1
sVcz88l4a
p1930
I1
sVdj6pkpq
p1931
I1
sVdhi179n
p1932
I1
sVd1cd07m
p1933
I1
sVd2wzt2o
p1934
I1
sVd5tgudf
p1935
I1
sVd5ydh9n
p1936
I1
sVddulqb2
p1937
I1
sVd2kraw2
p1938
I1
sVd0oi2we
p1939
I1
sVdiv24t6
p1940
I2
sVdhmd972
p1941
I2
sVdnh1kzv
p1942
I1
sVdq6mdsb
p1943
I1
sVd921ugs
p1944
I1
sVd00k60y
p1945
I1
sVd6dkcfg
p1946
I1
sVdfsc3ml
p1947
I1
sVd05mwce
p1948
I1
sVdb2zgnq
p1949
I1
sVdjzskdk
p1950
I1
sVd4q9e5g
p1951
I1
sVdgd86ue
p1952
I1
sVd02j4g4
p1953
I1
sVcz0l34r
p1954
I1
sVd1j9xf9
p1955
I1
sVd0gxffm
p1956
I1
sVdgf8jmj
p1957
I1
sVdbg6h13
p1958
I1
sVdfgtrhq
p1959
I1
sVd4iogs6
p1960
I1
sVdknhjtb
p1961
I1
sVdizxydf
p1962
I1
sVd39awkt
p1963
I1
sVdan0x77
p1964
I1
sVdbas86u
p1965
I1
sVd8562rr
p1966
I1
sVdb02gx7
p1967
I1
sVddhkkkv
p1968
I1
sVdim18uu
p1969
I1
sVdfkicl0
p1970
I1
sVdmh8hxj
p1971
I1
sVdif3gtc
p1972
I1
sVd2cgppb
p1973
I1
sVdheimof
p1974
I1
sVd805zga
p1975
I1
sVd8iae04
p1976
I1
sVdjlez9v
p1977
I2
sVczfsfdq
p1978
I1
sVd1gs5np
p1979
I1
sVd3jdn08
p1980
I1
sVcyigzhn
p1981
I1
sVd7xdzbe
p1982
I1
sVddinxs0
p1983
I1
sVd60t8i4
p1984
I1
sVd4c2g3o
p1985
I1
sVdf8t5he
p1986
I1
sVdiay10i
p1987
I1
sVdtc5tdk
p1988
I1
sVd68xst5
p1989
I1
sVdal2h7a
p1990
I1
sVdned4rd
p1991
I1
sVdn9lfn7
p1992
I1
sVdaj5orf
p1993
I1
sVd2y6wsw
p1994
I1
sVd0g4d89
p1995
I1
sVd4y0l48
p1996
I1
sVdcky8f6
p1997
I1
sVdddv7pv
p1998
I1
sVcyoh0z8
p1999
I1
sVdk0y1dl
p2000
I1
sVddxpff6
p2001
I1
sVd9ry115
p2002
I1
sVdgekiqn
p2003
I1
sVd2dwl9g
p2004
I1
sVczne6p8
p2005
I1
sVdqmng19
p2006
I2
sVdnw7c9f
p2007
I1
sVd8uc936
p2008
I1
sVdjio8g7
p2009
I2
sVdewpp6g
p2010
I1
sVczwkg0k
p2011
I1
sVdeg6epv
p2012
I1
sVd6mv41e
p2013
I1
sVd9le27v
p2014
I1
sVd2jufah
p2015
I1
sVd32hfyk
p2016
I1
sVd9nm55c
p2017
I1
sVddv8bhx
p2018
I1
sVdk4ws2c
p2019
I1
sVczfdq75
p2020
I1
sVd1gvi2t
p2021
I1
sVdbe048i
p2022
I1
sVdn4e2s3
p2023
I1
sVdhlcrjs
p2024
I2
sVde5fcmg
p2025
I1
sVdkxmg98
p2026
I1
sVdjzac2s
p2027
I1
sVdmp1ojg
p2028
I1
sVczitj27
p2029
I1
sVd10xvix
p2030
I1
sVdeh3np5
p2031
I1
sVdchstk8
p2032
I1
sVdj3kfgk
p2033
I1
sVdbxxus1
p2034
I1
sVd7npl17
p2035
I1
sVcz048xs
p2036
I2
sVd85o3j4
p2037
I1
sVd0axpnc
p2038
I1
sVcztq1on
p2039
I1
sVdhc8hqt
p2040
I1
sVdi6lqmg
p2041
I1
sVdcez9e6
p2042
I1
sVd0jfvea
p2043
I1
sVddgo3w3
p2044
I1
sVd30zw9r
p2045
I1
sVdcw0rek
p2046
I1
sVd1vbjdr
p2047
I2
sVdanyr8b
p2048
I1
sVdb80qat
p2049
I1
sVd1nc2zv
p2050
I1
sVdcya45m
p2051
I1
sVczqg8t2
p2052
I1
sVd0f4kr3
p2053
I1
sVdkit2an
p2054
I1
sVdqhqnwo
p2055
I1
sVdp23ljt
p2056
I1
sVd2ce6wv
p2057
I1
sVd2fg3tf
p2058
I1
sVd5j4gbj
p2059
I1
sVd19flcu
p2060
I1
sVdaddrly
p2061
I2
sVd8hmm7h
p2062
I1
sVdi54hsc
p2063
I1
sVcywpxvs
p2064
I1
sVdt02n9d
p2065
I1
sVdb36ze2
p2066
I1
sVdn2uyi2
p2067
I1
sVdejxj3j
p2068
I2
sVdodf712
p2069
I1
sVddmk5eb
p2070
I1
sVdgxzl3k
p2071
I1
sVd1q1y0n
p2072
I1
sVd9ytvfh
p2073
I1
sVdbmp266
p2074
I1
sVd1hzkqs
p2075
I1
sVd7qw30g
p2076
I1
sVd9nd6c5
p2077
I1
sVdh2uweb
p2078
I1
sVdcjzv8y
p2079
I1
sVd9dqv7i
p2080
I1
sVdfjgd8k
p2081
I1
sVdq73w6i
p2082
I1
sVd703vse
p2083
I1
sVdie10tj
p2084
I1
sVcywtdoo
p2085
I1
sVd01wc6e
p2086
I1
sVd1thpq6
p2087
I1
sVd97i8zx
p2088
I1
sVdcj11aj
p2089
I1
sVd5m23y6
p2090
I1
sVd0ynug3
p2091
I1
sVczz12x0
p2092
I2
sVdcg0ge7
p2093
I1
sVdkfjumd
p2094
I1
sVczf1t8f
p2095
I1
sVd1cvdkr
p2096
I1
sVd6iytqf
p2097
I1
sVdnh83hy
p2098
I1
sVdceyw9d
p2099
I1
sVdjdzlpc
p2100
I1
sVd2c4gpl
p2101
I1
sVd05f09q
p2102
I1
sVddeiqmx
p2103
I1
sVd1qhp6d
p2104
I1
sVdevv8kt
p2105
I1
sVd68o6x7
p2106
I2
sVdfot0y1
p2107
I1
sVd6aq11k
p2108
I1
sVd0yi90d
p2109
I1
sVdmhnfbr
p2110
I1
sVd1obzc5
p2111
I1
sVczzz9tb
p2112
I1
sVdk9xjrd
p2113
I1
sVd2i5d9h
p2114
I1
sVdrsfl2k
p2115
I1
sVddtoxvw
p2116
I1
sVd5zgj8a
p2117
I1
sVd2v2h0f
p2118
I1
sVddw0ct3
p2119
I1
sVd1jajzo
p2120
I1
sVdadrxws
p2121
I1
sVdatmk0j
p2122
I3
sVd3o00mu
p2123
I1
sVda2boaf
p2124
I1
sVd7zutbu
p2125
I1
sVdco7bge
p2126
I1
sVd08p81o
p2127
I1
sVd8gvx64
p2128
I1
sVd3jbk5k
p2129
I1
sVcyyjbji
p2130
I1
sVdrx7555
p2131
I1
sVd7m781q
p2132
I1
sVdkwh4eo
p2133
I1
sVdq5w7lp
p2134
I1
sVd78qsbq
p2135
I1
sVdein30x
p2136
I1
sVczdkc9l
p2137
I1
sVcynlsjn
p2138
I1
sVdsgelqf
p2139
I1
sVd19j0qc
p2140
I1
sVd3lzrud
p2141
I1
sVdpqvlh7
p2142
I1
sVdncru97
p2143
I1
sVdh4nmcr
p2144
I1
sVcziue8e
p2145
I1
sVdcmk0xu
p2146
I1
sVd3oadh2
p2147
I1
sVczvv7j8
p2148
I1
sVdt9ppyi
p2149
I1
sVdcnzd3r
p2150
I1
sVdo7w9na
p2151
I2
sVderycox
p2152
I1
sVd7ifvgb
p2153
I1
sVd2gzcw4
p2154
I1
sVdh9y456
p2155
I1
sVdjtyz6d
p2156
I1
sVdrqcgjz
p2157
I1
sVcyhzuz7
p2158
I1
sVd2h7owu
p2159
I1
sVd461ae9
p2160
I1
sVdkx69lg
p2161
I1
sVdb8kx4t
p2162
I1
sVd1y0358
p2163
I1
sVdn15i3u
p2164
I2
sVcywoqxw
p2165
I1
sVdeethmd
p2166
I1
sVd0vbmdw
p2167
I1
sVd3wbhbc
p2168
I1
sVdhbpopw
p2169
I1
sVd7ye11e
p2170
I1
sVdpq3ihv
p2171
I1
sVdkn9rtw
p2172
I1
sVd73g2lg
p2173
I1
sVd20c5bz
p2174
I1
sVd65xiv9
p2175
I1
sVd9uijgo
p2176
I1
sVdffqzls
p2177
I1
sVdj0q3ek
p2178
I1
sVdp9eiy5
p2179
I1
sVdgd1cm7
p2180
I1
sVcz3080v
p2181
I1
sVdjkfjt9
p2182
I1
sVdj2agyq
p2183
I1
sVdcw4fr3
p2184
I1
sVdt3f7an
p2185
I1
sVdevrofk
p2186
I1
sVd3f6diy
p2187
I1
sVd11kdkd
p2188
I1
sVczqjah7
p2189
I1
sVdqrelu6
p2190
I1
sVdozvaxm
p2191
I1
sVddf4ga4
p2192
I1
sVddf22ax
p2193
I1
sVd23wwd8
p2194
I1
sVddiuzms
p2195
I1
sVdqjwk58
p2196
I1
sVd1xku9w
p2197
I1
sVdomkgzv
p2198
I1
sVcysl0ol
p2199
I1
sVdf8a12z
p2200
I1
sVd2kuu6i
p2201
I1
sVdpgob88
p2202
I1
sVdiooawn
p2203
I1
sVd95mk56
p2204
I1
sVd1j4zo0
p2205
I1
sVd9k9x1m
p2206
I1
sVd8rcth0
p2207
I1
sVd60i9x2
p2208
I1
sVd1zsf4m
p2209
I1
sVd3maisu
p2210
I1
sVdo12s04
p2211
I1
sVdo3o1zs
p2212
I1
sVd3ubpyx
p2213
I1
sVd5vv7s1
p2214
I1
sVdc2j8i9
p2215
I1
sVdhuczt8
p2216
I2
sVdekuhwp
p2217
I1
sVdg7c9ov
p2218
I1
sVczudlsv
p2219
I1
sVd3atye5
p2220
I2
sVdikk1hk
p2221
I1
sVdfdrm4y
p2222
I1
sVd8b8qts
p2223
I3
sVdr96f5g
p2224
I1
sVd4a1fv0
p2225
I1
sVdhd4oim
p2226
I1
sVdg2hnxy
p2227
I1
sVd6ayy1i
p2228
I1
sVczmtc6d
p2229
I1
sVd3zgr0d
p2230
I1
sVdi336h9
p2231
I1
sVdahbox7
p2232
I1
sVd2becjg
p2233
I1
sVdpkrgdp
p2234
I1
sVdawzd1x
p2235
I1
sVd0b8k42
p2236
I1
sVdipx129
p2237
I1
sVd4l05kr
p2238
I7
sVcyixtjp
p2239
I1
sVdgw2gzk
p2240
I1
sVdtj685u
p2241
I1
sVdiohyeb
p2242
I2
sVd5zn0oi
p2243
I1
sVdgjrkt6
p2244
I1
sVdepaxlg
p2245
I1
sVdsogoe9
p2246
I1
sVd7443rk
p2247
I1
sVdcml4ke
p2248
I1
sVdodz2oh
p2249
I1
sVd33c56q
p2250
I1
sVcyv0sxv
p2251
I1
sVd1q3z45
p2252
I1
sVdk0sn38
p2253
I1
sVd12r5f2
p2254
I1
sVdomegmz
p2255
I1
sVd2nzxrt
p2256
I1
sVddom4cj
p2257
I1
sVdnhr4wt
p2258
I1
sVdgv58w6
p2259
I1
sVdg3rlue
p2260
I1
sVdi80any
p2261
I1
sVdp1sccv
p2262
I1
sVdn7tndi
p2263
I1
sVd3e6603
p2264
I1
sVdmn0uie
p2265
I1
sVdgbnlyz
p2266
I1
sVdaqm40x
p2267
I1
sVdb5svc6
p2268
I1
sVdb8t8qo
p2269
I1
sVdagomxw
p2270
I1
sVd188jkb
p2271
I1
sVddksls3
p2272
I1
sVdcpp8wv
p2273
I1
sVdcde9az
p2274
I1
sVdkbgf1f
p2275
I1
sVd2ehhjs
p2276
I1
sVdfpzb48
p2277
I1
sVcz7sn40
p2278
I1
sVd6glae4
p2279
I1
sVd3i3u2c
p2280
I2
sVd2ivhg1
p2281
I1
sVd9xhgp4
p2282
I1
sVd7d0qt0
p2283
I1
sVd6fljoy
p2284
I3
sVdqqtb2x
p2285
I1
sVdpw2hs4
p2286
I1
sVd4pw15k
p2287
I1
s.