(dp0
Vcyx3zco
p1
I1
s.(dp0
Vd3nnmwf
p1
I1
sVcyx3zco
p2
I1
s.(dp0
Vd82rocy
p1
I1
sVcyx3zco
p2
I1
s.(dp0
Vd84vg2j
p1
I1
sVcyx3zco
p2
I1
s.(dp0
Vd8u6oy0
p1
I1
sVcyx3zco
p2
I1
s.(dp0
Vd8u6oy0
p1
I1
sVcyx3zco
p2
I1
s.(dp0
Vd9v2sn9
p1
I1
sVcyx3zco
p2
I1
s.(dp0
Vdcwm2ok
p1
I1
sVcyx3zco
p2
I1
s.(dp0
Vddr4i4q
p1
I1
sVcyx3zco
p2
I1
s.(dp0
Vcyx3zco
p1
I1
sVdetzbj5
p2
I1
s.(dp0
Vcyx3zco
p1
I1
sVdi7y9q5
p2
I1
s.(dp0
Vcyx3zco
p1
I1
sVdjmuzok
p2
I1
s.(dp0
Vdkaw982
p1
I1
sVcyx3zco
p2
I1
s.(dp0
Vds341ya
p1
I1
sVcyx3zco
p2
I1
s.