(dp0
Vcylknaf
p1
I1
s.(dp0
Vcym3w2f
p1
I1
sVcylknaf
p2
I1
s.(dp0
Vcylknaf
p1
I1
sVcyr671m
p2
I1
s.(dp0
Vcylknaf
p1
I1
sVcyv47s4
p2
I1
s.(dp0
Vcylknaf
p1
I1
sVcyv6rcu
p2
I1
s.(dp0
Vcylknaf
p1
I1
sVcz1xv62
p2
I1
s.(dp0
Vczbafgx
p1
I1
sVcylknaf
p2
I1
s.(dp0
Vczloc7e
p1
I1
sVcylknaf
p2
I1
s.(dp0
Vczrn0e1
p1
I1
sVcylknaf
p2
I1
s.(dp0
Vcylknaf
p1
I1
sVczru5lc
p2
I1
s.(dp0
Vcylknaf
p1
I1
sVczwbxuf
p2
I1
s.(dp0
Vcylknaf
p1
I1
sVd09s0jq
p2
I1
s.(dp0
Vcylknaf
p1
I1
sVd0bkwbn
p2
I1
s.(dp0
Vcylknaf
p1
I1
sVd0eydq3
p2
I1
s.(dp0
Vcylknaf
p1
I1
sVd0gfp09
p2
I1
s.(dp0
Vcylknaf
p1
I1
sVd0r22zu
p2
I1
s.(dp0
Vcylknaf
p1
I1
sVd1en959
p2
I1
s.(dp0
Vcylknaf
p1
I1
sVd1en959
p2
I1
s.(dp0
Vcylknaf
p1
I1
sVd1na5x8
p2
I1
s.(dp0
Vcylknaf
p1
I1
sVd1zdg6w
p2
I1
s.(dp0
Vcylknaf
p1
I1
sVd1ze0tg
p2
I1
s.(dp0
Vcylknaf
p1
I1
sVd24kfaj
p2
I1
s.(dp0
Vcylknaf
p1
I1
sVd2hcfz8
p2
I1
s.(dp0
Vcylknaf
p1
I1
sVd2kodjs
p2
I1
s.(dp0
Vcylknaf
p1
I1
sVd2n3rmm
p2
I1
s.(dp0
Vcylknaf
p1
I1
sVd2nw55b
p2
I1
s.(dp0
Vcylknaf
p1
I1
sVd2qo4i1
p2
I1
s.(dp0
Vcylknaf
p1
I1
sVd2vwuol
p2
I1
s.(dp0
Vcylknaf
p1
I1
sVd3atlce
p2
I1
s.(dp0
Vd3lx262
p1
I1
sVcylknaf
p2
I1
s.(dp0
Vcylknaf
p1
I1
sVd3pxxdx
p2
I1
s.(dp0
Vcylknaf
p1
I1
sVd3vfbkb
p2
I1
s.(dp0
Vcylknaf
p1
I1
sVd3znsk3
p2
I1
s.(dp0
Vd4awzg8
p1
I1
sVcylknaf
p2
I1
s.(dp0
Vcylknaf
p1
I1
sVd4i123w
p2
I1
s.(dp0
Vcylknaf
p1
I1
sVd4wod8o
p2
I1
s.(dp0
Vcylknaf
p1
I1
sVd57rjpf
p2
I1
s.(dp0
Vcylknaf
p1
I1
sVd5jd4tv
p2
I1
s.(dp0
Vcylknaf
p1
I1
sVd5wuuxr
p2
I1
s.(dp0
Vcylknaf
p1
I1
sVd616mir
p2
I1
s.(dp0
Vd61wglj
p1
I1
sVcylknaf
p2
I1
s.(dp0
Vd640dct
p1
I1
sVcylknaf
p2
I1
s.(dp0
Vcylknaf
p1
I1
sVd6fza1a
p2
I1
s.(dp0
Vcylknaf
p1
I1
sVd6g6g5c
p2
I1
s.(dp0
Vd6ufyip
p1
I1
sVcylknaf
p2
I1
s.(dp0
Vcylknaf
p1
I1
sVd78ows3
p2
I1
s.(dp0
Vcylknaf
p1
I1
sVd79embz
p2
I1
s.(dp0
Vcylknaf
p1
I1
sVd7cyo16
p2
I1
s.(dp0
Vcylknaf
p1
I1
sVd8c8b4z
p2
I1
s.(dp0
Vcylknaf
p1
I1
sVd8guk8i
p2
I1
s.(dp0
Vcylknaf
p1
I1
sVd8jojk9
p2
I1
s.(dp0
Vcylknaf
p1
I1
sVd91z77h
p2
I1
s.(dp0
Vcylknaf
p1
I1
sVd92ho5h
p2
I1
s.(dp0
Vcylknaf
p1
I1
sVd9427x0
p2
I1
s.(dp0
Vcylknaf
p1
I1
sVd9jr24o
p2
I1
s.(dp0
Vcylknaf
p1
I1
sVd9lrbqj
p2
I1
s.(dp0
Vcylknaf
p1
I1
sVd9zrnv2
p2
I1
s.(dp0
Vcylknaf
p1
I1
sVda0jgwm
p2
I1
s.(dp0
Vcylknaf
p1
I1
sVda3dt8b
p2
I1
s.(dp0
Vda4gumw
p1
I1
sVcylknaf
p2
I1
s.(dp0
Vcylknaf
p1
I1
sVdabjkwd
p2
I1
s.(dp0
Vcylknaf
p1
I1
sVdam2mbh
p2
I1
s.(dp0
Vcylknaf
p1
I1
sVdawmi6g
p2
I1
s.(dp0
Vcylknaf
p1
I1
sVdb2vcjj
p2
I1
s.(dp0
Vcylknaf
p1
I1
sVdb5evjy
p2
I1
s.(dp0
Vdbc4v9g
p1
I1
sVcylknaf
p2
I1
s.(dp0
Vcylknaf
p1
I1
sVdbf4wi6
p2
I1
s.(dp0
Vcylknaf
p1
I1
sVdbh3exo
p2
I1
s.(dp0
Vcylknaf
p1
I1
sVdcc3513
p2
I1
s.(dp0
Vcylknaf
p1
I1
sVdclxgat
p2
I1
s.(dp0
Vcylknaf
p1
I1
sVdcsemzf
p2
I1
s.(dp0
Vcylknaf
p1
I1
sVdczi9t1
p2
I1
s.(dp0
Vcylknaf
p1
I1
sVdd3e8u5
p2
I1
s.(dp0
Vcylknaf
p1
I1
sVdd3j8hp
p2
I1
s.(dp0
Vcylknaf
p1
I1
sVdd4zjhh
p2
I1
s.(dp0
Vcylknaf
p1
I1
sVddc8qz4
p2
I1
s.(dp0
Vcylknaf
p1
I1
sVddinpg7
p2
I1
s.(dp0
Vcylknaf
p1
I1
sVddje4qs
p2
I1
s.(dp0
Vcylknaf
p1
I1
sVddk1uug
p2
I1
s.(dp0
Vcylknaf
p1
I1
sVddspxwr
p2
I1
s.(dp0
Vcylknaf
p1
I1
sVde0kceb
p2
I1
s.(dp0
Vcylknaf
p1
I1
sVde0tnjw
p2
I1
s.(dp0
Vcylknaf
p1
I1
sVde45yjo
p2
I1
s.(dp0
Vcylknaf
p1
I1
sVde4r4u8
p2
I1
s.(dp0
Vcylknaf
p1
I1
sVdeb7e6e
p2
I1
s.(dp0
Vcylknaf
p1
I1
sVdesnqn0
p2
I1
s.(dp0
Vcylknaf
p1
I1
sVdf8coss
p2
I1
s.(dp0
Vcylknaf
p1
I1
sVdfb4lav
p2
I1
s.(dp0
Vcylknaf
p1
I1
sVdflt14f
p2
I1
s.(dp0
Vcylknaf
p1
I1
sVdft142i
p2
I1
s.(dp0
Vcylknaf
p1
I1
sVdgcubmf
p2
I1
s.(dp0
Vcylknaf
p1
I1
sVdgmp0t8
p2
I1
s.(dp0
Vcylknaf
p1
I1
sVdgqho1e
p2
I1
s.(dp0
Vcylknaf
p1
I1
sVdgzqroh
p2
I1
s.(dp0
Vcylknaf
p1
I1
sVdh5j5tw
p2
I1
s.(dp0
Vcylknaf
p1
I1
sVdi3eo56
p2
I1
s.(dp0
Vcylknaf
p1
I1
sVdibson1
p2
I1
s.(dp0
Vcylknaf
p1
I1
sVdj1n00w
p2
I1
s.(dp0
Vcylknaf
p1
I1
sVdjat3ho
p2
I1
s.(dp0
Vcylknaf
p1
I1
sVdjf0q8i
p2
I1
s.(dp0
Vcylknaf
p1
I1
sVdjglvxq
p2
I1
s.(dp0
Vcylknaf
p1
I1
sVdjom4nx
p2
I1
s.(dp0
Vdk0sn38
p1
I1
sVcylknaf
p2
I1
s.(dp0
Vdk0sn38
p1
I1
sVcylknaf
p2
I1
s.(dp0
Vcylknaf
p1
I1
sVdk3ai2k
p2
I1
s.(dp0
Vcylknaf
p1
I1
sVdk8f0sr
p2
I1
s.(dp0
Vdk8wt2u
p1
I1
sVcylknaf
p2
I1
s.(dp0
Vcylknaf
p1
I1
sVdkhni4j
p2
I1
s.(dp0
Vcy(dp0
Vdt5r20r
p1
I1
sVcylknaf
p2
I1
s.