(dp0
Vdhn8nuo
p1
I1
sVd7qjzmw
p2
I1
sVdmhul1d
p3
I1
sVdbyxat4
p4
I1
sVdkkj9xk
p5
I1
sVcyz01vu
p6
I1
sVdqkghav
p7
I1
sVdbgf1bq
p8
I1
sVdkc38zq
p9
I1
sVderdwv1
p10
I1
sVcz3vk1p
p11
I1
sVd71i59o
p12
I1
sVdeu14rb
p13
I1
sVd78jtfm
p14
I1
sVd97dfgb
p15
I1
sVd7qeufh
p16
I1
sVddol021
p17
I1
sVdala46f
p18
I1
s.