(dp0
Vcyz01vu
p1
I1
s.(dp0
Vcz3vk1p
p1
I1
sVcyz01vu
p2
I1
s.(dp0
Vd71i59o
p1
I1
sVcyz01vu
p2
I1
s.(dp0
Vd78jtfm
p1
I1
sVcyz01vu
p2
I1
s.(dp0
Vd7qeufh
p1
I1
sVcyz01vu
p2
I1
s.(dp0
Vd7qjzmw
p1
I1
sVcyz01vu
p2
I1
s.(dp0
Vd97dfgb
p1
I1
sVcyz01vu
p2
I1
s.(dp0
Vdala46f
p1
I1
sVcyz01vu
p2
I1
s.(dp0
Vdbgf1bq
p1
I1
sVcyz01vu
p2
I1
s.(dp0
Vdbyxat4
p1
I1
sVcyz01vu
p2
I1
s.(dp0
Vddol021
p1
I1
sVcyz01vu
p2
I1
s.(dp0
Vderdwv1
p1
I1
sVcyz01vu
p2
I1
s.(dp0
Vdeu14rb
p1
I1
sVcyz01vu
p2
I1
s.(dp0
Vdhn8nuo
p1
I1
sVcyz01vu
p2
I1
s.(dp0
Vdkc38zq
p1
I1
sVcyz01vu
p2
I1
s.(dp0
Vdkkj9xk
p1
I1
sVcyz01vu
p2
I1
s.(dp0
Vdmhul1d
p1
I1
sVcyz01vu
p2
I1
s.(dp0
Vdqkghav
p1
I1
sVcyz01vu
p2
I1
s.