(dp0
Vdgcxrxc
p1
I1
sVd2yx65a
p2
I1
sVdb73kcl
p3
I1
sVdo67jt5
p4
I1
sVczmduez
p5
I1
sVczmapaw
p6
I1
sVdd4d9j5
p7
I1
sVczy3ca0
p8
I1
sVdny93r6
p9
I1
sVd9etynb
p10
I1
sVdjd6uwo
p11
I1
sVdp0k7dl
p12
I1
sVdcwpno7
p13
I3
sVdmve9tk
p14
I2
sVd4ctcf0
p15
I1
sVd1blwvq
p16
I1
sVdhkh7tp
p17
I1
sVcylhsmj
p18
I1
sVdhse0h0
p19
I2
sVd98hz25
p20
I1
sVczi5g3h
p21
I1
sVczsftns
p22
I1
sVcyi1m6g
p23
I1
sVczb62gu
p24
I1
sVdj2g9ay
p25
I2
sVd9a4mh8
p26
I1
sVddavr9n
p27
I1
sVdafroie
p28
I1
sVddnxhr0
p29
I1
sVdnecl8v
p30
I1
sVcz3k390
p31
I1
sVd3n0q7z
p32
I1
sVd6v0ftz
p33
I1
sVd3fgfy5
p34
I1
sVdgak9f9
p35
I1
sVdd7azhh
p36
I1
sVd5si44h
p37
I1
sVd8g3gv8
p38
I1
sVdd8ozvv
p39
I1
sVddelluj
p40
I1
sVczihb88
p41
I1
sVdb3seeo
p42
I1
sVd15ldl3
p43
I1
sVdj8sms4
p44
I1
sVdi5hw3i
p45
I1
sVd8ymiea
p46
I1
sVdel8w9u
p47
I1
sVdkksqrg
p48
I1
sVdok5od0
p49
I1
sVd2dme01
p50
I1
sVdftk8wh
p51
I1
sVddss1xm
p52
I1
sVd0706xd
p53
I1
sVdolo3q2
p54
I1
sVd38z57l
p55
I1
sVddr4a6t
p56
I1
sVddad07q
p57
I1
sVdhzte12
p58
I1
sVd18o1fw
p59
I1
sVcyvdafm
p60
I1
sVd6acau3
p61
I1
sVdnehx7d
p62
I2
sVda3u2re
p63
I1
sVdqt0bhz
p64
I1
sVdhq5lmv
p65
I1
sVdcbayvi
p66
I1
sVd593lsq
p67
I1
sVczn7jgc
p68
I2
sVdfjvqrx
p69
I1
sVcytlt60
p70
I1
sVd4xma7r
p71
I1
sVdam6ns8
p72
I1
sVdes76zu
p73
I1
sVd0yb8qn
p74
I1
sVdh0041s
p75
I1
sVd0ncb5i
p76
I1
sVcywgpeb
p77
I1
sVda5zy17
p78
I1
sVdkaw982
p79
I1
sVdam0bvf
p80
I1
sVd451hjh
p81
I1
sVd6bhrxm
p82
I1
sVd2uupm4
p83
I1
sVdpjxua2
p84
I1
sVd7qffqb
p85
I1
sVdce0dgx
p86
I1
sVd3brny0
p87
I1
sVde0vjol
p88
I1
sVdrnye5i
p89
I1
sVdczbf3h
p90
I1
sVd7witx0
p91
I1
sVdpmw8op
p92
I1
sVdbj13ct
p93
I1
sVdfl0aqc
p94
I1
sVddaqxeo
p95
I1
sVdmvqrzg
p96
I2
sVd7yxkaa
p97
I1
sVczdguz6
p98
I1
sVcyyxwgg
p99
I1
sVdbcjndg
p100
I1
sVdcs60e6
p101
I1
sVdfieluv
p102
I1
sVdryg7mc
p103
I1
sVdod9yes
p104
I1
sVd375cj6
p105
I1
sVdizhdwa
p106
I1
sVdelyac6
p107
I1
sVdq2qe0h
p108
I1
sVcz6pmel
p109
I1
sVcyx199v
p110
I1
sVdq19xu0
p111
I1
sVdgcuj9w
p112
I1
sVdjpzcip
p113
I1
sVdawo8ba
p114
I1
sVd9670vd
p115
I1
sVdrmofjm
p116
I2
sVdftl0yo
p117
I1
sVdhoviol
p118
I1
sVd5os05b
p119
I1
sVdnso0fk
p120
I1
sVd7sn6hb
p121
I1
sVd6dnl4c
p122
I1
sVdjisugv
p123
I1
sVd4tzhzb
p124
I1
sVd00j8jx
p125
I1
sVdfhwpf8
p126
I1
sVd4ehefw
p127
I1
sVdkqhft2
p128
I1
sVdgfh2zb
p129
I1
sVdh0djve
p130
I1
sVd9k0dei
p131
I2
sVd342jpi
p132
I1
sVd0wc34i
p133
I2
sVd4rqayo
p134
I1
sVdhfrmsl
p135
I1
sVd74crzw
p136
I1
sVddmiyiu
p137
I1
sVd5hy4i6
p138
I1
sVdebkke4
p139
I1
sVdemdlpx
p140
I1
sVdhjfnvd
p141
I1
sVdkntml7
p142
I1
sVdaspgbu
p143
I1
sVd6i7gki
p144
I1
sVdk9fg3k
p145
I1
sVd3bz7ik
p146
I1
sVddizo0f
p147
I1
sVd8gn7vx
p148
I2
sVdg9cc6z
p149
I1
sVdkx3ujd
p150
I2
sVd7wuj6z
p151
I1
sVdfozljh
p152
I2
sVdb0fhwq
p153
I1
sVd8yd8ja
p154
I1
sVd5mkrbw
p155
I1
sVdh0clzu
p156
I1
sVd4r19ou
p157
I1
sVd50wdzs
p158
I1
sVd7mic8h
p159
I1
sVd950yb8
p160
I1
sVd36bxxv
p161
I1
sVdg7ez9o
p162
I1
sVdow4215
p163
I1
sVd429yuf
p164
I1
sVdhgas18
p165
I1
sVcz0b80t
p166
I1
sVde15mls
p167
I1
sVdcatsfd
p168
I1
sVddvk3n2
p169
I1
sVdex2v3f
p170
I2
sVdot0jbo
p171
I1
sVdi13ddz
p172
I1
sVd2naemm
p173
I1
sVdj2i3b6
p174
I2
sVd1vy1ox
p175
I1
sVddjnok6
p176
I1
sVdgxqymq
p177
I1
sVdhmqhpm
p178
I1
sVdevf04y
p179
I2
sVdc78s46
p180
I1
sVd7l693v
p181
I1
sVdcb7yfc
p182
I1
sVd8ek67h
p183
I1
sVdbkl6sp
p184
I1
sVds9hkwy
p185
I1
sVd20rdyh
p186
I1
sVdj1nkkq
p187
I1
sVd902wkq
p188
I1
sVcziyr0m
p189
I1
sVd1ghste
p190
I1
sVdd7467u
p191
I1
sVd7uxj9l
p192
I1
sVd4jvkkr
p193
I2
sVdjogooy
p194
I1
sVd73el13
p195
I1
sVdni9aa5
p196
I1
sVde3uwqu
p197
I2
sVdecmwwd
p198
I1
sVd694hdn
p199
I1
sVd0d71ih
p200
I2
sVdjs2wev
p201
I2
sVd8pvob0
p202
I1
sVcz3bs5j
p203
I1
sVd4v07ot
p204
I1
sVcz1noh7
p205
I1
sVd1ul47s
p206
I1
sVd1frldo
p207
I1
sVdmon2zi
p208
I1
sVdj071h2
p209
I1
sVd55h0uz
p210
I1
sVdd3q9wq
p211
I1
sVded696i
p212
I1
sVdb7jmgi
p213
I1
sVdfri4au
p214
I1
sVd8oyn6n
p215
I1
sVd2bu2ez
p216
I1
sVd6hkcyc
p217
I1
sVdktp943
p218
I1
sVdqee431
p219
I1
sVdhj0roo
p220
I1
sVds0fekj
p221
I1
sVdnxef34
p222
I1
sVcza9uk5
p223
I1
sVdj53m8t
p224
I1
sVd7r5ago
p225
I1
sVd5d58e9
p226
I1
sVdhizzjj
p227
I1
sVdksty9k
p228
I1
sVd7tg5ed
p229
I2
sVd6qb2q5
p230
I1
sVdbsx5ab
p231
I1
sVdhi872g
p232
I1
sVd57d36w
p233
I1
sVd1512qj
p234
I1
sVdkg2mmc
p235
I1
sVdsqt2rm
p236
I1
sVd1zoct0
p237
I1
sVda2k87l
p238
I1
sVcyqgbre
p239
I1
sVdf80vaf
p240
I1
sVdh1igv2
p241
I1
sVd4izprs
p242
I1
sVdccvnuh
p243
I1
sVdteav1s
p244
I2
sVdthok0f
p245
I1
sVd035iwo
p246
I1
sVdeuyor8
p247
I1
sVdgir51g
p248
I1
sVd8gr9cm
p249
I1
sVd5dr5ax
p250
I1
sVdbbc77s
p251
I1
sVdgf1vw1
p252
I1
sVda3uq92
p253
I1
sVd2v7ny5
p254
I1
sVd5p0xsi
p255
I1
sVdbppq6k
p256
I1
sVd1gaj1g
p257
I1
sVczl3zvv
p258
I1
sVd6x91z7
p259
I1
sVdjckoj8
p260
I1
sVdcds5jh
p261
I1
sVdib2bc4
p262
I1
sVdin265z
p263
I1
sVcyoaona
p264
I1
sVdihegha
p265
I1
sVd0n9n0e
p266
I1
sVdkdm7f7
p267
I1
sVdbsp5g3
p268
I1
sVd8exu7i
p269
I1
sVdgoy7s5
p270
I1
sVdjuecct
p271
I1
sVd1xcwcz
p272
I1
sVd9w9d0k
p273
I1
sVd9x0i3i
p274
I1
sVcyt79ol
p275
I1
sVddjarlq
p276
I1
sVd9gmx35
p277
I1
sVdkhurrn
p278
I1
sVd3fywsh
p279
I1
sVd1fpeqa
p280
I1
sVdi6yr7l
p281
I1
sVd9igsf5
p282
I1
sVd5621yi
p283
I1
sVdbs04dn
p284
I1
sVd1bp62x
p285
I1
sVd9spqgp
p286
I1
sVdie2yek
p287
I1
sVd3y99ec
p288
I1
sVdkeidfd
p289
I1
sVd2qzh55
p290
I2
sVd0h9eq4
p291
I2
sVd0da2wa
p292
I1
sVd0nh3fg
p293
I1
sVdrd8sjx
p294
I1
sVdc70j3o
p295
I2
sVdj2b4ci
p296
I2
sVd4v1f9m
p297
I1
sVddpbx52
p298
I1
sVdfx1yck
p299
I1
sVdbrnxu0
p300
I2
sVdneh063
p301
I1
sVd7jx3dn
p302
I1
sVd1d31fc
p303
I1
sVd8w8r86
p304
I1
sVdk5f9v1
p305
I1
sVdt4jjp3
p306
I1
sVd4n7gpf
p307
I1
sVdr2myj3
p308
I1
sVdagrsf9
p309
I1
sVd0qrzhq
p310
I1
sVdenx9c6
p311
I1
sVd032pxd
p312
I1
sVddpvco0
p313
I1
sVdidpjsc
p314
I1
sVdj2g44v
p315
I1
sVdccd2zh
p316
I1
sVd8ze5iv
p317
I1
sVdaki7xc
p318
I1
sVdfxnrmd
p319
I1
sVd22775v
p320
I1
sVdc6o2xd
p321
I1
sVdbv9ldo
p322
I1
sVcza545z
p323
I1
sVdc0x5ih
p324
I1
sVd2kfx98
p325
I1
sVdegss2h
p326
I1
sVd0rqsx5
p327
I1
sVdb7o48r
p328
I1
sVd18ncu5
p329
I2
sVddlky9w
p330
I1
sVd0kz8uh
p331
I1
sVdisnbz8
p332
I1
sVcz9g82t
p333
I1
sVdhb2dhh
p334
I1
sVdeof4ib
p335
I1
sVd4giq0a
p336
I2
sVczxylq5
p337
I1
sVczhl26n
p338
I1
sVd1952bp
p339
I2
sVd05micd
p340
I1
sVd2l8z84
p341
I1
sVdgzjymu
p342
I1
sVd7e6nmm
p343
I1
sVd19eehu
p344
I1
sVdc6kqel
p345
I1
sVdehdisx
p346
I1
sVd3n81xk
p347
I1
sVdbmbqxg
p348
I1
sVdbjekw4
p349
I1
sVczbmpzp
p350
I1
sVdh2sho2
p351
I1
sVd6cthqz
p352
I1
sVdgjj1oz
p353
I1
sVd76td23
p354
I1
sVdf597sh
p355
I1
sVcyw5sf4
p356
I1
sVdbncv0u
p357
I1
sVdj4mk50
p358
I1
sVdav70w9
p359
I1
sVcyvs33v
p360
I1
sVde469w3
p361
I1
sVd03lvsp
p362
I1
sVdgnm2s0
p363
I1
sVdjnrs3t
p364
I1
sVcyn45sa
p365
I1
sVda6rc5h
p366
I1
sVdnmldzj
p367
I1
sVd5k6r5p
p368
I1
sVd6zva85
p369
I1
sVdbltkel
p370
I1
sVcz9yiv4
p371
I1
sVd108tng
p372
I1
sVdtihnia
p373
I1
sVde5nsh6
p374
I1
sVdgdg1v2
p375
I1
sVdbwee6y
p376
I1
sVdo1rlgr
p377
I1
sVd6pmgwu
p378
I1
sVd90bkn4
p379
I1
sVd73e4jy
p380
I2
sVd8zx9d9
p381
I2
sVdd0q2ll
p382
I1
sVdh1qxwi
p383
I1
sVd2vaalc
p384
I2
sVd01hd44
p385
I1
sVd1rybnf
p386
I1
sVd5vrxi3
p387
I1
sVdo02l7c
p388
I1
sVd5b1zhn
p389
I1
sVcyt6yts
p390
I1
sVdfwajrt
p391
I1
sVdj1l4xw
p392
I1
sVdkajvze
p393
I2
sVdpni68g
p394
I1
sVd8a2crp
p395
I1
sVdd8eoz1
p396
I1
sVd80qy8m
p397
I1
sVd1pp23w
p398
I4
sVdb02m01
p399
I1
sVdiywxjs
p400
I1
sVdj8h111
p401
I1
sVd72z4ti
p402
I3
sVdc1def7
p403
I1
sVdj6l9mu
p404
I1
sVd2ciqmz
p405
I2
sVd36wnb3
p406
I1
sVdir3muo
p407
I1
sVdgv3efj
p408
I2
sVda5z64w
p409
I1
sVdaoc4h3
p410
I1
sVdnedf4o
p411
I1
sVd1elsw1
p412
I2
sVddpvnms
p413
I1
sVd0tzl3a
p414
I1
sVdcsyl2j
p415
I1
sVd8acw83
p416
I1
sVdohd5em
p417
I1
sVdcsmurj
p418
I1
sVd2mje6a
p419
I1
sVdgab3ex
p420
I1
sVdjy1h5e
p421
I1
sVdo80iuo
p422
I1
sVcyomsoh
p423
I1
sVdisdztu
p424
I1
sVd0tjtm0
p425
I1
sVd9ko4rw
p426
I1
sVdfbsu3f
p427
I1
sVd3yw9q9
p428
I1
sVdggskwb
p429
I2
sVdklf7pi
p430
I1
sVd1hzhnc
p431
I1
sVddnkrgc
p432
I1
sVd9rdml6
p433
I1
sVczxssm3
p434
I1
sVdb2a108
p435
I1
sVd1yeorx
p436
I1
sVczs0x2m
p437
I1
sVdjc1nc1
p438
I1
sVdd48u7y
p439
I2
sVddu6q4a
p440
I1
sVdnayzsn
p441
I1
sVdf26wph
p442
I4
sVdp1xu3v
p443
I1
sVdmy6let
p444
I1
sVdeapmgw
p445
I1
sVdh6j63g
p446
I1
sVdinzca0
p447
I2
sVdclvl9f
p448
I1
sVd3bl2tf
p449
I1
sVdhdtucq
p450
I1
sVd4f9npn
p451
I1
sVdr0wn9l
p452
I1
sVdgcxar5
p453
I2
sVd1qqipk
p454
I2
sVd5mefvx
p455
I1
sVczb8veg
p456
I1
sVdnhbkvv
p457
I1
sVd6o8odn
p458
I1
sVd67sdk1
p459
I1
sVd3n4101
p460
I1
sVczmozpo
p461
I1
sVd0ykdmf
p462
I1
sVd1cv7dq
p463
I1
sVcykf0d4
p464
I5
sVdmquk01
p465
I1
sVdckk47c
p466
I1
sVcyj938r
p467
I1
sVdj8muys
p468
I1
sVdnadx93
p469
I1
sVddpz52a
p470
I1
sVdkb3vqh
p471
I1
sVd0r1lkp
p472
I1
sVd6ddwca
p473
I1
sVdf1o99j
p474
I1
sVdkavsu3
p475
I1
sVd8nexd6
p476
I1
sVd0dx6g6
p477
I1
sVdd3u0r2
p478
I1
sVdb2p7fk
p479
I1
sVdfbg6qv
p480
I1
sVdjma6dr
p481
I1
sVdjohoz6
p482
I1
sVd5rtcxw
p483
I1
sVd4jy0vk
p484
I1
sVdmm1s9z
p485
I1
sVdedtutz
p486
I1
sVdhox0lc
p487
I1
sVdf013x3
p488
I1
sVdc3953e
p489
I1
sVd0vhj84
p490
I1
sVd6jyycw
p491
I1
sVd9x87pv
p492
I1
sVd52k8ik
p493
I1
sVd5mugzu
p494
I1
sVdn19l7m
p495
I2
sVczkb26i
p496
I1
sVdegwh2v
p497
I1
sVd0816uf
p498
I1
sVda6yovx
p499
I1
sVdb8dzh1
p500
I1
sVd3i7b9d
p501
I1
sVdk17dbj
p502
I1
sVd237agc
p503
I2
sVdfelx4s
p504
I1
sVdsvhjuu
p505
I1
sVd8f3a30
p506
I1
sVdd5jp86
p507
I1
sVdo9dk8x
p508
I1
sVdhl1fhl
p509
I1
sVdh75x17
p510
I1
sVdmpf337
p511
I1
sVd1dts34
p512
I1
sVd3qfysr
p513
I1
sVdh16atp
p514
I1
sVdsrxti8
p515
I1
sVdph44v2
p516
I1
sVczoz6r2
p517
I2
sVdfisjmu
p518
I1
sVd1emivl
p519
I1
sVdjtm5mv
p520
I1
sVd0x9bkc
p521
I1
sVdtffkjc
p522
I1
sVdkebq4p
p523
I1
sVdkyxeoe
p524
I2
sVd6pz6bn
p525
I1
sVdd46x8k
p526
I1
sVdagbjxo
p527
I1
sVd1o4dpd
p528
I1
sVdinaqwt
p529
I1
sVdi4p003
p530
I1
sVddnbuwo
p531
I1
sVczxswnx
p532
I1
sVdi9lmnm
p533
I2
sVdr2ti6j
p534
I1
sVdmsljlz
p535
I1
sVd8ermui
p536
I1
sVczwn55u
p537
I1
sVd0ql0nb
p538
I1
sVd9ds9qm
p539
I1
sVdh30yoh
p540
I1
sVdr4wzgu
p541
I1
sVd7mn8xz
p542
I1
sVdgd3brj
p543
I1
sVdjgq3ry
p544
I1
sVd18uxa2
p545
I1
sVd1yfvwl
p546
I1
sVdbg00a3
p547
I1
sVd0una31
p548
I1
sVdhbw62w
p549
I1
sVd3ht3f1
p550
I1
sVd3ox0h2
p551
I1
sVd050q5j
p552
I1
sVdpl2ocl
p553
I1
sVd492v5t
p554
I1
sVdnsmya2
p555
I1
sVd2li3t2
p556
I1
sVd1p25a0
p557
I1
sVd1j2xxj
p558
I1
sVczqxf85
p559
I1
sVd7j75at
p560
I1
sVd5prcu7
p561
I1
sVd5ploe4
p562
I1
sVdr2fwb1
p563
I2
sVd51btbo
p564
I1
sVczyuyre
p565
I1
sVd0e333i
p566
I1
sVdr5elj4
p567
I2
sVdishefm
p568
I1
sVd406o4z
p569
I1
sVd0lku15
p570
I1
sVd5ztcmt
p571
I1
sVdcdda25
p572
I1
sVd0423e0
p573
I1
sVdhnifqc
p574
I1
sVd89h4up
p575
I1
sVdgf34wu
p576
I1
sVd5fyn6y
p577
I1
sVdhgblbe
p578
I1
sVdksnllz
p579
I1
sVd5ucz85
p580
I1
sVd3mgxbn
p581
I1
sVdebe85g
p582
I1
sVcyqia79
p583
I1
sVd92uumn
p584
I1
sVd7u40t1
p585
I1
sVdel1neq
p586
I1
sVd6vnqb4
p587
I1
sVdr37746
p588
I1
sVd45x4be
p589
I1
sVdfh4mra
p590
I4
sVdcvu21g
p591
I1
sVcyindf0
p592
I1
sVd8krpcu
p593
I2
sVdn8zy5m
p594
I1
sVdh0f3zj
p595
I1
sVd837vj7
p596
I1
sVdcix9l9
p597
I1
sVder4qxz
p598
I1
sVdmvtu8j
p599
I1
sVcynu8vx
p600
I1
sVdgak0o4
p601
I1
sVd0c6xkt
p602
I1
sVdp05syx
p603
I1
sVdepkb40
p604
I1
sVcyhtpfb
p605
I1
sVdq8oifv
p606
I1
sVdee3g5f
p607
I1
sVdfni9qi
p608
I1
sVd5k8snj
p609
I4
sVd09w7c9
p610
I1
sVdakq5tz
p611
I1
sVd3m6ozl
p612
I1
sVde7ta2i
p613
I1
sVdq6cs9v
p614
I1
sVdgy6w4a
p615
I1
sVdk4z1iv
p616
I3
sVd43nlxx
p617
I1
sVdd2ipei
p618
I1
sVdcmr4tt
p619
I1
sVd1ryqco
p620
I2
sVdok384i
p621
I1
sVcypdpv7
p622
I1
sVdj6xj5z
p623
I4
sVd7isq4a
p624
I1
sVdb5amo5
p625
I1
sVdavabym
p626
I1
sVdhr741y
p627
I1
sVd8nnrrz
p628
I1
sVdddmqrg
p629
I1
sVcziq4f0
p630
I1
sVdqf8hvc
p631
I1
sVd6bv61q
p632
I2
sVdaxtxa1
p633
I1
sVdi9vzhu
p634
I1
sVd4g9n3n
p635
I1
sVdi2m0fp
p636
I1
sVd1nr3de
p637
I2
sVdctxr28
p638
I1
sVdq8s6rb
p639
I1
sVdb534od
p640
I1
sVdqoclxh
p641
I1
sVdrc62y8
p642
I1
sVdkj20fj
p643
I1
sVdredr16
p644
I1
sVd4ijy4s
p645
I1
sVdbq77gy
p646
I1
sVczk917f
p647
I1
sVd2hf2un
p648
I1
sVdrmuu94
p649
I2
sVd33mr3f
p650
I1
sVdbkllvl
p651
I1
sVddojkzj
p652
I1
sVdp0low4
p653
I1
sVdbxxxqq
p654
I1
sVddyn776
p655
I2
sVd6kpi0j
p656
I1
sVdpl9eqr
p657
I1
sVdib7zwn
p658
I1
sVdhv8y13
p659
I1
sVdmvkuaq
p660
I2
sVdn2nqjf
p661
I1
sVcztc3o0
p662
I1
sVdc7h4xq
p663
I1
sVdb3pt7f
p664
I1
sVdrjxmt1
p665
I1
sVcz2ni36
p666
I1
sVd29rsvz
p667
I1
sVdoepfew
p668
I1
sVdajnyi8
p669
I1
sVdrkakzc
p670
I1
sVd2o8ub4
p671
I1
sVd4xlt9u
p672
I2
sVdhb6m7i
p673
I3
sVd0lkvdi
p674
I1
sVdmv853c
p675
I1
sVdrrerid
p676
I1
sVcys8rtz
p677
I2
sVcyr5e2k
p678
I1
sVdjpszer
p679
I1
sVdf06865
p680
I1
sVdbyi1bc
p681
I1
sVdaruwo1
p682
I1
sVdbjfee6
p683
I1
sVd30pf2m
p684
I1
sVd31lm48
p685
I1
sVddwyk90
p686
I1
sVd3qsw27
p687
I1
sVd12b3z2
p688
I1
sVddefcqu
p689
I1
sVdgakfie
p690
I1
sVdnixbla
p691
I1
sVdh2hyt7
p692
I1
sVdtgzrzy
p693
I1
sVd0etctb
p694
I1
sVd68s8ob
p695
I1
sVdch3sb1
p696
I1
sVd8deujw
p697
I1
sVd2t3byz
p698
I1
sVd0rb1y5
p699
I1
sVdea2b9t
p700
I1
sVddfyh8s
p701
I1
sVdh2uyn9
p702
I1
sVdhs62y4
p703
I1
sVdagrjc4
p704
I1
sVddkkhyw
p705
I1
sVd0ltw33
p706
I1
sVdgsulee
p707
I1
sVdao3677
p708
I1
sVd3c9ey8
p709
I1
sVd228oev
p710
I1
sVdgcdpxc
p711
I1
sVdbkcg08
p712
I1
sVd5fa6dn
p713
I1
sVda7ps9u
p714
I1
sVddc60sr
p715
I1
sVdbi1j6q
p716
I1
sVd771lh5
p717
I1
sVd4ntpbl
p718
I1
sVd8etctb
p719
I1
sVdfeadcj
p720
I1
sVd31o2r2
p721
I1
sVdb7j39b
p722
I1
sVdt2jvpb
p723
I1
sVdc7rd46
p724
I1
sVdgic0x6
p725
I1
sVd0fp4wi
p726
I2
sVdfjeulf
p727
I1
sVcyil4go
p728
I1
sVdarl08k
p729
I1
sVd6042tt
p730
I1
sVdkilgom
p731
I1
sVd3xxenc
p732
I1
sVdnm9h67
p733
I1
sVdi9kqup
p734
I2
sVdppg4tz
p735
I1
sVcyz0ala
p736
I1
sVd1m715r
p737
I1
sVdf0wbw6
p738
I1
sVcyqtjs6
p739
I1
sVdb1ghsl
p740
I1
sVddni2gn
p741
I1
sVd5t8bi8
p742
I1
sVdf4utbi
p743
I1
sVdabalsy
p744
I1
sVda15rbr
p745
I1
sVd197qkm
p746
I1
sVd9t41gk
p747
I1
sVczbmbeb
p748
I1
sVdo8nlsp
p749
I1
sVdft48gl
p750
I1
sVdc11twm
p751
I1
sVdjgkh66
p752
I1
sVd77cw4r
p753
I1
sVczongrr
p754
I1
sVdd9d861
p755
I1
sVczucsz3
p756
I1
sVdrlmlwu
p757
I1
sVdmitx7x
p758
I1
sVdfjlhai
p759
I1
sVczc9lhg
p760
I1
sVdni5z0i
p761
I1
sVdarg6fn
p762
I1
sVd05saol
p763
I1
sVd5trnqn
p764
I1
sVdcmqgz2
p765
I1
sVdaxundg
p766
I1
sVdejq0uv
p767
I1
sVdn73t06
p768
I2
sVdapgvdc
p769
I1
sVd0a12nz
p770
I1
sVdc90kye
p771
I1
sVdj3cy3f
p772
I1
sVdmru0u1
p773
I1
sVd6ox231
p774
I1
sVdruqsxz
p775
I1
sVdqv7bhl
p776
I1
sVd5z9vld
p777
I1
sVdmpkzyp
p778
I1
sVd9cwwzb
p779
I1
sVcyvihoa
p780
I1
sVd5mj8gn
p781
I1
sVdgo1rbk
p782
I1
sVd49z3qn
p783
I1
sVdki38p1
p784
I1
sVdb0s5yn
p785
I2
sVdmvk87t
p786
I1
sVdjdmt8w
p787
I1
sVd07hcx3
p788
I1
sVcz84l4w
p789
I1
sVd5vxwgz
p790
I1
sVdq674cw
p791
I1
sVdcuivlp
p792
I2
sVde0gu15
p793
I1
sVd56it7o
p794
I1
sVcytxf1x
p795
I1
sVd4likib
p796
I1
sVdejh1zn
p797
I1
sVd760h4i
p798
I1
sVddnpmca
p799
I1
sVdggxre7
p800
I1
sVdnhg23z
p801
I1
sVd5guntt
p802
I1
sVd74pt8q
p803
I1
sVd9aah43
p804
I1
sVd2u1lb2
p805
I2
sVdiqujeu
p806
I1
sVdkjacq4
p807
I1
sVdez7gk1
p808
I1
sVdftc2un
p809
I1
sVd46o4k4
p810
I1
sVdi389do
p811
I1
sVdcbfvwe
p812
I1
sVdgtmcup
p813
I2
sVcyhtumq
p814
I1
sVd6u3yk8
p815
I1
sVd6teg1n
p816
I1
sVde8woy7
p817
I1
sVd63cwni
p818
I1
sVdfgxycg
p819
I1
sVd7rg0i8
p820
I1
sVdetkqse
p821
I1
sVdag2fue
p822
I1
sVd477h6k
p823
I1
sVdeyuhcd
p824
I1
sVdh3aeq8
p825
I1
sVcykdlx9
p826
I1
sVcyukf9l
p827
I1
sVd5t3fxs
p828
I1
sVd46ch50
p829
I1
sVdg0s86s
p830
I1
sVdibbh7h
p831
I1
sVdb09u9e
p832
I1
sVd7d1u8s
p833
I1
sVdboq1hb
p834
I1
sVcyoffj5
p835
I1
sVd6hzq4j
p836
I1
sVd0r48qh
p837
I1
sVd40i5s1
p838
I1
sVdocf48e
p839
I1
sVdno9dbj
p840
I1
sVddmmaq1
p841
I2
sVd0n5lzl
p842
I1
sVcyjhalh
p843
I1
sVdc1twzi
p844
I1
sVd1owjta
p845
I1
sVdfqjahc
p846
I2
sVd25im42
p847
I2
sVdb4ypxs
p848
I1
sVda09p9l
p849
I1
sVds31au0
p850
I1
sVdf44688
p851
I1
sVd1bhmd3
p852
I1
sVd3elxgr
p853
I1
sVdicqqih
p854
I1
sVdhwy402
p855
I1
sVdksrcoz
p856
I1
sVcyi1514
p857
I1
sVd7eta2u
p858
I2
sVd3elruq
p859
I1
sVd8onui3
p860
I1
sVd1oqsmi
p861
I1
sVdpb0y0t
p862
I1
sVdjuoh3a
p863
I1
sVd6w815i
p864
I1
sVdenuvl6
p865
I1
sVd3q1jp8
p866
I1
sVdsg2agq
p867
I1
sVd3wq6ao
p868
I1
sVd4uqu1w
p869
I1
sVdq2v5l0
p870
I1
sVdn3ifsy
p871
I1
sVdf40i5u
p872
I2
sVd7bn7er
p873
I1
sVd31bzql
p874
I1
sVddlatvk
p875
I1
sVdnet8vb
p876
I1
sVd596345
p877
I1
sVddjs6z3
p878
I1
sVdoe5ac1
p879
I2
sVdirs786
p880
I2
sVd0cel7r
p881
I1
sVczdq3sc
p882
I1
sVd2ihxj0
p883
I2
sVd2nb6dp
p884
I1
sVdd3ikmy
p885
I1
sVd7hj2o6
p886
I1
sVd89ox2e
p887
I1
sVdbq4tsv
p888
I1
sVdk54u98
p889
I1
sVd3k8qig
p890
I1
sVd1avmcj
p891
I2
sVd1zsln8
p892
I1
sVdccn62t
p893
I2
sVd99stty
p894
I1
sVcykfmlb
p895
I2
sVcz1pqmo
p896
I1
sVdikrzsr
p897
I3
sVcyp8bo7
p898
I2
sVda7ntvg
p899
I1
sVdd73fq0
p900
I1
sVd5zv444
p901
I2
sVd7rdci6
p902
I1
sVd70sfic
p903
I1
sVcykvuq6
p904
I3
sVddkjb76
p905
I1
sVdg0mews
p906
I1
sVda5f040
p907
I1
sVd8ba0qb
p908
I1
sVd90mloq
p909
I1
sVdnl2wyz
p910
I1
sVdccc1o4
p911
I2
sVczb5ypk
p912
I1
sVdn4oe2d
p913
I1
sVdd6zl8g
p914
I1
sVczyj5no
p915
I1
sVd17szpg
p916
I1
sVdhg0iaf
p917
I2
sVd202e55
p918
I1
sVd0oc5vi
p919
I1
sVd0tbfk0
p920
I1
sVdnirelv
p921
I1
sVdbfngqh
p922
I2
sVdjmk0yn
p923
I1
sVdsrfp2b
p924
I2
sVd2sflih
p925
I1
sVdh2y2o5
p926
I1
sVdacdyw7
p927
I1
sVdftx09t
p928
I1
sVd9ume0d
p929
I3
sVd81vdqk
p930
I1
sVd35f9hp
p931
I1
sVdfeyd17
p932
I1
sVd20qx1i
p933
I1
sVdc931cj
p934
I1
sVd9gmhqf
p935
I1
sVdbmcgu9
p936
I1
sVdarezud
p937
I1
sVdslsgim
p938
I1
sVd19vayw
p939
I1
sVddxujyq
p940
I1
sVdgsgrof
p941
I1
sVdst65ak
p942
I1
sVdecabin
p943
I1
sVdj4v9cq
p944
I1
sVdmoautb
p945
I1
sVdgzphr3
p946
I1
sVdabp8n6
p947
I1
sVcz3g5fi
p948
I1
sVd9xsogw
p949
I1
sVdbctaha
p950
I1
sVdhbxlyj
p951
I2
sVd5s4g88
p952
I2
sVdea19lh
p953
I1
sVdgcjol5
p954
I1
sVd1y8t09
p955
I1
sVdead5dj
p956
I1
sVdi4amkw
p957
I1
sVd0y911r
p958
I2
sVd3z9dyg
p959
I1
sVdfz0ci6
p960
I2
sVd9w05k4
p961
I1
sVczjefop
p962
I1
sVd0z3z99
p963
I1
sVd8kfc5d
p964
I1
sVd7dk8wp
p965
I1
sVdduwkpc
p966
I1
sVcz6ommo
p967
I1
sVczxi7jf
p968
I1
sVd1z05xl
p969
I1
sVdswvjxq
p970
I1
sVd9dmij2
p971
I1
sVd26ekd0
p972
I1
sVdkz02jb
p973
I2
sVd3cfx3l
p974
I1
sVd8rzlqx
p975
I1
sVdfh6pou
p976
I1
sVdipezoy
p977
I1
sVcyy7dpo
p978
I1
sVd9r505v
p979
I1
sVdgrvich
p980
I1
sVcz9pslk
p981
I1
sVdcmwtov
p982
I1
sVd9euhx9
p983
I1
sVd1tuo05
p984
I1
sVcz3lkje
p985
I1
sVdc9dtv6
p986
I1
sVd81gqns
p987
I1
sVde5xsa9
p988
I1
sVdeb3ghq
p989
I1
sVdh9w8hc
p990
I1
sVdg7zfxn
p991
I2
sVdhjvlaf
p992
I1
sVd376cp4
p993
I1
sVcypo4qa
p994
I1
sVd5yhp1x
p995
I1
sVd90t4j6
p996
I1
sVdktkm1x
p997
I2
sVdh2rxid
p998
I1
sVd3d4k6o
p999
I1
sVd5ej5gr
p1000
I2
sVd7vt5mk
p1001
I1
sVd1t1c5w
p1002
I1
sVddkc1tq
p1003
I1
sVdizhoh5
p1004
I1
sVcyzvz9b
p1005
I1
sVdi1ft3d
p1006
I1
sVd83831c
p1007
I2
sVdniyf1s
p1008
I2
sVdo63z07
p1009
I1
sVddew53u
p1010
I1
sVdhta1wd
p1011
I1
sVdbgaf31
p1012
I1
sVd0l641z
p1013
I1
sVcyinnkq
p1014
I7
sVczzgb6b
p1015
I1
sVdbnq3lv
p1016
I1
sVcynmma0
p1017
I1
sVdd552k3
p1018
I1
sVd9wczg7
p1019
I1
sVdtekv8n
p1020
I1
sVdf4s3dj
p1021
I1
sVdpxhprf
p1022
I1
sVdsgv4sa
p1023
I1
sVczdcalj
p1024
I1
sVd4v1oj8
p1025
I1
sVd506gpr
p1026
I1
sVd508v8v
p1027
I1
sVdh5sf0y
p1028
I1
sVdiwhohq
p1029
I1
sVdcdnyec
p1030
I1
sVcyie1j1
p1031
I1
sVd5n0b44
p1032
I1
sVczt6e1w
p1033
I1
sVd29lg2r
p1034
I1
sVd91xxpe
p1035
I1
sVdhio6j2
p1036
I1
sVdc3e2n0
p1037
I1
sVd6glkxn
p1038
I1
sVd1vuexe
p1039
I1
sVd4bxf55
p1040
I1
sVddi780i
p1041
I1
sVd8z6ny4
p1042
I1
sVdft8v38
p1043
I1
sVdeymw71
p1044
I1
sVd8t8n4v
p1045
I1
sVdfe3eo9
p1046
I1
sVd1aclf5
p1047
I1
sVd5ivt8o
p1048
I1
sVdo1738d
p1049
I1
sVd92aku4
p1050
I1
sVdo5nip5
p1051
I1
sVdh6u2ye
p1052
I1
sVd3m7ebh
p1053
I2
sVdk0e1ns
p1054
I1
sVdau0610
p1055
I1
sVdgfa5aj
p1056
I1
sVdg6m8tp
p1057
I1
sVdbwm7g1
p1058
I2
sVd5pwe8g
p1059
I1
sVdpnihw9
p1060
I1
sVd81v5sa
p1061
I1
sVd3sj7c3
p1062
I1
sVcywo55c
p1063
I1
sVdhswjdf
p1064
I1
sVdhf0y4j
p1065
I1
sVd66081o
p1066
I1
sVdipu3ai
p1067
I1
sVdbyx6uj
p1068
I1
sVdn45ncj
p1069
I1
sVds10xuw
p1070
I1
sVd52qlde
p1071
I1
sVdegyppu
p1072
I3
sVd18og6i
p1073
I1
sVdc0urad
p1074
I2
sVdgdre5y
p1075
I1
sVdbsm48p
p1076
I1
sVdg2o2vy
p1077
I1
sVcyn1a4j
p1078
I1
sVdmv251e
p1079
I1
sVdfagwzl
p1080
I1
sVd50g7xo
p1081
I2
sVdj8wkw7
p1082
I1
sVd3ewf8z
p1083
I1
sVdebckvm
p1084
I1
sVd0s42b8
p1085
I1
sVd6qwgq2
p1086
I1
sVd4udj6l
p1087
I1
sVdfppicl
p1088
I1
sVd65wboo
p1089
I1
sVczujk53
p1090
I1
sVd4yd9vv
p1091
I2
sVd45y215
p1092
I1
sVd09ijpm
p1093
I1
sVdjn719j
p1094
I1
sVdo04gqa
p1095
I1
sVd57z3yt
p1096
I1
sVd9cog07
p1097
I1
sVdan6m7u
p1098
I1
sVdgizuqo
p1099
I1
sVddxfvek
p1100
I2
sVdd5obra
p1101
I1
sVd168cen
p1102
I2
sVdf6i0rn
p1103
I1
sVdpzee3c
p1104
I1
sVczobp64
p1105
I1
sVdmsh64o
p1106
I1
sVdhyqfqp
p1107
I1
sVd96suy1
p1108
I1
sVd46t6aw
p1109
I1
sVdj2k2ou
p1110
I1
sVdqswao3
p1111
I1
sVdcsd5w1
p1112
I1
sVd9i2qy0
p1113
I1
sVdegpcq8
p1114
I1
sVdptioz1
p1115
I1
sVd10qyim
p1116
I1
sVd1ecawk
p1117
I1
sVdg22xc0
p1118
I2
sVd27vr6g
p1119
I1
sVd00v26i
p1120
I1
sVddm0hq3
p1121
I1
sVdcpvks4
p1122
I1
sVdi8ghg7
p1123
I1
sVdal0q2f
p1124
I1
sVdatquef
p1125
I1
sVdiocyzb
p1126
I1
sVdq9pkv0
p1127
I1
sVdaeaev3
p1128
I1
sVded7f7k
p1129
I1
sVd78q8xk
p1130
I2
sVd93nvrc
p1131
I1
sVd0q4aao
p1132
I1
sVdejnusm
p1133
I1
sVd9i417n
p1134
I1
sVdns9w9c
p1135
I1
sVdi4vk1l
p1136
I1
sVdmtpobc
p1137
I1
sVd4vgevt
p1138
I1
sVd0oohu6
p1139
I1
sVdc5p09r
p1140
I1
sVdeq1o2x
p1141
I1
sVdsvvl6d
p1142
I1
sVd2tgd3l
p1143
I1
sVdq1qj7u
p1144
I1
sVczbimcj
p1145
I1
sVd83w60a
p1146
I1
sVdpp5qk0
p1147
I1
sVdh8wyti
p1148
I1
sVd27decm
p1149
I1
sVdmvoqp6
p1150
I1
sVda1a2tz
p1151
I1
sVd7x5egw
p1152
I1
sVdaq1uvp
p1153
I1
sVd9q9o19
p1154
I1
sVcyloahc
p1155
I1
sVdk30fcc
p1156
I1
sVdmv9zm7
p1157
I1
sVdei8o83
p1158
I1
sVddc4kns
p1159
I1
sVdg2dwa2
p1160
I2
sVczrct8p
p1161
I1
sVdj9yf6l
p1162
I1
sVdbdyz7v
p1163
I1
sVdkzn4q1
p1164
I1
sVdickgri
p1165
I1
sVdf682z4
p1166
I1
sVd87s52y
p1167
I1
sVdo5xg30
p1168
I1
sVdfh0d3m
p1169
I1
sVd6c06bp
p1170
I1
sVdphhf5j
p1171
I1
sVdan9d2t
p1172
I1
sVdh5xs5v
p1173
I1
sVd53p17b
p1174
I1
sVdcx93a6
p1175
I1
sVdcxbwwx
p1176
I1
sVdag74k4
p1177
I1
sVdc5p90s
p1178
I1
sVdjczs7t
p1179
I1
sVdgksvdb
p1180
I1
sVdb7um3s
p1181
I1
sVdj5ayqz
p1182
I1
sVd7byjh5
p1183
I1
sVd0lpxrt
p1184
I1
sVdcgj4ye
p1185
I1
sVdsxj0eb
p1186
I1
sVddfo2ys
p1187
I1
sVd5cc9q3
p1188
I1
sVd2wjthn
p1189
I1
sVdc7vmq6
p1190
I1
sVd2wn2rr
p1191
I1
sVd87wrj9
p1192
I1
sVdrndvgb
p1193
I1
sVczlmk24
p1194
I1
sVd5dgzy8
p1195
I1
sVd0cqa8m
p1196
I2
sVdbi5pan
p1197
I1
sVd7kowsx
p1198
I1
sVds606w8
p1199
I1
sVdhw4lq6
p1200
I1
sVdjkd6qd
p1201
I1
sVdkeqflk
p1202
I1
sVdj1y60r
p1203
I1
sVd0tm68p
p1204
I1
sVdqntya9
p1205
I1
sVdi9ssc1
p1206
I1
sVdft630z
p1207
I1
sVd1nvxxl
p1208
I1
sVdb207a7
p1209
I1
sVdhf6b2r
p1210
I1
sVd1qryx5
p1211
I1
sVd46vago
p1212
I1
sVddoi2nf
p1213
I1
sVdgy806v
p1214
I1
sVdmvahns
p1215
I1
sVd5z4w7i
p1216
I1
sVdilorq7
p1217
I1
sVd56xo9v
p1218
I1
sVcz5ivfu
p1219
I1
sVdgdj51j
p1220
I1
sVdieatwp
p1221
I1
sVd2lu5tp
p1222
I1
sVdcn71o3
p1223
I2
sVd6hx5u8
p1224
I1
sVd7eiifa
p1225
I1
sVcyybx0p
p1226
I1
sVd4bh89m
p1227
I1
sVds6eqnd
p1228
I1
sVdntskc8
p1229
I1
sVdgoag7m
p1230
I1
sVd9zfaqq
p1231
I1
sVdiquaio
p1232
I1
sVdhoqmd7
p1233
I1
sVdei101n
p1234
I1
sVdfuf6yv
p1235
I1
sVdrqfrer
p1236
I1
sVdfug0s1
p1237
I1
sVd8bx4qx
p1238
I1
sVdhojzjn
p1239
I1
sVd9o7glz
p1240
I2
sVcyx5w61
p1241
I1
sVdk0gfhc
p1242
I1
sVd4up9fx
p1243
I1
sVczgo3g2
p1244
I1
sVdnlwz9h
p1245
I4
sVdfmhuup
p1246
I1
sVdmjm9ho
p1247
I1
sVd8y8q60
p1248
I1
sVd71skmb
p1249
I1
sVd13vjn4
p1250
I1
sVd0x5s62
p1251
I1
sVdr2fx2d
p1252
I1
sVdf5ehod
p1253
I1
sVd6l4nmx
p1254
I1
sVdfzw8vq
p1255
I1
sVdoti4xr
p1256
I1
sVdmw1i3t
p1257
I1
sVda5c22d
p1258
I1
sVdffimvn
p1259
I1
sVdruikg2
p1260
I1
sVd5lqzk9
p1261
I1
sVd8v8e0p
p1262
I2
sVdgcxwbf
p1263
I1
sVd84f634
p1264
I1
sVd35e3sm
p1265
I1
sVczjen3i
p1266
I1
sVdbqzom2
p1267
I1
sVdbee8ka
p1268
I1
sVd1hhd4a
p1269
I1
sVdhs24a3
p1270
I1
sVd036k5n
p1271
I1
sVd4elf2p
p1272
I1
sVdesl6ow
p1273
I1
sVd079011
p1274
I1
sVdese3e7
p1275
I1
sVcz8arfe
p1276
I1
sVdk13akb
p1277
I1
sVdiu25b0
p1278
I1
sVcyyhhle
p1279
I1
sVdcmemqh
p1280
I1
sVd8zk6j6
p1281
I1
sVd89adoo
p1282
I1
sVd58ri7c
p1283
I1
sVddut1mh
p1284
I1
sVdnf5bpg
p1285
I1
sVdhwiajn
p1286
I1
sVd14wt7o
p1287
I1
sVdny9daj
p1288
I1
sVdhoqucj
p1289
I1
sVdr9i4o2
p1290
I1
sVczhiw1f
p1291
I1
sVd8pcl3g
p1292
I1
sVd76wrr8
p1293
I1
sVddgq7nz
p1294
I1
sVd8agzg3
p1295
I1
sVdr71evn
p1296
I1
sVd7ui8nd
p1297
I1
sVdan8sgv
p1298
I1
sVczg38lf
p1299
I2
sVd2d8hbg
p1300
I1
sVdd3ob8e
p1301
I1
sVdrtqquj
p1302
I1
sVdesy9jx
p1303
I1
sVczhqybb
p1304
I1
sVdpl9z34
p1305
I1
sVd4e5akd
p1306
I1
sVcymlfgl
p1307
I1
sVd95zrds
p1308
I1
sVdt274p1
p1309
I1
sVdgb5sc1
p1310
I1
sVdj2iuu5
p1311
I1
sVd8dag77
p1312
I1
sVdkx461o
p1313
I1
sVd065b0z
p1314
I1
sVdslnf54
p1315
I1
sVdbr76em
p1316
I1
sVdewyp8l
p1317
I1
sVdcuznpr
p1318
I1
sVdaphgz8
p1319
I1
sVdbkutn7
p1320
I1
sVd34y8l2
p1321
I1
sVde84quh
p1322
I1
sVd5pe4vq
p1323
I1
sVdhyvnsc
p1324
I1
sVd7va1nw
p1325
I1
sVdsbovfp
p1326
I1
sVda6rryu
p1327
I1
sVd9elyb7
p1328
I1
sVd1ixugr
p1329
I1
sVcyisqip
p1330
I1
sVdp4n7ru
p1331
I1
sVd0737v4
p1332
I1
sVd3c1ovu
p1333
I1
sVdhcxkrd
p1334
I1
sVd9j0svh
p1335
I1
sVczhnygl
p1336
I1
sVcyhx5sb
p1337
I1
sVdgvuqda
p1338
I1
sVcz7mv1v
p1339
I1
sVd1p5825
p1340
I1
sVd0zdobb
p1341
I1
sVdggsci1
p1342
I2
sVdr31rxa
p1343
I2
sVd21s804
p1344
I1
sVda10aui
p1345
I3
sVda4b0e3
p1346
I1
sVd77dw2i
p1347
I1
sVda7l5k4
p1348
I1
sVdjnosdw
p1349
I1
sVdd9f5k0
p1350
I1
sVd8oruf3
p1351
I1
sVdth2fb0
p1352
I1
sVd1wfb97
p1353
I1
sVd296n8i
p1354
I1
sVd05xc7k
p1355
I1
sVdg8hso7
p1356
I1
sVdmzsyip
p1357
I1
sVcyvs9ho
p1358
I1
sVddx7nke
p1359
I1
sVdpy4cwi
p1360
I1
sVdjv77mt
p1361
I1
sVd6tgctg
p1362
I1
sVd15m6pm
p1363
I1
sVdqsfjoh
p1364
I1
sVd4anvoa
p1365
I1
sVd6t0p8n
p1366
I1
sVd9t5hh1
p1367
I1
sVdhueql7
p1368
I3
sVd3t6nfz
p1369
I1
sVd3nip40
p1370
I1
sVdr2oobk
p1371
I1
sVdhafhm1
p1372
I1
sVdha6qiy
p1373
I1
sVds75gtb
p1374
I1
sVd9t8ii2
p1375
I1
sVdbguqdt
p1376
I1
sVdgmsdfn
p1377
I1
sVddzkj9v
p1378
I1
sVde2zgeq
p1379
I1
sVdeveojg
p1380
I1
sVdf8jc3g
p1381
I1
sVdkhnphp
p1382
I1
sVcyvbv7b
p1383
I1
sVd00kmp1
p1384
I1
sVd2lut0o
p1385
I1
sVdns6qcf
p1386
I1
sVd8vsjcm
p1387
I1
sVdqhzj1k
p1388
I1
sVd6rk5hz
p1389
I1
sVdsr9wll
p1390
I1
sVdccbhmh
p1391
I1
sVd9voqp8
p1392
I1
sVdnp3ly6
p1393
I1
sVd3i5s0a
p1394
I1
sVd207ass
p1395
I1
sVdnckoch
p1396
I1
sVd6fdmbo
p1397
I1
sVcyvtnyt
p1398
I1
sVdcdcmc6
p1399
I1
sVd87ww27
p1400
I1
sVczcqlcw
p1401
I1
sVds9m1kr
p1402
I1
sVd5cfh0s
p1403
I1
sVd4w23du
p1404
I2
sVdpn76zk
p1405
I1
sVdmm5o9z
p1406
I1
sVdn073wj
p1407
I2
sVdk4bk57
p1408
I2
sVdf02j8c
p1409
I1
sVczgyzqd
p1410
I1
sVd9rj80l
p1411
I1
sVdo7zacz
p1412
I1
sVdqyxmr6
p1413
I1
sVd3nl1gz
p1414
I1
sVdmk0qpg
p1415
I1
sVdmx33bt
p1416
I1
sVdezevy5
p1417
I1
sVcyt6xjp
p1418
I1
sVdb13cuy
p1419
I1
sVdd5i9xq
p1420
I1
sVd6oxo20
p1421
I1
sVddhr6u3
p1422
I1
sVd3sqr0l
p1423
I1
sVdismvc3
p1424
I1
sVcyjbadl
p1425
I2
sVd7rrduw
p1426
I1
sVddqvoo3
p1427
I1
sVd115b5d
p1428
I4
sVd50f45b
p1429
I1
sVd3mtiwv
p1430
I1
sVdh155zt
p1431
I1
sVdau0b5g
p1432
I1
sVdcezwgd
p1433
I1
sVd2hu3t9
p1434
I1
sVd2mgrpj
p1435
I1
sVdg2aoci
p1436
I1
sVdctpr8z
p1437
I1
sVd8rhqvm
p1438
I1
sVd5fxkh8
p1439
I1
sVdgmom64
p1440
I1
sVd9da7zl
p1441
I2
sVdadq50x
p1442
I1
sVd7yoqdc
p1443
I1
sVde4odon
p1444
I1
sVd27m7bh
p1445
I1
sVczd0ndx
p1446
I1
sVdibhoyj
p1447
I1
sVdehkpnq
p1448
I1
sVdgjl3vt
p1449
I2
sVdic162m
p1450
I1
sVd080o5q
p1451
I1
sVd3ym5p0
p1452
I1
sVdhfj9ll
p1453
I1
sVd18s3cl
p1454
I1
sVd150zfj
p1455
I1
sVddnyhx6
p1456
I1
sVd1m3y4r
p1457
I1
sVdhr7azi
p1458
I1
sVd3y5t68
p1459
I1
sVdk2stvn
p1460
I1
sVdif6glb
p1461
I2
sVczkjmt8
p1462
I1
sVd7ie2gl
p1463
I2
sVd0tr8ob
p1464
I1
sVd45cog0
p1465
I1
sVdq8l5ww
p1466
I1
sVddfgmpo
p1467
I1
sVde3jbd2
p1468
I1
sVczovxkm
p1469
I1
sVd2t2fae
p1470
I1
sVdr4bu35
p1471
I1
sVd1r92g0
p1472
I2
sVdd3e8u5
p1473
I1
sVd7ndyxg
p1474
I1
sVde0r5qu
p1475
I1
sVd83vj0j
p1476
I1
sVdcovlv0
p1477
I2
sVd8ykf37
p1478
I1
sVd95rc1p
p1479
I1
sVdadkxex
p1480
I1
sVdeqfw1f
p1481
I1
sVdopgx0m
p1482
I1
sVd42lvqm
p1483
I1
sVd9udvpd
p1484
I1
sVdctjo1u
p1485
I1
sVd1mu4wo
p1486
I2
sVd97ex04
p1487
I1
sVd7nx6w8
p1488
I2
sVdh9ehcy
p1489
I1
sVd42g26s
p1490
I1
sVd4gxyxn
p1491
I1
sVdk59s5l
p1492
I1
sVd5uj5om
p1493
I1
sVdemajx8
p1494
I1
sVdq8bp8x
p1495
I1
sVd6izd85
p1496
I1
sVdglyacl
p1497
I1
sVde41oaq
p1498
I1
sVd04topp
p1499
I1
sVd2c8d9c
p1500
I1
sVdj87i2c
p1501
I1
sVdbfevmf
p1502
I1
sVcyj9dvb
p1503
I3
sVdfxl4ke
p1504
I1
sVdjk6y73
p1505
I1
sVda4avix
p1506
I1
sVdbmedji
p1507
I1
sVd5vs7bo
p1508
I1
sVd6fdtnx
p1509
I1
sVd6z3otl
p1510
I1
sVdq6mdsb
p1511
I1
sVd9o4o7o
p1512
I1
sVdqp7sej
p1513
I1
sVdbq9div
p1514
I1
sVd9s3kbx
p1515
I1
sVd9aiyuh
p1516
I1
sVdce35dr
p1517
I1
sVdt9t8ff
p1518
I1
sVda0gkzy
p1519
I1
sVcyo9fqe
p1520
I1
sVd0qlh8g
p1521
I1
sVczyfm6r
p1522
I1
sVd4rq82o
p1523
I1
sVda5mlf0
p1524
I1
sVcyonta3
p1525
I1
sVdp0ix15
p1526
I1
sVdipmmnu
p1527
I2
sVdmqd893
p1528
I1
sVd91g69l
p1529
I1
sVd15suc0
p1530
I1
sVdknn4k5
p1531
I1
sVdf3ckpi
p1532
I1
sVd072qmh
p1533
I1
sVd8pzl7s
p1534
I1
sVd0g4d89
p1535
I1
sVd2qzii0
p1536
I1
sVd5xwdrz
p1537
I1
sVdeodnpw
p1538
I1
sVdfhlios
p1539
I1
sVd0gbcra
p1540
I1
sVde75r9x
p1541
I1
sVdd3w2ni
p1542
I2
sVdqvz84u
p1543
I1
sVd2o7141
p1544
I2
sVdq6kjnj
p1545
I1
sVdcwfqzh
p1546
I1
sVdiivkdb
p1547
I1
sVdniojwe
p1548
I2
sVd5djgv6
p1549
I1
sVdp6buna
p1550
I1
sVd7uu7cx
p1551
I1
sVd8861gk
p1552
I1
sVdmzkse0
p1553
I1
sVd2mxw27
p1554
I1
sVdhoj5a4
p1555
I1
sVd9nwrg1
p1556
I1
sVdcastd2
p1557
I1
sVd0ukfvr
p1558
I1
sVd9kx1co
p1559
I1
sVd98jxo1
p1560
I1
sVddgo3w3
p1561
I2
sVd9ud8cy
p1562
I1
sVdeoo7qh
p1563
I1
sVdb5uyq8
p1564
I1
sVdh76lk5
p1565
I1
sVddk05j4
p1566
I1
sVd0zd2h2
p1567
I1
sVda45mw5
p1568
I1
sVdiufge7
p1569
I1
sVdk8go51
p1570
I1
sVcyjl02h
p1571
I1
sVdg0aetd
p1572
I1
sVdnznmen
p1573
I1
sVd0w0rxk
p1574
I1
sVd93c7wn
p1575
I1
sVdhelvn9
p1576
I1
sVdfp1pr9
p1577
I1
sVdc1wxzd
p1578
I1
sVdbriato
p1579
I2
sVd3t47zd
p1580
I1
sVdqb8frf
p1581
I1
sVdfqroft
p1582
I1
sVd47rqwj
p1583
I2
sVdr4s4tl
p1584
I1
sVdb00r3o
p1585
I1
sVdj8ct40
p1586
I1
sVd0a9zua
p1587
I1
sVdqn3usd
p1588
I1
sVd3ejoxf
p1589
I1
sVd5iojf2
p1590
I1
sVdnvkwgj
p1591
I2
sVd0h972o
p1592
I1
sVdhqhv2m
p1593
I1
sVdmwxl3f
p1594
I1
sVdgy2yjt
p1595
I1
sVdia6v0d
p1596
I1
sVd25kmem
p1597
I1
sVd7reiw3
p1598
I2
sVd3nxqyo
p1599
I1
sVd5nuaju
p1600
I1
sVdfny3fw
p1601
I1
sVda4l94y
p1602
I1
sVd4uxmi3
p1603
I3
sVdelmps7
p1604
I1
sVd97m8z8
p1605
I1
sVdshf30x
p1606
I1
sVdmqfntw
p1607
I1
sVd7zgsu9
p1608
I1
sVd79n10a
p1609
I1
sVd2463sk
p1610
I1
sVdaf3tvl
p1611
I1
sVczpmxac
p1612
I1
sVdozjfcm
p1613
I1
sVdhlo20q
p1614
I1
sVdr3c6fl
p1615
I1
sVcyuwnjm
p1616
I1
sVdh1w9gg
p1617
I1
sVdohxxve
p1618
I1
sVczg5swh
p1619
I1
sVdrt2qsd
p1620
I1
sVdpvdwz2
p1621
I1
sVd4zjpn5
p1622
I1
sVd7bmpxf
p1623
I2
sVd6hac0j
p1624
I1
sVdjtpsvb
p1625
I1
sVd2n2ilh
p1626
I1
sVd2o5am1
p1627
I1
sVdcn851f
p1628
I1
sVd6j0olz
p1629
I1
sVdadrxws
p1630
I1
sVdg233l3
p1631
I1
sVd4ufgzc
p1632
I1
sVdj6xgip
p1633
I1
sVd33h4vy
p1634
I1
sVczm8eow
p1635
I1
sVd0upupt
p1636
I1
sVcyk8dbi
p1637
I1
sVdi350nz
p1638
I1
sVd0z1fw0
p1639
I1
sVdbk74fw
p1640
I1
sVdqc0j99
p1641
I1
sVdj23yku
p1642
I1
sVdc8krqb
p1643
I2
sVd66uexs
p1644
I1
sVdskwtsr
p1645
I1
sVd6mgorv
p1646
I1
sVdmfiywg
p1647
I1
sVdf5tq54
p1648
I1
sVd0tp68v
p1649
I1
sVd1edjao
p1650
I1
sVd2b336m
p1651
I1
sVdn9rxy5
p1652
I1
sVdklnvl0
p1653
I1
sVdkq90od
p1654
I1
sVdf670fr
p1655
I1
sVd7g7dzo
p1656
I1
sVdbg54up
p1657
I1
sVdtgb40f
p1658
I1
sVd4u8doh
p1659
I1
sVd6ue2hw
p1660
I1
sVdqo04nr
p1661
I1
sVdckskdw
p1662
I3
sVdbzcmm1
p1663
I1
sVd0y995t
p1664
I1
sVdd59sr4
p1665
I1
sVdbid4t7
p1666
I1
sVcymqhy0
p1667
I1
sVdo509f7
p1668
I1
sVczuoouy
p1669
I1
sVdpamqmi
p1670
I1
sVdgs6zrx
p1671
I1
sVdn4r9eg
p1672
I1
sVdhonhnq
p1673
I1
sVd00l737
p1674
I1
sVd0npcbh
p1675
I1
sVdhtkcfz
p1676
I1
sVdh1hwoa
p1677
I1
sVdforhsz
p1678
I2
sVd7kb01q
p1679
I1
sVd14g96t
p1680
I1
sVdid5xuh
p1681
I1
sVd24fawe
p1682
I2
sVdg2sycn
p1683
I1
sVdrxbznn
p1684
I1
sVdiko47w
p1685
I1
sVd9dnygu
p1686
I1
sVdn8wfhp
p1687
I1
sVds1qoox
p1688
I1
sVd53klcf
p1689
I1
sVd90tv8m
p1690
I1
sVd9o51o0
p1691
I2
sVdayl6ly
p1692
I1
sVd1y9be4
p1693
I1
sVdcur5kz
p1694
I1
sVd3cxxnn
p1695
I1
sVd0xqp1e
p1696
I1
sVdrcbvpz
p1697
I1
sVdcu54vg
p1698
I1
sVczwu8b0
p1699
I1
sVdgxdlt3
p1700
I2
sVd5q8tdg
p1701
I1
sVdn6f85b
p1702
I2
sVd32us4o
p1703
I1
sVd3m0afd
p1704
I1
sVd3zutzd
p1705
I1
sVd3cb6ba
p1706
I1
sVd1aljdq
p1707
I1
sVdgl80cv
p1708
I2
sVd17gbdc
p1709
I1
sVd3lkut2
p1710
I1
sVd0bm6d4
p1711
I1
sVdhk3iwf
p1712
I1
sVd4p7zmz
p1713
I1
sVdskbhzc
p1714
I1
sVdhal192
p1715
I1
sVczietz5
p1716
I1
sVdj17ts8
p1717
I1
sVdfs483n
p1718
I1
sVdmwdwzh
p1719
I1
sVde7xjid
p1720
I1
sVdeilkij
p1721
I2
sVcynrwqq
p1722
I1
sVd4d0f8b
p1723
I1
sVd422yhz
p1724
I1
sVdc0sa0p
p1725
I1
sVd960756
p1726
I1
sVd1l4ljy
p1727
I1
sVdcf7oh2
p1728
I1
sVdetygqx
p1729
I2
sVdfa0c0r
p1730
I1
sVd3nkhtn
p1731
I1
sVddj27x2
p1732
I1
sVdcy88gd
p1733
I1
sVdeqiy9u
p1734
I1
sVd5tihhl
p1735
I1
sVdo5rx0q
p1736
I1
sVdawz5pv
p1737
I1
sVdgu97nv
p1738
I1
sVdg1h2hx
p1739
I1
sVd5tbxvc
p1740
I1
sVd05kfm0
p1741
I2
sVdo78a3f
p1742
I1
sVd6dfi46
p1743
I1
sVdc66wui
p1744
I1
sVd5arko9
p1745
I1
sVdh0ntfe
p1746
I1
sVd740xwr
p1747
I1
sVddy5vvy
p1748
I1
sVd3v7p9k
p1749
I1
sVd25i1p7
p1750
I1
sVde4leuz
p1751
I1
sVdn7qhl7
p1752
I1
sVcz1xlov
p1753
I1
sVczcqqh6
p1754
I1
sVdekv79s
p1755
I1
sVd5hd8zm
p1756
I1
sVdkrycse
p1757
I2
sVdmvlhfi
p1758
I1
sVdc8jby6
p1759
I1
sVd1cdytn
p1760
I2
sVcymn8zs
p1761
I1
s.