(dp0
Vd47j8eq
p1
I1
sVdayc063
p2
I1
sVd6o6t5y
p3
I1
sVda82yo5
p4
I1
sVd1uttek
p5
I1
sVdh4sss9
p6
I2
sVd0d6ajv
p7
I1
sVddf4czm
p8
I1
sVd0i87dr
p9
I1
sVdk9yr1y
p10
I2
sVdbegvvo
p11
I1
sVd208dv5
p12
I1
sVd8nrt60
p13
I1
sVdbbk5gm
p14
I2
sVd6quj63
p15
I1
sVcz6v93s
p16
I1
sVd2o4cju
p17
I1
sVdogp40j
p18
I1
sVd3tfy6k
p19
I1
sVd1wff8r
p20
I1
sVcyz9y7b
p21
I1
sVd2458qg
p22
I1
sVdfwmrxz
p23
I1
sVd6mb3mw
p24
I1
sVd2cvbsa
p25
I1
sVde5rdqc
p26
I1
sVddbwce5
p27
I1
sVd6x4udb
p28
I1
sVd2j00m8
p29
I1
sVd0qskyb
p30
I1
sVd2xe7fy
p31
I1
sVd5jnfvt
p32
I1
sVdj0vz3m
p33
I1
sVdeopydm
p34
I1
sVczn5gd7
p35
I1
sVd35f9hp
p36
I1
sVd09p0ah
p37
I1
sVdg4iwby
p38
I1
sVd0sloh3
p39
I1
sVdoe6veq
p40
I1
sVd4qam6p
p41
I1
sVddkx3ak
p42
I1
sVd4up6wa
p43
I1
sVdeey4m7
p44
I1
sVddpkhvw
p45
I1
sVdber6q8
p46
I1
sVdgit7am
p47
I1
sVdcs11wt
p48
I1
sVd6tdhes
p49
I1
sVd0kvy64
p50
I1
sVdglxz76
p51
I1
sVd8olx6b
p52
I1
sVdibm6e7
p53
I1
sVd6houwz
p54
I1
sVdgsck3g
p55
I1
sVdcd7s5g
p56
I1
sVd5txgst
p57
I1
sVdmfyic7
p58
I1
sVd9d5pse
p59
I1
sVd6x0jl7
p60
I1
sVdh4v5fb
p61
I1
sVdis53s4
p62
I1
sVd0ursd7
p63
I1
sVd61hklj
p64
I1
sVd30px35
p65
I1
sVddbz0y1
p66
I1
sVdkscpda
p67
I1
sVd6b1z4t
p68
I1
sVd1s7jj2
p69
I1
sVdkdgt1y
p70
I1
sVd075rjh
p71
I2
sVdt6018r
p72
I1
sVdgd14l2
p73
I1
sVddka6pa
p74
I1
sVdj2fipx
p75
I1
sVd4i6kk3
p76
I1
sVd3ftoin
p77
I1
sVdp9w5qn
p78
I1
sVdggxlhk
p79
I2
sVdkgr5sz
p80
I1
sVd898wia
p81
I1
sVd3suift
p82
I2
sVde4mmva
p83
I1
sVda7mag3
p84
I1
sVdh9cn54
p85
I1
sVd0644y9
p86
I1
sVdble5a1
p87
I1
sVdcf2zu5
p88
I1
sVd27vmql
p89
I1
sVd3657k2
p90
I1
sVdg0p50h
p91
I1
sVd1b4qhb
p92
I1
sVd4vqfof
p93
I1
sVdb5xw0l
p94
I1
sVdez5hu0
p95
I1
sVd8q7k6k
p96
I1
sVcyug2m3
p97
I1
sVdbydb7b
p98
I1
sVd71bi2d
p99
I1
sVdmma259
p100
I1
sVdj7r4u2
p101
I1
sVd437826
p102
I1
sVczm6izy
p103
I2
sVdn3h6qn
p104
I1
sVdsv93yd
p105
I1
sVdel4lsg
p106
I1
sVd9azowe
p107
I1
sVd61yiml
p108
I1
sVcyhu86x
p109
I1
sVcyidu39
p110
I1
sVd0ku12m
p111
I1
sVdsucjd5
p112
I1
sVdakysbs
p113
I1
sVdd8rzfw
p114
I1
sVd7psb59
p115
I1
sVd03pqct
p116
I1
sVdqjvhxs
p117
I1
sVdhbwarj
p118
I1
sVd22z087
p119
I2
sVd9vtath
p120
I2
sVcystnv0
p121
I1
sVcyso1je
p122
I1
sVdavg66z
p123
I1
sVd68esa6
p124
I1
sVdfu4wl7
p125
I1
sVdjp114n
p126
I1
sVdfpvjkv
p127
I1
sVdp6r0uy
p128
I1
sVczg7ptd
p129
I1
sVddnb8e7
p130
I1
sVdbln9js
p131
I1
sVcyy1sso
p132
I1
sVdcevnz6
p133
I1
sVdrhhro4
p134
I1
sVd6iog74
p135
I1
sVdfw15hs
p136
I1
sVdadat9u
p137
I1
sVdd58jpx
p138
I1
sVdnkk67t
p139
I1
sVdgew99l
p140
I1
sVd1gtapg
p141
I1
sVd1boz7t
p142
I1
sVdekh9z0
p143
I1
sVdirnz5g
p144
I1
sVdij4dox
p145
I2
sVd6xtgy5
p146
I1
sVd6m2eqh
p147
I1
sVd1pzkcg
p148
I1
sVd77bsg9
p149
I1
sVd7lko20
p150
I1
sVdbpefid
p151
I1
sVdgm3ewz
p152
I1
sVd55njm3
p153
I1
sVdav1nxm
p154
I1
sVdg8vgmn
p155
I1
sVdk2owod
p156
I1
sVczq07ci
p157
I1
sVde29xh6
p158
I1
sVd9i29tb
p159
I1
sVd8nzv0y
p160
I1
sVd0816uf
p161
I3
sVdc1j7tr
p162
I1
sVda946d9
p163
I1
sVdizn8zf
p164
I1
sVd7fmmyd
p165
I1
sVdn7ttld
p166
I1
sVdh8c1h0
p167
I1
sVd2pqyha
p168
I1
sVd237agc
p169
I1
sVd1ko06e
p170
I1
sVd1oxk54
p171
I1
sVdqudtch
p172
I1
sVd0lnw08
p173
I2
sVd1vs01w
p174
I1
sVddsxsz5
p175
I1
sVddxwzyn
p176
I1
sVd8xw2z9
p177
I1
sVde02c1r
p178
I1
sVd0xxbqt
p179
I1
sVdermpc3
p180
I1
sVddrkuk4
p181
I1
sVdhtb1an
p182
I1
sVdkpbfnn
p183
I1
sVdaxlj18
p184
I1
sVddwqldw
p185
I1
sVd7o1wpd
p186
I1
sVdg481pe
p187
I1
sVd4q6om0
p188
I1
sVd4z3qno
p189
I1
sVcztq528
p190
I1
sVdar1ake
p191
I1
sVdo2idpf
p192
I1
sVda5zibv
p193
I1
sVddlspa0
p194
I1
sVddcq7ak
p195
I1
sVda5zy17
p196
I1
sVd3yf9gr
p197
I1
sVde38xjw
p198
I1
sVd85j1tu
p199
I1
sVdkfctqv
p200
I1
sVdam3j9q
p201
I1
sVdt2codc
p202
I1
sVdc99qy6
p203
I1
sVczy39ku
p204
I1
sVdebvvnt
p205
I1
sVd340vrx
p206
I2
sVdafq8iu
p207
I1
sVdbpps6z
p208
I1
sVdeo10n3
p209
I1
sVd25297i
p210
I1
sVcz6lvnv
p211
I1
sVd40wbel
p212
I1
sVdhezquf
p213
I1
sVdobv3g6
p214
I1
sVdgusqpz
p215
I1
sVdk8r5hz
p216
I2
sVd5om9f6
p217
I1
sVd9k96he
p218
I1
sVdfhxz1l
p219
I1
sVdbz4kw8
p220
I1
sVdjsibmq
p221
I2
sVdrf739s
p222
I1
sVd9vmsrv
p223
I1
sVds3heof
p224
I1
sVczvneos
p225
I1
sVd559yen
p226
I2
sVde04gdv
p227
I1
sVdfx04xw
p228
I1
sVde27rqb
p229
I1
sVdiekb7h
p230
I1
sVd6pru6j
p231
I1
sVdagmi3y
p232
I1
sVdb6v6e8
p233
I1
sVdf8uduu
p234
I1
sVczesms5
p235
I1
sVd9hfsr7
p236
I1
sVdahkdlh
p237
I1
sVd0k896z
p238
I2
sVdkylgz4
p239
I1
sVdqebkx0
p240
I1
sVdd1i39r
p241
I1
sVdclc6k0
p242
I1
sVd967n1g
p243
I1
sVd4njiwi
p244
I1
sVd2577un
p245
I1
sVdq94yak
p246
I2
sVd34oqmw
p247
I1
sVdpdlzf5
p248
I1
sVd24mk97
p249
I1
sVdnxmaek
p250
I1
sVdhe6fal
p251
I1
sVd1xgijj
p252
I1
sVdbifpps
p253
I1
sVdgalajj
p254
I1
sVd5pxh6i
p255
I1
sVdd71ewo
p256
I1
sVdmxw87y
p257
I1
sVcyzw13f
p258
I1
sVddnq4m0
p259
I1
sVdj9cf7e
p260
I1
sVd1ozvkk
p261
I1
sVdckl83j
p262
I1
sVd1ibaql
p263
I1
sVcyr3uit
p264
I1
sVd9331qw
p265
I1
sVd3njpb6
p266
I1
sVdcimrkr
p267
I1
sVd0gbvzv
p268
I1
sVd3y2kbj
p269
I1
sVd47al3i
p270
I1
sVde470xa
p271
I1
sVdi38f1c
p272
I1
sVdibnxt2
p273
I1
sVdkpmbci
p274
I1
sVdcu0dx9
p275
I1
sVdcadgbt
p276
I1
sVd9yef1i
p277
I1
sVd24hicj
p278
I1
sVd82oo51
p279
I1
sVdjgpysj
p280
I1
sVcykurba
p281
I1
sVd3bzf10
p282
I2
sVdp2lmoa
p283
I2
sVda3aylg
p284
I1
sVdfhnly7
p285
I1
sVda7pr4p
p286
I1
sVdr5vkvz
p287
I1
sVdfzbqme
p288
I1
sVdpsqk00
p289
I1
sVd3mtiwv
p290
I2
sVdi7v1rp
p291
I1
sVd25ym03
p292
I1
sVdc45csq
p293
I1
sVdmudto0
p294
I1
sVd8w42m8
p295
I1
sVddvkw8h
p296
I1
sVd9dw6gb
p297
I1
sVczwxk9h
p298
I1
sVdswbeob
p299
I1
sVdcv521a
p300
I1
sVdqnqu6z
p301
I1
sVczl5m6c
p302
I1
sVdt41urx
p303
I1
sVddlbxst
p304
I1
sVdhbc8vh
p305
I1
sVdevwvkq
p306
I1
sVd0889g6
p307
I1
sVdoennjz
p308
I2
sVdd4q5wh
p309
I1
sVd77mal7
p310
I1
sVdo4tn02
p311
I1
sVdpzlur9
p312
I1
sVde88ct7
p313
I1
sVd6mwcik
p314
I1
sVd80havl
p315
I1
sVczmd7vd
p316
I1
sVdg22wa7
p317
I1
sVdb58d3u
p318
I2
sVdbilc4q
p319
I2
sVd023lq4
p320
I1
sVdhjcfk7
p321
I1
sVd81txex
p322
I1
sVd3j6pqw
p323
I1
sVd33y3wq
p324
I1
sVd5prcu7
p325
I1
sVdc4caoh
p326
I1
sVd9u4wk9
p327
I1
sVdgm6vij
p328
I1
sVdod8o85
p329
I2
sVd5dsdgi
p330
I1
sVd7pp7ep
p331
I2
sVd6hsm1m
p332
I5
sVdd76kqf
p333
I1
sVd1hq4cc
p334
I1
sVdg2czx4
p335
I1
sVdehkpnq
p336
I1
sVdi9zivv
p337
I1
sVd7hi5h2
p338
I1
sVd8nrojg
p339
I1
sVdcibeue
p340
I2
sVd2sha5w
p341
I1
sVd0hii9c
p342
I1
sVczixus4
p343
I1
sVd16ng2a
p344
I1
sVd6amku3
p345
I1
sVdne8ae0
p346
I2
sVdbzjjle
p347
I1
sVdslsgim
p348
I1
sVd8x4ofi
p349
I1
sVczm0vhf
p350
I1
sVd0lrle3
p351
I1
sVd6u7lra
p352
I1
sVd45iqud
p353
I1
sVdhfj9ll
p354
I1
sVddxcx1e
p355
I1
sVdfxofup
p356
I1
sVd38n9mo
p357
I1
sVdg4pq68
p358
I1
sVcywthur
p359
I1
sVdo5r73w
p360
I2
sVdggu6jb
p361
I1
sVd4hxziw
p362
I1
sVdb6s3nc
p363
I1
sVdd4rok0
p364
I1
sVdiazqow
p365
I1
sVde91ouh
p366
I1
sVdge2yi1
p367
I1
sVdbrt6nh
p368
I2
sVdg4vr28
p369
I1
sVdks527o
p370
I1
sVda3sqb8
p371
I1
sVdna9m8p
p372
I3
sVd5ic7cy
p373
I1
sVdcct7rx
p374
I1
sVdjyba5a
p375
I1
sVcz3cg8x
p376
I1
sVddf9425
p377
I1
sVcyqqagj
p378
I1
sVdi3eyrn
p379
I1
sVdfa93u1
p380
I1
sVdfx977h
p381
I1
sVdbtry2g
p382
I1
sVd3029xm
p383
I1
sVdhfqbm2
p384
I1
sVdiepds5
p385
I1
sVd44xlla
p386
I1
sVdnrli0i
p387
I1
sVd0lnk7n
p388
I1
sVdjv5ilf
p389
I1
sVdieo73z
p390
I1
sVd9badnr
p391
I1
sVdn4dw27
p392
I1
sVd33ulcs
p393
I1
sVdreboug
p394
I1
sVcza5m1p
p395
I1
sVd52fb9n
p396
I1
sVd1pdhgu
p397
I1
sVcyvkicp
p398
I1
sVcztuckh
p399
I1
sVczagcch
p400
I1
sVcz4x7s5
p401
I1
sVd00s5u6
p402
I1
sVd9vy52q
p403
I1
sVd34z24j
p404
I1
sVd2kreh0
p405
I1
sVdijewvz
p406
I1
sVd2vww2t
p407
I1
sVd44zyv6
p408
I1
sVd0u1xd0
p409
I1
sVddnsp0r
p410
I1
sVd73khg8
p411
I1
sVdhdpd6c
p412
I1
sVd9bkzxj
p413
I1
sVd562pjd
p414
I1
sVdjrnjk7
p415
I1
sVd1kw03e
p416
I2
sVcztu86x
p417
I3
sVczr1fsx
p418
I1
sVdc5zweg
p419
I3
sVd3djiaj
p420
I1
sVdd7480m
p421
I1
sVczzwt1e
p422
I1
sVd0016tv
p423
I1
sVddjausx
p424
I1
sVd79sbe8
p425
I1
sVdmy7qo9
p426
I3
sVdkrz55m
p427
I2
sVd07yxe0
p428
I1
sVd8ox0zo
p429
I1
sVd6wodh4
p430
I1
sVdi3h8fd
p431
I1
sVd8t46p2
p432
I1
sVd1og6gn
p433
I1
sVdmpxaw6
p434
I1
sVdh7q4ur
p435
I1
sVd18bc19
p436
I1
sVd104mbo
p437
I1
sVd2oqhsi
p438
I1
sVdo5jjhn
p439
I1
sVdabzipe
p440
I1
sVczwrgoo
p441
I2
sVdehmr6k
p442
I1
sVd8zovt8
p443
I1
sVde47rwu
p444
I1
sVds3cf24
p445
I1
sVdjxouom
p446
I1
sVdkmj0mu
p447
I1
sVd0v4kbx
p448
I1
sVddl7wes
p449
I1
sVdik400t
p450
I1
sVdgtnylw
p451
I1
sVdn5rnpd
p452
I1
sVdn27zbe
p453
I3
sVd2x2qcg
p454
I1
sVdkhy4kv
p455
I2
sVd0hy5m8
p456
I1
sVd8dx561
p457
I1
sVdfw6ksj
p458
I1
sVd6ewonn
p459
I1
sVd9k2gfw
p460
I1
sVdcuyftr
p461
I1
sVdgsvf2y
p462
I1
sVd6hpwfn
p463
I2
sVdof6e60
p464
I1
sVd0yywnd
p465
I1
sVd96q23y
p466
I1
sVd0my9iw
p467
I1
sVd40rp5j
p468
I2
sVdn4r9eg
p469
I1
sVdomczcw
p470
I1
sVd00j8jx
p471
I1
sVdgo921q
p472
I1
sVd0gbdrg
p473
I1
sVd3mskx5
p474
I1
sVdcnum2e
p475
I1
sVdheqg84
p476
I1
sVdf8cc3g
p477
I1
sVdmxqwuj
p478
I1
sVdq6cs9v
p479
I1
sVdgydh27
p480
I1
sVd43y5p1
p481
I1
sVdmf30n2
p482
I2
sVd7r13an
p483
I1
sVd0np7xb
p484
I1
sVd43hc6t
p485
I1
sVdp3zlbn
p486
I1
sVd6izd85
p487
I2
sVdh1i2fu
p488
I1
sVdspbt4w
p489
I1
sVd3iwtjy
p490
I1
sVd1iyu1j
p491
I1
sVdsxacb7
p492
I3
sVdggs7o8
p493
I1
sVdt3544r
p494
I1
sVdnmhh96
p495
I1
sVd12ofsl
p496
I1
sVd5hbyek
p497
I1
sVdmnjwv1
p498
I1
sVdgmtgq6
p499
I1
sVd1ycy36
p500
I1
sVd23hoeo
p501
I1
sVdnyksf9
p502
I1
sVdbkl6sp
p503
I1
sVdez6qn8
p504
I1
sVczty3l4
p505
I1
sVd80glyr
p506
I1
sVd3aol59
p507
I1
sVdsftyuv
p508
I1
sVd5rf3ep
p509
I1
sVd65in28
p510
I1
sVdak0e7s
p511
I1
sVczxcc52
p512
I1
sVd5fjfw0
p513
I1
sVd0ltlvk
p514
I1
sVd55u6fj
p515
I1
sVdcmm7he
p516
I3
sVczd0itl
p517
I1
sVdem5v00
p518
I2
sVdjahxy7
p519
I1
sVdabjkwd
p520
I1
sVdp5w4jr
p521
I1
sVdirnwev
p522
I1
sVdgmr31o
p523
I2
sVd1ooum7
p524
I1
sVdgflvu9
p525
I1
sVdjzrve4
p526
I1
sVd74e4sz
p527
I1
sVcylmmk7
p528
I1
sVdhia4y4
p529
I1
sVdjkybgs
p530
I1
sVdc3k25d
p531
I1
sVdgbvtgy
p532
I1
sVdt7p3eo
p533
I1
sVd896yoi
p534
I1
sVdf1bthi
p535
I1
sVdb94buw
p536
I1
sVd8347me
p537
I1
sVdoxlu5j
p538
I1
sVd2gtpw8
p539
I1
sVd9k93kv
p540
I1
sVd19ef1z
p541
I1
sVdglxes8
p542
I1
sVdhd4ulk
p543
I1
sVde1tkrr
p544
I1
sVdgukl7p
p545
I1
sVde2xq4g
p546
I2
sVczxs5hg
p547
I1
sVdoj6qzh
p548
I2
sVdau1ru8
p549
I1
sVd0c0i2k
p550
I1
sVdqkasgx
p551
I1
sVdo61qph
p552
I1
sVde11hhq
p553
I1
sVdk17dbj
p554
I1
sVdakpf4h
p555
I1
sVd1wvjtj
p556
I1
sVdcmh5t5
p557
I1
sVdkc36mh
p558
I1
sVdh0ibgb
p559
I1
sVd2apq6i
p560
I1
sVdaoa2av
p561
I1
sVdae32af
p562
I1
sVd76ko9l
p563
I1
sVdn3pqya
p564
I1
sVcztla86
p565
I1
sVdhdkyy6
p566
I1
sVdklq8pm
p567
I1
sVdsptws1
p568
I1
sVddh1zy7
p569
I1
sVdd3ot9o
p570
I1
sVdf7xe44
p571
I1
sVddp04t3
p572
I1
sVdboz8h5
p573
I1
sVdbijgdd
p574
I1
sVd3xxlan
p575
I1
sVded9vf6
p576
I1
sVd8f4sdt
p577
I1
sVdmfq730
p578
I1
sVd077ptt
p579
I1
sVdckhkcm
p580
I1
sVd3hb6vw
p581
I1
sVddu4rl0
p582
I1
sVdfd8bau
p583
I1
sVdavfsew
p584
I1
sVd2hryum
p585
I2
sVdseuqnt
p586
I1
sVd2r0k46
p587
I2
sVdglhsna
p588
I1
sVd8oil98
p589
I1
sVd4zf6tl
p590
I1
sVd0i7wbi
p591
I1
sVdiso1l6
p592
I1
sVdha7lrh
p593
I1
sVd6re62p
p594
I2
sVdeob8gt
p595
I1
sVdf0zoi9
p596
I1
sVdmem70f
p597
I1
sVdgu76y7
p598
I1
sVd4p1fcm
p599
I1
sVdkxjmg4
p600
I1
sVcz4i8bq
p601
I1
sVdnbk7uu
p602
I1
sVdb8q02r
p603
I2
sVd1gu3uu
p604
I1
sVdglc4g8
p605
I1
sVdjgi1dy
p606
I1
sVdcy3r9e
p607
I1
sVd51azss
p608
I1
sVd734ekh
p609
I1
sVd3437jh
p610
I2
sVde2umty
p611
I1
sVd8zaula
p612
I1
sVd5v7eh3
p613
I1
sVddiw6ed
p614
I1
sVd2a1t2n
p615
I1
sVddwwolo
p616
I1
sVdci899c
p617
I2
sVds3crpz
p618
I1
sVczdt0x4
p619
I1
sVdjdaw23
p620
I3
sVd1f79w1
p621
I1
sVdbettgt
p622
I1
sVdberu8w
p623
I1
sVd05town
p624
I1
sVdkw4qqg
p625
I1
sVczagii2
p626
I1
sVcza9r9r
p627
I1
sVdn2nqjf
p628
I3
sVdbosfvy
p629
I1
sVczc80mi
p630
I1
sVcz7hlrc
p631
I1
sVd35fjhn
p632
I1
sVdruya9n
p633
I1
sVdgio3aj
p634
I1
sVd1a30pi
p635
I1
sVdrhmsat
p636
I1
sVdgluq4e
p637
I1
sVdpnqgx3
p638
I1
sVdbw8zjc
p639
I1
sVd2j5c1o
p640
I1
sVdj1nf13
p641
I1
sVdbylv8l
p642
I1
sVdf5ajef
p643
I1
sVdqny170
p644
I1
sVdiuux04
p645
I1
sVd1xudpo
p646
I1
sVd1vhqte
p647
I2
sVdmtceiz
p648
I1
sVd0p9dwm
p649
I1
sVcyjumjg
p650
I1
sVdc48e1g
p651
I1
sVd0lkkrg
p652
I1
sVd25kfwx
p653
I1
sVdn00xqd
p654
I1
sVdervjud
p655
I1
sVdfyaip1
p656
I1
sVd2k2qvb
p657
I1
sVdc8tnjt
p658
I1
sVdar70yc
p659
I1
sVd5epmge
p660
I1
sVdpwa5qy
p661
I1
sVcyourri
p662
I1
sVcywb5xt
p663
I1
sVd0ebqpi
p664
I1
sVddyjoos
p665
I1
sVcz58p4a
p666
I1
sVdeoeqio
p667
I1
sVddd4rgd
p668
I1
sVd0rjsva
p669
I1
sVd1wxv0o
p670
I2
sVd06b0hk
p671
I1
sVdo2i4jd
p672
I1
sVdgw8d10
p673
I1
sVd2o7141
p674
I1
sVczt8obg
p675
I1
sVda6dlnr
p676
I1
sVdbzh57y
p677
I1
sVdkrb230
p678
I1
sVdduhcuz
p679
I1
sVcylimr2
p680
I1
sVdewkv9i
p681
I2
sVcz5i8xo
p682
I1
sVdbc0kmv
p683
I1
sVdfoq5sn
p684
I1
sVd79mfu0
p685
I1
sVdkb2we7
p686
I1
sVd151z7a
p687
I1
sVdrt39x2
p688
I1
sVdgknryx
p689
I1
sVd90v8oo
p690
I1
sVdmeib1h
p691
I3
sVd32btyh
p692
I1
sVczwnkzp
p693
I2
sVd8w4fop
p694
I1
sVdfv6070
p695
I1
sVd079shy
p696
I1
sVdb0xyt7
p697
I1
sVcyugx5y
p698
I1
sVde5e9mp
p699
I1
sVczj619f
p700
I1
sVczutd4x
p701
I1
sVcyrrvc9
p702
I1
sVdmu5x9a
p703
I1
sVds4me4e
p704
I1
sVdbwi8hc
p705
I1
sVczligt9
p706
I2
sVd0jyfxh
p707
I1
sVd389z28
p708
I1
sVdf95z1n
p709
I2
sVddc7t80
p710
I1
sVdchtah5
p711
I1
sVd6hr5la
p712
I4
sVczl4p65
p713
I1
sVczgnxrc
p714
I1
sVdaci3i0
p715
I1
sVdmu9i66
p716
I1
sVd60w88l
p717
I1
sVd1ici48
p718
I1
sVcztq1on
p719
I1
sVd8oaly4
p720
I2
sVczmdo9m
p721
I1
sVd6rfz3o
p722
I1
sVddwi6po
p723
I1
sVd3010dr
p724
I1
sVd9ju1zt
p725
I1
sVdr8hzea
p726
I1
sVdpmqgh0
p727
I1
sVdfxf9ul
p728
I1
sVdkvglcu
p729
I1
sVdaq1uvp
p730
I2
sVdrzz3l4
p731
I1
sVdehvnqi
p732
I2
sVdnwb7j9
p733
I1
sVdbh38tn
p734
I1
sVdmxv3jg
p735
I1
sVcyp2zhl
p736
I1
sVdcwavyo
p737
I1
sVdjypnn8
p738
I1
sVd7l9uvs
p739
I1
sVdbloee7
p740
I4
sVd80nor5
p741
I1
sVdkrvb1i
p742
I1
sVd55ka1g
p743
I1
sVdgy76cz
p744
I1
sVd78chuz
p745
I1
sVdhtiwdd
p746
I1
sVdamt0fg
p747
I1
sVdavnotv
p748
I1
sVdh9po73
p749
I1
sVd2wfnrp
p750
I1
sVd3zupo3
p751
I1
sVd9ukps6
p752
I2
sVd5nfhzc
p753
I1
sVdgonb43
p754
I1
sVd9vvdxy
p755
I1
sVczm32gy
p756
I1
sVdel4uie
p757
I1
sVdjy183q
p758
I1
sVcys2off
p759
I1
sVdgdxsdc
p760
I1
sVdmtw9jk
p761
I1
sVdc0c0gv
p762
I1
sVddcgmyi
p763
I1
sVda80vvs
p764
I1
sVdrulxq0
p765
I1
sVdi4ralf
p766
I2
sVdou436o
p767
I1
sVd6hpmio
p768
I2
sVdfgg2rs
p769
I1
sVd3zpn5j
p770
I1
sVdnor6ql
p771
I1
sVdc2hfjc
p772
I1
sVdi8yx2k
p773
I1
sVdnyl9dz
p774
I1
sVdswtrmo
p775
I1
sVd013ylm
p776
I1
sVcz4mmnr
p777
I1
sVd29hgjz
p778
I1
sVdojoa3v
p779
I1
sVd1n0m09
p780
I1
sVd2cmcbg
p781
I1
sVcztslf0
p782
I1
sVd035bni
p783
I1
sVd7g7dzo
p784
I1
sVd06mhnb
p785
I2
sVd0fkutj
p786
I1
sVdhytfxa
p787
I1
sVdr8r3nd
p788
I1
sVd4ljlcr
p789
I1
sVd0ou6im
p790
I1
sVdkeidfd
p791
I2
sVd1qmae0
p792
I1
sVdkiiywu
p793
I1
sVczj5le6
p794
I1
sVd82i2uf
p795
I1
sVdk48ecr
p796
I1
sVdo899r9
p797
I1
sVdo5n962
p798
I1
sVd9fyii5
p799
I1
sVdd74tv2
p800
I1
sVd341lw5
p801
I1
sVd14ckde
p802
I1
sVd1hzkqs
p803
I1
sVd6d9t7g
p804
I1
sVczvf517
p805
I1
sVd6p4a2g
p806
I1
sVd18q24n
p807
I1
sVdmt4a9k
p808
I1
sVd26vcgp
p809
I1
sVd882jws
p810
I1
sVdiod63u
p811
I1
sVde10xze
p812
I1
sVd3b7eul
p813
I1
sVdt9v5od
p814
I1
sVcyqtjs6
p815
I1
sVdgn116a
p816
I1
sVd4v1f9m
p817
I1
sVd7p4e7u
p818
I1
sVden3s59
p819
I1
sVdh43utz
p820
I1
sVd2fkfgr
p821
I1
sVczzxwov
p822
I1
sVdjdczpl
p823
I1
sVdefvtza
p824
I1
sVczhfm26
p825
I1
sVd3fs8yp
p826
I1
sVdcrfusz
p827
I1
sVd5xs8u6
p828
I1
sVdmjq9e2
p829
I1
sVdc6kwms
p830
I2
sVdrudm00
p831
I1
sVdihdntb
p832
I1
sVd8eo9jr
p833
I1
sVdn6wz57
p834
I1
sVdb5kd0m
p835
I1
sVdr2rsgd
p836
I1
sVdq99iz6
p837
I1
sVds6ca7c
p838
I1
sVd0agi41
p839
I1
sVdrdffvs
p840
I1
sVd5uw9r1
p841
I1
sVdfxm5bp
p842
I4
sVdav537c
p843
I1
sVd1p79ha
p844
I1
sVdc7k24t
p845
I1
sVdcjte2h
p846
I1
sVd2y8itt
p847
I1
sVd3g3n5x
p848
I2
sVd04jjmu
p849
I1
sVdkd1s8p
p850
I1
sVd1d8qjh
p851
I1
sVdcaol9y
p852
I1
sVdn223l4
p853
I1
sVde91q60
p854
I1
sVde1bvfo
p855
I1
sVdd1aihl
p856
I1
sVdj57esc
p857
I1
sVd6huqr6
p858
I1
sVddblkia
p859
I2
sVdbi5pan
p860
I1
sVda6df48
p861
I1
sVdmq76iw
p862
I1
sVd3ts1l1
p863
I1
sVd4m5tl7
p864
I1
sVdhlnx2d
p865
I1
sVddaefa1
p866
I4
sVd3e7zot
p867
I1
sVd0o18un
p868
I1
sVd3um4xs
p869
I1
sVdhlpp6g
p870
I1
sVczzzsop
p871
I1
sVdr6po47
p872
I1
sVcytbhma
p873
I1
sVd82f2ga
p874
I1
sVd135x15
p875
I1
sVda6tktz
p876
I1
sVd1aqvbf
p877
I1
sVcyzbj31
p878
I1
sVdfiqs4q
p879
I1
sVd907kb1
p880
I1
sVd0j985f
p881
I1
sVd1ml9hn
p882
I1
sVd6966ct
p883
I1
sVd3nbkvt
p884
I1
sVdsbp7f5
p885
I1
sVdekgic7
p886
I1
sVd4nvfqi
p887
I1
sVd9higi6
p888
I1
sVd1bp4t2
p889
I1
sVcziqgfp
p890
I1
sVd6j0olz
p891
I1
sVd015vii
p892
I1
sVd957m10
p893
I1
sVddcu65y
p894
I1
sVdkcjzg5
p895
I1
sVd4o034u
p896
I1
sVd0b8tlr
p897
I1
sVd9ik8hm
p898
I2
sVd80vjyx
p899
I1
sVd7a0ffo
p900
I1
sVdr22ilf
p901
I1
sVd6hk73n
p902
I1
sVd1uzhjc
p903
I2
sVdepon40
p904
I2
sVd9am3e2
p905
I1
sVdmrwkxa
p906
I1
sVdb207a7
p907
I1
sVdhx445q
p908
I1
sVd3bki7b
p909
I1
sVd3iy2ui
p910
I1
sVcz1fmfc
p911
I1
sVddd6xfq
p912
I1
sVd9juc16
p913
I1
sVdflz5dw
p914
I1
sVd1hyjfm
p915
I1
sVdtgfx36
p916
I1
sVcymw92u
p917
I1
sVdoyqxf9
p918
I1
sVd0vfjqv
p919
I1
sVd1y6w6g
p920
I1
sVczuvnol
p921
I1
sVd2l8z84
p922
I2
sVdhftm8t
p923
I1
sVd6vgugq
p924
I1
sVd5xshib
p925
I1
sVdoph6t7
p926
I1
sVdgwr0k0
p927
I1
sVdnxs2vm
p928
I1
sVdn4ux85
p929
I1
sVdc8krqb
p930
I1
sVdn1d28x
p931
I4
sVdgk7pcy
p932
I1
sVdh2lvr4
p933
I1
sVdpuzwdz
p934
I1
sVd6x5796
p935
I1
sVdiv1kju
p936
I1
sVdfx6jry
p937
I1
sVdekqnls
p938
I1
sVdehnon6
p939
I1
sVdhy3zf1
p940
I1
sVdreaggu
p941
I1
sVddt2jsj
p942
I1
sVda1ygju
p943
I2
sVdkr33nl
p944
I1
sVd1q93yz
p945
I1
sVdh3dpz1
p946
I1
sVdnt5588
p947
I1
sVdrlrvog
p948
I1
sVdecee5p
p949
I1
sVdn7dfbn
p950
I1
sVd7hj2o6
p951
I1
sVcyzc2um
p952
I1
sVd3u4kkz
p953
I1
sVdri98va
p954
I1
sVcyzj8cw
p955
I1
sVde2dsj9
p956
I1
sVcywoqxw
p957
I1
sVddi0c5g
p958
I1
sVd9a1om4
p959
I1
sVdcflpqy
p960
I1
sVd8olpkm
p961
I1
sVdq96nyn
p962
I1
sVd3zcl86
p963
I1
sVd5nzoxv
p964
I1
sVdfihok2
p965
I1
sVcys0zri
p966
I1
sVdgo1rbk
p967
I1
sVdhhmntl
p968
I1
sVdogdysp
p969
I1
sVderhryv
p970
I1
sVd4vb1lh
p971
I1
sVd59yw7p
p972
I1
sVd6r21vd
p973
I1
sVdepbj53
p974
I1
sVdh5pwc5
p975
I2
sVd19pd87
p976
I1
sVd1bqbjr
p977
I3
sVdcmjfn0
p978
I1
sVdq5fnek
p979
I1
sVd4ms2fr
p980
I1
sVd13h3n4
p981
I1
sVda6rc5h
p982
I1
sVdkrb5f4
p983
I1
sVdfgse8i
p984
I2
sVdeadikc
p985
I1
sVd1asz3i
p986
I1
sVda0c23g
p987
I2
sVdf4f8u2
p988
I1
sVdcvjemo
p989
I1
sVdemjqio
p990
I1
sVdpltn5u
p991
I1
sVcymtjxp
p992
I1
sVdrqfrer
p993
I1
sVdtj35il
p994
I1
sVdrfastf
p995
I1
sVd9wztoe
p996
I1
sVd40dwb1
p997
I1
sVdfdpv3q
p998
I1
sVd39w6px
p999
I1
sVcz0i92i
p1000
I3
sVdbzwypm
p1001
I1
sVdbjclb8
p1002
I1
sVdt7g4a5
p1003
I1
sVdo5wpot
p1004
I1
sVdbt7vj9
p1005
I1
sVd0kxgsg
p1006
I1
sVd25d6v6
p1007
I1
sVdq7gk02
p1008
I1
sVd89hqoi
p1009
I1
sVdrrj8z0
p1010
I1
sVdgtastb
p1011
I1
sVczjop2b
p1012
I1
sVddd7bam
p1013
I1
sVd64s940
p1014
I3
sVdnabs7w
p1015
I1
sVdiqaid3
p1016
I1
sVdncbzit
p1017
I1
sVdjjkmwx
p1018
I1
sVdhiazrs
p1019
I1
sVd9vsrz0
p1020
I1
sVde899bp
p1021
I2
sVd0lqf1x
p1022
I1
sVd8oge2t
p1023
I1
sVd59lf9a
p1024
I1
sVd5dnyti
p1025
I1
sVdi9ibkg
p1026
I1
sVdcxtphp
p1027
I1
sVddxg6qg
p1028
I2
sVd0kz9kc
p1029
I1
sVdt3l1qd
p1030
I2
sVd41ae7x
p1031
I1
sVcze4w7a
p1032
I1
sVdouiva0
p1033
I1
sVdn0elgn
p1034
I2
sVdk3jtt4
p1035
I1
sVd13vjn4
p1036
I1
sVd3c2drc
p1037
I1
sVdbqua5x
p1038
I2
sVcyz3gyt
p1039
I1
sVdfjig3l
p1040
I1
sVdbgh7j4
p1041
I2
sVdgw6eh3
p1042
I1
sVdiij1hp
p1043
I1
sVd6hzq4j
p1044
I5
sVda49fbu
p1045
I1
sVd6vp7sn
p1046
I1
sVd78cyuq
p1047
I1
sVd90tv8m
p1048
I1
sVdi8udd5
p1049
I1
sVd25bbia
p1050
I1
sVdje5h3z
p1051
I1
sVdcxga8s
p1052
I1
sVdc65mut
p1053
I1
sVdal0wdm
p1054
I1
sVdiiei5w
p1055
I1
sVd3bdcs3
p1056
I1
sVdizrlfk
p1057
I1
sVdix840u
p1058
I1
sVdhp7rea
p1059
I1
sVd8jb97h
p1060
I1
sVdijmimz
p1061
I1
sVddhc5he
p1062
I1
sVdkrjb25
p1063
I1
sVdgj31cd
p1064
I1
sVde7xl85
p1065
I1
sVdhn79n4
p1066
I1
sVd3dea7l
p1067
I3
sVd217zcl
p1068
I1
sVdh62btb
p1069
I2
sVd5t8y5n
p1070
I1
sVddq2js5
p1071
I1
sVdgmw1hx
p1072
I1
sVds8d31b
p1073
I1
sVdew4e1e
p1074
I1
sVda96meo
p1075
I1
sVdsued0x
p1076
I1
sVdeb6d5v
p1077
I2
sVd6yk5pw
p1078
I1
sVcz64otw
p1079
I1
sVd5v3vk2
p1080
I3
sVdg7c16x
p1081
I1
sVd5fn20l
p1082
I1
sVdgfoqbo
p1083
I1
sVczm96z5
p1084
I1
sVd3zzs9h
p1085
I1
sVczvm1wj
p1086
I1
sVdn4ackt
p1087
I1
sVd9d94ol
p1088
I1
sVdi5b6uh
p1089
I1
sVd9vemou
p1090
I1
sVd3zr9di
p1091
I1
sVd6dgzh9
p1092
I1
sVd3zutzd
p1093
I2
sVd4l2jq6
p1094
I1
sVd7i59lc
p1095
I1
sVdknbusy
p1096
I1
sVd26b6jm
p1097
I1
sVd6aj7og
p1098
I1
sVd00uuhm
p1099
I1
sVdgl80cv
p1100
I1
sVd1rp5wt
p1101
I1
sVd345q2q
p1102
I4
sVd4xmu2z
p1103
I1
sVd6ht7s1
p1104
I4
sVd714cud
p1105
I1
sVd17gbdc
p1106
I1
sVd22xzwd
p1107
I1
sVdicp9ep
p1108
I1
sVd3r0bio
p1109
I1
sVdei1519
p1110
I1
sVdji5rk3
p1111
I1
sVd5sljkx
p1112
I1
sVd3zx6hc
p1113
I2
sVczzhn32
p1114
I1
sVd8ksi9v
p1115
I1
sVd9t8dm8
p1116
I2
sVdertrb0
p1117
I1
sVdtf1tn9
p1118
I1
sVcywoum3
p1119
I1
sVd45wpzx
p1120
I1
sVdnim6e1
p1121
I1
sVds15kir
p1122
I1
sVdbqe0l9
p1123
I1
sVdkyzq03
p1124
I1
sVdkpv89o
p1125
I1
sVd32cs87
p1126
I1
sVd3e5uey
p1127
I1
sVdepaxlg
p1128
I1
sVdj6vkoe
p1129
I1
sVdad4ljx
p1130
I1
sVdeqgks1
p1131
I1
sVdnvmk7r
p1132
I1
sVd06ao1b
p1133
I1
sVdq7g98z
p1134
I1
sVd6hlzdh
p1135
I1
sVd3y8zug
p1136
I1
sVd25ctww
p1137
I1
sVdkrrcdo
p1138
I1
sVd8p4ti2
p1139
I1
sVdkbnb91
p1140
I2
sVd4d7oa4
p1141
I1
sVdsm8i0k
p1142
I2
sVdha8un5
p1143
I2
sVds4yqc6
p1144
I1
sVd33ykfq
p1145
I2
sVd2zny4q
p1146
I1
sVd42j5b5
p1147
I1
sVd00vnzc
p1148
I1
sVdbz9ckb
p1149
I1
sVd20s0jg
p1150
I1
sVdekcwyq
p1151
I1
sVd6581pj
p1152
I1
sVd001s68
p1153
I1
sVdoncycb
p1154
I2
sVdf1evjt
p1155
I1
sVdmppq2w
p1156
I1
sVdehv1t2
p1157
I3
sVddcy1ml
p1158
I1
sVdcxty5d
p1159
I1
sVd6hyte3
p1160
I1
sVdflw1s4
p1161
I1
sVd81ooz0
p1162
I1
sVderjg4a
p1163
I3
sVdt2jvpb
p1164
I1
sVdcre3ms
p1165
I2
sVd01gz7u
p1166
I1
sVd7dr74n
p1167
I1
sVdpl9eqr
p1168
I1
sVd3mi0lz
p1169
I1
sVcynyom6
p1170
I1
sVds9m1kr
p1171
I1
sVd33zf1p
p1172
I2
sVczwcj3h
p1173
I1
sVd19qyzq
p1174
I1
sVd3yh9xa
p1175
I2
sVd8kgln9
p1176
I1
sVd125cev
p1177
I1
sVdg7i1mi
p1178
I1
sVd08gmwk
p1179
I2
sVde6m1q2
p1180
I1
sVd63pu8l
p1181
I2
sVd498p0m
p1182
I1
sVcz5hfke
p1183
I1
sVdggskwb
p1184
I3
sVd4j9t2p
p1185
I1
sVdglvjov
p1186
I1
sVdhm32rf
p1187
I1
sVdhgd2jq
p1188
I1
sVcyw4tvj
p1189
I1
sVdegss2h
p1190
I1
sVdan4pwp
p1191
I1
sVdknbrcx
p1192
I1
sVdjmjzud
p1193
I1
sVd6j2mzd
p1194
I1
sVdaltowm
p1195
I1
sVdkpbcal
p1196
I1
sVd26hqwz
p1197
I1
sVdaycozc
p1198
I1
sVczc8e7h
p1199
I2
sVd4l3kqm
p1200
I1
sVd1x17a4
p1201
I1
sVdgzy12q
p1202
I1
sVdbmlqu8
p1203
I1
sVderj2pv
p1204
I1
sVd54sy5q
p1205
I1
sVdmoautb
p1206
I1
sVdeqkydp
p1207
I1
sVd2rw3b7
p1208
I1
sVdc5q7ii
p1209
I1
sVd08rcaz
p1210
I1
sVdel5451
p1211
I1
sVczxhfdk
p1212
I1
sVd8x9hse
p1213
I1
sVcyy9j3g
p1214
I3
sVczvykv9
p1215
I1
sVd8rnhof
p1216
I1
sVd1berzd
p1217
I1
sVd31o42j
p1218
I1
sVd3pkntv
p1219
I1
sVdcnlaox
p1220
I1
sVde88aod
p1221
I1
sVdnznmen
p1222
I1
sVcyvczmv
p1223
I1
sVd8z85bg
p1224
I2
sVdfdess0
p1225
I2
sVdhxhxnx
p1226
I1
sVde049q4
p1227
I1
sVd86s3oc
p1228
I1
sVd1atel2
p1229
I1
s.