(dp0
Vd06fmx3
p1
I1
s.(dp0
Vd35ey6k
p1
I1
sVd06fmx3
p2
I1
s.(dp0
Vd06fmx3
p1
I1
sVdccg7uu
p2
I1
s.(dp0
Vd06fmx3
p1
I1
sVdch9zfx
p2
I1
s.(dp0
Vd06fmx3
p1
I1
sVdcuafki
p2
I1
s.(dp0
Vd06fmx3
p1
I1
sVdh3yjp8
p2
I1
s.(dp0
Vd06fmx3
p1
I1
sVdi7fugo
p2
I1
s.