(dp0
Vd5ihkgh
p1
I1
sVd7xswdz
p2
I1
sVd0d6ajv
p3
I1
sVdct0vj3
p4
I5
sVd3tch2z
p5
I1
sVdk9q5sm
p6
I2
sVd5p1w6q
p7
I1
sVdarkotp
p8
I1
sVd6e6ahh
p9
I1
sVd6abc7e
p10
I1
sVdrinx0e
p11
I1
sVdct5fpr
p12
I1
sVd6qscrf
p13
I1
sVd2ukkhr
p14
I1
sVd884ycj
p15
I1
sVdjfrrc8
p16
I1
sVdgaz8un
p17
I1
sVd3w8piq
p18
I2
sVczy46hc
p19
I2
sVd0wwfsu
p20
I1
sVdfqvfqt
p21
I1
sVdobnhhb
p22
I1
sVd68rdjt
p23
I1
sVdgp1dqq
p24
I1
sVdduko82
p25
I1
sVddr79ae
p26
I1
sVdbulvup
p27
I1
sVdmgm92i
p28
I1
sVczij6k5
p29
I1
sVd4up6wa
p30
I1
sVde9pyu5
p31
I1
sVdry95ar
p32
I1
sVda17qvr
p33
I1
sVdghtbw8
p34
I1
sVdc18w32
p35
I1
sVcykwu26
p36
I1
sVd95b1mf
p37
I1
sVd2kejdz
p38
I1
sVd1kkhwt
p39
I1
sVdbspvjw
p40
I1
sVd276pbh
p41
I1
sVdiwg74f
p42
I1
sVdjmi53o
p43
I3
sVdaqkcmz
p44
I1
sVdj72o5s
p45
I1
sVdrsbboo
p46
I1
sVd0ofor5
p47
I1
sVd59mlu8
p48
I1
sVd8zxz0o
p49
I1
sVcyy0ca3
p50
I1
sVdqxk8jx
p51
I1
sVdg4vr28
p52
I1
sVd3lq93g
p53
I1
sVd9j0kg3
p54
I1
sVd9yfux3
p55
I1
sVdjhflkj
p56
I1
sVd2bmmq3
p57
I3
sVdh3594q
p58
I1
sVczem2d2
p59
I1
sVd36etfw
p60
I1
sVd6ha0jo
p61
I1
sVdc0zd5o
p62
I1
sVd6sng1f
p63
I1
sVczxikpj
p64
I3
sVdepeiuk
p65
I2
sVdjle2r9
p66
I2
sVde8ddr2
p67
I2
sVdrktz7t
p68
I3
sVdfhxxio
p69
I1
sVdrin1rg
p70
I1
sVczx3ke5
p71
I1
sVdekl2lr
p72
I1
sVdb0h1it
p73
I1
sVcylltid
p74
I2
sVd3k78wy
p75
I1
sVd0rxtpw
p76
I1
sVd19paxd
p77
I3
sVdaag9ff
p78
I4
sVds3owa5
p79
I1
sVd0icsj3
p80
I1
sVd7tmgbf
p81
I1
sVdriy8lh
p82
I1
sVdp2o1z9
p83
I1
sVdbbys0v
p84
I1
sVdnhy84g
p85
I1
sVdr7ymci
p86
I1
sVczf6ced
p87
I1
sVdq041gf
p88
I1
sVd03194h
p89
I1
sVd21rc9v
p90
I1
sVd4izfba
p91
I1
sVdgrisb2
p92
I1
sVczlccyh
p93
I1
sVdk6w73g
p94
I1
sVddtegfs
p95
I1
sVd9vtath
p96
I2
sVdod1eqk
p97
I1
sVd2rpy6y
p98
I1
sVdek08mc
p99
I3
sVd6qkry9
p100
I1
sVdsbhheo
p101
I1
sVd5y1fwd
p102
I1
sVd241k4c
p103
I1
sVdir4nzf
p104
I2
sVdp2o8dq
p105
I1
sVdbwst39
p106
I1
sVdfn6cx5
p107
I1
sVdmh3uyc
p108
I1
sVdfdmlok
p109
I1
sVdq6b3bh
p110
I1
sVd5f7oll
p111
I1
sVd5q9hne
p112
I1
sVdr9iv0j
p113
I1
sVdtbqu4o
p114
I1
sVdj592fv
p115
I1
sVdnd0s75
p116
I1
sVdnh6qa6
p117
I1
sVd9qt13z
p118
I1
sVd4rwt59
p119
I1
sVdq2s8hk
p120
I1
sVdbgbwb0
p121
I1
sVdaa6fjw
p122
I1
sVd5idpmx
p123
I1
sVdpbyyyj
p124
I2
sVdrfxktd
p125
I3
sVdjk2i45
p126
I2
sVd0m1k1n
p127
I1
sVdji6zfr
p128
I1
sVcz9t16l
p129
I1
sVd1bpcxm
p130
I1
sVd2vztpt
p131
I1
sVczxnd37
p132
I1
sVd49nel6
p133
I1
sVdejzbsn
p134
I3
sVdctia2p
p135
I1
sVd3ytcdk
p136
I1
sVd9x15ww
p137
I1
sVcz4it29
p138
I1
sVd4ndl1q
p139
I1
sVdpo3xn3
p140
I1
sVdcsomer
p141
I1
sVdeaaiz2
p142
I1
sVd389o1k
p143
I1
sVdhcd4fi
p144
I1
sVdn1dnqp
p145
I2
sVd9jqbgl
p146
I1
sVcznbuxr
p147
I1
sVdcjxlhy
p148
I1
sVdfeagha
p149
I1
sVd1hm8iv
p150
I1
sVd8x9dhi
p151
I1
sVd7cngvp
p152
I1
sVdc794ob
p153
I1
sVd0g8b02
p154
I1
sVdfednl7
p155
I1
sVdjo1ckr
p156
I1
sVd7vofgj
p157
I1
sVdiypgr7
p158
I1
sVd94ah92
p159
I1
sVczhq9xr
p160
I1
sVczfczpl
p161
I2
sVd1o8rhq
p162
I1
sVdt6xd32
p163
I1
sVdbcv32x
p164
I1
sVczq26dr
p165
I1
sVdkga83i
p166
I1
sVdcc55ip
p167
I1
sVd37rrk9
p168
I2
sVd8vfuvb
p169
I1
sVd01csx7
p170
I1
sVdng0e4o
p171
I1
sVd859txd
p172
I1
sVdpqzjkv
p173
I1
sVd86ys7x
p174
I1
sVdtdy06q
p175
I1
sVdffzl5e
p176
I1
sVdebvvnt
p177
I1
sVdno088l
p178
I1
sVdnh9943
p179
I5
sVdbietsy
p180
I1
sVdmufqzx
p181
I1
sVdezep2b
p182
I1
sVd1ozstm
p183
I1
sVd5xmfex
p184
I2
sVczvy7j9
p185
I1
sVdexk6au
p186
I1
sVdh9m1i1
p187
I1
sVdhe8sjp
p188
I1
sVcysct1n
p189
I1
sVczxrl4w
p190
I1
sVd3845uc
p191
I1
sVd6w8caz
p192
I1
sVd4q86kd
p193
I1
sVd469n55
p194
I1
sVdshkfeu
p195
I1
sVdb5x3fe
p196
I1
sVdcav6wq
p197
I1
sVd3alh95
p198
I1
sVd62or1t
p199
I2
sVcyq0kun
p200
I1
sVdmk0qpg
p201
I1
sVdh2t11d
p202
I2
sVdgy0u11
p203
I1
sVcyxyuky
p204
I1
sVd7zk4do
p205
I1
sVdebyzt6
p206
I1
sVdhnc2ye
p207
I1
sVczygp29
p208
I1
sVdagboya
p209
I2
sVd967n1g
p210
I1
sVdgf0oq9
p211
I1
sVdth0756
p212
I1
sVd2ypcig
p213
I2
sVd5mgu9g
p214
I1
sVdhxkdz5
p215
I1
sVd3iov3d
p216
I1
sVdd6spqn
p217
I1
sVd2ucvpd
p218
I1
sVdcd1jvd
p219
I1
sVd366rjj
p220
I1
sVd3t6l9m
p221
I1
sVdho3lj8
p222
I1
sVd6cqnem
p223
I1
sVdbju45p
p224
I1
sVdazp9dk
p225
I1
sVd3bgobi
p226
I2
sVd14bv61
p227
I1
sVdbjhq70
p228
I1
sVdr40f54
p229
I1
sVdewcwku
p230
I1
sVd9xexn3
p231
I5
sVddistku
p232
I1
sVd3e8hf4
p233
I1
sVdgn2jhj
p234
I2
sVd9h4vti
p235
I1
sVdgw08r8
p236
I1
sVdqo768g
p237
I1
sVdonqb1q
p238
I1
sVdboh119
p239
I1
sVddwmtqj
p240
I1
sVd64rsa0
p241
I1
sVd9f9cyz
p242
I1
sVdeq3qaq
p243
I1
sVdf3r662
p244
I1
sVd6zw6n2
p245
I1
sVdqp14ch
p246
I1
sVd9icbrm
p247
I1
sVd9hwpzk
p248
I1
sVd537tim
p249
I2
sVdqw7kk9
p250
I1
sVdbeu6u4
p251
I1
sVdf9pbsx
p252
I1
sVcz8038q
p253
I1
sVd11mgr5
p254
I2
sVdamtjp2
p255
I1
sVdqzkmbe
p256
I1
sVdk2bk9m
p257
I1
sVdfhugei
p258
I1
sVd051o82
p259
I1
sVdaa9wuo
p260
I1
sVddgk6o2
p261
I1
sVcyp6q8u
p262
I1
sVd9ecjuc
p263
I1
sVdj1laau
p264
I2
sVd6rchwi
p265
I1
sVdn1frn7
p266
I2
sVd5cty9v
p267
I7
sVdb7dctu
p268
I1
sVdh4q6o2
p269
I2
sVd159ybx
p270
I1
sVdikpb2u
p271
I1
sVdol6dxv
p272
I1
sVdn55elk
p273
I1
sVd8go7hb
p274
I1
sVdi0cpj2
p275
I1
sVdbyojmt
p276
I1
sVcyxy9hx
p277
I1
sVdp5gww8
p278
I1
sVdjz7f4h
p279
I4
sVdppo3ya
p280
I1
sVde4odon
p281
I1
sVdjoyja1
p282
I1
sVd6p826o
p283
I1
sVdqeq06u
p284
I4
sVcznhupo
p285
I1
sVdd3djvw
p286
I1
sVdks3bft
p287
I1
sVcz2lxwg
p288
I1
sVd53atql
p289
I2
sVdrg3450
p290
I1
sVdc2s241
p291
I1
sVdek058m
p292
I1
sVdiwy9ql
p293
I1
sVdjb33w6
p294
I1
sVd5ywasq
p295
I1
sVdf61nfk
p296
I1
sVdrionbx
p297
I2
sVdiok72g
p298
I1
sVdqrka9u
p299
I1
sVd45wmrj
p300
I1
sVds42l21
p301
I1
sVd6qttxo
p302
I1
sVd3cxaw9
p303
I1
sVdffj5eg
p304
I1
sVd1d8qjh
p305
I1
sVdpu4oz7
p306
I1
sVdbl9z93
p307
I1
sVd0ezrg2
p308
I1
sVd3a3gum
p309
I2
sVcz7da3w
p310
I1
sVdctvw2p
p311
I1
sVcz9iplj
p312
I1
sVd1g15jt
p313
I1
sVdb859tf
p314
I2
sVd6sz1dg
p315
I2
sVcyyq2wm
p316
I1
sVd1giwji
p317
I1
sVd3vo0bv
p318
I1
sVdfwlj57
p319
I1
sVdat3ik4
p320
I1
sVdd4vbua
p321
I1
sVd87ni6w
p322
I1
sVd01py03
p323
I1
sVdb3kvg8
p324
I1
sVd0mo28c
p325
I1
sVdmxj51s
p326
I1
sVd83pxfb
p327
I3
sVdqfzy62
p328
I2
sVdq8he2n
p329
I1
sVdspx68c
p330
I1
sVcylhf0g
p331
I1
sVd2c4uzr
p332
I1
sVczc16cu
p333
I3
sVd8yy5wd
p334
I1
sVd74fidi
p335
I1
sVd3jro7e
p336
I1
sVdis89gl
p337
I1
sVd75lfdx
p338
I1
sVd198dj2
p339
I1
sVd7qrsmc
p340
I1
sVdk1kik1
p341
I1
sVdoe1fwk
p342
I1
sVd0j948f
p343
I1
sVdnxkbc5
p344
I1
sVdj3kz25
p345
I1
sVdb83g8j
p346
I2
sVdha8un5
p347
I1
sVd97x8pz
p348
I1
sVdb0hi8j
p349
I4
sVdeu0ybj
p350
I1
sVd8ozy7n
p351
I1
sVdoaws2b
p352
I2
sVden4okz
p353
I1
sVdn2pyp3
p354
I1
sVczepygj
p355
I1
sVd5rdfiw
p356
I1
sVd61of86
p357
I1
sVd02vfbx
p358
I1
sVddj8wsg
p359
I1
sVd0r7v1x
p360
I2
sVd3tm7lm
p361
I1
sVd8ut1mx
p362
I1
sVdoahsq1
p363
I1
sVd6hed53
p364
I1
sVd9brve2
p365
I1
sVcz4j5u3
p366
I1
sVd9ba1tc
p367
I1
sVdov180n
p368
I1
sVd174du9
p369
I1
sVd06dpwr
p370
I1
sVd8umfll
p371
I1
sVdg0tri1
p372
I1
sVdnxs2vm
p373
I1
sVdp6rxix
p374
I1
sVd0ps79j
p375
I1
sVdh3hg2z
p376
I1
sVdeugrj8
p377
I1
sVd5yb45u
p378
I1
sVd2i0p2i
p379
I1
sVd78z69l
p380
I1
sVcykm4c4
p381
I1
sVdaz423n
p382
I2
sVddp7ffh
p383
I1
sVddh57ee
p384
I1
sVd7ilih2
p385
I1
sVddrb30i
p386
I1
sVdiwbxql
p387
I1
sVd8fvgvm
p388
I2
sVd52qlde
p389
I3
sVdge95e0
p390
I1
sVdp6nebe
p391
I2
sVds7safs
p392
I1
sVdo5ou0y
p393
I2
sVd7wlni3
p394
I1
sVczzsqn2
p395
I1
sVd8xw003
p396
I1
sVdfdzl4d
p397
I1
sVdei97o9
p398
I3
sVdo7d3rn
p399
I1
sVdsn9edr
p400
I1
sVd945rbi
p401
I2
sVdtjcljd
p402
I1
sVd0yywnd
p403
I1
sVd2dxz6w
p404
I1
sVdmwpaw3
p405
I1
sVddtv98r
p406
I1
sVdg3su73
p407
I1
sVd03aa4o
p408
I1
sVdj4dzyv
p409
I1
sVdi0jyh4
p410
I1
sVdenrx0d
p411
I1
sVd131tee
p412
I1
sVdrcamqx
p413
I2
sVdiw2dmd
p414
I2
sVdqj9qgh
p415
I1
sVd5np3tv
p416
I1
sVdd0c62i
p417
I3
sVdip8y66
p418
I1
sVdnbuo8l
p419
I1
sVd22zg2e
p420
I1
sVdht17b4
p421
I1
sVd7cuwso
p422
I1
sVdqojtt5
p423
I1
sVd013aip
p424
I1
sVdgasymv
p425
I1
sVcztuwt5
p426
I1
sVdgzpk9w
p427
I1
sVd7ygqaq
p428
I4
sVd9sf7is
p429
I1
sVd3ynkah
p430
I1
sVd1opg3b
p431
I3
sVdb0rjuz
p432
I1
sVdbbig6f
p433
I1
sVdddjxue
p434
I1
sVdc3a84l
p435
I1
sVdcdgmgd
p436
I1
sVd6ubmi3
p437
I1
sVdb4qx7y
p438
I1
sVdeki3zz
p439
I2
sVdirkyt3
p440
I1
sVdgd36hb
p441
I1
sVczxb2vy
p442
I1
sVddq17px
p443
I1
sVdfiupqb
p444
I2
sVd0xwpxv
p445
I1
sVdcbaoa9
p446
I1
sVdi5r95d
p447
I1
sVd0dd281
p448
I1
sVdbxmbzl
p449
I1
sVd2plbwm
p450
I2
sVdfpnj8c
p451
I1
sVdd39lpz
p452
I1
sVdhywa7y
p453
I1
sVdgrqp7z
p454
I1
sVdcq8ese
p455
I1
sVdj9im5z
p456
I2
sVd1geh5y
p457
I1
sVd2hr4j6
p458
I1
sVdiyp5uk
p459
I2
sVdmerits
p460
I1
sVdcjmq3t
p461
I1
sVd3hiw11
p462
I1
sVcysbzzy
p463
I1
sVdboo17i
p464
I1
sVdc6mbpr
p465
I1
sVcztsb4j
p466
I1
sVdrydmzd
p467
I1
sVd7tt4p6
p468
I1
sVd90olil
p469
I2
sVdh5549n
p470
I1
sVd98wu3h
p471
I1
sVczw91jc
p472
I1
sVdfvttf3
p473
I2
sVdf682z4
p474
I1
sVd3xzkdw
p475
I1
sVddq06om
p476
I1
sVcz2blrj
p477
I1
sVd4dhbma
p478
I1
sVdjoeczt
p479
I1
sVdawolmh
p480
I2
sVdi3msxv
p481
I1
sVdnu8ulf
p482
I1
sVd51xp7a
p483
I1
sVdei6n8v
p484
I1
sVda6gjcl
p485
I1
sVd8o44q3
p486
I1
sVd0z3t5u
p487
I1
sVdtg4pte
p488
I1
sVdhpkjhn
p489
I1
sVdstcuf4
p490
I1
sVd3u5mbb
p491
I2
sVcz6bmjk
p492
I1
sVdd1oviv
p493
I2
sVdpk64r5
p494
I3
sVdqfdbp0
p495
I1
sVdd4rdio
p496
I1
sVdekwxl8
p497
I1
sVd8n0ol6
p498
I1
sVdhyd7b3
p499
I1
sVdq14380
p500
I1
sVd9bw76w
p501
I2
sVdewe1iw
p502
I1
sVd21pegg
p503
I1
sVdax5u5y
p504
I1
sVdj2i3fn
p505
I1
sVdfmlnwb
p506
I1
sVczt7c82
p507
I1
sVdaxgmgt
p508
I1
sVdbqvt7g
p509
I2
sVdctdl1p
p510
I1
sVdcb8954
p511
I2
sVdjlhexe
p512
I1
sVd0a4cuu
p513
I1
sVdcvm0hg
p514
I1
sVd1huhy2
p515
I1
sVdrgq4yk
p516
I1
sVdrmuu94
p517
I2
sVdk1llcf
p518
I1
sVdj8thps
p519
I1
sVdftqm4b
p520
I1
sVdfnqkco
p521
I1
sVd81neib
p522
I1
sVd73v7mr
p523
I1
sVdqgbgiw
p524
I1
sVczef2hh
p525
I1
sVd2azb93
p526
I2
sVdhr3tcd
p527
I1
sVcyp4anf
p528
I1
sVdf0e5a0
p529
I1
sVd8tekdy
p530
I2
sVdskiugy
p531
I1
sVds57kyt
p532
I1
sVd2ig4ma
p533
I3
sVczni0rx
p534
I1
sVd5u0i3s
p535
I1
sVdqjupya
p536
I1
sVde6jxg0
p537
I1
sVd5hkfy7
p538
I1
sVd6078h2
p539
I2
sVd5d2v07
p540
I1
sVdr8li74
p541
I1
sVd7u5vew
p542
I1
sVd702axe
p543
I1
sVd73lbaq
p544
I1
sVdj3qn49
p545
I4
sVdct0j03
p546
I1
sVdeau9wg
p547
I1
sVdj4mk50
p548
I1
sVdfhif5n
p549
I1
sVd21gtd0
p550
I1
sVdhxbyvl
p551
I1
sVdncq2im
p552
I1
sVdjpzh89
p553
I1
sVd7wlqv9
p554
I1
sVd293rgb
p555
I1
sVd5nlplq
p556
I1
sVd10fn7v
p557
I1
sVdeekrw3
p558
I1
sVcz75g2y
p559
I1
sVdbxrwn6
p560
I1
sVddcc84s
p561
I1
sVdog8wez
p562
I2
sVd7do4z7
p563
I1
sVdgtek76
p564
I1
sVd73xw5d
p565
I1
sVdsn64bj
p566
I1
sVddj832t
p567
I1
sVd5jczgf
p568
I2
sVczgyzqd
p569
I1
sVdhnou14
p570
I1
sVdg29cmu
p571
I1
sVdqgzqut
p572
I2
sVdkj041o
p573
I1
sVczxb2cu
p574
I1
sVd9i417n
p575
I5
sVczwnxxo
p576
I2
sVdebsgpw
p577
I1
sVcyl9jdg
p578
I1
sVcz6gn1n
p579
I1
sVd0dk2v1
p580
I1
sVdex2fio
p581
I1
sVde7sfij
p582
I3
sVd4j2bsr
p583
I1
sVd2hu3t9
p584
I1
sVd0047hi
p585
I1
sVdrvd9bo
p586
I1
sVcz7bons
p587
I1
sVdn6x8y5
p588
I1
sVd9avs5h
p589
I1
sVdt3r2wn
p590
I1
sVdsvvl6d
p591
I2
sVdiexvy1
p592
I1
sVczq0ghr
p593
I1
sVdeioocf
p594
I1
sVcyj75ou
p595
I1
sVczwyr6m
p596
I2
sVd01n58z
p597
I1
sVd6hxip3
p598
I1
sVd14tt30
p599
I1
sVcyuvxpc
p600
I1
sVdfqo1cv
p601
I2
sVd0g1ffw
p602
I1
sVdknbfz4
p603
I1
sVdk4nh8p
p604
I1
sVd19mapj
p605
I1
sVd4nf4yo
p606
I1
sVd7da31u
p607
I1
sVd2jshkq
p608
I1
sVd5hfz2s
p609
I1
sVd82f10x
p610
I1
sVczeq60c
p611
I1
sVd20zgw3
p612
I2
sVdt9ghwl
p613
I1
sVdqh8ai6
p614
I2
sVd1nv9p0
p615
I1
sVdk8s0gt
p616
I1
sVd59jveu
p617
I1
sVdfyg3qa
p618
I1
sVdtfrd4m
p619
I1
sVd8u6tqa
p620
I1
sVd365rs3
p621
I1
sVdb0sf0o
p622
I1
sVdkxsclo
p623
I1
sVd9iq5km
p624
I1
sVczhfiv3
p625
I1
sVczran92
p626
I1
sVdqizusm
p627
I1
sVdenx4v7
p628
I2
sVdp93kdw
p629
I1
sVdkw1ogx
p630
I1
sVd15g97z
p631
I1
sVd3j75e4
p632
I1
sVd2wh2yr
p633
I1
sVd9piv5m
p634
I1
sVdi8e932
p635
I1
sVdeaoqj7
p636
I1
sVdrk31t8
p637
I1
sVdjsk0q4
p638
I1
sVdogj5pd
p639
I1
sVdhisjvi
p640
I1
sVd3tvefu
p641
I2
sVd3396kf
p642
I1
sVdeqwjqu
p643
I1
sVdeclr48
p644
I2
sVdcbkh1c
p645
I1
sVd6gy4lu
p646
I1
sVczhii1q
p647
I2
sVdgrxuew
p648
I1
sVdj6pmws
p649
I1
sVdf3kisz
p650
I1
sVdcsad5z
p651
I1
sVdb5fg3r
p652
I1
sVd5eb5x2
p653
I1
sVd103q1e
p654
I1
sVd12vha3
p655
I2
sVdb8hrxj
p656
I1
sVdhs76qm
p657
I1
sVdd1qxk8
p658
I1
sVdsbbz2g
p659
I1
sVdc5geot
p660
I1
sVdqpcnzi
p661
I1
sVdsmflpr
p662
I1
sVdn9am3x
p663
I1
sVdgnczsq
p664
I1
sVdkpt9wk
p665
I1
sVdich4s8
p666
I1
sVd3ldi6w
p667
I1
sVddkcioh
p668
I1
sVd2qfv74
p669
I2
sVdjhei1w
p670
I1
sVda9flmd
p671
I1
sVd30wx5o
p672
I1
sVd14q5bi
p673
I21
sVdaiuz9v
p674
I1
sVd8tun4s
p675
I1
sVd03esm1
p676
I1
sVdsfr556
p677
I1
sVdovv8c0
p678
I1
sVdi4nmtv
p679
I2
sVdn4c9bh
p680
I1
sVdql4qp9
p681
I1
sVdazokz9
p682
I4
sVdf48ohs
p683
I1
sVdgdfnio
p684
I1
sVdfsn93s
p685
I1
sVcyzt6ks
p686
I2
sVddedp3b
p687
I1
sVdiygw5e
p688
I1
sVd0t08wy
p689
I1
sVd4cqs0y
p690
I2
sVdbr67pt
p691
I1
sVd0wevs0
p692
I1
sVd0g66mn
p693
I1
sVd43rj8v
p694
I1
sVd69xg7q
p695
I1
sVdjaet4m
p696
I1
sVds8y30y
p697
I1
sVdqy2rye
p698
I1
sVdc0z265
p699
I1
sVd6zup2t
p700
I1
sVdahty3y
p701
I1
sVdjtxrd5
p702
I1
sVdju4xua
p703
I1
sVdgerapr
p704
I1
sVdpyf183
p705
I1
sVddcuqks
p706
I1
sVd7rg2vf
p707
I3
sVd8ccbr4
p708
I1
sVdnla95q
p709
I1
sVdc5yoga
p710
I1
sVdtf3jlw
p711
I1
sVdb5ddto
p712
I1
sVd10rrnp
p713
I2
sVczd19mr
p714
I1
sVd06z6fn
p715
I2
sVdd5obra
p716
I1
sVd0z72zw
p717
I1
sVdcaypld
p718
I1
sVd8j220w
p719
I1
sVd79p11o
p720
I2
sVdeu24em
p721
I2
sVd0nngkg
p722
I1
sVd5oezj6
p723
I1
sVdb7rdyq
p724
I1
sVdmsfi8s
p725
I1
sVddfu7uw
p726
I1
sVd4zbafq
p727
I1
sVdc1ca0r
p728
I1
sVdh64zhw
p729
I3
sVdndo25g
p730
I1
sVdf63g8n
p731
I1
sVd1d2gap
p732
I4
sVdj8k19l
p733
I1
sVdmugj3v
p734
I1
sVdowecni
p735
I1
sVdbrnon5
p736
I1
sVdrun0b4
p737
I1
sVdgnt8ly
p738
I1
sVcz4imp4
p739
I1
sVdiblu84
p740
I1
sVdjkkax5
p741
I1
sVdach8jb
p742
I1
sVdrifijm
p743
I1
sVd5v5akr
p744
I1
sVdj8nop5
p745
I1
sVdaxqf2h
p746
I1
sVd0gg46d
p747
I1
sVdfj31va
p748
I1
sVdo1mvsn
p749
I1
sVdr1mwqu
p750
I3
sVdsqhymt
p751
I1
sVd933ttp
p752
I3
sVdqeks5o
p753
I1
sVd7t8z0d
p754
I2
sVd6sywl3
p755
I1
sVdcmsxrs
p756
I1
sVdg9dw8n
p757
I1
sVdaw224r
p758
I2
sVd9878eu
p759
I1
sVdmfnqtq
p760
I2
sVd7l3die
p761
I1
sVde7rawo
p762
I1
sVdowwpoj
p763
I2
sVdeovs4w
p764
I1
sVd1w1wi2
p765
I1
sVcyqlyug
p766
I1
sVdmikxc8
p767
I1
sVd39q0td
p768
I1
sVddfl8th
p769
I1
sVds57tdi
p770
I2
sVdogrfa7
p771
I1
sVd5j4bvf
p772
I1
sVdaf8dfe
p773
I1
sVd9tj2vx
p774
I6
sVczn67fm
p775
I2
sVdd8ukvd
p776
I1
sVdblp5nv
p777
I1
sVdam1gwi
p778
I1
sVdsgr2og
p779
I1
sVd46ee0w
p780
I1
sVddu6erc
p781
I1
sVd56gua7
p782
I1
sVdatp7qg
p783
I2
sVd03fom7
p784
I1
sVd6jp6xc
p785
I1
sVda6vepx
p786
I2
sVdf643de
p787
I1
sVdj3jzg8
p788
I1
sVdi066x7
p789
I1
sVcyhzuz7
p790
I1
sVd59lm3b
p791
I1
sVdkkr1wa
p792
I2
sVd8w6etu
p793
I1
sVdermiga
p794
I1
sVczo39t7
p795
I1
sVdruppo4
p796
I1
sVdai7bz1
p797
I1
sVdgc0ewz
p798
I1
sVdgwvg3p
p799
I1
sVdei2mz2
p800
I1
sVdg7i49j
p801
I1
sVdt9jr98
p802
I2
sVdnxof0m
p803
I1
sVdadz4pd
p804
I1
sVdre8bve
p805
I1
sVd95bd95
p806
I1
sVczdshx0
p807
I1
sVd16wxy6
p808
I1
sVdfquun1
p809
I1
sVd50opyb
p810
I1
sVd3jrz5n
p811
I1
sVd4e4l0x
p812
I1
sVd5j4hrk
p813
I1
sVdgpzlf8
p814
I1
sVcyvodpe
p815
I1
sVd0528wx
p816
I1
sVd8ou4fz
p817
I2
sVdcwnm64
p818
I1
sVd7k7n33
p819
I1
sVdewdnei
p820
I2
sVdmzkse0
p821
I1
sVcywfiqa
p822
I1
sVcz70yhg
p823
I2
sVdmu8z8c
p824
I1
sVdip9y9y
p825
I1
sVd835fts
p826
I1
sVd7z03kv
p827
I1
sVdd7oxpo
p828
I1
sVd93882r
p829
I4
sVdbibl73
p830
I1
sVdnvj8h6
p831
I1
sVczwk7zh
p832
I1
sVdoe8n1e
p833
I1
sVd7frk60
p834
I1
sVd7a1iop
p835
I1
sVdrb2nf3
p836
I1
sVcylgy7j
p837
I1
sVdcantej
p838
I1
sVdhtdoam
p839
I1
sVd8yb4mu
p840
I1
sVd8j00ro
p841
I1
sVdh0tbza
p842
I1
sVde71818
p843
I1
sVd5ivp0c
p844
I1
sVdd29a73
p845
I3
sVdidlmfy
p846
I1
sVd267boj
p847
I1
sVczxsqxo
p848
I1
sVczxnwan
p849
I1
sVdr22x5r
p850
I1
sVd077v7a
p851
I1
sVd0gbi2i
p852
I1
sVd6xmh36
p853
I2
sVdejik26
p854
I1
sVdoes1x9
p855
I1
sVd06w970
p856
I1
sVd0tmxcr
p857
I1
sVd8cl2pl
p858
I1
sVdeyuhcd
p859
I1
sVdhrgf0z
p860
I1
sVdn36msz
p861
I1
sVdh0g8mj
p862
I1
sVdqtok80
p863
I1
sVdnm476v
p864
I1
sVd1oltyh
p865
I1
sVd8bc7ua
p866
I1
sVd97khpj
p867
I1
sVdje2a98
p868
I1
sVddwe10d
p869
I1
sVd9fan2d
p870
I1
sVd77pbdy
p871
I1
sVde04v1p
p872
I1
sVdaa61d4
p873
I1
sVdiahkqi
p874
I1
sVdgau7rt
p875
I1
sVd352kth
p876
I1
sVdbezea0
p877
I1
sVczs3rru
p878
I2
sVd2k2tkz
p879
I1
sVdb7oxr8
p880
I1
sVdj4kgvk
p881
I2
sVdac6j11
p882
I1
sVdkvbcdb
p883
I1
sVdqzoboc
p884
I1
sVdjxoz3u
p885
I1
sVda7goiu
p886
I2
sVdfrc5cc
p887
I1
sVd4c53pa
p888
I1
sVcyils4g
p889
I1
sVd1515wa
p890
I1
sVdaebphg
p891
I1
sVddsdtgk
p892
I2
sVdj3grnl
p893
I1
sVdsokxnw
p894
I1
sVd59rleq
p895
I1
sVd3mmn2t
p896
I1
sVdrmphwk
p897
I1
sVdaxbo0u
p898
I1
sVczicbcp
p899
I1
sVd9xurum
p900
I9
sVd8hy66t
p901
I1
sVdbchdac
p902
I5
sVdids37i
p903
I1
sVdgmon14
p904
I1
sVdsm65dx
p905
I1
sVd2ov2ub
p906
I1
sVczw4294
p907
I1
sVd3rsbc7
p908
I1
sVd9spoo7
p909
I1
sVdqylfzf
p910
I1
sVd8vcoze
p911
I1
sVdj2b4ci
p912
I1
sVdjmu27k
p913
I1
sVdh79bt1
p914
I1
sVd9cexsk
p915
I1
sVczxw9ny
p916
I1
sVd6qy10l
p917
I1
sVd3akfob
p918
I1
sVddwz8nl
p919
I1
sVdfk9zd2
p920
I1
sVdjsibmq
p921
I1
sVdooxpcy
p922
I1
sVd7x2d6g
p923
I1
sVdc38hx9
p924
I3
sVcyjw5ot
p925
I1
sVd9tnzlw
p926
I1
sVdcf5o2j
p927
I2
sVd27ezr8
p928
I1
sVd3zjbmy
p929
I1
sVdaehcnh
p930
I1
sVd743tkt
p931
I1
sVd2yokg7
p932
I2
sVcyz4c54
p933
I1
sVcysdvtd
p934
I2
sVdqfgjo9
p935
I1
sVddudtt6
p936
I1
sVdmsc8ny
p937
I1
sVdidy03l
p938
I2
sVdrpu3r8
p939
I1
sVdhicgiy
p940
I1
sVd4eggzj
p941
I1
sVd23y9ej
p942
I1
sVd5a0jsv
p943
I1
sVdgmwc7p
p944
I2
sVd3rvzea
p945
I1
sVd0blfm1
p946
I1
sVd314c6d
p947
I4
sVd6t4e5t
p948
I1
sVd5kdba6
p949
I1
sVd2149zn
p950
I1
sVd2r103c
p951
I1
sVdg2w8oy
p952
I1
sVdbddez4
p953
I2
sVcyqfbg0
p954
I1
sVcyqdz0j
p955
I1
sVdf4g2n6
p956
I2
sVd1xrqq8
p957
I1
sVd4ycntl
p958
I1
sVdd8vcr0
p959
I1
sVdj503u2
p960
I1
sVd9grdhc
p961
I1
sVdifrxxs
p962
I2
sVd9nucwc
p963
I4
sVd20j6t0
p964
I1
sVd72fqiz
p965
I2
sVdefipmu
p966
I1
sVd77f2gm
p967
I1
sVdncr9ts
p968
I1
sVd4zb37f
p969
I1
sVd79z16n
p970
I2
sVdpawqii
p971
I1
sVczyy8r4
p972
I2
sVdnl6a3l
p973
I4
sVd0nj362
p974
I1
sVdhktygy
p975
I1
sVd0tmkiw
p976
I1
sVczmdxi7
p977
I2
sVd2m1e21
p978
I1
sVdgr2frl
p979
I1
sVd3ginah
p980
I1
sVdisyyo8
p981
I1
sVdbiczx2
p982
I1
sVczppvgj
p983
I1
sVd5cfcuq
p984
I1
sVd8245n3
p985
I2
sVdqk5cbn
p986
I1
sVd4qrai0
p987
I1
sVdkoxqmh
p988
I1
sVd2yrosh
p989
I1
sVdgofiyh
p990
I1
sVdnp96tr
p991
I1
sVdbkm893
p992
I1
sVdmwr6pt
p993
I1
sVdaxsgqd
p994
I1
sVdcbw4gw
p995
I1
sVd0h23qu
p996
I1
sVdd9vm0j
p997
I1
sVd3hegr4
p998
I1
sVdadtgeq
p999
I2
sVdjp6g99
p1000
I1
sVdmg2cda
p1001
I1
sVdh0pwa5
p1002
I1
sVdkpto99
p1003
I1
sVd62kswa
p1004
I1
sVd0slogt
p1005
I1
sVdfu1ig5
p1006
I2
sVd1pj5sq
p1007
I1
sVd08gmwk
p1008
I12
sVdpvscq5
p1009
I1
sVd61w4az
p1010
I1
sVdn4apz1
p1011
I1
sVdn0952y
p1012
I4
sVd6zzcz9
p1013
I1
sVdcgk6f6
p1014
I1
sVczqjnbq
p1015
I1
sVd43ipox
p1016
I1
sVd0emwmw
p1017
I1
sVdjviuqu
p1018
I1
sVczbep5e
p1019
I3
sVdn1js61
p1020
I1
sVdqpymit
p1021
I1
sVd43oome
p1022
I1
sVd5svavk
p1023
I2
sVd0igpqo
p1024
I1
sVd4tvldt
p1025
I1
sVdcg08ea
p1026
I1
sVd2fvi0p
p1027
I1
sVdf7ji22
p1028
I1
sVd455abt
p1029
I1
sVd2klyfr
p1030
I1
sVdo2oq76
p1031
I1
sVdabu3ii
p1032
I1
sVdrxvkp2
p1033
I1
sVdijxlp1
p1034
I6
sVczvakkp
p1035
I1
sVd5ag67d
p1036
I1
sVdomucd7
p1037
I1
sVczsw0hy
p1038
I1
sVd2pbm7u
p1039
I1
sVde749f8
p1040
I1
sVd609bu2
p1041
I1
sVd6hm28s
p1042
I1
sVdixqqgk
p1043
I1
sVdmpkan4
p1044
I8
sVdqgqjil
p1045
I1
sVd6zp3rj
p1046
I1
sVdhrqosu
p1047
I1
sVdt2oesi
p1048
I1
sVd8lll24
p1049
I2
sVdnqr32v
p1050
I1
sVd4gjdez
p1051
I1
s.