(dp0
Vdp8i9ix
p1
I1
sVdqkbdt5
p2
I1
sVdku0kjp
p3
I1
sVdjz2cp4
p4
I1
sVd0z78fj
p5
I1
sVd9xz63m
p6
I1
sVddfr33e
p7
I1
sVderqv2l
p8
I1
sVd7rhz2z
p9
I1
sVdpsen4z
p10
I1
sVd1xewxa
p11
I1
sVd1w86da
p12
I1
sVd4czp3h
p13
I1
s.