(dp0
Vdclb2h6
p1
I1
sVdiiabki
p2
I1
sVdifjyz7
p3
I2
sVdb72fiz
p4
I1
sVd4zkkhv
p5
I1
sVdcdbffx
p6
I1
sVd37e91v
p7
I1
sVd6tu0kt
p8
I1
sVczjy20d
p9
I1
sVdoy3oqz
p10
I1
sVdjaanjs
p11
I8
sVdb70g9v
p12
I1
sVdfg9o8c
p13
I1
sVd40w3rq
p14
I1
sVdcq1z89
p15
I1
s.