(dp0
Vcyljc0y
p1
I1
s.(dp0
Vcyp288w
p1
I1
sVcyljc0y
p2
I1
s.(dp0
Vcyp288w
p1
I1
sVcyljc0y
p2
I1
s.(dp0
Vcyr0v2x
p1
I1
sVcyljc0y
p2
I1
s.(dp0
Vcyt93yo
p1
I1
sVcyljc0y
p2
I1
s.(dp0
Vcyt93yo
p1
I1
sVcyljc0y
p2
I1
s.(dp0
Vcyu70g6
p1
I1
sVcyljc0y
p2
I1
s.(dp0
Vcyvbod9
p1
I1
sVcyljc0y
p2
I1
s.(dp0
Vcz190aa
p1
I1
sVcyljc0y
p2
I1
s.(dp0
Vcz1lxm3
p1
I1
sVcyljc0y
p2
I1
s.(dp0
Vcz68jhv
p1
I1
sVcyljc0y
p2
I1
s.(dp0
Vcz6prl9
p1
I1
sVcyljc0y
p2
I1
s.(dp0
Vczae3my
p1
I1
sVcyljc0y
p2
I1
s.(dp0
Vczbp56n
p1
I1
sVcyljc0y
p2
I1
s.(dp0
Vczc3man
p1
I1
sVcyljc0y
p2
I1
s.(dp0
Vczce5q7
p1
I1
sVcyljc0y
p2
I1
s.(dp0
Vczgmh5e
p1
I1
sVcyljc0y
p2
I1
s.(dp0
Vczgondn
p1
I1
sVcyljc0y
p2
I1
s.(dp0
Vczsvzjc
p1
I1
sVcyljc0y
p2
I1
s.(dp0
Vczubipi
p1
I1
sVcyljc0y
p2
I1
s.(dp0
Vczubipi
p1
I1
sVcyljc0y
p2
I1
s.(dp0
Vczw1uat
p1
I1
sVcyljc0y
p2
I1
s.(dp0
Vd0rr2sg
p1
I1
sVcyljc0y
p2
I1
s.(dp0
Vd0rucsq
p1
I1
sVcyljc0y
p2
I1
s.(dp0
Vd0wnvfl
p1
I1
sVcyljc0y
p2
I1
s.(dp0
Vd11fhiz
p1
I1
sVcyljc0y
p2
I1
s.(dp0
Vd13znb5
p1
I1
sVcyljc0y
p2
I1
s.(dp0
Vd14ghj4
p1
I1
sVcyljc0y
p2
I1
s.(dp0
Vd14qtiq
p1
I1
sVcyljc0y
p2
I1
s.(dp0
Vd15obnf
p1
I1
sVcyljc0y
p2
I1
s.(dp0
Vd18u2dm
p1
I1
sVcyljc0y
p2
I1
s.(dp0
Vd1vkk7e
p1
I1
sVcyljc0y
p2
I1
s.(dp0
Vd1wamra
p1
I1
sVcyljc0y
p2
I1
s.(dp0
Vd1yj3d9
p1
I1
sVcyljc0y
p2
I1
s.(dp0
Vd21bm82
p1
I1
sVcyljc0y
p2
I1
s.(dp0
Vd2byrpp
p1
I1
sVcyljc0y
p2
I1
s.(dp0
Vd2byrpp
p1
I1
sVcyljc0y
p2
I1
s.(dp0
Vd2cczns
p1
I1
sVcyljc0y
p2
I1
s.(dp0
Vd2py0sn
p1
I1
sVcyljc0y
p2
I1
s.(dp0
Vd2qzsyw
p1
I1
sVcyljc0y
p2
I1
s.(dp0
Vd2qzsyw
p1
I1
sVcyljc0y
p2
I1
s.(dp0
Vd3112py
p1
I1
sVcyljc0y
p2
I1
s.(dp0
Vd344m12
p1
I1
sVcyljc0y
p2
I1
s.(dp0
Vd344m12
p1
I1
sVcyljc0y
p2
I1
s.(dp0
Vd36cphu
p1
I1
sVcyljc0y
p2
I1
s.(dp0
Vd38592i
p1
I1
sVcyljc0y
p2
I1
s.(dp0
Vd3atr60
p1
I1
sVcyljc0y
p2
I1
s.(dp0
Vd3kcqdj
p1
I1
sVcyljc0y
p2
I1
s.(dp0
Vd40wbel
p1
I1
sVcyljc0y
p2
I1
s.(dp0
Vd4ghphb
p1
I1
sVcyljc0y
p2
I1
s.(dp0
Vd4lpjcm
p1
I1
sVcyljc0y
p2
I1
s.(dp0
Vd4nn6hl
p1
I1
sVcyljc0y
p2
I1
s.(dp0
Vd538lgg
p1
I1
sVcyljc0y
p2
I1
s.(dp0
Vd56h822
p1
I1
sVcyljc0y
p2
I1
s.(dp0
Vd56k0bp
p1
I1
sVcyljc0y
p2
I1
s.(dp0
Vd57wp8m
p1
I1
sVcyljc0y
p2
I1
s.(dp0
Vd5rtuf9
p1
I1
sVcyljc0y
p2
I1
s.(dp0
Vd5tbxvc
p1
I1
sVcyljc0y
p2
I1
s.(dp0
Vd5tbxvc
p1
I1
sVcyljc0y
p2
I1
s.(dp0
Vd7hpp4v
p1
I1
sVcyljc0y
p2
I1
s.(dp0
Vd7jwc4j
p1
I1
sVcyljc0y
p2
I1
s.(dp0
Vd8ery0t
p1
I1
sVcyljc0y
p2
I1
s.(dp0
Vd903bsf
p1
I1
sVcyljc0y
p2
I1
s.(dp0
Vd90pk1u
p1
I1
sVcyljc0y
p2
I1
s.(dp0
Vd95q4ca
p1
I1
sVcyljc0y
p2
I1
s.(dp0
Vd98p2lu
p1
I1
sVcyljc0y
p2
I1
s.(dp0
Vd9awwqn
p1
I1
sVcyljc0y
p2
I1
s.(dp0
Vd9awwqn
p1
I1
sVcyljc0y
p2
I1
s.(dp0
Vd9hbvo8
p1
I1
sVcyljc0y
p2
I1
s.(dp0
Vd9i003w
p1
I1
sVcyljc0y
p2
I1
s.(dp0
Vda7zqto
p1
I1
sVcyljc0y
p2
I1
s.(dp0
Vdaa5pk4
p1
I1
sVcyljc0y
p2
I1
s.(dp0
Vdarf09v
p1
I1
sVcyljc0y
p2
I1
s.(dp0
Vdb3aiqw
p1
I1
sVcyljc0y
p2
I1
s.(dp0
Vdb3nfzd
p1
I1
sVcyljc0y
p2
I1
s.(dp0
Vdb6p57q
p1
I1
sVcyljc0y
p2
I1
s.(dp0
Vdbwcm2a
p1
I1
sVcyljc0y
p2
I1
s.(dp0
Vdc3a4m5
p1
I1
sVcyljc0y
p2
I1
s.(dp0
Vdc3ogi7
p1
I1
sVcyljc0y
p2
I1
s.(dp0
Vdc9c9d5
p1
I1
sVcyljc0y
p2
I1
s.(dp0
Vdcayien
p1
I1
sVcyljc0y
p2
I1
s.(dp0
Vdchx3b0
p1
I1
sVcyljc0y
p2
I1
s.(dp0
Vdcwamxn
p1
I1
sVcyljc0y
p2
I1
s.(dp0
Vdczbf3h
p1
I1
sVcyljc0y
p2
I1
s.(dp0
Vdd6yyuu
p1
I1
sVcyljc0y
p2
I1
s.(dp0
Vdd7ihgx
p1
I1
sVcyljc0y
p2
I1
s.(dp0
Vddcol7i
p1
I1
sVcyljc0y
p2
I1
s.(dp0
Vdddoea5
p1
I1
sVcyljc0y
p2
I1
s.(dp0
Vddezlfv
p1
I1
sVcyljc0y
p2
I1
s.(dp0
Vddx3p2h
p1
I1
sVcyljc0y
p2
I1
s.(dp0
Vddx3p2h
p1
I1
sVcyljc0y
p2
I1
s.(dp0
Vddz03bv
p1
I1
sVcyljc0y
p2
I1
s.(dp0
Vde1m1yw
p1
I1
sVcyljc0y
p2
I1
s.(dp0
Vde35921
p1
I1
sVcyljc0y
p2
I1
s.(dp0
Vde7mw3j
p1
I1
sVcyljc0y
p2
I1
s.(dp0
Vdei8pui
p1
I1
sVcyljc0y
p2
I1
s.(dp0
Vdel9wd0
p1
I1
sVcyljc0y
p2
I1
s.(dp0
Vdf5gb7b
p1
I1
sVcyljc0y
p2
I1
s.(dp0
Vdf5s1yd
p1
I1
sVcyljc0y
p2
I1
s.(dp0
Vdf8oxnd
p1
I1
sVcyljc0y
p2
I1
s.(dp0
Vdf9p9f7
p1
I1
sVcyljc0y
p2
I1
s.(dp0
Vdfb0gca
p1
I1
sVcyljc0y
p2
I1
s.(dp0
Vdfghul0
p1
I1
sVcyljc0y
p2
I1
s.(dp0
Vdfmno40
p1
I1
sVcyljc0y
p2
I1
s.(dp0
Vdfs8ye0
p1
I1
sVcyljc0y
p2
I1
s.(dp0
Vdg8oq0z
p1
I1
sVcyljc0y
p2
I1
s.(dp0
Vdg8oq0z
p1
I1
sVcyljc0y
p2
I1
s.(dp0
Vdgdzfw7
p1
I1
sVcyljc0y
p2
I1
s.(dp0
Vdg(dp0
Vdt8okup
p1
I1
sVcyljc0y
p2
I1
s.