(dp0
Vd64gp9n
p1
I1
sVdhxi4f7
p2
I1
sVdk5zcxs
p3
I1
sVdftgtoz
p4
I1
sVdbck8sk
p5
I1
sVczrpe52
p6
I1
sVdfltzjl
p7
I1
sVdimh7sy
p8
I1
sVdikfh37
p9
I1
sVczwtyzj
p10
I1
sVd43rlc4
p11
I1
sVdivtega
p12
I1
sVdjzc34k
p13
I1
sVd1fts6u
p14
I1
sVdduw6qn
p15
I1
sVdawpif5
p16
I1
sVddxbz6p
p17
I1
sVd0gw9rk
p18
I1
sVd026g2o
p19
I1
sVd9cvy2y
p20
I1
sVd3j75e4
p21
I1
sVdnov6pw
p22
I1
sVdo9hgsg
p23
I1
sVdgqfe6s
p24
I1
sVd2c13pl
p25
I1
sVdk8attw
p26
I1
sVdc8yae8
p27
I1
sVdig4c7v
p28
I1
sVdb7oxbx
p29
I1
sVd73tp2l
p30
I1
sVdd3e5iu
p31
I1
sVde8cpk3
p32
I1
sVd2xx0qq
p33
I1
sVczeh734
p34
I1
sVczov4le
p35
I1
sVds5cxuf
p36
I1
sVdjvphli
p37
I1
sVd1hgge5
p38
I1
sVd1tqkhm
p39
I1
sVdi7bl8g
p40
I1
sVd8gc56w
p41
I1
sVdb3ogzg
p42
I1
sVdfmx6fu
p43
I1
sVd13mbyq
p44
I1
sVd2z5awy
p45
I1
sVdqgzqut
p46
I1
sVdf2vz5i
p47
I1
sVd0pa1ix
p48
I1
sVdqxyo7r
p49
I1
s.