(dp0
Vdssrurm
p1
I1
sVdqdj6e8
p2
I1
sVd1zioaf
p3
I1
sVdhuy02v
p4
I1
sVd7j59yg
p5
I1
sVdn10d5h
p6
I6
sVd5meoob
p7
I1
sVdbwuek6
p8
I1
sVd815dbc
p9
I1
sVd5o160b
p10
I1
sVd060wg2
p11
I1
sVdozpr7r
p12
I1
sVd3xtuud
p13
I1
sVdfe37uh
p14
I1
sVdmi0iep
p15
I1
sVdbxwadu
p16
I1
sVdi4blxg
p17
I1
sVd7m7nmu
p18
I1
sVd83k9o1
p19
I1
sVdex2whv
p20
I1
sVdf7ua1r
p21
I1
sVdjb3zk6
p22
I1
sVdj1yh0e
p23
I2
sVdrtabdp
p24
I1
sVdclf5ug
p25
I1
sVdmuaaw1
p26
I1
sVd14unmw
p27
I1
sVd0yk3l8
p28
I1
sVcym6icm
p29
I1
sVdn0ejjb
p30
I2
sVdbn20l0
p31
I1
sVd2eqrid
p32
I1
sVdmks5g3
p33
I1
sVdhgqj13
p34
I1
sVdsfaeio
p35
I1
sVd0fn58f
p36
I1
sVd2h9akg
p37
I1
sVdgwpqox
p38
I1
sVczn3033
p39
I1
sVdb8juuy
p40
I1
sVd3zhliq
p41
I1
sVd8d68h2
p42
I1
sVczybnxg
p43
I1
sVd8t9dln
p44
I1
sVd49fq6u
p45
I1
sVdc1kqo1
p46
I1
sVdgahl7k
p47
I1
sVdaelgqy
p48
I1
sVdfimkcx
p49
I1
sVczod8iv
p50
I1
sVdiyrkp1
p51
I1
sVdjdgjdp
p52
I1
sVd65dx7y
p53
I1
sVdogcooe
p54
I1
sVdmra3a1
p55
I1
sVdjgs9fi
p56
I1
sVd9b8q88
p57
I1
sVcyprruj
p58
I1
sVdcdmoqm
p59
I1
sVd3ci6yg
p60
I1
sVcyp3p9l
p61
I1
sVdh5wx16
p62
I1
sVdf571y7
p63
I1
sVdiidfsk
p64
I1
sVd8hfkia
p65
I3
sVdc9ot9h
p66
I2
sVdnx3wlv
p67
I1
sVd450rv6
p68
I1
sVd7stxnq
p69
I2
sVdgcdf5g
p70
I1
sVd8ygt1q
p71
I2
sVd2x0qqt
p72
I1
sVd1sm7ea
p73
I1
sVd7lsruz
p74
I1
sVddy5t6j
p75
I1
sVd9lmf6v
p76
I1
sVczp171c
p77
I1
sVdcuodaj
p78
I1
sVdg3dmk5
p79
I1
sVd0dkjmn
p80
I1
sVd7nyq8u
p81
I1
sVdqt3x9v
p82
I1
sVdcp95b8
p83
I1
sVdczjfid
p84
I1
sVdofz117
p85
I1
sVdg6nfr9
p86
I1
sVd9lp8oy
p87
I1
sVczxmipa
p88
I1
sVdodv672
p89
I1
sVdge0yze
p90
I1
sVdbsfzvr
p91
I1
sVdfj4p31
p92
I1
sVd0t8hzp
p93
I1
sVdiwf2j2
p94
I1
sVdg7ysh2
p95
I1
sVdbbu2kg
p96
I1
sVd80mrx0
p97
I1
sVdinnx9i
p98
I1
sVcyismi6
p99
I1
sVdnevqam
p100
I1
sVd8nu6ir
p101
I3
sVds6jjfx
p102
I1
sVdf1m6u5
p103
I1
sVde3n5qv
p104
I1
sVd8syvg9
p105
I1
sVd1x5139
p106
I1
sVdf3bqeb
p107
I1
sVds6jk5z
p108
I1
sVd8tlhgm
p109
I1
sVd3negvv
p110
I1
sVd76skhm
p111
I1
sVdehfoyl
p112
I1
sVd9liuag
p113
I1
sVdaoqe7k
p114
I1
sVdr6mzl4
p115
I1
sVdskt0fy
p116
I1
sVcyjdoqp
p117
I1
sVd16tsfy
p118
I1
sVdqlbkpb
p119
I1
sVdqmrqff
p120
I1
sVdfmy422
p121
I2
sVdatr6uk
p122
I1
sVd294dw0
p123
I1
sVdkfwpws
p124
I1
sVdfone8n
p125
I1
sVd8ngni9
p126
I1
sVdgh8q0g
p127
I1
sVd9n8hjp
p128
I1
sVd5emqte
p129
I1
sVdg79spt
p130
I1
sVcz3g0tz
p131
I1
sVdc5qmye
p132
I1
sVd8k4oy4
p133
I1
sVdi1uirk
p134
I1
sVczpnlcp
p135
I1
sVdn3942x
p136
I1
sVd466tul
p137
I1
sVdjh5q8j
p138
I1
sVde8uam9
p139
I1
sVdcc74in
p140
I1
sVdgesqxx
p141
I1
sVdoyt2nf
p142
I1
sVd9bkzh3
p143
I1
sVczl264f
p144
I1
sVddv0z5f
p145
I1
sVdqq2hqc
p146
I1
sVdgt3pd2
p147
I1
sVd1cs7ju
p148
I1
sVd2ejbm0
p149
I1
sVdffszxn
p150
I1
sVdekdbpr
p151
I1
sVdew8qs6
p152
I1
sVdhnc2ye
p153
I1
sVdsi9thg
p154
I1
sVdcpruvc
p155
I1
sVd9nzutr
p156
I1
sVdsmyvvf
p157
I1
sVdj37a60
p158
I1
sVd44vke8
p159
I1
sVd9yp9zi
p160
I1
sVcz41jsz
p161
I1
sVdqavoch
p162
I1
sVd5899z6
p163
I1
sVdorvsn7
p164
I1
sVdbgqi26
p165
I1
sVdnp9eep
p166
I6
sVcyo74m4
p167
I1
sVdezxkva
p168
I1
sVdfj7yse
p169
I1
sVczyq4c0
p170
I1
sVdp0he3i
p171
I1
sVd0lv4g9
p172
I1
sVczxk3ep
p173
I1
sVd22ufwg
p174
I1
sVdbqtwox
p175
I1
sVdjmpcfy
p176
I2
sVdeigqw3
p177
I1
sVd30qdqd
p178
I1
sVdsaa9fs
p179
I1
sVdnp9o7t
p180
I2
sVdq6q8ap
p181
I1
sVd18s94g
p182
I1
sVcyljd92
p183
I1
sVd4yfm3v
p184
I1
sVd3e0kmi
p185
I1
sVd1o2jom
p186
I1
sVdbwrc3f
p187
I2
sVdrbfuot
p188
I1
sVdac2l1y
p189
I1
sVddwvzch
p190
I4
sVd7bi8no
p191
I1
sVd00gjfy
p192
I1
sVdebms3e
p193
I1
sVder7ad7
p194
I1
sVdg5qw49
p195
I1
sVdcoatu6
p196
I1
sVdjeh25m
p197
I1
sVd2asvdm
p198
I1
sVdqdhg94
p199
I3
sVcys77cw
p200
I1
s.