(dp0
Vd8g04ef
p1
I2
sVddtqyb5
p2
I2
sVdng8x9f
p3
I1
sVdi4k60g
p4
I1
sVd4lteov
p5
I1
sVd2nilp0
p6
I1
sVd738c83
p7
I1
sVd3qt6xv
p8
I1
sVdhrhfjy
p9
I1
sVda5gd6l
p10
I1
sVdhnuoo3
p11
I1
sVd0gopmc
p12
I1
sVdatr1st
p13
I1
sVd9kawa8
p14
I1
sVds0jwss
p15
I1
sVdpi7234
p16
I1
s.