(dp0
Vdpfyyyh
p1
I1
sVdoij8c1
p2
I1
sVdilzk9l
p3
I1
sVdryaumn
p4
I1
sVczweodw
p5
I2
sVd2xayd8
p6
I1
sVd9tnsn2
p7
I1
sVd6j6vin
p8
I1
sVdodm1o2
p9
I1
sVda6h4pm
p10
I1
sVd9mr3e2
p11
I1
sVd18uasw
p12
I1
sVd6dnd7k
p13
I1
sVd79wi4a
p14
I1
sVd7ib2sm
p15
I1
sVdfxk9w4
p16
I1
sVdijsyi5
p17
I1
sVd35y8w6
p18
I1
sVcz887ss
p19
I1
sVdp7nt6g
p20
I1
sVdajpvh7
p21
I1
sVdp9sxpv
p22
I1
sVd9nvhit
p23
I1
sVdjzgzwl
p24
I1
sVdk3jtt4
p25
I1
sVdafh3xr
p26
I1
sVdo2ylcx
p27
I1
sVdo81zo0
p28
I1
sVdc05j5e
p29
I1
sVdndrh5i
p30
I1
sVdddpsb9
p31
I1
sVdjv31v8
p32
I1
sVdhtu8cg
p33
I1
sVdokigs2
p34
I1
sVd53vy2g
p35
I1
sVdrc0es9
p36
I1
sVd2c89lx
p37
I1
sVdi2m6kp
p38
I1
sVdbh2it9
p39
I1
sVd821gpq
p40
I1
sVd0am6pv
p41
I2
sVd1oh637
p42
I1
sVdssbxex
p43
I1
sVd12npsh
p44
I1
sVdj3tur4
p45
I2
sVdb6pqn4
p46
I1
sVdgvijcc
p47
I1
sVdewtoxj
p48
I1
sVdq6majw
p49
I1
sVdms5jz2
p50
I1
sVd7j9utd
p51
I1
sVd0ejefc
p52
I1
sVczn7i2k
p53
I1
sVdiohcze
p54
I1
sVcytb69d
p55
I1
sVdksvpig
p56
I1
sVdeswurg
p57
I1
sVddwj7gs
p58
I1
sVczj4a63
p59
I1
sVczdr371
p60
I1
sVd37ytd3
p61
I1
sVdfp50aq
p62
I1
sVd59hwg6
p63
I1
sVdo28cb0
p64
I1
sVd7nzeev
p65
I1
sVdfqldat
p66
I1
sVd7yh0so
p67
I1
sVd5mu2ut
p68
I1
sVdho7nq5
p69
I1
sVdeoy2m6
p70
I1
sVd92v6a3
p71
I1
sVd0h7m1o
p72
I1
sVde83djy
p73
I1
sVd312yvz
p74
I1
sVczadewp
p75
I1
sVdp1iydz
p76
I1
sVd2b38hk
p77
I1
sVd3zijus
p78
I2
sVdrl5jdf
p79
I1
sVd09rtev
p80
I1
sVd4m6dbj
p81
I1
sVdg8k20w
p82
I1
sVd2mycoq
p83
I1
sVdiaf6yf
p84
I1
sVcynsojw
p85
I1
sVd0qu3je
p86
I1
sVdsa9y7v
p87
I1
sVdftwviu
p88
I1
sVd7g871p
p89
I1
sVd4tau9m
p90
I1
sVdik9wsz
p91
I1
sVdq6g1wm
p92
I1
sVdi38y2k
p93
I1
sVd1yhkjj
p94
I1
sVdh59fm0
p95
I1
sVd3pgkvp
p96
I1
sVd43tycw
p97
I1
sVdbgv1j7
p98
I1
sVdn1fqte
p99
I2
sVd62j4d5
p100
I1
sVcyo0xyp
p101
I1
sVd8kr1e1
p102
I1
sVddv4ym4
p103
I1
sVdqjmu5k
p104
I1
sVdc6r3r8
p105
I1
sVdq70exj
p106
I1
sVdozb8en
p107
I1
sVdn6fseg
p108
I1
sVdgw1nb1
p109
I1
sVdnildt5
p110
I1
sVczweohu
p111
I1
sVdnoivl9
p112
I1
sVcyv5eut
p113
I1
s.