(dp0
Vd1qo2bb
p1
I1
sVdcpqys2
p2
I1
sVd3cy91c
p3
I1
sVd77ke4u
p4
I1
sVdc7c1oi
p5
I1
sVd1n2scm
p6
I1
sVd8ctnn9
p7
I1
sVdc46m14
p8
I1
sVdgamkd7
p9
I1
sVdbek6yj
p10
I1
sVdj7c8b1
p11
I1
sVdo55jt0
p12
I1
sVd2ukkhr
p13
I2
sVdo6tu22
p14
I1
sVd7xdl66
p15
I1
sVd4okozw
p16
I2
sVd2dfmw0
p17
I1
sVdoucads
p18
I1
sVd1pg6u6
p19
I1
sVdqd9e15
p20
I1
sVdhznmpp
p21
I1
sVd9y977i
p22
I1
sVcz9zgdf
p23
I1
sVdjcmiw2
p24
I1
sVd45nfus
p25
I1
sVdk4a4g2
p26
I1
sVd1gri22
p27
I1
sVd6227h9
p28
I1
sVd0n7ye0
p29
I1
sVdqjuhew
p30
I1
sVda82xss
p31
I1
sVd6eopyq
p32
I2
sVcz0x9s3
p33
I1
sVdj5bck2
p34
I1
sVd8450wx
p35
I1
sVdamhai5
p36
I1
sVdjstug4
p37
I1
sVdcciwvt
p38
I1
sVdsvcabz
p39
I2
sVdmvdpjb
p40
I1
sVd9b6jj5
p41
I2
sVd5wuprd
p42
I1
sVdi9ncmi
p43
I1
sVdf7ituv
p44
I2
sVczpgsaq
p45
I1
sVczejl3g
p46
I1
sVdj38ptv
p47
I1
sVdc7c58x
p48
I1
sVcznz8bc
p49
I1
sVdpxzd0f
p50
I1
sVd6wxaw0
p51
I1
sVdbjgh2m
p52
I1
sVdcoezrn
p53
I1
sVd69nmhh
p54
I1
sVcyumrrb
p55
I2
sVdhta5la
p56
I1
sVd0qa3uj
p57
I1
sVdh71rt9
p58
I1
sVd7bz6tf
p59
I1
sVd7c23rh
p60
I1
sVdnhy84g
p61
I1
sVczacwty
p62
I1
sVdaa6fjw
p63
I1
sVd6lbw7c
p64
I1
sVdq3v5i8
p65
I1
sVd5p7f1y
p66
I1
sVd7bz4x0
p67
I1
sVdj4qqk5
p68
I1
sVd1lxpg4
p69
I1
sVd8g6n1w
p70
I1
sVd2ifnu1
p71
I1
sVd1ybbly
p72
I1
sVda8s83u
p73
I1
sVdbpyffj
p74
I4
sVd74jlup
p75
I2
sVdjvq7ch
p76
I1
sVdo2zddj
p77
I1
sVdfd22zm
p78
I1
sVdbo68ef
p79
I1
sVdpjykxk
p80
I1
sVdfbyekt
p81
I1
sVd1z6y8h
p82
I2
sVd4u8yro
p83
I1
sVdpbsn4e
p84
I1
sVdkcrry7
p85
I1
sVdk4hk8d
p86
I1
sVdkt4r4a
p87
I1
sVdagranq
p88
I1
sVdjhqmko
p89
I1
sVdg9lqr4
p90
I1
sVdmt1l7p
p91
I1
sVdjwvsma
p92
I1
sVdk3qjny
p93
I1
sVcyvahgw
p94
I1
sVdci6hyt
p95
I1
sVd1xl3xh
p96
I1
sVddw98kh
p97
I1
sVdbk11g4
p98
I1
sVd2klp86
p99
I1
sVdolm374
p100
I4
sVd56xss0
p101
I1
sVdf841xv
p102
I1
sVd27sp25
p103
I1
sVd71oeo3
p104
I1
sVd0sxnb9
p105
I1
sVd4bis2o
p106
I1
sVdiot0wd
p107
I1
sVdgxg3c7
p108
I2
sVdpiyzvq
p109
I1
sVdggsuq2
p110
I1
sVdjuq0uk
p111
I1
sVd522que
p112
I1
sVd8y9jka
p113
I1
sVd61fz8l
p114
I1
sVd80t0f0
p115
I1
sVd2gbw1u
p116
I1
sVdpq50wt
p117
I1
sVd3ie1hl
p118
I1
sVdg2n9yz
p119
I1
sVde31czj
p120
I1
sVdhqrg7w
p121
I1
sVdqnkfde
p122
I1
sVdeigdxq
p123
I1
sVde0onoj
p124
I1
sVcyp5odn
p125
I1
sVdi6jtzb
p126
I1
sVdb7dctu
p127
I1
sVdqe57f1
p128
I1
sVdi123ea
p129
I1
sVd2l057v
p130
I1
sVdb5md9e
p131
I1
sVdi0wdb3
p132
I1
sVd01fhfn
p133
I1
sVdc9wrib
p134
I2
sVdqllx58
p135
I1
sVd81z0en
p136
I2
sVdidic6n
p137
I1
sVdnuzptg
p138
I1
sVdc1gwpw
p139
I1
sVd67t0nc
p140
I1
sVdo1t7tt
p141
I1
sVdejfi46
p142
I1
sVd6ucf8k
p143
I1
sVd44jys3
p144
I1
sVd2i4cup
p145
I1
sVdhk45gu
p146
I1
sVdk0e9vp
p147
I1
sVdq8ennv
p148
I1
sVd1ma0vf
p149
I1
sVd9blss9
p150
I1
sVdp07on1
p151
I1
sVdhnxgmq
p152
I1
sVdkmbsq1
p153
I1
sVda6xyte
p154
I1
sVd5hudvl
p155
I1
sVd18raqu
p156
I1
sVdqr7s6t
p157
I1
sVd5swc71
p158
I1
sVdhgaiqk
p159
I1
sVdeuaj0a
p160
I2
sVd8kry7z
p161
I2
sVdstbgef
p162
I1
sVdjxa5ud
p163
I1
sVda82l70
p164
I1
sVcz5p9f3
p165
I2
sVddfvv4o
p166
I1
sVdb0hi8j
p167
I1
sVcz3rtvb
p168
I1
sVdrvfu49
p169
I1
sVdhi8m7p
p170
I1
sVdevm9uz
p171
I1
sVdn892w5
p172
I1
sVd7tck2m
p173
I1
sVd34lfmb
p174
I1
sVd4j4f1n
p175
I1
sVdoupuoe
p176
I1
sVdat1iaa
p177
I3
sVdenzyn1
p178
I2
sVdrwzfyo
p179
I1
sVdkvrlo8
p180
I1
sVd7uwvhh
p181
I1
sVd9e8q4m
p182
I2
sVd5p1x9k
p183
I1
sVdsbj6kq
p184
I2
sVd4b79lx
p185
I1
sVd8ncj76
p186
I1
sVdjkqgce
p187
I1
sVdk0lwpu
p188
I1
sVdebclwv
p189
I1
sVd0tunyh
p190
I1
sVdjcyki7
p191
I1
sVd1dhu30
p192
I1
sVd159nwt
p193
I1
sVdjityel
p194
I1
sVczz74nt
p195
I1
sVd0ny3ws
p196
I1
sVd8hwy74
p197
I1
sVdg5ahic
p198
I3
sVdhu5icz
p199
I1
sVdpxclrj
p200
I1
sVdpietq9
p201
I4
sVdi3ldp8
p202
I4
sVdcshasl
p203
I1
sVdja5k9l
p204
I1
sVd8dy4qr
p205
I1
sVd3gqg3j
p206
I1
sVdes9eqp
p207
I1
sVdg98ajg
p208
I1
sVd5kohoc
p209
I1
sVdsrjfod
p210
I1
sVd18lii2
p211
I1
sVdabjkwd
p212
I1
sVdd6dxwq
p213
I1
sVd8347me
p214
I2
sVd60x1or
p215
I1
sVdrf62po
p216
I1
sVd7x5egw
p217
I1
sVd3zxlzf
p218
I1
sVd82f640
p219
I1
sVdmnvzsh
p220
I1
sVd8pyd60
p221
I1
sVdaml105
p222
I1
sVd8j73x5
p223
I1
sVdisyx42
p224
I1
sVdh5w906
p225
I1
sVd9bt1ky
p226
I1
sVdndl5ut
p227
I1
sVdkowlfa
p228
I1
sVdb0tbdd
p229
I1
sVd01gf32
p230
I1
sVdh82cfc
p231
I1
sVdbyf6rc
p232
I1
sVdpfgq7s
p233
I1
sVd8lx4iw
p234
I1
sVd0w2euq
p235
I1
sVddpv21b
p236
I1
sVdon3wjq
p237
I1
sVd50smxq
p238
I1
sVd748mr9
p239
I1
sVdruismy
p240
I1
sVd40drip
p241
I2
sVcyzmnha
p242
I1
sVd0d66qs
p243
I1
sVdeo6e8p
p244
I1
sVd9o49ye
p245
I1
sVdhn6wlx
p246
I1
sVdhjttc7
p247
I1
sVdqtmsrp
p248
I2
sVdq1v25q
p249
I2
sVdrgbjc6
p250
I1
sVd8uw9wl
p251
I1
sVd0ke5se
p252
I1
sVd5lxsj6
p253
I1
sVd6hla9i
p254
I1
sVdbpfq69
p255
I1
sVcys0xcs
p256
I1
sVd2hcrun
p257
I1
sVd1y8dq5
p258
I1
sVd2xt68d
p259
I1
sVd3sfbyr
p260
I1
sVcz5d70m
p261
I1
sVdihkeib
p262
I1
sVd47bswl
p263
I1
sVds9eho8
p264
I1
sVd5mdzjb
p265
I1
sVd0ruorb
p266
I1
sVdbaqq7h
p267
I2
sVd5v3hn4
p268
I2
sVdgdynez
p269
I1
sVd4vw0va
p270
I1
sVdplpte4
p271
I1
sVdsnewqk
p272
I1
sVdd9w1th
p273
I1
sVd5oq6vw
p274
I1
sVdmt09te
p275
I1
sVd3g86uj
p276
I1
sVd0hv449
p277
I1
sVdbybab0
p278
I2
sVdgzme2g
p279
I1
sVdn2kisk
p280
I1
sVdifvq15
p281
I1
sVd1ru5yq
p282
I1
sVdrvky1o
p283
I1
sVdt8x696
p284
I1
sVd62pp6x
p285
I1
sVd1c9j37
p286
I1
sVdjbj7a0
p287
I1
sVcz0lfn9
p288
I1
sVdog7ffw
p289
I1
sVd7lqyby
p290
I1
sVd9nemz8
p291
I1
sVdiyrrn0
p292
I1
sVdi4ralf
p293
I1
sVddwnf0v
p294
I1
sVdnkpqyf
p295
I2
sVdo7br4f
p296
I1
sVd0i2yde
p297
I1
sVd8oxfhz
p298
I1
sVczozf6a
p299
I2
sVd3mh8yo
p300
I1
sVdeuix22
p301
I1
sVcyn9ki4
p302
I3
sVdgfh222
p303
I1
sVd1tg1l3
p304
I1
sVd6dpoe6
p305
I1
sVd4ei0zn
p306
I1
sVczdr371
p307
I1
sVda34hcz
p308
I1
sVd44jj2g
p309
I1
sVd76ohkj
p310
I1
sVdc25h3f
p311
I1
sVdepr090
p312
I1
sVd0w5nlr
p313
I1
sVdr8wicv
p314
I1
sVdicbkpw
p315
I1
sVdtfukj8
p316
I1
sVdbdn4xz
p317
I1
sVd9jbmc1
p318
I1
sVddi2068
p319
I1
sVdmu7h2z
p320
I1
sVd70td1h
p321
I1
sVdj4cvzr
p322
I1
sVdc0xi7z
p323
I1
sVdn1gkt6
p324
I2
sVdo9qf9v
p325
I1
sVdbkxsh9
p326
I1
sVd4l4e3l
p327
I1
sVdj592u6
p328
I1
sVd1kzez8
p329
I1
sVd2d7h1o
p330
I1
sVcykj6vc
p331
I1
sVdi18tf4
p332
I1
sVczacg2c
p333
I1
sVd4q3ssf
p334
I1
sVd6e7iv2
p335
I2
sVdb7o48r
p336
I1
sVdnjyfe3
p337
I1
sVcyk2b8t
p338
I1
sVdhzpsa4
p339
I2
sVd9h1ss6
p340
I1
sVdft1tv6
p341
I1
sVczrt1dj
p342
I1
sVd778lmz
p343
I1
sVdn0esfu
p344
I2
sVdi47qzj
p345
I1
sVdf0uf6g
p346
I1
sVczcbiey
p347
I1
sVdhjhc6n
p348
I1
sVdchkl2c
p349
I1
sVdfhnr7y
p350
I1
sVdoj400j
p351
I1
sVd1pzigc
p352
I1
sVdj0p62c
p353
I1
sVdkkpboy
p354
I1
sVdq70exj
p355
I2
sVd4vgmpd
p356
I1
sVdq2oysu
p357
I1
sVd1zgl0x
p358
I1
sVcyj34nv
p359
I1
sVd260a9e
p360
I3
sVd5g2t4n
p361
I1
sVdmkoiew
p362
I2
sVd5meoob
p363
I1
sVcznb9kv
p364
I1
sVd8hqw7s
p365
I1
sVdmtahbv
p366
I2
sVdnbyisx
p367
I2
sVdj8e4x1
p368
I1
sVd3eq4d9
p369
I1
sVdn4pkyg
p370
I1
sVd1hxfb6
p371
I1
sVdi62lv5
p372
I2
sVd6zahvz
p373
I1
sVdi8p8gl
p374
I1
sVczb8qp2
p375
I1
sVdeyqawv
p376
I1
sVdi5mhqw
p377
I1
sVdhbxfrf
p378
I1
sVdtaf4bi
p379
I1
sVd5w1l8c
p380
I1
sVdjc23gf
p381
I1
sVdj4ztp2
p382
I1
sVdc432n8
p383
I1
sVdeh86yu
p384
I1
sVczm1eib
p385
I1
sVczypitj
p386
I1
sVdry6x0a
p387
I1
sVddfpgn4
p388
I1
sVdbrst9e
p389
I1
sVd80xeh2
p390
I1
sVdgwo60d
p391
I1
sVd1dhbrt
p392
I1
sVdnzfibb
p393
I1
sVdb9ov3z
p394
I1
sVdmf4kcf
p395
I1
sVdc8t5kq
p396
I1
sVdqkinqg
p397
I2
sVd3h20zj
p398
I1
sVdfpw7pe
p399
I1
sVd0vtnfy
p400
I1
sVdmzs0m9
p401
I1
sVd0ykosg
p402
I2
sVd6buy9e
p403
I3
sVdt9g1hv
p404
I1
sVd0x4v64
p405
I1
sVd5b91tv
p406
I1
sVcyl2xxy
p407
I1
sVd1229c1
p408
I1
sVdej6y52
p409
I2
sVd3cgu2j
p410
I1
sVdj9lsjw
p411
I1
sVdrwtdbv
p412
I1
sVd3orfto
p413
I2
sVd1glmnp
p414
I1
sVdsvslht
p415
I1
sVdjhvr38
p416
I1
sVda7m59s
p417
I1
sVd5v73mp
p418
I1
sVdibte5u
p419
I1
sVd5ujy69
p420
I1
sVd49j7s0
p421
I1
sVd6wxjm8
p422
I3
sVcz1nn0q
p423
I1
sVdkr8bni
p424
I1
sVd65p9a8
p425
I1
sVd1908t8
p426
I1
sVd3rvzea
p427
I1
sVd10i03q
p428
I1
sVdaqi8t4
p429
I1
sVdgzrezr
p430
I1
sVdaurrdl
p431
I1
sVcz3diyt
p432
I1
sVdb6zytx
p433
I1
sVdh92gzp
p434
I1
sVd6waiaw
p435
I1
sVd3vfz9q
p436
I1
sVdeewjur
p437
I1
sVdg76za9
p438
I2
sVczomelq
p439
I1
sVdiwf2j2
p440
I1
sVd3n86k5
p441
I1
sVd9xo464
p442
I1
sVdggd2ba
p443
I1
sVd6uee93
p444
I1
sVdnzb4h0
p445
I1
sVd0l02yo
p446
I1
sVd72vi20
p447
I1
sVdiz68d0
p448
I1
sVdh5w4dz
p449
I1
sVdcmt1uh
p450
I1
sVdfws7bp
p451
I1
sVde3zt9v
p452
I1
sVdr9m2oy
p453
I4
sVdbb565r
p454
I2
sVdkfaiu3
p455
I2
sVdmnk4ob
p456
I1
sVddwrkta
p457
I1
sVdmvduus
p458
I1
sVd77ce34
p459
I2
sVd3aazbe
p460
I2
sVcyjcxkt
p461
I1
sVd6xy8ae
p462
I1
sVdbo6g21
p463
I1
sVdnhiw4x
p464
I1
sVdjba3y6
p465
I1
sVdsvivnt
p466
I2
sVd2fvi0p
p467
I2
sVdedr82b
p468
I1
sVd9wsj9l
p469
I1
sVdegd2o9
p470
I1
sVdqjypfw
p471
I1
sVd07yve1
p472
I1
sVd6cuez2
p473
I1
sVd0r19h2
p474
I1
sVd5dhndl
p475
I2
sVd7fy2n2
p476
I1
sVd4lqyfg
p477
I1
sVddryiwi
p478
I1
sVd47uzdi
p479
I1
sVdf43q7q
p480
I2
sVcz3f6iy
p481
I1
sVdndrrjw
p482
I1
sVd0w5rru
p483
I1
sVdfs8lcu
p484
I1
sVd0hj6gj
p485
I2
sVdcqef66
p486
I1
sVd5v22cu
p487
I1
sVdhgj4h3
p488
I1
sVczjky8m
p489
I1
sVd1cakkl
p490
I2
sVd05lzsr
p491
I2
sVdd3p869
p492
I1
sVd2xayd8
p493
I1
sVdi4kml8
p494
I1
sVdi7axr3
p495
I1
sVdrk6al2
p496
I1
sVd2nefy5
p497
I1
sVd2uupm4
p498
I1
sVdj5iqet
p499
I2
sVd8cpox5
p500
I1
sVdi1wmkk
p501
I1
sVd84v40o
p502
I3
sVdf2cbi9
p503
I1
sVdi7x340
p504
I1
sVdebmaeq
p505
I1
sVczb63mu
p506
I1
sVcz0h2x4
p507
I1
sVd9o8x0l
p508
I1
sVdc5n2ia
p509
I1
sVdcflpqy
p510
I1
sVdk2hlk9
p511
I1
sVds5r4fx
p512
I1
sVcz3u7fs
p513
I2
sVdf62n1d
p514
I1
sVddb685i
p515
I1
sVdkk34q7
p516
I1
sVd6s6mqx
p517
I1
sVdjasunz
p518
I1
sVd4fbzdw
p519
I1
sVdmg1yhx
p520
I1
sVdosh0h0
p521
I2
sVd188ypb
p522
I4
sVdqp4uju
p523
I6
sVd9vxyk9
p524
I1
sVdaqi9sg
p525
I1
sVd6eni1b
p526
I1
sVdeabtum
p527
I1
sVd8ssc7d
p528
I1
sVd8su4kc
p529
I2
sVd6pvtxe
p530
I1
sVdne68rl
p531
I1
sVdi01hif
p532
I1
sVdakqd92
p533
I1
sVd9qor9b
p534
I1
sVdc9j5n3
p535
I3
sVd817rp2
p536
I3
sVczgjeyn
p537
I1
sVdhbakhe
p538
I1
sVdqm9srg
p539
I1
sVd00q00j
p540
I1
sVdknuj7a
p541
I1
sVdb5lvsx
p542
I1
sVdq21rqn
p543
I1
sVdjeg61w
p544
I1
sVd344ue4
p545
I1
sVdnpubl5
p546
I1
sVdfvtfre
p547
I1
sVd6ty3mj
p548
I1
sVdsl3sfv
p549
I1
sVd3at58y
p550
I1
sVdbqm2l3
p551
I1
sVd5iuarf
p552
I1
sVd0qb150
p553
I1
sVd2536hv
p554
I1
sVdgbil0f
p555
I1
sVdkgjqfy
p556
I1
sVdeh498b
p557
I1
sVd68lzo0
p558
I1
sVd2wpy8o
p559
I2
sVdi0s6ez
p560
I2
sVdmn88z7
p561
I1
sVdne1285
p562
I2
sVdfu9jk3
p563
I1
sVd7n3kn9
p564
I1
sVdekiqu3
p565
I1
sVdjml9v3
p566
I1
sVd2hddma
p567
I1
sVdb0nx16
p568
I1
sVd8g2oxe
p569
I1
sVd9o1smo
p570
I1
sVdgfrzvv
p571
I1
sVdq4klvt
p572
I1
sVdc96r45
p573
I2
sVdhks3ab
p574
I1
sVd1et2tt
p575
I1
sVd9cevjy
p576
I1
sVdk87l6u
p577
I1
sVd0hyvth
p578
I1
sVdpv27id
p579
I1
sVdepo0k5
p580
I1
sVd1s7tba
p581
I1
sVcypct2j
p582
I1
sVd4sloyw
p583
I1
sVdkkdl3p
p584
I1
sVd0yqqmp
p585
I1
sVdn0sdm1
p586
I2
sVd2ii0ki
p587
I1
sVd5907qo
p588
I1
sVcykeqp4
p589
I2
sVdbr2rw9
p590
I1
sVdkt4rk7
p591
I1
sVdjzpxpi
p592
I2
sVczui3at
p593
I1
sVczh65we
p594
I1
sVdi7bh98
p595
I1
sVd2jvd3d
p596
I1
sVd3ffbwr
p597
I1
sVdmiutwf
p598
I1
sVdfdwtgw
p599
I1
sVcyjid8f
p600
I1
sVd1vmrus
p601
I1
sVda1oe3r
p602
I1
sVd2e9ls5
p603
I1
sVdgcepqf
p604
I1
sVdny44hy
p605
I1
sVdfw5a5h
p606
I1
sVdn7sc1y
p607
I1
sVddxq3ep
p608
I1
sVdbh183q
p609
I1
sVcysu9w8
p610
I1
sVd9re3f3
p611
I2
sVd9ak7oj
p612
I1
sVdks9daj
p613
I1
sVd1u7lld
p614
I1
sVdfyfosg
p615
I1
sVd34xztw
p616
I1
sVd3dbr7b
p617
I1
sVdhwue9j
p618
I1
sVczbp908
p619
I1
sVd5aw9t7
p620
I1
sVdmeib1h
p621
I3
sVd44qbeo
p622
I1
sVdavxzjb
p623
I1
sVd4953bq
p624
I1
sVdd9u46m
p625
I2
sVd6w12zq
p626
I1
sVdcczlwp
p627
I2
sVd0entcf
p628
I1
sVd6szq0u
p629
I1
sVczg4sbu
p630
I1
sVd17u8f5
p631
I1
sVd6dk5p4
p632
I1
sVdfm49y3
p633
I1
sVdfjk64q
p634
I1
sVdompg0o
p635
I2
sVd0utt08
p636
I1
sVdsfbaoe
p637
I1
sVd2h7apx
p638
I1
sVditddmm
p639
I1
sVdn3fhcf
p640
I1
sVd37qeh6
p641
I1
sVddqzh3t
p642
I1
sVdborb75
p643
I1
sVdafwq2s
p644
I1
sVd2hjvmv
p645
I1
sVdknh0q3
p646
I1
sVd266wg4
p647
I1
sVd3i6aa6
p648
I1
sVdbfmhgv
p649
I1
sVdad5w73
p650
I1
sVdia1lsx
p651
I1
sVdhayhyw
p652
I1
sVdo8q7nu
p653
I1
sVd01sqrz
p654
I1
sVd3mredn
p655
I1
sVdfl1yev
p656
I1
sVdswvjgt
p657
I1
sVdehmlta
p658
I1
sVdb9m5qk
p659
I2
sVdg0wcmq
p660
I1
sVdkcki3p
p661
I2
sVd94ezme
p662
I1
sVdi0hyrz
p663
I1
sVdgo1w3a
p664
I1
sVd9gh3xb
p665
I1
sVdidtjrj
p666
I1
sVdddpc95
p667
I4
sVdgykc55
p668
I1
sVd1k5xmo
p669
I1
sVdc90wl9
p670
I1
sVd03atgx
p671
I1
sVdn1a4z4
p672
I2
sVd8z9453
p673
I1
sVde7ta2i
p674
I1
sVdg4bpzv
p675
I1
sVdiemw8l
p676
I1
sVdrwl2at
p677
I1
sVd3xf9a7
p678
I1
sVdjxnwf8
p679
I1
sVd4y7pe3
p680
I1
sVd7vrdg3
p681
I1
sVdhc20qn
p682
I1
sVdipokyy
p683
I1
sVdbuznpn
p684
I1
sVddjeaq3
p685
I1
sVdf3crzc
p686
I1
sVcyukqqy
p687
I2
sVd4h1943
p688
I1
sVd6p3j3l
p689
I1
sVdh0ug4m
p690
I1
sVdohm1t8
p691
I1
sVdcq8ese
p692
I1
sVd1e94i8
p693
I2
sVd91hqbs
p694
I2
sVdscqvhy
p695
I1
sVdjx8ahi
p696
I2
sVd75nrlm
p697
I1
sVd5r1ws1
p698
I1
sVd1yybi0
p699
I1
sVd0yyy4p
p700
I1
sVd569s0p
p701
I1
sVd88owgy
p702
I1
sVcz27u02
p703
I1
sVdewy5p6
p704
I2
sVddszqih
p705
I1
sVdffvt2v
p706
I1
sVd081a51
p707
I1
sVdqt1zuq
p708
I1
sVdpiew3v
p709
I1
sVdgadteb
p710
I1
sVdhzuegv
p711
I1
sVdsdawzh
p712
I1
sVdfd8bau
p713
I2
sVdf4yi0r
p714
I1
sVcyzh5ga
p715
I1
sVdehjonb
p716
I1
sVd8h3pj2
p717
I1
sVdf7vpb4
p718
I1
sVd78tgx2
p719
I1
sVdc6r3r8
p720
I1
sVdhyae81
p721
I1
sVdmr1gft
p722
I1
sVdpixs1c
p723
I1
sVd7pfkr4
p724
I3
sVd0x2pmg
p725
I1
sVde3jkx8
p726
I2
sVdfj3mhl
p727
I1
sVdke8t2p
p728
I1
sVdggt994
p729
I1
sVdbeuboq
p730
I1
sVd0ydr8u
p731
I1
sVdaawz4v
p732
I1
sVdn6fseg
p733
I1
sVd0fl5ni
p734
I1
sVd7f7i8r
p735
I1
sVdgn7sw7
p736
I1
sVde21k2r
p737
I1
sVd8woa8z
p738
I1
sVdj5le4w
p739
I1
sVczh52c0
p740
I1
sVddleydg
p741
I2
sVdffk4x0
p742
I2
sVdc2hlqc
p743
I1
sVdeayq1a
p744
I1
sVdkdb7fz
p745
I1
sVdo0dniv
p746
I2
sVd01cq7t
p747
I1
sVddefcqu
p748
I1
sVde5hwd6
p749
I1
sVdbz05y2
p750
I1
sVdtglnxa
p751
I1
sVdekvz92
p752
I1
sVdg7vlos
p753
I1
sVd1st82j
p754
I3
sVd7da31u
p755
I1
sVdrnowu7
p756
I1
sVdgt8dsv
p757
I1
sVdfdk1w9
p758
I1
sVd039zrf
p759
I1
sVd2k84d3
p760
I1
sVda4ds2x
p761
I1
sVdciu9i2
p762
I1
sVdjeb8v8
p763
I1
sVd2h3x5o
p764
I1
sVdo7khw2
p765
I1
sVd571awx
p766
I1
sVd6a34df
p767
I1
sVdicvcdm
p768
I1
sVdhm1d3j
p769
I1
sVdjkkccz
p770
I1
sVdq4oxzl
p771
I1
sVdrl67wj
p772
I1
sVdhp6gf9
p773
I2
sVd74qrbs
p774
I1
sVdg05kmk
p775
I1
sVd8h5zgt
p776
I1
sVdcl7uvc
p777
I1
sVdp7hkvh
p778
I1
sVdc5xh98
p779
I1
sVdi9bhmz
p780
I1
sVcz4t8ts
p781
I1
sVdfh7ctp
p782
I1
sVdd285z6
p783
I1
sVdn79r5i
p784
I1
sVdqdcn2r
p785
I1
sVd0yfvfj
p786
I2
sVczb92sy
p787
I1
sVde83djy
p788
I1
sVd66jlqo
p789
I1
sVdqermco
p790
I1
sVdjegshn
p791
I1
sVd4to4cs
p792
I1
sVdf821pz
p793
I1
sVd0yza80
p794
I1
sVdbyh2eh
p795
I1
sVdc5yoga
p796
I1
sVdjo5ffu
p797
I1
sVczz71yl
p798
I1
sVdgqkpcc
p799
I1
sVdmq7q2n
p800
I1
sVd2a1lud
p801
I1
sVdiclvma
p802
I1
sVdaupvl3
p803
I1
sVd0xmy4i
p804
I1
sVdcmrjf3
p805
I1
sVdirfuvn
p806
I1
sVd3mtjz6
p807
I1
sVd2dj684
p808
I1
sVdkm4vu1
p809
I1
sVdoihrsw
p810
I1
sVdjk5ozp
p811
I1
sVdmiqv8e
p812
I1
sVdaqfkkb
p813
I1
sVdgpt643
p814
I1
sVdoj4mp3
p815
I1
sVdb1z3ck
p816
I1
sVdo26nfz
p817
I1
sVdi4nbg0
p818
I1
sVd0hkp0c
p819
I1
sVdax6p6m
p820
I1
sVd3s4pzm
p821
I1
sVd4hnipf
p822
I1
sVdgl6a9c
p823
I1
sVdmvk87t
p824
I1
sVdjs2pzd
p825
I1
sVd647mn7
p826
I1
sVdeqc1lx
p827
I1
sVdpb1x5t
p828
I1
sVdf0821x
p829
I1
sVdj1muqd
p830
I1
sVd7tblev
p831
I1
sVcztj543
p832
I1
sVd7037ae
p833
I1
sVddz484j
p834
I1
sVdg0w51r
p835
I1
sVdrazfkx
p836
I1
sVdng2730
p837
I1
sVdapt340
p838
I1
sVdpiectv
p839
I1
sVdbfk1ra
p840
I1
sVd232wno
p841
I1
sVd1h53y2
p842
I1
sVcz9eu5h
p843
I4
sVcz5y5ch
p844
I1
sVdex6gdx
p845
I1
sVdrlymo1
p846
I2
sVdb9rv02
p847
I1
sVcyv58q5
p848
I1
sVdexizn3
p849
I1
sVdnj93et
p850
I1
sVcz9crmy
p851
I1
sVdqeny4k
p852
I1
sVdggo2f3
p853
I3
sVcymdtf2
p854
I1
sVczj269k
p855
I1
sVddlwst8
p856
I1
sVdk2c6al
p857
I1
sVczipcc9
p858
I1
sVddmuwj6
p859
I1
sVd4930ga
p860
I1
sVdayufs9
p861
I1
sVd12j0t5
p862
I1
sVdois5n2
p863
I1
sVdbigrnf
p864
I3
sVcyvhxot
p865
I1
sVdce495h
p866
I1
sVdr0fkhd
p867
I1
sVdt0su4t
p868
I1
sVdajqzbd
p869
I2
sVcz5mrec
p870
I2
sVcz83310
p871
I1
sVd6teg1n
p872
I1
sVdggbmf5
p873
I1
sVczxvqpk
p874
I1
sVdr0t4l7
p875
I1
sVdci652b
p876
I1
sVda7qvzz
p877
I1
sVcyujb7c
p878
I2
sVdi35ogu
p879
I1
sVd61vfpu
p880
I1
sVdeb9z4l
p881
I1
sVdjnpprs
p882
I1
sVcz2rrf8
p883
I1
sVdmvbaq1
p884
I1
sVd12rj28
p885
I1
sVdax1l91
p886
I1
sVcz0e6ap
p887
I2
sVdpjn4le
p888
I2
sVdj51fh0
p889
I1
sVd40i5s1
p890
I1
sVd6uftus
p891
I1
sVdcs2015
p892
I1
sVdko82zs
p893
I1
sVd6zuo2a
p894
I1
sVdnkwy99
p895
I4
sVdpbwosw
p896
I1
sVdep94sl
p897
I1
sVdjwnm81
p898
I1
sVdaaqbyk
p899
I1
sVdfgkegz
p900
I1
sVdjiz0va
p901
I1
sVd99jz3y
p902
I1
sVdc8ne7j
p903
I1
sVde1ya39
p904
I2
sVd2m68wl
p905
I1
sVdiwrm12
p906
I1
sVd3t8o8f
p907
I1
sVdpoldlk
p908
I1
sVd6zyix4
p909
I1
sVdapua1w
p910
I1
sVd5k6fyo
p911
I2
sVd10kyze
p912
I1
sVdi48pqw
p913
I2
sVdgrmk13
p914
I1
sVdnvup5x
p915
I1
sVd59hwg6
p916
I1
sVd0zk10g
p917
I1
sVd8bm5tx
p918
I3
sVczhvwju
p919
I1
sVd4ds2gl
p920
I1
sVddjncl4
p921
I1
sVdgfm6pl
p922
I2
sVd8fwsx1
p923
I1
sVdn1f52r
p924
I2
sVdcxrsts
p925
I1
sVd720py2
p926
I2
sVdksbntc
p927
I1
sVd7xairc
p928
I1
sVcyqfama
p929
I1
sVcyiv90p
p930
I2
sVcz583mp
p931
I1
sVdh3iug4
p932
I1
sVdqdo5so
p933
I2
sVdn3b0bq
p934
I1
sVcz4x3jq
p935
I1
sVdb69lb0
p936
I1
sVddng56e
p937
I1
sVd7fatww
p938
I1
sVd1wcv77
p939
I1
sVdej9ua2
p940
I1
sVdhsqu38
p941
I1
sVdrfayxr
p942
I1
sVdrhzrlb
p943
I1
sVdejomve
p944
I1
sVd50t5m7
p945
I2
sVcyre7m8
p946
I4
sVdduxi2q
p947
I1
sVd00uz7u
p948
I2
sVdf08pvn
p949
I1
sVd47mbi7
p950
I1
sVdh64yg0
p951
I1
sVdk8kcsa
p952
I1
sVcyk0o3u
p953
I2
sVdhx0exm
p954
I1
sVd1wrypn
p955
I1
sVdj2mu24
p956
I1
sVd4rviw9
p957
I1
sVdp9jwwv
p958
I1
sVd2i0idt
p959
I1
sVd3gtigx
p960
I1
sVdc3qqnq
p961
I1
sVdafkpy5
p962
I1
sVd7yuj6f
p963
I1
sVdrvl0n3
p964
I1
sVcykodbv
p965
I1
sVdi35ewh
p966
I1
sVddbea2p
p967
I1
sVdemd2ag
p968
I1
sVd3efe5i
p969
I1
sVdo7v734
p970
I1
sVd4flb6a
p971
I1
sVczrdkiq
p972
I1
sVdfhg7k5
p973
I2
sVd26j2qp
p974
I1
sVd6cwn0f
p975
I1
sVdck7ne7
p976
I1
sVdru1vxq
p977
I1
sVdb7ekaa
p978
I3
sVddfb44g
p979
I1
sVd01spp2
p980
I1
sVdpsa44e
p981
I1
sVdo0nx9t
p982
I1
sVdd1ktc9
p983
I1
sVczi4wrx
p984
I1
sVdhj971f
p985
I1
sVd9ftvdq
p986
I1
sVdji39tf
p987
I1
sVdfhmwh4
p988
I1
sVdfhri0a
p989
I1
sVdo1lof2
p990
I1
sVd8sn9qq
p991
I1
sVd5fz5aj
p992
I1
sVdsea8yk
p993
I1
sVdrwkxrw
p994
I1
sVd2p0hjr
p995
I1
sVd03pqct
p996
I2
sVd2uxdh3
p997
I1
sVdiiyfqm
p998
I1
sVd53r6cv
p999
I1
sVd3ybcrn
p1000
I1
sVd0egrpz
p1001
I1
sVdk3zbbz
p1002
I2
sVdstm4wb
p1003
I1
sVd5jt5ip
p1004
I1
sVd2hi5vh
p1005
I2
sVd2i143j
p1006
I1
sVd9oh049
p1007
I1
sVd8t5upw
p1008
I2
sVd40irz8
p1009
I1
sVd7rjaue
p1010
I1
sVdhownen
p1011
I2
sVdcufi98
p1012
I1
sVcytz8yz
p1013
I1
sVdchv5kv
p1014
I1
sVdnnb8kz
p1015
I3
sVdasz29d
p1016
I1
sVd7nzeev
p1017
I1
sVd2e8n55
p1018
I1
sVddqztok
p1019
I1
sVdicx29r
p1020
I2
sVdcd8ylf
p1021
I1
sVdmxbbsh
p1022
I2
sVdtd6j32
p1023
I1
sVdc87ivl
p1024
I1
sVdkpyyaq
p1025
I4
sVd6lx8t6
p1026
I1
sVdkwhole
p1027
I1
sVd0uya40
p1028
I1
sVdh2mm55
p1029
I1
sVdkguwpo
p1030
I1
sVdgw08r8
p1031
I1
sVd1mnnoq
p1032
I1
sVdjbfg4j
p1033
I1
sVdfrlyy7
p1034
I1
sVdf5ckyx
p1035
I1
sVd095roh
p1036
I1
sVd89i3aw
p1037
I1
sVdndwvz6
p1038
I1
sVd0x6t9k
p1039
I1
sVdozazo9
p1040
I1
sVd0f8rp1
p1041
I1
sVd2ys2e5
p1042
I2
sVdr2iu0c
p1043
I1
sVdajm3fc
p1044
I1
sVdbhul5p
p1045
I1
sVd0empan
p1046
I1
sVdpcdrzj
p1047
I1
sVd88edld
p1048
I1
sVdcrvk4z
p1049
I2
sVdewgtbs
p1050
I1
sVdnsh4z3
p1051
I1
sVdexi3b5
p1052
I1
sVdmv4m95
p1053
I1
sVcz4u0hg
p1054
I1
sVd2lvkcz
p1055
I1
sVdejvo6u
p1056
I1
sVdcwox0w
p1057
I1
sVdbazqn9
p1058
I1
sVddm7bo3
p1059
I1
sVd7rt4e8
p1060
I1
sVd1je8m0
p1061
I1
sVdhssgyy
p1062
I1
sVdgtr6dg
p1063
I1
sVd8axy2d
p1064
I1
sVd6upmam
p1065
I1
sVdruevqx
p1066
I2
sVcz7u8la
p1067
I1
sVd0b6nox
p1068
I1
sVdp89dx1
p1069
I1
sVcyie8x5
p1070
I1
sVd3t6tem
p1071
I1
sVd23ruil
p1072
I1
sVdienpxf
p1073
I1
sVd7orhzs
p1074
I1
sVdhwr3ew
p1075
I1
sVd26ofam
p1076
I1
sVd69xarn
p1077
I1
sVdo25ekl
p1078
I1
sVde6g5oh
p1079
I1
sVd9s93j7
p1080
I1
sVd1s3w68
p1081
I1
sVdexf9e6
p1082
I2
sVd68pglf
p1083
I1
sVdiv1sts
p1084
I1
sVd3ljpmq
p1085
I1
sVdg7kp47
p1086
I1
sVdacuaov
p1087
I1
sVdb5y4dx
p1088
I1
sVd5g6rhn
p1089
I1
sVd9yn6jk
p1090
I1
sVd1zjbnx
p1091
I1
sVdardvj7
p1092
I1
sVd2vj1j8
p1093
I1
sVdhjmobl
p1094
I1
sVdfvyc8w
p1095
I1
sVd0t6956
p1096
I1
sVdqo2tgc
p1097
I2
sVd1y0u5l
p1098
I1
sVdb1hozm
p1099
I2
sVd5dcrt0
p1100
I1
sVdsn4k06
p1101
I1
sVdkv4hs9
p1102
I2
sVd2jyerf
p1103
I1
sVcz54hhy
p1104
I1
sVdjld4fc
p1105
I1
sVczpht5v
p1106
I1
sVdgiufch
p1107
I1
sVd0ito78
p1108
I1
sVdqoy3df
p1109
I1
sVdciox4j
p1110
I1
sVdppfa2k
p1111
I1
sVdn766pv
p1112
I3
sVdn9tv9u
p1113
I1
sVdchmabk
p1114
I1
sVcyrknpj
p1115
I1
sVdcxv0v1
p1116
I2
sVdfecmtr
p1117
I1
sVd4sao43
p1118
I1
sVdkuijye
p1119
I1
sVdip8wpo
p1120
I1
sVd9zkr5c
p1121
I1
sVd4d2mm3
p1122
I1
sVd4bdyoo
p1123
I2
sVdtgfrla
p1124
I1
sVd20xzl3
p1125
I1
sVddbi9zv
p1126
I1
sVdg2o2vy
p1127
I1
sVd22zg2e
p1128
I1
sVdhjsjp3
p1129
I1
sVdan1yg2
p1130
I1
sVd1wgi2q
p1131
I1
sVd1chzmh
p1132
I1
sVd77zgbm
p1133
I1
sVdiada4c
p1134
I2
sVd640mze
p1135
I1
sVd60qafu
p1136
I1
sVd1lg1gl
p1137
I1
sVd2awrul
p1138
I1
sVdjj5e58
p1139
I1
sVd1nmpi2
p1140
I1
sVd1hzm9o
p1141
I1
sVdi2g2fy
p1142
I1
sVdoi0qt2
p1143
I1
sVdefgddd
p1144
I1
sVdhwzt6p
p1145
I1
sVd0uplvq
p1146
I1
sVdhrja96
p1147
I1
sVcynsojw
p1148
I2
sVd4pdcyw
p1149
I1
sVdiv44cy
p1150
I1
sVd65in28
p1151
I1
sVd0fuvlj
p1152
I1
sVdcdsxrn
p1153
I1
sVd77iwfy
p1154
I1
sVdaqir9h
p1155
I1
sVdjxfzv6
p1156
I1
sVda4vr7k
p1157
I1
sVdf071wt
p1158
I2
sVds3ltfo
p1159
I3
sVdbgvb42
p1160
I1
sVd5op49m
p1161
I2
sVd6095pi
p1162
I1
sVdoso1ex
p1163
I1
sVcyzsnlh
p1164
I1
sVdnzgnvp
p1165
I1
sVdplei6b
p1166
I1
sVd3pgkvp
p1167
I1
sVdiwrkte
p1168
I2
sVdqj1bbi
p1169
I1
sVdsl4e42
p1170
I1
sVdrsza63
p1171
I1
sVd2hlulx
p1172
I1
sVczn1goj
p1173
I1
sVd2rf5ol
p1174
I1
sVd9zuvbw
p1175
I1
sVd7v8vn5
p1176
I1
sVd4qtt13
p1177
I1
sVd63vyg7
p1178
I1
sVdfgcp8y
p1179
I2
sVczav3bh
p1180
I1
sVdeg5luj
p1181
I1
sVdd2mb0o
p1182
I1
sVd8nkan0
p1183
I1
sVd6d3b8w
p1184
I1
sVdn7hpwj
p1185
I3
sVdjhygcd
p1186
I1
sVd6uj3q2
p1187
I1
sVd5p8o7q
p1188
I1
sVdoddrwt
p1189
I1
sVd9i417n
p1190
I1
sVdmxbcna
p1191
I1
sVd0jkrj5
p1192
I1
sVdc1klx5
p1193
I1
sVdf05gjr
p1194
I1
sVcz8prb1
p1195
I3
sVdaivq6l
p1196
I1
sVdi87wqz
p1197
I2
sVdh72gav
p1198
I1
sVcz92m6a
p1199
I1
sVdjkp5nw
p1200
I1
sVdc211r7
p1201
I1
sVdje7spn
p1202
I1
sVdeeye4k
p1203
I1
sVd2y67ad
p1204
I3
sVddaa1mg
p1205
I1
sVd66q1ba
p1206
I1
sVdre4bkl
p1207
I1
sVcyxovjz
p1208
I1
sVdnuasm6
p1209
I1
sVd7b3k1f
p1210
I1
sVdi942xr
p1211
I1
sVcykg7nb
p1212
I2
sVddwxpgd
p1213
I1
sVd54n40r
p1214
I2
sVd1btyrk
p1215
I1
sVd5t3max
p1216
I1
sVd0y4yw3
p1217
I1
sVczts43n
p1218
I1
sVdq2hpxm
p1219
I1
sVd1g0mep
p1220
I1
sVd2nk6pj
p1221
I2
sVdkjcit8
p1222
I1
sVde0ydzg
p1223
I1
sVdb8wy4v
p1224
I1
sVdpewvwl
p1225
I1
sVd0o03tn
p1226
I1
sVdjmxqqo
p1227
I1
sVdejsj6s
p1228
I1
sVdsmc28b
p1229
I1
sVdhiqcxe
p1230
I1
sVdg1qzxb
p1231
I1
sVdfmy422
p1232
I1
sVd618pjb
p1233
I1
sVcz00jon
p1234
I1
sVd4w84wq
p1235
I1
sVdg44ppk
p1236
I1
sVd28gsa9
p1237
I1
sVd6h50yv
p1238
I2
sVd69fh5q
p1239
I1
sVd6e6kul
p1240
I1
sVdk3pzq4
p1241
I1
sVd77chgd
p1242
I1
sVdklvxmd
p1243
I1
sVdndweba
p1244
I1
sVd708eaw
p1245
I1
sVdefjf2o
p1246
I1
sVd5abxls
p1247
I1
sVd5uhxys
p1248
I1
sVdarvznn
p1249
I1
sVd1jpx0m
p1250
I1
sVdrec5is
p1251
I1
sVdptz2x8
p1252
I1
sVd57rvw2
p1253
I1
sVcz4wd9y
p1254
I1
sVd1io33j
p1255
I1
sVdh33z4b
p1256
I3
sVd828wos
p1257
I1
sVdh6k091
p1258
I2
sVd50jkox
p1259
I1
sVd1eog2x
p1260
I1
sVczaayiu
p1261
I1
sVdopgsgb
p1262
I1
sVddk8gfs
p1263
I1
sVdd4inhl
p1264
I1
sVd85mdld
p1265
I1
sVd3m6as9
p1266
I1
sVdkj5tss
p1267
I1
sVd1q4kv8
p1268
I1
sVdb4y9zp
p1269
I1
sVd3u0a56
p1270
I1
sVdc6jy3v
p1271
I1
sVd14q7k4
p1272
I1
sVczsm602
p1273
I1
sVdniyx9h
p1274
I1
sVdpxi2dl
p1275
I2
sVdc101mp
p1276
I1
sVd44u2rx
p1277
I1
sVdjllcd8
p1278
I1
sVd40do4f
p1279
I1
sVd4u4mhk
p1280
I2
sVdavo4ce
p1281
I1
sVdea8gql
p1282
I1
sVdnsmwic
p1283
I1
sVdawpgl4
p1284
I1
sVd5xc6fs
p1285
I1
sVdg7g3ni
p1286
I1
sVdkz4ok5
p1287
I1
sVcyl8468
p1288
I1
sVddselhf
p1289
I1
sVd2gsagz
p1290
I1
sVdq2rfp0
p1291
I1
sVdeao07m
p1292
I1
sVczaw4k4
p1293
I1
sVddmlfz7
p1294
I1
sVd3cbjlq
p1295
I1
sVdd3omkv
p1296
I1
sVd4piqfz
p1297
I1
sVdd0d1uz
p1298
I1
sVd9f5p25
p1299
I1
sVdcf4ge7
p1300
I1
sVd8gjizh
p1301
I1
sVdghkekg
p1302
I2
sVdnpupx0
p1303
I2
sVd7kq6gr
p1304
I1
sVdfju759
p1305
I1
sVdtdkfin
p1306
I1
sVdp7q258
p1307
I1
sVdqlxoba
p1308
I1
sVcz27rp9
p1309
I5
sVd495qy1
p1310
I1
sVdaavc35
p1311
I1
sVdk0g6yt
p1312
I1
sVd472589
p1313
I1
sVdpzkhkj
p1314
I1
sVdbqt0q7
p1315
I2
sVdauj1wu
p1316
I1
sVd15ghnw
p1317
I1
sVd2gt07l
p1318
I1
sVdapu8hp
p1319
I1
sVddzkn27
p1320
I1
sVdioqzlt
p1321
I1
sVdr4ooyp
p1322
I1
sVdg76u9a
p1323
I1
sVdcwnojp
p1324
I1
sVd8spr4r
p1325
I1
sVdddtj7q
p1326
I1
sVdnpveyl
p1327
I1
sVd8w2r63
p1328
I2
sVd7smsvs
p1329
I1
sVd2ueiqy
p1330
I4
sVd5494sl
p1331
I1
sVd7xkjrs
p1332
I1
sVd95ldrh
p1333
I2
sVd8fcwvr
p1334
I2
sVd6i61co
p1335
I1
sVd20czoq
p1336
I1
sVcypuk4k
p1337
I1
sVdggvjp4
p1338
I3
sVczk589o
p1339
I1
sVdex6we7
p1340
I1
sVde68ijl
p1341
I2
sVd51ikfx
p1342
I1
sVdjdpy4b
p1343
I1
sVdq0dhej
p1344
I1
sVcz9zbew
p1345
I1
sVcyywrji
p1346
I1
sVdcsksuy
p1347
I1
sVdjnak7k
p1348
I1
sVd9fplak
p1349
I1
sVczdswgu
p1350
I2
sVd815vbr
p1351
I1
sVdja0puf
p1352
I1
sVdhl3z3v
p1353
I1
sVd1inwg5
p1354
I1
sVdhjxdi1
p1355
I2
sVd7kofg9
p1356
I1
sVdkjpq72
p1357
I1
sVdte1qzb
p1358
I1
sVd1bndbo
p1359
I1
sVdbqz1ch
p1360
I1
sVcz7keh6
p1361
I1
sVdnxwkzp
p1362
I1
sVdsdqnkt
p1363
I1
sVd5wjx2m
p1364
I1
sVd07yj47
p1365
I1
sVd7qd36y
p1366
I1
sVdbo2cyh
p1367
I1
sVdrjbrk0
p1368
I4
sVd0be7g3
p1369
I1
sVd0s7uh1
p1370
I2
sVdbjciq2
p1371
I1
sVdkz0sc8
p1372
I1
sVdc8ayzc
p1373
I1
sVd21iv5j
p1374
I4
sVdc1no6i
p1375
I1
sVdatus6m
p1376
I1
sVd5x6ozf
p1377
I2
sVd8bxi3d
p1378
I1
sVczimj69
p1379
I1
sVd78g0sz
p1380
I1
sVdf2i4dr
p1381
I1
sVddnexzy
p1382
I1
sVdc64gyt
p1383
I1
sVdpkekb7
p1384
I1
sVd3eq793
p1385
I1
sVdtic66m
p1386
I1
sVdd1ml4d
p1387
I1
sVdhxz6o4
p1388
I2
sVcyxa3p0
p1389
I1
sVddboh06
p1390
I2
sVde6wqcc
p1391
I1
sVdi9zmpq
p1392
I2
sVde8i2xa
p1393
I1
sVd15dng7
p1394
I1
sVdk2sub3
p1395
I1
sVdh5wndm
p1396
I1
sVdhi21nm
p1397
I1
sVd0o2s6y
p1398
I1
sVd6xyv1s
p1399
I1
sVd6ub6wp
p1400
I2
sVddvx1hn
p1401
I1
sVdffszxn
p1402
I1
sVd4rn9x9
p1403
I1
sVdr0yzrf
p1404
I1
sVdpki0wa
p1405
I1
sVdkq1jk1
p1406
I1
sVder7xgz
p1407
I1
sVdo3r2ho
p1408
I1
sVd1vp4gj
p1409
I1
sVd9tnk9h
p1410
I1
sVdnsnhky
p1411
I1
sVcz9l9u5
p1412
I1
sVcznj40c
p1413
I1
sVd1kuxu2
p1414
I1
sVd4zrru7
p1415
I1
sVd8fj1eo
p1416
I2
sVdeuhzqi
p1417
I1
sVd7ooh3l
p1418
I1
sVd88eyfm
p1419
I1
sVdk7sd4f
p1420
I1
sVdj2iuu5
p1421
I1
sVdbvn2lx
p1422
I1
sVdod18ts
p1423
I1
sVd065b0z
p1424
I1
sVczravfi
p1425
I1
sVd53mss8
p1426
I1
sVcyszno7
p1427
I1
sVdechmd1
p1428
I1
sVda1wrl5
p1429
I1
sVd9wsad2
p1430
I2
sVdb62dva
p1431
I1
sVczc2otj
p1432
I1
sVdo4lrbc
p1433
I2
sVdaume9b
p1434
I1
sVczkm1pz
p1435
I1
sVd31uro3
p1436
I1
sVd1ihr0a
p1437
I1
sVdn0fbns
p1438
I2
sVcypuqos
p1439
I1
sVdghvis6
p1440
I1
sVdryn601
p1441
I2
sVd27kcwa
p1442
I1
sVcz6v7tw
p1443
I1
sVd8hzgn1
p1444
I1
sVdebg5nv
p1445
I1
sVdffkuuc
p1446
I1
sVd8w3rx1
p1447
I1
sVdfwz85z
p1448
I1
sVd7h2xfe
p1449
I2
sVdmwx5xc
p1450
I1
sVdhtonp1
p1451
I1
sVdrgkxcv
p1452
I1
sVdqy2rye
p1453
I1
sVdp20idn
p1454
I1
sVd1mdxjk
p1455
I2
sVd5ac2cy
p1456
I2
sVdckprr1
p1457
I1
sVdbuxhim
p1458
I1
sVdd7g1f9
p1459
I1
sVdjn65fj
p1460
I1
sVdmy0a1a
p1461
I1
sVdd58bvl
p1462
I2
sVdo6h10d
p1463
I1
sVcylit8j
p1464
I1
sVczdpidh
p1465
I1
sVdd5n21y
p1466
I1
sVd2se34i
p1467
I2
sVd3qjtn2
p1468
I2
sVd33udb7
p1469
I1
sVd5566e2
p1470
I1
sVdigdncw
p1471
I1
sVd7v4mgd
p1472
I1
sVdqjklo1
p1473
I2
sVdg5m3py
p1474
I3
sVd5y6bj2
p1475
I2
sVd2tev3r
p1476
I2
sVdfllsz4
p1477
I1
sVczrvqp5
p1478
I2
sVdnx3wlv
p1479
I1
sVd1vsntu
p1480
I1
sVdncwig5
p1481
I1
sVdh2moop
p1482
I2
sVdoxjst9
p1483
I2
sVdaaoaco
p1484
I1
sVd1a3l5r
p1485
I1
sVdktfcfr
p1486
I1
sVd121ztm
p1487
I1
sVdhvtpnb
p1488
I2
sVd7rciva
p1489
I3
sVdh65dou
p1490
I1
sVdhgh6cp
p1491
I1
sVcyzkzg9
p1492
I1
sVdny7o3v
p1493
I2
sVd2blw8v
p1494
I1
sVdhpgz84
p1495
I1
sVdqgq3r8
p1496
I1
sVdoc1ec4
p1497
I1
sVd5vosd9
p1498
I1
sVd5g7kvd
p1499
I1
sVcz49umc
p1500
I1
sVd40noew
p1501
I1
sVd5mr47u
p1502
I1
sVdazn3kc
p1503
I1
sVde6r1wk
p1504
I1
sVcz91n6j
p1505
I1
sVd1x5139
p1506
I2
sVd0d7uz1
p1507
I1
sVdrebwop
p1508
I2
sVczds4r7
p1509
I1
sVd6h0m5r
p1510
I2
sVd0c290f
p1511
I2
sVdea5yyj
p1512
I1
sVdcmcpxl
p1513
I1
sVd045dao
p1514
I3
sVd3qj7tt
p1515
I1
sVcztdjpq
p1516
I1
sVd2apv48
p1517
I1
sVdi865t6
p1518
I2
sVdchg29p
p1519
I1
sVdhrtm5r
p1520
I1
sVdmnaw88
p1521
I1
sVd7sxife
p1522
I1
sVd4m6dbj
p1523
I1
sVdbtod4l
p1524
I1
sVd3mlxlv
p1525
I1
sVd2nt90s
p1526
I1
sVdclisbg
p1527
I1
sVd1hpviz
p1528
I2
sVdco653z
p1529
I1
sVcz08lh5
p1530
I1
sVczewv25
p1531
I1
sVd4jcd0k
p1532
I2
sVdbp6cnj
p1533
I3
sVd5umjk1
p1534
I2
sVd3yzr5m
p1535
I1
sVdpc0yjd
p1536
I1
sVdf4ckg3
p1537
I1
sVcztd8oa
p1538
I1
sVdcdm9jc
p1539
I1
sVdkqiawg
p1540
I1
sVd9gszpi
p1541
I1
sVd4gs9fh
p1542
I1
sVd4iqy2r
p1543
I1
sVd1bkk2h
p1544
I1
sVd93byt3
p1545
I1
sVdaklflw
p1546
I1
sVd0knyta
p1547
I1
sVdjk4dsp
p1548
I1
sVd0802ph
p1549
I1
sVdh84bqq
p1550
I2
sVdovr7tn
p1551
I1
sVd18rye0
p1552
I1
sVdo2pvgb
p1553
I1
sVd7eakjs
p1554
I1
sVd1z3fe5
p1555
I2
sVd2o0te8
p1556
I1
sVdr0ymgs
p1557
I1
sVd1fa0ur
p1558
I1
sVdp7izd1
p1559
I1
sVdqw1wbj
p1560
I1
sVd6cnm38
p1561
I1
sVdjk33x1
p1562
I1
sVdjxbk7p
p1563
I3
sVd6k6htj
p1564
I1
sVd6kdchs
p1565
I1
sVcyisaf1
p1566
I1
sVdawll83
p1567
I1
sVd6q4eop
p1568
I1
sVdrz1vht
p1569
I1
sVdd0l4ed
p1570
I1
sVdpxqq35
p1571
I1
sVd45n5kl
p1572
I1
sVdia8c8i
p1573
I1
sVcyli12x
p1574
I1
sVd2966p5
p1575
I1
sVd5h0xk3
p1576
I2
sVdrp5q3b
p1577
I1
sVd6a26z9
p1578
I1
sVd82mbd4
p1579
I1
sVd50jn4o
p1580
I1
sVczdocn5
p1581
I1
sVdo7bgg3
p1582
I1
sVdq0i6lf
p1583
I1
sVd18s3cl
p1584
I1
sVdikjgct
p1585
I2
sVddeghpc
p1586
I1
sVd5f1ckn
p1587
I1
sVdci2nom
p1588
I1
sVd7bzcej
p1589
I1
sVdd4vbua
p1590
I1
sVd5olyvs
p1591
I3
sVdomx4m3
p1592
I1
sVdhsfsor
p1593
I1
sVd1yyd4a
p1594
I2
sVd5vl8fa
p1595
I1
sVd9tmxyx
p1596
I1
sVcymm0vy
p1597
I1
sVd75lfdx
p1598
I2
sVddmllx3
p1599
I1
sVdbw7jhn
p1600
I1
sVdn9rtq9
p1601
I1
sVdk96gly
p1602
I1
sVdbi2htc
p1603
I1
sVd696ot9
p1604
I1
sVczbda4p
p1605
I1
sVcz763gn
p1606
I1
sVdguhmly
p1607
I1
sVd34b31d
p1608
I1
sVd99z8oa
p1609
I1
sVdcg3e16
p1610
I2
sVd3qh8km
p1611
I2
sVd9yfux3
p1612
I1
sVdregvi1
p1613
I3
sVdpjlacy
p1614
I1
sVd2z2n47
p1615
I1
sVd9lupnw
p1616
I2
sVd7bz7d4
p1617
I1
sVdkg8463
p1618
I3
sVd12npsh
p1619
I1
sVdreptjp
p1620
I1
sVcyp0e9c
p1621
I2
sVd5x8bu2
p1622
I1
sVd9ia0mi
p1623
I1
sVd4z0xkz
p1624
I4
sVdgb69ba
p1625
I1
sVd9c2gcg
p1626
I1
sVde836lr
p1627
I1
sVddfkwwv
p1628
I1
sVd2ctrr1
p1629
I1
sVd22kpwk
p1630
I1
sVd1zlok5
p1631
I1
sVdh9nys2
p1632
I1
sVdbhq1w2
p1633
I1
sVdetdgw1
p1634
I1
sVdejq689
p1635
I1
sVcyncggb
p1636
I1
sVdc06awm
p1637
I1
sVdcufzu7
p1638
I2
sVdddo0dn
p1639
I1
sVd0po13i
p1640
I1
sVdivs1rl
p1641
I2
sVdcps56s
p1642
I1
sVd8pzzpq
p1643
I2
sVdf5zs1r
p1644
I1
sVdfq72b6
p1645
I1
sVd211i9k
p1646
I1
sVdo2upzv
p1647
I1
sVd6pimej
p1648
I1
sVdidb7v0
p1649
I1
sVdpbsy17
p1650
I2
sVdcxady1
p1651
I1
sVdauzyqt
p1652
I1
sVczsf7z4
p1653
I1
sVdel7jk3
p1654
I1
sVdit93h0
p1655
I1
sVdi0i7m7
p1656
I1
sVdkma35x
p1657
I1
sVdqwscc0
p1658
I1
sVdhrxkw0
p1659
I1
sVdkjxgq5
p1660
I1
sVczv76wq
p1661
I1
sVditll1i
p1662
I1
sVd77qv9d
p1663
I1
sVdf1z8ck
p1664
I2
sVdj1uqtc
p1665
I1
sVdk7s2pt
p1666
I1
sVd1xgng9
p1667
I1
sVdfhb79l
p1668
I1
sVd7q2qlk
p1669
I1
sVdp6dmks
p1670
I1
sVd5xkxho
p1671
I2
sVdq14akr
p1672
I1
sVdkb625c
p1673
I1
sVdpc5srm
p1674
I1
sVdiu2mls
p1675
I1
sVczsotse
p1676
I1
sVd4zj8la
p1677
I1
sVd97gy0g
p1678
I3
sVdd185qr
p1679
I1
sVdev0q7b
p1680
I1
sVd1ybb83
p1681
I1
sVd23gi4a
p1682
I1
sVdidlwrt
p1683
I1
sVdajo4bb
p1684
I1
sVd31sszu
p1685
I1
sVdc4v0o2
p1686
I1
sVd3uypnx
p1687
I1
sVd35ul5e
p1688
I1
sVcyt08uk
p1689
I3
sVdien2ri
p1690
I1
sVczit34v
p1691
I2
sVd8sru2u
p1692
I1
sVde8tx9v
p1693
I1
sVd4nzy57
p1694
I1
sVdqxxvc0
p1695
I1
sVd3m93r9
p1696
I2
sVde2nx2s
p1697
I1
sVd05dj2h
p1698
I1
sVdmktcj9
p1699
I1
sVdswhwnb
p1700
I1
sVdaqgs6f
p1701
I1
sVdqp14ch
p1702
I1
sVd4pzm0k
p1703
I1
sVd1d1s0c
p1704
I1
sVdaz7r82
p1705
I2
sVdn4e2s3
p1706
I1
sVdbitjzd
p1707
I1
sVdn77msq
p1708
I3
sVd5ph137
p1709
I6
sVdjzgzwl
p1710
I1
sVdc9vznr
p1711
I1
sVd15s6rh
p1712
I1
sVdk2gt4j
p1713
I1
sVdrgs4qf
p1714
I1
sVdalrptt
p1715
I1
sVdjscsdp
p1716
I1
sVczhxbmo
p1717
I1
sVdcptme4
p1718
I1
sVdf3qhby
p1719
I1
sVd39zrnq
p1720
I1
sVd0g380o
p1721
I1
sVd0vhnlw
p1722
I4
sVd8uw898
p1723
I2
sVdedxpim
p1724
I1
sVd4oyexa
p1725
I1
sVd0k4n4d
p1726
I1
sVdrv6o2h
p1727
I1
sVdpy2guu
p1728
I1
sVd44qlax
p1729
I1
sVdkbr1mz
p1730
I1
sVd9j0lsf
p1731
I1
sVd9cvy2y
p1732
I2
sVczs43ma
p1733
I1
sVdhjl3rf
p1734
I2
sVdnq27we
p1735
I1
sVdfomqje
p1736
I1
sVd3xvimc
p1737
I1
sVdrbx5g9
p1738
I1
sVdo0bzvk
p1739
I1
sVdcn5fbn
p1740
I1
sVd1za7x5
p1741
I1
sVd3k0nvd
p1742
I1
sVd8fzfh7
p1743
I1
sVdq99mo7
p1744
I1
sVcz48x7d
p1745
I1
sVd2d19yx
p1746
I1
sVdf0lny1
p1747
I1
sVd2krnnh
p1748
I1
sVd7b024w
p1749
I1
sVdevlurs
p1750
I1
sVczx5dt4
p1751
I1
sVdjsgdh4
p1752
I1
sVdfniqib
p1753
I1
sVdcva84r
p1754
I1
sVdehb3xi
p1755
I1
sVdksx6jd
p1756
I1
sVdnqpi6i
p1757
I1
sVdf3nl8k
p1758
I1
sVdmodsjb
p1759
I1
sVdruc7fn
p1760
I2
sVd0b1830
p1761
I1
sVdnaedkq
p1762
I1
sVddhf8bu
p1763
I1
sVcztmdin
p1764
I1
sVdhya40t
p1765
I1
sVd703vse
p1766
I1
sVd09nxa9
p1767
I1
sVd5i0hrn
p1768
I1
sVd5p95yl
p1769
I1
sVdfb4lav
p1770
I1
sVd6rll03
p1771
I1
sVdmf65c7
p1772
I1
sVd4bqosq
p1773
I2
sVd8xisgs
p1774
I1
sVd8jwbis
p1775
I1
sVdn7btcx
p1776
I2
sVd56urhj
p1777
I1
sVd6s68ft
p1778
I1
sVdr4znzx
p1779
I1
sVdjjru9c
p1780
I2
sVdbqcwja
p1781
I1
sVd1a7zhp
p1782
I1
sVd8eo82j
p1783
I2
sVd1vq7al
p1784
I1
sVd89nfo2
p1785
I1
sVd3faafb
p1786
I1
sVda1b87f
p1787
I1
sVdifss91
p1788
I1
sVdqm9kx8
p1789
I1
sVd8293ox
p1790
I1
sVdej9a0s
p1791
I1
sVd8de45z
p1792
I1
sVdfceirq
p1793
I1
sVd345w9q
p1794
I1
sVd7lfzt4
p1795
I1
sVd2rskb1
p1796
I1
sVdmvrjwv
p1797
I1
sVdro7rza
p1798
I1
sVdniyj67
p1799
I1
sVddjv52o
p1800
I1
sVdjli0l1
p1801
I1
sVd2jv8xm
p1802
I1
sVdqdgbjz
p1803
I1
sVczh50ub
p1804
I1
sVd4w89am
p1805
I1
sVd07u0ma
p1806
I1
sVd6h2y5s
p1807
I1
sVdo7ozif
p1808
I1
sVdow1itt
p1809
I2
sVd8by5en
p1810
I1
sVd5dhpqi
p1811
I1
sVdo5n1be
p1812
I1
sVdayjcp9
p1813
I1
sVczs1loe
p1814
I1
sVdczcj57
p1815
I1
sVdsn1tp4
p1816
I1
sVdiohwgn
p1817
I1
sVd0m8hah
p1818
I1
sVd79begk
p1819
I1
sVcyuf4b5
p1820
I1
sVdn2jbae
p1821
I1
sVdejbqyw
p1822
I1
sVczl0pdq
p1823
I1
sVd64ras2
p1824
I1
sVddtpcy8
p1825
I1
sVd55kjg7
p1826
I1
sVdg1jslh
p1827
I1
sVd1o9wb2
p1828
I1
sVdiuyncc
p1829
I1
sVd17xgdz
p1830
I1
sVdhdu8u6
p1831
I1
sVdej3cja
p1832
I1
sVd3snifm
p1833
I1
sVd7ie2gl
p1834
I1
sVddnmp2f
p1835
I1
sVcyptk1l
p1836
I3
sVcyx9y9z
p1837
I1
sVdntookm
p1838
I1
sVdtgdwai
p1839
I1
sVdgiz6l7
p1840
I1
sVd86orgc
p1841
I1
sVdey2jqr
p1842
I1
sVdrep48r
p1843
I1
sVd8e9rqh
p1844
I1
sVd9a0kf0
p1845
I1
sVdpyehnu
p1846
I1
sVdg7c16x
p1847
I1
sVda7q7ut
p1848
I2
sVdb8a0de
p1849
I1
sVdatxsgw
p1850
I2
sVd1hxp14
p1851
I1
sVd9ezn26
p1852
I1
sVd0imoaa
p1853
I1
sVdfx8yi7
p1854
I1
sVd6yda1d
p1855
I1
sVd3si85x
p1856
I1
sVdi23tjo
p1857
I1
sVd544wbj
p1858
I1
sVditjroi
p1859
I1
sVde1lea1
p1860
I1
sVdjg97wf
p1861
I1
sVdcddc3v
p1862
I1
sVcyjff3q
p1863
I1
sVdro3tx1
p1864
I1
sVd78kjy7
p1865
I1
sVd85xvpd
p1866
I1
sVczs0z6i
p1867
I1
sVdikk1hk
p1868
I1
sVd5wmlbc
p1869
I1
sVdkj0ynx
p1870
I1
sVd13m9su
p1871
I5
sVdblv3vo
p1872
I1
sVdi7zy14
p1873
I1
sVdauu2xl
p1874
I1
sVdbsfzvr
p1875
I5
sVdp2ddx0
p1876
I1
sVdg27k2m
p1877
I1
sVd3d5w4b
p1878
I1
sVdh5md68
p1879
I1
sVdtiunem
p1880
I1
sVd2fw4zj
p1881
I1
sVddnht0a
p1882
I1
sVdqn69jh
p1883
I1
sVdk74erv
p1884
I1
sVdf10d47
p1885
I1
sVczo58mq
p1886
I1
sVdioygjm
p1887
I1
sVcyr6zjg
p1888
I1
sVd2galxe
p1889
I1
sVdf6awn0
p1890
I1
sVdkqaiiu
p1891
I2
sVdqk8vo2
p1892
I1
sVdbepjc9
p1893
I1
sVdbdbuz6
p1894
I2
sVdfam881
p1895
I1
sVd6fm62f
p1896
I1
sVdapmgwg
p1897
I1
sVd3fepct
p1898
I1
sVd2w0jr0
p1899
I2
sVcz4s2bp
p1900
I1
sVdpen21n
p1901
I2
sVdf3op3z
p1902
I1
sVd37kd62
p1903
I1
sVdktgr6a
p1904
I1
sVdr6zirb
p1905
I1
sVd5xrqos
p1906
I1
sVd25fp9v
p1907
I1
sVdhuqdmo
p1908
I4
sVd5q5mde
p1909
I1
sVd6ub63i
p1910
I2
sVdbqfiiy
p1911
I1
sVdas1if8
p1912
I1
sVd0ihdoj
p1913
I1
sVdc4bite
p1914
I1
sVd42dmwk
p1915
I1
sVddidd23
p1916
I2
sVd8rz7yz
p1917
I1
sVddymahn
p1918
I1
sVddr0yxr
p1919
I1
sVdsv15k4
p1920
I1
sVdry9lwm
p1921
I1
sVd8w5f6g
p1922
I1
sVd1tgh1p
p1923
I1
sVdh5wjjc
p1924
I1
sVdaryz3q
p1925
I1
sVdc40fxh
p1926
I1
sVdalb7a3
p1927
I1
sVd0e4e2j
p1928
I1
sVcztjr6q
p1929
I1
sVczpu6nf
p1930
I1
sVd703fsg
p1931
I1
s.