(dp0
Vcyieivz
p1
I1
s.(dp0
Vcyieivz
p1
I1
sVcyj8yln
p2
I1
s.(dp0
Vcyieivz
p1
I1
sVcykc5dc
p2
I1
s.(dp0
Vcyieivz
p1
I1
sVcyso5gn
p2
I1
s.(dp0
Vcyieivz
p1
I1
sVcyu1x3d
p2
I1
s.(dp0
Vcyieivz
p1
I1
sVcyv9c83
p2
I1
s.(dp0
Vcyieivz
p1
I1
sVcyv9c83
p2
I1
s.(dp0
Vcyieivz
p1
I1
sVcyv9c83
p2
I1
s.(dp0
Vcyieivz
p1
I1
sVcyzmxgy
p2
I1
s.(dp0
Vcyieivz
p1
I1
sVcz0awhj
p2
I1
s.(dp0
Vcyieivz
p1
I1
sVcz6fa13
p2
I1
s.(dp0
Vcyieivz
p1
I1
sVczarwdk
p2
I1
s.(dp0
Vcyieivz
p1
I1
sVczaw1dc
p2
I1
s.(dp0
Vcyieivz
p1
I1
sVczbcnfe
p2
I1
s.(dp0
Vcyieivz
p1
I1
sVczh0buk
p2
I1
s.(dp0
Vcyieivz
p1
I1
sVczietz5
p2
I1
s.(dp0
Vcyieivz
p1
I1
sVczxvyry
p2
I1
s.(dp0
Vcyieivz
p1
I1
sVczze09q
p2
I1
s.(dp0
Vcyieivz
p1
I1
sVd032vyy
p2
I1
s.(dp0
Vcyieivz
p1
I1
sVd045ib2
p2
I1
s.(dp0
Vcyieivz
p1
I1
sVd0d61ob
p2
I1
s.(dp0
Vcyieivz
p1
I1
sVd0n49pm
p2
I1
s.(dp0
Vcyieivz
p1
I1
sVd0qfcgp
p2
I1
s.(dp0
Vcyieivz
p1
I1
sVd0y1mas
p2
I1
s.(dp0
Vcyieivz
p1
I1
sVd0zk1h9
p2
I1
s.(dp0
Vcyieivz
p1
I1
sVd1186hn
p2
I1
s.(dp0
Vcyieivz
p1
I1
sVd1b50y9
p2
I1
s.(dp0
Vcyieivz
p1
I1
sVd1k8u4o
p2
I1
s.(dp0
Vcyieivz
p1
I1
sVd1v9sdt
p2
I1
s.(dp0
Vcyieivz
p1
I1
sVd1xz7pl
p2
I1
s.(dp0
Vcyieivz
p1
I1
sVd1ytcyw
p2
I1
s.(dp0
Vcyieivz
p1
I1
sVd2333ki
p2
I1
s.(dp0
Vcyieivz
p1
I1
sVd23auks
p2
I1
s.(dp0
Vcyieivz
p1
I1
sVd23t0bq
p2
I1
s.(dp0
Vcyieivz
p1
I1
sVd23w7vm
p2
I1
s.(dp0
Vcyieivz
p1
I1
sVd2d3rf1
p2
I1
s.(dp0
Vcyieivz
p1
I1
sVd2gvbim
p2
I1
s.(dp0
Vcyieivz
p1
I1
sVd2hk336
p2
I1
s.(dp0
Vcyieivz
p1
I1
sVd2r25a3
p2
I1
s.(dp0
Vcyieivz
p1
I1
sVd2sgplc
p2
I1
s.(dp0
Vcyieivz
p1
I1
sVd337635
p2
I1
s.(dp0
Vcyieivz
p1
I1
sVd34vx84
p2
I1
s.(dp0
Vcyieivz
p1
I1
sVd39ycd3
p2
I1
s.(dp0
Vcyieivz
p1
I1
sVd39ycd3
p2
I1
s.(dp0
Vcyieivz
p1
I1
sVd3aqpvj
p2
I1
s.(dp0
Vcyieivz
p1
I1
sVd3e1tfb
p2
I1
s.(dp0
Vcyieivz
p1
I1
sVd3e2j36
p2
I1
s.(dp0
Vcyieivz
p1
I1
sVd3e2kj0
p2
I1
s.(dp0
Vcyieivz
p1
I1
sVd3e5ak3
p2
I1
s.(dp0
Vcyieivz
p1
I1
sVd3e6o32
p2
I1
s.(dp0
Vcyieivz
p1
I1
sVd3e7kmv
p2
I1
s.(dp0
Vcyieivz
p1
I1
sVd3eaghn
p2
I1
s.(dp0
Vcyieivz
p1
I1
sVd3efov2
p2
I1
s.(dp0
Vcyieivz
p1
I1
sVd3elt9v
p2
I1
s.(dp0
Vcyieivz
p1
I1
sVd3em5yp
p2
I1
s.(dp0
Vcyieivz
p1
I1
sVd3em5yp
p2
I1
s.(dp0
Vcyieivz
p1
I1
sVd3hxhop
p2
I1
s.(dp0
Vcyieivz
p1
I1
sVd3hxhop
p2
I1
s.(dp0
Vcyieivz
p1
I1
sVd3ka2ba
p2
I1
s.(dp0
Vcyieivz
p1
I1
sVd3qxs5i
p2
I1
s.(dp0
Vcyieivz
p1
I1
sVd3vo7mp
p2
I1
s.(dp0
Vcyieivz
p1
I1
sVd3yw9q9
p2
I1
s.(dp0
Vcyieivz
p1
I1
sVd44g280
p2
I1
s.(dp0
Vcyieivz
p1
I1
sVd4bia2b
p2
I1
s.(dp0
Vcyieivz
p1
I1
sVd4bij7p
p2
I1
s.(dp0
Vcyieivz
p1
I1
sVd4gvfjb
p2
I1
s.(dp0
Vcyieivz
p1
I1
sVd4k0d4l
p2
I1
s.(dp0
Vcyieivz
p1
I1
sVd4rpt3i
p2
I1
s.(dp0
Vcyieivz
p1
I1
sVd4u67fs
p2
I1
s.(dp0
Vcyieivz
p1
I1
sVd4v39ar
p2
I1
s.(dp0
Vcyieivz
p1
I1
sVd58gazm
p2
I1
s.(dp0
Vcyieivz
p1
I1
sVd5hoiy3
p2
I1
s.(dp0
Vcyieivz
p1
I1
sVd5qdl4r
p2
I1
s.(dp0
Vcyieivz
p1
I1
sVd62twa8
p2
I1
s.(dp0
Vcyieivz
p1
I1
sVd62twa8
p2
I1
s.(dp0
Vcyieivz
p1
I1
sVd6b54vr
p2
I1
s.(dp0
Vcyieivz
p1
I1
sVd6qj4ik
p2
I1
s.(dp0
Vcyieivz
p1
I1
sVd6v9op9
p2
I1
s.(dp0
Vcyieivz
p1
I1
sVd70snkd
p2
I1
s.(dp0
Vcyieivz
p1
I1
sVd70snkd
p2
I1
s.(dp0
Vcyieivz
p1
I1
sVd72izzq
p2
I1
s.(dp0
Vcyieivz
p1
I1
sVd72izzq
p2
I1
s.(dp0
Vcyieivz
p1
I1
sVd72j55h
p2
I1
s.(dp0
Vcyieivz
p1
I1
sVd7ja5bo
p2
I1
s.(dp0
Vcyieivz
p1
I1
sVd7mq8f5
p2
I1
s.(dp0
Vcyieivz
p1
I1
sVd7pbfj0
p2
I1
s.(dp0
Vcyieivz
p1
I1
sVd7psb59
p2
I1
s.(dp0
Vcyieivz
p1
I1
sVd7psb59
p2
I1
s.(dp0
Vcyieivz
p1
I1
sVd7psb59
p2
I1
s.(dp0
Vcyieivz
p1
I1
sVd7sb92f
p2
I1
s.(dp0
Vcyieivz
p1
I1
sVd7vo6fi
p2
I1
s.(dp0
Vcyieivz
p1
I1
sVd84nm0z
p2
I1
s.(dp0
Vcyieivz
p1
I1
sVd87j2yo
p2
I1
s.(dp0
Vcyieivz
p1
I1
sVd8cezsh
p2
I1
s.(dp0
Vcyieivz
p1
I1
sVd8f0oka
p2
I1
s.(dp0
Vcyieivz
p1
I1
sVd8yf41x
p2
I1
s.(dp0
Vcyieivz
p1
I1
sVd8yf41x
p2
I1
s.(dp0
Vcyieivz
p1
I1
sVd8yf41x
p2
I1
s.(dp0
Vcyieivz
p1
I1
sVd8ymr1o
p2
I1
s.(dp0
Vcyieivz
p1
I1
sVd93j4z3
p2
I1
s.(dp0
Vcyieivz
p1
I1
sVd96ty7s
p2
I1
s.(dp0
Vcyieivz
p1
I1
sVd99x341
p2
I1
s.(dp0
Vcyieivz
p1
I1
sVd9b2vm3
p2
I1
s.(dp0
Vcyieivz
p1
I1
sVd9em5h8
p2
I1
s.(dp0
Vcyieivz
p1
I1
sVd9eq2x5
p2
I1
s.(dp0
Vcyieivz
p1
I1
sVd9eq2x5
p2
I1
s.(dp0
Vcyieivz
p1
I1
sVd9ied5z
p2
I1
s.(dp0
Vcyieivz
p1
I1
sVd9jwzif
p2
I1
s.(dp0
Vcy(dp0
Vcyieivz
p1
I1
sVdt68u5w
p2
I1
s.