(dp0
Vd0guknn
p1
I1
sVd3p8nlz
p2
I1
sVd5u2wih
p3
I1
sVd4v1sdu
p4
I1
sVdof8ggs
p5
I1
sVdkkjp8h
p6
I1
sVdnt4m3x
p7
I1
sVd8sqe19
p8
I1
sVcyj56ry
p9
I1
sVd200b9i
p10
I1
sVd497pq8
p11
I1
sVd86nz2r
p12
I1
sVdcdmnhp
p13
I1
sVd31al7i
p14
I1
sVdamjkiv
p15
I1
sVd8bfwj8
p16
I1
sVdo8ps5a
p17
I1
sVdsgpkjh
p18
I1
sVdnp2vs0
p19
I1
sVczgy3k3
p20
I1
sVdfy88ha
p21
I1
sVd9doyrk
p22
I1
sVdac0i1k
p23
I1
sVdnd34dh
p24
I1
sVdk72mn1
p25
I1
sVcyp9ld0
p26
I1
sVdcl262v
p27
I1
sVdnr15ff
p28
I1
sVd0jh4t8
p29
I1
sVdt5jy8l
p30
I1
sVdb5gh4m
p31
I1
sVdrt50i0
p32
I1
sVdk15nqd
p33
I1
sVdn6y05e
p34
I1
sVd5myshk
p35
I1
sVdongdqj
p36
I1
sVd0mr9bb
p37
I1
sVde0h5qk
p38
I1
sVdozdxxs
p39
I1
sVdhkn0mo
p40
I1
sVde9rinu
p41
I1
sVd3g0843
p42
I3
sVd0lq0ze
p43
I1
sVd19sooj
p44
I1
sVd926g5j
p45
I1
sVd1c671s
p46
I1
sVdgzpc5a
p47
I2
sVczj7uc0
p48
I1
sVd9bz5to
p49
I1
sVd19hcmn
p50
I1
sVdch78cn
p51
I1
sVdhzzcw6
p52
I1
sVd8iw8l7
p53
I1
sVd8u45xa
p54
I1
sVdbmz69f
p55
I1
sVd3tqwii
p56
I1
sVdbmmg3y
p57
I1
sVddut6rf
p58
I1
sVdbf7sae
p59
I1
sVdnnandv
p60
I1
sVdnos2dr
p61
I1
sVdsry4s2
p62
I1
sVdmk3qpa
p63
I1
sVdmmggx3
p64
I1
sVd0rios7
p65
I1
sVd7k23oe
p66
I1
sVdbixp0a
p67
I1
sVdo2ovqv
p68
I1
sVdc3uh4y
p69
I1
sVdelzzw0
p70
I1
sVd514nbs
p71
I1
sVdj7m0ea
p72
I1
sVdpj9nlx
p73
I1
sVdn9q427
p74
I1
sVdep04na
p75
I1
sVdrrat6r
p76
I1
sVd90v8oo
p77
I1
sVdi5uil0
p78
I1
sVdgtpcsp
p79
I1
sVd0woyn5
p80
I1
s.