(dp0
Vd1h6w4f
p1
I1
sVd6nwpd0
p2
I1
sVczpc031
p3
I1
sVd0o73w1
p4
I1
sVd5zrd37
p5
I1
sVdhjfxuc
p6
I1
sVdh21rkb
p7
I1
sVdnexhst
p8
I1
sVdf5yqvi
p9
I3
sVcypjpe3
p10
I1
sVd1xozho
p11
I1
sVcznnoi0
p12
I1
sVd181ckm
p13
I1
sVd1b9z5b
p14
I1
sVd0i6kxb
p15
I1
sVd7d4zf3
p16
I1
sVd7l9rph
p17
I1
sVd45bq4i
p18
I1
sVcyqnps3
p19
I1
sVdaij363
p20
I2
sVd0a5l33
p21
I1
sVdfpz4jk
p22
I1
sVdg3onu6
p23
I1
sVddsa1g9
p24
I1
sVdj3tpuz
p25
I1
sVdc4g8e1
p26
I1
sVd1oqzt9
p27
I1
sVd1o3k1c
p28
I1
sVdro3dsn
p29
I1
sVdnr3e06
p30
I1
sVdbjtn22
p31
I1
sVdmula69
p32
I1
sVd2bm5kn
p33
I1
sVd3grcop
p34
I1
sVd0h48b2
p35
I1
sVd3cd13e
p36
I1
sVdhkq459
p37
I1
sVdhmzb9y
p38
I1
sVd71971q
p39
I1
sVdir1qs6
p40
I1
sVd4ik2pl
p41
I1
sVd9xf95z
p42
I1
sVdel3pm0
p43
I1
sVd4evo9l
p44
I1
sVdfaa9nq
p45
I1
sVd5ivwws
p46
I2
sVddcbt3e
p47
I1
sVd4yg8f9
p48
I1
sVddc2ntk
p49
I1
sVd3d0995
p50
I1
sVdnrhmfo
p51
I1
sVd79xaz5
p52
I1
sVdech8jz
p53
I1
sVdiedqyu
p54
I1
sVdap2usq
p55
I1
sVdottw5k
p56
I1
sVdjkbkio
p57
I1
sVdsl6ivb
p58
I1
sVd0u8zav
p59
I1
sVd8yct01
p60
I1
sVd4psq3i
p61
I1
sVdbc7tob
p62
I1
sVdf5y2jr
p63
I1
sVdbv0pmq
p64
I1
sVdc3ofyn
p65
I1
sVdde9koc
p66
I1
sVdmjbf62
p67
I1
sVd3s1oph
p68
I1
sVd0aq3u6
p69
I1
sVdgt9gls
p70
I1
sVcz5tqre
p71
I1
sVdfxm9sh
p72
I1
sVdaxbgzg
p73
I1
sVdccm24y
p74
I1
sVdjjagf0
p75
I1
sVd074v35
p76
I1
sVd0akqz3
p77
I1
sVd4zn5ls
p78
I1
sVd7enb46
p79
I2
sVd2lrvlw
p80
I2
sVddd7y6g
p81
I1
sVdpw5xnw
p82
I1
sVd3zg5og
p83
I1
sVdk1avpe
p84
I2
sVd35qfa1
p85
I1
sVd26mx8f
p86
I1
sVdouxab5
p87
I1
sVde1qnsv
p88
I1
sVcznzvgh
p89
I1
sVcyrs9tk
p90
I1
sVcyssfd1
p91
I1
sVd1h6sf0
p92
I1
sVd7bn7er
p93
I1
sVdee4isz
p94
I1
sVd8hoqy1
p95
I1
sVdf5yvjv
p96
I1
sVd0yuwd5
p97
I1
sVd5n8psk
p98
I1
sVd2nt90s
p99
I1
sVdfbz1b0
p100
I1
sVd296qh4
p101
I1
sVd30wjhl
p102
I1
sVdminjza
p103
I1
sVcywwqqf
p104
I1
sVd97tcdu
p105
I1
sVcypkw3s
p106
I1
sVd0yqx3a
p107
I1
sVczk1gji
p108
I1
sVdk17hnk
p109
I1
sVd4ytly6
p110
I1
sVda00fa6
p111
I1
sVdrfypqj
p112
I1
sVd0d9czi
p113
I1
sVdesa4fj
p114
I1
sVdn0224o
p115
I1
sVdap6o24
p116
I1
sVd08ww79
p117
I1
sVd03t22n
p118
I1
sVde48606
p119
I1
sVd4b0w2p
p120
I1
sVd3gtl7m
p121
I1
sVd36lv9g
p122
I1
sVdgva08c
p123
I1
sVdai5pv1
p124
I1
sVcztjr6q
p125
I1
sVd6flrjv
p126
I1
sVd127pmz
p127
I1
sVdd1yji5
p128
I1
sVczbb3cf
p129
I1
sVczyx83w
p130
I1
sVdhtixrt
p131
I1
sVdh4qqqf
p132
I1
sVdkst5uz
p133
I1
sVdgvrju1
p134
I2
s.