(dp0
Vcyj2m8p
p1
I1
s.(dp0
Vcyjbfxg
p1
I1
sVcyj2m8p
p2
I1
s.(dp0
Vcyjblxg
p1
I1
sVcyj2m8p
p2
I1
s.(dp0
Vcyjzzsa
p1
I1
sVcyj2m8p
p2
I1
s.(dp0
Vcykqsqz
p1
I1
sVcyj2m8p
p2
I1
s.(dp0
Vcylupl8
p1
I1
sVcyj2m8p
p2
I1
s.(dp0
Vcylzbpe
p1
I1
sVcyj2m8p
p2
I1
s.(dp0
Vcym0066
p1
I1
sVcyj2m8p
p2
I1
s.(dp0
Vcym3r4p
p1
I1
sVcyj2m8p
p2
I1
s.(dp0
Vcynuipi
p1
I1
sVcyj2m8p
p2
I1
s.(dp0
Vcyj2m8p
p1
I1
sVcyozg8j
p2
I1
s.(dp0
Vcyrso7i
p1
I1
sVcyj2m8p
p2
I1
s.(dp0
Vcyj2m8p
p1
I1
sVcysj4bg
p2
I1
s.(dp0
Vcyukf9l
p1
I1
sVcyj2m8p
p2
I1
s.(dp0
Vcywjgov
p1
I1
sVcyj2m8p
p2
I1
s.(dp0
Vcyydm63
p1
I1
sVcyj2m8p
p2
I1
s.(dp0
Vcyzj0g8
p1
I1
sVcyj2m8p
p2
I1
s.(dp0
Vcyzli4i
p1
I1
sVcyj2m8p
p2
I1
s.(dp0
Vcyzli4i
p1
I1
sVcyj2m8p
p2
I1
s.(dp0
Vcyzli4i
p1
I1
sVcyj2m8p
p2
I1
s.(dp0
Vcyzli4i
p1
I1
sVcyj2m8p
p2
I1
s.(dp0
Vcyzli4i
p1
I1
sVcyj2m8p
p2
I1
s.(dp0
Vcyzli4i
p1
I1
sVcyj2m8p
p2
I1
s.(dp0
Vcyzli4i
p1
I1
sVcyj2m8p
p2
I1
s.(dp0
Vcz36jv3
p1
I1
sVcyj2m8p
p2
I1
s.(dp0
Vcz36jv3
p1
I1
sVcyj2m8p
p2
I1
s.(dp0
Vcz36jv3
p1
I1
sVcyj2m8p
p2
I1
s.(dp0
Vcz36jv3
p1
I1
sVcyj2m8p
p2
I1
s.(dp0
Vcz47n4g
p1
I1
sVcyj2m8p
p2
I1
s.(dp0
Vcz4trv6
p1
I1
sVcyj2m8p
p2
I1
s.(dp0
Vcz543tu
p1
I1
sVcyj2m8p
p2
I1
s.(dp0
Vcz543tu
p1
I1
sVcyj2m8p
p2
I1
s.(dp0
Vcz5778t
p1
I1
sVcyj2m8p
p2
I1
s.(dp0
Vcz64otw
p1
I1
sVcyj2m8p
p2
I1
s.(dp0
Vcz86ww0
p1
I1
sVcyj2m8p
p2
I1
s.(dp0
Vcz875qq
p1
I1
sVcyj2m8p
p2
I1
s.(dp0
Vcza4556
p1
I1
sVcyj2m8p
p2
I1
s.(dp0
Vcza7ew9
p1
I1
sVcyj2m8p
p2
I1
s.(dp0
Vczatknd
p1
I1
sVcyj2m8p
p2
I1
s.(dp0
Vczf3xjm
p1
I1
sVcyj2m8p
p2
I1
s.(dp0
Vczgcw1h
p1
I1
sVcyj2m8p
p2
I1
s.(dp0
Vczgl1uo
p1
I1
sVcyj2m8p
p2
I1
s.(dp0
Vczgq7ob
p1
I1
sVcyj2m8p
p2
I1
s.(dp0
Vczgrecu
p1
I1
sVcyj2m8p
p2
I1
s.(dp0
Vczgslga
p1
I1
sVcyj2m8p
p2
I1
s.(dp0
Vczgv1nx
p1
I1
sVcyj2m8p
p2
I1
s.(dp0
Vczh2yzr
p1
I1
sVcyj2m8p
p2
I1
s.(dp0
Vczi1oqp
p1
I1
sVcyj2m8p
p2
I1
s.(dp0
Vczmycpq
p1
I1
sVcyj2m8p
p2
I1
s.(dp0
Vczn3033
p1
I1
sVcyj2m8p
p2
I1
s.(dp0
Vczo7g9g
p1
I1
sVcyj2m8p
p2
I1
s.(dp0
Vczoaa0t
p1
I1
sVcyj2m8p
p2
I1
s.(dp0
Vczoh4t0
p1
I1
sVcyj2m8p
p2
I1
s.(dp0
Vczq7slu
p1
I1
sVcyj2m8p
p2
I1
s.(dp0
Vcztb3nx
p1
I1
sVcyj2m8p
p2
I1
s.(dp0
Vcztckd2
p1
I1
sVcyj2m8p
p2
I1
s.(dp0
Vcztckd2
p1
I1
sVcyj2m8p
p2
I1
s.(dp0
Vcztdcrr
p1
I1
sVcyj2m8p
p2
I1
s.(dp0
Vczthldk
p1
I1
sVcyj2m8p
p2
I1
s.(dp0
Vczud3c0
p1
I1
sVcyj2m8p
p2
I1
s.(dp0
Vczvc8v6
p1
I1
sVcyj2m8p
p2
I1
s.(dp0
Vczw4294
p1
I1
sVcyj2m8p
p2
I1
s.(dp0
Vczxcmgg
p1
I1
sVcyj2m8p
p2
I1
s.(dp0
Vczxh4er
p1
I1
sVcyj2m8p
p2
I1
s.(dp0
Vczxh4er
p1
I1
sVcyj2m8p
p2
I1
s.(dp0
Vcyj2m8p
p1
I1
sVczz02h9
p2
I1
s.(dp0
Vczzsw0b
p1
I1
sVcyj2m8p
p2
I1
s.(dp0
Vcyj2m8p
p1
I1
sVd00656e
p2
I1
s.(dp0
Vd00ywy5
p1
I1
sVcyj2m8p
p2
I1
s.(dp0
Vd02611p
p1
I1
sVcyj2m8p
p2
I1
s.(dp0
Vd02oqoe
p1
I1
sVcyj2m8p
p2
I1
s.(dp0
Vd03b9qq
p1
I1
sVcyj2m8p
p2
I1
s.(dp0
Vd05cf88
p1
I1
sVcyj2m8p
p2
I1
s.(dp0
Vd06bakr
p1
I1
sVcyj2m8p
p2
I1
s.(dp0
Vd075slv
p1
I1
sVcyj2m8p
p2
I1
s.(dp0
Vd07xi6s
p1
I1
sVcyj2m8p
p2
I1
s.(dp0
Vd07xi6s
p1
I1
sVcyj2m8p
p2
I1
s.(dp0
Vd07xi6s
p1
I1
sVcyj2m8p
p2
I1
s.(dp0
Vd083jbp
p1
I1
sVcyj2m8p
p2
I1
s.(dp0
Vd08lkbd
p1
I1
sVcyj2m8p
p2
I1
s.(dp0
Vd0bd9y9
p1
I1
sVcyj2m8p
p2
I1
s.(dp0
Vd0bsdng
p1
I1
sVcyj2m8p
p2
I1
s.(dp0
Vd0bsdng
p1
I1
sVcyj2m8p
p2
I1
s.(dp0
Vd0cidz0
p1
I1
sVcyj2m8p
p2
I1
s.(dp0
Vd0e333i
p1
I1
sVcyj2m8p
p2
I1
s.(dp0
Vcyj2m8p
p1
I1
sVd0gjjcn
p2
I1
s.(dp0
Vcyj2m8p
p1
I1
sVd0gjjcn
p2
I1
s.(dp0
Vd0gl7o7
p1
I1
sVcyj2m8p
p2
I1
s.(dp0
Vd0gl7o7
p1
I1
sVcyj2m8p
p2
I1
s.(dp0
Vd0h3cn7
p1
I1
sVcyj2m8p
p2
I1
s.(dp0
Vd0h9kds
p1
I1
sVcyj2m8p
p2
I1
s.(dp0
Vd0i0feb
p1
I1
sVcyj2m8p
p2
I1
s.(dp0
Vd0j37kv
p1
I1
sVcyj2m8p
p2
I1
s.(dp0
Vd0mtk1f
p1
I1
sVcyj2m8p
p2
I1
s.(dp0
Vd0quo8p
p1
I1
sVcyj2m8p
p2
I1
s.(dp0
Vd0tjtm0
p1
I1
sVcyj2m8p
p2
I1
s.(dp0
Vd0tjtm0
p1
I1
sVcyj2m8p
p2
I1
s.(dp0
Vd0y1c9l
p1
I1
sVcyj2m8p
p2
I1
s.(dp0
Vd0y3z03
p1
I1
sVcyj2m8p
p2
I1
s.(dp0
Vd0y7ni4
p1
I1
sVcyj2m8p
p2
I1
s.(dp0
Vd0yczh5
p1
I1
sVcyj2m8p
p2
I1
s.(dp0
Vd0yihs1
p1
I1
sVcyj2m8p
p2
I1
s.(dp0
Vcyj2m8p
p1
I1
sVd12c0y7
p2
I1
s.(dp0
Vd12xq1a
p1
I1
sVcyj2m8p
p2
I1
s.(dp0
Vd1438b6
p1
I1
sVcyj2m8p
p2
I1
s.(dp0
Vd1438b6
p1
I1
sVcyj2m8p
p2
I1
s.(dp0
Vd14apb2
p1
I1
sVcyj2m8p
p2
I1
s.(dp0
Vd17j9i3
p1
I1
sVcyj2m8p
p2
I1
s.(dp0
Vd1(dp0
Vdtb9xre
p1
I1
sVcyj2m8p
p2
I1
s.