(dp0
Vd5b78bd
p1
I1
sVd3h46ws
p2
I1
sVd47ezkt
p3
I1
sVd3uunzn
p4
I1
sVd0wncqp
p5
I1
sVd8d56yp
p6
I1
sVd2r4l3g
p7
I1
sVd3ja7lr
p8
I1
sVdhss6d2
p9
I2
sVd8jl3oc
p10
I1
sVd1r8lyh
p11
I1
sVdcl6wno
p12
I1
sVditgy32
p13
I1
sVddy2pbr
p14
I1
sVd9ov1wk
p15
I1
sVd6t0p8n
p16
I1
sVdbqj5xg
p17
I1
sVdbd2pk1
p18
I1
sVdbcw28h
p19
I1
sVd60ikcq
p20
I1
sVdasbeql
p21
I1
sVdnbbm0x
p22
I1
sVdrba8yf
p23
I1
sVd5az3s7
p24
I1
sVde2gx28
p25
I1
sVdmt9jkk
p26
I1
sVd2wsd4v
p27
I2
sVd8gj0nj
p28
I1
sVdhvjfb8
p29
I1
sVdemj0xk
p30
I1
sVddclaff
p31
I1
sVd3sznek
p32
I1
sVdimldpi
p33
I1
sVdhdt0fq
p34
I1
sVdhv7kxs
p35
I1
sVd1vtbp5
p36
I1
sVddyholk
p37
I1
s.