(dp0
Vcyhylo3
p1
I1
s.(dp0
Vcyhylo3
p1
I1
sVcyi5mdn
p2
I1
s.(dp0
Vcyhylo3
p1
I1
sVcyibhtc
p2
I1
s.(dp0
Vcyhylo3
p1
I1
sVcyif6yw
p2
I1
s.(dp0
Vcyje1xg
p1
I1
sVcyhylo3
p2
I1
s.(dp0
Vcyhylo3
p1
I1
sVcyjfkxc
p2
I1
s.(dp0
Vcyhylo3
p1
I1
sVcyjja7d
p2
I1
s.(dp0
Vcyhylo3
p1
I1
sVcykmlpq
p2
I1
s.(dp0
Vcyhylo3
p1
I1
sVcykmlpq
p2
I1
s.(dp0
Vcyhylo3
p1
I1
sVcyl6ad2
p2
I1
s.(dp0
Vcyhylo3
p1
I1
sVcylnrne
p2
I1
s.(dp0
Vcyltfld
p1
I1
sVcyhylo3
p2
I1
s.(dp0
Vcyhylo3
p1
I1
sVcylycha
p2
I1
s.(dp0
Vcyhylo3
p1
I1
sVcyn54aj
p2
I1
s.(dp0
Vcyhylo3
p1
I1
sVcyniybu
p2
I1
s.(dp0
Vcyhylo3
p1
I1
sVcyniybu
p2
I1
s.(dp0
Vcyhylo3
p1
I1
sVcynsr7m
p2
I1
s.(dp0
Vcyhylo3
p1
I1
sVcynxeto
p2
I1
s.(dp0
Vcyhylo3
p1
I1
sVcyotti1
p2
I1
s.(dp0
Vcyhylo3
p1
I1
sVcyoz6kd
p2
I1
s.(dp0
Vcyhylo3
p1
I1
sVcypinz4
p2
I1
s.(dp0
Vcypq9uw
p1
I1
sVcyhylo3
p2
I1
s.(dp0
Vcyqxe83
p1
I1
sVcyhylo3
p2
I1
s.(dp0
Vcyrynsa
p1
I1
sVcyhylo3
p2
I1
s.(dp0
Vcyhylo3
p1
I1
sVcys55td
p2
I1
s.(dp0
Vcyhylo3
p1
I1
sVcyst8x5
p2
I1
s.(dp0
Vcytlt60
p1
I1
sVcyhylo3
p2
I1
s.(dp0
Vcyhylo3
p1
I1
sVcyuojx2
p2
I1
s.(dp0
Vcyhylo3
p1
I1
sVcyvcpgo
p2
I1
s.(dp0
Vcyhylo3
p1
I1
sVcywntfr
p2
I1
s.(dp0
Vcyhylo3
p1
I1
sVcyx0695
p2
I1
s.(dp0
Vcyhylo3
p1
I1
sVcyxqvk1
p2
I1
s.(dp0
Vcyhylo3
p1
I1
sVcyz7zyl
p2
I1
s.(dp0
Vcyhylo3
p1
I1
sVcz0p5mr
p2
I1
s.(dp0
Vcyhylo3
p1
I1
sVcz0pez3
p2
I1
s.(dp0
Vcyhylo3
p1
I1
sVcz0xk6i
p2
I1
s.(dp0
Vcyhylo3
p1
I1
sVcz17hqh
p2
I1
s.(dp0
Vcyhylo3
p1
I1
sVcz30c6d
p2
I1
s.(dp0
Vcyhylo3
p1
I1
sVcz5hxa3
p2
I1
s.(dp0
Vcyhylo3
p1
I1
sVcz6lmay
p2
I1
s.(dp0
Vcyhylo3
p1
I1
sVcz6lmay
p2
I1
s.(dp0
Vcz9h2n6
p1
I1
sVcyhylo3
p2
I1
s.(dp0
Vcyhylo3
p1
I1
sVczbf61m
p2
I1
s.(dp0
Vcyhylo3
p1
I1
sVczbkvl9
p2
I1
s.(dp0
Vcyhylo3
p1
I1
sVczbn178
p2
I1
s.(dp0
Vcyhylo3
p1
I1
sVczbsyeb
p2
I1
s.(dp0
Vcyhylo3
p1
I1
sVczc5fqq
p2
I1
s.(dp0
Vczcevuv
p1
I1
sVcyhylo3
p2
I1
s.(dp0
Vcyhylo3
p1
I1
sVczdam62
p2
I1
s.(dp0
Vcyhylo3
p1
I1
sVczds4r7
p2
I1
s.(dp0
Vcyhylo3
p1
I1
sVcze18v0
p2
I1
s.(dp0
Vcyhylo3
p1
I1
sVcze18v0
p2
I1
s.(dp0
Vcyhylo3
p1
I1
sVcze18v0
p2
I1
s.(dp0
Vcyhylo3
p1
I1
sVczem8s7
p2
I1
s.(dp0
Vczfxsjl
p1
I1
sVcyhylo3
p2
I1
s.(dp0
Vcyhylo3
p1
I1
sVczgd6cp
p2
I1
s.(dp0
Vczge2lt
p1
I1
sVcyhylo3
p2
I1
s.(dp0
Vcyhylo3
p1
I1
sVczgka4w
p2
I1
s.(dp0
Vcyhylo3
p1
I1
sVczgn01s
p2
I1
s.(dp0
Vcyhylo3
p1
I1
sVczgo2d0
p2
I1
s.(dp0
Vcyhylo3
p1
I1
sVczgwe3w
p2
I1
s.(dp0
Vcyhylo3
p1
I1
sVczhy8zm
p2
I1
s.(dp0
Vcyhylo3
p1
I1
sVczi49ys
p2
I1
s.(dp0
Vczidtye
p1
I1
sVcyhylo3
p2
I1
s.(dp0
Vcyhylo3
p1
I1
sVczivhkf
p2
I1
s.(dp0
Vcyhylo3
p1
I1
sVczjgy8r
p2
I1
s.(dp0
Vcyhylo3
p1
I1
sVczkqzco
p2
I1
s.(dp0
Vcyhylo3
p1
I1
sVczm435o
p2
I1
s.(dp0
Vcyhylo3
p1
I1
sVczmc505
p2
I1
s.(dp0
Vcyhylo3
p1
I1
sVczmpni8
p2
I1
s.(dp0
Vcyhylo3
p1
I1
sVczn0pkb
p2
I1
s.(dp0
Vczokpki
p1
I1
sVcyhylo3
p2
I1
s.(dp0
Vcyhylo3
p1
I1
sVczp9mai
p2
I1
s.(dp0
Vczpmxac
p1
I1
sVcyhylo3
p2
I1
s.(dp0
Vczqvvgw
p1
I1
sVcyhylo3
p2
I1
s.(dp0
Vczqx723
p1
I1
sVcyhylo3
p2
I1
s.(dp0
Vcyhylo3
p1
I1
sVczr3laq
p2
I1
s.(dp0
Vcyhylo3
p1
I1
sVczr69fw
p2
I1
s.(dp0
Vcyhylo3
p1
I1
sVczrcuya
p2
I1
s.(dp0
Vcyhylo3
p1
I1
sVczrcuya
p2
I1
s.(dp0
Vcyhylo3
p1
I1
sVczrltbl
p2
I1
s.(dp0
Vcyhylo3
p1
I1
sVczsmczn
p2
I1
s.(dp0
Vcyhylo3
p1
I1
sVczspu0c
p2
I1
s.(dp0
Vcyhylo3
p1
I1
sVczt6uqh
p2
I1
s.(dp0
Vcyhylo3
p1
I1
sVczta8x7
p2
I1
s.(dp0
Vcyhylo3
p1
I1
sVcztrith
p2
I1
s.(dp0
Vcyhylo3
p1
I1
sVczttb4w
p2
I1
s.(dp0
Vczu7872
p1
I1
sVcyhylo3
p2
I1
s.(dp0
Vczvfbfr
p1
I1
sVcyhylo3
p2
I1
s.(dp0
Vcyhylo3
p1
I1
sVczviotl
p2
I1
s.(dp0
Vcyhylo3
p1
I1
sVczvqkzq
p2
I1
s.(dp0
Vcyhylo3
p1
I1
sVczw0cva
p2
I1
s.(dp0
Vcyhylo3
p1
I1
sVczwf0xq
p2
I1
s.(dp0
Vczws0l9
p1
I1
sVcyhylo3
p2
I1
s.(dp0
Vcyhylo3
p1
I1
sVczz2ol6
p2
I1
s.(dp0
Vczzcsit
p1
I1
sVcyhylo3
p2
I1
s.(dp0
Vcyhylo3
p1
I1
sVczzyxeb
p2
I1
s.(dp0
Vcyhylo3
p1
I1
sVczzzs81
p2
I1
s.(dp0
Vcyhylo3
p1
I1
sVd001bfq
p2
I1
s.(dp0
Vcyhylo3
p1
I1
sVd01ghe2
p2
I1
s.(dp0
Vd01gz7u
p1
I1
sVcyhylo3
p2
I1
s.(dp0
Vd01py03
p1
I1
sVcyhylo3
p2
I1
s.(dp0
Vcyhylo3
p1
I1
sVd02n3up
p2
I1
s.(dp0
Vcyhylo3
p1
I1
sVd02z2u4
p2
I1
s.(dp0
Vd036de9
p1
I1
sVcyhylo3
p2
I1
s.(dp0
Vd036de9
p1
I1
sVcyhylo3
p2
I1
s.(dp0
Vcyhylo3
p1
I1
sVd03c22l
p2
I1
s.(dp0
Vcyhylo3
p1
I1
sVd03c9tt
p2
I1
s.(dp0
Vcy(dp0
Vcyhylo3
p1
I1
sVdtf1tn9
p2
I1
s.