(dp0
Vd6suotl
p1
I1
sVd0omidt
p2
I1
sVd3v87nd
p3
I1
sVdodu8ul
p4
I1
sVdoa4hul
p5
I1
sVdbc1sh3
p6
I1
sVd454ni1
p7
I1
sVdqjnhjf
p8
I1
sVcz4gya0
p9
I1
sVdfzwj4f
p10
I1
sVdceiu36
p11
I1
sVdcm1gmo
p12
I1
sVdrsb6yk
p13
I1
sVd18uasw
p14
I1
sVdt8okup
p15
I1
sVd03g03s
p16
I1
sVd8f2zii
p17
I1
sVddmvod8
p18
I1
sVddipgo2
p19
I1
sVda9gxkj
p20
I1
sVcyix6k4
p21
I1
sVdbz7x9x
p22
I1
sVdklr5n1
p23
I1
sVd1jg825
p24
I1
sVdh1qbue
p25
I1
sVdqidt4n
p26
I1
sVdkzf6ht
p27
I5
sVdd711mt
p28
I1
sVda1gjyr
p29
I1
sVd2rbt0y
p30
I1
sVdrxqiq5
p31
I1
sVd224r65
p32
I2
sVdmjtyze
p33
I1
sVd0ku12m
p34
I1
sVdjpt9db
p35
I1
sVdf9fcau
p36
I2
sVd6exqtc
p37
I1
sVdcqjqfq
p38
I1
sVdo6yfr5
p39
I1
sVcyi77l6
p40
I1
sVczsgj1r
p41
I1
sVdrybs14
p42
I1
sVczs745s
p43
I1
sVcz0kwtn
p44
I1
sVd2cay0u
p45
I1
sVd3xhgeg
p46
I1
sVd5wxjnw
p47
I1
sVdh2xwrf
p48
I1
sVdfmby0r
p49
I1
sVd4kx4ws
p50
I1
sVd56jbvo
p51
I2
sVdrt0v18
p52
I3
sVd57s2am
p53
I1
sVdf87zdo
p54
I1
sVd8kd4v4
p55
I1
sVd8s4ml6
p56
I1
sVdexqkmy
p57
I1
sVd346ei8
p58
I1
sVd3f63tb
p59
I1
sVdfn22ba
p60
I1
sVdi96lbr
p61
I1
sVd3b4jrb
p62
I2
sVdch2hbh
p63
I1
sVd053icc
p64
I1
sVd2i5u3y
p65
I1
sVdggjwxw
p66
I1
sVdcrhlh5
p67
I1
sVdh47zpl
p68
I1
sVde8uam9
p69
I1
sVd7witx0
p70
I1
sVdg1tw0z
p71
I1
sVd2s7x2q
p72
I1
sVdi2lxo6
p73
I1
sVdrpkaz5
p74
I1
sVdk520d6
p75
I1
sVdmqk46n
p76
I1
sVd68xqar
p77
I1
sVdd9z0rk
p78
I1
sVdepe1d8
p79
I1
sVdp6w3p8
p80
I1
sVdpbdq4h
p81
I1
sVd37w7j4
p82
I1
sVd77g5p6
p83
I1
sVdfjg5le
p84
I1
sVd4x89kv
p85
I2
sVd88uwh8
p86
I1
sVdijie1u
p87
I1
sVd1uyorz
p88
I2
sVd1hsilp
p89
I2
sVdhg1zlh
p90
I1
sVd8j4ftt
p91
I1
sVddyqcp7
p92
I1
sVdne2z83
p93
I1
sVd7c04b7
p94
I1
sVd9e3n92
p95
I2
sVdiotpan
p96
I1
sVd58kj5j
p97
I1
sVczgvtc1
p98
I1
sVd4lcg2v
p99
I1
sVdpnfalj
p100
I1
sVdizipsq
p101
I1
sVdhit0f6
p102
I1
sVd39y6ce
p103
I1
sVde8x6xo
p104
I1
sVdbljx3n
p105
I1
sVdn1looq
p106
I2
sVddp7j8t
p107
I1
sVdnqacb6
p108
I1
sVdbkkc2n
p109
I1
sVddiihql
p110
I1
sVde8spo5
p111
I1
sVd15zc0j
p112
I1
sVd09x5ec
p113
I1
sVd0941kj
p114
I1
sVdihs1dz
p115
I2
sVd91jk3s
p116
I1
sVcyv8sdh
p117
I1
sVdkv5o5a
p118
I1
sVde4c4p6
p119
I1
sVd2e9ihf
p120
I2
sVd9c615b
p121
I1
sVdirdw2p
p122
I1
sVdjb8uvt
p123
I1
sVd3bz7ik
p124
I1
sVd05lpiy
p125
I1
sVdey4c4c
p126
I1
sVdj52xo7
p127
I1
sVdey44n5
p128
I1
sVdgjwmdq
p129
I1
sVdhvgtv8
p130
I1
sVd7qbl30
p131
I1
sVd321okz
p132
I1
sVd12p4vu
p133
I1
sVdqgsv0a
p134
I1
sVdg7b5a8
p135
I1
sVd36t30p
p136
I1
sVd9f2fpq
p137
I1
sVdjk9nf0
p138
I1
sVdhpnvy6
p139
I1
sVdtevdq3
p140
I1
sVd2fwg03
p141
I1
sVdoqk5s4
p142
I1
sVd2quqhb
p143
I1
sVddxl7dc
p144
I1
sVd1cyrcd
p145
I1
sVd1vuwfh
p146
I1
sVd5np3tv
p147
I1
sVd1yu4zk
p148
I1
sVdkd2ghx
p149
I7
sVds1wcni
p150
I2
sVdp925mg
p151
I1
sVdds1wbi
p152
I1
sVd7ubhk0
p153
I1
sVd45pr67
p154
I1
sVd1q9foj
p155
I1
sVdb8eszo
p156
I1
sVd0nytiy
p157
I1
sVdhvvftk
p158
I1
sVd3zyzuj
p159
I1
sVdo83rac
p160
I1
sVdqifk3a
p161
I1
sVdcwa5kk
p162
I1
sVdkp18dg
p163
I1
sVd8347me
p164
I1
sVdoxlu5j
p165
I1
sVczxinr2
p166
I1
sVddx8iau
p167
I1
sVd694hdn
p168
I1
sVd19xwqp
p169
I1
sVd5bsw6s
p170
I1
sVd2uy1pk
p171
I2
sVd3x0s08
p172
I1
sVdc6baeu
p173
I1
sVdtj1o1p
p174
I1
sVd7hsfwl
p175
I1
sVdaykdqf
p176
I1
sVdsaa9fs
p177
I1
sVdik75j8
p178
I1
sVd47k858
p179
I1
sVdb1h1bp
p180
I1
sVddgzs8a
p181
I1
sVdf5gw1w
p182
I1
sVddc4i8y
p183
I1
sVd4zzbs6
p184
I1
sVd3rbeo7
p185
I1
sVdou0r0b
p186
I1
sVdh67kuy
p187
I1
sVdgo9kf2
p188
I1
sVd1kof6w
p189
I1
sVdb6fyol
p190
I1
sVdklyrmr
p191
I1
sVdck7qao
p192
I1
sVd7wlqv9
p193
I1
sVdrpqi8y
p194
I1
sVdk836as
p195
I1
sVddgkirr
p196
I1
sVdeey8f5
p197
I1
sVde8mdbg
p198
I1
sVdfh0rcx
p199
I1
sVd3eluh5
p200
I1
sVd42ut98
p201
I1
sVd9n4plp
p202
I1
sVdcf4qi1
p203
I2
sVdacbg85
p204
I1
sVdicju1y
p205
I1
sVd7vjl77
p206
I1
sVdd9ykui
p207
I1
sVdjzsfgw
p208
I1
sVdq0pupa
p209
I2
sVdbjrba3
p210
I1
sVdcvu6u2
p211
I1
sVdb43a9w
p212
I1
sVdrg6ltz
p213
I1
sVdtb85ag
p214
I1
sVcz7gcc3
p215
I1
sVd5jfkh4
p216
I1
sVd6x2c68
p217
I1
sVdjarak5
p218
I1
sVd7lqyby
p219
I1
sVdd94ljo
p220
I1
sVdil6e8h
p221
I1
sVdgt9gls
p222
I1
sVdk3l9of
p223
I1
sVcyxmbha
p224
I2
sVdmvy8uz
p225
I1
sVd4x87cn
p226
I1
sVd2dbfnn
p227
I1
sVd1ng9jv
p228
I1
sVcyvwo8h
p229
I1
sVdir617l
p230
I1
sVdrz0h1w
p231
I1
sVds56du9
p232
I1
sVdqjpjlw
p233
I1
sVdhn8mzn
p234
I1
sVd4hiacb
p235
I2
sVdemoxax
p236
I1
sVcyigxzh
p237
I1
sVdmgktp4
p238
I2
sVdiatp8d
p239
I1
sVdcw0z66
p240
I1
sVd62gh50
p241
I1
sVddbxi3w
p242
I1
sVd35ezto
p243
I1
sVd99fy9s
p244
I1
sVdnanlo7
p245
I1
sVd90bpx6
p246
I1
sVczxl7ac
p247
I1
sVdk55r2s
p248
I1
sVdav5bon
p249
I1
sVd8qwydo
p250
I1
sVd5i065d
p251
I1
sVddf1wjd
p252
I1
sVd4q3ssf
p253
I1
sVddmx0qt
p254
I1
sVdjwncqr
p255
I1
sVcz9431t
p256
I1
sVdj0zi9e
p257
I1
sVdgpob1t
p258
I1
sVdppmpg6
p259
I1
sVdcxo4zs
p260
I1
sVdh0texb
p261
I1
sVdn22s5y
p262
I2
sVd0zluxj
p263
I1
sVd4ooi5m
p264
I1
sVcypnslm
p265
I1
sVda2wwhk
p266
I1
sVdbyt0rd
p267
I1
sVd6ug8en
p268
I1
sVcysutgx
p269
I2
sVd34n393
p270
I1
sVdiovi0b
p271
I1
sVdkk0964
p272
I1
sVdoi7skg
p273
I1
sVdderj9z
p274
I1
sVcyllmub
p275
I1
sVdduyhfd
p276
I1
sVd392un9
p277
I1
sVdjeoczx
p278
I1
sVdp1gr5y
p279
I1
sVczt51zo
p280
I1
sVdo38lyn
p281
I1
sVczdw4yp
p282
I1
sVd06w970
p283
I1
sVdmqjvdr
p284
I1
sVd1bywx7
p285
I1
sVcyouwk7
p286
I1
sVdjme0oq
p287
I1
sVdccd4uo
p288
I1
sVd8kkkfn
p289
I1
sVddbox97
p290
I1
sVd1fmqc1
p291
I1
sVdr4ikvb
p292
I1
sVdftsv1y
p293
I1
sVd6df52s
p294
I1
sVdp7fz7l
p295
I1
sVd3rumjl
p296
I1
sVdpatqnt
p297
I1
sVde0toif
p298
I1
sVd4cye3w
p299
I1
sVdkm7mgs
p300
I1
sVddmxyhw
p301
I1
sVdcl4uac
p302
I1
sVczhc3lt
p303
I1
sVd6svuao
p304
I1
sVdc5jxi6
p305
I1
sVdera750
p306
I1
sVczh01mf
p307
I1
sVd7h7pi9
p308
I1
sVdkm62rb
p309
I1
sVddof507
p310
I1
sVdfhawwc
p311
I1
sVczdk6yp
p312
I1
sVdb0owb0
p313
I1
sVd7kk039
p314
I1
sVd6z1kxe
p315
I1
sVdfcy7wa
p316
I1
sVdo248u1
p317
I1
sVd32a9ro
p318
I1
sVczddaar
p319
I1
sVdobbyve
p320
I1
sVdktrwk2
p321
I1
sVddabn87
p322
I1
sVd8uxuld
p323
I1
sVdn6hk66
p324
I1
sVd5dn23o
p325
I1
sVd1b8tkh
p326
I1
sVdang75h
p327
I1
sVdbe786d
p328
I1
sVdd16p15
p329
I1
sVd2zl0g9
p330
I1
sVddai80b
p331
I1
sVd5hnt8h
p332
I1
sVde440td
p333
I1
sVdifow4h
p334
I1
sVdenetjs
p335
I1
sVdsvoj5j
p336
I3
sVdaubhqs
p337
I1
sVdths5vl
p338
I1
sVdebqkuo
p339
I1
sVdd86j0x
p340
I2
sVd95byzx
p341
I1
sVdohd8t0
p342
I1
sVddclw6w
p343
I1
sVd37jpgz
p344
I1
sVd6652wx
p345
I1
sVdeghxtl
p346
I1
sVdsicung
p347
I1
sVcz2qlsu
p348
I1
sVdc16ulv
p349
I1
sVdp6wzum
p350
I1
sVdj837in
p351
I1
sVdfgl5gu
p352
I1
sVdjp9g7e
p353
I1
sVdpszbd6
p354
I1
sVdsv2od2
p355
I1
sVczux2pl
p356
I1
sVdfin1zi
p357
I1
sVdh6zlty
p358
I1
sVd2wij9v
p359
I2
sVdi5uil0
p360
I1
sVdrg9dx1
p361
I1
sVd1q0os3
p362
I1
sVdhuy02v
p363
I1
sVd03t9b4
p364
I1
sVdouptka
p365
I1
sVczzc3q9
p366
I1
sVdg5qrk8
p367
I1
sVd2b7ey3
p368
I1
sVd4m219u
p369
I1
sVd1vlm76
p370
I1
sVdp5ldtj
p371
I1
sVd022boq
p372
I1
sVd68l6y0
p373
I1
sVdae6ulq
p374
I1
sVd7eh14u
p375
I1
sVd2wxhpn
p376
I1
sVdn8eicw
p377
I1
sVdauya05
p378
I1
sVdctvgkt
p379
I1
sVdgbdz4j
p380
I1
sVd9vt5rl
p381
I1
sVddmzjcp
p382
I1
sVd1hs3xk
p383
I2
sVd5ugn21
p384
I1
sVd1pffjg
p385
I1
sVdtc3ghx
p386
I1
sVdo4wnpq
p387
I1
sVd9829n9
p388
I1
sVdhnr25p
p389
I1
sVcza8v1v
p390
I1
sVcz06n4b
p391
I1
sVd3dep10
p392
I1
sVd8f0oka
p393
I1
sVdsp3m4n
p394
I1
sVdecrjzh
p395
I1
sVdcb4uw6
p396
I1
sVd8362gu
p397
I1
sVdo2s0l6
p398
I1
sVdkiwhlv
p399
I1
sVd9afct4
p400
I1
sVdgvuvt1
p401
I1
sVdpu1xtz
p402
I1
sVdqmuwrj
p403
I1
sVdrw619j
p404
I1
sVd2tuq8i
p405
I1
sVdmex1lf
p406
I1
sVczvcosw
p407
I1
sVdinaqwt
p408
I1
sVd16dhgq
p409
I2
sVcywg6bw
p410
I1
sVczcd6y5
p411
I1
sVd4jq9xx
p412
I1
sVdkpzp9f
p413
I1
sVdff9pdb
p414
I1
sVd5043sc
p415
I1
sVd1vaguo
p416
I1
sVczvqq7z
p417
I1
sVdb8wfil
p418
I1
sVczh2hvb
p419
I1
sVd1i3sh6
p420
I1
sVdioasyr
p421
I1
sVdcpm5yp
p422
I1
sVd69mte5
p423
I1
sVd45mnku
p424
I1
sVd4ps6x7
p425
I1
sVdmt85ti
p426
I1
sVdcaneda
p427
I1
sVd06jcb9
p428
I1
sVd1v1cdt
p429
I1
sVds4gls8
p430
I1
sVdjehd3k
p431
I1
sVcyoxtm7
p432
I1
sVd3oql5z
p433
I1
sVd6vptyh
p434
I1
sVd0g9ngj
p435
I1
sVd19snnw
p436
I1
sVdksydqc
p437
I1
sVdkdxg47
p438
I1
sVd6szq0u
p439
I1
sVdcbdon8
p440
I1
sVczzhs97
p441
I1
sVd6bxhz7
p442
I1
sVczpa4aq
p443
I1
sVczv0949
p444
I3
sVdd6qikh
p445
I1
sVd5p8hag
p446
I1
sVcyyt5ch
p447
I1
sVdhqi2t7
p448
I1
sVdeh89mu
p449
I1
sVd55d29e
p450
I1
sVddr4d9g
p451
I1
sVd7qcw3v
p452
I1
sVd2pi1qr
p453
I1
sVd7ulkmv
p454
I1
sVd3uomat
p455
I1
sVdcw3phu
p456
I1
sVd2jtqjy
p457
I1
sVdkusp9t
p458
I1
sVd2g0zz5
p459
I1
sVdcw4b86
p460
I1
sVd1mtabx
p461
I2
sVdh9p3zy
p462
I1
sVczgyih8
p463
I1
sVdr5f3xz
p464
I1
sVczs1ass
p465
I1
sVdh9h1p0
p466
I1
sVd62ibht
p467
I1
sVdh590q9
p468
I1
sVd5ppum1
p469
I1
sVdeb0zzk
p470
I1
sVdgcmdyc
p471
I1
sVde4vdbf
p472
I1
sVdpbuchu
p473
I1
sVczbp04d
p474
I1
sVdpdvj6t
p475
I1
sVd0gqdth
p476
I1
sVdf5x2ju
p477
I1
sVd9iwwig
p478
I1
sVdagk7m3
p479
I1
sVdrtmq94
p480
I1
sVd070rnf
p481
I1
sVdir78m0
p482
I1
sVdetyfsk
p483
I1
sVddcq8ul
p484
I1
sVdbq5mhy
p485
I1
sVd9a5boa
p486
I1
sVdkazndw
p487
I1
sVdfeq35u
p488
I1
sVde8tdq6
p489
I1
sVdbnto3x
p490
I1
sVd1gtvq5
p491
I1
sVdjyix72
p492
I1
sVdo9iljn
p493
I2
sVd047zxe
p494
I1
sVdfnfln6
p495
I1
sVdgjdw8u
p496
I1
sVd48ryax
p497
I1
sVd3bxa7r
p498
I1
sVdci5g4y
p499
I1
sVd46w3oa
p500
I1
sVd0em3pd
p501
I1
sVdh78tbi
p502
I1
sVdiu7jtk
p503
I1
sVdjhqjm2
p504
I1
sVdt4weuz
p505
I1
sVdrmzyoz
p506
I1
sVdt42cje
p507
I1
sVdha7lrh
p508
I1
sVddny6ep
p509
I1
sVcz2jrri
p510
I1
sVdf9ghzu
p511
I1
sVdcz6czn
p512
I1
sVdnd1xgj
p513
I1
sVd54kf2z
p514
I1
sVcykk0k9
p515
I1
sVd32ji8q
p516
I1
sVd99dpki
p517
I1
sVd4rw3r3
p518
I1
sVcz7hlrc
p519
I1
sVd0o0w5x
p520
I1
sVdcq4cau
p521
I1
sVd1teiv8
p522
I1
sVdta941n
p523
I1
sVcys5qwq
p524
I1
sVd5fkpzn
p525
I2
sVdd2o4a1
p526
I1
sVdg4w4tg
p527
I1
sVd5n9893
p528
I1
sVdbck13w
p529
I1
sVdg8xjyz
p530
I1
sVd9aes5s
p531
I1
sVd1j17e7
p532
I1
sVcyrqqdy
p533
I1
sVdd18a93
p534
I1
sVdqumo7j
p535
I1
sVdawpw8k
p536
I1
sVdmrqtn3
p537
I2
sVd2jvqbx
p538
I1
sVd0sw6vw
p539
I1
sVd2x5hb0
p540
I1
sVdr18idp
p541
I1
sVd9nb45t
p542
I1
sVdeab7jd
p543
I1
sVdipq4jj
p544
I2
sVdcngu49
p545
I1
sVdftrggz
p546
I1
sVdsfx4vv
p547
I1
sVdgmnqza
p548
I1
sVd9d69oa
p549
I1
sVcz16h27
p550
I1
sVd43t3t0
p551
I1
sVdnsc111
p552
I1
sVd9s93j7
p553
I1
sVd3pecmw
p554
I1
sVdb12pta
p555
I3
sVda8ec4e
p556
I1
sVdebly0i
p557
I1
sVcymml47
p558
I1
sVd9wfzom
p559
I1
sVdiyf230
p560
I1
sVd1xhwfp
p561
I1
sVdmro1lo
p562
I1
sVdkrbupa
p563
I2
sVdi848jn
p564
I1
sVd26dmtp
p565
I1
sVd7qj56r
p566
I1
sVdd4s1me
p567
I1
sVddnuu17
p568
I1
sVd8coezz
p569
I1
sVdcaeulw
p570
I1
sVdh7x9ci
p571
I2
sVd8knjyi
p572
I1
sVd56jkg4
p573
I1
sVd4xcwtl
p574
I1
sVd0g36rl
p575
I1
sVdclb2h6
p576
I1
sVdac325m
p577
I1
sVdn3vwxu
p578
I1
sVd0p6517
p579
I1
sVd7j4jx0
p580
I1
sVddbsh93
p581
I1
sVd4668ji
p582
I1
sVdik9wsz
p583
I1
sVd0ipizj
p584
I1
sVdhk9e4h
p585
I1
sVdcjyf36
p586
I1
sVd4gpbs3
p587
I1
sVdaxundg
p588
I1
sVdirkleu
p589
I1
sVdi16pdn
p590
I1
sVd10o92i
p591
I1
sVdhetbmi
p592
I1
sVdkr5ofi
p593
I1
sVde4brgu
p594
I2
sVdmpkzyp
p595
I1
sVdb1t720
p596
I1
sVd0t6024
p597
I1
sVd2h0jvn
p598
I1
sVdf0x254
p599
I1
sVdcdqzbw
p600
I2
sVdhctm4u
p601
I1
sVdpgulh3
p602
I1
sVdr4r7g9
p603
I1
sVdf4apus
p604
I1
sVdk35xne
p605
I1
sVdjmi6g1
p606
I1
sVdd02e0e
p607
I1
sVdjjtrko
p608
I1
sVdispnx3
p609
I1
sVdj88m8g
p610
I1
sVd4bb7ub
p611
I1
sVdeg4c7h
p612
I1
sVd2whk15
p613
I1
sVdns1v3m
p614
I1
sVdkzbty4
p615
I1
sVd65fzqk
p616
I1
sVd4d1jzg
p617
I4
sVdmuf6ew
p618
I1
sVdd41wur
p619
I1
sVdbwjo3x
p620
I1
sVczulnsb
p621
I1
sVd2e0nx2
p622
I1
sVdgy62j0
p623
I1
sVdcooqvn
p624
I1
sVczc5fqq
p625
I1
sVdntafdr
p626
I1
sVdpq60pp
p627
I1
sVd2naow8
p628
I1
sVddltm67
p629
I1
sVd197mp7
p630
I2
sVdag2fue
p631
I1
sVd0ojezn
p632
I2
sVdn82osb
p633
I1
sVczpcf5r
p634
I1
sVdrjuhap
p635
I1
sVd6rks9s
p636
I1
sVdnqkerc
p637
I1
sVd24jc2t
p638
I1
sVcz4g22l
p639
I1
sVdgdqxyr
p640
I1
sVdfbut04
p641
I1
sVdj95zyv
p642
I2
sVd7yfi94
p643
I1
sVdfa2usc
p644
I1
sVdp1ddrm
p645
I1
sVdeaolnq
p646
I1
sVd63q6kw
p647
I1
sVdg35eis
p648
I1
sVd4b5sd1
p649
I1
sVdkyb3fn
p650
I1
sVczajmla
p651
I2
sVdq4yjrc
p652
I1
sVcz1uej8
p653
I1
sVdachi9y
p654
I1
sVddq6t67
p655
I1
sVd7kqp8e
p656
I1
sVdiso09h
p657
I1
sVdhwipqn
p658
I1
sVdertjfx
p659
I1
sVdfw9eww
p660
I1
sVdc0repu
p661
I1
sVdkfwpws
p662
I1
sVdphmzfx
p663
I1
sVdp2ge24
p664
I1
sVd5skzq7
p665
I1
sVdpk0n27
p666
I1
sVdd6gr7n
p667
I4
sVd5hny2w
p668
I1
sVd9evcjs
p669
I1
sVdae4dtv
p670
I1
sVdncq4ue
p671
I1
sVddaquws
p672
I3
sVd8u9vx2
p673
I1
sVdhy10ni
p674
I1
sVczk4ixy
p675
I1
sVd9kszwh
p676
I2
sVcykl3xa
p677
I1
sVcyrtpuo
p678
I1
sVda70ahn
p679
I1
sVdfgm037
p680
I1
sVd9vhild
p681
I1
sVd0tanoe
p682
I1
sVdcffrfe
p683
I2
sVdfl2qrw
p684
I1
sVdk9d27g
p685
I1
sVdc7loi5
p686
I1
sVd4u0z8k
p687
I1
sVd8can6e
p688
I1
sVddholi7
p689
I2
sVcz7so2b
p690
I1
sVczmnj4n
p691
I1
sVd18g55a
p692
I1
sVd7hvrq8
p693
I1
sVd2j5mho
p694
I1
sVd2zykgi
p695
I1
sVd54pm4l
p696
I1
sVdfrqe6e
p697
I1
sVd75nkvx
p698
I1
sVczndbh4
p699
I1
sVdh52s4f
p700
I1
sVdf1yt6o
p701
I1
sVd62noof
p702
I1
sVdgm070z
p703
I1
sVdde308r
p704
I1
sVdcppnk1
p705
I1
sVdpx5ey6
p706
I1
sVddkn5lr
p707
I1
sVdbzh0su
p708
I1
sVd3iw5wb
p709
I1
sVdg91bh9
p710
I1
sVd2y0psi
p711
I1
sVdbnecgz
p712
I1
sVdnhj1d5
p713
I1
sVd0ozyxu
p714
I1
sVdexqcdy
p715
I1
sVd3n6jic
p716
I1
sVdkjv1r3
p717
I1
sVd27ypi1
p718
I2
sVdikq2lp
p719
I1
sVd24iacq
p720
I1
sVd1geh5y
p721
I1
sVdbicdt8
p722
I1
sVd4ntmhc
p723
I2
sVd587x35
p724
I1
sVd0ca4ja
p725
I1
sVczxw4nm
p726
I1
sVdjvzh6r
p727
I1
sVd8vo8j5
p728
I2
sVdawf7dv
p729
I1
sVdamzj5t
p730
I2
sVd7egjhg
p731
I1
sVcz178ii
p732
I1
sVd62m97u
p733
I1
sVd54sord
p734
I1
sVd9z6387
p735
I1
sVdcurpi5
p736
I1
sVd39n8bc
p737
I1
sVds8tjpj
p738
I1
sVd1kjcj3
p739
I1
sVd3akw6d
p740
I1
sVdq7eae7
p741
I1
sVdciw3yv
p742
I1
sVdjxxpri
p743
I1
sVcyrqhu5
p744
I1
sVdgth6au
p745
I1
sVdrloq8r
p746
I1
sVd6bhecg
p747
I1
sVddkp50y
p748
I2
sVd0buoi3
p749
I1
sVda3oyck
p750
I1
sVdjz6mth
p751
I1
sVdh2mm55
p752
I1
sVd6sle4h
p753
I1
sVdafvamc
p754
I1
sVddr25l8
p755
I1
sVd900s06
p756
I1
sVdfom4k8
p757
I1
sVd2or0z1
p758
I1
sVd9i2nm0
p759
I1
sVde708wc
p760
I2
sVd9p0cst
p761
I1
sVdfpn1fk
p762
I1
sVdstcuf4
p763
I1
sVdd9dku8
p764
I4
sVdfkrzfl
p765
I1
sVdfab58c
p766
I2
sVd4no6ey
p767
I1
sVd5ucxv9
p768
I1
sVdaxriiu
p769
I1
sVdi9mlle
p770
I1
sVddclukx
p771
I1
sVcz9rxmk
p772
I1
sVdf3wesc
p773
I1
sVcymi51q
p774
I1
sVd5mw2lu
p775
I1
sVdqw4mso
p776
I1
sVd3seapy
p777
I1
sVd6xmr2y
p778
I1
sVd9a1iqk
p779
I1
sVdfyrqis
p780
I1
sVdpkfmsm
p781
I1
sVcz4nytq
p782
I1
sVd0xsdug
p783
I1
sVdcex26l
p784
I1
sVd2xwi4n
p785
I1
sVdp2kjs8
p786
I1
sVdi66fp5
p787
I1
sVddomtyo
p788
I1
sVcz4z76g
p789
I1
sVd0k3ci8
p790
I1
sVcyovzvg
p791
I3
sVdg0caws
p792
I2
sVdk3km62
p793
I1
sVdhxru6c
p794
I1
sVdavs63d
p795
I2
sVd7os7xb
p796
I1
sVd3qyatw
p797
I1
sVdmvnzwp
p798
I1
sVcz1wgpw
p799
I2
sVdqf9qfz
p800
I1
sVds83gz0
p801
I1
sVdiq46az
p802
I1
sVd7rekhk
p803
I1
sVdhixt8m
p804
I1
sVdrdgi3a
p805
I2
sVd99bxbv
p806
I1
sVd0fw8uk
p807
I1
sVd1pcc0p
p808
I1
sVdp6psdr
p809
I1
sVd36yq7f
p810
I1
sVd0tb6i7
p811
I1
sVd247li0
p812
I1
sVddn7w3b
p813
I1
sVd5nlsqr
p814
I1
sVdqpxf71
p815
I1
sVcz7gek3
p816
I1
sVd0nq94v
p817
I1
sVdnqluxk
p818
I2
sVcz92jw5
p819
I1
sVd19bvkz
p820
I2
sVd4uw2fh
p821
I1
sVdbievlo
p822
I1
sVcywo55c
p823
I1
sVdffkwo5
p824
I2
sVdjwpuw8
p825
I1
sVd9wvm84
p826
I1
sVdnt6z1b
p827
I1
sVdidsiie
p828
I1
sVdr9o93a
p829
I1
sVd18og6i
p830
I1
sVdjwv6s8
p831
I1
sVddof6s7
p832
I1
sVd4ugxcs
p833
I1
sVdbuyoww
p834
I1
sVdfgre4v
p835
I1
sVddka6pa
p836
I1
sVd0sna4p
p837
I1
sVd5y1wcv
p838
I1
sVdgv5cfe
p839
I2
sVdr53tqf
p840
I2
sVda04m06
p841
I1
sVdd7sbcr
p842
I1
sVd7ejsjw
p843
I1
sVd5vtk33
p844
I1
sVdb2gg53
p845
I1
sVderd6ws
p846
I2
sVd4uxkoh
p847
I1
sVd1i6kmg
p848
I1
sVdc6mbpr
p849
I1
sVdb7y4sx
p850
I1
sVdb72qzv
p851
I1
sVddanoww
p852
I1
sVd2i1hcx
p853
I1
sVczzqmjd
p854
I1
sVde0pz59
p855
I1
sVdclejvh
p856
I1
sVdjp8icq
p857
I2
sVd370po8
p858
I1
sVdk525js
p859
I2
sVcyzsnlh
p860
I1
sVdgu5uyq
p861
I1
sVd0ml1hy
p862
I1
sVdiu3pt7
p863
I1
sVdows17d
p864
I1
sVd42trro
p865
I4
sVd4y9owv
p866
I2
sVdfzwam0
p867
I1
sVdet7n7h
p868
I2
sVd0mlacw
p869
I1
sVdp6764d
p870
I1
sVdcdrb7f
p871
I1
sVdcqih5b
p872
I2
sVdbaf2nv
p873
I1
sVd946mye
p874
I1
sVdhuzgfj
p875
I1
sVdpw8e31
p876
I1
sVdgtvnnr
p877
I1
sVdk09flo
p878
I1
sVdjw0y08
p879
I1
sVdd68azv
p880
I1
sVdawe526
p881
I1
sVdgmzw6m
p882
I1
sVdhszwc3
p883
I1
sVdb1a06z
p884
I1
sVdddkj5s
p885
I2
sVdmq6yri
p886
I1
sVdn5yfen
p887
I1
sVdbtnjik
p888
I2
sVdbfy90x
p889
I1
sVd1x4muf
p890
I1
sVd0lhw7g
p891
I1
sVd654jai
p892
I1
sVdp5h9sk
p893
I1
sVcz6adcq
p894
I1
sVdbj1hri
p895
I1
sVddeq1vs
p896
I1
sVdmq72dm
p897
I1
sVd1h9wnn
p898
I2
sVd401shr
p899
I1
sVdce28iv
p900
I2
sVdhs444k
p901
I1
sVds9w2i0
p902
I2
sVdo2ryiy
p903
I1
sVcytojae
p904
I1
sVd6eyu3v
p905
I1
sVdeenhli
p906
I3
sVdr3xizi
p907
I1
sVdsviopy
p908
I1
sVdfkmclt
p909
I1
sVdmrdklz
p910
I1
sVd1raffv
p911
I1
sVd14pl28
p912
I1
sVd77xz3e
p913
I1
sVd68vg8x
p914
I1
sVddwz66d
p915
I1
sVdn02g9v
p916
I2
sVdhv1nj9
p917
I1
sVd0tyhje
p918
I1
sVdkqj3ff
p919
I4
sVdcwavyo
p920
I1
sVdg5zitz
p921
I1
sVdc3zxew
p922
I1
sVde55icb
p923
I1
sVd3c4s7q
p924
I1
sVdmyd7jq
p925
I3
sVd1de2v8
p926
I1
sVd202cnb
p927
I1
sVdc8c4qa
p928
I1
sVdfbmdji
p929
I1
sVdghsplq
p930
I1
sVd9y4yit
p931
I1
sVdff5u1n
p932
I1
sVdd994ps
p933
I1
sVd6hv9p9
p934
I1
sVddwbs2k
p935
I1
sVdckizgn
p936
I3
sVcz78rf8
p937
I1
sVddtm7v9
p938
I1
sVd2rglrm
p939
I1
sVdbwx378
p940
I1
sVdiprepi
p941
I1
sVcz0v4k3
p942
I1
sVdnrafqp
p943
I1
sVdtdvzot
p944
I3
sVd19udfx
p945
I1
sVdni3hs3
p946
I3
sVdqj523j
p947
I1
sVdao6kpz
p948
I1
sVd28ag09
p949
I1
sVdqgq6pf
p950
I1
sVdgccjxo
p951
I1
sVd4o1gd8
p952
I1
sVdgv6j6g
p953
I1
sVczn9ct1
p954
I1
sVdilpxri
p955
I1
sVd7v5v5w
p956
I1
sVdi5dc0e
p957
I1
sVdiqm0mj
p958
I1
sVdes8fqs
p959
I1
sVd2nyt3t
p960
I1
sVdp91czm
p961
I1
sVdd3vikb
p962
I1
sVd40jjlj
p963
I1
sVdhtg01i
p964
I1
sVdszhdyx
p965
I1
sVdbp4fm9
p966
I1
sVd68jaic
p967
I1
sVd67urzf
p968
I1
sVdi56e3v
p969
I1
sVdbqups8
p970
I1
sVdbi793p
p971
I1
sVd41rzkp
p972
I1
sVdfn6cx5
p973
I1
sVd6g73hn
p974
I1
sVd4dfpqf
p975
I1
sVddtlhpz
p976
I1
sVdib9kgs
p977
I1
sVdi86jwd
p978
I1
sVd2zbzen
p979
I1
sVd8sxfs1
p980
I1
sVd8chrzo
p981
I1
sVdfh39qj
p982
I1
sVd7m9gmd
p983
I1
sVd7oavn0
p984
I1
sVcyj5330
p985
I1
sVddrbu5l
p986
I2
sVddaw92w
p987
I2
sVd7fq2h5
p988
I1
sVd2n72i7
p989
I1
sVd19miwm
p990
I1
sVdhk9a29
p991
I1
sVdfzipqn
p992
I1
sVd2p6p7e
p993
I1
sVd7cmaca
p994
I2
sVdcja52p
p995
I1
sVdd8euqi
p996
I1
sVdgb8uw5
p997
I1
sVd9r5s26
p998
I1
sVd85qwa8
p999
I1
sVcypuk4k
p1000
I1
sVd948j7c
p1001
I1
sVd6sx02t
p1002
I1
sVdfk541m
p1003
I2
sVdg1d2tt
p1004
I1
sVdnypt3s
p1005
I1
sVd83vjwy
p1006
I1
sVdoypga5
p1007
I1
sVd9mt5if
p1008
I2
sVd7j231l
p1009
I1
sVczv1qv5
p1010
I1
sVd3yreo9
p1011
I1
sVd9f3mep
p1012
I1
sVd98z1d9
p1013
I1
sVdr3c6fl
p1014
I1
sVd1wbqh6
p1015
I1
sVdoczwao
p1016
I2
sVdddark9
p1017
I1
sVd07deke
p1018
I1
sVd2dberw
p1019
I1
sVd60ex83
p1020
I1
sVdggvet9
p1021
I1
sVdbad0tj
p1022
I1
sVd0o535a
p1023
I1
sVdj2mpoy
p1024
I1
sVdknammn
p1025
I1
sVddwyr59
p1026
I1
sVd5kmqf7
p1027
I1
sVdn3jn5h
p1028
I1
sVd7z0u0g
p1029
I1
sVcz586pj
p1030
I1
sVdj23336
p1031
I1
sVd7wjsjo
p1032
I2
sVdh0ceoj
p1033
I1
sVd8zz3u9
p1034
I1
sVdbqe0l9
p1035
I1
sVd6lq5rh
p1036
I2
sVdca21xo
p1037
I1
sVdjdmlih
p1038
I1
sVd55mgm0
p1039
I1
sVdhxz6o4
p1040
I2
sVd4576qc
p1041
I2
sVdkgp1bd
p1042
I1
sVd5ni6dt
p1043
I1
sVd2vkmaj
p1044
I1
sVddkr4o8
p1045
I1
sVd8ruozs
p1046
I1
sVd0ha6oi
p1047
I1
sVdmnmh6h
p1048
I1
sVdjmf7tb
p1049
I1
sVdcjxp38
p1050
I1
sVdcj8l9g
p1051
I1
sVdglpfv6
p1052
I1
sVd1kxi30
p1053
I1
sVcyq67i9
p1054
I1
sVdd1rr0i
p1055
I1
sVd64wdz2
p1056
I1
sVdca351p
p1057
I1
sVdjlo7bq
p1058
I1
sVdmjxfir
p1059
I1
sVd0bu20g
p1060
I1
sVdps1zjx
p1061
I1
sVddpokgi
p1062
I1
sVde5rrm0
p1063
I1
sVde49tz7
p1064
I1
sVd3s830b
p1065
I1
sVd7qwf87
p1066
I2
sVd4tshfy
p1067
I1
sVd4d54ys
p1068
I1
sVd0fweii
p1069
I1
sVd49kj70
p1070
I1
sVdifax5k
p1071
I1
sVd4awvwo
p1072
I1
sVd1bzrdi
p1073
I1
sVd241e9r
p1074
I1
sVcyvszvx
p1075
I2
sVdoudwmf
p1076
I1
sVdcwjutv
p1077
I1
sVcynfluc
p1078
I1
sVdj7xqkt
p1079
I1
sVd4lmsjr
p1080
I1
sVdne367r
p1081
I1
sVd5jk4pv
p1082
I1
sVdepp4nd
p1083
I2
sVdandm8j
p1084
I1
sVdhtd9zw
p1085
I1
sVd7kzt4y
p1086
I1
sVdircqwr
p1087
I1
sVdf1x9g2
p1088
I1
sVcz87set
p1089
I1
sVd268i0c
p1090
I1
sVdn5z6j1
p1091
I1
sVd0kriqg
p1092
I1
sVd5qf9pd
p1093
I1
sVdfxh5df
p1094
I1
sVd73tfn9
p1095
I1
sVd4vppeo
p1096
I1
sVdfdelp0
p1097
I2
sVd51f4jy
p1098
I1
sVddp7ffh
p1099
I1
sVd7k8lnj
p1100
I1
sVdtcaixl
p1101
I1
sVd1sc6rh
p1102
I1
sVdje2i84
p1103
I1
sVdp6wae7
p1104
I1
sVd7e8g4w
p1105
I1
sVd548poa
p1106
I1
sVdb6ong8
p1107
I1
sVd3oxv92
p1108
I1
sVdiypifa
p1109
I1
sVdrzqu7t
p1110
I1
sVd35386o
p1111
I1
sVd18mipd
p1112
I1
sVdeta8fw
p1113
I1
sVd2wm5zy
p1114
I1
sVdbyq888
p1115
I1
sVd1kzbv7
p1116
I1
sVdgvf6sv
p1117
I1
sVcyrduzp
p1118
I1
sVdrt51kj
p1119
I1
sVd2hx8m3
p1120
I1
sVd8d2w54
p1121
I1
sVd3t6nfz
p1122
I1
sVd2n441w
p1123
I1
sVdbq6m18
p1124
I2
sVd9goc57
p1125
I1
sVdflxc01
p1126
I1
sVd78pu25
p1127
I3
sVd62cq8d
p1128
I1
sVd98p8t6
p1129
I1
sVdbn9a2w
p1130
I1
sVdqd0h0u
p1131
I1
sVd2vcrfy
p1132
I1
sVdh11tdw
p1133
I1
sVd5jw315
p1134
I1
sVdd9o7sa
p1135
I1
sVddk9vl4
p1136
I1
sVdk60qea
p1137
I1
sVdc1puc1
p1138
I1
sVcyx0vg8
p1139
I1
sVdhjmc6q
p1140
I1
sVd1bp5fi
p1141
I2
sVdem0z7b
p1142
I1
sVd8py45r
p1143
I2
sVd2qoi50
p1144
I1
sVdajfqb1
p1145
I2
sVdkougtk
p1146
I1
sVd9cwrrs
p1147
I1
sVdfbkkc3
p1148
I1
sVdrt41gk
p1149
I1
sVd15vy8n
p1150
I3
sVdtjdd7s
p1151
I1
sVczt8346
p1152
I3
sVczy39ku
p1153
I1
sVdnyojmq
p1154
I1
sVdg1gysx
p1155
I1
sVd0096pm
p1156
I1
sVczh9gpb
p1157
I1
sVcz8p5k5
p1158
I1
sVdrefwd9
p1159
I1
sVdmz8yzk
p1160
I1
sVd547h3p
p1161
I1
sVdam36qd
p1162
I1
sVd84pb5q
p1163
I1
sVd4iqqwq
p1164
I1
sVdiuzir4
p1165
I1
sVd3ulfce
p1166
I1
sVdf8e1l0
p1167
I1
sVd5ip1rq
p1168
I1
sVcyljyhe
p1169
I1
sVdb3r7ot
p1170
I1
sVd9s4ob9
p1171
I2
sVdh0m0cu
p1172
I1
sVdct73ss
p1173
I1
sVd0v6ksk
p1174
I1
sVd64rsa0
p1175
I1
sVdcjspxn
p1176
I2
sVd9zx8rq
p1177
I1
sVdcyu374
p1178
I2
sVd76uo93
p1179
I1
sVczi9sp8
p1180
I1
sVcz1bovk
p1181
I1
sVdaxlb8q
p1182
I1
sVdqnc6f9
p1183
I1
sVdc09uhm
p1184
I1
sVcysnyu7
p1185
I1
sVdikkzk0
p1186
I1
sVd6v204k
p1187
I1
sVdmgb1x2
p1188
I1
sVdbjc8go
p1189
I1
sVd1jjodx
p1190
I1
sVd0nfni9
p1191
I1
sVd9fx6xz
p1192
I1
sVd5mzw75
p1193
I1
sVd6lauj2
p1194
I1
sVd8timpm
p1195
I1
sVd7wql2n
p1196
I1
sVczrbi6e
p1197
I1
sVdmn6rhn
p1198
I1
sVdkbjwlh
p1199
I1
sVd4c9ycz
p1200
I1
sVd1tir4u
p1201
I3
sVd8vjr1s
p1202
I1
sVdsvxg85
p1203
I1
sVdfet0ay
p1204
I1
sVczetw04
p1205
I1
sVdmzfklp
p1206
I1
sVdj7ggtg
p1207
I1
sVdgmupyi
p1208
I1
sVdesi7j8
p1209
I1
sVd2ykqq5
p1210
I1
sVdiso8uq
p1211
I1
sVd00ggza
p1212
I1
sVdrxtbgt
p1213
I1
sVdot27vq
p1214
I1
sVd19iedr
p1215
I1
sVddhhg58
p1216
I1
sVdj5vkcu
p1217
I1
sVczjufcj
p1218
I1
sVd5yfqsp
p1219
I1
sVdgopm4q
p1220
I1
sVdpews0e
p1221
I1
sVdedd1jm
p1222
I1
sVdi9zzdv
p1223
I1
sVdgb69ba
p1224
I1
sVdqr9z8d
p1225
I1
sVdpcyo7b
p1226
I1
sVddln1lv
p1227
I1
sVd8iz8xm
p1228
I1
sVdeev38q
p1229
I1
sVd4gzexm
p1230
I1
sVd52mhz2
p1231
I1
sVdbp4nef
p1232
I1
sVddogvtx
p1233
I1
sVd86t55m
p1234
I1
sVdn2t1cx
p1235
I1
sVd891ah2
p1236
I1
sVdhk9we7
p1237
I1
sVd0tm0q1
p1238
I1
sVdbpxmph
p1239
I1
sVd1uh2dx
p1240
I1
sVdppkvx7
p1241
I1
sVdo1h579
p1242
I1
sVdb7r5xb
p1243
I1
sVcyjojzh
p1244
I1
sVdfytrua
p1245
I1
sVda2xeq2
p1246
I1
sVdo96tw1
p1247
I1
sVcyxnn1c
p1248
I1
sVdpwa5qy
p1249
I1
sVczi6ha4
p1250
I1
sVdjirz4k
p1251
I1
sVdaomjsn
p1252
I1
sVd921ugs
p1253
I1
sVd0b6tu4
p1254
I1
sVd6dkcfg
p1255
I1
sVczflpxt
p1256
I1
sVdauzyqt
p1257
I2
sVdfwzvp5
p1258
I2
sVd1r1w8u
p1259
I1
sVdckncmm
p1260
I1
sVdscbvqx
p1261
I1
sVddbo7i9
p1262
I1
sVdc88dcp
p1263
I1
sVd9fsyrm
p1264
I1
sVd26rmrp
p1265
I1
sVda1eae8
p1266
I1
sVcyum0h1
p1267
I1
sVcylqr0b
p1268
I1
sVdi2wpg6
p1269
I1
sVdiprjsn
p1270
I1
sVcyigzhn
p1271
I1
sVczdina4
p1272
I1
sVdemk588
p1273
I1
sVdf4zyp0
p1274
I1
sVd1v60tp
p1275
I1
sVcz26evx
p1276
I1
sVd19wlm0
p1277
I1
sVd95846y
p1278
I1
sVdfa54fr
p1279
I1
sVdi8uyl6
p1280
I1
sVcyrm1f0
p1281
I1
sVdgdpuou
p1282
I1
sVd56z3je
p1283
I1
sVdjxy1uj
p1284
I1
sVdafow5s
p1285
I1
sVd02hi5v
p1286
I1
sVdbbrc9p
p1287
I1
sVdhgq385
p1288
I1
sVd15feyr
p1289
I1
sVdp6e6le
p1290
I1
sVdd2gwgl
p1291
I1
sVdjuko8f
p1292
I1
sVd9j8dsq
p1293
I2
sVdniojwe
p1294
I1
sVd20wjuh
p1295
I1
sVdjadtgn
p1296
I1
sVd9dslrf
p1297
I1
sVd6bea78
p1298
I1
sVdjzgzwl
p1299
I1
sVdpaxe19
p1300
I1
sVd782qva
p1301
I2
sVdbl2jyr
p1302
I1
sVdb245ko
p1303
I1
sVd9riyie
p1304
I1
sVczvzak1
p1305
I1
sVd6ul3of
p1306
I2
sVdbehznz
p1307
I1
sVd0zowd3
p1308
I1
sVddr866z
p1309
I1
sVdnl310o
p1310
I1
sVdb5aq23
p1311
I2
sVd0fr0hv
p1312
I1
sVdborc0e
p1313
I1
sVdcvook7
p1314
I1
sVdth61p1
p1315
I1
sVdg5aawi
p1316
I1
sVdgtp939
p1317
I1
sVdjvfp07
p1318
I1
sVd3bfgd2
p1319
I1
sVczem8s7
p1320
I1
sVdecfxvt
p1321
I1
sVd76o58e
p1322
I1
sVd4bz6w0
p1323
I1
sVd7ydtu9
p1324
I1
sVd7oiyeo
p1325
I1
sVdhssczh
p1326
I1
sVdcruxir
p1327
I1
sVdd6vtws
p1328
I1
sVd1wdy8k
p1329
I1
sVd6e6twi
p1330
I1
sVd0wknyl
p1331
I1
sVd8ituc3
p1332
I1
sVdo22wlo
p1333
I2
sVd9dklrp
p1334
I1
sVd8dzju3
p1335
I2
sVdnbtwv9
p1336
I1
sVd0adsqf
p1337
I1
sVdox06fs
p1338
I1
sVdbie55s
p1339
I1
sVdkfqash
p1340
I2
sVdhl4vcx
p1341
I1
sVdaumg1n
p1342
I2
sVcylflb1
p1343
I1
sVdd1f8z9
p1344
I1
sVd6om3ej
p1345
I1
sVd5n07db
p1346
I1
sVcyn34s2
p1347
I1
sVdd1v1ms
p1348
I1
sVd2wmvv2
p1349
I1
sVd5lu8fm
p1350
I1
sVd2cg93o
p1351
I1
sVczg5swh
p1352
I1
sVdc67nia
p1353
I1
sVd6zaq69
p1354
I1
sVd6wjegk
p1355
I1
sVd0w8504
p1356
I1
sVd2qaunl
p1357
I1
sVd2bdc2k
p1358
I1
sVdi73fxp
p1359
I1
sVdd799rq
p1360
I2
sVdqmgral
p1361
I1
sVd9tf1v9
p1362
I1
sVdf2288m
p1363
I1
sVd3sjtvn
p1364
I1
sVd5muhlo
p1365
I1
sVd2nu6hg
p1366
I1
sVd4hue9l
p1367
I3
sVdab6bxa
p1368
I1
sVczepw2z
p1369
I1
sVdphf4e1
p1370
I1
sVdnt5wj7
p1371
I1
sVde2ezco
p1372
I1
sVd0fxvc1
p1373
I1
sVd8s6t3d
p1374
I2
sVdcvlbm5
p1375
I2
sVcyz3vzn
p1376
I1
sVdnm1xiw
p1377
I1
sVdcsglnr
p1378
I1
sVd9uijgo
p1379
I1
sVd08wzis
p1380
I1
sVd5tib4v
p1381
I1
sVdqncan4
p1382
I1
sVd67frm0
p1383
I1
sVd6997en
p1384
I1
sVd1iwt6d
p1385
I1
sVd3kunge
p1386
I1
sVd51wuv6
p1387
I1
sVd1kqgvp
p1388
I1
sVdfoan36
p1389
I1
sVd7a1iop
p1390
I1
sVd6nqk9r
p1391
I1
sVd1ykp1g
p1392
I1
sVd2pwzyp
p1393
I1
sVdflrv9l
p1394
I1
sVdp678jp
p1395
I2
sVdorsgsj
p1396
I1
sVdb0c9ne
p1397
I1
sVdcw5tj7
p1398
I2
sVdo12s04
p1399
I1
sVdjfvhrg
p1400
I1
sVd7t3ysm
p1401
I1
sVcylbvzl
p1402
I1
sVdj9ntac
p1403
I1
sVd1ddxu2
p1404
I1
sVdku8qel
p1405
I1
sVdp8fhy8
p1406
I1
sVdih6nex
p1407
I1
sVdo1tgsa
p1408
I1
sVddccs66
p1409
I1
sVddjo8yc
p1410
I1
sVd6en15n
p1411
I1
sVd5o1r9j
p1412
I1
sVdjlclvv
p1413
I1
sVd24ext9
p1414
I1
sVczetmhi
p1415
I1
sVd3v4xyt
p1416
I1
sVdoi22l8
p1417
I1
sVdiet4tp
p1418
I4
sVdb0rjuz
p1419
I1
sVdiohyeb
p1420
I1
sVdeiq6fs
p1421
I1
sVdii3c41
p1422
I1
sVd9ogonn
p1423
I1
sVdgfbnnq
p1424
I1
sVd316bpq
p1425
I1
sVdn602a7
p1426
I1
sVcyotm2n
p1427
I1
sVcznwnon
p1428
I1
sVddm2zgy
p1429
I1
sVdcp19tg
p1430
I1
sVdrpe6h1
p1431
I1
sVd8j4wfk
p1432
I1
sVdhv6vpu
p1433
I1
sVd7iml4c
p1434
I2
sVdb5svc6
p1435
I1
sVdoaeeba
p1436
I2
sVdcl0gcq
p1437
I1
sVdtj3huh
p1438
I2
sVd0mywzi
p1439
I1
sVcyjurpx
p1440
I1
sVd2r5v2a
p1441
I1
sVdaqvpv1
p1442
I1
sVd1py9g1
p1443
I1
sVd1xwlup
p1444
I1
sVd9dup8s
p1445
I1
sVd7vpul2
p1446
I3
sVd7d0qt0
p1447
I1
sVdon0jee
p1448
I1
sVcz33e9g
p1449
I1
s.