(dp0
Vcz5axyx
p1
I1
s.(dp0
Vd291lev
p1
I1
sVcz5axyx
p2
I1
s.(dp0
Vcz5axyx
p1
I1
sVd31um3a
p2
I1
s.(dp0
Vcz5axyx
p1
I1
sVd382ore
p2
I1
s.(dp0
Vd3tznqd
p1
I1
sVcz5axyx
p2
I1
s.(dp0
Vcz5axyx
p1
I1
sVd4qu1pb
p2
I1
s.(dp0
Vdix4024
p1
I1
sVcz5axyx
p2
I1
s.(dp0
Vcz5axyx
p1
I1
sVdjc6fdv
p2
I1
s.(dp0
Vcz5axyx
p1
I1
sVdjvgf49
p2
I1
s.(dp0
Vdqaa5ii
p1
I1
sVcz5axyx
p2
I1
s.