(dp0
Vd0km1mm
p1
I1
sVczietz5
p2
I1
sVd40ebiq
p3
I1
sVdsp5jbc
p4
I1
sVdgj58kt
p5
I2
sVd217zcl
p6
I1
sVczem8s7
p7
I1
sVcyme235
p8
I1
sVd4a3v31
p9
I1
sVd9i76je
p10
I1
sVcyr4rej
p11
I1
sVd2h6oa9
p12
I1
sVd20z7t5
p13
I1
sVdhapxv9
p14
I1
sVdbj7yke
p15
I1
s.