(dp0
Vcyv7n1z
p1
I1
s.(dp0
Vczh5s8g
p1
I1
sVcyv7n1z
p2
I1
s.(dp0
Vcyv7n1z
p1
I1
sVczwdrp0
p2
I1
s.(dp0
Vd0gr9th
p1
I1
sVcyv7n1z
p2
I1
s.(dp0
Vcyv7n1z
p1
I1
sVd0qu3je
p2
I1
s.(dp0
Vd1hqbv2
p1
I1
sVcyv7n1z
p2
I1
s.(dp0
Vcyv7n1z
p1
I1
sVd1jmrx6
p2
I1
s.(dp0
Vd1t3k0h
p1
I1
sVcyv7n1z
p2
I1
s.(dp0
Vd2f8wsc
p1
I1
sVcyv7n1z
p2
I1
s.(dp0
Vcyv7n1z
p1
I1
sVd3655my
p2
I1
s.(dp0
Vcyv7n1z
p1
I1
sVd3mlnxb
p2
I1
s.(dp0
Vcyv7n1z
p1
I1
sVd4i3iu6
p2
I1
s.(dp0
Vcyv7n1z
p1
I1
sVd4mujwk
p2
I1
s.(dp0
Vd5n2yq7
p1
I1
sVcyv7n1z
p2
I1
s.(dp0
Vcyv7n1z
p1
I1
sVd6izgec
p2
I1
s.(dp0
Vd6throc
p1
I1
sVcyv7n1z
p2
I1
s.(dp0
Vd6uz2di
p1
I1
sVcyv7n1z
p2
I1
s.(dp0
Vcyv7n1z
p1
I1
sVd9vas6y
p2
I1
s.(dp0
Vdaxacrh
p1
I1
sVcyv7n1z
p2
I1
s.(dp0
Vdba5qxb
p1
I1
sVcyv7n1z
p2
I1
s.(dp0
Vcyv7n1z
p1
I1
sVdbnph29
p2
I1
s.(dp0
Vddjd1pp
p1
I1
sVcyv7n1z
p2
I1
s.(dp0
Vdecqp4j
p1
I1
sVcyv7n1z
p2
I1
s.(dp0
Vcyv7n1z
p1
I1
sVdf06lp0
p2
I1
s.(dp0
Vcyv7n1z
p1
I1
sVdf8wl46
p2
I1
s.(dp0
Vdfigebf
p1
I1
sVcyv7n1z
p2
I1
s.(dp0
Vdfk5979
p1
I1
sVcyv7n1z
p2
I1
s.(dp0
Vcyv7n1z
p1
I1
sVdfozp70
p2
I1
s.(dp0
Vcyv7n1z
p1
I1
sVdg4r4ve
p2
I1
s.(dp0
Vcyv7n1z
p1
I1
sVdgmnonm
p2
I1
s.(dp0
Vcyv7n1z
p1
I1
sVdhm028b
p2
I1
s.(dp0
Vdiocyzb
p1
I1
sVcyv7n1z
p2
I1
s.(dp0
Vcyv7n1z
p1
I1
sVdisvllg
p2
I1
s.(dp0
Vcyv7n1z
p1
I1
sVdj7czqq
p2
I1
s.(dp0
Vcyv7n1z
p1
I1
sVdmvrf6n
p2
I1
s.(dp0
Vcyv7n1z
p1
I1
sVdnes9y4
p2
I1
s.(dp0
Vcyv7n1z
p1
I1
sVdoey0bt
p2
I1
s.(dp0
Vcyv7n1z
p1
I1
sVdpack6r
p2
I1
s.(dp0
Vcyv7n1z
p1
I1
sVdr6fviz
p2
I1
s.(dp0
Vdsvpcgj
p1
I1
sVcyv7n1z
p2
I1
s.