(dp0
Vcyl7ih3
p1
I1
s.(dp0
Vcyn7md2
p1
I1
sVcyl7ih3
p2
I1
s.(dp0
Vcywo55c
p1
I1
sVcyl7ih3
p2
I1
s.(dp0
Vcyx5jhc
p1
I1
sVcyl7ih3
p2
I1
s.(dp0
Vcyxb0rn
p1
I1
sVcyl7ih3
p2
I1
s.(dp0
Vcyl7ih3
p1
I1
sVczi2vxx
p2
I1
s.(dp0
Vcyl7ih3
p1
I1
sVczkwx0j
p2
I1
s.(dp0
Vcyl7ih3
p1
I1
sVczt6uqh
p2
I1
s.(dp0
Vd07xi6s
p1
I1
sVcyl7ih3
p2
I1
s.(dp0
Vd0dkljc
p1
I1
sVcyl7ih3
p2
I1
s.(dp0
Vd0ku7lw
p1
I1
sVcyl7ih3
p2
I1
s.(dp0
Vd0zr6ke
p1
I1
sVcyl7ih3
p2
I1
s.(dp0
Vcyl7ih3
p1
I1
sVd15ddwk
p2
I1
s.(dp0
Vd1c4qqj
p1
I1
sVcyl7ih3
p2
I1
s.(dp0
Vd1d7vxx
p1
I1
sVcyl7ih3
p2
I1
s.(dp0
Vd1rgoce
p1
I1
sVcyl7ih3
p2
I1
s.(dp0
Vd1rn3da
p1
I1
sVcyl7ih3
p2
I1
s.(dp0
Vd1vblwx
p1
I1
sVcyl7ih3
p2
I1
s.(dp0
Vcyl7ih3
p1
I1
sVd278xew
p2
I1
s.(dp0
Vd2eyhhp
p1
I1
sVcyl7ih3
p2
I1
s.(dp0
Vd2l38l9
p1
I1
sVcyl7ih3
p2
I1
s.(dp0
Vd2mov50
p1
I1
sVcyl7ih3
p2
I1
s.(dp0
Vcyl7ih3
p1
I1
sVd2p3tix
p2
I1
s.(dp0
Vcyl7ih3
p1
I1
sVd32k36v
p2
I1
s.(dp0
Vcyl7ih3
p1
I1
sVd38z7rw
p2
I1
s.(dp0
Vd3kj3fs
p1
I1
sVcyl7ih3
p2
I1
s.(dp0
Vcyl7ih3
p1
I1
sVd3nslo3
p2
I1
s.(dp0
Vcyl7ih3
p1
I1
sVd45vzhx
p2
I1
s.(dp0
Vd48k224
p1
I1
sVcyl7ih3
p2
I1
s.(dp0
Vcyl7ih3
p1
I1
sVd4d0f8b
p2
I1
s.(dp0
Vcyl7ih3
p1
I1
sVd4v2m61
p2
I1
s.(dp0
Vd55kjg7
p1
I1
sVcyl7ih3
p2
I1
s.(dp0
Vd5a2hvu
p1
I1
sVcyl7ih3
p2
I1
s.(dp0
Vd5kkisz
p1
I1
sVcyl7ih3
p2
I1
s.(dp0
Vcyl7ih3
p1
I1
sVd5w598j
p2
I1
s.(dp0
Vd6hjzpu
p1
I1
sVcyl7ih3
p2
I1
s.(dp0
Vcyl7ih3
p1
I1
sVd6vtlj7
p2
I1
s.(dp0
Vcyl7ih3
p1
I1
sVd6ykilg
p2
I1
s.(dp0
Vd8d2i2v
p1
I1
sVcyl7ih3
p2
I1
s.(dp0
Vd8rqjph
p1
I1
sVcyl7ih3
p2
I1
s.(dp0
Vcyl7ih3
p1
I1
sVd90gy68
p2
I1
s.(dp0
Vdagtdqe
p1
I1
sVcyl7ih3
p2
I1
s.(dp0
Vcyl7ih3
p1
I1
sVdaqzkgr
p2
I1
s.(dp0
Vdawll83
p1
I1
sVcyl7ih3
p2
I1
s.(dp0
Vcyl7ih3
p1
I1
sVdb5gpsb
p2
I1
s.(dp0
Vdbac0l7
p1
I1
sVcyl7ih3
p2
I1
s.(dp0
Vdbac0l7
p1
I1
sVcyl7ih3
p2
I1
s.(dp0
Vcyl7ih3
p1
I1
sVdcd1jvd
p2
I1
s.(dp0
Vcyl7ih3
p1
I1
sVdciwxwn
p2
I1
s.(dp0
Vdclnw4s
p1
I1
sVcyl7ih3
p2
I1
s.(dp0
Vdcql1t2
p1
I1
sVcyl7ih3
p2
I1
s.(dp0
Vdcql1t2
p1
I1
sVcyl7ih3
p2
I1
s.(dp0
Vcyl7ih3
p1
I1
sVddb9auj
p2
I1
s.(dp0
Vddcmcff
p1
I1
sVcyl7ih3
p2
I1
s.(dp0
Vddpdwyd
p1
I1
sVcyl7ih3
p2
I1
s.(dp0
Vddpdwyd
p1
I1
sVcyl7ih3
p2
I1
s.(dp0
Vcyl7ih3
p1
I1
sVddtx7vw
p2
I1
s.(dp0
Vde2fpcq
p1
I1
sVcyl7ih3
p2
I1
s.(dp0
Vcyl7ih3
p1
I1
sVde2zgeq
p2
I1
s.(dp0
Vcyl7ih3
p1
I1
sVde5ezww
p2
I1
s.(dp0
Vde7qwym
p1
I1
sVcyl7ih3
p2
I1
s.(dp0
Vdeehw0v
p1
I1
sVcyl7ih3
p2
I1
s.(dp0
Vdejy2iq
p1
I1
sVcyl7ih3
p2
I1
s.(dp0
Vdewtw6d
p1
I1
sVcyl7ih3
p2
I1
s.(dp0
Vcyl7ih3
p1
I1
sVdf9szvb
p2
I1
s.(dp0
Vcyl7ih3
p1
I1
sVdfghul0
p2
I1
s.(dp0
Vdfpclrs
p1
I1
sVcyl7ih3
p2
I1
s.(dp0
Vdfwzc9n
p1
I1
sVcyl7ih3
p2
I1
s.(dp0
Vcyl7ih3
p1
I1
sVdg5uuug
p2
I1
s.(dp0
Vcyl7ih3
p1
I1
sVdg9b2rb
p2
I1
s.(dp0
Vcyl7ih3
p1
I1
sVdgczyxm
p2
I1
s.(dp0
Vdgkwmc4
p1
I1
sVcyl7ih3
p2
I1
s.(dp0
Vdgxdlt3
p1
I1
sVcyl7ih3
p2
I1
s.(dp0
Vdhds0m6
p1
I1
sVcyl7ih3
p2
I1
s.(dp0
Vdhx7ize
p1
I1
sVcyl7ih3
p2
I1
s.(dp0
Vcyl7ih3
p1
I1
sVdi7fpf8
p2
I1
s.(dp0
Vcyl7ih3
p1
I1
sVdkeypa9
p2
I1
s.(dp0
Vdkkmrev
p1
I1
sVcyl7ih3
p2
I1
s.(dp0
Vdmnjb2s
p1
I1
sVcyl7ih3
p2
I1
s.(dp0
Vdmq74vj
p1
I1
sVcyl7ih3
p2
I1
s.(dp0
Vdmug9e1
p1
I1
sVcyl7ih3
p2
I1
s.(dp0
Vdnavo4f
p1
I1
sVcyl7ih3
p2
I1
s.(dp0
Vdnikls0
p1
I1
sVcyl7ih3
p2
I1
s.(dp0
Vdnnpyse
p1
I1
sVcyl7ih3
p2
I1
s.(dp0
Vdojgdmh
p1
I1
sVcyl7ih3
p2
I1
s.(dp0
Vdojgdmh
p1
I1
sVcyl7ih3
p2
I1
s.(dp0
Vcyl7ih3
p1
I1
sVdojs5qa
p2
I1
s.(dp0
Vcyl7ih3
p1
I1
sVdpiq6da
p2
I1
s.(dp0
Vcyl7ih3
p1
I1
sVdpwdkav
p2
I1
s.(dp0
Vdr32fff
p1
I1
sVcyl7ih3
p2
I1
s.(dp0
Vdsq6p6x
p1
I1
sVcyl7ih3
p2
I1
s.(dp0
Vdte56yf
p1
I1
sVcyl7ih3
p2
I1
s.(dp0
Vcyl7ih3
p1
I1
sVdtej2h7
p2
I1
s.