(dp0
Vcyjrt72
p1
I1
s.(dp0
Vcyjrt72
p1
I1
sVcz5j7ve
p2
I1
s.(dp0
Vcyjrt72
p1
I1
sVcz5j7ve
p2
I1
s.(dp0
Vcyjrt72
p1
I1
sVcz91m3e
p2
I1
s.(dp0
Vcyjrt72
p1
I1
sVczffumw
p2
I1
s.(dp0
Vcyjrt72
p1
I1
sVd00uoh2
p2
I1
s.(dp0
Vcyjrt72
p1
I1
sVd01fwct
p2
I1
s.(dp0
Vcyjrt72
p1
I1
sVd0e6f31
p2
I1
s.(dp0
Vcyjrt72
p1
I1
sVd0ujwab
p2
I1
s.(dp0
Vcyjrt72
p1
I1
sVd0ujwab
p2
I1
s.(dp0
Vcyjrt72
p1
I1
sVd0ujwab
p2
I1
s.(dp0
Vcyjrt72
p1
I1
sVd0ujwab
p2
I1
s.(dp0
Vcyjrt72
p1
I1
sVd0ujwab
p2
I1
s.(dp0
Vcyjrt72
p1
I1
sVd0z0yyq
p2
I1
s.(dp0
Vcyjrt72
p1
I1
sVd14jtiq
p2
I1
s.(dp0
Vcyjrt72
p1
I1
sVd15b4ad
p2
I1
s.(dp0
Vcyjrt72
p1
I1
sVd15b4ad
p2
I1
s.(dp0
Vcyjrt72
p1
I1
sVd172whx
p2
I1
s.(dp0
Vcyjrt72
p1
I1
sVd1bljru
p2
I1
s.(dp0
Vcyjrt72
p1
I1
sVd1vs5o2
p2
I1
s.(dp0
Vcyjrt72
p1
I1
sVd25fp9v
p2
I1
s.(dp0
Vcyjrt72
p1
I1
sVd26t3jp
p2
I1
s.(dp0
Vcyjrt72
p1
I1
sVd3unt0t
p2
I1
s.(dp0
Vcyjrt72
p1
I1
sVd3unt0t
p2
I1
s.(dp0
Vcyjrt72
p1
I1
sVd45u32w
p2
I1
s.(dp0
Vcyjrt72
p1
I1
sVd46rwsy
p2
I1
s.(dp0
Vcyjrt72
p1
I1
sVd4b6o0r
p2
I1
s.(dp0
Vcyjrt72
p1
I1
sVd57uyvo
p2
I1
s.(dp0
Vcyjrt72
p1
I1
sVd57uyvo
p2
I1
s.(dp0
Vcyjrt72
p1
I1
sVd6pezkw
p2
I1
s.(dp0
Vcyjrt72
p1
I1
sVd6x9qp2
p2
I1
s.(dp0
Vcyjrt72
p1
I1
sVd6x9qp2
p2
I1
s.(dp0
Vcyjrt72
p1
I1
sVd6x9qp2
p2
I1
s.(dp0
Vcyjrt72
p1
I1
sVd6x9qp2
p2
I1
s.(dp0
Vcyjrt72
p1
I1
sVd7a4bms
p2
I1
s.(dp0
Vcyjrt72
p1
I1
sVd85m6jl
p2
I1
s.(dp0
Vcyjrt72
p1
I1
sVd85medl
p2
I1
s.(dp0
Vcyjrt72
p1
I1
sVd85medl
p2
I1
s.(dp0
Vcyjrt72
p1
I1
sVd85medl
p2
I1
s.(dp0
Vcyjrt72
p1
I1
sVd85mmvi
p2
I1
s.(dp0
Vcyjrt72
p1
I1
sVd85mmvi
p2
I1
s.(dp0
Vcyjrt72
p1
I1
sVd85mz7g
p2
I1
s.(dp0
Vcyjrt72
p1
I1
sVd85nqwx
p2
I1
s.(dp0
Vcyjrt72
p1
I1
sVd85nqwx
p2
I1
s.(dp0
Vcyjrt72
p1
I1
sVd85nqwx
p2
I1
s.(dp0
Vcyjrt72
p1
I1
sVd85nqwx
p2
I1
s.(dp0
Vcyjrt72
p1
I1
sVd85nqwx
p2
I1
s.(dp0
Vcyjrt72
p1
I1
sVd85nvbs
p2
I1
s.(dp0
Vcyjrt72
p1
I1
sVd85nvbs
p2
I1
s.(dp0
Vcyjrt72
p1
I1
sVd85nvbs
p2
I1
s.(dp0
Vcyjrt72
p1
I1
sVd85nvbs
p2
I1
s.(dp0
Vcyjrt72
p1
I1
sVd85o3j4
p2
I1
s.(dp0
Vcyjrt72
p1
I1
sVd85o3j4
p2
I1
s.(dp0
Vcyjrt72
p1
I1
sVd85o3j4
p2
I1
s.(dp0
Vcyjrt72
p1
I1
sVd85o8a2
p2
I1
s.(dp0
Vcyjrt72
p1
I1
sVd85o9k5
p2
I1
s.(dp0
Vcyjrt72
p1
I1
sVd85o9k5
p2
I1
s.(dp0
Vcyjrt72
p1
I1
sVd85o9k5
p2
I1
s.(dp0
Vcyjrt72
p1
I1
sVd85o9k5
p2
I1
s.(dp0
Vcyjrt72
p1
I1
sVd85o9k5
p2
I1
s.(dp0
Vcyjrt72
p1
I1
sVd85ol5d
p2
I1
s.(dp0
Vcyjrt72
p1
I1
sVd85qd7f
p2
I1
s.(dp0
Vcyjrt72
p1
I1
sVd85qwa8
p2
I1
s.(dp0
Vcyjrt72
p1
I1
sVd85tmb2
p2
I1
s.(dp0
Vcyjrt72
p1
I1
sVd85tmb2
p2
I1
s.(dp0
Vcyjrt72
p1
I1
sVd85tmb2
p2
I1
s.(dp0
Vcyjrt72
p1
I1
sVd85tmb2
p2
I1
s.(dp0
Vcyjrt72
p1
I1
sVd85u77w
p2
I1
s.(dp0
Vcyjrt72
p1
I1
sVd85xlw0
p2
I1
s.(dp0
Vcyjrt72
p1
I1
sVd85xlw0
p2
I1
s.(dp0
Vcyjrt72
p1
I1
sVd85xlw0
p2
I1
s.(dp0
Vcyjrt72
p1
I1
sVd8636c4
p2
I1
s.(dp0
Vcyjrt72
p1
I1
sVd8636c4
p2
I1
s.(dp0
Vcyjrt72
p1
I1
sVd8636c4
p2
I1
s.(dp0
Vcyjrt72
p1
I1
sVd9owtyo
p2
I1
s.(dp0
Vcyjrt72
p1
I1
sVdakr2iq
p2
I1
s.(dp0
Vcyjrt72
p1
I1
sVdasf4lm
p2
I1
s.(dp0
Vcyjrt72
p1
I1
sVdasf4lm
p2
I1
s.(dp0
Vcyjrt72
p1
I1
sVdasf4lm
p2
I1
s.(dp0
Vcyjrt72
p1
I1
sVdasf4lm
p2
I1
s.(dp0
Vcyjrt72
p1
I1
sVdasioy1
p2
I1
s.(dp0
Vcyjrt72
p1
I1
sVdaslctz
p2
I1
s.(dp0
Vcyjrt72
p1
I1
sVdaz8ioq
p2
I1
s.(dp0
Vcyjrt72
p1
I1
sVdbcs50j
p2
I1
s.(dp0
Vcyjrt72
p1
I1
sVdbw4b50
p2
I1
s.(dp0
Vcyjrt72
p1
I1
sVdbx9bwx
p2
I1
s.(dp0
Vcyjrt72
p1
I1
sVdc4ih6i
p2
I1
s.(dp0
Vcyjrt72
p1
I1
sVdc5mmba
p2
I1
s.(dp0
Vcyjrt72
p1
I1
sVdclotax
p2
I1
s.(dp0
Vcyjrt72
p1
I1
sVdcloxxw
p2
I1
s.(dp0
Vcyjrt72
p1
I1
sVdcx9b2h
p2
I1
s.(dp0
Vcyjrt72
p1
I1
sVdd7dkpk
p2
I1
s.(dp0
Vcyjrt72
p1
I1
sVdeedwy6
p2
I1
s.(dp0
Vcyjrt72
p1
I1
sVdflw1s4
p2
I1
s.(dp0
Vcyjrt72
p1
I1
sVdflysg4
p2
I1
s.(dp0
Vcyjrt72
p1
I1
sVdfnariq
p2
I1
s.(dp0
Vcyjrt72
p1
I1
sVdfym26f
p2
I1
s.(dp0
Vcyjrt72
p1
I1
sVdfym26f
p2
I1
s.(dp0
Vcyjrt72
p1
I1
sVdfym26f
p2
I1
s.(dp0
Vcyjrt72
p1
I1
sVdg3enb7
p2
I1
s.(dp0
Vcyjrt72
p1
I1
sVdg8yngs
p2
I1
s.(dp0
Vcyjrt72
p1
I1
sVdg8yngs
p2
I1
s.(dp0
Vcyjrt72
p1
I1
sVdg98v0o
p2
I1
s.(dp0
Vcyjrt72
p1
I1
sVdg98v0o
p2
I1
s.(dp0
Vcyjrt72
p1
I1
sVdgqjxbw
p2
I1
s.(dp0
Vcyjrt72
p1
I1
sVdh4fz0t
p2
I1
s.(dp0
Vcyjrt72
p1
I1
sVdhpbiql
p2
I1
s.(dp0
Vcyjrt72
p1
I1
sVdj4i547
p2
I1
s.(dp0
Vcy(dp0
Vcyjrt72
p1
I1
sVdrl48kv
p2
I1
s.