(dp0
Vcynv73y
p1
I2
sVczbk6po
p2
I2
sVdgt54se
p3
I2
sVddcr8n1
p4
I1
sVd8gnird
p5
I1
sVd1e6z28
p6
I1
sVcyo3uvj
p7
I1
sVd3r8uui
p8
I1
sVda4cd3r
p9
I1
sVdmje3ho
p10
I1
sVd8r9jr4
p11
I1
sVdd3xkek
p12
I1
sVd3r3m3p
p13
I1
sVdqg8qc8
p14
I1
sVd61m28g
p15
I1
sVd3eo9g5
p16
I1
sVd6q7yaf
p17
I2
sVd66o88d
p18
I1
sVdhebg9u
p19
I1
sVcym0yx2
p20
I1
sVd7pp7ep
p21
I1
sVdr1lclj
p22
I1
sVdfr7mfh
p23
I1
sVdjaanjs
p24
I1
sVd3eoimg
p25
I1
sVd9zhghq
p26
I1
sVdgjl3vt
p27
I1
sVdinibjj
p28
I1
sVd0fjksy
p29
I1
sVdihe7ow
p30
I3
sVddxil2u
p31
I1
sVdac2bd7
p32
I2
sVdf927ah
p33
I1
sVdd6t358
p34
I1
sVdhkrjo1
p35
I1
sVdqfsikk
p36
I1
sVd8tpaoh
p37
I1
sVdk3yhf5
p38
I2
sVdix3ixl
p39
I1
sVdig3f7f
p40
I1
sVdg287cv
p41
I3
sVd0gy7yx
p42
I1
sVddjaot5
p43
I1
sVdgng8kn
p44
I1
sVdk7a9ru
p45
I1
sVd18qrdt
p46
I3
sVcz2s8e8
p47
I1
sVd27aixo
p48
I2
sVdk46100
p49
I1
sVdb8xbz9
p50
I1
sVd36ltav
p51
I1
sVd5fue8k
p52
I1
sVdakjl74
p53
I1
sVdfwtlqk
p54
I1
sVdi5czv6
p55
I1
sVdjk6q1n
p56
I1
sVddwyk90
p57
I1
sVdbqfun4
p58
I1
sVdr6po47
p59
I4
sVd386w1e
p60
I2
sVd8n43pd
p61
I1
sVd4jp8t9
p62
I2
sVdgnbcgs
p63
I5
sVd4kpzad
p64
I1
sVd68gjsd
p65
I1
sVdbncto2
p66
I1
sVd67sdk1
p67
I1
sVdflw1s4
p68
I1
s.