(dp0
Vdflzrq4
p1
I1
sVd00k9l3
p2
I1
sVd791tdr
p3
I1
sVddnexo0
p4
I1
sVd3y8tpo
p5
I1
sVd9mrcrk
p6
I1
sVdtibrqs
p7
I1
sVdfw33y6
p8
I1
sVdijadeq
p9
I1
sVd3y8j85
p10
I1
sVd2vzu9e
p11
I1
sVdi5kn8t
p12
I1
sVdmrrz1r
p13
I1
sVd6nz596
p14
I1
sVd1qcroo
p15
I1
sVdkkgong
p16
I1
sVdimoan5
p17
I1
sVdkle1qy
p18
I1
sVd3y8wgb
p19
I1
sVdmomuce
p20
I1
sVdchnmi5
p21
I1
sVdndz0t2
p22
I2
sVd6rzg72
p23
I1
sVczchhxc
p24
I2
sVdprqezv
p25
I1
sVdms4m88
p26
I1
sVdi0j5gm
p27
I1
sVdpmtqlo
p28
I2
sVdhdqbl1
p29
I1
sVdcuhk55
p30
I1
sVdepk2qc
p31
I1
sVdif6nbq
p32
I1
sVd3m8meh
p33
I2
sVdgy76cz
p34
I1
sVczs73kz
p35
I1
sVdif64bp
p36
I1
sVczmajsl
p37
I1
sVd69vxlb
p38
I1
sVd8g5g6h
p39
I1
sVd7vz965
p40
I1
sVdblc7r2
p41
I1
sVd7jz77p
p42
I1
sVd24zysm
p43
I1
sVdbsx8g2
p44
I1
s.