(dp0
Vdhfyx2r
p1
I2
sVdsqqwvg
p2
I2
sVdbwvins
p3
I4
sVd092j9p
p4
I1
sVd6ls2uw
p5
I2
sVd966xgc
p6
I1
sVdeqqso2
p7
I2
sVd0xzmp6
p8
I1
sVdgr16p8
p9
I1
sVd9kdmn6
p10
I1
sVde2mbdx
p11
I1
sVddw9qtf
p12
I1
sVd90n41o
p13
I1
sVdbf8tgn
p14
I2
sVdcs6r61
p15
I1
sVdepmp6g
p16
I1
sVdijlexi
p17
I2
s.