(dp0
Vddhs7p8
p1
I1
sVddkf6mg
p2
I1
sVdj3us4z
p3
I1
sVdr3dyob
p4
I1
sVdegen8g
p5
I1
sVdbr56xb
p6
I1
sVczoz5mm
p7
I1
sVdf3w50w
p8
I1
sVdfkzt3a
p9
I1
sVd2daznn
p10
I2
sVd22xqfp
p11
I1
sVde6u57q
p12
I1
sVddj9i5a
p13
I1
sVdjutnwy
p14
I1
sVdnz2nv1
p15
I1
sVdht31re
p16
I1
sVd17rv0l
p17
I1
sVd37gspp
p18
I1
sVd5zn0oi
p19
I1
sVd1uwjsk
p20
I1
sVdhpjo54
p21
I1
sVdqcayzf
p22
I2
sVd3t4l5q
p23
I1
sVd8fxj82
p24
I1
sVddsirgu
p25
I1
sVd97jh5p
p26
I1
sVdd7n5ri
p27
I1
sVdtbn85d
p28
I1
sVdhel6h9
p29
I1
sVd8krmia
p30
I2
sVd27ldmw
p31
I1
sVd64jy3z
p32
I1
sVd19d0im
p33
I1
s.