(dp0
Vdp7hlhh
p1
I1
sVd8ro84u
p2
I2
sVd3bl2tf
p3
I1
sVcykqzwk
p4
I1
sVdewfwah
p5
I1
sVd4tvr4v
p6
I1
sVdg1kpv2
p7
I1
sVd7lw6ma
p8
I1
sVdj98fjn
p9
I2
sVd7lsz7w
p10
I1
sVdbd5s26
p11
I1
sVdq1d00l
p12
I1
sVdadnyjv
p13
I1
sVdga5d31
p14
I1
sVdo8fmg0
p15
I1
sVdr6buks
p16
I2
sVd4sxerx
p17
I1
sVdrrqx73
p18
I2
sVd4ts8lv
p19
I1
sVd2q5v4h
p20
I1
sVdj5122m
p21
I1
sVd9nf47s
p22
I1
sVczqv5ug
p23
I2
sVd37gspp
p24
I1
sVdfedi5b
p25
I1
sVdabi2yg
p26
I1
sVd2d7n20
p27
I1
sVddoh427
p28
I2
sVdhyt4yg
p29
I1
sVdos338o
p30
I1
sVdaaxuqb
p31
I2
sVd7e4vxf
p32
I1
sVd4j8aic
p33
I1
sVdmx82dz
p34
I1
sVcyqjskv
p35
I1
sVdsih9r7
p36
I1
sVd181p8w
p37
I1
sVdp6kuqf
p38
I1
sVdizele9
p39
I1
sVdg21b5m
p40
I1
sVd4u2k5p
p41
I1
sVdhqv180
p42
I1
sVd5tga5x
p43
I1
s.