(dp0
Vcyz708s
p1
I1
s.(dp0
Vd00oi5k
p1
I1
sVcyz708s
p2
I1
s.(dp0
Vd19zm5v
p1
I1
sVcyz708s
p2
I1
s.(dp0
Vd3kmdsn
p1
I1
sVcyz708s
p2
I1
s.(dp0
Vd413rtx
p1
I1
sVcyz708s
p2
I1
s.(dp0
Vda6xbnk
p1
I1
sVcyz708s
p2
I1
s.(dp0
Vdd6t358
p1
I1
sVcyz708s
p2
I1
s.(dp0
Vdf7i6xb
p1
I1
sVcyz708s
p2
I1
s.(dp0
Vdf7i6xb
p1
I1
sVcyz708s
p2
I1
s.(dp0
Vdfbfdnd
p1
I1
sVcyz708s
p2
I1
s.(dp0
Vdike8e5
p1
I1
sVcyz708s
p2
I1
s.(dp0
Vdmgqqy3
p1
I1
sVcyz708s
p2
I1
s.(dp0
Vdmliv5n
p1
I1
sVcyz708s
p2
I1
s.(dp0
Vdo8boyn
p1
I1
sVcyz708s
p2
I1
s.