(dp0
Vdo4gr2y
p1
I1
sVd0c50rv
p2
I1
sVde3wpam
p3
I1
sVdr7d30v
p4
I1
sVdcggccd
p5
I1
sVdo98scn
p6
I1
sVdhmohrt
p7
I1
sVcyva6pb
p8
I1
sVdks1ubv
p9
I1
sVdnyqx64
p10
I1
sVdoqu48b
p11
I1
sVd41ktvn
p12
I1
sVd4ulq2c
p13
I1
sVd6sng1f
p14
I1
s.