(dp0
Vd0nl8cn
p1
I2
sVdkqms4w
p2
I1
sVdkn2fv3
p3
I1
sVdpta0p2
p4
I1
sVdfnmzid
p5
I1
sVd15mwco
p6
I1
sVdbfsvqs
p7
I1
sVdho5e2j
p8
I1
sVd7wl8f7
p9
I1
sVd0nkxhs
p10
I1
sVdbfmw5a
p11
I1
sVdakqj3u
p12
I1
sVdny3s4b
p13
I1
sVd2f9bnx
p14
I1
s.