(dp0
Vd0ymd8e
p1
I1
sVd38mi02
p2
I1
sVdbiqjqj
p3
I1
sVdfnep4c
p4
I1
sVdggyu6h
p5
I1
sVd3yn2es
p6
I2
sVdb8hfou
p7
I1
sVdjlvibm
p8
I1
sVd4btvaj
p9
I1
sVd7l3zze
p10
I1
sVcylq81u
p11
I2
sVdsqdquc
p12
I1
sVdan9ozj
p13
I1
sVdog7ffw
p14
I1
sVczdg3gc
p15
I1
sVd38p6y8
p16
I1
sVdqykoy3
p17
I1
sVdkwvd9n
p18
I1
sVd0rm5oh
p19
I2
sVdj1l4xw
p20
I1
sVd2snawt
p21
I1
sVd6dodp2
p22
I1
s.