(dp0
Vd0ek051
p1
I5
sVdcb6293
p2
I1
sVd5f5yp8
p3
I3
sVdgxc087
p4
I1
sVd0d0krj
p5
I3
sVd8jtlg5
p6
I2
sVdkccjv7
p7
I2
sVdb23pzw
p8
I1
sVd7i3b98
p9
I1
sVd4xljoi
p10
I1
sVdbbruaq
p11
I1
sVd1vy6tj
p12
I1
sVdca6nyo
p13
I3
sVd1gkjhn
p14
I1
sVd493tj3
p15
I1
sVd0d0yms
p16
I1
sVdaqgqdu
p17
I1
sVdfztvwj
p18
I1
sVczmpsch
p19
I1
sVd76umww
p20
I1
sVdcaruml
p21
I1
sVd5ihbt7
p22
I1
sVddtwgl0
p23
I2
sVdkccnsl
p24
I1
s.