(dp0
Vdcpakf1
p1
I1
sVdf981ys
p2
I2
sVdey4rqx
p3
I2
sVd73suv2
p4
I1
sVdcxw7f5
p5
I2
sVdg7t5iw
p6
I1
sVdhksh0k
p7
I1
sVd4zucrt
p8
I2
sVddx3f09
p9
I1
sVds06to2
p10
I1
sVdd5c12n
p11
I1
sVdhol38p
p12
I1
sVda447wr
p13
I2
sVdhybd8p
p14
I1
sVdmuqgjk
p15
I2
sVdciccsl
p16
I1
sVd5pomo4
p17
I1
sVd7ar6cg
p18
I4
sVdqmpysm
p19
I1
sVdh2j3fc
p20
I2
sVdjm54kw
p21
I1
sVdijtzxh
p22
I2
sVczt6uqh
p23
I5
sVd3bhvfa
p24
I1
sVcypc6bn
p25
I2
sVd0ehh7j
p26
I1
sVddk6g76
p27
I2
sVdem1mu9
p28
I5
sVdf9lg5s
p29
I1
sVdgtwxbj
p30
I1
sVd7pbb8n
p31
I1
sVdbrm2h8
p32
I1
sVdex1pgo
p33
I1
sVdnh2opg
p34
I1
sVd5x1879
p35
I1
sVdgj10xs
p36
I2
sVd629oci
p37
I1
sVdis6ckk
p38
I1
sVdropjvd
p39
I1
sVczd9qsq
p40
I1
sVdes76zu
p41
I1
sVd9lbgzy
p42
I1
sVd9ctea7
p43
I1
sVdc1704y
p44
I1
sVd096moq
p45
I1
sVdsqh1i5
p46
I3
sVdi1ioyg
p47
I6
sVdrwr2p5
p48
I1
sVdf4m9e5
p49
I1
sVd6wprtr
p50
I1
sVdhrbm1y
p51
I7
sVdh9vvoz
p52
I2
sVd72qu5h
p53
I1
sVdcaugde
p54
I1
sVdn4to4a
p55
I1
sVda9f637
p56
I1
sVd8ww1wu
p57
I4
sVd9x5l8l
p58
I4
sVdqgprga
p59
I1
sVd8ccjwr
p60
I2
sVd097y6f
p61
I6
sVdbaory2
p62
I2
sVdba1o0i
p63
I1
sVdbzx9k5
p64
I1
sVdntq9n2
p65
I3
sVd1renae
p66
I1
sVdqr5em5
p67
I1
sVdh4i634
p68
I5
sVcz9no0e
p69
I1
sVcyztjit
p70
I1
sVdmt5jyr
p71
I1
sVd238lhq
p72
I1
sVdgkfg9e
p73
I1
sVd0qsdbw
p74
I1
sVd20atxf
p75
I1
sVdkt0vds
p76
I1
sVdml5uea
p77
I1
sVdptk67f
p78
I2
sVdk9ypj0
p79
I1
sVd612ep1
p80
I4
sVd8c27za
p81
I3
sVcyx6zi7
p82
I1
sVcys4osi
p83
I1
sVdo1t7tt
p84
I1
sVdo7b1jl
p85
I1
sVd0zwxtb
p86
I1
sVcznuchf
p87
I1
sVd603bks
p88
I4
sVd2iu5bb
p89
I1
sVdq8ennv
p90
I1
sVdmsof2n
p91
I1
sVczmaxp7
p92
I2
sVdb8hd4e
p93
I1
sVdbiuj0u
p94
I3
sVdf411kl
p95
I4
sVcz5f9st
p96
I1
sVd6tgppu
p97
I1
sVdb86vep
p98
I1
sVd635pbl
p99
I3
sVd28xy1b
p100
I1
sVd7z6wm9
p101
I2
sVdrojarf
p102
I1
sVd1p9i5u
p103
I1
sVd7k5ons
p104
I1
sVdmkj15l
p105
I1
sVdbbpi8j
p106
I1
sVdc7fosh
p107
I1
sVdkuzjxm
p108
I3
sVddt3gcp
p109
I1
sVdiyoz1n
p110
I4
sVd7phzat
p111
I1
sVdte78e4
p112
I1
sVda65yu2
p113
I1
sVdecsird
p114
I1
sVdjyf3by
p115
I5
sVdsn18ls
p116
I8
sVdo1myu6
p117
I1
sVd4p2n60
p118
I1
sVdk7u404
p119
I5
sVdbh95dp
p120
I1
sVdgf160x
p121
I1
sVd96691v
p122
I1
sVdc9cgep
p123
I1
sVd4hlkwp
p124
I1
sVd1f94dp
p125
I1
sVd0dkjmn
p126
I8
sVd8c8ain
p127
I1
sVd704qrl
p128
I2
sVdey3o8v
p129
I2
sVdas0aci
p130
I1
sVd6tjvpm
p131
I1
sVcz4hes7
p132
I3
sVd1ugifw
p133
I1
sVdooxsit
p134
I2
sVdou4esh
p135
I1
sVdbp99ip
p136
I5
sVdcvumgn
p137
I6
sVddpryfy
p138
I1
sVde9rkzl
p139
I1
sVdsl1ksd
p140
I2
sVdkv56eb
p141
I1
sVd6g5w4u
p142
I3
sVd1lnzg0
p143
I2
sVd026vzn
p144
I1
sVdn78bbq
p145
I1
sVdejqmjy
p146
I1
sVczg35uy
p147
I1
sVd8c0eek
p148
I1
sVd14pl28
p149
I1
sVd5bsrt6
p150
I1
sVd8mdfjy
p151
I1
sVdokj0y4
p152
I1
sVd60lmj2
p153
I5
sVczxaz27
p154
I6
sVd8c3gxw
p155
I1
sVdgjxcaa
p156
I11
sVd3cpfct
p157
I1
sVdr5zeg1
p158
I1
sVd2x7q8f
p159
I3
sVdjkr9hb
p160
I1
sVdd3je0q
p161
I1
sVdf38ksy
p162
I1
sVdqw3o3g
p163
I1
sVdiofl9v
p164
I1
sVdjnapn7
p165
I1
sVd6024ox
p166
I2
sVdml7xbe
p167
I1
sVdevl0u2
p168
I3
sVdgtt9b5
p169
I1
sVdjndnda
p170
I1
sVd1bso36
p171
I1
sVdeb0518
p172
I1
sVdd02gbl
p173
I1
sVdjlwx12
p174
I1
sVd00qllb
p175
I2
sVddfu6d1
p176
I1
sVdkwnmkc
p177
I1
sVdex1wmv
p178
I10
sVd15v3oq
p179
I1
sVczhf7po
p180
I1
sVdnodkpc
p181
I1
sVd9z1wit
p182
I2
sVcz48r0k
p183
I1
sVdck06vt
p184
I2
sVd9fomma
p185
I1
sVd8zgep2
p186
I1
sVdnnupir
p187
I1
sVdsn2l4b
p188
I10
sVdpzgtw0
p189
I1
sVdi8g8iu
p190
I1
sVdd83ewz
p191
I3
sVd3x9366
p192
I1
sVcytiuca
p193
I2
sVd1wxi9m
p194
I1
sVdk8dwwt
p195
I1
sVd8gdzhg
p196
I1
sVdb2urza
p197
I4
sVd0c1vyz
p198
I1
sVd278xew
p199
I1
sVd0n5ef1
p200
I1
sVdexfksp
p201
I1
sVdeyazt5
p202
I1
sVdgf4p2z
p203
I1
sVd411qkb
p204
I1
sVdqiykyq
p205
I1
sVd4asqyn
p206
I1
sVdi5kcaj
p207
I1
sVd1c9j37
p208
I10
sVdsmr2xj
p209
I1
sVd9gmx35
p210
I1
sVdf3qtau
p211
I6
sVdarbki0
p212
I3
sVdrtww2s
p213
I1
sVd02crha
p214
I3
sVdiwfesw
p215
I1
sVd7jeh8d
p216
I7
sVd25eivs
p217
I1
sVd67ysxa
p218
I1
sVdayljqy
p219
I5
sVdry6m8y
p220
I1
sVd1cfxcm
p221
I1
sVdjpa4w1
p222
I1
sVcz4hit7
p223
I1
sVd74uy0c
p224
I3
sVd3jo1hu
p225
I1
sVd299571
p226
I2
sVd3aa3y0
p227
I2
sVd6vsxg7
p228
I2
sVczvxupf
p229
I2
sVdcxcs7s
p230
I1
sVd2wn9i2
p231
I1
sVcyvdnza
p232
I1
sVcyys6bj
p233
I3
sVdh1ha8k
p234
I1
sVdkk3fxg
p235
I2
sVdn0jn3z
p236
I2
sVd5t1rbs
p237
I1
sVdiftk22
p238
I1
sVd3750z9
p239
I1
sVdczuepl
p240
I2
sVdgp0ou5
p241
I1
sVdrvvyfa
p242
I1
sVdmjaw3b
p243
I1
sVd8q6kg0
p244
I1
sVd8cden6
p245
I1
sVd2oieit
p246
I2
sVdgy9ysl
p247
I2
sVdd5lo96
p248
I1
sVd20yzyw
p249
I1
sVdb51y3x
p250
I4
sVd7pm5io
p251
I10
sVd04489b
p252
I1
sVd4ro0hk
p253
I1
sVd7qphkm
p254
I1
sVdficssr
p255
I1
sVdrt4cin
p256
I1
sVd5k9niu
p257
I1
sVczkg1p4
p258
I1
sVd74q8fn
p259
I1
sVdn3n4od
p260
I1
sVdmx21sg
p261
I1
sVddulr75
p262
I1
sVdcuzvmh
p263
I2
sVdgftapt
p264
I1
sVd8wqpep
p265
I1
sVd98t429
p266
I2
sVd6g5zk7
p267
I1
sVd9d30ng
p268
I2
sVd1mqcyh
p269
I1
sVd0e86c2
p270
I1
sVdnw93bb
p271
I1
sVd3bzyuy
p272
I4
sVcyi1izx
p273
I1
sVdrrv9dd
p274
I1
sVdgmbvz2
p275
I2
sVd644qjy
p276
I1
sVdf29ks5
p277
I1
sVd3bwpv8
p278
I2
sVcyi0lis
p279
I2
sVd1bmbks
p280
I2
sVdpc6wgu
p281
I5
sVdbfa2no
p282
I1
sVdqmqxr9
p283
I1
sVd6i1gts
p284
I1
sVczw02j0
p285
I1
sVczo39eg
p286
I2
sVdgdg1v2
p287
I2
sVdhjeh7k
p288
I1
sVda1y1fw
p289
I2
sVcztzznp
p290
I1
sVd66dwmv
p291
I4
sVdd6t6pu
p292
I2
sVdof00tt
p293
I3
sVd0yiw91
p294
I2
sVdro2qpl
p295
I1
sVdgxpl45
p296
I1
sVdi2kdbu
p297
I2
sVdkjyefv
p298
I1
sVdrd5w1f
p299
I2
sVd3lul5a
p300
I2
sVdj87lm0
p301
I1
sVd957oto
p302
I2
sVd6xf2fn
p303
I1
sVdi0tr7b
p304
I2
sVdi486qg
p305
I1
sVd4vfumi
p306
I2
sVdoejsdc
p307
I2
sVd5h3zc7
p308
I2
sVd88sxl9
p309
I2
sVdkxzehy
p310
I2
sVdcdh05r
p311
I1
sVdc3y09p
p312
I2
sVd9xurum
p313
I1
sVdhik7pc
p314
I5
sVds6fd0e
p315
I1
sVdr5yfg3
p316
I2
sVdalrcep
p317
I1
sVdansuuq
p318
I1
sVd0q382g
p319
I1
sVczexd3c
p320
I1
sVdrygoqo
p321
I1
sVdfgns9u
p322
I2
sVddohrlg
p323
I1
sVd0j4xyw
p324
I2
sVdii10l9
p325
I2
sVd94wf0c
p326
I1
sVd00az3i
p327
I1
sVdeglw0s
p328
I2
sVdktiuaq
p329
I1
sVd9n5n3h
p330
I1
sVdcmrxs2
p331
I1
sVd498e38
p332
I1
sVd6vlxsd
p333
I3
sVd1hvf83
p334
I2
sVd7a7e38
p335
I2
sVd4v32dm
p336
I1
sVd1ob8on
p337
I2
sVdcyd3tw
p338
I1
sVd8286ck
p339
I1
sVdfvrdaa
p340
I2
sVd7p8bc8
p341
I2
sVdewy64w
p342
I3
sVcyo07g5
p343
I1
sVdacnwij
p344
I1
sVdnq6iv1
p345
I1
sVd417jgw
p346
I1
sVd95byzx
p347
I1
sVcyzv832
p348
I6
sVdh2jb2e
p349
I2
sVdopkcth
p350
I1
sVdampndc
p351
I1
sVdfrm0q6
p352
I1
sVd6z7td3
p353
I1
sVd2jdtk0
p354
I2
sVd94f9m3
p355
I2
sVdc0knj5
p356
I5
sVd9b5sux
p357
I1
sVdoe55ek
p358
I1
sVdnoivl9
p359
I8
sVd8bjpke
p360
I7
sVcz15vw9
p361
I1
sVda863n0
p362
I1
sVds2rqax
p363
I3
sVd34p0gy
p364
I1
sVd0jejv9
p365
I5
sVd74tbf0
p366
I1
sVdem1aww
p367
I1
sVd5oss0g
p368
I1
sVd7to5vm
p369
I3
sVd7gx2y2
p370
I1
sVcyy2b6d
p371
I1
sVdrv8ny4
p372
I2
sVdee5q7v
p373
I1
sVdrw48sl
p374
I3
sVdk9wcdx
p375
I1
sVdb53g6d
p376
I1
sVdqf2lh7
p377
I1
sVdqzqx3s
p378
I1
sVd4da2hq
p379
I1
sVd59nwaa
p380
I1
sVd8bw2dm
p381
I1
sVd6w32yb
p382
I5
sVdawvlbj
p383
I1
sVdgj1e51
p384
I2
sVdknazjk
p385
I5
sVd5n5qg8
p386
I1
sVd21amji
p387
I1
sVdhx65b0
p388
I1
sVczesipb
p389
I1
sVdhxazjv
p390
I1
sVdakh6li
p391
I1
sVdh6risj
p392
I3
sVdru7h9b
p393
I1
sVdct3gs8
p394
I2
sVdddpok1
p395
I4
sVd3ifucg
p396
I1
sVd6ti6jr
p397
I1
sVd6zti5k
p398
I1
sVd4l5u91
p399
I1
sVde4mzz0
p400
I5
sVd7go44g
p401
I2
sVdqfk39v
p402
I1
sVd7bp0n9
p403
I2
sVdmnggif
p404
I2
sVdccahm9
p405
I1
sVcyn0ujy
p406
I3
sVdj9uev0
p407
I1
sVdooyqui
p408
I1
sVd954ud9
p409
I1
sVdmp0ywz
p410
I3
sVddy6519
p411
I1
sVd00xzfm
p412
I10
sVdrya1dm
p413
I1
sVd7zbyxb
p414
I1
sVd2zjhlg
p415
I4
sVddqpxr3
p416
I2
sVdol6t9p
p417
I1
sVdfr789e
p418
I1
sVdiyce3v
p419
I1
sVd3btztq
p420
I1
sVddqp370
p421
I1
sVddwy80e
p422
I1
sVd309qxu
p423
I2
sVd0nro42
p424
I1
sVdobfuoq
p425
I1
sVdo84x1y
p426
I1
sVd5w0wqx
p427
I3
sVdkjyiao
p428
I2
sVdik5b2w
p429
I1
sVd1zaurw
p430
I1
sVdpsfkxu
p431
I4
sVcz72bq7
p432
I1
sVdiwozw7
p433
I4
sVd02o5wr
p434
I1
sVdbfn4tp
p435
I1
sVd7pay54
p436
I1
sVd22gsg3
p437
I3
sVddbkyaz
p438
I2
sVd0xqe7u
p439
I1
sVdptifzf
p440
I1
sVdex0gyw
p441
I2
sVdh6eipw
p442
I1
sVd9qx4l5
p443
I1
sVdfo051x
p444
I1
sVdn6l2ps
p445
I1
sVdkk2sws
p446
I1
sVd4l487o
p447
I11
sVd20gibl
p448
I1
sVczpaqir
p449
I1
sVd4yk1xn
p450
I5
sVcz1m6sl
p451
I1
sVd94tw5z
p452
I1
sVd16ti0e
p453
I1
sVd0dg0tf
p454
I2
sVd95dj14
p455
I1
sVdeburi1
p456
I1
sVd1dxufm
p457
I2
sVdfb6105
p458
I2
sVdalamf4
p459
I1
sVd5kjlqf
p460
I2
sVd6tkwgs
p461
I1
sVdn7451r
p462
I2
sVdfvp329
p463
I1
sVdhsy87o
p464
I1
sVdmn8i63
p465
I1
sVd96yf0x
p466
I2
sVd7qz0l0
p467
I1
sVdeb37fo
p468
I1
sVdfajzx6
p469
I2
sVdrg3ukx
p470
I1
sVd0423e0
p471
I15
sVdqfol6p
p472
I2
sVd2z95je
p473
I1
sVd03mddt
p474
I2
sVd6fvzra
p475
I15
sVd5rgara
p476
I2
sVdqhbacj
p477
I1
sVd6tgrqr
p478
I2
sVd00zeqy
p479
I5
sVd0h8zv7
p480
I1
sVdgybuby
p481
I2
sVdeq2eh9
p482
I3
sVd7q6b2s
p483
I4
sVdc3i60s
p484
I1
sVczbs8ep
p485
I1
sVcz0pmz3
p486
I2
sVdfj2jnb
p487
I3
sVd072zxy
p488
I1
sVd2my2ee
p489
I1
sVd107xfx
p490
I1
sVd78aa8t
p491
I1
sVd7964nk
p492
I2
sVde4evk6
p493
I3
sVd0cb7e5
p494
I1
sVd74qn2s
p495
I1
sVdrcekfm
p496
I8
sVdjm0fiq
p497
I1
sVd97fzxx
p498
I2
sVd5npga2
p499
I1
sVdaznzdo
p500
I1
sVdbswzb0
p501
I1
sVczdydf1
p502
I1
sVddxbyl7
p503
I5
sVczxhsub
p504
I1
sVd35goob
p505
I5
sVd17utlo
p506
I3
sVdkiulgb
p507
I1
sVczh6cqy
p508
I1
sVczkphlc
p509
I1
sVd4s72yk
p510
I6
sVd7z711w
p511
I1
sVddbqab7
p512
I2
sVdeb2n6u
p513
I3
sVde5zg76
p514
I1
sVd7p4e7u
p515
I1
sVdbo40k1
p516
I1
sVd8zwwr9
p517
I1
sVdrv5d5d
p518
I1
sVdnts0ag
p519
I2
sVd1bhyf5
p520
I4
sVdj9knxz
p521
I2
sVd0egati
p522
I1
sVdigqb2e
p523
I1
sVd3mrt6j
p524
I1
sVdrvjked
p525
I1
sVcyqrs9y
p526
I1
sVd9wee1l
p527
I2
sVdqqwa5r
p528
I1
sVdbg1tqr
p529
I1
sVcymf4wl
p530
I1
sVdgd3pdj
p531
I1
sVdeiirc6
p532
I3
sVd16xvlm
p533
I2
sVddtjl6g
p534
I2
sVdkshnby
p535
I1
sVdpa4rw4
p536
I2
sVdfn90uv
p537
I1
sVd33iopp
p538
I1
sVdkujnzf
p539
I1
sVd27e8m2
p540
I1
sVd2z3v6t
p541
I1
sVd3aos1d
p542
I1
sVd09inql
p543
I2
sVdj8hkfn
p544
I1
sVd6v6fzm
p545
I1
sVdhpj00e
p546
I1
sVd1nhenj
p547
I2
sVdnob6ei
p548
I1
sVdfnfs9w
p549
I1
sVdhhxnhl
p550
I1
sVdewl7vd
p551
I2
sVdrnosrg
p552
I1
sVdsfwxqm
p553
I1
sVdsai396
p554
I2
sVdp4tsa3
p555
I1
sVdgjn204
p556
I10
sVczreiox
p557
I3
sVczcec4u
p558
I1
sVdsalf2b
p559
I1
sVdkio9up
p560
I3
sVdgy5qwq
p561
I1
sVd2pewpb
p562
I1
sVczqufua
p563
I3
sVczgv1nx
p564
I1
sVdkp6w60
p565
I1
sVdcy8c9i
p566
I1
sVd5rb0tm
p567
I2
sVdh2g4h2
p568
I3
sVdkr3xz3
p569
I2
sVdi2bbyw
p570
I5
sVd20ea5b
p571
I1
sVdarjgjd
p572
I1
sVd50t39g
p573
I1
sVd7odoac
p574
I1
sVd8zrnkg
p575
I2
sVd56a91b
p576
I1
sVd7q6tku
p577
I4
sVdog8mm9
p578
I1
sVd72u18i
p579
I1
sVdjp9r8i
p580
I3
sVdh3wh9d
p581
I4
sVdi8g1rw
p582
I1
sVdole5f0
p583
I1
sVd2900d3
p584
I2
sVdc5xh98
p585
I1
sVdjmqbeo
p586
I1
sVd0tuiz9
p587
I1
sVcyz24xg
p588
I2
sVdn79r5i
p589
I6
sVda0ig1n
p590
I1
sVd74mp8b
p591
I4
sVdebqko6
p592
I2
sVcyqs28o
p593
I4
sVd7tro3b
p594
I1
sVdanehke
p595
I1
sVdtadu1d
p596
I1
sVddb8iz7
p597
I13
sVd2kysrs
p598
I1
sVd3whbqq
p599
I1
sVdrvin48
p600
I1
sVd936qb5
p601
I1
sVd6tdhes
p602
I1
sVdnbqw9o
p603
I1
sVdfkk4xn
p604
I1
sVdnobofs
p605
I5
sVdojfous
p606
I2
sVdbkd439
p607
I1
sVdct1qvv
p608
I1
sVdhq2g0i
p609
I1
sVcyqt1uk
p610
I3
sVdsiv585
p611
I1
sVd0h8hle
p612
I2
sVd1p911o
p613
I1
sVd3bvdfh
p614
I8
sVczomu78
p615
I3
sVdnfn1z7
p616
I1
sVdrw0qj7
p617
I1
sVczvn31l
p618
I2
sVds3vqts
p619
I1
sVdfehndj
p620
I1
sVczws9ht
p621
I1
sVdet4mtz
p622
I1
sVd3hknav
p623
I1
sVdb2oyuo
p624
I2
sVd9x55wk
p625
I1
sVd1xk9d0
p626
I1
sVd7rebtm
p627
I1
sVd99vh7m
p628
I1
sVd663w2f
p629
I1
sVdgrxuew
p630
I1
sVd85uj8d
p631
I1
sVd1irlol
p632
I2
sVd2kyvu4
p633
I1
sVd63vcfc
p634
I1
sVdp9wd30
p635
I1
sVd5r6ik3
p636
I2
sVd290i25
p637
I4
sVd5k9xbg
p638
I1
sVd1bo1wb
p639
I4
sVd5z21gj
p640
I1
sVdbr4o54
p641
I1
sVdh6egb6
p642
I1
sVd7hmdez
p643
I1
sVd7jdxz6
p644
I1
sVdmuqu3o
p645
I1
sVdj02l22
p646
I3
sVdaol9qk
p647
I1
sVdkuvev9
p648
I1
sVdh62qpa
p649
I3
sVd1bndbo
p650
I6
sVdcxqclc
p651
I1
sVdcxo8xe
p652
I1
sVd8bfwj8
p653
I1
sVd7u9i9g
p654
I1
sVdfwk5m3
p655
I2
sVdcktujc
p656
I1
sVdc0yi1g
p657
I1
sVdpraoq0
p658
I1
sVddt42xr
p659
I1
sVd3nnm4q
p660
I1
sVd293bl5
p661
I1
sVdmnlbgi
p662
I2
sVd5o4ea8
p663
I1
sVcyjhalh
p664
I1
sVd3y3afl
p665
I1
sVd7mjtqh
p666
I3
sVcyvlxw6
p667
I1
sVd7a08di
p668
I1
sVdhs16tj
p669
I1
sVczruslp
p670
I1
sVdfoqwno
p671
I1
sVdn4tz9g
p672
I2
sVd8hlg9g
p673
I1
sVd7pcx44
p674
I1
sVdao3r55
p675
I1
sVdg6ny7g
p676
I1
sVdaxthqa
p677
I1
sVdsmvns7
p678
I1
sVd9weqt2
p679
I1
sVdpr7zw3
p680
I1
sVcywbs4t
p681
I2
sVdcgk3s5
p682
I1
sVdrxe942
p683
I1
sVdjl4u9t
p684
I2
sVdb2vkm7
p685
I2
sVd4s1hf2
p686
I2
sVdf8r2zs
p687
I1
sVd3d40my
p688
I1
sVdpc85ii
p689
I1
sVd3qxeau
p690
I1
sVdnrc4m3
p691
I1
sVddf4saw
p692
I1
sVd12ranq
p693
I2
sVdf83oqv
p694
I2
sVd7a6sob
p695
I1
sVdi83kcf
p696
I1
sVda1wv2v
p697
I2
sVd1obg3d
p698
I2
sVcz92jj1
p699
I1
sVdewk6nh
p700
I1
sVdd3kwus
p701
I1
sVdemm74l
p702
I1
sVd55952q
p703
I2
sVdkx2lzf
p704
I1
sVdgnuaix
p705
I2
sVdquxiey
p706
I1
sVd6tlb9w
p707
I1
sVd1irdbf
p708
I1
sVdfngyoc
p709
I1
sVd5giklg
p710
I1
sVd1w70os
p711
I1
sVderiqg6
p712
I2
sVd8c0a6b
p713
I2
sVdakkcko
p714
I1
sVcz5iiof
p715
I1
sVd1m88ky
p716
I1
sVcz2h2zr
p717
I1
sVd9bj06o
p718
I1
sVdg14r4f
p719
I3
sVdj8iu6g
p720
I1
sVdgpdmds
p721
I1
sVczdo5e3
p722
I2
sVdecsktd
p723
I4
sVdd7z7kh
p724
I1
sVd1lf4jj
p725
I2
sVdg61oym
p726
I1
sVdi3rc60
p727
I1
sVdnvmk7r
p728
I4
sVdc2ja88
p729
I1
sVdo46xih
p730
I1
sVd0s1gu7
p731
I2
sVdf967fc
p732
I2
sVcyhzv6w
p733
I1
sVd24p8nz
p734
I1
sVd5zne5t
p735
I1
sVdhujmew
p736
I7
sVddworlu
p737
I2
sVd87tacf
p738
I1
sVczrf9lo
p739
I1
sVdqg3bug
p740
I3
sVdb594cg
p741
I2
sVczszgxe
p742
I1
sVdbmp3ym
p743
I1
sVd38dksp
p744
I1
sVdiuqyjf
p745
I1
sVdejrqvq
p746
I1
sVd2zdyyp
p747
I10
sVd3b4jec
p748
I1
sVdkijen3
p749
I1
sVdodns9t
p750
I2
sVdfye3ok
p751
I1
sVdpjf689
p752
I2
sVd61dh54
p753
I1
sVddbmwzi
p754
I1
sVd0o39ch
p755
I1
sVdj2xmvu
p756
I1
sVd0s7psw
p757
I1
sVd2yvrs9
p758
I1
sVdk002ez
p759
I1
sVd6r86zk
p760
I1
sVdcwk2a1
p761
I1
sVdknoq6w
p762
I2
sVdcyegbo
p763
I1
sVd7ewidr
p764
I1
sVcz6hil9
p765
I1
sVddt6bn7
p766
I1
sVd9euhx9
p767
I1
sVda3gw4a
p768
I1
sVdf795mm
p769
I2
sVd5jn31i
p770
I1
sVd1dkz8y
p771
I1
sVdomtcw1
p772
I3
sVdsu9s6m
p773
I3
sVdqxxj7e
p774
I1
sVdpglmqi
p775
I1
sVdfa402l
p776
I1
sVdkcauhh
p777
I2
sVdfa999z
p778
I4
sVczrh853
p779
I1
sVd3dpkya
p780
I1
sVdrt4990
p781
I1
sVdcwnw1s
p782
I1
sVd9zq8u7
p783
I1
sVd8ble25
p784
I1
sVd340hvl
p785
I2
sVcyk0138
p786
I1
sVdnkrxuv
p787
I1
sVdsismww
p788
I1
sVdi9c9m4
p789
I1
sVdi42mup
p790
I1
sVd2cse3f
p791
I3
sVdq30o20
p792
I1
sVdpssc4w
p793
I1
sVdffuerl
p794
I1
sVd3hvx0v
p795
I1
sVdpq71ok
p796
I5
sVddnagxj
p797
I1
sVda102vm
p798
I1
sVd3aope3
p799
I1
sVd6g0f8j
p800
I2
sVczqpwne
p801
I3
sVdn7vn0s
p802
I1
sVdia762a
p803
I1
sVd056dwk
p804
I1
sVd64fjgv
p805
I1
sVdjy7wb5
p806
I1
sVdmhgog1
p807
I1
sVdd6u2mj
p808
I4
sVd3j8yez
p809
I1
sVczduh5a
p810
I1
sVdc2fco2
p811
I1
sVd301yjt
p812
I1
sVczg6j56
p813
I1
sVdrd1rli
p814
I1
sVdb0dfwi
p815
I1
sVdjuwr7o
p816
I1
sVdfoo4e3
p817
I2
sVds3ggrm
p818
I1
sVdhen7h2
p819
I3
sVdgdf617
p820
I1
sVdpfbu2o
p821
I1
sVdqo2tgc
p822
I1
sVdd9x96e
p823
I2
sVdqxzbbl
p824
I1
sVdcyr5y7
p825
I1
sVd9vl9e1
p826
I1
sVd5nlsqr
p827
I4
sVd1xrk62
p828
I2
sVdgzd5aw
p829
I1
sVd2l72b8
p830
I1
sVdff2j3i
p831
I2
sVdpq1zjo
p832
I1
sVd96v0ds
p833
I1
sVdr7icxt
p834
I1
sVdqdxzc9
p835
I3
sVczs9c4i
p836
I1
sVdi6f34j
p837
I1
sVd6tioyh
p838
I1
sVd217k9g
p839
I3
sVdrve9wk
p840
I4
sVdfjdkmb
p841
I1
sVdpqmwve
p842
I2
sVdtf5anf
p843
I1
sVde3grz5
p844
I2
sVdbts2lx
p845
I1
sVdeq2ih5
p846
I5
sVdffqxhq
p847
I1
sVcz6j0eq
p848
I6
sVdscenrl
p849
I1
sVd61gw5o
p850
I5
sVd85e7bs
p851
I2
sVdb5f9bm
p852
I1
sVdf3se94
p853
I1
sVd66rl5j
p854
I1
sVdjn719j
p855
I1
sVd60p5up
p856
I4
sVczf0303
p857
I2
sVd0j9mo5
p858
I4
sVd1wesw3
p859
I2
sVdjr4ok1
p860
I1
sVdfcukbj
p861
I1
sVczlj51c
p862
I1
sVdrre6vn
p863
I1
sVdjl432q
p864
I1
sVd0j9zrc
p865
I1
sVczv8g7d
p866
I1
sVd4k03i2
p867
I1
sVdbr0niq
p868
I7
sVd61jsin
p869
I1
sVdjbr94u
p870
I2
sVdb7d9sq
p871
I1
sVdmfgxl1
p872
I1
sVdda91bq
p873
I2
sVdgph8p1
p874
I1
sVczs73kz
p875
I2
sVdii5uyf
p876
I3
sVd046kmi
p877
I1
sVdctnlzo
p878
I1
sVdj022n8
p879
I3
sVd00sdam
p880
I7
sVdh6ageb
p881
I3
sVdtcve3d
p882
I1
sVdbxt6zx
p883
I1
sVd7pgl1y
p884
I2
sVd2128pj
p885
I2
sVdallpzo
p886
I1
sVd01lizn
p887
I1
sVdsb9k4m
p888
I1
sVd3r3l60
p889
I1
sVdjjet8j
p890
I2
sVczpv338
p891
I1
sVd8wnqxw
p892
I1
sVdb2o50b
p893
I2
sVd7qwyf3
p894
I1
sVdairblz
p895
I1
sVcyy4dtf
p896
I1
sVd5t3n1c
p897
I1
sVddt3uac
p898
I1
sVdiqf42m
p899
I1
sVddh67bm
p900
I1
sVdhfwscy
p901
I2
sVdgekfcq
p902
I3
sVcymoyiu
p903
I1
sVd7qp17q
p904
I2
sVdii0wh7
p905
I2
sVdprtyf4
p906
I1
sVczis9k8
p907
I1
sVdi4vbtl
p908
I2
sVdoexms3
p909
I1
sVdciuy83
p910
I3
sVdevdxpm
p911
I2
sVddf857y
p912
I1
sVdceouxi
p913
I1
sVd8bzkvu
p914
I1
sVdt8hipc
p915
I1
sVd0l5fhv
p916
I1
sVdh7mche
p917
I4
sVdnguo81
p918
I1
sVdf5urho
p919
I3
sVdnai0g3
p920
I1
sVdhw75gh
p921
I3
sVd0ssyx2
p922
I1
sVdecw5qy
p923
I19
sVd618pjb
p924
I1
sVdnrruda
p925
I1
sVd8b0qc2
p926
I3
sVd4dwlrs
p927
I4
sVd4a0bb2
p928
I3
sVdmnua24
p929
I2
sVd2bebjl
p930
I1
sVdc9cqy5
p931
I1
sVd2so5ab
p932
I1
sVdcf442q
p933
I1
sVd16s4o6
p934
I1
sVdnnwnrk
p935
I1
sVd3b4hk5
p936
I1
sVd0cbbfd
p937
I6
sVdjjdnk5
p938
I4
sVd1rvxv8
p939
I1
sVd729auf
p940
I4
sVd1jawsv
p941
I1
sVdmmfon0
p942
I1
sVdhzt3fc
p943
I1
sVd66u89g
p944
I4
sVddbyzqf
p945
I2
sVd3qdvco
p946
I1
sVd4j6c2i
p947
I2
sVd3g3ggv
p948
I1
sVdt2ex8z
p949
I1
sVczwki90
p950
I1
sVd82g771
p951
I1
sVdrvn2x5
p952
I3
sVd2ypphj
p953
I3
sVd04n5qh
p954
I4
sVd7d294l
p955
I1
sVd5mgxii
p956
I1
sVddboqqm
p957
I1
sVd74egm6
p958
I1
sVcz9oyo9
p959
I2
sVd38lref
p960
I1
sVdpsgge0
p961
I22
sVd5ys38u
p962
I1
sVdjdqqic
p963
I1
sVd5043bs
p964
I1
sVd28wx03
p965
I2
sVcz1afj3
p966
I1
sVcyy8s8r
p967
I3
sVczci7nd
p968
I1
sVd997q1j
p969
I1
sVddwhdhs
p970
I2
sVdjlyoub
p971
I7
sVd3ydvax
p972
I1
sVd8zpn14
p973
I1
sVdfju759
p974
I1
sVd7ued0t
p975
I1
sVdjpk5ef
p976
I1
sVd7hm2lx
p977
I2
sVd754bia
p978
I1
sVdnwie75
p979
I1
sVdc2z6tp
p980
I2
sVd0jd4lq
p981
I1
sVd13h3n4
p982
I1
sVdgiu7yf
p983
I1
sVd3k2u74
p984
I1
sVdhdaxra
p985
I1
sVdaf62tu
p986
I1
sVd95t00x
p987
I1
sVd5rdqud
p988
I2
sVcz4wkkj
p989
I5
sVdrojean
p990
I3
sVdeoubl7
p991
I1
sVdewnx8j
p992
I1
sVdeq2h0m
p993
I3
sVcyt1geb
p994
I1
sVdb5dd0r
p995
I1
sVdfk541m
p996
I3
sVd4ux1y0
p997
I1
sVd1hfjoi
p998
I1
sVdeqgg1c
p999
I1
sVd63cthj
p1000
I1
sVd234vzx
p1001
I1
sVde97t0g
p1002
I3
sVdcwnzug
p1003
I1
sVdffgt6d
p1004
I2
sVczluczw
p1005
I1
sVd3bzfa2
p1006
I1
sVczt05a6
p1007
I4
sVdrhwq3v
p1008
I1
sVd9mqe89
p1009
I1
sVd7q3a57
p1010
I3
sVdqjhpx7
p1011
I1
sVd0o34s8
p1012
I2
sVdamcfxw
p1013
I1
sVdc06tru
p1014
I1
sVcz3v71w
p1015
I2
sVdktpvnk
p1016
I1
sVdoereyq
p1017
I1
sVdfm49mu
p1018
I1
sVd8ee1aw
p1019
I4
sVdforhsz
p1020
I1
sVd8vad64
p1021
I6
sVdroj8e2
p1022
I1
sVdee4vhy
p1023
I3
sVd3o8szy
p1024
I1
sVd8eiwx6
p1025
I1
sVdbtq6oh
p1026
I1
sVdb2v6hp
p1027
I2
sVd8bux8g
p1028
I1
sVd5bo1ir
p1029
I2
sVd0nl8cn
p1030
I1
sVdk93ccp
p1031
I1
sVdt0c0nx
p1032
I1
sVdjqry85
p1033
I3
sVdboygc5
p1034
I1
sVd0pywt8
p1035
I1
sVddtd3dl
p1036
I1
sVd126a5d
p1037
I2
sVdji2sea
p1038
I1
sVdd68azv
p1039
I4
sVdfdqeit
p1040
I1
sVdipm0ys
p1041
I1
sVdmyz6ls
p1042
I1
sVdbe3bn6
p1043
I1
sVdtbswz0
p1044
I1
sVdamebpw
p1045
I1
sVdeq4ims
p1046
I4
sVdj5wskc
p1047
I1
sVd7uke98
p1048
I3
sVd88eyfm
p1049
I2
sVdmusira
p1050
I1
sVdb59arl
p1051
I2
sVczyjfjt
p1052
I1
sVd60rf47
p1053
I8
sVdhkbuu6
p1054
I3
sVddbyfhv
p1055
I3
sVdptgf7c
p1056
I1
sVdig02zy
p1057
I1
sVdk665kz
p1058
I1
sVdqcmwbl
p1059
I1
sVdnurimq
p1060
I5
sVderkxzk
p1061
I2
sVdbwnmen
p1062
I2
sVd69q9x7
p1063
I2
sVdjxn1ax
p1064
I1
sVdjrs94b
p1065
I1
sVd83xzwn
p1066
I1
sVd3anpv9
p1067
I1
sVd57y3yo
p1068
I1
sVcz51mmf
p1069
I1
sVdifjsoy
p1070
I4
sVdjboh83
p1071
I1
sVdagdsf4
p1072
I1
sVcymb6o8
p1073
I2
sVd5okb6z
p1074
I1
sVd8vqlqy
p1075
I5
sVdbyh7fs
p1076
I2
sVdnuj8pl
p1077
I2
sVdis0n2n
p1078
I1
sVdemrpix
p1079
I1
sVcyhzyvi
p1080
I1
sVd6tkhki
p1081
I1
sVdf1yfz2
p1082
I4
sVdd5c8wl
p1083
I1
sVdmv6g1c
p1084
I1
sVdcbpbap
p1085
I2
sVd273sri
p1086
I1
sVdbn6q5j
p1087
I1
sVd8bw3sl
p1088
I1
sVder204k
p1089
I1
sVdizogme
p1090
I1
sVddbjjw5
p1091
I1
sVd2nderi
p1092
I2
sVdemr7zn
p1093
I1
sVddxwzyn
p1094
I3
sVdsafh4w
p1095
I1
sVderf1wu
p1096
I1
sVd401shr
p1097
I1
sVdh2j9s5
p1098
I5
sVd0wc1mi
p1099
I1
sVd5vt5ef
p1100
I1
sVdfsa6ip
p1101
I1
sVd0v9on3
p1102
I2
sVdi3nxlr
p1103
I2
sVcysglxq
p1104
I1
sVdmo6lmd
p1105
I3
sVd1bkmcy
p1106
I3
sVdj6ci84
p1107
I1
sVdehnk2p
p1108
I3
sVdag7oy6
p1109
I1
sVdcl9f20
p1110
I2
sVd2n4eh6
p1111
I1
sVcz4hfu9
p1112
I1
sVd66l9ua
p1113
I1
sVdhe72qn
p1114
I1
sVd26o79b
p1115
I3
sVdi18gt9
p1116
I1
sVczkn8kw
p1117
I1
sVdj88tgr
p1118
I4
sVd1w0npj
p1119
I3
sVd2zmper
p1120
I3
sVdsmb9rg
p1121
I1
sVdhqkwjl
p1122
I1
sVcyyoba3
p1123
I2
sVdivqht2
p1124
I4
sVdh7xa8u
p1125
I1
sVczvhna7
p1126
I1
sVdhzndmw
p1127
I1
sVd33d2wg
p1128
I1
sVcyqrtlr
p1129
I1
sVdao2vet
p1130
I2
sVdnvyp3y
p1131
I1
sVcz5f8nt
p1132
I4
sVdmj0mzn
p1133
I1
sVdcv2lne
p1134
I1
sVd0pyzqz
p1135
I1
sVd6ha8ij
p1136
I1
sVdt6bdcf
p1137
I1
sVddrgogs
p1138
I1
sVdksqftv
p1139
I3
sVdjh42fj
p1140
I2
sVdfja0ax
p1141
I1
sVd7p8qjh
p1142
I1
sVdpix9un
p1143
I1
sVczdfs62
p1144
I2
sVdsn7pw5
p1145
I3
sVdhyb2a7
p1146
I1
sVd9rwm10
p1147
I2
sVdn4e5lp
p1148
I1
sVd2s2v03
p1149
I1
sVd9vahxb
p1150
I1
sVd7o3zbg
p1151
I1
sVdgdps7t
p1152
I2
sVd4f86gt
p1153
I1
sVdfn5cmu
p1154
I2
sVdqarmea
p1155
I1
sVdk4zx3q
p1156
I3
sVdptfmcd
p1157
I1
sVdifhi40
p1158
I2
sVdcn43yg
p1159
I1
sVddbqj57
p1160
I1
sVdrz1vht
p1161
I2
sVcznxvaj
p1162
I2
sVdg6a00f
p1163
I1
sVd1j0fb9
p1164
I1
sVdb2kopx
p1165
I2
sVds6f1h0
p1166
I1
sVdd84z9f
p1167
I1
sVd1k4w24
p1168
I1
sVdcd6k6f
p1169
I2
sVd3v527x
p1170
I1
sVdqtnerq
p1171
I3
sVd2kin17
p1172
I1
sVdckemve
p1173
I1
sVdmkcac7
p1174
I1
sVdff3cod
p1175
I2
sVdbaplof
p1176
I2
sVd39kwrx
p1177
I1
sVdfa0k02
p1178
I1
sVdcyflvz
p1179
I1
sVdjns4ue
p1180
I5
sVdhgjwxl
p1181
I1
sVd3p2tr5
p1182
I1
sVdr88a29
p1183
I1
sVd3azax1
p1184
I1
sVdftfx6w
p1185
I1
sVd1j9xf9
p1186
I1
sVdhtrxl5
p1187
I1
sVd2vl4sl
p1188
I1
sVd4uticl
p1189
I4
sVd4njq0p
p1190
I2
sVd0ljsrg
p1191
I5
sVd5y3ljj
p1192
I1
sVdk1qv71
p1193
I2
sVdc00ql6
p1194
I3
sVd1m8jv9
p1195
I2
sVcyuw545
p1196
I3
sVdqqmpd3
p1197
I1
sVdb5ejw4
p1198
I4
sVdprgiwy
p1199
I1
sVdf4x9jc
p1200
I1
sVd7xdzbe
p1201
I1
sVdjasnm8
p1202
I1
sVdft9mo9
p1203
I1
sVcyypxji
p1204
I2
sVdd0uu7w
p1205
I1
sVdn6q57l
p1206
I1
sVdf3u6gg
p1207
I1
sVde30g8p
p1208
I1
sVdhb6vjx
p1209
I1
sVdpniv0r
p1210
I1
sVd288yeb
p1211
I1
sVdcm039m
p1212
I1
sVd01w0ie
p1213
I5
sVdq3torq
p1214
I2
sVdane0sf
p1215
I1
sVd2bfwb2
p1216
I1
sVd7f1k7z
p1217
I1
sVdnuo5v3
p1218
I1
sVd68nien
p1219
I1
sVdgn0bsw
p1220
I1
sVd926wlx
p1221
I1
sVd78z7gp
p1222
I1
sVcz5fbx3
p1223
I2
sVd9nm55c
p1224
I1
sVd7pqkkd
p1225
I5
sVdh7c89d
p1226
I2
sVd94p6v3
p1227
I1
sVdcymyox
p1228
I1
sVdmp1ojg
p1229
I1
sVd14i8hu
p1230
I1
sVdeiu30x
p1231
I1
sVd04uhac
p1232
I7
sVdr2fwb1
p1233
I1
sVcyy94ce
p1234
I7
sVd8rhiin
p1235
I1
sVdk5nc6r
p1236
I1
sVd5avemu
p1237
I1
sVd69f3ab
p1238
I1
sVdrvtlzg
p1239
I1
sVd3t6xmo
p1240
I1
sVd00kfx7
p1241
I1
sVdajxkl7
p1242
I1
sVd07cgwr
p1243
I1
sVd1p97zd
p1244
I1
sVd0c2ads
p1245
I1
sVdesp3u6
p1246
I1
sVd1ahlfy
p1247
I1
sVdoboavd
p1248
I1
sVdcysp7k
p1249
I1
sVdoszuca
p1250
I1
sVdfp6t71
p1251
I1
sVdg5bliq
p1252
I6
sVdt9kli4
p1253
I1
sVd32hz97
p1254
I1
sVddtipzr
p1255
I1
sVd0oph5c
p1256
I3
sVdhi41w8
p1257
I1
sVdds6kiu
p1258
I1
sVdoexpj5
p1259
I1
sVdp5mleg
p1260
I1
sVdj0trqz
p1261
I1
sVd93gk5r
p1262
I1
sVdknbel5
p1263
I1
sVd4yk7e4
p1264
I1
sVd7p2s69
p1265
I3
sVd8g3poi
p1266
I1
sVddblkia
p1267
I1
sVdfgdbw4
p1268
I2
sVcz5ftoh
p1269
I2
sVdfvhvxh
p1270
I1
sVddxcyhz
p1271
I1
sVdft0rls
p1272
I1
sVd54yz99
p1273
I1
sVd7oe2n1
p1274
I1
sVdmo4zv9
p1275
I1
sVd2yjihp
p1276
I4
sVdjuaydw
p1277
I1
sVcyilde1
p1278
I1
sVdbecdhu
p1279
I1
sVd73iud8
p1280
I1
sVd7pf91x
p1281
I3
sVdngyysd
p1282
I1
sVd6et5c7
p1283
I1
sVdqu603s
p1284
I1
sVdrveu10
p1285
I1
sVczg06ko
p1286
I1
sVd9cml4g
p1287
I1
sVdsa3g74
p1288
I2
sVdkzjpu7
p1289
I2
sVd6dcn3j
p1290
I1
sVdnn4jse
p1291
I1
sVda3cpha
p1292
I2
sVdspqf97
p1293
I3
sVdf3vbaf
p1294
I2
sVdbqraji
p1295
I1
sVd0bsyuz
p1296
I1
sVdcdnxf8
p1297
I3
sVd50o3kx
p1298
I2
sVd3q5tyq
p1299
I1
sVd302h5n
p1300
I1
sVd35shyn
p1301
I2
sVdbsrp7i
p1302
I2
sVdshtl6r
p1303
I1
sVdj91uy0
p1304
I1
sVd6fuaad
p1305
I3
sVdj4o0qw
p1306
I1
sVdo9ix6o
p1307
I1
sVd5nlgpb
p1308
I4
sVd8vh816
p1309
I1
sVdnhaqy1
p1310
I1
sVdr3ajxc
p1311
I1
sVd3b5tyi
p1312
I2
sVd4v0bei
p1313
I1
sVd33tzlc
p1314
I1
sVddb1eaz
p1315
I6
sVd1vyeps
p1316
I1
sVdbp29eo
p1317
I4
sVd7pc1xt
p1318
I1
sVdewm5bj
p1319
I3
sVdp8fhy8
p1320
I5
sVd0e9a46
p1321
I1
sVd6pr835
p1322
I2
sVd298de2
p1323
I1
sVd5zqeca
p1324
I2
sVd2ziep5
p1325
I1
sVdo2oq76
p1326
I1
sVdh34y0r
p1327
I1
sVcyiun9v
p1328
I1
sVcz1ah4e
p1329
I2
sVcznd5zm
p1330
I2
sVdcldwd1
p1331
I3
sVd4xkvpz
p1332
I2
sVdr1ba1j
p1333
I1
sVdfpzb48
p1334
I1
sVdg8m0ja
p1335
I1
sVdmg5io4
p1336
I1
sVd0gsz82
p1337
I2
sVd7qymdv
p1338
I1
sVd3sc6g2
p1339
I3
sVddc37gl
p1340
I2
sVd0sq1o7
p1341
I2
sVd90i1m3
p1342
I1
sVd3kyd5s
p1343
I1
sVd8q8msj
p1344
I2
sVdoerh99
p1345
I2
sVddojtiw
p1346
I1
sVdadlqm5
p1347
I4
sVd94wm3g
p1348
I1
sVd39bftl
p1349
I1
sVdiub6sk
p1350
I1
sVd55jonr
p1351
I5
sVdbc4v9g
p1352
I1
sVd6erzdu
p1353
I7
sVd773xof
p1354
I1
sVdfsvikt
p1355
I1
sVczxopvx
p1356
I1
sVdteq6ms
p1357
I1
sVdnuj17b
p1358
I2
sVdgdkuob
p1359
I1
sVcyu1r1r
p1360
I1
sVd8iraj0
p1361
I2
sVd05339g
p1362
I1
sVcz5f9f5
p1363
I3
sVda87b8h
p1364
I7
sVddcp9bk
p1365
I1
sVdhpxxgk
p1366
I1
sVd74mz67
p1367
I1
sVdbej2mw
p1368
I1
sVd3v7p9k
p1369
I1
sVdcfa89q
p1370
I1
sVdenkkp1
p1371
I1
sVd041843
p1372
I1
sVde5vgl5
p1373
I1
sVd1w6fq4
p1374
I1
sVd1m8acy
p1375
I1
sVdksm6ng
p1376
I1
sVdjo0dxv
p1377
I2
sVd2xlbcw
p1378
I2
sVd4jang2
p1379
I3
sVd2s87y5
p1380
I1
sVdn3e5co
p1381
I2
s.