(dp0
Vcyqupx4
p1
I1
s.(dp0
Vcyqupx4
p1
I1
sVcz8o0z9
p2
I1
s.(dp0
Vcyqupx4
p1
I1
sVczfdiws
p2
I1
s.(dp0
Vcyqupx4
p1
I1
sVd0juj1p
p2
I1
s.(dp0
Vcyqupx4
p1
I1
sVd2boka7
p2
I1
s.(dp0
Vcyqupx4
p1
I1
sVd2p3c97
p2
I1
s.(dp0
Vcyqupx4
p1
I1
sVd2p3c97
p2
I1
s.(dp0
Vcyqupx4
p1
I1
sVd2p3c97
p2
I1
s.(dp0
Vcyqupx4
p1
I1
sVd3uqmc2
p2
I1
s.(dp0
Vcyqupx4
p1
I1
sVd3uqmc2
p2
I1
s.(dp0
Vcyqupx4
p1
I1
sVd4wyrg1
p2
I1
s.(dp0
Vd5yctmk
p1
I1
sVcyqupx4
p2
I1
s.(dp0
Vcyqupx4
p1
I1
sVd6273bp
p2
I1
s.(dp0
Vcyqupx4
p1
I1
sVd9swfhm
p2
I1
s.(dp0
Vcyqupx4
p1
I1
sVd9sximl
p2
I1
s.(dp0
Vcyqupx4
p1
I1
sVdblsrcl
p2
I1
s.(dp0
Vcyqupx4
p1
I1
sVdc8z7na
p2
I1
s.(dp0
Vcyqupx4
p1
I1
sVdjik9fa
p2
I1
s.(dp0
Vcyqupx4
p1
I1
sVdkwrs32
p2
I1
s.