(dp0
Vdci442u
p1
I3
sVdii714m
p2
I1
sVd6wgthd
p3
I1
sVddczfwe
p4
I1
sVdiz8lvu
p5
I2
sVdqd9e15
p6
I1
sVddn0hyg
p7
I1
sVdqwaqi0
p8
I2
sVdhhizhi
p9
I1
sVd24fqvp
p10
I2
sVd7eu1ws
p11
I3
sVd14aaxn
p12
I1
sVd2l8nms
p13
I1
sVd005tin
p14
I1
sVdrfdtnv
p15
I1
sVd1ns4fj
p16
I1
sVdmyjkr7
p17
I1
sVdmowqi1
p18
I2
sVd00jqrv
p19
I1
sVd1q2h48
p20
I1
sVd006bjh
p21
I2
sVdnah72j
p22
I2
sVdou17sg
p23
I1
sVd2j1vhk
p24
I2
sVdqp4uju
p25
I1
sVd623ujr
p26
I1
sVdj2hfxl
p27
I1
sVcykus6i
p28
I1
sVd1o3xfa
p29
I1
sVdcyjtbu
p30
I2
sVdesx7xc
p31
I2
sVdk0qpoz
p32
I1
sVdefv63v
p33
I4
sVdrlhvn3
p34
I1
sVd3du6dn
p35
I1
sVd0amvfl
p36
I1
sVdcsp963
p37
I1
sVd6mfup0
p38
I1
sVd2gfrrh
p39
I1
sVdk2llnk
p40
I1
sVdd1yji5
p41
I1
sVd3eso1d
p42
I1
sVdmpgc56
p43
I2
sVd6cjzf0
p44
I1
sVd5q32ic
p45
I1
sVdb2weqj
p46
I1
sVdjsgdh4
p47
I1
sVd3ld4g7
p48
I1
sVdrluktw
p49
I4
sVdqzsw2y
p50
I1
sVdjsluqb
p51
I1
sVdpw3edc
p52
I1
sVdblqh4s
p53
I1
sVdj74sqy
p54
I1
sVdg1vil3
p55
I1
sVd1ypuxi
p56
I1
sVd5sphnz
p57
I1
sVdfryosl
p58
I1
sVd6tn7ve
p59
I1
sVcz3qu8j
p60
I1
sVd07yldr
p61
I1
sVd9kypb9
p62
I1
sVdfg0u6o
p63
I1
sVdd1t517
p64
I1
sVdqyqo3m
p65
I2
sVdiutg1r
p66
I1
sVdpb67yc
p67
I3
sVda0q5yl
p68
I1
sVdrlkvcc
p69
I3
sVdemamm7
p70
I1
sVd0xa3ea
p71
I9
sVd3whbcx
p72
I1
sVcza9r9r
p73
I2
sVdo16c3s
p74
I2
sVd0huf62
p75
I1
s.