(dp0
Vdiawvta
p1
I2
sVdf1ijzu
p2
I1
sVdfd4c84
p3
I1
sVd67phzf
p4
I1
sVde55g0n
p5
I1
sVddbfruq
p6
I1
sVczpjxes
p7
I1
sVdgfbjb1
p8
I1
sVd76s9x1
p9
I1
sVda3gpt2
p10
I1
sVdfxbx6k
p11
I1
sVd3tzhs6
p12
I1
sVd99n8dm
p13
I1
sVdo97ffq
p14
I1
sVdo7iwod
p15
I1
sVd85swwg
p16
I1
sVd0m1kt9
p17
I1
sVd0svp3v
p18
I1
sVdi5ic84
p19
I1
sVd39z62s
p20
I1
sVd135ddy
p21
I1
sVd9d761w
p22
I1
sVdfclo41
p23
I1
sVd1mbdic
p24
I2
sVd2pcga1
p25
I1
sVd4piqfz
p26
I1
sVdsghdj1
p27
I1
sVdsoz9rg
p28
I1
sVd22j86c
p29
I1
sVd8rvkbm
p30
I1
sVd68qh0v
p31
I1
sVd30nxdy
p32
I1
sVdca10u2
p33
I1
s.