(dp0
Vdajf2uw
p1
I1
sVd91s90r
p2
I1
sVczgy51a
p3
I1
sVdd5oese
p4
I1
sVd8bn2ub
p5
I1
sVczstz4t
p6
I3
sVdn8cmfg
p7
I1
sVdnmj8tz
p8
I2
sVcyr454q
p9
I1
sVd5statb
p10
I1
sVd7yo7d4
p11
I1
sVdoucads
p12
I1
sVdjlxphw
p13
I2
sVds4nphg
p14
I2
sVd6p2orr
p15
I1
sVdjiqduy
p16
I1
sVdmi3sti
p17
I4
sVd331opp
p18
I1
sVcyzzt8o
p19
I1
sVd32xfnt
p20
I1
sVdas9d4f
p21
I1
sVdaki05h
p22
I1
sVd9g2v1i
p23
I1
sVdpw6qz5
p24
I1
sVdnw80ek
p25
I1
sVdkqpk6k
p26
I1
sVda6s31o
p27
I1
sVd1q1yxn
p28
I2
sVddnhinh
p29
I1
sVdsxsl27
p30
I2
sVdsxrgag
p31
I1
sVdi5mwc2
p32
I1
sVdkmbz3l
p33
I1
sVdcs3svt
p34
I2
sVdfawcn1
p35
I1
sVdguoijw
p36
I1
sVd379ym7
p37
I1
sVdbz7x9x
p38
I1
sVd8lusdq
p39
I1
sVdrwkpyo
p40
I2
sVd2mv68q
p41
I1
sVdgt8dsv
p42
I1
sVdgc0gf1
p43
I1
sVdoa4hul
p44
I1
sVdfvueq0
p45
I1
sVdcciwvt
p46
I1
sVd3xuees
p47
I1
sVd0pypxb
p48
I1
sVdb2il13
p49
I2
sVdrmktea
p50
I1
sVdafkxr4
p51
I1
sVdes3wof
p52
I1
sVd8ksw6r
p53
I1
sVdagcg7g
p54
I1
sVd1me06r
p55
I1
sVded7tmu
p56
I2
sVd0gcxfn
p57
I1
sVddz5mnc
p58
I1
sVd73qbgb
p59
I2
sVdguxtc3
p60
I1
sVdhwhy9j
p61
I1
sVdhwg6lv
p62
I2
sVdfbmcoa
p63
I1
sVdmi3ipl
p64
I5
sVd8ryvoh
p65
I1
sVdb5q9se
p66
I2
sVdemmben
p67
I1
sVdgfgjx0
p68
I1
sVdqlbpp2
p69
I2
sVdiqmdkg
p70
I2
sVdbeubd4
p71
I1
sVd1p9u6v
p72
I1
sVdf16i37
p73
I3
sVddgyb12
p74
I1
sVczc53at
p75
I1
sVdesiiv8
p76
I1
sVd4wfecu
p77
I4
sVd4kx4ws
p78
I1
sVd7remaz
p79
I1
sVdafjsys
p80
I1
sVdnwdau4
p81
I1
sVd183zig
p82
I1
sVdfctttn
p83
I2
sVd93ywjx
p84
I1
sVd5rkvfn
p85
I1
sVd9xixb2
p86
I1
sVd9wnu16
p87
I1
sVd3n7cro
p88
I1
sVdn8f9ky
p89
I1
sVdkt8qay
p90
I1
sVdh5uaup
p91
I1
sVczwlfzq
p92
I1
sVcz7g1js
p93
I1
sVd5ouuqi
p94
I2
sVdic9nnz
p95
I1
sVdf3s0f4
p96
I1
sVd0eri6i
p97
I2
sVd8jesq6
p98
I1
sVdk5f8pp
p99
I2
sVd0jfvk0
p100
I1
sVdjhtoew
p101
I1
sVd29dm0k
p102
I2
sVdj4r2g2
p103
I2
sVd231jsf
p104
I3
sVd48a845
p105
I1
sVdbntepm
p106
I1
sVdd45yi6
p107
I1
sVd0g2uni
p108
I1
sVd0kemup
p109
I1
sVdrptxxb
p110
I1
sVd1u5jvl
p111
I1
sVd0ops0n
p112
I1
sVdb5we83
p113
I1
sVd6vy7u9
p114
I1
sVd1zto0g
p115
I1
sVd2ffzpd
p116
I1
sVd2mo262
p117
I1
sVda79yga
p118
I2
sVdf1dcyz
p119
I2
sVd6gwvvt
p120
I1
sVdmky0tu
p121
I1
sVd64q884
p122
I1
sVcyvo7mw
p123
I1
sVd3zwz0r
p124
I1
sVdjvp23z
p125
I1
sVd2lxnkc
p126
I1
sVdetoak0
p127
I1
sVdc794ac
p128
I1
sVdho7m6j
p129
I1
sVdpuo9m9
p130
I1
sVdsw68f3
p131
I2
sVd2t4aol
p132
I1
sVdjxjnvo
p133
I1
sVcz8ny00
p134
I1
sVdq3kh12
p135
I1
sVd2ig3ib
p136
I1
sVdiupxyo
p137
I1
sVdgb3q2q
p138
I3
sVd0iukz2
p139
I1
sVdi5hfa3
p140
I1
sVd92vp54
p141
I1
sVd0tal20
p142
I1
sVdn5c85o
p143
I1
sVdhcif6m
p144
I2
sVcynfxsd
p145
I1
sVdf2kith
p146
I1
sVdd2zv4b
p147
I1
sVd7hgn3p
p148
I1
sVd9zlx2v
p149
I1
sVdejjfmj
p150
I1
sVd7jng0h
p151
I2
sVdnemmrq
p152
I1
sVdf1se8n
p153
I1
sVdnwg5tf
p154
I1
sVd0941kj
p155
I1
sVdcsecxt
p156
I3
sVd0ekkon
p157
I2
sVddg4w1s
p158
I1
sVdrufulg
p159
I1
sVdimzsbq
p160
I1
sVddea7s7
p161
I2
sVdeaj870
p162
I1
sVdgz37s8
p163
I1
sVdfcup32
p164
I1
sVdo5dhs7
p165
I1
sVdf5d24c
p166
I1
sVdjrif9b
p167
I2
sVd8cn2a7
p168
I2
sVczokv6n
p169
I1
sVd9h0v78
p170
I1
sVd3x13dq
p171
I1
sVdcu3lxy
p172
I2
sVd9uqyok
p173
I1
sVd90oztp
p174
I1
sVd9k74z1
p175
I2
sVdcv8vyc
p176
I1
sVdif0qbq
p177
I1
sVd9d761w
p178
I1
sVcyx6fm4
p179
I1
sVd9e8q4m
p180
I1
sVd2gyogp
p181
I1
sVd6d62b0
p182
I1
sVd2i0p2i
p183
I6
sVda03bd2
p184
I1
sVdqnc15p
p185
I1
sVdr0t60z
p186
I2
sVd65zlo2
p187
I1
sVczlz515
p188
I1
sVdju9k2j
p189
I1
sVdgi3r5r
p190
I1
sVdex2v3f
p191
I1
sVcyjvw3u
p192
I1
sVddd2hhn
p193
I1
sVdasje62
p194
I1
sVd87nlgh
p195
I1
sVdommda2
p196
I1
sVd897ffq
p197
I1
sVdj9vizs
p198
I1
sVdjty5r4
p199
I1
sVd3n0q7z
p200
I4
sVdds1wbi
p201
I1
sVdkl0f1n
p202
I1
sVdeaygli
p203
I1
sVddgphi3
p204
I2
sVdapun1f
p205
I1
sVdk52cmt
p206
I2
sVdf1biah
p207
I2
sVd9r3gv9
p208
I1
sVdikftm3
p209
I2
sVdob1ox0
p210
I1
sVcynseys
p211
I2
sVd3mkmsl
p212
I1
sVdsrxyxy
p213
I1
sVd8ny4z5
p214
I1
sVd2z01he
p215
I1
sVd09oy3s
p216
I2
sVdsblsol
p217
I1
sVd8347me
p218
I1
sVddbh0d1
p219
I1
sVd1lshgs
p220
I1
sVd26wt4h
p221
I1
sVdh16zh6
p222
I4
sVd7bilbx
p223
I1
sVdc436u5
p224
I1
sVd0oau2x
p225
I1
sVd7q99jz
p226
I1
sVd8phuaf
p227
I1
sVdawnghw
p228
I2
sVd6kizkn
p229
I1
sVd4tbmsa
p230
I1
sVd8ltkvc
p231
I1
sVddwcsco
p232
I1
sVdcfuthf
p233
I1
sVd2jgz65
p234
I2
sVddwxefg
p235
I1
sVd3gk6q5
p236
I1
sVderxkxb
p237
I1
sVd8ahpq3
p238
I1
sVd9z6muu
p239
I4
sVdkp7f7x
p240
I1
sVdtibmho
p241
I1
sVd30yc0f
p242
I1
sVdg0v288
p243
I1
sVdfwv789
p244
I2
sVd0yfwgp
p245
I2
sVd1w51ji
p246
I1
sVdac9odp
p247
I1
sVdst9jw1
p248
I1
sVd4vkdn5
p249
I1
sVd72450y
p250
I1
sVd5xnou8
p251
I1
sVdfrouel
p252
I1
sVczehnmj
p253
I1
sVdbo1v9a
p254
I1
sVdk2at8m
p255
I2
sVd4wo7ez
p256
I1
sVdojekas
p257
I1
sVczm8bnz
p258
I1
sVdepehfl
p259
I1
sVdepex31
p260
I1
sVd3mxlaq
p261
I1
sVdrpqi8y
p262
I1
sVcyqgbre
p263
I1
sVdemdeow
p264
I1
sVddq2b4h
p265
I1
sVdb0ai58
p266
I1
sVd1396nn
p267
I1
sVd35no3l
p268
I1
sVds8qamk
p269
I1
sVd5n775d
p270
I1
sVdf0keab
p271
I2
sVde4b0m6
p272
I1
sVd8kidqs
p273
I2
sVdd6usys
p274
I4
sVdr6kfg0
p275
I1
sVd34ziog
p276
I1
sVczmuqp5
p277
I1
sVdcy6bx8
p278
I2
sVdcfdko4
p279
I1
sVdefly62
p280
I1
sVdtjh2yp
p281
I1
sVdq5mh9v
p282
I2
sVd1g2llz
p283
I1
sVd6a269b
p284
I1
sVdeqwmk3
p285
I1
sVd3e55pu
p286
I1
sVdfdo3ac
p287
I1
sVd5bhf3p
p288
I1
sVczcuqkx
p289
I1
sVdegl0z8
p290
I1
sVd943js0
p291
I3
sVczvy9mr
p292
I1
sVdql7f8p
p293
I1
sVd0d2na0
p294
I1
sVcyjiruy
p295
I1
sVdjtp8ic
p296
I1
sVdcy98sc
p297
I1
sVdqs837y
p298
I3
sVdhwtjgm
p299
I2
sVd3wtgla
p300
I2
sVdeylir7
p301
I1
sVddwz9xy
p302
I1
sVdn1bnlg
p303
I4
sVd58sgd4
p304
I2
sVdgi89za
p305
I1
sVdd6oiqn
p306
I1
sVddrxk9u
p307
I1
sVd8hoq9b
p308
I6
sVd8ly8gj
p309
I1
sVczzm7gj
p310
I1
sVdawd4cd
p311
I1
sVdgkn2vo
p312
I1
sVdiqpkqi
p313
I2
sVdhd95l2
p314
I1
sVd1gbayw
p315
I1
sVdmoyukg
p316
I1
sVd58sipp
p317
I3
sVd6u8712
p318
I3
sVd334xt6
p319
I2
sVcyjag74
p320
I3
sVd1sc1y2
p321
I2
sVd5j7ji2
p322
I2
sVd5ov483
p323
I2
sVd13qskk
p324
I1
sVd1rmpg5
p325
I2
sVd8djkkb
p326
I1
sVd7u1wty
p327
I1
sVdg1348l
p328
I1
sVdk0pfc9
p329
I1
sVd6ve6fs
p330
I1
sVdswyymn
p331
I1
sVd0kgv9k
p332
I1
sVd5bpapv
p333
I1
sVd11fvl3
p334
I1
sVdh6g6uv
p335
I1
sVdd89oud
p336
I2
sVdnqxia8
p337
I1
sVd0w5nlr
p338
I1
sVdedbara
p339
I10
sVdqe5i81
p340
I1
sVcyn8t5x
p341
I1
sVd243p5j
p342
I1
sVdfcu4d2
p343
I2
sVczoocgr
p344
I1
sVdi68c9q
p345
I1
sVd5fm3mn
p346
I1
sVd9vh10f
p347
I1
sVddzflo8
p348
I1
sVdac2pwi
p349
I1
sVdk15zee
p350
I1
sVd93jrrm
p351
I2
sVd98b4br
p352
I1
sVd4mss9d
p353
I1
sVde2mc06
p354
I1
sVczjk6ea
p355
I1
sVdjop9yg
p356
I2
sVdkvn0gp
p357
I2
sVcyi29ve
p358
I1
sVdfi13vr
p359
I1
sVds4x3ad
p360
I5
sVdfcvkyh
p361
I1
sVdfetdu6
p362
I1
sVd2cje4g
p363
I1
sVdiyroih
p364
I1
sVdmfyinr
p365
I1
sVdfjbmwk
p366
I1
sVdpc117h
p367
I1
sVda5nvly
p368
I1
sVd5st0t0
p369
I1
sVdep43go
p370
I1
sVcz0ydox
p371
I1
sVdcpn6oj
p372
I2
sVdminr90
p373
I1
sVdf7nn40
p374
I1
sVd4rhboo
p375
I1
sVd6qbw50
p376
I1
sVd1y6w6g
p377
I1
sVdbkzcxx
p378
I1
sVdeud2ri
p379
I1
sVdf5ytxx
p380
I1
sVd2h40mm
p381
I1
sVd5m9ego
p382
I3
sVdhgffon
p383
I2
sVdayqdxo
p384
I1
sVdde23qg
p385
I1
sVdfdrkj1
p386
I1
sVd7g2f1j
p387
I1
sVczopo4a
p388
I1
sVd3pihnb
p389
I1
sVd4akhh2
p390
I1
sVd70pmso
p391
I1
sVdbnepjn
p392
I1
sVd4j77kd
p393
I2
sVdgqkwmy
p394
I2
sVd24z7uc
p395
I1
sVd6frg1n
p396
I2
sVdt81c2y
p397
I1
sVdea4jue
p398
I1
sVdnw93bb
p399
I2
sVdgojddr
p400
I1
sVdbh8i10
p401
I4
sVdkv7tjo
p402
I1
sVd9uxyvp
p403
I7
sVdbnvxqj
p404
I1
sVd61nqmy
p405
I1
sVcz3gfp4
p406
I2
sVdo059j1
p407
I1
sVdaei6c1
p408
I1
sVdqfke7s
p409
I1
sVdbz54c7
p410
I1
sVd5g0imp
p411
I1
sVd8chnkb
p412
I1
sVczipukx
p413
I1
sVd85gbyc
p414
I1
sVd0i6149
p415
I1
sVdnxof0m
p416
I1
sVd8t3qi0
p417
I2
sVdqd7osr
p418
I1
sVdbfa2no
p419
I1
sVdmq4j2c
p420
I1
sVd4nun8p
p421
I3
sVdkajefk
p422
I1
sVd4prott
p423
I1
sVdh4uh9s
p424
I1
sVdagpll0
p425
I1
sVd7dyrwb
p426
I1
sVd5o0c7s
p427
I4
sVdd0y6yp
p428
I1
sVd52sogf
p429
I1
sVd5fjl75
p430
I1
sVdp531xb
p431
I1
sVddp91zb
p432
I2
sVd78tgx2
p433
I1
sVczsm77g
p434
I1
sVdb0cym0
p435
I1
sVcyphm5o
p436
I1
sVdemn45q
p437
I1
sVd74tr01
p438
I1
sVdmvlls6
p439
I1
sVd8qn0dk
p440
I1
sVdf19p3f
p441
I2
sVd4rpt3i
p442
I2
sVdrpl3is
p443
I2
sVdg3e5qt
p444
I1
sVdn1l5sg
p445
I2
sVd1maure
p446
I1
sVczcvbhh
p447
I1
sVdhtp8gm
p448
I1
sVdcnsgmr
p449
I1
sVd0y8btf
p450
I1
sVd3dmptn
p451
I1
sVd1u5vpu
p452
I1
sVdhqtsgt
p453
I1
sVdd0tfml
p454
I2
sVd1rrztr
p455
I3
sVd1czfc7
p456
I1
sVd07ouji
p457
I1
sVdf9swvv
p458
I1
sVd84uuxr
p459
I1
sVdprhb70
p460
I1
sVd3x32yf
p461
I1
sVdf1nz7l
p462
I3
sVcyp3v0r
p463
I1
sVd0mxzkf
p464
I1
sVdghs3px
p465
I3
sVdcx3bw8
p466
I1
sVdfkmrzy
p467
I1
sVd22tyar
p468
I1
sVdiht4kh
p469
I1
sVd4vbqpw
p470
I2
sVd8opa20
p471
I2
sVdktuly6
p472
I1
sVd8y9tld
p473
I2
sVdgk2010
p474
I1
sVd82qs9i
p475
I1
sVdfwjd1m
p476
I1
sVdf50nkk
p477
I1
sVdawwl4c
p478
I3
sVdf1j5i6
p479
I1
sVds6f0tv
p480
I1
sVddwudp0
p481
I1
sVdjtu7v2
p482
I1
sVczrta5k
p483
I4
sVczcvdpr
p484
I1
sVdofxosc
p485
I3
sVdk2l1j3
p486
I1
sVdrpucza
p487
I1
sVd2vy6a2
p488
I1
sVdbv6mtf
p489
I1
sVd1pxn4j
p490
I1
sVd5ginxo
p491
I2
sVdf0n8gu
p492
I1
sVdccjqxc
p493
I1
sVdcy8wv5
p494
I1
sVdhflexn
p495
I1
sVd1jtl01
p496
I1
sVdi1ppyo
p497
I2
sVdbob6xs
p498
I1
sVddoamy5
p499
I1
sVd5qded8
p500
I1
sVd6jlrkw
p501
I1
sVdo1ma2b
p502
I3
sVd4jxttk
p503
I2
sVd1xw7ac
p504
I1
sVddpq5li
p505
I1
sVdmum7gc
p506
I5
sVdff2uvp
p507
I1
sVd32fi8d
p508
I1
sVdhknomd
p509
I1
sVdjvewhj
p510
I2
sVdohd8t0
p511
I1
sVdmunlft
p512
I6
sVd8lsdhq
p513
I1
sVdbe5we0
p514
I1
sVd38yopd
p515
I1
sVdhajdxx
p516
I1
sVd82kkmu
p517
I1
sVd1mav2a
p518
I2
sVdc1qt43
p519
I1
sVd4n5xgz
p520
I2
sVd643888
p521
I1
sVdcqq84u
p522
I1
sVdgcif59
p523
I1
sVd2i4rpi
p524
I1
sVdbp1o03
p525
I1
sVdcfimsk
p526
I1
sVd310ndz
p527
I1
sVdd0nzjl
p528
I1
sVd0cwysg
p529
I1
sVd7n4lxn
p530
I1
sVda2086c
p531
I1
sVdje1z53
p532
I1
sVdmt0qzt
p533
I1
sVdc18w32
p534
I3
sVcz5w558
p535
I1
sVd5ea09v
p536
I1
sVczmag0v
p537
I1
sVd67phzf
p538
I2
sVczsuv4g
p539
I1
sVd1do53r
p540
I2
sVdf1auqy
p541
I1
sVdjxlk2v
p542
I1
sVcyot6x8
p543
I2
sVd9pt24q
p544
I1
sVd7ecich
p545
I2
sVde6acoc
p546
I1
sVd1vgkie
p547
I1
sVdc3kco3
p548
I1
sVd8n7ivg
p549
I1
sVd4mwp22
p550
I1
sVd341din
p551
I1
sVdeu0ipj
p552
I1
sVdjvug9v
p553
I1
sVd0ks343
p554
I1
sVdsffhxv
p555
I1
sVd22pqw7
p556
I1
sVdcyb82n
p557
I1
sVd9k54mq
p558
I1
sVdfwu8dm
p559
I1
sVd52id2f
p560
I1
sVd3349qp
p561
I1
sVdam2861
p562
I1
sVd5hre7w
p563
I2
sVdd6cmn1
p564
I1
sVczgnduc
p565
I1
sVd5gf6f0
p566
I1
sVdgqku3f
p567
I1
sVdh11shs
p568
I1
sVd8wzo5h
p569
I1
sVd1dhmks
p570
I1
sVdj66q3d
p571
I1
sVdtcpc9v
p572
I1
sVdk6l6dx
p573
I1
sVd7ja6j6
p574
I1
sVd4msrbo
p575
I1
sVdi3if4h
p576
I1
sVcyow7ea
p577
I1
sVcyyw4m5
p578
I1
sVdt4qq42
p579
I1
sVd0m6sil
p580
I1
sVdjgmqcn
p581
I2
sVd61yiml
p582
I2
sVdgsas5u
p583
I1
sVd5c4wbm
p584
I1
sVd9xec38
p585
I1
sVds1wcni
p586
I2
sVdf68hkx
p587
I2
sVcypdolb
p588
I2
sVd0q6hyg
p589
I5
sVd8gvtgz
p590
I1
sVdfwylbp
p591
I1
sVdc53xz0
p592
I1
sVczeqs5r
p593
I1
sVdnzbs4j
p594
I1
sVdnaa56c
p595
I1
sVdfiir99
p596
I2
sVdt2dij5
p597
I1
sVdn1z419
p598
I1
sVd3k9fcs
p599
I1
sVdhnr25p
p600
I2
sVd26ahy2
p601
I2
sVdidzx63
p602
I1
sVdf1b0lb
p603
I1
sVdo7nuwy
p604
I1
sVd1rufb2
p605
I1
sVd7s4eiu
p606
I1
sVczangw3
p607
I2
sVdkqkj0l
p608
I3
sVd3xlm8t
p609
I2
sVdp4l9u0
p610
I1
sVczhip61
p611
I1
sVdmg9j1s
p612
I1
sVd0ptp50
p613
I1
sVdfjop5w
p614
I1
sVde13l9d
p615
I1
sVda083tr
p616
I1
sVd1vx3f5
p617
I2
sVdf2kwdj
p618
I1
sVdeh5d6p
p619
I1
sVd4cub8v
p620
I1
sVd8pndl8
p621
I1
sVdqnup6c
p622
I2
sVd7zbyxb
p623
I1
sVd0p5g8v
p624
I1
sVds4tknm
p625
I1
sVdn2g7qd
p626
I1
sVdden6xg
p627
I2
sVczh31nb
p628
I1
sVdql8o7e
p629
I9
sVd8vp861
p630
I1
sVdilyqzw
p631
I2
sVdbvebey
p632
I1
sVde40lkt
p633
I1
sVdbjc9mu
p634
I1
sVd0lalsd
p635
I1
sVd8zyz76
p636
I1
sVd71ruas
p637
I1
sVdgojiym
p638
I1
sVd2lfvl9
p639
I1
sVdehmyuu
p640
I1
sVd1s7tba
p641
I1
sVczxxtq9
p642
I1
sVczlyqe5
p643
I1
sVd5w90do
p644
I1
sVdmts4s9
p645
I2
sVdjg4knx
p646
I1
sVdq7skge
p647
I1
sVcykeqp4
p648
I1
sVda3d484
p649
I1
sVdiefkfp
p650
I1
sVdccj3qd
p651
I1
sVdnhgkr9
p652
I2
sVdab2rth
p653
I1
sVdf6iahx
p654
I2
sVdt9jr98
p655
I1
sVd14h83l
p656
I1
sVd46pocf
p657
I1
sVczqpt3v
p658
I1
sVdcbtkcx
p659
I1
sVds48mj9
p660
I1
sVd587674
p661
I1
sVd4mqnmh
p662
I1
sVdh98dxd
p663
I1
sVdqe0mjo
p664
I1
sVd5q0u68
p665
I1
sVdda4ckm
p666
I1
sVdhlqdav
p667
I1
sVdkdzmp4
p668
I1
sVdhhzub6
p669
I1
sVd04b6e0
p670
I1
sVdcdd13s
p671
I1
sVdh0ig4x
p672
I2
sVdchm5fc
p673
I1
sVdjzlya2
p674
I1
sVdijv9p6
p675
I1
sVdb1rli3
p676
I1
sVdcalj02
p677
I2
sVd51btbo
p678
I1
sVd64biir
p679
I1
sVd3kyku7
p680
I2
sVd8t7rfz
p681
I1
sVdp5dkbt
p682
I1
sVdau3ud6
p683
I1
sVdh3qt9o
p684
I1
sVcz7qvtq
p685
I1
sVd374yqp
p686
I1
sVd3r67uw
p687
I1
sVdrmomxn
p688
I2
sVd6v9op9
p689
I1
sVczt6ejk
p690
I1
sVdh0xgah
p691
I1
sVdk39ynl
p692
I1
sVcymfyry
p693
I1
sVdcyga8a
p694
I1
sVdsqhmxf
p695
I1
sVdafwq2s
p696
I1
sVdh0rtqc
p697
I1
sVd0pwklp
p698
I1
sVd94clai
p699
I1
sVdg0u91j
p700
I1
sVd1v81xu
p701
I3
sVds7ih4b
p702
I2
sVdju4xua
p703
I1
sVd0b1h4m
p704
I1
sVd6zkscb
p705
I1
sVd1qu52z
p706
I1
sVdps0m9w
p707
I1
sVd7fmmyd
p708
I1
sVd1p1azb
p709
I1
sVdkusp9t
p710
I1
sVdaeov2e
p711
I1
sVd73fmyc
p712
I1
sVdg852f8
p713
I1
sVcyl3bjl
p714
I1
sVdoy0awj
p715
I2
sVd78rs9r
p716
I1
sVdtf7tyo
p717
I1
sVd1dpru7
p718
I1
sVda7sbn1
p719
I1
sVdkx5ro3
p720
I1
sVdee9nyb
p721
I1
sVdfbkmy5
p722
I1
sVdh07zg0
p723
I1
sVd1c8xw5
p724
I4
sVdd0b04z
p725
I1
sVd6vopxd
p726
I2
sVd6alsxw
p727
I1
sVdbsof5l
p728
I1
sVdbksj59
p729
I1
sVd4v2evv
p730
I3
sVd303wtq
p731
I1
sVd08h76p
p732
I1
sVd57x4ey
p733
I1
sVdh0yong
p734
I1
sVdj2t96i
p735
I4
sVd279hb3
p736
I1
sVd35goob
p737
I1
sVd7cjujl
p738
I1
sVd9iwwig
p739
I1
sVddok8zv
p740
I1
sVd3cis8l
p741
I1
sVd4h4ta7
p742
I1
sVdo49r8t
p743
I1
sVdi82yh4
p744
I1
sVd6bsgib
p745
I1
sVdirkyt3
p746
I1
sVczb0gyv
p747
I1
sVdfcuf73
p748
I1
sVdfq8kik
p749
I1
sVd9uwq09
p750
I1
sVddgc8p2
p751
I3
sVdh0j3gk
p752
I1
sVdpbqiiu
p753
I2
sVdecmwwd
p754
I1
sVdqgs3lb
p755
I1
sVd09fxwg
p756
I1
sVd3s830b
p757
I1
sVdhyyuow
p758
I1
sVdrvslj4
p759
I3
sVdr2qx79
p760
I1
sVdhch3g8
p761
I1
sVd9ncjn6
p762
I1
sVdfvne7o
p763
I1
sVdmlvnsz
p764
I1
sVd8518yu
p765
I3
sVddz243s
p766
I1
sVdr597ta
p767
I1
sVdms7ymo
p768
I1
sVd4pok9s
p769
I1
sVdns2ohr
p770
I1
sVdbdaxig
p771
I1
sVd58l3rd
p772
I1
sVd6jclir
p773
I1
sVdd3w9qk
p774
I1
sVd5emjbw
p775
I1
sVd4xe1py
p776
I1
sVd1627lt
p777
I1
sVds1cmte
p778
I1
sVd5yr6os
p779
I1
sVd7xjxhz
p780
I5
sVd1gblpw
p781
I1
sVd1wih6f
p782
I1
sVdavfsew
p783
I1
sVdptsnys
p784
I1
sVdidm6m4
p785
I1
sVd5iv5tr
p786
I2
sVczffvr7
p787
I1
sVcyzfpxv
p788
I1
sVdcqw0a1
p789
I1
sVdcsg0mb
p790
I1
sVd615qn6
p791
I1
sVdjr8nce
p792
I1
sVdmxr6ii
p793
I1
sVd8y6q3e
p794
I1
sVd9q6diz
p795
I1
sVdtbcd1a
p796
I1
sVd3aos1d
p797
I1
sVd9bwi5e
p798
I1
sVdib7zwn
p799
I1
sVdqe09v4
p800
I1
sVd99dpki
p801
I1
sVdcy7uf3
p802
I2
sVd8aiqqu
p803
I1
sVczwzvm9
p804
I1
sVd3kssgw
p805
I1
sVdhi04kp
p806
I2
sVd5sgbfo
p807
I1
sVd9d3yw3
p808
I1
sVd09emmm
p809
I1
sVdadfnxe
p810
I1
sVdka04io
p811
I1
sVdfmuhfu
p812
I1
sVczd2aof
p813
I1
sVd2a6fpg
p814
I1
sVdknmfd1
p815
I2
sVdgifjfl
p816
I1
sVd3o30ra
p817
I1
sVdbtixiu
p818
I1
sVdqmurvu
p819
I1
sVdj1oi8l
p820
I1
sVdk7tbjv
p821
I1
sVdt0afuz
p822
I6
sVd0lmjyx
p823
I1
sVdrjsz5c
p824
I1
sVdeguobs
p825
I1
sVd1eqn3l
p826
I1
sVczfnovh
p827
I2
sVdatx6ip
p828
I1
sVdd6r1n4
p829
I4
sVdcx56le
p830
I1
sVdql9ntg
p831
I2
sVdfojt9y
p832
I2
sVdrpifsg
p833
I1
sVd5ftng0
p834
I1
sVdkswk3l
p835
I1
sVdc605nt
p836
I1
sVdbz1yw4
p837
I2
sVd7zrbir
p838
I3
sVdc9nft5
p839
I1
sVdfic2p6
p840
I2
sVdozxi48
p841
I1
sVdf8p79v
p842
I2
sVd5u431y
p843
I1
sVda0dx3p
p844
I2
sVdi0rolz
p845
I1
sVdbu3f2r
p846
I1
sVd51s1yb
p847
I1
sVd10zqsh
p848
I1
sVderlki0
p849
I1
sVd6zwjxi
p850
I1
sVd57o54n
p851
I1
sVdea2b9t
p852
I1
sVdta6gyw
p853
I1
sVd7t9jd6
p854
I2
sVdfaq7b0
p855
I1
sVdj4qx8o
p856
I1
sVdjn9it1
p857
I1
sVcyot7di
p858
I2
sVdds5zp3
p859
I1
sVd229a1x
p860
I1
sVdgcdf5g
p861
I1
sVdg6d0m8
p862
I1
sVd8c7zry
p863
I1
sVdcfi0ug
p864
I1
sVd0o1700
p865
I1
sVdcs6r61
p866
I2
sVdkg21wl
p867
I1
sVd2c97ap
p868
I1
sVd3nnlm0
p869
I2
sVdf1fnow
p870
I1
sVdfn3105
p871
I1
sVdtbdsbw
p872
I1
sVdb0c3d3
p873
I1
sVd5q1sr2
p874
I4
sVdqc8hwi
p875
I1
sVd4nvocz
p876
I1
sVdb9bgtb
p877
I1
sVd3gdd6f
p878
I1
sVdco6esh
p879
I3
sVd7jyn9y
p880
I1
sVdb3kvi4
p881
I1
sVdpc4pgu
p882
I1
sVdg1w64m
p883
I1
sVdgl8ti0
p884
I1
sVdgernor
p885
I1
sVd77aok2
p886
I1
sVd341lw5
p887
I1
sVdilwsoh
p888
I2
sVdn0yphu
p889
I2
sVdd285z6
p890
I2
sVd2w9pwc
p891
I2
sVdh2wm3d
p892
I3
sVcyjyims
p893
I1
sVdomg0w8
p894
I1
sVcyl43z2
p895
I2
sVdrtl4wn
p896
I1
sVdknlxig
p897
I1
sVdcsxxaz
p898
I2
sVdfj94nw
p899
I1
sVd31yuea
p900
I2
sVd50w6xj
p901
I1
sVda78kyu
p902
I1
sVd0ra904
p903
I1
sVd8jg58p
p904
I1
sVds4ph3f
p905
I1
sVd3s864a
p906
I1
sVdnolap8
p907
I3
sVdojfous
p908
I1
sVd72m5bi
p909
I1
sVdqf0ckn
p910
I1
sVd1bhkqn
p911
I1
sVd4tl07c
p912
I1
sVddbwqtt
p913
I1
sVdmjg2lc
p914
I1
sVdcm52ea
p915
I3
sVd5kqok8
p916
I1
sVdgquz6t
p917
I5
sVd67s3zo
p918
I2
sVd26qo4e
p919
I2
sVd8zyv1t
p920
I1
sVdbt3xh0
p921
I1
sVdsmpgmy
p922
I2
sVdd1i39r
p923
I1
sVd4gty82
p924
I1
sVdeelo7w
p925
I1
sVdgdmue0
p926
I1
sVddgismk
p927
I1
sVddisxem
p928
I1
sVdmjmjql
p929
I1
sVdf1crly
p930
I1
sVd5aj789
p931
I1
sVdb0s9gb
p932
I1
sVd2dj9fx
p933
I2
sVdgk69uj
p934
I1
sVdfvgl4b
p935
I1
sVd5xw5ni
p936
I1
sVd1u951o
p937
I1
sVd0vfjqv
p938
I2
sVdfgyf1a
p939
I1
sVcztzee7
p940
I2
sVddj9uw0
p941
I1
sVdqs23d1
p942
I1
sVdpk88sp
p943
I1
sVdn2mjaa
p944
I1
sVd3rofw6
p945
I1
sVdpasmja
p946
I1
sVdpgulh3
p947
I1
sVd3o5zrc
p948
I2
sVd6hhyna
p949
I2
sVdaeicb6
p950
I1
sVdq23b2c
p951
I1
sVdqla6lk
p952
I1
sVdedaeqx
p953
I3
sVdsbfhet
p954
I1
sVdex6gdx
p955
I2
sVdo3jto6
p956
I2
sVdn45g0e
p957
I1
sVdrqx5qt
p958
I1
sVdjh7po2
p959
I1
sVd2hzhtg
p960
I1
sVddausyy
p961
I1
sVdasqpxo
p962
I1
sVd1naa7d
p963
I2
sVdf1ijzu
p964
I1
sVdhgfjkb
p965
I1
sVcyrej1d
p966
I1
sVdbr316k
p967
I6
sVdcpdsrr
p968
I1
sVdk9727r
p969
I1
sVdkkxsdn
p970
I1
sVdqkrich
p971
I1
sVdfclo41
p972
I1
sVdibdbn4
p973
I1
sVd1sbn0l
p974
I2
sVdeghxtl
p975
I1
sVdn7wz0y
p976
I1
sVczbssza
p977
I1
sVdftliqh
p978
I1
sVdr2mk7u
p979
I1
sVdchkfna
p980
I1
sVd7r6vgt
p981
I1
sVds5fmv8
p982
I1
sVdq26w9h
p983
I1
sVdfgxycg
p984
I1
sVdhhsb7t
p985
I1
sVdgqv2qe
p986
I1
sVdmi4w7v
p987
I1
sVdo70gep
p988
I2
sVdcxzlo1
p989
I1
sVd435e3t
p990
I1
sVdc6xdv5
p991
I1
sVdexypmt
p992
I1
sVdkolscm
p993
I1
sVd4l0pv2
p994
I1
sVdckwdf1
p995
I1
sVdo6l22p
p996
I1
sVdrcchit
p997
I6
sVdkqms4w
p998
I1
sVdfd9vdn
p999
I1
sVdczw1n6
p1000
I1
sVd0fsvdh
p1001
I2
sVd31oju1
p1002
I1
sVcz2zvto
p1003
I1
sVdq292ev
p1004
I2
sVdmi3kn6
p1005
I2
sVd4foue2
p1006
I2
sVdknxl2u
p1007
I2
sVczvsi58
p1008
I1
sVdqjo8g7
p1009
I1
sVd1l70md
p1010
I1
sVczh4512
p1011
I1
sVdfxrb3s
p1012
I1
sVde2tf59
p1013
I1
sVd4htfl3
p1014
I1
sVd64z8h8
p1015
I1
sVd2lvp1l
p1016
I1
sVdrj900c
p1017
I1
sVdtdtkeg
p1018
I5
sVd6f3oq7
p1019
I1
sVdhwipqn
p1020
I1
sVdc3gvrs
p1021
I2
sVdaillbe
p1022
I1
sVd76ezu5
p1023
I3
sVdhblawd
p1024
I3
sVd53qbly
p1025
I2
sVdhwrouo
p1026
I1
sVd0x71sf
p1027
I1
sVczh4eww
p1028
I2
sVdrukx3a
p1029
I2
sVd8ekixb
p1030
I1
sVd1a4ssj
p1031
I5
sVdhs22bt
p1032
I1
sVd6x4qgl
p1033
I1
sVd0ov3m9
p1034
I1
sVd61nxkk
p1035
I2
sVdbb81fn
p1036
I1
sVdicakoy
p1037
I1
sVdfnlwjv
p1038
I1
sVdatq4s8
p1039
I1
sVdaxandb
p1040
I1
sVd9028zd
p1041
I1
sVd2cvofp
p1042
I3
sVd3mi6rv
p1043
I1
sVczg0k69
p1044
I1
sVdhimico
p1045
I1
sVdmeo29b
p1046
I1
sVdpff44f
p1047
I1
sVd3d74vi
p1048
I1
sVcyyd2pe
p1049
I1
sVd9dt8iz
p1050
I2
sVcz583mp
p1051
I1
sVd1fz00t
p1052
I1
sVdoxahtl
p1053
I1
sVddz4jir
p1054
I1
sVdrzoolq
p1055
I1
sVdjfjvo4
p1056
I2
sVda5pnxo
p1057
I1
sVdrfkq34
p1058
I1
sVd2qr7vr
p1059
I1
sVd7mv6js
p1060
I1
sVd9xbjp2
p1061
I2
sVdk067po
p1062
I1
sVd9mwdod
p1063
I1
sVdre8bve
p1064
I1
sVdfo1k1w
p1065
I1
sVd4u0z8k
p1066
I1
sVd7ibqyo
p1067
I1
sVd94t6u6
p1068
I1
sVdgtr8v9
p1069
I1
sVda4fvwf
p1070
I1
sVd4i5zz8
p1071
I1
sVdr56w2t
p1072
I1
sVd9psmwd
p1073
I1
sVddkjb76
p1074
I1
sVd9ftd6a
p1075
I1
sVdn5n16s
p1076
I1
sVdczgh4z
p1077
I1
sVd1hfkf0
p1078
I1
sVdj9pe52
p1079
I3
sVczywig0
p1080
I1
sVd9vx96j
p1081
I1
sVd7v44mc
p1082
I1
sVdhy39gs
p1083
I1
sVd1uttek
p1084
I1
sVdjc777s
p1085
I1
sVdi4l732
p1086
I1
sVd39hwd5
p1087
I1
sVdkarg8j
p1088
I3
sVdmwpyyv
p1089
I1
sVdcidztq
p1090
I1
sVd5suqix
p1091
I1
sVd3nx57d
p1092
I1
sVdf2k4ca
p1093
I1
sVdkj7gh1
p1094
I1
sVdd4yagk
p1095
I1
sVdh0xb0e
p1096
I1
sVdi3klov
p1097
I1
sVd1r0lgz
p1098
I1
sVd2alc8b
p1099
I2
sVd80rlu0
p1100
I1
sVd544y6x
p1101
I2
sVczgk4qh
p1102
I1
sVd0ofor5
p1103
I1
sVdn32ntr
p1104
I1
sVd7b8qy0
p1105
I1
sVd0eba1i
p1106
I1
sVdqayi42
p1107
I1
sVdeew0kj
p1108
I1
sVcylbbml
p1109
I1
sVdei93gm
p1110
I1
sVdg3znut
p1111
I1
sVd96xzu0
p1112
I1
sVdcsbef3
p1113
I1
sVd5sm2rs
p1114
I4
sVddgpryi
p1115
I1
sVdfp2vsi
p1116
I2
sVd3o34lv
p1117
I2
sVd8betgb
p1118
I1
sVd3o01ip
p1119
I1
sVd9vmw14
p1120
I1
sVd2auq8v
p1121
I1
sVd19hipq
p1122
I1
sVd2wh5n0
p1123
I1
sVd10o3kt
p1124
I1
sVdjvzh6r
p1125
I1
sVde3eqrt
p1126
I1
sVdnx5ati
p1127
I1
sVd0pyney
p1128
I2
sVczzx0js
p1129
I2
sVd7isa6w
p1130
I1
sVdfwmjh4
p1131
I1
sVdk0xzqg
p1132
I1
sVd2zdyyp
p1133
I1
sVdbmwywt
p1134
I1
sVdcpvwhl
p1135
I1
sVdbstua5
p1136
I5
sVd611sla
p1137
I1
sVd96enmj
p1138
I3
sVczy9utn
p1139
I1
sVdh6qn6l
p1140
I2
sVddwmlen
p1141
I3
sVds8tjpj
p1142
I2
sVdiq2oav
p1143
I2
sVd909vpz
p1144
I1
sVd3akw6d
p1145
I1
sVd4zr2f2
p1146
I1
sVd205pxc
p1147
I1
sVd4w7k51
p1148
I1
sVdh12h8i
p1149
I1
sVdetstaq
p1150
I1
sVdpxp09r
p1151
I1
sVdd1mydj
p1152
I1
sVda160fw
p1153
I1
sVd1tuckt
p1154
I1
sVd02evbn
p1155
I1
sVdrdzyd6
p1156
I1
sVdd3y7rj
p1157
I1
sVd2ucfqq
p1158
I1
sVd01m27l
p1159
I1
sVd4k01p1
p1160
I1
sVd1v5ugp
p1161
I4
sVd249lr3
p1162
I1
sVcz285eb
p1163
I1
sVdq2t5y8
p1164
I1
sVdkydbnx
p1165
I1
sVdh9b8aj
p1166
I1
sVdpiyc9j
p1167
I1
sVd89ldjo
p1168
I1
sVdd0r1cu
p1169
I1
sVdqmm0be
p1170
I1
sVdru6iq5
p1171
I1
sVd9uwadv
p1172
I2
sVdr1w4as
p1173
I1
sVdjc8eol
p1174
I2
sVdnxzyty
p1175
I1
sVdfic4ro
p1176
I1
sVd07e1a7
p1177
I1
sVcztiaa7
p1178
I2
sVdrq1pxz
p1179
I1
sVdkxz66n
p1180
I1
sVdbetiey
p1181
I1
sVdgmic1d
p1182
I1
sVdjzs3kl
p1183
I1
sVdjnuk5u
p1184
I4
sVd8yj51x
p1185
I1
sVdofludp
p1186
I2
sVd1io7oo
p1187
I1
sVd0q5ubn
p1188
I1
sVd2js5c0
p1189
I1
sVdhcjxns
p1190
I1
sVd4przve
p1191
I1
sVdgatvax
p1192
I2
sVdntcfu9
p1193
I1
sVdr9of1h
p1194
I1
sVdibo9hm
p1195
I1
sVdpsyif4
p1196
I1
sVd4dc7kr
p1197
I2
sVd5ucxv9
p1198
I2
sVczrkx04
p1199
I1
sVd1d339k
p1200
I1
sVd39umeu
p1201
I1
sVdhfe62j
p1202
I1
sVdmg7f8d
p1203
I2
sVdi42mup
p1204
I2
sVd0th1qf
p1205
I1
sVd61n9ft
p1206
I3
sVdax3pao
p1207
I2
sVd2zhh0a
p1208
I1
sVd0tsxk8
p1209
I1
sVdo7hm94
p1210
I1
sVddrlnlx
p1211
I6
sVd4ri9na
p1212
I1
sVds9jbrz
p1213
I1
sVdi3tc9g
p1214
I1
sVcykebmy
p1215
I1
sVd879nuv
p1216
I1
sVdgfa1w0
p1217
I2
sVdfcnx43
p1218
I1
sVdeg65hi
p1219
I4
sVd16xbsw
p1220
I1
sVdiolkg4
p1221
I1
sVdb3p7ep
p1222
I1
sVd8jgy56
p1223
I1
sVd1fyyb4
p1224
I1
sVd4of3wd
p1225
I2
sVdixcqgw
p1226
I1
sVdo25ekl
p1227
I2
sVcz811jy
p1228
I1
sVczuo3va
p1229
I1
sVdappq9t
p1230
I2
sVdc8agmx
p1231
I1
sVdgi22sp
p1232
I1
sVczcvh81
p1233
I1
sVds5qcj7
p1234
I1
sVdjb5zuc
p1235
I2
sVdbcy5hv
p1236
I3
sVdaswwcg
p1237
I1
sVdeffors
p1238
I2
sVczcl1fi
p1239
I1
sVdjplx95
p1240
I1
sVd2njdmo
p1241
I1
sVdh7i64u
p1242
I1
sVd6m9xbp
p1243
I2
sVddvsaz7
p1244
I1
sVd5q4sbe
p1245
I1
sVdarvl5i
p1246
I1
sVd2be0ex
p1247
I1
sVddwlxaq
p1248
I1
sVdd6nqbp
p1249
I2
sVd65bf0k
p1250
I1
sVcyrpuxb
p1251
I2
sVd74sl38
p1252
I1
sVczg2kn2
p1253
I1
sVdgsv7cf
p1254
I1
sVdk9t2u7
p1255
I1
sVd68qh0v
p1256
I2
sVcz426fw
p1257
I1
sVd80m7j2
p1258
I1
sVdp6jx3t
p1259
I1
sVd4sff86
p1260
I1
sVd7y9tvw
p1261
I1
sVdgawf5y
p1262
I1
sVcyv6b90
p1263
I1
sVdsiep30
p1264
I1
sVdiclobf
p1265
I1
sVcyl35cw
p1266
I1
sVd9ra1tt
p1267
I1
sVddrjmob
p1268
I1
sVdiqg2hw
p1269
I3
sVd61of86
p1270
I3
sVd1utyhb
p1271
I4
sVdol3dsi
p1272
I1
sVd4rari7
p1273
I2
sVczagp7u
p1274
I1
sVdsxrd50
p1275
I2
sVdmka5se
p1276
I1
sVdeg8w1b
p1277
I1
sVddwfk5g
p1278
I1
sVd4z8g1h
p1279
I1
sVd5ov959
p1280
I1
sVd0xg4kc
p1281
I1
sVd6whipc
p1282
I1
sVdh6pof4
p1283
I1
sVd26k3tt
p1284
I1
sVdqm0fo6
p1285
I1
sVd5q1f74
p1286
I1
sVdnfytav
p1287
I1
sVd1p1z5k
p1288
I1
sVd1kkb5p
p1289
I1
sVd6so7zf
p1290
I2
sVdesz3ts
p1291
I1
sVdtgfrla
p1292
I1
sVdoov3tg
p1293
I3
sVdc0en27
p1294
I4
sVd0qqrvm
p1295
I1
sVd074v35
p1296
I1
sVdcl5pue
p1297
I1
sVd3mpsjz
p1298
I1
sVdh6ghqy
p1299
I3
sVdbuyoww
p1300
I1
sVdql0wxz
p1301
I1
sVdftojk2
p1302
I1
sVdfnpuka
p1303
I1
sVd24g0qg
p1304
I1
sVdexrd4b
p1305
I1
sVd1sc6rh
p1306
I1
sVdfr5jm3
p1307
I1
sVdeycccn
p1308
I1
sVdnxvke5
p1309
I1
sVd2wmc1r
p1310
I1
sVddwxyhd
p1311
I1
sVdcqnsb6
p1312
I1
sVdccir05
p1313
I2
sVdf1n5oh
p1314
I1
sVdipgyf6
p1315
I1
sVdjpftqu
p1316
I1
sVdsfvzjr
p1317
I1
sVdb5o8lt
p1318
I1
sVdb2im8s
p1319
I1
sVdprgiwy
p1320
I1
sVd8o93xm
p1321
I1
sVdctj62n
p1322
I1
sVdeddvyv
p1323
I1
sVd1k35dk
p1324
I1
sVdfhjlsc
p1325
I1
sVdb9duba
p1326
I1
sVd65n6jm
p1327
I1
sVd3ssv7u
p1328
I1
sVdkqsx12
p1329
I2
sVdn56cyo
p1330
I2
sVdr9sg1f
p1331
I1
sVdfivgem
p1332
I1
sVd298r1n
p1333
I1
sVd6aplgg
p1334
I1
sVdibvof5
p1335
I1
sVddlzukq
p1336
I1
sVd55krbk
p1337
I1
sVd9rasvi
p1338
I1
sVdir3ga4
p1339
I1
sVd2wa6qf
p1340
I1
sVd8o25ic
p1341
I1
sVd0q451p
p1342
I1
sVd40vf7l
p1343
I1
sVdkh0ptu
p1344
I1
sVdrt7dg8
p1345
I1
sVczhjrau
p1346
I1
sVdea8l91
p1347
I1
sVd06q3ko
p1348
I1
sVdj5mlit
p1349
I1
sVd079919
p1350
I1
sVcyj1cg3
p1351
I1
sVdenuvno
p1352
I1
sVczwxb2z
p1353
I1
sVdbaf2nv
p1354
I1
sVda17af2
p1355
I1
sVdhktwns
p1356
I1
sVdkj29ka
p1357
I3
sVdfthcfn
p1358
I2
sVd6x5796
p1359
I1
sVda054pt
p1360
I1
sVczzp5ow
p1361
I1
sVd6hfach
p1362
I1
sVdg4z1cx
p1363
I1
sVdn2qbqj
p1364
I1
sVdajghcl
p1365
I1
sVd4ncpex
p1366
I1
sVdtfbjup
p1367
I1
sVd4db5z5
p1368
I1
sVd1lc4o8
p1369
I1
sVddj08ik
p1370
I1
sVdnqepw8
p1371
I1
sVddwwuo0
p1372
I1
sVdep9fyn
p1373
I1
sVdr6oci9
p1374
I3
sVd76rmgs
p1375
I2
sVdd7x386
p1376
I2
sVdaeuhc4
p1377
I2
sVd2sat7d
p1378
I1
sVdfopjab
p1379
I2
sVd5fprhq
p1380
I1
sVdcw26rh
p1381
I1
sVdd1fh4k
p1382
I1
sVds7jkwh
p1383
I1
sVd1lmfx3
p1384
I2
sVdoddrwt
p1385
I2
sVdd1jjtq
p1386
I1
sVd9d7pnr
p1387
I2
sVdg5mwro
p1388
I2
sVdiqf42m
p1389
I1
sVd8q10up
p1390
I1
sVcz6yhc9
p1391
I1
sVd9qjyhv
p1392
I2
sVdkrr5h6
p1393
I1
sVdbe556n
p1394
I1
sVda0nsq2
p1395
I3
sVdd6srv1
p1396
I3
sVdskxafm
p1397
I1
sVd7ht1m4
p1398
I2
sVd7ealxu
p1399
I1
sVd3fd92l
p1400
I1
sVdkcuqvu
p1401
I1
sVdiaqf5z
p1402
I1
sVdpbt07q
p1403
I2
sVdbogd3k
p1404
I1
sVdr0x0o3
p1405
I3
sVd4xo1vo
p1406
I1
sVdtiasbu
p1407
I1
sVd4yg8f9
p1408
I1
sVczzyii1
p1409
I1
sVd6z7fub
p1410
I1
sVdfm1r0j
p1411
I1
sVdms1vu4
p1412
I1
sVczk2ldd
p1413
I1
sVd3927vd
p1414
I1
sVcyoa7zm
p1415
I1
sVd4orhhc
p1416
I1
sVdo7l7xt
p1417
I1
sVdb7u304
p1418
I1
sVd4l4jzp
p1419
I2
sVcypsjwi
p1420
I1
sVd4n8a4y
p1421
I2
sVcynof79
p1422
I1
sVdfqqod6
p1423
I1
sVd2xtbvi
p1424
I1
sVd6kkjd6
p1425
I1
sVd350bgh
p1426
I1
sVd1e68dt
p1427
I3
sVdaehssw
p1428
I1
sVdgdmkr9
p1429
I1
sVdf6g0fg
p1430
I1
sVd303vsd
p1431
I1
sVde4cth7
p1432
I1
sVddtm7v9
p1433
I1
sVdfcukbj
p1434
I1
sVd0lrkzj
p1435
I1
sVd9ee3rp
p1436
I1
sVczqubsr
p1437
I1
sVczec31x
p1438
I1
sVdbv53nz
p1439
I1
sVdjlrklq
p1440
I1
sVcyv2kw4
p1441
I1
sVd2w9uz4
p1442
I1
sVd3ca8c7
p1443
I1
sVdjb7ll2
p1444
I1
sVddwx03n
p1445
I3
sVcznwbeu
p1446
I1
sVdj8r0nl
p1447
I1
sVdmqbve3
p1448
I1
sVcyvbk7r
p1449
I1
sVdk0miro
p1450
I4
sVdr6odok
p1451
I1
sVd8zbfjp
p1452
I1
sVd66s6b2
p1453
I1
sVd3mtked
p1454
I3
sVcyr39mo
p1455
I3
sVd1kxhlh
p1456
I1
sVdfy0d2a
p1457
I1
sVdjei0hy
p1458
I1
sVd0djb62
p1459
I1
sVdpbq8e3
p1460
I1
sVd6k3l9d
p1461
I1
sVdshl4c9
p1462
I1
sVdflw5dp
p1463
I1
sVdnnrnkj
p1464
I2
sVdbwr5xz
p1465
I2
sVd2q6u75
p1466
I1
sVdk5z034
p1467
I1
sVdewpecv
p1468
I1
sVd957m10
p1469
I1
sVd92ih5o
p1470
I1
sVdpnazwb
p1471
I1
sVdi6f34j
p1472
I1
sVcyq3ndk
p1473
I1
sVdk2lj9o
p1474
I2
sVds4pt7e
p1475
I1
sVdcmfhbv
p1476
I2
sVd40ic05
p1477
I1
sVdc78zrj
p1478
I1
sVd6b4xip
p1479
I1
sVd9uwfni
p1480
I2
sVdequkbc
p1481
I1
sVd42torb
p1482
I1
sVcz2igqz
p1483
I1
sVd11vbxq
p1484
I1
sVdf6i5yb
p1485
I1
sVddfch2p
p1486
I1
sVd4piqfz
p1487
I1
sVd0iupjq
p1488
I1
sVd2bqgke
p1489
I1
sVddcz7n3
p1490
I1
sVd9dy7zt
p1491
I1
sVdmvahns
p1492
I1
sVdk9l3y2
p1493
I1
sVd0zu5c6
p1494
I2
sVd2xxjlr
p1495
I1
sVd0psb0g
p1496
I4
sVd2yig8j
p1497
I2
sVdfjgt31
p1498
I2
sVd93nqm6
p1499
I1
sVd1kgwfu
p1500
I1
sVd2y3had
p1501
I1
sVdr2hjmy
p1502
I2
sVd8en84q
p1503
I1
sVdogchdy
p1504
I1
sVd366iru
p1505
I1
sVddys43z
p1506
I1
sVd5fs0cv
p1507
I1
sVd4v2r0k
p1508
I1
sVdq5ew5m
p1509
I1
sVd7h2ere
p1510
I1
sVdkdpfx4
p1511
I2
sVdo7upah
p1512
I1
sVd3wv8uf
p1513
I1
sVd6kstf4
p1514
I1
sVdc3z206
p1515
I1
sVd5hoqu7
p1516
I1
sVdcjuipo
p1517
I1
sVd3p4oxx
p1518
I1
sVdeoubl7
p1519
I1
sVdc6bh9s
p1520
I1
sVd4nn4m1
p1521
I1
sVd8rvx3v
p1522
I1
sVd5q661s
p1523
I1
sVdiu4x0f
p1524
I1
sVd77b60y
p1525
I1
sVd8hquy1
p1526
I2
sVd51n7qd
p1527
I1
sVd8uuwq6
p1528
I1
sVd5362eu
p1529
I3
sVdt04oii
p1530
I1
sVdeqmbby
p1531
I1
sVdt3c6we
p1532
I1
sVdiazqow
p1533
I5
sVdd0nvmf
p1534
I1
sVddi1vfq
p1535
I2
sVd4vbntc
p1536
I2
sVdrq4crm
p1537
I1
sVd303uly
p1538
I2
sVdbvnpji
p1539
I1
sVd4l3c6b
p1540
I1
sVd6bvcy7
p1541
I1
sVd8vfl5i
p1542
I2
sVd5ftk2m
p1543
I1
sVczzz6tg
p1544
I1
sVcypljq9
p1545
I1
sVcywqk4s
p1546
I1
sVd3sg76l
p1547
I1
sVd1vcls9
p1548
I1
sVdcldaob
p1549
I1
sVdcabgyh
p1550
I2
sVd73grb0
p1551
I1
sVd3pnj50
p1552
I1
sVddykjym
p1553
I1
sVdsst2vd
p1554
I1
sVdkalc5q
p1555
I1
sVdr7xibn
p1556
I1
sVdb22bdr
p1557
I1
sVd0fsgux
p1558
I2
sVdiuuvhk
p1559
I1
sVd0kfgey
p1560
I1
sVcyxkurd
p1561
I7
sVdi2bx58
p1562
I1
sVdf1d1l1
p1563
I4
sVd6ht7s1
p1564
I2
sVd4nvykx
p1565
I3
sVddtqmd8
p1566
I1
sVd3n3m3j
p1567
I1
sVdfa43df
p1568
I1
sVdewhbxa
p1569
I1
sVd7ftee2
p1570
I1
sVddbjrle
p1571
I1
sVdn0omzm
p1572
I2
sVd6btue8
p1573
I1
sVdszelwf
p1574
I1
sVd35j4qi
p1575
I1
sVddn6o5s
p1576
I1
sVcyu725e
p1577
I5
sVdiua6pq
p1578
I1
sVdoy5hcs
p1579
I1
sVdarbikk
p1580
I1
sVdcx04en
p1581
I1
sVdj2kohe
p1582
I1
sVdfgquul
p1583
I1
sVd8m023i
p1584
I2
sVdnfnrxe
p1585
I1
sVdefpmmu
p1586
I1
sVdfaq515
p1587
I1
sVdarj2xm
p1588
I1
sVczhg281
p1589
I1
sVdiqirpp
p1590
I1
sVdd13grc
p1591
I1
sVd3mc33k
p1592
I2
sVdhbq7he
p1593
I2
sVdaq0h6m
p1594
I2
sVdd1rr0i
p1595
I1
sVd5shual
p1596
I1
sVcynvimj
p1597
I5
sVdfx131k
p1598
I1
sVd9bntg7
p1599
I1
sVd96eddx
p1600
I4
sVdpcdop9
p1601
I3
sVd8roy70
p1602
I1
sVd4oe38f
p1603
I1
sVdqnl36x
p1604
I1
sVd5bhv4x
p1605
I1
sVdftlf12
p1606
I1
sVd70kb0e
p1607
I2
sVdhiuqwc
p1608
I2
sVd26bye4
p1609
I2
sVdqkrcu5
p1610
I2
sVd3mix6h
p1611
I1
sVd1a4wyv
p1612
I1
sVd5zkool
p1613
I1
sVdn154k4
p1614
I4
sVdtgqksl
p1615
I1
sVdf1d481
p1616
I1
sVdh4wd63
p1617
I1
sVd7ydj48
p1618
I1
sVdi7al5o
p1619
I1
sVcyn0bqq
p1620
I2
sVd065b0z
p1621
I1
sVdbm3m2i
p1622
I2
sVdakma1z
p1623
I2
sVd0rm5oh
p1624
I1
sVczk7l8t
p1625
I1
sVdimhqss
p1626
I1
sVdhafahx
p1627
I1
sVd2cwvym
p1628
I1
sVdrg23mq
p1629
I2
sVd3m6m33
p1630
I1
sVd46xfgm
p1631
I2
sVd9w9mag
p1632
I1
sVdg9jp8m
p1633
I1
sVd715lir
p1634
I1
sVd7xswdz
p1635
I1
sVdg8iukv
p1636
I1
sVcz3fkng
p1637
I1
sVd14anpi
p1638
I1
sVd5mu5n1
p1639
I1
sVdo496cy
p1640
I2
sVderbpum
p1641
I1
sVczjd4yp
p1642
I1
sVdaak6vy
p1643
I1
sVd0h1274
p1644
I1
sVd9vbyw0
p1645
I1
sVd8f0woj
p1646
I1
sVdjo14zk
p1647
I1
sVd3ijmeb
p1648
I1
sVdaa0q5i
p1649
I2
sVd0x5fy6
p1650
I1
sVd0brli4
p1651
I1
sVddr4i4q
p1652
I1
sVdtd5nzj
p1653
I1
sVdaeibnb
p1654
I2
sVd3vdi7x
p1655
I1
sVd1roleu
p1656
I1
sVdq65jst
p1657
I1
sVdkq5nwd
p1658
I1
sVdds6fad
p1659
I1
sVdh1bzn9
p1660
I1
sVcyzuor1
p1661
I1
sVdst5p85
p1662
I2
sVd5ns6zp
p1663
I1
sVd1us3my
p1664
I2
sVd38ck7o
p1665
I1
sVda58gfc
p1666
I1
sVdr5o1ik
p1667
I1
sVd124d21
p1668
I1
sVdjc7sob
p1669
I1
sVdc6vymh
p1670
I1
sVdhy876y
p1671
I1
sVdfj28m4
p1672
I1
sVds4n8s6
p1673
I6
sVczw2d3d
p1674
I1
sVd037019
p1675
I1
sVdqh8xqs
p1676
I1
sVdb9goza
p1677
I1
sVd3oxv92
p1678
I1
sVdey7013
p1679
I1
sVdkbft6a
p1680
I1
sVdb5nt5v
p1681
I4
sVd68ukx9
p1682
I1
sVd1rgoce
p1683
I1
sVd1pr2qx
p1684
I1
sVdkjgi3o
p1685
I1
sVdem27qj
p1686
I1
sVdohnqcf
p1687
I1
sVdcsffgq
p1688
I1
sVczd2okg
p1689
I1
sVd3gi40r
p1690
I1
sVdfctlzu
p1691
I2
sVd4pmdh2
p1692
I1
sVdqacl49
p1693
I1
sVdhi8j1i
p1694
I1
sVd0nlw64
p1695
I2
sVdpc4umg
p1696
I1
sVdow0roo
p1697
I1
sVdjoioqf
p1698
I2
sVdgggznt
p1699
I1
sVd86f7vn
p1700
I1
sVdh76i93
p1701
I1
sVd0owkr2
p1702
I1
sVdcsn9l6
p1703
I1
sVdf1f439
p1704
I1
sVdctac9r
p1705
I1
sVdhsh9ke
p1706
I1
sVd3t46gi
p1707
I1
sVddhmlyk
p1708
I2
sVdf0d4ja
p1709
I1
sVcyvkkcy
p1710
I1
sVd47w0wh
p1711
I1
sVdiqw5x6
p1712
I2
sVd1ujfb5
p1713
I1
sVd88780f
p1714
I1
sVdcsq1bv
p1715
I3
sVdc1rgcx
p1716
I2
sVd0m1kt9
p1717
I2
sVdi1jxg2
p1718
I1
sVdczuvpu
p1719
I1
sVdatplry
p1720
I1
sVczzxmqn
p1721
I1
sVdf6fq9c
p1722
I1
sVddbwvgx
p1723
I1
sVdf6xo0d
p1724
I1
sVda0rvja
p1725
I1
sVddi6a3m
p1726
I1
sVderidkv
p1727
I2
sVddoiu9q
p1728
I1
sVdg6s7ub
p1729
I1
sVd89e0hm
p1730
I1
sVdkclg90
p1731
I2
sVd0hut8b
p1732
I1
sVd8hbi6y
p1733
I1
sVdauooh1
p1734
I1
sVd3e4ktb
p1735
I1
sVdeu8zl7
p1736
I1
sVd0fhpt0
p1737
I1
sVd59oo0c
p1738
I1
sVdkjvjl8
p1739
I1
sVde21pp0
p1740
I1
sVdkag5qn
p1741
I2
sVd2em0la
p1742
I1
sVd0fi3lv
p1743
I1
sVd1yg19s
p1744
I1
sVdcn0lxg
p1745
I1
sVd7sutou
p1746
I1
sVdc0ed9a
p1747
I2
sVdjaw2gk
p1748
I1
sVd4wgq43
p1749
I1
sVd900bsp
p1750
I3
sVd30642k
p1751
I1
sVdsn4r0p
p1752
I1
sVd9ys1ft
p1753
I1
sVdh7m9z4
p1754
I1
sVd53hqu0
p1755
I1
sVdct73ss
p1756
I1
sVdqgsooh
p1757
I1
sVdkkd4dq
p1758
I1
sVd38z4fp
p1759
I1
sVd7eakjs
p1760
I2
sVdixkskw
p1761
I2
sVdgb88av
p1762
I2
sVd1ltack
p1763
I2
sVd8hhyge
p1764
I1
sVdasuf8q
p1765
I1
sVdkx4hpq
p1766
I1
sVd2oujz5
p1767
I1
sVderc7b8
p1768
I2
sVd7rqj0a
p1769
I1
sVd2jhe1c
p1770
I1
sVda5rjeu
p1771
I1
sVd4e09fh
p1772
I1
sVdawoxxy
p1773
I1
sVd00t8cc
p1774
I1
sVdj8gu1b
p1775
I1
sVd6q4eop
p1776
I1
sVdn29io9
p1777
I1
sVddgr30s
p1778
I1
sVdfbsyz6
p1779
I1
sVd6fnfam
p1780
I1
sVdht1gfq
p1781
I1
sVddwm352
p1782
I1
sVde4odon
p1783
I1
sVdi174oz
p1784
I2
sVczzajms
p1785
I2
sVddmu0id
p1786
I1
sVdf11w90
p1787
I1
sVdf148sk
p1788
I3
sVdb06k8a
p1789
I1
sVd77s72u
p1790
I1
sVdcsdk03
p1791
I1
sVd7lku37
p1792
I1
sVdofwr25
p1793
I1
sVdeswprl
p1794
I1
sVdd89gqn
p1795
I2
sVd99my2n
p1796
I5
sVczbd884
p1797
I1
sVczdmgy4
p1798
I1
sVdjzs913
p1799
I1
sVdk4gojo
p1800
I1
sVd4bk73b
p1801
I4
sVdibmfco
p1802
I1
sVd8ezmyd
p1803
I1
sVdmzfklp
p1804
I1
sVdjs4fh5
p1805
I4
sVd066dco
p1806
I1
sVd6izffk
p1807
I1
sVd0sgxit
p1808
I2
sVd2zbdb7
p1809
I1
sVdjjijx3
p1810
I1
sVd2329ih
p1811
I1
sVd6jkj1g
p1812
I1
sVdaf4akt
p1813
I1
sVd6smeiu
p1814
I1
sVdifuxb4
p1815
I1
sVdqkw0fs
p1816
I1
sVdb0dif2
p1817
I1
sVdb0xe4z
p1818
I1
sVd598qcn
p1819
I1
sVdqshmdv
p1820
I3
sVdi7qgu2
p1821
I1
sVd8j8yhg
p1822
I1
sVdmuvchr
p1823
I1
sVd3djiaj
p1824
I2
sVdsnkbfa
p1825
I1
sVdegvozp
p1826
I1
sVd74frgf
p1827
I1
sVd7cm00f
p1828
I1
sVd8d9vl2
p1829
I1
sVdh3ewx6
p1830
I1
sVditqsja
p1831
I1
sVd8t4f63
p1832
I1
sVd76d5vn
p1833
I1
sVdaivob5
p1834
I1
sVd14054u
p1835
I1
sVd1z1l9g
p1836
I1
sVdiermkq
p1837
I1
sVddxda21
p1838
I1
sVd3ugfnk
p1839
I1
sVdgj9vlv
p1840
I1
sVdkjox7d
p1841
I1
sVdcdozxl
p1842
I1
sVdk15l43
p1843
I1
sVd1r0y6p
p1844
I1
sVdnadx93
p1845
I1
sVd29d1lg
p1846
I1
sVd8klrng
p1847
I1
sVd2e9bwg
p1848
I1
sVdcavrwd
p1849
I1
sVd6d60lh
p1850
I1
sVd01zbpd
p1851
I1
sVdnedpxg
p1852
I1
sVczeurao
p1853
I1
sVd0d9ch8
p1854
I1
sVd570k1j
p1855
I1
sVd3xlth9
p1856
I1
sVdmhzy6h
p1857
I2
sVd22k7t5
p1858
I1
sVd27acm6
p1859
I1
sVdqjycp6
p1860
I1
sVczzri6t
p1861
I1
sVd9br1nc
p1862
I1
sVd5axgja
p1863
I1
sVd75nvec
p1864
I1
sVdgo8cxl
p1865
I1
sVd0ptu8j
p1866
I2
sVdfoi02v
p1867
I1
sVdhzzcw6
p1868
I1
sVdf1112e
p1869
I1
sVdnaes2a
p1870
I1
sVczxnrzp
p1871
I2
sVdsg4380
p1872
I1
sVdgmlysl
p1873
I1
sVd4bt747
p1874
I2
sVd83yfef
p1875
I1
sVd035msx
p1876
I1
sVdgbd98e
p1877
I1
sVd2kraw2
p1878
I1
sVdalr6ok
p1879
I1
sVdh64zhw
p1880
I1
sVd3ydtoh
p1881
I1
sVdfaw9of
p1882
I1
sVdms2ihy
p1883
I1
sVdfp9dny
p1884
I1
sVd8qcmbr
p1885
I1
sVcz2blrj
p1886
I1
sVd8693yz
p1887
I2
sVd9hg55g
p1888
I1
sVd8hm615
p1889
I1
sVddwvdru
p1890
I3
sVcynuck3
p1891
I1
sVcyia8vr
p1892
I2
sVdmis85d
p1893
I1
sVdefhl38
p1894
I1
sVddbo7i9
p1895
I1
sVd1hm1r6
p1896
I1
sVdroonma
p1897
I2
sVd5rmur4
p1898
I1
sVd9hwmnk
p1899
I1
sVd8lkli4
p1900
I1
sVdn2pffh
p1901
I2
sVd8513nm
p1902
I1
sVdp02nss
p1903
I1
sVdcl313u
p1904
I3
sVcyz95f6
p1905
I1
sVddxyb0o
p1906
I1
sVdn9xe2i
p1907
I2
sVdaxlb8q
p1908
I1
sVd921r5d
p1909
I1
sVdijctc3
p1910
I1
sVd7kamfe
p1911
I2
sVde8injq
p1912
I1
sVd7rtxtp
p1913
I1
sVdb0dl9w
p1914
I1
sVdemjuhm
p1915
I1
sVda2jqrn
p1916
I1
sVd7xdzbe
p1917
I1
sVd3d6mjc
p1918
I1
sVdfu481g
p1919
I1
sVdberu8w
p1920
I2
sVcz3loht
p1921
I1
sVdsmhezk
p1922
I1
sVcz26evx
p1923
I1
sVds0c1xt
p1924
I1
sVdravisl
p1925
I1
sVdmw7nqs
p1926
I1
sVdf1a8d6
p1927
I2
sVdejh5nx
p1928
I1
sVd5kfp4v
p1929
I1
sVdenrv1s
p1930
I1
sVd2qzii0
p1931
I1
sVd8pbp5g
p1932
I1
sVd89r3lx
p1933
I1
sVdkygeed
p1934
I1
sVczu0o8e
p1935
I2
sVd9uwhb4
p1936
I1
sVd5zdwm5
p1937
I1
sVdqxbsgx
p1938
I1
sVddd3vat
p1939
I1
sVdcyq1tm
p1940
I1
sVdqxbnpw
p1941
I1
sVdgeu52t
p1942
I1
sVd3o37o6
p1943
I1
sVd17kzyz
p1944
I1
sVdmq8k1b
p1945
I1
sVd80diu9
p1946
I1
sVdpzvp1f
p1947
I1
sVd6xpcp3
p1948
I1
sVdd3pk9n
p1949
I1
sVdrt1tj4
p1950
I2
sVcz2evk2
p1951
I2
sVden2mln
p1952
I1
sVdd1orwv
p1953
I1
sVddf2gko
p1954
I1
sVdq8gopi
p1955
I4
sVdfdgg5i
p1956
I2
sVdimnxdy
p1957
I1
sVd1ybfja
p1958
I1
sVdplht0c
p1959
I1
sVdbltcct
p1960
I1
sVdcbckae
p1961
I1
sVdicfbet
p1962
I1
sVdcc3pkz
p1963
I1
sVd4z50t6
p1964
I1
sVcztgbu3
p1965
I1
sVdslq4ci
p1966
I1
sVd2p1zxc
p1967
I1
sVd2dnyw6
p1968
I1
sVd4md8bg
p1969
I1
sVdcswzx5
p1970
I1
sVddihxo4
p1971
I2
sVdej6yi6
p1972
I1
sVd8bkt7r
p1973
I1
sVd9k3o3o
p1974
I2
sVdcbrtsf
p1975
I1
sVdjy99i5
p1976
I1
sVd393999
p1977
I1
sVdaget88
p1978
I2
sVd9r93k2
p1979
I2
sVdfcy7wa
p1980
I1
sVd8k3xpz
p1981
I2
sVd0s9u6o
p1982
I1
sVd662910
p1983
I1
sVd8zt4m7
p1984
I1
sVdeqa0op
p1985
I2
sVd5hpi4g
p1986
I1
sVdrp3eye
p1987
I1
sVd3m6cvh
p1988
I1
sVd2tme3u
p1989
I1
sVd3x36bb
p1990
I2
sVd6x2c68
p1991
I1
sVdjotmns
p1992
I1
sVdbwgw03
p1993
I8
sVdn39kdw
p1994
I1
sVdgz3o44
p1995
I1
sVd3t47zd
p1996
I2
sVdem2k5h
p1997
I1
sVd5xlwi1
p1998
I1
sVd0l4syj
p1999
I1
sVd44l7sg
p2000
I1
sVd5gyl1l
p2001
I1
sVdnybsqt
p2002
I1
sVdj249y5
p2003
I1
sVdctxxqb
p2004
I1
sVcztlcpq
p2005
I1
sVdcu2kyp
p2006
I1
sVdc6w0ex
p2007
I2
sVd5sh2qk
p2008
I1
sVd6wi01b
p2009
I1
sVd9kv0k9
p2010
I1
sVd2hzod6
p2011
I3
sVdarqdzh
p2012
I1
sVdkypetx
p2013
I2
sVczqi5o3
p2014
I1
sVdh2uweb
p2015
I1
sVdnwcpyj
p2016
I2
sVcyjrzc4
p2017
I1
sVdkqfht7
p2018
I1
sVdhcl9b1
p2019
I1
sVdnaedkq
p2020
I1
sVd11l6qm
p2021
I1
sVd01f8wj
p2022
I1
sVdh6njvg
p2023
I1
sVd7ceyy6
p2024
I1
sVd4aqtbn
p2025
I1
sVderlcd0
p2026
I1
sVdbqhvom
p2027
I1
sVd01wc6e
p2028
I1
sVdhl3458
p2029
I2
sVd4tp9fg
p2030
I1
sVdckx027
p2031
I4
sVdb8sy6h
p2032
I1
sVdoyhm1h
p2033
I1
sVd8pj7uw
p2034
I1
sVdjzu82l
p2035
I1
sVd02iaj2
p2036
I1
sVcz8mms4
p2037
I1
sVd0ifoe7
p2038
I1
sVd6om3ej
p2039
I1
sVd55wf7p
p2040
I1
sVdk5977b
p2041
I1
sVdhsmh34
p2042
I1
sVd502az0
p2043
I1
sVdnclaa4
p2044
I1
sVd7u6r0q
p2045
I1
sVcz9dnwi
p2046
I1
sVczu3zy5
p2047
I1
sVczrxoa5
p2048
I1
sVdf18qq3
p2049
I2
sVd4eylxa
p2050
I1
sVd0at55u
p2051
I1
sVdbx1q8v
p2052
I1
sVd7bmpxf
p2053
I1
sVdr9pj0y
p2054
I1
sVdo596uh
p2055
I1
sVdklupu8
p2056
I1
sVda3qile
p2057
I1
sVdnmda7s
p2058
I6
sVdh5gsv7
p2059
I1
sVd2yjihp
p2060
I1
sVd9082no
p2061
I1
sVd0slmv7
p2062
I1
sVd0cla8x
p2063
I1
sVd0xb9a8
p2064
I1
sVdq5jee1
p2065
I1
sVd3bki7b
p2066
I1
sVdsojw74
p2067
I1
sVdbty3bt
p2068
I1
sVd3x5xi6
p2069
I1
sVds4t95d
p2070
I1
sVd27bb4j
p2071
I1
sVd1jugm8
p2072
I2
sVcz7qyuv
p2073
I1
sVdqyp0gh
p2074
I1
sVdel3pc3
p2075
I1
sVd9qea5i
p2076
I1
sVdc9187g
p2077
I1
sVd5nuedw
p2078
I1
sVdnlwrah
p2079
I1
sVdab9qxf
p2080
I1
sVdo25kn1
p2081
I1
sVd8ls1v6
p2082
I1
sVdejc1j0
p2083
I1
sVd6w229c
p2084
I1
sVdq2b0kp
p2085
I1
sVd1u5pp7
p2086
I1
sVd3oadh2
p2087
I3
sVdh0n2ii
p2088
I1
sVdb35ffm
p2089
I1
sVd1g6s7f
p2090
I2
sVde6wola
p2091
I1
sVd5novsu
p2092
I1
sVdk8aioy
p2093
I1
sVdmu0jrp
p2094
I1
sVdgkfkt6
p2095
I1
sVdilwqf3
p2096
I2
sVdg0ip9u
p2097
I1
sVdax47p5
p2098
I3
sVdf6kebu
p2099
I2
sVdd156sc
p2100
I1
sVd7q4wad
p2101
I1
sVdnpjo2d
p2102
I1
sVcyzwsg3
p2103
I1
sVcznc8h0
p2104
I1
sVd2oidum
p2105
I1
sVdhdzldm
p2106
I1
sVdf7fmyd
p2107
I1
sVd5ftekr
p2108
I1
sVdaquxcu
p2109
I3
sVdjaggeb
p2110
I1
sVd2nsm7w
p2111
I1
sVd5jpoo6
p2112
I1
sVdpbqpud
p2113
I1
sVdhsqu38
p2114
I1
sVdfdr594
p2115
I1
sVd16x6fx
p2116
I1
sVdkktfwy
p2117
I1
sVdr4qcb1
p2118
I1
sVd31t3zp
p2119
I1
sVd6273bp
p2120
I1
sVd0ndyyt
p2121
I1
sVdmg9x0t
p2122
I5
sVd09reu6
p2123
I1
sVd774u0i
p2124
I1
sVd2bcsjp
p2125
I1
sVd3maisu
p2126
I2
sVd8t6mnp
p2127
I1
sVd5y0xs1
p2128
I1
sVdfdri2a
p2129
I3
sVd5imwlg
p2130
I1
sVdomkqdt
p2131
I1
sVdg24pjz
p2132
I1
sVdjgfgsq
p2133
I1
sVdglxz76
p2134
I2
sVcz0y1kt
p2135
I1
sVdfvz0z5
p2136
I1
sVd6k7ukh
p2137
I1
sVdk529iw
p2138
I1
sVdgpuj2t
p2139
I2
sVdac6j11
p2140
I1
sVde9w6ko
p2141
I1
sVdic151o
p2142
I1
sVdswkyej
p2143
I1
sVdho0x6h
p2144
I1
sVd3jro7e
p2145
I1
sVcyx0vg8
p2146
I1
sVd5zkqs5
p2147
I2
sVd9wib6t
p2148
I2
sVdt0vmyi
p2149
I1
sVdk90lc7
p2150
I1
sVd6en15n
p2151
I3
sVdfxivla
p2152
I1
sVd6cfbpp
p2153
I1
sVd2cru9a
p2154
I1
sVcyl5vve
p2155
I1
sVd2kffq7
p2156
I1
sVd83ckm2
p2157
I3
sVdii2tzr
p2158
I1
sVdewh1hj
p2159
I1
sVd2jh478
p2160
I1
sVdbmp70v
p2161
I1
sVcz9fesx
p2162
I1
sVd29j9u7
p2163
I1
sVdrqh34b
p2164
I2
sVdk9blve
p2165
I1
sVdig9zqn
p2166
I1
sVdmj249r
p2167
I1
sVd5ar8zg
p2168
I1
sVdbwl85a
p2169
I1
sVd8ksi9v
p2170
I1
sVdjg6dee
p2171
I2
sVdq6t3g0
p2172
I1
sVd1rsure
p2173
I1
sVd0qs8e6
p2174
I1
sVcyoife0
p2175
I1
sVcyqyxay
p2176
I1
sVdmun5t2
p2177
I2
sVd99fjfh
p2178
I1
sVdkgfi0s
p2179
I1
sVda0zqc4
p2180
I7
sVd909v3g
p2181
I1
sVdrgs4qf
p2182
I1
sVddwjcmf
p2183
I1
sVd2u8e8k
p2184
I1
sVczsq2yx
p2185
I1
sVd70w5pp
p2186
I1
sVd5og016
p2187
I1
sVd92r7kb
p2188
I1
sVddylkbi
p2189
I1
sVd3kudw8
p2190
I1
sVdrt30xy
p2191
I1
sVd3fyzh8
p2192
I2
sVd3wpogf
p2193
I1
sVdf1ddcf
p2194
I2
sVd07ttxh
p2195
I2
sVdct0lxk
p2196
I1
sVdjkd6qd
p2197
I1
sVdkvs6s2
p2198
I1
sVd8hk2m0
p2199
I1
sVd3etyub
p2200
I1
sVdiup5cy
p2201
I2
sVdasrhwc
p2202
I2
sVdheyevb
p2203
I1
sVd5qdtd3
p2204
I1
sVd3mjpng
p2205
I4
sVd78stwk
p2206
I1
sVdjl3i7a
p2207
I1
sVdmx3z9g
p2208
I3
sVdkkdg8x
p2209
I1
sVd7nujj9
p2210
I1
sVdcy5v9v
p2211
I1
sVdsmbgrt
p2212
I1
sVd32srfl
p2213
I1
sVdjmg72h
p2214
I1
sVd0li05e
p2215
I1
sVdk16v2u
p2216
I1
sVdsj91p0
p2217
I1
sVdc15mb1
p2218
I1
sVdenxgwk
p2219
I1
sVdcbc693
p2220
I1
sVdn16kuz
p2221
I2
sVdd519dm
p2222
I1
sVd7nwxs2
p2223
I4
sVdf1imm1
p2224
I1
s.