(dp0
Vcymux2s
p1
I1
s.(dp0
Vcynw0bx
p1
I1
sVcymux2s
p2
I1
s.(dp0
Vcynw0bx
p1
I1
sVcymux2s
p2
I1
s.(dp0
Vcymux2s
p1
I1
sVcypljq9
p2
I1
s.(dp0
Vcymux2s
p1
I1
sVcysq8df
p2
I1
s.(dp0
Vcyt1nfz
p1
I1
sVcymux2s
p2
I1
s.(dp0
Vcymux2s
p1
I1
sVcz7febq
p2
I1
s.(dp0
Vczf6ced
p1
I1
sVcymux2s
p2
I1
s.(dp0
Vcymux2s
p1
I1
sVczrhgqo
p2
I1
s.(dp0
Vd00u5h8
p1
I1
sVcymux2s
p2
I1
s.(dp0
Vd0272s2
p1
I1
sVcymux2s
p2
I1
s.(dp0
Vd0c1e78
p1
I1
sVcymux2s
p2
I1
s.(dp0
Vd0iuem9
p1
I1
sVcymux2s
p2
I1
s.(dp0
Vd0rpcnf
p1
I1
sVcymux2s
p2
I1
s.(dp0
Vd19ikcz
p1
I1
sVcymux2s
p2
I1
s.(dp0
Vcymux2s
p1
I1
sVd1gkbcl
p2
I1
s.(dp0
Vd1o56cu
p1
I1
sVcymux2s
p2
I1
s.(dp0
Vd1utyhb
p1
I1
sVcymux2s
p2
I1
s.(dp0
Vcymux2s
p1
I1
sVd1zuacj
p2
I1
s.(dp0
Vd26mrhr
p1
I1
sVcymux2s
p2
I1
s.(dp0
Vd26uwij
p1
I1
sVcymux2s
p2
I1
s.(dp0
Vd2g1dsv
p1
I1
sVcymux2s
p2
I1
s.(dp0
Vcymux2s
p1
I1
sVd31ft1o
p2
I1
s.(dp0
Vd4t6voh
p1
I1
sVcymux2s
p2
I1
s.(dp0
Vd4t6voh
p1
I1
sVcymux2s
p2
I1
s.(dp0
Vd4xd564
p1
I1
sVcymux2s
p2
I1
s.(dp0
Vd53nt9o
p1
I1
sVcymux2s
p2
I1
s.(dp0
Vd587674
p1
I1
sVcymux2s
p2
I1
s.(dp0
Vd587674
p1
I1
sVcymux2s
p2
I1
s.(dp0
Vd5a3if1
p1
I1
sVcymux2s
p2
I1
s.(dp0
Vd5c4wbm
p1
I1
sVcymux2s
p2
I1
s.(dp0
Vcymux2s
p1
I1
sVd63r8kz
p2
I1
s.(dp0
Vd74kr5f
p1
I1
sVcymux2s
p2
I1
s.(dp0
Vd8jdy5o
p1
I1
sVcymux2s
p2
I1
s.(dp0
Vcymux2s
p1
I1
sVd8u7c3j
p2
I1
s.(dp0
Vcymux2s
p1
I1
sVd9iua41
p2
I1
s.(dp0
Vda1uq9z
p1
I1
sVcymux2s
p2
I1
s.(dp0
Vdaivob5
p1
I1
sVcymux2s
p2
I1
s.(dp0
Vdat2l0s
p1
I1
sVcymux2s
p2
I1
s.(dp0
Vdbmp70v
p1
I1
sVcymux2s
p2
I1
s.(dp0
Vcymux2s
p1
I1
sVdboqfes
p2
I1
s.(dp0
Vcymux2s
p1
I1
sVdbwqja2
p2
I1
s.(dp0
Vdcg9rrs
p1
I1
sVcymux2s
p2
I1
s.(dp0
Vddkhybw
p1
I1
sVcymux2s
p2
I1
s.(dp0
Vdeo8qyl
p1
I1
sVcymux2s
p2
I1
s.(dp0
Vcymux2s
p1
I1
sVdewg8g4
p2
I1
s.(dp0
Vdf1ijzu
p1
I1
sVcymux2s
p2
I1
s.(dp0
Vcymux2s
p1
I1
sVdfda3bz
p2
I1
s.(dp0
Vcymux2s
p1
I1
sVdfn277t
p2
I1
s.(dp0
Vdfow5r8
p1
I1
sVcymux2s
p2
I1
s.(dp0
Vdfwu96v
p1
I1
sVcymux2s
p2
I1
s.(dp0
Vdg5mwro
p1
I1
sVcymux2s
p2
I1
s.(dp0
Vdgdmue0
p1
I1
sVcymux2s
p2
I1
s.(dp0
Vdgfgjx0
p1
I1
sVcymux2s
p2
I1
s.(dp0
Vdh0hcnz
p1
I1
sVcymux2s
p2
I1
s.(dp0
Vcymux2s
p1
I1
sVdhxi4f7
p2
I1
s.(dp0
Vdi396qb
p1
I1
sVcymux2s
p2
I1
s.(dp0
Vdi84h7v
p1
I1
sVcymux2s
p2
I1
s.(dp0
Vdi85chn
p1
I1
sVcymux2s
p2
I1
s.(dp0
Vdir0xi4
p1
I1
sVcymux2s
p2
I1
s.(dp0
Vdixpps7
p1
I1
sVcymux2s
p2
I1
s.(dp0
Vdiyq02v
p1
I1
sVcymux2s
p2
I1
s.(dp0
Vdj303ug
p1
I1
sVcymux2s
p2
I1
s.(dp0
Vcymux2s
p1
I1
sVdjbncex
p2
I1
s.(dp0
Vcymux2s
p1
I1
sVdjtu7v2
p2
I1
s.(dp0
Vcymux2s
p1
I1
sVdk9e4xe
p2
I1
s.(dp0
Vcymux2s
p1
I1
sVdmxtw8j
p2
I1
s.(dp0
Vdn25xer
p1
I1
sVcymux2s
p2
I1
s.(dp0
Vcymux2s
p1
I1
sVdn2kvqx
p2
I1
s.(dp0
Vcymux2s
p1
I1
sVdnrc4m3
p2
I1
s.(dp0
Vdo9lscd
p1
I1
sVcymux2s
p2
I1
s.(dp0
Vdokigs2
p1
I1
sVcymux2s
p2
I1
s.(dp0
Vdr78l70
p1
I1
sVcymux2s
p2
I1
s.(dp0
Vdrhtt38
p1
I1
sVcymux2s
p2
I1
s.(dp0
Vcymux2s
p1
I1
sVds45kb2
p2
I1
s.(dp0
Vdtirbmd
p1
I1
sVcymux2s
p2
I1
s.