(dp0
Vcyqkyzf
p1
I1
s.(dp0
Vcz40co9
p1
I1
sVcyqkyzf
p2
I1
s.(dp0
Vcyqkyzf
p1
I1
sVczgapgd
p2
I1
s.(dp0
Vcyqkyzf
p1
I1
sVd31e740
p2
I1
s.(dp0
Vd38eqbc
p1
I1
sVcyqkyzf
p2
I1
s.(dp0
Vcyqkyzf
p1
I1
sVd4njckc
p2
I1
s.(dp0
Vcyqkyzf
p1
I1
sVd82zv21
p2
I1
s.(dp0
Vcyqkyzf
p1
I1
sVd82zv21
p2
I1
s.(dp0
Vcyqkyzf
p1
I1
sVd90i99v
p2
I1
s.(dp0
Vcyqkyzf
p1
I1
sVdbpwgi2
p2
I1
s.(dp0
Vcyqkyzf
p1
I1
sVdip87m2
p2
I1
s.(dp0
Vdmf2b20
p1
I1
sVcyqkyzf
p2
I1
s.(dp0
Vcyqkyzf
p1
I1
sVdmq4tjm
p2
I1
s.(dp0
Vcyqkyzf
p1
I1
sVdmt2rpm
p2
I1
s.(dp0
Vcyqkyzf
p1
I1
sVdqcgu9o
p2
I1
s.(dp0
Vcyqkyzf
p1
I1
sVdst72a9
p2
I1
s.