(dp0
Vd7eiju9
p1
I1
sVd8moasb
p2
I1
sVczjgmz8
p3
I1
sVdbpp9lh
p4
I1
sVd1dszk0
p5
I1
sVd28wpcw
p6
I1
sVd0z7a0c
p7
I1
sVd89q8jp
p8
I1
sVd02susa
p9
I1
sVd2a1wvb
p10
I1
sVcypccz6
p11
I1
sVddpz1tj
p12
I1
s.