(dp0
Vcykfbz5
p1
I1
s.(dp0
Vcz04lc5
p1
I1
sVcykfbz5
p2
I1
s.(dp0
Vd0hfq1u
p1
I1
sVcykfbz5
p2
I1
s.(dp0
Vd0mhf65
p1
I1
sVcykfbz5
p2
I1
s.(dp0
Vd1ij2ap
p1
I1
sVcykfbz5
p2
I1
s.(dp0
Vd2rv1cf
p1
I1
sVcykfbz5
p2
I1
s.(dp0
Vd2ykqq5
p1
I1
sVcykfbz5
p2
I1
s.(dp0
Vd35p19i
p1
I1
sVcykfbz5
p2
I1
s.(dp0
Vd3gv93v
p1
I1
sVcykfbz5
p2
I1
s.(dp0
Vd3uk64z
p1
I1
sVcykfbz5
p2
I1
s.(dp0
Vd413rtx
p1
I1
sVcykfbz5
p2
I1
s.(dp0
Vd4hxbrt
p1
I1
sVcykfbz5
p2
I1
s.(dp0
Vd5uac6d
p1
I1
sVcykfbz5
p2
I1
s.(dp0
Vd7kij2i
p1
I1
sVcykfbz5
p2
I1
s.(dp0
Vd9ay36e
p1
I1
sVcykfbz5
p2
I1
s.(dp0
Vd9ywqwd
p1
I1
sVcykfbz5
p2
I1
s.(dp0
Vdarkqga
p1
I1
sVcykfbz5
p2
I1
s.(dp0
Vdc73isi
p1
I1
sVcykfbz5
p2
I1
s.(dp0
Vde6m1q2
p1
I1
sVcykfbz5
p2
I1
s.(dp0
Vde7g1rv
p1
I1
sVcykfbz5
p2
I1
s.(dp0
Vde7g1rv
p1
I1
sVcykfbz5
p2
I1
s.(dp0
Vdf5o02z
p1
I1
sVcykfbz5
p2
I1
s.(dp0
Vdfxi2ub
p1
I1
sVcykfbz5
p2
I1
s.(dp0
Vdi2ekhi
p1
I1
sVcykfbz5
p2
I1
s.(dp0
Vdi9l83g
p1
I1
sVcykfbz5
p2
I1
s.(dp0
Vdjfhnwu
p1
I1
sVcykfbz5
p2
I1
s.(dp0
Vdjfodff
p1
I1
sVcykfbz5
p2
I1
s.(dp0
Vdjoj455
p1
I1
sVcykfbz5
p2
I1
s.(dp0
Vdjy2l7t
p1
I1
sVcykfbz5
p2
I1
s.(dp0
Vdmnggif
p1
I1
sVcykfbz5
p2
I1
s.(dp0
Vdmvdqca
p1
I1
sVcykfbz5
p2
I1
s.(dp0
Vdnkksgm
p1
I1
sVcykfbz5
p2
I1
s.(dp0
Vdo9ktzd
p1
I1
sVcykfbz5
p2
I1
s.(dp0
Vdq7vw6e
p1
I1
sVcykfbz5
p2
I1
s.(dp0
Vdsdqwvs
p1
I1
sVcykfbz5
p2
I1
s.(dp0
Vdsmfuxb
p1
I1
sVcykfbz5
p2
I1
s.