(dp0
Vdfiht07
p1
I1
sVd01ri4i
p2
I1
sVd3gf04f
p3
I1
sVdruoh8w
p4
I1
sVd4c7qtg
p5
I1
sVczrsmo5
p6
I1
sVczk1dsn
p7
I1
sVdk9ypj0
p8
I1
sVd6opgbc
p9
I1
sVdsuv5ug
p10
I1
sVd68o5ga
p11
I1
sVdcpqin2
p12
I1
sVd885lnr
p13
I1
sVdi5cjpm
p14
I1
sVcznlcm6
p15
I1
sVdiu85yp
p16
I1
sVd9dazhg
p17
I1
sVd1j4tol
p18
I1
sVd7lubzb
p19
I1
sVd99pie7
p20
I1
sVdg9srfc
p21
I2
sVdqulxl7
p22
I1
sVdsd0ecs
p23
I1
sVd0tcdhf
p24
I1
sVd6oxia1
p25
I1
sVd5ec9u1
p26
I1
sVd9fvip1
p27
I1
sVdfrv2ns
p28
I1
sVdnqkyw3
p29
I1
sVdjaet4m
p30
I1
sVdb64k6z
p31
I1
sVd1frs5r
p32
I1
sVd0n3ged
p33
I1
sVcyou61h
p34
I1
sVdip5w8m
p35
I3
sVcz06mty
p36
I1
sVdbcy5hv
p37
I1
sVdhckh0v
p38
I1
sVdfjk3xm
p39
I1
sVdjmb6s8
p40
I1
sVd9yu3m3
p41
I1
sVdcnat05
p42
I1
sVddlptrn
p43
I1
sVd8suw6i
p44
I1
sVdb4uoe6
p45
I1
sVd28xrlt
p46
I2
sVdedojbx
p47
I1
sVds918jl
p48
I1
sVd62pzfk
p49
I1
sVdcpd8d3
p50
I1
sVdfhrazg
p51
I1
sVdgloswt
p52
I1
sVdkoyh3r
p53
I1
sVdaeefsm
p54
I1
sVdivu8d7
p55
I1
sVd0apuq9
p56
I1
sVd2lapld
p57
I1
sVdfkdasv
p58
I1
sVd91ptts
p59
I1
sVdbe0510
p60
I1
sVdd4i2q1
p61
I1
sVd9cw5zr
p62
I1
sVdivzr4b
p63
I1
sVdjle2r9
p64
I2
sVd0am3cf
p65
I1
sVdck22ze
p66
I1
sVd0z5wbt
p67
I1
sVdewfyb3
p68
I1
sVd5mipp5
p69
I1
sVdsusdxf
p70
I1
sVdclzral
p71
I1
sVd4xm31f
p72
I1
sVdikdk0k
p73
I1
sVdsb5i72
p74
I1
sVd0sc47c
p75
I1
sVd9am90w
p76
I1
sVdpcoyni
p77
I1
sVd6oyirs
p78
I1
sVdd6gbh6
p79
I2
sVdq9apbq
p80
I2
sVdes3wof
p81
I1
sVdasq97g
p82
I1
sVd107xfx
p83
I1
sVdkp80vv
p84
I1
sVd8a85jy
p85
I1
sVdsyppiq
p86
I2
sVcyxjmhq
p87
I1
sVczokfxt
p88
I1
sVdbnqvh9
p89
I1
sVd2p8aal
p90
I1
sVcyzrj3j
p91
I1
sVdhe6ugs
p92
I1
sVd868jaw
p93
I1
sVd125l69
p94
I1
sVdstji0p
p95
I1
sVd5jbhv3
p96
I1
sVdb7xpaf
p97
I1
sVd9d5gqb
p98
I1
sVd27b714
p99
I1
sVd1fa3b9
p100
I1
sVd8nhppw
p101
I1
sVd2a7bmk
p102
I1
sVdiml1h5
p103
I1
sVdku7rk3
p104
I2
sVd36nzb0
p105
I1
sVd3hnca7
p106
I1
sVdiuv5ix
p107
I1
sVdfy6sko
p108
I1
sVdhqtsgt
p109
I2
sVd1ftcnj
p110
I1
sVdfkxvdj
p111
I1
sVd617xsh
p112
I1
sVd85q5m1
p113
I3
sVdrmrrow
p114
I1
sVd3hys7n
p115
I1
sVdi52bb0
p116
I3
sVdeoe0an
p117
I1
sVdk3xlkz
p118
I1
sVd7xxs5j
p119
I1
sVdr8lprz
p120
I1
sVd9cv0cd
p121
I1
sVd3qg38n
p122
I1
sVdi3q8nj
p123
I1
sVd04uzp5
p124
I1
sVd5n3g81
p125
I1
sVczbnoeh
p126
I1
sVdfgpex2
p127
I1
sVdbtfisv
p128
I1
sVd025zw7
p129
I1
sVdby6me7
p130
I1
sVdkqa9uj
p131
I1
sVdgc1kms
p132
I2
sVd6ht7s1
p133
I2
sVdasp6z8
p134
I1
sVdfummmt
p135
I1
sVcz4dthr
p136
I1
sVdbmze8n
p137
I1
sVd5ekwdb
p138
I1
sVd2849z3
p139
I1
sVczxqvdy
p140
I3
sVd2o7trs
p141
I1
sVdghwvjz
p142
I1
sVdsjz50e
p143
I1
sVd10wa6u
p144
I1
sVdg6fo58
p145
I1
sVdt4j3x1
p146
I1
sVd4unney
p147
I2
sVd2041lf
p148
I1
sVdhpo053
p149
I2
sVdf054ab
p150
I2
sVd0jltrp
p151
I1
sVd5nbahe
p152
I1
sVdc5rsre
p153
I1
sVd4ivhsk
p154
I1
sVd6dpwry
p155
I1
sVdmpkan4
p156
I1
sVd1iu843
p157
I2
sVdjq5xr3
p158
I1
sVdda6wtc
p159
I1
sVdnr08ql
p160
I1
sVdbqg4yl
p161
I1
sVdaei1dl
p162
I1
sVd8jtd7v
p163
I1
sVcyzr0l6
p164
I1
sVdbgp7fl
p165
I1
sVdfynviq
p166
I1
sVd9fl7tz
p167
I1
sVdn3mewa
p168
I1
sVdjj6wsv
p169
I1
sVdqn21vr
p170
I1
sVdkb9ihh
p171
I1
sVdjpyw4l
p172
I1
sVdghjrb1
p173
I1
sVdc0lmx9
p174
I3
sVcz6f0jr
p175
I1
sVd9mtkat
p176
I1
sVd0fie41
p177
I1
sVdqw5ykz
p178
I2
sVdh5aal5
p179
I1
sVd4982ez
p180
I1
sVd08ntyx
p181
I1
sVd1r1ydl
p182
I1
sVdrt7lol
p183
I1
sVdi5hxr3
p184
I1
sVcypfj14
p185
I1
sVdsjlt95
p186
I5
sVd593k0k
p187
I1
sVd8o25ic
p188
I1
sVd9d64eh
p189
I3
sVd7c4n9z
p190
I1
sVdbcxocu
p191
I1
sVd5j1904
p192
I1
sVcywv2bw
p193
I1
sVd7m0448
p194
I1
sVd53kzmw
p195
I1
sVd0ek8pi
p196
I2
sVcyqek81
p197
I1
sVd0smsux
p198
I1
sVdb1riqa
p199
I2
sVd5zmi9p
p200
I1
sVd7jl1xb
p201
I1
sVdqvkn97
p202
I1
sVdcw5kat
p203
I3
sVdjed045
p204
I1
sVczrhfgw
p205
I1
sVdo7kw1w
p206
I1
sVdnqy5qy
p207
I2
sVd6sg2fl
p208
I1
sVdh2hwks
p209
I1
sVdhozke3
p210
I1
sVd5x1djo
p211
I1
sVdb25y3u
p212
I1
sVcynp81r
p213
I1
sVd2xmpdb
p214
I1
sVdcw5xwb
p215
I2
sVdglpafz
p216
I2
sVdck2as3
p217
I2
sVdeuyu41
p218
I1
sVdeabcg6
p219
I1
sVdck1zfs
p220
I1
sVdn3ql7d
p221
I1
sVd230ffs
p222
I1
sVdcwb01p
p223
I5
sVd27y6r0
p224
I1
sVdcnqjuh
p225
I1
sVd4hswtd
p226
I1
sVdemqrd2
p227
I1
sVd16frn7
p228
I1
sVdbgqhh9
p229
I1
s.