(dp0
Vcyhy29k
p1
I1
s.(dp0
Vcyhy29k
p1
I1
sVcylkuxi
p2
I1
s.(dp0
Vcyhy29k
p1
I1
sVcylkuxi
p2
I1
s.(dp0
Vcyhy29k
p1
I1
sVcyltn6e
p2
I1
s.(dp0
Vcyhy29k
p1
I1
sVcymicdo
p2
I1
s.(dp0
Vcymmsdn
p1
I1
sVcyhy29k
p2
I1
s.(dp0
Vcyhy29k
p1
I1
sVcyn0ta8
p2
I1
s.(dp0
Vcynyxxv
p1
I1
sVcyhy29k
p2
I1
s.(dp0
Vcyhy29k
p1
I1
sVcypduz0
p2
I1
s.(dp0
Vcyhy29k
p1
I1
sVcyr4y87
p2
I1
s.(dp0
Vcyhy29k
p1
I1
sVcyr4y87
p2
I1
s.(dp0
Vcys4vy8
p1
I1
sVcyhy29k
p2
I1
s.(dp0
Vcyhy29k
p1
I1
sVcyss1n9
p2
I1
s.(dp0
Vcyhy29k
p1
I1
sVcytsrz5
p2
I1
s.(dp0
Vcyveyy9
p1
I1
sVcyhy29k
p2
I1
s.(dp0
Vcyhy29k
p1
I1
sVcyvx7jh
p2
I1
s.(dp0
Vcyhy29k
p1
I1
sVcywmv43
p2
I1
s.(dp0
Vcyhy29k
p1
I1
sVcywntfr
p2
I1
s.(dp0
Vcyxcfy2
p1
I1
sVcyhy29k
p2
I1
s.(dp0
Vcyxfj0o
p1
I1
sVcyhy29k
p2
I1
s.(dp0
Vcyhy29k
p1
I1
sVcyxzxzy
p2
I1
s.(dp0
Vcyy3ut7
p1
I1
sVcyhy29k
p2
I1
s.(dp0
Vcyy3ut7
p1
I1
sVcyhy29k
p2
I1
s.(dp0
Vcyy3ut7
p1
I1
sVcyhy29k
p2
I1
s.(dp0
Vcyz1xtn
p1
I1
sVcyhy29k
p2
I1
s.(dp0
Vcyhy29k
p1
I1
sVcyz2ent
p2
I1
s.(dp0
Vcyzda71
p1
I1
sVcyhy29k
p2
I1
s.(dp0
Vcyhy29k
p1
I1
sVcz0yhdx
p2
I1
s.(dp0
Vcz1zt66
p1
I1
sVcyhy29k
p2
I1
s.(dp0
Vcyhy29k
p1
I1
sVcz2n2mj
p2
I1
s.(dp0
Vcyhy29k
p1
I1
sVcz2n2mj
p2
I1
s.(dp0
Vcyhy29k
p1
I1
sVcz2rcrh
p2
I1
s.(dp0
Vcz2ui64
p1
I1
sVcyhy29k
p2
I1
s.(dp0
Vcz3poy4
p1
I1
sVcyhy29k
p2
I1
s.(dp0
Vcyhy29k
p1
I1
sVcz5g9en
p2
I1
s.(dp0
Vcyhy29k
p1
I1
sVcz6ux04
p2
I1
s.(dp0
Vcyhy29k
p1
I1
sVcz7hdee
p2
I1
s.(dp0
Vcyhy29k
p1
I1
sVcz7hdee
p2
I1
s.(dp0
Vcz8cmuq
p1
I1
sVcyhy29k
p2
I1
s.(dp0
Vcz8cmuq
p1
I1
sVcyhy29k
p2
I1
s.(dp0
Vcz8h0g2
p1
I1
sVcyhy29k
p2
I1
s.(dp0
Vcyhy29k
p1
I1
sVcz8ps8k
p2
I1
s.(dp0
Vcyhy29k
p1
I1
sVcz8ps8k
p2
I1
s.(dp0
Vcyhy29k
p1
I1
sVcz8ps8k
p2
I1
s.(dp0
Vcyhy29k
p1
I1
sVcz8ps8k
p2
I1
s.(dp0
Vcz8tum8
p1
I1
sVcyhy29k
p2
I1
s.(dp0
Vcz939yl
p1
I1
sVcyhy29k
p2
I1
s.(dp0
Vcyhy29k
p1
I1
sVcz98na4
p2
I1
s.(dp0
Vcyhy29k
p1
I1
sVcz9bnfi
p2
I1
s.(dp0
Vcyhy29k
p1
I1
sVczdoav4
p2
I1
s.(dp0
Vcyhy29k
p1
I1
sVczdx8l9
p2
I1
s.(dp0
Vczdygm8
p1
I1
sVcyhy29k
p2
I1
s.(dp0
Vcyhy29k
p1
I1
sVcze8kzi
p2
I1
s.(dp0
Vcyhy29k
p1
I1
sVczeyo93
p2
I1
s.(dp0
Vcyhy29k
p1
I1
sVczeyrm2
p2
I1
s.(dp0
Vcyhy29k
p1
I1
sVczh9cj2
p2
I1
s.(dp0
Vcyhy29k
p1
I1
sVczhe8ox
p2
I1
s.(dp0
Vcyhy29k
p1
I1
sVczikd9p
p2
I1
s.(dp0
Vcyhy29k
p1
I1
sVczit9pd
p2
I1
s.(dp0
Vcyhy29k
p1
I1
sVczl0r4z
p2
I1
s.(dp0
Vczmag0v
p1
I1
sVcyhy29k
p2
I1
s.(dp0
Vcyhy29k
p1
I1
sVczni747
p2
I1
s.(dp0
Vcyhy29k
p1
I1
sVczni747
p2
I1
s.(dp0
Vcyhy29k
p1
I1
sVcznxvaj
p2
I1
s.(dp0
Vcyhy29k
p1
I1
sVczoiuqo
p2
I1
s.(dp0
Vczoljp7
p1
I1
sVcyhy29k
p2
I1
s.(dp0
Vcyhy29k
p1
I1
sVczoqopf
p2
I1
s.(dp0
Vcyhy29k
p1
I1
sVczt8346
p2
I1
s.(dp0
Vcyhy29k
p1
I1
sVcztdb0v
p2
I1
s.(dp0
Vcyhy29k
p1
I1
sVcztq528
p2
I1
s.(dp0
Vcyhy29k
p1
I1
sVcztwhsj
p2
I1
s.(dp0
Vcyhy29k
p1
I1
sVczu0wss
p2
I1
s.(dp0
Vcyhy29k
p1
I1
sVczudsfp
p2
I1
s.(dp0
Vcyhy29k
p1
I1
sVczuivep
p2
I1
s.(dp0
Vczumpu3
p1
I1
sVcyhy29k
p2
I1
s.(dp0
Vcyhy29k
p1
I1
sVczwyieg
p2
I1
s.(dp0
Vcyhy29k
p1
I1
sVczxlgcv
p2
I1
s.(dp0
Vczxm286
p1
I1
sVcyhy29k
p2
I1
s.(dp0
Vcyhy29k
p1
I1
sVczz9bxw
p2
I1
s.(dp0
Vczzyfpp
p1
I1
sVcyhy29k
p2
I1
s.(dp0
Vcyhy29k
p1
I1
sVd001bfq
p2
I1
s.(dp0
Vcyhy29k
p1
I1
sVd01jtut
p2
I1
s.(dp0
Vcyhy29k
p1
I1
sVd04066e
p2
I1
s.(dp0
Vcyhy29k
p1
I1
sVd045x7t
p2
I1
s.(dp0
Vcyhy29k
p1
I1
sVd04vjrd
p2
I1
s.(dp0
Vcyhy29k
p1
I1
sVd04vjrd
p2
I1
s.(dp0
Vd050pjl
p1
I1
sVcyhy29k
p2
I1
s.(dp0
Vcyhy29k
p1
I1
sVd05641a
p2
I1
s.(dp0
Vd05cf88
p1
I1
sVcyhy29k
p2
I1
s.(dp0
Vcyhy29k
p1
I1
sVd05mpn1
p2
I1
s.(dp0
Vcyhy29k
p1
I1
sVd060hrw
p2
I1
s.(dp0
Vcyhy29k
p1
I1
sVd06lg2k
p2
I1
s.(dp0
Vcyhy29k
p1
I1
sVd06lg2k
p2
I1
s.(dp0
Vcyhy29k
p1
I1
sVd088kx3
p2
I1
s.(dp0
Vcyhy29k
p1
I1
sVd088kx3
p2
I1
s.(dp0
Vcyhy29k
p1
I1
sVd093dzl
p2
I1
s.(dp0
Vcyhy29k
p1
I1
sVd0ajjc6
p2
I1
s.(dp0
Vcyhy29k
p1
I1
sVd0b263i
p2
I1
s.(dp0
Vd0cxowk
p1
I1
sVcyhy29k
p2
I1
s.(dp0
Vcyhy29k
p1
I1
sVd0do007
p2
I1
s.(dp0
Vd0jo7ux
p1
I1
sVcyhy29k
p2
I1
s.(dp0
Vcyhy29k
p1
I1
sVd0jp46q
p2
I1
s.(dp0
Vcyhy29k
p1
I1
sVd0k6dm2
p2
I1
s.(dp0
Vcyhy29k
p1
I1
sVd0kgdrt
p2
I1
s.(dp0
Vcyhy29k
p1
I1
sVd0kggwf
p2
I1
s.(dp0
Vcyhy29k
p1
I1
sVd0mic1j
p2
I1
s.(dp0
Vcyhy29k
p1
I1
sVd0oejxu
p2
I1
s.(dp0
Vcyhy29k
p1
I1
sVd0oeq1w
p2
I1
s.(dp0
Vd0(dp0
Vcyhy29k
p1
I1
sVdtiolsz
p2
I1
s.