(dp0
Vdg1538b
p1
I1
sVdetak24
p2
I1
sVddfumfv
p3
I1
sVdgum6jl
p4
I1
sVd4wgyjm
p5
I1
sVcyvszvx
p6
I1
sVdsdyt8w
p7
I1
sVdk1yrtu
p8
I1
sVd34561d
p9
I1
sVdrzbths
p10
I1
sVdnnandv
p11
I1
sVdsie87n
p12
I1
sVddlnf8j
p13
I1
sVdrk9mu5
p14
I1
sVddlb2cl
p15
I2
sVd0sht8o
p16
I1
sVd2dfdvi
p17
I1
sVdpjl2mr
p18
I1
sVd3kssgw
p19
I1
sVd3wvnhz
p20
I1
sVcz8fpl0
p21
I1
sVd63pbmy
p22
I1
sVdnpt8oc
p23
I1
sVdejb2ga
p24
I1
sVdbdmeor
p25
I1
sVdn524th
p26
I1
sVda3dcj5
p27
I1
sVdf50s7w
p28
I1
sVd0bl9ny
p29
I1
sVdc9wq32
p30
I1
sVd0bgmnb
p31
I1
sVczefbmj
p32
I1
sVdp6g4nf
p33
I1
sVczyqw8z
p34
I1
sVd68rtj7
p35
I1
sVdcuzaps
p36
I1
sVd38hgnk
p37
I1
sVd68xcdh
p38
I1
sVd592225
p39
I1
sVdbcu8ao
p40
I1
sVd5u7dko
p41
I1
sVdb9p1jt
p42
I1
sVdb22rq8
p43
I1
sVdcjsi1q
p44
I1
sVd7482wh
p45
I1
sVd5ac2cy
p46
I1
sVd54svom
p47
I1
sVd94hgzp
p48
I1
sVd3hoas8
p49
I1
sVdjmai0p
p50
I1
sVdbfdkqq
p51
I1
sVdc7lk8a
p52
I1
sVdcizk5f
p53
I1
sVd197489
p54
I1
sVdkqkipe
p55
I1
sVd9ycvkd
p56
I1
sVdb53g6d
p57
I1
sVddqsuuk
p58
I1
sVd37mk55
p59
I1
sVdaa9cb7
p60
I1
sVdmihrbl
p61
I1
sVd0fljpw
p62
I1
sVd8sy9i3
p63
I1
sVdgvpl0t
p64
I1
sVdicmh4w
p65
I1
sVdig3whu
p66
I1
sVdet20w5
p67
I1
sVdii5u4t
p68
I1
sVcz7hg7k
p69
I1
sVdo491fs
p70
I1
sVdehfxrs
p71
I1
sVddld1v4
p72
I1
sVd0sre41
p73
I1
sVdmv7nii
p74
I1
sVd2r7jtx
p75
I1
sVdcclggr
p76
I1
sVdmvdpjb
p77
I1
sVdh868lf
p78
I1
sVdb17320
p79
I2
sVdcybstl
p80
I1
sVd9vdshf
p81
I2
sVd71qzgt
p82
I1
sVdsq63o6
p83
I1
sVdkleyn2
p84
I1
sVdaqi9sg
p85
I1
sVddn7y5y
p86
I1
sVdqho1xs
p87
I1
sVd1c9m3l
p88
I1
sVd5siep9
p89
I1
sVdpn626s
p90
I1
sVd87t8gl
p91
I1
sVdp1j92w
p92
I1
sVd28h08d
p93
I1
sVd2zdyyp
p94
I3
sVcztd9z0
p95
I1
sVd2yfq29
p96
I1
sVdbyyl3o
p97
I1
sVdjaxay7
p98
I3
sVddof582
p99
I1
sVdjavi00
p100
I2
sVdrgi44i
p101
I1
sVds1l0a9
p102
I1
sVdhgea2n
p103
I1
sVdjg523x
p104
I1
sVd3i14kp
p105
I1
sVd2gkn7o
p106
I1
sVd2508lb
p107
I1
sVdi9mlle
p108
I1
sVd99pie7
p109
I1
sVdjxujex
p110
I1
sVddrygz6
p111
I1
sVdnd0j2o
p112
I1
sVd7d1l8n
p113
I1
sVdc787cj
p114
I1
sVczru1ao
p115
I1
sVd0rnrok
p116
I1
sVdcxzp9w
p117
I1
sVd7r18eg
p118
I2
sVds7wn9u
p119
I1
sVdexqpxw
p120
I1
sVdp1f34a
p121
I2
sVde0n1ld
p122
I1
sVdcmet8y
p123
I2
sVdpoopnv
p124
I1
sVdh7g392
p125
I1
sVdjdqfbw
p126
I1
sVdsa0qd1
p127
I2
sVdj2pk3s
p128
I1
sVd10jl17
p129
I1
sVdmj3059
p130
I1
sVd447xze
p131
I2
sVd5bl0e2
p132
I1
sVd5e9ug2
p133
I1
sVd2x6rb4
p134
I3
sVd012vcf
p135
I1
sVd4sv852
p136
I2
sVd003q96
p137
I1
sVd10nqh8
p138
I1
sVd6h0m5r
p139
I1
sVd3ki2g7
p140
I1
sVcyssflv
p141
I2
sVd0y5t9u
p142
I1
sVd4tq1ms
p143
I1
sVd2qylyk
p144
I1
sVddmk8ri
p145
I1
sVdb0v8qr
p146
I9
sVdny3soi
p147
I1
sVda7r20y
p148
I1
sVd4kwf0w
p149
I1
sVdqu9ldh
p150
I1
sVde35921
p151
I1
sVd3sn2u5
p152
I1
sVdbjd6kh
p153
I1
sVd2ds9ja
p154
I1
sVd014x7g
p155
I1
sVd320k9v
p156
I1
sVd3qmqx3
p157
I1
sVdegulom
p158
I1
sVd0cio22
p159
I1
sVd079gzt
p160
I2
sVdnbdhnr
p161
I1
sVczsx7fm
p162
I1
sVddp4c3g
p163
I1
sVdee4isz
p164
I1
sVd32hffd
p165
I1
sVdj9g5u1
p166
I2
sVdsnf1ke
p167
I1
sVdrhle3l
p168
I1
sVdeje4hg
p169
I1
sVd4l2xgd
p170
I1
sVdgv3klr
p171
I1
sVdmt1l7p
p172
I1
sVd9ggkos
p173
I1
sVdjfy02n
p174
I2
sVda1rcrc
p175
I1
sVd97gklk
p176
I2
sVdbegcqz
p177
I1
sVdijsh7s
p178
I1
sVd256ek3
p179
I1
sVcyrod2x
p180
I1
sVdjtiw32
p181
I1
sVdixlnlp
p182
I1
sVdgly72b
p183
I1
sVdn170ab
p184
I2
sVdidtjrj
p185
I1
sVd94hjxx
p186
I2
sVde4dvim
p187
I2
sVdcppby2
p188
I1
sVdgpel2l
p189
I3
sVdcmvwsg
p190
I3
sVdhxi4f7
p191
I2
sVd9p2w0e
p192
I1
sVdpv2ysz
p193
I2
sVd7z9hjs
p194
I2
sVd936wge
p195
I1
sVd08fecv
p196
I1
sVdcoasd5
p197
I1
sVdcfg5y1
p198
I1
sVd94gy61
p199
I1
sVdivl3x1
p200
I1
sVdd6nrrg
p201
I2
sVdst4y2i
p202
I1
sVd80nzj6
p203
I1
sVdmyjh72
p204
I1
sVd7gnhu2
p205
I1
sVdev2p8i
p206
I4
sVdfzo3mf
p207
I1
sVdsofz3g
p208
I1
sVdmoss6w
p209
I1
sVd61k7tk
p210
I1
sVdevtz6j
p211
I1
sVdr2vpa3
p212
I1
sVd2jztp9
p213
I1
sVdpcgcw8
p214
I1
sVd8js63k
p215
I1
sVdh4ydum
p216
I1
sVd6lpa5o
p217
I1
sVd0a9fx5
p218
I1
sVdf5sgcb
p219
I1
sVdhghdtb
p220
I1
sVd96xqaw
p221
I1
sVd7h3qyw
p222
I1
sVdqe0mjo
p223
I3
sVddp92y7
p224
I1
sVdbb98ud
p225
I1
sVd8vj7bz
p226
I1
sVdgvca2s
p227
I2
sVd9k2mc3
p228
I1
sVd1pd0mq
p229
I1
sVd2xx0qq
p230
I1
sVdd4vugp
p231
I1
sVdfk5bax
p232
I1
sVdi8w62t
p233
I1
sVcz72cnl
p234
I1
sVdj2ixml
p235
I2
sVd9ybtdv
p236
I1
sVczhybj3
p237
I2
sVdekcew4
p238
I1
sVd91ce0j
p239
I3
sVdhua2di
p240
I2
sVd7z62wd
p241
I2
sVd0cc6sl
p242
I1
sVdpoux18
p243
I1
sVdk09q9w
p244
I1
sVd19gr1w
p245
I1
sVdfmqe9r
p246
I1
sVds59i8g
p247
I1
sVdjpxhsh
p248
I1
sVd0p8xol
p249
I1
sVd9bsre9
p250
I1
sVd6xgmtu
p251
I1
sVdb2ek95
p252
I1
sVdggl0v7
p253
I1
sVd923g2e
p254
I2
sVdfnh3nj
p255
I1
sVd71jwu9
p256
I2
sVdmwt2yk
p257
I1
sVdb7eod2
p258
I1
sVdqbs4x9
p259
I1
sVd1p17va
p260
I1
sVdc8pw70
p261
I1
sVd8w6wvx
p262
I1
sVcz8zekd
p263
I1
sVd9pat6w
p264
I1
sVdsra620
p265
I1
sVd3nyggu
p266
I1
sVdmmv140
p267
I1
sVdhrbwc5
p268
I1
sVdruwzaz
p269
I1
sVdecpkpg
p270
I1
sVd0fanis
p271
I1
sVddxum3e
p272
I1
sVd0zwxtb
p273
I1
sVd1t5rmu
p274
I1
sVd2o76uj
p275
I1
sVde8iltf
p276
I1
sVdpdidux
p277
I2
sVdgnujbs
p278
I1
sVd30somd
p279
I1
sVd1ohrlk
p280
I1
sVdc4w69s
p281
I1
sVdo2tn7w
p282
I5
sVdk25c8y
p283
I1
sVdhr37xb
p284
I1
sVdeo4cpd
p285
I1
sVdecenll
p286
I1
sVdihs1dz
p287
I1
sVcztkntv
p288
I1
sVd6jq90u
p289
I1
sVczmc7yq
p290
I1
sVdf7vvwm
p291
I1
sVdf427u1
p292
I1
sVdgcvhhh
p293
I1
sVd1mr47q
p294
I1
sVdn18059
p295
I2
sVddtabf3
p296
I2
sVdeieoat
p297
I1
sVdaztgo4
p298
I1
sVd5zadwe
p299
I1
sVdgoy4kk
p300
I3
sVdb0zey9
p301
I1
sVdr0t3sl
p302
I1
sVczwa6lv
p303
I4
sVd2d7ljj
p304
I2
sVd2ml6m4
p305
I1
sVd30nmgf
p306
I1
sVdhrbzpd
p307
I1
sVdfn40h0
p308
I1
sVdoyhcwk
p309
I1
sVdk5ap4p
p310
I1
sVdbnph29
p311
I1
sVd8ke4r3
p312
I1
sVddhcau1
p313
I1
sVdrz5keh
p314
I2
sVd9vl9e1
p315
I1
sVd6r0vvh
p316
I1
sVdqky25p
p317
I1
sVd10n0yc
p318
I1
sVdnu78ct
p319
I1
sVd3pzs8v
p320
I1
sVczeyyet
p321
I2
sVda14tez
p322
I1
sVdp1qoko
p323
I1
sVdhl2qxv
p324
I1
sVdk9z6f6
p325
I1
sVdgj3ng0
p326
I1
sVdsjwxmi
p327
I1
sVd5v3hn4
p328
I1
sVd55b3av
p329
I1
sVdb0w48c
p330
I1
sVdoazntf
p331
I1
sVczqydh6
p332
I1
sVd8j7sx4
p333
I1
sVdepktda
p334
I2
sVdh18fr0
p335
I3
sVd9dlc7v
p336
I1
sVd7h1lri
p337
I1
sVdc20mjh
p338
I1
sVdf7xh26
p339
I1
sVdmz3z8v
p340
I1
sVdgxax1w
p341
I1
sVdab6bxa
p342
I1
sVdbswm7n
p343
I1
sVdt971e1
p344
I1
sVdo1mvsn
p345
I1
sVdt5char
p346
I1
sVdhlgl7w
p347
I1
sVd0tc4l1
p348
I1
sVdb8ntle
p349
I2
sVda2jl0q
p350
I1
sVdqgrvf8
p351
I1
sVd7kv461
p352
I1
sVde8h9ic
p353
I1
sVd3hiq0k
p354
I1
sVd7yudzd
p355
I1
sVdd7ds6v
p356
I1
sVczglr1z
p357
I2
sVd88bi2i
p358
I1
sVd6gpjsq
p359
I1
sVdbxlig5
p360
I1
sVd8bami7
p361
I1
sVdprmqrm
p362
I2
sVdpdvj6t
p363
I1
sVdptppzb
p364
I1
sVdjinksk
p365
I1
sVd222jcw
p366
I2
sVd0zq2cw
p367
I1
sVdb5kokq
p368
I2
sVdfckb1m
p369
I3
sVdcvp9fk
p370
I2
sVdprhb70
p371
I1
sVd25uu48
p372
I1
sVdcyusil
p373
I1
sVdav7s4f
p374
I1
sVdhvy6eo
p375
I1
sVdssm1hn
p376
I1
sVd2kgcfu
p377
I1
sVdi446hk
p378
I1
sVd77k5xf
p379
I1
sVd4vkyun
p380
I1
sVd27acm6
p381
I1
sVd5juoru
p382
I1
sVddxnd3b
p383
I1
sVd96a8i6
p384
I1
sVdgcodlg
p385
I3
sVdahpjkg
p386
I2
sVdjtauft
p387
I1
sVd559sdo
p388
I1
sVdefuwff
p389
I1
sVdi0exw2
p390
I1
sVdgrjl8f
p391
I1
sVd96zsml
p392
I1
sVdd5i736
p393
I1
sVdblghof
p394
I1
sVdgs27fm
p395
I1
sVcyp2ynl
p396
I1
sVds4lg2x
p397
I1
sVdaf4oy4
p398
I1
sVdnak477
p399
I1
sVd5jv080
p400
I1
sVdaug9jy
p401
I1
sVd3avqnp
p402
I1
sVdaeuhvq
p403
I1
sVdedq2ym
p404
I1
sVd9i3jq3
p405
I1
sVd3zyzuj
p406
I1
sVd5ykoy5
p407
I1
sVczxzzhr
p408
I1
sVdic07nl
p409
I1
sVdnrp80w
p410
I1
sVd9n3ziz
p411
I1
sVdirzfvq
p412
I1
sVdgyak79
p413
I1
sVda0d2zn
p414
I1
sVd6nupix
p415
I1
sVdd7e8um
p416
I1
sVd6m82vn
p417
I1
sVd9wh9dm
p418
I1
sVd08bssn
p419
I2
sVcz2blrj
p420
I1
sVdinsgv4
p421
I1
sVdk1qm9a
p422
I1
sVd9y7w41
p423
I2
sVd5u2wih
p424
I1
sVdp4whlj
p425
I3
sVczvzssx
p426
I2
sVd313qrb
p427
I1
sVczi620c
p428
I1
sVd7rdfxc
p429
I1
sVdkpgies
p430
I1
sVdrpz4yl
p431
I1
sVczgv23m
p432
I2
sVd61ume3
p433
I1
sVdaqbgot
p434
I1
sVdpn95mo
p435
I1
sVdi1rx9l
p436
I1
sVd2dwcx8
p437
I1
sVd6fbu5m
p438
I1
sVderckn5
p439
I1
sVdr9pfzl
p440
I1
sVd05e71v
p441
I1
sVdr1ez7j
p442
I1
sVdfj2uww
p443
I1
sVd7hfsbr
p444
I1
sVde6ukld
p445
I1
sVdh3d25k
p446
I1
sVdfyhsrd
p447
I2
sVd2emgxo
p448
I1
sVczb74ge
p449
I2
sVdeijfhb
p450
I1
sVdbqnq5t
p451
I1
sVdt9vihb
p452
I1
sVddwkzgg
p453
I1
sVdbe8ihp
p454
I1
sVdf5gw1w
p455
I1
sVdg6ijqz
p456
I1
sVdkevhma
p457
I1
sVdqhjgod
p458
I2
sVde76ipy
p459
I1
sVd5qcaze
p460
I1
sVdcrue6k
p461
I1
sVdcqih5b
p462
I1
sVd7d5qrz
p463
I1
sVdhce35k
p464
I1
sVd2z3v6t
p465
I1
sVdpdgg4j
p466
I1
sVddyn776
p467
I1
sVdchwxv2
p468
I1
sVdcsb2et
p469
I1
sVcyr53vl
p470
I1
sVdhv8y13
p471
I1
sVdicdsqa
p472
I1
sVd1dvui3
p473
I1
sVd7otmff
p474
I1
sVczu5nzy
p475
I1
sVdau5ibj
p476
I1
sVd7rmabm
p477
I1
sVdrzzhqr
p478
I1
sVd3jbcws
p479
I1
sVdn5yfen
p480
I2
sVd0g4d89
p481
I1
sVd1721pf
p482
I1
sVdpv453x
p483
I1
sVdcizx7z
p484
I1
sVd70ypii
p485
I1
sVd1al4n4
p486
I2
sVdn7thtp
p487
I2
sVcz6adcq
p488
I1
sVd9531g8
p489
I1
sVdrzzh47
p490
I1
sVdjpwlsn
p491
I2
sVddbgvkg
p492
I1
sVd34d5zi
p493
I1
sVd2bfwb2
p494
I1
sVd99psin
p495
I1
sVd9p6mgc
p496
I1
sVcyoa7zm
p497
I1
sVdsn9an4
p498
I1
sVd7bxdxv
p499
I1
sVdjp811m
p500
I1
sVd05b06t
p501
I1
sVdjxdv13
p502
I1
sVdh1wart
p503
I1
sVd91lpwq
p504
I1
sVd53u861
p505
I1
sVd28egpb
p506
I1
sVd0uj8zr
p507
I2
sVd37mlj5
p508
I1
sVde5p21f
p509
I1
sVd4oh8rk
p510
I1
sVddzrjhk
p511
I1
sVd8d3k7y
p512
I3
sVdnbm0dz
p513
I1
sVd3462le
p514
I1
sVdjy8kgn
p515
I1
sVdjkm8ad
p516
I2
sVdc66zum
p517
I1
sVddhztrk
p518
I1
sVd9aes5s
p519
I1
sVdcsjp8e
p520
I2
sVd6a1vmj
p521
I1
sVd0v5tw0
p522
I1
sVdhboa31
p523
I1
sVd889r4n
p524
I2
sVcywseiv
p525
I1
sVdrliyhf
p526
I1
sVddb2wnk
p527
I1
sVd6uz0zg
p528
I1
sVdjisr21
p529
I1
sVd3ue2j5
p530
I1
sVd0vvodl
p531
I3
sVdmwohhw
p532
I1
sVd2hbs63
p533
I1
sVde96521
p534
I2
sVdfkoxlr
p535
I1
sVdstps8c
p536
I2
sVcyogi3z
p537
I1
sVd94yx1v
p538
I2
sVdmicvh0
p539
I1
sVdg8owhu
p540
I1
sVd8l5nnx
p541
I1
sVdqjy14l
p542
I1
sVdjkm6s4
p543
I1
sVd8u6tqa
p544
I1
sVd0d89j9
p545
I1
sVdrpyxvj
p546
I1
sVd6e0osv
p547
I1
sVd7mnv55
p548
I1
sVdpeorsx
p549
I1
sVdhh3e0c
p550
I2
sVd1fwz1q
p551
I2
sVd27c8kr
p552
I1
sVd3jqnvt
p553
I1
sVdo6xrve
p554
I2
sVdithooy
p555
I2
sVd5xbly5
p556
I1
sVdk4ws2c
p557
I1
sVd8l4j73
p558
I1
sVd5avemu
p559
I1
sVdjus1qr
p560
I1
sVd58sgd4
p561
I1
sVd20brj0
p562
I1
sVd2uumh2
p563
I1
sVde26bqv
p564
I1
sVdj0pr76
p565
I1
sVcz18ltr
p566
I1
sVd9m9dzn
p567
I1
sVd7ifk5n
p568
I1
sVdf1v3qn
p569
I1
sVd97ajfz
p570
I1
sVdrkcq7o
p571
I2
sVd2dtohd
p572
I1
sVdrz7j3g
p573
I1
sVdb12pta
p574
I1
sVdnepagv
p575
I1
sVd5m5lu8
p576
I2
sVd54gu6u
p577
I1
sVdnck9k7
p578
I1
sVdav0vye
p579
I1
sVdo70pa8
p580
I1
sVczyvqbi
p581
I2
sVd6rtfgx
p582
I1
sVdj2utal
p583
I1
sVdjbecyh
p584
I2
sVd1p93jf
p585
I1
sVdcgv8bc
p586
I1
sVdfkaosp
p587
I1
sVdi1ozx6
p588
I2
sVddakhzo
p589
I2
sVd6xh2bb
p590
I1
sVd8otx8p
p591
I1
sVd7d23f3
p592
I2
sVd40pjuc
p593
I1
sVdk91nus
p594
I1
sVdk957hm
p595
I1
sVddphea4
p596
I1
sVd9730xk
p597
I1
sVda90rn7
p598
I1
sVdp1r44a
p599
I1
sVd1pckqm
p600
I1
sVd2jzqtz
p601
I1
sVdeuffym
p602
I1
sVddaslme
p603
I1
sVdfcpnmi
p604
I1
sVcyk1s8x
p605
I1
sVdj6fysh
p606
I1
sVdb89ivi
p607
I1
sVczhf4lc
p608
I1
sVdp5mleg
p609
I1
sVdk8a17u
p610
I1
sVdg6kaqc
p611
I1
sVdjwrzn1
p612
I1
sVdoahz7l
p613
I2
sVczb9ya5
p614
I1
sVd3u7b8m
p615
I1
sVdd62sye
p616
I1
sVczjyp3a
p617
I1
sVdelb9vu
p618
I1
sVdcrn6kp
p619
I1
sVd2pieh9
p620
I1
sVdhho4am
p621
I1
sVdqwi9bd
p622
I1
sVdpvh0el
p623
I1
sVcyykjgr
p624
I1
sVd0g5ync
p625
I1
sVd29xt8q
p626
I1
sVd26dtjw
p627
I1
sVd5sfhm3
p628
I1
sVdcqdki4
p629
I1
sVd6ksx7d
p630
I1
sVdbzqfw4
p631
I1
sVdqp399j
p632
I1
sVdc6baeu
p633
I1
sVde4ta4x
p634
I1
sVdgkw6dj
p635
I1
sVd2nim1t
p636
I1
sVdcxmjpc
p637
I1
sVd2o2utk
p638
I1
sVdc2gs3g
p639
I1
sVdalu5xc
p640
I1
sVd3tp2mu
p641
I1
sVd58hzub
p642
I1
sVd70mmt4
p643
I1
sVdpz97va
p644
I1
sVd6wjegk
p645
I1
sVdf3eomq
p646
I1
sVdhajt03
p647
I1
sVd9vqbw6
p648
I2
sVdbc31c4
p649
I1
sVdnau4cg
p650
I1
sVdjz9ugi
p651
I2
sVdmuzg4b
p652
I1
sVdssmnx1
p653
I1
sVdhciafn
p654
I1
sVdkkoogl
p655
I1
sVdnzrv5c
p656
I1
sVded5kkd
p657
I1
sVdi9io7f
p658
I1
sVdgfl4wp
p659
I1
sVd7xpp9a
p660
I1
sVd6e7aft
p661
I1
sVdcz8bg0
p662
I1
sVczspu0c
p663
I1
sVd8seipk
p664
I1
sVd8cjbtl
p665
I1
sVd52trs6
p666
I1
sVd84ff4j
p667
I1
sVd24ftx0
p668
I1
sVdgn0tb7
p669
I1
sVd942h8t
p670
I1
sVdp730he
p671
I1
sVd74mmk7
p672
I1
sVdp3nf0w
p673
I1
sVdei02yu
p674
I1
sVdom7wad
p675
I1
sVd1c4cpy
p676
I1
sVd5sp79i
p677
I1
sVd458lst
p678
I1
sVdr0tcxo
p679
I1
sVdau6t0k
p680
I1
sVdaelgqy
p681
I1
sVdg90fmy
p682
I1
sVddqnqly
p683
I1
sVdhr5pjb
p684
I1
sVd6pevuu
p685
I1
sVd2diudv
p686
I1
sVdc9sp7q
p687
I2
sVd0fxmtq
p688
I1
sVdqcgu9o
p689
I1
sVd836o97
p690
I1
sVdg0w51r
p691
I1
sVcz2bqm5
p692
I1
sVd68xvl5
p693
I1
sVdhzodr6
p694
I1
sVd8aghgk
p695
I1
sVd2cdvox
p696
I1
sVczfm13q
p697
I1
sVdqmu2ij
p698
I1
sVddn0hyg
p699
I1
sVdqvx6ga
p700
I1
sVdea8r05
p701
I1
sVd2w8qou
p702
I1
sVd5meoob
p703
I1
sVdd47ez4
p704
I1
sVdbmejok
p705
I1
sVditzn8d
p706
I2
sVdr7x85r
p707
I2
sVcyx18ee
p708
I1
sVczs7td7
p709
I1
sVdmrareq
p710
I1
sVd9hgays
p711
I1
sVdqb3dr9
p712
I1
sVdiythhv
p713
I1
sVczbduvj
p714
I1
sVcz3gfp4
p715
I1
sVd37dqj9
p716
I1
sVd796834
p717
I5
sVdau7jgn
p718
I1
sVd2vgsu6
p719
I1
sVdsnw6ez
p720
I1
sVcylm739
p721
I1
sVd4ppboz
p722
I1
sVds6pbi8
p723
I1
sVddlzlrm
p724
I1
sVczno24c
p725
I1
sVdten7tb
p726
I1
sVdnctas8
p727
I1
sVcymeuuj
p728
I1
sVd3lcaw2
p729
I1
sVdgiu7yf
p730
I1
sVdms9bd0
p731
I1
sVddjt494
p732
I2
sVdp1gr5y
p733
I1
sVdr9s8cd
p734
I1
sVd7298l9
p735
I1
sVd2r89hm
p736
I1
sVdfxsuls
p737
I1
sVd0v1k8v
p738
I1
sVdchu0wi
p739
I1
sVdcja52p
p740
I4
sVdb9ov3z
p741
I2
sVdcsggq7
p742
I1
sVdi9kqup
p743
I1
sVcywpdaq
p744
I3
sVd6nv6rz
p745
I1
sVdhdvzmh
p746
I1
sVdayfa5f
p747
I1
sVdp6rxix
p748
I1
sVd629jds
p749
I1
sVdja557c
p750
I1
sVdt6zr19
p751
I1
sVd6biaa1
p752
I1
sVdeoewb5
p753
I1
sVdrpyzse
p754
I2
sVd392hts
p755
I1
sVdfxgs1k
p756
I1
sVdp1gglm
p757
I1
sVcyjuzn2
p758
I1
sVd2gzss3
p759
I1
sVd68v2xk
p760
I1
sVd8ptrqy
p761
I1
sVdb11usy
p762
I1
sVd63onoq
p763
I1
sVdha1kti
p764
I1
sVdizu537
p765
I1
sVdcy650r
p766
I1
sVdrd5w1f
p767
I1
sVdo96tw1
p768
I1
sVd2p2j1e
p769
I2
sVdcnglk8
p770
I2
sVdiv392m
p771
I2
sVds4iavf
p772
I1
sVd9v1pcg
p773
I1
sVde9rinu
p774
I2
sVcz1k3kz
p775
I2
sVd8qn0dk
p776
I1
sVd92rvft
p777
I1
sVdguh2x4
p778
I1
sVdncbjvr
p779
I1
sVdbsm8ar
p780
I1
sVde481t2
p781
I1
sVdf8zkpp
p782
I1
sVd2zp8q1
p783
I3
sVd0i6h7t
p784
I1
sVd7cw9mz
p785
I3
sVda98ty6
p786
I1
sVddr01q9
p787
I1
sVdjh5q8j
p788
I1
sVdc6x2k7
p789
I1
sVd0s2y0y
p790
I1
sVd8k9xeb
p791
I1
sVczgllhh
p792
I1
sVdolzyce
p793
I1
sVdizj8b1
p794
I1
sVdcm1mge
p795
I1
sVdh33z4b
p796
I1
sVczch81r
p797
I1
sVd5vydvj
p798
I1
sVdcc1dqv
p799
I1
sVdcu40wp
p800
I1
sVd0xxbqt
p801
I1
sVdjuy7jk
p802
I1
sVd8nchys
p803
I1
sVdbwpr6m
p804
I1
sVdjgkh66
p805
I1
sVdkpwkee
p806
I1
sVdi6k67y
p807
I1
sVd6kcarx
p808
I2
sVdsnoiax
p809
I1
sVdj38i8y
p810
I1
sVd18rvq8
p811
I1
sVdqw2u7l
p812
I1
sVdrymgv6
p813
I1
sVdcvt9br
p814
I1
sVcysdvtd
p815
I2
sVd7bm8a8
p816
I1
sVd50zm5i
p817
I1
sVdbqrjri
p818
I1
sVd8vh25i
p819
I3
sVddman8n
p820
I1
sVd0brgaw
p821
I2
sVdotwyjn
p822
I1
sVd10i03q
p823
I1
sVdssmkn5
p824
I2
sVd40djq9
p825
I1
sVdjciojt
p826
I1
sVdhxdhti
p827
I1
sVd1tiycl
p828
I1
sVdncskuk
p829
I3
sVd6watch
p830
I1
sVczv3yqv
p831
I1
sVd797tzn
p832
I1
sVcynkj1t
p833
I1
sVddm6n8r
p834
I1
sVd6lq5rh
p835
I1
sVdixlojj
p836
I1
sVdcnaaly
p837
I1
sVd5osnp1
p838
I1
sVd9svnob
p839
I3
sVdhd3dkx
p840
I1
sVd0129ci
p841
I1
sVdbynixe
p842
I1
sVdickjm6
p843
I1
sVdbs23m0
p844
I1
sVdh2uyod
p845
I1
sVd56eojy
p846
I1
sVczlm78h
p847
I2
sVd72cqsb
p848
I1
sVdad1gjv
p849
I1
sVdqz1e97
p850
I1
sVd0oy3od
p851
I1
sVd583ak7
p852
I1
sVdjbcnbb
p853
I1
sVdmxgg5x
p854
I1
sVd254j0k
p855
I1
sVd727zv3
p856
I1
sVddd6oqc
p857
I1
sVd6aod6l
p858
I1
sVd1ob8on
p859
I1
sVdg10559
p860
I1
sVde9oz68
p861
I1
sVd3u7lgn
p862
I1
sVd4x5dok
p863
I1
sVdbzatj3
p864
I1
sVdak3hxp
p865
I1
sVdgvt3p5
p866
I1
sVde4uoks
p867
I2
sVd9asg2z
p868
I1
sVddjmvw9
p869
I2
sVdkobpfc
p870
I1
sVdk7vxgi
p871
I1
sVdcxygoy
p872
I1
sVda854um
p873
I1
sVdk4mmqr
p874
I2
sVdfi7tb7
p875
I1
sVdmekfmc
p876
I1
sVd5rbd6x
p877
I1
sVdkaw982
p878
I1
sVdc5gczv
p879
I1
sVdb10731
p880
I8
sVd4mg5ws
p881
I1
sVdd2xylf
p882
I1
sVd1chxlo
p883
I1
sVdsq4unm
p884
I1
sVd9iwi8b
p885
I1
sVd00rflb
p886
I1
sVdd6iunt
p887
I1
sVd1zovmb
p888
I1
sVd8b874c
p889
I2
sVd2y72n6
p890
I1
sVdgl5vor
p891
I1
sVd68h4yk
p892
I1
sVdmjsdsh
p893
I1
sVd0ygs9z
p894
I1
sVczrxvih
p895
I1
sVd2hf1v8
p896
I1
sVdj1bjuz
p897
I1
sVdjtnyz4
p898
I1
sVd4j6vzy
p899
I1
sVdex6we7
p900
I1
sVd076lmt
p901
I1
sVd62xvzo
p902
I1
sVdkoy3mg
p903
I1
sVdgjftsf
p904
I1
sVdk8ebm7
p905
I1
sVdejomve
p906
I1
sVde9i4bk
p907
I1
sVd8d7y54
p908
I1
sVdt0g0vy
p909
I1
sVd1y3vs7
p910
I1
sVdg9vfq5
p911
I1
sVdq9apbq
p912
I1
sVdr4b2kx
p913
I1
sVd1a2nvb
p914
I1
sVd13721l
p915
I5
sVde50dsf
p916
I1
sVd09ozom
p917
I7
sVdor8vsg
p918
I1
sVd3q06wp
p919
I1
sVd1oim90
p920
I1
sVdja8k4r
p921
I1
sVcyy2m6n
p922
I1
sVdicrhno
p923
I1
sVd39u52e
p924
I1
sVdbckwsi
p925
I2
sVdi0yvfa
p926
I1
s.