(dp0
Vcyqhwb7
p1
I1
s.(dp0
Vcyqhwb7
p1
I1
sVcz0mibt
p2
I1
s.(dp0
Vcyqhwb7
p1
I1
sVczfczpl
p2
I1
s.(dp0
Vcyqhwb7
p1
I1
sVczjttso
p2
I1
s.(dp0
Vcyqhwb7
p1
I1
sVczl3jyn
p2
I1
s.(dp0
Vcyqhwb7
p1
I1
sVczw8nnk
p2
I1
s.(dp0
Vcyqhwb7
p1
I1
sVczxnwan
p2
I1
s.(dp0
Vcyqhwb7
p1
I1
sVd0g66mn
p2
I1
s.(dp0
Vcyqhwb7
p1
I1
sVd0ntja2
p2
I1
s.(dp0
Vcyqhwb7
p1
I1
sVd0nxv4e
p2
I1
s.(dp0
Vcyqhwb7
p1
I1
sVd0uqyht
p2
I1
s.(dp0
Vcyqhwb7
p1
I1
sVd0uqyht
p2
I1
s.(dp0
Vcyqhwb7
p1
I1
sVd0yaae0
p2
I1
s.(dp0
Vcyqhwb7
p1
I1
sVd16hyts
p2
I1
s.(dp0
Vcyqhwb7
p1
I1
sVd19hg9u
p2
I1
s.(dp0
Vcyqhwb7
p1
I1
sVd19lajq
p2
I1
s.(dp0
Vcyqhwb7
p1
I1
sVd19lajq
p2
I1
s.(dp0
Vcyqhwb7
p1
I1
sVd19lajq
p2
I1
s.(dp0
Vcyqhwb7
p1
I1
sVd1g9uuo
p2
I1
s.(dp0
Vcyqhwb7
p1
I1
sVd1lzxxx
p2
I1
s.(dp0
Vcyqhwb7
p1
I1
sVd1lzxxx
p2
I1
s.(dp0
Vcyqhwb7
p1
I1
sVd1lzxxx
p2
I1
s.(dp0
Vcyqhwb7
p1
I1
sVd1m4yhr
p2
I1
s.(dp0
Vcyqhwb7
p1
I1
sVd1m50oa
p2
I1
s.(dp0
Vcyqhwb7
p1
I1
sVd1mam76
p2
I1
s.(dp0
Vcyqhwb7
p1
I1
sVd1mdlhq
p2
I1
s.(dp0
Vcyqhwb7
p1
I1
sVd1povhi
p2
I1
s.(dp0
Vcyqhwb7
p1
I1
sVd1pr70r
p2
I1
s.(dp0
Vcyqhwb7
p1
I1
sVd1vgwlp
p2
I1
s.(dp0
Vcyqhwb7
p1
I1
sVd26f98w
p2
I1
s.(dp0
Vcyqhwb7
p1
I1
sVd2gkn7o
p2
I1
s.(dp0
Vcyqhwb7
p1
I1
sVd2gkn7o
p2
I1
s.(dp0
Vcyqhwb7
p1
I1
sVd2hb784
p2
I1
s.(dp0
Vcyqhwb7
p1
I1
sVd2ps8cj
p2
I1
s.(dp0
Vcyqhwb7
p1
I1
sVd2ps8cj
p2
I1
s.(dp0
Vcyqhwb7
p1
I1
sVd2qpvhi
p2
I1
s.(dp0
Vcyqhwb7
p1
I1
sVd2qr9br
p2
I1
s.(dp0
Vcyqhwb7
p1
I1
sVd2qr9br
p2
I1
s.(dp0
Vcyqhwb7
p1
I1
sVd2qr9br
p2
I1
s.(dp0
Vcyqhwb7
p1
I1
sVd2qr9br
p2
I1
s.(dp0
Vcyqhwb7
p1
I1
sVd2qr9br
p2
I1
s.(dp0
Vcyqhwb7
p1
I1
sVd2qr9br
p2
I1
s.(dp0
Vcyqhwb7
p1
I1
sVd2qr9br
p2
I1
s.(dp0
Vcyqhwb7
p1
I1
sVd2qvvzs
p2
I1
s.(dp0
Vcyqhwb7
p1
I1
sVd316rqy
p2
I1
s.(dp0
Vcyqhwb7
p1
I1
sVd316rqy
p2
I1
s.(dp0
Vcyqhwb7
p1
I1
sVd45rc43
p2
I1
s.(dp0
Vcyqhwb7
p1
I1
sVd46msmf
p2
I1
s.(dp0
Vcyqhwb7
p1
I1
sVd46p47h
p2
I1
s.(dp0
Vcyqhwb7
p1
I1
sVd46p47h
p2
I1
s.(dp0
Vcyqhwb7
p1
I1
sVd46p47h
p2
I1
s.(dp0
Vcyqhwb7
p1
I1
sVd46p47h
p2
I1
s.(dp0
Vcyqhwb7
p1
I1
sVd46p47h
p2
I1
s.(dp0
Vcyqhwb7
p1
I1
sVd46p47h
p2
I1
s.(dp0
Vcyqhwb7
p1
I1
sVd484f8a
p2
I1
s.(dp0
Vcyqhwb7
p1
I1
sVd4e2j3f
p2
I1
s.(dp0
Vcyqhwb7
p1
I1
sVd4i06uz
p2
I1
s.(dp0
Vcyqhwb7
p1
I1
sVd4wpqvm
p2
I1
s.(dp0
Vcyqhwb7
p1
I1
sVd5kgaz0
p2
I1
s.(dp0
Vcyqhwb7
p1
I1
sVd5kgaz0
p2
I1
s.(dp0
Vcyqhwb7
p1
I1
sVd5poxxb
p2
I1
s.(dp0
Vcyqhwb7
p1
I1
sVd682v7r
p2
I1
s.(dp0
Vcyqhwb7
p1
I1
sVd682v7r
p2
I1
s.(dp0
Vcyqhwb7
p1
I1
sVd6b4mka
p2
I1
s.(dp0
Vcyqhwb7
p1
I1
sVd6ktiws
p2
I1
s.(dp0
Vcyqhwb7
p1
I1
sVd6rvwxc
p2
I1
s.(dp0
Vcyqhwb7
p1
I1
sVd6zv2se
p2
I1
s.(dp0
Vcyqhwb7
p1
I1
sVd70q6my
p2
I1
s.(dp0
Vcyqhwb7
p1
I1
sVd7le4f7
p2
I1
s.(dp0
Vcyqhwb7
p1
I1
sVd7le4f7
p2
I1
s.(dp0
Vcyqhwb7
p1
I1
sVd7rtmoq
p2
I1
s.(dp0
Vcyqhwb7
p1
I1
sVd7rtmoq
p2
I1
s.(dp0
Vcyqhwb7
p1
I1
sVd7rtmoq
p2
I1
s.(dp0
Vcyqhwb7
p1
I1
sVd8926z1
p2
I1
s.(dp0
Vcyqhwb7
p1
I1
sVd89lg4j
p2
I1
s.(dp0
Vcyqhwb7
p1
I1
sVd8odoe7
p2
I1
s.(dp0
Vcyqhwb7
p1
I1
sVd90i99v
p2
I1
s.(dp0
Vcyqhwb7
p1
I1
sVd93g7tc
p2
I1
s.(dp0
Vcyqhwb7
p1
I1
sVd93g7tc
p2
I1
s.(dp0
Vcyqhwb7
p1
I1
sVd93hcg0
p2
I1
s.(dp0
Vcyqhwb7
p1
I1
sVd93hcg0
p2
I1
s.(dp0
Vcyqhwb7
p1
I1
sVd93ksv9
p2
I1
s.(dp0
Vcyqhwb7
p1
I1
sVd93ksv9
p2
I1
s.(dp0
Vcyqhwb7
p1
I1
sVd93qgmr
p2
I1
s.(dp0
Vcyqhwb7
p1
I1
sVd9c4ki9
p2
I1
s.(dp0
Vcyqhwb7
p1
I1
sVd9c9krp
p2
I1
s.(dp0
Vcyqhwb7
p1
I1
sVd9dk1t6
p2
I1
s.(dp0
Vcyqhwb7
p1
I1
sVd9jg3q1
p2
I1
s.(dp0
Vcyqhwb7
p1
I1
sVd9otvqy
p2
I1
s.(dp0
Vcyqhwb7
p1
I1
sVd9otvqy
p2
I1
s.(dp0
Vcyqhwb7
p1
I1
sVd9s3kbx
p2
I1
s.(dp0
Vcyqhwb7
p1
I1
sVd9xccen
p2
I1
s.(dp0
Vcyqhwb7
p1
I1
sVdaeumvp
p2
I1
s.(dp0
Vcyqhwb7
p1
I1
sVdaeumvp
p2
I1
s.(dp0
Vcyqhwb7
p1
I1
sVdaeumvp
p2
I1
s.(dp0
Vcyqhwb7
p1
I1
sVdagvd8q
p2
I1
s.(dp0
Vcyqhwb7
p1
I1
sVdaidftn
p2
I1
s.(dp0
Vcyqhwb7
p1
I1
sVdajp9rs
p2
I1
s.(dp0
Vcyqhwb7
p1
I1
sVdaym8zr
p2
I1
s.(dp0
Vcyqhwb7
p1
I1
sVdb9yj6f
p2
I1
s.(dp0
Vcyqhwb7
p1
I1
sVdbjc1bg
p2
I1
s.(dp0
Vcyqhwb7
p1
I1
sVdbm4uhi
p2
I1
s.(dp0
Vcyqhwb7
p1
I1
sVdbtod4l
p2
I1
s.(dp0
Vcyqhwb7
p1
I1
sVdbwr9j0
p2
I1
s.(dp0
Vcyqhwb7
p1
I1
sVdbwr9j0
p2
I1
s.(dp0
Vcyqhwb7
p1
I1
sVdbxrdbw
p2
I1
s.(dp0
Vcyqhwb7
p1
I1
sVdc1klx5
p2
I1
s.(dp0
Vcyqhwb7
p1
I1
sVdc3m4i1
p2
I1
s.(dp0
Vcy(dp0
Vcyqhwb7
p1
I1
sVdt2vxiy
p2
I1
s.