(dp0
Vdnek41v
p1
I1
sVd06vbz5
p2
I1
sVd1vsthm
p3
I1
sVcytvuuc
p4
I1
sVd87hhp5
p5
I1
sVdcxrtkz
p6
I1
sVd88a9nv
p7
I1
sVd5ea09v
p8
I1
sVdjod0gb
p9
I1
sVda43tjd
p10
I1
sVdeipxg9
p11
I1
sVczkcb6r
p12
I2
sVdiplrbs
p13
I1
sVd0wwicp
p14
I1
sVds3p5wr
p15
I1
sVd7lnvfk
p16
I2
sVddf130u
p17
I1
sVd22gwi2
p18
I1
sVd5vt5rw
p19
I1
sVdcqjqfq
p20
I1
sVd75tfsl
p21
I1
sVdbmxauw
p22
I1
sVddghqwy
p23
I1
sVdkq22zk
p24
I1
sVdquev3j
p25
I1
sVdo7v734
p26
I3
sVdcyusil
p27
I1
sVd8gpjkx
p28
I1
sVdh3im4b
p29
I1
sVdh1tm6w
p30
I1
sVdhkdpmu
p31
I1
sVdaqlipt
p32
I1
sVda3nxi7
p33
I1
sVd37hftt
p34
I1
sVdrx62tl
p35
I1
sVcyi96du
p36
I1
sVdgy49bw
p37
I1
sVczyqw8z
p38
I1
sVdjzu68s
p39
I1
sVdbaszmy
p40
I1
sVd5d129p
p41
I1
sVd7z71wj
p42
I1
sVdjrmgjt
p43
I2
sVdicrmbc
p44
I1
sVd4vpip2
p45
I2
sVdkwzw18
p46
I1
sVd86ez5v
p47
I1
sVd0hf3mn
p48
I1
sVda2lxa3
p49
I1
sVdegc0kx
p50
I1
sVd7gr20q
p51
I1
sVdoeheqz
p52
I1
sVd1iq9k7
p53
I1
sVd8hwxb5
p54
I2
sVczh0cqq
p55
I1
sVdtj4fgw
p56
I1
sVdkdhiz9
p57
I1
sVd81aefo
p58
I1
sVda06c1y
p59
I1
sVd3ksnry
p60
I1
sVd76ymtv
p61
I1
sVdbyboeq
p62
I1
sVd022boq
p63
I1
sVdhtjl61
p64
I1
sVdpdd8pn
p65
I1
sVdb8hak9
p66
I1
sVd367m1b
p67
I1
sVdfmike0
p68
I1
sVdtdicve
p69
I1
sVdsyl9ll
p70
I1
sVdc0zfeb
p71
I1
sVdpcodgd
p72
I3
sVdf3knac
p73
I1
sVdgy4gdo
p74
I1
sVcyr5sdu
p75
I1
sVdbhjnih
p76
I1
sVd0i7yag
p77
I1
sVd7k8lnj
p78
I1
sVdkavsu3
p79
I1
sVdhwobzr
p80
I1
sVd8c1liq
p81
I1
sVdam6a1o
p82
I1
sVd95f4wo
p83
I1
sVdj46hy1
p84
I1
sVd3zwmwo
p85
I2
sVcza5qpj
p86
I1
sVdpypywc
p87
I1
sVd24ex71
p88
I1
sVd6oibfa
p89
I1
sVdibjv3u
p90
I1
sVd7q1f45
p91
I2
sVdg8pnjv
p92
I1
sVd68u0hz
p93
I1
sVdeymvsa
p94
I1
sVdhla5mq
p95
I1
sVdq4poxe
p96
I1
sVdhf1jov
p97
I1
sVdn649b0
p98
I1
sVdnxv3tu
p99
I1
sVddjhd6g
p100
I1
sVdafkxr4
p101
I1
sVdhc5jhk
p102
I1
sVd6psrs6
p103
I1
sVd9xkyga
p104
I1
sVcyv66ag
p105
I1
sVds7x43j
p106
I1
sVd0193fw
p107
I1
sVddb3kjm
p108
I1
sVdegxzzo
p109
I1
sVcyu146a
p110
I1
sVd8xqcj1
p111
I1
sVd6jiydc
p112
I1
sVdbtlsyn
p113
I1
sVdmm6axm
p114
I1
sVcys64b3
p115
I1
sVdcku3k3
p116
I1
sVd1wgm7g
p117
I1
sVdt6chs7
p118
I1
sVdfghul0
p119
I1
sVd3j99pc
p120
I1
sVdazlndo
p121
I1
sVdf1u00d
p122
I1
sVddecic2
p123
I1
sVd68esa6
p124
I1
sVd5zxego
p125
I1
sVda63dqg
p126
I1
sVd4z6enh
p127
I1
sVdfctlzu
p128
I1
sVdcfbdwa
p129
I1
sVd2qtjar
p130
I1
sVcyik9wc
p131
I1
sVczm5vby
p132
I1
sVdhp7sai
p133
I1
sVd6km3hq
p134
I1
sVd7hy174
p135
I1
sVdi1g9xz
p136
I1
sVdaeekcg
p137
I1
sVddndox6
p138
I1
sVdjg523x
p139
I1
sVdh7yju0
p140
I1
sVdspbpep
p141
I1
sVdkr23op
p142
I1
sVdheqywz
p143
I1
sVd7qvg25
p144
I1
sVd7z59t0
p145
I1
sVdmrlkdd
p146
I1
sVdnkkt2w
p147
I1
sVd7n2cix
p148
I1
sVd00ud8r
p149
I2
sVdb5qvdz
p150
I1
sVd5enbqo
p151
I1
sVd5ak8f0
p152
I1
sVdsqqb7z
p153
I1
sVdnuwpyr
p154
I1
sVdegans2
p155
I1
sVdkhxlto
p156
I1
sVd00guj0
p157
I1
sVd97iyiz
p158
I1
sVdsx3z67
p159
I1
sVdqnfwa9
p160
I1
sVd9wynah
p161
I1
sVd7n6x3z
p162
I1
sVdcghrau
p163
I1
sVdctia2p
p164
I1
sVcyixtjp
p165
I1
sVd5mpg15
p166
I1
sVdhj0v2g
p167
I1
sVdmfqk2l
p168
I1
sVd5w777j
p169
I1
sVdk0tjg2
p170
I1
sVdedt7xq
p171
I1
sVdggvy3l
p172
I1
sVd0zwd4p
p173
I2
sVdk2ykb9
p174
I1
sVd1j9091
p175
I1
sVd3buebl
p176
I2
sVddk6rv3
p177
I2
sVd8ugqop
p178
I1
sVdi2kc1b
p179
I1
sVdr00pmo
p180
I1
sVdi6f2rq
p181
I1
sVd7bo9jh
p182
I1
sVdpimgmw
p183
I1
sVdjny1o5
p184
I1
sVdg4w8mf
p185
I1
sVd8d0rzs
p186
I1
sVdqqmc9s
p187
I1
sVd8h4mem
p188
I1
sVd0c290f
p189
I1
sVd69bj50
p190
I1
sVdbw64sm
p191
I1
sVdiz5t3s
p192
I2
sVdkvjrh6
p193
I1
sVdml64vs
p194
I1
sVd1wobeb
p195
I1
sVdiedhuz
p196
I1
sVd3bkg90
p197
I1
sVd69fxjl
p198
I1
sVdbkxofq
p199
I1
sVdaaxgkd
p200
I1
sVd6ok71w
p201
I1
sVd37rrk9
p202
I2
sVd0ory3i
p203
I1
sVczejan2
p204
I1
sVd832ln9
p205
I1
sVd3eiau4
p206
I1
sVd2mvd6h
p207
I1
sVdbki19t
p208
I1
sVd1z0lem
p209
I1
sVdkx8m24
p210
I1
sVdhu89fg
p211
I1
sVd7xx4fg
p212
I1
sVdow8l52
p213
I1
sVdfh49r7
p214
I1
sVddj8e5u
p215
I1
sVd9fs1st
p216
I1
sVd0huq34
p217
I1
sVdinqr3g
p218
I1
sVd01b6os
p219
I1
sVdbfwa9o
p220
I1
sVdobbtfp
p221
I1
sVdth0756
p222
I1
sVd1hfi5z
p223
I2
sVd2or0z1
p224
I2
sVd0plakr
p225
I1
sVdgy40c7
p226
I1
sVdgj9349
p227
I1
sVdb5x3fe
p228
I1
sVdiesht9
p229
I1
sVdgpmpzm
p230
I1
sVdeg1oh6
p231
I1
sVdqyxmr6
p232
I1
sVdfvt5kp
p233
I1
sVdesglal
p234
I1
sVd17sofk
p235
I1
sVdmk39tq
p236
I1
sVdcenl51
p237
I1
sVdrokw7a
p238
I1
sVdml67xo
p239
I1
sVd9awkan
p240
I1
sVd1h01bf
p241
I1
sVd046q0t
p242
I1
sVd5w90do
p243
I1
sVdg6eh24
p244
I1
sVdjj20j8
p245
I1
sVd0f0mak
p246
I1
sVd5zpcdz
p247
I1
sVd08gb4l
p248
I1
sVdct7y5f
p249
I1
sVd4bis2o
p250
I1
sVd17sam1
p251
I1
sVdgliw1o
p252
I2
sVdemtdgd
p253
I1
sVdk1iq69
p254
I1
sVddolbai
p255
I1
sVd16soix
p256
I1
sVcyoz4hb
p257
I1
sVdh4ltcr
p258
I1
sVd9wh1ya
p259
I1
sVd23t0bq
p260
I1
sVdojf7uq
p261
I1
sVd8qdrha
p262
I1
sVdo2dcgp
p263
I1
sVdnz2nv1
p264
I2
sVd17aad3
p265
I1
sVdfikzfq
p266
I1
sVdjdrtr4
p267
I1
sVdt10uz1
p268
I1
sVdglhsna
p269
I1
sVdgd3brj
p270
I1
sVd40ix5u
p271
I1
sVdeldenf
p272
I1
sVczh2hvb
p273
I1
sVddn7y5y
p274
I1
sVdszk7gx
p275
I1
sVd0tbu19
p276
I1
sVdjrnjk7
p277
I1
sVd4qhog0
p278
I1
sVdr133ib
p279
I1
sVdson6pt
p280
I1
sVdqx83bz
p281
I1
sVdkneg9p
p282
I1
sVd0r59e5
p283
I1
sVd86gydb
p284
I1
sVdd0hw41
p285
I1
sVd8lxa9g
p286
I1
sVd4ww99t
p287
I1
sVd36mj02
p288
I1
sVd35l5b0
p289
I1
sVd354vqr
p290
I1
sVdaainpa
p291
I1
sVdhv5oco
p292
I1
sVd9dw6gb
p293
I1
sVdb5ewsh
p294
I1
sVddu3dau
p295
I2
sVdteldka
p296
I1
sVd4dz9bm
p297
I1
sVdbksx34
p298
I1
sVczks34i
p299
I1
sVdqe3hdd
p300
I1
sVd8s1n5g
p301
I2
sVdnkygqk
p302
I1
sVd7hxzbu
p303
I1
sVd0h00jh
p304
I1
sVd3i3mcx
p305
I2
sVd2s0uuk
p306
I1
sVdhs4pcu
p307
I1
sVd0ec5jr
p308
I2
sVd9pezf8
p309
I1
sVd3bih4b
p310
I1
sVd3cakdg
p311
I1
sVd504g7h
p312
I1
sVdndo4p5
p313
I1
sVd9koy8i
p314
I1
sVdrxib8p
p315
I1
sVdtgkav1
p316
I2
sVdd7hyjr
p317
I1
sVdatn4ek
p318
I1
sVdrhqkri
p319
I1
sVdi7mcil
p320
I1
sVdnh5c9c
p321
I1
sVdo5du9s
p322
I1
sVdk82ase
p323
I1
sVd737uxa
p324
I1
sVdcx5se8
p325
I2
sVdd0uq8s
p326
I1
sVd1dx88b
p327
I1
sVdn6ug50
p328
I1
sVdil7osw
p329
I1
sVdaqo2fj
p330
I1
sVd98fiar
p331
I1
sVdt2c55e
p332
I1
sVd0ymjea
p333
I1
sVde8iltf
p334
I1
sVd4588uk
p335
I1
sVd2af908
p336
I1
sVd7hmen8
p337
I1
sVd9lapuf
p338
I1
sVd62jqjq
p339
I1
sVd0s0ntz
p340
I1
sVd3lnfni
p341
I1
sVda1pvz2
p342
I3
sVcz1mk7z
p343
I1
sVddh7xs2
p344
I1
sVd4ns961
p345
I2
sVdb6leg8
p346
I1
sVdn8cjad
p347
I1
sVddkfhqo
p348
I1
sVd6t8prh
p349
I1
sVczd7m54
p350
I1
sVdcz98je
p351
I1
sVddeghpc
p352
I5
sVdpntrrb
p353
I1
sVd2hk336
p354
I1
sVd2g5ugp
p355
I1
sVd8v0zd2
p356
I1
sVdqncp6n
p357
I1
sVddd8i7d
p358
I1
sVd0vvpgf
p359
I1
sVds1ofym
p360
I1
sVd31n969
p361
I1
sVdcu5o7c
p362
I1
sVdtcoyc5
p363
I1
sVdauy5uk
p364
I1
sVdimk2ls
p365
I1
sVdezbds5
p366
I2
sVdhyrc77
p367
I1
sVdgnxb8h
p368
I1
sVdkvqei6
p369
I1
sVda9q51e
p370
I2
sVd9e0z38
p371
I1
sVdjnta0o
p372
I1
sVds0d7jh
p373
I1
sVcz5olms
p374
I1
sVde3356r
p375
I1
sVdeu14rb
p376
I1
sVdi9t09w
p377
I1
sVdhrhfjy
p378
I1
sVdtasyxd
p379
I1
sVdgto69r
p380
I1
sVd4oojzs
p381
I1
sVd84mguh
p382
I1
sVd3i65er
p383
I1
sVd3n5wlb
p384
I1
sVdi0snbr
p385
I1
sVdd3bcfl
p386
I1
sVd7trgtl
p387
I1
sVdaodnq2
p388
I1
sVdftia6n
p389
I1
sVd7rufbq
p390
I1
sVdjcz6u7
p391
I1
sVdg1dzjc
p392
I1
sVdiikgn4
p393
I2
sVdklvhrd
p394
I1
sVdteli5o
p395
I1
sVd3ecf2b
p396
I1
sVdazu8uj
p397
I1
sVdboyuzh
p398
I1
sVcztuckh
p399
I1
sVdjs04wb
p400
I1
sVdd90u6g
p401
I1
sVde0cndd
p402
I2
sVdiqozks
p403
I1
sVczztp78
p404
I1
sVdfb52mg
p405
I1
sVdr38yze
p406
I1
sVdg8y5ep
p407
I1
sVdacx0aw
p408
I1
sVdhr9l95
p409
I1
sVdbjo0kq
p410
I3
sVdt0vmyi
p411
I1
sVde2qtx2
p412
I1
sVd9otuwb
p413
I1
sVdort07w
p414
I2
sVdse6w4x
p415
I1
sVczc9ti9
p416
I1
sVd7hpwnb
p417
I1
sVdfl1yev
p418
I2
sVde2ifq1
p419
I1
sVd22ntu4
p420
I1
sVczt3iaj
p421
I1
sVdhumi8d
p422
I1
sVdhn7j9h
p423
I1
sVdbqfa8g
p424
I1
sVdqb5jdr
p425
I1
sVd421zv0
p426
I1
sVd3jebam
p427
I1
sVczudrq2
p428
I1
sVd6bpy20
p429
I1
sVd333q09
p430
I1
sVczqezhm
p431
I1
sVdbmg0a6
p432
I1
sVdg0xjur
p433
I1
sVddj7f7e
p434
I1
sVcyylplu
p435
I1
sVd1q8jh9
p436
I1
sVd5xb77g
p437
I1
sVdjqaq4f
p438
I1
sVdi2slms
p439
I1
sVd6ugyz3
p440
I1
sVdro9349
p441
I1
sVdh5r9uy
p442
I1
sVdgf4hce
p443
I2
sVdd9a3af
p444
I1
sVcyovss4
p445
I1
sVdkmbl2v
p446
I1
sVd65vlb4
p447
I1
sVdqwn1zf
p448
I1
sVdkr0ksw
p449
I1
sVd8ywv1c
p450
I1
sVdejq689
p451
I1
sVdepksa2
p452
I1
sVdg34dy2
p453
I1
sVd571g06
p454
I1
sVd7nx6w8
p455
I1
sVde15mls
p456
I1
sVd5j8hcr
p457
I3
sVdhkj83n
p458
I2
sVcztdt6t
p459
I1
sVdeigjv8
p460
I1
sVd18dn5k
p461
I1
sVdddihv5
p462
I1
sVdglhixe
p463
I1
sVd1m7avi
p464
I1
sVddcrs13
p465
I1
sVczanucq
p466
I1
sVd5xjalw
p467
I1
sVddcf3cz
p468
I2
sVddc8qz4
p469
I2
sVdshhsdu
p470
I1
sVd7zbcx5
p471
I1
sVczz6qod
p472
I1
sVd7rxq1a
p473
I1
sVd2ernpi
p474
I1
sVdmhm5in
p475
I1
sVdf6f3iy
p476
I1
sVd9xck9m
p477
I1
sVd6o020y
p478
I1
sVdgwimsl
p479
I1
sVdjgia6u
p480
I1
sVdrxgsgr
p481
I1
sVdii5wuo
p482
I1
sVd8ec6gt
p483
I1
sVdcnsmzp
p484
I1
sVd1mao1t
p485
I1
sVd2nawc9
p486
I1
sVd15w0jv
p487
I1
sVd4mrbwf
p488
I1
sVd8z5lo1
p489
I1
sVdjk359v
p490
I1
sVd6i703k
p491
I1
sVdi89g6t
p492
I1
sVd1ynvb3
p493
I1
sVdd4yh6b
p494
I1
sVd8jafnk
p495
I1
sVdahva2u
p496
I1
sVdn6wex1
p497
I1
sVd3wzlnq
p498
I1
sVdatq3uq
p499
I2
sVdgs3dof
p500
I1
sVddxnd3b
p501
I1
sVd4su7pu
p502
I1
sVdjtauft
p503
I1
sVdb268af
p504
I1
sVdbet003
p505
I1
sVdkvzsae
p506
I1
sVd5fuya9
p507
I1
sVd4th5ib
p508
I1
sVdrwcr1q
p509
I1
sVdcnaywe
p510
I1
sVd7kq0kc
p511
I2
sVd8ynfs8
p512
I1
sVd3a76zd
p513
I1
sVdb7ok59
p514
I1
sVd7w5cp6
p515
I1
sVdftj076
p516
I1
sVd1axifw
p517
I1
sVdouxqhu
p518
I2
sVdj7ilk9
p519
I1
sVd0usbyd
p520
I1
sVdipd6c4
p521
I1
sVdhdfkq0
p522
I1
sVd9x456x
p523
I1
sVdhgjfbc
p524
I1
sVcyjrfco
p525
I1
sVdsy0ww4
p526
I2
sVdnixbla
p527
I1
sVd8b3q6c
p528
I1
sVdn0ago5
p529
I2
sVddyeaoz
p530
I1
sVdoxj3c4
p531
I2
sVd9jyw44
p532
I1
sVd2el0y4
p533
I1
sVdbw6mjc
p534
I1
sVd9wy2n7
p535
I1
sVd73r1ei
p536
I1
sVd74o1fq
p537
I1
sVda5uolw
p538
I1
sVdcphm2m
p539
I1
sVd07on1g
p540
I2
sVdedsngv
p541
I1
sVd3sn1gf
p542
I1
sVdj3lgzx
p543
I1
sVdadppg6
p544
I1
sVd6sxbek
p545
I3
sVdh407zl
p546
I1
sVd3ced0o
p547
I1
sVd2t7fdx
p548
I2
sVczx4ac1
p549
I1
sVcypnol2
p550
I1
sVd60wra7
p551
I1
sVd1342xz
p552
I2
sVdoiq6tr
p553
I1
sVdf5o6eq
p554
I1
sVdcuw81r
p555
I1
sVd0yzpun
p556
I1
sVdfx2673
p557
I1
sVdeo2kvz
p558
I1
sVdsree5o
p559
I1
sVdhc3n7i
p560
I1
sVcyk7wm1
p561
I1
sVdfvu9fb
p562
I1
sVd468hkv
p563
I1
sVdir7mjp
p564
I1
sVd5oih9u
p565
I1
sVd7bga29
p566
I1
sVddcf0z2
p567
I1
sVcz24vc4
p568
I1
sVddsi7qq
p569
I1
sVdrkv622
p570
I1
sVdh395z1
p571
I1
sVczmkrfo
p572
I1
sVdituf91
p573
I1
sVd4sq43n
p574
I1
sVd0wvgr6
p575
I1
sVdh4fhvf
p576
I1
sVdd54dog
p577
I1
sVdcxectq
p578
I1
sVd4u6ypw
p579
I1
sVd79tzvh
p580
I1
sVd1fl3ly
p581
I1
sVdaqnbdh
p582
I1
sVdbmq0g0
p583
I1
sVdeush9x
p584
I1
sVdmfmfbp
p585
I1
sVd3bxecc
p586
I1
sVdj773zx
p587
I1
sVd9ib08h
p588
I1
sVdkbf3t1
p589
I1
sVdep203f
p590
I1
sVdqajygq
p591
I1
sVd5gupyh
p592
I1
sVd6tmm6u
p593
I1
sVcyp5odn
p594
I1
sVcyx30os
p595
I1
sVdhrd8vv
p596
I1
sVde0icww
p597
I1
sVdnxwnr7
p598
I1
sVdf46w7m
p599
I1
sVd086bzp
p600
I1
sVd1d3ncx
p601
I1
sVdd3vypl
p602
I1
sVd4z7tdl
p603
I1
sVd53m06o
p604
I2
sVczea281
p605
I1
sVdfv6yi5
p606
I1
sVdrc3w7j
p607
I1
sVdhobe3j
p608
I2
sVdmn7g21
p609
I1
sVd4ewxt1
p610
I1
sVdsdahm9
p611
I1
sVdamnei1
p612
I1
sVd706v1w
p613
I1
sVczce00y
p614
I1
sVdki92oo
p615
I1
sVd3nmgl4
p616
I1
sVdjbvfhn
p617
I1
sVd7x9lwt
p618
I1
sVdaxme8n
p619
I2
sVdt0msq2
p620
I1
sVd9lyquj
p621
I1
sVdqjv57y
p622
I1
sVd7ifctk
p623
I1
sVdi9xq59
p624
I1
sVd6jjmgo
p625
I1
sVd7zx380
p626
I1
sVddh4e6h
p627
I1
sVd68maen
p628
I3
sVdjmxfcb
p629
I1
sVdjfdqmf
p630
I1
sVddc7t80
p631
I1
sVcyklet1
p632
I1
sVd338s1l
p633
I1
sVczgxryz
p634
I1
sVd2rdf94
p635
I1
sVd8b24rl
p636
I1
sVdhaxf6f
p637
I1
sVd1gizjv
p638
I1
sVdmvfjm6
p639
I1
sVd09inql
p640
I1
sVdgt198y
p641
I1
sVdjjpgfx
p642
I1
sVdpqplpn
p643
I1
sVdib8fcz
p644
I1
sVdgf4rgy
p645
I1
sVdfwmrxz
p646
I1
sVda50c1g
p647
I1
sVd0hk6z1
p648
I1
sVdh3hy1f
p649
I1
sVd63hpqr
p650
I1
sVdkx8fy1
p651
I1
sVdmpu1ef
p652
I1
sVd1hit0n
p653
I5
sVdns7lay
p654
I1
sVd522jh5
p655
I1
sVdqwc0c6
p656
I1
sVdk0miro
p657
I1
sVdccwtv3
p658
I1
sVd013zo3
p659
I1
sVczuzk28
p660
I1
sVdci5mth
p661
I1
sVdnccdib
p662
I1
sVd48k2jq
p663
I1
sVd8q5o9p
p664
I1
sVd48htzo
p665
I1
sVdmxv3jg
p666
I1
sVdc7hgat
p667
I1
sVdd2o4a1
p668
I1
sVd4pubpa
p669
I2
sVdhc9uys
p670
I1
sVdh4fz0t
p671
I1
sVdp1woaq
p672
I1
sVd0htna3
p673
I1
sVdoaq0v9
p674
I1
sVczj2suv
p675
I1
sVdewy6sc
p676
I1
sVd1tnpin
p677
I1
sVdhdsp7e
p678
I1
sVd6n8llz
p679
I1
sVcyymm51
p680
I1
sVd4e1chy
p681
I1
sVdjwux27
p682
I2
sVd39fa3l
p683
I1
sVd208nfs
p684
I2
sVdow4215
p685
I1
sVd9msgy2
p686
I1
sVd97cy9c
p687
I1
sVd97paoc
p688
I1
sVd86bv90
p689
I1
sVd726evj
p690
I2
sVd13d3yc
p691
I1
sVd9l86ap
p692
I1
sVd4hnnd1
p693
I1
sVd0vd5f5
p694
I1
sVdqvszxe
p695
I1
sVdats3gv
p696
I1
sVczgmpsq
p697
I1
sVd03rqxh
p698
I1
sVd94d8n2
p699
I2
sVd070f0w
p700
I1
sVds4nd37
p701
I1
sVdji98kq
p702
I1
sVdeqmimf
p703
I1
sVdqtnrfz
p704
I1
sVds5b4ik
p705
I1
sVdqng2lo
p706
I1
sVd1rbrt8
p707
I1
sVdfrnaqb
p708
I2
sVdaz61ix
p709
I1
sVczgvqpi
p710
I1
sVdo8mz0q
p711
I1
sVd060zrc
p712
I2
sVdbocitr
p713
I1
sVd7pp16p
p714
I1
sVdpffwpx
p715
I1
sVd6alyct
p716
I1
sVd37dvog
p717
I1
sVdax5owx
p718
I1
sVdec7dcg
p719
I1
sVd721lwo
p720
I1
sVdki8km8
p721
I2
sVd18mqp3
p722
I2
sVde2q9y6
p723
I1
sVd7qmdlh
p724
I1
sVd9ytni1
p725
I1
sVd6p7og8
p726
I1
sVdmur17d
p727
I1
sVdd21mut
p728
I1
sVdq5jaj0
p729
I1
sVdpm4izb
p730
I1
sVdb5g4fr
p731
I1
sVdgdmue0
p732
I1
sVdkenauh
p733
I1
sVdggkcnj
p734
I1
sVdd7drlr
p735
I1
sVd8gcj91
p736
I1
sVd366pp9
p737
I1
sVd5dov81
p738
I1
sVdpqa9kt
p739
I1
sVdc7tkfe
p740
I1
sVd43z8xq
p741
I1
sVd30zw9r
p742
I1
sVczz69u3
p743
I1
sVd306f4g
p744
I1
sVczrirw8
p745
I1
sVd4nhxfn
p746
I1
sVd12f767
p747
I1
sVd571lrq
p748
I1
sVd7rre52
p749
I1
sVd0pwkrz
p750
I1
sVds0ue5i
p751
I3
sVd3xztyd
p752
I1
sVdqotn9l
p753
I1
sVdg2ywrp
p754
I1
sVdfwq24d
p755
I1
sVd8nguy3
p756
I1
sVcyml17k
p757
I1
sVdb1xl1c
p758
I1
sVd9e1pex
p759
I1
sVd3bvaqo
p760
I1
sVddspim2
p761
I1
sVd95tj9u
p762
I1
sVddx9fu9
p763
I1
sVdpcf4al
p764
I1
sVdcxhyeu
p765
I2
sVdalgr5s
p766
I1
sVd695hss
p767
I1
sVdek3qkh
p768
I1
sVd5zi7qn
p769
I1
sVd3kr63m
p770
I1
sVds34d97
p771
I1
sVdjnw0gh
p772
I1
sVdfsutur
p773
I1
sVd05fqqk
p774
I1
sVd6mnxgj
p775
I1
sVdje3zdq
p776
I1
sVd5v9nn2
p777
I1
sVdojylyi
p778
I1
sVd6t0xe7
p779
I1
sVd25ltaw
p780
I1
sVdaenclj
p781
I1
sVdadym8e
p782
I1
sVd0havvz
p783
I1
sVdimfeu0
p784
I1
sVdi4gyui
p785
I1
sVdpxo1af
p786
I1
sVd1wn3yt
p787
I1
sVd1r86tg
p788
I1
sVd9cwsab
p789
I1
sVd4hfscl
p790
I1
sVd5xrdpt
p791
I1
sVdf1w4cp
p792
I1
sVd29sckr
p793
I1
sVdrnx0cn
p794
I1
sVdanu4ge
p795
I1
sVd7lz5qd
p796
I1
sVcyqnqha
p797
I1
sVd7zuy4o
p798
I2
sVdkne36l
p799
I1
sVd7ecvid
p800
I1
sVdnxal37
p801
I1
sVdrfx9fp
p802
I1
sVds4pkqt
p803
I1
sVdiv324v
p804
I1
sVdow3373
p805
I1
sVd9dxs8f
p806
I1
sVd84j0lx
p807
I1
sVdairht3
p808
I1
sVd9tkze0
p809
I2
sVdhja9y5
p810
I1
sVdcs7j12
p811
I1
sVda9flmd
p812
I1
sVd9p9cf8
p813
I1
sVdc7o0xi
p814
I1
sVdddjc3t
p815
I1
sVdel4e4v
p816
I1
sVdmy7p1i
p817
I1
sVdphhtrf
p818
I1
sVdgw1frn
p819
I1
sVd9171bl
p820
I1
sVdfnjow8
p821
I3
sVd7u0ev6
p822
I1
sVd5bpapv
p823
I2
sVd693e4g
p824
I1
sVd61upc2
p825
I1
sVdef2o64
p826
I1
sVd7h7jzk
p827
I1
sVcyv2kw4
p828
I1
sVdqk2yqe
p829
I1
sVd59fuif
p830
I1
sVdpvvwxt
p831
I2
sVd5t8bi8
p832
I1
sVdt1pcky
p833
I1
sVdbz8ll2
p834
I1
sVdc2p6bm
p835
I1
sVdb2vipb
p836
I1
sVdc5h4do
p837
I1
sVd89hppz
p838
I1
sVdc9pwkp
p839
I1
sVd5gtldu
p840
I1
sVd40r5e8
p841
I2
sVddlxxri
p842
I1
sVdsoz9rg
p843
I2
sVdemajx8
p844
I1
sVdcf0k3q
p845
I1
sVdj1rd71
p846
I1
sVd28xr6b
p847
I1
sVd6bg41g
p848
I2
sVdn72ove
p849
I1
sVd2c9ka3
p850
I1
sVd84mx7x
p851
I1
sVd18hxlg
p852
I2
sVd2463sk
p853
I1
sVd1amxp5
p854
I1
sVdn10tca
p855
I2
sVdibuhcw
p856
I1
sVd50pjf4
p857
I1
sVdehcad9
p858
I1
sVd2wovmt
p859
I1
sVdko12dm
p860
I1
sVdbqce8u
p861
I1
sVd9swxvq
p862
I1
sVdpk7a3r
p863
I1
sVdt2zqof
p864
I1
sVdjv37ji
p865
I1
sVdnkjoxh
p866
I1
sVd2781bf
p867
I1
sVd0h30or
p868
I1
sVdrx7ly3
p869
I1
sVd14rmbr
p870
I1
sVd25l0aw
p871
I1
sVddi0c5g
p872
I1
sVddv469j
p873
I1
sVday0sy7
p874
I1
sVdb7rdyq
p875
I1
sVdi7byd5
p876
I1
sVczvp8me
p877
I1
sVdc3rkqt
p878
I1
sVdg68imf
p879
I1
sVdavaonm
p880
I1
sVdk3zp7l
p881
I1
sVde8mwu0
p882
I1
sVd67b8yy
p883
I1
sVdimquqk
p884
I1
sVdrg4ezm
p885
I1
sVczjy20d
p886
I2
sVd1c3jzy
p887
I1
sVdh9ohar
p888
I1
sVdikf8qs
p889
I1
sVde4dor4
p890
I2
sVdmp56jj
p891
I1
sVd0vnokq
p892
I1
sVd2gq9s0
p893
I1
sVdbwqf2v
p894
I1
sVd3bfru5
p895
I1
sVd5e9tkd
p896
I1
sVdigja0p
p897
I1
sVdg3p6sq
p898
I2
sVd20yzyw
p899
I1
sVdqutyo3
p900
I1
sVdf99rih
p901
I1
sVddzgw8v
p902
I1
sVd2imz27
p903
I1
sVd0orb5i
p904
I1
sVde2omta
p905
I2
sVdbf14cw
p906
I1
sVdimsywa
p907
I1
sVdav7vkp
p908
I1
sVdsfwxqm
p909
I1
sVdkn6euw
p910
I2
sVdphpfcm
p911
I1
sVd5zj4vs
p912
I1
sVdt7cofz
p913
I1
sVd5zkva2
p914
I1
sVd4duz4m
p915
I1
sVcz070kj
p916
I1
sVdcr8kk8
p917
I1
sVdndd5yz
p918
I1
sVdbp8txd
p919
I1
sVd38b3iv
p920
I1
sVd6tl66x
p921
I1
sVdk4zh31
p922
I1
sVdexpsc4
p923
I1
sVdd6b7xk
p924
I1
sVd1as5p5
p925
I1
sVcykhl43
p926
I1
sVd6lldtm
p927
I3
sVcypccz6
p928
I2
sVdtayp9s
p929
I1
sVdi48tza
p930
I1
sVdev9hdr
p931
I1
sVd8dzql7
p932
I1
sVd4amn5q
p933
I1
sVd2wo9nf
p934
I1
sVd19j0qc
p935
I1
sVdaf8dfe
p936
I1
sVd4ntxt3
p937
I1
sVdh59632
p938
I1
sVdmpfl7e
p939
I1
sVdcnhqwy
p940
I1
sVddu78fm
p941
I1
sVdtj12zk
p942
I1
sVd8tgvw6
p943
I1
sVdimjpjp
p944
I1
sVd5wf3j4
p945
I1
sVd0insqw
p946
I1
sVcz8kvjz
p947
I1
sVdq9vvf2
p948
I1
sVdkuuypa
p949
I1
sVdodqqte
p950
I2
sVdf3rmkq
p951
I1
sVdhlhmvt
p952
I1
sVd0iodu8
p953
I1
sVd6zy9h3
p954
I1
sVdnugqr0
p955
I1
sVd9ms2zp
p956
I1
sVdskz8p5
p957
I1
sVdimjxtd
p958
I1
sVdddidlv
p959
I1
sVdsdqwvs
p960
I1
sVcypbdey
p961
I1
sVdpsxoa4
p962
I1
sVd81z633
p963
I1
sVdbb3odi
p964
I1
sVdd4gos9
p965
I1
sVdob0l3s
p966
I1
sVdi3uk62
p967
I1
sVd1bxu1u
p968
I1
sVd5oeda7
p969
I1
sVdiuxvnu
p970
I1
sVdf961u5
p971
I1
sVd59gagx
p972
I1
sVdeej957
p973
I1
sVd8i27jg
p974
I1
sVdaf7bte
p975
I1
sVdopnlnf
p976
I1
sVdhuo6wz
p977
I1
sVdan24m0
p978
I2
sVdndp16p
p979
I1
sVdcii1zm
p980
I1
sVdgj46p8
p981
I1
sVdfq0gyt
p982
I1
sVd1wkaxl
p983
I1
sVdnt3vsy
p984
I1
sVdbz54c7
p985
I1
sVdflyaqo
p986
I1
sVd1vvkwo
p987
I1
sVdey97k3
p988
I1
sVd64ytuy
p989
I1
sVd2p0g2u
p990
I1
sVd4dnaw6
p991
I1
sVdrqoo5v
p992
I1
sVdru9gnb
p993
I1
sVd1p7o04
p994
I1
sVdau25sl
p995
I1
sVdjapezj
p996
I2
sVdirqras
p997
I1
sVd5w4bhu
p998
I1
sVd9mtapv
p999
I1
sVd3e0pdy
p1000
I1
sVdi874bd
p1001
I1
sVdg3hb05
p1002
I1
sVdc8a7mf
p1003
I1
sVd85x3he
p1004
I1
sVdf66t8y
p1005
I2
sVd911gxj
p1006
I1
sVdnyl06m
p1007
I1
sVdd55bnw
p1008
I1
sVdqlk7m3
p1009
I4
sVdbnf2rb
p1010
I1
sVd5ftekr
p1011
I1
sVd22px8f
p1012
I2
sVdevzssr
p1013
I1
sVd71diop
p1014
I1
sVd4mu02s
p1015
I1
sVd0kzjc0
p1016
I1
sVd4onq6j
p1017
I1
sVdayufs9
p1018
I1
sVdoeabno
p1019
I1
sVd5jd4tv
p1020
I1
sVd7n1r6n
p1021
I2
sVdnetemk
p1022
I1
sVd1ksnnm
p1023
I1
sVdr726cw
p1024
I1
sVd4bb71v
p1025
I1
sVd45jl2t
p1026
I1
sVczcnooz
p1027
I1
sVd431ha0
p1028
I1
sVdo177cz
p1029
I1
sVd1uoftp
p1030
I1
sVd65ex1p
p1031
I2
sVd1fiufb
p1032
I1
sVdt4o7ih
p1033
I1
sVdmwwigq
p1034
I1
sVde50qqo
p1035
I1
sVdnfe8v4
p1036
I1
sVdi2xl5n
p1037
I1
sVd62fslb
p1038
I1
sVdie8hlk
p1039
I1
sVdso7atr
p1040
I1
sVd99m8la
p1041
I1
sVd1dhbrt
p1042
I1
sVdoiw47z
p1043
I1
sVd7seahd
p1044
I1
sVd7c55m4
p1045
I2
sVd4hjzvf
p1046
I1
sVddk84bs
p1047
I2
sVczffvr7
p1048
I1
sVdkilgom
p1049
I1
sVd345cun
p1050
I1
sVdq4c7ii
p1051
I1
sVdaizl23
p1052
I1
sVddefqu8
p1053
I1
sVdfs9h4p
p1054
I1
sVd3sgdio
p1055
I1
sVd3vtx28
p1056
I1
sVdrkzuv8
p1057
I1
sVdev74ve
p1058
I2
sVcyxc8h3
p1059
I1
sVdqkinqg
p1060
I2
sVd12rj28
p1061
I1
sVdkjp9g8
p1062
I1
sVdddkzye
p1063
I1
sVd7ehqj4
p1064
I1
sVd1z28w4
p1065
I1
sVdawkvw6
p1066
I2
sVcz6w8g0
p1067
I1
sVdml5yk6
p1068
I1
sVde1quyn
p1069
I2
sVdij08ib
p1070
I1
sVcyiv9ot
p1071
I1
sVd1l9n9k
p1072
I1
sVdc1dwq5
p1073
I2
sVd7qway9
p1074
I1
sVd8dfb5e
p1075
I1
sVdolhlva
p1076
I2
sVdfw025d
p1077
I1
sVcznpo2i
p1078
I1
sVdpjirp8
p1079
I1
sVcyy5n48
p1080
I1
sVd8f47b0
p1081
I1
sVdbv4n6k
p1082
I1
sVde4mhax
p1083
I1
sVd0628so
p1084
I1
sVd7hqtbu
p1085
I1
sVdhtov7f
p1086
I1
sVd5ucbv8
p1087
I1
sVdnah72j
p1088
I1
sVd1sh4zm
p1089
I1
sVdcabgyh
p1090
I1
sVdsxic66
p1091
I1
sVd5284xz
p1092
I1
sVdgnt8ly
p1093
I2
sVdooebo3
p1094
I1
sVdi33h2k
p1095
I2
sVdteddzt
p1096
I1
sVd8vmzn8
p1097
I1
sVdti8bwe
p1098
I1
sVdfwajrt
p1099
I1
sVdslqv3i
p1100
I1
sVcyp0muo
p1101
I1
sVd0103fs
p1102
I1
sVdbvxsac
p1103
I1
sVcyqfzi7
p1104
I1
sVd68usfx
p1105
I2
sVdo52xyf
p1106
I2
sVdat6pdk
p1107
I1
sVdgbn41g
p1108
I1
sVd0n7ngg
p1109
I1
sVd8ez5ld
p1110
I1
sVd24yb2t
p1111
I1
sVczfrpw9
p1112
I1
sVd5ax3zs
p1113
I1
sVczbzddf
p1114
I1
sVdctb9el
p1115
I1
sVdiqojs0
p1116
I1
sVd1x3afd
p1117
I1
sVda1qgns
p1118
I2
sVdeozcy5
p1119
I1
sVd3dqa37
p1120
I1
sVcyzggiw
p1121
I1
sVd3hykcs
p1122
I1
sVdptru3g
p1123
I1
sVdci7mxn
p1124
I1
sVdh31edb
p1125
I1
sVdhvbvqn
p1126
I1
sVdctlf51
p1127
I1
sVd2yokg7
p1128
I2
sVd53cigo
p1129
I1
sVdnd9pzg
p1130
I1
sVdny6hxv
p1131
I1
sVdfqlcti
p1132
I1
sVdrfdk50
p1133
I1
sVdahc5bd
p1134
I1
sVd1k4hmg
p1135
I1
sVd5fgkzv
p1136
I1
sVd0yyw1g
p1137
I1
sVdepo67a
p1138
I1
sVd6on61f
p1139
I1
sVcyz68lk
p1140
I1
sVd9nf6wj
p1141
I1
sVdb0hput
p1142
I1
sVd8avbma
p1143
I3
sVd90kkwb
p1144
I1
sVd5rqhxw
p1145
I3
sVdqti89t
p1146
I1
sVd2f3uvu
p1147
I1
sVdgqwub0
p1148
I1
sVdco9tm6
p1149
I2
sVdbz3oxx
p1150
I1
sVd1q2b0q
p1151
I1
sVdas8pcw
p1152
I1
sVd1jkl1z
p1153
I1
sVd6zyqwx
p1154
I2
sVd11fycz
p1155
I1
sVd1y8tb1
p1156
I1
sVdf3fu2k
p1157
I1
sVd6yahwk
p1158
I1
sVd4e9942
p1159
I1
sVdnnir29
p1160
I1
sVd6ilyh5
p1161
I1
sVd1gn3zn
p1162
I2
sVd49dv5h
p1163
I1
sVdrg7big
p1164
I1
sVcyw0qcb
p1165
I1
sVd5sezr9
p1166
I1
sVczplozy
p1167
I2
sVd2zcer1
p1168
I1
sVdsl5aw8
p1169
I1
sVd070dlr
p1170
I1
sVcyvafil
p1171
I1
sVdj4632s
p1172
I1
sVd12c464
p1173
I1
sVcz7wuem
p1174
I1
sVd6nxc2x
p1175
I1
sVddq0tyr
p1176
I2
sVdrdweqt
p1177
I1
sVdildxpp
p1178
I1
sVdbqrxyu
p1179
I1
sVd9l5st7
p1180
I1
sVcysnwwz
p1181
I1
sVd2rboyf
p1182
I2
sVdjbmzb3
p1183
I1
sVczc6cw7
p1184
I1
sVd8ukcke
p1185
I1
sVd3n8ck3
p1186
I1
sVdjp9g7e
p1187
I3
sVdc0cu9x
p1188
I1
sVd9mizpr
p1189
I1
sVd4ti2mz
p1190
I1
sVd9067w5
p1191
I1
sVd9gyom2
p1192
I1
sVd380bgv
p1193
I1
sVd20u62b
p1194
I1
sVd0q1rj3
p1195
I1
sVdec2y44
p1196
I1
sVd201kqj
p1197
I1
sVdfp8maa
p1198
I1
sVd4z1qsp
p1199
I1
sVd59x68o
p1200
I1
sVdil4v7y
p1201
I1
sVdav4abs
p1202
I2
sVdiqmbla
p1203
I1
sVdngw6mo
p1204
I2
sVd5wfhz4
p1205
I1
sVcz5jyr0
p1206
I1
sVdofq1wx
p1207
I1
sVdin9z5d
p1208
I1
sVd7cmt3j
p1209
I1
sVddl8xlm
p1210
I1
sVd28g6wd
p1211
I1
sVdbjtn22
p1212
I1
sVcyvakhb
p1213
I1
sVdgzwtlx
p1214
I2
sVdrnccjg
p1215
I1
sVdo0irgb
p1216
I2
sVd51v2ss
p1217
I1
sVd3e00nq
p1218
I1
sVdf4c4t5
p1219
I1
sVdaxiqqq
p1220
I1
sVdtd78mq
p1221
I1
sVdfzvbjg
p1222
I1
sVd054a08
p1223
I1
sVddfkmid
p1224
I1
sVd76edvw
p1225
I1
sVdoh5h0e
p1226
I2
sVd38t6b0
p1227
I2
sVd8q172s
p1228
I2
sVcz0kxqj
p1229
I1
sVcz1lxm3
p1230
I1
sVczm67qc
p1231
I1
sVd9cgnk2
p1232
I1
sVd5vro87
p1233
I1
sVdokg33l
p1234
I1
sVd38z9ts
p1235
I1
sVd78peva
p1236
I1
sVczbxo0j
p1237
I1
sVdimfyvm
p1238
I1
sVczerqwp
p1239
I1
sVd78ggyi
p1240
I1
sVdindp66
p1241
I2
sVd25im42
p1242
I1
sVd09ouri
p1243
I1
sVd2bm6gq
p1244
I1
sVdhvbupm
p1245
I1
sVde2li2p
p1246
I1
sVddvyp6x
p1247
I1
sVd8w1lpp
p1248
I1
sVdgdf8dz
p1249
I1
sVdn31s5x
p1250
I1
sVd2ethxt
p1251
I1
sVdam7u1r
p1252
I1
sVdr6h8vd
p1253
I3
sVdngmwzf
p1254
I1
sVd97d8zt
p1255
I3
sVczjcllu
p1256
I1
sVdelm3ng
p1257
I1
sVdn43a43
p1258
I1
sVczpu6nf
p1259
I1
sVdj9pe52
p1260
I1
sVd0qlqnd
p1261
I1
sVdar88jw
p1262
I1
sVdtcuaiz
p1263
I2
sVda5ncnp
p1264
I1
sVdanod3j
p1265
I1
sVd817bh7
p1266
I1
sVdjmgs79
p1267
I1
s.