(dp0
Vdsdncy0
p1
I1
sVdfkqe0q
p2
I1
sVd9xqdbk
p3
I1
sVdfogz75
p4
I1
sVd7bw9d4
p5
I1
sVczyj5no
p6
I1
sVd8enqbi
p7
I1
sVdoud62o
p8
I1
sVd177d0w
p9
I1
sVdab0cgr
p10
I1
sVdc66nyq
p11
I1
sVdej8pby
p12
I1
sVd40zrlw
p13
I1
sVdaf2z6q
p14
I1
sVcytx2kv
p15
I1
sVd931izz
p16
I1
sVd1ocz9h
p17
I1
sVdggc6y7
p18
I1
sVdclm2tq
p19
I1
sVdrd1agi
p20
I1
sVdf0uf6g
p21
I1
sVd5jnfvt
p22
I2
sVdmjp5g8
p23
I1
sVd2ppj31
p24
I2
sVdkvo8i3
p25
I1
sVcyoujkb
p26
I1
sVde878ft
p27
I1
sVditibzg
p28
I1
sVd3xuskk
p29
I1
sVdbmbhdu
p30
I1
sVd7qw3kb
p31
I1
sVdcw8s7k
p32
I1
sVdqid24h
p33
I1
sVd0q7iq7
p34
I1
sVcyzar93
p35
I1
sVdfltgh1
p36
I1
sVd9laddk
p37
I1
sVd8yvye3
p38
I1
sVd19wwaj
p39
I1
sVd7ib2sm
p40
I1
sVd3dp796
p41
I1
sVdggjj9k
p42
I1
sVd6f3m7l
p43
I1
sVdc0xoxk
p44
I1
sVdcn6upg
p45
I1
sVdppsfwi
p46
I1
sVdddadiu
p47
I1
sVd62pzfk
p48
I1
sVczwhzss
p49
I1
sVdo4hw90
p50
I1
sVdfxbfre
p51
I1
sVddiiph7
p52
I1
sVdb06yu2
p53
I1
sVdax2kd9
p54
I1
sVdn5sodq
p55
I1
sVd7bjnyx
p56
I1
sVdd3zfhq
p57
I1
sVd58eggh
p58
I1
sVdh47xhd
p59
I1
sVd3wyvpv
p60
I1
sVdrr0ci7
p61
I1
sVd3qxi93
p62
I1
sVdkgu6vy
p63
I1
sVdjpt5rv
p64
I1
sVdfksv07
p65
I1
sVdmnv5cq
p66
I1
sVd0wopkj
p67
I1
sVdi1zoyw
p68
I1
sVd9uk07e
p69
I1
sVdcvb5nw
p70
I1
sVdaj85si
p71
I1
sVddc86ad
p72
I1
sVd0ztf0h
p73
I1
sVdgdpssb
p74
I1
sVd4u1gbi
p75
I1
sVd726b32
p76
I1
sVdigcns6
p77
I1
sVd1akb6t
p78
I1
sVdtjcljd
p79
I1
sVdji5n81
p80
I1
sVdfqni28
p81
I1
sVddw8tsa
p82
I1
sVdgt8v3x
p83
I1
sVd7obuio
p84
I1
sVd13te5e
p85
I1
sVczix30a
p86
I1
sVdh66lo8
p87
I1
sVdrx6xnl
p88
I1
sVda5x469
p89
I1
sVdjjqdc6
p90
I1
sVdjx61mx
p91
I1
sVdsfgfop
p92
I1
sVd4jy0vk
p93
I1
sVdgbbrdr
p94
I2
sVd77s3ff
p95
I1
sVd6qkry9
p96
I1
sVdirbzko
p97
I1
sVdiju901
p98
I1
sVd3t6nfz
p99
I1
sVd14ajh6
p100
I1
sVdodns9t
p101
I1
sVdb56nix
p102
I1
sVdhayy0f
p103
I1
sVdcm4fwi
p104
I1
sVd8426m8
p105
I1
sVd7ip94b
p106
I1
sVdqlz7sq
p107
I1
sVd7z59t0
p108
I1
sVdcbaqww
p109
I1
sVdi7vp6v
p110
I1
sVdgbnzj8
p111
I1
sVdjp2swn
p112
I1
sVd3i2gr4
p113
I1
sVdhq139f
p114
I1
sVdrfxktd
p115
I1
sVdjxujex
p116
I1
sVddt70fe
p117
I1
sVdny6h3q
p118
I1
sVdbsdmy6
p119
I1
sVdg8ivhe
p120
I1
sVdp07hh0
p121
I1
sVdshek4v
p122
I1
sVd1ttqg9
p123
I1
sVd8lyhds
p124
I1
sVdekjsp4
p125
I1
sVd6jfo9q
p126
I1
sVdeqdgnv
p127
I1
sVd8suw6i
p128
I1
sVcztyd7q
p129
I1
sVdelr30c
p130
I1
sVdj2lv6d
p131
I1
sVd5r28sm
p132
I1
sVdhbu74y
p133
I1
sVdc9whcx
p134
I1
sVdc9nj69
p135
I2
sVd0osy2p
p136
I1
sVd07uvsc
p137
I1
sVdmg9j1s
p138
I1
sVdgmdv9v
p139
I1
sVdj5xv87
p140
I1
sVdcse41b
p141
I1
sVcyt76g5
p142
I1
sVdflcy7m
p143
I1
sVdmrxj4t
p144
I1
sVdibvv2y
p145
I1
sVczxdsgt
p146
I1
sVddl0qoz
p147
I1
sVdg7foxz
p148
I1
sVdnb10cj
p149
I1
sVczwbyih
p150
I1
sVddxp52c
p151
I1
sVd2dv1yf
p152
I1
sVdfrztjr
p153
I2
sVd2uj9lh
p154
I1
sVd86zp48
p155
I1
sVd0ef7em
p156
I1
sVdda7j90
p157
I1
sVdq2t5y8
p158
I1
sVdq7u2zc
p159
I1
sVdi2f1qi
p160
I1
sVd4nx5z3
p161
I1
sVdg93u3r
p162
I1
sVdbew9tz
p163
I1
sVdijpo7i
p164
I1
sVd9fkciw
p165
I1
sVd1arpau
p166
I1
sVdpfcwpt
p167
I1
sVd6kv90a
p168
I1
sVd6hts0k
p169
I1
sVcyvzf0c
p170
I1
sVdey0mji
p171
I1
sVdj0ddfg
p172
I1
sVd8aauhs
p173
I1
sVdoy9m25
p174
I1
sVdg4g7gl
p175
I1
sVdt5rpdk
p176
I1
sVdeuus5s
p177
I1
sVdiectje
p178
I1
sVd0xidcu
p179
I1
sVdg4jojg
p180
I1
sVddscv58
p181
I1
sVczh7nj0
p182
I1
sVd44fsbt
p183
I1
sVdiof2ii
p184
I1
sVczhorj8
p185
I1
sVdipe2kp
p186
I1
sVd82ta42
p187
I1
sVdgut2cl
p188
I1
sVdmk0qpg
p189
I1
sVdi0m203
p190
I1
sVd5xzvgo
p191
I1
sVd0jyzq7
p192
I1
sVdfaldso
p193
I1
sVdbxiv7n
p194
I1
sVd3e5s8v
p195
I1
sVdbkw50h
p196
I1
sVdera750
p197
I1
sVdt5aigm
p198
I1
sVd2ypcig
p199
I1
sVdsvodr6
p200
I1
sVdmliv5n
p201
I1
sVdhndpqe
p202
I1
sVdilxz2b
p203
I1
sVdi08og3
p204
I1
sVdo0c1bn
p205
I1
sVczpaeve
p206
I1
sVd3ptkcp
p207
I1
sVdb2o1yt
p208
I1
sVdjaalyv
p209
I1
sVd30cc6y
p210
I1
sVdo2impj
p211
I1
sVdfjscgr
p212
I1
sVd4bmmtl
p213
I1
sVdki92oo
p214
I1
sVd8iifi0
p215
I1
sVd3e8hf4
p216
I1
sVd747jet
p217
I1
sVdi6jgpm
p218
I1
sVd53qqt6
p219
I1
sVd8sqale
p220
I1
sVdb67dw3
p221
I1
sVd2oy5k8
p222
I1
sVdi6u3v5
p223
I1
sVd0zavq7
p224
I1
sVd619drf
p225
I1
sVcz9hp9j
p226
I1
sVcz33111
p227
I1
sVd928n8t
p228
I1
sVd37ilv5
p229
I1
sVczfpkxk
p230
I1
sVd27sfb9
p231
I1
sVd9ct6fv
p232
I1
sVdqnkfde
p233
I1
sVdkk2i9x
p234
I1
sVczhh5sy
p235
I1
sVder0sro
p236
I1
sVdnh9su7
p237
I2
sVd9z8mjy
p238
I1
sVd8i2vnz
p239
I1
sVczvv16n
p240
I1
sVddsygif
p241
I1
sVd1fzb8v
p242
I1
sVczyxszu
p243
I1
sVdhua2di
p244
I1
sVdioin1x
p245
I1
sVdi83qvr
p246
I1
sVd323ohy
p247
I1
sVdrpfl1l
p248
I1
sVd4pn13v
p249
I1
sVcz4nytq
p250
I1
sVdg2lgo0
p251
I1
sVdi5hfa3
p252
I1
sVdj8al0i
p253
I1
sVdieo3gy
p254
I1
sVd00s0fh
p255
I1
sVd7soqla
p256
I1
sVdkyu8a3
p257
I1
sVdcrxg1k
p258
I1
sVdk4p4lb
p259
I1
sVd7r0cv2
p260
I1
sVd3rgi1y
p261
I1
sVd01i6oj
p262
I1
sVd0dui9c
p263
I1
sVd032ll5
p264
I1
sVdb6v7ia
p265
I1
sVd1gmxsw
p266
I1
sVdfljerj
p267
I1
sVcyir9yb
p268
I1
sVd0wdjzb
p269
I1
sVczek2kf
p270
I1
sVd99v8bi
p271
I1
sVdj0nckk
p272
I1
sVdg7leb6
p273
I1
sVd0vmrox
p274
I1
sVdknusmw
p275
I1
sVd25ulfx
p276
I1
sVd5yhhg7
p277
I1
sVd03d3va
p278
I1
sVd7nut6p
p279
I1
sVcyuldux
p280
I1
sVd2bhtgz
p281
I1
sVdqzsszl
p282
I1
sVdbpwbs0
p283
I1
sVdbjs5ni
p284
I1
sVdav93g5
p285
I1
sVdrjn5at
p286
I1
sVdcvdwkp
p287
I1
sVdobjwch
p288
I1
sVdby3ux6
p289
I2
sVd3e7kmv
p290
I1
sVd6aczhr
p291
I1
sVdpax2ho
p292
I1
sVdepv46i
p293
I1
sVd6vpmkn
p294
I1
sVd9e0z38
p295
I1
sVdcnmphb
p296
I1
sVd933xi5
p297
I1
sVdjxsliv
p298
I1
sVdcwudu3
p299
I2
sVdemvbfa
p300
I1
sVdtfxsmn
p301
I1
sVdodx3ss
p302
I1
sVdsgt14n
p303
I2
sVdqw4o86
p304
I1
sVdfq7gv4
p305
I1
sVd591g5x
p306
I1
sVd71nmff
p307
I1
sVd2vp65r
p308
I1
sVd5omek7
p309
I1
sVdfoods2
p310
I1
sVd0k58zt
p311
I1
sVdc49yfm
p312
I1
sVdb8t2jc
p313
I1
sVd7trgtl
p314
I1
sVdi104uo
p315
I1
sVd9l2buy
p316
I1
sVds1a0rq
p317
I1
sVd3mxspy
p318
I1
sVdhpdcp1
p319
I1
sVd3ymnbx
p320
I1
sVdipn21d
p321
I1
sVcywqaj4
p322
I1
sVdku3bs7
p323
I1
sVd1of7kk
p324
I1
sVd6sluws
p325
I1
sVdbikqsy
p326
I1
sVdrot3us
p327
I1
sVddkf4oy
p328
I1
sVd1irdbf
p329
I1
sVd5nlsqr
p330
I1
sVdnimbzb
p331
I1
sVdo888uz
p332
I1
sVcyuu0w1
p333
I1
sVdk8xnn6
p334
I1
sVd78rs9r
p335
I1
sVd4ttt7q
p336
I1
sVd1dpru7
p337
I1
sVd6b2hoo
p338
I1
sVd6tqxii
p339
I1
sVd21pwv4
p340
I1
sVdq6vtdv
p341
I1
sVddyttxf
p342
I1
sVdnh6ipp
p343
I1
sVd2tv55f
p344
I1
sVdjmqz6u
p345
I1
sVdrz1vht
p346
I1
sVd15ukew
p347
I1
sVcz8toa4
p348
I1
sVdk5vm4a
p349
I1
sVd1jukp2
p350
I1
sVda03bd2
p351
I1
sVd7z9leg
p352
I1
sVd4225lv
p353
I1
sVd71kh6z
p354
I1
sVd5p1x9k
p355
I1
sVdbdz894
p356
I2
sVd296a38
p357
I1
sVd9u605k
p358
I1
sVd4ryhv9
p359
I1
sVdg1lmur
p360
I1
sVdspas0o
p361
I1
sVd6r9x3s
p362
I3
sVdis3nfk
p363
I1
sVdp060fj
p364
I1
sVdcs006n
p365
I1
sVczaengm
p366
I1
sVddc8qz4
p367
I1
sVdjzqpvb
p368
I1
sVd1qsjk6
p369
I1
sVdpye9n5
p370
I1
sVdkjy490
p371
I1
sVd3vvd8p
p372
I1
sVcztrpxp
p373
I1
sVdkz02jb
p374
I1
sVdg24bsx
p375
I1
sVdfed86j
p376
I1
sVd71l24t
p377
I1
sVdielklu
p378
I1
sVd7cuwso
p379
I1
sVd2w9vpo
p380
I1
sVd2nbilm
p381
I1
sVdeoafxq
p382
I1
sVdcli35i
p383
I1
sVdss84y5
p384
I1
sVdnboyhs
p385
I1
sVdj9k5yo
p386
I1
sVd3teo3b
p387
I1
sVdg8t941
p388
I1
sVd06o481
p389
I1
sVdeki3zz
p390
I1
sVdfyigun
p391
I1
sVd70ot5x
p392
I2
sVdceyp96
p393
I1
sVdho7iw9
p394
I1
sVdonexvq
p395
I1
sVdsf9zsq
p396
I1
sVd123j3e
p397
I1
sVdcht4tv
p398
I1
sVdheqywz
p399
I1
sVd7etcow
p400
I1
sVd50iskv
p401
I1
sVd6r399r
p402
I1
sVdhgpu04
p403
I1
sVdd6zc9k
p404
I1
sVd18tidm
p405
I1
sVd8usrdy
p406
I1
sVd8vn80g
p407
I1
sVdi6iuyu
p408
I1
sVdpt25x7
p409
I1
sVdk6wk2q
p410
I1
sVdfpibmt
p411
I1
sVd29fzf4
p412
I1
sVd1d0fmr
p413
I1
sVd36jycy
p414
I1
sVczzvqec
p415
I1
sVd622pbb
p416
I1
sVdjo12cb
p417
I1
sVdsqwbtf
p418
I1
sVd26jgto
p419
I1
sVd0rzm1y
p420
I1
sVdetlgcr
p421
I1
sVdayrqin
p422
I1
sVczdcj9k
p423
I1
sVdg3ydzf
p424
I1
sVdfh0gar
p425
I1
sVd0qhv80
p426
I1
sVdbq9div
p427
I1
sVcz3wqb4
p428
I1
sVczi9gxo
p429
I1
sVczsdbod
p430
I1
sVdp2vhgw
p431
I1
sVcyj3muf
p432
I2
sVdaygpib
p433
I1
sVdhewdw0
p434
I1
sVcyr3i6h
p435
I1
sVcz1xxjt
p436
I1
sVdkg0q16
p437
I2
sVdheimof
p438
I1
sVdf2ysiv
p439
I1
sVdf267z7
p440
I1
sVdaiz126
p441
I1
sVdpvoc1o
p442
I1
sVd6m5opa
p443
I1
sVdpiaip2
p444
I1
sVd14d34n
p445
I1
sVdgfjjyt
p446
I1
sVdb2pdlp
p447
I1
sVdd1vlfc
p448
I1
sVcyuehpc
p449
I1
sVd0px1qv
p450
I1
sVd7ad15e
p451
I4
sVdghq2r0
p452
I1
sVdn602a7
p453
I1
sVcyretg2
p454
I1
sVd1bvj7q
p455
I1
sVdgwhla9
p456
I1
sVd1s3uap
p457
I1
sVd819xnb
p458
I1
sVdkz5y1t
p459
I1
sVd5ygrs7
p460
I1
sVdfw5cbg
p461
I2
sVdag7872
p462
I1
sVdeqcb5q
p463
I1
sVd0xyjq9
p464
I1
sVd6d8aaa
p465
I1
sVdb0n83g
p466
I1
sVd1pp4bl
p467
I1
sVcywjnrr
p468
I1
sVd2h9g25
p469
I1
sVdogpury
p470
I1
sVcyt94x4
p471
I1
sVd9uohbg
p472
I1
sVcz05hip
p473
I1
sVd2bq47z
p474
I1
sVd8qq6n4
p475
I1
sVd2h0xmx
p476
I1
sVdtdvfp6
p477
I1
sVdpueg3k
p478
I1
sVdfl2b5s
p479
I1
sVcyri07l
p480
I1
sVd0kuz1o
p481
I1
sVd8tekdy
p482
I1
sVdgckax6
p483
I1
sVdizq5j6
p484
I1
sVdgryv9c
p485
I2
sVd985joc
p486
I1
sVd251hem
p487
I1
sVd78voty
p488
I1
sVdjor66m
p489
I2
sVczigcih
p490
I1
sVd3y0xoy
p491
I1
sVdknbm0c
p492
I1
sVcznezof
p493
I1
sVdssh5rb
p494
I1
sVd7ejuxv
p495
I1
sVdfboe57
p496
I1
sVdhc3v1u
p497
I1
sVd700a0a
p498
I1
sVdbky7i1
p499
I1
sVd7z9s4k
p500
I4
sVdnjhoga
p501
I1
sVd6k35vn
p502
I1
sVde01cqg
p503
I1
sVdhpqe1p
p504
I1
sVdgom8kl
p505
I1
sVcymigst
p506
I1
sVda3av5f
p507
I1
sVd797b1v
p508
I1
sVcz6qlib
p509
I1
sVdd8gjdk
p510
I1
sVdeekrw3
p511
I1
sVdcez1ei
p512
I1
sVdh70asp
p513
I1
sVddq2b4h
p514
I1
sVd1c6xgk
p515
I1
sVd0kg24s
p516
I1
sVd55f544
p517
I1
sVdk5a0kf
p518
I1
sVd0hskx8
p519
I1
sVdbtpo1z
p520
I1
sVd6n8llz
p521
I1
sVdrj0ky1
p522
I1
sVds1ltkh
p523
I1
sVdaax8wl
p524
I1
sVd1p2kwl
p525
I1
sVcyu32rj
p526
I2
sVddlylfr
p527
I1
sVd191mv3
p528
I1
sVd5ftpv3
p529
I1
sVdjwll6a
p530
I1
sVdk4ws2c
p531
I1
sVd6r4ufu
p532
I1
sVd71rjrh
p533
I1
sVdkv60xd
p534
I1
sVdhmtzdj
p535
I1
sVdiv1p7b
p536
I1
sVdgpwx0j
p537
I1
sVds4gnf5
p538
I1
sVd9djavr
p539
I1
sVddfzu2l
p540
I1
sVd71jen7
p541
I1
sVdklw84y
p542
I1
sVdsdyhqk
p543
I1
sVczlet68
p544
I1
sVcyutq4d
p545
I1
sVd28vjwo
p546
I2
sVdil3oln
p547
I1
sVdafcn9g
p548
I1
sVczzri6t
p549
I1
sVd9tlubw
p550
I1
sVdktvbmg
p551
I1
sVdbm4uhi
p552
I1
sVdiw730x
p553
I1
sVddwi6po
p554
I1
sVdqyx9o8
p555
I1
sVdhgmogq
p556
I1
sVdhtriqd
p557
I1
sVd63hl47
p558
I2
sVde00jl0
p559
I1
sVddzb56s
p560
I1
sVdhm311t
p561
I1
sVczwa55z
p562
I1
sVd7eagl4
p563
I1
sVd884x0n
p564
I1
sVdsyumxs
p565
I1
sVdb80qat
p566
I1
sVdenx4v7
p567
I1
sVdej6yi6
p568
I1
sVczn9c1j
p569
I1
sVd3wtgla
p570
I1
sVd2l8z28
p571
I1
sVd91derl
p572
I1
sVd0asx76
p573
I1
sVd0b6tu4
p574
I1
sVdbc8tp8
p575
I1
sVdcya45m
p576
I1
sVd41okmz
p577
I1
sVdseziwx
p578
I1
sVd6gpkhf
p579
I2
sVd4adslq
p580
I1
sVd7a7e38
p581
I1
sVd2nrsx9
p582
I1
sVd0pzljn
p583
I1
sVcz2r1oh
p584
I1
sVdkj4kjw
p585
I1
sVdd6pbhr
p586
I1
sVdbk4fgn
p587
I1
sVd77qh7o
p588
I1
sVdiirebu
p589
I1
sVdhft986
p590
I1
sVdeaocly
p591
I2
sVddi5s9u
p592
I1
sVd4gek8d
p593
I1
sVdat5d1v
p594
I1
sVdcxva19
p595
I1
sVcz1g53n
p596
I1
sVd9rizmy
p597
I1
sVd3c64gh
p598
I1
sVd9xjlo8
p599
I1
sVdfyke41
p600
I1
sVcyn09y2
p601
I1
sVde6zwqa
p602
I1
sVdgrulgi
p603
I1
sVd2ftcp9
p604
I1
sVdroq11q
p605
I1
sVddrbu5l
p606
I1
sVcz5btqr
p607
I1
sVd0iegjf
p608
I1
sVd6x13ni
p609
I1
sVd9bg8ta
p610
I1
sVd6pu7lk
p611
I1
sVczdrt69
p612
I1
sVd8qtoj3
p613
I1
sVczgii2l
p614
I1
sVdgf25d9
p615
I1
sVd1fz2jm
p616
I2
sVdso67mj
p617
I1
sVd0ul15r
p618
I1
sVd0qfcgp
p619
I1
sVdb57nfj
p620
I1
sVd75n3wb
p621
I1
sVd22d47b
p622
I1
sVczkqzco
p623
I2
sVdhvcosb
p624
I1
sVdkeaxjw
p625
I1
sVd7jug3x
p626
I1
sVdfrtctj
p627
I1
sVczvdp7b
p628
I1
sVde0lqfg
p629
I1
sVczs9k61
p630
I1
sVdmq0h9l
p631
I1
sVdf8dvse
p632
I1
sVcymmsdn
p633
I1
sVd0kzuvw
p634
I1
sVd2pzh0e
p635
I1
sVd1tk8zp
p636
I1
sVdfw4b2b
p637
I1
sVdbgzdww
p638
I1
sVddj3kqa
p639
I1
sVdmx2vso
p640
I1
sVdndhjf6
p641
I1
sVdoh9aq7
p642
I1
sVdh8984u
p643
I1
sVdrxb3i3
p644
I2
sVdo2rkpb
p645
I1
sVdg7humo
p646
I1
sVdfw4fei
p647
I1
sVdonmwrl
p648
I1
sVdb4yhal
p649
I2
sVdefjxcn
p650
I1
sVdrvrcaw
p651
I1
sVd6332b6
p652
I1
sVdq29zfu
p653
I1
sVd0xoh4s
p654
I1
sVdfgm037
p655
I1
sVdqa73jp
p656
I1
sVdgvpnpq
p657
I1
sVd8b90s3
p658
I1
sVdczrax8
p659
I1
sVdck21nt
p660
I1
sVdoh53b1
p661
I1
sVd41cr9t
p662
I1
sVdi0jyh4
p663
I1
sVdfa486r
p664
I1
sVd20i8vm
p665
I1
sVdjg3g8f
p666
I1
sVdppomdb
p667
I1
sVddx50l6
p668
I1
sVd5hk78u
p669
I1
sVd1ru64f
p670
I1
sVdbjm5ne
p671
I1
sVd5fm3mn
p672
I1
sVd7h7pi9
p673
I1
sVd85a97o
p674
I1
sVdsysg6p
p675
I1
sVdp5bd2y
p676
I1
sVdhtgkra
p677
I1
sVcypkw3s
p678
I1
sVddkhtyh
p679
I1
sVd1aqvbf
p680
I1
sVd1d2gap
p681
I1
sVdaccyka
p682
I1
sVdhvukzi
p683
I1
sVdkminzi
p684
I1
sVdbjc3tu
p685
I1
sVdjtf8tq
p686
I1
sVdp4129g
p687
I1
sVddjh31b
p688
I1
sVdira81m
p689
I1
sVczyt69w
p690
I1
sVd7ijbpb
p691
I1
sVdg7vnve
p692
I1
sVd4uklo9
p693
I1
sVd91alik
p694
I1
sVd5300kc
p695
I1
sVdtbevbx
p696
I1
sVczmfi09
p697
I1
sVd4p75x5
p698
I1
sVda5gb7u
p699
I1
sVdcdik1b
p700
I1
sVdhidtz0
p701
I1
sVdqexu2x
p702
I1
sVde0ijpi
p703
I1
sVd4ro0hk
p704
I1
sVdq1196u
p705
I1
sVd3vlzdz
p706
I1
sVdodugn5
p707
I1
sVd2cz9hi
p708
I1
sVd8enudr
p709
I1
sVdt2ymtn
p710
I1
sVdo8frm6
p711
I1
sVd5ba286
p712
I1
sVdr4i1br
p713
I1
sVd9o3go1
p714
I1
sVd4m0729
p715
I1
sVdizogme
p716
I1
sVd32brr5
p717
I1
sVdabjzux
p718
I1
sVdfniy1p
p719
I1
sVd8532ue
p720
I1
sVcziuee2
p721
I1
sVdmz74h9
p722
I1
sVd9cpzle
p723
I1
sVdmllthi
p724
I1
sVdd1yc5c
p725
I1
sVd0jg9y3
p726
I1
sVda341rs
p727
I1
sVdjs8iwj
p728
I1
sVd49sgxq
p729
I1
sVd0fxvc1
p730
I1
sVdenx9ds
p731
I2
sVd9fvngv
p732
I1
sVdnwdixd
p733
I1
sVd9nsbzj
p734
I1
sVd56gua7
p735
I1
sVcyiit0j
p736
I1
sVdc9tt81
p737
I1
sVd1aza4i
p738
I1
sVd34qt0h
p739
I1
sVdcsd9qg
p740
I1
sVdnfu6n5
p741
I1
sVczk6sxr
p742
I1
sVdsasj35
p743
I1
sVd3wedbk
p744
I1
sVdkc9qc8
p745
I1
sVd6lqmjo
p746
I1
sVdc1qfwc
p747
I1
sVd4kx2li
p748
I1
sVdjny95k
p749
I1
sVd73xbho
p750
I1
sVd7g7dzo
p751
I1
sVczmc505
p752
I1
sVdprze5s
p753
I2
sVda3sqb8
p754
I1
sVdb3qxaf
p755
I1
sVdj4mk50
p756
I1
sVd1olbas
p757
I1
sVdav70w9
p758
I1
sVczl3xgf
p759
I1
sVd09ml4x
p760
I1
sVde4uzqd
p761
I1
sVcyzq2we
p762
I1
sVdfltjma
p763
I1
sVd8279zi
p764
I1
sVdqspwaj
p765
I1
sVdkg8463
p766
I1
sVd18d6kb
p767
I1
sVd3zp1wk
p768
I1
sVd7hjbqw
p769
I1
sVdizf9m7
p770
I1
sVd7w63n7
p771
I1
sVd6bgibm
p772
I1
sVdn3tm71
p773
I1
sVd73dkmw
p774
I1
sVd6xfx9y
p775
I1
sVd800f5b
p776
I1
sVdakj51r
p777
I1
sVdhwftlo
p778
I1
sVda32omw
p779
I1
sVdd6d6mv
p780
I1
sVd3hxl22
p781
I1
sVda48frq
p782
I1
sVd7h39aj
p783
I1
sVdeeo47y
p784
I1
sVdcantej
p785
I1
sVdois5n2
p786
I1
sVdh9v4r6
p787
I1
sVdibouwe
p788
I3
sVdgydkys
p789
I1
sVd6uyg6u
p790
I1
sVdbjclb8
p791
I1
sVdaajgqj
p792
I1
sVczfu2r9
p793
I1
sVdkjysfm
p794
I1
sVd1ida6o
p795
I1
sVd3e0js8
p796
I1
sVd4zz6rj
p797
I1
sVdjod0gb
p798
I1
sVdb5jblk
p799
I1
sVd62fslb
p800
I1
sVd5ee3n5
p801
I1
sVd1dhbrt
p802
I1
sVdgdqcjv
p803
I1
sVd2ppkbp
p804
I1
sVd69r1d9
p805
I1
sVdgm3igv
p806
I1
sVcz8tnn3
p807
I1
sVd7afg6w
p808
I1
sVdp098qw
p809
I1
sVd57mi4l
p810
I1
sVdgira9u
p811
I1
sVdee6rbx
p812
I1
sVd0mlbo9
p813
I1
sVd4d98tm
p814
I1
sVd2hbflc
p815
I1
sVdiotr4y
p816
I1
sVd3maisu
p817
I1
sVdf3v6ir
p818
I1
sVdhnb1vo
p819
I1
sVdiahkqi
p820
I1
sVdcnv690
p821
I1
sVdclhhd4
p822
I1
sVdejmeer
p823
I1
sVdivrahw
p824
I1
sVdaq02nr
p825
I1
sVddgp2fz
p826
I1
sVcz0e6ap
p827
I1
sVdcske80
p828
I1
sVdb11usy
p829
I1
sVczi62gi
p830
I1
sVdfos0ss
p831
I1
sVdj3fjik
p832
I1
sVd5ule9b
p833
I1
sVd6o1cjz
p834
I1
sVdgpyrp1
p835
I1
sVd1ku3wt
p836
I1
sVdawb68e
p837
I1
sVdcq6zuh
p838
I2
sVda4eze1
p839
I1
sVdcwb66u
p840
I1
sVd1az7ry
p841
I1
sVdaebphg
p842
I1
sVdf3pa1e
p843
I1
sVd5oizym
p844
I1
sVdshrntp
p845
I1
sVd3jqonx
p846
I1
sVd63mw2o
p847
I1
sVdazeroj
p848
I1
sVd6ljgy0
p849
I1
sVdo5monh
p850
I1
sVdhxb60c
p851
I1
sVd8e6677
p852
I3
sVdcw2vxo
p853
I1
sVdet2umv
p854
I1
sVd47wigp
p855
I1
sVdggvet9
p856
I1
sVd869cou
p857
I1
sVdprmqrm
p858
I1
sVd8wjiam
p859
I1
sVd4l1fqb
p860
I1
sVd1us343
p861
I1
sVdjrd1ga
p862
I2
sVdd66llm
p863
I1
sVdh2w1xn
p864
I1
sVczmsxj0
p865
I1
sVded7so6
p866
I1
sVdbpgxnx
p867
I1
sVd0h9khh
p868
I1
sVdbcu8ao
p869
I1
sVd78x6hw
p870
I1
sVd62q2z1
p871
I1
sVddc3623
p872
I1
sVdd3bcfl
p873
I1
sVd6y269q
p874
I1
sVd72z4ti
p875
I1
sVd2yysq6
p876
I1
sVd4yuixg
p877
I1
sVdn3jn5h
p878
I1
sVd0bf9gq
p879
I1
sVdgw17wo
p880
I1
sVd18yds6
p881
I1
sVcyozcrv
p882
I1
sVd6ht7s1
p883
I2
sVdamqq3v
p884
I1
sVcyvvuz1
p885
I1
sVdiet4tp
p886
I1
sVd94igxb
p887
I1
sVd3mu16h
p888
I1
sVd7t8z0d
p889
I1
sVd74rlje
p890
I1
sVdo8hf6n
p891
I1
sVd00nyaa
p892
I1
sVdnm132e
p893
I1
sVd8ptkbk
p894
I1
sVdsn5lpv
p895
I1
sVd0998i2
p896
I1
sVdrjpgk1
p897
I1
sVd2fy75w
p898
I1
sVdiprmvd
p899
I1
sVdjjflef
p900
I1
sVdbrnxu0
p901
I1
sVd4i5wy2
p902
I1
sVdcoaoqr
p903
I1
sVdn119pt
p904
I2
sVdgl5ywb
p905
I1
sVd2rkek7
p906
I1
sVd5s76vr
p907
I2
sVd4i08gz
p908
I1
sVdh2pjyq
p909
I1
sVd4gmzri
p910
I1
sVdmun5t2
p911
I1
sVdboajxm
p912
I1
sVdcxz3r6
p913
I1
sVdpwntx2
p914
I1
sVd5dwl6q
p915
I1
sVcyjag74
p916
I1
sVd9d15vu
p917
I1
sVd23wcfu
p918
I1
sVdf9fcau
p919
I1
sVdfrzfzb
p920
I1
sVd31da3c
p921
I1
sVd5ihhsm
p922
I1
sVd2r4ro6
p923
I1
sVddzqdkh
p924
I1
sVd3uaeer
p925
I1
sVcyugh3w
p926
I1
sVd0gh0ac
p927
I1
sVdkz5pcx
p928
I1
sVd01gz7u
p929
I1
sVd95jom0
p930
I1
sVda40zo5
p931
I1
sVd2ocm43
p932
I1
sVdfabrwe
p933
I1
sVdjklbbp
p934
I1
sVdi0g9p6
p935
I1
sVd9asg2z
p936
I1
sVd8hky90
p937
I1
sVdekw3v3
p938
I1
sVdkt6pb8
p939
I1
sVdn5timq
p940
I1
sVdhtvatf
p941
I1
sVd8wyqd2
p942
I1
sVd4kydnj
p943
I1
sVd4gc8ha
p944
I1
sVdifkqj9
p945
I1
sVd77ce34
p946
I1
sVczoiezf
p947
I1
sVd3x3kjg
p948
I1
sVdp6avmc
p949
I1
sVdna21nh
p950
I3
sVdhesxh5
p951
I1
sVdhv6vpu
p952
I1
sVde7wyyw
p953
I1
sVd69revk
p954
I1
sVdoiql00
p955
I1
sVd1dum95
p956
I1
sVdjo6kvs
p957
I1
sVd27eq7i
p958
I1
sVd82kc8u
p959
I1
sVd0731d7
p960
I1
sVd3mjpng
p961
I1
sVdd1yji5
p962
I1
sVdjb91b2
p963
I1
sVd6zqf13
p964
I1
sVd8p0yi3
p965
I1
sVcymp7fn
p966
I1
sVdth3x4i
p967
I1
sVd6jnmkt
p968
I1
sVdi9oc3t
p969
I1
sVd4l7xhl
p970
I1
sVd1p3mzq
p971
I1
sVd4wzrsj
p972
I1
sVd4jtass
p973
I1
sVd2q86v3
p974
I1
sVd1220xy
p975
I1
sVdi28cxj
p976
I1
sVdfxbqb8
p977
I1
sVdaejoax
p978
I1
sVd3mumho
p979
I1
sVd7ffq0l
p980
I1
sVdn00i3i
p981
I1
sVdavc2tw
p982
I1
sVdiz6csg
p983
I1
sVdsu1rpu
p984
I1
sVcylz2m4
p985
I1
sVdgib2e8
p986
I1
sVdgbg2wj
p987
I1
sVd3genrk
p988
I1
sVd0w5rru
p989
I1
sVd35gbj7
p990
I1
sVdmvbycy
p991
I1
sVd070jg7
p992
I1
sVd3qctm2
p993
I1
s.