(dp0
Vdh9fq5t
p1
I1
sVd31rfs3
p2
I1
sVd63fmr4
p3
I1
sVdt6qzwb
p4
I1
sVdpu4wsj
p5
I1
sVd0d2i87
p6
I1
sVddfzu2l
p7
I1
sVddjv6dg
p8
I1
sVd4s0smc
p9
I1
sVd8i74ce
p10
I1
sVd4fb8d2
p11
I1
sVd732znh
p12
I1
sVdiigu1k
p13
I1
sVdihl065
p14
I1
sVdfluiu0
p15
I1
sVdjtp1wm
p16
I1
sVdppkx1b
p17
I1
sVdas8imo
p18
I1
sVdivgllk
p19
I1
sVdnu2xkv
p20
I1
sVd38o7zh
p21
I1
sVdjk5bki
p22
I1
sVdbw1t9p
p23
I1
sVdiugr0o
p24
I1
sVdgst2s0
p25
I2
sVdccdxrd
p26
I1
sVdn3nroh
p27
I1
sVd5ik7e3
p28
I1
sVddh3tab
p29
I1
sVdfw13yw
p30
I1
sVdbw1ysz
p31
I1
sVdc4cyb8
p32
I2
sVdi2rs74
p33
I1
sVd87yxkh
p34
I2
sVd0rns1j
p35
I1
sVdd1t6d3
p36
I1
sVczwx5bj
p37
I1
sVczuylud
p38
I1
sVdh0rqvj
p39
I1
sVd5djgv6
p40
I1
sVdchknqq
p41
I1
sVd6sbv6l
p42
I1
sVd8sce1e
p43
I1
sVd10eqn7
p44
I1
sVdbr453o
p45
I1
sVd1xemh8
p46
I1
sVdpu7jnx
p47
I1
sVdagn3vl
p48
I1
s.