(dp0
Vd30du7o
p1
I1
sVcyllghk
p2
I1
sVdilzk9l
p3
I2
sVdhef6x7
p4
I1
sVd65fzqk
p5
I1
sVd3lh2v1
p6
I1
sVd137zu6
p7
I1
sVd3fgfy5
p8
I1
sVcz3ppya
p9
I1
sVdevvpcm
p10
I1
sVczieg9c
p11
I1
sVczzxwov
p12
I1
sVd9jtn5x
p13
I1
sVdd4omwb
p14
I1
sVd30z6ja
p15
I1
s.