(dp0
Vdfcukbj
p1
I1
sVcz3negl
p2
I1
sVd6bhm4n
p3
I2
sVdggqt4f
p4
I1
sVdg3fgso
p5
I2
sVczh7c21
p6
I1
sVd74inxh
p7
I1
sVdp14fv4
p8
I1
sVdaistit
p9
I1
sVdbnt3t8
p10
I1
sVd1s497z
p11
I1
sVd1w1qq0
p12
I1
sVd3htw3w
p13
I1
sVdngu6gn
p14
I1
sVd81z0en
p15
I2
sVczxbe7s
p16
I1
sVdiph4jz
p17
I1
sVdbvd6ge
p18
I5
sVdpx8nhk
p19
I1
sVd0yze3h
p20
I1
sVd9w97gw
p21
I2
sVdg5qrk8
p22
I1
sVczeklmy
p23
I1
sVd4db9z3
p24
I1
sVd4pto73
p25
I1
sVd6ktmce
p26
I1
sVd0zrviv
p27
I1
sVd7sbfa0
p28
I1
sVd6ksu0y
p29
I2
sVcyzk9l1
p30
I1
sVd4c1uva
p31
I1
sVdgwkpdf
p32
I1
sVd2a9num
p33
I1
sVdseajsa
p34
I2
sVdmy3d4s
p35
I1
sVdbihe2y
p36
I1
sVd0hrs5s
p37
I2
sVd83nbri
p38
I1
sVd3c5o6x
p39
I1
sVcym66yi
p40
I1
sVdgk1w1u
p41
I1
sVdin68y6
p42
I2
sVdc5mc63
p43
I1
sVd25des7
p44
I1
sVd0d6q55
p45
I1
sVd39azqr
p46
I1
sVdd21301
p47
I1
sVd5cjmlz
p48
I2
sVd2s9jac
p49
I1
sVdkx58uv
p50
I1
sVdt2ide5
p51
I1
sVcz3lcde
p52
I1
sVd5r468y
p53
I1
sVdiknbnq
p54
I2
sVd2rghhu
p55
I1
sVdi56yfr
p56
I1
sVdn2y8cl
p57
I2
sVczcltgn
p58
I1
sVdqstzbn
p59
I1
sVdt219zz
p60
I1
sVd27m3kt
p61
I1
sVd2z01he
p62
I1
sVczm4aja
p63
I1
sVdsgebfm
p64
I1
sVdelp3d6
p65
I1
sVd4w3vxj
p66
I1
sVd3xfw0p
p67
I1
sVd1f0lm3
p68
I1
sVdb5mlb5
p69
I1
sVd22k7t5
p70
I1
sVdagagh8
p71
I1
sVdc5geot
p72
I1
sVd15ll87
p73
I2
sVd6ku1fm
p74
I1
sVdenrqdh
p75
I1
sVdp644rp
p76
I1
s.