(dp0
Vcyoxv06
p1
I1
s.(dp0
Vcyoxv06
p1
I1
sVcz4z76g
p2
I1
s.(dp0
Vcyoxv06
p1
I1
sVczeje32
p2
I1
s.(dp0
Vcyoxv06
p1
I1
sVczh7jn3
p2
I1
s.(dp0
Vcyoxv06
p1
I1
sVczruslp
p2
I1
s.(dp0
Vcyoxv06
p1
I1
sVczs3hwf
p2
I1
s.(dp0
Vcyoxv06
p1
I1
sVczse8yp
p2
I1
s.(dp0
Vcyoxv06
p1
I1
sVd0jh4t8
p2
I1
s.(dp0
Vcyoxv06
p1
I1
sVd11exqq
p2
I1
s.(dp0
Vcyoxv06
p1
I1
sVd11exqq
p2
I1
s.(dp0
Vcyoxv06
p1
I1
sVd18yds6
p2
I1
s.(dp0
Vcyoxv06
p1
I1
sVd1pajug
p2
I1
s.(dp0
Vcyoxv06
p1
I1
sVd26nkum
p2
I1
s.(dp0
Vcyoxv06
p1
I1
sVd2cbetg
p2
I1
s.(dp0
Vcyoxv06
p1
I1
sVd2rzqzf
p2
I1
s.(dp0
Vcyoxv06
p1
I1
sVd37cnma
p2
I1
s.(dp0
Vcyoxv06
p1
I1
sVd3ifgxp
p2
I1
s.(dp0
Vcyoxv06
p1
I1
sVd3ijo6p
p2
I1
s.(dp0
Vcyoxv06
p1
I1
sVd3k995x
p2
I1
s.(dp0
Vcyoxv06
p1
I1
sVd3y39o0
p2
I1
s.(dp0
Vcyoxv06
p1
I1
sVd41e5o5
p2
I1
s.(dp0
Vcyoxv06
p1
I1
sVd45yhcb
p2
I1
s.(dp0
Vcyoxv06
p1
I1
sVd45yhcb
p2
I1
s.(dp0
Vcyoxv06
p1
I1
sVd4mnb9k
p2
I1
s.(dp0
Vcyoxv06
p1
I1
sVd59sbs7
p2
I1
s.(dp0
Vcyoxv06
p1
I1
sVd5k5ggr
p2
I1
s.(dp0
Vcyoxv06
p1
I1
sVd5kel5a
p2
I1
s.(dp0
Vcyoxv06
p1
I1
sVd75h6fc
p2
I1
s.(dp0
Vcyoxv06
p1
I1
sVd7lfryj
p2
I1
s.(dp0
Vcyoxv06
p1
I1
sVd7non39
p2
I1
s.(dp0
Vcyoxv06
p1
I1
sVd7nqzhr
p2
I1
s.(dp0
Vcyoxv06
p1
I1
sVd7nqzhr
p2
I1
s.(dp0
Vcyoxv06
p1
I1
sVd7ohe0o
p2
I1
s.(dp0
Vcyoxv06
p1
I1
sVd7ohe0o
p2
I1
s.(dp0
Vcyoxv06
p1
I1
sVd7ohe0o
p2
I1
s.(dp0
Vcyoxv06
p1
I1
sVd8zsgyn
p2
I1
s.(dp0
Vcyoxv06
p1
I1
sVd97jh5p
p2
I1
s.(dp0
Vcyoxv06
p1
I1
sVd97jh5p
p2
I1
s.(dp0
Vcyoxv06
p1
I1
sVda2u4uq
p2
I1
s.(dp0
Vcyoxv06
p1
I1
sVdbgpl6x
p2
I1
s.(dp0
Vcyoxv06
p1
I1
sVdbgu9of
p2
I1
s.(dp0
Vcyoxv06
p1
I1
sVdbo2g38
p2
I1
s.(dp0
Vcyoxv06
p1
I1
sVdbpy88w
p2
I1
s.(dp0
Vcyoxv06
p1
I1
sVdcj9khr
p2
I1
s.(dp0
Vcyoxv06
p1
I1
sVdco8f50
p2
I1
s.(dp0
Vcyoxv06
p1
I1
sVdcribw5
p2
I1
s.(dp0
Vcyoxv06
p1
I1
sVddcm4u4
p2
I1
s.(dp0
Vcyoxv06
p1
I1
sVddexsp0
p2
I1
s.(dp0
Vcyoxv06
p1
I1
sVddjw94a
p2
I1
s.(dp0
Vcyoxv06
p1
I1
sVde2x9w1
p2
I1
s.(dp0
Vcyoxv06
p1
I1
sVdepvq7o
p2
I1
s.(dp0
Vcyoxv06
p1
I1
sVdf5141z
p2
I1
s.(dp0
Vcyoxv06
p1
I1
sVdf6xeiq
p2
I1
s.(dp0
Vcyoxv06
p1
I1
sVdfpym0i
p2
I1
s.(dp0
Vcyoxv06
p1
I1
sVdftyfq8
p2
I1
s.(dp0
Vcyoxv06
p1
I1
sVdh1d76m
p2
I1
s.(dp0
Vcyoxv06
p1
I1
sVdh7wv7z
p2
I1
s.(dp0
Vcyoxv06
p1
I1
sVdh7wv7z
p2
I1
s.(dp0
Vcyoxv06
p1
I1
sVdi4ev2r
p2
I1
s.(dp0
Vcyoxv06
p1
I1
sVdiqcerc
p2
I1
s.(dp0
Vcyoxv06
p1
I1
sVdjbypzq
p2
I1
s.(dp0
Vcyoxv06
p1
I1
sVdjkpv4i
p2
I1
s.(dp0
Vcyoxv06
p1
I1
sVdk1igox
p2
I1
s.(dp0
Vcyoxv06
p1
I1
sVdktxfyl
p2
I1
s.(dp0
Vcyoxv06
p1
I1
sVdkymq3i
p2
I1
s.(dp0
Vcyoxv06
p1
I1
sVdkzn4a0
p2
I1
s.(dp0
Vcyoxv06
p1
I1
sVdmulegd
p2
I1
s.(dp0
Vcyoxv06
p1
I1
sVdn94x16
p2
I1
s.(dp0
Vcyoxv06
p1
I1
sVdny5wbe
p2
I1
s.(dp0
Vcyoxv06
p1
I1
sVdoi6ax3
p2
I1
s.(dp0
Vcyoxv06
p1
I1
sVdpavaw9
p2
I1
s.(dp0
Vcyoxv06
p1
I1
sVdqjtjiq
p2
I1
s.(dp0
Vcyoxv06
p1
I1
sVdqjtle7
p2
I1
s.(dp0
Vcyoxv06
p1
I1
sVdqzg8u9
p2
I1
s.(dp0
Vcyoxv06
p1
I1
sVdriv6pe
p2
I1
s.(dp0
Vcyoxv06
p1
I1
sVdsr6rz4
p2
I1
s.