(dp0
Vdhl9e7u
p1
I1
sVd1q1ftk
p2
I1
sVd97lh9d
p3
I1
sVd1zcjif
p4
I1
sVd5xvsoa
p5
I1
sVdqvfzhx
p6
I1
sVddbwo3q
p7
I1
sVda0yjwt
p8
I1
sVd1045gq
p9
I1
sVd2lcusx
p10
I1
sVd6e8dy1
p11
I1
sVdottszt
p12
I1
sVdkg14im
p13
I1
sVcyje1xg
p14
I1
sVdnw0acl
p15
I1
sVd4rq8ep
p16
I1
sVd0ouv8o
p17
I1
sVde1bbj1
p18
I1
sVdiuoffh
p19
I1
sVdjk3cah
p20
I1
sVd9ly8to
p21
I1
sVcyuuh4w
p22
I2
sVdbvnvb4
p23
I1
sVdojqg3f
p24
I1
sVdsvk2mv
p25
I1
sVd09c3iw
p26
I1
sVdd6gxxf
p27
I1
sVd0fjksy
p28
I1
sVdcujw16
p29
I1
sVd8eykqi
p30
I1
sVd2rpy6y
p31
I1
sVdmodvy4
p32
I1
sVd7y3ubk
p33
I1
sVdg22e5d
p34
I1
sVdgd5fr6
p35
I1
sVdnw664m
p36
I1
sVdbiw6qb
p37
I1
sVddguhx0
p38
I1
sVd4xflw6
p39
I1
sVd571g06
p40
I1
sVd33zxec
p41
I1
sVdjxhmyo
p42
I1
sVdh9vzsa
p43
I1
sVd8tpajd
p44
I1
sVd69eq0l
p45
I1
sVd1n7bhr
p46
I1
sVcz7rngp
p47
I1
sVd4aoy7e
p48
I1
sVd7cn5ir
p49
I1
sVczlybgr
p50
I1
sVdfblbxw
p51
I1
sVdel9iix
p52
I1
sVda6nhbq
p53
I1
sVdc1kdoa
p54
I1
sVdfb3a9e
p55
I2
sVd2escls
p56
I1
sVddcofgk
p57
I1
sVdaueoxq
p58
I1
sVdcij285
p59
I2
sVde0uuqu
p60
I1
sVde0sdc5
p61
I1
sVd4rxejn
p62
I1
sVd05npnx
p63
I1
sVd0rr1yy
p64
I1
sVd68r3n3
p65
I1
sVdbpfw9p
p66
I1
sVczi9gxo
p67
I1
sVd2hoi0h
p68
I1
sVd50l0z8
p69
I1
sVdhfohrv
p70
I1
sVd10uzp9
p71
I1
sVdf2585v
p72
I1
sVd6eiks7
p73
I1
sVdnzrv5c
p74
I1
sVd6ptchg
p75
I1
sVdhqltv1
p76
I1
sVd39ua0j
p77
I1
sVd9xo7av
p78
I1
sVczf4nlh
p79
I1
sVdba12d6
p80
I1
sVcymp21r
p81
I1
sVd09d5w1
p82
I1
sVdc7mv2n
p83
I1
sVd62o65b
p84
I1
sVdqapffm
p85
I1
sVd5mf3e4
p86
I2
sVd1f1vha
p87
I1
sVdh52s4f
p88
I1
s.