(dp0
Vcyizlsu
p1
I1
s.(dp0
Vcyizlsu
p1
I1
sVcyjhsuf
p2
I1
s.(dp0
Vcyizlsu
p1
I1
sVcykkcus
p2
I1
s.(dp0
Vcyizlsu
p1
I1
sVcykn9lm
p2
I1
s.(dp0
Vcyizlsu
p1
I1
sVcylfdwp
p2
I1
s.(dp0
Vcyizlsu
p1
I1
sVcylzts4
p2
I1
s.(dp0
Vcyizlsu
p1
I1
sVcyornea
p2
I1
s.(dp0
Vcyizlsu
p1
I1
sVcyrtf3y
p2
I1
s.(dp0
Vcyizlsu
p1
I1
sVcyrwq56
p2
I1
s.(dp0
Vcyizlsu
p1
I1
sVcys2ndu
p2
I1
s.(dp0
Vcyizlsu
p1
I1
sVcys3esl
p2
I1
s.(dp0
Vcyizlsu
p1
I1
sVcyww23e
p2
I1
s.(dp0
Vcyizlsu
p1
I1
sVcyxaed3
p2
I1
s.(dp0
Vcyizlsu
p1
I1
sVcz398yu
p2
I1
s.(dp0
Vcyizlsu
p1
I1
sVcz75ebp
p2
I1
s.(dp0
Vcyizlsu
p1
I1
sVcz79dwo
p2
I1
s.(dp0
Vcyizlsu
p1
I1
sVcz9uqi8
p2
I1
s.(dp0
Vcyizlsu
p1
I1
sVczdg5so
p2
I1
s.(dp0
Vcyizlsu
p1
I1
sVczdkqpo
p2
I1
s.(dp0
Vcyizlsu
p1
I1
sVczdvuao
p2
I1
s.(dp0
Vcyizlsu
p1
I1
sVczeyo93
p2
I1
s.(dp0
Vcyizlsu
p1
I1
sVczf6msu
p2
I1
s.(dp0
Vcyizlsu
p1
I1
sVczf81g7
p2
I1
s.(dp0
Vcyizlsu
p1
I1
sVczf81g7
p2
I1
s.(dp0
Vcyizlsu
p1
I1
sVczf81g7
p2
I1
s.(dp0
Vcyizlsu
p1
I1
sVczf81g7
p2
I1
s.(dp0
Vcyizlsu
p1
I1
sVczf81g7
p2
I1
s.(dp0
Vcyizlsu
p1
I1
sVczf81g7
p2
I1
s.(dp0
Vcyizlsu
p1
I1
sVczge47q
p2
I1
s.(dp0
Vcyizlsu
p1
I1
sVczh5afb
p2
I1
s.(dp0
Vcyizlsu
p1
I1
sVczhvzbz
p2
I1
s.(dp0
Vcyizlsu
p1
I1
sVczhvzbz
p2
I1
s.(dp0
Vcyizlsu
p1
I1
sVczhwml7
p2
I1
s.(dp0
Vcyizlsu
p1
I1
sVczhzppn
p2
I1
s.(dp0
Vcyizlsu
p1
I1
sVczs7ajx
p2
I1
s.(dp0
Vcyizlsu
p1
I1
sVd0003xh
p2
I1
s.(dp0
Vcyizlsu
p1
I1
sVd01fge5
p2
I1
s.(dp0
Vcyizlsu
p1
I1
sVd01gz7u
p2
I1
s.(dp0
Vcyizlsu
p1
I1
sVd01gz7u
p2
I1
s.(dp0
Vcyizlsu
p1
I1
sVd01lvz6
p2
I1
s.(dp0
Vcyizlsu
p1
I1
sVd01zu72
p2
I1
s.(dp0
Vcyizlsu
p1
I1
sVd02s39o
p2
I1
s.(dp0
Vcyizlsu
p1
I1
sVd04ursl
p2
I1
s.(dp0
Vcyizlsu
p1
I1
sVd09idnx
p2
I1
s.(dp0
Vcyizlsu
p1
I1
sVd09idnx
p2
I1
s.(dp0
Vcyizlsu
p1
I1
sVd09wnog
p2
I1
s.(dp0
Vcyizlsu
p1
I1
sVd0fgc8x
p2
I1
s.(dp0
Vcyizlsu
p1
I1
sVd0hzh6m
p2
I1
s.(dp0
Vcyizlsu
p1
I1
sVd0i0hvf
p2
I1
s.(dp0
Vcyizlsu
p1
I1
sVd0i0hvf
p2
I1
s.(dp0
Vcyizlsu
p1
I1
sVd0i7hnt
p2
I1
s.(dp0
Vcyizlsu
p1
I1
sVd0k9fgg
p2
I1
s.(dp0
Vcyizlsu
p1
I1
sVd0lfywr
p2
I1
s.(dp0
Vcyizlsu
p1
I1
sVd0mlpqe
p2
I1
s.(dp0
Vcyizlsu
p1
I1
sVd0upnxr
p2
I1
s.(dp0
Vcyizlsu
p1
I1
sVd0upnxr
p2
I1
s.(dp0
Vcyizlsu
p1
I1
sVd0x8b1j
p2
I1
s.(dp0
Vcyizlsu
p1
I1
sVd0yi22x
p2
I1
s.(dp0
Vcyizlsu
p1
I1
sVd0z0x2t
p2
I1
s.(dp0
Vcyizlsu
p1
I1
sVd16hh30
p2
I1
s.(dp0
Vcyizlsu
p1
I1
sVd19hcmn
p2
I1
s.(dp0
Vcyizlsu
p1
I1
sVd1cfczh
p2
I1
s.(dp0
Vcyizlsu
p1
I1
sVd1l7w7w
p2
I1
s.(dp0
Vcyizlsu
p1
I1
sVd1n0m09
p2
I1
s.(dp0
Vcyizlsu
p1
I1
sVd1n0m09
p2
I1
s.(dp0
Vcyizlsu
p1
I1
sVd1n0m09
p2
I1
s.(dp0
Vcyizlsu
p1
I1
sVd1sl8xl
p2
I1
s.(dp0
Vcyizlsu
p1
I1
sVd1x4wnf
p2
I1
s.(dp0
Vcyizlsu
p1
I1
sVd21b5hb
p2
I1
s.(dp0
Vcyizlsu
p1
I1
sVd21y8s7
p2
I1
s.(dp0
Vcyizlsu
p1
I1
sVd22w3lk
p2
I1
s.(dp0
Vcyizlsu
p1
I1
sVd27o102
p2
I1
s.(dp0
Vcyizlsu
p1
I1
sVd29y1j9
p2
I1
s.(dp0
Vcyizlsu
p1
I1
sVd2f5482
p2
I1
s.(dp0
Vcyizlsu
p1
I1
sVd2f827z
p2
I1
s.(dp0
Vcyizlsu
p1
I1
sVd2fpa7a
p2
I1
s.(dp0
Vcyizlsu
p1
I1
sVd2lw5ty
p2
I1
s.(dp0
Vcyizlsu
p1
I1
sVd2mn3kw
p2
I1
s.(dp0
Vcyizlsu
p1
I1
sVd2ospop
p2
I1
s.(dp0
Vcyizlsu
p1
I1
sVd2s92zb
p2
I1
s.(dp0
Vcyizlsu
p1
I1
sVd2vnofd
p2
I1
s.(dp0
Vcyizlsu
p1
I1
sVd2x2tmt
p2
I1
s.(dp0
Vcyizlsu
p1
I1
sVd2xyi5k
p2
I1
s.(dp0
Vcyizlsu
p1
I1
sVd3016c4
p2
I1
s.(dp0
Vcyizlsu
p1
I1
sVd32zyt9
p2
I1
s.(dp0
Vcyizlsu
p1
I1
sVd35lpll
p2
I1
s.(dp0
Vcyizlsu
p1
I1
sVd374zv8
p2
I1
s.(dp0
Vcyizlsu
p1
I1
sVd37dqj9
p2
I1
s.(dp0
Vcyizlsu
p1
I1
sVd3h885c
p2
I1
s.(dp0
Vcyizlsu
p1
I1
sVd3kxrd8
p2
I1
s.(dp0
Vcyizlsu
p1
I1
sVd3qvifr
p2
I1
s.(dp0
Vcyizlsu
p1
I1
sVd3rnn23
p2
I1
s.(dp0
Vcyizlsu
p1
I1
sVd3ubpyx
p2
I1
s.(dp0
Vcyizlsu
p1
I1
sVd3wgd61
p2
I1
s.(dp0
Vcyizlsu
p1
I1
sVd3x242q
p2
I1
s.(dp0
Vcyizlsu
p1
I1
sVd3x242q
p2
I1
s.(dp0
Vcyizlsu
p1
I1
sVd3x242q
p2
I1
s.(dp0
Vcyizlsu
p1
I1
sVd3x3j8x
p2
I1
s.(dp0
Vcyizlsu
p1
I1
sVd3x3j8x
p2
I1
s.(dp0
Vcyizlsu
p1
I1
sVd3x3j8x
p2
I1
s.(dp0
Vcyizlsu
p1
I1
sVd3x3j8x
p2
I1
s.(dp0
Vcyizlsu
p1
I1
sVd3x3j8x
p2
I1
s.(dp0
Vcyizlsu
p1
I1
sVd3x3j8x
p2
I1
s.(dp0
Vcyizlsu
p1
I1
sVd3zctx4
p2
I1
s.(dp0
Vcyizlsu
p1
I1
sVd43tycw
p2
I1
s.(dp0
Vcyizlsu
p1
I1
sVd44ykzt
p2
I1
s.(dp0
Vcyizlsu
p1
I1
sVd47boej
p2
I1
s.(dp0
Vcyizlsu
p1
I1
sVd4hyeng
p2
I1
s.(dp0
Vcy(dp0
Vcyizlsu
p1
I1
sVdtdicve
p2
I1
s.