(dp0
Vczqa3lk
p1
I2
sVddmkeem
p2
I1
sVdawv18w
p3
I1
sVd6khj2o
p4
I1
sVdczll9u
p5
I1
sVd38p983
p6
I1
sVd1i30eb
p7
I1
sVd2ndzzi
p8
I1
sVd17szpg
p9
I1
sVdgng8kn
p10
I1
sVdbuevdr
p11
I1
sVdt42f5r
p12
I1
sVd3r0f87
p13
I1
sVdaspxjn
p14
I1
sVcyvwbkw
p15
I1
sVdop0use
p16
I1
sVd0m37vp
p17
I1
sVdeddh8l
p18
I1
sVd63qnxz
p19
I2
sVd7wa34c
p20
I1
sVd41zsdp
p21
I1
sVd8rrvhm
p22
I1
sVdgymn9w
p23
I1
sVd1fp3j4
p24
I1
sVdqamggo
p25
I1
sVcypteiq
p26
I1
sVdnznmen
p27
I1
sVdiuxvnu
p28
I2
sVcyxhycj
p29
I1
sVda6mb4u
p30
I1
sVdqr1qz6
p31
I1
sVcz4gya0
p32
I1
sVd3qvmx6
p33
I1
sVdt27wgy
p34
I1
sVczx5ree
p35
I3
sVdbnecgz
p36
I1
sVdg8i2ck
p37
I1
sVdgnqz8c
p38
I1
sVdnene7f
p39
I1
sVdha13dt
p40
I1
sVd5p8o7q
p41
I1
sVd1toupu
p42
I1
sVd2vbbi9
p43
I1
sVd2ryr3g
p44
I1
sVd57fgfs
p45
I1
sVcyz7zyl
p46
I1
sVcyxqb0q
p47
I1
sVdf2vz5i
p48
I2
sVd0h2qn0
p49
I1
sVd3ldgcf
p50
I1
sVdip2o0j
p51
I1
sVdcugx8b
p52
I1
sVdni4s0d
p53
I1
sVdioojt1
p54
I1
sVd5c49o8
p55
I1
sVdbitpub
p56
I1
sVdms9bd0
p57
I1
sVdf3c78f
p58
I1
sVd38np77
p59
I2
sVd9ccmbd
p60
I1
sVdoxz5aw
p61
I1
sVdhy7bl1
p62
I1
sVdecl4s5
p63
I1
sVd3n4c72
p64
I3
sVczndpne
p65
I1
sVdefu8gb
p66
I1
sVdsvf2tv
p67
I1
sVd1g2llz
p68
I2
sVd8n2k7m
p69
I2
sVdeo0s2h
p70
I1
sVd133ezy
p71
I1
sVdberivj
p72
I1
sVdon8hgg
p73
I1
sVdeuus5s
p74
I1
sVd5yhkvp
p75
I1
sVd8nhhuz
p76
I1
sVdcy9s71
p77
I1
sVdc0zd5o
p78
I1
sVd1upj2g
p79
I1
sVdfigebf
p80
I1
sVdad0yc9
p81
I1
sVdjle2r9
p82
I1
sVdh0yev6
p83
I1
sVd0psu5v
p84
I7
sVdc1jhgs
p85
I1
sVd0gdz1i
p86
I1
sVd5rhfr0
p87
I1
sVds2efdc
p88
I1
sVdoyc7kd
p89
I1
sVde0xv5z
p90
I1
sVd5j1qhb
p91
I1
sVdiu2hav
p92
I1
sVdav3qrs
p93
I1
sVdoz5ydi
p94
I1
sVdteph92
p95
I1
sVdcgis4y
p96
I1
sVczm1a39
p97
I1
sVdcetpgh
p98
I1
sVdkqzvzj
p99
I1
sVdgebtfs
p100
I1
sVd28xw75
p101
I3
sVdd3p869
p102
I1
sVd0lmbii
p103
I1
sVdk2muqp
p104
I1
sVdel4aok
p105
I1
sVczkayj5
p106
I1
sVdb3fita
p107
I2
sVd0awj2y
p108
I2
sVdkx30q7
p109
I1
sVdicu6qj
p110
I1
sVdpmljul
p111
I1
sVd93nqm6
p112
I1
sVd13vjn4
p113
I1
sVczrgo58
p114
I1
sVdd3fo0t
p115
I1
sVd8s4cn8
p116
I1
sVczc1km5
p117
I1
sVdecamr7
p118
I1
sVdtdk73n
p119
I1
sVd09aba7
p120
I1
sVd695hss
p121
I1
sVdohxxve
p122
I1
sVd6403hv
p123
I6
sVd25bbia
p124
I1
sVdbpijv4
p125
I1
sVd6ht7s1
p126
I1
sVdctjo1u
p127
I1
sVd0vjco9
p128
I1
sVdh0k3bn
p129
I1
sVdctbweq
p130
I2
sVd81h823
p131
I1
sVcyy1sso
p132
I1
sVd27dnif
p133
I1
sVddo7art
p134
I1
sVds3flfd
p135
I2
sVdg008tj
p136
I1
sVdbf37oc
p137
I1
sVdaej4vi
p138
I1
sVd9b7tr2
p139
I1
sVd3m7do2
p140
I1
sVdgqf9tk
p141
I1
sVd64200a
p142
I1
sVd71fil7
p143
I2
sVd7g2g01
p144
I1
sVdk8frn9
p145
I1
sVdnwn4zr
p146
I2
sVdera750
p147
I1
sVdqg54nb
p148
I1
sVd596nu5
p149
I1
sVd07o6v8
p150
I2
sVddqupe4
p151
I1
sVd1ftusm
p152
I1
sVd31o2r2
p153
I1
sVdjscgrg
p154
I2
sVdnk9l1h
p155
I3
sVd7qeufh
p156
I1
sVddbwhp4
p157
I1
sVd0pq6g5
p158
I1
sVd8gbn5w
p159
I1
sVdhmwbzc
p160
I1
sVdoelwxc
p161
I2
sVdowz073
p162
I1
sVda0u7fw
p163
I1
sVczb6hng
p164
I2
sVd11l4uv
p165
I1
sVdcvp8os
p166
I1
sVdd6423z
p167
I1
sVdewu1s3
p168
I1
sVdka3x7m
p169
I2
sVd7jjrep
p170
I1
sVd49oo7a
p171
I1
sVd18qut7
p172
I1
sVde2ltjz
p173
I1
sVdbplcgh
p174
I1
sVd7tcfb6
p175
I1
sVdhhgh39
p176
I1
sVdh665xq
p177
I1
sVd7qffba
p178
I2
sVd3jlpa8
p179
I1
sVdhl8ct8
p180
I1
sVczkqzco
p181
I1
sVd1p4ge9
p182
I1
sVd6g2qx3
p183
I1
sVdnvse33
p184
I1
sVdfwlj57
p185
I3
sVd67sbik
p186
I1
sVcyqtjs6
p187
I1
sVd5p6835
p188
I1
sVd2b1ilh
p189
I1
sVd54gmcj
p190
I1
sVdgv3efj
p191
I1
sVcyt4gdi
p192
I3
sVdbqrau6
p193
I1
sVd3wq6ao
p194
I1
sVdhl9o63
p195
I1
sVdd1f0p4
p196
I1
sVdf9b6lq
p197
I1
sVdju6bcu
p198
I1
sVd5rr8yg
p199
I1
sVdauivtx
p200
I1
sVd25kmem
p201
I1
sVdn4hgo4
p202
I2
sVdojg4ih
p203
I1
sVd9tn1to
p204
I1
sVdhfv4nr
p205
I1
sVd63qorr
p206
I1
sVdec3p3g
p207
I1
sVdda5q0l
p208
I2
sVdjfodff
p209
I2
sVd4attla
p210
I1
sVdd4ye15
p211
I1
sVd36ffrs
p212
I1
sVcyj65jf
p213
I1
sVdbpxz14
p214
I1
sVcz4wn5n
p215
I1
sVdbvteyr
p216
I1
sVd8c1f7o
p217
I1
sVd66oavg
p218
I1
sVd8wbuj8
p219
I1
sVd9clxl3
p220
I2
sVd7feize
p221
I1
sVd2kdsvy
p222
I1
sVd6knjdy
p223
I1
sVdqhx4mv
p224
I1
sVdstxwmd
p225
I1
sVdd20jrv
p226
I2
sVdquytyi
p227
I2
sVd5w84rf
p228
I1
sVd3ghotb
p229
I1
sVdmskz7h
p230
I1
sVdk9197u
p231
I1
sVdkft57k
p232
I1
sVdot88jd
p233
I1
sVdni2cng
p234
I1
sVd5og016
p235
I1
sVd7slg3w
p236
I1
sVdqgkhe4
p237
I1
sVda8777y
p238
I1
sVdtbv5tm
p239
I1
sVd0pwi12
p240
I4
sVdd6mnio
p241
I1
sVd9dcbfk
p242
I1
sVdft9mo9
p243
I1
sVdf3bl3m
p244
I4
sVd07v3q3
p245
I1
sVcyx54dv
p246
I1
sVd1tmgfu
p247
I1
sVd0psmid
p248
I3
sVdsts1ss
p249
I1
sVd0b7982
p250
I1
sVdk015hd
p251
I1
sVd3x49h5
p252
I1
sVdaxtxa1
p253
I1
sVdbu51nu
p254
I1
sVcyj3muf
p255
I1
sVd2o5et9
p256
I1
sVd9tn967
p257
I1
sVdro48rs
p258
I1
sVcyx5ms7
p259
I2
sVdgd3w6b
p260
I1
sVd2dxe8m
p261
I1
sVd7n1lvb
p262
I1
sVd5f3fau
p263
I1
sVd99coov
p264
I1
sVd3ui348
p265
I1
sVcywtahg
p266
I1
sVd25h8q7
p267
I1
sVd015vii
p268
I2
sVczm23gm
p269
I4
sVd0qmj5d
p270
I1
sVd4kaqlq
p271
I1
sVdcy9ndf
p272
I1
sVdd5jupk
p273
I1
sVdet6o10
p274
I1
sVd7xh92i
p275
I1
sVdhqnspv
p276
I1
sVd0xz4tg
p277
I1
sVdhxdkj1
p278
I1
sVdir50x5
p279
I1
sVdkmxm0f
p280
I1
sVdf6jbxt
p281
I1
sVd89g9d2
p282
I1
sVczzyfpp
p283
I1
sVd4kfj4g
p284
I1
sVdf0bep6
p285
I1
sVdnd5hmk
p286
I1
sVdaub6ep
p287
I1
sVd5asy9i
p288
I1
sVd5jmb0v
p289
I1
sVcyncmwb
p290
I1
sVdkop1u0
p291
I1
sVd62gkyh
p292
I1
sVdfbn3rj
p293
I1
sVd8gwyml
p294
I2
sVdgsju1c
p295
I1
sVdi9xf4p
p296
I1
sVd48hrwx
p297
I1
sVdb1c4m0
p298
I1
sVdafcn9g
p299
I1
sVd84ccy0
p300
I1
sVd639mhk
p301
I1
sVdb0h68a
p302
I1
sVd9kdil5
p303
I1
sVd45mtqz
p304
I2
sVdih8lpd
p305
I1
sVd5boqki
p306
I1
sVd11o0h4
p307
I1
sVczhdlg4
p308
I1
sVdmnab9u
p309
I1
sVczwl11e
p310
I3
sVdceyv9i
p311
I1
sVd9iqr57
p312
I1
sVd3p67mf
p313
I1
sVd6wklpu
p314
I1
sVddtlhpz
p315
I1
sVdf212kq
p316
I1
sVd3ep4vr
p317
I1
sVd62dhcr
p318
I1
sVd9t9lmz
p319
I1
sVd455abt
p320
I1
sVd2572fk
p321
I1
sVdkfzudl
p322
I1
sVd4512zc
p323
I1
sVdif52i1
p324
I2
s.