(dp0
Vd03bhwd
p1
I1
s.(dp0
Vd03bhwd
p1
I1
sVd1tw9nl
p2
I1
s.(dp0
Vd6r1d1d
p1
I1
sVd03bhwd
p2
I1
s.(dp0
Vd03bhwd
p1
I1
sVd7eat35
p2
I1
s.(dp0
Vd03bhwd
p1
I1
sVd7eat35
p2
I1
s.(dp0
Vd03bhwd
p1
I1
sVd7eat35
p2
I1
s.(dp0
Vd7eiifa
p1
I1
sVd03bhwd
p2
I1
s.(dp0
Vd7eiifa
p1
I1
sVd03bhwd
p2
I1
s.(dp0
Vd7ezdjd
p1
I1
sVd03bhwd
p2
I1
s.(dp0
Vd7sk6o9
p1
I1
sVd03bhwd
p2
I1
s.(dp0
Vd03bhwd
p1
I1
sVd8d8d2r
p2
I1
s.(dp0
Vdfy6ket
p1
I1
sVd03bhwd
p2
I1
s.(dp0
Vd03bhwd
p1
I1
sVdfycvl3
p2
I1
s.(dp0
Vd03bhwd
p1
I1
sVdij40bi
p2
I1
s.(dp0
Vd03bhwd
p1
I1
sVdij40bi
p2
I1
s.(dp0
Vdjwyzti
p1
I1
sVd03bhwd
p2
I1
s.(dp0
Vdkqjupb
p1
I1
sVd03bhwd
p2
I1
s.(dp0
Vdnd9bmf
p1
I1
sVd03bhwd
p2
I1
s.(dp0
Vdpp1evl
p1
I1
sVd03bhwd
p2
I1
s.