(dp0
Vdpp1evl
p1
I1
sVdfycvl3
p2
I1
sVd03bhwd
p3
I1
sVd7eiifa
p4
I2
sVdjwyzti
p5
I1
sVdij40bi
p6
I2
sVdnd9bmf
p7
I1
sVd6r1d1d
p8
I1
sVdkqjupb
p9
I1
sVdfy6ket
p10
I1
sVd7ezdjd
p11
I1
sVd7eat35
p12
I3
sVd7sk6o9
p13
I1
sVd1tw9nl
p14
I1
sVd8d8d2r
p15
I1
s.