(dp0
Vdeity9o
p1
I1
sVd6m4mxi
p2
I1
sVdiryvvk
p3
I1
sVddrkuk4
p4
I1
sVd0l1hpb
p5
I1
sVd2gah19
p6
I1
sVdq21hfi
p7
I1
sVdpws1q0
p8
I1
sVdgqu88i
p9
I1
sVdoj1ncn
p10
I2
sVd19veao
p11
I1
sVd0nwbin
p12
I1
s.