(dp0
Vdjw12cv
p1
I1
sVdj837in
p2
I1
sVdjqn43t
p3
I1
sVdarqctm
p4
I1
sVd2okmm7
p5
I2
sVd65m1c3
p6
I1
sVd5ax1dr
p7
I1
sVdsbx8dz
p8
I1
sVd9a44fe
p9
I1
sVd6bhaaw
p10
I2
sVd49011q
p11
I2
sVdcbc94z
p12
I1
s.