(dp0
Vd40qzdb
p1
I1
sVd0nncbc
p2
I1
sVd3kee1b
p3
I1
sVdce4bvg
p4
I1
sVdatu8wc
p5
I1
sVd0o2z7c
p6
I1
sVd9ko4rw
p7
I1
sVdenyh8u
p8
I1
sVddbtf3t
p9
I1
sVd47at3m
p10
I1
sVdb0owb0
p11
I3
sVddfh3qe
p12
I1
sVdbapqcq
p13
I1
sVczyr72g
p14
I1
sVddn58n7
p15
I1
sVdd53rep
p16
I1
sVd6viola
p17
I1
sVdhxdkj1
p18
I1
s.