(dp0
Vd4ym743
p1
I1
s.(dp0
Vd4ym743
p1
I2
s.(dp0
Vd4ym743
p1
I2
s.(dp0
Vddpumop
p1
I1
sVd4ym743
p2
I1
s.(dp0
Vde0yk06
p1
I1
sVd4ym743
p2
I1
s.(dp0
Vde0yk06
p1
I1
sVd4ym743
p2
I1
s.(dp0
Vde0yk06
p1
I1
sVd4ym743
p2
I1
s.