(dp0
Vczhadgp
p1
I1
sVd49fq6u
p2
I1
sVdkirty6
p3
I1
sVd4mrbwf
p4
I1
sVd5jvbs3
p5
I1
sVdgghfei
p6
I1
sVdhey7ry
p7
I1
sVdgio3aj
p8
I1
sVdidt1uf
p9
I1
sVddoz9rp
p10
I1
sVdb1wluy
p11
I1
sVdf7y8re
p12
I1
sVd233gxs
p13
I1
sVczhbq5a
p14
I1
sVdeis7b8
p15
I1
sVdo95b3y
p16
I1
sVdbmy2ss
p17
I1
sVdasfag4
p18
I1
sVdacvddx
p19
I1
sVd7rcqgl
p20
I1
sVdby62dp
p21
I2
sVdggxln5
p22
I1
sVcyk061r
p23
I1
sVdacgefx
p24
I1
sVdresei0
p25
I1
sVdmuwa2n
p26
I1
sVdsf4wjm
p27
I1
sVd0batvt
p28
I1
sVdei1bi6
p29
I2
sVd61nmf7
p30
I1
sVczgu2pu
p31
I1
s.