(dp0
Vd0aan2o
p1
I1
sVdk2nhy7
p2
I1
sVd9rbxit
p3
I1
sVdbziurr
p4
I1
sVdarkotp
p5
I1
sVd7sv0bp
p6
I1
sVd6abc7e
p7
I1
sVdbmk95e
p8
I1
sVd180dut
p9
I1
sVdhn93p4
p10
I1
sVcypdk0v
p11
I1
sVd204nzf
p12
I1
sVd3cks07
p13
I2
sVdplzo9s
p14
I1
sVdbmxauw
p15
I2
sVddngcif
p16
I1
sVdgcxx30
p17
I1
sVd73yxhx
p18
I1
sVdrnf9kf
p19
I1
sVd1umh6l
p20
I1
sVddyjoos
p21
I1
sVdbmessy
p22
I1
sVdrdmy0x
p23
I1
sVd0ffq5r
p24
I1
sVdsxtams
p25
I1
sVdf1plq8
p26
I1
sVder75ww
p27
I1
sVcz5cl2q
p28
I1
sVderc9ao
p29
I1
sVdszv0qv
p30
I1
sVdcgv9zn
p31
I1
sVddiszg7
p32
I1
sVdits5p5
p33
I1
sVdndnkph
p34
I1
sVd1qe3vp
p35
I1
sVde4bgpa
p36
I1
sVdt8v8tw
p37
I1
sVddjttff
p38
I1
sVddcxxr5
p39
I1
sVdr5i940
p40
I1
sVd9d5pse
p41
I1
sVdmwhidl
p42
I2
sVdcvmikh
p43
I1
sVdcpja76
p44
I1
sVdja3ocf
p45
I1
sVdb073in
p46
I1
sVd8y4ifc
p47
I1
sVdguqrwk
p48
I1
sVd7n1r6n
p49
I1
sVdmyoe5n
p50
I1
sVdg8jjt2
p51
I1
sVdbaq9kk
p52
I1
sVdeidmkc
p53
I1
sVddcsv02
p54
I1
sVd84dx7z
p55
I1
sVcz5mczt
p56
I1
sVcyr748i
p57
I1
sVcypke92
p58
I1
sVd4nf4yo
p59
I1
sVdfnmch6
p60
I1
sVd9dl9a6
p61
I1
sVdi0rolz
p62
I2
sVczuc9d3
p63
I1
sVdnvlo03
p64
I1
sVdcs6qf6
p65
I1
sVdip8m4m
p66
I1
sVdcvu21g
p67
I1
sVd1r49pu
p68
I1
sVd05zfr3
p69
I1
sVdanamsp
p70
I1
sVd35h49i
p71
I1
sVd0z7a0c
p72
I1
sVd7nbmlm
p73
I1
sVdqb4gzh
p74
I1
sVdkpfay6
p75
I1
sVdjb2czb
p76
I1
sVd7pp16p
p77
I1
sVdj4gb98
p78
I1
sVdansqst
p79
I1
sVddfo9pb
p80
I1
sVczqg8t2
p81
I1
sVdbmg0a6
p82
I1
sVdb410qk
p83
I1
sVd37mge1
p84
I1
sVd0nbg0a
p85
I1
sVda24iyt
p86
I1
sVdo7wcgq
p87
I1
sVd0m9e2t
p88
I1
sVd1c9qsd
p89
I1
sVd3xgvn1
p90
I1
sVdfq41ev
p91
I1
sVd1912pq
p92
I1
sVdh8ffwo
p93
I1
sVd343xel
p94
I1
sVd4tc0lx
p95
I1
sVdbnetpl
p96
I1
sVddlpzyd
p97
I1
sVd0hry50
p98
I2
sVd3ocu7s
p99
I1
sVdbxregc
p100
I1
sVdf5en85
p101
I1
sVd3uspzo
p102
I1
sVdkp6nhf
p103
I1
sVdopni6w
p104
I1
sVd8er3gr
p105
I1
sVdg1corz
p106
I1
sVd6pagu8
p107
I1
sVd32rli5
p108
I1
sVddmkeem
p109
I1
sVda5i3lr
p110
I1
sVdk48ecr
p111
I2
sVddklas0
p112
I1
sVd2o3luj
p113
I1
sVczdrt69
p114
I1
sVddeghpc
p115
I1
sVdbr55f6
p116
I1
sVdaa4lsi
p117
I1
sVdgy6r9s
p118
I1
sVdcuswoh
p119
I1
sVde1tua9
p120
I1
sVd279bps
p121
I1
sVd2sdw0p
p122
I1
sVdcdh2th
p123
I1
sVdbtujba
p124
I1
sVd19urti
p125
I1
sVdpr148f
p126
I1
sVdht1l3d
p127
I1
sVdj4qxhj
p128
I1
sVd4v1f9m
p129
I1
sVd8nnkoe
p130
I1
sVdbpd6t2
p131
I1
sVd00nyaa
p132
I1
sVd400jqq
p133
I1
sVdsftyuv
p134
I1
sVdc16600
p135
I1
sVdex1tm4
p136
I1
sVcyv56yn
p137
I1
sVddmc5ro
p138
I1
sVd8bt6du
p139
I1
sVdhdgy80
p140
I1
sVd5vpghx
p141
I1
sVdbie55s
p142
I1
sVd0787nk
p143
I1
sVddt8eha
p144
I1
sVd3wnv7g
p145
I1
sVdq2zdnj
p146
I1
sVdcg5yzg
p147
I1
sVda175w8
p148
I1
sVdig3izz
p149
I1
sVd76lhg0
p150
I1
sVd0of2qd
p151
I1
sVczmfihq
p152
I1
sVczvqwql
p153
I1
sVcz9xjvs
p154
I2
sVdb5fg3r
p155
I1
sVdekw9fv
p156
I1
sVdti2ogv
p157
I1
sVdrftjo2
p158
I1
sVdjfpz8l
p159
I1
sVd5qb1v2
p160
I1
sVd9h5hbj
p161
I1
sVd2bzmzr
p162
I1
sVdkxz66n
p163
I1
sVdj2j94m
p164
I1
sVd8p5mdi
p165
I1
sVddivbdu
p166
I1
sVdfwnawj
p167
I1
sVdia6xzb
p168
I1
sVdiq7qte
p169
I1
sVdnu8ulf
p170
I1
sVdg68imf
p171
I1
sVd0kvdtq
p172
I1
sVd675vcy
p173
I1
sVdhnqrhb
p174
I1
sVdqas9mx
p175
I1
sVdhxb7uc
p176
I1
sVd68t4iu
p177
I1
sVdg9xsdt
p178
I1
sVd4wab1f
p179
I1
sVdtf2mtl
p180
I1
sVd8qtvax
p181
I1
sVd6i21g9
p182
I1
sVdooh650
p183
I1
sVdjg56up
p184
I1
sVdisd69n
p185
I1
sVd10uzp9
p186
I1
sVdcaeie3
p187
I2
sVd69wv29
p188
I1
sVd5zf09v
p189
I1
sVdn00xqd
p190
I1
sVdb5ndu3
p191
I1
sVd58slkc
p192
I1
sVdbecre6
p193
I1
sVde08z6u
p194
I2
sVdazr8vk
p195
I1
sVdfdf7q1
p196
I1
sVd9fzquu
p197
I1
sVdbq77gy
p198
I1
sVd5d720b
p199
I1
sVdhuhx32
p200
I1
sVdjcmijn
p201
I1
sVdehlge1
p202
I1
sVdslbm6q
p203
I1
sVddwtrs9
p204
I1
sVdiugr0o
p205
I1
sVdiyjur5
p206
I1
sVd86ysvw
p207
I2
sVcyk0180
p208
I1
sVd9kdil5
p209
I1
sVda9i1yg
p210
I1
sVdnnkzys
p211
I1
sVd482wn8
p212
I1
sVdf564tn
p213
I1
sVdcxsq8y
p214
I1
sVd01pwbc
p215
I1
sVdacgl5y
p216
I1
sVd8mi45c
p217
I1
sVdie1dwu
p218
I1
sVczn1goj
p219
I1
sVdkrkmii
p220
I1
sVd0bv0nd
p221
I1
s.