(dp0
Vd1qo2bb
p1
I2
sVdmqqwz9
p2
I1
sVdsk76ak
p3
I1
sVd970vah
p4
I1
sVdag4xb9
p5
I1
sVd4we498
p6
I1
sVd4sypuz
p7
I1
sVdr2szu5
p8
I1
sVd9j4f61
p9
I1
sVdivroq5
p10
I6
sVd0hpigl
p11
I1
sVdk2sd4y
p12
I1
sVdj6tist
p13
I1
sVdoona90
p14
I1
sVdqejlqw
p15
I3
sVd528ar9
p16
I2
sVdqk2v3y
p17
I1
sVd6u38jm
p18
I1
sVdsehwcu
p19
I1
sVd1n5qmb
p20
I1
sVdf7yeu1
p21
I1
sVdb5af3k
p22
I1
sVd1xk332
p23
I1
sVdhdaxra
p24
I1
sVd6tgrqr
p25
I1
sVd25r126
p26
I2
sVdkbdery
p27
I2
sVd2gxc26
p28
I4
sVd6k3o8f
p29
I1
sVczn3033
p30
I1
sVdqgrvf8
p31
I1
sVdra3h9x
p32
I1
sVdsfg1cm
p33
I1
sVd7ckucm
p34
I2
sVd8kbctn
p35
I1
sVdc06xx0
p36
I1
sVdraf2ue
p37
I4
sVdfj6v91
p38
I1
sVdqb6le0
p39
I2
sVd1vqqih
p40
I1
sVdbetitl
p41
I1
sVdnhniv2
p42
I1
sVcysk5an
p43
I1
sVdj4n55g
p44
I1
sVd1u6ifi
p45
I3
sVdp2aoij
p46
I2
sVd38dksp
p47
I1
sVdo8yde5
p48
I1
sVdbimsim
p49
I1
sVd21akes
p50
I1
sVdcbeure
p51
I2
sVd2sidn1
p52
I1
sVdpwco8y
p53
I3
sVczvil36
p54
I1
sVdr85pdw
p55
I2
sVdg3gj19
p56
I1
sVdpc009o
p57
I1
sVdnai0g3
p58
I1
sVde8sxm3
p59
I1
sVdrwj366
p60
I1
sVd6srzab
p61
I1
sVddzdetp
p62
I1
sVd7wigep
p63
I1
sVdjwjoab
p64
I1
sVdjnrkif
p65
I1
sVd08bb95
p66
I1
sVdh9u6kt
p67
I1
sVdsepz9d
p68
I2
sVdrqu58s
p69
I1
sVdjggvin
p70
I1
sVd84vg2j
p71
I1
sVdmosd7r
p72
I1
sVd3hwhiv
p73
I1
sVdonlrln
p74
I2
sVdjif0mn
p75
I1
sVdsqe5y6
p76
I1
sVd3xg6kf
p77
I1
sVdb73t7v
p78
I1
sVczes83j
p79
I1
sVddzarah
p80
I2
sVd63ydzc
p81
I1
sVd8mhale
p82
I1
sVdq5algt
p83
I1
sVd6254k4
p84
I1
sVdolc98z
p85
I1
sVd9d6gnk
p86
I1
sVd16fjwf
p87
I1
sVd42r9sk
p88
I1
sVde30bx6
p89
I1
sVdtadu1d
p90
I1
sVd7t72hn
p91
I1
sVdewtfwl
p92
I1
sVdgpezdc
p93
I1
sVd2znpwj
p94
I1
sVd6nipda
p95
I1
sVd20ywkj
p96
I1
sVdsy2nfg
p97
I2
sVd9uyp8z
p98
I2
sVd1xewxa
p99
I1
sVdhqyddv
p100
I1
sVd0xr54t
p101
I1
sVd899rfd
p102
I1
sVd2pfs0a
p103
I1
sVdo9b6ce
p104
I1
sVd1n1f85
p105
I1
sVd732up5
p106
I2
sVd04w9w6
p107
I1
sVd2ng32f
p108
I1
sVdjpz5s7
p109
I1
sVdcq8ukn
p110
I5
sVdr7e20d
p111
I1
sVddrscoe
p112
I1
sVcyqtm9h
p113
I1
sVdky0adq
p114
I1
sVdhqf8ya
p115
I1
sVcyknaoo
p116
I1
sVdf83zdq
p117
I1
sVdcfnv2r
p118
I1
sVdq9u61r
p119
I1
sVdsphu37
p120
I1
sVdd9u4y5
p121
I1
sVdtecmp9
p122
I1
sVdrxf40j
p123
I1
sVd1obg3d
p124
I1
sVd49t65z
p125
I1
sVdmiutwf
p126
I1
sVdjkak10
p127
I2
sVd8qer73
p128
I1
sVdrt42ds
p129
I2
sVdcx3f2z
p130
I2
sVdii1w4e
p131
I1
sVd2znsm9
p132
I1
sVdnhua1e
p133
I1
sVdqjv7ff
p134
I1
sVdhhage0
p135
I2
sVd1vm1wl
p136
I1
sVczmfrw4
p137
I1
sVdbirfjj
p138
I1
sVdoez58h
p139
I1
sVdgtr6dg
p140
I1
sVddwyfja
p141
I1
sVd3pyd5d
p142
I1
sVd4yk1xn
p143
I1
sVd0y2q9l
p144
I4
sVdfj74na
p145
I4
sVd3sk20q
p146
I1
s.