(dp0
Vdsb00dd
p1
I1
sVdeij92x
p2
I1
sVcz5em1t
p3
I1
sVd98cnl3
p4
I1
sVd4b64d1
p5
I2
sVdmwxypl
p6
I4
sVdfq8o3o
p7
I2
sVd3en7ue
p8
I1
sVdsazlzi
p9
I1
sVcyi6isw
p10
I1
sVdinweil
p11
I1
sVd3poqca
p12
I1
sVdgehp47
p13
I1
sVdh497vq
p14
I1
sVd0klt0z
p15
I1
sVdc11sb6
p16
I1
sVdsaztmv
p17
I1
sVdio92u3
p18
I1
sVd1wannj
p19
I1
sVd6s9itg
p20
I1
sVdfl9l45
p21
I2
sVdqnukdx
p22
I1
sVdgyylom
p23
I1
sVdpz8e3d
p24
I1
sVd1wy23o
p25
I1
sVd6rtj7p
p26
I1
sVd4mg5ws
p27
I1
sVd3pcdwm
p28
I1
sVdjxxpri
p29
I1
sVdqf716c
p30
I1
sVd73uax8
p31
I1
sVdhd70ck
p32
I1
sVddabv3h
p33
I2
sVdbi8w9q
p34
I1
sVdn8hjfi
p35
I1
sVdsb3cnc
p36
I1
sVdd2zzjb
p37
I1
sVdsvivnt
p38
I1
sVczv6lb8
p39
I1
sVdrm3f6i
p40
I2
sVdsu3dpy
p41
I1
sVdg0shud
p42
I1
sVdaho7t7
p43
I1
sVdfqgck5
p44
I1
sVdcyn6u9
p45
I1
sVcynx971
p46
I1
sVdes1cco
p47
I2
sVdsp3pdb
p48
I1
sVdbqx9j4
p49
I1
sVdmnf52i
p50
I1
sVdrao2um
p51
I1
sVd4h646i
p52
I2
sVdfq72b6
p53
I3
sVddx1w1e
p54
I3
sVd2h9g25
p55
I1
sVdj9l6w2
p56
I1
sVd7tqnp9
p57
I1
sVd9l5eg5
p58
I1
sVdo9anp5
p59
I1
sVdeogn3o
p60
I2
sVd8mk50q
p61
I1
sVd5undx3
p62
I1
sVdjtj3rk
p63
I1
sVd25r2ey
p64
I1
sVdi3m6j7
p65
I1
sVdh46i5k
p66
I1
sVd69hnvi
p67
I1
sVdd0nk35
p68
I1
sVderdp2k
p69
I1
sVd4tzve8
p70
I1
sVdcb6nuh
p71
I1
sVd25y948
p72
I2
sVd2g695y
p73
I1
sVdnu8bc4
p74
I1
sVddxzvrs
p75
I1
sVd8yc7jh
p76
I1
sVdq5npeg
p77
I1
sVczv6er4
p78
I1
sVd2gt0qs
p79
I2
sVdsviz3h
p80
I1
sVd9qv0c7
p81
I1
sVdrwakal
p82
I1
s.