(dp0
Vcymddxs
p1
I1
s.(dp0
Vcymddxs
p1
I1
sVcyta81h
p2
I1
s.(dp0
Vcymddxs
p1
I1
sVcz08s4v
p2
I1
s.(dp0
Vcymddxs
p1
I1
sVcz08s4v
p2
I1
s.(dp0
Vcymddxs
p1
I1
sVcz2go4j
p2
I1
s.(dp0
Vcymddxs
p1
I1
sVcz2jzs7
p2
I1
s.(dp0
Vcymddxs
p1
I1
sVczbpjk0
p2
I1
s.(dp0
Vcymddxs
p1
I1
sVczdcalj
p2
I1
s.(dp0
Vczh2hvb
p1
I1
sVcymddxs
p2
I1
s.(dp0
Vczh2hvb
p1
I1
sVcymddxs
p2
I1
s.(dp0
Vcymddxs
p1
I1
sVczpv0yt
p2
I1
s.(dp0
Vcymddxs
p1
I1
sVczsi7gb
p2
I1
s.(dp0
Vcymddxs
p1
I1
sVczsi7gb
p2
I1
s.(dp0
Vcymddxs
p1
I1
sVczutle2
p2
I1
s.(dp0
Vcymddxs
p1
I1
sVczutle2
p2
I1
s.(dp0
Vcymddxs
p1
I1
sVd070jg7
p2
I1
s.(dp0
Vcymddxs
p1
I1
sVd161u16
p2
I1
s.(dp0
Vd19g60v
p1
I1
sVcymddxs
p2
I1
s.(dp0
Vcymddxs
p1
I1
sVd1hn318
p2
I1
s.(dp0
Vd1iqprd
p1
I1
sVcymddxs
p2
I1
s.(dp0
Vcymddxs
p1
I1
sVd1kk4op
p2
I1
s.(dp0
Vcymddxs
p1
I1
sVd1kzbv7
p2
I1
s.(dp0
Vcymddxs
p1
I1
sVd1loh9t
p2
I1
s.(dp0
Vcymddxs
p1
I1
sVd1loh9t
p2
I1
s.(dp0
Vd1q93yz
p1
I1
sVcymddxs
p2
I1
s.(dp0
Vcymddxs
p1
I1
sVd22dybl
p2
I1
s.(dp0
Vcymddxs
p1
I1
sVd24k44w
p2
I1
s.(dp0
Vcymddxs
p1
I1
sVd24k44w
p2
I1
s.(dp0
Vcymddxs
p1
I1
sVd2z134h
p2
I1
s.(dp0
Vcymddxs
p1
I1
sVd2z2dqa
p2
I1
s.(dp0
Vcymddxs
p1
I1
sVd2z2dqa
p2
I1
s.(dp0
Vcymddxs
p1
I1
sVd2z2dqa
p2
I1
s.(dp0
Vcymddxs
p1
I1
sVd2z2dqa
p2
I1
s.(dp0
Vcymddxs
p1
I1
sVd3fzuk5
p2
I1
s.(dp0
Vcymddxs
p1
I1
sVd3jjt7w
p2
I1
s.(dp0
Vcymddxs
p1
I1
sVd3vs1ey
p2
I1
s.(dp0
Vcymddxs
p1
I1
sVd43t1sg
p2
I1
s.(dp0
Vcymddxs
p1
I1
sVd4lx4yu
p2
I1
s.(dp0
Vcymddxs
p1
I1
sVd4v7bbl
p2
I1
s.(dp0
Vcymddxs
p1
I1
sVd54m5kr
p2
I1
s.(dp0
Vcymddxs
p1
I1
sVd5fg01j
p2
I1
s.(dp0
Vd5gzsvh
p1
I1
sVcymddxs
p2
I1
s.(dp0
Vcymddxs
p1
I1
sVd5pgm2p
p2
I1
s.(dp0
Vcymddxs
p1
I1
sVd661hvv
p2
I1
s.(dp0
Vcymddxs
p1
I1
sVd6hefo0
p2
I1
s.(dp0
Vcymddxs
p1
I1
sVd8556ub
p2
I1
s.(dp0
Vd8cwlhm
p1
I1
sVcymddxs
p2
I1
s.(dp0
Vd8cwlhm
p1
I1
sVcymddxs
p2
I1
s.(dp0
Vd8cwlhm
p1
I1
sVcymddxs
p2
I1
s.(dp0
Vd8cwlhm
p1
I1
sVcymddxs
p2
I1
s.(dp0
Vcymddxs
p1
I1
sVd8tz6m1
p2
I1
s.(dp0
Vcymddxs
p1
I1
sVd92mm7g
p2
I1
s.(dp0
Vcymddxs
p1
I1
sVd9v17cl
p2
I1
s.(dp0
Vcymddxs
p1
I1
sVd9v17cl
p2
I1
s.(dp0
Vcymddxs
p1
I1
sVd9v17cl
p2
I1
s.(dp0
Vcymddxs
p1
I1
sVd9v17cl
p2
I1
s.(dp0
Vcymddxs
p1
I1
sVd9wa56d
p2
I1
s.(dp0
Vcymddxs
p1
I1
sVdb7fk56
p2
I1
s.(dp0
Vcymddxs
p1
I1
sVdb7fk56
p2
I1
s.(dp0
Vcymddxs
p1
I1
sVdbgkptv
p2
I1
s.(dp0
Vcymddxs
p1
I1
sVdbgkptv
p2
I1
s.(dp0
Vcymddxs
p1
I1
sVdbgkptv
p2
I1
s.(dp0
Vcymddxs
p1
I1
sVdbgkptv
p2
I1
s.(dp0
Vcymddxs
p1
I1
sVdbgkptv
p2
I1
s.(dp0
Vcymddxs
p1
I1
sVdbgkptv
p2
I1
s.(dp0
Vcymddxs
p1
I1
sVdbgkptv
p2
I1
s.(dp0
Vcymddxs
p1
I1
sVdbgkptv
p2
I1
s.(dp0
Vcymddxs
p1
I1
sVdbgkptv
p2
I1
s.(dp0
Vcymddxs
p1
I1
sVdbql22d
p2
I1
s.(dp0
Vdc55668
p1
I1
sVcymddxs
p2
I1
s.(dp0
Vdc55668
p1
I1
sVcymddxs
p2
I1
s.(dp0
Vdc55668
p1
I1
sVcymddxs
p2
I1
s.(dp0
Vdc55668
p1
I1
sVcymddxs
p2
I1
s.(dp0
Vdc55668
p1
I1
sVcymddxs
p2
I1
s.(dp0
Vcymddxs
p1
I1
sVdcab5oc
p2
I1
s.(dp0
Vcymddxs
p1
I1
sVdcj8c3x
p2
I1
s.(dp0
Vdd5mxvs
p1
I1
sVcymddxs
p2
I1
s.(dp0
Vddcnta9
p1
I1
sVcymddxs
p2
I1
s.(dp0
Vcymddxs
p1
I1
sVddjhmd6
p2
I1
s.(dp0
Vcymddxs
p1
I1
sVdefstdo
p2
I1
s.(dp0
Vcymddxs
p1
I1
sVdeim8xc
p2
I1
s.(dp0
Vcymddxs
p1
I1
sVdevstk8
p2
I1
s.(dp0
Vcymddxs
p1
I1
sVdevstk8
p2
I1
s.(dp0
Vcymddxs
p1
I1
sVdevstk8
p2
I1
s.(dp0
Vcymddxs
p1
I1
sVdf1u693
p2
I1
s.(dp0
Vcymddxs
p1
I1
sVdf6php3
p2
I1
s.(dp0
Vcymddxs
p1
I1
sVdf6php3
p2
I1
s.(dp0
Vcymddxs
p1
I1
sVdgh88b8
p2
I1
s.(dp0
Vcymddxs
p1
I1
sVdgskvqz
p2
I1
s.(dp0
Vcymddxs
p1
I1
sVdh158ja
p2
I1
s.(dp0
Vcymddxs
p1
I1
sVdhgr382
p2
I1
s.(dp0
Vcymddxs
p1
I1
sVdhgrjxh
p2
I1
s.(dp0
Vcymddxs
p1
I1
sVdhr0y3b
p2
I1
s.(dp0
Vcymddxs
p1
I1
sVdi7n7dk
p2
I1
s.(dp0
Vcymddxs
p1
I1
sVdihk2jt
p2
I1
s.(dp0
Vcymddxs
p1
I1
sVdj6kqdj
p2
I1
s.(dp0
Vcymddxs
p1
I1
sVdjj50qm
p2
I1
s.(dp0
Vcymddxs
p1
I1
sVdjtkoyy
p2
I1
s.(dp0
Vcymddxs
p1
I1
sVdnmf0it
p2
I1
s.(dp0
Vcymddxs
p1
I1
sVdnmf0it
p2
I1
s.(dp0
Vdomwxvx
p1
I1
sVcymddxs
p2
I1
s.(dp0
Vdomxhnq
p1
I1
sVcymddxs
p2
I1
s.(dp0
Vdomxhnq
p1
I1
sVcymddxs
p2
I1
s.(dp0
Vcymddxs
p1
I1
sVdq5hpbr
p2
I1
s.(dp0
Vcymddxs
p1
I1
sVdq5hpbr
p2
I1
s.(dp0
Vcymddxs
p1
I1
sVdq5hpbr
p2
I1
s.(dp0
Vcymddxs
p1
I1
sVdq5hpbr
p2
I1
s.(dp0
Vcymddxs
p1
I1
sVdq5hpbr
p2
I1
s.(dp0
Vcy(dp0
Vcymddxs
p1
I1
sVds1itl9
p2
I1
s.