(dp0
Vczidtye
p1
I1
sVd2sebgh
p2
I1
sVdnlme1k
p3
I1
sVd1e71f1
p4
I1
sVd8hm6hu
p5
I1
sVd04cdfi
p6
I2
sVdohkp3e
p7
I1
sVczror1u
p8
I1
sVdebylqf
p9
I2
sVdcarj4f
p10
I1
sVd8gkp5j
p11
I1
sVczqu08q
p12
I2
sVd7xbw8e
p13
I1
sVda3hwht
p14
I1
sVd10md58
p15
I1
sVda0vdht
p16
I1
sVd64k65r
p17
I1
sVdg7xvc7
p18
I1
sVd4z3qno
p19
I1
sVdpxx7bp
p20
I1
sVdha4zqz
p21
I1
sVczbo2ds
p22
I1
sVdgpbgm7
p23
I1
sVdr44bnq
p24
I1
sVde0db47
p25
I1
sVd4j1596
p26
I1
sVdj6qpbu
p27
I1
sVdggk3wk
p28
I1
sVd1vlm76
p29
I1
sVczvfm6d
p30
I1
sVd9z12o5
p31
I1
sVd54svom
p32
I1
sVd58yjag
p33
I2
sVd2z0yjo
p34
I3
sVdeuuw0j
p35
I1
sVd2f87g4
p36
I1
sVdjb2r4x
p37
I2
sVd4flqy9
p38
I1
sVdeaznoc
p39
I1
sVd8lrhfz
p40
I2
sVdg4edp8
p41
I1
sVde8l5zq
p42
I1
sVdcdj8cj
p43
I1
sVdpto7s2
p44
I1
sVdgvhinh
p45
I1
sVdexkt5w
p46
I1
sVdcgrth6
p47
I1
sVdd227tz
p48
I1
sVdnkjoxh
p49
I1
sVd4bjxaa
p50
I1
sVdb54k9x
p51
I1
sVdgvqobp
p52
I1
sVdbhxwyw
p53
I1
sVcyvvcr1
p54
I2
sVd90mdvy
p55
I2
sVczehmg6
p56
I1
sVdbo2g38
p57
I1
sVdob4pk7
p58
I1
sVdmiapj9
p59
I1
sVd0butva
p60
I1
sVdkjv3cs
p61
I1
sVdimh6c1
p62
I1
sVdf5iw9v
p63
I1
sVczu78ed
p64
I1
sVdffiye3
p65
I1
sVden1wxt
p66
I1
sVdrlu9i1
p67
I1
sVdbt6yqw
p68
I1
sVczf2e1x
p69
I1
sVd8qa1ml
p70
I1
sVdbn9a2w
p71
I1
sVd8npjws
p72
I1
sVcz4gmib
p73
I1
sVdtjkd9g
p74
I5
sVdohpjfi
p75
I1
sVd3pm15y
p76
I1
sVdjcfin7
p77
I1
sVdjdgik6
p78
I1
sVd95s6ff
p79
I1
sVdkjw1mr
p80
I1
sVddu361j
p81
I1
sVd1lxpg4
p82
I1
sVdh2pi73
p83
I3
sVdflhl95
p84
I1
sVcz0awhj
p85
I1
sVd3sxj9v
p86
I1
sVdix8b6k
p87
I1
sVd5lkh4l
p88
I1
sVdjc85ur
p89
I1
sVd8zfvs1
p90
I1
sVdhiduij
p91
I1
sVdfscusz
p92
I2
sVdoqu48b
p93
I1
sVd4i3uur
p94
I1
sVdd3o58h
p95
I1
sVdj3o0vi
p96
I1
sVdnu6vls
p97
I1
sVdf38m7c
p98
I1
sVdgt5csc
p99
I1
sVczwbyih
p100
I1
sVdcc3pkz
p101
I2
sVd40ohf9
p102
I1
sVdmsfsv2
p103
I1
sVd7myhnp
p104
I1
sVdexb8hw
p105
I1
sVdg34k29
p106
I3
sVd8o6738
p107
I1
sVd0awbf1
p108
I3
sVd8gaf1j
p109
I3
sVd4ilvxg
p110
I1
sVdpyxunv
p111
I1
sVdmt17t0
p112
I1
sVdq5p8d1
p113
I1
sVd1vta5e
p114
I1
sVdiecdum
p115
I1
sVdbkpgfa
p116
I1
sVcz4i1wf
p117
I1
sVd5u7vod
p118
I1
sVd8uii92
p119
I1
sVd4q1r1k
p120
I1
sVd7qihja
p121
I1
sVczc638u
p122
I1
sVdq7dz66
p123
I1
sVd843zbq
p124
I1
sVdmxuqdf
p125
I1
sVd2lt20u
p126
I1
sVdbvn62z
p127
I1
sVdqyi22v
p128
I2
sVdpas1qh
p129
I1
sVddfksjg
p130
I1
sVd1kogep
p131
I1
sVdk6dcaf
p132
I1
sVd322spd
p133
I1
sVcz2p4ze
p134
I1
sVd0cvf2x
p135
I1
sVd900bsp
p136
I1
sVddqail4
p137
I1
sVdi9t09w
p138
I1
sVd4u5v3d
p139
I1
sVdff1kc0
p140
I1
sVcyk7s2k
p141
I1
sVdcue321
p142
I1
sVd8jseey
p143
I1
sVdnh3olj
p144
I1
sVcyv0cpk
p145
I3
sVdbxbdah
p146
I1
sVd4t7375
p147
I1
sVdgz6vuk
p148
I1
sVd84ccy0
p149
I2
sVdf3gic2
p150
I1
sVd5v2mbi
p151
I2
sVdfa20e2
p152
I1
sVdjlyrw0
p153
I2
sVdn0u4gu
p154
I2
sVd6a6c3z
p155
I1
sVd0180jk
p156
I1
sVdjc9p4k
p157
I1
sVdha18vk
p158
I1
sVdcz66mm
p159
I1
sVd1p2kwl
p160
I1
sVdiaisf1
p161
I1
sVdk145bw
p162
I1
sVdnwexgl
p163
I1
sVd668bff
p164
I1
sVczs3qi5
p165
I1
sVdcr66tc
p166
I1
sVdcdeypw
p167
I1
sVd9ei87k
p168
I1
sVdksydqc
p169
I1
sVd6xvj30
p170
I1
sVd9d720r
p171
I1
sVdo9da52
p172
I1
sVd2cczns
p173
I1
sVczlfke9
p174
I1
sVd96iv67
p175
I1
sVdefv63v
p176
I1
sVd1wlwcs
p177
I1
sVd26duix
p178
I1
sVcymogu1
p179
I1
sVd7btngf
p180
I4
sVddsliuz
p181
I1
sVdc610e9
p182
I1
sVd4yhlhy
p183
I1
sVdmlyiy2
p184
I1
sVd6t6ft7
p185
I2
sVdjr5lm5
p186
I1
sVd4ij0hs
p187
I1
sVdhs26fq
p188
I2
sVd6m9xbp
p189
I1
sVdcnmp7s
p190
I1
sVd9bvi9l
p191
I1
sVd4bk73b
p192
I1
sVdimqpn2
p193
I1
sVd010i2a
p194
I1
sVdhny9dp
p195
I1
sVd6knxmg
p196
I1
sVdsubeou
p197
I1
sVczeqy2n
p198
I1
sVdt0edfp
p199
I2
sVdrvjf4h
p200
I2
sVdfysr92
p201
I1
sVdi09moa
p202
I1
sVczx28h9
p203
I1
sVcys4zla
p204
I1
sVdj6xpq1
p205
I1
sVczbs8ep
p206
I1
sVdekptpn
p207
I1
sVdaznfrv
p208
I1
sVcz6n5xl
p209
I1
sVd49ep0q
p210
I1
sVddsoge5
p211
I1
sVdf665pn
p212
I1
sVdgqr1pa
p213
I1
sVcyp3png
p214
I3
sVd0b0dwg
p215
I2
sVds6zmg8
p216
I1
sVdbyv9vh
p217
I1
sVd2w7d7m
p218
I2
sVd4tx5wf
p219
I1
sVdbx3gx7
p220
I1
sVdphh8h2
p221
I1
sVd3r8jru
p222
I2
sVdtio4s7
p223
I2
sVd6gotw1
p224
I1
sVd883fho
p225
I1
sVdcz78on
p226
I2
sVdhrcgfp
p227
I1
sVczbil6g
p228
I2
sVczblbs4
p229
I1
sVdmnhev5
p230
I1
sVdi2covw
p231
I1
sVdgp1c36
p232
I1
sVd12a2z4
p233
I1
sVdcsl6b4
p234
I1
sVdsv2fxc
p235
I1
sVdfgizia
p236
I1
sVczktzhf
p237
I2
sVdazxh0m
p238
I1
sVd5kcisj
p239
I1
sVdcz2r02
p240
I1
sVddc8qz4
p241
I1
sVd83zmhw
p242
I1
sVd6to2hu
p243
I1
sVddwjban
p244
I1
sVdkcjieb
p245
I1
sVdqtqmbj
p246
I1
sVdoh3td4
p247
I1
sVdka4qmi
p248
I1
sVdcl8zlo
p249
I1
sVdbmhixt
p250
I1
sVcz54u63
p251
I1
sVdfq4b6c
p252
I1
sVdcvenym
p253
I2
sVd8dztn6
p254
I1
sVd2s7c8j
p255
I1
sVddtg858
p256
I1
sVd5fg01j
p257
I1
sVd7mmnyv
p258
I2
sVd1ok3pd
p259
I1
sVd2fp5ab
p260
I1
sVd79s9uq
p261
I2
sVdfsf3b7
p262
I1
sVd8jnwd8
p263
I1
sVd7ciwb9
p264
I1
sVdcx50ng
p265
I1
sVdbwpooj
p266
I1
sVd8ez6d1
p267
I1
sVdhkhh8f
p268
I1
sVdable6m
p269
I2
sVdpa0bjf
p270
I2
sVdcj9mbo
p271
I1
sVd1gwlgg
p272
I1
sVds1l0a9
p273
I1
sVd3grmcq
p274
I1
sVczc7cs7
p275
I1
sVdqidt4n
p276
I1
sVdqdi7ov
p277
I1
sVd6sceb5
p278
I2
sVd7tjprg
p279
I1
sVdencwta
p280
I1
sVdgn4244
p281
I1
sVda6tktz
p282
I1
sVdmv84gs
p283
I1
sVd02psyn
p284
I1
sVd5eluhn
p285
I1
sVd2ox0vs
p286
I1
sVdkexjab
p287
I1
sVdrblxoz
p288
I2
sVdbas86u
p289
I1
sVdkjvml4
p290
I1
sVczhavoz
p291
I1
sVd0qlh8g
p292
I1
sVdfcnx43
p293
I1
sVd98v5sl
p294
I1
sVd90550k
p295
I1
sVd9mm9xx
p296
I1
sVdoir06j
p297
I2
sVde0i3s3
p298
I1
sVd87awhc
p299
I1
sVdiuy21b
p300
I1
sVdfpttaa
p301
I1
sVczbuotx
p302
I2
sVdpdtold
p303
I1
sVdcwafcn
p304
I1
sVd0y5wrg
p305
I1
sVdbk062t
p306
I1
sVddoosoi
p307
I1
sVdar59dm
p308
I1
sVdgw4vg3
p309
I1
sVdii3f99
p310
I2
sVdii6h7z
p311
I1
sVdmqd893
p312
I1
sVdberu8w
p313
I2
sVczcl10o
p314
I2
sVd36njkg
p315
I1
sVd3va99j
p316
I1
sVdcdf0gm
p317
I1
sVd9co07f
p318
I1
sVcyt0b73
p319
I1
sVd7t4n1f
p320
I1
sVd84o4br
p321
I1
sVd6sm5az
p322
I2
sVcz6r8di
p323
I1
sVd6tb12u
p324
I1
sVdazz9wv
p325
I1
sVdck7qao
p326
I2
sVdsml0i4
p327
I1
sVdq3torq
p328
I1
sVd2r0ic2
p329
I1
sVd5epmge
p330
I2
sVd90sckj
p331
I1
sVd103no9
p332
I3
sVd2w3p1h
p333
I1
sVd8ghyvv
p334
I1
sVdf4ago6
p335
I1
sVd0rjsva
p336
I1
sVdqz0b97
p337
I1
sVd5hfl1l
p338
I1
sVdikoq5e
p339
I1
sVdmz9k3k
p340
I1
sVddwhhst
p341
I1
sVd05pid8
p342
I1
sVddkhrio
p343
I1
sVd347zf9
p344
I1
sVd84nus5
p345
I2
sVd3fp0n1
p346
I1
sVdfqf18k
p347
I1
sVcyp8q1u
p348
I1
sVd893wqr
p349
I1
sVdaz61ix
p350
I1
sVdeq1o2x
p351
I1
sVds9svav
p352
I1
sVd2e9jpp
p353
I1
sVd0r22zu
p354
I1
sVczlet68
p355
I2
sVdkwgsbi
p356
I1
sVdomx2nr
p357
I1
sVdhzycai
p358
I1
sVd9yy8di
p359
I1
sVdb06v2x
p360
I1
sVd1hm9ml
p361
I1
sVd7w1tc1
p362
I1
sVdihd0ud
p363
I2
sVdom14c7
p364
I1
sVd2y541b
p365
I2
sVcz0l34r
p366
I2
sVd1615l3
p367
I2
sVdkxb588
p368
I1
sVd8fr3ow
p369
I1
sVdbzw8rz
p370
I1
sVd35jymc
p371
I1
sVdaasocx
p372
I1
sVdhd5s4t
p373
I1
sVczgrecu
p374
I1
sVdgs27fm
p375
I1
sVczldodi
p376
I3
sVde6xnbo
p377
I1
sVd1wfm86
p378
I1
sVczi2ioe
p379
I1
sVd286eo2
p380
I1
sVd7hz47f
p381
I1
sVd6hqdm2
p382
I1
sVd05x8vo
p383
I1
sVd7y9fbp
p384
I1
sVd7tl7tw
p385
I1
sVdd3zk2h
p386
I1
sVdspwc5y
p387
I1
sVdfm3u8l
p388
I1
sVd9fc0wk
p389
I1
sVdg5b2tf
p390
I1
sVd9xjlo8
p391
I1
sVdg170q2
p392
I1
sVd1sc1y2
p393
I1
sVdml2xb3
p394
I2
sVdknoezk
p395
I1
sVd56diyb
p396
I1
sVdgwfzyc
p397
I1
sVdb15pbd
p398
I1
sVde857fo
p399
I1
sVd8pph2e
p400
I1
sVd984109
p401
I3
sVdhn1n7n
p402
I1
sVdhcb8d8
p403
I1
sVczvl5my
p404
I1
sVdgqaw7c
p405
I1
sVd43tdyt
p406
I1
sVd544wbj
p407
I1
sVdc70j3o
p408
I2
sVdi4yuik
p409
I1
sVddwmm8k
p410
I1
sVdeqtd8h
p411
I1
sVdh2olvb
p412
I1
sVczbrdfu
p413
I1
sVdh15dg0
p414
I1
sVdohjukm
p415
I1
sVcz2rpe7
p416
I1
sVd0o9wud
p417
I1
sVd6sf7ie
p418
I1
sVd7337f3
p419
I1
sVd31yuea
p420
I2
sVdouk4c7
p421
I1
sVd2kpkf5
p422
I1
sVd920aaw
p423
I1
sVcznwbeu
p424
I1
sVdpsawy5
p425
I1
sVd1kwkhs
p426
I1
sVdkilocd
p427
I1
sVdtj97w8
p428
I1
sVdfylc9a
p429
I1
sVdqks0t0
p430
I2
sVd90n3s7
p431
I5
sVd5ub745
p432
I1
sVdsw0joa
p433
I1
sVd43hfr5
p434
I1
sVdg83eob
p435
I1
sVdjoinh3
p436
I1
sVd319g09
p437
I1
sVd03ko2z
p438
I1
sVddeiqmx
p439
I1
sVdfv54sd
p440
I1
sVdcstlyb
p441
I1
sVd4e897p
p442
I2
sVdgbe1ct
p443
I1
sVdj1y60r
p444
I1
sVczasd1y
p445
I1
sVdjnuk5u
p446
I1
sVdfov5yz
p447
I1
sVdcxil2s
p448
I1
sVd8e6sok
p449
I1
sVdpga7no
p450
I1
sVdhoe880
p451
I1
sVd72pxtu
p452
I1
sVddwie7y
p453
I1
sVdh64nx0
p454
I1
sVd34hojx
p455
I2
sVczcxz58
p456
I1
sVdh1lqlo
p457
I1
sVd2811u2
p458
I2
sVdnffe5f
p459
I1
sVda8srct
p460
I1
sVddp3o9m
p461
I2
sVdp730he
p462
I1
sVddp8oux
p463
I1
sVd8eu1qk
p464
I1
sVd3x3kjg
p465
I1
sVcz3li9j
p466
I1
sVd0sc60e
p467
I1
sVd259fjb
p468
I1
sVde59034
p469
I1
sVdbxphgr
p470
I1
sVdcgfino
p471
I1
sVd54esp0
p472
I1
sVdg8vgmn
p473
I1
sVdn4apz1
p474
I1
sVdfojaqp
p475
I1
sVdaph8gu
p476
I4
sVdegcmm8
p477
I1
sVdeh09gg
p478
I1
sVd53apyi
p479
I1
sVdksxz91
p480
I1
sVczdiyim
p481
I1
sVd9g7c8l
p482
I2
sVdd61q6t
p483
I1
sVdn8ddtx
p484
I1
sVd4vtlqy
p485
I1
sVd3lp3h1
p486
I1
sVdkqqgur
p487
I1
sVdak6wid
p488
I1
sVd3did4o
p489
I1
sVd02lqhc
p490
I1
sVd6s793o
p491
I1
sVdra7yr7
p492
I2
sVda9yz0p
p493
I1
sVcyw5sf4
p494
I2
sVcyluo8b
p495
I1
sVdiajqpy
p496
I1
sVcyvm3op
p497
I1
sVddyg9ok
p498
I1
sVdndasum
p499
I1
sVdf1x0qq
p500
I1
sVd2pupat
p501
I1
sVdimqdhm
p502
I1
sVd4d1jzg
p503
I1
sVd5blgkp
p504
I1
sVdjiewm5
p505
I2
sVd8lol0w
p506
I2
sVd1ahgm7
p507
I2
sVd05uhzm
p508
I2
sVczpv0yt
p509
I2
sVdtjkdbn
p510
I1
sVd4txdkl
p511
I2
sVd22kh7l
p512
I1
sVdqt3l24
p513
I1
sVd9fzabj
p514
I1
sVd2nsm7w
p515
I1
sVd0hc8pd
p516
I1
sVdbh2gxg
p517
I1
sVdmrr7xa
p518
I1
sVd6teg1n
p519
I1
sVdhs5hql
p520
I1
sVd0yb64s
p521
I1
sVdfu3apu
p522
I1
sVdaogakm
p523
I1
sVd97dq6q
p524
I1
sVdfmhuup
p525
I1
sVdk0cnpi
p526
I1
sVdsf6va9
p527
I1
sVcze4w7a
p528
I1
sVdkwx8ac
p529
I1
sVdrr44vg
p530
I1
sVd2vccwo
p531
I1
sVdbqrfse
p532
I1
sVdcdjwo2
p533
I1
sVd8wiyid
p534
I1
sVdei1bi6
p535
I1
sVdh4xh2k
p536
I2
sVdegzra8
p537
I1
sVdcdlapg
p538
I6
sVd3m62hi
p539
I1
sVd5rmn97
p540
I1
sVdedvvqz
p541
I1
sVdgxdlt3
p542
I1
sVdsvcvno
p543
I1
sVd92opcc
p544
I1
sVczz9z3t
p545
I1
sVd35p1cu
p546
I1
sVd6xdeey
p547
I2
sVd13znb5
p548
I1
sVdo32lfo
p549
I1
sVcyir9yb
p550
I2
sVdni76rd
p551
I1
sVdojeuyt
p552
I1
sVdq563rg
p553
I2
sVdruojkx
p554
I1
sVdohc8a2
p555
I1
sVd1v002f
p556
I2
sVd68t9ct
p557
I1
sVdfe4iiw
p558
I1
sVdgmx2u7
p559
I1
sVd1404ed
p560
I1
sVdkragvo
p561
I1
sVdc3h75t
p562
I1
sVdcdqkyb
p563
I1
sVdfosuxj
p564
I1
sVdd2zzjb
p565
I1
sVczc3f0q
p566
I1
sVd35gm4j
p567
I5
sVdek1iy7
p568
I1
sVcyojow2
p569
I2
sVdnqosb8
p570
I1
sVddvfvot
p571
I1
sVdhsx3vi
p572
I1
sVdmwqcqz
p573
I2
sVd0yemgy
p574
I1
sVd44djcm
p575
I2
sVd0batvt
p576
I5
sVddt54m5
p577
I1
sVdbe4qil
p578
I1
sVdn4r6l4
p579
I1
sVdqkbt0q
p580
I2
sVdel1ld8
p581
I1
sVd51aa6z
p582
I2
sVds3uz4i
p583
I1
sVddm2zgy
p584
I1
sVd6ruv7p
p585
I1
sVdboyw4v
p586
I1
sVd0otosl
p587
I1
sVd9aua9f
p588
I1
sVdcxh7az
p589
I1
sVdat0bv1
p590
I1
sVd71afrt
p591
I1
sVd3aazbe
p592
I1
sVd2qht60
p593
I1
sVd9ns52d
p594
I1
sVdktp41o
p595
I1
sVczc8exu
p596
I1
sVddhgxgc
p597
I1
sVdbd3zge
p598
I1
sVczp67th
p599
I1
sVdkuuudd
p600
I1
sVd78ggyi
p601
I1
sVd10z0i0
p602
I1
sVdal71c8
p603
I1
sVcyjurpx
p604
I1
sVczz02h9
p605
I1
sVcz3loht
p606
I1
sVdjj78t2
p607
I1
sVdnhizg7
p608
I1
sVdf2cwrf
p609
I1
sVd3ugxlz
p610
I1
sVdh0rx6f
p611
I1
sVczhkr5l
p612
I1
sVdmutt49
p613
I2
sVdg1l7p3
p614
I1
s.