(dp0
Vdht7tjx
p1
I1
sVcyrta4e
p2
I1
sVd67phzf
p3
I2
sVde259jm
p4
I9
sVdsqqe1t
p5
I1
sVdo1yfr6
p6
I1
sVd6vitkz
p7
I1
sVd4lmsjr
p8
I1
sVdpbo0ze
p9
I1
sVd3xl4k5
p10
I6
sVd2y0psi
p11
I2
sVdb0cym0
p12
I1
sVd52ivad
p13
I1
sVdf02gdi
p14
I1
sVddr79ae
p15
I1
sVdh1tps7
p16
I1
sVdjgd10i
p17
I1
sVd1idpo4
p18
I1
sVd07ehpz
p19
I1
sVddpksgn
p20
I1
sVdf89eck
p21
I1
sVd2alc8b
p22
I1
sVdglxz76
p23
I1
sVdq7von1
p24
I1
sVdj8iooq
p25
I1
sVdedvft2
p26
I1
sVd51ugcf
p27
I3
sVdq4v2ae
p28
I2
sVd6rfg6o
p29
I1
sVcz5w2c0
p30
I1
sVdcmwwg4
p31
I1
sVdn766pv
p32
I1
sVdgi4qdt
p33
I1
sVd0m9u3e
p34
I1
sVddfdzai
p35
I2
sVd2qicxj
p36
I1
sVdctzchp
p37
I1
sVdmt0ned
p38
I2
sVd34qxt7
p39
I1
sVd3h1cs4
p40
I1
sVd8it1vx
p41
I1
sVd3p67sa
p42
I1
sVd5yvrkl
p43
I2
sVddf6q3j
p44
I3
sVde04gdv
p45
I1
sVdgu9vfv
p46
I1
sVdt8e04w
p47
I3
sVd1n1tog
p48
I2
sVcys5gpy
p49
I1
sVd6cdz05
p50
I2
sVdf1qax8
p51
I1
sVddnk3wi
p52
I2
sVdej2pid
p53
I2
sVdipezoy
p54
I1
sVd6q8lxb
p55
I1
sVdfctttn
p56
I1
sVd3qskjo
p57
I1
sVda75gp6
p58
I1
sVd03mar6
p59
I1
sVd54p6sl
p60
I2
sVdqgbs9k
p61
I2
sVdpg10mi
p62
I1
sVd3hqsue
p63
I1
sVd1p05wv
p64
I3
sVdmmfbvw
p65
I1
sVdezwe4w
p66
I1
sVd00i5bm
p67
I1
sVd8c0fxv
p68
I1
sVd9pkhsr
p69
I1
sVdt0afuz
p70
I1
sVd4vb59j
p71
I2
sVddev8ko
p72
I1
sVd6lstlq
p73
I2
sVd0kpden
p74
I1
sVddfjpt5
p75
I2
sVdcual0e
p76
I1
sVd1ju2nb
p77
I1
sVd2j6rmu
p78
I1
sVd217sd4
p79
I1
sVd3lbvtn
p80
I2
sVdckpmke
p81
I1
sVd6bjdvw
p82
I2
sVd20xqyr
p83
I1
sVde1315c
p84
I1
sVd98cnl3
p85
I1
sVd9mtmee
p86
I1
sVd6dwswe
p87
I2
sVd25yuoh
p88
I1
sVd7ho3um
p89
I1
sVd5bmu5j
p90
I3
sVczj2cfx
p91
I1
sVdbn1gcx
p92
I4
sVd09bzge
p93
I1
sVdqxswjg
p94
I1
sVd6dwmfx
p95
I2
sVd9mb5up
p96
I1
sVdrqld4n
p97
I1
sVd1wn161
p98
I2
sVdax3pao
p99
I1
sVdjmu27k
p100
I1
sVd6h7gsi
p101
I1
sVdinairj
p102
I1
sVdc6taay
p103
I1
sVdc6v3fx
p104
I1
sVdo24fr4
p105
I4
sVd5pllyu
p106
I1
sVd8gc1to
p107
I1
sVdcdd13s
p108
I1
sVd1q4jwg
p109
I1
sVd2ycxcy
p110
I2
sVdaxfrru
p111
I1
sVd7xlsh9
p112
I1
sVdkie22u
p113
I1
sVdbdeloa
p114
I1
sVd8oj6nj
p115
I1
sVd7zj5rh
p116
I1
sVd8rskdl
p117
I1
sVdr8r3nd
p118
I1
sVd3y0s0g
p119
I3
sVd522que
p120
I2
sVd6290wf
p121
I2
sVd0lrle3
p122
I2
sVd95bi9r
p123
I1
sVd0lupa9
p124
I4
sVdjqn3c0
p125
I2
sVdbffvmu
p126
I1
sVczy64tb
p127
I2
sVdh9uyqy
p128
I1
sVdfe5nk3
p129
I4
sVdo4rldu
p130
I1
sVd30lsu9
p131
I3
sVdezbds5
p132
I1
sVd6j865e
p133
I1
sVdqx5p82
p134
I1
sVczworam
p135
I1
sVd031f9x
p136
I1
sVd9nk3pc
p137
I2
sVdqkz3z9
p138
I1
sVd0okkwa
p139
I1
sVd7y9zba
p140
I2
sVdi0nca8
p141
I1
sVcz7oxs2
p142
I1
sVdehac68
p143
I2
sVd10qtrt
p144
I1
sVdieo73z
p145
I1
sVdfcup32
p146
I3
sVdf0njuy
p147
I1
sVdf0ol70
p148
I2
sVderpzn4
p149
I1
sVdnfn3bd
p150
I2
sVd94kab8
p151
I3
sVd02vfbx
p152
I2
sVd97jhxb
p153
I1
sVd38o7zh
p154
I1
sVd6wt6lx
p155
I2
sVd8upwf2
p156
I5
sVdbtm4k5
p157
I4
sVd51uakv
p158
I1
sVd930jxf
p159
I1
sVdgfgjx0
p160
I1
sVd02l1hi
p161
I1
sVdfli44p
p162
I1
sVd2r2cjr
p163
I3
sVd4ygqtt
p164
I1
sVddprxnx
p165
I2
sVd1q0bf5
p166
I1
sVd386l0z
p167
I1
sVdkw8x8e
p168
I2
sVd1flp18
p169
I1
sVd00j8jx
p170
I1
sVd5np3tv
p171
I1
sVdo1grbt
p172
I1
sVdql0wxz
p173
I1
sVd4768iv
p174
I1
sVdfnd0fy
p175
I1
sVdrq5hxw
p176
I1
sVd4h3pmz
p177
I3
sVd5ps78f
p178
I1
sVdmhzy6h
p179
I1
sVdat68v6
p180
I1
sVdi2bh0s
p181
I2
sVddf2y8y
p182
I1
sVd94hwuf
p183
I1
sVdp7f7vq
p184
I1
sVd7cy4j2
p185
I2
sVd95j8oy
p186
I1
sVd3y1hlk
p187
I1
sVd89oj84
p188
I1
sVdbqu04e
p189
I1
sVdhwsegi
p190
I1
sVd5ob4rw
p191
I1
sVdsvmq6v
p192
I1
sVdcb52q7
p193
I1
sVcyiwwh7
p194
I1
sVd83e9vn
p195
I1
sVd5u885r
p196
I1
sVdost7fz
p197
I2
sVdbgp7fl
p198
I1
sVdn9t90c
p199
I1
sVd9lt4pw
p200
I1
sVdgfh6oq
p201
I1
sVd1lshgs
p202
I2
sVd62q60a
p203
I1
sVdafvejs
p204
I1
sVd6f7e64
p205
I3
sVdt7x20m
p206
I1
sVd16hyts
p207
I1
sVd2r39bx
p208
I3
sVd0f8h28
p209
I3
sVdjm7w73
p210
I1
sVdcmuw51
p211
I1
sVcyjp6qk
p212
I1
sVdgfvjtd
p213
I3
sVd5yr6os
p214
I1
sVdgbrnuc
p215
I1
sVd94ce63
p216
I1
sVdb0wetv
p217
I1
sVd5kregk
p218
I2
sVd2kk8vo
p219
I2
sVdhmnq91
p220
I1
sVdnduqf7
p221
I1
sVd63xljj
p222
I1
sVczlu1o2
p223
I1
sVdrkq043
p224
I1
sVdftrbn0
p225
I1
sVd5sqh8m
p226
I1
sVd228biv
p227
I1
sVd51ubi2
p228
I1
sVdgi826g
p229
I1
sVdk7d0zl
p230
I1
sVdap6ru2
p231
I1
sVd6k7dp6
p232
I1
sVda2xx2v
p233
I4
sVdexpg5f
p234
I1
sVdh5wi89
p235
I1
sVcz502k8
p236
I1
sVdfhho4s
p237
I1
sVd0mqs5j
p238
I1
sVdnh9943
p239
I1
sVd38xh1k
p240
I2
sVda96emb
p241
I1
sVd97zrq4
p242
I1
sVd2j6ly9
p243
I1
sVd4h3o82
p244
I2
sVd658x3i
p245
I1
sVdmuqvni
p246
I1
sVd9681cn
p247
I1
sVd32udxx
p248
I1
sVdrdgw6j
p249
I1
sVd9llled
p250
I1
sVd3t99du
p251
I2
sVdglowwv
p252
I1
sVdauwx7h
p253
I1
sVd89o9hh
p254
I1
sVd9ggohc
p255
I2
sVd221ui8
p256
I1
sVd8w4fop
p257
I1
sVcyluxi2
p258
I1
sVdichhtv
p259
I1
sVdewwod1
p260
I1
sVdmreya0
p261
I2
sVd9mtbr4
p262
I1
sVcz5b3bo
p263
I1
sVczhvpc0
p264
I1
sVd53nkrb
p265
I1
sVdalhy1p
p266
I3
sVdrq344b
p267
I2
sVczj2owd
p268
I1
sVd6rsvir
p269
I1
sVdhynk09
p270
I1
sVdfdo3ac
p271
I2
sVd6znbsp
p272
I1
sVdbb47qw
p273
I5
sVd6559v6
p274
I2
sVcyugp9h
p275
I1
sVd8dstqo
p276
I2
sVd8rev27
p277
I1
sVd0n3xi7
p278
I4
sVd79n9wp
p279
I2
sVd38tjot
p280
I1
sVdjahae0
p281
I1
sVd8bkt7r
p282
I1
sVdqxsh2q
p283
I1
sVd2smv36
p284
I1
sVdfnifgz
p285
I3
sVcyvxejw
p286
I1
sVd7ricz6
p287
I1
sVd6cye9e
p288
I1
sVdc5tprl
p289
I3
sVdq8dtw0
p290
I3
sVdfsdoe8
p291
I2
sVdfq3vn2
p292
I2
sVdrudm00
p293
I3
sVdq7vw6e
p294
I1
sVd4fvjtn
p295
I2
sVdqf2eh8
p296
I2
sVd1e68dt
p297
I1
sVd227gqs
p298
I1
sVda5jxvm
p299
I1
sVdo05r0b
p300
I2
sVczj5le6
p301
I1
sVdfdfuot
p302
I1
sVdcf442q
p303
I1
sVdd17h1k
p304
I1
sVde3v8dm
p305
I1
sVd5pwsql
p306
I1
sVdf036az
p307
I1
sVdgjwkf6
p308
I1
sVdqkwjsf
p309
I1
sVdmo7dhj
p310
I1
sVd62veng
p311
I3
sVdn8wy52
p312
I1
sVd50jkox
p313
I1
sVd1flrrg
p314
I3
sVd6hckjj
p315
I1
sVdgjwcmi
p316
I1
sVdaxejpc
p317
I1
sVdfasi60
p318
I2
sVdeq15wv
p319
I3
sVd4tse91
p320
I2
sVddew7cv
p321
I6
sVd51i19l
p322
I1
sVd94jmk2
p323
I1
sVd04jjmu
p324
I1
sVd4s5o4t
p325
I1
sVdh61yr8
p326
I1
sVdc371ah
p327
I1
sVd7m9mlz
p328
I1
sVd4vqv6k
p329
I1
sVd4m5tl7
p330
I1
sVdfdt356
p331
I1
sVd3um4xs
p332
I1
sVd5rqxmc
p333
I1
sVdqldevm
p334
I2
sVddc10rp
p335
I2
sVd2xuxcu
p336
I1
sVdhe8fra
p337
I1
sVdmt0unu
p338
I1
sVd1202y8
p339
I1
sVdk5z034
p340
I1
sVd5iovt4
p341
I1
sVdej7jg3
p342
I1
sVcyvcv1j
p343
I1
sVdaz9kgs
p344
I1
sVd1ie0i3
p345
I5
sVd06g0od
p346
I1
sVdbbrhe0
p347
I3
sVd2a3d61
p348
I1
sVd2qkycb
p349
I2
sVddprhw5
p350
I3
sVd0lk2z5
p351
I1
sVdkws08l
p352
I2
sVd5xw5ni
p353
I3
sVd4z418i
p354
I1
sVdf8fcwg
p355
I1
sVdfbee4t
p356
I1
sVd94ifyd
p357
I1
sVd1hvpty
p358
I1
sVd16h4wn
p359
I1
sVd8rlsb0
p360
I1
sVd6c9ic1
p361
I2
sVdfx6jry
p362
I3
sVd965f5k
p363
I1
sVd62vqkn
p364
I5
sVddlxi4s
p365
I5
sVdo9t764
p366
I1
sVdbg28wf
p367
I1
sVd1mvcec
p368
I1
sVdi2krcz
p369
I1
sVdda87zr
p370
I1
sVd1ssblg
p371
I3
sVd0ohpen
p372
I1
sVd7qssxc
p373
I1
sVdehvc4e
p374
I1
sVcym3nqx
p375
I2
sVdhhmntl
p376
I1
sVddr7nme
p377
I3
sVdhggb01
p378
I1
sVdq7vuf9
p379
I2
sVd38zp5w
p380
I1
sVd4vb1lh
p381
I2
sVd2x1fj2
p382
I1
sVdf49znl
p383
I1
sVdsqphzy
p384
I1
sVd0irktw
p385
I1
sVd3ydpw8
p386
I1
sVdfclo41
p387
I5
sVdql8o7e
p388
I2
sVdamhcpx
p389
I1
sVddc17lw
p390
I2
sVd1eqrw2
p391
I1
sVcz5cho8
p392
I1
sVd2uhcnc
p393
I4
sVdc3iwl0
p394
I1
sVdbhq2yt
p395
I1
sVdgrv6xp
p396
I1
sVdehb0ed
p397
I1
sVd38ulk6
p398
I1
sVd1z2mws
p399
I1
sVdsy7gks
p400
I5
sVde4bm4g
p401
I2
sVdbgzc9u
p402
I2
sVd09reu6
p403
I1
sVd8x8zx7
p404
I2
sVd3g3u9h
p405
I3
sVd4lwrqz
p406
I3
sVd38hh6s
p407
I1
sVdbgh7j4
p408
I1
sVd5ule9b
p409
I1
sVcyvczpk
p410
I1
sVd07onzt
p411
I1
sVd62qwcy
p412
I3
sVdbgz8ck
p413
I1
sVd6en15n
p414
I1
sVd3sq15t
p415
I3
sVd5h6ym3
p416
I1
sVd965vvx
p417
I1
sVd5v3vk2
p418
I1
sVd0kfgey
p419
I2
sVdnfvj4r
p420
I1
sVd5pv99v
p421
I1
sVdiywxjs
p422
I1
sVdrg2n9g
p423
I2
sVcym3ok7
p424
I2
sVde0wiql
p425
I2
sVd5iom0t
p426
I2
sVd8qzz5r
p427
I1
sVdg15527
p428
I1
sVd94kgns
p429
I1
sVd94au25
p430
I1
sVdi5cfpj
p431
I1
sVdol3dsi
p432
I2
sVd4rg2pm
p433
I5
sVd06kegk
p434
I1
sVd67eik2
p435
I1
sVd28fq23
p436
I4
sVdbf4bzy
p437
I1
sVde0r6u0
p438
I5
sVd89p45h
p439
I1
sVd8u9vx2
p440
I1
sVd38lu5q
p441
I1
sVczca4wz
p442
I1
sVdizzz8o
p443
I1
sVd7hj2o6
p444
I1
sVdcc8j5o
p445
I3
sVd9uy4i5
p446
I1
sVdsvoj5j
p447
I1
sVdnbsdbr
p448
I1
sVdb7cp8j
p449
I1
sVdo1wyyd
p450
I1
sVd5txn1n
p451
I1
sVdg18uio
p452
I1
sVd3yw9q9
p453
I1
sVdbx58cq
p454
I1
sVdezxkva
p455
I9
sVd4n7lja
p456
I1
sVdf09dm8
p457
I4
sVde3j9je
p458
I1
sVd69n33p
p459
I1
sVdalhsrf
p460
I1
sVdf2zsyd
p461
I3
sVd4rz9p1
p462
I1
sVd94emra
p463
I4
sVdfg8vxo
p464
I1
sVd95i91t
p465
I2
sVd6m2ge4
p466
I2
sVdkwsq53
p467
I2
sVczh7w2d
p468
I1
sVdfq3kdn
p469
I1
sVdkrruhr
p470
I1
sVdaujv3g
p471
I1
s.