(dp0
Vdayr0al
p1
I1
sVdfx4z2y
p2
I1
sVd4h90e9
p3
I1
sVd0dq45r
p4
I3
sVdagfwxk
p5
I1
sVdnudyyt
p6
I1
sVdr9w15b
p7
I1
sVdr3e6ru
p8
I1
sVdk0b4yp
p9
I1
sVd93awoj
p10
I1
sVdag75ea
p11
I1
sVd7aojoe
p12
I1
sVdnnrc5d
p13
I2
s.