(dp0
Vdkfh889
p1
I1
sVdn648ns
p2
I1
sVd16jt6r
p3
I1
sVczid9wi
p4
I2
sVdea8qey
p5
I1
sVd668bff
p6
I1
sVdg46s69
p7
I1
sVdey9o04
p8
I1
sVd5jszct
p9
I1
sVd9hggdl
p10
I1
sVd9tvhsz
p11
I4
sVde61n8q
p12
I1
sVdipjux9
p13
I1
sVd0e86c2
p14
I1
sVdav56ob
p15
I1
sVd5b68p2
p16
I1
sVdk18d8c
p17
I1
sVd63vcfc
p18
I1
sVdkpuawv
p19
I1
sVczsah6a
p20
I1
sVd51crpj
p21
I1
sVd0u2wqr
p22
I1
sVd27cvhp
p23
I1
sVczo1g5m
p24
I1
sVd4t3gvo
p25
I1
sVdcahndy
p26
I1
sVdggjj9k
p27
I1
sVd3u8eod
p28
I1
sVd34lg50
p29
I1
sVd1vkw5v
p30
I1
sVd91xkop
p31
I1
sVd2pzup6
p32
I1
sVdjp5bbb
p33
I1
sVd9jaqmi
p34
I1
sVdfcklmx
p35
I1
sVczqhhmz
p36
I1
sVd20dpae
p37
I1
sVdfvkj0h
p38
I1
sVdik303e
p39
I1
sVczh634z
p40
I1
sVd2chvpa
p41
I1
sVd2inns2
p42
I1
sVd9r5s26
p43
I2
sVd64dfys
p44
I1
sVdb4ld2l
p45
I1
sVd8ftuoq
p46
I1
sVdr4v2zr
p47
I1
sVcz6n5xl
p48
I2
sVdjqzb34
p49
I1
sVdcgrth6
p50
I1
sVdcpkxun
p51
I5
sVd66o88d
p52
I1
sVdok5od0
p53
I1
sVd8vhr2b
p54
I1
sVdhbrwn8
p55
I1
sVdk2jmc4
p56
I1
sVda7mpbo
p57
I1
sVd4umukg
p58
I3
sVdd00qzt
p59
I1
sVdkaqqbv
p60
I1
sVdcqdbbi
p61
I1
sVd5vr7g4
p62
I1
sVcz1szok
p63
I1
sVdqgkhe4
p64
I1
sVda5x469
p65
I1
sVd1pg8uf
p66
I1
sVdauu1ab
p67
I1
sVdcmkby7
p68
I1
sVdf66jem
p69
I1
sVdeca90d
p70
I1
sVdozuifo
p71
I1
sVd0jr5mt
p72
I1
sVd28390q
p73
I1
sVdbf3fd2
p74
I1
sVd0t6k58
p75
I3
sVd115rgg
p76
I1
sVdeca0w2
p77
I1
sVdeivdi1
p78
I1
sVd91mc77
p79
I1
sVdedvvqz
p80
I1
sVd50ks10
p81
I2
sVdb5fg3r
p82
I1
sVdbgkptv
p83
I1
sVczawvgz
p84
I1
sVd5o9tq3
p85
I1
sVdboc5wl
p86
I1
sVd11zmu3
p87
I1
sVdki4arc
p88
I1
sVdhfh1xf
p89
I1
sVd7l8sxo
p90
I1
sVcyxtie4
p91
I1
sVdoqu48b
p92
I2
sVdcjitbx
p93
I1
sVdrgh31i
p94
I1
sVdavgdbd
p95
I1
sVdcb0kz2
p96
I1
sVd37i5dz
p97
I1
sVd4d9nsi
p98
I1
sVdgi6q1i
p99
I1
sVdi9et8d
p100
I1
sVdnm132e
p101
I1
sVdgbb3ue
p102
I1
sVdgcql5u
p103
I1
sVczc8pkj
p104
I1
sVdj5gjcc
p105
I1
sVdn3ann3
p106
I1
sVdajyxkc
p107
I1
sVd62doy8
p108
I1
sVd56fhft
p109
I1
sVczy7ym6
p110
I1
sVcz08s4v
p111
I1
sVds0xl7k
p112
I1
sVdp11dqg
p113
I1
sVd4ze698
p114
I2
sVd01oz4o
p115
I1
sVda5uolw
p116
I1
sVdklfvx4
p117
I2
sVd5dov81
p118
I1
sVd2hxfwv
p119
I2
sVd115qri
p120
I1
sVdmqxbx2
p121
I1
sVd2p3p0o
p122
I1
sVdh66a2d
p123
I1
sVdt3i1lh
p124
I1
sVd509qat
p125
I1
sVde6f47n
p126
I1
sVczq5bao
p127
I1
sVdi2xl5n
p128
I1
sVd3tjpmc
p129
I1
sVdn9sple
p130
I1
sVdovq1t7
p131
I1
sVdefs9ca
p132
I1
sVdnf2cfb
p133
I1
sVdnr5biv
p134
I1
sVdcyt7oz
p135
I1
sVdfio87u
p136
I1
sVddbo7i9
p137
I1
sVdf9b8tm
p138
I1
sVdiztk81
p139
I1
sVd0lntqk
p140
I1
sVd3orqf8
p141
I1
sVcysakg2
p142
I1
sVd0qlh8g
p143
I1
sVdpyyvdt
p144
I1
sVd8yty73
p145
I1
sVdbs7cvd
p146
I1
sVdelxty6
p147
I1
sVczioza8
p148
I1
sVddg7o5q
p149
I1
sVczz2miv
p150
I1
sVdpopwmu
p151
I1
sVdg9dw8n
p152
I1
sVcz46wlk
p153
I1
sVdkvev9g
p154
I1
sVcykuzks
p155
I1
sVdab2k4w
p156
I2
sVd09ouri
p157
I1
sVdb23ccj
p158
I1
sVdgfkdfg
p159
I1
sVd7e1jab
p160
I1
sVd8y1a5r
p161
I1
sVdmlyk6c
p162
I1
sVdgdz0hv
p163
I1
sVd6m5opa
p164
I1
sVdckfl8o
p165
I1
sVdjj78t2
p166
I1
sVcz86637
p167
I2
sVd66tesc
p168
I2
sVd7p3jzg
p169
I1
s.