(dp0
Vdo6qisz
p1
I1
sVda5u8ns
p2
I1
sVd1hrqlj
p3
I1
sVdjj9qn8
p4
I1
sVdf66lxp
p5
I1
sVd8fh6d5
p6
I1
sVdohkp3e
p7
I1
sVd13ptkq
p8
I1
sVdcg8x7c
p9
I1
sVdf6gyol
p10
I1
sVd8o2q04
p11
I1
sVcz7nvkr
p12
I2
sVdc9wq32
p13
I1
sVd1hft9x
p14
I1
sVd8xsz1h
p15
I2
sVd592225
p16
I1
sVd9qoc20
p17
I4
sVded9278
p18
I1
sVdqaytzb
p19
I1
sVde2dvom
p20
I1
sVddllz4b
p21
I1
sVd0ouv8o
p22
I1
sVdqqsb4p
p23
I1
sVdg4c3nk
p24
I3
sVd9p220s
p25
I2
sVdjzcard
p26
I5
sVdmtbier
p27
I1
sVd7ghqju
p28
I2
sVd2g38xa
p29
I1
sVdb7l65v
p30
I1
sVd8fuq98
p31
I1
sVdfyaflv
p32
I1
sVczc7jjf
p33
I1
sVddwmz0a
p34
I2
sVddcbt3e
p35
I1
sVdglfkzb
p36
I1
sVdslm7yz
p37
I1
sVdhfzjxu
p38
I1
sVddw8tsa
p39
I1
sVdh66lo8
p40
I1
sVddiexzb
p41
I1
sVda5x469
p42
I1
sVdb0fx9k
p43
I1
sVd69nmhh
p44
I1
sVdp3tpiu
p45
I1
sVd2yxix6
p46
I1
sVdh18fr0
p47
I5
sVdbhx8cu
p48
I1
sVdde4dzn
p49
I1
sVd0244ef
p50
I1
sVd6ylw14
p51
I1
sVd08t6ka
p52
I2
sVd61y95x
p53
I2
sVd58pvur
p54
I1
sVd8f5ge6
p55
I1
sVdmpfv2y
p56
I2
sVdju43oo
p57
I1
sVd2pqyha
p58
I1
sVcymhmvu
p59
I2
sVdpm2crv
p60
I1
sVdgl8un1
p61
I1
sVdehgsno
p62
I3
sVdevvd41
p63
I1
sVdnw04tc
p64
I1
sVd5fc7t8
p65
I1
sVd9qfe8g
p66
I1
sVdgagfu7
p67
I1
sVdq4o1sm
p68
I1
sVd2gl5hk
p69
I1
sVdb7kz0j
p70
I1
sVd32b6xz
p71
I1
sVdit0icw
p72
I1
sVd3avana
p73
I1
sVdmk0qpg
p74
I2
sVd1d09ig
p75
I1
sVd6ni15r
p76
I1
sVdk4dq0w
p77
I3
sVddktme0
p78
I1
sVd4hslvt
p79
I1
sVdmy1f9t
p80
I1
sVczm23gm
p81
I1
sVdi804hs
p82
I1
sVdfwi096
p83
I1
sVd2tnnmt
p84
I1
sVdhec16j
p85
I1
sVdkswqm9
p86
I1
sVdntx6zg
p87
I1
sVd85bf52
p88
I1
sVd1irupf
p89
I1
sVcyyrooy
p90
I1
sVdo3vf41
p91
I1
sVd27k78w
p92
I1
sVdk5dev9
p93
I2
sVdhsw5hg
p94
I2
sVdf32bk3
p95
I1
sVd5rp6hu
p96
I1
sVd2wkx29
p97
I1
sVd0e089k
p98
I1
sVdsgv4sa
p99
I1
sVdf7h5nm
p100
I2
sVcz22325
p101
I1
sVd5l0u77
p102
I1
sVdd03bf6
p103
I1
sVddtb30c
p104
I5
sVd0yfsh0
p105
I1
sVd8fqmav
p106
I1
sVdig663w
p107
I1
sVd67i29n
p108
I1
sVdcir0dz
p109
I2
sVdhgde7k
p110
I1
sVdc8pw70
p111
I2
sVd87nohh
p112
I1
sVd4h2ywa
p113
I3
sVde0jz7f
p114
I2
sVdktiygp
p115
I1
sVdsuxaqr
p116
I1
sVdbv0pkq
p117
I1
sVd3n4rao
p118
I1
sVdsjdv3h
p119
I1
sVd47kyy0
p120
I1
sVd45y91l
p121
I7
sVdqmnp3d
p122
I1
sVd9fxpx8
p123
I6
sVddtabf3
p124
I1
sVddg6ihn
p125
I1
sVdpyjm8i
p126
I1
sVd9ewpvx
p127
I1
sVd8ftuoq
p128
I1
sVdaznfrv
p129
I1
sVd5kxofq
p130
I1
sVd8gy953
p131
I1
sVdnh5do1
p132
I1
sVd80gkqc
p133
I5
sVddbxav0
p134
I1
sVdgn9079
p135
I1
sVd1csvpj
p136
I3
sVdhr3f7h
p137
I1
sVcykt1qv
p138
I2
sVdhq2ipx
p139
I1
sVcyp3f90
p140
I2
sVd5c8ij1
p141
I1
sVd9lupnw
p142
I1
sVd5vv0ah
p143
I1
sVdepktda
p144
I4
sVd67rqej
p145
I1
sVdcwo5jq
p146
I1
sVdgj2xdc
p147
I2
sVdedlpvb
p148
I2
sVddbrga1
p149
I1
sVd1uw8ac
p150
I1
sVd13ocw9
p151
I3
sVdf9ttro
p152
I3
sVd4e2shu
p153
I1
sVczevsun
p154
I1
sVdp2fivd
p155
I6
sVdfie8th
p156
I1
sVdd7lenr
p157
I1
sVczz6qod
p158
I1
sVd5h6pch
p159
I1
sVdj2t96i
p160
I2
sVd9cyynr
p161
I2
sVd8vhz7h
p162
I1
sVdfurk59
p163
I1
sVdjpd3fq
p164
I1
sVdmx1ok0
p165
I2
sVdjwyeom
p166
I1
sVdi3j762
p167
I1
sVdi9foav
p168
I1
sVdnyhn9r
p169
I1
sVdbkl6sp
p170
I1
sVdimrhzf
p171
I1
sVdheufe0
p172
I2
sVd559sdo
p173
I5
sVd3rt6cl
p174
I1
sVd47lcwi
p175
I3
sVdnjo6rb
p176
I1
sVdccxvxk
p177
I1
sVddbqzg6
p178
I1
sVcyyazsb
p179
I2
sVd2q3cvu
p180
I2
sVd5l0aox
p181
I1
sVdhg96ag
p182
I1
sVd86xmto
p183
I1
sVdd4r5xi
p184
I1
sVdk3a3fr
p185
I1
sVdcy2vnw
p186
I2
sVd6splw1
p187
I2
sVdgzstnk
p188
I1
sVdehwn30
p189
I1
sVdpykzye
p190
I1
sVdf1xenw
p191
I1
sVd96z37c
p192
I1
sVd0brja3
p193
I1
sVdiikorb
p194
I1
sVdhfz6kv
p195
I2
sVd7f84d7
p196
I3
sVdcl2mno
p197
I1
sVd1vlcxd
p198
I1
sVd68exak
p199
I3
sVdbf8p27
p200
I2
sVdae96i3
p201
I1
sVd5f15wb
p202
I1
sVd0fa5eq
p203
I2
sVddstjq5
p204
I2
sVd2i0lao
p205
I4
sVd25zgei
p206
I4
sVd5r7gaf
p207
I2
sVd9fxkwi
p208
I2
sVdswuehy
p209
I1
sVcyyxtnv
p210
I1
sVddwrbe4
p211
I1
sVddvqpw8
p212
I1
sVdkw99qz
p213
I1
sVd2ibchp
p214
I1
sVczoveo6
p215
I1
sVd1crgi8
p216
I3
sVd1a6gzz
p217
I1
sVd6qgzoc
p218
I4
sVd9gm8ju
p219
I1
sVdilzk9l
p220
I1
sVddye5ft
p221
I1
sVdc3b1c3
p222
I1
sVdt2omlw
p223
I1
sVcz1q7pm
p224
I1
sVd0yfhme
p225
I1
sVdgal1lx
p226
I2
sVdhio97c
p227
I2
sVd0yjrat
p228
I1
sVdhrtvyx
p229
I4
sVdehpa0w
p230
I1
sVddusuir
p231
I1
sVd4jmdun
p232
I1
sVdqxyem5
p233
I1
sVd4px1ch
p234
I2
sVd8gxx5d
p235
I2
sVdmunyn4
p236
I1
sVd01lvz6
p237
I2
sVddgr1oj
p238
I1
sVd6cov3a
p239
I3
sVd69g543
p240
I1
sVdqlzoor
p241
I1
sVd6vpebh
p242
I1
sVczf077v
p243
I1
sVdmngycm
p244
I1
sVd48s3ue
p245
I3
sVdju9isl
p246
I1
sVd1dn7fl
p247
I1
sVd0yeqkm
p248
I2
sVczg5p6g
p249
I1
sVdomwqvo
p250
I1
sVdcmnlpm
p251
I1
sVdc8ogpa
p252
I1
sVcylk68w
p253
I3
sVd04vjrd
p254
I1
sVdimhz9b
p255
I4
sVdd4wiio
p256
I3
sVdc7c74l
p257
I1
sVddwi07e
p258
I2
sVdgonb43
p259
I1
sVdqgu60f
p260
I1
sVdrkcq7o
p261
I5
sVdrlmhys
p262
I1
sVd6n2p09
p263
I3
sVdfon55z
p264
I1
sVcz28r6p
p265
I2
sVcyrgjk5
p266
I1
sVd40tinw
p267
I1
sVd7vxjoz
p268
I1
sVczgk58q
p269
I1
sVd4mbere
p270
I2
sVdcmcddx
p271
I1
sVd5qkimc
p272
I1
sVd3k1ixa
p273
I1
sVddvtjt4
p274
I1
sVd2o27qh
p275
I1
sVd9fyii5
p276
I1
sVdmxb43k
p277
I1
sVczca197
p278
I1
sVd13oegw
p279
I5
sVdpymzqm
p280
I2
sVdf2mpxm
p281
I1
sVdb7dqyo
p282
I1
sVd4i94mb
p283
I1
sVdjxvusc
p284
I2
sVdqn21vr
p285
I3
sVdb89ivi
p286
I1
sVd48ryax
p287
I1
sVdc85rx9
p288
I1
sVd7gdi3c
p289
I1
sVd69m96g
p290
I2
sVdb7ekaa
p291
I3
sVddbxi3w
p292
I1
sVdrkdmli
p293
I2
sVdj8vrtj
p294
I2
sVd5sfhm3
p295
I1
sVdjxwbs7
p296
I2
sVdb7qstk
p297
I2
sVdrl4odb
p298
I1
sVd4mbyc2
p299
I2
sVdbla85e
p300
I1
sVd08j3p1
p301
I2
sVdj3cy3f
p302
I1
sVd06cmbf
p303
I1
sVdmjmjql
p304
I1
sVdeohjtw
p305
I2
sVdj8nop5
p306
I1
sVdglxqdb
p307
I3
sVd1hwlvo
p308
I5
sVd0bd2st
p309
I1
sVd5xd20s
p310
I1
sVczjyymv
p311
I1
sVdbk3322
p312
I1
sVdoylhw4
p313
I1
sVdrrbl6k
p314
I1
sVdhe0tdu
p315
I3
sVdgvmadb
p316
I3
sVd8lgxtb
p317
I1
sVd1lca7e
p318
I1
sVd68illg
p319
I1
sVdgl8rnl
p320
I1
sVczfm13q
p321
I1
sVdi3o15p
p322
I1
sVd037hmx
p323
I1
sVd2kyxwf
p324
I1
sVdkx69lg
p325
I3
sVd0pwr9m
p326
I1
sVdjmi6g1
p327
I1
sVd3did4o
p328
I4
sVd3zcl86
p329
I1
sVdj56a06
p330
I1
sVdnlvs50
p331
I2
sVddwpu7l
p332
I1
sVd7uuttb
p333
I4
sVdck2db2
p334
I1
sVd0yf2b2
p335
I1
sVczu106w
p336
I1
sVdbjgki7
p337
I1
sVczjz4oa
p338
I1
sVcz2nl3x
p339
I1
sVdevvfq7
p340
I1
sVdimj7zu
p341
I1
sVdjvvwov
p342
I3
sVd0dgn30
p343
I3
sVdshn305
p344
I1
sVd75ujnf
p345
I1
sVdcf2ujf
p346
I1
sVdnyrdm6
p347
I1
sVddyfmhw
p348
I1
sVd5hze1s
p349
I1
sVcz9ne50
p350
I1
sVdebiai1
p351
I3
sVdpyjkt0
p352
I4
sVdiko47w
p353
I1
sVd6qsy92
p354
I1
sVd08f9q4
p355
I2
sVde6mhmp
p356
I1
sVdb78zjl
p357
I1
sVd3wp97t
p358
I1
sVd8d805g
p359
I1
sVdo1miya
p360
I1
sVd05kdmd
p361
I1
sVdsml7e3
p362
I1
sVdepjf0r
p363
I2
sVdeh4c8y
p364
I3
sVd8f4xky
p365
I2
sVd6hfzip
p366
I1
sVd1o8d1g
p367
I1
sVd3h8j8z
p368
I2
sVdj0v5jr
p369
I1
sVddgpzl3
p370
I2
sVddol8hh
p371
I1
sVdafzfpt
p372
I1
sVd9cn6gu
p373
I3
sVdit7lk0
p374
I1
sVdhlrven
p375
I1
sVd6lq5rh
p376
I4
sVd9cw42c
p377
I1
sVdb8ados
p378
I1
sVdrxv756
p379
I1
sVd1hbq8d
p380
I2
sVdhe2825
p381
I1
sVd7aygyf
p382
I1
sVdbi5d78
p383
I1
sVdcsmurj
p384
I1
sVczdtnf3
p385
I1
sVda18cxu
p386
I1
sVdjbcnbb
p387
I1
sVdter26k
p388
I1
sVdcmgplj
p389
I1
sVd8f53qg
p390
I1
sVdilzc10
p391
I1
sVdmja3tc
p392
I1
sVdqmco9v
p393
I1
sVczfyvmw
p394
I1
sVdfio3s8
p395
I2
sVdmk13ps
p396
I2
sVdd25qvz
p397
I1
sVd90g36k
p398
I2
sVd55bx5d
p399
I1
sVdfjkw89
p400
I1
sVdhomt8l
p401
I1
sVdsajdxc
p402
I1
sVdtgpgw4
p403
I1
sVdavedm7
p404
I2
sVddj56m9
p405
I2
sVczc8i7q
p406
I12
sVd8mnrm6
p407
I1
sVdjhkmzj
p408
I1
sVd5a4j08
p409
I1
sVdmutt49
p410
I3
s.