(dp0
Vds14v44
p1
I1
sVdhjzq9b
p2
I1
sVdjc9gk1
p3
I1
sVd0hveuu
p4
I1
sVdem9kpw
p5
I1
sVd4qhrsm
p6
I2
sVdsclys3
p7
I1
sVcyjnvec
p8
I1
sVdakgj9e
p9
I1
sVd47l8j5
p10
I1
sVdqp4luq
p11
I1
sVd4qjthv
p12
I2
sVd8c75b9
p13
I1
sVdjc8efa
p14
I1
sVdcevweh
p15
I1
sVd1z8i4a
p16
I1
s.