(dp0
Vd9bj06o
p1
I1
sVdbnsjgc
p2
I1
sVd4gxhnb
p3
I1
sVdt2mefd
p4
I1
sVd6qawee
p5
I2
sVdnvg671
p6
I1
sVd3gtigx
p7
I2
sVd3f3hbu
p8
I13
sVd5z3x74
p9
I5
sVdarkotp
p10
I2
sVd7qg5n9
p11
I1
sVdsxhzt4
p12
I1
sVd6ge6me
p13
I1
sVdh8nkyp
p14
I1
sVcz7yrk8
p15
I2
sVdjq7q1f
p16
I1
sVdpthxza
p17
I4
sVdihiqr3
p18
I1
sVdgmx6x0
p19
I1
sVdhujmew
p20
I1
sVdauu54v
p21
I1
sVdn26p1v
p22
I1
sVds3ltfo
p23
I1
sVd7pb80q
p24
I1
sVdnwsoc7
p25
I1
sVdrhz48v
p26
I1
sVdelglak
p27
I1
sVdaume9b
p28
I4
sVddetnje
p29
I1
sVd9nwqxj
p30
I4
sVd7qqhxy
p31
I4
sVd5ekzbv
p32
I1
sVddgslz4
p33
I1
sVdh0w7i1
p34
I1
sVd3dp796
p35
I1
sVddbay7t
p36
I2
sVd8yuwox
p37
I1
sVdeksu0e
p38
I1
sVdbntcsl
p39
I3
sVdtegp5m
p40
I1
sVd4id2s4
p41
I4
sVd46lxh7
p42
I2
sVdeqgg1c
p43
I1
sVd3ajm3a
p44
I1
sVdkewisc
p45
I3
sVdeeym0y
p46
I1
sVddzee75
p47
I1
sVdhl8m2m
p48
I2
sVdk2hlk9
p49
I1
sVd6wbspm
p50
I1
sVcyivxmt
p51
I1
sVd2w9oul
p52
I2
sVdjiogn2
p53
I2
sVd0u4npl
p54
I1
sVdsw48hr
p55
I1
sVd3wvbku
p56
I1
sVdd13nh2
p57
I1
sVcz0qjl2
p58
I1
sVdo51o49
p59
I1
sVdsiivjz
p60
I2
sVd4a052b
p61
I1
sVcyycrq9
p62
I5
sVd1rk6u8
p63
I1
sVd5nnpba
p64
I1
sVdsvcabz
p65
I6
sVd641zgh
p66
I1
sVczpr9of
p67
I1
sVdpry0lu
p68
I1
sVdcpn03d
p69
I1
sVdbde2j8
p70
I1
sVddb9zss
p71
I3
sVd2beu10
p72
I9
sVdkw0fpp
p73
I1
sVdbv51si
p74
I1
sVdf7ituv
p75
I1
sVd5owepj
p76
I1
sVdedn6nb
p77
I1
sVdr353lb
p78
I1
sVczetb68
p79
I1
sVd5gvl9s
p80
I2
sVdantvg7
p81
I1
sVcyxexm4
p82
I1
sVcyo583h
p83
I2
sVd08e75e
p84
I1
sVd7kl3pp
p85
I3
sVdo5p8oe
p86
I1
sVdcbeure
p87
I1
sVdrxrms9
p88
I1
sVdaoig22
p89
I1
sVdt38ljj
p90
I1
sVd6qsoh3
p91
I1
sVcysjp49
p92
I2
sVdavapn7
p93
I1
sVd4m7fxp
p94
I1
sVczovroc
p95
I1
sVdjpm9r9
p96
I2
sVd45qan6
p97
I2
sVd8i32b1
p98
I2
sVd4bwsll
p99
I1
sVd398f3h
p100
I1
sVddlv0yd
p101
I1
sVddtee5o
p102
I11
sVd92t88i
p103
I1
sVdkegnf2
p104
I2
sVd5xpsh6
p105
I1
sVczksrq7
p106
I3
sVdi4l3hn
p107
I2
sVd2qzdhd
p108
I1
sVd3gj0sx
p109
I1
sVdoiguh4
p110
I1
sVdt8xilo
p111
I1
sVdhjqol2
p112
I1
sVd91uyh8
p113
I2
sVdhyth3h
p114
I3
sVdfk9bu1
p115
I1
sVdgp40eg
p116
I1
sVd5jyg65
p117
I1
sVdnl3a5s
p118
I5
sVd9gz7ok
p119
I2
sVdjja4d5
p120
I2
sVd2u94hz
p121
I1
sVdbqm2l3
p122
I6
sVddypup4
p123
I2
sVd44c2pi
p124
I1
sVdr1geya
p125
I1
sVd5k7hc8
p126
I1
sVd18xrze
p127
I1
sVd9gz8kr
p128
I3
sVdbnxm4m
p129
I1
sVcysnthf
p130
I1
sVdavax0h
p131
I2
sVdi9z421
p132
I1
sVd7xz4y4
p133
I1
sVdmu2ptr
p134
I10
sVd926aan
p135
I2
sVd0qpelf
p136
I1
sVd3qh4du
p137
I3
sVd7f9hze
p138
I1
sVd608mjt
p139
I1
sVdp4t620
p140
I1
sVdd50wmc
p141
I1
sVded5n3k
p142
I1
sVd9gobti
p143
I1
sVdjcnzbv
p144
I2
sVdau7nea
p145
I1
sVdav85hx
p146
I2
sVdb3glot
p147
I1
sVdj67g21
p148
I1
sVdrryhgr
p149
I2
sVcyzwtyw
p150
I1
sVdal32st
p151
I1
sVd6iekp5
p152
I1
sVdblqo03
p153
I1
sVdeqm8dd
p154
I1
sVdaxf9bq
p155
I4
sVdgdl8bn
p156
I1
sVdmjx4dm
p157
I4
sVd1u4hj6
p158
I2
sVd5vwa8u
p159
I5
sVd9wrj9m
p160
I1
sVd3kg7b9
p161
I2
sVdhujp6b
p162
I1
sVdmzlv63
p163
I3
sVd198kvo
p164
I1
sVdhcokxv
p165
I2
sVd597752
p166
I2
sVdclisbg
p167
I3
sVdq70ljn
p168
I1
sVczek3hw
p169
I1
sVdddz0e8
p170
I3
sVd3diu75
p171
I2
sVd3atcpw
p172
I1
sVd3arglc
p173
I1
sVddq1ynh
p174
I1
sVdg9chwe
p175
I1
sVd75ch7h
p176
I1
sVdim5p10
p177
I2
sVd25jbbx
p178
I6
sVdnwdp1a
p179
I2
sVdf7tqox
p180
I1
sVd3git2d
p181
I1
sVddesa8k
p182
I1
sVdp35xcu
p183
I6
sVczlrzn9
p184
I1
sVdrxrc9s
p185
I3
sVcz9lg9m
p186
I1
sVdnf08ar
p187
I1
sVd9tz9ik
p188
I1
sVcypqscn
p189
I3
sVdh1t400
p190
I2
sVd8ndsdw
p191
I2
sVdd5bo5p
p192
I1
sVdg1sw0p
p193
I1
sVdjw3r1u
p194
I1
sVd01cen5
p195
I4
sVdaibhab
p196
I3
sVd79ybzt
p197
I1
sVczrwq5z
p198
I2
sVd76pgb3
p199
I1
sVdel51vd
p200
I1
sVddm978a
p201
I1
sVd89sile
p202
I2
sVdnuxvm9
p203
I1
sVdmfkj3f
p204
I1
sVd5kguox
p205
I2
sVdkdybki
p206
I2
sVdiis4iw
p207
I1
sVddbed69
p208
I1
sVdhjp6iu
p209
I2
sVcykuhwm
p210
I5
sVdfu22ha
p211
I1
sVdora7qt
p212
I5
sVd92d2ca
p213
I1
sVd16whe7
p214
I4
sVdk3iemo
p215
I5
sVdkvw8n9
p216
I4
sVdh71mjh
p217
I1
sVd3pkwj5
p218
I1
sVdbd3fhf
p219
I4
sVczks34i
p220
I4
sVdq1pif6
p221
I1
sVd6flrjv
p222
I1
sVdfp3qj8
p223
I1
sVcyrg0df
p224
I1
sVdjsggmt
p225
I1
sVdk0ispj
p226
I1
sVdrpq8z3
p227
I3
sVdbwgaci
p228
I1
sVd9hzvjs
p229
I1
sVcyiianv
p230
I2
sVd1txdyq
p231
I1
sVd10o92i
p232
I1
sVdj5pgwn
p233
I4
sVdag0cp9
p234
I1
sVd9z4zmj
p235
I1
sVdgiydt3
p236
I1
sVd6lup8c
p237
I1
sVdnxu714
p238
I1
sVd1gnbvl
p239
I1
sVdr3d2so
p240
I1
sVdt52vf4
p241
I1
sVddlrhku
p242
I3
sVd4ii1sj
p243
I1
sVdqpmcyw
p244
I1
sVd4nwzwf
p245
I2
sVdtatior
p246
I2
sVddbef07
p247
I2
sVdelkzvu
p248
I1
sVd4l2iwl
p249
I1
sVd0nw4a1
p250
I9
sVcyl9fev
p251
I1
sVd6wo17c
p252
I4
sVdj5hnl7
p253
I1
sVd752q4r
p254
I1
sVdgh3j7o
p255
I7
sVd3i0b6f
p256
I2
sVdnvkwgj
p257
I1
sVdd3o6p8
p258
I1
sVczr3i34
p259
I2
sVd4cocct
p260
I1
sVdn5u4ex
p261
I1
sVd9l7k3b
p262
I1
sVd68rabt
p263
I2
sVde0gv11
p264
I1
sVd4kfvoy
p265
I2
sVczieb1s
p266
I8
sVd8rvcrc
p267
I1
sVd5929tj
p268
I4
sVdaxkx0s
p269
I1
sVd225199
p270
I3
sVdnixr8h
p271
I1
sVdd8odsl
p272
I1
sVd7zr2v7
p273
I1
sVd2boauf
p274
I1
sVd3af7wy
p275
I2
sVd8pbscd
p276
I1
sVdkaurhz
p277
I1
sVddbl2pf
p278
I3
sVdgd14l2
p279
I2
sVdmjoknz
p280
I1
sVdaf6xob
p281
I1
sVdh1z1mw
p282
I1
sVd928cl6
p283
I1
sVd8g3x74
p284
I1
sVd5sssyd
p285
I1
sVdhjmobl
p286
I1
sVd3ghpev
p287
I1
sVczx0mln
p288
I1
sVcymm0vy
p289
I1
sVd6kngis
p290
I2
sVd5svz91
p291
I1
sVd35ckt7
p292
I4
sVdbuxjs0
p293
I1
sVd5muuq0
p294
I1
sVd3i6aa6
p295
I2
sVd0c9xx8
p296
I1
sVd31xws1
p297
I1
sVd9ac76v
p298
I1
sVdeh3gr4
p299
I1
sVdo4es0c
p300
I1
sVd8j06mz
p301
I1
sVd1u20k6
p302
I1
sVdnkrvng
p303
I1
sVczehoqx
p304
I2
sVd58gify
p305
I1
sVdjod2cg
p306
I1
sVczukbpw
p307
I1
sVd3pvor9
p308
I1
sVdggj2ei
p309
I1
sVcz9m147
p310
I2
sVdi9z3fq
p311
I1
sVdcfhnoc
p312
I1
sVdhnkhlr
p313
I8
sVdae64sa
p314
I2
sVd5lf5co
p315
I3
sVdk9yfv6
p316
I3
sVdd4ziaz
p317
I2
sVdd36ves
p318
I1
sVd1u84vw
p319
I1
sVdeijz2y
p320
I2
sVdcr66tc
p321
I1
sVdrfkm92
p322
I1
sVdbax1w4
p323
I1
sVdnoty3q
p324
I1
sVdqcmaqg
p325
I1
sVd1gt927
p326
I1
sVd4rglvb
p327
I1
sVdmlh50c
p328
I1
sVd08fg37
p329
I10
sVd451s5a
p330
I1
sVdk3cdtq
p331
I2
sVdamqh35
p332
I1
sVd49oxmt
p333
I1
sVd35f721
p334
I1
sVddhh6n4
p335
I2
sVdf8guni
p336
I1
sVcz4ygox
p337
I1
sVdhz66sy
p338
I1
sVdhnflrn
p339
I5
sVczo8n2j
p340
I2
sVdpsqicv
p341
I2
sVdqp3msm
p342
I3
sVdbqkkzs
p343
I2
sVd217k9g
p344
I1
sVdbgjqhs
p345
I1
sVd3abef5
p346
I1
sVd3zc6kn
p347
I3
sVd8i1wnb
p348
I1
sVdjn9xw6
p349
I2
sVdg5mi2k
p350
I1
sVdfmc6v3
p351
I1
sVde1y6xw
p352
I8
sVdn3f38w
p353
I3
sVdi2z6dr
p354
I2
sVd8gp35j
p355
I4
sVdrd4xm1
p356
I6
sVdt0r121
p357
I2
sVd9ey9a3
p358
I1
sVd0g3czq
p359
I1
sVd50ss2s
p360
I1
sVd76mjp0
p361
I4
sVdedyngr
p362
I1
sVd7wfoqx
p363
I5
sVdndybfj
p364
I1
sVd26uo7q
p365
I1
sVdildesx
p366
I1
sVdmj3mxp
p367
I2
sVdgeuaif
p368
I2
sVd3qvxka
p369
I2
sVdf4p0fy
p370
I1
sVd7f1q7p
p371
I3
sVdfm49mu
p372
I1
sVdagmnk9
p373
I2
sVd5syn4a
p374
I9
sVcyw727s
p375
I6
sVd58gzgh
p376
I3
sVdjm9e4e
p377
I9
sVd0gfupa
p378
I1
sVdii7tfg
p379
I2
sVdiuj8sj
p380
I1
sVd3jf5hw
p381
I1
sVd16hppk
p382
I1
sVddgk6o2
p383
I1
sVdj8byhg
p384
I1
sVd9ob7hh
p385
I1
sVd3gi6xg
p386
I1
sVddlkwvs
p387
I1
sVdr07sqi
p388
I1
sVd2brb1n
p389
I3
sVd2p3p0o
p390
I1
sVczx1ll8
p391
I1
sVcyoikyo
p392
I1
sVd5u9u06
p393
I1
sVd5jv9iv
p394
I3
sVcz5kji1
p395
I2
sVdhdv3jg
p396
I1
sVdhm42vz
p397
I4
sVdsoekpp
p398
I1
sVdd3odw9
p399
I1
sVde88u2p
p400
I2
sVddxcx1e
p401
I1
sVd6qa0a1
p402
I6
sVczsy5bu
p403
I2
sVdj6kj42
p404
I5
sVdb57h9n
p405
I1
sVd3quc6n
p406
I1
sVd4ukul7
p407
I1
sVdfltsnk
p408
I1
sVd1gqcxj
p409
I4
sVdnsyr1p
p410
I1
sVdou5t73
p411
I1
sVddnwnnw
p412
I3
sVd1qffch
p413
I1
sVdejlt83
p414
I1
sVdh82cfc
p415
I5
sVd58guek
p416
I2
sVd3yjt0t
p417
I1
sVd7i45ec
p418
I1
sVd88fqzz
p419
I2
sVd0ps8mx
p420
I2
sVcyzsgax
p421
I1
sVd19s3yj
p422
I1
sVdcywnjm
p423
I10
sVczktfnm
p424
I1
sVdh849yk
p425
I1
sVdeft8tz
p426
I1
sVdge5g02
p427
I1
sVdklzxc6
p428
I2
sVds4dl5n
p429
I1
sVdha7saa
p430
I1
sVdsote64
p431
I1
sVdgjk3f7
p432
I1
sVdiapjtz
p433
I1
sVdpwgl8o
p434
I1
sVd6z68lj
p435
I4
sVd43fkuc
p436
I2
sVcz6txpg
p437
I1
sVdaxme8n
p438
I2
sVdpl2ocl
p439
I7
sVd9ak65k
p440
I2
sVdhuzgfj
p441
I1
sVds9nzn6
p442
I1
sVcyss1n9
p443
I7
sVdk3wla5
p444
I2
sVdtg7kzt
p445
I1
sVdffama3
p446
I1
sVczhfiv3
p447
I2
sVdh7rl81
p448
I5
sVdg02af2
p449
I1
sVdmjq7sv
p450
I1
sVd7qrtqd
p451
I1
sVdkni4jw
p452
I1
sVdczoehy
p453
I1
sVd12z9x9
p454
I1
sVdgb3feq
p455
I1
sVd2ya7qq
p456
I1
sVczdelbe
p457
I1
sVdak7xk8
p458
I1
sVdjjs4yi
p459
I1
sVcz2tgaq
p460
I1
sVdb26v4f
p461
I2
sVd35ef3s
p462
I2
sVdprkkw8
p463
I2
sVdr1wfdg
p464
I1
sVd3afe59
p465
I4
sVdea85fa
p466
I2
sVda8hakj
p467
I1
sVd268lyt
p468
I1
sVcznn2at
p469
I5
sVdijlvcx
p470
I2
sVd0ku12m
p471
I2
sVddxazc6
p472
I1
sVd8a0axg
p473
I1
sVd7zqiha
p474
I1
sVdmshpe0
p475
I1
sVdhhxnhl
p476
I1
sVdiixurm
p477
I1
sVd8th6qz
p478
I1
sVd9ci0ea
p479
I1
sVdk2ikk2
p480
I10
sVdibwpgj
p481
I3
sVdqdqxo1
p482
I1
sVd1b48q5
p483
I3
sVdqtq0wg
p484
I1
sVdr1y967
p485
I1
sVdrjdin5
p486
I1
sVdghmioj
p487
I1
sVdr6zvww
p488
I1
sVd89e2pq
p489
I1
sVdq1n1xu
p490
I1
sVdgli7oa
p491
I1
sVd9lf6hl
p492
I1
sVd6ft8ha
p493
I1
sVd12fgxw
p494
I1
sVd4z9udm
p495
I3
sVd35f2ki
p496
I1
sVdjp79en
p497
I1
sVd16zgid
p498
I1
sVd2boadu
p499
I2
sVd7qkibr
p500
I2
sVcyxmmn3
p501
I1
sVdemcids
p502
I2
sVd3x9366
p503
I3
sVd16hhvc
p504
I3
sVd1vb5k8
p505
I1
sVd2gylc1
p506
I1
sVdgdyx8t
p507
I4
sVd79mi08
p508
I1
sVd7wfmsh
p509
I1
sVd7rj5kh
p510
I1
sVd5wayv8
p511
I1
sVd928hna
p512
I1
sVd5vl4l8
p513
I5
sVd6jbd2q
p514
I7
sVd3eaqxj
p515
I1
sVd02jak7
p516
I1
sVdadq1tx
p517
I5
sVd9vm6lt
p518
I1
sVd1zy3gu
p519
I1
sVdi93xtr
p520
I3
sVd9d8sxp
p521
I7
sVdj5ibw4
p522
I1
sVds3jej8
p523
I1
sVd8r9jr4
p524
I3
sVdflwf2s
p525
I1
sVd7y5ezd
p526
I1
sVdeab7jd
p527
I1
sVdh58dc4
p528
I1
sVdtb85ag
p529
I5
sVd3afgjl
p530
I1
sVdipwzj7
p531
I1
sVd0xvnuu
p532
I1
sVd6x27a3
p533
I1
sVd5z36vv
p534
I2
sVdneiilr
p535
I1
sVdk52ue2
p536
I1
sVcyxt750
p537
I1
sVdffzbad
p538
I6
sVdndhh6v
p539
I1
sVdo8sqte
p540
I2
sVdedszxg
p541
I2
sVdjbqtk9
p542
I1
sVdcfgksu
p543
I1
sVdh4nyja
p544
I26
sVczfuruz
p545
I1
sVdfh39qj
p546
I3
sVdo9boys
p547
I2
sVda7yyt2
p548
I3
sVddba1i5
p549
I6
sVczyz1zt
p550
I1
sVda3eq2r
p551
I1
sVdepizca
p552
I11
sVd7fc2st
p553
I1
sVd4t4nrb
p554
I1
sVdgonb43
p555
I1
sVd342t2i
p556
I2
sVd77qh7o
p557
I1
sVdhucmdx
p558
I1
sVdcu0my2
p559
I1
sVd2h2u7k
p560
I2
sVd16vaao
p561
I1
sVcyqj59d
p562
I4
sVda80vvs
p563
I2
sVd1148x5
p564
I2
sVd1m0116
p565
I1
sVdrxyjgb
p566
I4
sVdf88924
p567
I1
sVczon68e
p568
I2
sVdeuegv8
p569
I2
sVdt7p7ky
p570
I2
sVd10ywyr
p571
I1
sVcyrqnzn
p572
I2
sVdaxbgzg
p573
I2
sVdhxtiez
p574
I1
sVdtgnar8
p575
I1
sVd1tg1l3
p576
I1
sVczm2xgr
p577
I1
sVdb5ucvz
p578
I6
sVdhayy0f
p579
I2
sVde1yf3n
p580
I1
sVdb3iuhx
p581
I1
sVd1wt8fw
p582
I1
sVdf90fq4
p583
I1
sVdrqfcsz
p584
I1
sVdh65gi1
p585
I1
sVdppn7pr
p586
I1
sVd6t0ojx
p587
I1
sVdi18q84
p588
I1
sVd2eftua
p589
I1
sVcyqtjs6
p590
I3
sVdhi0epa
p591
I1
sVd9kgf9m
p592
I1
sVdjuc1u6
p593
I13
sVdjiyaxq
p594
I1
sVd2hk5k8
p595
I6
sVdee7sue
p596
I8
sVdc6by97
p597
I1
sVdgw35ti
p598
I1
sVd85kxge
p599
I1
sVczf15kn
p600
I1
sVd25kmem
p601
I1
sVcyx0kk2
p602
I2
sVd9lrbqj
p603
I12
sVdfp4j5i
p604
I1
sVd2d1ai5
p605
I1
sVd4veayk
p606
I1
sVdia2tqe
p607
I4
sVdnhqgdf
p608
I1
sVd06vbz5
p609
I1
sVdmiwett
p610
I1
sVd8xr2j0
p611
I1
sVdkrhdok
p612
I1
sVczdfos1
p613
I1
sVd1rdqqa
p614
I1
sVdnrwupd
p615
I1
sVdbepqqg
p616
I1
sVdcttosf
p617
I1
sVdjf5moq
p618
I1
sVdhldzib
p619
I2
sVdh6rdl8
p620
I2
sVczr3zas
p621
I1
sVd3lnc5v
p622
I3
sVd85a97o
p623
I2
sVd5ps9cb
p624
I1
sVdbs135a
p625
I1
sVd795l3q
p626
I1
sVd2f0rwf
p627
I1
sVd23uq0c
p628
I1
sVd0nea6m
p629
I1
sVd937rt2
p630
I1
sVd6bj0af
p631
I1
sVd0ctf3m
p632
I1
sVdblg4gg
p633
I2
sVd39yx4p
p634
I1
sVdafa1li
p635
I2
sVd3i924v
p636
I4
sVd4lft04
p637
I1
sVczmnsu3
p638
I1
sVdhhy6bi
p639
I2
sVdqubojl
p640
I1
sVdg2c34m
p641
I7
sVdgppust
p642
I2
sVd3w10zh
p643
I2
sVd1zs2al
p644
I1
sVd1uj5yr
p645
I2
sVdkhorgq
p646
I1
sVd9nvvbl
p647
I1
sVd5jv4vw
p648
I1
sVd1grjg9
p649
I1
sVdeljxue
p650
I1
sVddqcrga
p651
I1
sVczrm7pb
p652
I1
sVdfgsh80
p653
I1
sVcz6n4ep
p654
I1
sVdnhgi1s
p655
I2
sVdpw7h2m
p656
I1
sVd75dxp0
p657
I1
sVd4gulte
p658
I2
sVd9eyap8
p659
I1
sVd4sb0dv
p660
I2
sVdnek8nt
p661
I1
sVd40h2l9
p662
I7
sVdfi8i12
p663
I1
sVd9tvsm2
p664
I3
sVdh1kk3t
p665
I5
sVdt65h12
p666
I1
sVdcd5zt7
p667
I3
sVdhk0zcl
p668
I1
sVdft6kuc
p669
I1
sVd4w89am
p670
I1
sVdd41941
p671
I2
sVdfp0pqc
p672
I1
sVdfxoov7
p673
I2
sVdhjp8bc
p674
I2
sVdqg1hrl
p675
I1
sVdckvlsp
p676
I1
sVd11y5vi
p677
I1
sVdgcnfhr
p678
I1
sVdks130k
p679
I10
sVdi83kcf
p680
I1
sVda7jc7o
p681
I1
sVdog94k1
p682
I4
sVd27ev3u
p683
I1
sVdd5bz88
p684
I2
sVd4bf79u
p685
I1
sVddcg6xi
p686
I1
sVdrqcgjz
p687
I1
sVczy2wpy
p688
I2
sVd260a9e
p689
I1
sVddoa3vk
p690
I1
sVcyxdmoe
p691
I1
sVdjpnymu
p692
I2
sVd9lixop
p693
I1
sVczx86qh
p694
I1
sVdjphinf
p695
I1
sVd9bjjbv
p696
I1
sVdc3c2vf
p697
I1
sVdmvixk2
p698
I3
sVdju5o72
p699
I2
sVd3c0rd9
p700
I1
sVdjl53sc
p701
I1
sVcz0jt22
p702
I6
sVd7d1bgy
p703
I1
sVddgybyy
p704
I1
sVd07rypw
p705
I2
sVd4m7jgm
p706
I5
sVdp7q258
p707
I1
sVd6fg0tn
p708
I1
sVcz4wd9y
p709
I3
sVd4hmxmd
p710
I1
sVd75dtzc
p711
I2
sVd6ue2hw
p712
I2
sVd93w27r
p713
I1
sVdepbj53
p714
I2
sVd641px9
p715
I2
sVdp35a14
p716
I4
sVd6fcz9d
p717
I4
sVdb3bi5l
p718
I2
sVczlxf1q
p719
I1
sVd6l00h2
p720
I2
sVdcifg77
p721
I1
sVdc7990x
p722
I1
sVcys03wo
p723
I2
sVddczw2n
p724
I1
sVd5k6r5p
p725
I2
sVd93z5h2
p726
I4
sVd0tca7v
p727
I4
sVd06ad6v
p728
I2
sVdkf89ba
p729
I2
sVd6fcv4a
p730
I1
sVd8k3n1i
p731
I2
sVcz4b42f
p732
I3
sVd0g38f1
p733
I1
sVdgm72ef
p734
I1
sVdijmaui
p735
I5
sVde3au3l
p736
I4
sVczepcem
p737
I1
sVdb3uhvr
p738
I1
sVdaol9qk
p739
I1
sVd3j4b19
p740
I1
sVd98lz62
p741
I1
sVd1grf2j
p742
I2
sVdbe4lrn
p743
I2
sVdic2qlm
p744
I1
sVdkj01er
p745
I1
sVdnfk3gu
p746
I2
sVdsgspgs
p747
I1
sVdg31tbs
p748
I6
sVdd41q12
p749
I1
sVd79n3in
p750
I1
sVd7goalu
p751
I5
sVczkc9m3
p752
I2
sVdo9b4jo
p753
I1
sVdi1yxjn
p754
I1
sVdi1i0jw
p755
I2
sVd3tbv8x
p756
I2
sVdtjh9ia
p757
I1
sVdnekpvl
p758
I3
sVdcdfp1r
p759
I1
sVczzq24r
p760
I1
sVdik94cb
p761
I1
sVcz2jamd
p762
I1
sVczsvme6
p763
I1
sVd5m64nr
p764
I1
sVdjupe67
p765
I2
sVdazbccn
p766
I1
sVdrxqu6h
p767
I2
sVdd1wl51
p768
I2
sVd9m0mfj
p769
I1
sVd13vjn4
p770
I3
sVcyywrji
p771
I2
sVdbh5bmj
p772
I1
sVdtaxd5k
p773
I1
sVdaxwasv
p774
I3
sVdmjrbnu
p775
I1
sVd1b0761
p776
I1
sVdoclopv
p777
I1
sVdn457lk
p778
I1
sVd1ykehj
p779
I1
sVczv6jaz
p780
I1
sVczeit6o
p781
I1
sVdriy07v
p782
I2
sVdk4q0wr
p783
I3
sVdg1v4y1
p784
I1
sVczx2ugg
p785
I3
sVd93it8j
p786
I2
sVd9kgnym
p787
I1
sVd9gzs1u
p788
I11
sVdb3rzwb
p789
I6
sVcysufub
p790
I3
sVd36s1u6
p791
I1
sVdneit0q
p792
I1
sVde1ya39
p793
I1
sVdhnvap9
p794
I1
sVd4z5tgm
p795
I2
sVd906bzm
p796
I2
sVd556rgl
p797
I1
sVdatbd90
p798
I5
sVd3zzs9h
p799
I3
sVcylgtyt
p800
I1
sVdd53o90
p801
I4
sVd8uwg8z
p802
I1
sVdax9ftl
p803
I1
sVdc9job1
p804
I2
sVd3hz9gp
p805
I1
sVd1c4yyp
p806
I1
sVdbo2cyh
p807
I1
sVcyneiyi
p808
I1
sVdob49my
p809
I4
sVdeenc1g
p810
I3
sVd5jw315
p811
I1
sVd1023zw
p812
I1
sVd2wu6am
p813
I1
sVd6fb85n
p814
I1
sVdem7ee4
p815
I1
sVdfqldat
p816
I1
sVddkyhja
p817
I1
sVdn1n72d
p818
I4
sVd2hk7tn
p819
I1
sVd8l1km1
p820
I3
sVdqcvok0
p821
I3
sVcyohyk0
p822
I2
sVdeo5nh7
p823
I6
sVd2bocrr
p824
I4
sVcymn7mj
p825
I1
sVcz1nwjp
p826
I1
sVdaqnmnu
p827
I1
sVdmjvah9
p828
I2
sVdk0lh8n
p829
I1
sVdarvznn
p830
I2
sVdf4ncv2
p831
I2
sVd1anzxx
p832
I2
sVd56ypk3
p833
I1
sVcyxb2m0
p834
I1
sVdqclyf0
p835
I3
sVcyzyzno
p836
I1
sVdiub6sk
p837
I1
sVd2vn5ve
p838
I3
sVdj1pfiq
p839
I3
sVdjo5zvv
p840
I1
sVczayzab
p841
I2
sVdk07rgp
p842
I1
sVdaui9gt
p843
I2
sVd6zbvrj
p844
I1
sVdogicq9
p845
I1
sVdaxhv94
p846
I1
sVd3i2lj7
p847
I4
sVdauq0u5
p848
I1
sVdbk07oq
p849
I1
sVddwrghs
p850
I1
sVdspl5fh
p851
I3
sVdddz1nr
p852
I1
sVd9dp8yv
p853
I1
sVdo1ma2b
p854
I1
sVdbgje05
p855
I2
sVczqha0z
p856
I1
sVdhnwmzp
p857
I1
sVdizxe6z
p858
I1
sVd0eqc5t
p859
I6
sVd06k5vg
p860
I1
sVdmjop9r
p861
I4
sVd9vsrz0
p862
I1
sVdn0952y
p863
I6
sVdj6lfbq
p864
I1
sVdbivm1m
p865
I1
sVd4l2imq
p866
I2
sVd0l0zzn
p867
I2
sVd2eq6re
p868
I1
sVd1hzhnc
p869
I1
sVczyq4c0
p870
I3
sVdhb3e8x
p871
I4
sVdokyd13
p872
I1
sVd796ozf
p873
I1
sVd2hmrgr
p874
I3
sVd5rbczq
p875
I1
sVdgqb07j
p876
I1
sVdfqbbsv
p877
I2
sVd8thi39
p878
I1
sVd3lis4h
p879
I2
sVdrq818b
p880
I6
sVcyiabbm
p881
I1
sVdhid4cn
p882
I1
sVdpw7mnm
p883
I1
sVd88xunt
p884
I2
sVdhj199s
p885
I2
sVd8i7ihe
p886
I1
sVdoratl6
p887
I3
sVd0pkjma
p888
I1
sVdg08ad3
p889
I1
sVdkk4qg9
p890
I1
sVdgdcjnu
p891
I1
sVd16jumm
p892
I2
sVczko99j
p893
I1
sVdio7x3p
p894
I1
sVd5jv7td
p895
I1
sVdp58t7g
p896
I1
sVdarwjeu
p897
I1
sVdn43a43
p898
I1
sVdi4l0tu
p899
I1
sVd646r79
p900
I1
sVd5xrhdl
p901
I1
sVcz59q08
p902
I1
sVd8z5z7s
p903
I3
sVd0v19n2
p904
I1
sVcz3wss8
p905
I1
sVd6ug1lg
p906
I10
s.