(dp0
Vdhb4ph0
p1
I1
sVdayc063
p2
I1
sVd6x1ibs
p3
I1
sVd4gxhnb
p4
I1
sVd4ksa4d
p5
I1
sVd172iw3
p6
I1
sVdt5bstu
p7
I1
sVd9g0uta
p8
I1
sVdc2mmfc
p9
I1
sVd8yvcgc
p10
I1
sVd12lite
p11
I1
sVd61q4ws
p12
I1
sVd07yvb5
p13
I1
sVd08pqkg
p14
I1
sVdc9e2b9
p15
I1
sVd02gxf8
p16
I1
sVd5e775u
p17
I1
sVd3uw08d
p18
I1
sVdg64fgr
p19
I1
sVd8kj57j
p20
I1
sVdegdjiz
p21
I1
sVcyqcah2
p22
I1
sVczs1w94
p23
I1
sVdt4y8ko
p24
I1
sVdkm5vh0
p25
I1
sVczaur4t
p26
I1
sVdn3rjrn
p27
I1
sVdcfbwaw
p28
I1
sVdf0m7ba
p29
I1
sVd1bweiv
p30
I1
sVdbzejjt
p31
I1
sVd8yvye3
p32
I1
sVdh4wlsv
p33
I1
sVd0oshtk
p34
I1
sVd5zipyr
p35
I3
sVdombjfk
p36
I1
sVdbf4rtt
p37
I1
sVdeqm4xz
p38
I2
sVd4id2s4
p39
I1
sVd7bzngt
p40
I1
sVczhmxa9
p41
I1
sVdgtdy9j
p42
I1
sVd173ivd
p43
I1
sVdftemmx
p44
I1
sVdgf6xt8
p45
I1
sVdqhx4mv
p46
I3
sVcz0zp0c
p47
I1
sVd6r44dn
p48
I1
sVcymb6o8
p49
I1
sVdkqvcfa
p50
I1
sVdbnmxri
p51
I1
sVcyqm69b
p52
I1
sVdmf51m9
p53
I1
sVdfjmsj4
p54
I1
sVcyqctp3
p55
I1
sVczw3fyh
p56
I2
sVd8iau2b
p57
I1
sVddb9zss
p58
I1
sVdd7co59
p59
I1
sVdid4f0u
p60
I1
sVd2d51e0
p61
I1
sVdr8blhx
p62
I1
sVdem0oyy
p63
I1
sVd7yqesp
p64
I1
sVczeb3kz
p65
I1
sVdd1x3vv
p66
I1
sVd9x5ubj
p67
I1
sVdbeuvgk
p68
I1
sVdcbrzp4
p69
I1
sVd9cvskq
p70
I1
sVcyxmnii
p71
I1
sVdmn3889
p72
I1
sVdrb88hl
p73
I1
sVdbezu0b
p74
I1
sVdamdxl4
p75
I2
sVd314w8l
p76
I1
sVd7w1h29
p77
I1
sVd2eqjzx
p78
I2
sVdev06rv
p79
I1
sVdkwlnpi
p80
I1
sVd0p89xt
p81
I1
sVd10smqz
p82
I1
sVddlv0yd
p83
I1
sVdspbpep
p84
I1
sVd5205f9
p85
I1
sVdpw4kmj
p86
I1
sVd2qzdhd
p87
I1
sVdff3v6f
p88
I1
sVd16zyeb
p89
I1
sVddkldc6
p90
I1
sVdj6qpbu
p91
I1
sVd54l7y7
p92
I1
sVdjmjlm6
p93
I1
sVd01yise
p94
I1
sVdiv1iq5
p95
I1
sVdpgke2y
p96
I1
sVdnl3a5s
p97
I1
sVcz4it29
p98
I1
sVd3r6bvc
p99
I2
sVdt38ljj
p100
I1
sVcylldi1
p101
I1
sVd8tawn1
p102
I1
sVd747uba
p103
I1
sVdboiy3k
p104
I1
sVd0zsl65
p105
I1
sVdbesqw8
p106
I1
sVdeog6vq
p107
I1
sVcykd7za
p108
I1
sVdavax0h
p109
I1
sVd2h64c9
p110
I1
sVdfjivck
p111
I1
sVd93cmo7
p112
I1
sVdnnb8kz
p113
I1
sVdi194ja
p114
I1
sVd6s6ayw
p115
I1
sVdr5bhie
p116
I1
sVd5nkk3g
p117
I1
sVd0a0zrq
p118
I1
sVd39s2c6
p119
I1
sVd0ef7em
p120
I1
sVdb9pxlw
p121
I1
sVdau7nea
p122
I1
sVdd4i2q1
p123
I1
sVcz9wc47
p124
I1
sVdpkad0a
p125
I1
sVd5zvl4w
p126
I1
sVdhb3e8x
p127
I1
sVdjml9v3
p128
I1
sVdgrxuew
p129
I1
sVczomy5s
p130
I1
sVdg41zkn
p131
I1
sVdb2qpgw
p132
I1
sVdela5zg
p133
I1
sVd7y6d9j
p134
I1
sVd6hts0k
p135
I1
sVd14szm0
p136
I1
sVd8iuwhc
p137
I1
sVdeje4hg
p138
I1
sVd8l8467
p139
I1
sVd095roh
p140
I1
sVdclca1v
p141
I1
sVd597752
p142
I1
sVd0vrunh
p143
I1
sVd3btztq
p144
I1
sVd01uwj2
p145
I1
sVcyyzwue
p146
I2
sVd3vw05r
p147
I2
sVczgb587
p148
I1
sVddlbaio
p149
I1
sVdehtldn
p150
I1
sVdc4d4cs
p151
I1
sVd2f7zni
p152
I1
sVdmt1kag
p153
I1
sVdncffck
p154
I1
sVd5w9dna
p155
I2
sVd2wpsym
p156
I1
sVdg1cdv8
p157
I1
sVdh5vxh5
p158
I1
sVdf5upxl
p159
I2
sVdh1t400
p160
I1
sVdg6pkak
p161
I1
sVd7inbcx
p162
I1
sVdtecmp9
p163
I1
sVdnx52x4
p164
I1
sVdfikvht
p165
I1
sVdbep1na
p166
I1
sVdhn577d
p167
I1
sVdmjoknz
p168
I1
sVdh8n2tr
p169
I1
sVdiwewj7
p170
I1
sVdd5kohx
p171
I1
sVd80t0f0
p172
I1
sVdismvc3
p173
I1
sVcyi67wo
p174
I1
sVdhd7r88
p175
I1
sVd1ho6b3
p176
I1
sVd1z3fe5
p177
I1
sVdrhqkri
p178
I1
sVd2bhj1r
p179
I1
sVdnm4etm
p180
I4
sVd4ic0i6
p181
I1
sVcz1zbly
p182
I1
sVd766fm8
p183
I1
sVd315vjh
p184
I2
sVd9lf6hl
p185
I1
sVdauh9cz
p186
I1
sVd3sv411
p187
I1
sVdf98nhy
p188
I1
sVd1xdodg
p189
I1
sVdasvq81
p190
I1
sVdbd3fhf
p191
I1
sVdn86cpz
p192
I1
sVd3sybqi
p193
I1
sVd6flrjv
p194
I3
sVd9ogcob
p195
I2
sVdqivq5p
p196
I1
sVd3kfd0f
p197
I1
sVcyisaf1
p198
I2
sVdj5pgwn
p199
I1
sVcz9ygh5
p200
I1
sVd17tkmx
p201
I1
sVd2bhwvr
p202
I2
sVdj1sg4d
p203
I1
sVd8wzoxm
p204
I1
sVdkwb08s
p205
I1
sVd9mrcrk
p206
I1
sVd4t6voh
p207
I1
sVd906bzm
p208
I1
sVd18g6zw
p209
I1
sVdkyq14d
p210
I1
sVdr0mt7m
p211
I1
sVdcdeypw
p212
I1
sVd2vs907
p213
I1
sVdh7c89d
p214
I1
sVd0dq45r
p215
I1
sVdji8y8v
p216
I1
sVdh43kll
p217
I1
sVdeu8fe7
p218
I1
sVd37hy49
p219
I1
sVcyypgtf
p220
I1
sVcz7w99d
p221
I1
sVdel475s
p222
I1
sVd4lhvxx
p223
I1
sVd3fzzvu
p224
I1
sVdh71ote
p225
I1
sVd3hxspm
p226
I3
sVd68byxp
p227
I1
sVd8t1owi
p228
I1
sVd3n4ern
p229
I1
sVdg9o617
p230
I1
sVd2boauf
p231
I1
sVdejrj82
p232
I1
sVdkj0vm8
p233
I1
sVd8onvkq
p234
I1
sVdhdj0bl
p235
I2
sVd0bzo2w
p236
I1
sVd54tnmw
p237
I1
sVczau4sx
p238
I1
sVd0y3f05
p239
I1
sVdh46vw7
p240
I1
sVdevpq9b
p241
I1
sVdaf6xob
p242
I1
sVdhao5bd
p243
I1
sVd04uj61
p244
I1
sVd1xdkfw
p245
I1
sVd928cl6
p246
I1
sVczaa7mi
p247
I1
sVd56i8d6
p248
I1
sVd07o16c
p249
I1
sVdb5nu6k
p250
I1
sVd136ogp
p251
I1
sVd4bu1ze
p252
I1
sVd235gs9
p253
I1
sVddg3dfd
p254
I1
sVczjwpmf
p255
I1
sVdeur8dp
p256
I1
sVd08q3sn
p257
I1
sVd01pc4c
p258
I1
sVdc7o5dc
p259
I1
sVd9ac76v
p260
I1
sVdrqox3l
p261
I1
sVd3ni7dn
p262
I1
sVd1u20k6
p263
I1
sVdqzepx4
p264
I1
sVd17b1ny
p265
I2
sVd10s9ph
p266
I1
sVd7j7w2s
p267
I3
sVdcgaawh
p268
I4
sVd34b31d
p269
I1
sVd2ev89x
p270
I1
sVdccyita
p271
I1
sVdikrg52
p272
I1
sVdcfhnoc
p273
I1
sVdrd4mzs
p274
I1
sVdbdeh21
p275
I1
sVdom9n6g
p276
I2
sVd2hpoky
p277
I1
sVdaivob5
p278
I1
sVdqps8y0
p279
I1
sVdgfdoxn
p280
I2
sVd855chh
p281
I1
sVd1f94dp
p282
I1
sVdaf890e
p283
I1
sVde9pwaa
p284
I2
sVdax15uj
p285
I1
sVd347hyq
p286
I1
sVdskhi08
p287
I1
sVd451s5a
p288
I2
sVd37q8en
p289
I1
sVd35f721
p290
I1
sVdcbac1l
p291
I2
sVdb3xgdq
p292
I1
sVd14694b
p293
I1
sVd6hy3km
p294
I1
sVdju9k2j
p295
I1
sVczkuzu0
p296
I1
sVd8ir6e1
p297
I1
sVd4jq45j
p298
I1
sVdaq4ru7
p299
I5
sVdbmr5sb
p300
I1
sVd81cwrp
p301
I1
sVdp127z6
p302
I1
sVdd4kdnt
p303
I1
sVczz6qod
p304
I2
sVd2hmosy
p305
I1
sVcys55td
p306
I1
sVd3mskx5
p307
I1
sVd6lqdk3
p308
I1
sVcyo8fbf
p309
I1
sVd9o77s3
p310
I1
sVczieb4b
p311
I1
sVd4ysb1o
p312
I1
sVd2sthe7
p313
I1
sVdd0migg
p314
I1
sVd0c0lr6
p315
I1
sVd2ir0ru
p316
I1
sVdejo8ir
p317
I1
sVdbh3cfr
p318
I1
sVdt376y9
p319
I1
sVd9wvov0
p320
I1
sVdbutlia
p321
I1
sVdkna07y
p322
I1
sVd6s41a8
p323
I2
sVdj6jvmo
p324
I1
sVddxnd3b
p325
I2
sVdilij60
p326
I1
sVdia3ej5
p327
I1
sVd50ss2s
p328
I1
sVdt8xilo
p329
I1
sVdbfb4et
p330
I1
sVd29wezi
p331
I1
sVdk0lh8n
p332
I1
sVdo81abc
p333
I1
sVdmj3mxp
p334
I1
sVd5dedis
p335
I1
sVcyia4x0
p336
I1
sVdkx4m9n
p337
I1
sVd7f1q7p
p338
I1
sVd1k75gw
p339
I2
sVdce9caz
p340
I1
sVdcx50ng
p341
I1
sVdegd9mh
p342
I1
sVd5syn4a
p343
I1
sVd9b2k69
p344
I1
sVdhpqjcr
p345
I1
sVd5aw24l
p346
I1
sVdb9k0pp
p347
I1
sVdjrzadk
p348
I1
sVdioshu1
p349
I1
sVdgwuybj
p350
I1
sVdezjqq7
p351
I1
sVdndtdri
p352
I1
sVdmfk6h1
p353
I1
sVd16hppk
p354
I1
sVdf8a6og
p355
I1
sVda0fmag
p356
I1
sVdpfp189
p357
I1
sVd2byrpp
p358
I1
sVcytgwb6
p359
I1
sVd041484
p360
I1
sVdr07sqi
p361
I1
sVcz0yyim
p362
I1
sVd2p3p0o
p363
I1
sVd5i01le
p364
I1
sVddu5v6z
p365
I2
sVdbev5yx
p366
I1
sVdej4awp
p367
I1
sVdbznzne
p368
I1
sVd8vkonw
p369
I1
sVdbytubp
p370
I1
sVdo9yic4
p371
I1
sVd9979ck
p372
I1
sVd3wrq08
p373
I1
sVczks34i
p374
I1
sVd2enmla
p375
I2
sVd0qk4f4
p376
I3
sVd9cvbpi
p377
I3
sVd3onwg6
p378
I1
sVd07k1sg
p379
I1
sVddyormk
p380
I1
sVdd8helg
p381
I1
sVdqe2488
p382
I1
sVd6094il
p383
I1
sVd2otvg2
p384
I1
sVd6ueofo
p385
I2
sVdd4jkc0
p386
I2
sVd3i159s
p387
I1
sVd3udq8y
p388
I1
sVcyzsgax
p389
I1
sVd6yq3ai
p390
I1
sVdhd586p
p391
I1
sVdbezwnn
p392
I2
sVdj56it9
p393
I1
sVdkjc0o0
p394
I1
sVd4p1fcm
p395
I1
sVd5u9u06
p396
I3
sVd61s63z
p397
I1
sVd3rg6gt
p398
I1
sVdeqaw5k
p399
I1
sVdpklr3o
p400
I1
sVdd4sogy
p401
I1
sVcyr8fc5
p402
I1
sVdd6pv4k
p403
I2
sVdb3u6sf
p404
I2
sVdko2knd
p405
I2
sVd7buazc
p406
I1
sVdoeras5
p407
I2
sVdflqckb
p408
I1
sVdnxcdql
p409
I1
sVdmrwkxa
p410
I1
sVdcp54sn
p411
I1
sVdbz7uab
p412
I1
sVda7t9rk
p413
I1
sVdoer7dg
p414
I1
sVd4tdhxd
p415
I1
sVdfbir90
p416
I1
sVd4c3rsm
p417
I1
sVd9iwoil
p418
I1
sVdtc8nfh
p419
I1
sVd8afq18
p420
I1
sVdjhv4nn
p421
I1
sVd0o2dfg
p422
I2
sVdafb4ox
p423
I1
sVd2aqnt5
p424
I1
sVdthjdfs
p425
I4
sVd9s5k4b
p426
I1
sVdaieiu8
p427
I1
sVcyl2h2d
p428
I1
sVdcfpitr
p429
I2
sVdkx8fpz
p430
I1
sVd5e76ej
p431
I1
sVd3kg7b9
p432
I1
sVddx1dw0
p433
I1
sVd85hrje
p434
I2
sVd14ljyi
p435
I1
sVd0anp5b
p436
I3
sVczkwemi
p437
I1
sVdqkox95
p438
I1
sVd2aul6p
p439
I2
sVdk2ikk2
p440
I1
sVd8sv81a
p441
I1
sVdknvomu
p442
I1
sVczt8obg
p443
I1
sVdmibliq
p444
I1
sVd8tl61i
p445
I1
sVdb1o5af
p446
I1
sVdc27yto
p447
I1
sVdmiuboy
p448
I1
sVd19ocov
p449
I2
sVd3ln6yx
p450
I1
sVdbksx34
p451
I1
sVdki4c99
p452
I1
sVdgiydt3
p453
I1
sVdffk4x0
p454
I2
sVd7qkibr
p455
I1
sVdkcws54
p456
I1
sVd8jatze
p457
I1
sVdf9l6kh
p458
I1
sVdj6mk8b
p459
I1
sVdom9q1p
p460
I1
sVd75n54g
p461
I1
sVdncrqzw
p462
I1
sVd79mi08
p463
I1
sVdb6k9iz
p464
I1
sVda45sjz
p465
I1
sVdh82cfc
p466
I1
sVdgem0yr
p467
I2
sVd5vl4l8
p468
I3
sVdao5plk
p469
I1
sVdomx2nr
p470
I1
sVcywr6g0
p471
I3
sVdbz56ub
p472
I1
sVdaci3i0
p473
I1
sVdd3doej
p474
I1
sVdbn5v5g
p475
I1
sVdgy5hko
p476
I1
sVdj5ibw4
p477
I1
sVd4xbv33
p478
I1
sVd3fexif
p479
I1
sVcyqe4p1
p480
I1
sVdexp7y1
p481
I1
sVd8r9jr4
p482
I1
sVdgn2c96
p483
I1
sVdb64a5s
p484
I2
sVdmjnwa5
p485
I2
sVdeab7jd
p486
I1
sVd241kvt
p487
I1
sVdhglr6g
p488
I1
sVdrgjg4v
p489
I1
sVdi1irqh
p490
I2
sVdaq1uvp
p491
I2
sVd0xvnuu
p492
I1
sVczkvzr9
p493
I1
sVd3x7mqv
p494
I1
sVcz53eiq
p495
I1
sVddg0usy
p496
I1
sVczsrfgp
p497
I1
sVdagrjc4
p498
I1
sVd90nllt
p499
I1
sVd2nskom
p500
I1
sVcyrf398
p501
I1
sVcz3nalz
p502
I1
sVd1xcwcz
p503
I1
sVd78chuz
p504
I1
sVdrbx5g9
p505
I1
sVdkbmhge
p506
I1
sVdepizca
p507
I1
sVdaz5ro4
p508
I1
sVdbpsbl2
p509
I2
sVdbx8fi2
p510
I2
sVd77qh7o
p511
I1
sVd477sd8
p512
I3
sVde1yf3n
p513
I1
sVdqg9ck2
p514
I1
sVdk2juvp
p515
I1
sVdt1thc6
p516
I2
sVd5no80j
p517
I1
sVdsfkh7i
p518
I1
sVd7eurpe
p519
I1
sVd2wrzya
p520
I1
sVdev64uo
p521
I1
sVd2emgkp
p522
I1
sVd8eut4o
p523
I1
sVczn4zcz
p524
I1
sVdiql7s9
p525
I1
sVd9edjk9
p526
I1
sVd8vrsyo
p527
I1
sVdd7ccwc
p528
I1
sVd3aierj
p529
I1
sVd9b7reh
p530
I2
sVdd7ak7a
p531
I1
sVdepacra
p532
I1
sVdi9zivv
p533
I1
sVcza0zdc
p534
I1
sVdfkaosp
p535
I1
sVdp7q258
p536
I1
sVdcmei1x
p537
I1
sVdj9da9e
p538
I1
sVd2lu80v
p539
I1
sVdff5a44
p540
I1
sVdaf64t0
p541
I1
sVdf48ohs
p542
I2
sVd75hs8f
p543
I1
sVd16tudc
p544
I1
sVd0faj7p
p545
I1
sVdh2y0s5
p546
I1
sVdc6by97
p547
I1
sVd1kegtc
p548
I1
sVd4ts65l
p549
I1
sVd314mks
p550
I1
sVd6hgf63
p551
I2
sVd3pco3m
p552
I1
sVd9lrbqj
p553
I2
sVdgeln8y
p554
I1
sVdbloezq
p555
I1
sVdjqy228
p556
I1
sVdd73ndu
p557
I1
sVd8xr2j0
p558
I1
sVdasmanl
p559
I1
sVdj7qr1z
p560
I1
sVdjyzjbx
p561
I1
sVda39fan
p562
I1
sVdidilb4
p563
I1
sVd0oj6s8
p564
I1
sVd0rrgbl
p565
I1
sVdgj2o1q
p566
I1
sVd2yysya
p567
I1
sVdfcm4wq
p568
I1
sVd85a97o
p569
I1
sVdi9fs05
p570
I1
sVd8i0he9
p571
I1
sVdckzxi3
p572
I1
sVddwc5hq
p573
I1
sVdnvjj5f
p574
I2
sVdowruo1
p575
I1
sVdr3d2so
p576
I1
sVdd4rdio
p577
I1
sVczrwwkt
p578
I1
sVcz4imp4
p579
I2
sVd8ua0ti
p580
I1
sVcyu5zyn
p581
I1
sVd3b9m4e
p582
I1
sVd5zgj8a
p583
I3
sVdnftlx6
p584
I1
sVd7cwqlb
p585
I1
sVd54andi
p586
I1
sVdt8vwgw
p587
I1
sVdb4i0dh
p588
I1
sVd02hjwe
p589
I1
sVd2el2sc
p590
I1
sVdprayz7
p591
I1
sVczzsnn5
p592
I1
sVd1hnsoo
p593
I1
sVdjiogn2
p594
I1
sVd1k8b5r
p595
I1
sVdgw5i90
p596
I1
sVd7g3vtt
p597
I1
sVd7ujz7i
p598
I1
sVd00q4yq
p599
I1
sVd5no98w
p600
I1
sVdi4rz1o
p601
I1
sVdga61rt
p602
I1
sVd08ziw9
p603
I1
sVdequmlw
p604
I1
sVdki4l6j
p605
I2
sVcyqlyug
p606
I1
sVdbk7n7x
p607
I1
sVdmv7brn
p608
I1
sVd4w89am
p609
I1
sVd25r3ij
p610
I1
sVcznk4er
p611
I1
sVd2vosdx
p612
I2
sVczhwsxb
p613
I2
sVd30d859
p614
I1
sVdgf72bu
p615
I1
sVcyrkghk
p616
I1
sVdc6rt9x
p617
I1
sVdks130k
p618
I1
sVdbnhyh5
p619
I1
sVda7jc7o
p620
I1
sVdnm3te4
p621
I1
sVd5mxxzd
p622
I1
sVd4l2imq
p623
I2
sVdd2lhhn
p624
I1
sVdefl2fk
p625
I1
sVd17a8au
p626
I1
sVdkc5jq7
p627
I1
sVdcq02fr
p628
I1
sVd9bss4t
p629
I1
sVcz2zdhk
p630
I1
sVd4z9udm
p631
I2
sVdcuyf9z
p632
I1
sVdh53cb8
p633
I1
sVd21v8ox
p634
I1
sVdhip6x5
p635
I1
sVdmvixk2
p636
I2
sVd5wyjh0
p637
I1
sVdjme5gh
p638
I2
sVd3rupgo
p639
I1
sVd3zjw66
p640
I1
sVd43cxbu
p641
I1
sVd8i27jg
p642
I1
sVcysvnsv
p643
I2
sVcz4wd9y
p644
I1
sVd59l97c
p645
I1
sVdb6wk7g
p646
I1
sVd6rftk7
p647
I1
sVdclvwav
p648
I1
sVdpax2ho
p649
I2
sVdia3fq0
p650
I1
sVd6vzs4v
p651
I1
sVd5jr7s2
p652
I1
sVde7micu
p653
I1
sVczlxf1q
p654
I1
sVdf6930u
p655
I1
sVdnutkt1
p656
I1
sVdpqzjkv
p657
I1
sVdc2cuf1
p658
I2
sVd6fcvyz
p659
I1
sVdj5r18g
p660
I1
sVdnf192q
p661
I1
sVd06ad6v
p662
I1
sVddbl2pf
p663
I2
sVdb5af3k
p664
I1
sVdgvtbav
p665
I1
sVd7xruan
p666
I1
sVdgd14l2
p667
I1
sVdgb2y0m
p668
I3
sVd3zgv5k
p669
I1
sVd094yyy
p670
I1
sVde0nzru
p671
I1
sVcyyfof1
p672
I1
sVdf1and4
p673
I1
sVcyxmge2
p674
I1
sVd6ujynz
p675
I2
sVdnfk3gu
p676
I2
sVdh1th1r
p677
I1
sVdbcl3j9
p678
I1
sVdgb65hz
p679
I1
sVdfu31zy
p680
I1
sVdbq0xsw
p681
I2
sVdsjx83e
p682
I1
sVd67t6yv
p683
I1
sVd73icdp
p684
I2
sVd3x97z6
p685
I1
sVdj8k6ao
p686
I2
sVd6k2a5o
p687
I1
sVd352kth
p688
I1
sVd1ro1f7
p689
I2
sVdeft8tz
p690
I2
sVdh00xs9
p691
I2
sVdiyulcd
p692
I1
sVdal5k7f
p693
I1
sVdpto7s2
p694
I1
sVdbh5bmj
p695
I1
sVds1xdll
p696
I1
sVd3rqq2r
p697
I1
sVdpw7mnm
p698
I1
sVdpyfpkv
p699
I1
sVdcw3l4k
p700
I1
sVd2kjnyn
p701
I1
sVdjouz4t
p702
I1
sVdpdj9c8
p703
I1
sVdj13xnr
p704
I1
sVczfqadh
p705
I1
sVd9boej7
p706
I1
sVdai4xj8
p707
I1
sVdb3l5c2
p708
I1
sVdfgsr43
p709
I1
sVdoevuqg
p710
I1
sVdegtsk2
p711
I1
sVd4s82zb
p712
I1
sVdiwn05o
p713
I1
sVd8vanz2
p714
I1
sVdc9ftr9
p715
I1
sVdkgcegq
p716
I1
sVdiksjmq
p717
I1
sVdgb8uw5
p718
I1
sVdc4d617
p719
I2
sVdirv7hs
p720
I2
sVdce93gv
p721
I1
sVdbm60yo
p722
I1
sVdir1qs6
p723
I1
sVdasf8c8
p724
I1
sVdb83rru
p725
I1
sVd8vrjjd
p726
I1
sVdskhlhy
p727
I1
sVd6kktzw
p728
I1
sVdrpbw3l
p729
I2
sVdqmqnp4
p730
I1
sVdabef1e
p731
I1
sVda8vdbk
p732
I1
sVd6tspaj
p733
I1
sVdn5091p
p734
I1
sVcz3rrmw
p735
I1
sVdc8gn0a
p736
I1
sVcz2p4kf
p737
I1
sVdbh2lb4
p738
I1
sVd2wu6am
p739
I1
sVd0bypj6
p740
I1
sVd8jseey
p741
I1
sVd6fb85n
p742
I1
sVdjmoank
p743
I1
sVd9npo8v
p744
I1
sVdgxhvol
p745
I1
sVd07e7eg
p746
I1
sVddktxtk
p747
I1
sVdcepjrs
p748
I1
sVcz1hdie
p749
I1
sVd2bocrr
p750
I1
sVd55d5zh
p751
I1
sVd2wn9i2
p752
I1
sVd97gy0g
p753
I4
sVdf46n7m
p754
I1
sVcz50d21
p755
I1
sVd9ccnn3
p756
I1
sVd3yv0id
p757
I1
sVcypjayw
p758
I1
sVd3xcnz6
p759
I1
sVd3ginah
p760
I1
sVd0ugwfc
p761
I2
sVdbkp508
p762
I2
sVdr6ncf1
p763
I1
sVd8ukuli
p764
I2
sVdt6scwr
p765
I1
sVdp5dip7
p766
I1
sVd0gl3hi
p767
I1
sVdam5fwn
p768
I1
sVdexhuxy
p769
I1
sVd61s68r
p770
I1
sVd8jqthx
p771
I1
sVd2nieyq
p772
I1
sVd9px0dh
p773
I1
sVd66r72y
p774
I1
sVd3i2lj7
p775
I1
sVdsdsll8
p776
I2
sVdag7u9c
p777
I1
sVddkcioh
p778
I1
sVdilokz6
p779
I1
sVdklqhhb
p780
I1
sVddo1go2
p781
I1
sVd31c1ii
p782
I1
sVdevigou
p783
I1
sVdd4veex
p784
I3
sVdfibsc6
p785
I1
sVdr353lb
p786
I1
sVda87pe9
p787
I1
sVdawv2sk
p788
I1
sVdbkptoh
p789
I1
sVdb1mx6i
p790
I1
sVd5myzhv
p791
I1
sVcza11m0
p792
I1
sVd5nijcy
p793
I2
sVd06k5vg
p794
I1
sVdi24lhs
p795
I2
sVdgtlwpk
p796
I1
sVcyo3q5o
p797
I1
sVcyvd6xl
p798
I2
sVczqjnbq
p799
I1
sVd0912zs
p800
I1
sVd9iwi8b
p801
I1
sVdeluwrw
p802
I1
sVdbcb0lm
p803
I1
sVdcmfyx9
p804
I1
sVcysy36b
p805
I1
sVdo13ww1
p806
I1
sVd796ozf
p807
I2
sVdojcjg4
p808
I1
sVczlcmyu
p809
I1
sVdt2lvpb
p810
I1
sVdckz8en
p811
I1
sVd068lmc
p812
I2
sVcz1t6j8
p813
I2
sVdcsaytf
p814
I2
sVdid4fnm
p815
I1
sVd7ynjuo
p816
I1
sVdeaprra
p817
I2
sVda7el8g
p818
I1
sVdbe4lrn
p819
I1
sVcyre7m8
p820
I2
sVdntve7t
p821
I1
sVdkjh789
p822
I1
sVdc47tq5
p823
I1
sVdhg5pib
p824
I1
sVdccbwy8
p825
I1
sVdji9bvj
p826
I1
sVdq0qzo1
p827
I1
sVd47uzdi
p828
I2
sVdctimh6
p829
I1
sVdmm5ly2
p830
I1
sVdhrb0re
p831
I1
sVdcnlaox
p832
I1
sVd10xq2o
p833
I1
sVd7gyupl
p834
I1
sVdnsnjnb
p835
I1
sVd6ug1lg
p836
I1
s.