(dp0
Vdbnsjgc
p1
I1
sVd4tbt6r
p2
I1
sVdjtetl0
p3
I1
sVdgljbi7
p4
I1
sVdj57y65
p5
I1
sVd7r6lya
p6
I3
sVd3b50fr
p7
I3
sVdr6nw1e
p8
I1
sVd6x4udb
p9
I1
sVditmrzx
p10
I1
sVdneqt57
p11
I1
sVdhahze1
p12
I1
sVd9nwqxj
p13
I1
sVd20qwg9
p14
I1
sVd03s8m7
p15
I1
sVd12gtlu
p16
I1
sVddgslz4
p17
I3
sVczkwv6q
p18
I1
sVd5x3pu7
p19
I2
sVdbax1w4
p20
I3
sVdsw48hr
p21
I1
sVdjm9e4e
p22
I3
sVdcdvy52
p23
I1
sVdomc93x
p24
I2
sVdsvcabz
p25
I2
sVdkvgmkf
p26
I1
sVdkw0fpp
p27
I1
sVdabwzkt
p28
I1
sVdep0qpb
p29
I1
sVd64i3ej
p30
I1
sVdmgj2hv
p31
I1
sVdb3seeo
p32
I2
sVdea85fa
p33
I2
sVd5gvl9s
p34
I1
sVd7kl3pp
p35
I1
sVd6x0h5v
p36
I1
sVd5wu5xw
p37
I1
sVda654nz
p38
I1
sVcyumrrb
p39
I1
sVd2lrzal
p40
I1
sVd7cjlnb
p41
I2
sVdf6u0xj
p42
I3
sVczssz1r
p43
I3
sVdnm4e59
p44
I1
sVcyj8f9h
p45
I1
sVd07qbh8
p46
I2
sVd39yzxa
p47
I1
sVdf876z0
p48
I2
sVd9gz7ok
p49
I2
sVd2u94hz
p50
I1
sVd44c2pi
p51
I2
sVdhnuqz8
p52
I2
sVd39u2zo
p53
I1
sVd4szl0b
p54
I1
sVdavax0h
p55
I2
sVd4klf1t
p56
I1
sVdst2fu9
p57
I2
sVddhhkqn
p58
I2
sVdhksh0k
p59
I1
sVdpkad0a
p60
I3
sVdhb3e8x
p61
I6
sVdor6yfm
p62
I2
sVdbaws5o
p63
I3
sVdamqh35
p64
I3
sVdrd4xm1
p65
I3
sVdchnpnj
p66
I3
sVdmzlv63
p67
I1
sVdd13nh2
p68
I1
sVd9z09cf
p69
I1
sVd2q0rkq
p70
I2
sVd8to9am
p71
I4
sVdbh9704
p72
I1
sVdd0dkcf
p73
I1
sVde27rqb
p74
I2
sVdf64h19
p75
I1
sVdbm115k
p76
I1
sVd1g5a9e
p77
I1
sVdjztbb6
p78
I1
sVdgxg3c7
p79
I4
sVd6ue7g6
p80
I1
sVdcwxktl
p81
I1
sVd3wvu3w
p82
I1
sVdbfqpoq
p83
I1
sVcyr3uit
p84
I4
sVddwgccl
p85
I1
sVd9zsgz6
p86
I1
sVcyrrktt
p87
I1
sVd80t0f0
p88
I3
sVcyztjit
p89
I1
sVcykuzks
p90
I1
sVdsyq9le
p91
I1
sVdefxw0n
p92
I1
sVcykuhwm
p93
I3
sVd8rx0h5
p94
I2
sVdfu22ha
p95
I1
sVd766fm8
p96
I5
sVdkvw8n9
p97
I5
sVd0mezpt
p98
I1
sVdbwgaci
p99
I9
sVcyiianv
p100
I6
sVd1txdyq
p101
I1
sVdj5pgwn
p102
I8
sVd9z4zmj
p103
I3
sVd6fd67d
p104
I4
sVd7n37rz
p105
I1
sVdar2oqo
p106
I1
sVdt52vf4
p107
I1
sVd1x539j
p108
I1
sVcz2ferz
p109
I3
sVdfwhwri
p110
I1
sVd6z4lza
p111
I1
sVd72v92j
p112
I2
sVdshrntp
p113
I2
sVdisoc12
p114
I1
sVde0gv11
p115
I3
sVdgw1ta1
p116
I1
sVczieb1s
p117
I2
sVdgdxk9r
p118
I2
sVd225199
p119
I1
sVdkmbsq1
p120
I1
sVdq5n2rl
p121
I1
sVdq829u3
p122
I1
sVd3af7wy
p123
I2
sVd1ayjjj
p124
I1
sVdaf6xob
p125
I1
sVd928cl6
p126
I3
sVdddz0e8
p127
I4
sVdil4ufq
p128
I1
sVd0c9xx8
p129
I5
sVcz6xheu
p130
I1
sVd0y2vu6
p131
I1
sVd7j7w2s
p132
I1
sVczv6khq
p133
I1
sVdmvq16t
p134
I3
sVd4hwqhh
p135
I1
sVdrwpbf0
p136
I1
sVdmf30n2
p137
I1
sVd5lf5co
p138
I3
sVdb3x75x
p139
I2
sVdfosymr
p140
I1
sVdhgpwdg
p141
I1
sVd1f94dp
p142
I2
sVde9pwaa
p143
I1
sVdd5ciik
p144
I1
sVd3lt3g9
p145
I1
sVdblnfeo
p146
I1
sVdgy1xp6
p147
I5
sVdhgw8jm
p148
I2
sVd1jrclp
p149
I1
sVd639945
p150
I2
sVdoa7ce5
p151
I2
sVd03zwcc
p152
I1
sVdfol7se
p153
I1
sVdsbsyyw
p154
I7
sVdndybfj
p155
I1
sVd26uo7q
p156
I1
sVd1gqcxj
p157
I1
sVdf4p0fy
p158
I3
sVdjiyaxq
p159
I8
sVd8nbaim
p160
I2
sVd9gfkwi
p161
I1
sVd1h9k8u
p162
I1
sVd3uvhp3
p163
I1
sVd58gzgh
p164
I1
sVdiuj8sj
p165
I1
sVdrqa3ne
p166
I5
sVd15gj9i
p167
I2
sVdewnph9
p168
I2
sVdj5p28g
p169
I1
sVd3lp5nv
p170
I1
sVd1a16nj
p171
I1
sVd7fqo1x
p172
I1
sVdt6cwvh
p173
I1
sVdqe2488
p174
I1
sVd6094il
p175
I1
sVd8547pn
p176
I1
sVdk44sb2
p177
I1
sVdcx8m0y
p178
I1
sVd88fqzz
p179
I2
sVdkk7ov3
p180
I1
sVdftif6e
p181
I2
sVd6re62p
p182
I6
sVdf0zoi9
p183
I1
sVdb6ebqf
p184
I1
sVdac5tzx
p185
I1
sVdd3ffuo
p186
I6
sVd3ln121
p187
I1
sVdk01x5f
p188
I1
sVdd9inx0
p189
I1
sVdij1344
p190
I1
sVd27ev3u
p191
I1
sVdnukn2m
p192
I1
sVd7wfoqx
p193
I2
sVd85jkoz
p194
I1
sVd8fuy5o
p195
I1
sVdkk7afi
p196
I1
sVczz970r
p197
I3
sVde3ir6e
p198
I1
sVd00v3bx
p199
I8
sVczdelbe
p200
I2
sVdjzwujh
p201
I1
sVdggsci1
p202
I1
sVdc66cza
p203
I4
sVd35ef3s
p204
I1
sVde0576u
p205
I6
sVda8hakj
p206
I2
sVdfk5xyf
p207
I1
sVd0gg2ly
p208
I1
sVdt2ew1x
p209
I3
sVd4w07vx
p210
I3
sVdoq1qjw
p211
I1
sVdqtq0wg
p212
I1
sVdsyuz6z
p213
I1
sVd9hzvjs
p214
I2
sVdjp79en
p215
I6
sVdnoty3q
p216
I3
sVdmqxew5
p217
I1
sVd9x5ubj
p218
I1
sVd7i972b
p219
I1
sVd07nc7i
p220
I1
sVd8t7vy5
p221
I1
sVd3b05mx
p222
I1
sVdbaqq7h
p223
I1
sVd597752
p224
I5
sVd5vl4l8
p225
I1
sVdt38ljj
p226
I1
sVdadq1tx
p227
I8
sVdbn5v5g
p228
I1
sVdb3fyo4
p229
I4
sVdhke6pv
p230
I2
sVdnwsoc7
p231
I1
sVdtb85ag
p232
I3
sVdr74wba
p233
I1
sVdq16egv
p234
I4
sVdij7nta
p235
I1
sVdedszxg
p236
I2
sVdd3jwau
p237
I1
sVcz0jt22
p238
I12
sVdo9boys
p239
I1
sVczyz1zt
p240
I15
sVde7n26v
p241
I1
sVd77qh7o
p242
I2
sVd83bgp1
p243
I1
sVcyrqnzn
p244
I3
sVdcktc4o
p245
I1
sVd1tg1l3
p246
I1
sVczinktt
p247
I1
sVdhayy0f
p248
I1
sVcyj4oi2
p249
I1
sVczg9fy4
p250
I2
sVdgb2y0m
p251
I2
sVd9l6gd2
p252
I2
sVd1v9t9j
p253
I1
sVdkor5fz
p254
I1
sVdjuc1u6
p255
I1
sVd2wn9i2
p256
I4
sVcyvdnza
p257
I3
sVdbvp83b
p258
I1
sVd9gesgx
p259
I2
sVd5ed0s1
p260
I2
sVdrpbw3l
p261
I5
sVdeorgjf
p262
I1
sVd940be5
p263
I1
sVd6p8d00
p264
I6
sVd3cdby3
p265
I2
sVd264i87
p266
I1
sVd6bj0af
p267
I3
sVd16xejs
p268
I2
sVdb6np9y
p269
I1
sVdhleb9e
p270
I2
sVdqubojl
p271
I5
sVdetqpbi
p272
I2
sVd1zs2al
p273
I3
sVd7cwqlb
p274
I1
sVdh1z1mw
p275
I2
sVdjiogn2
p276
I4
sVd6i5rwb
p277
I1
sVczi20ij
p278
I1
sVdnek8nt
p279
I2
sVdaxcetm
p280
I1
sVdg5mi2k
p281
I2
sVd32brr5
p282
I2
sVd9cpzle
p283
I1
sVd508ztk
p284
I3
sVddnwnnw
p285
I1
sVdilvdlj
p286
I2
sVdeb6zhq
p287
I1
sVd260a9e
p288
I2
sVd5wayv8
p289
I2
sVdif5mlx
p290
I1
sVd9wky1h
p291
I1
sVdbuhfak
p292
I1
sVczcevuv
p293
I1
sVd641px9
p294
I1
sVcz5ug8j
p295
I1
sVd6fcz9d
p296
I2
sVd1iz6si
p297
I2
sVd6l00h2
p298
I1
sVd6knlzr
p299
I1
sVddczw2n
p300
I1
sVd1ybge7
p301
I1
sVd6fcvyz
p302
I1
sVdq5basz
p303
I2
sVda29qlb
p304
I1
sVddxlj4j
p305
I1
sVdir1qs6
p306
I2
sVdbcl3j9
p307
I2
sVd79n3in
p308
I3
sVczkc9m3
p309
I1
sVdt41z53
p310
I1
sVd5snazb
p311
I1
sVdakkprx
p312
I1
sVdet2kjh
p313
I1
sVczguctd
p314
I1
sVd3lioaz
p315
I1
sVd5c4e8h
p316
I1
sVdg991y8
p317
I1
sVdqqhi36
p318
I1
sVdd1wl51
p319
I3
sVdge5g02
p320
I1
sVd1yom6o
p321
I2
sVdha7saa
p322
I2
sVd3bzwio
p323
I1
sVdb3l5c2
p324
I1
sVdjjp1ic
p325
I1
sVd1grf2j
p326
I1
sVdaux8hg
p327
I1
sVd5dhsmm
p328
I1
sVdp6wh3c
p329
I2
sVda8vdbk
p330
I3
sVd70wwtz
p331
I1
sVd6tspaj
p332
I1
sVdo0eqg6
p333
I1
sVdsfj58m
p334
I2
sVdon1ywc
p335
I1
sVdipilgb
p336
I1
sVd63ycpl
p337
I1
sVdnetm6b
p338
I1
sVd1e7ofr
p339
I1
sVd6766b0
p340
I2
sVd2hk7tn
p341
I2
sVd1txb9o
p342
I1
sVd1e94i8
p343
I4
sVdjevfsq
p344
I3
sVczqcrf5
p345
I1
sVdobmx8f
p346
I1
sVd8gl7am
p347
I2
sVd5hxjl8
p348
I1
sVdaqnmnu
p349
I2
sVd2jq186
p350
I2
sVdnvg671
p351
I1
sVczrpe52
p352
I1
sVd8ukuli
p353
I1
sVde1wc49
p354
I1
sVdmil4ro
p355
I1
sVd3i2lj7
p356
I1
sVdddz1nr
p357
I2
sVd5xjdd4
p358
I2
sVdo45g6u
p359
I1
sVd7brfdm
p360
I2
sVd2c1je6
p361
I1
sVd66lgqz
p362
I1
sVd2eq6re
p363
I1
sVdbjkxip
p364
I1
sVd6mc1az
p365
I2
sVdcesmd8
p366
I1
sVdnm3vxr
p367
I1
sVdb6bpux
p368
I1
sVd3lis4h
p369
I1
sVdn8uwiu
p370
I1
sVcyiabbm
p371
I4
sVd35fz5q
p372
I1
sVd88xunt
p373
I2
sVd2pvhav
p374
I1
sVd14ayrf
p375
I8
sVdh1dsue
p376
I1
sVd1se0v9
p377
I1
sVdkk4qg9
p378
I1
sVd6h4nz3
p379
I2
sVda86ek0
p380
I1
sVd2ukga5
p381
I2
sVdarwjeu
p382
I4
sVd9kgj30
p383
I1
sVd3hvpw6
p384
I1
sVd8thi39
p385
I2
sVd1x1j4z
p386
I1
sVd9kgf9m
p387
I3
sVdmmtt2p
p388
I2
sVd5z3x74
p389
I2
sVd9g0uta
p390
I1
sVdnqb4mw
p391
I1
sVd0sgqsj
p392
I1
sVdj510qh
p393
I2
sVcz7yrk8
p394
I9
sVddbwce5
p395
I3
sVcz25s06
p396
I1
sVdpthxza
p397
I5
sVdi194ja
p398
I1
sVdhomvv6
p399
I1
sVdc1vtyo
p400
I1
sVdid4cz2
p401
I1
sVd4id2s4
p402
I2
sVd46lxh7
p403
I1
sVdrxyjgb
p404
I2
sVdnijh8m
p405
I1
sVd2dqych
p406
I1
sVdmxpysa
p407
I1
sVd40tczb
p408
I1
sVdket3sp
p409
I1
sVd9et0xa
p410
I1
sVdt86xfm
p411
I1
sVcyycrq9
p412
I1
sVczw3fyh
p413
I2
sVd5nnpba
p414
I1
sVd641zgh
p415
I1
sVd2beu10
p416
I2
sVczxbe7s
p417
I3
sVdpv894v
p418
I1
sVd1zm2nq
p419
I3
sVdedn6nb
p420
I1
sVd40pxdj
p421
I1
sVdprkkw8
p422
I6
sVcypufnt
p423
I1
sVd3zseey
p424
I1
sVdavapn7
p425
I3
sVd26s9to
p426
I1
sVd1nqeh7
p427
I1
sVczpdugw
p428
I2
sVd1fss41
p429
I2
sVd6wbxe5
p430
I1
sVd4bwsll
p431
I2
sVddtee5o
p432
I6
sVdag8pfl
p433
I1
sVd3gj0sx
p434
I2
sVdnmcg70
p435
I1
sVczrwwkt
p436
I3
sVd514nbs
p437
I2
sVdnl3a5s
p438
I5
sVda5i3lr
p439
I1
sVdbqm2l3
p440
I14
sVddbwb70
p441
I1
sVd9gz8kr
p442
I3
sVd6v2e87
p443
I1
sVddzqs9t
p444
I3
sVd93cmo7
p445
I1
sVd2jti3o
p446
I2
sVd2a31zq
p447
I1
sVdmg9pt7
p448
I2
sVdra85wz
p449
I7
sVdjcnzbv
p450
I1
sVdhawwu2
p451
I5
sVdau7nea
p452
I1
sVdav85hx
p453
I3
sVd8woa8z
p454
I4
sVd0q81fe
p455
I1
sVdb3u76b
p456
I4
sVczs5tf1
p457
I1
sVdjdhjn5
p458
I1
sVdax9vaa
p459
I2
sVdd5rzu1
p460
I2
sVds4f2lt
p461
I4
sVd16zyeb
p462
I1
sVdegtraf
p463
I1
sVdg9chwe
p464
I2
sVdp35xcu
p465
I3
sVdnf08ar
p466
I1
sVdi7bh98
p467
I1
sVcz2ocw7
p468
I1
sVd01cen5
p469
I6
sVd0431uz
p470
I1
sVd0w68vq
p471
I3
sVd07kmck
p472
I1
sVdsgp4ho
p473
I3
sVd5yrvpm
p474
I1
sVdmhlk0x
p475
I1
sVd2pnt23
p476
I1
sVdkk2sws
p477
I1
sVdora7qt
p478
I2
sVd315vjh
p479
I1
sVdbqvryf
p480
I1
sVd80nwzc
p481
I1
sVd1udacl
p482
I6
sVdpl2ocl
p483
I8
sVdn86cpz
p484
I3
sVdq1pif6
p485
I3
sVdievqzv
p486
I1
sVdk9hkvt
p487
I2
sVdah583a
p488
I1
sVdetnrs2
p489
I1
sVdkovogd
p490
I1
sVdp3z0vr
p491
I1
sVd9d8sxp
p492
I3
sVd2siwu9
p493
I1
sVcyl9fev
p494
I1
sVdonk0h4
p495
I1
sVd2a5opb
p496
I5
sVdber6q8
p497
I1
sVdbwgcvp
p498
I3
sVczr3i34
p499
I1
sVdi72g8r
p500
I1
sVczaywh6
p501
I4
sVd14l8km
p502
I3
sVd0423e0
p503
I1
sVd2gylc1
p504
I2
sVdd8gv27
p505
I1
sVdgcnfhr
p506
I3
sVdgd14l2
p507
I2
sVdmjoknz
p508
I1
sVd2hzgv5
p509
I1
sVdkwbj3r
p510
I2
sVd6kngis
p511
I5
sVdnek5vw
p512
I4
sVdc6n58f
p513
I1
sVd4vif2f
p514
I1
sVdkqaxwh
p515
I1
sVd9ac76v
p516
I2
sVdcme1xx
p517
I1
sVd2my2ee
p518
I1
sVdbf12pm
p519
I1
sVd5gkbbz
p520
I3
sVdikrg52
p521
I1
sVdhawbz6
p522
I1
sVdr30ck9
p523
I2
sVd8k4i3m
p524
I1
sVdndnlq5
p525
I1
sVdmlzv5i
p526
I2
sVczqcqee
p527
I1
sVdd3zzm7
p528
I1
sVd1gt927
p529
I2
sVdektz5z
p530
I1
sVdnvknev
p531
I1
sVd08fg37
p532
I1
sVdcre9sf
p533
I1
sVdf8p12g
p534
I1
sVd3tpntj
p535
I1
sVd35f721
p536
I1
sVd14694b
p537
I1
sVd0hy5m8
p538
I1
sVdkdybki
p539
I20
sVd8k547b
p540
I1
sVdg3k132
p541
I1
sVdp127z6
p542
I1
sVcz4ovw0
p543
I1
sVcz2tmwi
p544
I4
sVdt75ts0
p545
I1
sVd8gp35j
p546
I12
sVd1xeidr
p547
I1
sVdh59pcf
p548
I1
sVd924cis
p549
I2
sVdplfj7f
p550
I2
sVdgsfnku
p551
I1
sVd5syn4a
p552
I5
sVdhrqiz3
p553
I1
sVd0oj4ds
p554
I1
sVdjewqja
p555
I1
sVdd7bq3r
p556
I1
sVdnutkt1
p557
I1
sVd27dc5z
p558
I1
sVcz9lgq9
p559
I1
sVd75nrlm
p560
I1
sVdmek3rv
p561
I1
sVd5jv9iv
p562
I2
sVdakr7zi
p563
I1
sVdhm42vz
p564
I1
sVdd3odw9
p565
I2
sVd4oyexa
p566
I1
sVda3p039
p567
I1
sVddrx12x
p568
I1
sVdddzhok
p569
I5
sVd3quc6n
p570
I1
sVdfzjnu5
p571
I1
sVdnz32pe
p572
I1
sVd3iardh
p573
I1
sVd75gnnw
p574
I2
sVdgxa0xt
p575
I1
sVd5jhsx8
p576
I1
sVdd53o90
p577
I2
sVdn5598v
p578
I1
sVdkkmq6f
p579
I2
sVdmrwkxa
p580
I3
sVd5lsca3
p581
I1
sVcyss1n9
p582
I1
sVdoracfs
p583
I1
sVdfb4qbx
p584
I2
sVdbm5f9h
p585
I1
sVd09hql8
p586
I1
sVdj8hkfn
p587
I1
sVd6mfrwy
p588
I1
sVdj8nrl9
p589
I1
sVdcfpitr
p590
I3
sVd11dfze
p591
I3
sVdgc20p9
p592
I3
sVd2pnmdx
p593
I1
sVdhhxnhl
p594
I2
sVd9a7aet
p595
I1
sVdk2ikk2
p596
I1
sVdd3df1w
p597
I3
sVdh4wkrj
p598
I1
sVcyqpca4
p599
I2
sVd5a54xw
p600
I1
sVdbfvinu
p601
I1
sVdr3d2so
p602
I4
sVdgakfie
p603
I2
sVd6jbd2q
p604
I2
sVd1zy3gu
p605
I1
sVd285wfd
p606
I1
sVdg2r8u1
p607
I1
sVd8r9jr4
p608
I10
sVd8i8dqu
p609
I2
sVd8tj8ru
p610
I8
sVczhfiv3
p611
I1
sVdaixxu4
p612
I1
sVd1533sm
p613
I2
sVd3rnxd2
p614
I1
sVddbdi8b
p615
I1
sVdiixurm
p616
I1
sVdo8sqte
p617
I1
sVdcfgksu
p618
I1
sVd63r5uj
p619
I5
sVdmodvy4
p620
I1
sVds1ox8v
p621
I2
sVd3ipuny
p622
I1
sVdaz5ro4
p623
I1
sVda80vvs
p624
I2
sVczon68e
p625
I2
sVdplfwx9
p626
I3
sVdhxtiez
p627
I1
sVcyjvth3
p628
I1
sVdkuukqa
p629
I2
sVdbkyj6m
p630
I2
sVdghycnm
p631
I1
sVd8du5n2
p632
I1
sVdcmei1x
p633
I2
sVdaf64t0
p634
I1
sVd4b53ak
p635
I1
sVd8j6f9z
p636
I1
sVdee7sue
p637
I1
sVdj6g1j3
p638
I1
sVdmvtp4q
p639
I6
sVd9hyw4v
p640
I1
sVdgeln8y
p641
I1
sVd8x4ofi
p642
I1
sVd4ukr3d
p643
I1
sVd0oj6s8
p644
I2
sVdcttosf
p645
I1
sVdneh9ov
p646
I3
sVd14rmbr
p647
I1
sVddpobp5
p648
I1
sVd5ps9cb
p649
I5
sVdowruo1
p650
I1
sVd7qlrdz
p651
I1
sVdfp33h6
p652
I1
sVdblg4gg
p653
I2
sVdafa1li
p654
I1
sVd3i924v
p655
I6
sVd7j78x4
p656
I2
sVdg2c34m
p657
I5
sVdnm4etm
p658
I1
sVdbz7uab
p659
I1
sVdcex26l
p660
I2
sVd54andi
p661
I2
sVczvn31l
p662
I2
sVd7g3vtt
p663
I1
sVdax6p6m
p664
I2
sVd4gulte
p665
I3
sVdi2u92z
p666
I2
sVdki38p1
p667
I1
sVczpatse
p668
I1
sVdft6kuc
p669
I3
sVd25r3ij
p670
I1
sVcznk4er
p671
I2
sVd2c4410
p672
I1
sVdckvlsp
p673
I2
sVdks130k
p674
I7
sVdgk7pcy
p675
I1
sVdffama3
p676
I1
sVczy2wpy
p677
I3
sVdq2oivk
p678
I3
sVd4z9udm
p679
I4
sVd2uviua
p680
I2
sVd9lixop
p681
I1
sVddetfgm
p682
I1
sVdc3c2vf
p683
I1
sVdcc0sp2
p684
I1
sVdcgu7cf
p685
I1
sVdbse9ui
p686
I1
sVde2w8xl
p687
I4
sVdg7sdsp
p688
I2
sVd2544pz
p689
I2
sVd39z4ka
p690
I1
sVdepbj53
p691
I1
sVde7micu
p692
I1
sVdapkvg1
p693
I1
sVd7ij7mi
p694
I1
sVde4drqo
p695
I2
sVd0tca7v
p696
I1
sVd06ad6v
p697
I2
sVdaif6ue
p698
I1
sVde0a3zx
p699
I1
sVdf8pfc6
p700
I2
sVdbtyb6i
p701
I1
sVd3i8trb
p702
I2
sVdargh3s
p703
I1
sVdnekpvl
p704
I2
sVd02rfge
p705
I1
sVdjupe67
p706
I2
sVd5oz9rd
p707
I1
sVd6pv6me
p708
I1
sVdhaw35g
p709
I1
sVdax1l91
p710
I2
sVdj6qpbu
p711
I3
sVdg0zeb7
p712
I1
sVdmjrbnu
p713
I2
sVd1fb2pw
p714
I2
sVdjo7w6r
p715
I2
sVczv6jaz
p716
I3
sVd6h4y75
p717
I1
sVd3i65er
p718
I1
sVdbp18ls
p719
I3
sVdfltsnk
p720
I3
sVd0hwdla
p721
I2
sVdb3rzwb
p722
I2
sVdr1geya
p723
I1
sVdqzsw2y
p724
I1
sVd9v8ckw
p725
I1
sVde1ya39
p726
I3
sVd79zhg4
p727
I2
sVd92ho5h
p728
I1
sVdg1tbvs
p729
I1
sVd906bzm
p730
I1
sVcyyc2tm
p731
I1
sVd3zzs9h
p732
I5
sVdkdv7pg
p733
I1
sVdabef1e
p734
I2
sVdenzvjt
p735
I1
sVdcfoyry
p736
I1
sVcyneiyi
p737
I4
sVdeenc1g
p738
I3
sVd2wu6am
p739
I1
sVd050gnq
p740
I3
sVdr7a962
p741
I1
sVdgmo6nq
p742
I1
sVdg6ny7g
p743
I1
sVdo6ixkq
p744
I1
sVdcazjgd
p745
I2
sVddyn8js
p746
I1
sVcznn2at
p747
I2
sVdqclyf0
p748
I6
sVd4o141o
p749
I1
sVd3q08ew
p750
I2
sVd4s1hf2
p751
I1
sVd3raly5
p752
I3
sVdh5o4k6
p753
I2
sVd4ts65l
p754
I2
sVdauq0u5
p755
I1
sVdqotleg
p756
I1
sVd0wnfag
p757
I1
sVd07ir41
p758
I4
sVdia1tsa
p759
I1
sVdjvxf41
p760
I1
sVdfsi6pj
p761
I1
sVdgtlwpk
p762
I1
sVdk9d27g
p763
I1
sVcyo3q5o
p764
I2
sVdmn34nc
p765
I1
sVdfabzp9
p766
I1
sVd17b1ny
p767
I3
sVdi1yxjn
p768
I1
sVd5xrhdl
p769
I2
sVd2rk02t
p770
I3
sVd0koagx
p771
I1
sVdgdcjnu
p772
I7
sVd8ixwmy
p773
I1
sVdhg5pib
p774
I7
sVdd4vr3a
p775
I3
sVcz55x6q
p776
I2
sVd6ug1lg
p777
I5
sVdh4qqqf
p778
I1
sVdsgl3wj
p779
I1
sVd9bj06o
p780
I6
sVdcbzye7
p781
I1
sVdgg4s8s
p782
I1
sVd3gtigx
p783
I1
sVd3f3hbu
p784
I3
sVd1h2dlo
p785
I1
sVdbn79zs
p786
I2
sVcz0rb91
p787
I1
sVd4m7fxp
p788
I1
sVd44ch6w
p789
I1
sVdp1mxph
p790
I1
sVdn5q48n
p791
I4
sVd8zi1xk
p792
I1
sVdgzdtqv
p793
I1
sVdghingb
p794
I1
sVd0dxqbg
p795
I2
sVdru1vxq
p796
I1
sVd8890gi
p797
I1
sVddbay7t
p798
I1
sVd1cvzm2
p799
I1
sVd2wz77u
p800
I1
sVdfy18f0
p801
I1
sVd27jltz
p802
I1
sVd3ajm3a
p803
I3
sVdhujmew
p804
I2
sVd4bsn94
p805
I2
sVdev8vs7
p806
I1
sVd81fecz
p807
I2
sVd89sile
p808
I2
sVdbkd439
p809
I2
sVdt6oh5k
p810
I1
sVdt3lz30
p811
I1
sVdc3xy02
p812
I2
sVdslh7q3
p813
I1
sVd08e75e
p814
I1
sVd7vdr8v
p815
I1
sVczs6111
p816
I1
sVdi8ts8e
p817
I2
sVdbcwdmk
p818
I5
sVdb2p214
p819
I1
sVd24948i
p820
I1
sVd45qan6
p821
I4
sVd78rj2r
p822
I1
sVd398f3h
p823
I1
sVdcl0q66
p824
I1
sVdeue8yj
p825
I1
sVczkenur
p826
I1
sVd3lnc5v
p827
I2
sVdjmjlm6
p828
I1
sVdoa7gqr
p829
I1
sVd3hwhiv
p830
I1
sVd9xdzwn
p831
I1
sVd9euhx9
p832
I2
sVdn5ptwx
p833
I1
sVd608mjt
p834
I1
sVd9gobti
p835
I4
sVdapbxtm
p836
I1
sVdaxf9bq
p837
I15
sVd7bv1be
p838
I1
sVdawuhcd
p839
I1
sVd5imr9b
p840
I1
sVdhujp6b
p841
I1
sVd11vw82
p842
I3
sVdfa402l
p843
I4
sVcynbds1
p844
I1
sVdbohkwu
p845
I1
sVd8p9l6d
p846
I1
sVdg31tbs
p847
I1
sVczl9vql
p848
I2
sVdd84quv
p849
I1
sVd25jbbx
p850
I1
sVdnwdp1a
p851
I1
sVdf7tqox
p852
I2
sVddbl14d
p853
I1
sVd3u0h23
p854
I1
sVdndmsdm
p855
I1
sVdcc1zy1
p856
I1
sVdclkee5
p857
I1
sVdtecmp9
p858
I1
sVd9fzyth
p859
I2
sVdbep1na
p860
I2
sVd5rj609
p861
I1
sVdaibhab
p862
I3
sVd2zdvmr
p863
I1
sVczrwzcj
p864
I1
sVd5kguox
p865
I3
sVcytoade
p866
I1
sVdou0ibx
p867
I1
sVdha6a52
p868
I2
sVczqg2gx
p869
I3
sVdhdgfw8
p870
I1
sVczks34i
p871
I2
sVd6flrjv
p872
I2
sVd0lr9u7
p873
I1
sVcywruw2
p874
I1
sVcypqsuj
p875
I2
sVdabutuk
p876
I1
sVddbef07
p877
I2
sVdj5hnl7
p878
I3
sVd4ufc69
p879
I1
sVdclc4j6
p880
I1
sVdtcx4lt
p881
I1
sVd3znyh3
p882
I1
sVd9qwywz
p883
I1
sVd8t1owi
p884
I2
sVdgjrpyp
p885
I2
sVd2boauf
p886
I1
sVddd622m
p887
I1
sVdkf89ba
p888
I2
sVdbqleps
p889
I1
sVd1y9kg3
p890
I1
sVcz82qa8
p891
I1
sVd4bpchy
p892
I4
sVdgdf617
p893
I1
sVczp0430
p894
I1
sVdhjmobl
p895
I1
sVczx0mln
p896
I6
sVdk00rm2
p897
I1
sVds9l1l0
p898
I1
sVda7zxf7
p899
I1
sVdoiu4rn
p900
I4
sVdn3zx2w
p901
I2
sVdbetitl
p902
I1
sVczehoqx
p903
I1
sVd1em14s
p904
I1
sVdn4oe2d
p905
I2
sVd8wf4j2
p906
I1
sVdii6k5v
p907
I1
sVd7ilzu0
p908
I1
sVdffhz4q
p909
I4
sVdrd4mzs
p910
I7
sVdae64sa
p911
I5
sVdgv1sxf
p912
I1
sVdd4ziaz
p913
I8
sVd1u84vw
p914
I1
sVd95q3vf
p915
I3
sVdnftaov
p916
I2
sVd2w1z3j
p917
I1
sVdgofp7x
p918
I2
sVd52qlde
p919
I1
sVd2unjta
p920
I1
sVdsvmcbo
p921
I1
sVdgcjte6
p922
I3
sVdgdre5y
p923
I2
sVd0p7v01
p924
I2
sVdgvm9vb
p925
I1
sVczo8n2j
p926
I4
sVdel4ql6
p927
I1
sVdirwq0y
p928
I2
sVdn3f38w
p929
I2
sVdqzld47
p930
I1
sVdo6l22p
p931
I1
sVczwwga1
p932
I1
sVd5nj5u1
p933
I1
sVdedyngr
p934
I1
sVdjo5zvv
p935
I2
sVd4otttt
p936
I1
sVdgeuaif
p937
I1
sVdc6n8bv
p938
I1
sVd5jv080
p939
I1
sVd1k75gw
p940
I1
sVcysv6uv
p941
I1
sVd6wp0lu
p942
I1
sVdk3ragb
p943
I2
sVd7qj80n
p944
I2
sVdczgt2x
p945
I2
sVcztckus
p946
I1
sVd2p3p0o
p947
I3
sVcz5kji1
p948
I5
sVd6qa0a1
p949
I5
sVczlt52q
p950
I3
sVd7vvs8g
p951
I2
sVdifred1
p952
I1
sVd58guek
p953
I1
sVcyxai5a
p954
I1
sVd5fwcd1
p955
I2
sVd03nme1
p956
I4
sVdkvz0dv
p957
I2
sVd87t6dt
p958
I1
sVd1xk9d0
p959
I2
sVda8votk
p960
I1
sVdklqhhb
p961
I1
sVdizxe6z
p962
I3
sVczsle50
p963
I2
sVde1y5w7
p964
I1
sVd6x716o
p965
I1
sVdgb3feq
p966
I3
sVdkewisc
p967
I2
sVd65ppgn
p968
I1
sVdr1wfdg
p969
I5
sVd3afe59
p970
I1
sVddd43qb
p971
I1
sVd3kg7b9
p972
I3
sVdgmsdfn
p973
I1
sVdb9pw13
p974
I1
sVdj6fkng
p975
I3
sVczkhtyk
p976
I1
sVdd7arji
p977
I1
sVd5p8o7q
p978
I2
sVdai41pn
p979
I1
sVd1b48q5
p980
I2
sVdif1ly5
p981
I1
sVdgmf6ti
p982
I1
sVd42dmwk
p983
I1
sVdn3fa6g
p984
I1
sVdel475s
p985
I1
sVczz1oax
p986
I2
sVdh4nyja
p987
I2
sVd1nlcjp
p988
I1
sVdbr3evq
p989
I1
sVd7rj5kh
p990
I1
sVd8rjr0m
p991
I1
sVdf8guni
p992
I3
sVdgdxvub
p993
I1
sVcyxf4y6
p994
I1
sVdi93xtr
p995
I1
sVdj5ibw4
p996
I6
sVdrzuq8h
p997
I1
sVd0d0d7k
p998
I1
sVd3afgjl
p999
I1
sVd0xvnuu
p1000
I4
sVdhgwfal
p1001
I1
sVd72xl1m
p1002
I2
sVdneiilr
p1003
I9
sVdfo0i1f
p1004
I1
sVdffzbad
p1005
I4
sVd6vn8cg
p1006
I1
sVd93xv9f
p1007
I1
sVdt8hipc
p1008
I1
sVdd4xw7v
p1009
I1
sVd66x0wd
p1010
I1
sVd4t4nrb
p1011
I1
sVdb5g9ad
p1012
I1
sVdel4uie
p1013
I1
sVd2h0hj3
p1014
I1
sVd11y7dk
p1015
I1
sVd9eyv18
p1016
I1
sVdgrmr3e
p1017
I1
sVdaptjpf
p1018
I1
sVdd7ak7a
p1019
I1
sVd51q4ja
p1020
I2
sVd18q24n
p1021
I1
sVdf958mm
p1022
I1
sVdk3mg49
p1023
I2
sVd5gwva6
p1024
I1
sVdj1pfiq
p1025
I1
sVcysrdte
p1026
I1
sVd9lrbqj
p1027
I3
sVd2d1ai5
p1028
I1
sVdfqbbsv
p1029
I3
sVd6d1fcy
p1030
I1
sVdfmqw73
p1031
I1
sVczdfos1
p1032
I4
sVd0cqa8m
p1033
I1
sVdb7rdyq
p1034
I1
sVd36rsco
p1035
I1
sVdaofcol
p1036
I1
sVd7f9hze
p1037
I2
sVdhi02ky
p1038
I1
sVdhd4g67
p1039
I1
sVdsvnb1a
p1040
I1
sVdhoti7t
p1041
I1
sVdcijg1u
p1042
I1
sVdk7u1em
p1043
I1
sVdju7v5v
p1044
I1
sVdt49tgp
p1045
I1
sVd0pxvsx
p1046
I3
sVdewhgss
p1047
I1
sVd3wte08
p1048
I1
sVd1k8b5r
p1049
I1
sVd9jr846
p1050
I3
sVcyyjm5f
p1051
I1
sVcyr6aix
p1052
I1
sVdfi8i12
p1053
I1
sVd8s23bh
p1054
I1
sVcz0kdve
p1055
I1
sVdildesx
p1056
I1
sVdhjp8bc
p1057
I2
sVdj6kj42
p1058
I12
sVdh5s3g6
p1059
I1
sVczls23c
p1060
I3
sVdppudmf
p1061
I1
sVdjcy7sh
p1062
I2
sVcz1e2e7
p1063
I1
sVdhllm1h
p1064
I1
sVd6fhg9m
p1065
I1
sVdd4rdio
p1066
I1
sVdfh39qj
p1067
I1
sVd07rypw
p1068
I1
sVdp7q258
p1069
I1
sVcysvnsv
p1070
I1
sVdjowut4
p1071
I1
sVdh82cfc
p1072
I3
sVd3g4wor
p1073
I1
sVdbshwbi
p1074
I1
sVdnn1d07
p1075
I1
sVd93z5h2
p1076
I1
sVdfdmdoc
p1077
I2
sVd8uq0oi
p1078
I1
sVcz4b42f
p1079
I1
sVddhsbef
p1080
I2
sVde3au3l
p1081
I1
sVdcywnjm
p1082
I7
sVdd4i2q1
p1083
I1
sVd3i0mis
p1084
I1
sVdrppiil
p1085
I2
sVdgo50o3
p1086
I1
sVd0qhjql
p1087
I1
sVcyn5af7
p1088
I1
sVdfqlafx
p1089
I1
sVdik94cb
p1090
I1
sVd77ssby
p1091
I1
sVdg5ilz8
p1092
I1
sVdaxwasv
p1093
I2
sVd9trkpj
p1094
I1
sVczkq687
p1095
I2
sVda8kxl1
p1096
I1
sVdag2yhy
p1097
I9
sVd3qvg77
p1098
I1
sVdjcxehl
p1099
I1
sVd9gzs1u
p1100
I9
sVdad1inq
p1101
I1
sVczunzdl
p1102
I1
sVdmu2ptr
p1103
I5
sVd4z5tgm
p1104
I4
sVd4cx0ai
p1105
I1
sVdnm749y
p1106
I1
sVd1c4yyp
p1107
I3
sVdel2hdq
p1108
I1
sVdbo2cyh
p1109
I1
sVddxdxqb
p1110
I1
sVd0cfjn7
p1111
I1
sVdfqldat
p1112
I1
sVddkyhja
p1113
I2
sVd7wjsjo
p1114
I1
sVdd53n90
p1115
I2
sVcyohyk0
p1116
I1
sVcz1hdie
p1117
I1
sVdd50wmc
p1118
I1
sVd1aasai
p1119
I1
sVcymn7mj
p1120
I6
sVd9ynv0n
p1121
I3
sVd98ez83
p1122
I1
sVdo6kepq
p1123
I2
sVd2mjape
p1124
I3
sVd5nijcy
p1125
I1
sVdmjop9r
p1126
I4
sVcywmdnz
p1127
I2
sVdj6lfbq
p1128
I7
sVdh9mlhr
p1129
I2
sVdr6ngdc
p1130
I2
sVdrryhgr
p1131
I1
sVdbcb0lm
p1132
I1
sVdh7rl81
p1133
I3
sVdn7vf7v
p1134
I1
sVd3zikak
p1135
I1
sVdhqkpkm
p1136
I1
sVd7qrtqd
p1137
I1
sVd068lmc
p1138
I1
sVd5rny3y
p1139
I2
sVdoratl6
p1140
I1
sVcyv39yt
p1141
I1
sVd0ip4mq
p1142
I7
sVd2bo8ka
p1143
I1
sVd4htfz8
p1144
I1
sVdji9bvj
p1145
I1
sVdjj9dvw
p1146
I1
sVdbnbji3
p1147
I5
sVdi4l0tu
p1148
I3
sVd63g79q
p1149
I1
sVdio7x3p
p1150
I1
sVd9jsv6m
p1151
I1
sVd6qawee
p1152
I2
sVdaume9b
p1153
I8
sVdai0lk1
p1154
I2
sVd1c4xww
p1155
I1
sVd5dmzvs
p1156
I2
sVdh8nkyp
p1157
I3
sVdq1h9pg
p1158
I1
sVd1lzi20
p1159
I1
sVdi14sm5
p1160
I1
sVdt1thc6
p1161
I3
sVd1roleu
p1162
I1
sVd8yuwox
p1163
I2
sVdhjgb6y
p1164
I1
sVdcwb3pf
p1165
I1
sVdeqm4xz
p1166
I1
sVczhbpz5
p1167
I2
sVcyivxmt
p1168
I2
sVdd13q1l
p1169
I1
sVcz0zp0c
p1170
I1
sVdbh3cfr
p1171
I1
sVd93it8j
p1172
I2
sVdk0jf42
p1173
I1
sVdbeqb7a
p1174
I1
sVd64ujo2
p1175
I1
sVdantvg7
p1176
I1
sVcysjp49
p1177
I1
sVdkdxhiv
p1178
I1
sVd70vbh2
p1179
I1
sVd0d59b4
p1180
I1
sVd92t88i
p1181
I3
sVdi4l3hn
p1182
I12
sVdj6u5rv
p1183
I2
sVdk055xl
p1184
I1
sVd63qjj0
p1185
I1
sVd5y81xo
p1186
I6
sVdswb3jo
p1187
I1
sVd2p4d83
p1188
I1
sVd9fywor
p1189
I1
sVd1ewqyx
p1190
I1
sVd7dcm3u
p1191
I1
sVcysnthf
p1192
I1
sVcz85s4y
p1193
I1
sVd7wzz80
p1194
I2
sVd3qh4du
p1195
I3
sVdd5izvh
p1196
I1
sVdeo5nh7
p1197
I2
sVd3qqfsw
p1198
I1
sVdedpnoe
p1199
I1
sVdb3glot
p1200
I1
sVdj67g21
p1201
I2
sVdf3mpfd
p1202
I1
sVczr13au
p1203
I1
sVd2escls
p1204
I2
sVdblqo03
p1205
I1
sVdhrtm5r
p1206
I1
sVd43zyuk
p1207
I1
sVde1nsrh
p1208
I1
sVdffdogu
p1209
I1
sVd60jevt
p1210
I2
sVdaxdpbs
p1211
I2
sVdal1xk0
p1212
I1
sVd7qt3hy
p1213
I1
sVd3diu75
p1214
I1
sVd3g98pm
p1215
I1
sVdgkyr3y
p1216
I3
sVdik4w1s
p1217
I2
sVdh1t400
p1218
I4
sVdn00xqd
p1219
I2
sVdiwewj7
p1220
I1
sVdodx3ss
p1221
I3
sVcyi67wo
p1222
I1
sVdb2umdw
p1223
I1
sVdpsqicv
p1224
I1
sVd1f2dg5
p1225
I3
sVczy3115
p1226
I1
sVda3sbe2
p1227
I1
sVddzgu43
p1228
I3
sVczrp1rb
p1229
I1
sVdes3sr7
p1230
I1
sVdafb4ox
p1231
I1
sVd17tkmx
p1232
I1
sVd5gwh2l
p1233
I1
sVd4bx2uu
p1234
I1
sVd8z0cet
p1235
I1
sVdgdyx8t
p1236
I2
sVd4t6voh
p1237
I3
sVdh9h9oe
p1238
I1
sVdhd4prx
p1239
I2
sVd9kdzty
p1240
I1
sVd2h0i25
p1241
I1
sVd2vs907
p1242
I1
sVdelkzvu
p1243
I1
sVcyxmmn3
p1244
I1
sVdgh3j7o
p1245
I6
sVd4h27wc
p1246
I1
sVd6mehbh
p1247
I1
sVdqcvok0
p1248
I4
sVd8ctpq6
p1249
I1
sVd5929tj
p1250
I3
sVdd8odsl
p1251
I2
sVczyu06a
p1252
I1
sVd9yq2is
p1253
I1
sVd76pgb3
p1254
I1
sVddbl2pf
p1255
I3
sVdf8v9js
p1256
I1
sVdngirwp
p1257
I1
sVcymm0vy
p1258
I1
sVdkuiqfr
p1259
I1
sVczvx9ew
p1260
I4
sVdh5nzgi
p1261
I1
sVdfikvht
p1262
I1
sVd2qf007
p1263
I1
sVd88kvco
p1264
I1
sVd4ceh1g
p1265
I2
sVdppsu6w
p1266
I1
sVdqzepx4
p1267
I2
sVdjod2cg
p1268
I2
sVd8sr7w4
p1269
I1
sVdhnkhlr
p1270
I4
sVdsbs7lr
p1271
I1
sVdrz1vht
p1272
I1
sVdqcmaqg
p1273
I1
sVdaf890e
p1274
I1
sVdmlh50c
p1275
I4
sVd87wj80
p1276
I1
sVdnm0oq7
p1277
I2
sVd22jlfh
p1278
I2
sVdaxga8a
p1279
I2
sVdpnfjyj
p1280
I1
sVd570k1j
p1281
I2
sVd6i37on
p1282
I1
sVd50ss2s
p1283
I4
sVd1zxwqs
p1284
I1
sVdhpqio0
p1285
I3
sVd3qvxka
p1286
I1
sVd7f1q7p
p1287
I3
sVd5vs7bo
p1288
I1
sVdmimxcu
p1289
I1
sVdczoehy
p1290
I1
sVd6gcae9
p1291
I1
sVd37kyvq
p1292
I2
sVd0gfupa
p1293
I2
sVdnltuje
p1294
I1
sVdad6bpi
p1295
I1
sVdj8byhg
p1296
I2
sVdd2zzjb
p1297
I1
sVczx1ll8
p1298
I1
sVdk1s1kq
p1299
I1
sVd0cd1bg
p1300
I1
sVd1c91qx
p1301
I1
sVdhdv3jg
p1302
I1
sVd1arnz2
p1303
I2
sVd0qk4f4
p1304
I1
sVdhl53fh
p1305
I3
sVdaojyan
p1306
I1
sVdgkhnf2
p1307
I2
sVd7i45ec
p1308
I1
sVd3udq8y
p1309
I1
sVdpppoqg
p1310
I1
sVd2paqem
p1311
I2
sVdt8yvkh
p1312
I1
sVd1t02m5
p1313
I1
sVdnhkruc
p1314
I3
sVdqcuffi
p1315
I1
sVdb59v08
p1316
I1
sVdn55v7n
p1317
I1
sVcz9svzo
p1318
I1
sVdb26v4f
p1319
I6
sVdivzj28
p1320
I2
sVdgyylom
p1321
I6
sVdfwq9ir
p1322
I1
sVdijlvcx
p1323
I1
sVd8a0axg
p1324
I1
sVd2aul6p
p1325
I3
sVd85ubuf
p1326
I1
sVd1uyr4f
p1327
I1
sVdsq3wb5
p1328
I2
sVd3ln6yx
p1329
I1
sVdgvxtwo
p1330
I1
sVdiub6sk
p1331
I3
sVd9b52rx
p1332
I2
sVd3hyl88
p1333
I1
sVdjhv4nn
p1334
I1
sVdk3c5a2
p1335
I1
sVd4zj54p
p1336
I1
sVdgem0yr
p1337
I1
sVd6fj42l
p1338
I1
sVdcx7n2w
p1339
I1
sVczayzab
p1340
I3
sVd5ygst6
p1341
I2
sVcyzb2ud
p1342
I1
sVde88u2p
p1343
I1
sVdbrlq3w
p1344
I1
sVdn1qvo7
p1345
I2
sVddmnlaw
p1346
I3
sVdkx6ji5
p1347
I1
sVcytc1hh
p1348
I1
sVdepizca
p1349
I10
sVdnptqqe
p1350
I1
sVdiox3o4
p1351
I2
sVdgk4m06
p1352
I1
sVd1y8m8n
p1353
I1
sVd4t5nyx
p1354
I1
sVd3hxrz1
p1355
I1
sVdaxbgzg
p1356
I5
sVdtgnar8
p1357
I3
sVd8ocjy0
p1358
I1
sVd588ptj
p1359
I1
sVcz26p9y
p1360
I1
sVd14gbff
p1361
I1
sVd3b7eul
p1362
I2
sVd75hs8f
p1363
I1
sVdb6jj29
p1364
I2
sVdc6by97
p1365
I2
sVd1iazn5
p1366
I1
sVcyx0kk2
p1367
I3
sVdbloezq
p1368
I1
sVdbvpjoe
p1369
I1
sVd3lnfni
p1370
I1
sVdht1nat
p1371
I1
sVd2415sa
p1372
I1
sVd8xr2j0
p1373
I2
sVd40u2i1
p1374
I1
sVda39fan
p1375
I1
sVcyz7bfl
p1376
I1
sVdrysayj
p1377
I1
sVd900vcr
p1378
I1
sVdj8apsl
p1379
I2
sVczr3zas
p1380
I2
sVd3ziw4o
p1381
I2
sVdrdbj67
p1382
I1
sVd0nea6m
p1383
I2
sVcyzwtyw
p1384
I6
sVdqipyex
p1385
I1
sVdo1fuzn
p1386
I4
sVd3w10zh
p1387
I4
sVdk2sdk4
p1388
I1
sVczsg3s0
p1389
I1
sVdt349ih
p1390
I4
sVd63lxk8
p1391
I1
sVd40h2l9
p1392
I2
sVd5x2e0k
p1393
I2
sVd6i2oax
p1394
I1
sVczdkc9l
p1395
I2
sVd4w89am
p1396
I1
sVdii7tfg
p1397
I1
sVdb23140
p1398
I2
sVdjo8yu0
p1399
I3
sVcz48f9r
p1400
I1
sVdgyflj2
p1401
I1
sVdou5t73
p1402
I1
sVd1xu2u5
p1403
I1
sVdiy3p2r
p1404
I1
sVdbh30hs
p1405
I1
sVd1uff8x
p1406
I1
sVddgybyy
p1407
I2
sVdrqfcsz
p1408
I2
sVcz4wd9y
p1409
I5
sVd49wl4n
p1410
I1
sVd6ue2hw
p1411
I2
sVd8pzo1u
p1412
I1
sVd6zi6bv
p1413
I3
sVdk9zsjk
p1414
I3
sVd6nklwq
p1415
I1
sVdnlj49n
p1416
I2
sVddsw6ok
p1417
I5
sVdhb46h5
p1418
I3
sVdjzt4ac
p1419
I1
sVdbsrp7i
p1420
I1
sVdozvaxm
p1421
I3
sVdn1aojk
p1422
I2
sVd6fcv4a
p1423
I2
sVdnm3ujg
p1424
I2
sVdfu17hd
p1425
I1
sVd2dg2mt
p1426
I1
sVdbe4lrn
p1427
I2
sVdhldzib
p1428
I1
sVd3v7p9k
p1429
I2
sVd7goalu
p1430
I1
sVdo9b4jo
p1431
I1
sVd9aryxe
p1432
I1
sVczzq24r
p1433
I1
sVd004g0u
p1434
I3
sVdphw8az
p1435
I1
sVdi23tjo
p1436
I2
sVdrnzv9h
p1437
I2
sVdaqgfpr
p1438
I1
sVde82ypi
p1439
I2
sVdal5k7f
p1440
I1
sVdk3iemo
p1441
I8
sVd5e2pmo
p1442
I1
sVdfd43z8
p1443
I1
sVdk4q0wr
p1444
I3
sVdmv91mv
p1445
I4
sVdnei89j
p1446
I3
sVded5n3k
p1447
I1
sVde9dnp3
p1448
I2
sVd8ndsdw
p1449
I1
sVdneit0q
p1450
I4
sVdipabc9
p1451
I1
sVdk7inn5
p1452
I1
sVdntab7p
p1453
I4
sVd4xkvpz
p1454
I1
sVdax9ftl
p1455
I1
sVd31xws1
p1456
I1
sVdgacqtn
p1457
I1
sVdo6juh1
p1458
I12
sVd7gfcx8
p1459
I1
sVdir1pbi
p1460
I1
sVdob49my
p1461
I1
sVd6fb85n
p1462
I3
sVdgy1zzi
p1463
I1
sVcyjk6sm
p1464
I1
sVd50ohvd
p1465
I4
sVdeluwrw
p1466
I1
sVd08zd01
p1467
I1
sVd2hk5k8
p1468
I1
sVdbh6anm
p1469
I1
sVd3ginah
p1470
I2
sVd0ugwfc
p1471
I1
sVdiqsn0i
p1472
I1
sVdkb2we7
p1473
I2
sVda5qwpw
p1474
I1
sVdgcz5qd
p1475
I1
sVdj6qryr
p1476
I2
sVd3brh0z
p1477
I1
sVdst885c
p1478
I1
sVdcglfn3
p1479
I1
sVczwxbpl
p1480
I1
sVd06k5vg
p1481
I1
sVczils5e
p1482
I1
sVdef0cfm
p1483
I1
sVd514wc8
p1484
I1
sVdeeses7
p1485
I2
sVczyq4c0
p1486
I2
sVdh6aohz
p1487
I1
sVcysy36b
p1488
I4
sVdo99o8r
p1489
I1
sVdinrtcd
p1490
I1
sVdnigdvi
p1491
I1
sVd6kn8ce
p1492
I2
sVdoivnu6
p1493
I1
sVdikuplt
p1494
I1
sVdddscx8
p1495
I1
sVd646r79
p1496
I1
sVdir2a8i
p1497
I1
sVdh5o3et
p1498
I1
s.