(dp0
Vd5yzmsn
p1
I1
s.(dp0
Vd5yzmsn
p1
I1
sVdbend75
p2
I1
s.(dp0
Vd5yzmsn
p1
I1
sVdgqaue5
p2
I1
s.(dp0
Vd5yzmsn
p1
I1
sVdhasy60
p2
I1
s.(dp0
Vd5yzmsn
p1
I1
sVdhph1op
p2
I1
s.(dp0
Vd5yzmsn
p1
I1
sVdk4p64n
p2
I1
s.(dp0
Vd5yzmsn
p1
I1
sVdk4p64n
p2
I1
s.(dp0
Vd5yzmsn
p1
I1
sVdpoy63m
p2
I1
s.