(dp0
Vdaf6ldq
p1
I2
sVde6c8iz
p2
I1
sVdafdmqj
p3
I1
sVd2uld7j
p4
I1
sVdg5sv0i
p5
I1
sVdikqcyf
p6
I1
sVdcrcxfh
p7
I1
sVdkzj3id
p8
I1
sVd96xzu0
p9
I1
sVdh4lanj
p10
I1
sVd8wpxsf
p11
I1
sVdijqq6w
p12
I1
sVdam1llq
p13
I1
sVd9ex9ku
p14
I1
sVd9lj1xz
p15
I1
sVdaf0orh
p16
I1
sVd2ulbqq
p17
I3
sVd7fpinb
p18
I2
sVdtg4s2d
p19
I1
sVczgmkm1
p20
I2
sVdn9tcn0
p21
I1
sVdmxv3jg
p22
I1
sVdb2c2ro
p23
I1
sVdmpag19
p24
I1
sVdece7ud
p25
I1
sVdmhyyzr
p26
I1
sVdr2nohe
p27
I2
sVdam1ged
p28
I1
sVdhejrh2
p29
I1
sVdn1go2j
p30
I2
sVdazrstn
p31
I1
sVddnwpzz
p32
I1
sVdifssqn
p33
I1
sVdb03bjg
p34
I1
sVdenvlag
p35
I1
sVdaf0vfx
p36
I2
sVd2bfmvo
p37
I1
sVdcrn6kp
p38
I3
sVd4aj6nm
p39
I1
sVd9dpbyc
p40
I1
sVd66fub6
p41
I1
sVdam1w4w
p42
I2
sVddbglvp
p43
I1
sVdjghfv5
p44
I1
sVda4fdzd
p45
I1
sVd9ljptj
p46
I1
sVdie03yr
p47
I1
sVczpxcyg
p48
I1
sVdijqvsx
p49
I1
sVdcy25wv
p50
I2
sVd3wnpdw
p51
I1
sVdp53eyp
p52
I1
sVd2fu1l9
p53
I1
sVd8doz64
p54
I1
sVdbggbzp
p55
I1
sVdcl014o
p56
I1
sVdav60b0
p57
I1
sVdcrhypn
p58
I2
sVd7fmk8w
p59
I1
sVdam1nnl
p60
I1
sVd031us5
p61
I1
sVdafmxgi
p62
I1
sVd3rzyej
p63
I1
sVdcan5or
p64
I1
s.