(dp0
Vd2yj5dp
p1
I1
s.(dp0
Vd5fnvpx
p1
I1
sVd2yj5dp
p2
I1
s.(dp0
Vd7hgn3p
p1
I1
sVd2yj5dp
p2
I1
s.(dp0
Vdeea479
p1
I1
sVd2yj5dp
p2
I1
s.(dp0
Vdowml4y
p1
I1
sVd2yj5dp
p2
I1
s.(dp0
Vdrryhgr
p1
I1
sVd2yj5dp
p2
I1
s.