(dp0
Vd473kya
p1
I1
sVdmfte5u
p2
I1
sVdhahbzq
p3
I1
sVd2v18cd
p4
I1
sVd9ieesf
p5
I1
sVdhzdfo1
p6
I4
sVdk91ja5
p7
I1
sVd9csk66
p8
I2
sVdnt4m3x
p9
I2
sVdah3tv0
p10
I2
sVd95lfwt
p11
I1
sVdr3thtn
p12
I1
sVdjwzuyk
p13
I1
sVd1ibz5r
p14
I1
sVd8f2urp
p15
I1
sVd3kxdxr
p16
I1
sVd8guk8i
p17
I1
sVd8fl85w
p18
I1
sVd25080g
p19
I1
sVdoo2u28
p20
I1
sVdrxcusj
p21
I1
sVdi4h1in
p22
I1
sVdn39kdw
p23
I1
sVdorc47k
p24
I2
s.