(dp0
Vd6q7b9c
p1
I1
sVdbhi56y
p2
I1
sVde86pod
p3
I1
sVd4kxlrd
p4
I1
sVd0h0lvl
p5
I1
sVdd4ofe8
p6
I1
sVczlp92f
p7
I2
sVd3sg2o9
p8
I1
sVd0izsv6
p9
I1
sVd10r1m0
p10
I2
sVd16rus1
p11
I1
sVdgocmqf
p12
I1
sVdid5xuh
p13
I1
sVd5hkfy7
p14
I1
sVd5vooje
p15
I1
s.