(dp0
Vdpno1mn
p1
I1
sVdf66lxp
p2
I1
sVd4gp4lc
p3
I1
sVdermiga
p4
I1
sVdhted0t
p5
I3
sVdb3vk3i
p6
I1
sVd9jv82w
p7
I1
sVd9zr81t
p8
I1
sVdpwk8pu
p9
I1
sVd4hmxmd
p10
I1
sVdi1hywu
p11
I1
sVd1kaf5m
p12
I1
sVd0rrtun
p13
I1
sVd0jhuk7
p14
I1
sVd0ij6pg
p15
I1
sVdng0txy
p16
I1
sVdf2h3b4
p17
I1
sVd1mxqh3
p18
I1
sVdbhhbps
p19
I2
sVd1ojwfv
p20
I1
sVd433c5x
p21
I1
sVdtcd5l2
p22
I1
sVd6ir1t7
p23
I1
sVd63vxb8
p24
I1
sVd8coubo
p25
I1
sVdinpt3c
p26
I2
sVczaarb0
p27
I1
sVdiqgx4s
p28
I1
sVdk2ma7x
p29
I1
sVd4616t7
p30
I2
sVdqumt6m
p31
I1
sVdklay6g
p32
I1
sVdidda2c
p33
I1
sVdoenlty
p34
I1
sVdf7zt2x
p35
I1
sVd35qwo9
p36
I1
sVdf27myk
p37
I1
sVdoilyk6
p38
I1
sVdeu1qiv
p39
I1
sVdgzso5h
p40
I1
sVd9zmv0k
p41
I1
sVdf84qit
p42
I1
sVd6oic54
p43
I1
sVdnberrd
p44
I1
sVdelx2vp
p45
I1
sVd7y44ss
p46
I1
sVd0c796i
p47
I1
sVde9moff
p48
I1
sVd3t9t6a
p49
I1
sVdhtby8s
p50
I1
sVdisq5iw
p51
I2
sVczf4lpq
p52
I1
sVdecsgxe
p53
I1
sVd09dx1w
p54
I1
sVd00f9kf
p55
I1
sVdi3i0pt
p56
I1
sVda4yi4j
p57
I1
sVdb55l1r
p58
I2
sVd4ivd1t
p59
I1
sVd97lnnp
p60
I1
sVdk9fd7t
p61
I1
sVd8co6g1
p62
I1
sVczob3oc
p63
I1
sVd5vrucq
p64
I1
sVddcuwn4
p65
I1
sVdgcqeim
p66
I1
sVcz2stkx
p67
I1
sVdeb9bip
p68
I2
sVd4k2ug7
p69
I1
sVdqap8yi
p70
I2
sVdbwpzd3
p71
I2
sVdgw512p
p72
I1
sVd03p80g
p73
I1
sVczhqdly
p74
I1
sVd1mqseo
p75
I1
sVdfwag3q
p76
I1
sVda74sfg
p77
I1
sVdksb02g
p78
I1
sVd1yw2oe
p79
I1
sVddzikkd
p80
I1
sVdkvev9g
p81
I1
sVd3rwbap
p82
I1
sVd0rphdn
p83
I1
sVcz398yu
p84
I1
sVd58e5uw
p85
I1
sVdechn9s
p86
I1
sVdae6el1
p87
I2
sVdju2k2o
p88
I1
sVddcyhqw
p89
I1
sVdcgj52u
p90
I1
sVd642rjw
p91
I1
sVd3ft6kz
p92
I1
s.