(dp0
Vdeyedm8
p1
I1
sVcyqhpvm
p2
I1
sVd1lv5mj
p3
I1
sVdgtn01a
p4
I1
sVdqxph43
p5
I1
sVdhyiisk
p6
I1
sVcz2cv4p
p7
I1
sVd6n8tz3
p8
I1
sVdcijpvv
p9
I1
sVdk2oe5k
p10
I1
sVcymckxg
p11
I2
sVd0j3jxy
p12
I1
sVd08xuzm
p13
I1
sVdkksqrg
p14
I1
sVd6p0q63
p15
I2
sVd5fzmfw
p16
I1
sVdj2l5bd
p17
I1
sVdrt95ln
p18
I1
sVd7mcpyg
p19
I1
sVd7bfj8c
p20
I1
sVcz59tdw
p21
I1
sVdk2o3x0
p22
I1
sVd1dt6zg
p23
I1
sVdtagwby
p24
I1
sVdkl1mzn
p25
I1
sVd1kps28
p26
I1
sVdfcnmm4
p27
I1
sVd28wzjd
p28
I1
sVczrr34j
p29
I1
sVdsj3u1h
p30
I1
sVd2l5cuh
p31
I1
s.