(dp0
Vdoe1stc
p1
I2
sVczwitew
p2
I3
sVd15ofdt
p3
I1
sVd0pk9m7
p4
I1
sVdf69gvd
p5
I2
sVdtfh9x0
p6
I1
sVdpsvb69
p7
I1
sVdgf2oxy
p8
I2
sVdh8nkyp
p9
I1
sVd0pl78q
p10
I1
sVdn8pfim
p11
I1
sVcywlgro
p12
I1
sVdflis3g
p13
I1
sVdo2w3ch
p14
I1
sVd59l97c
p15
I1
sVcynt9ic
p16
I1
sVdbxioru
p17
I1
sVdjze1wd
p18
I2
sVd5nlm1h
p19
I1
sVdctl2zs
p20
I2
sVd7hxfhb
p21
I1
sVd669rmv
p22
I3
sVd2jhjhs
p23
I1
sVdr9lx9f
p24
I1
sVd9pj5uy
p25
I1
sVdd8srnh
p26
I6
sVdbg3xjv
p27
I1
sVd93ife0
p28
I1
sVcyxogbm
p29
I2
sVd2aikfm
p30
I2
sVdf0m7ba
p31
I3
sVd7xldv4
p32
I1
sVd7k3zyp
p33
I1
sVd62s54t
p34
I2
sVd99q384
p35
I1
sVdhjl3rf
p36
I1
sVd1h49gd
p37
I1
sVdozjpgh
p38
I2
sVd0d1m2i
p39
I1
sVd83i5ct
p40
I1
sVdmr8y7t
p41
I1
sVd2phzmy
p42
I1
sVd0riqgf
p43
I1
sVdmr0ypq
p44
I1
sVd2bq14r
p45
I1
sVdasgpu9
p46
I3
sVd0wnirh
p47
I3
sVdc79psa
p48
I1
sVdr18g50
p49
I1
sVdd4ziud
p50
I3
sVd2fc05u
p51
I1
sVdc3hozv
p52
I1
sVdgt89yj
p53
I1
sVdsadb9e
p54
I1
sVdqmvjk1
p55
I1
sVd90hmm4
p56
I1
sVdgjcsde
p57
I1
sVdgshn8u
p58
I2
sVdbwgie5
p59
I2
sVd68rd2w
p60
I1
sVdef0wsc
p61
I1
sVd0rlpfn
p62
I3
sVd72hz7v
p63
I1
sVdefwyc9
p64
I2
sVcyr41h9
p65
I1
sVdexq5sa
p66
I3
sVdauw2cf
p67
I1
sVdd8loa3
p68
I1
sVcz1bvzh
p69
I2
sVd2wxayz
p70
I1
sVd9gd008
p71
I1
sVd8ocacq
p72
I4
sVdn914ki
p73
I1
sVd7bqcox
p74
I1
sVdc7c74l
p75
I1
sVds9z6gz
p76
I2
sVd4cxcq0
p77
I1
sVdri8y4d
p78
I1
sVdd6pbhr
p79
I1
sVdb1bvi8
p80
I2
sVczdr1rh
p81
I1
sVdbinqed
p82
I1
sVdmj3059
p83
I1
sVdq6wf0g
p84
I2
sVdan2fs0
p85
I1
sVdkegnf2
p86
I1
sVdktykr2
p87
I2
sVd343xel
p88
I1
sVd9wfzom
p89
I1
sVd1mqfgl
p90
I1
sVczl27uf
p91
I1
sVd7r82mb
p92
I1
sVd1yzyz6
p93
I2
sVdmorbvv
p94
I1
sVdaa2pxk
p95
I1
sVdahldwt
p96
I1
sVcz80dt9
p97
I1
sVcyquqc3
p98
I2
sVdcsd1bu
p99
I1
sVcyklo9j
p100
I1
sVdpynhc6
p101
I1
sVdgs0czd
p102
I1
sVdfmglh7
p103
I2
sVdak9so3
p104
I2
sVde9tkhk
p105
I1
sVd27nibh
p106
I1
sVdav8kbg
p107
I1
sVdpau7m3
p108
I2
sVdkhhaip
p109
I1
sVd7y759d
p110
I1
sVd60o4em
p111
I2
sVd5nj1sp
p112
I2
sVd3m1sy3
p113
I1
sVd4324v4
p114
I3
sVda2pzkx
p115
I1
sVd6jh7vh
p116
I1
sVda8a78a
p117
I1
sVcyva4ea
p118
I1
sVd7iuvqp
p119
I1
sVdt0tv6s
p120
I1
sVdde61rm
p121
I1
sVdnfcrve
p122
I1
sVczqiwam
p123
I1
sVdbwr5jz
p124
I6
sVdexq7rx
p125
I2
sVczw856l
p126
I2
sVd550a1t
p127
I1
sVdca30ka
p128
I2
sVd9y6fad
p129
I2
sVdq5lgkg
p130
I1
sVdrd8p5c
p131
I2
sVdpwioqb
p132
I1
sVdsf043d
p133
I1
sVdfjmsj4
p134
I2
sVd8to9am
p135
I1
sVdks26z0
p136
I2
sVdgk6ccn
p137
I1
sVd9c4lut
p138
I1
sVdo7unqj
p139
I2
sVczw9gxi
p140
I1
sVdbwrhhh
p141
I1
sVd0pmkwx
p142
I1
sVdb6rfok
p143
I1
sVcyv6k69
p144
I1
sVddx60lt
p145
I1
sVd47clix
p146
I1
sVd6qcp8t
p147
I1
sVd8ggozt
p148
I1
sVd62wo4p
p149
I2
sVd8mglmw
p150
I1
sVdpaaz41
p151
I1
sVdfx72iv
p152
I1
sVd2ikhp4
p153
I1
sVd3jyont
p154
I2
sVdbco91m
p155
I1
sVd7gix17
p156
I1
sVdjd5y77
p157
I1
sVdnfpvco
p158
I1
sVdje4ehs
p159
I1
sVd7kl7ee
p160
I1
sVdr5ws3j
p161
I3
sVd0bvd7x
p162
I1
sVd1djtaq
p163
I1
sVdahfyjd
p164
I1
sVdonyslp
p165
I1
sVd2l6cxc
p166
I2
sVd6pawfw
p167
I2
sVdd54lih
p168
I1
sVdcab2ll
p169
I1
sVd31zckt
p170
I1
sVd7pzjsa
p171
I2
sVdhocln8
p172
I1
sVda9m3pu
p173
I1
sVd91etq3
p174
I1
sVdg4mq6s
p175
I1
sVd5eee3y
p176
I1
sVdppcm24
p177
I1
sVdmja3tc
p178
I1
sVd1f1vha
p179
I1
sVd2m2bof
p180
I2
sVdeyatik
p181
I1
sVdivx310
p182
I1
sVdocemnv
p183
I1
sVd6d7yzl
p184
I1
s.