(dp0
Vcyitk1s
p1
I1
s.(dp0
Vcypc6bn
p1
I1
sVcyitk1s
p2
I1
s.(dp0
Vcyitk1s
p1
I1
sVcyzjwqp
p2
I1
s.(dp0
Vcyitk1s
p1
I1
sVcz3s1y8
p2
I1
s.(dp0
Vczs7td7
p1
I1
sVcyitk1s
p2
I1
s.(dp0
Vd08rid0
p1
I1
sVcyitk1s
p2
I1
s.(dp0
Vd0dudgu
p1
I1
sVcyitk1s
p2
I1
s.(dp0
Vd0dudgu
p1
I1
sVcyitk1s
p2
I1
s.(dp0
Vd0dudgu
p1
I1
sVcyitk1s
p2
I1
s.(dp0
Vd0xzbfq
p1
I1
sVcyitk1s
p2
I1
s.(dp0
Vd1p3h9i
p1
I1
sVcyitk1s
p2
I1
s.(dp0
Vd2uvcqk
p1
I1
sVcyitk1s
p2
I1
s.(dp0
Vcyitk1s
p1
I1
sVd2uvgpo
p2
I1
s.(dp0
Vd32o8d9
p1
I1
sVcyitk1s
p2
I1
s.(dp0
Vd3krclb
p1
I1
sVcyitk1s
p2
I1
s.(dp0
Vd3krclb
p1
I1
sVcyitk1s
p2
I1
s.(dp0
Vd3krclb
p1
I1
sVcyitk1s
p2
I1
s.(dp0
Vd3krclb
p1
I1
sVcyitk1s
p2
I1
s.(dp0
Vd3krclb
p1
I1
sVcyitk1s
p2
I1
s.(dp0
Vd3mv237
p1
I1
sVcyitk1s
p2
I1
s.(dp0
Vd40uc3y
p1
I1
sVcyitk1s
p2
I1
s.(dp0
Vcyitk1s
p1
I1
sVd464bh2
p2
I1
s.(dp0
Vcyitk1s
p1
I1
sVd464bh2
p2
I1
s.(dp0
Vd474g3c
p1
I1
sVcyitk1s
p2
I1
s.(dp0
Vd48nfo2
p1
I1
sVcyitk1s
p2
I1
s.(dp0
Vcyitk1s
p1
I1
sVd4edymu
p2
I1
s.(dp0
Vcyitk1s
p1
I1
sVd4oajyq
p2
I1
s.(dp0
Vd4qnla4
p1
I1
sVcyitk1s
p2
I1
s.(dp0
Vcyitk1s
p1
I1
sVd4w9ow0
p2
I1
s.(dp0
Vd5os35f
p1
I1
sVcyitk1s
p2
I1
s.(dp0
Vcyitk1s
p1
I1
sVd6j5t7t
p2
I1
s.(dp0
Vcyitk1s
p1
I1
sVd6pk5r2
p2
I1
s.(dp0
Vd6zqa1e
p1
I1
sVcyitk1s
p2
I1
s.(dp0
Vd7bcgnd
p1
I1
sVcyitk1s
p2
I1
s.(dp0
Vd7kjqqa
p1
I1
sVcyitk1s
p2
I1
s.(dp0
Vd7kjqqa
p1
I1
sVcyitk1s
p2
I1
s.(dp0
Vd7odu5u
p1
I1
sVcyitk1s
p2
I1
s.(dp0
Vd7odu5u
p1
I1
sVcyitk1s
p2
I1
s.(dp0
Vd7r4wzq
p1
I1
sVcyitk1s
p2
I1
s.(dp0
Vcyitk1s
p1
I1
sVd7vith2
p2
I1
s.(dp0
Vd7xt4pt
p1
I1
sVcyitk1s
p2
I1
s.(dp0
Vd8gifec
p1
I1
sVcyitk1s
p2
I1
s.(dp0
Vcyitk1s
p1
I1
sVd9k2t3a
p2
I1
s.(dp0
Vd9kabr8
p1
I1
sVcyitk1s
p2
I1
s.(dp0
Vd9pflxc
p1
I1
sVcyitk1s
p2
I1
s.(dp0
Vcyitk1s
p1
I1
sVdakux89
p2
I1
s.(dp0
Vcyitk1s
p1
I1
sVdauod0m
p2
I1
s.(dp0
Vcyitk1s
p1
I1
sVdauufl3
p2
I1
s.(dp0
Vcyitk1s
p1
I1
sVdayplus
p2
I1
s.(dp0
Vdc6nv04
p1
I1
sVcyitk1s
p2
I1
s.(dp0
Vdcriwc0
p1
I1
sVcyitk1s
p2
I1
s.(dp0
Vdczxkve
p1
I1
sVcyitk1s
p2
I1
s.(dp0
Vddgpryi
p1
I1
sVcyitk1s
p2
I1
s.(dp0
Vddn7y5y
p1
I1
sVcyitk1s
p2
I1
s.(dp0
Vcyitk1s
p1
I1
sVddt5w4y
p2
I1
s.(dp0
Vcyitk1s
p1
I1
sVddt5w4y
p2
I1
s.(dp0
Vcyitk1s
p1
I1
sVddt5w4y
p2
I1
s.(dp0
Vcyitk1s
p1
I1
sVddt5w4y
p2
I1
s.(dp0
Vcyitk1s
p1
I1
sVddt5w4y
p2
I1
s.(dp0
Vdeck3qc
p1
I1
sVcyitk1s
p2
I1
s.(dp0
Vcyitk1s
p1
I1
sVdef227j
p2
I1
s.(dp0
Vcyitk1s
p1
I1
sVdermyul
p2
I1
s.(dp0
Vdf0n8gu
p1
I1
sVcyitk1s
p2
I1
s.(dp0
Vcyitk1s
p1
I1
sVdfdsdgx
p2
I1
s.(dp0
Vdfgnnq8
p1
I1
sVcyitk1s
p2
I1
s.(dp0
Vcyitk1s
p1
I1
sVdfkk98u
p2
I1
s.(dp0
Vdfylnmm
p1
I1
sVcyitk1s
p2
I1
s.(dp0
Vcyitk1s
p1
I1
sVdg2lqg5
p2
I1
s.(dp0
Vdg9o40j
p1
I1
sVcyitk1s
p2
I1
s.(dp0
Vdgxax1w
p1
I1
sVcyitk1s
p2
I1
s.(dp0
Vdh47zpl
p1
I1
sVcyitk1s
p2
I1
s.(dp0
Vdi2lw1r
p1
I1
sVcyitk1s
p2
I1
s.(dp0
Vdi2lw1r
p1
I1
sVcyitk1s
p2
I1
s.(dp0
Vdisjsvy
p1
I1
sVcyitk1s
p2
I1
s.(dp0
Vcyitk1s
p1
I1
sVdj9uxie
p2
I1
s.(dp0
Vdjvbyrd
p1
I1
sVcyitk1s
p2
I1
s.(dp0
Vcyitk1s
p1
I1
sVdkntxlr
p2
I1
s.(dp0
Vdkpai0u
p1
I1
sVcyitk1s
p2
I1
s.(dp0
Vdmnked2
p1
I1
sVcyitk1s
p2
I1
s.(dp0
Vdn1otqv
p1
I1
sVcyitk1s
p2
I1
s.(dp0
Vdn1otqv
p1
I1
sVcyitk1s
p2
I1
s.(dp0
Vcyitk1s
p1
I1
sVdn3n4od
p2
I1
s.(dp0
Vdndxzke
p1
I1
sVcyitk1s
p2
I1
s.(dp0
Vdnuep8s
p1
I1
sVcyitk1s
p2
I1
s.(dp0
Vdo9iajs
p1
I1
sVcyitk1s
p2
I1
s.(dp0
Vdqq4z5d
p1
I1
sVcyitk1s
p2
I1
s.(dp0
Vdqq4z5d
p1
I1
sVcyitk1s
p2
I1
s.(dp0
Vdr3i00b
p1
I1
sVcyitk1s
p2
I1
s.(dp0
Vdsgswet
p1
I1
sVcyitk1s
p2
I1
s.(dp0
Vdslah2o
p1
I1
sVcyitk1s
p2
I1
s.(dp0
Vdt6bdcf
p1
I1
sVcyitk1s
p2
I1
s.