(dp0
Vdmup3oe
p1
I3
sVdfkeymw
p2
I1
sVd8ntl3l
p3
I1
sVdc46m14
p4
I1
sVdbcw28h
p5
I1
sVd4p3nje
p6
I2
sVd6xo4af
p7
I1
sVcz1xo2n
p8
I2
sVd39lh9r
p9
I1
sVd98l3f7
p10
I1
sVd31whdb
p11
I1
sVd4lz8bg
p12
I2
sVdblk345
p13
I1
sVd3jopv4
p14
I1
sVdb58wpe
p15
I1
sVdptfmcd
p16
I1
sVdjq85v1
p17
I1
sVd8nj3k8
p18
I1
sVdaiuq7a
p19
I1
sVdal54yd
p20
I1
sVdq67kc9
p21
I1
sVddvyp6x
p22
I1
sVd5fttyd
p23
I1
sVdtfmuja
p24
I1
sVczx7237
p25
I1
sVczmwpht
p26
I1
sVdd8g1kt
p27
I1
sVd03143c
p28
I2
sVdhjo0lz
p29
I2
sVd1v2hpd
p30
I2
sVd3rfggy
p31
I2
sVdfx0n5f
p32
I1
sVddng8t8
p33
I1
sVdkgckvh
p34
I1
sVd17uel6
p35
I1
sVdj8n447
p36
I1
sVd0ehh7j
p37
I1
sVd8ry307
p38
I1
sVd1p3df2
p39
I1
sVdamqp6x
p40
I7
sVdfi2m9z
p41
I1
sVdehr272
p42
I2
sVdqt0bhz
p43
I1
sVd62lnb0
p44
I1
sVdb363kx
p45
I1
sVdbmhuee
p46
I1
sVdi5n8kn
p47
I2
sVd3vsz62
p48
I3
sVdnyq1gg
p49
I1
sVdrx0eju
p50
I1
sVd2swjwc
p51
I1
sVdih12c8
p52
I1
sVdd5l9sn
p53
I4
sVddofipv
p54
I1
sVdk68jw4
p55
I1
sVd1fj2oa
p56
I1
sVd1zc9r3
p57
I1
sVdanbg1n
p58
I1
sVdclgbiw
p59
I2
sVd2flqxe
p60
I1
sVdateqqg
p61
I1
sVdggjwxw
p62
I1
sVdi9rb2j
p63
I1
sVdfoub4m
p64
I1
sVd0b584g
p65
I1
sVdooiw7u
p66
I1
sVdcpnxk7
p67
I1
sVd9rbib0
p68
I1
sVd1uooef
p69
I1
sVcyyxwgg
p70
I1
sVd7ztg1k
p71
I1
sVcz938iu
p72
I1
sVd322spd
p73
I1
sVda00fa6
p74
I1
sVdc2uysf
p75
I1
sVdckl83j
p76
I2
sVdcj4mve
p77
I2
sVd240dgo
p78
I2
sVd21vjm1
p79
I1
sVd0318a7
p80
I1
sVdfrond4
p81
I1
sVddwmtqj
p82
I1
sVdhlnoq2
p83
I1
sVcyjja7d
p84
I1
sVd9i9zrh
p85
I3
sVdd2b9im
p86
I1
sVcypiqri
p87
I1
sVded4805
p88
I1
sVd0zea5n
p89
I1
sVd791tdr
p90
I1
sVd09qk2m
p91
I1
sVd0b7bu7
p92
I1
sVd25krfi
p93
I1
sVczsdzs4
p94
I1
sVdiuxlrj
p95
I1
sVdaxa63x
p96
I1
sVdds8k2s
p97
I1
sVdfbjs9e
p98
I1
sVd2zrxu4
p99
I1
sVd23sojk
p100
I3
sVdcsuy3k
p101
I2
sVcynqnpz
p102
I2
sVdcmn4g3
p103
I1
sVd3zsscc
p104
I2
sVcym7o4v
p105
I1
sVdaynj85
p106
I1
sVd5dzcmh
p107
I2
sVd0zmj9p
p108
I1
sVdifjyz7
p109
I1
sVdeh98fn
p110
I1
sVdn7pfqh
p111
I1
sVd1v1by5
p112
I1
sVd8ox0zo
p113
I3
sVdid4pwa
p114
I1
sVd36bxxv
p115
I1
sVczt8l69
p116
I1
sVd01ucno
p117
I3
sVd1i9h2b
p118
I1
sVd0o7338
p119
I1
sVdiajbld
p120
I1
sVd1orhq5
p121
I1
sVczxy8nh
p122
I4
sVdi13ddz
p123
I1
sVd21jywf
p124
I1
sVd4ib74x
p125
I1
sVd4y7iuc
p126
I1
sVczmqocz
p127
I2
sVcyjx5cx
p128
I2
sVd9x0oy8
p129
I1
sVd5d830u
p130
I1
sVddsr52s
p131
I1
sVd3p8fob
p132
I1
sVd7jiksm
p133
I1
sVd1603os
p134
I1
sVdjfz8s1
p135
I1
sVcyp22fc
p136
I1
sVddgwuj8
p137
I1
sVdksyttf
p138
I1
sVd5ubu8k
p139
I2
sVd69q5mi
p140
I1
sVczd0itl
p141
I1
sVd5ekja8
p142
I1
sVdaidukv
p143
I1
sVd844o9y
p144
I1
sVd3j3xth
p145
I1
sVd6wq2gk
p146
I1
sVdkrto4q
p147
I1
sVdkazlek
p148
I1
sVdthgri9
p149
I1
sVda5kzmk
p150
I1
sVcyz9t6i
p151
I1
sVczu6fs6
p152
I1
sVdef5gxl
p153
I1
sVd8zw5dl
p154
I1
sVd51a6vu
p155
I1
sVdfo088o
p156
I1
sVd1q8l5v
p157
I1
sVd23rdaz
p158
I2
sVdfhe1ib
p159
I1
sVde45qx0
p160
I1
sVdhpu0lw
p161
I1
sVczhavoz
p162
I1
sVd6094il
p163
I1
sVdi87uzm
p164
I2
sVczm435o
p165
I1
sVdid0dyj
p166
I2
sVdfnwgov
p167
I1
sVdchki5e
p168
I1
sVd995ude
p169
I1
sVdgqno9f
p170
I1
sVd1lidvr
p171
I1
sVdcpnjsd
p172
I1
sVd2rfcpb
p173
I1
sVd86xgxj
p174
I1
sVd6ev3oy
p175
I1
sVczz970r
p176
I1
sVd1r7rwq
p177
I2
sVd1tpt5a
p178
I1
sVdgo9kf2
p179
I1
sVd0g7hwx
p180
I1
sVdg9e7gq
p181
I1
sVd3h1ewp
p182
I1
sVd9zazb0
p183
I2
sVd51k19h
p184
I1
sVdd23zev
p185
I2
sVd05fsks
p186
I2
sVdka3ir0
p187
I1
sVcys0xcs
p188
I1
sVd0y0kmi
p189
I1
sVdc7ys0m
p190
I1
sVd384p8k
p191
I1
sVdpqoafw
p192
I1
sVdqbei6l
p193
I1
sVdcr4gjx
p194
I1
sVdepg1jh
p195
I1
sVd2ydd3a
p196
I1
sVcyxj9ud
p197
I1
sVd3bj0ws
p198
I1
sVdas63og
p199
I1
sVd2je0t5
p200
I1
sVd4p4k6x
p201
I1
sVd84ovb7
p202
I1
sVd6j2zj3
p203
I1
sVd8eqea6
p204
I3
sVd86hmtx
p205
I1
sVcyz44mu
p206
I1
sVdcpl3x5
p207
I1
sVdkyv5d0
p208
I1
sVd9zem7u
p209
I1
sVdgb9zjn
p210
I1
sVd3g86uj
p211
I1
sVdjlpma7
p212
I2
sVdfngysl
p213
I3
sVd35jymc
p214
I1
sVdh3zvuf
p215
I1
sVdf8xzl1
p216
I1
sVd8exu7i
p217
I1
sVd0d9ljp
p218
I1
sVdcccrly
p219
I1
sVczblx5r
p220
I1
sVd3b9n6v
p221
I3
sVdcmym7x
p222
I4
sVczbo8oi
p223
I1
sVdddfnq5
p224
I2
sVd54igh6
p225
I1
sVd747a46
p226
I1
sVdi4ralf
p227
I4
sVd8doz64
p228
I1
sVddc75ja
p229
I1
sVd19uegb
p230
I1
sVdcwpp2w
p231
I1
sVdfoeo8l
p232
I1
sVdekvq8l
p233
I2
sVdd6f6p6
p234
I1
sVdn2zduo
p235
I2
sVdk0nwgy
p236
I2
sVdh6tyq8
p237
I1
sVd3jo1hu
p238
I1
sVd51p5it
p239
I1
sVdf8kw1j
p240
I1
sVdco5l0o
p241
I1
sVd8wdpux
p242
I1
sVd526uxw
p243
I1
sVdqbctus
p244
I3
sVd23j5cd
p245
I2
sVd3b4unj
p246
I1
sVd0i4u9b
p247
I1
sVd0r0ill
p248
I1
sVddbfnp8
p249
I1
sVd5lvcs0
p250
I1
sVdocqjji
p251
I1
sVd2tawro
p252
I1
sVdao9f53
p253
I1
sVcys1lu1
p254
I1
sVdas0sma
p255
I1
sVdfbo4gz
p256
I1
sVd2oth9i
p257
I1
sVdjz6ciz
p258
I1
sVdgvj11d
p259
I1
sVd04d46s
p260
I1
sVdh5t11i
p261
I1
sVdggxczy
p262
I1
sVd15meaz
p263
I1
sVdgesxaq
p264
I1
sVd966cyy
p265
I1
sVdbgyw1g
p266
I1
sVdj4me9w
p267
I1
sVd3pya86
p268
I1
sVdmn9gq1
p269
I1
sVcz439xx
p270
I1
sVd9qyc1d
p271
I1
sVdejkgnb
p272
I1
sVd5eleqn
p273
I1
sVczepfvv
p274
I2
sVdhnxgmq
p275
I1
sVdawdlwi
p276
I1
sVd9vy0fa
p277
I1
sVd4ro0hk
p278
I2
sVd19d3zp
p279
I1
sVdawgtys
p280
I1
sVdfs078f
p281
I1
sVdcxod2x
p282
I1
sVday9wxw
p283
I1
sVd3xhgeg
p284
I2
sVd7rfiuv
p285
I1
sVd1aapyo
p286
I1
sVd1zn3wl
p287
I2
sVdf3li8o
p288
I1
sVdrkehkw
p289
I2
sVd66rh3w
p290
I1
sVdcsd9qg
p291
I2
sVd232lii
p292
I1
sVdpfltkz
p293
I1
sVdkj4qsy
p294
I1
sVd27x9eg
p295
I1
sVdo9os7t
p296
I1
sVd8ul3r2
p297
I1
sVdecyaq4
p298
I1
sVdhh7wlm
p299
I3
sVd90q32j
p300
I1
sVd5308k2
p301
I1
sVcyu7ie9
p302
I1
sVd6bgibm
p303
I1
sVdhz47e3
p304
I1
sVczwf55t
p305
I1
sVd3k2nnx
p306
I1
sVdhyxts3
p307
I1
sVd01wrrc
p308
I1
sVd7mww98
p309
I2
sVdpuk037
p310
I1
sVdd6423z
p311
I1
sVd7l7x6b
p312
I2
sVd88z5oy
p313
I2
sVcztraxf
p314
I1
sVcz07u3i
p315
I1
sVdihd9ac
p316
I1
sVd73icdp
p317
I1
sVdk0f63r
p318
I2
sVddkiv7y
p319
I2
sVd7enoma
p320
I1
sVd2lazkd
p321
I2
sVdaix7lq
p322
I3
sVd2ranv2
p323
I1
sVdidb5cg
p324
I1
sVd8icmy7
p325
I1
sVd8rpgpa
p326
I1
sVd01s4t3
p327
I1
sVdn1l5sg
p328
I2
sVd4c6sk1
p329
I1
sVd3p1zsd
p330
I2
sVdetikup
p331
I1
sVdg9e5r7
p332
I1
sVd5y5nim
p333
I2
sVdaiihue
p334
I1
sVdjaeera
p335
I12
sVddz0ijm
p336
I1
sVdfwvcy7
p337
I2
sVd8vwi40
p338
I1
sVd7clo1f
p339
I1
sVd8obwih
p340
I1
sVd5dhsmm
p341
I1
sVd7sklp7
p342
I1
sVdqtsmj6
p343
I1
sVd7034vy
p344
I2
sVdcxjlt1
p345
I1
sVdk7qpeq
p346
I1
sVd9z5qd1
p347
I1
sVd3xc2fn
p348
I1
sVdh2z7lx
p349
I1
sVddcrs13
p350
I1
sVd9xx88g
p351
I1
sVd8lv5t4
p352
I1
sVdnvcsca
p353
I1
sVdjv3kfy
p354
I1
sVd1zbcnj
p355
I2
sVdicx29r
p356
I3
sVd19cr5s
p357
I1
sVdida83t
p358
I3
sVd29rwb2
p359
I1
sVdde0paj
p360
I1
sVd3oogux
p361
I1
sVdak20ar
p362
I1
sVdh59yga
p363
I2
sVdcrb2a1
p364
I1
sVd6nfotl
p365
I1
sVdazyr58
p366
I1
sVd36wh1z
p367
I1
sVdfnjvc7
p368
I1
sVdq4tlix
p369
I1
sVdpw55z4
p370
I2
sVcz8s300
p371
I1
sVcz01gc7
p372
I1
sVd1uym6f
p373
I2
sVd08wx2a
p374
I1
sVd3dahlt
p375
I1
sVd7jedlq
p376
I1
sVdfxmgis
p377
I1
sVdigvizw
p378
I1
sVd48wxy6
p379
I2
sVda3256v
p380
I1
sVd16tfk2
p381
I1
sVd9estg1
p382
I1
sVdazdhrn
p383
I1
sVczpzifd
p384
I2
sVd2xjqln
p385
I2
sVddxtdp7
p386
I1
sVdjo4rks
p387
I1
sVd3j7sth
p388
I1
sVdcmewwe
p389
I1
sVdibh1k8
p390
I1
sVdb7h2qt
p391
I1
sVddol021
p392
I1
sVdhnuoo3
p393
I1
sVddtu1p0
p394
I2
sVd5hnrw7
p395
I1
sVd5lw2um
p396
I2
sVdepl74y
p397
I1
sVdmpz3vw
p398
I1
sVd4ubem1
p399
I1
sVd26i5gq
p400
I2
sVddc4h7h
p401
I1
sVczimnwb
p402
I1
sVdmnwnzt
p403
I1
sVdn2r6kl
p404
I1
sVdkx4n7x
p405
I1
sVd22a038
p406
I1
sVda6tlwl
p407
I1
sVddo8eq1
p408
I2
sVdeiok6c
p409
I1
sVdawfnz7
p410
I1
sVdcb7cde
p411
I1
sVd5oss0g
p412
I1
sVdn639ph
p413
I1
sVdr31nyd
p414
I2
sVd32b6xz
p415
I1
sVd1n7pla
p416
I1
sVd2pvcxv
p417
I1
sVdjn9f6t
p418
I1
sVdj8o30z
p419
I2
sVdhr9l95
p420
I1
sVdezyx40
p421
I1
sVd05t1mc
p422
I1
sVd5eklqm
p423
I1
sVdccyr5n
p424
I1
sVd585jro
p425
I1
sVd0yghua
p426
I1
sVd4i3iu6
p427
I1
sVd1b4qhb
p428
I1
sVd2umknd
p429
I1
sVd9h7ego
p430
I1
sVdg8pnjv
p431
I1
sVdosh0h0
p432
I1
sVdedi95l
p433
I1
sVcyv927n
p434
I2
sVczm6naq
p435
I2
sVd5vpz53
p436
I1
sVd064d2e
p437
I1
sVd4bh14r
p438
I1
sVczs5z26
p439
I1
sVddkg7z1
p440
I1
sVd2k82ad
p441
I1
sVd1qok8w
p442
I1
sVdr9iv0j
p443
I1
sVdf6ymdi
p444
I1
sVdq6zi5v
p445
I1
sVdexrdrk
p446
I1
sVd4pnz9u
p447
I2
sVdh8kgwm
p448
I1
sVdegwh2v
p449
I1
sVddgp9a3
p450
I1
sVdcyhvik
p451
I1
sVczzn9u8
p452
I1
sVd3hvdkt
p453
I2
sVdbz3uzz
p454
I1
sVd2b7l5i
p455
I1
sVdhff4ei
p456
I1
sVd8rhrzj
p457
I1
sVdbm54tp
p458
I1
sVczb438r
p459
I1
sVdnxh62e
p460
I1
sVdd5r4e5
p461
I1
sVd7n9j1x
p462
I1
sVd3f7pg3
p463
I1
sVd5gfzgc
p464
I1
sVdbaph0d
p465
I1
sVdcmlrs5
p466
I1
sVdpq789z
p467
I1
sVdgpb6wg
p468
I3
sVd07k7on
p469
I2
sVddqpxr3
p470
I1
sVd8w0gjg
p471
I1
sVd5lv3o5
p472
I1
sVczrukb0
p473
I1
sVdngu9sj
p474
I2
sVd5t8y5n
p475
I1
sVd33s0y2
p476
I1
sVdcoasd5
p477
I2
sVdeelruz
p478
I1
sVdg08knx
p479
I1
sVdh8fy7q
p480
I1
sVd2b1hns
p481
I6
sVdekiqcd
p482
I1
sVcz92ouu
p483
I1
sVde8d1is
p484
I1
sVczh2hvb
p485
I6
sVd4khdmo
p486
I1
sVd79tgie
p487
I1
sVd2v2n5p
p488
I1
sVd9ktjms
p489
I1
sVdg3udd6
p490
I1
sVd7n5diw
p491
I1
sVdg9iuqp
p492
I1
sVd2qqeo8
p493
I1
sVd6a6c3z
p494
I1
sVdmo0qfw
p495
I1
sVdprs774
p496
I1
sVdbettgt
p497
I1
sVdc43fo7
p498
I1
sVd6ljl23
p499
I1
sVd0x6xuv
p500
I1
sVdgfltbj
p501
I1
sVdfnezbv
p502
I1
sVdkylk7w
p503
I1
sVdnisvms
p504
I1
sVdj50m7h
p505
I1
sVd80sff7
p506
I1
sVczwgu4a
p507
I3
sVdixdub7
p508
I1
sVd1jqwoe
p509
I1
sVdhjh4ry
p510
I2
sVdna9qyx
p511
I4
sVcyv96ya
p512
I2
sVdd9vsr1
p513
I1
sVd3efcuz
p514
I1
sVd36zmgf
p515
I1
sVdsv1lmw
p516
I1
sVd35a7l0
p517
I1
sVdgmknr0
p518
I3
sVcywp5fv
p519
I2
sVd2g5ugp
p520
I1
sVdfo0dsk
p521
I1
sVderh9vt
p522
I1
sVdg8y5ep
p523
I1
sVddcsjd1
p524
I1
sVdcgr0zo
p525
I1
sVdckm9ou
p526
I1
sVd933xi5
p527
I2
sVdo162g1
p528
I1
sVdijbagv
p529
I1
sVdq928xk
p530
I1
sVdkwzet4
p531
I1
sVd3qk61z
p532
I3
sVd0ojgr7
p533
I1
sVcyn164q
p534
I1
sVd7w3wv0
p535
I1
sVdoad7v7
p536
I1
sVdhp3gsy
p537
I1
sVd7r4f41
p538
I1
sVd7c52jm
p539
I1
sVdcn7h97
p540
I1
sVdcmrkqw
p541
I1
sVd9ed0ht
p542
I2
sVd2r00gq
p543
I1
sVd15hi6g
p544
I1
sVdakbeaz
p545
I1
sVd0ondmf
p546
I1
sVdoti9oa
p547
I1
sVd43czsu
p548
I1
sVd7o7t7a
p549
I3
sVdd090nl
p550
I1
sVd6xelbu
p551
I1
sVcz37nwu
p552
I4
sVd8vsiea
p553
I1
sVd38rp5j
p554
I1
sVd18dn5k
p555
I1
sVdcmrx9j
p556
I1
sVdabdync
p557
I2
sVdarywxk
p558
I2
sVd57x4ey
p559
I1
sVcze3p05
p560
I1
sVdpi8kjj
p561
I1
sVd1jdje0
p562
I1
sVd4s72yk
p563
I2
sVdhbfiu8
p564
I1
sVd070rnf
p565
I1
sVdbpghyv
p566
I1
sVdn0jbos
p567
I2
sVd24sh2p
p568
I1
sVdj58rk3
p569
I1
sVd29h755
p570
I2
sVd7gpohe
p571
I1
sVdem5v00
p572
I1
sVdtcpssj
p573
I1
sVd6xtzdx
p574
I1
sVd27i0zf
p575
I1
sVd6218ga
p576
I1
sVd1nxnkj
p577
I1
sVdogcmin
p578
I1
sVd28t8r5
p579
I1
sVd9uje27
p580
I2
sVd07f71x
p581
I2
sVd6u0t58
p582
I1
sVd4cyv0n
p583
I1
sVdga9q7s
p584
I1
sVdc8qf9v
p585
I1
sVd51bddl
p586
I3
sVddbue3f
p587
I1
sVdk4scgh
p588
I1
sVda2iw1r
p589
I1
sVd4dpmn1
p590
I2
sVdmtq8pu
p591
I1
sVdmrmjd5
p592
I1
sVdapga5h
p593
I2
sVddpwutl
p594
I1
sVd4aubzq
p595
I1
sVd1m81wf
p596
I1
sVd7sgoev
p597
I1
sVdbjjbx3
p598
I1
sVdgk10a6
p599
I1
sVdod6owx
p600
I1
sVds8hoie
p601
I4
sVd4q6hrp
p602
I1
sVd18zx00
p603
I1
sVdc8syk7
p604
I2
sVdf6wk1g
p605
I1
sVds1ifsx
p606
I6
sVd3n4x29
p607
I1
sVdpqrwlw
p608
I1
sVd202nvf
p609
I1
sVd8cs8qn
p610
I2
sVdadat9u
p611
I1
sVdjr3ykn
p612
I1
sVd4ew41y
p613
I1
sVdd2o4a1
p614
I2
sVdcw2le2
p615
I1
sVddy2pbr
p616
I1
sVd7xj4k6
p617
I1
sVdbqr0jh
p618
I1
sVdogrfa7
p619
I1
sVdfvkf72
p620
I1
sVdemur6p
p621
I6
sVdj065v6
p622
I1
sVcyj75ou
p623
I1
sVdhj59kd
p624
I1
sVdcmlhto
p625
I1
sVczrj8f9
p626
I2
sVd7djem2
p627
I1
sVd9vm6lt
p628
I1
sVd5d4blt
p629
I1
sVddwklme
p630
I2
sVdr8tjo9
p631
I1
sVd6wf2sv
p632
I1
sVdcgwxm1
p633
I2
sVd09l1fz
p634
I2
sVd88xd4y
p635
I3
sVczgrecu
p636
I1
sVdexuga1
p637
I3
sVd8n547p
p638
I1
sVczodr1t
p639
I1
sVd5pjiz3
p640
I1
sVd88xe94
p641
I3
sVdimom1x
p642
I1
sVd0yjstt
p643
I1
sVdapwcyd
p644
I1
sVdez4tkq
p645
I1
sVd8dlc6v
p646
I1
sVczkm7uv
p647
I1
sVd13jrcd
p648
I1
sVd31o2r2
p649
I1
sVczy4jjd
p650
I2
sVd2q9s3d
p651
I1
sVd9a1om4
p652
I1
sVd175egk
p653
I1
sVdppg4tz
p654
I1
sVdbj04j7
p655
I1
sVcznufuf
p656
I1
sVd61n74m
p657
I3
sVcz4rw31
p658
I1
sVdfafdfe
p659
I1
sVd2ue112
p660
I1
sVdac325m
p661
I1
sVde0qzc4
p662
I1
sVd5o022h
p663
I1
sVdrzrdnx
p664
I1
sVd3moidu
p665
I1
sVdarg6fn
p666
I1
sVdedu81t
p667
I1
sVczcg6gk
p668
I1
sVdcyltdr
p669
I1
sVdhvi3vf
p670
I1
sVdaue1y4
p671
I1
sVdn0pko9
p672
I2
sVdt6f08b
p673
I1
sVd1dxi3n
p674
I2
sVdkzmjqy
p675
I1
sVdfvq2mx
p676
I1
sVd7qtssb
p677
I1
sVdb0p4y6
p678
I1
sVdtdrm9v
p679
I3
sVdc5m0g8
p680
I1
sVdd6tme3
p681
I1
sVdomdqu8
p682
I1
sVczcppbn
p683
I1
sVd7nzsqf
p684
I2
sVdi4ynyb
p685
I1
sVdef9xl0
p686
I2
sVd3kskfr
p687
I1
sVd49hoa6
p688
I1
sVd91ifql
p689
I1
sVdd5lt69
p690
I1
sVdb357wz
p691
I1
sVds0kkin
p692
I1
sVdmh1vpe
p693
I1
sVdecw5qy
p694
I1
sVd7f9qxk
p695
I1
sVd2f6y72
p696
I1
sVdjoubnl
p697
I4
sVd1fuc96
p698
I1
sVdcce9jq
p699
I1
sVdn304rr
p700
I1
sVd4au4jh
p701
I4
sVdb558jq
p702
I1
sVd5fuxt0
p703
I1
sVdoe847m
p704
I1
sVdd5kw1o
p705
I1
sVd547qls
p706
I1
sVdk80p68
p707
I1
sVdiwx7mu
p708
I1
sVdf3fjra
p709
I1
sVd3vs2d8
p710
I3
sVdcyisen
p711
I1
sVd8yh5s5
p712
I1
sVds5cqdd
p713
I1
sVd72cx5i
p714
I2
sVd354wha
p715
I1
sVd197mp7
p716
I1
sVcz1xg4o
p717
I1
sVdb54p1f
p718
I1
sVd6nyzzh
p719
I1
sVdcdfp1r
p720
I2
sVdbc9buv
p721
I8
sVdce7tgy
p722
I1
sVd0mx4se
p723
I1
sVd1zpv8o
p724
I2
sVdg0s86s
p725
I1
sVd0smh36
p726
I1
sVde1xhov
p727
I3
sVd51slq3
p728
I1
sVds0eevg
p729
I1
sVd7stxnq
p730
I1
sVdbguf4u
p731
I4
sVdmo0tvf
p732
I1
sVd6c3rhq
p733
I1
sVd9vnp6d
p734
I1
sVdbj05v6
p735
I1
sVdj242gw
p736
I1
sVdi7lbsp
p737
I1
sVdmwxzny
p738
I1
sVdjwxwko
p739
I1
sVdhxx9yp
p740
I1
sVd83wbwx
p741
I1
sVdb7jxrf
p742
I1
sVdhs16tj
p743
I1
sVdculbnz
p744
I1
sVd51leqx
p745
I3
sVd8uulon
p746
I1
sVd8f4xky
p747
I1
sVdicqqih
p748
I1
sVdf7xyys
p749
I1
sVd6bg6g8
p750
I1
sVd87qk4z
p751
I1
sVczbyhab
p752
I5
sVdjwz8ux
p753
I1
sVd5ko3kn
p754
I1
sVdjuqtm7
p755
I1
sVdek1iy7
p756
I1
sVddtgoip
p757
I1
sVd32jkqd
p758
I1
sVdd0245w
p759
I2
sVdgdpczs
p760
I1
sVd86v1gd
p761
I1
sVd6wh2n9
p762
I2
sVdmrgdmb
p763
I1
sVdpnlqg2
p764
I1
sVd334vnl
p765
I1
sVdfi3z6j
p766
I1
sVdkcjhmf
p767
I1
sVd89tp5m
p768
I2
sVdhjf7tt
p769
I2
sVdan17rq
p770
I1
sVd1v564p
p771
I1
sVdtb23dt
p772
I1
sVd634df0
p773
I1
sVczxim46
p774
I1
sVd9vhild
p775
I1
sVd22w4ss
p776
I1
sVcztiykl
p777
I1
sVdsa5u8o
p778
I2
sVddwgyzb
p779
I1
sVdaaub1r
p780
I1
sVdhnajxc
p781
I1
sVdhxl4ds
p782
I1
sVdbvg1n5
p783
I1
sVdkmhu76
p784
I1
sVdftie8q
p785
I1
sVdayfa5f
p786
I1
sVdnio7op
p787
I1
sVdaz2jnl
p788
I1
sVd8uavw0
p789
I1
sVdgdwklc
p790
I1
sVd029xti
p791
I1
sVdhjib0a
p792
I1
sVdazrkiv
p793
I1
sVdbj266v
p794
I2
sVddgfoxt
p795
I1
sVd81hl0h
p796
I1
sVdhe3so4
p797
I10
sVdt8xwji
p798
I1
sVd5np37r
p799
I1
sVd7s4545
p800
I1
sVd0izt7k
p801
I1
sVdolv8m7
p802
I1
sVd4o1h9t
p803
I2
sVdho5e2j
p804
I1
sVdg8xhes
p805
I1
sVcykodbv
p806
I1
sVd1xozho
p807
I1
sVd58m5a0
p808
I1
sVdjbmzb3
p809
I1
sVdd4yagk
p810
I3
sVdgt4z2k
p811
I1
sVd0qmdvp
p812
I1
sVdcpqrdb
p813
I2
sVd7kdqzh
p814
I1
sVd1itc12
p815
I2
sVdb7aakr
p816
I1
sVdpqeczt
p817
I1
sVd1cvzm2
p818
I1
sVdebebt6
p819
I1
sVd81hiff
p820
I1
sVd8o3pzv
p821
I1
sVczhmxa9
p822
I2
sVdr1u4cz
p823
I1
sVdic1ecr
p824
I4
sVd872f0u
p825
I2
sVdi70r3f
p826
I1
sVd98q4dy
p827
I1
sVczd07sc
p828
I1
sVd34o4f4
p829
I1
sVd896lvd
p830
I1
sVdg98ajg
p831
I1
sVd6yvtlj
p832
I2
sVd9z5spc
p833
I1
sVd8xg3kb
p834
I1
sVd0yddix
p835
I1
sVd0s6j8c
p836
I1
sVdhf1jov
p837
I1
sVdjqnwx5
p838
I1
sVdhdkve3
p839
I1
sVd1fnb5o
p840
I1
sVdb01in9
p841
I2
sVcz178ii
p842
I3
sVda3s8oy
p843
I1
sVdk0fpw4
p844
I1
sVd6x0p0s
p845
I1
sVczbojcg
p846
I1
sVdqc2dcg
p847
I1
sVdicaqy1
p848
I1
sVdqo6dyj
p849
I1
sVd1iiws1
p850
I1
sVdk531uu
p851
I1
sVd9bknzl
p852
I1
sVdntqlt0
p853
I1
sVd27bkd3
p854
I1
sVden3s59
p855
I1
sVd8gwr64
p856
I1
sVdoqu48b
p857
I1
sVdr7kx9y
p858
I1
sVdanafny
p859
I2
sVdb58oy2
p860
I1
sVcz26sct
p861
I1
sVd55952q
p862
I2
sVd0b9cgq
p863
I1
sVd2la73v
p864
I3
sVd3v6xyy
p865
I1
sVd9gobti
p866
I1
sVd356rkj
p867
I2
sVdg94jyg
p868
I1
sVdpglmqi
p869
I1
sVcylhcaw
p870
I1
sVd254qgc
p871
I1
sVd900s06
p872
I2
sVd0cufow
p873
I1
sVdggpe27
p874
I2
sVd6i2tmn
p875
I1
sVdcthbqp
p876
I2
sVcz7dq4d
p877
I1
sVdeklr7x
p878
I4
sVds1foqj
p879
I1
sVd26f9k8
p880
I1
sVczr8afo
p881
I1
sVd0x8g8e
p882
I1
sVd0qjl2u
p883
I1
sVdk8bkvo
p884
I4
sVded83ia
p885
I7
sVdhds0m6
p886
I2
sVd3zvr1w
p887
I1
sVdikb4no
p888
I1
sVddj9sgk
p889
I1
sVdfwvodq
p890
I1
sVdabgvwf
p891
I1
sVd2nilp0
p892
I1
sVdfjjk1w
p893
I1
sVd6ff0oa
p894
I1
sVdi2igcm
p895
I2
sVcywha8p
p896
I3
sVdcnzeva
p897
I2
sVdgar5nf
p898
I1
sVd26dbh6
p899
I1
sVdbo4r0l
p900
I3
sVd7s95se
p901
I1
sVd3cg9j7
p902
I1
sVd05641a
p903
I1
sVddwhvq1
p904
I1
sVd526x1n
p905
I3
sVd24280f
p906
I1
sVdfawhgm
p907
I1
sVdd4zjhh
p908
I1
sVd9lc2es
p909
I1
sVd2jaqo0
p910
I1
sVd9bqnxm
p911
I1
sVcyvwcat
p912
I1
sVdrx02mz
p913
I2
sVcyyfqgf
p914
I1
sVdh71ote
p915
I1
sVdccgr4j
p916
I3
sVdaxxstw
p917
I2
sVdgvfhkl
p918
I1
sVdryklkc
p919
I1
sVdjn8aba
p920
I1
sVdcdoy8f
p921
I3
sVdmw9bxp
p922
I1
sVd3x47jc
p923
I1
sVcz1xrfe
p924
I1
sVd717y50
p925
I1
sVdhvyy6t
p926
I1
sVcysnu9l
p927
I1
sVdbswcy3
p928
I1
sVdfmnh48
p929
I1
sVd3r8uui
p930
I3
sVd8nddcn
p931
I1
sVdgg3eqy
p932
I1
sVdho7264
p933
I1
sVd928sue
p934
I1
sVdgkc7ke
p935
I1
sVds83ltt
p936
I1
sVdeg9v0f
p937
I1
sVddj8wsg
p938
I1
sVd1rkmas
p939
I1
sVd36u39u
p940
I1
sVd7w3z4j
p941
I1
sVdgarfeb
p942
I1
sVdjypmb4
p943
I2
sVdnn3aiy
p944
I1
sVdbievlo
p945
I2
sVdijar72
p946
I1
sVd4zf86d
p947
I1
sVdmzczs2
p948
I1
sVd6rf2rq
p949
I1
sVczbmop4
p950
I1
sVd5tci0i
p951
I1
sVdt91f7z
p952
I1
sVdhja9y5
p953
I1
sVdfecmtr
p954
I2
sVd5fqjsf
p955
I1
sVdau32lu
p956
I1
sVcz7il8d
p957
I1
sVcz1xyxt
p958
I3
sVd4mcbyw
p959
I1
sVdsoyusb
p960
I1
sVdgsfb7r
p961
I5
sVdqbnfmo
p962
I1
sVd2440go
p963
I1
sVd3mpsjz
p964
I1
sVd07779v
p965
I1
sVdcnmh6g
p966
I2
sVdb3daga
p967
I4
sVd5n0exe
p968
I2
sVd6xijqn
p969
I1
sVds3ol5i
p970
I1
sVdehsdrm
p971
I1
sVdfkaazf
p972
I1
sVd43mlia
p973
I1
sVcylq3g7
p974
I1
sVd6mri2u
p975
I2
sVdfyj9o3
p976
I1
sVdjn8pwm
p977
I1
sVd397n2o
p978
I1
sVd9n03ea
p979
I1
sVd4yjml1
p980
I1
sVdgrout9
p981
I1
sVda5j3fo
p982
I2
sVdi9ym99
p983
I2
sVd5uqhks
p984
I1
sVdqn8v4d
p985
I1
sVdfuo17i
p986
I1
sVd8ul7hq
p987
I2
sVdflaj4c
p988
I1
sVcytdaxo
p989
I1
sVdbfqr0q
p990
I2
sVds0mb9c
p991
I1
sVdnoc891
p992
I1
sVdr9pl8n
p993
I1
sVdekwuhi
p994
I1
sVd1l05qd
p995
I1
sVdg4m7id
p996
I1
sVd75tri3
p997
I1
sVdmsh64o
p998
I1
sVda6tfjx
p999
I3
sVcyp2uil
p1000
I1
sVdb8mvmc
p1001
I1
sVdgst1fc
p1002
I2
sVczberzd
p1003
I1
sVdcl9yi5
p1004
I1
sVd9wkpfe
p1005
I1
sVdgh88b8
p1006
I1
sVd1huhy2
p1007
I1
sVdctxr28
p1008
I1
sVd031us5
p1009
I1
sVdcrb9vw
p1010
I1
sVdat467m
p1011
I3
sVd8h0cib
p1012
I1
sVdtg7kzt
p1013
I1
sVdgzo7mh
p1014
I1
sVd4ofl7m
p1015
I1
sVcyz3pnu
p1016
I1
sVdco207k
p1017
I4
sVd1a6gzz
p1018
I5
sVd3c4u7q
p1019
I2
sVczslpf7
p1020
I1
sVdjk9lp0
p1021
I1
sVdf1w1fc
p1022
I1
sVdd5lqkl
p1023
I1
sVdiaj2hn
p1024
I1
sVd6l12rt
p1025
I2
sVd66o4jd
p1026
I1
sVdgaf32n
p1027
I1
sVczik46q
p1028
I1
sVdj6tist
p1029
I1
sVd6u0kwr
p1030
I1
sVdsvvl6d
p1031
I1
sVdf03y7r
p1032
I2
sVddaol7z
p1033
I1
sVdfwvyv8
p1034
I1
sVd9unqhf
p1035
I1
sVd1aeb1m
p1036
I1
sVdfnfotw
p1037
I1
sVd9cr1wr
p1038
I1
sVdgc36v0
p1039
I1
sVczqb99d
p1040
I2
sVdhzgr10
p1041
I3
sVd1k13j4
p1042
I1
sVd1j01qi
p1043
I1
sVd1676q4
p1044
I3
sVcyptzcv
p1045
I1
sVd34wefx
p1046
I1
sVdk7r9fr
p1047
I1
sVd6zl8kd
p1048
I1
sVd11y7dk
p1049
I1
sVdb571ic
p1050
I3
sVd6nm509
p1051
I1
sVdaj9r9t
p1052
I1
sVdcx93a6
p1053
I1
sVdh94frl
p1054
I1
sVdffiye3
p1055
I1
sVd64ofch
p1056
I1
sVdg5phjt
p1057
I1
sVddbz0y1
p1058
I1
sVd6wcacz
p1059
I1
sVdkwlguq
p1060
I1
sVcyzt6ks
p1061
I3
sVddfo2ys
p1062
I1
sVd4ed60u
p1063
I1
sVd94dhb4
p1064
I1
sVdq1e4kf
p1065
I1
sVd3bgso7
p1066
I1
sVd65pwic
p1067
I2
sVd7iuvqp
p1068
I1
sVdk30opl
p1069
I1
sVdcq1qca
p1070
I1
sVdef6hdg
p1071
I1
sVd2mfjt1
p1072
I1
sVd4ze698
p1073
I1
sVcz2r7cz
p1074
I1
sVdb4y9zp
p1075
I1
sVd26gflr
p1076
I1
sVdfghihf
p1077
I2
sVd0a1fj6
p1078
I1
sVdia0gyc
p1079
I1
sVd367x37
p1080
I1
sVd585oec
p1081
I1
sVczgv9xa
p1082
I2
sVd09bb25
p1083
I1
sVd400973
p1084
I1
sVd7jtywf
p1085
I1
sVdgpvalj
p1086
I1
sVddsmwwc
p1087
I1
sVdafqjkd
p1088
I1
sVddsmgx0
p1089
I1
sVdc12hyd
p1090
I1
sVddtwf3a
p1091
I3
sVd6bshlk
p1092
I1
sVd3wljng
p1093
I1
sVd88be2u
p1094
I1
sVda6sqr7
p1095
I1
sVd4wty3m
p1096
I1
sVczt8ixv
p1097
I1
sVdbbtbn3
p1098
I1
sVd9cbl0h
p1099
I1
sVd10xtzc
p1100
I1
sVdi9v1bg
p1101
I2
sVdiedvbi
p1102
I1
sVd15wd5a
p1103
I1
sVdhprn0u
p1104
I1
sVde6c8iz
p1105
I1
sVd5k4rei
p1106
I1
sVdfd755l
p1107
I2
sVd9unbln
p1108
I1
sVdib9kgs
p1109
I1
sVdaz3sde
p1110
I1
sVd5boqki
p1111
I2
sVddhkolw
p1112
I1
sVd7bdlyh
p1113
I1
sVdf6n5k5
p1114
I1
sVdiipxnf
p1115
I1
sVdjx0d58
p1116
I1
sVddv2sa4
p1117
I1
sVd02611p
p1118
I1
sVd472589
p1119
I1
sVdmvvf95
p1120
I1
sVd9i7c2k
p1121
I1
sVddvmzz4
p1122
I1
sVda46sd1
p1123
I1
sVd3w2izi
p1124
I2
sVdfyz4j8
p1125
I1
sVdql8o7e
p1126
I9
sVdfnh8kx
p1127
I4
sVd0xgyr8
p1128
I1
sVdjquv3x
p1129
I1
sVddab3lx
p1130
I1
sVd2fslgf
p1131
I1
sVdg79ost
p1132
I1
sVczs2ew7
p1133
I1
sVdepesug
p1134
I1
sVdgot345
p1135
I2
sVd3sgdio
p1136
I1
sVd8m0s59
p1137
I1
sVd1iuzqa
p1138
I1
sVdi0u6cc
p1139
I1
sVdb4w3hg
p1140
I2
sVdjlpekt
p1141
I1
sVdgzkfp0
p1142
I1
sVd7e4vxf
p1143
I1
sVd02eidy
p1144
I1
sVds98cvm
p1145
I4
sVdgqrqyp
p1146
I1
sVdh4dsik
p1147
I2
sVd1v95ly
p1148
I2
sVd86uxhd
p1149
I1
sVd6vlw4c
p1150
I1
sVdhds8go
p1151
I1
sVcysl0ol
p1152
I1
sVddl2wke
p1153
I1
sVdg4vzdf
p1154
I1
sVd3e0o1a
p1155
I1
sVd1iw8a3
p1156
I1
sVd6xbu51
p1157
I1
sVdk9ql90
p1158
I1
sVdens2om
p1159
I1
sVdbderwv
p1160
I1
sVd5xovnc
p1161
I1
sVdfgfdvi
p1162
I1
sVdct0718
p1163
I1
sVd5mjraq
p1164
I1
sVcynxo4o
p1165
I1
sVd0muc0f
p1166
I1
sVdkp6y5p
p1167
I1
sVd7wjsjo
p1168
I1
sVdevgwk7
p1169
I2
sVdhztuch
p1170
I1
sVdgiql91
p1171
I1
sVdaymoc5
p1172
I1
sVdf03s6z
p1173
I1
sVd8qu1la
p1174
I1
sVdqa93lx
p1175
I1
sVd0gxy8u
p1176
I1
sVd38trg4
p1177
I1
sVdjkj0k6
p1178
I3
sVd195ibw
p1179
I2
sVdctf0ls
p1180
I1
sVd0zr6ke
p1181
I1
sVd5v6jxy
p1182
I1
sVda44sy1
p1183
I1
sVdd5r3rd
p1184
I1
sVdfwh8ep
p1185
I2
sVdjt3wb4
p1186
I1
sVd9x0vuk
p1187
I1
sVd3atr60
p1188
I1
sVdct0er1
p1189
I1
sVd4hpkc4
p1190
I1
sVdmi9k06
p1191
I1
sVda57eoe
p1192
I1
sVd1s2e2l
p1193
I1
sVd899k3w
p1194
I1
sVdqt989k
p1195
I1
sVdcmnpun
p1196
I1
sVd65gpa5
p1197
I2
sVd7d3gez
p1198
I1
sVdbwuqr8
p1199
I1
sVcyj7rg9
p1200
I1
sVcypt172
p1201
I1
sVd2yziov
p1202
I1
sVdjfodff
p1203
I2
sVdomxe80
p1204
I1
sVd864hlx
p1205
I1
sVdan4pwp
p1206
I4
sVdhj2qga
p1207
I1
sVd8orp5h
p1208
I1
sVczb3pm4
p1209
I1
sVd1run50
p1210
I1
sVcysekte
p1211
I1
sVdbgvgrf
p1212
I1
sVd29hzxr
p1213
I1
sVd36gnvo
p1214
I1
sVdh95gk7
p1215
I1
sVcynfluc
p1216
I1
sVdswrnam
p1217
I2
sVdhtsde3
p1218
I1
sVdcewhkj
p1219
I1
sVdbwvins
p1220
I1
sVczqnpq5
p1221
I1
sVd405rxk
p1222
I1
sVdigd6pj
p1223
I1
sVdaac5ta
p1224
I1
sVdb352ss
p1225
I2
sVd23xe7j
p1226
I1
sVd8ybfml
p1227
I1
sVdhgj3iv
p1228
I3
sVdazpq68
p1229
I1
sVdmj7eja
p1230
I3
sVdt5mq8i
p1231
I1
sVdd5kxwc
p1232
I1
sVd0b562t
p1233
I1
sVd7r88vq
p1234
I1
sVd51f4jy
p1235
I1
sVd9rcu2s
p1236
I1
sVd8m62yj
p1237
I1
sVd83w1n5
p1238
I1
sVd61wp5v
p1239
I1
sVdrydltu
p1240
I1
sVd8lyk2n
p1241
I1
sVdhjhezn
p1242
I1
sVdszwhjn
p1243
I1
sVdcv0baz
p1244
I1
sVdd6h80g
p1245
I1
sVdk89kh3
p1246
I2
sVd7mktaa
p1247
I2
sVcyvvcr1
p1248
I1
sVdfnsvp1
p1249
I1
sVd6tgctg
p1250
I3
sVd7dulhe
p1251
I1
sVd5y7d1k
p1252
I1
sVdcqmd9u
p1253
I1
sVd8n3xnv
p1254
I1
sVdeufgyb
p1255
I2
sVd5nb581
p1256
I1
sVd5ejvtx
p1257
I1
sVd905p1g
p1258
I1
sVdt0facp
p1259
I1
sVdky62ra
p1260
I1
sVdampqrs
p1261
I1
sVd2hv78s
p1262
I1
sVd3bnsxs
p1263
I1
sVd0t9xnh
p1264
I1
sVdcrcxfh
p1265
I1
sVd49oo7a
p1266
I1
sVdrglddm
p1267
I2
sVdb8xoyy
p1268
I1
sVdqarz5n
p1269
I1
sVcztye7s
p1270
I1
sVd9vfgpt
p1271
I1
sVdmlnxmi
p1272
I1
sVd4376u5
p1273
I1
sVddve5m4
p1274
I1
sVds9ahkc
p1275
I3
sVcztckd2
p1276
I1
sVd8dohsc
p1277
I1
sVdb3cyk1
p1278
I1
sVdh0tkcs
p1279
I1
sVdgfqk4y
p1280
I1
sVdsvueja
p1281
I4
sVdan6lmc
p1282
I2
sVd78xr5j
p1283
I2
sVd11pi9r
p1284
I1
sVdh0zmgl
p1285
I1
sVdnb5n90
p1286
I3
sVd43t1sg
p1287
I1
sVd0ozbu2
p1288
I1
sVd03p80g
p1289
I2
sVdnpz2fz
p1290
I1
sVdal7geu
p1291
I1
sVd6e8zhi
p1292
I1
sVdn1ixo5
p1293
I2
sVdd5blwz
p1294
I1
sVdenvlag
p1295
I1
sVdculmkr
p1296
I1
sVdblmd4i
p1297
I1
sVd27fnum
p1298
I1
sVdfo2sls
p1299
I1
sVdb5ewsh
p1300
I2
sVd87mia2
p1301
I1
sVdj29xjo
p1302
I1
sVd8ogvpn
p1303
I2
sVdh5psdz
p1304
I1
sVdi9yhrp
p1305
I1
sVd0yd520
p1306
I1
sVd90sqhv
p1307
I2
sVdi8ljyk
p1308
I1
sVd4jlv46
p1309
I1
sVd2lcnfa
p1310
I3
sVcyuajce
p1311
I1
sVdabserh
p1312
I1
sVdgjl3vt
p1313
I1
sVdn2vbaj
p1314
I2
sVdn5hecs
p1315
I1
sVdijr2ik
p1316
I1
sVczta25y
p1317
I2
sVd7em9sd
p1318
I1
sVdblow9k
p1319
I1
sVd6t6ft7
p1320
I1
sVd4xveo4
p1321
I1
sVcz5kw9t
p1322
I1
sVd8spgkl
p1323
I1
sVdgds9x0
p1324
I1
sVd87b3m8
p1325
I1
sVdjn5xsx
p1326
I1
sVddi5w0x
p1327
I1
sVdaf4akt
p1328
I1
sVdfnl195
p1329
I1
sVcz4x7s5
p1330
I3
sVdgvxgmz
p1331
I1
sVddcc59c
p1332
I1
sVd6lvjbv
p1333
I1
sVdimtlcy
p1334
I1
sVczjufcj
p1335
I1
sVd8q7h0x
p1336
I1
sVd16tf9o
p1337
I1
sVdayuc7k
p1338
I1
sVdc42eyc
p1339
I2
sVdn9rxy5
p1340
I1
sVd39p3v5
p1341
I1
sVd4njnty
p1342
I1
sVd88qawv
p1343
I1
sVcyp09du
p1344
I1
sVdnj406w
p1345
I3
sVd7o084a
p1346
I2
sVddwjban
p1347
I2
sVd7nzjn5
p1348
I1
sVd87np60
p1349
I1
sVdclq84j
p1350
I1
sVdasjtph
p1351
I1
sVdbj3j8x
p1352
I1
sVddtzjto
p1353
I2
sVd58mbp7
p1354
I1
sVd0ejdjf
p1355
I1
sVdi5r95d
p1356
I1
sVdbaplof
p1357
I1
sVd5rr8yg
p1358
I1
sVd4gj44a
p1359
I1
sVdi4vfey
p1360
I3
sVd43yhxr
p1361
I1
sVd1681m1
p1362
I6
sVd03coe2
p1363
I1
sVd2fo5gq
p1364
I1
sVd6vq6va
p1365
I2
sVdaaaywc
p1366
I1
sVdbcl8es
p1367
I1
sVdbfai8z
p1368
I1
sVdg1s3gy
p1369
I1
sVdcms02v
p1370
I1
sVcz6jslz
p1371
I1
sVdfa2dnu
p1372
I1
sVd0b6tu4
p1373
I1
sVdk0igsv
p1374
I1
sVd3eghb6
p1375
I1
sVdav5g41
p1376
I1
sVd18rd2o
p1377
I1
sVd7yz0of
p1378
I2
sVczhpeec
p1379
I1
sVd4y81fm
p1380
I1
sVd2cwfhp
p1381
I1
sVdfo28wz
p1382
I1
sVd7rdfxc
p1383
I1
sVd5eluhn
p1384
I1
sVd1paq1e
p1385
I1
sVd23nkvz
p1386
I5
sVd4ft1vj
p1387
I1
sVd7mliah
p1388
I1
sVdazqzk1
p1389
I1
sVd8oil98
p1390
I2
sVdg8i16e
p1391
I1
sVdb4zc8j
p1392
I1
sVd0jgpzh
p1393
I1
sVd3zobli
p1394
I1
sVdmp6387
p1395
I1
sVd5piyp3
p1396
I1
sVd7z7i6y
p1397
I2
sVd67xbq6
p1398
I1
sVdadoxk2
p1399
I1
sVdhjdfhg
p1400
I2
sVdmqd893
p1401
I1
sVdberu8w
p1402
I1
sVdi9yx88
p1403
I1
sVdeu38k7
p1404
I1
sVdcc2y3l
p1405
I1
sVczvwxvn
p1406
I1
sVd312w0s
p1407
I1
sVcziu8fo
p1408
I1
sVd4p4fxa
p1409
I1
sVdqhyo97
p1410
I1
sVd9hefrk
p1411
I1
sVdj1yr86
p1412
I1
sVd6jr853
p1413
I1
sVd8sf9h7
p1414
I2
sVd1vr8g6
p1415
I2
sVdk4ws2c
p1416
I2
sVd6bsfs0
p1417
I1
sVd1rbrt8
p1418
I1
sVd9bttby
p1419
I8
sVda0zqc4
p1420
I1
sVdgj533v
p1421
I1
sVdchtgn3
p1422
I1
sVdj7csh3
p1423
I3
sVdiglsvb
p1424
I1
sVcyjm9mi
p1425
I1
sVda386w7
p1426
I1
sVd05isz8
p1427
I1
sVdej4awp
p1428
I1
sVddgo3w3
p1429
I1
sVdiv0rby
p1430
I1
sVdq1t28n
p1431
I1
sVdptcbmg
p1432
I1
sVd0y4786
p1433
I1
sVda5yrnt
p1434
I1
sVda0lhq4
p1435
I2
sVdggrgdd
p1436
I2
sVdcqqdx8
p1437
I1
sVdepizca
p1438
I1
sVd9vvdxy
p1439
I2
sVd1p10dy
p1440
I1
sVdaaogaj
p1441
I1
sVd0le5yu
p1442
I1
sVd1l6hlr
p1443
I1
sVczbli4a
p1444
I1
sVd4xzj5q
p1445
I1
sVczem8s7
p1446
I1
sVczcwh8g
p1447
I1
sVd54jglr
p1448
I1
sVd058pmh
p1449
I1
sVcz9qxxd
p1450
I1
sVdd7iyl0
p1451
I1
sVdextmae
p1452
I1
sVdchk37l
p1453
I1
sVdd7f9fw
p1454
I2
sVdms3vd2
p1455
I1
sVdqom9lh
p1456
I1
sVd3jo8vm
p1457
I2
sVd5jletk
p1458
I3
sVdgbnjp1
p1459
I1
sVd6qvmnk
p1460
I4
sVd89hppz
p1461
I1
sVdf387vs
p1462
I1
sVdgfj19s
p1463
I1
sVczz12x0
p1464
I1
sVder50x8
p1465
I1
sVdj2s6zc
p1466
I1
sVddfq67t
p1467
I1
sVdtj7r16
p1468
I1
sVd5n07db
p1469
I1
sVdd5kze2
p1470
I1
sVd1gkftb
p1471
I2
sVd6a08km
p1472
I1
sVdsivn9g
p1473
I1
sVdp6r3u2
p1474
I2
sVdoexkw0
p1475
I1
sVd33bcqf
p1476
I1
sVczgq7ob
p1477
I9
sVdhxato6
p1478
I2
sVd3oqoiu
p1479
I1
sVdozg2gs
p1480
I1
sVd6aq11k
p1481
I1
sVdaypj3n
p1482
I1
sVd2bzawq
p1483
I1
sVd6jlfre
p1484
I1
sVd129nvr
p1485
I1
sVd1c2uzw
p1486
I1
sVcyiwv6f
p1487
I1
sVd74neq3
p1488
I1
sVdennga0
p1489
I1
sVdq87nva
p1490
I1
sVd86lftb
p1491
I1
sVd98z3wl
p1492
I1
sVdjk9nrd
p1493
I1
sVd91usps
p1494
I1
sVd77ruyi
p1495
I1
sVdh36aho
p1496
I1
sVde23zab
p1497
I3
sVde86a3l
p1498
I1
sVdmxmfxt
p1499
I1
sVdbartmc
p1500
I3
sVdjbp1le
p1501
I1
sVczfu6mm
p1502
I1
sVdcc0hlk
p1503
I1
sVd67ysxa
p1504
I1
sVd74sx2s
p1505
I1
sVdatw7bx
p1506
I1
sVde8z7wq
p1507
I1
sVdjiitte
p1508
I1
sVdpmf1xr
p1509
I1
sVddfk2rp
p1510
I1
sVd090sqv
p1511
I1
sVcz9whnp
p1512
I1
sVcz90o9y
p1513
I1
sVd3rkxr3
p1514
I1
sVdjovla6
p1515
I1
sVdbj17hp
p1516
I1
sVdqbojtt
p1517
I1
sVdh1d76m
p1518
I1
sVd3pcvr1
p1519
I1
sVd0pdm6x
p1520
I1
sVdp8avps
p1521
I1
sVdd7kvpx
p1522
I1
sVd4nhftu
p1523
I1
sVd6tnlg3
p1524
I1
sVd5ubykq
p1525
I1
sVd51igc8
p1526
I1
sVczpv0yt
p1527
I2
sVdak02c6
p1528
I1
sVdmzukbx
p1529
I1
sVdg8ycl6
p1530
I4
sVdnb1wuk
p1531
I1
sVd4o3l3k
p1532
I1
sVdgu502c
p1533
I1
sVdg7c16x
p1534
I4
sVd1p2u05
p1535
I1
sVdo9ix6o
p1536
I5
sVddz92lm
p1537
I1
sVd7f67t3
p1538
I2
sVdidhgl5
p1539
I2
sVde5rrm0
p1540
I1
sVdmqbqc4
p1541
I1
sVdgm8n20
p1542
I1
sVdeipe0s
p1543
I1
sVdfo8ajm
p1544
I1
sVdctbweq
p1545
I1
sVdeenpf7
p1546
I1
sVdncfui1
p1547
I1
sVdbdl0md
p1548
I1
sVdex715z
p1549
I4
sVczsko4f
p1550
I1
sVd2jdq8u
p1551
I2
sVdg7c9ov
p1552
I1
sVdt8dg6k
p1553
I1
sVdfg6ad1
p1554
I1
sVd3x1qjc
p1555
I1
sVd83wwpy
p1556
I1
sVd37j27n
p1557
I1
sVd3j4zlh
p1558
I1
sVdhiabqs
p1559
I1
sVd4p9cte
p1560
I1
sVd3samav
p1561
I2
sVdih96jp
p1562
I1
sVcyidiev
p1563
I1
sVd2a6po5
p1564
I2
sVdb950th
p1565
I1
sVdot3phi
p1566
I1
sVdimvd0h
p1567
I2
sVdcrt2rm
p1568
I2
sVdcavae3
p1569
I1
sVczx5tkk
p1570
I1
sVdd6flws
p1571
I1
sVd899rfd
p1572
I1
sVddjp8ov
p1573
I1
sVdf8wl46
p1574
I2
sVdeqx2vo
p1575
I1
sVd8ebhec
p1576
I1
sVdabdwn0
p1577
I2
sVdgs3tq3
p1578
I5
sVdomegmz
p1579
I1
sVd5n6l3m
p1580
I1
sVdfyswup
p1581
I1
sVdezz054
p1582
I1
sVdel1ld8
p1583
I2
sVda9e43x
p1584
I1
sVdmx2vso
p1585
I1
sVcywntfr
p1586
I2
sVd3b5gv5
p1587
I2
sVd58ga39
p1588
I1
sVdekpa1w
p1589
I1
sVd8xgfws
p1590
I1
sVd8q172s
p1591
I1
sVd44rlyv
p1592
I1
sVdggzt0z
p1593
I1
sVdim8hq7
p1594
I1
sVdi9ibkg
p1595
I2
sVddrk87f
p1596
I1
sVd31ybxj
p1597
I1
sVd2glx77
p1598
I1
sVd13d758
p1599
I2
sVdakk807
p1600
I1
sVcz9udnp
p1601
I1
sVd83924p
p1602
I1
sVd3gy39x
p1603
I2
sVdaet13f
p1604
I1
sVdk3gvwu
p1605
I1
sVd865syr
p1606
I1
sVdkjnwnv
p1607
I1
s.