(dp0
Vdmlbnzt
p1
I1
sVdazg237
p2
I1
sVddhivuq
p3
I1
sVd44p3hi
p4
I1
sVdg76dg6
p5
I1
sVd3rcxdu
p6
I1
sVd3rupgo
p7
I5
sVd3sna8q
p8
I3
sVdk2gisb
p9
I1
sVd7hgn3p
p10
I1
sVdcba656
p11
I1
sVd0iy81k
p12
I2
sVd8aon56
p13
I1
sVdin7e5p
p14
I1
sVd0iy60x
p15
I1
sVdgukd2h
p16
I1
sVd2svlf6
p17
I1
sVdhdaxra
p18
I1
sVdaif6ue
p19
I1
sVdr1lclj
p20
I1
sVdjxfhbq
p21
I1
sVd3std11
p22
I1
sVdbax1w4
p23
I2
sVdfos3uk
p24
I1
sVd0x7tzh
p25
I1
sVdhgljpy
p26
I1
sVd3smr3h
p27
I1
sVddwe10d
p28
I4
sVd7ewrm8
p29
I1
sVdgtnwjn
p30
I1
sVd0byhhk
p31
I1
sVddhlyql
p32
I1
sVd1xn49a
p33
I1
sVdmpibdd
p34
I1
sVd4ikcvk
p35
I1
sVdrbvzgn
p36
I1
sVdbeulkr
p37
I2
sVdhrrnmh
p38
I1
sVd7j90vk
p39
I2
sVdgrss8s
p40
I1
sVd5qcjh3
p41
I1
sVdbltx8o
p42
I1
sVddhgv5x
p43
I2
sVd7e4j5o
p44
I1
sVddhh6n4
p45
I1
sVdfidnui
p46
I1
sVddhdyso
p47
I2
sVczfqmav
p48
I1
sVdinin7r
p49
I4
sVd84c1el
p50
I2
sVczinktt
p51
I1
sVdgh8w2x
p52
I2
sVd72t90a
p53
I1
sVdaynmsv
p54
I2
sVd3r776f
p55
I2
sVdg6cul7
p56
I1
sVdb0ozo5
p57
I1
sVd4eggzj
p58
I1
sVdira9n8
p59
I1
sVdahvxdt
p60
I1
sVd3lytqy
p61
I1
sVd7tro3b
p62
I1
sVd6shosh
p63
I1
sVddhhkqn
p64
I1
sVdnnulej
p65
I1
sVd73069e
p66
I1
sVdb03f60
p67
I1
sVddu1n6c
p68
I1
sVd2s82zq
p69
I2
sVdhqr81f
p70
I1
sVddhi41d
p71
I1
sVdo5q8aa
p72
I1
sVdmfja8k
p73
I1
sVcyoikyo
p74
I1
sVdfnzw9f
p75
I1
sVdo45g6u
p76
I1
sVd5qcmwd
p77
I2
sVde80jvc
p78
I1
sVd5ng9gm
p79
I1
sVczrxuyd
p80
I1
sVcz05853
p81
I1
sVd37nr6o
p82
I1
sVdqxzttk
p83
I1
sVdnnutau
p84
I1
sVd1qmftt
p85
I1
sVdqg03m3
p86
I1
sVcyk2caq
p87
I1
sVdix8vr8
p88
I1
sVd61rbt4
p89
I1
sVddhjtop
p90
I1
sVczpatse
p91
I1
sVdf6l2uz
p92
I1
sVczg3r6a
p93
I1
sVddhbuql
p94
I1
sVd9romtb
p95
I1
sVde1e38v
p96
I1
sVdr0iipf
p97
I2
sVddhfof4
p98
I2
sVdbenr51
p99
I1
sVdrpqz0c
p100
I1
sVd7rufbq
p101
I1
sVddoeerw
p102
I1
s.