(dp0
Vd0j0a2j
p1
I1
sVdndp7hb
p2
I1
sVd1rxr73
p3
I1
sVd1u3su0
p4
I1
sVdabk3pd
p5
I1
sVd21mev1
p6
I1
sVd8nikpf
p7
I2
sVd77m0n7
p8
I1
sVd0g3peg
p9
I1
sVdfvliqb
p10
I1
sVd578ahb
p11
I1
sVd80nor5
p12
I1
sVd9ans2i
p13
I2
sVdk6xwqd
p14
I1
sVdfgsh80
p15
I1
sVdcxi7yc
p16
I1
sVd5yzjum
p17
I1
sVdir646f
p18
I1
sVd4kcwwz
p19
I2
sVddqtl8l
p20
I1
sVczuzk28
p21
I1
sVdexfdbq
p22
I1
sVdc98yy0
p23
I1
sVdcvu21g
p24
I1
sVddxq3ep
p25
I2
sVd8wkjfk
p26
I1
sVdb3fita
p27
I1
sVdfzuzmy
p28
I1
sVd6hip4p
p29
I1
sVdk4w4gs
p30
I1
sVd03src6
p31
I1
sVd5r8tbq
p32
I1
sVd9i7c2k
p33
I1
sVd0iymgn
p34
I1
sVddys43z
p35
I1
sVdejhfde
p36
I1
sVdhykey3
p37
I1
sVd8ceq41
p38
I2
sVd8js8z2
p39
I1
sVdjmhw9a
p40
I1
sVd60av8h
p41
I1
sVd40x5fu
p42
I1
sVd6j4jsr
p43
I1
sVdatwppv
p44
I1
sVdfa472i
p45
I1
sVdd59v1u
p46
I1
sVdchuchg
p47
I1
sVdeh0n20
p48
I1
sVdq6t3g0
p49
I1
sVdtihaqa
p50
I1
sVdfzufaf
p51
I1
sVdcxl3vj
p52
I1
sVd2vob2o
p53
I1
sVd99k14q
p54
I1
sVd94y72s
p55
I1
sVdf1usuw
p56
I1
sVdbz3oxx
p57
I1
sVdpq985u
p58
I1
sVd0r53l9
p59
I1
sVdh3b0wq
p60
I1
sVde2b3lm
p61
I1
sVdj3l2h2
p62
I1
sVdje07c3
p63
I1
sVd01pwbc
p64
I1
sVdb57fd1
p65
I1
sVdmtixjn
p66
I1
sVd6kpxlz
p67
I1
sVd8xa1uw
p68
I1
sVd3fg16r
p69
I1
sVdfpj9u9
p70
I2
sVdk5e37t
p71
I1
sVczx4ac1
p72
I1
sVda8lgs5
p73
I1
s.