(dp0
Vda6rf2l
p1
I1
sVdbx5cv4
p2
I1
sVde7t2cl
p3
I1
sVdhqv180
p4
I1
sVdbb47qw
p5
I1
sVd18o9bs
p6
I1
sVd61peba
p7
I1
sVcz6ant2
p8
I1
sVddk4kpt
p9
I1
sVd902lai
p10
I1
sVd6sz1dg
p11
I1
sVdhwmygd
p12
I1
sVcz229m4
p13
I1
sVd0rqedr
p14
I1
sVd603euc
p15
I1
sVd4gqj89
p16
I1
sVdfvx539
p17
I1
sVd0rf8fb
p18
I1
sVcyp8az8
p19
I1
sVdfw7k4q
p20
I1
sVd1aapyo
p21
I1
s.