(dp0
Vd2ny2yv
p1
I1
s.(dp0
Vd3nnoj2
p1
I1
sVd2ny2yv
p2
I1
s.(dp0
Vd2ny2yv
p1
I1
sVd6ih583
p2
I1
s.(dp0
Vd7etcow
p1
I1
sVd2ny2yv
p2
I1
s.(dp0
Vd2ny2yv
p1
I1
sVd89l1es
p2
I1
s.(dp0
Vd9d94ol
p1
I1
sVd2ny2yv
p2
I1
s.(dp0
Vd9ywhuu
p1
I1
sVd2ny2yv
p2
I1
s.(dp0
Vd2ny2yv
p1
I1
sVdaqp1r6
p2
I1
s.(dp0
Vd2ny2yv
p1
I1
sVdcrczx8
p2
I1
s.(dp0
Vdfgj6t7
p1
I1
sVd2ny2yv
p2
I1
s.(dp0
Vd2ny2yv
p1
I1
sVdgkfkt6
p2
I1
s.(dp0
Vdj9qsdi
p1
I1
sVd2ny2yv
p2
I1
s.