(dp0
Vdok4amv
p1
I1
sVdcriciw
p2
I1
sVd9dez97
p3
I1
sVdjm9kz9
p4
I1
sVd3za8ko
p5
I1
sVdkygeed
p6
I1
sVcz811jy
p7
I1
sVdhf0awo
p8
I1
sVdjd4dsh
p9
I1
sVd5iaxwx
p10
I3
sVd830rig
p11
I3
sVdrmmp5c
p12
I1
sVdgoge0c
p13
I1
sVd0lmuzv
p14
I1
sVdccwcbs
p15
I1
sVd17mlqf
p16
I1
sVd1624wr
p17
I1
sVd6boqnh
p18
I1
sVdqjo2zf
p19
I1
sVdiyap5v
p20
I2
sVdkjv1r3
p21
I1
sVdbmw0xz
p22
I1
sVdqjxufw
p23
I1
sVde49r66
p24
I1
sVdfjxhnj
p25
I1
sVdhja2eb
p26
I5
sVds23m49
p27
I1
sVcz8110g
p28
I1
sVd6eopyq
p29
I1
sVdjo14zk
p30
I1
sVdfda4ex
p31
I1
sVdjlorpt
p32
I1
sVdr0oxdr
p33
I1
sVcyl2fv4
p34
I1
sVdhj52xe
p35
I1
sVdf3cbuz
p36
I1
sVd2it0fk
p37
I1
sVd2yvlrq
p38
I1
sVd68pflt
p39
I2
sVd48t2ug
p40
I1
sVdnbqm8j
p41
I1
sVd7akjdi
p42
I1
sVdmoaeu4
p43
I1
sVder03ut
p44
I1
sVd7go44g
p45
I1
sVdjjlvg1
p46
I1
sVdd97tdh
p47
I1
sVdg5uuug
p48
I1
sVdh6g6uv
p49
I1
sVd5juoru
p50
I2
sVd81xjxa
p51
I1
sVdhj5p8p
p52
I1
sVdko40j6
p53
I1
sVdeewjur
p54
I3
sVd4oaa4f
p55
I1
sVdcxglx6
p56
I3
sVdr12myx
p57
I1
sVd9jpd9t
p58
I2
sVd48jwle
p59
I2
sVdsrzvmd
p60
I1
sVczrl7vt
p61
I1
sVd05awxb
p62
I1
sVd58pivl
p63
I2
sVd1r4zft
p64
I4
sVdf584yv
p65
I1
sVd89o615
p66
I2
sVdmq42o0
p67
I1
sVdhl8flz
p68
I1
sVcynvimj
p69
I1
sVcyvpndf
p70
I3
sVdnkjach
p71
I1
sVd1ixbbp
p72
I6
sVde10nh4
p73
I1
sVdmvojg9
p74
I1
sVczf3whr
p75
I1
sVczn1q4q
p76
I2
sVd157f8b
p77
I3
sVdackz3c
p78
I1
sVdr7yxsg
p79
I1
sVdjjrl6s
p80
I1
sVd4xzoxn
p81
I1
sVdmk9a3v
p82
I1
sVd8gs8ao
p83
I4
sVdbzn9o7
p84
I1
sVdiwm778
p85
I1
sVdgtvnnr
p86
I1
sVd2tj7ja
p87
I1
sVdejsyyq
p88
I3
sVdggt994
p89
I1
sVdpgym7b
p90
I1
s.