(dp0
Vd2xjaht
p1
I1
s.(dp0
Vd2xjaht
p1
I2
s.(dp0
Vd2xjaht
p1
I1
sVd9j7v0v
p2
I1
s.(dp0
Vdbvts2z
p1
I1
sVd2xjaht
p2
I1
s.(dp0
Vd2xjaht
p1
I1
sVdgqaue5
p2
I1
s.(dp0
Vd2xjaht
p1
I1
sVdgqaue5
p2
I1
s.(dp0
Vdnpw6ld
p1
I1
sVd2xjaht
p2
I1
s.