(dp0
Vdfz37ls
p1
I2
sVdnd5391
p2
I4
sVd8ctnn9
p3
I1
sVd95eb5u
p4
I1
sVd180dut
p5
I1
sVd7mcd4m
p6
I4
sVd16dh2i
p7
I1
sVdcaqwls
p8
I1
sVdbrn36u
p9
I1
sVdfyk3qj
p10
I1
sVdjlojnj
p11
I2
sVd91lnjk
p12
I1
sVd3uxvjg
p13
I1
sVd08sxp3
p14
I1
sVdqm8arj
p15
I1
sVd4svatp
p16
I1
sVd0ltseg
p17
I1
sVcz2ezmx
p18
I1
sVd1darik
p19
I1
sVd1d76z1
p20
I1
sVdfh1y93
p21
I1
sVd91cbl2
p22
I2
sVd4e2j3f
p23
I3
sVd2qa7kk
p24
I2
sVdc0uiqt
p25
I1
sVdgykakw
p26
I1
sVdeeym0y
p27
I4
sVd9o2b69
p28
I1
sVdbn9epe
p29
I1
sVdiw6h05
p30
I1
sVd5ou4sn
p31
I1
sVd4l8ojx
p32
I1
sVd1atfyp
p33
I1
sVd0j3ik9
p34
I1
sVd1wsy8e
p35
I1
sVdg2h0hu
p36
I1
sVd7i22dc
p37
I1
sVd3xkq6f
p38
I1
sVdrz1vht
p39
I2
sVdexxxg2
p40
I1
sVd4zf77q
p41
I1
sVd90jlrx
p42
I1
sVdfxt4nn
p43
I1
sVdpx1pez
p44
I1
sVd8dfqd0
p45
I1
sVd33wvck
p46
I1
sVd7vn9m7
p47
I1
sVd72hqlp
p48
I1
sVddlv0yd
p49
I1
sVd8akq9y
p50
I1
sVd4y3p8p
p51
I1
sVd4dykf0
p52
I1
sVdg1lwpn
p53
I2
sVdcxqzv6
p54
I1
sVdtb7hy6
p55
I1
sVdprx8di
p56
I1
sVd6hyiwd
p57
I1
sVdprn0zm
p58
I2
sVdfkuz8i
p59
I1
sVczje95k
p60
I2
sVdi66y8l
p61
I1
sVdqd6bno
p62
I1
sVddhbtww
p63
I1
sVdhep2m3
p64
I1
sVd3p3qqn
p65
I1
sVdeqdgnv
p66
I1
sVdpw849n
p67
I8
sVd44c2pi
p68
I1
sVd2e1ymz
p69
I1
sVd6sjrdr
p70
I2
sVdkfzshl
p71
I3
sVdf5w3ck
p72
I2
sVdgf8qwb
p73
I1
sVd5r201e
p74
I2
sVd6hq09j
p75
I3
sVdfbyg38
p76
I2
sVcykpkt0
p77
I3
sVcz8425b
p78
I1
sVcz65zy1
p79
I1
sVd3f9em6
p80
I1
sVdincuyv
p81
I1
sVdhutpy1
p82
I2
sVdjtzq0v
p83
I1
sVdagi4se
p84
I1
sVdcln0iv
p85
I1
sVd8ve676
p86
I1
sVd8jesq6
p87
I1
sVd053560
p88
I1
sVd1spfr6
p89
I1
sVdp3552a
p90
I2
sVdon1t41
p91
I1
sVcyo5vt9
p92
I1
sVdmlabpd
p93
I1
sVdd4v13r
p94
I2
sVdpvfjge
p95
I1
sVd342yo6
p96
I3
sVd1r3bbh
p97
I1
sVd33dp84
p98
I3
sVdae72a2
p99
I2
sVdfnebw2
p100
I1
sVdaungtm
p101
I1
sVdemplu4
p102
I1
sVd7l8sap
p103
I1
sVdcebdb4
p104
I1
sVd93e7kj
p105
I3
sVdkr8eg1
p106
I3
sVdn2l0qm
p107
I1
sVczvf5od
p108
I1
sVdc15y4w
p109
I1
sVdnbjq2r
p110
I1
sVddagjpc
p111
I2
sVd9njr5v
p112
I1
sVd46ctjo
p113
I2
sVd7svcpm
p114
I2
sVd76kft5
p115
I1
sVdfgsvb4
p116
I2
sVd12ur2k
p117
I1
sVdkpmbci
p118
I1
sVd3gylj3
p119
I2
sVdfvhgfg
p120
I1
sVdhvc3qo
p121
I1
sVd3roxpk
p122
I1
sVcyjja7d
p123
I1
sVd5kfdr8
p124
I2
sVdn4pes9
p125
I1
sVcywevl9
p126
I1
sVddu3dau
p127
I2
sVd1rkqzr
p128
I1
sVdfakfe2
p129
I1
sVdelp3d6
p130
I1
sVd4umlc0
p131
I1
sVd1q4jwg
p132
I1
sVd4y8fxf
p133
I1
sVd5su393
p134
I2
sVd24r6zj
p135
I2
sVdmrk3ue
p136
I1
sVd71jwu9
p137
I1
sVd27q880
p138
I1
sVd27krpg
p139
I2
sVdbx7oar
p140
I1
sVd3vf7lb
p141
I3
sVdj114h3
p142
I1
sVd1f97n3
p143
I4
sVdegans2
p144
I1
sVddkbfwg
p145
I2
sVdgv76hb
p146
I1
sVd5mgzd8
p147
I5
sVd5c02k8
p148
I2
sVd7rmzuc
p149
I2
sVd5e5ghx
p150
I1
sVdj8qqkt
p151
I1
sVdhs26fq
p152
I2
sVd4w7ap5
p153
I1
sVd9oxvid
p154
I1
sVd30htkf
p155
I1
sVdrg51b5
p156
I1
sVde4c4p6
p157
I1
sVdkq37ah
p158
I1
sVczwytyn
p159
I1
sVdd5tets
p160
I2
sVczavyzg
p161
I1
sVd7y9qyp
p162
I1
sVd198dj2
p163
I2
sVdshl7tz
p164
I1
sVd7k5ons
p165
I2
sVdhfyzov
p166
I1
sVd833t2b
p167
I3
sVddm24fj
p168
I1
sVd6rdm5r
p169
I1
sVdhjugr0
p170
I1
sVdcaarfi
p171
I10
sVdo0hxv6
p172
I1
sVd52s4nk
p173
I1
sVdt9fk7v
p174
I2
sVd7j9y4f
p175
I6
sVd256593
p176
I1
sVdcafjoj
p177
I1
sVdawu3c4
p178
I1
sVd90oztp
p179
I2
sVdcw68h3
p180
I1
sVdbh2yam
p181
I1
sVdogyhl1
p182
I1
sVde9ohcx
p183
I1
sVdajq5ue
p184
I1
sVdcxypth
p185
I1
sVd5mid9i
p186
I5
sVd47fj0i
p187
I2
sVd64j2z4
p188
I1
sVd138pgz
p189
I1
sVdqeny4k
p190
I2
sVdofp0gj
p191
I1
sVdc2c9si
p192
I1
sVd1r2f6k
p193
I1
sVdmhtqm6
p194
I1
sVcztqhql
p195
I1
sVdao78a5
p196
I2
sVd71dr6i
p197
I2
sVcz0ep4v
p198
I1
sVdgtta9x
p199
I3
sVdjpz9no
p200
I1
sVd37ssgr
p201
I1
sVdg4pehq
p202
I1
sVd938kc5
p203
I1
sVdiunz3y
p204
I1
sVcz553s2
p205
I1
sVdj2hpnj
p206
I1
sVdelvw8y
p207
I1
sVdqbyx3w
p208
I1
sVdnbpmhz
p209
I1
sVdh1m8uy
p210
I1
sVd7xah75
p211
I1
sVdd7komh
p212
I2
sVdpoo5uf
p213
I2
sVd6xq5in
p214
I1
sVd799a4c
p215
I1
sVdhvvftk
p216
I1
sVdb7vja1
p217
I3
sVdep7xdg
p218
I1
sVdcabxrs
p219
I1
sVdbk3322
p220
I1
sVds9hp92
p221
I2
sVddjxlpp
p222
I7
sVd5tkehc
p223
I1
sVdko4sn8
p224
I6
sVdmi2iyh
p225
I2
sVdb16e12
p226
I1
sVd8mdfjy
p227
I1
sVdcacd99
p228
I1
sVdgfmlj1
p229
I2
sVdoy7h7k
p230
I1
sVd2b6v4z
p231
I1
sVczsy5bu
p232
I11
sVd019l4f
p233
I1
sVdfswnkh
p234
I3
sVdjpvlxg
p235
I1
sVd2rdkf3
p236
I1
sVd2atuwd
p237
I1
sVdny21ee
p238
I1
sVdksrcoz
p239
I1
sVd4up4a0
p240
I1
sVdsjsd8k
p241
I1
sVdi9v1bg
p242
I2
sVd6p3j3l
p243
I1
sVdcr54on
p244
I1
sVd24zl9n
p245
I1
sVdjpnk10
p246
I1
sVdkqz64w
p247
I1
sVd7p539o
p248
I2
sVd2v9qq6
p249
I1
sVdc9job1
p250
I2
sVd2ibchp
p251
I1
sVdehw4xw
p252
I1
sVdc3t3jm
p253
I1
sVd8uiamg
p254
I1
sVda2t0rx
p255
I1
sVddf4ur7
p256
I2
sVcznc7yp
p257
I1
sVczff2mk
p258
I1
sVd5lfyzk
p259
I1
sVde4ds1w
p260
I4
sVd7m6cco
p261
I1
sVdeurdot
p262
I2
sVdk8l11w
p263
I1
sVdqh4kps
p264
I1
sVdganmb2
p265
I5
sVdflpb6v
p266
I1
sVd3ryovl
p267
I1
sVdckf15v
p268
I3
sVcyvbv7b
p269
I1
sVcykt977
p270
I1
sVdfrv36t
p271
I1
sVd1v8gdn
p272
I1
sVdfpz4jk
p273
I2
sVd91lpwq
p274
I3
sVdsw4kvv
p275
I1
sVdghd9nm
p276
I1
sVdk1mark
p277
I5
sVd3orzu1
p278
I1
sVd4jbep1
p279
I1
sVdawjb8k
p280
I1
sVdc5mflx
p281
I1
sVdmowfml
p282
I1
sVdcajrea
p283
I2
sVd3fmipq
p284
I1
sVdimlz70
p285
I1
sVdc6wbzi
p286
I1
sVd0ruorb
p287
I1
sVczw3hre
p288
I1
sVddw01go
p289
I4
sVd5poxxb
p290
I1
sVdiawuck
p291
I1
sVdsk2g3c
p292
I1
sVdff3cod
p293
I1
sVdgth1u1
p294
I1
sVdo8i9su
p295
I1
sVdbtvw3h
p296
I1
sVd2cil5t
p297
I3
sVd31al7i
p298
I3
sVd60kk6h
p299
I1
sVdbg3dwl
p300
I1
sVcyontmn
p301
I1
sVdi67li8
p302
I2
sVdez3d9i
p303
I1
sVd5b8yaw
p304
I2
sVdh4z0bs
p305
I2
sVd9vjdcd
p306
I1
sVdawfubz
p307
I1
sVdben3ka
p308
I1
sVdprro1n
p309
I1
sVd5sw6nx
p310
I1
sVd0ea5l4
p311
I1
sVdi8e932
p312
I1
sVd6qywhs
p313
I1
sVdozbghx
p314
I1
sVd1qqyk4
p315
I3
sVd69m7gz
p316
I1
sVdop0jzb
p317
I1
sVd4zdgkd
p318
I1
sVd48lias
p319
I1
sVd463wck
p320
I3
sVd9nemz8
p321
I1
sVd4dzf2n
p322
I1
sVdgvki8j
p323
I1
sVd4ks18j
p324
I3
sVdqgjo2w
p325
I1
sVd52mu6j
p326
I1
sVdiija14
p327
I2
sVdpxtbc6
p328
I1
sVd1d8arb
p329
I1
sVczoxsdt
p330
I2
sVdjecl9p
p331
I1
sVdfwld6y
p332
I2
sVdhvbapr
p333
I2
sVdahb2b0
p334
I1
sVd50022k
p335
I1
sVd6bnneh
p336
I1
sVd2i6lhu
p337
I2
sVdel8mcv
p338
I1
sVdrs2od5
p339
I2
sVdioo0oq
p340
I1
sVdbg5mvw
p341
I1
sVdhh7wlm
p342
I1
sVda8lvr7
p343
I1
sVdr2hxkp
p344
I1
sVd5cydzb
p345
I1
sVdhn8mzn
p346
I1
sVddag0vf
p347
I5
sVd88q5qj
p348
I2
sVdcfmouq
p349
I1
sVddhx6ys
p350
I5
sVd7994p7
p351
I2
sVd31f552
p352
I1
sVd0x4wz2
p353
I1
sVd3zijus
p354
I1
sVdh06al9
p355
I1
sVd73m8qw
p356
I4
sVdr43hyu
p357
I6
sVd2l8gch
p358
I2
sVda5uzm7
p359
I1
sVd57ecma
p360
I2
sVd0jdt9e
p361
I1
sVd69hvmb
p362
I1
sVd6bq0rp
p363
I2
sVdhpw8yk
p364
I1
sVd7l5hi8
p365
I1
sVdh4m2p4
p366
I1
sVdigja0p
p367
I2
sVdhrfsod
p368
I1
sVd1je9h8
p369
I2
sVdkp152r
p370
I1
sVd28qwbi
p371
I1
sVdawdlwi
p372
I1
sVdon5xx0
p373
I1
sVd1z9w42
p374
I2
sVdi2y5wv
p375
I1
sVdn4fmjs
p376
I2
sVd5n5vc0
p377
I1
sVddf3r42
p378
I1
sVde49t7q
p379
I1
sVd56x1u9
p380
I1
sVdj4dolk
p381
I1
sVdcgfino
p382
I1
sVd7l33bj
p383
I1
sVd15qbz9
p384
I1
sVdp9giie
p385
I1
sVdrpfvem
p386
I1
sVczf35oe
p387
I1
sVd1wg8iq
p388
I1
sVczpa33k
p389
I2
sVd2e2dck
p390
I1
sVdd5genl
p391
I1
sVdh2njto
p392
I3
sVczzr1jj
p393
I1
sVdhn93p4
p394
I2
sVdnnb3en
p395
I2
sVczw1t6l
p396
I1
sVd27ly42
p397
I1
sVd9ztkz8
p398
I1
sVd8o3ftu
p399
I1
sVcyw5sf4
p400
I2
sVdh4zzf1
p401
I1
sVd2gwgw2
p402
I1
sVddjmo1r
p403
I1
sVdkp7qve
p404
I4
sVdiovi0b
p405
I2
sVdan24m0
p406
I2
sVdcb7b7c
p407
I1
sVd3denxn
p408
I1
sVdb2z6p5
p409
I1
sVddw0lpw
p410
I4
sVdb4am5p
p411
I2
sVd813wmv
p412
I1
sVd0kfw90
p413
I1
sVczji7mv
p414
I1
sVdofnrne
p415
I1
sVd8j0lqz
p416
I1
sVdohfyep
p417
I1
sVcynf4nh
p418
I2
sVdjg7lcs
p419
I1
sVd467ek0
p420
I1
sVdbxubny
p421
I1
sVdfxrmhr
p422
I1
sVczxnwan
p423
I1
sVdisfh8e
p424
I5
sVdf6w3gv
p425
I2
sVdnhibjo
p426
I2
sVd0ubhye
p427
I1
sVd3efwhj
p428
I1
sVd53irs2
p429
I2
sVczguctd
p430
I1
sVdh5ch32
p431
I1
sVdi8vds6
p432
I1
sVdg40ffa
p433
I2
sVdh1qxwi
p434
I2
sVdby3bpq
p435
I1
sVd27fmgc
p436
I1
sVd6624an
p437
I2
sVdk7wvr9
p438
I1
sVdg7shd3
p439
I4
sVd0xvhip
p440
I2
sVdr74bwv
p441
I1
sVdmrby2w
p442
I1
sVd4edmek
p443
I2
sVdffhni3
p444
I1
sVdcrd0tw
p445
I2
sVdf1dquf
p446
I1
sVdb8pkr7
p447
I1
sVd37t8zp
p448
I4
sVd7ou22x
p449
I1
sVd2qzzgf
p450
I1
sVdaswoh7
p451
I1
sVd85td3c
p452
I1
sVdbdqhph
p453
I2
sVd797ag1
p454
I2
sVdcnqs1f
p455
I1
sVdfhawwc
p456
I1
sVdgfnpjy
p457
I1
sVdnpw6ld
p458
I9
sVddbxseb
p459
I1
sVd58qulo
p460
I1
sVds6w0b6
p461
I4
sVdk7qpeq
p462
I1
sVd15hi6g
p463
I2
sVd4igmtb
p464
I1
sVd44wmks
p465
I2
sVdhvjyo5
p466
I1
sVdetc2vy
p467
I1
sVd7irhe3
p468
I1
sVd0mwfso
p469
I3
sVdkk4dbr
p470
I1
sVdkmar2l
p471
I3
sVdiic7f7
p472
I1
sVd423emh
p473
I1
sVd1d3ryi
p474
I1
sVd8aa21x
p475
I1
sVdh7njnl
p476
I1
sVd4e9942
p477
I1
sVdb0ziot
p478
I1
sVdfw6683
p479
I2
sVditiin7
p480
I5
sVdi6e7nu
p481
I1
sVde0r6u0
p482
I1
sVdbh43i5
p483
I1
sVdivllp7
p484
I1
sVdj3p83t
p485
I1
sVd3atdtk
p486
I1
sVcz2sbus
p487
I1
sVd7l86ad
p488
I2
sVd4trkn0
p489
I1
sVd95rx7w
p490
I1
sVdpyjo8z
p491
I2
sVd91y651
p492
I1
sVcz1vb7k
p493
I1
sVdqb4cvu
p494
I4
sVdf1dpu8
p495
I3
sVdbb565r
p496
I2
sVda39apc
p497
I2
sVdpp1qbg
p498
I1
sVdby0vdt
p499
I3
sVd13adq4
p500
I8
sVd511k2i
p501
I1
sVd467yo8
p502
I1
sVdikruut
p503
I1
sVdcaeie3
p504
I1
sVdg25t5o
p505
I1
sVd0x1j3o
p506
I1
sVdfbfudo
p507
I1
sVdjy0h5x
p508
I1
sVdsw66gz
p509
I1
sVdhrak0b
p510
I3
sVd7pnugt
p511
I1
sVddwvxmd
p512
I1
sVczvn6pe
p513
I3
sVd85xe69
p514
I1
sVd27897d
p515
I1
sVd38opgw
p516
I1
sVdmv8wq4
p517
I1
sVdglq4qd
p518
I2
sVd8wcd5c
p519
I2
sVds8au6d
p520
I1
sVcyy9j3g
p521
I1
sVddurkiq
p522
I1
sVdctimh6
p523
I3
sVd5wwcef
p524
I1
sVdinzca0
p525
I5
sVd6d7jrr
p526
I1
sVdbr3mqh
p527
I1
sVd12gh73
p528
I1
sVczwb93t
p529
I1
sVd7bw9d4
p530
I2
sVd7lgmq2
p531
I1
sVd4rxoft
p532
I1
sVdj6b221
p533
I1
sVd8d56yp
p534
I2
sVde9oqon
p535
I15
sVd139f5a
p536
I1
sVczi6cez
p537
I1
sVd2svunn
p538
I1
sVddghqwy
p539
I1
sVd6wd31k
p540
I1
sVda1nbzl
p541
I4
sVd72o12a
p542
I1
sVd0cn1lk
p543
I1
sVdbpps6z
p544
I3
sVd8tcaxc
p545
I2
sVdc9yvvo
p546
I9
sVd4d9d6h
p547
I1
sVdkrzf0x
p548
I1
sVdohx065
p549
I1
sVd4e3lkf
p550
I3
sVdpj2ru7
p551
I1
sVdr5i940
p552
I2
sVd8n19su
p553
I1
sVdc5qbxw
p554
I1
sVd8c8xtv
p555
I1
sVdrxyjgb
p556
I1
sVdhr9l95
p557
I3
sVd1l1edu
p558
I3
sVcz3ovqj
p559
I2
sVdprf5hg
p560
I2
sVd93o2zt
p561
I1
sVd19av8m
p562
I1
sVdhyki9q
p563
I4
sVdbutf3m
p564
I2
sVcz3zpcn
p565
I1
sVdqu93qe
p566
I1
sVdndwvz6
p567
I1
sVdegzra8
p568
I1
sVdn8x777
p569
I1
sVd68muk3
p570
I1
sVd4zq0nz
p571
I2
sVd87oxhj
p572
I4
sVdb4uoe6
p573
I1
sVda2d0ax
p574
I1
sVd1dl2qa
p575
I2
sVdcqgs0e
p576
I7
sVdf6js2f
p577
I1
sVdjy802y
p578
I1
sVd6ne9lu
p579
I1
sVdgb41v1
p580
I2
sVd6kmwiw
p581
I2
sVdccfx7q
p582
I1
sVdqj523j
p583
I2
sVdjm83i4
p584
I1
sVdg7jwzd
p585
I1
sVd74f6ko
p586
I3
sVdfj4p31
p587
I3
sVdaup8tf
p588
I3
sVdggvy3l
p589
I1
sVd1et8m2
p590
I2
sVdr4sqic
p591
I2
sVdrckqsp
p592
I1
sVdklmjg3
p593
I1
sVd73eshz
p594
I2
sVddzqs9t
p595
I1
sVdfxt7tu
p596
I3
sVdb7jhl1
p597
I1
sVdmu2ptr
p598
I7
sVde72v6r
p599
I1
sVdnjtnzt
p600
I3
sVd2bbsg9
p601
I1
sVd6gkdxs
p602
I1
sVdctlro6
p603
I1
sVdehvf2c
p604
I4
sVd01i7ba
p605
I1
sVdg5afpe
p606
I3
sVdigjlrg
p607
I2
sVdbvebey
p608
I1
sVdgaxz1r
p609
I1
sVdh6fo2c
p610
I1
sVd3kkr3x
p611
I1
sVdcnnvgf
p612
I1
sVd2aines
p613
I1
sVdpnbyho
p614
I1
sVd9rjvxg
p615
I1
sVd0ux93d
p616
I1
sVdglvvp9
p617
I1
sVdctzoe0
p618
I1
sVd0epe0v
p619
I1
sVd4qsvtb
p620
I3
sVdkwen9p
p621
I1
sVdcn238d
p622
I2
sVd03ybey
p623
I1
sVd9rw5n9
p624
I2
sVdgm396c
p625
I1
sVdb6mkqs
p626
I1
sVdcgb39h
p627
I1
sVdbnpdoh
p628
I1
sVdh6eobh
p629
I1
sVdnd12f1
p630
I1
sVd1we2eq
p631
I1
sVdgmkjh6
p632
I7
sVd0fjqnm
p633
I1
sVdgs2l3q
p634
I2
sVd3934wu
p635
I1
sVdc9wx11
p636
I2
sVd0ir2dd
p637
I1
sVd2mbaxw
p638
I1
sVditdj88
p639
I2
sVd3dm9nd
p640
I1
sVdqwscc0
p641
I4
sVdindm5c
p642
I1
sVdh13jwp
p643
I1
sVd3gtef3
p644
I1
sVdafdmqj
p645
I2
sVd4veaa9
p646
I1
sVd26s5d1
p647
I2
sVd2qo4i1
p648
I1
sVd1ogpu0
p649
I2
sVd017avt
p650
I1
sVdqeq06u
p651
I6
sVdo5ztgl
p652
I1
sVdp2sf40
p653
I4
sVczi76se
p654
I1
sVdd5pwa2
p655
I1
sVdofsfsr
p656
I1
sVdrrkz58
p657
I2
sVdcr0def
p658
I1
sVdrxk0mu
p659
I1
sVd905oa6
p660
I1
sVd826eml
p661
I1
sVd4mutrj
p662
I2
sVcz2ixo2
p663
I3
sVda1vprx
p664
I4
sVd615ff0
p665
I2
sVdcb0pqo
p666
I1
sVda9q51e
p667
I1
sVdh9zn30
p668
I2
sVcyw68je
p669
I1
sVdjwg1r7
p670
I2
sVcz7i34d
p671
I1
sVd2hjvmv
p672
I1
sVde87w4o
p673
I1
sVdh0kel5
p674
I1
sVd5vopwb
p675
I1
sVd5ufoi6
p676
I1
sVd56oum3
p677
I5
sVd3qk61z
p678
I1
sVdc5k8js
p679
I1
sVcz9j3v7
p680
I1
sVd5o9sji
p681
I1
sVdd9jwzw
p682
I3
sVdc6klzb
p683
I1
sVd6vnqb4
p684
I1
sVdr4lttf
p685
I1
sVdrstke4
p686
I1
sVdf5w5cb
p687
I2
sVd91m2fe
p688
I1
sVd3xdl5l
p689
I1
sVdbjo0kq
p690
I4
sVdbb3z1d
p691
I1
sVd276hy8
p692
I2
sVdd3aaol
p693
I4
sVd7gpgds
p694
I1
sVdn2k4li
p695
I6
sVdgnam10
p696
I3
sVdjqm1ho
p697
I1
sVdbyykqo
p698
I3
sVd85mj4x
p699
I1
sVd5avcir
p700
I1
sVdh4mrn3
p701
I5
sVd6kbat1
p702
I1
sVd3rk4l8
p703
I1
sVdmmc1zc
p704
I1
sVdjoc5xe
p705
I1
sVdcp42gi
p706
I1
sVdeh5kd2
p707
I3
sVd9806ku
p708
I1
sVdc9qc1d
p709
I1
sVdjf6u4m
p710
I1
sVd18zhwa
p711
I1
sVdewud4c
p712
I1
sVd733z1f
p713
I1
sVdi0hyrz
p714
I1
sVdktpvnk
p715
I2
sVd9o5oyd
p716
I2
sVdd1z7nl
p717
I4
sVd06kz4l
p718
I3
sVdf9kcdn
p719
I1
sVcyvnw76
p720
I1
sVdgasymv
p721
I1
sVd0fz6tv
p722
I1
sVdg4bpzv
p723
I2
sVdj5zlcz
p724
I1
sVd0x4p8m
p725
I6
sVde9zxcu
p726
I3
sVcz1gjin
p727
I3
sVdnb5qlr
p728
I1
sVdmq4tjm
p729
I1
sVdbq5mhy
p730
I3
sVdny5zvs
p731
I1
sVd4xt65s
p732
I1
sVd24sh2p
p733
I1
sVds8a88e
p734
I2
sVd5uku82
p735
I3
sVdjjcgz3
p736
I1
sVd1gtvq5
p737
I1
sVd0jdeug
p738
I1
sVd0axhka
p739
I2
sVdofxge3
p740
I1
sVddccl6z
p741
I1
sVdaggwoj
p742
I2
sVds6e1r0
p743
I1
sVd17vr1y
p744
I2
sVdrvslj4
p745
I1
sVd3e2p00
p746
I1
sVdhs6won
p747
I1
sVdrlecy9
p748
I1
sVd4oowbm
p749
I1
sVdiaz3ug
p750
I1
sVczayk5e
p751
I4
sVdmw9msc
p752
I1
sVd1oi3pb
p753
I1
sVdpw40zc
p754
I1
sVdcbho3u
p755
I1
sVdeuesk9
p756
I4
sVd27wqv7
p757
I1
sVdj592u6
p758
I1
sVdft537d
p759
I1
sVdjphgip
p760
I1
sVcz23odh
p761
I3
sVdfvmard
p762
I1
sVddoi41o
p763
I1
sVd515qfy
p764
I1
sVds7i3h4
p765
I1
sVd6f1hmu
p766
I2
sVdda41ot
p767
I3
sVd2atsdi
p768
I2
sVdsvzeaj
p769
I2
sVd19s3yj
p770
I1
sVd4y1md7
p771
I1
sVddod696
p772
I3
sVd4725ln
p773
I3
sVd78tgx2
p774
I1
sVdgj59sj
p775
I2
sVd8prna4
p776
I2
sVczyin12
p777
I1
sVdey58ni
p778
I1
sVdpres8n
p779
I4
sVdfo9ccf
p780
I5
sVd1txxvq
p781
I1
sVddfbjb1
p782
I1
sVd6ku1fm
p783
I4
sVdknu3kz
p784
I1
sVd15ztqt
p785
I2
sVd18zx00
p786
I3
sVd3q1sbq
p787
I1
sVdoxvay9
p788
I1
sVd11adh2
p789
I1
sVdok4amv
p790
I1
sVd7z8ign
p791
I1
sVdixe4vu
p792
I3
sVdbzb3wz
p793
I2
sVcyp39jh
p794
I1
sVdbwzzlu
p795
I1
sVd3orlni
p796
I1
sVd5mqqot
p797
I1
sVdis1c76
p798
I1
sVdiqhdsc
p799
I2
sVd2mik27
p800
I1
sVd1mbspw
p801
I1
sVdh7f5p9
p802
I1
sVd5r7ffj
p803
I2
sVd7yh8wt
p804
I2
sVdja5612
p805
I1
sVd27cu72
p806
I1
sVczb3bp5
p807
I1
sVd3w0yrj
p808
I1
sVdrr0ci7
p809
I1
sVcz8230b
p810
I1
sVdeayq1a
p811
I1
sVd46gk5a
p812
I9
sVdgt0ewl
p813
I1
sVd6hwv5u
p814
I2
sVdi7bxnu
p815
I1
sVd554b61
p816
I4
sVd3np5nu
p817
I1
sVd5tli31
p818
I1
sVd3ga00d
p819
I1
sVdqyx9o8
p820
I1
sVdct1jkj
p821
I1
sVd6zz6iq
p822
I1
sVdd50aou
p823
I3
sVd7j4xvb
p824
I2
sVdi92yaw
p825
I1
sVdaayind
p826
I1
sVd5tkbdh
p827
I1
sVdd26pxc
p828
I2
sVdkm6tai
p829
I1
sVdel13kf
p830
I1
sVda0ankv
p831
I1
sVdo8sqte
p832
I3
sVd24rjy0
p833
I6
sVd32zwgu
p834
I1
sVd27dva7
p835
I1
sVd0xr9oz
p836
I1
sVd6si7zz
p837
I1
sVds5zsy9
p838
I1
sVdokgi2n
p839
I2
sVd7le4f7
p840
I1
sVdetqskh
p841
I2
sVd1x68pf
p842
I1
sVdc0v6c4
p843
I3
sVdejdyx3
p844
I1
sVdomzdy9
p845
I1
sVdoe1stc
p846
I1
sVd5n4ff2
p847
I1
sVczhd80o
p848
I1
sVd1oocpt
p849
I11
sVdia63n0
p850
I5
sVdjf7a4q
p851
I3
sVcz4t8ts
p852
I1
sVdo18jtz
p853
I2
sVd0tuiz9
p854
I1
sVd9z1dea
p855
I1
sVd0fj1nx
p856
I1
sVdbvbg0e
p857
I2
sVdel31vw
p858
I1
sVdh7n7ig
p859
I2
sVd9030y4
p860
I1
sVd4urffx
p861
I2
sVcymhphm
p862
I1
sVdn5sodq
p863
I1
sVd3a7x8s
p864
I1
sVdrrlms1
p865
I1
sVczfadko
p866
I1
sVdhss6d2
p867
I1
sVd572ygs
p868
I2
sVdi2hrom
p869
I1
sVdb6ao2l
p870
I3
sVdetl6jv
p871
I1
sVd1tym64
p872
I1
sVd5f2t71
p873
I1
sVdqh5af5
p874
I1
sVdrs0zmj
p875
I2
sVdquq0eu
p876
I2
sVd41ymlo
p877
I1
sVdelodgy
p878
I2
sVczrpcuo
p879
I1
sVd43hfr5
p880
I1
sVdistsme
p881
I1
sVd0tqssc
p882
I1
sVdc5g44d
p883
I2
sVd7i80ft
p884
I1
sVd0nx6jb
p885
I1
sVdhlih17
p886
I1
sVd0bzft7
p887
I1
sVd7rwlrx
p888
I2
sVd8nowo6
p889
I2
sVdn5pv0j
p890
I1
sVdio7s0m
p891
I1
sVcyqhwb7
p892
I1
sVd2qr9br
p893
I1
sVd2ci4fn
p894
I1
sVdbxnnvw
p895
I1
sVd0hkp0c
p896
I1
sVd2vy2hw
p897
I1
sVdpw7h2m
p898
I7
sVcz070kj
p899
I1
sVdi9a848
p900
I1
sVd5t4pz8
p901
I1
sVd3rjrig
p902
I1
sVd3wodlj
p903
I1
sVd473uah
p904
I2
sVdjv4a4w
p905
I7
sVdait9nw
p906
I1
sVdhvblj1
p907
I2
sVd6q8jtw
p908
I1
sVd8t42dw
p909
I1
sVdpr1rhd
p910
I2
sVdfkxzjx
p911
I2
sVd7nsjqx
p912
I1
sVdarrg3p
p913
I1
sVdehxzxq
p914
I1
sVd0tglmk
p915
I1
sVdpfwtga
p916
I1
sVdrazfkx
p917
I1
sVdq2oivk
p918
I1
sVdb357wz
p919
I1
sVdis2pup
p920
I2
sVd17o9on
p921
I1
sVd2uviua
p922
I1
sVd95ipru
p923
I1
sVdio6296
p924
I2
sVcz2klr0
p925
I2
sVdk6s652
p926
I1
sVdjtqcl7
p927
I7
sVdaulsh2
p928
I1
sVcyq7vca
p929
I5
sVdilw7dg
p930
I1
sVd0qwxan
p931
I1
sVdh43zei
p932
I1
sVdgpwjoq
p933
I2
sVdggo2f3
p934
I2
sVd5k9xbg
p935
I1
sVdhxuv2l
p936
I1
sVde4drqo
p937
I1
sVdn19zr7
p938
I12
sVd0797sn
p939
I1
sVdmljs64
p940
I1
sVd1nxxrp
p941
I1
sVdk2qmor
p942
I1
sVcztqor3
p943
I1
sVd6k5vpc
p944
I2
sVdnuc07n
p945
I2
sVd346qi0
p946
I1
sVcyl3p34
p947
I1
sVda5w015
p948
I6
sVdkkgjul
p949
I1
sVdqhzaju
p950
I1
sVcyin1an
p951
I1
sVcywnt8q
p952
I1
sVczoxmhp
p953
I1
sVdr4lxto
p954
I1
sVd5muaky
p955
I1
sVd1408a3
p956
I1
sVd3eg9a0
p957
I1
sVd0n4pf2
p958
I1
sVdhvbupm
p959
I1
sVd9f116b
p960
I1
sVdhkkya9
p961
I1
sVd8ml8nl
p962
I2
sVds20w40
p963
I1
sVdiovffi
p964
I1
sVdh0d23j
p965
I2
sVdahk51w
p966
I1
sVczccnm8
p967
I1
sVd6hcqz3
p968
I3
sVd46ivg9
p969
I1
sVd9qelzo
p970
I1
sVddemohb
p971
I1
sVdhykbtg
p972
I2
sVd0n5lzl
p973
I1
sVcyqi215
p974
I1
sVd7yfi94
p975
I2
sVdka9as5
p976
I1
sVdrzjl23
p977
I1
sVd0spb9g
p978
I1
sVd2u6tpf
p979
I1
sVd4rr0g8
p980
I1
sVdtcuk6a
p981
I1
sVdinjcn8
p982
I1
sVd3hkowc
p983
I1
sVd91eg5n
p984
I2
sVd2q5b2k
p985
I1
sVdcqnqpu
p986
I1
sVdpedehx
p987
I1
sVd8a5xz4
p988
I1
sVczrawwe
p989
I1
sVd4lnc4w
p990
I1
sVd2rnkdy
p991
I1
sVdfdp100
p992
I1
sVdhtzudg
p993
I1
sVdfb07l9
p994
I2
sVddfqbgf
p995
I1
sVd5ekwdb
p996
I1
sVdpbm6gx
p997
I1
sVdg7g3ni
p998
I3
sVdjtpluf
p999
I1
sVdri8e6j
p1000
I1
sVcze5cbf
p1001
I1
sVd36ee24
p1002
I1
sVd1mdlhq
p1003
I1
sVdiikgn4
p1004
I1
sVddlatvk
p1005
I1
sVd26gosp
p1006
I1
sVd64fzeo
p1007
I1
sVdpj0vzc
p1008
I1
sVddly7gi
p1009
I9
sVdg2sgsj
p1010
I1
sVd4r8f6g
p1011
I6
sVczz9cwb
p1012
I1
sVd254j0k
p1013
I1
sVczseigq
p1014
I2
sVcz583mp
p1015
I1
sVdd3xfkc
p1016
I6
sVdqp2hxi
p1017
I1
sVd9xpg09
p1018
I3
sVdhr8mk0
p1019
I2
sVdbxxf05
p1020
I1
sVd2qa3v9
p1021
I1
sVd069o47
p1022
I1
sVdbq4tsv
p1023
I1
sVdcngab1
p1024
I1
sVd7l4qjf
p1025
I1
sVd8rrsl9
p1026
I3
sVdewk6nh
p1027
I1
sVd40qi8n
p1028
I1
sVdhf9sd0
p1029
I1
sVd1jnnn3
p1030
I1
sVdhkn0mo
p1031
I1
sVd5swaos
p1032
I1
sVcymp7fn
p1033
I1
sVd73kdk0
p1034
I3
sVd7bky2i
p1035
I2
sVd5yzpnh
p1036
I3
sVd5giklg
p1037
I1
sVd4rqvbt
p1038
I4
sVcz0w453
p1039
I2
sVdda6sfy
p1040
I2
sVdqcz9ei
p1041
I1
sVde4moza
p1042
I2
sVdheg071
p1043
I1
sVd9yp3by
p1044
I1
sVd4n2ztc
p1045
I1
sVd47mbi7
p1046
I2
sVdd1xsq4
p1047
I1
sVd5n8ejj
p1048
I1
sVd5zadwe
p1049
I1
sVd626l9n
p1050
I1
sVdd2ea73
p1051
I1
sVd3hifs9
p1052
I3
sVd5e70qo
p1053
I1
sVdh8gf96
p1054
I1
sVd77rtek
p1055
I1
sVd3f3hbu
p1056
I3
sVdho5e2j
p1057
I1
sVd113fzw
p1058
I1
sVdimapc1
p1059
I1
sVdo01npc
p1060
I1
sVdbnaw3y
p1061
I2
sVdbjhbh1
p1062
I1
sVdjb3tbz
p1063
I1
sVcz4srt9
p1064
I2
sVdnhw2zh
p1065
I2
sVdbw1bva
p1066
I1
sVdhiggch
p1067
I2
sVd7m9se7
p1068
I2
sVdc9wq32
p1069
I1
sVdfrk3y3
p1070
I6
sVds5x8dg
p1071
I1
sVd7qqhxy
p1072
I3
sVda8w9cb
p1073
I5
sVdnp76ss
p1074
I1
sVd1gyyq2
p1075
I1
sVdk15anf
p1076
I3
sVd4bnx0k
p1077
I1
sVcykl8a6
p1078
I3
sVdo6y3sz
p1079
I1
sVdn8x4rq
p1080
I2
sVd03938o
p1081
I4
sVczs3gft
p1082
I2
sVda06c1y
p1083
I1
sVdgsgrof
p1084
I1
sVdrrhaz5
p1085
I1
sVdgb1w6m
p1086
I1
sVdmzq8ci
p1087
I1
sVda8z038
p1088
I3
sVdag1o64
p1089
I4
sVd831s76
p1090
I2
sVcz4cjxg
p1091
I1
sVd7oxr3u
p1092
I1
sVdhxc49a
p1093
I1
sVdikuqgw
p1094
I1
sVcysmnnw
p1095
I1
sVd46dnuu
p1096
I2
sVdegq1or
p1097
I1
sVd5fc2zj
p1098
I1
sVd7ld12i
p1099
I1
sVdn9ag3k
p1100
I2
sVd3npaqi
p1101
I2
sVdc1f9ro
p1102
I2
sVdkcjrpz
p1103
I3
sVdawg551
p1104
I6
sVd66wxjh
p1105
I1
sVd47a6ou
p1106
I1
sVcyr9b1n
p1107
I1
sVdefcqym
p1108
I2
sVdcpuhhy
p1109
I1
sVcyl059h
p1110
I6
sVddt0z1t
p1111
I1
sVddmwzeq
p1112
I1
sVde1icrz
p1113
I1
sVdf5nnqp
p1114
I4
sVdi3zpvo
p1115
I1
sVdefdb48
p1116
I1
sVdosqppp
p1117
I1
sVdiwfark
p1118
I1
sVd2j5x8i
p1119
I7
sVd8i0025
p1120
I1
sVdg13xw5
p1121
I1
sVdhxhwuz
p1122
I1
sVcz7loq6
p1123
I2
sVczoh7k0
p1124
I2
sVdc0x5ih
p1125
I1
sVds82q1c
p1126
I1
sVczyqtt1
p1127
I2
sVdg2bbtx
p1128
I1
sVd1o6ole
p1129
I1
sVdfuoda9
p1130
I2
sVda4jtvq
p1131
I1
sVd0hek48
p1132
I8
sVd399l6f
p1133
I2
sVd3cfx3l
p1134
I4
sVde4i7du
p1135
I4
sVd4e4r8x
p1136
I1
sVcypydc5
p1137
I1
sVdg7jeid
p1138
I1
sVcyye0cj
p1139
I1
sVd2uytjl
p1140
I1
sVd1ymup4
p1141
I1
sVdpp39tk
p1142
I1
sVcz825u8
p1143
I2
sVdgxol5v
p1144
I1
sVcyj9iln
p1145
I1
sVd2oad7r
p1146
I1
sVdicx29r
p1147
I2
sVd3e3scw
p1148
I1
sVdege2cf
p1149
I1
sVdhohc2t
p1150
I1
sVd20zb79
p1151
I1
sVdhqmqkr
p1152
I2
sVdn3s1ho
p1153
I1
sVd86ys7x
p1154
I3
sVd16mvnr
p1155
I2
sVd0xb2p3
p1156
I1
sVd1756n6
p1157
I1
sVd1ju2nb
p1158
I1
sVd2j6rmu
p1159
I3
sVd7tja8g
p1160
I4
sVdmr96ll
p1161
I1
sVd4m6gju
p1162
I1
sVd46f3nk
p1163
I10
sVd79hknz
p1164
I1
sVdqp399j
p1165
I1
sVdc12pdl
p1166
I1
sVdp5979g
p1167
I3
sVd8ewuc1
p1168
I1
sVdqd8dqq
p1169
I2
sVd5pnubl
p1170
I1
sVd6ktmce
p1171
I1
sVdd5bo5p
p1172
I6
sVdf8pp52
p1173
I1
sVcywzrdy
p1174
I3
sVd0e53rc
p1175
I1
sVdc3m4i1
p1176
I3
sVd36fzox
p1177
I1
sVd8uaiy9
p1178
I1
sVdiblu84
p1179
I2
sVcz2i089
p1180
I1
sVdi3jevn
p1181
I1
sVczn1332
p1182
I1
sVd82b61d
p1183
I10
sVd6healb
p1184
I1
sVd26t6iq
p1185
I1
sVdazusht
p1186
I1
sVdcrc1y7
p1187
I2
sVd3kgi5i
p1188
I1
sVd3c3ele
p1189
I2
sVdkd5zbb
p1190
I1
sVdrcrox7
p1191
I1
sVd77fcjl
p1192
I1
sVdopwyqr
p1193
I1
sVdcx5se8
p1194
I1
sVd57112y
p1195
I1
sVd2jsddi
p1196
I2
sVd6vcmmv
p1197
I1
sVd83qhu5
p1198
I1
sVde4txea
p1199
I1
sVd60qqtx
p1200
I1
sVd98ayvz
p1201
I2
sVdauyuex
p1202
I1
sVdcr5j0h
p1203
I2
sVdpj0qxf
p1204
I1
sVdi5vbd6
p1205
I1
sVd5ufa9p
p1206
I2
sVdt20ag2
p1207
I2
sVd0ui6kn
p1208
I3
sVdtg2afr
p1209
I1
sVdair88e
p1210
I4
sVcz9rvqo
p1211
I1
sVdqs40vx
p1212
I3
sVd7467wo
p1213
I1
sVd5u6rlo
p1214
I1
sVd5vzjz4
p1215
I1
sVd9cjjiu
p1216
I2
sVd1eklms
p1217
I1
sVcz1lcl5
p1218
I1
sVdppfa2k
p1219
I8
sVd96y8xj
p1220
I2
sVddsb38i
p1221
I5
sVczp0anb
p1222
I1
sVd4chz4r
p1223
I2
sVcyv1id9
p1224
I2
sVdekw3v3
p1225
I1
sVdqgkerk
p1226
I1
sVdo64grd
p1227
I2
sVdcmlhww
p1228
I1
sVd27s7p9
p1229
I1
sVd8fshvr
p1230
I1
sVday6s7q
p1231
I1
sVd918usk
p1232
I2
sVdb00fq8
p1233
I1
sVd26k3tt
p1234
I5
sVd9jp0tt
p1235
I1
sVdcse41b
p1236
I4
sVdprm5eh
p1237
I5
sVd4kmhuq
p1238
I2
sVdgsfb7r
p1239
I2
sVdgdre5y
p1240
I1
sVddxqx68
p1241
I1
sVdpdro4v
p1242
I2
sVdfj6dsp
p1243
I1
sVd08m77t
p1244
I1
sVddja6tp
p1245
I1
sVcypx9bf
p1246
I4
sVdc4ctrg
p1247
I2
sVd6yubk4
p1248
I1
sVd8htqy1
p1249
I2
sVdszat3u
p1250
I1
sVdjy2z31
p1251
I1
sVd4iaqg8
p1252
I1
sVdez2xzl
p1253
I1
sVd33btzc
p1254
I1
sVd3g7un9
p1255
I2
sVdrtqggm
p1256
I1
sVdf6jppg
p1257
I1
sVd935mkv
p1258
I1
sVcz2a5wq
p1259
I1
sVdcy5gxs
p1260
I2
sVcztoqt2
p1261
I1
sVdpfldfr
p1262
I4
sVd1ppwcy
p1263
I1
sVczx0obg
p1264
I1
sVdhuvqjm
p1265
I1
sVd1a843t
p1266
I1
sVdbe556n
p1267
I1
sVdfvvfsi
p1268
I1
sVd5sqaag
p1269
I2
sVdhs9va9
p1270
I1
sVdn0v5on
p1271
I10
sVcys40xw
p1272
I7
sVdjzm3yh
p1273
I1
sVdc44s06
p1274
I1
sVdpd0ocm
p1275
I1
sVdj5iqet
p1276
I2
sVdslku72
p1277
I1
sVdmvcmi7
p1278
I1
sVdaq4ric
p1279
I1
sVczlt52q
p1280
I2
sVdfrbir1
p1281
I5
sVd4uqeec
p1282
I3
sVdb2pdlp
p1283
I3
sVd2s4jde
p1284
I1
sVde4irqu
p1285
I1
sVddb9zss
p1286
I1
sVdqo5sri
p1287
I3
sVdbfaoc3
p1288
I2
sVddpn860
p1289
I2
sVd24hkr9
p1290
I1
sVdarjfsj
p1291
I1
sVdiqdvnw
p1292
I1
sVdas944q
p1293
I10
sVdid56lj
p1294
I1
sVd7ifctk
p1295
I1
sVd66i8tn
p1296
I1
sVcz278sw
p1297
I2
sVdf0e5a0
p1298
I5
sVd2ozkxj
p1299
I1
sVd4m9qic
p1300
I1
sVda57eoe
p1301
I1
sVdtcve3d
p1302
I1
sVdmno5b3
p1303
I3
sVd7n06iu
p1304
I1
sVd59fvxd
p1305
I2
sVdfgcp8y
p1306
I1
sVd6f1qdv
p1307
I2
sVcznezof
p1308
I1
sVdpn4t6z
p1309
I1
sVdio6fgc
p1310
I1
sVdbra2fy
p1311
I1
sVddgj265
p1312
I2
sVdjnwqvp
p1313
I1
sVddcz3ch
p1314
I1
sVd3lnxf7
p1315
I1
sVd3tfg7q
p1316
I2
sVddyigv0
p1317
I3
sVcyk84q6
p1318
I4
sVd7rqrjf
p1319
I2
sVdoeuhty
p1320
I8
sVd5k73jk
p1321
I1
sVdihe7ow
p1322
I1
sVd5a64ju
p1323
I1
sVdmvk87t
p1324
I1
sVd6wp0lu
p1325
I1
sVdjwux27
p1326
I1
sVd89n0iv
p1327
I1
sVdd31at0
p1328
I2
sVd89e2pq
p1329
I3
sVcz3glth
p1330
I1
sVdtjlbr7
p1331
I1
sVdc1klx5
p1332
I1
sVcz2ks12
p1333
I1
sVd5uqhks
p1334
I1
sVd9790lb
p1335
I1
sVddf4jpu
p1336
I2
sVd5oi8xt
p1337
I1
sVdfldk2b
p1338
I1
sVd2boov8
p1339
I2
sVdgekfcq
p1340
I1
sVczlxs62
p1341
I3
sVd9dlf00
p1342
I2
sVd91ozbe
p1343
I1
sVczt1jhw
p1344
I1
sVdbt6kmc
p1345
I2
sVd5f8lxa
p1346
I9
sVdbb47qw
p1347
I1
sVdelvxfd
p1348
I2
sVdp3omzs
p1349
I1
sVd55e53h
p1350
I1
sVd2jwhaw
p1351
I1
sVdkmfr0l
p1352
I2
sVd46j0w7
p1353
I4
sVdbhshiu
p1354
I3
sVdd2ombp
p1355
I1
sVdjvuspg
p1356
I1
sVd03ytnt
p1357
I1
sVddueh0c
p1358
I1
sVdailhd4
p1359
I1
sVd4qyja7
p1360
I1
sVd2elk7r
p1361
I1
sVdqsjaml
p1362
I3
sVd9l9dov
p1363
I2
sVdhicqva
p1364
I1
sVdgflkaf
p1365
I7
sVdcthy9j
p1366
I1
sVd76qycy
p1367
I2
sVczoxwi3
p1368
I2
sVdki2t9u
p1369
I4
sVd4usn4d
p1370
I1
sVdrb0ds4
p1371
I2
sVd3ga5qu
p1372
I4
sVd4h0qzv
p1373
I4
sVdcxsysp
p1374
I2
sVczcnpcc
p1375
I1
sVdglrzoy
p1376
I1
sVdcw7qbc
p1377
I1
sVdechd5o
p1378
I1
sVcypsjwi
p1379
I5
sVd0ajjnr
p1380
I1
sVdgcluvi
p1381
I1
sVd7z9aw2
p1382
I1
sVdpuxo3n
p1383
I1
sVd6wtv1k
p1384
I2
sVd4be2p1
p1385
I1
sVczcv9v7
p1386
I2
sVdd0zmgu
p1387
I1
sVd4lg7gk
p1388
I1
sVczelwdg
p1389
I1
sVczgii2l
p1390
I1
sVd0rbhvi
p1391
I1
sVdp6ye3x
p1392
I2
sVdn0bjwd
p1393
I2
sVd2zo62t
p1394
I1
sVd0ysagl
p1395
I1
sVdi0ions
p1396
I1
sVdbby809
p1397
I1
sVd46q2o5
p1398
I1
sVczvtvo7
p1399
I1
sVdt5bnj1
p1400
I2
sVdbbmjv9
p1401
I1
sVd0qzq9v
p1402
I2
sVdq4x6rz
p1403
I1
sVdauoxsr
p1404
I2
sVd24vw66
p1405
I4
sVd7uxph3
p1406
I1
sVdjzm5z8
p1407
I2
sVdnfx8st
p1408
I7
sVdq42ptx
p1409
I2
sVd1ujxe4
p1410
I1
sVdk7p354
p1411
I1
sVd7ksrf8
p1412
I2
sVd1dmdu7
p1413
I2
sVd28lfw2
p1414
I7
sVdd2ic3o
p1415
I1
sVdo0vzhg
p1416
I1
sVdglanm9
p1417
I1
sVd64cur0
p1418
I1
sVdhqqpob
p1419
I1
sVdh67asc
p1420
I1
sVdkz5ekd
p1421
I1
sVdn3lo13
p1422
I2
sVdniyx9h
p1423
I1
sVdd61yop
p1424
I1
sVdcfmuqz
p1425
I1
sVdbkix6v
p1426
I1
sVdf6cmpk
p1427
I4
sVczyyi70
p1428
I1
sVdkp5kr6
p1429
I1
sVdg1corz
p1430
I1
sVd5rhnks
p1431
I1
sVdojv5fe
p1432
I1
sVd3wte08
p1433
I1
sVd0lpp9t
p1434
I1
sVdfonomj
p1435
I3
sVdkz4ok5
p1436
I1
sVdod769l
p1437
I1
sVdgbiy2g
p1438
I1
sVdepr4o3
p1439
I1
sVd92wcr6
p1440
I1
sVd33mi0x
p1441
I1
sVdpj30a0
p1442
I2
sVdi9ejpx
p1443
I1
sVdfh1bnc
p1444
I1
sVdca584e
p1445
I1
sVdip0zhe
p1446
I4
sVdfkg65h
p1447
I1
sVdiswjo6
p1448
I1
sVd0x4mrm
p1449
I3
sVdox1fjh
p1450
I1
sVdovz675
p1451
I2
sVdd3lb9h
p1452
I2
sVdc1vk1j
p1453
I1
sVd4a83ug
p1454
I7
sVdgjke58
p1455
I1
sVd0x6737
p1456
I1
sVd4e0yi8
p1457
I2
sVdgt215h
p1458
I1
sVdd0p9vw
p1459
I1
sVd1zcjif
p1460
I2
sVd1icyin
p1461
I2
sVdhh0f60
p1462
I1
sVd4eafb2
p1463
I13
sVcywbzfk
p1464
I5
sVcyq3jrp
p1465
I1
sVdd1wk5e
p1466
I1
sVdmq94i1
p1467
I2
sVdav3xiu
p1468
I1
sVd3uwa9b
p1469
I1
sVd4ab4jv
p1470
I1
sVdpvx05d
p1471
I1
sVdbxyppw
p1472
I1
sVdk2lajs
p1473
I1
sVd0d8m0c
p1474
I1
sVd918rsq
p1475
I3
sVd14ofu3
p1476
I2
sVd09uxqb
p1477
I1
sVda3l4ke
p1478
I1
sVczjbmcb
p1479
I2
sVda57izj
p1480
I1
sVdr5e7k7
p1481
I3
sVd4a1ujc
p1482
I1
sVdpi3ffh
p1483
I1
sVd1l26ec
p1484
I2
sVd1lv499
p1485
I1
sVd8hol6o
p1486
I4
sVd27t1cc
p1487
I4
sVde8v7fw
p1488
I2
sVd5l5ix1
p1489
I3
sVdrs24xt
p1490
I4
sVcytxda7
p1491
I2
sVdklkf8l
p1492
I1
sVddx95ul
p1493
I1
sVd53ae4j
p1494
I1
sVdeo2du1
p1495
I1
sVd1yhmne
p1496
I1
sVd74bz6w
p1497
I1
sVd91eh87
p1498
I1
sVd67t6yv
p1499
I1
sVd474aa1
p1500
I1
sVd6bojx1
p1501
I2
sVdjozdl7
p1502
I1
sVddrmkvm
p1503
I1
sVderph3w
p1504
I1
sVdn0qv58
p1505
I2
sVd6f4651
p1506
I7
sVdgkcri7
p1507
I1
sVcyycrq9
p1508
I3
sVdomybti
p1509
I1
sVdfto2j7
p1510
I1
sVdfqhlcv
p1511
I2
sVdtj40vy
p1512
I2
sVddpv21b
p1513
I1
sVdgnmwql
p1514
I1
sVdatwqi1
p1515
I3
sVdt7hw1c
p1516
I3
sVdsiltk3
p1517
I3
sVdegtsk2
p1518
I1
sVd9gzs1u
p1519
I1
sVdk2ws2k
p1520
I1
sVdnzno5k
p1521
I1
sVdkalc5q
p1522
I2
sVcz2sugx
p1523
I4
sVd35e3sm
p1524
I1
sVd5tk4ej
p1525
I1
sVcytyftf
p1526
I1
sVdrhwq3v
p1527
I1
sVdb9wuvy
p1528
I2
sVd468p01
p1529
I11
sVdnq9od1
p1530
I1
sVdath5m1
p1531
I1
sVdn3vayn
p1532
I2
sVdii79om
p1533
I3
sVd2bosg6
p1534
I3
sVdc6an1v
p1535
I2
sVd62q2z1
p1536
I16
sVcymdtf2
p1537
I1
sVddudtt6
p1538
I1
sVd5ns9bs
p1539
I1
sVd279bps
p1540
I3
sVcz73dgd
p1541
I1
sVdn7ocfp
p1542
I1
sVdamqq3v
p1543
I1
sVcynxo4o
p1544
I1
sVdatulw8
p1545
I2
sVdnm5jhj
p1546
I2
sVd0zegh0
p1547
I2
sVddw3zk0
p1548
I3
sVd4gxf6h
p1549
I3
sVd8bxi3d
p1550
I1
sVdcbk6uw
p1551
I2
sVd77hmoj
p1552
I1
sVddbglvp
p1553
I1
sVd27d2or
p1554
I1
sVdaj36h5
p1555
I1
sVd9uo09f
p1556
I2
sVd1hleyh
p1557
I1
sVdeyflyo
p1558
I1
sVd574yqi
p1559
I1
sVdkgp1bd
p1560
I3
sVczfczpl
p1561
I2
sVdbnxiee
p1562
I1
sVde1qmga
p1563
I1
sVdjpaqwi
p1564
I1
sVdbl5wa3
p1565
I2
sVdaghic1
p1566
I1
sVd1mwa5a
p1567
I1
sVdmywluk
p1568
I3
sVd6p2sho
p1569
I1
sVd71lnf9
p1570
I1
sVdh8ev47
p1571
I1
sVdjzl5qc
p1572
I1
sVdgs2gke
p1573
I2
sVd80j8li
p1574
I1
sVdhvbkv7
p1575
I1
sVd9xhru4
p1576
I1
sVdbtpash
p1577
I1
sVdnfjxky
p1578
I1
sVd7iu9y7
p1579
I1
sVdesx7xc
p1580
I1
sVd3s830b
p1581
I6
sVcze7y6a
p1582
I1
sVd7h39aj
p1583
I2
sVd2alnad
p1584
I1
sVdbiav4b
p1585
I1
sVd4mxg40
p1586
I1
sVdgx3xle
p1587
I1
sVdpw7mnm
p1588
I2
sVdcsddsq
p1589
I2
sVdi8yx2k
p1590
I1
sVdihc0v1
p1591
I4
sVdipu77p
p1592
I1
sVd55zbrg
p1593
I1
sVcz2dw6y
p1594
I2
sVdaok3yw
p1595
I9
sVde96f1b
p1596
I1
sVdfq3kdn
p1597
I1
sVdeupkdh
p1598
I2
sVdb489r7
p1599
I1
sVd4p61th
p1600
I1
sVd2xfd5x
p1601
I1
sVd9pxi7m
p1602
I1
sVd0gdhq4
p1603
I1
sVddha6k2
p1604
I1
sVddxljuf
p1605
I1
sVd5cr3vi
p1606
I2
sVd61vz72
p1607
I2
sVdkepsm5
p1608
I1
sVd1ixugr
p1609
I3
sVdi0r92v
p1610
I1
sVdd51gju
p1611
I2
sVdg1lw53
p1612
I1
sVdqbj2r9
p1613
I2
sVdokby3f
p1614
I6
sVdbt542e
p1615
I1
sVd7p9l96
p1616
I1
sVd1tudsg
p1617
I2
sVdrq6ji0
p1618
I1
sVdboqbfx
p1619
I1
sVdqbrxmu
p1620
I1
sVd95fz9i
p1621
I1
sVddb0tjn
p1622
I1
sVde4hvsc
p1623
I1
sVdghcwk7
p1624
I1
sVdi9uksz
p1625
I3
sVcz2efs8
p1626
I1
sVcyo90lv
p1627
I1
sVd10u495
p1628
I2
sVd1ygl4x
p1629
I1
sVdhlhyd1
p1630
I1
sVd4gu71f
p1631
I1
sVddiiph7
p1632
I6
sVd6bsr0q
p1633
I1
sVd28r9bj
p1634
I1
sVdk1kik1
p1635
I1
sVdetbv5z
p1636
I1
sVd0t6xyt
p1637
I1
sVdkutmls
p1638
I5
sVd2i72wb
p1639
I1
sVdgvs00l
p1640
I1
sVda5h2pd
p1641
I1
sVd792rxr
p1642
I1
sVdk5w4qb
p1643
I1
sVdfoo1rt
p1644
I5
sVcyuwvzn
p1645
I1
sVd6aiv4d
p1646
I5
sVczfxht7
p1647
I1
sVdeazzzi
p1648
I2
sVdkbgctw
p1649
I1
sVd1dnj7m
p1650
I6
sVdh6cqqv
p1651
I2
sVd6lnu4s
p1652
I1
sVd0fxw3d
p1653
I1
sVdabvjoq
p1654
I1
sVds9w2i0
p1655
I1
sVdoob38l
p1656
I1
sVdi6gn10
p1657
I1
sVdncwig5
p1658
I1
sVdofo5ua
p1659
I1
sVcyj6b4z
p1660
I1
sVczirwrl
p1661
I1
sVd1fvw5y
p1662
I1
sVdcw1w60
p1663
I1
sVczcxkfa
p1664
I1
sVdktfcfr
p1665
I1
sVcz12kq0
p1666
I2
sVds1o2i5
p1667
I1
sVdadt74s
p1668
I1
sVdkc6iwu
p1669
I1
sVd3gcitl
p1670
I2
sVdg7dao1
p1671
I2
sVde4jub8
p1672
I1
sVdgb4lbd
p1673
I2
sVcypsvq3
p1674
I6
sVd6mdsz5
p1675
I1
sVd469998
p1676
I2
sVd8vsjcm
p1677
I1
sVd3t46gi
p1678
I1
sVddeq1z1
p1679
I1
sVd2fu5o2
p1680
I1
sVd73r594
p1681
I2
sVdc10e9v
p1682
I2
sVd35foe1
p1683
I1
sVd0r3mql
p1684
I2
sVdrptk8o
p1685
I1
sVdcjbsw4
p1686
I1
sVd3g72j6
p1687
I2
sVdr7sd3e
p1688
I3
sVdc0tofc
p1689
I5
sVd1vy6tj
p1690
I1
sVczx2ugg
p1691
I1
sVd0nwrqw
p1692
I2
sVd8w1pvf
p1693
I1
sVdglaaxa
p1694
I1
sVdc9oyab
p1695
I1
sVcyzl65p
p1696
I1
sVdikgfp8
p1697
I1
sVd2escls
p1698
I11
sVda4y1tg
p1699
I1
sVczi01s1
p1700
I1
sVd8c1f7o
p1701
I3
sVcz3npxo
p1702
I1
sVd46ojbv
p1703
I1
sVd7y8cpd
p1704
I3
sVdink3r7
p1705
I1
sVd6ull83
p1706
I2
sVdtjhxjb
p1707
I1
sVd1gggiy
p1708
I1
sVdfkbuh8
p1709
I1
sVdk595el
p1710
I1
sVdpn5466
p1711
I1
sVd4jcd0k
p1712
I1
sVdh9w7xz
p1713
I4
sVczwadjl
p1714
I1
sVdg7elrc
p1715
I1
sVd4fas65
p1716
I1
sVd6lzvks
p1717
I5
sVd0xr70w
p1718
I1
sVd1r2xmx
p1719
I1
sVdh0a4ae
p1720
I1
sVdn2j7xv
p1721
I2
sVddaw58q
p1722
I1
sVczomivg
p1723
I1
sVd7udl95
p1724
I2
sVdrhivyk
p1725
I1
sVdqoigm2
p1726
I1
sVd46p47h
p1727
I2
sVd6ksu0y
p1728
I1
sVd0llgyc
p1729
I1
sVda3aylg
p1730
I1
sVdjxlmkp
p1731
I1
sVdag2fh1
p1732
I1
sVdqgsi16
p1733
I2
sVd4dz9bm
p1734
I5
sVdgfa8d3
p1735
I1
sVd917v8x
p1736
I1
sVdei6pf6
p1737
I1
sVd1sxu58
p1738
I1
sVdopwu44
p1739
I1
sVddwhq4t
p1740
I2
sVdewjg5k
p1741
I2
sVd7z7i6y
p1742
I1
sVd59cwfb
p1743
I2
sVdipmhwy
p1744
I5
sVczex2o1
p1745
I7
sVd4zj54p
p1746
I5
sVd26l9yp
p1747
I1
sVdn4hgo4
p1748
I1
sVd7o0660
p1749
I1
sVd5vxi4p
p1750
I1
sVdpy32r4
p1751
I1
sVd01i6oj
p1752
I1
sVcynrmwy
p1753
I1
sVcyk4kku
p1754
I1
sVdc3xh56
p1755
I1
sVd82mbd4
p1756
I3
sVcyscapq
p1757
I1
sVd1ajcsw
p1758
I1
sVd6kxyrn
p1759
I7
sVdgs2kp7
p1760
I1
sVd3ym5p0
p1761
I1
sVd27nqct
p1762
I1
sVdn1byy5
p1763
I2
sVdgo4kei
p1764
I1
sVd4a739b
p1765
I2
sVdghe13e
p1766
I1
sVd0zp7bg
p1767
I14
sVdjzs913
p1768
I2
sVdih9nl6
p1769
I1
sVdjwg689
p1770
I3
sVdomx4m3
p1771
I2
sVdkrma9n
p1772
I1
sVdrrqeej
p1773
I3
sVczep9iv
p1774
I1
sVdg1ouut
p1775
I1
sVd423s2g
p1776
I1
sVd6vwgim
p1777
I1
sVdfs8xss
p1778
I3
sVdc7v2h5
p1779
I2
sVd46bk93
p1780
I1
sVdi7c2hy
p1781
I1
sVd6mkjn7
p1782
I1
sVd5kpjt9
p1783
I1
sVd17v07u
p1784
I3
sVdrai67r
p1785
I1
sVd2j09ao
p1786
I1
sVd3up7ql
p1787
I2
sVdrfdk50
p1788
I1
sVcyxodlo
p1789
I1
sVd37tq94
p1790
I14
sVd3i0rus
p1791
I1
sVdk8alws
p1792
I8
sVdoeujwk
p1793
I4
sVdfjpgti
p1794
I1
sVdd1z9w0
p1795
I3
sVdere43j
p1796
I1
sVcyneiyi
p1797
I1
sVdd97g0n
p1798
I1
sVdohz2vg
p1799
I1
sVdcauumk
p1800
I2
sVd91m7ud
p1801
I2
sVdhyfkwm
p1802
I2
sVdmlh50c
p1803
I3
sVdt4sjgb
p1804
I1
sVdpwswgq
p1805
I1
sVdiw9hiw
p1806
I1
sVdnadx93
p1807
I1
sVd27ci0z
p1808
I2
sVdrurv0u
p1809
I2
sVd1byi8u
p1810
I1
sVd3ck9w6
p1811
I1
sVczympkf
p1812
I2
sVd1wgtnn
p1813
I3
sVczy1p67
p1814
I1
sVd73tb0q
p1815
I1
sVdn024qf
p1816
I1
sVdi7bqgc
p1817
I2
sVdemdsjy
p1818
I1
sVdgnfxln
p1819
I1
sVdg1r7go
p1820
I1
sVdbxwsee
p1821
I2
sVd0ptu8j
p1822
I1
sVdbmd359
p1823
I1
sVdmim4kf
p1824
I1
sVd0hj1i6
p1825
I1
sVdn7rhmh
p1826
I1
sVdajria6
p1827
I4
sVd4mdf0r
p1828
I1
sVdf64mly
p1829
I1
sVdoeo9nu
p1830
I2
sVd6xdkw5
p1831
I1
sVdbm2ig6
p1832
I1
sVd5m532n
p1833
I1
sVdd2xj1f
p1834
I1
sVd4qgcz7
p1835
I1
sVczcwtle
p1836
I1
sVd0b6tu4
p1837
I1
sVd0gv1oc
p1838
I1
sVd0449s2
p1839
I1
sVd2rnigv
p1840
I2
sVdf1wtwi
p1841
I1
sVdda44jr
p1842
I1
sVd2jo89m
p1843
I4
sVd38pot1
p1844
I1
sVdijfd67
p1845
I1
sVdna0lf8
p1846
I1
sVd8c8b4z
p1847
I2
sVd687avd
p1848
I3
sVd2scfed
p1849
I2
sVdazqzk1
p1850
I4
sVd5anwxr
p1851
I1
sVcz2gis4
p1852
I1
sVd9e91ez
p1853
I1
sVdkbf3t1
p1854
I1
sVdr44tvj
p1855
I1
sVdi1irqh
p1856
I1
sVdihegha
p1857
I1
sVd8j0ca1
p1858
I1
sVdg5pbmj
p1859
I1
sVdswuehy
p1860
I1
sVdb5mkny
p1861
I1
sVdhkpp05
p1862
I1
sVd1gs5np
p1863
I1
sVd4e1erl
p1864
I2
sVdsyz4fi
p1865
I1
sVd92jii5
p1866
I1
sVdasn9d8
p1867
I1
sVdbp4amo
p1868
I1
sVdbsupj2
p1869
I2
sVd578ty6
p1870
I2
sVddhifef
p1871
I1
sVd08pqvx
p1872
I2
sVdih21fv
p1873
I3
sVdfxtg45
p1874
I3
sVdewp6cs
p1875
I2
sVdfi60im
p1876
I1
sVd6qgzoc
p1877
I1
sVd2qyush
p1878
I1
sVdj2251k
p1879
I1
sVdrdd37f
p1880
I1
sVd2hb784
p1881
I1
sVdhutm5z
p1882
I1
sVd465lc4
p1883
I2
sVdr24c6t
p1884
I1
sVdq2hpxm
p1885
I1
sVd6g49mk
p1886
I3
sVd01w0ie
p1887
I2
sVd8v6ohd
p1888
I1
sVdmzp6h7
p1889
I1
sVd2dwl9g
p1890
I1
sVdd9y4pw
p1891
I2
sVdb4p1nc
p1892
I1
sVd99g1ex
p1893
I2
sVd5zgfhc
p1894
I1
sVdh640mz
p1895
I2
sVd4e1chy
p1896
I2
sVdkjpc03
p1897
I2
sVdcj864s
p1898
I1
sVddqqmgx
p1899
I1
sVd8hgf69
p1900
I3
sVdcen7sh
p1901
I1
sVcyo7dcc
p1902
I1
sVd6min4i
p1903
I2
sVczeafyd
p1904
I1
sVdhjglve
p1905
I1
sVd1gynu9
p1906
I1
sVczfm83w
p1907
I1
sVcyvvrvj
p1908
I1
sVd4d3xxa
p1909
I2
sVd5jm1bs
p1910
I1
sVdkoleaj
p1911
I4
sVd1syjxk
p1912
I1
sVdmnny62
p1913
I2
sVd3dt7lt
p1914
I2
sVd0axpnc
p1915
I9
sVd2p8aal
p1916
I2
sVdh009cf
p1917
I1
sVd96r8qt
p1918
I1
sVd7qhtgr
p1919
I1
sVdac0i1k
p1920
I1
sVdhv7p6r
p1921
I1
sVczxofdd
p1922
I1
sVd8iwd7i
p1923
I1
sVcyklxhx
p1924
I1
sVdk0etba
p1925
I4
sVdpb8yzl
p1926
I1
sVcz5s22z
p1927
I1
sVdr82haj
p1928
I1
sVdndxwhw
p1929
I1
sVda6t06s
p1930
I1
sVd01lcpl
p1931
I7
sVddh4f9x
p1932
I1
sVdawzsok
p1933
I1
sVd0jhn5g
p1934
I1
sVcz0git3
p1935
I1
sVd4umd02
p1936
I3
sVd5v8d4j
p1937
I5
sVdoz53xs
p1938
I1
sVd3jlr9g
p1939
I1
sVd2krnnh
p1940
I1
sVd7qmu5r
p1941
I2
sVdfdjo12
p1942
I2
sVdnkoanh
p1943
I2
sVdgh3j7o
p1944
I4
sVdn43hqm
p1945
I1
sVd8dbw25
p1946
I2
sVdoywqsq
p1947
I1
sVd14aaxn
p1948
I1
sVd46hrut
p1949
I1
sVd3pfdzj
p1950
I1
sVdepvunx
p1951
I1
sVczh449x
p1952
I1
sVdk7vyh6
p1953
I1
sVd3sapxl
p1954
I1
sVd0qv0v9
p1955
I3
sVd9o5cjc
p1956
I1
sVd9otuwb
p1957
I1
sVd0o19vg
p1958
I1
sVd9afe6v
p1959
I3
sVd3d5ioa
p1960
I3
sVdpfczr2
p1961
I1
sVdfrm487
p1962
I1
sVd1zh0ec
p1963
I2
sVd1pl415
p1964
I1
sVd5eozs9
p1965
I6
sVczu4jk6
p1966
I1
sVdaxt1os
p1967
I1
sVd6ntqdf
p1968
I1
sVd0li9q1
p1969
I1
sVdkrdwgk
p1970
I1
sVd7lagw9
p1971
I1
sVdhpepxk
p1972
I1
sVddbus77
p1973
I1
sVdfvovgy
p1974
I4
sVdhewh5y
p1975
I1
sVdkur517
p1976
I1
sVdp6rjxp
p1977
I1
sVd9csw5o
p1978
I3
sVd5mum43
p1979
I1
sVd0grfud
p1980
I1
sVdag6zee
p1981
I1
sVcz2dni1
p1982
I2
sVdhuzj8j
p1983
I1
sVdqm6vmu
p1984
I1
sVd4gy5dc
p1985
I2
sVdcq7iqo
p1986
I3
sVdgfm0np
p1987
I1
sVd40h2l9
p1988
I7
sVd27bb4j
p1989
I3
sVd13qskk
p1990
I1
sVdbq4o9p
p1991
I1
sVd4xdbfq
p1992
I3
sVdsh3nzo
p1993
I1
sVd2o5kcz
p1994
I1
sVda5o59a
p1995
I1
sVd8d6h1f
p1996
I1
sVdefosme
p1997
I1
sVcz12n3w
p1998
I1
sVd5w3y1b
p1999
I1
sVdj7krqf
p2000
I3
sVdbi0psb
p2001
I1
sVd1mke2n
p2002
I1
sVdn2jz62
p2003
I2
sVdcewo6e
p2004
I1
sVczcz0s1
p2005
I7
sVdcmuezb
p2006
I2
sVd6oqxzj
p2007
I1
sVdgdw38b
p2008
I1
sVd2xcu4y
p2009
I1
sVd1zdg6w
p2010
I1
sVd95k57z
p2011
I1
sVd25958i
p2012
I1
sVd64tsoe
p2013
I1
sVdd3jclu
p2014
I2
sVdcj9z8o
p2015
I1
sVdfjgzte
p2016
I1
sVd5frwor
p2017
I1
sVdbpn2hl
p2018
I1
sVdip6jdz
p2019
I4
sVd1tcoco
p2020
I1
sVdbfhuto
p2021
I1
sVdd9fmw6
p2022
I1
sVcyw9tsk
p2023
I1
sVdfyqrqa
p2024
I5
sVdc4jxm8
p2025
I1
sVcz1fcc2
p2026
I1
sVcz4exqi
p2027
I2
sVd69isrr
p2028
I3
sVd3q5tyq
p2029
I1
sVdqy5yt6
p2030
I1
sVdc3xr31
p2031
I1
sVdazpxbl
p2032
I1
sVd19005a
p2033
I1
sVd9h8uj3
p2034
I2
sVdigjng9
p2035
I1
sVd9qs85w
p2036
I1
sVdn5lxpy
p2037
I1
sVdbjclb8
p2038
I5
sVcysl0ol
p2039
I1
sVddw4w6k
p2040
I1
sVdgqb07j
p2041
I4
sVd5ee3n5
p2042
I1
sVcz1gf3r
p2043
I1
sVd897w80
p2044
I2
sVdqlrjts
p2045
I2
sVd1tlxbw
p2046
I1
sVd4oigwf
p2047
I1
sVda1xn19
p2048
I1
sVdomkgzv
p2049
I1
sVdn58pyw
p2050
I1
sVdcacbdq
p2051
I2
sVdk3iemo
p2052
I5
sVdku8qel
p2053
I1
sVdn2ak4d
p2054
I1
sVd479eud
p2055
I1
sVdhexhoi
p2056
I1
sVddpjg85
p2057
I3
sVdhx12fz
p2058
I2
sVd91lxmi
p2059
I1
sVd34ypwd
p2060
I1
sVd5r2d3b
p2061
I7
sVd8b8qts
p2062
I1
sVd39yf9y
p2063
I7
sVdo7cqgq
p2064
I1
sVdb7ulkj
p2065
I3
sVd6ayy1i
p2066
I1
sVcyl5vve
p2067
I1
sVdos4p9t
p2068
I1
sVdsy5zcl
p2069
I2
sVdb58tvu
p2070
I1
sVdg4h632
p2071
I2
sVd5q04pe
p2072
I1
sVd2bztbs
p2073
I1
sVd4xkvpz
p2074
I1
sVdn9rmds
p2075
I1
sVd57xbnh
p2076
I1
sVd4gqtv9
p2077
I1
sVdo6juh1
p2078
I1
sVdqs5ih2
p2079
I2
sVdgn9tmh
p2080
I1
sVddh57ee
p2081
I3
sVd5liwpd
p2082
I2
sVdaf13om
p2083
I1
sVd3l3wh5
p2084
I1
sVdfq57q5
p2085
I2
sVd8oi0mw
p2086
I1
sVdf1pc94
p2087
I3
sVd6zw7g5
p2088
I1
sVd533ukr
p2089
I1
sVd8q8msj
p2090
I1
sVd4zj2ws
p2091
I1
sVczfxje5
p2092
I1
sVdsogoe9
p2093
I1
sVdpp2hkf
p2094
I1
sVddsnm3i
p2095
I2
sVdcrgb7f
p2096
I1
sVd3uypnx
p2097
I2
sVd2bnzhl
p2098
I1
sVdru7f98
p2099
I1
sVd7o6cd4
p2100
I1
sVdfnl195
p2101
I1
sVdd2aq6y
p2102
I1
sVddo6tfn
p2103
I1
sVdj9r8ye
p2104
I1
sVds11zot
p2105
I1
sVdbx5m0f
p2106
I1
sVcyoyfkq
p2107
I1
sVd01sz7x
p2108
I1
sVdoeprjp
p2109
I1
sVd1smcm6
p2110
I1
sVcz2h53u
p2111
I2
sVdddodg4
p2112
I1
sVdk2y46w
p2113
I2
sVdp1sccv
p2114
I1
sVdgt0qw3
p2115
I1
sVd1l3yup
p2116
I1
sVdaby5hp
p2117
I3
sVdbd21th
p2118
I4
sVdtiizm7
p2119
I1
sVd630uas
p2120
I1
sVdppj6hs
p2121
I1
sVd39xjvb
p2122
I1
sVdc3khu6
p2123
I1
sVd02g7gx
p2124
I3
sVdewgvzv
p2125
I2
sVdq4tgqb
p2126
I1
sVda90276
p2127
I1
sVd8l7vga
p2128
I1
sVdbc6iod
p2129
I1
sVdbrmrip
p2130
I1
sVd6j5yry
p2131
I1
sVd46fieb
p2132
I12
sVdejo5b1
p2133
I2
sVdh9y9j0
p2134
I1
sVcz29chf
p2135
I1
sVczw1ig6
p2136
I1
sVdd134q8
p2137
I5
sVcz2ki3y
p2138
I4
sVdjx0tvp
p2139
I2
sVdn18bjm
p2140
I6
sVdj6sel3
p2141
I1
sVdc5fx2x
p2142
I10
s.