(dp0
Vd1x4f8z
p1
I1
sVd6hcqz3
p2
I1
sVddpazu6
p3
I1
sVdmhlj6r
p4
I2
sVd7g7uor
p5
I1
sVdc8t1pf
p6
I1
sVdqznk2m
p7
I1
sVdrxk0mu
p8
I1
sVd3kut3k
p9
I1
sVd2zl0g9
p10
I1
sVd0mfdkq
p11
I1
sVdc8tbc8
p12
I1
sVdc8t5kq
p13
I1
sVdphuueg
p14
I1
sVd4htaw1
p15
I1
sVdgdre5y
p16
I2
sVdioykn5
p17
I1
sVdj7fwya
p18
I1
sVdbvel87
p19
I1
s.