(dp0
Vd8tyyxg
p1
I1
sVd3obo9d
p2
I1
sVd9cex7a
p3
I1
sVdmohr3b
p4
I2
sVdk0zdaf
p5
I1
sVd8fh6d5
p6
I1
sVdbu6c55
p7
I1
sVd8cphmj
p8
I1
sVd00ckxv
p9
I1
sVd1vl0hi
p10
I1
sVdc8j4se
p11
I1
sVd2ln9ln
p12
I1
sVdcf7587
p13
I1
sVczhm8vl
p14
I1
sVddwgi54
p15
I1
sVdgp6m4t
p16
I1
sVd4ukw41
p17
I1
sVczgz0jj
p18
I2
sVddbxi3w
p19
I1
sVdojttwl
p20
I1
sVd9ts30f
p21
I1
sVd5m7crb
p22
I1
sVd2emahx
p23
I1
sVcyphshs
p24
I1
sVd255qdz
p25
I1
sVdggnuor
p26
I1
sVdtef91q
p27
I1
sVd5mucb4
p28
I1
sVdee8z5p
p29
I1
sVd3uk64z
p30
I1
sVd37svte
p31
I1
sVd0pvrvx
p32
I1
sVdjbmzb3
p33
I1
sVdc5mmba
p34
I1
sVd85uhna
p35
I1
sVd1ws7nt
p36
I1
sVd40ufdc
p37
I1
sVdncbd7u
p38
I1
sVdiwoif8
p39
I1
sVdeq9rhf
p40
I1
sVddik637
p41
I1
sVdmsa8xb
p42
I1
sVdg6hlzf
p43
I3
sVddbhn7v
p44
I1
sVdjxouom
p45
I1
sVdcc88xg
p46
I2
sVdauafb1
p47
I1
sVcyqk4j5
p48
I1
sVd1darik
p49
I1
sVdf1s0ft
p50
I2
sVczv7dp0
p51
I1
sVdkyfk2f
p52
I1
sVd1o51gg
p53
I1
sVdnjwe7u
p54
I1
sVdfnjsfp
p55
I1
sVdczuepl
p56
I1
sVd57y3yo
p57
I1
sVdbwjmqx
p58
I1
sVczg6di5
p59
I1
sVd0hnafl
p60
I1
sVdb8wqeu
p61
I1
sVd6zjlvb
p62
I1
sVdrmwmgd
p63
I1
sVdic6a3r
p64
I2
sVd0oocpn
p65
I1
sVd9ftvdq
p66
I1
sVdejdhb7
p67
I1
sVd0b6frr
p68
I1
sVcz2843o
p69
I1
sVd498p0m
p70
I1
sVde9qd67
p71
I1
sVdble5a1
p72
I1
sVdcb4kq2
p73
I1
sVcynmwf0
p74
I1
sVd85n0r2
p75
I1
sVdp8z1sx
p76
I1
sVd6zfvv7
p77
I1
sVd8eebth
p78
I1
sVdihfd7k
p79
I1
sVdmn3nao
p80
I1
sVdrkq043
p81
I1
sVd82v70a
p82
I1
sVdjk3yvg
p83
I1
sVczj6q6y
p84
I1
sVd3jb4he
p85
I1
sVde4ez02
p86
I1
sVd3rqsv6
p87
I2
sVd0n5a7h
p88
I1
sVdkt8aew
p89
I1
sVd3bliro
p90
I1
sVddjvd52
p91
I1
sVdf165v6
p92
I1
sVd1o104h
p93
I2
sVdt5sail
p94
I1
sVdb88p77
p95
I1
sVd198uwy
p96
I1
sVczfzv9q
p97
I1
sVdphffu9
p98
I1
sVd89s9nu
p99
I1
sVcyvvcr1
p100
I1
sVdeacndm
p101
I1
sVd2azxx0
p102
I1
sVdc8ypg5
p103
I1
sVddfw5ih
p104
I1
sVdfuej9u
p105
I1
sVd9aes5s
p106
I1
sVdb4uoe6
p107
I1
sVdkjvqg8
p108
I1
sVd3bf5qk
p109
I1
sVdj2g7hg
p110
I1
sVd3biizw
p111
I1
sVd6rek1t
p112
I1
sVcyj6b4z
p113
I1
sVd1t9m2m
p114
I1
sVd7xu11m
p115
I1
sVd253x1j
p116
I1
sVd3rgvym
p117
I1
sVdauu94a
p118
I1
sVd3aeyw0
p119
I1
sVdcxr433
p120
I1
sVd8ojdrf
p121
I1
sVd1heqdx
p122
I1
sVdj90pgh
p123
I1
sVdeumhh4
p124
I1
sVdkhxzlj
p125
I1
sVd6iog74
p126
I2
sVdiy1zq3
p127
I1
sVd5khac4
p128
I1
sVdokby3f
p129
I1
sVddzkcyx
p130
I1
sVd1d98m8
p131
I1
sVd3hapn3
p132
I1
sVdbe908u
p133
I1
sVdbtqs66
p134
I1
sVd9d3rdf
p135
I1
sVdc7qa9m
p136
I2
sVdclotax
p137
I1
sVdgc05j2
p138
I1
sVdp8rkwl
p139
I1
sVdncgjgd
p140
I1
sVdk0dnm6
p141
I1
sVdntd92f
p142
I1
sVdjvj011
p143
I1
sVdb88l92
p144
I1
sVdck32tl
p145
I1
sVdqmkefx
p146
I1
sVd9n0iie
p147
I1
sVdcsnkf4
p148
I1
sVd7x91lc
p149
I1
sVdjwxbcq
p150
I1
sVd2zwnk9
p151
I1
sVdb6v6e8
p152
I1
sVdamelpt
p153
I1
sVd9frr7z
p154
I1
sVdpsllyt
p155
I1
sVcyjrcyq
p156
I1
sVdee3b4o
p157
I1
sVcz6o25m
p158
I1
sVde64ype
p159
I1
sVdggubrq
p160
I2
sVdihpjb4
p161
I1
sVdiyycep
p162
I1
sVdioiitw
p163
I1
sVdddw1zi
p164
I1
sVdfos8q5
p165
I1
sVd9voqp8
p166
I1
sVdsbk4l6
p167
I1
sVde72xw7
p168
I1
sVdk4q0wr
p169
I1
sVds4px6n
p170
I1
sVdekss9g
p171
I1
sVd7u03ce
p172
I1
sVd0z3m9g
p173
I1
sVdisccvh
p174
I1
sVdfdyush
p175
I1
sVdh9aw3x
p176
I2
sVd6gqs5y
p177
I1
sVdam6ns8
p178
I1
sVdkew4vu
p179
I1
sVd8och87
p180
I1
sVd1ggeu7
p181
I2
sVcyma6vm
p182
I1
sVd9lbgzy
p183
I1
sVdn61904
p184
I1
sVd67q31m
p185
I1
sVdas0k2c
p186
I1
sVdaskrf0
p187
I1
sVczcqlcw
p188
I2
sVd2qpd0z
p189
I1
sVd9nwcio
p190
I1
sVcz6gw5j
p191
I1
sVdaynk6w
p192
I1
sVddjmhse
p193
I1
sVdpbsn4e
p194
I1
sVdjml9v3
p195
I1
sVdc2d9u6
p196
I1
sVdn9l57x
p197
I1
sVdmxw87y
p198
I1
sVd8w1xo4
p199
I2
sVddspxwr
p200
I1
sVd6ermy1
p201
I1
sVd2j0y3u
p202
I1
sVd7pn3s1
p203
I1
sVdst885c
p204
I1
sVdg7zfxn
p205
I1
sVdhiapzz
p206
I1
sVdafjiul
p207
I1
sVdb36usc
p208
I1
sVcyo5vt9
p209
I1
sVdmodvy4
p210
I1
sVd26rz92
p211
I1
sVdj8ay4f
p212
I1
sVdt83uh8
p213
I1
sVd1qq7dv
p214
I1
sVd33zr8p
p215
I1
sVdna39ms
p216
I1
sVd9njkw3
p217
I1
sVdhfic1g
p218
I1
sVdggjj9k
p219
I1
sVdgb2azg
p220
I1
sVcz7ipgk
p221
I1
sVdc48wax
p222
I1
sVd6aj5w7
p223
I2
sVd8e0eix
p224
I1
sVdf8uduu
p225
I1
sVdgx0iz7
p226
I2
sVd5szr4l
p227
I1
sVdckv2lc
p228
I2
sVczpid02
p229
I1
sVdjf6dyc
p230
I1
sVdal37ah
p231
I2
sVd1vbeym
p232
I1
sVdny6h3q
p233
I1
sVd4iqqwq
p234
I1
sVcyiszge
p235
I1
sVd1jbw82
p236
I1
sVdhcdidb
p237
I2
sVd14d8ex
p238
I1
sVd19ionk
p239
I1
sVd16uidq
p240
I1
sVdj2gkie
p241
I1
sVdnet8vb
p242
I1
sVdjzpxpi
p243
I2
sVd9v8e5k
p244
I1
sVdebclwv
p245
I1
sVd4h38lh
p246
I1
sVd5wws8f
p247
I1
sVdfni5fu
p248
I1
sVdnad1je
p249
I1
sVd23t0bq
p250
I1
sVd2llma0
p251
I1
sVdoe7oh4
p252
I1
sVddmc36x
p253
I1
sVda00fa6
p254
I1
sVd0vrljy
p255
I1
sVcznvet6
p256
I3
sVd0pvkgm
p257
I1
sVd1o12ox
p258
I1
sVd2macaw
p259
I1
sVd6100i5
p260
I1
sVde50052
p261
I1
sVdsnkcjl
p262
I1
sVd1we6ug
p263
I2
sVdb2dfzo
p264
I1
sVczh2hvb
p265
I1
sVdkqr78n
p266
I2
sVd5bqiu5
p267
I2
sVd253myp
p268
I1
sVdisxxrp
p269
I1
sVdjrnjk7
p270
I2
sVdnwu2a6
p271
I1
sVcyjuo3p
p272
I1
sVdeo10n3
p273
I1
sVde5o58t
p274
I1
sVd1w0npj
p275
I1
sVd4ww99t
p276
I1
sVddxq3ep
p277
I1
sVd2uoo87
p278
I1
sVdsn7e73
p279
I1
sVczxse8o
p280
I1
sVdgewwii
p281
I1
sVdrsq922
p282
I1
sVdbrastb
p283
I1
sVd3bja4m
p284
I1
sVdbbgujr
p285
I1
sVddkn6cn
p286
I1
sVd0r2q8n
p287
I1
sVd85td3c
p288
I1
sVdfy7qo5
p289
I1
sVd3dm9nd
p290
I2
sVdg45u18
p291
I1
sVdf85roy
p292
I1
sVdjdaaqj
p293
I1
sVd7ri2yp
p294
I1
sVcyo740v
p295
I1
sVdjeeysq
p296
I1
sVdk7k3ie
p297
I1
sVdidenfg
p298
I1
sVd1bz0a0
p299
I1
sVd6q8uzm
p300
I1
sVdi5n9sz
p301
I1
sVdhbgisd
p302
I1
sVdc4ezua
p303
I1
sVd1p2kwl
p304
I1
sVdox1fjh
p305
I1
sVdja6r08
p306
I1
sVd9p588m
p307
I1
sVdh2ic91
p308
I1
sVdrrwtzz
p309
I1
sVdekvz92
p310
I1
sVd2wd506
p311
I1
sVdavgewm
p312
I1
sVcz4z76g
p313
I1
sVdrn31rv
p314
I1
sVd8hfddm
p315
I1
sVda49ih8
p316
I1
sVdf7rps7
p317
I1
sVd01u43w
p318
I1
sVdjt4hp5
p319
I1
sVdjsgn9p
p320
I1
sVdau6upg
p321
I1
sVdh9fjmc
p322
I1
sVd2eke0x
p323
I1
sVd2q7rgq
p324
I1
sVdcp8hdo
p325
I1
sVdr1pedb
p326
I1
sVdb0xyt7
p327
I1
sVdfm49y3
p328
I1
sVdk0e9vp
p329
I1
sVd4nwrgw
p330
I1
sVd2q9bic
p331
I1
sVd8ewfxn
p332
I1
sVd2500ht
p333
I1
sVd8onl2j
p334
I1
sVdhlsn3c
p335
I1
sVdesb314
p336
I1
sVd16t1v1
p337
I1
sVdaz3ajl
p338
I1
sVdo2ram5
p339
I1
sVdayppfs
p340
I1
sVcymnd8i
p341
I1
sVd7zr2v7
p342
I1
sVd29sxqh
p343
I1
sVd3zhfum
p344
I1
sVd07x37x
p345
I1
sVd05o9qh
p346
I1
sVdh9qxu1
p347
I1
sVdkczlzf
p348
I1
sVdmhs35j
p349
I1
sVdj21djn
p350
I1
sVcz9h5ld
p351
I1
sVd5bdyku
p352
I1
sVd7g7opj
p353
I1
sVdid6z81
p354
I1
sVdbmuaij
p355
I1
sVd5ui9uf
p356
I2
sVde68a96
p357
I1
sVcyldgzm
p358
I1
sVd4ftgxp
p359
I1
sVd2t1dfw
p360
I1
sVddjd1pp
p361
I1
sVdb1cmow
p362
I3
sVdd076xa
p363
I1
sVd3oaue8
p364
I1
sVdb2wkfk
p365
I1
sVdeqcwt3
p366
I1
sVdakfgho
p367
I2
sVd05cq3m
p368
I1
sVdihh2d1
p369
I1
sVdjsepts
p370
I1
sVd0wo5y2
p371
I1
sVd0z2mo4
p372
I2
sVdb2u2p9
p373
I1
sVd3r47us
p374
I1
sVd3zlbu4
p375
I1
sVd27g4px
p376
I1
sVdbak74p
p377
I1
sVddwjotv
p378
I1
sVcyindf0
p379
I1
sVdad0nkp
p380
I1
sVdf1ybd9
p381
I2
sVdephk0v
p382
I1
sVdd3p7kz
p383
I1
sVd9lg8vk
p384
I1
sVdjzxxka
p385
I1
sVd7lwxnx
p386
I1
sVd4x0owf
p387
I1
sVdcw9w67
p388
I1
sVdhzzmfm
p389
I1
sVd6i799y
p390
I1
sVd47lnfg
p391
I1
sVdemtzju
p392
I1
sVdcteu4j
p393
I1
sVd9l51hz
p394
I1
sVd7ebuh1
p395
I1
sVd50wdzs
p396
I2
sVd5avcir
p397
I1
sVd1ghp9j
p398
I2
sVdif0qbq
p399
I1
sVdnypd6x
p400
I1
sVdsqztei
p401
I1
sVczc55r9
p402
I1
sVdoilyk6
p403
I1
sVdiy4t07
p404
I1
sVdb26m94
p405
I1
sVdht4xls
p406
I1
sVd86twhu
p407
I1
sVcyoa3j4
p408
I1
sVd28zvkp
p409
I1
sVd3dsfvb
p410
I1
sVczmvs16
p411
I1
sVd31hq5m
p412
I1
sVdjnn34w
p413
I1
sVd1vpfg1
p414
I1
sVd0iq03a
p415
I1
sVdrqeos3
p416
I1
sVdaf62tu
p417
I1
sVdel689v
p418
I1
sVdfvu9fb
p419
I1
sVdicz271
p420
I1
sVdisp4ot
p421
I1
sVdfvuz9k
p422
I1
sVd10ugrz
p423
I1
sVd34oqmw
p424
I1
sVcztdt6t
p425
I1
sVdfwwqba
p426
I1
sVdk2o7pd
p427
I2
sVdjnao7a
p428
I1
sVdo0j87a
p429
I1
sVd6b01kv
p430
I1
sVddpxy3f
p431
I1
sVdbsou8f
p432
I1
sVdi8yp2d
p433
I1
sVdt7puqm
p434
I2
sVdqfpzcu
p435
I1
sVdg176nx
p436
I1
sVds4z8xb
p437
I1
sVd30vx9n
p438
I1
sVd7s2rx5
p439
I1
sVd34qohp
p440
I1
sVd01fge5
p441
I1
sVdsv2uhg
p442
I1
sVd55d5zh
p443
I1
sVdrp2xwv
p444
I1
sVdga9ulg
p445
I1
sVd1tp7zc
p446
I1
sVdrxgsgr
p447
I1
sVde3i81o
p448
I1
sVdbh7gjv
p449
I2
sVdmvd4az
p450
I1
sVddt6fob
p451
I1
sVdd4au66
p452
I1
sVd596jbi
p453
I3
sVd3hiatk
p454
I1
sVd5zwswe
p455
I1
sVdimlixo
p456
I1
sVd1k6dch
p457
I1
sVd3mtrkv
p458
I1
sVd2uw1h0
p459
I1
sVddhj4t5
p460
I1
sVdb4qx7y
p461
I1
sVd7nxo8d
p462
I1
sVdcqd0wn
p463
I1
sVdd6eytb
p464
I1
sVdjk22gk
p465
I1
sVd491otx
p466
I1
sVd2f16ox
p467
I2
sVd0oj0tt
p468
I1
sVdackz3c
p469
I1
sVdqqqbcy
p470
I1
sVd6w6bno
p471
I1
sVczeh5pb
p472
I1
sVczi1ewu
p473
I1
sVd4xusej
p474
I1
sVcyzho28
p475
I1
sVd5wuc06
p476
I1
sVczunlpw
p477
I1
sVdk531uu
p478
I1
sVdg7zjj5
p479
I1
sVd6lh4a0
p480
I1
sVd8dd7ne
p481
I1
sVdaom7j9
p482
I1
sVd1gj8ag
p483
I1
sVd6zb7bj
p484
I1
sVdiaeibx
p485
I1
sVdd9inx0
p486
I1
sVd75xusn
p487
I1
sVdkidfqj
p488
I1
sVcz5caco
p489
I1
sVd3uvhp3
p490
I2
sVdh92gzp
p491
I2
sVd4x573m
p492
I1
sVdip726q
p493
I1
sVd91hqbs
p494
I1
sVd36l6g8
p495
I1
sVdf7oths
p496
I1
sVdfkjnb1
p497
I1
sVdiu9bpo
p498
I1
sVd95tz8s
p499
I1
sVd32s9ej
p500
I1
sVd1btz86
p501
I1
sVd07hxsj
p502
I1
sVdc14zt1
p503
I1
sVd058elj
p504
I1
sVdbewzk1
p505
I1
sVd251lcp
p506
I1
sVddepdff
p507
I1
sVde7jf4o
p508
I1
sVdaizkr2
p509
I1
sVd4kzw4f
p510
I1
sVd4rb5iu
p511
I1
sVd0d1099
p512
I1
sVdetweax
p513
I1
sVd2dtsm5
p514
I1
sVd8416jc
p515
I1
sVd8vtm5k
p516
I1
sVd4mm2b4
p517
I1
sVd5xms21
p518
I2
sVdcz5q6t
p519
I1
sVdeuesk9
p520
I1
sVd5vrucq
p521
I1
sVdka04io
p522
I1
sVd1uyi6l
p523
I1
sVdekwuhi
p524
I1
sVd51vura
p525
I5
sVd92fgxc
p526
I1
sVczhdw5t
p527
I1
sVdh3yy6a
p528
I1
sVdro2qpl
p529
I1
sVd5op49m
p530
I1
sVczkymp5
p531
I1
sVdbj9lrt
p532
I1
sVd1nqqdk
p533
I1
sVda7erwk
p534
I1
sVd2naxia
p535
I2
sVd2vj3u6
p536
I1
sVd96suy1
p537
I2
sVd3dw85y
p538
I1
sVdrybezj
p539
I1
sVcz75x49
p540
I2
sVdcnr0rd
p541
I1
sVdepstpt
p542
I1
sVdb6wk7g
p543
I1
sVcz10iln
p544
I1
sVd4xigd2
p545
I1
sVd135p02
p546
I1
sVdhfexe6
p547
I1
sVd1nt877
p548
I1
sVd9zxus7
p549
I1
sVdjaspi4
p550
I1
sVdhzz77d
p551
I1
sVdgkksk4
p552
I1
sVdpa35x3
p553
I1
sVdjlo70d
p554
I1
sVd3vhhl9
p555
I1
sVdemh58o
p556
I2
sVdngcpy8
p557
I1
sVd1c34eh
p558
I1
sVd4p1fcm
p559
I1
sVdkf40jm
p560
I1
sVdscjslp
p561
I1
sVd1kzqgo
p562
I1
sVdmmlrbj
p563
I1
sVdf3bnbi
p564
I1
sVd30yc0f
p565
I2
sVczzw1l2
p566
I1
sVdkgtt06
p567
I1
sVdj30gk7
p568
I1
sVdqsvgvn
p569
I1
sVddoosoi
p570
I1
sVdf0wp9g
p571
I1
sVdg3qngj
p572
I1
sVdjdl3gs
p573
I1
sVdb5gi0v
p574
I1
sVd2ccu5p
p575
I1
sVdbxxxqq
p576
I1
sVdq2ulsm
p577
I1
sVd0bbwyu
p578
I1
sVdsj14ln
p579
I1
sVczynuc4
p580
I1
sVd25yjh5
p581
I1
sVd3577j9
p582
I1
sVd9qfozg
p583
I1
sVdcpxnua
p584
I1
sVdettdz6
p585
I1
sVda1jr2v
p586
I1
sVdnhkruc
p587
I2
sVdfjfljj
p588
I1
sVd8tg335
p589
I1
sVdf1vi8m
p590
I1
sVdc0zyy1
p591
I1
sVd0unwml
p592
I1
sVd9no2bs
p593
I1
sVczzlqa3
p594
I1
sVd3lr6op
p595
I1
sVdiszoqu
p596
I1
sVczgv1nx
p597
I1
sVdt9lipi
p598
I1
sVdnaes2a
p599
I1
sVdf3cjty
p600
I1
sVd57hksc
p601
I1
sVdk5lhen
p602
I1
sVdb1qwim
p603
I1
sVdms8aqp
p604
I1
sVd8fwpi7
p605
I1
sVd1uyp3h
p606
I1
sVczgkhbd
p607
I1
sVdb777r9
p608
I1
sVdjc9gk1
p609
I2
sVd3vhg05
p610
I1
sVczd6unb
p611
I1
sVdqgk4bb
p612
I1
sVd0kx8ge
p613
I1
sVdko4gao
p614
I1
sVczgz4bw
p615
I1
sVd4w07vx
p616
I1
sVdaisj4l
p617
I1
sVd1e1wu1
p618
I1
sVdiphsf1
p619
I1
sVddigb0k
p620
I1
sVdt3bn0m
p621
I1
sVd53s5yj
p622
I1
sVdaftdl0
p623
I1
sVd01sh3i
p624
I1
sVd895sce
p625
I1
sVdce28iv
p626
I2
sVd6pepm8
p627
I1
sVd7a66jv
p628
I1
sVd358ptn
p629
I1
sVdamxwnb
p630
I1
sVdqzoi8v
p631
I1
sVdr6po47
p632
I3
sVdjntq9u
p633
I1
sVd7njba5
p634
I1
sVd7nnxan
p635
I1
sVdqkgewa
p636
I1
sVdgibr46
p637
I1
sVd2ozyji
p638
I1
sVdc8ogpa
p639
I2
sVdjqzqzp
p640
I1
sVd5a01lj
p641
I1
sVd1e1oxx
p642
I1
sVczxw20w
p643
I1
sVdavbnpm
p644
I1
sVd9ms2zp
p645
I2
sVczgvqpi
p646
I1
sVdel0o4m
p647
I1
sVda2z94b
p648
I1
sVd41ioq0
p649
I1
sVd75v1cw
p650
I1
sVdhik4qk
p651
I1
sVdda9r3h
p652
I1
sVdnls7bz
p653
I1
sVd76v46k
p654
I1
sVdrzunsq
p655
I1
sVdhcje1v
p656
I1
sVd3ds23c
p657
I1
sVdcviv12
p658
I1
sVcyo1dxq
p659
I1
sVczinn08
p660
I2
sVdca29g8
p661
I1
sVdjofyas
p662
I1
sVcz1ofn2
p663
I1
sVdaock31
p664
I1
sVd4dgae2
p665
I1
sVd459c9b
p666
I1
sVd8a4lkn
p667
I1
sVdrc5okx
p668
I1
sVdai99h6
p669
I1
sVdq1bkre
p670
I1
sVcz5e4in
p671
I1
sVdnv83r0
p672
I1
sVdeuxqjw
p673
I1
sVdfoka3g
p674
I1
sVdkkj3vm
p675
I1
sVd3gzpum
p676
I2
sVdf92zms
p677
I1
sVdg19nfv
p678
I1
sVd0rd37w
p679
I1
sVd166bkn
p680
I1
sVdnm2yk8
p681
I1
sVd622vw4
p682
I1
sVd6cjxb9
p683
I1
sVd972ugp
p684
I1
sVdmoei1c
p685
I1
sVd8np7q6
p686
I1
sVcymjean
p687
I1
sVcz8c5vq
p688
I1
sVdfgwyw8
p689
I1
sVdf9lnqm
p690
I1
sVd138vvw
p691
I1
sVczy1h5y
p692
I1
sVddu4i7a
p693
I1
sVd8pugy3
p694
I1
sVd82u9lq
p695
I3
sVdmyagzb
p696
I1
sVdc495af
p697
I1
sVdelkkrn
p698
I1
sVd248gbj
p699
I1
sVdoixtb0
p700
I1
sVddwg3ea
p701
I1
sVd1qqyk4
p702
I1
sVd3qtgtw
p703
I2
sVd08scrc
p704
I1
sVd4vp1kp
p705
I1
sVcywtvoq
p706
I1
sVd77yhch
p707
I1
sVd69f3ab
p708
I1
sVdndud4g
p709
I1
sVdn649b0
p710
I1
sVd2n2tvo
p711
I1
sVd54f8hp
p712
I1
sVdfyj6lu
p713
I1
sVdh4fpk9
p714
I1
sVdab8m1n
p715
I1
sVdg4vg77
p716
I1
sVd26w4q1
p717
I1
sVdncqmty
p718
I1
sVde1yf3n
p719
I2
sVdob2e1w
p720
I1
sVd0vssj7
p721
I1
sVczoo6e9
p722
I1
sVdizn33c
p723
I1
sVdaxjuw7
p724
I2
sVdbkby42
p725
I1
sVdfyw0yw
p726
I1
sVdkvjmo5
p727
I1
sVdak8iix
p728
I1
sVd2mn3kw
p729
I1
sVdiwfesw
p730
I1
sVdc6xu46
p731
I1
sVdoaa8vf
p732
I1
sVddcj3tc
p733
I1
sVd7jyn9y
p734
I1
sVdcq7e31
p735
I1
sVdd6t358
p736
I1
sVdtex2n8
p737
I3
sVczkwma1
p738
I1
sVd20iotc
p739
I1
sVdg05kmk
p740
I1
sVdc84fce
p741
I1
sVdav5ru8
p742
I1
sVdckkg1z
p743
I1
sVd3hj6wg
p744
I1
sVdg7xt3u
p745
I1
sVdkupstv
p746
I1
sVd5or3j5
p747
I1
sVd3re521
p748
I1
sVdc46skx
p749
I2
sVdf1rgqm
p750
I1
sVdcf8jhj
p751
I1
sVdf1frq2
p752
I1
sVdk0nwgy
p753
I6
sVdnw7gl1
p754
I1
sVd1btvwc
p755
I1
sVdakid43
p756
I1
sVdfv2one
p757
I1
sVd95mk56
p758
I1
sVdih96jp
p759
I1
sVd9f9lok
p760
I1
sVdfu0c52
p761
I1
sVd96asoq
p762
I1
sVdf1wfxv
p763
I1
sVd22x1ar
p764
I1
sVdfhegps
p765
I1
sVd3b7eul
p766
I1
sVdn8ss8o
p767
I1
sVd9yzxy0
p768
I1
sVdjupe67
p769
I1
sVdgh10u6
p770
I1
sVdcg60oa
p771
I1
sVddy9rrz
p772
I1
sVdjykx19
p773
I1
sVcykbbol
p774
I1
sVd8ss807
p775
I1
sVdd3o6p8
p776
I1
sVdbr67pt
p777
I1
sVdkujkba
p778
I1
sVd2ggy4s
p779
I1
sVdelh0xo
p780
I1
sVdkwsico
p781
I1
sVdr5t5ev
p782
I1
sVdkjybqp
p783
I1
sVd7y3jus
p784
I1
sVd8sillj
p785
I1
sVdj0trqz
p786
I1
sVd1isz05
p787
I1
sVd24vw66
p788
I1
sVdqaxovu
p789
I1
sVd1fshql
p790
I1
sVdpkbu9g
p791
I1
sVd04vm1g
p792
I1
sVcz0zbfr
p793
I1
sVd98vhez
p794
I1
sVczjs6vq
p795
I1
sVddo1jka
p796
I1
sVdh6847h
p797
I2
sVdeqay5w
p798
I1
sVdk003yz
p799
I2
sVczao4of
p800
I1
sVd24wuv1
p801
I1
sVd2q7kuj
p802
I1
sVdo9iajs
p803
I1
sVddk6g76
p804
I2
sVdak7po4
p805
I1
sVdmvljlj
p806
I1
sVd0gl7o7
p807
I1
sVdh5k96y
p808
I1
sVd48ilgi
p809
I1
sVd0i4lgd
p810
I1
sVdao6n0n
p811
I2
sVdj5vi4n
p812
I1
sVcyxcrcx
p813
I1
sVczvp8me
p814
I2
sVddcpax6
p815
I1
sVcyiotje
p816
I1
sVd6dsbru
p817
I1
sVczthunr
p818
I1
sVdhawabx
p819
I2
sVddrscoe
p820
I1
sVd4vxsa1
p821
I1
sVd2drmdf
p822
I1
sVda3lpd3
p823
I1
sVd89nfo2
p824
I1
sVd0nbyu6
p825
I1
sVd3qa7wb
p826
I1
sVd2n6u5b
p827
I1
sVdfjpv54
p828
I1
sVda33n3r
p829
I2
sVd9xrvp0
p830
I1
sVd1beppc
p831
I1
sVdaqfkkb
p832
I1
sVde1jxbf
p833
I1
sVdowxfi8
p834
I1
sVdpkcbtv
p835
I1
sVdfm6ila
p836
I1
sVd4jyk5h
p837
I1
sVdddvs2l
p838
I1
sVdajw94d
p839
I1
sVdn1q8yh
p840
I2
sVdn0yv8d
p841
I2
sVdcekrls
p842
I1
sVdjr3nta
p843
I1
sVdhdj0bl
p844
I1
sVd157mq8
p845
I1
sVdfvs8ex
p846
I1
sVdpjjtpr
p847
I1
sVdkvis8a
p848
I1
sVdhzydib
p849
I1
sVdi86puv
p850
I2
sVdbkxkmd
p851
I1
sVdms3j9q
p852
I1
sVd6z9f4h
p853
I1
sVdgcjte6
p854
I1
sVdmfnqtq
p855
I1
sVda72mau
p856
I1
sVd3ui348
p857
I1
sVdb2ojfb
p858
I1
sVd04mnfe
p859
I1
sVd07eo3f
p860
I1
sVd9d6lr4
p861
I1
sVd1ct1ly
p862
I1
sVd6pub9g
p863
I1
sVdcg4hz2
p864
I1
sVd0t6024
p865
I1
sVd8xdg3m
p866
I1
sVdhhq1n2
p867
I2
sVdhz6uo9
p868
I1
sVdphuueg
p869
I1
sVd73tzsf
p870
I1
sVd498l6r
p871
I2
sVdaqg7bh
p872
I2
sVdk3z9bn
p873
I1
sVczvpjh1
p874
I1
sVd4v7t8h
p875
I1
sVdawnghw
p876
I1
sVd3j50uv
p877
I1
sVdn62n46
p878
I1
sVd0z3jlc
p879
I1
sVcyses9o
p880
I1
sVde4ebmj
p881
I1
sVdaylrem
p882
I1
sVd26328p
p883
I1
sVdcdkn5h
p884
I1
sVdhreb3n
p885
I1
sVd5y3p7n
p886
I1
sVdpaempm
p887
I1
sVdhay75y
p888
I1
sVdgdnd4m
p889
I1
sVdrm57bh
p890
I1
sVd627y9w
p891
I1
sVd2aeauq
p892
I1
sVcype3pz
p893
I2
sVd1bj6ic
p894
I1
sVdn8ddtx
p895
I1
sVd6qefiy
p896
I1
sVd1dc6tk
p897
I1
sVd01nmce
p898
I1
sVdn6mj8s
p899
I1
sVd8iy1v5
p900
I1
sVd10m8ut
p901
I1
sVd5a1rl4
p902
I1
sVdrzutgw
p903
I1
sVd4pg9mo
p904
I1
sVd24z7uc
p905
I1
sVdgqq7ox
p906
I1
sVdda1qfx
p907
I2
sVcyisof1
p908
I1
sVdowdlx9
p909
I1
sVdrzl3hu
p910
I1
sVd7nfo5c
p911
I1
sVdnx72db
p912
I1
sVdfcojzi
p913
I1
sVddyg9ok
p914
I1
sVdcb7b7c
p915
I1
sVd6t9tad
p916
I2
sVdeugrj8
p917
I1
sVdi7cgj7
p918
I1
sVdhfz5wo
p919
I1
sVd7tfb8z
p920
I1
sVdkqfa2l
p921
I1
sVdcu84y0
p922
I1
sVd03xugx
p923
I1
sVczav3zi
p924
I2
sVd1jmc1k
p925
I1
sVd0kvwox
p926
I1
sVdpb67yc
p927
I1
sVdf1wfd3
p928
I1
sVcyzmjop
p929
I1
sVd9p871j
p930
I1
sVd2vid8c
p931
I1
sVd6pxeq7
p932
I1
sVdfxkkqm
p933
I1
sVd366lly
p934
I1
sVdbmrjca
p935
I2
sVdcet1jb
p936
I1
sVdh9v99d
p937
I1
sVd8pejco
p938
I1
sVdetx6f3
p939
I1
sVd1hh05k
p940
I1
sVd50ahz9
p941
I1
sVdtihnia
p942
I1
sVd6maw90
p943
I1
sVdf4fvs0
p944
I1
sVdrf3kd0
p945
I1
sVdgggz6c
p946
I1
sVdf6yr3z
p947
I1
sVdbmy2ss
p948
I1
sVdd6fzao
p949
I1
sVd96cnfd
p950
I1
sVd0m2lka
p951
I1
sVdppsjns
p952
I1
sVdf1w2ud
p953
I1
sVd89o6ws
p954
I1
sVdiht4kh
p955
I1
sVcyw2v55
p956
I1
sVd90bkn4
p957
I2
sVda9hqtg
p958
I1
sVdha8ih0
p959
I1
sVdfk5979
p960
I1
sVczsvcym
p961
I1
sVcyyykub
p962
I1
sVd0cssym
p963
I1
sVdisn8qf
p964
I1
sVd9y6hms
p965
I1
sVdhj79jf
p966
I1
sVd7brfdm
p967
I1
sVdikruut
p968
I1
sVczpr8rj
p969
I1
sVddwht56
p970
I1
sVdif5qvl
p971
I1
sVdge3fzg
p972
I1
sVd2ww4pp
p973
I1
sVdb1fg61
p974
I1
sVd2v4pi4
p975
I1
sVdeu7ops
p976
I3
sVdaa61d4
p977
I1
sVdmmrr8b
p978
I2
sVd5gr9ay
p979
I1
sVczqik7u
p980
I1
sVdbowcim
p981
I1
sVd4rbrwk
p982
I1
sVdncwcj2
p983
I2
sVdhgo524
p984
I3
sVdg1nx14
p985
I1
sVddh7xs2
p986
I1
sVdbk97ds
p987
I1
sVdka1ir0
p988
I1
sVdfapny1
p989
I1
sVddwnf3c
p990
I1
sVd9r2s9o
p991
I1
sVddb5dx2
p992
I1
sVda8lvr7
p993
I1
sVdgjaomc
p994
I1
sVcyjxbfv
p995
I1
sVddn3ts1
p996
I2
sVdflea5q
p997
I1
sVd1i1hsw
p998
I1
sVdaanl2e
p999
I1
sVd2x0663
p1000
I1
sVdar3why
p1001
I1
sVdmhwk5y
p1002
I1
sVd0hxgv5
p1003
I1
sVd8c62cy
p1004
I1
sVcztyv33
p1005
I1
sVczi75oy
p1006
I1
sVd6ivth3
p1007
I1
sVddw30de
p1008
I2
sVcypi1zq
p1009
I2
sVdhlufxd
p1010
I1
sVdflcy7m
p1011
I1
sVd72t9he
p1012
I1
sVd5hu1mb
p1013
I1
sVd2zlqzl
p1014
I1
sVdknf79m
p1015
I1
sVdbaq9kk
p1016
I3
sVd8wdpux
p1017
I1
sVdq4cevy
p1018
I1
sVd17fqmf
p1019
I1
sVd67t7a5
p1020
I1
sVdiqxf65
p1021
I1
sVd8se8gc
p1022
I1
sVcz0al0v
p1023
I1
sVdirlqv1
p1024
I1
sVd9jpxhw
p1025
I1
sVd87f2p0
p1026
I1
sVdpwvirt
p1027
I1
sVdcij1y0
p1028
I1
sVd21kux0
p1029
I1
sVdpu9i59
p1030
I1
sVd1bhmd3
p1031
I1
sVd49j7s0
p1032
I1
sVdkbber7
p1033
I1
sVdcvkk4p
p1034
I1
sVdota51s
p1035
I1
sVdsv34u4
p1036
I1
sVdt4avz3
p1037
I1
sVczoyxlo
p1038
I1
sVczh1oie
p1039
I1
sVd6f5qu5
p1040
I1
sVdphszpk
p1041
I1
sVddstjq5
p1042
I2
sVdgkpdor
p1043
I1
sVdfeeepi
p1044
I1
sVddyz0lp
p1045
I1
sVdtbradd
p1046
I3
sVdesl6ow
p1047
I1
sVdewpkww
p1048
I1
sVdbjciq2
p1049
I1
sVcz77njc
p1050
I1
sVd9e2qhn
p1051
I2
sVd954nhe
p1052
I1
sVdkkexun
p1053
I1
sVdbes3rl
p1054
I1
sVdjv3kfy
p1055
I4
sVcyiisan
p1056
I1
sVdfzn5lo
p1057
I1
sVd2epei2
p1058
I1
sVd5vpnyk
p1059
I1
sVd2ei6nj
p1060
I1
sVd19cr5s
p1061
I1
sVdjlorpt
p1062
I1
sVd49gega
p1063
I2
sVdgx0hm1
p1064
I1
sVd2p2xqm
p1065
I1
sVcymn7mj
p1066
I4
sVdo2mymh
p1067
I1
sVdnyy0km
p1068
I1
sVcywiupm
p1069
I1
sVcz5uni3
p1070
I1
sVd8f38bz
p1071
I1
sVd4i08gz
p1072
I1
sVd1bfmp3
p1073
I1
sVddvqpw8
p1074
I1
sVd3bjtd6
p1075
I1
sVcyr0v2x
p1076
I1
sVd56fhft
p1077
I1
sVdsw0ox5
p1078
I1
sVd1x682d
p1079
I1
sVdj4wtxv
p1080
I1
sVdkhu91x
p1081
I1
sVdfu8ulm
p1082
I1
sVdekwpgc
p1083
I1
sVdndwtro
p1084
I1
sVd5nz1dr
p1085
I1
sVdelz11x
p1086
I1
sVd0s88qb
p1087
I1
sVdd6x24m
p1088
I1
sVdd8aptc
p1089
I1
sVdsftr11
p1090
I1
sVdmslvw2
p1091
I1
sVdgcw3pf
p1092
I1
sVdicv7k5
p1093
I1
sVd3i40sm
p1094
I2
sVd16u4pc
p1095
I1
sVdin5vhu
p1096
I1
sVdetuccn
p1097
I1
sVdf8r2zs
p1098
I1
sVdc4zn7u
p1099
I1
sVd7ke6h3
p1100
I1
sVdhi21nm
p1101
I1
sVdj42p0x
p1102
I1
sVda7pe2t
p1103
I1
sVddgq7nz
p1104
I1
sVcyktywf
p1105
I1
sVdfnlkhg
p1106
I1
sVczs00zz
p1107
I1
sVdfvfaql
p1108
I1
sVdhas6l5
p1109
I1
sVdbpe9ev
p1110
I1
sVd3yaopy
p1111
I1
sVd3pl5fn
p1112
I1
sVdf0e5a0
p1113
I1
sVdbp6ejw
p1114
I1
sVde3htli
p1115
I1
sVd5fxil8
p1116
I1
sVd7ukto3
p1117
I3
sVd3g0qfc
p1118
I1
sVdi9swsh
p1119
I1
sVdtfoq2l
p1120
I1
sVdmwwqlt
p1121
I1
sVderv9j9
p1122
I1
sVdh4ihaq
p1123
I1
sVdf934fl
p1124
I1
sVddmz1xy
p1125
I2
sVd5elmy2
p1126
I1
sVdhb4s85
p1127
I1
sVdghaniu
p1128
I1
sVdff2uvp
p1129
I1
sVczjyymv
p1130
I1
sVdaqucaz
p1131
I1
sVdio4r0x
p1132
I1
sVd3nzy1m
p1133
I1
sVd9tnk9h
p1134
I2
sVd57jd2p
p1135
I1
sVdhpiu23
p1136
I1
sVcyqex2p
p1137
I2
sVdndekuu
p1138
I1
sVdjk5bki
p1139
I1
sVdide57z
p1140
I1
sVdexqnd1
p1141
I1
sVczm67qc
p1142
I1
sVd650988
p1143
I1
sVd2qbhsh
p1144
I1
sVdibv8al
p1145
I1
sVder4h45
p1146
I1
sVd47mdn5
p1147
I1
sVcyv6g1r
p1148
I1
sVdckz8en
p1149
I1
sVd2rk02t
p1150
I1
sVd9jwzif
p1151
I1
sVcyncmwb
p1152
I1
sVdgm9n4z
p1153
I3
sVczgpymc
p1154
I1
sVdhsge60
p1155
I1
sVd46ea9s
p1156
I1
sVda7ntvg
p1157
I1
sVd1q8gg6
p1158
I1
sVczz02h9
p1159
I1
sVdimtryd
p1160
I1
sVddk5v21
p1161
I1
sVds5ty7h
p1162
I1
sVd4yhjuw
p1163
I1
sVdbslqjk
p1164
I1
sVddjqur1
p1165
I1
sVdi4yweo
p1166
I1
sVdfaihgs
p1167
I1
sVcyom77h
p1168
I1
sVdcu0dx9
p1169
I2
sVda5f040
p1170
I1
sVczjcllu
p1171
I1
sVdtbwgc5
p1172
I1
sVd1w51ji
p1173
I1
sVd9tssbq
p1174
I1
sVd7332xh
p1175
I1
sVdj0aw1w
p1176
I1
sVd2uix4i
p1177
I1
sVd628xbq
p1178
I1
sVdi8y1vv
p1179
I1
sVd9plf18
p1180
I1
sVdpp2hkf
p1181
I1
s.