(dp0
Vd12gh73
p1
I1
sVdbjhbh1
p2
I1
sVdqd9e15
p3
I2
sVdbn00q9
p4
I4
sVds4x3ad
p5
I1
sVdq6ya4t
p6
I1
sVdimapc1
p7
I8
sVdo01npc
p8
I4
sVdcmwxmp
p9
I1
sVd4h2lho
p10
I2
sVd8anq99
p11
I1
sVdbd8fwr
p12
I1
sVddjhq6c
p13
I2
sVd454ni1
p14
I1
sVdjnxnk5
p15
I3
sVdjlxphw
p16
I1
sVcz1017s
p17
I4
sVd15i0q7
p18
I1
sVd16s7ba
p19
I1
sVd38hgnk
p20
I4
sVd1d4i13
p21
I2
sVd7xh0fv
p22
I1
sVdnwigwt
p23
I1
sVddqs4b9
p24
I1
sVd9a1kso
p25
I1
sVdfs571v
p26
I2
sVdfsj4x8
p27
I2
sVdjmpyiw
p28
I1
sVdbn20l0
p29
I3
sVdtg2afr
p30
I2
sVdiey5dn
p31
I4
sVdj2lvk8
p32
I1
sVdazv7jo
p33
I2
sVddg237k
p34
I1
sVd13gc2w
p35
I1
sVdiiimt7
p36
I1
sVcz9udnp
p37
I1
sVd885se2
p38
I1
sVdakinwj
p39
I1
sVd4lc7aq
p40
I2
sVd386n7p
p41
I1
sVdhx0zuh
p42
I1
sVd48s0t9
p43
I2
sVdkdwvgx
p44
I2
sVdqcuwhu
p45
I1
sVdmwxypl
p46
I1
sVdetmka6
p47
I1
sVdebltlf
p48
I2
sVdgibjlw
p49
I2
sVdqu93qe
p50
I2
sVdfle53w
p51
I1
sVd0pypxb
p52
I1
sVd1hc709
p53
I1
sVd09a6y9
p54
I1
sVdk620kz
p55
I1
sVdbwz7c8
p56
I1
sVd070cqu
p57
I4
sVdt6cgpp
p58
I1
sVdquckid
p59
I1
sVdfzzewq
p60
I1
sVdnp7i6c
p61
I1
sVdjpt9db
p62
I1
sVdft5mu5
p63
I1
sVcyzfcja
p64
I1
sVdnmao8p
p65
I3
sVdrtpbpl
p66
I1
sVdpnomqy
p67
I2
sVd2qqpot
p68
I7
sVdtfrsn8
p69
I2
sVdeuwndi
p70
I2
sVd2cqgxk
p71
I3
sVdkkjbh4
p72
I1
sVd9p9ius
p73
I3
sVdi8t216
p74
I2
sVdh4btwp
p75
I2
sVdns54j6
p76
I2
sVdec07k5
p77
I3
sVd1fd1k3
p78
I2
sVd6o5tcv
p79
I1
sVdj0uj9t
p80
I1
sVd7d1l8n
p81
I1
sVdjtkiog
p82
I1
sVdelxx8f
p83
I1
sVdalagq4
p84
I1
sVcyxdux6
p85
I3
sVd9ejcy9
p86
I1
sVdfezuo4
p87
I1
sVdqdcvtt
p88
I2
sVda51gwp
p89
I1
sVdta5i3t
p90
I1
sVd93ywjx
p91
I1
sVdhh7h0s
p92
I1
sVdbyqob4
p93
I2
sVdozcvf9
p94
I1
sVddjgacm
p95
I1
sVdoh4ivf
p96
I1
sVdtg4tp8
p97
I1
sVd15vy8n
p98
I1
sVdibchvn
p99
I1
sVdr8wdrj
p100
I1
sVdca2b37
p101
I2
sVdhdrnnv
p102
I2
sVdc6wdmh
p103
I1
sVd3wnv7g
p104
I2
sVd4sahwl
p105
I1
sVd2utwbr
p106
I2
sVdj18wh0
p107
I1
sVdf94tex
p108
I3
sVd3he9uu
p109
I1
sVdntjx3g
p110
I1
sVdmvvqmx
p111
I1
sVdrd4xm1
p112
I1
sVdj0897v
p113
I1
sVd3845uc
p114
I1
sVdbn194l
p115
I2
sVdeor5vu
p116
I1
sVd5bf4hs
p117
I2
sVd0kemup
p118
I1
sVdkrb0om
p119
I1
sVdb682w9
p120
I1
sVdda71sx
p121
I1
sVd1zaurw
p122
I1
sVd7z9hjs
p123
I2
sVdeu0ipj
p124
I2
sVdqza5tc
p125
I1
sVd700sgo
p126
I1
sVdc8wn2c
p127
I1
sVdecc2in
p128
I1
sVdb6s4ep
p129
I1
sVd0tqnjv
p130
I1
sVdgjdni1
p131
I1
sVdd516j5
p132
I1
sVdag04t7
p133
I1
sVdpp8w9u
p134
I2
sVddtqyb5
p135
I1
sVdqm9emk
p136
I1
sVcyk8fp7
p137
I3
sVdf62smp
p138
I2
sVd2fmhbl
p139
I1
sVd96p2ur
p140
I2
sVdnmlqom
p141
I4
sVd0g3ig1
p142
I1
sVd85ed4u
p143
I12
sVd30lsic
p144
I2
sVd6syqis
p145
I3
sVd7uzwbm
p146
I1
sVdb25v3r
p147
I1
sVd4mrw8f
p148
I1
sVd3o92eh
p149
I1
sVd49lui9
p150
I1
sVdb7cx5i
p151
I1
sVdq37jnr
p152
I2
sVdh5j5tw
p153
I5
sVdtbfffw
p154
I2
sVczzeff2
p155
I1
sVd9a407i
p156
I1
sVddsnbcw
p157
I1
sVdgxt94o
p158
I2
sVds4cgob
p159
I3
sVdgj0h1f
p160
I2
sVdebr0ep
p161
I1
sVdait42b
p162
I1
sVd1sk1vd
p163
I1
sVddoxh0p
p164
I1
sVdcu020j
p165
I2
sVdcx5se8
p166
I1
sVd8fhvi3
p167
I3
sVd5gbq7a
p168
I1
sVdac818g
p169
I4
sVcynob8u
p170
I1
sVdemv9zy
p171
I1
sVd32us4o
p172
I1
sVdrs24xt
p173
I4
sVd6m2xad
p174
I1
sVdmhyyzr
p175
I2
sVd3j8yez
p176
I1
sVdhdz740
p177
I1
sVdn4n8ef
p178
I1
sVd3u8oyc
p179
I1
sVdcr5j0h
p180
I2
sVdgtqw0r
p181
I1
sVd8o21bx
p182
I2
sVdmvhm8i
p183
I1
sVd97ham2
p184
I2
sVd6nl038
p185
I1
sVdekqnls
p186
I1
sVdok3yoh
p187
I1
sVdql43sw
p188
I2
sVdfprteo
p189
I1
sVd8qen39
p190
I1
sVda9q51e
p191
I1
sVd4lbz5z
p192
I1
sVdjy01qt
p193
I1
sVczyr7kf
p194
I4
sVd2j0sdl
p195
I2
sVdcvgpez
p196
I1
sVdfgpvv8
p197
I2
sVdpynx1x
p198
I2
sVdiikgn4
p199
I1
sVcz69ub8
p200
I2
sVdmt8cgn
p201
I1
sVddz819t
p202
I1
sVdeiy48c
p203
I1
sVdmilns3
p204
I1
sVd6329zl
p205
I1
sVdaztx0h
p206
I1
sVd2my2ee
p207
I1
sVd7wpcgv
p208
I1
sVdgzm827
p209
I1
sVdb1hgam
p210
I1
sVd9gukgj
p211
I1
sVda80odd
p212
I1
sVdnzk60o
p213
I1
sVdnjl4ne
p214
I1
sVdf8r6kc
p215
I2
sVdtgm5qf
p216
I3
sVd3r9i6q
p217
I1
sVd9gtuch
p218
I1
sVddddwtr
p219
I3
sVdmyzija
p220
I1
sVdi0hyrz
p221
I1
sVdbxyda7
p222
I3
sVczzrpr4
p223
I1
sVd3j8ot2
p224
I2
sVd429yuf
p225
I1
sVdaau74r
p226
I2
sVdh15zpm
p227
I1
sVd1d09ig
p228
I2
sVdkjox7d
p229
I1
sVdhrvvje
p230
I1
sVdpdro4v
p231
I1
sVdt6l9ng
p232
I2
sVczglr1z
p233
I1
sVda1gzmq
p234
I1
sVcymqs5d
p235
I1
sVd71rg8d
p236
I1
sVdfbiztu
p237
I1
sVdj78g71
p238
I2
sVd4lej52
p239
I10
sVdrmofjm
p240
I1
sVddjnok6
p241
I1
sVdczxbti
p242
I1
sVdq05aop
p243
I1
sVda3dscf
p244
I1
sVdenfsl7
p245
I1
sVdgbk02s
p246
I1
sVddnszn3
p247
I3
sVczgvo56
p248
I1
sVd7ai9hs
p249
I8
sVdmu1ads
p250
I1
sVd3ve9h3
p251
I1
sVdcxzkgt
p252
I1
sVd559sdo
p253
I3
sVd901luk
p254
I2
sVdecmwwd
p255
I6
sVd8yeu9p
p256
I1
sVdmr04lu
p257
I1
sVd9h2a72
p258
I1
sVdpi2x2t
p259
I1
sVd9fwccs
p260
I2
sVd7discf
p261
I2
sVd4zprvs
p262
I2
sVdcndewm
p263
I5
sVdrqpn84
p264
I4
sVd0xjcxo
p265
I1
sVdewsmtx
p266
I1
sVdpc79pg
p267
I6
sVdbm2ig6
p268
I1
sVdk6bpy2
p269
I2
sVd0yhkvd
p270
I1
sVdrs4vyl
p271
I1
sVdhrfsod
p272
I1
sVd88k9mc
p273
I1
sVdak7mf5
p274
I1
sVdefrr25
p275
I1
sVdcy091u
p276
I2
sVdazt5h1
p277
I4
sVd7trrbc
p278
I1
sVd8ryzph
p279
I1
sVd5z0c9t
p280
I3
sVd6zhe9z
p281
I1
sVd3t2shx
p282
I3
sVdjw82i1
p283
I2
sVdp75ck8
p284
I1
sVdt7mr58
p285
I2
sVdkd9xk1
p286
I1
sVde9dt3w
p287
I1
sVdjikk20
p288
I2
sVdgi2onr
p289
I1
sVdr8kzbi
p290
I7
sVdecee5p
p291
I1
sVdf8lcn9
p292
I1
sVcz3dz8y
p293
I1
sVcz7iu08
p294
I1
sVczzf1m9
p295
I6
sVdfbyw8h
p296
I1
sVdc22md7
p297
I2
sVdf3lvpy
p298
I1
sVdhc0hb8
p299
I1
sVd31jrj7
p300
I1
sVczoaa0t
p301
I1
sVd30yc0f
p302
I1
sVdmjdj83
p303
I1
sVdpt7whh
p304
I2
sVd3eu71l
p305
I1
sVdhg8hva
p306
I1
sVd9gv0ad
p307
I1
sVddfyh8s
p308
I1
sVcz4ptvy
p309
I1
sVdao9coc
p310
I2
sVdfdmlok
p311
I3
sVdc5pc6s
p312
I2
sVdcpvks4
p313
I2
sVd7s859h
p314
I3
sVd6jc8ad
p315
I2
sVd6qgzoc
p316
I3
sVd0p8l0y
p317
I2
sVdibzlww
p318
I1
sVdecqe6t
p319
I2
sVdcmgxj6
p320
I1
sVdcw7scv
p321
I1
sVdecx5qf
p322
I1
sVczooidk
p323
I2
sVdd23zev
p324
I1
sVda8kbrz
p325
I1
sVdr7xdz9
p326
I1
sVd8ay2lz
p327
I1
sVdfkkfe4
p328
I1
sVdrlq2cw
p329
I1
sVdishin0
p330
I2
sVdjsibmq
p331
I1
sVd9mbo1a
p332
I1
sVdbck13w
p333
I1
sVd4c1f2u
p334
I1
sVd8xho2u
p335
I1
sVd7t9vdk
p336
I4
sVdsfwxqm
p337
I1
sVd6qs33f
p338
I1
sVdj2lksj
p339
I5
sVd39dkyk
p340
I1
sVdfqawsv
p341
I1
sVdcxqjbp
p342
I1
sVd5ag7dc
p343
I1
sVdcim9ms
p344
I1
sVd5lz0f7
p345
I2
sVdexj06u
p346
I1
sVdecerhd
p347
I1
sVd433dl1
p348
I1
sVdcsjp8e
p349
I2
sVd8hffpt
p350
I1
sVczyqudm
p351
I2
sVd1rqooc
p352
I1
sVd7aikqm
p353
I1
sVcywnkaq
p354
I1
sVdnmlnb3
p355
I2
sVda0nsq2
p356
I1
sVdjxw15d
p357
I1
sVds3axij
p358
I1
sVdbqqnx6
p359
I2
sVdmvoqp6
p360
I1
sVdpe479m
p361
I1
sVd5y1j9g
p362
I1
sVd9riyie
p363
I3
sVd50z79e
p364
I1
sVd8xdb77
p365
I1
sVdi29d1p
p366
I3
sVdjinksk
p367
I5
sVdjrhoaj
p368
I1
sVd4c0qtj
p369
I1
sVdg303cc
p370
I1
sVd92bxrg
p371
I1
sVd1yzssa
p372
I1
sVdo5t27x
p373
I1
sVd08mb0q
p374
I1
sVd13akbe
p375
I1
sVdd46bpt
p376
I1
sVdab8w20
p377
I1
sVczyr03y
p378
I2
sVd2p8aal
p379
I1
sVdg8qpfu
p380
I1
sVdb37h35
p381
I2
sVdt6hems
p382
I11
sVdf8kctj
p383
I1
sVd9zc3h0
p384
I1
sVd8nmo7r
p385
I1
sVdsux0vc
p386
I6
sVdb7g3jw
p387
I1
sVcytw76v
p388
I2
sVcz28r6p
p389
I1
sVdad05n8
p390
I6
sVdrv256r
p391
I2
sVdiija14
p392
I1
sVd9e4vxy
p393
I1
sVdpyjo8z
p394
I1
sVcyk7z7x
p395
I3
sVdo41ucq
p396
I2
sVdc99j2h
p397
I2
sVd6rtfgx
p398
I1
sVd9bg8ta
p399
I1
sVdikrzle
p400
I1
sVdg6spe7
p401
I4
sVdjq61su
p402
I1
sVd4qzm3r
p403
I1
sVd7byjh5
p404
I3
sVd7dznap
p405
I1
sVdd3fql5
p406
I4
sVd558p2c
p407
I5
sVds22343
p408
I7
sVdhdp3cv
p409
I1
sVdrs2od5
p410
I3
sVd50yxpl
p411
I1
sVdh86qb4
p412
I1
sVddv2dku
p413
I1
sVd6c0wwd
p414
I1
sVd1r07vw
p415
I2
sVdh33z4b
p416
I2
sVdhrqq0h
p417
I1
sVd9wtbub
p418
I1
sVdhn8mzn
p419
I1
sVda80nfk
p420
I2
sVdb1box5
p421
I2
sVd7kzfzf
p422
I1
sVd0o3ytc
p423
I3
sVdervfud
p424
I1
sVd2am8ad
p425
I4
sVd50w6xj
p426
I1
sVdnu9t7t
p427
I2
sVd3j8zf7
p428
I1
sVde94sv4
p429
I1
sVd0hw7od
p430
I1
sVdibk0i0
p431
I2
sVdb8kc1i
p432
I5
sVdj3h5gg
p433
I1
sVdkj8s53
p434
I1
sVd1zt9wz
p435
I2
sVdse2hex
p436
I1
sVd2l9lh0
p437
I2
sVd1zszoo
p438
I1
sVdjq5gci
p439
I2
sVdp3zaoo
p440
I1
sVd0c58rt
p441
I1
sVdedts7d
p442
I4
sVds88ccd
p443
I4
sVd100nwi
p444
I1
sVd9f244o
p445
I1
sVdbjc3tu
p446
I1
sVd6f7v56
p447
I1
sVd7tb9nx
p448
I1
sVczyt69w
p449
I4
sVd1ho716
p450
I2
sVdks6wnv
p451
I2
sVd1n0m09
p452
I1
sVcz8b14w
p453
I1
sVdqm6vmu
p454
I1
sVd1rwlip
p455
I5
sVdpob670
p456
I3
sVds4pt7e
p457
I1
sVd2b9bxy
p458
I2
sVdhzydib
p459
I2
sVdrqmg2n
p460
I3
sVdda014n
p461
I4
sVd6ecl9d
p462
I1
sVdedtlxv
p463
I1
sVd7ucq3n
p464
I1
sVdpmvdr4
p465
I1
sVd0frx5q
p466
I1
sVddb2vp0
p467
I1
sVd9fx3xc
p468
I1
sVdmn6t7v
p469
I4
sVdp6g2u2
p470
I3
sVdel748h
p471
I1
sVd84yc7g
p472
I1
sVd3iyl73
p473
I1
sVd6wrt6v
p474
I1
sVcyxb0rn
p475
I1
sVdpfltkz
p476
I1
sVd1icyin
p477
I1
sVd8wpxsf
p478
I1
sVdmfyc2n
p479
I2
sVd7tm0jv
p480
I1
sVd8aqf62
p481
I1
sVd472589
p482
I5
sVdkdvwcw
p483
I1
sVd9bnmam
p484
I2
sVd4avv4j
p485
I1
sVczhjzcb
p486
I6
sVdoywqsq
p487
I1
sVdd657tp
p488
I1
sVd7aj4kc
p489
I4
sVd1iwt6d
p490
I2
sVdmuf6ew
p491
I4
sVd2r5168
p492
I1
sVd9fyrxn
p493
I1
sVdiwx7mu
p494
I1
sVdfyz4j8
p495
I2
sVda4tz4p
p496
I2
sVd237huk
p497
I1
sVdr5e7k7
p498
I1
sVd2r89hm
p499
I5
sVd7hgf34
p500
I1
sVczcsdnl
p501
I1
sVdnv1bpq
p502
I1
sVd9h8uj3
p503
I1
sVd7ak0qo
p504
I1
sVdpbnth8
p505
I2
sVczgn0ox
p506
I1
sVdk7h71j
p507
I1
sVdc1irmf
p508
I1
sVdfgxycg
p509
I3
sVdebm3rz
p510
I1
sVdb8a0de
p511
I1
sVczz8zw6
p512
I1
sVda40zo5
p513
I2
sVdtcfbr5
p514
I1
sVd86i6vp
p515
I1
sVd4zse6d
p516
I2
sVczgo3g2
p517
I1
sVdeoqvk0
p518
I1
sVdhm5ei2
p519
I4
sVd71xdtr
p520
I1
sVdb667qi
p521
I3
sVdcahz1o
p522
I1
sVd6xkx6p
p523
I1
sVcz0zw5q
p524
I1
sVcz6b26r
p525
I2
sVd2s83w9
p526
I1
sVdfxut44
p527
I1
sVdcb6nuh
p528
I4
sVdjwgd00
p529
I1
sVdjwne5o
p530
I2
sVdjq59wh
p531
I2
sVczatlur
p532
I2
sVddemohb
p533
I1
sVdcql1t2
p534
I2
sVdhs2v3e
p535
I1
sVd061nh0
p536
I1
sVdfrc5cc
p537
I4
sVczotka9
p538
I1
sVd30l1we
p539
I1
sVd71s8xk
p540
I1
sVd3j90ku
p541
I1
sVd3tstq0
p542
I5
sVdmvgywb
p543
I1
sVd9bk5hm
p544
I1
sVd2rayxc
p545
I1
sVdr7xibn
p546
I5
sVd79zhg4
p547
I1
sVcywwczm
p548
I1
sVd5t9cbr
p549
I2
sVd5698cy
p550
I1
sVdem0ml2
p551
I1
sVdq3ztod
p552
I1
sVd5epp8f
p553
I2
sVdrrkz58
p554
I1
sVd3m0afd
p555
I1
sVdda2ds3
p556
I1
sVdgkgxri
p557
I2
sVdavjhfr
p558
I2
sVd7zydjz
p559
I1
sVczatmpn
p560
I2
sVd4triom
p561
I2
sVdszwsm2
p562
I5
sVdjyahto
p563
I1
sVdsaohxj
p564
I1
sVd3n3m3j
p565
I1
sVd4k0q7z
p566
I1
sVdc8cqrg
p567
I1
sVd8vnzck
p568
I3
sVdqm8arj
p569
I3
sVdobo01d
p570
I1
sVd9cn6gu
p571
I1
sVdbdxswo
p572
I1
sVd59bdec
p573
I1
sVdf8pi4a
p574
I9
sVdmna1ht
p575
I4
sVd50wb8n
p576
I1
sVd4kzdvw
p577
I5
sVd77zqp2
p578
I1
sVd5z1nay
p579
I1
sVd71jnr9
p580
I3
sVdge1z5h
p581
I3
sVd8arhm5
p582
I1
sVd9xo464
p583
I1
sVdcimiwa
p584
I3
sVdmun5t2
p585
I5
sVds0eq10
p586
I2
sVdgmagpq
p587
I1
sVdjl58ef
p588
I1
sVd7a79du
p589
I1
sVczb367a
p590
I1
sVdoydx7b
p591
I1
sVd8as3sd
p592
I1
sVd4s61o7
p593
I2
sVd7fbpl3
p594
I2
sVdqb4cvu
p595
I1
sVd8idrgj
p596
I1
sVcyllrqp
p597
I2
sVdjwnx2s
p598
I1
sVd83bon0
p599
I2
sVdg8o2zs
p600
I1
sVd5dswtk
p601
I1
sVd6nfxlg
p602
I3
sVdt98p1y
p603
I1
sVdio7s0m
p604
I1
sVd9bntg7
p605
I3
sVdcngab1
p606
I1
sVdikruut
p607
I1
sVd16tfk2
p608
I1
sVd4gfrtx
p609
I2
sVdfr1e3d
p610
I2
sVdms9bd0
p611
I6
sVdbxrdbw
p612
I1
sVdayv1yv
p613
I1
sVd4olg2a
p614
I3
sVdofwb91
p615
I3
sVdikrzsr
p616
I2
sVdkdwpsa
p617
I1
sVdfsb076
p618
I1
sVczyzval
p619
I1
sVdseiosl
p620
I1
sVd8d7y54
p621
I5
sVdq9apbq
p622
I1
sVdk6ovwv
p623
I1
sVd4vn26p
p624
I1
sVdou3l3i
p625
I1
sVd1py9g1
p626
I2
sVd626l9n
p627
I1
sVd5j04y7
p628
I2
sVd4odoyk
p629
I2
sVdjx0tvp
p630
I1
sVd2xfd5x
p631
I1
sVdf8m61i
p632
I3
sVdg62li8
p633
I1
sVdnjylck
p634
I1
sVdcgvjqn
p635
I1
sVdnmloo1
p636
I3
sVczywig0
p637
I11
s.