(dp0
Vd2inns2
p1
I1
sVdahtrfi
p2
I1
sVdajo4bb
p3
I1
sVd0tsirf
p4
I1
sVdkiamoe
p5
I1
sVd729auf
p6
I1
sVdoj6h43
p7
I1
sVdn7j9n9
p8
I1
sVd39umeu
p9
I1
sVd16d4ic
p10
I1
sVdeixhe2
p11
I1
sVdmrshyo
p12
I1
sVd9ycvaj
p13
I1
sVcypirdr
p14
I1
sVdn79igk
p15
I2
sVdbhynju
p16
I1
sVdp3ixag
p17
I1
sVdho7tqf
p18
I1
sVdmusira
p19
I1
sVdhcjib0
p20
I1
sVd1ozstm
p21
I3
sVcyjdk7v
p22
I2
sVd1osfsq
p23
I1
sVdae8isl
p24
I1
sVd39iytr
p25
I1
s.