(dp0
Vcyidhp6
p1
I1
s.(dp0
Vcyjai5e
p1
I1
sVcyidhp6
p2
I1
s.(dp0
Vcyidhp6
p1
I1
sVcyjalsi
p2
I1
s.(dp0
Vcyk3k2j
p1
I1
sVcyidhp6
p2
I1
s.(dp0
Vcyklb17
p1
I1
sVcyidhp6
p2
I1
s.(dp0
Vcynd7xs
p1
I1
sVcyidhp6
p2
I1
s.(dp0
Vcynozsg
p1
I1
sVcyidhp6
p2
I1
s.(dp0
Vcypd5lj
p1
I1
sVcyidhp6
p2
I1
s.(dp0
Vcypd5lj
p1
I1
sVcyidhp6
p2
I1
s.(dp0
Vcypkrmo
p1
I1
sVcyidhp6
p2
I1
s.(dp0
Vcyidhp6
p1
I1
sVcyr4e12
p2
I1
s.(dp0
Vcyidhp6
p1
I1
sVcyrmlla
p2
I1
s.(dp0
Vcyidhp6
p1
I1
sVcyrmlla
p2
I1
s.(dp0
Vcyidhp6
p1
I1
sVcys7huh
p2
I1
s.(dp0
Vcyidhp6
p1
I1
sVcys7huh
p2
I1
s.(dp0
Vcyidhp6
p1
I1
sVcys7huh
p2
I1
s.(dp0
Vcyidhp6
p1
I1
sVcytu7sg
p2
I1
s.(dp0
Vcyutsrc
p1
I1
sVcyidhp6
p2
I1
s.(dp0
Vcyuyolj
p1
I1
sVcyidhp6
p2
I1
s.(dp0
Vcyidhp6
p1
I1
sVcyvqgtj
p2
I1
s.(dp0
Vcyidhp6
p1
I1
sVcyvqgtj
p2
I1
s.(dp0
Vcywfwdy
p1
I1
sVcyidhp6
p2
I1
s.(dp0
Vcyidhp6
p1
I1
sVcywgknk
p2
I1
s.(dp0
Vcyidhp6
p1
I1
sVcywjuk9
p2
I1
s.(dp0
Vcyy1vuk
p1
I1
sVcyidhp6
p2
I1
s.(dp0
Vcyy2fi1
p1
I1
sVcyidhp6
p2
I1
s.(dp0
Vcyidhp6
p1
I1
sVcyyw5ek
p2
I1
s.(dp0
Vcyidhp6
p1
I1
sVcyz2lpy
p2
I1
s.(dp0
Vcyidhp6
p1
I1
sVcyz72t7
p2
I1
s.(dp0
Vcyidhp6
p1
I1
sVcyz72t7
p2
I1
s.(dp0
Vcyz74hd
p1
I1
sVcyidhp6
p2
I1
s.(dp0
Vcyz74hd
p1
I1
sVcyidhp6
p2
I1
s.(dp0
Vcyza7ay
p1
I1
sVcyidhp6
p2
I1
s.(dp0
Vcyzakfq
p1
I1
sVcyidhp6
p2
I1
s.(dp0
Vcyzmuwm
p1
I1
sVcyidhp6
p2
I1
s.(dp0
Vcz0ql4q
p1
I1
sVcyidhp6
p2
I1
s.(dp0
Vcyidhp6
p1
I1
sVcz1d0oc
p2
I1
s.(dp0
Vcz1ofn2
p1
I1
sVcyidhp6
p2
I1
s.(dp0
Vcz2dni1
p1
I1
sVcyidhp6
p2
I1
s.(dp0
Vcz2dni1
p1
I1
sVcyidhp6
p2
I1
s.(dp0
Vcz2ezmx
p1
I1
sVcyidhp6
p2
I1
s.(dp0
Vcyidhp6
p1
I1
sVcz2hqni
p2
I1
s.(dp0
Vcz3rw32
p1
I1
sVcyidhp6
p2
I1
s.(dp0
Vcz54946
p1
I1
sVcyidhp6
p2
I1
s.(dp0
Vcz7l4uc
p1
I1
sVcyidhp6
p2
I1
s.(dp0
Vcza127a
p1
I1
sVcyidhp6
p2
I1
s.(dp0
Vczd2jc8
p1
I1
sVcyidhp6
p2
I1
s.(dp0
Vczd2jc8
p1
I1
sVcyidhp6
p2
I1
s.(dp0
Vcyidhp6
p1
I1
sVczeoawd
p2
I1
s.(dp0
Vczggrm0
p1
I1
sVcyidhp6
p2
I1
s.(dp0
Vcyidhp6
p1
I1
sVczgii2l
p2
I1
s.(dp0
Vczgman5
p1
I1
sVcyidhp6
p2
I1
s.(dp0
Vczgsjr0
p1
I1
sVcyidhp6
p2
I1
s.(dp0
Vczh5s8g
p1
I1
sVcyidhp6
p2
I1
s.(dp0
Vczh5s8g
p1
I1
sVcyidhp6
p2
I1
s.(dp0
Vczh5s8g
p1
I1
sVcyidhp6
p2
I1
s.(dp0
Vcyidhp6
p1
I1
sVcziy4kc
p2
I1
s.(dp0
Vczjbvt7
p1
I1
sVcyidhp6
p2
I1
s.(dp0
Vczkhoos
p1
I1
sVcyidhp6
p2
I1
s.(dp0
Vcyidhp6
p1
I1
sVczlet68
p2
I1
s.(dp0
Vcyidhp6
p1
I1
sVczlfuwe
p2
I1
s.(dp0
Vcyidhp6
p1
I1
sVczlhqok
p2
I1
s.(dp0
Vcyidhp6
p1
I1
sVczlxnw2
p2
I1
s.(dp0
Vczml96h
p1
I1
sVcyidhp6
p2
I1
s.(dp0
Vczmmeir
p1
I1
sVcyidhp6
p2
I1
s.(dp0
Vcznnf0j
p1
I1
sVcyidhp6
p2
I1
s.(dp0
Vczobp64
p1
I1
sVcyidhp6
p2
I1
s.(dp0
Vczoims2
p1
I1
sVcyidhp6
p2
I1
s.(dp0
Vczqhhmz
p1
I1
sVcyidhp6
p2
I1
s.(dp0
Vczqztap
p1
I1
sVcyidhp6
p2
I1
s.(dp0
Vczqztap
p1
I1
sVcyidhp6
p2
I1
s.(dp0
Vczqztap
p1
I1
sVcyidhp6
p2
I1
s.(dp0
Vczreowl
p1
I1
sVcyidhp6
p2
I1
s.(dp0
Vczsvxbm
p1
I1
sVcyidhp6
p2
I1
s.(dp0
Vczubwsq
p1
I1
sVcyidhp6
p2
I1
s.(dp0
Vczw8ct5
p1
I1
sVcyidhp6
p2
I1
s.(dp0
Vczwbxp7
p1
I1
sVcyidhp6
p2
I1
s.(dp0
Vcyidhp6
p1
I1
sVczx66bc
p2
I1
s.(dp0
Vcyidhp6
p1
I1
sVd007s6j
p2
I1
s.(dp0
Vcyidhp6
p1
I1
sVd01athw
p2
I1
s.(dp0
Vcyidhp6
p1
I1
sVd035o3h
p2
I1
s.(dp0
Vcyidhp6
p1
I1
sVd035o3h
p2
I1
s.(dp0
Vcyidhp6
p1
I1
sVd076v0z
p2
I1
s.(dp0
Vcyidhp6
p1
I1
sVd08bzqb
p2
I1
s.(dp0
Vd091a87
p1
I1
sVcyidhp6
p2
I1
s.(dp0
Vd0b9rb7
p1
I1
sVcyidhp6
p2
I1
s.(dp0
Vd0ccm44
p1
I1
sVcyidhp6
p2
I1
s.(dp0
Vcyidhp6
p1
I1
sVd0enysk
p2
I1
s.(dp0
Vd0fp4wi
p1
I1
sVcyidhp6
p2
I1
s.(dp0
Vcyidhp6
p1
I1
sVd0ga3fg
p2
I1
s.(dp0
Vd0gwl79
p1
I1
sVcyidhp6
p2
I1
s.(dp0
Vcyidhp6
p1
I1
sVd0h4h8a
p2
I1
s.(dp0
Vcyidhp6
p1
I1
sVd0ly6cd
p2
I1
s.(dp0
Vcyidhp6
p1
I1
sVd0ntnph
p2
I1
s.(dp0
Vd0oe8t4
p1
I1
sVcyidhp6
p2
I1
s.(dp0
Vcyidhp6
p1
I1
sVd0ol6d4
p2
I1
s.(dp0
Vcyidhp6
p1
I1
sVd0rr2sg
p2
I1
s.(dp0
Vd0v4mw4
p1
I1
sVcyidhp6
p2
I1
s.(dp0
Vcyidhp6
p1
I1
sVd0wrd3t
p2
I1
s.(dp0
Vcyidhp6
p1
I1
sVd0x9mzn
p2
I1
s.(dp0
Vd0xvbqs
p1
I1
sVcyidhp6
p2
I1
s.(dp0
Vd0xyuz0
p1
I1
sVcyidhp6
p2
I1
s.(dp0
Vcyidhp6
p1
I1
sVd0zbwvp
p2
I1
s.(dp0
Vd10ekyd
p1
I1
sVcyidhp6
p2
I1
s.(dp0
Vd128zkg
p1
I1
sVcyidhp6
p2
I1
s.(dp0
Vd14pqs1
p1
I1
sVcyidhp6
p2
I1
s.(dp0
Vd14pqs1
p1
I1
sVcyidhp6
p2
I1
s.(dp0
Vd152lo2
p1
I1
sVcyidhp6
p2
I1
s.(dp0
Vd1(dp0
Vdtbncjn
p1
I1
sVcyidhp6
p2
I1
s.