(dp0
Vdaakf8x
p1
I1
sVd4qv2s7
p2
I1
sVdn339hn
p3
I2
sVd8ox6d1
p4
I1
sVdh7d53j
p5
I1
sVda6tktz
p6
I1
sVd1ets1c
p7
I1
sVdbp48l9
p8
I1
sVder52ob
p9
I1
sVdnik9v0
p10
I1
sVd2xja9q
p11
I1
sVczm23gm
p12
I1
sVd551q1s
p13
I1
sVcz5qlg9
p14
I1
sVdpyyl3k
p15
I1
sVd0huq34
p16
I1
sVdedn3zv
p17
I1
sVdip0zhe
p18
I1
s.