(dp0
Vdo9mazo
p1
I1
sVd0wjnwb
p2
I1
sVczhfs2c
p3
I1
sVczjr94z
p4
I1
sVdkw2e4p
p5
I1
sVdrv1prv
p6
I1
sVdbqhqfr
p7
I1
sVd1bdh4u
p8
I1
sVdajxcdt
p9
I1
sVd0ngola
p10
I1
sVczpqikz
p11
I1
sVdhv6xza
p12
I1
sVd26z1m9
p13
I1
s.