(dp0
Vdqqbwis
p1
I1
sVd7i3f5u
p2
I1
sVdmmx8w4
p3
I1
sVdjcw9ks
p4
I1
sVdg80t03
p5
I1
sVd6jenhi
p6
I1
sVcyrzdd7
p7
I1
sVdceqmy9
p8
I1
sVcyy31l2
p9
I1
sVdh24bys
p10
I2
sVdaz9hwl
p11
I1
sVddg5h51
p12
I1
sVddwnp27
p13
I1
sVd2nbk7k
p14
I1
sVdo6k49w
p15
I1
sVdhhczzf
p16
I1
sVdaejpqm
p17
I1
sVdf0jkya
p18
I1
sVd2l17cs
p19
I1
sVdg3qvhu
p20
I2
sVdj7hyhq
p21
I1
sVcyp0fuq
p22
I2
sVd5p1liw
p23
I1
sVdh4anrt
p24
I1
sVd3ln8t6
p25
I1
sVd1jurnj
p26
I2
sVd71xyu6
p27
I1
sVczc7zk8
p28
I1
sVddrv68s
p29
I1
sVcynk1u1
p30
I1
sVdaw6fgg
p31
I2
sVczos5gj
p32
I3
sVd1p9lro
p33
I1
sVcyt3kya
p34
I2
sVd3t89ko
p35
I1
sVdds2mec
p36
I1
sVdsytj7h
p37
I1
sVddwrz4t
p38
I4
sVdnp3es7
p39
I4
sVd7bjdtj
p40
I1
sVda4b0e3
p41
I2
sVdda2lkk
p42
I4
sVdj4frii
p43
I3
sVdj4fpaf
p44
I3
sVdepoyus
p45
I2
sVd6m4igb
p46
I1
sVdim3op3
p47
I1
sVddwg2nl
p48
I1
sVdh47xhd
p49
I1
sVdda1i4s
p50
I3
sVd5qv111
p51
I1
sVdj7gu7m
p52
I1
sVd5p76wj
p53
I2
sVd0wi1xl
p54
I1
sVd1zp9fo
p55
I5
sVdeamh6x
p56
I1
sVdd9zndg
p57
I4
sVd8j8w04
p58
I1
sVdj9jm94
p59
I1
sVczor2mc
p60
I1
sVcyzsr8t
p61
I1
sVdql9knk
p62
I2
sVd242ukx
p63
I1
sVdp54150
p64
I1
sVd1f7vnv
p65
I1
sVdgtmrnf
p66
I1
sVd0ngk7k
p67
I2
sVd1wle5x
p68
I2
sVdkmlqhx
p69
I3
sVcyt3m0c
p70
I1
sVdtfqdgj
p71
I1
sVddeh8vj
p72
I2
sVdd9qdk7
p73
I2
sVd3w9014
p74
I1
sVdiqkezh
p75
I3
sVd1davn6
p76
I6
sVdej9z9h
p77
I2
sVd1n11wj
p78
I1
sVdfyqb0n
p79
I1
sVde7rgsz
p80
I1
sVd3kjsn3
p81
I1
sVd3bkl8j
p82
I1
sVdda0q6c
p83
I1
sVd9mmya2
p84
I1
sVdnl2l9d
p85
I1
sVdg4nany
p86
I1
sVdgmhh5r
p87
I1
sVdf1udt0
p88
I1
sVd1993uo
p89
I1
sVd8dsjow
p90
I3
sVd1w8pis
p91
I1
sVda5xquf
p92
I1
sVdjrkyh5
p93
I2
sVcyihhu6
p94
I1
sVd5ougyd
p95
I5
sVd0nedn1
p96
I1
sVd3kji2s
p97
I2
sVdg3pfd5
p98
I2
sVdb4u8zg
p99
I1
sVdrgjzje
p100
I5
sVd0dlzq4
p101
I1
sVdap1cfs
p102
I1
sVcykiw2l
p103
I1
sVd79vzid
p104
I1
sVd5rr6vj
p105
I1
sVddwo1kk
p106
I2
sVd20pdvc
p107
I1
sVdjvj011
p108
I1
sVddr9qpf
p109
I1
sVd5363c9
p110
I3
sVd71p858
p111
I1
sVd3gyrg8
p112
I1
sVd8n5rit
p113
I1
sVdjw0obg
p114
I1
sVdfapmdi
p115
I1
sVdg22795
p116
I2
sVdd50f3m
p117
I1
sVd4z6ihr
p118
I1
sVdct9jg5
p119
I1
sVd8ds70o
p120
I2
sVdesmuh1
p121
I6
sVd01balh
p122
I1
sVd4jnoua
p123
I1
sVdb9d4r9
p124
I2
sVd539za6
p125
I1
sVd3hliax
p126
I2
sVdd9y7tw
p127
I8
sVdbn58x7
p128
I1
sVd20zalr
p129
I1
sVd71uu3u
p130
I3
sVddiernj
p131
I1
sVdpnzspl
p132
I1
sVddek7jx
p133
I1
sVdd9w9jj
p134
I4
sVdmr8hi4
p135
I1
sVd1uvjmh
p136
I1
sVd4r3yii
p137
I2
sVdg94jyg
p138
I1
sVddktvzv
p139
I1
sVdc8yae8
p140
I1
sVdqjtma4
p141
I1
sVdh5jb2m
p142
I1
sVd1rhg27
p143
I1
sVcykis7h
p144
I2
sVd1v2woq
p145
I1
sVd3xsbd7
p146
I1
sVd0kow20
p147
I1
sVd9p4723
p148
I1
sVdh257lp
p149
I2
sVdj219ly
p150
I2
sVd60putl
p151
I1
sVddwnu96
p152
I1
sVd65b5xk
p153
I1
sVdc8pnyj
p154
I1
sVcyrz81m
p155
I1
sVdivs4q3
p156
I1
sVdeed70a
p157
I2
sVdbk11g4
p158
I1
sVd24l7p3
p159
I1
sVcytpnry
p160
I1
sVdgaa9wg
p161
I1
sVcyvvw80
p162
I2
sVd1vcb5p
p163
I1
sVdk0zfn8
p164
I1
sVdebi4n7
p165
I1
sVdj7gq48
p166
I2
sVdgwqrp6
p167
I1
sVdmyjtya
p168
I2
sVdb91o4b
p169
I1
sVd84gfk1
p170
I1
sVd41skfp
p171
I1
sVd03ybey
p172
I1
sVd7qgyxv
p173
I1
sVdg4sjqf
p174
I1
sVd76e8aw
p175
I4
sVdd9z0rk
p176
I8
sVds52k0m
p177
I1
sVd0xsq4v
p178
I2
sVdet03am
p179
I1
sVd3054do
p180
I1
sVdfxnita
p181
I2
sVdhxulit
p182
I1
sVd017rj8
p183
I1
sVddbh6ja
p184
I1
sVczv3lej
p185
I2
sVcytog26
p186
I2
sVdrck7tq
p187
I1
sVdet0ha3
p188
I2
sVd3z1n7w
p189
I1
sVdh4dchu
p190
I1
sVczlg9us
p191
I1
sVdhz8f3a
p192
I1
sVdd8dvf5
p193
I1
sVd5rfsm8
p194
I3
sVdjw9jng
p195
I2
sVd3bzf10
p196
I1
sVd6mk7e5
p197
I3
sVd3zepim
p198
I1
sVdi55jzu
p199
I2
sVdake7s3
p200
I1
sVdbh4ea7
p201
I2
sVd2g744f
p202
I1
sVd2jye0v
p203
I1
sVdh43xne
p204
I1
sVd36lv9g
p205
I1
sVd0ocgu5
p206
I4
sVcz0mk6b
p207
I3
sVdqb3z6c
p208
I2
sVd1tomnw
p209
I1
sVdg17uko
p210
I2
sVd1zoxng
p211
I1
sVdirojo2
p212
I1
sVdaa9wuo
p213
I1
sVdfidf0t
p214
I1
sVdi336h9
p215
I1
sVdjaoocv
p216
I2
sVdjrm723
p217
I3
sVd71luta
p218
I2
sVd9efnrc
p219
I1
sVdec4lbl
p220
I2
sVd27ldmw
p221
I1
sVdc91tgt
p222
I4
sVdd9y8ft
p223
I1
sVdetkv9d
p224
I1
sVdd9zqk5
p225
I3
sVdh246ud
p226
I1
sVdod0pnw
p227
I1
sVddqxe2a
p228
I1
sVd2clgp0
p229
I1
sVd6giybk
p230
I1
sVd1v8p0v
p231
I1
sVda3rltb
p232
I1
sVcyxy9hx
p233
I2
sVdcgb6d0
p234
I1
sVdnypg67
p235
I1
sVdgyzlsv
p236
I1
sVd907vqb
p237
I1
sVcys7r81
p238
I2
sVdcl7b6t
p239
I1
sVddquwu9
p240
I2
sVdixv57a
p241
I1
sVd4fttsj
p242
I1
sVd45m5ih
p243
I2
sVdg2e4js
p244
I2
sVd9ciiuf
p245
I1
sVd76e8si
p246
I1
sVd0kyio7
p247
I1
sVdnmawz2
p248
I1
sVd1w6tda
p249
I4
sVdbhstj3
p250
I1
sVdrv6ybs
p251
I2
sVd2iz7t6
p252
I2
sVd03c6sw
p253
I2
sVd20zf4g
p254
I1
sVd23sojk
p255
I1
sVdge2ghx
p256
I2
sVdqjthaw
p257
I2
sVdh09z05
p258
I1
sVd71pkxu
p259
I2
sVdeb06ft
p260
I1
sVdil97wm
p261
I2
sVd8hkimr
p262
I2
sVddol0wh
p263
I1
sVddujsks
p264
I1
sVd0v3rk6
p265
I4
sVd3h3vny
p266
I3
sVcym4yiu
p267
I1
sVdg5qr1w
p268
I1
sVdg1iei2
p269
I1
sVdhxujdh
p270
I1
sVd0i7qb4
p271
I1
sVd12qfrw
p272
I1
sVcyp5a9k
p273
I1
sVd6lpbbg
p274
I1
sVd1u55x4
p275
I1
sVd71sio3
p276
I1
sVd0yhrwr
p277
I1
sVdcsf6u0
p278
I1
sVd62irgo
p279
I2
sVdb05h9b
p280
I1
sVdfsmvsr
p281
I1
sVdnkm89o
p282
I1
sVd1gozgi
p283
I3
sVd71juo6
p284
I2
sVd05e1js
p285
I2
sVdgi937l
p286
I1
sVdegq935
p287
I1
sVd5kgel6
p288
I1
sVdda049i
p289
I2
sVdejumyg
p290
I2
sVdfk5z01
p291
I1
sVdh1fipe
p292
I1
sVddruz5y
p293
I1
sVd1p9h1m
p294
I2
sVddlky52
p295
I1
sVdsvozh6
p296
I2
sVdh1fv77
p297
I2
sVd5uehve
p298
I1
sVdslo0h6
p299
I1
sVcz6344b
p300
I1
sVd7vmlih
p301
I1
sVd1jzp1y
p302
I7
sVd7vrpiq
p303
I2
sVd5rdfiw
p304
I2
sVd3b2mtu
p305
I3
sVdmlsdoj
p306
I2
sVdazm2lk
p307
I2
sVcz036j1
p308
I3
sVd7j7nlx
p309
I1
sVd39fs2c
p310
I1
sVdhtgfib
p311
I3
sVddwf0uu
p312
I3
sVdc0ltvn
p313
I1
sVdotmbpm
p314
I2
sVdgmr7sb
p315
I1
sVdbhs00y
p316
I1
sVczj4dik
p317
I1
sVczb1dhf
p318
I1
sVdmqhk7k
p319
I1
sVdoepi8e
p320
I1
sVd0dvc9y
p321
I1
sVd30udg5
p322
I1
sVd05t9qk
p323
I2
sVd2ah70n
p324
I1
sVd1cav2r
p325
I1
sVd28m3uf
p326
I1
sVd0rp1os
p327
I1
sVdfypmgh
p328
I2
sVd5rz8zf
p329
I1
sVdd02321
p330
I1
sVddqv533
p331
I1
sVd1k5xmo
p332
I1
sVdh3d1g2
p333
I1
sVdjw0jlc
p334
I1
sVdg9hins
p335
I1
sVd49t1jq
p336
I2
sVdcuqv2m
p337
I1
sVd19eqgx
p338
I1
sVdkz02jb
p339
I1
sVdg22cae
p340
I6
sVdk4p38w
p341
I1
sVdklh4fz
p342
I1
sVd0lgnsf
p343
I1
sVd62dsm9
p344
I1
sVd20wrvw
p345
I1
sVdtbe8et
p346
I3
sVdcl7dey
p347
I2
sVdihau6o
p348
I1
sVdh0d5vp
p349
I2
sVdh9yw2m
p350
I1
sVdfbqsi4
p351
I1
sVdeu7wp2
p352
I4
sVd1v8ksv
p353
I1
sVd2663xv
p354
I10
sVd1uo199
p355
I1
sVd028mmi
p356
I1
sVdd9yf2w
p357
I4
sVdoj7l1c
p358
I3
sVdceyp96
p359
I1
sVddrivid
p360
I1
sVd3z84ay
p361
I1
sVd4r3d9n
p362
I1
sVdd5cl2i
p363
I1
sVddr8bbh
p364
I1
sVd27a5fb
p365
I2
sVd3h8xcv
p366
I1
sVd2321wb
p367
I1
sVcyl92hb
p368
I1
sVdda2m7h
p369
I2
sVd00ciol
p370
I1
sVdawntv6
p371
I4
sVd6zjf4h
p372
I1
sVdbojtn2
p373
I1
sVdda0fsr
p374
I1
sVd1vh92e
p375
I1
sVd7puwd9
p376
I1
sVd7lnuqv
p377
I2
sVdesw4ks
p378
I1
sVd0whlro
p379
I1
sVcywkdfd
p380
I1
sVd4rk1t5
p381
I4
sVdsrrhqp
p382
I1
sVdaaa5d9
p383
I1
sVd19n41s
p384
I1
sVd200ek7
p385
I2
sVdmtjin4
p386
I1
sVdh8ezhz
p387
I2
sVdob3osz
p388
I1
sVdd9zsi4
p389
I4
sVd54dhtd
p390
I1
sVdjvzttp
p391
I2
sVd0efe9x
p392
I1
sVd0oc91o
p393
I1
sVd3b2ev0
p394
I1
sVdotmfbv
p395
I2
sVd3hay5r
p396
I2
sVdc1lb9v
p397
I3
sVdgfx67j
p398
I1
sVdda0jds
p399
I3
sVd8j8pat
p400
I1
sVdfgkech
p401
I2
sVdd9wvh5
p402
I1
sVdh1n38f
p403
I2
sVd41in52
p404
I1
sVdf3t352
p405
I2
sVdqtbxyp
p406
I1
sVcywjxsd
p407
I2
sVd3jmg7p
p408
I1
sVdeig3pj
p409
I1
sVd5dfaro
p410
I1
sVdg1ijgj
p411
I3
sVdill1uq
p412
I1
sVdddyi49
p413
I1
sVcz04sxg
p414
I1
sVdhza78b
p415
I1
sVczv76wq
p416
I1
sVd6nsj3t
p417
I1
sVdkre561
p418
I1
sVdda41ot
p419
I4
sVdb2p8hx
p420
I1
sVdke1wzm
p421
I1
sVdavxovj
p422
I1
sVdtbevbx
p423
I1
sVdex3snw
p424
I1
sVdiqe95p
p425
I1
sVd3yu4fk
p426
I1
sVdaqqp2i
p427
I4
sVcyivi8a
p428
I2
sVdap6o24
p429
I1
sVd7x0qbt
p430
I1
sVdcwgr9f
p431
I3
sVdaarfty
p432
I2
sVdekjh4z
p433
I1
sVdhol23h
p434
I1
sVd7i28l8
p435
I1
sVdda0l00
p436
I3
sVd957zz4
p437
I1
sVdd26pxc
p438
I1
sVd5texg8
p439
I1
sVdkhem4u
p440
I1
sVd961ogd
p441
I1
sVczhlwdi
p442
I1
sVdcjti1v
p443
I1
sVddrk159
p444
I3
sVdbprfps
p445
I1
sVdsts1ss
p446
I1
sVdh2kxzx
p447
I6
sVczorjpt
p448
I2
sVdpmhb5b
p449
I1
sVdgdy4qe
p450
I1
sVcyksh1j
p451
I1
sVd7hst5y
p452
I1
sVd1w6hva
p453
I2
sVdeshlhf
p454
I3
sVd0ymd8e
p455
I2
sVd76eaxd
p456
I1
sVdh1op97
p457
I1
sVdpkzxfl
p458
I1
sVdhu7hm1
p459
I2
sVdeszrbp
p460
I2
sVd2cmzhx
p461
I2
sVd9w7s7p
p462
I2
sVdiw9hiw
p463
I1
sVdpiuwc9
p464
I5
sVdbfieni
p465
I1
sVd2rn0tz
p466
I2
sVdd56axo
p467
I1
sVdnp2nwb
p468
I1
sVdjx3tdu
p469
I1
sVdni2rrq
p470
I1
sVd3ah9v8
p471
I1
sVd90c5rg
p472
I1
sVdocrd1g
p473
I3
sVdapbozn
p474
I1
sVdqod5ng
p475
I1
sVdfgtmai
p476
I1
sVd0pvwsp
p477
I1
sVd0oefsr
p478
I2
sVcys5sli
p479
I2
sVdql8j6n
p480
I2
sVczossnd
p481
I1
sVd9sm50c
p482
I1
sVd1bqk7p
p483
I2
sVddmd88c
p484
I1
sVdkqw02z
p485
I1
sVdq62z8a
p486
I1
sVdrgnz36
p487
I1
sVczaqqgk
p488
I2
sVcyviioj
p489
I1
sVd0dc83n
p490
I1
sVcz06mty
p491
I1
sVd1vbn02
p492
I1
sVczd9g66
p493
I1
sVdticurc
p494
I1
sVdjff7dg
p495
I1
sVdedtgpm
p496
I1
sVdd2x8nf
p497
I1
sVdbg5ti6
p498
I1
sVddwnsz1
p499
I1
sVdrkcgel
p500
I1
sVd65bhy5
p501
I1
sVczzhw9g
p502
I1
sVdaq3der
p503
I1
sVd721lwo
p504
I1
sVdg82b53
p505
I3
sVdt4up9c
p506
I1
sVdk7dkqm
p507
I2
sVd42rc7x
p508
I1
sVd1lv8gk
p509
I4
sVds60yga
p510
I1
sVcz3i9p9
p511
I1
sVdd9zc6n
p512
I7
sVcyjn8hs
p513
I2
sVd7tnjux
p514
I1
sVdbis4do
p515
I1
sVd3y97gm
p516
I1
sVdh4ky8d
p517
I1
sVdcigxnk
p518
I2
sVdb6qf5i
p519
I1
sVd1rr033
p520
I2
sVd0jey04
p521
I1
sVdi56rp3
p522
I1
sVdh18afp
p523
I1
sVdc8x44v
p524
I3
sVdjt3h91
p525
I1
sVd92work
p526
I1
sVcyp06h5
p527
I1
sVd1dbhdu
p528
I4
sVdd037v1
p529
I3
sVdfm6ll3
p530
I3
sVdcuu78d
p531
I2
sVdjwnmvu
p532
I1
sVd7r95q4
p533
I1
sVcyr7j84
p534
I1
sVd1k0chc
p535
I2
sVcynlt5n
p536
I1
sVd0hmzri
p537
I2
sVdcucqwc
p538
I1
sVdkkdibw
p539
I1
sVddsewyi
p540
I1
sVd08qm5y
p541
I3
sVdmjtvur
p542
I1
sVdkltms4
p543
I2
sVdaej4vi
p544
I1
sVcyl96jq
p545
I1
sVdimandx
p546
I1
sVd1uydax
p547
I2
sVdclsi42
p548
I1
sVd8507ag
p549
I3
sVddsnhp1
p550
I1
sVdaw8e19
p551
I1
sVdh4wy3t
p552
I1
sVd1umoqb
p553
I1
sVdfs7lqv
p554
I2
sVd7hxles
p555
I1
sVdn3unkm
p556
I2
sVcyt4i0c
p557
I1
sVdafmr5n
p558
I1
sVd24rvfr
p559
I1
sVdj7g75m
p560
I2
sVdmid16p
p561
I1
sVd8t1dar
p562
I2
sVdivo679
p563
I2
sVd54a3dx
p564
I1
sVdkli010
p565
I1
sVd5kwnw5
p566
I1
sVd0qkb5k
p567
I1
sVdd37m8l
p568
I2
sVderjmxv
p569
I1
sVd6ydkkd
p570
I1
sVd53jira
p571
I1
sVd1lnqcn
p572
I1
sVdmyn7iy
p573
I1
sVdqawndh
p574
I5
sVdcgcikd
p575
I2
sVdd40dqk
p576
I1
sVdrpi4pk
p577
I1
sVdjj1px5
p578
I1
sVcym94r5
p579
I1
sVd272doq
p580
I2
sVdkm5jl8
p581
I1
sVdf8dvse
p582
I1
sVdj9fzdl
p583
I1
sVdnyp2yf
p584
I2
sVdakec60
p585
I1
sVdfejqoa
p586
I2
sVdgcql5u
p587
I1
sVddb445b
p588
I1
sVdfrgxku
p589
I1
sVdq0i7ef
p590
I1
sVdh4n0ao
p591
I1
sVd89hppz
p592
I1
sVdh4db7c
p593
I4
sVdiatik5
p594
I1
sVdf8hsdy
p595
I2
sVd2clzug
p596
I1
sVdikwc7m
p597
I1
sVdgjmxuh
p598
I1
sVdnf4tf0
p599
I2
sVd997i7f
p600
I1
sVdd9ys8z
p601
I4
sVdq3r8jr
p602
I1
sVdp6k6re
p603
I2
sVczqu3ac
p604
I1
sVd2iz4wr
p605
I1
sVdh4jmel
p606
I2
sVd1p69pz
p607
I1
sVd4zgbhi
p608
I1
sVdhuok6m
p609
I1
sVdo1xbjw
p610
I1
sVcyp5fqa
p611
I1
sVd2cm0ba
p612
I1
sVdmx1mrs
p613
I1
sVd9a1dag
p614
I1
sVd3hi03g
p615
I1
sVd1uywef
p616
I1
sVd3100qo
p617
I1
sVdj8ewxb
p618
I4
sVdbwogvj
p619
I1
sVd0o18un
p620
I3
sVczhzvaw
p621
I1
sVdti93uj
p622
I1
sVdj7h4vt
p623
I1
sVcz4kpo7
p624
I1
sVdh6we0c
p625
I1
sVds8xr9j
p626
I2
sVcz6v0ge
p627
I1
sVd50ooht
p628
I1
sVdnffaat
p629
I4
sVd95naor
p630
I1
sVdhwoqy2
p631
I3
sVdsvoiif
p632
I1
sVczbof77
p633
I1
sVdj7rkg8
p634
I1
sVdrv72nb
p635
I4
sVd4gabzv
p636
I2
sVddoqw7o
p637
I4
sVdc0lfvr
p638
I1
sVd722kn5
p639
I1
sVczqu8kv
p640
I1
sVdewaxi7
p641
I1
sVcyy9l8k
p642
I1
sVdfanj1i
p643
I1
sVd246hx4
p644
I2
sVdmhhdel
p645
I3
sVdkp6nhf
p646
I2
sVd2r0b77
p647
I1
sVd1uzl7f
p648
I4
sVd08p81o
p649
I1
sVd8hl67j
p650
I1
sVdijdzju
p651
I1
sVcyl3c8m
p652
I1
sVd1ty6rm
p653
I1
sVd5oyaxl
p654
I1
sVdd9zp3k
p655
I2
sVd1lveqs
p656
I2
sVd2jszv3
p657
I2
sVdd24cxq
p658
I1
sVd3gskzq
p659
I1
sVczygsj0
p660
I1
sVdhqpz99
p661
I1
sVd1xb7xr
p662
I1
sVd5p9chj
p663
I1
sVdg3piws
p664
I3
sVdksl152
p665
I5
sVdod3tdy
p666
I1
sVddltien
p667
I2
sVdaweqtq
p668
I1
sVdf8dsg6
p669
I3
sVdizw2ke
p670
I1
sVdgp3ab5
p671
I1
sVd7sxife
p672
I1
sVd23bea3
p673
I1
sVdgyjwd4
p674
I1
sVddo1l6b
p675
I2
sVd01jc6n
p676
I2
sVdfvgmpe
p677
I1
sVdds6zjf
p678
I5
sVd2nepfd
p679
I1
sVd9zggf1
p680
I1
sVd0xetgv
p681
I1
sVdexhvwq
p682
I2
sVcz6k9hs
p683
I1
sVczh8ytc
p684
I7
sVdkenauh
p685
I1
sVd1dakaj
p686
I4
sVdonootd
p687
I1
sVd246l0v
p688
I1
sVd54cobk
p689
I1
sVdbo4utu
p690
I1
sVcyvvwq9
p691
I1
sVdesyaff
p692
I1
sVdod31u3
p693
I1
sVd06dc3p
p694
I4
sVdjbj1hp
p695
I1
sVdda1hz5
p696
I1
sVd1abd0b
p697
I2
sVcytohop
p698
I2
sVdb9cq3i
p699
I3
sVddlm9wi
p700
I1
sVdekw9fv
p701
I1
sVdmykweu
p702
I1
sVdn1vmdt
p703
I1
sVd9heasi
p704
I1
sVdk4z4hz
p705
I4
sVddepia3
p706
I3
sVdkftwny
p707
I1
sVd5seix7
p708
I4
sVdjx7pxk
p709
I1
sVdk4orj6
p710
I1
sVdjrr6ju
p711
I1
sVdg7e7kb
p712
I1
sVdfmcf2w
p713
I1
sVczhqybb
p714
I2
sVd5w1l8c
p715
I1
sVcys5cyi
p716
I1
sVdd9z9ia
p717
I9
sVd0lglf5
p718
I1
sVczhf8qu
p719
I1
sVd5v2jhs
p720
I1
sVd6eog5s
p721
I2
sVczgrn3w
p722
I1
sVdnqqiku
p723
I1
sVd9bgmsc
p724
I1
sVda808gc
p725
I2
sVdh65iwc
p726
I1
sVdeg9ek7
p727
I1
sVd5p6io8
p728
I1
sVd76dspx
p729
I3
sVd3gyavy
p730
I3
sVdepna6h
p731
I1
sVdg5d7dy
p732
I1
sVd2qmr55
p733
I1
sVdegnemy
p734
I1
sVdgu502c
p735
I1
sVd9xriz3
p736
I1
sVdhxo73l
p737
I1
sVd2s4h7n
p738
I2
sVd2106pq
p739
I1
sVdqtc12l
p740
I1
sVdagc4mn
p741
I1
sVddvh6sy
p742
I1
sVd48buxx
p743
I1
sVdnf4uqc
p744
I1
sVdd9q1bm
p745
I1
sVcylb9sq
p746
I1
sVd84rwrm
p747
I2
sVdebqg86
p748
I1
sVddqw5h8
p749
I7
sVd1de719
p750
I1
sVddthpk5
p751
I2
sVdfzxaqm
p752
I1
sVdgggz6c
p753
I1
sVdirofk8
p754
I2
sVdefqni2
p755
I1
sVdh3czkc
p756
I1
sVdh82atx
p757
I1
sVd8jbuam
p758
I2
sVdb1fg61
p759
I1
sVdb1ncwh
p760
I1
sVd38vtxc
p761
I1
sVd05e42w
p762
I2
sVd9sy28v
p763
I1
sVd141rlv
p764
I1
sVdrnirmr
p765
I2
sVd3bje84
p766
I2
sVcyxy9aw
p767
I1
sVd75l8bg
p768
I1
sVdh4i5c1
p769
I1
sVd1v0wxr
p770
I1
sVd9cqk1t
p771
I1
sVd1jupml
p772
I1
sVdkbvqfu
p773
I1
sVczv1d2h
p774
I1
sVd1go6yx
p775
I1
sVd1k7dcg
p776
I1
sVd028j6t
p777
I1
sVd1vdzg7
p778
I1
sVcynowh8
p779
I1
sVd04u926
p780
I1
sVddqvcrk
p781
I1
sVd7x0en8
p782
I2
sVd1vcls9
p783
I1
sVdf65cqm
p784
I1
sVdqc2vcb
p785
I1
sVdpqofsf
p786
I1
sVd8yy75b
p787
I1
sVdpn4vmo
p788
I1
sVdibrf4h
p789
I2
sVdba2y3j
p790
I1
sVd0ntvp9
p791
I2
sVcypowos
p792
I1
sVd38557l
p793
I1
sVd1per3b
p794
I2
sVddc0xts
p795
I1
sVd939mnm
p796
I5
sVczeje32
p797
I1
sVd5p80g4
p798
I1
sVdo6fheo
p799
I1
sVd1uwoo5
p800
I1
sVdkj1wwj
p801
I1
sVdj885gy
p802
I1
sVdo1w9hg
p803
I1
sVdj9dxz6
p804
I1
sVdbftsvw
p805
I1
sVdd9w5qi
p806
I5
sVd71xw03
p807
I3
sVdqibf2w
p808
I2
sVd22tyar
p809
I1
sVdctlh4v
p810
I1
sVdomn43r
p811
I1
sVd3juins
p812
I1
sVd00361w
p813
I1
sVd76egwp
p814
I2
sVd57w8xe
p815
I1
sVczpippe
p816
I1
sVd4kqkso
p817
I1
sVdda1bqq
p818
I3
sVdfzb4iu
p819
I2
sVdjebybr
p820
I1
sVd246gcf
p821
I2
sVd0ngh6x
p822
I1
sVdod48c4
p823
I2
sVcykqrpc
p824
I1
sVdefmvpx
p825
I1
sVdmv5qsg
p826
I1
sVd9y34ul
p827
I1
sVdh4c0r8
p828
I3
sVdd84rs1
p829
I1
sVdk8ynj4
p830
I1
sVde7yx2z
p831
I1
sVda094bc
p832
I1
sVdf40i5u
p833
I2
sVd2puhgt
p834
I1
sVd4r392e
p835
I1
sVdb82cdw
p836
I1
sVdmhfqrv
p837
I1
sVd1dxpus
p838
I1
sVdd9wjc5
p839
I3
sVd5ybxcy
p840
I1
sVd1t2a02
p841
I2
sVd84t31m
p842
I1
sVddrdlrl
p843
I2
sVd5gyvyq
p844
I1
sVdrhcgym
p845
I1
sVd1v781k
p846
I1
sVdnl28kd
p847
I2
sVdmuwq61
p848
I1
sVdh4eup6
p849
I1
sVdhy4tlx
p850
I1
sVdowx8bs
p851
I2
sVdcwnrir
p852
I2
sVday8i20
p853
I2
sVd0tgmaq
p854
I1
sVdg6mfj8
p855
I1
sVdegpmjk
p856
I1
sVdmv072n
p857
I1
sVdd9ygar
p858
I1
sVd0nu2l4
p859
I1
sVd7exxyv
p860
I1
sVdii8a6f
p861
I2
sVdclz7rp
p862
I4
sVdholgvk
p863
I1
sVdql8y23
p864
I1
sVd8ds812
p865
I1
sVdisvuq1
p866
I1
sVds53aj6
p867
I6
sVdcw1ku7
p868
I1
sVd0wf18c
p869
I1
sVdc2zy2f
p870
I1
sVd3orqf8
p871
I1
sVdh4dctu
p872
I2
sVdptxvss
p873
I2
sVdiuc1de
p874
I1
sVd1yhhqe
p875
I1
sVcz3j9mu
p876
I1
sVd3gfj8x
p877
I1
sVdgcn5mn
p878
I4
sVd49tsfc
p879
I1
sVd71ilfw
p880
I1
sVcz2yeh1
p881
I1
sVdae3ein
p882
I1
sVdg5onyy
p883
I1
sVcz04qkd
p884
I1
sVdd9q1n2
p885
I1
sVdda19eq
p886
I1
sVd3oj2rl
p887
I1
sVcykmzmp
p888
I4
sVd1ywt38
p889
I1
sVdbahwnk
p890
I1
sVdhgvotm
p891
I1
sVdh9vxwk
p892
I1
sVdfw1v6q
p893
I1
sVd1v1er8
p894
I1
sVdfpr993
p895
I1
sVd8ery0t
p896
I1
sVddrdqyi
p897
I1
sVdhga8ce
p898
I1
sVdap1ajv
p899
I1
sVdk6u4a8
p900
I1
sVdiw0qa4
p901
I1
sVdidvj6g
p902
I2
sVdojkdzd
p903
I1
sVd0ngola
p904
I2
sVd9n4kcu
p905
I2
sVcylz2m4
p906
I1
sVdfldmji
p907
I5
s.