(dp0
Vd2fscd7
p1
I1
sVdtditxo
p2
I1
sVdeqmbby
p3
I1
sVd3tjpmc
p4
I1
sVd8ldx19
p5
I1
sVdcugnny
p6
I2
sVd9csuln
p7
I1
sVdsgtmer
p8
I1
sVdq6ccxg
p9
I1
sVd098ay7
p10
I1
sVdp8s8r4
p11
I1
sVdms9tdb
p12
I1
s.