(dp0
Vdbev5yx
p1
I1
sVd2vdvtd
p2
I2
sVd2f1nsp
p3
I1
sVdal37ah
p4
I1
sVd2nvxeh
p5
I1
sVdf1cjkm
p6
I1
sVd0rkr8n
p7
I1
sVcyupiii
p8
I1
sVdmvs6vt
p9
I1
sVdibobgd
p10
I1
sVd311xz3
p11
I1
sVdbqstyt
p12
I1
sVd5lsk8a
p13
I1
sVd9u6gl6
p14
I1
sVd6ka6fu
p15
I2
sVdhngxmv
p16
I1
sVde8hgz4
p17
I1
sVczztfzt
p18
I1
sVdg1fh43
p19
I1
sVd1evi38
p20
I1
sVdrm3gok
p21
I1
sVdqg1lg9
p22
I1
sVd0kyio7
p23
I1
sVd9y9cty
p24
I1
sVdntot1q
p25
I1
sVd2dv1yf
p26
I1
sVdbgnr94
p27
I1
sVd3rbtvg
p28
I1
sVdmzbc07
p29
I1
sVdjmj202
p30
I1
sVdq8diw1
p31
I2
sVdetabvk
p32
I1
sVcz5ivcr
p33
I1
sVdqcjxf9
p34
I1
sVcyzl65p
p35
I1
sVdp3wp72
p36
I1
sVdgrvich
p37
I2
sVdt387a8
p38
I1
sVd1l7w7w
p39
I1
sVdgm9izv
p40
I1
sVddvnk2e
p41
I1
sVdbsyvjy
p42
I1
sVd20w58s
p43
I1
sVds4yqc6
p44
I1
sVd02crha
p45
I1
sVda654nz
p46
I1
sVd1i2dun
p47
I1
sVd9yz51h
p48
I1
sVdpnm3lo
p49
I2
sVdfe21ho
p50
I1
sVczvf7my
p51
I1
sVcztsjox
p52
I2
sVd1kyis0
p53
I1
s.