(dp0
Vdcpakf1
p1
I1
sVdd6zl8g
p2
I1
sVdaxhqct
p3
I1
sVcz9iakb
p4
I1
sVdbs5e4w
p5
I1
sVdcuivlp
p6
I1
sVcyrvbl8
p7
I1
sVdk0zznw
p8
I1
sVde3ud7j
p9
I1
sVd7mgthp
p10
I2
sVd526x1n
p11
I2
sVd19p7ky
p12
I1
sVd1ky2t9
p13
I1
sVd5a1rl4
p14
I1
sVdp3s8ew
p15
I3
sVdalw9il
p16
I1
sVcyljwqa
p17
I1
sVdgm5li5
p18
I1
sVd3cxaw9
p19
I1
sVd8xclax
p20
I1
sVcyoi4hh
p21
I1
sVdba4czq
p22
I1
sVdc0ueqe
p23
I1
sVdb51dy2
p24
I1
sVdf5z1ec
p25
I1
sVdf385p2
p26
I1
sVdaw6fgg
p27
I1
sVdkp33y1
p28
I1
sVdnqkapm
p29
I1
sVdkosjy3
p30
I1
sVdavbnpm
p31
I1
sVdiku4as
p32
I1
sVdi8cati
p33
I1
sVdko5lk9
p34
I1
sVcz2nl3x
p35
I1
sVddzch1z
p36
I1
sVda68h66
p37
I1
sVdgori8l
p38
I1
sVdhhg3vz
p39
I1
sVdaxcq34
p40
I3
sVdp1glt7
p41
I1
sVdihd0ud
p42
I1
sVd3133tk
p43
I1
sVd3r8uui
p44
I1
sVdcow27h
p45
I1
sVd5gv42m
p46
I1
sVd2avobt
p47
I1
sVd0tpqdh
p48
I1
sVdkez18g
p49
I1
sVcz7g83m
p50
I5
sVdd017v8
p51
I2
sVczr1fsx
p52
I1
sVd80sff7
p53
I1
sVd897kfy
p54
I1
sVd0d9ljp
p55
I1
sVdkirhoy
p56
I1
sVdt6chs7
p57
I2
sVddutyad
p58
I1
sVd65zz5n
p59
I1
sVd9bz5to
p60
I1
sVd5a4n4y
p61
I1
sVda19cbh
p62
I1
sVd5jzgf7
p63
I1
sVd16tf9o
p64
I1
sVdhvp1x7
p65
I1
sVdprheod
p66
I1
sVczew96n
p67
I1
sVd2u4jne
p68
I1
sVdod0ayh
p69
I1
sVd3c8e2d
p70
I1
sVd31t4eo
p71
I1
sVd92w7da
p72
I1
sVdncr2kq
p73
I1
sVd5ze8vo
p74
I1
sVdf60pt5
p75
I1
sVd8nu6ir
p76
I1
sVd37uxa2
p77
I1
sVdmg7tfr
p78
I1
sVd094e85
p79
I1
sVd0reqbd
p80
I1
sVcz3axc1
p81
I1
sVdb6fks8
p82
I1
sVcyyztqm
p83
I1
sVddr8bbh
p84
I1
sVd5pt74h
p85
I1
sVd7iuvqp
p86
I1
sVdiy9ooz
p87
I1
sVd9xnd4c
p88
I1
sVd5aug4s
p89
I1
sVcylrh4b
p90
I1
sVdk79bv5
p91
I4
sVd5oozqg
p92
I1
sVddhm4pc
p93
I1
sVd1q78k1
p94
I1
sVczg32c1
p95
I1
sVd9ig8at
p96
I1
sVd5tb5ek
p97
I1
sVd5uwl7b
p98
I3
sVde950h4
p99
I1
sVd0m3vs7
p100
I1
sVdj8uvin
p101
I1
sVdjaghmd
p102
I1
sVd77kvs2
p103
I1
sVd2yy866
p104
I1
sVd02p8zz
p105
I1
sVdptwdsu
p106
I1
sVczu5otc
p107
I1
sVd8573qq
p108
I1
sVdh4wnn8
p109
I1
sVd02r6wd
p110
I1
sVd3gf153
p111
I1
sVdoq6dfs
p112
I1
sVd6mpipc
p113
I1
sVdfihx1r
p114
I1
sVd6896vf
p115
I1
sVd205dpf
p116
I1
sVd7eiobz
p117
I1
sVd0lqv3d
p118
I1
sVd6whm1d
p119
I1
sVdklupu8
p120
I1
sVd534ovj
p121
I1
sVd8yty73
p122
I1
sVd4pnhdd
p123
I1
sVd0htwqp
p124
I1
sVdsgqpki
p125
I1
sVd9fw1gn
p126
I1
sVdie3uyy
p127
I1
sVd8yq7ro
p128
I1
sVd8nvb2b
p129
I1
sVd5m3avh
p130
I1
sVdbqvfsy
p131
I1
sVdorugux
p132
I4
sVdf3wsqe
p133
I1
sVczjcllu
p134
I1
sVdnn14so
p135
I1
sVd4l47c3
p136
I1
sVdh5n9aa
p137
I1
sVdcrs2hd
p138
I1
sVdf1xal7
p139
I1
sVd07skfo
p140
I2
sVczh41uz
p141
I1
sVdf90mys
p142
I1
sVd1o62zy
p143
I1
sVdajn1eo
p144
I1
sVdewzvsx
p145
I1
sVd1y70ad
p146
I1
s.