(dp0
Vczqrc1b
p1
I1
s.(dp0
Vczumbzo
p1
I1
sVczqrc1b
p2
I1
s.(dp0
Vczyucw5
p1
I1
sVczqrc1b
p2
I1
s.(dp0
Vd1yvu7n
p1
I1
sVczqrc1b
p2
I1
s.(dp0
Vd3co2vj
p1
I1
sVczqrc1b
p2
I1
s.(dp0
Vd61oju3
p1
I1
sVczqrc1b
p2
I1
s.(dp0
Vd6ebpy1
p1
I1
sVczqrc1b
p2
I1
s.(dp0
Vd7nffsb
p1
I1
sVczqrc1b
p2
I1
s.