(dp0
Vd8k94f5
p1
I1
sVczv8r76
p2
I1
sVd233gxs
p3
I1
sVd6286ae
p4
I1
sVdb8gzor
p5
I1
sVd8do82u
p6
I1
sVdan3ppp
p7
I1
sVddsumml
p8
I1
sVdabhbi1
p9
I1
sVd1a3mz2
p10
I1
sVd6dv3fi
p11
I2
sVdizd5b3
p12
I1
s.