(dp0
Vcznypqv
p1
I1
s.(dp0
Vd0elav7
p1
I1
sVcznypqv
p2
I1
s.(dp0
Vd0kydaq
p1
I1
sVcznypqv
p2
I1
s.(dp0
Vd0xfo4j
p1
I1
sVcznypqv
p2
I1
s.(dp0
Vd1c4lpe
p1
I1
sVcznypqv
p2
I1
s.(dp0
Vd1c4qqj
p1
I1
sVcznypqv
p2
I1
s.(dp0
Vd1qvv3y
p1
I1
sVcznypqv
p2
I1
s.(dp0
Vcznypqv
p1
I1
sVd22pp5g
p2
I1
s.(dp0
Vd36lv9g
p1
I1
sVcznypqv
p2
I1
s.(dp0
Vd44u8oy
p1
I1
sVcznypqv
p2
I1
s.(dp0
Vd4nwpau
p1
I1
sVcznypqv
p2
I1
s.(dp0
Vd6ppxcm
p1
I1
sVcznypqv
p2
I1
s.(dp0
Vd6sng1f
p1
I1
sVcznypqv
p2
I1
s.(dp0
Vd77zlbt
p1
I1
sVcznypqv
p2
I1
s.(dp0
Vcznypqv
p1
I1
sVd81fvjo
p2
I1
s.(dp0
Vd82ta42
p1
I1
sVcznypqv
p2
I1
s.(dp0
Vd8o5tno
p1
I1
sVcznypqv
p2
I1
s.(dp0
Vcznypqv
p1
I1
sVd8ovg24
p2
I1
s.(dp0
Vcznypqv
p1
I1
sVd8ovg24
p2
I1
s.(dp0
Vd8s4xz0
p1
I1
sVcznypqv
p2
I1
s.(dp0
Vd8ufgks
p1
I1
sVcznypqv
p2
I1
s.(dp0
Vd95se22
p1
I1
sVcznypqv
p2
I1
s.(dp0
Vdaxk0hw
p1
I1
sVcznypqv
p2
I1
s.(dp0
Vdaxk0hw
p1
I1
sVcznypqv
p2
I1
s.(dp0
Vdaxk0hw
p1
I1
sVcznypqv
p2
I1
s.(dp0
Vdbl3w4t
p1
I1
sVcznypqv
p2
I1
s.(dp0
Vdbxhnld
p1
I1
sVcznypqv
p2
I1
s.(dp0
Vdbxnffq
p1
I1
sVcznypqv
p2
I1
s.(dp0
Vdc240ab
p1
I1
sVcznypqv
p2
I1
s.(dp0
Vdclnw4s
p1
I1
sVcznypqv
p2
I1
s.(dp0
Vdclnw4s
p1
I1
sVcznypqv
p2
I1
s.(dp0
Vdcspgvs
p1
I1
sVcznypqv
p2
I1
s.(dp0
Vdcvook7
p1
I1
sVcznypqv
p2
I1
s.(dp0
Vdcy98sc
p1
I1
sVcznypqv
p2
I1
s.(dp0
Vdcy98sc
p1
I1
sVcznypqv
p2
I1
s.(dp0
Vdcy98sc
p1
I1
sVcznypqv
p2
I1
s.(dp0
Vdd8zwq1
p1
I1
sVcznypqv
p2
I1
s.(dp0
Vddb0ja2
p1
I1
sVcznypqv
p2
I1
s.(dp0
Vddjarlq
p1
I1
sVcznypqv
p2
I1
s.(dp0
Vddrw8j2
p1
I1
sVcznypqv
p2
I1
s.(dp0
Vder6mcb
p1
I1
sVcznypqv
p2
I1
s.(dp0
Vder75ww
p1
I1
sVcznypqv
p2
I1
s.(dp0
Vder75ww
p1
I1
sVcznypqv
p2
I1
s.(dp0
Vder75ww
p1
I1
sVcznypqv
p2
I1
s.(dp0
Vdev0os3
p1
I1
sVcznypqv
p2
I1
s.(dp0
Vdeyp88a
p1
I1
sVcznypqv
p2
I1
s.(dp0
Vdfs8pwo
p1
I1
sVcznypqv
p2
I1
s.(dp0
Vdgdov8w
p1
I1
sVcznypqv
p2
I1
s.(dp0
Vdgj176t
p1
I1
sVcznypqv
p2
I1
s.(dp0
Vdhn7ia9
p1
I1
sVcznypqv
p2
I1
s.(dp0
Vcznypqv
p1
I1
sVdk96z53
p2
I1
s.(dp0
Vdnp2ime
p1
I1
sVcznypqv
p2
I1
s.(dp0
Vdnqux59
p1
I1
sVcznypqv
p2
I1
s.(dp0
Vdp4sltw
p1
I1
sVcznypqv
p2
I1
s.(dp0
Vdphsevg
p1
I1
sVcznypqv
p2
I1
s.(dp0
Vdqspwaj
p1
I1
sVcznypqv
p2
I1
s.(dp0
Vdrqck3x
p1
I1
sVcznypqv
p2
I1
s.(dp0
Vdt8owkd
p1
I1
sVcznypqv
p2
I1
s.