(dp0
Vd8m1mg4
p1
I1
sVdj5xepg
p2
I1
sVd79k18d
p3
I1
sVczc4opz
p4
I1
sVd8jks0y
p5
I1
sVd05mtft
p6
I1
sVdg5my5n
p7
I1
sVd41ioq0
p8
I1
sVcynmwf0
p9
I1
sVdc7ifhz
p10
I1
sVdk4pphy
p11
I1
sVdgvoc41
p12
I1
sVdgjdni1
p13
I1
sVd4kx4ws
p14
I1
sVdkcts4d
p15
I1
sVddr8bbh
p16
I1
sVd1p2auf
p17
I1
sVdcn8z3d
p18
I1
sVd14buy4
p19
I1
sVdikdgc5
p20
I1
sVdcen7la
p21
I1
s.