(dp0
Vd2hdetk
p1
I1
sVczav3bh
p2
I2
sVdczll9u
p3
I1
sVd5e1esa
p4
I1
sVd04jaht
p5
I1
sVdrhvc4h
p6
I1
sVd4m5bcd
p7
I1
sVdjgdwmc
p8
I1
sVd9bnaad
p9
I1
sVd02lqhc
p10
I2
sVdflpb6v
p11
I1
sVdd3doq2
p12
I1
sVd92ju0x
p13
I1
sVdhcswpm
p14
I1
sVd0e333i
p15
I1
sVd3h0u4b
p16
I1
sVd0xv4fu
p17
I2
sVdbdv1mt
p18
I1
sVd61pikp
p19
I1
sVd0qpxu7
p20
I2
sVda0vgyq
p21
I1
sVdbqlojc
p22
I1
sVd40pfby
p23
I1
sVd8zyi5k
p24
I2
sVdjuzxls
p25
I1
sVdjwrepe
p26
I1
sVdful8b9
p27
I1
sVd3h0qyu
p28
I1
sVd8uo7zj
p29
I1
sVddc52gs
p30
I1
sVdmz74h9
p31
I1
sVd6iapeb
p32
I1
sVd4t5tb5
p33
I1
sVd39yvue
p34
I1
sVddbyfhv
p35
I1
sVd2ct8qh
p36
I1
sVd6i7gki
p37
I1
sVdbncto2
p38
I1
sVdhhaf6e
p39
I1
sVdd3bcfl
p40
I3
sVdg0ryzm
p41
I1
sVdhj9g3k
p42
I1
sVdr18idp
p43
I2
sVdd9szh7
p44
I1
sVcyt0b73
p45
I1
sVd3l7h3m
p46
I1
sVd02ndts
p47
I2
sVdd5smp7
p48
I1
sVdi6fo0c
p49
I2
sVdnmy4w0
p50
I1
sVde5tzqd
p51
I1
sVczku12b
p52
I2
sVd0nrm47
p53
I1
sVdp0qa44
p54
I1
sVd5146vn
p55
I1
sVdheys3u
p56
I1
sVdkjcit8
p57
I1
sVdq3bxov
p58
I2
sVd7h36tn
p59
I1
sVddrkpx4
p60
I1
sVdn8qqly
p61
I1
sVdc6v17d
p62
I2
sVd02r1li
p63
I2
sVdkm9ppy
p64
I1
sVdgt5fur
p65
I1
sVdc5frsp
p66
I1
sVdd321dz
p67
I1
sVdf3ujqd
p68
I1
sVczzw1l2
p69
I1
sVdr9o93a
p70
I2
sVdsnkcjl
p71
I1
sVdoxa4q7
p72
I1
sVdjv0tw5
p73
I1
sVd15pn0c
p74
I1
sVd8jng2h
p75
I1
sVd57x4ey
p76
I1
sVd56dyzk
p77
I1
sVczzuqya
p78
I1
sVd3xfu1p
p79
I1
sVd3rq877
p80
I1
sVd2g8li4
p81
I1
sVd9lgsh0
p82
I1
sVdgkwdwj
p83
I1
sVd036de9
p84
I5
sVdekq96u
p85
I1
sVdn79r5i
p86
I1
sVd15fnz6
p87
I1
sVd40mjgy
p88
I1
sVd0xv15k
p89
I2
sVda779qj
p90
I1
sVdnm132e
p91
I1
sVdb3x3iv
p92
I1
sVd02n3up
p93
I3
sVd28b5iu
p94
I1
sVd3h0hw5
p95
I1
sVd0i6t3z
p96
I1
sVdrbfjad
p97
I1
sVd6i3fg7
p98
I1
sVdfa0ygr
p99
I1
sVd02yaek
p100
I1
sVd0mrto7
p101
I2
sVdi0wbfy
p102
I1
sVdbeqy8s
p103
I2
sVd71tet7
p104
I2
sVdfljxqj
p105
I1
sVd8zx6x4
p106
I1
sVdgsyjw7
p107
I1
sVd8dy4qr
p108
I1
sVd2tawro
p109
I1
sVd9ogonn
p110
I1
sVdelwhfh
p111
I1
sVdfjcp5m
p112
I1
sVd3s6fx2
p113
I1
sVdcahuxt
p114
I1
sVdbqewss
p115
I1
sVd8zyz76
p116
I1
sVd0yuwd5
p117
I1
sVdre3djo
p118
I1
sVdbqfun4
p119
I1
sVdcp6sjc
p120
I2
sVdbdwjwj
p121
I2
sVd8ruozs
p122
I1
sVd6w8a8c
p123
I1
sVd5lzm4l
p124
I2
sVdpm496v
p125
I1
sVdduhkb7
p126
I1
sVdb7s9oy
p127
I2
sVd0i9ipc
p128
I1
sVd9zoemy
p129
I1
sVdhdsvfy
p130
I1
sVd7ne9hn
p131
I1
sVdbdsuw9
p132
I1
sVd02psyn
p133
I2
sVdcbtljj
p134
I1
sVd37cnma
p135
I1
sVdtamksc
p136
I1
sVd9i2zpm
p137
I1
sVcztywbc
p138
I1
sVd38aujf
p139
I1
sVd28wx03
p140
I1
sVdb2202w
p141
I1
sVdhhr1ck
p142
I1
sVd0d2xdo
p143
I1
sVd3v8usj
p144
I1
sVd3nao1v
p145
I1
sVd02ut86
p146
I1
sVdmmblz1
p147
I1
sVdgre1na
p148
I1
sVd4mv9c5
p149
I1
sVd3etyub
p150
I4
sVd02ns59
p151
I1
sVd9htwty
p152
I1
sVd5sxbmm
p153
I2
sVczmz77q
p154
I1
sVdawo3we
p155
I1
s.