(dp0
Vcyhv2uw
p1
I1
s.(dp0
Vcyi19pf
p1
I1
sVcyhv2uw
p2
I1
s.(dp0
Vcyi1n0l
p1
I1
sVcyhv2uw
p2
I1
s.(dp0
Vcyi2vja
p1
I1
sVcyhv2uw
p2
I1
s.(dp0
Vcyi83uc
p1
I1
sVcyhv2uw
p2
I1
s.(dp0
Vcyi83uc
p1
I1
sVcyhv2uw
p2
I1
s.(dp0
Vcyia8vr
p1
I1
sVcyhv2uw
p2
I1
s.(dp0
Vcyia8vr
p1
I1
sVcyhv2uw
p2
I1
s.(dp0
Vcyia8vr
p1
I1
sVcyhv2uw
p2
I1
s.(dp0
Vcyihwz6
p1
I1
sVcyhv2uw
p2
I1
s.(dp0
Vcyinnkq
p1
I1
sVcyhv2uw
p2
I1
s.(dp0
Vcyinnkq
p1
I1
sVcyhv2uw
p2
I1
s.(dp0
Vcyiqjk9
p1
I1
sVcyhv2uw
p2
I1
s.(dp0
Vcyire8b
p1
I1
sVcyhv2uw
p2
I1
s.(dp0
Vcyizpl8
p1
I1
sVcyhv2uw
p2
I1
s.(dp0
Vcyj2ilz
p1
I1
sVcyhv2uw
p2
I1
s.(dp0
Vcyjfu92
p1
I1
sVcyhv2uw
p2
I1
s.(dp0
Vcyjgwjg
p1
I1
sVcyhv2uw
p2
I1
s.(dp0
Vcyjh4es
p1
I1
sVcyhv2uw
p2
I1
s.(dp0
Vcyjiv6t
p1
I1
sVcyhv2uw
p2
I1
s.(dp0
Vcyjmabw
p1
I1
sVcyhv2uw
p2
I1
s.(dp0
Vcyjs9c3
p1
I1
sVcyhv2uw
p2
I1
s.(dp0
Vcyjvw3u
p1
I1
sVcyhv2uw
p2
I1
s.(dp0
Vcyjwdan
p1
I1
sVcyhv2uw
p2
I1
s.(dp0
Vcyjzpop
p1
I1
sVcyhv2uw
p2
I1
s.(dp0
Vcyk0yji
p1
I1
sVcyhv2uw
p2
I1
s.(dp0
Vcyka25q
p1
I1
sVcyhv2uw
p2
I1
s.(dp0
Vcykde5t
p1
I1
sVcyhv2uw
p2
I1
s.(dp0
Vcykebmy
p1
I1
sVcyhv2uw
p2
I1
s.(dp0
Vcykp3ic
p1
I1
sVcyhv2uw
p2
I1
s.(dp0
Vcykqdif
p1
I1
sVcyhv2uw
p2
I1
s.(dp0
Vcyktl0x
p1
I1
sVcyhv2uw
p2
I1
s.(dp0
Vcykx159
p1
I1
sVcyhv2uw
p2
I1
s.(dp0
Vcyl3pv7
p1
I1
sVcyhv2uw
p2
I1
s.(dp0
Vcyl5f9d
p1
I1
sVcyhv2uw
p2
I1
s.(dp0
Vcylaiqt
p1
I1
sVcyhv2uw
p2
I1
s.(dp0
Vcylhqfe
p1
I1
sVcyhv2uw
p2
I1
s.(dp0
Vcyljd92
p1
I1
sVcyhv2uw
p2
I1
s.(dp0
Vcylk68w
p1
I1
sVcyhv2uw
p2
I1
s.(dp0
Vcyln1jr
p1
I1
sVcyhv2uw
p2
I1
s.(dp0
Vcyltn6e
p1
I1
sVcyhv2uw
p2
I1
s.(dp0
Vcyltn6e
p1
I1
sVcyhv2uw
p2
I1
s.(dp0
Vcylufu2
p1
I1
sVcyhv2uw
p2
I1
s.(dp0
Vcylufu2
p1
I1
sVcyhv2uw
p2
I1
s.(dp0
Vcylufu2
p1
I1
sVcyhv2uw
p2
I1
s.(dp0
Vcylvy2e
p1
I1
sVcyhv2uw
p2
I1
s.(dp0
Vcylxjx7
p1
I1
sVcyhv2uw
p2
I1
s.(dp0
Vcym4aos
p1
I1
sVcyhv2uw
p2
I1
s.(dp0
Vcym4aos
p1
I1
sVcyhv2uw
p2
I1
s.(dp0
Vcym57oc
p1
I1
sVcyhv2uw
p2
I1
s.(dp0
Vcym642k
p1
I1
sVcyhv2uw
p2
I1
s.(dp0
Vcym7mge
p1
I1
sVcyhv2uw
p2
I1
s.(dp0
Vcym7mge
p1
I1
sVcyhv2uw
p2
I1
s.(dp0
Vcym7mge
p1
I1
sVcyhv2uw
p2
I1
s.(dp0
Vcymcydb
p1
I1
sVcyhv2uw
p2
I1
s.(dp0
Vcymcydb
p1
I1
sVcyhv2uw
p2
I1
s.(dp0
Vcymeqc0
p1
I1
sVcyhv2uw
p2
I1
s.(dp0
Vcymfaz8
p1
I1
sVcyhv2uw
p2
I1
s.(dp0
Vcymi4jt
p1
I1
sVcyhv2uw
p2
I1
s.(dp0
Vcymi51q
p1
I1
sVcyhv2uw
p2
I1
s.(dp0
Vcymjo7s
p1
I1
sVcyhv2uw
p2
I1
s.(dp0
Vcymkfkx
p1
I1
sVcyhv2uw
p2
I1
s.(dp0
Vcymkfkx
p1
I1
sVcyhv2uw
p2
I1
s.(dp0
Vcymo32h
p1
I1
sVcyhv2uw
p2
I1
s.(dp0
Vcymp1g3
p1
I1
sVcyhv2uw
p2
I1
s.(dp0
Vcymp21r
p1
I1
sVcyhv2uw
p2
I1
s.(dp0
Vcymuae3
p1
I1
sVcyhv2uw
p2
I1
s.(dp0
Vcymuurq
p1
I1
sVcyhv2uw
p2
I1
s.(dp0
Vcymygic
p1
I1
sVcyhv2uw
p2
I1
s.(dp0
Vcyn0gst
p1
I1
sVcyhv2uw
p2
I1
s.(dp0
Vcyn1xy9
p1
I1
sVcyhv2uw
p2
I1
s.(dp0
Vcyn1xy9
p1
I1
sVcyhv2uw
p2
I1
s.(dp0
Vcyncmbq
p1
I1
sVcyhv2uw
p2
I1
s.(dp0
Vcynf4nh
p1
I1
sVcyhv2uw
p2
I1
s.(dp0
Vcynmvlp
p1
I1
sVcyhv2uw
p2
I1
s.(dp0
Vcynrmwy
p1
I1
sVcyhv2uw
p2
I1
s.(dp0
Vcyns41f
p1
I1
sVcyhv2uw
p2
I1
s.(dp0
Vcynva59
p1
I1
sVcyhv2uw
p2
I1
s.(dp0
Vcynwxeb
p1
I1
sVcyhv2uw
p2
I1
s.(dp0
Vcyo21v3
p1
I1
sVcyhv2uw
p2
I1
s.(dp0
Vcyo5lsf
p1
I1
sVcyhv2uw
p2
I1
s.(dp0
Vcyo5lsf
p1
I1
sVcyhv2uw
p2
I1
s.(dp0
Vcyob5h9
p1
I1
sVcyhv2uw
p2
I1
s.(dp0
Vcyob5h9
p1
I1
sVcyhv2uw
p2
I1
s.(dp0
Vcyogjvz
p1
I1
sVcyhv2uw
p2
I1
s.(dp0
Vcyoo6gg
p1
I1
sVcyhv2uw
p2
I1
s.(dp0
Vcyoxbht
p1
I1
sVcyhv2uw
p2
I1
s.(dp0
Vcyp4fn5
p1
I1
sVcyhv2uw
p2
I1
s.(dp0
Vcyp5acq
p1
I1
sVcyhv2uw
p2
I1
s.(dp0
Vcyp6dp3
p1
I1
sVcyhv2uw
p2
I1
s.(dp0
Vcyp8bo7
p1
I1
sVcyhv2uw
p2
I1
s.(dp0
Vcypbd0a
p1
I1
sVcyhv2uw
p2
I1
s.(dp0
Vcypjkjh
p1
I1
sVcyhv2uw
p2
I1
s.(dp0
Vcypp03h
p1
I1
sVcyhv2uw
p2
I1
s.(dp0
Vcypqh27
p1
I1
sVcyhv2uw
p2
I1
s.(dp0
Vcypr8nk
p1
I1
sVcyhv2uw
p2
I1
s.(dp0
Vcyqb0al
p1
I1
sVcyhv2uw
p2
I1
s.(dp0
Vcyqbzt1
p1
I1
sVcyhv2uw
p2
I1
s.(dp0
Vcyqfef1
p1
I1
sVcyhv2uw
p2
I1
s.(dp0
Vcyql8z1
p1
I1
sVcyhv2uw
p2
I1
s.(dp0
Vcyqyepz
p1
I1
sVcyhv2uw
p2
I1
s.(dp0
Vcyr028t
p1
I1
sVcyhv2uw
p2
I1
s.(dp0
Vcyr5qsz
p1
I1
sVcyhv2uw
p2
I1
s.(dp0
Vcyr6bl9
p1
I1
sVcyhv2uw
p2
I1
s.(dp0
Vcyr6lrc
p1
I1
sVcyhv2uw
p2
I1
s.(dp0
Vcyrjcid
p1
I1
sVcyhv2uw
p2
I1
s.(dp0
Vcyrqi62
p1
I1
sVcyhv2uw
p2
I1
s.(dp0
Vcys6423
p1
I1
sVcyhv2uw
p2
I1
s.(dp0
Vcy(dp0
Vdtjmlgh
p1
I1
sVcyhv2uw
p2
I1
s.