(dp0
Vd39znea
p1
I1
sVdenm9lb
p2
I1
sVdepb4k4
p3
I1
sVdpf3wnx
p4
I1
sVd2kx9d6
p5
I2
sVdhxab8s
p6
I1
sVdj6l7rf
p7
I1
sVds84wuk
p8
I1
sVd9uvihj
p9
I1
sVd9zii4n
p10
I1
sVdf0m7ba
p11
I1
sVd4l9zpa
p12
I2
sVdncfiur
p13
I1
sVd0rg82m
p14
I1
sVdd28oq6
p15
I1
sVdfrkdye
p16
I2
sVd4er9z5
p17
I1
sVd2w9oul
p18
I2
sVdaip7js
p19
I1
sVdok7g92
p20
I1
sVd2ih6kp
p21
I2
sVd0zowt2
p22
I1
sVdig3whu
p23
I2
sVd2tfin2
p24
I2
sVdd8nkgd
p25
I1
sVd68u0hz
p26
I2
sVdjggydc
p27
I1
sVd8lugc4
p28
I2
sVdhyk727
p29
I1
sVd2awona
p30
I1
sVd9bq69v
p31
I1
sVdowg4px
p32
I1
sVd3xe7sj
p33
I1
sVdk6ap7a
p34
I1
sVd3fn663
p35
I1
sVd9x5nw4
p36
I3
sVdr4ivc2
p37
I1
sVdby34mb
p38
I1
sVde2e6kk
p39
I1
sVd93hb9e
p40
I1
sVd8ywv1c
p41
I1
sVdgj2xdc
p42
I1
sVdddnw52
p43
I1
sVdbobgho
p44
I1
sVdms7ymo
p45
I1
sVdpyk6fi
p46
I1
sVd75pqcd
p47
I3
sVd7a03rn
p48
I1
sVd2o3luj
p49
I1
sVdat2zf7
p50
I1
sVd6p2orr
p51
I1
sVcz7pvst
p52
I1
sVd2crznk
p53
I1
sVdim9ffg
p54
I2
sVdd3mwlp
p55
I1
sVd8kd4v4
p56
I1
sVdaoqe7k
p57
I1
sVdb0owb0
p58
I1
sVd5ovayj
p59
I1
sVd6qfuwc
p60
I1
sVdoobnii
p61
I1
sVd6hos6r
p62
I1
sVd09p0ah
p63
I1
sVd1fy9vo
p64
I1
sVd8iw667
p65
I1
sVd7r0z3j
p66
I1
sVdff8fc1
p67
I1
sVd5fqoit
p68
I4
sVdaclpfe
p69
I2
sVcymkfkx
p70
I2
sVdod9muc
p71
I1
sVcywoa3h
p72
I1
sVd8w70bc
p73
I1
sVdn3mqw8
p74
I1
sVddpcfbi
p75
I1
sVd24yje1
p76
I1
sVd9rbib0
p77
I1
sVd6aktsn
p78
I3
sVdj7h4vt
p79
I1
sVd8m0gj5
p80
I2
sVdici3tk
p81
I2
sVdjemhh5
p82
I2
sVdj5cfq8
p83
I1
sVdj7dv3u
p84
I2
sVdr1t1au
p85
I1
sVdfbho0r
p86
I1
sVd8jggw2
p87
I1
sVdfup5il
p88
I2
sVdcy97bb
p89
I1
sVdfvhgfg
p90
I1
sVd0sktcv
p91
I1
sVd1ldrru
p92
I1
sVdkdybki
p93
I1
sVdhummhb
p94
I2
sVdtf5kt9
p95
I2
sVdqsnwjr
p96
I1
sVcyxq79x
p97
I1
sVdp76yrk
p98
I1
sVdddm67p
p99
I1
sVd9q29bl
p100
I1
sVd3gozmo
p101
I1
sVdb27ljw
p102
I1
sVdneg3oh
p103
I1
sVdsusdxf
p104
I1
sVdc7ktv8
p105
I1
sVcyjwdan
p106
I1
sVczw8ct5
p107
I1
sVczhf1mr
p108
I1
sVdr7rg0m
p109
I1
sVd0q54ix
p110
I1
sVdnssesj
p111
I1
sVd5fvin5
p112
I1
sVd55v6jf
p113
I1
sVdn40kxf
p114
I1
sVdq3jbmp
p115
I1
sVdq4z85d
p116
I1
sVde2s7q1
p117
I1
sVd3z7w7o
p118
I1
sVdfmno40
p119
I1
sVcz051b4
p120
I2
sVcynrmwy
p121
I1
sVdel1yow
p122
I1
sVd0m280o
p123
I1
sVcyqyepz
p124
I1
sVczgno0b
p125
I1
sVdepenhh
p126
I1
sVd0hbu93
p127
I1
sVdha92vl
p128
I2
sVdgcvhhh
p129
I1
sVdbuxgne
p130
I1
sVdh0uhaf
p131
I2
sVdsemy4n
p132
I1
sVd1dysmp
p133
I1
sVd8f0v4c
p134
I1
sVdc63uty
p135
I1
sVd7hmv02
p136
I1
sVd04u153
p137
I3
sVdbh4qoe
p138
I2
sVdj6t79f
p139
I1
sVdeve010
p140
I1
sVdkvmeel
p141
I1
sVdg36gmz
p142
I2
sVd9r08wp
p143
I1
sVdjqupwl
p144
I1
sVd8vt5zm
p145
I1
sVdp9top2
p146
I3
sVd5d5izj
p147
I1
sVdhynxz1
p148
I2
sVdndtn0e
p149
I1
sVdkd2v28
p150
I1
sVd65czj7
p151
I3
sVdgori8l
p152
I1
sVd0asuk1
p153
I1
sVcyx9oxq
p154
I1
sVczqm233
p155
I1
sVdbzp6a6
p156
I1
sVcykebmy
p157
I1
sVd1znq9g
p158
I1
sVd4141yi
p159
I1
sVdkpai0u
p160
I1
sVd3dqfd1
p161
I1
sVd272i8f
p162
I1
sVd5g8hyy
p163
I1
sVdevryzb
p164
I1
sVd7c4vjw
p165
I2
sVd20rdyh
p166
I1
sVd7x41hx
p167
I1
sVd1gk9nw
p168
I1
sVdsvrces
p169
I1
sVd3yf48u
p170
I2
sVd0f0cey
p171
I1
sVd1kr72c
p172
I2
sVd4evzeh
p173
I1
sVdhhunge
p174
I1
sVcyp5acq
p175
I1
sVdd0pde7
p176
I1
sVdjedv6z
p177
I1
sVd0z3t5u
p178
I1
sVd5hxlcr
p179
I1
sVd1nz0s9
p180
I1
sVd0bb49y
p181
I1
sVdbuis44
p182
I1
sVddp7rfl
p183
I4
sVdmvhwcd
p184
I1
sVd2pbpvb
p185
I1
sVd8ltkvc
p186
I2
sVd2pd58e
p187
I1
sVdqyuycq
p188
I1
sVd0y82t1
p189
I1
sVdaqar4i
p190
I1
sVdkam5cs
p191
I1
sVdd3ffuo
p192
I1
sVdoohox4
p193
I1
sVd3ldjbr
p194
I1
sVd5texg8
p195
I1
sVdciwxwn
p196
I1
sVdiulj1w
p197
I1
sVdaerfdk
p198
I1
sVdgadwdk
p199
I1
sVd85on86
p200
I1
sVdjor66m
p201
I1
sVdidp564
p202
I1
sVd6j2j1j
p203
I2
sVdgt0l29
p204
I1
sVdeet3un
p205
I1
sVdeevux1
p206
I1
sVcznelah
p207
I1
sVd9c3cqs
p208
I1
sVd0op0j1
p209
I1
sVd12ftf3
p210
I1
sVd1nnimm
p211
I1
sVd7b2ljx
p212
I2
sVdjsibmq
p213
I1
sVd5zoip1
p214
I1
sVdsgpkjh
p215
I1
sVd6pvhv6
p216
I1
sVd9600e2
p217
I1
sVdika4kj
p218
I1
sVdatwdon
p219
I3
sVdbe5b6j
p220
I1
sVdeg7wrb
p221
I1
sVdnqq8f9
p222
I1
sVdplau66
p223
I1
sVdhft0cl
p224
I1
sVd44y0et
p225
I1
sVd2h7flw
p226
I2
sVdiai7n8
p227
I1
sVdi3u9hq
p228
I1
sVd4fwh3f
p229
I1
sVd28crus
p230
I2
sVd5arylx
p231
I1
sVd72gelr
p232
I1
sVcyx3zlo
p233
I1
sVd1gamqg
p234
I1
sVdazgtae
p235
I1
sVd2wfnrp
p236
I1
sVdg1m8q9
p237
I1
sVd6x2c68
p238
I1
sVdqt1b09
p239
I1
sVd6tg2mf
p240
I1
sVdcz40lb
p241
I1
sVd5n7ffw
p242
I1
sVd82ucr4
p243
I1
sVdfm56xt
p244
I1
sVd75z6nk
p245
I1
sVd4d6pqr
p246
I1
sVd5w5i4d
p247
I1
sVdd6n5sq
p248
I1
sVd53z2oy
p249
I4
sVd2yl29a
p250
I1
sVd7xn7rj
p251
I1
sVczhdz6s
p252
I1
sVd2y9wyl
p253
I3
sVd6g0jtf
p254
I1
sVd0l32n2
p255
I1
sVdf7xblh
p256
I2
sVdqdrn0l
p257
I1
sVd1p8rz8
p258
I4
sVdnk91w6
p259
I1
sVdj2au9b
p260
I1
sVdrueovi
p261
I2
sVdca30ka
p262
I1
sVd8xloqo
p263
I2
sVdmvskuk
p264
I2
sVd7xqqtj
p265
I1
sVd90jfbe
p266
I1
sVds38zsv
p267
I1
sVd14ysqz
p268
I1
sVd7ua8i8
p269
I1
sVd0lm83b
p270
I2
sVdmentze
p271
I1
sVcz27hvo
p272
I1
sVd5fm3mn
p273
I2
sVda8dy1n
p274
I1
sVcywi54c
p275
I1
sVdkv2v8i
p276
I1
sVd8t0btc
p277
I1
sVd1aieel
p278
I1
sVd7urkpt
p279
I1
sVdi4y549
p280
I2
sVd8z7o1x
p281
I1
sVdnkn9m7
p282
I1
sVd03snja
p283
I1
sVd54cwdn
p284
I1
sVd0em3pd
p285
I1
sVdo8frm6
p286
I1
sVdsre5li
p287
I1
sVd65yner
p288
I1
sVdevs0w1
p289
I3
sVdfbbni1
p290
I1
sVdksd12z
p291
I1
sVd2y8tns
p292
I1
sVdgo0ei2
p293
I2
sVd5meoob
p294
I1
sVdj3ylso
p295
I1
sVdtdh5dz
p296
I1
sVd2l38l9
p297
I1
sVd0w9tad
p298
I1
sVdfz46xh
p299
I1
sVdgpatvy
p300
I2
sVdr1wab7
p301
I1
sVdrgb8y4
p302
I2
sVcyw1891
p303
I1
sVdkp62e2
p304
I1
sVdcnm565
p305
I1
sVdge158u
p306
I1
sVd2tbyu4
p307
I1
sVczq9584
p308
I1
sVcynf4nh
p309
I1
sVdjoo7os
p310
I1
sVd5vp40t
p311
I1
sVd7qt9fm
p312
I1
sVd18cup5
p313
I1
sVdb0t7vk
p314
I3
sVdjogl4z
p315
I1
sVdc5czin
p316
I1
sVdayzn7s
p317
I1
sVd1yu09y
p318
I1
sVdnmbyhd
p319
I3
sVdatd3jn
p320
I1
sVd74tr01
p321
I1
sVdf7l4h7
p322
I1
sVd3izk7q
p323
I1
sVdcep55r
p324
I1
sVdrul9da
p325
I3
sVdj23nza
p326
I1
sVdd204fn
p327
I1
sVd464bh2
p328
I2
sVd7ccwf4
p329
I2
sVd8tvjj2
p330
I1
sVds7wgvq
p331
I1
sVd8u7syg
p332
I1
sVd0phkm9
p333
I3
sVd0gv7v8
p334
I1
sVdiod4ls
p335
I1
sVddyiqj3
p336
I1
sVdfhawwc
p337
I1
sVd99xsu5
p338
I1
sVd3f8csz
p339
I2
sVd5d2f3s
p340
I1
sVdk6nv72
p341
I1
sVdqf5aii
p342
I1
sVdh7aew5
p343
I1
sVczi904l
p344
I1
sVdgtmvnx
p345
I1
sVdfnrjgv
p346
I1
sVd9z0nrd
p347
I1
sVdaig3re
p348
I1
sVddvfvot
p349
I1
sVdpyb8sy
p350
I1
sVd7k9ws5
p351
I2
sVd9fgjwn
p352
I1
sVd9n62jq
p353
I1
sVd0vfnxb
p354
I1
sVdhumivk
p355
I2
sVd6z84n3
p356
I1
sVcyqbzt1
p357
I1
sVcytrp61
p358
I1
sVd2vohpv
p359
I1
sVd2ohb4r
p360
I1
sVd9jftp8
p361
I1
sVd0eqc5t
p362
I1
sVds9za4w
p363
I3
sVd3ii377
p364
I1
sVdqkja30
p365
I1
sVdtj19y9
p366
I1
sVdk2lm6p
p367
I1
sVdi8f9fm
p368
I4
sVd2ugsuz
p369
I1
sVdaek6uz
p370
I1
sVczslh72
p371
I1
sVdh5fspw
p372
I1
sVdf7vg99
p373
I1
sVdanrukn
p374
I2
sVd9ib7t8
p375
I1
sVd72d3bm
p376
I1
sVd2wij9v
p377
I2
sVd42v2db
p378
I1
sVdpcofd6
p379
I1
sVd2rdlfo
p380
I1
sVdkqjzwb
p381
I3
sVcz782ha
p382
I1
sVd29ldaw
p383
I1
sVdt3dudu
p384
I1
sVd6ur9ks
p385
I1
sVd5bq11u
p386
I2
sVde77zia
p387
I1
sVdhv8f5f
p388
I1
sVd2f69co
p389
I1
sVd81fvjo
p390
I1
sVdt0curn
p391
I1
sVdoemv68
p392
I1
sVdaw6fgg
p393
I1
sVdi77ji1
p394
I1
sVcz9908k
p395
I1
sVcynmvlp
p396
I1
sVd1ig13e
p397
I3
sVdfq6q1q
p398
I1
sVd89he7t
p399
I1
sVdnehzc7
p400
I3
sVdgrvzti
p401
I1
sVd1qju5v
p402
I1
sVd64jbnj
p403
I1
sVd8d7290
p404
I1
sVdspyokw
p405
I1
sVdfnmch6
p406
I1
sVd7az7d4
p407
I1
sVdbo2g38
p408
I1
sVdcbrzp4
p409
I2
sVdppv9ic
p410
I4
sVd1ftlvv
p411
I1
sVdf7rky1
p412
I2
sVde97t0g
p413
I1
sVddld7gt
p414
I1
sVdn4qp5w
p415
I1
sVdd3ikf8
p416
I1
sVd7z59t0
p417
I5
sVd9bqd13
p418
I1
sVdb2a1s4
p419
I1
sVd36unbe
p420
I1
sVdcecof3
p421
I1
sVdnl3a5s
p422
I1
sVddohf9j
p423
I5
sVd2f1nsp
p424
I1
sVdqg1ooj
p425
I1
sVd3yr0j6
p426
I1
sVd3gkcek
p427
I2
sVd3g25qf
p428
I1
sVd73hguh
p429
I1
sVd28ois4
p430
I1
sVd26ozw1
p431
I1
sVdqqzxdc
p432
I2
sVd0grglw
p433
I1
sVd8sef20
p434
I1
sVdk4dkfb
p435
I1
sVd5nhw06
p436
I1
sVd5urfdi
p437
I1
sVd1shetm
p438
I1
sVd7momxk
p439
I1
sVdntmxg9
p440
I1
sVdj2me9u
p441
I1
sVdoypwxa
p442
I1
sVddd68if
p443
I1
sVd73grb0
p444
I1
sVdqq7ich
p445
I1
sVd358ajy
p446
I1
sVcyo21v3
p447
I1
sVdiesht9
p448
I1
sVd562vqr
p449
I1
sVd47177m
p450
I1
sVd884dod
p451
I1
sVd1bp5fi
p452
I2
sVdhwtsxf
p453
I1
sVddbphmd
p454
I1
sVd76l1ct
p455
I1
sVd6vhwi6
p456
I2
sVczzxh4g
p457
I4
sVdg750pw
p458
I2
sVdd866er
p459
I1
sVdmrb4bc
p460
I1
sVcz92ouu
p461
I1
sVd1cpxnc
p462
I1
sVdr0aa9g
p463
I1
sVcytr9xx
p464
I1
sVd0mcb9l
p465
I1
sVcyizpl8
p466
I1
sVd2w8ezh
p467
I1
sVd0tf3vr
p468
I1
sVd3kndug
p469
I4
sVd1d3i81
p470
I1
sVcymo32h
p471
I1
sVdepk253
p472
I1
sVddwrcsq
p473
I1
sVcz6gblh
p474
I1
sVcz1m6sl
p475
I1
sVdqfkcc6
p476
I1
sVdpiym0j
p477
I1
sVd049uxs
p478
I1
sVdnoum54
p479
I1
sVdd17cl6
p480
I1
sVd2j989r
p481
I1
sVd56g3dq
p482
I1
sVdtdbxji
p483
I1
sVddv6sx4
p484
I1
sVd3lnfni
p485
I3
sVd5lz3mf
p486
I4
sVd6zuful
p487
I1
sVdap30bd
p488
I1
sVde8ghkh
p489
I1
sVd35oz9b
p490
I1
sVd7qcw3v
p491
I3
sVdqffzp4
p492
I1
sVd7e5mo0
p493
I3
sVdao9k4p
p494
I1
sVd3uomat
p495
I2
sVdrgd3qv
p496
I2
sVd7yfp1j
p497
I1
sVd1ljlzf
p498
I1
sVdh4i01t
p499
I1
sVdcw32jz
p500
I2
sVd73fmyc
p501
I1
sVd297mqf
p502
I2
sVczoikwm
p503
I1
sVd76nkv9
p504
I1
sVczzcrbm
p505
I1
sVd5zoc0b
p506
I2
sVd3r9cpd
p507
I2
sVdjktk68
p508
I1
sVd0rhie2
p509
I1
sVdizema9
p510
I1
sVd0yyw1g
p511
I1
sVdowml4y
p512
I1
sVdjhxbmx
p513
I1
sVd8u048i
p514
I1
sVdopbemf
p515
I2
sVdgo1w3a
p516
I1
sVda38aw0
p517
I1
sVdes9abt
p518
I1
sVdj8fhpr
p519
I1
sVd7yedfp
p520
I2
sVdja3hkl
p521
I1
sVd92h6vd
p522
I1
sVdjm2m8s
p523
I1
sVd9l5yym
p524
I1
sVd9x6woy
p525
I2
sVdh4mhnr
p526
I1
sVd5qx9qa
p527
I2
sVd7vrdg3
p528
I1
sVdhc20qn
p529
I1
sVcyoo6gg
p530
I1
sVdn821wc
p531
I1
sVd1tfoz0
p532
I1
sVda9szco
p533
I1
sVd5rdnin
p534
I2
sVdc2raaq
p535
I2
sVd01l7mi
p536
I1
sVdqmwwjs
p537
I1
sVdhxweof
p538
I1
sVcyzs442
p539
I1
sVdjheks5
p540
I2
sVdc5iszo
p541
I1
sVd8svvg1
p542
I1
sVd482mqr
p543
I1
sVd83ohjl
p544
I1
sVdnofmc2
p545
I1
sVd84amio
p546
I1
sVd2gb2h0
p547
I1
sVd8a7b8f
p548
I5
sVdd0orbq
p549
I1
sVd3f91g5
p550
I1
sVd8520ci
p551
I1
sVd4q1c58
p552
I1
sVcym57oc
p553
I1
sVd1bvj7q
p554
I1
sVcz7rro9
p555
I1
sVdkf40jm
p556
I1
sVd2kkaz8
p557
I1
sVdgdswqr
p558
I1
sVd7o5gjz
p559
I1
sVd8884xo
p560
I1
sVd0z4nkt
p561
I1
sVd9eg521
p562
I2
sVd4jmtjs
p563
I1
sVdi4ezmw
p564
I1
sVd0fl5ni
p565
I1
sVdqff5ib
p566
I1
sVd0m4cxi
p567
I2
sVd7zqiha
p568
I1
sVd7qo9tl
p569
I1
sVdmui2vi
p570
I1
sVczjnnvh
p571
I1
sVd7b30hi
p572
I1
sVd7m4eje
p573
I1
sVdc6henx
p574
I1
sVdib5hb8
p575
I1
sVcywolkz
p576
I2
sVd310vdu
p577
I1
sVdb5qftp
p578
I4
sVd51h049
p579
I1
sVdk64w3u
p580
I1
sVdeyjc51
p581
I1
sVd4urarx
p582
I1
sVd1nv9p0
p583
I1
sVd9ee31h
p584
I2
sVd76n09f
p585
I1
sVdcpi5js
p586
I1
sVcym7mge
p587
I3
sVd3h7wnj
p588
I1
sVd05fvbv
p589
I1
sVd0t6ak6
p590
I1
sVdt608hr
p591
I1
sVdsfx4vv
p592
I2
sVdgmnqza
p593
I2
sVdcfi0ug
p594
I2
sVdcauw4a
p595
I1
sVdcnb4ef
p596
I1
sVd6b2ok7
p597
I1
sVd35fc8k
p598
I2
sVdftkbqc
p599
I1
sVdk62ftl
p600
I2
sVdmfy7bl
p601
I1
sVd8sj7yr
p602
I1
sVdo67yiz
p603
I1
sVdfyxyn4
p604
I1
sVd31hc5s
p605
I1
sVdd6t358
p606
I2
sVcz3i2ua
p607
I1
sVdetdo6c
p608
I1
sVd746tgr
p609
I1
sVdpjb5s4
p610
I1
sVdnm24ea
p611
I1
sVdeptw3w
p612
I1
sVdh8mgjw
p613
I1
sVdkxva61
p614
I1
sVd1g57ku
p615
I1
sVd4glrwk
p616
I1
sVdpcci3l
p617
I1
sVdqzw74j
p618
I1
sVdioa50l
p619
I1
sVdnm9w37
p620
I1
sVdj800h7
p621
I3
sVdjvchr5
p622
I1
sVdmr43zw
p623
I1
sVde1u6do
p624
I2
sVdg0hnnm
p625
I1
sVd3w0vcu
p626
I1
sVcz4p884
p627
I1
sVd675ral
p628
I1
sVdelodgy
p629
I1
sVd15l54q
p630
I1
sVd34x68e
p631
I3
sVdbn4gts
p632
I1
sVd33dbaq
p633
I1
sVdco6esh
p634
I1
sVdoobhhn
p635
I1
sVdkfsvn4
p636
I1
sVdkleu7m
p637
I1
sVd54pm4l
p638
I2
sVdjxxfev
p639
I1
sVdj3h9h9
p640
I1
sVd6rjnsh
p641
I1
sVddct9d1
p642
I1
sVdnhe3as
p643
I1
sVddsoq96
p644
I1
sVdcqae29
p645
I1
sVda6ot66
p646
I1
sVd1kodme
p647
I1
sVdgq521l
p648
I1
sVcz6xdvv
p649
I1
sVcyt1pqn
p650
I1
sVd9bqg1j
p651
I1
sVd5qct4h
p652
I1
sVd609cmw
p653
I1
sVd1nblvs
p654
I1
sVdcv7xq2
p655
I1
sVdijdclj
p656
I1
sVd5ok934
p657
I2
sVdieqfto
p658
I1
sVd0adsdx
p659
I1
sVddre6zv
p660
I2
sVd14qfky
p661
I1
sVdhhjkzj
p662
I1
sVd62q25a
p663
I1
sVdpa35x3
p664
I1
sVdmxnuot
p665
I1
sVddba0xq
p666
I1
sVdhcem3b
p667
I2
sVdjkqezr
p668
I2
sVdh2ddvn
p669
I1
sVd28h8cj
p670
I1
sVd7h7tf4
p671
I1
sVdjh7po2
p672
I1
sVdozeftu
p673
I1
sVdcww31f
p674
I1
sVdbr316k
p675
I3
sVdoe847m
p676
I1
sVd9xkzzz
p677
I2
sVdrucnot
p678
I1
sVd0ddzn6
p679
I1
sVdii82v0
p680
I2
sVd31om5v
p681
I1
sVd6dk2zd
p682
I1
sVdhmaos7
p683
I1
sVdefcoxz
p684
I1
sVda1pn8a
p685
I1
sVda2vot9
p686
I1
sVd7tfd1i
p687
I2
sVdndja4d
p688
I2
sVd8hjfgu
p689
I1
sVd6boapi
p690
I1
sVdkiob2f
p691
I2
sVdos2y52
p692
I1
sVdn82osb
p693
I1
sVd460mjt
p694
I3
sVds20w40
p695
I3
sVd69rx28
p696
I1
sVdofyxnu
p697
I2
sVdd9exot
p698
I2
sVdetvtru
p699
I1
sVdnfngrg
p700
I2
sVdn14lpd
p701
I4
sVdhiyulk
p702
I1
sVdn2ru7a
p703
I1
sVdcgjsc4
p704
I1
sVdn0y4yy
p705
I2
sVd2c3x5l
p706
I1
sVczzijc5
p707
I1
sVdkyb3fn
p708
I1
sVd3vfrbo
p709
I1
sVd92vnly
p710
I1
sVd8pybxg
p711
I3
sVdibjq6m
p712
I1
sVdfbz6ft
p713
I2
sVdag240l
p714
I3
sVdocaiho
p715
I2
sVd76nmrb
p716
I2
sVddzv13l
p717
I1
sVczzu82y
p718
I1
sVd9hqq5o
p719
I1
sVdjxvidb
p720
I1
sVdd0w3bj
p721
I1
sVd4p8sat
p722
I2
sVd02lnjh
p723
I1
sVdi8uun6
p724
I1
sVd4gmzri
p725
I1
sVd1yb91s
p726
I1
sVdtgpgw4
p727
I1
sVddjs6z3
p728
I1
sVd0zr9oi
p729
I3
sVdio1gdp
p730
I1
sVdftismi
p731
I1
sVd3oht8u
p732
I1
sVd0390it
p733
I1
sVdjzl143
p734
I1
sVdqfgcql
p735
I1
sVdcug2hj
p736
I1
sVdk79tp3
p737
I3
sVdnqhp8f
p738
I2
sVd70rvso
p739
I1
sVcz8kcln
p740
I1
sVdsyuhup
p741
I1
sVd2qffqj
p742
I4
sVdgezkut
p743
I1
sVd2nr6hi
p744
I1
sVdh7u3i1
p745
I1
sVczt1snn
p746
I1
sVdmvzurd
p747
I1
sVd5giklg
p748
I1
sVd2c9wfw
p749
I1
sVdccbwy8
p750
I3
sVderiqg6
p751
I1
sVd3zgkcq
p752
I1
sVd5bt2n1
p753
I1
sVdfi6rv6
p754
I1
sVdn125v5
p755
I2
sVd5ihkgh
p756
I1
sVdrd9hlo
p757
I1
sVd3gtigx
p758
I1
sVd5fk405
p759
I1
sVds9q23c
p760
I2
sVd0npdbm
p761
I2
sVdnzdo2m
p762
I1
sVdj3soph
p763
I1
sVdcrbkwl
p764
I1
sVdjbmzb3
p765
I1
sVd9ugfai
p766
I1
sVddetnje
p767
I1
sVd1lf4jj
p768
I2
sVdic3shr
p769
I1
sVdbc9y5s
p770
I1
sVdha1v76
p771
I1
sVdriirxg
p772
I1
sVdkosjy3
p773
I1
sVcyy0ca3
p774
I1
sVde9xejo
p775
I1
sVd50abpf
p776
I1
sVczs1165
p777
I1
sVd6h8ajz
p778
I1
sVdglhixe
p779
I1
sVd2kdzgi
p780
I1
sVdhs75da
p781
I1
sVd8betgb
p782
I2
sVdcmwxmp
p783
I1
sVd1mi51l
p784
I1
sVdghrx3s
p785
I2
sVdkxcbph
p786
I1
sVdetqbmo
p787
I1
sVd3d0995
p788
I1
sVczzpj3e
p789
I2
sVdcuehtn
p790
I1
sVczt8m7t
p791
I1
sVdpifgs8
p792
I1
sVd73m8z7
p793
I1
sVcyypyo6
p794
I1
sVddnpfju
p795
I1
sVdbo9c20
p796
I1
sVdmhwt7i
p797
I1
sVdgagr7b
p798
I3
sVd38alnz
p799
I2
sVd1lv5mj
p800
I1
sVdjzdd2j
p801
I2
sVd30ymad
p802
I1
sVd3kmdsn
p803
I1
sVdjnyeb2
p804
I1
sVd4mlev1
p805
I1
sVd4qwj9h
p806
I1
sVd9nhk9j
p807
I2
sVdf5lbyl
p808
I1
sVdmopjmc
p809
I1
sVd13rku4
p810
I1
sVda5xnjr
p811
I1
sVczm3x5n
p812
I1
sVdh0kmz2
p813
I1
sVdk8f3d7
p814
I2
sVdfzjgm3
p815
I1
sVd2a82nj
p816
I1
sVd6hbss0
p817
I2
sVd0gx4xl
p818
I1
sVd25c19y
p819
I2
sVddeysgq
p820
I1
sVd1dxeag
p821
I2
sVd3p0uss
p822
I1
sVd2ic2pk
p823
I1
sVd5g42ja
p824
I1
sVdb3sm8h
p825
I1
sVd9dj3cz
p826
I1
sVdpcdrzj
p827
I1
sVdbnmp7w
p828
I3
sVdk6a0xd
p829
I1
sVdrrqx73
p830
I1
sVd9ezfrk
p831
I1
sVcypqh27
p832
I1
sVd91f4s3
p833
I1
sVcziglvc
p834
I1
sVdqw7tot
p835
I1
sVdd9jmwh
p836
I1
sVd3qy7io
p837
I1
sVdj9hmee
p838
I1
sVd9xigtz
p839
I1
sVd9bnfx8
p840
I1
sVczc3jyi
p841
I2
sVd91wrtq
p842
I1
sVdarkwci
p843
I1
sVdhdgfw8
p844
I1
sVd35dcom
p845
I1
sVd5ajr03
p846
I1
sVdd2da4e
p847
I1
sVds1cs16
p848
I4
sVdnu93w3
p849
I2
sVd1pboia
p850
I1
sVdb8tx8i
p851
I1
sVdhpfd1y
p852
I1
sVcysfh4g
p853
I1
sVdfklbkz
p854
I1
sVd0ejowh
p855
I1
sVd3e0pth
p856
I1
sVd8gqcbx
p857
I1
sVd3yiw0o
p858
I1
sVdmvz6sm
p859
I1
sVd59bnoa
p860
I1
sVdn6uvwj
p861
I1
sVdewbo4u
p862
I1
sVd54rex7
p863
I1
sVcyjfu92
p864
I1
sVdifsaum
p865
I1
sVdsgqeh0
p866
I1
sVdr17v8w
p867
I1
sVdbzzzgf
p868
I1
sVdi09moa
p869
I1
sVdczn3mr
p870
I2
sVdo261gj
p871
I1
sVd4e9v7s
p872
I1
sVdsuoq9f
p873
I1
sVdnt8zep
p874
I2
sVcyp4fn5
p875
I1
sVd03oq9e
p876
I1
sVczkblve
p877
I1
sVdsryumw
p878
I1
sVdn97s6c
p879
I1
sVdmka5se
p880
I1
sVdjlesni
p881
I1
sVdge3bkf
p882
I2
sVcywo55c
p883
I1
sVde2yuoy
p884
I1
sVdq1voft
p885
I1
sVd1hcxwk
p886
I1
sVd13fdur
p887
I1
sVdqas9mx
p888
I1
sVd7lu2jt
p889
I1
sVd01jox3
p890
I1
sVd7gknsi
p891
I1
sVdegyppu
p892
I1
sVczwh8mr
p893
I1
sVdjrdcuj
p894
I1
sVdsa1np4
p895
I2
sVdnh411z
p896
I1
sVdgu7z90
p897
I1
sVdglvvhd
p898
I3
sVddzkjro
p899
I2
sVdcl7dey
p900
I1
sVdsukwqv
p901
I1
sVczw2d3d
p902
I2
sVde9lxzx
p903
I1
sVdizi4s9
p904
I2
sVd2pyk89
p905
I1
sVdkqkm9u
p906
I8
sVdgcsrfm
p907
I1
sVd9d59jv
p908
I1
sVd3wsqbh
p909
I1
sVd78twdd
p910
I1
sVddf15b5
p911
I3
sVdid43pj
p912
I1
sVdn6ddjz
p913
I1
sVdhvwx8e
p914
I1
sVdd2mncs
p915
I1
sVcz6coir
p916
I1
sVdd74hw2
p917
I1
sVdbwzbdz
p918
I1
sVdpg06nu
p919
I1
sVdn6diqg
p920
I1
sVd3ajatx
p921
I1
sVdcl9yi5
p922
I1
sVd2mn7nt
p923
I2
sVd9bwra8
p924
I1
sVd7rilzo
p925
I1
sVdpynakp
p926
I1
sVd3pfetj
p927
I1
sVdkdvx5r
p928
I1
sVddo3ydj
p929
I1
sVdbevisx
p930
I1
sVdg0zsy7
p931
I1
sVd0zp9iz
p932
I1
sVczbwzep
p933
I1
sVda5e6fg
p934
I1
sVdc0o9as
p935
I1
sVdeg5luj
p936
I1
sVdqfmgul
p937
I2
sVd7sc2fz
p938
I1
sVd65ppgn
p939
I1
sVd0lhw7g
p940
I1
sVdgxohoy
p941
I1
sVdbkurjo
p942
I1
sVd2gxem0
p943
I1
sVcz91zac
p944
I1
sVdcsomer
p945
I1
sVd5ec9u1
p946
I1
sVd0rj2gl
p947
I1
sVd6p8qxg
p948
I1
sVdqcbf8x
p949
I4
sVdfx5708
p950
I1
sVdg6i5o6
p951
I1
sVda5zaqq
p952
I1
sVdb3l0qm
p953
I1
sVd3zvux9
p954
I1
sVdjxagmt
p955
I1
sVd2a2xi6
p956
I1
sVd7smr3z
p957
I1
sVdcuim67
p958
I1
sVdmreya0
p959
I1
sVdf232vv
p960
I3
sVdk4go7y
p961
I1
sVd6uc6kt
p962
I1
sVd1orrji
p963
I1
sVdrletjb
p964
I1
sVd8ay70m
p965
I2
sVdpdasur
p966
I1
sVd799ble
p967
I1
sVdd3fx7e
p968
I2
sVdfbyn3j
p969
I1
sVd25cm2r
p970
I1
sVddndtdd
p971
I1
sVd80p62s
p972
I1
sVd2elk7r
p973
I1
sVd8yd50p
p974
I3
sVd54i7fn
p975
I1
sVdiic68d
p976
I1
sVdkqzb2a
p977
I1
sVdhg4h7e
p978
I1
sVdr9aego
p979
I1
sVd16vaao
p980
I1
sVdcdhkns
p981
I1
sVd215dqo
p982
I1
sVdki344k
p983
I1
sVd6kkjd6
p984
I4
sVdfdhfwq
p985
I1
sVdiql7s9
p986
I1
sVdosl5dx
p987
I2
sVd8rgubu
p988
I1
sVd0ikvkr
p989
I1
sVdewxw6l
p990
I1
sVdqfdh2a
p991
I1
sVd1wsvyc
p992
I1
sVd3b4hk5
p993
I1
sVczcbg4z
p994
I2
sVd8wuo1i
p995
I1
sVdkx80u1
p996
I1
sVd1pa6gk
p997
I1
sVdad50hf
p998
I1
sVdhad9lz
p999
I1
sVdjybc24
p1000
I1
sVd02fjrm
p1001
I1
sVdehungr
p1002
I1
sVdkagtr1
p1003
I1
sVd907kb1
p1004
I1
sVczc8176
p1005
I1
sVdkw1mla
p1006
I1
sVd1vjjfy
p1007
I1
sVd15o2ex
p1008
I1
sVd2l11ww
p1009
I1
sVcz97xrm
p1010
I1
sVd3soec6
p1011
I1
sVdgk96u4
p1012
I2
sVd85vy6i
p1013
I1
sVczk2n2u
p1014
I1
sVdn134pg
p1015
I2
sVd7z3f6l
p1016
I2
sVd2i2rfa
p1017
I1
sVd5os35f
p1018
I2
sVdd580dg
p1019
I1
sVd4v1a35
p1020
I1
sVdmsdjhl
p1021
I1
sVd49unyx
p1022
I1
sVdpbqdxv
p1023
I1
sVdhztnp0
p1024
I1
sVd176eg5
p1025
I1
sVdnxahzq
p1026
I1
sVdqgv2xn
p1027
I1
sVdi8mm5s
p1028
I1
sVd3jhefl
p1029
I1
sVdag7xr8
p1030
I1
sVdhllm1h
p1031
I2
sVdp9cq7y
p1032
I1
sVdaakf8x
p1033
I2
sVdbtvn86
p1034
I1
sVd7oavn0
p1035
I4
sVdetiuut
p1036
I1
sVd7fq2h5
p1037
I1
sVd926g5j
p1038
I1
sVdicu6qj
p1039
I2
sVdhvpxyb
p1040
I1
sVdejzq1v
p1041
I1
sVd4uvio5
p1042
I14
sVd0edc1i
p1043
I2
sVdky5207
p1044
I1
sVcz68p94
p1045
I1
sVd0kee14
p1046
I1
sVdcme968
p1047
I1
sVded15j5
p1048
I2
sVdd8dvcx
p1049
I1
sVdejnd60
p1050
I1
sVd4vec56
p1051
I1
sVdc54k8u
p1052
I1
sVdd9kcgd
p1053
I2
sVdr6lays
p1054
I2
sVdqv4r8u
p1055
I1
sVdg480qu
p1056
I1
sVdj4bmfg
p1057
I1
sVcyy5n48
p1058
I1
sVdahva2u
p1059
I1
sVdqfsikk
p1060
I1
sVdg0sqtr
p1061
I1
sVcz7wa79
p1062
I1
sVd2inns2
p1063
I1
sVdjfuqt5
p1064
I1
sVd9bka9u
p1065
I1
sVdha1kti
p1066
I1
sVde8d63c
p1067
I1
sVdq98qnp
p1068
I2
sVdpd3x5r
p1069
I1
sVdg1d2tt
p1070
I1
sVdjdpy4b
p1071
I1
sVd0ai25z
p1072
I1
sVd62sse6
p1073
I1
sVd43mmmn
p1074
I1
sVdgkz9jr
p1075
I1
sVdfu2hhu
p1076
I1
sVd90pfrk
p1077
I1
sVdrwaa61
p1078
I1
sVd2tc7jq
p1079
I2
sVcyoxbht
p1080
I1
sVdg34k29
p1081
I1
sVdkyd3co
p1082
I1
sVd72goz7
p1083
I1
sVdf63q12
p1084
I2
sVcz8remk
p1085
I1
sVdk9aj07
p1086
I1
sVdinrw7e
p1087
I1
sVdir646f
p1088
I1
sVd7c1sex
p1089
I2
sVd2h1pao
p1090
I1
sVd7n0hjv
p1091
I1
sVd3ffbc7
p1092
I2
sVd7p4e7u
p1093
I2
sVdald6wj
p1094
I2
sVdjeouoq
p1095
I1
sVdh0ceoj
p1096
I1
sVdk7d0zl
p1097
I1
sVdr2e09w
p1098
I1
sVd0zp5oh
p1099
I1
sVdj9l6w2
p1100
I1
sVdbm2iwu
p1101
I1
sVd0uc9hl
p1102
I1
sVd7y6ys1
p1103
I2
sVd22xxw1
p1104
I1
sVd6xyv1s
p1105
I1
sVdq8v9ld
p1106
I1
sVcyz9j9k
p1107
I1
sVd7hyfbr
p1108
I2
sVcyjgwjg
p1109
I1
sVdf8v7ep
p1110
I1
sVdgdl5bu
p1111
I3
sVd3wcfuc
p1112
I2
sVd6r3ul8
p1113
I1
sVdf7oefc
p1114
I2
sVczewecz
p1115
I1
sVdjg0mbv
p1116
I1
sVdpy1v8p
p1117
I1
sVd5zjeot
p1118
I1
sVdergp7h
p1119
I1
sVdc5hl56
p1120
I2
sVd1a4wyv
p1121
I1
sVdgt73z8
p1122
I1
sVd6n57y3
p1123
I3
sVdbr76em
p1124
I1
sVd5g0sdk
p1125
I2
sVddt73u4
p1126
I2
sVd2cb3u7
p1127
I1
sVd6ppxcm
p1128
I1
sVd7bbiti
p1129
I1
sVd7vui46
p1130
I1
sVd69jakw
p1131
I1
sVdofdsvm
p1132
I1
sVcz5v7w8
p1133
I1
sVdh6qn6l
p1134
I1
sVdcdl6ah
p1135
I1
sVd22k2bc
p1136
I1
sVd0k6egh
p1137
I1
sVd4fe3pa
p1138
I1
sVd1gs9py
p1139
I1
sVcysh61o
p1140
I1
sVczbtwu4
p1141
I1
sVd32o1sm
p1142
I1
sVdkj5pks
p1143
I1
sVdbyd9k7
p1144
I1
sVdja6r08
p1145
I4
sVdf6zf1i
p1146
I1
sVdbvvr2s
p1147
I2
sVd3bp894
p1148
I1
sVdj4mwgn
p1149
I1
sVdnljqg7
p1150
I1
sVczrulzm
p1151
I1
sVdmepg8j
p1152
I1
sVd0suj7b
p1153
I1
sVcywhj8u
p1154
I1
sVdco4dk1
p1155
I1
sVd1sc6rh
p1156
I1
sVd5c1tiy
p1157
I2
sVczfxe8f
p1158
I2
sVd18tsbb
p1159
I1
sVczedbmk
p1160
I1
sVdr2dqh3
p1161
I2
sVdrppgdd
p1162
I1
sVd99ybrz
p1163
I1
sVd64ujo2
p1164
I1
sVd32qw8g
p1165
I1
sVd0l4sm9
p1166
I1
sVdesd4cw
p1167
I2
sVdkjgi3o
p1168
I1
sVdq1td8i
p1169
I2
sVd8p1mfz
p1170
I1
sVd2do8zi
p1171
I2
sVdg91oov
p1172
I1
sVdcdix85
p1173
I1
sVd4wlzzz
p1174
I1
sVdg7mhi7
p1175
I1
sVdd8mwn9
p1176
I1
sVdgy2ghv
p1177
I1
sVdj2j94m
p1178
I1
sVd14l95o
p1179
I1
sVd1eakvb
p1180
I1
sVdol8kla
p1181
I1
sVdaa4tkm
p1182
I1
sVdp6ie8h
p1183
I2
sVczt2e1m
p1184
I13
sVddg5u5q
p1185
I1
sVd07175l
p1186
I1
sVczbiio9
p1187
I2
sVd019scl
p1188
I1
sVd56ag3f
p1189
I1
sVdaepsa1
p1190
I3
sVd7cuv46
p1191
I2
sVd63lgt2
p1192
I2
sVd09ozom
p1193
I1
sVd5zccn5
p1194
I1
sVdpxi2dl
p1195
I1
sVdc2sasq
p1196
I1
sVd0arcp7
p1197
I1
sVdfriqds
p1198
I5
sVczfmm2r
p1199
I2
sVd4xe74b
p1200
I1
sVdik4w1s
p1201
I1
sVdi80k56
p1202
I1
sVdbz05y2
p1203
I1
sVdc4ml7o
p1204
I1
sVdbll3il
p1205
I2
sVd0rqr1y
p1206
I2
sVdisxxrp
p1207
I2
sVdkvw5ic
p1208
I1
sVdtgh6a0
p1209
I1
sVd0pn2j7
p1210
I2
sVdiewrwu
p1211
I2
sVcymp21r
p1212
I1
sVdny01u9
p1213
I1
sVddowmgy
p1214
I2
sVdkhmilj
p1215
I1
sVczy3115
p1216
I1
sVd0dn7o4
p1217
I3
sVd86qvtf
p1218
I1
sVd3ep4vr
p1219
I1
sVd5gwh2l
p1220
I1
sVdkuamuj
p1221
I1
sVd29yp6p
p1222
I1
sVdc3ipka
p1223
I1
sVd53atql
p1224
I2
sVdgx9zvw
p1225
I1
sVdnfbjt0
p1226
I1
sVd1k75gw
p1227
I1
sVdbznux7
p1228
I1
sVdfal6d9
p1229
I2
sVdfak8l2
p1230
I1
sVd5thqs0
p1231
I3
sVdkbk6rp
p1232
I1
sVdd3yvdo
p1233
I2
sVd8tvakl
p1234
I1
sVdo2xe4z
p1235
I1
sVdfte8rz
p1236
I1
sVd56csjz
p1237
I1
sVd0bxvgx
p1238
I1
sVddfgmpo
p1239
I1
sVdsecreh
p1240
I1
sVdc4vbqh
p1241
I1
sVdrxw8lp
p1242
I2
sVdrdw1gz
p1243
I1
sVdiyrkp1
p1244
I1
sVdcto72u
p1245
I3
sVdtajjk9
p1246
I1
sVdifvwxx
p1247
I1
sVd1k9z7a
p1248
I1
sVd3zbcay
p1249
I1
sVdgezo5x
p1250
I3
sVcyx0695
p1251
I1
sVd7xns72
p1252
I2
sVdd3jqk8
p1253
I1
sVdfvep0p
p1254
I1
sVd1lpqsz
p1255
I1
sVd3yyzmq
p1256
I2
sVdkz61q2
p1257
I1
sVdf4jxfk
p1258
I1
sVdqee0jg
p1259
I1
sVda651ak
p1260
I1
sVdkadfwf
p1261
I1
sVdp5a5ys
p1262
I4
sVdkw1yrk
p1263
I1
sVdjvzn83
p1264
I1
sVdjdq57q
p1265
I1
sVdt6w035
p1266
I2
sVd6vj74j
p1267
I1
sVd97jc7l
p1268
I1
sVdfriz93
p1269
I1
sVczv1qt5
p1270
I1
sVd245ng8
p1271
I1
sVdooxgld
p1272
I1
sVdj7bo7t
p1273
I3
sVdppkvx7
p1274
I3
sVd312yvz
p1275
I1
sVd7m3eha
p1276
I1
sVddczzkd
p1277
I1
sVdh9y6a8
p1278
I1
sVd8of58e
p1279
I1
sVddq78g8
p1280
I1
sVdc07iuf
p1281
I1
sVd3ydtoh
p1282
I1
sVczggx45
p1283
I1
sVd49ipjl
p1284
I1
sVdgevf9e
p1285
I2
sVdmm23m8
p1286
I3
sVdhzsaga
p1287
I2
sVdgbqu7q
p1288
I1
sVd0me2nm
p1289
I1
sVcyia8vr
p1290
I3
sVdcvvr60
p1291
I2
sVd7z1np8
p1292
I1
sVdc88dcp
p1293
I1
sVdapca3l
p1294
I2
sVcyr6lrc
p1295
I1
sVdcspeen
p1296
I1
sVdeqcb5q
p1297
I1
sVddvxf86
p1298
I1
sVdelhxu2
p1299
I1
sVdjboyer
p1300
I2
sVd4u3l3j
p1301
I2
sVd6gagv6
p1302
I1
sVd1gs5np
p1303
I1
sVdfarcet
p1304
I1
sVdg9trjp
p1305
I1
sVd9p9tms
p1306
I1
sVd01pwbc
p1307
I1
sVdacdj0f
p1308
I1
sVdg4llym
p1309
I1
sVdisf1qk
p1310
I1
sVdsyp990
p1311
I1
sVdt72i3c
p1312
I1
sVd2q0pg4
p1313
I1
sVdb1ga35
p1314
I1
sVdh2y8vw
p1315
I1
sVdnbyrfl
p1316
I1
sVdakzxeg
p1317
I1
sVdgjkgm9
p1318
I1
sVd3fc6mp
p1319
I1
sVd73xw5d
p1320
I2
sVdir152f
p1321
I1
sVdc026gx
p1322
I1
sVdjcbq09
p1323
I1
sVdbbrc9p
p1324
I3
sVd37ddlq
p1325
I1
sVd1n4edf
p1326
I5
sVd0osq61
p1327
I1
sVd2l2x0m
p1328
I1
sVd1gvi2t
p1329
I1
sVdd0maea
p1330
I1
sVdrb5v8t
p1331
I2
sVdd62eot
p1332
I3
sVd4onzuw
p1333
I2
sVd67pese
p1334
I1
sVdicmd17
p1335
I1
sVcyltn6e
p1336
I2
sVd15zfyv
p1337
I2
sVczhzvn4
p1338
I1
sVddjdbjr
p1339
I1
sVdbc8uj3
p1340
I1
sVdfs73fy
p1341
I1
sVd6ps6ex
p1342
I1
sVdcgi5xp
p1343
I1
sVd1vbjdr
p1344
I1
sVd4nc3k4
p1345
I1
sVcyob5h9
p1346
I2
sVcz1rzg6
p1347
I1
sVd1dc3zq
p1348
I1
sVcz4v30c
p1349
I1
sVdifqdq6
p1350
I1
sVdgq8e8j
p1351
I1
sVczqg8t2
p1352
I1
sVd1y66gk
p1353
I1
sVdje3zdq
p1354
I1
sVd04eqno
p1355
I1
sVd2c9vfm
p1356
I1
sVdju5hsz
p1357
I1
sVdk2bpmp
p1358
I1
sVdcamaxa
p1359
I2
sVdfo115r
p1360
I1
sVdn96zp7
p1361
I1
sVd8fxy1g
p1362
I1
sVdf3rmkq
p1363
I2
sVd6j5gy1
p1364
I1
sVd3yaqh2
p1365
I1
sVdkp62z8
p1366
I1
sVdjygqs8
p1367
I1
sVd97fayi
p1368
I1
sVd9l30um
p1369
I1
sVd6vnzt8
p1370
I2
sVczrs5vf
p1371
I1
sVd0c77og
p1372
I1
sVczk2sa8
p1373
I1
sVdkicoxy
p1374
I4
sVdpy1kn7
p1375
I1
sVd9bh68u
p1376
I1
sVd8aqdet
p1377
I1
sVd4h3yh4
p1378
I1
sVd262zvv
p1379
I2
sVdgb4npa
p1380
I1
sVdd1f8z9
p1381
I1
sVdbxn9aq
p1382
I2
sVde3xj91
p1383
I1
sVdb3cquk
p1384
I1
sVd5zbx1a
p1385
I2
sVczvp2ny
p1386
I1
sVdg72y6b
p1387
I1
sVdtgg1tg
p1388
I1
sVczbm5fb
p1389
I1
sVczphqmb
p1390
I2
sVd218uqc
p1391
I1
sVd3jn15o
p1392
I1
sVd6umqpv
p1393
I1
sVdsz055g
p1394
I2
sVcz88lnm
p1395
I1
sVd5fmujo
p1396
I1
sVdfeuuft
p1397
I1
sVdjdhvjd
p1398
I1
sVd1r6apq
p1399
I1
sVdbu0iqk
p1400
I1
sVd7loeja
p1401
I2
sVdgbinhj
p1402
I1
sVdgtea87
p1403
I1
sVdnfh8z1
p1404
I1
sVdt27mv2
p1405
I1
sVdgi7qb9
p1406
I1
sVd9cml4g
p1407
I1
sVczs1loe
p1408
I1
sVdfhrijm
p1409
I1
sVd8vulmh
p1410
I1
sVd5hnzkf
p1411
I1
sVddvhtz7
p1412
I1
sVd2lg6g4
p1413
I1
sVd5ctyig
p1414
I1
sVd1jyefx
p1415
I1
sVd4h93w8
p1416
I1
sVdsavhfo
p1417
I2
sVczghxf4
p1418
I1
sVd05m78p
p1419
I1
sVdhp7sai
p1420
I1
sVdt3f7an
p1421
I1
sVdaknlnv
p1422
I1
sVd2nw55b
p1423
I1
sVd1j3pcd
p1424
I1
sVd0v1k8v
p1425
I1
sVd1jjy96
p1426
I1
sVd82hdfi
p1427
I2
sVd1xku9w
p1428
I2
sVdaajgqj
p1429
I2
sVdawpqmv
p1430
I1
sVdbulaoa
p1431
I1
sVd1x6ixz
p1432
I1
sVdez0cxv
p1433
I2
sVd3n3lfk
p1434
I1
sVdcu85s3
p1435
I1
sVdb1fg61
p1436
I1
sVd5dfzso
p1437
I1
sVdi4smec
p1438
I2
sVd0p82va
p1439
I1
sVdso15db
p1440
I1
sVdd8lidw
p1441
I1
sVdhvb4uv
p1442
I1
sVdahgs5n
p1443
I2
sVdnh4otf
p1444
I1
sVd8ia410
p1445
I1
sVdc0t3ww
p1446
I3
sVd1l09v5
p1447
I2
sVcyus526
p1448
I5
sVdfxivla
p1449
I1
sVdio5owe
p1450
I1
sVdkyhljn
p1451
I1
sVcytnv37
p1452
I1
sVdbpa01k
p1453
I1
sVdoja5mw
p1454
I1
sVd2becjg
p1455
I1
sVd9b8q88
p1456
I1
sVdb247j3
p1457
I1
sVd0568r7
p1458
I1
sVd91oty9
p1459
I1
sVdnmhh96
p1460
I1
sVdfs3wpm
p1461
I1
sVd8omutt
p1462
I1
sVdiprmvd
p1463
I1
sVd3gonp8
p1464
I1
sVd8zpxhv
p1465
I1
sVdnqkgyr
p1466
I1
sVd07tc7u
p1467
I1
sVdkcjtvg
p1468
I1
sVd1l4ljy
p1469
I2
sVddokuig
p1470
I1
sVczjom5n
p1471
I1
sVd3oxd0m
p1472
I1
sVd379b6x
p1473
I1
sVdnr3xby
p1474
I1
sVde849oc
p1475
I4
sVdrc3bso
p1476
I6
sVczhin4o
p1477
I1
sVd6r7frl
p1478
I1
sVcyn0gst
p1479
I1
sVdcqoo7b
p1480
I1
sVdftmvlj
p1481
I1
sVdozemf0
p1482
I1
sVd03eohj
p1483
I1
sVdcyt5hv
p1484
I1
sVdqqtdrv
p1485
I1
sVd8b9ybz
p1486
I1
sVdaayjzw
p1487
I1
sVd85q5m1
p1488
I1
sVd8uls18
p1489
I1
sVdiwwoxj
p1490
I2
sVdcj2qn3
p1491
I1
sVd8ciz37
p1492
I1
sVd8ly9ag
p1493
I1
sVdefeb92
p1494
I1
sVdnt3vsy
p1495
I1
sVczdqnnc
p1496
I1
sVdedar83
p1497
I1
sVd6s78on
p1498
I1
sVdaki05h
p1499
I1
sVdjpqwhx
p1500
I1
sVdjdu8bq
p1501
I1
sVdaf6h16
p1502
I2
sVd3p130m
p1503
I1
sVdf3it76
p1504
I1
sVdoddab2
p1505
I3
sVdmt9jkk
p1506
I1
sVd2bg8ys
p1507
I1
sVd0tf34s
p1508
I1
sVczqdviw
p1509
I1
sVdsntd11
p1510
I1
sVd5c381i
p1511
I1
sVd8lusdq
p1512
I1
sVd3mmn2t
p1513
I1
sVdthpz4d
p1514
I1
sVd6nwxhx
p1515
I2
sVdnfguiv
p1516
I3
sVcyr028t
p1517
I1
sVd9ael9u
p1518
I1
sVdsv580e
p1519
I1
sVd4wln8p
p1520
I1
sVd1ey524
p1521
I1
sVdb381vn
p1522
I6
sVd3ljk7f
p1523
I1
sVde54xot
p1524
I1
sVdh6rdl8
p1525
I1
sVcyumrrb
p1526
I1
sVdhxefvn
p1527
I1
sVdskkwgr
p1528
I4
sVd4kh6xm
p1529
I1
sVczssz1r
p1530
I1
sVd3tz6lw
p1531
I1
sVds86osi
p1532
I3
sVdq7vkz1
p1533
I1
sVd753myx
p1534
I1
sVdke6wwe
p1535
I1
sVd0m4t0i
p1536
I2
sVdeaxt3e
p1537
I2
sVd8gcjgh
p1538
I1
sVcysk4y9
p1539
I1
sVd93pnx1
p1540
I1
sVd71bmx3
p1541
I2
sVdk3gir1
p1542
I1
sVdhcw1h7
p1543
I1
sVdj5jfuy
p1544
I2
sVdpkad0a
p1545
I1
sVdgxa1qr
p1546
I1
sVd2ezz6g
p1547
I2
sVd13417s
p1548
I2
sVde8fpf0
p1549
I1
sVdd4v13r
p1550
I2
sVdflaw7m
p1551
I1
sVd1gklxa
p1552
I1
sVdgb6fbq
p1553
I7
sVdqj1sa1
p1554
I1
sVd6m46c6
p1555
I1
sVd5tgthl
p1556
I1
sVd6o1xp5
p1557
I1
sVd3etyub
p1558
I1
sVddlbaio
p1559
I1
sVd806ol3
p1560
I2
sVdalhqrg
p1561
I1
sVd2bm3zf
p1562
I1
sVd6wkxch
p1563
I1
sVdspiuia
p1564
I1
sVd3fhnrq
p1565
I1
sVd2ja8nh
p1566
I1
sVd8o60fq
p1567
I1
sVd7ass6g
p1568
I2
sVd5byi9o
p1569
I1
sVd6rshg5
p1570
I2
sVd2ctl4x
p1571
I1
sVd9x1sep
p1572
I1
sVdqnkfde
p1573
I2
sVdt51hvg
p1574
I1
sVdn19je6
p1575
I8
sVcz41tj1
p1576
I1
sVcz0gozt
p1577
I1
sVdno64zu
p1578
I1
sVd2p1007
p1579
I1
sVdco8gti
p1580
I1
sVdh4xpv0
p1581
I5
sVdeymbne
p1582
I1
sVczgy3k3
p1583
I1
sVdcu00go
p1584
I2
sVdf3ctfd
p1585
I1
sVdsyvqti
p1586
I1
sVd82ln5s
p1587
I2
sVd5whrju
p1588
I1
sVd9cxvg6
p1589
I2
sVdtdfp0d
p1590
I1
sVd09x5ec
p1591
I3
sVd3rofw6
p1592
I1
sVdd2nbgm
p1593
I1
sVdqelvtn
p1594
I1
sVd2chsex
p1595
I1
sVdpftoiu
p1596
I1
sVdki6art
p1597
I1
sVde81w8f
p1598
I2
sVdimzsbq
p1599
I1
sVcz5pj6l
p1600
I1
sVdgp8yuw
p1601
I1
sVd7gp5vs
p1602
I1
sVdg9cc6z
p1603
I1
sVd0j8h32
p1604
I1
sVd9ee9pm
p1605
I1
sVd5x503i
p1606
I1
sVdooaq6c
p1607
I4
sVd6joqi4
p1608
I1
sVd1e7x0d
p1609
I1
sVdtfojis
p1610
I1
sVdn13754
p1611
I4
sVd96691v
p1612
I1
sVdiyj5wv
p1613
I1
sVdifghk1
p1614
I1
sVdeg4zkr
p1615
I1
sVd8hg71r
p1616
I1
sVdr20tkw
p1617
I1
sVdc2x3r6
p1618
I1
sVd5np3tv
p1619
I4
sVds1ofym
p1620
I1
sVdnby30t
p1621
I1
sVdc5l4vg
p1622
I1
sVdq48uol
p1623
I1
sVdexf2e0
p1624
I1
sVd4h3rco
p1625
I1
sVd3xhjzf
p1626
I1
sVcz6xoi4
p1627
I1
sVdbs29wy
p1628
I1
sVd6qpvmb
p1629
I1
sVdsh3ar0
p1630
I1
sVczycj4v
p1631
I1
sVdrayylb
p1632
I1
sVd6wkqt8
p1633
I1
sVdr7tspr
p1634
I2
sVdoavlf9
p1635
I1
sVdfj4tcx
p1636
I1
sVd3eov71
p1637
I1
sVdsbuhsc
p1638
I1
sVds451z2
p1639
I2
sVd8izjgf
p1640
I1
sVdjnuodd
p1641
I1
sVdcj3u6g
p1642
I1
sVdirdl4l
p1643
I1
sVdhnjghk
p1644
I1
sVd796ytr
p1645
I3
sVd5wknn6
p1646
I1
sVd62hsx7
p1647
I1
sVd2fdkbq
p1648
I1
sVdarszoy
p1649
I1
sVdgx3x8n
p1650
I1
sVd7m0448
p1651
I1
sVdt0algm
p1652
I1
sVd9w2v7e
p1653
I2
sVd01ybdx
p1654
I2
sVcyue3fr
p1655
I3
sVdc463aw
p1656
I1
sVdnac5e9
p1657
I3
sVdgo797s
p1658
I1
sVczyc30x
p1659
I1
sVd5xvas3
p1660
I1
sVdogpury
p1661
I1
sVd78g0sz
p1662
I1
sVdj1z7sd
p1663
I1
sVd8lv0nn
p1664
I3
sVdh9cyq1
p1665
I3
sVczagii2
p1666
I1
sVdkkx6ai
p1667
I1
sVdbqzazw
p1668
I1
sVd2cot2d
p1669
I2
sVd8gci6e
p1670
I1
sVd2p1w9j
p1671
I1
sVd7aaenr
p1672
I1
sVd7aqf2e
p1673
I5
sVdja7ega
p1674
I1
sVdqfbv28
p1675
I1
sVdj9uxie
p1676
I4
sVddon0dq
p1677
I3
sVdh6w9q6
p1678
I2
sVd0jdtpu
p1679
I1
sVd2khmab
p1680
I1
sVdr2a6ua
p1681
I1
sVd97ra3k
p1682
I1
sVd72hfs8
p1683
I1
sVd4jpwon
p1684
I1
sVdivzr4b
p1685
I1
sVdfqwrsz
p1686
I1
sVdqh08cn
p1687
I2
sVdbvmw05
p1688
I3
sVcz5z96z
p1689
I1
sVcz5y1qm
p1690
I1
sVdfn8kzb
p1691
I4
sVdhwtjgm
p1692
I7
sVcylk68w
p1693
I1
sVdjt246y
p1694
I2
sVd6qvzv0
p1695
I1
sVd8ly8gj
p1696
I2
sVd8i9h7n
p1697
I1
sVdd0tafe
p1698
I1
sVdro9349
p1699
I1
sVdb7tg0o
p1700
I1
sVd30339v
p1701
I1
sVd10cf63
p1702
I2
sVd2o596o
p1703
I1
sVd8oelcm
p1704
I1
sVczqogfd
p1705
I1
sVddwj7gs
p1706
I1
sVd8vkbba
p1707
I2
sVczavw9n
p1708
I1
sVdsoi8zl
p1709
I1
sVdsyl345
p1710
I1
sVdsi8lpi
p1711
I1
sVd9c1463
p1712
I2
sVd0ihvct
p1713
I1
sVds3ju12
p1714
I1
sVd0yl3xl
p1715
I1
sVdkomet2
p1716
I1
sVdh175kq
p1717
I1
sVdj9y9j8
p1718
I1
sVd2ejbm0
p1719
I1
sVdndw9y6
p1720
I1
sVd98b4br
p1721
I1
sVdhx8kbw
p1722
I1
sVdhnbac3
p1723
I1
sVd60podg
p1724
I1
sVdhmtyor
p1725
I1
sVczam84y
p1726
I1
sVd0f8gkm
p1727
I2
sVdam3307
p1728
I1
sVd6rql4g
p1729
I1
sVd9etw3p
p1730
I3
sVd684f0o
p1731
I1
sVdfzxn53
p1732
I1
sVcz1fmfc
p1733
I1
sVd0to0tv
p1734
I1
sVcyljd92
p1735
I1
sVdcbeza8
p1736
I1
sVd6t5hcx
p1737
I1
sVdr6gqc4
p1738
I1
sVdgo26sj
p1739
I2
sVd9zx1ga
p1740
I1
sVdmx18q0
p1741
I1
sVdaezlvq
p1742
I2
sVdk3984t
p1743
I2
sVd6v5vlz
p1744
I1
sVdpc0dxk
p1745
I1
sVdg7sreq
p1746
I1
sVdqqudc2
p1747
I1
sVdag6k7e
p1748
I1
sVdjchp1c
p1749
I1
sVdkpe8hz
p1750
I1
sVd9snexc
p1751
I1
sVdf2z7ww
p1752
I1
sVczrgroa
p1753
I1
sVdonkd50
p1754
I2
sVd6zqqfj
p1755
I1
sVd131poe
p1756
I1
sVddtoyi6
p1757
I1
sVdht62x1
p1758
I1
sVdc6zsy1
p1759
I1
sVdnv7cqc
p1760
I1
sVdhngb2r
p1761
I1
sVdnxlzcq
p1762
I1
sVd6cq9xe
p1763
I1
sVd0a0qll
p1764
I1
sVdkjyefv
p1765
I1
sVd3pgpz1
p1766
I1
sVczpku16
p1767
I1
sVd01d2yk
p1768
I1
sVd0jx0gg
p1769
I1
sVcysnof7
p1770
I1
sVdjeftav
p1771
I1
sVdqtfg75
p1772
I1
sVd1yom6o
p1773
I2
sVd4bpxut
p1774
I3
sVczi62gi
p1775
I1
sVd5g7y58
p1776
I1
sVdi486qg
p1777
I2
sVd9cqk1t
p1778
I1
sVd3rrykz
p1779
I1
sVdd51fzt
p1780
I3
sVd11qux4
p1781
I1
sVd6925s6
p1782
I1
sVd2ijhoj
p1783
I2
sVdqn7f0n
p1784
I1
sVd85fz9g
p1785
I2
sVdeshrkb
p1786
I1
sVdka382h
p1787
I1
sVdc9ftr9
p1788
I1
sVdddt2fz
p1789
I1
sVd42lbtr
p1790
I1
sVd7h7pi9
p1791
I1
sVd95pqoh
p1792
I1
sVd0n7ngg
p1793
I1
sVdayj5gd
p1794
I2
sVdbch5de
p1795
I2
sVdagwcz9
p1796
I2
sVd1v32bg
p1797
I1
sVd6eipz1
p1798
I1
sVd595qrt
p1799
I1
sVdhayify
p1800
I1
sVd9yqnxf
p1801
I1
sVd0u1zy8
p1802
I1
sVd6iw0u5
p1803
I1
sVdbeavt8
p1804
I1
sVdi8n3hf
p1805
I1
sVdip16mh
p1806
I1
sVdgey1tx
p1807
I1
sVczzw9qi
p1808
I1
sVd0g9mrk
p1809
I1
sVd80hcvx
p1810
I1
sVdgnqpb5
p1811
I2
sVd0uy6s7
p1812
I1
sVds83073
p1813
I1
sVd696dzi
p1814
I1
sVd3qwqxk
p1815
I1
sVdel9kbh
p1816
I1
sVd52qwpl
p1817
I3
sVdstii3v
p1818
I1
sVd13pqfc
p1819
I4
sVdctv1xz
p1820
I2
sVcz0b3t7
p1821
I1
sVcyn1xy9
p1822
I2
sVcyo5lsf
p1823
I2
sVd1frjbc
p1824
I1
sVdg6pr8n
p1825
I1
sVdp70arx
p1826
I1
sVd1g401v
p1827
I1
sVde6nswh
p1828
I1
sVd6sluws
p1829
I1
sVdmzvr1t
p1830
I1
sVcyvmy6a
p1831
I1
sVdo03z99
p1832
I1
sVd9xofma
p1833
I1
sVdeldmye
p1834
I2
sVdehxy23
p1835
I1
sVd09q80v
p1836
I1
sVd5d25ql
p1837
I1
sVd4d3622
p1838
I1
sVd9bsjr2
p1839
I1
sVde0uois
p1840
I1
sVdi28cxj
p1841
I2
sVd3qf0p1
p1842
I1
sVdikna7d
p1843
I1
sVdbci3jc
p1844
I1
sVdg19y8q
p1845
I1
sVd6vtzdx
p1846
I1
sVcyxxrut
p1847
I1
sVdaqfcjl
p1848
I1
sVddscibm
p1849
I1
sVdk1yrtu
p1850
I2
sVdil60db
p1851
I1
sVdnidcrg
p1852
I1
sVdcak2k2
p1853
I1
sVdeox63h
p1854
I1
sVd9bevub
p1855
I1
sVd8esycj
p1856
I1
sVcz2imm2
p1857
I1
sVd1i5gsg
p1858
I1
sVd6p7wgk
p1859
I1
sVd3cqwn6
p1860
I1
sVdgo2tje
p1861
I1
sVdhdobii
p1862
I1
sVddgwg20
p1863
I1
sVdg5qrk8
p1864
I1
sVcz9yp70
p1865
I1
sVd4hnrjk
p1866
I1
sVdca2fol
p1867
I2
sVd22pqw7
p1868
I1
sVdosmbx9
p1869
I1
sVdpvv2ad
p1870
I4
sVd8dvl5z
p1871
I1
sVdeh0ej5
p1872
I1
sVd0xrv8f
p1873
I1
sVd68l6y0
p1874
I1
sVdaivkfb
p1875
I1
sVd7ctqx4
p1876
I3
sVdn281h0
p1877
I1
sVd9x5y46
p1878
I1
sVdr9pfzl
p1879
I1
sVcyxazmt
p1880
I1
sVd2jm3xp
p1881
I1
sVd09s8qi
p1882
I1
sVd4vkmar
p1883
I1
sVdo1dld8
p1884
I1
sVdhrly0f
p1885
I1
sVdboye2b
p1886
I1
sVdhy3iyi
p1887
I1
sVdbr055w
p1888
I4
sVdan2fs0
p1889
I4
sVd810g0f
p1890
I1
sVdchlhsq
p1891
I1
sVd05q9s7
p1892
I1
sVdftcth7
p1893
I1
sVdov4c1y
p1894
I1
sVd2ctbzn
p1895
I1
sVdgeagoo
p1896
I1
sVd4na5kf
p1897
I1
sVd4urcd5
p1898
I1
sVcz6hnvf
p1899
I1
sVdntxddl
p1900
I2
sVddfs8w9
p1901
I1
sVdccq2n4
p1902
I2
sVd1wfioz
p1903
I1
sVd5wqt9s
p1904
I1
sVczg6cwt
p1905
I1
sVd02cwvh
p1906
I1
sVdee4isz
p1907
I1
sVd6jflo4
p1908
I1
sVdicew1y
p1909
I1
sVcysxihv
p1910
I2
sVdoms9tj
p1911
I1
sVdb0t1qh
p1912
I1
sVdceog2m
p1913
I2
sVdpwrzpl
p1914
I2
sVcz3sa5i
p1915
I1
sVd1s7tba
p1916
I1
sVdt6xd32
p1917
I1
sVdhgf2t4
p1918
I1
sVd5lxspr
p1919
I1
sVczbjsqw
p1920
I1
sVcziylkz
p1921
I1
sVdkyg0lh
p1922
I1
sVd1dxcig
p1923
I2
sVd8m0wxs
p1924
I1
sVdd8wxrp
p1925
I1
sVdb8wfil
p1926
I1
sVd8d177n
p1927
I1
sVdk4nk63
p1928
I1
sVdai867f
p1929
I1
sVdcpq0ov
p1930
I1
sVczseoml
p1931
I1
sVczqhmea
p1932
I1
sVdgn0g59
p1933
I1
sVdo8kib7
p1934
I1
sVd3dp4r5
p1935
I1
sVdbc2hbe
p1936
I1
sVd19gr1w
p1937
I1
sVdfcinz5
p1938
I1
sVd961ktb
p1939
I1
sVd7g7rkj
p1940
I1
sVd07phfe
p1941
I2
sVcyln1jr
p1942
I1
sVd792us2
p1943
I1
sVd4gxch7
p1944
I1
sVd6fs3nh
p1945
I1
sVdruwzaz
p1946
I1
sVdemp2xp
p1947
I1
sVdmrxgs4
p1948
I1
sVdk2h6yx
p1949
I1
sVd9r2072
p1950
I1
sVd414abz
p1951
I1
sVd5jmlqm
p1952
I2
sVdbh9db8
p1953
I1
sVcz7da3w
p1954
I1
sVdnksnnh
p1955
I1
sVd9c6971
p1956
I2
sVdi11w5k
p1957
I5
sVd2bjdtd
p1958
I1
sVdpwhuqh
p1959
I2
sVde8tf5i
p1960
I1
sVd1h49gd
p1961
I1
sVczqrmr4
p1962
I1
sVd7g943a
p1963
I1
sVdk81e97
p1964
I1
sVdc50grl
p1965
I1
sVdqgmq9z
p1966
I1
sVd6vujfr
p1967
I1
sVd798t6u
p1968
I1
sVd3hehsk
p1969
I1
sVd6npjl6
p1970
I1
sVczxn5hx
p1971
I1
sVdf1ybd9
p1972
I2
sVdj1n00w
p1973
I2
sVdd3aaol
p1974
I1
sVd1ygb1n
p1975
I2
sVdd8loa3
p1976
I3
sVdggxln5
p1977
I1
sVd23oa7a
p1978
I1
sVddy5t6j
p1979
I1
sVd28nlvj
p1980
I2
sVdavz1ru
p1981
I1
sVdedjxyz
p1982
I1
sVd38adyg
p1983
I1
sVdcuodaj
p1984
I1
sVd1xh4ck
p1985
I1
sVddjj41p
p1986
I1
sVdgk7vn0
p1987
I2
sVdddpc95
p1988
I2
sVd8zt8u0
p1989
I1
sVdezr9s9
p1990
I1
sVd7rxq1a
p1991
I1
sVd7t0tix
p1992
I1
sVddcqoss
p1993
I1
sVd0gqdth
p1994
I1
sVdbmhixt
p1995
I1
sVd1mg95g
p1996
I1
sVdjow9ws
p1997
I1
sVcyshs3o
p1998
I1
sVd7zkgfc
p1999
I1
sVd5z9dam
p2000
I1
sVdshni4f
p2001
I1
sVd3z84ay
p2002
I1
sVd26zw1r
p2003
I1
sVdt499u2
p2004
I3
sVd8pj8ie
p2005
I1
sVd7gmno5
p2006
I2
sVd1775o8
p2007
I1
sVd84kqiq
p2008
I1
sVd6zjf4h
p2009
I1
sVdffbb8o
p2010
I2
sVdply0kp
p2011
I1
sVdajid8d
p2012
I1
sVd8xwmhm
p2013
I1
sVdcpe6fu
p2014
I1
sVd0gdz1i
p2015
I1
sVd3m1s51
p2016
I1
sVdcux7qw
p2017
I1
sVdf20b2a
p2018
I1
sVd70v35v
p2019
I1
sVd2spmwx
p2020
I1
sVde1uzrf
p2021
I1
sVdf3t352
p2022
I1
sVdnm7aq6
p2023
I1
sVdh4xwot
p2024
I1
sVdrkv622
p2025
I1
sVd67vqsu
p2026
I3
sVczk5d5b
p2027
I1
sVdd9jvrn
p2028
I1
sVd14unmw
p2029
I2
sVda4nai6
p2030
I1
sVdaa5lrf
p2031
I1
sVd4r8ofu
p2032
I1
sVdj53dqp
p2033
I1
sVczw2m36
p2034
I2
sVdh6a87x
p2035
I1
sVdrpucza
p2036
I1
sVd2a6fpg
p2037
I3
sVdjwenhr
p2038
I1
sVd8880av
p2039
I1
sVdby88km
p2040
I2
sVd0pb7cs
p2041
I2
sVdsnyv12
p2042
I1
sVd25vzxb
p2043
I1
sVd0lmjyx
p2044
I2
sVdql7a6k
p2045
I1
sVd4prnur
p2046
I2
sVcz6dj6c
p2047
I1
sVd2i1nbx
p2048
I1
sVdpxrpj9
p2049
I1
sVd03axc2
p2050
I1
sVdsofz3g
p2051
I1
sVdek07fo
p2052
I1
sVd5067it
p2053
I2
sVd5fqyy3
p2054
I1
sVdgiu5p7
p2055
I1
sVda0dx3p
p2056
I1
sVczegbas
p2057
I1
sVdt552te
p2058
I1
sVda6hbh4
p2059
I1
sVd9cphy0
p2060
I1
sVdaiwt6p
p2061
I5
sVd5m44x4
p2062
I1
sVdeb6t15
p2063
I1
sVdkxein1
p2064
I1
sVd5sj5d0
p2065
I1
sVd59wl99
p2066
I1
sVdd7gzw5
p2067
I1
sVdctb9wl
p2068
I1
sVcz2s8e8
p2069
I1
sVcypp03h
p2070
I1
sVdpkbu9g
p2071
I1
sVd93trhj
p2072
I2
sVd013ylm
p2073
I1
sVd5xrdpt
p2074
I1
sVdemriyi
p2075
I1
sVd7clg08
p2076
I1
sVd9w9f2u
p2077
I1
sVdbvq2kz
p2078
I1
sVdn0yphu
p2079
I2
sVd4e82m7
p2080
I2
sVdag8nfy
p2081
I1
sVd996bre
p2082
I1
sVd888o53
p2083
I2
sVdhy0a0c
p2084
I1
sVdqn21vr
p2085
I2
sVd15d9cc
p2086
I1
sVd4czp3h
p2087
I1
sVczg0x8h
p2088
I1
sVd5oozqg
p2089
I1
sVd39umgb
p2090
I2
sVdiziqv6
p2091
I6
sVd415nul
p2092
I1
sVd799x5b
p2093
I1
sVd8ow7b3
p2094
I2
sVddc2ucn
p2095
I1
sVdmsdis6
p2096
I1
sVd8cefk8
p2097
I1
sVdsysg6p
p2098
I1
sVdb2t7r3
p2099
I1
sVd8msuv5
p2100
I1
sVd19s7bf
p2101
I1
sVd9hqnt7
p2102
I2
sVda33n3r
p2103
I1
sVd7c4n9z
p2104
I2
sVdhn9cf3
p2105
I1
sVdfor004
p2106
I1
sVd57x37a
p2107
I1
sVd4t4nrb
p2108
I1
sVdsyv9mk
p2109
I1
sVdcvfvee
p2110
I4
sVdmgsw6g
p2111
I1
sVdncp5pe
p2112
I2
sVdk5odnd
p2113
I1
sVdixqupx
p2114
I2
sVd934g0g
p2115
I3
sVddundw8
p2116
I1
sVdb9snvp
p2117
I1
sVd868ohr
p2118
I3
sVcyr6bl9
p2119
I1
sVd3jvbxo
p2120
I1
sVdndh978
p2121
I2
sVdn1oplc
p2122
I2
sVdf4c4t5
p2123
I1
sVd0e3ith
p2124
I1
sVde1hfnl
p2125
I3
sVd18y6ey
p2126
I1
sVd0s35l1
p2127
I1
sVd6xy8ae
p2128
I2
sVdix19kf
p2129
I1
sVdbjzoj3
p2130
I1
sVdcvbi14
p2131
I1
sVd9126tu
p2132
I1
sVd3s7j37
p2133
I1
sVd3979gy
p2134
I1
sVd9bxsr6
p2135
I1
sVd1au55i
p2136
I2
sVdhle5ba
p2137
I1
sVd5r6ik3
p2138
I4
sVd9idppi
p2139
I2
sVdpjwd58
p2140
I1
sVd5uermr
p2141
I3
sVdmtbph4
p2142
I1
sVd50ahz9
p2143
I1
sVd8v0zd2
p2144
I2
sVdrswx8m
p2145
I1
sVdcsexun
p2146
I1
sVd13bf10
p2147
I1
sVcyujb7c
p2148
I1
sVd43rlc4
p2149
I1
sVcz51har
p2150
I1
sVdjcuxbl
p2151
I1
sVd3e7pw7
p2152
I1
sVdeqrueg
p2153
I1
sVds40fka
p2154
I1
sVd2isuga
p2155
I1
sVdjkneg6
p2156
I1
sVdgkc2rt
p2157
I2
sVd8956t6
p2158
I1
sVczpg2eo
p2159
I1
sVd1e4bmu
p2160
I1
sVdn2tclb
p2161
I1
sVd9y9k1y
p2162
I1
sVdd5b9uv
p2163
I1
sVdpjfzns
p2164
I1
sVd8lu1d9
p2165
I1
sVdhsnf26
p2166
I1
sVdg4fx5l
p2167
I1
sVdrjdhpt
p2168
I1
sVd4p0ngy
p2169
I1
sVd3jlits
p2170
I1
sVdad6bkq
p2171
I3
sVd1az25p
p2172
I1
sVd3v5jzd
p2173
I1
sVdio1x6r
p2174
I1
sVdhoh89n
p2175
I2
sVd7ie3be
p2176
I1
sVdplqw0p
p2177
I1
sVd4xfzbs
p2178
I1
sVdfnpya1
p2179
I1
sVddzwj7x
p2180
I1
sVdijctc3
p2181
I2
sVdcvejns
p2182
I1
sVde0x45k
p2183
I1
sVdhhgx29
p2184
I1
sVdbs23m0
p2185
I1
sVd9rbdbw
p2186
I1
sVdb5c0mq
p2187
I1
sVd0ymrax
p2188
I1
sVd3feox0
p2189
I1
sVdnrmbba
p2190
I1
sVdnd89qw
p2191
I1
sVdd5036d
p2192
I2
sVdgq7f9f
p2193
I1
sVdmw148m
p2194
I1
sVdgo8m9u
p2195
I1
sVd3stsrw
p2196
I1
sVczw46ds
p2197
I1
sVd50q3c0
p2198
I1
sVdq3kagm
p2199
I1
sVczuwuuo
p2200
I1
sVd8jdtcp
p2201
I1
sVd1l7qi3
p2202
I1
sVdoeb6cp
p2203
I3
sVdbulo9a
p2204
I1
sVdg69oy7
p2205
I1
sVdbqua5x
p2206
I1
sVd85neck
p2207
I2
sVd8n4j37
p2208
I1
sVdbmv799
p2209
I1
sVd0z4v7n
p2210
I1
sVczskjjc
p2211
I1
sVdb53hnu
p2212
I1
sVczltlax
p2213
I1
sVdipt4j9
p2214
I1
sVdrb6rje
p2215
I2
sVds42xe6
p2216
I2
sVdb3crdr
p2217
I2
sVdg8x25y
p2218
I1
sVd01dg60
p2219
I1
sVd37svte
p2220
I7
sVdcja0kr
p2221
I2
sVczs7ysb
p2222
I1
sVdcveku7
p2223
I1
sVdndilut
p2224
I1
sVd979utw
p2225
I1
sVczsi8uu
p2226
I1
sVd3946t4
p2227
I6
sVdnjoulr
p2228
I1
sVd0ymbfz
p2229
I1
sVczuw9t6
p2230
I2
sVd5ifabp
p2231
I1
sVdbc3xlv
p2232
I1
sVdcvunkx
p2233
I1
sVddqsuuk
p2234
I1
sVdaymlnf
p2235
I1
sVdf6idef
p2236
I1
sVddpdie2
p2237
I6
sVdqfjjze
p2238
I1
sVdf7l14o
p2239
I1
sVd5fz5aj
p2240
I1
sVde7ni9n
p2241
I2
sVd7uuici
p2242
I1
sVdf0wp9g
p2243
I7
sVd6kt71g
p2244
I1
sVdifbx2l
p2245
I1
sVd63j4qd
p2246
I1
sVdj2m7ty
p2247
I1
sVdn3tp7t
p2248
I2
sVd0lsngv
p2249
I2
sVdazlndo
p2250
I1
sVdn5xk9m
p2251
I1
sVczvmtdb
p2252
I1
sVdav60vt
p2253
I1
sVcylhqfe
p2254
I1
sVd1y57qx
p2255
I2
sVdinu9mj
p2256
I3
sVdsa0qd1
p2257
I1
sVczge1ot
p2258
I1
sVda160fw
p2259
I1
sVczj4gp5
p2260
I1
sVd6yg18s
p2261
I1
sVdhh7h0s
p2262
I1
sVdht1ohb
p2263
I1
sVds15kir
p2264
I1
sVdg5gob7
p2265
I1
sVdp3bgzj
p2266
I1
sVdf7y8re
p2267
I3
sVdieeydo
p2268
I1
sVd4avat2
p2269
I1
sVd2ks2c2
p2270
I3
sVd1igswa
p2271
I1
sVdbew9tz
p2272
I4
sVdd6ljww
p2273
I1
sVdru6iq5
p2274
I1
sVcykde5t
p2275
I1
sVdgr7ifi
p2276
I2
sVdsdiwxn
p2277
I2
sVd61lrx6
p2278
I1
sVd3n9xuu
p2279
I2
sVddy6j3e
p2280
I2
sVddsf1eu
p2281
I2
sVdbktxh7
p2282
I1
sVdaycb9o
p2283
I1
sVdoza1kh
p2284
I1
sVdgs0q8d
p2285
I1
sVd46a0h5
p2286
I1
sVd4l80or
p2287
I1
sVd30k1do
p2288
I1
sVd66ohfi
p2289
I1
sVdq1k3yj
p2290
I1
sVd4nw55c
p2291
I1
sVdhudndv
p2292
I1
sVdioghxh
p2293
I1
sVd1oatv3
p2294
I1
sVdpx7wtt
p2295
I1
sVd67ylxo
p2296
I2
sVd08eprv
p2297
I1
sVdffph4i
p2298
I1
sVdr6ydrp
p2299
I4
sVdd5k6ls
p2300
I1
sVd2rqrmb
p2301
I1
sVd2qoi50
p2302
I1
sVdppiujf
p2303
I1
sVd3fnffp
p2304
I1
sVdqflkjx
p2305
I1
sVdenn7aj
p2306
I1
sVdobbn38
p2307
I1
sVcylufu2
p2308
I3
sVdtc6eic
p2309
I1
sVd7ugn5i
p2310
I1
sVd0craud
p2311
I1
sVd4ufc69
p2312
I1
sVd0cd5tk
p2313
I1
sVdh7f3xf
p2314
I1
sVd1tf9ul
p2315
I1
sVd3h829p
p2316
I2
sVd9grq05
p2317
I1
sVczwm6y7
p2318
I1
sVd817iw0
p2319
I1
sVd9dzml9
p2320
I1
sVd6493vv
p2321
I1
sVd3et0as
p2322
I3
sVdfanl4r
p2323
I1
sVd29sxqh
p2324
I1
sVdtd24lw
p2325
I1
sVd3lfw8d
p2326
I1
sVd1rnmgd
p2327
I1
sVdd55bnw
p2328
I1
sVdeddy8a
p2329
I1
sVdk5w850
p2330
I1
sVdcdatc4
p2331
I1
sVdd5i7kh
p2332
I1
sVdk3wv5a
p2333
I1
sVdngvyl4
p2334
I1
sVd984j9k
p2335
I1
sVdoolz09
p2336
I1
sVdd28kgl
p2337
I1
sVd9ycvkd
p2338
I1
sVd54hcty
p2339
I1
sVd5nlsqr
p2340
I3
sVdaeehqx
p2341
I1
sVd0i05zb
p2342
I1
sVd208dej
p2343
I2
sVcyi19pf
p2344
I1
sVdqw8z6c
p2345
I1
sVdhqwk9g
p2346
I1
sVd82k1vi
p2347
I1
sVda2918f
p2348
I1
sVd9eul6q
p2349
I1
sVdernmk8
p2350
I1
sVd10f4mr
p2351
I2
sVdf6door
p2352
I1
sVd4fuwng
p2353
I1
sVd1e3w77
p2354
I1
sVd3z5lzl
p2355
I1
sVdqle93e
p2356
I1
sVd9oiupz
p2357
I1
sVdro4k95
p2358
I1
sVdqi0efh
p2359
I1
sVd7r5cek
p2360
I1
sVd1c4cpy
p2361
I1
sVd17s9mu
p2362
I1
sVdil641n
p2363
I6
sVdbgyl8r
p2364
I1
sVde6a39v
p2365
I1
sVdkf853t
p2366
I1
sVddef9lv
p2367
I1
sVddc7t80
p2368
I3
sVdsi8o5s
p2369
I1
sVd2iluaq
p2370
I1
sVdb2m3r2
p2371
I1
sVd517c3w
p2372
I1
sVdnm421z
p2373
I1
sVdhzd9mc
p2374
I1
sVdc08dyc
p2375
I2
sVdfj2uww
p2376
I1
sVdj9xgzj
p2377
I2
sVd1i1pnn
p2378
I1
sVd2qvkue
p2379
I1
sVdapnzyg
p2380
I1
sVdf4kvdn
p2381
I1
sVd9c2eh9
p2382
I1
sVd2hwbc9
p2383
I1
sVdbaf2nv
p2384
I2
sVd86wm09
p2385
I2
sVdd68azv
p2386
I2
sVdnm0jhc
p2387
I1
sVd9eekgz
p2388
I1
sVdd6gdp5
p2389
I1
sVcz62ex3
p2390
I2
sVddamiar
p2391
I1
sVdie8kx0
p2392
I2
sVd01m4o4
p2393
I2
sVdauf381
p2394
I2
sVdijfufe
p2395
I1
sVdp08ugs
p2396
I1
sVdjnqcxy
p2397
I1
sVdgfa1d6
p2398
I1
sVdn1b8dw
p2399
I2
sVd3462le
p2400
I1
sVdo22l22
p2401
I1
sVdayopfa
p2402
I2
sVd3d81to
p2403
I1
sVd1oqs4c
p2404
I1
sVd6alyct
p2405
I1
sVcyjzpop
p2406
I1
sVd1jxhzo
p2407
I1
sVd057sef
p2408
I1
sVczy7sm1
p2409
I1
sVdpu4wsj
p2410
I1
sVdhjf91x
p2411
I1
sVdaj9kus
p2412
I1
sVdh7ugh7
p2413
I1
sVdeft1zm
p2414
I1
sVdrl38np
p2415
I2
sVd3acak2
p2416
I1
sVd1d8005
p2417
I1
sVdojdnvt
p2418
I1
sVdt20zd6
p2419
I1
sVdruouhs
p2420
I1
sVdeugf7q
p2421
I1
sVdejsj6s
p2422
I1
sVdfrb6nl
p2423
I1
sVdi0j5gm
p2424
I1
sVd5cdxw3
p2425
I1
sVczgl18v
p2426
I1
sVd0d8j4t
p2427
I1
sVdhcyejz
p2428
I1
sVd9oqnm8
p2429
I1
sVd68hnma
p2430
I4
sVd13oxyn
p2431
I1
sVd8l9id3
p2432
I1
sVdj7buq8
p2433
I1
sVdt2l05l
p2434
I1
sVda612sw
p2435
I1
sVdog4sgx
p2436
I1
sVdcsyb4v
p2437
I1
sVcyogjvz
p2438
I1
sVdhlprok
p2439
I1
sVd7feize
p2440
I1
sVdj72o5s
p2441
I2
sVd9bv1h9
p2442
I1
sVdfo8v8y
p2443
I1
sVdf9cemb
p2444
I2
sVd1q7ecb
p2445
I1
sVcz1gb3x
p2446
I1
sVd7lvgy3
p2447
I1
sVd1jbu44
p2448
I1
sVdd9sown
p2449
I2
sVdqdhg94
p2450
I1
sVd0ht7ui
p2451
I1
sVdqf3pfc
p2452
I1
sVd7iw0lp
p2453
I1
sVd17mwh7
p2454
I2
sVdncu67n
p2455
I1
sVd7v83rr
p2456
I1
sVdj0cwy4
p2457
I1
sVdil0j09
p2458
I1
sVdb0w48c
p2459
I1
sVd2i38rt
p2460
I1
sVdhzslan
p2461
I2
sVd9gf1lp
p2462
I1
sVd1x2i4z
p2463
I3
sVd7bq7ib
p2464
I1
sVdnojczm
p2465
I1
sVd1dz9u1
p2466
I1
sVdqff96q
p2467
I1
sVdnpupx0
p2468
I1
sVdca6qhu
p2469
I2
sVcz2zdhk
p2470
I1
sVdqsp5wb
p2471
I1
sVd5ygjfx
p2472
I2
sVd9v8xn1
p2473
I1
sVddcn607
p2474
I1
sVd7sqlsv
p2475
I1
sVdrvpisp
p2476
I1
sVdjyxv99
p2477
I1
sVdszhren
p2478
I1
sVdnmujf7
p2479
I1
sVdi4skh5
p2480
I1
sVdmmtnhv
p2481
I1
sVdqqg6yn
p2482
I1
sVd1e83ze
p2483
I1
sVd1vcqsu
p2484
I1
sVd7zafe7
p2485
I1
sVd538erv
p2486
I1
sVdo6sa3f
p2487
I1
sVd5g0imp
p2488
I1
sVdb3r8ev
p2489
I1
sVdejw9a5
p2490
I1
sVd6jmfsz
p2491
I1
sVd0q70uw
p2492
I1
sVczukh2q
p2493
I1
sVdrojean
p2494
I1
sVcyvfsud
p2495
I2
sVde6c72a
p2496
I1
sVdmgu9av
p2497
I1
sVdgi2jst
p2498
I1
sVdfmhuup
p2499
I1
sVdka0a9a
p2500
I1
sVdc2s85r
p2501
I1
sVdizj8k6
p2502
I1
sVd0xvsmv
p2503
I3
sVd9v1pcg
p2504
I1
sVddqlx3w
p2505
I1
sVczttl7a
p2506
I1
sVdmkbxv8
p2507
I1
sVdg92fah
p2508
I1
sVdaolsks
p2509
I2
sVd1x71uv
p2510
I1
sVd65la39
p2511
I1
sVd7cj5s4
p2512
I4
sVcyyyt83
p2513
I1
sVdqq9tlo
p2514
I1
sVdfhkyzy
p2515
I2
sVd6gu7yp
p2516
I1
sVdic89g2
p2517
I1
sVdf89kmi
p2518
I1
sVd0cxcrt
p2519
I1
sVd0qa7k3
p2520
I4
sVcymcydb
p2521
I2
sVd6x0p7b
p2522
I1
sVdej8n3g
p2523
I1
sVd7qd36y
p2524
I1
sVdcn07ft
p2525
I1
sVdfemcdo
p2526
I1
sVdmgrcb3
p2527
I1
sVdebucck
p2528
I1
sVd9x2xv3
p2529
I2
sVdfidvcz
p2530
I1
sVdpz323w
p2531
I2
sVdficadj
p2532
I1
sVd00c80q
p2533
I1
sVd7m4mc7
p2534
I1
sVd046vsd
p2535
I1
sVdo6kepq
p2536
I1
sVdingoj5
p2537
I1
sVdgfu4lv
p2538
I1
sVdgaj4eq
p2539
I1
sVde9qd67
p2540
I1
sVd9c0xg5
p2541
I2
sVd1oltyh
p2542
I2
sVd66wnr5
p2543
I1
sVd5ib1sp
p2544
I1
sVdnapxvz
p2545
I1
sVdnedspe
p2546
I1
sVde9i4bk
p2547
I2
sVd3nd0j5
p2548
I1
sVdd3ygj5
p2549
I1
sVdbmren3
p2550
I1
sVdnnp78w
p2551
I1
sVdidvj6g
p2552
I1
sVdkh6oks
p2553
I1
sVd46xfgm
p2554
I1
sVczn6jsz
p2555
I1
sVcz7ajs8
p2556
I1
sVdgoj44t
p2557
I1
sVdk9q5sm
p2558
I1
sVdkpl89o
p2559
I3
sVdc8ummq
p2560
I1
sVdeehd0b
p2561
I1
sVd29mjvu
p2562
I1
sVd6acj2u
p2563
I1
sVd8cwauz
p2564
I1
sVd31e8om
p2565
I1
sVczip4bo
p2566
I1
sVd5zv4s2
p2567
I1
sVdd1urcl
p2568
I1
sVdoad7v7
p2569
I1
sVd4jl7l1
p2570
I1
sVdefx1zv
p2571
I1
sVdnd9k9k
p2572
I2
sVczs3q34
p2573
I1
sVd1201aj
p2574
I1
sVddkcoju
p2575
I1
sVdnfmgvt
p2576
I1
sVd3oxv92
p2577
I2
sVd6665u9
p2578
I2
sVd6aonl4
p2579
I1
sVdam1l7g
p2580
I1
sVd1gl2nm
p2581
I3
sVd6yxqpe
p2582
I1
sVdc8yh7j
p2583
I1
sVdoccpuv
p2584
I1
sVdkrty0f
p2585
I1
sVdizkcxv
p2586
I4
sVdb8qew3
p2587
I1
sVczxfh2v
p2588
I2
sVd5n43km
p2589
I1
sVdha6qiy
p2590
I1
sVd9t8ii2
p2591
I1
sVd7ke59k
p2592
I2
sVdi53wxj
p2593
I5
sVdcbwzhg
p2594
I1
sVczbg2gh
p2595
I1
sVd6ylw14
p2596
I3
sVdk67ya2
p2597
I2
sVdjggvin
p2598
I1
sVdai4tze
p2599
I1
sVdjvj011
p2600
I1
sVd9k4jxp
p2601
I1
sVd1ttqg9
p2602
I2
sVdckwzmw
p2603
I1
sVd2jgv2j
p2604
I1
sVdmex1lf
p2605
I1
sVddfup39
p2606
I1
sVd3aoq5n
p2607
I1
sVdd5a2gk
p2608
I4
sVdiphsf1
p2609
I1
sVdd2mzyf
p2610
I1
sVd5hknxk
p2611
I1
sVd8nsoh2
p2612
I1
sVdkk1cwz
p2613
I1
sVd33imby
p2614
I1
sVdcaluj5
p2615
I1
sVdqeecxs
p2616
I1
sVdmq95i3
p2617
I1
sVdn7fdi3
p2618
I1
sVd6t5myj
p2619
I1
sVddu40k7
p2620
I1
sVdsfhbkp
p2621
I2
sVd57ob3h
p2622
I1
sVdg3u9gq
p2623
I1
sVdi3w8og
p2624
I3
sVd064w49
p2625
I1
sVdhjlkmc
p2626
I2
sVdisi6fi
p2627
I1
sVd7qiyel
p2628
I3
sVdixe7z9
p2629
I1
sVdbaaair
p2630
I1
sVdgxb9gq
p2631
I1
sVd6osnxi
p2632
I1
sVd2zpsc0
p2633
I1
sVdaqkoi7
p2634
I1
sVd08f0tt
p2635
I1
sVd796vra
p2636
I2
sVcymuurq
p2637
I1
sVdnx52x4
p2638
I1
sVdkag5qn
p2639
I1
sVd50gp0j
p2640
I1
sVdjhooqt
p2641
I1
sVdfguzow
p2642
I2
sVdae7g38
p2643
I1
sVd1o12ox
p2644
I1
sVd8n3t6m
p2645
I1
sVd5wnx0x
p2646
I1
sVd9yv5mx
p2647
I2
sVczwrgoo
p2648
I1
sVd994l84
p2649
I1
sVd7z62wd
p2650
I1
sVdokam4l
p2651
I1
sVdt9iqyj
p2652
I1
sVd9lpi4j
p2653
I1
sVd935t5k
p2654
I1
sVdfuftk0
p2655
I1
sVd2sktn4
p2656
I1
sVd31vr5j
p2657
I1
sVd407vu1
p2658
I1
sVd2fveoy
p2659
I3
sVd1wgc9x
p2660
I1
sVdmn7g21
p2661
I2
sVdh4pmem
p2662
I1
sVdhb7utf
p2663
I1
sVdgy76cz
p2664
I1
sVdgcc42m
p2665
I1
sVd851u5o
p2666
I1
sVdcvdwkp
p2667
I1
sVd1o45m5
p2668
I1
sVdfzz2e8
p2669
I1
sVddsb4g5
p2670
I1
sVd4bk73b
p2671
I1
sVdt8boaw
p2672
I1
sVd7k16ji
p2673
I1
sVcyi1n0l
p2674
I1
sVczrp9gm
p2675
I1
sVd1hom60
p2676
I1
sVdjgy76o
p2677
I1
sVdb3uvig
p2678
I1
sVdb1t7qa
p2679
I1
sVd8xdjbk
p2680
I1
sVd3i0rus
p2681
I1
sVd0iyiyb
p2682
I1
sVdkxhl53
p2683
I1
sVddr4u2h
p2684
I3
sVczzulhl
p2685
I1
sVd67clb0
p2686
I7
sVdmsjrmc
p2687
I3
sVde7ejek
p2688
I1
sVd2ozkef
p2689
I1
sVdbr1v7x
p2690
I1
sVdenz7gn
p2691
I1
sVdnlxe34
p2692
I1
sVdmg4u6r
p2693
I1
sVd2t6h4d
p2694
I1
sVdfhluax
p2695
I1
sVd6x0rjx
p2696
I2
sVd0tooon
p2697
I2
sVdtelpoi
p2698
I6
sVd3fhfs9
p2699
I2
sVdqf7rnr
p2700
I1
sVdqjycp6
p2701
I1
sVdndkklk
p2702
I1
sVdbpxmph
p2703
I1
sVdncopbk
p2704
I2
sVd6zshk7
p2705
I1
sVdd3ru8x
p2706
I1
sVczv23q3
p2707
I1
sVd8pzzpq
p2708
I1
sVdjrggkz
p2709
I1
sVd5m9xki
p2710
I2
sVd8dydjx
p2711
I1
sVdjvgf49
p2712
I1
sVddktblz
p2713
I1
sVdpj79vj
p2714
I1
sVd8693yz
p2715
I1
sVdk67jyy
p2716
I1
sVdpfh1nm
p2717
I1
sVdfx2673
p2718
I1
sVdgojyhc
p2719
I1
sVdh9f2r4
p2720
I1
sVdcl4inz
p2721
I1
sVd8lkli4
p2722
I1
sVdcd2ywo
p2723
I1
sVdmo94xj
p2724
I1
sVde7l285
p2725
I2
sVd2o32s6
p2726
I1
sVdffiv6v
p2727
I3
sVd0pks9j
p2728
I1
sVdsozlha
p2729
I1
sVd7bcj2g
p2730
I1
sVdhbg5cy
p2731
I1
sVd6m2w4n
p2732
I1
sVd7jwy0s
p2733
I1
sVdrvehdg
p2734
I1
sVdef1400
p2735
I1
sVd4c2g3o
p2736
I1
sVd53wcc4
p2737
I1
sVd1fz2jm
p2738
I9
sVdbi8w9q
p2739
I1
sVdn55v7n
p2740
I1
sVdgoy361
p2741
I1
sVd36k9tu
p2742
I2
sVczm9mj0
p2743
I1
sVd3uettv
p2744
I1
sVdrt5z8l
p2745
I2
sVd0v29d6
p2746
I1
sVd5zgfhc
p2747
I1
sVd6y5j7l
p2748
I2
sVdhx1p54
p2749
I1
sVdd2q0k5
p2750
I1
sVcz6gn1n
p2751
I3
sVdj8fimt
p2752
I1
sVd1n31n2
p2753
I1
sVcz7mhqp
p2754
I1
sVd4v97ex
p2755
I1
sVdko4vjb
p2756
I1
sVdcymyox
p2757
I1
sVdd59z5u
p2758
I1
sVdel87jw
p2759
I1
sVddpql08
p2760
I1
sVd7c8h4w
p2761
I5
sVd5bjhtg
p2762
I1
sVdmwmjen
p2763
I1
sVczwdrp0
p2764
I1
sVdru0v24
p2765
I2
sVdrqh7n8
p2766
I1
sVcymuae3
p2767
I1
sVcz1gltu
p2768
I1
sVdfwmz63
p2769
I1
sVdqyd6vr
p2770
I1
sVd6hqdm2
p2771
I1
sVdth61p1
p2772
I2
sVcyxhalu
p2773
I2
sVd9ya6ws
p2774
I1
sVdfrsclf
p2775
I1
sVdbsh6cc
p2776
I1
sVdmx0uqa
p2777
I2
sVdd4y9hd
p2778
I1
sVdgayogm
p2779
I1
sVdjx8k1u
p2780
I1
sVczhz4sw
p2781
I1
sVd90z0ao
p2782
I1
sVczmf87k
p2783
I1
sVdn429ik
p2784
I1
sVd2kob87
p2785
I1
sVcz474zz
p2786
I1
sVdrrwhua
p2787
I1
sVdnmw84e
p2788
I1
sVd8dzju3
p2789
I2
sVd24hs7g
p2790
I1
sVd4os60h
p2791
I1
sVdagyzf2
p2792
I1
sVdawpcer
p2793
I1
sVdps59dy
p2794
I1
sVdrrv3r8
p2795
I1
sVd8pj7uw
p2796
I2
sVd6z9n2m
p2797
I1
sVczu4jk6
p2798
I1
sVdf0w8nk
p2799
I1
sVdofzr17
p2800
I1
sVdq94uoq
p2801
I1
sVdnr2fhr
p2802
I1
sVdrxcusj
p2803
I1
sVdqe8grg
p2804
I1
sVd0z8y4e
p2805
I1
sVd2tcu9t
p2806
I1
sVcyiqjk9
p2807
I1
sVdb3qep8
p2808
I1
sVdi5hxr3
p2809
I1
sVdbk3jze
p2810
I1
sVd49s6g7
p2811
I1
sVd6cjctl
p2812
I1
sVdktzq2a
p2813
I1
sVd4p75x5
p2814
I1
sVd0smsux
p2815
I1
sVdi0buoz
p2816
I1
sVde2wkx8
p2817
I1
sVdpwm7d2
p2818
I1
sVd52trs6
p2819
I1
sVd0guv4n
p2820
I1
sVdaobuxo
p2821
I1
sVd8oois1
p2822
I1
sVczkstvp
p2823
I1
sVd8t4iwo
p2824
I1
sVdcavrwd
p2825
I1
sVcziy10l
p2826
I1
sVdgigflt
p2827
I1
sVddu233g
p2828
I1
sVcyw8ois
p2829
I1
sVdad30lu
p2830
I2
sVdp8xco0
p2831
I2
sVdndawun
p2832
I4
sVdgjiill
p2833
I1
sVd5be4wj
p2834
I1
sVdatw7bx
p2835
I1
sVd38qp43
p2836
I1
sVdjnp3wr
p2837
I1
sVda4ic11
p2838
I1
sVd5frwor
p2839
I1
sVd241nhj
p2840
I1
sVd1dksxu
p2841
I1
sVdcd0qti
p2842
I1
sVdd2pvst
p2843
I1
sVdtfn52e
p2844
I1
sVd456zf0
p2845
I1
sVcz1o4fe
p2846
I1
sVdpjgt7x
p2847
I2
sVdadefpy
p2848
I1
sVd0m9wr9
p2849
I1
sVdewog1x
p2850
I1
sVdk4u7mf
p2851
I1
sVdqa86k7
p2852
I1
sVdcvqug5
p2853
I1
sVdq84mo3
p2854
I1
sVdbqtip7
p2855
I1
sVcykqdif
p2856
I1
sVd07xtwn
p2857
I2
sVddsg2hi
p2858
I2
sVd30rmo4
p2859
I2
sVd6jhx85
p2860
I1
sVd6uq4i8
p2861
I1
sVdi635q3
p2862
I1
sVdiwdvhu
p2863
I2
sVdeipe0s
p2864
I1
sVd1rqbua
p2865
I1
sVd9cq78l
p2866
I1
sVd9laml3
p2867
I3
sVcz4gzuh
p2868
I1
sVdd0ddwq
p2869
I1
sVd3qulms
p2870
I1
sVd75twn7
p2871
I1
sVdgtm85x
p2872
I1
sVdbh4f0r
p2873
I1
sVd0ey7fg
p2874
I1
sVd9cwv83
p2875
I2
sVdcu54vg
p2876
I1
sVdiy5mzf
p2877
I1
sVd06731y
p2878
I1
sVd4vsnts
p2879
I1
sVdgbn41g
p2880
I1
sVd2r62d9
p2881
I1
sVdff16r4
p2882
I1
sVcz7kzvo
p2883
I1
sVdan1io1
p2884
I1
sVdrh3fdv
p2885
I1
sVdeex2fg
p2886
I1
sVddfo2ys
p2887
I1
sVdba0das
p2888
I2
sVdob49my
p2889
I1
sVde90jzh
p2890
I1
sVdmnys7r
p2891
I1
sVdiohyeb
p2892
I1
sVd2ztlty
p2893
I2
sVdkckoap
p2894
I4
sVd43sdtu
p2895
I2
sVdc7muop
p2896
I3
sVdhgbjiw
p2897
I1
sVdh8wjdy
p2898
I1
sVd34631y
p2899
I1
sVdd4mbo7
p2900
I1
sVdizzvn5
p2901
I1
sVczkz20x
p2902
I2
sVdizguc7
p2903
I1
sVdkzk9gz
p2904
I1
sVdbks070
p2905
I1
sVdq1ve1m
p2906
I1
sVdh9at1c
p2907
I1
sVczbqgy4
p2908
I1
sVd703fsg
p2909
I1
sVdqg7i4c
p2910
I1
sVd2sm2m8
p2911
I1
sVdcfidxl
p2912
I1
sVdb56cm6
p2913
I1
sVdhjeo26
p2914
I1
sVdcrj48q
p2915
I1
sVdo5rx0q
p2916
I1
sVdc5n5pu
p2917
I1
sVdrchnca
p2918
I2
sVd71k4by
p2919
I1
sVdmgt5kx
p2920
I1
sVddxhg53
p2921
I1
sVdg2ic94
p2922
I1
sVcz17hqh
p2923
I1
sVd68h4yk
p2924
I1
sVczonvk6
p2925
I1
sVcz67kdi
p2926
I1
sVdfq6e29
p2927
I1
sVdeq761k
p2928
I1
sVdfxbqb8
p2929
I1
sVdd0rwah
p2930
I1
sVd0wtou9
p2931
I1
sVdffmd25
p2932
I2
sVd4qj0rj
p2933
I1
sVd1zne5g
p2934
I1
sVczpu6nf
p2935
I1
sVdmvlhfi
p2936
I1
sVdaet13f
p2937
I1
sVd0iu4cm
p2938
I2
sVd7iqrld
p2939
I1
sVd2ehhjs
p2940
I1
sVdkz43f6
p2941
I1
sVd7aql0l
p2942
I2
sVczg655t
p2943
I1
sVd97dy71
p2944
I1
sVd172iw3
p2945
I1
sVcyj2ilz
p2946
I1
sVd9x3j23
p2947
I1
sVdcq70k8
p2948
I1
sVd4ppk0e
p2949
I1
sVd8ju0ii
p2950
I3
sVd547c1e
p2951
I2
sVcyns41f
p2952
I1
sVdpqt466
p2953
I1
sVdj8whdp
p2954
I1
sVdj3tpuz
p2955
I1
sVdq63w1o
p2956
I1
sVd9cqtvz
p2957
I1
sVdho4cc4
p2958
I1
sVdaxj5do
p2959
I2
sVd9hl3qe
p2960
I1
sVd3qqopz
p2961
I1
sVd8dyreu
p2962
I1
sVd7bnolu
p2963
I1
sVd2hqk7e
p2964
I1
sVdizhupo
p2965
I1
sVd1znfe8
p2966
I6
sVd54p39c
p2967
I3
sVde1bbj1
p2968
I1
sVd0pl9rc
p2969
I1
sVd566sbc
p2970
I1
sVd7o4bim
p2971
I2
sVdc6ugdr
p2972
I1
sVd8a74e7
p2973
I5
sVdj11d1e
p2974
I1
sVdnnmqpv
p2975
I1
sVdfr7mfh
p2976
I1
sVd67tji6
p2977
I1
sVd52rj1l
p2978
I1
sVdibaeau
p2979
I1
sVdhfdx7g
p2980
I2
sVdmh2bgg
p2981
I1
sVdd3389z
p2982
I1
sVdqlwft9
p2983
I1
sVditczz1
p2984
I1
sVczbq05e
p2985
I1
sVd24r48m
p2986
I1
sVdg2n2bb
p2987
I2
sVdirh77n
p2988
I1
sVdh6kqaj
p2989
I3
sVdd4z44c
p2990
I1
sVcz6k337
p2991
I1
sVd0f3cvs
p2992
I1
sVdotct09
p2993
I1
sVcz1krg8
p2994
I1
sVcyjiv6t
p2995
I1
sVdnxjq4q
p2996
I1
sVd0t6k58
p2997
I2
sVd2vne7b
p2998
I1
sVd9jlpvd
p2999
I1
sVdacp303
p3000
I2
sVdcbaqww
p3001
I1
sVd57tvzf
p3002
I1
sVdifwgx3
p3003
I1
sVdfufvzo
p3004
I2
sVd5g5eym
p3005
I7
sVd4xmi18
p3006
I1
sVdacsh3c
p3007
I1
sVd73srlg
p3008
I1
sVdbrm2h8
p3009
I1
sVdmnueg0
p3010
I1
sVdmwhso3
p3011
I1
sVd1xpqze
p3012
I1
sVdavaonm
p3013
I1
sVdduaekl
p3014
I1
sVd6gqs5y
p3015
I1
sVcz29sy3
p3016
I1
sVd5aozwl
p3017
I1
sVdfd22zm
p3018
I1
sVdeubdx9
p3019
I1
sVdfght3p
p3020
I1
sVdqgaf6d
p3021
I1
sVd9fs1st
p3022
I1
sVdh5vha7
p3023
I1
sVdppbzqc
p3024
I1
sVd1zpzqh
p3025
I1
sVd0qbtac
p3026
I1
sVczicuyf
p3027
I1
sVddf8ury
p3028
I1
sVd6aj5w7
p3029
I1
sVdf1tmmb
p3030
I1
sVderabq8
p3031
I1
sVdc971qa
p3032
I1
sVda6w8pq
p3033
I1
sVda0ci65
p3034
I1
sVdeziq3h
p3035
I1
sVd8j4ftt
p3036
I1
sVdgr5zj7
p3037
I1
sVd9e0kjn
p3038
I1
sVdfq8biq
p3039
I1
sVdg5qw49
p3040
I1
sVd7db4b0
p3041
I1
sVcz2s7qx
p3042
I1
sVdklo4i8
p3043
I1
sVdgzsh3s
p3044
I2
sVdbojf1y
p3045
I1
sVdcpk1kb
p3046
I1
sVdq0q8uv
p3047
I1
sVd0b43zn
p3048
I1
sVdbqdl3m
p3049
I1
sVdsyxgr4
p3050
I1
sVdoca84s
p3051
I1
sVczeqgh0
p3052
I4
sVdioi2e2
p3053
I1
sVd4khffj
p3054
I1
sVdpu4oz7
p3055
I1
sVd6qtlsz
p3056
I2
sVdjn89lv
p3057
I1
sVd93kl4f
p3058
I4
sVdfd1b1n
p3059
I1
sVdehswfb
p3060
I1
sVd66gt7e
p3061
I1
sVdco82qe
p3062
I1
sVdh9oo33
p3063
I1
sVczm4aja
p3064
I2
sVd0zljyr
p3065
I1
sVd0chyvh
p3066
I1
sVczh4y07
p3067
I2
sVdkpfay6
p3068
I1
sVd4fohag
p3069
I1
sVd5ogrzq
p3070
I1
sVd44lfw1
p3071
I1
sVcywivq4
p3072
I1
sVddqpfoo
p3073
I1
sVd3mo8e1
p3074
I1
sVdshyr7l
p3075
I1
sVdgxo4vd
p3076
I1
sVd7095ec
p3077
I1
sVdijewvz
p3078
I2
sVdt2pvr9
p3079
I1
sVdg2kuqt
p3080
I1
sVd5ly3wa
p3081
I1
sVd2e094x
p3082
I3
sVd9wguki
p3083
I1
sVdexm3j8
p3084
I1
sVdobl2mr
p3085
I1
sVd5nhbv0
p3086
I1
sVdthbgvw
p3087
I1
sVdmj3059
p3088
I2
sVd3c4ic6
p3089
I2
sVdflotxt
p3090
I1
sVd8ncj76
p3091
I2
sVczgg7li
p3092
I1
sVdipfdkp
p3093
I2
sVdgkcgo5
p3094
I2
sVdghvang
p3095
I1
sVcyjvw3u
p3096
I1
sVd5yn3bg
p3097
I1
sVdcbji04
p3098
I2
sVdp5dj54
p3099
I1
sVda6alrv
p3100
I1
sVdjrmg7j
p3101
I1
sVd4v67jn
p3102
I1
sVdjpz9no
p3103
I1
sVdfaogcn
p3104
I1
sVdd02321
p3105
I1
sVcyvxse1
p3106
I1
sVdk2uall
p3107
I1
sVddjmfz2
p3108
I1
sVdhwmdtd
p3109
I1
sVdob956z
p3110
I1
sVd2v1yvl
p3111
I1
sVcynwxeb
p3112
I1
sVcylvy2e
p3113
I1
sVdnzhce1
p3114
I2
sVd7sk9o2
p3115
I1
sVd6wsp9v
p3116
I1
sVdbpj8oq
p3117
I3
sVdsqsnxm
p3118
I1
sVdseuqnt
p3119
I1
sVd4eyd67
p3120
I1
sVddyssdz
p3121
I1
sVd3hlszu
p3122
I1
sVd0vgusu
p3123
I1
sVdae982z
p3124
I1
sVdimgutg
p3125
I1
sVdjywtk3
p3126
I1
sVdnm4vkd
p3127
I1
sVda8cs3i
p3128
I1
sVdswm99t
p3129
I1
sVd9k581m
p3130
I1
sVd586nkb
p3131
I1
sVddc1hf8
p3132
I1
sVdr1zkbk
p3133
I2
sVd0860hb
p3134
I1
sVdgmugt3
p3135
I1
sVdfhfig2
p3136
I1
sVdbvtv64
p3137
I1
sVdhrbkkq
p3138
I1
sVdb8zvu8
p3139
I1
sVd1ttu7p
p3140
I1
sVddn2cky
p3141
I1
sVdq9ppfy
p3142
I1
sVdst5p85
p3143
I1
sVdgdp8n5
p3144
I1
sVdobd75c
p3145
I1
sVdev15g4
p3146
I1
sVddiuv1i
p3147
I1
sVd1bf7l5
p3148
I1
sVd5xf45m
p3149
I1
sVd60e9ik
p3150
I1
sVd2svlf6
p3151
I2
sVd7k0q69
p3152
I1
sVdduqvn8
p3153
I1
sVd7a66jv
p3154
I1
sVdb5cwhl
p3155
I1
sVdn034cl
p3156
I2
sVd9vlxi7
p3157
I1
sVdqba9wq
p3158
I1
sVd79mfu0
p3159
I2
sVd8k7a0w
p3160
I1
sVder3yny
p3161
I1
sVdrq0w9g
p3162
I1
sVdj643tf
p3163
I1
sVdaeefsm
p3164
I1
sVd7t4sft
p3165
I1
sVd1i6vsp
p3166
I1
sVdc7qp3x
p3167
I1
sVdiwjr5z
p3168
I1
sVdff3cod
p3169
I3
sVd1ito0s
p3170
I2
sVd19tdmi
p3171
I1
sVdi4k9p5
p3172
I1
sVdkksqrg
p3173
I1
sVd7e89la
p3174
I1
sVd83dxts
p3175
I2
sVd6kau0l
p3176
I1
sVd164645
p3177
I1
sVd90nllt
p3178
I1
sVd21oirh
p3179
I1
sVd55ka1g
p3180
I1
sVdbklfg0
p3181
I1
sVdieedw0
p3182
I2
sVdeajm4a
p3183
I1
sVd7aiw51
p3184
I1
sVd3sxtj4
p3185
I1
sVd2sabcj
p3186
I1
sVdf3qtau
p3187
I1
sVd3fbk07
p3188
I1
sVdcycv5s
p3189
I3
sVdnmkodi
p3190
I2
sVd2wi5wu
p3191
I1
sVd43girj
p3192
I2
sVd39za2c
p3193
I1
sVdqe4in5
p3194
I1
sVdal6apo
p3195
I1
sVcyz38o0
p3196
I1
sVd1na8bt
p3197
I1
sVddc7dnd
p3198
I1
sVd2jtxsa
p3199
I5
sVdde8zms
p3200
I1
sVdp0nvzt
p3201
I1
sVczrzaf7
p3202
I1
sVcz7s560
p3203
I1
sVd8shgtu
p3204
I1
sVdh0tm0y
p3205
I1
sVdben4hn
p3206
I1
sVcyvdnza
p3207
I1
sVdgn3ruk
p3208
I5
sVdglkucz
p3209
I1
sVda158wu
p3210
I1
sVdcw0z66
p3211
I1
sVcyswa11
p3212
I1
sVdczs3wl
p3213
I1
sVd22uksj
p3214
I1
sVd85sxdr
p3215
I4
sVd5boo1r
p3216
I1
sVdbcceg7
p3217
I1
sVczdh7kg
p3218
I1
sVdco4y3i
p3219
I1
sVdnryh78
p3220
I1
sVdb7ku5x
p3221
I2
sVdg32679
p3222
I1
sVdba59b6
p3223
I4
sVd57xn28
p3224
I1
sVdn18059
p3225
I4
sVdfvs8ex
p3226
I2
sVd7zzgbe
p3227
I1
sVdj53s1r
p3228
I1
sVdawlc4x
p3229
I1
sVdjk3cah
p3230
I1
sVczhl26n
p3231
I1
sVdhdp1ts
p3232
I3
sVdhb66ye
p3233
I3
sVd1zn3wl
p3234
I1
sVd1dadaa
p3235
I1
sVdo3kl5j
p3236
I2
sVd3midp8
p3237
I1
sVdfdrkj1
p3238
I1
sVdblp5nv
p3239
I1
sVd2fb72w
p3240
I1
sVdqizz1f
p3241
I1
sVczfm13q
p3242
I1
sVdkyycnx
p3243
I1
sVcyx9bii
p3244
I1
sVdezue6l
p3245
I2
sVd6frg1n
p3246
I2
sVdeba7xz
p3247
I2
sVdn96yjh
p3248
I1
sVdadyuod
p3249
I1
sVdnedxw7
p3250
I1
sVdsgp2ha
p3251
I1
sVd1ey7j1
p3252
I1
sVczyz0kx
p3253
I1
sVdmrzrwk
p3254
I1
sVddq36f0
p3255
I1
sVdr0epcn
p3256
I1
sVdmtyk82
p3257
I2
sVd3j4cqy
p3258
I1
sVdes9fal
p3259
I1
sVdd9jwzw
p3260
I1
sVdb5jblk
p3261
I1
sVd35d90j
p3262
I2
sVd313e64
p3263
I1
sVde5lq95
p3264
I1
sVdbjb5d3
p3265
I1
sVdqo4grb
p3266
I1
sVdsf6va9
p3267
I1
sVd1yy368
p3268
I1
sVdoc97qk
p3269
I2
sVdq00shd
p3270
I1
sVdtinth5
p3271
I3
sVdduixuh
p3272
I2
sVcysnnsl
p3273
I1
sVd9c4jg9
p3274
I1
sVdbw6836
p3275
I1
sVd81hw7w
p3276
I1
sVd742b8m
p3277
I1
sVdam78e1
p3278
I1
sVdfxwm5m
p3279
I1
sVdrq0dxh
p3280
I1
sVdawx1ap
p3281
I1
sVdcy94hv
p3282
I1
sVd2if36o
p3283
I2
sVd4oovz1
p3284
I1
sVd5dhsmm
p3285
I1
sVdti7ewu
p3286
I1
sVdn67da9
p3287
I1
sVd7z9150
p3288
I1
sVd9br0c3
p3289
I1
sVdgdnbaq
p3290
I2
sVdj90qsi
p3291
I1
sVdcjv05o
p3292
I1
sVd11m3rx
p3293
I3
sVdn4kynk
p3294
I1
sVdcjm9yz
p3295
I1
sVd0m0jij
p3296
I1
sVd4xjns0
p3297
I1
sVdnd1xgj
p3298
I1
sVdn8fe83
p3299
I1
sVdf1inn9
p3300
I2
sVdbgwh2c
p3301
I1
sVd05jo62
p3302
I2
sVd6hcx19
p3303
I1
sVd71mrog
p3304
I1
sVd70pgxs
p3305
I1
sVd3970mq
p3306
I3
sVdh8irka
p3307
I2
sVd8dlxvz
p3308
I1
sVdq3t54j
p3309
I1
sVdb3rw9f
p3310
I2
sVd7tgia9
p3311
I1
sVd9z55p6
p3312
I1
sVczowruf
p3313
I5
sVd65rl7w
p3314
I1
sVd3kuv1w
p3315
I1
sVdaz82ns
p3316
I1
sVdgohvq7
p3317
I1
sVd08wx2a
p3318
I1
sVczfcco3
p3319
I1
sVdeaonan
p3320
I2
sVd581t4j
p3321
I1
sVdj3mhii
p3322
I1
sVd3aazbe
p3323
I1
sVd2thx1j
p3324
I2
sVd76edvw
p3325
I1
sVdj4awia
p3326
I1
sVdd9yg2i
p3327
I1
sVdt85dy4
p3328
I1
sVcyl5f9d
p3329
I1
sVdfznhvu
p3330
I1
sVd2fmz3q
p3331
I1
sVdaxzts9
p3332
I6
sVd7l6xp5
p3333
I1
sVd0ugvxq
p3334
I1
sVd0ffkwn
p3335
I1
sVdcmoifd
p3336
I1
sVdrx1ca6
p3337
I1
sVdc2sh2p
p3338
I1
sVdijt118
p3339
I1
sVcz7qre0
p3340
I1
sVd3wc84w
p3341
I1
sVdbld862
p3342
I1
sVd5tbhrf
p3343
I1
sVdgmx6x0
p3344
I1
sVd9iwsbq
p3345
I4
sVd6nrq0m
p3346
I1
sVdfb5llc
p3347
I1
sVdahrbl8
p3348
I1
sVdcpqvsk
p3349
I1
sVd18y2k6
p3350
I1
sVdcxip0n
p3351
I1
sVd2pwirt
p3352
I1
sVdej6zvy
p3353
I2
sVdflapvs
p3354
I1
sVdcrzaj7
p3355
I2
sVdfpa22r
p3356
I1
sVd3zxyq1
p3357
I1
sVd01fge5
p3358
I1
sVczb2l4t
p3359
I1
sVdp5e9ht
p3360
I7
sVdp3x0sn
p3361
I1
sVdb2182h
p3362
I1
sVd0uh7br
p3363
I1
sVd2ood9t
p3364
I1
sVdqfd8sv
p3365
I1
sVdbz8ll2
p3366
I1
sVdr1f9zl
p3367
I1
sVdjarge6
p3368
I1
sVdprkkw8
p3369
I3
sVd7m7z73
p3370
I1
sVd314w8l
p3371
I1
sVd7y0oq5
p3372
I1
sVd3ggkn0
p3373
I1
sVd5idyv0
p3374
I2
sVd5993u3
p3375
I2
sVd6zxrn7
p3376
I1
sVd7x2c75
p3377
I1
sVdhn87ik
p3378
I1
sVdeqqqld
p3379
I1
sVdhcd4fi
p3380
I1
sVdf9ajgy
p3381
I1
sVd9gz8kr
p3382
I1
sVczxqc0e
p3383
I1
sVdewt1sr
p3384
I1
sVdduqrz4
p3385
I2
sVdadyzwh
p3386
I1
sVde8istx
p3387
I1
sVdftsa9z
p3388
I1
sVdququai
p3389
I2
sVd278dvq
p3390
I1
sVczesp7b
p3391
I2
sVcyka25q
p3392
I1
sVdagtexl
p3393
I1
sVd6lih2c
p3394
I1
sVczi279a
p3395
I1
sVdeb8y2p
p3396
I1
sVdezg9j5
p3397
I1
sVcyzning
p3398
I1
sVdr5eiyo
p3399
I1
sVd16zyeb
p3400
I1
sVd1fmc73
p3401
I1
sVdncb85x
p3402
I1
sVd0dvt5x
p3403
I1
sVdjg4knx
p3404
I1
sVd2o5et9
p3405
I1
sVdmuddsa
p3406
I1
sVd9bl4l9
p3407
I1
sVdbvnhw0
p3408
I1
sVdiefkfp
p3409
I1
sVdkgg5mp
p3410
I1
sVdrwyjrl
p3411
I1
sVdi7bh98
p3412
I1
sVdcbtkcx
p3413
I1
sVdjpa2q3
p3414
I1
sVcysv1a7
p3415
I1
sVdhyfpjr
p3416
I1
sVdj2js0i
p3417
I1
sVd9ckgpr
p3418
I1
sVdaiyjv8
p3419
I1
sVcyire8b
p3420
I1
sVd4436dt
p3421
I1
sVd7svllv
p3422
I1
sVd3t7uo2
p3423
I1
sVdd4igfv
p3424
I1
sVczjlfxz
p3425
I1
sVd0zp1qj
p3426
I2
sVd6itelp
p3427
I1
sVdivo679
p3428
I1
sVdio1d5n
p3429
I1
sVde4yusd
p3430
I2
sVdryfvgg
p3431
I2
sVdc9l7cc
p3432
I1
sVd37an3t
p3433
I1
sVdkx5el5
p3434
I1
sVdbmw0xz
p3435
I2
sVd0hy9mt
p3436
I1
sVdnd7b6g
p3437
I3
sVd1ec08s
p3438
I1
sVdbzpzyl
p3439
I1
sVdgfzfui
p3440
I4
sVdnmdxnu
p3441
I1
sVdqumsaw
p3442
I1
sVd8dm9lz
p3443
I1
sVdeg3j3c
p3444
I1
sVdqi1rgd
p3445
I1
sVd8w5jg1
p3446
I1
sVd0g7e73
p3447
I2
sVd2h7apx
p3448
I2
sVd6fvzra
p3449
I2
sVdrap78x
p3450
I1
sVd9tv2xf
p3451
I1
sVd9cpatt
p3452
I1
sVdkqa302
p3453
I5
sVd4fbdv6
p3454
I1
sVd36mupp
p3455
I1
sVd107xfx
p3456
I2
sVd871g0w
p3457
I1
sVdmuqdge
p3458
I1
sVdtehh6r
p3459
I1
sVdfrch0x
p3460
I1
sVdoa1iiu
p3461
I1
sVdfapny1
p3462
I1
sVd21gb9y
p3463
I1
sVday73pj
p3464
I1
sVd4jsmi0
p3465
I1
sVdt5dhyj
p3466
I1
sVd17ju1n
p3467
I1
sVd4kr62i
p3468
I2
sVd06zxx3
p3469
I4
sVcyk0yji
p3470
I1
sVd29h3pc
p3471
I1
sVdavmkzu
p3472
I1
sVdt5qcy7
p3473
I1
sVd1krb9s
p3474
I1
sVczztbq4
p3475
I1
sVdgysf28
p3476
I2
sVczmmtq0
p3477
I1
sVda6xj8d
p3478
I1
sVd428zca
p3479
I1
sVdipm139
p3480
I1
sVcykp3ic
p3481
I1
sVcysw82k
p3482
I3
sVdgwvg3p
p3483
I3
sVdcwi9xm
p3484
I1
sVdnqr32v
p3485
I2
sVd7at62x
p3486
I1
sVd73lk6p
p3487
I1
sVdhck09u
p3488
I1
sVd8zdzhw
p3489
I5
sVd0iuux5
p3490
I1
sVdsor02l
p3491
I1
sVdk32zpy
p3492
I1
sVddc817t
p3493
I1
sVd7k23oe
p3494
I2
sVd8r9jr4
p3495
I5
sVdb700zv
p3496
I1
sVdeeog9d
p3497
I1
sVdeazwfz
p3498
I1
sVd5flrih
p3499
I1
sVdi4slwa
p3500
I1
sVdesu2g1
p3501
I1
sVdae5yli
p3502
I1
sVdr2hjmy
p3503
I5
sVd3lp4qf
p3504
I1
sVdc3juoi
p3505
I3
sVdeape26
p3506
I1
sVd4w4zuf
p3507
I2
sVczin9n8
p3508
I1
sVd3bcwif
p3509
I1
sVd0ylto9
p3510
I1
sVcyvjpux
p3511
I1
sVd3nda7a
p3512
I1
sVda3xrcr
p3513
I1
sVd9xngko
p3514
I1
sVczdn1ge
p3515
I1
sVdb1ubpn
p3516
I1
sVd7w0hxy
p3517
I1
sVdg44nhy
p3518
I1
sVd2gz0we
p3519
I1
sVdsyumxs
p3520
I1
sVczrjinf
p3521
I1
sVdbvyvlw
p3522
I1
sVd0mbqwt
p3523
I1
sVdnt8p5z
p3524
I1
sVdk6ofpr
p3525
I1
sVcymi4jt
p3526
I1
sVd14bube
p3527
I1
sVdgm0oej
p3528
I1
sVd72kwu4
p3529
I1
sVdgvfrw6
p3530
I1
sVdbvss2v
p3531
I1
sVdila3c9
p3532
I1
sVdi3h038
p3533
I1
sVdafquv7
p3534
I2
sVczhirng
p3535
I1
sVd8m023i
p3536
I5
sVdne7qmy
p3537
I1
sVdndp2vr
p3538
I1
sVdjxuwt7
p3539
I1
sVd9k12kb
p3540
I2
sVd3j4eft
p3541
I1
sVczbd82h
p3542
I1
sVd2wtnsy
p3543
I2
sVdg6d0m8
p3544
I1
sVd7fujl3
p3545
I1
sVdqktw6h
p3546
I1
sVdhryxsp
p3547
I2
sVd6a73vz
p3548
I1
sVd5h0xup
p3549
I2
sVdjj8cgg
p3550
I2
sVd0kpw32
p3551
I1
sVd1qjlxz
p3552
I2
sVdi848jn
p3553
I1
sVcyp6dp3
p3554
I1
sVd6ydkkd
p3555
I2
sVd6q7yaf
p3556
I1
sVddi29ko
p3557
I2
sVdbsfx4d
p3558
I2
sVda15rbr
p3559
I1
sVdd9s44i
p3560
I1
sVd17vvek
p3561
I1
sVd9xjk5j
p3562
I2
sVd1h84e2
p3563
I1
sVd03asxv
p3564
I1
sVd1ek055
p3565
I2
sVdmtdp91
p3566
I1
sVdcoc3nv
p3567
I1
sVdco8xt1
p3568
I1
sVd54pgr6
p3569
I2
sVd4jpxon
p3570
I2
sVczb4k9u
p3571
I1
sVddcdh5m
p3572
I1
sVd21ek7i
p3573
I1
sVdakoa9e
p3574
I1
sVd3kp6zb
p3575
I1
sVdi0gfma
p3576
I1
sVd0i2pol
p3577
I1
sVdh6ti0k
p3578
I1
sVdbrnb86
p3579
I1
sVdc54iya
p3580
I1
sVdozdw4v
p3581
I1
sVdr22ilf
p3582
I2
sVd8bizp7
p3583
I1
sVdf7qfaa
p3584
I2
sVd7kb2zm
p3585
I1
sVdh7l8ew
p3586
I1
sVdq09gjd
p3587
I1
sVd88uqwb
p3588
I2
sVdn4p923
p3589
I1
sVdih0lnq
p3590
I1
sVd1d8ldf
p3591
I1
sVdcnm9yq
p3592
I1
sVde59034
p3593
I1
sVd0bxjtb
p3594
I1
sVd6ppauq
p3595
I1
sVdatz3n7
p3596
I1
sVdt7w6sx
p3597
I1
sVczs5j4e
p3598
I3
sVdrxgsgr
p3599
I1
sVd21nitp
p3600
I1
sVd1drn0t
p3601
I1
sVd72i3zf
p3602
I1
sVd6ndz39
p3603
I1
sVcyktl0x
p3604
I1
sVd41hhve
p3605
I2
sVd4xuls7
p3606
I1
sVddbvprc
p3607
I1
sVd4rhxhn
p3608
I1
sVd9d1ryk
p3609
I1
sVcz9gop5
p3610
I1
sVd91jk3s
p3611
I10
sVd6pd4bi
p3612
I1
sVdt6n0ht
p3613
I1
sVdmz7um5
p3614
I1
sVd6ml21z
p3615
I1
sVdjy633p
p3616
I1
sVd4ohqoz
p3617
I1
sVdftliqh
p3618
I2
sVcz6jcyg
p3619
I1
sVdcalrya
p3620
I1
sVd4gxzsg
p3621
I1
sVdp931tk
p3622
I1
sVd1o6ydg
p3623
I2
sVd129iio
p3624
I1
sVd5d2ako
p3625
I2
sVcyw10c5
p3626
I2
sVdcbi99l
p3627
I7
sVd2a249v
p3628
I1
sVdq6w0jp
p3629
I1
sVczhp6t6
p3630
I1
sVcz0e6ap
p3631
I1
sVd97rs8d
p3632
I1
sVd35crek
p3633
I2
sVd3w8z6d
p3634
I1
sVd9lylzo
p3635
I1
sVdd8k571
p3636
I1
sVdf466r4
p3637
I1
sVd82yon5
p3638
I1
sVdr29373
p3639
I2
sVdp7obfg
p3640
I1
sVd7efk4q
p3641
I3
sVdhtrolc
p3642
I1
sVd7e4c6y
p3643
I1
sVdehtiuv
p3644
I2
sVcys6423
p3645
I2
sVdjafprh
p3646
I1
sVd9xzdfq
p3647
I1
sVddcmcff
p3648
I1
sVdj9qv6a
p3649
I3
sVd2aiar0
p3650
I1
sVd5ekwdb
p3651
I1
sVdjmfe0r
p3652
I2
sVd095gcb
p3653
I1
sVdr9r7eu
p3654
I1
sVda6clkz
p3655
I1
sVdcw9xni
p3656
I1
sVdmhabpm
p3657
I1
sVd8g6pqp
p3658
I1
sVdoyfpq7
p3659
I1
sVdposi93
p3660
I2
sVcyyim6x
p3661
I1
sVdkvojua
p3662
I1
sVdeax44q
p3663
I1
sVd336osu
p3664
I1
sVdgt3pd2
p3665
I1
sVd4miw70
p3666
I1
sVd9o1kse
p3667
I1
sVddx92x7
p3668
I1
sVdan3sm3
p3669
I1
sVdcy2ukt
p3670
I1
sVdcvi7aa
p3671
I2
sVd8wu9hf
p3672
I2
sVd0emkv8
p3673
I1
sVdgeln8y
p3674
I1
sVdcwj8xq
p3675
I1
sVdepjdur
p3676
I5
sVdbqiivf
p3677
I1
sVdkgyf48
p3678
I1
sVd30gqf1
p3679
I3
sVdrf5r58
p3680
I2
sVdk4bdyt
p3681
I1
sVczu9uwh
p3682
I1
sVda8v47b
p3683
I1
sVdfrqe6e
p3684
I1
sVdfex7pl
p3685
I3
sVdi3ik6y
p3686
I1
sVd3wytej
p3687
I1
sVdj2m0pd
p3688
I1
sVdj5vlca
p3689
I1
sVdedzmct
p3690
I2
sVd25zcku
p3691
I1
sVczi0y3o
p3692
I1
sVdo2sejo
p3693
I2
sVd4ci4gk
p3694
I3
sVczjxgte
p3695
I1
sVd18ls79
p3696
I1
sVd7w72un
p3697
I3
sVd7tbxqs
p3698
I1
sVd6wf07m
p3699
I1
sVcz5tez5
p3700
I1
sVd0b263i
p3701
I1
sVdtjbfy6
p3702
I1
sVdajk547
p3703
I1
sVdmxaaqk
p3704
I1
sVddbyfhv
p3705
I1
sVdg4c3nk
p3706
I1
sVd32z0oq
p3707
I1
sVdogp40j
p3708
I1
sVcz6las6
p3709
I1
sVdd73asn
p3710
I1
sVdqldarn
p3711
I1
sVcz7febq
p3712
I1
sVdogioj3
p3713
I1
sVdk2kdki
p3714
I1
sVdadqrcj
p3715
I1
sVd943js0
p3716
I1
sVdosqppp
p3717
I1
sVdrbz1ra
p3718
I1
sVd2j5x8i
p3719
I1
sVdoaq0v9
p3720
I1
sVczryraw
p3721
I1
sVdq302o0
p3722
I1
sVdpjf689
p3723
I1
sVdry7g1r
p3724
I2
sVd9zmv0k
p3725
I1
sVdr2g0kn
p3726
I1
sVczyqtt1
p3727
I1
sVd25m1hn
p3728
I1
sVd9zpwqw
p3729
I1
sVd1cpxio
p3730
I2
sVd2haeg3
p3731
I1
sVd3wwl75
p3732
I1
sVdfft83n
p3733
I1
sVd1s497z
p3734
I3
sVdcpnbbo
p3735
I2
sVdegyoqk
p3736
I1
sVczm9xx0
p3737
I1
sVdrsoco3
p3738
I1
sVdbgt82w
p3739
I1
sVd3mtjz6
p3740
I1
sVd2fywnf
p3741
I1
sVdodleah
p3742
I1
sVd2zijet
p3743
I3
sVd7ars33
p3744
I1
sVdkks4vc
p3745
I1
sVdon45sm
p3746
I1
sVd4qa744
p3747
I1
sVdbr1j3w
p3748
I1
sVdbxoo6k
p3749
I2
sVdnxzyty
p3750
I1
sVdjpbivf
p3751
I1
sVd49oxmt
p3752
I2
sVd953e9m
p3753
I1
sVdg3napf
p3754
I1
sVd2zis6b
p3755
I1
sVdat61nz
p3756
I4
sVdgpkj70
p3757
I1
sVd4przve
p3758
I3
sVd9cd83c
p3759
I2
sVd2x82p1
p3760
I1
sVdea7rlc
p3761
I1
sVdhcu01m
p3762
I1
sVd0aiq7e
p3763
I1
sVdh2jinc
p3764
I1
sVdh9ahf9
p3765
I1
sVdrwj366
p3766
I1
sVdks6agq
p3767
I1
sVdtaukb3
p3768
I1
sVdecr1s0
p3769
I2
sVdmqhk7k
p3770
I1
sVcymi51q
p3771
I1
sVdc7xvgd
p3772
I1
sVdipc31a
p3773
I1
sVdcktw00
p3774
I1
sVddiszg7
p3775
I1
sVd0hamyz
p3776
I1
sVd6kxe0b
p3777
I7
sVd35it78
p3778
I1
sVczne7fr
p3779
I1
sVdc8ektv
p3780
I1
sVdhgjyjd
p3781
I2
sVczztfn6
p3782
I1
sVdniozyj
p3783
I1
sVd2eke0x
p3784
I1
sVde8iltf
p3785
I1
sVdt0essd
p3786
I2
sVd9u7rg2
p3787
I5
sVdgwkyl2
p3788
I1
sVdjegwdg
p3789
I1
sVdi5rx3r
p3790
I1
sVdrtgrh3
p3791
I1
sVdndryib
p3792
I1
sVd9ywqde
p3793
I1
sVczzcsit
p3794
I1
sVdasfcna
p3795
I1
sVd935ynp
p3796
I1
sVdmrt1y0
p3797
I2
sVd3xfw0p
p3798
I1
sVd8a82bw
p3799
I2
sVd7uwqv5
p3800
I1
sVd0yw6d7
p3801
I1
sVd84esbx
p3802
I1
sVd07731g
p3803
I1
sVdc79psa
p3804
I1
sVd4olgmh
p3805
I3
sVdpblymb
p3806
I1
sVdf7i3u2
p3807
I1
sVdawx3nk
p3808
I1
sVd7huf36
p3809
I3
sVdaqikig
p3810
I1
sVddh1zy7
p3811
I1
sVdief0sx
p3812
I1
sVdhftjwu
p3813
I1
sVdhumwnr
p3814
I1
sVd4fwejm
p3815
I1
sVd6gim0f
p3816
I1
sVcyxjefv
p3817
I1
sVddn6ah7
p3818
I1
sVcz8ay5m
p3819
I1
sVd9wvm84
p3820
I1
sVd6mbm5m
p3821
I1
sVd5nicwv
p3822
I1
sVd2afpre
p3823
I1
sVd91icca
p3824
I5
sVcysxejl
p3825
I1
sVcz0mnrs
p3826
I1
sVdebnr1n
p3827
I1
sVdejdd1m
p3828
I1
sVd39yjbo
p3829
I1
sVdnfnegu
p3830
I1
sVdmpxnuf
p3831
I1
sVda7wfgi
p3832
I1
sVdt41roa
p3833
I1
sVd24a64n
p3834
I1
sVd5zwswe
p3835
I1
sVd8f1kiu
p3836
I1
sVdeb6nh7
p3837
I3
sVd4otttt
p3838
I2
sVdssmnx1
p3839
I1
sVdsk0r5y
p3840
I1
sVd8w9v4z
p3841
I1
sVdb6ong8
p3842
I6
sVda2luzu
p3843
I1
sVddwx6r0
p3844
I1
sVdh4y0zj
p3845
I3
sVdf3s2xd
p3846
I1
sVdbxzqdm
p3847
I1
sVd1kz1kj
p3848
I1
sVdt4if17
p3849
I1
sVdeg9lok
p3850
I1
sVcz4pnp9
p3851
I1
sVd7u7a7k
p3852
I2
sVdcy2lni
p3853
I1
sVcz9tr33
p3854
I1
sVd0c02a1
p3855
I1
sVczj43xb
p3856
I1
sVd984fz5
p3857
I1
sVcyjs9c3
p3858
I1
sVd24hkr9
p3859
I1
sVda5kf5y
p3860
I1
sVdpym2wo
p3861
I2
sVdmfgxl1
p3862
I1
sVdmy1yui
p3863
I1
sVd281frq
p3864
I1
sVd8guk8i
p3865
I2
sVdpob00t
p3866
I1
sVd39j8cc
p3867
I1
sVd47dg6g
p3868
I1
sVdbydkw4
p3869
I1
sVdfgcp8y
p3870
I2
sVdfvg7qh
p3871
I1
sVdogii6t
p3872
I1
sVdqg8qc8
p3873
I1
sVd97idpf
p3874
I1
sVd85hrje
p3875
I1
sVdi9bj8q
p3876
I1
sVd32udxx
p3877
I1
sVdmq72dm
p3878
I2
sVd8z7hdf
p3879
I4
sVdcup9dv
p3880
I1
sVdrusiv4
p3881
I1
sVddfarh9
p3882
I1
sVddvmos2
p3883
I1
sVd0t1uuu
p3884
I1
sVdms7oxh
p3885
I1
sVdcqudb1
p3886
I1
sVd0pq5ju
p3887
I1
sVdee1vt3
p3888
I3
sVd44x3jf
p3889
I1
sVdhc6a9s
p3890
I1
sVdbez1sz
p3891
I1
sVdpohgl7
p3892
I1
sVdmffwem
p3893
I2
sVdk6bset
p3894
I1
sVdc1f2az
p3895
I1
sVd4rzmbi
p3896
I1
sVddhkkkv
p3897
I2
sVd5zcu7n
p3898
I2
sVdozopte
p3899
I2
sVdehvnqi
p3900
I1
sVdekie79
p3901
I2
sVda0s04q
p3902
I1
sVdpodot8
p3903
I1
sVd2mcc8s
p3904
I1
sVdckhbgp
p3905
I2
sVdmrdg9x
p3906
I1
sVd9d5ov9
p3907
I1
sVd6rzg72
p3908
I1
sVda1tapj
p3909
I1
sVdmi7sbh
p3910
I1
sVdrh8fz3
p3911
I2
sVd0vjco9
p3912
I1
sVczfd5hq
p3913
I1
sVd76nvh8
p3914
I1
sVd575mee
p3915
I1
sVdhelnn8
p3916
I2
sVdki9vq2
p3917
I1
sVdfiq0gv
p3918
I1
sVdooft75
p3919
I1
sVda7zqto
p3920
I1
sVd3xxyx8
p3921
I1
sVdhn21h6
p3922
I1
sVdqmvsx8
p3923
I3
sVdfye1mb
p3924
I1
sVd6j4n68
p3925
I1
sVdqwbk4j
p3926
I1
sVdrbsci0
p3927
I1
sVd48k5mh
p3928
I2
sVd4o1gd8
p3929
I1
sVd2ynjle
p3930
I1
sVcyqb0al
p3931
I1
sVdoze7q3
p3932
I1
sVd2kdsvy
p3933
I2
sVdmqbve3
p3934
I1
sVd41dar1
p3935
I4
sVcymeqc0
p3936
I1
sVd10sh9h
p3937
I1
sVdg3rdmx
p3938
I1
sVd9nzutr
p3939
I1
sVd1zwfvk
p3940
I1
sVdhjv1ff
p3941
I1
sVdpplmmc
p3942
I1
sVdr6lngu
p3943
I1
sVd1hbhwa
p3944
I1
sVdip1bok
p3945
I1
sVd7yg93k
p3946
I1
sVd2doqe9
p3947
I1
sVddxxn59
p3948
I1
sVde0ue5p
p3949
I1
sVdsxhtu8
p3950
I1
sVd7rtmoq
p3951
I1
sVcyhv2uw
p3952
I1
sVdqs4y0l
p3953
I1
sVd290i25
p3954
I1
sVdnd6ycy
p3955
I1
sVdi26dgl
p3956
I1
sVdcraeqd
p3957
I1
sVddu468z
p3958
I1
sVd30wy8i
p3959
I2
sVdgrzukr
p3960
I2
sVd076q73
p3961
I1
sVdni66d1
p3962
I1
sVczg4qym
p3963
I1
sVd1w5ndy
p3964
I1
sVdbuwe4l
p3965
I1
sVcyi83uc
p3966
I2
sVdflfr2t
p3967
I1
sVdnh8e9v
p3968
I1
sVd8zks6k
p3969
I2
sVdg7tax1
p3970
I1
sVdf7cuac
p3971
I1
sVd8ql566
p3972
I1
sVd7i0c2l
p3973
I2
sVd13s8mr
p3974
I1
sVd2qo0fk
p3975
I1
sVdal1o1z
p3976
I1
sVd26wvp4
p3977
I1
sVd1vvkwo
p3978
I3
sVdnub92k
p3979
I1
sVdfj26z2
p3980
I1
sVdcdnue0
p3981
I1
sVd1oj9yl
p3982
I1
sVd5ji1cu
p3983
I1
sVdoytg80
p3984
I2
sVdcpek8o
p3985
I2
sVdkyr8lm
p3986
I3
sVdc63lws
p3987
I4
sVd91uecv
p3988
I1
sVdaibk3m
p3989
I1
sVczgo3g2
p3990
I1
sVdjnk7gn
p3991
I1
sVd6i9eof
p3992
I1
sVdi9167y
p3993
I1
sVdnfnrxe
p3994
I3
sVdpnfduq
p3995
I1
sVdj8crtk
p3996
I1
sVdt1zb42
p3997
I1
sVd4v6a23
p3998
I1
sVczzz6tg
p3999
I1
sVdfx95se
p4000
I1
sVczgsw7n
p4001
I1
sVda9d510
p4002
I1
sVd5umu2t
p4003
I6
sVd3sxj9v
p4004
I1
sVdazeroj
p4005
I1
sVdfiy6zt
p4006
I2
sVdpu7jnx
p4007
I1
sVd5oqcec
p4008
I2
sVdizf10z
p4009
I1
sVdso9vzl
p4010
I1
sVcypjkjh
p4011
I1
sVdq7nyzg
p4012
I1
sVdso9fve
p4013
I1
sVd38wcsf
p4014
I1
sVda1qwxi
p4015
I1
sVd7tr1bv
p4016
I1
sVd5kkr7k
p4017
I1
sVd0ymvgu
p4018
I1
sVdblqh4s
p4019
I1
sVdcdyh7i
p4020
I2
sVdq33ytm
p4021
I3
sVdjvmyvj
p4022
I2
sVddkr4o8
p4023
I1
sVd6twwhg
p4024
I1
sVd9ecbqf
p4025
I1
sVd7ua1tb
p4026
I1
sVdffszxn
p4027
I1
sVdpz1u6o
p4028
I2
sVd9npmap
p4029
I1
sVd0x9ugv
p4030
I1
sVdhyiisk
p4031
I1
sVdhbxxtf
p4032
I1
sVdex7ih6
p4033
I1
sVdarev1i
p4034
I1
sVdfthgf4
p4035
I1
sVd5992de
p4036
I1
sVdaz8hv9
p4037
I2
sVd49jxx2
p4038
I2
sVd2fl324
p4039
I1
sVdtiolsz
p4040
I1
sVdc1yjhw
p4041
I1
sVdppblec
p4042
I2
sVdgdgg7z
p4043
I1
sVdd96ym2
p4044
I2
sVdhvbupm
p4045
I1
sVd3stn07
p4046
I1
sVdahcnso
p4047
I3
sVd9eozwd
p4048
I1
sVdd77a0j
p4049
I2
sVdbs5wi3
p4050
I2
sVdbm3m2i
p4051
I1
sVczurg9a
p4052
I1
sVczvykv9
p4053
I1
sVdelqhv3
p4054
I1
sVd4164a0
p4055
I1
sVd5oz9rd
p4056
I1
sVd1ixugr
p4057
I1
sVczq0tpb
p4058
I1
sVdj8y9zg
p4059
I1
sVd0j2lgj
p4060
I1
sVd5xjalw
p4061
I1
sVdjmz3pk
p4062
I1
sVd2sibvi
p4063
I1
sVd3fui86
p4064
I1
sVddrodey
p4065
I1
sVdhdapwc
p4066
I1
sVd8lt2zp
p4067
I2
sVdakv5uu
p4068
I1
sVd1omhzy
p4069
I2
sVd2jxy9q
p4070
I1
sVdo4xcd4
p4071
I1
sVd9ugss9
p4072
I1
sVdn7zfxh
p4073
I1
sVdsuo1sd
p4074
I1
sVdaxc1ey
p4075
I2
sVd3uwxn7
p4076
I1
sVdbnmxri
p4077
I1
sVd4htkrs
p4078
I1
sVd8tsnvd
p4079
I1
sVcyl3pv7
p4080
I1
sVddy7cbe
p4081
I1
sVd02cyqk
p4082
I1
sVdq8diw1
p4083
I1
sVdafnb79
p4084
I1
sVczw56dh
p4085
I1
sVdem27qj
p4086
I1
sVdceomf5
p4087
I1
sVda3ldik
p4088
I2
sVd6svk3q
p4089
I1
sVd78pu25
p4090
I2
sVd9mdoix
p4091
I1
sVdbq8xoi
p4092
I1
sVcyncmbq
p4093
I1
sVdi7s6ju
p4094
I2
sVd9auke5
p4095
I1
sVdcijqya
p4096
I1
sVdt69zsx
p4097
I2
sVdefbvy5
p4098
I8
sVdau7c1a
p4099
I1
sVd1x5139
p4100
I1
sVcyql8z1
p4101
I1
sVd7z4mls
p4102
I4
sVdqk2ekq
p4103
I1
sVdeorc1z
p4104
I1
sVdsniwkz
p4105
I1
sVdd6gxko
p4106
I1
sVd3409dn
p4107
I1
sVdsafh4w
p4108
I1
sVcz3tm9x
p4109
I1
sVdrlky5s
p4110
I1
sVczv59q7
p4111
I1
sVdbibm2r
p4112
I1
sVd9bkzh3
p4113
I1
sVdmvfy3f
p4114
I1
sVd9cgs60
p4115
I1
sVd2f8vrx
p4116
I1
sVcywe3rb
p4117
I1
sVdnh6qa6
p4118
I1
sVdcqadat
p4119
I1
sVcytx3u5
p4120
I1
sVdmqsk8y
p4121
I1
sVdgu8k4w
p4122
I1
sVd1t5zd7
p4123
I2
sVdnmv7uu
p4124
I1
sVdmxv0ku
p4125
I1
sVdrj0ofe
p4126
I1
sVdi52bb0
p4127
I1
sVdk6046v
p4128
I3
sVd9cl6x0
p4129
I1
sVd0fi3lv
p4130
I1
sVdgettts
p4131
I1
sVdne3byh
p4132
I2
sVd5g543v
p4133
I2
sVd3vt1z9
p4134
I2
sVdmo0bdh
p4135
I1
sVd2fiaax
p4136
I2
sVd5or3b1
p4137
I2
sVdruqnjj
p4138
I2
sVd6v204k
p4139
I2
sVdeh1g9d
p4140
I2
sVdpxqq35
p4141
I1
sVddpciz4
p4142
I1
sVdfmyk6d
p4143
I3
sVcz2hsew
p4144
I1
sVcyy8uu8
p4145
I1
sVd66o2cw
p4146
I1
sVd0twnqa
p4147
I1
sVdkv72wc
p4148
I1
sVdmxvkfk
p4149
I1
sVdhl5m2p
p4150
I1
sVdh04pmr
p4151
I1
sVd5blc1x
p4152
I2
sVddvi2x1
p4153
I3
sVdt6bdcf
p4154
I3
sVd89726p
p4155
I3
sVdffohmn
p4156
I1
sVd9ca247
p4157
I2
sVd2z95mh
p4158
I1
sVczco2qm
p4159
I1
sVd3hbgzm
p4160
I1
sVdohadq8
p4161
I2
sVdd7kc64
p4162
I1
sVd2tmo17
p4163
I1
sVdcotiwx
p4164
I1
sVd4ybmqa
p4165
I1
sVde8hf4y
p4166
I1
sVdmouxny
p4167
I1
sVdd5iotc
p4168
I1
sVdc6ixmg
p4169
I1
sVdoizmqw
p4170
I1
sVdhz7jzr
p4171
I1
sVdh38g2d
p4172
I2
sVds1ht2b
p4173
I1
sVd059w81
p4174
I1
sVdftt2lo
p4175
I1
sVd5m816h
p4176
I1
sVdefli95
p4177
I2
sVd1iv8xi
p4178
I1
sVdrmt6zp
p4179
I1
sVd6929br
p4180
I1
sVd6zoy9r
p4181
I1
sVdd351eg
p4182
I1
sVddqrwr6
p4183
I1
sVczyb3zl
p4184
I1
sVdamf7l3
p4185
I1
sVd0dfvef
p4186
I1
sVdjrl7zb
p4187
I2
sVdg2ajec
p4188
I2
sVd6mb6qn
p4189
I1
sVdn2pk8c
p4190
I1
sVd4mg480
p4191
I1
sVdjj9d9w
p4192
I1
sVd1wlyqp
p4193
I2
sVdkm8b8e
p4194
I1
sVd2rfkrm
p4195
I1
sVdqsvgvn
p4196
I1
sVd0766h3
p4197
I2
sVdmrwcc1
p4198
I1
sVdba4t5d
p4199
I1
sVdan3l8k
p4200
I1
sVdqng2lo
p4201
I1
sVd3f4ggy
p4202
I1
sVd8foogj
p4203
I1
sVd31qep8
p4204
I1
sVdkdrmb9
p4205
I1
sVdt5mziw
p4206
I1
sVdthhp81
p4207
I1
sVd48i8xs
p4208
I1
sVdmum4eu
p4209
I1
sVczdmqap
p4210
I1
sVdhp0d7l
p4211
I1
sVd9cho2a
p4212
I3
sVcyihwz6
p4213
I1
sVdaw8skk
p4214
I1
sVd9c96uc
p4215
I1
sVdc7jfwc
p4216
I1
sVd4ep8dr
p4217
I1
sVdr1d0p6
p4218
I1
sVcytd0ih
p4219
I1
sVd1ttd6t
p4220
I1
sVd6pixnu
p4221
I1
sVcypr8nk
p4222
I1
sVd2cgppb
p4223
I1
sVdqflxno
p4224
I1
sVdh1la5o
p4225
I1
sVdkm4odp
p4226
I1
sVdh9epbf
p4227
I1
sVd8j0ca1
p4228
I1
sVd17z1rz
p4229
I1
sVdb8s8jy
p4230
I1
sVdalfj3x
p4231
I2
sVdbih8ln
p4232
I1
sVd834osp
p4233
I3
sVd9h46pq
p4234
I1
sVdjzo6ow
p4235
I1
sVda75yu1
p4236
I1
sVda2sgsh
p4237
I1
sVdb3d5yg
p4238
I1
sVdgdpuou
p4239
I1
sVde8i76f
p4240
I1
sVdc9ze5k
p4241
I4
sVdhw4htf
p4242
I1
sVd5epmge
p4243
I2
sVdjssbal
p4244
I1
sVdjlaeps
p4245
I1
sVd3rqz0z
p4246
I1
sVdeg6epv
p4247
I5
sVd3fe1py
p4248
I1
sVdfnedc5
p4249
I1
sVdc80546
p4250
I1
sVdimvcwj
p4251
I2
sVdczyhs8
p4252
I1
sVdp507ni
p4253
I1
sVd8smr1j
p4254
I2
sVd4gmocr
p4255
I1
sVdckxoti
p4256
I1
sVdps0m9w
p4257
I1
sVd3k12gz
p4258
I1
sVdfmh7d7
p4259
I1
sVdcjoazv
p4260
I1
sVdoy1um0
p4261
I1
sVdj3kfgk
p4262
I1
sVd6b2ot8
p4263
I1
sVcyukqqy
p4264
I1
sVdbkz6pp
p4265
I1
sVdjabpim
p4266
I1
sVdsdc8si
p4267
I1
sVdo2bmlo
p4268
I2
sVdac0i1k
p4269
I1
sVd8tjyyp
p4270
I1
sVde5kmwd
p4271
I1
sVdj2lksj
p4272
I1
sVdhc1e9e
p4273
I1
sVd2slfoj
p4274
I1
sVdi9ny6f
p4275
I1
sVde97f3g
p4276
I1
sVddqaw9w
p4277
I1
sVdh2g5u4
p4278
I2
sVde5ed0i
p4279
I1
sVczp4oui
p4280
I2
sVdecty8a
p4281
I2
sVdj5tklg
p4282
I1
sVdbdxvqn
p4283
I1
sVd9m61j3
p4284
I2
sVdsmadc3
p4285
I1
sVdquj2o8
p4286
I1
sVdee6h9l
p4287
I3
sVdn39kdw
p4288
I1
sVd2fivz2
p4289
I1
sVdjw6j22
p4290
I2
sVdckijvu
p4291
I1
sVd39scli
p4292
I1
sVd1c9mcb
p4293
I1
sVd34tban
p4294
I1
sVcz4hyop
p4295
I4
sVdnvu2nc
p4296
I1
sVdeisrhk
p4297
I1
sVd69vtj6
p4298
I1
sVd48p8pw
p4299
I1
sVd7xv1lm
p4300
I1
sVdfqzqen
p4301
I1
sVdcjzv8y
p4302
I1
sVdsx17o7
p4303
I5
sVdc01zu1
p4304
I2
sVczrffd2
p4305
I1
sVcyrjcid
p4306
I1
sVd4d4dt3
p4307
I1
sVdk8xj3j
p4308
I1
sVdc0r181
p4309
I1
sVdfzy8sg
p4310
I1
sVdnvkguw
p4311
I1
sVdfnxg9p
p4312
I1
sVd52xtau
p4313
I1
sVdiv3t4c
p4314
I1
sVdq500xk
p4315
I1
sVdby68ws
p4316
I1
sVddrlvra
p4317
I1
sVd05xtde
p4318
I1
sVdhewh5y
p4319
I1
sVdb4s4ap
p4320
I1
sVdjnuk5u
p4321
I1
sVd0crknw
p4322
I1
sVd7oe2n1
p4323
I1
sVdrnu791
p4324
I1
sVd3bbbu0
p4325
I1
sVdilwe9q
p4326
I1
sVdjdswza
p4327
I2
sVdcbv016
p4328
I2
sVd1t9pi2
p4329
I1
sVd07wzk4
p4330
I3
sVdjv1ir4
p4331
I1
sVdsrajgy
p4332
I1
sVcynva59
p4333
I1
sVczvv7j8
p4334
I1
sVde487oz
p4335
I1
sVdcnzd3r
p4336
I2
sVd2b670c
p4337
I1
sVd7z9s4k
p4338
I12
sVd0trl9e
p4339
I1
sVdp9hbkz
p4340
I1
sVd4i9xwb
p4341
I2
sVcz6fs6u
p4342
I1
sVd75eo1t
p4343
I1
sVd0mr9bb
p4344
I1
sVd9es87u
p4345
I1
sVdfriebv
p4346
I1
sVd1bqbjr
p4347
I1
sVdj2agyq
p4348
I1
sVcz8itdc
p4349
I1
sVd0hd4if
p4350
I1
sVdkyiqoq
p4351
I2
sVd2kuyql
p4352
I1
sVdcveam3
p4353
I1
sVd1pf7hc
p4354
I2
sVdjsgi6j
p4355
I1
sVd4ezwku
p4356
I1
sVczh2te2
p4357
I1
sVdfdr594
p4358
I1
sVdmxr0y0
p4359
I1
sVd2ir31x
p4360
I1
sVdas8xx8
p4361
I1
sVdkgvi95
p4362
I2
sVdsl3usv
p4363
I1
sVczay04p
p4364
I1
sVdhxhzm8
p4365
I1
sVd9d3p33
p4366
I1
sVddgegba
p4367
I1
sVd45yzro
p4368
I1
sVdbmynce
p4369
I2
sVdfhp1z3
p4370
I1
sVdiblh6n
p4371
I1
sVdb88hbd
p4372
I1
sVd8clo93
p4373
I1
sVd0zm2wu
p4374
I1
sVdj619jq
p4375
I2
sVdkkhgbj
p4376
I1
sVd25qez8
p4377
I1
sVd2ziep5
p4378
I1
sVdbyctmc
p4379
I1
sVd22yur0
p4380
I1
sVddeghpc
p4381
I1
sVdiu29gt
p4382
I2
sVcz2iii4
p4383
I1
sVd6zebxp
p4384
I1
sVdqffl0c
p4385
I1
sVd0uq1ay
p4386
I1
sVd2cyy29
p4387
I1
sVcywltpe
p4388
I1
sVdix50lh
p4389
I1
sVda0rwr1
p4390
I1
sVdjkchai
p4391
I1
sVd70jfzi
p4392
I1
sVdj2rzqv
p4393
I1
sVdgiaqxp
p4394
I1
sVdms20xr
p4395
I1
sVdd5khr9
p4396
I1
sVd7t11yr
p4397
I1
sVd82gf3u
p4398
I1
sVdkgfi0s
p4399
I1
sVd4y7fo8
p4400
I1
sVdrcsmq7
p4401
I2
sVd89tn45
p4402
I1
sVdqk6j82
p4403
I1
sVd2m450i
p4404
I1
sVcyvqle4
p4405
I1
sVd6apzm1
p4406
I2
sVdaqm40x
p4407
I1
sVdaqfe0w
p4408
I1
sVdjwygm6
p4409
I1
sVdq9o20r
p4410
I1
sVd1djtaq
p4411
I1
sVdn2d512
p4412
I1
sVd2q86v3
p4413
I1
sVd4f0elz
p4414
I1
sVdhy7nr3
p4415
I1
sVd7yg50n
p4416
I1
sVd7vpul2
p4417
I2
sVd10xq2o
p4418
I1
sVda268x2
p4419
I1
sVd79ojhs
p4420
I1
sVd3au787
p4421
I1
sVd930lih
p4422
I1
sVdfb3ohp
p4423
I1
sVd8jtxcg
p4424
I2
sVdqq8mtt
p4425
I1
sVd9cd7v4
p4426
I2
sVdst8ft3
p4427
I1
sVd1vzxyd
p4428
I1
sVdrzp66l
p4429
I1
sVdmz20ew
p4430
I1
sVdmk5qs7
p4431
I1
sVd06x76q
p4432
I1
sVdd56qg1
p4433
I1
sVdrlow51
p4434
I1
sVde1l87z
p4435
I1
sVd9cdokz
p4436
I1
sVdeobbvy
p4437
I1
sVd1fp7p1
p4438
I1
sVd48dqqn
p4439
I1
sVdfx51cz
p4440
I1
sVd6md4w4
p4441
I1
sVdo17oen
p4442
I1
sVdfqhoqe
p4443
I1
sVd89l1es
p4444
I1
sVd26jo6v
p4445
I1
sVd31tnpe
p4446
I1
sVcypbd0a
p4447
I1
sVdgksuoi
p4448
I1
sVd8swcgo
p4449
I1
sVdfrj3fq
p4450
I1
sVd9d5gqb
p4451
I2
sVd0enc35
p4452
I1
sVdqjkb9u
p4453
I1
sVdq665j1
p4454
I1
sVddfa9by
p4455
I1
sVde5f2uw
p4456
I1
sVdq3v5i8
p4457
I2
sVd5wxjnw
p4458
I1
sVdehux0v
p4459
I1
sVdap6kms
p4460
I1
sVddnu75g
p4461
I1
sVd0jjr1m
p4462
I1
sVdaajcl0
p4463
I1
sVd4kx4ws
p4464
I1
sVdh5ch32
p4465
I1
sVd0dmtjp
p4466
I1
sVdh75aww
p4467
I1
sVcyxab05
p4468
I1
sVdgu3l6m
p4469
I5
sVd0owzot
p4470
I1
sVd4vvs0d
p4471
I1
sVd59nc35
p4472
I1
sVdjv3cn3
p4473
I1
sVdrt88tq
p4474
I1
sVdctlog1
p4475
I1
sVddmt6pw
p4476
I1
sVde0ktf8
p4477
I4
sVd48vgp2
p4478
I1
sVdifw6m2
p4479
I1
sVd3as6rg
p4480
I1
sVdt2kehw
p4481
I1
sVdcj1ygp
p4482
I1
sVdsnc1hd
p4483
I1
sVcz2uvc3
p4484
I1
sVday7g0r
p4485
I1
sVd7z9hjs
p4486
I1
sVdi6eu4l
p4487
I1
sVd35epfm
p4488
I1
sVd5nm0m7
p4489
I1
sVd5i7coy
p4490
I3
sVdeq6ogd
p4491
I1
sVd8qdrha
p4492
I1
sVcz37wm3
p4493
I1
sVdmqb7lq
p4494
I1
sVdpsusuq
p4495
I3
sVdgryfk6
p4496
I1
sVdka5rmf
p4497
I7
sVdj83j55
p4498
I1
sVd2koi7n
p4499
I1
sVdbpcu08
p4500
I1
sVd5az9e9
p4501
I1
sVdho7m6j
p4502
I1
sVcymfaz8
p4503
I1
sVddp2711
p4504
I1
sVd0r5qog
p4505
I1
sVdi63ffq
p4506
I1
sVdsit17q
p4507
I1
sVds0jy9v
p4508
I1
sVd3xd7sh
p4509
I1
sVdncccwh
p4510
I1
sVdcrej0n
p4511
I1
sVd1qufgl
p4512
I1
sVdcg9iky
p4513
I1
sVdfdk1w9
p4514
I1
sVd30z6ja
p4515
I1
sVdnivnxv
p4516
I1
sVds9tium
p4517
I1
sVdprmsfm
p4518
I1
sVd9zlx2v
p4519
I1
sVdawveca
p4520
I1
sVddiihql
p4521
I1
sVd2ehayg
p4522
I1
sVdbzq4ih
p4523
I1
sVd0ze6ev
p4524
I2
sVdbwvxk8
p4525
I1
sVdbq12fe
p4526
I2
sVdhfrmsl
p4527
I1
sVdfv4vcb
p4528
I3
sVd12qfrw
p4529
I1
sVdbw6z8s
p4530
I1
sVd66pvds
p4531
I1
sVd2e9ihf
p4532
I1
sVd3rxig0
p4533
I1
sVdds2idb
p4534
I1
sVdh575ku
p4535
I1
sVdakg9im
p4536
I1
sVd5lyu8d
p4537
I1
sVdf9ku3z
p4538
I6
sVd7c6d6c
p4539
I1
sVdkx3ujd
p4540
I1
sVd60qemu
p4541
I1
sVcywqaj4
p4542
I1
sVddocyfe
p4543
I1
sVdjhvg8x
p4544
I2
sVd9nazgi
p4545
I1
sVdfbmmlu
p4546
I1
sVdiqkm4g
p4547
I1
sVdgzbziv
p4548
I1
sVd3p1nf2
p4549
I1
sVd6l07rv
p4550
I1
sVdimizjp
p4551
I1
sVdb6l2ye
p4552
I1
sVcyx6fm4
p4553
I1
sVdeux29w
p4554
I1
sVd5n7z0b
p4555
I1
sVd7ibps5
p4556
I1
sVcyqfef1
p4557
I1
sVd5eoo1v
p4558
I1
sVdj2z4gy
p4559
I7
sVdh15zpm
p4560
I3
sVd1681bi
p4561
I1
sVcz2u4m2
p4562
I1
sVdeksvsa
p4563
I1
sVde8huc4
p4564
I1
sVdhkmoww
p4565
I1
sVdknarfp
p4566
I1
sVd1x4hkm
p4567
I2
sVd4832no
p4568
I2
sVdp3tu2n
p4569
I1
sVd3weilk
p4570
I2
sVd546p2f
p4571
I1
sVczacf6b
p4572
I4
sVdp6yl8w
p4573
I2
sVd6w151s
p4574
I1
sVd9g3glt
p4575
I1
sVd69sv54
p4576
I1
sVde35wbx
p4577
I9
sVdsy2nfg
p4578
I2
sVdk3mblh
p4579
I1
sVdn5wwce
p4580
I1
sVczylc3r
p4581
I1
sVdq1at0k
p4582
I1
sVdfk7h9s
p4583
I1
sVdb241b1
p4584
I2
sVd9x25g1
p4585
I1
sVdfyaflv
p4586
I1
sVdeloo37
p4587
I2
sVden0o2n
p4588
I1
sVdoj2ly0
p4589
I3
sVdpret6v
p4590
I1
sVd4nv4hd
p4591
I1
sVd8eg3ly
p4592
I1
sVd7fymat
p4593
I1
sVdhdsp7e
p4594
I1
sVdf7pf88
p4595
I10
sVdiff71p
p4596
I1
sVdcpotyv
p4597
I2
sVdi004ib
p4598
I1
sVdk4wvxb
p4599
I1
sVd4z5vca
p4600
I1
sVd703qha
p4601
I1
sVd22k2in
p4602
I1
sVdi9gyc6
p4603
I1
sVd9d5h8m
p4604
I1
sVdaczmnv
p4605
I1
sVczp70rt
p4606
I1
sVd9c64v8
p4607
I1
sVdf93b0d
p4608
I1
sVdeuqync
p4609
I1
sVd24g5rc
p4610
I2
sVdru8pif
p4611
I2
sVd9b19n3
p4612
I1
sVd3kapqh
p4613
I1
sVd3af5fi
p4614
I1
sVd0ocyks
p4615
I1
sVd6oxia1
p4616
I1
sVd3p0j0b
p4617
I1
sVczxb2cu
p4618
I1
sVd1aafli
p4619
I1
sVd310w65
p4620
I1
sVd2je0t5
p4621
I2
sVdhz1sxn
p4622
I1
sVczi8sgi
p4623
I1
sVd20ij77
p4624
I1
sVd0nwii5
p4625
I1
sVdt1lxr9
p4626
I1
sVd5xp7sy
p4627
I2
sVdo81q3d
p4628
I1
sVdn1xho6
p4629
I1
sVdi1oj4m
p4630
I1
sVdcdhtm7
p4631
I1
sVd757gpa
p4632
I1
sVdpxdaij
p4633
I1
sVdj6xn9s
p4634
I3
sVdbjg8zs
p4635
I1
sVd08jpka
p4636
I1
sVd4u3kk0
p4637
I1
sVd5lgsd1
p4638
I1
sVczfw9x4
p4639
I1
sVdqpeut7
p4640
I1
sVd3mitja
p4641
I3
sVdav5ae5
p4642
I1
sVddh0ycn
p4643
I1
sVdqpcnzi
p4644
I1
sVdobq856
p4645
I7
sVdren9c2
p4646
I1
sVd4a102r
p4647
I1
sVdbbd1be
p4648
I2
sVdjw4qes
p4649
I1
sVd6sfsqi
p4650
I1
sVdfj7kgs
p4651
I1
sVdhr32i3
p4652
I1
sVd2ssf5c
p4653
I3
sVdgb2y0m
p4654
I1
sVd1bou5j
p4655
I1
sVczoyxtl
p4656
I1
sVdkf5iux
p4657
I1
sVczgzhem
p4658
I1
sVd1si0cj
p4659
I1
sVdhac54p
p4660
I3
sVdi1t3t5
p4661
I2
sVdk2ejw0
p4662
I1
sVd5c4otg
p4663
I2
sVd847g9r
p4664
I2
sVddz8cwr
p4665
I1
sVcztasku
p4666
I2
sVdbpkvx2
p4667
I1
sVdmjaw3b
p4668
I1
sVdahj9qm
p4669
I1
sVd9vhz6m
p4670
I1
sVdbg7h9m
p4671
I1
sVdtd1mpp
p4672
I1
sVd1hi2w3
p4673
I1
sVd4o1638
p4674
I2
sVd6w0yyo
p4675
I1
sVdd58k2b
p4676
I1
sVddlky9w
p4677
I1
sVda6v4fx
p4678
I5
sVdj2tpbk
p4679
I1
sVdco4qzl
p4680
I1
sVd2iz4nf
p4681
I1
sVd2vqee5
p4682
I1
sVdhp4r6s
p4683
I2
sVden5pgw
p4684
I1
sVd1aapyo
p4685
I1
sVdg0daih
p4686
I1
sVdoxxkfm
p4687
I1
sVd4bf79u
p4688
I1
sVd0avmep
p4689
I1
sVda171ri
p4690
I1
sVd5zj3t4
p4691
I3
sVddwsmel
p4692
I1
sVd5x7rck
p4693
I2
sVd0p7wce
p4694
I1
sVd9b0ibr
p4695
I1
sVd8wqpep
p4696
I1
sVdt8g3bx
p4697
I3
sVd5mpxco
p4698
I1
sVdn8kpfm
p4699
I1
sVd6bj40c
p4700
I1
sVdpid258
p4701
I1
sVdkuji6x
p4702
I1
sVdho3nts
p4703
I2
sVd0ac3me
p4704
I1
sVdrd5w1f
p4705
I1
sVdr9s8cd
p4706
I1
sVde6nytp
p4707
I1
sVd7k2q9m
p4708
I1
sVd9jrib5
p4709
I1
sVd4prott
p4710
I1
sVds12fj1
p4711
I1
sVd15jcto
p4712
I1
sVd8rf7u2
p4713
I1
sVd8derak
p4714
I1
sVd4e878o
p4715
I1
sVcyjmabw
p4716
I1
sVdely2jn
p4717
I5
sVdj0nckk
p4718
I1
sVd9c2etw
p4719
I3
sVczk178t
p4720
I2
sVdkm02ll
p4721
I2
sVd35h49i
p4722
I1
sVdftsv1y
p4723
I2
sVdsx1mp2
p4724
I1
sVdgi8h18
p4725
I2
sVdj9uhmb
p4726
I1
sVdhvhkyw
p4727
I1
sVd02cvoi
p4728
I1
sVdpvetbv
p4729
I1
sVd1z4cu4
p4730
I2
sVd0twy7e
p4731
I2
sVdatdql1
p4732
I1
sVdbgr1hl
p4733
I1
sVd65ozh1
p4734
I1
sVd270pui
p4735
I1
sVdkvso56
p4736
I1
sVd57j64a
p4737
I1
sVd3bv7o7
p4738
I2
sVd0l7ftp
p4739
I2
sVd0osb40
p4740
I1
sVdcx3dwi
p4741
I1
sVd1ygs4d
p4742
I1
sVde0itx7
p4743
I1
sVd6p52q1
p4744
I1
sVdp0lyq6
p4745
I1
sVd62bnc6
p4746
I2
sVd7xaxmo
p4747
I1
sVd0zjf2a
p4748
I1
sVddfqd5c
p4749
I1
sVd3a1r88
p4750
I1
sVd92mfmk
p4751
I1
sVdfq56cq
p4752
I1
sVd5ginxo
p4753
I5
sVd3wsihc
p4754
I1
sVdnnv386
p4755
I3
sVdqcvaij
p4756
I1
sVd76n64v
p4757
I1
sVdemasvz
p4758
I1
sVd45cbw8
p4759
I1
sVdax8sdj
p4760
I1
sVdt2e5m4
p4761
I1
sVd308zrs
p4762
I1
sVdgewu5z
p4763
I1
sVdn10y2q
p4764
I1
sVdghnisn
p4765
I1
sVdn6y05e
p4766
I1
sVdi44uoe
p4767
I1
sVdgeyg2j
p4768
I1
sVdd86j0x
p4769
I1
sVcyse3ov
p4770
I1
sVd1zovmb
p4771
I4
sVdipjapb
p4772
I2
sVddclw6w
p4773
I1
sVdrmr1qt
p4774
I1
sVcywluvy
p4775
I5
sVdpz30cj
p4776
I1
sVcymjo7s
p4777
I1
sVd8z426t
p4778
I1
sVd825yb9
p4779
I1
sVd3g6b8l
p4780
I1
sVd44lsch
p4781
I2
sVd7dd32y
p4782
I2
sVdnr08ql
p4783
I2
sVd42dy4o
p4784
I1
sVdixqqgk
p4785
I3
sVdd5y7m6
p4786
I2
sVdb1abw4
p4787
I2
sVd1snzfc
p4788
I1
sVd0r2v3b
p4789
I1
sVd349rj2
p4790
I1
sVdc7hwj1
p4791
I1
sVd6nl6tc
p4792
I1
sVdjr9n5o
p4793
I1
sVd1mvxe6
p4794
I1
sVd7hpc9z
p4795
I1
sVdr6z7er
p4796
I2
sVcz2r60g
p4797
I1
sVdjoa5w2
p4798
I1
sVdhra3v3
p4799
I1
sVdga73gb
p4800
I1
sVdsgu58b
p4801
I1
sVddhi2ky
p4802
I1
sVde8xq5w
p4803
I1
sVd4j0ewj
p4804
I1
sVd5gf6f0
p4805
I2
sVdi7ysnr
p4806
I1
sVd4x4yjy
p4807
I1
sVdkux951
p4808
I1
sVdax38ip
p4809
I2
sVdie124q
p4810
I1
sVd6rvsa2
p4811
I1
sVd0cmvuh
p4812
I1
sVdht5d1k
p4813
I1
sVdf8o9k3
p4814
I1
sVd9jqfwf
p4815
I1
sVdgdz4tv
p4816
I2
sVcz5bj5g
p4817
I1
sVdklnyb8
p4818
I1
sVd3fldd5
p4819
I1
sVd2gt3rr
p4820
I2
sVczvorbu
p4821
I1
sVd8gvtgz
p4822
I1
sVd4adlpw
p4823
I1
sVd7gqlml
p4824
I1
sVdivnwt0
p4825
I1
sVcylxjx7
p4826
I1
sVd0f4wsm
p4827
I2
sVddyjgib
p4828
I1
sVdfzvnwq
p4829
I1
sVd2bsnbl
p4830
I1
sVdftra31
p4831
I1
sVd5jmtli
p4832
I1
sVda9398i
p4833
I2
sVd5bl0e2
p4834
I1
sVd5b0gmf
p4835
I1
sVdpf4yhq
p4836
I1
sVdkmto5a
p4837
I1
sVd0spsuk
p4838
I1
sVcylaiqt
p4839
I1
sVdjcnzbv
p4840
I1
sVd7z4o49
p4841
I2
sVddrn1qs
p4842
I1
sVdpea4xy
p4843
I1
sVdhkeiy9
p4844
I1
sVd3bkkvr
p4845
I1
sVd0q0cmu
p4846
I2
sVdftc15i
p4847
I1
sVdb3lq72
p4848
I1
sVd88ttiv
p4849
I1
sVczmaxic
p4850
I2
sVd7aqfwc
p4851
I7
sVdcwi16f
p4852
I1
sVdq7skge
p4853
I1
sVdciwxfh
p4854
I3
sVdog0ppc
p4855
I1
sVd8zis1y
p4856
I2
sVdg6cn2h
p4857
I2
sVd9caq5e
p4858
I1
sVdp8cgoi
p4859
I1
sVczgmsin
p4860
I1
sVd7ip6z6
p4861
I3
sVdgz0ul8
p4862
I2
sVdhysqqr
p4863
I1
sVdf92w6t
p4864
I1
sVd1yfvwl
p4865
I1
sVdkw49ov
p4866
I1
sVd0g1hdn
p4867
I1
sVdcjar6j
p4868
I1
sVdtidix9
p4869
I1
sVdqm2sfe
p4870
I1
sVdg43cq5
p4871
I1
sVdjvphli
p4872
I1
sVdhqjrgw
p4873
I1
sVd0m3oyq
p4874
I1
sVd43ttra
p4875
I1
sVdeutbcw
p4876
I2
sVczyxszu
p4877
I1
sVd3fyb1b
p4878
I2
sVd8q7uwm
p4879
I1
sVdgz5kkp
p4880
I1
sVds98q4f
p4881
I1
sVdte06kh
p4882
I1
sVd2z80fr
p4883
I2
sVdj4xg73
p4884
I1
sVdsvcd3u
p4885
I2
sVczg4sbu
p4886
I1
sVdb7v7j5
p4887
I1
sVd8baag3
p4888
I1
sVdk082yo
p4889
I1
sVd16wgv9
p4890
I1
sVdmzbg6y
p4891
I1
sVdcbij7k
p4892
I1
sVd2y2sh4
p4893
I1
sVd9cc3of
p4894
I4
sVd4645n6
p4895
I1
sVcztonbj
p4896
I1
sVdgjeijx
p4897
I2
sVd5th2zf
p4898
I1
sVczyr7kf
p4899
I1
sVczzxm65
p4900
I1
sVd3venu1
p4901
I1
sVdbiip5a
p4902
I1
sVdo98o0t
p4903
I3
sVdh7izcv
p4904
I1
sVdizi3pd
p4905
I3
sVczzv7oo
p4906
I1
sVdcia78r
p4907
I1
sVdqi6lg5
p4908
I1
sVd0a6xk1
p4909
I1
sVdeq8ck5
p4910
I1
sVdilfn14
p4911
I3
sVdhx0cr3
p4912
I1
sVdt7yhs9
p4913
I1
sVdhxl8nn
p4914
I1
sVd0pwc9y
p4915
I1
sVddxxu37
p4916
I1
sVd8joeu6
p4917
I1
sVdbml7hz
p4918
I1
sVdbmjqpa
p4919
I1
sVdh0d5vp
p4920
I1
sVd1x2hb8
p4921
I6
sVda668yz
p4922
I1
sVdjrjx7x
p4923
I2
sVdho7fb3
p4924
I1
sVdh0j3gk
p4925
I1
sVdrir3dk
p4926
I2
sVd1bw8pk
p4927
I1
sVdegqo82
p4928
I2
sVdg6khhh
p4929
I1
sVdkjsq0j
p4930
I1
sVdpnywv5
p4931
I5
sVdrv5d5d
p4932
I1
sVd1jeqts
p4933
I1
sVdq3hchq
p4934
I1
sVdhbkwoe
p4935
I1
sVdj0s15z
p4936
I2
sVdd8218f
p4937
I2
sVdqw4mso
p4938
I1
sVdn99qik
p4939
I1
sVdgx1now
p4940
I1
sVdmq7oja
p4941
I1
sVd1x9ozv
p4942
I1
sVdjnprat
p4943
I1
sVdizw3wb
p4944
I5
sVd82mj31
p4945
I1
sVd62m75k
p4946
I1
sVdbo435n
p4947
I1
sVd8twrqb
p4948
I1
sVd0a364i
p4949
I3
sVdq7eekk
p4950
I3
sVdalpg7r
p4951
I1
sVd7patt9
p4952
I1
sVdd8a6f6
p4953
I1
sVcz0hodo
p4954
I1
sVd72hbn2
p4955
I1
sVd2n6ard
p4956
I1
sVd3zonfz
p4957
I1
sVczt465v
p4958
I1
sVd7mvwvk
p4959
I2
sVd506y8w
p4960
I1
sVdkcqs6z
p4961
I2
sVdo76ucq
p4962
I1
sVdksbnaq
p4963
I2
sVd184iqj
p4964
I1
sVd5b0of8
p4965
I2
sVd2k2qvb
p4966
I1
sVd4aw4nn
p4967
I1
sVdi243da
p4968
I2
sVdja5612
p4969
I1
sVdcdr9gf
p4970
I1
sVdmz6jag
p4971
I2
sVczv1k07
p4972
I1
sVdbc4gqp
p4973
I3
sVds25mkt
p4974
I4
sVdb1rnzk
p4975
I1
sVdg3mm0c
p4976
I1
sVdd9hsq6
p4977
I1
sVd40p75m
p4978
I1
sVdep4b58
p4979
I1
sVd5rq20w
p4980
I1
sVd45y770
p4981
I1
sVdqh8ai6
p4982
I1
sVdi22d1e
p4983
I1
sVdgd41p8
p4984
I1
sVd3qkrgu
p4985
I1
sVd9wxv1c
p4986
I1
sVdq8rc1x
p4987
I1
sVdq3z05h
p4988
I1
sVdhmnog2
p4989
I1
sVdkhxlto
p4990
I1
sVcyvtcca
p4991
I1
sVdjksu8s
p4992
I1
sVddhr497
p4993
I1
sVd30xkgw
p4994
I1
sVdn150n9
p4995
I6
sVdg1jpb9
p4996
I2
sVd3w7g2n
p4997
I1
sVd7z48j0
p4998
I4
sVd3yri4k
p4999
I1
sVdeqkhrd
p5000
I3
sVczs00zz
p5001
I6
sVdjbecyh
p5002
I3
sVd2jd45k
p5003
I1
sVdhdo772
p5004
I1
sVdhei4yb
p5005
I1
sVdpl5026
p5006
I1
sVdmsh9ta
p5007
I1
sVd39azqr
p5008
I1
sVd4to4cs
p5009
I1
sVcziowq3
p5010
I1
sVczs61z9
p5011
I1
sVdfo54cv
p5012
I1
sVd978t5l
p5013
I1
sVderkop3
p5014
I1
sVd1yvu7n
p5015
I1
sVd1ml0ts
p5016
I1
sVdf3hh5u
p5017
I1
sVdji6ysb
p5018
I2
sVdd12l50
p5019
I1
sVdaznupl
p5020
I1
sVdapgvdc
p5021
I1
sVdq9ws1k
p5022
I1
sVdim89li
p5023
I1
sVdrv6kku
p5024
I1
sVd7ohe0o
p5025
I1
sVdj8nop5
p5026
I1
sVd9423ok
p5027
I1
sVdbldbfu
p5028
I1
sVdeveva6
p5029
I1
sVdbihsa3
p5030
I1
sVcyvl4gi
p5031
I1
sVd0zfu25
p5032
I1
sVd78jrkh
p5033
I1
sVdqfak9w
p5034
I1
sVdrphorr
p5035
I1
sVde195yc
p5036
I1
sVdkzgw62
p5037
I1
sVdba45p8
p5038
I1
sVdh4lo3w
p5039
I4
sVdflc71c
p5040
I1
sVdn6qop8
p5041
I1
sVdtbkto5
p5042
I2
sVdsmyvvf
p5043
I1
sVdq23b2c
p5044
I1
sVd0quhy9
p5045
I1
sVdf4jiw8
p5046
I1
sVd7msm76
p5047
I1
sVd869hbi
p5048
I2
sVdiidoy8
p5049
I1
sVdp92ox9
p5050
I1
sVd9bx4z8
p5051
I1
sVdofv9zn
p5052
I1
sVczbt3mq
p5053
I1
sVd5vjd6i
p5054
I1
sVddbsvjs
p5055
I2
sVdpq60pp
p5056
I1
sVdfzv8jb
p5057
I1
sVd6xmh36
p5058
I1
sVd5a7drb
p5059
I1
sVdcbg5bc
p5060
I1
sVdgqv2qe
p5061
I1
sVdb47tsk
p5062
I1
sVczbaywt
p5063
I1
sVd0t6poq
p5064
I3
sVdeli7g8
p5065
I1
sVd99fb2v
p5066
I2
sVd2sisc3
p5067
I1
sVd0a0phf
p5068
I1
sVdsraqoj
p5069
I3
sVdi7g932
p5070
I1
sVd6h80y9
p5071
I1
sVd16wpeh
p5072
I1
sVd7e66sh
p5073
I1
sVdg03wol
p5074
I2
sVd8ituc3
p5075
I1
sVdhigonf
p5076
I2
sVdabnkdv
p5077
I2
sVdpczmub
p5078
I1
sVd77z0wf
p5079
I1
sVd3puf11
p5080
I1
sVdbpfeiy
p5081
I1
sVd6rnvu0
p5082
I1
sVdfx5q70
p5083
I1
sVczgbhsw
p5084
I3
sVd050gnq
p5085
I1
sVdcbjp8l
p5086
I1
sVd0k17lb
p5087
I1
sVd2hnp24
p5088
I1
sVdbjksfv
p5089
I1
sVdczasnp
p5090
I1
sVd464thc
p5091
I1
sVd0tfwed
p5092
I3
sVd7wehxr
p5093
I7
sVd5ct2j6
p5094
I1
sVd7z1gwh
p5095
I1
sVd6dk8ps
p5096
I1
sVdecbd07
p5097
I1
sVd2lir1s
p5098
I1
sVdtjmlgh
p5099
I1
sVdg8p4bz
p5100
I1
sVdkirw4j
p5101
I1
sVdhonhnq
p5102
I1
sVd4ykele
p5103
I2
sVd9id9lg
p5104
I2
sVcym4aos
p5105
I2
sVdix778c
p5106
I3
sVd5savw3
p5107
I1
sVd3lkut2
p5108
I4
sVdne33mh
p5109
I1
sVd6z2ylk
p5110
I1
sVda5ncnp
p5111
I1
sVdbifhao
p5112
I1
sVd62noof
p5113
I1
sVd1vrw5g
p5114
I1
sVd04cdfi
p5115
I1
sVd4j2jhw
p5116
I1
sVd5p1w6q
p5117
I1
sVdnfmm4h
p5118
I1
sVdpx5ey6
p5119
I1
sVdjb3tbz
p5120
I1
sVd9bgem8
p5121
I1
sVdg0orv3
p5122
I1
sVd837ra9
p5123
I1
sVd68rtj7
p5124
I1
sVczcm0vu
p5125
I1
sVdavxkfg
p5126
I2
sVczuqu98
p5127
I1
sVd6j5ge4
p5128
I1
sVdg2f3jx
p5129
I1
sVd1zrtty
p5130
I1
sVdg0lbf0
p5131
I1
sVd78daju
p5132
I3
sVd67phzf
p5133
I1
sVd7tfw4y
p5134
I1
sVdq6vtdv
p5135
I1
sVd72q1vk
p5136
I1
sVdb240b1
p5137
I2
sVdq394sp
p5138
I2
sVd94q1yo
p5139
I1
sVdgkbog3
p5140
I1
sVdnnqp7x
p5141
I1
sVd73mutw
p5142
I2
sVdozfkf6
p5143
I1
sVdiuqyjf
p5144
I1
sVdpwm5lh
p5145
I1
sVd0yryfj
p5146
I2
sVdhtzzoq
p5147
I1
sVcyr5qsz
p5148
I1
sVd36nwiq
p5149
I1
sVdazk0ga
p5150
I1
sVdr5s30v
p5151
I1
sVd81m8th
p5152
I1
sVdhplpea
p5153
I3
sVdc7rkz1
p5154
I1
sVdmpc4kl
p5155
I1
sVdic2qlm
p5156
I1
sVd7hl6d6
p5157
I1
sVd2w20l3
p5158
I1
sVde1dgkn
p5159
I1
sVdq8fgeb
p5160
I1
sVdam1qhy
p5161
I1
sVd7db7s0
p5162
I1
sVddkp50y
p5163
I1
sVd7zb6no
p5164
I1
sVdfetntp
p5165
I1
sVdoj7efe
p5166
I1
sVdiiwyls
p5167
I1
sVd4my7s4
p5168
I2
sVdaw937b
p5169
I2
sVdolqsk8
p5170
I1
sVczzorfb
p5171
I1
sVdr1w4as
p5172
I1
sVddr25l8
p5173
I1
sVd5nm9bw
p5174
I1
sVdq6b3bh
p5175
I1
sVdqudyxr
p5176
I1
sVd5ei4rf
p5177
I1
sVd2js5c0
p5178
I1
sVd1memjx
p5179
I1
sVd6h9xta
p5180
I1
sVd6xxmuv
p5181
I1
sVd2per5b
p5182
I1
sVd6tcr6j
p5183
I1
sVd2kgdad
p5184
I1
sVdry3nnr
p5185
I1
sVdc9vmxn
p5186
I1
sVd67sur7
p5187
I1
sVcyxyzv2
p5188
I1
sVdd7mctu
p5189
I4
sVcyinnkq
p5190
I2
sVcyjh4es
p5191
I1
sVd15m2u1
p5192
I2
sVdpg8mfw
p5193
I1
sVd3lkht9
p5194
I1
sVd3bly3d
p5195
I2
sVdiuvsns
p5196
I1
sVd2x4kmh
p5197
I1
sVd5e8vsp
p5198
I1
sVd71gbje
p5199
I1
sVdiika32
p5200
I1
sVd168etl
p5201
I1
sVde1tua9
p5202
I1
sVdewa33m
p5203
I1
sVd2cczns
p5204
I1
sVdcgcikd
p5205
I2
sVcyzctbr
p5206
I1
sVdirnwev
p5207
I1
sVdasrutp
p5208
I3
sVd1em3ad
p5209
I1
sVdcseesm
p5210
I1
sVdbaa3en
p5211
I1
sVdmz0iqh
p5212
I1
sVd5zdu7t
p5213
I1
sVdg8sgs5
p5214
I1
sVd5r2nmm
p5215
I1
sVdhydf7a
p5216
I1
sVdhige6p
p5217
I1
sVd09l0u5
p5218
I2
sVddju44l
p5219
I1
sVdag1p61
p5220
I4
sVderjzbi
p5221
I1
sVdew8hmc
p5222
I1
sVd7azmrv
p5223
I2
sVd4gestl
p5224
I2
sVcyvap6u
p5225
I1
sVdjpq5r7
p5226
I1
sVd4fsy8v
p5227
I1
sVd05eqjo
p5228
I1
sVcyp8bo7
p5229
I1
sVdbmvoaq
p5230
I5
sVd2si0ca
p5231
I1
sVdcn3qnd
p5232
I1
sVczokfxt
p5233
I1
sVdfp49nr
p5234
I1
sVddeioy8
p5235
I2
sVdk28xbo
p5236
I3
sVdg8a1cq
p5237
I1
sVd00qzdp
p5238
I1
sVd7l3u9n
p5239
I1
sVdjdf0oc
p5240
I1
sVd8z7xtb
p5241
I2
sVd3p4nd8
p5242
I3
sVd3bc1xo
p5243
I1
sVd3a4fb1
p5244
I1
sVczurlsb
p5245
I1
sVd5ggjyt
p5246
I1
sVd1d7vbn
p5247
I1
sVd8lfa1c
p5248
I1
sVd9t9w76
p5249
I1
sVcz7l4uc
p5250
I1
sVdn11mjx
p5251
I2
sVd6vi15h
p5252
I1
sVdfrx1nh
p5253
I1
sVd2igg08
p5254
I1
sVd7338ch
p5255
I1
sVdt6skp1
p5256
I1
sVd504yrn
p5257
I2
sVdj5hn6q
p5258
I2
sVd2spohd
p5259
I1
sVdeogun3
p5260
I1
sVdhrja96
p5261
I4
sVd6f7e64
p5262
I2
sVd6is79y
p5263
I1
sVd17tz4t
p5264
I1
sVd5r27g1
p5265
I1
sVdp4s6f7
p5266
I1
sVd8ls0vc
p5267
I2
sVdkp2plx
p5268
I1
sVd2xfx3n
p5269
I1
sVd4y9owv
p5270
I1
sVdjomadu
p5271
I2
sVdq7tbp4
p5272
I1
sVd0mbacq
p5273
I1
sVd05q0d1
p5274
I1
sVdjrd1ga
p5275
I1
sVdbkcm1p
p5276
I1
sVdjreh68
p5277
I2
sVdf206bd
p5278
I1
sVdajghcl
p5279
I3
sVd1krgeh
p5280
I3
sVdhc3a5o
p5281
I1
sVdj475ce
p5282
I1
sVdrhmsat
p5283
I1
sVdq9w9f6
p5284
I1
sVddosqjz
p5285
I1
sVdh41xlh
p5286
I1
sVd5fprhq
p5287
I2
sVddy8squ
p5288
I1
sVd2f8y7o
p5289
I6
sVdrkrx2a
p5290
I1
sVd985osd
p5291
I1
sVd6uc9ku
p5292
I3
sVddczsqs
p5293
I1
sVd2t51m9
p5294
I1
sVdqffxto
p5295
I1
sVdn2lu82
p5296
I1
sVd37z1ld
p5297
I1
sVd9aphnp
p5298
I1
sVdik69be
p5299
I1
sVd4prm7e
p5300
I3
sVdotxcow
p5301
I1
sVdk0ftwk
p5302
I1
sVd7u94mu
p5303
I1
sVdntprbg
p5304
I4
sVdgpgvi6
p5305
I1
sVdi4vbtl
p5306
I1
sVdgb6kjf
p5307
I1
sVd58m0ez
p5308
I1
sVdkqj3ff
p5309
I2
sVd9k8vrd
p5310
I1
sVd019mya
p5311
I1
sVdif9tta
p5312
I1
sVd1n7ydo
p5313
I2
sVdg0ao2g
p5314
I1
sVdc2wu1q
p5315
I4
sVdfqtxwe
p5316
I1
sVdjjkre1
p5317
I1
sVdac0wc2
p5318
I1
sVd7ujaaa
p5319
I1
sVddlyq2n
p5320
I1
sVd477sd8
p5321
I1
sVd807fyp
p5322
I3
sVdalif4p
p5323
I1
sVdidmxqi
p5324
I1
sVd82lxy1
p5325
I1
sVdbwa2gj
p5326
I1
sVczkj6fh
p5327
I1
sVd1wdom9
p5328
I1
sVdqt9enr
p5329
I1
sVdh1gbr2
p5330
I1
sVd8ltbja
p5331
I3
sVd9bqy2p
p5332
I1
sVdhna9no
p5333
I2
sVdcv5e0b
p5334
I1
sVd2cda95
p5335
I1
sVdmjr307
p5336
I2
sVdq1wog9
p5337
I1
sVcymygic
p5338
I1
sVd3yzo4e
p5339
I1
sVd3w5duj
p5340
I6
sVd71wu0a
p5341
I1
sVd58z1b1
p5342
I3
sVdeus5d7
p5343
I1
sVd10z0i0
p5344
I1
sVd2vgozm
p5345
I2
sVd3kstoz
p5346
I1
sVd7j2hm9
p5347
I1
sVd06vbz5
p5348
I1
sVd62mlgn
p5349
I1
sVcz7u2x2
p5350
I1
sVczhix9g
p5351
I1
sVddx50l6
p5352
I1
sVdc2a0bv
p5353
I1
sVdahgh84
p5354
I1
sVd242ngf
p5355
I2
sVd1o6etc
p5356
I1
sVdeicp05
p5357
I2
sVczcenpg
p5358
I1
sVd7zffjd
p5359
I2
sVdcryos7
p5360
I1
sVd875q7k
p5361
I1
sVdt49tgp
p5362
I1
sVdmitzd1
p5363
I1
sVdav6svq
p5364
I1
sVdsgxz7h
p5365
I1
sVd3wjz1b
p5366
I1
sVdhbqh4t
p5367
I1
sVdezy3c4
p5368
I2
sVdelk04x
p5369
I1
sVd5x07h1
p5370
I1
sVd829p85
p5371
I1
sVd0r3vfp
p5372
I1
sVdbbtbn3
p5373
I2
sVdbeutjw
p5374
I1
sVdmi1air
p5375
I1
sVddhsikw
p5376
I1
sVd7h78vg
p5377
I1
sVd3hjwx0
p5378
I1
sVd3hc8t0
p5379
I1
sVdk03zoc
p5380
I1
sVdikxdjm
p5381
I1
sVd2tjksb
p5382
I1
sVdggcny8
p5383
I1
sVdie3t3w
p5384
I2
sVd7bcbdv
p5385
I1
sVcymp1g3
p5386
I1
sVdcjoj9o
p5387
I1
sVdo8nx2l
p5388
I1
sVd46uwh3
p5389
I1
sVdcqpvfx
p5390
I1
sVdftwo4s
p5391
I1
sVdb2p8hx
p5392
I1
sVcz8o0z9
p5393
I1
sVdgcewmp
p5394
I1
sVczgpont
p5395
I1
sVdibpi5h
p5396
I1
sVd5e45hi
p5397
I1
sVda8mtm4
p5398
I1
sVd6x2q3n
p5399
I1
sVd9ntsih
p5400
I1
sVd55w18h
p5401
I1
sVd9l502e
p5402
I1
sVdn8ls2v
p5403
I1
sVdhizwb0
p5404
I2
sVdgv48s5
p5405
I1
sVcyutovn
p5406
I1
sVdbfziii
p5407
I1
sVd67q7hq
p5408
I1
sVd0og6g7
p5409
I3
sVd6bvcy7
p5410
I1
sVd9kwemn
p5411
I1
sVdniq9j0
p5412
I3
sVdoh6k7p
p5413
I1
sVdr37uvq
p5414
I1
sVdacixfw
p5415
I1
sVd2j1548
p5416
I1
sVczdn5jw
p5417
I1
sVd7ke05h
p5418
I1
sVdjt7jox
p5419
I1
sVcywisr6
p5420
I1
sVdcs2zl0
p5421
I3
sVdcf8466
p5422
I1
sVcyvii53
p5423
I2
sVdie7m1j
p5424
I1
sVd8tw3v4
p5425
I1
sVd8q757w
p5426
I2
sVdsrhavs
p5427
I1
sVd52r3a5
p5428
I1
sVdr2dvov
p5429
I1
sVds8uhdh
p5430
I1
sVdeff8i0
p5431
I1
sVdi3sdad
p5432
I1
sVdt15cos
p5433
I1
sVdj3eo2w
p5434
I1
sVdardvfv
p5435
I1
sVdkg81be
p5436
I1
sVdjz5z8o
p5437
I1
sVd7cnog9
p5438
I1
sVd78bqxu
p5439
I1
sVdqk4g70
p5440
I1
sVdn4h3oc
p5441
I2
sVdati0pm
p5442
I1
sVcyrqi62
p5443
I1
sVdpnvjin
p5444
I1
sVd9t71e9
p5445
I2
sVczupv99
p5446
I1
sVd1bz1r1
p5447
I1
sVdnv6uny
p5448
I2
sVd9amfci
p5449
I1
sVdpwioqb
p5450
I2
sVdmww6zz
p5451
I1
sVd4k2oe9
p5452
I1
sVdcgstt2
p5453
I1
sVdnsnhky
p5454
I1
sVd4gaq9k
p5455
I1
sVdqdafry
p5456
I1
sVdk91sbs
p5457
I1
sVd9cvk2k
p5458
I1
sVds9rtxk
p5459
I1
sVd4ipi9t
p5460
I1
sVdd5cjfw
p5461
I1
sVd4p61th
p5462
I1
sVdixu1ws
p5463
I1
sVd1r74t1
p5464
I1
sVd6akz4x
p5465
I2
sVd7xswdz
p5466
I2
sVdfxqf1e
p5467
I1
sVd53brrr
p5468
I5
sVdhs7scs
p5469
I2
sVdmrvj63
p5470
I1
sVdg1vil3
p5471
I1
sVdh0j1qr
p5472
I1
sVd6j5sug
p5473
I1
sVdqmm0be
p5474
I2
sVd68t8vs
p5475
I1
sVddr4i4q
p5476
I4
sVdbqx0ry
p5477
I2
sVdnvbl21
p5478
I1
sVd932bb2
p5479
I1
sVdt010yg
p5480
I1
sVdfsk5gb
p5481
I1
sVdig4g6q
p5482
I1
sVd7934cp
p5483
I1
sVdob614z
p5484
I2
sVcz5oq05
p5485
I1
sVd3l8o9e
p5486
I1
sVdmnomud
p5487
I1
sVczasy7t
p5488
I1
sVd1sm7ea
p5489
I2
sVdnnv0va
p5490
I2
sVd62885q
p5491
I1
sVdcpnl5z
p5492
I1
sVd6gafmg
p5493
I2
sVdro8q83
p5494
I1
sVd0ic4sl
p5495
I1
sVdaq1xc7
p5496
I1
sVdcz44uo
p5497
I1
sVdmz2icp
p5498
I1
sVd14q263
p5499
I1
sVdfigwrd
p5500
I1
sVd4l5hpg
p5501
I1
sVdk60qea
p5502
I1
sVd9d76he
p5503
I1
sVdkp59hp
p5504
I1
sVd0n6jiv
p5505
I1
sVda9wr8m
p5506
I1
sVdj6u1h5
p5507
I1
sVdco7bar
p5508
I1
sVd4md9z4
p5509
I1
sVdt07yz4
p5510
I1
sVd9vfgpt
p5511
I1
sVcza0avt
p5512
I1
sVczka86x
p5513
I1
sVdphpp16
p5514
I1
sVdcgjibp
p5515
I1
sVdjcmp8t
p5516
I2
sVd2pvx4v
p5517
I1
sVcyz3622
p5518
I1
sVd4mlhso
p5519
I1
sVdqnh12m
p5520
I1
sVd8r4ymj
p5521
I1
sVde7t2cl
p5522
I1
sVdif6ywg
p5523
I1
sVd62rpf7
p5524
I1
sVczgylpy
p5525
I1
sVd6mruhx
p5526
I1
sVdg4nany
p5527
I1
sVd68r3n3
p5528
I1
sVdf2nxqj
p5529
I1
sVdjdqd2a
p5530
I1
sVd5nbahe
p5531
I1
sVdpq5bw3
p5532
I1
sVdmfdr60
p5533
I1
sVdkm6wkb
p5534
I1
sVdky64fi
p5535
I1
sVcz1827c
p5536
I1
sVdjxfndl
p5537
I2
sVdhs444k
p5538
I1
sVdhfx7ow
p5539
I1
sVd0rfm35
p5540
I1
sVdejasia
p5541
I1
sVdnm7ljq
p5542
I1
sVczp427d
p5543
I1
sVd7admjn
p5544
I1
sVda1f1pv
p5545
I1
sVd4w683h
p5546
I1
sVcz33kma
p5547
I1
sVdbqswfg
p5548
I1
sVda7rqh0
p5549
I1
sVdhh745l
p5550
I1
sVd00o4na
p5551
I1
sVd53igr5
p5552
I1
sVdgrf9n5
p5553
I2
sVdgfm716
p5554
I1
sVd2p7yd6
p5555
I1
sVd3len5w
p5556
I1
sVd4ow6gv
p5557
I1
sVd18g6zw
p5558
I1
sVd5rwfou
p5559
I1
sVd82ybi2
p5560
I1
sVczoe98r
p5561
I1
sVdglqugb
p5562
I1
sVda652i9
p5563
I1
sVdqx0c6p
p5564
I1
sVddxum3e
p5565
I1
sVdgp3gj5
p5566
I1
sVczan4am
p5567
I1
sVd3wysia
p5568
I1
sVd8oupy0
p5569
I1
sVd83mots
p5570
I1
sVd40gumi
p5571
I2
sVcz0go0l
p5572
I1
sVdcpn2t1
p5573
I3
sVdg4bzao
p5574
I2
sVdb3ibo3
p5575
I1
sVczdnuj0
p5576
I1
sVdig8yuv
p5577
I1
sVdcix3ar
p5578
I1
sVd973xi7
p5579
I1
sVdh1pofe
p5580
I1
sVds4l4an
p5581
I2
sVdcsg5da
p5582
I1
sVdguyd7b
p5583
I1
sVdep39d1
p5584
I2
sVdp8sv2v
p5585
I1
sVd4bk2iu
p5586
I2
sVdftxkvz
p5587
I1
sVd52g60g
p5588
I1
sVdi408gj
p5589
I3
sVdcdi9oi
p5590
I2
sVczsx3ht
p5591
I1
sVdfa3ei1
p5592
I1
sVd24uxu6
p5593
I1
sVdply8pu
p5594
I1
sVdduvd79
p5595
I1
sVdb5bupr
p5596
I1
sVdioasyr
p5597
I1
sVczp25jd
p5598
I1
sVd4omwcy
p5599
I1
sVdoiabcl
p5600
I2
sVd00zvqi
p5601
I1
sVd30o1ts
p5602
I2
sVd77xz3e
p5603
I1
sVcyi2vja
p5604
I1
sVd7l6r30
p5605
I1
sVd0e5rp1
p5606
I1
sVdbvw66a
p5607
I2
sVdt9grgh
p5608
I1
sVd0yozjj
p5609
I1
sVd9cfcwl
p5610
I1
sVds8rlsq
p5611
I1
sVdjebxlr
p5612
I1
sVczg5xr6
p5613
I1
sVdn6dgr7
p5614
I1
sVd01p76e
p5615
I1
sVdjqnwx5
p5616
I1
sVdeejs68
p5617
I1
sVdklekdw
p5618
I1
sVd3798ne
p5619
I1
sVd4x573m
p5620
I1
sVd1zptvh
p5621
I1
sVdr1lp83
p5622
I2
sVdhf7yav
p5623
I2
sVdkpu7hi
p5624
I1
sVd43695y
p5625
I1
sVd6q5zlk
p5626
I1
sVds2tk5o
p5627
I1
sVd7o5r0x
p5628
I1
sVdeuz3qv
p5629
I1
sVdi2gqx3
p5630
I1
sVdifj6yc
p5631
I1
sVd2orf18
p5632
I1
sVdd7n31p
p5633
I1
sVddw2q0k
p5634
I1
sVd06r2yl
p5635
I1
sVd0koagx
p5636
I2
sVdk8s0gt
p5637
I1
sVdonq6i3
p5638
I1
sVd9hwmnk
p5639
I2
sVda3cd4k
p5640
I1
sVdoj01oq
p5641
I1
sVd3tbros
p5642
I1
sVdru03kq
p5643
I1
sVd17t529
p5644
I5
sVde8ut39
p5645
I1
sVcz81ndm
p5646
I1
sVdbdq3rk
p5647
I1
sVdeh68pj
p5648
I1
sVdgdwk8u
p5649
I2
sVd4bp936
p5650
I1
sVdberu8w
p5651
I1
sVd06ssyf
p5652
I2
sVd160sp4
p5653
I1
sVcz3loht
p5654
I1
sVdazy3ca
p5655
I1
sVcyurf7t
p5656
I2
sVdaqj0bk
p5657
I1
sVd8o0pgc
p5658
I2
sVdficlj3
p5659
I1
sVdjze4mk
p5660
I1
sVcz5p7g4
p5661
I1
sVd42xbxk
p5662
I1
sVdbzvem9
p5663
I1
sVdatdblw
p5664
I1
sVd90c5rg
p5665
I1
sVdhyik70
p5666
I1
sVdbozntu
p5667
I1
sVd9figco
p5668
I1
sVdb27gt8
p5669
I1
sVdaln82r
p5670
I1
sVdgkc69z
p5671
I1
sVd68b71n
p5672
I1
sVd94hmrl
p5673
I1
sVdfmyq54
p5674
I6
sVczg5wdq
p5675
I4
sVdq7apjw
p5676
I1
sVdsnk128
p5677
I1
sVd9n7e23
p5678
I1
sVd6eyux0
p5679
I1
sVdalrptt
p5680
I1
sVczit9cs
p5681
I1
sVdho59m7
p5682
I1
sVdb534od
p5683
I1
sVdbvtqn7
p5684
I1
sVdqebhmf
p5685
I1
sVd8w6wvx
p5686
I1
sVczi2ioe
p5687
I1
sVddv6o5l
p5688
I1
sVd7e67ml
p5689
I1
sVdef91sm
p5690
I1
sVdb7xpaf
p5691
I1
sVd1qdlvf
p5692
I1
sVd01crmo
p5693
I1
sVdan3tcu
p5694
I2
sVd1ftcnj
p5695
I1
sVd2d19yx
p5696
I2
sVd47ryvk
p5697
I1
sVd42mq09
p5698
I2
sVdjmgsqn
p5699
I1
sVcykx159
p5700
I1
sVdjurhf6
p5701
I2
sVd6q1fei
p5702
I2
sVd3pkwsv
p5703
I1
sVdn3xu66
p5704
I1
sVdap8uqu
p5705
I2
sVdadxzjn
p5706
I1
sVcyv5w9f
p5707
I1
sVd315588
p5708
I1
sVd41w29z
p5709
I2
sVcztavnp
p5710
I1
sVdo3n7gr
p5711
I1
sVd02k160
p5712
I3
sVcyuefja
p5713
I1
sVdgw2gzk
p5714
I1
sVczm24bm
p5715
I1
sVd5nuaju
p5716
I1
sVd2ykuxk
p5717
I2
sVddkbatp
p5718
I1
sVd4hx5l3
p5719
I2
sVdpm10xf
p5720
I1
sVdhesatn
p5721
I1
sVd3wysr2
p5722
I1
sVczrxoa5
p5723
I1
sVczgq7ob
p5724
I1
sVdeq2o2l
p5725
I2
sVd1e66t0
p5726
I1
sVdft0rls
p5727
I1
sVd2bdc2k
p5728
I1
sVdo1fuzn
p5729
I1
sVd8izs4g
p5730
I1
sVd036fco
p5731
I1
sVd0ohnak
p5732
I2
sVd9p0rtf
p5733
I1
sVd5qhaih
p5734
I1
sVdi5ao9z
p5735
I1
sVd7mbedp
p5736
I1
sVdbp8txd
p5737
I1
sVd75gxq8
p5738
I2
sVdb6o4nz
p5739
I1
sVd9lf59b
p5740
I1
sVdpwg69q
p5741
I1
sVd40xmgb
p5742
I1
sVdse1z97
p5743
I2
sVdey391d
p5744
I1
sVdqfmbep
p5745
I2
sVdb3pptq
p5746
I1
sVd1rrx2b
p5747
I1
sVcyzj8cw
p5748
I7
sVd9z8bow
p5749
I1
sVdejbyy1
p5750
I1
sVdo7pbme
p5751
I1
sVdbrfxz9
p5752
I1
sVd7vyz9i
p5753
I1
sVdansqst
p5754
I1
sVdq2tzaj
p5755
I1
sVd6pjhl9
p5756
I2
sVdbmprav
p5757
I1
sVczgm3hg
p5758
I1
sVdeexe7v
p5759
I1
sVd16lx5t
p5760
I1
sVdjik9fa
p5761
I1
sVdcj93om
p5762
I1
sVdkqprnk
p5763
I1
sVdqjwibq
p5764
I2
sVdgz29u6
p5765
I2
sVdjyj3h0
p5766
I1
sVdaf7aq8
p5767
I1
sVdq4s3yt
p5768
I1
sVdtgqksl
p5769
I1
sVdp7zgte
p5770
I1
sVdi2emzh
p5771
I1
sVd0zez3q
p5772
I3
sVdc2bchl
p5773
I1
sVd4n7k4q
p5774
I2
sVd9jzpkz
p5775
I2
sVcym642k
p5776
I1
sVd39g2va
p5777
I1
sVdcmwcid
p5778
I1
sVdro6yb8
p5779
I1
sVd9ksrvb
p5780
I1
sVdbvvq7u
p5781
I2
sVd61gtjf
p5782
I1
sVditqac7
p5783
I1
sVcytstfr
p5784
I1
sVdkh85vt
p5785
I1
sVdcs0rhs
p5786
I1
sVdt2a3rf
p5787
I1
sVdgyvmyl
p5788
I1
sVd16xiqk
p5789
I1
sVd6wqg5q
p5790
I1
sVd865yuh
p5791
I1
sVczokoug
p5792
I1
sVdfyufar
p5793
I1
sVddtp8ak
p5794
I2
sVd9o0lzp
p5795
I2
sVd4lbd36
p5796
I1
sVczduq15
p5797
I1
sVderaxj0
p5798
I1
sVdcl3dhs
p5799
I1
sVdfu7po4
p5800
I1
sVdfrz0pq
p5801
I1
sVd2kj2ob
p5802
I1
sVdddh56s
p5803
I1
sVd0ffonp
p5804
I1
sVd5wsc4o
p5805
I2
sVde9qls1
p5806
I1
sVd4862lr
p5807
I1
sVd54sd1o
p5808
I1
sVd01ssqq
p5809
I1
sVdj2fy3l
p5810
I1
sVdf7ji22
p5811
I1
sVdnwv9xb
p5812
I1
sVdblbc9w
p5813
I1
sVczm44yd
p5814
I1
sVdmw2olm
p5815
I1
sVdjmg72h
p5816
I1
sVdj8sl8d
p5817
I1
sVczaw3us
p5818
I1
sVd7eeunv
p5819
I1
sVdhvdttw
p5820
I1
sVd3puiwl
p5821
I1
s.