(dp0
Vddds9xw
p1
I1
sVdmkrwh6
p2
I1
sVdi58j4i
p3
I5
sVdku02y1
p4
I1
sVdn82osb
p5
I1
sVd1zpbkm
p6
I1
sVdi5bf9y
p7
I4
sVdc8y2l7
p8
I1
sVdklzt41
p9
I1
sVczxenb2
p10
I8
sVdob49my
p11
I1
sVdgmeq54
p12
I2
sVdb3crdr
p13
I1
sVd8esycj
p14
I1
sVdc8iqfe
p15
I1
sVczfd38u
p16
I1
sVdi5722o
p17
I5
sVdeounhf
p18
I1
sVdasp6z8
p19
I1
sVdcdl6ah
p20
I1
sVd0tcdhf
p21
I2
sVdd3n3d3
p22
I1
sVd7w72un
p23
I1
sVdbkbyju
p24
I1
sVczs1w94
p25
I1
sVd8lt2zp
p26
I1
sVd8e57cs
p27
I1
sVd0zez3q
p28
I2
sVd6ozcdh
p29
I7
sVd2gv946
p30
I1
sVdfqtp4h
p31
I1
sVdd2jgww
p32
I1
sVdcoo9x9
p33
I1
sVd3lmyuu
p34
I1
sVd0e17o2
p35
I1
sVdbeqk2b
p36
I1
sVd6n4v7u
p37
I1
sVd5odi81
p38
I1
sVdbjude7
p39
I1
sVdq3aort
p40
I1
sVdakkq10
p41
I1
sVcyzich8
p42
I1
sVdgr7ifi
p43
I1
sVdhqc4yj
p44
I1
sVdmf1j2w
p45
I1
sVdsyppiq
p46
I1
sVd7svj3m
p47
I1
sVd0ejowh
p48
I1
sVdap8t5l
p49
I1
sVd1zrtty
p50
I1
sVdd28oq6
p51
I1
sVd06x76q
p52
I1
sVd1znfe8
p53
I1
sVdovdegj
p54
I1
sVdag1p61
p55
I1
sVd74rebf
p56
I1
sVdsdiwxn
p57
I1
sVde2rla8
p58
I2
sVd6z2957
p59
I1
sVd1w9jb1
p60
I1
sVdcckj3i
p61
I1
sVdczg6xg
p62
I1
sVdgori8l
p63
I2
sVd2r5sky
p64
I1
sVdf3rztj
p65
I2
sVd6z7y1q
p66
I1
sVd7llw64
p67
I3
sVdayguz0
p68
I1
sVddnzda5
p69
I1
sVd32z0oq
p70
I1
sVdp5e9ht
p71
I1
sVdhs75da
p72
I1
sVdi56ylp
p73
I4
sVd15au4l
p74
I1
sVd23asbv
p75
I1
sVdc8olml
p76
I1
sVdo4xk8h
p77
I1
sVda18vjs
p78
I1
sVdqolvpm
p79
I1
sVd7zwydv
p80
I2
sVd4fbzdw
p81
I1
sVd8phuaf
p82
I1
sVcyvs9ho
p83
I1
sVdkqna9f
p84
I1
sVd877y6f
p85
I1
sVdnjot2b
p86
I1
sVd7vzlrp
p87
I1
sVd76edvw
p88
I1
sVdfjfljj
p89
I1
sVd5mhdap
p90
I1
sVd7ua6ek
p91
I1
sVdevd1pr
p92
I1
sVdhd84me
p93
I1
sVdpdcw0v
p94
I1
sVdg7ysh2
p95
I1
sVddwky8y
p96
I1
sVd91dyz9
p97
I1
sVdj2jgnq
p98
I1
sVd3bkl8j
p99
I1
sVd4nczu1
p100
I1
sVd7m7z73
p101
I1
sVd0lsngv
p102
I2
sVdcfqu37
p103
I1
sVdo84n96
p104
I1
sVd4rhas3
p105
I1
sVcyq57g8
p106
I1
sVdnr76zx
p107
I1
sVd7vn9m7
p108
I1
sVd9o9i7t
p109
I1
sVd5btj5v
p110
I2
sVdnxjq4q
p111
I1
sVczupjee
p112
I1
sVd84kyfq
p113
I1
sVdan2fs0
p114
I1
sVczryraw
p115
I1
sVd20rwws
p116
I1
sVd9lqia3
p117
I1
sVd3771tz
p118
I1
sVdpjf689
p119
I4
sVd8ywv1c
p120
I1
sVd7z59t0
p121
I1
sVd2l8gch
p122
I1
sVd3lnc5v
p123
I3
sVdi28cxj
p124
I1
sVcykblj7
p125
I1
sVdkb9m5m
p126
I4
sVdfmeaa5
p127
I1
sVdnd3tm0
p128
I1
sVdkbusb3
p129
I3
sVd03ql7t
p130
I1
sVdmgxjio
p131
I1
sVdjntc0n
p132
I1
sVd4mofw2
p133
I1
sVd5g5eym
p134
I3
sVdqzszk0
p135
I1
sVcyt3sr1
p136
I1
sVd1sisxv
p137
I1
sVdctia2p
p138
I1
sVdembcxq
p139
I1
sVd0pz3kh
p140
I1
sVd2o3luj
p141
I1
sVczm0flt
p142
I1
sVdhcd4fi
p143
I1
sVd5g1qk4
p144
I1
sVdeaxt3e
p145
I2
sVcyx9mxc
p146
I1
sVdefbvy5
p147
I1
sVdj9xgzj
p148
I1
sVd00x1wa
p149
I1
sVczhk87n
p150
I1
sVdi5be5x
p151
I2
sVdikxdjm
p152
I3
sVd1s8ix3
p153
I1
sVdrsoco3
p154
I1
sVda9d510
p155
I1
sVdcpn4m3
p156
I1
sVdb1abw4
p157
I1
sVd4idklb
p158
I1
sVdkm0m8j
p159
I1
sVdcdtna6
p160
I1
sVdnp9o7t
p161
I2
sVdnxwkzp
p162
I1
sVd4ej9do
p163
I2
sVd1r3kk3
p164
I1
sVd01i4r0
p165
I1
sVcz285eb
p166
I1
sVd2t1gl7
p167
I1
sVd10wa6u
p168
I3
sVczka86x
p169
I1
sVd6aegss
p170
I1
sVdenmmip
p171
I1
sVd87uzwh
p172
I1
sVdi0ojk1
p173
I1
sVd3avdkd
p174
I2
sVd1xk3hp
p175
I1
sVd4kvpdh
p176
I1
sVd5yn3bg
p177
I2
sVdsd0ecs
p178
I2
sVdh0kmz2
p179
I1
sVdjml9v3
p180
I1
sVd48ceqj
p181
I1
sVcz2pceu
p182
I1
sVde0ftl2
p183
I1
sVd3rcehz
p184
I2
sVd0178rr
p185
I1
sVdf6fwgr
p186
I1
sVd82zzgz
p187
I1
sVddd68if
p188
I1
sVd424d4b
p189
I1
sVd1sce2e
p190
I1
sVdavzpy1
p191
I1
sVcyj22h6
p192
I1
sVdkldp2x
p193
I1
sVdf9prsi
p194
I1
sVdfdi2v5
p195
I1
sVd96vuxk
p196
I1
sVd16j599
p197
I3
sVdfic87t
p198
I1
sVdmlcajy
p199
I1
sVd4bvs45
p200
I1
sVdotxrsy
p201
I2
sVd39mtzm
p202
I1
sVdelao3b
p203
I1
sVcyjhlkn
p204
I1
sVderbmk3
p205
I1
sVdhp7qfa
p206
I1
sVd5g42ja
p207
I2
sVdi537i7
p208
I6
sVdodlwog
p209
I1
sVdksjqum
p210
I1
sVd6pk8gn
p211
I1
sVdi7o2av
p212
I1
sVdolvgw5
p213
I1
sVdjjphm2
p214
I1
sVdt5zvfk
p215
I1
sVdnzno5k
p216
I1
sVd174ek1
p217
I1
sVdcdy6b5
p218
I1
sVd4kxx4b
p219
I1
sVd1dxcig
p220
I1
sVdemi9ru
p221
I1
sVdbnmp7w
p222
I1
sVczrh853
p223
I1
sVd2tf76h
p224
I1
sVdj1mqgl
p225
I1
sVd9td664
p226
I1
sVdasop5k
p227
I1
sVdmme8mv
p228
I1
sVd23t0bq
p229
I1
sVdeld5bk
p230
I1
sVdg6cn2h
p231
I1
sVdfdjjub
p232
I1
sVdn00xqd
p233
I1
sVdgu8k4w
p234
I2
sVddng2vq
p235
I1
sVd0odmn8
p236
I1
sVd8js63k
p237
I1
sVd8vcoze
p238
I1
sVd7oe2n1
p239
I1
sVd2kwbk8
p240
I1
sVdiobyso
p241
I1
sVd353rre
p242
I1
sVd9xq2xe
p243
I1
sVd2id7h9
p244
I3
sVdb09xqr
p245
I1
sVdsk4xab
p246
I1
sVd15ww19
p247
I1
sVdcpq0ov
p248
I2
sVdqzu6q8
p249
I1
sVdmqsk8y
p250
I2
sVczwrgoo
p251
I1
sVdhy57mw
p252
I1
sVd115b5d
p253
I1
sVderywe1
p254
I1
sVczapu5v
p255
I1
sVd8lx5e9
p256
I1
sVd1mzbrc
p257
I3
sVczishmp
p258
I2
sVd1cbldk
p259
I4
sVdbw163e
p260
I1
sVdr8qul0
p261
I1
sVdc5sxuo
p262
I1
sVde97f3g
p263
I1
sVd380ue5
p264
I1
sVdivnwt0
p265
I1
sVdcux7qw
p266
I1
sVd0dn7o4
p267
I1
sVdn19je6
p268
I2
sVdi90zfl
p269
I2
sVdbnulrk
p270
I1
sVdkba9lc
p271
I10
sVdko3mtx
p272
I1
sVcym1rpc
p273
I1
sVd3bblcb
p274
I1
sVd2fiaax
p275
I1
sVd2hkfis
p276
I1
sVd57n5fy
p277
I1
sVdih66we
p278
I1
sVdsf52jz
p279
I2
sVd7jy62o
p280
I1
sVdf3ckpi
p281
I1
sVd150gde
p282
I4
sVdpvv2ad
p283
I2
sVd7cl5w3
p284
I2
sVd3iknjl
p285
I1
sVdd5qjk9
p286
I1
sVd2q2l7p
p287
I1
sVdemp89l
p288
I1
sVd9i14q2
p289
I2
sVdhpnolr
p290
I1
sVdpfwx2j
p291
I1
sVd1cse70
p292
I1
sVd048b11
p293
I1
sVd2utv24
p294
I1
sVdrb7je2
p295
I1
sVd21yp2w
p296
I1
sVd6m479l
p297
I1
sVd47th6i
p298
I1
sVczd6xza
p299
I2
sVd5gbfed
p300
I1
sVde16v9u
p301
I1
sVcyn2ot9
p302
I1
sVd0f47lt
p303
I2
sVd8k6uqw
p304
I1
sVd3j8yez
p305
I1
sVdff5a44
p306
I1
sVdqw4o86
p307
I1
sVdmn7g21
p308
I1
sVdob83ae
p309
I1
sVdbvvr2s
p310
I2
sVd1frs5r
p311
I1
sVdhl5m2p
p312
I1
sVddoa7vm
p313
I1
sVcz67zgt
p314
I1
sVdoona90
p315
I1
sVdcpd8d3
p316
I3
sVd8i40yn
p317
I1
sVdccgr4j
p318
I1
sVd8502ok
p319
I1
sVdaepsa1
p320
I1
sVddt460v
p321
I1
sVdfse83d
p322
I1
sVd22o54q
p323
I1
sVda6v4fx
p324
I1
sVdepenhh
p325
I1
sVdi56ayz
p326
I6
sVd4bk73b
p327
I1
sVcyjfkxc
p328
I1
sVd5mwbjh
p329
I1
sVdcdzr0g
p330
I1
sVd0chyvh
p331
I1
sVd8a82bw
p332
I1
sVd0eec3g
p333
I1
sVd2o0ao4
p334
I1
sVd0rqapl
p335
I1
sVdjrt2xg
p336
I1
sVdj51fh0
p337
I1
sVdf1zjek
p338
I1
sVds40ccu
p339
I1
sVd1d9mzn
p340
I1
sVd03v2xc
p341
I1
sVd9tcxj7
p342
I1
sVd0o92ra
p343
I1
sVdgq3pgg
p344
I1
sVdj23u5r
p345
I1
sVdb3uvig
p346
I1
sVd0ev2rc
p347
I1
sVdh8dxs8
p348
I1
sVd7clu0t
p349
I1
sVdp1djl0
p350
I1
sVczxqv5m
p351
I1
sVczhjyic
p352
I1
sVd91xrfb
p353
I1
sVcyza0h7
p354
I1
sVdqgkuqg
p355
I1
sVdd674y7
p356
I1
sVd6oyirs
p357
I5
sVczrgbcv
p358
I3
sVd107xfx
p359
I1
sVdnjrda3
p360
I1
sVd1bpist
p361
I1
sVd3b50fr
p362
I1
sVd80r6nc
p363
I1
sVdgmaz2s
p364
I1
sVd3vx1ct
p365
I1
sVd024bem
p366
I1
sVd8t2m91
p367
I1
sVdt2gwiw
p368
I1
sVdb93zeh
p369
I1
sVdfa3ei1
p370
I1
sVdfcp6fu
p371
I1
sVdcx8xi1
p372
I2
sVcyxjmhq
p373
I1
sVd02tfno
p374
I1
sVd44bugt
p375
I1
sVdp8i3nq
p376
I1
sVd3ow9xg
p377
I1
sVd7qo2fu
p378
I1
sVd6kbat1
p379
I1
sVdfprbig
p380
I1
sVdgezo5x
p381
I1
sVczviqbr
p382
I1
sVcylnrne
p383
I1
sVdh2s69s
p384
I2
sVdhfpy8g
p385
I1
sVdinl4o8
p386
I1
sVd1646ph
p387
I1
sVczseoml
p388
I1
sVdnrbfhh
p389
I1
sVdi0hyrz
p390
I1
sVd0asuk1
p391
I1
sVdpfsnzz
p392
I1
sVd0fi2ii
p393
I1
sVdi569c4
p394
I1
sVdh15zpm
p395
I1
sVd52lh0u
p396
I1
sVd4blx4v
p397
I1
sVdsm3na7
p398
I1
sVdcf6htp
p399
I2
sVdgv4pqg
p400
I1
sVdqvql60
p401
I3
sVd4795ox
p402
I1
sVdfyacnj
p403
I1
sVdalrptt
p404
I1
sVd7q68i0
p405
I1
sVd2f5jb5
p406
I1
sVdgai0d7
p407
I2
sVddo65gr
p408
I1
sVczzgv06
p409
I1
sVdgjm1vb
p410
I2
sVdgvezlb
p411
I4
sVdbllpx1
p412
I1
sVdktggqq
p413
I2
sVd6pvm2v
p414
I1
sVd2ipe32
p415
I1
sVdrittj3
p416
I1
sVdkb5fgx
p417
I1
sVd3znsk3
p418
I1
sVdiszzqj
p419
I1
sVd20wrvw
p420
I1
sVdpblymb
p421
I1
sVdgysf28
p422
I1
sVdc0dnwj
p423
I1
sVdd3lekz
p424
I1
sVd1k6dch
p425
I1
sVd5veyk7
p426
I1
sVdgf4hce
p427
I2
sVd0s2btr
p428
I1
sVd9ubv5x
p429
I1
sVd39nzr2
p430
I1
sVd15b3sq
p431
I2
sVd0dfvef
p432
I1
sVdj8usek
p433
I1
sVds918jl
p434
I5
sVczv3yhi
p435
I1
sVd58mbp7
p436
I1
sVd6pi7bp
p437
I1
sVdo1xxja
p438
I1
sVdb4afjx
p439
I1
sVd13zggk
p440
I1
sVdk9xd9i
p441
I1
sVcz99tni
p442
I6
sVdhh0xep
p443
I1
sVd5g8hyy
p444
I1
sVddnde2x
p445
I1
sVdblghof
p446
I1
sVdkvih4c
p447
I1
sVdjoslp6
p448
I1
sVd383vw7
p449
I2
sVd2ykz8g
p450
I1
sVd55cesk
p451
I1
sVd23dzas
p452
I1
sVd26zw1r
p453
I1
sVdmpkan4
p454
I8
sVdq5jjeg
p455
I2
sVdpnywv5
p456
I2
sVdestg2e
p457
I1
sVdhummvp
p458
I1
sVdgxbb4m
p459
I1
sVdqtbrw5
p460
I1
sVd0b0k47
p461
I1
sVd0qx6nx
p462
I1
sVdgmlysl
p463
I1
sVd1ptuwd
p464
I1
sVdpfldfr
p465
I1
sVd2nw55b
p466
I1
sVd8mxdu6
p467
I1
sVd0ish5o
p468
I1
sVczlxja7
p469
I1
sVd31qep8
p470
I1
sVd1aqul9
p471
I2
sVdf57h1m
p472
I1
sVdew7tji
p473
I1
sVd7mxwgw
p474
I2
sVdh8ljwg
p475
I1
sVd3rv36z
p476
I1
sVdeor7i3
p477
I1
sVdegnxlb
p478
I1
sVdf3s2xd
p479
I2
sVd3txm2k
p480
I1
sVdn2p4b8
p481
I1
sVd1pcoh2
p482
I1
sVd2o5ff1
p483
I1
sVdkkdibw
p484
I1
sVdsoc7pm
p485
I2
sVdibvof5
p486
I1
sVdots58y
p487
I1
sVdcz5q6t
p488
I1
sVdosp0rn
p489
I4
sVdgd1zi2
p490
I1
sVd5hxlcr
p491
I1
sVdtab8nr
p492
I2
sVdg2cgaw
p493
I1
sVdssowig
p494
I1
sVdgbqu7q
p495
I1
sVdgb6kjf
p496
I1
sVd593k0k
p497
I1
sVcyia8vr
p498
I2
sVd8a7b8f
p499
I4
sVdh4xwot
p500
I1
sVcz9tr33
p501
I1
sVdc0cave
p502
I4
sVdrmrrow
p503
I1
sVdrblxoz
p504
I1
sVdeos1wi
p505
I12
sVds0p9ar
p506
I1
sVd72s756
p507
I1
sVdbzqyvc
p508
I2
sVd984fz5
p509
I2
sVd6rehbp
p510
I1
sVdfbhth6
p511
I1
sVd16bew8
p512
I1
sVdf2nr6y
p513
I4
sVcz2t99t
p514
I1
sVd6gakgl
p515
I1
sVd1vepg3
p516
I1
sVdofdh1e
p517
I1
sVd0ekwnc
p518
I1
sVdcl50vy
p519
I1
sVd35zc70
p520
I2
sVdes5lmc
p521
I3
sVd3acak2
p522
I2
sVd17t529
p523
I2
sVdr2dqh3
p524
I4
sVdjomadu
p525
I1
sVdh71gf5
p526
I1
sVdnf0tsv
p527
I6
sVd8xkl4w
p528
I1
sVd46t2ij
p529
I5
sVdpym2wo
p530
I1
sVd572bno
p531
I2
sVdasd8wd
p532
I1
sVd2dpww4
p533
I1
sVdd7cjnu
p534
I1
sVdd6gbh6
p535
I2
sVdclzjaz
p536
I2
sVdmzenlz
p537
I2
sVczv2ri5
p538
I1
sVd6mhg01
p539
I1
sVd87mr2l
p540
I1
sVd5nw51s
p541
I1
sVd6b5deo
p542
I1
sVdc4en0z
p543
I1
sVd2dizbj
p544
I1
sVdprb4mv
p545
I1
sVd1kmueg
p546
I1
sVd3wiseg
p547
I1
sVd39o6ey
p548
I1
sVd7of1w8
p549
I2
sVdg4llym
p550
I1
sVd1fz2jm
p551
I1
sVd0w4hd7
p552
I1
sVd2q1joy
p553
I2
sVd0knj98
p554
I1
sVd7mvwvk
p555
I2
sVdom62qq
p556
I1
sVdqzs79n
p557
I2
sVd7k8q1v
p558
I1
sVdrwxnrq
p559
I1
sVddefat7
p560
I1
sVdi707qa
p561
I1
sVd0bq017
p562
I1
sVdhjfxuc
p563
I1
sVdj619jq
p564
I1
sVd36k9tu
p565
I1
sVdneg3oh
p566
I2
sVdfle80k
p567
I1
sVd9t2ukq
p568
I1
sVdpczolv
p569
I1
sVd0jk86b
p570
I1
sVcz5p7g4
p571
I1
sVdn2lu82
p572
I1
sVd5fm3mn
p573
I1
sVd69s7di
p574
I1
sVd71cmj0
p575
I1
sVdcz44uo
p576
I1
sVdfgvqzv
p577
I1
sVcyvbv7b
p578
I1
sVd6aiq8a
p579
I1
sVd7kdgpz
p580
I1
sVdfnfs9w
p581
I1
sVdgeafm0
p582
I1
sVd0ow67b
p583
I1
sVd401shr
p584
I1
sVd1wxlsm
p585
I2
sVdi243da
p586
I1
sVd0695a6
p587
I1
sVdkbaw45
p588
I1
sVdk23ar9
p589
I1
sVd4mvewt
p590
I1
sVdg2ere4
p591
I1
sVd5ginxo
p592
I2
sVd7hs76n
p593
I1
sVd9yu3m3
p594
I2
sVdk90lc7
p595
I1
sVdnh6sfu
p596
I2
sVdk55c2x
p597
I1
sVdi6w6hr
p598
I1
sVdda7j90
p599
I1
sVczawk9c
p600
I1
sVdqccwfq
p601
I1
sVdhf7yav
p602
I1
sVdd6ke8c
p603
I1
sVdn65vur
p604
I1
sVdnig21e
p605
I1
sVdn7qphg
p606
I11
sVd8lxqin
p607
I1
sVdobd75c
p608
I1
sVdatwdon
p609
I1
sVd000i4h
p610
I1
sVdbodfs2
p611
I1
sVdcbi99l
p612
I2
sVd2tn9yy
p613
I1
sVdiika32
p614
I1
sVczj261k
p615
I1
sVd8m023i
p616
I1
sVd37z1ld
p617
I1
sVdc47l5c
p618
I1
sVczkz20x
p619
I2
sVdiwn7l1
p620
I1
sVd1ad7wq
p621
I2
sVcyuvxpc
p622
I1
sVd6ffh0u
p623
I1
sVdhq8mjz
p624
I1
sVdi52dhk
p625
I3
sVdg4wx8u
p626
I1
sVd0zovnn
p627
I1
sVd7nnoh5
p628
I1
sVddwc142
p629
I1
sVddkdone
p630
I2
sVd97d6q3
p631
I1
sVdd3fx7e
p632
I1
sVdeh1afn
p633
I1
sVdi52e31
p634
I1
sVdr2hjmy
p635
I1
sVd48cdgs
p636
I1
sVdcdv2z2
p637
I2
sVdmuyxjj
p638
I1
sVdgf8lzi
p639
I1
sVcz5z96z
p640
I1
sVd9xu67z
p641
I1
sVdn4hgo4
p642
I1
sVdhjd6fo
p643
I1
sVdb3pf39
p644
I1
sVdcfi0ug
p645
I5
sVd2o6z29
p646
I1
sVdd59tpx
p647
I1
sVd164645
p648
I5
sVd7lrf9w
p649
I8
sVd7tda4o
p650
I1
sVd7u7o40
p651
I1
sVcyoq9op
p652
I1
sVdmx2j9w
p653
I1
sVczqg8t2
p654
I1
sVd37uyaz
p655
I1
sVd2bcurj
p656
I1
sVdcvook7
p657
I2
sVd8f8c5i
p658
I1
sVdkcn734
p659
I1
sVdhjlkmc
p660
I3
sVdkmahf5
p661
I1
sVdpwbvvf
p662
I1
sVdffmxb1
p663
I1
sVd8iy5eb
p664
I1
sVd7xt67b
p665
I1
sVdas9kwr
p666
I7
sVdqztw9z
p667
I2
sVd9emkxr
p668
I1
sVd4qxm2q
p669
I1
sVddblvmn
p670
I1
sVdqjneym
p671
I1
sVczd7756
p672
I1
sVd879th0
p673
I1
sVd84j0lx
p674
I1
sVd1vkk7e
p675
I1
sVd1ftcnj
p676
I1
sVdghsplq
p677
I1
sVdg6tb89
p678
I1
sVdo9da52
p679
I2
sVdbty3bt
p680
I1
sVdifghk1
p681
I1
sVdio1gdp
p682
I1
sVcz9jowt
p683
I1
sVdizbjqu
p684
I1
sVd842wg1
p685
I1
sVd4npbbn
p686
I1
sVdralx04
p687
I1
sVd8ltbja
p688
I1
sVdnjoulr
p689
I1
sVdfnmzid
p690
I1
sVd1c9mcb
p691
I1
sVd2jtxsa
p692
I1
sVd6wq9v2
p693
I3
sVdjoaf6p
p694
I1
sVdgjl3vt
p695
I1
sVdgqhat8
p696
I2
sVdk9cioj
p697
I5
sVdn429ik
p698
I1
sVd9l30um
p699
I1
sVcyz373z
p700
I1
sVdgl9v1b
p701
I1
sVd44rmmj
p702
I1
sVdhpzzbn
p703
I1
sVcznun9n
p704
I1
sVdmwt8mp
p705
I1
sVdd7jdop
p706
I1
sVd6z84n3
p707
I1
sVdk2h6yx
p708
I1
sVdfvq6b4
p709
I1
sVczp3xst
p710
I1
sVd954nhe
p711
I1
sVd5zgdv1
p712
I1
sVd1n3vxo
p713
I1
sVdnm132e
p714
I1
sVdblhl3m
p715
I1
sVcz99bii
p716
I4
sVdkkka1n
p717
I1
sVd38frb1
p718
I1
sVdqzucip
p719
I1
sVdho7yh1
p720
I1
sVdkx80u1
p721
I2
sVdrtl4wn
p722
I1
sVdfzvfk6
p723
I1
sVd0zglxe
p724
I3
sVde1u6do
p725
I1
sVdnh6s6c
p726
I1
sVcz7e5hh
p727
I1
sVdic3shr
p728
I1
sVd36nwiq
p729
I1
sVd21oblm
p730
I1
sVdgu9guy
p731
I1
sVdmpd1ze
p732
I1
sVd35ku9j
p733
I1
sVd3ab06y
p734
I1
sVd796rvb
p735
I1
sVd2vcbha
p736
I1
sVd2kdsvy
p737
I1
sVdnfkbu0
p738
I3
sVdecbd07
p739
I1
sVdb8f8kw
p740
I1
sVdkvso56
p741
I1
sVdgpi54c
p742
I1
sVd4qbmxg
p743
I1
sVd0z72zw
p744
I1
sVdev64uo
p745
I1
sVdgb77om
p746
I1
sVdaw96mj
p747
I1
sVddxj0yj
p748
I1
sVd1lhoqe
p749
I1
sVdjle2r9
p750
I8
sVd1mv2nn
p751
I1
sVd2yy866
p752
I2
sVdb63gif
p753
I1
sVd08wx2a
p754
I1
sVde6f8l6
p755
I2
sVd9hityt
p756
I2
sVdjh1uk7
p757
I6
sVd8c7r6f
p758
I1
sVd301yjt
p759
I1
sVdcspeen
p760
I1
sVd170trr
p761
I1
sVdi5hxr3
p762
I2
sVdgrv3b7
p763
I1
sVdi8wjc0
p764
I1
sVdhyz6un
p765
I1
sVd6scxwb
p766
I1
sVdjnuk5u
p767
I1
sVdev38gq
p768
I1
sVd2n6u5b
p769
I1
sVdeavvp6
p770
I1
sVd8hcssp
p771
I1
sVdj3h9h9
p772
I1
sVd1tk17n
p773
I1
sVd3cdpbr
p774
I1
sVdhmtyor
p775
I1
sVdepk253
p776
I1
sVdftwtfa
p777
I2
sVczrc6e0
p778
I1
sVdg01slx
p779
I3
sVd6umqpv
p780
I1
sVd4god3v
p781
I1
sVdi5cjpm
p782
I5
sVdfty5wr
p783
I1
sVddgvbia
p784
I1
sVd7ohe0o
p785
I1
sVd6ozjb0
p786
I4
sVdj8nop5
p787
I1
sVdgympma
p788
I1
sVdmmcu88
p789
I1
sVd0xz4tg
p790
I1
sVd478a7o
p791
I1
sVd3naozv
p792
I2
sVdmqmcu0
p793
I1
sVdic271f
p794
I1
sVd1zor96
p795
I1
sVd5bodt6
p796
I1
sVdcz3d81
p797
I1
sVdhyraij
p798
I1
sVdjb2wv2
p799
I1
sVdjz8w0w
p800
I1
sVd3c4ic6
p801
I1
sVdk4oa8s
p802
I1
sVdiy03xp
p803
I1
sVdba0pob
p804
I1
sVdjldg9u
p805
I3
sVcywgg61
p806
I1
sVd2kgie3
p807
I2
sVd7hregz
p808
I1
sVd1af7sa
p809
I1
sVd7loeja
p810
I4
sVd85x80l
p811
I1
sVd0dznpd
p812
I1
sVd1jzjyy
p813
I1
sVd0b4vqg
p814
I1
sVd5jngoc
p815
I1
sVd7sk9o2
p816
I1
sVdeyr3ud
p817
I1
sVd4713tx
p818
I1
sVd5csr9j
p819
I2
sVdrkehkw
p820
I1
sVd8f2tk4
p821
I1
sVd5miv5t
p822
I1
sVd7zqaao
p823
I1
sVdcpotyv
p824
I1
sVdndkklk
p825
I1
sVd16frn7
p826
I4
sVd6x5796
p827
I1
sVd3erodo
p828
I1
sVd0ojukm
p829
I1
sVdblhocg
p830
I1
sVczgq3om
p831
I1
sVd19eehu
p832
I1
sVd00v05i
p833
I1
sVd1wrr1t
p834
I1
sVdca6qhu
p835
I1
sVd1cy94o
p836
I1
sVcyruhuy
p837
I1
sVdk3984t
p838
I1
sVdf38ksy
p839
I1
sVd26tbpf
p840
I1
sVcyrhpkf
p841
I1
sVdeajm4a
p842
I1
sVd51fbwh
p843
I1
sVdeddfvr
p844
I1
sVdkjnk2m
p845
I1
sVd4g1pdc
p846
I1
sVd73sq55
p847
I1
sVd1f4c3d
p848
I1
sVdkyb78p
p849
I1
sVd8lu414
p850
I1
sVdgljuw0
p851
I1
sVczuq1hy
p852
I1
sVdh4y0zj
p853
I1
sVdjmfe0r
p854
I1
sVdnya6i2
p855
I1
sVd1zo2cp
p856
I2
sVcz8vw5k
p857
I1
sVdkn5bq2
p858
I2
sVd593r7b
p859
I3
sVd92t9ye
p860
I2
sVddzkn27
p861
I1
sVdq2tzaj
p862
I1
sVd290i25
p863
I1
sVdn7ox2l
p864
I4
sVdqz92uv
p865
I1
sVdgkyq3o
p866
I1
sVdtald2l
p867
I1
sVdnxof0m
p868
I1
sVd0tca7v
p869
I1
sVdcwj8xq
p870
I1
sVdffvt2v
p871
I1
sVd5mke8w
p872
I4
sVdmrzrwk
p873
I1
sVd83slzf
p874
I1
sVd6i1gts
p875
I1
sVdjipy9t
p876
I1
sVdkm458x
p877
I1
sVd7ja5bo
p878
I2
sVczo39eg
p879
I1
sVdexiz2e
p880
I1
sVdgew8w4
p881
I1
sVd4xizok
p882
I9
sVdaajgqj
p883
I1
sVdecr1s0
p884
I1
sVd698phk
p885
I4
sVdnlhvmh
p886
I1
sVdtf73mq
p887
I1
sVdj9vizs
p888
I1
sVdftliqh
p889
I1
sVdg8scql
p890
I1
sVd54hwya
p891
I1
sVd9oo30o
p892
I1
sVdch5m5r
p893
I1
sVd82f2ga
p894
I1
sVdk4huwm
p895
I1
sVczubmm9
p896
I5
sVd1yhmne
p897
I1
sVd477h6k
p898
I1
sVdbso5wk
p899
I1
sVdez0cxv
p900
I1
sVd3lj4kq
p901
I1
sVdclzral
p902
I3
sVd4bhti0
p903
I1
sVcz51har
p904
I1
sVdorw7zc
p905
I1
sVdnp9eep
p906
I2
sVd97dq6q
p907
I1
sVd6boapi
p908
I1
sVd3oviws
p909
I1
sVd9c2etw
p910
I1
sVdeorc1z
p911
I1
sVdi635q3
p912
I1
sVczfdiws
p913
I1
sVddxg6qg
p914
I1
sVdsgir7j
p915
I1
sVdnzkqpw
p916
I1
sVdcbluci
p917
I1
sVd2l13j5
p918
I1
sVd6pfp90
p919
I1
sVd2ilvyu
p920
I1
sVd5kuq29
p921
I1
sVd0xvsmv
p922
I2
sVcyzn7sl
p923
I1
sVd4bpxut
p924
I1
sVdee1vt3
p925
I1
sVdfikfrz
p926
I1
sVdgibk7n
p927
I1
sVdq4ykid
p928
I1
sVdcdovpi
p929
I1
sVdfriqds
p930
I1
sVdgza3xr
p931
I1
sVddpbs3j
p932
I1
sVdhexhoi
p933
I1
sVd2x0qqt
p934
I2
sVdkp59hp
p935
I1
sVdcmwcid
p936
I3
sVcyjb2m9
p937
I1
sVcz873dj
p938
I1
sVd0at9dz
p939
I1
sVdftyz0j
p940
I1
sVczd6zqr
p941
I3
sVdn6gp21
p942
I1
sVds91o5u
p943
I7
sVd1gezjj
p944
I2
sVd7ccwf4
p945
I1
sVd2ap487
p946
I1
sVczrhaf2
p947
I3
sVd7w4zbg
p948
I1
sVcyx4gc6
p949
I1
sVd78cffp
p950
I1
sVczruslp
p951
I1
sVdcm1mge
p952
I1
sVd4lo65i
p953
I1
sVdi52bb0
p954
I13
sVd8ur3w2
p955
I3
sVczgl4lt
p956
I1
sVdpu7jnx
p957
I1
sVdi336h9
p958
I1
sVdaettcv
p959
I1
sVdipqdoy
p960
I1
sVdr29373
p961
I2
sVd6osm01
p962
I1
sVd99xsu5
p963
I2
sVdmv8wq4
p964
I1
sVdqx0ob1
p965
I1
sVdpczmub
p966
I1
sVd7e4c6y
p967
I1
sVd53iuij
p968
I1
sVdi09moa
p969
I1
sVdeorab0
p970
I2
sVdi6lv37
p971
I1
sVdiqtxcj
p972
I1
sVdn3g4m9
p973
I3
sVdqzwt0k
p974
I3
sVdhg8nfe
p975
I1
sVde1tua9
p976
I2
sVd8goh91
p977
I1
sVdon1ywc
p978
I1
sVd595qrt
p979
I4
sVd025zw7
p980
I4
sVd17rqov
p981
I1
sVd0pf7bl
p982
I1
sVd3to0x2
p983
I1
sVd6ht7s1
p984
I7
sVd5h2q1o
p985
I1
sVd22xzwd
p986
I1
sVd52r3a5
p987
I1
sVd1jplb6
p988
I1
sVdj5jfuy
p989
I1
sVdgw2gzk
p990
I1
sVd306p6i
p991
I1
sVdbslqjk
p992
I1
sVdkmo3ml
p993
I1
sVd8ksi9v
p994
I1
sVdem9v10
p995
I1
sVd723lmm
p996
I1
sVddxu9nw
p997
I1
sVddozsq0
p998
I1
sVd8lwdu2
p999
I1
sVd55izn9
p1000
I1
sVcyxjdld
p1001
I1
sVd6hcx19
p1002
I1
sVd64d4nx
p1003
I1
sVd0i77pi
p1004
I1
sVdjzo6ow
p1005
I1
sVdccbwy8
p1006
I2
sVd1yq5mp
p1007
I1
sVdhhgx29
p1008
I1
sVdejjbdl
p1009
I1
sVd6qcg8r
p1010
I1
sVd360l23
p1011
I1
sVd7ll06b
p1012
I3
sVd00c80q
p1013
I1
sVdg1tl5e
p1014
I1
sVd2dc6ve
p1015
I1
sVdftzu70
p1016
I1
sVcyq8chu
p1017
I1
sVd3u879z
p1018
I1
sVdag8k99
p1019
I1
sVderaxj0
p1020
I1
sVdot7l7o
p1021
I1
sVde5cvol
p1022
I1
sVd6twwhg
p1023
I1
sVd7myhnp
p1024
I1
sVdjnzz39
p1025
I1
sVd65rl7w
p1026
I1
sVdbkm893
p1027
I5
sVds90q4m
p1028
I1
sVd0nu2l4
p1029
I1
sVd13pqfc
p1030
I1
sVdd3xfkc
p1031
I2
sVczs00zz
p1032
I1
sVd8e7qrf
p1033
I1
sVd07yq8p
p1034
I1
sVdqo4grb
p1035
I1
sVda5mma2
p1036
I1
sVcyqbzt1
p1037
I1
sVd33zf1p
p1038
I1
sVd65ahjn
p1039
I2
sVdjnnuz7
p1040
I1
sVd16tv0o
p1041
I1
sVd2gvjux
p1042
I1
sVd5tihhl
p1043
I1
sVd9jftp8
p1044
I1
sVd2jmr8x
p1045
I1
sVdd5y7m6
p1046
I1
sVd46u7ld
p1047
I1
sVdpcoyni
p1048
I3
sVczcdxc5
p1049
I1
sVd57awsd
p1050
I1
sVdmr8hi4
p1051
I1
sVd00i1er
p1052
I1
sVddalpas
p1053
I1
sVd43ipox
p1054
I1
sVd66lgqz
p1055
I1
sVd0ohmix
p1056
I1
sVd98h2n9
p1057
I1
sVdkbmabl
p1058
I1
sVdfd6qbm
p1059
I1
sVdhyzgzy
p1060
I3
sVczwf16o
p1061
I1
sVd06x0wh
p1062
I1
sVdip5w8m
p1063
I5
sVdftlf12
p1064
I1
sVdcp641o
p1065
I1
sVdcl51zw
p1066
I1
sVcywluvy
p1067
I1
sVd5ib1sp
p1068
I1
sVdisp9q3
p1069
I1
sVd27y6r0
p1070
I2
sVdcu9psw
p1071
I1
sVdjnw6xa
p1072
I1
sVd74f02h
p1073
I1
sVdoshnhr
p1074
I1
sVd3b3lha
p1075
I1
sVd30gqf1
p1076
I1
sVdi52emw
p1077
I14
sVdhwf5ia
p1078
I1
sVd4d3622
p1079
I2
sVczerhn1
p1080
I1
sVd03nyz8
p1081
I10
sVdka0a9a
p1082
I2
sVd06heyt
p1083
I1
sVdpoqcc6
p1084
I2
sVcyxc09t
p1085
I1
sVczuqbtp
p1086
I1
sVd7dd32y
p1087
I1
sVd52eziw
p1088
I1
sVdn480r7
p1089
I1
sVd3vxt0h
p1090
I1
sVda9f8l5
p1091
I1
sVdasq97g
p1092
I3
sVd4n4lbc
p1093
I1
sVd7z4o49
p1094
I1
sVdasfpe4
p1095
I1
sVd5mipp5
p1096
I6
sVdjgphkc
p1097
I1
sVd2doqe9
p1098
I2
sVda12qdd
p1099
I1
sVcyjcdro
p1100
I1
sVdas9iv0
p1101
I9
sVdfbiswh
p1102
I1
sVd7ruqyz
p1103
I1
s.