(dp0
Vd7odo6u
p1
I1
sVdjrcdzq
p2
I1
sVd47v3w1
p3
I1
sVd3jfxr5
p4
I1
sVcz1l5yh
p5
I1
sVdalg5zm
p6
I1
sVczcyy8o
p7
I1
sVd02frog
p8
I1
sVdd9g8g1
p9
I1
sVd3aiy1g
p10
I1
sVdol2v0i
p11
I1
sVd03fcyv
p12
I1
sVczby367
p13
I1
sVd61okik
p14
I1
sVczevsun
p15
I1
sVczzhjsg
p16
I1
sVd3i1nc5
p17
I1
sVdidgs58
p18
I1
sVd19vqwc
p19
I1
sVd2gt9is
p20
I1
s.