(dp0
Vd2rdlfo
p1
I1
sVd6j72zx
p2
I1
sVdcli8o7
p3
I1
sVdmkrwh6
p4
I1
sVds03pfo
p5
I1
sVd8drc3i
p6
I1
sVd00tvtt
p7
I1
sVdjrb9s3
p8
I1
sVd4okozw
p9
I2
sVdgpacp1
p10
I1
sVdd7mqsc
p11
I1
sVdot98pp
p12
I1
sVdh642pz
p13
I1
sVdhrbwc5
p14
I1
sVcyz314l
p15
I1
sVdi7v1rp
p16
I2
sVd6y8h9z
p17
I1
sVd94613y
p18
I1
sVd04dd8r
p19
I2
sVd666dyw
p20
I1
sVd6hf1c7
p21
I1
sVd03c6sw
p22
I1
sVds0d7jh
p23
I1
sVdi0exw2
p24
I1
sVdcc8r18
p25
I1
sVcz051b4
p26
I1
sVdakm4s6
p27
I1
sVdjmai0p
p28
I1
sVdfsyc18
p29
I1
sVdockedk
p30
I1
sVd0vse1b
p31
I1
sVczuobkz
p32
I1
sVdimmay1
p33
I1
sVczdocn5
p34
I1
sVd1pf7hc
p35
I1
sVd0v1k8v
p36
I1
sVcyioctd
p37
I1
sVdayw2ku
p38
I1
sVdnchikh
p39
I1
sVd1kq1eo
p40
I1
sVdpe8rt8
p41
I1
sVd4rn5ps
p42
I1
sVcyvgdhv
p43
I1
sVdj3kfgk
p44
I1
sVdkgu6vy
p45
I1
sVdhvfwpr
p46
I1
sVdjhwtvb
p47
I1
sVd5xnft6
p48
I1
sVdgerzdf
p49
I1
sVdplaz38
p50
I1
sVdbmovtb
p51
I1
sVdjmjt3u
p52
I2
sVdpnd6yk
p53
I1
sVd6im1dr
p54
I1
sVd03txdc
p55
I1
sVdcbng0u
p56
I1
sVddy7cbe
p57
I1
sVdcv8nno
p58
I1
sVdgkw6dj
p59
I1
sVd54z3kc
p60
I1
sVdqvgvx5
p61
I1
sVdbg9bam
p62
I1
sVd3dx4yo
p63
I1
sVda80odd
p64
I1
sVd2jj6xn
p65
I1
sVditjroi
p66
I1
sVcyx2zkr
p67
I1
sVdjs283u
p68
I1
sVdh5bmsh
p69
I1
sVdaedfhu
p70
I1
sVd8kkqdu
p71
I1
sVdkq6ykb
p72
I5
sVd6hzzwg
p73
I1
sVdmwcwka
p74
I1
sVd4rtf4x
p75
I1
sVdad7ypq
p76
I1
sVd7a8imz
p77
I1
sVdkjpq72
p78
I1
sVdbxh0yu
p79
I2
sVcywpxvs
p80
I1
sVdi6nm8r
p81
I1
sVd1yzyz6
p82
I1
sVdoqtbcw
p83
I1
sVdcn1xf3
p84
I1
sVdp7ut8f
p85
I1
sVcysqfn6
p86
I1
sVdgnntw8
p87
I1
sVdapbl61
p88
I1
sVdhibjus
p89
I1
sVd2nblbd
p90
I1
sVd5j8p0q
p91
I1
sVdrxtms9
p92
I1
sVcz69zvp
p93
I1
sVdgf913a
p94
I1
sVdrwaa61
p95
I1
sVdbdyy2u
p96
I1
sVdeqc8hn
p97
I1
sVd5hnprw
p98
I1
sVd66yf7v
p99
I1
sVd5ox0n6
p100
I1
sVdplii6m
p101
I1
sVdchfkxl
p102
I2
sVddxy3wc
p103
I1
sVd0wjagg
p104
I1
sVdfw92ea
p105
I1
sVdqvwxdp
p106
I1
sVd96c0i5
p107
I1
sVdpnvwof
p108
I1
sVdbs23m0
p109
I1
sVd5ailvy
p110
I1
sVdgvpnpq
p111
I1
sVdcd92em
p112
I1
sVd44z4hu
p113
I1
sVdbfdkqq
p114
I1
sVd4vmo41
p115
I1
sVdhada9v
p116
I2
sVd49jpax
p117
I2
sVdswe4lz
p118
I1
sVd78cot2
p119
I1
sVcykyiul
p120
I1
sVdik9wsz
p121
I1
sVd5hnt8h
p122
I1
sVdhdcsvw
p123
I2
sVd003q96
p124
I1
sVdeyu5hd
p125
I1
sVdt6qzwb
p126
I1
sVdqg7pjf
p127
I1
sVdiar3gj
p128
I1
sVcz83aob
p129
I1
sVddmb5qp
p130
I1
sVdk14vt9
p131
I1
sVdkhguy0
p132
I1
sVd0w9kus
p133
I1
sVdrh1361
p134
I1
sVdfv3gij
p135
I1
sVdpow7b9
p136
I1
sVdry3nnr
p137
I1
sVdbuxoq4
p138
I1
sVd8u5pkj
p139
I1
sVd35gvp2
p140
I1
sVdd4vyqo
p141
I1
sVdd74bvj
p142
I1
sVdhplpea
p143
I1
sVd64bx9o
p144
I1
sVd14ei15
p145
I1
sVdd1vlfc
p146
I1
sVcypqh27
p147
I1
sVdt1sdcm
p148
I1
sVd796ozf
p149
I1
sVdmyd7jq
p150
I1
sVd723y72
p151
I1
sVdjnumg6
p152
I1
sVdcnscv3
p153
I2
sVdgfloet
p154
I1
sVdhwzq3l
p155
I1
sVd3fqipi
p156
I1
sVd8vj7bz
p157
I1
sVdq06v20
p158
I1
sVd0brgaw
p159
I1
sVd2pin9q
p160
I1
sVd8u4472
p161
I1
sVdj0hxzc
p162
I1
sVd586nkb
p163
I1
sVdd84rs1
p164
I1
sVd4qn3pb
p165
I1
sVdnf8vrt
p166
I1
sVd2qsao4
p167
I1
sVdkjld4z
p168
I1
sVd3nn364
p169
I1
sVczae984
p170
I1
sVdecudjh
p171
I1
sVd23hi2y
p172
I1
sVdhifajt
p173
I1
s.