(dp0
Vdhv7p6r
p1
I1
sVdk3miwd
p2
I2
sVdakd9ro
p3
I1
sVd0ddzn6
p4
I1
sVd1k38xr
p5
I1
sVd6k1q8e
p6
I1
sVd7v9y9f
p7
I1
sVdikgfp8
p8
I1
sVdrvrynm
p9
I1
sVdkdcma1
p10
I1
sVddvf3s2
p11
I2
sVdnhnzzw
p12
I1
sVdposlnj
p13
I3
s.