(dp0
Vcyqpn13
p1
I1
sVdenyrg8
p2
I1
sVd1i50md
p3
I1
sVd05xc7k
p4
I1
sVd8umarg
p5
I1
sVdenwxbr
p6
I1
sVdkoqmb0
p7
I1
sVd6aoiho
p8
I1
sVdh0r7ix
p9
I1
sVd1bvj7q
p10
I1
sVd29vdtg
p11
I1
sVdhm9q2l
p12
I1
sVdr0ovqu
p13
I1
sVdepnix6
p14
I1
sVcz64wg0
p15
I1
sVd68kqui
p16
I1
sVd6fdg36
p17
I1
sVdb52a9o
p18
I1
sVd1yn967
p19
I1
sVdtel7za
p20
I1
sVdaxfzvx
p21
I1
sVdivhvgr
p22
I1
s.