(dp0
Vczdkghg
p1
I1
s.(dp0
Vczdkghg
p1
I1
sVd02in9w
p2
I1
s.(dp0
Vd08w087
p1
I1
sVczdkghg
p2
I1
s.(dp0
Vd23y6j3
p1
I1
sVczdkghg
p2
I1
s.(dp0
Vd2f1qw0
p1
I1
sVczdkghg
p2
I1
s.(dp0
Vczdkghg
p1
I1
sVd2m6iq0
p2
I1
s.(dp0
Vczdkghg
p1
I1
sVd2m6iq0
p2
I1
s.(dp0
Vczdkghg
p1
I1
sVd2m6iq0
p2
I1
s.(dp0
Vd2uzlvi
p1
I1
sVczdkghg
p2
I1
s.(dp0
Vd7mxwgw
p1
I1
sVczdkghg
p2
I1
s.(dp0
Vczdkghg
p1
I1
sVd7sfcp0
p2
I1
s.(dp0
Vczdkghg
p1
I1
sVdac5ger
p2
I1
s.(dp0
Vdbdp1a9
p1
I1
sVczdkghg
p2
I1
s.(dp0
Vczdkghg
p1
I1
sVdbdqyyi
p2
I1
s.(dp0
Vdbewhlm
p1
I1
sVczdkghg
p2
I1
s.(dp0
Vczdkghg
p1
I1
sVdbkcm1p
p2
I1
s.(dp0
Vczdkghg
p1
I1
sVddzpzlo
p2
I1
s.(dp0
Vczdkghg
p1
I1
sVddzpzlo
p2
I1
s.(dp0
Vddzwzem
p1
I1
sVczdkghg
p2
I1
s.(dp0
Vddzwzem
p1
I1
sVczdkghg
p2
I1
s.(dp0
Vde05pnz
p1
I1
sVczdkghg
p2
I1
s.(dp0
Vde05pnz
p1
I1
sVczdkghg
p2
I1
s.(dp0
Vde05pnz
p1
I1
sVczdkghg
p2
I1
s.(dp0
Vczdkghg
p1
I1
sVde8iqcb
p2
I1
s.(dp0
Vde8ive1
p1
I1
sVczdkghg
p2
I1
s.(dp0
Vczdkghg
p1
I1
sVdgk51ch
p2
I1
s.(dp0
Vczdkghg
p1
I1
sVdjktdzz
p2
I1
s.(dp0
Vczdkghg
p1
I1
sVdjktdzz
p2
I1
s.(dp0
Vdn1z419
p1
I1
sVczdkghg
p2
I1
s.(dp0
Vdn1z419
p1
I1
sVczdkghg
p2
I1
s.(dp0
Vczdkghg
p1
I1
sVdn21bqa
p2
I1
s.(dp0
Vczdkghg
p1
I1
sVdn21bqa
p2
I1
s.(dp0
Vczdkghg
p1
I1
sVdn21bqa
p2
I1
s.(dp0
Vczdkghg
p1
I1
sVdolssux
p2
I1
s.