(dp0
Vcyhtwr3
p1
I1
s.(dp0
Vcyicfzu
p1
I1
sVcyhtwr3
p2
I1
s.(dp0
Vcyhtwr3
p1
I1
sVcyif6yw
p2
I1
s.(dp0
Vcyilqxp
p1
I1
sVcyhtwr3
p2
I1
s.(dp0
Vcyjru73
p1
I1
sVcyhtwr3
p2
I1
s.(dp0
Vcyk46g8
p1
I1
sVcyhtwr3
p2
I1
s.(dp0
Vcyk46g8
p1
I1
sVcyhtwr3
p2
I1
s.(dp0
Vcyhtwr3
p1
I1
sVcyk5ipu
p2
I1
s.(dp0
Vcykek55
p1
I1
sVcyhtwr3
p2
I1
s.(dp0
Vcyhtwr3
p1
I1
sVcykous8
p2
I1
s.(dp0
Vcykso7y
p1
I1
sVcyhtwr3
p2
I1
s.(dp0
Vcyl0jxb
p1
I1
sVcyhtwr3
p2
I1
s.(dp0
Vcyhtwr3
p1
I1
sVcyl152v
p2
I1
s.(dp0
Vcylgmby
p1
I1
sVcyhtwr3
p2
I1
s.(dp0
Vcylj2jj
p1
I1
sVcyhtwr3
p2
I1
s.(dp0
Vcylj2w0
p1
I1
sVcyhtwr3
p2
I1
s.(dp0
Vcymp21r
p1
I1
sVcyhtwr3
p2
I1
s.(dp0
Vcyhtwr3
p1
I1
sVcymrd3g
p2
I1
s.(dp0
Vcymrota
p1
I1
sVcyhtwr3
p2
I1
s.(dp0
Vcynoh9q
p1
I1
sVcyhtwr3
p2
I1
s.(dp0
Vcyhtwr3
p1
I1
sVcynr7vq
p2
I1
s.(dp0
Vcyhtwr3
p1
I1
sVcyo4xxq
p2
I1
s.(dp0
Vcyo6ts0
p1
I1
sVcyhtwr3
p2
I1
s.(dp0
Vcyozdr0
p1
I1
sVcyhtwr3
p2
I1
s.(dp0
Vcyp03fr
p1
I1
sVcyhtwr3
p2
I1
s.(dp0
Vcyppotf
p1
I1
sVcyhtwr3
p2
I1
s.(dp0
Vcypx9bf
p1
I1
sVcyhtwr3
p2
I1
s.(dp0
Vcyq5zn6
p1
I1
sVcyhtwr3
p2
I1
s.(dp0
Vcyq9alo
p1
I1
sVcyhtwr3
p2
I1
s.(dp0
Vcyqd2fm
p1
I1
sVcyhtwr3
p2
I1
s.(dp0
Vcyqxaoi
p1
I1
sVcyhtwr3
p2
I1
s.(dp0
Vcyrej1d
p1
I1
sVcyhtwr3
p2
I1
s.(dp0
Vcyrqhu5
p1
I1
sVcyhtwr3
p2
I1
s.(dp0
Vcys3lki
p1
I1
sVcyhtwr3
p2
I1
s.(dp0
Vcys5z2k
p1
I1
sVcyhtwr3
p2
I1
s.(dp0
Vcysfwul
p1
I1
sVcyhtwr3
p2
I1
s.(dp0
Vcysildf
p1
I1
sVcyhtwr3
p2
I1
s.(dp0
Vcyskj82
p1
I1
sVcyhtwr3
p2
I1
s.(dp0
Vcyhtwr3
p1
I1
sVcyswbs8
p2
I1
s.(dp0
Vcytjboi
p1
I1
sVcyhtwr3
p2
I1
s.(dp0
Vcyhtwr3
p1
I1
sVcyto39t
p2
I1
s.(dp0
Vcyhtwr3
p1
I1
sVcyto39t
p2
I1
s.(dp0
Vcytxeq2
p1
I1
sVcyhtwr3
p2
I1
s.(dp0
Vcyhtwr3
p1
I1
sVcyu2rjf
p2
I1
s.(dp0
Vcyhtwr3
p1
I1
sVcyu4now
p2
I1
s.(dp0
Vcyu725e
p1
I1
sVcyhtwr3
p2
I1
s.(dp0
Vcyudgct
p1
I1
sVcyhtwr3
p2
I1
s.(dp0
Vcyunw3a
p1
I1
sVcyhtwr3
p2
I1
s.(dp0
Vcyup45w
p1
I1
sVcyhtwr3
p2
I1
s.(dp0
Vcyvdd51
p1
I1
sVcyhtwr3
p2
I1
s.(dp0
Vcyhtwr3
p1
I1
sVcyvemou
p2
I1
s.(dp0
Vcyvixik
p1
I1
sVcyhtwr3
p2
I1
s.(dp0
Vcyw0bpv
p1
I1
sVcyhtwr3
p2
I1
s.(dp0
Vcywalr5
p1
I1
sVcyhtwr3
p2
I1
s.(dp0
Vcywe3rb
p1
I1
sVcyhtwr3
p2
I1
s.(dp0
Vcywspiv
p1
I1
sVcyhtwr3
p2
I1
s.(dp0
Vcyx6ixd
p1
I1
sVcyhtwr3
p2
I1
s.(dp0
Vcyxrz88
p1
I1
sVcyhtwr3
p2
I1
s.(dp0
Vcyhtwr3
p1
I1
sVcyy095u
p2
I1
s.(dp0
Vcyy6mfm
p1
I1
sVcyhtwr3
p2
I1
s.(dp0
Vcyytkeb
p1
I1
sVcyhtwr3
p2
I1
s.(dp0
Vcyhtwr3
p1
I1
sVcyyvrh4
p2
I1
s.(dp0
Vcyhtwr3
p1
I1
sVcyyvrh4
p2
I1
s.(dp0
Vcyyxxg3
p1
I1
sVcyhtwr3
p2
I1
s.(dp0
Vcyhtwr3
p1
I1
sVcyyyrpm
p2
I1
s.(dp0
Vcyz4n17
p1
I1
sVcyhtwr3
p2
I1
s.(dp0
Vcyhtwr3
p1
I1
sVcyz76op
p2
I1
s.(dp0
Vcyhtwr3
p1
I1
sVcyzifzk
p2
I1
s.(dp0
Vcyzl0x2
p1
I1
sVcyhtwr3
p2
I1
s.(dp0
Vcyhtwr3
p1
I1
sVcyzm5nf
p2
I1
s.(dp0
Vcyhtwr3
p1
I1
sVcyzm5nf
p2
I1
s.(dp0
Vcyhtwr3
p1
I1
sVcyzop8i
p2
I1
s.(dp0
Vcyzrr62
p1
I1
sVcyhtwr3
p2
I1
s.(dp0
Vcyzrr62
p1
I1
sVcyhtwr3
p2
I1
s.(dp0
Vcyzxrrm
p1
I1
sVcyhtwr3
p2
I1
s.(dp0
Vcz0awhj
p1
I1
sVcyhtwr3
p2
I1
s.(dp0
Vcyhtwr3
p1
I1
sVcz0hk94
p2
I1
s.(dp0
Vcz0tg4s
p1
I1
sVcyhtwr3
p2
I1
s.(dp0
Vcyhtwr3
p1
I1
sVcz0wvv8
p2
I1
s.(dp0
Vcz10iln
p1
I1
sVcyhtwr3
p2
I1
s.(dp0
Vcz184k6
p1
I1
sVcyhtwr3
p2
I1
s.(dp0
Vcz23odh
p1
I1
sVcyhtwr3
p2
I1
s.(dp0
Vcz26sct
p1
I1
sVcyhtwr3
p2
I1
s.(dp0
Vcz26sct
p1
I1
sVcyhtwr3
p2
I1
s.(dp0
Vcyhtwr3
p1
I1
sVcz2adxv
p2
I1
s.(dp0
Vcz2b32k
p1
I1
sVcyhtwr3
p2
I1
s.(dp0
Vcz2b32k
p1
I1
sVcyhtwr3
p2
I1
s.(dp0
Vcz39jse
p1
I1
sVcyhtwr3
p2
I1
s.(dp0
Vcyhtwr3
p1
I1
sVcz3fftr
p2
I1
s.(dp0
Vcyhtwr3
p1
I1
sVcz3i2ua
p2
I1
s.(dp0
Vcz3wupe
p1
I1
sVcyhtwr3
p2
I1
s.(dp0
Vcz3wupe
p1
I1
sVcyhtwr3
p2
I1
s.(dp0
Vcz3ygx5
p1
I1
sVcyhtwr3
p2
I1
s.(dp0
Vcyhtwr3
p1
I1
sVcz46irm
p2
I1
s.(dp0
Vcyhtwr3
p1
I1
sVcz4l8y4
p2
I1
s.(dp0
Vcz4q6bi
p1
I1
sVcyhtwr3
p2
I1
s.(dp0
Vcz4x9ql
p1
I1
sVcyhtwr3
p2
I1
s.(dp0
Vcz520rz
p1
I1
sVcyhtwr3
p2
I1
s.(dp0
Vcz57ocm
p1
I1
sVcyhtwr3
p2
I1
s.(dp0
Vcyhtwr3
p1
I1
sVcz5dfss
p2
I1
s.(dp0
Vcyhtwr3
p1
I1
sVcz5z27e
p2
I1
s.(dp0
Vcyhtwr3
p1
I1
sVcz5z27e
p2
I1
s.(dp0
Vcz5zpi9
p1
I1
sVcyhtwr3
p2
I1
s.(dp0
Vcyhtwr3
p1
I1
sVcz5zrhh
p2
I1
s.(dp0
Vcz6alyt
p1
I1
sVcyhtwr3
p2
I1
s.(dp0
Vcyhtwr3
p1
I1
sVcz6fa13
p2
I1
s.(dp0
Vcz6r2p2
p1
I1
sVcyhtwr3
p2
I1
s.(dp0
Vcz72in1
p1
I1
sVcyhtwr3
p2
I1
s.(dp0
Vcy(dp0
Vdtifi23
p1
I1
sVcyhtwr3
p2
I1
s.