(dp0
Vd01zbpd
p1
I1
sVdabuogg
p2
I1
sVczifpw7
p3
I1
sVd74sx2s
p4
I3
sVd0d7uz1
p5
I1
sVda23dvs
p6
I1
sVd3fn9hi
p7
I1
sVdcgcikd
p8
I1
sVda2boaf
p9
I1
sVdfpa2xd
p10
I1
sVd0pabqy
p11
I1
sVdbpj5c8
p12
I1
sVda2eehu
p13
I1
sVdrg7big
p14
I1
sVd0kvymq
p15
I1
sVdbifv6u
p16
I1
sVdhjmfl8
p17
I1
sVdizi3pd
p18
I1
sVdcpvyn4
p19
I1
sVdgmmlcm
p20
I1
sVdn4q7mz
p21
I1
sVd3elgo3
p22
I1
s.