(dp0
Vdn72zmu
p1
I1
sVdnbn81g
p2
I1
sVddhbtww
p3
I1
sVdhdvbcr
p4
I3
sVd7xswdz
p5
I1
sVdqpqgxk
p6
I1
sVd7x63pk
p7
I1
sVdjuefbj
p8
I1
sVd4h7r7g
p9
I1
sVdg5bliq
p10
I1
sVdn6t7t0
p11
I4
sVdojc1h2
p12
I1
sVd1zrs8u
p13
I1
sVdfqsenq
p14
I2
sVdg57saz
p15
I1
sVdfgsvb4
p16
I1
sVdmf2dkd
p17
I1
sVdho44xw
p18
I1
sVdg5b2tf
p19
I3
sVcyr3ezr
p20
I1
sVcz146nc
p21
I1
sVd1zt48w
p22
I1
sVd0iy60x
p23
I1
sVddhjtop
p24
I1
sVdjdhvjd
p25
I1
sVcytiuca
p26
I1
sVdfchfmp
p27
I1
sVdp1yjqu
p28
I1
sVd0chyvh
p29
I1
sVdh7wtpp
p30
I1
sVdiyce3v
p31
I1
sVd2380rx
p32
I1
sVdcnjzbc
p33
I2
sVdgybuby
p34
I4
sVddhco1j
p35
I1
sVdr5ybmy
p36
I1
sVd3t47zd
p37
I1
s.