(dp0
Vdjy39p2
p1
I1
sVdfwik1v
p2
I3
sVdfwfu2q
p3
I2
sVdfwhb79
p4
I1
sVdjd1evu
p5
I1
sVdsuuvy8
p6
I2
sVdfwylbp
p7
I4
sVd4lih6i
p8
I1
sVd6kctw9
p9
I1
sVdjyahto
p10
I1
sVcyxp7vx
p11
I1
sVcyknp15
p12
I1
sVd4lu67v
p13
I1
sVd3uwa9b
p14
I1
sVdf2kwdj
p15
I1
sVdfc5k5d
p16
I1
sVd5swy54
p17
I1
sVd9idbze
p18
I1
sVdn14fqj
p19
I4
sVd5y41ab
p20
I1
sVd70s2cc
p21
I1
sVdb88763
p22
I1
sVdneb4dr
p23
I1
sVdi296ij
p24
I1
sVdd9of66
p25
I1
sVczrzz06
p26
I2
sVd2ymnfc
p27
I1
sVds4lbwg
p28
I1
sVdf83afo
p29
I1
sVd6q2qar
p30
I1
sVd9i6cju
p31
I1
sVd9icbrm
p32
I3
sVd4ljlcr
p33
I1
s.