(dp0
Vd9xigtz
p1
I1
sVdclzjaz
p2
I2
sVd17t529
p3
I1
sVdbz7uab
p4
I2
sVdn7qphg
p5
I1
sVd17zvco
p6
I1
sVdepenhh
p7
I2
sVdps3swv
p8
I1
sVdmhaiqw
p9
I1
sVd6fd2r7
p10
I1
sVd5vnz7x
p11
I2
sVcyvpidb
p12
I1
sVd2544pz
p13
I1
sVczd6zqr
p14
I1
sVd595qrt
p15
I1
sVd1ad7wq
p16
I2
sVdeo5nh7
p17
I8
s.