(dp0
Vczgdwbt
p1
I1
s.(dp0
Vczgdwbt
p1
I1
sVd0fbo10
p2
I1
s.(dp0
Vd0lmpve
p1
I1
sVczgdwbt
p2
I1
s.(dp0
Vd0lvu2b
p1
I1
sVczgdwbt
p2
I1
s.(dp0
Vd1zcjif
p1
I1
sVczgdwbt
p2
I1
s.(dp0
Vd1zcjif
p1
I1
sVczgdwbt
p2
I1
s.(dp0
Vd3djxg5
p1
I1
sVczgdwbt
p2
I1
s.(dp0
Vd3i924v
p1
I1
sVczgdwbt
p2
I1
s.(dp0
Vczgdwbt
p1
I1
sVd4d4cos
p2
I1
s.(dp0
Vd5eb5x2
p1
I1
sVczgdwbt
p2
I1
s.(dp0
Vczgdwbt
p1
I1
sVd73ua4d
p2
I1
s.(dp0
Vczgdwbt
p1
I1
sVd82f99b
p2
I1
s.(dp0
Vdb51uwo
p1
I1
sVczgdwbt
p2
I1
s.(dp0
Vdckskdw
p1
I1
sVczgdwbt
p2
I1
s.(dp0
Vde7dbrs
p1
I1
sVczgdwbt
p2
I1
s.(dp0
Vdgk4k8y
p1
I1
sVczgdwbt
p2
I1
s.(dp0
Vdglen0v
p1
I1
sVczgdwbt
p2
I1
s.(dp0
Vdh8wjdy
p1
I1
sVczgdwbt
p2
I1
s.(dp0
Vczgdwbt
p1
I1
sVdifjbi6
p2
I1
s.(dp0
Vdkygyep
p1
I1
sVczgdwbt
p2
I1
s.(dp0
Vczgdwbt
p1
I1
sVdp3sxwk
p2
I1
s.(dp0
Vdpua422
p1
I1
sVczgdwbt
p2
I1
s.(dp0
Vczgdwbt
p1
I1
sVdpv3syo
p2
I1
s.