(dp0
Vcyypm81
p1
I1
sVdh158ja
p2
I1
sVd2g9zc8
p3
I1
sVd3zlf0k
p4
I1
sVd37gjlf
p5
I2
sVd6iwweg
p6
I1
sVd7e6izl
p7
I2
sVdhqe6zq
p8
I1
sVd4052oh
p9
I2
sVd53j4b2
p10
I1
sVddifdia
p11
I1
sVdekx10i
p12
I1
sVdc8fxt0
p13
I1
sVdfwkppd
p14
I1
sVcz41ys5
p15
I1
sVdoshezo
p16
I2
sVcyqnps3
p17
I1
sVd65qfgq
p18
I1
sVd1ykjoa
p19
I1
sVd1xf62y
p20
I1
sVd0frmac
p21
I1
sVd3t0agv
p22
I1
sVdji2nf2
p23
I1
sVdbxbg6o
p24
I1
sVczxzhum
p25
I1
sVd7ekjog
p26
I1
sVd65qeja
p27
I1
sVd9zxhy7
p28
I1
sVcyq5luv
p29
I1
sVd0hjryk
p30
I1
sVdkajnll
p31
I1
sVdia34h1
p32
I1
sVd7ea86k
p33
I1
s.