(dp0
Vczizez6
p1
I1
s.(dp0
Vczizez6
p1
I1
sVd0m3sdf
p2
I1
s.(dp0
Vczizez6
p1
I1
sVd19xwqp
p2
I1
s.(dp0
Vczizez6
p1
I1
sVda2jqrn
p2
I1
s.(dp0
Vczizez6
p1
I1
sVde95nu2
p2
I1
s.(dp0
Vczizez6
p1
I1
sVdhd4p8k
p2
I1
s.(dp0
Vczizez6
p1
I1
sVdid3dbn
p2
I1
s.