(dp0
Vcyyhm8e
p1
I1
s.(dp0
Vd086bzp
p1
I1
sVcyyhm8e
p2
I1
s.(dp0
Vd086bzp
p1
I1
sVcyyhm8e
p2
I1
s.(dp0
Vd08ecgr
p1
I1
sVcyyhm8e
p2
I1
s.(dp0
Vd1c34eh
p1
I1
sVcyyhm8e
p2
I1
s.(dp0
Vd1zjkki
p1
I1
sVcyyhm8e
p2
I1
s.(dp0
Vd2nrft3
p1
I1
sVcyyhm8e
p2
I1
s.(dp0
Vd2nt0kx
p1
I1
sVcyyhm8e
p2
I1
s.(dp0
Vd3ceax5
p1
I1
sVcyyhm8e
p2
I1
s.(dp0
Vd6vov2b
p1
I1
sVcyyhm8e
p2
I1
s.(dp0
Vd6vy7u9
p1
I1
sVcyyhm8e
p2
I1
s.(dp0
Vd6vy7u9
p1
I1
sVcyyhm8e
p2
I1
s.(dp0
Vd6vy7u9
p1
I1
sVcyyhm8e
p2
I1
s.(dp0
Vd6vy7u9
p1
I1
sVcyyhm8e
p2
I1
s.(dp0
Vd6vy7u9
p1
I1
sVcyyhm8e
p2
I1
s.(dp0
Vd6vy7u9
p1
I1
sVcyyhm8e
p2
I1
s.(dp0
Vd6vy7u9
p1
I1
sVcyyhm8e
p2
I1
s.(dp0
Vd6vy7u9
p1
I1
sVcyyhm8e
p2
I1
s.(dp0
Vd6vy7u9
p1
I1
sVcyyhm8e
p2
I1
s.(dp0
Vda7pk9b
p1
I1
sVcyyhm8e
p2
I1
s.(dp0
Vdbivnhl
p1
I1
sVcyyhm8e
p2
I1
s.(dp0
Vddlpzyd
p1
I1
sVcyyhm8e
p2
I1
s.(dp0
Vdf19p3f
p1
I1
sVcyyhm8e
p2
I1
s.(dp0
Vdhvukzi
p1
I1
sVcyyhm8e
p2
I1
s.(dp0
Vdit0s0g
p1
I1
sVcyyhm8e
p2
I1
s.(dp0
Vdit0s0g
p1
I1
sVcyyhm8e
p2
I1
s.(dp0
Vdn457lk
p1
I1
sVcyyhm8e
p2
I1
s.(dp0
Vdoj400j
p1
I1
sVcyyhm8e
p2
I1
s.(dp0
Vdoj400j
p1
I1
sVcyyhm8e
p2
I1
s.(dp0
Vdoj400j
p1
I1
sVcyyhm8e
p2
I1
s.(dp0
Vcyyhm8e
p1
I1
sVdrmpp2e
p2
I1
s.(dp0
Vcyyhm8e
p1
I1
sVdrmpp2e
p2
I1
s.(dp0
Vdsf84qk
p1
I1
sVcyyhm8e
p2
I1
s.