(dp0
Vdiinvs9
p1
I1
sVdd6gzfv
p2
I1
sVd3weyh0
p3
I1
sVdsj3u1h
p4
I1
sVdcly5hg
p5
I1
sVdtfbux1
p6
I1
sVdaudmnt
p7
I1
sVd88xnwt
p8
I1
sVd0rt0iy
p9
I1
sVdsxusna
p10
I1
sVd727lmk
p11
I1
sVd93fz97
p12
I1
sVd3d6yr5
p13
I3
sVczstz4t
p14
I1
sVd67x5dg
p15
I1
sVdjsl6au
p16
I1
sVdi56e3v
p17
I1
sVd2md8qa
p18
I1
sVdmgtfvo
p19
I2
sVdajd7d7
p20
I1
sVd2zztwg
p21
I1
sVczy8dri
p22
I1
sVdtb6fo7
p23
I1
sVd9c28u4
p24
I1
sVd998fk0
p25
I1
sVdgyir3q
p26
I1
sVdp2xv1k
p27
I1
sVcz7nvkr
p28
I1
sVdgwi3n0
p29
I1
sVd8nigpa
p30
I1
sVde9w34f
p31
I1
sVdqbu03o
p32
I1
sVczzl5ip
p33
I1
sVdifjuos
p34
I1
sVd88rsgw
p35
I1
sVdryvt3i
p36
I1
sVczkrval
p37
I1
sVdb8q02r
p38
I1
sVdb0ari0
p39
I1
sVd2edkqx
p40
I1
sVdpz6ctv
p41
I1
sVd2aryic
p42
I1
sVd9qw8gh
p43
I1
sVdqg7i4c
p44
I1
sVddpxqdq
p45
I2
sVdfhkk10
p46
I1
sVdse4fbj
p47
I1
sVd6idtuq
p48
I1
sVdhj4fvc
p49
I1
sVdncfiur
p50
I1
sVdr0oxdr
p51
I1
sVdt9gh8t
p52
I1
sVd8dyreu
p53
I1
sVdt0vldt
p54
I1
sVdgnrzm4
p55
I1
sVd7sgkvj
p56
I2
sVcyjcauw
p57
I1
sVd2bg8ys
p58
I1
sVdrjr7rc
p59
I1
sVd3b6qwx
p60
I1
sVdbhoisc
p61
I1
sVd1edcnx
p62
I1
sVd1n4prh
p63
I1
sVd9ofvhs
p64
I1
sVd566sbc
p65
I1
sVd6eopyq
p66
I1
sVczj9w3s
p67
I1
sVdndett9
p68
I1
sVdcezjzd
p69
I1
sVdaa36f6
p70
I1
sVdgsjh4z
p71
I1
sVdd30bgf
p72
I1
sVdcbji04
p73
I1
sVczf1hys
p74
I1
sVd8sy9i3
p75
I1
sVdi5liof
p76
I1
sVdmuer0r
p77
I1
sVdcwazwf
p78
I1
sVd0ixirq
p79
I1
sVd9z7xo9
p80
I1
sVd04dmwj
p81
I1
sVdet8twf
p82
I1
sVd2yalk6
p83
I1
sVd07yunq
p84
I1
sVdfs2ioz
p85
I1
sVdmolao7
p86
I1
sVda71x5i
p87
I1
sVd1x7hpz
p88
I1
sVdoiyjpx
p89
I1
sVczfotn9
p90
I1
sVd9zli5i
p91
I2
sVdbu4u7y
p92
I1
sVdqsjzxd
p93
I1
sVdd0b1zy
p94
I1
sVdavctxw
p95
I1
sVczbq05e
p96
I1
sVdbp4tsm
p97
I2
sVddb3kjm
p98
I1
sVda5tdty
p99
I1
sVd7obuio
p100
I1
sVd8ec3gf
p101
I1
sVdr8ncyf
p102
I1
sVdbrtfoy
p103
I1
sVd9okz6c
p104
I1
sVdeii845
p105
I1
sVd6tk2et
p106
I1
sVdcqpq3m
p107
I1
sVdienluh
p108
I1
sVdn45poa
p109
I1
sVdgs0bn1
p110
I1
sVdmsssnh
p111
I1
sVd60dvbe
p112
I1
sVdeu7mnr
p113
I1
sVds9ekg4
p114
I1
sVd28qou1
p115
I1
sVdadblal
p116
I1
sVd4r3byo
p117
I1
sVdmnked2
p118
I1
sVd4irudy
p119
I1
sVczca96f
p120
I1
sVd2gm6sv
p121
I1
sVd5xpsh6
p122
I1
sVd2qmeew
p123
I1
sVd622x9q
p124
I1
sVdq9bty4
p125
I1
sVd6x4udb
p126
I1
sVdgj2xdc
p127
I1
sVd6g8p5u
p128
I1
sVde1wefy
p129
I1
sVd3df8i0
p130
I1
sVcyieljc
p131
I1
sVd9806ku
p132
I1
sVdcphyce
p133
I1
sVd746m6z
p134
I1
sVd5zj4vs
p135
I1
sVddctgpi
p136
I1
sVd8t10wr
p137
I1
sVd9anwpm
p138
I1
sVd4kgz6o
p139
I1
sVdsmwdld
p140
I1
sVdkgodw6
p141
I1
sVdassntq
p142
I1
sVddcw47i
p143
I1
sVdoxt7z6
p144
I1
sVd31xa3d
p145
I1
sVd3fi3dp
p146
I1
sVd8oqyp5
p147
I1
sVdp7zl4v
p148
I1
sVd0c0itq
p149
I1
sVd14utlu
p150
I1
sVdhig2pz
p151
I1
sVd18pjmq
p152
I1
sVd363paz
p153
I1
sVd58h31h
p154
I1
sVdbesqw8
p155
I1
sVd3cdjwl
p156
I1
sVd5pudmg
p157
I1
sVdf4btg2
p158
I1
sVdfhsgqf
p159
I1
sVddv5s2h
p160
I1
sVczf4lpq
p161
I1
sVdcu82mc
p162
I1
sVd5t7c53
p163
I1
sVd5dos71
p164
I1
sVdnxvw03
p165
I1
sVdanzoa8
p166
I1
sVd474g3c
p167
I1
sVd5lac02
p168
I1
sVdes76zu
p169
I1
sVdhl9v1c
p170
I1
sVdd3o05m
p171
I1
sVd2orcvu
p172
I1
sVdeuu8ap
p173
I1
sVdc8olml
p174
I1
sVdc5fb6l
p175
I1
sVdsb2t10
p176
I1
sVdda3kgh
p177
I1
sVd70lltd
p178
I1
sVd8iw6hm
p179
I1
sVdn2aunu
p180
I1
sVd8uwp5w
p181
I1
sVdctlog1
p182
I1
sVdffzl5e
p183
I1
sVd09r3nm
p184
I1
sVdqdb731
p185
I1
sVd5cin1c
p186
I1
sVd2b8y8v
p187
I1
sVdr0wn9l
p188
I1
sVd8ujxb5
p189
I1
sVd047fnh
p190
I1
sVdn8tmlr
p191
I1
sVdggjwxw
p192
I2
sVd201yje
p193
I1
sVd37huzy
p194
I1
sVdo6qljv
p195
I1
sVdj5cbrd
p196
I1
sVdbb3x5p
p197
I1
sVd6m46c6
p198
I1
sVd7witx0
p199
I1
sVd9uc9g3
p200
I1
sVdbxk2y0
p201
I1
sVdsm3a5w
p202
I1
sVdb1tcg7
p203
I1
sVdi088ah
p204
I1
sVddyez9z
p205
I1
sVdegjo4y
p206
I1
sVd17sofk
p207
I1
sVdseth3y
p208
I1
sVddk84bs
p209
I1
sVdhypewb
p210
I1
sVdqu9ldh
p211
I1
sVdpxklmf
p212
I1
sVd1yudic
p213
I1
sVdaajnve
p214
I1
sVda2jl0q
p215
I1
sVdbk0s3p
p216
I1
sVd5avp52
p217
I1
sVd7t453t
p218
I1
sVdnu0a6v
p219
I1
sVdafkhal
p220
I1
sVdhxkdz5
p221
I1
sVdjrqj5w
p222
I1
sVd0es8l0
p223
I1
sVd2a1wvb
p224
I1
sVdgwqnju
p225
I1
sVdpefs2z
p226
I1
sVdio114p
p227
I1
sVdmfkj3f
p228
I1
sVd4szkpn
p229
I1
sVdblk345
p230
I1
sVdcwxktl
p231
I1
sVd782x61
p232
I1
sVdju3tzr
p233
I1
sVd893k0n
p234
I1
sVd2ts93g
p235
I1
sVd1wcskx
p236
I1
sVd7svcpm
p237
I1
sVdceilxz
p238
I1
sVdfty91k
p239
I1
sVdsotn72
p240
I1
sVdngmwzf
p241
I1
sVdcnmphb
p242
I1
sVdk4j9zo
p243
I1
sVdfe9ql7
p244
I1
sVd2byyt8
p245
I1
sVd9fzquu
p246
I1
sVd6hrooe
p247
I1
sVd66isvp
p248
I1
sVd0gwlss
p249
I1
sVdijie1u
p250
I1
sVd0rtmq3
p251
I1
sVd45hw3q
p252
I1
sVdfopl86
p253
I1
sVdgr74ff
p254
I1
sVdcx889e
p255
I1
sVd6dac44
p256
I1
sVd7urjjr
p257
I1
sVd9nc71v
p258
I1
sVdfeanah
p259
I1
sVd4unney
p260
I2
sVdnhzi62
p261
I1
sVd61ecqq
p262
I1
sVd83w46h
p263
I1
sVdbaxm2o
p264
I1
sVd1wdkka
p265
I1
sVd4ta1u0
p266
I1
sVczhw1ng
p267
I1
sVd8gc56w
p268
I1
sVdc3juoi
p269
I1
sVdnms78g
p270
I1
sVd71ymua
p271
I1
sVd4t4ccn
p272
I1
sVdd36joy
p273
I1
sVdhx6zgz
p274
I1
sVczby6iq
p275
I1
sVdfiufao
p276
I1
sVdcr4csr
p277
I1
sVdq35fq8
p278
I1
sVczxx6pe
p279
I1
sVczutf6v
p280
I1
sVdffax0b
p281
I1
sVdihd0ud
p282
I1
sVd6hkb7z
p283
I1
sVdandzrh
p284
I1
sVdtfu8zk
p285
I1
sVd77usyz
p286
I1
sVdd9wy2n
p287
I1
sVd54vw4z
p288
I1
sVd4vohtu
p289
I1
sVd0vav22
p290
I1
sVdkdno1j
p291
I1
sVd4n1czm
p292
I1
sVdgi6gri
p293
I1
sVd8nrojg
p294
I1
sVd1f97n3
p295
I1
sVd6iqx1l
p296
I2
sVd792fhi
p297
I2
sVd0tel5c
p298
I1
sVd5fvin5
p299
I1
sVdfyg7so
p300
I1
sVd0xi47y
p301
I1
sVd1o1nj2
p302
I1
sVda1pvz2
p303
I1
sVdt4pu0j
p304
I1
sVdj6n3vn
p305
I1
sVdjpwoqh
p306
I1
sVd9i5dzb
p307
I1
sVda6xxjp
p308
I1
sVda03g02
p309
I1
sVdjapezj
p310
I2
sVd225199
p311
I1
sVd42avfr
p312
I2
sVdhje7vv
p313
I1
sVd3i9exg
p314
I1
sVdna21nh
p315
I1
sVdrlxx1p
p316
I1
sVdgaamxg
p317
I1
sVdi81ck2
p318
I1
sVdg4vr28
p319
I1
sVdt3ot36
p320
I1
sVdq7inbm
p321
I1
sVddjcp7w
p322
I1
sVd4bf4mi
p323
I1
sVdp1ddrm
p324
I2
sVd0939um
p325
I1
sVczds0ft
p326
I2
sVd7ga8q0
p327
I1
sVd1bmjuo
p328
I1
sVdhao5bd
p329
I1
sVd7kil08
p330
I1
sVcypsyjv
p331
I2
sVdrufulg
p332
I1
sVcyw2egs
p333
I1
sVd4gr1r6
p334
I1
sVddea7s7
p335
I1
sVczxxgpd
p336
I1
sVdjjgoc1
p337
I1
sVdbv4n6k
p338
I1
sVdqx0h4h
p339
I2
sVd7143qi
p340
I1
sVd01ngt4
p341
I1
sVd00nlgp
p342
I1
sVd5l7e6e
p343
I1
sVd4b5sd1
p344
I1
sVdmtu06d
p345
I1
sVd5muuq0
p346
I1
sVddgv0ag
p347
I1
sVcz8e7mg
p348
I1
sVdj2uwgr
p349
I1
sVd7x5mk4
p350
I1
sVd7b1cow
p351
I1
sVd73tcsh
p352
I1
sVdr4b2kx
p353
I1
sVd319m92
p354
I1
sVdpf2dnr
p355
I1
sVdirkvme
p356
I1
sVdrnank3
p357
I1
sVd12p4vu
p358
I1
sVdb0hi8j
p359
I1
sVczhqnlb
p360
I1
sVdgl5czg
p361
I1
sVdf5cw6h
p362
I1
sVdtc9d3f
p363
I1
sVdru4elr
p364
I1
sVd5wmx4h
p365
I6
sVczqr4rj
p366
I1
sVddihq5r
p367
I1
sVd2c06oe
p368
I1
sVd5ly3wa
p369
I1
sVddc2axv
p370
I1
sVd7z0w6z
p371
I1
sVdgb8zsi
p372
I1
sVdb6i8se
p373
I1
sVdcnf8q7
p374
I1
sVczlz04a
p375
I1
sVdbh2it9
p376
I1
sVdptjlol
p377
I1
sVd8mm56w
p378
I1
sVd1pj7o1
p379
I1
sVdihkvly
p380
I1
sVdqar6b6
p381
I1
sVdrumzll
p382
I1
sVd0rfdhi
p383
I1
sVdcvt9zb
p384
I1
sVddgzvqw
p385
I1
sVdrv9myp
p386
I1
sVdp36g4n
p387
I1
sVdro9349
p388
I1
sVdehmr6k
p389
I1
sVd3b63fn
p390
I1
sVd28etdd
p391
I1
sVdjhiwr4
p392
I2
sVcyqfef1
p393
I1
sVdpb2zf0
p394
I1
sVdnw0gvs
p395
I1
sVdhl1c7s
p396
I1
sVd45gflk
p397
I1
sVdelk04x
p398
I1
sVdobl03l
p399
I1
sVda36xhc
p400
I1
sVcz7g260
p401
I1
sVddvk3n2
p402
I1
sVd2kirah
p403
I1
sVd0r69lm
p404
I1
sVdgrqmpc
p405
I1
sVdhggpiv
p406
I1
sVd8j18wn
p407
I1
sVddrk87f
p408
I1
sVd33vxjd
p409
I1
sVddwil69
p410
I1
sVd5np3tv
p411
I1
sVdk21dhz
p412
I1
sVdepnnzn
p413
I1
sVdoqk5s4
p414
I1
sVd5anll9
p415
I1
sVdakdalr
p416
I1
sVdesx7qa
p417
I1
sVd3zu6vg
p418
I1
sVcz7jojo
p419
I1
sVdo82cic
p420
I1
sVd76c5bb
p421
I1
sVd829p85
p422
I1
sVdpoxa5r
p423
I1
sVd4jd4zf
p424
I1
sVdn0i0qi
p425
I2
sVdd1sfbd
p426
I2
sVdrfva5j
p427
I1
sVd0wa86u
p428
I1
sVds06o45
p429
I1
sVczgheml
p430
I1
sVdkb6i86
p431
I1
sVdbs29wy
p432
I1
sVdhqnehg
p433
I1
sVd50iskv
p434
I1
sVdg0n958
p435
I1
sVd42xk5n
p436
I1
sVd4xt7wp
p437
I1
sVd36cphu
p438
I1
sVdgrsnmk
p439
I2
sVd3vs1ey
p440
I1
sVdep8xnu
p441
I1
sVdd5cl2i
p442
I1
sVd1rduqr
p443
I1
sVcyo670b
p444
I2
sVdoarp6f
p445
I1
sVd5n5evt
p446
I1
sVdc1k8vx
p447
I1
sVdk4a292
p448
I1
sVd0gr5bf
p449
I1
sVdjc8d53
p450
I1
sVd3yf48u
p451
I1
sVdtazicm
p452
I1
sVdrqwhxm
p453
I1
sVczgq74o
p454
I1
sVd6bxd8p
p455
I1
sVdcw9kpx
p456
I1
sVd2nht9w
p457
I1
sVdkj4lxg
p458
I1
sVd7529m3
p459
I2
sVdaaihat
p460
I1
sVdrw7i33
p461
I1
sVdrpv1a4
p462
I1
sVdghps1r
p463
I1
sVdfbjss0
p464
I1
sVda7zqto
p465
I1
sVdcxcwa2
p466
I1
sVdj3vue0
p467
I1
sVddeeaki
p468
I1
sVdhfslir
p469
I1
sVd45zmd8
p470
I1
sVd80an3e
p471
I1
sVdosrywt
p472
I1
sVd1qlf94
p473
I1
sVdbmyhyk
p474
I2
sVdoj2ly0
p475
I1
sVde1wr4u
p476
I1
sVdepxcmx
p477
I1
sVd9vnq83
p478
I1
sVdjpvlxg
p479
I1
sVdq5ugvf
p480
I1
sVds16uaw
p481
I1
sVdqjvvbl
p482
I1
sVd8jvz59
p483
I1
sVdhwrhj3
p484
I1
sVd4up4a0
p485
I1
sVd4vbeh8
p486
I1
sVd0joldf
p487
I1
sVd4rxd1y
p488
I1
sVdf68jgt
p489
I1
sVdc210s3
p490
I1
sVdpftw89
p491
I1
sVdn4o8x8
p492
I1
sVdj5p04a
p493
I1
sVdbnngh9
p494
I1
sVdikdx1v
p495
I1
sVde2p8oo
p496
I1
sVdcuicwe
p497
I1
sVd4z7tdl
p498
I1
sVdmmlrbj
p499
I1
sVdfgqryo
p500
I1
sVdfnibj7
p501
I1
sVd235jwt
p502
I1
sVd3ldjbr
p503
I1
sVdkbto02
p504
I1
sVdb1c1f1
p505
I1
sVde5ruha
p506
I1
sVd0hzi4m
p507
I1
sVd60b9k1
p508
I1
sVd28elog
p509
I1
sVdbqo5jq
p510
I1
sVdc4br6h
p511
I1
sVdf4n9vk
p512
I1
sVdbi3sdp
p513
I1
sVdbdoqd2
p514
I1
sVd73a7d0
p515
I1
sVd83wvzz
p516
I2
sVdd84t5k
p517
I1
sVczexlo8
p518
I1
sVdf587r5
p519
I1
sVdbeizwy
p520
I1
sVdbjd7n8
p521
I1
sVdnvszrg
p522
I1
sVdjqi69z
p523
I1
sVdd5xjxz
p524
I1
sVdj3cfz0
p525
I1
sVd2cmzhx
p526
I1
sVd9ftoyz
p527
I1
sVda60jd8
p528
I1
sVdnodkpc
p529
I1
sVd0skgeb
p530
I1
sVdrkfh8r
p531
I1
sVd6kfqrv
p532
I1
sVcytj0fq
p533
I1
sVd1brho6
p534
I1
sVd0p9dwm
p535
I1
sVd96u64u
p536
I1
sVdmvouap
p537
I1
sVdpyu1zt
p538
I1
sVd70pmso
p539
I1
sVcyw4qwd
p540
I1
sVd2p3qs5
p541
I1
sVdhzl8p6
p542
I2
sVdbbocaz
p543
I1
sVd3lgfi7
p544
I1
sVd9hinx3
p545
I1
sVd81cb9t
p546
I1
sVddyjoos
p547
I2
sVcyj3sg6
p548
I1
sVd5i9y0b
p549
I1
sVd4ob86v
p550
I1
sVd0htna3
p551
I1
sVd1wxv0o
p552
I1
sVdsqo426
p553
I1
sVdih2ux3
p554
I1
sVd1rkv62
p555
I1
sVdk9trep
p556
I1
sVd9dflod
p557
I1
sVcyq00j4
p558
I1
sVdcmhd4e
p559
I1
sVdplyqlq
p560
I1
sVdjwnrwb
p561
I1
sVdtb0x62
p562
I1
sVd9l86ap
p563
I1
sVdig21ol
p564
I1
sVdeinlb5
p565
I1
sVd7bfj8c
p566
I1
sVd5wdt3n
p567
I1
sVdk3984t
p568
I1
sVdk4ueea
p569
I1
sVd32btyh
p570
I1
sVdip2o0j
p571
I1
sVdflzxx8
p572
I1
sVd079shy
p573
I1
sVdavbnpm
p574
I1
sVd1brb9d
p575
I1
sVdgwj77j
p576
I1
sVd83xu0g
p577
I1
sVd655um9
p578
I1
sVd0frcsp
p579
I1
sVdhjv8y3
p580
I1
sVdbaqq7h
p581
I1
sVdgi5ap5
p582
I1
sVdqnkfde
p583
I1
sVd5vl4l8
p584
I1
sVdgd7g4v
p585
I1
sVd7vwdq9
p586
I1
sVdgdynez
p587
I1
sVdfjxts7
p588
I1
sVdo64u6h
p589
I1
sVdqeqe1d
p590
I1
sVd6z9umj
p591
I1
sVd655tyr
p592
I1
sVdoyikym
p593
I1
sVd2cd5au
p594
I1
sVdtadcqq
p595
I1
sVd4hnvk7
p596
I1
sVdgne2pu
p597
I2
sVdfzwxi5
p598
I1
sVd7q57n6
p599
I1
sVdcr54on
p600
I1
sVdqmwwjs
p601
I1
sVd8cp43c
p602
I1
sVdqumy88
p603
I1
sVd7718sz
p604
I1
sVdd0o1na
p605
I1
sVdrz0h1w
p606
I1
sVdi3u9hq
p607
I1
sVd9moo05
p608
I1
sVdbt1qb6
p609
I1
sVdjgfjw3
p610
I1
sVdmv93ud
p611
I1
sVdrq1ldz
p612
I1
sVd3fgxic
p613
I1
sVdh8evog
p614
I1
sVd1p18y6
p615
I1
sVdms3dp4
p616
I1
sVdepv46i
p617
I1
sVdc8ogpa
p618
I1
sVd4wd8jd
p619
I1
sVdqvpye7
p620
I1
sVdsmflpr
p621
I1
sVcyv907j
p622
I1
sVdbkz6pp
p623
I1
sVd0eiuii
p624
I1
sVdqbsub5
p625
I1
sVdfjq7gj
p626
I1
sVdinjv8s
p627
I1
sVd1m5kcm
p628
I1
sVdevsznp
p629
I1
sVddmdsfs
p630
I1
sVcz2jzs7
p631
I1
sVdqmuqz0
p632
I1
sVder2tkm
p633
I1
sVdd1v0lg
p634
I2
sVd747a46
p635
I1
sVdh9d8lz
p636
I1
sVd3i77er
p637
I1
sVd4ks18j
p638
I1
sVdjfn2zf
p639
I1
sVdp3xu5j
p640
I1
sVdo5wsnx
p641
I1
sVd795ovj
p642
I1
sVdfk7vc4
p643
I1
sVd0e86c2
p644
I1
sVd5ynefv
p645
I1
sVdgrulgi
p646
I1
sVd5j7ji2
p647
I1
sVd7qeufh
p648
I1
sVdd8sjzq
p649
I1
sVdkrkl9j
p650
I1
sVdfmp0kd
p651
I1
sVd98zoal
p652
I1
sVdezq0i4
p653
I1
sVdjw7n8r
p654
I1
sVdayljqy
p655
I1
sVd07bs9l
p656
I1
sVdchkbx8
p657
I1
sVdnli633
p658
I1
sVd8m8l45
p659
I1
sVd0cc1ij
p660
I1
sVdo9ix6o
p661
I1
sVd14q5bi
p662
I1
sVd18rd2o
p663
I1
sVdtigezj
p664
I1
sVdq8mduz
p665
I1
sVdhk1bqa
p666
I1
sVd4umx3l
p667
I1
sVd7qk917
p668
I1
sVd043bh2
p669
I1
sVd544wbj
p670
I1
sVd0l32n2
p671
I1
sVd3gkbu2
p672
I1
sVdco5l0o
p673
I1
sVdd335ay
p674
I1
sVdr1wab7
p675
I1
sVdgoeek7
p676
I1
sVd9lisei
p677
I1
sVdbho0gy
p678
I1
sVdnenh2e
p679
I1
sVd8hugvn
p680
I1
sVd8hm615
p681
I1
sVdg5oinn
p682
I1
sVd2wn9i2
p683
I1
sVd2n7sfn
p684
I1
sVdgiqmcr
p685
I1
sVdqusmtz
p686
I1
sVd06de7a
p687
I1
sVdefpuyq
p688
I1
sVcztruu8
p689
I1
sVdr6vu7b
p690
I1
sVd2551l2
p691
I1
sVddpvuto
p692
I1
sVddoc7l8
p693
I1
sVd1bg175
p694
I2
sVddh2vui
p695
I1
sVd91wzdb
p696
I1
sVdtggc65
p697
I1
sVdrjs1ew
p698
I1
sVdaaylmu
p699
I1
sVcz7e5hh
p700
I1
sVdi8slp9
p701
I1
sVd9jbmc1
p702
I1
sVd1zm5kz
p703
I1
sVczw1uat
p704
I2
sVd0ihvct
p705
I1
sVdpm54vk
p706
I1
sVd37bdoc
p707
I1
sVd7vt511
p708
I1
sVdst8ft3
p709
I1
sVd2tvtex
p710
I1
sVd9pdol5
p711
I1
sVd8l7bo0
p712
I1
sVdsatk2y
p713
I1
sVdksucyz
p714
I1
sVd04d46s
p715
I1
sVdno9vc1
p716
I1
sVd940be5
p717
I1
sVdgqir0g
p718
I1
sVd6p8d00
p719
I1
sVd036hcq
p720
I1
sVd2gnwmu
p721
I1
sVdjmhw9a
p722
I1
sVda64rp4
p723
I1
sVcyj7ney
p724
I1
sVdbgyw1g
p725
I1
sVdgkp1m8
p726
I1
sVd40r0iz
p727
I2
sVdcf74mo
p728
I1
sVd6ic41x
p729
I3
sVdgneq0n
p730
I1
sVdj8lpx2
p731
I1
sVdck6iwc
p732
I1
sVdro7anz
p733
I1
sVd2inxin
p734
I1
sVdb6np9y
p735
I1
sVd87m3yj
p736
I1
sVcz4imp4
p737
I1
sVdmj1pfm
p738
I1
sVd25wxif
p739
I1
sVd4upr2s
p740
I1
sVdf4gq18
p741
I1
sVdk17hnk
p742
I1
sVd0jab5g
p743
I1
sVd580ccc
p744
I1
sVd24bz47
p745
I1
sVdmfklmi
p746
I1
sVdqawndh
p747
I1
sVdqznk2m
p748
I4
sVczrzgj2
p749
I1
sVdf99rih
p750
I1
sVd6e7iv2
p751
I1
sVdpny5bb
p752
I1
sVdd657tp
p753
I1
sVd4oas6n
p754
I1
sVda6v4fx
p755
I2
sVdiv324v
p756
I2
sVd6nviyn
p757
I1
sVdgj7wzj
p758
I1
sVd918rsq
p759
I1
sVdcflgcj
p760
I1
sVdhv1488
p761
I1
sVdjeekzo
p762
I1
sVdonq6i3
p763
I1
sVdagktu0
p764
I1
sVcyqd7y1
p765
I1
sVdottkif
p766
I1
sVdbvwq9v
p767
I1
sVdd3d09f
p768
I1
sVdjlasm7
p769
I1
sVd2ttrsm
p770
I1
sVdqk2br4
p771
I1
sVdmsuxh9
p772
I1
sVd88ui1x
p773
I1
sVdrudkkl
p774
I1
sVd20kjlc
p775
I1
sVd5wvt36
p776
I1
sVcyv9sep
p777
I1
sVdoe15az
p778
I1
sVd6knlzr
p779
I1
sVd2qg1fh
p780
I1
sVdjk7tag
p781
I1
sVdfp0pqc
p782
I1
sVdnm1bbl
p783
I1
sVdsjeqfv
p784
I1
sVdffm4dd
p785
I1
sVdntzfy0
p786
I1
sVcypnslm
p787
I1
sVd2x72d2
p788
I1
sVd89lcy3
p789
I1
sVcz23kju
p790
I1
sVdjpv9yl
p791
I1
sVdreaggu
p792
I1
sVdnm86kz
p793
I1
sVd5x7rck
p794
I1
sVd7us5tm
p795
I1
sVd1yrru9
p796
I1
sVdqhpg2r
p797
I1
sVd4h22fl
p798
I1
sVda68ekk
p799
I1
sVdbzqfw4
p800
I1
sVdfrrgti
p801
I1
sVd8i9h7n
p802
I1
sVda20m84
p803
I1
sVd3tnsr4
p804
I1
sVddc5o1f
p805
I1
sVd4akfv1
p806
I1
sVd62lnb0
p807
I1
sVdbo5lu2
p808
I1
sVd3g5t9h
p809
I1
sVd657el2
p810
I1
sVd4ph95m
p811
I1
sVdj2b4ci
p812
I1
sVczk5d5b
p813
I1
sVdaz4kvb
p814
I1
sVd3yi955
p815
I1
sVd2fy10h
p816
I1
sVdotedax
p817
I1
sVdsgyszk
p818
I1
sVcz5cl2q
p819
I1
sVdr5jwtr
p820
I1
sVd3yjt0t
p821
I1
sVdt6mk2n
p822
I1
sVd7rrizu
p823
I1
sVd8e6sok
p824
I1
sVdfoecvy
p825
I1
sVdge158u
p826
I1
sVdhfpy8g
p827
I1
sVd24wl8w
p828
I1
sVd99bzc2
p829
I1
sVdpqw5xe
p830
I1
sVczs28ed
p831
I1
sVdhsmlib
p832
I1
sVdr0nol7
p833
I1
sVcyzmjop
p834
I1
sVd9p871j
p835
I1
sVd5w1l8c
p836
I1
sVdr0i32n
p837
I1
sVdpce88x
p838
I1
sVdj5uk81
p839
I1
sVdr9s8cd
p840
I1
sVd48y41q
p841
I1
sVdhus3pg
p842
I1
sVcysrpq6
p843
I2
sVczgm0b9
p844
I1
sVdp8oe27
p845
I1
sVdihultp
p846
I1
sVd7vt7po
p847
I1
sVczw02j0
p848
I1
sVd405n1f
p849
I1
sVd62b9mb
p850
I1
sVdh9q1f0
p851
I1
sVdbwee6y
p852
I1
sVdspuuvf
p853
I1
sVczhwkuq
p854
I1
sVdid02av
p855
I1
sVdhdee85
p856
I1
sVd6ydif2
p857
I1
sVd0ibf0c
p858
I1
sVczya4ga
p859
I1
sVd87xrz7
p860
I1
sVd3nq9u3
p861
I1
sVdd9jwzw
p862
I1
sVd4dpmn1
p863
I2
sVdq5oj1i
p864
I1
sVdra1vp4
p865
I1
sVd4t2kqd
p866
I1
sVdeneq7h
p867
I1
sVdfu31zy
p868
I1
sVdtd5yjo
p869
I1
sVdg4pvrx
p870
I1
sVdaogakm
p871
I1
sVdfgkuae
p872
I1
sVddk57at
p873
I1
sVd40xkk5
p874
I1
sVdiprmvd
p875
I1
sVd960wvd
p876
I1
sVd6rvuly
p877
I1
sVd9c2etw
p878
I1
sVdjg7rqn
p879
I1
sVdcvb0f5
p880
I1
sVdketyd0
p881
I1
sVdtigut0
p882
I1
sVd8upt9i
p883
I1
sVd562luy
p884
I1
sVd5wssm1
p885
I1
sVdko1q5x
p886
I1
sVds35mx2
p887
I1
sVdharea7
p888
I1
sVd3h20zj
p889
I1
sVdd1wl51
p890
I1
sVd9i003w
p891
I1
sVd10pz37
p892
I1
sVd8vsis2
p893
I1
sVd595dab
p894
I1
sVdjzjnxn
p895
I1
sVdcdjwo2
p896
I1
sVdaue8h9
p897
I1
sVd4fkwsj
p898
I1
sVdtinth5
p899
I1
sVdfzd9rw
p900
I1
sVdgi8h18
p901
I1
sVdht62x1
p902
I1
sVd44mui5
p903
I1
sVdpx04kv
p904
I1
sVd1tiooo
p905
I1
sVd1br63c
p906
I1
sVdk10pk1
p907
I1
sVd0628so
p908
I1
sVdpmb46m
p909
I1
sVdfc0dq6
p910
I1
sVdkp4xwr
p911
I1
sVdde7kfo
p912
I1
sVdfjp1fr
p913
I1
sVd0t1ijt
p914
I1
sVd6svuao
p915
I1
sVd8fakuq
p916
I1
sVcyv9dq9
p917
I1
sVd1m5wki
p918
I1
sVdc5jxi6
p919
I1
sVd3dea7l
p920
I1
sVde1iodc
p921
I1
sVdt4il9x
p922
I1
sVde5z4zi
p923
I1
sVd0y4aww
p924
I1
sVcytmik6
p925
I1
sVd5x6v8s
p926
I1
sVd270pui
p927
I1
sVdgzkoar
p928
I1
sVd18tsbb
p929
I1
sVd5t6w1k
p930
I1
sVdmosvyp
p931
I1
sVdrq0dxh
p932
I1
sVd1dm1hu
p933
I1
sVd0ozgci
p934
I1
sVdk1v249
p935
I1
sVdcben03
p936
I1
sVd6hfzip
p937
I1
sVd1i82xl
p938
I1
sVdgc9zf2
p939
I1
sVdshn305
p940
I1
sVczhetw6
p941
I1
sVcyrqrls
p942
I1
sVdpgyqac
p943
I1
sVd1d34ai
p944
I1
sVd4brs26
p945
I1
sVdf3kmyo
p946
I1
sVcz2j84l
p947
I1
sVd4rhwa4
p948
I1
sVczurmde
p949
I1
sVdh0db90
p950
I1
sVdhixt8m
p951
I1
sVdhwd21e
p952
I1
sVd098otb
p953
I1
sVddcwop6
p954
I1
sVd8m0mrx
p955
I1
sVdoeras5
p956
I1
sVd9i7fcu
p957
I1
sVdg92vnr
p958
I1
sVdirkl7v
p959
I1
sVczg85f7
p960
I1
sVd4ttz59
p961
I1
sVdg5idju
p962
I1
sVd81gbyh
p963
I1
sVdfv1w4d
p964
I1
sVdcvl8gm
p965
I1
sVdhk2xju
p966
I1
sVcyqfbg0
p967
I1
sVd6m0vt4
p968
I1
sVdi9ab4c
p969
I1
sVdr86sbz
p970
I1
sVdhmhjd5
p971
I1
sVcyrs9tk
p972
I1
sVd2rahjq
p973
I1
sVd5ywifo
p974
I2
sVddoli00
p975
I1
sVdd0cstv
p976
I1
sVd4sm1ck
p977
I1
sVcykwhvf
p978
I1
sVdn4aboe
p979
I1
sVdctnqmy
p980
I1
sVdg2a2z6
p981
I1
sVd000evx
p982
I1
sVd72hbn2
p983
I1
sVdep2jn1
p984
I1
sVdoy9kcj
p985
I1
sVcz7cq3u
p986
I1
sVdifwclq
p987
I1
sVdbnea41
p988
I1
sVd1xmoc7
p989
I1
sVdnyarb8
p990
I1
sVdf4x9jc
p991
I1
sVdkt5aka
p992
I1
sVdcnbej4
p993
I1
sVd0ifasj
p994
I1
sVd71skp1
p995
I1
sVdoetm07
p996
I1
sVdgro3aw
p997
I1
sVdbksky6
p998
I1
sVd1ukru2
p999
I1
sVdjxlznu
p1000
I1
sVdol9kzq
p1001
I1
sVczhjr18
p1002
I1
sVdrm6a56
p1003
I1
sVdchzs7h
p1004
I1
sVd1ni8pn
p1005
I1
sVdfbo6v7
p1006
I1
sVdmvozpk
p1007
I1
sVd7ej4wg
p1008
I1
sVd627s8x
p1009
I1
sVd05npnx
p1010
I1
sVd1e69sn
p1011
I1
sVdrb941d
p1012
I1
sVdgi7srs
p1013
I1
sVd0217n0
p1014
I1
sVd33yq3k
p1015
I1
sVdmqd893
p1016
I1
sVcz4mmnr
p1017
I1
sVdsjx83e
p1018
I1
sVdsvoj5j
p1019
I1
sVdaubhqs
p1020
I1
sVd807r5o
p1021
I1
sVdawa47v
p1022
I1
sVd32ihvq
p1023
I1
sVdruwzaz
p1024
I1
sVdcxdtmb
p1025
I1
sVd3kvenm
p1026
I1
sVcyw43gb
p1027
I1
sVdo4uauh
p1028
I1
sVdebqkuo
p1029
I1
sVdio4r0x
p1030
I1
sVdbata94
p1031
I1
sVdgf6xt8
p1032
I1
sVd8oc6jj
p1033
I1
sVddw82xa
p1034
I1
sVdgihl2x
p1035
I1
sVdks5dc9
p1036
I1
sVd1exuc2
p1037
I1
sVdb5ndu3
p1038
I1
sVdmxo4pk
p1039
I1
sVdim4a9m
p1040
I1
sVdg11gh3
p1041
I1
sVdn6q57l
p1042
I1
sVdeldmye
p1043
I1
sVd7jdxz6
p1044
I1
sVdex643b
p1045
I2
sVdtdv8dk
p1046
I1
sVdi9yx88
p1047
I1
sVds1akw0
p1048
I1
sVdqio991
p1049
I1
sVdathxo0
p1050
I1
sVdqlns40
p1051
I1
sVd39tnbf
p1052
I1
sVdbb1hvx
p1053
I1
sVdb7ylko
p1054
I1
sVd89l1j5
p1055
I1
sVd8ep5es
p1056
I1
sVdrblxoz
p1057
I1
sVd6cuez2
p1058
I1
sVdf4zyp0
p1059
I1
sVd09slir
p1060
I1
sVddtwyhz
p1061
I1
sVdtbgrl2
p1062
I1
sVdem3bcq
p1063
I1
sVddnbuwo
p1064
I1
sVd2kod3h
p1065
I1
sVdn1f52r
p1066
I2
sVd4xnvrm
p1067
I1
sVdopot57
p1068
I1
sVdoo904k
p1069
I1
sVd78cmw2
p1070
I1
sVczn6kz3
p1071
I1
sVdh27ip8
p1072
I1
sVd4g9quc
p1073
I1
sVdq9oa4h
p1074
I1
sVdachnp7
p1075
I1
sVdfq34uc
p1076
I1
sVdeg7cym
p1077
I2
sVd6hzq4j
p1078
I1
sVd1k8u4o
p1079
I1
sVd2wfha9
p1080
I1
sVdjqtwux
p1081
I1
sVdb8tvmr
p1082
I1
sVdkykn5x
p1083
I1
sVda27mhf
p1084
I1
sVdee95g8
p1085
I1
sVdc18w32
p1086
I1
sVdde9yvg
p1087
I1
sVdh1z8ea
p1088
I1
sVde0jf93
p1089
I1
sVdcm5kas
p1090
I1
sVdqy8l54
p1091
I1
sVczxenb2
p1092
I1
sVd3msekn
p1093
I1
sVdke1cy7
p1094
I1
sVdd6wt9u
p1095
I3
sVdijafb6
p1096
I1
sVcz18tjd
p1097
I1
sVd5087tu
p1098
I1
sVdkktucf
p1099
I1
sVdnw2iwz
p1100
I1
sVda3u3qz
p1101
I1
sVda3ms0f
p1102
I1
sVcz5qjkg
p1103
I1
sVdaejpqm
p1104
I1
sVd1m6rtg
p1105
I1
sVdr6lays
p1106
I1
sVd5s4plq
p1107
I1
sVd9h6d3s
p1108
I1
sVd05mtu6
p1109
I1
sVdai1iqq
p1110
I1
sVdatwj5f
p1111
I1
sVdncnhun
p1112
I1
sVd4vwdkc
p1113
I1
sVd538tp8
p1114
I1
sVd4y6ev3
p1115
I1
sVd6buy9e
p1116
I1
sVds4z5vv
p1117
I1
sVdmsa8xb
p1118
I1
sVdivp091
p1119
I1
sVde5ce0k
p1120
I1
sVd1ovemc
p1121
I1
sVdh8ais2
p1122
I1
sVd347q01
p1123
I1
sVczpthi4
p1124
I1
sVd8c8xtv
p1125
I1
sVdk9d27g
p1126
I2
sVdq4v2ae
p1127
I1
sVdab7k2g
p1128
I1
sVd9z6tn6
p1129
I1
sVd0h48b2
p1130
I1
sVdjn9f6t
p1131
I1
sVdh13e17
p1132
I1
sVd94xyx9
p1133
I1
sVdqcqc2c
p1134
I1
sVd29m45f
p1135
I1
sVd90eves
p1136
I1
sVd0r1lkp
p1137
I1
sVd5acqxd
p1138
I1
sVdfvspjr
p1139
I1
sVdei7iys
p1140
I1
sVdfr80kq
p1141
I1
sVdbsn67w
p1142
I1
sVdt858bw
p1143
I1
sVddi3f81
p1144
I1
sVd89eexu
p1145
I1
sVderyqwz
p1146
I1
sVd9x5y46
p1147
I1
sVd779fqi
p1148
I1
sVdq47t18
p1149
I1
sVdjsvg7u
p1150
I1
sVde6yxfv
p1151
I1
sVdrpzs03
p1152
I1
sVcylltid
p1153
I2
sVczw3fyh
p1154
I1
sVdkk9w10
p1155
I1
sVda3zyy8
p1156
I1
sVdhlunbm
p1157
I1
sVd22uydd
p1158
I1
sVdrwxko9
p1159
I1
sVd6w32yb
p1160
I1
sVcyqcm1g
p1161
I1
sVcyv927n
p1162
I1
sVd9f6vs2
p1163
I1
sVdo1kigt
p1164
I1
sVdem0oyy
p1165
I1
sVd5bgcm5
p1166
I1
sVd3erm67
p1167
I1
sVd811pb5
p1168
I1
sVd010iq0
p1169
I1
sVdpwujdy
p1170
I1
sVdqe7ute
p1171
I1
sVd9myqfe
p1172
I1
sVd6jiydc
p1173
I1
sVde1aei0
p1174
I1
sVddhjc3d
p1175
I3
sVczc6oj8
p1176
I1
sVd2x0qqt
p1177
I3
sVd59jouo
p1178
I1
sVdejlniw
p1179
I1
sVcyscynq
p1180
I1
sVdrqh7n8
p1181
I1
sVd13mp07
p1182
I1
sVd33juk6
p1183
I1
sVd6bp1cd
p1184
I1
sVcyik9wc
p1185
I1
sVd1zszfi
p1186
I1
sVd776n3k
p1187
I1
sVd66tkmc
p1188
I1
sVcyucwpj
p1189
I1
sVdmp70ge
p1190
I1
sVd4tprus
p1191
I1
sVd9e6e34
p1192
I1
sVd6cjs9t
p1193
I1
sVd1ofylf
p1194
I1
sVddn8pxd
p1195
I1
sVd6eqhur
p1196
I1
sVdmlx7gy
p1197
I1
sVdqlz7sq
p1198
I1
sVd48b043
p1199
I1
sVdpw0ix5
p1200
I1
sVcykusi1
p1201
I1
sVdb5lvsx
p1202
I1
sVd8ql3i6
p1203
I1
sVd19nvco
p1204
I1
sVd46dms5
p1205
I1
sVd2ixwxz
p1206
I1
sVd1m58lq
p1207
I1
sVdpl8pjn
p1208
I1
sVdhheooa
p1209
I1
sVd2uin6j
p1210
I1
sVd22mcsr
p1211
I1
sVdej6jye
p1212
I1
sVd2uvvr0
p1213
I1
sVdmmoxy6
p1214
I1
sVdoiw0xu
p1215
I1
sVd4l308p
p1216
I1
sVd0816uf
p1217
I1
sVdbia2tu
p1218
I1
sVdahtaku
p1219
I1
sVd54vgp1
p1220
I1
sVd6ccoz8
p1221
I1
sVcynw45m
p1222
I1
sVdf9ym1c
p1223
I1
sVdoj0zk4
p1224
I1
sVd8rhrzj
p1225
I1
sVd15ycyn
p1226
I1
sVdnd40cd
p1227
I1
sVd8jks0y
p1228
I1
sVd1gore9
p1229
I1
sVdox7roq
p1230
I1
sVd4wtorf
p1231
I1
sVdbqxq3l
p1232
I1
sVddigb0k
p1233
I1
sVda083tr
p1234
I1
sVddup9i8
p1235
I1
sVcyxj3ek
p1236
I1
sVdteki1l
p1237
I1
sVd91ih48
p1238
I1
sVdmpf337
p1239
I1
sVdpit5w3
p1240
I1
sVdoyr7jr
p1241
I1
sVd8qtt30
p1242
I1
sVd1shetm
p1243
I1
sVdnb4pfs
p1244
I1
sVdpl9z34
p1245
I2
sVd9ksirs
p1246
I1
sVdjscqm0
p1247
I1
sVdi250re
p1248
I1
sVd9rvttw
p1249
I1
sVd0w2uau
p1250
I2
sVd3d8zk7
p1251
I1
sVdbqc2wo
p1252
I1
sVdcuk32k
p1253
I2
sVdb1amq1
p1254
I1
sVd7gyd5v
p1255
I1
sVd3n0m8u
p1256
I1
sVdb4fmov
p1257
I1
sVd3px59z
p1258
I1
sVd8njsol
p1259
I1
sVcynl50y
p1260
I1
sVd25raf2
p1261
I1
sVd5yeas2
p1262
I1
sVdmx6rkx
p1263
I1
sVdczbh8z
p1264
I1
sVd2ke68z
p1265
I1
sVdjo5zsw
p1266
I1
sVdnu3vn0
p1267
I1
sVd739wgz
p1268
I1
sVd34dk9a
p1269
I1
sVdbj46ur
p1270
I1
sVd2tuq8i
p1271
I1
sVd16zyeb
p1272
I1
sVczlnskl
p1273
I1
sVd0d5x4j
p1274
I1
sVd1mc2cl
p1275
I1
sVdjg17ep
p1276
I1
sVdc2sh2p
p1277
I1
sVd9awkan
p1278
I1
sVd9p2w0e
p1279
I1
sVdfg8cq3
p1280
I1
sVdrlqw3a
p1281
I1
sVdh1dch9
p1282
I1
sVd27v3uu
p1283
I1
sVdo4y1pj
p1284
I1
sVdc2rtt7
p1285
I1
sVd1zfacx
p1286
I1
sVd3ev1v3
p1287
I1
sVd62frz6
p1288
I1
sVdk4k3v7
p1289
I1
sVd8ecna9
p1290
I1
sVd96f4om
p1291
I1
sVdn2rk7a
p1292
I1
sVdc3uh4y
p1293
I1
sVdspiuia
p1294
I1
sVd5p6xd1
p1295
I1
sVd7zoqmr
p1296
I1
sVd65hli1
p1297
I1
sVd5wws8f
p1298
I1
sVdfg62jl
p1299
I1
sVdifkqj9
p1300
I1
sVdfau1yh
p1301
I1
sVd1x9scg
p1302
I1
sVdbx5cv4
p1303
I1
sVd9ds9qm
p1304
I1
sVd4bm1wz
p1305
I1
sVdq81jur
p1306
I1
sVde4yp4d
p1307
I1
sVdghnd2z
p1308
I1
sVd6e7stg
p1309
I1
sVdb4qdww
p1310
I1
sVdg9h0md
p1311
I1
sVde08z6u
p1312
I1
sVd23v4c7
p1313
I1
sVd3kndug
p1314
I1
sVd723y72
p1315
I2
sVdirbzko
p1316
I1
sVdblncl5
p1317
I1
sVdafjzfd
p1318
I1
sVdkr23a0
p1319
I1
sVddtfu24
p1320
I1
sVdi9e7bd
p1321
I1
sVdeekl6q
p1322
I1
sVdqm2sfe
p1323
I1
sVdg43cq5
p1324
I1
sVd9re3f3
p1325
I1
sVcysth6g
p1326
I2
sVd5ihdw9
p1327
I1
sVdbv8beh
p1328
I1
sVdeteuo3
p1329
I1
sVdgojyhc
p1330
I1
sVczungai
p1331
I1
sVczyxszu
p1332
I1
sVczyfm6r
p1333
I1
sVd9nz2fg
p1334
I2
sVd4wodn6
p1335
I2
sVd2q3klm
p1336
I1
sVddciw8u
p1337
I1
sVdnabg0z
p1338
I1
sVdjpwlsn
p1339
I1
sVd8q7uwm
p1340
I1
sVdg9uks6
p1341
I1
sVd4ypmox
p1342
I1
sVdcalj02
p1343
I1
sVdihl3zx
p1344
I1
sVcz5kp7n
p1345
I1
sVd2uyrwz
p1346
I1
sVd2fvxk9
p1347
I1
sVd0mf3l9
p1348
I1
sVdndtzov
p1349
I1
sVdeufw9t
p1350
I1
sVdcbbbie
p1351
I1
sVd03aju4
p1352
I1
sVdhycm1p
p1353
I1
sVdojc1h2
p1354
I2
sVda00fa6
p1355
I1
sVdnf7bug
p1356
I1
sVd1jqwoe
p1357
I2
sVdcqyq1e
p1358
I1
sVd3j4r3s
p1359
I1
sVczedtnf
p1360
I1
sVd2tv08r
p1361
I1
sVdmopkzp
p1362
I1
sVd838f67
p1363
I1
sVd2qyaot
p1364
I2
sVd5fljuk
p1365
I1
sVdff5a44
p1366
I1
sVdbjhq70
p1367
I1
sVdfqzlxg
p1368
I1
sVdt8e04w
p1369
I1
sVd8nxfp2
p1370
I1
sVczryfzm
p1371
I1
sVddcsz14
p1372
I1
sVdfm49y3
p1373
I1
sVd8qic44
p1374
I1
sVdixlf4q
p1375
I1
sVdofsfsr
p1376
I1
sVd4tashb
p1377
I1
sVdq3f859
p1378
I1
sVdkkiaml
p1379
I2
sVd7j5pe1
p1380
I1
sVdd8othi
p1381
I1
sVdh8sgd7
p1382
I1
sVdgkq9yb
p1383
I1
sVdin4erz
p1384
I1
sVd2hk336
p1385
I1
sVd9z0xgr
p1386
I1
sVdrw2nig
p1387
I1
sVcyrkdbw
p1388
I1
sVdelbahx
p1389
I1
sVd33lqvl
p1390
I1
sVdbrt6nh
p1391
I1
sVdn1oo9a
p1392
I2
sVdh5i1x4
p1393
I1
sVd05imz4
p1394
I1
sVcz9jvn8
p1395
I1
sVd05n3w8
p1396
I1
sVd7cbato
p1397
I1
sVdolsdd9
p1398
I1
sVdcu3ak2
p1399
I1
sVd1vgu4r
p1400
I1
sVdeutkeo
p1401
I2
sVd4qc3uw
p1402
I1
sVd2tpubq
p1403
I1
sVdgjeijx
p1404
I1
sVd5y0xs1
p1405
I1
sVdhbkjv2
p1406
I1
sVdcm8h7q
p1407
I1
sVd0blyde
p1408
I1
sVdc50grl
p1409
I1
sVdrirsdx
p1410
I1
sVd0q672l
p1411
I1
sVd2blqsq
p1412
I1
sVdhbw4fu
p1413
I1
sVdpxrpj9
p1414
I1
sVdprze5s
p1415
I1
sVdiraiwd
p1416
I1
sVczzyfpp
p1417
I1
sVds2w02w
p1418
I1
sVddfzu2l
p1419
I1
sVdbogz9p
p1420
I1
sVdhor1nz
p1421
I1
sVd3fgmr6
p1422
I1
sVczktjae
p1423
I1
sVcyww23e
p1424
I1
sVddiesgk
p1425
I1
sVdjqzqzp
p1426
I1
sVd3pn8k3
p1427
I1
sVd00s5u6
p1428
I1
sVd2g0zz5
p1429
I1
sVdk9yr1y
p1430
I1
sVdcn7h97
p1431
I1
sVdsal97n
p1432
I1
sVdcvu21g
p1433
I1
sVd7a3hhd
p1434
I1
sVd20x7lm
p1435
I1
sVczykx1l
p1436
I1
sVd4l2nox
p1437
I1
sVddn51nv
p1438
I1
sVd7g4wks
p1439
I1
sVd54ymbm
p1440
I1
sVd02vfbx
p1441
I1
sVd5xectf
p1442
I1
sVdcw74pp
p1443
I1
sVd7d4zf3
p1444
I1
sVdd81g5n
p1445
I1
sVd38l3ue
p1446
I1
sVdcwvvgi
p1447
I1
sVdckka4g
p1448
I1
sVd1b5zg0
p1449
I1
sVdbjzbk9
p1450
I1
sVd1dpru7
p1451
I1
sVd2q2fwb
p1452
I1
sVdiepvgb
p1453
I1
sVd71828z
p1454
I2
sVdfnhs6r
p1455
I1
sVdfytckg
p1456
I1
sVczgxfdh
p1457
I1
sVd47oacq
p1458
I1
sVddf6xcd
p1459
I1
sVd6qi9qu
p1460
I1
sVdca5yc9
p1461
I1
sVdqd78wn
p1462
I1
sVd1og6gn
p1463
I1
sVd33wvck
p1464
I1
sVd74lmgk
p1465
I1
sVdenon6l
p1466
I1
sVdk4p8n9
p1467
I1
sVdcbkgh3
p1468
I1
sVd1ruao3
p1469
I1
sVde3ht8v
p1470
I2
sVcz8819x
p1471
I1
sVdc98haw
p1472
I1
sVdsypm55
p1473
I1
sVdf3uqzp
p1474
I1
sVd1xon7j
p1475
I1
sVdd1g4af
p1476
I1
sVd8x8jfm
p1477
I1
sVd1t7dxg
p1478
I1
sVd7djem2
p1479
I1
sVd94pvm1
p1480
I1
sVd1ge577
p1481
I1
sVd1j11hj
p1482
I1
sVd4zrzqq
p1483
I1
sVdh3pz1v
p1484
I2
sVd7dgo8s
p1485
I1
sVdcdlwmc
p1486
I1
sVdcmu70i
p1487
I1
sVd2rupvi
p1488
I1
sVdkw8x8e
p1489
I1
sVd4qpl42
p1490
I1
sVdrtadv3
p1491
I1
sVdn7lx0z
p1492
I1
sVdoh15qm
p1493
I1
sVdsqsgia
p1494
I1
sVdd33v3z
p1495
I1
sVdfid6xw
p1496
I1
sVdj2ty5o
p1497
I1
sVda231aq
p1498
I1
sVdantd5g
p1499
I1
sVd57bwzd
p1500
I1
sVddyirn4
p1501
I1
sVdg342da
p1502
I1
sVd1krb9s
p1503
I1
sVdja3hkl
p1504
I1
sVd6p2xlr
p1505
I1
sVdi7jg6j
p1506
I1
sVd9whpmt
p1507
I1
sVdaz30ct
p1508
I1
sVcz51ixp
p1509
I1
sVd5rk5ci
p1510
I2
sVdfim9l6
p1511
I1
sVd42bsmb
p1512
I1
sVdauhsio
p1513
I1
sVdqb0o44
p1514
I1
sVddhmuxf
p1515
I1
sVdhn5uec
p1516
I1
sVd6waogr
p1517
I1
sVd1d2wju
p1518
I1
sVdhc20qn
p1519
I1
sVdj22r5k
p1520
I1
sVd24mc3y
p1521
I1
sVdnghcie
p1522
I1
sVd2lw9bc
p1523
I1
sVd55428n
p1524
I1
sVd992c8n
p1525
I1
sVdddpvr7
p1526
I1
sVdj3jxq3
p1527
I1
sVd80b0na
p1528
I1
sVd6qt0or
p1529
I1
sVdt9it5q
p1530
I1
sVd202yps
p1531
I2
sVdirfzzo
p1532
I1
sVdpkad0a
p1533
I1
sVdbhj06q
p1534
I1
sVdkda6c9
p1535
I1
sVdovxjki
p1536
I1
sVd1zw8mv
p1537
I1
sVdr0euyw
p1538
I1
sVdg9v9wl
p1539
I1
sVdfjf6wo
p1540
I1
sVddym6tq
p1541
I1
sVd3tqwii
p1542
I1
sVdjfivu1
p1543
I1
sVdda60xo
p1544
I1
sVdepugtr
p1545
I1
sVd2fagm6
p1546
I1
sVdn0w7w3
p1547
I2
sVdnymgt1
p1548
I1
sVdg1m1wa
p1549
I1
sVd0zbs8f
p1550
I1
sVcyqooof
p1551
I1
sVd0gdz1i
p1552
I1
sVd5ivwws
p1553
I1
sVd3grmcq
p1554
I1
sVdnjpceb
p1555
I1
sVd1akc29
p1556
I1
sVcyzs442
p1557
I1
sVdpp5mk9
p1558
I1
sVdf903he
p1559
I1
sVd0r5qog
p1560
I1
sVd4zv67a
p1561
I1
sVdepm7jd
p1562
I1
sVdcj35y8
p1563
I1
sVdanoo6v
p1564
I1
sVdkqh05y
p1565
I1
sVdn93z84
p1566
I1
sVdjxsaly
p1567
I1
sVdf03odi
p1568
I1
sVd90rbva
p1569
I1
sVd4mm2b4
p1570
I1
sVd29qfpc
p1571
I1
sVddw7w4q
p1572
I1
sVd7np9az
p1573
I1
sVcytt6bm
p1574
I1
sVd0mrks1
p1575
I1
sVdt7q0ld
p1576
I1
sVd6pwr35
p1577
I1
sVd4cyv0n
p1578
I1
sVd2ut4bb
p1579
I1
sVdgzs092
p1580
I1
sVd3quc6n
p1581
I1
sVdk59a16
p1582
I1
sVd9z3qef
p1583
I1
sVd2007es
p1584
I1
sVdfvmard
p1585
I1
sVcyjnvpt
p1586
I1
sVd5i8zen
p1587
I1
sVdqj43no
p1588
I1
sVd6ks2gd
p1589
I1
sVd3uhal0
p1590
I1
sVd5hlf2q
p1591
I1
sVd0wkkz8
p1592
I1
sVd58slkc
p1593
I1
sVd7rots0
p1594
I1
sVcz4rdhr
p1595
I1
sVcymckxg
p1596
I1
sVdpa4rw4
p1597
I1
sVdt9k202
p1598
I1
sVdkj20fj
p1599
I1
sVdcqrd1a
p1600
I1
sVczi85bi
p1601
I1
sVdedxe2a
p1602
I1
sVd5561sg
p1603
I1
sVdc6v5gw
p1604
I1
sVd42d77e
p1605
I1
sVdoingv3
p1606
I1
sVdpqyhm6
p1607
I1
sVdaa5lrf
p1608
I1
sVd3kcqvl
p1609
I1
sVd1sodgk
p1610
I1
sVdgng8kn
p1611
I2
sVdjrd493
p1612
I1
sVdf7vylv
p1613
I1
sVdencvnq
p1614
I1
sVdknub6d
p1615
I1
sVd37tqkm
p1616
I1
sVcyoj7sl
p1617
I1
sVczgv30c
p1618
I1
sVdhji3z1
p1619
I1
sVdjzu82l
p1620
I1
sVdb1ubpn
p1621
I1
sVd7ebi1s
p1622
I1
sVd99ts57
p1623
I1
sVd902cga
p1624
I1
sVdkm605u
p1625
I1
sVdrzs6eo
p1626
I1
sVdgn9hga
p1627
I1
sVdewohgi
p1628
I1
sVdn2nqjf
p1629
I2
sVdj8hkfn
p1630
I1
sVdcqg6uz
p1631
I1
sVd9bxayp
p1632
I1
sVczh86z9
p1633
I1
sVd1qadjt
p1634
I1
sVdo2qahc
p1635
I1
sVdrnwbed
p1636
I1
sVdhtby8s
p1637
I1
sVdg892wz
p1638
I1
sVddwj8ll
p1639
I1
sVde1fbs7
p1640
I1
sVdgwmkby
p1641
I1
sVdbnd7r7
p1642
I1
sVd1lap7r
p1643
I1
sVd6qcg8r
p1644
I1
sVdajpcgo
p1645
I1
sVdsusdxf
p1646
I1
sVdb777r9
p1647
I1
sVdaerl7w
p1648
I1
sVdkbusb3
p1649
I1
sVdbm9ja6
p1650
I1
sVdrhzo87
p1651
I1
sVd01cfuz
p1652
I1
sVd2tfzd8
p1653
I1
sVd7xa4kn
p1654
I1
sVds1j5j3
p1655
I1
sVdonrn1o
p1656
I1
sVd7uhnn6
p1657
I1
sVd3dvmqq
p1658
I1
sVczrceqa
p1659
I1
sVcywb0ij
p1660
I1
sVdj1oi8l
p1661
I1
sVdthhbm0
p1662
I1
sVdaupce2
p1663
I1
sVdbdjdtv
p1664
I1
sVdp6ff7u
p1665
I1
sVdqogg15
p1666
I1
sVdbqlojc
p1667
I1
sVdavci1j
p1668
I1
sVdj9j82z
p1669
I1
sVdg95mca
p1670
I1
sVczfjaof
p1671
I1
sVdj4mseh
p1672
I2
sVde2i3yh
p1673
I1
sVdjmculu
p1674
I1
sVdfvkf72
p1675
I1
sVd3kmp57
p1676
I1
sVcyykcn8
p1677
I1
sVd9o2kx5
p1678
I1
sVdiei54w
p1679
I2
sVdg8xjyz
p1680
I1
sVdjwga8a
p1681
I1
sVd2hqwww
p1682
I1
sVdbgq8jo
p1683
I1
sVd1pbq3m
p1684
I1
sVdc1oxn0
p1685
I1
sVdb0o005
p1686
I1
sVdpxd7au
p1687
I1
sVd9x7uq3
p1688
I1
sVdcbrt3r
p1689
I1
sVdi4qulq
p1690
I1
sVdc88kpi
p1691
I1
sVczb1mep
p1692
I1
sVd4cesnl
p1693
I1
sVd89mgop
p1694
I1
sVdd57m4p
p1695
I1
sVczgk7vp
p1696
I1
sVdfzzfjo
p1697
I1
sVd116wwi
p1698
I1
sVdpbch0j
p1699
I1
sVdqp3msm
p1700
I2
sVded4hd0
p1701
I1
sVcyib9ia
p1702
I1
sVdr2rjat
p1703
I1
sVdnvz7o4
p1704
I1
sVdsgcupu
p1705
I1
sVd4nf4yo
p1706
I1
sVddjhzvi
p1707
I1
sVdt95h5f
p1708
I1
sVd0jazez
p1709
I1
sVday0gbh
p1710
I1
sVde4q1vd
p1711
I1
sVd81z0en
p1712
I1
sVdob2o74
p1713
I1
sVd6qw64x
p1714
I1
sVdj9sz68
p1715
I1
sVd4a4d8p
p1716
I1
sVczzybgv
p1717
I1
sVd67nsi5
p1718
I1
sVdnnejp4
p1719
I1
sVdrsxmdn
p1720
I1
sVd7zi7r2
p1721
I1
sVdkknclj
p1722
I1
sVddwzpcy
p1723
I1
sVd6xxunw
p1724
I1
sVddndckg
p1725
I1
sVdds5zp3
p1726
I1
sVdrqq62t
p1727
I1
sVd3fbtmm
p1728
I3
sVdj8kg1r
p1729
I1
sVdtdb2am
p1730
I1
sVcylkwsx
p1731
I1
sVdj4uwaf
p1732
I1
sVdh2g5u4
p1733
I1
sVd5hvvsn
p1734
I1
sVdqfg3qs
p1735
I1
sVdgc9qwz
p1736
I1
sVdoj6h43
p1737
I1
sVdifn11p
p1738
I1
sVd7hz47f
p1739
I1
sVd571awx
p1740
I1
sVdd1wyh0
p1741
I1
sVd6a34df
p1742
I1
sVd1c8j2k
p1743
I1
sVd89k1e3
p1744
I1
sVd0nqlrj
p1745
I1
sVd8riy5e
p1746
I1
sVdbw2145
p1747
I1
sVdenwak5
p1748
I1
sVdar5nt8
p1749
I1
sVdejbnzt
p1750
I1
sVcyvtcca
p1751
I1
sVdrj3o63
p1752
I1
sVd3nyggu
p1753
I1
sVdnzfj5z
p1754
I1
sVdjqfps4
p1755
I1
sVdob33ln
p1756
I1
sVd3alo7b
p1757
I1
sVd5rgico
p1758
I1
sVda66zpo
p1759
I1
sVd1x5f0o
p1760
I2
sVd5vr73q
p1761
I1
sVdkmxf70
p1762
I1
sVd7q7as3
p1763
I1
sVd23lxan
p1764
I1
sVdb8hrxj
p1765
I1
sVd0a12nz
p1766
I1
sVd9bmh94
p1767
I1
sVddkxyb0
p1768
I1
sVd2bdhf5
p1769
I1
sVdco6esh
p1770
I1
sVd69e936
p1771
I1
sVd84be68
p1772
I2
sVd1wuos5
p1773
I1
sVcyyerkc
p1774
I1
sVdfjwlvj
p1775
I1
sVde0n8sq
p1776
I1
sVd9l83k6
p1777
I1
sVd2pkgsw
p1778
I1
sVdbl3w4t
p1779
I1
sVdqhw2g8
p1780
I1
sVd948vyl
p1781
I1
sVdc8o6kj
p1782
I1
sVd1p6qgc
p1783
I1
sVdevfb9e
p1784
I1
sVd4n8odr
p1785
I1
sVdd5c0tu
p1786
I1
sVd8mhale
p1787
I1
sVdcapn8z
p1788
I1
sVdhei4yb
p1789
I1
sVd3hie2k
p1790
I1
sVdgmw8z7
p1791
I1
sVdopxl0t
p1792
I1
sVd6ebdh5
p1793
I1
sVdfzob3q
p1794
I1
sVczdq19v
p1795
I1
sVd3mh3kc
p1796
I1
sVdjjqyzu
p1797
I1
sVd2uzqb7
p1798
I1
sVds70hkk
p1799
I1
sVd7r5bj2
p1800
I1
sVd859wwe
p1801
I1
sVdgh0fdi
p1802
I1
sVddp2p45
p1803
I1
sVdiesekr
p1804
I1
sVddni2gn
p1805
I1
sVd4fzxx1
p1806
I1
sVcz9xkyo
p1807
I1
sVdct43ll
p1808
I1
sVd38vuy2
p1809
I1
sVdh634nw
p1810
I1
sVdan6jhu
p1811
I1
sVda15rbr
p1812
I1
sVdjzcd1s
p1813
I1
sVd69xg7q
p1814
I1
sVdo598ei
p1815
I1
sVdrn9iiq
p1816
I1
sVcz145qh
p1817
I1
sVd15lezl
p1818
I1
sVcyx0zop
p1819
I1
sVdbqfiw3
p1820
I1
sVcyswbs8
p1821
I1
sVdeu7k3b
p1822
I1
sVd4he6xl
p1823
I1
sVdmug9e1
p1824
I1
sVdmtdp91
p1825
I1
sVcylsjg1
p1826
I1
sVd1k533t
p1827
I1
sVczjs6vq
p1828
I1
sVdfn99p8
p1829
I1
sVddog6ia
p1830
I1
sVd7nwb0n
p1831
I1
sVdftr7yg
p1832
I1
sVd8ixhkr
p1833
I1
sVdb7ekaa
p1834
I1
sVdhh87g3
p1835
I1
sVdp5ep8l
p1836
I1
sVd54pgr6
p1837
I1
sVda68o0a
p1838
I1
sVdbml50d
p1839
I1
sVd01lyd5
p1840
I1
sVd567k4h
p1841
I1
sVdihc91v
p1842
I1
sVcz51rfp
p1843
I1
sVd1yvu7n
p1844
I1
sVddbsh93
p1845
I1
sVd31slu4
p1846
I1
sVczetkzm
p1847
I1
sVdka89gl
p1848
I1
sVd85a97o
p1849
I1
sVcyuufmg
p1850
I1
sVd1e7x7v
p1851
I1
sVdhgduy4
p1852
I1
sVd71wzqd
p1853
I1
sVd24kxlz
p1854
I1
sVdc11hhg
p1855
I1
sVd12kxfe
p1856
I1
sVdqvirrk
p1857
I1
sVdfljrm5
p1858
I1
sVd56gwtt
p1859
I1
sVdb1mx6i
p1860
I1
sVdkf9c2u
p1861
I1
sVd996x14
p1862
I1
sVd1bdvtq
p1863
I1
sVdfalwox
p1864
I1
sVda0gde6
p1865
I1
sVdhvs90r
p1866
I1
sVd5ufa9p
p1867
I1
sVd2kxfnt
p1868
I1
sVd3dbc1o
p1869
I1
sVdrd6nrf
p1870
I1
sVdkrtv0q
p1871
I1
sVd3p937k
p1872
I1
sVczp54e3
p1873
I1
sVdmh6yim
p1874
I2
sVdjc2new
p1875
I1
sVdcxjt40
p1876
I1
sVd2mx49t
p1877
I1
sVdgv0vsl
p1878
I1
sVdctfckg
p1879
I1
sVdgvtulk
p1880
I1
sVd0gwc3h
p1881
I1
sVdoe1stc
p1882
I1
sVdnay2aq
p1883
I1
sVdcww46z
p1884
I1
sVdpo4ued
p1885
I1
sVd104sw2
p1886
I1
sVdr2rsgd
p1887
I1
sVd3jrmi3
p1888
I1
sVdg1whbr
p1889
I1
sVde1nbg9
p1890
I1
sVdb6av6p
p1891
I1
sVdojailk
p1892
I1
sVd61pvbf
p1893
I1
sVd0epek9
p1894
I1
sVd8ltfmk
p1895
I1
sVd9d6lr4
p1896
I1
sVd774b9g
p1897
I1
sVdt6p5xs
p1898
I1
sVdj6k6lh
p1899
I1
sVdmvk87t
p1900
I1
sVdhtov7f
p1901
I1
sVczm8sek
p1902
I1
sVd7s2swn
p1903
I1
sVd5slkhx
p1904
I1
sVda654nz
p1905
I1
sVdrnj64t
p1906
I1
sVda66et5
p1907
I1
sVd1l8m5l
p1908
I1
sVd0edthy
p1909
I1
sVdeyh35r
p1910
I1
sVd4khtr3
p1911
I1
sVd3hrixo
p1912
I1
sVd666g63
p1913
I1
sVdjo9pbz
p1914
I1
sVde3acdl
p1915
I1
sVd8htheu
p1916
I1
sVdjsqd0k
p1917
I1
sVdat3bn6
p1918
I1
sVddbre40
p1919
I2
sVdsdd75w
p1920
I1
sVdc1jxuk
p1921
I1
sVdogn2gg
p1922
I1
sVdix19kf
p1923
I1
sVdiyocqu
p1924
I1
sVd1amba0
p1925
I1
sVdsh0vjx
p1926
I1
sVd4ukdhx
p1927
I1
sVdfwtm91
p1928
I1
sVdkiiywu
p1929
I1
sVdi4zq2y
p1930
I1
sVd2ua0rh
p1931
I1
sVdr3htoy
p1932
I1
sVd4rhxhn
p1933
I1
sVdn45g0e
p1934
I1
sVdnnkzys
p1935
I1
sVdi7v1rp
p1936
I1
sVd2mugnv
p1937
I1
sVdadzmp0
p1938
I1
sVd1k8suc
p1939
I1
sVdfao4na
p1940
I1
sVd63vcfc
p1941
I1
sVdj0lodk
p1942
I1
sVd1tthg1
p1943
I1
sVdco8u70
p1944
I1
sVdbd30f8
p1945
I1
sVdjt6smh
p1946
I1
sVdpaz3zq
p1947
I1
sVdqcshwz
p1948
I1
sVdifnz0z
p1949
I1
sVcyybbqx
p1950
I1
sVd0ahifw
p1951
I1
sVd2h9c77
p1952
I1
sVcyp7cn8
p1953
I1
sVdoe847m
p1954
I1
sVczz39e7
p1955
I2
sVdc6fs53
p1956
I1
sVdcaf53j
p1957
I1
sVddb5aqp
p1958
I1
sVdrf9feb
p1959
I1
sVdr4hnqd
p1960
I1
sVdnq2veh
p1961
I1
sVd6fhoky
p1962
I1
sVd3mck5s
p1963
I1
sVdfmzzgx
p1964
I2
sVdq0zwjs
p1965
I1
sVdmiu3m5
p1966
I1
sVdepewas
p1967
I1
sVd71o3qc
p1968
I1
sVdqqwhwa
p1969
I1
sVd4u9igd
p1970
I1
sVczl7lis
p1971
I1
sVdgm72ef
p1972
I1
sVdc8xtmk
p1973
I1
sVdhqltv1
p1974
I1
sVd3f8b5l
p1975
I1
sVd9dywi8
p1976
I1
sVcyooxa2
p1977
I1
sVd7n1r6n
p1978
I1
sVdchkfna
p1979
I1
sVd710uct
p1980
I1
sVd08yxvo
p1981
I1
sVd3jqonx
p1982
I1
sVdtenh9x
p1983
I1
sVdqfnqkk
p1984
I1
sVd1bndbo
p1985
I1
sVd077e86
p1986
I1
sVcz1nguh
p1987
I1
sVd8t9dln
p1988
I1
sVd0chlcj
p1989
I1
sVd7whl7p
p1990
I1
sVdeick8n
p1991
I1
sVdd9b6eo
p1992
I1
sVdmm3yyb
p1993
I1
sVd1w0z7u
p1994
I1
sVdhdp3cv
p1995
I1
sVdikly9i
p1996
I1
sVdj0plju
p1997
I1
sVdcow27h
p1998
I1
sVdfrk0ci
p1999
I1
sVdsupqx1
p2000
I1
sVcyn3or4
p2001
I1
sVdnivnxv
p2002
I1
sVdscbn65
p2003
I1
sVdd7f9fw
p2004
I1
sVd66dpr3
p2005
I1
sVdd2756l
p2006
I1
sVczje1e9
p2007
I1
sVcz5m5ag
p2008
I1
sVcym5nh3
p2009
I1
sVd2rvngc
p2010
I1
sVdepqvsb
p2011
I1
sVd4srtv5
p2012
I1
sVdohjvs3
p2013
I1
sVd2oxd4y
p2014
I1
sVd379q6g
p2015
I1
sVd6guzxp
p2016
I1
sVdbriato
p2017
I1
sVdbpmkmt
p2018
I1
sVd928cl6
p2019
I1
sVdnizy99
p2020
I1
sVd57kd12
p2021
I1
sVd4g797m
p2022
I1
sVd3m4i3s
p2023
I1
sVdrn9k77
p2024
I1
sVda1an0m
p2025
I1
sVcz4g22l
p2026
I1
sVd2x0663
p2027
I1
sVdqpjjcb
p2028
I1
sVcyynt7i
p2029
I1
sVd19rjx0
p2030
I1
sVdj95zyv
p2031
I1
sVdnlzefh
p2032
I1
sVdjadisr
p2033
I1
sVd7hqtbu
p2034
I1
sVda76bwj
p2035
I1
sVddkg3xt
p2036
I1
sVd51v2ss
p2037
I1
sVd1au7pj
p2038
I1
sVdfk313b
p2039
I1
sVd5u9gfg
p2040
I1
sVde7xcjo
p2041
I1
sVdfdwwun
p2042
I1
sVdka8sva
p2043
I1
sVcyuoijz
p2044
I1
sVd3ocu7s
p2045
I1
sVdde02qc
p2046
I1
sVdffgq1i
p2047
I1
sVdnl261u
p2048
I1
sVd0pjh0e
p2049
I1
sVdpl7z01
p2050
I1
sVd6xdeey
p2051
I1
sVd8oyq0n
p2052
I1
sVdnm960z
p2053
I1
sVcyn1t78
p2054
I1
sVcyir9yb
p2055
I1
sVddzaqoc
p2056
I1
sVddc3623
p2057
I1
sVcyzxvzv
p2058
I1
sVdglliy0
p2059
I1
sVdmvliz8
p2060
I1
sVd2paopb
p2061
I1
sVdey6zif
p2062
I1
sVdidy03l
p2063
I1
sVdo1r3qb
p2064
I1
sVdk48v23
p2065
I1
sVdniq405
p2066
I1
sVcz1h7qh
p2067
I1
sVd23y9ej
p2068
I1
sVd9vgahd
p2069
I1
sVd96ajdc
p2070
I1
sVdpor6cw
p2071
I1
sVd797qfz
p2072
I1
sVdbd0dt7
p2073
I1
sVds1w7ca
p2074
I1
sVd7emxpe
p2075
I1
sVd7w03jm
p2076
I1
sVd4jaodo
p2077
I1
sVdpf1nl9
p2078
I1
sVd3mbs6u
p2079
I1
sVd5m3avh
p2080
I1
sVdb7ok59
p2081
I1
sVdk1msl2
p2082
I1
sVddrmr33
p2083
I1
sVdir8vgn
p2084
I1
sVdtc0r3s
p2085
I1
sVd2tecap
p2086
I1
sVdq1gwp8
p2087
I1
sVcyswqoe
p2088
I1
sVdssvv2l
p2089
I1
sVdf95teg
p2090
I1
sVdj837in
p2091
I1
sVd35iz22
p2092
I1
sVdg1qsux
p2093
I1
sVdh5qmlr
p2094
I1
sVd09ktq0
p2095
I1
sVd9evcjs
p2096
I1
sVddhixhc
p2097
I1
sVd2cvofp
p2098
I1
sVdhuyy4i
p2099
I1
sVd32et3c
p2100
I1
sVdrreecz
p2101
I1
sVd7kc4ew
p2102
I1
sVda9nr9x
p2103
I1
sVdhl6akf
p2104
I1
sVdp5dip7
p2105
I1
sVdetqpbi
p2106
I1
sVdop4sqi
p2107
I1
sVd9fl1xu
p2108
I1
sVd2wx99w
p2109
I1
sVdh8aao0
p2110
I1
sVdfyae9b
p2111
I1
sVd5ihhsm
p2112
I1
sVd3ah1gi
p2113
I1
sVdjhv0l1
p2114
I1
sVd9j9z9x
p2115
I1
sVdjj5i0z
p2116
I1
sVd0nr0ly
p2117
I1
sVdfmdsmf
p2118
I1
sVd1d6mwi
p2119
I1
sVdnrc4m3
p2120
I1
sVdd5cjfw
p2121
I1
sVda3ambo
p2122
I1
sVdpfsm8p
p2123
I1
sVdb57ruz
p2124
I1
sVd56jxhz
p2125
I1
sVd6wpmdt
p2126
I1
sVddrje29
p2127
I1
sVczxim46
p2128
I1
sVd2ko7tg
p2129
I1
sVd28g6wd
p2130
I1
sVd50hy7x
p2131
I1
sVdgh991s
p2132
I1
sVd5y1gfi
p2133
I1
sVdclpjel
p2134
I1
sVcz6zllb
p2135
I1
sVde8tr44
p2136
I1
sVd7aahil
p2137
I1
sVd2aomie
p2138
I1
sVd3yk9jg
p2139
I1
sVdrqmio8
p2140
I1
sVd5zf09v
p2141
I1
sVdq5pz8j
p2142
I1
sVddfssrh
p2143
I1
sVdiwvmyf
p2144
I1
sVd9yqw0p
p2145
I1
sVd2e8zqw
p2146
I1
sVdn4ajfy
p2147
I2
sVdaa8au5
p2148
I1
sVdbga2l2
p2149
I1
sVd05ptv5
p2150
I1
sVd1ks99t
p2151
I2
sVd9vxont
p2152
I1
sVd4er3y8
p2153
I1
sVdjau1gb
p2154
I1
sVczxbkp1
p2155
I1
sVdbe0y2b
p2156
I1
sVddwgvnm
p2157
I1
sVd2zn3cn
p2158
I1
sVd04mlpb
p2159
I1
sVdgo68um
p2160
I1
sVd5w3no8
p2161
I1
sVd25pw84
p2162
I1
sVdb54rat
p2163
I1
sVd7nx8j5
p2164
I1
sVd8xaory
p2165
I1
sVdjurusn
p2166
I1
sVdthcgzr
p2167
I1
sVdqas9mx
p2168
I1
sVd6lch7f
p2169
I1
sVdfhgsep
p2170
I1
sVdinzca0
p2171
I1
sVdk95w4d
p2172
I1
sVd1ek055
p2173
I1
sVd43fm1s
p2174
I1
sVdk7ywwm
p2175
I1
sVdnq2qci
p2176
I1
sVczhr5x7
p2177
I1
sVd81hl0h
p2178
I1
sVcyt5qb4
p2179
I1
sVdkx2lph
p2180
I1
sVd3g64p1
p2181
I1
sVd1g45zj
p2182
I1
sVdenb8u0
p2183
I1
sVdrrvyly
p2184
I1
sVdt9ek9e
p2185
I1
sVcyvs5ba
p2186
I1
sVd1kjtb8
p2187
I1
sVcytvuuc
p2188
I1
sVdfs8lcu
p2189
I1
sVd3bhbm8
p2190
I1
sVd8l1tiq
p2191
I1
sVd1socq9
p2192
I1
sVdruqqxa
p2193
I1
sVdrfqk3g
p2194
I1
sVd3fiucm
p2195
I1
sVd5wm564
p2196
I1
sVd0n6hql
p2197
I1
sVd6w6vl6
p2198
I1
sVd0vv0cs
p2199
I1
sVd0sxdnl
p2200
I1
sVcysmz03
p2201
I1
sVdcqjqfq
p2202
I1
sVddcdmkv
p2203
I1
sVdj13txl
p2204
I1
sVdetex2z
p2205
I1
sVdfoxzw8
p2206
I1
sVdfvfqq8
p2207
I1
sVdg5w068
p2208
I1
sVczf7m1m
p2209
I1
sVdqdo8ay
p2210
I1
sVd0trf10
p2211
I1
sVdeetfcg
p2212
I1
sVdgu17u1
p2213
I1
sVdmufnc2
p2214
I1
sVdfhg7k5
p2215
I1
sVdkuexqq
p2216
I1
sVdam1qtz
p2217
I1
sVdt4sjgb
p2218
I1
sVd9khm0n
p2219
I1
sVd68rtj7
p2220
I2
sVd9xr1fz
p2221
I1
sVd8js8z2
p2222
I1
sVd9xurum
p2223
I1
sVde0dujl
p2224
I1
sVd7ass6g
p2225
I1
sVd262zvv
p2226
I2
sVdi2uebk
p2227
I1
sVdb51tq4
p2228
I1
sVdk8f75d
p2229
I1
sVd9c0lin
p2230
I1
sVdcztdab
p2231
I1
sVdo76a8q
p2232
I1
sVdquz5h0
p2233
I1
sVd1tq96p
p2234
I1
sVd3lkthi
p2235
I1
sVd212ynv
p2236
I1
sVdn3mqw8
p2237
I1
sVd0sh1ql
p2238
I1
sVdccu71p
p2239
I1
sVda6jn5f
p2240
I2
sVdr4j8xg
p2241
I1
sVde4w1q1
p2242
I1
sVdal0vb5
p2243
I1
sVd8fa1lw
p2244
I1
sVdgnjo2j
p2245
I1
sVd5sm2rs
p2246
I1
sVd5yrgxp
p2247
I1
sVdk7bv4c
p2248
I1
sVdguse91
p2249
I1
sVd2c1bc2
p2250
I1
sVdamrodi
p2251
I1
sVd5o8xnd
p2252
I1
sVd3dsytt
p2253
I1
sVd1k38xr
p2254
I1
sVd8usbom
p2255
I1
sVd2uvbhc
p2256
I2
sVczhs3nn
p2257
I1
sVdkt9zaa
p2258
I1
sVd2aawkn
p2259
I1
sVd8zw5dl
p2260
I1
sVdqkq6xh
p2261
I1
sVdcr1wbo
p2262
I1
sVd88jo2p
p2263
I1
sVd9vmw14
p2264
I1
sVd7buwsc
p2265
I1
sVd8o6500
p2266
I2
sVdda3psf
p2267
I1
sVdkazicw
p2268
I1
sVdqp3x9b
p2269
I1
sVdmf6vy1
p2270
I1
sVdf9ptie
p2271
I1
sVcyr9b1n
p2272
I1
sVd8zzo0w
p2273
I1
sVdowhzjj
p2274
I1
sVdhswjdf
p2275
I1
sVcypzfux
p2276
I1
sVdt35qgf
p2277
I2
sVdt6chs7
p2278
I1
sVdnl2l9d
p2279
I1
sVdqhexgg
p2280
I1
sVdfln7ir
p2281
I1
sVdqizsce
p2282
I1
sVczfwwfz
p2283
I1
sVd3z9dyg
p2284
I1
sVddonb2y
p2285
I1
sVdel4efc
p2286
I1
sVd0beeg1
p2287
I1
sVdjsluqb
p2288
I1
sVd9w05k4
p2289
I1
sVdeivdi1
p2290
I1
sVdfkep28
p2291
I1
sVdgvxqpn
p2292
I1
sVcyr5qsz
p2293
I2
sVd611sla
p2294
I1
sVdej56oq
p2295
I1
sVdfnf1j9
p2296
I1
sVdehoe8a
p2297
I1
sVd25xynq
p2298
I1
sVd1lio2q
p2299
I1
sVcytkkkp
p2300
I1
sVdpq8v9v
p2301
I1
sVdmvai6c
p2302
I1
sVdprv1kz
p2303
I1
sVcyvp4vk
p2304
I1
sVdjwqsbb
p2305
I1
sVdi0uslp
p2306
I1
sVdduamvu
p2307
I1
sVd01585u
p2308
I1
sVd6hjkqp
p2309
I1
sVdt3cauk
p2310
I1
sVd1o3p8i
p2311
I1
sVdaijsxf
p2312
I1
sVd0cnv8s
p2313
I1
sVczjvcdi
p2314
I1
sVdp51ntt
p2315
I1
sVdiic7f7
p2316
I1
sVd8suw6i
p2317
I2
sVd0pshcp
p2318
I1
sVd0k6egh
p2319
I1
sVdg3psrs
p2320
I1
sVdeqwjqu
p2321
I1
sVcyp9ot4
p2322
I1
sVdsbgnqh
p2323
I1
sVd3f9zi7
p2324
I1
sVdjj78t2
p2325
I1
sVd1s8ix3
p2326
I1
sVdf5yxrb
p2327
I1
sVdhjh9bs
p2328
I1
sVdst678s
p2329
I1
sVdb6obon
p2330
I1
sVd2oad7r
p2331
I1
sVdq3mcjj
p2332
I1
sVd1ekwx1
p2333
I1
sVdcx0dpp
p2334
I1
sVdgpz22e
p2335
I1
sVd2bo87k
p2336
I1
sVd20zief
p2337
I1
sVdgd5s6o
p2338
I1
sVd37rrk9
p2339
I1
sVdsta2yq
p2340
I1
sVd3dt2ex
p2341
I1
sVdtgce0x
p2342
I1
sVdcau6i9
p2343
I1
sVds0hiaj
p2344
I1
sVdh3wm2y
p2345
I1
sVdfh6ht2
p2346
I1
sVd37nk07
p2347
I1
sVdir0aey
p2348
I1
sVd42f313
p2349
I1
sVdcjughj
p2350
I1
sVd0vhqh0
p2351
I1
sVde42diq
p2352
I1
sVderccon
p2353
I1
sVd4xflw6
p2354
I1
sVd629vph
p2355
I1
sVde6xehv
p2356
I1
sVdpydwm0
p2357
I1
sVd6hf1c7
p2358
I1
sVdhn1mcq
p2359
I1
sVdhnfcw1
p2360
I1
sVdpjqvjd
p2361
I1
sVdgt90dq
p2362
I1
sVd5q5xcz
p2363
I1
sVd9uwyui
p2364
I1
sVd6ynfyz
p2365
I1
sVd798ign
p2366
I1
sVd1w5u4y
p2367
I1
sVdt7x8n9
p2368
I1
sVd5c217o
p2369
I1
sVd24f5nw
p2370
I1
sVd8g5638
p2371
I1
sVdhjxuyf
p2372
I1
sVdp09asv
p2373
I1
sVd6d1p6s
p2374
I1
sVd9i3aiv
p2375
I1
sVdi80mes
p2376
I1
sVd5ei4rf
p2377
I1
sVd3pqotq
p2378
I1
sVdizhoh5
p2379
I1
sVddhqduu
p2380
I2
sVd4l80or
p2381
I1
sVd1c3d5x
p2382
I1
sVd2jxrgz
p2383
I1
sVd7leq79
p2384
I1
sVd0yj3g2
p2385
I1
sVdcxq16f
p2386
I1
sVdpxtzgv
p2387
I1
sVddh7guo
p2388
I1
sVd6063u5
p2389
I1
sVdnxhd7g
p2390
I1
sVd0pyhp1
p2391
I1
sVd3mspzx
p2392
I1
sVd1tbpve
p2393
I1
sVdanhcf1
p2394
I1
sVd1imh4q
p2395
I1
sVd7e9de8
p2396
I1
sVdcj0l63
p2397
I1
sVdhrc35i
p2398
I1
sVdcubegf
p2399
I1
sVd0tsxk8
p2400
I1
sVddo65gr
p2401
I1
sVd8u5pkj
p2402
I1
sVdg2c34m
p2403
I1
sVdks6agq
p2404
I1
sVdiugr0o
p2405
I1
sVd0uqnoh
p2406
I1
sVd6ecehk
p2407
I1
sVd7aojoe
p2408
I1
sVd2ix59h
p2409
I1
sVdbw163e
p2410
I1
sVd8wt7sg
p2411
I2
sVd5li0zg
p2412
I1
sVdemf02p
p2413
I1
sVddkn6cn
p2414
I1
sVd923opt
p2415
I1
sVdsg9fw4
p2416
I1
sVcyq9alo
p2417
I2
sVdrogv1j
p2418
I1
sVdt9l990
p2419
I1
sVczbd97z
p2420
I1
sVd2ktaw5
p2421
I1
sVddmkuuc
p2422
I1
sVd972mpi
p2423
I1
sVddsoq96
p2424
I1
sVd48h4fi
p2425
I1
sVdaqb2r2
p2426
I1
sVdni1jhn
p2427
I1
sVdeg65hi
p2428
I1
sVcyqktdy
p2429
I1
sVd2s3itp
p2430
I1
sVdgzpxuh
p2431
I1
sVd3avw7n
p2432
I1
sVdj7qx72
p2433
I1
sVdqoivct
p2434
I1
sVdcktw00
p2435
I1
sVdekt17p
p2436
I1
sVd3ygb6t
p2437
I1
sVdjg3yzo
p2438
I1
sVdq3rlse
p2439
I1
sVd8oaly4
p2440
I1
sVdi2mmd4
p2441
I1
sVdijzj14
p2442
I1
sVdhisjvi
p2443
I1
sVczzo7up
p2444
I1
sVd202kya
p2445
I1
sVd2utv24
p2446
I1
sVdavgewm
p2447
I1
sVdn1q8yh
p2448
I2
sVd6bs1en
p2449
I1
sVdrb2xd3
p2450
I1
sVdbwnqt9
p2451
I1
sVdsytj7h
p2452
I1
sVd2jaqo0
p2453
I1
sVd6hip4p
p2454
I1
sVd3kljuv
p2455
I1
sVdqntk3i
p2456
I1
sVd3j8yez
p2457
I1
sVdbp3u6f
p2458
I2
sVdfwashi
p2459
I1
sVdh6r8wj
p2460
I1
sVd68pglf
p2461
I1
sVddxbsmn
p2462
I1
sVdg0scyw
p2463
I1
sVd3rejj3
p2464
I1
sVdirnwev
p2465
I1
sVd5ft5cy
p2466
I1
sVd00k8yx
p2467
I1
sVd5590dm
p2468
I1
sVd4fnw3i
p2469
I1
sVdbqaa81
p2470
I1
sVdpvegcp
p2471
I1
sVd4hxziw
p2472
I1
sVcykb65a
p2473
I1
sVd6mhurx
p2474
I1
sVdhc1n1j
p2475
I1
sVdd4rok0
p2476
I1
sVd05smlx
p2477
I1
sVdr4yj0a
p2478
I1
sVdgu7z90
p2479
I1
sVd78sky9
p2480
I1
sVdspxh90
p2481
I1
sVddxxbu0
p2482
I1
sVddorz7x
p2483
I1
sVd2pcga1
p2484
I1
sVd5ljesp
p2485
I1
sVd3fdn7l
p2486
I1
sVdqvuy1o
p2487
I1
sVd1m5eot
p2488
I1
sVd07zhz7
p2489
I1
sVd4awv0x
p2490
I1
sVdfp1yt2
p2491
I1
sVdsco1cn
p2492
I1
sVdcaw5sv
p2493
I1
sVd2i07lj
p2494
I1
sVdedwwxx
p2495
I1
sVde4s9et
p2496
I1
sVd6y3wnl
p2497
I1
sVd4rfsl9
p2498
I1
sVdr3744w
p2499
I1
sVd0isvk5
p2500
I1
sVd1l3db5
p2501
I1
sVd19s1nf
p2502
I1
sVd46go8t
p2503
I1
sVdbpfeiy
p2504
I1
sVdqs7ixq
p2505
I1
sVcyj4ttn
p2506
I1
sVcyogbwv
p2507
I1
sVdjy7gpp
p2508
I1
sVdhxn45u
p2509
I1
sVdgxzahq
p2510
I1
sVdf1qdm6
p2511
I1
sVdnmm7fu
p2512
I1
sVd77ahid
p2513
I1
sVd0igwl9
p2514
I1
sVdospp2y
p2515
I1
sVdjmno2j
p2516
I1
sVddwhw5h
p2517
I1
sVdborfbm
p2518
I1
sVdf7i3u2
p2519
I1
sVdp4w56o
p2520
I1
sVd0icfmp
p2521
I1
sVde2mmjm
p2522
I1
sVd0q5p09
p2523
I1
sVdjgaena
p2524
I1
sVczufjjo
p2525
I1
sVdkfd9c8
p2526
I1
sVcz2bhjy
p2527
I1
sVd9lg8vk
p2528
I1
sVd1e36fl
p2529
I1
sVcykcit1
p2530
I3
sVdd6gxxf
p2531
I1
sVdnq79op
p2532
I1
sVdd9qnzb
p2533
I1
sVdgy2pp8
p2534
I1
sVdnm0hhw
p2535
I1
sVd3kta3t
p2536
I1
sVdsvbz8v
p2537
I1
sVdrybq7r
p2538
I1
sVd0ga3fg
p2539
I1
sVdoxj9yt
p2540
I1
sVdc5y6vr
p2541
I1
sVd22rnrk
p2542
I1
sVdh0p47m
p2543
I1
sVcynbd58
p2544
I1
sVdffkwo5
p2545
I1
sVd5yixwa
p2546
I1
sVdg2zrtk
p2547
I1
sVdkabama
p2548
I1
sVdatk2yh
p2549
I1
sVdj39vdv
p2550
I1
sVdesfurl
p2551
I1
sVd1l28ws
p2552
I1
sVdjb33w6
p2553
I1
sVd9dosl9
p2554
I1
sVd2abc5k
p2555
I1
sVd3lvu3n
p2556
I1
sVdg358uj
p2557
I1
sVd6krq3d
p2558
I1
sVd1x45qd
p2559
I1
sVdbpa6f9
p2560
I1
sVd52qlde
p2561
I2
sVddx0bk6
p2562
I1
sVdi4fv5k
p2563
I1
sVdipjfuy
p2564
I1
sVdi9b951
p2565
I1
sVd5j8hcr
p2566
I1
sVdc0vg8u
p2567
I1
sVdrr8dko
p2568
I1
sVdij83hi
p2569
I1
sVd0taivn
p2570
I1
sVddolpsd
p2571
I1
sVczdn1bu
p2572
I1
sVds2b2ug
p2573
I1
sVd82fuae
p2574
I1
sVdg8m0ja
p2575
I1
sVdhkmtkg
p2576
I1
sVddil3i0
p2577
I1
sVd00h6so
p2578
I1
sVd074v35
p2579
I1
sVdt5zgva
p2580
I1
sVczb9bjn
p2581
I1
sVczcdt94
p2582
I1
sVd792rxr
p2583
I1
sVcz8sp34
p2584
I1
sVdphixho
p2585
I1
sVdnyaxb8
p2586
I1
sVd2799ko
p2587
I1
sVd885l0g
p2588
I1
sVdt3hk2r
p2589
I2
sVdbjx5a7
p2590
I1
sVczyskrx
p2591
I1
sVcymqznp
p2592
I1
sVdeu24em
p2593
I1
sVddbq194
p2594
I1
sVd5zwswe
p2595
I1
sVd6i703k
p2596
I1
sVd15ovrx
p2597
I1
sVdohgnde
p2598
I1
sVdtiekri
p2599
I1
sVd1fqhw6
p2600
I1
sVdhtl1nk
p2601
I1
sVd5je1cp
p2602
I1
sVdbrffom
p2603
I1
sVd81z3ve
p2604
I1
sVd61gw5o
p2605
I1
sVd0smbvm
p2606
I1
sVdh5a9w2
p2607
I1
sVd3rt6cl
p2608
I1
sVd0m1h5k
p2609
I1
sVdmuzpp4
p2610
I1
sVdsfvzjr
p2611
I1
sVdfa0ygr
p2612
I1
sVd6nzexg
p2613
I1
sVdg4e3xm
p2614
I1
sVdaseui6
p2615
I1
sVdfppicl
p2616
I1
sVdcq45o8
p2617
I1
sVd89bv68
p2618
I1
sVds2q3nd
p2619
I1
sVd8cvwd6
p2620
I1
sVdgh5mx4
p2621
I1
sVdsk0r5y
p2622
I1
sVdjcu660
p2623
I1
sVd39rrjj
p2624
I1
sVczcast0
p2625
I1
sVd2cdqqw
p2626
I1
sVcyion75
p2627
I1
sVd16hppk
p2628
I2
sVd0pm42h
p2629
I1
sVdtfjdga
p2630
I1
sVcyo6n9w
p2631
I1
sVds9pivj
p2632
I1
sVdo27y0d
p2633
I1
sVcynsojw
p2634
I2
sVdikma06
p2635
I1
sVcyx9pqj
p2636
I1
sVdmz925s
p2637
I1
sVddxfvek
p2638
I1
sVd3xzkdw
p2639
I1
sVd39zj6y
p2640
I1
sVd6x4l8j
p2641
I1
sVdfivgem
p2642
I1
sVdq6j0x5
p2643
I1
sVdnbs4av
p2644
I1
sVdt64s06
p2645
I1
sVd2q9waq
p2646
I1
sVd5u2wih
p2647
I1
sVd28fr6c
p2648
I2
sVddcqlly
p2649
I1
sVd9lwia6
p2650
I1
sVdiib8ol
p2651
I1
sVdomevg0
p2652
I1
sVd0nr8mm
p2653
I1
sVd468hkv
p2654
I1
sVdn0o375
p2655
I2
sVdedf93f
p2656
I1
sVdsz253h
p2657
I1
sVderwl80
p2658
I1
sVdqedhbb
p2659
I1
sVd1qhpup
p2660
I1
sVdfl2295
p2661
I3
sVdd464xd
p2662
I1
sVcyi9stv
p2663
I1
sVdfz6izy
p2664
I1
sVd0dz30a
p2665
I1
sVd0co86o
p2666
I1
sVdrnqrm8
p2667
I1
sVdejkuea
p2668
I1
sVd984fz5
p2669
I1
sVczu10eo
p2670
I1
sVd13sf4z
p2671
I1
sVdgfqwk7
p2672
I1
sVd1s896e
p2673
I1
sVde0he6w
p2674
I1
sVd0lenwx
p2675
I1
sVdqmwm38
p2676
I1
sVdj9uccc
p2677
I1
sVd45sd7j
p2678
I1
sVd037hmx
p2679
I1
sVd1g9da0
p2680
I1
sVd694vlf
p2681
I1
sVdqx2lur
p2682
I1
sVd92yky5
p2683
I1
sVdjvnon3
p2684
I1
sVd8i9jxz
p2685
I1
sVdbe048i
p2686
I1
sVdb7d9sq
p2687
I1
sVd2zvidy
p2688
I1
sVd572bno
p2689
I1
sVdpj6jhb
p2690
I1
sVdhtj26m
p2691
I1
sVcz236ww
p2692
I1
sVd9c2eh9
p2693
I1
sVd5sqh8m
p2694
I1
sVd5ew16p
p2695
I1
sVdrmq3lr
p2696
I1
sVcz9sxfr
p2697
I1
sVd0t3ety
p2698
I1
sVd5wkzr3
p2699
I1
sVdk0qamh
p2700
I1
sVdmm6x4o
p2701
I1
sVdaj8z7g
p2702
I1
sVd25btqo
p2703
I1
sVdfjxngu
p2704
I1
sVd86wm09
p2705
I2
sVd679drv
p2706
I1
sVd00r92z
p2707
I1
sVdbqqhn1
p2708
I1
sVczzp5ow
p2709
I2
sVczxb5pa
p2710
I1
sVd22cqv4
p2711
I1
sVdon4pql
p2712
I1
sVcze7y6a
p2713
I1
sVd9pj5uy
p2714
I1
sVdhhzanj
p2715
I1
sVdalra8n
p2716
I1
sVd1a6gzz
p2717
I2
sVdjom4nx
p2718
I1
sVdmir68i
p2719
I1
sVd9n0i24
p2720
I1
sVdrhmsat
p2721
I1
sVdbn7xlj
p2722
I1
sVdj08hwm
p2723
I1
sVdr5xsgd
p2724
I1
sVcz7gezx
p2725
I1
sVd15f4bp
p2726
I1
sVcyp3p9l
p2727
I1
sVdnjd1zy
p2728
I1
sVd191s1p
p2729
I1
sVdjgi1dy
p2730
I1
sVde4mmva
p2731
I1
sVcz8mgew
p2732
I1
sVdk15577
p2733
I1
sVd3e2o3m
p2734
I1
sVd1c1zx5
p2735
I1
sVczh1tc9
p2736
I1
sVd6dv3fi
p2737
I1
sVd13s07p
p2738
I1
sVdhrp0ef
p2739
I1
sVdgaupxw
p2740
I1
sVdgbiah6
p2741
I1
sVd3uckqh
p2742
I1
sVdiyvbw4
p2743
I1
sVdn23d1o
p2744
I1
sVcz9riwa
p2745
I1
sVczw0k3j
p2746
I1
sVdqcbf8x
p2747
I1
sVd4qqddt
p2748
I1
sVd1gi6l5
p2749
I1
sVdaojvon
p2750
I1
sVd42tg5k
p2751
I1
sVdadnzkt
p2752
I1
sVd1loh9t
p2753
I1
sVdairblz
p2754
I1
sVda5zaqq
p2755
I2
sVdh7xuu7
p2756
I1
sVd3u76ky
p2757
I1
sVdd1bvxx
p2758
I1
sVdikdshh
p2759
I1
sVd8d3k7y
p2760
I1
sVdqgkhe4
p2761
I1
sVdsn1tp4
p2762
I1
sVdiqaeyt
p2763
I1
sVd71rjrh
p2764
I1
sVda9tj2o
p2765
I1
sVdfrnaqb
p2766
I1
sVdgcuxgp
p2767
I1
sVd6qj0mu
p2768
I3
sVd3k4o7r
p2769
I1
sVdom9q1p
p2770
I1
sVdjpw3rv
p2771
I1
sVdms0io3
p2772
I1
sVdi36k3w
p2773
I1
sVda8tz1l
p2774
I2
sVdfkjfvb
p2775
I1
sVcz92m6a
p2776
I1
sVdhkjf34
p2777
I2
sVdgo6reo
p2778
I1
sVdq81tnv
p2779
I1
sVdc9m3qk
p2780
I1
sVd74sx2s
p2781
I2
sVd6lw77w
p2782
I1
sVd8alhsg
p2783
I1
sVd0cd3y5
p2784
I1
sVdj42p5b
p2785
I1
sVd3udzwg
p2786
I1
sVd50q7q7
p2787
I1
sVd63fsv4
p2788
I2
sVd4wtj35
p2789
I1
sVd90herw
p2790
I1
sVdo2uae7
p2791
I1
sVdfin70y
p2792
I1
sVdk8s0gt
p2793
I1
sVd1dn7fl
p2794
I1
sVdeen3fz
p2795
I1
sVdcby7qj
p2796
I1
sVd0ck5am
p2797
I1
sVdsdx379
p2798
I1
sVd1ozkbx
p2799
I1
sVd1p1p24
p2800
I1
sVczjc41x
p2801
I1
sVd0xvnuu
p2802
I1
sVdim0pg2
p2803
I1
sVdenuagn
p2804
I1
sVdcmnlpm
p2805
I1
sVddnhe6a
p2806
I1
sVdjhf7f3
p2807
I1
sVd6gjipb
p2808
I1
sVdhpgjo9
p2809
I1
sVd5rizq7
p2810
I1
sVd108zua
p2811
I1
sVdel40u2
p2812
I1
sVd5hx2ew
p2813
I1
sVd1hlnl5
p2814
I1
sVdpjvgke
p2815
I1
sVdavf4qq
p2816
I1
sVdecbh20
p2817
I1
sVd15m5ny
p2818
I1
sVdjcwqdi
p2819
I1
sVdbpsbl2
p2820
I1
sVd3wiiso
p2821
I1
sVdgonb43
p2822
I1
sVdch78cn
p2823
I1
sVdh4fpk9
p2824
I1
sVdroz4gv
p2825
I1
sVd6f7e64
p2826
I1
sVdkd4aq8
p2827
I1
sVd9ag18v
p2828
I1
sVdalif4p
p2829
I1
sVddhsget
p2830
I1
sVdfhvsqv
p2831
I1
sVd0q6hyg
p2832
I1
sVdd1e8he
p2833
I1
sVd0mv36j
p2834
I1
sVdozqy1u
p2835
I1
sVdj3k0eu
p2836
I1
sVd0vb8qf
p2837
I1
sVdkstc25
p2838
I1
sVd9rizmy
p2839
I1
sVdajjelu
p2840
I1
sVdaw8e19
p2841
I1
sVdbw3agj
p2842
I1
sVd6ih583
p2843
I1
sVda8l6g0
p2844
I1
sVdk3iqzy
p2845
I1
sVdhsgk8s
p2846
I1
sVczgl18v
p2847
I1
sVda3ldik
p2848
I1
sVdizdpbs
p2849
I1
sVdrqal2p
p2850
I1
sVds4t95d
p2851
I1
sVdevtud3
p2852
I1
sVd9r3zgc
p2853
I1
sVd4lf3wk
p2854
I1
sVdd601if
p2855
I1
sVdsxj84a
p2856
I1
sVdh5nzcs
p2857
I1
sVdqp4bwx
p2858
I1
sVdmr3xut
p2859
I1
sVd0qzbqp
p2860
I1
sVdcixtk8
p2861
I1
sVd3rp6er
p2862
I1
sVdd3fo0t
p2863
I1
sVd3u6tyl
p2864
I1
sVda4911o
p2865
I1
sVdhlse1x
p2866
I1
sVdqgwynd
p2867
I1
sVd7bhty6
p2868
I1
sVdcvwxmb
p2869
I1
sVd1fa2g1
p2870
I2
sVdb1gkap
p2871
I1
sVd2tjxkt
p2872
I1
sVdbaigfy
p2873
I1
sVdqjflyq
p2874
I1
sVddnpmca
p2875
I1
sVd7nznqe
p2876
I1
sVdk2x2y0
p2877
I1
sVdpvmmdd
p2878
I1
sVdp2ddx0
p2879
I1
sVd2bvsq2
p2880
I1
sVdi0etkw
p2881
I1
sVdqo1g28
p2882
I1
sVd1rvxv8
p2883
I1
sVddrgj56
p2884
I1
sVd75isw8
p2885
I1
sVd5mcajd
p2886
I1
sVdiu78kh
p2887
I1
sVdaehvc9
p2888
I1
sVcyleu7u
p2889
I1
sVd2t4czj
p2890
I1
sVdndehfh
p2891
I1
sVd9p4zh5
p2892
I1
sVd68xywu
p2893
I1
sVdaucgkk
p2894
I1
sVd2canhi
p2895
I1
sVdn9hyi1
p2896
I1
sVdekmubc
p2897
I1
sVd8djevs
p2898
I1
sVd0787nk
p2899
I1
sVd0o9wud
p2900
I1
sVd1e4t9g
p2901
I1
sVdcsyb4v
p2902
I2
sVddf2zsi
p2903
I1
sVdeuot7f
p2904
I2
sVd8d029v
p2905
I1
sVdkfliph
p2906
I1
sVdj831tj
p2907
I1
sVdil7zqh
p2908
I1
sVdmp9cqr
p2909
I1
sVd6e4op9
p2910
I1
sVdfdjvau
p2911
I1
sVdfjrkjz
p2912
I1
sVdau7u90
p2913
I1
sVdbifv6u
p2914
I2
sVcyptj8a
p2915
I1
sVczesxyw
p2916
I1
sVd434zj4
p2917
I1
sVd41in52
p2918
I1
sVd2my3qz
p2919
I1
sVd70p332
p2920
I1
sVdi7a0l4
p2921
I1
sVdblgbw2
p2922
I1
sVdjhyx57
p2923
I1
sVdbmzk7s
p2924
I1
sVdhlpp6g
p2925
I1
sVd2f0rwf
p2926
I1
sVczdp60k
p2927
I1
sVdbe6jc9
p2928
I1
sVdfojjze
p2929
I1
sVd4vxsa1
p2930
I1
sVdk4z4hz
p2931
I1
sVdcb2ech
p2932
I1
sVdkbnsyy
p2933
I1
sVdbeqyzh
p2934
I1
sVd7x2c75
p2935
I1
sVdowe3x9
p2936
I1
sVdhbzzp2
p2937
I1
sVdcr4b91
p2938
I1
sVdnpp9ba
p2939
I1
sVdowxfi8
p2940
I1
sVd7se46u
p2941
I1
sVdnw63s6
p2942
I1
sVdt6omht
p2943
I1
sVd3o553u
p2944
I1
sVdabwj5s
p2945
I1
sVd62tfh9
p2946
I1
sVdf4yrf6
p2947
I1
sVdbxhnld
p2948
I1
sVd47zoif
p2949
I1
sVd5wpne6
p2950
I1
sVdsfwxqm
p2951
I1
sVdcwzdbb
p2952
I1
sVdpm15qx
p2953
I2
sVdo4wcec
p2954
I1
sVd8t15kd
p2955
I1
sVd0n6v4o
p2956
I1
sVdmjq9e2
p2957
I1
sVdjox0kz
p2958
I1
sVdb0w48c
p2959
I1
sVdfremr8
p2960
I1
sVczb5syf
p2961
I1
sVde2k4s4
p2962
I1
sVd7kfyol
p2963
I1
sVdg94x0k
p2964
I1
sVdcsn9l6
p2965
I1
sVd7rbjqe
p2966
I1
sVd4gpmw8
p2967
I1
sVd1iwt6d
p2968
I1
sVd2gwq0y
p2969
I1
sVd7c6nz6
p2970
I1
sVdn1ey0r
p2971
I2
sVdh6jxs3
p2972
I1
sVd2l913q
p2973
I1
sVdrrbl6k
p2974
I1
sVdmlgkhs
p2975
I1
sVd00lfu6
p2976
I1
sVdbqreb0
p2977
I2
sVdjd9xfy
p2978
I1
sVdbeutjw
p2979
I1
sVdiedvbr
p2980
I1
sVd34pkk5
p2981
I1
sVdi0ozfr
p2982
I1
sVdr3bfh2
p2983
I2
sVde55km6
p2984
I1
sVdixbw08
p2985
I1
sVd4ufe7f
p2986
I1
sVdqbpgvi
p2987
I1
sVdanlrcu
p2988
I1
sVcyv8vgx
p2989
I1
sVdqeu9fn
p2990
I1
sVd54qx6e
p2991
I1
sVdodqqte
p2992
I2
sVd40fbod
p2993
I1
sVd8czm1k
p2994
I1
sVdkr33nl
p2995
I1
sVdg9r4p2
p2996
I1
sVd7myj5a
p2997
I1
sVds9svav
p2998
I1
sVd59ipsi
p2999
I1
sVd2qzomt
p3000
I1
sVdjmuzok
p3001
I1
sVd5ygjfx
p3002
I1
sVdqxqkg0
p3003
I2
sVdmvixk2
p3004
I1
sVdir1qs6
p3005
I1
sVczp0c7i
p3006
I1
sVd2w09ty
p3007
I1
sVdqg1q8h
p3008
I1
sVdgbwu4m
p3009
I1
sVd77opcg
p3010
I1
sVdbk6wgy
p3011
I1
sVd59riai
p3012
I1
sVd7oavn0
p3013
I1
sVd38gm1d
p3014
I1
sVdojd6uy
p3015
I1
sVd2lvm1l
p3016
I1
sVdcmw7sf
p3017
I1
sVdcjpx3x
p3018
I1
sVddcly8c
p3019
I1
sVd0jjeiv
p3020
I1
sVdp5979g
p3021
I1
sVd04qsun
p3022
I1
sVdf44rkr
p3023
I1
sVczgr9l0
p3024
I1
sVd1xzpwc
p3025
I1
sVd5w777j
p3026
I1
sVdiz1yai
p3027
I1
sVd57ugaa
p3028
I1
sVdbz4z68
p3029
I1
sVdbk1plk
p3030
I1
sVdadtple
p3031
I2
sVd0eggja
p3032
I1
sVczc9bhc
p3033
I1
sVditg3eq
p3034
I1
sVd82g1b2
p3035
I1
sVdaopvd5
p3036
I1
sVd1g9mek
p3037
I1
sVd1riode
p3038
I1
sVdoa919j
p3039
I1
sVd39oppw
p3040
I1
sVd6sky6v
p3041
I1
sVde8mwu0
p3042
I1
sVdgukt1p
p3043
I1
sVd8dk6ox
p3044
I1
sVdsbw52t
p3045
I1
sVd83i5ct
p3046
I1
sVd4zxsn8
p3047
I1
sVd2yssaw
p3048
I1
sVdd8euqi
p3049
I1
sVdk348yg
p3050
I1
sVd6qi8h2
p3051
I1
sVdpcyo7b
p3052
I2
sVdenyiah
p3053
I1
sVdbjpgjj
p3054
I1
sVd75tfsl
p3055
I1
sVde6ztn0
p3056
I1
sVdeexe7v
p3057
I1
sVd3w3jvr
p3058
I1
sVcyjkpb3
p3059
I1
sVdjoqeio
p3060
I1
sVdfptkb6
p3061
I1
sVdelmag1
p3062
I1
sVdi0vqry
p3063
I1
sVczb2kfr
p3064
I1
sVdkmw44r
p3065
I1
sVd0vo9rb
p3066
I1
sVd3z6zzu
p3067
I2
sVdd9mwqi
p3068
I1
sVdif5qvl
p3069
I1
sVd076dp6
p3070
I1
sVdnlwz9h
p3071
I1
sVd6ib1qd
p3072
I1
sVdmw7ipz
p3073
I1
sVdkbyi29
p3074
I1
sVdd2y4gc
p3075
I1
sVdnxr7sa
p3076
I1
sVdjvbfzv
p3077
I1
sVdiahkqi
p3078
I1
sVd8ms8tb
p3079
I1
sVdp4uclk
p3080
I1
sVdiq2o33
p3081
I1
sVd0fjtnu
p3082
I1
sVd9v1pcg
p3083
I1
sVdk7bdkt
p3084
I1
sVdb6vop8
p3085
I1
sVd339gn9
p3086
I1
sVdpmk0uc
p3087
I1
sVdk4tvw5
p3088
I1
sVcyjndpv
p3089
I1
sVdkx6wks
p3090
I1
sVdf5en85
p3091
I1
sVd3npmag
p3092
I1
sVd35ce6s
p3093
I1
sVd5sgo0i
p3094
I1
sVdjrblqy
p3095
I1
sVdeaxweg
p3096
I1
sVdg8n5g3
p3097
I1
sVcyp8a3l
p3098
I1
sVd8hif29
p3099
I1
sVd5tlue4
p3100
I1
sVd419q89
p3101
I1
sVd2ve5yn
p3102
I1
sVdpnsglj
p3103
I1
sVddanwba
p3104
I1
sVdfuwbh0
p3105
I1
sVd7cj5s4
p3106
I1
sVdkbqicv
p3107
I1
sVd3fd39p
p3108
I1
sVdazeroj
p3109
I1
sVd0m12hv
p3110
I1
sVd0ew848
p3111
I1
sVd7v3pdh
p3112
I1
sVd3v0187
p3113
I1
sVdbld329
p3114
I1
sVd1sfdos
p3115
I1
sVczch81r
p3116
I1
sVddhlg3h
p3117
I1
sVd9q5ink
p3118
I1
sVdf8yqis
p3119
I1
sVd0aop1u
p3120
I1
sVdcy8yj5
p3121
I1
sVczb0vqj
p3122
I1
sVd2kzbih
p3123
I1
sVdbpgxnx
p3124
I1
sVdiubiro
p3125
I1
sVdbderwv
p3126
I1
sVdj634wr
p3127
I1
sVdkssvd5
p3128
I1
sVd2a8lub
p3129
I1
sVdifpnxn
p3130
I1
sVd6btw8x
p3131
I1
sVd8u1dum
p3132
I1
sVd9r5s26
p3133
I2
sVd54hodf
p3134
I1
sVd1na6jo
p3135
I1
sVd3k6x7i
p3136
I1
sVdd36ves
p3137
I1
sVddxdxqb
p3138
I1
sVd6u6lur
p3139
I1
sVdewpkww
p3140
I2
sVczomhoa
p3141
I1
sVdmpxco8
p3142
I1
sVd4ux69b
p3143
I1
sVdb557dm
p3144
I2
sVdacfhor
p3145
I1
sVdnm5jhj
p3146
I2
sVdjfxbiz
p3147
I1
sVd7yu8ct
p3148
I1
sVdewhbxa
p3149
I1
sVdco4crz
p3150
I1
sVdbk23vy
p3151
I1
sVd9y1jb8
p3152
I1
sVd8azojq
p3153
I1
sVd0i0ag4
p3154
I1
sVd5e09bv
p3155
I1
sVd0pocrd
p3156
I2
sVcz7p01l
p3157
I1
sVd3n1cm8
p3158
I1
sVdcw2uao
p3159
I1
sVdgcf2xb
p3160
I1
sVdrhrf20
p3161
I1
sVd6guo4e
p3162
I1
sVd2an3we
p3163
I1
sVd1b5w9v
p3164
I1
sVcyvmi18
p3165
I1
sVd8iy1f3
p3166
I1
sVdf4f7ok
p3167
I1
sVd00c80q
p3168
I1
sVdg1tl5e
p3169
I1
sVdmtv38e
p3170
I1
sVd42z2kf
p3171
I1
sVds4yqc6
p3172
I1
sVdgkexwg
p3173
I1
sVdowgdi1
p3174
I1
sVd5p3ujx
p3175
I1
sVdqumt6m
p3176
I1
sVdqd823m
p3177
I1
sVdkkzdoi
p3178
I1
sVdndja4d
p3179
I1
sVdququai
p3180
I1
sVd78bqxu
p3181
I1
sVd406drn
p3182
I2
sVd62twa8
p3183
I1
sVdfytzdq
p3184
I1
sVda01m83
p3185
I1
sVd62ucja
p3186
I1
sVdi2mqe4
p3187
I1
sVdf3ruz7
p3188
I1
sVdcj8l9g
p3189
I1
sVd6qjtmt
p3190
I1
sVdc1ddaz
p3191
I1
sVcyw10c5
p3192
I1
sVdd37pv4
p3193
I1
sVdmkvy7c
p3194
I1
sVd9amfci
p3195
I1
sVd2pnoyz
p3196
I1
sVdrkz9pf
p3197
I1
sVddinz59
p3198
I1
sVdju68fv
p3199
I1
sVcznu6y0
p3200
I1
sVdasxe5t
p3201
I1
sVdhv11cj
p3202
I1
sVcza5huc
p3203
I1
sVdjuv9js
p3204
I1
sVdr4ivc2
p3205
I1
sVcywmyr4
p3206
I1
sVd4k2oe9
p3207
I1
sVd18own4
p3208
I1
sVd02gowu
p3209
I1
sVd7fawtb
p3210
I2
sVdt8z6v4
p3211
I1
sVczhtwcx
p3212
I1
sVdfd8gu8
p3213
I1
sVdi9h82p
p3214
I1
sVdrtdltf
p3215
I1
sVdbero8x
p3216
I1
sVd49jxx2
p3217
I1
sVdp33xd3
p3218
I1
sVdqmwi4n
p3219
I1
sVcyjaups
p3220
I1
sVd434rgq
p3221
I1
sVd59j5wz
p3222
I1
sVdd96ym2
p3223
I1
sVd7afx4c
p3224
I1
sVdh7m45s
p3225
I1
sVcz5p96a
p3226
I1
sVdjdsleb
p3227
I1
sVdiqy587
p3228
I1
sVd0llmvm
p3229
I1
sVd6tvhmv
p3230
I1
sVdoj1ncn
p3231
I1
sVdgqymww
p3232
I1
sVdntuyfx
p3233
I1
sVdjaxaep
p3234
I1
sVd3a2lrz
p3235
I1
sVdiq9bgu
p3236
I1
sVd2srn1i
p3237
I1
sVddemi50
p3238
I1
sVd56j2yc
p3239
I1
sVdifax5k
p3240
I2
sVd29l13w
p3241
I1
sVd6lv2r7
p3242
I1
sVdbmren3
p3243
I1
sVd9tssbq
p3244
I1
sVdnznmen
p3245
I1
sVdee4isz
p3246
I3
sVd83r5m9
p3247
I1
sVd093p5a
p3248
I1
sVd68gjsd
p3249
I1
sVd3f46nq
p3250
I1
sVdsnrxvj
p3251
I1
sVdca7h1n
p3252
I1
sVdewbwd1
p3253
I1
sVd6beprg
p3254
I1
sVczmrtar
p3255
I1
sVd0lj5gw
p3256
I1
sVd5zccn5
p3257
I1
sVdaiy1xk
p3258
I1
sVdai0lk1
p3259
I1
sVdqyvkf0
p3260
I1
sVd4pdzxt
p3261
I1
sVdc4cmmh
p3262
I1
sVd0sht8o
p3263
I1
sVd3r5fyb
p3264
I1
sVdgdl8bn
p3265
I1
sVcz5krzl
p3266
I2
sVdbnkcef
p3267
I1
sVda1z8zz
p3268
I1
sVdtdt8bm
p3269
I1
sVd405rxk
p3270
I1
sVczzmsn0
p3271
I1
sVd5yd41m
p3272
I1
sVde1htle
p3273
I1
sVdhh8aee
p3274
I1
sVd9pmc8j
p3275
I1
sVd5jyron
p3276
I1
sVcz3tamm
p3277
I1
sVdccqo0e
p3278
I1
sVcyje3dn
p3279
I1
sVdhnqrhb
p3280
I1
sVcz0pqhk
p3281
I2
sVdsvw26t
p3282
I1
sVd1a2h64
p3283
I1
sVd0asovi
p3284
I1
sVd14vfax
p3285
I1
sVd2o364q
p3286
I1
sVde5nrph
p3287
I1
sVd1omhzy
p3288
I1
sVd21s0yq
p3289
I1
sVd6x0jl7
p3290
I1
sVd1iq9k7
p3291
I1
sVdbewqqx
p3292
I2
sVdrnhik7
p3293
I1
sVdhx3zoi
p3294
I1
sVd2levn2
p3295
I1
sVd2ug41k
p3296
I1
sVd5vv7s1
p3297
I1
sVdpore3n
p3298
I1
sVdn0e0t3
p3299
I2
sVd86sfj5
p3300
I1
sVdt6018r
p3301
I1
sVd5r7cal
p3302
I1
sVd1t3gm4
p3303
I1
sVczl5iol
p3304
I1
sVdgj10xs
p3305
I1
sVdaa9cb7
p3306
I1
sVdmo6lmd
p3307
I1
sVdhpy26b
p3308
I1
sVdf1w1fc
p3309
I1
sVd1ij9gs
p3310
I1
sVd33n07k
p3311
I1
sVdf22bam
p3312
I1
sVd0cqjmc
p3313
I1
sVd6aiv4d
p3314
I1
sVdewud4c
p3315
I1
sVdd3g8oa
p3316
I1
sVd4dadrn
p3317
I1
sVd018t15
p3318
I1
sVd2inhju
p3319
I1
sVdigdncw
p3320
I1
sVde659st
p3321
I1
sVd88que7
p3322
I1
sVdan8ji3
p3323
I1
sVcywh0o2
p3324
I1
sVd575r6v
p3325
I1
sVddpxomb
p3326
I1
sVdd4x189
p3327
I1
sVds2vxsb
p3328
I1
sVdb897s6
p3329
I1
sVczsk80n
p3330
I1
sVdjmo9su
p3331
I1
sVdg8pyxw
p3332
I1
sVd9vafc1
p3333
I2
sVdsq5h7y
p3334
I1
sVdcuc4o8
p3335
I1
sVdqnpw1q
p3336
I1
sVds9w2i0
p3337
I1
sVdfg7j2f
p3338
I1
sVdo8m9qt
p3339
I1
sVd9acdbu
p3340
I1
sVdeqy7ct
p3341
I1
sVd6m8gqj
p3342
I1
sVdcfjg6k
p3343
I1
sVd08a1fr
p3344
I1
sVdgf0r2i
p3345
I1
sVde32104
p3346
I1
sVdb08d6n
p3347
I1
sVd08t026
p3348
I1
sVd84l4wf
p3349
I1
sVdfrc5cc
p3350
I1
sVd0mtwr2
p3351
I1
sVdevxrft
p3352
I1
sVd05skva
p3353
I1
sVczey40h
p3354
I1
sVdnnf0mk
p3355
I1
sVdetzvhb
p3356
I1
sVd1iensn
p3357
I1
sVczzzeyy
p3358
I1
sVcyvm8vw
p3359
I1
sVd0hyvth
p3360
I1
sVdahy4nz
p3361
I1
sVd02fr5z
p3362
I1
sVczrzz06
p3363
I1
sVdmjlzop
p3364
I1
sVd2sviwu
p3365
I1
sVdagbjxo
p3366
I1
sVd10sh9h
p3367
I1
sVdf92z6n
p3368
I1
sVd2krsvd
p3369
I1
sVddqupe4
p3370
I1
sVd5y81xo
p3371
I1
sVdn339hn
p3372
I1
sVdtalm0a
p3373
I1
sVd5p6mir
p3374
I1
sVddivaig
p3375
I1
sVd34tbuw
p3376
I1
sVdavrl9a
p3377
I1
sVdkx7c7q
p3378
I1
sVdjr50ea
p3379
I1
sVcypsvq3
p3380
I1
sVd1ttqg9
p3381
I1
sVczfa7v8
p3382
I1
sVdqtcpri
p3383
I1
sVdc0wd2z
p3384
I1
sVdom73kh
p3385
I1
sVczgrjbu
p3386
I1
sVddjr02m
p3387
I1
sVd2wbf1h
p3388
I1
sVdiict1y
p3389
I1
sVd2u1qn7
p3390
I1
sVd8mt74d
p3391
I1
sVdqidt4n
p3392
I1
sVdidxpja
p3393
I1
sVddwofep
p3394
I1
sVdt83m0c
p3395
I1
sVd9voqp8
p3396
I1
sVdj0oq60
p3397
I1
sVdas9c2y
p3398
I1
sVd9iua41
p3399
I1
sVdhkw8uo
p3400
I1
sVdepoqrn
p3401
I1
sVdktt1w6
p3402
I1
sVd0pince
p3403
I1
sVdjn7n6l
p3404
I1
sVd8ghyvv
p3405
I1
sVd5m98fh
p3406
I1
sVd67sbik
p3407
I2
sVdhj63c7
p3408
I1
sVd926aan
p3409
I1
sVdi1qhn5
p3410
I1
sVdcpws02
p3411
I1
sVdmqm4tk
p3412
I1
sVdhttsox
p3413
I1
sVd55mn1e
p3414
I1
sVdfp2y0w
p3415
I1
sVd0psa6z
p3416
I1
sVdo2idpf
p3417
I1
sVd5dxr6a
p3418
I1
sVdakuv6n
p3419
I1
sVdpus659
p3420
I1
sVd675jgf
p3421
I1
sVdqvn15d
p3422
I1
sVd7sxxim
p3423
I1
sVdc944mw
p3424
I1
sVdbogrxx
p3425
I1
sVd4ugclv
p3426
I1
sVd0rdunk
p3427
I1
sVdmk4wjn
p3428
I1
sVd2escls
p3429
I1
sVdgvxab4
p3430
I1
sVcyv4543
p3431
I1
sVdex6l9a
p3432
I1
sVd83ch1x
p3433
I1
sVdt11bbz
p3434
I1
sVdqc7p7w
p3435
I1
sVdhtjrzk
p3436
I1
sVdcdwfx2
p3437
I1
sVcz3q2gi
p3438
I1
sVdbjeqk5
p3439
I1
sVdgwgfuo
p3440
I1
sVd1uy6ld
p3441
I1
sVdg48x61
p3442
I1
sVd1eftrz
p3443
I1
sVdg1gysx
p3444
I1
sVczonsby
p3445
I1
sVdfct4hg
p3446
I1
sVd4iz12c
p3447
I1
sVd8hbi6y
p3448
I1
sVdd9vx97
p3449
I1
sVdcxvcqz
p3450
I1
sVdira81m
p3451
I1
sVd65b5xk
p3452
I1
sVcz4388b
p3453
I1
sVda3cz3o
p3454
I1
sVdpq6nox
p3455
I1
sVdqq8fmt
p3456
I1
sVdd08oxe
p3457
I1
sVdjvisy6
p3458
I1
sVdbp6cnj
p3459
I1
sVdbw288q
p3460
I1
sVdoe3kgb
p3461
I1
sVcyroya1
p3462
I1
sVdgbxg9l
p3463
I1
sVd3yzr5m
p3464
I1
sVdfosn86
p3465
I1
sVd6yq64q
p3466
I1
sVd8dc61q
p3467
I1
sVdi2f1qi
p3468
I1
sVdgn3jjg
p3469
I1
sVd0l73j7
p3470
I1
sVdciwxfh
p3471
I1
sVcyojv4c
p3472
I1
sVdmlohqx
p3473
I1
sVdrnd47x
p3474
I1
sVdnww2lr
p3475
I1
sVd1v9r8z
p3476
I1
sVdbvpiee
p3477
I1
sVde2rmqc
p3478
I1
sVd9tz9ik
p3479
I1
sVdt2snfr
p3480
I1
sVdkxbmja
p3481
I1
sVdj22cqv
p3482
I2
sVdr4rluj
p3483
I1
sVd7yicun
p3484
I1
sVdr4iwiy
p3485
I1
sVd4fhmeb
p3486
I1
sVdppkx1b
p3487
I1
sVdadh78g
p3488
I1
sVdp5gww8
p3489
I1
sVdc4ml7o
p3490
I1
sVdpurcxn
p3491
I1
sVd93i0hr
p3492
I1
sVczw0cva
p3493
I1
sVcz9l5fn
p3494
I1
sVcytxz63
p3495
I1
sVdpp8w9u
p3496
I1
sVdn0djku
p3497
I2
sVdn3b0bq
p3498
I1
sVdc2p9ra
p3499
I1
sVcyk7s2k
p3500
I1
sVczoljp7
p3501
I1
sVd3z1n7w
p3502
I1
sVdh2moop
p3503
I1
sVdbdjtgp
p3504
I1
sVd95f96j
p3505
I1
sVcyjbadl
p3506
I1
sVdio5owe
p3507
I1
sVdg3z87b
p3508
I1
sVd7y7dd7
p3509
I1
sVczwrgoo
p3510
I1
sVd4reki3
p3511
I1
sVdcf94gf
p3512
I1
sVdp5a5ys
p3513
I1
sVdgtgggg
p3514
I2
sVd67b7e3
p3515
I2
sVd8df9qf
p3516
I1
sVd72dgw9
p3517
I1
sVd10pe16
p3518
I1
sVd7u7o40
p3519
I1
sVdn2hmuk
p3520
I1
sVdob3n50
p3521
I1
sVcymk38d
p3522
I1
sVdrwbk1j
p3523
I1
sVdeysjzd
p3524
I1
sVdizk1pp
p3525
I1
sVd54bh3m
p3526
I1
sVdi731si
p3527
I1
sVcykymz9
p3528
I1
sVdhne5rb
p3529
I1
sVdf7h5nm
p3530
I1
sVd7z62wd
p3531
I1
sVd9mymr8
p3532
I1
sVdobwj4x
p3533
I1
sVczhqpz3
p3534
I1
sVdhjq6a9
p3535
I1
sVd3xjr2w
p3536
I1
sVdenm2y8
p3537
I1
sVd3len5w
p3538
I1
sVd0yd520
p3539
I1
sVd1tbczu
p3540
I1
sVds6xnst
p3541
I2
sVdq4h9ch
p3542
I1
sVdfunqxj
p3543
I1
sVdkoyg5t
p3544
I1
sVdd9kqta
p3545
I1
sVd624oif
p3546
I1
sVdht1gfq
p3547
I1
sVdbkcau7
p3548
I1
sVd369quk
p3549
I1
sVd08flfv
p3550
I1
sVdgi7l4m
p3551
I1
sVd5o160b
p3552
I1
sVdaxny4e
p3553
I1
sVdkie22u
p3554
I1
sVdpyb5jp
p3555
I1
sVdifow4h
p3556
I1
sVd00ttub
p3557
I1
sVd407vu1
p3558
I1
sVcymr5aa
p3559
I1
sVdjv40yi
p3560
I1
sVdjekz8m
p3561
I1
sVdq0l9yn
p3562
I1
sVd0twnqa
p3563
I1
sVd0y5l95
p3564
I1
sVdkseki1
p3565
I1
sVdqmiss9
p3566
I1
sVd4834bg
p3567
I1
sVdgtqw0r
p3568
I1
sVd5a1uqg
p3569
I1
sVd1871xl
p3570
I1
sVd0q4tah
p3571
I1
sVdgx87hi
p3572
I1
sVdn4v4t1
p3573
I1
sVd8502ok
p3574
I1
sVdsi7mzp
p3575
I1
sVd4a739b
p3576
I1
sVdi6dwra
p3577
I1
sVdso7atr
p3578
I1
sVd2xja9q
p3579
I1
sVdoja5mw
p3580
I1
sVcz5kw9t
p3581
I1
sVd6xu806
p3582
I1
sVcyqimw0
p3583
I1
sVdff3jfn
p3584
I1
sVd2cxrzw
p3585
I3
sVczz6b0b
p3586
I1
sVddc52gs
p3587
I1
sVdfyazb3
p3588
I2
sVd6lpbbg
p3589
I1
sVczzk19b
p3590
I1
sVdhgqj13
p3591
I1
sVdr1zlqt
p3592
I1
sVd5064un
p3593
I1
sVdqcmaqg
p3594
I1
sVdruojkx
p3595
I1
sVd0k6qxo
p3596
I1
sVd5vl8fa
p3597
I1
sVd8a5xz4
p3598
I1
sVd3fm3nh
p3599
I1
sVd87b3m8
p3600
I1
sVd36v88r
p3601
I1
sVd43o1nu
p3602
I1
sVdb4y6if
p3603
I1
sVdevttlx
p3604
I1
sVdjzd9ak
p3605
I1
sVd3ssedm
p3606
I1
sVczrp9gm
p3607
I1
sVdedb0a7
p3608
I1
sVdn4dw27
p3609
I3
sVd3oqklc
p3610
I1
sVd0x5q4v
p3611
I1
sVdgr9l2l
p3612
I1
sVdg1dzjc
p3613
I1
sVdd24jgf
p3614
I1
sVdr55qwk
p3615
I1
sVdfve8ri
p3616
I1
sVdfgkrf8
p3617
I1
sVd2j09ao
p3618
I1
sVdkns2ai
p3619
I1
sVd3dbqnn
p3620
I1
sVdcs6qf6
p3621
I1
sVd9vahxb
p3622
I1
sVd4e4xvd
p3623
I1
sVdey5a6c
p3624
I1
sVdacx0aw
p3625
I1
sVdtbbp0r
p3626
I1
sVd7oa4h7
p3627
I1
sVd1288oi
p3628
I1
sVd7j9kkv
p3629
I1
sVd7s43zp
p3630
I1
sVdcha2b5
p3631
I1
sVdbkux7q
p3632
I1
sVd6lvjbv
p3633
I1
sVd1ltrt8
p3634
I1
sVd1xtdgn
p3635
I1
sVdgpkh8w
p3636
I1
sVd8mldr5
p3637
I1
sVd6b2hoo
p3638
I1
sVd9h75rj
p3639
I1
sVdt9ho4r
p3640
I1
sVd67irgt
p3641
I1
sVdq2bn1z
p3642
I1
sVd2h4hx6
p3643
I1
sVdgezo5x
p3644
I1
sVdh0kklf
p3645
I1
sVd7s42nl
p3646
I1
sVd1j0fb9
p3647
I1
sVczy6fmt
p3648
I1
sVd0mszvv
p3649
I1
sVdb5diqp
p3650
I1
sVd8ct4yh
p3651
I1
sVd4fwmdm
p3652
I1
sVdja0zfk
p3653
I2
sVdhuyv9z
p3654
I1
sVd8q7h0x
p3655
I2
sVdoob55p
p3656
I1
sVd5w8d8u
p3657
I1
sVdb2z97w
p3658
I1
sVd6e6vry
p3659
I2
sVdml9nfu
p3660
I1
sVddqyffv
p3661
I1
sVdsyvhfc
p3662
I1
sVd5636hp
p3663
I1
sVdo7iq95
p3664
I1
sVd4w0kb2
p3665
I2
sVdcl5fga
p3666
I1
sVczzsqn2
p3667
I2
sVcyvphu7
p3668
I2
sVdefnq9r
p3669
I1
sVd4i06uz
p3670
I1
sVdmg4u6r
p3671
I1
sVd4u0t5r
p3672
I1
sVdnm5wuc
p3673
I1
sVcyssvdz
p3674
I1
sVdsih77c
p3675
I1
sVd12wiib
p3676
I1
sVcz5r944
p3677
I1
sVdpkrmt4
p3678
I1
sVdfmqe9r
p3679
I1
sVd43h4oq
p3680
I1
sVdiuxlrj
p3681
I1
sVd3n229a
p3682
I1
sVdddm67p
p3683
I1
sVdnarhwd
p3684
I1
sVdjn9xw6
p3685
I1
sVd5swc71
p3686
I1
sVd2nbilm
p3687
I1
sVdh9g78c
p3688
I1
sVd2a5luc
p3689
I1
sVcz54u63
p3690
I1
sVdeck03n
p3691
I1
sVdrd4xm1
p3692
I1
sVdiwjr5z
p3693
I1
sVd6ctd7a
p3694
I1
sVd27fnum
p3695
I1
sVd9nvsj3
p3696
I1
sVd577uu4
p3697
I1
sVdefao8r
p3698
I1
sVdqkuzj6
p3699
I1
sVdtfme28
p3700
I1
sVd4uptxc
p3701
I1
sVd2hmsj5
p3702
I1
sVd035gsm
p3703
I1
sVcz4v6zb
p3704
I1
sVdrk1e8e
p3705
I1
sVds66e1h
p3706
I1
sVdk9s7mc
p3707
I1
sVcz4wk6p
p3708
I1
sVd39kwrx
p3709
I1
sVdcu07ty
p3710
I1
sVdj7vsod
p3711
I1
sVd2j0nyx
p3712
I1
sVd013ge4
p3713
I1
sVd3nymko
p3714
I1
sVdp82yn1
p3715
I1
sVd4beb1r
p3716
I1
sVd3b3rr8
p3717
I1
sVdblpakn
p3718
I1
sVdh3dpz1
p3719
I1
sVdqa5igw
p3720
I1
sVdj6clbz
p3721
I1
sVd9vgeii
p3722
I1
sVdbgp7fl
p3723
I1
sVdbqf8zd
p3724
I1
sVdi7mpu9
p3725
I1
sVda5uolw
p3726
I1
sVdodf712
p3727
I1
sVd83w3ja
p3728
I1
sVds3c5au
p3729
I1
sVdg5ruyd
p3730
I1
sVczcb33v
p3731
I1
sVd5k133j
p3732
I1
sVdo6frh1
p3733
I1
sVd79djc4
p3734
I1
sVdeuz3qv
p3735
I1
sVdjx51u7
p3736
I1
sVd1c91qx
p3737
I1
sVdcsemzf
p3738
I1
sVdqktw6h
p3739
I1
sVd00pznh
p3740
I1
sVdpvpjte
p3741
I1
sVddwqpme
p3742
I1
sVd5fg6jw
p3743
I1
sVdfx2673
p3744
I1
sVdhl60hq
p3745
I1
sVdd7dzgf
p3746
I1
sVdo7ptqe
p3747
I1
sVd1fjcri
p3748
I1
sVd06r2yl
p3749
I1
sVd5jm9u0
p3750
I1
sVda6tktz
p3751
I1
sVdgdov8w
p3752
I1
sVdopn2be
p3753
I1
sVdqjlmca
p3754
I1
sVdhtfgi2
p3755
I1
sVdqh3cnx
p3756
I1
sVddjqz4m
p3757
I1
sVdikjyq3
p3758
I1
sVd7e89b6
p3759
I1
sVd1n83qb
p3760
I1
sVd8lkli4
p3761
I1
sVdd5cgfd
p3762
I1
sVdcyt7oz
p3763
I1
sVdfyfpyi
p3764
I1
sVdj1laau
p3765
I1
sVd57se45
p3766
I1
sVdc5l8js
p3767
I1
sVdntrf0t
p3768
I1
sVdo3pkt5
p3769
I1
sVdt9ppyi
p3770
I1
sVd2t7ufg
p3771
I1
sVdcnfymt
p3772
I1
sVdbxvw31
p3773
I1
sVdmvlhfi
p3774
I1
sVdtj9d1h
p3775
I1
sVdeqcb5q
p3776
I1
sVdmtoz4d
p3777
I1
sVdrcchit
p3778
I1
sVdp6w8rs
p3779
I1
sVdse1z97
p3780
I2
sVdkcfpe9
p3781
I1
sVdg5pbmj
p3782
I1
sVdhfjafq
p3783
I1
sVczd253b
p3784
I1
sVdgoy8ef
p3785
I1
sVdfj9wbl
p3786
I1
sVdcn2ohh
p3787
I1
sVdqw1orn
p3788
I1
sVczlqpv3
p3789
I1
sVdgl4vwp
p3790
I1
sVdkn6p8t
p3791
I1
sVd5t96rp
p3792
I1
sVdqn0tjl
p3793
I1
sVde8wxxx
p3794
I1
sVd4sky9u
p3795
I1
sVdel1neq
p3796
I1
sVd7qd2xi
p3797
I1
sVd3fcgql
p3798
I1
sVd1yvwdn
p3799
I1
sVczdgdp2
p3800
I1
sVdht4i6v
p3801
I1
sVddu2yr4
p3802
I1
sVd4trr98
p3803
I1
sVd7rskwy
p3804
I1
sVd64tjwo
p3805
I1
sVddm24fj
p3806
I1
sVd1hiie2
p3807
I1
sVd6qgzoc
p3808
I1
sVd3y0xoy
p3809
I1
sVdi3mnpq
p3810
I1
sVdaawcup
p3811
I1
sVdeu38k7
p3812
I1
sVd0hk6z1
p3813
I1
sVdjqzkid
p3814
I1
sVd2bg6re
p3815
I1
sVd3jcfbq
p3816
I1
sVdbpii6o
p3817
I1
sVds17t8j
p3818
I1
sVdf4ncv2
p3819
I1
sVdertjfx
p3820
I1
sVdcky8f6
p3821
I1
sVdnvlo03
p3822
I1
sVd5ehhxt
p3823
I1
sVdgy5l3p
p3824
I1
sVcypiofh
p3825
I1
sVdbtfyvo
p3826
I1
sVd3fjhp3
p3827
I1
sVdcg4nwu
p3828
I1
sVd2bqn9i
p3829
I1
sVd9aa6f3
p3830
I1
sVcz58p4a
p3831
I1
sVd1ajszk
p3832
I1
sVdaj4250
p3833
I1
sVdrjz3zc
p3834
I1
sVd9zxcwt
p3835
I1
sVd5a595y
p3836
I1
sVd6u75ij
p3837
I1
sVdgw8d10
p3838
I1
sVdjl4u9t
p3839
I1
sVdc4d67j
p3840
I1
sVdmfasjd
p3841
I1
sVd2jufah
p3842
I1
sVd9dqctr
p3843
I1
sVdmktcj9
p3844
I1
sVdetoyff
p3845
I1
sVdnlx060
p3846
I1
sVd82lby1
p3847
I1
sVd8vfrvb
p3848
I1
sVdb2tumn
p3849
I1
sVdgxwjgd
p3850
I1
sVdo8byrt
p3851
I1
sVdkf6qr1
p3852
I1
sVdpiv6es
p3853
I1
sVd8w4fop
p3854
I1
sVcyk80w6
p3855
I1
sVd7oseqx
p3856
I1
sVd010joy
p3857
I1
sVcyugx5y
p3858
I1
sVd3fepct
p3859
I1
sVdcij1y0
p3860
I1
sVd7687ie
p3861
I1
sVdcum5em
p3862
I1
sVdf32pca
p3863
I1
sVd76l3sx
p3864
I1
sVdiofix3
p3865
I1
sVdhr12cy
p3866
I1
sVd14i8hu
p3867
I1
sVdat6znr
p3868
I1
sVczo1g5m
p3869
I1
sVd0rvngr
p3870
I1
sVdctbubg
p3871
I1
sVd4rn5ps
p3872
I1
sVdsxfbhf
p3873
I2
sVdc1hc4h
p3874
I1
sVd1wg2mr
p3875
I1
sVdil2a3w
p3876
I1
sVd0mj3ji
p3877
I1
sVdizegez
p3878
I1
sVdggpn2z
p3879
I1
sVdjyj3h0
p3880
I1
sVd35mifn
p3881
I1
sVd5dr1uu
p3882
I2
sVdmvx04p
p3883
I1
sVdevgwk7
p3884
I5
sVdp4129g
p3885
I1
sVczrzxte
p3886
I1
sVd5ahvgd
p3887
I1
sVdfwgb0r
p3888
I1
sVd7ea042
p3889
I1
sVd3zp2x2
p3890
I1
sVdbz6aau
p3891
I1
sVdplmy9y
p3892
I1
sVd3l9zzy
p3893
I1
sVd53ahzp
p3894
I1
sVd7qe7ry
p3895
I1
sVcyjjf2a
p3896
I1
sVd37m06d
p3897
I1
sVcytkg0p
p3898
I1
sVd0pwyxa
p3899
I1
sVd5gpemr
p3900
I1
sVd2ft81g
p3901
I1
sVdb6bmk8
p3902
I1
sVdgzyn11
p3903
I1
sVd0zowd3
p3904
I1
sVd492rds
p3905
I1
sVdbmgacg
p3906
I1
sVd9cvy2y
p3907
I2
sVdseziwx
p3908
I1
sVdfckuu0
p3909
I1
sVdg2djhl
p3910
I1
sVdr82haj
p3911
I1
sVd1liuha
p3912
I1
sVd1wfm86
p3913
I1
sVdirblfe
p3914
I1
sVd9e0pzk
p3915
I1
sVdbj4rl4
p3916
I1
sVd1p9md8
p3917
I1
sVdnaxpbq
p3918
I1
sVd2k84d3
p3919
I1
sVdek3qkh
p3920
I1
sVd5fhpzg
p3921
I1
sVdhtc9qo
p3922
I1
sVd9819yx
p3923
I1
sVd736ggk
p3924
I1
sVcz6ziz6
p3925
I1
sVdghwli8
p3926
I2
sVddpkq3d
p3927
I1
sVdeyexdp
p3928
I1
sVdpfqmfn
p3929
I1
sVda407nl
p3930
I1
sVdrcc27x
p3931
I1
sVdquy440
p3932
I1
sVd2x1k0r
p3933
I1
sVddouu9y
p3934
I1
sVd63g9z9
p3935
I1
sVd9dk17f
p3936
I1
sVdc0vvyu
p3937
I1
sVd5wgmjf
p3938
I1
sVd06h1ar
p3939
I1
sVd3wpui2
p3940
I1
sVd52ow69
p3941
I1
sVd91q08f
p3942
I1
sVdhqc7av
p3943
I1
sVddohrlg
p3944
I1
sVcynsutn
p3945
I1
sVd8y9leq
p3946
I1
sVdpuow81
p3947
I1
sVd42mq09
p3948
I1
sVdn2uyi2
p3949
I1
sVdphltqt
p3950
I1
sVd5vr33x
p3951
I1
sVd07qvsb
p3952
I1
sVd06xh1q
p3953
I1
sVda62xbh
p3954
I1
sVd6tdqtj
p3955
I1
sVdes8ka4
p3956
I1
sVdefmmzr
p3957
I1
sVd9hitnr
p3958
I1
sVdbg9r3v
p3959
I1
sVdobjryl
p3960
I1
sVdpbowa7
p3961
I1
sVd0p4dsv
p3962
I1
sVd1whcdn
p3963
I1
sVds2oumc
p3964
I1
sVd8wi60p
p3965
I2
sVd0mhfzx
p3966
I1
sVdmug7ob
p3967
I1
sVdhayhyw
p3968
I1
sVdcjzv8y
p3969
I1
sVdeiywna
p3970
I1
sVdchl82c
p3971
I1
sVd1cqftj
p3972
I1
sVdblft8m
p3973
I1
sVdhcikzf
p3974
I1
sVd94ezdx
p3975
I1
sVdkc91ue
p3976
I1
sVcyqyxay
p3977
I1
sVd09dx1w
p3978
I1
sVd2ajfmg
p3979
I1
sVdfjgd8k
p3980
I1
sVd7ac1av
p3981
I1
sVdn4x9oz
p3982
I1
sVczzfvtu
p3983
I1
sVdcswihg
p3984
I1
sVd4ts65l
p3985
I1
sVd79rqff
p3986
I1
sVd5w6pv9
p3987
I1
sVdf5izmg
p3988
I1
sVdie10tj
p3989
I1
sVd43homr
p3990
I1
sVd09nxa9
p3991
I1
sVd5gprw9
p3992
I1
sVd7xxdqn
p3993
I1
sVdat5d1v
p3994
I1
sVdp1bqk2
p3995
I1
sVd0ydmd0
p3996
I1
sVd3aeswr
p3997
I1
sVd71fei2
p3998
I1
sVdnhqgdf
p3999
I1
sVcz8di4s
p4000
I1
sVd8x3d2u
p4001
I1
sVdh6upoy
p4002
I1
sVd32adoq
p4003
I1
sVd1wlwcs
p4004
I1
sVd6rp324
p4005
I1
sVdrphakf
p4006
I1
sVd0o2pjd
p4007
I1
sVdj6q0mf
p4008
I1
sVds24y40
p4009
I1
sVdj2eiuu
p4010
I1
sVdcqy2kq
p4011
I1
sVdojd5j8
p4012
I1
sVd53pejl
p4013
I1
sVdnxmqdl
p4014
I1
sVdi9l83g
p4015
I1
sVddwojo5
p4016
I1
sVd0h30or
p4017
I1
sVdhdej5w
p4018
I1
sVdt7ya8n
p4019
I1
sVdh1l7jt
p4020
I1
sVd5dbjp4
p4021
I1
sVczu3zy5
p4022
I1
sVdry8hms
p4023
I1
sVdmv6are
p4024
I1
sVcyozg8j
p4025
I1
sVcz096ep
p4026
I1
sVdez1bo5
p4027
I1
sVdtagwby
p4028
I1
sVdr7z11u
p4029
I1
sVd5uo3ue
p4030
I1
sVd18s3cl
p4031
I1
sVdnvv4ne
p4032
I1
sVd1xu44p
p4033
I1
sVcz4yu4u
p4034
I1
sVdnwrl8d
p4035
I1
sVdd20928
p4036
I1
sVcytewxr
p4037
I1
sVd036fco
p4038
I1
sVd13hfeu
p4039
I1
sVd8mglmw
p4040
I1
sVdgi6kco
p4041
I1
sVdq2pxyl
p4042
I1
sVdmnun70
p4043
I1
sVdc52bsm
p4044
I1
sVdghe13e
p4045
I1
sVdce0ip1
p4046
I1
sVdilyxmo
p4047
I1
sVd1h6u6m
p4048
I1
sVd6328aq
p4049
I1
sVdbd36ot
p4050
I1
sVd43nh1q
p4051
I1
sVd8gvx64
p4052
I1
sVdt9z413
p4053
I1
sVdfe3lra
p4054
I1
sVd1f1qed
p4055
I1
sVd4gm795
p4056
I1
sVd29m3ov
p4057
I1
sVdcauvr8
p4058
I1
sVd2zgegh
p4059
I1
sVdbod67z
p4060
I1
sVd0upupt
p4061
I1
sVd6i2oax
p4062
I2
sVd0n6kn1
p4063
I1
sVd1as5p5
p4064
I1
sVd61vd65
p4065
I1
sVdgmi1ux
p4066
I1
sVdbcp3qi
p4067
I1
sVczw4fgb
p4068
I1
sVd18n3ce
p4069
I1
sVd0z1fw0
p4070
I1
sVdhgba5b
p4071
I1
sVd4w89am
p4072
I1
sVdbn366f
p4073
I1
sVdfsf5q8
p4074
I1
sVdnildt5
p4075
I1
sVd1sguu0
p4076
I1
sVdejny0d
p4077
I1
sVdftxlmp
p4078
I1
sVd8jc6mj
p4079
I1
sVde1t7ri
p4080
I1
sVd6vq03v
p4081
I1
sVda7jc7o
p4082
I1
sVd1l27b6
p4083
I1
sVcynuipi
p4084
I1
sVdb145vo
p4085
I1
sVdou5t73
p4086
I1
sVd3tfg7q
p4087
I1
sVdnx7gel
p4088
I1
sVd79hdox
p4089
I1
sVdpwealo
p4090
I1
sVdok9rr2
p4091
I1
sVcyhzuz7
p4092
I1
sVd5d1r3n
p4093
I1
sVdriv2v1
p4094
I1
sVddvhlzg
p4095
I3
sVd4ckfjl
p4096
I1
sVd7fatww
p4097
I1
sVcyz66ze
p4098
I1
sVdmlpzsn
p4099
I1
sVd1rzh8f
p4100
I1
sVd4vtlqy
p4101
I1
sVdejavca
p4102
I1
sVd3mjxdo
p4103
I1
sVd1fts6u
p4104
I1
sVcywoqxw
p4105
I1
sVdkhs1nl
p4106
I1
sVd9tvhsz
p4107
I1
sVd1em8wa
p4108
I1
sVdbwbi9s
p4109
I1
sVdemxyyu
p4110
I1
sVcyteub8
p4111
I1
sVdctfqk1
p4112
I1
sVd694zzy
p4113
I1
sVdezk0ql
p4114
I1
sVddos16y
p4115
I1
sVdo0hs8q
p4116
I1
sVd43c6um
p4117
I1
sVdr1i3hi
p4118
I1
sVdbqraji
p4119
I1
sVdgygymn
p4120
I1
sVdig3whu
p4121
I1
sVdfriebv
p4122
I1
sVdr9lx9f
p4123
I1
sVddd2l7a
p4124
I1
sVdai1bvc
p4125
I1
sVd0dwmrl
p4126
I1
sVd3ce68k
p4127
I1
sVd8rs909
p4128
I1
sVdoypvji
p4129
I1
sVd45459n
p4130
I1
sVd3fywd1
p4131
I2
sVd53bo9h
p4132
I1
sVcz7jqhd
p4133
I1
sVdc3krrl
p4134
I1
sVd1s2tbe
p4135
I1
sVcykmqw4
p4136
I1
sVd1qots3
p4137
I1
sVdhh1w3a
p4138
I1
sVdtgh6a0
p4139
I1
sVd0wkcp9
p4140
I1
sVdg1vil3
p4141
I1
sVdof7yev
p4142
I1
sVd4hz6jf
p4143
I1
sVd8n2k7m
p4144
I1
sVd0hqks4
p4145
I1
sVdc2e88b
p4146
I1
sVd0k10xz
p4147
I1
sVdktsfbd
p4148
I1
sVdrijglz
p4149
I1
sVd7r5qee
p4150
I1
sVdcxzqeg
p4151
I1
sVd5mtwk4
p4152
I1
sVder1b6j
p4153
I1
sVd3xe11v
p4154
I1
sVdcl94lg
p4155
I1
sVdewytt1
p4156
I1
sVd0miisu
p4157
I1
sVdewfyb3
p4158
I1
sVdpgob88
p4159
I1
sVd42frjv
p4160
I1
sVdcck79g
p4161
I1
sVd0kltnf
p4162
I1
sVdgz04q0
p4163
I1
sVczios6w
p4164
I1
sVdhyvzt8
p4165
I1
sVczzq24r
p4166
I1
sVdfbey7b
p4167
I1
sVdcbi58a
p4168
I1
sVd0imoaa
p4169
I1
sVdhrhfjy
p4170
I1
sVdfu3mbe
p4171
I1
sVdczt74j
p4172
I1
sVdiz0ks5
p4173
I1
sVdt3l1qd
p4174
I1
sVdmw63bd
p4175
I1
sVdq4ykid
p4176
I1
sVd65qi2l
p4177
I1
sVd2r2wls
p4178
I1
sVdczli71
p4179
I1
sVd5hgnya
p4180
I1
sVdfvz0z5
p4181
I1
sVd4gis18
p4182
I1
sVdrt12jn
p4183
I1
sVd41a3uo
p4184
I1
sVd9vmfgy
p4185
I1
sVdf63rb6
p4186
I1
sVddz4cms
p4187
I1
sVdk8rjvw
p4188
I1
sVdkaa5nz
p4189
I1
sVd8dfb5e
p4190
I1
sVd4glcxi
p4191
I1
sVd5ddvsu
p4192
I1
sVde5vgl5
p4193
I1
sVd6bohia
p4194
I1
sVd4ov771
p4195
I1
sVdmxq12v
p4196
I1
sVd9tohii
p4197
I1
sVdpzzr6a
p4198
I1
sVdi1myj9
p4199
I1
sVd5jppcu
p4200
I1
sVdrqej73
p4201
I1
sVdgtt6f3
p4202
I1
sVd3jx8pn
p4203
I1
sVded5n3k
p4204
I1
sVdikk1hk
p4205
I1
sVdg0rtai
p4206
I3
sVdkj0ynx
p4207
I1
sVdhsz4ie
p4208
I1
sVdjalwpx
p4209
I1
sVdsq6h01
p4210
I2
sVdpbs7jy
p4211
I1
sVdfxivla
p4212
I1
sVdhvhzq2
p4213
I1
sVd36s1u6
p4214
I1
sVdiq0ynt
p4215
I1
sVcywwczm
p4216
I1
sVd87dw5g
p4217
I1
sVczgl4lt
p4218
I1
sVd9wwt4f
p4219
I1
sVd300jwt
p4220
I1
sVcylyds7
p4221
I1
sVdgrftfw
p4222
I1
sVczixopy
p4223
I1
sVdqykoy3
p4224
I1
sVdbqetjw
p4225
I1
sVd4qsxua
p4226
I1
sVdqk5w8e
p4227
I1
sVd4nalk0
p4228
I1
sVdp0e7dj
p4229
I1
sVdkb5uug
p4230
I1
sVd8zgi1q
p4231
I1
sVdrrjsyw
p4232
I1
sVd3ccyw5
p4233
I1
sVd14rcja
p4234
I2
sVdcrims4
p4235
I1
sVdnr4vra
p4236
I1
sVcz5fdk7
p4237
I2
sVda3zm08
p4238
I1
sVddlu0n3
p4239
I1
sVdpr4yzl
p4240
I1
sVd5f9sgn
p4241
I1
sVd1k4hmg
p4242
I1
sVdfdbueg
p4243
I1
sVd5vi947
p4244
I1
sVde90jzh
p4245
I1
sVdox6cwy
p4246
I1
sVdro57jn
p4247
I1
sVdk96gly
p4248
I1
sVczt8935
p4249
I1
sVd4bk0gh
p4250
I1
sVdcyjtbu
p4251
I1
sVdr2n4tv
p4252
I1
sVdenunwd
p4253
I1
sVd0gsn26
p4254
I3
sVdf5w5jq
p4255
I1
sVd23od9i
p4256
I1
sVd9qcefm
p4257
I1
sVd0og38y
p4258
I1
sVdda6sfy
p4259
I1
sVd50ohvd
p4260
I1
sVdnberrd
p4261
I1
sVdrteqo7
p4262
I1
sVd97mtwl
p4263
I1
sVdrgq4yk
p4264
I2
sVdbyf5mu
p4265
I1
sVdq053x5
p4266
I1
sVdpnhcc4
p4267
I1
sVdfbmcoa
p4268
I1
sVczi5ert
p4269
I1
sVd2yvb0x
p4270
I1
sVd10m0ym
p4271
I1
sVd9kvukv
p4272
I1
sVd7t11yr
p4273
I1
sVdklrxy9
p4274
I1
sVdjbcdkq
p4275
I1
sVd538qmu
p4276
I1
sVd40duou
p4277
I3
sVdt7xw64
p4278
I1
sVdpw30sv
p4279
I1
sVdhgksar
p4280
I1
sVdddsnjk
p4281
I1
sVd4gh2xz
p4282
I1
sVdp8l4d5
p4283
I1
sVdbvxplc
p4284
I1
sVd5og016
p4285
I1
sVd1antvo
p4286
I1
sVczwl11e
p4287
I1
sVdiba1rc
p4288
I1
sVde4w7rl
p4289
I1
sVd2g805b
p4290
I1
sVdb3ohry
p4291
I1
sVdex2ncu
p4292
I1
sVdd7zioj
p4293
I1
sVd47mbi7
p4294
I1
sVd8k0671
p4295
I1
sVd6hxl45
p4296
I1
sVd29bh2i
p4297
I1
sVd34u2l2
p4298
I1
sVd3arftg
p4299
I1
sVcz7e5rp
p4300
I1
sVddcudvq
p4301
I1
sVdiyy0l0
p4302
I1
sVdcxfrgv
p4303
I1
sVde8ez39
p4304
I1
sVde9ozgk
p4305
I1
sVd55vqej
p4306
I1
sVd10uzp9
p4307
I1
sVdndwh73
p4308
I1
sVde4idjv
p4309
I1
sVd1chxlo
p4310
I2
sVd7iul0m
p4311
I1
sVdi4m4ik
p4312
I1
sVdj5cvx0
p4313
I1
sVdio8jby
p4314
I1
sVdmhiquc
p4315
I1
sVd4ed0eb
p4316
I2
sVdgk5jqg
p4317
I1
sVdq0qkct
p4318
I1
sVd5m4u5u
p4319
I1
sVdrdmy0x
p4320
I1
sVczz8qp0
p4321
I2
sVdsr1kma
p4322
I1
sVdey3wey
p4323
I2
sVd8ovtzl
p4324
I1
sVdfkvwxi
p4325
I1
sVdexsrl2
p4326
I1
sVczqix0j
p4327
I1
sVdh52s4f
p4328
I1
sVddy5vvy
p4329
I1
sVdjhal87
p4330
I1
sVdnv688p
p4331
I1
sVdntm8k6
p4332
I1
sVd7xgado
p4333
I1
sVds3zufu
p4334
I1
sVd0skn7q
p4335
I1
sVdaanl2e
p4336
I1
sVd8r6bcf
p4337
I1
sVd6j5yry
p4338
I1
sVdf1x1ui
p4339
I1
sVddwi553
p4340
I1
sVd56cakd
p4341
I1
sVd4f0elz
p4342
I1
sVdbt5vms
p4343
I1
sVd1aykr2
p4344
I1
sVdmw2olm
p4345
I1
sVd55sbp2
p4346
I1
sVddpy55d
p4347
I1
sVdsiv585
p4348
I1
sVdc9lvvy
p4349
I1
sVd609bu2
p4350
I1
sVd5688c9
p4351
I1
sVdffmd25
p4352
I1
sVds1jkcj
p4353
I1
sVdcnlaox
p4354
I1
sVddndkhf
p4355
I1
sVdf212kq
p4356
I1
sVd2xlbcw
p4357
I1
sVd4yatq5
p4358
I1
sVdoykzqc
p4359
I1
sVdppy046
p4360
I1
sVd7gec48
p4361
I1
sVcz3wss8
p4362
I1
sVd41bjlo
p4363
I1
s.