(dp0
Vd1hsnq4
p1
I1
sVd1i30eb
p2
I1
sVdar63jz
p3
I1
sVdk9vesw
p4
I1
sVdgqnu7y
p5
I1
sVdfw33y6
p6
I1
sVd1qqipk
p7
I1
sVdqflgui
p8
I1
sVd3dusco
p9
I1
sVd8he6af
p10
I1
sVdrymf82
p11
I1
sVd9ts30f
p12
I1
sVdccmhai
p13
I1
sVd9mzw9u
p14
I1
sVd4tv9yx
p15
I1
sVdetirw5
p16
I1
sVd3t3o2t
p17
I1
sVdgvpnpq
p18
I1
sVd1oyeqc
p19
I1
sVd9k9qkv
p20
I1
sVd3mgfuw
p21
I1
sVdk16fmp
p22
I1
sVd0l9fl5
p23
I1
sVdan9ozj
p24
I1
sVdsbrgh6
p25
I1
sVdiq3jr0
p26
I1
sVdfbmdji
p27
I1
sVdjjes23
p28
I1
sVd3qwch1
p29
I1
sVcyu2zed
p30
I1
sVd92toqt
p31
I1
sVd6j169b
p32
I1
sVdgdfuki
p33
I1
sVd0osdd5
p34
I1
sVds5bmj5
p35
I1
sVdr8cih6
p36
I1
sVdfyc0sm
p37
I1
sVdbx744s
p38
I1
sVdjdj0jx
p39
I1
sVdqx1i09
p40
I1
sVdbgh4pz
p41
I1
sVd1b4qhb
p42
I1
sVd6oibfa
p43
I1
sVdatb1lr
p44
I1
sVdiruvfw
p45
I1
sVczo9n4j
p46
I1
sVdecjcri
p47
I1
sVd67hz1g
p48
I1
sVda3nnjz
p49
I1
sVd99tpxc
p50
I1
sVd16qxv4
p51
I1
sVddelluj
p52
I1
sVczjnmgj
p53
I1
sVd60rmod
p54
I1
sVda2scrl
p55
I1
sVd1qbmz8
p56
I1
sVdawf7dv
p57
I1
sVd0689ea
p58
I1
sVd1awt0p
p59
I1
sVde1p4r2
p60
I1
sVdiyrrn0
p61
I1
sVd96v3f9
p62
I1
sVdd16ig2
p63
I1
sVd2tnin7
p64
I1
sVd3daaim
p65
I2
sVdg6tsgp
p66
I1
sVdempdti
p67
I1
sVd7kfg5u
p68
I1
sVcyxlk8b
p69
I1
sVd344ue4
p70
I1
sVdnlmm9d
p71
I1
sVde9kkxk
p72
I1
sVd04xh9u
p73
I1
sVdfb305r
p74
I1
sVdrz3t26
p75
I1
sVd21b5hb
p76
I1
sVddptg36
p77
I1
sVd194o8r
p78
I1
sVd4xf6v3
p79
I1
sVdhbku15
p80
I1
sVcz50i7s
p81
I1
sVdcpws02
p82
I1
sVdfk3rfd
p83
I1
sVd6p6yzs
p84
I2
sVdq7pwxn
p85
I1
sVdqpni0s
p86
I1
sVd32ri5a
p87
I1
sVd0qpt5o
p88
I1
sVd81gqns
p89
I2
sVdggyn0u
p90
I1
sVd70lltd
p91
I1
sVd9k5k69
p92
I1
sVdj2g9sl
p93
I1
sVd3i4l7w
p94
I1
sVd3yrqw7
p95
I1
sVdcl1dhf
p96
I1
sVd095roh
p97
I1
sVdq5u0h4
p98
I1
sVd09mj42
p99
I1
sVdadnsce
p100
I1
sVdd9vx97
p101
I1
sVd1sitru
p102
I1
sVdje2a98
p103
I1
sVczwadjl
p104
I1
sVczpid02
p105
I1
sVde15mls
p106
I1
sVdn7jpql
p107
I1
sVd3rdkfk
p108
I1
sVdr44bnq
p109
I1
sVd0gun07
p110
I1
sVdi6nm8r
p111
I1
sVdk7dfnw
p112
I1
sVd7ivdf8
p113
I1
sVd68677t
p114
I1
sVd7hunqs
p115
I1
sVd89w8iy
p116
I1
sVd4hz3sq
p117
I1
sVdh9h32k
p118
I1
sVdev36wb
p119
I1
sVdave7y6
p120
I1
sVcykuzks
p121
I1
sVd7blo0v
p122
I1
sVd2woaoy
p123
I1
sVcze8pza
p124
I1
sVdc51ju0
p125
I1
sVdjfhon8
p126
I1
sVdq0ppe5
p127
I1
sVddj93ho
p128
I1
sVd2hu3t9
p129
I1
sVdf4mor4
p130
I1
sVdiv6jrc
p131
I1
sVdmzvn44
p132
I1
sVdsiy0n1
p133
I2
sVdeul9hn
p134
I1
sVd9o5k2k
p135
I1
sVdc0ga8q
p136
I1
sVdog0xro
p137
I1
sVded4805
p138
I1
sVdb7t4dd
p139
I1
sVdo608ne
p140
I1
sVdnabg0z
p141
I2
sVdmkxk7e
p142
I1
sVd0ocazw
p143
I1
sVd1g7ose
p144
I1
sVczcsp51
p145
I1
sVdejbb1v
p146
I1
sVdhwi8it
p147
I1
sVdczxkve
p148
I1
sVdca9z1x
p149
I1
sVdfj40j1
p150
I1
sVdnxzuph
p151
I1
sVd3apyic
p152
I1
sVdjb6e78
p153
I1
sVd2enl66
p154
I1
sVddvn8j1
p155
I1
sVdhpfu49
p156
I1
sVdkcbl0c
p157
I1
sVd1o1nj2
p158
I1
sVdmotccb
p159
I1
sVd27cvhp
p160
I1
sVdmy6ckp
p161
I1
sVda6k0dp
p162
I1
sVdkvfvwa
p163
I1
sVd3ol30g
p164
I1
sVcz97prw
p165
I1
sVcz13v5l
p166
I1
sVdo9amji
p167
I1
sVdfgdmkc
p168
I1
sVd7fwsam
p169
I1
sVdn6ka4j
p170
I1
sVdgqvhr6
p171
I1
sVd6tspaj
p172
I1
sVdgpyrp1
p173
I1
sVdb89chs
p174
I1
sVdd5eo7w
p175
I1
sVddoysgq
p176
I2
sVdo4wcec
p177
I1
sVdetwgff
p178
I1
sVdb3uvig
p179
I1
sVcz9lke0
p180
I1
sVd723y72
p181
I1
sVdcxty5d
p182
I1
sVd02ndts
p183
I1
sVd0icfmp
p184
I1
sVd0v5y0v
p185
I1
sVczk59h4
p186
I1
sVdhex6b3
p187
I1
sVcykcit1
p188
I1
sVczgbbmd
p189
I1
sVdksyzut
p190
I1
sVdisis0o
p191
I2
sVdd980qz
p192
I1
sVdnbbm0x
p193
I1
sVdfoeiji
p194
I1
sVdi9030n
p195
I1
sVdeca0w2
p196
I1
sVd3ojtzt
p197
I1
sVd81brpw
p198
I1
sVdba4snx
p199
I1
sVd1jq7h1
p200
I1
sVd2xdosw
p201
I2
sVczhfwsj
p202
I1
sVdpwswgq
p203
I1
sVd6wkb9u
p204
I1
sVdeq4ndk
p205
I1
sVczevsun
p206
I1
sVdgi7jnj
p207
I1
sVd03zu1y
p208
I1
sVcylcz78
p209
I1
sVd7bnx6c
p210
I1
sVdedc8ss
p211
I1
sVdfaavig
p212
I1
sVd4n1e31
p213
I1
sVd2g2da2
p214
I1
sVdsckh8d
p215
I1
sVd889qpu
p216
I1
sVdby6me7
p217
I1
sVd02a70i
p218
I1
sVd0ry1m5
p219
I1
sVdehzn9d
p220
I1
sVd2b1ilh
p221
I1
sVdr7bubu
p222
I1
sVdcwi9xm
p223
I1
sVdppkvx7
p224
I1
sVd9qvnbg
p225
I1
sVdb8au0n
p226
I1
sVdrq1ldz
p227
I1
sVdjyix72
p228
I1
sVdo0g2cv
p229
I1
sVd9pf8k3
p230
I1
sVdk7bcl1
p231
I1
sVdnybsqt
p232
I1
sVd45y215
p233
I1
sVdfset94
p234
I1
sVd14pl28
p235
I1
sVdguihq4
p236
I1
sVdh8qzqf
p237
I1
sVd0ssp8i
p238
I1
sVdghjrb1
p239
I1
sVd67s479
p240
I1
sVdjv1bkc
p241
I1
sVd6vafpn
p242
I1
sVdiqf0k7
p243
I1
sVcz5bh6p
p244
I1
sVd30x3zu
p245
I1
sVdflzrq4
p246
I1
sVd3u66tk
p247
I1
sVdphc6x4
p248
I1
sVdrer72g
p249
I1
sVdo6ukej
p250
I1
sVda9oo8c
p251
I1
sVd3vylu1
p252
I1
sVdhxshui
p253
I1
sVd4li4uj
p254
I1
sVdirdqqz
p255
I1
sVd23rdaz
p256
I1
sVdp4lpuv
p257
I1
sVd3z1n7w
p258
I1
sVd0qlh8g
p259
I1
sVdat60bj
p260
I1
sVdchnmi5
p261
I1
sVd2rzqzf
p262
I1
sVdfo8euq
p263
I1
sVdbx1vbf
p264
I1
sVd5iv5tr
p265
I1
sVddwvgd0
p266
I1
sVczb14o4
p267
I1
sVd19rzb7
p268
I1
sVd1gbyd1
p269
I1
sVczc92gn
p270
I1
sVcylpv0n
p271
I1
sVcymvmzl
p272
I1
sVd8hv401
p273
I1
sVcyigzhn
p274
I1
sVdi5tcvq
p275
I1
sVdd4qiad
p276
I1
sVdgi7srs
p277
I1
sVddpgymj
p278
I1
sVd0sj01q
p279
I1
sVdiyux5z
p280
I1
sVd1a6gzz
p281
I1
sVddg9b5p
p282
I1
sVdh7h8ze
p283
I1
sVczgrr4h
p284
I1
sVdcln72r
p285
I1
sVd6evgf3
p286
I1
sVddfruf2
p287
I1
sVdck7qao
p288
I1
sVdijwyk5
p289
I1
sVd5u4xfi
p290
I1
sVczvjyhb
p291
I1
sVdihjdzo
p292
I1
sVd2dwl9g
p293
I1
sVd11mjgh
p294
I1
sVczwatwt
p295
I1
sVde8tx9v
p296
I1
sVdmgtfvo
p297
I1
sVd9oelo5
p298
I1
sVd8ghyvv
p299
I1
sVdpt6dln
p300
I1
sVd2bexq5
p301
I1
sVdibwpgj
p302
I1
sVd14kdzm
p303
I1
sVdmktcj9
p304
I1
sVdgn2jhj
p305
I1
sVdbb6wxg
p306
I1
sVczo62kt
p307
I1
sVdpqs390
p308
I1
sVd6by2sg
p309
I1
sVdennymd
p310
I1
sVddr2bf9
p311
I1
sVd2gylc1
p312
I1
sVczclvx9
p313
I1
sVdms0io3
p314
I1
sVczwm33m
p315
I1
sVd1hapvd
p316
I1
sVd7nwbt6
p317
I1
sVdc9vznr
p318
I1
sVd5iwogk
p319
I1
sVcyp2n20
p320
I1
sVd31v3ri
p321
I1
sVd4mp4sd
p322
I1
sVczw5ua3
p323
I1
sVdqp3msm
p324
I2
sVdci4izi
p325
I1
sVddfj0g8
p326
I1
sVdqllx58
p327
I1
sVd8hmek1
p328
I1
sVdd3jmlo
p329
I1
sVd63fsv4
p330
I1
sVd9e985u
p331
I1
sVddi6h9b
p332
I1
sVdipq4jj
p333
I1
sVd6aoiho
p334
I1
sVdcqqdx8
p335
I1
sVd11ka9g
p336
I1
sVcyppqyq
p337
I1
sVd8k0t4d
p338
I1
sVd627llq
p339
I1
sVd89fwjl
p340
I1
sVdiwf554
p341
I1
sVdisnx2z
p342
I1
sVdehaiqn
p343
I1
sVd24dxlx
p344
I1
sVdhj1w1u
p345
I1
sVd31ciup
p346
I1
sVdn3b4wh
p347
I1
sVd0665he
p348
I1
sVd09bti7
p349
I1
sVdetz3f1
p350
I1
sVczts6d2
p351
I1
sVdpv9h6b
p352
I1
sVdf424ks
p353
I1
sVdr7eve1
p354
I1
sVd9fc0wk
p355
I1
sVdi4lbri
p356
I1
sVdi57ul1
p357
I3
sVdr6a78o
p358
I2
sVddq03ml
p359
I1
sVd8dzql7
p360
I1
sVcyt4i0c
p361
I1
sVd98zoal
p362
I1
sVdfwgb0r
p363
I1
sVdayljqy
p364
I1
sVd3ul0ur
p365
I1
sVdfx10y8
p366
I1
sVd6wq9v2
p367
I1
sVdh6973e
p368
I1
sVd9ibrc6
p369
I1
sVd8mhale
p370
I1
sVd036de9
p371
I1
sVdi49ud7
p372
I2
sVdqsgt00
p373
I1
sVd9b114l
p374
I2
sVd5gk5n5
p375
I2
sVd5d72wu
p376
I1
sVd2ybrym
p377
I1
sVdc2wrn6
p378
I1
sVdphqgx1
p379
I1
sVcziqd43
p380
I1
sVdkknclj
p381
I1
sVdciqmey
p382
I2
sVdk8mxre
p383
I1
sVdg2l9ha
p384
I1
sVdfvc8n4
p385
I1
sVd8can6e
p386
I1
sVd40ohf9
p387
I1
sVdemy6y1
p388
I1
sVd0oo9d7
p389
I1
sVdbfrw8h
p390
I1
sVczgy283
p391
I1
sVd03gadz
p392
I1
sVcz11pn5
p393
I1
sVdbqewss
p394
I1
sVdcgipfo
p395
I2
sVcziqzwv
p396
I1
sVdj2eiuu
p397
I1
sVd9n2bj1
p398
I1
sVdn1gkt6
p399
I2
sVde3tltv
p400
I1
sVdfuqwna
p401
I1
sVd02fjrm
p402
I1
sVd5gxvi7
p403
I1
sVdbgyw1g
p404
I1
sVdc9hgrk
p405
I1
sVd91ttkb
p406
I1
sVdbcnnyh
p407
I1
sVd0w9kus
p408
I1
sVd5lwii7
p409
I1
sVd6s9ddp
p410
I1
sVd16io74
p411
I1
sVczgz5dt
p412
I1
sVdi4y549
p413
I1
sVd2sj2vp
p414
I1
sVdoesd07
p415
I1
sVd81knj0
p416
I1
sVd1nplai
p417
I1
sVdcdv4i9
p418
I1
sVd4oas6n
p419
I1
sVd0lpp9t
p420
I1
sVczioza8
p421
I2
sVdbtptw9
p422
I1
sVd0tyx18
p423
I1
sVd0upupt
p424
I1
sVdar1ri3
p425
I1
sVdhzgkb5
p426
I1
sVddre6zv
p427
I2
sVdimrpc7
p428
I1
sVdjqeojc
p429
I1
sVd37hyv1
p430
I1
sVdc8y1sa
p431
I1
sVdi4k4hy
p432
I1
sVdq6byxx
p433
I1
sVdi9m37p
p434
I1
sVdmhp5pw
p435
I1
sVd47wehw
p436
I1
sVdhlgr8d
p437
I1
sVdipjux9
p438
I1
sVdkssp8g
p439
I1
sVd8api74
p440
I1
sVd3did4o
p441
I1
sVdhn2jic
p442
I1
sVdih0uob
p443
I1
sVdo1uv5l
p444
I1
sVd5qklh5
p445
I1
sVdcpveyt
p446
I1
sVdr8r3nd
p447
I1
sVczlrmqj
p448
I1
sVdpsbk5x
p449
I1
sVdqm9pfo
p450
I1
sVdmugdcm
p451
I1
sVcz9g82t
p452
I1
sVd14y62t
p453
I1
sVdkzmufu
p454
I1
sVdml5zdh
p455
I1
sVd4vec56
p456
I1
sVd9elqjo
p457
I1
sVdbi4v08
p458
I1
sVd09tc89
p459
I1
sVd9jaqmi
p460
I1
sVdou5ohl
p461
I1
sVcz5asc7
p462
I1
sVd0ordl0
p463
I1
sVd7wlycd
p464
I1
sVd97jp77
p465
I1
sVd40tuqp
p466
I1
sVdisfh8e
p467
I1
sVd9r5s26
p468
I1
sVdjzy4qp
p469
I1
sVcza4556
p470
I1
sVdsaf8ar
p471
I2
sVd0oqp28
p472
I1
sVdjeut0h
p473
I1
sVdorsgsj
p474
I1
sVde2lyva
p475
I1
sVdguguhi
p476
I1
sVdmjm9ho
p477
I1
sVd8p66p3
p478
I1
sVdmw7ipz
p479
I1
sVd1a704j
p480
I1
sVd7lntaz
p481
I1
sVdkvfgtq
p482
I1
sVdbh6ff9
p483
I1
sVdfoys11
p484
I1
sVcywhet6
p485
I1
sVdfx5jfo
p486
I1
sVd1ypf8d
p487
I2
sVdb9cq3i
p488
I1
sVd2x0qqt
p489
I1
sVdmxqb5s
p490
I1
sVd1qv8t1
p491
I1
sVdskt9z7
p492
I1
sVdf948ab
p493
I1
sVdbbu79k
p494
I1
sVdmrkpvd
p495
I1
sVdpahbxb
p496
I1
sVd7kofg9
p497
I1
sVdsq6h01
p498
I1
sVd1i2323
p499
I1
sVcyuoijz
p500
I1
sVd049031
p501
I1
sVd6bftmg
p502
I1
sVd09almv
p503
I1
sVd5xlspa
p504
I1
sVdg7c16x
p505
I1
sVdo21gvq
p506
I1
sVdd3f1qt
p507
I1
sVd5ev59o
p508
I1
sVd9kavoj
p509
I1
sVcyu33jp
p510
I1
sVdd6j32m
p511
I1
sVd3zr9di
p512
I1
sVd2hf781
p513
I1
sVddc3623
p514
I1
sVde2j5e4
p515
I1
sVd1i99ht
p516
I1
sVdawxztm
p517
I1
sVd2nnvf7
p518
I1
sVcyw2v55
p519
I1
sVd15mi5o
p520
I1
sVcz7l79u
p521
I1
sVcym3ml9
p522
I1
sVdqjh7bg
p523
I1
sVczirwxp
p524
I1
sVcz61xjw
p525
I1
sVdthb4cc
p526
I1
sVdms3g6o
p527
I1
sVde3w3mc
p528
I1
sVdgry22o
p529
I1
sVczhs2q4
p530
I1
sVdmvai6c
p531
I1
sVdmrb205
p532
I1
sVcyrggd3
p533
I1
sVdep2jn1
p534
I1
sVd05n7bf
p535
I1
sVcyv2ayf
p536
I1
sVd3970mq
p537
I1
sVd2cvofp
p538
I1
sVde2ng4l
p539
I1
sVdiqc5sx
p540
I1
sVdir1vbq
p541
I1
sVdprt944
p542
I1
sVd7gegz7
p543
I1
sVdsel9z6
p544
I1
sVd62ucja
p545
I1
sVdrnank3
p546
I1
sVd0zr3am
p547
I1
sVd3u8rvf
p548
I1
sVd9ldtdb
p549
I1
sVdjqn99s
p550
I1
sVczf8t4m
p551
I1
sVd8vxcbs
p552
I1
sVdkzfxag
p553
I1
sVd8hw6x2
p554
I1
sVddg8dv7
p555
I1
sVds74lpo
p556
I1
sVd0n8u8p
p557
I1
sVd2flk52
p558
I1
sVdgio599
p559
I1
sVd7moeip
p560
I1
sVcyuvd3t
p561
I1
sVdhbk3fo
p562
I1
sVdfcy0ej
p563
I1
sVczswaae
p564
I1
sVdn2chiu
p565
I1
sVd1n1qy9
p566
I1
sVczxm7id
p567
I1
sVd70d7b5
p568
I1
sVdhzmahk
p569
I1
sVd2fezqu
p570
I1
sVdfpp9yc
p571
I1
sVdmmwrfo
p572
I1
sVcyjurpx
p573
I1
sVd4lzalq
p574
I1
sVdc6shmv
p575
I1
sVd3huyt8
p576
I1
sVdq5m0uu
p577
I1
sVd1deb07
p578
I1
sVdblalm6
p579
I1
sVdffmd25
p580
I1
sVdj6t52f
p581
I1
sVdp5ep8l
p582
I1
sVczktzv3
p583
I1
sVd7uwae1
p584
I1
sVd1vtdmy
p585
I1
sVdiyduqv
p586
I1
sVd1loh9t
p587
I1
s.