(dp0
Vcyor3xe
p1
I1
s.(dp0
Vcyprr5e
p1
I1
sVcyor3xe
p2
I1
s.(dp0
Vcyujb7c
p1
I1
sVcyor3xe
p2
I1
s.(dp0
Vcyor3xe
p1
I1
sVcyvd6xl
p2
I1
s.(dp0
Vcyy0ca3
p1
I1
sVcyor3xe
p2
I1
s.(dp0
Vcyor3xe
p1
I1
sVcyyyz4j
p2
I1
s.(dp0
Vcyor3xe
p1
I1
sVcyyyz4j
p2
I1
s.(dp0
Vcyor3xe
p1
I1
sVcz26evx
p2
I1
s.(dp0
Vcyor3xe
p1
I1
sVcz26evx
p2
I1
s.(dp0
Vcyor3xe
p1
I1
sVcz4gn22
p2
I1
s.(dp0
Vcz4wd9y
p1
I1
sVcyor3xe
p2
I1
s.(dp0
Vczioetk
p1
I1
sVcyor3xe
p2
I1
s.(dp0
Vczqibju
p1
I1
sVcyor3xe
p2
I1
s.(dp0
Vczrayi3
p1
I1
sVcyor3xe
p2
I1
s.(dp0
Vcyor3xe
p1
I1
sVczrt1dj
p2
I1
s.(dp0
Vcyor3xe
p1
I1
sVczw856l
p2
I1
s.(dp0
Vd00cqj6
p1
I1
sVcyor3xe
p2
I1
s.(dp0
Vd03x0mk
p1
I1
sVcyor3xe
p2
I1
s.(dp0
Vcyor3xe
p1
I1
sVd047l7v
p2
I1
s.(dp0
Vd0519fl
p1
I1
sVcyor3xe
p2
I1
s.(dp0
Vd053wd5
p1
I1
sVcyor3xe
p2
I1
s.(dp0
Vcyor3xe
p1
I1
sVd05y14c
p2
I1
s.(dp0
Vd06yk4t
p1
I1
sVcyor3xe
p2
I1
s.(dp0
Vd091top
p1
I1
sVcyor3xe
p2
I1
s.(dp0
Vd0e6a79
p1
I1
sVcyor3xe
p2
I1
s.(dp0
Vd0m0idp
p1
I1
sVcyor3xe
p2
I1
s.(dp0
Vcyor3xe
p1
I1
sVd0s60yf
p2
I1
s.(dp0
Vd0sr95n
p1
I1
sVcyor3xe
p2
I1
s.(dp0
Vd0sr95n
p1
I1
sVcyor3xe
p2
I1
s.(dp0
Vcyor3xe
p1
I1
sVd0tglmk
p2
I1
s.(dp0
Vcyor3xe
p1
I1
sVd17k7yi
p2
I1
s.(dp0
Vcyor3xe
p1
I1
sVd1c91qx
p2
I1
s.(dp0
Vcyor3xe
p1
I1
sVd1dcas8
p2
I1
s.(dp0
Vd1e2dva
p1
I1
sVcyor3xe
p2
I1
s.(dp0
Vcyor3xe
p1
I1
sVd1hwe0r
p2
I1
s.(dp0
Vcyor3xe
p1
I1
sVd1jyefx
p2
I1
s.(dp0
Vd1k75gw
p1
I1
sVcyor3xe
p2
I1
s.(dp0
Vd1k75gw
p1
I1
sVcyor3xe
p2
I1
s.(dp0
Vd1rxr73
p1
I1
sVcyor3xe
p2
I1
s.(dp0
Vd1v9r8z
p1
I1
sVcyor3xe
p2
I1
s.(dp0
Vd1v9r8z
p1
I1
sVcyor3xe
p2
I1
s.(dp0
Vd21gjf1
p1
I1
sVcyor3xe
p2
I1
s.(dp0
Vcyor3xe
p1
I1
sVd2c2o5s
p2
I1
s.(dp0
Vd2c7moc
p1
I1
sVcyor3xe
p2
I1
s.(dp0
Vd2c7moc
p1
I1
sVcyor3xe
p2
I1
s.(dp0
Vd2c7moc
p1
I1
sVcyor3xe
p2
I1
s.(dp0
Vd2c7moc
p1
I1
sVcyor3xe
p2
I1
s.(dp0
Vd2c7moc
p1
I1
sVcyor3xe
p2
I1
s.(dp0
Vd2ore2h
p1
I1
sVcyor3xe
p2
I1
s.(dp0
Vd2ore2h
p1
I1
sVcyor3xe
p2
I1
s.(dp0
Vd2q4l1l
p1
I1
sVcyor3xe
p2
I1
s.(dp0
Vd2ya7qq
p1
I1
sVcyor3xe
p2
I1
s.(dp0
Vd30kte2
p1
I1
sVcyor3xe
p2
I1
s.(dp0
Vd3cfcxl
p1
I1
sVcyor3xe
p2
I1
s.(dp0
Vd3enu20
p1
I1
sVcyor3xe
p2
I1
s.(dp0
Vd3exrj9
p1
I1
sVcyor3xe
p2
I1
s.(dp0
Vd3fn9hi
p1
I1
sVcyor3xe
p2
I1
s.(dp0
Vd3k6ajd
p1
I1
sVcyor3xe
p2
I1
s.(dp0
Vcyor3xe
p1
I1
sVd3ld7b5
p2
I1
s.(dp0
Vd3lnuq9
p1
I1
sVcyor3xe
p2
I1
s.(dp0
Vcyor3xe
p1
I1
sVd3mnx1e
p2
I1
s.(dp0
Vd3p6xc0
p1
I1
sVcyor3xe
p2
I1
s.(dp0
Vd3pzotq
p1
I1
sVcyor3xe
p2
I1
s.(dp0
Vd3u8mwg
p1
I1
sVcyor3xe
p2
I1
s.(dp0
Vd3u8mwg
p1
I1
sVcyor3xe
p2
I1
s.(dp0
Vd3x7mqv
p1
I1
sVcyor3xe
p2
I1
s.(dp0
Vcyor3xe
p1
I1
sVd3xjbaz
p2
I1
s.(dp0
Vcyor3xe
p1
I1
sVd3xjbaz
p2
I1
s.(dp0
Vd43hc6t
p1
I1
sVcyor3xe
p2
I1
s.(dp0
Vd43hc6t
p1
I1
sVcyor3xe
p2
I1
s.(dp0
Vd478e8f
p1
I1
sVcyor3xe
p2
I1
s.(dp0
Vd4912hh
p1
I1
sVcyor3xe
p2
I1
s.(dp0
Vcyor3xe
p1
I1
sVd49u4ou
p2
I1
s.(dp0
Vcyor3xe
p1
I1
sVd4bpchy
p2
I1
s.(dp0
Vd4ilp6f
p1
I1
sVcyor3xe
p2
I1
s.(dp0
Vd4sb0dv
p1
I1
sVcyor3xe
p2
I1
s.(dp0
Vd4tw1ua
p1
I1
sVcyor3xe
p2
I1
s.(dp0
Vd521asa
p1
I1
sVcyor3xe
p2
I1
s.(dp0
Vd57sxj0
p1
I1
sVcyor3xe
p2
I1
s.(dp0
Vcyor3xe
p1
I1
sVd597752
p2
I1
s.(dp0
Vcyor3xe
p1
I1
sVd5fgicr
p2
I1
s.(dp0
Vcyor3xe
p1
I1
sVd5fgicr
p2
I1
s.(dp0
Vcyor3xe
p1
I1
sVd5i9tcy
p2
I1
s.(dp0
Vcyor3xe
p1
I1
sVd5iftj2
p2
I1
s.(dp0
Vd5otshv
p1
I1
sVcyor3xe
p2
I1
s.(dp0
Vd5uu8ps
p1
I1
sVcyor3xe
p2
I1
s.(dp0
Vd5vro87
p1
I1
sVcyor3xe
p2
I1
s.(dp0
Vd5z88c4
p1
I1
sVcyor3xe
p2
I1
s.(dp0
Vd6b35id
p1
I1
sVcyor3xe
p2
I1
s.(dp0
Vcyor3xe
p1
I1
sVd6ewis7
p2
I1
s.(dp0
Vcyor3xe
p1
I1
sVd6hcx19
p2
I1
s.(dp0
Vd6j9x78
p1
I1
sVcyor3xe
p2
I1
s.(dp0
Vcyor3xe
p1
I1
sVd6mkjn7
p2
I1
s.(dp0
Vd6qb3o8
p1
I1
sVcyor3xe
p2
I1
s.(dp0
Vd6ug8z8
p1
I1
sVcyor3xe
p2
I1
s.(dp0
Vd6vf75j
p1
I1
sVcyor3xe
p2
I1
s.(dp0
Vd6z8ot0
p1
I1
sVcyor3xe
p2
I1
s.(dp0
Vcyor3xe
p1
I1
sVd71xpmn
p2
I1
s.(dp0
Vcyor3xe
p1
I1
sVd72gelr
p2
I1
s.(dp0
Vcyor3xe
p1
I1
sVd74sx2s
p2
I1
s.(dp0
Vcyor3xe
p1
I1
sVd79eh68
p2
I1
s.(dp0
Vcyor3xe
p1
I1
sVd79eh68
p2
I1
s.(dp0
Vd7m1o5p
p1
I1
sVcyor3xe
p2
I1
s.(dp0
Vd7w63n7
p1
I1
sVcyor3xe
p2
I1
s.(dp0
Vd7w63n7
p1
I1
sVcyor3xe
p2
I1
s.(dp0
Vd81lm6s
p1
I1
sVcyor3xe
p2
I1
s.(dp0
Vcyor3xe
p1
I1
sVd8a4jzi
p2
I1
s.(dp0
Vcyor3xe
p1
I1
sVd8flm2h
p2
I1
s.(dp0
Vd8(dp0
Vdt7yoh5
p1
I1
sVcyor3xe
p2
I1
s.