(dp0
Vd8oxqmf
p1
I1
sVdepehfl
p2
I2
sVdeb1lmp
p3
I1
sVdb12oqv
p4
I1
sVdiabxvx
p5
I1
sVdg5iohm
p6
I1
sVde8st27
p7
I1
sVde0ny1k
p8
I2
sVd3ubk4f
p9
I1
sVd6y3zh3
p10
I1
sVdhyyuow
p11
I1
sVdggjwxw
p12
I1
sVcypjp31
p13
I1
sVde46wi6
p14
I2
sVdnkfc4m
p15
I1
sVdhly2rm
p16
I1
sVd5my79f
p17
I1
sVd0vtcng
p18
I2
sVd5wdge3
p19
I1
sVd1pbwnw
p20
I1
sVczupfvu
p21
I1
sVdf9bo2x
p22
I1
sVdhhci6t
p23
I1
sVd3oqyet
p24
I1
sVd6ru3ey
p25
I1
sVdi3h038
p26
I1
sVdeq1o2x
p27
I1
sVdfuck85
p28
I1
sVdc6wbzi
p29
I1
sVda2984l
p30
I2
sVdt0vmyi
p31
I3
sVd0w8qh0
p32
I1
sVdmhwy64
p33
I1
sVd7felgg
p34
I1
sVdkklsp6
p35
I1
sVd0wb74w
p36
I1
sVdk8s0gt
p37
I1
sVdhgnxz5
p38
I2
sVd2my2ee
p39
I1
sVczyykzn
p40
I1
sVdqwe26h
p41
I1
sVdij40bi
p42
I1
sVdeplmiq
p43
I8
sVdcj3brt
p44
I2
sVdj1czv6
p45
I3
sVd6vr1iy
p46
I1
sVdib5wv6
p47
I1
sVczv8doq
p48
I1
sVdh19d1t
p49
I1
sVd0wso6v
p50
I1
sVdt6jfck
p51
I1
sVd1lfbl4
p52
I2
sVdbgilug
p53
I2
sVdijudll
p54
I1
sVd6d7fbf
p55
I1
sVd8wbuj8
p56
I1
sVd1mv2nn
p57
I1
sVd1cjup7
p58
I1
sVczsi0be
p59
I1
sVdgcacov
p60
I1
sVd2wjajd
p61
I4
sVczinktt
p62
I3
sVdoz0v37
p63
I1
sVdf3s3g4
p64
I2
sVdhmoyrg
p65
I1
sVde5rjc0
p66
I1
sVd16s3i5
p67
I1
sVd58izq9
p68
I2
sVden6fwr
p69
I1
sVcyi3gc3
p70
I1
sVdtec40j
p71
I1
sVd6fdwvz
p72
I3
sVd2eke0x
p73
I1
sVdittey8
p74
I1
sVd72mqkc
p75
I1
sVd0snd3w
p76
I1
sVd4th5ib
p77
I2
sVdjoslp6
p78
I2
sVdfb918n
p79
I1
sVdph41o9
p80
I1
sVdadhxv9
p81
I2
sVdms2cet
p82
I1
sVdhtjrzk
p83
I1
sVd16sm34
p84
I1
sVd6fe2p8
p85
I1
sVdcl0a3p
p86
I2
sVdnd0wri
p87
I1
sVdeqxxw0
p88
I3
sVdfdqeit
p89
I2
sVdnv1fdr
p90
I1
sVdblgbw2
p91
I1
sVd1ml0ts
p92
I1
sVdamo9wd
p93
I1
sVd97jpm1
p94
I1
sVdhtfgi2
p95
I1
sVd1zaurw
p96
I1
sVczrhpgs
p97
I2
sVdqd6pb0
p98
I1
sVdatu8wc
p99
I1
sVd16rjal
p100
I1
sVdnqhp8f
p101
I2
sVd16oxtp
p102
I1
sVdatv3eg
p103
I1
sVdgsrgdw
p104
I1
sVde0pazm
p105
I1
sVd6100i5
p106
I1
sVdhk8ka0
p107
I1
sVdh0vwkp
p108
I1
sVd1dlzqa
p109
I1
sVd4ijy4s
p110
I1
sVd20j5ia
p111
I1
sVd0ubrja
p112
I1
sVditgt64
p113
I1
sVd1fc0l2
p114
I1
sVdmzlr8u
p115
I1
sVd91eegb
p116
I1
sVd1meaha
p117
I1
sVd2dn9ba
p118
I1
sVdmlsnyl
p119
I1
sVdg7vv8p
p120
I1
sVd1ms6du
p121
I1
sVde6e6y7
p122
I1
sVd778enw
p123
I1
sVd5jcg2g
p124
I1
sVd0w65n3
p125
I4
sVdddm67p
p126
I4
sVcyiit0j
p127
I1
s.