(dp0
Vdk1gb3k
p1
I1
sVdd5tuz6
p2
I2
sVd1wk62o
p3
I2
sVd1rqiql
p4
I1
sVdrzyeme
p5
I1
sVd7mq7f5
p6
I1
sVd4onchg
p7
I1
sVd8u1dum
p8
I1
sVd1b77gu
p9
I1
sVd14r3nl
p10
I1
sVczmy9uv
p11
I1
sVd2lvliz
p12
I1
sVdkprjtz
p13
I1
sVd1rccr3
p14
I8
sVczek9za
p15
I1
sVd3oc4k4
p16
I1
sVdsrrhqp
p17
I1
sVd1i6kmg
p18
I1
sVdoj400j
p19
I1
sVdmnvi0f
p20
I1
sVd35uoue
p21
I1
sVczqquif
p22
I1
sVd1zep10
p23
I1
sVd68wo0s
p24
I1
sVd58eggh
p25
I2
sVdhm0hp8
p26
I1
sVd9n21z8
p27
I1
s.