(dp0
Vdh0x24e
p1
I2
sVdhp2f9h
p2
I1
sVd91zm0q
p3
I1
sVd7l85kk
p4
I1
sVdrgab3v
p5
I1
sVdadr3ov
p6
I2
sVdn9jgv9
p7
I1
sVdjv032r
p8
I1
sVdgfltbj
p9
I1
sVdiqj4l4
p10
I1
sVd1psiem
p11
I1
sVczuqbnu
p12
I1
sVdn7vt08
p13
I1
sVd4cx6qp
p14
I1
sVddsqqe5
p15
I1
sVdb541kz
p16
I1
sVdfnibj7
p17
I1
sVdo2bp5i
p18
I1
sVd7vuyps
p19
I1
sVdn82osb
p20
I1
sVczg4sbu
p21
I1
sVd6dodp2
p22
I1
sVcyo2a0p
p23
I5
sVdjk7ex7
p24
I1
sVdb0d58x
p25
I1
sVd33po1g
p26
I1
sVdaujrjv
p27
I1
sVdojgdmh
p28
I1
sVcyo03es
p29
I1
sVdmpl6bp
p30
I1
sVdo4jo22
p31
I1
sVd7cqh3j
p32
I3
sVd5avuqf
p33
I1
sVd9h2a72
p34
I1
sVdgn3x14
p35
I1
sVdp8fhy8
p36
I1
sVd2815id
p37
I1
sVdo4hcel
p38
I1
sVdnk56kl
p39
I1
sVdiw44a3
p40
I1
sVdobefsb
p41
I1
sVdgmoajw
p42
I1
sVcyo20z1
p43
I1
sVdpg8mfw
p44
I1
sVdj2s3y9
p45
I1
sVd1sadq6
p46
I1
sVdhbkwoe
p47
I3
sVdadqjbw
p48
I1
sVcyjieca
p49
I1
sVdgbg2jb
p50
I1
sVd0wagc9
p51
I1
sVd97gqam
p52
I1
sVdtc3bpe
p53
I1
sVd0lb9i8
p54
I1
sVde15mls
p55
I1
sVd32ptx9
p56
I1
sVdneg3oh
p57
I1
sVd1mbhya
p58
I1
sVdrxbljj
p59
I1
sVcynwqc2
p60
I1
sVdayqbqf
p61
I1
sVdq0lzfa
p62
I1
sVdqumo7j
p63
I1
sVdcpjxge
p64
I1
sVdprnfq2
p65
I1
sVdhfnwfa
p66
I1
s.