(dp0
Vd073dcx
p1
I1
s.(dp0
Vd073dcx
p1
I1
sVd6lt4z3
p2
I1
s.(dp0
Vd073dcx
p1
I1
sVd6mcywf
p2
I1
s.(dp0
Vd073dcx
p1
I1
sVd7nhcp7
p2
I1
s.(dp0
Vd073dcx
p1
I1
sVd8czfek
p2
I1
s.(dp0
Vd073dcx
p1
I1
sVd901581
p2
I1
s.(dp0
Vd073dcx
p1
I1
sVd901581
p2
I1
s.(dp0
Vd073dcx
p1
I1
sVd9nxu15
p2
I1
s.(dp0
Vd073dcx
p1
I1
sVdb1wluy
p2
I1
s.(dp0
Vd073dcx
p1
I1
sVdb1wluy
p2
I1
s.(dp0
Vd073dcx
p1
I1
sVdb7e6vz
p2
I1
s.(dp0
Vd073dcx
p1
I1
sVdb7e6vz
p2
I1
s.(dp0
Vd073dcx
p1
I1
sVdbvzkvq
p2
I1
s.(dp0
Vd073dcx
p1
I1
sVdbvzkvq
p2
I1
s.(dp0
Vd073dcx
p1
I1
sVdhvddhr
p2
I1
s.(dp0
Vd073dcx
p1
I1
sVdsd4o3k
p2
I1
s.(dp0
Vd073dcx
p1
I1
sVdsd4o3k
p2
I1
s.(dp0
Vd073dcx
p1
I1
sVdse4uqj
p2
I1
s.(dp0
Vd073dcx
p1
I1
sVdse4uqj
p2
I1
s.