(dp0
Vdhnfax6
p1
I1
sVd1vmzjh
p2
I1
sVdabzvfk
p3
I1
sVd227tge
p4
I1
sVd100cy8
p5
I1
sVd52r3a5
p6
I1
sVczx7toh
p7
I1
sVd0674fu
p8
I1
sVdsotgrx
p9
I1
sVdj3z6n3
p10
I1
sVcznx4fd
p11
I1
sVdr0twjh
p12
I1
sVd4ypxqp
p13
I1
sVd34oyqn
p14
I1
sVdfo0see
p15
I1
sVd0675jx
p16
I2
sVd1o1nj2
p17
I1
sVd3p84ly
p18
I1
sVdgyf6pw
p19
I1
sVd3epmga
p20
I1
sVdfldmji
p21
I1
s.