(dp0
Vd33lpo8
p1
I1
sVd0vlqqt
p2
I1
sVdq8r0k6
p3
I1
sVd2z3w8g
p4
I1
sVd0zi3vv
p5
I1
sVd45vilj
p6
I1
sVddf130u
p7
I1
sVdqp757d
p8
I1
sVd4i8so6
p9
I1
sVdffx6au
p10
I1
sVd9dldp0
p11
I1
sVd1nd9b0
p12
I1
sVdixygix
p13
I1
sVdb31bdw
p14
I1
sVdsy8g9v
p15
I1
sVd07tzui
p16
I1
sVd4ctcf0
p17
I1
sVd9etwnj
p18
I1
sVddn9lfw
p19
I1
sVd3ov6yq
p20
I1
sVdegb5jb
p21
I1
sVdhdur0c
p22
I1
sVdqn9m8v
p23
I1
sVczkwv6q
p24
I1
sVd0uu1ok
p25
I1
sVczzta5m
p26
I1
sVcz0qpzg
p27
I1
sVczzhv45
p28
I1
sVd9vmpfc
p29
I1
sVdfkkqet
p30
I1
sVcz5bc4k
p31
I1
sVd7sm3ec
p32
I1
sVd098z5x
p33
I1
sVdiud3v0
p34
I1
sVd5bcm8g
p35
I1
sVdbn79zs
p36
I1
sVdeni5k0
p37
I1
sVdexdre9
p38
I1
sVdtcvvgu
p39
I1
sVcypkrmo
p40
I1
sVdel3634
p41
I1
sVd1kw1m0
p42
I1
sVdcs3svt
p43
I1
sVdgori8l
p44
I2
sVd6morjd
p45
I1
sVdgvpl0t
p46
I1
sVdq8e1z4
p47
I1
sVdgdsmi7
p48
I1
sVd0waotk
p49
I1
sVdmxctnt
p50
I1
sVd2uhb1o
p51
I1
sVdj4s6k0
p52
I1
sVd0y13hx
p53
I1
sVd3aq77u
p54
I1
sVdazsyex
p55
I1
sVdhe2dci
p56
I1
sVdn83391
p57
I1
sVcz8cb2b
p58
I1
sVd7t623p
p59
I1
sVdqc0f75
p60
I1
sVdndeh3u
p61
I1
sVdi1xq10
p62
I1
sVdbjgh2m
p63
I1
sVcylj13x
p64
I1
sVdg6a00f
p65
I1
sVczg7ptd
p66
I1
sVdsouijh
p67
I1
sVdsry4s2
p68
I1
sVdau34z0
p69
I1
sVd8426m8
p70
I1
sVd5xpsh6
p71
I1
sVdjyc6vw
p72
I1
sVdjdzrr0
p73
I1
sVd1qv64m
p74
I1
sVd7bv38m
p75
I1
sVd6hyiwd
p76
I1
sVdaimf2s
p77
I2
sVd8vbtm9
p78
I1
sVczogdwx
p79
I1
sVdgkrxfg
p80
I1
sVd0djhlu
p81
I1
sVdcquejf
p82
I1
sVdkrqbsu
p83
I1
sVdedjxyz
p84
I1
sVd4kx4ws
p85
I1
sVd7remaz
p86
I1
sVd87b752
p87
I1
sVdf87zdo
p88
I1
sVdfl4e1s
p89
I1
sVd8wjyac
p90
I1
sVdope4k6
p91
I1
sVdbn5d4i
p92
I2
sVd3dbxln
p93
I1
sVdd0chhb
p94
I1
sVd3r9bfb
p95
I1
sVcyio8jq
p96
I2
sVdfzw9x1
p97
I1
sVdgvc1b1
p98
I1
sVdqvsomn
p99
I1
sVd3d9ez2
p100
I1
sVd8v73r3
p101
I1
sVd0j2yv3
p102
I3
sVdjn0au3
p103
I2
sVd1belfw
p104
I1
sVdn655sd
p105
I1
sVdekk0i6
p106
I1
sVd8thh9i
p107
I1
sVczk4ixy
p108
I1
sVdi2mhk7
p109
I1
sVdt0f5a5
p110
I1
sVd6iyrs8
p111
I1
sVdb93c5r
p112
I1
sVdco6ct6
p113
I1
sVd4r33jb
p114
I1
sVdpm3nmb
p115
I1
sVdqkwuoj
p116
I1
sVd9yhl6j
p117
I1
sVdh1q558
p118
I1
sVd04ursl
p119
I1
sVcz7klmh
p120
I1
sVdjctbd7
p121
I1
sVdh855gv
p122
I1
sVd3uqtjn
p123
I1
sVdhcjq52
p124
I1
sVcz63tzr
p125
I1
sVdj27a6y
p126
I1
sVdsn76bw
p127
I1
sVdfbnrv9
p128
I1
sVcyo8ghm
p129
I1
sVdnv40ow
p130
I1
sVd3gylj3
p131
I1
sVd23duwf
p132
I1
sVdem6fpw
p133
I1
sVd84gw8x
p134
I1
sVdaz423n
p135
I1
sVd1xnuut
p136
I1
sVd045ib2
p137
I2
sVd344k5i
p138
I1
sVd164yva
p139
I1
sVd0b81q3
p140
I1
sVda4g2bj
p141
I3
sVdoi72yt
p142
I1
sVdmm8k6j
p143
I1
sVczv1i7h
p144
I1
sVdg4lexq
p145
I1
sVd71ymua
p146
I1
sVdq7ahpa
p147
I1
sVdeo2lof
p148
I1
sVd6nxwx0
p149
I1
sVdkn9xx2
p150
I1
sVdkg78lr
p151
I1
sVdj5pgwn
p152
I1
sVd0jvsfg
p153
I1
sVdb9908u
p154
I1
sVd4bfhsq
p155
I1
sVd0j6g4b
p156
I1
sVdd363cg
p157
I1
sVd71jwu9
p158
I1
sVd3q0gdn
p159
I2
sVd8egkw0
p160
I1
sVd9xcjb2
p161
I1
sVd5aao0i
p162
I1
sVdd9wy2n
p163
I1
sVd0vav22
p164
I1
sVd0rl9k3
p165
I1
sVdomg0w8
p166
I1
sVd55v6jf
p167
I1
sVcyrfnnr
p168
I1
sVdn9clkf
p169
I1
sVdnqacb6
p170
I1
sVd6rztki
p171
I1
sVdbhd5gc
p172
I1
sVd6t43cp
p173
I1
sVdo2ucoe
p174
I1
sVdml1jzu
p175
I1
sVd1giwji
p176
I1
sVd0tskgb
p177
I1
sVd7u8u8v
p178
I1
sVcys0mxd
p179
I1
sVd3n9b76
p180
I1
sVdes9eqp
p181
I1
sVd055xur
p182
I2
sVdheqbo3
p183
I1
sVdikdgc5
p184
I1
sVd1trfc9
p185
I1
sVd3peyqm
p186
I1
sVdd9k79e
p187
I2
sVd30zfdt
p188
I1
sVd3oaue8
p189
I1
sVdc5znx6
p190
I2
sVd5lyu8d
p191
I1
sVd84dx7z
p192
I1
sVdoxh9l7
p193
I1
sVd2bc9v6
p194
I1
sVdpyalbc
p195
I1
sVd5osnp1
p196
I1
sVdnflbpp
p197
I1
sVdk2m9kl
p198
I1
sVdg5tqt3
p199
I1
sVdg3jgct
p200
I1
sVdmnked2
p201
I1
sVdmzsifi
p202
I1
sVd1jzp1y
p203
I1
sVd0jgreq
p204
I1
sVd34lfmb
p205
I1
sVdhny17u
p206
I1
sVdgtg621
p207
I1
sVdgohihu
p208
I1
sVczbpqmc
p209
I1
sVdd7d605
p210
I1
sVddhrvl3
p211
I1
sVd77sme6
p212
I1
sVd74rebf
p213
I1
sVdk9yfv6
p214
I1
sVd7mic8h
p215
I1
sVcyyjm5f
p216
I1
sVd0rfdhi
p217
I1
sVdh0f11d
p218
I1
sVd7rh0tx
p219
I1
sVdflotxt
p220
I1
sVdozwqv4
p221
I1
sVdgh2681
p222
I1
sVczm6b7c
p223
I1
sVcz1afj3
p224
I1
sVdghvang
p225
I1
sVdaj4rb9
p226
I1
sVcz82zgj
p227
I1
sVd19mp3s
p228
I1
sVdcg71xt
p229
I1
sVddrk87f
p230
I1
sVdo1wqfu
p231
I1
sVd63q7za
p232
I1
sVdqeavv1
p233
I1
sVd3cku6w
p234
I1
sVd4z88wz
p235
I1
sVdexf2e0
p236
I1
sVdssgozg
p237
I1
sVdgbktuf
p238
I1
sVd2d3bjo
p239
I1
sVdbb8wux
p240
I1
sVdtjf9cl
p241
I2
sVd3q4qcs
p242
I1
sVd8dy4qr
p243
I1
sVd2ksuch
p244
I1
sVdd7mqhk
p245
I1
sVd0wcf12
p246
I1
sVdenvair
p247
I1
sVdqzjnpd
p248
I1
sVd9buzoy
p249
I1
sVczgzz49
p250
I1
sVdjhaent
p251
I2
sVdd7467u
p252
I1
sVddyse35
p253
I1
sVdq8mxsm
p254
I1
sVdihe7ow
p255
I1
sVdg0qdiu
p256
I1
sVdbk3322
p257
I1
sVd0ahlop
p258
I1
sVdix49la
p259
I1
sVd1kr72c
p260
I2
sVczh2c62
p261
I1
sVd0rvrah
p262
I1
sVdd8bq7q
p263
I1
sVdjstug4
p264
I1
sVdsxeppn
p265
I1
sVd2ibv6f
p266
I1
sVd8c3gxw
p267
I1
sVd969jjb
p268
I1
sVdeloo37
p269
I1
sVdeksrus
p270
I1
sVd80an3e
p271
I1
sVd4nejqg
p272
I1
sVd71qnke
p273
I1
sVdrfzs5d
p274
I1
sVdoj3e6v
p275
I1
sVd5vr1vx
p276
I1
sVdmqptv5
p277
I1
sVdb9nngj
p278
I1
sVd0mrto7
p279
I1
sVd1taq3y
p280
I1
sVdsm27ny
p281
I1
sVdisdztu
p282
I1
sVd0ru2ic
p283
I1
sVderp4uh
p284
I1
sVdjv9rpx
p285
I1
sVd2ce8rp
p286
I1
sVcz8wx9w
p287
I1
sVd36lzea
p288
I1
sVd93sqk7
p289
I1
sVd3qyr0b
p290
I1
sVd77jxmk
p291
I1
sVd3pqu09
p292
I1
sVdbswk3o
p293
I1
sVdi6261v
p294
I1
sVczqg8t2
p295
I1
sVcz5d9cy
p296
I1
sVdkixxgw
p297
I1
sVdghlqaz
p298
I1
sVdb6pm3z
p299
I1
sVddpgymj
p300
I1
sVd9bhr0e
p301
I1
sVd2zvjat
p302
I1
sVdpym58q
p303
I1
sVd3no328
p304
I1
sVdk83v57
p305
I1
sVczbggxg
p306
I1
sVd1tkhby
p307
I1
sVd1xlqdv
p308
I1
sVd1lzi20
p309
I1
sVdqk3wut
p310
I1
sVd33l2cb
p311
I1
sVdhceklu
p312
I1
sVdisx9im
p313
I1
sVdb66a56
p314
I1
sVdp8yvg8
p315
I1
sVd2sx9t0
p316
I1
sVd19hxk4
p317
I1
sVdk4ybk2
p318
I1
sVdgal1lx
p319
I1
sVd628yey
p320
I1
sVde83rz1
p321
I1
sVdnkpt3l
p322
I1
sVd328rkn
p323
I1
sVd3lggkf
p324
I1
sVdd297lj
p325
I1
sVd3l2snh
p326
I2
sVde38xjw
p327
I1
sVd97xm8b
p328
I1
sVd42fvd6
p329
I1
sVd09z7o7
p330
I1
sVd8pyrjv
p331
I1
sVdadh98e
p332
I1
sVde6977t
p333
I1
sVd8vej98
p334
I1
sVdr4cfz7
p335
I1
sVdkoz4cz
p336
I1
sVdsqgduk
p337
I1
sVdryg4ay
p338
I1
sVd5mzw75
p339
I2
sVdexsqa6
p340
I1
sVdny4eqv
p341
I1
sVczgmj7j
p342
I1
sVd1k3nmw
p343
I1
sVdmx8a5p
p344
I1
sVdf93ju7
p345
I1
sVczxr6pp
p346
I1
sVdbaqq7h
p347
I1
sVdny3tiv
p348
I1
sVd2ktmop
p349
I1
sVd5xzae3
p350
I1
sVdatuwtd
p351
I1
sVdff3cod
p352
I1
sVdg49ffc
p353
I1
sVd0uw645
p354
I1
sVdib2bc4
p355
I1
sVd60kk6h
p356
I1
sVd3g86uj
p357
I1
sVdbsa6a6
p358
I1
sVcyoaona
p359
I1
sVd7e89la
p360
I1
sVd0qxwg4
p361
I1
sVdeeog9d
p362
I1
sVdepl2o5
p363
I1
sVdhbndl8
p364
I1
sVdftefcx
p365
I1
sVd27c8kr
p366
I1
sVdgp9qpx
p367
I1
sVd2q2jr5
p368
I1
sVdsl6ivb
p369
I1
sVddwz9xy
p370
I1
sVdi8e932
p371
I1
sVde6hd5m
p372
I1
sVd6ucmga
p373
I1
sVdbklfg0
p374
I1
sVd9mkkgq
p375
I1
sVdevsznp
p376
I1
sVd42amfl
p377
I1
sVd5vljam
p378
I1
sVdel5n9a
p379
I1
sVdelfav1
p380
I1
sVddjlso0
p381
I1
sVdii75i2
p382
I1
sVdq6g1wm
p383
I1
sVd6kh1q7
p384
I1
sVdil2o14
p385
I1
sVd7fd4ca
p386
I1
sVd31mnwf
p387
I1
sVd20iotc
p388
I1
sVd007r5h
p389
I1
sVczwnsyw
p390
I1
sVd8un85x
p391
I2
sVdfle8zq
p392
I1
sVda3sjpk
p393
I1
sVdq8bjzm
p394
I1
sVd9qxvf8
p395
I1
sVdeu7s6g
p396
I1
sVd9my1pd
p397
I1
sVdn5xwq3
p398
I1
sVd9ggd0r
p399
I1
sVdel8mcv
p400
I1
sVd337635
p401
I2
sVdc47u34
p402
I1
sVdoei71x
p403
I1
sVdhdozyz
p404
I1
sVdeqj3j8
p405
I1
sVcznz7ji
p406
I1
sVdh6i5hq
p407
I1
sVdt38gk5
p408
I1
sVdan1za1
p409
I2
sVd2afo7n
p410
I1
sVcz1zf5l
p411
I1
sVdb6ylox
p412
I1
sVd5j1eee
p413
I1
sVcyuic0v
p414
I2
sVd16zsk4
p415
I1
sVdjk5ozp
p416
I1
sVdbyaqvq
p417
I1
sVd5emqte
p418
I1
sVd5t1rbs
p419
I1
sVd94jmk2
p420
I1
sVdncllrt
p421
I1
sVczeop92
p422
I1
sVdi521kj
p423
I1
sVdos6z8v
p424
I1
sVdkjo5zz
p425
I1
sVd9n0xg3
p426
I1
sVdmpl6bp
p427
I1
sVde43km7
p428
I1
sVdgv73mu
p429
I1
sVddabv3h
p430
I2
sVdhf2s5k
p431
I1
sVdid00q0
p432
I1
sVdnx01mf
p433
I1
sVd82njb5
p434
I1
sVczfq164
p435
I1
sVd0mrdg0
p436
I1
sVd3ba9xu
p437
I1
sVd9aoh5c
p438
I1
sVd16lmbv
p439
I2
sVd9vqbw6
p440
I1
sVd4ahb57
p441
I1
sVdo81c4k
p442
I1
sVddicng7
p443
I1
sVd1nplai
p444
I2
sVdaq9zww
p445
I1
sVdcy4xw1
p446
I1
sVd69devs
p447
I1
sVdq7vkz1
p448
I1
sVd1xssze
p449
I1
sVd38armc
p450
I1
sVdavgnez
p451
I1
sVdqmqovb
p452
I1
sVdn98b91
p453
I1
sVdcrbwra
p454
I1
sVdi47qzj
p455
I1
sVdn3x17h
p456
I4
sVdh0tx1j
p457
I1
sVd2fut8w
p458
I2
sVdkj08qi
p459
I1
sVdkgu4us
p460
I1
sVdih3rhq
p461
I1
sVd9xbngh
p462
I1
sVdju4xua
p463
I1
sVczed5jy
p464
I1
sVddv8gbg
p465
I1
sVd5ie7sh
p466
I1
sVdgkwxe6
p467
I2
sVdpt96qo
p468
I1
sVd3pihnb
p469
I1
sVd26svz0
p470
I1
sVd5gh9xj
p471
I1
sVd82htk7
p472
I1
sVd2bwpy5
p473
I2
sVdi8c2kl
p474
I1
sVdsczwps
p475
I1
sVd0asvtm
p476
I1
sVdkssp8g
p477
I1
sVd2gkxzr
p478
I1
sVdas5jvx
p479
I1
sVdcdwlwi
p480
I1
sVdjphinf
p481
I1
sVd0cjwff
p482
I1
sVdscxaj8
p483
I1
sVdej8e3s
p484
I1
sVdibxtug
p485
I1
sVd2o0lc6
p486
I1
sVdheabh6
p487
I1
sVd03lvsp
p488
I1
sVd8nwa09
p489
I1
sVdkahv0m
p490
I1
sVd9zujml
p491
I1
sVd6fcz9d
p492
I1
sVdejaiqo
p493
I1
sVdrhslvt
p494
I1
sVd30jn04
p495
I1
sVdel748h
p496
I1
sVdqebdd4
p497
I1
sVdefxl5y
p498
I1
sVdt2mmb4
p499
I1
sVd9vouqz
p500
I1
sVd91ij74
p501
I1
sVdeq2zqm
p502
I1
sVcz5ffh3
p503
I1
sVddzz3sz
p504
I1
sVd31ye3z
p505
I1
sVd3ez31n
p506
I1
sVd7t277v
p507
I1
sVdf4lqgi
p508
I1
sVdj735dk
p509
I1
sVdjadapk
p510
I1
sVd1eib3p
p511
I1
sVd0dgn30
p512
I1
sVd7neihl
p513
I1
sVd15jcto
p514
I1
sVdqsjj99
p515
I1
sVczhog8k
p516
I1
sVd2sjbx4
p517
I1
sVdn8hoiv
p518
I1
sVcztkbvr
p519
I1
sVdq7r20o
p520
I1
sVd8oge2t
p521
I1
sVd8f6py5
p522
I2
sVdayzn7s
p523
I1
sVdccd4uo
p524
I1
sVd38wc38
p525
I1
sVdp50p71
p526
I1
sVd5kuq29
p527
I1
sVd9z5zy0
p528
I1
sVdmrrz1r
p529
I2
sVdhfz5wo
p530
I1
sVd1miebn
p531
I2
sVd7u03ce
p532
I1
sVdmre9at
p533
I1
sVdhxu1ee
p534
I1
sVd2x0qqt
p535
I1
sVczcvbhh
p536
I2
sVd9x9qga
p537
I1
sVd7g17pq
p538
I1
sVdebr1a9
p539
I1
sVcywujyf
p540
I1
sVdn0cnnr
p541
I2
sVd9k5qja
p542
I1
sVdd204fn
p543
I1
sVd5y5nim
p544
I1
sVcyv0tmr
p545
I1
sVd2qj4m4
p546
I1
sVdgg59da
p547
I1
sVd2bljow
p548
I2
sVd3e38g9
p549
I1
sVda90n9w
p550
I1
sVdatdql1
p551
I1
sVdivjyka
p552
I1
sVdoi9ub5
p553
I2
sVdsf78lq
p554
I1
sVd4rzxf8
p555
I1
sVdbuksxe
p556
I1
sVcz7yo4a
p557
I1
sVdgkaz6o
p558
I1
sVd3zr9di
p559
I1
sVd2iva25
p560
I1
sVd22tyar
p561
I1
sVdb1kr11
p562
I1
sVdjtcp1u
p563
I1
sVd15hi6g
p564
I1
sVdk20i8u
p565
I1
sVda5z64w
p566
I1
sVd7ytevo
p567
I1
sVdst10vy
p568
I1
sVd6p8e2h
p569
I1
sVd6dpsje
p570
I1
sVdkm2qo8
p571
I1
sVdaqpbe1
p572
I1
sVd0tzbe2
p573
I1
sVdaub4gm
p574
I1
sVd5gyvyq
p575
I1
sVd1310yz
p576
I1
sVdnyarb8
p577
I1
sVdafd6ix
p578
I1
sVd9n62jq
p579
I1
sVd2zl0g9
p580
I2
sVdmphjnx
p581
I1
sVdgso8r1
p582
I1
sVd4s61o7
p583
I1
sVd1c8y9n
p584
I1
sVdewer02
p585
I1
sVczvuiv8
p586
I1
sVd73eexr
p587
I1
sVd2u2sv8
p588
I1
sVdr84ty2
p589
I1
sVdeinc4q
p590
I1
sVddxjpqz
p591
I1
sVdjnnuz7
p592
I1
sVdsla11d
p593
I1
sVdg8xkaq
p594
I2
sVd798uya
p595
I1
sVd8as1jg
p596
I1
sVdr1yjfa
p597
I1
sVdb75d6r
p598
I1
sVd26kau3
p599
I1
sVdgslelh
p600
I1
sVdh7pqfe
p601
I1
sVdb7vvuv
p602
I1
sVd6vtlj7
p603
I1
sVdqgabxr
p604
I1
sVd8c6t39
p605
I1
sVdn0panx
p606
I2
sVdk666z0
p607
I1
sVdbvqzns
p608
I1
sVd7b06x2
p609
I1
sVdpi6mqf
p610
I1
sVczslh72
p611
I1
sVd7ylzh1
p612
I1
sVdad7cuf
p613
I1
sVdk4epvj
p614
I1
sVdp6wzum
p615
I1
sVdccnuqh
p616
I1
sVd38pqoe
p617
I1
sVczhrj9m
p618
I1
sVdkgdo0y
p619
I1
sVd1l77jz
p620
I1
sVd0ugvxq
p621
I1
sVczw1vna
p622
I1
sVddftetw
p623
I1
sVczd9kw9
p624
I1
sVd8bjpke
p625
I1
sVdi2uebk
p626
I1
sVde0jf93
p627
I1
sVde8hpxv
p628
I1
sVde259jm
p629
I2
sVdg9wa87
p630
I1
sVda6yf8m
p631
I1
sVdab8a62
p632
I1
sVd1qqipk
p633
I1
sVdotw8zk
p634
I2
sVdkgge8j
p635
I1
sVd62vuiq
p636
I1
sVd2xe7fy
p637
I1
sVdic21h3
p638
I1
sVde16jbv
p639
I1
sVd1mvxe6
p640
I1
sVdi194ja
p641
I1
sVdc97rzw
p642
I2
sVd34p0gy
p643
I1
sVd2n9y95
p644
I1
sVd75cx4c
p645
I1
sVdiztmmz
p646
I1
sVderhr4s
p647
I1
sVd5oss0g
p648
I1
sVdgeq9ak
p649
I1
sVdexfzml
p650
I1
sVd9xrlwf
p651
I1
sVdk9wcdx
p652
I1
sVd9z6gsf
p653
I1
sVdgrk626
p654
I1
sVd9eefrz
p655
I1
sVdgnxju4
p656
I1
sVcyo2de3
p657
I1
sVdjk6rgb
p658
I1
sVdd9eg21
p659
I1
sVd0tknzv
p660
I1
sVdfidlf3
p661
I1
sVd1htjxq
p662
I1
sVd04lxy8
p663
I1
sVd1pptt4
p664
I3
sVd11wjho
p665
I1
sVd5n2yq7
p666
I2
sVd25rueu
p667
I2
sVcznf72q
p668
I1
sVd3popzn
p669
I1
sVdgod97y
p670
I1
sVd3yqnfu
p671
I1
sVdd3u0r2
p672
I1
sVdhhxrf9
p673
I1
sVdsidppj
p674
I1
sVdg9oxmx
p675
I1
sVd1lq8oz
p676
I1
sVdbrgtwz
p677
I1
sVd8yf41x
p678
I1
sVd5yhp1x
p679
I1
sVdob6gah
p680
I1
sVczdiiza
p681
I1
sVdbid9bw
p682
I1
sVd54eqqs
p683
I1
sVd9avx70
p684
I2
sVdhixr0x
p685
I1
sVdkxz66n
p686
I2
sVd1nqeh7
p687
I1
sVdp2o8dq
p688
I1
sVdbjxbze
p689
I1
sVdbtvqqi
p690
I1
sVd1otzue
p691
I1
sVdf03x9e
p692
I1
sVdbwv8cj
p693
I1
sVdmqcyiq
p694
I1
sVdexrdrk
p695
I1
sVczjixvc
p696
I1
sVdauawe1
p697
I1
sVd8kq8z6
p698
I1
sVdh4knpv
p699
I1
sVd11jp3n
p700
I2
sVdd8ukvd
p701
I1
sVdfau4gn
p702
I1
sVd0d7lvq
p703
I1
sVdinnx9i
p704
I1
sVd00fscj
p705
I1
sVd05vedq
p706
I1
sVdndq6h8
p707
I1
sVcz2ucgd
p708
I1
sVdij1x68
p709
I1
sVdb56k3q
p710
I1
sVdk17dbj
p711
I1
sVd237agc
p712
I1
sVdi0u6cc
p713
I1
sVdgvycw1
p714
I1
sVcz4jpjk
p715
I1
sVdh89cz3
p716
I1
sVd1gfu8n
p717
I1
sVddxeggu
p718
I1
sVd0ug527
p719
I1
sVcyz3xyw
p720
I1
sVczfidm6
p721
I1
sVdtfoh29
p722
I1
sVcyxbmic
p723
I1
sVdkvddt6
p724
I1
sVdgpb6wg
p725
I1
sVdf9aw46
p726
I1
sVdeu0t49
p727
I1
sVdnbj23o
p728
I1
sVddqpxr3
p729
I1
sVdazu8uj
p730
I1
sVd09yhu5
p731
I1
sVdcnnvgf
p732
I1
sVdhm7a7r
p733
I1
sVdnlumew
p734
I1
sVdbcusuk
p735
I1
sVdhl7yje
p736
I1
sVdta42on
p737
I1
sVd82p18t
p738
I1
sVd15nxia
p739
I1
sVdck32tl
p740
I2
sVdkbekkx
p741
I1
sVd0twy7e
p742
I1
sVdctzoe0
p743
I1
sVdksxxcr
p744
I1
sVdjg4knx
p745
I1
sVdeelruz
p746
I1
sVda1ygda
p747
I1
sVd4jq9xx
p748
I1
sVczwbxuf
p749
I1
sVdho4svq
p750
I1
sVd3tz8fd
p751
I1
sVd2zhhb9
p752
I1
sVd0lbwsq
p753
I1
sVde7e34d
p754
I1
sVdj6xj5z
p755
I2
sVdqtbhp3
p756
I1
sVcyttsbh
p757
I1
sVdcwluyp
p758
I1
sVdikq6z7
p759
I1
sVdjqyas9
p760
I1
sVczm2s6p
p761
I1
sVd3yddd6
p762
I1
sVd71k2rd
p763
I1
sVd19ov3k
p764
I1
sVddajc3v
p765
I1
sVd3iqmla
p766
I1
sVdna50xi
p767
I1
sVdq2dqak
p768
I1
sVd3ht3f1
p769
I2
sVd59l8mf
p770
I1
sVd6itelp
p771
I1
sVczy1wv9
p772
I1
sVd6a6c3z
p773
I1
sVd8djwq4
p774
I1
sVdibq0ov
p775
I1
sVd11zgx2
p776
I1
sVdexak7s
p777
I1
sVd1mfi5p
p778
I1
sVd3j6pqw
p779
I1
sVdalamf4
p780
I2
sVd40ebiq
p781
I2
sVdeln6kl
p782
I1
sVd8ua95q
p783
I1
sVd7llsei
p784
I1
sVda3w37l
p785
I1
sVd080d59
p786
I1
sVdbulkvw
p787
I1
sVd0e333i
p788
I1
sVd5rgohh
p789
I1
sVde80yee
p790
I1
sVdpj6l88
p791
I4
sVdi1a2x3
p792
I1
sVda1rlwy
p793
I1
sVddjaot5
p794
I1
sVderkarf
p795
I1
sVd1qneuc
p796
I1
sVdolz1q0
p797
I1
sVd8cdohv
p798
I1
sVd6j97en
p799
I2
sVdmhwmxh
p800
I1
sVdolsdd9
p801
I1
sVdgpyrp1
p802
I1
sVd38592i
p803
I1
sVdmiwm4x
p804
I1
sVczyr7kf
p805
I1
sVczk2ajz
p806
I1
sVd3qk61z
p807
I2
sVd2ih5hw
p808
I1
sVdhsrxte
p809
I3
sVcyn164q
p810
I1
sVdrfk6zl
p811
I1
sVdeqcwt3
p812
I1
sVdrgg6fw
p813
I1
sVddripge
p814
I2
sVdfy2dha
p815
I1
sVde72gfq
p816
I1
sVd5wxawa
p817
I1
sVcyr6f4s
p818
I1
sVcyshxpq
p819
I1
sVczzxm65
p820
I1
sVd312g8u
p821
I1
sVd08pw6y
p822
I1
sVdollvq9
p823
I1
sVd329cna
p824
I1
sVdhdrcuh
p825
I1
sVd2j6eih
p826
I1
sVdfnw6js
p827
I1
sVdphhqmw
p828
I1
sVd3nh6pc
p829
I1
sVdj523js
p830
I1
sVdeaw0vl
p831
I1
sVd1p69vu
p832
I1
sVd10nxva
p833
I1
sVczgyih8
p834
I1
sVdkje4gv
p835
I1
sVdeu1qiv
p836
I1
sVd8fp1lm
p837
I1
sVczntz4e
p838
I1
sVdfapny1
p839
I2
sVdcr84vc
p840
I1
sVdh84d3a
p841
I1
sVdnenqy5
p842
I1
sVdc98haw
p843
I1
sVdnbnhcf
p844
I1
sVdbazjl2
p845
I1
sVdjiv4jf
p846
I1
sVdk3cdtq
p847
I1
sVdmpibdd
p848
I1
sVdhz8k0w
p849
I1
sVdfrnq2f
p850
I1
sVd00j8jx
p851
I1
sVd2ussf4
p852
I1
sVd35goob
p853
I1
sVdnh43m5
p854
I1
sVdjzwujh
p855
I1
sVdg3dc3g
p856
I1
sVdihau6o
p857
I1
sVdmi2021
p858
I1
sVcyxvyl8
p859
I1
sVd1jdje0
p860
I1
sVd0ycpyd
p861
I1
sVd6rotir
p862
I2
sVdhbfiu8
p863
I1
sVd8kuhmx
p864
I2
sVd0r6ui3
p865
I1
sVd0gf0mj
p866
I1
sVd0rt7l9
p867
I1
sVd0jlvp8
p868
I1
sVdit752m
p869
I1
sVdbjgbcu
p870
I1
sVdcnzeva
p871
I1
sVczvlycd
p872
I1
sVd8e693m
p873
I1
sVdbeqy8s
p874
I1
sVddhi738
p875
I1
sVdeahuw6
p876
I1
sVdgi6g0l
p877
I1
sVdazn4gy
p878
I1
sVdi9kqup
p879
I1
sVcyqw03z
p880
I1
sVd520giz
p881
I1
sVd5cbrkx
p882
I1
sVczgpnnx
p883
I1
sVdcpoak1
p884
I1
sVdqg00qy
p885
I1
sVd6z22vm
p886
I1
sVdb5xmm3
p887
I1
sVdpwbvvf
p888
I1
sVd9uje27
p889
I1
sVd2yc8wu
p890
I1
sVd4q7ghk
p891
I1
sVd2zrkjq
p892
I1
sVdjdtkjv
p893
I2
sVd285p2z
p894
I1
sVczm3ozx
p895
I1
sVd83rhiu
p896
I1
sVd80tm5r
p897
I1
sVddszqih
p898
I1
sVdnl4hgf
p899
I1
sVd1nv9p0
p900
I1
sVdehtam5
p901
I1
sVdjixi35
p902
I1
sVdhzuegv
p903
I1
sVcz9evdo
p904
I1
sVdjv02m0
p905
I1
sVd3bcwif
p906
I1
sVdpnrkbh
p907
I1
sVdke2rc5
p908
I1
sVdk80svh
p909
I1
sVdh3d25k
p910
I1
sVczqm7nr
p911
I1
sVcz7rro9
p912
I1
sVdphg5gp
p913
I2
sVd0r2lsb
p914
I1
sVdn4lyx9
p915
I1
sVdmrmjd5
p916
I1
sVdchmhlm
p917
I1
sVdmqay50
p918
I1
sVdjkzphq
p919
I1
sVdrltmsk
p920
I1
sVde8e9pj
p921
I1
sVd62shcb
p922
I1
sVds8qsnb
p923
I1
sVdhb8xov
p924
I1
sVd2rlkia
p925
I1
sVdt0wahu
p926
I1
sVdrq9ytx
p927
I1
sVdodu059
p928
I1
sVcynczmp
p929
I1
sVdbjjbx3
p930
I1
sVdcoyr7x
p931
I1
sVdexpg5f
p932
I2
sVdobudi5
p933
I1
sVdififj2
p934
I1
sVczjrc6h
p935
I1
sVd4e3n4c
p936
I1
sVdf519m2
p937
I1
sVd4kcqj5
p938
I1
sVdgrn47c
p939
I1
sVczc3b4o
p940
I1
sVd38fpfy
p941
I1
sVcz2ni36
p942
I1
sVdiuux04
p943
I1
sVdga2gip
p944
I1
sVdd5nhvv
p945
I1
sVdfi7qxb
p946
I1
sVczrhcsr
p947
I1
sVd2ijru6
p948
I1
sVdsk47od
p949
I1
sVdox5l13
p950
I2
sVd8woa8z
p951
I1
sVd31xds7
p952
I1
sVd1z81gu
p953
I1
sVczm0rbc
p954
I2
sVd3xhcr0
p955
I1
sVdc5hwoq
p956
I1
sVd29woap
p957
I1
sVdijwzio
p958
I1
sVcyto3xr
p959
I1
sVd0iablx
p960
I1
sVdtbvh1x
p961
I1
sVdflzyqw
p962
I1
sVdh0olj3
p963
I1
sVdft27zh
p964
I2
sVd2kfv26
p965
I2
sVdkp94h6
p966
I1
sVdauuha1
p967
I1
sVd38zu3u
p968
I1
sVd9i2uv7
p969
I1
sVdoj02ys
p970
I1
sVczl8kj3
p971
I1
sVdfk4teb
p972
I1
sVdrya744
p973
I1
sVd2eqpr4
p974
I1
sVddsvy07
p975
I1
sVddhpauz
p976
I1
sVdryswv0
p977
I1
sVdo25ekl
p978
I1
sVdgoelgw
p979
I1
sVdsp1kho
p980
I1
sVde77u1k
p981
I1
sVdk3g5kl
p982
I1
sVd5otshv
p983
I1
sVd2dtbw4
p984
I1
sVdcki9ds
p985
I1
sVd2bfmvo
p986
I1
sVdfwlonp
p987
I1
sVd19jbee
p988
I1
sVddkaryf
p989
I2
sVdawvvgk
p990
I1
sVdd1teb9
p991
I1
sVda1cvlo
p992
I2
sVd97ajfz
p993
I1
sVdj4kyn9
p994
I1
sVd12fma7
p995
I1
sVdecfkgs
p996
I1
sVd0qr3lc
p997
I2
sVdjgri2v
p998
I1
sVdobi4uh
p999
I1
sVdhn4n5m
p1000
I1
sVd8dlc6v
p1001
I1
sVdawjgrz
p1002
I1
sVdft1rsa
p1003
I1
sVd6idy5k
p1004
I1
sVd6mn1z4
p1005
I1
sVd42epug
p1006
I1
sVdjt3llk
p1007
I1
sVdd8done
p1008
I1
sVd69e936
p1009
I1
sVd84be68
p1010
I1
sVdjxtlhh
p1011
I1
sVde79k5e
p1012
I1
sVd08wquc
p1013
I1
sVdd4a1ck
p1014
I1
sVd36aw2h
p1015
I1
sVcz5gz88
p1016
I1
sVd16ymxy
p1017
I1
sVds3g9kf
p1018
I1
sVdc11z14
p1019
I1
sVd3tdms4
p1020
I1
sVdn79r5i
p1021
I1
sVdopxl0t
p1022
I1
sVd2w9pwc
p1023
I1
sVd8c86fc
p1024
I1
sVd2q3n54
p1025
I1
sVd31ot4a
p1026
I1
sVd408niq
p1027
I1
sVd7tro3b
p1028
I1
sVd3qnvu6
p1029
I1
sVcyk9q79
p1030
I1
sVd38vuy2
p1031
I1
sVd85kxge
p1032
I1
sVdhq3jkl
p1033
I1
sVd9qungu
p1034
I1
sVdfafdfe
p1035
I1
sVd8ymr1o
p1036
I1
sVd2xg14q
p1037
I2
sVdkcbl0c
p1038
I1
sVd02wrfn
p1039
I2
sVd4efidr
p1040
I2
sVd9urrer
p1041
I1
sVdb7ekaa
p1042
I1
sVdaq4a82
p1043
I1
sVd15l54q
p1044
I1
sVdaddrly
p1045
I1
sVd0ydg04
p1046
I1
sVd01uk4g
p1047
I1
sVdgh8bc2
p1048
I1
sVdistsme
p1049
I1
sVddogay7
p1050
I1
sVd4wa5gw
p1051
I1
sVd530ut3
p1052
I1
sVd64gr80
p1053
I1
sVde5jrd3
p1054
I2
sVds159b8
p1055
I1
sVdcls244
p1056
I1
sVd7jghju
p1057
I1
sVd6w0fu8
p1058
I2
sVddcxnyg
p1059
I1
sVd3bvdfh
p1060
I1
sVdizt7lx
p1061
I2
sVdi7cgj7
p1062
I1
sVddbrzhx
p1063
I1
sVd50lm3p
p1064
I1
sVd9lgvtv
p1065
I1
sVczomu78
p1066
I2
sVczs407w
p1067
I1
sVd2hebsi
p1068
I1
sVddsoq96
p1069
I1
sVcyp0miq
p1070
I2
sVd96vx4m
p1071
I1
sVd8lwh62
p1072
I1
sVdajz257
p1073
I1
sVd3eug4j
p1074
I1
sVd933ttp
p1075
I1
sVd42mq09
p1076
I2
sVdelljwc
p1077
I1
sVddexsp0
p1078
I1
sVdc5m0g8
p1079
I1
sVdc9dmb4
p1080
I1
sVd5b8doc
p1081
I1
sVd34nb25
p1082
I2
sVdf939kp
p1083
I1
sVddvcndu
p1084
I1
sVdr0tjnu
p1085
I2
sVd53oao7
p1086
I1
sVdd86j0x
p1087
I1
sVdt8120s
p1088
I1
sVcz802jw
p1089
I1
sVdkzgw62
p1090
I1
sVczfn1xz
p1091
I1
sVczw8hfs
p1092
I1
sVd1yo324
p1093
I1
sVdeq52j8
p1094
I1
sVdi98egt
p1095
I2
sVd4z9udm
p1096
I1
sVd7z2hq9
p1097
I1
sVd9nt53l
p1098
I1
sVd1x2d5d
p1099
I1
sVdgf8jcr
p1100
I1
sVdc5m422
p1101
I1
sVd7mgot8
p1102
I1
sVd6l5dnr
p1103
I1
sVd56it7o
p1104
I1
sVdh1sw1c
p1105
I1
sVdecw5qy
p1106
I1
sVczek6ck
p1107
I1
sVd0x3tpb
p1108
I1
sVd7scq0i
p1109
I1
sVdmn94hu
p1110
I1
sVd63vcfc
p1111
I1
sVd1wl1yb
p1112
I1
sVd730dvw
p1113
I1
sVdjf7a4q
p1114
I1
sVdo4w39g
p1115
I1
sVdp9vgax
p1116
I1
sVczg0jcx
p1117
I1
sVd023v7p
p1118
I1
sVdnrxx1v
p1119
I1
sVdiwx7mu
p1120
I1
sVdf5n1ge
p1121
I1
sVd0tca7v
p1122
I1
sVdae79az
p1123
I2
sVd2eqrid
p1124
I1
sVd100ne2
p1125
I1
sVd8g1inu
p1126
I1
sVdqt0jez
p1127
I1
sVcz6jcyg
p1128
I1
sVdj71k83
p1129
I1
sVdcxl2b7
p1130
I1
sVdildf6c
p1131
I1
sVd9buii7
p1132
I1
sVdgnygxz
p1133
I1
sVd47sdxy
p1134
I1
sVds0ktdn
p1135
I1
sVd7u7a7k
p1136
I1
sVd7jea1f
p1137
I1
sVd5zbe2o
p1138
I1
sVd4dw80d
p1139
I1
sVd7a8c0x
p1140
I1
sVdgkpps1
p1141
I2
sVdeyp88a
p1142
I1
sVdc0yi1g
p1143
I1
sVdakxdbz
p1144
I1
sVdg0s86s
p1145
I1
sVd7qsm4p
p1146
I1
sVd7cd5ch
p1147
I1
sVdd1x21t
p1148
I1
sVdav9wcx
p1149
I1
sVczr12h5
p1150
I1
sVd5g47dk
p1151
I1
sVdj7g1eh
p1152
I1
sVdb0pfll
p1153
I1
sVd92rvft
p1154
I1
sVd1ku690
p1155
I1
sVdfedz15
p1156
I1
sVdikz7zb
p1157
I1
sVdbw6cvr
p1158
I1
sVd5ucbv8
p1159
I1
sVd59rleq
p1160
I1
sVd28rce4
p1161
I1
sVdsvjbha
p1162
I1
sVd83wbwx
p1163
I1
sVddu8po2
p1164
I1
sVdfhfit9
p1165
I1
sVd8z7er3
p1166
I1
sVd2c2u8p
p1167
I1
sVd6vjzv5
p1168
I1
sVdcqnqpu
p1169
I1
sVdfon67m
p1170
I1
sVd1bhmd3
p1171
I1
sVd95naor
p1172
I1
sVd906bzm
p1173
I1
sVd9zkxxl
p1174
I1
sVdgh10u6
p1175
I1
sVcz6y8r3
p1176
I1
sVdg9liiz
p1177
I1
sVdem76xv
p1178
I2
sVdj2skx8
p1179
I1
sVdi5zxu4
p1180
I1
sVd3sdzn9
p1181
I1
sVdqiuc5z
p1182
I1
sVd6jjxet
p1183
I2
sVdgqt6hp
p1184
I1
sVdmfxvun
p1185
I2
sVdsd4lxv
p1186
I1
sVddlzask
p1187
I1
sVdfzbu9i
p1188
I1
sVd76scsl
p1189
I1
sVd0qxq5x
p1190
I1
sVdp6rswn
p1191
I1
sVds3rl4h
p1192
I1
sVd8zm17w
p1193
I1
sVd2q16xl
p1194
I1
sVdbrbzv8
p1195
I2
sVdfcfq6b
p1196
I1
sVcypjayw
p1197
I1
sVd7s2jm0
p1198
I1
sVdktqpxh
p1199
I1
sVdemkwh3
p1200
I1
sVdnddzvi
p1201
I1
sVd5lla6m
p1202
I1
sVdmujtll
p1203
I1
sVd2otywd
p1204
I1
sVdfybbpa
p1205
I1
sVd19wnew
p1206
I1
sVd3ytbz5
p1207
I1
sVd00edmv
p1208
I1
sVd3r4o7u
p1209
I1
sVd19kgic
p1210
I1
sVd536hv5
p1211
I1
sVcz4x3jq
p1212
I1
sVd9vhild
p1213
I2
sVd9g1los
p1214
I2
sVdp4sztk
p1215
I1
sVdaf70co
p1216
I1
sVdb69lb0
p1217
I1
sVdirzzwx
p1218
I1
sVdbe7hn2
p1219
I1
sVde5fo07
p1220
I1
sVdrd61yq
p1221
I1
sVd52l25j
p1222
I1
sVdbizcz3
p1223
I1
sVd058g55
p1224
I1
sVdayfa5f
p1225
I1
sVdn892w5
p1226
I1
sVczpvbbe
p1227
I1
sVddme3hj
p1228
I1
sVdrzmljw
p1229
I1
sVd54sy5q
p1230
I1
sVdf8c9h6
p1231
I1
sVdp23od2
p1232
I1
sVd01miu9
p1233
I1
sVdpntedq
p1234
I1
sVd9x2sex
p1235
I1
sVd624jzk
p1236
I1
sVdekshru
p1237
I1
sVdfwg714
p1238
I2
sVczia4es
p1239
I1
sVdr8vlf6
p1240
I1
sVdg0mews
p1241
I1
sVdgs3nkt
p1242
I1
sVd98gvv4
p1243
I1
sVd8cejro
p1244
I1
sVdhe3so4
p1245
I1
sVdh90kzc
p1246
I1
sVddrztxg
p1247
I1
sVdenb8u0
p1248
I1
sVdic08bl
p1249
I1
sVd1zod30
p1250
I1
sVd0yihs1
p1251
I1
sVdco5sk3
p1252
I1
sVd4eqq4n
p1253
I1
sVdsgv4sa
p1254
I1
sVd3bhbm8
p1255
I1
sVd8l1tiq
p1256
I1
sVd71o5vf
p1257
I1
sVdgk93lg
p1258
I1
sVdcqjqfq
p1259
I1
sVdkjgbwx
p1260
I1
sVd0rzdwi
p1261
I2
sVd2y0psi
p1262
I2
sVcz86s1s
p1263
I1
sVdp4t620
p1264
I1
sVdgu17u1
p1265
I2
sVd0agbmd
p1266
I1
sVd8dpdyk
p1267
I2
sVdf5co0s
p1268
I1
sVd1zzrh6
p1269
I1
sVdmsh1ps
p1270
I1
sVdn7wby6
p1271
I1
sVcyy2dki
p1272
I1
sVd18s0io
p1273
I1
sVd35aeb1
p1274
I1
sVd92d2ca
p1275
I1
sVd4cdt06
p1276
I1
sVd62pzfk
p1277
I1
sVdt7i46n
p1278
I1
sVd4lop3c
p1279
I1
sVdf1bki9
p1280
I1
sVdar31g9
p1281
I1
sVd0iueob
p1282
I1
sVd5poxal
p1283
I1
sVd926k2i
p1284
I1
sVd9mg24b
p1285
I1
sVddzkn27
p1286
I1
sVdhn0u53
p1287
I1
sVdk5sfgd
p1288
I1
sVds6i7fw
p1289
I3
sVd3gi6xg
p1290
I1
sVd33lp17
p1291
I1
sVddy3vkt
p1292
I1
sVd9kqiaz
p1293
I1
sVdfxy822
p1294
I1
sVddcmq21
p1295
I1
sVd4v76t7
p1296
I1
sVdhw6xt8
p1297
I1
sVdihc91v
p1298
I1
sVd3d0995
p1299
I1
sVd1tigif
p1300
I1
sVdagpd16
p1301
I1
sVdqb4gzh
p1302
I1
sVd7ma1s6
p1303
I1
sVdcilhk4
p1304
I1
sVdp9plu1
p1305
I1
sVdhm32rf
p1306
I1
sVdn0etq3
p1307
I2
sVdf1q9hl
p1308
I1
sVd2jofvu
p1309
I1
sVdb01in9
p1310
I1
sVdhtiwdd
p1311
I1
sVddonb2y
p1312
I1
sVdameh1x
p1313
I1
sVddcj3tc
p1314
I1
sVdizox69
p1315
I1
sVdibnvr6
p1316
I1
sVdpp4g0f
p1317
I1
sVdfalvfk
p1318
I1
sVdelka0o
p1319
I1
sVd4wg225
p1320
I1
sVczb8tqr
p1321
I1
sVd03mduw
p1322
I1
sVdcl262v
p1323
I2
sVd2wt4s3
p1324
I1
sVdghzxzj
p1325
I1
sVd6wha5s
p1326
I1
sVczm70rz
p1327
I1
sVd39iytr
p1328
I1
sVd8er3gr
p1329
I1
sVd8wg6mx
p1330
I1
sVd397hrs
p1331
I1
sVd7koxc0
p1332
I1
sVd9j0svh
p1333
I1
sVd6r86zk
p1334
I1
sVd1lv5mj
p1335
I1
sVd72u095
p1336
I1
sVd86ctsg
p1337
I1
sVd1w8ufg
p1338
I1
sVd6bhecg
p1339
I1
sVczjwh4p
p1340
I1
sVdfcjpvk
p1341
I1
sVd1qu22z
p1342
I1
sVd3fmf8d
p1343
I1
sVde7hh7s
p1344
I1
sVdav7a35
p1345
I1
sVdcc3pkz
p1346
I1
sVd6c57de
p1347
I1
sVde9hfp1
p1348
I1
sVd0ldsj4
p1349
I3
sVd12m3yv
p1350
I1
sVdc686wp
p1351
I1
sVd17zvco
p1352
I2
sVd26v8t2
p1353
I1
sVd5vgjj9
p1354
I1
sVd3nbtoq
p1355
I1
sVd25k5ii
p1356
I1
sVdg6gpod
p1357
I2
sVdc2aly1
p1358
I1
sVd7eh14u
p1359
I1
sVdmzc50p
p1360
I1
sVdbkpgfa
p1361
I1
sVd17gbrt
p1362
I1
sVdgtx0x5
p1363
I1
sVd0yuigs
p1364
I1
sVd5rbrgl
p1365
I1
sVdgx29r5
p1366
I1
sVd01eky4
p1367
I2
sVdfr4myj
p1368
I1
sVd6q517h
p1369
I1
sVd95x4mj
p1370
I1
sVd4821du
p1371
I1
sVd8xsz1h
p1372
I1
sVd3nq95p
p1373
I1
sVdbg72e2
p1374
I1
sVdbk8541
p1375
I1
sVds39a9q
p1376
I1
sVddds7em
p1377
I1
sVd53ugdr
p1378
I1
sVdiyw33o
p1379
I1
sVdoe5u7g
p1380
I1
sVd16ygzw
p1381
I1
sVczrkx04
p1382
I1
sVdqkasgx
p1383
I1
sVd3q35xh
p1384
I1
sVcz3q7mq
p1385
I1
sVdii6faz
p1386
I1
sVd53k7gq
p1387
I1
sVddwgmuh
p1388
I1
sVd8oqvp9
p1389
I1
sVd27k78w
p1390
I1
sVddhkyo4
p1391
I1
sVdhrlc23
p1392
I1
sVdecr1s0
p1393
I1
sVdg94ake
p1394
I1
sVd3ac2b2
p1395
I1
sVd5wea0q
p1396
I1
sVdjvzov1
p1397
I2
sVdnz6h9y
p1398
I1
sVcz26mnm
p1399
I2
sVdewgd94
p1400
I1
sVd5e79b4
p1401
I1
sVdenezbs
p1402
I1
sVdfihx1r
p1403
I1
sVcyll4ef
p1404
I1
sVd0180jk
p1405
I1
sVdethah9
p1406
I1
sVd4l1jhc
p1407
I1
sVdbdh5d4
p1408
I1
sVdb214ym
p1409
I1
sVdam9mji
p1410
I1
sVdegady3
p1411
I1
sVd9v9npl
p1412
I1
sVd05641a
p1413
I1
sVdni5w5h
p1414
I1
sVdp0v135
p1415
I1
sVcyvtv5w
p1416
I2
sVd4wiwvb
p1417
I1
sVd1vmzjh
p1418
I1
sVdqe1xq4
p1419
I1
sVcysk3gg
p1420
I1
sVdb6fa2i
p1421
I1
sVdbq4fwq
p1422
I1
sVczd5uy5
p1423
I1
sVdhnf3vy
p1424
I1
sVcyzli4i
p1425
I1
sVdetnglb
p1426
I1
sVdauyuex
p1427
I1
sVcynjuil
p1428
I1
sVdc2hvcs
p1429
I1
sVcypjp31
p1430
I1
sVcyou61h
p1431
I1
sVdfe0eyg
p1432
I1
sVdirnwev
p1433
I1
sVd07bwgm
p1434
I1
sVd4qbz66
p1435
I1
sVd0u4b8r
p1436
I1
sVdowg9e3
p1437
I2
sVd3dt301
p1438
I2
sVczynb5y
p1439
I1
sVd7b07wd
p1440
I1
sVdbmvp2w
p1441
I1
sVdkeabj0
p1442
I1
sVd0tk35l
p1443
I1
sVd5u5c15
p1444
I1
sVdf3kzyf
p1445
I1
sVdi6uyuy
p1446
I1
sVddoeerw
p1447
I1
sVd2dxvcp
p1448
I1
sVdaeiqt4
p1449
I1
sVd1hufqb
p1450
I1
sVdbo2zyj
p1451
I1
sVczepcu7
p1452
I1
sVdpuyn14
p1453
I1
sVd7erhw0
p1454
I1
sVdml5mjo
p1455
I1
sVd196kbr
p1456
I1
sVd0bqaau
p1457
I1
sVd3poqca
p1458
I1
sVd647wy1
p1459
I1
sVd4gestl
p1460
I1
sVd3qof1e
p1461
I2
sVde80jvc
p1462
I1
sVdeuwkil
p1463
I1
sVdq1nw6z
p1464
I1
sVdjoyoai
p1465
I1
sVd034rf2
p1466
I1
sVdcctaw9
p1467
I1
sVczx0d0b
p1468
I1
sVddc7bt5
p1469
I1
sVdqb5jdr
p1470
I1
sVdghv3im
p1471
I1
sVd6hjzpu
p1472
I1
sVdnklkls
p1473
I1
sVdgwmbob
p1474
I1
sVd3135bu
p1475
I1
sVdmu3983
p1476
I1
sVcyzg7oz
p1477
I1
sVd05kugt
p1478
I1
sVd57rzvz
p1479
I2
sVcyim7pd
p1480
I1
sVdgo8zip
p1481
I1
sVdjwjoab
p1482
I1
sVdehoh2d
p1483
I1
sVcz277m9
p1484
I1
sVcz2ti0x
p1485
I1
sVd3k93gi
p1486
I1
sVdel9kk5
p1487
I1
sVd0taivn
p1488
I1
sVd386l0z
p1489
I1
sVdmvsc40
p1490
I1
sVcyu1x3d
p1491
I2
sVdo5a9ac
p1492
I1
sVdqbnfmo
p1493
I1
sVd7lnovb
p1494
I1
sVdbklrpd
p1495
I1
sVd8aofem
p1496
I2
sVczry6h9
p1497
I1
sVd0zpdwq
p1498
I3
sVd21mw7c
p1499
I1
sVd0ain7g
p1500
I1
sVdejkgnb
p1501
I1
sVcyvs8vl
p1502
I1
sVcz2hx2u
p1503
I1
sVd1tau33
p1504
I1
sVd98sz6c
p1505
I1
sVd2ub3hl
p1506
I1
sVd4tgift
p1507
I1
sVd4r749x
p1508
I1
sVdbyka7i
p1509
I1
sVd7v2pfh
p1510
I1
sVcyytnnh
p1511
I1
sVd5uafw0
p1512
I1
sVdcy9muw
p1513
I1
sVd5h4ceb
p1514
I1
sVd3hcgif
p1515
I1
sVdcivmti
p1516
I1
sVd6tq2ic
p1517
I1
sVdogkio1
p1518
I1
sVd9cog07
p1519
I1
sVdk4dter
p1520
I1
sVdbnzwfe
p1521
I1
sVd3wygbq
p1522
I1
sVd8sr8ou
p1523
I1
sVdcnaywe
p1524
I1
sVd2nkaa8
p1525
I1
sVdd1bk81
p1526
I1
sVdpd0ocm
p1527
I1
sVdfcukbj
p1528
I2
sVd97o2tb
p1529
I1
sVd2ljts4
p1530
I1
sVd1saluc
p1531
I1
sVdb3h3qc
p1532
I1
sVdcy2lni
p1533
I1
sVdnyzxw7
p1534
I2
sVdhamwhx
p1535
I1
sVd4khtr3
p1536
I1
sVd1dqsiu
p1537
I1
sVdkwrwfy
p1538
I1
sVd5oqn0z
p1539
I1
sVdkjaa9h
p1540
I1
sVd0ag6qr
p1541
I1
sVdah0pid
p1542
I1
sVcyxai5a
p1543
I1
sVdfiauzw
p1544
I2
sVd2hlulx
p1545
I1
sVdexfwtx
p1546
I1
sVd0y5wrg
p1547
I1
sVdkj2cgw
p1548
I1
sVddgfy58
p1549
I1
sVd8o0ovf
p1550
I1
sVd083tee
p1551
I2
sVdbmpn3u
p1552
I1
sVd4fia6n
p1553
I2
sVdcb1pk7
p1554
I1
sVdii5uyf
p1555
I1
sVd00r92z
p1556
I1
sVddclaff
p1557
I1
sVdd28uhm
p1558
I1
sVdf37xf5
p1559
I1
sVda57eoe
p1560
I1
sVd6em3ob
p1561
I1
sVd1krgeh
p1562
I1
sVddzvk2m
p1563
I1
sVdr8li74
p1564
I1
sVdggqt4f
p1565
I1
sVdp0357z
p1566
I1
sVczskiwj
p1567
I1
sVd18u2dm
p1568
I1
sVd1i2ra9
p1569
I1
sVds9qk89
p1570
I2
sVdc48e1g
p1571
I1
sVcz6adcq
p1572
I1
sVdebtuyd
p1573
I1
sVdgkfkt6
p1574
I1
sVd2sat7d
p1575
I1
sVd1q92e8
p1576
I1
sVd59mucd
p1577
I1
sVddd4rgd
p1578
I1
sVd5fprhq
p1579
I1
sVd0vqzbm
p1580
I1
sVdqvml27
p1581
I1
sVd3kcqdj
p1582
I1
sVczgn9zz
p1583
I1
sVdojf7uq
p1584
I2
sVdmvem71
p1585
I1
sVdcggccd
p1586
I1
sVdeewtmn
p1587
I1
sVd1vds9p
p1588
I1
sVdgtkcuh
p1589
I1
sVdgolwoc
p1590
I1
sVd4l3lw0
p1591
I1
sVdf6kebu
p1592
I1
sVdguk6yz
p1593
I1
sVd35aurz
p1594
I2
sVd4q4q9a
p1595
I1
sVd1nlcjp
p1596
I1
sVdrcamqx
p1597
I1
sVdqyv7xe
p1598
I1
sVd24cn5k
p1599
I1
sVd6s1txm
p1600
I1
sVdsuli5a
p1601
I2
sVcykcc03
p1602
I1
sVdiqxjgt
p1603
I1
sVdfu50w5
p1604
I1
sVdknoe6c
p1605
I1
sVdc3c3s1
p1606
I1
sVdkvqszl
p1607
I1
sVd1kuorn
p1608
I1
sVd4ibe9w
p1609
I2
sVdrglidq
p1610
I1
sVdckuo3d
p1611
I1
sVd6gracy
p1612
I1
sVdnuwcrv
p1613
I1
sVcyru4bt
p1614
I1
sVdcmwm2d
p1615
I1
sVd79n9wp
p1616
I1
sVd4kshzy
p1617
I1
sVd9gn8ul
p1618
I1
sVdfwuak2
p1619
I1
sVdelawq5
p1620
I2
sVd1p4w3y
p1621
I1
sVdh3g9f2
p1622
I1
sVddx3lpc
p1623
I2
sVd4orhhc
p1624
I1
sVdrq8zti
p1625
I2
sVdfsv5xd
p1626
I1
sVdimhz9b
p1627
I2
sVdc1p4g5
p1628
I1
sVdbx6oik
p1629
I1
sVda50vgm
p1630
I1
sVdh7mche
p1631
I2
sVd5isbq3
p1632
I1
sVdjmxqqo
p1633
I1
sVd1dgnop
p1634
I1
sVd94hoc7
p1635
I1
sVd6zddop
p1636
I1
sVdmog9l7
p1637
I1
sVdn9fgso
p1638
I1
sVd39tg75
p1639
I1
sVdfmy422
p1640
I1
sVdhpgz84
p1641
I1
sVd2himvq
p1642
I1
sVdhgygp5
p1643
I1
sVd6nm509
p1644
I1
sVdcin14d
p1645
I1
sVd03fy4i
p1646
I1
sVd7xkcgc
p1647
I2
sVd5sj237
p1648
I1
sVdklvxmd
p1649
I1
sVdmmi5vf
p1650
I1
sVdat5edz
p1651
I1
sVczdrt69
p1652
I1
sVd74t3u0
p1653
I1
sVcz993bl
p1654
I1
sVdcuhxp6
p1655
I1
sVdhfmd9u
p1656
I1
sVdhqmelc
p1657
I1
sVd9j2tnf
p1658
I1
sVd1ln7ig
p1659
I1
sVdrhkh0q
p1660
I1
sVdpc0ozq
p1661
I1
sVd045awi
p1662
I1
sVd12439p
p1663
I1
sVd2kmkql
p1664
I1
sVd5i08gl
p1665
I1
sVd5x8144
p1666
I1
sVd5mew24
p1667
I1
sVdbnydr2
p1668
I2
sVcysq8uv
p1669
I2
sVd1m4pjw
p1670
I1
sVdtieie8
p1671
I1
sVcyp81ja
p1672
I1
sVddjb11o
p1673
I1
sVd69is75
p1674
I1
sVdmjqsgr
p1675
I1
sVdh3s1gs
p1676
I1
sVd2eduu2
p1677
I1
sVdj7b0g8
p1678
I1
sVcyoekpp
p1679
I1
sVczclfqu
p1680
I1
sVczdfos1
p1681
I1
sVd0yj47i
p1682
I1
sVdojw9mm
p1683
I2
sVdcl8s56
p1684
I1
sVd7c40sh
p1685
I1
sVdhnbwpi
p1686
I1
sVdj8vrtj
p1687
I1
sVdizjbms
p1688
I2
sVd1simoa
p1689
I1
sVdfkract
p1690
I1
sVdo36gvw
p1691
I1
sVd0hegn2
p1692
I1
sVd88k1fo
p1693
I1
sVdpntyw7
p1694
I1
sVdeqsazx
p1695
I1
sVd87asq5
p1696
I1
sVdkw2i87
p1697
I1
sVde2zgeq
p1698
I1
sVd7nn8kh
p1699
I1
sVd4uy43f
p1700
I1
sVdr818h5
p1701
I1
sVdej3fk1
p1702
I1
sVd2x2jz0
p1703
I1
sVdnsqowh
p1704
I1
sVdhewjjl
p1705
I1
sVdg9jjz0
p1706
I1
sVd62tfh9
p1707
I2
sVd4wml9r
p1708
I3
sVd5irdcz
p1709
I1
sVd2g3uhs
p1710
I1
sVd157mq8
p1711
I1
sVdolvb0c
p1712
I1
sVd1oqzt9
p1713
I1
sVdbrvxox
p1714
I1
sVd1istdu
p1715
I1
sVd1qryx5
p1716
I1
sVd6fgrig
p1717
I1
sVd3wyw6d
p1718
I1
sVd6to7j3
p1719
I1
sVd085xvx
p1720
I1
sVd8eu1qk
p1721
I1
sVd27lox4
p1722
I1
sVczau3bi
p1723
I1
sVdkbnuu9
p1724
I1
sVd46vtmy
p1725
I1
sVdbeutjw
p1726
I1
sVcyrvqks
p1727
I1
sVd75zaqb
p1728
I1
sVdbvm3gz
p1729
I1
sVddseapq
p1730
I1
sVdhv9shg
p1731
I1
sVd57zxt6
p1732
I1
sVczmiwlb
p1733
I1
sVdq4d1l7
p1734
I2
sVd273udd
p1735
I1
sVd5chf8i
p1736
I2
sVdpbiszc
p1737
I1
sVdizfmvl
p1738
I1
sVczaj4ct
p1739
I1
sVdnwu2a6
p1740
I1
sVdeajm4a
p1741
I1
sVdbfdz0x
p1742
I1
sVd7nb8r7
p1743
I1
sVd529cnc
p1744
I1
sVdic1r1y
p1745
I1
sVdppxiy9
p1746
I1
sVd63mmqb
p1747
I1
sVd7myv5g
p1748
I1
sVdf1gspt
p1749
I1
sVdrpbfky
p1750
I1
sVdov5nkd
p1751
I1
sVdgk741i
p1752
I1
sVdj6g1j3
p1753
I1
sVd4c78r2
p1754
I1
sVdjnw9w4
p1755
I1
sVd2zdm30
p1756
I1
sVdjktng4
p1757
I1
sVdb2p8hx
p1758
I1
sVdo7upah
p1759
I1
sVdbhhixd
p1760
I1
sVdky2yhe
p1761
I1
sVd0j1pae
p1762
I1
sVd5bk2fz
p1763
I1
sVd2ebt8o
p1764
I1
sVd61utv2
p1765
I1
sVdi3s58k
p1766
I1
sVdbeg3za
p1767
I1
sVdafqnu8
p1768
I1
sVdh89c9y
p1769
I1
sVdhvrs39
p1770
I1
sVddsvxds
p1771
I1
sVdmhkikc
p1772
I1
sVd6qvggw
p1773
I1
sVdo6p619
p1774
I1
sVd2ueiqy
p1775
I1
sVdg8rly8
p1776
I1
sVdc7zyed
p1777
I1
sVdayr55p
p1778
I1
sVde6ztn0
p1779
I1
sVd7jy7hk
p1780
I1
sVd4mb18m
p1781
I1
sVdjjplbh
p1782
I1
sVd6i61co
p1783
I1
sVd1inxsk
p1784
I1
sVd8vtu1c
p1785
I1
sVde03yn6
p1786
I1
sVdkllxuv
p1787
I1
sVddvgnq2
p1788
I1
sVdqtxg98
p1789
I1
sVdeep8v9
p1790
I1
sVd8aqczo
p1791
I1
sVdpjz4rt
p1792
I1
sVdkcynjy
p1793
I1
sVddt6rdb
p1794
I1
sVd1yv8ng
p1795
I1
sVdhzlcxo
p1796
I1
sVd3oe7vv
p1797
I1
sVdnf15iq
p1798
I1
sVdjr65s2
p1799
I1
sVczqyds8
p1800
I1
sVd7n85bv
p1801
I1
sVd3sxj9v
p1802
I1
sVd3x2kab
p1803
I1
sVd16ff4u
p1804
I1
sVd6ngwz5
p1805
I2
sVczffxo3
p1806
I1
sVdkw6oig
p1807
I1
sVdfkhtu2
p1808
I1
sVd591yfo
p1809
I1
sVddsba5q
p1810
I1
sVdggvet9
p1811
I1
sVdcrhg5k
p1812
I1
sVd09r4qj
p1813
I1
sVd4cx0ai
p1814
I1
sVdd0syan
p1815
I1
sVda3xoew
p1816
I1
sVdeabqob
p1817
I1
sVd7qigel
p1818
I1
sVdqgukkn
p1819
I1
sVczh8i0d
p1820
I1
sVdrzu299
p1821
I1
sVczu77rj
p1822
I1
sVd0s94rk
p1823
I1
sVdd63a0b
p1824
I1
sVd2xdg4q
p1825
I2
sVd0iq1kt
p1826
I1
sVdgihzf8
p1827
I1
sVda1qwxi
p1828
I1
sVdevgwk7
p1829
I1
sVdhruz7l
p1830
I1
sVdjks9df
p1831
I1
sVd6mwl1t
p1832
I1
sVdjoxlwy
p1833
I1
sVdjfwjq4
p1834
I1
sVd4avsq9
p1835
I1
sVcynt59j
p1836
I1
sVd387slx
p1837
I2
sVdr9i4o2
p1838
I2
sVd19530g
p1839
I1
sVdgeof79
p1840
I1
sVdholkzt
p1841
I1
sVddc0p1l
p1842
I1
sVdpyygzt
p1843
I1
sVdpugylw
p1844
I1
sVd8yn5sj
p1845
I1
sVcyz9j9k
p1846
I1
sVdnsu9iu
p1847
I1
sVdrnoft0
p1848
I2
sVd04l775
p1849
I1
sVdcnxbmd
p1850
I1
sVd49rk0e
p1851
I1
sVde6dup1
p1852
I1
sVd6cuqte
p1853
I1
sVdgnp4qm
p1854
I1
sVdnrhire
p1855
I3
sVdi2hfpu
p1856
I1
sVdgw0kqx
p1857
I1
sVdap8cg8
p1858
I1
sVdqj6m1f
p1859
I1
sVdi580i2
p1860
I1
sVdizmvb5
p1861
I1
sVdgmo2nw
p1862
I1
sVd1cr3hv
p1863
I1
sVdipgh5n
p1864
I1
sVd40hjco
p1865
I1
sVcz53tvm
p1866
I1
sVd8e85sk
p1867
I1
sVdh1x38k
p1868
I1
sVd1oiq1c
p1869
I1
sVdgscu7n
p1870
I1
sVd21lj01
p1871
I1
sVd0pfipe
p1872
I1
sVczzfwth
p1873
I1
sVd9w44b7
p1874
I1
sVcz86637
p1875
I2
sVdbag7r9
p1876
I2
sVdbm56ni
p1877
I1
sVcylaljr
p1878
I1
sVdepwv98
p1879
I1
sVdaphgz8
p1880
I1
sVdag6mvb
p1881
I1
sVcylzbpe
p1882
I1
sVdb5h6fk
p1883
I1
sVdca10u2
p1884
I1
sVdskq0lc
p1885
I1
sVdbn1pnp
p1886
I1
sVdc5mmba
p1887
I1
sVdaph7go
p1888
I3
sVddr942z
p1889
I1
sVdngv27x
p1890
I1
sVd7u7qri
p1891
I1
sVdoheadi
p1892
I1
sVdjhvypp
p1893
I1
sVd6qlrf7
p1894
I1
sVd4y2tt5
p1895
I1
sVdcv0w9n
p1896
I1
sVdhh3ma3
p1897
I1
sVd3zs6et
p1898
I1
sVd4by4bo
p1899
I1
sVd0ileqn
p1900
I1
sVd6xhybm
p1901
I2
sVd7o81az
p1902
I1
sVdcljs5s
p1903
I2
sVd1lwduw
p1904
I1
sVcz4ji5l
p1905
I1
sVd8lt2zp
p1906
I1
sVd33mwjz
p1907
I1
sVd3332zk
p1908
I2
sVdqhx69q
p1909
I1
sVdgh1fkk
p1910
I1
sVdqlmywv
p1911
I1
sVd3w5isd
p1912
I1
sVdb5n0h1
p1913
I1
sVdd9oik2
p1914
I2
sVd65wnud
p1915
I1
sVd2q7k4k
p1916
I1
sVdj4mwgn
p1917
I1
sVd1qoq5q
p1918
I1
sVd6cbfve
p1919
I1
sVd0dlenw
p1920
I1
sVd2ag5ls
p1921
I1
sVdcxb1wx
p1922
I1
sVdfi7uya
p1923
I1
sVd2l1o3j
p1924
I1
sVdbo76bo
p1925
I1
sVd2a9823
p1926
I1
sVdfoo1rt
p1927
I1
sVdq3peh0
p1928
I1
sVdhupdgg
p1929
I1
sVd5566e2
p1930
I1
sVdmw2vdy
p1931
I1
sVdga5imz
p1932
I1
sVd31hnur
p1933
I1
sVdembpkc
p1934
I1
sVd0qucbq
p1935
I1
sVd651lsx
p1936
I1
sVd18v2p0
p1937
I1
sVd2u10t2
p1938
I1
sVdf165v6
p1939
I2
sVdbursr8
p1940
I1
sVdc5cse6
p1941
I1
sVdebjx95
p1942
I1
sVdgzc504
p1943
I1
sVdko82zs
p1944
I1
sVczasy7t
p1945
I1
sVdmsamdk
p1946
I1
sVdbjylwg
p1947
I1
sVd88lwz3
p1948
I1
sVd5ii1jp
p1949
I1
sVdjgm80g
p1950
I1
sVd65ws01
p1951
I1
sVdjx03uo
p1952
I1
sVdr7rnzj
p1953
I1
sVcykgo3l
p1954
I2
sVcz3negl
p1955
I1
sVdji43tb
p1956
I1
sVd8c705w
p1957
I1
sVd1826co
p1958
I1
sVdjzh6aq
p1959
I1
sVdi3n8b7
p1960
I1
sVd7se46u
p1961
I1
sVdf57c3a
p1962
I1
sVd5z80xx
p1963
I1
sVd32zjff
p1964
I1
sVd0xvnuu
p1965
I2
sVdi6vhow
p1966
I1
sVdnhi6yc
p1967
I1
sVcyubew8
p1968
I1
sVczvxw0o
p1969
I1
sVdhmx3k2
p1970
I1
sVd35foe1
p1971
I1
sVdqxbj0j
p1972
I1
sVd3m2kpa
p1973
I1
sVdn2mmzn
p1974
I1
sVddxbz6p
p1975
I1
sVd1gd0jd
p1976
I1
sVd2w1wio
p1977
I1
sVdpm2crv
p1978
I1
sVd5vlw8i
p1979
I1
sVdqm4yqe
p1980
I1
sVd87ww27
p1981
I1
sVdnxczns
p1982
I1
sVcykegwn
p1983
I1
sVd7ezgxn
p1984
I1
sVd2ds9ja
p1985
I1
sVdbhu4di
p1986
I1
sVdcqqumc
p1987
I1
sVdjqhqwj
p1988
I1
sVd3ouo0q
p1989
I1
sVd7wbh3g
p1990
I1
sVdjfodff
p1991
I1
sVd1ozldm
p1992
I1
sVdp5c2pr
p1993
I1
sVdhudk5k
p1994
I1
sVd7sxife
p1995
I1
sVcyrh307
p1996
I1
sVd2gnicj
p1997
I2
sVdoj72zb
p1998
I1
sVczj24by
p1999
I1
sVdahd493
p2000
I1
sVdrgv0r5
p2001
I1
sVdalrfqu
p2002
I1
sVdkujdj5
p2003
I1
sVd0gxnyb
p2004
I1
sVd9d46m4
p2005
I1
sVd0isqcy
p2006
I1
sVdcgmkjp
p2007
I1
sVdjdqd2a
p2008
I1
sVdcndjqh
p2009
I1
sVdsudhyc
p2010
I1
sVd34f7rd
p2011
I1
sVdf2x85m
p2012
I1
sVczldas3
p2013
I1
sVd0tondd
p2014
I1
sVd82gi66
p2015
I1
sVdfc3i7h
p2016
I1
sVdsyqw13
p2017
I1
sVdn923tc
p2018
I1
sVdn09fk0
p2019
I2
sVdi4ljce
p2020
I1
sVdjzkcb5
p2021
I1
sVd556ti4
p2022
I1
sVdbzw6k5
p2023
I1
sVdi4z429
p2024
I1
sVd5kjuo1
p2025
I1
sVd3991lh
p2026
I1
sVddcex1q
p2027
I1
sVd1irupf
p2028
I1
sVdq6mdsb
p2029
I1
sVdkvw5ic
p2030
I1
sVd55znt4
p2031
I1
sVd0fn12f
p2032
I1
sVd8t9ekg
p2033
I1
sVcynenjs
p2034
I1
sVdab2k4w
p2035
I1
sVd358lr7
p2036
I1
sVdjfhon8
p2037
I1
sVde90phf
p2038
I1
sVdt8m4su
p2039
I1
sVd65v3ec
p2040
I1
sVd4jpgis
p2041
I1
sVd9n5t42
p2042
I1
sVdj41tsb
p2043
I1
sVd069cpw
p2044
I1
sVdffq5cc
p2045
I1
sVdf8u3s4
p2046
I1
sVdhn5uec
p2047
I2
sVd4wkahv
p2048
I1
sVd9c34pm
p2049
I1
sVdfhlios
p2050
I1
sVdsdeo32
p2051
I1
sVdrn4heq
p2052
I2
sVdabvt55
p2053
I1
sVd16endz
p2054
I1
sVdsimb7x
p2055
I1
sVd3uezeu
p2056
I1
sVd1i507p
p2057
I1
sVd6u6kif
p2058
I1
sVdpo5jxv
p2059
I2
sVdhr7p0x
p2060
I1
sVddgknvs
p2061
I1
sVdj4t7lm
p2062
I1
sVdcxr1ib
p2063
I1
sVczxnsrj
p2064
I1
sVdcgkpnr
p2065
I1
sVd90y37c
p2066
I1
sVdav56ob
p2067
I1
sVdhck9ah
p2068
I1
sVdmm24k9
p2069
I1
sVd8ixgx5
p2070
I1
sVd1nrp44
p2071
I1
sVdfk8gie
p2072
I2
sVdaaxrki
p2073
I1
sVdblow9k
p2074
I1
sVd21g9sy
p2075
I1
sVd5kfdr8
p2076
I2
sVd736jrc
p2077
I1
sVddl7xbd
p2078
I1
sVdkqcvh3
p2079
I1
sVdijssmn
p2080
I1
sVdqzvw12
p2081
I1
sVdij3m6x
p2082
I1
sVd7i6vq5
p2083
I1
sVddjuip8
p2084
I2
sVd9tmxyx
p2085
I1
sVdohadq8
p2086
I1
sVdo8miq5
p2087
I1
sVdjgy76o
p2088
I1
sVd50wxsa
p2089
I1
sVdfnl195
p2090
I1
sVdjsfvyh
p2091
I1
sVd8a77ge
p2092
I1
sVdqc8sj8
p2093
I1
sVdp71myj
p2094
I1
sVd2pygfv
p2095
I1
sVdb2gj7c
p2096
I1
sVdemmwea
p2097
I2
sVdfm93ag
p2098
I1
sVddqyqsi
p2099
I1
sVcz7vr6f
p2100
I1
sVdgl80cv
p2101
I1
sVdk0v0fv
p2102
I1
sVd74frgf
p2103
I1
sVd9yygia
p2104
I1
sVdehvgia
p2105
I1
sVd9yfux3
p2106
I1
sVdf8r6kc
p2107
I1
sVcyj5mwn
p2108
I1
sVcyt3xam
p2109
I1
sVd8d2i2v
p2110
I1
sVcyx0695
p2111
I1
sVd80rp4l
p2112
I1
sVdi3ek2d
p2113
I1
sVdftt2lo
p2114
I1
sVd1fg2pz
p2115
I1
sVd5pf5yj
p2116
I1
sVdmrgrbg
p2117
I1
sVdc42eyc
p2118
I1
sVdhigcuo
p2119
I1
sVdgsl7sj
p2120
I1
sVczigb7l
p2121
I1
sVd08233h
p2122
I1
sVd89mwlh
p2123
I1
sVd2jpyf5
p2124
I1
sVdazxh0m
p2125
I1
sVde7wbs8
p2126
I1
sVd8uker7
p2127
I1
sVdc2qqx7
p2128
I1
sVd61sljg
p2129
I1
sVd9o77s3
p2130
I1
sVd93asa4
p2131
I1
sVdilg018
p2132
I1
sVdgzpk9w
p2133
I1
sVd15lij2
p2134
I1
sVdn5quen
p2135
I1
sVdd62q33
p2136
I1
sVd59dgr9
p2137
I1
sVd1k6dch
p2138
I1
sVczm5me4
p2139
I1
sVd9dq25i
p2140
I1
sVd4pt9ln
p2141
I1
sVd3hyjdn
p2142
I1
sVd58mbp7
p2143
I1
sVd577uu4
p2144
I1
sVd8um6k0
p2145
I1
sVdcjk45i
p2146
I1
sVdiccc7l
p2147
I1
sVd5rr8yg
p2148
I1
sVd3us79u
p2149
I1
sVd23oaj5
p2150
I1
sVd0hfsjn
p2151
I1
sVdjxkjjt
p2152
I1
sVdf10mf5
p2153
I1
sVd63mmeo
p2154
I1
sVdqsvgvn
p2155
I1
sVdkwwrgx
p2156
I2
sVczi883h
p2157
I1
sVdbynpdi
p2158
I2
sVd1p2fhv
p2159
I1
sVdecfsz7
p2160
I1
sVd9gblk6
p2161
I2
sVdpnr148
p2162
I1
sVdn6fb1f
p2163
I1
sVdg15oc9
p2164
I1
sVd49zdlm
p2165
I1
sVdb547v0
p2166
I1
sVdqp7sej
p2167
I1
sVd9hg55g
p2168
I1
sVczv8x24
p2169
I1
sVdaoa2av
p2170
I1
sVdsly24f
p2171
I1
sVd1284su
p2172
I1
sVdpbp7x2
p2173
I1
sVd3qn8yf
p2174
I1
sVd4uticl
p2175
I1
sVcyon5kl
p2176
I1
sVdmxocqx
p2177
I1
sVddeldkq
p2178
I1
sVdmjqv9q
p2179
I1
sVdt56u9a
p2180
I1
sVdfng19t
p2181
I1
sVd2osrxt
p2182
I1
sVd8chcms
p2183
I1
sVczh3dq0
p2184
I1
sVdmooxz6
p2185
I1
sVdqnho4t
p2186
I1
sVcyuee69
p2187
I1
sVdhch769
p2188
I1
sVd80jpxj
p2189
I1
sVd5qmlc7
p2190
I1
sVd9eqt3i
p2191
I1
sVdt1lm8m
p2192
I1
sVd7myy2c
p2193
I1
sVd3beckf
p2194
I1
sVddnhd21
p2195
I1
sVdrgaxdq
p2196
I1
sVd78b6py
p2197
I1
sVdr7eqni
p2198
I1
sVdh2hg68
p2199
I1
sVd4c2g3o
p2200
I1
sVd7xqzmp
p2201
I1
sVd7ha8qw
p2202
I1
sVdhamugh
p2203
I1
sVdi3mnpq
p2204
I1
sVdj2251k
p2205
I1
sVd18kls5
p2206
I1
sVd19cp45
p2207
I1
sVd9o8shd
p2208
I1
sVde7pd6x
p2209
I1
sVdpe7tqi
p2210
I1
sVdh7smq4
p2211
I1
sVdpxgbf4
p2212
I1
sVdinovqz
p2213
I1
sVd79cbuo
p2214
I1
sVdqmng19
p2215
I1
sVdd9puj0
p2216
I1
sVd5u5s5z
p2217
I1
sVdjstxaw
p2218
I1
sVd4l2biw
p2219
I1
sVd2j2qh5
p2220
I1
sVdmoi68q
p2221
I1
sVdbapmur
p2222
I1
sVd0hvdog
p2223
I1
sVdc4d67j
p2224
I1
sVdenx128
p2225
I1
sVd8hgf69
p2226
I1
sVdjhgnbx
p2227
I1
sVdf3npmj
p2228
I1
sVdt34mr4
p2229
I1
sVdqufxfu
p2230
I1
sVdegkr3a
p2231
I1
sVdemcids
p2232
I1
sVdjgm9t2
p2233
I1
sVdgfltbj
p2234
I1
sVdebo44q
p2235
I1
sVd1qsie3
p2236
I1
sVczaoiaq
p2237
I1
sVd60j8sl
p2238
I1
sVdj8nseh
p2239
I1
sVcz346kr
p2240
I1
sVd9ot3kj
p2241
I1
sVdbe6njp
p2242
I1
sVdc9vznr
p2243
I1
sVd8lz1f2
p2244
I1
sVdndnlq5
p2245
I1
sVd1xa8ig
p2246
I1
sVddzjuvp
p2247
I1
sVdfli44p
p2248
I1
sVd5vvvno
p2249
I1
sVdety4ta
p2250
I1
sVd0t9jqt
p2251
I1
sVd023sm8
p2252
I1
sVd3eapki
p2253
I1
sVd04a2sv
p2254
I1
sVd4oyexa
p2255
I1
sVczyl992
p2256
I1
sVdj1boc8
p2257
I1
sVdkvmwyx
p2258
I1
sVdfesmmj
p2259
I1
sVd8sy0mm
p2260
I1
sVdi3nbwp
p2261
I1
sVdr0s81u
p2262
I1
sVdnbyeap
p2263
I2
sVdt61n5z
p2264
I1
sVdbp5rn2
p2265
I1
sVcz9hll3
p2266
I1
sVd1u2kbu
p2267
I1
sVdkqq8rq
p2268
I1
sVcyjj0jp
p2269
I1
sVd7p458n
p2270
I2
sVdab558i
p2271
I1
sVdnf5b5x
p2272
I1
sVdjshpc8
p2273
I1
sVd4d620s
p2274
I1
sVdfynviq
p2275
I1
sVd2v9zug
p2276
I1
sVd7co3z4
p2277
I1
sVd6g1h4c
p2278
I1
sVd7t94cc
p2279
I1
sVd84hd2e
p2280
I1
sVdrkt5lh
p2281
I2
sVczkc4vw
p2282
I1
sVd0j2t5b
p2283
I1
sVdhsy87o
p2284
I1
sVdbxsikf
p2285
I1
sVd3t47zd
p2286
I1
sVdgxzl3k
p2287
I1
sVdkj6ke7
p2288
I1
sVdn8k66g
p2289
I1
sVdcysp7k
p2290
I1
sVd3qgbml
p2291
I1
sVd6n8rcs
p2292
I1
sVcymulbf
p2293
I1
sVd6iayxu
p2294
I1
sVd2hqba2
p2295
I1
sVdiz7ggs
p2296
I1
sVd97zeh9
p2297
I1
sVd5u3nxm
p2298
I1
sVd8zmego
p2299
I1
sVdauyi9t
p2300
I1
sVd01l0aw
p2301
I1
sVdp6nebe
p2302
I1
sVcyuojp8
p2303
I1
sVdijahwb
p2304
I1
sVdjum6xu
p2305
I1
sVd7ac1av
p2306
I1
sVdmz9vcq
p2307
I1
sVd2hyqsl
p2308
I1
sVczfsrcf
p2309
I1
sVcyxnh4z
p2310
I1
sVd30p2xe
p2311
I1
sVdkvcoz6
p2312
I1
sVd0qputo
p2313
I1
sVdsv7eti
p2314
I1
sVd0tns19
p2315
I1
sVdb5kend
p2316
I1
sVdrrv3r8
p2317
I1
sVczz12x0
p2318
I1
sVdseqm9p
p2319
I1
sVdfviupy
p2320
I1
sVd6pxgnz
p2321
I1
sVd2nvjhd
p2322
I1
sVdbfvd0v
p2323
I1
sVdb3cquk
p2324
I1
sVdnkd92m
p2325
I1
sVd6kyczx
p2326
I1
sVdkyaqka
p2327
I1
sVd1gkftb
p2328
I1
sVd7j2qmv
p2329
I1
sVd6cbap6
p2330
I1
sVdhownen
p2331
I1
sVdf56xxa
p2332
I1
sVdf3vhes
p2333
I1
sVdcw21xk
p2334
I2
sVd37aib7
p2335
I1
sVd72959i
p2336
I1
sVd36xqg2
p2337
I1
sVdfw4to9
p2338
I1
sVdenu37n
p2339
I1
sVdhglr6g
p2340
I1
sVd07r2ou
p2341
I1
sVdmhpla7
p2342
I1
sVd08j3p1
p2343
I1
sVdgi6kco
p2344
I1
sVdfk0dd3
p2345
I1
sVd9753o2
p2346
I1
sVdjutnwy
p2347
I1
sVdmn6rhn
p2348
I1
sVd6jv0z5
p2349
I1
sVcyp7u8l
p2350
I1
sVdprw0ca
p2351
I1
sVdb7ql7t
p2352
I1
sVdddkxl5
p2353
I1
sVdgropgh
p2354
I1
sVdaif0xt
p2355
I1
sVdmmiupo
p2356
I1
sVcyy3ut7
p2357
I1
sVd82pxno
p2358
I1
sVdq66jaf
p2359
I1
sVdbhjw84
p2360
I1
sVdgi402n
p2361
I2
sVcyisrx1
p2362
I1
sVdjdhvjd
p2363
I1
sVd3e37yq
p2364
I1
sVd1oqxdi
p2365
I2
sVdau5qhf
p2366
I1
sVd9r2tk0
p2367
I1
sVd1jcog6
p2368
I1
sVdhqdlhs
p2369
I1
sVdgxqqam
p2370
I1
sVde0he6w
p2371
I1
sVd9wkpfe
p2372
I1
sVdi75r84
p2373
I1
sVd2l2f2o
p2374
I1
sVdgbfhec
p2375
I1
sVdrz7tbj
p2376
I1
sVdjy39p2
p2377
I1
sVd3an16e
p2378
I1
sVd14wm51
p2379
I1
sVdguj3oz
p2380
I1
sVd5d1r3n
p2381
I2
sVd4v2m61
p2382
I1
sVdkbac85
p2383
I1
sVdadt7at
p2384
I1
sVdrvmyp1
p2385
I1
sVdbrkm2e
p2386
I1
sVdfnv16w
p2387
I1
sVd9n7ydm
p2388
I1
sVd71zcxe
p2389
I1
sVdqhlz7c
p2390
I1
sVdjze6zi
p2391
I2
sVd00s77z
p2392
I1
sVd25958i
p2393
I2
sVdtdicve
p2394
I1
sVdn4k6jt
p2395
I1
sVdmqbvah
p2396
I1
sVd0jb5ih
p2397
I1
sVd6ue2hw
p2398
I1
sVcz3c87p
p2399
I1
sVdog8zi5
p2400
I1
sVda19tvl
p2401
I1
sVd82ljff
p2402
I1
sVdduoq29
p2403
I1
sVdhif15n
p2404
I1
sVd4bjfg7
p2405
I1
sVdre46gk
p2406
I4
sVdaoflk1
p2407
I1
sVdj2zd2r
p2408
I1
sVdb5d8u0
p2409
I1
sVdfkydcp
p2410
I1
sVdi9zivv
p2411
I2
sVczkwocd
p2412
I1
sVd87fb0a
p2413
I1
sVdihytpd
p2414
I1
sVd4kxbrb
p2415
I1
sVdkhp7qn
p2416
I1
sVdgggz6c
p2417
I1
sVd02zm2v
p2418
I1
sVde0nzru
p2419
I1
sVczflser
p2420
I1
sVdpz5hg0
p2421
I1
sVd0vcoje
p2422
I1
sVdpfguxg
p2423
I2
sVd01ukii
p2424
I1
sVdmx04yx
p2425
I1
sVcyigf45
p2426
I1
sVdbpudre
p2427
I1
sVczh62dx
p2428
I1
sVdg489mv
p2429
I1
sVd36y7tw
p2430
I1
sVcyzd4p3
p2431
I1
sVdkgvi95
p2432
I1
sVd6kzwpi
p2433
I1
sVdenxpn3
p2434
I1
sVdgm8n20
p2435
I1
sVdau52mw
p2436
I1
sVddbxvmr
p2437
I1
sVdepqful
p2438
I1
sVd5624ra
p2439
I1
sVczzew6z
p2440
I1
sVdrc3o2c
p2441
I1
sVdd1ifli
p2442
I2
sVdgw6eh3
p2443
I1
sVdhtegvd
p2444
I1
sVds1qoox
p2445
I1
sVd0oytn5
p2446
I1
sVdhfpy8g
p2447
I1
sVddutvlr
p2448
I1
sVd2azy1w
p2449
I1
sVd9vi8li
p2450
I1
sVd17gnye
p2451
I1
sVdhhc923
p2452
I2
sVdke7u15
p2453
I1
sVd18mvs6
p2454
I1
sVd5fvmgs
p2455
I1
sVdcbf0hp
p2456
I1
sVd6idich
p2457
I1
sVd38moae
p2458
I1
sVd42m6b7
p2459
I1
sVde0qir1
p2460
I1
sVdg7e7kb
p2461
I2
sVdnzvqmj
p2462
I1
sVdccorkz
p2463
I1
sVdifdta3
p2464
I1
sVcz6niax
p2465
I1
sVdj6imfm
p2466
I1
sVd27cpo5
p2467
I1
sVdij9sh2
p2468
I3
sVdbja5ew
p2469
I1
sVczv0vp9
p2470
I1
sVdckyc34
p2471
I1
sVdrm0mg9
p2472
I1
sVdmhxnpy
p2473
I1
sVdqwogba
p2474
I1
sVd0g80mh
p2475
I2
sVdr1ba1j
p2476
I1
sVd1qfxwl
p2477
I1
sVd1k4hmg
p2478
I1
sVd4m0tme
p2479
I1
sVde6tyco
p2480
I2
sVd2ap7l4
p2481
I1
sVdepr090
p2482
I1
sVczrzqs9
p2483
I1
sVd4cxjdo
p2484
I1
sVdhwov3j
p2485
I1
sVdot3phi
p2486
I2
sVd9e72yj
p2487
I1
sVd1yj4kb
p2488
I1
sVdh4i01t
p2489
I1
sVdq85vf6
p2490
I3
sVd8ck7qk
p2491
I1
sVd8lwdu2
p2492
I1
sVdofudka
p2493
I3
sVdrx0muc
p2494
I1
sVcyirq9m
p2495
I1
sVdsk2s7l
p2496
I1
sVd3pnn36
p2497
I1
sVd1ytypq
p2498
I1
sVdf4xhxa
p2499
I1
sVda0ffqo
p2500
I1
sVda18cxu
p2501
I1
sVddexkyt
p2502
I1
sVdkuxf80
p2503
I1
sVdr03npr
p2504
I1
sVdcbrkja
p2505
I1
sVdd91qlk
p2506
I1
sVdt6qzwb
p2507
I1
sVd7ukto3
p2508
I1
sVd0slogt
p2509
I1
sVdqkutls
p2510
I1
sVd10kkrx
p2511
I1
sVdo8qzw0
p2512
I1
sVd0gja32
p2513
I1
sVd42dmwk
p2514
I1
sVd1z67qx
p2515
I1
sVdesb4g1
p2516
I2
sVd3h0paj
p2517
I3
sVcyoy9z8
p2518
I2
sVczbf61m
p2519
I1
sVcz17hqh
p2520
I1
sVdhgp3ds
p2521
I1
sVdowaruo
p2522
I1
sVdic1owr
p2523
I1
sVdsc2e9n
p2524
I1
sVd11cpwv
p2525
I1
sVd2tl8zf
p2526
I1
sVd39464y
p2527
I1
sVdj4n55g
p2528
I1
sVd9k2t3a
p2529
I1
sVdap9a58
p2530
I1
sVcymf73u
p2531
I1
sVdj4d63b
p2532
I1
sVd82pto0
p2533
I1
sVd646r79
p2534
I1
sVcyr70k7
p2535
I1
s.