(dp0
Vdpp078j
p1
I1
sVd3rfrf8
p2
I1
sVd0uqljc
p3
I4
sVd2i8t6r
p4
I2
sVddktguu
p5
I1
sVd4eqq4n
p6
I1
sVdq5z3ak
p7
I1
sVdabec0d
p8
I1
sVd0uze3u
p9
I2
sVcyo646f
p10
I1
sVdkrkcur
p11
I5
sVd1qqipk
p12
I1
sVdgsjo5k
p13
I2
sVd8t06wr
p14
I1
sVd90ymki
p15
I1
sVd08wyxf
p16
I1
sVdkhm2iz
p17
I1
sVdcioqxz
p18
I1
sVddwr9gw
p19
I1
sVczncxmk
p20
I1
sVdewupej
p21
I1
sVdnk8fbf
p22
I2
sVddx3f09
p23
I1
sVd2lp6n6
p24
I2
sVczite5i
p25
I1
sVdgbpjzi
p26
I3
sVd8ho0r4
p27
I1
sVdgs1km5
p28
I3
sVdc9m5zr
p29
I1
sVczl3jyn
p30
I1
sVdkvhhv1
p31
I1
sVd2qgf16
p32
I1
sVd0wwgy5
p33
I1
sVd9hliys
p34
I1
sVd23s58f
p35
I2
sVdo43324
p36
I1
sVdgu1m1n
p37
I1
sVd2aow58
p38
I2
sVde5mrs0
p39
I1
sVdhwx53p
p40
I1
sVdepc7yq
p41
I1
sVd940xzb
p42
I1
sVdomnlam
p43
I1
sVd6o62nf
p44
I1
sVdkc6wzm
p45
I1
sVd067a2v
p46
I1
sVczdp4m3
p47
I1
sVdb7eu84
p48
I1
sVd472npm
p49
I1
sVcyl3rpk
p50
I1
sVczeyjgc
p51
I1
sVdbz4qyh
p52
I1
sVdbca98w
p53
I1
sVd7q3psu
p54
I1
sVd1zu84q
p55
I1
sVdo1lf7q
p56
I5
sVd0gid89
p57
I1
sVd15w9f9
p58
I3
sVczp9nph
p59
I1
sVdntd92f
p60
I1
sVd99tpxc
p61
I1
sVd0rlpfn
p62
I1
sVdctvgkt
p63
I1
sVdelb9vu
p64
I1
sVd9ubxfd
p65
I1
sVdg19qyu
p66
I1
sVd20urfr
p67
I1
sVdpaoylk
p68
I1
sVdeza3jr
p69
I1
sVdi9gugw
p70
I1
sVdjns38u
p71
I1
sVd191ss5
p72
I1
sVdkr82aj
p73
I1
sVd5kxmww
p74
I1
sVdnddpzt
p75
I1
sVda43zh7
p76
I1
sVdd0slct
p77
I1
sVdfd4a12
p78
I1
sVde896it
p79
I1
sVd0rl64u
p80
I1
sVdaijgx1
p81
I1
sVddfl2ty
p82
I1
sVd6whe8k
p83
I1
sVdrveu10
p84
I1
sVdkjgy7m
p85
I3
sVczgzhem
p86
I1
sVcz0xqiz
p87
I1
sVdg5e07m
p88
I1
sVdrvn2x5
p89
I1
sVdonh5dk
p90
I1
sVd41qm5x
p91
I1
sVdbx6gsy
p92
I2
sVd9xz1pe
p93
I1
sVdoelqh1
p94
I1
sVd3lhtdv
p95
I2
sVd56vcv1
p96
I1
sVd5jphrm
p97
I1
sVd9um0ee
p98
I1
sVdq1uqkk
p99
I1
sVddi6m4j
p100
I1
sVdkia3en
p101
I1
sVdq3y2ak
p102
I1
sVd23cs8c
p103
I1
sVde4mzz0
p104
I1
sVdi0hewh
p105
I1
sVd1z6k9r
p106
I1
sVdmtan6v
p107
I1
sVd7riqke
p108
I1
sVdnw664m
p109
I1
sVd246n0o
p110
I1
sVd953f7h
p111
I1
sVd1k1h85
p112
I1
sVdccbkge
p113
I1
sVdo1fcsc
p114
I1
sVdbesqw8
p115
I1
sVd24f5nw
p116
I1
sVd869hbi
p117
I1
sVdomwfvw
p118
I1
sVdrmbtjg
p119
I2
sVdpuq29m
p120
I1
sVd9nrkhw
p121
I2
sVdar08tg
p122
I2
sVd1e16u6
p123
I1
sVd4z5xfq
p124
I1
sVdc8yae8
p125
I2
sVdjml9v3
p126
I1
sVddbwvgx
p127
I2
sVdq226fp
p128
I1
sVddkfjf8
p129
I1
sVdf169a5
p130
I2
sVdftou5h
p131
I1
sVd2kzx3r
p132
I1
sVd72uc5k
p133
I1
sVdjkevok
p134
I2
sVdc2sasq
p135
I1
sVd308ood
p136
I1
sVd1nciax
p137
I1
sVd8ynmb5
p138
I1
sVdr549we
p139
I1
sVd67ycv1
p140
I1
sVdc9tnza
p141
I1
sVdgia6z0
p142
I1
sVd1k27ra
p143
I1
sVcz0q98s
p144
I1
sVd4rxejn
p145
I1
sVcyp71bj
p146
I2
sVdt41xgy
p147
I1
sVd6g5e55
p148
I1
sVddfvt57
p149
I1
sVdpxfjkj
p150
I1
sVdkcts4d
p151
I3
sVda34knc
p152
I1
sVdj583z9
p153
I1
sVdmk1zn5
p154
I1
sVdbr5jt8
p155
I2
sVdt4hx8j
p156
I1
sVdaylxnx
p157
I1
sVd2n6gyp
p158
I1
sVd2u084n
p159
I2
sVd4xbrj1
p160
I1
sVd20zo20
p161
I2
sVd23t0bq
p162
I1
sVdn8jdfc
p163
I1
sVdabwz3g
p164
I1
sVd9gq5zo
p165
I1
sVdjy3jtr
p166
I1
sVdi6k67y
p167
I1
sVdd3d46m
p168
I1
sVdtctexy
p169
I1
sVddoc7l8
p170
I1
sVd67igna
p171
I1
sVd483kha
p172
I1
sVd3hti8q
p173
I3
sVd2i0ly5
p174
I1
sVdhzea6s
p175
I2
sVdeji2ry
p176
I1
sVday6cx2
p177
I2
sVdj1hn10
p178
I1
sVddwkj1z
p179
I1
sVddvumsj
p180
I1
sVdhrkras
p181
I1
sVd1irsw8
p182
I2
sVdns8311
p183
I1
sVd8ojtvd
p184
I1
sVderc7b8
p185
I1
sVdi19z2e
p186
I1
sVdq2jlg7
p187
I4
sVd5zdz6c
p188
I1
sVdhk1npn
p189
I1
sVd1bojnn
p190
I1
sVd1s4gb3
p191
I1
sVdi3dfm1
p192
I1
sVd7jslf3
p193
I1
sVdg1qudh
p194
I4
sVdhky09w
p195
I1
sVdklfqh9
p196
I1
sVdrv8ny4
p197
I1
sVdgm62ue
p198
I4
sVdd9kqta
p199
I1
sVdctzhdt
p200
I1
sVdpfi1p6
p201
I3
sVdez3ufd
p202
I1
sVds50nos
p203
I1
sVd6tkwgs
p204
I1
sVdhvo51d
p205
I1
sVda71p7b
p206
I2
sVdpvf19f
p207
I1
sVd69e1at
p208
I1
sVd3pyqbe
p209
I1
sVd6iqx1l
p210
I1
sVdioi2e2
p211
I8
sVdf1yusk
p212
I1
sVd0hzx3u
p213
I1
sVd4gy87i
p214
I1
sVdg0scyw
p215
I1
sVd25ulfx
p216
I1
sVcz67zgt
p217
I1
sVd441x1x
p218
I1
sVd8kofrl
p219
I1
sVdpxfo9i
p220
I1
sVdq1ritc
p221
I1
sVd4rv81o
p222
I1
sVdpai0c7
p223
I1
sVdkmksv9
p224
I1
sVd1z1ypp
p225
I1
sVd3cl7uc
p226
I1
sVdjgia6u
p227
I1
sVd81syoy
p228
I1
sVdkfl2nc
p229
I1
sVdb9fkzn
p230
I1
sVd1ugxpf
p231
I1
sVdcerlsm
p232
I2
sVdo1kigt
p233
I1
sVcymc94z
p234
I1
sVdgrnsaa
p235
I1
sVdf1xf0f
p236
I1
sVd2sawbm
p237
I1
sVd81o0y6
p238
I1
sVdeuvgv9
p239
I2
sVd24ak9f
p240
I1
sVde6is4s
p241
I1
sVcz4fyjs
p242
I1
sVdkpi3qq
p243
I3
sVd1a4hnv
p244
I1
sVd8yesio
p245
I1
sVd5muuq0
p246
I2
sVdgasymv
p247
I1
sVd702e8o
p248
I1
sVdco7wck
p249
I2
sVcz3x7i8
p250
I1
sVdjb9c5d
p251
I1
sVd0nznzv
p252
I1
sVcz6rqci
p253
I1
sVdabd1yc
p254
I2
sVdnbcax2
p255
I1
sVd3enu20
p256
I1
sVdf1u3t3
p257
I1
sVdrz5keh
p258
I1
sVd37t2w8
p259
I1
sVcz3poy4
p260
I1
sVdoektlz
p261
I1
sVd3yhuut
p262
I1
sVdb8dq8l
p263
I1
sVd9ytzsi
p264
I2
sVczbvtvk
p265
I1
sVdn2jssp
p266
I1
sVd3soynz
p267
I1
sVdj88tgr
p268
I1
sVdd359ro
p269
I1
sVcyoyvrs
p270
I1
sVd7olhk9
p271
I1
sVdo1gbfc
p272
I2
sVdpqwc8e
p273
I1
sVd22rnrk
p274
I1
sVdcb363p
p275
I1
sVdibson1
p276
I1
sVd6ugyz3
p277
I1
sVd18rqj4
p278
I1
sVdqljmfm
p279
I1
sVdgbilzx
p280
I1
sVdgkjdur
p281
I1
sVdb3lm92
p282
I1
sVd6uw94p
p283
I1
sVdgeyt57
p284
I1
sVdexpsc4
p285
I1
sVdc91hs3
p286
I1
sVd6cyf8r
p287
I1
sVdjxhmyo
p288
I3
sVdawk73z
p289
I1
sVd0svdrn
p290
I1
sVdeynbsy
p291
I1
sVdooxsit
p292
I1
sVdf3cbr5
p293
I2
sVddrigzh
p294
I1
sVdc9jpvg
p295
I1
sVdfltnf9
p296
I3
sVdkzmm4x
p297
I1
sVdsi11ig
p298
I1
sVd01gpjz
p299
I1
sVd1krb9s
p300
I1
sVd01zbpd
p301
I1
sVd37alzk
p302
I1
sVdnrhire
p303
I1
sVdjkcncf
p304
I1
sVd1l56jo
p305
I3
sVdi2psqh
p306
I1
sVdj5d4yk
p307
I1
sVcznr5gn
p308
I1
sVdoereyq
p309
I1
sVdkml3w6
p310
I1
sVd3vx5xi
p311
I1
sVd2i8irw
p312
I1
sVd2l8z84
p313
I1
sVd3hvxzb
p314
I1
sVdr2rjat
p315
I2
sVdcmsne8
p316
I1
sVdey7u1j
p317
I1
sVd397n2o
p318
I1
sVdamo2qw
p319
I1
sVd2rfkrm
p320
I1
sVd8m3fyl
p321
I1
sVdb9341a
p322
I2
sVdhwk0i2
p323
I1
sVdr6nw1e
p324
I1
sVczyd0uk
p325
I1
sVdcivthg
p326
I1
sVdrv5d5d
p327
I1
sVd4ak55p
p328
I1
sVdgxkg04
p329
I2
sVd5k5ieo
p330
I1
sVd5obl5l
p331
I1
sVddwjulf
p332
I1
sVd2d33ng
p333
I1
sVddc817t
p334
I5
sVdoeigbf
p335
I1
sVd6ns1i8
p336
I1
sVdfs3oiz
p337
I1
sVdkpidt7
p338
I1
sVd69qcvp
p339
I1
sVd37pwys
p340
I1
sVdjr4ok1
p341
I1
sVdsmngj5
p342
I1
sVd81szpi
p343
I1
sVd74sx2s
p344
I3
sVdi3sgq9
p345
I1
sVd880uk3
p346
I1
sVdi9fs05
p347
I1
sVddut9o0
p348
I1
sVd2zl9ia
p349
I1
sVdh9vcuo
p350
I1
sVdoekpq7
p351
I1
sVdq14380
p352
I1
sVdkcyr54
p353
I5
sVdr16ex3
p354
I1
sVdex7r26
p355
I4
sVdjlrzpt
p356
I1
sVdtd4lmx
p357
I1
sVdq39xv0
p358
I1
sVdn8pqd5
p359
I1
sVdkjy4ok
p360
I1
sVdswche1
p361
I1
sVdoldde9
p362
I1
sVcyp5tf0
p363
I2
sVd6erfix
p364
I2
sVdfyt3l7
p365
I1
sVdfj5idt
p366
I1
sVcz4pvs1
p367
I1
sVd0rxym8
p368
I3
sVdpsmvot
p369
I1
sVdhfliw6
p370
I1
sVd4mt2es
p371
I1
sVdq26t4o
p372
I2
sVd0j6xmx
p373
I1
sVdebe0dl
p374
I1
sVdc3bnds
p375
I2
sVd8o2iav
p376
I2
sVdipd6c4
p377
I1
sVdb6dua1
p378
I1
sVdi5a7ga
p379
I1
sVdfb4u8b
p380
I1
sVdmlsnyl
p381
I1
sVdesau8i
p382
I4
sVdbroepl
p383
I1
sVd5ndjsc
p384
I2
sVdjc266t
p385
I1
sVddezx02
p386
I4
sVdd006as
p387
I1
sVdmjszgs
p388
I1
sVd0rq0bd
p389
I1
sVdpfhmqb
p390
I1
sVd90zebz
p391
I1
sVd2qnkq3
p392
I1
sVd1kufk4
p393
I1
sVd55t5z2
p394
I1
sVddy203p
p395
I1
sVdn8dwzv
p396
I1
sVd8t5i0b
p397
I1
sVdhjfxuc
p398
I1
sVddi0pk6
p399
I1
sVdcepyu1
p400
I1
sVdfiebvb
p401
I1
sVdt2d07i
p402
I1
sVdh3ucxy
p403
I1
sVd759w6e
p404
I2
sVdk3mblh
p405
I1
sVdc9mq33
p406
I1
sVdi99xs3
p407
I1
sVcyt9bi3
p408
I2
sVdcgoczd
p409
I1
sVd26ardk
p410
I2
sVdbtkcbg
p411
I3
sVd26uy6g
p412
I1
sVcyy29jz
p413
I1
sVdq2g7bp
p414
I2
sVdcp98go
p415
I1
sVddfgy6s
p416
I2
sVd6dvddv
p417
I1
sVdrccxpl
p418
I1
sVd0u6bse
p419
I1
sVdi8ty46
p420
I1
sVde0cper
p421
I1
sVd7pdtrf
p422
I1
sVdk4ueea
p423
I1
sVdavidoi
p424
I1
sVdflzyqw
p425
I1
sVddwlq06
p426
I1
sVdnveb1s
p427
I1
sVdq3rlse
p428
I1
sVdkwomug
p429
I1
sVd04vok2
p430
I1
sVdeelz1x
p431
I1
sVd57fng4
p432
I1
sVddpql08
p433
I2
sVdjxujlb
p434
I1
sVdgk36m9
p435
I1
sVd3hy0oy
p436
I2
sVdd4ziud
p437
I1
sVd62aki0
p438
I1
sVdqxyo7r
p439
I1
sVdd3jmlo
p440
I1
sVdozbvw3
p441
I1
sVdgbq3je
p442
I1
sVdgtyr2d
p443
I1
sVd7wftfk
p444
I1
sVdirqxp4
p445
I1
sVcz2ouzh
p446
I4
sVd95pknz
p447
I1
sVdbe8ud6
p448
I1
sVcz22spm
p449
I1
sVdq27zqk
p450
I1
sVdmvqivy
p451
I2
sVdobb5e8
p452
I1
sVd28ye2d
p453
I1
sVdoeeeb8
p454
I1
sVd7bmiln
p455
I2
sVdhb8zkx
p456
I1
sVdmpibdd
p457
I1
sVdeht2nn
p458
I1
sVd046r5k
p459
I1
sVdekxc4l
p460
I1
sVdh7mche
p461
I2
sVd3d45i2
p462
I1
sVdd572ge
p463
I1
sVddkfkcl
p464
I2
sVdbhliz3
p465
I1
sVdmk2d09
p466
I1
sVd8ow0hx
p467
I6
sVdjhcxzb
p468
I1
sVd9kb6nj
p469
I2
sVdc3nqze
p470
I1
sVd890ufj
p471
I1
sVd2gwkgo
p472
I1
sVdngt4sz
p473
I2
sVdaaogaj
p474
I1
sVdpo3l93
p475
I1
sVdc2r2a1
p476
I1
sVd04ygkn
p477
I1
sVdps0lpe
p478
I1
sVcz35gow
p479
I1
sVd0jw4yw
p480
I1
sVdh3wh9d
p481
I2
sVdfcaysu
p482
I3
sVd4rm9em
p483
I1
sVd7gqh0x
p484
I1
sVd7aj1ln
p485
I1
sVda7w78f
p486
I1
sVdkpgi8m
p487
I1
sVdb898lz
p488
I2
sVdbhnlpb
p489
I1
sVdfa0c0r
p490
I2
sVdgijeae
p491
I1
sVdgia1gl
p492
I1
sVd7dznap
p493
I1
sVdry7xtc
p494
I1
sVdiu13xy
p495
I1
sVdkaaq5h
p496
I1
sVdjdhkjz
p497
I1
sVdimestm
p498
I3
sVdn6pii4
p499
I1
sVd9i1cy3
p500
I1
sVdnbr53a
p501
I1
sVd1ltpjh
p502
I1
sVd2kil51
p503
I1
sVd5i08gl
p504
I1
sVd3h72oe
p505
I1
sVd2gdd8x
p506
I1
sVdakg5uq
p507
I2
sVdazy1iy
p508
I1
sVdk47f9i
p509
I2
sVd6st9yy
p510
I2
sVd56od8t
p511
I1
sVdsi08ap
p512
I1
sVdeus5d7
p513
I1
sVdfxib0r
p514
I1
sVdg0hnnm
p515
I1
sVcz8di4s
p516
I1
sVd7p1wt4
p517
I1
sVdt467vq
p518
I3
sVd29thzv
p519
I1
sVdspr9ji
p520
I1
sVdjllcd8
p521
I1
sVddfu0fy
p522
I1
sVdcxl32q
p523
I1
sVd48391p
p524
I1
sVd328d26
p525
I1
sVd1vcdkk
p526
I1
sVdmeysif
p527
I3
sVd6x021q
p528
I1
sVdf6pdwe
p529
I1
sVdekss9g
p530
I1
sVddc3xk2
p531
I1
sVdkzn2fn
p532
I1
sVdkj3tr0
p533
I2
sVdaswwcg
p534
I1
sVde2p7a4
p535
I1
sVdoona90
p536
I1
sVdjzw370
p537
I2
sVdexiewm
p538
I2
sVd9e7s83
p539
I2
sVd5e9tkd
p540
I1
sVd0xi47y
p541
I2
sVdh69ii7
p542
I1
sVd9i32id
p543
I1
sVd91eyqa
p544
I2
sVdhf20nt
p545
I1
sVdcauvr8
p546
I1
sVddphvhe
p547
I1
sVd4z2tw7
p548
I1
sVd16rl9y
p549
I1
sVdn9bnn7
p550
I1
sVdgdh30v
p551
I1
sVdpy39ih
p552
I2
sVdco6id1
p553
I1
sVd9yv1t3
p554
I1
sVd8669gt
p555
I2
sVd290sb9
p556
I1
sVdoeaibv
p557
I1
sVd6f5g23
p558
I1
sVd1lvor4
p559
I2
sVdg2lnm4
p560
I1
sVd4r873m
p561
I1
sVd69wv29
p562
I1
sVd93008a
p563
I1
sVd7ptqq5
p564
I1
sVddwexcm
p565
I1
sVd7ab18h
p566
I1
sVd06ryxk
p567
I1
sVdn6vmkh
p568
I1
sVdnri0rk
p569
I1
sVdskz8p5
p570
I1
sVd0y5qgg
p571
I2
sVdnyl5h0
p572
I1
sVd3sbp2c
p573
I2
sVd41hhve
p574
I1
sVdck9eww
p575
I1
sVdkrbupa
p576
I5
sVdkp90zg
p577
I1
sVdi2a6gp
p578
I2
sVcyr8h7c
p579
I1
sVcyopj5x
p580
I1
sVdobgqt7
p581
I1
sVczxmqfo
p582
I5
sVd3rkxr3
p583
I1
sVd6g1vpn
p584
I1
sVd9hfhnr
p585
I1
sVdom4m86
p586
I1
sVdcajngp
p587
I1
sVdaipvug
p588
I2
sVdq2apzg
p589
I1
sVdpsbk5x
p590
I1
sVdefz0os
p591
I1
sVd4zibw5
p592
I1
sVd1ktmn1
p593
I1
sVd1w2nm8
p594
I1
sVdghk5d1
p595
I1
sVdoj5mxe
p596
I1
sVcynlgyx
p597
I2
sVdfv9yi2
p598
I2
sVda48frq
p599
I1
sVds6dwr6
p600
I1
sVd47mpmg
p601
I1
sVdntv66g
p602
I1
sVdae9fev
p603
I1
sVdb3uhvr
p604
I1
sVdck5z3j
p605
I1
sVdsww9ew
p606
I1
sVdbe61if
p607
I2
sVd2zilf1
p608
I1
sVd6ww0xz
p609
I1
sVdewpkww
p610
I2
sVcyvcs13
p611
I1
sVd0v5q9l
p612
I1
sVdgkkid9
p613
I1
sVdainp8n
p614
I1
sVdoejpyo
p615
I1
sVdmeu9d7
p616
I1
sVdfj2ye0
p617
I1
sVd8ftjrh
p618
I1
sVd1e54pv
p619
I1
sVdmseahm
p620
I1
sVd3yj14s
p621
I1
sVdmxmvdh
p622
I8
sVdmrw9bb
p623
I1
sVdq5j9fz
p624
I1
sVddx6r9a
p625
I1
sVdruht9l
p626
I1
sVd9i003w
p627
I7
sVdbezea0
p628
I1
sVczfxfhi
p629
I1
sVdfo1v2z
p630
I1
sVdt9g1hv
p631
I1
sVdjkfpqd
p632
I1
sVdo51o49
p633
I1
sVdt8yvkh
p634
I1
sVdaz32la
p635
I1
sVd9yuyom
p636
I1
sVdn6uehr
p637
I1
sVdjb5d4y
p638
I1
sVdgcol93
p639
I1
sVczgo2d0
p640
I1
sVdshzium
p641
I2
sVdc3y09p
p642
I4
sVdh5n4wq
p643
I1
sVdmugn1f
p644
I1
sVdc8yjjf
p645
I1
sVdr6xskx
p646
I1
sVdimj1t5
p647
I1
sVdex61tc
p648
I1
sVd19bu0w
p649
I1
sVd0s6tuw
p650
I1
sVdjnia35
p651
I1
sVdqkwp4g
p652
I1
sVdihrcaq
p653
I1
sVdg9yyqm
p654
I2
sVd2g89w6
p655
I1
sVd6d2ps9
p656
I1
sVdgnxb8h
p657
I1
sVd5yrf8c
p658
I1
sVd1v002f
p659
I1
sVd19m203
p660
I1
sVdsqr8ga
p661
I3
sVdk7x6bk
p662
I1
sVdqb8bis
p663
I1
sVdob49my
p664
I2
sVdt5c2v7
p665
I1
sVdc9hm5p
p666
I1
sVdrtwq9w
p667
I1
sVd84pz09
p668
I1
sVdr2iwmc
p669
I3
sVdibaia8
p670
I1
sVdhdaz3o
p671
I1
sVd0fwh6p
p672
I1
sVczo32kw
p673
I1
sVd0s051n
p674
I2
sVcz6bsnm
p675
I1
sVdh19af6
p676
I1
sVdszajso
p677
I1
sVd5hmhup
p678
I1
sVd7iunaf
p679
I1
sVdsgm9ms
p680
I1
sVdcpn03d
p681
I1
sVdigj51g
p682
I1
sVd9rfvvv
p683
I2
sVd4hzmbj
p684
I1
sVd1a4ssj
p685
I1
sVdg1ie40
p686
I1
sVd5a940n
p687
I1
sVdpi1g6m
p688
I2
sVd1kz2vo
p689
I1
sVdex4jco
p690
I1
sVd1qyula
p691
I1
sVdsd469v
p692
I2
sVd236d7g
p693
I1
sVdec1xzr
p694
I1
sVd5491dc
p695
I1
sVd0qar26
p696
I1
sVdcst2nt
p697
I1
sVcyoyogo
p698
I1
sVd1v9b43
p699
I1
sVdf8wl46
p700
I1
sVcz6bovy
p701
I1
sVczoj1w2
p702
I1
sVdi6z1vd
p703
I1
sVcyj03v7
p704
I1
sVdt2vl45
p705
I1
sVdbwlc26
p706
I1
sVd6hdp05
p707
I2
sVdc7id8d
p708
I1
sVd8a0shj
p709
I1
sVdqng95f
p710
I1
sVd2nsafn
p711
I2
sVd04cz1n
p712
I1
sVcymiql4
p713
I1
sVcznmuns
p714
I1
sVdg4lnsz
p715
I1
sVd4d0cqx
p716
I1
sVd3rwlw1
p717
I1
sVdhim3oq
p718
I1
sVczewecz
p719
I1
sVdpqka4j
p720
I1
sVczgt2m0
p721
I1
sVd0skmgx
p722
I1
sVdg2buv5
p723
I1
sVd4tvldt
p724
I1
sVdgvuv0t
p725
I1
sVdck8mk1
p726
I1
sVd7evskb
p727
I1
sVdh8orwg
p728
I1
sVd9j566i
p729
I1
sVdh10aaw
p730
I1
sVddgh56w
p731
I1
sVd0400bh
p732
I1
sVdkb3nrs
p733
I1
sVd9x355l
p734
I1
sVdagosxc
p735
I2
sVdc7jyqb
p736
I1
sVd4nz1pv
p737
I1
sVdexyqwx
p738
I1
sVdq6w0jp
p739
I1
sVdpmhb5b
p740
I1
sVdbilq9v
p741
I1
sVdajkkcs
p742
I3
sVdfa8wup
p743
I1
sVd2avpng
p744
I1
sVdf81cb6
p745
I1
sVdp58t7g
p746
I2
sVddcy1ml
p747
I1
sVdksmtae
p748
I1
sVdakfve7
p749
I1
sVdazr8vk
p750
I1
sVdqky25p
p751
I1
sVdkz43f6
p752
I1
sVdhxtnmv
p753
I1
sVd6hwz0w
p754
I2
sVdt6jvcj
p755
I1
s.