(dp0
Vd6eu0rf
p1
I1
sVddj8wsg
p2
I1
sVdgq02q8
p3
I1
sVdcxrtkz
p4
I1
sVdq5z3ak
p5
I1
sVdq1uh9u
p6
I1
sVd0uze3u
p7
I1
sVdgsjo5k
p8
I2
sVcyntwmk
p9
I1
sVddwr9gw
p10
I1
sVczncxmk
p11
I2
sVd3sdom6
p12
I1
sVdq226fp
p13
I1
sVd0izojh
p14
I1
sVd1rdn6m
p15
I1
sVd0rucsq
p16
I1
sVdiob91o
p17
I1
sVd52rmu0
p18
I1
sVd3ear5t
p19
I1
sVd23s58f
p20
I1
sVd2na62s
p21
I1
sVcz033x8
p22
I1
sVdcpnjqg
p23
I2
sVd10asoz
p24
I1
sVdcdbffx
p25
I1
sVdhxltt2
p26
I3
sVd0b6frr
p27
I1
sVdhbinqh
p28
I1
sVdjo8aig
p29
I1
sVd7q3psu
p30
I1
sVd6jfiqn
p31
I1
sVdem0lk4
p32
I1
sVdq39xv0
p33
I1
sVdet6wr8
p34
I1
sVd0r3i9r
p35
I1
sVd29s4h6
p36
I3
sVda93irf
p37
I1
sVd7wynl5
p38
I2
sVd2fsw0r
p39
I1
sVd26ve77
p40
I1
sVddxtkpd
p41
I1
sVd1rdoo5
p42
I1
sVdcfjrrn
p43
I1
sVd8ow0hx
p44
I8
sVczrwerj
p45
I1
sVddfl2ty
p46
I1
sVd120sg9
p47
I1
sVdgnvd5c
p48
I1
sVdn69q9i
p49
I1
sVcz0xqiz
p50
I2
sVd6axlel
p51
I2
sVdr549we
p52
I1
sVdr0hyhw
p53
I2
sVdbx6gsy
p54
I1
sVdjzw370
p55
I1
sVddw7yk9
p56
I1
sVczyqtt1
p57
I1
sVd3rl0ej
p58
I1
sVd3rww9n
p59
I1
sVd6texok
p60
I1
sVdegsobf
p61
I1
sVdszti3g
p62
I1
sVdpjhsg2
p63
I1
sVd16u68z
p64
I1
sVd4jhtdn
p65
I1
sVd1k1h85
p66
I1
sVczta2un
p67
I1
sVd4zbwrv
p68
I1
sVd52pqji
p69
I1
sVd0fkzof
p70
I1
sVd3cicrs
p71
I1
sVd477pu9
p72
I1
sVde8epa1
p73
I1
sVd1oj0wq
p74
I1
sVdc8yae8
p75
I1
sVd00q3b8
p76
I1
sVd5nf7qa
p77
I1
sVcyiic6t
p78
I1
sVd2kzx3r
p79
I3
sVd2ts2vn
p80
I1
sVczoqaos
p81
I1
sVdayr16h
p82
I1
sVdo1lf7q
p83
I1
sVd8ldgca
p84
I1
sVddg6nwp
p85
I1
sVddfvt57
p86
I1
sVdbr5jt8
p87
I1
sVdhmga1q
p88
I1
sVdkcts4d
p89
I1
sVd0ethsr
p90
I2
sVdjct4kb
p91
I1
sVdaylxnx
p92
I1
sVdmk2d09
p93
I1
sVd5kr906
p94
I1
sVdgod7d9
p95
I2
sVdd5bo5p
p96
I1
sVd19k037
p97
I1
sVd3rrsmf
p98
I1
sVczrkx04
p99
I1
sVdt1jy6p
p100
I1
sVczh2hvb
p101
I1
sVdb8dq8l
p102
I1
sVd5lp8ah
p103
I1
sVd1irsw8
p104
I1
sVd0gucwd
p105
I1
sVdga5zpr
p106
I1
sVd7pfiem
p107
I1
sVdj29xjo
p108
I1
sVcyisaf1
p109
I1
sVczvtxzi
p110
I1
sVdd9kqta
p111
I1
sVd6bsfs0
p112
I3
sVddbh5pj
p113
I1
sVd20a68j
p114
I1
sVdkpgi8m
p115
I1
sVdjl11qi
p116
I1
sVdioi2e2
p117
I8
sVdrqpot0
p118
I1
sVd26o79b
p119
I2
sVd00jixc
p120
I1
sVdsmpq3g
p121
I1
sVdrxgsgr
p122
I2
sVdn37tcv
p123
I1
sVdh9j6ry
p124
I1
sVdo1kigt
p125
I2
sVcz2u8bj
p126
I1
sVd59jryh
p127
I1
sVdeeqngi
p128
I2
sVd7ck6aa
p129
I1
sVdsh5zjw
p130
I1
sVd702e8o
p131
I2
sVdr2iwmc
p132
I2
sVcz3x7i8
p133
I1
sVd9vahxb
p134
I1
sVcytqdxe
p135
I1
sVdagosxc
p136
I1
sVd8cqhuw
p137
I1
sVd2i8t6r
p138
I4
sVczbvtvk
p139
I1
sVdgy4gdo
p140
I2
sVcyoyvrs
p141
I1
sVddfdgbt
p142
I1
sVd6ugyz3
p143
I3
sVd00977n
p144
I1
sVd3hti8q
p145
I2
sVdj2ty5o
p146
I1
sVcys30zm
p147
I1
sVdkmv1dx
p148
I1
sVdretavh
p149
I1
sVd2n8eta
p150
I1
sVdkml3w6
p151
I2
sVd3n4xkr
p152
I1
sVd6w72qw
p153
I1
sVdey7u1j
p154
I1
sVdai3k5w
p155
I1
sVd7cfxmk
p156
I1
sVd53725t
p157
I1
sVd6ns1i8
p158
I1
sVdqmwwjs
p159
I1
sVdamwen4
p160
I1
sVddv1jdh
p161
I1
sVdrczmiv
p162
I1
sVdkpidt7
p163
I1
sVdegyzs8
p164
I1
sVdgafs6m
p165
I1
sVdo5bfko
p166
I1
sVdsmngj5
p167
I2
sVd5kt5an
p168
I1
sVdgt6jyq
p169
I1
sVd9awwqn
p170
I1
sVdde6bhm
p171
I1
sVd880uk3
p172
I1
sVds997zo
p173
I1
sVdpgqs18
p174
I1
sVda8ydga
p175
I1
sVd1zn3wl
p176
I1
sVd9d3535
p177
I1
sVdex7r26
p178
I1
sVd2qnx88
p179
I1
sVd9f20n1
p180
I1
sVd0tqqo0
p181
I1
sVddi1faj
p182
I3
sVcz72giy
p183
I1
sVdo4mgw8
p184
I1
sVdi5a7ga
p185
I2
sVdoedp0g
p186
I1
sVdgh4tu8
p187
I1
sVczj0zzz
p188
I1
sVcyx8kbv
p189
I1
sVdn8dwzv
p190
I1
sVd14pylh
p191
I1
sVdjzwujh
p192
I1
sVcywnceq
p193
I1
sVdcepyu1
p194
I2
sVdaxnqnc
p195
I1
sVdhvnti0
p196
I1
sVd4w07vx
p197
I1
sVd26uy6g
p198
I1
sVdol7kuj
p199
I2
sVd0f8frd
p200
I1
sVd4zbm1f
p201
I1
sVdknkczy
p202
I1
sVd7pdtrf
p203
I1
sVdhajwxg
p204
I1
sVd32btyh
p205
I1
sVd86fu0m
p206
I2
sVdqjhbkf
p207
I3
sVdo9jigt
p208
I3
sVd46wh5g
p209
I1
sVddc817t
p210
I1
sVdemamm7
p211
I1
sVd39p3v5
p212
I1
sVdr2rjat
p213
I3
sVd74sx2s
p214
I5
sVdd4ziud
p215
I1
sVd2jshkq
p216
I1
sVdincqd1
p217
I1
sVd4xhwaf
p218
I1
sVcz2ouzh
p219
I1
sVcz22spm
p220
I1
sVdropzrd
p221
I1
sVcyx7gin
p222
I1
sVd28ye2d
p223
I1
sVdkhe4ou
p224
I1
sVdfbannh
p225
I1
sVd80yj21
p226
I1
sVd3qkrgu
p227
I1
sVd1cu4m9
p228
I1
sVddxor78
p229
I1
sVd1mawko
p230
I1
sVddkfkcl
p231
I1
sVdhmmex1
p232
I2
sVdglwz2t
p233
I1
sVd9gmx35
p234
I1
sVd09ww86
p235
I1
sVdk1xctd
p236
I4
sVdq263jd
p237
I6
sVd0rw6p1
p238
I1
sVdjfxcsw
p239
I1
sVdgayogm
p240
I1
sVdimhsfo
p241
I1
sVd060c14
p242
I1
sVdkrbupa
p243
I1
sVdbt7vj9
p244
I1
sVdk29sep
p245
I1
sVd57g8zw
p246
I4
sVdoiw7kl
p247
I1
sVddovggo
p248
I1
sVdimestm
p249
I3
sVd3z7spc
p250
I1
sVd57ibk1
p251
I2
sVdqb8bis
p252
I1
sVd81szpi
p253
I1
sVd450q5y
p254
I1
sVd8c66ft
p255
I1
sVd0iqzlq
p256
I1
sVdpspr27
p257
I1
sVdk47f9i
p258
I1
sVd266vps
p259
I2
sVd12c5c0
p260
I1
sVd0melvl
p261
I1
sVdambx1j
p262
I2
sVcz8di4s
p263
I1
sVdt467vq
p264
I1
sVd9zki0f
p265
I1
sVdspr9ji
p266
I1
sVdjllcd8
p267
I1
sVdnvekpd
p268
I1
sVdidf5k0
p269
I1
sVd328d26
p270
I1
sVd9z6fxe
p271
I1
sVddpobp5
p272
I1
sVdgixjp2
p273
I1
sVdafh0hr
p274
I1
sVd6p96n9
p275
I2
sVdkzn2fn
p276
I1
sVdfulhmq
p277
I1
sVdt6eo2r
p278
I2
sVdo1fuzn
p279
I1
sVd8n47vs
p280
I1
sVd9e7s83
p281
I1
sVd5zgj8a
p282
I1
sVdhlu13g
p283
I1
sVdqznk2m
p284
I1
sVdkyknoh
p285
I1
sVd1c8vwl
p286
I1
sVd7xtxsk
p287
I1
sVdbyk6ya
p288
I1
sVd99g90x
p289
I1
sVdq27zqk
p290
I1
sVdmvgkx3
p291
I1
sVdg2lnm4
p292
I1
sVdgkl0vs
p293
I1
sVdjfoawe
p294
I1
sVddvmsdf
p295
I1
sVd7ab18h
p296
I1
sVdtf6nqq
p297
I1
sVdi2d436
p298
I1
sVd0y5qgg
p299
I1
sVdt3wa3c
p300
I1
sVd090ksn
p301
I1
sVd4hg9t1
p302
I1
sVd3rkxr3
p303
I1
sVd6g1vpn
p304
I1
sVd91a8g0
p305
I2
sVdajifv2
p306
I1
sVdik9es9
p307
I1
sVd4zibw5
p308
I1
sVd4z2tw7
p309
I1
sVdo5cffz
p310
I4
sVcz6lwk6
p311
I1
sVd4zo6hl
p312
I1
sVd4zmq20
p313
I1
sVdpup17h
p314
I1
sVd0cl2r6
p315
I1
sVd824bkb
p316
I1
sVdjb4eoo
p317
I2
sVdb3uhvr
p318
I1
sVdbe61if
p319
I3
sVdhmlxkn
p320
I1
sVdbjpgjj
p321
I1
sVd5au5w1
p322
I1
sVdpst7xe
p323
I1
sVd3rqool
p324
I1
sVd3kcjp5
p325
I1
sVd6ylrt1
p326
I1
sVdmseahm
p327
I1
sVd3yj14s
p328
I1
sVdpjavon
p329
I1
sVdmxmvdh
p330
I1
sVdf68e0v
p331
I1
sVd9i003w
p332
I2
sVda85ipu
p333
I1
sVdfkdzr5
p334
I2
sVd8dybyt
p335
I1
sVdn6uehr
p336
I1
sVdnn7jv3
p337
I1
sVdc3y09p
p338
I1
sVdc9ftr9
p339
I1
sVcyj6gxj
p340
I1
sVd99jz3y
p341
I2
sVdex61tc
p342
I1
sVdmvxipk
p343
I1
sVdg9yyqm
p344
I2
sVdn4ackt
p345
I1
sVd872siq
p346
I1
sVdbormuc
p347
I1
sVd19m203
p348
I1
sVcywqihl
p349
I1
sVdob49my
p350
I1
sVdnvfrmt
p351
I1
sVdc9hm5p
p352
I1
sVdnbsk9g
p353
I1
sVdoereyq
p354
I1
sVd0s051n
p355
I2
sVdcpn03d
p356
I1
sVdom4ede
p357
I2
sVdnkwkhu
p358
I1
sVdehribl
p359
I1
sVcyoyogo
p360
I1
sVdfapgp2
p361
I1
sVdkikavi
p362
I1
sVcyr2zxp
p363
I1
sVdkig5r2
p364
I1
sVds2k0tn
p365
I1
sVdhp840x
p366
I1
sVd90vhzt
p367
I1
sVde0cper
p368
I1
sVdi38y2k
p369
I1
sVd04cz1n
p370
I1
sVdincuyv
p371
I1
sVdqb3uh2
p372
I1
sVdgw5i90
p373
I3
sVdhp53vn
p374
I1
sVd3rwlw1
p375
I1
sVdqxnz16
p376
I2
sVd56od8t
p377
I2
sVd6nugf5
p378
I2
sVdoeb6cp
p379
I1
sVdg2buv5
p380
I1
sVd4tvldt
p381
I2
sVd3enu20
p382
I8
sVdeh90du
p383
I1
sVd4nz1pv
p384
I1
sVczvjjjz
p385
I1
sVdnvpxp8
p386
I1
sVd76id36
p387
I1
sVdgm9b7d
p388
I1
sVd8mfifu
p389
I1
sVdeu7k3b
p390
I1
sVdp58t7g
p391
I1
sVd5y9zbx
p392
I1
sVdjvdnfp
p393
I1
s.