(dp0
Vdjsknn9
p1
I1
sVdc1def7
p2
I1
sVddv6o5l
p3
I1
sVd1ypegy
p4
I1
sVd58vvzq
p5
I1
sVdj228st
p6
I1
sVd7hregz
p7
I1
sVczk41cn
p8
I1
sVdc4b6sg
p9
I1
sVdbdlq01
p10
I1
sVdnvk6ae
p11
I1
sVdb1wtlb
p12
I2
s.