(dp0
Vcys6423
p1
I1
s.(dp0
Vcys6423
p1
I2
s.(dp0
Vcys7zjz
p1
I1
sVcys6423
p2
I1
s.(dp0
Vcz8f1zg
p1
I1
sVcys6423
p2
I1
s.(dp0
Vczdn4mb
p1
I1
sVcys6423
p2
I1
s.(dp0
Vczdnuc2
p1
I1
sVcys6423
p2
I1
s.(dp0
Vczdnuc2
p1
I1
sVcys6423
p2
I1
s.(dp0
Vczdropl
p1
I1
sVcys6423
p2
I1
s.(dp0
Vczhd2jr
p1
I1
sVcys6423
p2
I1
s.(dp0
Vczhd2jr
p1
I1
sVcys6423
p2
I1
s.(dp0
Vd05nqrn
p1
I1
sVcys6423
p2
I1
s.(dp0
Vd06mh5o
p1
I1
sVcys6423
p2
I1
s.(dp0
Vd0culkv
p1
I1
sVcys6423
p2
I1
s.(dp0
Vd0culkv
p1
I1
sVcys6423
p2
I1
s.(dp0
Vd0iuem9
p1
I1
sVcys6423
p2
I1
s.(dp0
Vd0iuem9
p1
I1
sVcys6423
p2
I1
s.(dp0
Vd0iuem9
p1
I1
sVcys6423
p2
I1
s.(dp0
Vd0pxgrx
p1
I1
sVcys6423
p2
I1
s.(dp0
Vd1kbkdf
p1
I1
sVcys6423
p2
I1
s.(dp0
Vd1kgwfu
p1
I1
sVcys6423
p2
I1
s.(dp0
Vd1numom
p1
I1
sVcys6423
p2
I1
s.(dp0
Vd1numom
p1
I1
sVcys6423
p2
I1
s.(dp0
Vd1xcfbr
p1
I1
sVcys6423
p2
I1
s.(dp0
Vd1ybi3g
p1
I1
sVcys6423
p2
I1
s.(dp0
Vd1ygyy6
p1
I1
sVcys6423
p2
I1
s.(dp0
Vd28whun
p1
I1
sVcys6423
p2
I1
s.(dp0
Vd2ctrr1
p1
I1
sVcys6423
p2
I1
s.(dp0
Vd2ei3ul
p1
I1
sVcys6423
p2
I1
s.(dp0
Vd2ei3ul
p1
I1
sVcys6423
p2
I1
s.(dp0
Vd2ei3ul
p1
I1
sVcys6423
p2
I1
s.(dp0
Vd31rdlj
p1
I1
sVcys6423
p2
I1
s.(dp0
Vd3ndvhm
p1
I1
sVcys6423
p2
I1
s.(dp0
Vd3rml0n
p1
I1
sVcys6423
p2
I1
s.(dp0
Vd3rml0n
p1
I1
sVcys6423
p2
I1
s.(dp0
Vd3sc1cq
p1
I1
sVcys6423
p2
I1
s.(dp0
Vd3tqp0r
p1
I1
sVcys6423
p2
I1
s.(dp0
Vd4efafb
p1
I1
sVcys6423
p2
I1
s.(dp0
Vd4luhmr
p1
I1
sVcys6423
p2
I1
s.(dp0
Vd4luhmr
p1
I1
sVcys6423
p2
I1
s.(dp0
Vd590bqc
p1
I1
sVcys6423
p2
I1
s.(dp0
Vd6boapi
p1
I1
sVcys6423
p2
I1
s.(dp0
Vd6boapi
p1
I1
sVcys6423
p2
I1
s.(dp0
Vd6cjs9t
p1
I1
sVcys6423
p2
I1
s.(dp0
Vd6hkooo
p1
I1
sVcys6423
p2
I1
s.(dp0
Vd6pn9jz
p1
I1
sVcys6423
p2
I1
s.(dp0
Vd717ayw
p1
I1
sVcys6423
p2
I1
s.(dp0
Vd7fjd77
p1
I1
sVcys6423
p2
I1
s.(dp0
Vd7peo5g
p1
I1
sVcys6423
p2
I1
s.(dp0
Vd7peo5g
p1
I1
sVcys6423
p2
I1
s.(dp0
Vd7pkiiv
p1
I1
sVcys6423
p2
I1
s.(dp0
Vd7pxrj5
p1
I1
sVcys6423
p2
I1
s.(dp0
Vd8fuc61
p1
I1
sVcys6423
p2
I1
s.(dp0
Vd8tigr1
p1
I1
sVcys6423
p2
I1
s.(dp0
Vd9zy4kk
p1
I1
sVcys6423
p2
I1
s.(dp0
Vd9zy4kk
p1
I1
sVcys6423
p2
I1
s.(dp0
Vda9bhbu
p1
I1
sVcys6423
p2
I1
s.(dp0
Vdah4fc3
p1
I1
sVcys6423
p2
I1
s.(dp0
Vdanemjg
p1
I1
sVcys6423
p2
I1
s.(dp0
Vdauyzdn
p1
I1
sVcys6423
p2
I1
s.(dp0
Vdauyzdn
p1
I1
sVcys6423
p2
I1
s.(dp0
Vdb1m7jd
p1
I1
sVcys6423
p2
I1
s.(dp0
Vdbc1j3c
p1
I1
sVcys6423
p2
I1
s.(dp0
Vdbtmihi
p1
I1
sVcys6423
p2
I1
s.(dp0
Vdbwbwg8
p1
I1
sVcys6423
p2
I1
s.(dp0
Vdbypk5h
p1
I1
sVcys6423
p2
I1
s.(dp0
Vdbz3luh
p1
I1
sVcys6423
p2
I1
s.(dp0
Vdbz3luh
p1
I1
sVcys6423
p2
I1
s.(dp0
Vdbz3luh
p1
I1
sVcys6423
p2
I1
s.(dp0
Vdcgp6zc
p1
I1
sVcys6423
p2
I1
s.(dp0
Vdcr7vup
p1
I1
sVcys6423
p2
I1
s.(dp0
Vdcw9d2s
p1
I1
sVcys6423
p2
I1
s.(dp0
Vddz76yl
p1
I1
sVcys6423
p2
I1
s.(dp0
Vdek07fo
p1
I1
sVcys6423
p2
I1
s.(dp0
Vdekie79
p1
I1
sVcys6423
p2
I1
s.(dp0
Vdekie79
p1
I1
sVcys6423
p2
I1
s.(dp0
Vdeubg0k
p1
I1
sVcys6423
p2
I1
s.(dp0
Vdeztlyk
p1
I1
sVcys6423
p2
I1
s.(dp0
Vdf8c9h6
p1
I1
sVcys6423
p2
I1
s.(dp0
Vdfcy7wa
p1
I1
sVcys6423
p2
I1
s.(dp0
Vdh18hws
p1
I1
sVcys6423
p2
I1
s.(dp0
Vdh3pshd
p1
I1
sVcys6423
p2
I1
s.(dp0
Vdh3pshd
p1
I1
sVcys6423
p2
I1
s.(dp0
Vdh3pshd
p1
I1
sVcys6423
p2
I1
s.(dp0
Vdh5wjjc
p1
I1
sVcys6423
p2
I1
s.(dp0
Vdhbyyci
p1
I1
sVcys6423
p2
I1
s.(dp0
Vdhbyyci
p1
I1
sVcys6423
p2
I1
s.(dp0
Vdhiqcxe
p1
I1
sVcys6423
p2
I1
s.(dp0
Vdhiqcxe
p1
I1
sVcys6423
p2
I1
s.(dp0
Vdhiqlso
p1
I1
sVcys6423
p2
I1
s.(dp0
Vdhiqlso
p1
I1
sVcys6423
p2
I1
s.(dp0
Vdhiqlso
p1
I1
sVcys6423
p2
I1
s.(dp0
Vdhiqlso
p1
I1
sVcys6423
p2
I1
s.(dp0
Vdhiqlso
p1
I1
sVcys6423
p2
I1
s.(dp0
Vdhiqlso
p1
I1
sVcys6423
p2
I1
s.(dp0
Vdhm02yv
p1
I1
sVcys6423
p2
I1
s.(dp0
Vdi287q3
p1
I1
sVcys6423
p2
I1
s.(dp0
Vdi2c837
p1
I1
sVcys6423
p2
I1
s.(dp0
Vdi83f2z
p1
I1
sVcys6423
p2
I1
s.(dp0
Vdiseusx
p1
I1
sVcys6423
p2
I1
s.(dp0
Vdiseusx
p1
I1
sVcys6423
p2
I1
s.(dp0
Vdiseusx
p1
I1
sVcys6423
p2
I1
s.(dp0
Vdj73roe
p1
I1
sVcys6423
p2
I1
s.(dp0
Vdjssx2f
p1
I1
sVcys6423
p2
I1
s.(dp0
Vdk90lc7
p1
I1
sVcys6423
p2
I1
s.(dp0
Vdk90lc7
p1
I1
sVcys6423
p2
I1
s.(dp0
Vdk90lc7
p1
I1
sVcys6423
p2
I1
s.(dp0
Vdkjogfq
p1
I1
sVcys6423
p2
I1
s.(dp0
Vdkjogfq
p1
I1
sVcys6423
p2
I1
s.(dp0
Vdkx80u1
p1
I1
sVcy(dp0
Vdt5rttj
p1
I1
sVcys6423
p2
I1
s.