(dp0
Vd4efafb
p1
I1
sVdcgp6zc
p2
I1
sVd6pn9jz
p3
I1
sVd3rml0n
p4
I2
sVd1kgwfu
p5
I1
sVd31rdlj
p6
I1
sVdqhx96c
p7
I1
sVdhiqlso
p8
I6
sVd7pkiiv
p9
I1
sVdi83f2z
p10
I1
sVdeubg0k
p11
I1
sVdodgtjh
p12
I1
sVd1ygyy6
p13
I1
sVd3sc1cq
p14
I1
sVd1xcfbr
p15
I1
sVddz76yl
p16
I1
sVd0culkv
p17
I2
sVdh18hws
p18
I1
sVdh3pshd
p19
I3
sVd06mh5o
p20
I1
sVdmz0iqh
p21
I2
sVdsaf9jw
p22
I1
sVd590bqc
p23
I1
sVdhbyyci
p24
I2
sVdrkb9vs
p25
I2
sVd05nqrn
p26
I1
sVd7pxrj5
p27
I1
sVd8tigr1
p28
I1
sVdek07fo
p29
I1
sVd28whun
p30
I1
sVd3tqp0r
p31
I1
sVczdnuc2
p32
I2
sVdjssx2f
p33
I1
sVdoc2kku
p34
I1
sVdt5rttj
p35
I2
sVdekie79
p36
I2
sVdcr7vup
p37
I1
sVd1numom
p38
I2
sVczdn4mb
p39
I1
sVdrwzfyo
p40
I1
sVdi287q3
p41
I1
sVdbypk5h
p42
I1
sVdpp2uv4
p43
I2
sVdfcy7wa
p44
I1
sVdbc1j3c
p45
I1
sVdb1m7jd
p46
I1
sVdi2c837
p47
I1
sVd0pxgrx
p48
I1
sVdhm02yv
p49
I1
sVdhiqcxe
p50
I2
sVd6cjs9t
p51
I1
sVdbz3luh
p52
I3
sVdbwbwg8
p53
I1
sVdr90pts
p54
I1
sVdcw9d2s
p55
I1
sVdk90lc7
p56
I3
sVdanemjg
p57
I1
sVd6boapi
p58
I2
sVdbtmihi
p59
I1
sVd2ctrr1
p60
I1
sVcys6423
p61
I2
sVda9bhbu
p62
I1
sVczhd2jr
p63
I2
sVd2ei3ul
p64
I3
sVdmrlroo
p65
I1
sVdqu8hgd
p66
I1
sVd7fjd77
p67
I1
sVczdropl
p68
I1
sVd1kbkdf
p69
I1
sVdkx80u1
p70
I2
sVd9zy4kk
p71
I2
sVd6hkooo
p72
I1
sVdpp2nsn
p73
I1
sVdr377tq
p74
I1
sVd8fuc61
p75
I1
sVd4luhmr
p76
I2
sVcz8f1zg
p77
I1
sVcys7zjz
p78
I1
sVdkjogfq
p79
I2
sVdauyzdn
p80
I2
sVd717ayw
p81
I1
sVdpl5elx
p82
I1
sVdah4fc3
p83
I1
sVdiseusx
p84
I3
sVd1ybi3g
p85
I1
sVdqjklo1
p86
I1
sVdsmgccr
p87
I1
sVd0iuem9
p88
I3
sVdj73roe
p89
I1
sVdo7q87z
p90
I1
sVdmzbg6y
p91
I1
sVdf8c9h6
p92
I1
sVdh5wjjc
p93
I1
sVd7peo5g
p94
I2
sVdeztlyk
p95
I1
sVd3ndvhm
p96
I1
s.