(dp0
Vd18uasw
p1
I1
s.(dp0
Vd18uasw
p1
I1
sVd2tkykr
p2
I1
s.(dp0
Vd18uasw
p1
I1
sVd7gq834
p2
I1
s.(dp0
Vd18uasw
p1
I1
sVd8l6ctc
p2
I1
s.(dp0
Vd18uasw
p1
I1
sVdf6c3wk
p2
I1
s.(dp0
Vd18uasw
p1
I1
sVdfhkldb
p2
I1
s.(dp0
Vd18uasw
p1
I1
sVdiyi4n2
p2
I1
s.(dp0
Vd18uasw
p1
I1
sVdo0qeh1
p2
I1
s.(dp0
Vd18uasw
p1
I1
sVdrxfd7m
p2
I1
s.