(dp0
Vd502mul
p1
I7
sVdn6mazm
p2
I1
sVdbjx6dk
p3
I1
sVd7b16c4
p4
I1
sVdcaq4i5
p5
I1
sVdhwk0i2
p6
I2
sVdbf7egs
p7
I1
sVdjyklob
p8
I1
sVdf0kygs
p9
I1
sVdsmwuez
p10
I1
sVd3547yt
p11
I1
sVd0dz5a2
p12
I1
sVd5oxvvi
p13
I1
sVd0fbymt
p14
I2
sVd6j9tc2
p15
I1
sVdc4fpav
p16
I1
sVd23cs8c
p17
I1
s.