(dp0
Vd474ino
p1
I1
sVdndw9y6
p2
I1
sVd0omv30
p3
I1
sVd44ehkb
p4
I1
sVde5dmaw
p5
I1
sVddjz3qi
p6
I1
sVdamb7py
p7
I1
sVd3oklmm
p8
I1
sVd1k4hmg
p9
I1
sVdndffrf
p10
I1
sVdpf8q3e
p11
I1
sVd4d5n1p
p12
I1
sVd97t6dz
p13
I1
sVd0l0hze
p14
I1
sVcz1m1p7
p15
I1
sVd74xqrt
p16
I1
sVdaqmp6x
p17
I1
sVdtisdco
p18
I1
sVda97owj
p19
I1
sVdcyymly
p20
I3
sVd7ld4kg
p21
I1
sVda8ecqr
p22
I1
sVdbrmlor
p23
I1
sVczoaa0t
p24
I1
sVdh0f11d
p25
I1
sVd1zn2yq
p26
I1
sVdfzw8vq
p27
I2
sVdgyhnxf
p28
I1
sVdr00jyp
p29
I1
sVddu3oxy
p30
I1
sVd9rl13n
p31
I1
sVd3n9b76
p32
I1
sVda1sm8d
p33
I1
sVdk450t0
p34
I1
sVde1bvfo
p35
I1
sVdh54ewj
p36
I1
sVdkvfsz0
p37
I1
sVdcibt84
p38
I1
sVdepbpzb
p39
I1
sVd48y0d0
p40
I1
sVdsmfc0g
p41
I1
sVd6kyubi
p42
I1
sVdfbbco6
p43
I1
sVdewy64w
p44
I1
s.