(dp0
Vd2o596o
p1
I1
sVcz7wuem
p2
I3
sVcz8038q
p3
I1
sVcz7vykd
p4
I2
sVdclsfp9
p5
I1
sVcz8b6us
p6
I1
sVd2l5kt1
p7
I5
sVcz8a8rr
p8
I1
sVcz7vr6f
p9
I3
sVdpa5m97
p10
I1
sVdaieepn
p11
I1
sVdhuwxzp
p12
I1
sVd4vsnts
p13
I2
sVdam8x4n
p14
I1
sVd1beus9
p15
I1
sVd1g5gw7
p16
I1
sVdcj8yu5
p17
I1
sVd1v7w4d
p18
I3
sVd0xkhyo
p19
I8
sVd0xid8j
p20
I1
sVd1w7pvc
p21
I1
s.