(dp0
Vd6nky4q
p1
I1
sVdo0p9uf
p2
I1
sVder5i3b
p3
I1
sVdihvqnx
p4
I1
sVdqkq8vf
p5
I1
sVdmm1q8y
p6
I1
sVdhrmpft
p7
I1
sVdkw1mla
p8
I1
sVdii7x1g
p9
I2
sVdq02g1l
p10
I1
sVdqpe4im
p11
I2
sVdkw1yrk
p12
I1
sVd9ausd9
p13
I1
sVdobj2th
p14
I1
sVdiqvxf9
p15
I1
sVd2cfwop
p16
I1
sVcziddgg
p17
I1
sVcyjma5z
p18
I1
sVdco17u3
p19
I2
sVdiimis4
p20
I2
sVdpzynzo
p21
I1
sVd03m6wk
p22
I1
sVd5o1jxo
p23
I1
sVdrza478
p24
I1
sVdg9tm0b
p25
I2
sVdt08jv8
p26
I1
sVd4wys3u
p27
I1
sVd54m629
p28
I1
sVdj9z2qp
p29
I1
sVdp8t76k
p30
I1
sVdjnpo0k
p31
I1
sVdgrzukr
p32
I3
sVd18e719
p33
I1
sVd4ee35r
p34
I1
sVd6wcpz0
p35
I1
sVd5ph2uc
p36
I1
sVdii7gef
p37
I1
sVdii6iks
p38
I1
sVdr5ijga
p39
I2
sVd6om87z
p40
I1
s.