(dp0
Vdf5eo8g
p1
I5
sVd16c2n9
p2
I3
sVd1zvlsk
p3
I1
sVdne7uun
p4
I1
sVdt0facp
p5
I1
sVdh0zubb
p6
I1
sVdczvi2s
p7
I1
sVdgcx2o6
p8
I1
sVdc73isi
p9
I1
sVd3q36tv
p10
I1
sVdggscu0
p11
I1
sVde5szca
p12
I1
sVd9hggdl
p13
I1
sVdc2qqx7
p14
I1
sVd6v5xac
p15
I1
sVdt0u3ww
p16
I1
sVdbk3ht7
p17
I1
sVdgf5eis
p18
I1
sVd7m290r
p19
I1
sVdjttnog
p20
I1
sVdne367r
p21
I1
sVdczs3pg
p22
I1
sVdacqurq
p23
I1
sVd7mfr96
p24
I1
sVd1j1d5m
p25
I1
sVdmj1zix
p26
I1
sVdg8i2ck
p27
I4
sVdczthu9
p28
I1
sVdcljs5s
p29
I1
sVdbsf2s7
p30
I2
sVcz6qp4z
p31
I1
sVczy5apn
p32
I1
sVdsowwd6
p33
I2
sVdibvq18
p34
I1
sVdgvqn4s
p35
I1
sVd95manh
p36
I1
sVdacpro0
p37
I1
sVczr9why
p38
I2
sVdci5m4w
p39
I2
sVczu5h0g
p40
I1
sVde0efzn
p41
I1
sVdsox9nn
p42
I2
sVd16m8c2
p43
I1
sVdakqpz5
p44
I1
sVdibvcfi
p45
I1
sVd0zqnw4
p46
I1
sVdggur6a
p47
I1
sVdsnir6g
p48
I1
sVdh1ujss
p49
I1
sVczzbok6
p50
I3
sVdj4kyn9
p51
I1
sVdnfzbbl
p52
I1
sVdnla0yr
p53
I1
sVdcxz3r6
p54
I1
sVdt0f5a5
p55
I1
sVdc74tbd
p56
I2
sVd4ipi9t
p57
I2
sVdbk1i97
p58
I1
sVdqo4grb
p59
I2
sVdcbjqzh
p60
I1
sVdo2ovqv
p61
I4
sVde7mw3j
p62
I1
sVdgbi2lz
p63
I1
sVdnhs8de
p64
I2
sVdibvv2y
p65
I1
sVd8nz5um
p66
I1
sVd7p9440
p67
I1
sVdt0hvxx
p68
I6
sVd7p3jzg
p69
I1
sVdjc7bp5
p70
I1
s.