(dp0
Vd8oois1
p1
I1
sVdi8vhq1
p2
I1
sVdibiv5r
p3
I1
sVczvuegb
p4
I1
sVdqhpkz8
p5
I1
sVd9p0agy
p6
I1
sVdst2u0a
p7
I1
sVd2zslil
p8
I1
sVdb7h2qt
p9
I1
sVd9p91ml
p10
I1
sVd41ae7x
p11
I1
sVde17ktz
p12
I1
sVczimnwb
p13
I1
sVd3oajso
p14
I1
sVdky6hcz
p15
I1
sVdbg5b72
p16
I1
sVd365sl1
p17
I1
sVdho8dzl
p18
I1
sVd6smxbp
p19
I1
sVdq5skts
p20
I1
sVd07yldr
p21
I1
s.