(dp0
Vd5w7f4l
p1
I1
sVd7ctqx4
p2
I1
sVd59l9rk
p3
I1
sVdklz6q7
p4
I2
sVd627y9w
p5
I1
sVd29rsvz
p6
I1
sVd25kix3
p7
I1
sVdotiqbs
p8
I1
sVczcuszh
p9
I1
sVd159pgz
p10
I4
sVdeaolnq
p11
I1
sVdczps9k
p12
I1
sVcz6uu0v
p13
I1
sVd6eshms
p14
I1
sVdcdftgg
p15
I1
sVcyhu86x
p16
I2
sVdel0qe7
p17
I1
sVczknn00
p18
I1
sVda97a1z
p19
I2
sVdicrib6
p20
I2
sVd8itfem
p21
I1
sVd9kq4pg
p22
I1
sVdcxqw6e
p23
I1
sVdae01mp
p24
I2
sVdkdmv75
p25
I1
sVdg7bcmf
p26
I1
sVdhfpy8g
p27
I2
sVdg9vx00
p28
I1
sVczywf5e
p29
I1
sVdjj4pq4
p30
I1
sVd6poe4r
p31
I1
sVd35vt7z
p32
I1
sVdb92lwh
p33
I1
sVdft5fe6
p34
I1
sVdk0tt7t
p35
I1
sVdt0wahu
p36
I1
sVdq9san0
p37
I2
sVdt7obff
p38
I1
sVdcakcic
p39
I1
sVd34abpj
p40
I1
sVdqee0jg
p41
I1
sVdbqi2b6
p42
I1
sVdilmksc
p43
I1
sVdoxied1
p44
I1
sVd0eeq1a
p45
I2
s.