(dp0
Vdbx8m1c
p1
I1
sVd2zl3ss
p2
I1
sVdhao0uc
p3
I1
sVdbjj2dc
p4
I1
sVd0rlqln
p5
I1
sVdheufe0
p6
I1
sVdhylt0y
p7
I5
sVdmsctm0
p8
I1
sVdswbbz7
p9
I1
sVdpsu5s9
p10
I1
sVd90g36k
p11
I1
sVd6ajai9
p12
I8
sVdn11enk
p13
I4
sVdedtzws
p14
I1
sVde9gi3i
p15
I1
sVd10yo4r
p16
I2
sVd296mgi
p17
I1
sVdeu4hgf
p18
I1
sVd2h5k02
p19
I2
sVdkih1av
p20
I2
sVdepzu64
p21
I1
sVdex3h8x
p22
I1
sVde9q2l9
p23
I1
sVdf0g02d
p24
I1
sVdsw776a
p25
I1
sVd1az7kx
p26
I1
sVdmsbspe
p27
I1
s.