(dp0
Vd06ssyf
p1
I1
s.(dp0
Vd6ux7og
p1
I1
sVd06ssyf
p2
I1
s.(dp0
Vd06ssyf
p1
I1
sVd6yk5pw
p2
I1
s.(dp0
Vd06ssyf
p1
I1
sVd6yk5pw
p2
I1
s.(dp0
Vd863m2m
p1
I1
sVd06ssyf
p2
I1
s.(dp0
Vd9ramog
p1
I1
sVd06ssyf
p2
I1
s.(dp0
Vda2wu8b
p1
I1
sVd06ssyf
p2
I1
s.(dp0
Vdjns4ue
p1
I1
sVd06ssyf
p2
I1
s.(dp0
Vdjoaw2x
p1
I1
sVd06ssyf
p2
I1
s.