(dp0
Vdfnedc5
p1
I1
sVdh30k42
p2
I1
sVd1311ow
p3
I1
sVd31sky6
p4
I1
sVd6whvge
p5
I1
sVd2k49w4
p6
I1
sVdhnb1vo
p7
I1
sVd2y74tq
p8
I1
sVcz2rrz9
p9
I1
sVdr6po47
p10
I1
sVdg6hy2j
p11
I1
sVdj03pe0
p12
I1
sVd5tgthl
p13
I1
sVdecdcbx
p14
I1
sVczfhyui
p15
I1
sVda7hl0o
p16
I1
sVd7e9lcs
p17
I1
s.