(dp0
Vd0qu94w
p1
I1
sVdski9tw
p2
I1
sVcysyj2v
p3
I1
sVcyszkmq
p4
I2
sVd4v0eqm
p5
I1
sVdjg5ci6
p6
I1
sVdce6i9z
p7
I1
sVda97v4q
p8
I1
sVcyicqem
p9
I1
sVd36ih7q
p10
I1
sVcywwczm
p11
I1
sVdiwegi9
p12
I1
sVdh3aeq8
p13
I1
sVda0c23g
p14
I2
sVd8y8j1i
p15
I1
sVdpwa5qy
p16
I1
sVda9659s
p17
I1
sVdbq3bkl
p18
I1
sVda7lkro
p19
I1
s.