(dp0
Vdelaf8e
p1
I1
sVdjnvuku
p2
I1
sVd0568r7
p3
I1
sVdj67rbv
p4
I1
sVdqf9bri
p5
I1
sVcznjj28
p6
I1
sVdikc0b3
p7
I1
sVd8z0cet
p8
I1
sVcyy3jh3
p9
I1
sVdcfr54g
p10
I1
sVd7q0hwi
p11
I1
sVd8vsb7y
p12
I2
sVdfelf23
p13
I1
sVdkwq07u
p14
I1
sVdksz4we
p15
I1
sVdeq1cqj
p16
I2
sVdadoxk2
p17
I1
sVdicciqv
p18
I1
sVdrt4ys6
p19
I1
s.