(dp0
Vdhaevbw
p1
I2
sVdmr605r
p2
I1
sVdb7l65v
p3
I2
sVd8eobzb
p4
I2
sVd82ia3p
p5
I1
sVdjmf5b4
p6
I1
sVd73b4wu
p7
I1
sVd74jlup
p8
I1
sVdfajv4f
p9
I1
sVd1iyh9n
p10
I1
sVczplds8
p11
I1
sVd0l7eb7
p12
I1
sVddz4tvx
p13
I1
sVdoh9jnq
p14
I1
sVdgskl0w
p15
I1
sVd4flc2p
p16
I1
sVcyi7ncu
p17
I1
sVd3q35xh
p18
I1
sVd1bfen5
p19
I1
sVdri5fdt
p20
I1
sVdnxjq4q
p21
I1
sVdahsuep
p22
I1
sVd669257
p23
I2
sVczlchgm
p24
I1
sVd83rdxd
p25
I2
sVdh1bzn9
p26
I1
sVdjeeu8m
p27
I1
sVd668zsb
p28
I1
sVczkxzph
p29
I1
sVdonika6
p30
I1
sVdmrauwq
p31
I1
sVd3s87an
p32
I1
sVdk7dxeh
p33
I1
sVdmfiqmx
p34
I1
sVdd1yji5
p35
I1
sVdrk0pyj
p36
I1
sVdrs5xxx
p37
I1
s.