(dp0
Vd5gh9xj
p1
I1
sVd2x4kmh
p2
I1
sVd8uqec4
p3
I1
sVdqryj55
p4
I1
sVdob4pk7
p5
I1
sVd38c76c
p6
I1
sVdqg0rb2
p7
I1
sVde4qs5l
p8
I1
sVd249i5e
p9
I1
sVcyskz0d
p10
I1
sVdooczao
p11
I1
sVddt73u4
p12
I1
sVd4iw8fm
p13
I1
sVd5xwdrz
p14
I1
sVdrd840d
p15
I1
sVd6ge6me
p16
I1
sVdad85ke
p17
I1
sVd27x9eg
p18
I1
sVd0sfkea
p19
I1
sVdpd00wf
p20
I1
sVcym21hr
p21
I1
sVd2oj2wr
p22
I1
sVdcimiwa
p23
I1
sVdj0kgob
p24
I1
sVdgismpr
p25
I1
sVd0aaven
p26
I1
sVd1ec08s
p27
I1
sVdnt8p5z
p28
I1
sVd484e4g
p29
I1
sVd7wvvdw
p30
I1
sVd9ume0d
p31
I1
sVd44r0zb
p32
I3
sVd1hc8xn
p33
I1
sVda8nfdy
p34
I1
sVczl3xgf
p35
I1
sVdaij363
p36
I1
sVcyn1zvn
p37
I1
sVdgj7no9
p38
I1
sVd4sv28a
p39
I1
sVd2etb92
p40
I1
sVdmmd4iz
p41
I1
sVd48motv
p42
I1
sVdknqcp9
p43
I1
sVd65fzqk
p44
I1
sVdmq48i7
p45
I1
sVd2podrm
p46
I1
sVdfk8q6x
p47
I1
sVdhny9dp
p48
I1
sVdjzac2s
p49
I1
sVdila3c9
p50
I1
sVdael0m6
p51
I1
sVdooyyk5
p52
I1
sVd2gtueo
p53
I1
sVdbspbld
p54
I1
sVd1rbrt8
p55
I1
sVd08oaph
p56
I1
sVde2q35q
p57
I1
sVd9qkf5h
p58
I1
sVdcy6og9
p59
I1
sVdmtbph4
p60
I1
sVda419xp
p61
I1
sVd6p2xlr
p62
I1
sVdh536pq
p63
I1
sVdkyx8r9
p64
I1
sVd8ezmyd
p65
I1
sVdg8i7nw
p66
I1
sVd9gghqp
p67
I1
sVddqw5h8
p68
I1
sVd6o07vn
p69
I1
sVda8kqqo
p70
I1
sVd03cxgm
p71
I1
sVdggthc2
p72
I1
sVd45bq4i
p73
I1
sVda8hy2r
p74
I1
sVcz4ar6s
p75
I1
sVdf63qfl
p76
I1
sVcz703m1
p77
I1
sVds5bmj5
p78
I1
sVdcwudu3
p79
I1
sVd5y7d1k
p80
I1
sVd8xo8c3
p81
I1
sVdge3cw5
p82
I1
sVd0b3kt5
p83
I1
sVd0ra693
p84
I1
sVdnhibjo
p85
I1
sVdgy5hko
p86
I2
sVcz27rjb
p87
I1
sVdgg4umb
p88
I1
sVczhog8k
p89
I1
sVd8ln1fb
p90
I1
sVdanfkuu
p91
I1
sVdgmnqza
p92
I1
sVdevmqa5
p93
I1
sVdn05ieq
p94
I2
sVd6thehv
p95
I1
sVdgneiho
p96
I1
sVdpmq8qe
p97
I1
sVd94s07r
p98
I1
sVd7ffw3s
p99
I1
sVd59b65z
p100
I1
sVd0sgus7
p101
I1
sVdohbkyd
p102
I1
sVd3qaqhp
p103
I1
sVdazo8l1
p104
I1
sVdk7fvy2
p105
I1
sVcyz10rm
p106
I1
sVdkazicw
p107
I1
sVdbpyjzs
p108
I1
sVd0i4nmg
p109
I1
sVcykduwu
p110
I1
sVdp7nnhf
p111
I1
sVdsda712
p112
I1
sVds7l7aa
p113
I1
sVdmrw9bb
p114
I1
sVdfk0sp7
p115
I1
sVdfyz89d
p116
I1
sVdmu9tia
p117
I1
sVddxnu45
p118
I1
sVd5kxmww
p119
I1
sVdgniowi
p120
I1
sVdkeoqbo
p121
I1
sVdsr89nh
p122
I1
sVdeu1qiv
p123
I1
sVd7rz4oa
p124
I1
sVdkn7yx1
p125
I1
sVd116cnn
p126
I1
sVdi486qg
p127
I1
sVczgpd3s
p128
I1
sVdgf24e1
p129
I1
sVd9et6s0
p130
I1
sVd4iephj
p131
I1
sVd8xcm28
p132
I1
sVczfwwfz
p133
I1
sVdc0irxk
p134
I1
sVd0nxu1v
p135
I1
sVdetwqbw
p136
I1
sVd2u9ruj
p137
I1
sVdgmedl4
p138
I1
sVdio5kp1
p139
I1
sVd9bs7cr
p140
I1
sVdakdomr
p141
I1
sVd7uo9f3
p142
I1
sVdai3qge
p143
I1
sVdnau4cg
p144
I1
sVd8qbs0b
p145
I1
sVdqma4wa
p146
I1
sVdg58z1q
p147
I1
sVd747a46
p148
I1
sVd59udul
p149
I1
sVd3zlhnw
p150
I1
sVdmqbf6o
p151
I1
sVdaioi3e
p152
I1
sVd3uyzwq
p153
I1
sVd6gmgf8
p154
I1
sVd4hze10
p155
I1
sVda3vykt
p156
I1
sVcyihf2p
p157
I1
sVd8itpkd
p158
I1
sVda7jndn
p159
I1
sVdknu13e
p160
I1
sVdi33270
p161
I2
sVd69kxr9
p162
I1
sVd4h4iwk
p163
I1
sVczevsun
p164
I1
sVdbcxbxe
p165
I1
sVcz5r944
p166
I1
sVd1jny6g
p167
I1
sVdo7v5b5
p168
I1
sVdi1f61i
p169
I1
sVd2q5ia8
p170
I1
sVdcpnxk7
p171
I1
sVczc4bhd
p172
I2
sVdr0pece
p173
I1
sVdkwq07u
p174
I1
sVd65otsa
p175
I1
sVddhgkz8
p176
I1
sVcyqpqwr
p177
I1
sVddmdnj0
p178
I1
sVdfkaosp
p179
I1
sVda0vrjk
p180
I1
sVddwwh1x
p181
I1
sVd37alzk
p182
I1
sVcypydc5
p183
I1
sVdd5a2gk
p184
I1
sVdtftdk9
p185
I1
sVdkqod21
p186
I1
sVdk858km
p187
I1
sVdr783xp
p188
I1
sVcyqt4km
p189
I2
sVdas944q
p190
I1
sVd6tshzw
p191
I1
sVd0r2fqg
p192
I1
sVd062rpf
p193
I1
sVdbqziy4
p194
I1
sVd2wj452
p195
I1
sVdcxvbak
p196
I1
sVd9zmo64
p197
I1
sVd31o7sj
p198
I1
sVd027tks
p199
I1
sVd7nx8j5
p200
I1
sVdnz6qch
p201
I1
sVd48hy0p
p202
I1
sVcyqo9st
p203
I1
sVdhrm246
p204
I1
sVdphhf5j
p205
I1
sVddevsn8
p206
I1
sVd258oij
p207
I1
sVcyhv6tp
p208
I1
sVd8o9g8h
p209
I1
sVd3rzgn6
p210
I1
sVdt2k68t
p211
I1
sVd2snlju
p212
I1
sVdcwicjr
p213
I1
sVd8x31wq
p214
I1
sVdjk05ar
p215
I1
sVdgqw99d
p216
I1
sVd0f64nd
p217
I1
sVcykbtg1
p218
I1
sVdso5f5v
p219
I1
sVdf9bk5c
p220
I1
sVd37kyvq
p221
I1
sVd04n7nc
p222
I1
sVdc4hsin
p223
I1
sVd9opx8j
p224
I1
sVd3ct33p
p225
I1
sVdmpbps5
p226
I1
sVd1gwlgg
p227
I1
sVd57rv6o
p228
I1
sVddwrmfm
p229
I1
sVd02g8fb
p230
I1
sVdjk2sin
p231
I1
sVdpee682
p232
I1
sVd8nnuzr
p233
I1
sVdexmpvo
p234
I1
sVdjpsyaq
p235
I1
sVdmg67i1
p236
I1
sVd8qcjzn
p237
I1
sVdt2ftyw
p238
I1
sVd6i0t1y
p239
I1
sVdcx2emq
p240
I1
sVczi463h
p241
I1
sVcypufvi
p242
I1
sVd2r7t8d
p243
I1
sVd0rav3a
p244
I1
sVd0ios6m
p245
I1
sVdd3xfkc
p246
I1
sVdf1k13h
p247
I1
sVde10xze
p248
I1
sVdj3iuy4
p249
I1
sVdfehewx
p250
I1
sVd5lza02
p251
I1
sVdb9xgy2
p252
I1
sVcytaekk
p253
I1
sVd6q1bsj
p254
I1
sVdkc7yc9
p255
I1
sVd10lvdl
p256
I1
sVd6wjegk
p257
I1
sVd86485f
p258
I1
sVdnydk7l
p259
I1
sVdbwatx3
p260
I2
sVdcryos7
p261
I1
sVdjqjfi4
p262
I1
sVdaa8szp
p263
I1
sVd4a9xbm
p264
I1
sVczar3yi
p265
I1
sVdkii3vl
p266
I1
sVdd76d9s
p267
I1
sVd0slpka
p268
I1
sVd2upwu1
p269
I1
sVdct2806
p270
I1
sVdeiga1u
p271
I1
sVdfpg5el
p272
I1
sVdaokwzy
p273
I1
sVd0yhfrq
p274
I1
sVd9xd658
p275
I1
sVdcfvg06
p276
I1
sVd72pxtu
p277
I1
sVd79xyg6
p278
I1
sVd832ln9
p279
I1
sVdettdz6
p280
I1
sVd4122nr
p281
I1
sVdcw4xvg
p282
I1
sVd5ex2ko
p283
I1
sVdmh8hxj
p284
I2
sVdq4376o
p285
I1
sVdp2cqgk
p286
I1
sVdbr9bji
p287
I1
sVd3tqljt
p288
I1
sVdru7f98
p289
I1
sVcyxt4tb
p290
I1
sVdd1j3d0
p291
I1
sVd9x355l
p292
I1
sVcz0eu8v
p293
I3
sVd73dqvq
p294
I1
sVdgmuivl
p295
I1
sVd4ko0ks
p296
I1
sVdraps5n
p297
I1
sVdruk3kw
p298
I1
sVczewys7
p299
I1
sVd0npwey
p300
I1
sVd0ptn0e
p301
I1
sVd14kqum
p302
I1
sVdo0ib7o
p303
I1
sVd2ix59h
p304
I1
sVd1znkn8
p305
I1
sVdc7toq0
p306
I1
sVdsf6va9
p307
I1
sVd10gbz3
p308
I1
sVdfsyc18
p309
I4
sVdcg6s8d
p310
I1
sVdhs9jij
p311
I1
sVd6hey3x
p312
I1
sVdetqods
p313
I1
sVdii6h7z
p314
I2
sVdb8ood2
p315
I1
sVczu9ry4
p316
I1
sVdg1corz
p317
I1
sVddm48pb
p318
I1
sVd5tv1wg
p319
I1
sVd4gjifx
p320
I1
sVd0vzecn
p321
I1
sVd36njkg
p322
I1
sVddytskc
p323
I1
sVdd6rgnr
p324
I1
sVdhy2d6p
p325
I1
sVdbwptf4
p326
I1
sVczpf8up
p327
I1
s.