(dp0
Vdh0aue1
p1
I1
sVdglzzxs
p2
I1
sVdf9847a
p3
I1
sVdck7qao
p4
I1
sVd5o160b
p5
I1
sVdejftma
p6
I1
sVcz6ucr5
p7
I1
sVdhw7n1q
p8
I1
sVd9kfeov
p9
I1
sVd75us81
p10
I1
sVdi40tts
p11
I1
sVd2762me
p12
I1
sVdqkf2s1
p13
I1
sVd1c8h7z
p14
I1
sVcztrith
p15
I1
sVcysu9w8
p16
I1
sVdjwqzuh
p17
I1
sVdenvigf
p18
I1
sVdboohpj
p19
I1
sVdfoo4e3
p20
I1
sVd7qhsp1
p21
I1
sVd2h7yci
p22
I1
sVd5p6io8
p23
I1
sVd3oviws
p24
I1
sVdrmphwk
p25
I1
sVdkgu6vy
p26
I1
sVd9zwn7k
p27
I1
sVd5oq6vw
p28
I1
sVdomn3al
p29
I1
sVdbada5o
p30
I1
sVd9bbv01
p31
I1
sVddjswk7
p32
I1
sVcyvobd2
p33
I1
sVdqgnq8g
p34
I1
sVdjgs7m7
p35
I1
sVd5ly3wa
p36
I1
sVd8zdusm
p37
I1
sVdk7pnju
p38
I1
sVdpneptm
p39
I1
sVcz9h5ld
p40
I1
sVdk1drqb
p41
I1
sVd84l4wf
p42
I1
sVdfwup00
p43
I1
sVd3ea69s
p44
I2
sVde7f3mc
p45
I1
sVd1jdje0
p46
I1
sVd1iensn
p47
I1
sVdjb33w6
p48
I1
sVdby2gws
p49
I1
sVd10x8e1
p50
I1
sVdk3w6nm
p51
I1
sVddyavcx
p52
I1
sVd0mg44c
p53
I1
sVcyuawuj
p54
I1
sVd9zmv0k
p55
I1
sVdi33270
p56
I1
sVcyk7z7x
p57
I1
sVdn8mv7y
p58
I1
sVdjohr3h
p59
I1
sVd7x4ssh
p60
I1
sVdk6emsj
p61
I1
sVdav0fkb
p62
I1
sVdqkq8vf
p63
I1
sVd9ex9ku
p64
I1
sVd77vb7j
p65
I1
sVd1zmnk5
p66
I1
sVdmhzy6h
p67
I1
sVdd5jp86
p68
I1
sVdgvivyb
p69
I1
sVdgqv5jv
p70
I2
sVd41zhbp
p71
I1
sVdc23jc2
p72
I1
sVdf1wvtq
p73
I1
sVd7bn86a
p74
I1
sVdn2e0re
p75
I1
sVd09ktq0
p76
I1
sVd4iyeew
p77
I1
sVd4pcuap
p78
I1
sVddq78g8
p79
I1
sVd6mba5n
p80
I1
sVdq5ldc5
p81
I1
sVdgfslg3
p82
I1
sVdc91tgt
p83
I1
sVd22b21d
p84
I2
sVdc7fqo5
p85
I1
sVdhjt6ir
p86
I1
sVdmo94xj
p87
I1
sVdju0fi1
p88
I1
sVdcyqa1j
p89
I1
sVdffebgz
p90
I1
sVddbekc6
p91
I1
sVd0y5wrg
p92
I1
sVdad4dic
p93
I1
sVd1xajbj
p94
I1
sVdoj400j
p95
I1
sVczo0vi7
p96
I1
sVdax3ofn
p97
I1
sVczyxszu
p98
I1
s.