(dp0
Vcyizlsu
p1
I1
s.(dp0
Vcyizlsu
p1
I1
sVcynfluc
p2
I1
s.(dp0
Vcyizlsu
p1
I1
sVd17p5eg
p2
I1
s.(dp0
Vcyizlsu
p1
I1
sVd27sfvh
p2
I1
s.(dp0
Vcyizlsu
p1
I1
sVd3hwhiv
p2
I1
s.(dp0
Vcyizlsu
p1
I1
sVd3js959
p2
I1
s.(dp0
Vcyizlsu
p1
I1
sVd3lkthi
p2
I1
s.(dp0
Vcyizlsu
p1
I1
sVd66x0wd
p2
I1
s.(dp0
Vcyizlsu
p1
I1
sVdc61pr6
p2
I1
s.(dp0
Vcyizlsu
p1
I1
sVdc64qjt
p2
I1
s.(dp0
Vcyizlsu
p1
I1
sVdd6b7xk
p2
I1
s.(dp0
Vcyizlsu
p1
I1
sVdenz32p
p2
I1
s.(dp0
Vcyizlsu
p1
I1
sVdh1r2r3
p2
I1
s.(dp0
Vcyizlsu
p1
I1
sVdh1to51
p2
I1
s.(dp0
Vcyizlsu
p1
I1
sVdkviu6v
p2
I1
s.(dp0
Vcyizlsu
p1
I1
sVdn5rnpd
p2
I1
s.(dp0
Vcyizlsu
p1
I1
sVdp1fg3b
p2
I1
s.(dp0
Vcyizlsu
p1
I1
sVdp1fhd5
p2
I1
s.