(dp0
Vdkoyqxj
p1
I1
sVdqflkjx
p2
I1
sVde5jy40
p3
I1
sVda2w3au
p4
I1
sVde893cl
p5
I1
sVdados4x
p6
I1
sVd9wky1h
p7
I1
sVd139u8n
p8
I1
sVcz1ztoi
p9
I1
sVdd9qils
p10
I3
sVdbwnqt9
p11
I1
sVdc5dvb1
p12
I1
sVdrf31es
p13
I1
sVd5i9y0b
p14
I1
sVd25unfm
p15
I1
sVd59w3yk
p16
I1
sVczl3xgf
p17
I1
sVdfoys11
p18
I1
sVd8fhpud
p19
I1
sVdhe8sjp
p20
I1
sVdsud0sf
p21
I2
sVddycew1
p22
I1
sVdb57je3
p23
I1
sVd01aoex
p24
I1
sVdbyuamb
p25
I1
sVdbnsxtp
p26
I2
sVcz9gop5
p27
I1
sVd8suw6i
p28
I1
sVdj6gtpx
p29
I1
sVdej7m12
p30
I1
sVcyzmjop
p31
I1
sVdb6fw7l
p32
I1
sVczwcyir
p33
I1
sVdn8x4rq
p34
I1
sVd2z8963
p35
I1
sVdc4af4o
p36
I1
sVd97wc6m
p37
I1
sVd55hzwa
p38
I1
sVd3fselh
p39
I1
sVdijro2k
p40
I1
sVd5i0zu3
p41
I1
sVd541kks
p42
I1
sVddcjlex
p43
I1
sVdb6lo8m
p44
I1
sVdc9c3b4
p45
I1
sVd2zevj5
p46
I1
sVd83p3m7
p47
I1
sVdr10kwn
p48
I1
sVda5jivq
p49
I1
sVd6nk8yx
p50
I1
sVdfitci4
p51
I1
sVd1vphho
p52
I1
sVdpcyo7b
p53
I1
sVdi6bhmg
p54
I1
sVd6enhju
p55
I1
sVd8cglg1
p56
I1
sVd7ctqx4
p57
I1
sVd627gng
p58
I1
sVczylfid
p59
I1
sVdha8un5
p60
I1
sVddudtt6
p61
I1
sVdnww4nj
p62
I1
sVd29fyq4
p63
I1
sVdi85w6v
p64
I1
sVd1nv9p0
p65
I1
sVd90nny8
p66
I1
sVd5trhhn
p67
I1
sVd79xph2
p68
I1
sVddcbt3e
p69
I1
sVdn4ajfy
p70
I1
sVdgng8kn
p71
I1
sVdct73ss
p72
I1
sVd8o9lww
p73
I1
sVdqzoboc
p74
I1
sVdi0c0vp
p75
I1
sVd5cyfo4
p76
I2
sVd5bxm7b
p77
I1
sVd4ms7h2
p78
I1
sVd57rn1q
p79
I1
sVdqs5ih2
p80
I1
sVdmn4mrp
p81
I1
sVdh4mrn3
p82
I1
sVcyz6qfs
p83
I2
sVdeaoqj7
p84
I1
sVczv1dv2
p85
I1
sVd7zaw2i
p86
I2
sVd1n6wml
p87
I1
sVdbwst39
p88
I1
sVd5h71fb
p89
I1
sVd0yryfj
p90
I1
sVdhzztdc
p91
I1
sVd2koktf
p92
I1
sVdfiir99
p93
I1
sVdprj3jw
p94
I1
sVd70mjt9
p95
I1
sVd3dvifw
p96
I1
sVd3tpntj
p97
I1
sVcz37vn4
p98
I1
sVdk6lwhw
p99
I1
sVdsued0x
p100
I1
sVd9gsfpm
p101
I1
sVd5363c9
p102
I1
sVd6yk5pw
p103
I1
sVczw501g
p104
I1
sVd18ikk9
p105
I1
sVdak7zt9
p106
I1
sVdn3vayn
p107
I1
sVd1wgtnn
p108
I1
sVd0dyxw2
p109
I1
sVd1w1qq0
p110
I1
sVdmxocqx
p111
I1
sVd789djv
p112
I1
sVczb0d7y
p113
I1
sVdnnx8hh
p114
I1
sVdanafny
p115
I1
sVdg5uuug
p116
I1
sVdegubsh
p117
I1
sVdg78zkb
p118
I1
sVd3iwtjy
p119
I1
sVdfos098
p120
I1
sVd8xrj6p
p121
I1
sVd7l6dr9
p122
I1
sVdbciwfd
p123
I1
sVd5aozwl
p124
I1
sVdoj7efe
p125
I1
sVd3sygl0
p126
I1
sVdkda6c9
p127
I1
sVde6shr5
p128
I1
sVd7n3kn9
p129
I1
sVd2n2q4r
p130
I1
sVd3jq3ge
p131
I1
sVd3amrfc
p132
I1
sVczek9za
p133
I1
sVd0llueh
p134
I1
sVdb1y98z
p135
I1
sVd4u924x
p136
I1
sVdj2rd2i
p137
I1
sVd3dr7wv
p138
I1
sVds6vsxg
p139
I1
sVdadlqm5
p140
I1
sVd2i8okv
p141
I1
sVdcqv8sa
p142
I1
sVd5nodd6
p143
I1
sVdg5uwsr
p144
I1
sVcyicce8
p145
I1
sVd3e4957
p146
I1
sVd8m5m7p
p147
I1
sVdisymso
p148
I1
sVd7cn5ir
p149
I1
sVcyuzcrf
p150
I1
sVdko4sn8
p151
I1
sVdap6zms
p152
I1
sVdg5kt14
p153
I1
sVd0d71ih
p154
I1
sVdrzoolq
p155
I1
sVdpae8j6
p156
I1
sVdhek8y3
p157
I1
sVd28ag09
p158
I1
sVd4033vz
p159
I1
sVdbk0s3p
p160
I1
sVd9p6wce
p161
I1
sVdeimdry
p162
I1
sVcym00k5
p163
I1
sVdck2jfj
p164
I1
sVdap72dz
p165
I1
sVdkemfyh
p166
I1
sVd7fzirg
p167
I1
sVdg5tcgh
p168
I1
sVd1ivz41
p169
I1
sVdtdsg5c
p170
I1
sVdajglbt
p171
I1
sVdcfc17w
p172
I1
sVd8t10wr
p173
I1
sVda7sezs
p174
I1
sVdiekb7h
p175
I1
sVdi7is4x
p176
I1
sVcyyhhle
p177
I1
sVd542hba
p178
I1
sVdbpkn9x
p179
I1
sVd4ipi9t
p180
I1
sVdo94mv3
p181
I1
sVdhbn955
p182
I1
sVdbeavt8
p183
I1
sVdb9sd9u
p184
I1
sVdergn84
p185
I1
sVd54svom
p186
I1
sVdfxxbig
p187
I1
sVdn39f3s
p188
I1
sVdmm4tot
p189
I1
sVd57qjld
p190
I1
sVd26svz0
p191
I1
s.