(dp0
Vd17r1i3
p1
I1
sVdrogq6q
p2
I1
sVddhveeo
p3
I1
sVdcwpno7
p4
I1
sVd79tdbm
p5
I1
sVcymsesq
p6
I1
sVd2fpoev
p7
I1
sVcz7yrk8
p8
I1
sVd3xl4k5
p9
I1
sVdco93hh
p10
I1
sVdgzod8i
p11
I1
sVd1ee6ya
p12
I1
sVd7m9se7
p13
I1
sVd2a84g3
p14
I1
sVddqs4b9
p15
I2
sVdby1n2f
p16
I2
sVdcg8tug
p17
I2
sVd3ipzf6
p18
I1
sVd4bpchy
p19
I1
sVd5b1bld
p20
I1
sVd9ivzqa
p21
I1
sVd4bsn94
p22
I3
sVdja8h3t
p23
I1
sVdd8vont
p24
I1
sVd20ul2s
p25
I1
sVd4bsh9u
p26
I1
sVd5qyibz
p27
I1
sVdrbpynf
p28
I1
sVdi8ws9a
p29
I1
sVd1yfhkl
p30
I1
sVdhbxlyj
p31
I1
sVdsxz98w
p32
I1
sVd0nt6lg
p33
I1
sVd3bhygh
p34
I1
sVdprkkw8
p35
I2
sVdafvbsp
p36
I1
sVcz8or2q
p37
I1
sVd37jb3w
p38
I1
sVdgyc3vu
p39
I5
sVd168ip6
p40
I1
sVdnvbprf
p41
I1
sVddlkomx
p42
I1
sVdhor64o
p43
I1
sVd2qdpn0
p44
I1
sVdegczb5
p45
I1
sVd662h36
p46
I1
sVds2gngu
p47
I1
sVdhx3xxg
p48
I1
sVddd54t5
p49
I1
sVczjjn8w
p50
I1
sVdfy0np5
p51
I1
sVdcdwi87
p52
I1
sVd5j8p0q
p53
I1
sVd0f6ego
p54
I1
sVdhjmc6q
p55
I1
sVd03tsp4
p56
I1
sVdpmpql6
p57
I1
sVds57kqu
p58
I1
sVd04899g
p59
I1
sVd00trd8
p60
I1
sVd5nc7ah
p61
I1
sVdd3mwlp
p62
I1
sVd0ipizj
p63
I1
sVdb0owb0
p64
I1
sVdettjv6
p65
I1
sVdcarcij
p66
I1
sVd3vdca0
p67
I1
sVdrluwcl
p68
I1
sVdfd318b
p69
I1
sVdbyfdx4
p70
I1
sVd6kwnvu
p71
I1
sVd5c2xii
p72
I1
sVd0v4pzz
p73
I1
sVd7c8d0a
p74
I1
sVdgundri
p75
I1
sVdkas2q7
p76
I1
sVdgw08r8
p77
I1
sVdh4vof3
p78
I1
sVczoqaos
p79
I2
sVdfiycy6
p80
I1
sVdppsiov
p81
I1
sVd4uncp8
p82
I1
sVd291n0l
p83
I2
sVdqwl3vm
p84
I1
sVcz7j34w
p85
I1
sVd97uzux
p86
I1
sVd1nowr3
p87
I2
sVdf64h19
p88
I1
sVd00ks9a
p89
I1
sVd8o92nx
p90
I1
sVdi7o2av
p91
I1
sVd9bl4l9
p92
I1
sVd4fwx00
p93
I1
sVddmh68j
p94
I1
sVdpo5jxv
p95
I1
sVd2zrgsv
p96
I1
sVd3cquj7
p97
I1
sVd5ip1rq
p98
I1
sVd5ekzbv
p99
I1
sVd9zb9yp
p100
I1
sVdjpyw4l
p101
I1
sVd63y1rn
p102
I1
sVdejhfde
p103
I1
sVdr9ux81
p104
I1
sVd6h7gsi
p105
I1
sVd34v4kc
p106
I1
sVde0eyqx
p107
I1
sVdaru3pz
p108
I1
sVd71sm0z
p109
I1
sVdsekbu9
p110
I1
sVd26t6iq
p111
I1
sVdnt29h1
p112
I1
sVd0abbi0
p113
I1
sVdkeb1w7
p114
I1
sVd1z54yc
p115
I1
sVdg1qudh
p116
I1
sVdjpxhsh
p117
I1
sVd0tonvy
p118
I1
sVdaia3d6
p119
I1
sVdfnh3nj
p120
I1
sVdar2oqo
p121
I1
sVdf5j56a
p122
I1
sVdpeorsx
p123
I1
sVdhje72v
p124
I1
sVczc72sj
p125
I1
sVczg40kh
p126
I1
sVdbpgu7t
p127
I1
sVdox9992
p128
I1
sVd2tnnmt
p129
I1
sVdsjfa94
p130
I3
sVdh2dmbg
p131
I2
sVdi2dx0c
p132
I2
sVdgvm8ua
p133
I1
sVd7tn429
p134
I1
sVdrlap6m
p135
I2
sVdnkckn2
p136
I1
sVdepr7us
p137
I1
sVdn4fp4p
p138
I1
sVd6y3n3r
p139
I1
sVd2xja9q
p140
I1
sVdr6umzb
p141
I2
sVd1h49gd
p142
I1
sVdcosngz
p143
I1
sVdf3g0fg
p144
I1
sVdk80p68
p145
I1
sVd03q6mh
p146
I1
sVdeutkeo
p147
I1
sVdqmdem4
p148
I1
sVdruojkx
p149
I1
sVd5nqy2y
p150
I1
sVdfx977h
p151
I1
sVcz06e0t
p152
I1
sVdi0nca8
p153
I1
sVd8q5g5o
p154
I1
sVdoabdk1
p155
I1
sVd6d0e82
p156
I1
sVdfj8hs6
p157
I1
sVde8qfhy
p158
I1
sVd8gy953
p159
I2
sVdbq6qv0
p160
I1
sVdjajmpe
p161
I3
sVd4hobg1
p162
I1
sVd28dbf0
p163
I1
sVd1kw03e
p164
I1
sVd5k40m7
p165
I1
sVd1wo9kl
p166
I1
sVdb22cul
p167
I1
sVdbrj36l
p168
I1
sVdp10k46
p169
I1
sVd6wt6lx
p170
I1
sVdgaftpc
p171
I1
sVdmmapn4
p172
I1
sVd5d5izj
p173
I1
sVd0nq1cx
p174
I1
sVdg6aa3n
p175
I1
sVd5oxvvi
p176
I1
sVdayuc7k
p177
I1
sVdcxx223
p178
I1
sVd5a4s3y
p179
I1
sVd1kci40
p180
I1
sVdgtegqq
p181
I1
sVd6qk8fu
p182
I2
sVd99sbw5
p183
I1
sVdrri6o2
p184
I1
sVdd5fzlw
p185
I2
sVcys55td
p186
I1
sVdkny1nq
p187
I1
sVda2f5vh
p188
I1
sVd4hmahx
p189
I1
sVds3kx4z
p190
I1
sVdpo31nr
p191
I1
sVd15lij2
p192
I1
sVdsvozh6
p193
I1
sVdkavg2p
p194
I1
sVdbza9yl
p195
I1
sVd7mwrzy
p196
I1
sVd570k1j
p197
I1
sVdkm0eqi
p198
I1
sVdcwq4hx
p199
I1
sVcz6mgng
p200
I1
sVdj626qp
p201
I1
sVd5t5ut2
p202
I1
sVczt8ixv
p203
I1
sVd8htqy1
p204
I2
sVdc72pxj
p205
I1
sVd0r6ui3
p206
I1
sVdo25057
p207
I1
sVd2lw9bc
p208
I1
sVd18c761
p209
I1
sVdp0ktzv
p210
I1
sVdd8v3fe
p211
I1
sVd582ewi
p212
I2
sVd9pdy55
p213
I1
sVde5zg76
p214
I1
sVdn6lubi
p215
I1
sVd42kx6t
p216
I1
sVd1j72io
p217
I1
sVd6wrfxb
p218
I1
sVdbls685
p219
I1
sVdpy2rki
p220
I1
sVdd8xuvh
p221
I1
sVdg0qz5j
p222
I1
sVdfmtaig
p223
I1
sVdfpwfmi
p224
I1
sVdixjzk2
p225
I1
sVd16hyts
p226
I1
sVd65dhcq
p227
I1
sVdifj6yc
p228
I1
sVd1e8lya
p229
I1
sVdej8u6q
p230
I1
sVd03136o
p231
I1
sVd1acsx1
p232
I1
sVd1nz0s9
p233
I8
sVcz8w0g2
p234
I1
sVdgijptu
p235
I1
sVda80s1a
p236
I1
sVczz3anl
p237
I1
sVdpsa5rz
p238
I1
sVd6ko5qb
p239
I1
sVd3yjt0t
p240
I1
sVcysgq9f
p241
I1
sVdmo94xj
p242
I2
sVd7a1bba
p243
I1
sVd82ajlf
p244
I3
sVdf8r0v9
p245
I2
sVdflrlh2
p246
I1
sVdb8mzxr
p247
I1
sVd6btue8
p248
I1
sVddrk159
p249
I1
sVde7s70q
p250
I1
sVdpv894v
p251
I1
sVds6a317
p252
I1
sVdqwcj2q
p253
I1
sVd70esg8
p254
I1
sVd5bsl6m
p255
I1
sVdk6u4a8
p256
I1
sVd0ssjpp
p257
I1
sVdqiykyq
p258
I1
sVd2qlhey
p259
I1
sVdb9mok8
p260
I1
sVdci53ny
p261
I1
sVczse3l6
p262
I1
sVd8bl5cd
p263
I1
sVdke9btw
p264
I1
sVdb5ioxs
p265
I1
sVdhy39p5
p266
I4
sVd0vhdcw
p267
I1
sVdiang7b
p268
I1
sVdgb3cmh
p269
I1
sVdd451b8
p270
I1
sVd4w5r8a
p271
I1
sVdn7rdvn
p272
I1
sVczbocrh
p273
I1
sVdmwnrf8
p274
I1
sVdb10dcl
p275
I1
sVd55wdq9
p276
I1
sVd1i885r
p277
I1
sVd9clk3p
p278
I1
sVczgvlt8
p279
I1
sVdci7oh2
p280
I1
sVczoci3g
p281
I1
sVdd3trvx
p282
I2
sVd6g4l6u
p283
I1
sVd7ydajw
p284
I2
sVd34zjqh
p285
I1
sVd232cl6
p286
I1
sVdj15p1n
p287
I1
sVdpu4wsj
p288
I1
sVd51egn7
p289
I1
sVdseziwx
p290
I2
sVczrk8at
p291
I1
sVdea2b9t
p292
I1
sVdblp746
p293
I1
sVdjb3h14
p294
I1
sVdk8n4ne
p295
I1
sVd5zfe1u
p296
I1
sVddipnai
p297
I1
sVd3wtgla
p298
I1
sVdrr0ci7
p299
I1
sVczblx5r
p300
I1
sVd4ztgtc
p301
I1
sVd078jp4
p302
I1
sVds2mwda
p303
I1
sVdjmxqqo
p304
I1
sVd349wwd
p305
I2
sVcyutw0p
p306
I1
sVd68a0g0
p307
I1
sVdrrldtg
p308
I1
sVdh2rsef
p309
I1
sVd3qq2mc
p310
I1
sVdfow6hj
p311
I1
sVd1gbayw
p312
I6
sVd5o0uyl
p313
I1
sVd42p75w
p314
I1
sVd7sy05v
p315
I1
sVd1mv2nn
p316
I1
sVdctos3f
p317
I1
sVd6xytjy
p318
I2
sVddojtds
p319
I1
sVdcihc1l
p320
I1
sVd73jw4a
p321
I1
sVdi2yqhd
p322
I1
sVd3ncw4s
p323
I1
sVdgijeae
p324
I1
sVdc5tm08
p325
I1
sVd9yrtl8
p326
I1
sVd6tk4bn
p327
I1
sVd4ye0j3
p328
I1
sVd7f8ir4
p329
I1
sVde97ls9
p330
I2
sVdj6kqdj
p331
I1
sVdq6t3g0
p332
I1
sVdfcph3p
p333
I3
sVdeyr4ij
p334
I1
sVdfx77nj
p335
I1
sVdrx7555
p336
I1
sVd9xxww5
p337
I1
sVdrbsci0
p338
I1
sVdcdkjem
p339
I1
sVd9vdq15
p340
I1
sVd43lwu6
p341
I1
sVd0u3f8f
p342
I2
sVdjyzruc
p343
I1
sVd2nea8d
p344
I1
sVd3f7gdh
p345
I1
sVdo0susn
p346
I1
sVdsfehww
p347
I1
sVd2v6wxz
p348
I1
sVdidiaye
p349
I1
sVd3jced3
p350
I1
sVdqk1ivw
p351
I1
sVd1cs7ju
p352
I1
sVdnvg4ba
p353
I1
sVcziuc8p
p354
I4
sVd0f2oli
p355
I1
sVdd8ps5y
p356
I1
sVdmodiqr
p357
I1
sVd1kucqy
p358
I1
sVdmn6l28
p359
I1
sVd0kokhh
p360
I1
sVd3x40nt
p361
I1
sVd2jig4j
p362
I1
sVdhwaqfw
p363
I1
sVd2v0a4m
p364
I1
sVd560hmx
p365
I1
sVdgoq266
p366
I1
sVdb569v2
p367
I1
sVdbtlp0d
p368
I1
sVd9zuieo
p369
I1
sVd2kunst
p370
I1
sVdbqwx6x
p371
I1
sVd1bw926
p372
I1
sVdisyoec
p373
I1
sVd1sdtdq
p374
I1
sVdkedvqe
p375
I1
sVcykgsbi
p376
I1
sVdiulb5i
p377
I1
sVd63qhpz
p378
I1
sVdapyg07
p379
I1
sVdcrlju1
p380
I1
sVdgf72bu
p381
I1
sVd5pthc7
p382
I1
sVd6xtv28
p383
I1
sVdcf4ge7
p384
I1
sVd31ft1o
p385
I1
sVcz5542r
p386
I1
sVd4q0f7p
p387
I1
sVdgng8kn
p388
I1
sVd4dh4q5
p389
I1
sVd6br3gh
p390
I1
sVdhv7ewe
p391
I1
sVdh7wv7z
p392
I1
sVdod31u3
p393
I1
sVdoboluq
p394
I1
sVdmog9l7
p395
I1
sVd8hrqa1
p396
I1
sVd0x3tpb
p397
I1
sVd18d6kb
p398
I1
sVd5qccdx
p399
I1
sVd6qj5hb
p400
I1
sVd5blgkp
p401
I1
sVd570p76
p402
I1
sVdjerlv3
p403
I3
sVd0kfw90
p404
I1
sVd4zqi72
p405
I1
sVd4ufl1b
p406
I1
sVdst15qr
p407
I2
sVd0tjzd7
p408
I1
sVd9k8o7r
p409
I1
sVdscybu3
p410
I1
sVd0aeqr9
p411
I2
sVdir1qs6
p412
I1
sVdpyr7sg
p413
I1
sVdjoqeio
p414
I1
sVd02g7gx
p415
I1
sVdbv92v2
p416
I1
sVd310joq
p417
I1
sVd5q661s
p418
I1
sVdeq2h0m
p419
I1
sVdc4nls3
p420
I1
sVdfmhuup
p421
I2
sVdbh0lvw
p422
I1
sVd2pka2y
p423
I1
sVddb1eaz
p424
I1
sVdoc97qk
p425
I1
sVdgtmgl0
p426
I1
sVdbqeccp
p427
I1
sVdmx79jh
p428
I1
sVdiovffi
p429
I1
sVdc7f079
p430
I1
sVd6wwhvt
p431
I1
sVcz8tr7i
p432
I1
sVd3zk3b5
p433
I1
sVdcy286x
p434
I1
sVdhqj7la
p435
I1
sVd946uwv
p436
I1
sVdgtpocm
p437
I2
sVdqh45lx
p438
I1
sVdeq1hfl
p439
I1
sVczqfrab
p440
I1
sVdjrbsi3
p441
I1
sVcz8m7y4
p442
I1
sVdc9hig5
p443
I1
sVcziucvs
p444
I3
sVcyq20ts
p445
I1
sVd8diupv
p446
I2
sVd3sq15t
p447
I1
sVdiwrjlr
p448
I1
sVd312hb2
p449
I1
sVcyoggmf
p450
I1
sVdfkes0t
p451
I1
sVd8nepbe
p452
I1
sVd0h9z7m
p453
I2
sVda8vdbk
p454
I2
sVde88kly
p455
I2
sVd178ils
p456
I1
sVdbkzuea
p457
I1
sVdr2zpiz
p458
I1
sVd297mqf
p459
I1
sVdfoyujy
p460
I1
sVd3dq1pm
p461
I1
sVdiet4tp
p462
I1
sVd1jplb6
p463
I1
sVcz4qa6k
p464
I1
sVd0lits7
p465
I1
sVditgy32
p466
I1
sVdnl8kwo
p467
I1
sVd3ik7fv
p468
I1
sVdfilw96
p469
I1
sVd6lq5rh
p470
I2
sVczr851j
p471
I1
sVdfw92ea
p472
I1
sVd0f2ume
p473
I1
sVd616mir
p474
I1
sVdc1k8vx
p475
I1
sVdb5gh4m
p476
I1
sVd32et3c
p477
I1
sVdo45xfd
p478
I1
sVdn5hqm7
p479
I1
sVdaicgbm
p480
I1
sVd0jiqjz
p481
I1
sVdbpyqbm
p482
I1
sVd810f4b
p483
I2
sVdpkbv4c
p484
I1
sVdf3ruz7
p485
I1
sVd3m1f9b
p486
I1
sVdpk8hyi
p487
I1
sVddhvvua
p488
I1
sVd9m8c23
p489
I1
sVdbh288j
p490
I1
sVd15rvtl
p491
I1
sVdkx4k0k
p492
I1
sVd3m48hd
p493
I1
sVd4sb488
p494
I1
sVd4liffv
p495
I1
sVczgcryv
p496
I1
sVd4gzfur
p497
I1
sVdnque56
p498
I1
sVd3sjrcp
p499
I1
sVdkmombj
p500
I1
sVd3ppunh
p501
I1
sVdc0zm9j
p502
I2
sVd3bep85
p503
I1
sVd6qlwwq
p504
I1
sVd3qfnpw
p505
I2
sVdcbdh0u
p506
I1
sVdh7m45s
p507
I1
sVdajfm5w
p508
I1
sVd4h4c51
p509
I1
sVd6uooar
p510
I1
sVddm9zoa
p511
I1
sVd1ug7vv
p512
I3
sVd90f6og
p513
I1
sVdgltg5o
p514
I1
sVdd5dym3
p515
I1
sVd4kxeib
p516
I1
sVd2jivd8
p517
I1
sVdc7ohwm
p518
I1
sVcyyk2zx
p519
I1
sVd96323x
p520
I1
sVczd8w40
p521
I1
sVdh6753a
p522
I1
s.