(dp0
Vdej7pmd
p1
I1
sVds1ifsx
p2
I1
sVczalims
p3
I1
sVdawrt47
p4
I1
sVdipzigg
p5
I1
sVdh7w8pp
p6
I1
sVczjehpk
p7
I1
sVdisrq51
p8
I1
sVde3icrb
p9
I1
sVdrgjzje
p10
I1
sVdff5a44
p11
I1
sVd35f1oy
p12
I1
sVdh2dmbg
p13
I2
sVdskr0l8
p14
I1
sVcyssat0
p15
I1
sVdc8vo8a
p16
I1
sVdeo3wor
p17
I1
sVd14sb85
p18
I1
sVdbqx0ry
p19
I1
sVde9lmym
p20
I1
sVdkkdvvi
p21
I1
sVd1ywi2m
p22
I1
sVd0vqtr1
p23
I1
sVdgw2ctf
p24
I1
sVdmti2mm
p25
I1
sVd4u9igd
p26
I1
sVd00m9oh
p27
I1
sVdku6zs8
p28
I1
sVdgcvhhh
p29
I1
sVdijql88
p30
I1
sVcz34ozu
p31
I1
sVdkgl37f
p32
I1
sVda6bv5k
p33
I1
sVdjw7wm2
p34
I1
sVdprtyf4
p35
I1
sVd4xruh9
p36
I1
sVd31pvmp
p37
I1
sVdfv8ovb
p38
I1
sVdn2718h
p39
I1
sVd6gi24w
p40
I1
sVd0rxwtu
p41
I1
sVcyjufq6
p42
I1
sVdft8rw0
p43
I1
sVdtibhtl
p44
I1
sVdbdkbc1
p45
I1
sVdjtyraw
p46
I1
sVd40x6es
p47
I1
sVd2zjwfp
p48
I1
sVcziwmo7
p49
I1
sVd05mm9e
p50
I1
sVd7vx1nd
p51
I1
sVdsm3na7
p52
I1
sVdirt3xp
p53
I1
sVdgcvoze
p54
I1
sVcz9t16l
p55
I1
sVda0z05r
p56
I1
sVd9vesce
p57
I1
sVdo899r9
p58
I1
sVd3cp8an
p59
I1
sVdoypvji
p60
I1
sVdntfmpr
p61
I1
sVd0ofa74
p62
I1
sVd5cfbay
p63
I1
sVdf59cxk
p64
I1
sVdf7xblh
p65
I1
sVdf3dfo1
p66
I1
sVd22ib0r
p67
I1
sVd1h9k3j
p68
I1
sVddj35od
p69
I1
sVdqrc9l3
p70
I1
sVdgpb6wg
p71
I1
sVd5yqbo0
p72
I1
sVdanczeq
p73
I1
sVd4ovjd0
p74
I1
sVdawpcer
p75
I1
sVd5k3mr1
p76
I1
sVdqbn4wa
p77
I1
sVd3zj9nb
p78
I1
sVczpl3v3
p79
I1
sVdk3399p
p80
I1
sVd035wd6
p81
I1
sVdabjubv
p82
I1
sVdilza6i
p83
I1
sVd2xb74s
p84
I1
sVd7jvcid
p85
I1
sVd37l3eq
p86
I1
sVd4lw02y
p87
I1
sVdjg6g45
p88
I1
sVd9aoptx
p89
I1
sVd586o5k
p90
I1
sVd5bj3x9
p91
I2
sVd1q8l5v
p92
I1
sVd5nijcy
p93
I1
sVcyrtmnp
p94
I1
sVd29p5s0
p95
I1
sVczcdn1u
p96
I1
sVder9uts
p97
I1
sVd7b7t0m
p98
I1
sVd7xmxly
p99
I1
sVdfgsh80
p100
I1
sVd0ik08z
p101
I1
sVdrp274c
p102
I1
sVd281q6r
p103
I1
sVdbqdja1
p104
I1
sVd2qri1k
p105
I1
sVd8jbily
p106
I1
sVd1dlwne
p107
I1
sVdewhq3e
p108
I1
sVd4o8bcd
p109
I1
sVd0w1et7
p110
I1
sVd6cz39s
p111
I1
sVdelzzw0
p112
I1
sVdoql814
p113
I1
sVdb5erwy
p114
I1
s.