(dp0
Vdaofpay
p1
I1
sVd2sbcwm
p2
I1
sVdaz3sde
p3
I2
sVdcwjd1r
p4
I1
sVcz6k9hs
p5
I1
sVdf3t352
p6
I1
sVd4npwzc
p7
I1
sVd9tkze0
p8
I1
sVd0md3jz
p9
I1
sVdjnt18v
p10
I2
sVde2omta
p11
I1
sVdduw4oz
p12
I1
sVd5vw640
p13
I1
sVdmh96t7
p14
I1
sVdd3j8hp
p15
I1
sVd6hdp05
p16
I1
sVd6hewwc
p17
I1
sVd9fagne
p18
I1
sVdncr9ts
p19
I1
sVd4pnyv3
p20
I1
sVd67b8yy
p21
I1
sVd9991x0
p22
I1
sVd5vyu97
p23
I2
sVd6t25d1
p24
I1
sVd2g61gr
p25
I1
sVdqqtxoe
p26
I1
sVd4c7029
p27
I1
sVdam1gwi
p28
I1
sVdiay10i
p29
I1
s.