(dp0
Vd3u9104
p1
I1
sVd1txdyq
p2
I1
sVd65ziao
p3
I1
sVd2zfcu1
p4
I1
sVd0yd520
p5
I1
sVdpyx9zb
p6
I1
sVd3f9yw3
p7
I1
sVd90sqhv
p8
I1
sVd5e1esa
p9
I1
sVd95gv3t
p10
I1
sVcyptc11
p11
I1
sVcyijnl2
p12
I1
sVdgm6vij
p13
I1
sVd815dbc
p14
I1
sVd36oj03
p15
I1
sVd2a6fpg
p16
I1
sVdb4z9nt
p17
I1
sVddxnpms
p18
I1
sVd7zx1nc
p19
I1
sVd02lqhc
p20
I1
sVd17j9i3
p21
I1
sVd242a7d
p22
I1
sVdpdg8dw
p23
I1
sVd17zfyn
p24
I1
sVd0gvym9
p25
I1
sVdizpub7
p26
I1
sVdawqptp
p27
I1
sVd0uthve
p28
I1
sVdc8sp6k
p29
I1
sVd0xc395
p30
I1
sVd3h0lb0
p31
I1
sVd4vb1lh
p32
I1
sVd0qe26l
p33
I1
sVdg2lp77
p34
I2
sVdht4gtu
p35
I1
sVdoj75qg
p36
I1
sVczzl5ip
p37
I1
sVd3gcydu
p38
I1
sVd9yu3m3
p39
I1
sVcynqnpz
p40
I1
sVdgi3uqw
p41
I1
sVdf9ajgy
p42
I1
sVczi5g3h
p43
I1
sVd2o364q
p44
I1
sVdms3g6o
p45
I1
sVd94ngdz
p46
I1
sVczs6arx
p47
I1
sVd3lqujh
p48
I1
sVdsjtf88
p49
I1
sVde2yewy
p50
I1
sVdhlqe9l
p51
I1
sVd882lt9
p52
I1
sVdh8cx6q
p53
I1
sVdsfx520
p54
I1
sVdgqiawl
p55
I1
sVcyugx5y
p56
I1
sVdiif5bk
p57
I1
sVdd6xhio
p58
I2
sVdc3dvnp
p59
I1
sVdd1urcl
p60
I1
sVdg3x809
p61
I1
sVddxze2n
p62
I1
sVd0b562t
p63
I1
sVd6mm2gc
p64
I2
sVdpz3lhf
p65
I2
sVdipc7rf
p66
I1
sVd6i7gki
p67
I1
sVd224ji6
p68
I1
sVd4rnjr7
p69
I1
sVde9kyu0
p70
I1
sVdh2hyt7
p71
I1
sVdazu3eu
p72
I1
sVdoc75iq
p73
I1
sVd8eoep9
p74
I1
sVd88z5oy
p75
I1
sVdbls0i7
p76
I1
sVd0m5p3b
p77
I1
sVd6wfthp
p78
I1
sVdehjlcv
p79
I1
sVd7szv5y
p80
I1
sVdqx9515
p81
I1
sVd882pyq
p82
I1
sVdn85kn8
p83
I1
sVd1dsvpq
p84
I1
sVd6cusdi
p85
I1
sVdnp2zab
p86
I1
sVddpjs44
p87
I1
sVcz3dpc9
p88
I1
sVd3e2du0
p89
I1
sVd9zkqid
p90
I1
sVdhgxhaf
p91
I2
sVd12xq1a
p92
I1
sVd16z6no
p93
I1
sVdgltg5o
p94
I1
sVdt8o610
p95
I1
sVddjecta
p96
I1
sVdmtrl8d
p97
I1
sVd05zfr3
p98
I1
sVd7trgtl
p99
I1
sVddpyelm
p100
I1
sVd9dywi8
p101
I1
sVd5vw640
p102
I1
sVdfksyjg
p103
I1
sVd4bzvpe
p104
I1
sVdpmndtl
p105
I1
sVddctn9s
p106
I1
sVd627svt
p107
I1
sVdh0twci
p108
I1
sVdpwm7d2
p109
I1
sVdpoqzph
p110
I1
sVd1v2hpd
p111
I1
sVdhcjtqq
p112
I1
sVdao5dx6
p113
I1
sVczqonje
p114
I1
sVd7d1krs
p115
I1
sVdacru2l
p116
I2
sVddbz0y1
p117
I1
sVdjuwpn2
p118
I1
sVd6wha5s
p119
I1
sVdrgi44i
p120
I1
sVdclqmyf
p121
I1
sVcz8s96x
p122
I1
sVdte5t4h
p123
I1
sVcyi3u4r
p124
I1
sVdbmyfsf
p125
I1
sVdjuoh3a
p126
I1
sVd3mil8a
p127
I1
sVdbjlrta
p128
I1
sVdti8bwe
p129
I1
sVdd23zev
p130
I1
sVdijqyle
p131
I1
sVd8y41s0
p132
I1
sVd3uuwuz
p133
I1
sVd05z0t8
p134
I1
sVd2z8e2j
p135
I1
sVdfifhyz
p136
I1
sVdfygpkn
p137
I1
sVd5n4r4e
p138
I1
sVddwlcej
p139
I2
sVdpj9z48
p140
I1
sVczh1984
p141
I1
sVd2lbkuf
p142
I1
sVdddfd36
p143
I1
sVd7slssd
p144
I1
sVd85j1tu
p145
I1
sVd67qsev
p146
I1
sVczi08fd
p147
I1
sVdjblv9q
p148
I1
sVdf0h3qa
p149
I1
sVcyxb9o7
p150
I1
sVdcwwzm0
p151
I1
sVdgkr7o5
p152
I1
sVd7vatxv
p153
I1
sVdgkh3xt
p154
I1
sVd7y8ka2
p155
I1
sVdcr4pjp
p156
I1
sVdkz5y1t
p157
I1
sVd18pjmq
p158
I1
sVd84dx7z
p159
I1
sVdk4nx8b
p160
I1
sVdre3n52
p161
I1
sVd7y759d
p162
I1
sVdt2b649
p163
I1
sVdd6t358
p164
I4
sVdehzygg
p165
I1
sVcyvr620
p166
I1
sVd6i73ri
p167
I1
sVd5orl33
p168
I1
sVdei1519
p169
I1
sVdshni4f
p170
I1
sVd61n74m
p171
I1
sVdfxcxjn
p172
I1
sVdr84ty2
p173
I1
sVd8xl4k1
p174
I1
sVdcf1we1
p175
I1
sVdqjdpti
p176
I1
sVddqw07y
p177
I1
sVd5hmhup
p178
I1
sVdbm115k
p179
I1
sVde8z48d
p180
I1
sVd3tbld6
p181
I1
sVd61rqtd
p182
I1
sVdr9bkcv
p183
I1
sVdfb918n
p184
I1
sVdghe4hg
p185
I1
sVd35j4qi
p186
I1
sVd19vqwc
p187
I1
sVcys7he3
p188
I1
sVdhslbby
p189
I2
sVdd4iqse
p190
I1
sVdcf2ev3
p191
I1
sVdfpcc7n
p192
I1
sVdb3u76b
p193
I1
sVd1ofgvc
p194
I1
sVdcg2x98
p195
I1
sVdsu9vef
p196
I1
sVcyoekpp
p197
I1
sVdsxr4co
p198
I1
sVdgwi3n0
p199
I1
sVdf5cdm8
p200
I1
sVdehsaos
p201
I1
sVd3ydybg
p202
I1
sVd55xl81
p203
I1
sVdazqzk1
p204
I1
sVdr96oul
p205
I1
sVdeu7672
p206
I1
sVdhcyffx
p207
I1
sVdrkwwd4
p208
I1
sVdrlmlwu
p209
I1
sVd6ejf2o
p210
I1
sVddcnta9
p211
I1
sVdajglbt
p212
I2
sVdh8qzqf
p213
I1
sVdb54fdj
p214
I1
sVdehq72d
p215
I1
sVdizjhwn
p216
I1
sVdnb9csf
p217
I1
sVdd4p8de
p218
I1
sVdcehmor
p219
I1
sVdq053x5
p220
I1
sVdamjvu3
p221
I1
sVd9ytkrm
p222
I1
sVdql3w6j
p223
I1
sVdftismi
p224
I1
sVdfuujp5
p225
I1
sVcys360i
p226
I1
sVczyv6qg
p227
I1
sVda427jw
p228
I1
sVdh5006q
p229
I1
sVd2juhbh
p230
I1
sVd9vh490
p231
I2
sVdd0ml6d
p232
I1
sVd8i4u1p
p233
I1
sVd9ynfy2
p234
I1
sVd5w9dna
p235
I2
sVdekgr8d
p236
I1
sVd8h0jg8
p237
I1
sVdivxomv
p238
I1
sVd9z67oj
p239
I1
sVd21coav
p240
I1
sVd1h2ei6
p241
I1
sVdhtmiko
p242
I1
sVdr9of1h
p243
I1
sVd21bm82
p244
I1
sVd1x9scg
p245
I1
sVd4uklo9
p246
I1
sVdb8mvmc
p247
I1
sVd1hzhnc
p248
I1
sVdc2uysf
p249
I1
sVcynzike
p250
I1
sVdsdmpxn
p251
I2
sVd7rots0
p252
I1
sVdp7qwjt
p253
I1
sVd7xh92i
p254
I1
sVdtcdp1w
p255
I1
sVdh9vcuo
p256
I1
sVdeljxue
p257
I1
sVde7jd50
p258
I1
sVdei26ro
p259
I1
sVd9ysql6
p260
I1
sVdi5ao9z
p261
I1
sVd9z7eil
p262
I1
sVdh49x43
p263
I1
sVdirsblq
p264
I1
sVcypfuoo
p265
I1
sVd1d5w8c
p266
I1
sVdbgn7zq
p267
I1
sVcyw4djp
p268
I1
sVdajfm5w
p269
I1
sVdim3871
p270
I1
sVdh9vay3
p271
I1
sVd1pp4bl
p272
I1
sVd60m4s2
p273
I1
sVcynzj6i
p274
I1
sVdn4apz1
p275
I1
sVddodqml
p276
I1
sVdmm29bo
p277
I1
sVd9hjcta
p278
I1
sVd78voty
p279
I1
sVd430p0x
p280
I1
sVcytuo4p
p281
I1
sVdehlvg6
p282
I1
sVd2pbm7u
p283
I1
sVd2m65gi
p284
I1
sVd84jfb9
p285
I1
sVdh0ygkz
p286
I1
sVda1gb96
p287
I1
sVdoq4z5h
p288
I1
sVdb38wxa
p289
I1
sVd9yrq3v
p290
I1
sVdergld0
p291
I1
sVde1y5w7
p292
I1
sVdms4qgb
p293
I1
sVd29lizg
p294
I1
sVdkji5dn
p295
I1
sVczjq9jf
p296
I1
sVdbsfie5
p297
I1
sVd7gyupl
p298
I1
s.