(dp0
Vdo61qph
p1
I1
sVd0cimf9
p2
I1
sVcyu8t87
p3
I1
sVddiuqaj
p4
I1
sVdja7q5k
p5
I1
sVdhmjsn3
p6
I1
sVd0xvsmv
p7
I1
sVdswbbz7
p8
I1
sVdbpx2ml
p9
I1
sVd0h3oo9
p10
I1
sVczbfu57
p11
I1
sVdgqft9w
p12
I1
sVd1wp2xu
p13
I1
sVdo8frm6
p14
I1
sVdrc1sx9
p15
I1
sVdj4632s
p16
I1
sVd25xt9u
p17
I1
sVd618pjb
p18
I1
sVd6boyuq
p19
I1
sVd06ttww
p20
I1
sVdqylfzf
p21
I1
sVdpi2b4e
p22
I1
s.