(dp0
Vd7jx6hj
p1
I1
sVd9lhnl7
p2
I1
sVd6elrkp
p3
I1
sVdkmklpa
p4
I1
sVd63oyc2
p5
I1
sVd0d18by
p6
I1
sVdb58p8a
p7
I1
sVd3qjeln
p8
I1
sVcyq1tim
p9
I1
sVdhdz15z
p10
I1
sVdjytyer
p11
I1
sVdena52k
p12
I1
sVdfvkf72
p13
I1
sVd5bhli6
p14
I1
sVd13zggk
p15
I1
sVdh460hb
p16
I1
sVd9ecbqf
p17
I1
sVd3vtx28
p18
I1
sVda3nnjz
p19
I1
s.