(dp0
Vcykosdj
p1
I1
s.(dp0
Vcykosdj
p1
I1
sVcynuhkj
p2
I1
s.(dp0
Vcykosdj
p1
I1
sVcysufub
p2
I1
s.(dp0
Vcykosdj
p1
I1
sVczd1cb8
p2
I1
s.(dp0
Vcykosdj
p1
I1
sVd06kbpw
p2
I1
s.(dp0
Vcykosdj
p1
I1
sVd14ayrf
p2
I1
s.(dp0
Vcykosdj
p1
I1
sVd1ixet1
p2
I1
s.(dp0
Vcykosdj
p1
I1
sVd1qb3ea
p2
I1
s.(dp0
Vcykosdj
p1
I1
sVd21kfw3
p2
I1
s.(dp0
Vcykosdj
p1
I1
sVd2fok0r
p2
I1
s.(dp0
Vcykosdj
p1
I1
sVd3bep85
p2
I1
s.(dp0
Vcykosdj
p1
I1
sVd3ga5qu
p2
I1
s.(dp0
Vcykosdj
p1
I1
sVd48df34
p2
I1
s.(dp0
Vcykosdj
p1
I1
sVd4eqq4n
p2
I1
s.(dp0
Vcykosdj
p1
I1
sVd53ptdz
p2
I1
s.(dp0
Vcykosdj
p1
I1
sVd5gr3ta
p2
I1
s.(dp0
Vcykosdj
p1
I1
sVd5jpnt1
p2
I1
s.(dp0
Vcykosdj
p1
I1
sVd5oqxpe
p2
I1
s.(dp0
Vcykosdj
p1
I1
sVd5t0qrv
p2
I1
s.(dp0
Vcykosdj
p1
I1
sVd5xh14x
p2
I1
s.(dp0
Vcykosdj
p1
I1
sVd64empp
p2
I1
s.(dp0
Vcykosdj
p1
I1
sVd65fiks
p2
I1
s.(dp0
Vcykosdj
p1
I1
sVd8c1f7o
p2
I1
s.(dp0
Vcykosdj
p1
I1
sVd9q6j94
p2
I1
s.(dp0
Vcykosdj
p1
I1
sVdai5u4y
p2
I1
s.(dp0
Vcykosdj
p1
I1
sVdas8f3d
p2
I1
s.(dp0
Vcykosdj
p1
I1
sVdb58gvs
p2
I1
s.(dp0
Vcykosdj
p1
I1
sVdcg8x7c
p2
I1
s.(dp0
Vcykosdj
p1
I1
sVdcogq9e
p2
I1
s.(dp0
Vcykosdj
p1
I1
sVdcv3cps
p2
I1
s.(dp0
Vcykosdj
p1
I1
sVdczwjfy
p2
I1
s.(dp0
Vcykosdj
p1
I1
sVdd064lg
p2
I1
s.(dp0
Vcykosdj
p1
I1
sVdd15e23
p2
I1
s.(dp0
Vcykosdj
p1
I1
sVdd2ylma
p2
I1
s.(dp0
Vcykosdj
p1
I1
sVddaiu92
p2
I1
s.(dp0
Vcykosdj
p1
I1
sVddoprlh
p2
I1
s.(dp0
Vcykosdj
p1
I1
sVdebtfgh
p2
I1
s.(dp0
Vcykosdj
p1
I1
sVdeush9x
p2
I1
s.(dp0
Vcykosdj
p1
I1
sVdf212kq
p2
I1
s.(dp0
Vcykosdj
p1
I1
sVdf9zj22
p2
I1
s.(dp0
Vcykosdj
p1
I1
sVdfl08lv
p2
I1
s.(dp0
Vcykosdj
p1
I1
sVdfthtqr
p2
I1
s.(dp0
Vcykosdj
p1
I1
sVdg2hnxy
p2
I1
s.(dp0
Vcykosdj
p1
I1
sVdhh6blz
p2
I1
s.(dp0
Vcykosdj
p1
I1
sVdhid03d
p2
I1
s.(dp0
Vcykosdj
p1
I1
sVdhlb9vx
p2
I1
s.(dp0
Vcykosdj
p1
I1
sVdhlmdws
p2
I1
s.(dp0
Vcykosdj
p1
I1
sVdhvdhog
p2
I1
s.(dp0
Vcykosdj
p1
I1
sVdhxjuhi
p2
I1
s.(dp0
Vcykosdj
p1
I1
sVdi874bd
p2
I1
s.(dp0
Vcykosdj
p1
I1
sVdi87uzm
p2
I1
s.(dp0
Vcykosdj
p1
I1
sVdjztcie
p2
I1
s.(dp0
Vcykosdj
p1
I1
sVdk7a4ua
p2
I1
s.(dp0
Vcykosdj
p1
I1
sVdkn1xf5
p2
I1
s.(dp0
Vcykosdj
p1
I1
sVdkpyyaq
p2
I1
s.(dp0
Vcykosdj
p1
I1
sVdkrxz2t
p2
I1
s.(dp0
Vcykosdj
p1
I1
sVdmjj9to
p2
I1
s.(dp0
Vcykosdj
p1
I1
sVdrf1m73
p2
I1
s.(dp0
Vcykosdj
p1
I1
sVdsplkav
p2
I1
s.