(dp0
Vdi98egt
p1
I1
sVd1ac2km
p2
I1
sVdnizy99
p3
I2
sVdisjt48
p4
I1
sVd6d976q
p5
I1
sVcz6ant2
p6
I1
sVdfntdb8
p7
I1
sVd8du5n2
p8
I1
sVdhjfxuc
p9
I1
sVd62tsxt
p10
I1
sVdazzsum
p11
I1
sVdh5w906
p12
I1
sVdn6wex1
p13
I1
sVd54k7ak
p14
I1
sVd2j53w9
p15
I1
sVdg5tqt3
p16
I1
sVd0ylw1b
p17
I1
sVd3xvimc
p18
I1
sVdcse41b
p19
I2
sVd38ex4p
p20
I1
sVd4hvfd8
p21
I1
sVd69wv29
p22
I1
sVczne6p8
p23
I1
sVd5lwsoy
p24
I1
sVd5axn09
p25
I1
sVd38wn2s
p26
I1
sVd8rhrzj
p27
I1
sVdcue321
p28
I1
sVd0847q6
p29
I1
sVd8dg9ma
p30
I1
sVdomvhyd
p31
I1
sVdpd7nm0
p32
I1
sVczzrnuz
p33
I1
sVdn6inwi
p34
I1
sVdcsv4jn
p35
I1
sVd8gl7am
p36
I1
sVd129wxy
p37
I1
sVd60ip3r
p38
I1
sVcz5431a
p39
I1
sVdenygpe
p40
I1
sVdnqqnfg
p41
I1
sVcymri79
p42
I1
sVdiyv3b8
p43
I1
sVd3ycflu
p44
I1
sVdeysc5x
p45
I1
sVd9i32id
p46
I1
sVd7zk32b
p47
I1
sVczci7nd
p48
I1
sVdauqgif
p49
I1
sVdirrrea
p50
I1
sVd598qtm
p51
I1
sVda0zqc4
p52
I1
sVd6xfx9y
p53
I1
sVd9b8hnc
p54
I1
sVdhzyzak
p55
I1
sVd0oqhbf
p56
I1
sVd2bal36
p57
I1
sVcyqrz95
p58
I1
sVczxxgpd
p59
I1
sVdn943ey
p60
I1
sVd0jdt9e
p61
I1
sVdeqb0wk
p62
I1
sVdiqf5h3
p63
I1
s.