(dp0
Vddzun82
p1
I1
sVcykyor3
p2
I1
sVcz6l3qr
p3
I1
sVd592rec
p4
I1
sVczmc505
p5
I1
sVdpimgmw
p6
I1
sVdfwv9v6
p7
I1
sVdnb83zz
p8
I1
sVdpaqvl4
p9
I1
sVdgi9or9
p10
I1
sVdpkfhlo
p11
I1
sVdpmdet6
p12
I1
sVd68oxjc
p13
I1
sVd49gega
p14
I1
sVdhxt1xi
p15
I1
sVdflygqb
p16
I1
sVdrq0f7o
p17
I2
sVd9xnosm
p18
I1
sVd5g5b14
p19
I2
sVdq6jf8p
p20
I1
sVd08rcaz
p21
I1
sVd4a6mxk
p22
I1
sVdg2dbpj
p23
I1
sVddvcndu
p24
I1
sVdd3dpph
p25
I1
sVd2gc11m
p26
I1
sVdds52y1
p27
I1
sVd8gc4fv
p28
I1
s.