(dp0
Vcyktzxy
p1
I1
s.(dp0
Vcz1p9ug
p1
I1
sVcyktzxy
p2
I1
s.(dp0
Vczj2qzx
p1
I1
sVcyktzxy
p2
I1
s.(dp0
Vcyktzxy
p1
I1
sVczolvjq
p2
I1
s.(dp0
Vcyktzxy
p1
I1
sVd004g0u
p2
I1
s.(dp0
Vd0batvt
p1
I1
sVcyktzxy
p2
I1
s.(dp0
Vcyktzxy
p1
I1
sVd0bbnja
p2
I1
s.(dp0
Vcyktzxy
p1
I1
sVd0bd9y9
p2
I1
s.(dp0
Vcyktzxy
p1
I1
sVd0bf9gq
p2
I1
s.(dp0
Vd0lz1x2
p1
I1
sVcyktzxy
p2
I1
s.(dp0
Vcyktzxy
p1
I1
sVd11pwj1
p2
I1
s.(dp0
Vcyktzxy
p1
I1
sVd1yeorx
p2
I1
s.(dp0
Vd2bdc2k
p1
I1
sVcyktzxy
p2
I1
s.(dp0
Vd3577j9
p1
I1
sVcyktzxy
p2
I1
s.(dp0
Vcyktzxy
p1
I1
sVd3dkn5v
p2
I1
s.(dp0
Vcyktzxy
p1
I1
sVd3dkn5v
p2
I1
s.(dp0
Vcyktzxy
p1
I1
sVd3dkn5v
p2
I1
s.(dp0
Vcyktzxy
p1
I1
sVd5hdkao
p2
I1
s.(dp0
Vd5ize5t
p1
I1
sVcyktzxy
p2
I1
s.(dp0
Vcyktzxy
p1
I1
sVd9u0f5o
p2
I1
s.(dp0
Vday7x7h
p1
I1
sVcyktzxy
p2
I1
s.(dp0
Vcyktzxy
p1
I1
sVdb06v2x
p2
I1
s.(dp0
Vcyktzxy
p1
I1
sVdbjie5f
p2
I1
s.(dp0
Vcyktzxy
p1
I1
sVdctxjkj
p2
I1
s.(dp0
Vcyktzxy
p1
I1
sVdctxjkj
p2
I1
s.(dp0
Vdd4p8de
p1
I1
sVcyktzxy
p2
I1
s.(dp0
Vcyktzxy
p1
I1
sVddcaw2w
p2
I1
s.(dp0
Vcyktzxy
p1
I1
sVddlkwvs
p2
I1
s.(dp0
Vddp6j1f
p1
I1
sVcyktzxy
p2
I1
s.(dp0
Vcyktzxy
p1
I1
sVde1yf3n
p2
I1
s.(dp0
Vcyktzxy
p1
I1
sVdhaec27
p2
I1
s.(dp0
Vcyktzxy
p1
I1
sVdhhi018
p2
I1
s.(dp0
Vdi104uo
p1
I1
sVcyktzxy
p2
I1
s.(dp0
Vcyktzxy
p1
I1
sVdifqnq3
p2
I1
s.(dp0
Vdinnukr
p1
I1
sVcyktzxy
p2
I1
s.(dp0
Vcyktzxy
p1
I1
sVdjs3j6a
p2
I1
s.(dp0
Vcyktzxy
p1
I1
sVdkku9dh
p2
I1
s.(dp0
Vcyktzxy
p1
I1
sVdrq818b
p2
I1
s.