(dp0
Vcyit1kk
p1
I1
sVd1t46nb
p2
I1
sVd6khj2o
p3
I1
sVdgt9cem
p4
I1
sVdo57rzl
p5
I1
sVdil60db
p6
I1
sVd38c939
p7
I1
sVdh5txma
p8
I2
sVd6u76ss
p9
I1
sVd0c7b89
p10
I1
sVd9coicp
p11
I1
sVdq8vhe7
p12
I1
sVdcjfjux
p13
I1
sVddycew1
p14
I1
sVdjg4h4l
p15
I2
sVd0kvy64
p16
I1
sVdi8ugdu
p17
I1
sVdresskt
p18
I3
sVd90pyi7
p19
I1
sVdnmajq0
p20
I1
sVdkosjy3
p21
I1
sVdbv7195
p22
I1
sVdcflpqy
p23
I1
sVd30xqrc
p24
I1
sVd78daju
p25
I2
sVd1aewyv
p26
I1
sVcz6ptlg
p27
I1
sVdg3znut
p28
I2
sVdas4spj
p29
I1
sVdt11vm4
p30
I1
sVd1f0g33
p31
I2
sVdexrath
p32
I1
sVd9brpej
p33
I1
sVd0tn3lu
p34
I1
sVd2nf4xm
p35
I2
sVcznmflk
p36
I1
sVd1buug8
p37
I1
sVdczwrg4
p38
I1
sVdfelf23
p39
I1
sVdcdovpi
p40
I1
sVdkmlqhx
p41
I1
sVdcuwosk
p42
I1
sVd64i3ej
p43
I1
sVdawwec3
p44
I1
sVd35crek
p45
I1
sVdb4uoe6
p46
I1
sVd9x5ubj
p47
I1
sVdpuifac
p48
I1
sVdd4y9hd
p49
I1
sVd3abuqn
p50
I1
sVdaez0lp
p51
I1
sVdpsdi7s
p52
I1
sVd3j3wsc
p53
I1
sVdj7qr1z
p54
I1
sVd3wfk66
p55
I2
sVdaaq9t8
p56
I1
sVdj3g8p8
p57
I1
sVd45pvbf
p58
I1
sVd9wtujd
p59
I1
sVdhd6omj
p60
I1
sVdevdpqe
p61
I1
sVdevn6l6
p62
I1
sVd02z2u4
p63
I1
sVdemueth
p64
I1
sVd4kxyan
p65
I1
sVdfos8q5
p66
I1
sVdp7gtn3
p67
I1
sVd6vgboh
p68
I1
sVd1ebsca
p69
I1
sVdb0owb0
p70
I2
sVd7db7s0
p71
I1
sVd9dcok7
p72
I2
sVd0wbo08
p73
I1
sVd1keeis
p74
I1
sVd4juqxv
p75
I1
sVdndq7mn
p76
I1
sVdfrt6cc
p77
I1
sVdspoc52
p78
I1
sVdghvis6
p79
I1
sVdh8ok3t
p80
I1
sVd3w89fl
p81
I2
sVdjwiy0w
p82
I3
sVdami57t
p83
I1
sVdeysqt0
p84
I1
sVdc968kb
p85
I1
sVd7c7zqm
p86
I1
sVddy6j3e
p87
I1
sVd36bbsx
p88
I1
sVdcxlene
p89
I1
sVd4ux2bj
p90
I1
sVddbvoet
p91
I1
sVd9nmqw3
p92
I1
sVdjem239
p93
I1
sVdnx52x4
p94
I1
sVdt1sdcm
p95
I1
sVd13qnay
p96
I2
sVdhbvtla
p97
I1
sVd5wws8f
p98
I1
sVdmlcqn2
p99
I1
sVdkgg5mp
p100
I1
sVcynzike
p101
I1
sVd37h9qs
p102
I1
sVd1cj5iz
p103
I1
sVd3kndug
p104
I2
sVdekuius
p105
I2
sVdbrnf0a
p106
I1
sVdfqc93s
p107
I1
sVdbptc3u
p108
I1
sVd05oi5i
p109
I1
sVd5ob2cg
p110
I1
sVd9e3n92
p111
I1
sVdruevqx
p112
I1
sVd7sa7no
p113
I1
sVdsvr8cv
p114
I1
sVd1bqik6
p115
I1
sVdmqxqmn
p116
I1
sVdih909v
p117
I1
sVdruiexo
p118
I1
sVcyv5a3h
p119
I1
sVd5ehhxt
p120
I1
sVd0adqcd
p121
I1
sVdn7laio
p122
I1
sVd6i23bz
p123
I1
sVd2ygvmc
p124
I1
sVdnwexgl
p125
I2
sVdnx1hyw
p126
I2
sVd3946t4
p127
I2
sVdsfx520
p128
I1
sVd5o160b
p129
I1
sVds22eq7
p130
I1
sVd45m5ih
p131
I1
sVdndbc92
p132
I1
sVcyr03do
p133
I1
sVd2bv9ry
p134
I1
sVd8qb3cu
p135
I1
sVd25ulfx
p136
I1
sVd1us57x
p137
I1
sVcymzyiw
p138
I1
sVd1776e8
p139
I1
sVdsvkavd
p140
I1
sVdjth1hj
p141
I1
sVdboxmy7
p142
I1
sVd9bqvpf
p143
I1
sVdnnqayx
p144
I1
sVd162l93
p145
I1
sVd4h1gnj
p146
I1
sVde8tf5i
p147
I2
sVdaa5pv1
p148
I1
sVcyqttvj
p149
I2
sVd04dgmx
p150
I1
sVczdo0vy
p151
I1
sVd67igna
p152
I1
sVd9xlt7s
p153
I1
sVd3hehsk
p154
I1
sVdk9pv13
p155
I1
sVdi2g461
p156
I1
sVd1gk3ij
p157
I2
sVdndol5l
p158
I1
sVd82yee8
p159
I4
sVdgmj1b0
p160
I2
sVdsyhvxw
p161
I1
sVcyugwtv
p162
I1
sVdfp49nr
p163
I1
sVdh5izf0
p164
I1
sVd84dh2q
p165
I1
sVdrun5vg
p166
I1
sVdquina1
p167
I1
sVdg11dmm
p168
I1
sVdc1zmsq
p169
I1
sVd3s87an
p170
I1
sVd3w4mhd
p171
I2
sVdejdd1m
p172
I1
sVdpgp100
p173
I1
sVda6alrv
p174
I1
sVd77r4um
p175
I1
sVdfv8hl8
p176
I1
sVd96ck5w
p177
I1
sVd9lg8vk
p178
I2
sVd50g7xo
p179
I1
sVd89pccr
p180
I1
sVdhccvz2
p181
I2
sVdqmy00i
p182
I1
sVd1fp7p1
p183
I2
sVdbk2mz4
p184
I1
sVcyu1wal
p185
I1
sVdhgq1kb
p186
I1
sVdimandx
p187
I2
sVd1ds841
p188
I1
sVde7ek9c
p189
I1
sVd86tywo
p190
I1
sVczyd0uk
p191
I1
sVd8dydjx
p192
I1
sVdbs20xo
p193
I1
sVdpb2rdt
p194
I1
sVdk6dsyq
p195
I1
sVd8tmupu
p196
I1
sVdo2tz7m
p197
I1
sVdc1h4e5
p198
I1
sVd1whru8
p199
I1
sVd21w7go
p200
I1
sVdael0m6
p201
I1
sVdgeljl7
p202
I1
sVd68hdye
p203
I1
sVdbthck6
p204
I1
sVdbf8vp5
p205
I1
sVczx7fpo
p206
I1
sVczfdbei
p207
I1
sVdi4slwa
p208
I1
sVdcr9zgl
p209
I2
sVd7wftfk
p210
I1
sVcz6coir
p211
I1
sVdgetz8e
p212
I1
sVdh58ftw
p213
I1
sVdcj8tbz
p214
I1
sVdsofohu
p215
I1
sVd4h2ure
p216
I1
sVds0ol18
p217
I1
sVdoj2ly0
p218
I1
sVdgk1xac
p219
I1
sVdgnnp1h
p220
I1
sVd42419i
p221
I1
sVdfmrxp5
p222
I1
sVd1fl3ly
p223
I1
sVdeo3c93
p224
I1
sVd9w2v7e
p225
I1
sVdi0whef
p226
I1
sVd71k0jz
p227
I1
sVd4h2mci
p228
I1
sVd7b1a8e
p229
I1
sVd7avqxk
p230
I1
sVd6yg4tb
p231
I1
sVd8nrnkg
p232
I3
sVdgm5mrw
p233
I1
sVd1vxec3
p234
I1
sVdg2o467
p235
I1
sVd8y1y7r
p236
I1
sVd871cmi
p237
I1
sVd6cfx1i
p238
I1
sVd9de9au
p239
I1
sVdfxnm8b
p240
I1
sVdbih8ln
p241
I1
sVdil2w88
p242
I1
sVdrg9xro
p243
I1
sVd70pgxs
p244
I1
sVdnx2t1v
p245
I1
sVd154x1g
p246
I1
sVdoioqyv
p247
I1
sVddxuavx
p248
I1
sVd5xnou8
p249
I1
sVddq5sms
p250
I1
sVdhdkc38
p251
I1
sVd1zyba2
p252
I1
sVd42b13l
p253
I1
sVdj9da9e
p254
I1
sVd3af5fi
p255
I1
sVdd3twet
p256
I1
sVdqyk4vl
p257
I1
sVdbaulp7
p258
I1
sVdh0j4gt
p259
I1
sVcz4rvig
p260
I2
sVdj4jlwn
p261
I1
sVcz97r8s
p262
I1
sVdiuuy6h
p263
I1
sVd2f8y7o
p264
I1
sVdc0okpa
p265
I1
sVd47hnfi
p266
I1
sVdenvigf
p267
I1
sVde3l2ar
p268
I3
sVdtas91d
p269
I1
sVdeh1g9d
p270
I1
sVdjxagmt
p271
I1
sVd86fu0m
p272
I1
sVdrb5v8t
p273
I1
sVd6ptaai
p274
I1
sVd4qscms
p275
I1
sVd6b6l4x
p276
I2
sVd0rlg74
p277
I1
sVdej0rcg
p278
I1
sVdg8jjt2
p279
I1
sVdmq1wxi
p280
I1
sVdffp6k0
p281
I1
sVd7c8h4w
p282
I1
sVd1fvdtr
p283
I1
sVd3ya0sn
p284
I2
sVdqwa4qi
p285
I1
sVdcgdot6
p286
I1
sVd60i8jj
p287
I1
sVdo2bmlo
p288
I1
sVczqjjfh
p289
I1
sVdq00dyq
p290
I1
sVd6oylnq
p291
I1
sVd9ymwuv
p292
I1
sVd54i7fn
p293
I1
sVdfsv5xd
p294
I1
sVdna33ka
p295
I1
sVd81oxc1
p296
I1
sVd08scrc
p297
I1
sVdiuirzm
p298
I1
sVdoibyh1
p299
I1
sVddtfe5y
p300
I1
sVd7dh78b
p301
I1
sVd2elhjc
p302
I2
sVczggx45
p303
I1
sVd5iah9p
p304
I1
sVd3y9117
p305
I1
sVdingoj5
p306
I1
sVdbbd1be
p307
I1
sVd4vvsjf
p308
I1
sVd2iqfo6
p309
I1
sVdhc6bxy
p310
I1
sVd81z1xj
p311
I1
sVdnd742e
p312
I1
sVcyi8ilf
p313
I1
sVcywrowi
p314
I2
sVdjs9qht
p315
I1
sVdi7v1rp
p316
I2
sVd5sh2qk
p317
I1
sVd6vnzt8
p318
I1
sVdoyu7cf
p319
I1
sVd1d2brw
p320
I1
sVdf2iezp
p321
I1
sVdayspdm
p322
I1
sVd3sapxl
p323
I1
sVdqxfnbd
p324
I1
sVde8pzex
p325
I1
sVczavw9n
p326
I1
sVd0g06zd
p327
I1
sVd2j5boj
p328
I3
sVd8dzju3
p329
I1
sVdr882z9
p330
I1
sVd57qc0b
p331
I1
sVcynstx9
p332
I1
sVd3w5duj
p333
I1
sVd2bf1w0
p334
I1
sVd1pa6gk
p335
I1
sVd0ts243
p336
I1
sVdb24rx5
p337
I1
sVdk0enrl
p338
I1
sVdjlbx0i
p339
I1
sVdfsa46d
p340
I1
sVd1ek055
p341
I1
sVcyswa11
p342
I1
sVdgb4npa
p343
I1
sVcz466l7
p344
I1
sVd7ijrug
p345
I1
sVdqiqwyk
p346
I1
sVd5nnkq9
p347
I1
sVd6rll03
p348
I1
sVdcr5n2r
p349
I1
sVdkq4zsy
p350
I1
sVdbuydls
p351
I1
sVdkn2jc4
p352
I1
sVd1dt3ik
p353
I1
sVcyslnn8
p354
I1
sVd02fjrm
p355
I1
sVd64o94u
p356
I1
sVd6lmmje
p357
I1
sVdimf9a5
p358
I1
sVd1kylna
p359
I1
sVdjalu2w
p360
I2
sVdaoykn0
p361
I1
sVdsscav9
p362
I1
sVd9vqbw6
p363
I1
sVds2wkyz
p364
I1
sVdhjo81h
p365
I1
sVdo9qf9v
p366
I1
sVdr7aoaz
p367
I1
sVd1r5pft
p368
I1
sVdp5ptpk
p369
I1
sVd337dzd
p370
I1
sVd437m8c
p371
I1
sVdolya7n
p372
I1
sVd5i2uux
p373
I1
sVdeveva6
p374
I1
sVdabb6n5
p375
I1
sVdfal2zj
p376
I1
sVdb0w48c
p377
I1
sVd1jq0km
p378
I1
sVd43bepe
p379
I1
sVdndh978
p380
I1
sVdnd6ycy
p381
I1
sVdsebpy4
p382
I1
sVdadp1pa
p383
I1
sVdhtqhfw
p384
I1
sVdk899my
p385
I1
sVd8uy03e
p386
I1
sVdpjccig
p387
I1
sVdo7c0ps
p388
I1
sVdqqmc9s
p389
I1
sVdd07fa9
p390
I1
sVdqg4efp
p391
I1
sVd60ud8n
p392
I1
sVdg6v9r5
p393
I1
sVdmqggfg
p394
I4
sVdndawun
p395
I1
sVd324ear
p396
I1
sVdii8yfg
p397
I1
sVd5ctyig
p398
I1
sVd8cix4k
p399
I1
sVd2kkg60
p400
I1
sVd8j8lss
p401
I2
sVd0m250t
p402
I1
sVdeuopm9
p403
I1
sVd9054bj
p404
I1
sVczm9yuv
p405
I1
sVdf1gspt
p406
I1
sVd35mh6e
p407
I2
sVdmq2mm4
p408
I1
sVdiygdhz
p409
I2
sVd35grrr
p410
I1
sVdcijrbk
p411
I1
sVdba59pq
p412
I1
sVdmp1aah
p413
I1
sVdi0ky2m
p414
I1
sVdc2038s
p415
I1
sVdp5i39b
p416
I2
sVd8dxoyi
p417
I1
sVd6t8y25
p418
I2
sVd9heh5f
p419
I1
sVdn7wz0y
p420
I1
sVd6wn5lm
p421
I1
sVd3uriev
p422
I1
sVdoh9umk
p423
I1
sVd1ao42r
p424
I1
sVd9o94p1
p425
I1
sVdnc8tmz
p426
I1
sVdozeftu
p427
I1
sVdsjx83e
p428
I1
sVdjd41pc
p429
I1
sVczyc187
p430
I1
sVd2pvhav
p431
I1
sVd448pzv
p432
I1
sVd5m64nr
p433
I1
sVd1fmqc1
p434
I1
sVdbfziii
p435
I1
sVdaciqex
p436
I1
sVdepgjv3
p437
I1
sVdjixq3e
p438
I1
sVdepkio1
p439
I1
sVdgo4dvi
p440
I1
sVd45w02o
p441
I1
sVds4vmmg
p442
I1
sVdbpdxw4
p443
I1
sVdcu563w
p444
I1
sVd63q6kw
p445
I6
sVdk12cv6
p446
I1
sVdg8hy96
p447
I1
sVda600mf
p448
I1
sVd3n7sts
p449
I1
sVd99s8bc
p450
I1
sVdn67da9
p451
I1
sVddzzt53
p452
I1
sVcz1i13t
p453
I1
sVd3eegh0
p454
I1
sVd14qi3g
p455
I1
sVdn3d9fl
p456
I1
sVdbmp70v
p457
I1
sVdfrtctj
p458
I1
sVd27k1iy
p459
I2
sVczi9rg7
p460
I1
sVdeac2wn
p461
I1
sVczi904l
p462
I1
sVd6iw0u5
p463
I1
sVd4ekzde
p464
I1
sVcz1zf5l
p465
I1
sVdddoz3j
p466
I1
sVd6yahwk
p467
I1
sVd4p8sat
p468
I1
sVdad4ljx
p469
I1
sVd4pyhn5
p470
I1
sVde8ywcu
p471
I1
sVd70vw0m
p472
I3
sVdrqoy87
p473
I1
sVdmql30g
p474
I3
sVdjtfl51
p475
I1
sVdj4632s
p476
I1
sVd0lvt7l
p477
I1
sVd6wmwiw
p478
I1
sVd1hhol9
p479
I1
sVd0tgmaq
p480
I1
sVd8uo48v
p481
I1
sVd9ecbqf
p482
I1
sVdflv5z4
p483
I1
sVdevi7ax
p484
I1
sVd35afdm
p485
I1
sVd3n9rxe
p486
I1
sVdir841x
p487
I1
sVd17h7ek
p488
I1
sVdom2yb1
p489
I2
sVdf6o0f2
p490
I1
sVdmww6zz
p491
I2
sVdex7ih6
p492
I1
sVdf7oefc
p493
I1
sVd27jzhh
p494
I1
sVd0u0077
p495
I1
sVd0omzg9
p496
I1
sVdnperov
p497
I1
sVdf1jp4w
p498
I1
sVd1wkrhp
p499
I1
sVdjalvhx
p500
I1
sVd2tl8zf
p501
I1
sVd2ietvj
p502
I2
sVdn8l076
p503
I2
sVd7yimzr
p504
I1
sVdhjn6kv
p505
I2
sVdist4cb
p506
I1
sVd2palv4
p507
I1
sVcylu8cp
p508
I1
sVdgs9qfy
p509
I1
sVd7gs8fa
p510
I1
sVdmql87l
p511
I2
sVd0zq7yx
p512
I4
sVdar88jw
p513
I1
sVdkz43f6
p514
I1
s.