(dp0
Vcz4cfzx
p1
I1
s.(dp0
Vcz4cfzx
p1
I1
sVczl8sc1
p2
I1
s.(dp0
Vczon68e
p1
I1
sVcz4cfzx
p2
I1
s.(dp0
Vcz4cfzx
p1
I1
sVczwgmco
p2
I1
s.(dp0
Vczz9bxw
p1
I1
sVcz4cfzx
p2
I1
s.(dp0
Vczz9bxw
p1
I1
sVcz4cfzx
p2
I1
s.(dp0
Vcz4cfzx
p1
I1
sVd0jjr1m
p2
I1
s.(dp0
Vcz4cfzx
p1
I1
sVd16logy
p2
I1
s.(dp0
Vcz4cfzx
p1
I1
sVd1kpom5
p2
I1
s.(dp0
Vcz4cfzx
p1
I1
sVd2dvm6u
p2
I1
s.(dp0
Vcz4cfzx
p1
I1
sVd399l6f
p2
I1
s.(dp0
Vd3uign1
p1
I1
sVcz4cfzx
p2
I1
s.(dp0
Vd42vn8a
p1
I1
sVcz4cfzx
p2
I1
s.(dp0
Vd45wpzx
p1
I1
sVcz4cfzx
p2
I1
s.(dp0
Vd4ks7hv
p1
I1
sVcz4cfzx
p2
I1
s.(dp0
Vcz4cfzx
p1
I1
sVd5c8ij1
p2
I1
s.(dp0
Vd69coil
p1
I1
sVcz4cfzx
p2
I1
s.(dp0
Vcz4cfzx
p1
I1
sVd6idtuq
p2
I1
s.(dp0
Vcz4cfzx
p1
I1
sVd70ah3j
p2
I1
s.(dp0
Vcz4cfzx
p1
I1
sVd7x2hix
p2
I1
s.(dp0
Vcz4cfzx
p1
I1
sVdabe9z1
p2
I1
s.(dp0
Vdam2t5i
p1
I1
sVcz4cfzx
p2
I1
s.(dp0
Vcz4cfzx
p1
I1
sVdaqn9ih
p2
I1
s.(dp0
Vdbrbzv8
p1
I1
sVcz4cfzx
p2
I1
s.(dp0
Vcz4cfzx
p1
I1
sVdco85qd
p2
I1
s.(dp0
Vcz4cfzx
p1
I1
sVdct1yk3
p2
I1
s.(dp0
Vdcth6wp
p1
I1
sVcz4cfzx
p2
I1
s.(dp0
Vcz4cfzx
p1
I1
sVdcx2emq
p2
I1
s.(dp0
Vcz4cfzx
p1
I1
sVdf90cc4
p2
I1
s.(dp0
Vdfkn38o
p1
I1
sVcz4cfzx
p2
I1
s.(dp0
Vdfnwlud
p1
I1
sVcz4cfzx
p2
I1
s.(dp0
Vdg41zkn
p1
I1
sVcz4cfzx
p2
I1
s.(dp0
Vcz4cfzx
p1
I1
sVdg6cn2h
p2
I1
s.(dp0
Vcz4cfzx
p1
I1
sVdg9eqs3
p2
I1
s.(dp0
Vcz4cfzx
p1
I1
sVdgxv1y1
p2
I1
s.(dp0
Vcz4cfzx
p1
I1
sVdh34wjk
p2
I1
s.(dp0
Vcz4cfzx
p1
I1
sVdhpflsw
p2
I1
s.(dp0
Vcz4cfzx
p1
I1
sVdhzwudt
p2
I1
s.(dp0
Vcz4cfzx
p1
I1
sVdj7byjc
p2
I1
s.(dp0
Vdjk6bei
p1
I1
sVcz4cfzx
p2
I1
s.(dp0
Vcz4cfzx
p1
I1
sVdmn3nao
p2
I1
s.(dp0
Vcz4cfzx
p1
I1
sVdmn3nao
p2
I1
s.(dp0
Vcz4cfzx
p1
I1
sVdn342b3
p2
I1
s.(dp0
Vcz4cfzx
p1
I1
sVdnaxpbq
p2
I1
s.(dp0
Vdqh5vjn
p1
I1
sVcz4cfzx
p2
I1
s.(dp0
Vdr8px21
p1
I1
sVcz4cfzx
p2
I1
s.(dp0
Vcz4cfzx
p1
I1
sVdro9349
p2
I1
s.