(dp0
Vcyjykc6
p1
I1
s.(dp0
Vcyjykc6
p1
I1
sVcykneny
p2
I1
s.(dp0
Vcykwhvf
p1
I1
sVcyjykc6
p2
I1
s.(dp0
Vcyjykc6
p1
I1
sVcyl1r66
p2
I1
s.(dp0
Vcyjykc6
p1
I1
sVcz2w8ul
p2
I1
s.(dp0
Vcyjykc6
p1
I1
sVcz4asba
p2
I1
s.(dp0
Vcyjykc6
p1
I1
sVcz92i07
p2
I1
s.(dp0
Vczmnyqj
p1
I1
sVcyjykc6
p2
I1
s.(dp0
Vcyjykc6
p1
I1
sVcznfbps
p2
I1
s.(dp0
Vcyjykc6
p1
I1
sVczs9qqf
p2
I1
s.(dp0
Vcyjykc6
p1
I1
sVczsjowk
p2
I1
s.(dp0
Vcyjykc6
p1
I1
sVd047ih7
p2
I1
s.(dp0
Vcyjykc6
p1
I1
sVd0axpnc
p2
I1
s.(dp0
Vcyjykc6
p1
I1
sVd0f64nd
p2
I1
s.(dp0
Vcyjykc6
p1
I1
sVd0j333p
p2
I1
s.(dp0
Vd0kemup
p1
I1
sVcyjykc6
p2
I1
s.(dp0
Vd0kuusk
p1
I1
sVcyjykc6
p2
I1
s.(dp0
Vd0rlpfn
p1
I1
sVcyjykc6
p2
I1
s.(dp0
Vcyjykc6
p1
I1
sVd1tgh1p
p2
I1
s.(dp0
Vcyjykc6
p1
I1
sVd1vdc7m
p2
I1
s.(dp0
Vcyjykc6
p1
I1
sVd1vk6xm
p2
I1
s.(dp0
Vcyjykc6
p1
I1
sVd2867c6
p2
I1
s.(dp0
Vcyjykc6
p1
I1
sVd29yokx
p2
I1
s.(dp0
Vcyjykc6
p1
I1
sVd2hk0k8
p2
I1
s.(dp0
Vcyjykc6
p1
I1
sVd2qy31d
p2
I1
s.(dp0
Vcyjykc6
p1
I1
sVd2w2mx1
p2
I1
s.(dp0
Vcyjykc6
p1
I1
sVd2w2mx1
p2
I1
s.(dp0
Vcyjykc6
p1
I1
sVd2w64xm
p2
I1
s.(dp0
Vd2wnej7
p1
I1
sVcyjykc6
p2
I1
s.(dp0
Vcyjykc6
p1
I1
sVd36u1qy
p2
I1
s.(dp0
Vcyjykc6
p1
I1
sVd3d3roi
p2
I1
s.(dp0
Vcyjykc6
p1
I1
sVd3eptli
p2
I1
s.(dp0
Vcyjykc6
p1
I1
sVd3ezxnt
p2
I1
s.(dp0
Vcyjykc6
p1
I1
sVd3o2fd7
p2
I1
s.(dp0
Vd3ql9zd
p1
I1
sVcyjykc6
p2
I1
s.(dp0
Vcyjykc6
p1
I1
sVd3rb6u8
p2
I1
s.(dp0
Vcyjykc6
p1
I1
sVd3x3y0t
p2
I1
s.(dp0
Vcyjykc6
p1
I1
sVd402mph
p2
I1
s.(dp0
Vcyjykc6
p1
I1
sVd451kpb
p2
I1
s.(dp0
Vcyjykc6
p1
I1
sVd451kpb
p2
I1
s.(dp0
Vcyjykc6
p1
I1
sVd4ay7ns
p2
I1
s.(dp0
Vcyjykc6
p1
I1
sVd4jpb8l
p2
I1
s.(dp0
Vcyjykc6
p1
I1
sVd4n2ztc
p2
I1
s.(dp0
Vcyjykc6
p1
I1
sVd4or4v6
p2
I1
s.(dp0
Vcyjykc6
p1
I1
sVd4or4v6
p2
I1
s.(dp0
Vcyjykc6
p1
I1
sVd4or4v6
p2
I1
s.(dp0
Vcyjykc6
p1
I1
sVd4r33jb
p2
I1
s.(dp0
Vcyjykc6
p1
I1
sVd5cn1px
p2
I1
s.(dp0
Vcyjykc6
p1
I1
sVd5pyepd
p2
I1
s.(dp0
Vd5vro87
p1
I1
sVcyjykc6
p2
I1
s.(dp0
Vcyjykc6
p1
I1
sVd61brqf
p2
I1
s.(dp0
Vcyjykc6
p1
I1
sVd650988
p2
I1
s.(dp0
Vcyjykc6
p1
I1
sVd6c0lkz
p2
I1
s.(dp0
Vcyjykc6
p1
I1
sVd6f7og3
p2
I1
s.(dp0
Vd6fcvyz
p1
I1
sVcyjykc6
p2
I1
s.(dp0
Vcyjykc6
p1
I1
sVd6kar62
p2
I1
s.(dp0
Vcyjykc6
p1
I1
sVd6pi358
p2
I1
s.(dp0
Vcyjykc6
p1
I1
sVd7606uv
p2
I1
s.(dp0
Vcyjykc6
p1
I1
sVd7axuf0
p2
I1
s.(dp0
Vcyjykc6
p1
I1
sVd7bp0n9
p2
I1
s.(dp0
Vcyjykc6
p1
I1
sVd7sugvo
p2
I1
s.(dp0
Vcyjykc6
p1
I1
sVd84nm0z
p2
I1
s.(dp0
Vd8kn24i
p1
I1
sVcyjykc6
p2
I1
s.(dp0
Vd8xdf8x
p1
I1
sVcyjykc6
p2
I1
s.(dp0
Vd8zip5u
p1
I1
sVcyjykc6
p2
I1
s.(dp0
Vcyjykc6
p1
I1
sVd9ag18v
p2
I1
s.(dp0
Vd9aiyuh
p1
I1
sVcyjykc6
p2
I1
s.(dp0
Vcyjykc6
p1
I1
sVd9aub8f
p2
I1
s.(dp0
Vcyjykc6
p1
I1
sVd9hfyfy
p2
I1
s.(dp0
Vd9hhzxs
p1
I1
sVcyjykc6
p2
I1
s.(dp0
Vcyjykc6
p1
I1
sVd9ssn9s
p2
I1
s.(dp0
Vcyjykc6
p1
I1
sVdatlmto
p2
I1
s.(dp0
Vcyjykc6
p1
I1
sVdax24bc
p2
I1
s.(dp0
Vcyjykc6
p1
I1
sVdb6obon
p2
I1
s.(dp0
Vdb8xd44
p1
I1
sVcyjykc6
p2
I1
s.(dp0
Vcyjykc6
p1
I1
sVdba9mdr
p2
I1
s.(dp0
Vcyjykc6
p1
I1
sVdbdig9t
p2
I1
s.(dp0
Vcyjykc6
p1
I1
sVdbdig9t
p2
I1
s.(dp0
Vdbl0tzb
p1
I1
sVcyjykc6
p2
I1
s.(dp0
Vdbm0rry
p1
I1
sVcyjykc6
p2
I1
s.(dp0
Vcyjykc6
p1
I1
sVdbqfiw3
p2
I1
s.(dp0
Vdbv51si
p1
I1
sVcyjykc6
p2
I1
s.(dp0
Vcyjykc6
p1
I1
sVdby7dqu
p2
I1
s.(dp0
Vcyjykc6
p1
I1
sVdc0rfp5
p2
I1
s.(dp0
Vdc1xv6n
p1
I1
sVcyjykc6
p2
I1
s.(dp0
Vcyjykc6
p1
I1
sVdcgh142
p2
I1
s.(dp0
Vcyjykc6
p1
I1
sVdcq1s93
p2
I1
s.(dp0
Vcyjykc6
p1
I1
sVdd0mric
p2
I1
s.(dp0
Vdd1h2k9
p1
I1
sVcyjykc6
p2
I1
s.(dp0
Vcyjykc6
p1
I1
sVdd40bxd
p2
I1
s.(dp0
Vcyjykc6
p1
I1
sVddcn56n
p2
I1
s.(dp0
Vcyjykc6
p1
I1
sVddcn56n
p2
I1
s.(dp0
Vcyjykc6
p1
I1
sVddcofgk
p2
I1
s.(dp0
Vcyjykc6
p1
I1
sVddgmcwf
p2
I1
s.(dp0
Vcyjykc6
p1
I1
sVddibk82
p2
I1
s.(dp0
Vcyjykc6
p1
I1
sVddj9cdo
p2
I1
s.(dp0
Vddl9zdw
p1
I1
sVcyjykc6
p2
I1
s.(dp0
Vddl9zdw
p1
I1
sVcyjykc6
p2
I1
s.(dp0
Vddl9zdw
p1
I1
sVcyjykc6
p2
I1
s.(dp0
Vddl9zdw
p1
I1
sVcyjykc6
p2
I1
s.(dp0
Vcyjykc6
p1
I1
sVddp2xzl
p2
I1
s.(dp0
Vddsquhr
p1
I1
sVcyjykc6
p2
I1
s.(dp0
Vddtgn01
p1
I1
sVcyjykc6
p2
I1
s.(dp0
Vcyjykc6
p1
I1
sVdeejs68
p2
I1
s.(dp0
Vcyjykc6
p1
I1
sVdegsobf
p2
I1
s.(dp0
Vcyjykc6
p1
I1
sVdf38duh
p2
I1
s.(dp0
Vcyjykc6
p1
I1
sVdf3s9la
p2
I1
s.(dp0
Vcyjykc6
p1
I1
sVdf6amx5
p2
I1
s.(dp0
Vcy(dp0
Vcyjykc6
p1
I1
sVdtfpv3h
p2
I1
s.