(dp0
Vcyikqoq
p1
I1
s.(dp0
Vcyikqoq
p1
I1
sVcyj116d
p2
I1
s.(dp0
Vcyj3muf
p1
I1
sVcyikqoq
p2
I1
s.(dp0
Vcyikqoq
p1
I1
sVcyjhv6t
p2
I1
s.(dp0
Vcyikqoq
p1
I1
sVcyl0rpc
p2
I1
s.(dp0
Vcyikqoq
p1
I1
sVcylap2q
p2
I1
s.(dp0
Vcyikqoq
p1
I1
sVcylap2q
p2
I1
s.(dp0
Vcyikqoq
p1
I1
sVcyn1757
p2
I1
s.(dp0
Vcyikqoq
p1
I1
sVcyn1757
p2
I1
s.(dp0
Vcyikqoq
p1
I1
sVcyn77tl
p2
I1
s.(dp0
Vcyp7o3q
p1
I1
sVcyikqoq
p2
I1
s.(dp0
Vcyikqoq
p1
I1
sVcypsjwi
p2
I1
s.(dp0
Vcyikqoq
p1
I1
sVcypxptn
p2
I1
s.(dp0
Vcyikqoq
p1
I1
sVcyqavii
p2
I1
s.(dp0
Vcyikqoq
p1
I1
sVcyqavii
p2
I1
s.(dp0
Vcyikqoq
p1
I1
sVcyqavii
p2
I1
s.(dp0
Vcyikqoq
p1
I1
sVcyqavii
p2
I1
s.(dp0
Vcyikqoq
p1
I1
sVcyr2szn
p2
I1
s.(dp0
Vcyikqoq
p1
I1
sVcyr2szn
p2
I1
s.(dp0
Vcyikqoq
p1
I1
sVcyrod2x
p2
I1
s.(dp0
Vcyikqoq
p1
I1
sVcyrod2x
p2
I1
s.(dp0
Vcyikqoq
p1
I1
sVcyrod2x
p2
I1
s.(dp0
Vcyikqoq
p1
I1
sVcyrod2x
p2
I1
s.(dp0
Vcyikqoq
p1
I1
sVcyrod2x
p2
I1
s.(dp0
Vcyikqoq
p1
I1
sVcyu0d8c
p2
I1
s.(dp0
Vcyikqoq
p1
I1
sVcyuh9vz
p2
I1
s.(dp0
Vcyikqoq
p1
I1
sVcyvfsud
p2
I1
s.(dp0
Vcyxegtb
p1
I1
sVcyikqoq
p2
I1
s.(dp0
Vcyikqoq
p1
I1
sVcyxxtm6
p2
I1
s.(dp0
Vcyikqoq
p1
I1
sVcz1duh0
p2
I1
s.(dp0
Vcyikqoq
p1
I1
sVcz1jz0t
p2
I1
s.(dp0
Vcyikqoq
p1
I1
sVcz2p2vf
p2
I1
s.(dp0
Vcyikqoq
p1
I1
sVcz474zz
p2
I1
s.(dp0
Vcz5qwqd
p1
I1
sVcyikqoq
p2
I1
s.(dp0
Vcz8hib8
p1
I1
sVcyikqoq
p2
I1
s.(dp0
Vcz95xwa
p1
I1
sVcyikqoq
p2
I1
s.(dp0
Vcz95xwa
p1
I1
sVcyikqoq
p2
I1
s.(dp0
Vcz95xwa
p1
I1
sVcyikqoq
p2
I1
s.(dp0
Vcyikqoq
p1
I1
sVcz9aebm
p2
I1
s.(dp0
Vcyikqoq
p1
I1
sVczdzv8m
p2
I1
s.(dp0
Vcyikqoq
p1
I1
sVcze18v0
p2
I1
s.(dp0
Vczewys7
p1
I1
sVcyikqoq
p2
I1
s.(dp0
Vczfpkxk
p1
I1
sVcyikqoq
p2
I1
s.(dp0
Vcyikqoq
p1
I1
sVczg57an
p2
I1
s.(dp0
Vczgsnwo
p1
I1
sVcyikqoq
p2
I1
s.(dp0
Vcyikqoq
p1
I1
sVczh63kn
p2
I1
s.(dp0
Vcyikqoq
p1
I1
sVczhfsat
p2
I1
s.(dp0
Vcyikqoq
p1
I1
sVczhfxzh
p2
I1
s.(dp0
Vcyikqoq
p1
I1
sVczhkr5l
p2
I1
s.(dp0
Vcyikqoq
p1
I1
sVczit9pd
p2
I1
s.(dp0
Vcyikqoq
p1
I1
sVczkgnbb
p2
I1
s.(dp0
Vcyikqoq
p1
I1
sVczn9ct1
p2
I1
s.(dp0
Vcznuonw
p1
I1
sVcyikqoq
p2
I1
s.(dp0
Vcyikqoq
p1
I1
sVczqhqzk
p2
I1
s.(dp0
Vcyikqoq
p1
I1
sVczr45pk
p2
I1
s.(dp0
Vcyikqoq
p1
I1
sVczrgtrt
p2
I1
s.(dp0
Vcyikqoq
p1
I1
sVczrk0ja
p2
I1
s.(dp0
Vcyikqoq
p1
I1
sVczrk0ja
p2
I1
s.(dp0
Vcyikqoq
p1
I1
sVczsi7gb
p2
I1
s.(dp0
Vcyikqoq
p1
I1
sVczt859b
p2
I1
s.(dp0
Vcyikqoq
p1
I1
sVczt859b
p2
I1
s.(dp0
Vcyikqoq
p1
I1
sVcztdyq6
p2
I1
s.(dp0
Vcyikqoq
p1
I1
sVczuxyy3
p2
I1
s.(dp0
Vcyikqoq
p1
I1
sVczuyvoi
p2
I1
s.(dp0
Vcyikqoq
p1
I1
sVczuyvoi
p2
I1
s.(dp0
Vcyikqoq
p1
I1
sVczuyvoi
p2
I1
s.(dp0
Vcyikqoq
p1
I1
sVczuyvoi
p2
I1
s.(dp0
Vcyikqoq
p1
I1
sVczuyvoi
p2
I1
s.(dp0
Vcyikqoq
p1
I1
sVczvp2ny
p2
I1
s.(dp0
Vcyikqoq
p1
I1
sVczw2q3t
p2
I1
s.(dp0
Vcyikqoq
p1
I1
sVczw2q3t
p2
I1
s.(dp0
Vczw4294
p1
I1
sVcyikqoq
p2
I1
s.(dp0
Vczw4294
p1
I1
sVcyikqoq
p2
I1
s.(dp0
Vcyikqoq
p1
I1
sVczwd2xb
p2
I1
s.(dp0
Vcyikqoq
p1
I1
sVczwj1xl
p2
I1
s.(dp0
Vcyikqoq
p1
I1
sVczxnwan
p2
I1
s.(dp0
Vd0092kk
p1
I1
sVcyikqoq
p2
I1
s.(dp0
Vcyikqoq
p1
I1
sVd012mw8
p2
I1
s.(dp0
Vcyikqoq
p1
I1
sVd01aldx
p2
I1
s.(dp0
Vcyikqoq
p1
I1
sVd02075s
p2
I1
s.(dp0
Vcyikqoq
p1
I1
sVd047izk
p2
I1
s.(dp0
Vcyikqoq
p1
I1
sVd04j71u
p2
I1
s.(dp0
Vcyikqoq
p1
I1
sVd06bhas
p2
I1
s.(dp0
Vcyikqoq
p1
I1
sVd07frrh
p2
I1
s.(dp0
Vcyikqoq
p1
I1
sVd07i5hg
p2
I1
s.(dp0
Vcyikqoq
p1
I1
sVd07j9cy
p2
I1
s.(dp0
Vd094o3m
p1
I1
sVcyikqoq
p2
I1
s.(dp0
Vcyikqoq
p1
I1
sVd0b5we2
p2
I1
s.(dp0
Vcyikqoq
p1
I1
sVd0b5we2
p2
I1
s.(dp0
Vcyikqoq
p1
I1
sVd0c11rz
p2
I1
s.(dp0
Vcyikqoq
p1
I1
sVd0cla8x
p2
I1
s.(dp0
Vd0craud
p1
I1
sVcyikqoq
p2
I1
s.(dp0
Vd0craud
p1
I1
sVcyikqoq
p2
I1
s.(dp0
Vcyikqoq
p1
I1
sVd0cssym
p2
I1
s.(dp0
Vcyikqoq
p1
I1
sVd0cssym
p2
I1
s.(dp0
Vcyikqoq
p1
I1
sVd0cssym
p2
I1
s.(dp0
Vcyikqoq
p1
I1
sVd0cssym
p2
I1
s.(dp0
Vd0fqbi3
p1
I1
sVcyikqoq
p2
I1
s.(dp0
Vcyikqoq
p1
I1
sVd0gwv2j
p2
I1
s.(dp0
Vcyikqoq
p1
I1
sVd0j6qix
p2
I1
s.(dp0
Vcyikqoq
p1
I1
sVd0jgpzh
p2
I1
s.(dp0
Vcyikqoq
p1
I1
sVd0jlq9h
p2
I1
s.(dp0
Vcyikqoq
p1
I1
sVd0kriqg
p2
I1
s.(dp0
Vd0miisu
p1
I1
sVcyikqoq
p2
I1
s.(dp0
Vcyikqoq
p1
I1
sVd0msz3f
p2
I1
s.(dp0
Vcyikqoq
p1
I1
sVd0nazux
p2
I1
s.(dp0
Vcyikqoq
p1
I1
sVd0ny9lz
p2
I1
s.(dp0
Vcyikqoq
p1
I1
sVd0o925d
p2
I1
s.(dp0
Vcy(dp0
Vcyikqoq
p1
I1
sVdtj40vy
p2
I1
s.