(dp0
Vcypsu7b
p1
I1
s.(dp0
Vcypsu7b
p1
I2
s.(dp0
Vcypsu7b
p1
I1
sVcz5c8l9
p2
I1
s.(dp0
Vd1tbz0v
p1
I1
sVcypsu7b
p2
I1
s.(dp0
Vd28ibrc
p1
I1
sVcypsu7b
p2
I1
s.(dp0
Vcypsu7b
p1
I1
sVd28tys0
p2
I1
s.(dp0
Vcypsu7b
p1
I1
sVd31kn56
p2
I1
s.(dp0
Vd4hanbq
p1
I1
sVcypsu7b
p2
I1
s.(dp0
Vd61tvnl
p1
I1
sVcypsu7b
p2
I1
s.(dp0
Vd6h1rtr
p1
I1
sVcypsu7b
p2
I1
s.(dp0
Vd6ju28b
p1
I1
sVcypsu7b
p2
I1
s.(dp0
Vcypsu7b
p1
I1
sVd8oftx8
p2
I1
s.(dp0
Vcypsu7b
p1
I1
sVdacqaxt
p2
I1
s.(dp0
Vdauifl3
p1
I1
sVcypsu7b
p2
I1
s.(dp0
Vdbx5cv4
p1
I1
sVcypsu7b
p2
I1
s.(dp0
Vcypsu7b
p1
I1
sVddrje29
p2
I1
s.(dp0
Vdeawkin
p1
I1
sVcypsu7b
p2
I1
s.(dp0
Vdgit7am
p1
I1
sVcypsu7b
p2
I1
s.(dp0
Vcypsu7b
p1
I1
sVdi3kiua
p2
I1
s.(dp0
Vdjv0sqb
p1
I1
sVcypsu7b
p2
I1
s.(dp0
Vcypsu7b
p1
I1
sVdjxncaj
p2
I1
s.(dp0
Vcypsu7b
p1
I1
sVdkn6abc
p2
I1
s.(dp0
Vdmhfyzu
p1
I1
sVcypsu7b
p2
I1
s.(dp0
Vcypsu7b
p1
I1
sVdndz0t2
p2
I1
s.(dp0
Vcypsu7b
p1
I1
sVdnwn89e
p2
I1
s.(dp0
Vdnwnglg
p1
I1
sVcypsu7b
p2
I1
s.(dp0
Vcypsu7b
p1
I1
sVdoh964d
p2
I1
s.(dp0
Vdqb6cm3
p1
I1
sVcypsu7b
p2
I1
s.(dp0
Vdrgis0t
p1
I1
sVcypsu7b
p2
I1
s.(dp0
Vcypsu7b
p1
I1
sVds1i8kb
p2
I1
s.(dp0
Vcypsu7b
p1
I1
sVdtdsg5c
p2
I1
s.