(dp0
Vcykh2ue
p1
I1
s.(dp0
Vcykh2ue
p1
I1
sVcywx6rw
p2
I1
s.(dp0
Vcykh2ue
p1
I1
sVczf4cva
p2
I1
s.(dp0
Vcykh2ue
p1
I1
sVczgegdh
p2
I1
s.(dp0
Vcykh2ue
p1
I1
sVczqv5ug
p2
I1
s.(dp0
Vcykh2ue
p1
I1
sVczqv5ug
p2
I1
s.(dp0
Vcykh2ue
p1
I1
sVd048guh
p2
I1
s.(dp0
Vcykh2ue
p1
I1
sVd0c3o8l
p2
I1
s.(dp0
Vcykh2ue
p1
I1
sVd33z9xb
p2
I1
s.(dp0
Vcykh2ue
p1
I1
sVd4ttjol
p2
I1
s.(dp0
Vcykh2ue
p1
I1
sVd6v9m0d
p2
I1
s.(dp0
Vcykh2ue
p1
I1
sVd7afr3x
p2
I1
s.(dp0
Vcykh2ue
p1
I1
sVd86udw3
p2
I1
s.(dp0
Vcykh2ue
p1
I1
sVd86udw3
p2
I1
s.(dp0
Vcykh2ue
p1
I1
sVd87vmiq
p2
I1
s.(dp0
Vcykh2ue
p1
I1
sVd88nmux
p2
I1
s.(dp0
Vcykh2ue
p1
I1
sVd95wo9s
p2
I1
s.(dp0
Vcykh2ue
p1
I1
sVd95wo9s
p2
I1
s.(dp0
Vcykh2ue
p1
I1
sVd95wo9s
p2
I1
s.(dp0
Vcykh2ue
p1
I1
sVd95wo9s
p2
I1
s.(dp0
Vcykh2ue
p1
I1
sVd95wo9s
p2
I1
s.(dp0
Vcykh2ue
p1
I1
sVd9bgh5u
p2
I1
s.(dp0
Vcykh2ue
p1
I1
sVd9bgh5u
p2
I1
s.(dp0
Vcykh2ue
p1
I1
sVd9bgh5u
p2
I1
s.(dp0
Vcykh2ue
p1
I1
sVd9bgh5u
p2
I1
s.(dp0
Vcykh2ue
p1
I1
sVd9gs1yx
p2
I1
s.(dp0
Vcykh2ue
p1
I1
sVd9gs1yx
p2
I1
s.(dp0
Vcykh2ue
p1
I1
sVda2h3n7
p2
I1
s.(dp0
Vcykh2ue
p1
I1
sVdam5a90
p2
I1
s.(dp0
Vcykh2ue
p1
I1
sVddwqicw
p2
I1
s.(dp0
Vcykh2ue
p1
I1
sVddyeaoz
p2
I1
s.(dp0
Vcykh2ue
p1
I1
sVdeljf6n
p2
I1
s.(dp0
Vcykh2ue
p1
I1
sVdelmag1
p2
I1
s.(dp0
Vcykh2ue
p1
I1
sVdeopydm
p2
I1
s.(dp0
Vcykh2ue
p1
I1
sVdesos0b
p2
I1
s.(dp0
Vcykh2ue
p1
I1
sVdfw9rd5
p2
I1
s.(dp0
Vcykh2ue
p1
I1
sVdfwm4vl
p2
I1
s.(dp0
Vcykh2ue
p1
I1
sVdjw8vam
p2
I1
s.(dp0
Vcykh2ue
p1
I1
sVdndlwwd
p2
I1
s.(dp0
Vcykh2ue
p1
I1
sVdofo5ua
p2
I1
s.