(dp0
Vdimsvme
p1
I1
sVdbqdaoy
p2
I1
sVdf8coss
p3
I1
sVd47e8m9
p4
I1
sVdqma9rr
p5
I1
sVcze1xbp
p6
I1
sVdnwfq8b
p7
I2
sVds1ifsx
p8
I1
sVd8byop3
p9
I1
sVdbpxb71
p10
I1
sVdhms6kx
p11
I1
sVd664tsg
p12
I1
sVcz0b9fo
p13
I1
sVd12unjv
p14
I1
sVd3hgrqg
p15
I1
sVdtb0f4h
p16
I1
sVd3amwi0
p17
I1
sVd07tdka
p18
I1
sVd4kx2li
p19
I1
sVdcngab1
p20
I1
sVd058lvc
p21
I1
sVd30aa9n
p22
I1
sVczit34v
p23
I1
sVdd0nvmf
p24
I1
sVdjkm6s4
p25
I1
sVd7vzzd9
p26
I1
sVcz2l1or
p27
I1
sVdsvu18l
p28
I2
sVdd1fh4k
p29
I3
sVd0kkznl
p30
I1
sVd7nes4s
p31
I1
sVd6hex0n
p32
I2
sVdd09i4d
p33
I1
sVdi89g6t
p34
I1
sVd8rj6t0
p35
I2
sVdcsz32f
p36
I1
sVdsw83ob
p37
I2
sVdnscmt9
p38
I1
sVds10wja
p39
I1
sVd0if27z
p40
I1
sVd28egpb
p41
I1
sVdd0jlpp
p42
I1
sVdmvhm8i
p43
I3
sVde2i3yh
p44
I2
sVdk7pnju
p45
I1
sVd0w4guz
p46
I1
sVdmve8t0
p47
I1
sVdfh7dqq
p48
I1
sVd509a1m
p49
I1
sVd2bqx1e
p50
I1
sVd5qj8f2
p51
I1
sVdhlyjgk
p52
I1
sVd40pfz6
p53
I1
sVdkg9ndh
p54
I1
sVd0ozpnt
p55
I1
sVdhsv89c
p56
I1
sVdf32s0s
p57
I1
sVd8j61sr
p58
I2
sVdsppuhe
p59
I1
sVdcwv6os
p60
I1
sVdh4kqkb
p61
I1
sVdebb9yt
p62
I1
sVdpwuxwq
p63
I1
sVdkcieyp
p64
I1
sVdd1ktc9
p65
I1
sVdnwnsli
p66
I3
sVd0luecn
p67
I1
sVdh676h3
p68
I1
sVdekusxf
p69
I2
sVde1com3
p70
I1
sVd7ykuq3
p71
I2
sVdaiuq7a
p72
I1
sVdgtkwq7
p73
I1
sVdcj1o53
p74
I1
sVdf4e0q5
p75
I1
sVd2bqz2c
p76
I2
sVd2hhmo0
p77
I2
sVdix3lvc
p78
I1
sVd3mcssk
p79
I1
sVd2k4q3v
p80
I1
sVd5krb0a
p81
I1
sVdbzj3dp
p82
I1
sVdrgdnw5
p83
I1
sVd0jhcpz
p84
I1
sVd9bgtyi
p85
I1
sVdd7cieq
p86
I2
sVd0a4am3
p87
I1
sVd67tji6
p88
I1
sVcypzup3
p89
I1
sVd0n37ua
p90
I1
sVdbjawlk
p91
I1
sVdfz3pb5
p92
I1
sVdh993gn
p93
I1
sVdsvshjt
p94
I1
sVdsvivnt
p95
I1
sVd1i3x54
p96
I1
sVd4v7pwx
p97
I2
sVd15nmsi
p98
I1
sVd1yfa38
p99
I1
sVdmvtu8j
p100
I1
sVdfgsstg
p101
I2
sVd0hb9om
p102
I1
sVd1w79n8
p103
I1
sVd2breui
p104
I2
sVdci52f3
p105
I1
sVd6hcgco
p106
I1
sVdrx6xnl
p107
I1
sVdj1vzvv
p108
I1
sVdpmnyxs
p109
I2
sVd8vt5zm
p110
I4
sVdsvmzhc
p111
I1
sVdgykc55
p112
I1
sVditqsja
p113
I1
sVdb57xwh
p114
I1
sVd19hxk4
p115
I2
sVd3ruqke
p116
I1
sVcz85v7b
p117
I1
sVdoazntf
p118
I1
sVdjjshh3
p119
I3
sVdazrstn
p120
I1
sVdtihnia
p121
I2
sVdcl014o
p122
I1
sVdqmmx36
p123
I1
sVd40wp1j
p124
I1
sVddhbuds
p125
I1
sVd7haubz
p126
I1
sVdjep3ki
p127
I2
sVdmzu52g
p128
I1
sVdexrdrk
p129
I1
sVdf4p885
p130
I1
sVd5po0nn
p131
I1
sVd9xqtoh
p132
I2
sVdtb3ytw
p133
I1
sVd3b17me
p134
I1
sVdazpdh4
p135
I1
sVd1lzxxx
p136
I1
sVczzykii
p137
I1
sVcztosry
p138
I1
sVdjohr3h
p139
I1
sVd7ym0wn
p140
I1
sVd54yz99
p141
I1
sVdq46prp
p142
I2
sVdi5j4sd
p143
I1
sVd6166n5
p144
I1
sVdqdevfx
p145
I2
sVd2k6s9v
p146
I2
sVd5brcbp
p147
I1
sVd2kg5ef
p148
I1
sVdr6ke3e
p149
I1
sVdsvsspd
p150
I1
sVd9c5v8m
p151
I1
sVcz6fxmw
p152
I1
sVdd1i0uq
p153
I1
sVd4g77hx
p154
I1
sVdf1o99j
p155
I1
sVdqpe0v2
p156
I1
sVdhghxjb
p157
I1
sVds4rei1
p158
I1
sVdkcki3p
p159
I1
sVd0vcvjb
p160
I1
sVdihpjb4
p161
I1
sVdd4knb0
p162
I1
sVd1ajtsu
p163
I1
sVdkfeyda
p164
I1
sVd9lg8vk
p165
I1
sVd7yxou1
p166
I2
sVd2w9pwc
p167
I1
sVdg275ub
p168
I1
sVdf87efn
p169
I1
sVd6gka3d
p170
I1
sVdcaxx43
p171
I1
sVd1616q1
p172
I1
sVczec31x
p173
I1
sVczyp18q
p174
I1
sVdoovs5w
p175
I1
sVdixgawh
p176
I1
sVd05b3ui
p177
I1
sVd5ho1x3
p178
I1
sVdgh10u6
p179
I1
sVdcz19je
p180
I1
sVd0lgazs
p181
I1
sVdc7353z
p182
I1
sVd5k6fyo
p183
I1
sVdd0ptl7
p184
I1
sVd7mmnyv
p185
I2
sVdd0o7ga
p186
I1
sVd5pyepd
p187
I2
sVcz3diyt
p188
I1
sVdp0wkl8
p189
I1
sVdd3je0q
p190
I2
sVd1xjzjo
p191
I2
sVd62rgfo
p192
I1
sVd7yl68p
p193
I1
sVdhdv1yx
p194
I1
sVd9end18
p195
I1
sVdn3csj1
p196
I1
sVd4pjzrb
p197
I1
sVd4hzmbj
p198
I1
sVdewtoxj
p199
I1
sVdd0pp3e
p200
I1
sVd6ac8wi
p201
I1
sVdj6pkpq
p202
I1
sVd09fxwg
p203
I1
sVczdqut0
p204
I1
sVczdygp4
p205
I1
sVdp268fs
p206
I1
sVdr5ahgu
p207
I1
sVdhqf1xa
p208
I1
sVd1zrgzl
p209
I1
sVdmtpwdm
p210
I1
sVczclfqu
p211
I1
sVdefb4t4
p212
I2
sVd0ifoe7
p213
I1
sVd40xsxp
p214
I2
sVdndrrjw
p215
I1
sVdgqv2qe
p216
I2
sVdnj2qpt
p217
I3
sVd9xwvml
p218
I1
sVd5az5qn
p219
I1
sVd7y6cnw
p220
I1
sVdh8qn9r
p221
I1
sVdkprjtz
p222
I1
sVd304emy
p223
I1
sVdbyxzs6
p224
I1
sVdfnrnty
p225
I1
sVdrq5pvj
p226
I1
sVdbwjnym
p227
I5
sVdeqwt9f
p228
I1
sVd7i9x0t
p229
I1
sVdcppby2
p230
I2
sVdd1cz2i
p231
I1
sVdbbw0in
p232
I1
sVdh7uagb
p233
I1
sVd9vbq38
p234
I1
sVd1i4mr8
p235
I1
sVdpasj0n
p236
I1
sVdrogq6q
p237
I1
sVd0epe0v
p238
I1
sVd6dig25
p239
I1
sVczjyp3a
p240
I1
sVd00h4ye
p241
I1
sVczdkghg
p242
I1
sVdppjnfd
p243
I1
sVdd0l6xb
p244
I1
sVdk7ckb5
p245
I2
sVdaqtntl
p246
I1
sVdbza4jf
p247
I1
sVdnvi24g
p248
I1
sVdau4kfa
p249
I1
sVdh8q7ex
p250
I1
sVdbatirg
p251
I1
sVd40vf7l
p252
I1
sVdfnxrl2
p253
I1
sVd32qz7u
p254
I2
sVdduhqh4
p255
I1
sVdied7bt
p256
I3
sVdendsyf
p257
I1
sVds184ur
p258
I1
sVd54uxfy
p259
I1
sVd4i91up
p260
I1
sVdollb8y
p261
I1
sVd7y7qgm
p262
I1
sVdpbamu8
p263
I1
sVcziq6na
p264
I1
sVdmvcoz0
p265
I1
sVdggt6b5
p266
I1
sVczdtatz
p267
I1
sVde2jpbu
p268
I2
sVdc0w3xh
p269
I1
sVd8bkx4g
p270
I2
sVddqcdoe
p271
I1
sVdkmj7ww
p272
I1
sVd4powr0
p273
I1
sVdc3qtd2
p274
I1
sVdgxo6wi
p275
I1
sVd6hbfjy
p276
I4
sVd5xkvu4
p277
I1
sVdqrnq4m
p278
I1
sVd1s3tov
p279
I1
sVdsmc28b
p280
I1
sVdoox5cp
p281
I1
sVd2um1bg
p282
I1
sVcyis4ji
p283
I2
sVdg7sreq
p284
I1
sVd1h7uw3
p285
I1
sVcznzb7n
p286
I1
sVdpe6uqb
p287
I1
sVdmf9hpy
p288
I2
sVdasqhp5
p289
I1
sVd6h9987
p290
I1
sVdmz3z8v
p291
I1
sVdnpkrbh
p292
I2
sVczuegim
p293
I2
sVdftfn5t
p294
I1
sVdmuf6ew
p295
I1
sVd4kmqnf
p296
I1
sVd3jewl7
p297
I1
sVdrufgz3
p298
I2
sVdg5mwro
p299
I1
sVdew4jps
p300
I1
sVd72z4ti
p301
I1
sVdj1tww0
p302
I1
sVd8by5en
p303
I1
sVdcjkfzr
p304
I1
sVdp7nnhf
p305
I1
sVdbahgwq
p306
I1
s.