(dp0
Vd19mp3s
p1
I1
sVdinnx9i
p2
I1
sVd6z9umj
p3
I1
sVd61hr29
p4
I1
sVdr0pece
p5
I1
sVd0yihs1
p6
I1
sVddhlssx
p7
I1
sVd1l8i2d
p8
I1
sVdggkv1l
p9
I2
sVdbmy7c3
p10
I3
sVdaludm7
p11
I1
sVd355vwk
p12
I1
sVd9687kr
p13
I1
sVdd1r02v
p14
I1
sVdczcj57
p15
I1
sVddu7vqa
p16
I1
sVdgsji3z
p17
I1
sVdeetfcg
p18
I1
sVd811ahr
p19
I2
sVdceinar
p20
I1
sVd367obp
p21
I1
sVd3nzk5e
p22
I1
sVdp5dip7
p23
I1
sVcz83m0m
p24
I1
sVd8pejco
p25
I1
sVdha13dt
p26
I1
sVdaitsvf
p27
I1
sVd9yu666
p28
I1
sVd3kx07q
p29
I1
sVdh883uc
p30
I1
sVd87jkae
p31
I1
sVd08fg37
p32
I1
sVdh6xgs3
p33
I1
sVd9d3rdf
p34
I1
sVd050q5j
p35
I2
sVd43kuph
p36
I1
sVdi5v7da
p37
I1
sVd19530g
p38
I1
sVdks130k
p39
I1
sVd0g2uni
p40
I1
s.