(dp0
Vcyi9rur
p1
I1
s.(dp0
Vcyihzjx
p1
I1
sVcyi9rur
p2
I1
s.(dp0
Vcyiluuk
p1
I1
sVcyi9rur
p2
I1
s.(dp0
Vcyimf91
p1
I1
sVcyi9rur
p2
I1
s.(dp0
Vcyka2z1
p1
I1
sVcyi9rur
p2
I1
s.(dp0
Vcyi9rur
p1
I1
sVcyn77tl
p2
I1
s.(dp0
Vcyi9rur
p1
I1
sVcyn7nc0
p2
I1
s.(dp0
Vcyn981u
p1
I1
sVcyi9rur
p2
I1
s.(dp0
Vcyn981u
p1
I1
sVcyi9rur
p2
I1
s.(dp0
Vcyngd2m
p1
I1
sVcyi9rur
p2
I1
s.(dp0
Vcypduz0
p1
I1
sVcyi9rur
p2
I1
s.(dp0
Vcypqvph
p1
I1
sVcyi9rur
p2
I1
s.(dp0
Vcypr9h4
p1
I1
sVcyi9rur
p2
I1
s.(dp0
Vcyrv3pf
p1
I1
sVcyi9rur
p2
I1
s.(dp0
Vcysaco5
p1
I1
sVcyi9rur
p2
I1
s.(dp0
Vcyspqro
p1
I1
sVcyi9rur
p2
I1
s.(dp0
Vcyv0z68
p1
I1
sVcyi9rur
p2
I1
s.(dp0
Vcyvs9ho
p1
I1
sVcyi9rur
p2
I1
s.(dp0
Vcyi9rur
p1
I1
sVcyz4wxa
p2
I1
s.(dp0
Vcyznlfl
p1
I1
sVcyi9rur
p2
I1
s.(dp0
Vcyzydst
p1
I1
sVcyi9rur
p2
I1
s.(dp0
Vcyzz6ru
p1
I1
sVcyi9rur
p2
I1
s.(dp0
Vcz026qa
p1
I1
sVcyi9rur
p2
I1
s.(dp0
Vcz1rl21
p1
I1
sVcyi9rur
p2
I1
s.(dp0
Vcz4diet
p1
I1
sVcyi9rur
p2
I1
s.(dp0
Vcz58uc6
p1
I1
sVcyi9rur
p2
I1
s.(dp0
Vcz7tn6p
p1
I1
sVcyi9rur
p2
I1
s.(dp0
Vcz7tn6p
p1
I1
sVcyi9rur
p2
I1
s.(dp0
Vcz7v7lf
p1
I1
sVcyi9rur
p2
I1
s.(dp0
Vcyi9rur
p1
I1
sVcz80qsy
p2
I1
s.(dp0
Vczadg3z
p1
I1
sVcyi9rur
p2
I1
s.(dp0
Vczasy7t
p1
I1
sVcyi9rur
p2
I1
s.(dp0
Vczazfl0
p1
I1
sVcyi9rur
p2
I1
s.(dp0
Vczcd6y5
p1
I1
sVcyi9rur
p2
I1
s.(dp0
Vczdqnnc
p1
I1
sVcyi9rur
p2
I1
s.(dp0
Vczhfm26
p1
I1
sVcyi9rur
p2
I1
s.(dp0
Vczjzw79
p1
I1
sVcyi9rur
p2
I1
s.(dp0
Vcyi9rur
p1
I1
sVczkbm74
p2
I1
s.(dp0
Vczm6avn
p1
I1
sVcyi9rur
p2
I1
s.(dp0
Vcyi9rur
p1
I1
sVczovxkm
p2
I1
s.(dp0
Vczr1auc
p1
I1
sVcyi9rur
p2
I1
s.(dp0
Vczth7qp
p1
I1
sVcyi9rur
p2
I1
s.(dp0
Vcztk7pr
p1
I1
sVcyi9rur
p2
I1
s.(dp0
Vcztt9do
p1
I1
sVcyi9rur
p2
I1
s.(dp0
Vczu4nka
p1
I1
sVcyi9rur
p2
I1
s.(dp0
Vczwnxxo
p1
I1
sVcyi9rur
p2
I1
s.(dp0
Vczwnxxo
p1
I1
sVcyi9rur
p2
I1
s.(dp0
Vczxcc52
p1
I1
sVcyi9rur
p2
I1
s.(dp0
Vczyhjz2
p1
I1
sVcyi9rur
p2
I1
s.(dp0
Vczz9b36
p1
I1
sVcyi9rur
p2
I1
s.(dp0
Vczzlh4z
p1
I1
sVcyi9rur
p2
I1
s.(dp0
Vczzw776
p1
I1
sVcyi9rur
p2
I1
s.(dp0
Vd006gk5
p1
I1
sVcyi9rur
p2
I1
s.(dp0
Vd00uhha
p1
I1
sVcyi9rur
p2
I1
s.(dp0
Vd01fcx5
p1
I1
sVcyi9rur
p2
I1
s.(dp0
Vd02pvls
p1
I1
sVcyi9rur
p2
I1
s.(dp0
Vd04o9v1
p1
I1
sVcyi9rur
p2
I1
s.(dp0
Vd076sim
p1
I1
sVcyi9rur
p2
I1
s.(dp0
Vd07wxfz
p1
I1
sVcyi9rur
p2
I1
s.(dp0
Vd08gmwk
p1
I1
sVcyi9rur
p2
I1
s.(dp0
Vd093vx1
p1
I1
sVcyi9rur
p2
I1
s.(dp0
Vd0acyxv
p1
I1
sVcyi9rur
p2
I1
s.(dp0
Vd0amg68
p1
I1
sVcyi9rur
p2
I1
s.(dp0
Vcyi9rur
p1
I1
sVd0cqa8m
p2
I1
s.(dp0
Vd0in7aa
p1
I1
sVcyi9rur
p2
I1
s.(dp0
Vd0ju75j
p1
I1
sVcyi9rur
p2
I1
s.(dp0
Vcyi9rur
p1
I1
sVd0mqvoe
p2
I1
s.(dp0
Vcyi9rur
p1
I1
sVd0pp4xh
p2
I1
s.(dp0
Vd0qdq23
p1
I1
sVcyi9rur
p2
I1
s.(dp0
Vd0rapay
p1
I1
sVcyi9rur
p2
I1
s.(dp0
Vd0s6x7q
p1
I1
sVcyi9rur
p2
I1
s.(dp0
Vd0t93xi
p1
I1
sVcyi9rur
p2
I1
s.(dp0
Vd0tj5hq
p1
I1
sVcyi9rur
p2
I1
s.(dp0
Vd0tj5hq
p1
I1
sVcyi9rur
p2
I1
s.(dp0
Vd0tj5hq
p1
I1
sVcyi9rur
p2
I1
s.(dp0
Vd0tq8eo
p1
I1
sVcyi9rur
p2
I1
s.(dp0
Vd0tq8eo
p1
I1
sVcyi9rur
p2
I1
s.(dp0
Vcyi9rur
p1
I1
sVd0tybfw
p2
I1
s.(dp0
Vd0u4npl
p1
I1
sVcyi9rur
p2
I1
s.(dp0
Vd0uixts
p1
I1
sVcyi9rur
p2
I1
s.(dp0
Vd0ycfqb
p1
I1
sVcyi9rur
p2
I1
s.(dp0
Vd0yhqu1
p1
I1
sVcyi9rur
p2
I1
s.(dp0
Vd10zdex
p1
I1
sVcyi9rur
p2
I1
s.(dp0
Vd12slrq
p1
I1
sVcyi9rur
p2
I1
s.(dp0
Vcyi9rur
p1
I1
sVd14ghj4
p2
I1
s.(dp0
Vd15l08o
p1
I1
sVcyi9rur
p2
I1
s.(dp0
Vd17yd46
p1
I1
sVcyi9rur
p2
I1
s.(dp0
Vd17yd46
p1
I1
sVcyi9rur
p2
I1
s.(dp0
Vd1859oc
p1
I1
sVcyi9rur
p2
I1
s.(dp0
Vd18ralu
p1
I1
sVcyi9rur
p2
I1
s.(dp0
Vd19mapj
p1
I1
sVcyi9rur
p2
I1
s.(dp0
Vd1a8vxz
p1
I1
sVcyi9rur
p2
I1
s.(dp0
Vd1aqxfv
p1
I1
sVcyi9rur
p2
I1
s.(dp0
Vd1aqxfv
p1
I1
sVcyi9rur
p2
I1
s.(dp0
Vcyi9rur
p1
I1
sVd1e0ly9
p2
I1
s.(dp0
Vd1e6z28
p1
I1
sVcyi9rur
p2
I1
s.(dp0
Vd1fbr7g
p1
I1
sVcyi9rur
p2
I1
s.(dp0
Vd1fd9hv
p1
I1
sVcyi9rur
p2
I1
s.(dp0
Vd1gfixx
p1
I1
sVcyi9rur
p2
I1
s.(dp0
Vd1hvea8
p1
I1
sVcyi9rur
p2
I1
s.(dp0
Vd1hvf83
p1
I1
sVcyi9rur
p2
I1
s.(dp0
Vd1mt88i
p1
I1
sVcyi9rur
p2
I1
s.(dp0
Vd1qj6xa
p1
I1
sVcyi9rur
p2
I1
s.(dp0
Vd1r33bw
p1
I1
sVcyi9rur
p2
I1
s.(dp0
Vd1s9klq
p1
I1
sVcyi9rur
p2
I1
s.(dp0
Vd1urmmo
p1
I1
sVcyi9rur
p2
I1
s.(dp0
Vd1uydax
p1
I1
sVcyi9rur
p2
I1
s.(dp0
Vcyi9rur
p1
I1
sVd1xa8ig
p2
I1
s.(dp0
Vd1(dp0
Vdth6u8n
p1
I1
sVcyi9rur
p2
I1
s.