(dp0
Vd21gw8b
p1
I2
sVd9czk68
p2
I1
sVdr33f3q
p3
I1
sVdio6fgc
p4
I2
sVd0trl9e
p5
I1
sVdib9kgs
p6
I1
sVdqwaqi0
p7
I1
sVdcz3q7f
p8
I2
sVd7m2u8m
p9
I2
sVdmqggfg
p10
I1
sVd97er1w
p11
I1
sVd6wrt6v
p12
I1
sVdon45sm
p13
I1
sVde7b7kr
p14
I1
sVdo55jt0
p15
I1
sVdd0t89o
p16
I1
sVdodoaq5
p17
I1
sVd17dkdi
p18
I1
sVcyl831e
p19
I1
sVdq5lzco
p20
I1
sVdosu7qn
p21
I1
sVcz5p7g4
p22
I1
sVd8um5hq
p23
I1
sVdgm3bqe
p24
I1
sVd0hii9c
p25
I1
sVd8769o8
p26
I2
sVdqyk4vl
p27
I1
sVdh18afp
p28
I1
sVdkygyep
p29
I2
sVcyv96ya
p30
I1
sVdcyhvik
p31
I2
sVd6d1fcy
p32
I1
sVde0r6u0
p33
I1
sVd1eu0rm
p34
I1
sVdepygco
p35
I1
sVdgr6d6c
p36
I3
sVd9vodjk
p37
I1
sVdiqfad0
p38
I2
sVdjn749e
p39
I1
sVczb45d0
p40
I1
sVddtwf3a
p41
I1
sVd86ez5v
p42
I2
sVddhlssx
p43
I1
sVd2o364q
p44
I1
sVds9bwz8
p45
I1
sVddc52gs
p46
I1
sVdg9tm0b
p47
I1
sVdn457lk
p48
I1
sVdsr8rmo
p49
I1
sVdo13ww1
p50
I1
sVdiys7w2
p51
I3
sVd7qaue6
p52
I1
sVd27hccf
p53
I1
sVdkn51g8
p54
I1
sVdg9ueo8
p55
I1
sVddd48i6
p56
I1
sVd8rvcrc
p57
I1
sVdoiw47z
p58
I1
sVdaonnk8
p59
I1
sVd75jknl
p60
I1
sVdens9rn
p61
I1
sVd706qoa
p62
I1
sVd4o151c
p63
I1
sVd38592i
p64
I1
sVdo8q536
p65
I1
sVcytmtug
p66
I1
sVdfythso
p67
I1
sVd6c1n9f
p68
I1
sVdhljbu3
p69
I1
sVdczg65p
p70
I2
sVdfwvyv8
p71
I1
sVd2h9eem
p72
I1
sVdbiwwyc
p73
I1
sVdbeoq73
p74
I1
sVda7l5k4
p75
I1
sVd3pbraa
p76
I1
sVdhw2ddx
p77
I1
sVdkhylrf
p78
I1
sVd3ccyh4
p79
I2
sVd896lvd
p80
I1
sVdfy2dha
p81
I1
sVd0fnrnk
p82
I1
sVdoad7v7
p83
I1
sVdbicdt8
p84
I1
sVddd7y6g
p85
I1
sVdbis4do
p86
I1
sVdggkv1l
p87
I1
sVd9zb7gx
p88
I1
sVd5cuzsw
p89
I1
sVczojm1w
p90
I1
sVd6ebpy1
p91
I2
sVdauldaj
p92
I1
sVd9f116b
p93
I1
sVdtjbz1x
p94
I1
sVdaawvdc
p95
I1
sVdd90u6g
p96
I1
sVd2r0r4v
p97
I1
sVd3d0995
p98
I2
sVdmeqgni
p99
I1
sVd9ka1v8
p100
I1
sVd771fhv
p101
I1
sVcz2f65e
p102
I1
sVdalzmft
p103
I1
sVdhyyp3c
p104
I1
sVd9omexp
p105
I1
sVczm7kje
p106
I1
sVdqe0038
p107
I1
sVdbnupxw
p108
I1
sVdi70r3f
p109
I1
sVdf1zn40
p110
I2
sVczesipb
p111
I1
sVcynx8dw
p112
I1
sVdbnclmf
p113
I1
sVdeq59ny
p114
I1
sVdc6um5h
p115
I1
sVczf0hqc
p116
I1
sVdhcl631
p117
I1
sVdb459fz
p118
I1
sVdf1soyr
p119
I1
sVdf60pt5
p120
I2
sVd472s8y
p121
I1
sVdgy6xb2
p122
I1
sVdnrqyvy
p123
I1
sVdfyi33p
p124
I2
sVd2zy93v
p125
I1
sVdr4nzo6
p126
I1
sVdcksb24
p127
I2
sVdeq0ky9
p128
I1
sVd1d845t
p129
I1
sVd2sviwu
p130
I1
sVdsq6h01
p131
I1
sVdb8gzor
p132
I1
sVd2ta9kd
p133
I1
sVdo2rkpb
p134
I1
sVde71gmd
p135
I1
sVd1eyphw
p136
I1
sVd1iw1r9
p137
I1
sVd1nnuyp
p138
I1
sVdgh88b8
p139
I1
sVdom2yb1
p140
I1
sVd1bp62x
p141
I3
sVd07ewcp
p142
I1
sVd1j7lhx
p143
I1
sVd09w7c9
p144
I1
sVdd3zbzs
p145
I1
sVcyl67om
p146
I1
sVd7phxe2
p147
I1
sVd3j9w8t
p148
I1
sVd0p4y5t
p149
I1
sVczazfl0
p150
I1
sVd2wr0p7
p151
I1
sVd7e53ey
p152
I1
sVczen3vn
p153
I1
sVd1kml9o
p154
I2
sVdjng0yc
p155
I1
sVdeqdgnv
p156
I3
sVddd6ija
p157
I2
sVd178dfu
p158
I1
sVdfzwj4f
p159
I1
sVdcmei1x
p160
I1
sVd6973wv
p161
I1
sVd2ao5hp
p162
I1
sVdddyt74
p163
I2
sVcyijykr
p164
I1
sVd0fj1nx
p165
I1
sVd0zstyt
p166
I1
sVdfnjsfp
p167
I1
sVd1syu0l
p168
I1
sVd3xgzyx
p169
I1
sVde8z48d
p170
I1
sVd0crhii
p171
I3
sVdj4izjd
p172
I1
sVd83u56c
p173
I1
sVd7sn1e7
p174
I1
sVczikqiv
p175
I1
sVczoveau
p176
I1
sVdaw8zd3
p177
I1
sVd7vch00
p178
I1
sVd6l6xch
p179
I1
sVd77kl68
p180
I1
sVd47n1vw
p181
I1
sVddjaokd
p182
I1
sVcyleu7u
p183
I3
sVd1q6ism
p184
I1
sVdo6iihw
p185
I1
sVd45wpzx
p186
I1
sVd2rj5t2
p187
I1
sVd6hgf63
p188
I1
sVdie10tj
p189
I1
sVd811ahr
p190
I1
sVdaitsvf
p191
I2
sVd7rfsft
p192
I1
sVcyw0qcb
p193
I1
sVdfv7f8o
p194
I1
sVczz12x0
p195
I1
sVd7ine7h
p196
I1
sVd0i0dun
p197
I1
sVdc3uipi
p198
I1
sVdg90orl
p199
I1
sVd28sbs4
p200
I1
sVd2efscj
p201
I1
sVd1v9b43
p202
I1
sVd2ypphj
p203
I1
sVd0yuwd5
p204
I1
sVdh581kb
p205
I1
sVdmu4829
p206
I1
sVdnikk0o
p207
I1
sVd19530g
p208
I2
sVd3zxlzf
p209
I2
sVde5e00b
p210
I1
sVdosjhpa
p211
I1
sVd21r9ff
p212
I1
sVdbi0a14
p213
I1
sVdfwajrt
p214
I1
sVd0g2uni
p215
I1
sVdeachrc
p216
I1
sVd2m8ug9
p217
I1
sVdo6kdcu
p218
I1
sVdnozvzf
p219
I1
sVd3vkb31
p220
I2
sVd8t4g92
p221
I1
sVd5c217o
p222
I1
sVdivhp7m
p223
I1
sVdeqb072
p224
I1
sVd2juhbh
p225
I1
sVdirg927
p226
I1
sVd1j9xf9
p227
I3
sVdfy0mfj
p228
I1
sVdkbnsyy
p229
I1
sVd3bvdfh
p230
I1
sVdhgarbl
p231
I1
sVdevkj00
p232
I1
sVd0tksy0
p233
I1
sVd0auifr
p234
I1
sVdkinss0
p235
I1
sVdaludm7
p236
I1
sVd2n6gyp
p237
I1
sVdf7oefc
p238
I1
sVd5w3no8
p239
I1
sVda6tfjx
p240
I1
sVcz0zu33
p241
I1
sVd5v7ojn
p242
I1
sVd0imrvk
p243
I1
sVdr9pl8n
p244
I1
sVdjg6hzc
p245
I1
sVdkwrs32
p246
I1
sVcz9v6gg
p247
I1
sVd3c07rn
p248
I1
sVdchve1e
p249
I1
sVdjmdah1
p250
I1
sVczw0cva
p251
I1
sVdhtpn3r
p252
I1
sVd126zsn
p253
I1
sVd367obp
p254
I1
sVde1aei0
p255
I2
sVddj9sgk
p256
I1
sVd1s9za1
p257
I4
sVdje4ehs
p258
I3
sVdegdpja
p259
I1
sVdt2riqj
p260
I1
sVcyx30os
p261
I1
sVdcil1wb
p262
I1
sVczdwt1b
p263
I1
sVd690pkc
p264
I1
sVdmtq8pu
p265
I1
sVd5hpw2t
p266
I1
sVd6rj450
p267
I1
sVcyuee69
p268
I1
sVcyo15m1
p269
I1
sVdbwc9b0
p270
I1
sVdacv5ym
p271
I1
sVdmjv64q
p272
I1
sVd453q9y
p273
I1
sVcz236ww
p274
I1
sVd4q2o55
p275
I1
sVdi2568g
p276
I1
sVd13jrcd
p277
I1
sVcynswun
p278
I1
sVd6x0ljp
p279
I1
sVd49jt85
p280
I1
sVd3ubeay
p281
I1
sVd87jkae
p282
I2
sVdibh1k8
p283
I1
sVd0ov3m9
p284
I1
sVdnz6h9y
p285
I2
sVdn470om
p286
I1
sVd6xu79v
p287
I1
sVd514wc8
p288
I1
sVd34pkk5
p289
I1
sVczu16ce
p290
I1
sVdgqny2k
p291
I1
sVd9yrq3v
p292
I1
sVd2w7n0k
p293
I1
sVd25uvnh
p294
I1
sVd2z1ro7
p295
I2
sVdsu8u9t
p296
I1
sVczkvfog
p297
I1
sVde5ulth
p298
I1
sVdc2jt64
p299
I1
sVdk5go9q
p300
I1
s.