(dp0
Vcyjr07t
p1
I1
s.(dp0
Vcyt4vzv
p1
I1
sVcyjr07t
p2
I1
s.(dp0
Vcyjr07t
p1
I1
sVcz0mk6b
p2
I1
s.(dp0
Vcyjr07t
p1
I1
sVczj4lai
p2
I1
s.(dp0
Vczrh853
p1
I1
sVcyjr07t
p2
I1
s.(dp0
Vd0dh0c6
p1
I1
sVcyjr07t
p2
I1
s.(dp0
Vcyjr07t
p1
I1
sVd0sboya
p2
I1
s.(dp0
Vcyjr07t
p1
I1
sVd17hjvt
p2
I1
s.(dp0
Vcyjr07t
p1
I1
sVd2sf8ou
p2
I1
s.(dp0
Vcyjr07t
p1
I1
sVd2svlf6
p2
I1
s.(dp0
Vcyjr07t
p1
I1
sVd2uu4n5
p2
I1
s.(dp0
Vcyjr07t
p1
I1
sVd3zpreg
p2
I1
s.(dp0
Vcyjr07t
p1
I1
sVd63xhyz
p2
I1
s.(dp0
Vcyjr07t
p1
I1
sVd666g63
p2
I1
s.(dp0
Vcyjr07t
p1
I1
sVd68jlza
p2
I1
s.(dp0
Vcyjr07t
p1
I1
sVd69revk
p2
I1
s.(dp0
Vd6bjwy5
p1
I1
sVcyjr07t
p2
I1
s.(dp0
Vcyjr07t
p1
I1
sVd6jioa2
p2
I1
s.(dp0
Vcyjr07t
p1
I1
sVd6jioa2
p2
I1
s.(dp0
Vcyjr07t
p1
I1
sVd72fvfv
p2
I1
s.(dp0
Vd7ftee2
p1
I1
sVcyjr07t
p2
I1
s.(dp0
Vd86ru0f
p1
I1
sVcyjr07t
p2
I1
s.(dp0
Vd9d8rw3
p1
I1
sVcyjr07t
p2
I1
s.(dp0
Vcyjr07t
p1
I1
sVd9gqnkh
p2
I1
s.(dp0
Vdacgl5y
p1
I1
sVcyjr07t
p2
I1
s.(dp0
Vcyjr07t
p1
I1
sVdau08zm
p2
I1
s.(dp0
Vcyjr07t
p1
I1
sVdbftsvw
p2
I1
s.(dp0
Vcyjr07t
p1
I1
sVdblqmgc
p2
I1
s.(dp0
Vcyjr07t
p1
I1
sVdbnkcef
p2
I1
s.(dp0
Vdbykzt6
p1
I1
sVcyjr07t
p2
I1
s.(dp0
Vdbykzt6
p1
I1
sVcyjr07t
p2
I1
s.(dp0
Vdbykzt6
p1
I1
sVcyjr07t
p2
I1
s.(dp0
Vdbykzt6
p1
I1
sVcyjr07t
p2
I1
s.(dp0
Vdcpzk25
p1
I1
sVcyjr07t
p2
I1
s.(dp0
Vcyjr07t
p1
I1
sVdcxgjmx
p2
I1
s.(dp0
Vcyjr07t
p1
I1
sVdd59c5p
p2
I1
s.(dp0
Vcyjr07t
p1
I1
sVddrn1qs
p2
I1
s.(dp0
Vcyjr07t
p1
I1
sVde18c8s
p2
I1
s.(dp0
Vde90jzh
p1
I1
sVcyjr07t
p2
I1
s.(dp0
Vde90jzh
p1
I1
sVcyjr07t
p2
I1
s.(dp0
Vcyjr07t
p1
I1
sVde9nte2
p2
I1
s.(dp0
Vcyjr07t
p1
I1
sVdebzjxj
p2
I1
s.(dp0
Vcyjr07t
p1
I1
sVdeh26pr
p2
I1
s.(dp0
Vcyjr07t
p1
I1
sVdetex2z
p2
I1
s.(dp0
Vcyjr07t
p1
I1
sVdg3ul0g
p2
I1
s.(dp0
Vcyjr07t
p1
I1
sVdhe7mao
p2
I1
s.(dp0
Vcyjr07t
p1
I1
sVdij08ib
p2
I1
s.(dp0
Vdil150b
p1
I1
sVcyjr07t
p2
I1
s.(dp0
Vcyjr07t
p1
I1
sVdj2rzqv
p2
I1
s.(dp0
Vcyjr07t
p1
I1
sVdkv4f57
p2
I1
s.(dp0
Vcyjr07t
p1
I1
sVdkxfagg
p2
I1
s.(dp0
Vcyjr07t
p1
I1
sVdmyjtya
p2
I1
s.(dp0
Vcyjr07t
p1
I1
sVdnw0acl
p2
I1
s.(dp0
Vcyjr07t
p1
I1
sVdoron14
p2
I1
s.(dp0
Vcyjr07t
p1
I1
sVdq9bcze
p2
I1
s.(dp0
Vcyjr07t
p1
I1
sVdrgv0r5
p2
I1
s.(dp0
Vds5rc65
p1
I1
sVcyjr07t
p2
I1
s.(dp0
Vcyjr07t
p1
I1
sVdsd1fqz
p2
I1
s.(dp0
Vcyjr07t
p1
I1
sVdsmyr6f
p2
I1
s.