(dp0
Vcyo514s
p1
I1
s.(dp0
Vd0f9mfm
p1
I1
sVcyo514s
p2
I1
s.(dp0
Vcyo514s
p1
I1
sVd622pbb
p2
I1
s.(dp0
Vcyo514s
p1
I1
sVd8fivhn
p2
I1
s.(dp0
Vcyo514s
p1
I1
sVd9onmpt
p2
I1
s.(dp0
Vcyo514s
p1
I1
sVdcc88xg
p2
I1
s.(dp0
Vcyo514s
p1
I1
sVdif5qvl
p2
I1
s.(dp0
Vcyo514s
p1
I1
sVdish4nq
p2
I1
s.(dp0
Vcyo514s
p1
I1
sVdj6p3uu
p2
I1
s.(dp0
Vcyo514s
p1
I1
sVdnz51r2
p2
I1
s.(dp0
Vcyo514s
p1
I1
sVdpvcv28
p2
I1
s.