(dp0
Vdcxmrw7
p1
I1
sVdhxhbnx
p2
I1
sVd0en6x2
p3
I1
sVd01miu9
p4
I1
sVd7x07fm
p5
I1
sVd1ekc3c
p6
I4
sVdkwq07u
p7
I1
sVd4gq1xi
p8
I1
sVdpookka
p9
I1
sVdiqeit8
p10
I1
sVd9kpq45
p11
I2
sVd213gq4
p12
I1
sVd90pyi7
p13
I1
sVdqkq8vf
p14
I1
sVdnipt1v
p15
I1
sVd33ai7p
p16
I1
sVdc3uh4y
p17
I1
sVdclz7rp
p18
I1
sVdo2ab12
p19
I1
sVd9yfyex
p20
I1
sVdnn1zuf
p21
I1
sVdbfdz0x
p22
I1
sVczmylr0
p23
I1
sVdmlcqn2
p24
I1
sVd39sf96
p25
I1
sVd437m8c
p26
I3
sVdq5j9fz
p27
I1
sVdhdpyyy
p28
I1
sVdo2ld2x
p29
I1
sVdbi7u0e
p30
I1
sVdcmkziy
p31
I1
sVdkm6jzp
p32
I1
sVd5k5ggr
p33
I1
sVcyp04dd
p34
I1
sVd3zl2jz
p35
I1
sVdhksqjn
p36
I3
sVdjy2r8g
p37
I1
sVd9z41g6
p38
I1
sVdn9d80y
p39
I1
sVdc2hxd2
p40
I1
sVd2wxn6m
p41
I1
sVdizugjb
p42
I1
sVds6o9g1
p43
I1
sVd8ao3lz
p44
I1
sVds606w8
p45
I1
sVd1k7dcg
p46
I1
sVd0vu43v
p47
I1
sVd7xkkom
p48
I1
sVd3lx262
p49
I1
sVdgmgh58
p50
I1
sVdsrcuhl
p51
I1
sVd2uekkg
p52
I1
sVddpsh1n
p53
I1
sVdclnjog
p54
I5
sVd0xy3v0
p55
I1
sVdh9luco
p56
I1
sVd4hdcw7
p57
I1
sVda4f9wv
p58
I1
sVderoz8i
p59
I1
sVdddoz3j
p60
I1
sVdsqxodp
p61
I1
sVds22cmy
p62
I1
sVd2h63pw
p63
I1
sVdh5j7ql
p64
I1
sVdbewij7
p65
I1
sVd9pgj1o
p66
I2
sVdi7n1kq
p67
I1
sVdcjv99i
p68
I1
sVdcln68p
p69
I1
sVddo1l6b
p70
I1
sVdcl39vv
p71
I1
sVd3oey6x
p72
I3
s.