(dp0
Vczk2ajz
p1
I1
s.(dp0
Vczk2ajz
p1
I1
sVcztuckh
p2
I1
s.(dp0
Vczu78ed
p1
I1
sVczk2ajz
p2
I1
s.(dp0
Vczk2ajz
p1
I1
sVd0juraa
p2
I1
s.(dp0
Vczk2ajz
p1
I1
sVd0z750c
p2
I1
s.(dp0
Vczk2ajz
p1
I1
sVd1kml9o
p2
I1
s.(dp0
Vczk2ajz
p1
I1
sVd1n1nz4
p2
I1
s.(dp0
Vd2f0wer
p1
I1
sVczk2ajz
p2
I1
s.(dp0
Vczk2ajz
p1
I1
sVd4fzoxv
p2
I1
s.(dp0
Vczk2ajz
p1
I1
sVd6ozfhy
p2
I1
s.(dp0
Vczk2ajz
p1
I1
sVd6pv6me
p2
I1
s.(dp0
Vczk2ajz
p1
I1
sVd6zfvv7
p2
I1
s.(dp0
Vczk2ajz
p1
I1
sVd76lhg0
p2
I1
s.(dp0
Vczk2ajz
p1
I1
sVdcih2m8
p2
I1
s.(dp0
Vczk2ajz
p1
I1
sVdd1i39r
p2
I1
s.(dp0
Vczk2ajz
p1
I1
sVdew5enx
p2
I1
s.(dp0
Vdg820ky
p1
I1
sVczk2ajz
p2
I1
s.(dp0
Vczk2ajz
p1
I1
sVdiwdonw
p2
I1
s.(dp0
Vdj0omcu
p1
I1
sVczk2ajz
p2
I1
s.(dp0
Vczk2ajz
p1
I1
sVdjuyqy9
p2
I1
s.(dp0
Vczk2ajz
p1
I1
sVdmjldcd
p2
I1
s.(dp0
Vczk2ajz
p1
I1
sVdmkp82u
p2
I1
s.(dp0
Vczk2ajz
p1
I1
sVdqe5ec6
p2
I1
s.(dp0
Vczk2ajz
p1
I1
sVdqffybb
p2
I1
s.(dp0
Vczk2ajz
p1
I1
sVdtj1o1p
p2
I1
s.