(dp0
Vd0xt8jw
p1
I1
sVd7zx8vm
p2
I1
sVdcyhvik
p3
I1
sVd2o2utk
p4
I1
sVd2133af
p5
I1
sVdjq481c
p6
I1
sVdbub9vz
p7
I1
sVd69s6uh
p8
I1
sVdbxl1s8
p9
I1
sVcz19e4o
p10
I1
sVddgfnss
p11
I2
sVdrsqgro
p12
I1
sVdo0p9uf
p13
I1
sVde8eutc
p14
I1
sVd6op1i9
p15
I1
sVd8ybbhc
p16
I1
sVd6osyu9
p17
I1
sVdfazfg4
p18
I1
sVd6yo7x6
p19
I1
sVd1sxed0
p20
I1
sVdodgk9r
p21
I1
sVd0rdv48
p22
I1
sVd8tcacq
p23
I1
sVdmzvxz6
p24
I1
sVdg54hwi
p25
I1
sVd86o1i6
p26
I1
sVd6qgu4h
p27
I1
sVdkm9s1u
p28
I1
sVdgtujmi
p29
I1
sVdqswo3m
p30
I1
sVde6vdf8
p31
I1
sVczm636i
p32
I1
sVcz0b3c8
p33
I1
s.