(dp0
Vcym5k4x
p1
I1
s.(dp0
Vcysdvtd
p1
I1
sVcym5k4x
p2
I1
s.(dp0
Vcysxagi
p1
I1
sVcym5k4x
p2
I1
s.(dp0
Vcym5k4x
p1
I1
sVcyt6why
p2
I1
s.(dp0
Vcyv6goc
p1
I1
sVcym5k4x
p2
I1
s.(dp0
Vczb2ycm
p1
I1
sVcym5k4x
p2
I1
s.(dp0
Vcym5k4x
p1
I1
sVczetb68
p2
I1
s.(dp0
Vcznzvgh
p1
I1
sVcym5k4x
p2
I1
s.(dp0
Vcym5k4x
p1
I1
sVczvwh9i
p2
I1
s.(dp0
Vczyxtyj
p1
I1
sVcym5k4x
p2
I1
s.(dp0
Vczzrvd0
p1
I1
sVcym5k4x
p2
I1
s.(dp0
Vczzw3ab
p1
I1
sVcym5k4x
p2
I1
s.(dp0
Vczzxmqn
p1
I1
sVcym5k4x
p2
I1
s.(dp0
Vd01b4sx
p1
I1
sVcym5k4x
p2
I1
s.(dp0
Vd01b4sx
p1
I1
sVcym5k4x
p2
I1
s.(dp0
Vd01b4sx
p1
I1
sVcym5k4x
p2
I1
s.(dp0
Vd02rh16
p1
I1
sVcym5k4x
p2
I1
s.(dp0
Vd04nd6q
p1
I1
sVcym5k4x
p2
I1
s.(dp0
Vcym5k4x
p1
I1
sVd05n1m5
p2
I1
s.(dp0
Vd0628so
p1
I1
sVcym5k4x
p2
I1
s.(dp0
Vd0956er
p1
I1
sVcym5k4x
p2
I1
s.(dp0
Vd0d5hi8
p1
I1
sVcym5k4x
p2
I1
s.(dp0
Vd0epoel
p1
I1
sVcym5k4x
p2
I1
s.(dp0
Vd0ioo97
p1
I1
sVcym5k4x
p2
I1
s.(dp0
Vd0ioo97
p1
I1
sVcym5k4x
p2
I1
s.(dp0
Vd0k9kck
p1
I1
sVcym5k4x
p2
I1
s.(dp0
Vd0o3ezd
p1
I1
sVcym5k4x
p2
I1
s.(dp0
Vcym5k4x
p1
I1
sVd0oj1n2
p2
I1
s.(dp0
Vd0ojhq4
p1
I1
sVcym5k4x
p2
I1
s.(dp0
Vcym5k4x
p1
I1
sVd0uorq1
p2
I1
s.(dp0
Vcym5k4x
p1
I1
sVd0up9dl
p2
I1
s.(dp0
Vcym5k4x
p1
I1
sVd0up9dl
p2
I1
s.(dp0
Vcym5k4x
p1
I1
sVd0vd5f5
p2
I1
s.(dp0
Vd0yhb21
p1
I1
sVcym5k4x
p2
I1
s.(dp0
Vd0yj27a
p1
I1
sVcym5k4x
p2
I1
s.(dp0
Vd1aljai
p1
I1
sVcym5k4x
p2
I1
s.(dp0
Vd1brjpw
p1
I1
sVcym5k4x
p2
I1
s.(dp0
Vcym5k4x
p1
I1
sVd1ffyaa
p2
I1
s.(dp0
Vd1jjodx
p1
I1
sVcym5k4x
p2
I1
s.(dp0
Vcym5k4x
p1
I1
sVd1x5bey
p2
I1
s.(dp0
Vd1y8trc
p1
I1
sVcym5k4x
p2
I1
s.(dp0
Vd1ztkzr
p1
I1
sVcym5k4x
p2
I1
s.(dp0
Vd26mvb6
p1
I1
sVcym5k4x
p2
I1
s.(dp0
Vd284xbo
p1
I1
sVcym5k4x
p2
I1
s.(dp0
Vd2hiv22
p1
I1
sVcym5k4x
p2
I1
s.(dp0
Vd2mh79w
p1
I1
sVcym5k4x
p2
I1
s.(dp0
Vd2yd80c
p1
I1
sVcym5k4x
p2
I1
s.(dp0
Vcym5k4x
p1
I1
sVd2zhsnm
p2
I1
s.(dp0
Vcym5k4x
p1
I1
sVd2zhsnm
p2
I1
s.(dp0
Vcym5k4x
p1
I1
sVd2zhsnm
p2
I1
s.(dp0
Vcym5k4x
p1
I1
sVd2zhsnm
p2
I1
s.(dp0
Vcym5k4x
p1
I1
sVd32l02a
p2
I1
s.(dp0
Vd3387xh
p1
I1
sVcym5k4x
p2
I1
s.(dp0
Vd3437jh
p1
I1
sVcym5k4x
p2
I1
s.(dp0
Vd35gv7k
p1
I1
sVcym5k4x
p2
I1
s.(dp0
Vd38zsf0
p1
I1
sVcym5k4x
p2
I1
s.(dp0
Vd3ajdkm
p1
I1
sVcym5k4x
p2
I1
s.(dp0
Vd3awtmw
p1
I1
sVcym5k4x
p2
I1
s.(dp0
Vd3aww3z
p1
I1
sVcym5k4x
p2
I1
s.(dp0
Vd3eq5m9
p1
I1
sVcym5k4x
p2
I1
s.(dp0
Vcym5k4x
p1
I1
sVd3fr8an
p2
I1
s.(dp0
Vcym5k4x
p1
I1
sVd3mmkwa
p2
I1
s.(dp0
Vd3r5ql8
p1
I1
sVcym5k4x
p2
I1
s.(dp0
Vd42dy4o
p1
I1
sVcym5k4x
p2
I1
s.(dp0
Vd4eqg9f
p1
I1
sVcym5k4x
p2
I1
s.(dp0
Vd4h22fl
p1
I1
sVcym5k4x
p2
I1
s.(dp0
Vd4lzjnl
p1
I1
sVcym5k4x
p2
I1
s.(dp0
Vd4ms7h2
p1
I1
sVcym5k4x
p2
I1
s.(dp0
Vd4v1f9m
p1
I1
sVcym5k4x
p2
I1
s.(dp0
Vd5hx2ew
p1
I1
sVcym5k4x
p2
I1
s.(dp0
Vd5hx2ew
p1
I1
sVcym5k4x
p2
I1
s.(dp0
Vd5hx2ew
p1
I1
sVcym5k4x
p2
I1
s.(dp0
Vd5hx2ew
p1
I1
sVcym5k4x
p2
I1
s.(dp0
Vd5hx2ew
p1
I1
sVcym5k4x
p2
I1
s.(dp0
Vd5hx2ew
p1
I1
sVcym5k4x
p2
I1
s.(dp0
Vd5hx2ew
p1
I1
sVcym5k4x
p2
I1
s.(dp0
Vd5q5mde
p1
I1
sVcym5k4x
p2
I1
s.(dp0
Vd5z33jm
p1
I1
sVcym5k4x
p2
I1
s.(dp0
Vd6a1oqd
p1
I1
sVcym5k4x
p2
I1
s.(dp0
Vd6a1oqd
p1
I1
sVcym5k4x
p2
I1
s.(dp0
Vd6a1oqd
p1
I1
sVcym5k4x
p2
I1
s.(dp0
Vd6biz3q
p1
I1
sVcym5k4x
p2
I1
s.(dp0
Vd6c30u1
p1
I1
sVcym5k4x
p2
I1
s.(dp0
Vd6fm55v
p1
I1
sVcym5k4x
p2
I1
s.(dp0
Vd6hfzip
p1
I1
sVcym5k4x
p2
I1
s.(dp0
Vcym5k4x
p1
I1
sVd6hoorn
p2
I1
s.(dp0
Vd6lep70
p1
I1
sVcym5k4x
p2
I1
s.(dp0
Vd6m48l8
p1
I1
sVcym5k4x
p2
I1
s.(dp0
Vd6sywl3
p1
I1
sVcym5k4x
p2
I1
s.(dp0
Vcym5k4x
p1
I1
sVd74f0ml
p2
I1
s.(dp0
Vd74kwbf
p1
I1
sVcym5k4x
p2
I1
s.(dp0
Vd7da31u
p1
I1
sVcym5k4x
p2
I1
s.(dp0
Vd7roqms
p1
I1
sVcym5k4x
p2
I1
s.(dp0
Vcym5k4x
p1
I1
sVd83bon0
p2
I1
s.(dp0
Vcym5k4x
p1
I1
sVd83wwpy
p2
I1
s.(dp0
Vd8960t4
p1
I1
sVcym5k4x
p2
I1
s.(dp0
Vd8grwsn
p1
I1
sVcym5k4x
p2
I1
s.(dp0
Vd8lll24
p1
I1
sVcym5k4x
p2
I1
s.(dp0
Vcym5k4x
p1
I1
sVd8m1uet
p2
I1
s.(dp0
Vd9139kn
p1
I1
sVcym5k4x
p2
I1
s.(dp0
Vd97syzp
p1
I1
sVcym5k4x
p2
I1
s.(dp0
Vd9aqzcl
p1
I1
sVcym5k4x
p2
I1
s.(dp0
Vd9nd6c5
p1
I1
sVcym5k4x
p2
I1
s.(dp0
Vd9zp8zv
p1
I1
sVcym5k4x
p2
I1
s.(dp0
Vda31bpc
p1
I1
sVcym5k4x
p2
I1
s.(dp0
Vda3s7ar
p1
I1
sVcym5k4x
p2
I1
s.(dp0
Vda8p503
p1
I1
sVcym5k4x
p2
I1
s.(dp0
Vdabfs03
p1
I1
sVcym5k4x
p2
I1
s.(dp0
Vcy(dp0
Vdsp2lxt
p1
I1
sVcym5k4x
p2
I1
s.