(dp0
Vd1a54ou
p1
I1
sVdi85u9b
p2
I1
sVd4o1h9t
p3
I1
sVd4gox3q
p4
I1
sVczquihv
p5
I1
sVdbyus9n
p6
I1
sVdjb3tbz
p7
I2
sVcyojnxi
p8
I1
sVd0trf10
p9
I1
sVczmcbxp
p10
I1
sVd7ccz66
p11
I1
sVdi4ydhh
p12
I2
sVd07zlcn
p13
I1
sVdjsbxjh
p14
I1
sVdrbbkyp
p15
I3
sVd1todw1
p16
I1
sVcz0qpzg
p17
I1
sVd7rxsfa
p18
I1
sVd2lajph
p19
I1
sVczdcw11
p20
I1
sVde1bbj1
p21
I1
sVd0tknzv
p22
I2
sVczuivep
p23
I1
sVdi57r4g
p24
I2
sVd472npm
p25
I1
sVd8xisgs
p26
I1
sVd0amg68
p27
I1
sVdmvfhua
p28
I1
sVd1ijkjc
p29
I2
sVdcgrth6
p30
I2
sVdikn5kw
p31
I1
sVddfaxqu
p32
I1
sVdfhje8b
p33
I1
sVdkqg5xy
p34
I1
sVde4a1s0
p35
I1
sVczzp4hc
p36
I1
sVdmqps1l
p37
I1
sVd9ncmj1
p38
I1
sVddwvj6x
p39
I1
sVd2yzrts
p40
I1
sVd0tl0oq
p41
I2
sVdcuhxp6
p42
I1
sVdfrhny3
p43
I1
sVdfsd1fn
p44
I2
sVdfyi33p
p45
I1
sVdi4pffq
p46
I1
sVdbobgho
p47
I1
sVczmf6aa
p48
I1
sVd9p52zh
p49
I1
sVd8upt9i
p50
I2
sVdckcrvb
p51
I1
sVdg27s31
p52
I1
sVczpgz65
p53
I1
sVdnv85ow
p54
I1
sVd3n7sts
p55
I1
sVdbi0a14
p56
I1
sVd1ttlzf
p57
I1
sVdhrwqfj
p58
I1
sVdnfh658
p59
I1
sVdrl4odb
p60
I1
sVdiz6csg
p61
I4
sVdee4isz
p62
I1
sVdg7zfxn
p63
I1
sVd0iv0hp
p64
I1
sVdbe68r9
p65
I1
sVd0yuwd5
p66
I1
sVdmu4829
p67
I1
sVdkdfzy6
p68
I1
sVdbrp4xv
p69
I1
sVcym92k3
p70
I1
sVd158lja
p71
I1
sVd6e79uj
p72
I1
sVd8hb861
p73
I2
sVd9d8fse
p74
I1
sVdkyg0lh
p75
I1
sVd87qme3
p76
I1
sVdiftz72
p77
I1
sVdaw7xsq
p78
I1
sVdj0vbob
p79
I1
sVdaw4jr6
p80
I1
sVczp427d
p81
I1
sVd5n1dvc
p82
I1
sVdcr982q
p83
I1
sVdg21t8v
p84
I1
sVdf104pj
p85
I1
sVd8k3cbo
p86
I1
sVd2wv8h3
p87
I1
sVd6w5es7
p88
I2
sVd66mno8
p89
I1
sVdhla319
p90
I1
sVdpqd7g8
p91
I1
sVd96yhux
p92
I1
sVd8ezvhv
p93
I1
sVd37e91v
p94
I1
sVd98xpfe
p95
I1
sVd4lktg9
p96
I1
sVdn99x27
p97
I1
sVdhs8d8m
p98
I1
sVd0fm3u5
p99
I1
sVd0fktqi
p100
I1
sVd5e1esa
p101
I1
sVd1sbucf
p102
I1
sVcyk7j27
p103
I1
sVdkp3nrp
p104
I1
sVdfyh6jy
p105
I1
sVd2h0y6d
p106
I1
sVd0h00vk
p107
I1
sVd2cczns
p108
I1
sVdgjl3vt
p109
I1
sVd96yf0x
p110
I1
sVd3oxo59
p111
I1
sVdg8i2ck
p112
I1
sVd8qf6ru
p113
I1
sVd0tx1zq
p114
I1
sVdea494s
p115
I1
sVdflygqb
p116
I1
sVdccgr4j
p117
I2
sVdhrkiqw
p118
I1
sVd4bcuix
p119
I1
sVd4br8m9
p120
I1
sVddpkhgd
p121
I1
sVd470u4h
p122
I1
sVdgpyrp1
p123
I1
sVdhyqwah
p124
I1
sVdfgfdvi
p125
I1
sVdedwwxx
p126
I1
sVd5ihlgf
p127
I1
sVd58eggh
p128
I1
sVd6vcgit
p129
I1
sVdd3bcfl
p130
I1
sVdnd9pzg
p131
I1
sVd30nmgf
p132
I1
sVd3r8uui
p133
I1
sVdnbwcmf
p134
I1
sVdg79e15
p135
I1
sVd14897b
p136
I1
sVcz6dl7t
p137
I1
sVd3b9i0z
p138
I1
sVdkoxc9h
p139
I1
sVd2zzwnc
p140
I1
sVd7w3z4j
p141
I1
sVd7pbfj0
p142
I1
sVd19c4mx
p143
I2
sVd06fmx3
p144
I1
sVd4azwji
p145
I1
sVczhz9iz
p146
I1
sVd0h3cn7
p147
I1
sVd77vb7j
p148
I1
sVde061st
p149
I1
sVddloa72
p150
I1
sVcyqvdmx
p151
I1
sVddvehtz
p152
I1
sVdfhmwh4
p153
I1
sVd0832dh
p154
I1
sVd85rylv
p155
I1
sVd51plxq
p156
I1
sVdrl8m0n
p157
I1
sVdswhpxh
p158
I1
sVdf3t9b5
p159
I2
sVcz9qh9j
p160
I1
sVd4o0ras
p161
I1
sVddxil2u
p162
I1
sVcyrjzse
p163
I1
sVdtg81b6
p164
I1
sVdqgpv8e
p165
I1
sVd42nwvo
p166
I1
sVdpz3lhf
p167
I1
sVd1gyi7d
p168
I2
sVdbcl8es
p169
I1
sVdefn6q0
p170
I1
sVczmz9li
p171
I1
sVd8uoe1x
p172
I1
sVd684qts
p173
I1
sVd17ve5s
p174
I1
sVd28t8r5
p175
I1
sVd0226ty
p176
I1
sVdq5ldc5
p177
I1
sVd0utzny
p178
I3
sVdcn53lf
p179
I2
sVddwvihl
p180
I2
sVdonsapr
p181
I1
sVdb2awtx
p182
I1
sVdbg6h13
p183
I1
sVczc3bqx
p184
I2
sVds0my7w
p185
I1
sVcynuck3
p186
I1
sVdr41vfb
p187
I1
sVd7mgbaw
p188
I1
sVdc9jisu
p189
I1
sVdieh835
p190
I1
sVd5ccozi
p191
I1
sVd9pk780
p192
I3
sVd8uoccn
p193
I2
sVd0whct9
p194
I1
sVd1u3fku
p195
I1
sVdnsqbij
p196
I1
sVd2cgt66
p197
I1
sVdftem1r
p198
I3
sVd13qb64
p199
I1
sVd59sfyk
p200
I1
sVd1jeskg
p201
I1
sVczskiwj
p202
I1
sVdjb3197
p203
I2
sVd971kn5
p204
I1
sVd6sgc37
p205
I1
sVd3h0u4b
p206
I2
sVdcm62g1
p207
I1
sVdeug0gz
p208
I1
sVdkf853t
p209
I1
sVd42tg5k
p210
I1
sVd9pl5w0
p211
I1
sVdcen7sh
p212
I1
sVdiba4ka
p213
I1
sVdckfl8o
p214
I1
sVdfsn6sh
p215
I1
sVdjkrrxj
p216
I1
sVddawuhq
p217
I1
sVddaejzt
p218
I1
sVdfvbauq
p219
I1
sVdo87foo
p220
I1
sVd6iapeb
p221
I2
sVd4hdhmm
p222
I1
sVdbyv9vh
p223
I1
sVdaenx2b
p224
I1
sVczs3hzr
p225
I1
sVd86e480
p226
I1
sVdi4gpa5
p227
I1
sVd1h7q5j
p228
I1
sVdgng8kn
p229
I3
sVd6spfk6
p230
I1
sVdi4c81d
p231
I1
sVdsmbm49
p232
I1
sVd9k8vrd
p233
I1
sVdftsiua
p234
I1
sVdsqfibk
p235
I1
sVd715ve8
p236
I1
sVd7egh1o
p237
I1
sVdi6lu3r
p238
I1
sVd0fo4bu
p239
I2
sVd0rtbr4
p240
I2
sVd472s8y
p241
I2
sVdd3snbn
p242
I1
sVdegmpxx
p243
I1
sVdiioris
p244
I1
sVdc9nint
p245
I1
sVdi601vt
p246
I1
sVdp7s5jb
p247
I1
sVcysc40t
p248
I1
sVd1qdlvf
p249
I2
sVcz57zen
p250
I1
sVd272759
p251
I1
sVd85kgeh
p252
I1
sVd45o4id
p253
I3
sVdgar4xk
p254
I1
sVdbe6uek
p255
I1
sVd2juhbh
p256
I1
sVdch9zfx
p257
I2
sVd7iuvqp
p258
I2
sVd40r5e8
p259
I1
sVd6rsp7l
p260
I2
sVdnixnpu
p261
I1
sVd89az55
p262
I1
sVd0c8lhi
p263
I1
sVddbxi3w
p264
I1
sVd8zcpa7
p265
I1
sVdbdwjwj
p266
I1
sVdafz4vl
p267
I1
sVdfey67y
p268
I1
sVdgy9ysl
p269
I1
sVdkowddl
p270
I1
sVd6botov
p271
I1
sVd0flzef
p272
I4
sVdemid34
p273
I1
sVd3okfmp
p274
I1
sVdnfn1z7
p275
I1
sVdfe0jmv
p276
I1
sVdd7cq9k
p277
I1
sVd5z6dii
p278
I3
sVdehbcqe
p279
I1
sVdbd36ot
p280
I1
sVd45ibrt
p281
I1
sVd0gyka9
p282
I2
sVd3pm50w
p283
I2
sVdku8px2
p284
I1
sVd20daes
p285
I1
sVd0upupt
p286
I2
sVd1q90bf
p287
I1
sVd2nffkz
p288
I1
sVcz03828
p289
I1
sVdft1alu
p290
I1
sVd8s0ye0
p291
I1
sVd1r93x9
p292
I1
sVdeo10n3
p293
I1
sVdehbhkm
p294
I1
sVd0tp68v
p295
I1
sVdg0i6d9
p296
I1
sVdjlo70d
p297
I1
sVd2q167k
p298
I2
sVdfi7gd7
p299
I1
sVcyndjro
p300
I1
sVdrsbibx
p301
I1
sVdjb1lzw
p302
I1
sVddnzhc9
p303
I1
sVdidejlw
p304
I1
sVd5erc5t
p305
I3
sVd911gxj
p306
I1
sVd1ngfni
p307
I2
sVdbjg43t
p308
I1
sVd1qzybj
p309
I1
sVczmca6p
p310
I1
sVdftie8q
p311
I1
sVdcmpya1
p312
I2
sVczya4ga
p313
I1
sVd1p0aus
p314
I1
sVczbj5er
p315
I1
sVcyosnw8
p316
I1
sVd85rgt1
p317
I4
sVd05jji1
p318
I1
sVdb1fg61
p319
I1
sVdb6vop8
p320
I1
sVdgynznc
p321
I2
sVdhfjfjc
p322
I1
sVdhexhoi
p323
I1
sVdc8s1so
p324
I1
sVdf6drcg
p325
I1
sVd0qo4ds
p326
I1
sVdhhc923
p327
I1
sVd25im42
p328
I1
sVddtmt1w
p329
I1
sVd9jhn1y
p330
I1
sVdaettcv
p331
I1
sVd8oyq0n
p332
I1
sVddpyt5d
p333
I1
sVd3r3m3p
p334
I1
sVd58vvzq
p335
I5
sVdglbnpb
p336
I1
sVd8m0mrx
p337
I1
sVdcxcwa2
p338
I1
sVdmk64qh
p339
I1
sVd65op9b
p340
I1
sVd2r103c
p341
I2
sVd6biu99
p342
I1
sVdfsm8ah
p343
I1
sVd0atmpg
p344
I2
sVdals9h6
p345
I1
sVdea6idm
p346
I2
sVczzw9qi
p347
I1
sVdn4v29d
p348
I2
sVcyoj30r
p349
I1
sVdef2s0a
p350
I1
sVd19530g
p351
I2
sVdekyab1
p352
I1
sVd4r2e32
p353
I1
sVd5or3j5
p354
I1
sVdel1ld8
p355
I3
sVd3xq4sh
p356
I1
sVd62pzp6
p357
I1
sVd3r7ma5
p358
I1
sVddxjpqz
p359
I2
sVdjui44i
p360
I1
sVdd3fiih
p361
I1
sVdmh6yim
p362
I1
sVdgphhjb
p363
I1
sVd0fcxkz
p364
I1
sVdckdf90
p365
I3
sVczu7872
p366
I1
sVd7fawtb
p367
I1
sVd0fkc4t
p368
I2
sVd7fbzf5
p369
I1
sVdg7uou8
p370
I1
sVd5z5kin
p371
I1
sVdk7a9ru
p372
I1
sVd531v9x
p373
I1
sVddbxvmr
p374
I1
sVdbclr00
p375
I1
sVda1gb96
p376
I1
sVdh3sgxt
p377
I1
sVd1l77jz
p378
I1
sVdhnuoo3
p379
I1
sVcyix9zp
p380
I1
sVde2ibub
p381
I1
s.