(dp0
Vdmwkn31
p1
I1
sVdd3gk1o
p2
I1
sVd1hhd4a
p3
I1
sVdk020xw
p4
I1
sVdcq1e63
p5
I1
sVdnfh658
p6
I1
sVdb7s9oy
p7
I1
sVd191s1p
p8
I1
sVdi8o9pf
p9
I1
sVd1sbucf
p10
I1
sVdkqhx5v
p11
I1
sVdftibzw
p12
I1
sVd4sg2tu
p13
I1
sVd1h7q5j
p14
I1
sVd3qujwv
p15
I1
sVd1ha3ss
p16
I1
sVdk8r870
p17
I1
sVd1oq3qg
p18
I1
sVd3qxyeq
p19
I1
sVd6biu99
p20
I1
sVd37cnma
p21
I1
sVcyyztqm
p22
I1
sVddnzhc9
p23
I1
sVd45o4id
p24
I1
sVdelde1r
p25
I1
sVczp427d
p26
I1
sVdi3dp8o
p27
I1
sVdi4dfc3
p28
I1
sVcys5sli
p29
I1
sVdfsvb44
p30
I1
sVczqg2gx
p31
I1
sVd4e5akd
p32
I1
sVddss82e
p33
I1
sVdek0thp
p34
I1
sVdckfl8o
p35
I1
sVd02r1li
p36
I1
sVd7rxsfa
p37
I1
sVcylkp5d
p38
I1
sVd1hbq8d
p39
I1
sVdi4ralf
p40
I2
sVdohd5em
p41
I1
sVcz1bwgb
p42
I1
sVcyl207p
p43
I1
sVdkdgt1y
p44
I1
sVcz2r7cz
p45
I1
sVd88gx2d
p46
I1
sVd99yyvw
p47
I1
sVdt714rj
p48
I1
sVdcy0qho
p49
I1
sVd19530g
p50
I1
sVdhtomnd
p51
I1
sVdtfshuy
p52
I1
sVdftem1r
p53
I3
sVdi5uil0
p54
I1
sVdhk5trq
p55
I1
sVdj05faf
p56
I1
s.