(dp0
Vcz0vech
p1
I1
sVd6un6ty
p2
I1
sVd59tmdj
p3
I1
sVde6wqcc
p4
I1
sVdkbt0sl
p5
I1
sVd5f2otl
p6
I2
sVdbeflo6
p7
I1
sVd1tp70g
p8
I1
sVd3g0j1j
p9
I3
sVd72gmhc
p10
I1
sVd5iukz0
p11
I1
sVdg9iuqp
p12
I1
sVd7hncbl
p13
I1
sVdcxh7az
p14
I25
sVd7eld19
p15
I1
sVd55ybgo
p16
I1
sVczzr7wt
p17
I1
sVdflu21t
p18
I1
sVdj2skx8
p19
I2
s.