(dp0
Vdbjx6dk
p1
I1
sVdca6kkz
p2
I1
sVd4gq1xi
p3
I1
sVdfq3ef9
p4
I1
sVd6t1530
p5
I1
sVdihd0ud
p6
I1
sVdmxuqdf
p7
I1
sVd1c9ls0
p8
I1
sVdh24y65
p9
I1
sVd2zslil
p10
I1
sVdfope3q
p11
I1
sVdbpxmph
p12
I1
sVdh5rwpr
p13
I1
sVczgicx9
p14
I1
sVd115i2k
p15
I1
sVd392eo2
p16
I1
sVd31g36h
p17
I1
sVd64veyw
p18
I1
sVd9e0kjn
p19
I1
sVd3hklmd
p20
I1
sVd2j9914
p21
I1
sVcztsesx
p22
I1
sVdkg6c3q
p23
I1
sVdacuvjj
p24
I1
sVd6p9dds
p25
I1
sVd8doz64
p26
I1
sVdc4egig
p27
I1
sVd82pjzq
p28
I1
sVdpa0bjf
p29
I1
sVcyppotf
p30
I1
s.