(dp0
Vd2lw5ty
p1
I1
sVd64pcyr
p2
I1
sVd630cpu
p3
I1
sVdexesur
p4
I1
sVdsih77c
p5
I1
sVd23g4rv
p6
I2
sVdcwudu3
p7
I3
sVda9dq8k
p8
I1
sVdah5ext
p9
I1
sVdniq9j0
p10
I1
sVdslzgs5
p11
I1
sVcyjja7d
p12
I1
sVdhjg4h2
p13
I1
sVdoupa1s
p14
I1
sVdbpxmph
p15
I1
sVd19xpot
p16
I1
sVd8ip5ez
p17
I1
sVdq35hf1
p18
I3
sVdhieug1
p19
I1
sVd5z4w7i
p20
I1
sVdnvp6ou
p21
I1
s.