(dp0
Vdq506zz
p1
I1
sVda3igoc
p2
I1
sVdnjhoga
p3
I1
sVdcx54mi
p4
I1
sVd35ey6k
p5
I1
sVd3r5yjn
p6
I1
sVd4eubmw
p7
I1
sVdcxffu5
p8
I1
sVd4h3dc2
p9
I1
sVczzh0f0
p10
I1
sVdbnd7r7
p11
I1
sVcyt5eci
p12
I1
sVd2ranv2
p13
I1
sVdnn3aiy
p14
I1
sVdbn8h8m
p15
I1
sVdig3f7f
p16
I1
sVd2ydd3a
p17
I1
sVd2wogbj
p18
I1
sVd13d758
p19
I1
sVdokjylh
p20
I1
sVd6rll03
p21
I1
sVdbqfun4
p22
I1
sVdn8qqly
p23
I2
sVdfmi0bj
p24
I1
sVdn639ph
p25
I1
sVddgfoxt
p26
I1
sVdbncto2
p27
I1
sVdbpa6f9
p28
I1
sVddzlmw1
p29
I1
sVcysl0ol
p30
I1
sVd8eqwes
p31
I1
s.