(dp0
Vd1o5xq3
p1
I1
sVd48jaaj
p2
I1
sVd5ryi5o
p3
I1
sVdfi5jnu
p4
I1
sVdgtc2am
p5
I1
sVdilxz2b
p6
I5
sVdhfixju
p7
I1
sVd3pv4js
p8
I1
sVd7s1iin
p9
I1
sVdkvlz21
p10
I1
sVdhplig3
p11
I1
sVdf70rdm
p12
I3
sVdda3kgh
p13
I1
sVdcl99py
p14
I1
sVczbhxvb
p15
I1
sVdk7mz8s
p16
I1
sVczi7hhc
p17
I1
sVdihb9ek
p18
I1
sVczi9ddl
p19
I1
sVdc7t8pp
p20
I1
sVczwexb4
p21
I4
sVdctnlzo
p22
I1
sVd99yu2t
p23
I1
s.