(dp0
Vcz9du61
p1
I1
sVd5cpcpf
p2
I1
sVd4htfz8
p3
I1
sVd0m6sil
p4
I1
sVdn1cnh1
p5
I2
sVd5wwsxb
p6
I1
sVdb4ob6m
p7
I1
sVd0xd9m8
p8
I1
sVd6tv0bi
p9
I1
sVdbr55f6
p10
I1
sVd6hiyzc
p11
I1
sVdjmkh5s
p12
I1
sVd1w77nw
p13
I1
sVdhfyl1m
p14
I1
sVd29xlkz
p15
I1
s.