(dp0
Vdj9drqu
p1
I1
sVdj5xepg
p2
I1
sVd721eed
p3
I1
sVdf4f9po
p4
I1
sVdnnoj2r
p5
I1
sVd5ct2j6
p6
I1
sVdogfabw
p7
I1
sVd0cvxtn
p8
I1
sVdonsapr
p9
I2
sVdnrdi9y
p10
I1
sVd3x0w53
p11
I1
sVdj64iny
p12
I1
sVd0t5wcm
p13
I1
sVdg1fy04
p14
I1
sVd628yey
p15
I1
sVdr2dvov
p16
I1
sVdkq5nwd
p17
I1
sVddm7900
p18
I1
sVdsviz3h
p19
I1
sVczopvdz
p20
I1
sVda5ypfb
p21
I1
sVd3hqsue
p22
I1
sVcz47mfj
p23
I1
sVdfikfrz
p24
I1
sVdi7advf
p25
I2
sVd61waop
p26
I1
sVczspu0c
p27
I1
sVdmowqi1
p28
I1
sVdbnnbzc
p29
I1
sVd22b6x0
p30
I1
sVcz4igt6
p31
I1
sVd7at62x
p32
I1
sVd6x7g3g
p33
I1
sVdoj5rmb
p34
I1
sVdbczeuk
p35
I2
sVd2hzts0
p36
I1
sVdr5hmrt
p37
I1
sVd84na8u
p38
I1
sVdc09241
p39
I1
sVczc3jyi
p40
I1
sVd83wbwx
p41
I1
sVdprh4ix
p42
I1
sVd2zl0g9
p43
I1
sVd6fm55v
p44
I1
sVdn0wzdn
p45
I2
sVd27a9gm
p46
I1
sVdmq2mm4
p47
I1
sVdp47nmy
p48
I1
s.