(dp0
Vdh0qr5g
p1
I2
sVd5qp6sa
p2
I1
sVdg3cdsd
p3
I2
sVdjzmq0y
p4
I1
sVd1etz22
p5
I2
sVd0t9xnh
p6
I1
sVdongk0e
p7
I1
sVdheys3u
p8
I1
sVdhjgx00
p9
I1
sVd56jbvo
p10
I1
sVd5odjpq
p11
I1
sVd01zbpd
p12
I2
sVdnik6gv
p13
I1
sVd2ln9ln
p14
I1
sVd06hokr
p15
I1
sVd5odhi6
p16
I3
sVd8upt9i
p17
I1
sVdh0t3yd
p18
I1
sVdh1e318
p19
I1
sVdq4s02w
p20
I1
sVdh0xhxr
p21
I1
sVdguguhi
p22
I6
sVd7so2qz
p23
I1
sVdh0kx54
p24
I1
sVd0t84oq
p25
I1
sVcz2ui64
p26
I1
sVdfulg7k
p27
I1
sVdbspxch
p28
I1
sVdaubrod
p29
I1
sVdgf2c1s
p30
I1
sVd272i8f
p31
I1
sVd389cii
p32
I1
sVdh0je5n
p33
I1
sVdnanpct
p34
I1
sVd4phboj
p35
I2
sVdg9fgl1
p36
I1
sVdiprbph
p37
I1
sVd8k8jfm
p38
I1
sVd3h0hw5
p39
I1
sVdauc4b5
p40
I1
sVdauagc5
p41
I1
sVdj14db7
p42
I1
sVdbnclmf
p43
I1
sVd38aujf
p44
I1
sVdfi0n3q
p45
I1
sVd3h0o47
p46
I1
sVddd7fdt
p47
I2
sVdh0wn50
p48
I1
sVdavbnpm
p49
I1
sVd7gpohe
p50
I1
sVd20vgiv
p51
I1
sVd82bs8b
p52
I1
sVd3sba1y
p53
I2
sVdo42ihl
p54
I1
sVdcl4inz
p55
I1
sVd5fmb40
p56
I1
sVd5giklg
p57
I1
sVdn15mu8
p58
I2
sVdqxs6fw
p59
I1
sVdkskpdw
p60
I1
sVd5w1upg
p61
I1
sVd8gpdp6
p62
I1
sVd5oqzdq
p63
I1
sVdiyr0so
p64
I1
sVdendig1
p65
I1
sVdn1j6wm
p66
I2
sVcziqzwv
p67
I1
sVdiey5dn
p68
I1
sVd956ynh
p69
I1
sVdrchpnl
p70
I1
sVdf1beno
p71
I1
sVd2o637a
p72
I1
sVd4o71ms
p73
I1
sVd0hqks4
p74
I1
sVd594mcn
p75
I1
sVd7vn2wm
p76
I1
sVdcbu3yw
p77
I1
sVczavggb
p78
I1
sVd2kuwd0
p79
I2
sVd68gjsd
p80
I1
sVd1ttyzo
p81
I1
sVdddlglp
p82
I1
sVd40ml34
p83
I2
s.