(dp0
Vdguoggq
p1
I1
sVd3len5w
p2
I1
sVd9e0hfs
p3
I1
sVdilzk9l
p4
I1
sVczv0i5m
p5
I1
sVd72czcb
p6
I2
sVd1p6qgc
p7
I1
sVdcmemqh
p8
I1
sVdp0tfjp
p9
I1
sVd1ku8b3
p10
I1
sVd1d2gap
p11
I1
sVcypxjc8
p12
I1
sVdic151o
p13
I1
sVdmzt1sa
p14
I1
sVd6hqtdk
p15
I1
sVdnxd6s4
p16
I1
sVdol2v0i
p17
I1
sVd5ixvg7
p18
I1
sVdmsfsv2
p19
I1
sVdni66d1
p20
I1
sVdfamtwk
p21
I1
sVdjlb4gk
p22
I1
sVdad4i39
p23
I1
sVd0wp9f4
p24
I1
sVdqvzado
p25
I1
sVd5oz9rd
p26
I1
sVdc8utw1
p27
I1
sVdhyk6fa
p28
I1
sVd12nemj
p29
I1
sVczgzjrr
p30
I1
sVd72p2la
p31
I1
sVd1g2603
p32
I1
sVcyi766b
p33
I1
sVd141rlv
p34
I1
sVde62zv5
p35
I2
sVd4cwupb
p36
I2
sVd291c2b
p37
I1
sVd3kta3t
p38
I1
sVdoeoftq
p39
I2
sVcytsoyj
p40
I1
sVdt648b9
p41
I1
sVdi2c9fw
p42
I1
sVdoqxwnr
p43
I1
sVd067430
p44
I1
sVdh89jwi
p45
I1
sVd1ddp6i
p46
I1
sVd7247u3
p47
I1
sVcywth19
p48
I1
sVczrj9jq
p49
I1
sVddhs1vs
p50
I1
sVdg3usiq
p51
I1
sVd48hrwx
p52
I1
sVd3grxlj
p53
I1
sVdswinyk
p54
I1
sVdoepi8e
p55
I1
sVcz58cpc
p56
I1
sVdgw8d10
p57
I1
sVdguzqmn
p58
I1
sVd7qiyel
p59
I1
sVdaxfyiw
p60
I1
sVd63qu3p
p61
I1
sVdiz48jo
p62
I1
sVdn9jdh4
p63
I2
sVdi55jzu
p64
I1
sVd1dmuga
p65
I1
sVd53edfy
p66
I1
sVdbyh49v
p67
I1
sVd3ko06h
p68
I3
sVdo3y647
p69
I1
sVdjdj61v
p70
I1
sVdc080w8
p71
I1
sVdddycxf
p72
I1
sVd5z80xx
p73
I1
sVczgpmc6
p74
I1
s.