(dp0
Vczgx0tm
p1
I1
s.(dp0
Vczgx0tm
p1
I1
sVd0cm9ch
p2
I1
s.(dp0
Vczgx0tm
p1
I1
sVd11l3me
p2
I1
s.(dp0
Vczgx0tm
p1
I1
sVd3len5w
p2
I1
s.(dp0
Vczgx0tm
p1
I1
sVd3len5w
p2
I1
s.(dp0
Vczgx0tm
p1
I1
sVd4ctcf0
p2
I1
s.(dp0
Vczgx0tm
p1
I1
sVdf8r2zs
p2
I1
s.(dp0
Vczgx0tm
p1
I1
sVdq3zmnd
p2
I1
s.