(dp0
Vcyq4j1n
p1
I1
s.(dp0
Vcyq4j1n
p1
I1
sVd7tkb5t
p2
I1
s.(dp0
Vcyq4j1n
p1
I1
sVd7tkb5t
p2
I1
s.(dp0
Vdh2qlww
p1
I1
sVcyq4j1n
p2
I1
s.(dp0
Vdh2qlww
p1
I1
sVcyq4j1n
p2
I1
s.(dp0
Vdjsiryy
p1
I1
sVcyq4j1n
p2
I1
s.(dp0
Vdmxrker
p1
I1
sVcyq4j1n
p2
I1
s.(dp0
Vdqg9a5t
p1
I1
sVcyq4j1n
p2
I1
s.(dp0
Vcyq4j1n
p1
I1
sVdr6i46d
p2
I1
s.(dp0
Vcyq4j1n
p1
I1
sVdra6kl3
p2
I1
s.