(dp0
Vcziuxkl
p1
I1
sVdc1omtd
p2
I1
sVd50g7xo
p3
I1
sVdqfgex8
p4
I1
sVd1rd7cc
p5
I1
sVdbcy03x
p6
I1
sVczvx2sq
p7
I1
sVdnd9pzg
p8
I1
sVd5el7p6
p9
I1
sVdgy62j0
p10
I1
sVdhoiubw
p11
I1
sVdjj3vr9
p12
I1
sVdshl4c9
p13
I1
sVdcxfy0f
p14
I1
sVddwpf81
p15
I1
sVd3ojx0c
p16
I1
sVdb5aue1
p17
I3
sVd38jiem
p18
I2
sVd3ozwzs
p19
I2
sVd29ey0m
p20
I1
sVdivgllk
p21
I1
sVdabpyyz
p22
I2
sVd7p1hcw
p23
I1
sVdjtogcz
p24
I1
sVdclkhjl
p25
I1
sVd417hpm
p26
I2
sVd727s11
p27
I1
sVd0y2yl6
p28
I1
sVd58reid
p29
I1
sVdhp7qfa
p30
I3
sVczollmu
p31
I1
sVddsypza
p32
I2
sVd0ig0k7
p33
I1
sVdmmlmsa
p34
I3
sVdhs3he0
p35
I1
sVd0676p0
p36
I1
sVd5cx2ef
p37
I1
sVdnfpx6t
p38
I1
sVdklhbsk
p39
I1
sVd2kx81t
p40
I2
sVdea6idm
p41
I1
sVd6vlblu
p42
I2
sVd4vcd6w
p43
I1
sVd5w5nge
p44
I2
sVdn5t9ua
p45
I1
sVdbo2g38
p46
I1
sVdpjccva
p47
I1
sVdft5zih
p48
I1
sVd38mir3
p49
I1
sVdmi6o1v
p50
I1
sVd0ngt1x
p51
I1
sVdi0jyh4
p52
I1
sVd0nf5y0
p53
I1
sVd43fm1s
p54
I1
sVdhqseia
p55
I1
sVdal2zk0
p56
I7
sVd739il4
p57
I1
sVd1w56yu
p58
I1
sVd05nee8
p59
I1
sVd8yt4ly
p60
I1
sVd9ulgd8
p61
I1
sVd8c1f7o
p62
I1
sVczc3vkb
p63
I1
sVd0un20t
p64
I1
sVdhzzm7l
p65
I1
sVd91tkcw
p66
I1
sVda5rh11
p67
I1
sVd2mgc5j
p68
I1
sVdklhsg8
p69
I3
sVd01dxff
p70
I1
sVd4452av
p71
I1
sVdgyt5pw
p72
I1
sVd8xb2vv
p73
I1
sVcyj9580
p74
I1
sVd9h8uj3
p75
I1
sVd07tc7u
p76
I1
sVd1p25a0
p77
I1
sVdn1mod1
p78
I10
sVdc3vy5w
p79
I1
sVd43eiun
p80
I1
sVdifh2x4
p81
I1
sVdjkrrxj
p82
I1
sVd0nx87p
p83
I1
sVdfvvxw9
p84
I1
sVdof59uj
p85
I1
s.