(dp0
Vd0409sy
p1
I1
sVd01javt
p2
I1
sVdawiec4
p3
I1
sVd0iodu8
p4
I1
sVd5mapac
p5
I1
sVd04jaht
p6
I2
sVd8nhcfo
p7
I1
sVdieatwp
p8
I1
sVd0nwert
p9
I1
sVdbjapw1
p10
I1
sVddk061f
p11
I1
sVdgvqsch
p12
I1
sVdeqqso2
p13
I1
sVd9j31wl
p14
I1
sVd48m0yv
p15
I1
sVdf19en1
p16
I1
sVd6xa3ww
p17
I2
sVd0ffncq
p18
I3
sVcz0jvl0
p19
I1
sVcz87set
p20
I1
sVd1620w1
p21
I1
sVd6jx6ed
p22
I1
sVd34oyqn
p23
I1
sVd1asz3i
p24
I1
sVddy6g7b
p25
I2
sVd3a7zdk
p26
I1
sVds741t2
p27
I1
sVd5i17s7
p28
I4
sVdixzg6t
p29
I1
sVdj3h70t
p30
I1
sVd6v1fg5
p31
I1
sVczw1h2x
p32
I1
sVd88fd7n
p33
I1
sVd1v0ri4
p34
I1
sVd04xw6m
p35
I1
sVd19ms2w
p36
I1
sVd5hfz2s
p37
I1
sVdfwh1nr
p38
I1
sVd0n5a7h
p39
I1
sVcysnnku
p40
I1
sVdeae7kc
p41
I1
sVd5jpu2g
p42
I1
sVd8iowe4
p43
I1
sVd71ony1
p44
I1
sVdbcnzoo
p45
I1
sVd8x2j3x
p46
I1
sVdhxn56b
p47
I1
sVdgt9mag
p48
I1
sVcyyy6zb
p49
I1
sVd1ij9gs
p50
I1
sVdhggtvn
p51
I1
sVd4pi6b6
p52
I1
sVd0ok9w6
p53
I1
sVd236ubu
p54
I1
sVcyposws
p55
I1
sVcyj2qmw
p56
I1
sVdirglqv
p57
I1
sVdb112lh
p58
I1
sVd2i8jis
p59
I3
sVdoe4wip
p60
I1
sVdk809xl
p61
I2
sVdk0dnm6
p62
I2
sVdkalc5q
p63
I4
sVd2n2j63
p64
I3
sVd1ojrq8
p65
I1
sVdjzs913
p66
I4
sVd9ujgt6
p67
I1
sVdg0tc3v
p68
I1
sVdfxeyy6
p69
I1
sVd7zyo2t
p70
I3
sVcz0qehg
p71
I1
sVd6036ay
p72
I1
sVdd3a3i9
p73
I2
sVda5ykiy
p74
I1
sVd2i7y95
p75
I1
sVd9fcf2k
p76
I3
sVd0j3t1f
p77
I1
sVdixbeh9
p78
I1
sVdjphgip
p79
I3
sVdomzdy9
p80
I1
sVdhf7394
p81
I1
sVdepvunx
p82
I3
sVddretwg
p83
I1
sVd0s94rk
p84
I1
sVczks72d
p85
I1
sVd04e361
p86
I1
sVdkk5r20
p87
I1
sVde90gfa
p88
I1
sVdg08swq
p89
I1
sVd29ctsc
p90
I1
sVds87w9j
p91
I3
sVdcvu5t4
p92
I1
sVdf79air
p93
I1
sVczxlpk7
p94
I1
sVd8ow7b3
p95
I2
sVdf7e333
p96
I1
sVdi5czv6
p97
I1
sVdpf38nn
p98
I1
sVdfa4vvd
p99
I1
sVds0sla9
p100
I1
sVd4p1qwv
p101
I1
sVd2f2jej
p102
I1
sVdjpy2et
p103
I1
sVd9yq8gt
p104
I1
sVd4tszwy
p105
I1
sVdggyu6h
p106
I1
sVdd61yop
p107
I2
sVd0ny7n6
p108
I1
sVcz0qk0v
p109
I2
sVd7hus7y
p110
I1
sVcys9i7r
p111
I1
sVd0co86o
p112
I1
sVdg2b1gz
p113
I1
sVd9fsyrm
p114
I1
sVdfaq310
p115
I1
sVd3orqf8
p116
I2
sVd0he0dm
p117
I1
sVdg750pw
p118
I1
sVd7rijef
p119
I1
sVds0dh7i
p120
I1
sVd8w3ex0
p121
I4
sVdeb1z7p
p122
I1
sVd682myu
p123
I1
sVdgvr4wr
p124
I1
sVd0xvetz
p125
I1
sVd8u2pvy
p126
I2
sVd4guhue
p127
I1
sVdb1tdkg
p128
I1
sVdjed045
p129
I1
sVd2i88ov
p130
I2
sVd72n4hb
p131
I1
sVdco4qzl
p132
I1
sVdkz1nk8
p133
I3
sVd9vpmln
p134
I1
sVdacv5ym
p135
I1
sVd2loplh
p136
I2
sVd7rdysi
p137
I1
sVczfgjfn
p138
I1
sVdi6exp1
p139
I1
sVd56x1u9
p140
I1
sVd6zi417
p141
I1
sVdj2gtgj
p142
I1
sVdhobuuz
p143
I1
sVdj40u5q
p144
I2
sVd0r3618
p145
I1
sVdjvewhj
p146
I3
sVdb62dva
p147
I4
sVdkalkgx
p148
I3
s.