(dp0
Vd0og6g7
p1
I2
sVd69nkyp
p2
I1
sVcz5dz33
p3
I1
sVdbh8etx
p4
I2
sVdep6g8u
p5
I1
sVddu3dau
p6
I2
sVd6bbgec
p7
I1
sVdrf7hcl
p8
I1
sVd1kml9o
p9
I1
sVd0gr7dz
p10
I5
sVd5mgu9g
p11
I1
sVdr3vch4
p12
I2
s.