(dp0
Vdk9yekq
p1
I1
sVdro37e9
p2
I1
sVd5gnyrv
p3
I1
sVdq4tgqb
p4
I1
sVdojg292
p5
I1
sVd9b8hnc
p6
I1
sVdi2tesh
p7
I2
sVdfhluax
p8
I3
sVcywsmbw
p9
I1
sVd9gesgx
p10
I1
sVdprho4l
p11
I1
sVd4khtr3
p12
I1
sVdaaw6nf
p13
I1
sVd0v6cmh
p14
I1
sVd2o3g7n
p15
I2
sVczqb99d
p16
I1
sVd6i2grs
p17
I1
sVdozc038
p18
I1
sVdp12q5x
p19
I1
sVd5s6r3x
p20
I2
sVdsupqx1
p21
I1
s.