(dp0
Vdgcwr2r
p1
I1
sVd89zkbu
p2
I1
sVd4v4ihh
p3
I1
sVdjvwvfs
p4
I1
sVd68oyzi
p5
I1
sVdie7m1j
p6
I1
sVdetwa9n
p7
I1
sVd68rujr
p8
I1
sVdgcu6t1
p9
I2
sVd68xqar
p10
I1
sVdr79bt5
p11
I1
sVdosv13e
p12
I1
sVd7bluaw
p13
I1
sVdor8i35
p14
I2
sVd68mjzz
p15
I1
sVdnd1hzx
p16
I1
sVdst2y1p
p17
I3
sVd688r6u
p18
I1
sVdnbo39u
p19
I5
sVczryfzm
p20
I2
sVdca9nqr
p21
I1
sVdnaelu1
p22
I1
sVdsdx379
p23
I3
sVd6irji2
p24
I1
sVd68gjsd
p25
I1
sVd68ll0l
p26
I1
sVdf9muco
p27
I1
sVdscpogi
p28
I4
sVddx7h0x
p29
I1
sVd46stur
p30
I1
sVd68fjsd
p31
I2
sVdqr57qk
p32
I1
sVd0s6i8k
p33
I1
sVd68sjy6
p34
I3
sVd9xfias
p35
I1
sVdsic3q9
p36
I1
sVdrja5e2
p37
I1
sVdgv8few
p38
I1
sVdghv8bo
p39
I1
sVd691ujc
p40
I3
sVczch81r
p41
I1
sVd68uw87
p42
I1
sVdscpxrz
p43
I2
sVdfiyv0z
p44
I1
s.