(dp0
Vdkr68uw
p1
I1
sVdieau3t
p2
I1
sVd1x1j4z
p3
I1
sVd9146i2
p4
I1
sVd563wjx
p5
I1
sVdpibg0g
p6
I1
sVdmnlizt
p7
I1
sVd4wkahv
p8
I1
sVdiy906k
p9
I1
sVd4ei0zn
p10
I1
sVd48cpvw
p11
I1
sVd8gq5vd
p12
I1
sVdfj8fyk
p13
I1
sVdhgxh07
p14
I1
sVd2n81hg
p15
I1
sVdhguhe3
p16
I1
s.