(dp0
Vdd3fblx
p1
I4
sVd5f1yme
p2
I1
sVdhqaooy
p3
I1
sVcz5od27
p4
I1
sVdd5xjxz
p5
I2
sVdejd7c3
p6
I1
sVdch9s8v
p7
I1
sVdc8hjt9
p8
I1
sVd95qr06
p9
I1
sVddfbenc
p10
I1
sVdd1f8z9
p11
I1
sVdmrx07j
p12
I1
sVcyvbv7b
p13
I1
sVdia3o93
p14
I1
sVd0b5s9x
p15
I1
sVdfttws0
p16
I1
sVd0tel5c
p17
I1
sVdcwrpxh
p18
I1
sVd250wlv
p19
I1
sVdcvj7x1
p20
I1
sVdni3tga
p21
I1
sVdd61u5n
p22
I2
sVd71xyu6
p23
I1
sVd6c3mov
p24
I1
sVdpcr9fw
p25
I1
sVd9ujn7c
p26
I1
sVdfxxkx8
p27
I1
sVd5oe9rk
p28
I1
sVdc1mgsz
p29
I1
sVd200kas
p30
I1
sVdaxj5do
p31
I1
sVd60pfzg
p32
I2
sVd5hy4i6
p33
I1
sVddklv5r
p34
I1
sVd2gdxoc
p35
I1
sVdhu19jz
p36
I1
sVdbrcmid
p37
I1
sVd6lpbbg
p38
I1
sVd10sv71
p39
I1
sVcyu5xwp
p40
I1
sVd08fijn
p41
I1
sVd39vttd
p42
I1
sVdgt6d51
p43
I1
sVddj8nru
p44
I1
sVdc9du66
p45
I1
sVd84esbx
p46
I3
sVdd41dh4
p47
I1
sVcz37etp
p48
I1
sVd2whb00
p49
I1
sVdjckoj8
p50
I1
sVd5be3hx
p51
I1
sVd1umt2h
p52
I1
sVdsp8d1c
p53
I3
sVddsf6oy
p54
I1
sVdnzduj9
p55
I1
sVd1de719
p56
I1
sVdfxewn8
p57
I3
sVdd42jz9
p58
I1
sVdkdzyms
p59
I1
sVde7ni9n
p60
I1
sVd2g9f2d
p61
I1
sVd7vrpiq
p62
I1
sVd6m74k8
p63
I1
sVd4hw3ia
p64
I1
sVd4ysahv
p65
I1
sVd1sb3lz
p66
I1
sVdk365pd
p67
I1
sVddby5k1
p68
I2
sVdrkjz8y
p69
I5
sVd2ifrjl
p70
I1
sVdcy9s71
p71
I1
sVd0almvy
p72
I1
sVd59wl99
p73
I2
sVdamefxv
p74
I1
sVdf3d5rr
p75
I1
sVd6fajp6
p76
I1
sVdomjbzt
p77
I1
sVcyvrvxg
p78
I1
sVddbm1rq
p79
I1
sVdjrkyh5
p80
I1
sVd139wyw
p81
I1
sVcyi1kys
p82
I2
sVd85wkeh
p83
I1
sVdj9g1p6
p84
I1
sVdo0gcm3
p85
I1
sVdd1ygl7
p86
I3
sVd30udg5
p87
I1
sVdd6tfn8
p88
I1
sVdclsi42
p89
I1
sVdftkoqm
p90
I1
sVd8tvjj2
p91
I1
sVcz2e9nx
p92
I1
sVdcusld3
p93
I1
sVdmik5od
p94
I2
sVdgomlp5
p95
I2
sVdda1bqq
p96
I1
sVdpjb1dx
p97
I1
sVdbirzkb
p98
I2
sVd0ou6im
p99
I1
sVcz4oljd
p100
I1
sVddcg4p7
p101
I1
sVdar1ri3
p102
I1
sVdbia2tu
p103
I5
sVd4gl7xf
p104
I1
sVczw3klr
p105
I1
sVdckn6hc
p106
I2
sVdcl7dey
p107
I1
sVd0ylw1b
p108
I1
sVd88zvhf
p109
I2
sVd04899g
p110
I1
sVdf893jr
p111
I1
sVd0d6j1p
p112
I1
sVdfzb4iu
p113
I1
sVczv3yhi
p114
I2
sVdkm5jl8
p115
I1
sVdd204fn
p116
I1
sVdd4llny
p117
I1
sVdhpiuad
p118
I1
sVd1j5jdn
p119
I1
sVddcgbif
p120
I1
sVda5ljjn
p121
I1
sVdbxn69r
p122
I1
sVd2321wb
p123
I1
sVdmgy3ye
p124
I2
sVddboksf
p125
I1
sVd8d7gs1
p126
I1
sVdg1ai8f
p127
I1
sVd69a9a8
p128
I1
sVd312yvz
p129
I1
sVcz37e37
p130
I1
sVdde1fvt
p131
I2
sVd7s5t2i
p132
I1
sVdcw0z66
p133
I1
sVd8c9rmu
p134
I1
sVdiobj0c
p135
I2
sVd95fhd0
p136
I1
sVddg7xff
p137
I1
sVdtbd4of
p138
I1
sVd5uqhks
p139
I1
sVd8gfict
p140
I1
sVd7mukpw
p141
I1
sVddb7r20
p142
I1
sVd1v0ri4
p143
I1
sVdb2kz0q
p144
I2
sVdhynxz1
p145
I1
sVdteph92
p146
I1
sVdkltdku
p147
I1
sVd8tvc80
p148
I4
sVdco6ct6
p149
I1
sVdbe2dh6
p150
I1
sVcz6wu3x
p151
I1
sVdfgsibx
p152
I1
sVczz5818
p153
I1
sVd7mxa2q
p154
I1
sVd3r4o7u
p155
I1
sVd3yzr5m
p156
I1
sVd88zgi4
p157
I2
sVdhlrc0b
p158
I1
sVcza545z
p159
I1
sVddcg5ih
p160
I3
sVdqibf2w
p161
I1
sVdfxevt0
p162
I3
sVd60s68b
p163
I1
sVd9a75hf
p164
I1
sVd5owqgr
p165
I1
sVdbi9j0p
p166
I2
sVdd6fsna
p167
I1
sVd5gy5wl
p168
I1
sVd26mdrv
p169
I1
sVdchrx1n
p170
I1
sVddic0ew
p171
I1
sVdglii4p
p172
I1
sVd9t41gk
p173
I1
sVd8n5z18
p174
I1
sVdf0gom8
p175
I1
sVd1savbe
p176
I1
sVdfxwm5m
p177
I2
sVd1em66y
p178
I1
sVdsju9tn
p179
I1
sVczhz0d2
p180
I1
sVd4gozja
p181
I1
sVdq7ttgd
p182
I1
sVd2bq47z
p183
I1
sVd14aewn
p184
I1
sVd1zoxng
p185
I2
sVdfvfaql
p186
I2
sVd2p8707
p187
I1
sVcz3jqlt
p188
I1
sVcys45w8
p189
I1
sVdfrhgqy
p190
I1
sVdjmmqkk
p191
I1
sVdaq3wuv
p192
I1
sVdckkrdv
p193
I3
sVdd9zqk5
p194
I1
sVd5g3t66
p195
I1
sVd8kg2ce
p196
I1
s.