(dp0
Vd9tcxj7
p1
I1
sVd7qrqwc
p2
I1
sVdffpmbd
p3
I1
sVdnkm9cl
p4
I1
sVdnwhkdw
p5
I1
sVczdi74q
p6
I3
sVdc8y2l7
p7
I1
sVdnzd0v0
p8
I1
sVdt4dv18
p9
I1
sVdc11hhg
p10
I1
sVdovszxy
p11
I1
sVdeor04a
p12
I1
sVdgz04q0
p13
I1
sVcze2p50
p14
I5
sVd2r2wls
p15
I1
sVdck48u4
p16
I1
sVd1l7qi3
p17
I1
sVcyhzya6
p18
I2
sVdj0k5u8
p19
I3
sVcyszv8o
p20
I2
sVdk2h6jh
p21
I1
sVdaal1dq
p22
I1
sVd1m0pel
p23
I1
sVd7v4f0a
p24
I1
sVcyovzvg
p25
I1
sVdfxpzbr
p26
I1
sVdhc3bs0
p27
I1
sVd8di37s
p28
I1
sVdb0p4y6
p29
I1
sVd1l9x2x
p30
I1
sVdc3yv3z
p31
I1
sVd92673v
p32
I1
sVdt41iu0
p33
I2
sVd2g65md
p34
I1
sVdd4iqse
p35
I1
sVcyi1wmg
p36
I2
sVdencvnq
p37
I1
sVdez5k6y
p38
I1
sVdib8t1b
p39
I1
sVczir3bl
p40
I2
sVdavzpy1
p41
I1
sVd1uydax
p42
I1
sVd0fwggd
p43
I1
sVdht4p0h
p44
I1
sVczdina4
p45
I3
sVd69g2hr
p46
I2
sVd2wkx29
p47
I1
sVdt42v22
p48
I2
sVdf04stb
p49
I1
sVd0fxvc1
p50
I2
sVdcelr7x
p51
I1
sVdi3yw45
p52
I1
sVd1l4ljy
p53
I1
sVde2wyfn
p54
I1
sVdepw7uf
p55
I1
sVdc11j14
p56
I1
s.