(dp0
Vd7o9wh1
p1
I1
sVd8g8jxg
p2
I1
sVd3iajag
p3
I1
sVd7i7a9f
p4
I1
sVdjg2b53
p5
I1
sVd1lf1xc
p6
I1
sVd355cuf
p7
I1
sVdj0leat
p8
I1
sVd31cn3u
p9
I1
sVddwc30x
p10
I1
sVdb7hd37
p11
I1
sVdg2byg5
p12
I1
sVd1v8zew
p13
I1
sVd9i7opz
p14
I1
sVd1vgwlp
p15
I1
sVdeerjf4
p16
I1
sVdq0qkct
p17
I1
sVdsw20dg
p18
I1
sVddetlf7
p19
I1
sVd0q8lca
p20
I2
sVdner9me
p21
I1
sVd9d3tmg
p22
I1
sVd0gurtw
p23
I1
sVdd297lj
p24
I1
sVd8xqcj1
p25
I1
sVd537jaq
p26
I1
sVddjfdpx
p27
I1
sVdrc2n54
p28
I1
sVdbnngh9
p29
I1
sVd33acv5
p30
I1
sVczmozpo
p31
I1
sVd079u2u
p32
I1
sVdazkzdk
p33
I1
sVcyli4o2
p34
I1
sVdfp2bhl
p35
I1
sVd2ewpu1
p36
I1
sVd9kwcce
p37
I1
sVdb7nfwg
p38
I1
sVdgi1zut
p39
I1
sVd50oeii
p40
I1
sVdawzsok
p41
I1
sVczeqs5r
p42
I1
sVd9o99h4
p43
I1
sVdn5t9ua
p44
I1
sVd0flbkw
p45
I1
sVd8gcdsv
p46
I1
sVd0te6nh
p47
I2
sVdmrr1rp
p48
I1
sVdh8wjdy
p49
I1
sVd0pulqc
p50
I1
sVdti876l
p51
I1
sVdmxq12v
p52
I1
sVd42y9js
p53
I1
sVd0npo1b
p54
I1
sVdhi9doa
p55
I1
sVdg0zsy7
p56
I1
sVdpw7vtb
p57
I1
sVczru1ao
p58
I1
sVdkenkj3
p59
I1
sVdhih2pw
p60
I1
s.