(dp0
Vd5eqd8q
p1
I1
sVdo7iq95
p2
I3
sVdckljyu
p3
I1
sVdacr2sl
p4
I1
sVdbvls7y
p5
I1
sVdpkdxgo
p6
I1
sVd50um00
p7
I1
sVdkaf9g1
p8
I1
sVd517c3w
p9
I1
sVddly9o2
p10
I1
sVdfzvnwq
p11
I1
sVddlf3je
p12
I1
sVdrnf2jd
p13
I1
sVdcww31f
p14
I1
sVd8s4xz0
p15
I1
s.