(dp0
Vcz0sjwf
p1
I1
sVd7o1pkj
p2
I1
sVdml0d6u
p3
I1
sVdr4iwiy
p4
I1
sVd5xx2g3
p5
I1
sVd8m5m7p
p6
I1
sVd1i3kd0
p7
I1
sVdap67db
p8
I1
sVdj6utrz
p9
I2
sVdbznezz
p10
I1
sVcyvbod9
p11
I1
sVd0jvojp
p12
I1
sVdqogryq
p13
I4
sVdkppzq4
p14
I1
sVdg6qa34
p15
I4
s.