(dp0
Vcymtqkk
p1
I1
sVdfd755l
p2
I1
sVd00hwzn
p3
I1
sVd1v564p
p4
I1
sVdqxpqnd
p5
I1
sVd73icdp
p6
I1
sVdoe9k2k
p7
I1
sVd4t77kk
p8
I1
sVdnx7w3l
p9
I1
sVd4go390
p10
I1
sVdcbveo8
p11
I1
sVd4s72yk
p12
I1
sVd8fz7oe
p13
I1
sVd1124h7
p14
I1
sVczx0sly
p15
I2
sVdjk54nc
p16
I1
sVd4je2wm
p17
I1
sVd9n0i24
p18
I1
sVdnb2efk
p19
I1
sVd6zhx9x
p20
I1
sVd7qwf87
p21
I1
sVd3mbmc9
p22
I1
sVdgtowti
p23
I1
sVdhwd9p6
p24
I1
sVdd6gtn8
p25
I1
sVdadpoiu
p26
I1
sVdidya1f
p27
I1
sVd8fz95j
p28
I1
sVd7dp0jy
p29
I1
sVdde15qg
p30
I1
sVdrveu10
p31
I1
sVddg883x
p32
I1
sVczx1wbu
p33
I7
sVd3k8mrb
p34
I1
sVdf99kej
p35
I1
sVczn956o
p36
I1
sVcytypyc
p37
I1
sVdrm146t
p38
I1
sVd5kg0ny
p39
I1
sVd8wp4z4
p40
I1
s.