(dp0
Vcylqx9r
p1
I1
s.(dp0
Vcylqx9r
p1
I2
s.(dp0
Vcylqx9r
p1
I1
sVcyxkfbu
p2
I1
s.(dp0
Vcylqx9r
p1
I1
sVcz6bsnm
p2
I1
s.(dp0
Vcylqx9r
p1
I1
sVcz6bsnm
p2
I1
s.(dp0
Vcz6mddo
p1
I1
sVcylqx9r
p2
I1
s.(dp0
Vcz6mddo
p1
I1
sVcylqx9r
p2
I1
s.(dp0
Vcz6mddo
p1
I1
sVcylqx9r
p2
I1
s.(dp0
Vcz6mddo
p1
I1
sVcylqx9r
p2
I1
s.(dp0
Vcz6mddo
p1
I1
sVcylqx9r
p2
I1
s.(dp0
Vcz6mddo
p1
I1
sVcylqx9r
p2
I1
s.(dp0
Vcz6mddo
p1
I1
sVcylqx9r
p2
I1
s.(dp0
Vcz6mddo
p1
I1
sVcylqx9r
p2
I1
s.(dp0
Vcz6mddo
p1
I1
sVcylqx9r
p2
I1
s.(dp0
Vcylqx9r
p1
I1
sVd0tbegy
p2
I1
s.(dp0
Vcylqx9r
p1
I1
sVd2mx49t
p2
I1
s.(dp0
Vcylqx9r
p1
I1
sVd2t428i
p2
I1
s.(dp0
Vcylqx9r
p1
I1
sVd2u7jlm
p2
I1
s.(dp0
Vcylqx9r
p1
I1
sVd2u7jlm
p2
I1
s.(dp0
Vcylqx9r
p1
I1
sVd53v4lh
p2
I1
s.(dp0
Vd6aekes
p1
I1
sVcylqx9r
p2
I1
s.(dp0
Vcylqx9r
p1
I1
sVd8fswgf
p2
I1
s.(dp0
Vcylqx9r
p1
I1
sVd8fswgf
p2
I1
s.(dp0
Vcylqx9r
p1
I1
sVd8fswgf
p2
I1
s.(dp0
Vcylqx9r
p1
I1
sVd8fswgf
p2
I1
s.(dp0
Vcylqx9r
p1
I1
sVd8fswgf
p2
I1
s.(dp0
Vcylqx9r
p1
I1
sVd8fswgf
p2
I1
s.(dp0
Vcylqx9r
p1
I1
sVd8fuy5o
p2
I1
s.(dp0
Vcylqx9r
p1
I1
sVd8kjyne
p2
I1
s.(dp0
Vcylqx9r
p1
I1
sVd8ovexa
p2
I1
s.(dp0
Vcylqx9r
p1
I1
sVd9ehmgr
p2
I1
s.(dp0
Vdawtbz7
p1
I1
sVcylqx9r
p2
I1
s.(dp0
Vdc7v3t8
p1
I1
sVcylqx9r
p2
I1
s.(dp0
Vdc7v3t8
p1
I1
sVcylqx9r
p2
I1
s.(dp0
Vdc7v3t8
p1
I1
sVcylqx9r
p2
I1
s.(dp0
Vdcf5s1c
p1
I1
sVcylqx9r
p2
I1
s.(dp0
Vcylqx9r
p1
I1
sVdcjlvqy
p2
I1
s.(dp0
Vcylqx9r
p1
I1
sVdcuia5i
p2
I1
s.(dp0
Vcylqx9r
p1
I1
sVddc3l4v
p2
I1
s.(dp0
Vcylqx9r
p1
I1
sVddc3l4v
p2
I1
s.(dp0
Vcylqx9r
p1
I1
sVddc3l4v
p2
I1
s.(dp0
Vcylqx9r
p1
I1
sVddhjtop
p2
I1
s.(dp0
Vcylqx9r
p1
I1
sVdfgtkp2
p2
I1
s.(dp0
Vcylqx9r
p1
I1
sVdfxi2ub
p2
I1
s.(dp0
Vcylqx9r
p1
I1
sVdfxi2ub
p2
I1
s.(dp0
Vcylqx9r
p1
I1
sVdi4oj57
p2
I1
s.(dp0
Vdj6njzu
p1
I1
sVcylqx9r
p2
I1
s.(dp0
Vdj6njzu
p1
I1
sVcylqx9r
p2
I1
s.(dp0
Vcylqx9r
p1
I1
sVdj6vzli
p2
I1
s.(dp0
Vcylqx9r
p1
I1
sVdkt0xlq
p2
I1
s.(dp0
Vcylqx9r
p1
I1
sVdkt0xlq
p2
I1
s.(dp0
Vcylqx9r
p1
I1
sVdn5kv69
p2
I1
s.(dp0
Vdo5cffz
p1
I1
sVcylqx9r
p2
I1
s.(dp0
Vcylqx9r
p1
I1
sVdocjl98
p2
I1
s.(dp0
Vcylqx9r
p1
I1
sVdocjl98
p2
I1
s.(dp0
Vdp58t7g
p1
I1
sVcylqx9r
p2
I1
s.(dp0
Vdp58t7g
p1
I1
sVcylqx9r
p2
I1
s.(dp0
Vcylqx9r
p1
I1
sVdp5h9sk
p2
I1
s.(dp0
Vcylqx9r
p1
I1
sVdp5h9sk
p2
I1
s.(dp0
Vcylqx9r
p1
I1
sVdp5h9sk
p2
I1
s.(dp0
Vcylqx9r
p1
I1
sVdp5h9sk
p2
I1
s.(dp0
Vcylqx9r
p1
I1
sVdp5h9sk
p2
I1
s.