(dp0
Vdfrtalz
p1
I1
sVdfq5430
p2
I1
sVdsmqs7y
p3
I1
sVd3rw92t
p4
I2
sVdkkn041
p5
I1
sVcyo1oks
p6
I1
sVdcly5hg
p7
I4
sVd6x2oc3
p8
I6
sVdi0gecq
p9
I6
sVdseqwc6
p10
I1
sVd68o5ga
p11
I1
sVd5uff6p
p12
I1
sVdftvdk5
p13
I1
sVd4habsk
p14
I1
sVdsz9jyc
p15
I1
sVd31t8s9
p16
I1
sVdkk3lew
p17
I1
sVdig3f7f
p18
I1
sVdbv79o1
p19
I1
sVdbdzguz
p20
I3
sVdklbo0m
p21
I1
sVdh5s3g6
p22
I2
sVdppy5c8
p23
I1
sVdcevnz6
p24
I1
sVd6rwmwb
p25
I2
sVdenvq5p
p26
I1
sVdqbe3kz
p27
I1
sVd6264x5
p28
I1
sVditt9g2
p29
I1
sVdqqnik8
p30
I1
sVdjh5v26
p31
I1
sVdfiljn4
p32
I1
sVdgf6szm
p33
I4
sVdidzlk5
p34
I2
sVd0g3zru
p35
I1
sVdne5654
p36
I1
sVd4n0d1p
p37
I8
sVd76t086
p38
I1
sVdhccnjm
p39
I1
sVdis2nx6
p40
I2
sVd0y0plh
p41
I1
sVdajn0v8
p42
I1
sVd9ihzt2
p43
I1
sVd0em3pd
p44
I1
sVd3zx7ox
p45
I5
sVd3qwch1
p46
I1
sVd6jg3j5
p47
I2
sVdnn3rcs
p48
I3
sVd0ibk6s
p49
I1
sVdb2j2c4
p50
I1
sVd0r9qvd
p51
I1
sVdgiit7s
p52
I1
sVd3kgeiv
p53
I1
sVdq0jykg
p54
I1
sVd0b2r5h
p55
I1
sVd98tr0g
p56
I1
sVd7v65wt
p57
I1
sVd36j9sm
p58
I1
sVczk4om9
p59
I1
sVdhq7jvb
p60
I2
sVd3hqk78
p61
I1
sVczamx9u
p62
I4
sVd5u5zos
p63
I2
sVd594q2u
p64
I2
sVdngg4ge
p65
I1
sVdtiqkq9
p66
I3
sVd6ld903
p67
I2
sVd8qb79b
p68
I1
sVd95wc21
p69
I3
sVdef8eld
p70
I1
sVdgiciqq
p71
I1
sVd7k84ri
p72
I1
sVdmgzf0r
p73
I1
sVda1v9rr
p74
I1
sVdda6j1s
p75
I1
sVdgejbrj
p76
I1
sVdc5qec0
p77
I1
sVd3xe7sj
p78
I1
sVdsv580e
p79
I1
sVd1e4ypx
p80
I1
sVd0a033g
p81
I2
sVdfqoiwt
p82
I1
sVd3idv3x
p83
I1
sVd1oorzb
p84
I1
sVdn42uc4
p85
I1
sVdsfwxqm
p86
I1
sVde5in7p
p87
I1
sVd7e8ffx
p88
I1
sVdc5rju5
p89
I1
sVd2q40hr
p90
I1
sVd1rdf04
p91
I1
sVcyvajen
p92
I1
sVd8skg5f
p93
I3
sVd93huko
p94
I1
sVd2a8paw
p95
I3
sVdox0qgv
p96
I3
sVdamlonc
p97
I1
sVdaglssi
p98
I1
sVd8piol4
p99
I1
sVd616qg2
p100
I1
sVdd8dfak
p101
I1
sVda5zm0x
p102
I1
sVczectdt
p103
I1
sVdqmkefx
p104
I1
sVd67w6qh
p105
I1
sVdgrer6q
p106
I1
sVd7yu5nt
p107
I1
sVdd9ueou
p108
I2
sVd1sisxv
p109
I1
sVd1ij2ap
p110
I1
sVd040lll
p111
I2
sVddsu2q0
p112
I2
sVd1yxkcs
p113
I1
sVd9pb8j3
p114
I1
sVd3pst4n
p115
I1
sVd0prjk8
p116
I3
sVdrige5o
p117
I1
sVcylldi1
p118
I1
sVdclh2a7
p119
I2
sVd0oswoi
p120
I1
sVdb4g7w9
p121
I2
sVdbtujba
p122
I1
sVdpdmj5g
p123
I1
sVdsmehev
p124
I1
sVcytlt60
p125
I1
sVdoxw9vv
p126
I1
sVd54p6sl
p127
I1
sVdpfx7lp
p128
I1
sVdpp0ec9
p129
I1
sVd60p5m7
p130
I1
sVd6qfuwc
p131
I1
sVdaewi0i
p132
I1
sVd9lhmlf
p133
I1
sVdeqxnf5
p134
I5
sVdc1p11r
p135
I1
sVd9voj09
p136
I1
sVd55nu3t
p137
I1
sVd7m6hbl
p138
I1
sVd5kx2er
p139
I1
sVd57bdgm
p140
I1
sVdo8m9qt
p141
I1
sVda61ct6
p142
I1
sVdfmrjss
p143
I1
sVdojow42
p144
I1
sVd31fyqf
p145
I1
sVczt3uh8
p146
I1
sVd3clxd1
p147
I1
sVd9ugfai
p148
I1
sVd71qysj
p149
I1
sVdeaht0m
p150
I1
sVdbls0xi
p151
I1
sVd437xwr
p152
I13
sVderr3qh
p153
I1
sVdkw949s
p154
I1
sVd8to9am
p155
I1
sVd97uzux
p156
I1
sVdqwkjhc
p157
I1
sVcymv41f
p158
I2
sVdjuohbw
p159
I7
sVd3y3yxy
p160
I2
sVdalhqrg
p161
I1
sVcznqsj7
p162
I1
sVda85llp
p163
I1
sVd84mqc4
p164
I1
sVd3ze4d3
p165
I1
sVdqmw38g
p166
I1
sVd9nzkqv
p167
I1
sVddzqq8h
p168
I1
sVdpumq6g
p169
I6
sVds4tvks
p170
I1
sVd71xbkf
p171
I1
sVdo357uq
p172
I1
sVdd9z0rk
p173
I1
sVdbaory2
p174
I1
sVdbdzey2
p175
I1
sVdjqnilg
p176
I2
sVcz1769s
p177
I1
sVd8qdrha
p178
I1
sVd2195gx
p179
I1
sVd4yxive
p180
I1
sVdsgkimi
p181
I1
sVd8834uu
p182
I15
sVdfuwr9h
p183
I3
sVd46nu39
p184
I1
sVcyqteci
p185
I1
sVd8rgtiz
p186
I3
sVdc5qulq
p187
I1
sVd9i9zrh
p188
I1
sVd5nqxvl
p189
I12
sVdby62dp
p190
I1
sVd7c2qpo
p191
I1
sVddq17px
p192
I1
sVd3zhh3r
p193
I2
sVd7c04b7
p194
I1
sVdnhzi62
p195
I1
sVdjlyrw0
p196
I1
sVdjxjnvo
p197
I3
sVd3yulry
p198
I1
sVdj0jbzk
p199
I5
sVd96ub1r
p200
I1
sVdmtdufd
p201
I1
sVdkl1wis
p202
I1
sVd7db4b0
p203
I1
sVdijefp8
p204
I1
sVdjbvkoj
p205
I1
sVdqog61f
p206
I1
sVda0tah5
p207
I7
sVd1nplai
p208
I4
sVd0tal20
p209
I1
sVdbha90p
p210
I1
sVdskq34t
p211
I1
sVddrsroj
p212
I2
sVczczbkd
p213
I1
sVd4mpbpq
p214
I1
sVd44eg01
p215
I1
sVd9bzejz
p216
I1
sVd30jvyd
p217
I1
sVdida8lt
p218
I1
sVdrg3450
p219
I1
sVd7frhu4
p220
I1
sVdpw6tqh
p221
I3
sVd47o650
p222
I1
sVd5brcbp
p223
I9
sVd9p3b1f
p224
I6
sVdkqhft2
p225
I1
sVd8dylgl
p226
I1
sVddjffyg
p227
I1
sVddrr1vj
p228
I1
sVdppil0x
p229
I1
sVdcw1v2a
p230
I14
sVddqxiz5
p231
I2
sVdjzxjd4
p232
I1
sVdktidil
p233
I1
sVd2z3asw
p234
I1
sVddhf8bu
p235
I1
sVdaoc2ou
p236
I1
sVd27cvhp
p237
I2
sVd3zz1ce
p238
I8
sVddznsea
p239
I2
sVdgtzcmw
p240
I3
sVd03e512
p241
I1
sVdbwvxk8
p242
I1
sVd1z1ypp
p243
I1
sVd0v3rk6
p244
I1
sVdifvxx0
p245
I1
sVcz47lii
p246
I1
sVdofnwfo
p247
I1
sVdpvfjge
p248
I1
sVd4ys1ih
p249
I2
sVdbyjx78
p250
I2
sVdbpyoqo
p251
I1
sVczc9om7
p252
I1
sVd4mhi5c
p253
I1
sVdjn0hs4
p254
I3
sVd1yzwne
p255
I1
sVdab28uy
p256
I1
sVdfnmn8i
p257
I1
sVd3rxig0
p258
I5
sVdhw54m1
p259
I1
sVd49ntdj
p260
I1
sVddd0neq
p261
I1
sVd20cg4k
p262
I1
sVdqpkkt2
p263
I1
sVdfcrq6b
p264
I2
sVd161p3n
p265
I1
sVd2zuelj
p266
I3
sVd06bkaw
p267
I6
sVcykxxle
p268
I1
sVdh7m770
p269
I1
sVdkmi0xt
p270
I1
sVd6mdhf7
p271
I1
sVdicca12
p272
I1
sVdpzdoqp
p273
I2
sVcz87ivj
p274
I1
sVdcflgcj
p275
I4
sVdqp51wq
p276
I1
sVd5b22kk
p277
I1
sVddgfnss
p278
I1
sVdtbv5tm
p279
I1
sVdqokl4v
p280
I1
sVdf1ci20
p281
I1
sVd3zxruh
p282
I1
sVdnlkzt1
p283
I1
sVd31d0y0
p284
I1
sVd6gmvsg
p285
I1
sVdcuo5kh
p286
I1
sVd9vgdjx
p287
I1
sVd0jqj7q
p288
I1
sVd96ovbf
p289
I1
sVdd2cjrq
p290
I4
sVd3k7t87
p291
I3
sVdhjemb5
p292
I5
sVd04pfwe
p293
I1
sVdiioham
p294
I1
sVd7ty5w1
p295
I1
sVdfq1wxt
p296
I1
sVdspldzz
p297
I1
sVd0197gl
p298
I1
sVdk54jet
p299
I2
sVdfosymr
p300
I1
sVddrtazo
p301
I1
sVdn1jzo5
p302
I2
sVdbmhh4l
p303
I1
sVdjvzh6r
p304
I2
sVd7n6x3z
p305
I1
sVd3b63fn
p306
I1
sVdcjd79d
p307
I8
sVdkqxip4
p308
I1
sVdasch6c
p309
I1
sVd26d1n1
p310
I1
sVdcvnk24
p311
I1
sVcz6x7iq
p312
I1
sVdaskc0g
p313
I10
sVdhl29sz
p314
I1
sVddu3cjs
p315
I2
sVd5kgog3
p316
I1
sVd4vkyun
p317
I1
sVdf2m92h
p318
I1
sVcytd9pk
p319
I1
sVd318e2m
p320
I1
sVd4orro0
p321
I1
sVd6qfkt3
p322
I2
sVdofp0gj
p323
I2
sVd8j18wn
p324
I1
sVcylvkwq
p325
I3
sVdommda2
p326
I12
sVdc5xp5r
p327
I1
sVd7hzeco
p328
I1
sVd3zc6kn
p329
I1
sVdnkkew5
p330
I1
sVcyi47hj
p331
I1
sVcywsw8s
p332
I1
sVdkd2ghx
p333
I1
sVd219ban
p334
I1
sVdqknje2
p335
I2
sVdalrmwq
p336
I11
sVcyqm5ib
p337
I1
sVdgik972
p338
I1
sVd06emqt
p339
I1
sVd79cz34
p340
I1
sVd9z3uq6
p341
I1
sVd15a16a
p342
I1
sVd8dpwd3
p343
I7
sVdnlep2i
p344
I1
sVdgl6ctx
p345
I2
sVdbtwxss
p346
I3
sVdhusrwz
p347
I1
sVdpq3mta
p348
I1
sVdjf02he
p349
I1
sVdblghof
p350
I2
sVd1qjcag
p351
I1
sVdivevr4
p352
I1
sVdedfbxf
p353
I1
sVd68r73s
p354
I1
sVcz940rb
p355
I1
sVdr0ovqu
p356
I1
sVdjofyas
p357
I1
sVczd0itl
p358
I1
sVdbyaoa6
p359
I1
sVcypq9uw
p360
I1
sVd86xmto
p361
I1
sVdct0j03
p362
I1
sVd2hx5ll
p363
I2
sVd9ncfr3
p364
I1
sVddojkzj
p365
I1
sVdovkmbk
p366
I3
sVcypmi8t
p367
I1
sVdsm6s2r
p368
I1
sVd5jzpi3
p369
I1
sVd14pl28
p370
I2
sVddu7s6q
p371
I1
sVddlm9wi
p372
I1
sVcze18v0
p373
I1
sVd88m663
p374
I2
sVd3fs3jh
p375
I1
sVdgufdcy
p376
I2
sVdetlgcr
p377
I1
sVd430ici
p378
I1
sVd2a7tmg
p379
I1
sVczz5818
p380
I2
sVd19xwqp
p381
I1
sVd8lphvn
p382
I1
sVdbkzshq
p383
I1
sVd33r1ho
p384
I1
sVd01ar64
p385
I1
sVdcpx2h2
p386
I2
sVd6zlorg
p387
I2
sVd3av5yi
p388
I1
sVdn9mf5m
p389
I1
sVdp8lx94
p390
I1
sVd62xzdo
p391
I1
sVdg2byg5
p392
I2
sVdal9qdt
p393
I1
sVdeetjeh
p394
I1
sVd5iy076
p395
I2
sVdrki5gc
p396
I1
sVdhtiv0o
p397
I1
sVdfowoy8
p398
I1
sVdedekal
p399
I10
sVdk2h6jh
p400
I1
sVczzf1m9
p401
I1
sVczh8r91
p402
I1
sVd9mzlok
p403
I1
sVd9r5ti3
p404
I2
sVdbwqdrm
p405
I1
sVd4dbysn
p406
I1
sVdol0caj
p407
I1
sVdew734g
p408
I22
sVd50kek8
p409
I1
sVd9dzkl3
p410
I3
sVd8z4wko
p411
I1
sVdi4k60g
p412
I1
sVd31it0z
p413
I1
sVdhqdas1
p414
I1
sVd1vgeos
p415
I1
sVcyva5xz
p416
I1
sVdrui96k
p417
I1
sVds7sypg
p418
I1
sVdcanv4n
p419
I1
sVdjz0kgm
p420
I1
sVd4mv0dj
p421
I10
sVdb7jmgi
p422
I1
sVdq3xsb0
p423
I1
sVczdr5o8
p424
I1
sVd3d5238
p425
I1
sVd28elog
p426
I1
sVdq0i3r3
p427
I4
sVd0cnply
p428
I1
sVd5rxdew
p429
I1
sVdpc3l99
p430
I1
sVd85jkoz
p431
I1
sVdgqn4fh
p432
I5
sVdechn9s
p433
I1
sVczn78z9
p434
I1
sVdnyj1on
p435
I1
sVdc5llkw
p436
I1
sVd8huuau
p437
I1
sVd3hdrxb
p438
I1
sVddrwqac
p439
I1
sVdk14vt9
p440
I1
sVdprxdrl
p441
I2
sVd56czre
p442
I1
sVdfqqhwm
p443
I1
sVczdygp4
p444
I1
sVd1zyba2
p445
I1
sVdbb3af8
p446
I1
sVd304ze3
p447
I1
sVdt5id7q
p448
I1
sVdc6kqel
p449
I1
sVdqh4kps
p450
I1
sVdklyrmr
p451
I1
sVd8y0cb8
p452
I2
sVdab4py0
p453
I2
sVdc90rgr
p454
I1
sVdd4x189
p455
I1
sVdp0bnud
p456
I1
sVd0gg2ly
p457
I1
sVdcyc5c5
p458
I1
sVd44v57h
p459
I2
sVd51k19h
p460
I1
sVd2kofuf
p461
I1
sVd84nm0z
p462
I4
sVd2wjajd
p463
I1
sVd077flb
p464
I3
sVd9pm8jo
p465
I1
sVd6req6g
p466
I1
sVd0ctk8f
p467
I1
sVdiuqyjf
p468
I1
sVddqqe7b
p469
I1
sVdf960hv
p470
I1
sVd41msf3
p471
I1
sVd081cm3
p472
I1
sVde1ctgm
p473
I1
sVdasxfsa
p474
I3
sVd794mf2
p475
I1
sVd2g6mvw
p476
I1
sVd1nd6v8
p477
I2
sVde4bgpa
p478
I1
sVd9l86ap
p479
I1
sVd468f6f
p480
I2
sVd6ogvb5
p481
I1
sVdbocyy4
p482
I1
sVd50aqy3
p483
I3
sVdh59aq7
p484
I3
sVd7qhwhu
p485
I1
sVdavabym
p486
I1
sVcz06mty
p487
I2
sVd0cy4ae
p488
I1
sVde8hpxv
p489
I9
sVd9nq0ez
p490
I3
sVdbfnjqg
p491
I1
sVdblxt1f
p492
I1
sVd0a7med
p493
I3
sVdnelkif
p494
I1
sVd1j8xfc
p495
I1
sVd19193w
p496
I1
sVdh62htt
p497
I1
sVdmzms06
p498
I6
sVdjn82lz
p499
I1
sVcz7m1u6
p500
I1
sVdilq2jv
p501
I1
sVdcm1jwm
p502
I4
sVdjvzn83
p503
I1
sVd7igspx
p504
I9
sVdqvrsu6
p505
I1
sVdfrqs99
p506
I1
sVdnpq507
p507
I1
sVdsasj35
p508
I1
sVdhbfv6t
p509
I1
sVd9hx2pm
p510
I1
sVd8cp43c
p511
I1
sVdb5b9fb
p512
I1
sVdkcdwzf
p513
I1
sVd7cnqmj
p514
I1
sVdgn8qlt
p515
I1
sVd4xsesf
p516
I1
sVd2nj6a5
p517
I2
sVdhjv7uz
p518
I9
sVdedwvnl
p519
I1
sVd3zxhsw
p520
I1
sVd3gk5mb
p521
I1
sVdctx573
p522
I1
sVd2z6iob
p523
I1
sVd7ip0vm
p524
I1
sVd026g2o
p525
I1
sVd28crus
p526
I1
sVczakqxd
p527
I1
sVdhqrxbf
p528
I1
sVcynbb3v
p529
I1
sVd0pmd76
p530
I1
sVd2nrh9b
p531
I1
sVdc8ogpa
p532
I1
sVdk1015u
p533
I1
sVdjt246y
p534
I1
sVczuxixh
p535
I1
sVde16bmn
p536
I1
sVd3kr63m
p537
I2
sVdfsutur
p538
I2
sVdel8uz1
p539
I1
sVdkmahf5
p540
I1
sVd9gmx35
p541
I1
sVdqpcnzi
p542
I1
sVd7lqyby
p543
I1
sVdjugmlh
p544
I2
sVd0jtr24
p545
I1
sVdrtww2s
p546
I1
sVdc6qxyo
p547
I1
sVd8wu5we
p548
I1
sVde0rml0
p549
I1
sVdazxzop
p550
I1
sVcyp9fyw
p551
I1
sVd0012uy
p552
I1
sVdslv1ub
p553
I1
sVdorox9h
p554
I2
sVd1bp62x
p555
I1
sVdk16jos
p556
I1
sVd4ze6yd
p557
I1
sVd24rvfr
p558
I3
sVdkeidfd
p559
I1
sVdhogs7c
p560
I1
sVdc7vsv5
p561
I1
sVdfx10y8
p562
I1
sVdahb2b0
p563
I1
sVdtj9guu
p564
I1
sVdi9zivv
p565
I1
sVdis7lva
p566
I1
sVddjc64z
p567
I1
sVdd6xhio
p568
I1
sVdgqhat8
p569
I1
sVd66bjgc
p570
I1
sVdgnr53q
p571
I1
sVdsjl479
p572
I1
sVd1r8t0p
p573
I1
sVdqqj4ni
p574
I1
sVd3aa3y0
p575
I1
sVd0d8e8k
p576
I1
sVd5tuj9h
p577
I1
sVdaqc08a
p578
I1
sVd76ohkj
p579
I1
sVda3lan7
p580
I5
sVde4132n
p581
I1
sVcz677ik
p582
I2
sVdckzzvx
p583
I1
sVdb4g9xx
p584
I1
sVdejxzjo
p585
I1
sVdsboc6g
p586
I1
sVdc00j2h
p587
I1
sVd3b4unj
p588
I1
sVcywg63u
p589
I1
sVdebmbl6
p590
I1
sVd7xqqtj
p591
I1
sVd9eqobv
p592
I2
sVdbptsu1
p593
I1
sVdgw1kmd
p594
I1
sVdofvomv
p595
I1
sVd40b2dr
p596
I1
sVdaom1kr
p597
I1
sVdquikq9
p598
I2
sVd5e060v
p599
I4
sVdox58g7
p600
I2
sVd3r3y5m
p601
I1
sVdiubvkm
p602
I2
sVd0xr54t
p603
I3
sVdi521kj
p604
I1
sVd5f3xdd
p605
I1
sVd032pxd
p606
I1
sVd65mglp
p607
I1
sVd7suhro
p608
I1
sVd1al4n4
p609
I1
sVdjefv51
p610
I4
sVdc5ry6q
p611
I1
sVdcgzspp
p612
I1
sVd57ecma
p613
I1
sVd83oac3
p614
I1
sVder6kfv
p615
I1
sVdeu3789
p616
I1
sVd5zkg76
p617
I3
sVd8bywjk
p618
I1
sVcz1kk97
p619
I1
sVdgi0wqp
p620
I1
sVdbgyw1g
p621
I1
sVdjhzpjh
p622
I1
sVd5yckbz
p623
I1
sVdgyjheb
p624
I1
sVdfjdrr9
p625
I1
sVd3ba9xu
p626
I1
sVd8sagvk
p627
I1
sVdpxt8mj
p628
I1
sVdp2mr5l
p629
I1
sVd1qm34e
p630
I1
sVd4v3mvf
p631
I2
sVd1hi2w3
p632
I1
sVds3cf24
p633
I1
sVdgita6j
p634
I1
sVdkewajb
p635
I1
sVdcgnc4j
p636
I1
sVd2gt1pc
p637
I1
sVd4c1uva
p638
I1
sVdd1qnaz
p639
I1
sVd6dt62h
p640
I2
sVdtdfp0d
p641
I2
sVd2dzbf1
p642
I1
sVdkutn3p
p643
I1
sVczu16kl
p644
I1
sVcyv0836
p645
I1
sVd82m73x
p646
I1
sVdcxqw6e
p647
I1
sVdaeam4w
p648
I2
sVdcap8lk
p649
I1
sVd1jq0km
p650
I1
sVdo8frm6
p651
I1
sVdk4oa8s
p652
I1
sVd2vqee5
p653
I1
sVdju1rno
p654
I9
sVdk33sqq
p655
I1
sVd1aapyo
p656
I1
sVd56hzqk
p657
I1
sVd9a55s4
p658
I2
sVdhe0tdu
p659
I2
sVd3tgriq
p660
I1
sVd08vhzm
p661
I1
sVda5r6qw
p662
I1
sVczw0rjr
p663
I1
sVdmzoaiy
p664
I1
sVd2dvm6u
p665
I1
sVcyl1iy1
p666
I1
sVdq70exj
p667
I1
sVdpoviq1
p668
I1
sVdp7p1ju
p669
I1
sVdeml3xa
p670
I1
sVd2wyiuc
p671
I1
sVdb8qek5
p672
I1
sVdczll9u
p673
I1
sVdo432op
p674
I1
sVdkyycnx
p675
I1
sVdc1rx8y
p676
I1
sVdhjoa39
p677
I1
sVcyt68xy
p678
I1
sVdp3s6a1
p679
I1
sVdcyn3ig
p680
I1
sVd3ytcdk
p681
I4
sVdhjbt6p
p682
I3
sVdgl9u8t
p683
I3
sVdp4wtpq
p684
I2
sVd5hp59o
p685
I1
sVds5x1b7
p686
I1
sVdih0uob
p687
I2
sVd7rm6i5
p688
I1
sVd4akfv1
p689
I1
sVd0cc1ij
p690
I2
sVdk32je8
p691
I1
sVcznar1i
p692
I1
sVd70snkd
p693
I1
sVd6y3zh3
p694
I1
sVd483j2h
p695
I2
sVdgpzlf8
p696
I2
sVd91besp
p697
I1
sVd0qe26l
p698
I1
sVd2zufpu
p699
I2
sVcyz7zyl
p700
I1
sVdj1piv0
p701
I2
sVdge158u
p702
I1
sVd4zibw5
p703
I1
sVdcz8lrc
p704
I1
sVde8c0vb
p705
I1
sVd30jn04
p706
I1
sVdo6y48c
p707
I1
sVd9tgt90
p708
I1
sVd84k7k3
p709
I1
sVdqydy57
p710
I1
sVd51ezpy
p711
I1
sVcz6mjzk
p712
I1
sVddsdh9a
p713
I2
sVd108tng
p714
I1
sVd4z7hg3
p715
I1
sVczzb27j
p716
I1
sVdjt7jh8
p717
I1
sVdg79n0q
p718
I1
sVcz6amoi
p719
I2
sVdjb4eoo
p720
I1
sVd8wcp40
p721
I5
sVda68h66
p722
I1
sVd2qmr55
p723
I1
sVdfspymx
p724
I1
sVdiyydld
p725
I1
sVd630omu
p726
I1
sVd49djcx
p727
I1
sVdjtfvn2
p728
I1
sVdbt9u33
p729
I1
sVdtgdf3b
p730
I1
sVd409nv4
p731
I1
sVdhdp9h4
p732
I1
sVdaogakm
p733
I1
sVd9am90w
p734
I1
sVdd0r0r2
p735
I2
sVdjelczo
p736
I2
sVd2ou2cr
p737
I1
sVdioeerx
p738
I1
sVdc8o1hc
p739
I1
sVdcmmvtf
p740
I1
sVczk178t
p741
I1
sVd7ur5fk
p742
I1
sVd28sswc
p743
I1
sVd4rbrwk
p744
I2
sVdcw1whx
p745
I1
sVd8zvcuz
p746
I6
sVd0ykosg
p747
I1
sVdcjuamz
p748
I1
sVd2to6e5
p749
I1
sVdjvzaq5
p750
I2
sVd3b31df
p751
I1
sVdd29a73
p752
I1
sVdpxe8qf
p753
I1
sVdphc6x4
p754
I4
sVdjwta3j
p755
I1
sVdcql1t2
p756
I1
sVdfskhab
p757
I1
sVdcfw31q
p758
I1
sVczopesh
p759
I1
sVdko0o9q
p760
I1
sVdfcwcup
p761
I1
sVdckp2hb
p762
I1
sVd8nhppw
p763
I1
sVd81hw7w
p764
I1
sVdd204fn
p765
I1
sVdgxqqam
p766
I1
sVd3dmptn
p767
I1
sVdfwajrt
p768
I1
sVdqg7c73
p769
I1
sVcywgiwt
p770
I1
sVd6co03h
p771
I20
sVd37t8zp
p772
I1
sVdex61tc
p773
I1
sVdarhq0u
p774
I1
sVd69234l
p775
I1
sVd9l97ns
p776
I2
sVd3rrlf8
p777
I2
sVd957z9h
p778
I1
sVdenxbyf
p779
I2
sVdipmmnu
p780
I1
sVdbf44wz
p781
I1
sVdj90mze
p782
I1
sVdsa9201
p783
I1
sVd2hh6ra
p784
I1
sVd6yglep
p785
I2
sVdoc2xil
p786
I1
sVdir3muo
p787
I1
sVczq8qu9
p788
I2
sVdmq4j2c
p789
I1
sVdgzfvot
p790
I2
sVd6p52q1
p791
I1
sVdenomkf
p792
I1
sVd0oeu0p
p793
I7
sVdcyyru6
p794
I1
sVd4a43tt
p795
I1
sVdt7p3eo
p796
I1
sVdsn2zr2
p797
I3
sVdq73lew
p798
I4
sVd55y4tq
p799
I1
sVd5ywifo
p800
I1
sVda7s7qd
p801
I1
sVd9ry5s9
p802
I1
sVdc6q4wc
p803
I2
sVd0w2uau
p804
I1
sVdc6pd6b
p805
I1
sVdagudep
p806
I1
sVdbgn7zq
p807
I1
sVdmzj12f
p808
I1
sVdep2jn1
p809
I1
sVd67b8yy
p810
I1
sVddux48y
p811
I1
sVdmklc8p
p812
I1
sVcyo974v
p813
I1
sVdoeiql2
p814
I1
sVd3flace
p815
I2
sVd3u8eod
p816
I1
sVdgpkf9z
p817
I1
sVd1w1ndx
p818
I3
sVdcy8wv5
p819
I1
sVd696dzi
p820
I1
sVcyjt90u
p821
I1
sVdjbcnbb
p822
I1
sVd8l9zih
p823
I1
sVdaswwcg
p824
I1
sVd0bugfr
p825
I1
sVd7a7e38
p826
I1
sVdaaew0b
p827
I3
sVdkkd4dq
p828
I2
sVdo81abc
p829
I1
sVd6ab08n
p830
I1
sVdo6fxjs
p831
I1
sVd30rkuq
p832
I1
sVd2v0qym
p833
I10
sVdgesgyp
p834
I19
sVd6s2029
p835
I1
sVdmzk3zz
p836
I1
sVdf5p495
p837
I1
sVdmnk4ob
p838
I1
sVdae4y66
p839
I1
sVdq40fah
p840
I1
sVdp29oeu
p841
I1
sVdn8ngdx
p842
I17
sVdff2uvp
p843
I2
sVdmijlw7
p844
I1
sVczsg8ob
p845
I1
sVd2q9xmy
p846
I2
sVd30gmfi
p847
I1
sVczy1ifq
p848
I1
sVdgfknu3
p849
I1
sVcytc0a7
p850
I2
sVd43oome
p851
I1
sVd37e7k9
p852
I1
sVdsoywl7
p853
I4
sVcyt1ma3
p854
I1
sVdskewql
p855
I3
sVdhk4bcy
p856
I1
sVd21p766
p857
I4
sVd5a1dxo
p858
I1
sVdj2iuzf
p859
I1
sVd1ed4jk
p860
I1
sVdk6g52e
p861
I6
sVd8wbz34
p862
I1
sVdg284kc
p863
I1
sVcz4szvd
p864
I1
sVd25im42
p865
I1
sVd825yb9
p866
I1
sVdf26wph
p867
I1
sVdijxlp1
p868
I1
sVdkqxd1u
p869
I3
sVd5dqj95
p870
I1
sVd2jjr0u
p871
I1
sVdhtm90n
p872
I1
sVde1vf9n
p873
I2
sVdhhlfhh
p874
I1
sVdalxohi
p875
I12
sVd0pxqqf
p876
I2
sVdiacj1g
p877
I1
sVdek1v9z
p878
I9
sVdnhizg7
p879
I1
sVd8umuu9
p880
I3
sVd4g9quc
p881
I1
sVd6pank1
p882
I1
sVdhtmbq0
p883
I1
sVdfxmvm9
p884
I1
sVdtfdyjy
p885
I1
sVd9e2fc2
p886
I4
sVdg6svnz
p887
I1
sVdfoicao
p888
I13
sVd4rxoft
p889
I1
sVdcklxdp
p890
I1
sVd4ww4of
p891
I1
sVdc8y2l7
p892
I4
sVd6aii69
p893
I1
sVcz4kype
p894
I1
sVdonftqj
p895
I1
sVdt7wnmj
p896
I1
sVdgcxar5
p897
I1
sVdmf6vy1
p898
I1
sVdjxlk2v
p899
I4
sVcyot6x8
p900
I6
sVd0exa7a
p901
I1
sVdko2q6i
p902
I1
sVd6hoorn
p903
I1
sVddghqwy
p904
I3
sVd80ihmi
p905
I1
sVdn1fnpg
p906
I6
sVdkvkgrf
p907
I1
sVd7uqupq
p908
I1
sVdg35i60
p909
I1
sVdhw2uwz
p910
I1
sVdkh1yow
p911
I1
sVdjtxhei
p912
I5
sVdroe95h
p913
I1
sVd8xsz1h
p914
I1
sVcyqvjdr
p915
I1
sVde2ipxx
p916
I1
sVdcb7cde
p917
I2
sVd3knsm2
p918
I1
sVd2jye0v
p919
I1
sVcyos513
p920
I1
sVcyj7kdz
p921
I4
sVd5isxwt
p922
I1
sVdbn8ugj
p923
I1
sVd1ba7hr
p924
I1
sVd52id2f
p925
I5
sVd4r8tix
p926
I7
sVd2bbmkr
p927
I1
sVdfq6q1q
p928
I4
sVdoepfew
p929
I1
sVdiijlvd
p930
I1
sVdplyfgd
p931
I1
sVd3apnq3
p932
I1
sVdcrzaj7
p933
I1
sVdim3op3
p934
I1
sVdakrw48
p935
I1
sVdjdzn4b
p936
I1
sVdfikfrz
p937
I1
sVd3qowgb
p938
I18
sVdhj13zn
p939
I2
sVd8akpqr
p940
I1
sVdbe07q0
p941
I1
sVd1um876
p942
I2
sVd03ed0d
p943
I1
sVd09cl6m
p944
I1
sVdqk1cr4
p945
I3
sVd9x5y46
p946
I5
sVdguvpk4
p947
I1
sVdca08jd
p948
I1
sVd692vxv
p949
I1
sVdc3sxwn
p950
I4
sVd3jny7q
p951
I1
sVd6fmug2
p952
I1
sVdml4t2j
p953
I1
sVczcjejq
p954
I1
sVdqth4o1
p955
I1
sVda95q6h
p956
I1
sVd96g678
p957
I1
sVd3erm67
p958
I1
sVdjr4j76
p959
I1
sVdmzj3uu
p960
I1
sVddw8tsa
p961
I1
sVdkkqli0
p962
I1
sVd5nn9pf
p963
I1
sVda302l1
p964
I1
sVd9vtath
p965
I1
sVdidv281
p966
I4
sVcyktkve
p967
I1
sVdeofps0
p968
I1
sVddj0far
p969
I1
sVd7bbdk5
p970
I1
sVdar3why
p971
I1
sVd5p2wv2
p972
I2
sVdosdaou
p973
I4
sVdd49ni5
p974
I1
sVdeaxweg
p975
I1
sVczibb0t
p976
I1
sVdekyqdp
p977
I1
sVdqjflyq
p978
I1
sVdf1rgqm
p979
I4
sVdhtesgs
p980
I1
sVd5v1lgv
p981
I1
sVdprgaxp
p982
I3
sVdbx8rek
p983
I3
sVdhqppx2
p984
I3
sVd8kq8z6
p985
I2
sVd3yd3m4
p986
I1
sVczqw520
p987
I2
sVd0zdnsg
p988
I1
sVd6chutm
p989
I1
sVdilzl3c
p990
I1
sVdd96e44
p991
I1
sVd19u85j
p992
I1
sVdku0kjp
p993
I1
sVd7mxa2q
p994
I1
sVdnw664m
p995
I1
sVd7w0f47
p996
I1
sVd0ycd95
p997
I1
sVczhvekj
p998
I1
sVddy7dad
p999
I1
sVdr01k5k
p1000
I1
sVd923bc1
p1001
I1
sVdrpi4pk
p1002
I1
sVczdgskb
p1003
I1
sVdnrbz3z
p1004
I1
sVd3xdm5r
p1005
I1
sVd1gore9
p1006
I1
sVdfym26f
p1007
I1
sVdqaaubo
p1008
I1
sVd0zka26
p1009
I9
sVdp0fjft
p1010
I4
sVdtg4tp8
p1011
I1
sVd8pndl8
p1012
I1
sVdriwqu1
p1013
I1
sVdb1hm64
p1014
I1
sVd5lnvl0
p1015
I1
sVdosqy4z
p1016
I1
sVdbf3nvv
p1017
I1
sVdjstopi
p1018
I1
sVd062kfi
p1019
I1
sVd2wn7ww
p1020
I1
sVdph44v2
p1021
I1
sVdi1d8oy
p1022
I1
sVd1gsrj8
p1023
I1
sVd9vige5
p1024
I1
sVdhc3e5t
p1025
I1
sVdbeogzo
p1026
I1
sVd692b8u
p1027
I1
sVdmz6ps3
p1028
I1
sVd0qm7v5
p1029
I2
sVd3px59z
p1030
I1
sVdn1gw37
p1031
I7
sVdk6a1s7
p1032
I1
sVdb5h1f8
p1033
I1
sVd28tivc
p1034
I1
sVdkf4uet
p1035
I2
sVd1ueh5n
p1036
I1
sVdgoo0ge
p1037
I1
sVdd7ql4a
p1038
I1
sVdiecdum
p1039
I1
sVd5cbj3k
p1040
I1
sVdfwp0hd
p1041
I1
sVd3zuhx4
p1042
I3
sVd9kju8d
p1043
I1
sVdhqnrhg
p1044
I1
sVdk3jaed
p1045
I1
sVdgzvt69
p1046
I1
sVdagbjxo
p1047
I1
sVdeami8r
p1048
I1
sVd3rrhgp
p1049
I1
sVcyvffef
p1050
I1
sVd3r7u0o
p1051
I5
sVdera750
p1052
I1
sVdrgnz36
p1053
I1
sVd4oe0fg
p1054
I1
sVd3eloii
p1055
I15
sVda0g5jg
p1056
I3
sVdg1bqyz
p1057
I1
sVdde56h2
p1058
I1
sVd5t5o0g
p1059
I2
sVdhq1qie
p1060
I1
sVdoo9x2w
p1061
I1
sVd52ltti
p1062
I2
sVdh5e4nw
p1063
I1
sVd6xajle
p1064
I4
sVd3x5hrv
p1065
I5
sVdasagaf
p1066
I7
sVdpyalbc
p1067
I1
sVd37cnma
p1068
I1
sVdgd3brj
p1069
I2
sVczh2hvb
p1070
I2
sVd1d3i81
p1071
I1
sVd2q40dx
p1072
I3
sVdabl6ty
p1073
I1
sVdj4nays
p1074
I2
sVd7chzan
p1075
I1
sVdb78p63
p1076
I1
sVdqx83bz
p1077
I1
sVdgg3wud
p1078
I1
sVd4l487o
p1079
I1
sVdg43cq5
p1080
I1
sVd053wd5
p1081
I1
sVdq6i95e
p1082
I1
sVdd1gwuv
p1083
I1
sVdghtbw8
p1084
I2
sVd050q5j
p1085
I1
sVdknboqu
p1086
I2
sVdf2r2np
p1087
I8
sVdrico2z
p1088
I1
sVd8xznz2
p1089
I2
sVd1vgzx8
p1090
I2
sVd91ce0j
p1091
I1
sVddxwbsc
p1092
I1
sVd3b0b0n
p1093
I3
sVdhv5g37
p1094
I1
sVdb4v8f4
p1095
I1
sVdaayleg
p1096
I1
sVdc5qvpz
p1097
I1
sVd1pz0dr
p1098
I11
sVd4v5ttm
p1099
I1
sVdmskg4k
p1100
I1
sVd9tuq4q
p1101
I1
sVdndtzov
p1102
I1
sVd2g89le
p1103
I1
sVcz5z6nn
p1104
I1
sVdfovl4j
p1105
I5
sVd3fgs7w
p1106
I1
sVdf7hcpg
p1107
I1
sVdt0eieu
p1108
I13
sVd0itwf1
p1109
I1
sVdayvyol
p1110
I1
sVd1h2b6r
p1111
I1
sVd4pegkc
p1112
I1
sVdkkmrev
p1113
I2
sVdhsy87o
p1114
I1
sVdh652v1
p1115
I1
sVd1lw2df
p1116
I1
sVdo1i0jp
p1117
I1
sVda536j4
p1118
I1
sVdojcph2
p1119
I1
sVczryfzm
p1120
I1
sVczi4u7h
p1121
I1
sVdmiidcz
p1122
I1
sVd10o8hf
p1123
I1
sVd9pj5uy
p1124
I1
sVdq72k1w
p1125
I1
sVd5unw22
p1126
I1
sVdmzbg6y
p1127
I1
sVdnc7d2w
p1128
I1
sVdcdzyxp
p1129
I1
sVdk04jdb
p1130
I1
sVdpqwm2p
p1131
I1
sVdov41fn
p1132
I1
sVdgcnfhr
p1133
I1
sVdc03ox0
p1134
I1
sVd5sqst6
p1135
I1
sVd3ao2o3
p1136
I1
sVdfx08wq
p1137
I1
sVd9v367x
p1138
I1
sVd5ntkfv
p1139
I1
sVd21u8ky
p1140
I1
sVd9djbzc
p1141
I1
sVdo5oyht
p1142
I1
sVdt6yowg
p1143
I5
sVd0pwklp
p1144
I2
sVcyvb4z2
p1145
I1
sVdstqk14
p1146
I1
sVczqvjx0
p1147
I1
sVdr0jbfq
p1148
I1
sVd4sn3pm
p1149
I1
sVdg6mxbf
p1150
I1
sVdg3x809
p1151
I2
sVd2hcfz8
p1152
I1
sVd7idsrl
p1153
I1
sVd5mmpb9
p1154
I1
sVd4ohzxi
p1155
I1
sVdb7jqdp
p1156
I7
sVdr6cger
p1157
I4
sVd45x4be
p1158
I1
sVd12wcsq
p1159
I1
sVd7a3hhd
p1160
I1
sVdndu3zp
p1161
I1
sVddn51nv
p1162
I1
sVd7lk9jh
p1163
I1
sVdbgxt3v
p1164
I1
sVcyyuuu5
p1165
I1
sVd689wqe
p1166
I1
sVdpjjcft
p1167
I1
sVd7mcd4m
p1168
I1
sVdhto0pj
p1169
I1
sVcz34dzo
p1170
I1
sVd78rs9r
p1171
I2
sVd6uy6e2
p1172
I1
sVddx4x9e
p1173
I1
sVd3r5zwz
p1174
I2
sVcz1ffmm
p1175
I3
sVdk7mwgj
p1176
I2
sVd2tv55f
p1177
I1
sVdkx0946
p1178
I10
sVdms9ujo
p1179
I1
sVdb410qk
p1180
I2
sVcz9wpl5
p1181
I1
sVdjs3j6a
p1182
I1
sVcz34fr9
p1183
I1
sVd0h3cn7
p1184
I1
sVdedfyu5
p1185
I4
sVdj0b3pe
p1186
I1
sVdb3qncy
p1187
I1
sVdd411p1
p1188
I2
sVcyhtpfb
p1189
I1
sVdhmmqg9
p1190
I1
sVd2agcdh
p1191
I1
sVd9ugg1f
p1192
I1
sVdta982z
p1193
I1
sVdhqu20b
p1194
I1
sVdazpdh4
p1195
I1
sVddaoalo
p1196
I2
sVd93cd8l
p1197
I1
sVd4agwpg
p1198
I1
sVd38rp5j
p1199
I1
sVd5uza9x
p1200
I1
sVddoz3ar
p1201
I1
sVdiy632o
p1202
I1
sVda1hprx
p1203
I1
sVcyxsd6t
p1204
I1
sVdbj1fr9
p1205
I1
sVdjx8nc8
p1206
I1
sVdavhlqi
p1207
I1
sVdda4jw0
p1208
I1
sVdmhhdel
p1209
I1
sVdaq4883
p1210
I3
sVdiqdkse
p1211
I1
sVd8fqp4h
p1212
I3
sVd0fz6tv
p1213
I1
sVdrv5d5d
p1214
I1
sVdooch6n
p1215
I1
sVd4dxnt4
p1216
I2
sVdcr4x7b
p1217
I1
sVd6t720v
p1218
I1
sVdpudk9l
p1219
I1
sVdsn3lxv
p1220
I1
sVd12ofsl
p1221
I1
sVdi9efb1
p1222
I1
sVdmm23m8
p1223
I1
sVd3tsf2p
p1224
I1
sVdh59pcf
p1225
I1
sVdgj2o1q
p1226
I1
sVcyshh8y
p1227
I1
sVcz2ksg8
p1228
I1
sVd1bw8pk
p1229
I1
sVdhgq1kb
p1230
I1
sVdd3wves
p1231
I3
sVcynan48
p1232
I1
sVdqglxkb
p1233
I3
sVd1q5xo5
p1234
I2
sVd2d0w6l
p1235
I1
sVdcghtye
p1236
I1
sVdfjf6wo
p1237
I3
sVczz0pf4
p1238
I1
sVdbm33m4
p1239
I1
sVcyvj5hc
p1240
I1
sVd1ptuwd
p1241
I1
sVdksnllz
p1242
I1
sVd1rf6ct
p1243
I1
sVdrvslj4
p1244
I1
sVcyzj9wn
p1245
I1
sVd5hhj9c
p1246
I4
sVd381a4m
p1247
I1
sVdgeljl7
p1248
I1
sVd66xzo3
p1249
I1
sVddc817t
p1250
I1
sVdelch9m
p1251
I1
sVdcjigfr
p1252
I7
sVd8a8tun
p1253
I1
sVdb4747y
p1254
I2
sVdew6iwo
p1255
I1
sVd28t8r5
p1256
I1
sVd2rahjq
p1257
I2
sVdcj65wn
p1258
I1
sVd3ip5qc
p1259
I1
sVdg95qqo
p1260
I1
sVdai9nl5
p1261
I1
sVd7np9az
p1262
I1
sVd2ecwor
p1263
I1
sVd227naq
p1264
I1
sVdehrc68
p1265
I2
sVd00b4sh
p1266
I1
sVdmlpvhh
p1267
I1
sVdcz38xr
p1268
I2
sVd84amio
p1269
I1
sVdak02eu
p1270
I1
sVczk158m
p1271
I1
sVcyjnvpt
p1272
I1
sVd3wzalo
p1273
I1
sVdnta36p
p1274
I1
sVcyhyaz3
p1275
I1
sVd035drl
p1276
I1
sVdnvgjye
p1277
I1
sVdb1bpsh
p1278
I2
sVd2is568
p1279
I1
sVdgoeqx8
p1280
I1
sVdougz2u
p1281
I1
sVd7a1bba
p1282
I1
sVdmtq8pu
p1283
I1
sVd0oousw
p1284
I1
sVd07qh5t
p1285
I1
sVdboyarx
p1286
I2
sVd6napop
p1287
I3
sVd5sg54e
p1288
I1
sVdbxxxqq
p1289
I2
sVd9r7gu3
p1290
I1
sVcyqavii
p1291
I1
sVdgzosvg
p1292
I1
sVd6kpi0j
p1293
I4
sVdhsxjp1
p1294
I1
sVd90r61y
p1295
I1
sVddeucpg
p1296
I2
sVczuau8w
p1297
I1
sVd0gkmon
p1298
I2
sVd31v3ri
p1299
I1
sVdk345p2
p1300
I1
sVd2qfzi0
p1301
I1
sVdetf9a6
p1302
I1
sVdkvoih3
p1303
I1
sVdfp0heb
p1304
I2
sVdbidhsk
p1305
I2
sVdimgutg
p1306
I1
sVddxouwr
p1307
I2
sVd73lbaq
p1308
I2
sVd55wv8h
p1309
I3
sVda1d29t
p1310
I1
sVddr18lj
p1311
I1
sVdh11shs
p1312
I2
sVczlwlaf
p1313
I1
sVd2dhmvj
p1314
I1
sVdej0ges
p1315
I1
sVd4i3bx6
p1316
I1
sVd4udrnt
p1317
I1
sVdiph8th
p1318
I1
sVdawpif5
p1319
I4
sVd9j0lsf
p1320
I1
sVczangw3
p1321
I1
sVd4mx7gy
p1322
I11
sVdb9ynzy
p1323
I1
sVdkkpcr8
p1324
I1
sVdb0w42y
p1325
I1
sVdn4dw27
p1326
I1
sVd1ye6sv
p1327
I1
sVddp0qa0
p1328
I1
sVdk2sn1s
p1329
I1
sVdp14fv4
p1330
I1
sVdhq5stj
p1331
I1
sVdfq4way
p1332
I3
sVd0d1wnx
p1333
I1
sVdq35uk8
p1334
I1
sVdb53y84
p1335
I1
sVdelrlvq
p1336
I1
sVdpq70cu
p1337
I3
sVd0yiz2u
p1338
I1
sVdp0g6ae
p1339
I1
sVd7fa8ue
p1340
I1
sVdc8cilu
p1341
I1
sVdmfrtia
p1342
I1
sVd8ufb9s
p1343
I2
sVd6psgvi
p1344
I1
sVdgsulee
p1345
I1
sVd2tn9yy
p1346
I1
sVdbvoogb
p1347
I2
sVdjg1vjr
p1348
I1
sVcymu2to
p1349
I1
sVdo6j88q
p1350
I1
sVdqphc0z
p1351
I1
sVd229scd
p1352
I1
sVd77sb8m
p1353
I1
sVd116wwi
p1354
I1
sVdc9nft5
p1355
I2
sVcynp57z
p1356
I2
sVd89c0a3
p1357
I1
sVdnjbawh
p1358
I15
sVd3u0i7m
p1359
I1
sVd3kcn9z
p1360
I1
sVdfkosl6
p1361
I1
sVd1n4qm6
p1362
I1
sVdmodvy4
p1363
I2
sVdph8ufw
p1364
I2
sVd5lzppa
p1365
I1
sVd07i0cp
p1366
I2
sVdbohf4w
p1367
I1
sVdqh8ai6
p1368
I1
sVdd7fdza
p1369
I1
sVdehii9o
p1370
I3
sVd1wjna0
p1371
I1
sVd43dcvf
p1372
I1
sVdi0g4s9
p1373
I2
sVczgv1nx
p1374
I1
sVdnnyze0
p1375
I1
sVdskrunl
p1376
I2
sVdds5zp3
p1377
I1
sVdhs62y4
p1378
I1
sVdarhg1z
p1379
I1
sVddkkhyw
p1380
I1
sVd97f56j
p1381
I6
sVd5tli31
p1382
I1
sVd9zd4dt
p1383
I4
sVdr8w6xd
p1384
I2
sVczj13iw
p1385
I1
sVdjmf7tb
p1386
I1
sVdsvlg46
p1387
I1
sVd5s6369
p1388
I1
sVdaysxp1
p1389
I1
sVd69e0uv
p1390
I3
sVdaxjuw7
p1391
I1
sVd8zrnkg
p1392
I1
sVdhz24gc
p1393
I1
sVdc5p09r
p1394
I1
sVd4rlqn7
p1395
I1
sVdd6xojm
p1396
I1
sVdi7n4hc
p1397
I1
sVdkadcyc
p1398
I3
sVcz65uci
p1399
I2
sVd5scqx1
p1400
I1
sVdrl67wj
p1401
I1
sVdjtpklw
p1402
I2
sVd2cmcbg
p1403
I3
sVd8rkv0r
p1404
I1
sVd9pbln9
p1405
I1
sVdqmdem4
p1406
I1
sVd844wrz
p1407
I1
sVcyt4i0c
p1408
I2
sVdei4b69
p1409
I1
sVd73jw4a
p1410
I1
sVd1pyvf5
p1411
I1
sVdenei2t
p1412
I1
sVczaq5yf
p1413
I3
sVcyuyolj
p1414
I1
sVdoesc6f
p1415
I2
sVdq71v0b
p1416
I1
sVdibqal9
p1417
I3
sVd3ztpx6
p1418
I1
sVddnuu17
p1419
I1
sVd558w5a
p1420
I1
sVddiuqaj
p1421
I3
sVde40kwx
p1422
I2
sVd0v3elx
p1423
I11
sVd8a1nnu
p1424
I1
sVd975q2j
p1425
I1
sVds1iur5
p1426
I1
sVdclz7rp
p1427
I1
sVd60o4em
p1428
I1
sVcyqtjs6
p1429
I1
sVd84tme3
p1430
I1
sVdthltts
p1431
I1
sVd90kkwb
p1432
I1
sVd60qqtx
p1433
I1
sVd0o1w33
p1434
I1
sVd00f9kf
p1435
I1
sVdp5dip7
p1436
I1
sVdiw9ptp
p1437
I1
sVd3g0obq
p1438
I1
sVd3x49h5
p1439
I2
sVdhqfy81
p1440
I2
sVdo8xpu0
p1441
I1
sVdcoalbz
p1442
I1
sVdcmgl0q
p1443
I1
sVdmkafba
p1444
I1
sVdh49x43
p1445
I1
sVditetb9
p1446
I2
sVd5fcfhw
p1447
I1
sVdjm8ps5
p1448
I1
sVdbpvspz
p1449
I2
sVd7co3z4
p1450
I1
sVdopszby
p1451
I1
sVd2eyhhp
p1452
I1
sVdkm3bkw
p1453
I1
sVd032ohr
p1454
I1
sVczssn34
p1455
I1
sVdct1qvv
p1456
I1
sVdgl08ui
p1457
I1
sVdodcarx
p1458
I1
sVd2eqvpb
p1459
I1
sVd7z6q91
p1460
I1
sVdg9kbqb
p1461
I1
sVd97tcdu
p1462
I1
sVde0hf6g
p1463
I1
sVd1qrcx1
p1464
I1
sVde0gv11
p1465
I1
sVd0092kk
p1466
I1
sVda4ogz6
p1467
I5
sVda6zhun
p1468
I1
sVdf7x9xn
p1469
I4
sVdo7assj
p1470
I1
sVd817iw0
p1471
I1
sVdcsx1yg
p1472
I1
sVd3x0w53
p1473
I1
sVdd7huo8
p1474
I1
sVde17srx
p1475
I1
sVdayh66f
p1476
I1
sVd8ez32w
p1477
I3
sVdc3hvwe
p1478
I1
sVd1mq8vd
p1479
I1
sVdegbrbx
p1480
I1
sVdglr6ta
p1481
I4
sVdofbeq1
p1482
I1
sVdq0pwr9
p1483
I1
sVd6cv9zy
p1484
I1
sVcymzi9d
p1485
I1
sVdk1vr06
p1486
I1
sVdngzet6
p1487
I1
sVcz6xdvv
p1488
I1
sVd9fmw7d
p1489
I1
sVdpcdop9
p1490
I1
sVd28iga5
p1491
I1
sVdb6av6p
p1492
I1
sVdojailk
p1493
I1
sVddf2xb8
p1494
I2
sVd2gop8m
p1495
I1
sVdfwo2m3
p1496
I3
sVdfivfi1
p1497
I1
sVdeh69ms
p1498
I2
sVd7nsjqx
p1499
I3
sVddtozop
p1500
I2
sVdhq6enn
p1501
I2
sVd1isszp
p1502
I1
sVdpk88sp
p1503
I1
sVcz70hk0
p1504
I3
sVdirpcz0
p1505
I2
sVd3m2nob
p1506
I1
sVd1zriod
p1507
I4
sVd8653q5
p1508
I3
sVdat3ik4
p1509
I1
sVdnjbjpv
p1510
I10
sVdexaqjt
p1511
I1
sVdofnqeo
p1512
I1
sVd0rcxtd
p1513
I1
sVd3v70y4
p1514
I1
sVcz7s12s
p1515
I1
sVdobefsb
p1516
I2
sVd0pqsr8
p1517
I1
sVd13e8ln
p1518
I2
sVd2veycj
p1519
I1
sVd2f6y72
p1520
I1
sVdcee677
p1521
I1
sVdgm3bqe
p1522
I1
sVd7x2hix
p1523
I1
sVdnx72db
p1524
I1
sVdrsb6yk
p1525
I1
sVdo596uh
p1526
I1
sVdgzc0e7
p1527
I1
sVdo6y4ts
p1528
I1
sVd81lm6s
p1529
I1
sVdjk2dqt
p1530
I1
sVde9gi3i
p1531
I1
sVdegxbux
p1532
I1
sVd290i25
p1533
I1
sVdaammei
p1534
I1
sVd4tm7fb
p1535
I1
sVd5wdge3
p1536
I1
sVdr7wba7
p1537
I1
sVdas30cb
p1538
I1
sVd2ose0f
p1539
I1
sVdppc5mq
p1540
I1
sVd76izov
p1541
I1
sVdgmvg89
p1542
I1
sVdae79az
p1543
I1
sVd3i49qp
p1544
I1
sVdc4q8ml
p1545
I1
sVdnv8eg0
p1546
I1
sVdik7ht3
p1547
I1
sVd1oxxvg
p1548
I2
sVdqdmym3
p1549
I1
sVdmuqu3o
p1550
I1
sVdgqho1e
p1551
I1
sVd3w339z
p1552
I1
sVdhdza54
p1553
I1
sVdqjpn35
p1554
I1
sVd9p6i4l
p1555
I1
sVdoty1cl
p1556
I1
sVd2ahsp2
p1557
I1
sVdqa7pn0
p1558
I1
sVd7r6vgt
p1559
I1
sVdr4c7wr
p1560
I1
sVdr3htoy
p1561
I7
sVdcmemqh
p1562
I1
sVdqj7f2p
p1563
I2
sVdhlzcor
p1564
I1
sVd3hxuvw
p1565
I1
sVcz1j7qe
p1566
I1
sVdbq5ire
p1567
I1
sVd4szh2k
p1568
I14
sVd7dhsxp
p1569
I2
sVdf7rqsz
p1570
I1
sVdn9k2cb
p1571
I3
sVdro94ih
p1572
I1
sVdsgnf4q
p1573
I1
sVdr38tq0
p1574
I2
sVdmhrrp3
p1575
I1
sVdh0d23j
p1576
I1
sVdadex3a
p1577
I1
sVd08f9q4
p1578
I1
sVczcv85p
p1579
I2
sVdcdatc4
p1580
I1
sVd35vt7z
p1581
I4
sVdow6tvn
p1582
I2
sVd4g797m
p1583
I2
sVd2l3eh8
p1584
I1
sVd2o3eq5
p1585
I8
sVd8ltqdv
p1586
I1
sVdko82zs
p1587
I1
sVd2qfqpx
p1588
I2
sVdikqfig
p1589
I1
sVdh1i792
p1590
I1
sVdbttazf
p1591
I1
sVcyiigut
p1592
I1
sVcymxl3d
p1593
I1
sVda76bwj
p1594
I1
sVd4rr0g8
p1595
I1
sVdcjzv8y
p1596
I1
sVdpb72gf
p1597
I1
sVdjntc0n
p1598
I2
sVdhlf4n7
p1599
I1
sVd63q6kw
p1600
I1
sVd8qc64o
p1601
I1
sVdcpmvcn
p1602
I1
sVcz1zx7l
p1603
I4
sVd2q5b2k
p1604
I9
sVd60haks
p1605
I2
sVds6xnst
p1606
I2
sVdhgvotm
p1607
I1
sVd080f7q
p1608
I2
sVdir1rq4
p1609
I1
sVd5ftwlt
p1610
I1
sVd14j8uq
p1611
I1
sVd2gikdd
p1612
I1
sVcyrg912
p1613
I1
sVdr5klxh
p1614
I2
sVd3vfrbo
p1615
I1
sVddnc7da
p1616
I1
sVdi4dccr
p1617
I1
sVd9kap92
p1618
I2
sVd71xw03
p1619
I1
sVdg7pooe
p1620
I2
sVdis2r2h
p1621
I1
sVdax1noh
p1622
I1
sVdr5ltu4
p1623
I1
sVd5w92xw
p1624
I4
sVd0wos5b
p1625
I1
sVddcmcff
p1626
I1
sVd5axhwe
p1627
I1
sVdfstc0w
p1628
I1
sVdsczxhi
p1629
I1
sVdj33v7u
p1630
I1
sVdbb63um
p1631
I1
sVd4nbcdd
p1632
I1
sVdh67swb
p1633
I1
sVd9l23rr
p1634
I3
sVcz0mibt
p1635
I1
sVdi2i41i
p1636
I1
sVdc2jyfl
p1637
I1
sVd110qlb
p1638
I1
sVd5iolxo
p1639
I1
sVde78br7
p1640
I1
sVdbokhwt
p1641
I1
sVcz3uv6z
p1642
I1
sVdcdjlwo
p1643
I1
sVdar6bee
p1644
I1
sVd08q3sn
p1645
I1
sVdk2bpmp
p1646
I1
sVdkcfpe9
p1647
I9
sVd8a3i9k
p1648
I1
sVdca5or8
p1649
I1
sVcyilw51
p1650
I3
sVdp1iydz
p1651
I1
sVde0x45k
p1652
I1
sVd28dyma
p1653
I1
sVd16q8g7
p1654
I1
sVd8bou12
p1655
I1
sVdnw7c9f
p1656
I1
sVdci011c
p1657
I1
sVdjz6prl
p1658
I1
sVd2qts55
p1659
I1
sVd15gfuo
p1660
I1
sVd8sqq02
p1661
I1
sVd6nk8yx
p1662
I1
sVddruz5y
p1663
I1
sVd5ssgfz
p1664
I1
sVdnh3s9g
p1665
I1
sVdhf47lw
p1666
I1
sVdt9mrjg
p1667
I1
sVcyompy4
p1668
I1
sVdeakfcv
p1669
I1
sVdpuvgzj
p1670
I1
sVdevi7ax
p1671
I1
sVdd3xfkc
p1672
I1
sVdnftwnj
p1673
I2
sVd0puvcy
p1674
I4
sVd47cp1i
p1675
I1
sVdcmgplj
p1676
I1
sVdh387ee
p1677
I1
sVd4n161e
p1678
I2
sVd3n9rxe
p1679
I1
sVdt4uirt
p1680
I1
sVdcedlaq
p1681
I1
sVdkqu3sq
p1682
I1
sVd2accok
p1683
I4
sVd69l5zv
p1684
I2
sVde8tr44
p1685
I2
sVd7k0zwa
p1686
I1
sVddpxdnd
p1687
I1
sVd3x26vg
p1688
I3
sVdcrxwto
p1689
I1
sVd0ciq98
p1690
I1
sVd0emkv8
p1691
I1
sVdeh6eur
p1692
I1
sVd7ynmym
p1693
I1
sVd0ugvxq
p1694
I1
sVd63qorr
p1695
I1
sVd09nvc7
p1696
I1
sVd9mm211
p1697
I1
sVdpz5hg0
p1698
I7
sVdso5nll
p1699
I1
sVdavjgsc
p1700
I1
sVd6jg0c4
p1701
I2
sVdggjj9k
p1702
I1
sVdd4hi1b
p1703
I1
sVdokl2mw
p1704
I1
sVd7qwr4x
p1705
I1
sVdqvhvth
p1706
I1
sVczu9uwh
p1707
I1
sVdda6sfy
p1708
I1
sVdr12myx
p1709
I1
sVd6yzcgr
p1710
I1
sVdrmu8qg
p1711
I1
sVdthcgzr
p1712
I1
sVdcap9wh
p1713
I1
sVdr6fgw3
p1714
I1
sVd72r9r0
p1715
I2
sVdh3fp4i
p1716
I2
sVcz5iiof
p1717
I1
sVd98gvv4
p1718
I1
sVdikbfd5
p1719
I1
sVdt40zt6
p1720
I1
sVcyy2m6n
p1721
I1
sVd3zxx61
p1722
I1
sVd626l9n
p1723
I1
sVcykxlj7
p1724
I1
sVd4jfj8j
p1725
I1
sVcyir0jr
p1726
I2
sVdq412bs
p1727
I1
sVddsgmu7
p1728
I1
sVd0yihs1
p1729
I1
sVdcxrtkz
p1730
I1
sVczg665b
p1731
I1
sVdp3vks5
p1732
I1
sVd4eqq4n
p1733
I2
sVdbi95p7
p1734
I1
sVdnxtkxf
p1735
I1
sVd7yuj6f
p1736
I1
sVd1a7tn9
p1737
I1
sVdg8xhes
p1738
I1
sVd7fa2wz
p1739
I2
sVd7a3k8g
p1740
I1
sVcz6gujg
p1741
I1
sVdg8x25y
p1742
I2
sVd3t2nqn
p1743
I1
sVdfp9jk5
p1744
I1
sVdn8nluo
p1745
I1
sVd9tzgga
p1746
I2
sVd3dfatr
p1747
I1
sVdo7v734
p1748
I1
sVdkc0yz0
p1749
I1
sVd341mmm
p1750
I1
sVd3lcdhb
p1751
I1
sVd5c9z35
p1752
I1
sVd2q46a5
p1753
I3
sVd7co9jn
p1754
I1
sVd6kfmap
p1755
I1
sVdjf00pv
p1756
I2
sVd14llec
p1757
I1
sVd894u6b
p1758
I1
sVdpg9tn4
p1759
I1
sVd290vew
p1760
I1
sVd50m9cc
p1761
I1
sVd9mtud9
p1762
I1
sVddhllw1
p1763
I1
sVdaph7go
p1764
I2
sVds8deti
p1765
I2
sVds9vxpe
p1766
I1
sVczuv1t1
p1767
I1
sVd3lkthi
p1768
I1
sVczo6utv
p1769
I1
sVd6t5qgp
p1770
I1
sVdpsa44e
p1771
I1
sVd1rsp2z
p1772
I4
sVdf5o02z
p1773
I1
sVdbfpxaj
p1774
I1
sVdjzv6dp
p1775
I1
sVd7iu70e
p1776
I1
sVd4hm5it
p1777
I1
sVd3n02ot
p1778
I1
sVdbpcaxi
p1779
I1
sVdgu9su5
p1780
I2
sVdhu4bvq
p1781
I3
sVdjrilzc
p1782
I1
sVd26p7ov
p1783
I1
sVdmzr1uj
p1784
I1
sVds06syf
p1785
I2
sVdklzt41
p1786
I1
sVd8w6ugb
p1787
I1
sVd0644y9
p1788
I2
sVdjzcard
p1789
I1
sVd32z0oq
p1790
I1
sVdntle26
p1791
I1
sVde2o392
p1792
I1
sVczxenb2
p1793
I1
sVdcjys5g
p1794
I1
sVdn9ag3k
p1795
I1
sVdsx0c7c
p1796
I1
sVdkt6zwt
p1797
I1
sVd35uk7a
p1798
I1
sVdo04pw1
p1799
I1
sVdkzeexm
p1800
I5
sVdjhz7gf
p1801
I2
sVdeu7jc2
p1802
I1
sVd0bydjt
p1803
I1
sVcyr9b1n
p1804
I3
sVczjan0p
p1805
I2
sVczzpj3e
p1806
I1
sVdberuzr
p1807
I1
sVddc092d
p1808
I1
sVddzmoqo
p1809
I1
sVdcvdjs9
p1810
I1
sVdidlcqk
p1811
I1
sVddwj1ld
p1812
I1
sVdf1q9hl
p1813
I3
sVdg8ohoi
p1814
I1
sVdbrphxg
p1815
I2
sVdhl4syr
p1816
I11
sVd001f6c
p1817
I2
sVd6nl6tc
p1818
I1
sVdik15hb
p1819
I1
sVd6bxq95
p1820
I1
sVczu78ed
p1821
I1
sVd9fkjhv
p1822
I1
sVds05g0x
p1823
I1
sVd4gkawp
p1824
I1
sVd6rsp7l
p1825
I1
sVdpyhy8z
p1826
I1
sVdcsjdsx
p1827
I1
sVd2l9lh0
p1828
I1
sVd23cg90
p1829
I1
sVdc0x5ih
p1830
I27
sVdg2d7a5
p1831
I1
sVd8dragk
p1832
I1
sVdbp31ys
p1833
I1
sVd9eefl1
p1834
I1
sVdgmpgym
p1835
I1
sVd30xf7q
p1836
I1
sVd7e9lcs
p1837
I1
sVdphd43v
p1838
I1
sVdn7c0tv
p1839
I1
sVdcwk2a1
p1840
I1
sVd0s9ylc
p1841
I1
sVd592tbo
p1842
I1
sVddljlxk
p1843
I3
sVd02witz
p1844
I1
sVd0ylw1b
p1845
I1
sVd4lsokm
p1846
I1
sVd8dd8af
p1847
I1
sVdb4bea2
p1848
I3
sVdfqub0f
p1849
I1
sVd7sc5qt
p1850
I11
sVdojz1e9
p1851
I1
sVd3v6xyy
p1852
I1
sVdi5tn7j
p1853
I1
sVdn0qoxv
p1854
I2
sVdejbqyw
p1855
I1
sVd3e3scw
p1856
I1
sVd5x2l8z
p1857
I1
sVdcoew9l
p1858
I2
sVd2kol53
p1859
I2
sVd5hz1fx
p1860
I1
sVddla50c
p1861
I1
sVdahsepg
p1862
I1
sVdcaotl6
p1863
I1
sVdczbhme
p1864
I1
sVd1vq7al
p1865
I6
sVd60bkdr
p1866
I2
sVdixaxqy
p1867
I1
sVd3nbtoq
p1868
I1
sVdo6lel4
p1869
I1
sVd6hbss0
p1870
I1
sVdr049ri
p1871
I1
sVd8wx0oz
p1872
I1
sVdavougc
p1873
I1
sVd4zfh67
p1874
I1
sVda1e6z5
p1875
I1
sVcz9h102
p1876
I1
sVdpph7ry
p1877
I1
sVdeerpbq
p1878
I2
sVdjlgfge
p1879
I1
sVd2l99as
p1880
I1
sVd6f7ymt
p1881
I1
sVd01eky4
p1882
I1
sVde8v3v1
p1883
I2
sVdkao9qd
p1884
I1
sVdofludp
p1885
I8
sVd460qim
p1886
I1
sVd4yb8k1
p1887
I1
sVde2zqf0
p1888
I1
sVd83567n
p1889
I1
sVdrr7j0g
p1890
I2
sVd0q5ubn
p1891
I3
sVd0qynbg
p1892
I1
sVdaz0bv2
p1893
I1
sVd0xqnd4
p1894
I1
sVddvk3n2
p1895
I1
sVdcssf7z
p1896
I2
sVd2k8umt
p1897
I1
sVdas3fzi
p1898
I13
sVczln5az
p1899
I1
sVd9zq8u7
p1900
I1
sVdibo9hm
p1901
I1
sVdon6kqo
p1902
I1
sVd3is80d
p1903
I1
sVdba0ai5
p1904
I1
sVdrgaove
p1905
I3
sVdnqeb16
p1906
I1
sVd9rtxpf
p1907
I3
sVdixv1hm
p1908
I1
sVd7kihvx
p1909
I1
sVd358437
p1910
I1
sVdol1q1b
p1911
I1
sVd8859g4
p1912
I1
sVdh5e9k3
p1913
I3
sVdf07gdx
p1914
I1
sVcytewxr
p1915
I1
sVdb8d0pj
p1916
I1
sVd45mfks
p1917
I2
sVdhboixv
p1918
I1
sVdh6ti0k
p1919
I1
sVd5cs6s1
p1920
I3
sVdjqea5y
p1921
I1
sVd8g6f70
p1922
I1
sVd6f75ac
p1923
I1
sVczxnxp0
p1924
I1
sVdmo58on
p1925
I1
sVdrdijfp
p1926
I1
sVd7to5vm
p1927
I1
sVd482wn8
p1928
I1
sVdpy32r4
p1929
I3
sVdmxbquf
p1930
I1
sVdkrn9zp
p1931
I4
sVd5zivc4
p1932
I2
sVdqaw3s1
p1933
I1
sVds3g9kf
p1934
I1
sVd77mal7
p1935
I1
sVd16xlm2
p1936
I1
sVdbwiz0k
p1937
I1
sVd15rnl4
p1938
I1
sVdtji25y
p1939
I3
sVcz7k2oz
p1940
I1
sVdg3fgso
p1941
I1
sVdh840rn
p1942
I1
sVd27i2gd
p1943
I1
sVddse65y
p1944
I1
sVdfnh3nj
p1945
I1
sVd400yq3
p1946
I2
sVdevqlzd
p1947
I2
sVcyn2eoz
p1948
I1
sVdfprrwz
p1949
I1
sVdopwyqr
p1950
I1
sVd94si81
p1951
I1
sVdo25ekl
p1952
I1
sVdf5v331
p1953
I1
sVdcfjpsa
p1954
I1
sVd8n2h7q
p1955
I1
sVd02rh16
p1956
I1
sVd0hii9c
p1957
I2
sVdobcsuv
p1958
I1
sVd3ztkbz
p1959
I2
sVdc96ueu
p1960
I1
sVd75h926
p1961
I1
sVdew8iyu
p1962
I14
sVd7cgsxt
p1963
I1
sVdaonlpw
p1964
I1
sVd4277fq
p1965
I1
sVd6jhfl0
p1966
I1
sVdepygco
p1967
I1
sVczw6i8i
p1968
I2
sVd1x0vdt
p1969
I1
sVd0832dh
p1970
I1
sVdj0wk4y
p1971
I1
sVdc54rrl
p1972
I1
sVdflsnuk
p1973
I1
sVd2twc00
p1974
I1
sVd6ppnq1
p1975
I1
sVdob4uzr
p1976
I1
sVd6zp1fw
p1977
I1
sVd3vx4k8
p1978
I1
sVd5fnwqg
p1979
I1
sVdedhy9f
p1980
I1
sVd5u5c15
p1981
I1
sVd0388o5
p1982
I6
sVdsajse5
p1983
I1
sVd717y50
p1984
I1
sVdcbxxxu
p1985
I1
sVcz7oxs2
p1986
I1
sVdgin7s7
p1987
I1
sVdhh1jr3
p1988
I1
sVddopmnr
p1989
I1
sVd1d9mzn
p1990
I1
sVcz8pswc
p1991
I1
sVczlnyhe
p1992
I1
sVddc92po
p1993
I2
sVdjytk4i
p1994
I1
sVdas3zen
p1995
I1
sVd0qyvef
p1996
I1
sVcyv6b90
p1997
I2
sVd3r8uui
p1998
I1
sVd3w5747
p1999
I1
sVd4gestl
p2000
I1
sVdtfghl1
p2001
I1
sVdjty5r4
p2002
I1
sVdbdyb4p
p2003
I1
sVd9dp5bc
p2004
I1
sVdcx6j8i
p2005
I1
sVdcr2bx8
p2006
I5
sVdou3l3i
p2007
I1
sVdevcqxb
p2008
I1
sVd1kw03e
p2009
I1
sVdf0azpo
p2010
I3
sVdir8gqk
p2011
I5
sVd71ydas
p2012
I1
sVdjz3qke
p2013
I1
sVd2bctya
p2014
I1
sVd8ohf6k
p2015
I1
sVddbhn7v
p2016
I1
sVdkv3qwe
p2017
I3
sVdg6q3zh
p2018
I1
sVcyi19pf
p2019
I1
sVddx5w3s
p2020
I1
sVczhrvgo
p2021
I5
sVdbeu4xh
p2022
I1
sVd82da52
p2023
I2
sVdgkm7ob
p2024
I2
sVd3e4wd5
p2025
I1
sVdjxqrdz
p2026
I1
sVd2oulte
p2027
I1
sVcz2u4dh
p2028
I1
sVd9cwmor
p2029
I4
sVd4a6mxk
p2030
I4
sVd9tpbil
p2031
I1
sVd7m781q
p2032
I1
sVd1o51dg
p2033
I1
sVczgygt9
p2034
I2
sVdaj8tfv
p2035
I1
sVcz1xyxt
p2036
I3
sVdcvenym
p2037
I1
sVdb7pkud
p2038
I1
sVdesz3ts
p2039
I8
sVddghtw3
p2040
I1
sVdp8qrr1
p2041
I1
sVdnolap8
p2042
I2
sVde17o3w
p2043
I1
sVdd6snd8
p2044
I2
sVddc8qz4
p2045
I3
sVdkvneqd
p2046
I1
sVdb6kjee
p2047
I1
sVddhpizu
p2048
I1
sVdj8e3vc
p2049
I1
sVd41k5is
p2050
I1
sVd06mz36
p2051
I2
sVd2b928o
p2052
I1
sVdirt46e
p2053
I1
sVdk7we5y
p2054
I1
sVd6hefo0
p2055
I1
sVdae3xs1
p2056
I2
sVddop3xx
p2057
I1
sVddt6k8s
p2058
I1
sVd9n54el
p2059
I3
sVd92kabo
p2060
I1
sVdjxamxw
p2061
I1
sVdavn1mb
p2062
I1
sVd02pbu5
p2063
I1
sVdmuzpp4
p2064
I2
sVcyrg7f5
p2065
I2
sVd7542v2
p2066
I1
sVd9vtipm
p2067
I1
sVdas2w92
p2068
I1
sVdedhzgi
p2069
I11
sVdd20iu6
p2070
I1
sVdec3p3g
p2071
I1
sVd19s62y
p2072
I1
sVcyym4c6
p2073
I1
sVdt9akbo
p2074
I1
sVczy7ym6
p2075
I1
sVdjphcly
p2076
I1
sVd0ifvv2
p2077
I1
sVdc6mbpr
p2078
I1
sVcyo0gab
p2079
I1
sVdmsgppx
p2080
I1
sVd7g1s5v
p2081
I1
sVd7j9b4x
p2082
I1
sVd38wn2s
p2083
I4
sVdgvrdlt
p2084
I3
sVdnkbhlg
p2085
I1
sVd2jhk8m
p2086
I1
sVd9bu5sb
p2087
I1
sVcyrdwfy
p2088
I4
sVdhk30sz
p2089
I1
sVddcqlly
p2090
I1
sVd7wwtic
p2091
I1
sVd2k9znl
p2092
I1
sVdonsapr
p2093
I3
sVd6qa0a1
p2094
I1
sVd92usms
p2095
I1
sVd1hfmfb
p2096
I1
sVd3cr06y
p2097
I1
sVdiln7v3
p2098
I1
sVd9cvbpi
p2099
I1
sVdo2d6zz
p2100
I1
sVdtctzph
p2101
I2
sVd40vf7l
p2102
I2
sVdsay4ho
p2103
I1
sVd9onmpt
p2104
I1
sVd37b31n
p2105
I1
sVdayvm8i
p2106
I1
sVdn8x777
p2107
I1
sVd0pqdum
p2108
I2
sVdsqfwoy
p2109
I1
sVd4swu68
p2110
I4
sVdsl4e42
p2111
I1
sVddy44b0
p2112
I3
sVd184m50
p2113
I1
sVczla36k
p2114
I1
sVddikeu5
p2115
I1
sVdarjfsj
p2116
I2
sVdaizl23
p2117
I1
sVdeno6b0
p2118
I2
sVddyp0d0
p2119
I1
sVd0zbnyx
p2120
I2
sVdbqhixm
p2121
I1
sVd33gwp3
p2122
I1
sVczs36e3
p2123
I1
sVd59tc7t
p2124
I1
sVdpi3rr0
p2125
I2
sVd5muj8m
p2126
I11
sVdcvb2pt
p2127
I1
sVd5ze435
p2128
I1
sVd9r7eha
p2129
I1
sVcz65l73
p2130
I1
sVdowgdi1
p2131
I7
sVdfsrhuf
p2132
I1
sVd6x45m7
p2133
I2
sVdj191rh
p2134
I1
sVd1qcatk
p2135
I1
sVdrv4rve
p2136
I1
sVdcvszg1
p2137
I1
sVdpob00t
p2138
I2
sVd5l1ykh
p2139
I7
sVd77rnzb
p2140
I2
sVd1dvui3
p2141
I1
sVdruo9px
p2142
I2
sVd1huxz0
p2143
I2
sVcylkwnm
p2144
I1
sVdje72bv
p2145
I4
sVd38d56e
p2146
I1
sVd5vjksx
p2147
I1
sVd3sx56d
p2148
I1
sVdawrrhd
p2149
I1
sVdaxnefs
p2150
I3
sVdisbplo
p2151
I1
sVd2d0v5h
p2152
I2
sVd43fvsp
p2153
I1
sVd5pgm2p
p2154
I1
sVdewukzz
p2155
I1
sVczafxao
p2156
I2
sVd7nxp0q
p2157
I4
sVdbviqm9
p2158
I1
sVd03hd1k
p2159
I1
sVdstgk14
p2160
I1
sVdfassru
p2161
I1
sVdqs6ze6
p2162
I2
sVczw6sll
p2163
I1
sVcym21hr
p2164
I1
sVd78vw6s
p2165
I1
sVdc1dn2q
p2166
I1
sVde46g7w
p2167
I1
sVdgziye7
p2168
I4
sVdpxim5u
p2169
I1
sVd75xzyx
p2170
I1
sVdt0u8kw
p2171
I1
sVcyqjuz4
p2172
I1
sVd2w1ty3
p2173
I1
sVd4u5v3d
p2174
I1
sVd5sfo5e
p2175
I2
sVdcvl99q
p2176
I1
sVdkxnydq
p2177
I1
sVdiy8sp4
p2178
I1
sVd35h50o
p2179
I1
sVdeqfs8e
p2180
I1
sVdb3b0mz
p2181
I1
sVdktksbd
p2182
I1
sVd07ue64
p2183
I1
sVdmf9sv6
p2184
I1
sVdevxqxt
p2185
I1
sVdbbl6e4
p2186
I1
sVd3w79gg
p2187
I1
sVdfq38jj
p2188
I1
sVd2tugaa
p2189
I1
sVdgp1lhh
p2190
I1
sVdt4c6rh
p2191
I5
sVd2me7gn
p2192
I1
sVd4lq5qp
p2193
I1
sVd72p2la
p2194
I1
sVdqqcqwt
p2195
I1
sVd6c1n9f
p2196
I1
sVdeudk45
p2197
I1
sVd4oerug
p2198
I1
sVdfwa3w8
p2199
I1
sVd95nwt8
p2200
I1
sVdq0osft
p2201
I1
sVcyncxwh
p2202
I1
sVd9d6fwk
p2203
I1
sVdi045sm
p2204
I3
sVdkw5m7f
p2205
I1
sVd4tc6cb
p2206
I1
sVdf2lav1
p2207
I1
sVd0vuqbf
p2208
I4
sVdfy9sp7
p2209
I1
sVd5i4lpc
p2210
I1
sVd1w0xas
p2211
I1
sVdd4xseu
p2212
I1
sVdq14akr
p2213
I1
sVd692qwc
p2214
I1
sVd5n0evl
p2215
I1
sVcyhyyvw
p2216
I2
sVcz5jy30
p2217
I1
sVd5bnrbe
p2218
I2
sVdh0ufgo
p2219
I1
sVd0pu3wi
p2220
I1
sVdg5jzj4
p2221
I1
sVdc1xv6n
p2222
I2
sVdk4ws2c
p2223
I1
sVd5x8ya1
p2224
I1
sVdjn71q0
p2225
I1
sVdb8wy4v
p2226
I1
sVdkirhoy
p2227
I1
sVd5hx2ew
p2228
I2
sVd194bss
p2229
I1
sVdhi97fj
p2230
I1
sVd3saddn
p2231
I1
sVd78tgt0
p2232
I1
sVczakvw5
p2233
I9
sVd4t4nrb
p2234
I1
sVd7xt67b
p2235
I1
sVczarspk
p2236
I2
sVd0kxm7k
p2237
I1
sVcypb664
p2238
I1
sVdhoshjm
p2239
I2
sVd658zdv
p2240
I1
sVdmvkejb
p2241
I1
sVd0rvp1n
p2242
I1
sVddhqk4d
p2243
I1
sVd9cwsab
p2244
I1
sVdcb8srk
p2245
I1
sVd7q8n5o
p2246
I1
sVdgq1at5
p2247
I5
sVdo7b1jl
p2248
I1
sVdquzia2
p2249
I1
sVd0pnyd5
p2250
I1
sVcz5btqr
p2251
I1
sVdmy5ri9
p2252
I1
sVdnnf0mk
p2253
I1
sVcypgv6z
p2254
I1
sVd557zvf
p2255
I1
sVdhmwbzc
p2256
I1
sVd99f1xs
p2257
I1
sVdiqsoag
p2258
I2
sVdg3wtka
p2259
I1
sVddoxy0d
p2260
I3
sVd0zw1z0
p2261
I1
sVczqiyrp
p2262
I1
sVdr3ajxc
p2263
I1
sVdi7oexf
p2264
I1
sVdc9g8nc
p2265
I1
sVd4l22ww
p2266
I1
sVdbioi5u
p2267
I1
sVcyl9081
p2268
I1
sVczxlut1
p2269
I2
sVdembh4x
p2270
I2
sVdqmvsx8
p2271
I1
sVddqq49w
p2272
I1
sVddx2w23
p2273
I1
sVde2i0gq
p2274
I3
sVdj4ipu1
p2275
I1
sVd5x8144
p2276
I1
sVdbfp31i
p2277
I1
sVdf7g5ji
p2278
I2
sVd9oyz6x
p2279
I2
sVd1h4sjs
p2280
I1
sVd0lmpve
p2281
I1
sVd8a2so3
p2282
I1
sVd1uullx
p2283
I1
sVdcf0k3q
p2284
I1
sVd3ahaa0
p2285
I1
sVczjp4l1
p2286
I1
sVd3ku4s1
p2287
I1
sVdoejl7q
p2288
I2
sVdeq7fud
p2289
I1
sVczg3kuj
p2290
I1
sVd6knjdy
p2291
I1
sVd0sj91w
p2292
I1
sVd2zujby
p2293
I8
sVd1banjo
p2294
I1
sVd48q6fg
p2295
I1
sVd193mr5
p2296
I1
sVdoerrh8
p2297
I1
sVd5vro87
p2298
I1
sVd06wvo3
p2299
I1
sVd9k1vdx
p2300
I1
sVd6r9n4t
p2301
I1
sVdryqeim
p2302
I1
sVdcb7b7c
p2303
I1
sVdjqgwjr
p2304
I4
sVd0i9yjp
p2305
I1
sVdftua88
p2306
I1
sVdbwr5xz
p2307
I5
sVdd4v526
p2308
I1
sVd2iavjv
p2309
I1
sVdn0wzdn
p2310
I2
sVdjyz76l
p2311
I1
sVdh11tdw
p2312
I1
sVdjk658l
p2313
I1
sVdjqghu5
p2314
I1
sVda1n3ba
p2315
I2
sVddnanb6
p2316
I1
sVcyyqnjs
p2317
I1
sVdj0cwy4
p2318
I2
sVd3any72
p2319
I1
sVdglxqdb
p2320
I1
sVd2nkxoh
p2321
I1
sVdru74s8
p2322
I1
sVdib23n0
p2323
I1
sVdorl3yt
p2324
I1
sVdi5kn8t
p2325
I14
sVd69axxx
p2326
I1
sVd4o4un6
p2327
I1
sVd4m182l
p2328
I1
sVdjx303x
p2329
I2
sVcynnn1l
p2330
I3
sVd6g2o84
p2331
I1
sVd7a87rz
p2332
I1
sVd128vk5
p2333
I1
sVdas9nky
p2334
I7
sVdebf0xa
p2335
I1
sVd5tki41
p2336
I2
sVdenrk1t
p2337
I1
sVdcpv2ja
p2338
I1
sVda341rs
p2339
I1
sVd1ph2yt
p2340
I1
sVd8rk3nn
p2341
I1
sVd1mfthw
p2342
I1
sVdfm8iqt
p2343
I1
sVdc0zyy1
p2344
I1
sVd40fbod
p2345
I1
sVdaa4tkm
p2346
I1
sVdmio7q9
p2347
I2
sVd7sforp
p2348
I1
sVcyptk1l
p2349
I1
sVd6qcs0k
p2350
I2
sVd1zcjif
p2351
I3
sVdal6b83
p2352
I1
sVd1mflcm
p2353
I1
sVdqc054j
p2354
I1
sVdnadkh8
p2355
I2
sVd0qwaxl
p2356
I1
sVdbonh9l
p2357
I1
sVdktg9m4
p2358
I1
sVczt859b
p2359
I1
sVd0t84oq
p2360
I1
sVd9lu4po
p2361
I1
sVdogchdy
p2362
I1
sVd9on9me
p2363
I1
sVczyqima
p2364
I1
sVdsn7lah
p2365
I26
sVdesxdn2
p2366
I3
sVd0h6mj3
p2367
I1
sVd926g5j
p2368
I1
sVcyp04dd
p2369
I1
sVdfomn6g
p2370
I1
sVd6tiwbt
p2371
I1
sVdna7ewk
p2372
I1
sVdcu84y0
p2373
I1
sVd3knzf9
p2374
I2
sVdcve7yz
p2375
I1
sVdn2wc7n
p2376
I1
sVdsb7779
p2377
I2
sVdjaanjs
p2378
I2
sVdmob48d
p2379
I1
sVd77mlv6
p2380
I1
sVdpvw9y0
p2381
I2
sVdr6lays
p2382
I1
sVdsvjiev
p2383
I1
sVdbnu9ju
p2384
I1
sVddzamb3
p2385
I1
sVd11vnn1
p2386
I1
sVd6nbfey
p2387
I1
sVdk348yg
p2388
I3
sVcz36wdd
p2389
I1
sVdnuntk5
p2390
I1
sVdc6uxd3
p2391
I1
sVdbw63s0
p2392
I1
sVd5fn0sq
p2393
I1
sVd55w18h
p2394
I1
sVcz9unjn
p2395
I1
sVd4ib1wg
p2396
I1
sVd8xo8c3
p2397
I1
sVda1qfhp
p2398
I1
sVdnzn29k
p2399
I1
sVd62fslb
p2400
I1
sVd31qn4p
p2401
I1
sVd8sxadm
p2402
I1
sVdntd92f
p2403
I1
sVda19vkk
p2404
I1
sVdnw0pk0
p2405
I1
sVdfjf1jz
p2406
I1
sVd4do591
p2407
I1
sVdpvweza
p2408
I1
sVdqmpryq
p2409
I1
sVdi9xaqm
p2410
I1
sVds4svrj
p2411
I1
sVd8n1hhz
p2412
I1
sVdn2tk6d
p2413
I1
sVdqy335l
p2414
I1
sVd56izh5
p2415
I9
sVd1q0os3
p2416
I1
sVd90g24y
p2417
I3
sVczmahu0
p2418
I1
sVdsgqigw
p2419
I1
sVd13vjn4
p2420
I1
sVd6g3s0b
p2421
I1
sVdnwigwt
p2422
I3
sVd1rhmnl
p2423
I2
sVdptnxmp
p2424
I1
sVd7w7t43
p2425
I1
sVd9gp1ia
p2426
I1
sVd6478g8
p2427
I1
sVda701h0
p2428
I4
sVd7exmjp
p2429
I3
sVd2wzmh8
p2430
I1
sVd93io01
p2431
I2
sVdetdhcj
p2432
I1
sVd131rdr
p2433
I1
sVd3ur4sw
p2434
I1
sVdr55z8w
p2435
I2
sVdrjncln
p2436
I1
sVdel0o4m
p2437
I1
sVdbmyfsf
p2438
I1
sVdrd6nrf
p2439
I1
sVde8epa1
p2440
I1
sVd95jj94
p2441
I1
sVd6rer7x
p2442
I1
sVdablmgc
p2443
I1
sVdhskmae
p2444
I1
sVd0ew848
p2445
I1
sVd9ba11t
p2446
I1
sVdd581dk
p2447
I1
sVd6h0rh5
p2448
I1
sVdjwsqn5
p2449
I1
sVd1f3qqy
p2450
I1
sVdiwv1rd
p2451
I1
sVd3cbu0n
p2452
I1
sVdbdz8vs
p2453
I3
sVd5698cy
p2454
I7
sVdd9g8g1
p2455
I1
sVdddsqwz
p2456
I1
sVdi4g13r
p2457
I3
sVdb9oywx
p2458
I1
sVd80nor5
p2459
I1
sVdfbfvga
p2460
I1
sVdh5xnrt
p2461
I4
sVd8tw3v4
p2462
I1
sVd6v2nsd
p2463
I1
sVd14jrhc
p2464
I1
sVd5kmqf7
p2465
I1
sVdes4y2w
p2466
I1
sVdjoa5w2
p2467
I2
sVdgq0a1j
p2468
I2
sVd81g51h
p2469
I1
sVd0s051n
p2470
I1
sVd3uj0ys
p2471
I1
sVdihl3zx
p2472
I1
sVdk13akb
p2473
I1
sVd8ee1aw
p2474
I1
sVde3w3mc
p2475
I1
sVdnpaxht
p2476
I1
sVdmzivga
p2477
I2
sVcytt4jx
p2478
I3
sVd8zk6j6
p2479
I1
sVd27rdw4
p2480
I1
sVd6lq5rh
p2481
I1
sVdcjue00
p2482
I1
sVddgbpn7
p2483
I1
sVd07exrx
p2484
I1
sVdonz2f8
p2485
I1
sVdd3fgf8
p2486
I1
sVdpmu5sn
p2487
I1
sVdg2cv0v
p2488
I1
sVd0ntxro
p2489
I1
sVdir99kk
p2490
I2
sVdsdi08s
p2491
I1
sVd0tdciu
p2492
I1
sVczz3l4s
p2493
I1
sVdaf2v36
p2494
I3
sVdd7dr5q
p2495
I1
sVdglcacy
p2496
I2
sVd19530g
p2497
I1
sVdmh4lmi
p2498
I1
sVdh5wndm
p2499
I1
sVdf85kx4
p2500
I1
sVd871b58
p2501
I1
sVd43t3t0
p2502
I1
sVdgio4ze
p2503
I1
sVdr1wzm9
p2504
I1
sVdig1ugj
p2505
I1
sVcyktywf
p2506
I1
sVd91derl
p2507
I1
sVd19s8te
p2508
I1
sVdnsu9iu
p2509
I1
sVddi29ko
p2510
I1
sVd57cjes
p2511
I6
sVd4lw02y
p2512
I1
sVd2q4q55
p2513
I1
sVdsfehww
p2514
I1
sVdp7mewq
p2515
I1
sVdj4ekpx
p2516
I1
sVdacoht7
p2517
I1
sVd1yeaxe
p2518
I1
sVdiqqfo1
p2519
I1
sVdbzzzgf
p2520
I7
sVd05r5w3
p2521
I1
sVdmekfmc
p2522
I3
sVdhdi8j8
p2523
I1
sVd6hg1l7
p2524
I1
sVded4xin
p2525
I3
sVdjm6tyx
p2526
I1
sVdcxs5dm
p2527
I1
sVd4hq4ak
p2528
I1
sVdg0zsy7
p2529
I1
sVcyu3d36
p2530
I2
sVdjmjzud
p2531
I1
sVdapx70h
p2532
I1
sVd8erl22
p2533
I1
sVdkvcuxg
p2534
I1
sVdirsblq
p2535
I1
sVd2dxz6w
p2536
I1
sVdbqetjw
p2537
I1
sVdg3psrs
p2538
I1
sVd2pnfk5
p2539
I1
sVdj0iwgl
p2540
I2
sVdfcww1v
p2541
I4
sVd9ksirs
p2542
I1
sVdjtxhwn
p2543
I5
sVd8ve7ss
p2544
I1
sVdoi2hb4
p2545
I1
sVd8v5p76
p2546
I1
sVdsxbqbx
p2547
I2
sVdgpxym8
p2548
I1
sVcyu9b04
p2549
I1
sVdafa1li
p2550
I1
sVd150d8p
p2551
I1
sVcyl6f3y
p2552
I1
sVdrxnz95
p2553
I1
sVd9tssbq
p2554
I1
sVdien2ri
p2555
I1
sVdnmywil
p2556
I9
sVd60dub3
p2557
I1
sVdnjylck
p2558
I1
sVdb2uhmk
p2559
I1
sVd0bxmpr
p2560
I1
sVczhrskc
p2561
I4
sVdg898oi
p2562
I1
sVdaz1jop
p2563
I2
sVdrv0z8s
p2564
I1
sVdf668g0
p2565
I1
sVcyxxdj2
p2566
I1
sVdb08wl6
p2567
I1
sVdef5qkc
p2568
I4
sVd0tjaip
p2569
I2
sVczumdn3
p2570
I1
sVd1rgfoh
p2571
I8
sVd0ptzv6
p2572
I3
sVd4pdzxt
p2573
I1
sVd2cb3u7
p2574
I1
sVd0c2sm3
p2575
I1
sVdd5bjji
p2576
I1
sVd4yr9wq
p2577
I10
sVd1kpcjm
p2578
I1
sVdcrcdo9
p2579
I1
sVda80nyc
p2580
I1
sVd4tds87
p2581
I2
sVd235wgs
p2582
I2
sVdjoefnw
p2583
I1
sVd0zehp1
p2584
I2
sVdp6nebe
p2585
I1
sVcz1jz0t
p2586
I1
sVd8nge0a
p2587
I1
sVdcljs5s
p2588
I1
sVdhjm4cs
p2589
I3
sVdcjfjux
p2590
I1
sVdg8rwax
p2591
I1
sVd2lxqpc
p2592
I1
sVd4hljfe
p2593
I1
sVdi40tts
p2594
I1
sVdaqgqdu
p2595
I1
sVdfve9sf
p2596
I3
sVd03cygr
p2597
I4
sVdczmqdw
p2598
I1
sVcz1frdc
p2599
I1
sVd181u3o
p2600
I1
sVdeme5z0
p2601
I3
sVd7npnlz
p2602
I1
sVd2oucha
p2603
I1
sVdqntk3i
p2604
I1
sVcyzuor1
p2605
I2
sVdesvht4
p2606
I2
sVd520806
p2607
I1
sVdafc0lp
p2608
I1
sVdd0zxyk
p2609
I1
sVdr5o1ik
p2610
I1
sVdd1urcl
p2611
I1
sVcyqe6ao
p2612
I2
sVdetmapm
p2613
I4
sVd7pep1w
p2614
I1
sVdkutmls
p2615
I1
sVddi4xmc
p2616
I4
sVdmgg56b
p2617
I1
sVdnujk8q
p2618
I1
sVdhrucjz
p2619
I1
sVd1duuo1
p2620
I1
sVdiik0wn
p2621
I1
sVda0gbnf
p2622
I2
sVdmxbs67
p2623
I1
sVdnpyujy
p2624
I1
sVdfryc2g
p2625
I1
sVcyrdhqn
p2626
I1
sVdjc66kk
p2627
I1
sVdp6kbtf
p2628
I1
sVdt4gd53
p2629
I2
sVdbiojuf
p2630
I1
sVcyv8f20
p2631
I4
sVd18tsbb
p2632
I1
sVdku235u
p2633
I1
sVdjb3bei
p2634
I1
sVdrb5ebx
p2635
I1
sVdakwvdc
p2636
I1
sVdpk3h6q
p2637
I1
sVdfk45rf
p2638
I2
sVd3x3j8x
p2639
I1
sVdk6w73g
p2640
I1
sVd6knwv8
p2641
I3
sVdofo5ua
p2642
I4
sVcyj6b4z
p2643
I1
sVdimk6cp
p2644
I1
sVdjo9kdx
p2645
I1
sVde69ff3
p2646
I3
sVd7rnvy9
p2647
I2
sVdbu1h5l
p2648
I2
sVd9lc07s
p2649
I1
sVd27dnif
p2650
I1
sVdpx86xh
p2651
I1
sVczc20oy
p2652
I1
sVdnd4bqx
p2653
I1
sVd04mslm
p2654
I1
sVd2fd35h
p2655
I1
sVdpc4umg
p2656
I1
sVdtev6zg
p2657
I1
sVd9214hy
p2658
I1
sVd1meisg
p2659
I2
sVd7yn6mv
p2660
I1
sVdaeaev3
p2661
I1
sVdpz9zkg
p2662
I1
sVdqdawqo
p2663
I2
sVdcpuqtf
p2664
I2
sVdc1twzi
p2665
I1
sVdeo2lof
p2666
I4
sVd9vg5mt
p2667
I1
sVdfk6hz4
p2668
I1
sVdgtn9p6
p2669
I1
sVds0045i
p2670
I2
sVdfapmdi
p2671
I1
sVd2vdvtd
p2672
I1
sVd87ib7g
p2673
I2
sVd8f5ge6
p2674
I1
sVdbz5mt4
p2675
I1
sVdcpai0s
p2676
I1
sVdp3sx2m
p2677
I10
sVdawcndv
p2678
I1
sVdhtby8s
p2679
I1
sVdbclf09
p2680
I1
sVdccbhmh
p2681
I1
sVd5bq1vj
p2682
I1
sVdnxttgn
p2683
I1
sVdjyfbtv
p2684
I1
sVdcxffu5
p2685
I1
sVdgrxd27
p2686
I1
sVd8967d0
p2687
I1
sVdaqnrfc
p2688
I1
sVd59aqup
p2689
I1
sVd7wzz80
p2690
I1
sVd52iblh
p2691
I10
sVdri4b91
p2692
I1
sVdk02sz1
p2693
I1
sVda3s7ar
p2694
I1
sVd8pbwx8
p2695
I1
sVd0jljpd
p2696
I1
sVd3jq3ge
p2697
I1
sVdkwou3m
p2698
I1
sVd8hw6x2
p2699
I1
sVd0oo4u9
p2700
I2
sVd6ok71w
p2701
I1
sVczzxmqn
p2702
I1
sVdhujdwg
p2703
I2
sVd2ltm3q
p2704
I1
sVdakhik7
p2705
I5
sVd3wmzom
p2706
I1
sVddoarvs
p2707
I1
sVcyr32qx
p2708
I1
sVdphipk8
p2709
I2
sVcz3q2gi
p2710
I1
sVdqbz4rb
p2711
I1
sVdt5u8q7
p2712
I1
sVdebl0o3
p2713
I1
sVdp4yn7u
p2714
I2
sVdrgv0r5
p2715
I1
sVd4sk8c0
p2716
I1
sVdira81m
p2717
I2
sVd65b5xk
p2718
I1
sVdh6ndtv
p2719
I1
sVd43t1sg
p2720
I1
sVd0ozbu2
p2721
I1
sVdfs6xg5
p2722
I1
sVds5bmj5
p2723
I1
sVd1q6p8d
p2724
I10
sVd4hpy9j
p2725
I15
sVdpvqrge
p2726
I1
sVdb13cuy
p2727
I1
sVd883i7w
p2728
I1
sVd9i417n
p2729
I1
sVdnww2lr
p2730
I1
sVcytx3u5
p2731
I1
sVdmwoem9
p2732
I1
sVdjdrlcx
p2733
I1
sVdcb4spo
p2734
I2
sVd2s9lzj
p2735
I1
sVde8cfqn
p2736
I1
sVd97kr1s
p2737
I2
sVd3y46bh
p2738
I1
sVcz6e0zi
p2739
I1
sVdmjbiys
p2740
I3
sVdrlzbwq
p2741
I1
sVdpjr90c
p2742
I1
sVd5kwja2
p2743
I1
sVd60s1tk
p2744
I1
sVdb6sqxo
p2745
I1
sVd7zjznb
p2746
I1
sVd9al3d8
p2747
I2
sVd0i4eui
p2748
I1
sVdmr25y6
p2749
I1
sVdeah688
p2750
I7
sVd23dsol
p2751
I1
sVdq2e2ub
p2752
I1
sVdt0io85
p2753
I1
sVd6o9wej
p2754
I1
sVdd5dme5
p2755
I3
sVdkzeh99
p2756
I5
sVdjc0yw0
p2757
I1
sVdip13gq
p2758
I1
sVdcrr3jd
p2759
I1
sVcyqcko8
p2760
I1
sVdhqsw7l
p2761
I1
sVd3ugct4
p2762
I2
sVdd2bsyo
p2763
I1
sVdkjqp6c
p2764
I1
sVdcyu374
p2765
I1
sVcyx88fm
p2766
I1
sVdiyr0kd
p2767
I1
sVd7rqj0a
p2768
I5
sVdag07k8
p2769
I1
sVddf73a7
p2770
I1
sVdn0x17d
p2771
I2
sVdf8u3s4
p2772
I1
sVdj29xjo
p2773
I1
sVdedlfh0
p2774
I4
sVcynx1tm
p2775
I1
sVddtb30c
p2776
I1
sVd1duthn
p2777
I1
sVdj8gu1b
p2778
I1
sVcynymlq
p2779
I3
sVczbr3is
p2780
I2
sVd093qz8
p2781
I1
sVdfbsyz6
p2782
I1
sVdprsgxv
p2783
I2
sVdedoxzy
p2784
I1
sVczxk318
p2785
I1
sVd5w574m
p2786
I1
sVdbwpr6m
p2787
I2
sVd2hfpsh
p2788
I1
sVdbjvugx
p2789
I1
sVdd25tsm
p2790
I1
sVd2apxbd
p2791
I1
sVd9139kn
p2792
I1
sVdtfm81h
p2793
I3
sVd5ii2sl
p2794
I1
sVdop1wsl
p2795
I1
sVdb3hgcx
p2796
I1
sVdj0p09o
p2797
I1
sVd00ttub
p2798
I1
sVdmzs9fi
p2799
I1
sVdk84od8
p2800
I1
sVd4ud73c
p2801
I1
sVdqzfq0g
p2802
I1
sVdol8b4p
p2803
I1
sVd1c2tgh
p2804
I1
sVdqcvok0
p2805
I1
sVd9b3bi3
p2806
I1
sVdeswprl
p2807
I2
sVd7bmb6e
p2808
I1
sVcz0o749
p2809
I1
sVcz7eeoj
p2810
I1
sVdicapgb
p2811
I1
sVdddfpxu
p2812
I1
sVdoltu1r
p2813
I1
sVd8h6rln
p2814
I1
sVdjwi9cs
p2815
I1
sVd2xja9q
p2816
I1
sVddnrscw
p2817
I1
sVd5jq8ap
p2818
I1
sVcz2nj2e
p2819
I1
sVdfwlj57
p2820
I1
sVde69gt7
p2821
I1
sVd9zy27h
p2822
I2
sVdrsfuef
p2823
I1
sVdj4hlap
p2824
I1
sVd33640t
p2825
I1
sVda81pls
p2826
I3
sVdmn1nx6
p2827
I1
sVdk3eaf0
p2828
I1
sVdhidijz
p2829
I1
sVdhzckem
p2830
I1
sVdhrhfjy
p2831
I1
sVd6m2h0g
p2832
I1
sVddat755
p2833
I2
sVcz5g47s
p2834
I1
sVd2ct8qh
p2835
I3
sVdis89gl
p2836
I1
sVdbyures
p2837
I1
sVdkxpzbx
p2838
I1
sVdavwlg9
p2839
I1
sVd0nkqwf
p2840
I5
sVd7trgtl
p2841
I1
sVd3bmncf
p2842
I1
sVdkt2bgl
p2843
I1
sVd3r47us
p2844
I1
sVdfui901
p2845
I1
sVd7cmk0c
p2846
I1
sVdd8670j
p2847
I1
sVdsid5fu
p2848
I1
sVd2ev89x
p2849
I1
sVda1q5om
p2850
I1
sVddqyqsi
p2851
I2
sVd5fa2ln
p2852
I1
sVdeno4uc
p2853
I1
sVd3djiaj
p2854
I1
sVdr0lz1o
p2855
I1
sVd2vhbr4
p2856
I1
sVddcc59c
p2857
I3
sVd6lvjbv
p2858
I1
sVdguurqo
p2859
I1
sVd9gx8dj
p2860
I1
sVcz44ug5
p2861
I1
sVdpv39yy
p2862
I1
sVdrvk8fg
p2863
I1
sVd5yfqsp
p2864
I1
sVdgezo5x
p2865
I1
sVd3miyer
p2866
I1
sVdjortx6
p2867
I1
sVd542wfk
p2868
I4
sVd6ugyz3
p2869
I1
sVdnjbiq1
p2870
I4
sVd1z1l9g
p2871
I1
sVd5w8d8u
p2872
I4
sVdtjo11q
p2873
I1
sVdch2qvw
p2874
I1
sVcztcgib
p2875
I1
sVd4z0xkz
p2876
I1
sVdhn6xh0
p2877
I1
sVd5q0fh8
p2878
I1
sVd9luz6l
p2879
I1
sVd6fm55v
p2880
I1
sVd3o9ddi
p2881
I1
sVd2tobgq
p2882
I1
sVdpcyo7b
p2883
I1
sVdo2kcf2
p2884
I1
sVdqcgk3p
p2885
I1
sVd2t6h4d
p2886
I1
sVd61sljg
p2887
I1
sVczlybgr
p2888
I1
sVd87uyux
p2889
I1
sVdg34opt
p2890
I1
sVdk84tqv
p2891
I1
sVd2jafvi
p2892
I1
sVdofriyg
p2893
I1
sVd891ah2
p2894
I1
sVdil4fqd
p2895
I1
sVczyb3zl
p2896
I1
sVddtiidg
p2897
I1
sVd39nzr2
p2898
I1
sVd3fiq5t
p2899
I1
sVdqk2br4
p2900
I1
sVd6jg4v0
p2901
I1
sVczpmo1k
p2902
I1
sVd577uu4
p2903
I1
sVde17za3
p2904
I1
sVdd15565
p2905
I1
sVdnl6ycs
p2906
I1
sVd2dk5n2
p2907
I1
sVdclykul
p2908
I1
sVd7w5cp6
p2909
I1
sVdpqzx7i
p2910
I1
sVd5n9vt6
p2911
I1
sVdhbmnua
p2912
I1
sVdaarfty
p2913
I1
sVdqgsi16
p2914
I1
sVd09t6g7
p2915
I3
sVd6bxinx
p2916
I1
sVdk95q3m
p2917
I1
sVd8u45xa
p2918
I1
sVd1bwvg7
p2919
I2
sVczxnrzp
p2920
I5
sVdh3d14m
p2921
I1
sVd0epsv4
p2922
I1
sVd2nfmwa
p2923
I1
sVdilarp3
p2924
I1
sVdmwctj1
p2925
I1
sVczmfihq
p2926
I1
sVd3ezw27
p2927
I1
sVddst9z8
p2928
I1
sVdhwi3g8
p2929
I1
sVdog33pj
p2930
I1
sVcz6idb8
p2931
I2
sVddq0y47
p2932
I3
sVd07697a
p2933
I1
sVdemh6gc
p2934
I1
sVdf0gdxj
p2935
I2
sVd0226ty
p2936
I1
sVd18rd2o
p2937
I1
sVdf1wtwi
p2938
I1
sVdkk85gz
p2939
I1
sVdpmc0bw
p2940
I1
sVd76f1qw
p2941
I2
sVczgzl7s
p2942
I1
sVd8ffzno
p2943
I5
sVd3wrq08
p2944
I1
sVdkkj3vm
p2945
I1
sVdawprs1
p2946
I1
sVdpue9ob
p2947
I1
sVd8xu1kr
p2948
I1
sVdepflon
p2949
I2
sVd3e2jfx
p2950
I2
sVdpvoc1o
p2951
I3
sVd544a5q
p2952
I8
sVdfzsiqh
p2953
I1
sVdjoqfqm
p2954
I2
sVde3jkx8
p2955
I1
sVd9y4nys
p2956
I2
sVdjzyrn9
p2957
I1
sVdgmma4u
p2958
I5
sVd8v7qnj
p2959
I1
sVd9mm9xx
p2960
I3
sVd3yyut8
p2961
I3
sVd3htzdz
p2962
I1
sVd06vbz5
p2963
I2
sVdg2p0f7
p2964
I1
sVdh1la5o
p2965
I1
sVdhlqp75
p2966
I1
sVd4kyj07
p2967
I1
sVdglc4g8
p2968
I1
sVdb8q46m
p2969
I1
sVde8injq
p2970
I2
sVddux50h
p2971
I1
sVcz1zzp2
p2972
I5
sVdrjl25i
p2973
I3
sVdfsc0u8
p2974
I1
sVdbphb7w
p2975
I1
sVd9r6t9x
p2976
I2
sVdh67pv6
p2977
I1
sVdap6k8e
p2978
I1
sVdf8t5he
p2979
I1
sVd39o6ey
p2980
I1
sVcz3loht
p2981
I1
sVd1ssz3n
p2982
I1
sVdewgvzv
p2983
I1
sVd6qgzoc
p2984
I3
sVda2gvlz
p2985
I2
sVdjyrvrz
p2986
I3
sVd0x6dmw
p2987
I1
sVdcrv31v
p2988
I2
sVdjy8byw
p2989
I1
sVd81yevg
p2990
I3
sVdt3ugi5
p2991
I1
sVdaj4250
p2992
I1
sVd0g4d89
p2993
I1
sVdjd00m4
p2994
I1
sVdienz8e
p2995
I5
sVdfle80k
p2996
I1
sVcyvmjlk
p2997
I1
sVcyjhv6t
p2998
I1
sVdeh6bvs
p2999
I1
sVd174whl
p3000
I8
sVd2px7vn
p3001
I1
sVddn4e4g
p3002
I2
sVd7mh2ra
p3003
I1
sVdmzupbs
p3004
I1
sVdaia3d6
p3005
I6
sVd6orzwn
p3006
I6
sVdaisj4l
p3007
I1
sVd48qgvt
p3008
I1
sVdjbkor7
p3009
I1
sVd73xw5d
p3010
I1
sVdg16urk
p3011
I1
sVdemj9eo
p3012
I1
sVd8cbos3
p3013
I2
sVds595ne
p3014
I1
sVdnedk1k
p3015
I1
sVcylo2uq
p3016
I3
sVd7oeldg
p3017
I1
sVdbt33si
p3018
I1
sVdf4h52u
p3019
I1
sVdihl7go
p3020
I1
sVcyz0b3r
p3021
I1
sVd070f0w
p3022
I1
sVd5c49o8
p3023
I1
sVd1pko7g
p3024
I1
sVdgnon64
p3025
I1
sVd1gvi2t
p3026
I2
sVd1qg63d
p3027
I1
sVdcjxrz5
p3028
I1
sVdhzniny
p3029
I1
sVd0ay59e
p3030
I1
sVd5ph137
p3031
I1
sVcyphljl
p3032
I1
sVd4d3xxa
p3033
I1
sVd6gffqs
p3034
I1
sVd95aqmm
p3035
I7
sVdi41wgs
p3036
I1
sVda42hld
p3037
I1
sVdkoleaj
p3038
I1
sVcz9aebm
p3039
I4
sVdhaudfj
p3040
I1
sVdi8b4te
p3041
I1
sVczrf6xj
p3042
I1
sVd7c8h4w
p3043
I1
sVdgy5hko
p3044
I1
sVd03myr4
p3045
I1
sVd0qb0e4
p3046
I1
sVdjqzb34
p3047
I1
sVczn0pkb
p3048
I2
sVdexjeap
p3049
I1
sVdqbh5cg
p3050
I1
sVdg4669f
p3051
I1
sVddgo3w3
p3052
I1
sVd9e09wg
p3053
I1
sVd52kh7u
p3054
I4
sVdhv7p6r
p3055
I2
sVdnq9s57
p3056
I1
sVdn1qvo7
p3057
I4
sVd5gpemr
p3058
I1
sVd1ldhpr
p3059
I1
sVd5a0nak
p3060
I3
sVdf69djt
p3061
I1
sVd6o2j8q
p3062
I1
sVd6vwwly
p3063
I8
sVddetz24
p3064
I1
sVdfwq24d
p3065
I1
sVd5t3kn5
p3066
I2
sVd62latc
p3067
I1
sVd2uzp9h
p3068
I1
sVdjos05g
p3069
I1
sVdcbzhz5
p3070
I1
sVd6ueo7j
p3071
I1
sVdep6g8u
p3072
I2
sVdrf6fu4
p3073
I1
sVdhjg5t3
p3074
I3
sVd3a9asi
p3075
I1
sVdkv41gv
p3076
I1
sVd2a9iml
p3077
I1
sVd05uia5
p3078
I4
sVdpfqmfn
p3079
I1
sVdjtn7b2
p3080
I10
sVdjxtlhh
p3081
I5
sVdd3x3q4
p3082
I1
sVdgu9ri9
p3083
I1
sVdo96cun
p3084
I1
sVdn8yd0w
p3085
I1
sVday8dij
p3086
I1
sVcyut9j0
p3087
I1
sVd01crmo
p3088
I1
sVd7crgxj
p3089
I1
sVd8u2byy
p3090
I1
sVd3x36bb
p3091
I5
sVd5q7xl2
p3092
I1
sVdii37w7
p3093
I1
sVd3w6pqn
p3094
I1
sVdfifhyz
p3095
I1
sVdpuow81
p3096
I1
sVd5454hz
p3097
I1
sVcz9of4c
p3098
I1
sVdn39kdw
p3099
I1
sVdbriato
p3100
I1
sVdq9yvtl
p3101
I1
sVde2fx01
p3102
I1
sVdhdczg7
p3103
I1
sVdcpzlva
p3104
I1
sVdi2a6gp
p3105
I1
sVds2gwd2
p3106
I1
sVczjvoou
p3107
I1
sVdei1s8r
p3108
I1
sVdkp62z8
p3109
I1
sVd34tban
p3110
I1
sVdqir4im
p3111
I1
sVd9ytvfh
p3112
I1
sVdchk37l
p3113
I1
sVdqzn2dl
p3114
I1
sVd1kx87r
p3115
I2
sVdbnffp0
p3116
I1
sVd2kozpi
p3117
I1
sVdjtmtmg
p3118
I4
sVdcsfncc
p3119
I2
sVd8i5qlb
p3120
I2
sVdo51u5n
p3121
I1
sVdekguy3
p3122
I1
sVdgbnjp1
p3123
I2
sVdax1w42
p3124
I1
sVd6rlban
p3125
I3
sVd2tecap
p3126
I55
sVd7ceyy6
p3127
I1
sVd4w9xs7
p3128
I1
sVdom2hvg
p3129
I1
sVd1s9blr
p3130
I1
sVdf0h36y
p3131
I1
sVd4akh7t
p3132
I2
sVdg2ojjg
p3133
I1
sVd3h9f17
p3134
I2
sVdgfv3k0
p3135
I1
sVcz3vy3b
p3136
I2
sVd5eozs9
p3137
I2
sVd2415sa
p3138
I2
sVczwrx18
p3139
I1
sVdb7lqo0
p3140
I1
sVd008inj
p3141
I1
sVd4115l0
p3142
I1
sVdkiavu2
p3143
I1
sVdtegp5m
p3144
I1
sVd1h6ecm
p3145
I1
sVdsvljsr
p3146
I1
sVd3qwm0i
p3147
I1
sVdojd5j8
p3148
I1
sVdnu2dza
p3149
I1
sVd3dddk9
p3150
I1
sVdmf6pp4
p3151
I1
sVdhfwqgx
p3152
I1
sVd3uffif
p3153
I2
sVdgiiwfb
p3154
I5
sVd0350bn
p3155
I1
sVdrl4odb
p3156
I1
sVd5g2gix
p3157
I1
sVdpjf7zp
p3158
I1
sVd2qaunl
p3159
I3
sVdn2c5co
p3160
I1
sVd0zcsi5
p3161
I1
sVdmnny62
p3162
I1
sVdf6gv27
p3163
I2
sVdmnun70
p3164
I1
sVczz9umm
p3165
I1
sVdfwy2sd
p3166
I1
sVdrqvjep
p3167
I1
sVdr5ttjj
p3168
I2
sVde2mbdx
p3169
I1
sVdg2c99g
p3170
I6
sVdjj1tuf
p3171
I1
sVczu17qx
p3172
I1
sVdmuehl7
p3173
I1
sVd47oo5t
p3174
I1
sVd2zgegh
p3175
I1
sVd2rgfdt
p3176
I1
sVdfn9err
p3177
I1
sVd43bepe
p3178
I1
sVdjox74f
p3179
I1
sVd3x5xi6
p3180
I1
sVddnmmd9
p3181
I1
sVcyn92yk
p3182
I1
sVd9realu
p3183
I1
sVdgrkmhw
p3184
I1
sVdci7q83
p3185
I1
sVcz0jg6d
p3186
I1
sVd9xa98j
p3187
I1
sVd8d0726
p3188
I1
sVd2q7qbe
p3189
I2
sVdjlmcq8
p3190
I1
sVdmlol7h
p3191
I1
sVdpvaoui
p3192
I1
sVdrz7tbj
p3193
I1
sVd7he242
p3194
I5
sVd7z9s4k
p3195
I2
sVdhcs1ld
p3196
I2
sVdhr7azi
p3197
I1
sVdpqwhuz
p3198
I1
sVdmmdumy
p3199
I1
sVcytvymj
p3200
I1
sVdckajdf
p3201
I1
sVcz5hpk2
p3202
I1
sVdffmxb1
p3203
I1
sVdnjbzh3
p3204
I7
sVd8t55zf
p3205
I1
sVd3ql6rc
p3206
I4
sVd061668
p3207
I1
sVcyveag7
p3208
I1
sVddos16y
p3209
I1
sVdo0hs8q
p3210
I2
sVd06tcf9
p3211
I1
sVd9lhbtk
p3212
I1
sVd26s4wq
p3213
I2
sVdce80h4
p3214
I1
sVdjh9r0r
p3215
I1
sVdp4gw40
p3216
I1
sVd7sx4v1
p3217
I3
sVd59mz1t
p3218
I1
sVdduoq29
p3219
I1
sVd17xgdz
p3220
I1
sVdb2g68m
p3221
I2
sVdsr7drt
p3222
I1
sVdsuftcl
p3223
I1
sVd1gxapy
p3224
I1
sVd1asz3i
p3225
I1
sVd1yl1h3
p3226
I1
sVdeu9uxk
p3227
I1
sVdfyazb3
p3228
I1
sVd2e8zqw
p3229
I1
sVd6not23
p3230
I5
sVdfrr1cl
p3231
I1
sVd6nqk9r
p3232
I2
sVdez3le3
p3233
I1
sVdq365fa
p3234
I1
sVcytxda7
p3235
I1
sVdswyymn
p3236
I2
sVdpfaq6w
p3237
I1
sVdf83afo
p3238
I1
sVd6btkjd
p3239
I3
sVdmxuhnw
p3240
I1
sVdpf1b7h
p3241
I1
sVdf2utkg
p3242
I1
sVd5ycx3i
p3243
I1
sVd2o9xni
p3244
I1
sVdso67mj
p3245
I1
sVd54hwya
p3246
I1
sVdcexve4
p3247
I1
sVd2si2ln
p3248
I1
sVdg489mv
p3249
I1
sVdglwh6q
p3250
I1
sVdnabs7w
p3251
I2
sVdbq0xsw
p3252
I1
sVdoitgry
p3253
I1
sVd30rmo4
p3254
I1
sVd20oqzw
p3255
I1
sVd14h3js
p3256
I1
sVdtdqgmg
p3257
I1
sVdo3gtac
p3258
I1
sVdf9j5bv
p3259
I1
sVd9a5hwm
p3260
I1
sVd2bcsjp
p3261
I1
sVd4ymt4l
p3262
I1
sVd89mnls
p3263
I5
sVdoi5p34
p3264
I1
sVddtjbdy
p3265
I2
sVd38rhu3
p3266
I1
sVd2vl4sl
p3267
I2
sVd23ag2s
p3268
I1
sVdd83j3i
p3269
I1
sVd8au4a3
p3270
I1
sVddpyfp1
p3271
I1
sVd6te5th
p3272
I4
sVd047oxm
p3273
I1
sVd0db6dr
p3274
I1
sVddmsgnh
p3275
I2
sVdclksgu
p3276
I1
sVdbce8o8
p3277
I1
sVdnlo61x
p3278
I1
sVdjd1a3z
p3279
I1
sVdf6gntb
p3280
I1
sVd9h3q5m
p3281
I1
sVd62mrzf
p3282
I1
sVd0hlw04
p3283
I1
sVdrwlpha
p3284
I1
sVd71ifz8
p3285
I4
sVdhc5dio
p3286
I1
sVdb3zj6u
p3287
I1
sVdikk1hk
p3288
I1
sVdgur4k6
p3289
I1
sVdp93kdw
p3290
I1
sVdiwqjj5
p3291
I1
sVd38moae
p3292
I1
sVd61gtjf
p3293
I1
sVdf9sdyx
p3294
I1
sVdelglak
p3295
I1
sVdeb4sg2
p3296
I1
sVd7oo4fa
p3297
I1
sVdntxgso
p3298
I2
sVds9ca8c
p3299
I1
sVdnk9l1h
p3300
I2
sVd03fry8
p3301
I1
sVdifno2y
p3302
I1
sVdake7s3
p3303
I1
sVd4njbtc
p3304
I5
sVdfhfj1r
p3305
I1
sVdevwvkq
p3306
I2
sVcyiun9v
p3307
I1
sVdaevwe6
p3308
I1
sVdkergxt
p3309
I1
sVczf162h
p3310
I1
sVd5ie6vc
p3311
I1
sVd235wro
p3312
I2
sVczmsxj0
p3313
I1
sVdhl7vyn
p3314
I1
sVdqk5w8e
p3315
I1
sVdejj1dt
p3316
I1
sVdcvdwkp
p3317
I1
sVd7jx9iy
p3318
I1
sVdmjoknz
p3319
I1
sVd3v4xyt
p3320
I1
sVd4pnaa7
p3321
I1
sVcyu46l5
p3322
I1
sVd2ilpvj
p3323
I1
sVd1bzwwg
p3324
I2
sVcykmlpq
p3325
I2
sVd1k4hmg
p3326
I1
sVd6jz85t
p3327
I2
sVd1z0umv
p3328
I1
sVd7ozgpo
p3329
I1
sVdnk5vit
p3330
I1
sVd2fc6wf
p3331
I1
sVdncvxm7
p3332
I2
sVdq4kpac
p3333
I1
sVdqvhh0v
p3334
I1
sVd7ayczb
p3335
I1
sVdsl8fcq
p3336
I1
sVd0gsn26
p3337
I7
sVdjl2zyc
p3338
I1
sVdh4y7cq
p3339
I1
sVd2v49z8
p3340
I1
sVd9l2buy
p3341
I3
sVd9qcefm
p3342
I1
sVdgzurom
p3343
I1
sVd9cm7iq
p3344
I3
sVdc9lj7h
p3345
I2
sVd5fxtlg
p3346
I1
sVd2puhgt
p3347
I1
sVd4sx10a
p3348
I7
sVdeicmgv
p3349
I9
sVd4gcocm
p3350
I1
sVd1t2a02
p3351
I1
sVd7t11yr
p3352
I1
sVdt2ddkk
p3353
I1
sVd2qao1s
p3354
I1
sVdqbnoo4
p3355
I2
sVde9117l
p3356
I1
sVd8hys29
p3357
I1
sVdiylyb9
p3358
I3
sVd8ebhec
p3359
I1
sVd2rxagc
p3360
I1
sVdarm0tf
p3361
I1
sVd960756
p3362
I1
sVdbrqv9t
p3363
I1
sVdevp40u
p3364
I2
sVd6pxgnz
p3365
I8
sVdac9htt
p3366
I4
sVd2ieja4
p3367
I1
sVdae708w
p3368
I1
sVd7dr74n
p3369
I1
sVd8eypc2
p3370
I1
sVd01sz7x
p3371
I1
sVd59sbs7
p3372
I4
sVdsffu71
p3373
I1
sVd8ve8y6
p3374
I1
sVcztaoz9
p3375
I1
sVdcb9emo
p3376
I7
sVcyn0gst
p3377
I1
sVdmiqdul
p3378
I1
sVd6xwhhf
p3379
I1
sVd69wv29
p3380
I1
sVdkecf7u
p3381
I1
sVdaipjes
p3382
I1
sVd9lndt2
p3383
I1
sVd5m4u5u
p3384
I2
sVddasqbh
p3385
I3
sVd0zbidt
p3386
I4
sVdgn7ocp
p3387
I1
sVdctd5tk
p3388
I1
sVdqsn4y3
p3389
I1
sVdgvfufm
p3390
I1
sVdexsrl2
p3391
I1
sVddsn98j
p3392
I1
sVda1n6kr
p3393
I1
sVd7xh785
p3394
I1
sVd216xnd
p3395
I1
sVde1gsnb
p3396
I1
sVdbg2vg5
p3397
I1
sVd0tgbqj
p3398
I1
sVd0m4jn4
p3399
I1
sVdcugxuj
p3400
I1
sVd09almv
p3401
I2
sVddf8kgr
p3402
I1
sVdi09moa
p3403
I1
sVd4zrl88
p3404
I1
sVdhluwox
p3405
I1
sVdpdtold
p3406
I1
sVcz35fso
p3407
I2
sVddi9fne
p3408
I1
sVd6axd6p
p3409
I1
sVd6cm7ti
p3410
I1
sVdr2t9e5
p3411
I1
sVd7vcot6
p3412
I1
sVddndkhf
p3413
I1
sVd69eci4
p3414
I2
sVdafb4ox
p3415
I1
sVdchq8k5
p3416
I1
sVd5yyuj7
p3417
I2
sVd7d0qt0
p3418
I1
sVd6rnhhs
p3419
I2
sVd1vc3wq
p3420
I1
sVcymn8zs
p3421
I3
sVd4pw15k
p3422
I1
s.