(dp0
Vczjy907
p1
I1
s.(dp0
Vczjy907
p1
I2
s.(dp0
Vczjy907
p1
I1
sVczyvfc1
p2
I1
s.(dp0
Vczjy907
p1
I1
sVd048guh
p2
I1
s.(dp0
Vczjy907
p1
I1
sVd4d5v4a
p2
I1
s.(dp0
Vczjy907
p1
I1
sVd58fwk3
p2
I1
s.(dp0
Vczjy907
p1
I1
sVd5o8fj0
p2
I1
s.(dp0
Vczjy907
p1
I1
sVd6e5pda
p2
I1
s.(dp0
Vczjy907
p1
I1
sVd6e5pda
p2
I1
s.(dp0
Vczjy907
p1
I1
sVd6n4v7u
p2
I1
s.(dp0
Vczjy907
p1
I1
sVdame0jk
p2
I1
s.(dp0
Vczjy907
p1
I1
sVdb8cdux
p2
I1
s.(dp0
Vczjy907
p1
I1
sVdcuuy6j
p2
I1
s.(dp0
Vde7c1ze
p1
I1
sVczjy907
p2
I1
s.(dp0
Vczjy907
p1
I1
sVdgetnrf
p2
I1
s.(dp0
Vczjy907
p1
I1
sVdih5q38
p2
I1
s.(dp0
Vczjy907
p1
I1
sVdk0vyhb
p2
I1
s.(dp0
Vczjy907
p1
I1
sVdo6003x
p2
I1
s.(dp0
Vds7ha0d
p1
I1
sVczjy907
p2
I1
s.