(dp0
Vd2h6i8n
p1
I1
sVdjq96t1
p2
I1
sVdpno1mn
p3
I1
sVdes76zu
p4
I1
sVd3fkeg9
p5
I1
sVd387b0b
p6
I1
sVdntdbd7
p7
I1
sVdic1ecr
p8
I1
sVdntr468
p9
I1
sVdjn7gdc
p10
I1
sVd3hfgwi
p11
I1
sVdfd43z8
p12
I2
sVdnbuxzw
p13
I1
sVdhbbpn9
p14
I1
sVd4hak6p
p15
I1
sVddbef07
p16
I1
sVdmerr9j
p17
I1
sVd5x2we3
p18
I1
sVd3zpxsa
p19
I1
sVda4dbn1
p20
I1
sVczb1p7u
p21
I1
sVdboo0nu
p22
I1
sVdnsg7qj
p23
I1
sVcyzjy8h
p24
I1
sVd6iqx1l
p25
I3
sVdsudmnf
p26
I1
sVdit0gpc
p27
I1
sVd90sze9
p28
I1
sVddnaibr
p29
I1
sVdmv5g81
p30
I1
sVdga76zx
p31
I1
sVczt3457
p32
I1
sVd03aj1g
p33
I2
sVd32xfnt
p34
I1
sVdf7k1lw
p35
I1
sVdn9c3w0
p36
I1
sVdg3yi7r
p37
I2
sVd3mlalt
p38
I1
sVdjn6i26
p39
I1
sVd9g4wlg
p40
I1
sVd1n3la0
p41
I1
sVdkjqlu8
p42
I1
sVdbpp96h
p43
I1
sVcz76fv2
p44
I2
sVdkjy4ok
p45
I1
sVd3gi4oy
p46
I1
sVd5xjkur
p47
I1
sVdkxlbtq
p48
I1
sVd2w4ibr
p49
I1
sVdbcp9hc
p50
I1
sVdbglamg
p51
I1
sVdft9o13
p52
I1
sVdn13zin
p53
I2
sVd5b1bld
p54
I1
sVdi71m0m
p55
I1
sVdtibrqs
p56
I1
sVdbnhfpc
p57
I2
sVdatnbv3
p58
I1
sVdn9l57x
p59
I1
sVdo94f8f
p60
I1
sVdfgcckp
p61
I1
sVdjnik15
p62
I1
sVcyufkuv
p63
I1
sVczkskec
p64
I1
sVd6ai92b
p65
I1
sVd47cz1w
p66
I1
sVdb5jblk
p67
I1
sVdij4583
p68
I1
sVd7qxy7b
p69
I1
sVd2d5i5g
p70
I1
sVdkx8qho
p71
I1
sVdmuew6o
p72
I1
sVcyujb7c
p73
I1
sVd7tnjux
p74
I1
sVcz0l34r
p75
I1
sVd1q6uf8
p76
I1
sVde9aw4k
p77
I1
sVdev633e
p78
I1
sVdbq4ltu
p79
I1
sVczm6izy
p80
I1
sVczqufua
p81
I1
sVczq63v9
p82
I1
sVd1q10cr
p83
I1
sVdi0whef
p84
I1
sVcze73w1
p85
I1
sVd550skq
p86
I1
sVdpack6r
p87
I1
sVdi7a16j
p88
I1
sVd6zetw0
p89
I1
sVdfm6hqf
p90
I1
sVd2ylu45
p91
I1
sVd3qusia
p92
I1
sVdc3y6z0
p93
I1
sVdgbeqxq
p94
I3
sVd0sdp7x
p95
I1
sVczxzo0u
p96
I1
sVd0gstxr
p97
I1
sVd5o7s57
p98
I1
sVd6ttbxx
p99
I1
sVd0uvfqe
p100
I1
sVd7p57zz
p101
I3
sVcyku4i1
p102
I1
sVd18q68e
p103
I1
sVdpoxa5r
p104
I1
sVd1816xf
p105
I1
sVd9235cs
p106
I1
sVde4q8lx
p107
I2
sVdei6v36
p108
I1
sVd2qa5cp
p109
I1
sVd115654
p110
I1
sVd49oxmt
p111
I1
sVd0y9tw9
p112
I1
sVdg8hy96
p113
I1
sVd10f4mr
p114
I1
sVdethivy
p115
I1
sVdpaz8st
p116
I1
sVdi33270
p117
I1
sVdgh97ta
p118
I1
sVdrbzvk2
p119
I1
sVdf0wbw6
p120
I1
sVdiwf2j2
p121
I1
sVdhbhi2f
p122
I1
sVd2bfwb2
p123
I1
sVd0rtbr4
p124
I2
sVdnj73iz
p125
I1
sVdj4weo1
p126
I1
sVdoypexy
p127
I1
sVdez27mn
p128
I1
sVd6ui6uh
p129
I3
sVdf3azzo
p130
I1
sVdqhsipf
p131
I1
sVcze8jmc
p132
I1
sVd94qltt
p133
I1
sVda7wfgi
p134
I2
sVd5wjx2m
p135
I1
sVdmztm55
p136
I1
sVdc70j3o
p137
I1
sVd8rb4u6
p138
I2
sVczyb3zl
p139
I1
sVddxwzyn
p140
I1
sVd0rotnu
p141
I1
sVddnl0bk
p142
I1
sVd69234l
p143
I2
sVdmvabm0
p144
I1
sVdgy6rsj
p145
I1
sVdjff7dg
p146
I1
sVdmgrcb3
p147
I1
sVd2qon6z
p148
I1
sVdi6r6u7
p149
I1
sVd0nglon
p150
I1
sVcyn6gk9
p151
I1
sVd2y2cee
p152
I1
sVd2svmmc
p153
I1
sVdmrx07j
p154
I1
sVdqo8u3q
p155
I1
sVd4j2aub
p156
I1
sVd5xs8u6
p157
I1
sVd6lh4a0
p158
I1
sVdpoat0y
p159
I1
sVdao0uq2
p160
I1
sVd0r6oxy
p161
I1
sVd6k3gok
p162
I1
sVcz7e5hh
p163
I1
sVd0gxy8u
p164
I1
sVd3willz
p165
I1
sVdegtsk2
p166
I1
sVd272cyt
p167
I2
sVdjj5e58
p168
I1
sVdak9cs3
p169
I1
sVdg5l0b9
p170
I1
sVd37kyvq
p171
I1
sVdibqk3d
p172
I1
sVd1voaef
p173
I1
sVczgxhw1
p174
I1
sVdef1qki
p175
I1
sVd0z5qmu
p176
I1
sVd03ar0b
p177
I1
sVdij0zr7
p178
I1
sVdidxfq8
p179
I1
sVdr0j8cz
p180
I1
sVcyqueyk
p181
I1
sVdqvl3jd
p182
I1
sVd5ihhsm
p183
I1
sVd3t6xmo
p184
I1
sVdf0ybsz
p185
I2
sVdotmfbv
p186
I2
sVdpuvxq9
p187
I4
sVdrcxx4a
p188
I1
sVcyzif23
p189
I1
sVd8ufncx
p190
I2
sVdpus8nm
p191
I2
sVdkarjnf
p192
I1
sVddt3gcp
p193
I1
sVdo0sj4i
p194
I1
sVdkftwny
p195
I1
sVdiqquqs
p196
I2
sVd03ybey
p197
I2
sVd9ftuap
p198
I1
sVd80basd
p199
I1
sVd5kaues
p200
I1
sVd0s0p9h
p201
I1
sVdk4yhef
p202
I1
sVdrd6nrf
p203
I3
sVd57wljn
p204
I1
sVcyy783u
p205
I1
sVd6u7ak9
p206
I1
sVd0tlqdz
p207
I1
sVddwbyrc
p208
I1
sVd1hzhnc
p209
I4
sVdr2dihv
p210
I1
sVd1qdpz7
p211
I1
sVdgywqzj
p212
I1
sVd7ypwhx
p213
I1
sVde5fail
p214
I1
sVd97lhp8
p215
I1
sVdf8989m
p216
I1
sVdjnqcxy
p217
I1
sVdjrvytv
p218
I1
sVdhy327x
p219
I1
sVdmhpdha
p220
I1
sVdmvxpr2
p221
I1
sVd3l0rmv
p222
I1
sVdgivix2
p223
I1
sVdrpe6h1
p224
I1
sVd0fn12f
p225
I1
sVd12lbzz
p226
I1
sVdd3um9v
p227
I1
sVdkxfwwv
p228
I1
sVd358lr7
p229
I2
sVd49mltv
p230
I1
sVdrrpfif
p231
I1
sVdnnjpld
p232
I1
sVd7o4tsg
p233
I2
sVdjnolo5
p234
I6
sVd8lwx8d
p235
I1
sVcz141o6
p236
I2
sVdd3byjk
p237
I2
sVdhuzgfj
p238
I1
sVd54y7m7
p239
I2
sVd2jivd8
p240
I1
sVd0o94w9
p241
I1
sVdk95w4d
p242
I1
sVd4ekbt8
p243
I1
sVd3apt2f
p244
I1
sVdcjavvo
p245
I1
sVdc3lm6d
p246
I1
sVd71luta
p247
I1
sVd4gv9s2
p248
I1
sVd6wnumi
p249
I1
sVdkf5iux
p250
I1
s.