(dp0
Vd9cr9t8
p1
I1
sVd21qrww
p2
I1
sVd2p8sp3
p3
I1
sVd8346z0
p4
I1
sVdeootzc
p5
I1
sVd05mp82
p6
I1
sVd1dc6tk
p7
I1
sVd3jrw31
p8
I1
sVdicciqv
p9
I1
sVd50m1hq
p10
I1
sVdtdt8bm
p11
I6
sVdbmxauw
p12
I1
sVd0nvzgy
p13
I1
sVd30nwn7
p14
I2
sVd31dvrx
p15
I1
sVddnpmca
p16
I1
sVd9b756o
p17
I1
sVdez0cxv
p18
I2
sVdj8nop5
p19
I1
sVdmvliz8
p20
I5
sVdjoa5w2
p21
I1
sVczol5mq
p22
I1
sVdf5dqbe
p23
I1
sVdkrzf0x
p24
I1
sVdo2r450
p25
I1
sVd61m9z4
p26
I1
sVd46djrw
p27
I1
sVd48bugu
p28
I1
sVdcl6beh
p29
I2
sVd97cwax
p30
I1
sVd679kgc
p31
I1
sVd9ftvdq
p32
I1
sVdtdsuhr
p33
I2
sVd40lcnj
p34
I1
sVdci4izi
p35
I1
sVcynqmdt
p36
I1
sVd1xzqwz
p37
I1
sVd1qvgex
p38
I1
sVd679omk
p39
I1
sVdg1nx14
p40
I1
sVd2pymtg
p41
I1
sVditjroi
p42
I1
sVdr2yl1o
p43
I1
sVdd4b67q
p44
I1
sVd2eqjzx
p45
I1
sVdi6q3fe
p46
I1
sVd5drdqq
p47
I1
sVdevk7rg
p48
I2
sVd7ke59k
p49
I1
sVdg7ere3
p50
I1
sVdcl2vjm
p51
I1
sVd3yqbqj
p52
I2
sVd0tng8s
p53
I1
sVd7i1nm1
p54
I1
sVdpjldw1
p55
I1
sVd86udw3
p56
I1
sVdtho007
p57
I1
sVdhrk7oy
p58
I1
sVdg048me
p59
I1
sVdcl5fga
p60
I1
sVdk6is5j
p61
I1
sVdtdsmlp
p62
I1
sVdnaq4oc
p63
I1
sVdi3sdad
p64
I2
sVdho198r
p65
I1
sVdjkpu6u
p66
I1
sVd8gl7am
p67
I1
sVdagyzf2
p68
I1
sVd0nzdmy
p69
I2
sVd26l8vq
p70
I1
sVdf6iv1g
p71
I1
sVdg04vcx
p72
I1
sVdafjiul
p73
I1
sVd1lrce2
p74
I5
sVd75jnj5
p75
I1
sVd3btztq
p76
I2
sVd21npu9
p77
I1
sVddg883x
p78
I1
sVdmvkuwc
p79
I1
sVdcitjbb
p80
I3
sVd2rhmwt
p81
I1
sVd8keqfl
p82
I1
sVd8g8g8g
p83
I1
sVdd9z0rk
p84
I1
sVdn8x777
p85
I1
sVd0h6ame
p86
I1
sVdics1x8
p87
I1
sVdk44sb2
p88
I1
sVdn39zok
p89
I1
sVdq4x6rz
p90
I1
sVd2qvkue
p91
I2
sVcyzz68e
p92
I1
sVdmvktm5
p93
I1
sVdraazai
p94
I1
sVd2p08y2
p95
I6
sVd5h57r1
p96
I1
sVd45zh79
p97
I1
sVde2lmb8
p98
I1
s.