(dp0
Vcynqmdt
p1
I1
s.(dp0
Vcyzz68e
p1
I1
sVcynqmdt
p2
I1
s.(dp0
Vcynqmdt
p1
I1
sVczol5mq
p2
I1
s.(dp0
Vcynqmdt
p1
I1
sVd05mp82
p2
I1
s.(dp0
Vd0h6ame
p1
I1
sVcynqmdt
p2
I1
s.(dp0
Vcynqmdt
p1
I1
sVd0nvzgy
p2
I1
s.(dp0
Vd0nzdmy
p1
I1
sVcynqmdt
p2
I1
s.(dp0
Vd0nzdmy
p1
I1
sVcynqmdt
p2
I1
s.(dp0
Vd0tng8s
p1
I1
sVcynqmdt
p2
I1
s.(dp0
Vd1dc6tk
p1
I1
sVcynqmdt
p2
I1
s.(dp0
Vcynqmdt
p1
I1
sVd1lrce2
p2
I1
s.(dp0
Vcynqmdt
p1
I1
sVd1lrce2
p2
I1
s.(dp0
Vcynqmdt
p1
I1
sVd1lrce2
p2
I1
s.(dp0
Vcynqmdt
p1
I1
sVd1lrce2
p2
I1
s.(dp0
Vcynqmdt
p1
I1
sVd1lrce2
p2
I1
s.(dp0
Vcynqmdt
p1
I1
sVd1qvgex
p2
I1
s.(dp0
Vcynqmdt
p1
I1
sVd1xzqwz
p2
I1
s.(dp0
Vd21npu9
p1
I1
sVcynqmdt
p2
I1
s.(dp0
Vd21qrww
p1
I1
sVcynqmdt
p2
I1
s.(dp0
Vcynqmdt
p1
I1
sVd26l8vq
p2
I1
s.(dp0
Vcynqmdt
p1
I1
sVd2eqjzx
p2
I1
s.(dp0
Vd2p08y2
p1
I1
sVcynqmdt
p2
I1
s.(dp0
Vd2p08y2
p1
I1
sVcynqmdt
p2
I1
s.(dp0
Vd2p08y2
p1
I1
sVcynqmdt
p2
I1
s.(dp0
Vd2p08y2
p1
I1
sVcynqmdt
p2
I1
s.(dp0
Vd2p08y2
p1
I1
sVcynqmdt
p2
I1
s.(dp0
Vd2p08y2
p1
I1
sVcynqmdt
p2
I1
s.(dp0
Vcynqmdt
p1
I1
sVd2p8sp3
p2
I1
s.(dp0
Vcynqmdt
p1
I1
sVd2pymtg
p2
I1
s.(dp0
Vcynqmdt
p1
I1
sVd2qvkue
p2
I1
s.(dp0
Vcynqmdt
p1
I1
sVd2qvkue
p2
I1
s.(dp0
Vcynqmdt
p1
I1
sVd2rhmwt
p2
I1
s.(dp0
Vcynqmdt
p1
I1
sVd30nwn7
p2
I1
s.(dp0
Vcynqmdt
p1
I1
sVd30nwn7
p2
I1
s.(dp0
Vcynqmdt
p1
I1
sVd31dvrx
p2
I1
s.(dp0
Vd3btztq
p1
I1
sVcynqmdt
p2
I1
s.(dp0
Vd3btztq
p1
I1
sVcynqmdt
p2
I1
s.(dp0
Vd3jrw31
p1
I1
sVcynqmdt
p2
I1
s.(dp0
Vcynqmdt
p1
I1
sVd3yqbqj
p2
I1
s.(dp0
Vcynqmdt
p1
I1
sVd3yqbqj
p2
I1
s.(dp0
Vcynqmdt
p1
I1
sVd40lcnj
p2
I1
s.(dp0
Vd45zh79
p1
I1
sVcynqmdt
p2
I1
s.(dp0
Vcynqmdt
p1
I1
sVd46djrw
p2
I1
s.(dp0
Vd48bugu
p1
I1
sVcynqmdt
p2
I1
s.(dp0
Vd50m1hq
p1
I1
sVcynqmdt
p2
I1
s.(dp0
Vd5drdqq
p1
I1
sVcynqmdt
p2
I1
s.(dp0
Vcynqmdt
p1
I1
sVd5h57r1
p2
I1
s.(dp0
Vd61m9z4
p1
I1
sVcynqmdt
p2
I1
s.(dp0
Vcynqmdt
p1
I1
sVd679kgc
p2
I1
s.(dp0
Vcynqmdt
p1
I1
sVd679omk
p2
I1
s.(dp0
Vd75jnj5
p1
I1
sVcynqmdt
p2
I1
s.(dp0
Vd7i1nm1
p1
I1
sVcynqmdt
p2
I1
s.(dp0
Vcynqmdt
p1
I1
sVd7ke59k
p2
I1
s.(dp0
Vd8346z0
p1
I1
sVcynqmdt
p2
I1
s.(dp0
Vcynqmdt
p1
I1
sVd86udw3
p2
I1
s.(dp0
Vcynqmdt
p1
I1
sVd8g8g8g
p2
I1
s.(dp0
Vd8gl7am
p1
I1
sVcynqmdt
p2
I1
s.(dp0
Vcynqmdt
p1
I1
sVd8keqfl
p2
I1
s.(dp0
Vcynqmdt
p1
I1
sVd97cwax
p2
I1
s.(dp0
Vcynqmdt
p1
I1
sVd9b756o
p2
I1
s.(dp0
Vd9cr9t8
p1
I1
sVcynqmdt
p2
I1
s.(dp0
Vd9ftvdq
p1
I1
sVcynqmdt
p2
I1
s.(dp0
Vdafjiul
p1
I1
sVcynqmdt
p2
I1
s.(dp0
Vdagyzf2
p1
I1
sVcynqmdt
p2
I1
s.(dp0
Vcynqmdt
p1
I1
sVdbmxauw
p2
I1
s.(dp0
Vcynqmdt
p1
I1
sVdci4izi
p2
I1
s.(dp0
Vdcitjbb
p1
I1
sVcynqmdt
p2
I1
s.(dp0
Vdcitjbb
p1
I1
sVcynqmdt
p2
I1
s.(dp0
Vdcitjbb
p1
I1
sVcynqmdt
p2
I1
s.(dp0
Vcynqmdt
p1
I1
sVdcl2vjm
p2
I1
s.(dp0
Vcynqmdt
p1
I1
sVdcl5fga
p2
I1
s.(dp0
Vdcl6beh
p1
I1
sVcynqmdt
p2
I1
s.(dp0
Vdcl6beh
p1
I1
sVcynqmdt
p2
I1
s.(dp0
Vcynqmdt
p1
I1
sVdd4b67q
p2
I1
s.(dp0
Vcynqmdt
p1
I1
sVdd9z0rk
p2
I1
s.(dp0
Vcynqmdt
p1
I1
sVddg883x
p2
I1
s.(dp0
Vddnpmca
p1
I1
sVcynqmdt
p2
I1
s.(dp0
Vde2lmb8
p1
I1
sVcynqmdt
p2
I1
s.(dp0
Vdeootzc
p1
I1
sVcynqmdt
p2
I1
s.(dp0
Vdevk7rg
p1
I1
sVcynqmdt
p2
I1
s.(dp0
Vdevk7rg
p1
I1
sVcynqmdt
p2
I1
s.(dp0
Vcynqmdt
p1
I1
sVdez0cxv
p2
I1
s.(dp0
Vcynqmdt
p1
I1
sVdez0cxv
p2
I1
s.(dp0
Vdf5dqbe
p1
I1
sVcynqmdt
p2
I1
s.(dp0
Vdf6iv1g
p1
I1
sVcynqmdt
p2
I1
s.(dp0
Vcynqmdt
p1
I1
sVdg048me
p2
I1
s.(dp0
Vdg04vcx
p1
I1
sVcynqmdt
p2
I1
s.(dp0
Vcynqmdt
p1
I1
sVdg1nx14
p2
I1
s.(dp0
Vcynqmdt
p1
I1
sVdg7ere3
p2
I1
s.(dp0
Vcynqmdt
p1
I1
sVdho198r
p2
I1
s.(dp0
Vcynqmdt
p1
I1
sVdhrk7oy
p2
I1
s.(dp0
Vcynqmdt
p1
I1
sVdi3sdad
p2
I1
s.(dp0
Vcynqmdt
p1
I1
sVdi3sdad
p2
I1
s.(dp0
Vdi6q3fe
p1
I1
sVcynqmdt
p2
I1
s.(dp0
Vcynqmdt
p1
I1
sVdicciqv
p2
I1
s.(dp0
Vcynqmdt
p1
I1
sVdics1x8
p2
I1
s.(dp0
Vcynqmdt
p1
I1
sVditjroi
p2
I1
s.(dp0
Vcynqmdt
p1
I1
sVdj8nop5
p2
I1
s.(dp0
Vcynqmdt
p1
I1
sVdjkpu6u
p2
I1
s.(dp0
Vdjoa5w2
p1
I1
sVcynqmdt
p2
I1
s.(dp0
Vcynqmdt
p1
I1
sVdk44sb2
p2
I1
s.(dp0
Vdk6is5j
p1
I1
sVcynqmdt
p2
I1
s.(dp0
Vcynqmdt
p1
I1
sVdkrzf0x
p2
I1
s.(dp0
Vcynqmdt
p1
I1
sVdmvktm5
p2
I1
s.(dp0
Vdmvkuwc
p1
I1
sVcynqmdt
p2
I1
s.(dp0
Vdmvliz8
p1
I1
sVcynqmdt
p2
I1
s.(dp0
Vdmvliz8
p1
I1
sVcynqmdt
p2
I1
s.(dp0
Vdmvliz8
p1
I1
sVcynqmdt
p2
I1
s.(dp0
Vdm(dp0
Vcynqmdt
p1
I1
sVdtho007
p2
I1
s.