(dp0
Vcz4xum1
p1
I1
s.(dp0
Vcz4xum1
p1
I1
sVcz5caco
p2
I1
s.(dp0
Vcz8om3g
p1
I1
sVcz4xum1
p2
I1
s.(dp0
Vcz4xum1
p1
I1
sVcznb9kv
p2
I1
s.(dp0
Vcz4xum1
p1
I1
sVcztwaen
p2
I1
s.(dp0
Vcz4xum1
p1
I1
sVd0ypa2q
p2
I1
s.(dp0
Vcz4xum1
p1
I1
sVd0zmf11
p2
I1
s.(dp0
Vcz4xum1
p1
I1
sVd1r02j7
p2
I1
s.(dp0
Vcz4xum1
p1
I1
sVd2jj6xn
p2
I1
s.(dp0
Vcz4xum1
p1
I1
sVd2vs263
p2
I1
s.(dp0
Vcz4xum1
p1
I1
sVd2zqrzr
p2
I1
s.(dp0
Vcz4xum1
p1
I1
sVd34qgcs
p2
I1
s.(dp0
Vcz4xum1
p1
I1
sVd39ma9x
p2
I1
s.(dp0
Vcz4xum1
p1
I1
sVd3wiiso
p2
I1
s.(dp0
Vcz4xum1
p1
I1
sVd408hhl
p2
I1
s.(dp0
Vd4jlhmr
p1
I1
sVcz4xum1
p2
I1
s.(dp0
Vcz4xum1
p1
I1
sVd5elmy2
p2
I1
s.(dp0
Vcz4xum1
p1
I1
sVd6a4qd4
p2
I1
s.(dp0
Vcz4xum1
p1
I1
sVd6nncmo
p2
I1
s.(dp0
Vcz4xum1
p1
I1
sVd6w8a8c
p2
I1
s.(dp0
Vd7ab18h
p1
I1
sVcz4xum1
p2
I1
s.(dp0
Vcz4xum1
p1
I1
sVd7c298v
p2
I1
s.(dp0
Vcz4xum1
p1
I1
sVd7isq4a
p2
I1
s.(dp0
Vcz4xum1
p1
I1
sVd7r0qwi
p2
I1
s.(dp0
Vcz4xum1
p1
I1
sVd7x5a8y
p2
I1
s.(dp0
Vcz4xum1
p1
I1
sVd80glyr
p2
I1
s.(dp0
Vcz4xum1
p1
I1
sVd81txex
p2
I1
s.(dp0
Vcz4xum1
p1
I1
sVd9zzcq5
p2
I1
s.(dp0
Vcz4xum1
p1
I1
sVdbee8ka
p2
I1
s.(dp0
Vdbn8ics
p1
I1
sVcz4xum1
p2
I1
s.(dp0
Vcz4xum1
p1
I1
sVdc9nint
p2
I1
s.(dp0
Vcz4xum1
p1
I1
sVdcin7yh
p2
I1
s.(dp0
Vcz4xum1
p1
I1
sVdczcj57
p2
I1
s.(dp0
Vcz4xum1
p1
I1
sVde26bqv
p2
I1
s.(dp0
Vcz4xum1
p1
I1
sVdeh1afn
p2
I1
s.(dp0
Vcz4xum1
p1
I1
sVdf1sbdf
p2
I1
s.(dp0
Vdfimk4p
p1
I1
sVcz4xum1
p2
I1
s.(dp0
Vcz4xum1
p1
I1
sVdfjrkjz
p2
I1
s.(dp0
Vcz4xum1
p1
I1
sVdfrhgqy
p2
I1
s.(dp0
Vcz4xum1
p1
I1
sVdg4pkhe
p2
I1
s.(dp0
Vcz4xum1
p1
I1
sVdgf8jcr
p2
I1
s.(dp0
Vcz4xum1
p1
I1
sVdgs4aqq
p2
I1
s.(dp0
Vcz4xum1
p1
I1
sVdgu17u1
p2
I1
s.(dp0
Vcz4xum1
p1
I1
sVdgu7ign
p2
I1
s.(dp0
Vcz4xum1
p1
I1
sVdhf0kw1
p2
I1
s.(dp0
Vcz4xum1
p1
I1
sVdhj5jhw
p2
I1
s.(dp0
Vcz4xum1
p1
I1
sVdhs3he0
p2
I1
s.(dp0
Vcz4xum1
p1
I1
sVdijg1w2
p2
I1
s.(dp0
Vcz4xum1
p1
I1
sVdj6984s
p2
I1
s.(dp0
Vcz4xum1
p1
I1
sVdjuqtm7
p2
I1
s.(dp0
Vdjw12cv
p1
I1
sVcz4xum1
p2
I1
s.(dp0
Vcz4xum1
p1
I1
sVdkowm61
p2
I1
s.(dp0
Vcz4xum1
p1
I1
sVdksyzut
p2
I1
s.(dp0
Vcz4xum1
p1
I1
sVdmkz8lr
p2
I1
s.(dp0
Vcz4xum1
p1
I1
sVdmzoaiy
p2
I1
s.(dp0
Vcz4xum1
p1
I1
sVdniy1tp
p2
I1
s.(dp0
Vcz4xum1
p1
I1
sVdorox9h
p2
I1
s.(dp0
Vcz4xum1
p1
I1
sVdrhmsat
p2
I1
s.(dp0
Vcz4xum1
p1
I1
sVdth6suj
p2
I1
s.(dp0
Vcz4xum1
p1
I1
sVdtjgapd
p2
I1
s.