(dp0
Vdry93n2
p1
I1
sVdoytg80
p2
I1
sVdet6zys
p3
I1
sVdc0lpr0
p4
I1
sVdcccbon
p5
I1
sVdc0jtax
p6
I6
sVdeggpeu
p7
I1
sVcynfnwe
p8
I1
sVdgw8t07
p9
I1
sVd1zcjif
p10
I1
sVdgh1h6j
p11
I1
sVd246n0o
p12
I1
sVde49wm7
p13
I1
sVd51e8gv
p14
I1
sVdgov6ub
p15
I1
sVdgt64qh
p16
I1
sVd0n3ged
p17
I1
sVd074ac9
p18
I1
sVdp7tyln
p19
I1
sVdc3nqze
p20
I1
s.