(dp0
Vd2wi5wu
p1
I1
sVdfboe57
p2
I1
sVddkr1f1
p3
I1
sVdk43agm
p4
I2
sVdkj4qsy
p5
I1
sVd2ro1rm
p6
I1
sVcywrg5f
p7
I1
sVcznxzn6
p8
I1
sVd435e3t
p9
I1
sVcz3s1y8
p10
I1
sVd56g3dq
p11
I1
sVdqk6oek
p12
I1
sVdoeqldy
p13
I1
sVdt5gqks
p14
I2
sVdaggwoj
p15
I1
sVd0mtk1f
p16
I1
sVcytfj37
p17
I1
sVd17a0m9
p18
I1
sVd6gqelt
p19
I2
sVd01530t
p20
I1
sVd38d9fa
p21
I1
sVdahjmjy
p22
I1
sVd7j9utd
p23
I1
s.