(dp0
Vdt3s4qp
p1
I1
sVd11h28g
p2
I4
sVdtaiyx0
p3
I1
sVd0ydr8u
p4
I2
sVd9xvaxm
p5
I1
sVdiqdsoj
p6
I1
sVdfamrqp
p7
I1
sVdodlaua
p8
I1
sVd8cz0ea
p9
I1
sVd7zk9v5
p10
I5
sVdr4zjfx
p11
I2
sVd7h1jil
p12
I1
sVdfosp7w
p13
I1
sVdbzc6lm
p14
I1
sVd01nojf
p15
I1
sVd5jnfvt
p16
I1
sVd90qakt
p17
I1
sVdfi7gd7
p18
I1
sVd1ib46w
p19
I2
sVdtduvem
p20
I2
sVdf7p2vo
p21
I1
sVd54u47c
p22
I1
sVdah7rwn
p23
I1
sVdgtkbsv
p24
I1
sVdopszby
p25
I1
sVdhc2jbc
p26
I3
sVczmasg4
p27
I1
sVd1hekyd
p28
I1
sVd4f4n07
p29
I1
sVdo1x569
p30
I2
sVdfb3yyf
p31
I1
sVd6s75hu
p32
I1
sVd1kurpw
p33
I1
sVdke6q5i
p34
I2
sVdt4q4jk
p35
I1
sVd3o7hek
p36
I1
sVdb92t94
p37
I2
sVdgwig54
p38
I1
sVd4tp01n
p39
I1
sVdjod0gb
p40
I1
sVcz81tcb
p41
I1
sVd4sjcc5
p42
I1
sVd7nwbt6
p43
I1
sVdaqswu9
p44
I1
sVd57l1h9
p45
I1
sVd4oerug
p46
I1
sVcywolkz
p47
I1
sVd7wlycd
p48
I4
sVcz9fha4
p49
I1
sVd3xyu7w
p50
I2
sVdgwnjig
p51
I1
sVd903wpl
p52
I1
sVdbx7rna
p53
I1
sVdd82ps0
p54
I1
sVcz4ymqn
p55
I1
sVd2bbh1i
p56
I1
sVd0z1zlx
p57
I1
sVcyyrdd6
p58
I1
sVd2a249v
p59
I1
sVcz0wvv8
p60
I1
sVd57o54n
p61
I1
sVdke1cy7
p62
I1
sVd5h9l8k
p63
I1
sVcyyvyp0
p64
I2
sVd7vhmq0
p65
I4
sVdnmbyhd
p66
I1
sVd6joqi4
p67
I1
sVd0ie9lu
p68
I1
sVdfxlxdr
p69
I1
sVddofqna
p70
I1
sVdo1tr3r
p71
I1
sVdjjosj6
p72
I1
sVd88vdlm
p73
I1
sVd6jojrh
p74
I2
sVdosv13e
p75
I1
sVddwk67s
p76
I1
sVd904f4z
p77
I1
sVd08rk2s
p78
I1
sVd3jxyhp
p79
I1
sVddaiu92
p80
I4
sVd9xonb9
p81
I1
sVdmog9l7
p82
I1
sVdpsc66c
p83
I1
sVdjcqyq9
p84
I2
sVdiofzc3
p85
I1
sVd5uixmm
p86
I2
sVd903p7z
p87
I1
sVdfdmq4t
p88
I1
sVd1t42er
p89
I2
sVd0yii7l
p90
I2
sVd4i338g
p91
I1
sVdo8ymo0
p92
I1
sVd5wwn3c
p93
I1
sVd0gyozz
p94
I1
sVdthfoik
p95
I1
sVdg1w64m
p96
I1
sVd1ij2ap
p97
I2
sVddaio7g
p98
I1
sVdg903fk
p99
I2
sVdgmt4id
p100
I1
sVd17utlo
p101
I3
sVdes7ez2
p102
I1
sVdd69cqq
p103
I1
sVdaxyjnn
p104
I1
sVdi4hp6r
p105
I2
sVd5jobcv
p106
I1
sVdf6xeiq
p107
I3
sVd5gvptr
p108
I1
sVd512o5c
p109
I1
sVd81z3ve
p110
I1
sVdgucg9o
p111
I1
sVd9zzuv0
p112
I1
sVd549mxb
p113
I2
sVczwm2bv
p114
I1
sVdosqy4z
p115
I1
sVcza8igc
p116
I1
sVd0lmpve
p117
I1
sVd0ix1os
p118
I1
sVd3zek9u
p119
I1
sVdad4ljx
p120
I1
sVddwk9q8
p121
I2
sVdee4isz
p122
I1
sVdpqza8u
p123
I1
sVd1eg6v5
p124
I1
sVcyrdoy9
p125
I1
sVd5cdqar
p126
I3
sVd1u4hj6
p127
I1
sVczr4jcq
p128
I1
sVd7nqzhr
p129
I1
sVcysds3o
p130
I1
sVdo27sbc
p131
I1
sVdhmphkh
p132
I1
sVd8r9hh9
p133
I1
sVd82v14f
p134
I1
sVd7k6puc
p135
I1
sVdt48pkt
p136
I2
sVd1edkie
p137
I1
sVda0r0do
p138
I1
sVdew1c01
p139
I1
sVds2k0tn
p140
I1
sVdhqv180
p141
I1
sVdatu0ma
p142
I1
sVdflllz3
p143
I1
sVdge75j7
p144
I1
sVcz8npz1
p145
I1
sVd25a5n4
p146
I1
sVd7dr74n
p147
I3
sVdor7eio
p148
I2
sVczmb4qu
p149
I1
sVdcf9zuz
p150
I1
sVddj4ixm
p151
I1
sVdik5b2w
p152
I1
sVdcx3gp4
p153
I1
sVd54vd5t
p154
I1
sVdmfx331
p155
I1
sVd1h4n1i
p156
I1
sVd9007vm
p157
I1
sVdsunb0f
p158
I2
sVd9tnk9h
p159
I4
sVddef6ab
p160
I1
sVdde1dbu
p161
I1
sVd7zjznb
p162
I1
sVd8d88ik
p163
I4
sVd71k2rd
p164
I1
sVcyhzimt
p165
I1
sVd3zbgmc
p166
I1
sVd5cl8gg
p167
I1
sVdaq57bs
p168
I1
sVd4tazgq
p169
I1
sVdk8k3ip
p170
I1
sVd3y3oez
p171
I1
sVdrmqqh1
p172
I4
sVd8ctauk
p173
I1
sVdtitezr
p174
I1
sVdjbjrbt
p175
I1
sVd4mjfdw
p176
I3
sVcz2bqm5
p177
I2
sVd0sz5g8
p178
I1
sVdfh30cj
p179
I1
sVdr4yhff
p180
I1
sVdficcss
p181
I1
sVd1aj0re
p182
I1
sVd0t9706
p183
I1
sVdbqzazw
p184
I1
s.