(dp0
Vde58s3s
p1
I1
sVd09r9c5
p2
I1
sVdgs5f24
p3
I1
sVd5n2yq7
p4
I1
sVdb97bmq
p5
I1
sVd0p8sai
p6
I1
sVdt4uirt
p7
I2
sVd6chrh6
p8
I1
sVdklx5xi
p9
I1
sVd1heqdx
p10
I1
sVdcz8a46
p11
I1
sVdbwi8hc
p12
I1
sVdiasl68
p13
I2
sVcz5pajg
p14
I1
sVczugjqu
p15
I1
sVd7yps6x
p16
I1
sVd68exak
p17
I5
sVdfoicao
p18
I1
s.