(dp0
Vcz4nk9z
p1
I1
sVd4yq4fv
p2
I1
sVdfiizyg
p3
I4
sVd8qtoj3
p4
I1
sVd8wlzlf
p5
I1
sVd8h725q
p6
I1
sVdko1xti
p7
I2
sVdcy7qal
p8
I1
sVd3gbtcg
p9
I2
sVd6kpmsu
p10
I1
sVdcs91sh
p11
I1
sVd5y9xkz
p12
I1
sVdew98k6
p13
I1
sVde9bu02
p14
I1
sVd4ypfpu
p15
I1
sVd3fzmrc
p16
I13
sVdctnlzo
p17
I1
sVdqhgzq5
p18
I3
sVd3fygxb
p19
I4
sVdff96st
p20
I1
sVdhe72qn
p21
I1
sVdfiogxv
p22
I1
sVdeyagz0
p23
I1
sVczrups6
p24
I1
sVdi6f34j
p25
I6
sVdnlamch
p26
I1
sVdgseojv
p27
I1
sVdt43cx0
p28
I1
sVdimrsww
p29
I5
sVde1t7ri
p30
I1
sVd2q9bic
p31
I1
sVczilh9f
p32
I1
sVd4yq8rw
p33
I1
sVdcv3cps
p34
I1
sVd53ptdz
p35
I1
sVd3fyizn
p36
I1
sVdiz8bu4
p37
I2
sVdj97gj1
p38
I2
sVdfk8svp
p39
I1
sVdizobl4
p40
I2
sVdcsmb6q
p41
I1
sVddgpc3j
p42
I1
sVd0nl8cn
p43
I1
sVdimxhd7
p44
I2
sVdj985wh
p45
I1
sVdk90lc7
p46
I1
sVdjw9n12
p47
I1
sVcyo78b9
p48
I4
sVdmjqegj
p49
I1
sVcysv2zs
p50
I1
sVd7w3c8z
p51
I4
sVdheblmy
p52
I4
sVdizogme
p53
I6
sVdj9855u
p54
I2
sVdko5t9o
p55
I3
s.