(dp0
Vdft9mo9
p1
I2
sVdh0ibgb
p2
I1
sVd12m39z
p3
I1
sVd2cb66d
p4
I1
sVdjbnsvi
p5
I1
sVcyy3af0
p6
I1
sVdcud2ko
p7
I1
sVdt1jy6p
p8
I1
sVdkxjrx2
p9
I1
sVdkdijfp
p10
I1
sVd2a9zvg
p11
I1
sVdj22ju6
p12
I1
sVdbgilug
p13
I1
sVdn27zbe
p14
I1
sVdna9m8p
p15
I1
sVdbq4s3m
p16
I1
sVd01jox3
p17
I1
sVddzkj9v
p18
I1
sVdcja52p
p19
I1
sVddt70fe
p20
I1
sVdir0jbc
p21
I1
sVdhbtt02
p22
I1
sVdczin8i
p23
I1
s.