(dp0
Vcyisaf1
p1
I5
sVd06vbz5
p2
I5
sVdagfwxk
p3
I5
sVd4130ct
p4
I1
sVdg4bd9s
p5
I3
sVcyifri0
p6
I1
sVdkxcqhb
p7
I2
sVdbde2j8
p8
I1
sVdbv51si
p9
I4
sVdhyu2aj
p10
I1
sVd0dq45r
p11
I7
sVd1wcoej
p12
I3
sVd3ail2d
p13
I2
sVdeubg0k
p14
I5
sVdimkk81
p15
I2
sVd48e8tv
p16
I1
sVdayr0al
p17
I3
sVcyypm81
p18
I1
sVd9cd0ne
p19
I2
sVcyiky3b
p20
I2
sVd225199
p21
I1
sVd6kqvet
p22
I6
sVd0d5kpd
p23
I1
sVd6w431n
p24
I1
sVd1gvi2t
p25
I1
sVd75dtzc
p26
I6
sVdia2l4p
p27
I4
sVdk0jmxw
p28
I1
sVdenqxja
p29
I3
sVdijmaui
p30
I2
sVdphpfcm
p31
I1
sVczepcem
p32
I4
sVd77er30
p33
I1
sVdh4q04r
p34
I1
sVdsw48hr
p35
I1
sVcyzlrec
p36
I1
sVd02jak7
p37
I1
sVdcsexun
p38
I1
sVdk8a5h8
p39
I1
sVdrs5jah
p40
I2
sVd6cc810
p41
I1
sVdn0fbns
p42
I2
sVd0d1whx
p43
I1
sVdrxqu6h
p44
I1
sVdcetpgh
p45
I1
sVczehoqx
p46
I4
sVd6dii18
p47
I1
sVdc2m5su
p48
I1
sVdfrwdsl
p49
I1
sVd3q204i
p50
I1
sVdbmhdez
p51
I1
sVdd4m697
p52
I1
sVda6nvk4
p53
I1
sVdehoh2d
p54
I1
sVdq7wfta
p55
I1
sVddbb5st
p56
I1
sVd8h7npe
p57
I1
sVdevnq3v
p58
I1
sVd3rbtvg
p59
I1
sVdibt9d3
p60
I1
sVdimldpi
p61
I2
sVde55h7a
p62
I2
sVcyuimar
p63
I1
sVd4h90e9
p64
I9
sVd2mqma2
p65
I2
sVd36cdde
p66
I5
sVdrz1vht
p67
I8
sVdqhxrb0
p68
I1
sVczovroc
p69
I4
sVcze6ve5
p70
I1
sVd5rms3y
p71
I2
sVd0d59b4
p72
I4
sVd27w7ac
p73
I1
sVdi9z421
p74
I1
sVcyj7fiq
p75
I1
sVczov4le
p76
I2
sVdivroq5
p77
I1
sVdmfnqtq
p78
I1
sVdia85mi
p79
I2
sVd3q1ehs
p80
I1
sVd536on3
p81
I1
sVd59yyh3
p82
I2
sVd4wwtz8
p83
I1
sVd1amzvk
p84
I2
sVdmip9vy
p85
I1
sVdewuj6y
p86
I1
sVd1exmp3
p87
I1
sVdd7ccwc
p88
I1
sVd3yfbxb
p89
I1
sVdqvj94t
p90
I1
sVcyz70mk
p91
I1
sVd0yg4ir
p92
I1
sVdia884p
p93
I4
sVczhetw6
p94
I1
sVdk54er8
p95
I1
sVd5pv7mp
p96
I1
sVdbo2cyh
p97
I1
sVd9c8cln
p98
I1
sVd5hr9dw
p99
I1
sVd1uxman
p100
I1
sVd77eybc
p101
I2
sVdida0mw
p102
I1
sVczdwel2
p103
I1
sVd8eo82j
p104
I1
sVd7pcck7
p105
I1
sVdqy5uhn
p106
I2
sVdioxnvp
p107
I1
sVdn3xk8e
p108
I1
sVd4t5nyx
p109
I3
sVdbu5u2s
p110
I1
sVcyjhs5k
p111
I2
sVda6r45b
p112
I1
sVd365ice
p113
I5
sVdr9w15b
p114
I1
sVd1anzxx
p115
I3
sVdru7f98
p116
I1
sVd6ccxif
p117
I6
sVd1a69zz
p118
I2
sVd75c0cq
p119
I1
sVdakk9vr
p120
I5
sVdg07r2n
p121
I5
sVdia80r3
p122
I2
sVdmeysif
p123
I2
sVd798ign
p124
I1
sVdb7ly6s
p125
I1
sVd1amvms
p126
I1
sVd3xdm5r
p127
I1
sVczolj26
p128
I1
sVdqad6xv
p129
I1
sVd1rftru
p130
I1
sVdr3e6ru
p131
I1
sVdia1tsa
p132
I3
sVd8ghr4c
p133
I2
sVdia86td
p134
I2
sVdi83kcf
p135
I1
sVd2p3r55
p136
I3
sVdpxevhk
p137
I4
sVd0iuem9
p138
I1
sVd8qc6tz
p139
I2
sVd9l7k3b
p140
I1
sVdbrr8l0
p141
I1
sVdqpmcyw
p142
I5
sVdr9ux81
p143
I1
sVd75dxp0
p144
I2
sVd6ce9w0
p145
I1
sVdnudyyt
p146
I2
sVdk0b4yp
p147
I5
sVdrv2x1t
p148
I3
sVcyj1773
p149
I1
sVdir8inq
p150
I1
sVdbga5dc
p151
I3
sVdg08ad3
p152
I1
sVdia73z8
p153
I1
sVczdwd7i
p154
I2
sVdnnrc5d
p155
I5
sVdgr90d3
p156
I1
sVddzt42t
p157
I1
sVdebp5l4
p158
I1
sVdj5s564
p159
I2
sVdkb9lrt
p160
I2
sVd2th7p0
p161
I4
sVcyosb6x
p162
I1
s.