(dp0
Vdiohs9o
p1
I1
sVd35z5bw
p2
I1
sVd2el3di
p3
I2
sVdam6ga0
p4
I1
sVcyzif23
p5
I1
sVd1hu21l
p6
I1
sVdhqx51k
p7
I1
sVd8aq57k
p8
I1
sVdmw8zu5
p9
I1
sVdho4y9j
p10
I1
sVcyisdp6
p11
I1
sVd7swzzj
p12
I1
sVdk1ez6k
p13
I1
sVcypjkjh
p14
I2
sVdju4cqf
p15
I1
sVd883fho
p16
I1
sVdsdbwm1
p17
I1
sVdroezq6
p18
I1
sVd58vvzq
p19
I1
sVdgpkpwj
p20
I1
sVd4oray3
p21
I1
sVdhzwm8q
p22
I1
sVdd5ilit
p23
I1
sVda4jtvq
p24
I1
sVd1oa1ic
p25
I1
sVd87qme3
p26
I1
sVd0i6kxb
p27
I1
sVdi4i6bi
p28
I1
sVd2aaidb
p29
I1
sVdccwjy1
p30
I1
sVd0alej7
p31
I1
sVdn806i7
p32
I1
sVd0agpy9
p33
I2
sVdj409zc
p34
I1
sVd9f2fpq
p35
I1
sVdju5hsz
p36
I1
sVd6kill2
p37
I1
sVdfsbd6v
p38
I3
sVd73ygj1
p39
I1
sVd5endlg
p40
I1
sVd2ii8a3
p41
I1
sVd9ujlgb
p42
I1
sVd1oh637
p43
I1
sVdqq9mni
p44
I1
sVd4uzl2y
p45
I1
sVd8o0y5v
p46
I1
sVdfcx69u
p47
I1
sVd47ejcj
p48
I1
sVd7lt9gm
p49
I1
sVdh36aho
p50
I1
sVdfwe9e1
p51
I1
sVdmzz4m8
p52
I1
sVd6689z1
p53
I1
sVd9ugwdk
p54
I1
sVdkhu91x
p55
I1
sVd81neib
p56
I1
sVd62kefs
p57
I1
sVd1gyi7d
p58
I1
sVdi521kj
p59
I3
sVd2rarqk
p60
I2
sVdi5uil0
p61
I1
sVdhr8vxr
p62
I1
sVdt11q5k
p63
I1
sVdi4k60g
p64
I1
sVcz9pd7z
p65
I1
sVda57z0i
p66
I1
sVd3bhti1
p67
I1
sVcziuwbi
p68
I2
sVdi4c81d
p69
I1
sVd1ftusm
p70
I1
sVd2bdizd
p71
I2
sVdaarw1l
p72
I1
sVd2ueiqy
p73
I1
sVd3bk0dn
p74
I1
sVd3b8t0x
p75
I1
sVdd8ukvd
p76
I1
sVd7p3jzg
p77
I1
s.