(dp0
Vd3tfg7q
p1
I1
sVdcv1aba
p2
I1
sVd1hmxyc
p3
I1
sVd7mdx21
p4
I1
sVdo5nbbw
p5
I1
sVdddw6s9
p6
I1
sVdr0cuk5
p7
I2
sVczdm7mb
p8
I1
sVd7rjf1j
p9
I1
sVdairc69
p10
I1
sVczdzxmh
p11
I1
sVdqdiiw3
p12
I1
sVd16r9k2
p13
I1
sVd1tvnmw
p14
I1
sVdf1yusk
p15
I1
sVdhyk5i6
p16
I1
sVdc0h8xy
p17
I1
sVdaeumvp
p18
I2
sVdgeuft5
p19
I1
sVdmsa8xb
p20
I1
sVd19lajq
p21
I8
sVdaidftn
p22
I2
sVdihnzxs
p23
I1
sVdgwhla9
p24
I1
sVd9c4ki9
p25
I1
sVdng4zdp
p26
I1
sVdfa2ms5
p27
I1
sVdst65ak
p28
I1
sVd9i2uv7
p29
I1
sVdbypamr
p30
I3
sVdhyki9q
p31
I3
sVd655veo
p32
I1
sVd3ez4ee
p33
I1
sVd8926ck
p34
I1
sVd9w0z07
p35
I1
sVdt2vxiy
p36
I1
sVdhc9rrv
p37
I1
sVdey7013
p38
I1
sVd37qjwz
p39
I1
sVdmk5fnd
p40
I2
sVd6ktiws
p41
I1
sVd60auwy
p42
I1
sVdrp0rxn
p43
I1
sVdh7xpmy
p44
I1
sVd0ruy7b
p45
I1
sVd9vmfgy
p46
I1
sVd3j89nk
p47
I1
sVcz078yg
p48
I1
sVdd59v1u
p49
I1
sVdq6280l
p50
I2
sVda19c7d
p51
I1
sVdhgyfm5
p52
I2
sVdr0fslc
p53
I2
sVdsszmut
p54
I4
sVdcmu70i
p55
I1
sVdr6p5e8
p56
I1
sVdey2pbj
p57
I1
sVdbnifdx
p58
I1
sVcyoqutq
p59
I2
sVdj18rdc
p60
I1
sVda2qu4d
p61
I1
sVdbkgs5e
p62
I1
sVd6ss4dx
p63
I2
sVd5cpcpf
p64
I1
sVdp9xsv0
p65
I1
sVddh57ee
p66
I1
sVd46q2o5
p67
I1
sVd16ync9
p68
I1
sVd2luaef
p69
I1
sVd16ylkb
p70
I1
sVd72bynq
p71
I1
sVd3x28ib
p72
I1
sVdpl87i8
p73
I1
sVdkibhpa
p74
I1
sVdr4z6gu
p75
I1
sVdgzb743
p76
I2
sVdhm7a7r
p77
I1
sVdsradub
p78
I2
sVd19hg9u
p79
I1
sVd93ksv9
p80
I2
sVdkdokfi
p81
I1
sVdtbgo6k
p82
I11
sVddpvco0
p83
I1
sVd1zlm7s
p84
I1
sVd81fpwc
p85
I1
sVdizks65
p86
I1
sVd4cwbdo
p87
I1
sVdc466bc
p88
I1
sVdpp1qbg
p89
I3
sVdjk2i45
p90
I1
sVd8927az
p91
I1
sVcyvbt4n
p92
I1
sVdr0ex46
p93
I1
sVdmmdy2l
p94
I2
sVd1mfc6y
p95
I1
sVdd9u8y2
p96
I1
sVdb1am39
p97
I1
sVdfh5045
p98
I1
sVd35hcsa
p99
I1
sVd8bmd0e
p100
I1
sVd2c6ts4
p101
I2
sVd81vpg3
p102
I4
sVdo6b7ls
p103
I1
sVdolgnvp
p104
I1
sVd9jg3q1
p105
I2
sVddm44w3
p106
I3
sVdks2pqk
p107
I1
sVd27bb4j
p108
I2
sVdike8e5
p109
I1
sVd2ps8cj
p110
I1
sVd93hcg0
p111
I1
sVdr6otph
p112
I2
sVdqsllu1
p113
I1
sVdfoufjc
p114
I1
sVdqwscc0
p115
I1
sVd9pi4h8
p116
I1
sVdq21hfi
p117
I1
sVdmt2rpm
p118
I2
s.