(dp0
Vd9yqe47
p1
I1
sVd7lfryj
p2
I1
sVcywp6rh
p3
I1
sVdibn3f0
p4
I1
sVde7spst
p5
I1
sVdhs7scs
p6
I1
sVd75nuzj
p7
I1
sVdgcxx30
p8
I1
sVd87c2rd
p9
I1
sVdau2ubv
p10
I1
sVd8mk3xd
p11
I1
sVds84wuk
p12
I1
sVd6amvan
p13
I1
sVd83xzwn
p14
I1
sVdkuqzfr
p15
I1
sVddx5fsk
p16
I1
sVcz87set
p17
I1
sVdbc9y5s
p18
I1
sVdkpynnt
p19
I1
sVd9f45p1
p20
I1
sVdsf5ehq
p21
I2
sVd2o364q
p22
I1
sVcz77h2y
p23
I1
sVdjph205
p24
I1
sVd212ynv
p25
I1
sVcyzuor1
p26
I1
sVdgjys5h
p27
I1
sVd3594hq
p28
I1
sVd0wn8t6
p29
I1
sVdj2zpet
p30
I1
sVd178krc
p31
I1
sVd3vkqdk
p32
I1
sVd472npm
p33
I2
sVdrl4v9o
p34
I1
sVdeik11c
p35
I1
sVd5c1tiy
p36
I1
sVdq5ldc5
p37
I2
sVd301zuk
p38
I1
sVdcclggr
p39
I1
sVdkewv8r
p40
I1
sVd5ptw1d
p41
I1
sVcyt0b73
p42
I1
sVd5fbou6
p43
I1
sVd3qxyeq
p44
I1
sVdmllpav
p45
I1
sVdqbn9tb
p46
I2
sVd3mnho1
p47
I1
sVdo4wnpq
p48
I1
sVdrnk2ln
p49
I1
sVdh0oohb
p50
I1
sVd89u1dy
p51
I1
sVd5f7oll
p52
I1
sVdmpq01f
p53
I2
sVd2hmsb5
p54
I1
sVdny2v5w
p55
I1
sVdhawabx
p56
I1
sVd2bsnbl
p57
I1
sVdhv8f5f
p58
I2
sVd90s3kv
p59
I1
sVd1ij2ap
p60
I1
sVddgp9a3
p61
I1
sVdnlorag
p62
I1
sVdea93mb
p63
I1
sVdf6dfof
p64
I1
sVcze4wrv
p65
I1
sVdf8z5yk
p66
I3
sVd237agc
p67
I2
sVdi5be5x
p68
I1
sVds744fn
p69
I2
sVd75o5nm
p70
I1
sVdaisor5
p71
I1
sVd7nzeev
p72
I1
sVcz285eb
p73
I1
sVd019scl
p74
I1
sVdj5gjcc
p75
I1
sVd33acv5
p76
I1
sVdno0r6i
p77
I1
sVdcc55ip
p78
I1
sVd67mkx9
p79
I1
sVdhb4c56
p80
I1
sVd4z0xkz
p81
I1
sVdjf55yg
p82
I1
sVd1sl8xl
p83
I2
sVczkywnx
p84
I1
sVdj9h966
p85
I1
sVdeug0gz
p86
I1
sVd7m3dc2
p87
I1
sVdoo3o78
p88
I1
sVd9asqq3
p89
I1
sVd0onbxs
p90
I1
sVd7mxa2q
p91
I1
sVdbgwjry
p92
I1
sVdnovce3
p93
I1
sVde8vrw9
p94
I1
sVda5z327
p95
I1
sVdhndpqe
p96
I1
sVczvrr4s
p97
I1
sVd5yem7d
p98
I1
sVd3598vz
p99
I1
sVd23t0bq
p100
I1
sVd37cnma
p101
I1
sVd60kgl4
p102
I1
sVdqw7tot
p103
I1
sVd67ylxo
p104
I1
sVda49r40
p105
I2
sVd6skh96
p106
I1
sVdne2z83
p107
I1
sVdcnzeva
p108
I1
sVd779qtj
p109
I1
sVd96yhux
p110
I2
sVcz6gblh
p111
I3
sVddof507
p112
I1
sVd37e91v
p113
I1
sVdhst3qn
p114
I1
sVdim18uu
p115
I2
sVcz1bfw1
p116
I1
sVdcglga6
p117
I1
sVdgmom64
p118
I2
sVd4of3wd
p119
I2
sVde1tua9
p120
I1
sVdcbdon8
p121
I1
sVd2cczns
p122
I3
sVdjpmddh
p123
I1
sVcz92sn5
p124
I1
sVdcl2idl
p125
I1
sVd1c2tgh
p126
I1
sVdgy76cz
p127
I1
sVdbpa525
p128
I1
sVd11wdnt
p129
I1
sVd8tpaoh
p130
I1
sVd4rv81o
p131
I1
sVdg0n60p
p132
I1
sVd4xrfep
p133
I1
sVdi6s94h
p134
I1
sVdjramqj
p135
I1
sVd05n3w8
p136
I1
sVdjt6smh
p137
I1
sVd9w2me8
p138
I1
sVczpmgbl
p139
I1
sVcym0ldg
p140
I1
sVdmkiq5j
p141
I1
sVd4n0jh5
p142
I1
sVd4xr64q
p143
I1
sVd0sn4rn
p144
I1
sVd21kux0
p145
I1
sVdqc2ztf
p146
I1
sVd3r8uui
p147
I2
sVd7l9al4
p148
I1
sVdew8ats
p149
I1
sVd3r47us
p150
I1
sVd1p2axs
p151
I1
sVd4kwy9j
p152
I1
sVd247li0
p153
I1
sVdd3p7kz
p154
I1
sVddj8wsg
p155
I1
sVdb2uqyu
p156
I1
sVd2vpxrk
p157
I1
sVd2z0yjo
p158
I1
sVd8tqxvs
p159
I1
sVde0nl7q
p160
I1
sVda1248u
p161
I1
sVd0i9pro
p162
I1
sVdmkbmq5
p163
I1
sVcz4aouc
p164
I1
sVdi569c4
p165
I1
sVdkvuwjj
p166
I1
sVd3qadft
p167
I1
sVdadiapl
p168
I1
sVdh90mfa
p169
I1
sVd0rc49v
p170
I1
sVd4gxyxn
p171
I1
sVd4o8rue
p172
I1
sVdjkm8ad
p173
I2
sVdo1yxqw
p174
I1
sVdgvezlb
p175
I1
sVd3o0q55
p176
I1
sVd5n2yq7
p177
I1
sVdaadyx4
p178
I1
sVd89ybfz
p179
I2
sVdtabdwq
p180
I1
sVd6t4i8z
p181
I1
sVdgohihu
p182
I2
sVdfz1t1i
p183
I1
sVdmj1zix
p184
I1
sVdho7iw9
p185
I1
sVdsqpti0
p186
I1
sVdiemjqi
p187
I1
sVdf2nr6y
p188
I1
sVd3r1bui
p189
I1
sVdai3k5w
p190
I1
sVdfoz2l2
p191
I1
sVd18qrdt
p192
I1
sVdi9kqup
p193
I1
sVdrwxnrq
p194
I1
sVdixr4lv
p195
I1
sVdr3x3vk
p196
I1
sVdjp7zbq
p197
I1
sVdip726q
p198
I1
sVdcj9mbo
p199
I1
sVde9xylm
p200
I1
sVd8frz1p
p201
I1
sVdjomyzv
p202
I1
sVcyzx9hn
p203
I1
sVd1p4w3y
p204
I1
sVdf1esbz
p205
I1
sVdcvlh9s
p206
I1
sVdbtkucm
p207
I1
sVd4ukul7
p208
I1
sVdh9vcuo
p209
I1
sVdc8mhnq
p210
I1
sVddu4rl0
p211
I1
sVcylvvft
p212
I1
sVd5anwxr
p213
I3
sVdmt77ph
p214
I1
sVdj8h8m9
p215
I1
sVdcqrd1a
p216
I1
sVdithkrq
p217
I1
sVdrn7ug5
p218
I1
sVdnejiqp
p219
I1
sVd9de3pz
p220
I6
sVd4wmgz4
p221
I1
sVdiapjtz
p222
I1
sVd6f5aqy
p223
I3
sVczmx4zh
p224
I1
sVd5cmbkc
p225
I1
sVd05nfss
p226
I1
sVd9k4ds4
p227
I1
sVd7044f1
p228
I1
sVczwm9qs
p229
I1
sVd1njje2
p230
I1
sVcz5g6xy
p231
I1
sVdcgstt2
p232
I2
sVdbh6kkz
p233
I1
sVdg4vg77
p234
I1
sVdtf922a
p235
I1
sVczbk6po
p236
I2
sVdcncbwk
p237
I1
sVd68qs98
p238
I2
sVczgrr4h
p239
I3
sVdpamcuk
p240
I1
sVdfwmz63
p241
I1
sVdauod0m
p242
I1
sVddhnhkp
p243
I1
sVd3rcxdu
p244
I1
sVd3x242q
p245
I1
sVdaisj4l
p246
I1
sVdiab4ep
p247
I1
sVd2o7141
p248
I3
sVdccl7de
p249
I1
sVd358ptn
p250
I1
sVdj2rnvz
p251
I1
sVd8bdg54
p252
I1
sVdn1b8dw
p253
I2
sVd5mzw75
p254
I1
sVd8pmwp3
p255
I1
sVd1klhye
p256
I1
sVczj261k
p257
I2
sVdacqwso
p258
I1
sVd1c4imn
p259
I1
sVdkswk3l
p260
I3
sVd310pds
p261
I1
sVdh35utd
p262
I1
sVd72y354
p263
I1
sVdnaryfx
p264
I1
sVd1w7cbo
p265
I1
sVdcmxmk6
p266
I1
sVczawkhg
p267
I1
sVd5ftf32
p268
I1
sVdkd913u
p269
I1
sVd8nu28r
p270
I1
sVdgk3sh4
p271
I1
sVdhgmogq
p272
I1
sVd1yqor6
p273
I1
sVd8u2gq9
p274
I1
sVdp08evi
p275
I1
sVdo4d1yx
p276
I1
sVdarbki0
p277
I1
sVdbig6bd
p278
I8
sVd8cmjjh
p279
I1
sVd53amuf
p280
I1
sVd1shvxc
p281
I1
sVdapwcyd
p282
I2
sVdc9nint
p283
I1
sVd9qyhen
p284
I1
sVdei7zfl
p285
I1
sVd0d377n
p286
I1
sVdj4d8tx
p287
I2
sVdbavfpz
p288
I2
sVd06pdrn
p289
I1
sVdbriato
p290
I3
sVdq3ez5z
p291
I1
sVczdrt69
p292
I4
sVdd3ikmy
p293
I1
sVde13ss2
p294
I1
sVd2c1sef
p295
I1
sVczdisc4
p296
I2
sVda9hqtg
p297
I1
sVdiuhqjf
p298
I1
sVdccorkz
p299
I1
sVd2bvsq2
p300
I1
sVdkm5jl8
p301
I1
sVd7nxvtu
p302
I1
sVdeorab0
p303
I1
sVdr8wicv
p304
I1
sVdo3fu5j
p305
I3
sVdgzh5ox
p306
I1
sVd9jwzif
p307
I2
sVd2hkp4j
p308
I1
sVdebyklg
p309
I1
sVd17f5xw
p310
I1
sVcz9pwei
p311
I1
sVd1tnoiq
p312
I1
sVdpuo9m9
p313
I1
sVd3u0a56
p314
I1
sVd6pc16y
p315
I2
sVd408iuy
p316
I2
sVczm8qgq
p317
I1
sVd9hityt
p318
I1
sVdrk5lpk
p319
I2
sVdhjj0cs
p320
I1
sVd3nbkvt
p321
I2
sVdhkzaxw
p322
I1
sVd86o73r
p323
I1
sVd1weevv
p324
I1
sVdg460rn
p325
I3
sVdgusd05
p326
I1
sVd81ihuk
p327
I1
sVdmi9zjw
p328
I1
sVdoeor5z
p329
I1
sVdrl4yme
p330
I1
sVdckgqsk
p331
I1
sVd0edzni
p332
I2
sVdcnwoj7
p333
I1
sVczbjtgc
p334
I2
sVdgcb721
p335
I2
sVczm8sek
p336
I1
sVdcrlju1
p337
I1
sVczqrts1
p338
I1
sVddbre40
p339
I1
sVd256t9d
p340
I1
sVczj4koo
p341
I1
sVddc1ort
p342
I1
sVd1icyin
p343
I1
sVd2l38l9
p344
I1
sVd1bxu1u
p345
I1
sVcykpn82
p346
I1
sVdgmxz9j
p347
I1
sVd3ugd33
p348
I1
sVdjpw6ap
p349
I1
sVcz2mqqm
p350
I1
sVd3o6jx4
p351
I1
sVdg3kcv2
p352
I1
sVdc6op7y
p353
I1
sVdd657tp
p354
I1
sVd5a3if1
p355
I1
sVdhfjwxw
p356
I1
sVdc5y8q2
p357
I5
sVdbr8nbi
p358
I9
sVdcjuipo
p359
I1
sVdak02c6
p360
I2
sVd95t00x
p361
I1
sVd05y14c
p362
I1
sVd82f2ga
p363
I1
sVcyrdks7
p364
I1
sVdihicty
p365
I1
sVdmi4w7v
p366
I1
sVdn6nayc
p367
I1
sVdd5qjk9
p368
I1
sVds5zmrw
p369
I1
sVd8vmzn8
p370
I1
sVdmq9i4c
p371
I1
sVd88eyfm
p372
I1
sVd8yy0v8
p373
I1
sVd08ircw
p374
I1
sVd7fogvf
p375
I1
sVdckfqgm
p376
I1
sVczt3a0b
p377
I1
sVdcdlapg
p378
I1
sVd44pt1h
p379
I1
sVddk3z41
p380
I1
sVd33wg7v
p381
I1
sVdiy5mzf
p382
I1
sVdj00fk9
p383
I2
sVd62h0mj
p384
I1
sVczj6teb
p385
I1
sVd91ledr
p386
I1
sVczxahvo
p387
I1
sVd6pi358
p388
I1
sVd9edtc5
p389
I1
sVdr5klxh
p390
I1
sVcztntd2
p391
I1
sVcyzd0gh
p392
I1
sVde8l999
p393
I2
sVdc2lth1
p394
I1
sVd1ghmca
p395
I1
sVcz586pj
p396
I1
sVcyixtjp
p397
I1
sVd21kn0u
p398
I1
sVcym3ml9
p399
I1
sVdfeq35u
p400
I1
sVdp1eery
p401
I1
sVdhcanj9
p402
I1
sVdgrl9os
p403
I1
sVd45utog
p404
I1
sVcyhtnrc
p405
I1
sVd0tzbe2
p406
I1
sVdfnlwjv
p407
I1
sVd5ii7ih
p408
I1
sVd7kc4ew
p409
I1
sVd4b888s
p410
I1
sVcywdiwj
p411
I1
sVd19530g
p412
I1
sVddylkbi
p413
I1
sVd3u8rvf
p414
I1
sVdfmdsmf
p415
I1
sVd4fbdv6
p416
I1
sVds0eu15
p417
I1
sVdhdcour
p418
I1
sVdc9546j
p419
I2
sVd2xfkol
p420
I1
sVdjherg8
p421
I1
sVdkxycyc
p422
I1
sVcytjboi
p423
I1
sVd10ks3k
p424
I1
sVdepjdur
p425
I1
sVczgcxgb
p426
I1
sVd7l3qxm
p427
I1
sVd0inf9t
p428
I2
sVddkt3uv
p429
I1
sVddo0zov
p430
I1
sVczi7hhc
p431
I1
sVdrglb9y
p432
I1
sVdhg5pib
p433
I1
sVdj7kf6z
p434
I1
sVddndkhf
p435
I1
sVdhe3so4
p436
I2
sVdi5uil0
p437
I1
sVdhh66mt
p438
I1
sVdrrl1qx
p439
I1
sVdal2x6f
p440
I1
s.