(dp0
Vczbk6po
p1
I1
sVczen5rn
p2
I1
sVd2j1548
p3
I1
sVdnmt3m7
p4
I1
sVdihc65q
p5
I1
sVdp8yvg8
p6
I1
sVd2k4feq
p7
I1
sVd2je7bj
p8
I1
sVcyie1j1
p9
I1
sVdo77qqm
p10
I1
sVcz5523b
p11
I1
sVda9rrjc
p12
I4
sVd8fbd02
p13
I1
sVdbytqxe
p14
I1
sVcz2jv2l
p15
I1
sVd2sxxk0
p16
I2
sVd33fbu0
p17
I2
sVdrpaaqk
p18
I1
sVd8dylgl
p19
I1
sVd9z6tn6
p20
I1
sVdg892wz
p21
I2
sVdsve2qt
p22
I1
sVd6tb4f0
p23
I1
sVd1ybfja
p24
I2
sVd09w6k4
p25
I1
sVd025fdp
p26
I1
sVd21m045
p27
I1
sVdd3jmlo
p28
I6
sVd9z55p6
p29
I1
sVdettuyy
p30
I1
sVd3u487u
p31
I1
sVdey5a6c
p32
I1
sVd09w6y9
p33
I3
sVddifdia
p34
I1
sVd21mcdv
p35
I1
sVd3jqk3a
p36
I1
sVd14726k
p37
I1
sVdazwd18
p38
I1
sVdih6nex
p39
I1
sVdb70p8q
p40
I1
sVd34ko4j
p41
I1
sVd0zcqam
p42
I1
sVdjxouom
p43
I1
sVdjbyssg
p44
I2
sVczgufuy
p45
I1
sVdjf7g5w
p46
I1
sVd4klefc
p47
I1
sVdglhb6x
p48
I1
sVdd6t358
p49
I1
sVd1ugifw
p50
I1
sVdi55t1d
p51
I1
sVdtimjhv
p52
I2
sVdhc5vzt
p53
I2
sVczn7jgc
p54
I1
sVdmfcvwd
p55
I1
sVdn45yl9
p56
I1
sVdqhn0j9
p57
I1
sVdna4x83
p58
I1
sVdaw34if
p59
I1
sVd4lawiq
p60
I1
sVd2k1pvn
p61
I1
sVdj0b3pe
p62
I1
sVdb0jhd1
p63
I1
sVdn1lfxe
p64
I2
sVdnf5bpg
p65
I2
sVdbmiqw8
p66
I1
sVd8dymjo
p67
I3
sVdaw353i
p68
I1
sVd2clbgg
p69
I1
sVdhsx3vi
p70
I1
sVdha7uub
p71
I2
sVd1k2vv8
p72
I1
sVd1yo91l
p73
I1
sVd1jpmqp
p74
I2
sVd5bg2jq
p75
I1
sVdnmuyij
p76
I1
sVdnx01mf
p77
I1
sVdeu5kez
p78
I1
sVdjh040v
p79
I1
sVdrpe6h1
p80
I1
sVd8tpg6d
p81
I2
sVdcl4inz
p82
I1
sVd24bz47
p83
I2
sVdaoefin
p84
I1
sVdna3kcn
p85
I1
sVdeu05bj
p86
I1
sVdjopx7o
p87
I2
sVda4h3af
p88
I1
sVda8ijio
p89
I1
sVdd2bsyo
p90
I1
sVd9qx4l5
p91
I1
sVd259h6m
p92
I1
sVcyrirsq
p93
I1
sVczh5ara
p94
I1
sVd09wkue
p95
I3
sVdkb0h7g
p96
I1
sVdqmpfkg
p97
I2
sVd3y39o0
p98
I1
s.