(dp0
Vcyi2qq5
p1
I1
s.(dp0
Vcz76yew
p1
I1
sVcyi2qq5
p2
I1
s.(dp0
Vd0w7f53
p1
I1
sVcyi2qq5
p2
I1
s.(dp0
Vd2i0lao
p1
I1
sVcyi2qq5
p2
I1
s.(dp0
Vd3tzkbr
p1
I1
sVcyi2qq5
p2
I1
s.(dp0
Vd67t4iq
p1
I1
sVcyi2qq5
p2
I1
s.(dp0
Vd6hcx19
p1
I1
sVcyi2qq5
p2
I1
s.(dp0
Vd7ass6g
p1
I1
sVcyi2qq5
p2
I1
s.(dp0
Vd7r3yvg
p1
I1
sVcyi2qq5
p2
I1
s.(dp0
Vd8tf6xk
p1
I1
sVcyi2qq5
p2
I1
s.(dp0
Vd93t1fi
p1
I1
sVcyi2qq5
p2
I1
s.(dp0
Vd9xnwwo
p1
I1
sVcyi2qq5
p2
I1
s.(dp0
Vdaavcn6
p1
I1
sVcyi2qq5
p2
I1
s.(dp0
Vdao1rtf
p1
I1
sVcyi2qq5
p2
I1
s.(dp0
Vdapfki9
p1
I1
sVcyi2qq5
p2
I1
s.(dp0
Vddex2c8
p1
I1
sVcyi2qq5
p2
I1
s.(dp0
Vdey56hz
p1
I1
sVcyi2qq5
p2
I1
s.(dp0
Vdhr038m
p1
I1
sVcyi2qq5
p2
I1
s.(dp0
Vdj2skx8
p1
I1
sVcyi2qq5
p2
I1
s.(dp0
Vdjcu6k7
p1
I1
sVcyi2qq5
p2
I1
s.(dp0
Vdjjhbqf
p1
I1
sVcyi2qq5
p2
I1
s.