(dp0
Vcyj9d6b
p1
I1
s.(dp0
Vcyj9d6b
p1
I1
sVczks34i
p2
I1
s.(dp0
Vcyj9d6b
p1
I1
sVczr8nxi
p2
I1
s.(dp0
Vcyj9d6b
p1
I1
sVczxim46
p2
I1
s.(dp0
Vcyj9d6b
p1
I1
sVd03asxv
p2
I1
s.(dp0
Vcyj9d6b
p1
I1
sVd073ua4
p2
I1
s.(dp0
Vcyj9d6b
p1
I1
sVd0eqc5t
p2
I1
s.(dp0
Vcyj9d6b
p1
I1
sVd0fl5ni
p2
I1
s.(dp0
Vd0nea6m
p1
I1
sVcyj9d6b
p2
I1
s.(dp0
Vcyj9d6b
p1
I1
sVd0pdap3
p2
I1
s.(dp0
Vcyj9d6b
p1
I1
sVd0yokv5
p2
I1
s.(dp0
Vd0zr6ke
p1
I1
sVcyj9d6b
p2
I1
s.(dp0
Vd10tpvc
p1
I1
sVcyj9d6b
p2
I1
s.(dp0
Vcyj9d6b
p1
I1
sVd128wg7
p2
I1
s.(dp0
Vcyj9d6b
p1
I1
sVd1aenlu
p2
I1
s.(dp0
Vcyj9d6b
p1
I1
sVd1djtaq
p2
I1
s.(dp0
Vcyj9d6b
p1
I1
sVd1q063m
p2
I1
s.(dp0
Vcyj9d6b
p1
I1
sVd1wbqh6
p2
I1
s.(dp0
Vcyj9d6b
p1
I1
sVd1wbqh6
p2
I1
s.(dp0
Vd3ik4nq
p1
I1
sVcyj9d6b
p2
I1
s.(dp0
Vd3ik4nq
p1
I1
sVcyj9d6b
p2
I1
s.(dp0
Vd3ik4nq
p1
I1
sVcyj9d6b
p2
I1
s.(dp0
Vd3ik4nq
p1
I1
sVcyj9d6b
p2
I1
s.(dp0
Vd3uewnm
p1
I1
sVcyj9d6b
p2
I1
s.(dp0
Vcyj9d6b
p1
I1
sVd3wa2ip
p2
I1
s.(dp0
Vcyj9d6b
p1
I1
sVd4d1jzg
p2
I1
s.(dp0
Vcyj9d6b
p1
I1
sVd4d1jzg
p2
I1
s.(dp0
Vcyj9d6b
p1
I1
sVd4d1jzg
p2
I1
s.(dp0
Vcyj9d6b
p1
I1
sVd4d1jzg
p2
I1
s.(dp0
Vcyj9d6b
p1
I1
sVd4d1jzg
p2
I1
s.(dp0
Vcyj9d6b
p1
I1
sVd4g0cbz
p2
I1
s.(dp0
Vd4n6h3c
p1
I1
sVcyj9d6b
p2
I1
s.(dp0
Vcyj9d6b
p1
I1
sVd4tfbpv
p2
I1
s.(dp0
Vcyj9d6b
p1
I1
sVd52rmu0
p2
I1
s.(dp0
Vcyj9d6b
p1
I1
sVd53z2oy
p2
I1
s.(dp0
Vcyj9d6b
p1
I1
sVd5exdgg
p2
I1
s.(dp0
Vd5wpne6
p1
I1
sVcyj9d6b
p2
I1
s.(dp0
Vcyj9d6b
p1
I1
sVd5xmdjv
p2
I1
s.(dp0
Vcyj9d6b
p1
I1
sVd5xmdjv
p2
I1
s.(dp0
Vd675ral
p1
I1
sVcyj9d6b
p2
I1
s.(dp0
Vcyj9d6b
p1
I1
sVd6ewis7
p2
I1
s.(dp0
Vcyj9d6b
p1
I1
sVd6g5w4u
p2
I1
s.(dp0
Vcyj9d6b
p1
I1
sVd77z0wf
p2
I1
s.(dp0
Vcyj9d6b
p1
I1
sVd7n3wc4
p2
I1
s.(dp0
Vcyj9d6b
p1
I1
sVd7pzjsa
p2
I1
s.(dp0
Vcyj9d6b
p1
I1
sVd8oce93
p2
I1
s.(dp0
Vd8qgze7
p1
I1
sVcyj9d6b
p2
I1
s.(dp0
Vd8qgze7
p1
I1
sVcyj9d6b
p2
I1
s.(dp0
Vcyj9d6b
p1
I1
sVd99d6f5
p2
I1
s.(dp0
Vd9c2leb
p1
I1
sVcyj9d6b
p2
I1
s.(dp0
Vd9c2leb
p1
I1
sVcyj9d6b
p2
I1
s.(dp0
Vcyj9d6b
p1
I1
sVd9d6fwk
p2
I1
s.(dp0
Vcyj9d6b
p1
I1
sVd9d6fwk
p2
I1
s.(dp0
Vcyj9d6b
p1
I1
sVd9k13t1
p2
I1
s.(dp0
Vcyj9d6b
p1
I1
sVd9k9jzj
p2
I1
s.(dp0
Vcyj9d6b
p1
I1
sVdafhbdm
p2
I1
s.(dp0
Vcyj9d6b
p1
I1
sVdaubu3h
p2
I1
s.(dp0
Vcyj9d6b
p1
I1
sVdaztx0h
p2
I1
s.(dp0
Vcyj9d6b
p1
I1
sVdb0t1qh
p2
I1
s.(dp0
Vcyj9d6b
p1
I1
sVdb5y4dx
p2
I1
s.(dp0
Vcyj9d6b
p1
I1
sVdb9st9p
p2
I1
s.(dp0
Vdbn9u74
p1
I1
sVcyj9d6b
p2
I1
s.(dp0
Vcyj9d6b
p1
I1
sVdbo5u2c
p2
I1
s.(dp0
Vcyj9d6b
p1
I1
sVdbptq8w
p2
I1
s.(dp0
Vcyj9d6b
p1
I1
sVdbyf5mu
p2
I1
s.(dp0
Vcyj9d6b
p1
I1
sVdccyhcq
p2
I1
s.(dp0
Vcyj9d6b
p1
I1
sVdcsyb4v
p2
I1
s.(dp0
Vcyj9d6b
p1
I1
sVdcsyb4v
p2
I1
s.(dp0
Vcyj9d6b
p1
I1
sVdcsyb4v
p2
I1
s.(dp0
Vcyj9d6b
p1
I1
sVdcteo90
p2
I1
s.(dp0
Vcyj9d6b
p1
I1
sVdd7hdnd
p2
I1
s.(dp0
Vcyj9d6b
p1
I1
sVddc2ntk
p2
I1
s.(dp0
Vcyj9d6b
p1
I1
sVddiwlzb
p2
I1
s.(dp0
Vcyj9d6b
p1
I1
sVddr25l8
p2
I1
s.(dp0
Vcyj9d6b
p1
I1
sVde9dt3w
p2
I1
s.(dp0
Vcyj9d6b
p1
I1
sVde9dt3w
p2
I1
s.(dp0
Vcyj9d6b
p1
I1
sVde9dt3w
p2
I1
s.(dp0
Vdeeix54
p1
I1
sVcyj9d6b
p2
I1
s.(dp0
Vcyj9d6b
p1
I1
sVdeffneb
p2
I1
s.(dp0
Vcyj9d6b
p1
I1
sVdeffneb
p2
I1
s.(dp0
Vcyj9d6b
p1
I1
sVdel59cy
p2
I1
s.(dp0
Vcyj9d6b
p1
I1
sVderroic
p2
I1
s.(dp0
Vcyj9d6b
p1
I1
sVdesqf18
p2
I1
s.(dp0
Vdf1d1l1
p1
I1
sVcyj9d6b
p2
I1
s.(dp0
Vcyj9d6b
p1
I1
sVdfb4lav
p2
I1
s.(dp0
Vcyj9d6b
p1
I1
sVdfft83n
p2
I1
s.(dp0
Vcyj9d6b
p1
I1
sVdfqqhwm
p2
I1
s.(dp0
Vcyj9d6b
p1
I1
sVdgdu4tz
p2
I1
s.(dp0
Vcyj9d6b
p1
I1
sVdgfpkqm
p2
I1
s.(dp0
Vcyj9d6b
p1
I1
sVdgu65u1
p2
I1
s.(dp0
Vdh3hy1f
p1
I1
sVcyj9d6b
p2
I1
s.(dp0
Vcyj9d6b
p1
I1
sVdhhye1p
p2
I1
s.(dp0
Vdhi0xy5
p1
I1
sVcyj9d6b
p2
I1
s.(dp0
Vcyj9d6b
p1
I1
sVdi4h1in
p2
I1
s.(dp0
Vcyj9d6b
p1
I1
sVdibvq18
p2
I1
s.(dp0
Vcyj9d6b
p1
I1
sVdj5uten
p2
I1
s.(dp0
Vcyj9d6b
p1
I1
sVdjb83qr
p2
I1
s.(dp0
Vcyj9d6b
p1
I1
sVdjchp1c
p2
I1
s.(dp0
Vdjd3ete
p1
I1
sVcyj9d6b
p2
I1
s.(dp0
Vcyj9d6b
p1
I1
sVdjl3i7a
p2
I1
s.(dp0
Vcyj9d6b
p1
I1
sVdjl6eg9
p2
I1
s.(dp0
Vdjlbb04
p1
I1
sVcyj9d6b
p2
I1
s.(dp0
Vdjlbb04
p1
I1
sVcyj9d6b
p2
I1
s.(dp0
Vcyj9d6b
p1
I1
sVdjls9au
p2
I1
s.(dp0
Vcyj9d6b
p1
I1
sVdjmkdzb
p2
I1
s.(dp0
Vdjrs94b
p1
I1
sVcyj9d6b
p2
I1
s.(dp0
Vcyj9d6b
p1
I1
sVdjy67pp
p2
I1
s.(dp0
Vcyj9d6b
p1
I1
sVdk8y9c6
p2
I1
s.(dp0
Vcy(dp0
Vcyj9d6b
p1
I1
sVdt33z0v
p2
I1
s.