(dp0
Vczbp56n
p1
I1
s.(dp0
Vczbp56n
p1
I1
sVczekoxp
p2
I1
s.(dp0
Vczbp56n
p1
I1
sVczhetw6
p2
I1
s.(dp0
Vczbp56n
p1
I1
sVczhetw6
p2
I1
s.(dp0
Vczbp56n
p1
I1
sVczhetw6
p2
I1
s.(dp0
Vczbp56n
p1
I1
sVczhetw6
p2
I1
s.(dp0
Vczbp56n
p1
I1
sVczhetw6
p2
I1
s.(dp0
Vczbp56n
p1
I1
sVczhetw6
p2
I1
s.(dp0
Vczltp9a
p1
I1
sVczbp56n
p2
I1
s.(dp0
Vczltp9a
p1
I1
sVczbp56n
p2
I1
s.(dp0
Vd0t8eu8
p1
I1
sVczbp56n
p2
I1
s.(dp0
Vczbp56n
p1
I1
sVd133ad9
p2
I1
s.(dp0
Vd29vt2l
p1
I1
sVczbp56n
p2
I1
s.(dp0
Vd29xi8e
p1
I1
sVczbp56n
p2
I1
s.(dp0
Vczbp56n
p1
I1
sVd2bjfc0
p2
I1
s.(dp0
Vd4wy3yi
p1
I1
sVczbp56n
p2
I1
s.(dp0
Vd5mf2uq
p1
I1
sVczbp56n
p2
I1
s.(dp0
Vd5u286d
p1
I1
sVczbp56n
p2
I1
s.(dp0
Vczbp56n
p1
I1
sVd8czm1k
p2
I1
s.(dp0
Vczbp56n
p1
I1
sVd8czm1k
p2
I1
s.(dp0
Vd9btfmg
p1
I1
sVczbp56n
p2
I1
s.(dp0
Vdcnxbmd
p1
I1
sVczbp56n
p2
I1
s.(dp0
Vczbp56n
p1
I1
sVddbtju9
p2
I1
s.(dp0
Vdehsd8t
p1
I1
sVczbp56n
p2
I1
s.(dp0
Vdehsd8t
p1
I1
sVczbp56n
p2
I1
s.(dp0
Vczbp56n
p1
I1
sVdehzr9r
p2
I1
s.(dp0
Vczbp56n
p1
I1
sVdehzr9r
p2
I1
s.(dp0
Vdji2nf2
p1
I1
sVczbp56n
p2
I1
s.(dp0
Vdk3399p
p1
I1
sVczbp56n
p2
I1
s.(dp0
Vczbp56n
p1
I1
sVdk5a9jm
p2
I1
s.(dp0
Vdked13o
p1
I1
sVczbp56n
p2
I1
s.(dp0
Vdqba9wq
p1
I1
sVczbp56n
p2
I1
s.(dp0
Vdqdog9q
p1
I1
sVczbp56n
p2
I1
s.(dp0
Vczbp56n
p1
I1
sVdrvjrl4
p2
I1
s.(dp0
Vczbp56n
p1
I1
sVdrvjrl4
p2
I1
s.(dp0
Vdtip9p7
p1
I1
sVczbp56n
p2
I1
s.