(dp0
Vd29xi8e
p1
I1
sVd8czm1k
p2
I2
sVdehzr9r
p3
I2
sVczhetw6
p4
I6
sVdcnxbmd
p5
I1
sVczekoxp
p6
I1
sVdtip9p7
p7
I1
sVd5u286d
p8
I1
sVdked13o
p9
I1
sVczltp9a
p10
I2
sVddbtju9
p11
I1
sVdqba9wq
p12
I1
sVdji2nf2
p13
I1
sVd133ad9
p14
I1
sVdehsd8t
p15
I2
sVdqdog9q
p16
I1
sVd9btfmg
p17
I1
sVd4wy3yi
p18
I1
sVdk5a9jm
p19
I1
sVd0t8eu8
p20
I1
sVd5mf2uq
p21
I1
sVd29vt2l
p22
I1
sVdk3399p
p23
I1
sVczbp56n
p24
I1
sVdrvjrl4
p25
I2
sVd2bjfc0
p26
I1
s.