(dp0
Vdfasfp8
p1
I1
sVdcvb9pr
p2
I1
sVd0vs69j
p3
I1
sVdbzj3dp
p4
I1
sVdohkp3e
p5
I1
sVdmv0lmy
p6
I1
sVdirqxp4
p7
I1
sVdfnka4h
p8
I1
sVdbzijcc
p9
I1
sVcykcit1
p10
I1
sVdel2hj1
p11
I1
sVdjtiv46
p12
I1
sVd0alclu
p13
I1
sVdeinlb5
p14
I1
sVd0bai38
p15
I2
sVdqgkaup
p16
I1
sVd18276q
p17
I1
sVdj4r3x2
p18
I1
sVczb4od5
p19
I1
sVd01k7lt
p20
I1
sVd36rnrn
p21
I1
sVd1waxq5
p22
I1
sVdd25s6r
p23
I1
sVdh9q2p8
p24
I1
sVd36y0xi
p25
I1
s.