(dp0
Vcynrupq
p1
I1
s.(dp0
Vcynrupq
p1
I1
sVd2ietvj
p2
I1
s.(dp0
Vcynrupq
p1
I1
sVd2ietvj
p2
I1
s.(dp0
Vcynrupq
p1
I1
sVd2ietvj
p2
I1
s.(dp0
Vcynrupq
p1
I1
sVd2ihc1r
p2
I1
s.(dp0
Vcynrupq
p1
I1
sVdcehmor
p2
I1
s.