(dp0
Vdb182ai
p1
I3
sVd4rviw9
p2
I1
sVdbjhbh1
p3
I1
sVdjj9qn8
p4
I1
sVdeg9swo
p5
I1
sVd8rku7r
p6
I1
sVdr145hi
p7
I3
sVdc3rr8y
p8
I1
sVdam2ggc
p9
I1
sVdaktjn6
p10
I1
sVd7zcjir
p11
I2
sVd2jwapp
p12
I2
sVd7mfr96
p13
I1
sVdp2ddx0
p14
I2
sVdht6ukb
p15
I1
sVd7ibydl
p16
I1
sVd1wff8r
p17
I2
sVczy3ca0
p18
I1
sVd71o5vf
p19
I2
sVdprro1n
p20
I1
sVdabjxa4
p21
I1
sVd9fjtkm
p22
I1
sVddbea2p
p23
I2
sVdsq3p9w
p24
I2
sVcz4srt9
p25
I1
sVdhh3ma3
p26
I1
sVcyw69n5
p27
I3
sVd30nu3e
p28
I2
sVdrfy4a0
p29
I1
sVd79gu9o
p30
I1
sVdfpw7pe
p31
I1
sVd4r1dco
p32
I1
sVdpc05uw
p33
I1
sVdjakdha
p34
I1
sVdih3ugz
p35
I1
sVcyqnps3
p36
I7
sVdiuu05g
p37
I1
sVdp3ja1s
p38
I1
sVdara77k
p39
I1
sVdqni102
p40
I7
sVdeey4m7
p41
I1
sVdhjxoml
p42
I1
sVd08sxp3
p43
I1
sVdakv5uu
p44
I1
sVdkt20nu
p45
I1
sVd16bk4k
p46
I1
sVdgyoos9
p47
I1
sVdgs1km5
p48
I1
sVdc9sx2q
p49
I1
sVd03axs7
p50
I3
sVdijkiz7
p51
I1
sVdjoy581
p52
I1
sVdthljbg
p53
I1
sVd4m8995
p54
I2
sVdfdpjyj
p55
I1
sVdbk9tmw
p56
I3
sVdq5qq66
p57
I2
sVdndhs34
p58
I3
sVdq9t2n9
p59
I2
sVd7tcfb6
p60
I1
sVd185qn7
p61
I1
sVdoaup3h
p62
I1
sVdseijlc
p63
I1
sVdmy0a1a
p64
I1
sVd0dlenw
p65
I3
sVdqspudy
p66
I1
sVdbum367
p67
I1
sVd4hm5it
p68
I2
sVdeustrz
p69
I1
sVd6eopyq
p70
I1
sVdt4nk7z
p71
I1
sVdh5ygdk
p72
I1
sVd4hlkwp
p73
I1
sVdfm67rn
p74
I1
sVdfnmro2
p75
I1
sVd7hrdj2
p76
I2
sVdg4qywl
p77
I1
sVdpw849n
p78
I2
sVdh577dd
p79
I1
sVdfidbmh
p80
I2
sVd32z0oq
p81
I1
sVcynmwf0
p82
I1
sVd7x63pk
p83
I1
sVdjntr4k
p84
I1
sVd00wdy7
p85
I1
sVdaj85si
p86
I4
sVdh4tviz
p87
I2
sVdb7l65v
p88
I1
sVd4oc3rg
p89
I1
sVddj82dv
p90
I1
sVdeazzzi
p91
I1
sVd99pie7
p92
I2
sVdobwle0
p93
I4
sVdbvx9wh
p94
I3
sVdb0lzja
p95
I1
sVdt925xt
p96
I1
sVdqkinqg
p97
I1
sVd3esios
p98
I1
sVd3zeldt
p99
I1
sVczxdds6
p100
I1
sVdguzdn4
p101
I1
sVcyt0b73
p102
I1
sVcz4x1ux
p103
I5
sVd3erm67
p104
I2
sVd224r65
p105
I2
sVd8e93jg
p106
I1
sVdazsyex
p107
I1
sVd6eni1b
p108
I1
sVdesc0t6
p109
I1
sVd1xod4h
p110
I1
sVdsdyyzx
p111
I1
sVdmqgyyu
p112
I2
sVd620tqq
p113
I1
sVcyisfj8
p114
I1
sVdcfjg6k
p115
I1
sVcyukwro
p116
I1
sVdf66st8
p117
I1
sVd1eew6v
p118
I2
sVd1lvmfj
p119
I1
sVcyxjefv
p120
I2
sVd3px9e6
p121
I1
sVd8pk3ww
p122
I1
sVdpqubnu
p123
I5
sVdodns9t
p124
I1
sVczcxkfa
p125
I1
sVd8ja4vv
p126
I1
sVd3xd9hs
p127
I2
sVdc9j5n3
p128
I1
sVdjxo954
p129
I1
sVd0dyhwt
p130
I2
sVd9xqtoh
p131
I3
sVd6cjs9t
p132
I2
sVdbhfi7y
p133
I1
sVdpsdi7s
p134
I1
sVd7hyxin
p135
I1
sVda13nve
p136
I1
sVd8eq3eb
p137
I2
sVd6jkquf
p138
I2
sVdbgwqvs
p139
I1
sVd9806ku
p140
I1
sVdehii9o
p141
I2
sVd96p2ur
p142
I1
sVd2doloq
p143
I1
sVd53epwg
p144
I1
sVd8cqa1e
p145
I1
sVd5gp9jq
p146
I1
sVd6ty3mj
p147
I1
sVdhhx97o
p148
I1
sVdkkr1wa
p149
I3
sVd9bdv8s
p150
I1
sVdds13y2
p151
I1
sVcypj9kz
p152
I1
sVd566sxw
p153
I2
sVd177nf9
p154
I1
sVd2dfzt1
p155
I1
sVdin8ysi
p156
I1
sVd1499qh
p157
I1
sVdjxxpri
p158
I1
sVd893ugx
p159
I1
sVdilqqxy
p160
I1
sVdb1gfz3
p161
I2
sVd149c63
p162
I2
sVdkdb7fz
p163
I1
sVdjl3i7a
p164
I1
sVdb4g7w9
p165
I1
sVdbvd6ge
p166
I1
sVdah6aey
p167
I1
sVdqlint7
p168
I1
sVdq5fttd
p169
I2
sVd454plv
p170
I1
sVd4huw7o
p171
I1
sVd1rykld
p172
I2
sVdc00dz5
p173
I1
sVda85llp
p174
I1
sVd4ne3bj
p175
I1
sVd7nzeev
p176
I1
sVcz88bq0
p177
I2
sVcz1fzqg
p178
I1
sVd69mnz7
p179
I1
sVdtbko2u
p180
I1
sVd18yn6x
p181
I2
sVd3f9em6
p182
I5
sVds9m1kr
p183
I2
sVdpxx7bp
p184
I3
sVdbs2xbw
p185
I1
sVd792xa6
p186
I1
sVd9gpn7d
p187
I1
sVdkyqtwn
p188
I1
sVd1i4cd7
p189
I1
sVdcgdps2
p190
I1
sVd3wnv7g
p191
I5
sVd86ys7x
p192
I1
sVdhprya6
p193
I1
sVd2501v9
p194
I1
sVd32hffd
p195
I1
sVdsd5q7y
p196
I1
sVd0x9bkc
p197
I2
sVd85sxdr
p198
I1
sVcz8koov
p199
I1
sVdeg6epv
p200
I1
sVd13417s
p201
I1
sVdmt1l7p
p202
I1
sVdgw43da
p203
I1
sVdhrbm1y
p204
I2
sVd4apv6x
p205
I1
sVd1ojgxq
p206
I3
sVdgapuv0
p207
I1
sVdaag633
p208
I1
sVd2kgmxi
p209
I1
sVd4fwkaj
p210
I2
sVd1q2wg4
p211
I2
sVd5u7vod
p212
I1
sVd9asqq3
p213
I1
sVd3nl1gz
p214
I2
sVd5ej5gr
p215
I1
sVdqrumcf
p216
I1
sVdd5wdg7
p217
I1
sVcyngryg
p218
I1
sVdnubu06
p219
I1
sVd7707tu
p220
I1
sVdceebk3
p221
I1
sVdsaqblj
p222
I1
sVdqdjnlx
p223
I1
sVd27ciqr
p224
I1
sVd4gzr8c
p225
I1
sVd01z2l2
p226
I1
sVdj1laau
p227
I1
sVdph1bhz
p228
I1
sVdo357uq
p229
I3
sVd5vov38
p230
I1
sVddu60op
p231
I1
sVd6gol9z
p232
I1
sVdc8otag
p233
I1
sVdhxmlwr
p234
I1
sVdd0a2u0
p235
I1
sVczxfd9a
p236
I1
sVd40wvl1
p237
I1
sVdmufs5l
p238
I1
sVdk9lw6b
p239
I1
sVdqj9j3e
p240
I1
sVdqdxvz4
p241
I2
sVdhs39z0
p242
I1
sVdbigw4q
p243
I1
sVd54nd0r
p244
I1
sVd9mv985
p245
I1
sVd2oy5k8
p246
I1
sVd6xgpa2
p247
I1
sVdrs7fqk
p248
I2
sVd7ts91i
p249
I2
sVd3mwrla
p250
I2
sVd436e21
p251
I1
sVd5glw7q
p252
I2
sVds008zc
p253
I1
sVdiib3h0
p254
I1
sVd4yjfzi
p255
I1
sVd6dac44
p256
I5
sVdq8i4pt
p257
I1
sVd7ynlvo
p258
I3
sVd8ev5b5
p259
I1
sVdmfrnkb
p260
I1
sVdo1wkzt
p261
I2
sVd1r7d42
p262
I2
sVdo7gvdt
p263
I1
sVdd0q5z0
p264
I1
sVdc7rkz1
p265
I1
sVdiizu4b
p266
I1
sVdrufgz3
p267
I2
sVdde52pn
p268
I1
sVd0j8zu4
p269
I1
sVd20ah2q
p270
I1
sVd91ce0j
p271
I1
sVdeeyha5
p272
I1
sVdbtwdng
p273
I1
sVdgi37b1
p274
I1
sVcyi803g
p275
I1
sVdchm5fc
p276
I1
sVd39y507
p277
I1
sVd777p84
p278
I2
sVczpf8up
p279
I1
sVd63xldr
p280
I1
sVdq8aiha
p281
I4
sVdcdurxs
p282
I1
sVd6q4eop
p283
I1
sVdesz6n4
p284
I1
sVdbm4uhi
p285
I5
sVde2i3yh
p286
I1
sVdkdlkq3
p287
I1
sVdht1gfq
p288
I1
sVd37pnuz
p289
I1
sVcyz3lx5
p290
I1
sVd202kya
p291
I1
sVdfigit7
p292
I1
sVdnnyze0
p293
I1
sVd1tt0eh
p294
I1
sVdegmvuc
p295
I1
sVdpfqmfn
p296
I3
sVdf3bb99
p297
I1
sVd43pxhj
p298
I1
sVdpsdlh0
p299
I1
sVd44wpbu
p300
I4
sVd1cccua
p301
I1
sVcyvs03t
p302
I1
sVdfd347s
p303
I1
sVd3y0s0g
p304
I1
sVd9zlx2v
p305
I1
sVdomg0w8
p306
I3
sVd4v0c6r
p307
I1
sVdeusw5m
p308
I1
sVd4h27wc
p309
I1
sVdozf1ba
p310
I1
sVczduh5a
p311
I1
sVdde1dbu
p312
I1
sVd8eyd8p
p313
I5
sVdi89g6t
p314
I1
sVdmfcel5
p315
I1
sVdkjgl4q
p316
I1
sVdr32zue
p317
I1
sVd488u7u
p318
I3
sVdrmmp5c
p319
I1
sVdc2rpfr
p320
I1
sVdnor6ql
p321
I1
sVd9l8qhw
p322
I1
sVd8aveso
p323
I1
sVdky32eo
p324
I1
sVdbpwbs0
p325
I1
sVdpm2crv
p326
I3
sVczrr34j
p327
I1
sVd4fxiod
p328
I1
sVd2yf611
p329
I1
sVd2yf10s
p330
I1
sVddghgq5
p331
I1
sVdc2iwx7
p332
I2
sVd8hjlug
p333
I1
sVdovojqv
p334
I2
sVdnxa4ar
p335
I1
sVdijssmn
p336
I1
sVdjabux2
p337
I2
sVds7qasa
p338
I1
sVdbcldmi
p339
I1
sVd62ag2x
p340
I1
sVd5mwbjh
p341
I3
sVdhr05r7
p342
I1
sVdbseykv
p343
I2
sVd0gr7dz
p344
I2
sVd4j7q3i
p345
I1
sVd8s0z7e
p346
I1
sVdt2ide5
p347
I1
sVdackz3c
p348
I1
sVdk9fws1
p349
I1
sVdq2oexu
p350
I1
sVdqsoomb
p351
I1
sVcz58w3s
p352
I1
sVdnd12f1
p353
I1
sVd7yr96r
p354
I1
sVdi0i3n3
p355
I3
sVd6xer6q
p356
I3
sVd6eilrl
p357
I1
sVd1hom60
p358
I1
sVdegxgk3
p359
I1
sVd5uqb7v
p360
I1
sVdk6nzwe
p361
I1
sVd378686
p362
I1
sVdel1neq
p363
I1
sVdrrat6r
p364
I1
sVdj20r0t
p365
I1
sVdtbuho5
p366
I1
sVdqd7osr
p367
I3
sVdf7i3u2
p368
I2
sVdgw6k5r
p369
I1
sVdfcgif0
p370
I1
sVdcmrkqw
p371
I1
sVdb2nfg3
p372
I1
sVdpiy4k6
p373
I2
sVd3c8d1j
p374
I1
sVdbbw0in
p375
I1
sVd256593
p376
I1
sVd2ub9wh
p377
I1
sVdp3xog2
p378
I1
sVdde5aji
p379
I1
sVdbtl2me
p380
I1
sVdd7hpma
p381
I1
sVdjwwliw
p382
I1
sVd9vlsqe
p383
I1
sVdcw68h3
p384
I1
sVdiopomj
p385
I1
sVcyju01q
p386
I1
sVd7jxtth
p387
I3
sVd23oa7a
p388
I1
sVd5a9t1y
p389
I1
sVdihiacz
p390
I1
sVd82xs8i
p391
I1
sVd5hm4yx
p392
I1
sVd2m4wie
p393
I1
sVdh18fr0
p394
I4
sVd1vqmra
p395
I1
sVdh9r7zi
p396
I1
sVd5gmaqk
p397
I2
sVcylabdl
p398
I1
sVczaoca8
p399
I1
sVdjhxbmx
p400
I1
sVd327tkq
p401
I1
sVd4p4eku
p402
I1
sVdhvp1x7
p403
I7
sVdeofai9
p404
I2
sVdaj8r1m
p405
I1
sVd4r1jju
p406
I2
sVdq80bcl
p407
I1
sVd9fd1ss
p408
I1
sVd66n3e1
p409
I1
sVd3eptli
p410
I1
sVd7blo0v
p411
I2
sVd0csumv
p412
I1
sVd98cnl3
p413
I1
sVdegyppu
p414
I2
sVd5mzw75
p415
I1
sVcziqhro
p416
I4
sVddis31l
p417
I1
sVd6uh58u
p418
I1
sVd1j6vmg
p419
I2
sVd1ojrq8
p420
I1
sVd5gll8p
p421
I1
sVdb0qon3
p422
I3
sVd8iz8xm
p423
I4
sVdk1cwdx
p424
I1
sVd03atgx
p425
I1
sVczamdmg
p426
I1
sVdg415fq
p427
I1
sVdedizz6
p428
I7
sVczoylte
p429
I2
sVdgfnujy
p430
I2
sVd04laml
p431
I2
sVdipl9dy
p432
I1
sVcywsw8s
p433
I2
sVcymqznp
p434
I3
sVcz9247b
p435
I1
sVd349gro
p436
I1
sVdd0v9km
p437
I1
sVdas32xv
p438
I2
sVdcn68sl
p439
I1
sVd0x4p8m
p440
I1
sVdalzabr
p441
I1
sVdd9y9cq
p442
I1
sVd79cz34
p443
I1
sVdpu0l51
p444
I1
sVdiunz3y
p445
I2
sVdf9ooth
p446
I1
sVdc1jhgs
p447
I2
sVdkchzds
p448
I2
sVd9r94dc
p449
I1
sVdngm96b
p450
I1
sVd8um6k0
p451
I2
sVd3q4qcs
p452
I2
sVd9ewmih
p453
I1
sVd3syjlf
p454
I1
sVdbq5mhy
p455
I2
sVd43agxp
p456
I6
sVdgj31cd
p457
I1
sVdfu871c
p458
I1
sVdc8rbr5
p459
I2
sVdajzass
p460
I2
sVdpqzx7i
p461
I1
sVd1s896e
p462
I1
sVdkqyof6
p463
I1
sVcynllam
p464
I1
sVdj6pkpq
p465
I3
sVd66sfvl
p466
I2
sVczdygp4
p467
I2
sVdbginl0
p468
I1
sVdrjof5g
p469
I1
sVdax1v7y
p470
I1
sVdjwvsma
p471
I1
sVd5ykoy5
p472
I1
sVd629h10
p473
I1
sVd1bpi07
p474
I1
sVd8pgeie
p475
I2
sVd6jknm4
p476
I1
sVd86yav1
p477
I1
sVdrl5jdf
p478
I2
sVderlfu4
p479
I1
sVdc9qnnu
p480
I1
sVd440m4p
p481
I5
sVdg8hso7
p482
I1
sVdfg1l6k
p483
I1
sVdqvico9
p484
I1
sVd1f6s8t
p485
I1
sVdeyowto
p486
I1
sVdf6yojv
p487
I2
sVdbydahd
p488
I1
sVdh3jqmj
p489
I4
sVdcgl9ii
p490
I2
sVda9m7f4
p491
I2
sVdjoslp6
p492
I1
sVde3wpam
p493
I2
sVd98co3r
p494
I1
sVdh2waq1
p495
I2
sVdd7dzgf
p496
I1
sVd2o4apy
p497
I1
sVczjyp3a
p498
I1
sVd4xe1py
p499
I1
sVda7l64i
p500
I1
sVdmsywwl
p501
I1
sVczi620c
p502
I1
sVd28ee8f
p503
I1
sVdgf62gs
p504
I1
sVdftttbz
p505
I1
sVdj1yvvr
p506
I3
sVd5ehuvq
p507
I1
sVczlt52q
p508
I1
sVdo36kat
p509
I3
sVd478a7o
p510
I1
sVdhhdb1z
p511
I1
sVddq0mbw
p512
I2
sVd7gbwy6
p513
I1
sVdc758v1
p514
I1
sVdi0ewko
p515
I1
sVdg76za9
p516
I1
sVdcrx269
p517
I4
sVdf1z8ck
p518
I1
sVdd044rp
p519
I1
sVd4vbeh8
p520
I2
sVczk5d5b
p521
I1
sVd684l8d
p522
I2
sVdc1g0cy
p523
I1
sVdj68nhj
p524
I1
sVczmv79y
p525
I1
sVdcel4yy
p526
I7
sVd1ttd6t
p527
I1
sVdkrqisx
p528
I1
sVd2hc6jv
p529
I1
sVcyj1cg3
p530
I1
sVczxzdag
p531
I1
sVd6imvht
p532
I1
sVdcuicwe
p533
I1
sVdr2qx79
p534
I2
sVdbe8ihp
p535
I1
sVd447fzh
p536
I1
sVdqx1vj4
p537
I1
sVdcy9e9s
p538
I2
sVd6kar62
p539
I1
sVd2kgqin
p540
I1
sVdqcf7nt
p541
I3
sVdoey0bt
p542
I4
sVdn3dils
p543
I1
sVdep7rpu
p544
I1
sVdh4zs66
p545
I1
sVdk0lsea
p546
I1
sVdr0nbta
p547
I1
sVdfs35g2
p548
I1
sVd2kznzk
p549
I1
sVdf0mw5x
p550
I1
sVd5ghbnt
p551
I1
sVd901mih
p552
I2
sVda7t9rk
p553
I1
sVddwbtgq
p554
I1
sVdkh1j0r
p555
I1
sVdjp267u
p556
I1
sVde3jkx8
p557
I5
sVds18dzf
p558
I1
sVd47dg6g
p559
I1
sVdguad7z
p560
I2
sVd5hkfy7
p561
I5
sVdrv1f33
p562
I5
sVd59fvxd
p563
I1
sVd00v3bx
p564
I2
sVdgxt94o
p565
I3
sVdcm5kas
p566
I2
sVdrdjnso
p567
I3
sVd8fvssw
p568
I1
sVdric93m
p569
I1
sVd4tvr4v
p570
I1
sVdc237br
p571
I1
sVdbvyvlw
p572
I1
sVdeqo203
p573
I1
sVd7cbmeu
p574
I1
sVd18u2dm
p575
I4
sVdp32zgl
p576
I1
sVdhzrx0i
p577
I2
sVd31rdlj
p578
I1
sVd2zub3r
p579
I2
sVd5gan93
p580
I1
sVczumivz
p581
I1
sVdr3lp2j
p582
I1
sVddk2ox0
p583
I1
sVdcbevv6
p584
I1
sVdaeuhc4
p585
I1
sVdnwah38
p586
I2
sVdh8ffwo
p587
I1
sVdgdq45k
p588
I1
sVd3tsfdu
p589
I1
sVd84nm0z
p590
I1
sVcyxnp6k
p591
I1
sVdcmgidv
p592
I1
sVd69yqug
p593
I1
sVd830rig
p594
I1
sVdjmt5vj
p595
I1
sVdb0ai58
p596
I1
sVd5fv5e4
p597
I1
sVdd1fh4k
p598
I2
sVdfevi0d
p599
I1
sVdj1zntv
p600
I1
sVd3dmly4
p601
I1
sVdjr4jaq
p602
I1
sVd6o3rqj
p603
I1
sVde1ctgm
p604
I1
sVda5dyx9
p605
I1
sVdj8794f
p606
I1
sVdjrvub3
p607
I1
sVdsw4kvv
p608
I1
sVd0ddacp
p609
I2
sVdox7nlu
p610
I1
sVcz15msm
p611
I1
sVdgs1ia7
p612
I1
sVdpjccig
p613
I1
sVdh0ig4x
p614
I1
sVdhfoi5j
p615
I1
sVdnqr8c9
p616
I1
sVdo25819
p617
I1
sVd6movbt
p618
I1
sVdmnjv2k
p619
I2
sVd467qc8
p620
I2
sVdb7u304
p621
I2
sVd9nw5u8
p622
I2
sVdbxr68e
p623
I2
sVdbswic8
p624
I1
sVd2zym0g
p625
I1
sVdh52y1o
p626
I1
sVddf2gko
p627
I1
sVdayopfa
p628
I1
sVdepktda
p629
I1
sVdr0jr2z
p630
I1
sVdkswk3l
p631
I1
sVczgz1kx
p632
I1
sVd3eq5m9
p633
I3
sVdd7hpeo
p634
I2
sVdd6oiqn
p635
I2
sVdhvfwpr
p636
I1
sVdeujtc9
p637
I1
sVd4r78df
p638
I1
sVdqkdvz9
p639
I1
sVde5gqmm
p640
I2
sVd11f4r1
p641
I6
sVd4ce606
p642
I2
sVdjkk0sa
p643
I1
sVczabgbl
p644
I1
sVd046vsd
p645
I2
sVd97p400
p646
I1
sVdqyx9o8
p647
I1
sVd42qs4e
p648
I2
sVdhdv1yx
p649
I1
sVd8w5uct
p650
I1
sVd7718sz
p651
I1
sVd4xo1vo
p652
I1
sVcz4x2ti
p653
I2
sVdbzfuox
p654
I1
sVd0xr34p
p655
I1
sVczh1ng9
p656
I1
sVdfqonhq
p657
I2
sVdayu328
p658
I1
sVd2cbxk3
p659
I1
sVd4asqyn
p660
I1
sVd60vri6
p661
I1
sVdhk5ejy
p662
I1
sVder1cs9
p663
I1
sVdhs62y4
p664
I1
sVdk4mosz
p665
I1
sVcz5s22z
p666
I1
sVdbc8tp8
p667
I1
sVd82rsdx
p668
I1
sVdgflkaf
p669
I1
sVd1ciqso
p670
I1
sVdgaz0hb
p671
I1
sVczj13iw
p672
I1
sVdgxax1w
p673
I1
sVdbyy642
p674
I1
sVd0n1mue
p675
I1
sVd08rk2s
p676
I1
sVd4fm5b1
p677
I1
sVd8x64ns
p678
I1
sVdjvxk2t
p679
I1
sVde1yf3n
p680
I1
sVd6q4tvo
p681
I2
sVdb0c3d3
p682
I1
sVd3alo7b
p683
I2
sVdg5ye8q
p684
I1
sVds5bwcy
p685
I1
sVdazkq9b
p686
I2
sVd4xbp3m
p687
I1
sVd23lxan
p688
I1
sVd0tyn5t
p689
I2
sVd049uxs
p690
I1
sVcz4x95x
p691
I1
sVd2s8g8d
p692
I1
sVd5brcbp
p693
I1
sVd69e936
p694
I3
sVd6ds9a6
p695
I2
sVdf6p0a7
p696
I1
sVd4be2p1
p697
I2
sVde19vmu
p698
I1
sVdtjejl7
p699
I1
sVdhr32i3
p700
I1
sVd4ymvic
p701
I1
sVdclj9qw
p702
I1
sVds4rei1
p703
I1
sVd3mwt99
p704
I1
sVcz4t8ts
p705
I1
sVcze0syx
p706
I1
sVd3lrotc
p707
I6
sVdqu5xwu
p708
I3
sVdgflrvf
p709
I1
sVderlu2x
p710
I1
sVdfgmb5p
p711
I1
sVd13oegw
p712
I1
sVdpl9z34
p713
I1
sVczf7lmw
p714
I1
sVdai4vuv
p715
I1
sVd1616q1
p716
I1
sVdnwcpyj
p717
I1
sVd6nzqab
p718
I1
sVdcujl8i
p719
I1
sVdb7dqyo
p720
I5
sVdkmedzr
p721
I1
sVdr65h5y
p722
I1
sVdp3ofxh
p723
I1
sVdgx7m6x
p724
I2
sVdoes1x9
p725
I1
sVd2l2syd
p726
I3
sVdeht8ch
p727
I1
sVdozwyih
p728
I1
sVdhl9o63
p729
I4
sVddrih2g
p730
I2
sVdkqz82l
p731
I1
sVde83djy
p732
I2
sVdfguunj
p733
I1
sVdau4kfa
p734
I1
sVdigr0on
p735
I1
sVdibht6q
p736
I1
sVdir75qe
p737
I1
sVdhbmbzq
p738
I2
sVds4ewwf
p739
I1
sVdcm12nm
p740
I3
sVd97i8zx
p741
I3
sVdiaf91r
p742
I1
sVdpoquh5
p743
I3
sVcz4ket9
p744
I3
sVczcoeno
p745
I1
sVdfaed8n
p746
I3
sVdna4gp3
p747
I1
sVd8ffzno
p748
I1
sVdcrn6kp
p749
I1
sVdf88924
p750
I1
sVdhcvv2c
p751
I1
sVdfxdcdz
p752
I1
sVd3qchex
p753
I1
sVd9qs03l
p754
I2
sVdba2jo8
p755
I2
sVd29xt8q
p756
I1
sVdjp4rr6
p757
I1
sVdok4amv
p758
I2
sVd0xmy4i
p759
I2
sVdj592u6
p760
I1
sVd11px3f
p761
I1
sVdjvug9v
p762
I3
sVd4ohq5m
p763
I1
sVdbg6uop
p764
I1
sVd9pbp7f
p765
I1
sVdg47z70
p766
I1
sVdrodrhb
p767
I1
sVdp9jl23
p768
I1
sVd4vcqzs
p769
I1
sVd8t0btc
p770
I1
sVd6qgzoc
p771
I1
sVd2sotqp
p772
I1
sVdqrk2ky
p773
I1
sVd7jghju
p774
I1
sVd0o32u3
p775
I2
sVdqawpbi
p776
I4
sVd3d4k6o
p777
I1
sVd1xu44p
p778
I1
sVcz3d9yi
p779
I2
sVcz2cv4p
p780
I3
sVdhleqhl
p781
I2
sVdjs6esn
p782
I1
sVd01b4sx
p783
I1
sVd41nwif
p784
I1
sVdekgic7
p785
I1
sVd711o9f
p786
I1
sVdca9wj1
p787
I1
sVdqivq5p
p788
I1
sVdcex26l
p789
I1
sVd33y3wq
p790
I1
sVdf2ijmd
p791
I1
sVd91bix7
p792
I2
sVd4rw6jd
p793
I1
sVdmhfe02
p794
I2
sVdhd8yr0
p795
I1
sVcz956ly
p796
I1
sVcznti3l
p797
I2
sVd7luqe9
p798
I1
sVd73ksd0
p799
I4
sVd89g9d2
p800
I1
sVdsg8c7z
p801
I1
sVdigfxss
p802
I1
sVd9l3mzk
p803
I1
sVdjwncqr
p804
I1
sVd3eps3e
p805
I1
sVd6bgibm
p806
I2
sVdbkxkmd
p807
I1
sVde45hjw
p808
I1
sVd2kmy7n
p809
I2
sVd08ziw9
p810
I1
sVd817ez1
p811
I1
sVdeuxugu
p812
I1
sVd5gx72m
p813
I2
sVd2kctb1
p814
I1
sVd9u65vk
p815
I1
sVd42hcc7
p816
I1
sVdkig3qa
p817
I1
sVcztdb0v
p818
I1
sVdhtov7f
p819
I1
sVdhta5la
p820
I1
sVdgmxwr3
p821
I1
sVdh66d7c
p822
I1
sVdkrlt5x
p823
I1
sVd35jy0y
p824
I2
sVd9ycze6
p825
I1
sVdpdl429
p826
I1
sVd0ydafn
p827
I2
sVdt3atc4
p828
I1
sVdcd7amv
p829
I2
sVd4vgmpd
p830
I1
sVdd2tixm
p831
I3
sVd4izu4x
p832
I1
sVd0zu5c6
p833
I1
sVdasv3ec
p834
I1
sVd7z9s4k
p835
I1
sVdcjz5d5
p836
I1
sVd2sm32b
p837
I1
sVdeualxp
p838
I1
sVdbff110
p839
I1
sVdeunrmn
p840
I4
sVdjosz7q
p841
I2
sVdiqoye3
p842
I4
sVd9fb1tz
p843
I1
sVdgj7ey5
p844
I1
sVd2euley
p845
I1
sVdbjtn22
p846
I12
sVd911f1c
p847
I1
sVdn6j0cv
p848
I1
sVdcfli8j
p849
I1
sVcyv1v85
p850
I1
sVcz9eu5h
p851
I1
sVdif0ewi
p852
I1
sVdq82480
p853
I1
sVdpdro4v
p854
I1
sVdjcmiw2
p855
I1
sVdiqfir7
p856
I5
sVd3pgkvp
p857
I4
sVd9on9me
p858
I1
sVdec1dfi
p859
I1
sVd3jrz5n
p860
I2
sVdpi15wr
p861
I2
sVdho39tr
p862
I1
sVd9el5fr
p863
I1
sVdez8rrn
p864
I5
sVdfymfkk
p865
I3
sVd3t7gfw
p866
I1
sVd7uuttb
p867
I1
sVdo059j1
p868
I1
sVdjbavot
p869
I1
sVde3rgsw
p870
I1
sVdshur7r
p871
I1
sVd16gadm
p872
I2
sVd6a3teo
p873
I1
sVdej9rur
p874
I1
sVd8fphf0
p875
I1
sVd0o4arc
p876
I1
sVdmmtnhv
p877
I1
sVd14ofu3
p878
I6
sVdalw1n2
p879
I1
sVd62ouqh
p880
I1
sVd7ij7mi
p881
I1
sVd5lhf32
p882
I1
sVczkwocd
p883
I1
sVdp75ck8
p884
I1
sVd87fb0a
p885
I1
sVdk0ljzy
p886
I3
sVdo25ekl
p887
I8
sVd6qlf0u
p888
I2
sVdrk3a37
p889
I2
sVdgehp47
p890
I2
sVd51hy0w
p891
I2
sVd9m4b07
p892
I1
sVdf9wx9k
p893
I1
sVd7f9jw1
p894
I1
sVcyv3bmd
p895
I1
sVdftc2un
p896
I2
sVd0ue4t9
p897
I1
sVd5ad5ha
p898
I2
sVdnuc07n
p899
I1
sVdc2e88b
p900
I2
sVdefqnv1
p901
I2
sVdblbowh
p902
I1
sVdrias07
p903
I2
sVdesuu7m
p904
I1
sVdc769ok
p905
I1
sVdkatzku
p906
I1
sVdpm25c0
p907
I1
sVd3h4n1s
p908
I1
sVcz4xgkz
p909
I1
sVdcwv6os
p910
I2
sVdbui4d6
p911
I1
sVcyujj27
p912
I2
sVdmko61w
p913
I1
sVd1w0z7u
p914
I1
sVd061uzn
p915
I1
sVdpjr6rb
p916
I1
sVd4uk39m
p917
I1
sVda88lzs
p918
I1
sVd0jhcpz
p919
I1
sVdh2tm45
p920
I1
sVcz9wf5a
p921
I1
sVdgzn0s8
p922
I1
sVd90jnz0
p923
I1
sVd9nhvy4
p924
I1
sVd8esej8
p925
I1
sVd3g6fll
p926
I1
sVd4ft818
p927
I1
sVdcgmx4m
p928
I1
sVddmob1n
p929
I1
sVdhs83fd
p930
I1
sVdff4v62
p931
I1
sVdhn0rr9
p932
I1
sVdq34yxg
p933
I1
sVdq4tgqb
p934
I1
sVd6veoky
p935
I1
sVdixle8l
p936
I1
sVdjf3pak
p937
I1
sVdi2ncsn
p938
I3
sVcyjkxue
p939
I1
sVd6nz3je
p940
I1
sVd5wy0pn
p941
I1
sVczin6pl
p942
I1
sVd8as4zi
p943
I1
sVd1rhmnl
p944
I1
sVdfvz0z5
p945
I1
sVdk3iemo
p946
I1
sVd79bga5
p947
I1
sVdp7crwz
p948
I3
sVd0acn4k
p949
I1
sVd2mqma2
p950
I1
sVd6c6u7i
p951
I3
sVdsd086j
p952
I1
sVdg7shd3
p953
I1
sVd2ralyo
p954
I1
sVcyvczpk
p955
I1
sVds6k4at
p956
I1
sVdessylz
p957
I1
sVdqgwotz
p958
I3
sVdc7jegg
p959
I2
sVdpdu1hh
p960
I2
sVdj5mox5
p961
I1
sVd4zcv6y
p962
I1
sVd11gyc1
p963
I2
sVd53wof6
p964
I2
sVd8ffjri
p965
I1
sVd4cpcb2
p966
I1
sVd6xh7r8
p967
I1
sVd13m9su
p968
I1
sVdt56gq6
p969
I4
sVd0n74t4
p970
I1
sVdj7r4u2
p971
I1
sVdf4xdkv
p972
I1
sVcyq0p3t
p973
I1
sVdan40rd
p974
I1
sVcyx4gc6
p975
I1
sVdcgkpnr
p976
I1
sVdad1inq
p977
I1
sVd4hxhjk
p978
I1
sVdcu0r4z
p979
I2
sVczjha70
p980
I1
sVdgba4rr
p981
I1
sVdk2d3or
p982
I1
sVd1k1paj
p983
I2
sVd4fui5b
p984
I2
sVd3w0lbh
p985
I1
sVd4rzxf8
p986
I1
sVdb3ku67
p987
I3
sVda1cud1
p988
I1
sVdn4sl54
p989
I1
sVdi36du7
p990
I2
sVd7dg2q7
p991
I1
sVczhetw6
p992
I1
sVcys6423
p993
I1
sVdkrjva7
p994
I3
sVd64z8h8
p995
I1
sVcz01qc8
p996
I1
sVdkry2dc
p997
I1
sVdhfis3m
p998
I1
sVdhlsf9s
p999
I3
sVda4mdkt
p1000
I2
sVde0wiql
p1001
I1
sVd6079b3
p1002
I1
sVdrbglep
p1003
I2
sVd3xue04
p1004
I1
sVdo2r2m1
p1005
I1
sVd04kkop
p1006
I3
sVd7rskgz
p1007
I1
sVdkyonxr
p1008
I1
sVd797qfz
p1009
I5
sVd6fb85n
p1010
I2
sVdbbgj05
p1011
I1
sVdht4ao9
p1012
I1
sVdh3w7q6
p1013
I1
sVd1uvexc
p1014
I1
sVd5mu2ut
p1015
I1
sVdg7g3ni
p1016
I2
sVddgvbia
p1017
I1
sVd0xcfor
p1018
I1
sVdev7m4w
p1019
I1
sVdh4y7cq
p1020
I1
sVcyjcswz
p1021
I1
sVdbvhfqm
p1022
I1
sVdiqf8ee
p1023
I2
sVde55wbx
p1024
I1
sVd1i4fup
p1025
I2
sVdg3e2me
p1026
I2
sVd3543sb
p1027
I1
sVdrubesn
p1028
I2
sVdeep5bg
p1029
I1
sVdicmx7w
p1030
I1
sVddtp8ak
p1031
I1
sVcz6ywt5
p1032
I1
sVdhs22bt
p1033
I1
sVdgcf2xb
p1034
I2
sVdq2zdnj
p1035
I1
sVd1zfyrb
p1036
I1
sVd2cgt66
p1037
I1
sVd3z7kqs
p1038
I1
sVdfs483n
p1039
I2
sVdficadj
p1040
I1
sVd9028zd
p1041
I2
sVdq069mm
p1042
I1
sVdhhkd00
p1043
I1
sVd5m8wt5
p1044
I1
sVd0odppp
p1045
I2
sVd1fghiy
p1046
I1
sVdqto5wc
p1047
I1
sVdsmbgrt
p1048
I1
sVdte5jcd
p1049
I2
sVdbym7el
p1050
I4
sVdchwxv2
p1051
I3
sVdbflwvd
p1052
I1
sVd1nmd9x
p1053
I1
sVcz4s2bp
p1054
I1
sVdbwh000
p1055
I1
sVda5wa1q
p1056
I1
sVd0xpx2i
p1057
I2
sVdftjlxi
p1058
I1
sVdb4zuvu
p1059
I2
sVddkpu2w
p1060
I3
sVcypufvi
p1061
I2
sVdqcvm3c
p1062
I1
sVdg6qczm
p1063
I2
sVd12ionq
p1064
I1
sVdoxaqow
p1065
I1
sVd57f3um
p1066
I1
sVczze0z0
p1067
I1
sVddiedts
p1068
I1
sVdbjj2dc
p1069
I2
sVddp2p45
p1070
I1
sVdo8wvyh
p1071
I1
sVd0dxjb0
p1072
I1
sVdpw7mnm
p1073
I1
sVdctr3vm
p1074
I1
sVda54a81
p1075
I2
sVcynvimj
p1076
I2
sVd6g9tw1
p1077
I3
sVddg7zav
p1078
I1
sVcyub4ba
p1079
I1
sVdbf15f5
p1080
I1
sVdc7gw2j
p1081
I2
sVd04rb3w
p1082
I1
sVdoggcx6
p1083
I1
sVdsufhhm
p1084
I2
sVdguw7ei
p1085
I1
sVdjrhihb
p1086
I2
sVdd4xseu
p1087
I1
sVdbgqi26
p1088
I3
sVdr2yl1o
p1089
I2
sVdi3ucjs
p1090
I1
sVd4wp252
p1091
I1
sVdentpf4
p1092
I2
sVdnyu5hg
p1093
I3
sVde9qls1
p1094
I1
sVdo5q0cr
p1095
I2
sVd8b874c
p1096
I1
sVdtiizm7
p1097
I3
sVdeinz6s
p1098
I1
sVdn9qvvr
p1099
I3
sVcza4a5n
p1100
I1
sVddjwc3f
p1101
I2
sVdir6a16
p1102
I1
sVd2e8zqw
p1103
I2
sVdn4ajfy
p1104
I3
sVd4zrru7
p1105
I1
sVdbxrdbw
p1106
I1
sVd3lrpkr
p1107
I1
sVd7xh785
p1108
I1
sVdjad25l
p1109
I3
sVdbci5r5
p1110
I1
sVczr5ct4
p1111
I1
sVdduh386
p1112
I1
sVdhajdxx
p1113
I2
sVdqk9jx8
p1114
I1
sVdhu9vi1
p1115
I1
sVdc6h7hc
p1116
I1
sVdi784lv
p1117
I1
sVdqlpy02
p1118
I1
sVdi4r59u
p1119
I1
sVda5yx03
p1120
I1
sVdd59v1u
p1121
I2
sVczc3vkb
p1122
I1
sVcz0kesc
p1123
I1
sVd9fkciw
p1124
I1
sVd3ex1r2
p1125
I1
sVd2116vc
p1126
I2
sVdifax5k
p1127
I1
sVda9f8l5
p1128
I1
sVdd0k6d0
p1129
I1
sVd542adh
p1130
I3
sVd5pwifs
p1131
I1
sVd9p6xro
p1132
I1
sVd21ikn6
p1133
I1
sVdgvkvmr
p1134
I1
sVczeto3k
p1135
I1
sVd3eqmue
p1136
I3
sVdfq34uc
p1137
I1
sVds42xe6
p1138
I1
sVd7m3ars
p1139
I1
s.