(dp0
Vd5seepd
p1
I1
sVdd033ue
p2
I1
sVd23k15a
p3
I2
sVd2lfzk0
p4
I1
sVd1lj7c9
p5
I1
sVd9m9rw7
p6
I1
sVdn85hqr
p7
I1
sVdaibk3m
p8
I1
sVczau01v
p9
I1
sVdsmchay
p10
I1
sVdcy33yi
p11
I1
sVd7nrf7i
p12
I1
sVddxv74k
p13
I1
sVddb3kjm
p14
I1
sVcynd5kg
p15
I1
sVdou6fw6
p16
I1
sVczyoe1i
p17
I1
sVdou3b3s
p18
I1
sVd2wh2yr
p19
I1
sVd1wcmup
p20
I1
sVdnv37kk
p21
I1
sVdmzuxt1
p22
I1
sVd8xsz1h
p23
I1
sVd3jk2jf
p24
I1
sVczyeuxm
p25
I1
sVdt424hv
p26
I1
sVdnxqk5d
p27
I1
sVdt68hic
p28
I1
sVda2qyd9
p29
I1
sVdfwpx2t
p30
I1
sVdqvnt7s
p31
I1
sVdaevbo2
p32
I1
sVd5eee3y
p33
I1
sVd33c56q
p34
I1
sVcyptys7
p35
I2
sVdjs75uk
p36
I1
sVd3zmyf1
p37
I1
sVdr13ic1
p38
I1
sVd91azzw
p39
I1
sVddno679
p40
I1
sVdrw9wfq
p41
I1
sVd57j64a
p42
I1
sVd9b9tem
p43
I1
sVdbvddln
p44
I1
sVdfgazoq
p45
I1
sVdnybger
p46
I1
sVdd2lhhn
p47
I1
s.