(dp0
Vdc6b8r4
p1
I1
sVdb056mn
p2
I1
sVdj7y9x7
p3
I1
sVddlw5a7
p4
I2
sVddeyuum
p5
I1
sVdhete9y
p6
I2
sVddyormk
p7
I1
sVdooliwn
p8
I1
sVdsgts13
p9
I1
sVdo8yy9k
p10
I1
sVdhrlc23
p11
I1
sVd0k6egh
p12
I1
sVdnfv8xv
p13
I1
sVdk3amwt
p14
I1
sVdffzet6
p15
I1
sVd2y71zm
p16
I1
sVd2q6e82
p17
I1
sVdfxh5df
p18
I1
sVdfbp5lr
p19
I1
sVdc2s7mf
p20
I1
sVdf3nvq5
p21
I1
sVdace9we
p22
I5
sVdooihj1
p23
I1
sVczwlemg
p24
I1
sVdkkiv5t
p25
I2
sVdrlw7lg
p26
I1
sVdfinqwo
p27
I1
sVdd4m2fp
p28
I1
sVdq4bc9y
p29
I1
sVdkqvcfa
p30
I1
sVdjmh2kk
p31
I1
sVd3ccyh4
p32
I1
sVderrko4
p33
I1
sVd0b9cqq
p34
I1
sVd22wepd
p35
I2
sVd0m6sil
p36
I1
sVdgoob62
p37
I1
sVdkq516i
p38
I1
sVd8p2ge4
p39
I1
sVd04crsq
p40
I1
sVd5rtcxw
p41
I2
sVdeatjke
p42
I1
sVdbgqpfm
p43
I1
sVd0o4ygs
p44
I1
sVd0m3cn5
p45
I1
sVd54mlow
p46
I1
sVdbvq18b
p47
I1
sVdsdx379
p48
I1
sVdjsl5ib
p49
I1
sVcz4nws2
p50
I1
sVd2s92zb
p51
I1
sVdc3afxj
p52
I1
sVd0xzwip
p53
I1
sVd7z6pfl
p54
I1
sVd3020x9
p55
I1
sVde1c0cb
p56
I1
sVdkvn0gp
p57
I1
sVd4xq7j4
p58
I1
sVd5q5zsj
p59
I1
sVdq3y2ak
p60
I1
sVd67l8wh
p61
I1
sVdhmza2c
p62
I1
sVdddfm1e
p63
I3
sVdsfo8s9
p64
I1
sVdbaomcl
p65
I3
sVd5kskch
p66
I1
sVdoj97u5
p67
I1
sVcykbqsu
p68
I1
sVd3g4b37
p69
I1
sVdbz15l3
p70
I1
sVd3fel7r
p71
I1
sVd74jlup
p72
I1
sVd2oieit
p73
I1
sVd5wqt9s
p74
I1
sVd07175l
p75
I1
sVdkn8v3g
p76
I1
sVdogblvd
p77
I1
sVd6z8ot0
p78
I1
sVdjtkoyy
p79
I2
sVd3dwf2n
p80
I1
sVd3z7qww
p81
I1
sVdrryhgr
p82
I1
sVczzxmqn
p83
I1
sVd1oj0wq
p84
I1
sVdmnchrv
p85
I1
sVcyiidqq
p86
I1
sVd5zccn5
p87
I1
sVdiyptpy
p88
I2
sVddu59n3
p89
I1
sVd08jm2r
p90
I1
sVd0lalsd
p91
I1
sVczlalki
p92
I1
sVd8v9kxa
p93
I1
sVd0ozbu2
p94
I1
sVcywsh09
p95
I1
sVdaztj77
p96
I2
sVdb1ltil
p97
I1
sVdde6jpk
p98
I2
sVdrz2sm3
p99
I1
sVcz2ac8g
p100
I1
sVdsfyvhu
p101
I1
sVdqyi22v
p102
I1
sVd7d9b65
p103
I1
sVdocifoq
p104
I1
sVdaivob5
p105
I2
sVdg24w95
p106
I1
sVd340hvl
p107
I1
sVd7m7sty
p108
I1
sVddpzuwy
p109
I1
sVda4am1g
p110
I2
sVds9xwys
p111
I1
sVdieuxzj
p112
I1
sVd5vzmfj
p113
I2
sVdkifpx0
p114
I1
sVdp5ocb2
p115
I2
sVdde8ak3
p116
I1
sVdnel78j
p117
I1
sVd8d2edi
p118
I1
sVd4v1sm2
p119
I1
sVdnke6hi
p120
I1
sVdci5pap
p121
I1
sVd7xcd6y
p122
I1
sVdcspeen
p123
I1
sVd2p5vsq
p124
I1
sVd3unt0t
p125
I1
sVdrqpot0
p126
I1
sVcyy499c
p127
I1
sVd58khkx
p128
I1
sVcz68uhv
p129
I1
sVdkrmx2w
p130
I1
sVd30lnov
p131
I1
sVda0frh4
p132
I2
sVdkx4quz
p133
I1
sVd2vs907
p134
I1
sVdmkjm9a
p135
I1
sVd2w7ilr
p136
I1
sVd00s7b7
p137
I1
sVdhh3pvy
p138
I1
sVdejm1ez
p139
I2
sVd9k846o
p140
I1
sVdfaxnoj
p141
I2
sVdhe0pq8
p142
I1
sVdkx4547
p143
I1
sVd19s7bf
p144
I1
sVdasstu4
p145
I1
sVd320s3v
p146
I1
sVdd60euu
p147
I1
sVdci2nom
p148
I1
sVddu6erc
p149
I1
sVdcdzyxp
p150
I1
sVd6jmm2y
p151
I1
sVdg5qr1w
p152
I1
sVdjc1gxk
p153
I1
sVd40pfz6
p154
I1
sVdiq46az
p155
I1
sVd79ep65
p156
I2
sVdgx7tr5
p157
I1
sVczds0ft
p158
I1
sVd59jryh
p159
I3
sVd5opyk3
p160
I1
sVdklbv7d
p161
I1
sVd07731g
p162
I1
sVdc3i60s
p163
I1
sVdf1zlf5
p164
I1
sVdba4rv3
p165
I4
sVdchx79c
p166
I1
sVdjket2m
p167
I1
sVd7c0r75
p168
I1
sVdq7e15s
p169
I1
sVdac096j
p170
I2
sVcz32atq
p171
I1
sVdachi9y
p172
I1
sVd80hp45
p173
I1
sVdfunpod
p174
I1
sVde3kcz7
p175
I1
sVd69e7af
p176
I1
sVdghzrw8
p177
I1
sVd5w1ra8
p178
I1
sVdd4wv2y
p179
I1
sVdnn3aiy
p180
I1
sVdc4b75r
p181
I1
sVdf7a5ds
p182
I1
sVcytixm1
p183
I1
sVdk7xjzi
p184
I1
sVd984830
p185
I1
sVd89u5wn
p186
I4
sVd20ek1y
p187
I1
sVdfedxf6
p188
I1
sVdjdgeby
p189
I1
sVdhxl8nn
p190
I1
sVddlhzvx
p191
I2
sVd8k547b
p192
I1
sVdoj6xlx
p193
I1
sVd0wclx6
p194
I1
sVcznr5gn
p195
I1
sVdcjar6j
p196
I1
sVd6t4i8z
p197
I2
sVd2akym3
p198
I1
sVd8c2zes
p199
I1
sVdse0g0g
p200
I1
sVd6j4sqx
p201
I2
sVcz5p5ma
p202
I1
sVd0vp9j7
p203
I1
sVdbwpooj
p204
I1
sVd0gznse
p205
I1
sVdrv5d5d
p206
I1
sVdmz3dlj
p207
I1
sVcyni7wf
p208
I1
sVd0s6x7q
p209
I1
sVd9xrqh7
p210
I1
sVdcpe6fu
p211
I1
sVdd5galc
p212
I1
sVd09mxa0
p213
I1
sVdedsngv
p214
I1
sVdadbqdi
p215
I1
sVdpl1wbq
p216
I1
sVdair35s
p217
I1
sVdds4idl
p218
I1
sVdkhu2r2
p219
I1
sVdr783xp
p220
I2
sVdnknoqi
p221
I3
sVd9awwqn
p222
I1
sVd9w3o7e
p223
I1
sVd6ifd4y
p224
I1
sVdcpo47v
p225
I1
sVdre84cm
p226
I1
sVdhd7x0u
p227
I1
sVdtgxkwf
p228
I1
sVd7901gv
p229
I1
sVd82mj31
p230
I1
sVd738yhn
p231
I1
sVd7fymat
p232
I2
sVdbc6k4g
p233
I1
sVd3sh0nx
p234
I1
sVdnji2ge
p235
I1
sVdfmpm7f
p236
I1
sVdsu992l
p237
I2
sVdbpkyuj
p238
I2
sVd5jmb0v
p239
I1
sVd1abwvp
p240
I1
sVdc0yk1d
p241
I1
sVda6ighe
p242
I1
sVd7rtvl5
p243
I2
sVds87w9j
p244
I1
sVdft8lbm
p245
I1
sVd1732zr
p246
I1
sVdi07wrm
p247
I4
sVdet2l79
p248
I1
sVd6rycbz
p249
I1
sVd93aiq6
p250
I1
sVdbctjq2
p251
I1
sVdaiwt6p
p252
I1
sVdmxwzrf
p253
I1
sVdbwb21g
p254
I1
sVcyr9b1n
p255
I1
sVdjl6eg9
p256
I1
sVd1wfuae
p257
I1
sVd89r3lx
p258
I2
sVdknmfd1
p259
I1
sVdj31pc2
p260
I1
sVd7e5qk2
p261
I1
sVd1rrst6
p262
I1
sVd69wogy
p263
I1
sVd1lmfx3
p264
I1
sVd76nm1w
p265
I1
sVd36sxcu
p266
I1
sVdr3rf6s
p267
I1
sVd9l86ap
p268
I1
sVdacbg85
p269
I1
sVd1n3la0
p270
I1
sVdmvcb39
p271
I1
sVd0yiz2u
p272
I1
sVdqa3pqz
p273
I1
sVd1gvi2t
p274
I1
sVd94hmrl
p275
I2
sVd6vbc8u
p276
I1
sVdns4fnx
p277
I1
sVd59bt82
p278
I1
sVdmy4kj6
p279
I2
sVd3pbraa
p280
I1
sVdbec6h6
p281
I1
sVdb3ld8j
p282
I1
sVd3zp2x2
p283
I1
sVdbipps8
p284
I2
sVdsidei7
p285
I1
sVcz2n70a
p286
I1
sVd22w2gt
p287
I7
sVdb7s5af
p288
I1
sVdit4yfn
p289
I2
sVd6nhbs9
p290
I1
sVdc8z9ad
p291
I1
sVdhw8mjm
p292
I1
sVdac00x4
p293
I1
sVdnttsuj
p294
I1
sVczqg8t2
p295
I1
sVd5yi8md
p296
I1
sVcz0lfn9
p297
I1
sVdetqskh
p298
I1
sVdhzniny
p299
I1
sVdfo115r
p300
I1
sVdmjbf62
p301
I1
sVdjtfmvc
p302
I2
sVd78hrg8
p303
I1
sVd1cgpl8
p304
I1
sVde2dxfd
p305
I1
sVdkjfd7j
p306
I1
sVd845g0v
p307
I1
sVdam6ga0
p308
I1
sVdhoq8k0
p309
I1
sVdc46skx
p310
I1
sVd7j1kkn
p311
I1
sVdjykgnd
p312
I1
sVd341lw5
p313
I1
sVd8frbfy
p314
I1
sVdbax1w4
p315
I1
sVdejmeer
p316
I2
sVd9viyad
p317
I1
sVdoevuqg
p318
I2
sVd9up21g
p319
I1
sVczrhy1l
p320
I1
sVd15j6rz
p321
I1
sVd01cd2b
p322
I1
sVdfx1yck
p323
I1
sVd72dn4r
p324
I1
sVdfldn0u
p325
I1
sVcyleu7u
p326
I1
sVdmkogzm
p327
I1
sVd4mk989
p328
I2
sVdhc1b5d
p329
I1
sVd9t41gk
p330
I1
sVdgfqjm6
p331
I1
sVd6bg41g
p332
I1
sVdsxr15k
p333
I2
sVded3d9d
p334
I5
sVdqnobip
p335
I1
sVdcfbwaw
p336
I2
sVdrie565
p337
I1
sVd4qbmxg
p338
I1
sVd0kxdn7
p339
I5
sVd96gioh
p340
I1
sVda8szz1
p341
I1
sVdgx8heo
p342
I1
sVdcb2ech
p343
I1
sVde96800
p344
I1
sVd3rgrwf
p345
I1
sVdaswwcg
p346
I1
sVd5w9dwe
p347
I2
sVdsznowd
p348
I1
sVdju7v5v
p349
I1
sVdt0hvxx
p350
I1
sVdf4gvmy
p351
I1
sVdieozke
p352
I1
sVdawdlwi
p353
I1
sVdjfh7iy
p354
I1
sVditgt64
p355
I1
sVdt40gas
p356
I1
sVdieqfto
p357
I1
sVdo83ne6
p358
I1
sVdba3byh
p359
I3
sVdfaanip
p360
I1
sVd1qspk6
p361
I1
sVdmikzcw
p362
I1
sVd2b6v4z
p363
I1
sVd63w8i5
p364
I1
sVdoeuwuy
p365
I1
sVczan3rc
p366
I1
sVdpjc142
p367
I1
sVdt9f1kr
p368
I1
sVd48uegk
p369
I1
sVdnwu2a6
p370
I1
sVdq0w594
p371
I1
sVd0zb21z
p372
I1
sVd2ua0rh
p373
I1
sVd1mqcyh
p374
I1
sVczosyff
p375
I4
sVdannc4s
p376
I1
sVd717jc9
p377
I1
sVdffhx6c
p378
I2
sVdbf20un
p379
I1
sVd7dzx9r
p380
I1
sVdpqnq19
p381
I1
sVdaxpd80
p382
I1
sVdq5ew5m
p383
I1
sVdowaf1p
p384
I1
sVd13vp6r
p385
I1
sVd2bfwje
p386
I1
sVdojc1h2
p387
I1
sVdgipkg9
p388
I2
sVdjygqs8
p389
I1
sVdfirr2h
p390
I2
sVd1lv499
p391
I1
sVd0bqnkw
p392
I1
sVdbrdamz
p393
I1
sVd7ij6m0
p394
I1
sVdexybf6
p395
I3
sVd37m3cw
p396
I1
sVd1r4m9k
p397
I1
sVd2qat1n
p398
I1
sVdhqohsl
p399
I1
sVdeysb6w
p400
I1
sVdce8iei
p401
I2
sVcztkbvr
p402
I1
sVd0r7g9f
p403
I1
sVdjvzaq5
p404
I1
sVcyxkshx
p405
I1
sVdcvvgo3
p406
I1
sVd4mmag3
p407
I1
sVdk9hrie
p408
I2
sVczeyu3b
p409
I1
sVd1llufp
p410
I1
sVd2u0z5h
p411
I1
sVd9r6n40
p412
I2
sVde5z3aw
p413
I1
sVdi7zy14
p414
I1
sVdeddaw3
p415
I1
sVdcpt4zq
p416
I1
sVd41gh6d
p417
I2
sVdgns5q0
p418
I1
sVdjafprh
p419
I1
sVdhh3ctu
p420
I3
sVd5xm8c6
p421
I1
sVczc1jq8
p422
I1
sVd47x7o6
p423
I1
sVd6on61f
p424
I1
sVd0kwjh1
p425
I1
sVdqe5srt
p426
I1
sVd5ekwdb
p427
I1
sVdj9hqs8
p428
I1
sVd0ih07h
p429
I1
sVd66t3ye
p430
I1
sVcz2y9rn
p431
I2
sVd706v1w
p432
I1
sVd3l1f6j
p433
I1
sVd5a940n
p434
I1
sVddcofgk
p435
I2
sVdarf09v
p436
I2
sVdjmjt3u
p437
I1
sVdhbeftj
p438
I1
sVd2nieyq
p439
I2
sVdsaxqya
p440
I2
sVdcppuk1
p441
I1
sVddzlmw1
p442
I1
sVdck393u
p443
I1
sVdcptcvh
p444
I1
sVdjzl143
p445
I1
sVdn7h487
p446
I1
sVde5m6sq
p447
I1
sVcz6zllb
p448
I1
sVdrd61yq
p449
I1
sVdowai6l
p450
I1
sVdsq4unm
p451
I1
sVd7671dh
p452
I2
sVdrrvxh3
p453
I1
sVdcp5xvw
p454
I1
sVdopyyuy
p455
I1
sVd50c71k
p456
I1
sVd0qputo
p457
I1
sVdq2vbc8
p458
I1
sVd4igpyo
p459
I3
sVd0rq0bd
p460
I1
sVdpfhmqb
p461
I1
sVd0e8ciq
p462
I1
sVdavc2tw
p463
I1
sVd0tsirf
p464
I1
sVdaqftgf
p465
I1
sVd5ukmha
p466
I1
sVd7ft1ix
p467
I1
sVdhca5ao
p468
I1
s.