(dp0
Vdg33n0z
p1
I1
sVczpc031
p2
I1
sVdt3m6ui
p3
I1
sVd3jrw31
p4
I1
sVd4h2lho
p5
I1
sVd3dusco
p6
I1
sVdhys8iv
p7
I1
sVd910ie0
p8
I2
sVdta6u4p
p9
I1
sVd8k57ia
p10
I1
sVddbc16o
p11
I1
sVd7qzvod
p12
I1
sVd3uxvjg
p13
I1
sVde6p7hg
p14
I2
sVdgwi3n0
p15
I1
sVde9w34f
p16
I1
sVdt09qbi
p17
I2
sVd7zju59
p18
I1
sVdi3ddqg
p19
I6
sVd6k9seo
p20
I1
sVdpipwus
p21
I1
sVddpxqdq
p22
I2
sVdo1x569
p23
I2
sVd88g3n4
p24
I1
sVd9o4r28
p25
I1
sVd83g8l4
p26
I1
sVcyj3e18
p27
I1
sVdsf7hme
p28
I1
sVd0r9qvd
p29
I3
sVdftemmx
p30
I3
sVd3b0kes
p31
I1
sVdexrath
p32
I1
sVd0ehwuv
p33
I1
sVd23asbv
p34
I2
sVd2n85ry
p35
I1
sVd95wc21
p36
I1
sVd4u1gbi
p37
I3
sVd57rha0
p38
I1
sVd99tpxc
p39
I1
sVdmh06t6
p40
I1
sVdhii6k3
p41
I1
sVd04tkuu
p42
I1
sVdbeu165
p43
I1
sVdko0fb4
p44
I1
sVdmvcb39
p45
I1
sVddb3kjm
p46
I3
sVczztioi
p47
I2
sVczoua9j
p48
I1
sVdowg4px
p49
I2
sVd4nbscw
p50
I1
sVd1473ub
p51
I1
sVd8enn41
p52
I1
sVdsry4s2
p53
I1
sVd0dyhwt
p54
I1
sVdftusx7
p55
I2
sVd28y8pj
p56
I1
sVdpl2ct6
p57
I1
sVdpyk6fi
p58
I1
sVdsg6ssh
p59
I2
sVdbi0njj
p60
I1
sVdpigh73
p61
I1
sVd1qz3bc
p62
I1
sVd1radz8
p63
I1
sVd46b2cr
p64
I1
sVdb95wkh
p65
I1
sVdqden9y
p66
I1
sVd6l0ru6
p67
I1
sVd746eo7
p68
I2
sVdolinln
p69
I1
sVd8kd4v4
p70
I1
sVczsdkzw
p71
I3
sVd8cp43c
p72
I5
sVd1z6y8h
p73
I1
sVd2qfjgn
p74
I1
sVd3keyfh
p75
I1
sVd35684x
p76
I1
sVdbyrdqe
p77
I1
sVd3taeys
p78
I1
sVdhyzqu0
p79
I1
sVdjlj5ij
p80
I1
sVdphf8w5
p81
I1
sVdpi2jjc
p82
I1
sVd4euicl
p83
I1
sVcyuzcrf
p84
I1
sVdqxpdys
p85
I2
sVdb1tcg7
p86
I1
sVd4k0nrm
p87
I1
sVdhheooa
p88
I1
sVdrdmyvj
p89
I1
sVcz0iv39
p90
I1
sVdolm374
p91
I1
sVdfhrtep
p92
I1
sVd9gkmhz
p93
I1
sVd9nzkqv
p94
I1
sVczsco3c
p95
I1
sVdofz824
p96
I2
sVcyjgvny
p97
I2
sVdd0izh9
p98
I1
sVd4tsmvp
p99
I1
sVd4bmmtl
p100
I1
sVd4af58i
p101
I1
sVdqw7f1y
p102
I1
sVdgadb6l
p103
I1
sVczbm9vp
p104
I1
sVczou7da
p105
I1
sVdnberrd
p106
I1
sVd7jmvky
p107
I1
sVd759shx
p108
I1
sVddyqcp7
p109
I1
sVdgrvvip
p110
I2
sVdab581h
p111
I1
sVdc38rf4
p112
I1
sVdhit0f6
p113
I1
sVdshhsdu
p114
I2
sVdrtzl8f
p115
I1
sVdfajmve
p116
I1
sVd3fmey2
p117
I2
sVdb6oiir
p118
I1
sVdcr66tc
p119
I1
sVd3xhxgx
p120
I1
sVd6ueun9
p121
I1
sVdr7rg0m
p122
I1
sVdnqbh5b
p123
I1
sVdhprpeh
p124
I1
sVdjhnvuk
p125
I1
sVdpjj25t
p126
I1
sVd6s7h8l
p127
I1
sVdrg9z2q
p128
I2
sVd3fuiif
p129
I1
sVdr78l70
p130
I1
sVd8sillj
p131
I1
sVd1dzyz9
p132
I1
sVdk4d4nc
p133
I1
sVczeao1a
p134
I1
sVd5l53si
p135
I1
sVdk3s4k9
p136
I1
sVcz45kid
p137
I3
sVcyrmqip
p138
I1
sVdfao4na
p139
I3
sVd0hbu93
p140
I2
sVdjxsliv
p141
I1
sVdkj0wse
p142
I1
sVd4xxecu
p143
I3
sVddbh9lo
p144
I1
sVdo12k0k
p145
I1
sVdpy5cs7
p146
I1
sVddjop0a
p147
I1
sVd1ea8q4
p148
I1
sVcyozq6a
p149
I1
sVd4zu7ds
p150
I2
sVd376lx9
p151
I1
sVdfo3l4d
p152
I1
sVdp0g6mf
p153
I1
sVdninu6x
p154
I1
sVd5b22kk
p155
I1
sVdosgw28
p156
I1
sVczq7slu
p157
I1
sVd8gap6g
p158
I3
sVcyq0kxk
p159
I1
sVd36tzfm
p160
I1
sVdg7gnom
p161
I1
sVcz3vk1p
p162
I3
sVddc2axv
p163
I3
sVdg36gmz
p164
I1
sVdnekp4x
p165
I1
sVd0197gl
p166
I1
sVdss9kry
p167
I1
sVd69fgmf
p168
I1
sVd28etdd
p169
I1
sVd3uauuq
p170
I1
sVd83hpmi
p171
I1
sVdpb2zf0
p172
I1
sVd1q0qc0
p173
I1
sVd1j7dvy
p174
I1
sVdbsou8f
p175
I1
sVdiizu4b
p176
I6
sVdrgzugu
p177
I1
sVdbr55f6
p178
I2
sVcyyvrh4
p179
I1
sVddej54i
p180
I1
sVddv71io
p181
I1
sVdd5f1cc
p182
I3
sVd00r8ou
p183
I1
sVdnl4ckb
p184
I1
sVd2f16ox
p185
I1
sVd6int69
p186
I1
sVd004sgj
p187
I1
sVdbmy2ss
p188
I2
sVd0b70a3
p189
I1
sVddu1n6c
p190
I1
sVd2tfin2
p191
I7
sVd0gr5bf
p192
I1
sVdp1ttg6
p193
I1
sVd87wxh5
p194
I1
sVd7cvpk4
p195
I1
sVdob9cct
p196
I1
sVddu7s6q
p197
I1
sVdt4f4rn
p198
I3
sVd0qg092
p199
I1
sVdmiv341
p200
I1
sVd8i1h7m
p201
I2
sVdkv61pa
p202
I1
sVd883gfw
p203
I2
sVd8e6wcl
p204
I1
sVdrnpuru
p205
I1
sVd58tk26
p206
I1
sVd9mlgts
p207
I1
sVdk90i9j
p208
I3
sVd6eojjx
p209
I1
sVda8ej5z
p210
I1
sVd1475ch
p211
I2
sVdes9uff
p212
I1
sVdfowoy8
p213
I4
sVd27ef2e
p214
I2
sVdra7umu
p215
I5
sVd3lp19j
p216
I1
sVdd3s5ec
p217
I1
sVdj7r4u2
p218
I2
sVdnqjcea
p219
I1
sVd0vbbcr
p220
I1
sVdhnzy0m
p221
I1
sVdojkzug
p222
I2
sVdpr94lk
p223
I1
sVcyiqozu
p224
I2
sVd5by8v9
p225
I3
sVdeuwvrq
p226
I1
sVd8c8qjw
p227
I1
sVd1lidvr
p228
I1
sVdbaoun8
p229
I1
sVdmozpk3
p230
I1
sVdb8h0a6
p231
I1
sVd9sj8to
p232
I1
sVd5381wj
p233
I2
sVdqgbum9
p234
I1
sVdrv5d5d
p235
I2
sVd9p180m
p236
I6
sVd3k69a3
p237
I1
sVdcjo5v1
p238
I1
sVd4tvr4v
p239
I1
sVdrylvjw
p240
I3
sVdjyg89a
p241
I2
sVdr082rj
p242
I1
sVdeevux1
p243
I2
sVd07mr4w
p244
I2
sVdcqshic
p245
I1
sVdcggt2n
p246
I3
sVczuq604
p247
I1
sVd5k7fht
p248
I1
sVd1x58h8
p249
I1
sVd8sv81a
p250
I2
sVd19d0im
p251
I1
sVdasxfsa
p252
I1
sVdiy7ibe
p253
I1
sVdejzqb7
p254
I1
sVcz3vf23
p255
I1
sVdsnh1r7
p256
I2
sVd23jumj
p257
I1
sVd5asj3h
p258
I2
sVdk4ueea
p259
I1
sVdb9mlqa
p260
I1
sVd9l7wvt
p261
I1
sVdcx82ln
p262
I1
sVdrgpfhs
p263
I1
sVd291lev
p264
I2
sVd17zw46
p265
I1
sVd3b05mx
p266
I1
sVdcbw3hu
p267
I3
sVd48960r
p268
I1
sVdqpehdu
p269
I1
sVdpyojl1
p270
I1
sVdrocl6x
p271
I2
sVd0zovnn
p272
I1
sVd7ue8z4
p273
I1
sVdcdwjb3
p274
I1
sVd0rwsxn
p275
I1
sVdiucnqa
p276
I2
sVcyqg827
p277
I2
sVdiai7n8
p278
I1
sVd4xsesf
p279
I1
sVdj0tkye
p280
I2
sVdreiqm4
p281
I1
sVd1c6xgk
p282
I1
sVd3rbtvg
p283
I1
sVdkvon10
p284
I1
sVds0uocj
p285
I1
sVd1xcwcz
p286
I1
sVdcilsh2
p287
I1
sVd711kbp
p288
I1
sVd8fjwph
p289
I6
sVdak8ai6
p290
I1
sVdgqx207
p291
I1
sVd0shy6o
p292
I1
sVd1gbayw
p293
I1
sVdpwrkds
p294
I1
sVdhfexe6
p295
I2
sVdmuf6ew
p296
I1
sVdfimerr
p297
I1
sVdcrfbqb
p298
I2
sVd02kot1
p299
I1
sVd8ce7as
p300
I1
sVd18b7ca
p301
I1
sVdgfh222
p302
I1
sVd6td22f
p303
I1
sVd5kb9n4
p304
I1
sVdd6efvu
p305
I2
sVddt9sow
p306
I2
sVddeec0p
p307
I1
sVd2y9wyl
p308
I2
sVdry41bj
p309
I2
sVd7u0ev6
p310
I5
sVdqcfm85
p311
I1
sVdhfpy8g
p312
I2
sVd401s57
p313
I1
sVd6w75gc
p314
I1
sVd3cb6ba
p315
I1
sVdalr1hd
p316
I1
sVdkgkd89
p317
I1
sVd7xqqtj
p318
I1
sVcywcxd0
p319
I1
sVdjd3z3s
p320
I2
sVd8g3mji
p321
I1
sVdcbf928
p322
I1
sVd41bjlo
p323
I1
sVdb5ojfh
p324
I2
sVd0hgpxa
p325
I1
sVdrsfuef
p326
I1
sVd7bu3lv
p327
I1
sVdtd4fck
p328
I1
sVd940be5
p329
I1
sVd2nwdj9
p330
I1
sVczm5f2z
p331
I1
sVdavx0yb
p332
I1
sVdk7umx6
p333
I1
sVdbqo9si
p334
I1
sVdo53sbv
p335
I1
sVdiyu7wn
p336
I2
sVd5fqw26
p337
I2
sVdnzqy2n
p338
I1
sVd2n6u5b
p339
I2
sVdqx1qvs
p340
I2
sVdqpuz5f
p341
I1
sVdstorq6
p342
I2
sVdn0l4iu
p343
I2
sVd20yzyw
p344
I1
sVd8g6dep
p345
I1
sVd7f5a16
p346
I1
sVdaetmuw
p347
I2
sVdd811zy
p348
I1
sVdncqmty
p349
I1
sVdt3y8o0
p350
I1
sVdg26ke9
p351
I1
sVdkqaddb
p352
I1
sVdii34g0
p353
I1
sVdpfs81m
p354
I1
sVdt6zlul
p355
I1
sVd827q6q
p356
I1
sVdkazicw
p357
I2
sVczzwg6g
p358
I1
sVd8veh6v
p359
I2
sVdpe29sx
p360
I1
sVcyjc83f
p361
I1
sVdms0k2p
p362
I1
sVd82hrue
p363
I1
sVdqhpi9b
p364
I2
sVdsb7779
p365
I1
sVdkvmonr
p366
I1
sVdsozu76
p367
I1
sVdih0uob
p368
I2
sVdhfnxui
p369
I1
sVdo0u3q6
p370
I1
sVdrrv9dd
p371
I1
sVdjp4bta
p372
I1
sVde8pzvc
p373
I1
sVdkpdh21
p374
I1
sVdmj4siz
p375
I1
sVdin8ysi
p376
I2
sVd48etys
p377
I2
sVdg93lvy
p378
I2
sVdmf12zd
p379
I8
sVd78pv0q
p380
I1
sVdo177cz
p381
I3
sVdg79n0q
p382
I3
sVd8wcp40
p383
I2
sVdioyxkh
p384
I1
sVd4jobpi
p385
I1
sVd3ak5j1
p386
I1
sVd5x2rg9
p387
I1
sVdqhcuim
p388
I1
sVd9zpqeh
p389
I1
sVd0yhb21
p390
I1
sVdhwhsci
p391
I1
sVdmy10ft
p392
I2
sVdc11sb6
p393
I1
sVdkn2w5r
p394
I1
sVdgvf0st
p395
I1
sVddk5j06
p396
I1
sVdpjfppx
p397
I1
sVdpi7e9w
p398
I2
sVdrv22o4
p399
I1
sVd1x2uty
p400
I2
sVdqmpmj5
p401
I1
sVd1a8rls
p402
I1
sVdi6l612
p403
I1
sVdixwf11
p404
I1
sVdqo85qx
p405
I1
sVdd5b3j5
p406
I1
sVd6a5noz
p407
I1
sVdi09tis
p408
I1
sVcykz212
p409
I1
sVdt2zyo7
p410
I2
sVd0io4y3
p411
I2
sVd1s1z1r
p412
I1
sVdeiq60r
p413
I1
sVdq9bcze
p414
I1
sVd464bh2
p415
I1
sVdqddpyd
p416
I1
sVd7ccwf4
p417
I1
sVd0w2ncv
p418
I1
sVcz63ir7
p419
I1
sVd8u7syg
p420
I2
sVd478o77
p421
I1
sVd690pkc
p422
I2
sVdsau82w
p423
I4
sVdoxw9vv
p424
I1
sVd9ocvjm
p425
I1
sVcz4q6bi
p426
I1
sVd1igeid
p427
I1
sVdfi3mjm
p428
I1
sVcz6fmel
p429
I1
sVdrjejk6
p430
I1
sVd0zpd5t
p431
I4
sVdgtmvnx
p432
I1
sVdcjrjxb
p433
I2
sVd2rahjq
p434
I1
sVdcmfd5g
p435
I1
sVd4sm1ck
p436
I1
sVdmvai6c
p437
I1
sVdd7a2re
p438
I1
sVd9dxhr2
p439
I1
sVdhcsbuj
p440
I1
sVd7k9ws5
p441
I1
sVd0ab544
p442
I1
sVd9n62jq
p443
I3
sVd0ifasj
p444
I1
sVd9y3weo
p445
I1
sVd54lnc0
p446
I2
sVdgc5xeg
p447
I2
sVdf100y0
p448
I1
sVd6q2bjg
p449
I3
sVd3zzfxz
p450
I1
sVd10qoqr
p451
I1
sVczvuiv8
p452
I2
sVdg866x0
p453
I1
sVdbdycq3
p454
I1
sVczzbvjd
p455
I1
sVd2xcmwd
p456
I2
sVdh6hpm3
p457
I1
sVd9qr90y
p458
I1
sVdb1mx6i
p459
I1
sVdfpb0og
p460
I1
sVdhjl6kk
p461
I1
sVd6skh1a
p462
I3
sVcze8xbw
p463
I1
sVdsuwia1
p464
I1
sVdex643b
p465
I1
sVdo5wpot
p466
I2
sVdsdano3
p467
I2
sVdjqh97t
p468
I1
sVdjb6i4z
p469
I1
sVdcdiw7h
p470
I1
sVdb0u6l5
p471
I2
sVdnjd1zy
p472
I2
sVdr7bph9
p473
I1
sVczlwfgw
p474
I1
sVdhts8sv
p475
I2
sVd9ib7t8
p476
I2
sVd17zzsg
p477
I4
sVdklro34
p478
I1
sVd6214nb
p479
I1
sVdoe66cr
p480
I1
sVdhca5ao
p481
I1
sVdfldmji
p482
I1
sVczxsvbw
p483
I1
sVd1uk18h
p484
I1
sVd7lgmq2
p485
I3
sVdcil7jf
p486
I1
sVddhyzxy
p487
I1
sVddi7aj5
p488
I1
sVd40jyqu
p489
I1
sVcyszhvl
p490
I1
sVd0pdagx
p491
I1
sVdor8i35
p492
I1
sVd2nfu7j
p493
I1
sVdofchpe
p494
I1
sVdhbwsyy
p495
I1
sVdru1621
p496
I2
sVdp2pfv6
p497
I1
sVcyvsmh5
p498
I1
sVdmmemvr
p499
I1
sVdbfj9yz
p500
I1
sVd4d9d6h
p501
I1
sVd4vpip2
p502
I2
sVdbfg983
p503
I2
sVd3knsm2
p504
I1
sVd4iolov
p505
I1
sVdk8tj81
p506
I1
sVdjokq5p
p507
I1
sVd3d5gx3
p508
I1
sVdsvqupx
p509
I2
sVdok9cxd
p510
I1
sVd4xeobw
p511
I1
sVd4bm31m
p512
I1
sVd297rfs
p513
I1
sVd1vrqr4
p514
I1
sVd3ykken
p515
I1
sVdr70ou0
p516
I2
sVdcdbffx
p517
I1
sVd19av8m
p518
I1
sVdrg5dgz
p519
I1
sVdbnhasx
p520
I1
sVczyeskr
p521
I8
sVd6mdd0e
p522
I1
sVd2ugfbs
p523
I2
sVd3ib7io
p524
I4
sVcznoqcy
p525
I1
sVddr4lqg
p526
I1
sVd9ubxfd
p527
I1
sVdccwtv3
p528
I1
sVd0i4pb7
p529
I1
sVd8pzs2n
p530
I1
sVd7qkpnd
p531
I1
sVdjohoz6
p532
I1
sVd4cf9lh
p533
I1
sVda8ko6w
p534
I2
sVdiqwy0s
p535
I1
sVde1fykc
p536
I1
sVdp2o8dq
p537
I1
sVdt1ey4h
p538
I1
sVd776n3k
p539
I1
sVd7xrlwg
p540
I1
sVcyly7rx
p541
I1
sVdi6o4x8
p542
I1
sVdepqv7i
p543
I1
sVd8wbuj8
p544
I4
sVd6acfjk
p545
I1
sVdj4929j
p546
I1
sVdcxggfi
p547
I1
sVdmi9qux
p548
I1
sVdnbt0op
p549
I1
sVdb6ygxu
p550
I1
sVdd5d05y
p551
I1
sVdtho007
p552
I2
sVd1umh6l
p553
I4
sVd2gvlig
p554
I1
sVdc1op5s
p555
I3
sVdr01k5k
p556
I1
sVd6m9lm6
p557
I1
sVdqllg3s
p558
I1
sVdgvycw1
p559
I1
sVczqzdmd
p560
I1
sVd2nzb96
p561
I2
sVd58byva
p562
I4
sVd3z9qd9
p563
I1
sVdec0sla
p564
I1
sVdsnzvnl
p565
I1
sVdk5s154
p566
I2
sVd3vdca0
p567
I1
sVd1idbp5
p568
I1
sVczicbcp
p569
I1
sVdjml9v3
p570
I3
sVd8hde0o
p571
I1
sVd4jieiw
p572
I3
sVdam51f2
p573
I4
sVd3mutbb
p574
I1
sVdf95q35
p575
I1
sVd36ue4j
p576
I1
sVdsorxxx
p577
I1
sVd9kju8d
p578
I1
sVdaxm0n9
p579
I1
sVd9dpip7
p580
I1
sVczxmnvr
p581
I1
sVczios6w
p582
I1
sVdarqs4o
p583
I1
sVd4xmzsx
p584
I1
sVd1zaurw
p585
I1
sVdomwfvw
p586
I1
sVd7shmsg
p587
I2
sVd88m421
p588
I1
sVd76l1ct
p589
I1
sVddrhtlp
p590
I1
sVdmrb4bc
p591
I1
sVdgm396c
p592
I2
sVcyq3tfz
p593
I1
sVdkhpaov
p594
I1
sVdt4frpo
p595
I1
sVdeilavx
p596
I1
sVdj5r27q
p597
I1
sVd45u32w
p598
I2
sVd7ginz9
p599
I1
sVd5qb58f
p600
I1
sVdhnkaxr
p601
I1
sVdd5kohx
p602
I1
sVdnv55oh
p603
I1
sVdg40f1b
p604
I1
sVdrdweqt
p605
I1
sVcyziaz2
p606
I1
sVdigmqxk
p607
I1
sVd0few1j
p608
I2
sVdfz6y1f
p609
I2
sVd1zv9xq
p610
I1
sVdi1gect
p611
I1
sVczfl5ze
p612
I1
sVd2x1jb5
p613
I1
sVdhif894
p614
I1
sVdf0p5rf
p615
I1
sVdchfja8
p616
I1
sVdh0hjq7
p617
I1
sVcyu8870
p618
I1
sVdqpmcyw
p619
I1
sVd88ohax
p620
I1
sVd2nefxh
p621
I1
sVdjqs7jw
p622
I1
sVdgcw55f
p623
I1
sVdg0kiaw
p624
I2
sVd6z9n2m
p625
I5
sVd25wp0x
p626
I1
sVd9dfdgh
p627
I4
sVdjc05cd
p628
I1
sVczmwhr7
p629
I1
sVdaz3ajl
p630
I3
sVd1ggdfw
p631
I1
sVd4s9b3p
p632
I1
sVd016atx
p633
I2
sVd08u044
p634
I1
sVd3ao2o3
p635
I1
sVdc3dvnp
p636
I2
sVcyw08q0
p637
I1
sVdetldd9
p638
I1
sVdd3r023
p639
I1
sVdq43umj
p640
I1
sVd59wvq8
p641
I1
sVd7yfp1j
p642
I1
sVd2bi0e1
p643
I1
sVd6qnu3i
p644
I1
sVd14hhyh
p645
I1
sVdo4h7sh
p646
I2
sVd1hlyik
p647
I1
sVdakk64x
p648
I1
sVdnmoyow
p649
I1
sVdgkvqm1
p650
I2
sVd0rzt34
p651
I1
sVdr5fq9x
p652
I1
sVdsen7c8
p653
I1
sVd5vf67s
p654
I1
sVdfofe0q
p655
I1
sVd9cyexp
p656
I1
sVdrk9eet
p657
I2
sVdr5vqzw
p658
I1
sVdcwn2w3
p659
I1
sVd9boils
p660
I2
sVdbnsxtp
p661
I1
sVd467gue
p662
I1
sVdbq5x2j
p663
I2
sVde0d0t7
p664
I1
sVd37cqgt
p665
I1
sVd3hq7oo
p666
I2
sVd3eptli
p667
I1
sVda38aw0
p668
I2
sVd3w4mhd
p669
I2
sVdth127n
p670
I3
sVdd1gv4s
p671
I3
sVd7yedfp
p672
I1
sVdrlxx1p
p673
I2
sVdd5pi0i
p674
I1
sVdazk606
p675
I1
sVddgv0ag
p676
I2
sVd0fp7rk
p677
I1
sVdrrxd1q
p678
I2
sVd4ehsey
p679
I1
sVdcqd0wn
p680
I1
sVdhyk6fa
p681
I3
sVde20www
p682
I1
sVdnoql6o
p683
I1
sVd73sokh
p684
I2
sVd1to0f1
p685
I2
sVd5odjir
p686
I3
sVd8vg8tv
p687
I1
sVd0s466e
p688
I1
sVded3eko
p689
I1
sVdfu2yf5
p690
I1
sVd55y1k5
p691
I1
sVd20p78n
p692
I1
sVczfxb9p
p693
I1
sVdqmwwjs
p694
I1
sVdej2yco
p695
I1
sVd035wd6
p696
I1
sVdcgl9ii
p697
I1
sVdn2rgnz
p698
I2
sVd90rbva
p699
I2
sVdp3ulcx
p700
I1
sVd2ecwor
p701
I1
sVd6suhk8
p702
I2
sVdf8vj37
p703
I1
sVdd4jkc0
p704
I1
sVd54im6u
p705
I2
sVdeaiv7c
p706
I1
sVdkl8508
p707
I2
sVd2gt3rr
p708
I1
sVd2ntlle
p709
I1
sVdmmsh19
p710
I1
sVdqoxd6x
p711
I2
sVdsmwt31
p712
I1
sVd0wabke
p713
I1
sVdbm5f9h
p714
I1
sVd6s4pun
p715
I1
sVdoqo2m6
p716
I2
sVd9eg521
p717
I1
sVdb2dovc
p718
I1
sVdi5ucp6
p719
I1
sVd0ocnov
p720
I1
sVdnh9943
p721
I1
sVd5d4d9p
p722
I1
sVd80t4wz
p723
I2
sVdi60ebp
p724
I3
sVdgwmkby
p725
I1
sVdddlglp
p726
I1
sVdpkvigm
p727
I1
sVddfh3qe
p728
I1
sVd3fjp6g
p729
I1
sVd8t06lt
p730
I1
sVdri0cqs
p731
I2
sVdf4ago6
p732
I1
sVdq7hjdg
p733
I1
sVd76hosn
p734
I1
sVd27cu72
p735
I2
sVdoqxwnr
p736
I2
sVd6biw2h
p737
I1
sVd3w0yrj
p738
I2
sVdbb6wxg
p739
I1
sVd21824t
p740
I1
sVdogrfa7
p741
I1
sVd0sze91
p742
I1
sVd4h4uy6
p743
I1
sVd81nzdt
p744
I2
sVd3qkrgu
p745
I2
sVdsxc61x
p746
I1
sVdtd2wbd
p747
I1
sVd9kqkyf
p748
I1
sVdf63qfl
p749
I1
sVczgk7vp
p750
I1
sVdorku1m
p751
I1
sVd36ekr2
p752
I4
sVdon0zd3
p753
I1
sVdf98mzg
p754
I1
sVdgqrojy
p755
I2
sVdkio9up
p756
I1
sVdbqce8u
p757
I1
sVd47at3m
p758
I1
sVd9br6ch
p759
I2
sVdsr3m0k
p760
I1
sVds6vpg9
p761
I1
sVd22xc3u
p762
I1
sVdi0lz5r
p763
I1
sVdgmnqza
p764
I1
sVd0ln3od
p765
I1
sVdsclixd
p766
I1
sVcypqmn2
p767
I1
sVd6s96vj
p768
I1
sVd8wjr5n
p769
I1
sVdjav7zh
p770
I1
sVd5b4q5p
p771
I1
sVdk62ftl
p772
I2
sVd0llpr5
p773
I1
sVd7eu3wk
p774
I1
sVdqzx9pq
p775
I2
sVd0m8hah
p776
I2
sVd0enx1y
p777
I1
sVdqkmtyf
p778
I1
sVdetdo6c
p779
I2
sVdacxx65
p780
I2
sVdiqi74b
p781
I1
sVd9l83k6
p782
I2
sVd50agec
p783
I2
sVd756v8p
p784
I1
sVdrpt3dd
p785
I1
sVd0j30df
p786
I1
sVdibqal9
p787
I1
sVdbjys04
p788
I1
sVds1iur5
p789
I3
sVdcdw3rd
p790
I1
sVdayq7fa
p791
I1
sVdf0cgg2
p792
I1
sVdky6i42
p793
I1
sVd52oyj7
p794
I1
sVddni2gn
p795
I1
sVdb1z2a1
p796
I1
sVd5eaio4
p797
I4
sVdebn7m1
p798
I1
sVd7mr2zu
p799
I1
sVd6hgf63
p800
I1
sVd66jlqo
p801
I1
sVd0w1xik
p802
I4
sVdhrbpfg
p803
I2
sVd8ta0te
p804
I1
sVd9al5gq
p805
I1
sVdq3r8jr
p806
I2
sVdojcyyq
p807
I1
sVdrjn2b0
p808
I2
sVdpnvqgx
p809
I2
sVd42nmgz
p810
I1
sVd1kwkhs
p811
I2
sVd3p67mf
p812
I4
sVdci2pub
p813
I1
sVd5ktn1n
p814
I1
sVd7xbli8
p815
I1
sVczi7qhf
p816
I1
sVdowe3x9
p817
I1
sVdq9yjmm
p818
I3
sVd0h28st
p819
I2
sVdcx5hof
p820
I1
sVdaum3ws
p821
I1
sVdnz3y3k
p822
I1
sVdkux2c9
p823
I1
sVczf4cva
p824
I1
sVd6rjnsh
p825
I1
sVddsoq96
p826
I1
sVdpb058d
p827
I1
sVdbu98gb
p828
I1
sVd5kkisz
p829
I1
sVdhe2n88
p830
I1
sVd6l97n5
p831
I1
sVdclopeo
p832
I1
sVdroq11q
p833
I1
sVdelljwc
p834
I1
sVd5ox4nl
p835
I1
sVd9p696a
p836
I1
sVd9nxu15
p837
I2
sVdfm320a
p838
I1
sVd5i4k3u
p839
I1
sVdj2heqt
p840
I1
sVcz7hj5q
p841
I1
sVdbamdu1
p842
I2
sVd0ni6ux
p843
I1
sVdpfzkm8
p844
I1
sVdqclj5a
p845
I2
sVd20ldo4
p846
I1
sVde3acdl
p847
I2
sVdt5o7er
p848
I1
sVd6ik7x3
p849
I1
sVdeweac9
p850
I1
sVcyj0z8z
p851
I1
sVdf0fhlg
p852
I1
sVcyza6my
p853
I2
sVd5t94ld
p854
I1
sVcyywmt7
p855
I1
sVdfhvsqv
p856
I1
sVdohnpkf
p857
I2
sVdp9ydvm
p858
I1
sVd2tfgry
p859
I1
sVd7swb11
p860
I2
sVdsf1no6
p861
I2
sVd4gwigj
p862
I1
sVd2a414l
p863
I1
sVd1rap6l
p864
I1
sVdb0lgca
p865
I1
sVdpfvcv2
p866
I1
sVdcww31f
p867
I2
sVd61mqt2
p868
I3
sVdox1fjh
p869
I1
sVdjdc29f
p870
I1
sVdn123gm
p871
I6
sVdc4q8ml
p872
I1
sVd9la5j8
p873
I1
sVd1o2whe
p874
I1
sVde10t5f
p875
I1
sVdf7m0y6
p876
I1
sVd63cwni
p877
I1
sVczrj6cr
p878
I1
sVdgi9rxl
p879
I1
sVdh4pgj9
p880
I1
sVd3co9ze
p881
I1
sVd8g1pjm
p882
I1
sVdbfr1vo
p883
I1
sVd460mjt
p884
I1
sVdsda712
p885
I1
sVdp4acue
p886
I2
sVdrzve45
p887
I2
sVdjxf6lv
p888
I1
sVdbd426j
p889
I3
sVcyiigut
p890
I1
sVd2qa407
p891
I1
sVd07m8va
p892
I1
sVdbxmq3e
p893
I2
sVdjyjqq9
p894
I1
sVd8d805g
p895
I1
sVdc15l7j
p896
I1
sVdav4788
p897
I1
sVde3yypz
p898
I1
sVdq3bcj9
p899
I2
sVdsetbyg
p900
I2
sVdscpogi
p901
I8
sVd3t178x
p902
I1
sVd15vtp3
p903
I1
sVdnjsud0
p904
I1
sVd3vfrbo
p905
I1
sVdt8qa05
p906
I1
sVd43it87
p907
I1
sVcyxtie4
p908
I2
sVd92v0do
p909
I1
sVd3wkykq
p910
I1
sVdg15ozi
p911
I1
sVdk48v23
p912
I1
sVcz7lhxg
p913
I1
sVdr5ltu4
p914
I1
sVd2sgbh2
p915
I1
sVd3aa0ru
p916
I1
sVdjdtg8p
p917
I1
sVdfu3qqx
p918
I2
sVd065b0z
p919
I2
sVd9a8d6n
p920
I1
sVdbgp7fl
p921
I1
sVd0r7cqf
p922
I2
sVcz9ydx8
p923
I1
sVd68w68h
p924
I1
sVd5q1hen
p925
I1
sVdqflxno
p926
I1
sVdj9jnnc
p927
I1
sVdqpr92t
p928
I1
sVdng3ga9
p929
I1
sVdbr8z9q
p930
I1
sVdtaqevv
p931
I1
sVcz14xhu
p932
I1
sVczj619f
p933
I1
sVd0xvl29
p934
I1
sVdghv8bo
p935
I1
sVcyib09v
p936
I1
sVd9e4wzj
p937
I1
sVdqds12e
p938
I1
sVdhijels
p939
I1
sVdkxfagg
p940
I4
sVdck393u
p941
I1
sVd3n9rxe
p942
I1
sVdeikq2m
p943
I1
sVdaiwozs
p944
I1
sVdqfgcql
p945
I1
sVcz0z0r7
p946
I2
sVdooh650
p947
I1
sVdb6eyzi
p948
I1
sVdsyuhup
p949
I1
sVdstblag
p950
I1
sVd839bft
p951
I1
sVdso4ooh
p952
I1
sVd7nl70w
p953
I1
sVd2c4bl2
p954
I1
sVdjegshn
p955
I1
sVd3zi9ev
p956
I1
sVdd73fq0
p957
I1
sVcykvuq6
p958
I1
sVdthcgzr
p959
I2
sVd6snviz
p960
I1
sVdduap2p
p961
I1
sVdqxsz46
p962
I2
sVd1859oc
p963
I1
sVdrm8srn
p964
I1
sVd83wluu
p965
I1
sVd9jrlnw
p966
I1
sVd3zh9c7
p967
I1
sVd679flp
p968
I1
sVdfspklr
p969
I1
sVdo968n9
p970
I1
sVdezjsqd
p971
I1
sVd1h0un5
p972
I2
sVd6bn81j
p973
I1
sVdql308h
p974
I1
sVd17e2br
p975
I1
sVdqhvp8m
p976
I2
sVdrzg1xw
p977
I1
sVd4jiiq5
p978
I5
sVdbiaelg
p979
I1
sVdnrtabg
p980
I2
sVdsw9ks8
p981
I1
sVd3bb89m
p982
I1
sVdfs444p
p983
I1
sVd1lxryt
p984
I2
sVd3dx8mt
p985
I1
sVd5yrgxp
p986
I1
sVdbnln6m
p987
I1
sVd9r6i5t
p988
I1
sVd4tedy0
p989
I1
sVcykinpo
p990
I2
sVd0o1uz4
p991
I1
sVdbb7uzn
p992
I2
sVd567k4h
p993
I1
sVdizn1gl
p994
I2
sVd8rv06g
p995
I1
sVds5eqhx
p996
I1
sVd9zbdoi
p997
I1
sVcyjoipp
p998
I1
sVd9wmtqi
p999
I2
sVdgmhh5r
p1000
I1
sVd0kkvt8
p1001
I1
sVdoeheqz
p1002
I1
sVd2hiv22
p1003
I2
sVddx09fa
p1004
I1
sVdi79puf
p1005
I1
sVd5t18wx
p1006
I1
sVdn94x16
p1007
I1
sVd8g1cs0
p1008
I4
sVddpvylw
p1009
I1
sVdb5fxec
p1010
I1
sVd0r5o30
p1011
I1
sVdhius1t
p1012
I1
sVd50vka0
p1013
I1
sVd08gx5r
p1014
I2
sVdijb4ps
p1015
I1
sVd0ei6zf
p1016
I3
sVdojfzmi
p1017
I1
sVcyxcrcx
p1018
I1
sVd1bxas0
p1019
I1
sVd8ir4jb
p1020
I1
sVdsyivyk
p1021
I1
sVd4czcmt
p1022
I2
sVd4qwj9h
p1023
I1
sVd1qu22z
p1024
I1
sVd5fn20l
p1025
I1
sVd0yjoyi
p1026
I1
sVdcbmj4w
p1027
I1
sVdsd0kqu
p1028
I1
sVdnl94tq
p1029
I2
sVd47vr8z
p1030
I1
sVdb8oeyk
p1031
I1
sVdnkt6gy
p1032
I1
sVd13rku4
p1033
I4
sVdc3i4eb
p1034
I1
sVd93afjr
p1035
I1
sVd8aiycp
p1036
I1
sVds0hiaj
p1037
I1
sVdggh6ar
p1038
I1
sVd077epq
p1039
I1
sVdd8eld4
p1040
I1
sVdc90136
p1041
I2
sVdci8boo
p1042
I2
sVda16slx
p1043
I1
sVdrq6ji0
p1044
I1
sVdn8crp2
p1045
I1
sVdd4ye15
p1046
I1
sVd99xo0b
p1047
I3
sVdfa8v53
p1048
I1
sVd146y69
p1049
I1
sVdr921jh
p1050
I1
sVd6rtyj7
p1051
I2
sVd0ku8a3
p1052
I1
sVdjoarul
p1053
I1
sVdf6jbhq
p1054
I1
sVdr1wjq0
p1055
I2
sVdjppigx
p1056
I1
sVdrr7j0g
p1057
I1
sVdqoy3w7
p1058
I5
sVd5ifhic
p1059
I1
sVdj35if6
p1060
I1
sVdjhg8r9
p1061
I2
sVdn6feq0
p1062
I1
sVd55xgtk
p1063
I1
sVdkkc16b
p1064
I3
sVd0ek8pi
p1065
I1
sVd2tnnmt
p1066
I1
sVdgt4wqf
p1067
I1
sVdb9rra6
p1068
I1
sVd6t8zz2
p1069
I1
sVdi7bmq9
p1070
I3
sVdjra2lk
p1071
I1
sVd623y9f
p1072
I1
sVdi0noke
p1073
I1
sVdhvdtll
p1074
I1
sVcz9hvw8
p1075
I1
sVdh0lqih
p1076
I2
sVd3l9sy3
p1077
I2
sVd3yp6o3
p1078
I1
sVdf18d0t
p1079
I1
sVczakbwr
p1080
I1
sVd50h710
p1081
I1
sVdjv3ey7
p1082
I1
sVdj7qx72
p1083
I1
sVdgih48q
p1084
I1
sVdpfi1p6
p1085
I1
sVdi27lrq
p1086
I1
sVde0z83i
p1087
I8
sVd0e3e66
p1088
I1
sVdt1rwo6
p1089
I1
sVd64fjgv
p1090
I1
sVdfyh6jy
p1091
I1
sVdgffrqq
p1092
I2
sVcyl8ngk
p1093
I1
sVdsvm97i
p1094
I5
sVdpaqicv
p1095
I1
sVd0kyio7
p1096
I1
sVd3u8oyc
p1097
I1
sVdgqpbnd
p1098
I1
sVd77a2eu
p1099
I2
sVd5agg8s
p1100
I1
sVdrogjlx
p1101
I1
sVd3qe95t
p1102
I1
sVdrs3o0q
p1103
I1
sVcz052ej
p1104
I1
sVdcfibb3
p1105
I1
sVd9pkny1
p1106
I1
sVd9ugu89
p1107
I1
sVd2boauf
p1108
I1
sVdpt5wci
p1109
I3
sVdekwt1u
p1110
I1
sVdqiz1c2
p1111
I1
sVdbn6dm2
p1112
I1
sVdf3aaoj
p1113
I1
sVdghrvq1
p1114
I1
sVdbo2zyj
p1115
I2
sVdg8ftw4
p1116
I1
sVd3n5wlb
p1117
I1
sVcyjgpib
p1118
I4
sVd4ik2pl
p1119
I1
sVd173oy5
p1120
I1
sVds92s6j
p1121
I2
sVdn4r6l4
p1122
I1
sVdphr96f
p1123
I1
sVd05luk2
p1124
I1
sVdfzblq0
p1125
I5
sVdr07m8x
p1126
I1
sVddc9thn
p1127
I1
sVdszkdns
p1128
I1
sVdswpa87
p1129
I1
sVd4r7hgg
p1130
I1
sVd3hf5ia
p1131
I1
sVd8fnfuw
p1132
I1
sVd174du9
p1133
I2
sVdkt11wo
p1134
I1
sVdta0391
p1135
I1
sVdn2sdu1
p1136
I2
sVdq9vmr2
p1137
I1
sVdgcnavo
p1138
I2
sVdqas9mx
p1139
I1
sVdsmdx71
p1140
I1
sVd13nixv
p1141
I1
sVdpu0l51
p1142
I1
sVd9wly29
p1143
I1
sVdp8smoc
p1144
I1
sVdjrdcuj
p1145
I1
sVdnh411z
p1146
I2
sVdo9rsnl
p1147
I2
sVddzkjro
p1148
I6
sVd15ovrx
p1149
I1
sVd3f4mej
p1150
I2
sVdau08zm
p1151
I2
sVdpyzbfk
p1152
I1
sVcz9217h
p1153
I1
sVdokwpa8
p1154
I1
sVd6ohqhc
p1155
I1
sVd2ccdc7
p1156
I1
sVdr994a7
p1157
I1
sVcyz0m6w
p1158
I1
sVdas2w92
p1159
I1
sVdnjlxcl
p1160
I2
sVd7urupu
p1161
I1
sVd8e19m6
p1162
I1
sVdjlonfw
p1163
I1
sVdsrohf0
p1164
I1
sVda28g79
p1165
I1
sVd331wh7
p1166
I1
sVcyion75
p1167
I5
sVdn1674p
p1168
I2
sVdb21ysz
p1169
I1
sVd38wn2s
p1170
I1
sVd018t15
p1171
I1
sVd0c4hak
p1172
I1
sVd1qjcag
p1173
I2
sVdkci2is
p1174
I1
sVdbfuku8
p1175
I1
sVd0iav4t
p1176
I1
sVdi3azx0
p1177
I1
sVdrre6vn
p1178
I1
sVd2751yy
p1179
I1
sVdbwzbdz
p1180
I2
sVdao4gkb
p1181
I2
sVdnqexu6
p1182
I1
sVdik9oxu
p1183
I2
sVdc6oqhw
p1184
I1
sVdr82m5e
p1185
I1
sVdr68kpz
p1186
I1
sVdshlttc
p1187
I1
sVd9l0bq6
p1188
I2
sVdg93gdt
p1189
I1
sVdp4mzlr
p1190
I2
sVdaizl23
p1191
I1
sVd20rp0j
p1192
I1
sVddvisf2
p1193
I1
sVd0qz5xd
p1194
I1
sVddk0ese
p1195
I2
sVdhyee1h
p1196
I1
sVd1y5e8u
p1197
I1
sVd5vrpko
p1198
I1
sVdpwmdyo
p1199
I1
sVdt85rlo
p1200
I1
sVdoxktp9
p1201
I1
sVd8kgln9
p1202
I1
sVddnqmxv
p1203
I1
sVd1x7mge
p1204
I1
sVdtibafq
p1205
I9
sVd7j6g92
p1206
I3
sVdpmhb5b
p1207
I1
sVdfhho4s
p1208
I1
sVdbra2fy
p1209
I1
sVdhzh1jx
p1210
I2
sVd3y9ctl
p1211
I1
sVde1l3pv
p1212
I1
sVddscect
p1213
I4
sVd01qdq1
p1214
I2
sVd82jmb7
p1215
I1
sVczwhp96
p1216
I1
sVcyk84q6
p1217
I1
sVczooidk
p1218
I1
sVdjuyqy9
p1219
I1
sVd2xkxn3
p1220
I1
sVdgaupxw
p1221
I1
sVd1hcph4
p1222
I1
sVd84k192
p1223
I1
sVd9bxxsy
p1224
I1
sVdgbdqcz
p1225
I1
sVdqzxj9q
p1226
I2
sVdckk77k
p1227
I1
sVd271b9a
p1228
I1
sVdc7c0nh
p1229
I2
sVd7q0hwi
p1230
I1
sVdcxdb82
p1231
I1
sVdelrqtb
p1232
I1
sVdkr4swl
p1233
I2
sVd3qbwcc
p1234
I1
sVdj8tg3n
p1235
I1
sVd942afi
p1236
I2
sVd10qzca
p1237
I1
sVdfq38jj
p1238
I1
sVd1ldzzr
p1239
I1
sVddzk53c
p1240
I1
sVd6uc6kt
p1241
I1
sVdmon0i6
p1242
I1
sVde2essb
p1243
I1
sVdt2snfr
p1244
I4
sVdnqj2wl
p1245
I1
sVcz0l34r
p1246
I1
sVdkktowu
p1247
I3
sVd5xp02c
p1248
I1
sVd08lo0r
p1249
I1
sVd38zaw0
p1250
I1
sVcz4ytpa
p1251
I2
sVdqmng19
p1252
I2
sVdiv8oir
p1253
I1
sVdb8i5np
p1254
I3
sVdal3y5v
p1255
I1
sVdgrpkyy
p1256
I2
sVdofso0l
p1257
I1
sVdjyzeov
p1258
I1
sVdobefsb
p1259
I2
sVcypd5lj
p1260
I4
sVdfcj63n
p1261
I2
sVdb1jljn
p1262
I1
sVd0vdykc
p1263
I1
sVd79i13s
p1264
I1
sVd9ld1rw
p1265
I2
sVdfttm5p
p1266
I1
sVd4a0bb2
p1267
I3
sVczw43z3
p1268
I1
sVdflju6d
p1269
I1
sVdcuoitd
p1270
I1
sVdo2flwu
p1271
I1
sVd7l98e8
p1272
I1
sVd107vpv
p1273
I1
sVdao5t2f
p1274
I1
sVdb5d0a6
p1275
I2
sVd7tgaon
p1276
I1
sVdfu9vwh
p1277
I1
sVd2b4qxq
p1278
I1
sVdnguyhx
p1279
I1
sVdojmt1s
p1280
I2
sVdkx80u1
p1281
I1
sVdopgsgb
p1282
I3
sVdi4f69b
p1283
I2
sVd03ty5w
p1284
I2
sVdkibhpa
p1285
I1
sVdfsa46d
p1286
I1
sVdnhs44l
p1287
I1
sVd9wjhuy
p1288
I2
sVd8st9lt
p1289
I1
sVdidla6o
p1290
I1
sVd8xe423
p1291
I1
sVda0vt23
p1292
I1
sVdbo70d2
p1293
I1
sVdbmzk7s
p1294
I1
sVd0sxkr9
p1295
I3
sVdmyx5dz
p1296
I1
sVd3fslgs
p1297
I2
sVdo5hy0d
p1298
I1
sVdfjq4x3
p1299
I1
sVdalxzyc
p1300
I2
sVdots5u4
p1301
I1
sVdgyu9lh
p1302
I1
sVdcgn5ef
p1303
I1
sVd6r3ybu
p1304
I1
sVd1d6k9g
p1305
I3
sVd3omkvj
p1306
I2
sVd70mrkh
p1307
I1
sVdnlep2i
p1308
I1
sVd4pue91
p1309
I1
sVdfoufjc
p1310
I1
sVdekfyb9
p1311
I1
sVd4lzbx3
p1312
I1
sVd17jp9t
p1313
I1
sVd3i7fjj
p1314
I1
sVd74rlje
p1315
I2
sVdblwtzr
p1316
I1
sVdpbqdxv
p1317
I1
sVdsewcsa
p1318
I1
sVdd2lhhn
p1319
I1
sVdo2kxs1
p1320
I1
sVdf9847a
p1321
I1
sVczinvsm
p1322
I2
sVdag7xr8
p1323
I1
sVdnwk4ki
p1324
I1
sVdgtize9
p1325
I1
sVdcag62r
p1326
I1
sVdi7w2lz
p1327
I1
sVd3wcrf4
p1328
I1
sVd9tkze0
p1329
I2
sVdk1juko
p1330
I1
sVd8n064x
p1331
I1
sVdt0kh4v
p1332
I1
sVdf4lc7d
p1333
I1
sVcyi9oo4
p1334
I1
sVdcooegr
p1335
I1
sVd3hrp1i
p1336
I1
sVdrrat6r
p1337
I1
sVdn9o3gf
p1338
I1
sVdte0wp4
p1339
I1
sVd27tb5h
p1340
I1
sVd8spr4r
p1341
I1
sVdmtbph4
p1342
I1
sVdiijt7i
p1343
I1
sVdssulpe
p1344
I1
sVdepa7nj
p1345
I1
sVd95t00x
p1346
I1
sVcyozzhz
p1347
I2
sVd304jhc
p1348
I1
sVdiiwtvk
p1349
I5
sVdqfsikk
p1350
I1
sVd1ida6o
p1351
I1
sVdc98yy0
p1352
I1
sVdagc4mn
p1353
I1
sVd8gg0bl
p1354
I3
sVdfjf1jz
p1355
I1
sVd8stoje
p1356
I2
sVdthqyn4
p1357
I1
sVdncukqx
p1358
I2
sVd0r4xx3
p1359
I1
sVd1q0os3
p1360
I1
sVd09fsnn
p1361
I1
sVdebzjxj
p1362
I2
sVdc8qdmd
p1363
I2
sVczv1qv5
p1364
I1
sVdt3osx0
p1365
I1
sVd8umwsb
p1366
I1
sVd4sgzx5
p1367
I1
sVczeyu3b
p1368
I1
sVdh5c2mq
p1369
I1
sVdal0wdm
p1370
I1
sVczluczw
p1371
I1
sVddkfupe
p1372
I1
sVdk9yp0u
p1373
I1
sVcyjv5pm
p1374
I1
sVdj2yxzu
p1375
I1
sVdf4x67s
p1376
I1
sVdmyd0gp
p1377
I1
sVddym2yg
p1378
I1
sVd2aa7ac
p1379
I1
sVd1k1paj
p1380
I1
sVd4jtlb9
p1381
I3
sVdsoatkr
p1382
I1
sVde6600r
p1383
I3
sVd32eii6
p1384
I1
sVd529w80
p1385
I1
sVd8uwwqu
p1386
I1
sVcyvruk0
p1387
I1
sVdbpctbb
p1388
I1
sVdd3ojqa
p1389
I1
sVdrzdhbt
p1390
I1
sVdsbiph8
p1391
I1
sVdggqoj3
p1392
I1
sVdq3xsb0
p1393
I1
sVd0s7uh1
p1394
I2
sVd53d619
p1395
I3
sVd9zmo64
p1396
I1
sVdhyhd3o
p1397
I1
sVd9kgvo0
p1398
I1
sVdj3n2la
p1399
I1
sVdhytfxa
p1400
I2
sVdbs0unn
p1401
I1
sVd69aoxa
p1402
I1
sVdkkva9r
p1403
I1
sVd0xt2sd
p1404
I2
sVdj43h4z
p1405
I3
sVczornf4
p1406
I2
sVd8scers
p1407
I1
sVdboiv8q
p1408
I4
sVd88wu9s
p1409
I2
sVdsz1sb6
p1410
I2
sVdmuedgv
p1411
I1
sVd6xyv1s
p1412
I1
sVdggjzw8
p1413
I1
sVdghlqaz
p1414
I2
sVdoumhpr
p1415
I1
sVd1uv1fh
p1416
I1
sVdmu9123
p1417
I1
sVd1j5idy
p1418
I4
sVdf8v7ep
p1419
I1
sVd83bon0
p1420
I1
sVdsufhhm
p1421
I1
sVd7qi7ay
p1422
I1
sVdafzw78
p1423
I1
sVdaj7si0
p1424
I1
sVd2d8hbg
p1425
I1
sVdk3he68
p1426
I1
sVd7z81w3
p1427
I3
sVd5h72p9
p1428
I1
sVdare024
p1429
I1
sVddoiuqn
p1430
I1
sVd4iqhko
p1431
I1
sVd3lj8aq
p1432
I5
sVdakypu8
p1433
I1
sVd8y3cx6
p1434
I2
sVdgt73z8
p1435
I3
sVd1qcn5q
p1436
I2
sVdr7hojw
p1437
I1
sVddhe89v
p1438
I1
sVdacqaxt
p1439
I1
sVdjdbkfm
p1440
I1
sVdazyqj6
p1441
I1
sVdr6wcfx
p1442
I1
sVdn3cozn
p1443
I1
sVd9iqr57
p1444
I3
sVdi6iixm
p1445
I1
sVd3eqmue
p1446
I4
sVdivmlsa
p1447
I1
sVdqb4175
p1448
I1
sVdetghj6
p1449
I1
sVd6p4gr3
p1450
I1
sVd6abc7e
p1451
I4
sVd26rjb1
p1452
I1
sVd6ppxcm
p1453
I1
sVd845tse
p1454
I2
sVdry9ijy
p1455
I1
sVd644o56
p1456
I1
sVdgv0xpu
p1457
I1
sVd0uq44n
p1458
I2
sVczxwsvr
p1459
I1
sVczduoyd
p1460
I1
sVdqy2rye
p1461
I1
sVd28az5g
p1462
I1
sVd5vma1b
p1463
I1
sVdgwust1
p1464
I1
sVdrdofiv
p1465
I1
sVddl5vhr
p1466
I1
sVdosfddl
p1467
I1
sVdeysc5x
p1468
I1
sVdbvvr2s
p1469
I1
sVd6vumvi
p1470
I1
sVdpfcwpt
p1471
I2
sVd9pvdk7
p1472
I1
sVdt0pkii
p1473
I2
sVdhvet63
p1474
I2
sVd5zl38q
p1475
I1
sVd0bizz5
p1476
I1
sVda1loy1
p1477
I2
sVdtarzup
p1478
I1
sVd2l1o3j
p1479
I1
sVdhxbyvl
p1480
I1
sVd933l3y
p1481
I1
sVdjrozr3
p1482
I2
sVd8jbnf0
p1483
I1
sVd55wdzp
p1484
I5
sVdappp7p
p1485
I2
sVdkuui9l
p1486
I1
sVd5tggpx
p1487
I1
sVdrkjoi7
p1488
I1
sVd9ntam5
p1489
I1
sVddbfm3k
p1490
I1
sVd0xtcrt
p1491
I1
sVd44xt6n
p1492
I1
sVdk6w73g
p1493
I5
sVcym7o89
p1494
I1
sVde896it
p1495
I1
sVd7p1eh7
p1496
I1
sVdtggc65
p1497
I3
sVd9lc07s
p1498
I3
sVd2xlihx
p1499
I2
sVdok7bjl
p1500
I3
sVd89plyp
p1501
I1
sVdsmu3ar
p1502
I1
sVd0r04c5
p1503
I1
sVdojcph2
p1504
I5
sVd745e0h
p1505
I1
sVdnuogzf
p1506
I1
sVdmmhr1a
p1507
I1
sVdi46csr
p1508
I2
sVd0igkub
p1509
I1
sVd9ekp74
p1510
I1
sVdrarozq
p1511
I1
sVddl5nkb
p1512
I1
sVdpd563t
p1513
I1
sVd08bjbf
p1514
I2
sVcypysgj
p1515
I2
sVdkygexw
p1516
I1
sVd8967d0
p1517
I1
sVd8ut3gc
p1518
I1
sVdrbwiyk
p1519
I1
sVd3x51a2
p1520
I1
sVdfotkzm
p1521
I1
sVdhlkg87
p1522
I1
sVd5zccn5
p1523
I1
sVdezep2b
p1524
I1
sVdhc4tmr
p1525
I4
sVdfriqds
p1526
I1
sVdotj7it
p1527
I5
sVdh1kx7p
p1528
I1
sVd4sk8c0
p1529
I1
sVdf395ra
p1530
I1
sVdffuq7w
p1531
I1
sVd7lfoo4
p1532
I1
sVdpaydy5
p1533
I10
sVd177tsh
p1534
I1
sVdg4fx5l
p1535
I3
sVdazis1f
p1536
I2
sVdemk9fe
p1537
I1
sVde2pkn1
p1538
I1
sVdibw4fq
p1539
I2
sVcyls1aw
p1540
I1
sVdd4g0f9
p1541
I2
sVd2n2lom
p1542
I1
sVd9krwx5
p1543
I1
sVd6p3ro9
p1544
I1
sVdqhdzup
p1545
I1
sVd37om0s
p1546
I1
sVd5xcayw
p1547
I1
sVdp88aln
p1548
I1
sVdpo4ejj
p1549
I2
sVcyxalrd
p1550
I1
sVd6czo7a
p1551
I1
sVdob3n50
p1552
I1
sVd0snk9f
p1553
I1
sVdi9ohk9
p1554
I1
sVd3ep4vr
p1555
I1
sVdim18uu
p1556
I3
sVdglhpcb
p1557
I1
sVd9nax6m
p1558
I1
sVdifd0ea
p1559
I1
sVdmy1f9t
p1560
I1
sVd75spyt
p1561
I4
sVdsy25rw
p1562
I1
sVd7anpzx
p1563
I2
sVda0frh4
p1564
I1
sVd4tehe4
p1565
I2
sVcyx2z6v
p1566
I1
sVdh80p1q
p1567
I1
sVczz30i6
p1568
I1
sVd2quzzk
p1569
I8
sVd3xptgf
p1570
I1
sVdpsawy5
p1571
I1
sVdbgfdwz
p1572
I1
sVcyy5gy0
p1573
I1
sVdb9kqu6
p1574
I1
sVd2vo123
p1575
I1
sVdhamzqc
p1576
I1
sVcyzxsbq
p1577
I1
sVd2qf6we
p1578
I2
sVdejn5p8
p1579
I1
sVdk4gojo
p1580
I2
sVdop3idq
p1581
I1
sVd2906sz
p1582
I1
sVdpig05p
p1583
I1
sVdexn822
p1584
I3
sVd3bv8xr
p1585
I1
sVdik1rny
p1586
I1
sVd519388
p1587
I2
sVcywplf6
p1588
I1
sVd83xu0g
p1589
I2
sVdqbdw0b
p1590
I2
sVd37pr1h
p1591
I1
sVd655um9
p1592
I1
sVd0j2oj0
p1593
I1
sVd1rqjuv
p1594
I3
sVcza3gps
p1595
I1
sVddx0tbn
p1596
I1
sVda1q5om
p1597
I3
sVd6lvjbv
p1598
I1
sVd7pbfj0
p1599
I1
sVddbqj57
p1600
I1
sVd7avjkj
p1601
I1
sVd0llgyc
p1602
I1
sVdhg6p5n
p1603
I5
sVd2m54zh
p1604
I1
sVd14whlg
p1605
I1
sVdaateew
p1606
I1
sVdpcas39
p1607
I1
sVddccqm5
p1608
I1
sVdq2j1gk
p1609
I1
sVcz3u62d
p1610
I3
sVdbe5kh8
p1611
I1
sVdgzrzs4
p1612
I1
sVd32ubm1
p1613
I2
sVd4u0t5r
p1614
I2
sVd9jsmu5
p1615
I1
sVdgsbyda
p1616
I1
sVdhrsllc
p1617
I1
sVd7o6ah7
p1618
I1
sVdpo1w4y
p1619
I1
sVdfhumfy
p1620
I1
sVd6tshzw
p1621
I1
sVd39nzr2
p1622
I1
sVdjfc1so
p1623
I1
sVdk3z31d
p1624
I2
sVd2cw7k4
p1625
I1
sVdqa6f2w
p1626
I1
sVd8mb4qf
p1627
I1
sVdecfl8j
p1628
I1
sVd6gq891
p1629
I1
sVdajria6
p1630
I1
sVd6gcae9
p1631
I2
sVd6kq8ff
p1632
I1
sVdfszvmf
p1633
I1
sVd9h5hbj
p1634
I2
sVd95jgce
p1635
I2
sVd3e0pth
p1636
I5
sVdcpvzmq
p1637
I2
sVd6cnm38
p1638
I1
sVd7da1t3
p1639
I1
sVdoudhw4
p1640
I1
sVdkkj3vm
p1641
I2
sVd0tksy0
p1642
I1
sVdnrpo9t
p1643
I1
sVdmjrox1
p1644
I1
sVdc5jw43
p1645
I1
sVdh6obeq
p1646
I1
sVdfjkhed
p1647
I1
sVd6t5hcx
p1648
I1
sVdecee5p
p1649
I1
sVdc6uy6s
p1650
I1
sVdfwjvct
p1651
I1
sVdep203f
p1652
I1
sVdjboyer
p1653
I1
sVdgdqhci
p1654
I1
sVdmvbsrh
p1655
I1
sVdob4uzr
p1656
I2
sVd1gs5np
p1657
I1
sVdkkfber
p1658
I1
sVd1utyzc
p1659
I1
sVdfaylvi
p1660
I1
sVd03gdh3
p1661
I1
sVd134l3n
p1662
I1
sVcz925pt
p1663
I1
sVdmia4bs
p1664
I4
sVd7vacfv
p1665
I2
sVdkx7o6f
p1666
I1
sVdhae7cr
p1667
I1
sVde4qs5l
p1668
I1
sVdsyp990
p1669
I1
sVdcqalps
p1670
I1
sVd91iszj
p1671
I2
sVdt72i3c
p1672
I1
sVdcmxqj8
p1673
I1
sVd5m0lgn
p1674
I1
sVd3zc3f2
p1675
I1
sVdgjkgm9
p1676
I3
sVdr28h97
p1677
I1
sVd3bkg90
p1678
I1
sVd0ffq5r
p1679
I1
sVdby2v7h
p1680
I1
sVdjcbq09
p1681
I2
sVd3elt9v
p1682
I4
sVds68hle
p1683
I1
sVdknec51
p1684
I3
sVd3qffbq
p1685
I1
sVdgcxos1
p1686
I1
sVdixxyk2
p1687
I1
sVd15dlsw
p1688
I1
sVdd0maea
p1689
I4
sVdo91dm3
p1690
I1
sVdbe048i
p1691
I1
sVdekcjwm
p1692
I1
sVd85qm0z
p1693
I1
sVdazqk9x
p1694
I1
sVd7qgp9b
p1695
I1
sVdqfnqkk
p1696
I1
sVd37e2ne
p1697
I1
sVd7uu7cx
p1698
I1
sVd5m01os
p1699
I1
sVd693v8h
p1700
I1
sVdoc9v8r
p1701
I1
sVdkkxrb2
p1702
I4
sVd5zyelb
p1703
I1
sVd1npic3
p1704
I1
sVd6ps6ex
p1705
I1
sVd47likr
p1706
I1
sVd0ytkns
p1707
I1
sVdin6nlz
p1708
I2
sVdf8p53b
p1709
I1
sVd1vbjdr
p1710
I3
sVd3u836x
p1711
I1
sVd9edwnn
p1712
I1
sVd75pmk8
p1713
I2
sVdhzpjnh
p1714
I2
sVczqg8t2
p1715
I1
sVdefz9fv
p1716
I1
sVd6gkoym
p1717
I1
sVdcvook7
p1718
I1
sVcyk5ipu
p1719
I1
sVd4rlqn7
p1720
I3
sVd83tdoy
p1721
I3
sVdjxr1sz
p1722
I1
sVdgyjr26
p1723
I3
sVdj0qcfe
p1724
I1
sVdbv4pkr
p1725
I1
sVd8nslnt
p1726
I1
sVdja6nin
p1727
I1
sVdpgzf0w
p1728
I1
sVd28kwkx
p1729
I1
sVdnq86bl
p1730
I2
sVdqcaoeu
p1731
I1
sVdcbv8z3
p1732
I1
sVczat9mb
p1733
I1
sVdeizu5u
p1734
I1
sVdnc0pbi
p1735
I1
sVdhzhhrt
p1736
I1
sVdp6bn7p
p1737
I1
sVdaxsgqd
p1738
I4
sVcznowl3
p1739
I1
sVd9nokhm
p1740
I1
sVd6wi01b
p1741
I1
sVddf9s2p
p1742
I2
sVd0b1830
p1743
I1
sVddcnpsr
p1744
I1
sVdsa8u3n
p1745
I2
sVdbr67pt
p1746
I1
sVdq19a3b
p1747
I1
sVd5vog19
p1748
I1
sVd7wbv7n
p1749
I2
sVdfb918n
p1750
I1
sVdrb941d
p1751
I1
sVd2463sk
p1752
I7
sVd74h8ih
p1753
I1
sVdb65o8s
p1754
I1
sVdgdokg7
p1755
I1
sVdrx68w1
p1756
I1
sVdi9823u
p1757
I3
sVd56urhj
p1758
I1
sVdf90357
p1759
I1
sVczexcd4
p1760
I1
sVdnh1ph3
p1761
I1
sVcyuzl46
p1762
I1
sVd03ko2z
p1763
I1
sVd1lag7m
p1764
I2
sVd1wj9k6
p1765
I1
sVd7ypty5
p1766
I1
sVdbn7hwb
p1767
I1
sVd04jki3
p1768
I1
sVczphqmb
p1769
I1
sVcz060rb
p1770
I2
sVdrx9x0x
p1771
I1
sVdsz055g
p1772
I1
sVcyzz68e
p1773
I5
sVdb9y22j
p1774
I1
sVd6hlm4v
p1775
I1
sVd7n8he3
p1776
I1
sVdacvddx
p1777
I3
sVda72mau
p1778
I2
sVdjvhh2y
p1779
I1
sVdoxp3wq
p1780
I1
sVdn32thq
p1781
I2
sVdbwe6gq
p1782
I1
sVd1s0z98
p1783
I1
sVdk7w19k
p1784
I1
sVd5r7mkj
p1785
I1
sVdoe6a21
p1786
I1
sVde0he6w
p1787
I1
sVdapnzyg
p1788
I1
sVdgi7qb9
p1789
I2
sVdtf3cae
p1790
I1
sVd91zlld
p1791
I1
sVdi2d436
p1792
I1
sVdej5woi
p1793
I1
sVdorag2m
p1794
I2
sVd8h5q3u
p1795
I2
sVd2lg6g4
p1796
I1
sVdrl38np
p1797
I1
sVdmsgbsk
p1798
I2
sVdcjhf99
p1799
I1
sVdi0t3ru
p1800
I2
sVd90sze9
p1801
I2
sVdjlvfi8
p1802
I1
sVd1mwxkd
p1803
I1
sVdtdj7oa
p1804
I1
sVd26s4wq
p1805
I3
sVdpuqo9j
p1806
I1
sVdqu2k9k
p1807
I1
sVcyvpidb
p1808
I3
sVd8sfc1n
p1809
I1
sVczggkqf
p1810
I1
sVdfymfkk
p1811
I1
sVdmtm033
p1812
I1
sVd05dqo2
p1813
I1
sVde6kh3y
p1814
I2
sVdb5aqgc
p1815
I1
sVcz0q164
p1816
I1
sVd0npcbh
p1817
I2
sVdoyp8ez
p1818
I1
sVczhjg2m
p1819
I2
sVd4doqka
p1820
I2
sVcz4gn22
p1821
I2
sVcyvcx28
p1822
I1
sVdsw9seo
p1823
I1
sVd0p82va
p1824
I2
sVd0h0gj5
p1825
I1
sVdj0n4iw
p1826
I1
sVdg11me4
p1827
I1
sVdk5m9py
p1828
I1
sVd5nkmss
p1829
I2
sVdepkio1
p1830
I2
sVd91tdou
p1831
I1
sVdekuhwp
p1832
I2
sVdidwoky
p1833
I1
sVdaxbo0u
p1834
I1
sVd0yzz1d
p1835
I1
sVdjo5zsw
p1836
I1
sVdjalwpx
p1837
I2
sVddq77p4
p1838
I1
sVda2hfwz
p1839
I1
sVddzpo2n
p1840
I2
sVd03fry8
p1841
I1
sVd1lu46e
p1842
I2
sVds7m3uy
p1843
I1
sVde8zvi6
p1844
I1
sVdnq0dco
p1845
I1
sVdhzrncm
p1846
I1
sVdfpw3q5
p1847
I1
sVdcb88kw
p1848
I1
sVdcvdwkp
p1849
I2
sVdf92e1k
p1850
I2
sVddfjw77
p1851
I2
sVdnvtdb1
p1852
I1
sVd0qvg29
p1853
I1
sVdruqxz8
p1854
I1
sVczetv17
p1855
I1
sVd124ndy
p1856
I1
sVd2e6kmf
p1857
I2
sVdtagwby
p1858
I1
sVd4izgpe
p1859
I2
sVd80up5r
p1860
I1
sVdqvz1n1
p1861
I1
sVddh3tab
p1862
I1
sVdqb3tgk
p1863
I1
sVdrgq4yk
p1864
I1
sVd0n8qpr
p1865
I1
sVd089p2c
p1866
I1
sVddg7vw0
p1867
I1
sVd3aen6z
p1868
I1
sVcyoyogo
p1869
I1
sVd8ecw3p
p1870
I3
sVdexhuxy
p1871
I2
sVd9b6t4i
p1872
I2
sVdiiex6h
p1873
I1
sVd4w8dx0
p1874
I1
sVdbwnird
p1875
I1
sVddcwi2m
p1876
I2
sVd1p7dn1
p1877
I2
sVdsr1kma
p1878
I2
sVdehmf1j
p1879
I3
sVd67zqge
p1880
I1
sVdk8rjvw
p1881
I3
sVdsmbgrt
p1882
I2
sVcyw1mc0
p1883
I1
sVd9n5n3h
p1884
I1
sVdaejoax
p1885
I1
sVd7ffq0l
p1886
I1
sVdfh0nx3
p1887
I1
sVd3ex1r2
p1888
I1
sVczqi9zc
p1889
I3
sVdh4qqqf
p1890
I2
sVd5jq8ap
p1891
I14
sVdr1nnk4
p1892
I1
sVds9f5wd
p1893
I1
sVdez7d58
p1894
I1
sVczmapaw
p1895
I1
sVd7twhmo
p1896
I2
sVdrakaz7
p1897
I2
sVdi4c7io
p1898
I2
sVdp5ef4d
p1899
I1
sVdr67300
p1900
I1
sVdqpils6
p1901
I1
sVdbmxauw
p1902
I2
sVd2qf3bz
p1903
I1
sVd57nbio
p1904
I1
sVd3zy5mo
p1905
I1
sVdmza9u4
p1906
I1
sVczp68ex
p1907
I1
sVd6s78on
p1908
I1
sVd5fm3qx
p1909
I2
sVdaki05h
p1910
I1
sVdox7wuk
p1911
I1
sVd8ho0r4
p1912
I2
sVd3so3ji
p1913
I1
sVdreotuj
p1914
I1
sVds81sqe
p1915
I2
sVdcyjevr
p1916
I1
sVdg1cj4d
p1917
I1
sVd5es539
p1918
I1
sVd0eezw2
p1919
I3
sVdol3wzw
p1920
I3
sVd3bmh0w
p1921
I1
sVdiiipmv
p1922
I3
sVdrncsni
p1923
I1
sVdq37eh1
p1924
I1
sVczx0b4c
p1925
I1
sVdeibvtv
p1926
I1
sVd0y87s3
p1927
I2
sVd6ym6pw
p1928
I1
sVd6rhq51
p1929
I1
sVdd1x3vv
p1930
I1
sVdeol9x1
p1931
I1
sVd5f0lrz
p1932
I1
sVdfoszvd
p1933
I1
sVd6rs29o
p1934
I1
sVdr404h8
p1935
I1
sVddn7ct2
p1936
I1
sVdc5rju5
p1937
I5
sVd48jqmq
p1938
I1
sVd4exp0d
p1939
I1
sVdq2s8hk
p1940
I2
sVdh5k96y
p1941
I3
sVd6v4wv5
p1942
I1
sVdeyus3r
p1943
I1
sVd91fw9t
p1944
I5
sVdkr0yg0
p1945
I1
sVd61phnu
p1946
I1
sVdnqvvtr
p1947
I1
sVdj3zn8i
p1948
I1
sVd753myx
p1949
I1
sVdrajf7x
p1950
I1
sVd1d2307
p1951
I3
sVdj2w4d1
p1952
I1
sVcyvxjs2
p1953
I1
sVdjz5r39
p1954
I1
sVd39u2zo
p1955
I1
sVditswye
p1956
I1
sVdfeagha
p1957
I1
sVd6vtmtx
p1958
I1
sVdbn5d4i
p1959
I1
sVdjyqgrs
p1960
I1
sVdpi00nz
p1961
I1
sVdgxm4i6
p1962
I1
sVd3x83ng
p1963
I1
sVd6iekp5
p1964
I1
sVdosyas9
p1965
I1
sVdmimnds
p1966
I1
sVdr0wn9l
p1967
I4
sVd364khy
p1968
I2
sVdcsaytf
p1969
I1
sVd96krdi
p1970
I1
sVdju30zo
p1971
I4
sVdde07fw
p1972
I1
sVd2hvdg7
p1973
I1
sVd1ujmld
p1974
I1
sVd9gjepc
p1975
I1
sVdgibmqx
p1976
I1
sVddops8q
p1977
I1
sVdjqnilg
p1978
I6
sVd6omdsf
p1979
I1
sVder3ryb
p1980
I1
sVd7nf7mi
p1981
I1
sVddwr0eu
p1982
I1
sVd9xexn3
p1983
I1
sVdd6m8dy
p1984
I2
sVds0lf02
p1985
I1
sVd11xj37
p1986
I1
sVdp4oe7t
p1987
I1
sVcykrq78
p1988
I1
sVcyvdd51
p1989
I2
sVd43dcvf
p1990
I1
sVds2ry1z
p1991
I1
sVdf5owya
p1992
I1
sVcyse4t9
p1993
I2
sVdmul0ph
p1994
I1
sVd3swilr
p1995
I1
sVd9x1sep
p1996
I1
sVdqnkfde
p1997
I2
sVda5sws0
p1998
I1
sVdb86zgz
p1999
I1
sVd1hmr4z
p2000
I1
sVdkl1wis
p2001
I2
sVd0h00jh
p2002
I1
sVdiad3q3
p2003
I1
sVdcyrses
p2004
I1
sVdfeot3m
p2005
I1
sVdfmdc3l
p2006
I1
sVdignnnp
p2007
I1
sVd3n99hy
p2008
I1
sVdpv1kt2
p2009
I1
sVdit4e52
p2010
I2
sVd4wvsxz
p2011
I1
sVdqw8ajm
p2012
I1
sVd7otsoq
p2013
I1
sVd7nm9ef
p2014
I1
sVdcu00go
p2015
I1
sVdtgwa0v
p2016
I2
sVdqmptx6
p2017
I1
sVd2kmv3j
p2018
I1
sVdju3011
p2019
I1
sVd6mege2
p2020
I1
sVd3avyk6
p2021
I1
sVdsasa16
p2022
I1
sVd9oagbg
p2023
I2
sVdr977um
p2024
I2
sVcz6qmkx
p2025
I1
sVdgq559c
p2026
I2
sVczx74kv
p2027
I3
sVdt8v8tw
p2028
I2
sVdhx6uqe
p2029
I1
sVdagvtbs
p2030
I1
sVdndy73u
p2031
I1
sVcz9uqi8
p2032
I1
sVdb58xcb
p2033
I1
sVdqelvtn
p2034
I1
sVd04tj68
p2035
I1
sVdsk6r4z
p2036
I1
sVdrufulg
p2037
I5
sVd15g6nf
p2038
I1
sVdbgmndc
p2039
I1
sVdk9ksy5
p2040
I1
sVdt3cqcb
p2041
I1
sVdco1sez
p2042
I1
sVdr6y2q6
p2043
I4
sVdnv754v
p2044
I1
sVd0iyhdz
p2045
I2
sVdb5b38m
p2046
I1
sVdjk6hax
p2047
I1
sVczgj281
p2048
I1
sVdoxls1y
p2049
I1
sVdghzrw8
p2050
I2
sVd4u12jm
p2051
I2
sVd68m1nw
p2052
I1
sVd74rebf
p2053
I1
sVcz4kjss
p2054
I2
sVczudrq2
p2055
I1
sVdjsmufu
p2056
I1
sVdkqi9oo
p2057
I7
sVd15lvmj
p2058
I3
sVd0jhboe
p2059
I1
sVd0t8orw
p2060
I2
sVd9yts68
p2061
I1
sVd195w2b
p2062
I1
sVd0i0hvf
p2063
I1
sVd7l0awa
p2064
I2
sVdjnva1e
p2065
I1
sVdspyaqn
p2066
I1
sVd1g69uh
p2067
I3
sVcyvy8wg
p2068
I1
sVd8w6ugb
p2069
I3
sVdgrt1k9
p2070
I1
sVd4ec799
p2071
I1
sVd53f172
p2072
I2
sVde1pvk4
p2073
I1
sVdbq5z4z
p2074
I1
sVd03wa21
p2075
I1
sVddyjdwr
p2076
I1
sVdmij1ag
p2077
I2
sVcz5tg7b
p2078
I1
sVcz6ryu8
p2079
I1
sVdqbyx3w
p2080
I1
sVdrr1oln
p2081
I1
sVd4xt7wp
p2082
I2
sVdnb36ir
p2083
I1
sVdjiyaxq
p2084
I2
sVd6d1zzs
p2085
I2
sVdn78bbq
p2086
I1
sVd7qlgwc
p2087
I2
sVczxzzhr
p2088
I1
sVd6hor02
p2089
I1
sVdrun7or
p2090
I2
sVdji6nke
p2091
I1
sVd3sn1gf
p2092
I1
sVdocfw9x
p2093
I1
sVdhz81xv
p2094
I2
sVd66m690
p2095
I1
sVd0vhn4j
p2096
I1
sVdg4eg6i
p2097
I1
sVdgy5l3p
p2098
I2
sVdrbiiup
p2099
I3
sVdqz6ch8
p2100
I2
sVd35oh0y
p2101
I1
sVd6l4fox
p2102
I1
sVd2obbcp
p2103
I1
sVdexjmnp
p2104
I1
sVdj7mqcg
p2105
I1
sVd0z7ag6
p2106
I1
sVd5rgcsj
p2107
I1
sVdnpveyl
p2108
I1
sVdifpk7x
p2109
I5
sVdrc8v7i
p2110
I1
sVd27d0ez
p2111
I1
sVdbub7vn
p2112
I1
sVd5zdmx1
p2113
I1
sVdogpury
p2114
I1
sVda591rk
p2115
I1
sVdksylrg
p2116
I1
sVd87kfnu
p2117
I2
sVdk8mqs9
p2118
I1
sVdchzgo4
p2119
I1
sVdpugylw
p2120
I5
sVd9bg5s8
p2121
I1
sVdoqqvoa
p2122
I1
sVdtht4hc
p2123
I1
sVdhkc3z8
p2124
I1
sVdtgvujs
p2125
I3
sVdkaxuc1
p2126
I1
sVd88neq7
p2127
I1
sVdmswcet
p2128
I1
sVdgal1lx
p2129
I1
sVd0i4jc0
p2130
I1
sVdob4e10
p2131
I2
sVd211mhh
p2132
I1
sVd3xdkjf
p2133
I3
sVdnnsans
p2134
I2
sVdaax8wl
p2135
I2
sVd3na2p5
p2136
I1
sVdf49doy
p2137
I1
sVdh7fwvk
p2138
I1
sVdol7sbk
p2139
I2
sVcz5fcas
p2140
I1
sVd7mj2ng
p2141
I1
sVdftgu9k
p2142
I1
sVcys8whc
p2143
I1
sVd8t7vy5
p2144
I1
sVdqbhmlf
p2145
I1
sVdgx8dka
p2146
I1
sVd5vl4l8
p2147
I1
sVczllxqh
p2148
I1
sVdhvhcz7
p2149
I1
sVd2k4q3v
p2150
I1
sVd9xdibt
p2151
I1
sVdoxu4hu
p2152
I1
sVdnm2yk8
p2153
I1
sVdcy98sc
p2154
I1
sVd9pu3hf
p2155
I1
sVd0qju9o
p2156
I2
sVd1h5f2p
p2157
I1
sVdsxche4
p2158
I1
sVdpicpr1
p2159
I1
sVd9tr2xp
p2160
I1
sVd2advhc
p2161
I1
sVdpc9aau
p2162
I1
sVdijhutr
p2163
I1
sVd7yhyd6
p2164
I1
sVcywfwra
p2165
I1
sVd3vd1rp
p2166
I1
sVdpfnrfi
p2167
I1
sVdikpkaj
p2168
I1
sVdjw9qmz
p2169
I1
sVdrd9ttm
p2170
I1
sVdipkyv4
p2171
I1
sVdfdmq4t
p2172
I11
sVdc629uc
p2173
I1
sVdr9jcwl
p2174
I2
sVdg3wxf4
p2175
I2
sVd10cf63
p2176
I1
sVd7ewk7a
p2177
I1
sVdeti6sx
p2178
I1
sVd1tqdzt
p2179
I1
sVd35phgh
p2180
I1
sVdi9zivv
p2181
I1
sVd1y5fp6
p2182
I1
sVd28o1up
p2183
I1
sVdagln06
p2184
I1
sVd0r3exw
p2185
I1
sVdda5u8w
p2186
I1
sVds8wcvj
p2187
I1
sVdidjzp1
p2188
I4
sVdnknoqi
p2189
I2
sVczzxwov
p2190
I1
sVde63rxh
p2191
I2
sVdjem8tx
p2192
I2
sVcztzb92
p2193
I1
sVdjk05ar
p2194
I1
sVdpzx3za
p2195
I2
sVdnynp82
p2196
I1
sVd3x0nua
p2197
I2
sVdrh0div
p2198
I1
sVd9b9si3
p2199
I1
sVcz30c6d
p2200
I1
sVd98b4br
p2201
I2
sVdbv9ldo
p2202
I1
sVd0cn93g
p2203
I1
sVdej1ktk
p2204
I1
sVd07fhro
p2205
I1
sVd364rr9
p2206
I1
sVdjvf8c3
p2207
I1
sVdt97rws
p2208
I1
sVd1jrhig
p2209
I1
sVczswqru
p2210
I1
sVd0gg46d
p2211
I1
sVd9md2pw
p2212
I1
sVd6g0dhx
p2213
I1
sVdehejq1
p2214
I1
sVdiae9k3
p2215
I1
sVdn8p4jh
p2216
I1
sVdc3g1v1
p2217
I1
sVdn9bhgt
p2218
I1
sVdf6wr7e
p2219
I1
sVd6jz6ua
p2220
I1
sVdt649if
p2221
I1
sVdoph6t7
p2222
I3
sVd2946za
p2223
I4
sVdn41fyi
p2224
I1
sVdd6m7j2
p2225
I1
sVdbb08np
p2226
I2
sVdtiwiac
p2227
I2
sVdakl7kx
p2228
I1
sVd97qw4x
p2229
I1
sVdiy92zn
p2230
I2
sVddnk3wi
p2231
I1
sVd9r4ou4
p2232
I1
sVd9ny19t
p2233
I1
sVdmk1y6k
p2234
I1
sVdfox3ig
p2235
I2
sVd7xc8tu
p2236
I1
sVdprl61y
p2237
I1
sVd20cwag
p2238
I1
sVd0o8eg6
p2239
I1
sVdffc2s1
p2240
I1
sVdjchp1c
p2241
I2
sVd5mjmsd
p2242
I2
sVd489vc1
p2243
I1
sVd7k1xkv
p2244
I1
sVd2ob70h
p2245
I2
sVdgolg97
p2246
I1
sVdsxnq4i
p2247
I1
sVdop81fs
p2248
I1
sVd5blban
p2249
I1
sVdsemypg
p2250
I2
sVdrs80wj
p2251
I1
sVdmyzg9d
p2252
I1
sVdil7pi5
p2253
I1
sVdc6f1bd
p2254
I1
sVdtctz88
p2255
I3
sVcymdogs
p2256
I1
sVd0v5pam
p2257
I2
sVdalzcuh
p2258
I1
sVdbd1agj
p2259
I1
sVddd7bam
p2260
I1
sVdnywfx9
p2261
I1
sVdidjj8c
p2262
I1
sVds1d829
p2263
I1
sVdr2odo1
p2264
I1
sVdcc3513
p2265
I1
sVd4yh1jd
p2266
I1
sVdccd4uo
p2267
I1
sVdca5pee
p2268
I1
sVdqe980c
p2269
I1
sVd7tkvvb
p2270
I1
sVdp0job2
p2271
I1
sVd1yom6o
p2272
I1
sVd0y77l6
p2273
I1
sVdaue8h9
p2274
I1
sVdiopomj
p2275
I1
sVd97rwf2
p2276
I1
sVdk4c08s
p2277
I1
sVdd07lfy
p2278
I1
sVd1r7t9r
p2279
I1
sVdo64i52
p2280
I1
sVd9y8wb1
p2281
I1
sVdf8vzeq
p2282
I1
sVd7ne8cx
p2283
I1
sVdr4zjfx
p2284
I1
sVdr6wzrd
p2285
I3
sVdghobrv
p2286
I1
sVdoi9ub5
p2287
I2
sVdk1v249
p2288
I1
sVd16t0zd
p2289
I1
sVd2iva25
p2290
I1
sVd1fk6lw
p2291
I1
sVdsr7hzf
p2292
I1
sVdaxme8n
p2293
I1
sVdkkpefo
p2294
I1
sVdgi9oyf
p2295
I1
sVds7c1ey
p2296
I1
sVda9yxe8
p2297
I1
sVd6p8e2h
p2298
I1
sVdex8nfk
p2299
I1
sVdpnhyh3
p2300
I1
sVdneepsz
p2301
I1
sVd4y5bwj
p2302
I1
sVddg1cl8
p2303
I1
sVdb8z6ee
p2304
I1
sVd7vzhyx
p2305
I1
sVcz4xalj
p2306
I1
sVcz7wuem
p2307
I2
sVd7u024p
p2308
I1
sVd2qc4rc
p2309
I1
sVdjbafrk
p2310
I1
sVdewtibp
p2311
I1
sVdd16p15
p2312
I1
sVdb57vt1
p2313
I1
sVd52qwpl
p2314
I2
sVdgxcm1e
p2315
I3
sVdaknhv2
p2316
I1
sVd9v88f2
p2317
I1
sVdmg2cda
p2318
I2
sVd6s2029
p2319
I3
sVd85sm3t
p2320
I1
sVd23et7i
p2321
I1
sVdifkqj9
p2322
I2
sVdd76d9s
p2323
I1
sVd365dqb
p2324
I1
sVd6m7no1
p2325
I1
sVdtgce0x
p2326
I4
sVdb5ndu3
p2327
I1
sVdnjt48z
p2328
I2
sVdsicung
p2329
I1
sVdbazafa
p2330
I1
sVd09q80v
p2331
I3
sVd8wbz34
p2332
I1
sVdpe6l3r
p2333
I1
sVde0f3zb
p2334
I1
sVdi2i41i
p2335
I2
sVdr6w0co
p2336
I1
sVdas6fw8
p2337
I1
sVd0sjy4i
p2338
I5
sVd5zfz3g
p2339
I2
sVdc01sqg
p2340
I1
sVd3eqgjq
p2341
I2
sVd0sswju
p2342
I2
sVczd9kw9
p2343
I3
sVdn5r3m2
p2344
I1
sVd2p8sp3
p2345
I1
sVd9bevub
p2346
I1
sVd0ujbep
p2347
I1
sVdefhb7y
p2348
I1
sVd2um75u
p2349
I1
sVd8cj1ym
p2350
I1
sVd3zg1a3
p2351
I2
sVds04z64
p2352
I1
sVdbw0892
p2353
I1
sVd4rbrwk
p2354
I1
sVdd56pai
p2355
I1
sVd3bwzpd
p2356
I1
sVd9l4syp
p2357
I1
sVd028qij
p2358
I2
sVd7mtc19
p2359
I3
sVddztm9y
p2360
I1
sVdaawalt
p2361
I1
sVdkrzf0x
p2362
I1
sVd5nxdp3
p2363
I1
sVdeilx51
p2364
I1
sVd8ids3o
p2365
I1
sVdj1zbjk
p2366
I1
sVdeh0ej5
p2367
I1
sVd9mwztg
p2368
I1
sVd68l6y0
p2369
I1
sVd5ceatr
p2370
I2
sVd5vjksx
p2371
I1
sVdbe07q0
p2372
I1
sVd9x5y46
p2373
I2
sVdobjf9q
p2374
I2
sVd10ti1r
p2375
I1
sVdky4co9
p2376
I1
sVdb8q02r
p2377
I1
sVdt3ot36
p2378
I2
sVdbrgtwz
p2379
I1
sVd3b93w3
p2380
I1
sVd1xn49a
p2381
I2
sVd3erm67
p2382
I1
sVdob6gah
p2383
I1
sVdn1jb7y
p2384
I2
sVd47wfbk
p2385
I1
sVd13te5e
p2386
I1
sVdd3298x
p2387
I2
sVdsxdx4x
p2388
I1
sVdjky7i1
p2389
I3
sVdmv0ne9
p2390
I1
sVdmvjmld
p2391
I2
sVcystz41
p2392
I2
sVdhf89kh
p2393
I1
sVd038nz6
p2394
I1
sVcyihhu6
p2395
I1
sVdhy3iyi
p2396
I2
sVdpworhb
p2397
I1
sVdbiw6qb
p2398
I1
sVdr9iv0j
p2399
I1
sVdaw4xce
p2400
I1
sVdfsd1fn
p2401
I6
sVd8n6wrk
p2402
I1
sVdk9yuhb
p2403
I1
sVdje9j3h
p2404
I1
sVdt4mbek
p2405
I1
sVczslfmd
p2406
I1
sVd0dvlib
p2407
I1
sVd22mcsr
p2408
I1
sVd093yfw
p2409
I1
sVdn07xtp
p2410
I6
sVcyozjg1
p2411
I1
sVd34exqn
p2412
I3
sVd87avgf
p2413
I2
sVd5ktkil
p2414
I1
sVd0j27br
p2415
I1
sVd7pavec
p2416
I1
sVd373q4d
p2417
I1
sVczadewp
p2418
I1
sVd7lb08k
p2419
I1
sVdfot4z8
p2420
I2
sVdoyiqor
p2421
I2
sVdsz39wy
p2422
I1
sVd29c532
p2423
I1
sVdam32t6
p2424
I1
sVdd8jelb
p2425
I1
sVdceog2m
p2426
I1
sVdpq730s
p2427
I1
sVd1rqauq
p2428
I3
sVd92yiho
p2429
I2
sVcz69ael
p2430
I1
sVdjglinh
p2431
I2
sVdcmhofm
p2432
I3
sVd0a0em2
p2433
I1
sVda0bai5
p2434
I1
sVddnbuwo
p2435
I1
sVdrz2sm3
p2436
I1
sVd406pry
p2437
I1
sVdrzif8v
p2438
I1
sVd3jak0o
p2439
I2
sVcz8cyxv
p2440
I1
sVd687oqm
p2441
I1
sVd66ecxp
p2442
I1
sVd3x5hrv
p2443
I1
sVd0vpdnf
p2444
I2
sVd9406cx
p2445
I3
sVd9g8iz5
p2446
I1
sVdga57ht
p2447
I1
sVdfg8xd9
p2448
I1
sVdtgucl5
p2449
I1
sVdokn7s2
p2450
I1
sVd7pz1s1
p2451
I1
sVdhvt763
p2452
I1
sVdhrcwst
p2453
I1
sVdj1laau
p2454
I3
sVd83b9tg
p2455
I1
sVdg9uks6
p2456
I7
sVd8szxe8
p2457
I2
sVdry9nd6
p2458
I1
sVd8p3wnz
p2459
I1
sVdr0jgiv
p2460
I1
sVd9ajz1s
p2461
I1
sVd8469qa
p2462
I1
sVd2v4xw5
p2463
I1
sVdn7451r
p2464
I1
sVd17u8f5
p2465
I1
sVdmpv2u0
p2466
I1
sVdi0glol
p2467
I2
sVdi2qyj7
p2468
I3
sVd9r2072
p2469
I1
sVdqrp5en
p2470
I1
sVd414abz
p2471
I2
sVdmnsy4v
p2472
I2
sVdi6pnro
p2473
I6
sVd0mexzh
p2474
I1
sVdil8ioi
p2475
I1
sVdc1swzj
p2476
I1
sVd5tog0h
p2477
I5
sVdc7nri7
p2478
I1
sVdhny9dp
p2479
I1
sVdsazpzh
p2480
I2
sVdnwnglg
p2481
I1
sVdh0u8q0
p2482
I1
sVd0slr5d
p2483
I2
sVdq2etfp
p2484
I2
sVczjr9mi
p2485
I1
sVd3zpplv
p2486
I1
sVd4iuijm
p2487
I2
sVcz73tlr
p2488
I1
sVda0ag0y
p2489
I1
sVd95d42j
p2490
I2
sVdeq2cmt
p2491
I1
sVdcifhr3
p2492
I3
sVdalva25
p2493
I1
sVdi8v7j4
p2494
I1
sVdpjeou0
p2495
I1
sVd513wp5
p2496
I1
sVd5lfaov
p2497
I2
sVdn8xbgn
p2498
I1
sVdjoc5xe
p2499
I1
sVdoe3i7s
p2500
I1
sVdgj2xdc
p2501
I1
sVd28nlvj
p2502
I1
sVdjkbqm0
p2503
I1
sVdaxwd63
p2504
I1
sVdg52x5n
p2505
I1
sVd2bga2g
p2506
I1
sVd6d990r
p2507
I1
sVddlpzyd
p2508
I2
sVd4agwpg
p2509
I4
sVdgk7vn0
p2510
I1
sVdqevyf7
p2511
I2
sVdkw8x8e
p2512
I1
sVdjvp69c
p2513
I1
sVd32rli5
p2514
I1
sVdfelqg8
p2515
I1
sVd7rxq1a
p2516
I1
sVdfodfmb
p2517
I2
sVd1r5e6h
p2518
I1
sVd841y8v
p2519
I1
sVd0vwnre
p2520
I1
sVd21a3to
p2521
I1
sVdfu6hj9
p2522
I1
sVdd38r2v
p2523
I1
sVczbkxhg
p2524
I3
sVdbe12jf
p2525
I2
sVdfzujdg
p2526
I1
sVdoqmcse
p2527
I1
sVd00c51g
p2528
I2
sVdrq1ldz
p2529
I1
sVdply0kp
p2530
I1
sVd02vgfa
p2531
I1
sVd845jqs
p2532
I1
sVdrf94g8
p2533
I7
sVd7bo37m
p2534
I3
sVd30twx9
p2535
I2
sVdsko0pq
p2536
I1
sVd3rv36z
p2537
I2
sVd2cbxk3
p2538
I1
sVczrw6ld
p2539
I6
sVd2887tk
p2540
I2
sVd6k5kfa
p2541
I2
sVdeyfh4c
p2542
I1
sVd2oaeuz
p2543
I1
sVdpxclrj
p2544
I2
sVd0qhre9
p2545
I1
sVdehrc68
p2546
I1
sVd36xq8t
p2547
I1
sVdcim437
p2548
I1
sVdk4vs44
p2549
I4
sVdc2y40y
p2550
I1
sVdqgkuqg
p2551
I1
sVddu01kb
p2552
I1
sVcymisj9
p2553
I1
sVd3zngec
p2554
I1
sVdj2i3fn
p2555
I2
sVd1vcxh3
p2556
I1
sVdomt4ct
p2557
I1
sVcymckxg
p2558
I1
sVdclb1g4
p2559
I1
sVd1v29cs
p2560
I2
sVd90ypkf
p2561
I2
sVdi48l7d
p2562
I1
sVdb0wioa
p2563
I1
sVdr6isro
p2564
I2
sVdg1t637
p2565
I1
sVdoszhkj
p2566
I1
sVdhcpfje
p2567
I1
sVdbz7k37
p2568
I1
sVd896i68
p2569
I1
sVczuau8w
p2570
I1
sVdghssbz
p2571
I1
sVcyjqt44
p2572
I2
sVd4u0rp0
p2573
I1
sVddwrpoe
p2574
I1
sVd9tq6m9
p2575
I1
sVdb51uwo
p2576
I1
sVdjwenhr
p2577
I1
sVdsu21wv
p2578
I2
sVcyxz6wr
p2579
I1
sVcywp3e6
p2580
I1
sVd9y1mgj
p2581
I1
sVdpt6pam
p2582
I1
sVd7uq3b0
p2583
I1
sVd83qmjv
p2584
I1
sVdg41zkn
p2585
I2
sVdhnzc8l
p2586
I1
sVdrz4aq1
p2587
I1
sVd82u9lq
p2588
I5
sVdsfwxqm
p2589
I1
sVdj2lksj
p2590
I1
sVd6s609j
p2591
I1
sVdoata0i
p2592
I1
sVczgymu8
p2593
I1
sVd03lywr
p2594
I1
sVdiei54w
p2595
I1
sVcz7fjdr
p2596
I1
sVcys4gyq
p2597
I1
sVdheugxk
p2598
I2
sVdirblfe
p2599
I1
sVds4x685
p2600
I1
sVd8kqcqe
p2601
I4
sVd06l2lx
p2602
I1
sVd10jmhc
p2603
I1
sVdg3yk26
p2604
I1
sVdo86ffe
p2605
I1
sVd0ykv61
p2606
I1
sVddijgvh
p2607
I2
sVd877rip
p2608
I3
sVd93izes
p2609
I2
sVd5m44x4
p2610
I2
sVd0xpn9x
p2611
I1
sVd5nnwni
p2612
I1
sVd3uu4pf
p2613
I2
sVd9fx81u
p2614
I1
sVdajm74o
p2615
I3
sVd50t39g
p2616
I1
sVd3396kf
p2617
I2
sVdjp128x
p2618
I2
sVd7q7as3
p2619
I1
sVdgs67bg
p2620
I2
sVdopni6w
p2621
I2
sVd3ezxnt
p2622
I5
sVd6hw1ye
p2623
I1
sVdkupstv
p2624
I1
sVd8du5n2
p2625
I1
sVd3a8szb
p2626
I1
sVdk78uo6
p2627
I1
sVd9xk5xe
p2628
I2
sVdql4qp9
p2629
I2
sVdrpdv3u
p2630
I3
sVd2uzqb7
p2631
I5
sVddw1p86
p2632
I1
sVcyjyims
p2633
I1
sVdiesekr
p2634
I3
sVdinl220
p2635
I2
sVd51kv7o
p2636
I2
sVdi8k2mh
p2637
I1
sVd66pv4f
p2638
I2
sVd3ke1al
p2639
I1
sVd874nxh
p2640
I3
sVdeu7k3b
p2641
I1
sVcyyqfum
p2642
I1
sVd3mawfy
p2643
I1
sVdopzhfr
p2644
I1
sVdb7ekaa
p2645
I2
sVdr1v3v0
p2646
I1
sVd9i5zoc
p2647
I1
sVdfq90k9
p2648
I1
sVdj2s9un
p2649
I1
sVd09iip5
p2650
I1
sVdcv480f
p2651
I1
sVdd7zyz2
p2652
I1
sVdr91qy1
p2653
I1
sVd97qev0
p2654
I1
sVd09j432
p2655
I1
sVdn70duc
p2656
I1
sVdjiyfs2
p2657
I1
sVdc4hu41
p2658
I1
sVd08zl81
p2659
I1
sVda33n3r
p2660
I3
sVczhsm6u
p2661
I1
sVd71l6j1
p2662
I2
sVdhkzaxw
p2663
I1
sVd6xdu0m
p2664
I1
sVd93ze5y
p2665
I3
sVd1mq8vd
p2666
I2
sVcyp0miq
p2667
I3
sVdi7n9du
p2668
I1
sVdac4bpx
p2669
I1
sVdp8jljy
p2670
I1
sVd43uikq
p2671
I1
sVdb0noed
p2672
I1
sVd73txir
p2673
I1
sVd8ta18a
p2674
I1
sVd3zbgmc
p2675
I1
sVdrrv3r8
p2676
I1
sVddexsp0
p2677
I1
sVddqi560
p2678
I1
sVdd3um9v
p2679
I1
sVcz8f47d
p2680
I1
sVd8aa9ss
p2681
I3
sVd0epek9
p2682
I3
sVdb2ojfb
p2683
I1
sVd9d6lr4
p2684
I1
sVd72qcw9
p2685
I1
sVdspmnls
p2686
I2
sVdgcmumv
p2687
I2
sVd62hwhg
p2688
I1
sVdj191rh
p2689
I2
sVdbr61wx
p2690
I1
sVdt8ktll
p2691
I2
sVd2m4yfj
p2692
I1
sVdpks6c4
p2693
I1
sVd2twsi2
p2694
I1
sVd6l5dnr
p2695
I1
sVdafbm71
p2696
I1
sVdkj3kf3
p2697
I1
sVds8deti
p2698
I2
sVd3u8h05
p2699
I2
sVd9vkmo9
p2700
I1
sVdcq5s2w
p2701
I1
sVd5r6ik3
p2702
I3
sVd436471
p2703
I1
sVdqpoagw
p2704
I1
sVd03wwuz
p2705
I1
sVd1jlxvz
p2706
I1
sVdikbiyq
p2707
I1
sVdrq5n1c
p2708
I1
sVd50ahz9
p2709
I1
sVd0asfax
p2710
I1
sVdkcvof1
p2711
I1
sVdafbzfp
p2712
I1
sVdpm1ko5
p2713
I1
sVd01rria
p2714
I1
sVdagq5ul
p2715
I1
sVdtf73mq
p2716
I1
sVdp81le3
p2717
I1
sVdno0ack
p2718
I3
sVdqll7p0
p2719
I1
sVdg22rms
p2720
I1
sVdb95qmx
p2721
I4
sVdh76u34
p2722
I1
sVdbeharc
p2723
I1
sVcz6j8eo
p2724
I1
sVdeyp88a
p2725
I1
sVdsgir7j
p2726
I2
sVdede3kd
p2727
I1
sVdkksdgx
p2728
I1
sVd1jrz18
p2729
I1
sVddh7xs2
p2730
I1
sVdgr8u8t
p2731
I2
sVd9c2sky
p2732
I1
sVczzdq33
p2733
I1
sVd6lblof
p2734
I3
sVdrtlo6u
p2735
I1
sVdkxkjzt
p2736
I1
sVdol8kla
p2737
I2
sVdnzy5ek
p2738
I1
sVd39tnbf
p2739
I1
sVd3ocu7s
p2740
I1
sVd89c8vi
p2741
I1
sVd6kfxvb
p2742
I1
sVdhhjocu
p2743
I3
sVcz1uej8
p2744
I3
sVdkn6abc
p2745
I2
sVdsvpsug
p2746
I1
sVczc3f99
p2747
I1
sVd0xrsa7
p2748
I1
sVczf5lto
p2749
I2
sVddng2vq
p2750
I2
sVdrc6mgh
p2751
I1
sVdmfzdjs
p2752
I2
sVdqfn1z9
p2753
I2
sVdt3skgn
p2754
I1
sVczs30q1
p2755
I1
sVd9cw42c
p2756
I1
sVdae4dtv
p2757
I2
sVddiz3ei
p2758
I1
sVd0dfmcq
p2759
I2
sVd76lhg0
p2760
I5
sVdci011c
p2761
I1
sVd74726n
p2762
I1
sVdhl6akf
p2763
I1
sVddgvr15
p2764
I1
sVdd9huyx
p2765
I1
sVczdxfrl
p2766
I5
sVdcpq9v4
p2767
I7
sVdqe8ogg
p2768
I1
sVd0ickwo
p2769
I1
sVdkive3v
p2770
I1
sVd9nbh7u
p2771
I1
sVd6j5gy1
p2772
I1
sVdbmfj0z
p2773
I1
sVd0p5ckt
p2774
I1
sVddrje29
p2775
I2
sVdjfqt88
p2776
I1
sVddcrgiq
p2777
I3
sVder6uuj
p2778
I1
sVd09nxa9
p2779
I5
sVd5jzvqr
p2780
I2
sVdo1mndy
p2781
I1
sVdg3colc
p2782
I2
sVdb53m2g
p2783
I1
sVdmfjdph
p2784
I2
sVczht1z8
p2785
I1
sVd4uzl2y
p2786
I2
sVdojcjg4
p2787
I1
sVd3es8vi
p2788
I1
sVd0uya40
p2789
I1
sVczf3xjm
p2790
I1
sVcz2bhjy
p2791
I1
sVdg8eg6t
p2792
I1
sVd7luzwm
p2793
I1
sVdos4lb5
p2794
I2
sVdo7k7x7
p2795
I2
sVd4attla
p2796
I2
sVd1wfsg2
p2797
I1
sVdckbby0
p2798
I1
sVdanod3j
p2799
I3
sVdcb8ki8
p2800
I1
sVczuhazs
p2801
I1
sVdk7qhqd
p2802
I1
sVdosz0q2
p2803
I1
sVd4o1h9t
p2804
I1
sVdpp0gft
p2805
I1
sVdny2p0b
p2806
I1
sVdaf2z6q
p2807
I1
sVd8svqaf
p2808
I1
sVddcpgj3
p2809
I4
sVd8qawxe
p2810
I2
sVdgz04q0
p2811
I1
sVd0441x7
p2812
I1
sVcyufd2e
p2813
I3
sVd83evyn
p2814
I1
sVczhydic
p2815
I1
sVdfp2qdy
p2816
I1
sVczftann
p2817
I2
sVd0wd9od
p2818
I1
sVdpy194l
p2819
I1
sVdrz6vzy
p2820
I1
sVd432byb
p2821
I1
sVdndilut
p2822
I1
sVd3n621v
p2823
I1
sVdc9eypb
p2824
I1
sVd3946t4
p2825
I1
sVdhpips6
p2826
I1
sVd1xz6bd
p2827
I2
sVdjjhil6
p2828
I1
sVdcvunkx
p2829
I3
sVd0b5a7l
p2830
I1
sVd5hwi70
p2831
I1
sVd6sng1f
p2832
I1
sVd9ez7gu
p2833
I2
sVdbxtzg6
p2834
I1
sVdqfjjze
p2835
I1
sVd0ku04i
p2836
I1
sVd18gybi
p2837
I1
sVdfal1lt
p2838
I2
sVdiparg6
p2839
I1
sVdnckhgx
p2840
I1
sVddrib7g
p2841
I1
sVd929tfs
p2842
I1
sVdf91sd7
p2843
I1
sVd8mbfe4
p2844
I1
sVd9d1vtf
p2845
I1
sVdoggety
p2846
I1
sVdcmfrhn
p2847
I2
sVd2f874n
p2848
I1
sVd996eff
p2849
I1
sVdqc2dcg
p2850
I3
sVdkjgy7m
p2851
I2
sVdspbpep
p2852
I2
sVdiktq71
p2853
I2
sVd8onrgf
p2854
I1
sVd5oq2ol
p2855
I2
sVczuyhuo
p2856
I2
sVd1z05xl
p2857
I1
sVdt3p4l6
p2858
I1
sVdkdp909
p2859
I1
sVd6a6xxm
p2860
I1
sVdeyfgd1
p2861
I2
sVdfjt8f3
p2862
I1
sVdi1w0m6
p2863
I1
sVd6ectbv
p2864
I1
sVd6mxi9p
p2865
I2
sVd3vfh7r
p2866
I1
sVczw1fwg
p2867
I1
sVdsed7mp
p2868
I1
sVczi699p
p2869
I6
sVdbb1f9k
p2870
I1
sVd705atw
p2871
I1
sVdht1ohb
p2872
I1
sVda58xsb
p2873
I1
sVd249lr3
p2874
I1
sVd0fhkj8
p2875
I1
sVd9aiyb4
p2876
I1
sVdgpz22e
p2877
I2
sVdf4y3qr
p2878
I1
sVdgxirn4
p2879
I1
sVdsgap7w
p2880
I2
sVd4vbn90
p2881
I2
sVd13pksz
p2882
I1
sVcz9khhb
p2883
I1
sVddfydvt
p2884
I2
sVdc3xxhp
p2885
I2
sVdb8y0f6
p2886
I1
sVd2ibftw
p2887
I1
sVd8g8pzs
p2888
I1
sVd8x12aj
p2889
I4
sVdhb6ern
p2890
I2
sVdp098qw
p2891
I1
sVdjn7kkj
p2892
I1
sVdth0756
p2893
I4
sVd4l80or
p2894
I1
sVd130bte
p2895
I1
sVd3z7z7m
p2896
I1
sVdr9of1h
p2897
I9
sVdbjralv
p2898
I1
sVdd0l4sj
p2899
I1
sVdjixd5m
p2900
I1
sVdd4l8l4
p2901
I1
sVdi9c9m4
p2902
I2
sVcyqcvrj
p2903
I1
sVd6rksqp
p2904
I1
sVdp0zu76
p2905
I1
sVd5d3612
p2906
I1
sVdhc5dio
p2907
I1
sVd9qmx9l
p2908
I1
sVd41e7s7
p2909
I3
sVd5vqy4x
p2910
I2
sVd5zizyi
p2911
I1
sVd46g3jw
p2912
I1
sVdf90ydq
p2913
I2
sVd9p92hd
p2914
I1
sVdbdp3k5
p2915
I1
sVdsw7htj
p2916
I1
sVdesewfa
p2917
I1
sVdk49dgs
p2918
I1
sVd5iovt4
p2919
I1
sVdaij5t8
p2920
I1
sVdmu9nm4
p2921
I3
sVdix18mj
p2922
I1
sVdan2d4l
p2923
I1
sVdcvgc4s
p2924
I1
sVd3ishd4
p2925
I1
sVd9l7kec
p2926
I3
sVd94si81
p2927
I1
sVdewiy41
p2928
I1
sVd9pawko
p2929
I1
sVdmhh6aw
p2930
I2
sVd005vub
p2931
I1
sVdbsr8gy
p2932
I1
sVdrihq5x
p2933
I1
sVczhbynp
p2934
I1
sVczrbabb
p2935
I1
sVd44vsku
p2936
I1
sVd0bijkh
p2937
I1
sVdcuhvvi
p2938
I2
sVd99txb8
p2939
I1
sVd8t1owi
p2940
I8
sVd7e1uv7
p2941
I1
sVdreoeif
p2942
I1
sVczvnv17
p2943
I1
sVcyz6auk
p2944
I1
sVd7ip9p5
p2945
I1
sVddfy8b2
p2946
I2
sVdmhd8gr
p2947
I1
sVd8edold
p2948
I1
sVd639tyo
p2949
I3
sVd4jsxhv
p2950
I13
sVd54jsia
p2951
I1
sVdqlz5wk
p2952
I1
sVdoolz09
p2953
I1
sVcz5vuc6
p2954
I1
sVd0rjg5v
p2955
I2
sVdtd78mq
p2956
I1
sVdr7oiiv
p2957
I1
sVcypuo4u
p2958
I1
sVddwjotv
p2959
I1
sVd0h6ev8
p2960
I1
sVd2vpq3p
p2961
I1
sVdnq79op
p2962
I4
sVd3u0ul5
p2963
I1
sVdjfyyi2
p2964
I1
sVcyrqnds
p2965
I1
sVde6u99f
p2966
I1
sVd6hjzpu
p2967
I1
sVdczeer3
p2968
I1
sVd95q3vf
p2969
I1
sVd3sj7c3
p2970
I2
sVdchmabk
p2971
I1
sVd82k1vi
p2972
I1
sVd5ggjyt
p2973
I1
sVdoln6nv
p2974
I1
sVdqsmgng
p2975
I1
sVd04e8gh
p2976
I4
sVdmic77n
p2977
I3
sVdg0ci8s
p2978
I1
sVdb5212z
p2979
I1
sVcysyr0w
p2980
I1
sVd6l7aow
p2981
I1
sVd00h6so
p2982
I1
sVd3y31rc
p2983
I1
sVdipl9dy
p2984
I1
sVdfp6y4b
p2985
I1
sVdg0r6cm
p2986
I1
sVd1ruc0y
p2987
I1
sVd0dex28
p2988
I1
sVdrvay7b
p2989
I1
sVdmfxxg3
p2990
I1
sVd6p0q63
p2991
I3
sVczfbnti
p2992
I1
sVdjdlgwo
p2993
I2
sVd21w7go
p2994
I1
sVd832oeo
p2995
I1
sVdikma06
p2996
I1
sVdhihl2e
p2997
I1
sVdk4p8n9
p2998
I2
sVd20z677
p2999
I1
sVdb7cidv
p3000
I1
sVd4xe0kq
p3001
I1
sVdfna8xf
p3002
I1
sVdrubt8i
p3003
I1
sVds0ol18
p3004
I1
sVdfp3hpu
p3005
I3
sVdfwyre7
p3006
I1
sVddz4tvx
p3007
I1
sVd7gjb86
p3008
I1
sVdcaav6h
p3009
I1
sVdkqv475
p3010
I2
sVd8spolp
p3011
I1
sVd3pfkxa
p3012
I1
sVd28qeu2
p3013
I2
sVd25mhyo
p3014
I1
sVdcvm0hg
p3015
I1
sVd2qdlh6
p3016
I2
sVd0tlq9v
p3017
I1
sVdpw8e31
p3018
I1
sVdgn62ny
p3019
I2
sVdsk5jy5
p3020
I1
sVd2ig4ma
p3021
I1
sVcze7y6a
p3022
I1
sVdruo9px
p3023
I1
sVczqy60n
p3024
I1
sVd3q9n5u
p3025
I1
sVd7ayydh
p3026
I2
sVdmvdhau
p3027
I2
sVd1cdq44
p3028
I2
sVd1aza4i
p3029
I3
sVd01m4o4
p3030
I1
sVd3n7gqx
p3031
I2
sVd4vi60w
p3032
I1
sVd8hdh92
p3033
I1
sVd3uckqh
p3034
I1
sVd71ib0b
p3035
I1
sVd757f33
p3036
I1
sVd5hfl1l
p3037
I1
sVdci0db0
p3038
I1
sVddptz9k
p3039
I2
sVdpvweza
p3040
I1
sVds4nd37
p3041
I1
sVdcvmikh
p3042
I1
sVd1zk7a2
p3043
I2
sVdg426kt
p3044
I1
sVd6dv4v4
p3045
I1
sVd0knknh
p3046
I1
sVdgp1lhh
p3047
I1
sVdao5plk
p3048
I2
sVdn5k9c7
p3049
I1
sVczy7sm1
p3050
I2
sVd33kj4t
p3051
I1
sVdpgcll8
p3052
I1
sVdpu4wsj
p3053
I2
sVdtj3edt
p3054
I1
sVdp3rzlj
p3055
I1
sVdks7nn1
p3056
I2
sVcykkk0o
p3057
I1
sVdrqrlxj
p3058
I1
sVdrrvcbv
p3059
I1
sVda8jhcj
p3060
I1
sVd20bpr9
p3061
I2
sVdrhuylu
p3062
I1
sVd0x4ofz
p3063
I1
sVdj12vjj
p3064
I1
sVdcvrake
p3065
I2
sVdn7f5z5
p3066
I1
sVdovldnf
p3067
I1
sVda59w21
p3068
I1
sVdh7mche
p3069
I3
sVdbpsbl2
p3070
I1
sVd9wqmth
p3071
I1
sVd5tibya
p3072
I1
sVd0vssj7
p3073
I1
sVd8o4jck
p3074
I1
sVdj3i52x
p3075
I2
sVdfpgey2
p3076
I1
sVd6ijryp
p3077
I1
sVd6z1xbt
p3078
I1
sVddda3l0
p3079
I1
sVcyv8bgh
p3080
I1
sVd4v1sdu
p3081
I1
sVdqvdy72
p3082
I2
sVcyzqacy
p3083
I1
sVdmw3p8f
p3084
I1
sVd1wbths
p3085
I4
sVdhnl1zf
p3086
I1
sVdoelwxc
p3087
I1
sVdrpspod
p3088
I3
sVcyitpfe
p3089
I1
sVdfq7pum
p3090
I1
sVdizv09f
p3091
I1
sVd3z6k0n
p3092
I1
sVd5mtwoh
p3093
I1
sVdjt9lmh
p3094
I1
sVd1tk8zp
p3095
I1
sVdov1hxi
p3096
I1
sVdhp5m0k
p3097
I1
sVd87a60r
p3098
I1
sVdk3a3fr
p3099
I1
sVdj9tp1g
p3100
I1
sVda6jckg
p3101
I2
sVdoj8d38
p3102
I1
sVd0sqq93
p3103
I1
sVdp9y7h5
p3104
I1
sVdh0yev6
p3105
I2
sVdfic932
p3106
I1
sVdjdshes
p3107
I2
sVd03z2qo
p3108
I1
sVdj3h5gg
p3109
I1
sVcyyxqe2
p3110
I1
sVdes8dei
p3111
I1
sVd4ov771
p3112
I1
sVd4v64lh
p3113
I1
sVdt2u203
p3114
I1
sVdak33ob
p3115
I1
sVd9f8hyz
p3116
I2
sVd0yj6h1
p3117
I2
sVd6n60z8
p3118
I1
sVdk9k3vv
p3119
I4
sVdn9ian4
p3120
I1
sVcz6cssv
p3121
I1
sVdbwr5xz
p3122
I7
sVd680isl
p3123
I2
sVdatf4el
p3124
I1
sVdqa6jrb
p3125
I1
sVdef43gk
p3126
I1
sVcyyqnjs
p3127
I1
sVds1qay2
p3128
I1
sVdjjh5kd
p3129
I1
sVdt0irji
p3130
I1
sVd325w4z
p3131
I1
sVdb0w48c
p3132
I1
sVdqjxwxk
p3133
I1
sVd8sv8p6
p3134
I1
sVdceu7js
p3135
I2
sVdfidtn8
p3136
I1
sVdggm966
p3137
I1
sVd45mtqz
p3138
I1
sVd9ncfr3
p3139
I5
sVdt1s055
p3140
I1
sVdofb6m5
p3141
I1
sVd3lpv1n
p3142
I3
sVd3qsqk2
p3143
I1
sVd82ylit
p3144
I1
sVd0vy3ex
p3145
I2
sVdh5s3g6
p3146
I1
sVd6ingaw
p3147
I1
sVdqff96q
p3148
I1
sVdcx2vxv
p3149
I3
sVdapynpj
p3150
I2
sVcyi8h5l
p3151
I1
sVdt2t226
p3152
I1
sVd8cfkju
p3153
I1
sVdhecbu9
p3154
I2
sVds7fcmc
p3155
I1
sVdbk6wgy
p3156
I1
sVdcukbg1
p3157
I1
sVdohjfg1
p3158
I2
sVd495qy1
p3159
I1
sVd0t84oq
p3160
I1
sVd3z9eq8
p3161
I1
sVd0x7b9t
p3162
I1
sVdb57nfj
p3163
I1
sVd0h6mj3
p3164
I1
sVdfyyx2q
p3165
I1
sVcyv0836
p3166
I1
sVd134hsq
p3167
I1
sVd1tbz0v
p3168
I1
sVdfjo6o4
p3169
I1
sVczhm43v
p3170
I1
sVdn0ejjb
p3171
I2
sVdd7x8h2
p3172
I2
sVdse6w4x
p3173
I1
sVdqam19l
p3174
I2
sVd4hxej5
p3175
I1
sVczy0ihy
p3176
I1
sVdkocv6q
p3177
I1
sVdr7b9dv
p3178
I1
sVdrj4bge
p3179
I1
sVd426yty
p3180
I1
sVd20i8gf
p3181
I1
sVd0hb64g
p3182
I1
sVdg3echp
p3183
I2
sVd3n07ny
p3184
I1
sVdq3aeko
p3185
I1
sVdputev6
p3186
I1
sVd0yy52l
p3187
I1
sVczttl7a
p3188
I1
sVd3zvyoz
p3189
I1
sVdblrxt8
p3190
I1
sVd1kky8w
p3191
I1
sVd4vwtlu
p3192
I1
sVdcdlapg
p3193
I1
sVdd5pgd4
p3194
I2
sVdcko0m5
p3195
I1
sVd1r6x88
p3196
I1
sVczsnm2i
p3197
I2
sVdde0b2a
p3198
I1
sVd7sn1e7
p3199
I1
sVczryp7t
p3200
I2
sVd67t7a5
p3201
I1
sVd438ugp
p3202
I1
sVdggvet9
p3203
I1
sVdqaaubo
p3204
I1
sVd0wfe62
p3205
I1
sVd3n5urf
p3206
I1
sVdf415pl
p3207
I1
sVd3b40z2
p3208
I1
sVdemi62u
p3209
I1
sVdo1v00a
p3210
I1
sVd09ks5y
p3211
I1
sVdaxkvp4
p3212
I4
sVd3l2ezc
p3213
I1
sVd079011
p3214
I1
sVd3m6ozl
p3215
I1
sVcz586pj
p3216
I1
sVdmkh77i
p3217
I2
sVdfsm8ah
p3218
I6
sVdsxjki0
p3219
I2
sVdncr9ts
p3220
I10
sVddhzh56
p3221
I1
sVdob98iu
p3222
I1
sVd6qcg8r
p3223
I1
sVdaknlnv
p3224
I1
sVd5cfcuq
p3225
I1
sVdcl2yh3
p3226
I5
sVd9b9tem
p3227
I2
sVdbw2145
p3228
I1
sVd8yn5sj
p3229
I2
sVd1dd9xq
p3230
I1
sVd9wllx3
p3231
I1
sVd5gbwmn
p3232
I1
sVdae2u77
p3233
I3
sVdasxe5t
p3234
I1
sVd05r5w3
p3235
I4
sVdkj18kf
p3236
I2
sVd8qen39
p3237
I1
sVdrz0bm7
p3238
I1
sVdrti93f
p3239
I1
sVdbgh487
p3240
I1
sVd1n3772
p3241
I1
sVdsaxykc
p3242
I1
sVd82qwsk
p3243
I1
sVd3831fl
p3244
I1
sVd66wnr5
p3245
I1
sVdrn99pf
p3246
I1
sVdo3gtac
p3247
I1
sVdohs9aa
p3248
I1
sVd13s3jw
p3249
I1
sVdrt3zba
p3250
I1
sVdjdzimu
p3251
I4
sVcyiu785
p3252
I1
sVd1owycy
p3253
I1
sVdrktz7t
p3254
I3
sVdgm8vjo
p3255
I1
sVd88uq9m
p3256
I1
sVdkpl8ya
p3257
I1
sVdsrcdun
p3258
I1
sVdmir68i
p3259
I1
sVdgmeq54
p3260
I1
sVdbq1b3z
p3261
I1
sVddlkomx
p3262
I1
sVdjoouat
p3263
I2
sVdfvko15
p3264
I1
sVdbn7xlj
p3265
I2
sVdho198r
p3266
I1
sVdancy5l
p3267
I1
sVd0svtjl
p3268
I1
sVd3m56lr
p3269
I1
sVdo4c53z
p3270
I1
sVd5wtdx3
p3271
I2
sVdd73hl8
p3272
I1
sVdk9zcj5
p3273
I2
sVd5zv4s2
p3274
I1
sVdmfy072
p3275
I2
sVddcd5fw
p3276
I1
sVd74aa0n
p3277
I2
sVdhjgb6y
p3278
I1
sVdf3j19v
p3279
I1
sVdhgz87a
p3280
I2
sVd1958zr
p3281
I1
sVd807y56
p3282
I1
sVd0fjgc1
p3283
I1
sVdfotbkr
p3284
I1
sVda0gbnf
p3285
I1
sVdmxbs67
p3286
I1
sVdiugr0o
p3287
I1
sVdi56ylp
p3288
I1
sVdruakvz
p3289
I1
sVdt4gd53
p3290
I1
sVd3fjc6r
p3291
I1
sVdt4if17
p3292
I1
sVczmrg5i
p3293
I1
sVcz2r25f
p3294
I1
sVdap5miy
p3295
I1
sVdcw66rb
p3296
I1
sVda1gpqw
p3297
I1
sVdqavyhx
p3298
I1
sVdbsbefv
p3299
I3
sVdgffp4f
p3300
I1
sVdhblmf8
p3301
I1
sVdokbdlj
p3302
I1
sVcyj2jad
p3303
I1
sVd6vdfdt
p3304
I1
sVdmjfn9g
p3305
I2
sVdf8jmcx
p3306
I1
sVd07sq2t
p3307
I1
sVdgzo36d
p3308
I1
sVdf6txzj
p3309
I1
sVdjzgd4r
p3310
I1
sVczbg2gh
p3311
I1
sVddcpax6
p3312
I1
sVd5rse5a
p3313
I1
sVdbxhnld
p3314
I1
sVd2pvuk4
p3315
I1
sVdbp7x6j
p3316
I1
sVdemlofu
p3317
I1
sVddu4sm2
p3318
I1
sVczgrjbu
p3319
I1
sVcz1ljn1
p3320
I2
sVdmt0df6
p3321
I2
sVdbk19je
p3322
I1
sVd35foe1
p3323
I1
sVdexjhoy
p3324
I1
sVdnogoal
p3325
I2
sVd1drwsj
p3326
I1
sVd1hm8iv
p3327
I3
sVcyjcqd2
p3328
I1
sVcz5gz88
p3329
I4
sVdtdzwwp
p3330
I3
sVd0g8b02
p3331
I1
sVdgziye7
p3332
I1
sVd1d6hn6
p3333
I2
sVdgj83i2
p3334
I1
sVde8nq55
p3335
I1
sVdhbd9v5
p3336
I1
sVd175gnu
p3337
I2
sVd0i1nf4
p3338
I1
sVdr6wquy
p3339
I1
sVdkqwcrg
p3340
I3
sVdc7s2ml
p3341
I1
sVd8ve0tm
p3342
I1
sVdcapgiy
p3343
I1
sVdss8mbf
p3344
I1
sVd3nqujy
p3345
I1
sVd0flbkw
p3346
I1
sVdf6trpu
p3347
I1
sVdcikgj4
p3348
I3
sVd023dku
p3349
I1
sVd7hsld1
p3350
I1
sVdclisbg
p3351
I1
sVdhax1g8
p3352
I1
sVdq7rwqh
p3353
I1
sVczp097f
p3354
I1
sVd7tpxga
p3355
I3
sVd0fie41
p3356
I1
sVdkyah27
p3357
I1
sVdpj3827
p3358
I1
sVd2v2d84
p3359
I1
sVd4a1fv0
p3360
I2
sVdgvtqun
p3361
I1
sVd0ai88s
p3362
I1
sVdbnf7a6
p3363
I1
sVd558qak
p3364
I2
sVd075p4n
p3365
I1
sVdgi9zms
p3366
I2
sVdhobiwl
p3367
I1
sVdp5gww8
p3368
I1
sVd3rlm19
p3369
I1
sVdgf4q4s
p3370
I1
sVd1o12ox
p3371
I2
sVd89w8iy
p3372
I2
sVcytxz63
p3373
I1
sVd30642k
p3374
I1
sVd8qk4fy
p3375
I1
sVczc3kov
p3376
I1
sVd6vbn3l
p3377
I1
sVdkjs1mv
p3378
I1
sVdmticxa
p3379
I1
sVd8t9ekg
p3380
I1
sVdn1hj1g
p3381
I2
sVdcr7lmu
p3382
I2
sVdf6wafi
p3383
I2
sVdbd6wqd
p3384
I1
sVd98u9fz
p3385
I1
sVdie5r8z
p3386
I1
sVdokam4l
p3387
I1
sVd5dizcc
p3388
I1
sVczp4cjm
p3389
I1
sVd0x4aj9
p3390
I1
sVd6kjyms
p3391
I1
sVdn4hgo4
p3392
I1
sVd806mk5
p3393
I3
sVdmhi79d
p3394
I1
sVdad29j1
p3395
I1
sVdcwz737
p3396
I1
sVdciajll
p3397
I1
sVdd3m3mt
p3398
I3
sVcyn2ot9
p3399
I1
sVdo4cjpa
p3400
I1
sVdrw22h8
p3401
I3
sVd5toty0
p3402
I1
sVddlpw29
p3403
I1
sVd1cdlih
p3404
I1
sVdjsi6h6
p3405
I1
sVdmobyqu
p3406
I2
sVdaaxrki
p3407
I2
sVd48iur8
p3408
I1
sVdgtw4l6
p3409
I1
sVd6yk8kg
p3410
I1
sVdmngjx9
p3411
I2
sVd6e9rxj
p3412
I1
sVdgt9jhd
p3413
I1
sVd047izk
p3414
I1
sVd132bxl
p3415
I3
sVczq459f
p3416
I1
sVczqwnmo
p3417
I3
sVdjskqs8
p3418
I1
sVcyoqwjr
p3419
I1
sVdob3tl4
p3420
I1
sVdiw8ucl
p3421
I1
sVd2trt9p
p3422
I1
sVd07o16c
p3423
I3
sVdgne9u9
p3424
I1
sVd23w7vm
p3425
I1
sVdisgc0t
p3426
I1
sVdgia0x3
p3427
I1
sVdi6c7pi
p3428
I1
sVdcs6qf6
p3429
I1
sVdfpfybg
p3430
I1
sVdsid5fu
p3431
I2
sVdgdps7t
p3432
I1
sVdh71693
p3433
I2
sVdhv2kxo
p3434
I1
sVdnlclg9
p3435
I1
sVd88fg73
p3436
I1
sVdaf1chg
p3437
I1
sVd0n53vp
p3438
I1
sVd09hpc2
p3439
I1
sVdsfrxiz
p3440
I1
sVcyuoaq2
p3441
I1
sVdo0aysq
p3442
I1
sVdeq4ndk
p3443
I1
sVczbev9a
p3444
I1
sVd67r8tu
p3445
I2
sVcyp79mj
p3446
I3
sVd2gxq3z
p3447
I1
sVd44ytut
p3448
I1
sVd15lij2
p3449
I1
sVd7bl1s1
p3450
I1
sVcz54u63
p3451
I1
sVdgn6y1x
p3452
I1
sVdsv1rcn
p3453
I1
sVdpugvtn
p3454
I5
sVdflv007
p3455
I2
sVdint93c
p3456
I1
sVdtjc9wg
p3457
I1
sVd3qq64l
p3458
I1
sVdch8yhx
p3459
I2
sVddxkd78
p3460
I1
sVd46pas6
p3461
I1
sVdn18wow
p3462
I2
sVdj2u860
p3463
I1
sVd89talr
p3464
I1
sVdt0inlz
p3465
I1
sVdre7jno
p3466
I1
sVd1lqw68
p3467
I2
sVdkk85gz
p3468
I1
sVdqvq1vf
p3469
I2
sVd44mhkm
p3470
I1
sVdfx2673
p3471
I1
sVcz1jw3g
p3472
I1
sVd5w1aq5
p3473
I2
sVdb6b0ga
p3474
I3
sVdc5h28w
p3475
I2
sVdgdqns6
p3476
I1
sVdfxl9qo
p3477
I1
sVd7yykcu
p3478
I2
sVdikjyq3
p3479
I2
sVdotq89n
p3480
I1
sVdbwt2bw
p3481
I1
sVd9dakw9
p3482
I1
sVcz479u9
p3483
I1
sVdkbn282
p3484
I1
sVd8v7qnj
p3485
I6
sVd9mm9xx
p3486
I1
sVd0pks9j
p3487
I1
sVd1hex10
p3488
I1
sVdenrosq
p3489
I1
sVddoih7d
p3490
I1
sVdseoktq
p3491
I1
sVd9kdil5
p3492
I2
sVd5jlpdx
p3493
I1
sVd68maen
p3494
I1
sVddkf8dm
p3495
I1
sVd39o6ey
p3496
I1
sVd7qp84e
p3497
I1
sVdmpu1ef
p3498
I1
sVcz4hmjz
p3499
I1
sVdhjn3tj
p3500
I1
sVdccm55e
p3501
I1
sVdkbkted
p3502
I1
sVdq6eah7
p3503
I1
sVcyxhycj
p3504
I1
sVdgc9jvw
p3505
I1
sVd67ss8v
p3506
I1
sVdstc77u
p3507
I1
sVdspf6ih
p3508
I1
sVdncm9uq
p3509
I1
sVd7xiv4j
p3510
I1
sVczwkg0k
p3511
I2
sVd6y5j7l
p3512
I1
sVd8xxvqo
p3513
I1
sVd581s44
p3514
I1
sVdc7u7hy
p3515
I1
sVds7jtrm
p3516
I1
sVdcoayto
p3517
I1
sVd75pv5g
p3518
I1
sVdnvnk99
p3519
I2
sVd0ivcjz
p3520
I1
sVd14i8hu
p3521
I2
sVdfky9ff
p3522
I1
sVdsevvi5
p3523
I1
sVd7uhh2e
p3524
I1
sVd8vwi40
p3525
I2
sVdklng0a
p3526
I1
sVdkicyd2
p3527
I1
sVd03kwy4
p3528
I2
sVd0g380o
p3529
I1
sVdkieuas
p3530
I1
sVdej4awp
p3531
I2
sVcywnbuy
p3532
I1
sVd9zxcwt
p3533
I1
sVd3tnbk5
p3534
I2
sVcyrmlla
p3535
I1
sVddwe7rq
p3536
I2
sVdq5glyo
p3537
I1
sVd21o3mk
p3538
I1
sVdcrhx9a
p3539
I2
sVcytblf7
p3540
I2
sVd3wiiso
p3541
I4
sVd6hpmio
p3542
I1
sVdkiz3j5
p3543
I5
sVddhegdw
p3544
I1
sVd07cgwr
p3545
I1
sVcz1n3m9
p3546
I2
sVdgus8vz
p3547
I1
sVd0z92tq
p3548
I1
sVdpnv1he
p3549
I1
sVdhrceas
p3550
I1
sVd47ppj1
p3551
I2
sVd1s3k8u
p3552
I1
sVd88o52v
p3553
I1
sVdfnmzid
p3554
I1
sVdh8ru6k
p3555
I1
sVdb8eva5
p3556
I1
sVd9og769
p3557
I1
sVdkeaxjw
p3558
I1
sVdqqnn4a
p3559
I1
sVdii92fp
p3560
I1
sVd1y50nq
p3561
I1
sVdn5yv7n
p3562
I1
sVdepjzlj
p3563
I1
sVdncpfau
p3564
I1
sVd315r09
p3565
I1
sVd68ll0l
p3566
I3
sVd57n9v0
p3567
I1
sVcz7noyx
p3568
I5
sVdrgis0t
p3569
I2
sVd2shsbg
p3570
I2
sVd8ccbr4
p3571
I1
sVdspm81n
p3572
I1
sVdhczz1a
p3573
I1
sVdmfif1d
p3574
I1
sVdf0w8nk
p3575
I1
sVdj2eiuu
p3576
I1
sVdey8v0r
p3577
I1
sVdnh83hy
p3578
I2
sVdgr4xvk
p3579
I1
sVcz8vyz1
p3580
I1
sVd7hrq85
p3581
I2
sVdnr2fhr
p3582
I1
sVd3fiigy
p3583
I1
sVcyhxhvk
p3584
I1
sVd2a4qaa
p3585
I1
sVd9d5dt8
p3586
I1
sVdhex80j
p3587
I1
sVdbsxuz5
p3588
I1
sVd9kfaln
p3589
I1
sVd86zukk
p3590
I1
sVdgfh4py
p3591
I1
sVdh8w8l2
p3592
I2
sVdfsg5yp
p3593
I2
sVd95fawk
p3594
I3
sVdfpr993
p3595
I1
sVd9u1sxm
p3596
I1
sVdqqij8o
p3597
I1
sVdrs0i8e
p3598
I1
sVdcmng89
p3599
I1
sVdjli0l1
p3600
I1
sVdq5w7lp
p3601
I1
sVd7scl25
p3602
I1
sVd0ild3d
p3603
I1
sVd7vu1vl
p3604
I1
sVd9e8buu
p3605
I1
sVcziue8e
p3606
I1
sVd2fdo65
p3607
I1
sVdssvv2l
p3608
I2
sVdb5hjqu
p3609
I1
sVddxgj90
p3610
I2
sVcziy10l
p3611
I1
sVdsn1tp4
p3612
I1
sVdp1dabt
p3613
I1
sVdguzdn4
p3614
I2
sVd9tnn7e
p3615
I1
sVdgl5oh7
p3616
I3
sVdnrvbc8
p3617
I1
sVdsghmne
p3618
I2
sVd9vlw9v
p3619
I1
sVdryk33b
p3620
I3
sVd2ayqxg
p3621
I2
sVd86jfqp
p3622
I2
sVdn9tynr
p3623
I1
sVdg3myfl
p3624
I1
sVcz5eg5v
p3625
I1
sVd1o9wb2
p3626
I1
sVdbzcmm1
p3627
I1
sVdtfn52e
p3628
I1
sVd3qhm0w
p3629
I1
sVdgulpxx
p3630
I1
sVdbbzspv
p3631
I1
sVcz1o4fe
p3632
I1
sVdb9kklh
p3633
I1
sVdrgh31i
p3634
I1
sVddf22ax
p3635
I1
sVd2cyo94
p3636
I1
sVd60c099
p3637
I1
sVdbt9fs5
p3638
I1
sVdb2v44v
p3639
I2
sVdmzukbx
p3640
I1
sVdbega5o
p3641
I2
sVdjifamu
p3642
I1
sVdqa86k7
p3643
I3
sVcyvii53
p3644
I1
sVd040l6f
p3645
I1
sVdihl3zx
p3646
I1
sVd01onut
p3647
I1
sVd07xtwn
p3648
I2
sVd522zss
p3649
I1
sVd9v0sd1
p3650
I1
sVddwe10d
p3651
I6
sVd3maisu
p3652
I1
sVd2r3qo3
p3653
I2
sVd6vq5r5
p3654
I1
sVdngu0c4
p3655
I1
sVd7kvn2r
p3656
I1
sVczhrfpm
p3657
I2
sVd0xm112
p3658
I1
sVd9cq78l
p3659
I1
sVdd0ddwq
p3660
I2
sVdgorf0l
p3661
I1
sVd0t60rm
p3662
I1
sVdpzzr6a
p3663
I1
sVd0envz5
p3664
I5
sVdsyddh2
p3665
I2
sVdk957hm
p3666
I1
sVdnlo3q2
p3667
I1
sVd15ldl3
p3668
I1
sVd1cwsyc
p3669
I2
sVdmf3bul
p3670
I2
sVddutqge
p3671
I1
sVdidveo7
p3672
I1
sVd56dyzk
p3673
I1
sVdeev8vb
p3674
I1
sVczkv1zx
p3675
I1
sVd4v50qp
p3676
I1
sVdstc2b4
p3677
I3
sVddbyx81
p3678
I1
sVd1i2ra9
p3679
I1
sVczay8g2
p3680
I1
sVd3kb15j
p3681
I1
sVdja4sie
p3682
I1
sVd67ng4k
p3683
I2
sVd0amwmd
p3684
I1
sVd9ugl39
p3685
I2
sVd6qr7hg
p3686
I1
sVdfow5r8
p3687
I2
sVdd4mbo7
p3688
I1
sVdmg3qjm
p3689
I1
sVd7wy4v8
p3690
I1
sVdcsu2un
p3691
I1
sVd62pak1
p3692
I1
sVdhhku9r
p3693
I1
sVd1jnwlf
p3694
I1
sVd6aphrp
p3695
I1
sVcyvc5lw
p3696
I1
sVdgw9tvi
p3697
I1
sVd0g9yw5
p3698
I1
sVdhfc822
p3699
I1
sVd4fbdv6
p3700
I1
sVd6rr80o
p3701
I3
sVd39yklb
p3702
I1
sVd5685gn
p3703
I1
sVd6mcywf
p3704
I2
sVd9ccrrk
p3705
I1
sVdctd5tk
p3706
I2
sVdk08ad3
p3707
I1
sVd32jt29
p3708
I1
sVda0uxrw
p3709
I1
sVdaet13f
p3710
I1
sVd98mkyb
p3711
I1
sVdekriw4
p3712
I1
sVdfbiswh
p3713
I1
sVd82b9nu
p3714
I1
sVd2wpaej
p3715
I1
sVdrt7tmr
p3716
I1
sVdd327i7
p3717
I1
sVdsz9jyc
p3718
I2
sVd84i50b
p3719
I1
sVdnf7f44
p3720
I1
sVdf4j1mq
p3721
I2
sVdjlxphw
p3722
I3
sVd09p0ah
p3723
I2
sVdp53jfb
p3724
I1
sVd0pvrvx
p3725
I1
sVdrp135t
p3726
I1
sVdbxz3x0
p3727
I1
sVdegb5jb
p3728
I1
sVd9kvpus
p3729
I2
sVdt8ersl
p3730
I3
sVdj72o5s
p3731
I2
sVd15og02
p3732
I1
sVd19pm8t
p3733
I1
sVcyiu6ml
p3734
I1
sVdkqwioj
p3735
I3
sVdkc6wzm
p3736
I1
sVdpeze1y
p3737
I1
sVd1wa60a
p3738
I1
sVd691m8p
p3739
I2
sVdbpvnpm
p3740
I2
sVd1rgqjy
p3741
I1
sVd21s424
p3742
I1
sVdqpr2x5
p3743
I1
sVd5r1c9j
p3744
I1
sVdi2bb5y
p3745
I2
sVdibaeau
p3746
I1
sVdgq3z6j
p3747
I1
sVczm6izy
p3748
I1
sVd4wdazm
p3749
I1
sVd3w9014
p3750
I2
sVditczz1
p3751
I2
sVdnxqssf
p3752
I1
sVd5iywhw
p3753
I1
sVd35qwo9
p3754
I1
sVcz6k337
p3755
I1
sVczpm87m
p3756
I2
sVd1oorzb
p3757
I1
sVd33wvck
p3758
I1
sVdr9px9l
p3759
I1
sVd64yh9l
p3760
I1
sVdcu1inm
p3761
I1
sVdnxjq4q
p3762
I1
sVd7yltgm
p3763
I1
sVczw9hcj
p3764
I1
sVd257b2h
p3765
I1
sVdh501fd
p3766
I1
sVd79fosq
p3767
I2
sVd2b6l5w
p3768
I2
sVd4i9jqf
p3769
I1
sVdcjck0q
p3770
I1
sVd83uvsc
p3771
I1
sVd1lxpg4
p3772
I2
sVdsphl15
p3773
I1
sVdfnf1j9
p3774
I1
sVdoyljoc
p3775
I4
sVda23dvs
p3776
I1
sVdozf63f
p3777
I1
sVd6g5w4u
p3778
I1
sVdae1dg4
p3779
I1
sVdpwd296
p3780
I1
sVcz7jjgk
p3781
I1
sVdjlubok
p3782
I1
sVcz892ey
p3783
I1
sVd474g3c
p3784
I1
sVda44cgr
p3785
I1
sVd9m8yqh
p3786
I2
sVd9mb03x
p3787
I1
sVd3f9em6
p3788
I3
sVd2l0wrt
p3789
I1
sVd9urwd5
p3790
I1
sVdq0cxqd
p3791
I1
sVd1lxiqd
p3792
I1
sVddxk1id
p3793
I1
sVdbdqer5
p3794
I1
sVd0gm9v5
p3795
I1
sVd776cti
p3796
I1
sVdcebdb4
p3797
I1
sVdqd6pb0
p3798
I2
sVd3vvpoc
p3799
I1
sVdmsrhzb
p3800
I1
sVd2p39ri
p3801
I1
sVd05z0t8
p3802
I1
sVd417hpm
p3803
I4
sVddjvmei
p3804
I1
sVd5jd6a5
p3805
I1
sVdmoss6w
p3806
I2
sVdp6w3p8
p3807
I1
sVd9vjzm4
p3808
I1
sVdbb1smk
p3809
I1
sVczreqji
p3810
I1
sVd08fy36
p3811
I1
sVdjvp23z
p3812
I2
sVdanyo52
p3813
I1
sVdas6nvp
p3814
I1
sVdb3swtp
p3815
I1
sVdivf7ay
p3816
I1
sVdtijg8s
p3817
I1
sVdno943p
p3818
I2
sVdiq9k51
p3819
I1
sVd41pwfg
p3820
I1
sVdtgdgqv
p3821
I1
sVd35qw75
p3822
I1
sVdis7iah
p3823
I1
sVd0zmf11
p3824
I1
sVd0ovf6e
p3825
I1
sVdnms78g
p3826
I1
sVd2ri0xf
p3827
I2
sVdq7ahpa
p3828
I2
sVdonm14m
p3829
I1
sVde26uqn
p3830
I3
sVdqbf81a
p3831
I2
sVd63xldr
p3832
I1
sVd3ao32z
p3833
I1
sVdcpk1kb
p3834
I1
sVd2zklru
p3835
I1
sVdt6rjo8
p3836
I1
sVdjgsl5u
p3837
I1
sVdg4uw66
p3838
I1
sVdsyxgr4
p3839
I1
sVdjdknfw
p3840
I3
sVdms9ujo
p3841
I1
sVdioi2e2
p3842
I1
sVda6kc1f
p3843
I1
sVd7vl1hf
p3844
I1
sVd68qt11
p3845
I2
sVddohsf2
p3846
I1
sVd291c2b
p3847
I1
sVdf4kf9n
p3848
I1
sVdjpwoqh
p3849
I1
sVd6tnj1c
p3850
I1
sVde7jd50
p3851
I1
sVdp8nlt6
p3852
I3
sVddreq0z
p3853
I1
sVdbniitz
p3854
I1
sVd5wxaim
p3855
I1
sVdmwhidl
p3856
I1
sVcyxall0
p3857
I1
sVdiwrtu4
p3858
I2
sVdqe5ec6
p3859
I1
sVd4xys4d
p3860
I1
sVdqbxey5
p3861
I1
sVd10q35u
p3862
I1
sVdrhsenf
p3863
I1
sVdq725b0
p3864
I1
sVdpqu9m6
p3865
I1
sVdcbph8p
p3866
I2
sVd8yesio
p3867
I1
sVdchuchg
p3868
I1
sVd8gvt4s
p3869
I1
sVdgw87bj
p3870
I1
sVczwg9em
p3871
I2
sVdaql7ej
p3872
I1
sVdgtg621
p3873
I1
sVdfjz05o
p3874
I1
sVdsx6r29
p3875
I1
sVdp6fnrf
p3876
I2
sVdmjj4eo
p3877
I2
sVdcscboe
p3878
I1
sVdmqrrfu
p3879
I1
sVdfosymr
p3880
I1
sVd338me4
p3881
I1
sVd0t72pn
p3882
I2
sVdehmr6k
p3883
I1
sVd7xhewt
p3884
I1
sVd48cv8y
p3885
I1
sVd8vjk2k
p3886
I1
sVczlz515
p3887
I1
sVd6flb6p
p3888
I1
sVd0951my
p3889
I1
sVcyjvw3u
p3890
I2
sVdfie8th
p3891
I1
sVdg99ubg
p3892
I1
sVde9tkhk
p3893
I1
sVd39yic6
p3894
I1
sVdqojtt5
p3895
I3
sVdn63k03
p3896
I1
sVdbtc3pu
p3897
I2
sVde1vzhv
p3898
I1
sVd76u102
p3899
I1
sVde9b2wz
p3900
I1
sVd92s09x
p3901
I1
sVdfdl3qa
p3902
I1
sVdnurnbg
p3903
I1
sVds4tugd
p3904
I1
sVdkhldfd
p3905
I1
sVd4h8ria
p3906
I3
sVd0sosnq
p3907
I1
sVczzvb2t
p3908
I1
sVcys8ypm
p3909
I1
sVdkifn35
p3910
I1
sVdj1nkkq
p3911
I3
sVdk3jmda
p3912
I1
sVddlszht
p3913
I1
sVczu0v8n
p3914
I1
sVd2v1yvl
p3915
I1
sVd1rvpph
p3916
I1
sVd3q87do
p3917
I1
sVd54n40r
p3918
I3
sVdh95k8c
p3919
I1
sVdadbqdi
p3920
I1
sVd1nb01i
p3921
I1
sVdd3wves
p3922
I1
sVd2w6u9o
p3923
I1
sVd3nt56l
p3924
I1
sVd2o4apy
p3925
I1
sVd22inhk
p3926
I1
sVdtj1o1p
p3927
I7
sVdbmyhyk
p3928
I1
sVd5lb1ls
p3929
I4
sVdbiy9fu
p3930
I1
sVd1kon4n
p3931
I1
sVdedekal
p3932
I1
sVdrb6gqa
p3933
I1
sVdj8h8m9
p3934
I1
sVdazkgbo
p3935
I1
sVd2ce8rp
p3936
I2
sVdn4o8x8
p3937
I3
sVczcl0du
p3938
I1
sVcyhzimt
p3939
I2
sVdbgu17f
p3940
I1
sVdrk2ftz
p3941
I2
sVdjywtk3
p3942
I1
sVdj0b6c0
p3943
I1
sVdpfhapr
p3944
I1
sVdpq3tgs
p3945
I1
sVddc1hf8
p3946
I1
sVd8ivp42
p3947
I1
sVd0860hb
p3948
I1
sVdechn9s
p3949
I1
sVdr0df26
p3950
I1
sVd6ui8bb
p3951
I1
sVdtfm68o
p3952
I2
sVdjqghu5
p3953
I1
sVd3t7m12
p3954
I1
sVdf3cjty
p3955
I1
sVcz624wu
p3956
I1
sVdqcks9i
p3957
I1
sVd2svlf6
p3958
I1
sVd3lgfi7
p3959
I4
sVczw1912
p3960
I1
sVdhozvep
p3961
I1
sVczmr8gi
p3962
I1
sVcziyh4y
p3963
I1
sVd0f8frd
p3964
I2
sVdeig34x
p3965
I1
sVda0keho
p3966
I1
sVd7bfj8c
p3967
I3
sVdd83ewz
p3968
I1
sVd2ozyji
p3969
I1
sVdhh35v7
p3970
I1
sVdp6yu6v
p3971
I1
sVddgr1oj
p3972
I3
sVds0077e
p3973
I1
sVdt3tixp
p3974
I1
sVdafjn53
p3975
I1
sVd97wysy
p3976
I1
sVd78xp6e
p3977
I1
sVczx7t80
p3978
I3
sVdkwgsbi
p3979
I2
sVd6saacf
p3980
I1
sVd8szp11
p3981
I1
sVdj21erj
p3982
I1
sVdhhpdsj
p3983
I1
sVd4xeaou
p3984
I1
sVdix7epq
p3985
I1
sVdbgmk9d
p3986
I1
sVd3ahsyq
p3987
I1
sVd0ioo97
p3988
I3
sVds2fu5i
p3989
I1
sVcyoaona
p3990
I1
sVcyvyp2x
p3991
I1
sVd7pcymr
p3992
I1
sVdaj6ere
p3993
I1
sVd6c7yqi
p3994
I2
sVd24r840
p3995
I1
sVcyzrr62
p3996
I1
sVdbao341
p3997
I1
sVdrybzjf
p3998
I2
sVdhi9ofq
p3999
I2
sVdnat6ir
p4000
I1
sVdjugmlh
p4001
I1
sVdn9zdgz
p4002
I1
sVdb5cdy1
p4003
I1
sVd1wn3yt
p4004
I2
sVdjefag0
p4005
I1
sVd62od4a
p4006
I1
sVdrweohf
p4007
I2
sVd9bauhy
p4008
I1
sVd0w1k4o
p4009
I1
sVd4jivxu
p4010
I1
sVdiuiw2m
p4011
I1
sVda3lan7
p4012
I1
sVcys3lki
p4013
I3
sVd5ihk7n
p4014
I1
sVdcx2o45
p4015
I1
sVdizweol
p4016
I1
sVdmfklmi
p4017
I2
sVdsxlkss
p4018
I3
sVdb3u0xe
p4019
I1
sVdn6e1j1
p4020
I1
sVdfofqr8
p4021
I1
sVd0xr54t
p4022
I1
sVdczs3wl
p4023
I2
sVdp83ux7
p4024
I1
sVds95qhx
p4025
I1
sVdgqir0g
p4026
I1
sVd8stini
p4027
I1
sVdmf7lee
p4028
I2
sVcyj7ney
p4029
I6
sVd1g7ahy
p4030
I1
sVdotffjz
p4031
I2
sVd8xvdit
p4032
I1
sVd9pdhbj
p4033
I1
sVd0wkmu9
p4034
I3
sVd580ccc
p4035
I2
sVdgita6j
p4036
I5
sVdacgl5y
p4037
I4
sVczskzfu
p4038
I1
sVdovawc2
p4039
I2
sVdc42qz7
p4040
I1
sVdnjpceb
p4041
I1
sVd0itz43
p4042
I1
sVdtdfp0d
p4043
I1
sVdq6nsj3
p4044
I1
sVdbevy4e
p4045
I1
sVd1wqzds
p4046
I1
sVd01qd6p
p4047
I1
sVcz29au5
p4048
I1
sVcyk0180
p4049
I6
sVd9uaqyq
p4050
I1
sVd9pgjhy
p4051
I1
sVdsd1fqz
p4052
I1
sVd97po7c
p4053
I1
sVd07mwxo
p4054
I1
sVdckefd7
p4055
I1
sVdgmnbzx
p4056
I1
sVdipjux9
p4057
I1
sVdtfn4kf
p4058
I1
sVdbf1jrl
p4059
I1
sVda90t7h
p4060
I2
sVd07t6ov
p4061
I1
sVdtgj3wr
p4062
I1
sVd3xc4il
p4063
I1
sVdi9kgqx
p4064
I1
sVdqtsxtv
p4065
I2
sVdkn45op
p4066
I1
sVdt6018r
p4067
I1
sVddnqhqy
p4068
I2
sVdsexlej
p4069
I1
sVdj1piv0
p4070
I1
sVd2irj8e
p4071
I1
sVdjylh4g
p4072
I2
sVdmmm244
p4073
I1
sVdpdr8ms
p4074
I2
sVd7tcmdi
p4075
I1
sVd8tam07
p4076
I1
sVczvtwzt
p4077
I1
sVd9x00y1
p4078
I1
sVdifw6yv
p4079
I1
sVdnb3cic
p4080
I1
sVdfp2kbf
p4081
I1
sVdt12jju
p4082
I1
sVdh9q1f0
p4083
I2
sVd9r247s
p4084
I2
sVdnvacbh
p4085
I2
sVd42lbtr
p4086
I1
sVd84uuxr
p4087
I1
sVdaj7i1h
p4088
I1
sVdnyarb8
p4089
I1
sVd593lsq
p4090
I1
sVdtd5yjo
p4091
I1
sVcz6rji6
p4092
I1
sVdirofk8
p4093
I1
sVdsf6va9
p4094
I5
sVd1yy368
p4095
I1
sVdbs5i33
p4096
I1
sVdci9w9o
p4097
I1
sVd02baev
p4098
I4
sVd2vaalc
p4099
I1
sVcyvjcib
p4100
I6
sVd2sydja
p4101
I1
sVdsqm8mn
p4102
I1
sVd5oywqq
p4103
I1
sVd1sbmw1
p4104
I2
sVczxek5i
p4105
I1
sVd3bt9k5
p4106
I1
sVd1al326
p4107
I1
sVd2zqj7o
p4108
I2
sVdg9pm61
p4109
I1
sVdt4htf7
p4110
I1
sVd1frnee
p4111
I4
sVde7hjem
p4112
I1
sVd9p4g14
p4113
I1
sVd1hzaq2
p4114
I3
sVd1lsltm
p4115
I1
sVdha04uc
p4116
I1
sVdbdoscu
p4117
I2
sVd85td3c
p4118
I1
sVdfoev86
p4119
I2
sVd49j7s0
p4120
I1
sVddsmfrx
p4121
I2
sVdilia09
p4122
I1
sVdpb1n3o
p4123
I1
sVdoj3y6u
p4124
I1
sVd7ujs0r
p4125
I2
sVd3zd51c
p4126
I2
sVd37tqkm
p4127
I2
sVdkkof2z
p4128
I2
sVd22tyar
p4129
I2
sVd6bsvv1
p4130
I1
sVd7qffba
p4131
I1
sVd4y1034
p4132
I1
sVdexo39b
p4133
I1
sVd9exq0q
p4134
I3
sVdgzrezr
p4135
I1
sVd0fk89s
p4136
I1
sVdqpyv63
p4137
I2
sVcyqfbg0
p4138
I1
sVd2zknnw
p4139
I1
sVczxmlw5
p4140
I4
sVd17o9bb
p4141
I1
sVd0gsqtl
p4142
I1
sVczwjzz9
p4143
I1
sVd3etweh
p4144
I1
sVdj53dqp
p4145
I1
sVd2h6vee
p4146
I1
sVdg76k4l
p4147
I1
sVd3970mq
p4148
I2
sVdftgh33
p4149
I1
sVd6gn64j
p4150
I1
sVdmt1rc9
p4151
I1
sVdmv5gfs
p4152
I1
sVd3vegfn
p4153
I7
sVd97ie08
p4154
I1
sVd9wj3bn
p4155
I1
sVd1odouk
p4156
I1
sVcymj2x0
p4157
I1
sVd2rhmwt
p4158
I3
sVdb3kvuu
p4159
I1
sVd248hhl
p4160
I1
sVdqj5den
p4161
I1
sVd5g99wf
p4162
I1
sVd0omzg9
p4163
I2
sVd7bi4o2
p4164
I1
sVdggnyq8
p4165
I1
sVdf5beyo
p4166
I1
sVde1oy85
p4167
I1
sVdnerxtb
p4168
I1
sVcyk24of
p4169
I1
sVd5od5ou
p4170
I1
sVd2my5sx
p4171
I1
sVd09ouri
p4172
I3
sVczwt4bf
p4173
I1
sVd2ua5vn
p4174
I3
sVd0rns1j
p4175
I2
sVdot4s5u
p4176
I1
sVdnjeqlo
p4177
I1
sVdoeesy5
p4178
I1
sVd3ah943
p4179
I2
sVd0ugvxq
p4180
I2
sVdcmoifd
p4181
I1
sVditc7tw
p4182
I1
sVd0j86qf
p4183
I1
sVczgkx7a
p4184
I2
sVd7j1t49
p4185
I1
sVde37a11
p4186
I1
sVdcf01x3
p4187
I1
sVd1xnadb
p4188
I1
sVd5s4g88
p4189
I1
sVdbch3ar
p4190
I1
sVd9ujjff
p4191
I1
sVdg7xvc7
p4192
I1
sVdan8y8m
p4193
I2
sVdbng5q3
p4194
I1
sVdsknjns
p4195
I1
sVdjbdx1g
p4196
I1
sVdam42t8
p4197
I1
sVdthmfkc
p4198
I2
sVdpk7a3r
p4199
I1
sVdmicqeg
p4200
I1
sVd941bpr
p4201
I1
sVd2sp5t2
p4202
I1
sVdfpa22r
p4203
I1
sVd3zxyq1
p4204
I1
sVdazljbd
p4205
I1
sVd6daprf
p4206
I3
sVd01fge5
p4207
I1
sVd36yle9
p4208
I2
sVdtgjy1q
p4209
I1
sVdpdj9c8
p4210
I2
sVdcpu0gq
p4211
I1
sVd188ypb
p4212
I1
sVdf5yypi
p4213
I1
sVdmyvl1x
p4214
I1
sVd4f1bxm
p4215
I1
sVda6j9fe
p4216
I1
sVd5nn9pf
p4217
I1
sVd89t78x
p4218
I1
sVcz5upjm
p4219
I1
sVdgpmjhg
p4220
I1
sVdqjkgoo
p4221
I2
sVdsm3a5w
p4222
I1
sVdr6cger
p4223
I2
sVdptr7ii
p4224
I1
sVde7xaoe
p4225
I1
sVd3g1m7g
p4226
I2
sVd7c4pya
p4227
I5
sVcz8mhav
p4228
I1
sVdpiddrr
p4229
I1
sVdkdlmde
p4230
I1
sVdp29oeu
p4231
I1
sVdbdhkwy
p4232
I2
sVddwe85w
p4233
I1
sVcyijzyk
p4234
I2
sVdqcl88y
p4235
I2
sVd5oyypc
p4236
I1
sVd3rz2ly
p4237
I1
sVdf0e6aq
p4238
I1
sVdggvy3l
p4239
I2
sVddp8ra3
p4240
I1
sVd6q8lxb
p4241
I1
sVd6gn58m
p4242
I1
sVdehbtk6
p4243
I1
sVdoab9dx
p4244
I2
sVdpnam20
p4245
I1
sVdqb7zww
p4246
I1
sVdnclz6n
p4247
I1
sVd838z8d
p4248
I3
sVdb80kqn
p4249
I1
sVdadyzwh
p4250
I1
sVd8pndl8
p4251
I1
sVdnnvu20
p4252
I1
sVdmssmyd
p4253
I4
sVddcovvn
p4254
I1
sVd3e0txa
p4255
I2
sVdot211e
p4256
I1
sVd7db17m
p4257
I1
sVd029zyx
p4258
I1
sVdpl9z34
p4259
I2
sVd517k0z
p4260
I1
sVdt5i443
p4261
I1
sVcyq9z7u
p4262
I1
sVdg79whq
p4263
I1
sVd0t1wbi
p4264
I2
sVd9l91ye
p4265
I1
sVczt13kr
p4266
I1
sVd3px59z
p4267
I1
sVdseugap
p4268
I1
sVdqabei0
p4269
I1
sVdcin2xa
p4270
I1
sVcz5gppd
p4271
I1
sVdayttsf
p4272
I1
sVd1fmc73
p4273
I3
sVdf8ofnw
p4274
I1
sVd12zkql
p4275
I1
sVd5amnce
p4276
I1
sVd6kfhcx
p4277
I1
sVdbvnhw0
p4278
I2
sVdaia97f
p4279
I1
sVd0s0p9h
p4280
I1
sVdbt9ghg
p4281
I1
sVdhjq6a9
p4282
I1
sVd815nyx
p4283
I1
sVddwp6n0
p4284
I1
sVdru8ais
p4285
I2
sVd6100i5
p4286
I1
sVd24cz0b
p4287
I2
sVd0w68vq
p4288
I1
sVdclfg63
p4289
I1
sVdpfctpk
p4290
I3
sVdfvn00u
p4291
I1
sVdk96gly
p4292
I3
sVdf62smp
p4293
I3
sVds5xmc6
p4294
I1
sVd1wg8yb
p4295
I1
sVd0kz5f2
p4296
I1
sVd8o44q3
p4297
I2
sVd0bnaab
p4298
I1
sVdadgtdl
p4299
I1
sVd6m2w4n
p4300
I1
sVdc0g9nx
p4301
I1
sVdmzt1sa
p4302
I2
sVd2wy04u
p4303
I1
sVd37an3t
p4304
I1
sVd0hy9mt
p4305
I1
sVddfbenc
p4306
I1
sVd9d720r
p4307
I2
sVd1ec08s
p4308
I1
sVdskewql
p4309
I1
sVd0r3ali
p4310
I2
sVd1rihl0
p4311
I1
sVcypxfva
p4312
I1
sVd3cdxpv
p4313
I1
sVczryfzm
p4314
I3
sVdkkiaml
p4315
I2
sVdo7j5g3
p4316
I2
sVd5guzpk
p4317
I1
sVd91jhuq
p4318
I2
sVdnkf82t
p4319
I1
sVd6vxgog
p4320
I1
sVdpqwm2p
p4321
I1
sVdcvebzc
p4322
I1
sVd27zl16
p4323
I15
sVdgct17j
p4324
I2
sVds9jmk9
p4325
I1
sVdj4d9t6
p4326
I1
sVd958l55
p4327
I1
sVdbf1qdh
p4328
I1
sVdizmdhv
p4329
I1
sVdpeg2oj
p4330
I1
sVddmz9dz
p4331
I1
sVdmzwlyd
p4332
I1
sVdcghxwo
p4333
I1
sVdkqe2oo
p4334
I1
sVd3x4xol
p4335
I2
sVdjajmpe
p4336
I1
sVdd07lvw
p4337
I1
sVd1b5zg0
p4338
I1
sVdr0oxdr
p4339
I2
sVdinanmy
p4340
I1
sVdhcdc54
p4341
I1
sVdqbj7l2
p4342
I1
sVdb410qk
p4343
I1
sVdienluh
p4344
I2
sVdbtsag1
p4345
I1
sVd1gt927
p4346
I1
sVd0komh7
p4347
I1
sVd8x8q19
p4348
I3
sVd0g3ig1
p4349
I1
sVcyi4b6c
p4350
I1
sVdnva6r8
p4351
I1
sVd8vsiea
p4352
I1
sVd8q59gw
p4353
I1
sVd7dgo8s
p4354
I1
sVdfyacnj
p4355
I1
sVd5nc4qr
p4356
I1
sVdfrnq2f
p4357
I1
sVdh57gbr
p4358
I1
sVdbi41uz
p4359
I1
sVdna5qb8
p4360
I1
sVdrumgwv
p4361
I1
sVdhi5g77
p4362
I1
sVd3ynkah
p4363
I1
sVdnldz96
p4364
I1
sVd7sxf6a
p4365
I1
sVd8gp35j
p4366
I1
sVd0ip1jr
p4367
I1
sVd6i73ri
p4368
I2
sVcz6dsd9
p4369
I1
sVcztjfvt
p4370
I2
sVdgymv8a
p4371
I3
sVd6sn38v
p4372
I1
sVdcz54yq
p4373
I2
sVdms1ofv
p4374
I2
sVdjyix72
p4375
I1
sVd67l4vi
p4376
I1
sVd0zpgy3
p4377
I2
sVdf7oo66
p4378
I1
sVd126orx
p4379
I1
sVd68sjy6
p4380
I3
sVdpjg6dz
p4381
I1
sVdpf7t03
p4382
I1
sVdelch9m
p4383
I1
sVdkdl4ic
p4384
I1
sVdfhc619
p4385
I2
sVdhxx2jb
p4386
I1
sVd0fjmnh
p4387
I1
sVdr783xp
p4388
I2
sVda1gh5e
p4389
I1
sVczqskm9
p4390
I1
sVdi63phk
p4391
I1
sVd10hwp9
p4392
I1
sVddfm0gz
p4393
I2
sVd2ph0w2
p4394
I2
sVdeape26
p4395
I4
sVd4dpcxj
p4396
I1
sVdqpkkt2
p4397
I1
sVdehii9o
p4398
I1
sVdt6g6uy
p4399
I1
sVdcey6gr
p4400
I3
sVdpf20sp
p4401
I1
sVdq3yxnp
p4402
I2
sVdqe3p7q
p4403
I1
sVdbxz2c5
p4404
I2
sVdqg5272
p4405
I1
sVczzvvmu
p4406
I1
sVddczfoq
p4407
I1
sVdr66ozn
p4408
I1
sVdfkyamg
p4409
I1
sVd9rl13n
p4410
I2
sVdt8nuev
p4411
I3
sVdey8xbd
p4412
I1
sVdanhnb8
p4413
I2
sVdgegkzu
p4414
I1
sVd5ybft6
p4415
I1
sVd12z9x9
p4416
I1
sVd253bq1
p4417
I1
sVddxouwr
p4418
I1
sVdrp8hz6
p4419
I1
sVd26exs9
p4420
I1
sVdr7z11u
p4421
I1
sVcz1v9fg
p4422
I1
sVdbmmg3y
p4423
I1
sVd3dvmqq
p4424
I2
sVdn4v4t1
p4425
I1
sVd8bsq5r
p4426
I1
sVdn0rald
p4427
I2
sVdslhvmo
p4428
I1
sVdt9nkwm
p4429
I1
sVd33i6gn
p4430
I1
sVd5uyedn
p4431
I1
sVd6uco39
p4432
I1
sVd9bpgyv
p4433
I2
sVdkdb7fz
p4434
I2
sVd86roqr
p4435
I1
sVdfat9n9
p4436
I1
sVdejfhlp
p4437
I1
sVdpmgate
p4438
I2
sVdruuye1
p4439
I6
sVdpzufed
p4440
I3
sVd3fjqjd
p4441
I1
sVcyrszjv
p4442
I1
sVdc9wrib
p4443
I1
sVd3thl1i
p4444
I1
sVdizg6g9
p4445
I1
sVdarkyok
p4446
I1
sVd44y8uh
p4447
I1
sVdcx0nrl
p4448
I1
sVderlki0
p4449
I1
sVdmjhzy7
p4450
I1
sVdt40uoo
p4451
I1
sVdk4wthq
p4452
I1
sVdgreo2d
p4453
I1
sVd2qfz7b
p4454
I1
sVd5fxdzy
p4455
I1
sVczgrecu
p4456
I1
sVde36ahs
p4457
I1
sVczrgtrt
p4458
I1
sVd3bvaqo
p4459
I1
sVd9ajj8p
p4460
I1
sVddxor78
p4461
I1
sVdgvzg28
p4462
I1
sVd15hw28
p4463
I1
sVddwijtg
p4464
I1
sVdetqskh
p4465
I1
sVdqktw6h
p4466
I1
sVd1q2zc9
p4467
I1
sVdhi6s9o
p4468
I1
sVd8tdm95
p4469
I1
sVdkm4lws
p4470
I1
sVdb8hrxj
p4471
I1
sVdawv7m8
p4472
I1
sVdg05kmk
p4473
I1
sVddfbxg7
p4474
I1
sVczb5on4
p4475
I1
sVd06t56s
p4476
I1
sVd8ejd1z
p4477
I1
sVd5e56rj
p4478
I1
sVdcuswoh
p4479
I1
sVcyuobyg
p4480
I1
sVd623ujr
p4481
I2
sVdjqjq3f
p4482
I3
sVd6tntrx
p4483
I3
sVcz28r6p
p4484
I4
sVd3x49h5
p4485
I3
sVdgeln8y
p4486
I1
sVdp9u1ft
p4487
I1
sVdmvnlhw
p4488
I1
sVd48hntb
p4489
I1
sVd4he6xl
p4490
I2
sVd9u6zni
p4491
I1
sVdoec5bv
p4492
I1
sVd0nqigo
p4493
I1
sVd1wr3ee
p4494
I1
sVd0h2qn0
p4495
I1
sVdd4f7zu
p4496
I1
sVd09n42p
p4497
I4
sVd52cg43
p4498
I3
sVd6cx2sg
p4499
I1
sVd02j245
p4500
I1
sVd0usdc0
p4501
I1
sVd5trnqn
p4502
I3
sVdcek72h
p4503
I1
sVd0092kk
p4504
I4
sVd12kxfe
p4505
I1
sVdpmqwne
p4506
I1
sVdj3v1rw
p4507
I3
sVdir926n
p4508
I1
sVdq8r8w9
p4509
I1
sVdi7cgj7
p4510
I1
sVdkgx4mj
p4511
I1
sVdpte9uk
p4512
I1
sVdrka9j5
p4513
I1
sVdpv9gl9
p4514
I2
sVdcy16ir
p4515
I1
sVd9xisz4
p4516
I1
sVdggxmiu
p4517
I1
sVdkxtoq2
p4518
I1
sVdnbjm1i
p4519
I1
sVdip02lr
p4520
I1
sVdng1vzg
p4521
I1
sVdh6fn7w
p4522
I2
sVdip2o0j
p4523
I1
sVdalll5k
p4524
I1
sVdssqs28
p4525
I1
sVdhwdtxh
p4526
I1
sVdsanhyp
p4527
I1
sVddtozop
p4528
I2
sVd0uwexp
p4529
I1
sVdi9m37p
p4530
I1
sVd3arlxr
p4531
I1
sVd390h7p
p4532
I1
sVd3esgc2
p4533
I1
sVdjxyght
p4534
I1
sVdbo08kh
p4535
I2
sVd3gushi
p4536
I1
sVd07d2l9
p4537
I1
sVcz1cjxt
p4538
I1
sVcyocd2u
p4539
I1
sVczp0w38
p4540
I1
sVd9ngeox
p4541
I2
sVdimq3mr
p4542
I1
sVd2ezzw6
p4543
I2
sVdfbbni1
p4544
I2
sVd4rhxhn
p4545
I1
sVdtbhji9
p4546
I1
sVdejceet
p4547
I1
sVd2kotox
p4548
I1
sVcz02iwq
p4549
I1
sVdexp4tj
p4550
I1
sVdgkhr51
p4551
I1
sVd1caokl
p4552
I1
sVdfsvb44
p4553
I1
sVcz9gop5
p4554
I1
sVd1hibva
p4555
I1
sVdms4m88
p4556
I2
sVd2ose0f
p4557
I1
sVd4g1pdc
p4558
I1
sVdrzphxq
p4559
I1
sVd9qwbqi
p4560
I1
sVdi9e5so
p4561
I1
sVdf90qmj
p4562
I1
sVd8sed6l
p4563
I1
sVd3v514m
p4564
I1
sVdgmusl7
p4565
I1
sVd6hfbod
p4566
I1
sVdscpxrz
p4567
I2
sVdhcifx5
p4568
I1
sVdev7kb3
p4569
I1
sVd1d2n69
p4570
I1
sVdivxvyc
p4571
I1
sVdjrt2xg
p4572
I1
sVdhzf5yf
p4573
I1
sVde2clfy
p4574
I2
sVdggpmz7
p4575
I1
sVdae4dft
p4576
I1
sVdejdhb7
p4577
I1
sVd903kh6
p4578
I1
sVdgd210b
p4579
I1
sVdel5zx1
p4580
I1
sVd6zlxjv
p4581
I1
sVds1w63s
p4582
I1
sVdkvev9g
p4583
I1
sVdaby67w
p4584
I1
sVd3vns7r
p4585
I1
sVdc7jegg
p4586
I1
sVdka9as5
p4587
I1
sVd8x71x4
p4588
I1
sVd7mk3i0
p4589
I3
sVd8u9xvb
p4590
I2
sVdqrty5k
p4591
I1
sVd3rdkfk
p4592
I2
sVdb7xezq
p4593
I1
sVd00frh2
p4594
I1
sVcza66dt
p4595
I1
sVd5ixxxi
p4596
I2
sVdp6vzpx
p4597
I1
sVdnm4qzm
p4598
I2
sVd6xdeey
p4599
I1
sVd1nnzpu
p4600
I2
sVdkw5m7f
p4601
I2
sVdsbhc26
p4602
I2
sVdqdb731
p4603
I3
sVdhtrolc
p4604
I1
sVddcp37x
p4605
I1
sVdibc9ek
p4606
I1
sVd2d8066
p4607
I1
sVdiae7cq
p4608
I1
sVdr00v04
p4609
I1
sVdpkdfw6
p4610
I1
sVd6bfgr6
p4611
I1
sVdhngxmv
p4612
I1
sVd4yr103
p4613
I1
sVddcmcff
p4614
I2
sVdsecvjz
p4615
I2
sVdaodnq2
p4616
I1
sVdmrlgbq
p4617
I2
sVczkbsly
p4618
I2
sVda4yi4j
p4619
I2
sVd2bhzao
p4620
I2
sVd5cu68l
p4621
I1
sVdt9colb
p4622
I1
sVdr0lz1o
p4623
I1
sVdim6h3f
p4624
I1
sVczwir7w
p4625
I1
sVd5yctmk
p4626
I1
sVd51qerb
p4627
I3
sVday8r52
p4628
I1
sVdoa7lb7
p4629
I1
sVd2ihxj0
p4630
I1
sVdnkf4o9
p4631
I3
sVcyslusf
p4632
I2
sVd3g0obq
p4633
I1
sVdqbpfis
p4634
I1
sVd3otxrm
p4635
I1
sVcz83sv8
p4636
I1
sVd0quo8p
p4637
I1
sVdbsx0lm
p4638
I1
sVd6zkd2a
p4639
I1
sVdksb02g
p4640
I2
sVdkhdk6d
p4641
I2
sVdfbywsq
p4642
I2
sVd6gh7af
p4643
I1
sVdebvx6w
p4644
I1
sVdfibb73
p4645
I1
sVdf0bep6
p4646
I1
sVdftuskq
p4647
I1
sVdowcmi0
p4648
I1
sVd9ds4yy
p4649
I1
sVdegy14z
p4650
I1
sVczka9tj
p4651
I2
sVdn7tndi
p4652
I2
sVdgvuv0t
p4653
I1
sVd1g45zj
p4654
I1
sVd3sk20q
p4655
I1
sVd3g034j
p4656
I1
sVd7ndzur
p4657
I1
sVde85av6
p4658
I2
sVd6gr2ow
p4659
I1
sVd4eqq4n
p4660
I1
sVdabyy3q
p4661
I1
sVdaxa235
p4662
I2
sVdb13ake
p4663
I2
sVdbzh0su
p4664
I4
sVczemiw3
p4665
I1
sVd9enup6
p4666
I3
sVdpymkfz
p4667
I2
sVd6wf07m
p4668
I1
sVd2o34ji
p4669
I1
sVd6sr8tv
p4670
I1
sVd2etb92
p4671
I1
sVde12i57
p4672
I1
sVdso6m4y
p4673
I1
sVdehsaos
p4674
I1
sVdqg6n0z
p4675
I1
sVdcilvkg
p4676
I2
sVdinhp4r
p4677
I1
sVdnr63a8
p4678
I1
sVddbyfhv
p4679
I1
sVddqb6tz
p4680
I2
sVd99cmdk
p4681
I1
sVd15l54q
p4682
I1
sVdhwpuxp
p4683
I1
sVdn2r2l7
p4684
I1
sVdkqvcfa
p4685
I1
sVd17kxbw
p4686
I1
sVdd6zc9k
p4687
I1
sVdh1arxm
p4688
I2
sVdel76ep
p4689
I1
sVd4mrwqm
p4690
I1
sVdn4lgrf
p4691
I1
sVd2ultf5
p4692
I1
sVczm1a39
p4693
I1
sVdgt7rq4
p4694
I1
sVd3jco5e
p4695
I2
sVd4v76t7
p4696
I1
sVd6dtmue
p4697
I2
sVds92vpq
p4698
I1
sVcyr9b1n
p4699
I11
sVdb0d58x
p4700
I1
sVd36lbl9
p4701
I1
sVdj5nccb
p4702
I2
sVdsa3ipp
p4703
I3
sVcziqxwk
p4704
I2
sVde2807l
p4705
I1
sVcyt4k4q
p4706
I4
sVd3k8pk2
p4707
I1
sVdbcnbev
p4708
I5
sVd6i6jfb
p4709
I1
sVd4swx0g
p4710
I1
sVdi0hymi
p4711
I1
sVczafs9k
p4712
I1
sVd358rvz
p4713
I1
sVdry7g1r
p4714
I6
sVdprv1kz
p4715
I1
sVdq7c1oy
p4716
I2
sVczx1msl
p4717
I1
sVdjgul6u
p4718
I2
sVdbjekw4
p4719
I1
sVdt0rs4e
p4720
I1
sVd0i5jg8
p4721
I1
sVd6r86zk
p4722
I1
sVdfntdb8
p4723
I2
sVdf8e993
p4724
I1
sVdoqu48b
p4725
I6
sVd1rhc3j
p4726
I1
sVdpf2rjw
p4727
I2
sVd47eocf
p4728
I1
sVd3fmf8d
p4729
I2
sVd4pjf61
p4730
I2
sVd3qllah
p4731
I1
sVdfs9ak6
p4732
I1
sVd0sklzr
p4733
I1
sVd0ory3i
p4734
I2
sVd87cg19
p4735
I1
sVdbi67vr
p4736
I1
sVd60bkdr
p4737
I1
sVdmij2ux
p4738
I1
sVdo7sbwv
p4739
I1
sVdsievf3
p4740
I1
sVd691ujc
p4741
I3
sVdej6v1j
p4742
I1
sVcyjldz5
p4743
I1
sVdkkjn2u
p4744
I1
sVdh4x3u8
p4745
I1
sVd7ho9f9
p4746
I1
sVdjyrsoy
p4747
I1
sVdsu1353
p4748
I1
sVdii6cqd
p4749
I2
sVdf66t8y
p4750
I1
sVd6i21g9
p4751
I1
sVd6fqblq
p4752
I1
sVdc3vbvl
p4753
I1
sVddqjpz3
p4754
I1
sVd0phy4h
p4755
I1
sVd7e9de8
p4756
I1
sVdswc6kj
p4757
I1
sVdd3iw7p
p4758
I1
sVd5boa86
p4759
I1
sVdik9nkj
p4760
I1
sVd82oo51
p4761
I1
sVdbn3aha
p4762
I1
sVd1x6ji9
p4763
I1
sVd6rjuu5
p4764
I1
sVdno9yhh
p4765
I1
sVdee5kc7
p4766
I1
sVdae8mvz
p4767
I1
sVdpvi9fa
p4768
I1
sVdrogv1j
p4769
I1
sVd6mugrv
p4770
I2
sVdjrfdhf
p4771
I1
sVd03chuo
p4772
I1
sVd4fmhkp
p4773
I1
sVd41x8u1
p4774
I1
sVdabnme1
p4775
I1
sVdje6nf3
p4776
I1
sVdgm6kpm
p4777
I1
sVdc8ektv
p4778
I1
sVdmz7m6q
p4779
I1
sVdiok72g
p4780
I2
sVd35etqz
p4781
I1
sVdktsfbd
p4782
I1
sVdn1gugy
p4783
I2
sVd71432x
p4784
I1
sVdjoux1v
p4785
I1
sVds1ofym
p4786
I2
sVd935ynp
p4787
I1
sVczvttb3
p4788
I4
sVdjj0ocn
p4789
I1
sVcz87dlf
p4790
I1
sVd17zq8g
p4791
I3
sVd7d3co9
p4792
I1
sVdbh7gjv
p4793
I4
sVda7s550
p4794
I1
sVdamdxl4
p4795
I2
sVdnh652i
p4796
I1
sVd9badnr
p4797
I1
sVd702e8o
p4798
I1
sVd2h6ghy
p4799
I1
sVdell37h
p4800
I1
sVd5wi7kv
p4801
I1
sVdq6j0x5
p4802
I1
sVd1txjjx
p4803
I1
sVd7jx6hj
p4804
I1
sVczufjjo
p4805
I1
sVdg3ikhz
p4806
I1
sVd397x8g
p4807
I1
sVd6fzyz9
p4808
I1
sVd72h9ni
p4809
I1
sVd1zlcg4
p4810
I1
sVd2i1r57
p4811
I1
sVcyv8pkw
p4812
I2
sVdh3ubnp
p4813
I1
sVd7w84nq
p4814
I1
sVd4xyda8
p4815
I1
sVd4z8g1h
p4816
I1
sVdb4u8zg
p4817
I1
sVdgg2wg1
p4818
I2
sVdil6l7x
p4819
I1
sVd55khpp
p4820
I1
sVd692wt7
p4821
I1
sVdhkrf0f
p4822
I1
sVd8ljw7r
p4823
I1
sVdrrrvof
p4824
I1
sVd1kkb5p
p4825
I1
sVd91icca
p4826
I1
sVdbgkk6n
p4827
I1
sVd5xjalw
p4828
I1
sVdph4d4q
p4829
I1
sVddhpwl7
p4830
I1
sVdh4kz0m
p4831
I1
sVda18u9i
p4832
I1
sVd9lflon
p4833
I1
sVdqabxby
p4834
I3
sVcznxzn6
p4835
I1
sVd381myx
p4836
I2
sVdsm6zi9
p4837
I1
sVdgkh1ea
p4838
I1
sVdf2v1t0
p4839
I1
sVdewoidi
p4840
I1
sVdchyqcu
p4841
I1
sVcykl2d9
p4842
I1
sVdml92sm
p4843
I1
sVd8dd7ne
p4844
I1
sVd26kchr
p4845
I1
sVdbz2itz
p4846
I1
sVdbp9j10
p4847
I2
sVdofs70k
p4848
I1
sVdcj9fl2
p4849
I1
sVdr0x0o3
p4850
I1
sVdit60ra
p4851
I1
sVd1pbncu
p4852
I1
sVd3c46em
p4853
I1
sVdaho9gs
p4854
I1
sVd3iqwwu
p4855
I1
sVdk46vbf
p4856
I1
sVd14s5w2
p4857
I1
sVdiib8ol
p4858
I1
sVd0ttjgy
p4859
I1
sVdk57rvi
p4860
I1
sVdboz8h5
p4861
I1
sVdjgqa37
p4862
I2
sVddsimzo
p4863
I3
sVda1drq8
p4864
I3
sVdoqpznr
p4865
I2
sVdh60tgq
p4866
I1
sVd62ouqh
p4867
I2
sVdd6d6mv
p4868
I1
sVdjimdde
p4869
I1
sVd6pr0sg
p4870
I1
sVder6ls2
p4871
I1
sVd41dh7d
p4872
I1
sVd2qap1f
p4873
I1
sVdq6ajca
p4874
I1
sVdgh4pef
p4875
I4
sVdr8otqo
p4876
I2
sVddygi2q
p4877
I1
sVda3zu7j
p4878
I1
sVd0tu73k
p4879
I1
sVd50cj8v
p4880
I1
sVdnd5hmk
p4881
I1
sVdbsoc4u
p4882
I1
sVdkuqhjp
p4883
I1
sVdhniirz
p4884
I1
sVd78i8x9
p4885
I1
sVdtcm3kf
p4886
I2
sVddyvgar
p4887
I1
sVd8dkuro
p4888
I3
sVdk1rp8e
p4889
I1
sVdblrnpj
p4890
I1
sVdr71t13
p4891
I1
sVdryfsqy
p4892
I1
sVczdr9dq
p4893
I2
sVdairblz
p4894
I1
sVd67fz7h
p4895
I2
sVcyk9asu
p4896
I1
sVdezo6m6
p4897
I1
sVd2upral
p4898
I1
sVd079qmo
p4899
I1
sVd3k4o7r
p4900
I3
sVd7gq0pn
p4901
I3
sVd5dt9ug
p4902
I4
sVdphlk2z
p4903
I5
sVdjx0x2x
p4904
I1
sVdfz90pg
p4905
I1
sVd3ide73
p4906
I1
sVd3n3cte
p4907
I1
sVdc9tsgz
p4908
I1
sVdaaem2a
p4909
I2
sVcyj9b2h
p4910
I1
sVd3kidrk
p4911
I1
sVd728t14
p4912
I1
sVdemeprq
p4913
I1
sVd9k1cis
p4914
I1
sVdqnzp80
p4915
I2
sVd571lrq
p4916
I1
sVd75lzvg
p4917
I1
sVdgzh9sb
p4918
I1
sVd76yjqy
p4919
I1
sVd5ni6kh
p4920
I1
sVdnrd8jr
p4921
I3
sVd0tq7vc
p4922
I1
sVdqtlwq2
p4923
I1
sVdahb5po
p4924
I2
sVd89fwjl
p4925
I1
sVcywjv3u
p4926
I1
sVdcpxrmq
p4927
I1
sVd31825u
p4928
I1
sVdsxmkx3
p4929
I1
sVdaw4yd8
p4930
I1
sVdn4spcp
p4931
I2
sVd92lost
p4932
I1
sVd3ga5qu
p4933
I1
sVd57xs3x
p4934
I1
sVdjspbrp
p4935
I1
sVd658zdv
p4936
I1
sVdjlwisj
p4937
I2
sVds1e672
p4938
I3
sVd08jbfm
p4939
I1
sVdo41ucq
p4940
I2
sVdst2op6
p4941
I1
sVdrb9aml
p4942
I1
sVd6159v9
p4943
I1
sVd7f3r8u
p4944
I1
sVd2e5rqa
p4945
I1
sVdjh7po2
p4946
I1
sVdflvkj9
p4947
I1
sVcyv58q5
p4948
I1
sVd436s0c
p4949
I1
sVdb3doeg
p4950
I1
sVdhx7b28
p4951
I1
sVdqaghkm
p4952
I1
sVcyyzo8f
p4953
I1
sVczj9pdm
p4954
I1
sVdfwb4k2
p4955
I1
sVd57qc0b
p4956
I1
sVdqsgt00
p4957
I1
sVdmo1frp
p4958
I1
sVdgg4ke3
p4959
I4
sVdbhlbdb
p4960
I1
sVdqvjfjr
p4961
I1
sVd2o01b3
p4962
I1
sVd35f6y6
p4963
I1
sVd2qshjp
p4964
I1
sVdcjxvo8
p4965
I1
sVd6zlorg
p4966
I3
sVdjsguyf
p4967
I2
sVd05btiz
p4968
I1
sVd8vccsp
p4969
I1
sVd75nh5d
p4970
I1
sVddokxfh
p4971
I1
sVcz9dpzl
p4972
I1
sVdhwh64f
p4973
I1
sVd36v4kf
p4974
I1
sVd74tfeh
p4975
I1
sVdetbklm
p4976
I1
sVd0t6i5o
p4977
I1
sVdkrs8al
p4978
I3
sVd5uh5u6
p4979
I1
sVd727lmk
p4980
I1
sVdgffi3b
p4981
I2
sVdeb4ul9
p4982
I1
sVdnm4i6k
p4983
I2
sVdclg9ja
p4984
I1
sVd2qnlqu
p4985
I2
sVd5zj3sm
p4986
I1
sVdowxfi8
p4987
I1
sVdht1mrb
p4988
I1
sVde0ue5p
p4989
I1
sVcz60unq
p4990
I1
sVdfe204b
p4991
I1
sVdj5v0zv
p4992
I1
sVd6b4xip
p4993
I1
sVdt0ytc3
p4994
I2
sVd0jlh2w
p4995
I1
sVdgta2eq
p4996
I1
sVd0dznpd
p4997
I1
sVdjor5hd
p4998
I1
sVd3nxtpo
p4999
I3
sVd0gfp09
p5000
I1
sVd2h6i8n
p5001
I1
sVdodqqte
p5002
I1
sVdrzyyp2
p5003
I1
sVdozo7qc
p5004
I1
sVdtfjcsq
p5005
I7
sVczbdre7
p5006
I1
sVdnf6yo8
p5007
I1
sVd1r8pk0
p5008
I1
sVdor7ocv
p5009
I2
sVd8ql566
p5010
I2
sVdc20ch9
p5011
I1
sVd01hydf
p5012
I1
sVdikhtyw
p5013
I1
sVdadtple
p5014
I1
sVd6kldca
p5015
I3
sVd0lmuzv
p5016
I1
sVdn0691r
p5017
I4
sVdgkvc0q
p5018
I1
sVdssv0oy
p5019
I1
sVdikhbwh
p5020
I1
sVd51g107
p5021
I2
sVd7de522
p5022
I1
sVdkb91as
p5023
I1
sVdbr0404
p5024
I1
sVd035iah
p5025
I1
sVcynr2qh
p5026
I1
sVdrb2nf3
p5027
I1
sVdrukr5s
p5028
I1
sVd4rly8g
p5029
I3
sVd07iltg
p5030
I1
sVczt6gco
p5031
I1
sVdenu188
p5032
I1
sVd6tm8t8
p5033
I2
sVdoplzds
p5034
I2
sVdq5jaj0
p5035
I2
sVdpwb7gr
p5036
I1
sVdjnk7gn
p5037
I1
sVd6zpnwy
p5038
I3
sVdftg5vv
p5039
I1
sVdqb0vva
p5040
I2
sVcz3o6yq
p5041
I1
sVda5cnnk
p5042
I4
sVd9nokoq
p5043
I1
sVdhzlcxo
p5044
I1
sVdmmlrbj
p5045
I3
sVdnmk4dn
p5046
I1
sVd036fte
p5047
I1
sVdjzwpi7
p5048
I1
sVd83aeci
p5049
I1
sVdnp741b
p5050
I1
sVdd4okpz
p5051
I1
sVd18c4kh
p5052
I1
sVdsxic66
p5053
I1
sVdbm0y3u
p5054
I1
sVcz4rfen
p5055
I1
sVd0yyu34
p5056
I1
sVczcdnqk
p5057
I1
sVdgg3wud
p5058
I3
sVdoqvym2
p5059
I2
sVd3xsa0p
p5060
I1
sVditfnsm
p5061
I1
sVd7j7eig
p5062
I1
sVda7rw4l
p5063
I1
sVde8pwpk
p5064
I1
sVdik55em
p5065
I1
sVd34r63q
p5066
I1
sVd2lic6f
p5067
I1
sVd00nyaa
p5068
I1
sVdfrt34f
p5069
I3
sVdco4crz
p5070
I1
sVd86b8s9
p5071
I1
sVdbxqo1g
p5072
I1
sVdneiog9
p5073
I2
sVdmnyikr
p5074
I1
sVcykp0gk
p5075
I1
sVd5kkr7k
p5076
I4
sVddbscko
p5077
I1
sVd07799f
p5078
I1
sVdg3jkla
p5079
I1
sVczka86x
p5080
I1
sVd2dxumq
p5081
I3
sVdekcwyq
p5082
I1
sVdekedss
p5083
I1
sVdp85jrp
p5084
I1
sVd2uk5j7
p5085
I1
sVd3fdrl4
p5086
I1
sVdca351p
p5087
I2
sVdh8ev47
p5088
I1
sVdhyiisk
p5089
I6
sVdd21kun
p5090
I1
sVd5y8emy
p5091
I2
sVd6hg1l7
p5092
I1
sVdgtstoy
p5093
I1
sVdejsquq
p5094
I1
sVdps1zjx
p5095
I1
sVczbep5e
p5096
I2
sVd0wfdp8
p5097
I1
sVd6hue5h
p5098
I3
sVdp11dqg
p5099
I1
sVdi5q1cq
p5100
I1
sVdpdh513
p5101
I1
sVdh6sihz
p5102
I1
sVdr5t5ev
p5103
I1
sVdmh34vx
p5104
I3
sVdjinafc
p5105
I1
sVd1220xy
p5106
I1
sVdfgqa0k
p5107
I1
sVd2palv4
p5108
I1
sVd31o7sj
p5109
I1
sVd4nt6ng
p5110
I1
sVdb5c57n
p5111
I1
sVdd9m79e
p5112
I2
sVdelqhv3
p5113
I2
sVdc7gw2j
p5114
I2
sVdoopnea
p5115
I1
sVda3498e
p5116
I1
sVdhafahx
p5117
I1
sVdctxlon
p5118
I1
sVdti3ij1
p5119
I1
sVd1gb3al
p5120
I1
sVd75nuzj
p5121
I1
sVd715lir
p5122
I1
sVdqxjf6d
p5123
I1
sVdtfg6y6
p5124
I1
sVd0bpp4g
p5125
I1
sVd3jx09p
p5126
I1
sVdn0bea5
p5127
I2
sVdibor0j
p5128
I1
sVd661hvv
p5129
I1
sVdcdqset
p5130
I1
sVd3fi5n7
p5131
I1
sVd2irbmw
p5132
I1
sVdhnqrhb
p5133
I3
sVdosvi1u
p5134
I1
sVd2g85tb
p5135
I1
sVdagh9as
p5136
I4
sVdrsbboo
p5137
I2
sVd5ihv0q
p5138
I1
sVd23s58f
p5139
I1
sVd721lwo
p5140
I1
sVd8rvcrc
p5141
I1
sVdafc0lp
p5142
I1
sVd12sg7j
p5143
I1
sVdp806cw
p5144
I2
sVd5vpkeu
p5145
I2
sVdebis0z
p5146
I1
sVdkdek6q
p5147
I1
sVdba5qxb
p5148
I1
sVd6ff7rf
p5149
I1
sVdql84cr
p5150
I1
sVdc0t4p5
p5151
I1
sVdsjrkc0
p5152
I1
sVdafhbdm
p5153
I2
sVdap7zmh
p5154
I1
sVdfk53lq
p5155
I1
sVdclnxv9
p5156
I1
sVd19c8x6
p5157
I1
sVd50e7br
p5158
I1
sVdf0vqh1
p5159
I2
sVczpnp4i
p5160
I1
sVdhgfih5
p5161
I2
sVdcfjrrn
p5162
I1
sVd1o7rk8
p5163
I1
sVd7rnvy9
p5164
I2
sVcyptqoi
p5165
I1
sVd6svk3q
p5166
I1
sVd48oojr
p5167
I1
sVdsxbqbx
p5168
I3
sVddppruw
p5169
I2
sVdbh8kn9
p5170
I1
sVd2qfg7k
p5171
I1
sVdru0dx4
p5172
I1
sVd6vtsqx
p5173
I1
sVd64k342
p5174
I1
sVdao9rk4
p5175
I1
sVd56fyuy
p5176
I1
sVdeh37mf
p5177
I1
sVd5y49zt
p5178
I1
sVdczoull
p5179
I1
sVdg7r2ks
p5180
I1
sVdpo00pg
p5181
I1
sVdb1kfgf
p5182
I1
sVdbz15l3
p5183
I2
sVdddsqwz
p5184
I1
sVdpm2crv
p5185
I5
sVdsw95zy
p5186
I2
sVdiu25b0
p5187
I3
sVdc629pq
p5188
I1
sVddzfjvh
p5189
I1
sVd6xcv10
p5190
I1
sVd859txd
p5191
I1
sVdjqhqwj
p5192
I2
sVdq35uk8
p5193
I1
sVczkyezq
p5194
I4
sVdt7a9u6
p5195
I1
sVdeqooyh
p5196
I2
sVd29e40m
p5197
I1
sVdctepux
p5198
I1
sVd6tlfbv
p5199
I1
sVd6okuiw
p5200
I1
sVd1pbodu
p5201
I1
sVde8nl8x
p5202
I1
sVdg1qg9q
p5203
I1
sVd0204lb
p5204
I2
sVd2oer6m
p5205
I1
sVd2hoi0h
p5206
I1
sVdrw2bxd
p5207
I1
sVdf37evd
p5208
I1
sVdhs2v3e
p5209
I6
sVdsml7e3
p5210
I1
sVdf5h34g
p5211
I1
sVdhsby33
p5212
I2
sVd85wl1w
p5213
I2
sVd9gszpi
p5214
I1
sVdbxut9e
p5215
I1
sVdmikzcw
p5216
I1
sVdokai6y
p5217
I1
sVdgip7gc
p5218
I1
sVd9v8e5k
p5219
I1
sVd6odnhr
p5220
I1
sVdbndli8
p5221
I1
sVcyljyhe
p5222
I1
sVdox7nlu
p5223
I3
sVdfrly41
p5224
I1
sVdp5a5ys
p5225
I1
sVdqguipw
p5226
I2
sVdbz3oxx
p5227
I3
sVd3pey2h
p5228
I1
sVdryiwfm
p5229
I3
sVd6r4j6x
p5230
I1
sVdi7bl8g
p5231
I2
sVdb5hxcv
p5232
I2
sVddk66qq
p5233
I1
sVdsxjguu
p5234
I2
sVd581e0r
p5235
I1
sVd1bz0a0
p5236
I1
sVds6xnst
p5237
I1
sVdkva82y
p5238
I1
sVda3hilw
p5239
I1
sVczyokve
p5240
I2
sVdfodxov
p5241
I1
sVd24lnl1
p5242
I2
sVczebcmg
p5243
I1
sVdqkaygv
p5244
I2
sVd2znxa6
p5245
I1
sVd77xkqz
p5246
I1
sVd35e57w
p5247
I1
sVd8en603
p5248
I1
sVdt1lxr9
p5249
I1
sVde9golw
p5250
I1
sVd3kpllm
p5251
I1
sVdd6w1ja
p5252
I1
sVd3rtdis
p5253
I1
sVczslj96
p5254
I1
sVdexb8hw
p5255
I1
sVd9zy27h
p5256
I1
sVda6swtj
p5257
I2
sVdkq1l1e
p5258
I1
sVd2nd0ce
p5259
I1
sVdd1sxcj
p5260
I2
sVd39x4sa
p5261
I1
sVd0xxkph
p5262
I1
sVdrb9nb3
p5263
I1
sVd305oim
p5264
I1
sVcytoi44
p5265
I1
sVd8yy5wd
p5266
I1
sVd7fogvf
p5267
I1
sVd6j9jxm
p5268
I2
sVd3oqklc
p5269
I2
sVdk9s9rr
p5270
I1
sVddjle41
p5271
I1
sVdmzoxk1
p5272
I1
sVd6ftfqu
p5273
I1
sVd7ylmh4
p5274
I1
sVd6xsmhf
p5275
I1
sVd41jfk3
p5276
I1
sVdhz7jzr
p5277
I1
sVdgjhdud
p5278
I2
sVdspjia9
p5279
I1
sVczd5hag
p5280
I2
sVdnka8fi
p5281
I1
sVd7x6ckz
p5282
I1
sVdqlrg0b
p5283
I1
sVd8q7h0x
p5284
I2
sVd3xgvn1
p5285
I1
sVd0noknd
p5286
I1
sVd49cpdh
p5287
I1
sVcyyaa3n
p5288
I1
sVd0oitqp
p5289
I1
sVd2uuy2o
p5290
I1
sVdrbraio
p5291
I1
sVdo0kp1a
p5292
I3
sVdpkalej
p5293
I1
sVdb5kokq
p5294
I1
sVd5m0axv
p5295
I1
sVdqflenb
p5296
I1
sVd68ox5e
p5297
I1
sVd891ah2
p5298
I1
sVdrglkyj
p5299
I1
sVdss9sv6
p5300
I1
sVdir8ek2
p5301
I1
sVdcbqk4s
p5302
I1
sVd00j64w
p5303
I1
sVdhr2si4
p5304
I1
sVd5od8qr
p5305
I1
sVd6gyhqy
p5306
I1
sVd3b3rr8
p5307
I1
sVdst7u9j
p5308
I1
sVdc0jqj0
p5309
I1
sVdbynpdi
p5310
I1
sVd4qwpqw
p5311
I1
sVdtgoubc
p5312
I1
sVdfjdnai
p5313
I1
sVdbn2gx2
p5314
I1
sVdc6az7b
p5315
I1
sVdrqtxv1
p5316
I1
sVd4j068j
p5317
I1
sVd1kdi3g
p5318
I5
sVdp3eotq
p5319
I1
sVd07imqu
p5320
I1
sVdi0i7m7
p5321
I1
sVdkdrfvp
p5322
I1
sVdh3yy6a
p5323
I1
sVdp3x764
p5324
I1
sVd8cur3b
p5325
I1
sVd114ebt
p5326
I1
sVd9c86ev
p5327
I1
sVda68jzo
p5328
I1
sVd39fq7k
p5329
I1
sVdrzb4cy
p5330
I1
sVd6m4k3e
p5331
I1
sVdg8tf1i
p5332
I1
sVdjzh0jh
p5333
I1
sVdr2i1cg
p5334
I1
sVd0yq1ue
p5335
I1
sVd1cwja9
p5336
I1
sVd3beckf
p5337
I1
sVczsgdv4
p5338
I1
sVdhsugty
p5339
I2
sVdcgm5vw
p5340
I2
sVdfk55el
p5341
I2
sVdjwdl94
p5342
I1
sVd4tkbg8
p5343
I2
sVda75yu1
p5344
I1
sVdj7d9d5
p5345
I1
sVd62f9zy
p5346
I2
sVd247hmk
p5347
I1
sVd0bv0nd
p5348
I1
sVcz60y6u
p5349
I1
sVdruk3kw
p5350
I1
sVd249i5e
p5351
I1
sVcynad0d
p5352
I1
sVdk3f6hj
p5353
I1
sVdd3bnsg
p5354
I1
sVde8i76f
p5355
I1
sVd4asqyn
p5356
I1
sVd20hvam
p5357
I1
sVdt0m4mc
p5358
I1
sVdmv91x6
p5359
I1
sVdeql64x
p5360
I1
sVde4mzz0
p5361
I1
sVdqk7hgd
p5362
I1
sVdbpxu5g
p5363
I1
sVdgg78vf
p5364
I1
sVdbllrhk
p5365
I1
sVd1nyvph
p5366
I1
sVd8xho2u
p5367
I1
sVd97d4p5
p5368
I1
sVd5kz1ql
p5369
I2
sVd3vx5m0
p5370
I1
sVdji98kq
p5371
I1
sVd9bqq5k
p5372
I1
sVdfg47qs
p5373
I4
sVd8gi3a7
p5374
I1
sVdd4dovw
p5375
I1
sVdazm07d
p5376
I2
sVdposi93
p5377
I1
sVdros6bf
p5378
I1
sVd1daes3
p5379
I1
sVdon4qh6
p5380
I1
sVdfu7g07
p5381
I1
sVdhted0t
p5382
I1
sVczgx56y
p5383
I1
sVcyuase8
p5384
I1
sVdhq4ki5
p5385
I2
sVd3qaqhp
p5386
I1
sVdimbzud
p5387
I1
sVd37b9ij
p5388
I1
sVdny9o5z
p5389
I1
sVda01v44
p5390
I4
sVds2ug6x
p5391
I1
sVdsnm6wh
p5392
I1
sVd5a0dks
p5393
I1
sVdt9mrjg
p5394
I1
sVdijz7p9
p5395
I1
sVdnri8zb
p5396
I1
sVd26w4q1
p5397
I3
sVczp4oui
p5398
I1
sVd77l41k
p5399
I1
sVd3w0gqd
p5400
I1
sVdrtr2zs
p5401
I1
sVdmjbf62
p5402
I4
sVda1uq9z
p5403
I1
sVcyri9m8
p5404
I1
sVd2mw91g
p5405
I1
sVdglfh67
p5406
I1
sVd54jglr
p5407
I1
sVd6n0x8b
p5408
I1
sVd6tdqtj
p5409
I1
sVd8g8s11
p5410
I2
sVdgop9d6
p5411
I4
sVdkljsoe
p5412
I1
sVdiu4s0r
p5413
I1
sVdrq96kd
p5414
I1
sVd8v4o0j
p5415
I2
sVdjew7s0
p5416
I1
sVdgiyi0e
p5417
I1
sVd8ss807
p5418
I1
sVd1dhzhm
p5419
I1
sVd0liale
p5420
I1
sVdrfqk3g
p5421
I1
sVda3houc
p5422
I1
sVd032u4z
p5423
I1
sVdctngz1
p5424
I2
sVd0wlrcb
p5425
I1
sVd4jshcl
p5426
I1
sVdfkr9q9
p5427
I1
sVdnkd92m
p5428
I1
sVdrie565
p5429
I1
sVdqmiss9
p5430
I1
sVczluxr3
p5431
I1
sVd1qibmc
p5432
I1
sVd09iyvu
p5433
I2
sVd627hb8
p5434
I1
sVd1zszoo
p5435
I2
sVd2hcdc1
p5436
I1
sVdjw55ax
p5437
I1
sVd3faafb
p5438
I2
sVdgwg7rt
p5439
I2
sVdq4rn8k
p5440
I1
sVd45lury
p5441
I1
sVdakc369
p5442
I1
sVdqgmc6p
p5443
I2
sVdc6tha1
p5444
I1
sVdnsxdqm
p5445
I1
sVdsxr6up
p5446
I1
sVd6rf31t
p5447
I1
sVdejnwop
p5448
I2
sVd3ma9d4
p5449
I1
sVd42nfvt
p5450
I1
sVczvmap6
p5451
I1
sVd6h6bc2
p5452
I2
sVd1as5p5
p5453
I3
sVdccegea
p5454
I1
sVdkkjl1q
p5455
I1
sVdbcp3qi
p5456
I4
sVd0xrdb3
p5457
I2
sVd6hstgd
p5458
I1
sVcyyd1qi
p5459
I1
sVdhiz8z6
p5460
I1
sVdk8f0sr
p5461
I1
sVczvv7j8
p5462
I1
sVdjaaux4
p5463
I1
sVd7xpibi
p5464
I1
sVd7z9s4k
p5465
I8
sVdowbcf6
p5466
I1
sVd8iewyt
p5467
I1
sVd2uk2fr
p5468
I1
sVdp9hbkz
p5469
I1
sVdsf9w1d
p5470
I1
sVdhqe6zq
p5471
I1
sVdgt5ns4
p5472
I1
sVdgxlo46
p5473
I2
sVd8pv96q
p5474
I3
sVdbqraji
p5475
I2
sVdkyc9sx
p5476
I3
sVde690me
p5477
I1
sVd4fd2rt
p5478
I3
sVdp4gw40
p5479
I10
sVdjz3wbm
p5480
I2
sVd916ymr
p5481
I1
sVd6nsbuf
p5482
I1
sVdmzhk51
p5483
I1
sVdbrn5br
p5484
I1
sVcymqhy0
p5485
I2
sVdo0y3sg
p5486
I1
sVdpnkjr5
p5487
I2
sVd1pf7hc
p5488
I1
sVdil4hyt
p5489
I1
sVczjgjcw
p5490
I2
sVd435rd3
p5491
I1
sVdkkgong
p5492
I1
sVd63zyok
p5493
I1
sVd29li5n
p5494
I1
sVdgh9h07
p5495
I2
sVdplvs27
p5496
I1
sVd2q738l
p5497
I1
sVd09gcws
p5498
I1
sVd50dzu8
p5499
I1
sVddct29i
p5500
I1
sVdauifz9
p5501
I1
sVda1fdhw
p5502
I1
sVdhxhzm8
p5503
I2
sVdhg5s87
p5504
I1
sVd35r5jk
p5505
I1
sVd7wp8dl
p5506
I1
sVd0z7a0c
p5507
I3
sVcz8tr7i
p5508
I1
sVdas4spj
p5509
I1
sVdcddc3v
p5510
I1
sVdrnw2fi
p5511
I1
sVd3wk1f5
p5512
I10
sVd0c73rg
p5513
I1
sVdf8z3b2
p5514
I1
sVdexsauq
p5515
I2
sVdhs9y0m
p5516
I2
sVd1tn7pm
p5517
I1
sVdeqqchj
p5518
I1
sVdgkrqpg
p5519
I1
sVd7x76au
p5520
I3
sVd06xqo5
p5521
I1
sVdaijbcr
p5522
I2
sVdb7r2bg
p5523
I1
sVdmt4a9k
p5524
I1
sVddeghpc
p5525
I1
sVdtiovsf
p5526
I1
sVdemegsq
p5527
I1
sVd0xhk7s
p5528
I1
sVcz15sqa
p5529
I1
sVd1ru49e
p5530
I2
sVd27msq5
p5531
I2
sVdt10sad
p5532
I1
sVdrguty0
p5533
I2
sVdkyj4ra
p5534
I2
sVdsyl345
p5535
I3
sVd6sffkx
p5536
I1
sVd6w3hr8
p5537
I1
sVdotxaq7
p5538
I1
sVdek2y9s
p5539
I1
sVd10dw7l
p5540
I2
sVdizqqnx
p5541
I1
sVczpl3v3
p5542
I2
sVdr35b3w
p5543
I1
sVddgn002
p5544
I1
sVdhciwtj
p5545
I1
sVdi6dahf
p5546
I1
sVd04wcya
p5547
I1
sVdrrwhua
p5548
I1
sVd3gwfx0
p5549
I1
sVdb44iw0
p5550
I2
sVd7ukto3
p5551
I2
sVdpa9mkv
p5552
I2
sVdclnl4x
p5553
I1
sVd36oufs
p5554
I1
sVdcafmr8
p5555
I1
sVd9faptv
p5556
I1
sVdsd4zwo
p5557
I2
sVcylkkva
p5558
I1
sVd4tvldt
p5559
I1
sVd70rm05
p5560
I1
sVdbdnnw9
p5561
I1
sVdohlg60
p5562
I3
sVd1p066u
p5563
I2
sVd1aykr2
p5564
I1
sVdfrj26w
p5565
I1
sVdq8etvc
p5566
I1
sVdrnccjg
p5567
I2
sVd2b0v0b
p5568
I1
sVd8lll24
p5569
I1
sVdksanr7
p5570
I1
sVdd6gzfv
p5571
I1
sVczbnzj9
p5572
I1
sVdkkn041
p5573
I2
sVd3l00c1
p5574
I1
sVdoaf5vc
p5575
I1
sVd6xhdbu
p5576
I1
sVcyo646f
p5577
I1
sVdtehs8e
p5578
I3
sVd1hox2j
p5579
I1
sVdnklr7a
p5580
I2
sVd30nwn7
p5581
I1
sVd8yfpc6
p5582
I1
sVditt9g2
p5583
I1
sVdeice21
p5584
I1
sVcypq2sx
p5585
I1
sVdr0jpvd
p5586
I1
sVcz4cxzm
p5587
I2
sVd8lkxt1
p5588
I1
sVdq9r0om
p5589
I2
sVd70i5lb
p5590
I1
sVdh12dst
p5591
I1
sVd6tmw9f
p5592
I1
sVdkk6to3
p5593
I2
sVdag1j2q
p5594
I1
sVdcbji04
p5595
I1
sVdd0mkn2
p5596
I1
sVds9b7jh
p5597
I1
sVdkmfg1e
p5598
I1
sVdsp8pnl
p5599
I1
sVdppemcg
p5600
I3
sVd02gi3r
p5601
I2
sVdbu4u7y
p5602
I1
sVdtb2vm8
p5603
I2
sVdgd12hd
p5604
I1
sVd0thdjg
p5605
I1
sVd1r55h2
p5606
I1
sVd7t623p
p5607
I1
sVd6tk2et
p5608
I2
sVd27q73e
p5609
I1
sVdrh8yq8
p5610
I3
sVdsdyp6a
p5611
I1
sVd9dztws
p5612
I2
sVdiyrrn0
p5613
I1
sVd60rlum
p5614
I1
sVdjhd9ac
p5615
I1
sVdj592fv
p5616
I1
sVd6mor1j
p5617
I2
sVd5hol5u
p5618
I1
sVdim5rvd
p5619
I1
sVdq665j1
p5620
I1
sVdidwseb
p5621
I2
sVdr90msv
p5622
I1
sVdiyroih
p5623
I2
sVd5uokk7
p5624
I1
sVd1pzlt6
p5625
I1
sVd23cs8c
p5626
I1
sVdhxu2ze
p5627
I1
sVd48clup
p5628
I1
sVdc8vo8a
p5629
I3
sVd2tzwey
p5630
I1
sVd0p4yq2
p5631
I2
sVd1hk0a7
p5632
I1
sVddm2y4z
p5633
I1
sVd18pjmq
p5634
I2
sVdeotgy0
p5635
I1
sVd9bjtgl
p5636
I1
sVd4g5zvd
p5637
I1
sVdr2ia3m
p5638
I1
sVdt4il9x
p5639
I1
sVdrslbn1
p5640
I1
sVdbmw373
p5641
I1
sVcyxab05
p5642
I2
sVdmsrxt9
p5643
I2
sVdjqo2yy
p5644
I1
sVd0knvi1
p5645
I1
sVd0zbtvv
p5646
I2
sVdkkkdeo
p5647
I1
sVd6wgeci
p5648
I1
sVdcln0iv
p5649
I1
sVd47lwts
p5650
I1
sVd4izygp
p5651
I1
sVd3spq2z
p5652
I1
sVd1xl3xh
p5653
I1
sVdcf7qux
p5654
I1
sVd3xw864
p5655
I1
sVdseth3y
p5656
I1
sVdkq8ai8
p5657
I1
sVd84r737
p5658
I1
sVd97er1w
p5659
I1
sVd870oqe
p5660
I1
sVd68oyzi
p5661
I1
sVd5imnas
p5662
I1
sVdi6661d
p5663
I1
sVdjfivu1
p5664
I3
sVdmhywgt
p5665
I3
sVd4vzrzf
p5666
I1
sVd1rv26x
p5667
I1
sVcyypcdh
p5668
I1
sVd0oab6k
p5669
I3
sVd8qdrha
p5670
I1
sVda00fa6
p5671
I1
sVdkkmrev
p5672
I3
sVdjza99y
p5673
I2
sVdjgnk4d
p5674
I1
sVd80x7ae
p5675
I1
sVdhii8l0
p5676
I1
sVdgqfw9w
p5677
I1
sVdnuqxf2
p5678
I2
sVd01b4sx
p5679
I1
sVdij8pu0
p5680
I1
sVdb5btev
p5681
I1
sVd5rfsm8
p5682
I1
sVd1kppxs
p5683
I1
sVdqr1lek
p5684
I1
sVdmffkgy
p5685
I1
sVdnm3l23
p5686
I1
sVd6mo0eo
p5687
I1
sVdri8b7y
p5688
I1
sVd807g7g
p5689
I3
sVd67d855
p5690
I1
sVdi2n6wt
p5691
I1
sVdt4jv5a
p5692
I1
sVd7t4qe6
p5693
I1
sVdkws9ur
p5694
I2
sVdplpzju
p5695
I2
sVdkrmtxd
p5696
I1
sVd7grgrh
p5697
I1
sVdr3d2so
p5698
I1
sVdf1tgug
p5699
I1
sVd1x539j
p5700
I1
sVd8o01pq
p5701
I1
sVdnivnxv
p5702
I1
sVdokthpf
p5703
I1
sVd0aa0nu
p5704
I1
sVd6zuy62
p5705
I1
sVd7iv757
p5706
I3
sVdfbcxpu
p5707
I2
sVcz8wbad
p5708
I1
sVd6cy2ha
p5709
I1
sVd1czc9a
p5710
I1
sVczaqzs8
p5711
I1
sVcz4y5jv
p5712
I1
sVd93ife0
p5713
I1
sVd0syjx6
p5714
I1
sVdfovim0
p5715
I1
sVdba5eim
p5716
I1
sVcz1d0oc
p5717
I1
sVdcbnnys
p5718
I1
sVdhje7vv
p5719
I1
sVdd1xe8e
p5720
I2
sVdoh4us9
p5721
I3
sVd4tld9m
p5722
I1
sVd12qfrw
p5723
I4
sVcz4jni6
p5724
I1
sVdaxmi55
p5725
I5
sVcznxe7j
p5726
I1
sVdgrnsaa
p5727
I1
sVdh5f0ns
p5728
I2
sVd3rxig0
p5729
I6
sVdbt1b1v
p5730
I1
sVdc738vl
p5731
I2
sVd3oaue8
p5732
I1
sVd0zo2qt
p5733
I1
sVd8fggpm
p5734
I5
sVdc2e771
p5735
I2
sVd3dz6oi
p5736
I2
sVddm24fj
p5737
I6
sVd849b4q
p5738
I1
sVd0tjbyv
p5739
I1
sVdc8czvd
p5740
I1
sVdg3jgct
p5741
I1
sVcz9h2n6
p5742
I1
sVdk7fvy2
p5743
I1
sVdk0ygt1
p5744
I1
sVdmhf2d8
p5745
I1
sVd2ooytw
p5746
I1
sVd29lrs9
p5747
I2
sVdgb8zsi
p5748
I2
sVdirbzzm
p5749
I1
sVd9a76ik
p5750
I1
sVdju6tpp
p5751
I1
sVd0jmt9q
p5752
I1
sVd0rfy9w
p5753
I1
sVdacg3wr
p5754
I2
sVd70i8ad
p5755
I1
sVdasch6c
p5756
I1
sVdi73tgn
p5757
I3
sVdfoozhu
p5758
I1
sVd14rd8q
p5759
I1
sVdi6pdgi
p5760
I2
sVddrk87f
p5761
I1
sVd3znqs6
p5762
I1
sVd3jl5cu
p5763
I2
sVd1c3xge
p5764
I1
sVcywsw8s
p5765
I3
sVdg1d00i
p5766
I1
sVd7j54dp
p5767
I2
sVdowq7f3
p5768
I3
sVdcgbot2
p5769
I1
sVdb05ga3
p5770
I3
sVd1mj1j1
p5771
I2
sVd6s41a8
p5772
I3
sVd5sav7r
p5773
I1
sVd04safk
p5774
I1
sVdho9uad
p5775
I1
sVd0zuqn4
p5776
I1
sVd6iynlg
p5777
I1
sVdnexlz9
p5778
I1
sVczejfs6
p5779
I1
sVda363di
p5780
I2
sVd3pg2gg
p5781
I1
sVdcdkxbp
p5782
I1
sVdnn867a
p5783
I1
sVdh8tq9z
p5784
I1
sVczckvnt
p5785
I1
sVdg9brqg
p5786
I1
sVd1bd6yc
p5787
I2
sVdt8mwq2
p5788
I1
sVd8ut0i3
p5789
I1
sVdix49la
p5790
I1
sVd0y4yw3
p5791
I1
sVdkbrzfd
p5792
I1
sVcysw9dx
p5793
I1
sVcz3bs5j
p5794
I4
sVdcraeqd
p5795
I1
sVd9no3j6
p5796
I7
sVdny21ee
p5797
I1
sVdteypnx
p5798
I3
sVdbvhb7l
p5799
I1
sVdjnapn7
p5800
I2
sVd4dbysn
p5801
I1
sVd1hd48w
p5802
I1
sVdi7tzkd
p5803
I1
sVd1m1hge
p5804
I1
sVcz1mnof
p5805
I1
sVd4n8hl4
p5806
I1
sVdsj2rwk
p5807
I1
sVd84sue2
p5808
I1
sVd0zmhfu
p5809
I2
sVd9plf18
p5810
I1
sVdpegd64
p5811
I1
sVd0m4qp1
p5812
I1
sVdq1qb1z
p5813
I1
sVdehina9
p5814
I3
sVd011l52
p5815
I1
sVdftem1r
p5816
I1
sVdpiuh63
p5817
I1
sVdnxkjpt
p5818
I2
sVd47soq9
p5819
I1
sVdfnt7w8
p5820
I1
sVdhjfxuc
p5821
I1
sVdb5ioxs
p5822
I1
sVd6jdzz3
p5823
I1
sVdrfxktd
p5824
I3
sVdj35keq
p5825
I1
sVd1uvv9k
p5826
I1
sVdjfdh1n
p5827
I1
sVdfovdzi
p5828
I1
sVcylimr2
p5829
I1
sVcz3s6qg
p5830
I1
sVdhkbbxg
p5831
I1
sVd9l86ap
p5832
I1
sVd2nv8w0
p5833
I1
sVdi0oo6j
p5834
I1
sVd2qhtfz
p5835
I2
sVd0nwii5
p5836
I3
sVd1rpkyw
p5837
I1
sVdak56cg
p5838
I2
sVdjezhrf
p5839
I1
sVd4uwx6t
p5840
I1
sVd6urr8s
p5841
I1
sVdcviv12
p5842
I2
sVde18c8s
p5843
I1
sVdpydkwn
p5844
I1
sVd82yd8q
p5845
I1
sVd9lm0gr
p5846
I1
sVd3zubvw
p5847
I1
sVdfqo1cv
p5848
I1
sVdfrj828
p5849
I1
sVd035fgn
p5850
I2
sVdfmotzu
p5851
I2
sVd1725x5
p5852
I1
sVddcv0hp
p5853
I1
sVdkn1scr
p5854
I1
sVdfq3rhs
p5855
I1
sVd08jpka
p5856
I2
sVd2d7u9v
p5857
I1
sVdkkv67j
p5858
I2
sVd1sr97m
p5859
I1
sVd026g2o
p5860
I1
sVd3zlsvn
p5861
I1
sVdrpgm98
p5862
I1
sVdjl53sc
p5863
I2
sVd6vr1iy
p5864
I1
sVdglu06m
p5865
I1
sVdf7ex27
p5866
I1
sVddx1w1e
p5867
I1
sVdobq856
p5868
I1
sVd8doz64
p5869
I1
sVdejffwp
p5870
I1
sVdtdeahc
p5871
I1
sVdbar7u2
p5872
I1
sVd0sx6e0
p5873
I2
sVdfoeo8l
p5874
I1
sVdkqwt0m
p5875
I1
sVd81ysxr
p5876
I1
sVd0c796i
p5877
I4
sVd7h5l3u
p5878
I1
sVds8aop0
p5879
I1
sVdsjb922
p5880
I1
sVdgabe28
p5881
I1
sVd51liot
p5882
I1
sVdc5n6fo
p5883
I1
sVdgissjk
p5884
I2
sVd5igkvt
p5885
I3
sVd1mvzjl
p5886
I1
sVdqbctus
p5887
I1
sVd4xfjhz
p5888
I1
sVdno1a7i
p5889
I1
sVds225dm
p5890
I3
sVdbyc49y
p5891
I1
sVdkkj9xk
p5892
I2
sVdriouw0
p5893
I2
sVdgizq9y
p5894
I3
sVdsefjlt
p5895
I1
sVd1tf81a
p5896
I1
sVd4ivhsk
p5897
I1
sVdilt82j
p5898
I1
sVdb55l1r
p5899
I1
sVczgkva9
p5900
I2
sVdejiej3
p5901
I2
sVd1p79ha
p5902
I1
sVd2fk35d
p5903
I1
sVdsji7nc
p5904
I1
sVde2fs74
p5905
I1
sVda87114
p5906
I1
sVdatyzd7
p5907
I2
sVdj1it1p
p5908
I1
sVdbkxsh9
p5909
I1
sVdfuqwna
p5910
I3
sVcyylsoz
p5911
I1
sVdsal0we
p5912
I1
sVd1bombm
p5913
I2
sVczjk6ea
p5914
I1
sVde5ujer
p5915
I1
sVdkdlg5o
p5916
I1
sVdkvwn6c
p5917
I1
sVdhox4sj
p5918
I1
sVdiuxolj
p5919
I1
sVdowda8n
p5920
I1
sVdopn2be
p5921
I2
sVdgnnhc4
p5922
I1
sVdq731r9
p5923
I1
sVdnxc9d1
p5924
I1
sVdawspz8
p5925
I1
sVddfl23a
p5926
I1
sVdk4oa8s
p5927
I3
sVd2vqee5
p5928
I2
sVd1ehlg0
p5929
I1
sVdseqsyh
p5930
I1
sVdoxxkfm
p5931
I1
sVdruk9ao
p5932
I3
sVd2wwoxd
p5933
I1
sVd7qyaey
p5934
I1
sVczed5jy
p5935
I1
sVd8lkli4
p5936
I2
sVdc4ih6i
p5937
I1
sVdamh10b
p5938
I4
sVdb8qek5
p5939
I1
sVczsd6ot
p5940
I1
sVdie7bzs
p5941
I1
sVd6gn3jo
p5942
I1
sVd3zl897
p5943
I3
sVdskz8p5
p5944
I1
sVczk59vf
p5945
I1
sVd1y2osb
p5946
I3
sVdgm98uq
p5947
I2
sVdf4ni6u
p5948
I2
sVdiq9nru
p5949
I1
sVdb1odvq
p5950
I1
sVd8w3ex0
p5951
I1
sVd0t24ua
p5952
I1
sVdmwjff8
p5953
I1
sVczn91qt
p5954
I1
sVdd3d09f
p5955
I1
sVdbbggx0
p5956
I2
sVd8ixjnd
p5957
I2
sVd31maj5
p5958
I1
sVdf7rvf5
p5959
I1
sVdequi77
p5960
I2
sVd28zslz
p5961
I1
sVd65y6g9
p5962
I1
sVdscwpga
p5963
I1
sVd2xcjal
p5964
I1
sVdf620vq
p5965
I1
sVd6p8l3d
p5966
I1
sVd244fj8
p5967
I3
sVd1q0ezx
p5968
I1
sVczarwpq
p5969
I1
sVdc38z4o
p5970
I2
sVdbc1taj
p5971
I1
sVdage4va
p5972
I1
sVdgewu5z
p5973
I1
sVddv6tz1
p5974
I1
sVdtj7kk4
p5975
I1
sVd9am90w
p5976
I1
sVdpql99c
p5977
I1
sVd0uoiqd
p5978
I1
sVdati2ww
p5979
I2
sVddzgy0y
p5980
I2
sVdfvd37g
p5981
I1
sVd1r0c9e
p5982
I1
sVdtcdtxa
p5983
I1
sVd6teiwz
p5984
I1
sVd0qblig
p5985
I1
sVdrgfpyl
p5986
I1
sVdndz0t2
p5987
I4
sVd95f4wo
p5988
I1
sVd2pcgja
p5989
I1
sVd5n93mw
p5990
I2
sVd0st512
p5991
I1
sVd23cpqn
p5992
I1
sVdemcrq3
p5993
I1
sVdj735dk
p5994
I1
sVd5bovz3
p5995
I1
sVd78odq5
p5996
I1
sVdtgwut4
p5997
I2
sVdd0skwc
p5998
I2
sVd2lgbu2
p5999
I2
sVdpybm6o
p6000
I1
sVdatdql1
p6001
I4
sVde7nv43
p6002
I2
sVdg12j1j
p6003
I2
sVd2qzzgf
p6004
I1
sVd6jbtv7
p6005
I2
sVdtitezr
p6006
I1
sVcyka0c2
p6007
I2
sVdfk9zd2
p6008
I2
sVdcben03
p6009
I2
sVdfur15d
p6010
I1
sVcz2w404
p6011
I2
sVdnpw6ld
p6012
I1
sVdc38hx9
p6013
I2
sVd3zcr2n
p6014
I1
sVdbx5udf
p6015
I1
sVd1d34ai
p6016
I2
sVd2r3w3z
p6017
I1
sVdi6pavb
p6018
I2
sVddqiq6t
p6019
I2
sVd6hk2sm
p6020
I1
sVdsdwoc7
p6021
I1
sVde2g948
p6022
I1
sVd69hgoa
p6023
I1
sVcze7tb6
p6024
I3
sVd2nl6zn
p6025
I1
sVdaxhv94
p6026
I1
sVd8oftx8
p6027
I1
sVdbm33m4
p6028
I1
sVd6b2681
p6029
I1
sVdqmb7vu
p6030
I2
sVdahojo9
p6031
I1
sVd5ywifo
p6032
I1
sVdoce8is
p6033
I2
sVd4z3gbm
p6034
I2
sVd5g5yn1
p6035
I1
sVdbb7z4z
p6036
I1
sVdiwfsnx
p6037
I1
sVd03vt3s
p6038
I1
sVdmspx7i
p6039
I2
sVd8txtp4
p6040
I1
sVdev9hq6
p6041
I1
sVdt6scwr
p6042
I3
sVdhflexn
p6043
I1
sVddbiwn2
p6044
I1
sVcyvs7cg
p6045
I1
sVdjbcnbb
p6046
I1
sVcyuusbq
p6047
I1
sVdsdsll8
p6048
I1
sVdnkkqjd
p6049
I1
sVde2eubu
p6050
I1
sVdryo18s
p6051
I1
sVdrbbwpj
p6052
I1
sVd9qw1bg
p6053
I2
sVdgcmnzq
p6054
I1
sVdn0fteu
p6055
I2
sVd3ttsb4
p6056
I1
sVd8lpd9e
p6057
I1
sVdciahff
p6058
I2
sVd5ftcu7
p6059
I1
sVdmxks0v
p6060
I2
sVdnkujg8
p6061
I2
sVddh5evc
p6062
I1
sVd25h8q7
p6063
I1
sVdsh0vjx
p6064
I1
sVdbf4wi6
p6065
I2
sVd66s2td
p6066
I1
sVd03ksfg
p6067
I1
sVcyt1ma3
p6068
I1
sVdrfosbu
p6069
I1
sVdggwi4u
p6070
I1
sVdely2jn
p6071
I2
sVdajfm5w
p6072
I1
sVd07yve1
p6073
I1
sVd2q761t
p6074
I1
sVdnvpxp8
p6075
I1
sVdkebvuc
p6076
I1
sVd3uv71k
p6077
I1
sVde1vf9n
p6078
I1
sVdpruis3
p6079
I1
sVdf43q7q
p6080
I3
sVd6h1qa0
p6081
I1
sVdf9n38s
p6082
I1
sVdjled09
p6083
I1
sVde32xvy
p6084
I1
sVda2lkqa
p6085
I12
sVd2syqca
p6086
I1
sVdr4sllx
p6087
I1
sVdriyt87
p6088
I1
sVdai8sxo
p6089
I1
sVd1ocz9h
p6090
I7
sVd46wr02
p6091
I1
sVd9izhyp
p6092
I2
sVdgymn9w
p6093
I1
sVdcaigtr
p6094
I1
sVd2xe7fy
p6095
I2
sVdaejpqm
p6096
I1
sVd80ihmi
p6097
I1
sVde6acoc
p6098
I1
sVd7pb80q
p6099
I1
sVd84v40o
p6100
I2
sVdjtxhei
p6101
I1
sVczvlfkt
p6102
I4
sVd3ufj2e
p6103
I1
sVdp3fpyd
p6104
I1
sVdn0ggk8
p6105
I2
sVdd0dxmw
p6106
I1
sVdid6qmd
p6107
I1
sVddj8c9m
p6108
I1
sVdid4cz2
p6109
I1
sVdgth8ag
p6110
I1
sVd4tdzow
p6111
I1
sVdaxie2k
p6112
I1
sVd1p30y0
p6113
I5
sVdiijlvd
p6114
I1
sVdj3a5uq
p6115
I1
sVczxn6fl
p6116
I1
sVdaa8trt
p6117
I1
sVdao383w
p6118
I1
sVdc3nf6s
p6119
I1
sVd3tqvbv
p6120
I1
sVd1q6n1l
p6121
I1
sVdrv7ly7
p6122
I1
sVdt858bw
p6123
I1
sVdnmmjo9
p6124
I5
sVd3c4vtq
p6125
I1
sVd1q4089
p6126
I2
sVdo12jey
p6127
I1
sVd0lyt8k
p6128
I1
sVdcknhqu
p6129
I2
sVdrpp7bh
p6130
I1
sVdskck1f
p6131
I2
sVd3s8o6n
p6132
I1
sVdt6qvo8
p6133
I2
sVdokyn08
p6134
I1
sVd4euf4m
p6135
I1
sVddkg7z1
p6136
I1
sVdogrutg
p6137
I1
sVczfcley
p6138
I1
sVdbt3q89
p6139
I1
sVd8gvtgz
p6140
I1
sVdd49ni5
p6141
I1
sVdc9kjde
p6142
I2
sVdc0mw2z
p6143
I1
sVdb5lvsx
p6144
I1
sVdft2kl6
p6145
I1
sVd32c1g6
p6146
I1
sVdqg1q8h
p6147
I3
sVdbbkin7
p6148
I1
sVd88dg81
p6149
I1
sVd4vxsa1
p6150
I2
sVczqxnaz
p6151
I1
sVdkkqli0
p6152
I2
sVd8vmvea
p6153
I1
sVd6er9v9
p6154
I1
sVczxz0a1
p6155
I3
sVd54gmcj
p6156
I7
sVdeavn38
p6157
I2
sVdk3xlkz
p6158
I2
sVdn1ndsx
p6159
I2
sVdpcdi3m
p6160
I1
sVdpqug60
p6161
I1
sVdr5z8n8
p6162
I2
sVdsoohcb
p6163
I1
sVd479txk
p6164
I1
sVdb2o2qv
p6165
I1
sVdjga7zx
p6166
I1
sVdkuu1kh
p6167
I1
sVd18otlq
p6168
I1
sVdc8pnyj
p6169
I1
sVdsdab1c
p6170
I2
sVdpbr89f
p6171
I1
sVdt11bbz
p6172
I1
sVdtgfsu6
p6173
I4
sVd5fz0lu
p6174
I1
sVdde56h2
p6175
I1
sVdkdb1it
p6176
I4
sVd2zhhb9
p6177
I1
sVdfau1yh
p6178
I1
sVd3tvp0w
p6179
I1
sVd8x22v7
p6180
I3
sVdie7rod
p6181
I1
sVd8zqwq9
p6182
I1
sVd1yfvwl
p6183
I1
sVdafjzfd
p6184
I2
sVdotrmkm
p6185
I1
sVdilb2lh
p6186
I1
sVdbbvx1e
p6187
I1
sVdfddbab
p6188
I1
sVdg43cq5
p6189
I1
sVdsibtgp
p6190
I1
sVcz46c90
p6191
I1
sVdpu9i59
p6192
I1
sVdetkv9d
p6193
I1
sVd9gr5pd
p6194
I1
sVczocjmo
p6195
I1
sVd7ecuyo
p6196
I1
sVd3rdmdy
p6197
I1
sVd706llk
p6198
I4
sVda4zu1f
p6199
I1
sVd6bhu17
p6200
I1
sVdj8fimt
p6201
I1
sVd35eof7
p6202
I1
sVdj50m7h
p6203
I1
sVd9o9rp9
p6204
I1
sVdqxsu7h
p6205
I3
sVd1e1zhn
p6206
I1
sVd52nnxf
p6207
I1
sVd6p8pei
p6208
I3
sVd2r2ya8
p6209
I1
sVdagyqvd
p6210
I1
sVcyruqm5
p6211
I1
sVdkjuq1z
p6212
I3
sVd4f4n07
p6213
I1
sVd2y2sh4
p6214
I1
sVd05n3w8
p6215
I1
sVd1qsie3
p6216
I1
sVdiplb7i
p6217
I1
sVd8lc7nn
p6218
I1
sVdmy590x
p6219
I1
sVd4645n6
p6220
I1
sVdcab5oc
p6221
I2
sVdeu14rb
p6222
I1
sVda65zpn
p6223
I1
sVdo0eqg6
p6224
I1
sVdchrb0h
p6225
I1
sVdrt6y3x
p6226
I3
sVdkohfkd
p6227
I1
sVdox6cwy
p6228
I1
sVdspgtnf
p6229
I1
sVdjk2ctf
p6230
I2
sVd8ghqeg
p6231
I1
sVddb9auj
p6232
I1
sVd73v8q5
p6233
I1
sVdmu3ag7
p6234
I1
sVcyjim5u
p6235
I1
sVd0us4og
p6236
I1
sVdr0qruu
p6237
I1
sVde9qhwu
p6238
I1
sVdg0wcmq
p6239
I1
sVd20wiuv
p6240
I1
sVda3vpwl
p6241
I1
sVd7ob0sw
p6242
I1
sVdqrhqeg
p6243
I1
sVd93cd8l
p6244
I1
sVd7wlni3
p6245
I1
sVdqt1u51
p6246
I1
sVcyxsd6t
p6247
I1
sVczntjbe
p6248
I1
sVd1x9f2i
p6249
I1
sVd0hdvac
p6250
I2
sVd4gmkeu
p6251
I2
sVcysz2ky
p6252
I1
sVdol0umf
p6253
I1
sVdpfhxss
p6254
I1
sVd9my16w
p6255
I1
sVd57bwzd
p6256
I3
sVd8g5ie7
p6257
I1
sVdqxjwfq
p6258
I1
sVdousaxr
p6259
I1
sVd6bpoz0
p6260
I1
sVdq4ohmh
p6261
I1
sVd81xjxa
p6262
I1
sVd2y33wn
p6263
I2
sVd54ii8g
p6264
I1
sVd3n4xkr
p6265
I2
sVd3a0qb9
p6266
I1
sVczunlpw
p6267
I2
sVdqd2lar
p6268
I2
sVddj7gf0
p6269
I1
sVdowcbh4
p6270
I1
sVdn48zzj
p6271
I2
sVd5laobo
p6272
I1
sVd3x5zyv
p6273
I1
sVdfhw1pi
p6274
I1
sVdh6rs5e
p6275
I1
sVdfriahj
p6276
I3
sVdqsp5wb
p6277
I1
sVd3zuvuj
p6278
I1
sVd0p587g
p6279
I1
sVcyiponi
p6280
I1
sVdhq2x6v
p6281
I1
sVdcv9a69
p6282
I1
sVd816hfl
p6283
I1
sVdc4arkz
p6284
I1
sVd5vrucq
p6285
I3
sVd6u58ja
p6286
I1
sVd3quc6n
p6287
I3
sVdi39ygo
p6288
I1
sVdiovbnv
p6289
I1
sVdhyd7b3
p6290
I1
sVdizw3wb
p6291
I2
sVcyqlw3y
p6292
I1
sVd98yq1c
p6293
I1
sVdetah7o
p6294
I1
sVd3e7nru
p6295
I1
sVdcanj70
p6296
I1
sVdpn19lp
p6297
I1
sVd01mojk
p6298
I1
sVdr70m39
p6299
I1
sVdaolrpm
p6300
I1
sVdowhzjj
p6301
I1
sVd1vs5o2
p6302
I2
sVdnbuo8l
p6303
I3
sVdnxcdql
p6304
I1
sVd4jh41d
p6305
I2
sVcyqavii
p6306
I1
sVdnmvjq5
p6307
I1
sVd3zonfz
p6308
I1
sVd8xhc3o
p6309
I1
sVdkki72z
p6310
I1
sVd27qqz9
p6311
I1
sVdhrk3oq
p6312
I1
sVcys84fx
p6313
I2
sVd4r4aoj
p6314
I1
sVd55wv8h
p6315
I1
sVd7g8ar5
p6316
I1
sVdo5d0wr
p6317
I1
sVdqw6r7a
p6318
I2
sVdif2mir
p6319
I1
sVdb19ev1
p6320
I1
sVdpp065f
p6321
I1
sVd2k2qvb
p6322
I1
sVddumlth
p6323
I1
sVdczvyd9
p6324
I1
sVds6616m
p6325
I1
sVdfrsrk5
p6326
I1
sVdsvvafy
p6327
I1
sVd1wwmlx
p6328
I1
sVd01u5a2
p6329
I1
sVdcntrh9
p6330
I1
sVd38yvfe
p6331
I1
sVdk9glfq
p6332
I2
sVd6q8uzm
p6333
I1
sVdskv5sg
p6334
I1
sVd3ffffp
p6335
I2
sVdht00xl
p6336
I1
sVdfbxj3g
p6337
I1
sVd6rh8j7
p6338
I3
sVd8ppunf
p6339
I1
sVdp6fwfq
p6340
I1
sVd4a44ri
p6341
I1
sVd3md3s5
p6342
I6
sVd86x54s
p6343
I1
sVdfj8fyk
p6344
I2
sVd6lq95d
p6345
I1
sVd0pref5
p6346
I10
sVd3xohcr
p6347
I1
sVcywpf7d
p6348
I1
sVdgcu6t1
p6349
I2
sVdnqt8cy
p6350
I1
sVd3d04gc
p6351
I1
sVd1rvfh5
p6352
I3
sVdskrunl
p6353
I1
sVdsjcb2m
p6354
I1
sVdstuvqg
p6355
I3
sVd7le4f7
p6356
I1
sVd9ycmjd
p6357
I1
sVdeclr48
p6358
I2
sVdd81jq0
p6359
I2
sVdksldi1
p6360
I1
sVdar00tp
p6361
I1
sVczxgqfp
p6362
I2
sVdc6xu46
p6363
I3
sVcyohlmw
p6364
I2
sVdojk82o
p6365
I4
sVd31o2r2
p6366
I1
sVdh6nch2
p6367
I1
sVdh3wm2y
p6368
I2
sVd6b8i16
p6369
I1
sVd0op2n5
p6370
I1
sVdj0lodk
p6371
I1
sVdrqmio8
p6372
I3
sVdj77w11
p6373
I1
sVczxbyph
p6374
I1
sVczotjeh
p6375
I2
sVdr25xrz
p6376
I3
sVd48k8qb
p6377
I1
sVdd0l0y5
p6378
I1
sVdb6rtb0
p6379
I1
sVdn9blxk
p6380
I1
sVdfr23tb
p6381
I1
sVd8xbvjl
p6382
I1
sVd8bm5tx
p6383
I3
sVdpwic3r
p6384
I1
sVdcsnnzx
p6385
I1
sVcyig0pv
p6386
I1
sVdhvg4hj
p6387
I1
sVczl100z
p6388
I2
sVczzwwjj
p6389
I3
sVdjjgptb
p6390
I1
sVd018w7j
p6391
I1
sVd6n39x4
p6392
I1
sVdicnuug
p6393
I1
sVdq4hnqz
p6394
I1
sVdopszby
p6395
I1
sVd8fz95j
p6396
I1
sVdgqkpcc
p6397
I1
sVda5gdwy
p6398
I1
sVd0p6517
p6399
I1
sVdbpiya3
p6400
I1
sVd1qcdrc
p6401
I1
sVcz25yya
p6402
I1
sVdtgmequ
p6403
I2
sVdjhoqjq
p6404
I1
sVd2zugsy
p6405
I1
sVdrervw6
p6406
I1
sVdi0m203
p6407
I1
sVdaby08v
p6408
I1
sVdfc8fkt
p6409
I2
sVdgl6ogd
p6410
I1
sVd4wzrsj
p6411
I1
sVdtdaii2
p6412
I1
sVdqgkerk
p6413
I1
sVdcr8kk8
p6414
I1
sVda16iu7
p6415
I1
sVdnxr1wq
p6416
I1
sVdmendp4
p6417
I1
sVdj0opd7
p6418
I1
sVdoewrc1
p6419
I1
sVdphltqt
p6420
I2
sVdbvq97k
p6421
I1
sVd2abknv
p6422
I1
sVd2q7yj5
p6423
I1
sVczhxpc3
p6424
I1
sVd0bu3ab
p6425
I1
sVczznoxi
p6426
I1
sVd0kl9aw
p6427
I1
sVd7z5eym
p6428
I7
sVdfrjulk
p6429
I3
sVdhf7axg
p6430
I1
sVd5dqzws
p6431
I2
sVd4gr56k
p6432
I1
sVd3t7hss
p6433
I3
sVd3s4eqw
p6434
I1
sVd63vcfc
p6435
I17
sVdd7shaz
p6436
I1
sVdfg9o8c
p6437
I1
sVd4au4jh
p6438
I1
sVdmvliz8
p6439
I1
sVdqu1654
p6440
I1
sVcz2bfgw
p6441
I1
sVdebf0xa
p6442
I1
sVddxp52c
p6443
I2
sVd0bti1s
p6444
I1
sVd9qte1x
p6445
I1
sVdmiu3m5
p6446
I1
sVdmic3rz
p6447
I2
sVdti876l
p6448
I1
sVczl6eaf
p6449
I2
sVd7lrmd2
p6450
I1
sVd62buzl
p6451
I1
sVczosnll
p6452
I1
sVds83ytc
p6453
I1
sVdqa7pn0
p6454
I1
sVcymulbf
p6455
I1
sVd242lf8
p6456
I1
sVdqzn2dl
p6457
I5
sVdq2ucm8
p6458
I1
sVd1w0z7u
p6459
I1
sVdh951cz
p6460
I2
sVdcbg5bc
p6461
I4
sVd6pfr9t
p6462
I2
sVd2emfpp
p6463
I1
sVd2c49ui
p6464
I1
sVd19rjx0
p6465
I1
sVd9fkvpw
p6466
I1
sVd53e1eb
p6467
I1
sVd64m7u8
p6468
I1
sVd92qrg7
p6469
I1
sVd519yjx
p6470
I1
sVd1qg74b
p6471
I1
sVd0ch7ku
p6472
I1
sVd1sfvgp
p6473
I1
sVdppbj0m
p6474
I1
sVdrcyten
p6475
I1
sVd1h7kzi
p6476
I2
sVdk4w4gs
p6477
I1
sVdt4dsoe
p6478
I1
sVdr5wjhx
p6479
I1
sVd639l1w
p6480
I3
sVdqt0ohj
p6481
I2
sVdn2u511
p6482
I1
sVdalkerf
p6483
I4
sVdrc6thh
p6484
I2
sVdplca6x
p6485
I1
sVczypcll
p6486
I1
sVd8oax4t
p6487
I1
sVd342wtj
p6488
I1
sVd8yem0c
p6489
I1
sVdq1gwp8
p6490
I2
sVd3zek9u
p6491
I2
sVdivw9x4
p6492
I1
sVd4dtz3w
p6493
I2
sVczh7tgt
p6494
I1
sVdgabunc
p6495
I1
sVdsui86a
p6496
I3
sVcyubao6
p6497
I1
sVdp6buna
p6498
I3
sVd68x1y2
p6499
I1
sVdjhv0l1
p6500
I1
sVddivbdu
p6501
I6
sVdbvr6ue
p6502
I1
sVd4f306f
p6503
I1
sVdq37z8y
p6504
I1
sVdn3z4sv
p6505
I1
sVdqw788r
p6506
I1
sVd5jnd06
p6507
I1
sVddw82xa
p6508
I1
sVdnw7o11
p6509
I1
sVd2fkho3
p6510
I1
sVd0xphm1
p6511
I1
sVdgmzgpz
p6512
I2
sVd51x4yf
p6513
I1
sVd9r5ubu
p6514
I1
sVd64r3ts
p6515
I1
sVd2e8zqw
p6516
I3
sVczcbasl
p6517
I2
sVdhf1wwl
p6518
I1
sVd14deav
p6519
I3
sVczpvbbe
p6520
I1
sVd6ylk5n
p6521
I1
sVd2edit6
p6522
I1
sVdqxzmae
p6523
I1
sVcylhvx0
p6524
I1
sVdi7bpjt
p6525
I1
sVddcw1e6
p6526
I1
sVdhoor1l
p6527
I1
sVd20jz7r
p6528
I1
sVdk79zdk
p6529
I1
sVcz6760o
p6530
I1
sVd28krd3
p6531
I2
sVdhgksar
p6532
I1
sVde38ukw
p6533
I2
sVdgewglp
p6534
I2
sVdt4fh7w
p6535
I2
sVdks0gkg
p6536
I3
sVdrowagz
p6537
I2
sVdqm8yfy
p6538
I1
sVdrrvyly
p6539
I1
sVd7nek9u
p6540
I1
sVd7uasox
p6541
I2
sVd0y44y3
p6542
I1
sVdiw3lzu
p6543
I2
sVdbzs3bt
p6544
I2
sVdivchjp
p6545
I2
sVdt8ogj0
p6546
I2
sVd92r4nw
p6547
I2
sVdicciqv
p6548
I3
sVczdo5e3
p6549
I1
sVd4zx1fd
p6550
I1
sVd9nh5id
p6551
I3
sVd6ix57v
p6552
I1
sVdd7z7kh
p6553
I1
sVdckaero
p6554
I2
sVdczm9tb
p6555
I1
sVd68rtj7
p6556
I1
sVd1jvo85
p6557
I1
sVdqpwah1
p6558
I2
sVd4zsqxl
p6559
I1
sVdidpb37
p6560
I1
sVdokfqth
p6561
I1
sVd3w2zra
p6562
I1
sVd1aenlu
p6563
I1
sVd1zrtty
p6564
I1
sVdjw5lx9
p6565
I1
sVdo1ayed
p6566
I1
sVdfe740l
p6567
I1
sVd47y396
p6568
I1
sVdga9ulg
p6569
I1
sVd46tded
p6570
I1
sVdnquj5y
p6571
I1
sVdb88swb
p6572
I1
sVd4ztqgr
p6573
I3
sVd3b5is0
p6574
I1
sVdarov4i
p6575
I1
sVdf2dzfa
p6576
I2
sVd1y3s26
p6577
I1
sVda94cog
p6578
I1
sVd884ycj
p6579
I1
sVczjan0p
p6580
I5
sVdiuqyjf
p6581
I1
sVdabixmj
p6582
I2
sVdcxgshw
p6583
I3
sVdrzr2yd
p6584
I2
sVd636ebv
p6585
I1
sVd5zxego
p6586
I2
sVd001f6c
p6587
I3
sVdqpyr6y
p6588
I1
sVdbwst39
p6589
I1
sVd8fae50
p6590
I1
sVd6v4k6z
p6591
I2
sVd90llvk
p6592
I1
sVd36nwiq
p6593
I2
sVdakqp3l
p6594
I3
sVdctedg7
p6595
I1
sVd97x4ai
p6596
I1
sVdhpepxk
p6597
I1
sVdag71b7
p6598
I4
sVd1bmx3l
p6599
I1
sVdrrwxmp
p6600
I1
sVdc7rkz1
p6601
I1
sVd0a1ave
p6602
I1
sVdfg11hv
p6603
I2
sVd8syqbe
p6604
I2
sVdr3lg4b
p6605
I1
sVd7uxmpm
p6606
I1
sVd9v1sy4
p6607
I1
sVd2bfy1i
p6608
I1
sVde1egkk
p6609
I1
sVd8wyldg
p6610
I2
sVd741os9
p6611
I1
sVdbkxofq
p6612
I2
sVdgsbr9z
p6613
I1
sVd9fgce2
p6614
I1
sVdcaotl6
p6615
I1
sVd9t00v6
p6616
I1
sVdolqsk8
p6617
I2
sVd5vgjj9
p6618
I2
sVd2kjpwa
p6619
I1
sVd2fbfzo
p6620
I1
sVdi2fxex
p6621
I1
sVd0sr9go
p6622
I1
sVczz0gv4
p6623
I1
sVd8jks0y
p6624
I1
sVczs3tft
p6625
I1
sVdasm8qo
p6626
I1
sVd33xxn8
p6627
I1
sVczpnh5b
p6628
I1
sVd1xvsyb
p6629
I1
sVd9ag01u
p6630
I2
sVdhp2b08
p6631
I1
sVddh7guo
p6632
I3
sVd2per5b
p6633
I1
sVd0w5n39
p6634
I2
sVdcvnmn3
p6635
I1
sVd0ig0k7
p6636
I1
sVdcbgsi7
p6637
I2
sVdbgaf31
p6638
I2
sVdh0kel5
p6639
I1
sVd9dy9rk
p6640
I1
sVdnkbhlg
p6641
I2
sVczy8etp
p6642
I1
sVdb5dloy
p6643
I1
sVdbazqn9
p6644
I1
sVd15xrln
p6645
I1
sVdj265pb
p6646
I1
sVddnc52k
p6647
I1
sVde3wf2c
p6648
I1
sVdae2f3q
p6649
I1
sVdqixnzd
p6650
I2
sVdh20gcy
p6651
I1
sVdee2fdl
p6652
I1
sVd6xmr2y
p6653
I1
sVd3jbq49
p6654
I1
sVdf33is9
p6655
I1
sVd3kgi5i
p6656
I2
sVded9hk8
p6657
I1
sVd7m675u
p6658
I1
sVd2x4kmh
p6659
I2
sVd0tyrf1
p6660
I1
sVd1cwjkj
p6661
I1
sVdfcfmed
p6662
I1
sVd82t06z
p6663
I4
sVdr3a5gb
p6664
I1
sVdbdrsyv
p6665
I1
sVcyj48iu
p6666
I2
sVd7c7bvm
p6667
I1
sVd1w5rh5
p6668
I1
sVdcr5j0h
p6669
I1
sVdor7rux
p6670
I1
sVdirnwev
p6671
I1
sVd0ul1sx
p6672
I4
sVd3z9rzb
p6673
I1
sVdgfgceg
p6674
I2
sVd83zkpf
p6675
I3
sVdfsyc18
p6676
I1
sVdanyy84
p6677
I1
sVd7rekhk
p6678
I1
sVdn37tcv
p6679
I1
sVdexva3z
p6680
I1
sVd2u4yai
p6681
I1
sVd9l5ke2
p6682
I1
sVdpt9g0e
p6683
I1
sVdjfmyz1
p6684
I1
sVd4nbr3d
p6685
I1
sVdd49ovv
p6686
I1
sVd6ee4ii
p6687
I1
sVcztuckh
p6688
I2
sVdkfjodz
p6689
I1
sVdjb7rw9
p6690
I1
sVdk7k3ie
p6691
I1
sVdikjtcj
p6692
I1
sVd1o1vda
p6693
I1
sVd35f29a
p6694
I1
sVdmou70u
p6695
I4
sVd4j88iw
p6696
I1
sVdsib3wq
p6697
I1
sVdcn3qnd
p6698
I1
sVd03928h
p6699
I1
sVdo735l2
p6700
I4
sVd8ep23d
p6701
I1
sVdnwl3wh
p6702
I1
sVdokilb7
p6703
I1
sVdcna6d9
p6704
I2
sVdc5vw7m
p6705
I1
sVdj3iuy4
p6706
I1
sVd9cwmor
p6707
I1
sVdg98byk
p6708
I1
sVdp9l6x4
p6709
I5
sVdab0omp
p6710
I1
sVdt4f2y2
p6711
I2
sVdfzoihq
p6712
I1
sVd833zay
p6713
I1
sVdpvoufw
p6714
I2
sVd9oy7wg
p6715
I2
sVdnuq7sb
p6716
I1
sVdolblla
p6717
I1
sVdiil82x
p6718
I1
sVdd94h1c
p6719
I1
sVd4x4yjy
p6720
I1
sVdd4qr9v
p6721
I1
sVdd58f1h
p6722
I1
sVdk1rl3g
p6723
I1
sVdj8e3vc
p6724
I3
sVd9t5klg
p6725
I1
sVdjz9wcf
p6726
I1
sVdnxla0l
p6727
I1
sVd84qdmt
p6728
I2
sVd0en83y
p6729
I1
sVdnxvke5
p6730
I1
sVd8c2zes
p6731
I2
sVdjtauft
p6732
I4
sVcz8luq4
p6733
I1
sVddbao2f
p6734
I1
sVd78jhzy
p6735
I2
sVd9ujlgb
p6736
I3
sVdamo2qw
p6737
I1
sVdg4e3xm
p6738
I3
sVdt8wg8e
p6739
I2
sVdg3i5h9
p6740
I2
sVd89bv68
p6741
I1
sVdsnu5zf
p6742
I1
sVd3zvfwr
p6743
I2
sVdfk6qn3
p6744
I1
sVdp80kyu
p6745
I1
sVd6t1yog
p6746
I1
sVd4bcipl
p6747
I2
sVdhq3im7
p6748
I1
sVd6f7e64
p6749
I13
sVdhk30sz
p6750
I1
sVdhiumfn
p6751
I1
sVddi42kk
p6752
I1
sVd56ilpv
p6753
I3
sVd0nudc9
p6754
I2
sVda5dm5s
p6755
I1
sVdol2v0i
p6756
I6
sVd3acd3n
p6757
I2
sVd0r2md0
p6758
I1
sVdc8dv1n
p6759
I2
sVcz6fa13
p6760
I1
sVdr16ex3
p6761
I1
sVdms5465
p6762
I1
sVdprze5s
p6763
I1
sVdrvpisp
p6764
I1
sVd0794gq
p6765
I1
sVcyj1cg3
p6766
I1
sVd48hsmv
p6767
I2
sVd92ms8j
p6768
I1
sVdt9ppyi
p6769
I1
sVd55u179
p6770
I1
sVdd3vzer
p6771
I1
sVdajghcl
p6772
I1
sVdn291yo
p6773
I2
sVdqpyxiu
p6774
I1
sVdrhmsat
p6775
I2
sVcyrfbxz
p6776
I2
sVde4q1vd
p6777
I1
sVd8g7mde
p6778
I1
sVczafxao
p6779
I1
sVdstgk14
p6780
I2
sVde5qv01
p6781
I1
sVcyxwxdl
p6782
I1
sVdji43tb
p6783
I2
sVdg4200s
p6784
I2
sVd7qwyf3
p6785
I3
sVdt4jfe0
p6786
I1
sVdig5c6o
p6787
I1
sVd8qu4kw
p6788
I1
sVdtiqkq9
p6789
I2
sVdh3tlq5
p6790
I5
sVd4ckfjl
p6791
I3
sVd6l1o06
p6792
I1
sVdctanuh
p6793
I1
sVdms0io3
p6794
I2
sVdhp0ym8
p6795
I1
sVd1iq11j
p6796
I1
sVd8gc4fv
p6797
I2
sVd3i7dgg
p6798
I1
sVdky9g3r
p6799
I2
sVd81g8ol
p6800
I1
sVd14e084
p6801
I1
sVd484vvj
p6802
I2
sVdhu3mhd
p6803
I1
sVd6kdgrh
p6804
I1
sVczabgbl
p6805
I1
sVdhwd63n
p6806
I1
sVdodf712
p6807
I1
sVdsnasno
p6808
I1
sVd33f7or
p6809
I1
sVdeen3fz
p6810
I2
sVdi1irqh
p6811
I1
sVdacciw4
p6812
I1
sVdfz3w91
p6813
I1
sVdbaszmy
p6814
I1
sVdrnk50l
p6815
I1
sVd07n2tj
p6816
I1
sVdftsiua
p6817
I1
sVd5hx2ew
p6818
I4
sVd3d45i2
p6819
I1
sVd1mk4bv
p6820
I1
sVdr3t6x5
p6821
I1
sVd76qycy
p6822
I1
sVdac0wc2
p6823
I1
sVd4u1a1o
p6824
I1
sVd30idcn
p6825
I5
sVddykij8
p6826
I1
sVd477sd8
p6827
I3
sVd08co4p
p6828
I1
sVdkft57k
p6829
I1
sVdic5vkm
p6830
I1
sVd7g8ii4
p6831
I3
sVd04og1c
p6832
I1
sVd6bieq3
p6833
I1
sVdk673yy
p6834
I1
sVdk6xki0
p6835
I2
sVdfa5qat
p6836
I1
sVcywrowi
p6837
I1
sVd78i1ie
p6838
I1
sVdh697au
p6839
I1
sVdc7xzmp
p6840
I2
sVdoiq6tr
p6841
I1
sVdh86qb4
p6842
I1
sVd1wr52i
p6843
I1
sVd3tzede
p6844
I3
sVd19urti
p6845
I1
sVdifsoti
p6846
I2
sVd9zzuv0
p6847
I2
sVdth5pse
p6848
I1
sVd4j5jz0
p6849
I3
sVd5rlzpr
p6850
I1
sVd3dtrtg
p6851
I1
sVd9nd444
p6852
I1
sVd2fz57p
p6853
I1
sVdk30opl
p6854
I1
sVdqnobip
p6855
I2
sVdfdjvau
p6856
I2
sVdfc784s
p6857
I1
sVd7vbn1v
p6858
I1
sVcyozy8q
p6859
I1
sVdki8vum
p6860
I1
sVcz2r7cz
p6861
I2
sVd0decci
p6862
I1
sVd53wf2z
p6863
I1
sVd20x0q4
p6864
I1
sVda0r0do
p6865
I1
sVdqcc31h
p6866
I1
sVcyp78mi
p6867
I1
sVdelcize
p6868
I1
sVd8nawro
p6869
I4
sVd5i75i4
p6870
I1
sVczrr2ml
p6871
I1
sVdi9nz84
p6872
I1
sVcyx5ms7
p6873
I2
sVd07g315
p6874
I1
sVdksn7f0
p6875
I2
sVczbjbih
p6876
I1
sVdb54az9
p6877
I1
sVdh0g8mj
p6878
I1
sVdrfo1pa
p6879
I2
sVdk362t1
p6880
I2
sVd057izc
p6881
I1
sVd58je7a
p6882
I1
sVd8kjqb1
p6883
I1
sVdnbo39u
p6884
I1
sVdcqzwf0
p6885
I1
sVdjox0kz
p6886
I1
sVdepr4o3
p6887
I1
sVd6tarcm
p6888
I1
sVdbimsbc
p6889
I2
sVdbb54bl
p6890
I1
sVdrrbl6k
p6891
I2
sVdb9eukw
p6892
I2
sVdgn4244
p6893
I1
sVdbpfqub
p6894
I1
sVczkyd05
p6895
I1
sVdst3ajs
p6896
I1
sVd0yzg2z
p6897
I1
sVdthf6ha
p6898
I2
sVddm93a4
p6899
I1
sVdgcjuis
p6900
I1
sVddwiusp
p6901
I1
sVd0eqjyt
p6902
I1
sVd4txmw2
p6903
I1
sVcyr36fa
p6904
I1
sVdbj1wn3
p6905
I1
sVd4c78r2
p6906
I1
sVd6zb106
p6907
I1
sVd3qx013
p6908
I2
sVdpctarj
p6909
I1
sVd5jr7s2
p6910
I1
sVd9h1ss6
p6911
I3
sVd0fcirg
p6912
I1
sVdpnegtg
p6913
I1
sVdo9slm8
p6914
I1
sVcz6r7bq
p6915
I1
sVdq05ock
p6916
I1
sVdswazwg
p6917
I1
sVdimkhhx
p6918
I1
sVdfs9h4p
p6919
I6
sVdnta7or
p6920
I1
sVddhkclv
p6921
I1
sVdgxejvx
p6922
I1
sVd55w18h
p6923
I3
sVdasad21
p6924
I2
sVd3w3jvr
p6925
I2
sVdguum1v
p6926
I1
sVdpgxkdd
p6927
I1
sVdo8x23t
p6928
I1
sVdc7rsd7
p6929
I2
sVdohr20s
p6930
I3
sVds6z97z
p6931
I1
sVdb21z9h
p6932
I1
sVcz5q1mf
p6933
I2
sVd5r7gaf
p6934
I1
sVdtf9fj4
p6935
I1
sVdb9mskm
p6936
I1
sVdpiwqpz
p6937
I1
sVd232ox1
p6938
I2
sVd2j1548
p6939
I3
sVd29l4rn
p6940
I1
sVd66irgz
p6941
I1
sVd6rer7x
p6942
I3
sVdfrhmam
p6943
I1
sVd1gore9
p6944
I3
sVdi0czmj
p6945
I1
sVdpxnhw4
p6946
I1
sVdnftwds
p6947
I2
sVd536z38
p6948
I1
sVdorlfdi
p6949
I1
sVdkpsl88
p6950
I1
sVdbrsdji
p6951
I2
sVd3nuve0
p6952
I1
sVd3aybjq
p6953
I2
sVd5njua2
p6954
I1
sVdhq1c0q
p6955
I1
sVdp67pec
p6956
I1
sVd6ht7s1
p6957
I1
sVd39rmfm
p6958
I1
sVczrn3js
p6959
I1
sVdgg0tsz
p6960
I1
sVd8b9yp1
p6961
I1
sVdmfdjyx
p6962
I2
sVczv71cg
p6963
I1
sVd31g1st
p6964
I1
sVdil1hoi
p6965
I1
sVdet6hmq
p6966
I1
sVdgb31ya
p6967
I1
sVdfh55n6
p6968
I1
sVd25487b
p6969
I1
sVd2y5gxu
p6970
I1
sVd0xcyqn
p6971
I1
sVdb5gh4m
p6972
I1
sVd9ae9vp
p6973
I1
sVd1uprln
p6974
I1
sVds5bk3v
p6975
I1
sVd0t8eu8
p6976
I2
sVdnhut5f
p6977
I2
sVd78bqxu
p6978
I1
sVd61s68r
p6979
I1
sVd32gsag
p6980
I4
sVd6273bp
p6981
I2
sVdh7ksw2
p6982
I2
sVd62ucja
p6983
I1
sVdf0ybsz
p6984
I7
sVde0oj21
p6985
I1
sVdjqn99s
p6986
I2
sVdbdtwnx
p6987
I2
sVdbyxat4
p6988
I3
sVd3eg57r
p6989
I1
sVddzvphs
p6990
I1
sVd6jwbn0
p6991
I2
sVd9yt0zj
p6992
I1
sVd7sn9yi
p6993
I1
sVd1m1oby
p6994
I1
sVdri78eo
p6995
I2
sVdsj4zt2
p6996
I1
sVd0emxis
p6997
I1
sVdpv9nim
p6998
I1
sVd4b0km1
p6999
I1
sVd62e7tb
p7000
I1
sVdd6uojj
p7001
I1
sVdkjh789
p7002
I1
sVdcqkprg
p7003
I5
sVd5px7v1
p7004
I1
sVd9bbme9
p7005
I1
sVd9f08ta
p7006
I2
sVdaphgz8
p7007
I2
sVd8xcfj4
p7008
I1
sVd0178rr
p7009
I1
sVd3f46nq
p7010
I1
sVds5ce34
p7011
I1
sVd8c9f9w
p7012
I1
sVd7xswdz
p7013
I3
sVd1mnbjp
p7014
I1
sVd8tl5ko
p7015
I1
sVd60s78j
p7016
I1
sVdg9vrcl
p7017
I1
sVcykn4ar
p7018
I1
sVdh2h0wu
p7019
I3
sVdo3fnht
p7020
I1
sVdgxsgvy
p7021
I3
sVcz9ntdn
p7022
I1
sVd1d9sed
p7023
I1
sVdp6h6br
p7024
I1
sVdth3uld
p7025
I2
sVdccqo0e
p7026
I2
sVdpglvpm
p7027
I1
sVd6ldoit
p7028
I1
sVdd4ofe8
p7029
I3
sVcz1frdc
p7030
I1
sVdp20idn
p7031
I1
sVdkkin9i
p7032
I2
sVd173y9q
p7033
I1
sVd48dzo4
p7034
I1
sVd00633l
p7035
I1
sVddi4xmc
p7036
I2
sVdgrnpys
p7037
I1
sVdb09atc
p7038
I1
sVdb72qzv
p7039
I1
sVcytwr7j
p7040
I1
sVdq9fz6y
p7041
I1
sVd7upcj4
p7042
I1
sVdofsbtv
p7043
I1
sVdtip9p7
p7044
I3
sVd4mk7v0
p7045
I1
sVd9v36v0
p7046
I2
sVdeu3ikg
p7047
I1
sVd5uwwtf
p7048
I1
sVdghxtd0
p7049
I2
sVd2jub0r
p7050
I2
sVdq5aibv
p7051
I1
sVdmmf0pw
p7052
I1
sVcz1szok
p7053
I1
sVczswrjl
p7054
I1
sVcz8loin
p7055
I1
sVd3ppdcb
p7056
I1
sVcysbqfb
p7057
I3
sVdbcqdd3
p7058
I1
sVdkihkqn
p7059
I3
sVdsioac4
p7060
I1
sVdp813ki
p7061
I1
sVdml5d7f
p7062
I1
sVd5qcjh3
p7063
I1
sVdqo1g28
p7064
I2
sVdh7yju0
p7065
I2
sVdnjimp2
p7066
I2
sVd7m1vhu
p7067
I3
sVd10sh9h
p7068
I1
sVdqiy2fo
p7069
I1
sVcywdnu5
p7070
I2
sVdt8ftpk
p7071
I1
sVd9gh0h4
p7072
I1
sVd1vrjje
p7073
I1
sVdge5z8n
p7074
I1
sVdnmwmah
p7075
I1
sVd18z6h9
p7076
I1
sVdgabzt9
p7077
I1
sVdag4iyv
p7078
I1
sVd6v45fk
p7079
I1
sVdnp9hkc
p7080
I1
sVdaij90q
p7081
I1
sVd1smxqm
p7082
I2
sVdqqkl29
p7083
I1
sVd1ggeu7
p7084
I1
sVd12d47o
p7085
I1
sVd3mvcq2
p7086
I1
sVdhiwknd
p7087
I1
sVdhvjyo5
p7088
I1
sVd3jq3ge
p7089
I1
sVdc5e298
p7090
I1
sVdapnnua
p7091
I2
sVd128kvf
p7092
I1
sVdifcxvn
p7093
I1
sVcyzhtsw
p7094
I2
sVdhcokxv
p7095
I1
sVdi6yen1
p7096
I1
sVd3apmxa
p7097
I1
sVdd4p8de
p7098
I1
sVd3asy9p
p7099
I1
sVd1dyigw
p7100
I2
sVdi2f1qi
p7101
I1
sVdfgi3ws
p7102
I1
sVdik3ksg
p7103
I2
sVdawagnl
p7104
I1
sVdaslvii
p7105
I2
sVd6le39j
p7106
I1
sVd87sdhs
p7107
I4
sVd7jobl1
p7108
I1
sVdc2p9ra
p7109
I1
sVdsgonmy
p7110
I1
sVdtditxo
p7111
I1
sVdr0qqwf
p7112
I1
sVdp0aqgf
p7113
I2
sVdancslg
p7114
I1
sVdnqibni
p7115
I1
sVdryqeim
p7116
I4
sVd5z1whm
p7117
I1
sVd2wwf91
p7118
I1
sVdhbsx04
p7119
I1
sVd9kelj4
p7120
I1
sVdqe3hdd
p7121
I1
sVd8x90yi
p7122
I3
sVdp4s534
p7123
I1
sVczblded
p7124
I1
sVdija2fu
p7125
I1
sVd1nz30h
p7126
I1
sVdexgfv0
p7127
I2
sVcyqk9xu
p7128
I1
sVd63mx0u
p7129
I1
sVdpt2ha4
p7130
I1
sVd8yvgix
p7131
I1
sVd38fstz
p7132
I1
sVd4rkcg2
p7133
I3
sVd58umd9
p7134
I1
sVdgp3gj5
p7135
I1
sVdgmvoza
p7136
I1
sVdpozskq
p7137
I1
sVd5ylt2b
p7138
I2
sVdi6dwra
p7139
I2
sVd4d81y5
p7140
I1
sVd3p2dnx
p7141
I1
sVde95fmr
p7142
I1
sVd4r4245
p7143
I2
sVd4qq8hp
p7144
I1
sVd68p2ye
p7145
I1
sVdmu0nxh
p7146
I3
sVdku6nee
p7147
I1
sVda968ew
p7148
I1
sVd2u55uw
p7149
I1
sVdt2v1zr
p7150
I1
sVdifqoeb
p7151
I1
sVdddrpwz
p7152
I1
sVd2nmp9d
p7153
I1
sVde9o470
p7154
I2
sVd9vahxb
p7155
I1
sVdenxr59
p7156
I1
sVdclxkvt
p7157
I1
sVd7byq4w
p7158
I1
sVcyjexcx
p7159
I1
sVdf7xvtt
p7160
I1
sVcykduwu
p7161
I1
sVdg4a7vv
p7162
I1
sVd99cp1u
p7163
I1
sVd354rso
p7164
I1
sVde3etnm
p7165
I1
sVczwylnt
p7166
I1
sVdjwhdlx
p7167
I1
sVdmvryk7
p7168
I1
sVdduvd79
p7169
I1
sVdohz2vg
p7170
I1
sVddwnr7y
p7171
I1
sVddsyvzv
p7172
I1
sVd5zaxqb
p7173
I1
sVd5gcbuw
p7174
I1
sVdik2yux
p7175
I4
sVdi03upo
p7176
I1
sVdfrg3ax
p7177
I1
sVdelo25a
p7178
I1
sVdbkrdmi
p7179
I1
sVdosp2dj
p7180
I2
sVdoe5ep5
p7181
I6
sVdr1t3db
p7182
I2
sVd13zm5h
p7183
I1
sVd4ysb1o
p7184
I1
sVd8daxku
p7185
I1
sVdbh183q
p7186
I2
sVdbr6g7y
p7187
I1
sVcyxz1tw
p7188
I1
sVd0r4juv
p7189
I1
sVd0b5l1u
p7190
I1
sVd6uhpi7
p7191
I1
sVdgiv6n0
p7192
I2
sVdkjuryi
p7193
I3
sVddiyasr
p7194
I1
sVd0pp7gm
p7195
I1
sVdoo7qyo
p7196
I1
sVdhytona
p7197
I1
sVdi2c9fw
p7198
I1
sVd7yhhpc
p7199
I1
sVd54e5l5
p7200
I4
sVdes4f9b
p7201
I1
sVdcjx82s
p7202
I1
sVdfryosl
p7203
I1
sVd848ocs
p7204
I2
sVczmfihq
p7205
I2
sVdqr57qk
p7206
I1
sVdnh1kzv
p7207
I4
sVd7e9ep8
p7208
I1
sVdn0eh9y
p7209
I2
sVcyx54dv
p7210
I1
sVd85ys55
p7211
I2
sVdcdpsj8
p7212
I4
sVdfgtrhq
p7213
I2
sVdk8s0gt
p7214
I1
sVcymj48q
p7215
I1
sVd0ua98n
p7216
I5
sVd4nem87
p7217
I1
sVdce9iq8
p7218
I1
sVd15x0ai
p7219
I2
sVcz10iln
p7220
I1
sVdmg42vz
p7221
I1
sVd40127j
p7222
I6
sVdtgxcqt
p7223
I3
sVdj4c7p6
p7224
I1
sVd483ots
p7225
I1
sVd4nz8ld
p7226
I2
sVd2paqem
p7227
I1
sVd3f8wdm
p7228
I1
sVdgfoqbo
p7229
I1
sVd1voiro
p7230
I1
sVdpqer3x
p7231
I1
sVdoc2xil
p7232
I1
sVdpu239j
p7233
I2
sVd0ha6mz
p7234
I1
sVdeq2kv6
p7235
I1
sVdil2w88
p7236
I2
sVd0ji53e
p7237
I1
sVdhir7h7
p7238
I1
sVdg4cpwj
p7239
I2
sVdafc3ym
p7240
I1
sVd4bp936
p7241
I1
sVd06ssyf
p7242
I1
sVd6jc8ad
p7243
I1
sVd60c2mn
p7244
I1
sVd7sojre
p7245
I1
sVd0hk6z1
p7246
I3
sVd05q7eo
p7247
I1
sVd6uetwk
p7248
I1
sVdn3gj46
p7249
I1
sVd78wrok
p7250
I1
sVd0xkp77
p7251
I1
sVd208ua1
p7252
I1
sVds8drxq
p7253
I1
sVd0teba7
p7254
I1
sVd2ta0ph
p7255
I2
sVdt84sc7
p7256
I1
sVd6kqvet
p7257
I1
sVd9qesgb
p7258
I1
sVd50hm90
p7259
I1
sVd2ruhyl
p7260
I2
sVd8w4fop
p7261
I1
sVdkkna68
p7262
I1
sVdf46ihh
p7263
I1
sVds1kpk2
p7264
I1
sVdn4e2s3
p7265
I3
sVdjadtgn
p7266
I1
sVdfd06tr
p7267
I1
sVdc0xpl1
p7268
I1
sVd76l3sx
p7269
I2
sVdbs8bu6
p7270
I1
sVczu4cxq
p7271
I1
sVd1xa8ig
p7272
I1
sVdd0m0fg
p7273
I1
sVdety4ta
p7274
I1
sVd7ket3f
p7275
I1
sVdfp6iwa
p7276
I2
sVdhrcj0q
p7277
I1
sVdh009cf
p7278
I4
sVd99x83s
p7279
I1
sVd6ftefq
p7280
I1
sVd0yixow
p7281
I3
sVd6k30bw
p7282
I1
sVdftoyyl
p7283
I1
sVd1pajug
p7284
I1
sVdhs28id
p7285
I4
sVd1fjl8f
p7286
I2
sVdk9pe6y
p7287
I3
sVdcufj7r
p7288
I1
sVd8f49qj
p7289
I1
sVdfiyli7
p7290
I2
sVcz5s22z
p7291
I2
sVdnbyeap
p7292
I1
sVdh0vhq2
p7293
I1
sVdepz3bm
p7294
I1
sVddv6o5l
p7295
I1
sVd60av8h
p7296
I1
sVdnznmen
p7297
I1
sVd6n2aeh
p7298
I1
sVd8vf5t5
p7299
I1
sVdbu8dnu
p7300
I1
sVdeemr92
p7301
I1
sVdp0al9k
p7302
I1
sVdo9oiz3
p7303
I1
sVdkpvvkz
p7304
I1
sVd19orzn
p7305
I1
sVdsiv05g
p7306
I1
sVdfpg5el
p7307
I1
sVdodguxa
p7308
I2
sVczqj1m3
p7309
I1
sVczx5dt4
p7310
I1
sVd4hbi0t
p7311
I1
sVdasv0oc
p7312
I1
sVd1bxjgz
p7313
I1
sVd0p4dsv
p7314
I1
sVd6filzg
p7315
I2
sVdfopihi
p7316
I2
sVdhgpwyo
p7317
I1
sVdr14h4o
p7318
I5
sVdrks168
p7319
I3
sVdb5e9h3
p7320
I1
sVcyrf4fo
p7321
I1
sVd5603wf
p7322
I1
sVdsnnws8
p7323
I1
sVd2sm2m8
p7324
I1
sVd16d1n2
p7325
I1
sVdmup0pd
p7326
I1
sVda2eehu
p7327
I1
sVcyzdeu0
p7328
I1
sVdt6uex3
p7329
I1
sVdpta0p2
p7330
I2
sVdh6upoy
p7331
I4
sVd2qf4jc
p7332
I1
sVd97lxf8
p7333
I3
sVd0slogt
p7334
I1
sVdcsx6sa
p7335
I1
sVd6s68ft
p7336
I1
sVdd1v1ms
p7337
I1
sVdkvjvk9
p7338
I1
sVdbn4y9f
p7339
I1
sVd72959i
p7340
I1
sVdgfisbl
p7341
I1
sVdipwb83
p7342
I1
sVd9yc9km
p7343
I2
sVdft0rls
p7344
I1
sVd0ojvxz
p7345
I2
sVdo1fuzn
p7346
I3
sVdifss91
p7347
I1
sVdq4av8q
p7348
I1
sVd036fco
p7349
I2
sVd63w91j
p7350
I1
sVdqflncn
p7351
I1
sVdq2pxyl
p7352
I2
sVdk3qih2
p7353
I1
sVdibr62l
p7354
I1
sVd7xp2fh
p7355
I1
sVdbkvdqt
p7356
I1
sVd1gz0iu
p7357
I1
sVd38jo8q
p7358
I2
sVdi5xanm
p7359
I1
sVd8gvx64
p7360
I3
sVd4xwhwe
p7361
I1
sVdguvnhd
p7362
I2
sVdo5rpvr
p7363
I1
sVdeiclef
p7364
I1
sVdrchnca
p7365
I3
sVd9g2bqd
p7366
I1
sVdnpexak
p7367
I1
sVd4w89am
p7368
I1
sVdg3ruu9
p7369
I1
sVdouud5m
p7370
I1
sVdapyg07
p7371
I1
sVd0r7kix
p7372
I1
sVd971mo6
p7373
I1
sVdjrn854
p7374
I2
sVd2hnhsb
p7375
I1
sVd731nae
p7376
I2
sVdfbv53x
p7377
I1
sVd00hwzn
p7378
I1
sVdgcn0xj
p7379
I1
sVd0953ac
p7380
I1
sVdbf71b1
p7381
I1
sVcyzj8cw
p7382
I5
sVdirixbo
p7383
I1
sVdjz3vvy
p7384
I1
sVdrkcz6q
p7385
I1
sVdtdbxji
p7386
I16
sVd55kjg7
p7387
I1
sVd5g8ydx
p7388
I2
sVdiup5cy
p7389
I1
sVdc46skx
p7390
I1
sVd8f9n33
p7391
I1
sVde3flc2
p7392
I1
sVdaoflk1
p7393
I1
sVdc8nqyo
p7394
I1
sVcyptk1l
p7395
I3
sVdibj6j5
p7396
I1
sVdait8ci
p7397
I1
sVdgchs0r
p7398
I2
sVdorm0js
p7399
I1
sVdmfj6qa
p7400
I3
sVd4fcyt8
p7401
I1
sVdi4wlzl
p7402
I1
sVdmyynlm
p7403
I1
sVd9ycuqa
p7404
I1
sVdijmpc6
p7405
I1
sVd75vjux
p7406
I2
sVdn6gnxz
p7407
I2
sVdec5xcu
p7408
I1
sVd2bglrj
p7409
I2
sVd43cfdz
p7410
I1
sVd3xe11v
p7411
I1
sVdgm2nda
p7412
I1
sVdr1ywfy
p7413
I1
sVd6td3yn
p7414
I1
sVdjjj8ie
p7415
I4
sVdgmtnz8
p7416
I1
sVdtgqksl
p7417
I5
sVdhde7dz
p7418
I1
sVdp7zgte
p7419
I1
sVd40bb6k
p7420
I3
sVdkdgyea
p7421
I1
sVd5b19os
p7422
I1
sVdbf022r
p7423
I1
sVd3zo8es
p7424
I1
sVd9eskr8
p7425
I1
sVdrd5mil
p7426
I1
sVdrsc8fv
p7427
I2
sVdkew3v4
p7428
I1
sVd1o37cm
p7429
I2
sVdd5izvh
p7430
I1
sVdfb7su1
p7431
I1
sVdcggkmj
p7432
I1
sVdh3im4b
p7433
I2
sVd8w4mhn
p7434
I1
sVdo4yf34
p7435
I1
sVdstggtw
p7436
I1
sVdi55t1d
p7437
I1
sVdadc6me
p7438
I1
sVdbk9kof
p7439
I2
sVcyx5i4q
p7440
I1
sVdt1v70u
p7441
I1
sVdkb5uug
p7442
I1
sVd6a777c
p7443
I1
sVdmosllv
p7444
I1
sVd7uaoy1
p7445
I2
sVd3qa4gs
p7446
I1
sVdbmp70v
p7447
I1
sVdg8pktr
p7448
I1
sVd91dpzy
p7449
I2
sVdij519o
p7450
I1
sVdcl5fga
p7451
I1
sVd5z9gx6
p7452
I1
sVdt9ghwl
p7453
I1
sVczwcwke
p7454
I1
sVds59i8g
p7455
I1
sVdimcbh9
p7456
I1
sVdrzsnta
p7457
I2
sVdptvumd
p7458
I1
sVd2niys8
p7459
I1
sVd8iyh2n
p7460
I1
sVczka4sf
p7461
I1
sVd7uepvf
p7462
I2
sVdgv5kaq
p7463
I1
sVdggj4sy
p7464
I1
sVd82d4ae
p7465
I1
sVd0rsqkd
p7466
I2
sVd5sphnz
p7467
I1
sVdcro2xe
p7468
I1
sVdrec72x
p7469
I1
sVdc53dxu
p7470
I1
sVdqy79t5
p7471
I1
sVd1ai98f
p7472
I2
sVd4lomnt
p7473
I1
sVdq0smtk
p7474
I1
sVdfu7po4
p7475
I1
sVdr8hgr8
p7476
I1
sVdaqq16n
p7477
I3
sVd9wzm34
p7478
I1
sVd5pot54
p7479
I1
sVd3h885c
p7480
I1
sVdr8eirr
p7481
I1
sVdoj7svy
p7482
I5
sVdaucgkk
p7483
I1
sVdt9z413
p7484
I1
sVd69wv29
p7485
I1
sVd5wsc4o
p7486
I4
sVd50yh75
p7487
I1
sVd2ap62n
p7488
I1
sVdc8uld8
p7489
I2
sVdib4qdg
p7490
I1
sVdfeu4qz
p7491
I2
sVdsr7drt
p7492
I2
sVdrvd4fq
p7493
I1
sVdo09jk1
p7494
I3
sVd9x0j8d
p7495
I1
sVddgtpfz
p7496
I1
sVdhocnw9
p7497
I1
sVd09almv
p7498
I2
sVd67thck
p7499
I2
sVddmu3z4
p7500
I2
sVd7zte9d
p7501
I1
sVd609bu2
p7502
I2
sVd7rhbur
p7503
I2
sVds6egfm
p7504
I1
s.