(dp0
Vdfz37ls
p1
I1
sVddpddhh
p2
I1
sVdd9vodq
p3
I1
sVdeb7e6e
p4
I1
sVdh9kadp
p5
I1
sVdhx0npb
p6
I1
sVd7budue
p7
I1
sVd17j9i3
p8
I1
sVdhy3zf1
p9
I1
sVd29mo6v
p10
I1
sVd4quapu
p11
I1
sVd67r9z4
p12
I2
sVdanqtfm
p13
I1
sVcziugl1
p14
I1
sVd1kg7zn
p15
I1
sVd94hgzp
p16
I1
sVdc9tw99
p17
I1
sVda0izg5
p18
I1
sVd9yvns0
p19
I1
sVczms8v7
p20
I1
sVdc2s7mf
p21
I1
sVda3grna
p22
I1
sVd4odqhv
p23
I1
sVdble5a1
p24
I3
sVdpgy5lr
p25
I1
sVdh1qbue
p26
I1
sVcznmflk
p27
I1
sVd0pypxb
p28
I1
sVdmxvcbh
p29
I2
sVd5odhi6
p30
I1
sVdaqdhzy
p31
I1
sVdmkc5uf
p32
I2
sVd9cpdjz
p33
I1
sVczmazs4
p34
I1
sVd2fsw0r
p35
I1
sVda57z0i
p36
I1
sVd6pp8az
p37
I1
sVd9xxlk0
p38
I1
sVdggxuuw
p39
I1
sVde7owlu
p40
I2
sVdt1xyyw
p41
I1
sVdihf7hc
p42
I1
sVd2gkn7o
p43
I1
sVdq9bty4
p44
I1
sVdbe908u
p45
I1
sVdsmwdld
p46
I2
sVdegx6zr
p47
I1
sVdrrq7xd
p48
I3
sVd18pjmq
p49
I1
sVd097ooh
p50
I4
sVdbvd6ge
p51
I1
sVdmow40d
p52
I1
sVdj3qwmk
p53
I1
sVdaisor5
p54
I2
sVd2h5naq
p55
I1
sVd5yqtl9
p56
I1
sVd5vpnyk
p57
I1
sVdk1k9rl
p58
I1
sVdbq9g53
p59
I3
sVdgkjdur
p60
I1
sVd6z8dgo
p61
I7
sVczyxn5m
p62
I1
sVdf36luy
p63
I1
sVd8to9am
p64
I2
sVd5u7vod
p65
I1
sVczwis6s
p66
I1
sVddxwnjl
p67
I1
sVdanqdex
p68
I2
sVdip4w0d
p69
I1
sVde663ka
p70
I1
sVd6aktsn
p71
I2
sVd967n1g
p72
I1
sVd204i4g
p73
I1
sVdcpxnd4
p74
I1
sVdt7885o
p75
I1
sVdcs60e6
p76
I1
sVdfhnpap
p77
I1
sVdiczrwn
p78
I1
sVdqw1ty2
p79
I1
sVd23t0bq
p80
I2
sVdj4v0ne
p81
I2
sVd4o1js6
p82
I1
sVdbpe5ry
p83
I1
sVdnu4djr
p84
I1
sVdcj4hna
p85
I1
sVdbfxk3b
p86
I1
sVd05tfew
p87
I1
sVdpgss7o
p88
I1
sVde2wb1w
p89
I1
sVd7v5bbj
p90
I1
sVd83w46h
p91
I1
sVde4jekg
p92
I1
sVd0h00jh
p93
I1
sVdeh59nz
p94
I1
sVd2zkmzg
p95
I1
sVdco8gti
p96
I1
sVdki02it
p97
I1
sVd166qy5
p98
I1
sVdandzrh
p99
I2
sVd0y6z5p
p100
I1
sVdcyflch
p101
I1
sVd9kx02e
p102
I1
sVdau6upg
p103
I1
sVd6er9v9
p104
I1
sVcyou59b
p105
I1
sVd06tu2z
p106
I1
sVdaugn6i
p107
I1
sVd36djvy
p108
I1
sVdjymyzx
p109
I1
sVdi3kksm
p110
I1
sVdiqpt0r
p111
I1
sVd1trfc9
p112
I1
sVdc0u2jt
p113
I2
sVd23c6zt
p114
I1
sVd4yy4lh
p115
I1
sVd161p3n
p116
I1
sVdst72a9
p117
I4
sVdst6j6o
p118
I1
sVdmf30n2
p119
I1
sVd1k81dj
p120
I2
sVdnv37kk
p121
I1
sVd80qxjy
p122
I1
sVcyzrj3j
p123
I1
sVdhw8kx6
p124
I1
sVd950yb8
p125
I2
sVd2333ki
p126
I1
sVdcwxume
p127
I1
sVdinrz1d
p128
I1
sVd2zy93v
p129
I1
sVdix8kkv
p130
I1
sVdg4c3nk
p131
I1
sVdebclwv
p132
I1
sVd4e2shu
p133
I2
sVds4z8xb
p134
I1
sVdb1095v
p135
I1
sVcyw1wl1
p136
I1
sVdd818p3
p137
I1
sVd1eveq5
p138
I1
sVcznkj2x
p139
I1
sVdmugn1f
p140
I1
sVd1yg5yg
p141
I1
sVd5fg01j
p142
I1
sVd74qx5f
p143
I1
sVdd5f1cc
p144
I1
sVde29bqp
p145
I1
sVdd7ml80
p146
I3
sVd1flcw3
p147
I1
sVdf3t9b5
p148
I4
sVczw63vx
p149
I3
sVdql9knk
p150
I1
sVd90ouhm
p151
I1
sVcz028xh
p152
I1
sVd9zh04r
p153
I1
sVdjvvcdh
p154
I1
sVdo8lvj4
p155
I1
sVcykh2ue
p156
I1
sVdijx1ai
p157
I1
sVd19hg9u
p158
I1
sVdn0ago5
p159
I2
sVdei8p9d
p160
I1
sVdemz2qr
p161
I1
sVdn4na5a
p162
I1
sVd0y4yw3
p163
I1
sVd1utx7e
p164
I1
sVczr48x7
p165
I1
sVdfk01qq
p166
I1
sVd1rr0pt
p167
I1
sVdjuweqr
p168
I1
sVdj4zisg
p169
I1
sVdrbaw82
p170
I1
sVdh2ocmh
p171
I1
sVd4zkkhv
p172
I6
sVczvks22
p173
I1
sVddzx5e3
p174
I1
sVd6f4ilv
p175
I1
sVd0bb49y
p176
I1
sVd19kmzl
p177
I1
sVdh9vcuo
p178
I2
sVdsx0p53
p179
I1
sVdjdlveo
p180
I2
sVd9dzkl3
p181
I1
sVddbplrr
p182
I1
sVdiapjtz
p183
I1
sVdk4wvxb
p184
I1
sVd4ykw80
p185
I1
sVdsj14ln
p186
I1
sVdfue8kh
p187
I1
sVdp1n9gr
p188
I1
sVdhwe2pf
p189
I1
sVcz4to0c
p190
I1
sVd15v3oq
p191
I1
sVdsouqoj
p192
I1
sVdost7fz
p193
I1
sVdpg4y9j
p194
I1
sVdivgllk
p195
I1
sVdpvro1m
p196
I1
sVdb9n2xd
p197
I1
sVdeug0gz
p198
I1
sVdjsibmq
p199
I2
sVditss9s
p200
I1
sVczchw14
p201
I1
sVdnxz6no
p202
I1
sVddbxlcj
p203
I1
sVd079shy
p204
I1
sVd3fmipq
p205
I1
sVddj8nru
p206
I1
sVd31ompo
p207
I1
sVd0mi0kg
p208
I1
sVdilg018
p209
I3
sVd6rrmia
p210
I1
sVd2kuqpk
p211
I1
sVda3zzgv
p212
I1
sVdg7zj11
p213
I1
sVdcail3f
p214
I5
sVd2uj22k
p215
I1
sVdo426nk
p216
I1
sVd1s54yz
p217
I1
sVd0nirob
p218
I1
sVdb01in9
p219
I1
sVdc8ogpa
p220
I1
sVczblx5r
p221
I1
sVds7l7aa
p222
I1
sVd69m7gz
p223
I1
sVdgo379j
p224
I1
sVd82zv21
p225
I1
sVczwexb4
p226
I1
sVdauc2x0
p227
I1
sVcz677us
p228
I1
sVd1gppuy
p229
I1
sVd63gshw
p230
I1
sVdfoeo8l
p231
I1
sVd2a5nc3
p232
I1
sVdao8co5
p233
I1
sVd9a5rqe
p234
I1
sVd05mtft
p235
I1
sVdktksbd
p236
I1
sVd3r96sl
p237
I1
sVdgojddr
p238
I1
sVdrs2od5
p239
I1
sVd5tuj9h
p240
I1
sVdc2bvxo
p241
I1
sVda34hcz
p242
I1
sVd0nsupb
p243
I1
sVdgl4vwp
p244
I1
sVcz5i1e4
p245
I1
sVdcpteq2
p246
I1
sVd5rhgpe
p247
I1
sVda9jja8
p248
I1
sVdhdqbl1
p249
I1
sVdd3xtaf
p250
I1
sVd0jancd
p251
I1
sVdi7vd9l
p252
I1
sVdcgipfo
p253
I2
sVd8zcpa7
p254
I1
sVd6ibbs8
p255
I1
sVdaicp2q
p256
I1
sVdj1it1p
p257
I1
sVczm5f2z
p258
I1
sVd0kn2c4
p259
I1
sVdnrbm08
p260
I1
sVdor0fct
p261
I1
sVdebdz9o
p262
I1
sVdt5r20r
p263
I1
sVdmzqqyl
p264
I1
sVd4latpt
p265
I2
sVdgk4k8y
p266
I1
sVd1povhi
p267
I1
sVd3s99av
p268
I1
sVd1gob6s
p269
I1
sVdej1wtl
p270
I1
sVd465g8q
p271
I1
sVd1wqzds
p272
I1
sVdjfdqmf
p273
I1
sVd8wm9ow
p274
I1
sVcyrqmav
p275
I1
sVd84kp78
p276
I1
sVd1aapyo
p277
I2
sVd65yner
p278
I1
sVdoj400j
p279
I1
sVcz57jce
p280
I1
sVdjy0jk3
p281
I1
sVdn6wz57
p282
I1
sVdg21b5m
p283
I1
sVd04bacy
p284
I1
sVd2e2dck
p285
I5
sVdh0aue1
p286
I1
sVd9kjik0
p287
I1
sVd5yxz4s
p288
I1
sVdmq9lph
p289
I1
sVczkxzph
p290
I1
sVd3a47eg
p291
I1
sVd1bxu1u
p292
I1
sVdnzdd9j
p293
I1
sVd2q167k
p294
I1
sVczzbig7
p295
I1
sVdhostxv
p296
I1
sVd47dvar
p297
I1
sVd9jnogg
p298
I1
sVd0xl3ag
p299
I1
sVdgq8w0v
p300
I1
sVczu9uwh
p301
I1
sVczwww5v
p302
I2
sVd19lajq
p303
I1
sVdehbjpq
p304
I1
sVd430smi
p305
I1
sVdgukd2h
p306
I1
sVdst15qr
p307
I2
sVdeugrj8
p308
I1
sVdh38ird
p309
I1
sVcyyef9d
p310
I1
sVd526dkt
p311
I1
sVd8j00ro
p312
I2
sVdfakxxl
p313
I1
sVdd7ayhq
p314
I1
sVd0mnfrl
p315
I1
sVdflr3q2
p316
I1
sVdpmaxzk
p317
I1
sVdid02av
p318
I2
sVczya4ga
p319
I1
sVddg6a8n
p320
I1
sVdgg475j
p321
I1
sVdb5jblk
p322
I1
sVdr6hjpx
p323
I2
sVd3e2du0
p324
I1
sVd6jlijh
p325
I1
sVdsf6va9
p326
I1
sVddmmexy
p327
I2
sVdqdwuum
p328
I1
sVdakrw48
p329
I1
sVddwqbpq
p330
I1
sVd0g98tt
p331
I2
sVd5f3onn
p332
I1
sVdjr8nce
p333
I3
sVdihr7d3
p334
I2
sVdaofdkg
p335
I2
sVdg76e28
p336
I5
sVd99yu2t
p337
I2
sVdgf83rv
p338
I1
sVdcf5o2j
p339
I1
sVdemvbfa
p340
I1
sVcz2j84l
p341
I1
sVdnd9pzg
p342
I1
sVdaxme8n
p343
I2
sVdcxcwa2
p344
I2
sVdck5evg
p345
I1
sVdfzn5lo
p346
I1
sVdnwmoi8
p347
I1
sVd55y4tq
p348
I1
sVdgzfcu0
p349
I1
sVdrxykic
p350
I1
sVczzw9qi
p351
I1
sVczomelq
p352
I1
sVd8b7wrt
p353
I1
sVdh193kq
p354
I1
sVd8mxh96
p355
I1
sVdb8wrrz
p356
I1
sVdgzck5e
p357
I1
sVdhfx0pp
p358
I1
sVdhs8ewv
p359
I1
sVdmjibki
p360
I1
sVd2pn7ak
p361
I1
sVdn3ebxg
p362
I1
sVd65rl7w
p363
I3
sVd7i5jm2
p364
I3
sVdiqeer4
p365
I1
sVdmhkgu7
p366
I1
sVd6nfxlg
p367
I1
sVdmnk4ob
p368
I1
sVd13adq4
p369
I1
sVds9za4w
p370
I1
sVd6z9vdf
p371
I1
sVd1hzhnc
p372
I3
sVd5mlrea
p373
I2
sVdbo6g21
p374
I1
sVddia8dw
p375
I1
sVdeldmye
p376
I1
sVdifhw4c
p377
I1
sVd8lxpeo
p378
I1
sVd8205bz
p379
I1
sVds1akw0
p380
I1
sVdb7auz0
p381
I1
sVd1bs7g0
p382
I1
sVd3psxxn
p383
I1
sVdrrpfif
p384
I2
sVczad5w0
p385
I2
sVd7vch00
p386
I1
sVddcqns3
p387
I1
sVdq74lgb
p388
I1
sVdr6p5e8
p389
I1
sVd5v2h7h
p390
I1
sVdelzzw0
p391
I1
sVd3qyukr
p392
I2
sVdhnuoo3
p393
I1
sVd2uix4i
p394
I1
sVdgrxotk
p395
I1
sVdehga8i
p396
I1
sVdo7ktiq
p397
I1
sVd8bjpke
p398
I1
sVd3c9bi3
p399
I1
sVd1hc4cr
p400
I1
sVd12yo14
p401
I1
sVde66c5k
p402
I1
sVdo1s2dt
p403
I1
sVczh91sk
p404
I1
sVdj510qh
p405
I1
sVd7xpebo
p406
I1
sVd6zm1oz
p407
I2
sVdfyo9x7
p408
I1
sVddghqwy
p409
I2
sVdtiihco
p410
I1
sVdjd4dsh
p411
I1
sVdq6ie31
p412
I1
sVdodwixv
p413
I1
sVdp4gkmv
p414
I1
sVczc34bx
p415
I1
sVd0ykdmf
p416
I1
sVdijcaf6
p417
I2
sVdguqu8a
p418
I1
sVd5isxwt
p419
I1
sVd8c8xtv
p420
I1
sVdtg2afr
p421
I2
sVczo1daa
p422
I1
sVd2pvcxv
p423
I1
sVdrjqau5
p424
I1
sVdr1lclj
p425
I1
sVdhchx4a
p426
I1
sVdde0w1u
p427
I1
sVd472npm
p428
I1
sVdf3gk33
p429
I1
sVdhyki9q
p430
I2
sVdhy7bf6
p431
I2
sVd5rhfr0
p432
I1
sVd2kzyns
p433
I1
sVd1b4qhb
p434
I1
sVdck5p9t
p435
I1
sVd320ida
p436
I1
sVdaanqfb
p437
I1
sVdb407ip
p438
I1
sVdfhsrr6
p439
I1
sVcyv927n
p440
I1
sVd6ktiws
p441
I1
sVd5cfg2x
p442
I1
sVd9vk62z
p443
I2
sVdb9o5rw
p444
I2
sVdb01e3q
p445
I1
sVd2yfq29
p446
I1
sVd8gvtgz
p447
I1
sVdc0xxhq
p448
I2
sVdbimccx
p449
I1
sVdr9iv0j
p450
I1
sVd0yl0op
p451
I1
sVdd3ikf8
p452
I1
sVd3771tz
p453
I1
sVddt5t1o
p454
I1
sVdmrjz1g
p455
I1
sVdhw6rjs
p456
I1
sVddcwmcl
p457
I1
sVdsszmut
p458
I10
sVd8on88n
p459
I1
sVde44357
p460
I1
sVd9o7glz
p461
I1
sVd008b7g
p462
I2
sVd0grglw
p463
I1
sVdr0d6ys
p464
I1
sVd0e58k4
p465
I1
sVd6s6ayw
p466
I2
sVd3nvk03
p467
I1
sVdeh5d6p
p468
I1
sVd5piay9
p469
I1
sVdf03npr
p470
I1
sVdcgiud2
p471
I1
sVdph44v2
p472
I1
sVd9ksirs
p473
I1
sVdahbj0x
p474
I1
sVdee4isz
p475
I2
sVdmt2rpm
p476
I1
sVdrga2pq
p477
I1
sVdj18wh0
p478
I1
sVdnp5aye
p479
I1
sVd4evkvr
p480
I1
sVd3wrs7h
p481
I1
sVdbj2pui
p482
I1
sVd9dk1t6
p483
I1
sVd691asd
p484
I2
sVddsjniz
p485
I1
sVd94gy61
p486
I1
sVd3ysgc5
p487
I1
sVcyp0x59
p488
I1
sVd0z5lpb
p489
I2
sVdqthotd
p490
I1
sVd5racs3
p491
I9
sVdb2202w
p492
I1
sVcypvzlb
p493
I1
sVd5b2uvc
p494
I1
sVczles98
p495
I1
sVd95e461
p496
I1
sVd3qy4xt
p497
I1
sVdef54d0
p498
I1
sVdfbs221
p499
I1
sVdgcp650
p500
I1
sVdib5ei9
p501
I1
sVczy1wv9
p502
I1
sVdf0zt68
p503
I1
sVd91ce0j
p504
I1
sVdi2otc9
p505
I1
sVdfvvxw9
p506
I1
sVdhv5g37
p507
I1
sVdtbqjky
p508
I1
sVd0fktqi
p509
I1
sVdf3c13f
p510
I1
sVd3j6pqw
p511
I1
sVd9tuq4q
p512
I1
sVd33iwl0
p513
I1
sVd5iv8bp
p514
I1
sVd5jmd8i
p515
I2
sVdbljwzk
p516
I1
sVd28tjtz
p517
I2
sVdeldmlk
p518
I1
sVddpkq3d
p519
I1
sVddslwbt
p520
I1
sVda3w37l
p521
I1
sVdrs24xt
p522
I3
sVdmug7ob
p523
I2
sVd6ow0s0
p524
I1
sVdecul39
p525
I1
sVdrhm3eq
p526
I1
sVdfm49y3
p527
I1
sVczdy1zo
p528
I1
sVdnc7d2w
p529
I1
sVdg8y5ep
p530
I1
sVdgpyrp1
p531
I1
sVdijbagv
p532
I1
sVd4j7q3i
p533
I1
sVdczg65p
p534
I2
sVdiz2ipm
p535
I1
sVd192nkf
p536
I1
sVd3hehsk
p537
I1
sVdrstke4
p538
I2
sVd4ogsw1
p539
I1
sVdio4k5w
p540
I2
sVd9z12iu
p541
I1
sVd8krpcu
p542
I1
sVd107xfx
p543
I1
sVczvj7qr
p544
I1
sVdc9ot9h
p545
I1
sVdmkbu55
p546
I1
sVd0ljp6z
p547
I1
sVdp67siy
p548
I1
sVdeo3f9e
p549
I2
sVd43n6zz
p550
I1
sVd2blfm1
p551
I1
sVdd411p1
p552
I1
sVdee3g5f
p553
I1
sVczi1oqp
p554
I1
sVddlpzyd
p555
I1
sVdapqvfd
p556
I1
sVdfty91k
p557
I1
sVd0jp94p
p558
I1
sVdgn3x14
p559
I1
sVd8mhmc5
p560
I4
sVd0yhmdr
p561
I1
sVd9izg6l
p562
I1
sVcysz2ky
p563
I1
sVd5h6pch
p564
I3
sVcys55td
p565
I2
sVd12ad86
p566
I1
sVdcyinft
p567
I1
sVd3d5swm
p568
I1
sVdfurk59
p569
I1
sVdcmev5e
p570
I1
sVdaggbzd
p571
I1
sVdjqzh4s
p572
I1
sVd9kx7uc
p573
I1
sVdhubufr
p574
I1
sVdhfazvt
p575
I1
sVdg0h7jr
p576
I1
sVddxce1f
p577
I1
sVd1xgeyt
p578
I1
sVd4xt65s
p579
I1
sVdj84i1s
p580
I1
sVd6p3j3l
p581
I1
sVdgzb743
p582
I3
sVd8qenu0
p583
I1
sVd3ucg0i
p584
I1
sVd9bmged
p585
I2
sVd1d0fmr
p586
I1
sVdmsg868
p587
I1
sVd4oowbm
p588
I2
sVdmw9msc
p589
I1
sVd0fjmnh
p590
I1
sVdn6rt9h
p591
I1
sVdmicvh0
p592
I1
sVdjxjsyh
p593
I1
sVd26g6ez
p594
I3
sVd39s6gb
p595
I1
sVdfiz0xg
p596
I1
sVdt2w1o5
p597
I1
sVd2naxia
p598
I1
sVdh9vl0w
p599
I1
sVd3tzkbr
p600
I1
sVd4mh3jr
p601
I1
sVdnz248y
p602
I1
sVd87bsew
p603
I1
sVdmqay50
p604
I1
sVd9ippaf
p605
I1
sVdt83ixr
p606
I1
sVd6z8qxi
p607
I1
sVd0gx1uh
p608
I1
sVcz5geiw
p609
I1
sVd2frjth
p610
I1
sVcz5bqy5
p611
I2
sVdaj24qt
p612
I1
sVd3msekn
p613
I1
sVdfwmrxz
p614
I1
sVd99kydy
p615
I1
sVd1hbq8d
p616
I1
sVdb5gfgv
p617
I1
sVdadfnxe
p618
I2
sVdmobrcs
p619
I1
sVd03crwm
p620
I1
sVdppf32z
p621
I1
sVddc624b
p622
I1
sVdqh0ytd
p623
I1
sVdbkb17v
p624
I1
sVdpd6bt1
p625
I1
sVd1i97am
p626
I1
sVdh42il1
p627
I1
sVdmz9k3k
p628
I1
sVdaeumvp
p629
I1
sVdj2kg8r
p630
I1
sVdcaqigf
p631
I1
sVdfwvl5h
p632
I1
sVdn5fa41
p633
I1
sVdaidftn
p634
I1
sVd2i1nbx
p635
I1
sVdavaqaz
p636
I1
sVdh1wc4w
p637
I1
sVdgo8oxw
p638
I1
sVddv0ljo
p639
I1
sVd0hzeem
p640
I2
sVdnixbla
p641
I1
sVd7bu8q1
p642
I1
sVdp8a7f0
p643
I1
sVddwkrf1
p644
I2
sVd4nf4yo
p645
I1
sVcymudd1
p646
I1
sVdi4gpa5
p647
I1
sVdrya744
p648
I2
sVczi2ioe
p649
I4
sVdfucm1l
p650
I2
sVd4o1ehc
p651
I1
sVd7nwlhc
p652
I1
sVd09l1fz
p653
I1
sVdc58im5
p654
I1
sVdnvsofy
p655
I1
sVd7eagl4
p656
I1
sVd1qzcy3
p657
I3
sVdjz2fvo
p658
I1
sVdb2el2h
p659
I1
sVdob4x2j
p660
I1
sVdf3xifs
p661
I2
sVcymp9kn
p662
I1
sVdekgm9n
p663
I1
sVd1ewi6o
p664
I1
sVcz5dvo2
p665
I1
sVdce05uk
p666
I1
sVd3alo7b
p667
I1
sVdbmejok
p668
I3
sVd7uul7g
p669
I1
sVd1pdvnv
p670
I1
sVdrwfocf
p671
I1
sVd1r3rqx
p672
I1
sVcznmsbr
p673
I1
sVd7ur3um
p674
I1
sVd8g01f7
p675
I1
sVdfguwed
p676
I1
sVdkwq07u
p677
I1
sVdibfxyh
p678
I2
sVd4i3s2z
p679
I1
sVd26dmtp
p680
I1
sVdj18rdc
p681
I1
sVd8wpkkz
p682
I1
sVd005pel
p683
I1
sVd52yb18
p684
I1
sVd0fj1nx
p685
I1
sVd8vx5pw
p686
I1
sVdh62btb
p687
I1
sVdekm535
p688
I1
sVdky6i42
p689
I1
sVdstbcyw
p690
I2
sVd7tro3b
p691
I1
sVdrrlms1
p692
I1
sVdaitsvf
p693
I1
sVd0q1t4p
p694
I1
sVd3yk5rc
p695
I1
sVd0ig4ge
p696
I2
sVd830an4
p697
I2
sVdrs0zmj
p698
I2
sVd07naf5
p699
I1
sVdcfbwaw
p700
I1
sVdmq7q2n
p701
I1
sVczrpcuo
p702
I1
sVdrrhdyr
p703
I1
sVdbt510v
p704
I1
sVczallug
p705
I1
sVdmsg7d1
p706
I1
sVd4662cf
p707
I1
sVczze82x
p708
I1
sVd9v3n5r
p709
I1
sVdstcqf4
p710
I1
sVdd1i39r
p711
I1
sVd5ckpb5
p712
I4
sVdbjc3tu
p713
I2
sVdhn9cf3
p714
I1
sVdhyeegt
p715
I1
sVdgq71pq
p716
I1
sVcz39jse
p717
I1
sVdjnq37e
p718
I1
sVdks6wnv
p719
I3
sVdfh5045
p720
I1
sVdj8nop5
p721
I1
sVd6grcvd
p722
I1
sVdbxnnvw
p723
I1
sVdggmhzv
p724
I1
sVd7qtssb
p725
I2
sVdaobyyr
p726
I1
sVd0ku9rw
p727
I1
sVd49h5p4
p728
I2
sVdd6plza
p729
I1
sVd9d6lr4
p730
I1
sVd0dd281
p731
I1
sVczm8sek
p732
I1
sVdat211h
p733
I9
sVd50is8k
p734
I1
sVdekqnls
p735
I1
sVdt8ktll
p736
I1
sVcz09ifc
p737
I1
sVd0661ah
p738
I1
sVdkvvotl
p739
I1
sVdcuhk55
p740
I2
sVd85h8w4
p741
I1
sVczgych7
p742
I1
sVdh1e5k5
p743
I1
sVczjg5jo
p744
I1
sVdg9cmk7
p745
I1
sVd99dcxt
p746
I1
sVd65fzqk
p747
I1
sVczjcdk3
p748
I1
sVd1u06uq
p749
I1
sVdms4m88
p750
I1
sVdfazw3i
p751
I1
sVd2h4mn9
p752
I2
sVd6pd4bi
p753
I1
sVdo6gxgi
p754
I1
sVd75jknl
p755
I1
sVd39gn1v
p756
I1
sVdbcxqh6
p757
I1
sVdqjw34r
p758
I1
sVddf8ac6
p759
I1
sVd69g2hr
p760
I1
sVd26bye4
p761
I4
sVdcsexun
p762
I1
sVd1w0z7u
p763
I1
sVdt0928d
p764
I1
sVdn81tzs
p765
I1
sVd01b1cp
p766
I1
sVd4bhti0
p767
I1
sVdbgzc9u
p768
I1
sVddd21cz
p769
I1
sVdjnpprs
p770
I1
sVdes1wpp
p771
I1
sVdiys3l6
p772
I1
sVcz9vdwi
p773
I1
sVda1an0m
p774
I1
sVdekzlym
p775
I1
sVdhykbtg
p776
I1
sVd6uhyqi
p777
I1
sVd0qo4ds
p778
I1
sVdqdwxlt
p779
I1
sVd9cyfx7
p780
I1
sVd4lbtor
p781
I1
sVdcq1koz
p782
I1
sVdgvgh3c
p783
I1
sVd87f2p0
p784
I3
sVd7u9i1e
p785
I1
sVdmvxipk
p786
I1
sVdcb4e2l
p787
I1
sVdbu532z
p788
I1
sVd48jaaj
p789
I1
sVdgj0okv
p790
I1
sVdhy2ip9
p791
I1
sVddpyt5d
p792
I1
sVd8hlg9g
p793
I1
sVdhjgzto
p794
I3
sVdidy03l
p795
I1
sVdhbmb71
p796
I1
sVdjvmk7q
p797
I1
sVd6z477l
p798
I6
sVdfk4z72
p799
I5
sVddcmcff
p800
I2
sVdfstc0w
p801
I1
sVd4l2dsk
p802
I1
sVd0atmpg
p803
I2
sVd1hx45t
p804
I1
sVd1jfn7c
p805
I1
sVcypisr3
p806
I1
sVdn2e0re
p807
I1
sVd1mdlhq
p808
I3
sVddo7zkg
p809
I1
sVdkhcxz4
p810
I1
sVczyy8r4
p811
I1
sVdqej7a1
p812
I1
sVdqu0n3x
p813
I1
sVdjypsg4
p814
I2
sVddjs6z3
p815
I1
sVd8sqq02
p816
I2
sVde9j0jj
p817
I1
sVd0smjxk
p818
I1
sVd80agdd
p819
I1
sVd3os3zw
p820
I1
sVdb7s9oy
p821
I1
sVdsx0u61
p822
I1
sVd0ask0o
p823
I1
sVdaw1e45
p824
I1
sVd02yt8s
p825
I1
sVdead82y
p826
I1
sVd8aehr6
p827
I1
sVdentpf4
p828
I1
sVdkka67r
p829
I1
sVd2nr6hi
p830
I1
sVdc4gpcr
p831
I1
sVcyqzaz3
p832
I1
sVcznlp2b
p833
I1
sVd8xgn52
p834
I1
sVdfk0khf
p835
I1
sVdj9pe52
p836
I1
sVddahbs9
p837
I2
sVdhlln5r
p838
I1
sVczl7qy6
p839
I3
sVdal2qv2
p840
I1
sVdiur0iu
p841
I1
sVd3botpf
p842
I1
sVd9kl0wl
p843
I1
sVd9ubmng
p844
I2
sVd97iask
p845
I1
sVcyijnl2
p846
I1
sVd3orp7t
p847
I1
sVdenw3z7
p848
I1
sVdnu81v7
p849
I1
sVd09m6tq
p850
I1
sVd69nkyp
p851
I2
sVd31vg5v
p852
I1
sVd29esc0
p853
I1
sVdoq57ob
p854
I1
sVdfvkf72
p855
I1
sVczl3jyn
p856
I3
sVdk15anf
p857
I1
sVd8vzt04
p858
I1
sVdst65ak
p859
I1
sVdreblcd
p860
I1
sVd940fbf
p861
I1
sVd5kkisz
p862
I1
sVdi57r4g
p863
I1
sVda1o7vp
p864
I1
sVcyi47bu
p865
I1
sVd8zhndb
p866
I1
sVdbzps8o
p867
I1
sVdqogryq
p868
I1
sVd0t9q0y
p869
I1
sVdibut2g
p870
I1
sVd9azowe
p871
I1
sVd3qxyeq
p872
I2
sVdimlm5t
p873
I1
sVd03pqct
p874
I1
sVd1gn756
p875
I1
sVczs6111
p876
I1
sVd1m4yhr
p877
I1
sVdbnnkjs
p878
I1
sVde04gdv
p879
I1
sVd996eff
p880
I2
sVd6iog74
p881
I1
sVdifsvge
p882
I1
sVd71b2qc
p883
I1
sVdahghyp
p884
I1
sVcyhwj6y
p885
I3
sVdi5chib
p886
I2
sVdin0hrz
p887
I1
sVdeafh7p
p888
I1
sVda4jtvq
p889
I1
sVd3ouuwh
p890
I1
sVdcpjplk
p891
I1
sVdd4i04x
p892
I1
sVd14kfoz
p893
I1
sVdd435dl
p894
I2
sVdfecmtr
p895
I2
sVdgdzrdp
p896
I1
sVdag8bfp
p897
I1
sVd6bhecg
p898
I1
sVczjwh4p
p899
I2
sVczqlckc
p900
I1
sVdmpriy4
p901
I1
sVcz285eb
p902
I1
sVdio03xh
p903
I1
sVdfsx307
p904
I1
sVdopkolf
p905
I2
sVdnn2nrr
p906
I1
sVdndt7t4
p907
I1
sVdasg63t
p908
I1
sVdiy0v0s
p909
I1
sVczzkra6
p910
I1
sVd1yh4l5
p911
I1
sVdckv2lc
p912
I1
sVdjuz80k
p913
I1
sVdk0lwpu
p914
I2
sVddwe7ah
p915
I1
sVdmiqv8e
p916
I1
sVcyzi1cu
p917
I2
sVdgi5qh9
p918
I1
sVdbxhpgn
p919
I1
sVd2macaw
p920
I1
sVdiwoif8
p921
I1
sVd0ii74f
p922
I1
sVd4kukfo
p923
I1
sVd5bup6e
p924
I1
sVdeiyots
p925
I1
sVcyl1q7a
p926
I1
sVd0ycpjt
p927
I4
sVdec4edh
p928
I1
sVdiheejj
p929
I1
sVd8p6iba
p930
I1
sVcynmma0
p931
I1
sVdbjl8n3
p932
I1
sVd96yhux
p933
I1
sVdbtlpw4
p934
I3
sVd3vd06s
p935
I1
sVdeo4i07
p936
I1
sVdswadbg
p937
I1
sVdeq9jdp
p938
I2
sVd8kg2ce
p939
I1
sVd7u3j4v
p940
I2
sVdssrurm
p941
I1
sVdgpn73r
p942
I1
sVd15owzs
p943
I1
sVdk0zznw
p944
I1
sVdg4k0o2
p945
I1
sVdipm9y4
p946
I1
sVdpbwxno
p947
I1
sVdja1tkv
p948
I1
sVdh25fop
p949
I2
sVdoe0no3
p950
I1
sVdfiu83g
p951
I1
sVdrrtpar
p952
I1
sVd005vub
p953
I1
sVdc0v6c4
p954
I3
sVda7pg2c
p955
I1
sVd0svruy
p956
I1
sVcyzli4i
p957
I1
sVdgnujbs
p958
I1
sVd2g2qc0
p959
I1
sVdao4rme
p960
I1
sVdt2ddkk
p961
I1
sVdrnupfv
p962
I1
sVd3e7kmv
p963
I1
sVd3b5ox1
p964
I1
sVdaksk9y
p965
I2
sVdfnf0qn
p966
I1
sVd5u7you
p967
I3
sVdim10l1
p968
I1
sVdo5tg0v
p969
I1
sVd4z0kv7
p970
I1
sVde35921
p971
I1
sVd3r8uui
p972
I2
sVd4qjthv
p973
I1
sVdtd78mq
p974
I6
sVddwjotv
p975
I1
sVdjvz3au
p976
I1
sVdfajiig
p977
I1
sVdby3z5d
p978
I1
sVd1kw03e
p979
I1
sVdgdmx5f
p980
I2
sVdihzcx3
p981
I1
sVd81v5sa
p982
I1
sVdst4jth
p983
I1
sVd0fn24z
p984
I1
sVdd6gtn8
p985
I1
sVd93navz
p986
I1
sVd3poaqt
p987
I1
sVdib0thr
p988
I1
sVde6gp4m
p989
I1
sVd3r2vav
p990
I1
sVd3nhlxr
p991
I1
sVddc8qz4
p992
I1
sVd8j7da5
p993
I1
sVd4lej52
p994
I1
sVd2un7d6
p995
I1
sVd13pzpf
p996
I1
sVdjc15rw
p997
I1
sVd02s3ld
p998
I1
sVd358ve2
p999
I1
sVd6paabs
p1000
I1
sVdan1yg2
p1001
I1
sVdaqxqqj
p1002
I1
sVdeh4yzv
p1003
I1
sVda63txi
p1004
I1
sVd8eun3i
p1005
I1
sVd62wy9z
p1006
I1
sVd1c8y9n
p1007
I1
sVd888fbo
p1008
I1
sVdssmnx1
p1009
I1
sVdeet8ep
p1010
I2
sVdelwhfh
p1011
I1
sVd06ca1j
p1012
I1
sVdt7p3eo
p1013
I1
sVdogkio1
p1014
I1
sVd1j4rhb
p1015
I1
sVdg4pyyr
p1016
I1
sVdcdsxrn
p1017
I1
sVd5u2wih
p1018
I3
sVd6r7ym6
p1019
I2
sVd89vq9a
p1020
I1
sVdcefvh6
p1021
I1
sVd44vke8
p1022
I1
sVddw2xjv
p1023
I1
sVdmmd8zc
p1024
I1
sVdrt7dg8
p1025
I1
sVcziujp7
p1026
I1
sVcz5atgt
p1027
I1
sVdo8nx2l
p1028
I1
sVdcef7du
p1029
I1
sVdgoopy7
p1030
I1
sVd3pfkxa
p1031
I1
sVdbr0niq
p1032
I1
sVd2oe7b4
p1033
I1
sVddm44w3
p1034
I2
sVd8zxs6a
p1035
I2
sVczef2hh
p1036
I1
sVdd8g2n2
p1037
I1
sVdiubuzt
p1038
I1
sVd5tv1wg
p1039
I1
sVdbctjq2
p1040
I1
sVd4of6ko
p1041
I1
sVddomifg
p1042
I1
sVdgzszve
p1043
I1
sVdbw8zjc
p1044
I1
sVdcuzaps
p1045
I1
sVdicmh4w
p1046
I1
sVd7cf4yb
p1047
I1
sVdezzf18
p1048
I1
sVdaeaev3
p1049
I1
sVd6zv2se
p1050
I4
sVde0n1ld
p1051
I1
sVdcm62g1
p1052
I2
sVd4o5kmt
p1053
I1
sVdjmno2j
p1054
I1
sVdjwux27
p1055
I2
sVd3538sd
p1056
I1
sVd97khpj
p1057
I1
sVdc09uhm
p1058
I1
sVd2kr72q
p1059
I1
sVd1364og
p1060
I2
sVdewwod1
p1061
I1
sVdee1vt3
p1062
I1
sVd83420x
p1063
I1
sVdi9heqv
p1064
I1
sVdjjf7ga
p1065
I1
sVdsmaslw
p1066
I1
sVdaoig22
p1067
I1
sVd33kj4t
p1068
I1
sVdgirf0f
p1069
I1
sVdix24lp
p1070
I2
sVdi942xr
p1071
I2
sVdgahap8
p1072
I1
sVd63fsv4
p1073
I1
sVdaipf53
p1074
I1
sVd6hqtdk
p1075
I1
sVdmfcbpv
p1076
I1
sVdip1rkd
p1077
I2
sVdgf8lzi
p1078
I1
sVdrhrnvv
p1079
I1
sVdaviy9q
p1080
I1
sVd39k139
p1081
I1
sVd8np7q6
p1082
I1
sVd1ucpye
p1083
I1
sVdsmbm49
p1084
I1
sVdqsjaml
p1085
I3
sVdahb5po
p1086
I1
sVd6oxq27
p1087
I1
sVdst1qzk
p1088
I1
sVd6kw4t0
p1089
I1
sVdgonb43
p1090
I1
sVdc3goom
p1091
I1
sVd1yzbi6
p1092
I1
sVd2ojrv5
p1093
I1
sVdb571ic
p1094
I1
sVd3583jr
p1095
I1
sVddcvwyf
p1096
I1
sVdihd31j
p1097
I1
sVd0a41ls
p1098
I1
sVd658kqn
p1099
I1
sVd51q4ja
p1100
I1
sVdeg7gi4
p1101
I1
sVd9e6njs
p1102
I1
sVdbwozxs
p1103
I2
sVdqmvsx8
p1104
I1
sVd55ssgq
p1105
I1
sVd04e361
p1106
I1
sVcyv2kw4
p1107
I1
sVd3hfimq
p1108
I2
sVdf8etbm
p1109
I3
sVdjdczpl
p1110
I1
sVd1hks55
p1111
I1
sVdqxs6fw
p1112
I1
sVd7fy9no
p1113
I1
sVdc7k24t
p1114
I1
sVd5yv739
p1115
I1
sVddztav5
p1116
I1
sVd9bhxbo
p1117
I1
sVd14q7k4
p1118
I2
sVddosxmg
p1119
I1
sVdizjbms
p1120
I1
sVdmhw6xw
p1121
I1
sVd3nioo0
p1122
I1
sVda9x8bi
p1123
I1
sVd4o1638
p1124
I1
sVcz20lpm
p1125
I1
sVd1mxp2s
p1126
I2
sVdq4n6e8
p1127
I1
sVdg4zpb6
p1128
I1
sVdeldoud
p1129
I1
sVcz9v6gg
p1130
I1
sVcz2b32k
p1131
I2
sVdcl4inz
p1132
I1
sVdb6an91
p1133
I1
sVd1istdu
p1134
I1
sVdjs1j1x
p1135
I1
sVcyy8s8r
p1136
I1
sVd3qzs99
p1137
I1
sVdip0zhe
p1138
I2
sVczgd6cp
p1139
I1
sVd1hlfzl
p1140
I1
sVd1duuhb
p1141
I1
sVdf6n5k5
p1142
I1
sVd70a0va
p1143
I2
sVdpzhyy5
p1144
I1
sVdqvzwvk
p1145
I1
sVcz0t5bv
p1146
I1
sVcyr36fa
p1147
I1
sVda1c7zk
p1148
I1
sVd4psard
p1149
I1
sVdbpbq93
p1150
I2
sVd1vcqsu
p1151
I1
sVczyjc61
p1152
I1
sVdd29zhp
p1153
I1
sVdkb91as
p1154
I1
sVdene1rq
p1155
I1
sVd4a1ujc
p1156
I1
sVdnsjmet
p1157
I1
sVcz3bct8
p1158
I1
sVdpn3sfm
p1159
I1
sVd9jnpyb
p1160
I1
sVdipa5g7
p1161
I1
sVcz4voqx
p1162
I1
sVdoiw47z
p1163
I1
sVd38l6vs
p1164
I1
sVdgezuna
p1165
I1
sVd0nrm47
p1166
I1
sVdnjxhwf
p1167
I1
sVd13vjn4
p1168
I1
sVdfqdlpa
p1169
I1
sVdb4w3hg
p1170
I1
sVd2dkm09
p1171
I1
sVdcg9rrs
p1172
I1
sVd8vfi83
p1173
I1
sVdd5s7wx
p1174
I1
sVd56sb27
p1175
I1
sVda19c7d
p1176
I1
sVde7xl85
p1177
I1
sVd4nzyxk
p1178
I1
sVdcgicjg
p1179
I1
sVd591o5e
p1180
I1
sVdd8k4s9
p1181
I1
sVdst0tpw
p1182
I1
sVd6ht7s1
p1183
I1
sVd0s7uh1
p1184
I1
sVd0nk510
p1185
I1
sVdbcx8l7
p1186
I1
sVd4jnejf
p1187
I1
sVdbrnhir
p1188
I1
sVdpvsuc2
p1189
I1
sVd1st72i
p1190
I1
sVda77dem
p1191
I2
sVd5ee3n5
p1192
I1
sVcynt59j
p1193
I1
sVdihihqj
p1194
I1
sVdbtk8rx
p1195
I1
sVcyuyo1b
p1196
I1
sVd0pvvpd
p1197
I1
sVd19530g
p1198
I1
sVdi4c81d
p1199
I1
sVdgio4ze
p1200
I1
sVd69hxsp
p1201
I1
sVcyktywf
p1202
I2
sVde0oj21
p1203
I1
sVdd5pyjy
p1204
I2
sVd52xo4m
p1205
I2
sVd2pnoyz
p1206
I1
sVd01t3wg
p1207
I1
sVdejxhw4
p1208
I1
sVcza5huc
p1209
I1
sVd3yn2es
p1210
I1
sVdi0istj
p1211
I1
sVddyshau
p1212
I1
sVdcg08ea
p1213
I1
sVdd6ylib
p1214
I1
sVd4vuitx
p1215
I1
sVd5ktfmv
p1216
I1
sVd78360p
p1217
I1
sVdfh1pl8
p1218
I1
sVdj46gpq
p1219
I1
sVd25f7h0
p1220
I1
sVd9cr7du
p1221
I1
sVda12qdd
p1222
I1
sVdhj2qga
p1223
I1
sVdh6753a
p1224
I1
sVd06ekvw
p1225
I1
sVdgoj44t
p1226
I1
sVdbs1m2z
p1227
I1
sVdaph7go
p1228
I1
sVdc8j4se
p1229
I1
sVd7l4vho
p1230
I1
sVd3r5fyb
p1231
I2
sVdizjepy
p1232
I1
sVd0i6kxb
p1233
I1
sVd1311ow
p1234
I1
sVd0k6egh
p1235
I1
sVd1rgcyo
p1236
I1
sVd83xzwn
p1237
I1
sVdcb8cba
p1238
I2
sVdt4pqet
p1239
I1
sVd1a2h64
p1240
I1
sVdghcwk7
p1241
I1
sVd6azp0w
p1242
I2
sVdgljb7q
p1243
I1
sVd1fzby0
p1244
I1
sVdgjys5h
p1245
I1
sVdd4j6lb
p1246
I1
sVdi3ugrr
p1247
I2
sVdd5n21y
p1248
I2
sVdqze2qf
p1249
I1
sVdqv5ycp
p1250
I1
sVcyj56ry
p1251
I1
sVd9lghuv
p1252
I1
sVdo7ttb0
p1253
I2
sVdbwz7c8
p1254
I1
sVczfh5rj
p1255
I1
sVdt9a8zm
p1256
I2
sVdi3no8j
p1257
I1
sVdei97o9
p1258
I2
sVdcxpf48
p1259
I1
sVdcqr4my
p1260
I1
sVd6tlfbv
p1261
I2
sVdf5q6cx
p1262
I1
sVd2yxix6
p1263
I1
sVdbwx378
p1264
I1
sVdgh2kos
p1265
I1
sVdmuqvni
p1266
I1
sVczcfi0c
p1267
I1
sVdmkav6w
p1268
I1
sVd1h992u
p1269
I1
sVd9um0ee
p1270
I1
sVcywdvvr
p1271
I1
sVcz6vcuj
p1272
I1
sVd6zx3y8
p1273
I1
sVdc10e9v
p1274
I1
sVd60e1ck
p1275
I1
sVdg7ecxs
p1276
I1
sVdt07yz4
p1277
I2
sVd7o1wpd
p1278
I1
sVdc0tofc
p1279
I20
sVd3ndraq
p1280
I1
sVdgoo4ne
p1281
I3
sVd33acv5
p1282
I2
sVdg5onyy
p1283
I1
sVdr4z6gu
p1284
I1
sVd3i4l7w
p1285
I1
sVdjfodff
p1286
I1
sVdkkjugi
p1287
I1
sVd5om9f6
p1288
I6
sVd120qw4
p1289
I1
sVd1cau78
p1290
I1
sVdtjhxjb
p1291
I1
sVd4sk8c0
p1292
I2
sVcyq57g8
p1293
I1
sVczzhctq
p1294
I2
sVdh7mk0f
p1295
I1
sVczovo1s
p1296
I1
sVdkdbdkv
p1297
I1
sVcyxccaa
p1298
I1
sVdd46lnc
p1299
I1
sVd9bhdsi
p1300
I1
sVd5dmih9
p1301
I1
sVd4hslvt
p1302
I1
sVdklnyb8
p1303
I1
sVd0lqv3d
p1304
I1
sVdfzwtux
p1305
I1
sVd39aoje
p1306
I2
sVd14wa37
p1307
I1
sVderifwk
p1308
I1
sVd4xihmk
p1309
I1
sVd7vo6fi
p1310
I1
sVdrcaol1
p1311
I1
sVd65h3dn
p1312
I1
sVdsn7e73
p1313
I1
sVd3wqbui
p1314
I1
sVdcag6tu
p1315
I1
sVdteldka
p1316
I2
sVd5p60q6
p1317
I1
sVdnr6ale
p1318
I1
sVd2lu0tx
p1319
I1
sVdasi9p7
p1320
I2
sVd75spyt
p1321
I1
sVd1ql7ps
p1322
I1
sVdh2ic91
p1323
I2
sVdi2m2x4
p1324
I1
sVdn4hgo4
p1325
I1
sVd20hmx0
p1326
I1
sVdgjl3vt
p1327
I1
sVdn1stkd
p1328
I1
sVdt7avf3
p1329
I2
sVd3nzk5e
p1330
I1
sVdgtqw0r
p1331
I2
sVczd7m54
p1332
I1
sVdaqky0i
p1333
I1
sVdjonsy9
p1334
I1
sVdb50caq
p1335
I1
sVdghe13e
p1336
I4
sVdoja5mw
p1337
I1
sVdrx87lf
p1338
I2
sVd2sgr4r
p1339
I1
sVczfblel
p1340
I1
sVd1c5pvh
p1341
I1
sVd2ct8qh
p1342
I1
sVd6qt2qf
p1343
I1
sVdaa8rv1
p1344
I1
sVd8oy637
p1345
I1
sVdfgs89z
p1346
I1
sVd071yy1
p1347
I1
sVd97x8pz
p1348
I1
sVd85klyw
p1349
I1
sVdbi2htc
p1350
I1
sVd63n4r0
p1351
I2
sVdf6e9p2
p1352
I1
sVdipwrau
p1353
I4
sVd1eisv3
p1354
I3
sVdkczlzf
p1355
I1
sVdjsjga0
p1356
I1
sVd0iyiyb
p1357
I1
sVd8upwf2
p1358
I1
sVd1k4hmg
p1359
I2
sVd08nxu2
p1360
I1
sVd6kja62
p1361
I1
sVd3z6mga
p1362
I1
sVd2iu1au
p1363
I1
sVddr6fey
p1364
I1
sVdthglxd
p1365
I1
sVd4pjh4a
p1366
I1
sVdfmhdee
p1367
I1
sVdj10hm0
p1368
I2
sVd3e2vt9
p1369
I1
sVd5a0jsv
p1370
I1
sVd0gltot
p1371
I1
sVdabeydn
p1372
I1
sVd1ou6bz
p1373
I2
sVd93asa4
p1374
I1
sVd19cl50
p1375
I1
sVczleqtv
p1376
I1
sVd8y3wen
p1377
I1
sVd6k29dc
p1378
I1
sVd3ucol3
p1379
I1
sVd024na9
p1380
I1
sVd0mrto7
p1381
I1
sVd1ooum7
p1382
I1
sVd37kyvq
p1383
I1
sVdhqbnck
p1384
I1
sVd8of58e
p1385
I1
sVdfavdy4
p1386
I1
sVdaazalo
p1387
I1
sVd13w8p5
p1388
I3
sVdk1ddb0
p1389
I1
sVczog66e
p1390
I1
sVd5a1pj9
p1391
I1
sVda3vuxa
p1392
I1
sVdd1oviv
p1393
I1
sVd9yp9zi
p1394
I1
sVdo8epnr
p1395
I1
sVddwjvgl
p1396
I1
sVd23nkvz
p1397
I1
sVd7w0oez
p1398
I1
sVd8os8va
p1399
I1
sVd0fyh0c
p1400
I1
sVden3nte
p1401
I1
sVd5kgaz0
p1402
I1
sVde8ut39
p1403
I3
sVdej9kmy
p1404
I1
sVd4kyj07
p1405
I1
sVde96dws
p1406
I1
sVdgxhmpj
p1407
I1
sVdgdrag4
p1408
I1
sVd0hntg3
p1409
I2
sVdh4slii
p1410
I2
sVdiay10i
p1411
I1
sVddd0bsl
p1412
I1
sVdaxwfww
p1413
I1
sVdfo4613
p1414
I1
sVd7t28hw
p1415
I1
sVcztpt8f
p1416
I1
sVd9otvqy
p1417
I2
sVd3rcxdu
p1418
I1
sVd5epmge
p1419
I1
sVdip8fdp
p1420
I1
sVdog8wez
p1421
I1
sVdi7t1rh
p1422
I1
sVd016wol
p1423
I1
sVdf8uduu
p1424
I2
sVddwhhst
p1425
I1
sVdf4r97n
p1426
I1
sVd2casgt
p1427
I1
sVcykj6nb
p1428
I1
sVdf5h99c
p1429
I1
sVdssphx6
p1430
I1
sVdbjc1bg
p1431
I1
sVdjsfvyh
p1432
I1
sVdakwfry
p1433
I1
sVd1syjxk
p1434
I1
sVd7zbq9n
p1435
I1
sVdakgdki
p1436
I6
sVczb3z20
p1437
I2
sVde9zxcu
p1438
I1
sVcztgbu3
p1439
I1
sVdstps8c
p1440
I2
sVdd7tcxt
p1441
I1
sVd0rt9xz
p1442
I1
sVdhv7p6r
p1443
I1
sVda0lhq4
p1444
I1
sVd0y7utg
p1445
I1
sVd7i5046
p1446
I2
sVd52jf7p
p1447
I1
sVd51s1yb
p1448
I1
sVdcvook7
p1449
I1
sVdab8m1n
p1450
I1
sVd7oipgd
p1451
I1
sVd3r1vev
p1452
I1
sVd4z6zin
p1453
I1
sVd31ewa0
p1454
I1
sVd5j4gbj
p1455
I1
sVddfb3fj
p1456
I1
sVddcrjjg
p1457
I1
sVd0hry50
p1458
I1
sVdcnq0ye
p1459
I1
sVdggv193
p1460
I1
sVd7saucr
p1461
I1
sVdbnifdx
p1462
I3
sVdo5n962
p1463
I1
sVd4qzm3r
p1464
I4
sVd3c06s4
p1465
I1
sVdctxxqb
p1466
I1
sVda9y5mz
p1467
I1
sVd3qy0ij
p1468
I2
sVd9dklrp
p1469
I2
sVd6az8fy
p1470
I2
sVde8l999
p1471
I1
sVd7gt488
p1472
I1
sVdbr67pt
p1473
I1
sVd89hppz
p1474
I1
sVdp9vgax
p1475
I1
sVdoccn8v
p1476
I1
sVdp1bqk2
p1477
I1
sVd2doqe9
p1478
I1
sVczz12x0
p1479
I1
sVdfb4lav
p1480
I1
sVd3rfpjs
p1481
I1
sVd04jjmu
p1482
I1
sVd887m8x
p1483
I1
sVd0vuvks
p1484
I1
sVdcqy2kq
p1485
I1
sVcz46qr0
p1486
I1
sVdi9l83g
p1487
I1
sVd7slg3w
p1488
I1
sVd9efti5
p1489
I1
sVd0sw3zj
p1490
I1
sVd1napmt
p1491
I1
sVcyog3md
p1492
I1
sVdg8r4u1
p1493
I1
sVdfqiknc
p1494
I1
sVd7szxsx
p1495
I1
sVd8qtvax
p1496
I1
sVdqkxfx8
p1497
I1
sVd6envtl
p1498
I1
sVdteyuuj
p1499
I1
sVd8k54p4
p1500
I1
sVdaoo5sf
p1501
I1
sVd2v2h0f
p1502
I1
sVdt6iqml
p1503
I2
sVd72pxtu
p1504
I1
sVdilyxmo
p1505
I1
sVd08p81o
p1506
I1
sVcyy3ut7
p1507
I1
sVdjox74f
p1508
I1
sVdkidzqn
p1509
I1
sVczh50ub
p1510
I1
sVd87jkae
p1511
I2
sVdnyn8lk
p1512
I1
sVdr6otph
p1513
I1
sVcz8s0ac
p1514
I1
sVczt8pum
p1515
I1
sVd37bcay
p1516
I2
sVdr83tyt
p1517
I1
sVd1hbzrn
p1518
I1
sVd0d3cxt
p1519
I1
sVd7ysgph
p1520
I1
sVd3l4sn8
p1521
I1
sVddvhlzg
p1522
I1
sVdp9hbkz
p1523
I1
sVd7u94mu
p1524
I1
sVd1rrx2b
p1525
I1
sVczdzxmh
p1526
I1
sVddi0c5g
p1527
I2
sVdcijbte
p1528
I1
sVdoyukyj
p1529
I1
sVdfl6osi
p1530
I1
sVdkclc75
p1531
I1
sVdpiq6da
p1532
I1
sVd17xgdz
p1533
I1
sVdfbxxjt
p1534
I1
sVdfn4s75
p1535
I1
sVczav3zi
p1536
I1
sVdhzncw8
p1537
I1
sVd93qgmr
p1538
I2
sVddmqn06
p1539
I1
sVd6nqk9r
p1540
I1
sVdevifig
p1541
I1
sVd1l90rr
p1542
I1
sVd71iib6
p1543
I1
sVdpp3khw
p1544
I2
sVd6eg19e
p1545
I1
sVd05yqk6
p1546
I1
sVd673ol4
p1547
I1
sVd52g6ur
p1548
I1
sVd6ujynz
p1549
I1
sVd09gcws
p1550
I1
sVdezl2x6
p1551
I1
sVdh7vo21
p1552
I1
sVdb1fg61
p1553
I1
sVddgegba
p1554
I1
sVd3g3u9h
p1555
I1
sVdgf8bl9
p1556
I1
sVd0db6dr
p1557
I1
sVcyjbfxg
p1558
I2
sVdfkx0a0
p1559
I1
sVdoek91u
p1560
I1
sVd1qp0st
p1561
I2
sVdh9c1ep
p1562
I1
sVdk5r1rn
p1563
I1
sVd3qivvf
p1564
I1
sVdp9vwg6
p1565
I3
sVdfvsoso
p1566
I1
sVdd5d7pl
p1567
I1
sVd2azy1w
p1568
I1
sVdhlqchl
p1569
I1
sVd07z07e
p1570
I1
sVd6idich
p1571
I1
sVd2cru9a
p1572
I1
sVda600mf
p1573
I1
sVdix79n5
p1574
I1
sVdbja5ew
p1575
I1
sVd2sha5w
p1576
I1
sVdjtjgoj
p1577
I2
sVdda2ds3
p1578
I1
sVdqwogba
p1579
I1
sVdcvt9br
p1580
I2
sVd57xbnh
p1581
I1
sVd94jhcp
p1582
I1
sVd8gdhdd
p1583
I1
sVdih96jp
p1584
I3
sVdilw72i
p1585
I1
sVdirtvnb
p1586
I1
sVdmelrrh
p1587
I1
sVdrt3hyb
p1588
I1
sVdkmo3ml
p1589
I1
sVd90ivso
p1590
I1
sVdd0ss4x
p1591
I1
sVd2hb784
p1592
I1
sVd3qtzjt
p1593
I2
sVd5at6dq
p1594
I1
sVcyv0sxv
p1595
I1
sVddo6tfn
p1596
I1
sVdhxq3wh
p1597
I1
sVdbks070
p1598
I1
sVdg88x52
p1599
I1
sVd0g62bb
p1600
I1
sVditbs03
p1601
I1
sVd0i6pps
p1602
I1
sVdawv2sk
p1603
I1
sVd5tihhl
p1604
I1
sVd3qzhlh
p1605
I1
sVdi80any
p1606
I1
sVd0ft59c
p1607
I1
sVdmimazy
p1608
I1
sVd7fbzf5
p1609
I1
sVcysy36b
p1610
I1
sVdg3hb05
p1611
I1
sVdjtnyz4
p1612
I1
sVdjzst2i
p1613
I2
sVd64veyw
p1614
I1
sVdb23ccj
p1615
I1
sVdqw27im
p1616
I1
sVd4zrl88
p1617
I1
sVdfpwmt5
p1618
I1
sVdrglb9y
p1619
I1
sVdihi922
p1620
I1
sVczjcllu
p1621
I1
sVd5rqf0l
p1622
I1
s.