(dp0
Vd86venn
p1
I2
sVdio6fgc
p2
I2
sVdd6msek
p3
I1
sVdeyqnea
p4
I1
sVdnh3a9j
p5
I1
sVd07lo4h
p6
I1
sVd0d819v
p7
I1
sVd67uev8
p8
I1
sVdizjhwn
p9
I1
sVd0jh4t8
p10
I1
sVd2unh2e
p11
I1
sVd78q8xk
p12
I5
sVdgpcse0
p13
I1
sVd02ql2d
p14
I1
sVd1kakj0
p15
I2
sVd90wzsr
p16
I1
sVdjbmzb3
p17
I2
sVdh9y05c
p18
I1
sVdfwv9v6
p19
I1
sVd0y33oq
p20
I1
sVdggol6c
p21
I3
sVdexrqgu
p22
I4
sVd4ysnp5
p23
I2
sVczs3qi5
p24
I1
sVdhljbu3
p25
I7
sVddaol7z
p26
I4
sVd0ljivv
p27
I1
sVd06l2lx
p28
I1
sVdnb4hnz
p29
I2
sVdtfk5yz
p30
I1
sVda88i26
p31
I2
sVd8rcth0
p32
I4
sVd5vufov
p33
I1
sVd4bjxaa
p34
I1
sVd17r19e
p35
I1
sVd99pjx9
p36
I1
sVd9zhghq
p37
I1
sVdinixif
p38
I1
sVdb09rqo
p39
I2
sVd5vw640
p40
I1
sVd2nrh9b
p41
I1
sVdbtwasz
p42
I1
sVd3m4i3s
p43
I7
sVd3il1s3
p44
I1
sVddia9hg
p45
I1
sVd38z57l
p46
I1
sVd24d6je
p47
I2
sVdaitbd0
p48
I1
sVddhsget
p49
I1
sVd32kud7
p50
I2
sVd24cx80
p51
I4
sVd315iq2
p52
I1
sVdgpcri6
p53
I1
sVdcc1dqv
p54
I1
sVczod1g3
p55
I3
sVd5vzea2
p56
I1
sVdcr5c2j
p57
I1
sVdjcd8be
p58
I1
sVdi6vhow
p59
I1
sVdat0abj
p60
I1
sVd126g2i
p61
I1
sVdjtanyk
p62
I1
sVdfnj4io
p63
I1
sVd90sp81
p64
I1
sVdc4cbvh
p65
I1
sVd8fexav
p66
I1
sVd0j6bao
p67
I1
sVdeqd3ie
p68
I2
sVde60dql
p69
I1
sVd5w6pv9
p70
I4
sVd4mr570
p71
I1
sVd1k9x9b
p72
I1
sVd0xagb1
p73
I1
sVdbdg330
p74
I1
sVd5vyu97
p75
I6
sVczoaejs
p76
I2
sVdaf3tvl
p77
I1
sVdepo67a
p78
I1
sVdd2ml5i
p79
I1
sVczoa629
p80
I1
sVdeqwmg1
p81
I1
sVd054wjr
p82
I2
sVdh0sjz9
p83
I1
sVdizjuo2
p84
I1
sVd7yz3gy
p85
I1
sVd0f869x
p86
I1
sVddl8xlm
p87
I2
sVd7hyfzs
p88
I1
sVd7kwji6
p89
I1
sVcyt1b8n
p90
I1
sVdbfaoc3
p91
I2
sVd4ijy4s
p92
I1
sVdd8f5gt
p93
I1
sVdcvu21g
p94
I1
sVdg5eper
p95
I1
sVd86u55m
p96
I1
sVcyj6gxj
p97
I1
sVdryaz6k
p98
I1
sVdcxgjmx
p99
I1
sVd3udon9
p100
I1
sVdtgg9ei
p101
I3
sVddesxq9
p102
I1
sVczm3rlh
p103
I1
sVd6une0r
p104
I1
s.