(dp0
Vdhzyzak
p1
I1
sVdfx8v4w
p2
I1
sVcyic8x9
p3
I1
sVd0sht8o
p4
I1
sVd1b9z5b
p5
I1
sVdpw849n
p6
I1
sVd0k6egh
p7
I1
sVd2kjhbw
p8
I1
sVdb9hct9
p9
I1
sVczbcwki
p10
I1
sVczplcfg
p11
I1
sVdjoa5w2
p12
I1
sVdaqgqdu
p13
I1
sVdfhkk10
p14
I1
sVdi8jju2
p15
I1
sVczn9ct1
p16
I1
sVd2bg8ys
p17
I1
sVdkyd0xt
p18
I1
sVdksoqod
p19
I1
sVd5kkhhh
p20
I1
sVddrhc8n
p21
I1
sVdb0ltru
p22
I1
sVdb6kjee
p23
I1
sVcylkb59
p24
I1
sVd5shj5w
p25
I1
sVczifjtv
p26
I1
sVd10ti1r
p27
I1
sVd4tbmsa
p28
I1
sVd8jf4hy
p29
I1
sVd18omdh
p30
I1
sVdaqdhzy
p31
I1
sVdegbytn
p32
I1
sVd125jio
p33
I1
sVd5bgcm5
p34
I1
sVddhqebg
p35
I1
sVdimlm5t
p36
I1
sVd3u95ke
p37
I1
sVd6j422l
p38
I1
sVczpm87m
p39
I1
sVdg2jakm
p40
I1
sVde6btkm
p41
I1
sVdp3tpiu
p42
I1
sVdf6u0xj
p43
I1
sVdmrt8he
p44
I1
sVd1meisg
p45
I1
sVdk531uu
p46
I1
sVdn63srg
p47
I1
sVd7abluh
p48
I1
sVdeh37mf
p49
I2
sVd12o2af
p50
I1
sVd4ndl1q
p51
I1
sVcyi60jv
p52
I1
sVdobwle0
p53
I1
sVdri8e6j
p54
I2
sVcyhzvzx
p55
I1
sVd52iblh
p56
I1
sVd8ltxp2
p57
I1
sVdav3tr0
p58
I1
sVd5k9r9r
p59
I1
sVd70l14b
p60
I1
sVdesfzl7
p61
I3
sVdtdh1h4
p62
I1
sVdd8pgd3
p63
I1
sVdbvebey
p64
I1
sVd0vi0es
p65
I1
sVdfkeorp
p66
I1
sVdhluzcf
p67
I1
sVdhio4m2
p68
I1
sVdgdpssb
p69
I1
sVdpovmb9
p70
I1
sVd2q55fh
p71
I1
sVd92aojo
p72
I1
sVd8hm54u
p73
I1
sVdkfaadv
p74
I1
sVdmtqh07
p75
I1
sVda0g5jg
p76
I1
sVd2pc4gw
p77
I1
sVdhn1f24
p78
I1
sVdo2impj
p79
I1
sVdceilxz
p80
I1
sVdfiv2b7
p81
I1
sVdrkqvwh
p82
I1
sVdhr8ob7
p83
I1
sVdcvet1a
p84
I1
sVdh67ydn
p85
I1
sVczzyfpp
p86
I1
sVdkz46j3
p87
I1
sVdd8ldg4
p88
I1
sVdhj61xb
p89
I1
sVdfvhgfg
p90
I1
sVczcdf49
p91
I2
sVcyx199v
p92
I1
sVd22a55g
p93
I1
sVdgka7i1
p94
I1
sVdj0jbzk
p95
I1
sVdgnfxln
p96
I1
sVdaxuyc9
p97
I1
sVd5ikj5n
p98
I1
sVd392i7f
p99
I1
sVd41501h
p100
I1
sVczg1xgl
p101
I1
sVdeh1xav
p102
I1
sVd1qalkh
p103
I1
sVcyyhwk2
p104
I1
sVdikkqg1
p105
I1
sVd2870p5
p106
I1
sVd16i4ry
p107
I1
sVczf2230
p108
I2
sVd8469qa
p109
I1
sVd64biir
p110
I1
sVdg9srfc
p111
I1
sVdpaqicv
p112
I1
sVcyvs2q1
p113
I1
sVd9zlx2v
p114
I1
sVd9grq05
p115
I1
sVdt6gvgs
p116
I1
sVdcpx0r3
p117
I1
sVcypjp31
p118
I1
sVczc5tgo
p119
I1
sVd826eml
p120
I1
sVdflxac5
p121
I1
sVdtie98z
p122
I1
sVd8try9z
p123
I1
sVd1x2d5d
p124
I1
sVdepv46i
p125
I1
sVd1trfc9
p126
I1
sVczn8bwo
p127
I1
sVdfnmn8i
p128
I1
sVdiz2ipm
p129
I1
sVd17y0gl
p130
I1
sVdiidfsk
p131
I1
sVd7b8hw6
p132
I1
sVddhdaa0
p133
I1
sVdbvxdqw
p134
I1
sVd4jrf2z
p135
I1
sVdjci5np
p136
I1
sVdh07zg0
p137
I1
sVd0wv1s1
p138
I1
sVdkqr78n
p139
I1
sVdd9a3af
p140
I1
sVdi65w5s
p141
I1
sVd2rupvi
p142
I1
sVdfxl0wa
p143
I2
sVdckljis
p144
I1
sVdnxzmcj
p145
I1
sVdc49cax
p146
I1
sVcztmgx8
p147
I1
sVddqrwr6
p148
I1
sVdbviirk
p149
I1
sVdeoafxq
p150
I1
sVd50g7xo
p151
I1
sVdml2k79
p152
I1
sVdgv6hau
p153
I1
sVdsqwpgu
p154
I1
sVcz8luq4
p155
I1
sVd56h4se
p156
I1
sVd619vy9
p157
I1
sVdpr1ly9
p158
I1
sVdixjzk2
p159
I1
sVdf1hxzk
p160
I1
sVd0axhka
p161
I1
sVdcghtye
p162
I1
sVd01yllj
p163
I1
sVdnob07x
p164
I1
sVcyrs9tk
p165
I1
sVdfn277t
p166
I1
sVczifp7a
p167
I1
sVdn1bfq8
p168
I4
sVdp4towa
p169
I1
sVd38pot1
p170
I1
sVdqcv4z5
p171
I1
sVdi5kn8t
p172
I2
sVd544a5q
p173
I6
sVdhl53fh
p174
I2
sVdn01puf
p175
I1
sVdaze665
p176
I1
sVdqw3o3g
p177
I1
sVdct5ixr
p178
I1
sVd1n3afg
p179
I1
sVd0jd0g5
p180
I1
sVd5whp1p
p181
I1
sVds4svrj
p182
I1
sVdg4e2g9
p183
I1
sVd21mxgs
p184
I1
sVdiaiukj
p185
I2
sVd33mr3f
p186
I1
sVd9de9au
p187
I1
sVdn5598v
p188
I1
sVdd3vzer
p189
I1
sVdivbl98
p190
I1
sVd1pxruh
p191
I1
sVd2w7n0k
p192
I1
sVdbh6kkz
p193
I1
sVd3wiseg
p194
I2
sVd9hva2r
p195
I1
sVdeg25p6
p196
I1
sVdmqvx54
p197
I1
sVdmji7f8
p198
I1
sVczq6ixf
p199
I1
sVdpoex1l
p200
I1
sVcyjhv6t
p201
I1
sVd6oxia1
p202
I1
sVd0hvdog
p203
I2
sVd3fi1em
p204
I1
sVd4b64d1
p205
I1
sVdfvbauq
p206
I1
sVd7ydajw
p207
I1
sVdhagudg
p208
I1
sVd89j69e
p209
I1
sVd5v3hn4
p210
I1
sVcyzao4w
p211
I1
sVd05p27z
p212
I1
sVdilq2jv
p213
I1
sVd3fr8an
p214
I1
sVdev3zc6
p215
I1
sVd7n1a3r
p216
I1
sVcywsmbw
p217
I1
sVdt6b2zu
p218
I1
sVdr2hjmy
p219
I1
sVdehtwoc
p220
I1
sVdfg58wk
p221
I2
sVdmqvii6
p222
I1
sVd1b89do
p223
I1
sVd417oxv
p224
I1
sVddbe7qq
p225
I1
sVd8bkt7r
p226
I1
sVdiy6bb1
p227
I4
sVczh0234
p228
I1
sVdkvmonr
p229
I1
sVdgx9wrr
p230
I1
sVd5a4uh7
p231
I2
sVdpyzk5p
p232
I1
sVdj3awni
p233
I1
sVd9a3xhz
p234
I1
sVdb6ycpu
p235
I1
sVdirw5pg
p236
I2
sVd2ppyza
p237
I2
sVd5kcjl9
p238
I1
sVdecfxvt
p239
I2
sVd7h12vu
p240
I1
sVdpvaoui
p241
I1
sVd5d675w
p242
I1
sVdgi7fi9
p243
I1
sVdejg8xk
p244
I1
sVd42cbeg
p245
I1
sVdo4gr2y
p246
I1
sVd6jgjg6
p247
I1
sVdkbkfc5
p248
I1
sVd9qjnrl
p249
I1
sVdfrtctj
p250
I1
sVd9zzuv0
p251
I1
sVdalr1hd
p252
I1
sVdfy10b1
p253
I1
sVd1tk8zp
p254
I1
sVd5ryf5r
p255
I3
sVdiy8b0d
p256
I2
sVdb1rjvy
p257
I1
sVdjnx1m5
p258
I1
sVdbvelsd
p259
I1
sVdi7zcqa
p260
I1
sVda1pvz2
p261
I1
sVd4jpcfn
p262
I1
sVcysfebb
p263
I1
sVd1h9ol2
p264
I1
sVdj69xr7
p265
I1
sVcyp03fr
p266
I1
sVd3sj2z8
p267
I1
sVd6f7v56
p268
I4
sVd68jaic
p269
I1
sVdjk55xq
p270
I1
sVdeuywfn
p271
I1
sVd8gvx64
p272
I1
sVczrt1dj
p273
I1
sVd5x7lym
p274
I1
sVdaw6bve
p275
I1
sVdn16nmm
p276
I2
sVdsnyksf
p277
I1
sVdg1zq56
p278
I1
sVdbia8xu
p279
I1
sVd3yw9q9
p280
I1
sVd2fdo65
p281
I1
sVdqo5sri
p282
I1
sVd5992de
p283
I1
sVdgvrju1
p284
I1
sVd6opgbc
p285
I1
sVd65de1y
p286
I1
sVddfuawc
p287
I1
sVdgdw38b
p288
I1
sVdjg3gn2
p289
I1
sVdj4az8r
p290
I1
sVdic24q5
p291
I1
sVczqk9zf
p292
I1
sVdb99iy1
p293
I1
sVdibgokh
p294
I1
sVczzuvgo
p295
I1
sVd4dnaw6
p296
I1
sVdh0i39k
p297
I1
sVdfh28y1
p298
I1
sVdk9727r
p299
I1
sVcz9w787
p300
I1
sVdcjpx3x
p301
I1
sVdhkg2vw
p302
I1
sVd27t1cc
p303
I1
sVd86cp86
p304
I1
sVdd8y1js
p305
I1
sVd7wlycd
p306
I1
sVczz4t0o
p307
I1
sVdh2hswj
p308
I2
sVd5xnft6
p309
I1
sVczztjmn
p310
I1
sVd2e7hw1
p311
I1
sVd426yty
p312
I1
sVdbkz1l0
p313
I1
sVd0cssym
p314
I1
sVdc1gwpw
p315
I3
sVdf15xjm
p316
I1
sVdgudiiq
p317
I1
sVd4rbrwk
p318
I1
sVdahgks4
p319
I1
sVdjy7nyk
p320
I1
sVdgr8u8t
p321
I1
sVd4k673h
p322
I1
sVd0i6h7t
p323
I1
sVdsvf2tv
p324
I1
sVd110n3s
p325
I1
sVdbtf1sh
p326
I1
sVd0fsvdh
p327
I2
sVdr5jwtr
p328
I1
sVd0twy7e
p329
I1
sVcywchmq
p330
I2
sVd3ak3gs
p331
I1
sVd4foue2
p332
I1
sVdk2d3or
p333
I1
sVd0wwwfc
p334
I3
sVdt8qa05
p335
I1
sVd9d6kyy
p336
I1
sVcyv6bkk
p337
I1
sVdnzdj4u
p338
I1
sVd5rhh7d
p339
I1
sVdmugj3v
p340
I1
sVdkqz2e0
p341
I1
sVd328e29
p342
I1
sVd1wread
p343
I1
sVdmfxvun
p344
I1
sVdfvk1v6
p345
I1
sVdcgkrrf
p346
I1
sVd35gm4j
p347
I1
sVdd8vcr0
p348
I1
sVd7hvdxm
p349
I1
sVdh2hm9u
p350
I1
sVdqb5fsy
p351
I1
sVd4omfcm
p352
I1
sVd71om97
p353
I1
sVczh502g
p354
I1
sVddh5p85
p355
I1
sVd96xx0l
p356
I2
sVd55vv0r
p357
I1
sVd3w1cu1
p358
I1
sVd19530g
p359
I1
sVd1q03l1
p360
I1
sVd6pk0f8
p361
I1
sVdmno4s7
p362
I2
sVd7kc98u
p363
I1
sVd13pqfc
p364
I1
sVdc5zpm1
p365
I1
sVd44xyuk
p366
I1
sVdex1ajy
p367
I1
sVd0us7j4
p368
I1
sVdd00vhz
p369
I2
sVdkl7m6q
p370
I1
sVdcaeie3
p371
I1
sVd4t7blg
p372
I1
sVdk5o19i
p373
I1
sVcz0oypp
p374
I1
sVded4xin
p375
I1
sVd6mfpbt
p376
I1
sVdg43892
p377
I1
sVd3mjpng
p378
I1
sVdaltowm
p379
I1
sVdfkiest
p380
I2
sVd5dfwpv
p381
I1
sVd8gl7am
p382
I1
sVdc6usmu
p383
I1
sVdah3rzi
p384
I1
sVd6tau8e
p385
I1
sVdd1yji5
p386
I1
sVdar88jw
p387
I1
sVczzw187
p388
I1
s.