(dp0
Vddj35od
p1
I1
sVdibht6q
p2
I1
sVdp9ut6q
p3
I1
sVd85yjq2
p4
I1
sVdqspudy
p5
I1
sVde0swnm
p6
I1
sVczivhkf
p7
I1
sVdskpdmd
p8
I2
sVdaer4z8
p9
I1
sVd56eojy
p10
I1
sVdj658g7
p11
I1
sVczpf8up
p12
I1
s.