(dp0
Vczlfuwe
p1
I1
s.(dp0
Vczlfuwe
p1
I1
sVd39kw0b
p2
I1
s.(dp0
Vd8y8xh6
p1
I1
sVczlfuwe
p2
I1
s.(dp0
Vd940be5
p1
I1
sVczlfuwe
p2
I1
s.(dp0
Vczlfuwe
p1
I1
sVdck22j6
p2
I1
s.(dp0
Vczlfuwe
p1
I1
sVdcyl0x1
p2
I1
s.(dp0
Vde6xjbq
p1
I1
sVczlfuwe
p2
I1
s.(dp0
Vdempr4d
p1
I1
sVczlfuwe
p2
I1
s.(dp0
Vdfgkxt3
p1
I1
sVczlfuwe
p2
I1
s.(dp0
Vdg6cul7
p1
I1
sVczlfuwe
p2
I1
s.(dp0
Vdicbtjd
p1
I1
sVczlfuwe
p2
I1
s.(dp0
Vdigj51g
p1
I1
sVczlfuwe
p2
I1
s.(dp0
Vczlfuwe
p1
I1
sVdjlck9r
p2
I1
s.(dp0
Vczlfuwe
p1
I1
sVdk1fm8j
p2
I1
s.(dp0
Vczlfuwe
p1
I1
sVdkql2hb
p2
I1
s.(dp0
Vczlfuwe
p1
I1
sVdqsfjoh
p2
I1
s.(dp0
Vdqta3hm
p1
I1
sVczlfuwe
p2
I1
s.(dp0
Vdrgyvpb
p1
I1
sVczlfuwe
p2
I1
s.(dp0
Vczlfuwe
p1
I1
sVdrh1vq2
p2
I1
s.