(dp0
Vcyjof1u
p1
I1
s.(dp0
Vcyjof1u
p1
I1
sVcykqdif
p2
I1
s.(dp0
Vcyjof1u
p1
I1
sVcylkua4
p2
I1
s.(dp0
Vcyjof1u
p1
I1
sVcynkliv
p2
I1
s.(dp0
Vcyjof1u
p1
I1
sVcypc6bn
p2
I1
s.(dp0
Vcyjof1u
p1
I1
sVcyt0qh2
p2
I1
s.(dp0
Vcyjof1u
p1
I1
sVcyt0qh2
p2
I1
s.(dp0
Vcyjof1u
p1
I1
sVcyujb7c
p2
I1
s.(dp0
Vcyjof1u
p1
I1
sVcyytkeb
p2
I1
s.(dp0
Vcyjof1u
p1
I1
sVcyytkeb
p2
I1
s.(dp0
Vcyjof1u
p1
I1
sVcz0b3c8
p2
I1
s.(dp0
Vcyjof1u
p1
I1
sVcz0b3c8
p2
I1
s.(dp0
Vcyjof1u
p1
I1
sVcz0bobh
p2
I1
s.(dp0
Vcyjof1u
p1
I1
sVcz50k7u
p2
I1
s.(dp0
Vcyjof1u
p1
I1
sVcz51eh4
p2
I1
s.(dp0
Vcyjof1u
p1
I1
sVcz9431t
p2
I1
s.(dp0
Vcyjof1u
p1
I1
sVcz9431t
p2
I1
s.(dp0
Vcyjof1u
p1
I1
sVcz9oyo9
p2
I1
s.(dp0
Vcyjof1u
p1
I1
sVcz9ytz8
p2
I1
s.(dp0
Vcyjof1u
p1
I1
sVcza97pe
p2
I1
s.(dp0
Vcyjof1u
p1
I1
sVczc8176
p2
I1
s.(dp0
Vcyjof1u
p1
I1
sVczhfiv3
p2
I1
s.(dp0
Vcyjof1u
p1
I1
sVczhnd9n
p2
I1
s.(dp0
Vcyjof1u
p1
I1
sVczigb7l
p2
I1
s.(dp0
Vcyjof1u
p1
I1
sVczjhqx5
p2
I1
s.(dp0
Vcyjof1u
p1
I1
sVczjhqx5
p2
I1
s.(dp0
Vcyjof1u
p1
I1
sVczjhqx5
p2
I1
s.(dp0
Vcyjof1u
p1
I1
sVczmtiw1
p2
I1
s.(dp0
Vcyjof1u
p1
I1
sVczppvgj
p2
I1
s.(dp0
Vcyjof1u
p1
I1
sVczqchck
p2
I1
s.(dp0
Vcyjof1u
p1
I1
sVczqyds8
p2
I1
s.(dp0
Vcyjof1u
p1
I1
sVczqyjn6
p2
I1
s.(dp0
Vcyjof1u
p1
I1
sVczrwwkt
p2
I1
s.(dp0
Vcyjof1u
p1
I1
sVczsx3ht
p2
I1
s.(dp0
Vcyjof1u
p1
I1
sVcztg9jc
p2
I1
s.(dp0
Vcyjof1u
p1
I1
sVcztraa0
p2
I1
s.(dp0
Vcyjof1u
p1
I1
sVczvgvv4
p2
I1
s.(dp0
Vcyjof1u
p1
I1
sVczvonc4
p2
I1
s.(dp0
Vcyjof1u
p1
I1
sVczx17su
p2
I1
s.(dp0
Vcyjof1u
p1
I1
sVczz9gyz
p2
I1
s.(dp0
Vcyjof1u
p1
I1
sVczz9gyz
p2
I1
s.(dp0
Vcyjof1u
p1
I1
sVd00fwj4
p2
I1
s.(dp0
Vcyjof1u
p1
I1
sVd00gyrh
p2
I1
s.(dp0
Vcyjof1u
p1
I1
sVd00gz6f
p2
I1
s.(dp0
Vcyjof1u
p1
I1
sVd00rlyu
p2
I1
s.(dp0
Vcyjof1u
p1
I1
sVd00uhha
p2
I1
s.(dp0
Vcyjof1u
p1
I1
sVd00vcyc
p2
I1
s.(dp0
Vcyjof1u
p1
I1
sVd00y05n
p2
I1
s.(dp0
Vcyjof1u
p1
I1
sVd01fcx5
p2
I1
s.(dp0
Vcyjof1u
p1
I1
sVd034q86
p2
I1
s.(dp0
Vcyjof1u
p1
I1
sVd043lhf
p2
I1
s.(dp0
Vcyjof1u
p1
I1
sVd0451io
p2
I1
s.(dp0
Vcyjof1u
p1
I1
sVd08o21d
p2
I1
s.(dp0
Vcyjof1u
p1
I1
sVd08o21d
p2
I1
s.(dp0
Vcyjof1u
p1
I1
sVd08o8wa
p2
I1
s.(dp0
Vcyjof1u
p1
I1
sVd0bv3d0
p2
I1
s.(dp0
Vcyjof1u
p1
I1
sVd0bv3d0
p2
I1
s.(dp0
Vcyjof1u
p1
I1
sVd0fuo39
p2
I1
s.(dp0
Vcyjof1u
p1
I1
sVd0kxuvg
p2
I1
s.(dp0
Vcyjof1u
p1
I1
sVd0lqv3d
p2
I1
s.(dp0
Vcyjof1u
p1
I1
sVd0m67ps
p2
I1
s.(dp0
Vcyjof1u
p1
I1
sVd0pvvpd
p2
I1
s.(dp0
Vcyjof1u
p1
I1
sVd0sdp7x
p2
I1
s.(dp0
Vcyjof1u
p1
I1
sVd0sg9p8
p2
I1
s.(dp0
Vcyjof1u
p1
I1
sVd0v4j0c
p2
I1
s.(dp0
Vcyjof1u
p1
I1
sVd0w4lgm
p2
I1
s.(dp0
Vcyjof1u
p1
I1
sVd0w7jjl
p2
I1
s.(dp0
Vcyjof1u
p1
I1
sVd0wykr5
p2
I1
s.(dp0
Vcyjof1u
p1
I1
sVd0wykr5
p2
I1
s.(dp0
Vcyjof1u
p1
I1
sVd0xbqri
p2
I1
s.(dp0
Vcyjof1u
p1
I1
sVd0xbqri
p2
I1
s.(dp0
Vcyjof1u
p1
I1
sVd10vpe7
p2
I1
s.(dp0
Vcyjof1u
p1
I1
sVd11bcpa
p2
I1
s.(dp0
Vcyjof1u
p1
I1
sVd12unjv
p2
I1
s.(dp0
Vcyjof1u
p1
I1
sVd146d8y
p2
I1
s.(dp0
Vcyjof1u
p1
I1
sVd15bu22
p2
I1
s.(dp0
Vcyjof1u
p1
I1
sVd15c4x7
p2
I1
s.(dp0
Vcyjof1u
p1
I1
sVd15vicc
p2
I1
s.(dp0
Vcyjof1u
p1
I1
sVd15vicc
p2
I1
s.(dp0
Vcyjof1u
p1
I1
sVd15vicc
p2
I1
s.(dp0
Vcyjof1u
p1
I1
sVd160oi5
p2
I1
s.(dp0
Vcyjof1u
p1
I1
sVd162l93
p2
I1
s.(dp0
Vcyjof1u
p1
I1
sVd16hppk
p2
I1
s.(dp0
Vcyjof1u
p1
I1
sVd16xguu
p2
I1
s.(dp0
Vcyjof1u
p1
I1
sVd19w4m5
p2
I1
s.(dp0
Vcyjof1u
p1
I1
sVd1fa0ur
p2
I1
s.(dp0
Vcyjof1u
p1
I1
sVd1jqghj
p2
I1
s.(dp0
Vcyjof1u
p1
I1
sVd1nriw6
p2
I1
s.(dp0
Vcyjof1u
p1
I1
sVd1qqipk
p2
I1
s.(dp0
Vcyjof1u
p1
I1
sVd1qqipk
p2
I1
s.(dp0
Vcyjof1u
p1
I1
sVd1rp2nf
p2
I1
s.(dp0
Vcyjof1u
p1
I1
sVd1wr52i
p2
I1
s.(dp0
Vcyjof1u
p1
I1
sVd1wr52i
p2
I1
s.(dp0
Vcyjof1u
p1
I1
sVd1x7j8a
p2
I1
s.(dp0
Vcyjof1u
p1
I1
sVd1x7szh
p2
I1
s.(dp0
Vcyjof1u
p1
I1
sVd1x7szh
p2
I1
s.(dp0
Vcyjof1u
p1
I1
sVd1x7szh
p2
I1
s.(dp0
Vcyjof1u
p1
I1
sVd1x7uh2
p2
I1
s.(dp0
Vcyjof1u
p1
I1
sVd1xgh4i
p2
I1
s.(dp0
Vcyjof1u
p1
I1
sVd1xgh4i
p2
I1
s.(dp0
Vcyjof1u
p1
I1
sVd1zq60s
p2
I1
s.(dp0
Vcyjof1u
p1
I1
sVd1zy3co
p2
I1
s.(dp0
Vcyjof1u
p1
I1
sVd20dpae
p2
I1
s.(dp0
Vcyjof1u
p1
I1
sVd21o3mk
p2
I1
s.(dp0
Vcyjof1u
p1
I1
sVd222jcw
p2
I1
s.(dp0
Vcyjof1u
p1
I1
sVd227tge
p2
I1
s.(dp0
Vcyjof1u
p1
I1
sVd227tge
p2
I1
s.(dp0
Vcyjof1u
p1
I1
sVd227tge
p2
I1
s.(dp0
Vcy(dp0
Vcyjof1u
p1
I1
sVdti8tu1
p2
I1
s.