(dp0
Vd2dkw4l
p1
I2
sVd2nepfd
p2
I1
sVd3cy91c
p3
I1
sVd2fwz3r
p4
I2
sVdinhhtg
p5
I1
sVcymc7yw
p6
I1
sVdeet3un
p7
I3
sVdipzigg
p8
I1
sVde60mbs
p9
I2
sVdhbbrtf
p10
I1
sVdcbcdnj
p11
I1
sVd7vz8bv
p12
I1
sVdndqdyc
p13
I1
sVd0rjk7p
p14
I1
sVdk3buzj
p15
I1
sVdeslvs3
p16
I1
sVd5p72ik
p17
I2
sVdh5zp8m
p18
I1
sVdi62lv5
p19
I1
sVdf0keab
p20
I1
sVdirnwev
p21
I1
sVdcbazrt
p22
I1
sVdctuljz
p23
I1
sVde9xkrl
p24
I1
sVczossnd
p25
I1
sVdgctbuw
p26
I1
sVdeajn34
p27
I1
sVdefkc60
p28
I1
sVdi8ty46
p29
I2
sVdkvon10
p30
I1
sVdibp92f
p31
I1
sVd0qkcnv
p32
I1
sVd0rjguv
p33
I1
sVd4yyi28
p34
I1
sVcz07vss
p35
I1
sVd3wv8uf
p36
I1
sVd8mz2ah
p37
I1
sVd06afjw
p38
I1
sVdk2lf4t
p39
I1
sVd65bf0k
p40
I1
sVdfle8zq
p41
I1
sVdkoleaj
p42
I1
sVd49ro9f
p43
I1
sVdedlmkl
p44
I1
sVd9ftvdq
p45
I1
sVdchtah5
p46
I1
sVd17vx60
p47
I1
sVdds923u
p48
I1
sVdd891be
p49
I1
sVd6m3pjp
p50
I1
sVdapq8wd
p51
I1
sVdeg9peu
p52
I2
sVczw5n3n
p53
I1
sVd63n4r0
p54
I1
sVd4gaq9k
p55
I1
sVdelv8aj
p56
I1
sVdqnho4t
p57
I1
sVdhol23h
p58
I2
sVdmqx0r7
p59
I2
sVd9dhy0s
p60
I1
sVdcb7ery
p61
I1
sVd49rmt7
p62
I1
sVd137zu6
p63
I1
sVdd3aaol
p64
I1
sVd0lttbr
p65
I1
sVdhmgjli
p66
I1
sVdj4jiu3
p67
I1
sVddlylfr
p68
I1
sVdc8z7na
p69
I1
sVd2z0yjo
p70
I1
sVcyiy0wt
p71
I1
sVd0wem47
p72
I1
sVdeft2qv
p73
I1
sVcyv33e9
p74
I1
sVd943js0
p75
I1
sVdpw7mnm
p76
I1
sVd5gmwhf
p77
I1
sVczxsbi3
p78
I1
sVdiobj0c
p79
I1
sVd1qdlvf
p80
I2
sVdel59cy
p81
I1
sVcypb664
p82
I1
sVdj8ewxb
p83
I1
sVdj2qwaf
p84
I1
sVdefme1p
p85
I1
sVd64il5i
p86
I1
sVdb8b3g0
p87
I1
sVczbzfo1
p88
I1
sVdcw7jyh
p89
I1
sVd93chlm
p90
I1
sVdhsz4ie
p91
I1
sVdhmrxdv
p92
I1
sVczeje32
p93
I1
sVdi5wyjs
p94
I1
sVd8lfl1q
p95
I1
sVdcki2v1
p96
I1
sVd0ug0x6
p97
I1
sVd6htngi
p98
I2
sVdb7w81h
p99
I1
sVdgl80cv
p100
I1
sVdebpixh
p101
I1
sVdop7zqq
p102
I2
sVddpxe8a
p103
I1
sVdc8yjs2
p104
I1
sVdf8wfvf
p105
I1
sVd5jb4rd
p106
I1
sVd192ah6
p107
I1
sVd20zubu
p108
I1
sVd3jod16
p109
I1
sVdd9y7tw
p110
I1
sVdi6vkla
p111
I1
sVdn1aatq
p112
I2
sVd1isnjm
p113
I1
sVdjclb5v
p114
I1
sVdhfoc27
p115
I2
sVd209r2n
p116
I1
sVd3hc1ma
p117
I1
sVd4mmony
p118
I1
sVd0ars9m
p119
I1
sVddojexa
p120
I1
sVdd7muo0
p121
I1
sVdb56hh7
p122
I1
sVdrq0dxh
p123
I1
sVdgs5f24
p124
I1
sVcz40cgh
p125
I1
sVd1pyo3b
p126
I1
sVd12fk0r
p127
I1
sVdcsh18v
p128
I1
sVd3jw4ae
p129
I1
sVd3e8n2e
p130
I1
sVcyv39sk
p131
I1
sVdgjcfpk
p132
I2
sVddrv68s
p133
I1
sVda8eimn
p134
I1
sVdhc8wou
p135
I2
sVdi1hywu
p136
I1
sVdh0fvln
p137
I1
sVdeh8uii
p138
I1
sVd180ocw
p139
I1
sVd3dtf0v
p140
I1
sVd8pn69p
p141
I1
sVd99b14w
p142
I1
sVdda8on5
p143
I1
sVdrumpkn
p144
I1
sVdht4p0h
p145
I1
sVdel1ld8
p146
I1
sVcykptec
p147
I1
sVd3xdm5r
p148
I1
sVdh0xfqe
p149
I1
sVdg98366
p150
I1
sVdb5lg8a
p151
I1
sVds12x7n
p152
I1
sVde1hfnl
p153
I1
sVdd9sown
p154
I1
sVd7ripko
p155
I1
sVd8d2so1
p156
I1
sVdc4bite
p157
I1
sVdait9nw
p158
I1
sVdia5twd
p159
I1
sVd93byt3
p160
I2
sVdhyrgah
p161
I1
sVczuau8w
p162
I1
sVde5zg76
p163
I1
sVczqu8kv
p164
I1
sVddshtka
p165
I1
sVdcu41c5
p166
I1
sVdetiuut
p167
I5
sVd2dlhf7
p168
I1
sVd0440g0
p169
I1
sVdq1196u
p170
I1
sVdjdijjb
p171
I1
sVd97j706
p172
I1
sVdjubeu2
p173
I1
sVdeg9ek7
p174
I1
sVdi4tl85
p175
I1
sVd3h1dcl
p176
I2
sVd19l7fm
p177
I1
sVdn70tmz
p178
I1
sVd61m3ai
p179
I1
sVdijxlp1
p180
I1
sVdbxtlc5
p181
I1
sVdet6sj8
p182
I1
sVd5xshib
p183
I1
sVdehribl
p184
I1
sVdecvrpy
p185
I1
sVd6tcic6
p186
I1
sVd469t3g
p187
I1
sVd07264i
p188
I1
sVczb86ag
p189
I1
sVdcmk0xu
p190
I1
sVd4gxc2a
p191
I1
sVddo1l6b
p192
I1
sVd1o62zy
p193
I1
sVcyzmapu
p194
I1
sVd06ffw3
p195
I1
sVd626l9n
p196
I1
sVdeg1n4h
p197
I2
s.