(dp0
Vdpa0gud
p1
I5
sVd8oy637
p2
I1
sVdbwcm2a
p3
I1
sVdgkfkt6
p4
I2
sVdmhm5in
p5
I1
sVd9cyynr
p6
I2
sVdkv7bss
p7
I1
sVdbjf7kf
p8
I1
sVd5ee3n5
p9
I1
sVdhz7wby
p10
I1
sVdjjox8h
p11
I1
sVd465lc4
p12
I1
sVd88kvco
p13
I1
sVda32ue2
p14
I1
sVdqctrf1
p15
I1
sVdmmd8zc
p16
I2
sVd4t3wci
p17
I1
sVdqtgf1v
p18
I1
sVd9cphy0
p19
I3
sVd6ngkzl
p20
I1
sVd0qk3jm
p21
I1
sVczt76gh
p22
I1
sVd9cu5qf
p23
I1
sVddeecug
p24
I1
sVdhz9awp
p25
I1
sVd16ylkb
p26
I1
sVd49dcwk
p27
I1
sVd9aucwt
p28
I1
sVd0lfqqb
p29
I1
sVdqo5k9g
p30
I1
sVd6lq5rh
p31
I2
sVdhykbtg
p32
I1
sVdjehaei
p33
I1
sVdpnnt50
p34
I1
sVd2zk43m
p35
I1
sVdp9vwg6
p36
I1
sVdfrv36t
p37
I1
sVds9hp92
p38
I1
sVd7bky2i
p39
I1
sVdgzb743
p40
I1
sVdhw44r7
p41
I1
sVdhz7q8i
p42
I1
sVdistsme
p43
I1
sVdkdokfi
p44
I1
sVdmw9msc
p45
I1
sVda0izg5
p46
I1
sVdhfssfo
p47
I1
sVd3hkowc
p48
I1
sVdjzaybj
p49
I1
sVczzwfea
p50
I1
sVd0cvk4w
p51
I1
sVd5qkimc
p52
I1
sVdbo9ign
p53
I1
sVdavukpj
p54
I1
sVdn5ilb5
p55
I1
s.