(dp0
Vdbmwso1
p1
I1
sVdgjmuxm
p2
I1
sVd88xnwt
p3
I1
sVczz1m7z
p4
I1
sVd3cjsm3
p5
I1
sVd0n4iae
p6
I2
sVdnmj8tz
p7
I1
sVdmib24r
p8
I1
sVd4i8so6
p9
I1
sVd3bls55
p10
I1
sVd7ocxia
p11
I2
sVdcm1gmo
p12
I1
sVddhbx1i
p13
I2
sVdeipq4i
p14
I1
sVd0w5d5l
p15
I1
sVd8jdw43
p16
I1
sVcz0zmgg
p17
I1
sVdmptxi3
p18
I1
sVd7o6gho
p19
I3
sVdraapwn
p20
I2
sVddpxqdq
p21
I1
sVdgv3efj
p22
I2
sVcztgzc9
p23
I1
sVdi2rz1w
p24
I2
sVdfjll9p
p25
I1
sVdfjtlgp
p26
I1
sVdphdwxg
p27
I1
sVdn2rqjj
p28
I1
sVd30irjm
p29
I1
sVdf6vcuc
p30
I1
sVdd56qg1
p31
I2
sVczl16yi
p32
I1
sVd4odqhv
p33
I1
sVd17qhj4
p34
I1
sVdc4ipxm
p35
I3
sVcz3awyw
p36
I1
sVcylkb59
p37
I1
sVdo9s54m
p38
I2
sVdiccnfi
p39
I1
sVdq1bwk1
p40
I1
sVdgni9br
p41
I1
sVdg0cgf6
p42
I1
sVd7kauuc
p43
I2
sVd0bhi5b
p44
I1
sVd2fsmex
p45
I1
sVdh8lqm1
p46
I4
sVdfckyaj
p47
I1
sVcz7px8j
p48
I3
sVdp2o1z9
p49
I1
sVdo8a2zo
p50
I1
sVddelluj
p51
I1
sVd75o6t0
p52
I1
sVd51gszu
p53
I1
sVdd1x3vv
p54
I1
sVdbw84pl
p55
I2
sVd4kltk4
p56
I1
sVdbdurp0
p57
I1
sVd6tk2et
p58
I1
sVcyrqa0t
p59
I2
sVde54xot
p60
I1
sVd0b4d9m
p61
I1
sVcz1krg8
p62
I1
sVczibcku
p63
I2
sVdsouijh
p64
I1
sVczyep98
p65
I1
sVd7gsbcb
p66
I2
sVczvwh9i
p67
I1
sVcz3hh6c
p68
I1
sVd3l2yaj
p69
I1
sVde0stgf
p70
I1
sVdfbmcoa
p71
I1
sVczssz1r
p72
I1
sVdk2n8e5
p73
I1
sVd82qad5
p74
I1
sVd20rjj7
p75
I1
sVd15olxc
p76
I1
sVdaiqncj
p77
I2
sVdj400kc
p78
I1
sVdjndcgw
p79
I1
sVdcevy0i
p80
I1
sVdqfkd1n
p81
I1
sVd32mj8r
p82
I1
sVdgjiow8
p83
I1
sVda946d9
p84
I1
sVd0tenmn
p85
I2
sVczwvnis
p86
I1
sVdclh2a7
p87
I1
sVdb9jogl
p88
I1
sVdfll2nr
p89
I1
sVcymgmk3
p90
I1
sVd4l1mwn
p91
I1
sVd3c0he1
p92
I1
sVdibghj5
p93
I1
sVdab3he3
p94
I1
sVdajpdj7
p95
I1
sVczm9ck2
p96
I1
sVdnkwkhu
p97
I1
sVddcvnu5
p98
I1
sVdj1y25a
p99
I1
sVdk8tvnn
p100
I1
sVdbq9g53
p101
I1
sVds7hslw
p102
I1
sVddtkvb3
p103
I6
sVdh25h3b
p104
I1
sVd0r4zd7
p105
I1
sVd0oe8t4
p106
I1
sVd1uerzz
p107
I1
sVcyl3261
p108
I1
sVczk4ixy
p109
I1
sVdddy2h9
p110
I1
sVdogjhsb
p111
I2
sVd0eqqna
p112
I1
sVdc97qqo
p113
I1
sVd8e80ad
p114
I1
sVdgq8acq
p115
I2
sVdhqzu4q
p116
I1
sVdftgca8
p117
I1
sVdpmw8op
p118
I1
sVd8uker7
p119
I1
sVdhewh5y
p120
I1
sVd6dx7wt
p121
I1
sVdmniw36
p122
I2
sVdgm9gk4
p123
I1
sVdj6x9jl
p124
I2
sVd4i7nf2
p125
I1
sVdrlz3on
p126
I1
sVd35i18t
p127
I1
sVdmq7tdj
p128
I1
sVdbo93af
p129
I1
sVdgkzzew
p130
I1
sVcz6i4if
p131
I1
sVdeq6ogd
p132
I1
sVd1b1aok
p133
I2
sVd5zrlho
p134
I1
sVd8nyy2j
p135
I1
sVd8qdrha
p136
I1
sVczmb20m
p137
I1
sVdn2nw4t
p138
I1
sVdb4rbc8
p139
I1
sVdc4bkgy
p140
I1
sVdbn08bi
p141
I1
sVd2oscvs
p142
I1
sVd12ur2k
p143
I1
sVd715x6o
p144
I1
sVd1ceoqr
p145
I1
sVdeh45nl
p146
I1
sVda1locg
p147
I1
sVdgsc0bl
p148
I1
sVdgpa0lt
p149
I1
sVddhk6n8
p150
I1
sVd7b4yu7
p151
I1
sVd5q5d9c
p152
I3
sVdn55oy7
p153
I4
sVd02a6ay
p154
I1
sVdn4pes9
p155
I1
sVd9nc71v
p156
I1
sVd0lfywr
p157
I1
sVdhchqme
p158
I3
sVd1hh4gw
p159
I1
sVdfoagbw
p160
I1
sVd2p1o63
p161
I1
sVdp680zw
p162
I1
sVd8i2vnz
p163
I2
sVdp9wlma
p164
I2
sVd77epro
p165
I1
sVdnik9v0
p166
I1
sVdbvwinx
p167
I1
sVdpnfalj
p168
I1
sVd30zgt1
p169
I1
sVdc03rit
p170
I1
sVda0tah5
p171
I1
sVd9em5h8
p172
I1
sVd7fzci2
p173
I1
sVddxa273
p174
I1
sVdkkgh2y
p175
I1
sVd1tqmd2
p176
I1
sVcz7ikmp
p177
I1
sVdbv682f
p178
I1
sVdacv33o
p179
I1
sVdhk4faw
p180
I2
sVd61ntgh
p181
I3
sVdcl4ver
p182
I1
sVd5xnzo4
p183
I2
sVdpw6tqh
p184
I1
sVd9pge0l
p185
I1
sVczzaqhw
p186
I1
sVdcqjqfq
p187
I1
sVdcjofm4
p188
I5
sVdit9tkg
p189
I1
sVdnxzw2r
p190
I1
sVdpp7vcw
p191
I3
sVdd7xk0w
p192
I3
sVd04dd8r
p193
I1
sVdky2rh7
p194
I1
sVda1pvz2
p195
I1
sVdawo8ba
p196
I1
sVdaureoq
p197
I1
sVd0vu43v
p198
I1
sVdbs6b2o
p199
I1
sVd9k2atl
p200
I1
sVdsm4ne9
p201
I1
sVd256jsy
p202
I1
sVdhkj60m
p203
I1
sVdb9df2k
p204
I3
sVd9xlqw1
p205
I1
sVdfao4na
p206
I1
sVd12qfrw
p207
I1
sVdbtvojc
p208
I1
sVczow96b
p209
I4
sVdkv5o5a
p210
I3
sVd0r668h
p211
I1
sVdbkmp58
p212
I1
sVdil4ufq
p213
I1
sVdn85xf3
p214
I2
sVdmtu06d
p215
I1
sVczl3bwl
p216
I1
sVd3efn6o
p217
I1
sVdafyy2j
p218
I1
sVdbhod1o
p219
I1
sVcyovlmm
p220
I1
sVczwg9em
p221
I1
sVd7b1wxb
p222
I4
sVddg4tac
p223
I1
sVdg0jln7
p224
I1
sVdb8ug82
p225
I1
sVdjb8eyh
p226
I1
sVdgym0xo
p227
I3
sVdcafjoj
p228
I1
sVdj3ut53
p229
I2
sVdhmgjli
p230
I1
sVd11ldxt
p231
I1
sVd144qj7
p232
I1
sVdfrz5tu
p233
I1
sVdksp313
p234
I1
sVdpv3syo
p235
I1
sVdantcq6
p236
I1
sVdbbpnyw
p237
I1
sVczt9473
p238
I1
sVdoilyk6
p239
I1
sVd3ukz47
p240
I1
sVdhy8y0r
p241
I1
sVd1dnvrj
p242
I2
sVd18as7a
p243
I1
sVd6iyp90
p244
I1
sVd3a36xa
p245
I2
sVdbnn73c
p246
I1
sVdh181ku
p247
I1
sVdenu91t
p248
I2
sVdp89vsv
p249
I1
sVdk4oa8s
p250
I1
sVd2x2qcg
p251
I1
sVdiudhc6
p252
I1
sVdg47duw
p253
I1
sVcz10ghq
p254
I1
sVdqmei6d
p255
I1
sVd0dwidi
p256
I2
sVd8nby0z
p257
I1
sVdje51yh
p258
I1
sVcz3w1yp
p259
I1
sVdn8qvyp
p260
I2
sVdbblpq4
p261
I1
sVdbf0lnp
p262
I1
sVd3lljxe
p263
I1
sVd71l24t
p264
I1
sVdnhxv0m
p265
I2
sVdcbqk4s
p266
I2
sVdjgrlnl
p267
I1
sVdd7xalo
p268
I1
sVdbe5jlt
p269
I1
sVd1ycy36
p270
I1
sVdkv4lvx
p271
I1
sVd8ek67h
p272
I1
sVdcz023j
p273
I1
sVd8kqa0f
p274
I1
sVd080wrk
p275
I1
sVdfi4cd2
p276
I1
sVd0u8r0t
p277
I1
sVd47lcwi
p278
I2
sVd9pmfw4
p279
I1
sVdj3w1nb
p280
I1
sVd5s4km5
p281
I1
sVdk52cmt
p282
I1
sVdcep0du
p283
I1
sVd2vwymh
p284
I1
sVdhiky7t
p285
I1
sVdebgddf
p286
I1
sVcywy78j
p287
I1
sVd2h09ne
p288
I1
sVczmsnkq
p289
I2
sVd8k4oy4
p290
I1
sVdd09vlg
p291
I1
sVdeitmou
p292
I1
sVdihe7ow
p293
I1
sVd00bto9
p294
I2
sVdkp2oav
p295
I1
sVdhom5t4
p296
I1
sVd2ghwa5
p297
I1
sVdivbgrd
p298
I1
sVd5gr22u
p299
I1
sVdpz5pg2
p300
I2
sVdgbjwgv
p301
I1
sVd0mlpqe
p302
I1
sVdn2hein
p303
I1
sVdgfsmr6
p304
I1
sVdcacd99
p305
I1
sVdjt8o7k
p306
I1
sVdocub4r
p307
I1
sVda7zqto
p308
I2
sVdspeqyu
p309
I1
sVdiyroih
p310
I1
sVdq1e4kf
p311
I1
sVd3si5s9
p312
I2
sVd2z35w3
p313
I1
sVdrfzs5d
p314
I1
sVdg174e0
p315
I1
sVd9u3thr
p316
I1
sVd9u1hxo
p317
I1
sVdnbtqk4
p318
I1
sVd922wjj
p319
I1
sVdgsve73
p320
I1
sVddb2vp0
p321
I1
sVd89vkwb
p322
I1
sVdbl17g2
p323
I1
sVdnvc2wa
p324
I1
sVdfwh1aj
p325
I1
sVdg2o467
p326
I2
sVd5yvbft
p327
I1
sVdenncqp
p328
I6
sVdho8dzl
p329
I1
sVdkbto02
p330
I2
sVdd26ijc
p331
I1
sVd5f0o9o
p332
I1
sVd0rqtce
p333
I1
sVdf118ed
p334
I1
sVd3tco7c
p335
I1
sVd1gxi2o
p336
I1
sVd0kuz1o
p337
I2
sVdet2l79
p338
I1
sVd5wp6l2
p339
I1
sVd1ucwqt
p340
I1
sVdfkum55
p341
I1
sVdbrt761
p342
I1
sVdadpkyb
p343
I1
sVdq412bs
p344
I1
sVdi2ehc8
p345
I1
sVdnd01az
p346
I1
sVdng6uwe
p347
I2
sVdsckwde
p348
I1
sVd7n2mnn
p349
I3
sVd7sekny
p350
I2
sVd0dsyl4
p351
I1
sVdsakeqe
p352
I1
sVdrolda2
p353
I1
sVd0hskx8
p354
I2
sVcyp1nwy
p355
I1
sVcylimr2
p356
I1
sVd2hn35n
p357
I1
sVcz08lh5
p358
I1
sVd865crr
p359
I1
sVdfjrxah
p360
I1
sVd28egpb
p361
I1
sVdi3czbx
p362
I1
sVdh07iuo
p363
I1
sVdo7ac1l
p364
I1
sVdawtjwh
p365
I1
sVdcajrea
p366
I1
sVdoryydq
p367
I1
sVdbzvv16
p368
I1
sVdmhzgp9
p369
I1
sVd291lev
p370
I2
sVdk0lg9r
p371
I1
sVdra0anr
p372
I1
sVdenrd7j
p373
I1
sVd6cgcd9
p374
I1
sVdpij2zx
p375
I1
sVd7hr9k0
p376
I1
sVd6z9umj
p377
I1
sVdiw83nu
p378
I1
sVcypke92
p379
I1
sVdfjtlsa
p380
I1
sVd4hnvk7
p381
I1
sVdde8pb5
p382
I1
sVdnbjzu1
p383
I1
sVd2y541b
p384
I1
sVdjmfrdx
p385
I1
sVdbdt708
p386
I4
sVdjmwi0f
p387
I1
sVdbgcnz2
p388
I1
sVddmnerl
p389
I1
sVdben3ka
p390
I1
sVd0xqub8
p391
I3
sVdgrn4ry
p392
I1
sVdavo0vx
p393
I1
sVcz36jv3
p394
I1
sVd30jbrj
p395
I1
sVdbzln3n
p396
I1
sVdip3jae
p397
I1
sVcz4vka8
p398
I1
sVd8llupy
p399
I2
sVd0fbsll
p400
I1
sVdjlphio
p401
I1
sVdeo0pu7
p402
I1
sVdnh7jul
p403
I1
sVdcmym7x
p404
I1
sVd1i6x4u
p405
I1
sVcytw76v
p406
I1
sVd41shuf
p407
I1
sVdhgklcg
p408
I1
sVdnwftuy
p409
I1
sVdameh1x
p410
I1
sVdazxzop
p411
I1
sVd0txc4r
p412
I1
sVdsy35zf
p413
I1
sVdc09a44
p414
I4
sVd306hir
p415
I2
sVd6t5ir5
p416
I1
sVdggowed
p417
I1
sVdbfz64j
p418
I2
sVditzn8d
p419
I1
sVdds79q2
p420
I1
sVdp23ljt
p421
I2
sVdee4isz
p422
I2
sVdsw6y77
p423
I2
sVcytax00
p424
I1
sVdhwvyrq
p425
I1
sVdso67mj
p426
I2
sVdgq9e6t
p427
I1
sVd483mn9
p428
I1
sVd0huh90
p429
I1
sVdjwk0hq
p430
I1
sVd4l11zy
p431
I1
sVd401s57
p432
I1
sVdbi5igx
p433
I1
sVdb0bwtt
p434
I4
sVdngyt1o
p435
I1
sVdd55k4y
p436
I1
sVd7kzfzf
p437
I1
sVd60oevm
p438
I1
sVd5aug4s
p439
I1
sVdak97ae
p440
I1
sVdklxbvy
p441
I1
sVd0dy3o0
p442
I3
sVdd3xtaf
p443
I1
sVdgq8kax
p444
I3
sVddc2f7q
p445
I1
sVdqd224d
p446
I1
sVd6m3j9b
p447
I1
sVd1t3ccu
p448
I1
sVds3ju12
p449
I3
sVdmtwl92
p450
I1
sVdfyfyrs
p451
I1
sVd37dqj9
p452
I1
sVdjlo64l
p453
I1
sVd1ha1st
p454
I1
sVd75j62t
p455
I1
sVdi9ip1k
p456
I1
sVd94yrnv
p457
I1
sVdqhfkhm
p458
I1
sVdhjvklu
p459
I1
sVdaoj160
p460
I1
sVdnx0khb
p461
I2
sVd7pmojk
p462
I1
sVd4snhvx
p463
I2
sVdtd1mpp
p464
I2
sVde2mc06
p465
I5
sVcza545z
p466
I1
sVdbe9e4w
p467
I1
sVdfnoocv
p468
I2
sVdghyrik
p469
I1
sVd5kl5x3
p470
I1
sVdnu0a6v
p471
I1
sVdczeygc
p472
I1
sVdkldckf
p473
I1
sVdesdgh0
p474
I1
sVd7k99r2
p475
I6
sVczk9ndj
p476
I1
sVd09i0gs
p477
I1
sVd8dlds5
p478
I1
sVd8g6dep
p479
I1
sVdses65q
p480
I1
sVd4oas6n
p481
I1
sVdal8ccl
p482
I1
sVdnn8r5m
p483
I1
sVdf8crkz
p484
I1
sVd7sxukr
p485
I1
sVdkeikbi
p486
I1
sVdc7vgfj
p487
I1
sVdoekpq7
p488
I1
sVd43q44p
p489
I1
sVd8er3gr
p490
I1
sVdc17smx
p491
I1
sVdopuj4q
p492
I1
sVdseqsyh
p493
I1
sVdovncfa
p494
I1
sVddfli9p
p495
I1
sVd5144r3
p496
I1
sVdsp5jbc
p497
I2
sVdinsgv4
p498
I2
sVdayqdxo
p499
I1
sVda1zqf0
p500
I1
sVdcuk9tz
p501
I1
sVdffm4dd
p502
I1
sVdex17yx
p503
I2
sVdccrrbo
p504
I1
sVd8dl98e
p505
I2
sVcz93m20
p506
I1
sVdeml3xa
p507
I1
sVda2wwhk
p508
I1
sVdt97rws
p509
I1
sVd49j5gy
p510
I1
sVd8jgw2g
p511
I1
sVde3x3fh
p512
I4
sVdog75f4
p513
I1
sVd5uh39r
p514
I1
sVdk7b186
p515
I2
sVdt8g3bx
p516
I1
sVd8oz0v1
p517
I1
sVd1hu21l
p518
I1
sVd1mqcyh
p519
I1
sVday73pj
p520
I1
sVddkrwa9
p521
I1
sVcypy1hj
p522
I1
sVdijpcyr
p523
I1
sVdf1ya43
p524
I2
sVdazkbm4
p525
I1
sVdck2db2
p526
I1
sVd4jtwtb
p527
I1
sVdgibv35
p528
I2
sVdivvi4j
p529
I1
sVd4pcl3s
p530
I1
sVd0gn6jw
p531
I3
sVdh8jitr
p532
I1
sVd047q8f
p533
I2
sVd8clpdp
p534
I1
sVd14y62t
p535
I1
sVd2ozkl2
p536
I1
sVd3716nl
p537
I1
sVdc8ct3f
p538
I1
sVcyyef9d
p539
I1
sVdjsl30d
p540
I1
sVdq786fh
p541
I1
sVczv2kxm
p542
I1
sVdcz46su
p543
I1
sVd2zevj5
p544
I1
sVczxnwan
p545
I1
sVdrn0g35
p546
I1
sVdq8fwdh
p547
I2
sVdo1d1ew
p548
I1
sVdna121f
p549
I1
sVdagjrhg
p550
I1
sVd03xxeh
p551
I1
sVd0dygtn
p552
I1
sVd85yjq2
p553
I1
sVdn18rbk
p554
I2
sVdedxe2a
p555
I1
sVd74kwbf
p556
I1
sVdh0z5gs
p557
I1
sVd9am90w
p558
I1
sVd6mk9dn
p559
I1
sVdk0cnpi
p560
I1
sVds4ewwf
p561
I2
sVd2v4pi4
p562
I1
sVdidda2c
p563
I1
sVd2wjyxl
p564
I1
sVdqkinqg
p565
I1
sVd9i003w
p566
I1
sVde130iv
p567
I1
sVdn6frle
p568
I1
sVcyn55mp
p569
I2
sVcyyn0bs
p570
I1
sVdfo1v2z
p571
I1
sVdrt12jn
p572
I1
sVd95f4wo
p573
I1
sVdijgfvg
p574
I1
sVd4rpt3i
p575
I1
sVda3r89m
p576
I1
sVdcql1t2
p577
I1
sVd5n93mw
p578
I1
sVde6nu6d
p579
I1
sVd75x9m0
p580
I1
sVdbtujba
p581
I1
sVda4jt4f
p582
I1
sVd8gwyml
p583
I1
sVczqu82v
p584
I1
sVdqjxufw
p585
I1
sVdazqnzm
p586
I1
sVdfd421i
p587
I1
sVczl9pdb
p588
I1
sVdo78o8d
p589
I1
sVdj1l4xw
p590
I1
sVcyp44r5
p591
I1
sVdk8tqzn
p592
I1
sVdifg0zq
p593
I1
sVcyrlyyu
p594
I1
sVdb6ytjf
p595
I1
sVdq0ppe5
p596
I1
sVd7u4p04
p597
I1
sVdk1rk9w
p598
I1
sVdde1eck
p599
I1
sVdftrciv
p600
I1
sVdewbomh
p601
I1
sVdbkzj5o
p602
I2
sVdcm5gcr
p603
I1
sVdrvsf9z
p604
I2
sVd6qdvx9
p605
I1
sVdrrwnne
p606
I1
sVdk7qpeq
p607
I2
sVd81ogsv
p608
I1
sVdiqypdw
p609
I1
sVdfe4iiw
p610
I2
sVd70n0ki
p611
I1
sVd20crh5
p612
I2
sVdco7ok1
p613
I2
sVd81xjxa
p614
I4
sVdfg8o7l
p615
I2
sVdbhc2bm
p616
I1
sVd2lw6vw
p617
I1
sVdev7m4w
p618
I2
sVdf4g2n6
p619
I3
sVd7jzeze
p620
I1
sVdhka1ja
p621
I1
sVddgm56e
p622
I1
sVczmbf9m
p623
I1
sVdguwg5b
p624
I1
sVdcrb2a1
p625
I2
sVddvfvot
p626
I1
sVdf4kynm
p627
I1
sVdozk1lm
p628
I1
sVd8nqf4b
p629
I1
sVd9h9epk
p630
I2
sVdk961tm
p631
I1
sVdcg6s8d
p632
I2
sVd29ibxn
p633
I1
sVdmq6a7o
p634
I1
sVdbh14s1
p635
I1
sVd125ojd
p636
I1
sVd5y0aic
p637
I1
sVd57naqv
p638
I1
sVd3yaopy
p639
I1
sVd3bb3c4
p640
I5
sVdfl4b3s
p641
I1
sVd22o8z7
p642
I1
sVdntts3c
p643
I1
sVdg5r6ui
p644
I1
sVdenwxbr
p645
I1
sVd2a0i08
p646
I1
sVcyub4ba
p647
I1
sVdnhcgvz
p648
I2
sVdmnco0p
p649
I1
sVczbxb2q
p650
I1
sVdh3flbg
p651
I2
sVd63fm1d
p652
I1
sVd3b73s8
p653
I5
sVd9i2zpm
p654
I1
sVd0org9v
p655
I1
sVd2sakja
p656
I1
sVddl4hop
p657
I2
sVdnyu5hg
p658
I1
sVd4n7lja
p659
I2
sVd6v9akf
p660
I1
sVd2g5l4a
p661
I1
sVdn6q57l
p662
I1
sVd93kmnq
p663
I2
sVdeliv5p
p664
I1
sVd1grtos
p665
I1
sVdidjpsg
p666
I1
sVd0c1g6s
p667
I2
sVd59lf9a
p668
I1
sVcywihbm
p669
I1
sVdpq5dlx
p670
I1
sVczx4e9a
p671
I2
sVd765gau
p672
I1
sVdmv8wq4
p673
I1
sVcys39mg
p674
I1
sVdhb4jbj
p675
I1
sVdemexdr
p676
I1
sVddg4cst
p677
I1
sVdr6p5e8
p678
I1
sVdh9e5aq
p679
I1
sVd2kj5wh
p680
I1
sVdjdu38u
p681
I1
sVdmklfcg
p682
I1
sVdmx2vso
p683
I1
sVddah2ib
p684
I1
sVdsmiebb
p685
I1
sVd1l3ktn
p686
I1
sVd4iy1dy
p687
I1
sVd6iir4h
p688
I1
sVdbvzzpg
p689
I1
sVdfasfp8
p690
I1
sVdhl9e7u
p691
I1
sVd6jb2la
p692
I1
sVdar63jz
p693
I1
sVddey350
p694
I2
sVdhrc46h
p695
I1
sVdh9q2p8
p696
I1
sVdic1ecr
p697
I1
sVczxenb2
p698
I2
sVdalwcrm
p699
I1
sVdpx3gqx
p700
I2
sVcyr6v54
p701
I1
sVd1iualv
p702
I1
sVdd7nndy
p703
I1
sVdezojog
p704
I1
sVd6y8h9z
p705
I1
sVdjeftav
p706
I1
sVcyl4h88
p707
I1
sVdc2hz73
p708
I3
sVdatwj5f
p709
I1
sVdc9yvvo
p710
I1
sVdj3cy3f
p711
I1
sVcyypm81
p712
I1
sVddo8eq1
p713
I1
sVdt48pkt
p714
I1
sVd9kefnz
p715
I1
sVd60ikcq
p716
I1
sVdawfnz7
p717
I1
sVd2rh08c
p718
I1
sVd3sk70m
p719
I3
sVd2jye0v
p720
I1
sVd20clen
p721
I1
sVdcbjth1
p722
I1
sVd0sx0mg
p723
I1
sVddvv2nj
p724
I1
sVdg2voc4
p725
I1
sVd7li1ok
p726
I1
sVcz6m9v7
p727
I1
sVd8lpaai
p728
I1
sVd2f87g4
p729
I1
sVd1mml38
p730
I1
sVd3b4vwz
p731
I1
sVdh13e17
p732
I1
sVd6hccqv
p733
I1
sVd8bx2ud
p734
I1
sVddylqem
p735
I2
sVczotpyi
p736
I1
sVddgnx9m
p737
I1
sVddwilh9
p738
I1
sVdc7us1e
p739
I1
sVdpjrnjs
p740
I2
sVdco0qm0
p741
I1
sVd9x5y46
p742
I1
sVdk96skf
p743
I2
sVdqg93wd
p744
I1
sVd10ti1r
p745
I1
sVdgta4m7
p746
I2
sVd1q4089
p747
I1
sVd013rts
p748
I1
sVdb5761a
p749
I1
sVd3b93w3
p750
I1
sVdihuirp
p751
I1
sVd9uiw0d
p752
I2
sVds7p2rh
p753
I1
sVd4govu2
p754
I1
sVdizmqgn
p755
I1
sVdcnv690
p756
I1
sVd8a5um2
p757
I1
sVd2k82ad
p758
I1
sVdmkzb95
p759
I1
sVda5xquf
p760
I1
sVdbjxbze
p761
I1
sVcyik9wc
p762
I1
sVdh0oohb
p763
I1
sVdc3953e
p764
I1
sVd9vyjqa
p765
I1
sVdgmjpho
p766
I3
sVd0zcp0o
p767
I2
sVd90rpdq
p768
I1
sVddtthia
p769
I1
sVd25qtn1
p770
I1
sVdih9311
p771
I1
sVdiktayq
p772
I1
sVdcez606
p773
I1
sVdqlv3e0
p774
I2
sVddwrghs
p775
I1
sVcz9t16l
p776
I1
sVd7a3uzv
p777
I1
sVd8gbn5w
p778
I2
sVd4s1j0o
p779
I1
sVdpl5xj1
p780
I1
sVddgp9a3
p781
I1
sVdba0g2j
p782
I1
sVd4vog7p
p783
I1
sVd092rf5
p784
I1
sVd15jx76
p785
I1
sVdehbtk6
p786
I1
sVdhrp7f0
p787
I1
sVd24q2gl
p788
I1
sVd2suklh
p789
I1
sVdhao0uc
p790
I1
sVdb7jhl1
p791
I1
sVd8i682z
p792
I2
sVd5brr2q
p793
I2
sVdfnf0sg
p794
I1
sVd12nemj
p795
I1
sVdmmbowb
p796
I1
sVd30dy6b
p797
I1
sVd3v2f84
p798
I1
sVd85kfkb
p799
I1
sVdipbwfp
p800
I1
sVdjapdu6
p801
I1
sVd0cio22
p802
I2
sVdfisjmu
p803
I1
sVd1z0lem
p804
I1
sVd25kjht
p805
I1
sVdmt2rpm
p806
I1
sVdhge7rx
p807
I1
sVdqkyzu8
p808
I1
sVdqio18l
p809
I1
sVd0xc0w0
p810
I1
sVdo4x968
p811
I1
sVdasvnbw
p812
I1
sVdnd0wri
p813
I1
sVd8azy8j
p814
I1
sVczsl3et
p815
I1
sVdoindof
p816
I1
sVd4rxejn
p817
I1
sVd8nrh3o
p818
I1
sVd0o0g47
p819
I1
sVdtdl66i
p820
I1
sVd31twor
p821
I1
sVdq9r33c
p822
I1
sVdksqew5
p823
I1
sVd6tgu0m
p824
I2
sVdexo079
p825
I1
sVdkx4tq5
p826
I1
sVdpfidi3
p827
I2
sVdjgep8u
p828
I1
sVd1n4uho
p829
I1
sVd3559h3
p830
I1
sVd9l5st7
p831
I2
sVdfg62jl
p832
I1
sVdcu0xbw
p833
I1
sVdrdj85f
p834
I2
sVd75lzko
p835
I1
sVd277cms
p836
I1
sVdrqihjb
p837
I2
sVdb9b1hs
p838
I1
sVd9ds9qm
p839
I12
sVd8ye0bk
p840
I2
sVdo80ja6
p841
I1
sVd5racs3
p842
I1
sVdc7dtlo
p843
I1
sVdbvel87
p844
I1
sVd9lui65
p845
I1
sVdnrxsel
p846
I1
sVcz5kj7e
p847
I1
sVds91o5u
p848
I2
sVdo4sdkx
p849
I1
sVdhj61xb
p850
I2
sVd3wmk9a
p851
I1
sVd97jqgc
p852
I1
sVdi9xf4p
p853
I3
sVdd5uym3
p854
I1
sVczk9rui
p855
I1
sVdbh183q
p856
I1
sVdedfbxf
p857
I2
sVddfxmbq
p858
I1
sVdhemdur
p859
I1
sVdkf10m9
p860
I1
sVdkm62rb
p861
I1
sVdkisqoh
p862
I1
sVd050q5j
p863
I1
sVd8gc1to
p864
I1
sVdjrr0ci
p865
I1
sVd7k8bgc
p866
I4
sVdir3f4l
p867
I1
sVd0xlpu7
p868
I1
sVdkmglso
p869
I2
sVd1s4gb3
p870
I1
sVdfyali1
p871
I1
sVdi8hkgp
p872
I1
sVdhknh23
p873
I1
sVddactdg
p874
I1
sVdj3jwcw
p875
I1
sVdg75is1
p876
I1
sVdiv1ef8
p877
I1
sVd9hefrk
p878
I1
sVdh4d9sq
p879
I2
sVdkqmn52
p880
I2
sVdd1wzi8
p881
I1
sVd0scg8n
p882
I2
sVd8vabqn
p883
I1
sVdnc8k22
p884
I1
sVd1syrpq
p885
I1
sVd2wazu5
p886
I1
sVczziapi
p887
I2
sVd8rpqd5
p888
I1
sVdaojrwk
p889
I2
sVdj9p149
p890
I1
sVdj30cyk
p891
I1
sVdel2y9o
p892
I1
sVdmv7y3o
p893
I1
sVd0wnv8g
p894
I1
sVdfhf27t
p895
I1
sVd466ugm
p896
I2
sVcz13v5l
p897
I1
sVd5o8jjc
p898
I1
sVdeogn3o
p899
I1
sVd9er886
p900
I1
sVdfoa7i3
p901
I1
sVdetldd9
p902
I1
sVd9w1pdf
p903
I1
sVd2sawbm
p904
I1
sVdjvp23z
p905
I1
sVdfq39bq
p906
I1
sVds7ih4b
p907
I2
sVd88fd7n
p908
I2
sVdracpt6
p909
I2
sVdn70vt9
p910
I1
sVdox6cwy
p911
I1
sVd52fb9n
p912
I1
sVcyww23e
p913
I5
sVdoqze51
p914
I1
sVczdv7qu
p915
I1
sVdenv8ne
p916
I1
sVd0va4ls
p917
I1
sVdpuliea
p918
I2
sVd73fmyc
p919
I2
sVdd5xw9m
p920
I1
sVd6mcilw
p921
I1
sVd5gq7cx
p922
I1
sVd7hpwnb
p923
I1
sVddwzmtt
p924
I1
sVd5mmaol
p925
I1
sVd9m8sg8
p926
I1
sVdh4qzck
p927
I1
sVd4v8d8c
p928
I1
sVdtas91d
p929
I1
sVdh5arlu
p930
I1
sVdf4diee
p931
I1
sVdi3d1ao
p932
I1
sVdcocuo2
p933
I1
sVddngp08
p934
I1
sVd8zovt8
p935
I1
sVdk174px
p936
I2
sVdbvogb9
p937
I1
sVd62yxm1
p938
I1
sVdhgyfm5
p939
I1
sVczb81oh
p940
I1
sVdazmak4
p941
I1
sVdbswzb0
p942
I1
sVdsw776a
p943
I2
sVdsnrvd1
p944
I1
sVdh9vzsa
p945
I1
sVd09w7c9
p946
I1
sVd841193
p947
I1
sVd9i9zrh
p948
I1
sVdf1vxow
p949
I1
sVdfehndj
p950
I1
sVd0mj7vt
p951
I1
sVd13cmis
p952
I1
sVdsow8g2
p953
I1
sVd9v5szn
p954
I1
sVdkvglcu
p955
I2
sVdn8yd0w
p956
I1
sVdqco23t
p957
I2
sVd1whvfh
p958
I1
sVd5w45j4
p959
I4
sVd5juoru
p960
I1
sVczw109g
p961
I1
sVdh7i3aj
p962
I1
sVd17t3z1
p963
I1
sVd9jqmvg
p964
I1
sVd0pry05
p965
I1
sVdd53rep
p966
I2
sVdd5i736
p967
I1
sVdhz5hkv
p968
I1
sVdfubar8
p969
I1
sVd6qj4ik
p970
I1
sVd0y8r9x
p971
I1
sVdtii8bp
p972
I1
sVdhoj5a4
p973
I1
sVd1q5xo5
p974
I1
sVdrxbljj
p975
I1
sVdrq1ldz
p976
I1
sVd3vnxyz
p977
I1
sVdays9cy
p978
I1
sVd496vui
p979
I1
sVdaggwoj
p980
I1
sVdnl5kyj
p981
I2
sVdhy62c6
p982
I2
sVdhrggtq
p983
I1
sVd4y09bo
p984
I1
sVd1u3hq9
p985
I1
sVd629h10
p986
I1
sVd1gwlgg
p987
I1
sVd2k2q14
p988
I1
sVdb8yo4v
p989
I1
sVd2xnv6a
p990
I1
sVdbea7nr
p991
I1
sVdc5iszo
p992
I1
sVd7jq4wt
p993
I1
sVdinweil
p994
I1
sVcyp8hkl
p995
I1
sVdftv8jf
p996
I1
sVd0fjmnh
p997
I1
sVd8t1dar
p998
I1
sVdiq8frp
p999
I1
sVd48ryax
p1000
I2
sVd0am81x
p1001
I1
sVczbsomu
p1002
I1
sVdqo6al0
p1003
I1
sVdi9bnj5
p1004
I2
sVdjytscf
p1005
I1
sVd7s0jki
p1006
I1
sVczarwdk
p1007
I1
sVdh78tbi
p1008
I1
sVd6m5opa
p1009
I1
sVdduhqh4
p1010
I1
sVd4gw158
p1011
I1
sVdt4weuz
p1012
I1
sVdi0mcx5
p1013
I1
sVd0ugq67
p1014
I1
sVczzhdow
p1015
I1
sVdbymj7n
p1016
I1
sVczvs937
p1017
I1
sVd9d32nq
p1018
I2
sVdb10xqe
p1019
I1
sVd0gmnk4
p1020
I1
sVdhlhi52
p1021
I1
sVd3svivm
p1022
I1
sVdmq9o4z
p1023
I1
sVcz5heii
p1024
I2
sVdenw3j5
p1025
I1
sVdc7wwsg
p1026
I1
sVdi7opri
p1027
I1
sVdganfme
p1028
I2
sVdnxcdql
p1029
I2
sVdrb2tfd
p1030
I3
sVdoszhkj
p1031
I1
sVd7eagl4
p1032
I1
sVdh58ftw
p1033
I1
sVd8af2ge
p1034
I1
sVddk8vhr
p1035
I1
sVdn5mr4j
p1036
I1
sVd1apd7s
p1037
I1
sVd9pqt94
p1038
I2
sVd99dpki
p1039
I2
sVdqqwxme
p1040
I1
sVdn2nqjf
p1041
I1
sVd9io0kk
p1042
I3
sVczc3b4o
p1043
I1
sVd1zioaf
p1044
I1
sVdgm8t44
p1045
I1
sVd9abk4d
p1046
I1
sVd7a9f61
p1047
I1
sVdo8h761
p1048
I1
sVdr7ymci
p1049
I3
sVdcmj5sl
p1050
I1
sVd4smbdu
p1051
I1
sVdb15n41
p1052
I1
sVdbkkjix
p1053
I1
sVd10kf2q
p1054
I1
sVdkewczi
p1055
I1
sVdko4gao
p1056
I1
sVdkve09c
p1057
I1
sVczmccs1
p1058
I1
sVd0sj6t6
p1059
I1
sVcz0ql4q
p1060
I1
sVdhc9uys
p1061
I1
sVdkp250v
p1062
I1
sVd4gnb84
p1063
I1
sVdjcijxs
p1064
I2
sVdizbvgt
p1065
I2
sVdnl450k
p1066
I1
sVdja5612
p1067
I1
sVd6b8kzp
p1068
I1
sVdf09rbe
p1069
I1
sVdny6ah7
p1070
I1
sVcyl9jdg
p1071
I1
sVd3mwrla
p1072
I1
sVczgq2fn
p1073
I1
sVdfqu3hy
p1074
I1
sVdcns1zd
p1075
I1
sVdbc4gqp
p1076
I2
sVd8je45x
p1077
I1
sVdge1tiy
p1078
I1
sVdf05npy
p1079
I1
sVdgn81c8
p1080
I1
sVdg892wz
p1081
I3
sVdinpw86
p1082
I1
sVd3tm7lm
p1083
I1
sVdq713lv
p1084
I1
sVdn2xufv
p1085
I1
sVd5x9tk5
p1086
I1
sVdn95nt1
p1087
I1
sVd71jwu9
p1088
I1
sVd554b61
p1089
I1
sVd0w8qh0
p1090
I1
sVd4kkmgu
p1091
I4
sVdgffhkn
p1092
I1
sVd8u6rwi
p1093
I1
sVd1rhsgt
p1094
I1
sVd51vx06
p1095
I1
sVdkeezbi
p1096
I2
sVd3k24z1
p1097
I1
sVd3ga00d
p1098
I1
sVdct1jkj
p1099
I2
sVdav8d37
p1100
I1
sVdsidei7
p1101
I1
sVdjzgymk
p1102
I1
sVdn0nfye
p1103
I2
sVdj08nhy
p1104
I1
sVd3arldz
p1105
I1
sVczjwu3g
p1106
I1
sVd5cyfo4
p1107
I1
sVdtdb2am
p1108
I1
sVdam1jq2
p1109
I1
sVczb9g30
p1110
I1
sVdhfmnuh
p1111
I1
sVcyim8ys
p1112
I2
sVdrsbkt0
p1113
I1
sVdeaoqj7
p1114
I1
sVdekgm9n
p1115
I1
sVdcitp71
p1116
I2
sVd2g9b27
p1117
I1
sVdbtwahn
p1118
I1
sVdenwak5
p1119
I1
sVdepmq7f
p1120
I2
sVczp171c
p1121
I1
sVdkgzujp
p1122
I1
sVdp0gdam
p1123
I1
sVdd6xojm
p1124
I1
sVd9rlcss
p1125
I2
sVdb7lzh1
p1126
I1
sVdaoi11l
p1127
I1
sVd0a12nz
p1128
I1
sVdj76qsx
p1129
I2
sVdtgir15
p1130
I1
sVd0l3hlf
p1131
I1
sVdh6nch2
p1132
I4
sVd91g5kl
p1133
I2
sVd8n3hp6
p1134
I1
sVdixj4p2
p1135
I1
sVdht9s9b
p1136
I1
sVdigt1oy
p1137
I1
sVdgehp47
p1138
I1
sVdkvo66n
p1139
I1
sVdannvps
p1140
I1
sVd0hj5is
p1141
I1
sVdqfkoop
p1142
I1
sVcyvwlm1
p1143
I1
sVd3jjfsl
p1144
I1
sVcywkvkq
p1145
I1
sVczg089c
p1146
I1
sVd04dlvl
p1147
I1
sVdhcejpy
p1148
I2
sVdj5w4hu
p1149
I1
sVdhl8amw
p1150
I1
sVdsn04ov
p1151
I1
sVd54lcgz
p1152
I1
sVdmwjwum
p1153
I1
sVcyk1s8x
p1154
I1
sVdj3itm4
p1155
I1
sVdjs3bo3
p1156
I1
sVd07tf6m
p1157
I2
sVdfafdfe
p1158
I2
sVdb6ao2l
p1159
I1
sVdetl6jv
p1160
I1
sVdfk9u0g
p1161
I1
sVdqhs8ci
p1162
I1
sVd0scdgj
p1163
I1
sVd1gnd9z
p1164
I1
sVdnijz3d
p1165
I1
sVcziowq3
p1166
I2
sVdmm3ssi
p1167
I1
sVd4ukr3d
p1168
I1
sVdr0i9bf
p1169
I1
sVd3x6vjt
p1170
I1
sVdmjbf62
p1171
I1
sVdf3mg8y
p1172
I1
sVd1mh7fp
p1173
I1
sVdofqhxl
p1174
I2
sVda4z41e
p1175
I1
sVdgl08ui
p1176
I1
sVdklxqs4
p1177
I1
sVczsa4p3
p1178
I1
sVdqf0ckn
p1179
I3
sVd5oqi8y
p1180
I1
sVczemepp
p1181
I2
sVd8yr8vl
p1182
I1
sVd530ut3
p1183
I1
sVd2qdk4n
p1184
I1
sVdgv6hvm
p1185
I1
sVd4e897p
p1186
I1
sVdcxtba5
p1187
I4
sVddrscoe
p1188
I1
sVdfu6asw
p1189
I2
sVczmzafj
p1190
I1
sVcyytafp
p1191
I2
sVd996x14
p1192
I1
sVdszrtao
p1193
I1
sVd7jyn9y
p1194
I5
sVddzmdoy
p1195
I1
sVdb36wx0
p1196
I1
sVdidtcqi
p1197
I1
sVdaaidxp
p1198
I1
sVdc91tgt
p1199
I1
sVd8dg9ph
p1200
I1
sVcysf2xz
p1201
I1
sVdhgki1h
p1202
I1
sVdrsvibi
p1203
I1
sVdszll4s
p1204
I1
sVdkx3hd8
p1205
I1
sVdo83gq4
p1206
I1
sVd6vb13w
p1207
I1
sVddq0ftc
p1208
I2
sVdeumrwj
p1209
I2
sVd3hc87o
p1210
I1
sVd6n48h9
p1211
I1
sVd32gyw2
p1212
I3
sVdhu76rd
p1213
I1
sVdcf9l73
p1214
I1
sVdaipxzg
p1215
I1
sVd9zhtvw
p1216
I3
sVd4k0fjp
p1217
I1
sVdp54hgm
p1218
I1
sVdk7zo6l
p1219
I2
sVd0scz0w
p1220
I1
sVddmk5eb
p1221
I1
sVd0kstki
p1222
I1
sVd72luju
p1223
I1
sVdp9frw4
p1224
I1
sVdf7tw6f
p1225
I1
sVd3tn9el
p1226
I1
sVdkv409l
p1227
I1
sVdgs9h58
p1228
I1
sVd2iboel
p1229
I1
sVd1iwh9l
p1230
I1
sVcyywmt7
p1231
I2
sVdsufn1a
p1232
I1
sVczkhoos
p1233
I1
sVdjenupe
p1234
I1
sVdkro7wf
p1235
I3
sVd4h5srm
p1236
I1
sVd7cjvic
p1237
I1
sVcymqfb6
p1238
I1
sVdq4p0y1
p1239
I1
sVde8icvu
p1240
I1
sVd33uuuq
p1241
I1
sVdd6cwxa
p1242
I1
sVd0ic1dz
p1243
I1
sVdjxup5b
p1244
I2
sVdakbi0x
p1245
I1
sVd57a132
p1246
I1
sVdabikjd
p1247
I1
sVdoj69wd
p1248
I2
sVd1pjj40
p1249
I1
sVdjxu7e8
p1250
I1
sVd8j4yrc
p1251
I2
sVdsxfmpa
p1252
I1
sVdo6pg0o
p1253
I1
sVdn51air
p1254
I2
sVd23mmsf
p1255
I1
sVczujc1d
p1256
I1
sVd4atlka
p1257
I1
sVdp3nchm
p1258
I1
sVcz7p588
p1259
I1
sVdka2mtb
p1260
I2
sVddzmujb
p1261
I1
sVd4klfr7
p1262
I1
sVd1kyptf
p1263
I1
sVd4gxzsg
p1264
I1
sVd7n1r6n
p1265
I2
sVdesd4cw
p1266
I1
sVd8n6rwd
p1267
I1
sVcyxkurd
p1268
I1
sVd2naow8
p1269
I1
sVdbh1p1i
p1270
I1
sVdsnna28
p1271
I1
sVd09qwm7
p1272
I1
sVdb762cp
p1273
I6
sVdabbnnt
p1274
I1
sVdcrp3gx
p1275
I1
sVda0vrjk
p1276
I1
sVd2x6uxr
p1277
I1
sVd1gk2cz
p1278
I1
sVdgh5a6z
p1279
I1
sVdsgy6ut
p1280
I1
sVddjl1uc
p1281
I1
sVcykdlx9
p1282
I1
sVdg15lde
p1283
I1
sVdn82osb
p1284
I1
sVday3r3b
p1285
I1
sVdb985xy
p1286
I1
sVdgnycuw
p1287
I1
sVdcay89i
p1288
I2
sVd2agh4m
p1289
I1
sVdp22ulh
p1290
I6
sVdt5o1kz
p1291
I1
sVdhy5lv8
p1292
I1
sVd4k6374
p1293
I1
sVd1ku690
p1294
I1
sVdi0vi04
p1295
I1
sVdc7tfnu
p1296
I1
sVdhbepub
p1297
I1
sVdmrrvkm
p1298
I1
sVdqt989k
p1299
I1
sVddhl1rl
p1300
I2
sVdrutovw
p1301
I1
sVd0c2uis
p1302
I1
sVd48ceqj
p1303
I1
sVda6o1h1
p1304
I1
sVd194k3o
p1305
I2
sVdk7vyh6
p1306
I1
sVdk65ngo
p1307
I1
sVdc1ab6p
p1308
I4
sVdf0wbw6
p1309
I3
sVdiii8qa
p1310
I1
sVd9zhzab
p1311
I4
sVcztrk7e
p1312
I2
sVd78kvhm
p1313
I2
sVdkqh05y
p1314
I1
sVdht5av2
p1315
I3
sVdruojkx
p1316
I1
sVdjykx19
p1317
I1
sVdc6uuiy
p1318
I1
sVdbkzuea
p1319
I1
sVdgnfxln
p1320
I1
sVdjhcbk6
p1321
I1
sVdsqh7mq
p1322
I2
sVd4gpctt
p1323
I1
sVd4gl7xf
p1324
I5
sVd5q2b5z
p1325
I1
sVd060sbm
p1326
I2
sVd5wdtct
p1327
I1
sVdi55ixt
p1328
I1
sVda65x5b
p1329
I1
sVcztcbtt
p1330
I2
sVdbn1l4c
p1331
I1
sVd7bn7er
p1332
I2
sVdgmo45n
p1333
I1
sVczm3zl3
p1334
I1
sVdeuyr75
p1335
I1
sVd9evcjs
p1336
I1
sVde07w0j
p1337
I2
sVdds9vdg
p1338
I2
sVdc0oabc
p1339
I1
sVd76lhg0
p1340
I1
sVdaw1lgg
p1341
I1
sVd3197u8
p1342
I3
sVd02mlb7
p1343
I1
sVd9sximl
p1344
I1
sVdantdlk
p1345
I2
sVdka1d2k
p1346
I1
sVddm9fy9
p1347
I1
sVdekny9e
p1348
I1
sVd76fcb0
p1349
I2
sVdhx9o4w
p1350
I1
sVdbhqv1g
p1351
I1
sVd97h4wi
p1352
I2
sVd6av9ry
p1353
I1
sVdjmijzk
p1354
I1
sVds31xf5
p1355
I1
sVd058uyp
p1356
I1
sVd6lqfdi
p1357
I1
sVdboc349
p1358
I2
sVdqi6rwy
p1359
I1
sVczqha0z
p1360
I1
sVdsvcxy8
p1361
I5
sVd5xl2q2
p1362
I1
sVd4kydnj
p1363
I1
sVczzpd9d
p1364
I1
sVd648iuy
p1365
I1
sVd4t7blg
p1366
I1
sVdr0c4kh
p1367
I1
sVdeo0s2h
p1368
I1
sVd0yu2em
p1369
I1
sVd1qecdw
p1370
I1
sVd9b756o
p1371
I1
sVd7k8jxq
p1372
I2
sVcyjiwjt
p1373
I2
sVczaduga
p1374
I1
sVd6nf8wg
p1375
I2
sVd7k45gy
p1376
I1
sVdq0jykg
p1377
I1
sVd14deav
p1378
I1
sVcyy63jc
p1379
I1
sVd1sp1do
p1380
I1
sVdan3flh
p1381
I1
sVdj4apqw
p1382
I1
sVd7z8qgn
p1383
I6
sVdet7kif
p1384
I2
sVdbt4e0e
p1385
I1
sVdr8his1
p1386
I2
sVdb8bxow
p1387
I1
sVd4rqvbt
p1388
I1
sVd4sihrm
p1389
I1
sVczf3xjm
p1390
I1
sVdml0d6u
p1391
I1
sVd4vn26p
p1392
I1
sVdqqr91m
p1393
I2
sVdg1dtuf
p1394
I1
sVd4psw7d
p1395
I1
sVd2yuukr
p1396
I2
sVdi18dn0
p1397
I1
sVd7l2xru
p1398
I1
sVd9c5swj
p1399
I1
sVczcbhf5
p1400
I2
sVd8c0qym
p1401
I1
sVd7re6us
p1402
I1
sVd05tqhe
p1403
I1
sVdgr3pja
p1404
I2
sVd4gp4lc
p1405
I1
sVd0m6paw
p1406
I2
sVd3pzs8v
p1407
I2
sVdabyy3q
p1408
I1
sVd3u8i65
p1409
I1
sVd2gyaou
p1410
I1
sVdgum6jl
p1411
I1
sVd71o5vf
p1412
I2
sVczk9ak6
p1413
I2
sVd5oeomt
p1414
I1
sVd7rexfr
p1415
I1
sVd6e5y7j
p1416
I1
sVdfop0ow
p1417
I2
sVddmxfg7
p1418
I2
sVd79gu9o
p1419
I1
sVd9dzaya
p1420
I2
sVd6f1dye
p1421
I2
sVddl5r6o
p1422
I1
sVd7zzph5
p1423
I1
sVd094pyw
p1424
I1
sVdf5k65y
p1425
I2
sVd0nkaro
p1426
I1
sVczziswo
p1427
I1
sVd7esffw
p1428
I1
sVdo3ll47
p1429
I3
sVcyrsp30
p1430
I2
sVdk9q5sm
p1431
I2
sVd83am2l
p1432
I1
sVd979utw
p1433
I1
sVdexr9mg
p1434
I1
sVd8hi7o7
p1435
I1
sVda0rn3g
p1436
I2
sVd6l6v1v
p1437
I2
sVdjbbcf5
p1438
I1
sVczzs4gf
p1439
I1
sVdi9wpoz
p1440
I1
sVdbjo6yw
p1441
I1
sVdcnbetc
p1442
I1
sVd21jd1m
p1443
I1
sVd3z6jj6
p1444
I1
sVdjrilzc
p1445
I1
sVddh35su
p1446
I1
sVdbq2b1w
p1447
I1
sVdmurjmm
p1448
I1
sVd548bqb
p1449
I1
sVd1gn2ul
p1450
I1
sVd896lvd
p1451
I1
sVcyjcrw2
p1452
I1
sVdaj85si
p1453
I1
sVd1f0lm3
p1454
I1
sVd7z7us1
p1455
I4
sVdhb4ph0
p1456
I1
sVdga8p6j
p1457
I1
sVd0n5a7h
p1458
I4
sVdcdog7u
p1459
I4
sVdfavjg4
p1460
I1
sVdb1be7j
p1461
I1
sVd8hxzxo
p1462
I1
sVdedhpl5
p1463
I1
sVdp7psi0
p1464
I1
sVdn9am3x
p1465
I2
sVd5fttwk
p1466
I1
sVdfttkt9
p1467
I2
sVd4bldxm
p1468
I1
sVdgcztlu
p1469
I1
sVdbvls7y
p1470
I1
sVdhn2zxt
p1471
I1
sVd2dd0xm
p1472
I1
sVd733d3s
p1473
I1
sVdjsluqb
p1474
I1
sVdkn2l3d
p1475
I1
sVd3g0ji0
p1476
I2
sVdrau8dp
p1477
I1
sVdodgq0d
p1478
I1
sVczb8tqr
p1479
I1
sVdn3jzrr
p1480
I1
sVdixj9yk
p1481
I1
sVd7hy6ps
p1482
I1
sVd1rxaey
p1483
I1
sVdeo707z
p1484
I3
sVd1gw5st
p1485
I2
sVdg0wnea
p1486
I1
sVdh1mudk
p1487
I1
sVd4hwdu3
p1488
I1
sVd9fz5ez
p1489
I1
sVd2fnkj1
p1490
I1
sVdhaqnlc
p1491
I1
sVdiqebmw
p1492
I1
sVdk4nz9n
p1493
I1
sVd0wb9uv
p1494
I1
sVd5rpiy3
p1495
I1
sVczu7367
p1496
I1
sVdn7ey69
p1497
I1
sVdb2s50w
p1498
I2
sVdkivh2m
p1499
I1
sVde4i7du
p1500
I1
sVd7y8ka2
p1501
I1
sVdex1cfd
p1502
I1
sVdbgtc2k
p1503
I1
sVdsng99x
p1504
I3
sVdf06lp0
p1505
I1
sVdmqj5bf
p1506
I1
sVcyzv2qg
p1507
I1
sVd0o6k8s
p1508
I1
sVdoj7efe
p1509
I1
sVd6c57de
p1510
I1
sVdsgl6jv
p1511
I1
sVd20zb79
p1512
I1
sVd7rewlt
p1513
I1
sVdgjq2fj
p1514
I1
sVczqmnue
p1515
I1
sVdi8ayi4
p1516
I1
sVdgw08r8
p1517
I1
sVdcl1dhf
p1518
I2
sVd75aaq3
p1519
I1
sVdebs03q
p1520
I1
sVczws0l9
p1521
I1
sVdfz3xi9
p1522
I1
sVdk9sgi8
p1523
I2
sVd6qhpvn
p1524
I1
sVdcy9tmi
p1525
I1
sVd4gu0xk
p1526
I1
sVdtazicm
p1527
I1
sVdgt7m1s
p1528
I1
sVdh3jf6f
p1529
I1
sVdjx7fiv
p1530
I1
sVd3e5unl
p1531
I1
sVdkxcxu0
p1532
I1
sVdj9lfrx
p1533
I2
sVddwlcej
p1534
I1
sVdpoimdr
p1535
I1
sVdnr7hol
p1536
I1
sVd3bkfju
p1537
I1
sVd4uroiy
p1538
I1
sVd1l5nfa
p1539
I1
sVd4op5fq
p1540
I1
sVd19jtff
p1541
I1
sVdf1xx54
p1542
I1
sVdo6y91b
p1543
I1
sVd4aepf8
p1544
I1
sVd0ii74f
p1545
I1
sVdc9vmxn
p1546
I1
sVdev36wb
p1547
I1
sVdi18r4z
p1548
I1
sVd5oqb9r
p1549
I1
sVd015evk
p1550
I1
sVdbnupxw
p1551
I1
sVd01a7a1
p1552
I1
sVczhkx1x
p1553
I1
sVdkezif3
p1554
I1
sVdd552k3
p1555
I1
sVdjcib2g
p1556
I1
sVdeyaswk
p1557
I1
sVdg3bgys
p1558
I1
sVd54bdlw
p1559
I2
sVdtauabi
p1560
I1
sVdie3moh
p1561
I1
sVdhhwp0p
p1562
I1
sVdpsusuq
p1563
I1
sVd5gz7xo
p1564
I1
sVd1veiry
p1565
I1
sVde1xvh2
p1566
I2
sVdn6w3yy
p1567
I1
sVd4pn13v
p1568
I2
sVd2i4h2z
p1569
I1
sVd0xsdug
p1570
I1
sVd7mcy4l
p1571
I1
sVcz5jlpg
p1572
I4
sVdca7lks
p1573
I1
sVdqjn4i2
p1574
I4
sVd8nvs1t
p1575
I1
sVdobbn38
p1576
I1
sVczzi863
p1577
I1
sVd8cs29f
p1578
I1
sVdfwy2sd
p1579
I1
sVd9cueoi
p1580
I1
sVd3oq5q6
p1581
I1
sVds06zg6
p1582
I1
sVddl3u57
p1583
I1
sVdcfre83
p1584
I1
sVdc8agmx
p1585
I1
sVd2v4iak
p1586
I1
sVcynjuil
p1587
I1
sVdejvao2
p1588
I1
sVcyl0mdr
p1589
I1
sVd0qufmy
p1590
I1
sVd99jbx1
p1591
I2
sVdnkl9u5
p1592
I1
sVdh71ote
p1593
I1
sVdkrue22
p1594
I1
sVd52rxsh
p1595
I1
sVdiqagre
p1596
I1
sVddvizkl
p1597
I2
sVd2powhu
p1598
I2
sVdo3larq
p1599
I4
sVdd55bnw
p1600
I1
sVdbtyb6i
p1601
I2
sVd0l3knk
p1602
I1
sVd83yfef
p1603
I2
sVd3ppxcu
p1604
I1
sVd20z7t5
p1605
I1
sVda6gmvy
p1606
I3
sVd7imruu
p1607
I1
sVdnl2u3u
p1608
I1
sVd51eqmm
p1609
I1
sVd1l3db5
p1610
I1
sVdswo6i4
p1611
I1
sVdkm7vsz
p1612
I1
sVd0qyvef
p1613
I1
sVddp353a
p1614
I1
sVd91szmp
p1615
I1
sVd55bp2d
p1616
I1
sVd97ydpy
p1617
I1
sVd4olgmh
p1618
I1
sVd7x2tsh
p1619
I1
sVdcqnu7c
p1620
I1
sVdqmh9by
p1621
I2
sVdny3s4b
p1622
I8
sVcyuaxsq
p1623
I2
sVdp7ccfo
p1624
I3
sVdfh442i
p1625
I1
sVczzp6t1
p1626
I1
sVdgelqik
p1627
I1
sVdj8aq62
p1628
I3
sVd353v40
p1629
I1
sVdb8l7ka
p1630
I1
sVdaoiag3
p1631
I1
sVdchsf5f
p1632
I1
sVdn4oe2d
p1633
I4
sVdolv8m7
p1634
I1
sVd885se2
p1635
I1
sVdfnoz8p
p1636
I2
sVd6chk0p
p1637
I1
sVd015u0v
p1638
I1
sVde9fex1
p1639
I1
sVdb3kh5u
p1640
I1
sVdi2og9m
p1641
I1
sVdc9y07a
p1642
I1
sVda3ap2i
p1643
I1
sVd3djr99
p1644
I3
sVdjlesni
p1645
I1
sVd2waxgo
p1646
I1
sVdbnclmf
p1647
I1
sVdipu3ai
p1648
I1
sVde07qr7
p1649
I3
sVd5wbj7x
p1650
I1
sVdccxzyr
p1651
I1
sVczter6a
p1652
I2
sVdkrtv0q
p1653
I1
sVd0465yt
p1654
I1
sVdg175h6
p1655
I1
sVd68xg9j
p1656
I1
sVdb3xgdq
p1657
I2
sVd8p4m38
p1658
I3
sVdgdre5y
p1659
I1
sVdmrc43a
p1660
I1
sVd0rqt2t
p1661
I1
sVd19n240
p1662
I1
sVd801n0p
p1663
I1
sVcypowvp
p1664
I1
sVdel6el4
p1665
I1
sVd3mpsjz
p1666
I1
sVd97heb9
p1667
I1
sVdi5l79r
p1668
I1
sVdr0e80j
p1669
I3
sVd1e3w77
p1670
I1
sVdbjx5a7
p1671
I2
sVdorlj7k
p1672
I1
sVd4pxafl
p1673
I4
sVdcttikl
p1674
I1
sVd1h60yz
p1675
I1
sVdo6l22p
p1676
I2
sVd4gq4q3
p1677
I1
sVdn7zvyu
p1678
I1
sVdtd71yu
p1679
I1
sVd8gad38
p1680
I1
sVd00fofl
p1681
I1
sVdcz47n6
p1682
I1
sVdprckf5
p1683
I1
sVdakq100
p1684
I1
sVdmfxxg3
p1685
I1
sVdjnt6q8
p1686
I1
sVde7ek9c
p1687
I1
sVdb9wb9m
p1688
I1
sVdeil14v
p1689
I2
sVczymwwa
p1690
I1
sVde6a39v
p1691
I1
sVdhzkdf6
p1692
I1
sVdbimfq1
p1693
I1
sVd4depyc
p1694
I1
sVd8ejirm
p1695
I1
sVcyoimfm
p1696
I1
sVdrj2s7e
p1697
I1
sVd20z677
p1698
I1
sVdd1bk81
p1699
I1
sVdkjhdcn
p1700
I1
sVd1xf0o3
p1701
I1
sVdr8wwkz
p1702
I1
sVcyn51yj
p1703
I1
sVd5yuw2t
p1704
I1
sVdaai1dg
p1705
I1
sVd0vjebi
p1706
I1
sVd3bvrix
p1707
I1
sVdejn6zt
p1708
I1
sVdhewdw0
p1709
I1
sVdgfvjtd
p1710
I1
sVdn2swzb
p1711
I1
sVd8eh4c4
p1712
I1
sVdf071wt
p1713
I1
sVdfu1pky
p1714
I1
sVdnyzxw7
p1715
I1
sVd833cid
p1716
I1
sVdfjqlix
p1717
I2
sVddcitpf
p1718
I1
sVd01dt0b
p1719
I1
sVdd1zaez
p1720
I1
sVd0sccg2
p1721
I1
sVd0ei24f
p1722
I1
sVdptioz1
p1723
I1
sVdn4jf6f
p1724
I2
sVdnduqf7
p1725
I2
sVcykfo7o
p1726
I1
sVdgwdusc
p1727
I1
sVdr6l34b
p1728
I1
sVdac30t1
p1729
I4
sVd9btfmg
p1730
I1
sVd6btue8
p1731
I1
sVdhe810t
p1732
I1
sVdbdkhrw
p1733
I1
sVdaibobx
p1734
I1
sVdivbl98
p1735
I2
sVdfy0mfj
p1736
I2
sVdbssywe
p1737
I1
sVd2q22n8
p1738
I2
sVd54ve8h
p1739
I1
sVdixy4bu
p1740
I2
sVd7nsdrz
p1741
I2
sVd83700n
p1742
I2
sVd251hem
p1743
I1
sVd93gqmr
p1744
I1
sVdavukpj
p1745
I1
sVdn9kf30
p1746
I1
sVd3kijax
p1747
I1
sVd2bxokg
p1748
I1
sVd1lc4o8
p1749
I2
sVd4z21p5
p1750
I1
sVd603euc
p1751
I1
sVdtbhji9
p1752
I1
sVd2b2rzc
p1753
I1
sVd0gyh0m
p1754
I4
sVdcusj58
p1755
I2
sVd9oecc6
p1756
I1
sVd4ysahv
p1757
I1
sVdaeuhc4
p1758
I1
sVd8v17st
p1759
I1
sVd4gu7l1
p1760
I1
sVdaeaev3
p1761
I2
sVdaqi9sg
p1762
I1
sVd71782e
p1763
I1
sVdkjy7p1
p1764
I1
sVcykml7p
p1765
I1
sVd24hoze
p1766
I1
sVd7jxjqd
p1767
I2
sVcywoq55
p1768
I1
sVd5y4te5
p1769
I1
sVdre6qxg
p1770
I1
sVds3n2xr
p1771
I1
sVdi6p946
p1772
I1
sVddpukop
p1773
I1
sVd1vfrmp
p1774
I1
sVdekpozc
p1775
I1
sVd71rjrh
p1776
I1
sVdag055l
p1777
I1
sVdeumrfu
p1778
I1
sVdopzgec
p1779
I1
sVd8gc4fv
p1780
I1
sVddbddy6
p1781
I1
sVdt30ylw
p1782
I1
sVd1raffv
p1783
I1
sVdemjbim
p1784
I1
sVd058bfz
p1785
I1
sVdnb1vr7
p1786
I2
sVd2aykew
p1787
I1
sVdpihun2
p1788
I2
sVd0puzib
p1789
I1
sVd0pss2c
p1790
I1
sVd066rnm
p1791
I1
sVdctf5me
p1792
I1
sVdaaem2a
p1793
I1
sVdff2d0t
p1794
I2
sVdidjnws
p1795
I2
sVd1i45uc
p1796
I1
sVdi9qal6
p1797
I1
sVd5i4lpc
p1798
I1
sVdgbnvy7
p1799
I1
sVdpub6sd
p1800
I1
sVd1ucpye
p1801
I1
sVd0dw81v
p1802
I1
sVdbfx7ak
p1803
I2
sVdkivfwu
p1804
I1
sVd4orhhc
p1805
I2
sVdcw2ul1
p1806
I1
sVd4mkt5e
p1807
I2
sVdswc7tz
p1808
I1
sVd4b4ky7
p1809
I2
sVdklaqla
p1810
I2
sVd5isbq3
p1811
I1
sVd76qycy
p1812
I1
sVdfujuki
p1813
I1
sVcznixd9
p1814
I1
sVd6us8ue
p1815
I1
sVdob1lps
p1816
I1
sVcykhfh8
p1817
I1
sVdp2g0fh
p1818
I5
sVde4vxrj
p1819
I2
sVd7xt67b
p1820
I1
sVdbu5gqg
p1821
I2
sVdqkytje
p1822
I2
sVdbfzuvh
p1823
I1
sVdq0z4bl
p1824
I1
sVdb3cuec
p1825
I1
sVd5ylns8
p1826
I1
sVd9eyv18
p1827
I1
sVdg7pbpk
p1828
I1
sVd1w9p7y
p1829
I1
sVd94cod4
p1830
I1
sVdg170q2
p1831
I1
sVd60zcnz
p1832
I1
sVd7mczkv
p1833
I3
sVdsubmi2
p1834
I3
sVd6xu480
p1835
I1
sVd3lsonr
p1836
I2
sVd5l8537
p1837
I1
sVd031amx
p1838
I1
sVcyote8f
p1839
I1
sVd33qjx1
p1840
I2
sVdkia1ee
p1841
I1
sVdou8h6l
p1842
I1
sVd6ew456
p1843
I2
sVdf0l0lm
p1844
I1
sVd43tdyt
p1845
I1
sVdbwozxs
p1846
I1
sVd57rvw2
p1847
I1
sVdpw44v0
p1848
I1
sVdbu7sa9
p1849
I1
sVd0ykp0m
p1850
I1
sVd73lcww
p1851
I1
sVd4ijwuf
p1852
I1
sVd4g2m0s
p1853
I1
sVdhpo053
p1854
I1
sVdrmn7n9
p1855
I1
sVcz0pxmi
p1856
I3
sVdpsb9mr
p1857
I1
sVdny56eu
p1858
I1
sVdci5m4w
p1859
I1
sVd2f9k0x
p1860
I1
sVde8ez39
p1861
I1
sVd9nd444
p1862
I1
sVd10z0i0
p1863
I1
sVdoj4uhc
p1864
I1
sVdj5p28g
p1865
I1
sVd87wrj9
p1866
I1
sVd0x3xv6
p1867
I2
sVdgjb66s
p1868
I2
sVdhzfjh5
p1869
I1
sVdgesr3w
p1870
I2
sVdqbsq3h
p1871
I1
sVdqczcri
p1872
I1
sVdfcz8ls
p1873
I1
sVd26gflr
p1874
I1
sVd3jsebz
p1875
I1
sVd6za9h8
p1876
I1
sVd4sjltt
p1877
I1
sVdbzqfw4
p1878
I1
sVcztanq6
p1879
I1
sVdbtv68r
p1880
I1
sVdq3ssu8
p1881
I1
sVddczkbp
p1882
I1
sVd7n30lg
p1883
I5
sVddd2l7a
p1884
I1
sVd0odb7q
p1885
I1
sVdhmvhf9
p1886
I1
sVdibzb15
p1887
I1
sVdnnrnkj
p1888
I1
sVcyirn2u
p1889
I1
sVdeqlspa
p1890
I2
sVd8ua0ti
p1891
I1
sVdfqdgxj
p1892
I1
sVdq1hmho
p1893
I1
sVdevcroj
p1894
I1
sVd32orzd
p1895
I1
sVdef43gk
p1896
I1
sVcz2b32k
p1897
I2
sVddsgdpe
p1898
I1
sVdr3c1nv
p1899
I1
sVd2x1mi6
p1900
I1
sVdj0wv1y
p1901
I1
sVdowfy4h
p1902
I1
sVdirw10i
p1903
I1
sVd01ft35
p1904
I1
sVde7micu
p1905
I1
sVdcj2w05
p1906
I1
sVdelk04x
p1907
I1
sVde44qhn
p1908
I2
sVdaxkdul
p1909
I1
sVdhqulyr
p1910
I1
sVd718k1k
p1911
I2
sVdbvfurp
p1912
I1
sVczwvorf
p1913
I1
sVd35jy0y
p1914
I1
sVd0a8yl3
p1915
I1
sVdt0igcx
p1916
I1
sVd9vk9at
p1917
I1
sVda3sst8
p1918
I1
sVdr9p8vv
p1919
I1
sVd390eee
p1920
I1
sVd0rvm3v
p1921
I2
sVdkks9co
p1922
I1
sVd1icyin
p1923
I1
sVde2q9y6
p1924
I1
sVd9l04o8
p1925
I1
sVd9eh38m
p1926
I12
sVcyp8az8
p1927
I1
sVd3gbrcy
p1928
I1
sVd48v2hu
p1929
I1
sVd0plnrt
p1930
I3
sVdadqwij
p1931
I1
sVdpqkp6k
p1932
I1
sVdhadwk8
p1933
I1
sVczyqima
p1934
I1
sVd0g7f7i
p1935
I1
sVdnhy1a8
p1936
I1
sVd6qedtl
p1937
I1
sVdkn2fv3
p1938
I6
sVd0rnl8u
p1939
I1
sVdgyjyw5
p1940
I1
sVdo7upah
p1941
I1
sVdi9hjfd
p1942
I1
sVd7z03kv
p1943
I1
sVd237huk
p1944
I2
sVd2v3s3u
p1945
I1
sVd3exbvc
p1946
I1
sVdk0l9g3
p1947
I1
sVdfug0s1
p1948
I1
sVda4dowv
p1949
I1
sVdhdocsi
p1950
I1
sVdhojzjn
p1951
I1
sVdoeabno
p1952
I1
sVd6tb4f0
p1953
I2
sVdck5z3j
p1954
I2
sVdelrfnj
p1955
I1
sVde3v4hk
p1956
I1
sVd35z5bw
p1957
I1
sVdf0cq9u
p1958
I1
sVd426yty
p1959
I1
sVdpo4ued
p1960
I2
sVdrdl79e
p1961
I1
sVddaqkd5
p1962
I1
sVd8xr2yp
p1963
I1
sVde34l0j
p1964
I1
sVczt0bal
p1965
I2
sVdenetjs
p1966
I1
sVdrsza63
p1967
I1
sVdhwxalc
p1968
I1
sVd1x9iop
p1969
I1
sVdiahkqi
p1970
I1
sVdox84kt
p1971
I1
sVd897kfy
p1972
I2
sVd6qsy92
p1973
I1
sVdn1go2j
p1974
I2
sVdp08ozv
p1975
I1
sVdgmusl7
p1976
I1
sVdh0xi08
p1977
I2
sVczgo9q3
p1978
I1
sVczg4vn6
p1979
I1
sVdc26oc8
p1980
I1
sVdhx06rn
p1981
I1
sVd37i5dz
p1982
I1
sVczu0vv4
p1983
I1
sVd98z1d9
p1984
I1
sVdfzw8vq
p1985
I1
sVd5dikwr
p1986
I1
sVd12qpmj
p1987
I1
sVdagvc45
p1988
I1
sVded8ifc
p1989
I1
sVd2j1548
p1990
I1
sVdbj9tx7
p1991
I1
sVdfz2pg0
p1992
I1
sVd7b1rmt
p1993
I1
sVd2y8zuf
p1994
I1
sVd6n2a63
p1995
I1
sVdn4v3ok
p1996
I1
sVdqqf3w8
p1997
I2
sVczznds2
p1998
I1
sVcz5dfss
p1999
I1
sVdolb1hm
p2000
I1
sVd7upqz6
p2001
I1
sVdb85u1u
p2002
I1
sVd20ckdw
p2003
I1
sVdidahxg
p2004
I1
sVdi25386
p2005
I1
sVd7q3a57
p2006
I1
sVd01p2zj
p2007
I2
sVd4nk5td
p2008
I1
sVdde2cdm
p2009
I1
sVd630z7d
p2010
I1
sVd0zka26
p2011
I1
sVczzjzid
p2012
I2
sVcyoyt19
p2013
I1
sVdid5vli
p2014
I1
sVdg6cul7
p2015
I1
sVdbtzej5
p2016
I3
sVd8bzid3
p2017
I1
sVd7n0hjv
p2018
I1
sVdi1noxa
p2019
I1
sVd3dlj8a
p2020
I1
sVdbt7gju
p2021
I1
sVd5ec25c
p2022
I1
sVd4jp849
p2023
I1
sVczwmn33
p2024
I1
sVdgihzf8
p2025
I1
sVddjfeps
p2026
I1
sVdprzzai
p2027
I1
sVdbe4nvy
p2028
I2
sVcz6zfy3
p2029
I1
sVdfqknhv
p2030
I2
sVd9rv828
p2031
I1
sVd4z0c2e
p2032
I1
sVcyojow2
p2033
I1
sVdoxe7gl
p2034
I1
sVd0tmkiw
p2035
I1
sVdbm2iwu
p2036
I1
sVdaa2fun
p2037
I1
sVd247s3d
p2038
I1
sVd19fz55
p2039
I1
sVdcp4vm6
p2040
I1
sVd6t25d1
p2041
I1
sVdmvsrev
p2042
I1
sVdpb9w12
p2043
I1
sVdcburp7
p2044
I1
sVds011g1
p2045
I1
sVd19aig5
p2046
I1
sVd3kud40
p2047
I1
sVdda1l5m
p2048
I1
sVd6ncx8u
p2049
I1
sVd0wyebl
p2050
I1
sVddcmnj6
p2051
I1
sVdak7js3
p2052
I1
sVdficaxb
p2053
I1
sVd5d79dn
p2054
I1
sVdtduf54
p2055
I1
sVcziak7u
p2056
I1
sVdk1ywyt
p2057
I1
sVd00gz6f
p2058
I1
sVdn2r3g6
p2059
I1
sVdbssmto
p2060
I1
sVd4116gs
p2061
I1
sVdg5y280
p2062
I1
sVdc051c5
p2063
I2
sVd1uskg6
p2064
I3
sVdj30gk7
p2065
I1
sVcynrcdp
p2066
I1
sVdbk2u84
p2067
I1
sVdimuonm
p2068
I1
sVdkulkds
p2069
I1
sVd48b2vx
p2070
I1
sVdovux71
p2071
I1
sVd0zhr4k
p2072
I2
sVdazupwq
p2073
I1
sVd21s8yd
p2074
I1
sVdpy1v8p
p2075
I1
sVdtamksc
p2076
I2
sVdg7uou8
p2077
I1
sVd437s10
p2078
I1
sVd7qwf87
p2079
I1
sVd9jnurc
p2080
I1
sVddj1lql
p2081
I1
sVdbqetjw
p2082
I1
sVd38bzmn
p2083
I2
sVd9ohj53
p2084
I1
sVd8fswgf
p2085
I1
sVddhe89v
p2086
I2
sVd0hait9
p2087
I1
sVd42jx96
p2088
I2
sVdqmig51
p2089
I1
sVd1a6gzz
p2090
I1
sVdbwcyg5
p2091
I1
sVdopt4sr
p2092
I1
sVdptgf7c
p2093
I1
sVddt50tb
p2094
I1
sVd281346
p2095
I1
sVddqpuj1
p2096
I1
sVd7uycz7
p2097
I1
sVd0v19n2
p2098
I3
sVd2oecg8
p2099
I1
sVdbjd3ar
p2100
I1
sVd1hepgn
p2101
I1
sVdjm1a04
p2102
I1
sVd0t0pgp
p2103
I1
sVd53brrr
p2104
I1
sVdh497vq
p2105
I1
sVde0hy8c
p2106
I1
sVd26ebsv
p2107
I2
sVdf7sclr
p2108
I1
sVd9lqxwg
p2109
I3
sVd3xl4k5
p2110
I1
sVd1uq6kv
p2111
I1
sVd0zb5ba
p2112
I1
sVd2g2hob
p2113
I2
sVdilimf9
p2114
I1
sVd5iceir
p2115
I1
sVdadq8lb
p2116
I1
sVczu65dr
p2117
I1
sVdaac5ta
p2118
I1
sVd7bac70
p2119
I1
sVczbcwki
p2120
I1
sVdoron14
p2121
I1
sVdmgm92i
p2122
I1
sVczznrsj
p2123
I1
sVd316jwr
p2124
I1
sVd00hiw2
p2125
I1
sVcz5a893
p2126
I1
sVd95fz9i
p2127
I1
sVdj5mdx5
p2128
I1
sVd78xr5j
p2129
I2
sVdeurtkr
p2130
I1
sVdjdrtr4
p2131
I1
sVdf1x9g2
p2132
I2
sVcyp9x7b
p2133
I1
sVd1gwnkx
p2134
I1
sVdkvhhv1
p2135
I2
sVda1scru
p2136
I1
sVdmndn66
p2137
I1
sVcz33tqc
p2138
I1
sVd625o9n
p2139
I1
sVddys6ww
p2140
I1
sVdj4mwgn
p2141
I1
sVd2xlkpl
p2142
I1
sVdajo342
p2143
I1
sVd3v1k7z
p2144
I2
sVddyqkin
p2145
I1
sVdg056rk
p2146
I1
sVdcjny5w
p2147
I1
sVdc9ntuc
p2148
I1
sVd3swclw
p2149
I1
sVd9p220s
p2150
I1
sVdg6ii1a
p2151
I1
sVdbdeqnl
p2152
I1
sVdq3peh0
p2153
I1
sVd7ghqju
p2154
I1
sVd3v22bg
p2155
I4
sVdfh06h5
p2156
I1
sVd33udb7
p2157
I1
sVcyxcrcx
p2158
I1
sVdh4bpjf
p2159
I1
sVdjb4cc5
p2160
I1
sVd18tsbb
p2161
I1
sVdjixq3e
p2162
I1
sVdfwfz5p
p2163
I2
sVd2v7nrs
p2164
I1
sVd1449dg
p2165
I2
sVdgj3me7
p2166
I1
sVddgmeh0
p2167
I1
sVd2jjpwn
p2168
I1
sVczb84hx
p2169
I1
sVczopqb0
p2170
I1
sVd0q9olu
p2171
I1
sVd1qa87c
p2172
I1
sVcztnr8w
p2173
I1
sVdnstz3z
p2174
I1
sVd5jwma8
p2175
I1
sVdbln9js
p2176
I1
sVdmqos5e
p2177
I1
sVdbjah4n
p2178
I2
sVdgnluvl
p2179
I4
sVdbwx378
p2180
I1
sVdeunaa1
p2181
I10
sVcyzlfi6
p2182
I2
sVdf8jmcx
p2183
I1
sVcymy4ic
p2184
I1
sVd1u1ylj
p2185
I1
sVdkninnh
p2186
I1
sVddd6lyv
p2187
I1
sVdneosjy
p2188
I2
sVdk1sinw
p2189
I1
sVd07mxrd
p2190
I1
sVcywfkc2
p2191
I1
sVdb9zl05
p2192
I1
sVd4gzmur
p2193
I1
sVdnpum9w
p2194
I1
sVd5kkr7k
p2195
I1
sVdkm5d56
p2196
I2
sVdj7czqq
p2197
I1
sVd770yjz
p2198
I1
sVdr8ar03
p2199
I4
sVd7y44ss
p2200
I1
sVdpbiszc
p2201
I1
sVdoryw1y
p2202
I1
sVdhomn57
p2203
I1
sVd9rnpaj
p2204
I2
sVd42eic8
p2205
I2
sVdf0d4ja
p2206
I6
sVd1sw5ju
p2207
I1
sVdqmo6u7
p2208
I1
sVdnydp6w
p2209
I1
sVcz8nau8
p2210
I1
sVd8nsoh2
p2211
I1
sVd2a98yy
p2212
I1
sVdg481pe
p2213
I1
sVdc0tofc
p2214
I1
sVde8nq55
p2215
I1
sVd3qj7tt
p2216
I1
sVdt4r1uh
p2217
I1
sVdi3i0pt
p2218
I1
sVd2pas7p
p2219
I1
sVd2h5tj4
p2220
I3
sVdf3kyf2
p2221
I1
sVdpn76zk
p2222
I1
sVczt114b
p2223
I1
sVd4ugclv
p2224
I1
sVdi7o2av
p2225
I1
sVdrt1nrj
p2226
I4
sVdcbxtzo
p2227
I1
sVdieq43w
p2228
I1
sVdal8kqm
p2229
I2
sVd2pa7lk
p2230
I1
sVdnbd60u
p2231
I1
sVd3qe0mf
p2232
I1
sVcz3q2gi
p2233
I3
sVcz2agcd
p2234
I1
sVdkrj7xr
p2235
I1
sVdh525r7
p2236
I1
sVdbtxgmg
p2237
I1
sVcyqhds8
p2238
I1
sVd5xhrtl
p2239
I1
sVdsqhymt
p2240
I1
sVd3emjql
p2241
I1
sVdape45n
p2242
I1
sVd9ka1v8
p2243
I1
sVczq4sdp
p2244
I1
sVdaogvvu
p2245
I3
sVdrol2r6
p2246
I1
sVdfk33bh
p2247
I1
sVdkt0xlq
p2248
I1
sVdrefwd9
p2249
I1
sVczr4lzs
p2250
I1
sVdprkbcq
p2251
I1
sVczm91h1
p2252
I1
sVdmk0qpg
p2253
I1
sVd3yzr5m
p2254
I3
sVd1n41eh
p2255
I1
sVd30p2xe
p2256
I1
sVdifsq00
p2257
I1
sVd3mdhgn
p2258
I1
sVdizyvwh
p2259
I1
sVdb1o5af
p2260
I1
sVdj5ixq8
p2261
I1
sVdkhspbu
p2262
I1
sVczvertz
p2263
I1
sVddthqpb
p2264
I1
sVd21bm82
p2265
I1
sVdi0qqhh
p2266
I2
sVd0sbdq6
p2267
I2
sVd8wrzb6
p2268
I1
sVcz0q41y
p2269
I1
sVd37h9qs
p2270
I1
sVdhwisq0
p2271
I1
sVcz31xr9
p2272
I2
sVd3991lh
p2273
I1
sVdkjkz50
p2274
I2
sVdn4v8jj
p2275
I1
sVd66wjw5
p2276
I1
sVdbiujmj
p2277
I1
sVdknxl2u
p2278
I1
sVdb1xd40
p2279
I1
sVd6qhgh6
p2280
I1
sVdh1odp8
p2281
I1
sVd59jn3f
p2282
I1
sVd7k2oda
p2283
I1
sVcyt7erq
p2284
I1
sVd3p38uv
p2285
I1
sVd36lv9g
p2286
I1
sVd6gcae9
p2287
I1
sVd0gucwd
p2288
I1
sVd3lkcci
p2289
I1
sVdcag6tu
p2290
I1
sVdteldka
p2291
I1
sVd6rl39x
p2292
I1
sVdcztgqr
p2293
I1
sVd046w6x
p2294
I1
sVdg8co1r
p2295
I1
sVdiptfki
p2296
I1
sVdn72fji
p2297
I3
sVdf1um41
p2298
I1
sVd148cdq
p2299
I1
sVdirifed
p2300
I1
sVdcgz6ou
p2301
I1
sVde4odon
p2302
I9
sVd3grvks
p2303
I2
sVdeilavx
p2304
I1
sVdjcl7xm
p2305
I1
sVd5er781
p2306
I1
sVd1jjodx
p2307
I1
sVd5gbq7a
p2308
I1
sVd56k0bp
p2309
I1
sVd2d1n6v
p2310
I5
sVdbidmc2
p2311
I1
sVdi8a17d
p2312
I1
sVd40zlbf
p2313
I1
sVczxnsrj
p2314
I1
sVdcwpjpm
p2315
I1
sVd2fs6vv
p2316
I1
sVdd0k6d0
p2317
I1
sVdcnsdjl
p2318
I1
sVdg7s5to
p2319
I2
sVdbpa525
p2320
I1
sVd2hx1hr
p2321
I1
sVd5q77e4
p2322
I3
sVdd9ykui
p2323
I1
sVd48dwxn
p2324
I2
sVdcre30c
p2325
I1
sVdgx87hi
p2326
I1
sVcypfjw4
p2327
I1
sVdf1uvx4
p2328
I1
sVd1ky880
p2329
I1
sVd32ja7z
p2330
I1
sVdb3ibo3
p2331
I1
sVdbb7pjq
p2332
I1
sVd4bk73b
p2333
I1
sVd150jbz
p2334
I2
sVddb2fca
p2335
I1
sVdedhcgb
p2336
I1
sVdmgwgad
p2337
I1
sVdat7p9f
p2338
I1
sVdepiwym
p2339
I1
sVdj8srqk
p2340
I1
sVdnbmyak
p2341
I1
sVd6em177
p2342
I2
sVd9l2buy
p2343
I1
sVdd0v6uo
p2344
I1
sVd8ueijs
p2345
I1
sVd2sd75t
p2346
I2
sVd21jp1u
p2347
I2
sVdbpe9ev
p2348
I1
sVd19ov3k
p2349
I1
sVdp73hhh
p2350
I1
sVdt046fd
p2351
I1
sVdiacb9t
p2352
I1
sVdk1milo
p2353
I1
sVd05f57k
p2354
I1
sVd97spfq
p2355
I1
sVczlurij
p2356
I1
sVd83vj0j
p2357
I1
sVdettbwt
p2358
I1
sVd3lx262
p2359
I1
sVdgt9mag
p2360
I8
sVdfih6ww
p2361
I1
sVdcrl3jg
p2362
I1
sVdc0ltvn
p2363
I1
sVdod4x4u
p2364
I1
sVdphwcpa
p2365
I1
sVd2c8z5y
p2366
I1
sVdc211r7
p2367
I5
sVczivfzz
p2368
I2
sVdkg8463
p2369
I1
sVd31xjfa
p2370
I1
sVdaxp8ry
p2371
I1
sVd6ugyz3
p2372
I1
sVcywfghg
p2373
I1
sVd1l6unz
p2374
I2
sVdn8h257
p2375
I1
sVdgopm4q
p2376
I1
sVdaau74r
p2377
I1
sVd6bhrxm
p2378
I1
sVd45d3uc
p2379
I1
sVcyjf4mt
p2380
I1
sVdcenl51
p2381
I1
sVdepjjw7
p2382
I1
sVd7lyepa
p2383
I2
sVdsfofuw
p2384
I1
sVdhb453k
p2385
I1
sVdkclzf2
p2386
I2
sVdhyo5lv
p2387
I1
sVd7vv36v
p2388
I1
sVd6gpjsq
p2389
I1
sVdctuc62
p2390
I1
sVd2wtreo
p2391
I1
sVczbkfqy
p2392
I1
sVdafkm2f
p2393
I1
sVdg3qqxr
p2394
I2
sVdels333
p2395
I1
sVd15lij2
p2396
I1
sVdjcrw30
p2397
I1
sVd4tcy3r
p2398
I2
sVczyb3zl
p2399
I1
sVd9n07es
p2400
I1
sVd63s7ug
p2401
I2
sVdkoyajx
p2402
I1
sVd1rholn
p2403
I1
sVdcjt66o
p2404
I1
sVdrnjdz1
p2405
I1
sVdh6uyat
p2406
I3
sVdjwyzti
p2407
I3
sVdmelewe
p2408
I1
sVd0wjagg
p2409
I1
sVd0ptu8j
p2410
I2
sVdkf1k2g
p2411
I1
sVdot0sxx
p2412
I2
sVd1ft4ai
p2413
I1
sVddfpvl7
p2414
I1
sVd3w2opz
p2415
I1
sVdds2x38
p2416
I2
sVd68oocf
p2417
I1
sVdc0repu
p2418
I1
sVdhzzcw6
p2419
I1
sVdboo6da
p2420
I1
sVda6gkli
p2421
I1
sVd8u45xa
p2422
I1
sVd8ksi9v
p2423
I1
sVd1r64nd
p2424
I1
sVdh6qu7e
p2425
I1
sVczw78ac
p2426
I1
sVd9qytbn
p2427
I1
sVdh766tx
p2428
I1
sVd38u1yb
p2429
I1
sVdc07iuf
p2430
I2
sVd7tt4p6
p2431
I1
sVd6dkcfg
p2432
I2
sVdiki4yf
p2433
I1
sVdg5m4gk
p2434
I1
sVd1c91qx
p2435
I1
sVde11hhq
p2436
I1
sVd013aw9
p2437
I1
sVde79kiw
p2438
I1
sVdbk90du
p2439
I1
sVdhd8tt6
p2440
I1
sVczsq9de
p2441
I1
sVdrzozrr
p2442
I2
sVcyihwz6
p2443
I1
sVdkb2t5f
p2444
I1
sVdn77z4q
p2445
I1
sVdtddm3l
p2446
I1
sVdfgtrhq
p2447
I1
sVd7ytw66
p2448
I2
sVd49tzuo
p2449
I1
sVdcrbwra
p2450
I1
sVdp7dhog
p2451
I1
sVd1edjao
p2452
I1
sVd1ibk49
p2453
I1
sVddahlgt
p2454
I1
sVd0282np
p2455
I1
sVd32dt3f
p2456
I1
sVdqw778r
p2457
I1
sVd3zqh8p
p2458
I1
sVd912p89
p2459
I1
sVd2zl3l3
p2460
I3
sVd69a3q7
p2461
I1
sVddrux7f
p2462
I1
sVdoq9f2y
p2463
I1
sVde0egl9
p2464
I1
sVdnkich1
p2465
I1
sVdo70gep
p2466
I1
sVd740819
p2467
I1
sVdq053x5
p2468
I2
sVcztakbt
p2469
I2
sVd95jom0
p2470
I1
sVd9nj1w8
p2471
I1
sVdg9v1b9
p2472
I2
sVczs0t3g
p2473
I1
sVcyxcy76
p2474
I1
sVde4o3zu
p2475
I1
sVddbciud
p2476
I1
sVdcukjk4
p2477
I3
sVddoknqt
p2478
I1
sVdkej5w0
p2479
I1
sVdiklfyh
p2480
I1
sVdqvrvld
p2481
I1
sVdr706jp
p2482
I1
sVdckzn53
p2483
I1
sVdjl6eg9
p2484
I2
sVdr2bsdj
p2485
I1
sVd21jsvp
p2486
I1
sVczhkq9i
p2487
I2
sVdakrrwn
p2488
I2
sVd0mupuy
p2489
I2
sVde8tf5i
p2490
I1
sVd0v90ur
p2491
I1
sVda1yapb
p2492
I1
sVdq7ykh9
p2493
I1
sVdhm80ih
p2494
I1
sVdmsgrqs
p2495
I7
sVddd3vat
p2496
I1
sVdqmr1gp
p2497
I1
sVdh99bj8
p2498
I1
sVdci52f3
p2499
I1
sVcztf962
p2500
I1
sVd1j02d5
p2501
I1
sVd3o37o6
p2502
I1
sVd1ayim2
p2503
I1
sVd713rpr
p2504
I1
sVd38bel3
p2505
I1
sVd0mn1vr
p2506
I1
sVddv8bhx
p2507
I1
sVdfo1l1s
p2508
I1
sVdd2qt94
p2509
I1
sVd7omn43
p2510
I1
sVd0x71g6
p2511
I1
sVdg3qngj
p2512
I1
sVczpl3v3
p2513
I1
sVdf09uhq
p2514
I2
sVdakwfry
p2515
I2
sVdh5h4o9
p2516
I1
sVdfq78n9
p2517
I1
sVdeo99vd
p2518
I1
sVdazu3eu
p2519
I1
sVd8w6klu
p2520
I1
sVcyr5i3g
p2521
I1
sVd8yj0z9
p2522
I1
sVcyukqqy
p2523
I1
sVdab8yre
p2524
I1
sVd20cwkw
p2525
I1
sVd9riyie
p2526
I3
sVd9e985u
p2527
I2
sVdh009cf
p2528
I1
sVdj0itbx
p2529
I1
sVdrv5l36
p2530
I1
sVdd6q0uy
p2531
I1
sVd1vhdvr
p2532
I1
sVdgng8kn
p2533
I1
sVd6es8iu
p2534
I2
sVd4gqvin
p2535
I3
sVd5wa4vk
p2536
I2
sVd05zfr3
p2537
I1
sVdc1hxad
p2538
I1
sVczv9ly1
p2539
I1
sVdjcgq82
p2540
I1
sVd4gugo2
p2541
I1
sVdgpmdm5
p2542
I1
sVdf7fitf
p2543
I1
sVd51s1yb
p2544
I1
sVd7shvbc
p2545
I1
sVd7qac37
p2546
I1
sVdpw0v6s
p2547
I3
sVdghwli8
p2548
I1
sVd0kv9sx
p2549
I3
sVde5ed0i
p2550
I1
sVd9i76je
p2551
I1
sVdjlh0wz
p2552
I1
sVdhczret
p2553
I1
sVd30v5go
p2554
I1
sVd1d7vxx
p2555
I1
sVczmd5el
p2556
I1
sVd06h1ar
p2557
I1
sVd9houz0
p2558
I3
sVczbgsm5
p2559
I3
sVd7uvsh1
p2560
I1
sVd660zbw
p2561
I2
sVdf1f8b5
p2562
I1
sVdn39kdw
p2563
I2
sVd7k5ccf
p2564
I1
sVcyli9tb
p2565
I1
sVdq3torq
p2566
I1
sVdgxzl3k
p2567
I3
sVdt2bavg
p2568
I3
sVds6xnst
p2569
I1
sVdd3fql5
p2570
I1
sVdi8cnz8
p2571
I1
sVdidgdkf
p2572
I1
sVd1i2c1b
p2573
I3
sVd2x3cxk
p2574
I1
sVd6gbo5g
p2575
I1
sVd4psr28
p2576
I1
sVdkp90zg
p2577
I1
sVcylhdvl
p2578
I1
sVdi0jxt4
p2579
I1
sVdr2bl08
p2580
I1
sVdn2i39p
p2581
I1
sVdj402aq
p2582
I3
sVd7reiw3
p2583
I1
sVd0n47ff
p2584
I1
sVd6mctqf
p2585
I1
sVcz7noyx
p2586
I1
sVd17qx4h
p2587
I1
sVdc4m9l3
p2588
I1
sVdqq6e5y
p2589
I1
sVd9so7ax
p2590
I1
sVdiqxjgt
p2591
I1
sVd7198a4
p2592
I1
sVczwrx18
p2593
I1
sVdo3ryw1
p2594
I4
sVdbxz8gv
p2595
I1
sVddupkie
p2596
I1
sVdb2z1nx
p2597
I1
sVczycast
p2598
I1
sVdbv0xj6
p2599
I1
sVdptaii6
p2600
I1
sVd8rh4cn
p2601
I3
sVdkwzp46
p2602
I1
sVddeiqmx
p2603
I1
sVdjjru9c
p2604
I1
sVd2j79l5
p2605
I1
sVdgf3bnb
p2606
I2
sVd795l3q
p2607
I3
sVd5cvv5f
p2608
I1
sVdecg53r
p2609
I1
sVdjpv64s
p2610
I1
sVdbm221l
p2611
I3
sVd5pewss
p2612
I1
sVdgv3klr
p2613
I1
sVd6wjegk
p2614
I1
sVdjnuk5u
p2615
I1
sVda28zm1
p2616
I1
sVdoqzp5k
p2617
I1
sVd5mum43
p2618
I1
sVd6l622x
p2619
I1
sVd1s8q9u
p2620
I1
sVcziqgfp
p2621
I1
sVddwfyv1
p2622
I1
sVdk3qih2
p2623
I2
sVd9ow6ko
p2624
I1
sVd7xp2fh
p2625
I1
sVdmxrb2m
p2626
I1
sVdmyc34f
p2627
I1
sVd6njlx0
p2628
I1
sVdbswcy3
p2629
I1
sVd3oduo5
p2630
I1
sVdk8t32a
p2631
I1
sVdg133ql
p2632
I1
sVdqzrw3a
p2633
I1
sVd5gteww
p2634
I1
sVdmurlks
p2635
I1
sVdd2bsyo
p2636
I1
sVd3q2tko
p2637
I1
sVd0cs2fq
p2638
I1
sVd1jugm8
p2639
I2
sVddrrotb
p2640
I1
sVdk7we5y
p2641
I2
sVd18chmy
p2642
I1
sVdgwnq4l
p2643
I1
sVdgzj0ci
p2644
I1
sVd8t413n
p2645
I2
sVdgvxmxv
p2646
I1
sVd0g1agv
p2647
I1
sVd6x5796
p2648
I1
sVdsfnlor
p2649
I2
sVd800oiu
p2650
I1
sVczmb79t
p2651
I1
sVcztf3rk
p2652
I1
sVczeyrm2
p2653
I1
sVd4v2m61
p2654
I1
sVdihwjz2
p2655
I1
sVd17aoax
p2656
I3
sVd2xunst
p2657
I1
sVd81z4ep
p2658
I1
sVd9bnstf
p2659
I1
sVd4vtlqy
p2660
I1
sVd1e4i8d
p2661
I1
sVdgdw38b
p2662
I1
sVd908rz3
p2663
I1
sVd7arjz9
p2664
I1
sVd6efelu
p2665
I1
sVd7hbj8n
p2666
I2
sVd3r002n
p2667
I1
sVdj597g1
p2668
I1
sVdfttws0
p2669
I1
sVdddlb9b
p2670
I1
sVd4j64ar
p2671
I1
sVd5quqa7
p2672
I2
sVd3n734n
p2673
I1
sVd06tcf9
p2674
I1
sVdfyj9dh
p2675
I1
sVdeq30k5
p2676
I1
sVd9lhbtk
p2677
I1
sVczouq87
p2678
I2
sVdb7yfcs
p2679
I1
sVd2m4yfj
p2680
I1
sVd7bvccp
p2681
I2
sVcyy61nl
p2682
I1
sVdi46mtk
p2683
I3
sVd529lkz
p2684
I2
sVd8a7ido
p2685
I1
sVdsiyohi
p2686
I1
sVd3i9a49
p2687
I1
sVddr4d9g
p2688
I2
sVdkbri19
p2689
I1
sVd0fpf5t
p2690
I1
sVcyncbk9
p2691
I1
sVdrrd58e
p2692
I1
sVd2dg2mt
p2693
I1
sVd1ykp1g
p2694
I4
sVcyw6pgz
p2695
I1
sVd2uhcnc
p2696
I1
sVdav7v4r
p2697
I1
sVd7an4pu
p2698
I2
sVdc58wgq
p2699
I1
sVd7kaqvk
p2700
I6
sVdigssb7
p2701
I1
sVdc1akc7
p2702
I1
sVdgwhj75
p2703
I1
sVd311xz3
p2704
I1
sVd5nn09y
p2705
I1
sVdis14oy
p2706
I1
sVd7kbtsh
p2707
I1
sVd20z23m
p2708
I1
sVd3vtx28
p2709
I1
sVd3dlpqq
p2710
I2
sVdixle8l
p2711
I1
sVdn58pyw
p2712
I1
sVdcb37uc
p2713
I1
sVd5wy0pn
p2714
I1
sVcykhwyw
p2715
I1
sVdgf608g
p2716
I1
sVdbf022r
p2717
I1
sVd41a3uo
p2718
I1
sVdej4j7z
p2719
I1
sVdfx41z6
p2720
I1
sVdn2dumc
p2721
I2
sVd6pr835
p2722
I1
sVczxveaf
p2723
I1
sVdih6nex
p2724
I2
sVdmotlxq
p2725
I1
sVd6wsyav
p2726
I1
sVd217zcl
p2727
I1
sVd01ozuf
p2728
I1
sVdam13z5
p2729
I3
sVda600mf
p2730
I1
sVdiari7o
p2731
I1
sVd646c1a
p2732
I1
sVdeglmm6
p2733
I1
sVd06xqo5
p2734
I1
sVd4gy7n0
p2735
I1
sVdf9zthl
p2736
I1
sVd27cpo5
p2737
I1
sVdfpw3q5
p2738
I5
sVdgp1umw
p2739
I1
sVdeyk45j
p2740
I1
sVdjtjgoj
p2741
I1
sVddeghpc
p2742
I1
sVdac8kvm
p2743
I1
sVddcofxu
p2744
I1
sVd30jgsz
p2745
I1
sVddexdqe
p2746
I1
sVde5jc11
p2747
I1
sVd86l1rw
p2748
I1
sVdnk5vit
p2749
I1
sVddvngdz
p2750
I2
sVdfu8s9z
p2751
I3
sVd9hicp8
p2752
I1
sVd6n4cmf
p2753
I2
sVd8w6xjh
p2754
I1
sVd5ludt6
p2755
I1
sVd48reft
p2756
I1
sVd35gm4j
p2757
I2
sVd6cicpm
p2758
I1
sVdrvprgv
p2759
I3
sVdmvwosi
p2760
I1
sVdg4y59m
p2761
I1
sVd4pyhn5
p2762
I1
sVd5ursav
p2763
I1
sVd80o1ck
p2764
I1
sVdgaha24
p2765
I1
sVdgj1zyn
p2766
I1
sVdojlitu
p2767
I1
sVdd4xf01
p2768
I1
sVdcvihnk
p2769
I1
sVd4d0f8b
p2770
I1
sVd2sonwl
p2771
I1
sVdcl0z3n
p2772
I1
sVdbpqm6x
p2773
I2
sVd31t3l9
p2774
I1
sVdj584qi
p2775
I2
sVdnkkord
p2776
I1
sVczhsu06
p2777
I1
sVd8hl8ik
p2778
I1
sVd0s14fh
p2779
I1
sVdk0ljzy
p2780
I1
sVdk4cr6o
p2781
I1
sVczbxjsk
p2782
I1
sVdqkzc34
p2783
I1
sVd9uy4i5
p2784
I1
sVd61i49i
p2785
I2
sVde4uoks
p2786
I1
sVdd8bm56
p2787
I1
sVdk41oq0
p2788
I1
sVdcghylh
p2789
I1
sVdbrmcj4
p2790
I1
sVdgmldkm
p2791
I1
sVd5ck590
p2792
I2
sVdcl3hrh
p2793
I1
sVdjfrtzc
p2794
I1
sVd3j6gwg
p2795
I1
sVdn3e8lz
p2796
I2
sVcz17hqh
p2797
I1
sVd520sev
p2798
I1
sVd5svavk
p2799
I6
sVdezysmt
p2800
I2
sVdh1g186
p2801
I2
sVde83cfe
p2802
I3
sVd2z1xq2
p2803
I1
sVdbpxtds
p2804
I1
sVdmzms06
p2805
I1
sVdh1eh2v
p2806
I1
sVczvrolc
p2807
I1
sVdcoq20o
p2808
I1
sVd6psbg3
p2809
I1
sVdi4h039
p2810
I1
sVdqjtuz9
p2811
I1
sVdki8sf9
p2812
I1
sVdjy955x
p2813
I1
sVd2pks6n
p2814
I1
sVd9iir3i
p2815
I2
sVdr8px21
p2816
I1
sVdmw2olm
p2817
I1
sVdniw6df
p2818
I1
sVd242vhw
p2819
I1
sVdc0sugd
p2820
I1
sVd4g0cbz
p2821
I1
sVd61x5d4
p2822
I1
sVdhr2z83
p2823
I1
sVd646r79
p2824
I1
sVdiq6e6n
p2825
I1
sVczd8w40
p2826
I1
sVdpac1dz
p2827
I1
s.