(dp0
Vcytpnry
p1
I1
s.(dp0
Vcytpnry
p1
I1
sVcyzmq6k
p2
I1
s.(dp0
Vcytpnry
p1
I1
sVcz18ltr
p2
I1
s.(dp0
Vcytpnry
p1
I1
sVcz1l79m
p2
I1
s.(dp0
Vcytpnry
p1
I1
sVcz4cfzx
p2
I1
s.(dp0
Vcytpnry
p1
I1
sVczcyy8o
p2
I1
s.(dp0
Vcytpnry
p1
I1
sVczfaxw3
p2
I1
s.(dp0
Vcytpnry
p1
I1
sVczh1984
p2
I1
s.(dp0
Vcytpnry
p1
I1
sVczi2ioe
p2
I1
s.(dp0
Vcytpnry
p1
I1
sVczirwxp
p2
I1
s.(dp0
Vcytpnry
p1
I1
sVczv71cg
p2
I1
s.(dp0
Vczy1aqb
p1
I1
sVcytpnry
p2
I1
s.(dp0
Vcytpnry
p1
I1
sVd00gdbt
p2
I1
s.(dp0
Vcytpnry
p1
I1
sVd00gdbt
p2
I1
s.(dp0
Vcytpnry
p1
I1
sVd0epek9
p2
I1
s.(dp0
Vcytpnry
p1
I1
sVd0fhb44
p2
I1
s.(dp0
Vcytpnry
p1
I1
sVd0igwl9
p2
I1
s.(dp0
Vcytpnry
p1
I1
sVd0tj502
p2
I1
s.(dp0
Vcytpnry
p1
I1
sVd14jocy
p2
I1
s.(dp0
Vcytpnry
p1
I1
sVd1ayfeh
p2
I1
s.(dp0
Vd1c31sz
p1
I1
sVcytpnry
p2
I1
s.(dp0
Vcytpnry
p1
I1
sVd1g94va
p2
I1
s.(dp0
Vcytpnry
p1
I1
sVd1tk8zp
p2
I1
s.(dp0
Vcytpnry
p1
I1
sVd1tktna
p2
I1
s.(dp0
Vcytpnry
p1
I1
sVd1ybnbj
p2
I1
s.(dp0
Vd30zk4w
p1
I1
sVcytpnry
p2
I1
s.(dp0
Vcytpnry
p1
I1
sVd31sszu
p2
I1
s.(dp0
Vd337vv0
p1
I1
sVcytpnry
p2
I1
s.(dp0
Vcytpnry
p1
I1
sVd33zr8p
p2
I1
s.(dp0
Vcytpnry
p1
I1
sVd342yo6
p2
I1
s.(dp0
Vd3dp796
p1
I1
sVcytpnry
p2
I1
s.(dp0
Vd3dp796
p1
I1
sVcytpnry
p2
I1
s.(dp0
Vcytpnry
p1
I1
sVd3knsm2
p2
I1
s.(dp0
Vcytpnry
p1
I1
sVd3o8rn3
p2
I1
s.(dp0
Vd3ojawo
p1
I1
sVcytpnry
p2
I1
s.(dp0
Vd3urcpk
p1
I1
sVcytpnry
p2
I1
s.(dp0
Vcytpnry
p1
I1
sVd4fps48
p2
I1
s.(dp0
Vcytpnry
p1
I1
sVd4jsxhv
p2
I1
s.(dp0
Vd4jug3u
p1
I1
sVcytpnry
p2
I1
s.(dp0
Vcytpnry
p1
I1
sVd50ymel
p2
I1
s.(dp0
Vd570k1j
p1
I1
sVcytpnry
p2
I1
s.(dp0
Vd570k1j
p1
I1
sVcytpnry
p2
I1
s.(dp0
Vd570k1j
p1
I1
sVcytpnry
p2
I1
s.(dp0
Vd570k1j
p1
I1
sVcytpnry
p2
I1
s.(dp0
Vcytpnry
p1
I1
sVd5pvzpk
p2
I1
s.(dp0
Vd5seepd
p1
I1
sVcytpnry
p2
I1
s.(dp0
Vd5u8o90
p1
I1
sVcytpnry
p2
I1
s.(dp0
Vcytpnry
p1
I1
sVd627s8x
p2
I1
s.(dp0
Vcytpnry
p1
I1
sVd62djgv
p2
I1
s.(dp0
Vd65y6g9
p1
I1
sVcytpnry
p2
I1
s.(dp0
Vcytpnry
p1
I1
sVd69hhzx
p2
I1
s.(dp0
Vcytpnry
p1
I1
sVd6crtps
p2
I1
s.(dp0
Vd6m2pdb
p1
I1
sVcytpnry
p2
I1
s.(dp0
Vd7mfhaf
p1
I1
sVcytpnry
p2
I1
s.(dp0
Vcytpnry
p1
I1
sVd7tgaon
p2
I1
s.(dp0
Vcytpnry
p1
I1
sVd7yhhpc
p2
I1
s.(dp0
Vcytpnry
p1
I1
sVd807y56
p2
I1
s.(dp0
Vd89l8lb
p1
I1
sVcytpnry
p2
I1
s.(dp0
Vcytpnry
p1
I1
sVd8f4279
p2
I1
s.(dp0
Vd8i5z46
p1
I1
sVcytpnry
p2
I1
s.(dp0
Vcytpnry
p1
I1
sVd8mctnc
p2
I1
s.(dp0
Vcytpnry
p1
I1
sVd8pzl7s
p2
I1
s.(dp0
Vcytpnry
p1
I1
sVd8rahd7
p2
I1
s.(dp0
Vd8vwi40
p1
I1
sVcytpnry
p2
I1
s.(dp0
Vcytpnry
p1
I1
sVd91xrfb
p2
I1
s.(dp0
Vcytpnry
p1
I1
sVd99cgzc
p2
I1
s.(dp0
Vcytpnry
p1
I1
sVd99dscc
p2
I1
s.(dp0
Vd9afm4j
p1
I1
sVcytpnry
p2
I1
s.(dp0
Vcytpnry
p1
I1
sVd9p6xro
p2
I1
s.(dp0
Vcytpnry
p1
I1
sVd9ya6ws
p2
I1
s.(dp0
Vcytpnry
p1
I1
sVda195cu
p2
I1
s.(dp0
Vcytpnry
p1
I1
sVda195cu
p2
I1
s.(dp0
Vda1lr72
p1
I1
sVcytpnry
p2
I1
s.(dp0
Vcytpnry
p1
I1
sVdago6sl
p2
I1
s.(dp0
Vcytpnry
p1
I1
sVdagpd16
p2
I1
s.(dp0
Vdanc9a0
p1
I1
sVcytpnry
p2
I1
s.(dp0
Vdaphgz8
p1
I1
sVcytpnry
p2
I1
s.(dp0
Vdaphgz8
p1
I1
sVcytpnry
p2
I1
s.(dp0
Vdaphgz8
p1
I1
sVcytpnry
p2
I1
s.(dp0
Vdaphgz8
p1
I1
sVcytpnry
p2
I1
s.(dp0
Vcytpnry
p1
I1
sVdat5d1v
p2
I1
s.(dp0
Vcytpnry
p1
I1
sVdaw3yap
p2
I1
s.(dp0
Vcytpnry
p1
I1
sVdaza8if
p2
I1
s.(dp0
Vcytpnry
p1
I1
sVdbavjuk
p2
I1
s.(dp0
Vcytpnry
p1
I1
sVdbj2vw9
p2
I1
s.(dp0
Vcytpnry
p1
I1
sVdblqvcw
p2
I1
s.(dp0
Vcytpnry
p1
I1
sVdblqvcw
p2
I1
s.(dp0
Vdbmmbpl
p1
I1
sVcytpnry
p2
I1
s.(dp0
Vcytpnry
p1
I1
sVdchq8k5
p2
I1
s.(dp0
Vcytpnry
p1
I1
sVdckwjxe
p2
I1
s.(dp0
Vcytpnry
p1
I1
sVdclejvh
p2
I1
s.(dp0
Vcytpnry
p1
I1
sVdd1dtt4
p2
I1
s.(dp0
Vcytpnry
p1
I1
sVdd2us8x
p2
I1
s.(dp0
Vcytpnry
p1
I1
sVdd335ay
p2
I1
s.(dp0
Vcytpnry
p1
I1
sVdd7cq9k
p2
I1
s.(dp0
Vcytpnry
p1
I1
sVddcpxm5
p2
I1
s.(dp0
Vddxtq8z
p1
I1
sVcytpnry
p2
I1
s.(dp0
Vddxtq8z
p1
I1
sVcytpnry
p2
I1
s.(dp0
Vcytpnry
p1
I1
sVddznzal
p2
I1
s.(dp0
Vcytpnry
p1
I1
sVddznzal
p2
I1
s.(dp0
Vcytpnry
p1
I1
sVddznzal
p2
I1
s.(dp0
Vcytpnry
p1
I1
sVddznzal
p2
I1
s.(dp0
Vcytpnry
p1
I1
sVddznzal
p2
I1
s.(dp0
Vcytpnry
p1
I1
sVddznzal
p2
I1
s.(dp0
Vcytpnry
p1
I1
sVddznzal
p2
I1
s.(dp0
Vcytpnry
p1
I1
sVdedmi7m
p2
I1
s.(dp0
Vcytpnry
p1
I1
sVdejut2r
p2
I1
s.(dp0
Vcytpnry
p1
I1
sVdelawd7
p2
I1
s.(dp0
Vcy(dp0
Vcytpnry
p1
I1
sVdt7q0ld
p2
I1
s.