(dp0
Vd35fjhn
p1
I1
sVdkg78lr
p2
I1
sVdawv18w
p3
I1
sVcz1i8wa
p4
I1
sVdece7ud
p5
I1
sVd3qftc2
p6
I1
sVdb0ajxp
p7
I1
sVd45w25v
p8
I1
sVdp3zlzv
p9
I1
sVd9h14v2
p10
I1
sVd5m0lgn
p11
I1
sVd6p5swc
p12
I1
sVd2aw178
p13
I1
sVdawoa37
p14
I1
sVdic1kpe
p15
I1
sVczzcqe0
p16
I1
sVdh4zh62
p17
I1
sVczh5tr4
p18
I1
sVd19hsft
p19
I1
sVdbd30f8
p20
I1
sVddr4i4q
p21
I1
sVd53u861
p22
I1
sVd3202e0
p23
I1
sVdefgxr1
p24
I1
sVd91jsqs
p25
I1
sVd0hfz70
p26
I1
sVdfaavig
p27
I1
sVd60tky9
p28
I1
sVcywkhn7
p29
I1
sVdi2ed56
p30
I1
sVdejbdk3
p31
I1
sVdqb0t4x
p32
I1
sVd0wagc9
p33
I1
sVczwdqbx
p34
I1
sVd0oy0xa
p35
I1
sVdbocitr
p36
I1
sVd2me7gn
p37
I1
sVcyxw3re
p38
I1
sVdbrdamz
p39
I1
sVd11fhiz
p40
I1
sVdi6lzpu
p41
I1
sVd1daes3
p42
I1
sVd9bi29i
p43
I1
sVd07xtwn
p44
I1
sVczbnauv
p45
I1
sVdpen21n
p46
I1
sVd0y11wz
p47
I1
sVdp6i8ka
p48
I1
sVd4lf1w4
p49
I1
sVczkzukl
p50
I1
sVdkv5sj3
p51
I1
sVd17rytf
p52
I1
sVdj7lng6
p53
I1
sVdkzclr4
p54
I1
sVcz4ajr0
p55
I1
sVd6c15pe
p56
I1
sVd8yw1wp
p57
I1
sVda1ui16
p58
I2
sVd4l2mpw
p59
I1
sVdbn6xjn
p60
I1
sVdsry4s2
p61
I1
sVd477sd8
p62
I1
sVdj8k1yg
p63
I1
sVd5lzc8k
p64
I1
sVdfii2j0
p65
I1
sVdmv91mv
p66
I1
sVd6e6vry
p67
I1
sVdfrhny3
p68
I1
sVd4u0jb8
p69
I1
sVd2it0fk
p70
I1
sVd71pxvk
p71
I1
sVczj0z9c
p72
I1
sVddsvib9
p73
I1
sVdj4ju5l
p74
I1
sVd47gcjn
p75
I1
sVdqish5l
p76
I9
sVd8se8gc
p77
I1
sVdfe0agp
p78
I1
sVdcm1mge
p79
I1
sVczvmz2j
p80
I1
sVdmgsw6g
p81
I1
sVcz6zwhy
p82
I1
sVd245gs8
p83
I1
sVd8nxfp2
p84
I2
sVd6op6fd
p85
I1
sVdg722jl
p86
I1
sVdq1hpqv
p87
I1
sVd1me6az
p88
I1
sVdpgxkdd
p89
I1
sVdkvrxuv
p90
I1
sVdaq3vpx
p91
I1
sVdexho62
p92
I1
sVd8nfs8s
p93
I1
sVd0sqd8n
p94
I1
sVdeo3onm
p95
I1
sVd4inc18
p96
I1
sVd8hxqv6
p97
I1
sVd3n4xkr
p98
I1
sVd0ih07h
p99
I1
sVd42yccv
p100
I1
sVd8fgb1m
p101
I1
sVdb87aio
p102
I1
sVdho39tr
p103
I2
sVd1c9485
p104
I1
sVde99n00
p105
I1
sVdg0tknv
p106
I1
sVdiatp8d
p107
I1
sVcyj5r3g
p108
I1
sVd2wthj5
p109
I2
sVd5uf52n
p110
I1
sVdiaemnp
p111
I1
sVd1he97t
p112
I1
sVdjzq68j
p113
I1
sVd2g49cz
p114
I1
sVd8vumuq
p115
I1
sVd6ebhrr
p116
I1
sVdrkdmli
p117
I1
sVdbfqm44
p118
I1
sVdd35kuy
p119
I1
sVdepjp3s
p120
I1
sVdoawxzs
p121
I1
sVd5ej5gr
p122
I1
sVd1b8tym
p123
I1
sVd44jqzs
p124
I1
sVd6a57t7
p125
I1
sVd8hhw1u
p126
I1
sVd8siznm
p127
I1
sVder52ob
p128
I1
sVdmzc50p
p129
I1
sVdan8ji3
p130
I1
sVdhn6u7x
p131
I1
sVddom4cj
p132
I1
sVdik0qav
p133
I1
sVd72e84z
p134
I1
sVdf2ysiv
p135
I1
sVdgnnp1h
p136
I1
sVd4k2oe9
p137
I1
sVdan0x77
p138
I1
sVcz54258
p139
I1
sVd7m0448
p140
I5
sVd7swt8l
p141
I1
sVd0l1zgv
p142
I1
sVd0pommt
p143
I1
sVdjgmo5k
p144
I1
sVdg94jyg
p145
I1
sVd1lu5n0
p146
I1
sVded15j5
p147
I1
sVdg3hb05
p148
I2
sVd9z37ay
p149
I1
sVd16uozw
p150
I1
sVde3vmwi
p151
I1
sVdqzu6q8
p152
I1
sVcz5431a
p153
I2
sVd3yabev
p154
I1
sVdn2mjaa
p155
I1
sVde5fo07
p156
I1
sVd9l97ns
p157
I1
sVdjtojjt
p158
I1
sVdfqawsv
p159
I1
sVcz04z55
p160
I2
sVd8orh7b
p161
I1
sVdc9y33t
p162
I1
sVd4zm112
p163
I1
sVdpi1g6m
p164
I1
sVddu7xex
p165
I1
sVd25f7h0
p166
I1
sVdcwo0pv
p167
I1
sVd19ro8w
p168
I1
sVd8rslwy
p169
I1
sVd95p1r1
p170
I1
sVd106eye
p171
I1
s.