(dp0
Vcypy1hj
p1
I1
s.(dp0
Vcyrirsq
p1
I1
sVcypy1hj
p2
I1
s.(dp0
Vcyvkn4w
p1
I1
sVcypy1hj
p2
I1
s.(dp0
Vczeipiq
p1
I1
sVcypy1hj
p2
I1
s.(dp0
Vd028a2l
p1
I1
sVcypy1hj
p2
I1
s.(dp0
Vd09ic5v
p1
I1
sVcypy1hj
p2
I1
s.(dp0
Vd0l641z
p1
I1
sVcypy1hj
p2
I1
s.(dp0
Vd0oaciw
p1
I1
sVcypy1hj
p2
I1
s.(dp0
Vd26cy4f
p1
I1
sVcypy1hj
p2
I1
s.(dp0
Vd3xfgti
p1
I1
sVcypy1hj
p2
I1
s.(dp0
Vd5aw94e
p1
I1
sVcypy1hj
p2
I1
s.(dp0
Vddbsh93
p1
I1
sVcypy1hj
p2
I1
s.(dp0
Vde6tb5l
p1
I1
sVcypy1hj
p2
I1
s.(dp0
Vdeae161
p1
I1
sVcypy1hj
p2
I1
s.(dp0
Vdeebzq5
p1
I1
sVcypy1hj
p2
I1
s.(dp0
Vdfn22ba
p1
I1
sVcypy1hj
p2
I1
s.(dp0
Vdguab3u
p1
I1
sVcypy1hj
p2
I1
s.(dp0
Vdgyak79
p1
I1
sVcypy1hj
p2
I1
s.(dp0
Vdh4wcii
p1
I1
sVcypy1hj
p2
I1
s.(dp0
Vdihfb3k
p1
I1
sVcypy1hj
p2
I1
s.(dp0
Vdiy4yik
p1
I1
sVcypy1hj
p2
I1
s.(dp0
Vdiyl0dl
p1
I1
sVcypy1hj
p2
I1
s.(dp0
Vdje1o9f
p1
I1
sVcypy1hj
p2
I1
s.(dp0
Vdoa0i0n
p1
I1
sVcypy1hj
p2
I1
s.(dp0
Vdot3phi
p1
I1
sVcypy1hj
p2
I1
s.(dp0
Vdptx5t2
p1
I1
sVcypy1hj
p2
I1
s.(dp0
Vdpu9wpd
p1
I1
sVcypy1hj
p2
I1
s.(dp0
Vdq3fzip
p1
I1
sVcypy1hj
p2
I1
s.(dp0
Vdrb36i6
p1
I1
sVcypy1hj
p2
I1
s.(dp0
Vdrb3gad
p1
I1
sVcypy1hj
p2
I1
s.(dp0
Vdrl7aej
p1
I1
sVcypy1hj
p2
I1
s.(dp0
Vdrsmwx4
p1
I1
sVcypy1hj
p2
I1
s.(dp0
Vdst5xqr
p1
I1
sVcypy1hj
p2
I1
s.