(dp0
Vds0j8u4
p1
I1
sVdenvpq2
p2
I1
sVd3i8trb
p3
I1
sVdeb7e6e
p4
I1
sVdql57ct
p5
I1
sVd2i9d6y
p6
I1
sVdnqacb6
p7
I1
sVdn3l155
p8
I1
sVd3gui8a
p9
I1
sVd7l0gt6
p10
I1
sVd2vdn8i
p11
I1
sVd6yle5s
p12
I1
sVd0adxa2
p13
I1
sVcz2uufo
p14
I1
sVderc7ku
p15
I2
sVczudoxz
p16
I1
sVd03ykto
p17
I1
sVd40vv7z
p18
I1
sVd91ty1j
p19
I1
sVdhy8bqr
p20
I1
sVd29lg2r
p21
I1
sVdaps4sx
p22
I1
sVdc8ypg5
p23
I1
sVd6wypal
p24
I1
sVdia9xbx
p25
I1
sVd8nl2wz
p26
I1
sVd03xuat
p27
I1
sVd1588zd
p28
I1
sVdqo04nr
p29
I1
sVd6mv41e
p30
I1
sVdcgsciu
p31
I1
sVddeeuw8
p32
I1
sVdeh78ag
p33
I1
sVd4t3gvo
p34
I1
sVd1d8e0m
p35
I1
sVdfnmch6
p36
I1
sVd1pg397
p37
I1
sVdneq8w4
p38
I1
sVda2nire
p39
I1
sVddpk4q3
p40
I1
sVdj6xj5z
p41
I1
sVdd6gtn8
p42
I1
sVdr31nyd
p43
I1
sVdpgtlqr
p44
I1
sVdhkrnl0
p45
I1
sVd1br9e9
p46
I1
sVd11oefr
p47
I1
sVcz82nnd
p48
I2
sVd38u1yb
p49
I1
sVczhirng
p50
I1
sVdaj9r9t
p51
I1
sVd7djem2
p52
I1
sVd0uyzq5
p53
I1
sVderdv1a
p54
I2
sVcys751i
p55
I1
sVcyses9o
p56
I1
sVd6wyiv8
p57
I1
s.