(dp0
Vdnkelbq
p1
I1
sVdf3jjmz
p2
I1
sVdbh2lb4
p3
I1
sVd55znt4
p4
I1
sVdkergdy
p5
I1
sVd4wddkx
p6
I1
sVdg5adyh
p7
I1
sVdrul9da
p8
I1
sVd3qwrxp
p9
I1
sVdf92w6t
p10
I1
sVdanafny
p11
I1
sVddka6pa
p12
I1
sVd2z80fr
p13
I1
sVdadefpy
p14
I1
sVd505p04
p15
I1
s.