(dp0
Vcyjykc6
p1
I1
s.(dp0
Vcyjykc6
p1
I2
s.(dp0
Vcyjykc6
p1
I1
sVcykous8
p2
I1
s.(dp0
Vcyqkqko
p1
I1
sVcyjykc6
p2
I1
s.(dp0
Vcyjykc6
p1
I1
sVcyqy7b0
p2
I1
s.(dp0
Vcyjykc6
p1
I1
sVcz0l34r
p2
I1
s.(dp0
Vcz16ar7
p1
I1
sVcyjykc6
p2
I1
s.(dp0
Vcyjykc6
p1
I1
sVczbg16l
p2
I1
s.(dp0
Vcyjykc6
p1
I1
sVczdrt69
p2
I1
s.(dp0
Vczhrvgo
p1
I1
sVcyjykc6
p2
I1
s.(dp0
Vcyjykc6
p1
I1
sVczwxuah
p2
I1
s.(dp0
Vcyjykc6
p1
I1
sVczzir3c
p2
I1
s.(dp0
Vd05z0t8
p1
I1
sVcyjykc6
p2
I1
s.(dp0
Vd05z0t8
p1
I1
sVcyjykc6
p2
I1
s.(dp0
Vd09bti7
p1
I1
sVcyjykc6
p2
I1
s.(dp0
Vcyjykc6
p1
I1
sVd09m4qf
p2
I1
s.(dp0
Vd0c7yyc
p1
I1
sVcyjykc6
p2
I1
s.(dp0
Vcyjykc6
p1
I1
sVd0f9bk3
p2
I1
s.(dp0
Vcyjykc6
p1
I1
sVd0h3s7w
p2
I1
s.(dp0
Vcyjykc6
p1
I1
sVd0jw2f2
p2
I1
s.(dp0
Vcyjykc6
p1
I1
sVd0mssg7
p2
I1
s.(dp0
Vcyjykc6
p1
I1
sVd0zr7kb
p2
I1
s.(dp0
Vd0zrkms
p1
I1
sVcyjykc6
p2
I1
s.(dp0
Vcyjykc6
p1
I1
sVd14pl28
p2
I1
s.(dp0
Vcyjykc6
p1
I1
sVd1gi9um
p2
I1
s.(dp0
Vcyjykc6
p1
I1
sVd1irm1c
p2
I1
s.(dp0
Vd1pb9a1
p1
I1
sVcyjykc6
p2
I1
s.(dp0
Vd1thpq6
p1
I1
sVcyjykc6
p2
I1
s.(dp0
Vcyjykc6
p1
I1
sVd1x51zq
p2
I1
s.(dp0
Vcyjykc6
p1
I1
sVd2887tk
p2
I1
s.(dp0
Vcyjykc6
p1
I1
sVd2ih5hw
p2
I1
s.(dp0
Vd2khfun
p1
I1
sVcyjykc6
p2
I1
s.(dp0
Vcyjykc6
p1
I1
sVd2q7b0z
p2
I1
s.(dp0
Vd2v0qym
p1
I1
sVcyjykc6
p2
I1
s.(dp0
Vcyjykc6
p1
I1
sVd2yqyjo
p2
I1
s.(dp0
Vcyjykc6
p1
I1
sVd3dn9mq
p2
I1
s.(dp0
Vd3dzeiv
p1
I1
sVcyjykc6
p2
I1
s.(dp0
Vd3rrlf8
p1
I1
sVcyjykc6
p2
I1
s.(dp0
Vcyjykc6
p1
I1
sVd3z84hx
p2
I1
s.(dp0
Vcyjykc6
p1
I1
sVd4attla
p2
I1
s.(dp0
Vd4bp0ti
p1
I1
sVcyjykc6
p2
I1
s.(dp0
Vcyjykc6
p1
I1
sVd4tc1mw
p2
I1
s.(dp0
Vcyjykc6
p1
I1
sVd4vays0
p2
I1
s.(dp0
Vcyjykc6
p1
I1
sVd4zo2y5
p2
I1
s.(dp0
Vcyjykc6
p1
I1
sVd53agde
p2
I1
s.(dp0
Vd5dua55
p1
I1
sVcyjykc6
p2
I1
s.(dp0
Vcyjykc6
p1
I1
sVd5f2otl
p2
I1
s.(dp0
Vd5ouu6s
p1
I1
sVcyjykc6
p2
I1
s.(dp0
Vcyjykc6
p1
I1
sVd5powvp
p2
I1
s.(dp0
Vcyjykc6
p1
I1
sVd5xo665
p2
I1
s.(dp0
Vcyjykc6
p1
I1
sVd5yhhg7
p2
I1
s.(dp0
Vd626j3s
p1
I1
sVcyjykc6
p2
I1
s.(dp0
Vd626j3s
p1
I1
sVcyjykc6
p2
I1
s.(dp0
Vcyjykc6
p1
I1
sVd63oyc2
p2
I1
s.(dp0
Vcyjykc6
p1
I1
sVd6hol5l
p2
I1
s.(dp0
Vcyjykc6
p1
I1
sVd6nqk9r
p2
I1
s.(dp0
Vcyjykc6
p1
I1
sVd6nr4m0
p2
I1
s.(dp0
Vcyjykc6
p1
I1
sVd72iw30
p2
I1
s.(dp0
Vcyjykc6
p1
I1
sVd7phxe2
p2
I1
s.(dp0
Vcyjykc6
p1
I1
sVd7qiyel
p2
I1
s.(dp0
Vcyjykc6
p1
I1
sVd7xeksq
p2
I1
s.(dp0
Vcyjykc6
p1
I1
sVd854xlu
p2
I1
s.(dp0
Vcyjykc6
p1
I1
sVd864ur3
p2
I1
s.(dp0
Vd865hbt
p1
I1
sVcyjykc6
p2
I1
s.(dp0
Vd8gk7vq
p1
I1
sVcyjykc6
p2
I1
s.(dp0
Vd92qymj
p1
I1
sVcyjykc6
p2
I1
s.(dp0
Vcyjykc6
p1
I1
sVd930apt
p2
I1
s.(dp0
Vcyjykc6
p1
I1
sVd95ssfz
p2
I1
s.(dp0
Vcyjykc6
p1
I1
sVd95tpxl
p2
I1
s.(dp0
Vcyjykc6
p1
I1
sVd9buofr
p2
I1
s.(dp0
Vcyjykc6
p1
I1
sVd9hpqas
p2
I1
s.(dp0
Vd9lhbtk
p1
I1
sVcyjykc6
p2
I1
s.(dp0
Vd9lwia6
p1
I1
sVcyjykc6
p2
I1
s.(dp0
Vda4y4jt
p1
I1
sVcyjykc6
p2
I1
s.(dp0
Vcyjykc6
p1
I1
sVdag3sss
p2
I1
s.(dp0
Vcyjykc6
p1
I1
sVdaie7zv
p2
I1
s.(dp0
Vcyjykc6
p1
I1
sVdait9nw
p2
I1
s.(dp0
Vdal8x0e
p1
I1
sVcyjykc6
p2
I1
s.(dp0
Vcyjykc6
p1
I1
sVdaoq6w5
p2
I1
s.(dp0
Vcyjykc6
p1
I1
sVdasssi1
p2
I1
s.(dp0
Vdazu8uj
p1
I1
sVcyjykc6
p2
I1
s.(dp0
Vdazu8uj
p1
I1
sVcyjykc6
p2
I1
s.(dp0
Vcyjykc6
p1
I1
sVdb4150o
p2
I1
s.(dp0
Vdb56hh7
p1
I1
sVcyjykc6
p2
I1
s.(dp0
Vdbea7nr
p1
I1
sVcyjykc6
p2
I1
s.(dp0
Vdbea7nr
p1
I1
sVcyjykc6
p2
I1
s.(dp0
Vdbeizwy
p1
I1
sVcyjykc6
p2
I1
s.(dp0
Vdbh29qm
p1
I1
sVcyjykc6
p2
I1
s.(dp0
Vdbh29qm
p1
I1
sVcyjykc6
p2
I1
s.(dp0
Vcyjykc6
p1
I1
sVdbioc5f
p2
I1
s.(dp0
Vdbrv0ht
p1
I1
sVcyjykc6
p2
I1
s.(dp0
Vdc1vt04
p1
I1
sVcyjykc6
p2
I1
s.(dp0
Vdc4l31v
p1
I1
sVcyjykc6
p2
I1
s.(dp0
Vdc5cvfg
p1
I1
sVcyjykc6
p2
I1
s.(dp0
Vdc8goi3
p1
I1
sVcyjykc6
p2
I1
s.(dp0
Vcyjykc6
p1
I1
sVdde7epi
p2
I1
s.(dp0
Vcyjykc6
p1
I1
sVde51zn0
p2
I1
s.(dp0
Vcyjykc6
p1
I1
sVde6i5r7
p2
I1
s.(dp0
Vcyjykc6
p1
I1
sVdeiw8ve
p2
I1
s.(dp0
Vcyjykc6
p1
I1
sVderuiy4
p2
I1
s.(dp0
Vcyjykc6
p1
I1
sVdetmapm
p2
I1
s.(dp0
Vcyjykc6
p1
I1
sVdfcww1v
p2
I1
s.(dp0
Vcyjykc6
p1
I1
sVdfcww1v
p2
I1
s.(dp0
Vcyjykc6
p1
I1
sVdfmd2o1
p2
I1
s.(dp0
Vcyjykc6
p1
I1
sVdg9v1b9
p2
I1
s.(dp0
Vcyjykc6
p1
I1
sVdggah1w
p2
I1
s.(dp0
Vcyjykc6
p1
I1
sVdgmom64
p2
I1
s.(dp0
Vcyjykc6
p1
I1
sVdgmom64
p2
I1
s.(dp0
Vcyjykc6
p1
I1
sVdg(dp0
Vcyjykc6
p1
I1
sVdtdn77y
p2
I1
s.