(dp0
Vcyhtwr3
p1
I1
s.(dp0
Vcyhtwr3
p1
I1
sVcykb23d
p2
I1
s.(dp0
Vcykusi1
p1
I1
sVcyhtwr3
p2
I1
s.(dp0
Vcyhtwr3
p1
I1
sVcyldgzm
p2
I1
s.(dp0
Vcylixp0
p1
I1
sVcyhtwr3
p2
I1
s.(dp0
Vcyhtwr3
p1
I1
sVcyljfpd
p2
I1
s.(dp0
Vcyhtwr3
p1
I1
sVcynkusy
p2
I1
s.(dp0
Vcyhtwr3
p1
I1
sVcynkusy
p2
I1
s.(dp0
Vcyhtwr3
p1
I1
sVcynlgyx
p2
I1
s.(dp0
Vcyhtwr3
p1
I1
sVcynlgyx
p2
I1
s.(dp0
Vcyhtwr3
p1
I1
sVcynlgyx
p2
I1
s.(dp0
Vcynmma0
p1
I1
sVcyhtwr3
p2
I1
s.(dp0
Vcyhtwr3
p1
I1
sVcyo23aq
p2
I1
s.(dp0
Vcyobjl0
p1
I1
sVcyhtwr3
p2
I1
s.(dp0
Vcypa8ua
p1
I1
sVcyhtwr3
p2
I1
s.(dp0
Vcyps2t0
p1
I1
sVcyhtwr3
p2
I1
s.(dp0
Vcypxozk
p1
I1
sVcyhtwr3
p2
I1
s.(dp0
Vcyhtwr3
p1
I1
sVcyqtu6z
p2
I1
s.(dp0
Vcyhtwr3
p1
I1
sVcyrgtyu
p2
I1
s.(dp0
Vcyhtwr3
p1
I1
sVcyrmxqt
p2
I1
s.(dp0
Vcyhtwr3
p1
I1
sVcyt2hbf
p2
I1
s.(dp0
Vcyt62sy
p1
I1
sVcyhtwr3
p2
I1
s.(dp0
Vcytytbj
p1
I1
sVcyhtwr3
p2
I1
s.(dp0
Vcyvvcr1
p1
I1
sVcyhtwr3
p2
I1
s.(dp0
Vcyhtwr3
p1
I1
sVcyxjnmo
p2
I1
s.(dp0
Vcyhtwr3
p1
I1
sVcyxuotd
p2
I1
s.(dp0
Vcyhtwr3
p1
I1
sVcyy1m83
p2
I1
s.(dp0
Vcyyxqe2
p1
I1
sVcyhtwr3
p2
I1
s.(dp0
Vcyyxqe2
p1
I1
sVcyhtwr3
p2
I1
s.(dp0
Vcyzbrsw
p1
I1
sVcyhtwr3
p2
I1
s.(dp0
Vcyzjy8h
p1
I1
sVcyhtwr3
p2
I1
s.(dp0
Vcz1flev
p1
I1
sVcyhtwr3
p2
I1
s.(dp0
Vcz28r6p
p1
I1
sVcyhtwr3
p2
I1
s.(dp0
Vcz28r6p
p1
I1
sVcyhtwr3
p2
I1
s.(dp0
Vcz28r6p
p1
I1
sVcyhtwr3
p2
I1
s.(dp0
Vcz28r6p
p1
I1
sVcyhtwr3
p2
I1
s.(dp0
Vcz28r6p
p1
I1
sVcyhtwr3
p2
I1
s.(dp0
Vcz28r6p
p1
I1
sVcyhtwr3
p2
I1
s.(dp0
Vcyhtwr3
p1
I1
sVcz3cg8x
p2
I1
s.(dp0
Vcyhtwr3
p1
I1
sVcz3cg8x
p2
I1
s.(dp0
Vcz3vzl8
p1
I1
sVcyhtwr3
p2
I1
s.(dp0
Vcz4bvzg
p1
I1
sVcyhtwr3
p2
I1
s.(dp0
Vcz4gya0
p1
I1
sVcyhtwr3
p2
I1
s.(dp0
Vcz4ops2
p1
I1
sVcyhtwr3
p2
I1
s.(dp0
Vcz4orwl
p1
I1
sVcyhtwr3
p2
I1
s.(dp0
Vcz4orwl
p1
I1
sVcyhtwr3
p2
I1
s.(dp0
Vcz5jtxe
p1
I1
sVcyhtwr3
p2
I1
s.(dp0
Vcz5s22z
p1
I1
sVcyhtwr3
p2
I1
s.(dp0
Vcz7mthj
p1
I1
sVcyhtwr3
p2
I1
s.(dp0
Vczabgbl
p1
I1
sVcyhtwr3
p2
I1
s.(dp0
Vczb01ed
p1
I1
sVcyhtwr3
p2
I1
s.(dp0
Vcyhtwr3
p1
I1
sVczc3bqx
p2
I1
s.(dp0
Vcyhtwr3
p1
I1
sVczc3bqx
p2
I1
s.(dp0
Vczcdlff
p1
I1
sVcyhtwr3
p2
I1
s.(dp0
Vcze8jmc
p1
I1
sVcyhtwr3
p2
I1
s.(dp0
Vcyhtwr3
p1
I1
sVczf1ap7
p2
I1
s.(dp0
Vcyhtwr3
p1
I1
sVczf5gd1
p2
I1
s.(dp0
Vcyhtwr3
p1
I1
sVczg32c1
p2
I1
s.(dp0
Vcyhtwr3
p1
I1
sVczgga2j
p2
I1
s.(dp0
Vczglssf
p1
I1
sVcyhtwr3
p2
I1
s.(dp0
Vczhrbb7
p1
I1
sVcyhtwr3
p2
I1
s.(dp0
Vczhs40h
p1
I1
sVcyhtwr3
p2
I1
s.(dp0
Vczi94lt
p1
I1
sVcyhtwr3
p2
I1
s.(dp0
Vczi9ddl
p1
I1
sVcyhtwr3
p2
I1
s.(dp0
Vczihyu9
p1
I1
sVcyhtwr3
p2
I1
s.(dp0
Vcyhtwr3
p1
I1
sVczjb0gv
p2
I1
s.(dp0
Vcyhtwr3
p1
I1
sVczk6sxr
p2
I1
s.(dp0
Vcyhtwr3
p1
I1
sVczkxy7z
p2
I1
s.(dp0
Vcyhtwr3
p1
I1
sVczl27nx
p2
I1
s.(dp0
Vcyhtwr3
p1
I1
sVczl27nx
p2
I1
s.(dp0
Vcyhtwr3
p1
I1
sVczl27nx
p2
I1
s.(dp0
Vczm6bou
p1
I1
sVcyhtwr3
p2
I1
s.(dp0
Vcznkapf
p1
I1
sVcyhtwr3
p2
I1
s.(dp0
Vczoq1al
p1
I1
sVcyhtwr3
p2
I1
s.(dp0
Vczpxcft
p1
I1
sVcyhtwr3
p2
I1
s.(dp0
Vczqi9zc
p1
I1
sVcyhtwr3
p2
I1
s.(dp0
Vczs3gft
p1
I1
sVcyhtwr3
p2
I1
s.(dp0
Vcztr27u
p1
I1
sVcyhtwr3
p2
I1
s.(dp0
Vczuzban
p1
I1
sVcyhtwr3
p2
I1
s.(dp0
Vcyhtwr3
p1
I1
sVczvlfkt
p2
I1
s.(dp0
Vczwbm8a
p1
I1
sVcyhtwr3
p2
I1
s.(dp0
Vczwj6b4
p1
I1
sVcyhtwr3
p2
I1
s.(dp0
Vczxnlis
p1
I1
sVcyhtwr3
p2
I1
s.(dp0
Vczxnlis
p1
I1
sVcyhtwr3
p2
I1
s.(dp0
Vczyp8xd
p1
I1
sVcyhtwr3
p2
I1
s.(dp0
Vcyhtwr3
p1
I1
sVczz2miv
p2
I1
s.(dp0
Vczztioi
p1
I1
sVcyhtwr3
p2
I1
s.(dp0
Vczzuvth
p1
I1
sVcyhtwr3
p2
I1
s.(dp0
Vd00jqzg
p1
I1
sVcyhtwr3
p2
I1
s.(dp0
Vd01aoex
p1
I1
sVcyhtwr3
p2
I1
s.(dp0
Vd0244ef
p1
I1
sVcyhtwr3
p2
I1
s.(dp0
Vd031cq9
p1
I1
sVcyhtwr3
p2
I1
s.(dp0
Vcyhtwr3
p1
I1
sVd04cdfi
p2
I1
s.(dp0
Vd06l587
p1
I1
sVcyhtwr3
p2
I1
s.(dp0
Vd06l587
p1
I1
sVcyhtwr3
p2
I1
s.(dp0
Vd06l587
p1
I1
sVcyhtwr3
p2
I1
s.(dp0
Vcyhtwr3
p1
I1
sVd06pt11
p2
I1
s.(dp0
Vcyhtwr3
p1
I1
sVd06pt11
p2
I1
s.(dp0
Vd06w970
p1
I1
sVcyhtwr3
p2
I1
s.(dp0
Vd09c3iw
p1
I1
sVcyhtwr3
p2
I1
s.(dp0
Vd09h61t
p1
I1
sVcyhtwr3
p2
I1
s.(dp0
Vcyhtwr3
p1
I1
sVd0c9a13
p2
I1
s.(dp0
Vcyhtwr3
p1
I1
sVd0c9a13
p2
I1
s.(dp0
Vcyhtwr3
p1
I1
sVd0c9a13
p2
I1
s.(dp0
Vcyhtwr3
p1
I1
sVd0c9qyj
p2
I1
s.(dp0
Vcyhtwr3
p1
I1
sVd0ca2q8
p2
I1
s.(dp0
Vd0czqtg
p1
I1
sVcyhtwr3
p2
I1
s.(dp0
Vd0dgn30
p1
I1
sVcyhtwr3
p2
I1
s.(dp0
Vd0(dp0
Vcyhtwr3
p1
I1
sVdti876l
p2
I1
s.