(dp0
Vd0wm1q1
p1
I1
s.(dp0
Vd16rbz4
p1
I1
sVd0wm1q1
p2
I1
s.(dp0
Vd315iq2
p1
I1
sVd0wm1q1
p2
I1
s.(dp0
Vd0wm1q1
p1
I1
sVd946z1e
p2
I1
s.(dp0
Vd0wm1q1
p1
I1
sVd9onr5w
p2
I1
s.(dp0
Vdqaykx9
p1
I1
sVd0wm1q1
p2
I1
s.