(dp0
Vczhvekj
p1
I1
s.(dp0
Vd0jfkke
p1
I1
sVczhvekj
p2
I1
s.(dp0
Vd0jfkke
p1
I1
sVczhvekj
p2
I1
s.(dp0
Vczhvekj
p1
I1
sVd1d6r6j
p2
I1
s.(dp0
Vczhvekj
p1
I1
sVd1e4j9f
p2
I1
s.(dp0
Vd5qa8ba
p1
I1
sVczhvekj
p2
I1
s.(dp0
Vczhvekj
p1
I1
sVd5yrgxp
p2
I1
s.(dp0
Vczhvekj
p1
I1
sVd62fslb
p2
I1
s.(dp0
Vczhvekj
p1
I1
sVd6lwjnv
p2
I1
s.(dp0
Vczhvekj
p1
I1
sVd6s2029
p2
I1
s.(dp0
Vczhvekj
p1
I1
sVd6s2029
p2
I1
s.(dp0
Vczhvekj
p1
I1
sVd77cw4r
p2
I1
s.(dp0
Vczhvekj
p1
I1
sVd77cw4r
p2
I1
s.(dp0
Vczhvekj
p1
I1
sVd8ic2ol
p2
I1
s.(dp0
Vd9q2tyx
p1
I1
sVczhvekj
p2
I1
s.(dp0
Vczhvekj
p1
I1
sVdc1jign
p2
I1
s.(dp0
Vczhvekj
p1
I1
sVdc2m5dc
p2
I1
s.(dp0
Vczhvekj
p1
I1
sVddyn776
p2
I1
s.(dp0
Vczhvekj
p1
I1
sVddyn776
p2
I1
s.(dp0
Vdhs4gx3
p1
I1
sVczhvekj
p2
I1
s.(dp0
Vczhvekj
p1
I1
sVdikjgct
p2
I1
s.(dp0
Vdqt4o42
p1
I1
sVczhvekj
p2
I1
s.(dp0
Vczhvekj
p1
I1
sVdsi28vx
p2
I1
s.(dp0
Vczhvekj
p1
I1
sVdtclz0q
p2
I1
s.(dp0
Vczhvekj
p1
I1
sVdtclz0q
p2
I1
s.