(dp0
Vdt9iqyj
p1
I1
sVd6m3pjp
p2
I1
sVda1qfhp
p3
I1
sVdtjkbuc
p4
I1
sVdgf25d9
p5
I1
sVdavci1j
p6
I1
sVd0ylrri
p7
I1
sVdnxl2mu
p8
I1
sVd2i5d9h
p9
I3
sVcyxegtb
p10
I1
sVd66rmmf
p11
I1
sVd5821e7
p12
I1
sVdh2oin6
p13
I1
sVdat7y90
p14
I1
sVdc8ogpa
p15
I1
sVdkjvqg8
p16
I1
sVdjbncex
p17
I1
sVd2o34ji
p18
I1
sVd0urh1l
p19
I1
sVd5hl1gf
p20
I1
sVdotct09
p21
I1
sVdat389m
p22
I1
sVcysttry
p23
I1
sVda6n14q
p24
I1
sVd2bejrd
p25
I1
sVczj29iz
p26
I1
sVd84b7k8
p27
I1
sVdait8ci
p28
I1
sVdcxiwm2
p29
I1
sVdipmb6c
p30
I1
sVd9c8ret
p31
I1
sVczh0xfw
p32
I1
sVda1gpqw
p33
I1
sVd9mr8q6
p34
I1
sVdc7zyed
p35
I1
sVdd3s21n
p36
I1
s.