(dp0
Vd64gp9n
p1
I3
sVdjedm7r
p2
I1
sVdaqq16n
p3
I1
sVd85vkl9
p4
I1
sVd0uqkoh
p5
I1
sVdfblvqn
p6
I1
sVdg187d6
p7
I1
sVdfhrtep
p8
I1
sVdnrdn4e
p9
I1
sVczehe31
p10
I2
sVdopyv60
p11
I1
sVdmi3ofj
p12
I1
sVdre0oz9
p13
I1
sVdnv688p
p14
I1
sVd27arx0
p15
I1
sVd410vn7
p16
I1
sVczybq47
p17
I1
sVcz2bhjy
p18
I1
sVdit0qzd
p19
I1
sVddi5ak4
p20
I1
sVcyufd2e
p21
I1
sVd0r3ali
p22
I1
sVddp6j1f
p23
I2
sVdgdjweu
p24
I6
sVd63vcfc
p25
I1
sVd7jxa1g
p26
I1
sVczun9tz
p27
I1
sVd2p2b7l
p28
I1
sVd4zi7zn
p29
I3
sVdbb8zgp
p30
I1
sVdiwfsnx
p31
I1
sVd70aovr
p32
I1
sVdijd5q4
p33
I1
sVdk6262b
p34
I1
sVd45y215
p35
I1
sVdn69q9i
p36
I1
sVden1wxt
p37
I1
sVd4n24lv
p38
I6
sVdg0jye9
p39
I2
sVdhdvun6
p40
I1
sVd81v1jj
p41
I1
sVdmeqzri
p42
I3
sVdfvxxx4
p43
I1
sVdg3l3hh
p44
I1
sVdi3vjqk
p45
I1
sVd7lrzlj
p46
I1
sVd0ues50
p47
I2
sVdfy3xbk
p48
I1
sVdh0zkf6
p49
I1
sVd6w3if6
p50
I1
s.