(dp0
Vd7batou
p1
I1
sVdbl9o12
p2
I1
sVd360cqa
p3
I2
sVdg07r2n
p4
I1
sVdehtebl
p5
I1
sVdflvf6p
p6
I1
sVdijefp8
p7
I1
sVdfxi2ub
p8
I1
sVdkw5szt
p9
I1
sVd80dkpa
p10
I2
sVdn69q9i
p11
I1
sVd9hx2pm
p12
I1
sVdqg70ri
p13
I1
sVd2pxdn8
p14
I1
sVd6ugyz3
p15
I1
s.