(dp0
Vdkdoi0s
p1
I1
sVd073kt7
p2
I1
sVd9zlwcn
p3
I1
sVd83i5ct
p4
I1
sVdq8mmlb
p5
I1
sVd64gp9n
p6
I1
sVdq0mxdh
p7
I1
sVdp3zlbn
p8
I1
sVd0o0lvq
p9
I1
sVdgm72ef
p10
I1
sVczswcsx
p11
I2
sVd8tjem0
p12
I1
sVdr0rhgv
p13
I1
sVdgbeqxq
p14
I1
sVdcjnjci
p15
I1
sVd7dcm3u
p16
I1
sVdq7ycyx
p17
I1
sVd6quqa6
p18
I1
s.