(dp0
Vd1f5ak2
p1
I1
sVd5lcb1b
p2
I1
sVcyn1t78
p3
I1
sVdsa50ag
p4
I1
sVdg5087g
p5
I1
sVd7lvgy3
p6
I2
sVda9flmd
p7
I2
sVdmgvmo8
p8
I2
sVddt73u4
p9
I4
sVd03lzzh
p10
I1
sVdjkbabt
p11
I1
sVdg2i6hs
p12
I1
sVcz7jojo
p13
I1
sVdkrbd5n
p14
I1
sVd8932yf
p15
I1
sVdmjmjql
p16
I1
sVdinug5k
p17
I1
sVdsvcd3u
p18
I1
sVdn40kxf
p19
I1
sVdh3owvu
p20
I2
sVd1p8rz8
p21
I1
sVddetz24
p22
I2
sVd1p2ccw
p23
I1
sVdfo8ajm
p24
I1
sVd8aiycp
p25
I1
sVczlhlaq
p26
I1
sVcylk68w
p27
I1
sVd8lu414
p28
I1
sVdp9ut6q
p29
I1
sVcyuldux
p30
I1
sVd736ggk
p31
I1
sVd83aqlu
p32
I1
sVcyyjm5f
p33
I1
sVd9y4gsn
p34
I1
sVdg7vzgu
p35
I1
sVdax9zvc
p36
I1
sVd6rjha4
p37
I1
sVdbs9nso
p38
I2
sVd6mbm5m
p39
I1
sVdjatp0e
p40
I1
sVdhlduux
p41
I1
sVdad0h8t
p42
I2
sVdpj005m
p43
I1
sVdcl0a3p
p44
I1
sVd5ylns8
p45
I1
sVdk90lc7
p46
I5
sVd2g2k26
p47
I1
sVdoeprjp
p48
I1
sVdge0bvv
p49
I2
sVdd5y7m6
p50
I1
sVd9dgze8
p51
I1
sVd251hem
p52
I2
sVdq33t0y
p53
I2
sVd7cwpcv
p54
I1
s.