(dp0
Vdodbcq8
p1
I1
sVd1dzgzt
p2
I1
sVdh6e8b8
p3
I1
sVdq50irf
p4
I1
sVd9kkwk9
p5
I1
sVdjg6lso
p6
I1
sVdsf8m3c
p7
I1
sVdcckpst
p8
I1
sVd3d58ri
p9
I1
sVd39e5lq
p10
I1
sVd79ojhs
p11
I1
sVdbd48bk
p12
I1
sVd8j6tb9
p13
I1
sVd2ipjnr
p14
I1
sVdhrs6en
p15
I1
sVdhge69j
p16
I1
sVddii9m6
p17
I1
sVd4dml4m
p18
I1
sVd0bl9ny
p19
I1
sVdkbrj9e
p20
I1
sVd2gv946
p21
I1
sVdj3tpuz
p22
I1
sVd4j1596
p23
I1
sVcz0qpzg
p24
I1
sVderp750
p25
I1
sVddpxqdq
p26
I1
sVdaa7x26
p27
I1
sVd8s0b6i
p28
I1
sVdbfr8b4
p29
I1
sVdh8fmvb
p30
I1
sVdo4v380
p31
I1
sVd95rc1p
p32
I1
sVdfrkdye
p33
I1
sVd7bzngt
p34
I1
sVdjecn3t
p35
I1
sVdmepdsi
p36
I1
sVd5wwvky
p37
I1
sVdaqwihs
p38
I1
sVd5b3mj3
p39
I1
sVd30irjm
p40
I1
sVdp77yf8
p41
I1
sVdc2s7mf
p42
I1
sVdhiygy6
p43
I1
sVde2iebn
p44
I1
sVdcezjzd
p45
I1
sVdkkiv5t
p46
I1
sVd3x0x4h
p47
I1
sVddz3pjm
p48
I1
sVcyozhwg
p49
I1
sVdrr9neb
p50
I1
sVdb4v5tt
p51
I1
sVdi5liof
p52
I1
sVd1l5zim
p53
I1
sVdb96gwk
p54
I1
sVd3yobyw
p55
I1
sVdhc8m3s
p56
I1
sVdeae7kc
p57
I1
sVd1j4l5k
p58
I1
sVdeza3jr
p59
I1
sVczbq05e
p60
I1
sVd9ci83r
p61
I1
sVdmjtyze
p62
I1
sVdtdoli8
p63
I1
sVdk5as9x
p64
I1
sVde54xot
p65
I1
sVd6kaex1
p66
I1
sVd14ajh6
p67
I1
sVdquuq1r
p68
I1
sVdsouijh
p69
I1
sVd0iikes
p70
I1
sVd2fxzsf
p71
I1
sVczgssa7
p72
I1
sVd0ne749
p73
I1
sVdg1rddc
p74
I2
sVdjpxvki
p75
I1
sVd3tz6lw
p76
I1
sVddtl4gd
p77
I1
sVd41bdxg
p78
I1
sVdg2hzv0
p79
I1
sVdnehx7d
p80
I1
sVdr90msv
p81
I1
sVd1252l6
p82
I1
sVdd8lwyz
p83
I2
sVdi8gtq2
p84
I1
sVdcquejf
p85
I1
sVdirlf02
p86
I1
sVdf7nvbn
p87
I1
sVczolev9
p88
I1
sVdqpe4im
p89
I1
sVdoypvji
p90
I1
sVd0wvgzb
p91
I1
sVd5x1879
p92
I1
sVdg27s31
p93
I1
sVdny9h8d
p94
I1
sVdbpyffj
p95
I1
sVdkjvt74
p96
I1
sVd0cm9ch
p97
I1
sVddxc72n
p98
I1
sVcyw8sq3
p99
I1
sVdru1yzd
p100
I1
sVd2go2w1
p101
I1
sVddhhkqn
p102
I1
sVd12mm6f
p103
I1
sVd77qato
p104
I1
sVd6ym7g4
p105
I1
sVd5ijpwr
p106
I1
sVd9llnnr
p107
I1
sVdd4v13r
p108
I2
sVddx3p2h
p109
I1
sVdkvfv9m
p110
I1
sVd6f23lw
p111
I1
sVdbbywui
p112
I1
sVdeioh8l
p113
I1
sVdbj13ct
p114
I1
sVczxrjmi
p115
I1
sVd9x5l8l
p116
I1
sVdiab2ev
p117
I1
sVd1jqghj
p118
I1
sVdivxlw3
p119
I1
sVdolm374
p120
I1
sVd56xss0
p121
I1
sVdrpkaz5
p122
I1
sVdaxkekk
p123
I1
sVd8tpk5t
p124
I1
sVda4aeam
p125
I2
sVdspiuia
p126
I1
sVdeazbyp
p127
I1
sVdpacrc5
p128
I1
sVdfxszhl
p129
I1
sVdhpmumf
p130
I1
sVd7sk5h8
p131
I1
sVdba1o0i
p132
I1
sVdk75exo
p133
I1
sVd4rdti2
p134
I1
sVd67mwra
p135
I2
sVd27cvzh
p136
I1
sVdpvcv28
p137
I1
sVdmy6kjx
p138
I1
sVd7vasrm
p139
I1
sVdmv7y3o
p140
I1
sVd2orgxs
p141
I1
sVd9mne6i
p142
I1
sVd9lerlc
p143
I1
sVd16qtm9
p144
I1
sVczk0gux
p145
I1
sVd5gurrx
p146
I1
sVdh5gkcb
p147
I1
sVcz8j1ue
p148
I1
sVd3gqhfx
p149
I1
sVdgd93cb
p150
I1
sVd02a6ay
p151
I1
sVcyzhfvu
p152
I1
sVdf3gic2
p153
I1
sVds0pm7h
p154
I1
sVcywevl9
p155
I1
sVdjx2az0
p156
I1
sVdaaurfw
p157
I1
sVdrta8g8
p158
I1
sVd4exqac
p159
I1
sVd050n0h
p160
I1
sVdhiksbk
p161
I1
sVdj8086u
p162
I1
sVd0be2pq
p163
I1
sVd7qddpc
p164
I1
sVd0t0csg
p165
I1
sVdfeot3m
p166
I1
sVdfmdc3l
p167
I1
sVdej0dss
p168
I1
sVdskq34t
p169
I1
sVdeigf56
p170
I1
sVd71jwu9
p171
I1
sVd151vde
p172
I1
sVd0ihjn0
p173
I1
sVd7pp7ep
p174
I1
sVd3twm80
p175
I1
sVdds8k2s
p176
I1
sVdfzuago
p177
I1
sVd3nyggu
p178
I3
sVczmfi09
p179
I1
sVdnvmk7r
p180
I1
sVd6bk9nz
p181
I1
sVd0eilkn
p182
I1
sVdnxzw2r
p183
I1
sVdejfi46
p184
I1
sVdg27oa8
p185
I1
sVd44jys3
p186
I1
sVdtb7b30
p187
I1
sVcykj3l2
p188
I1
sVczgzj47
p189
I1
sVdf4ncv2
p190
I1
sVd67gbzm
p191
I1
sVdf3zcw5
p192
I1
sVdd4ym81
p193
I1
sVdjldcyy
p194
I1
sVdipte5u
p195
I1
sVdcmn4g3
p196
I1
sVczds0ft
p197
I1
sVdb5kokq
p198
I1
sVdo5g75u
p199
I1
sVdre0sc3
p200
I1
sVdf2u61e
p201
I1
sVdo1u5xg
p202
I1
sVczyhy3l
p203
I1
sVd8cf4a3
p204
I1
sVd3oaue8
p205
I1
sVdmke1z4
p206
I1
sVd94pts2
p207
I1
sVd9tuxuf
p208
I1
sVdca5or8
p209
I2
sVczqhrmh
p210
I1
sVdqajzuq
p211
I1
sVdjtxjyi
p212
I1
sVcz8cc0w
p213
I1
sVdn0plmu
p214
I2
sVd3b7x41
p215
I1
sVcywvgv6
p216
I1
sVd1x7d2e
p217
I1
sVcz2sw1v
p218
I1
sVdbki3vs
p219
I2
sVdo0q7tv
p220
I1
sVdavvzkv
p221
I1
sVcz9m1xg
p222
I1
sVdsc0jii
p223
I1
sVdkx8m24
p224
I1
sVd00dbsj
p225
I1
sVd4r19ou
p226
I1
sVdgkab31
p227
I1
sVczml8ww
p228
I1
sVd8ox0zo
p229
I1
sVd7mic8h
p230
I1
sVde6gxra
p231
I1
sVdhy8y0r
p232
I1
sVd4u5qp4
p233
I1
sVdihtd9l
p234
I1
sVdi8vwrv
p235
I1
sVd72j0ev
p236
I1
sVdnz2ak0
p237
I2
sVd3v90dx
p238
I1
sVdj2z4gy
p239
I2
sVda9ev7b
p240
I2
sVd8ncj76
p241
I1
sVdas0aci
p242
I1
sVd2x2qcg
p243
I1
sVdn7ziv3
p244
I1
sVdi13ddz
p245
I2
sVd21rqdj
p246
I1
sVd3i3tsp
p247
I1
sVdc0krhi
p248
I1
sVdh7oj5o
p249
I1
sVdt30bnj
p250
I1
sVd6f2om2
p251
I1
sVdjn8mdb
p252
I1
sVdf72j5g
p253
I2
sVd1nvp97
p254
I1
sVd3cku6w
p255
I1
sVd8c1liq
p256
I1
sVde29bqp
p257
I1
sVdhc48cc
p258
I1
sVd1ycy36
p259
I1
sVds0ghbt
p260
I1
sVd8ybbhc
p261
I1
sVd1flcw3
p262
I1
sVd7v2pfh
p263
I1
sVdifzjjj
p264
I1
sVdetsvg8
p265
I2
sVdqfjjze
p266
I1
sVcyp22fc
p267
I1
sVd4xusej
p268
I1
sVcyssfd1
p269
I1
sVd61rqtd
p270
I1
sVd9h2a72
p271
I2
sVdbbxyp3
p272
I1
sVczwkboe
p273
I1
sVdniqivn
p274
I1
sVdd6rb4i
p275
I1
sVdreo2l3
p276
I2
sVdj7serr
p277
I1
sVd1q4y9x
p278
I2
sVd14qtiq
p279
I1
sVd0ue1ic
p280
I1
sVdf92sz6
p281
I1
sVdhsy933
p282
I1
sVd0y7pdb
p283
I1
sVdeb7fgl
p284
I1
sVd8burzk
p285
I1
sVd64x922
p286
I1
sVdinsgv4
p287
I1
sVdnv2l6j
p288
I1
sVdid1hs2
p289
I2
sVd2rrb8g
p290
I1
sVdgl3x17
p291
I1
sVdb5csru
p292
I1
sVcz6adxe
p293
I1
sVdrbiiup
p294
I1
sVd28x02y
p295
I1
sVd4yqnbu
p296
I1
sVdospp2y
p297
I1
sVdgnnp1h
p298
I1
sVcznp2u5
p299
I1
sVdqmls84
p300
I1
sVdf5s1yd
p301
I1
sVczmaci4
p302
I1
sVd358exz
p303
I1
sVdchnmi5
p304
I1
sVdi4vfey
p305
I1
sVdj7rrfc
p306
I1
sVdf0zoi9
p307
I1
sVd8klp1s
p308
I1
sVddwnply
p309
I1
sVddinz59
p310
I1
sVdmh2bgg
p311
I1
sVd995ude
p312
I1
sVde5tor3
p313
I1
sVdq7v3j9
p314
I1
sVde5ruha
p315
I1
sVd87kfnu
p316
I2
sVd29zl97
p317
I1
sVd2bu2ez
p318
I1
sVd624u4b
p319
I1
sVdo04pw1
p320
I1
sVd4b888s
p321
I1
sVdnewwu6
p322
I1
sVczd0d1l
p323
I1
sVdr0iipf
p324
I1
sVdcwh97u
p325
I1
sVd04wbw0
p326
I1
sVdc3lm6d
p327
I1
sVd3w8say
p328
I1
sVd8tg335
p329
I1
sVd0w4hd7
p330
I1
sVdifbx2l
p331
I1
sVcykxfce
p332
I1
sVd7dp5y4
p333
I1
sVd72d6bv
p334
I1
sVd24g5rc
p335
I1
sVdk2at8m
p336
I1
sVdcqrl86
p337
I2
sVcyjnhn4
p338
I1
sVdhjttc7
p339
I1
sVd6o5eej
p340
I1
sVd7b35or
p341
I1
sVdpyv3vu
p342
I1
sVd3n0ilj
p343
I2
sVd0pzza8
p344
I1
sVde0h1m9
p345
I1
sVdqfbv28
p346
I1
sVd6c0lkz
p347
I1
sVdi2v7iv
p348
I1
sVd6skq1m
p349
I1
sVdo432op
p350
I1
sVd9x1yhw
p351
I2
sVd669rmv
p352
I1
sVdsn2l4b
p353
I1
sVdnzntmp
p354
I1
sVdqbei6l
p355
I1
sVd1nd6v8
p356
I1
sVd15040f
p357
I1
sVdca7fca
p358
I1
sVdihiuve
p359
I1
sVd3x9366
p360
I1
sVd87bmp6
p361
I1
sVd2gqrcm
p362
I1
sVd769ftv
p363
I1
sVdblxt1f
p364
I1
sVdcex57o
p365
I1
sVdcviv12
p366
I1
sVddfygzi
p367
I2
sVd5cv0px
p368
I1
sVdpoixif
p369
I1
sVd7q267p
p370
I1
sVcz2ouzh
p371
I1
sVdhc2qj3
p372
I1
sVcysj517
p373
I1
sVddi6h9b
p374
I1
sVd35jymc
p375
I1
sVd4i6166
p376
I1
sVczztfzt
p377
I1
sVd08jpka
p378
I1
sVcyqarv2
p379
I1
sVdac00x4
p380
I1
sVd0n9n0e
p381
I2
sVd0eib3p
p382
I1
sVdmybvr8
p383
I1
sVde4yd06
p384
I1
sVdjczjhm
p385
I1
sVdjbytjn
p386
I1
sVdkvjxff
p387
I1
sVd1xcwcz
p388
I1
sVd12i1yu
p389
I1
sVdgr0y7q
p390
I1
sVdjcgq82
p391
I1
sVddx44c9
p392
I3
sVdqgu60f
p393
I2
sVdkkdg8x
p394
I1
sVdc19joi
p395
I1
sVdol2zfs
p396
I1
sVdf21rei
p397
I1
sVdou8h6l
p398
I1
sVczi8b8e
p399
I1
sVd4aftt8
p400
I1
sVd0ojru9
p401
I1
sVdcit9wf
p402
I1
sVdne7y0q
p403
I1
sVd1sc1y2
p404
I1
sVd1bp62x
p405
I1
sVdau34z0
p406
I1
sVd4jimed
p407
I1
sVd69tri6
p408
I1
sVdd6xhio
p409
I1
sVdiolzzt
p410
I1
sVddfl6fp
p411
I1
sVdb3mz2c
p412
I1
sVdn0pl3n
p413
I2
sVdkqhft2
p414
I1
sVdhnddde
p415
I1
sVd7t14q0
p416
I1
sVdg8m8m9
p417
I1
sVcylycha
p418
I2
sVd5praea
p419
I1
sVdf3piaz
p420
I1
sVd42717y
p421
I1
sVd5wn842
p422
I1
sVd7kzfzf
p423
I1
sVdg2rlus
p424
I1
sVdmognlk
p425
I1
sVd433u0t
p426
I1
sVdicu6qj
p427
I1
sVd9h98ok
p428
I1
sVdo2otbj
p429
I1
sVd29eayj
p430
I1
sVdtdy06q
p431
I2
sVdd7779v
p432
I1
sVdcrlzq3
p433
I1
sVdgvj11d
p434
I1
sVd0z72zw
p435
I1
sVd8ilw4h
p436
I1
sVdr3q6g3
p437
I1
sVcylc54r
p438
I1
sVdse2hex
p439
I1
sVdhsvu9w
p440
I1
sVdhn8sqf
p441
I1
sVdi0exw2
p442
I1
sVd7xt4pt
p443
I1
sVdrkx8cr
p444
I1
sVdmkeypy
p445
I1
sVd10lvdl
p446
I1
sVcyjk6pe
p447
I2
sVd3bb1dr
p448
I1
sVd2kfx98
p449
I1
sVdgnl8ba
p450
I1
sVdjd904r
p451
I1
sVd1hi2w3
p452
I1
sVdqn8m5m
p453
I1
sVd20yzyw
p454
I1
sVczoqeic
p455
I1
sVdh8k1jr
p456
I1
sVd6xt8jr
p457
I1
sVdj2ctow
p458
I1
sVdtam2sl
p459
I2
sVd2bc9ki
p460
I1
sVdfj26at
p461
I1
sVd590i79
p462
I1
sVdfnnhgz
p463
I1
sVdbqhqfr
p464
I1
sVdar1ri3
p465
I1
sVd617sb2
p466
I1
sVd1aapyo
p467
I1
sVd1ebjhy
p468
I1
sVd4idmbx
p469
I1
sVcztdb0v
p470
I1
sVdbxo1wo
p471
I1
sVde9xase
p472
I1
sVd100tnr
p473
I1
sVdhs39cc
p474
I1
sVdj0p62c
p475
I1
sVczla22h
p476
I1
sVdfzjaru
p477
I1
sVdbuth8p
p478
I1
sVdmrxz46
p479
I1
sVdpeqvo3
p480
I1
sVd2beisu
p481
I2
sVddn93e4
p482
I1
sVd3pihnb
p483
I1
sVd1vxntc
p484
I2
sVd7cr1qt
p485
I1
sVdc6kqel
p486
I1
sVd13ru1v
p487
I1
sVdngx0vp
p488
I2
sVdhbrj1l
p489
I1
sVdpnawdi
p490
I1
sVd1dakaj
p491
I1
sVdrg6r0j
p492
I1
sVd5r5wcq
p493
I1
sVdg7sreq
p494
I1
sVd1mqcyh
p495
I5
sVdfhz251
p496
I1
sVd6r99gl
p497
I1
sVdjbyssg
p498
I1
sVcynrupq
p499
I2
sVdp35ewq
p500
I1
sVd0p02um
p501
I1
sVd7dzx9r
p502
I1
sVdgibv35
p503
I1
sVd2cstd3
p504
I1
sVd1fv8lz
p505
I1
sVdbec12f
p506
I1
sVczrgroa
p507
I2
sVd0ugcsq
p508
I1
sVd9d5ftv
p509
I1
sVddpqi7t
p510
I1
sVdel748h
p511
I1
sVd2ebpoi
p512
I1
sVd94lslo
p513
I1
sVdcz46su
p514
I1
sVd0tjzd7
p515
I1
sVdfirr2h
p516
I1
sVczjz2ov
p517
I1
sVdoqbxqb
p518
I1
sVd48w92x
p519
I1
sVdfrnw49
p520
I1
sVd4xgq5h
p521
I1
sVd5ntuzy
p522
I1
sVd95r2b8
p523
I1
sVdjsh9uv
p524
I1
sVcyp8o2z
p525
I1
sVda4dowv
p526
I1
sVdmio5ns
p527
I1
sVdggd2ba
p528
I1
sVdhxp3n7
p529
I1
sVd1a3mz2
p530
I1
sVd4xm31f
p531
I1
sVd2kvodr
p532
I2
sVddzwzem
p533
I1
sVd23sipw
p534
I1
sVd8wud10
p535
I1
sVd16yada
p536
I1
sVd000dp8
p537
I2
sVdopxzqt
p538
I1
sVdmf4kcf
p539
I1
sVd33fxiv
p540
I2
sVd8qwydo
p541
I1
sVd73e4jy
p542
I1
sVdd0q2ll
p543
I1
sVd69ek3a
p544
I1
sVdoid1v5
p545
I1
sVd3jl0lr
p546
I1
sVd9i003w
p547
I2
sVdk7pnju
p548
I1
sVdrq5ion
p549
I2
sVd9cqzuc
p550
I1
sVcyxkshx
p551
I1
sVd05j6h4
p552
I1
sVddn2p9g
p553
I1
sVdf19p3f
p554
I1
sVd01s4t3
p555
I1
sVdmqjth2
p556
I1
sVdd5rq7e
p557
I1
sVdj1fdb6
p558
I1
sVdg9e5r7
p559
I1
sVd14pqs1
p560
I1
sVd6gmgf8
p561
I1
sVdqdlrkf
p562
I1
sVd821cdm
p563
I1
sVd9vuagg
p564
I1
sVdkk7t9t
p565
I1
sVd7oc84u
p566
I1
sVdcacol9
p567
I1
sVdd9dmtj
p568
I1
sVdbvwrp6
p569
I1
sVcyp1tqp
p570
I1
sVdbrzrh4
p571
I1
sVd5zrd37
p572
I1
sVdfhawwc
p573
I1
sVdq2m8v7
p574
I1
sVd0l5ftx
p575
I1
sVd5vlfjg
p576
I1
sVcz18i3q
p577
I1
sVcz4t97t
p578
I1
sVdjfll9z
p579
I1
sVdpjeou0
p580
I1
sVd9ydsos
p581
I1
sVdghen9m
p582
I1
sVcz725vk
p583
I1
sVd3vtcnx
p584
I1
sVdem1xop
p585
I1
sVde7j153
p586
I1
sVcz2w8ul
p587
I1
sVd5ywifo
p588
I1
sVdhviy87
p589
I1
sVdjtu7v2
p590
I1
sVdffk88g
p591
I1
sVd19iqvw
p592
I1
sVd3kxrd8
p593
I1
sVd15wfkj
p594
I1
sVd5ndjsc
p595
I1
sVde5yae3
p596
I1
sVdfrs3u6
p597
I1
sVd2x384d
p598
I1
sVd8jtd7v
p599
I2
sVdbfxb4e
p600
I1
sVdiroe5p
p601
I1
sVdf0n8gu
p602
I1
sVdmkfn9y
p603
I1
sVddx5chg
p604
I1
sVd70ogn0
p605
I1
sVdeqmkyl
p606
I1
sVd2g51v9
p607
I1
sVd9p6e4w
p608
I1
sVdn8hoiv
p609
I3
sVdg5yg5x
p610
I1
sVcytk1l5
p611
I1
sVd8arf3l
p612
I1
sVdaty88n
p613
I1
sVczfcco3
p614
I1
sVd2silqc
p615
I1
sVdfekaiu
p616
I1
sVcyw43gb
p617
I1
sVdmuel71
p618
I1
sVd3du13r
p619
I1
sVdpb2o0d
p620
I1
sVd7w7m9t
p621
I1
sVdqufy5m
p622
I1
sVdo2fz4j
p623
I1
sVd8aiycp
p624
I1
sVddjwc3f
p625
I1
sVcymeuuj
p626
I1
sVd69hhzx
p627
I1
sVdr2dbg3
p628
I1
sVdi2lw1r
p629
I1
sVdn0panx
p630
I2
sVdidjpsg
p631
I1
sVd19nyuy
p632
I2
sVd59lf9a
p633
I1
sVdjeglqb
p634
I1
sVdjz6mth
p635
I1
sVdo89x4i
p636
I2
sVd4igpyo
p637
I2
sVcys26o9
p638
I1
sVd8l66p0
p639
I1
sVde7h08r
p640
I1
sVcyi6uq8
p641
I1
sVdhi6s51
p642
I1
sVdsqfwoy
p643
I1
sVd2afoa1
p644
I1
sVd3rtjw6
p645
I1
sVcznmuns
p646
I2
sVdoeo56m
p647
I1
sVd2uix4i
p648
I1
sVdhja2eb
p649
I2
sVdcuj3yi
p650
I1
sVdr4ms9m
p651
I1
sVdqz8g9d
p652
I1
sVd1wmopn
p653
I1
sVdayrppj
p654
I1
sVdfw33y6
p655
I1
sVdt7wnmj
p656
I1
sVd9fh0ow
p657
I1
sVdhresvv
p658
I1
sVd1u582t
p659
I1
sVdflct4y
p660
I1
sVdsimlz1
p661
I1
sVdeu38k7
p662
I1
sVdfyo9x7
p663
I1
sVd7vau6h
p664
I1
sVd88fz0t
p665
I1
sVd80ihmi
p666
I1
sVdjzmq0y
p667
I1
sVcyzmoz9
p668
I1
sVd21s2t8
p669
I1
sVd35uurq
p670
I1
sVdj8buyw
p671
I1
sVdjnj0pm
p672
I2
sVd17c90a
p673
I1
sVdhss8ey
p674
I1
sVcyirt8c
p675
I1
sVdt68hic
p676
I1
sVdedd3xy
p677
I1
sVdhc3v1u
p678
I1
sVd79wakz
p679
I1
sVdfk8q6x
p680
I1
sVd9t49mh
p681
I1
sVd577wuv
p682
I1
sVdescf5g
p683
I2
sVddrayj0
p684
I1
sVd3da78h
p685
I2
sVd2uxg61
p686
I1
sVd74h794
p687
I1
sVd11yff1
p688
I2
sVdf1xn86
p689
I1
sVd6db0en
p690
I2
sVdde0w1u
p691
I1
sVd28d5vp
p692
I1
sVdbpa6f9
p693
I1
sVd7azsme
p694
I2
sVd6ddwca
p695
I1
sVdiqfir7
p696
I1
sVdjkt6f3
p697
I1
sVdb9v0vg
p698
I1
sVd3657k2
p699
I1
sVdpxvxuw
p700
I1
sVd6ykilg
p701
I1
sVd1ijok6
p702
I1
sVdpyenov
p703
I1
sVdkqgmub
p704
I1
sVd1nvrb7
p705
I1
sVdgoele1
p706
I1
sVdj7num1
p707
I2
sVdg3zpvx
p708
I1
sVdfc3vqy
p709
I1
sVdcy8sek
p710
I1
sVdjpb5qo
p711
I1
sVddoc5w0
p712
I1
sVdk2jwa2
p713
I1
sVd5jssgb
p714
I1
sVdbo2g38
p715
I1
sVdhhas5d
p716
I1
sVdaa9k7e
p717
I1
sVd1p2bxo
p718
I1
sVdnzikd6
p719
I1
sVdbwdn8f
p720
I1
sVdcjlomc
p721
I1
sVddndxm2
p722
I1
sVd0ky1f9
p723
I1
sVd49dci8
p724
I1
sVcyiqvua
p725
I1
sVdc3953e
p726
I1
sVdg5dfou
p727
I1
sVdj10e0w
p728
I1
sVdktykr2
p729
I1
sVdncjcvr
p730
I1
sVd1ethpl
p731
I1
sVdn4q7mz
p732
I1
sVd68bjby
p733
I1
sVdiktayq
p734
I1
sVd14qpi5
p735
I1
sVdqutyo3
p736
I1
sVd003a08
p737
I1
sVdfmuciz
p738
I1
sVdhvj9pr
p739
I1
sVdtgfx36
p740
I1
sVdcxil2s
p741
I2
sVdd8ukvd
p742
I1
sVdi6lv37
p743
I1
sVd2y5kx7
p744
I1
sVd492gqp
p745
I1
sVddohf9j
p746
I1
sVd01eky4
p747
I1
sVd3dep10
p748
I1
sVd1e9az6
p749
I1
sVds6clvr
p750
I1
sVdscxk06
p751
I1
sVczfp0pc
p752
I1
sVcynz810
p753
I1
sVd9d5esa
p754
I1
sVczzwl26
p755
I3
sVdh0dd6p
p756
I1
sVdczlowa
p757
I1
sVdtb391v
p758
I1
sVd9cwdf3
p759
I1
sVdadyzwh
p760
I1
sVcz7551f
p761
I1
sVdaup6bo
p762
I1
sVddlnxm4
p763
I1
sVdpxa786
p764
I1
sVd1cmg66
p765
I1
sVd7z4o49
p766
I1
sVd3r276k
p767
I1
sVdfixbwi
p768
I1
sVcz88tv4
p769
I1
sVdjrolfv
p770
I1
sVd0yuwd5
p771
I1
sVdqmuwrj
p772
I1
sVdoxbo7a
p773
I1
sVcziri8i
p774
I1
sVd59a5p2
p775
I1
sVdfwajrt
p776
I1
sVdtdl66i
p777
I1
sVd8v9kxa
p778
I1
sVd59qcfo
p779
I1
sVd1zaurw
p780
I1
sVd2a55yf
p781
I1
sVdecx5qf
p782
I1
sVdky01ci
p783
I1
sVdi4p003
p784
I1
sVd1ku690
p785
I1
sVdjgep8u
p786
I1
sVd1al7pg
p787
I1
sVdira28b
p788
I2
sVd458ux7
p789
I1
sVd81effq
p790
I1
sVczex8vd
p791
I1
sVd4mbxhv
p792
I1
sVd1dn3sd
p793
I1
sVd2cqac9
p794
I1
sVdggur84
p795
I1
sVd385chp
p796
I1
sVdbd2m5u
p797
I1
sVd0w68vq
p798
I1
sVd6xjpa2
p799
I1
sVdd578pj
p800
I1
sVczh2hvb
p801
I1
sVd0ofwul
p802
I1
sVdqm9emk
p803
I1
sVd4zi7zn
p804
I1
sVdiba4ka
p805
I1
sVdgyl7jf
p806
I2
sVdd5uym3
p807
I1
sVdionkn9
p808
I1
sVd06vqfp
p809
I1
sVda5zpog
p810
I1
sVd4ic0i6
p811
I2
sVdrmqqh1
p812
I1
sVdd9z0rk
p813
I1
sVdattuvf
p814
I1
sVdmriuc2
p815
I1
sVdnkritc
p816
I1
sVdshaprd
p817
I1
sVczbjnh1
p818
I1
sVdmgbva3
p819
I1
sVd59l8mf
p820
I1
sVd28rtl5
p821
I2
sVd7k8bgc
p822
I1
sVdkd5fay
p823
I1
sVdffrmve
p824
I1
sVd2o4b1q
p825
I1
sVczpf8up
p826
I1
sVd4af2de
p827
I1
sVd2333di
p828
I1
sVd3dfdhm
p829
I1
sVd7ijy61
p830
I1
sVdihc65q
p831
I1
sVd2aqcdn
p832
I1
sVdk145bw
p833
I1
sVd5prcu7
p834
I2
sVd0w470c
p835
I1
sVdi797lr
p836
I1
sVd8s3s0p
p837
I1
sVdksydqc
p838
I1
sVdemv9zy
p839
I1
sVdf0763u
p840
I1
sVdsw2l57
p841
I1
sVdnq55ai
p842
I1
sVd7o96u8
p843
I1
sVdhwhvsg
p844
I1
sVd0i29uo
p845
I1
sVd82ttz9
p846
I1
sVd0e333i
p847
I1
sVd94613y
p848
I1
sVdexsqa6
p849
I1
sVdsq5ckr
p850
I2
sVdt8v8tw
p851
I1
sVdta9q4v
p852
I1
sVd2r2ya8
p853
I1
sVd8rw63p
p854
I1
sVdspj9hv
p855
I1
sVd45vt65
p856
I1
sVddjaot5
p857
I1
sVdpr8zan
p858
I1
sVd3zd51c
p859
I1
sVdnr4ix6
p860
I1
sVdmztsdi
p861
I1
sVdgh21gt
p862
I1
sVd6zvekp
p863
I3
sVd0h44y6
p864
I1
sVcz0i33s
p865
I1
sVd7185p4
p866
I1
sVdg8ycl6
p867
I1
sVdihgw2h
p868
I1
sVdeey8f5
p869
I1
sVd03q43y
p870
I1
sVd54uqa9
p871
I1
sVdjz4joz
p872
I1
sVdggj6nh
p873
I1
sVddxmsd1
p874
I1
sVd0mb9d7
p875
I1
sVdf22rwk
p876
I1
sVd3u53x4
p877
I1
sVddq5ha4
p878
I1
sVdg6mxbf
p879
I1
sVdpa7ig3
p880
I1
sVd8gnird
p881
I1
sVdel1neq
p882
I1
sVdi09k93
p883
I1
sVdhdxhu3
p884
I1
sVddlky52
p885
I1
sVd7jsm06
p886
I1
sVd01t1cm
p887
I2
sVd3tc17w
p888
I1
sVdo8q7nu
p889
I1
sVddndkhf
p890
I1
sVd54ymbm
p891
I1
sVd02vfbx
p892
I1
sVcz3xv9m
p893
I1
sVd6lcogd
p894
I1
sVd52izt0
p895
I1
sVd0v09h5
p896
I1
sVd9pcqbb
p897
I1
sVczdxwbd
p898
I1
sVd0ynuy7
p899
I1
sVd0tm2pf
p900
I1
sVd2m4wie
p901
I1
sVd4ka73m
p902
I1
sVdcsnm3u
p903
I1
sVd6sxh8w
p904
I2
sVdazygxl
p905
I1
sVdrg4mhx
p906
I2
sVdkr7qku
p907
I1
sVdoxklqj
p908
I1
sVd89u5wn
p909
I2
sVds8ow1g
p910
I1
sVdktpvnk
p911
I1
sVdazpdh4
p912
I1
sVda0vhxl
p913
I1
sVd0aeq0s
p914
I1
sVd05tfew
p915
I1
sVd09w7c9
p916
I1
sVdc1baqo
p917
I1
sVddrtiia
p918
I1
sVd3czpid
p919
I1
sVczgom4k
p920
I1
sVdiexhe6
p921
I1
sVdbm0rry
p922
I1
sVdozro6d
p923
I1
sVdhg6tm2
p924
I1
sVdo6yfr5
p925
I1
sVdjqzh4s
p926
I1
sVdnu1seh
p927
I1
sVdhchyw1
p928
I1
sVd04eytk
p929
I1
sVdo0jeuc
p930
I1
sVdfq8kik
p931
I1
sVdf1zjek
p932
I1
sVdc2t69k
p933
I1
sVd8zj652
p934
I2
sVdhwy33h
p935
I1
sVdh407zl
p936
I1
sVdgymv8a
p937
I1
sVd3a0qb9
p938
I1
sVd6qj4ik
p939
I1
sVd8ao0tp
p940
I1
sVdcmr4tt
p941
I1
sVd7rfsft
p942
I1
sVdkda6c9
p943
I1
sVdb0jhd1
p944
I1
sVdpnywv5
p945
I1
sVdc2e2nr
p946
I1
sVczlgf2x
p947
I1
sVd3tqwii
p948
I1
sVd6fe2p8
p949
I1
sVdclwq74
p950
I1
sVdrhxg60
p951
I1
sVd126orx
p952
I1
sVd6k9j08
p953
I1
sVcyk9gwk
p954
I1
sVd955ya2
p955
I1
sVd7rl9yf
p956
I1
sVd1hszg4
p957
I1
sVdel9yef
p958
I1
sVd9k68j2
p959
I1
sVdesu2g1
p960
I1
sVds7jvib
p961
I1
sVdgqyfg4
p962
I1
sVd0r32uq
p963
I1
sVd3bukbs
p964
I1
sVd4twc3f
p965
I1
sVdflzrq4
p966
I1
sVdh6gdra
p967
I1
sVdmnlw10
p968
I1
sVd1vo1k4
p969
I1
sVdf62z9i
p970
I1
sVdsk3sij
p971
I1
sVdfj8fyk
p972
I1
sVde2hd97
p973
I1
sVdn9py2b
p974
I1
sVd55unzn
p975
I1
sVd0em3pd
p976
I1
sVdhzuegv
p977
I1
sVdctxr28
p978
I1
sVcz60md1
p979
I1
sVcyqqpdr
p980
I1
sVcz8ov9p
p981
I1
sVczj3gsr
p982
I1
sVdrdvcba
p983
I1
sVd3i1u17
p984
I1
sVdaub6ep
p985
I1
sVdosph5g
p986
I1
sVdpihun2
p987
I1
sVdmrmjd5
p988
I1
sVd1u3fku
p989
I1
sVd6t2xr6
p990
I1
sVcyzggiw
p991
I1
sVcz0onrt
p992
I1
sVde7yx2z
p993
I1
sVd2ccu5p
p994
I1
sVdny54j6
p995
I1
sVdpsufm2
p996
I1
sVd1d72w0
p997
I1
sVdfj3mhl
p998
I1
sVd2m7jzs
p999
I1
sVdgmuquh
p1000
I1
sVd8o00jq
p1001
I1
sVd99dpki
p1002
I1
sVdcdasae
p1003
I1
sVddl1mn6
p1004
I1
sVczw9gos
p1005
I1
sVdbeuboq
p1006
I1
sVcyi7vat
p1007
I1
sVd4kcqj5
p1008
I1
sVd29rsvz
p1009
I1
sVcz15pqk
p1010
I1
sVdrogzbj
p1011
I2
sVde893cl
p1012
I1
sVd5e76ej
p1013
I1
sVd763k06
p1014
I1
sVd2lq7jd
p1015
I1
sVda21hw0
p1016
I1
sVdoh33gh
p1017
I2
sVdfbv0cj
p1018
I1
sVdmvmzr8
p1019
I1
sVd9jwdut
p1020
I1
sVdhhxnhl
p1021
I1
sVdimoan5
p1022
I1
sVdiab4ep
p1023
I1
sVd6e356o
p1024
I1
sVd417zmx
p1025
I1
sVd97edks
p1026
I1
sVdpv6vc3
p1027
I1
sVd0f8ed5
p1028
I1
sVd96xqaw
p1029
I1
sVd0sdm3s
p1030
I1
sVdby1zm7
p1031
I1
sVd6zo5r7
p1032
I2
sVd75aoov
p1033
I1
sVd4h4uy6
p1034
I1
sVd62auve
p1035
I1
sVd2a8odq
p1036
I1
sVdcu0is5
p1037
I1
sVdfgqgxm
p1038
I1
sVd3pgp5l
p1039
I1
sVd7sem7p
p1040
I1
sVcypxu8a
p1041
I1
sVd14ghj4
p1042
I2
sVd2agcdh
p1043
I2
sVcz2dv6n
p1044
I1
sVcynp57z
p1045
I1
sVdoj02ys
p1046
I1
sVd4fid22
p1047
I1
sVd1xgeyt
p1048
I1
sVdoublpd
p1049
I1
sVd5pyvia
p1050
I1
sVdeancme
p1051
I1
sVdg4i2vb
p1052
I1
sVda3tuex
p1053
I1
sVda3soyd
p1054
I1
sVdqma9rr
p1055
I1
sVd7e5ulu
p1056
I1
sVdcqkwqh
p1057
I1
sVdirq7su
p1058
I1
sVdgzoo18
p1059
I1
sVd4k5ivn
p1060
I1
sVd0rn0p8
p1061
I1
sVczgv1nx
p1062
I2
sVdam0txl
p1063
I1
sVd6fctz0
p1064
I4
sVdila9cu
p1065
I1
sVd0gsnmh
p1066
I1
sVdazwd18
p1067
I1
sVd2g9qsj
p1068
I1
sVd9nzmv6
p1069
I1
sVdamyyhm
p1070
I1
sVdco3a9v
p1071
I1
sVd75ap9j
p1072
I1
sVdq5vb6f
p1073
I1
sVd6quc1b
p1074
I1
sVd2askln
p1075
I2
sVdog8mm9
p1076
I1
sVddyrfeg
p1077
I1
sVcysu9ns
p1078
I1
sVdbfcb3m
p1079
I1
sVd844wrz
p1080
I2
sVd4wwrk7
p1081
I1
sVd14frsr
p1082
I1
sVcyifwlq
p1083
I1
sVdcw0edo
p1084
I1
sVczjgpsf
p1085
I1
sVcyobcrx
p1086
I1
sVdkwq07u
p1087
I1
sVdcc9eld
p1088
I1
sVd84hu1p
p1089
I1
sVdgehp47
p1090
I1
sVdaw8ko2
p1091
I1
sVd8oqkfb
p1092
I1
sVdtadif7
p1093
I1
sVd4nobn5
p1094
I1
sVdfoiqxt
p1095
I2
sVdbuy1ya
p1096
I1
sVdq38cpr
p1097
I1
sVdg7pooe
p1098
I1
sVdkz9v9g
p1099
I1
sVcytpmxf
p1100
I1
sVd95m3d0
p1101
I1
sVd24a8dj
p1102
I1
sVdaiwozs
p1103
I1
sVcz4tfej
p1104
I1
sVd2vbzc0
p1105
I1
sVd1l9x2x
p1106
I1
sVd15lezl
p1107
I1
sVd0w5g02
p1108
I1
sVdeu7k3b
p1109
I1
sVczso0e1
p1110
I1
sVdad05n8
p1111
I1
sVdrml40d
p1112
I1
sVdoec5bv
p1113
I1
sVddagli7
p1114
I1
sVddd006l
p1115
I1
sVd8so9b4
p1116
I1
sVd978t5l
p1117
I1
sVd01uk4g
p1118
I1
sVd0kz71w
p1119
I1
sVcysxjhs
p1120
I1
sVdn4w34t
p1121
I1
sVdcmqgz2
p1122
I1
sVcyri8cx
p1123
I1
sVd2w91qc
p1124
I1
sVd54pm4l
p1125
I2
sVd02ydup
p1126
I1
sVd3izcbn
p1127
I1
sVddsq4gz
p1128
I1
sVd5eqgmh
p1129
I1
sVd8qa6sy
p1130
I1
sVd3ayrb5
p1131
I1
sVd9zkxxl
p1132
I1
sVdrzsbgb
p1133
I1
sVdgt726t
p1134
I1
sVddisxem
p1135
I1
sVdjwam81
p1136
I1
sVdat9xh2
p1137
I1
sVd4wzrsj
p1138
I1
sVdo9kkr0
p1139
I1
sVd8ta18a
p1140
I1
sVcyt1pqn
p1141
I1
sVdccgr4j
p1142
I1
sVdqd72tq
p1143
I1
sVczhoyfj
p1144
I1
sVdojailk
p1145
I1
sVd9nxu15
p1146
I1
sVdbfu02l
p1147
I2
sVd9yv1t3
p1148
I1
sVdct9d3v
p1149
I1
sVd7mzj1t
p1150
I1
sVdh0xwhd
p1151
I1
sVdmzt15q
p1152
I1
sVdaeftg1
p1153
I1
sVdhdvun6
p1154
I1
sVdjdmt8w
p1155
I1
sVdobd2el
p1156
I1
sVd7hfu7v
p1157
I1
sVdhfrmsl
p1158
I1
sVdcw0oh6
p1159
I1
sVdctyrn8
p1160
I1
sVd3d05i3
p1161
I1
sVdjsqd0k
p1162
I1
sVczublc3
p1163
I1
sVd674uvh
p1164
I1
sVdhp7qfa
p1165
I1
sVdojawz0
p1166
I1
sVczkvqp8
p1167
I1
sVd0qdkh2
p1168
I1
sVdsqdudd
p1169
I1
sVd20hyk1
p1170
I1
sVd0j4eh4
p1171
I1
sVdfg9o8c
p1172
I1
sVdn304rr
p1173
I1
sVdf5v1es
p1174
I1
sVdnkk7id
p1175
I2
sVdoe847m
p1176
I1
sVdcaf53j
p1177
I1
sVdci8eeu
p1178
I1
sVd3z7fo6
p1179
I2
sVd5vjd6i
p1180
I2
sVdepewas
p1181
I1
sVd0aawo9
p1182
I1
sVd100ne2
p1183
I1
sVddwhp0h
p1184
I1
sVd8v0zd2
p1185
I1
sVdckbrxv
p1186
I1
sVdkmenwn
p1187
I1
sVcz5asc7
p1188
I1
sVd0yge40
p1189
I1
sVd9d55rd
p1190
I2
sVdrzyeme
p1191
I1
sVda0vrjk
p1192
I1
sVdcbi99l
p1193
I3
sVd571msb
p1194
I1
sVd19cd2k
p1195
I1
sVd1iybnh
p1196
I1
sVdkq3jf7
p1197
I1
sVds0bmkq
p1198
I1
sVcz800zi
p1199
I1
sVcyv9sep
p1200
I1
sVdadex3a
p1201
I2
sVcz1bvzh
p1202
I2
sVddj67pd
p1203
I1
sVd88eyfm
p1204
I2
sVd5zqgj8
p1205
I1
sVda1an0m
p1206
I1
sVdk9ye13
p1207
I1
sVdcw8vi1
p1208
I1
sVczqif75
p1209
I2
sVd9myt51
p1210
I1
sVd6ybeq0
p1211
I1
sVd7hqtbu
p1212
I1
sVdrnf2jd
p1213
I1
sVdbxsemq
p1214
I1
sVdftgquw
p1215
I1
sVd4h1m4n
p1216
I3
sVda175w8
p1217
I1
sVdcpmvcn
p1218
I1
sVdswuu8f
p1219
I1
sVd3wyapr
p1220
I1
sVd3vnhj6
p1221
I1
sVd727r9r
p1222
I1
sVd4looq9
p1223
I1
sVdg2u0fp
p1224
I1
sVdiol1zs
p1225
I1
sVdiwrm12
p1226
I1
sVd79i2vg
p1227
I1
sVd3sq4i4
p1228
I1
sVcztrk7e
p1229
I1
sVd8s5h0r
p1230
I1
sVdkyb3fn
p1231
I2
sVcyir9yb
p1232
I1
sVdrvf6je
p1233
I3
sVdh46i5k
p1234
I1
sVdjmmks1
p1235
I1
sVd87qk4z
p1236
I1
sVczbyhab
p1237
I1
sVd521asa
p1238
I2
sVdi4ialc
p1239
I1
sVdnacs8e
p1240
I1
sVdidq28y
p1241
I1
sVd5axhwe
p1242
I1
sVdfstc0w
p1243
I1
sVd5ekwdb
p1244
I1
sVdbe75f0
p1245
I1
sVczzb436
p1246
I1
sVd76nmrb
p1247
I1
sVd83vf3y
p1248
I1
sVd0bm87b
p1249
I1
sVdq2v5l0
p1250
I1
sVdq3nub6
p1251
I1
sVddfssrh
p1252
I1
sVdrp522m
p1253
I1
sVdbn1l4c
p1254
I2
sVczl1543
p1255
I1
sVdbrbzv8
p1256
I3
sVd9evcjs
p1257
I2
sVd9f5zd1
p1258
I1
sVd0dfmcq
p1259
I1
sVd3197u8
p1260
I5
sVdh44ddz
p1261
I1
sVdhimico
p1262
I1
sVde3mzak
p1263
I1
sVdgpioaf
p1264
I1
sVd41okmz
p1265
I1
sVdf5c5bo
p1266
I1
sVdi8b607
p1267
I1
sVdtfghl1
p1268
I1
sVd9nbh7u
p1269
I1
sVd7hj2o6
p1270
I1
sVd9dp8yv
p1271
I1
sVd26m213
p1272
I1
sVcytaekk
p1273
I1
sVdd0onqz
p1274
I1
sVd2k0utv
p1275
I1
sVdqmco9v
p1276
I1
sVd1yvo6k
p1277
I1
sVdclpjel
p1278
I1
sVdiaghkn
p1279
I4
sVd3x3kjg
p1280
I2
sVd9a1grn
p1281
I1
sVdex6ufw
p1282
I1
sVd64tr28
p1283
I1
sVdc3twv5
p1284
I1
sVd6zkd2a
p1285
I1
sVdhgrodc
p1286
I1
sVdnrs7hm
p1287
I1
sVd94t6u6
p1288
I1
sVd2e3vle
p1289
I1
sVdo2x29a
p1290
I1
sVd9f4ywt
p1291
I1
sVdbuz4ph
p1292
I1
sVd39dq0l
p1293
I1
sVdo7v734
p1294
I1
sVdj4apqw
p1295
I1
sVd2bztbs
p1296
I1
sVdfypft3
p1297
I1
sVd4sihrm
p1298
I2
sVd6g3h6h
p1299
I1
sVd0cxc0f
p1300
I1
sVczmzqlh
p1301
I1
sVczjllnc
p1302
I1
sVdj9oqx9
p1303
I1
sVd2z1vrb
p1304
I1
sVdfdz2k2
p1305
I1
sVcyt5qb4
p1306
I1
sVdcg9hxr
p1307
I2
sVd9ep8wh
p1308
I1
sVde2ibub
p1309
I1
sVczqa3lk
p1310
I1
sVd3a51jr
p1311
I1
sVdgninl2
p1312
I1
sVd2l37lc
p1313
I1
sVd4ksa4d
p1314
I1
sVd35f1wl
p1315
I1
sVdosz0q2
p1316
I1
sVdd4xwsb
p1317
I1
sVd4f1toj
p1318
I1
sVcz8f7vr
p1319
I1
sVd4ae69a
p1320
I1
sVdimapc1
p1321
I1
sVd6br8j7
p1322
I1
sVczdo5e3
p1323
I2
sVd9kdthv
p1324
I1
sVczmylr0
p1325
I1
sVd5n8z41
p1326
I1
sVd9ume0d
p1327
I1
sVder3zok
p1328
I1
sVd1wooeq
p1329
I2
sVdoax9cc
p1330
I1
sVd1qjxk6
p1331
I1
sVd7pf91x
p1332
I1
sVdeaz61b
p1333
I1
sVdcas4va
p1334
I1
sVdiwg74f
p1335
I1
sVd79lh02
p1336
I1
sVczayc9n
p1337
I1
sVdmvrf6n
p1338
I1
sVdde9kyq
p1339
I1
sVczo6utv
p1340
I1
sVdhvgycj
p1341
I1
sVdef4jlk
p1342
I1
sVdgiaeoa
p1343
I1
sVdaubl7y
p1344
I2
sVdf9td3x
p1345
I1
sVdfr4abz
p1346
I1
sVdcckj3i
p1347
I1
sVcz6k7kp
p1348
I1
sVczat8xn
p1349
I1
sVd6nvk1g
p1350
I1
sVd15bsqc
p1351
I1
sVdclmj0v
p1352
I1
sVdcc1lg5
p1353
I1
sVddomqvd
p1354
I1
sVd4p8i7v
p1355
I1
sVd3dsytt
p1356
I1
sVdqza5tc
p1357
I1
sVde659st
p1358
I1
sVd2g38xa
p1359
I1
sVd4gq1xi
p1360
I1
sVczz8gtj
p1361
I1
sVczxvkk8
p1362
I1
sVd4dm43y
p1363
I1
sVdd6xarg
p1364
I1
sVdbef1x9
p1365
I1
sVd6b3ksk
p1366
I1
sVd2qvp66
p1367
I1
sVd3bcbal
p1368
I1
sVd0xsk7b
p1369
I1
sVdikoq5e
p1370
I1
sVddnwpzz
p1371
I1
sVcz5g6dp
p1372
I1
sVd9dlzaj
p1373
I1
sVd75aoai
p1374
I1
sVdt7e90i
p1375
I1
sVdj2s3y9
p1376
I1
sVdioh3ak
p1377
I1
sVd4bljic
p1378
I1
sVdjbk7tb
p1379
I1
sVdo2qtef
p1380
I1
sVdn69q9i
p1381
I1
sVdogjzn8
p1382
I1
sVdjc6rzb
p1383
I1
sVdgiiwfb
p1384
I2
sVdqo6dyj
p1385
I1
sVd4n9mlx
p1386
I1
sVdq3jpbg
p1387
I1
sVczx1msl
p1388
I1
sVd8dragk
p1389
I1
sVde3cmvr
p1390
I1
sVcz6mymm
p1391
I1
sVdmtwtj8
p1392
I1
sVdge2zkz
p1393
I1
sVd1p6lpd
p1394
I1
sVdcmnm9b
p1395
I1
sVdjnag47
p1396
I1
sVdn7yt7y
p1397
I1
sVdatpwx5
p1398
I1
sVd0305bj
p1399
I1
sVdfptb2c
p1400
I1
sVdbr3d2l
p1401
I1
sVden3s59
p1402
I1
sVdg4cxs0
p1403
I1
sVdcdi8hr
p1404
I2
sVd72ywbw
p1405
I2
sVdhrmpft
p1406
I1
sVdelzolv
p1407
I1
sVd086qbb
p1408
I1
sVdknb3s0
p1409
I1
sVczinfqj
p1410
I1
sVdkxzehy
p1411
I1
sVdtixopl
p1412
I1
sVd3k930m
p1413
I1
sVdj36fxj
p1414
I1
sVdcpz3ws
p1415
I1
sVdknhqnp
p1416
I1
sVd3tfrlp
p1417
I1
sVdipgfkz
p1418
I1
sVd5jn31i
p1419
I1
sVdczbhme
p1420
I1
sVd89ldjo
p1421
I1
sVcyick2v
p1422
I1
sVdct9z6r
p1423
I1
sVdcl1dhf
p1424
I1
sVdh62usi
p1425
I2
sVdk3bjws
p1426
I1
sVdaawalt
p1427
I1
sVdgfkz4y
p1428
I1
sVd2jxqo0
p1429
I1
sVdec5sst
p1430
I1
sVdbohkwu
p1431
I1
sVd4eks2t
p1432
I1
sVd4k0ioe
p1433
I1
sVdph4x3l
p1434
I1
sVd3332zk
p1435
I1
sVdmilci9
p1436
I1
sVdcehmor
p1437
I1
sVdj1xc2y
p1438
I1
sVd424f3g
p1439
I1
sVd5c217o
p1440
I1
sVczr6z3j
p1441
I1
sVd8ggxd1
p1442
I1
sVd2k43ek
p1443
I1
sVdbneixz
p1444
I1
sVd1cbzbl
p1445
I1
sVd3bkkvr
p1446
I1
sVdf55oxw
p1447
I1
sVd04ysby
p1448
I1
sVdg2bib8
p1449
I1
sVdkmqkg6
p1450
I1
sVdrncw3e
p1451
I1
sVdkjzmkh
p1452
I1
sVdiyjur5
p1453
I2
sVdi8r17z
p1454
I1
sVd0yd0rn
p1455
I1
sVd8dpcmm
p1456
I1
sVczpgnuy
p1457
I1
sVczh9aio
p1458
I1
sVd13zefh
p1459
I1
sVdf1s1x2
p1460
I1
sVdmfrnkb
p1461
I1
sVd42saud
p1462
I1
sVd6g0f8j
p1463
I1
sVdbkqm3j
p1464
I1
sVdrl2gok
p1465
I1
sVd1veiry
p1466
I1
sVdf33is9
p1467
I1
sVdeg65hi
p1468
I1
sVd3h1xiz
p1469
I1
sVdehx8lq
p1470
I1
sVd2apl7c
p1471
I1
sVdspwh70
p1472
I1
sVdgdjcw0
p1473
I1
sVdevqlzd
p1474
I1
sVd1evuja
p1475
I2
sVcyvtv5w
p1476
I1
sVd0oejxu
p1477
I1
sVd5icivk
p1478
I1
sVd9687kr
p1479
I1
sVd9ds3b8
p1480
I1
sVd3eoimg
p1481
I1
sVdmubth7
p1482
I1
sVd7atjg5
p1483
I1
sVd19102d
p1484
I1
sVd0svruy
p1485
I1
sVd99r3o3
p1486
I1
sVdjd6l34
p1487
I1
sVdc3e2n0
p1488
I1
sVcyz56bg
p1489
I1
sVd4277fq
p1490
I1
sVd0qufmy
p1491
I1
sVdhrbwc5
p1492
I1
sVds3i5k1
p1493
I1
sVd7yftu6
p1494
I1
sVd6493vv
p1495
I1
sVcyjd8l3
p1496
I1
sVdfh1mp6
p1497
I1
sVczyrwo5
p1498
I1
sVd6zp1fw
p1499
I1
sVd0tk35l
p1500
I1
sVdbfiwmt
p1501
I1
sVd2r57fm
p1502
I1
sVdgqq8if
p1503
I1
sVdhqprrx
p1504
I1
sVdhixt8m
p1505
I1
sVcz2qywo
p1506
I1
sVdmpte1s
p1507
I1
sVd1aclf5
p1508
I1
sVdjfs8rg
p1509
I1
sVd1k826a
p1510
I2
sVd4ff58y
p1511
I1
sVd4io6w9
p1512
I1
sVdftvrfp
p1513
I1
sVcyndfmh
p1514
I1
sVdj2iu2j
p1515
I2
sVd1n0lb1
p1516
I1
sVdg54h9v
p1517
I1
sVdesps9d
p1518
I1
sVdgxzahq
p1519
I1
sVczcnw8a
p1520
I1
sVd7x2tsh
p1521
I1
sVd4qjthv
p1522
I1
sVd3y4jdn
p1523
I1
sVdikjtcj
p1524
I1
sVd1l6d6w
p1525
I1
sVd496fj4
p1526
I1
sVdfcrtj2
p1527
I1
sVdnt8zep
p1528
I1
sVdgl224b
p1529
I1
sVdhopnq1
p1530
I1
sVd0pda3b
p1531
I1
sVdcf5s1c
p1532
I1
sVdrddbsd
p1533
I1
sVd8ohf6k
p1534
I1
sVdo1onc0
p1535
I1
sVdf3rirp
p1536
I1
sVd9coo2t
p1537
I1
sVd0w2qoe
p1538
I1
sVdbum9ic
p1539
I1
sVd6wha5s
p1540
I2
sVdesfurl
p1541
I1
sVdcqvdcr
p1542
I1
sVd2413bw
p1543
I1
sVdo8uq4m
p1544
I1
sVdi8r40i
p1545
I2
sVdglvq63
p1546
I1
sVdqlo63s
p1547
I1
sVd1jr9ae
p1548
I1
sVd99kd3q
p1549
I1
sVdrq6ojv
p1550
I1
sVdq5bjzq
p1551
I1
sVd3108jz
p1552
I2
sVdhi03d9
p1553
I1
sVdbzmi8w
p1554
I1
sVdih8zei
p1555
I1
sVd5xjalw
p1556
I1
sVdn9vmjx
p1557
I1
sVdnu6lna
p1558
I1
sVd2h7ere
p1559
I1
sVczrs8xu
p1560
I2
sVcz41rnx
p1561
I1
sVd0d34vb
p1562
I1
sVdg2o2vy
p1563
I1
sVdnokter
p1564
I1
sVdgzxgsb
p1565
I1
sVdfckb1m
p1566
I1
sVdq3dfd3
p1567
I1
sVcyi01xy
p1568
I1
sVdfnpuka
p1569
I2
sVdmvm61o
p1570
I1
sVd9tzdsc
p1571
I2
sVdbkk8ma
p1572
I2
sVdcecn2i
p1573
I1
sVddao3ty
p1574
I1
sVd77k5xf
p1575
I1
sVda9bmcn
p1576
I1
sVcyyecrq
p1577
I1
sVdgwz13n
p1578
I1
sVdrtljvc
p1579
I1
sVd28z7tg
p1580
I1
sVd4mrs7n
p1581
I1
sVdc044yt
p1582
I1
sVd3bsrgp
p1583
I1
sVdkoe90o
p1584
I1
sVd4jko0t
p1585
I1
sVd16zdwm
p1586
I1
sVd3wlvbf
p1587
I1
sVd2q3cvu
p1588
I1
sVd0mmbfq
p1589
I1
sVdhchedq
p1590
I1
sVd9dhalu
p1591
I1
sVdjqqa6z
p1592
I1
sVdhzn1cq
p1593
I1
sVdfwb7x2
p1594
I1
sVddf15b5
p1595
I1
sVdb9duba
p1596
I1
sVdhrja96
p1597
I1
sVddpt0k3
p1598
I2
sVdfd0a11
p1599
I1
sVd24r9e8
p1600
I1
sVcyo9a38
p1601
I1
sVd8p14rn
p1602
I1
sVdhewdw0
p1603
I1
sVdg7pa1x
p1604
I1
sVdcgrth6
p1605
I1
sVddo5imq
p1606
I1
sVczc8j0b
p1607
I1
sVdrblxoz
p1608
I1
sVdb8mvmc
p1609
I1
sVd5rn4or
p1610
I1
sVdkp9b6w
p1611
I1
sVd6ueofo
p1612
I2
sVd1aw3vx
p1613
I1
sVd0sccg2
p1614
I1
sVdj6x0tq
p1615
I2
sVdc6rt9x
p1616
I1
sVd7otukb
p1617
I1
sVd12lbzz
p1618
I1
sVdgpczk1
p1619
I1
sVdd4iyv7
p1620
I1
sVdr49w55
p1621
I1
sVd6f5aqy
p1622
I1
sVdgkw6dj
p1623
I1
sVd1xv6l6
p1624
I1
sVd3u0n3j
p1625
I1
sVd3lhb3y
p1626
I1
sVd1jt0mt
p1627
I1
sVd0cqtvo
p1628
I1
sVd4iq587
p1629
I1
sVdpv894v
p1630
I1
sVd25btqo
p1631
I1
sVdoa9v2g
p1632
I1
sVdec95f0
p1633
I1
sVdfdmlok
p1634
I1
sVd76a623
p1635
I1
sVdf6bsw4
p1636
I2
sVd15a4cq
p1637
I1
sVd0rq0bd
p1638
I1
sVd49ynh3
p1639
I1
sVd4tq99k
p1640
I2
sVdjom4nx
p1641
I1
sVd0v68d2
p1642
I1
sVd2qy31d
p1643
I1
sVcz7ck4l
p1644
I1
sVdggqt4f
p1645
I2
sVd5d5h6o
p1646
I1
sVddgj265
p1647
I1
sVdmz97kr
p1648
I1
sVdkx30q7
p1649
I1
sVd0bq36z
p1650
I2
sVd12jn3s
p1651
I1
sVd862ir4
p1652
I1
sVd0ovtit
p1653
I2
sVd5dztm3
p1654
I1
sVdjwkfdf
p1655
I1
sVd2la3sa
p1656
I1
sVd78q8xk
p1657
I1
sVd4xjfw9
p1658
I1
sVd2bqjtu
p1659
I2
sVd83yjvc
p1660
I2
sVddiaihy
p1661
I1
sVdk9ekd1
p1662
I1
sVd1eagx5
p1663
I1
sVdo7lw5u
p1664
I1
sVd5y4te5
p1665
I1
sVd13d3yc
p1666
I1
sVd84nus5
p1667
I1
sVdcxqjbp
p1668
I1
sVdalqcv7
p1669
I1
sVd8q10up
p1670
I1
sVdczjcnt
p1671
I1
sVdgr6d6c
p1672
I1
sVd9kgjlt
p1673
I2
sVd4bflqv
p1674
I1
sVd8j61sr
p1675
I1
sVd4ichos
p1676
I1
sVd1raffv
p1677
I2
sVd18mqp3
p1678
I1
sVdpzxwm6
p1679
I1
sVddmkkua
p1680
I1
sVdawizh0
p1681
I1
sVd4nco5c
p1682
I1
sVdog9ppm
p1683
I1
sVdq1z5nq
p1684
I1
sVdmjt8qg
p1685
I1
sVdd3jmlo
p1686
I1
sVdirejn1
p1687
I1
sVd2yyueb
p1688
I1
sVd6cz7a8
p1689
I1
sVd6ez1p5
p1690
I1
sVdq6rhs7
p1691
I1
sVdpcn07k
p1692
I1
sVdae2297
p1693
I1
sVdfpavel
p1694
I1
sVdk30fcc
p1695
I1
sVdk13d2c
p1696
I1
sVdhivon3
p1697
I1
sVdkg42vo
p1698
I1
sVdduxcqy
p1699
I1
sVd7omayx
p1700
I1
sVd9imrw9
p1701
I1
sVczgpd3s
p1702
I2
sVd9yu666
p1703
I1
sVdac0wc2
p1704
I1
sVdmz4nqr
p1705
I1
sVcznixd9
p1706
I1
sVd6z8kcu
p1707
I1
sVd9eanxe
p1708
I1
sVd908rz3
p1709
I2
sVdf9z6gk
p1710
I1
sVdd3kg2t
p1711
I1
sVdhwkmoq
p1712
I1
sVdr2jc07
p1713
I1
sVdmz9vcq
p1714
I1
sVdb3u1qf
p1715
I1
sVd2760qh
p1716
I1
sVdgi8h7g
p1717
I1
sVdcin14d
p1718
I1
sVczgmunl
p1719
I1
sVddwbs2k
p1720
I1
sVdfdhfwq
p1721
I2
sVcz3mfys
p1722
I1
sVdmffrgj
p1723
I1
sVddp7mnr
p1724
I1
sVd2wk6p0
p1725
I1
sVdfimwe5
p1726
I1
sVdc5mlo9
p1727
I1
sVd3mvq65
p1728
I1
sVd1o69bd
p1729
I1
sVdg91oov
p1730
I1
sVddcrder
p1731
I1
sVdk1aa2p
p1732
I1
sVd8tun4s
p1733
I1
sVd18q24n
p1734
I1
sVd9e6njs
p1735
I1
sVd42cbeg
p1736
I1
sVdg2u3ur
p1737
I1
sVdf587r5
p1738
I1
sVdbcf533
p1739
I1
sVd8alzfk
p1740
I1
sVddkvhvw
p1741
I1
sVd7552q7
p1742
I1
sVday1dbe
p1743
I1
sVd3hr6ot
p1744
I1
sVd2wn2rr
p1745
I1
sVd9iir3i
p1746
I1
sVd306ie7
p1747
I1
sVdbql22d
p1748
I1
sVd6c88yr
p1749
I2
sVd1ha3zr
p1750
I1
sVdd62sye
p1751
I1
sVdi1fd4v
p1752
I1
sVd6e4op9
p1753
I1
sVczqu19v
p1754
I1
sVdd59oz3
p1755
I3
sVdflmvdr
p1756
I1
sVdamcjdv
p1757
I1
sVd5okiks
p1758
I1
sVdhllpkn
p1759
I2
sVd6fwvbp
p1760
I1
sVddcnta9
p1761
I2
sVd2g6f0k
p1762
I1
sVdh197av
p1763
I1
sVdkyeile
p1764
I1
sVcztdkfm
p1765
I1
sVd5y5oly
p1766
I1
sVd4mm0p7
p1767
I1
sVd7jnmm8
p1768
I1
sVdafcf1e
p1769
I1
sVdelgh3b
p1770
I1
sVd319zlu
p1771
I1
sVdfjq4x3
p1772
I1
sVdfxwsdo
p1773
I1
sVdcbga23
p1774
I1
sVd5f2p1i
p1775
I1
sVd1e92nb
p1776
I1
sVd5lp8ah
p1777
I1
sVdaqiep5
p1778
I1
sVd26ahy2
p1779
I1
sVd79dvgn
p1780
I1
sVdhewjjl
p1781
I1
sVdc0lfvr
p1782
I2
sVdsof9rr
p1783
I1
sVdgg3g3g
p1784
I1
sVcz9v6gg
p1785
I1
sVdk4jr1o
p1786
I1
sVd6x4pxy
p1787
I1
sVdc9wjgo
p1788
I1
sVd79ep65
p1789
I1
sVdmypzle
p1790
I2
sVd2nfv47
p1791
I1
sVd3wqjua
p1792
I1
sVd5cmz1t
p1793
I1
sVdqglj7w
p1794
I2
sVd69axxx
p1795
I1
sVdc3ex6x
p1796
I1
sVdigazs2
p1797
I1
sVde3i81o
p1798
I1
sVdck5wnb
p1799
I1
sVdr8ar03
p1800
I1
sVd8skxy5
p1801
I1
sVdgrtwor
p1802
I1
sVd42dpxx
p1803
I1
sVcz1doaz
p1804
I1
sVdtje4ht
p1805
I1
sVdcx7vfq
p1806
I1
sVdii3f99
p1807
I1
sVdqubdhw
p1808
I1
sVdkiy3ix
p1809
I1
sVd2922y1
p1810
I1
sVd96suy1
p1811
I1
sVd1cy94o
p1812
I2
sVcz5pwqz
p1813
I1
sVd12dqev
p1814
I1
sVdgs39q1
p1815
I1
sVczgthrk
p1816
I1
sVd0dkj0u
p1817
I1
sVd1icyin
p1818
I1
sVdcbwiy5
p1819
I1
sVdhjlkw2
p1820
I1
sVd9zem7u
p1821
I1
sVd2qkb1s
p1822
I1
sVd40qzvu
p1823
I1
sVd6sfk0p
p1824
I1
sVdjbrti8
p1825
I1
sVd10g437
p1826
I1
sVdsz0k7d
p1827
I1
sVd5kydxo
p1828
I1
sVd9dg9qm
p1829
I1
sVdh5wasv
p1830
I2
sVdh7a35s
p1831
I2
sVdqt4t8r
p1832
I1
sVdcqpvfx
p1833
I1
sVdkp152r
p1834
I1
sVdkfzi5o
p1835
I1
sVcymss52
p1836
I1
sVd0iy60x
p1837
I1
sVd4hxyrp
p1838
I1
sVdqhd36d
p1839
I1
sVd7jco20
p1840
I1
sVdj3d8b5
p1841
I1
sVdbf7sae
p1842
I1
sVczjbmcb
p1843
I1
sVd60wgex
p1844
I1
sVd9ty3j4
p1845
I1
sVdelk4oq
p1846
I1
sVdj3wt5k
p1847
I1
sVd2wrd2b
p1848
I1
sVd15ious
p1849
I1
sVdhp98p7
p1850
I1
sVdp20y87
p1851
I1
sVd9z90op
p1852
I1
sVdc7zyed
p1853
I1
sVdh5rnqc
p1854
I1
sVd8xo8c3
p1855
I1
sVd5y0aic
p1856
I1
sVd4oe8zt
p1857
I1
sVdt0jx64
p1858
I2
sVdas6oum
p1859
I1
sVczy2xvw
p1860
I2
sVd4iu1do
p1861
I1
sVd8n1hhz
p1862
I3
sVd6rjpay
p1863
I2
sVdd4wmrk
p1864
I1
sVcz7580s
p1865
I1
sVdmmrr8b
p1866
I1
sVdkxpiya
p1867
I1
sVd6w6puv
p1868
I1
sVdev0os3
p1869
I1
sVdfoys11
p1870
I1
sVdjokq5p
p1871
I1
sVda5cnnk
p1872
I1
sVd87pxx2
p1873
I2
sVdj24io7
p1874
I1
sVd4sgzx5
p1875
I1
sVdqzqx3s
p1876
I1
sVd3n1gc1
p1877
I1
sVd45w02o
p1878
I1
sVdfx95se
p1879
I1
sVczgpnej
p1880
I1
sVd1ybwyo
p1881
I1
sVda0fqrq
p1882
I1
sVdgsn3v6
p1883
I1
sVddageeh
p1884
I1
sVd2xpfxe
p1885
I1
sVd33wg7v
p1886
I1
sVdbjc9mu
p1887
I1
sVde34h84
p1888
I1
sVcyr6sa2
p1889
I1
sVd8gtqv3
p1890
I2
sVddtqyb5
p1891
I1
sVdbwciko
p1892
I1
sVcytz2yk
p1893
I1
sVdsew6m8
p1894
I1
sVdbsfx4d
p1895
I1
sVcyx7uz1
p1896
I1
sVd75sd90
p1897
I1
sVd7zpq63
p1898
I1
sVdp7x42t
p1899
I1
sVd6xbu51
p1900
I1
sVdpg9f8p
p1901
I1
sVdr9xw1g
p1902
I1
sVdsxusna
p1903
I1
sVdfgfdvi
p1904
I1
sVdnjl4ne
p1905
I1
sVd7d424o
p1906
I1
sVd1hi1un
p1907
I1
sVdswvjgt
p1908
I1
sVd6txdit
p1909
I1
sVdt0bokt
p1910
I1
sVdhie2x5
p1911
I1
sVdhi89s4
p1912
I2
sVdb4vh7u
p1913
I1
sVd2jg71c
p1914
I1
sVde8lnt1
p1915
I1
sVd1hsdla
p1916
I1
sVdpwvvay
p1917
I1
sVd0xcfor
p1918
I1
sVdbk23vy
p1919
I1
sVd7iunaf
p1920
I1
sVd9w0y8v
p1921
I1
sVd3750b5
p1922
I1
sVdfqknhv
p1923
I1
sVd8o9g8h
p1924
I1
sVdee4vhy
p1925
I1
sVd9tfb4f
p1926
I1
sVdf0c8hq
p1927
I1
sVddzn7nr
p1928
I1
sVdg1tl5e
p1929
I1
sVdq33ytm
p1930
I1
sVds4yqc6
p1931
I1
sVd0f6ead
p1932
I1
sVd19530g
p1933
I2
sVdgv5uo6
p1934
I1
sVdfaq515
p1935
I1
sVcym55bc
p1936
I1
sVd62ucja
p1937
I2
sVd0rav3a
p1938
I1
sVdcj8l9g
p1939
I1
sVd6ek489
p1940
I1
sVd0kuz1o
p1941
I1
sVdo1td22
p1942
I2
sVdhbxxtf
p1943
I1
sVd3f2y54
p1944
I1
sVddp5y0c
p1945
I1
sVdq3s4s8
p1946
I1
sVd3k5bqb
p1947
I1
sVdhdv1yx
p1948
I1
sVd7wr54i
p1949
I1
sVdcg91et
p1950
I1
sVdjoplk5
p1951
I1
sVdovux71
p1952
I1
sVdf1xswf
p1953
I1
sVdfs4kce
p1954
I1
sVd6d6v0h
p1955
I1
sVde301wg
p1956
I1
sVdehu5o5
p1957
I1
sVd7l3qxm
p1958
I2
sVcz8ftuc
p1959
I1
sVd4e5akd
p1960
I1
sVd7b08c3
p1961
I1
sVd55to4x
p1962
I1
sVdbsltfz
p1963
I1
sVd6m8phw
p1964
I1
sVdeogs0r
p1965
I1
sVcztwhsj
p1966
I1
sVdfyu2sv
p1967
I1
sVd9aqf1p
p1968
I1
sVden725c
p1969
I1
sVdczjkiq
p1970
I1
sVd6x716o
p1971
I1
sVdcu0dx9
p1972
I1
sVd382vza
p1973
I1
sVdqibiu8
p1974
I1
sVd621c26
p1975
I1
sVdbhvh5d
p1976
I1
sVczqqoyp
p1977
I1
sVdo9vpth
p1978
I3
sVdmxwzrf
p1979
I1
sVczywig0
p1980
I2
sVdprnfq2
p1981
I1
sVd7o90y0
p1982
I1
sVdp2mcnm
p1983
I1
sVdrdf7ba
p1984
I1
sVdd8ctd7
p1985
I1
sVdaehwje
p1986
I1
sVczxt9jk
p1987
I1
sVdb3cgtc
p1988
I1
sVds0eprw
p1989
I1
sVdf7sclr
p1990
I1
sVdc3b057
p1991
I1
sVdb0o258
p1992
I1
sVd4lantz
p1993
I1
sVdj6njzu
p1994
I1
sVds42n14
p1995
I1
sVczgw5yq
p1996
I1
sVd7kdwgo
p1997
I1
sVd1ws7nt
p1998
I1
sVdfaiy0q
p1999
I1
sVdprl56s
p2000
I1
sVdedtg24
p2001
I1
sVddx61tl
p2002
I1
sVcytd00q
p2003
I1
sVd8gn9kj
p2004
I1
sVda48hs5
p2005
I1
sVd1euxu2
p2006
I1
sVcyn9081
p2007
I2
sVd1w01n1
p2008
I1
sVdbngj3f
p2009
I1
sVd5kesvy
p2010
I1
sVd0lq8lc
p2011
I1
sVddhfncn
p2012
I1
sVdmjaqk8
p2013
I1
sVd1v22xw
p2014
I1
sVdeua0n5
p2015
I1
sVd7ghqju
p2016
I1
sVdd4r7jq
p2017
I1
sVdrgis0t
p2018
I1
sVdoiwq8d
p2019
I1
sVd6v508q
p2020
I1
sVdfxi2ub
p2021
I1
sVd39zj6y
p2022
I1
sVdey29tc
p2023
I1
sVdcf6pzp
p2024
I1
sVd0qucbq
p2025
I3
sVdsay4ho
p2026
I1
sVdcclggr
p2027
I2
sVd8856pw
p2028
I1
sVdc33er9
p2029
I3
sVdjjdzel
p2030
I1
sVddtm6pe
p2031
I1
sVdmi2kbm
p2032
I1
sVdgqwh3e
p2033
I1
sVdmvouap
p2034
I1
sVd7itm6a
p2035
I1
sVdpmljul
p2036
I1
sVd7sppx8
p2037
I1
sVdk00ezx
p2038
I1
sVdfv3d2o
p2039
I2
sVdh9dtvf
p2040
I1
sVd77wtu4
p2041
I1
sVd9pc0xg
p2042
I1
sVd3010dr
p2043
I1
sVd5vvkh1
p2044
I1
sVdt4534c
p2045
I1
sVd84l4wf
p2046
I1
sVd8a5l6q
p2047
I1
sVd0mtwr2
p2048
I1
sVdc6ygtn
p2049
I1
sVdgdzfw7
p2050
I1
sVd9t8ii2
p2051
I1
sVdnbr53a
p2052
I1
sVdad7ypq
p2053
I1
sVd4i4eei
p2054
I1
sVdre4w4t
p2055
I1
sVdp7zv4e
p2056
I1
sVdiy0c55
p2057
I1
sVd8p2qto
p2058
I1
sVddlbl7k
p2059
I1
sVdoaslyi
p2060
I1
sVdqs3kap
p2061
I1
sVd8rwwxy
p2062
I1
sVdi4fd49
p2063
I1
sVd2zwnk9
p2064
I1
sVdr4p7ty
p2065
I1
sVcz0awhj
p2066
I1
sVddhmx26
p2067
I1
sVd4o12s1
p2068
I1
sVd0fdzet
p2069
I1
sVdh0enw0
p2070
I1
sVdqbekv4
p2071
I1
sVdnin1lr
p2072
I1
sVdqk2ekq
p2073
I1
sVdft8044
p2074
I1
sVdcl596d
p2075
I1
sVdemr7zn
p2076
I1
sVdfo685r
p2077
I1
sVdecicw0
p2078
I1
sVda47dhn
p2079
I1
sVd98emkb
p2080
I1
sVd0a0zrq
p2081
I1
sVd1o8rhq
p2082
I1
sVd2ds9ja
p2083
I1
sVdmw8ocz
p2084
I1
sVd16amfw
p2085
I1
sVdbhu4di
p2086
I1
sVd8dohsc
p2087
I1
sVd7cuv46
p2088
I1
sVd4j1360
p2089
I1
sVczm6ka1
p2090
I1
sVdajkywi
p2091
I1
sVdrkb1k0
p2092
I2
sVdoesaz7
p2093
I1
sVczy39ku
p2094
I1
sVczdqut0
p2095
I1
sVdhrtm5r
p2096
I1
sVczi01s1
p2097
I1
sVdcycv5s
p2098
I1
sVddspcs1
p2099
I1
sVdg8rwax
p2100
I1
sVd79amo1
p2101
I1
sVd1b6689
p2102
I1
sVdi2p4tf
p2103
I1
sVdink3r7
p2104
I1
sVds4bn7e
p2105
I1
sVdmuwiq2
p2106
I2
sVd7qt3hy
p2107
I1
sVdokigs2
p2108
I1
sVdqnsjg7
p2109
I1
sVd1gy9kx
p2110
I1
sVd07658y
p2111
I1
sVd547h3p
p2112
I1
sVd4pmrgr
p2113
I1
sVdskpu7j
p2114
I1
sVd936wge
p2115
I1
sVd0mougw
p2116
I2
sVdsgixj1
p2117
I1
sVdgrvq79
p2118
I1
sVd5g0l6m
p2119
I1
sVd9yaq5y
p2120
I1
sVdg0l6eq
p2121
I1
sVd21coav
p2122
I1
sVdhz2gu7
p2123
I1
sVdf5h34g
p2124
I1
sVdb3ogzg
p2125
I1
sVd69e7em
p2126
I1
sVd1apw0r
p2127
I2
sVd9so35c
p2128
I1
sVd33sekj
p2129
I1
sVdenwi6g
p2130
I1
sVdr7zl0l
p2131
I1
sVd5i2t4t
p2132
I1
sVdb69n8w
p2133
I1
sVdqdxvz4
p2134
I1
sVdf1v6pb
p2135
I1
sVd571qz2
p2136
I1
sVd9pacll
p2137
I1
sVdb2fode
p2138
I1
sVdk6046v
p2139
I1
sVdfp7vyx
p2140
I1
sVd1w0npj
p2141
I1
sVcyqcko8
p2142
I1
sVd1arkoj
p2143
I1
sVdfg62jl
p2144
I2
sVdj4dn0e
p2145
I1
sVd1os31g
p2146
I1
sVd9ak6rt
p2147
I1
sVd3sv411
p2148
I1
sVd48ls9d
p2149
I1
sVcz6dmbn
p2150
I1
sVcyls9c8
p2151
I1
sVddaw58q
p2152
I1
sVd1z7oec
p2153
I1
sVdphvbf4
p2154
I1
sVdr1ez7j
p2155
I1
sVd2qhi69
p2156
I1
sVd1enwig
p2157
I1
sVddu23xs
p2158
I1
sVds4cgob
p2159
I1
sVdbe0k9i
p2160
I1
sVddpo18z
p2161
I1
sVds4pel5
p2162
I1
sVd8mtmij
p2163
I1
sVcz78e7w
p2164
I1
sVd1sbucf
p2165
I2
sVd9139kn
p2166
I1
sVcyx2z6v
p2167
I1
sVdi8a17d
p2168
I1
sVdf884c6
p2169
I2
sVdb3nrzp
p2170
I1
sVczh449x
p2171
I1
sVdf148sk
p2172
I1
sVd5pguca
p2173
I1
sVdhoyg6k
p2174
I1
sVdd9cf1z
p2175
I1
sVd0tqau4
p2176
I1
sVde07w0j
p2177
I1
sVd2mx49t
p2178
I1
sVdh0c6ey
p2179
I1
sVd97ham2
p2180
I1
sVdksqftv
p2181
I1
sVd79eh68
p2182
I1
sVdoxlnod
p2183
I1
sVdf9undi
p2184
I1
sVdgtyv6n
p2185
I1
sVda7k7jg
p2186
I1
sVd035zt5
p2187
I1
sVda36s43
p2188
I1
sVdhrhfjy
p2189
I1
sVdiws6ig
p2190
I1
sVcyldgzm
p2191
I1
sVddl0cjc
p2192
I1
sVdmv3ra0
p2193
I1
sVd1ndiqp
p2194
I1
sVd37pr1h
p2195
I1
sVd3i9ea3
p2196
I1
sVdnel91t
p2197
I1
sVd06ed90
p2198
I1
sVd9gy6zw
p2199
I1
sVd2sd75t
p2200
I1
sVdemrx37
p2201
I1
sVd34u2l2
p2202
I1
sVd2ahog9
p2203
I1
sVddq91z8
p2204
I1
sVdi9heqv
p2205
I1
sVczlurij
p2206
I1
sVd16iutu
p2207
I1
sVd9kfgzt
p2208
I1
sVd08nb8v
p2209
I1
sVczi712f
p2210
I1
sVd7yqebp
p2211
I1
sVdkrd9x5
p2212
I1
sVd8yv7nh
p2213
I1
sVdiso09h
p2214
I1
sVcyvsxid
p2215
I1
sVdijarsy
p2216
I1
sVdbvji5u
p2217
I2
sVd5rmpi4
p2218
I1
sVdn9rxy5
p2219
I1
sVd1uw8ac
p2220
I1
sVcz3u62d
p2221
I1
sVdrhv3tq
p2222
I1
sVcyjf4mt
p2223
I1
sVcyzviyp
p2224
I1
sVdhu89fg
p2225
I1
sVd5qqps6
p2226
I1
sVdkjox7d
p2227
I1
sVd4gxyxn
p2228
I1
sVdhr3aks
p2229
I1
sVd43h4oq
p2230
I1
sVdiafupo
p2231
I2
sVczr8nxi
p2232
I1
sVd0tp0em
p2233
I1
sVd5otiq6
p2234
I1
sVd0bv3d0
p2235
I1
sVd244p6t
p2236
I1
sVd4ysb1o
p2237
I1
sVd53v7xh
p2238
I1
sVdj0k241
p2239
I1
sVde9m6ob
p2240
I1
sVdhjf91x
p2241
I1
sVddc6y4w
p2242
I1
sVd6gzdvo
p2243
I1
sVddtzjto
p2244
I1
sVdt6c3pj
p2245
I1
sVcyu0mmv
p2246
I1
sVd9nvsj3
p2247
I1
sVdilij60
p2248
I1
sVd4hw9ki
p2249
I1
sVdada7qd
p2250
I2
sVdaci6pi
p2251
I1
sVczsvsia
p2252
I1
sVd4rpodp
p2253
I1
sVd7d9quy
p2254
I1
sVdf5ut5p
p2255
I1
sVd1ooum7
p2256
I2
sVd4mdf0r
p2257
I1
sVdosh6nc
p2258
I1
sVd40ymod
p2259
I1
sVd425p54
p2260
I1
sVd18cwkg
p2261
I1
sVd95nctv
p2262
I1
sVdskr72s
p2263
I1
sVde3w090
p2264
I1
sVdauzyqt
p2265
I1
sVd5fg6jw
p2266
I2
sVd9awwqn
p2267
I1
sVdfvc8n4
p2268
I1
sVdjk5kzr
p2269
I1
sVdh3ugvw
p2270
I1
sVdbvvujl
p2271
I1
sVcynuck3
p2272
I1
sVcz8k31o
p2273
I1
sVdgt4m4r
p2274
I1
sVdq4817v
p2275
I1
sVdhupfrd
p2276
I1
sVd9hwmnk
p2277
I2
sVdeez4rd
p2278
I1
sVdg24ra6
p2279
I1
sVdffkihp
p2280
I1
sVcz0ewym
p2281
I1
sVd2evjhh
p2282
I1
sVd2dt9bc
p2283
I1
sVdeijfhb
p2284
I1
sVdfo6tjw
p2285
I1
sVdo3zpt4
p2286
I1
sVcyuee69
p2287
I1
sVdjpzcip
p2288
I1
sVczht2yl
p2289
I1
sVdiymifb
p2290
I1
sVdhgbjiw
p2291
I2
sVcyjaf3u
p2292
I1
sVdcwd6h0
p2293
I1
sVdqeyxk3
p2294
I1
sVdbyrsnh
p2295
I1
sVdadoxk2
p2296
I1
sVdoeuwuy
p2297
I1
sVdmqd893
p2298
I1
sVddp7bpy
p2299
I1
sVd6jcb1m
p2300
I2
sVd2px9xi
p2301
I1
sVdcgkqcz
p2302
I1
sVdizrnvp
p2303
I2
sVd91iszj
p2304
I1
sVd7ccszo
p2305
I1
sVd6s9itg
p2306
I1
sVd40zpxc
p2307
I1
sVd1fp5zm
p2308
I1
sVdjpwlsn
p2309
I1
sVczgywk0
p2310
I2
sVd9dt4e2
p2311
I1
sVdhqoam1
p2312
I1
sVdfsstm1
p2313
I1
sVczia45f
p2314
I1
sVd6xkenx
p2315
I1
sVdj5hjad
p2316
I1
sVd6m08ca
p2317
I1
sVdkx82ba
p2318
I1
sVd0gwaef
p2319
I1
sVdj83en2
p2320
I1
sVdg4fmyv
p2321
I1
sVdakgj9e
p2322
I1
sVdby5mtw
p2323
I1
sVczi3a5y
p2324
I1
sVdswai7g
p2325
I1
sVd06mlnx
p2326
I1
sVd9zksm1
p2327
I2
sVczqtlb9
p2328
I1
sVdj7csh3
p2329
I1
sVd90iems
p2330
I1
sVdf4xyl9
p2331
I1
sVczj5mwy
p2332
I1
sVd0e52cm
p2333
I1
sVd978co3
p2334
I1
sVd5dy7i7
p2335
I1
sVdfngdgi
p2336
I1
sVcyogi3z
p2337
I1
sVd2flb3p
p2338
I1
sVd9apvnw
p2339
I1
sVdh009cf
p2340
I2
sVd1x7dal
p2341
I1
sVcz92i07
p2342
I1
sVdclsoll
p2343
I1
sVdi85chn
p2344
I1
sVdd7jmbf
p2345
I1
sVdgng8kn
p2346
I1
sVd1nntv7
p2347
I1
sVd37b9ij
p2348
I1
sVdbnd7r7
p2349
I1
sVd0c6ksx
p2350
I1
sVdakc16x
p2351
I1
sVd902urc
p2352
I1
sVdg0s915
p2353
I1
sVdhf47lw
p2354
I1
sVdb79yb6
p2355
I1
sVd01lcpl
p2356
I1
sVdcyrf7z
p2357
I1
sVd2sb78w
p2358
I1
sVdq39dg5
p2359
I1
sVdfisc1b
p2360
I1
sVdawzsok
p2361
I1
sVdgy8wtg
p2362
I1
sVd0w7o9m
p2363
I1
sVdoe7oh4
p2364
I1
sVd80evdj
p2365
I1
sVdhu79c5
p2366
I1
sVcyldycl
p2367
I1
sVd3p79rz
p2368
I1
sVd5q7xl2
p2369
I1
sVd34kea6
p2370
I1
sVdnes41u
p2371
I1
sVdn9dl3g
p2372
I1
sVd0ta4e4
p2373
I1
sVdc1wxzd
p2374
I1
sVd7x1is8
p2375
I1
sVcz9sth5
p2376
I1
sVdt2a5qj
p2377
I1
sVdgq5em9
p2378
I1
sVdf32gdh
p2379
I1
sVdcjlvqy
p2380
I2
sVd63ydzc
p2381
I1
sVd9vuknw
p2382
I1
sVdb541kz
p2383
I1
sVdcdxxrc
p2384
I1
sVd5jletk
p2385
I1
sVczypybf
p2386
I1
sVds8k7re
p2387
I1
sVdgh10u6
p2388
I2
sVdn2vbaj
p2389
I1
sVdqxfnbd
p2390
I1
sVcyw05ct
p2391
I1
sVdfe0eyg
p2392
I1
sVdbpejvi
p2393
I1
sVd31mywx
p2394
I1
sVd6tq2ic
p2395
I3
sVcypf7ps
p2396
I1
sVd27c7fh
p2397
I1
sVd0rapay
p2398
I1
sVdambx1j
p2399
I1
sVdshf30x
p2400
I1
sVdifszug
p2401
I1
sVdquk327
p2402
I1
sVdd5ttd5
p2403
I1
sVd7zgsu9
p2404
I1
sVdokwvkv
p2405
I1
sVdrmndvc
p2406
I1
sVdb2jaux
p2407
I1
sVdfng6na
p2408
I1
sVd853kq9
p2409
I1
sVdb8f8kw
p2410
I1
sVd5az5qn
p2411
I3
sVd4qbmxg
p2412
I1
sVd2bqqta
p2413
I1
sVdsggnpy
p2414
I1
sVd95wo9s
p2415
I1
sVcztie0l
p2416
I1
sVdi6r5br
p2417
I1
sVdjast4l
p2418
I1
sVd0rueg3
p2419
I1
sVcykjmkc
p2420
I1
sVdimew4s
p2421
I1
sVdmik5od
p2422
I1
sVd2b1g0y
p2423
I1
sVd6plxjz
p2424
I1
sVdorox9h
p2425
I1
sVdbtpdeh
p2426
I1
sVdfcaysu
p2427
I1
sVcytdnn8
p2428
I3
sVditqwib
p2429
I1
sVd3h808f
p2430
I1
sVd59xdse
p2431
I1
sVd21iryx
p2432
I1
sVd1jugm8
p2433
I1
sVdnn1o6a
p2434
I1
sVcz33x3v
p2435
I1
sVczh50ub
p2436
I2
sVds0lt0o
p2437
I1
sVdbziazj
p2438
I1
sVdfniy1p
p2439
I1
sVd9hqv7x
p2440
I1
sVd40jwbd
p2441
I1
sVde1aei0
p2442
I1
sVd708g57
p2443
I1
sVddzngl6
p2444
I1
sVd1aza4i
p2445
I1
sVd2kwnav
p2446
I1
sVd4aej84
p2447
I2
sVcyz66ze
p2448
I1
sVdhob51f
p2449
I1
sVd8gf5ee
p2450
I2
sVdatw7bx
p2451
I1
sVdeqw8n0
p2452
I1
sVd98uuha
p2453
I1
sVdhncydq
p2454
I1
sVd5c7je0
p2455
I1
sVdf9t97d
p2456
I1
sVdf7t9da
p2457
I1
sVd6j97en
p2458
I1
sVd9vhdpd
p2459
I1
sVdbvf0lg
p2460
I1
sVd8b7a6p
p2461
I1
sVczgfbm6
p2462
I1
sVdnlyr4y
p2463
I1
sVd9rmw4h
p2464
I1
sVdh5d2wz
p2465
I1
sVdjou4j4
p2466
I1
sVd0cu0ho
p2467
I1
sVdppd6tk
p2468
I1
sVd6sbyq7
p2469
I2
sVd9yrtl8
p2470
I1
sVcyqva43
p2471
I1
sVdqqntyi
p2472
I1
sVd5w84rf
p2473
I1
sVd5ftekr
p2474
I1
sVdclfdeg
p2475
I1
sVd5ad5ha
p2476
I1
sVddvecy0
p2477
I1
sVdfkaosp
p2478
I1
sVdq3h7gq
p2479
I1
sVdjlvuyo
p2480
I1
sVdhe7h4l
p2481
I1
sVdifd4ar
p2482
I1
sVdg7c16x
p2483
I1
sVcz1jkeu
p2484
I1
sVd06e8sl
p2485
I1
sVd1s73mh
p2486
I1
sVd6thehv
p2487
I1
sVdc28ukq
p2488
I1
sVddwmyln
p2489
I1
sVdcwrddf
p2490
I1
sVdgm8n20
p2491
I1
sVdsd2prk
p2492
I1
sVd87f9g2
p2493
I1
sVd7va1nw
p2494
I1
sVd20i2l0
p2495
I1
sVdbwozxs
p2496
I1
sVdgs1km5
p2497
I1
sVcz6iqpj
p2498
I1
sVd36l4ux
p2499
I1
sVd0847q6
p2500
I1
sVcysrw2f
p2501
I1
sVdej4j7z
p2502
I1
sVdam0vd3
p2503
I1
sVd6xr7i6
p2504
I1
sVd0bbnja
p2505
I1
sVdepkio1
p2506
I1
sVdp8ck36
p2507
I1
sVd56i8d6
p2508
I1
sVczkyh49
p2509
I1
sVd4ippfg
p2510
I1
sVd9p67eg
p2511
I1
sVde2na51
p2512
I1
sVd83wwpy
p2513
I1
sVd9r02g1
p2514
I1
sVd36s1u6
p2515
I1
sVda600mf
p2516
I1
sVdjl9jp7
p2517
I1
sVd967979
p2518
I1
sVd0pgcll
p2519
I1
sVd8eqhmz
p2520
I1
sVdo5nbbw
p2521
I1
sVd5ev59o
p2522
I1
sVd09xfjd
p2523
I1
sVdo94f8f
p2524
I1
sVd7hncbl
p2525
I1
sVd1v002f
p2526
I1
sVcykmlpq
p2527
I1
sVdbon37r
p2528
I1
sVde6tyco
p2529
I1
sVd7so2qz
p2530
I1
sVdk9blve
p2531
I2
sVdogix2c
p2532
I1
sVd0hip2z
p2533
I1
sVd0brgaw
p2534
I1
sVdi4z1he
p2535
I4
sVd6tywe5
p2536
I1
sVczeg3tu
p2537
I1
sVdiecnd7
p2538
I2
sVd3t6h48
p2539
I1
sVd8oi0mw
p2540
I1
sVczgv7hl
p2541
I1
sVd5z2wx2
p2542
I1
sVd7s3m25
p2543
I1
sVdhzox9i
p2544
I1
sVdeyq6p9
p2545
I1
sVdbdbuz6
p2546
I1
sVdekshru
p2547
I1
sVdms4fhn
p2548
I1
sVd9svnob
p2549
I1
sVdnkz4kp
p2550
I1
sVdehkz2p
p2551
I1
sVd71jnr9
p2552
I1
sVdqblfi4
p2553
I1
sVczehuf5
p2554
I1
sVdk75xvy
p2555
I1
sVd13kq0t
p2556
I1
sVdq05de5
p2557
I1
sVdeqx2vo
p2558
I1
sVd6isxb8
p2559
I1
sVdnwb7j9
p2560
I1
sVd3by1vi
p2561
I1
sVd2rboyf
p2562
I1
sVdbqauqm
p2563
I1
sVdj1grcw
p2564
I1
sVd15k0qo
p2565
I1
sVdixee3m
p2566
I2
sVd81k5r2
p2567
I1
sVdnkkord
p2568
I1
sVd4c34cs
p2569
I1
sVdc849je
p2570
I1
sVd3kxo30
p2571
I1
sVd3zcl86
p2572
I1
sVdh3cmqq
p2573
I1
sVczwcj3h
p2574
I1
sVdf7sypk
p2575
I2
sVdbebnah
p2576
I1
sVcztaoz9
p2577
I1
sVd6ndjbj
p2578
I1
sVdmpn67s
p2579
I1
sVd4yusrr
p2580
I1
sVdah23y4
p2581
I1
sVd5c9r7l
p2582
I1
sVd2xcu4y
p2583
I1
sVdaqfe0w
p2584
I1
sVdsr1kma
p2585
I1
sVd1o1hcb
p2586
I1
sVdhyhj52
p2587
I1
sVdkb1u53
p2588
I1
sVd646r79
p2589
I1
sVd5r4hwy
p2590
I1
sVdbt8c3t
p2591
I1
sVdbepf0b
p2592
I1
sVdsfnghm
p2593
I1
sVdmindxh
p2594
I1
sVd2glx77
p2595
I1
sVczrc47j
p2596
I1
sVdqr7yc2
p2597
I1
sVdgtn12x
p2598
I1
sVd571ofr
p2599
I1
sVdcl3dhs
p2600
I1
sVdifvwxx
p2601
I1
sVdjudjgm
p2602
I1
sVd4soheq
p2603
I1
sVde66kub
p2604
I1
sVd7blzn7
p2605
I1
sVd78stwk
p2606
I1
sVdjpux2b
p2607
I1
sVdiyfjqu
p2608
I1
s.