(dp0
Vcykulb3
p1
I1
s.(dp0
Vczgl63z
p1
I1
sVcykulb3
p2
I1
s.(dp0
Vcykulb3
p1
I1
sVd1vzs80
p2
I1
s.(dp0
Vcykulb3
p1
I1
sVd30t5wl
p2
I1
s.(dp0
Vd3i4l7w
p1
I1
sVcykulb3
p2
I1
s.(dp0
Vcykulb3
p1
I1
sVd4yoe8r
p2
I1
s.(dp0
Vd54dwxz
p1
I1
sVcykulb3
p2
I1
s.(dp0
Vd59hq5r
p1
I1
sVcykulb3
p2
I1
s.(dp0
Vcykulb3
p1
I1
sVd5ihbt7
p2
I1
s.(dp0
Vcykulb3
p1
I1
sVd80pqtj
p2
I1
s.(dp0
Vd88jo2p
p1
I1
sVcykulb3
p2
I1
s.(dp0
Vcykulb3
p1
I1
sVd9zb42s
p2
I1
s.(dp0
Vdc1xv6n
p1
I1
sVcykulb3
p2
I1
s.(dp0
Vdc4cmmh
p1
I1
sVcykulb3
p2
I1
s.(dp0
Vcykulb3
p1
I1
sVdcilm3g
p2
I1
s.(dp0
Vddhqvk2
p1
I1
sVcykulb3
p2
I1
s.(dp0
Vcykulb3
p1
I1
sVddut6rf
p2
I1
s.(dp0
Vdemok3r
p1
I1
sVcykulb3
p2
I1
s.(dp0
Vcykulb3
p1
I1
sVdep5m5a
p2
I1
s.(dp0
Vdeqfs8e
p1
I1
sVcykulb3
p2
I1
s.(dp0
Vdeqfs8e
p1
I1
sVcykulb3
p2
I1
s.(dp0
Vcykulb3
p1
I1
sVdfoadmx
p2
I1
s.(dp0
Vcykulb3
p1
I1
sVdgdpuou
p2
I1
s.(dp0
Vdk7pfdg
p1
I1
sVcykulb3
p2
I1
s.(dp0
Vcykulb3
p1
I1
sVdkd0ae6
p2
I1
s.(dp0
Vcykulb3
p1
I1
sVdkppevp
p2
I1
s.(dp0
Vdmnhvxt
p1
I1
sVcykulb3
p2
I1
s.(dp0
Vcykulb3
p1
I1
sVdnlhlen
p2
I1
s.(dp0
Vdp3s8ew
p1
I1
sVcykulb3
p2
I1
s.(dp0
Vcykulb3
p1
I1
sVdr1l4p0
p2
I1
s.(dp0
Vdsl4e42
p1
I1
sVcykulb3
p2
I1
s.(dp0
Vcykulb3
p1
I1
sVdsxpbl7
p2
I1
s.