(dp0
Vd3v62oy
p1
I5
sVdbeizwy
p2
I1
sVczdl9c4
p3
I1
sVd15js3a
p4
I1
sVdbbwqye
p5
I1
sVd20i7rm
p6
I1
sVdjcsyje
p7
I1
sVdo432op
p8
I1
sVdb44x3c
p9
I1
sVd6zjgbm
p10
I2
sVd1zf4oo
p11
I1
sVdfc0dq6
p12
I2
sVdoi0zgu
p13
I1
sVczanjr5
p14
I1
sVdeq1i3g
p15
I1
sVd00v4nf
p16
I1
sVdfn26m2
p17
I3
sVczeklmy
p18
I1
sVd3wbhbc
p19
I1
sVd69coil
p20
I1
sVdaqgzil
p21
I1
sVd84nm0z
p22
I1
sVd0ellmp
p23
I1
sVdposysu
p24
I1
sVczavyer
p25
I1
sVd7ap0r2
p26
I1
sVdaq3qev
p27
I1
sVde1bv3g
p28
I2
sVdhjc9ma
p29
I1
sVdgqxpua
p30
I1
sVd7sx4v1
p31
I1
sVdiyp4a1
p32
I1
sVdcb8cba
p33
I1
sVddf6i49
p34
I1
sVdatlwfu
p35
I1
sVd2xt68d
p36
I1
sVdbb8zgp
p37
I2
sVd34o9oj
p38
I1
sVd3w79gg
p39
I1
sVd5p0fop
p40
I1
sVdf686q0
p41
I1
sVd48nowf
p42
I1
sVdnihwnx
p43
I1
sVdpctarj
p44
I1
sVd4rqxi6
p45
I3
sVdbpcbqw
p46
I1
sVcytxda7
p47
I1
sVd4zj4lo
p48
I1
sVd62bq6d
p49
I1
sVdef4me3
p50
I1
sVd8rrldo
p51
I1
sVdfdwwun
p52
I1
sVdr0e99v
p53
I2
sVdc0rfp5
p54
I1
sVdosgcbg
p55
I1
sVd9u0a5l
p56
I1
sVdfc0ntq
p57
I1
sVczvqjc6
p58
I1
sVde1a64c
p59
I1
sVcz4ccco
p60
I1
sVd03yrxi
p61
I1
sVd1anxi1
p62
I1
sVdjnm8f9
p63
I1
sVdcvu6u2
p64
I1
sVdc4u3st
p65
I1
sVd7trgtl
p66
I1
sVd64x8jg
p67
I1
sVd9uk07e
p68
I1
sVdofwetu
p69
I2
sVdfvfskg
p70
I1
sVdb8acpx
p71
I2
sVd9rc48t
p72
I4
sVdfh6pou
p73
I1
sVd2lbol2
p74
I1
sVd92rvft
p75
I2
sVdt4y5cd
p76
I2
sVd1ybgd7
p77
I1
sVdgzl254
p78
I1
sVdepoyus
p79
I2
sVdd4xseu
p80
I1
sVczvqkzq
p81
I1
sVcynwaot
p82
I1
sVdrbb8sa
p83
I1
sVd99iiwf
p84
I1
sVdr0afql
p85
I1
sVdcw1whx
p86
I1
sVd1dc3zq
p87
I1
sVdcw7j3e
p88
I1
sVd0cu1vl
p89
I1
sVd1qqdj5
p90
I1
sVdih9311
p91
I1
sVd2lyyff
p92
I1
sVd74rebf
p93
I2
sVdkevzjo
p94
I1
sVd9o8tjx
p95
I1
sVda49fbu
p96
I1
sVd7mic8h
p97
I1
sVd03crgf
p98
I1
sVd7yg9ae
p99
I2
sVdhi97fj
p100
I1
sVd0v7yyu
p101
I3
sVczakvw5
p102
I1
sVd8k4ahw
p103
I1
sVd8umfll
p104
I1
sVd0tm2pf
p105
I1
sVdibnvr6
p106
I3
sVdthbgvw
p107
I3
sVdatlye2
p108
I1
sVd2smb0e
p109
I1
sVd2i3d8v
p110
I1
sVdn98asx
p111
I2
sVdhoiw59
p112
I1
sVd7rc1uw
p113
I1
sVd5hvm6l
p114
I1
sVdhi68cr
p115
I2
sVdcjd79d
p116
I1
sVddu3oxy
p117
I1
sVdhkl39j
p118
I1
sVd7hyxin
p119
I1
sVdhjfrqm
p120
I1
sVd7vz8bv
p121
I1
sVd05mm9e
p122
I1
sVczfs2uw
p123
I2
sVd0evz5p
p124
I1
sVczvy44i
p125
I1
sVdrk5rt0
p126
I1
sVd09m4qf
p127
I1
sVd05fc73
p128
I3
sVd6co03h
p129
I2
sVd09b8kp
p130
I1
sVd4zn4ak
p131
I2
sVdj6hkl9
p132
I1
sVdhcxkrd
p133
I1
sVdjo2vbp
p134
I1
sVda40zgr
p135
I1
sVdc9w1ij
p136
I1
sVd8n3hp6
p137
I1
sVd00h6so
p138
I2
sVd0ejefc
p139
I1
sVddiqa0j
p140
I2
sVczfptal
p141
I1
sVd4zn5ls
p142
I2
sVdfxigx7
p143
I1
sVdhlwaxq
p144
I1
sVdizvygh
p145
I2
sVczx84zu
p146
I1
sVd3hvdkt
p147
I1
sVdf8e993
p148
I2
sVd4jvtee
p149
I2
sVddthg7j
p150
I1
sVd75l2hy
p151
I1
sVdjib9wy
p152
I1
sVdbkux7q
p153
I1
sVdepr2jc
p154
I1
sVdeng06d
p155
I1
sVcz8nau8
p156
I1
sVd9pbdg4
p157
I1
sVd4tdbao
p158
I1
sVdtj685u
p159
I1
sVdbnjxb3
p160
I1
sVdic838w
p161
I1
sVdhtm90n
p162
I1
sVdas2w92
p163
I1
sVdsi9thg
p164
I1
sVdh1jza1
p165
I2
sVdc6q4wc
p166
I1
sVdf40i5u
p167
I1
sVdshk0x4
p168
I2
sVdpok5nd
p169
I2
sVd094vqz
p170
I2
sVdgls000
p171
I1
sVcyxwyxg
p172
I1
sVdnd9bmf
p173
I1
sVd70aovr
p174
I3
sVdqdog9q
p175
I1
sVdd35kuy
p176
I1
sVd5hvo58
p177
I3
sVd8ez6d1
p178
I3
sVdptz6yo
p179
I1
sVd4d089d
p180
I2
sVda1k1cm
p181
I2
sVdcd6x33
p182
I1
sVdd5avkm
p183
I1
sVdqmw38g
p184
I1
sVd5hw2c4
p185
I3
sVdd9d861
p186
I3
sVdg48rlk
p187
I1
sVd9e362s
p188
I1
sVdptljoe
p189
I2
sVd9j37s6
p190
I1
sVd7hrq85
p191
I1
sVd8g3hjv
p192
I1
sVd7witx0
p193
I1
sVd84uxj7
p194
I1
sVdo56bkh
p195
I1
sVdbvhfqm
p196
I1
sVdbkcphs
p197
I1
sVczb51cf
p198
I1
sVdjedm7r
p199
I1
sVd2qgvry
p200
I1
sVddp6oq5
p201
I1
sVd88o1w3
p202
I1
sVdkw2i87
p203
I1
sVdj56bwi
p204
I1
sVd3ltgg9
p205
I2
sVcytrp61
p206
I1
sVd0yxfxl
p207
I1
sVdfdqeit
p208
I1
sVd5q5mde
p209
I1
sVd64kdyo
p210
I1
sVd16yryv
p211
I1
sVda1cnwn
p212
I1
sVd08p6p4
p213
I1
sVd16xhdq
p214
I1
sVd1mcjhw
p215
I1
sVczw22kk
p216
I1
sVdidvj6g
p217
I1
sVdkvms73
p218
I1
sVdc8utw1
p219
I1
sVdjen3wj
p220
I1
sVdaykdqf
p221
I2
sVczlyttd
p222
I1
sVdasagaf
p223
I1
sVdhm8k7z
p224
I1
sVd2lxudq
p225
I1
sVd1lu5n0
p226
I1
sVd30tp8w
p227
I1
sVd7hrjy2
p228
I1
sVdesa4fj
p229
I1
sVd18s9hd
p230
I1
sVdgpsqpm
p231
I1
sVda8oaus
p232
I1
sVczoncf6
p233
I1
sVd622spw
p234
I1
sVczq4lsk
p235
I1
sVd9zp1q6
p236
I2
sVd5z5kin
p237
I1
sVde7m01h
p238
I1
sVdp4uvvc
p239
I1
sVd95tgit
p240
I1
sVdaf91dt
p241
I1
sVd69ccq8
p242
I2
sVdhluwox
p243
I1
sVdqp37c8
p244
I1
sVd313bl0
p245
I1
sVd3bhha5
p246
I1
sVdb5eo2m
p247
I2
sVd083tee
p248
I1
sVdil2w88
p249
I1
sVd03ewg4
p250
I1
sVd8vtja6
p251
I1
sVddlsxk1
p252
I3
sVdj2awqg
p253
I1
sVd5whgj3
p254
I1
sVdn7dk82
p255
I1
sVd57l249
p256
I1
sVdd1yauv
p257
I3
sVd4m5gy2
p258
I1
sVd95s6ff
p259
I1
sVdjezx0s
p260
I1
sVd59a70m
p261
I1
sVd5hlrr2
p262
I1
sVdhrnm0q
p263
I1
sVdebms3e
p264
I1
sVd30sxos
p265
I1
s.