(dp0
Vd93zjji
p1
I1
sVdhlr6cn
p2
I1
sVd5vz6xd
p3
I1
sVddpfvrf
p4
I1
sVdcyaap5
p5
I1
sVdegsobf
p6
I1
sVdg6szsp
p7
I1
sVd4o7ud7
p8
I1
sVd8cf77a
p9
I1
sVdahbox7
p10
I1
sVdbgnm7z
p11
I1
sVczp3m0e
p12
I1
sVd2p1zxc
p13
I1
sVdg4baqk
p14
I1
sVdgo7eny
p15
I1
sVdbczl9b
p16
I1
sVd1v9r8z
p17
I1
sVd7k16ji
p18
I1
sVdi0cke9
p19
I1
sVdkdivoi
p20
I1
sVdgpqyrl
p21
I1
sVdhm8yxv
p22
I1
sVd3rz8cs
p23
I1
sVd3ah9v8
p24
I1
sVd6c05ot
p25
I1
sVd8ybbhc
p26
I1
sVd865kwh
p27
I1
sVdhlyy7m
p28
I2
sVd16u1w1
p29
I1
sVdfqzrga
p30
I1
sVd40ufdc
p31
I1
sVdiogd6m
p32
I1
sVd6i6jfb
p33
I1
sVdknkczy
p34
I1
sVdbgnsk2
p35
I1
sVdrtww2s
p36
I1
sVcyuezd1
p37
I1
sVczqx723
p38
I1
sVdhdgukl
p39
I1
sVd86lj2v
p40
I2
sVdauivtx
p41
I2
sVdfltnf9
p42
I1
sVd4xfe01
p43
I1
sVcz4554k
p44
I1
sVdp946ly
p45
I1
sVd7a4yb0
p46
I1
sVdbgbax3
p47
I1
sVcyja2by
p48
I1
sVdp7akj9
p49
I1
sVdswvrt1
p50
I1
sVdb9h6a1
p51
I1
sVdkjpq72
p52
I1
sVdmfoqyk
p53
I1
sVd27bbel
p54
I1
sVd6ma116
p55
I1
sVczo9o17
p56
I1
sVd60lecr
p57
I1
s.