(dp0
Vd3amrfc
p1
I1
sVdoe1stc
p2
I1
sVdijql88
p3
I1
sVdamcjdv
p4
I1
sVdepizca
p5
I1
sVczbq05e
p6
I1
sVdhhxmbz
p7
I1
sVd6jmj6o
p8
I1
sVd6joqi4
p9
I1
sVd7pbfj0
p10
I1
sVd3ugats
p11
I1
sVdcdvy52
p12
I1
sVd2tnubd
p13
I1
sVd9fetbw
p14
I2
sVdtfwys6
p15
I1
sVdncru97
p16
I1
sVdbvntmc
p17
I1
s.