(dp0
Vdbb81fn
p1
I1
sVdgr3pja
p2
I1
sVd91s90r
p3
I1
sVd096tgy
p4
I1
sVcysekte
p5
I1
sVd3dh9fj
p6
I1
sVd9dez97
p7
I1
sVdtafdcj
p8
I1
sVdewzmca
p9
I1
sVd6u6kif
p10
I1
sVczshlds
p11
I2
sVd621gf9
p12
I1
sVdo9oiz3
p13
I1
sVdkjpivb
p14
I1
sVdo795lg
p15
I1
sVdd2o4a1
p16
I1
sVdc92evy
p17
I2
sVdfh3fh2
p18
I1
sVdb9hoi8
p19
I1
sVd40zzmh
p20
I1
sVdev7oh1
p21
I1
sVd16zbdb
p22
I1
sVdim58wb
p23
I1
sVcyovsdm
p24
I1
sVd9u12k8
p25
I3
sVd5kcntq
p26
I1
sVdche47x
p27
I1
sVd38armc
p28
I1
sVd0yrvpj
p29
I1
sVd3q5tyq
p30
I1
sVd3orzu1
p31
I1
sVdnlpaj7
p32
I1
sVdpc6159
p33
I1
sVdd45wj5
p34
I1
sVd0dlenw
p35
I2
sVdi41wgs
p36
I1
sVd1676q4
p37
I1
sVdcyaimy
p38
I1
sVd3qk61z
p39
I1
sVdq3h3w2
p40
I3
sVd90c4dy
p41
I1
sVddx95ul
p42
I3
sVdidm6m4
p43
I1
sVdmur17d
p44
I1
sVdg3yk26
p45
I1
sVczbnauv
p46
I2
sVdmle35j
p47
I1
sVd1lkc0y
p48
I4
sVczdgee4
p49
I1
sVdbvyn15
p50
I1
sVdd1wl51
p51
I1
sVd1ivs5e
p52
I1
sVdmirgg9
p53
I1
sVczbpqmc
p54
I1
sVdmp3kvd
p55
I1
sVd90n41o
p56
I1
sVcylit8j
p57
I1
sVd9vtath
p58
I2
sVdratrxj
p59
I1
sVdkijen3
p60
I1
sVd7zezfx
p61
I2
sVdbwns4d
p62
I1
sVd63tzfg
p63
I1
sVd4k0969
p64
I1
sVd1zgjk8
p65
I1
sVdgvugyq
p66
I1
sVd9xurum
p67
I1
sVd0y4aww
p68
I1
sVcziuz3s
p69
I1
sVd6b63jy
p70
I1
sVd0run14
p71
I1
sVcztivyt
p72
I1
sVd1965n8
p73
I1
sVcynneh7
p74
I1
sVd8v7ha2
p75
I1
sVd6qvy9j
p76
I1
sVd4l5u91
p77
I1
sVd20ckdw
p78
I1
sVd08wquc
p79
I1
sVdoja5mw
p80
I1
sVd59l7ox
p81
I1
sVd3u4rav
p82
I1
sVd0lzqv1
p83
I1
sVd0u88g2
p84
I1
sVdj8e8cl
p85
I1
sVdaxob2e
p86
I1
sVd1rqm99
p87
I1
sVdnkqltl
p88
I1
sVdmlnxmi
p89
I1
sVdmznln9
p90
I3
sVdaepsa1
p91
I1
sVd4sbnox
p92
I1
sVdh7vpca
p93
I1
sVd01p5i2
p94
I1
sVdfjqlix
p95
I1
sVdqswao3
p96
I1
sVdcxglx6
p97
I1
sVddr66q8
p98
I1
sVdq81elb
p99
I1
sVdcc6jno
p100
I1
sVdmjqsgr
p101
I1
sVdayssef
p102
I1
sVds8xqia
p103
I1
sVd3uypnx
p104
I1
sVd8cvqtt
p105
I1
sVdjns4ue
p106
I1
sVd3gemmz
p107
I1
sVd2irbmw
p108
I1
sVd9lnakx
p109
I1
sVd9k93kv
p110
I1
sVd1ztkzr
p111
I1
sVcyqfama
p112
I1
sVdbvxplc
p113
I1
sVd0ruf6s
p114
I1
sVd5s1roq
p115
I1
sVde4qcih
p116
I1
sVddhhkqn
p117
I1
sVczm3ozx
p118
I1
sVd41m685
p119
I1
sVdayrxpz
p120
I1
sVdcnrvb6
p121
I2
sVcykeqp4
p122
I1
sVdc6clbt
p123
I1
sVd56qocc
p124
I1
sVd1ybku8
p125
I1
sVcztiykl
p126
I1
sVdiczrwn
p127
I1
sVd6rw2xz
p128
I1
sVd2phyn6
p129
I2
sVd1uf9tw
p130
I1
sVd93yz4p
p131
I2
sVd0ru2ic
p132
I1
sVd9lkyou
p133
I1
sVd8zsgyn
p134
I1
sVd4pqr0o
p135
I1
sVdkv7flq
p136
I1
sVdgzknzk
p137
I1
sVdeahm3i
p138
I1
sVd4j4vhw
p139
I1
sVd8scsat
p140
I2
sVdgm3ewz
p141
I3
sVdbxnty4
p142
I1
sVdj81hv9
p143
I1
sVdgyn0fq
p144
I1
sVd64bg3p
p145
I1
sVczuy38e
p146
I1
sVdo4uhfc
p147
I1
sVd0kkt9w
p148
I1
sVd0i21fx
p149
I2
sVda0yl9z
p150
I1
sVdjyijjn
p151
I1
sVdberu8w
p152
I1
sVdek7zw6
p153
I1
s.