(dp0
Vdfz37ls
p1
I1
sVdf26t86
p2
I1
sVd9fgoxi
p3
I1
sVczpc031
p4
I1
sVdh4btwp
p5
I1
sVd16q1kt
p6
I3
sVd3gkbpi
p7
I1
sVds253ti
p8
I2
sVd1bw24i
p9
I1
sVdmq93q7
p10
I1
sVd2jwapp
p11
I1
sVda6vxhy
p12
I4
sVdo8dke1
p13
I1
sVdprro1n
p14
I1
sVdbnncut
p15
I1
sVd2bfp72
p16
I1
sVdrd9hlo
p17
I1
sVdefhb7y
p18
I1
sVdkjhyb6
p19
I1
sVdab0hcw
p20
I1
sVd815zbr
p21
I1
sVdi5chib
p22
I1
sVd2g2hob
p23
I1
sVczcs827
p24
I2
sVdjlxphw
p25
I4
sVd9ume0d
p26
I1
sVdhq0uhn
p27
I1
sVd7gcev9
p28
I2
sVdb1wluy
p29
I1
sVdn3xp0l
p30
I1
sVd5jyron
p31
I3
sVd2irbmw
p32
I1
sVd94tk97
p33
I2
sVdcveku7
p34
I1
sVdh0xb0e
p35
I2
sVd2tm3dc
p36
I1
sVdizs4lt
p37
I1
sVd6tsy2f
p38
I1
sVd8zyi5k
p39
I1
sVddqs4b9
p40
I3
sVdg5my5n
p41
I2
sVd9a1kso
p42
I1
sVd473fhs
p43
I1
sVdbyw661
p44
I1
sVd9k54mq
p45
I2
sVddcx1wx
p46
I1
sVd05yl3e
p47
I3
sVczcvh81
p48
I1
sVda7vbvj
p49
I1
sVd3rejj3
p50
I1
sVdaynrgb
p51
I1
sVdhmj3q9
p52
I1
sVdjecn3t
p53
I1
sVczm53nm
p54
I1
sVczg6di5
p55
I1
sVcz5swc3
p56
I1
sVdfa0k02
p57
I1
sVddoiu9q
p58
I2
sVd06gqdc
p59
I1
sVczgnduc
p60
I1
sVdbm90pv
p61
I1
sVdahkfp5
p62
I2
sVdexwmar
p63
I1
sVdfv1m4z
p64
I1
sVd5es539
p65
I1
sVdmwxypl
p66
I3
sVdhlwr45
p67
I3
sVd6krx7a
p68
I1
sVd8zhndb
p69
I1
sVdeevux1
p70
I8
sVd0m9u3e
p71
I1
sVd0eniew
p72
I1
sVdrmkqbi
p73
I1
sVd9dl9a6
p74
I1
sVcykxa1k
p75
I1
sVdmtcm28
p76
I1
sVde74f0b
p77
I1
sVd192fqx
p78
I1
sVcyoehhi
p79
I1
sVd4ba3j0
p80
I1
sVd3n3xqv
p81
I1
sVczl2xdv
p82
I1
sVd1hc709
p83
I1
sVde88uqt
p84
I1
sVdficdix
p85
I2
sVd0wphf5
p86
I1
sVd3lvu3n
p87
I1
sVd049b1z
p88
I1
sVde0u4c2
p89
I1
sVda6zc33
p90
I3
sVd02gi3r
p91
I1
sVdb4xgft
p92
I4
sVdpnkihc
p93
I1
sVd9ael9u
p94
I2
sVd9ulnjl
p95
I1
sVd8ksw6r
p96
I2
sVdn3gqya
p97
I1
sVd1dorgp
p98
I2
sVd4tqyfx
p99
I1
sVdmsdnsc
p100
I1
sVdffzeyq
p101
I1
sVd3x3j8x
p102
I1
sVde98lzu
p103
I1
sVd56e7hz
p104
I1
sVdbaebxd
p105
I7
sVd4xdlio
p106
I1
sVdncllrt
p107
I1
sVd9hc4ts
p108
I1
sVd2nkder
p109
I1
sVcylj13x
p110
I4
sVcz1nhwq
p111
I1
sVcyo0ib0
p112
I1
sVdjztmtr
p113
I2
sVdevxrft
p114
I1
sVde0xpqt
p115
I1
sVcyyz6lh
p116
I1
sVdf74sl2
p117
I1
sVd90llvk
p118
I1
sVdt2dij5
p119
I1
sVd7t1hg5
p120
I3
sVdf03x9e
p121
I1
sVd3jodmj
p122
I1
sVd1v83zz
p123
I1
sVddwmlen
p124
I1
sVdogpiza
p125
I1
sVcypiitm
p126
I4
sVdhlgzqa
p127
I1
sVdpzvp1f
p128
I2
sVd1eakvb
p129
I2
sVdrsc8fv
p130
I1
sVd01mctc
p131
I2
sVde9ffds
p132
I1
sVcyo5aeu
p133
I1
sVdaxg6g0
p134
I1
sVdf5ytxx
p135
I2
sVczndvz6
p136
I1
sVd22mcsr
p137
I1
sVdh4uw1u
p138
I1
sVd9dmij2
p139
I1
sVd90oyim
p140
I1
sVdamelpt
p141
I1
sVdav26y2
p142
I2
sVdbdnnw9
p143
I1
sVdclkee5
p144
I3
sVdcjbwyh
p145
I3
sVd7oqofl
p146
I1
sVdicx3o9
p147
I1
sVcztyd7q
p148
I2
sVda6m2he
p149
I2
sVdcxkovy
p150
I1
sVd9bq6pg
p151
I1
sVd2kvodr
p152
I1
sVdk17dbj
p153
I1
sVdcc1zji
p154
I2
sVd8nhppw
p155
I1
sVdb58oy2
p156
I2
sVdbzdkyv
p157
I1
sVddg5u5q
p158
I1
sVd8u26z8
p159
I1
sVdpxwf0w
p160
I1
sVdcg3rd1
p161
I2
sVcyqb4u8
p162
I2
sVdekf31q
p163
I1
sVd7irhe3
p164
I2
sVdb3kgy1
p165
I1
sVdmfzn1r
p166
I1
sVczqvxl7
p167
I1
sVdplbok2
p168
I2
sVdb1cnrq
p169
I1
sVd5013ij
p170
I2
sVd45vk6m
p171
I1
sVdjaw2gk
p172
I1
sVd3x83ng
p173
I2
sVdenoa7n
p174
I1
sVdpq789z
p175
I1
sVd8ktyhm
p176
I1
sVd6jkehc
p177
I1
sVd27bt2d
p178
I1
sVd043bso
p179
I1
sVd4jy7ng
p180
I1
sVd865hbt
p181
I1
sVdic9nnz
p182
I1
sVdoutila
p183
I2
sVd8cp7p2
p184
I1
sVdeatnlu
p185
I1
sVdo496cy
p186
I1
sVdn8mpkf
p187
I2
sVdeih5ti
p188
I1
sVdazu8uj
p189
I1
sVd04ghon
p190
I1
sVdjc8eol
p191
I8
sVdelwzct
p192
I1
sVcz0qr2m
p193
I1
sVd1eb3al
p194
I1
sVdn4mpsg
p195
I1
sVcz1lgvc
p196
I2
sVd1pr2qx
p197
I1
sVd3kfy40
p198
I1
sVdastr6h
p199
I1
sVdh6mvdu
p200
I1
sVdesglal
p201
I2
sVddf8ury
p202
I1
sVdeukc9l
p203
I1
sVdk0sd3l
p204
I1
sVd4xmzsx
p205
I1
sVd5eprjy
p206
I1
sVdngwvbu
p207
I1
sVdo5jjhn
p208
I1
sVd3r23aj
p209
I1
sVdhrq5o3
p210
I1
sVdqo4y9s
p211
I1
sVdcoasd5
p212
I1
sVdecmzi4
p213
I1
sVd99sbw5
p214
I1
sVdr44bnq
p215
I1
sVdccj3qd
p216
I1
sVd0qrog7
p217
I1
sVdab2rth
p218
I2
sVddh7guo
p219
I1
sVd65hli1
p220
I1
sVd5m50p9
p221
I3
sVczln5az
p222
I1
sVdb5bcwe
p223
I2
sVde2pkn1
p224
I1
sVdi73tgn
p225
I1
sVd1fzb8v
p226
I3
sVdewcxsg
p227
I1
sVdj4v0ne
p228
I1
sVd6xajle
p229
I1
sVczyku0l
p230
I1
sVd8kebta
p231
I1
sVd861whf
p232
I1
sVdghnd2z
p233
I1
sVdcpqrdb
p234
I1
sVd9rtxpf
p235
I2
sVd3zwz0r
p236
I1
sVdjrvytv
p237
I1
sVddtqyb5
p238
I3
sVdhokglo
p239
I1
sVd3gylj3
p240
I1
sVdev52xs
p241
I1
sVder1vk3
p242
I1
sVdj3cjwk
p243
I2
sVdibpeed
p244
I2
sVd9i5igl
p245
I1
sVda8qoya
p246
I1
sVd7h9tom
p247
I1
sVdehsli9
p248
I1
sVdongdqj
p249
I2
sVdim0sme
p250
I1
sVdcgbo5r
p251
I1
sVdp8e8k3
p252
I1
sVd6syqis
p253
I1
sVdabqqn7
p254
I2
sVcz1zbly
p255
I1
sVddqw07y
p256
I1
sVdjhbtqd
p257
I1
sVd5ob2cg
p258
I1
sVcyilg1q
p259
I1
sVdhy76vu
p260
I1
sVdefz88x
p261
I1
sVdsyv2w2
p262
I2
sVd9ct1mw
p263
I1
sVdncbrzd
p264
I1
sVd49lui9
p265
I1
sVdh0ig4x
p266
I1
sVdhadpf4
p267
I2
sVcyj9bx6
p268
I1
sVda5rjeu
p269
I5
sVdj2i3b6
p270
I1
sVddswp7z
p271
I1
sVd9bo25v
p272
I1
sVd59eo36
p273
I2
sVd78brfe
p274
I3
sVdaxhqct
p275
I2
sVdd09vlg
p276
I1
sVdbw2hf3
p277
I1
sVdda67ra
p278
I1
sVczl2v8t
p279
I1
sVdde3xk6
p280
I2
sVdt3r2wn
p281
I1
sVd2hfpsh
p282
I1
sVd69xarn
p283
I2
sVdf7we6w
p284
I1
sVddjbyaq
p285
I1
sVdd4sfiz
p286
I1
sVd1e5rcr
p287
I1
sVd8xb65c
p288
I1
sVd16qbed
p289
I2
sVdkoc6z5
p290
I1
sVdei2tn2
p291
I1
sVdhownen
p292
I1
sVd2eke0x
p293
I1
sVddf3d9y
p294
I1
sVde2mbdx
p295
I2
sVd9ydxvq
p296
I1
sVdc11d8z
p297
I1
sVd8tmnbl
p298
I1
sVds5xmc6
p299
I1
sVdinxhh3
p300
I1
sVd95bi9r
p301
I1
sVdce7406
p302
I1
sVdpj6l88
p303
I1
sVd3a3gum
p304
I1
sVdbkroep
p305
I1
sVcyq3ndk
p306
I6
sVdahhaii
p307
I1
sVczdy1zo
p308
I2
sVdaawsry
p309
I1
sVdsy3r99
p310
I3
sVd2o4ubo
p311
I1
sVdoqzxg6
p312
I1
sVdpig3zt
p313
I1
sVdmj24i2
p314
I1
sVdkre67s
p315
I1
sVddv9n1j
p316
I1
sVde88okj
p317
I2
sVd6vpmkn
p318
I1
sVd5h5r9w
p319
I1
sVcywwaxh
p320
I1
sVd9ffg7k
p321
I1
sVdd8xa35
p322
I2
sVdcno8qf
p323
I1
sVdpf0shh
p324
I1
sVd272z4y
p325
I1
sVd8jbuam
p326
I1
sVdn602a7
p327
I1
sVdkpfay6
p328
I3
sVdg9f40l
p329
I1
sVd3sqxn1
p330
I1
sVda6zbrw
p331
I1
sVdf1xcin
p332
I1
sVddutqge
p333
I1
sVdd48shp
p334
I1
sVd94q6pc
p335
I1
sVdc49yfm
p336
I6
sVdg194jd
p337
I1
sVdpew2f5
p338
I1
sVdd1e1bg
p339
I2
sVdjg6dee
p340
I1
sVdbnph29
p341
I1
sVd6l97n5
p342
I1
sVdgia0x3
p343
I1
sVdaax2kz
p344
I1
sVd7l9al4
p345
I2
sVd9g920k
p346
I1
sVd93jvv7
p347
I1
sVdg5tqt3
p348
I2
sVdhzuegv
p349
I1
sVdb0dif2
p350
I1
sVdgtpvz7
p351
I1
sVczzrouj
p352
I1
sVd2pygfv
p353
I1
sVddcnd1o
p354
I3
sVd3xcltr
p355
I1
sVdg287cv
p356
I1
sVdkz4ok5
p357
I1
sVddu74r3
p358
I2
sVczp87vr
p359
I3
sVdoiuaw2
p360
I1
sVdgt83hz
p361
I1
sVd8yqspr
p362
I1
sVdkpto99
p363
I1
sVd41z2pg
p364
I1
sVdmeo4wf
p365
I1
sVdbnsxtp
p366
I1
sVdptjlol
p367
I1
sVdro0hxb
p368
I1
sVdag4cqa
p369
I1
sVdj3l4nj
p370
I1
sVdf3mz05
p371
I1
sVd82da52
p372
I4
sVdghdx5e
p373
I1
sVd4uylsi
p374
I1
sVd2wqitv
p375
I1
sVdmrt8he
p376
I1
sVdekup7i
p377
I1
sVd1i3i2y
p378
I1
sVdg6aa3n
p379
I1
sVd8kcyl6
p380
I1
sVdehmr6k
p381
I1
sVdjwbfb8
p382
I11
sVd5akfr2
p383
I4
sVdnr5olh
p384
I1
sVd27yy8p
p385
I1
sVd13ocw9
p386
I1
sVd9c8ret
p387
I1
sVd05wvnp
p388
I1
sVd4v9qw2
p389
I1
sVd39y2yw
p390
I1
sVd1truob
p391
I1
sVd49g17y
p392
I1
sVczfoc0e
p393
I1
sVddcmcff
p394
I6
sVdb0djwb
p395
I3
sVdijmi92
p396
I2
sVdrm146t
p397
I1
sVd37wcl0
p398
I1
sVd62ujea
p399
I2
sVdc09uvs
p400
I1
sVdo0823q
p401
I1
sVd79su7g
p402
I1
sVdkkos09
p403
I1
sVd554n14
p404
I1
sVdt6w035
p405
I1
sVd13g9h6
p406
I1
sVdazdwva
p407
I1
sVd7mrmqt
p408
I1
sVd3cis8l
p409
I1
sVdfl8hfh
p410
I1
sVdgohihu
p411
I1
sVderdny8
p412
I1
sVd4wrac2
p413
I1
sVd4kqdv3
p414
I2
sVdeuydyv
p415
I2
sVdccmtgo
p416
I1
sVd4jd4zf
p417
I1
sVddw3hae
p418
I1
sVda6vpu6
p419
I2
sVdrfoyf6
p420
I1
sVdmsb8fo
p421
I1
sVdf26lsk
p422
I1
sVdjye5dd
p423
I1
sVdi8h320
p424
I1
sVdccir05
p425
I2
sVddgo3w3
p426
I2
sVds4d221
p427
I1
sVdmjg2lc
p428
I12
sVd9br1nc
p429
I1
sVdcdkxbp
p430
I1
sVd27giwx
p431
I1
sVds4vqw2
p432
I2
sVd4u4duo
p433
I2
sVdfnhwsc
p434
I1
sVcyvqadq
p435
I1
sVdjc7sob
p436
I1
sVdna96si
p437
I1
sVdoxk5m4
p438
I1
sVd8o93xm
p439
I2
sVdo8ippt
p440
I1
sVd6awzzv
p441
I1
sVdmeydgi
p442
I1
sVdbginl0
p443
I1
sVd45y215
p444
I1
sVd8nd2o4
p445
I1
sVd53g4s3
p446
I1
sVdh3ek15
p447
I1
sVd5mmv8s
p448
I3
sVdrvslj4
p449
I1
sVdp6kbtf
p450
I1
sVcyo1xr3
p451
I1
sVdnveu22
p452
I1
sVdmh8c4k
p453
I1
sVdirzfvq
p454
I1
sVd7ilp1b
p455
I4
sVdsgrdf6
p456
I2
sVdpfp189
p457
I2
sVdbfaoxa
p458
I1
sVd96hbtn
p459
I2
sVcyp39jh
p460
I1
sVcyq1sgm
p461
I1
sVd1lshgs
p462
I1
sVdow4acu
p463
I1
sVdnz8un0
p464
I1
sVd26wt4h
p465
I2
sVdef2j14
p466
I1
sVdd5y8k8
p467
I1
sVdjuqtm7
p468
I1
sVd5u9u06
p469
I1
sVdognt6h
p470
I1
sVd5ywifo
p471
I1
sVd7fulky
p472
I1
sVd33ie03
p473
I1
sVd9bbv01
p474
I1
sVddlzukq
p475
I1
sVd168p6z
p476
I1
sVdixtdew
p477
I1
sVd1arnz2
p478
I1
sVd5yr6os
p479
I1
sVd3rgrwf
p480
I1
sVddqtl8l
p481
I2
sVdaowpy2
p482
I1
sVd62fja9
p483
I1
sVdqm7gbs
p484
I1
sVdiq9hpe
p485
I5
sVd5lb1ls
p486
I1
sVcz7z8sw
p487
I1
sVdfhyere
p488
I5
sVd94ce63
p489
I1
sVdneiebg
p490
I1
sVd1kon4n
p491
I1
sVd8kp9og
p492
I1
sVddjd1pp
p493
I1
sVd8q56lz
p494
I1
sVdo2f79p
p495
I1
sVd3gx9k5
p496
I1
sVd5f2g13
p497
I1
sVdjiub63
p498
I4
sVdfyel9y
p499
I1
sVcz7nv94
p500
I1
sVdcee9zp
p501
I2
sVczln4wj
p502
I1
sVd0t4x2q
p503
I1
sVdhrwizz
p504
I1
sVdrwtdbv
p505
I1
sVdbuevdr
p506
I1
sVd0ielnw
p507
I1
sVcyzxjh4
p508
I1
sVd8a3i9k
p509
I1
sVdba0s9z
p510
I1
sVdknub6d
p511
I1
sVdki92oo
p512
I1
sVdb0dl9w
p513
I2
sVdmxftb4
p514
I1
sVdijy6yx
p515
I1
sVd6onyn8
p516
I1
sVd2tj4ej
p517
I1
sVd703qha
p518
I1
sVdoszhkj
p519
I2
sVdhjupuc
p520
I1
sVde2iv1b
p521
I1
sVdn5mr4j
p522
I1
sVdevgtj0
p523
I1
sVd5vzh59
p524
I1
sVcylgevy
p525
I1
sVd6jc8ad
p526
I1
sVcyj7rg9
p527
I2
sVdqmlbff
p528
I1
sVdbeizwy
p529
I1
sVd7f9xy2
p530
I4
sVdfb99au
p531
I1
sVd9vrgjx
p532
I1
sVd5sgbfo
p533
I1
sVd48jnjs
p534
I1
sVdicakoy
p535
I3
sVdn5tf7y
p536
I1
sVdg9hpcw
p537
I1
sVd62fx8c
p538
I1
sVdivzj28
p539
I1
sVda6ya6s
p540
I1
sVd3vxoz3
p541
I1
sVd2yp0bg
p542
I1
sVdn25ben
p543
I1
sVd0uz5ob
p544
I1
sVdawlc4x
p545
I2
sVd1e373k
p546
I1
sVd5i33y2
p547
I1
sVdijlvcx
p548
I1
sVdqbln23
p549
I1
sVd3kdqjf
p550
I1
sVdi8u7a2
p551
I1
sVdsl3sfv
p552
I1
sVdgcdjlm
p553
I1
sVczc7uvl
p554
I1
sVcz4btyl
p555
I1
sVcz1e1gl
p556
I1
sVd1iwos3
p557
I1
sVdq69h3s
p558
I1
sVdgsub5c
p559
I3
sVdffzbad
p560
I1
sVd1z81gu
p561
I1
sVdf0keab
p562
I1
sVdo7zacz
p563
I1
sVcyly2xs
p564
I3
sVdhxq7th
p565
I1
sVd4b7vcm
p566
I3
sVd8kidqs
p567
I1
sVd61mte2
p568
I3
sVdkccrnf
p569
I1
sVd66mb0q
p570
I1
sVdsvt6gv
p571
I2
sVd55wdq9
p572
I1
sVdnxlsws
p573
I2
sVd7bkfk9
p574
I1
sVcyle13f
p575
I2
sVdccjqxc
p576
I4
sVd2btj9n
p577
I1
sVdccj2hm
p578
I5
sVd5k9wte
p579
I2
sVcz6yhc9
p580
I1
sVd8ufb9s
p581
I1
sVd901581
p582
I1
sVdmkubdn
p583
I1
sVdgsulee
p584
I6
sVdmjebin
p585
I2
sVdd6o3qv
p586
I1
sVd76v46k
p587
I1
sVd5ftng0
p588
I1
sVd30qp1f
p589
I1
sVd90gy68
p590
I1
sVdsdmpxn
p591
I1
sVddz1m4w
p592
I1
sVdbbq0a9
p593
I1
sVden8lit
p594
I1
sVdgpgeso
p595
I1
sVd68cpes
p596
I1
sVdf1oa3v
p597
I1
sVdjnd63r
p598
I2
sVcylns1s
p599
I1
sVdicfbet
p600
I4
sVdh9zvnc
p601
I1
sVd10jmhc
p602
I1
sVczjb4z5
p603
I1
sVd8r9jr4
p604
I1
sVd8bdmg2
p605
I1
sVddwdtcy
p606
I1
sVdgp3caq
p607
I2
sVcykuyjo
p608
I4
sVdf1dqbj
p609
I1
sVd10zqsh
p610
I2
sVdfvmard
p611
I1
sVd82mj31
p612
I1
sVd9r93k2
p613
I2
sVcynvg5s
p614
I1
sVd6x27a3
p615
I1
sVdbpl58h
p616
I1
sVddp1vna
p617
I5
sVddr4twn
p618
I1
sVdo2uujw
p619
I1
sVder329f
p620
I1
sVd9k3o3o
p621
I2
sVde4yd06
p622
I1
sVdab8w20
p623
I3
sVcyop3mh
p624
I2
sVdbogh63
p625
I1
sVd1wm03e
p626
I1
sVdrchnca
p627
I1
sVdc2ls9n
p628
I2
sVdd4wiio
p629
I2
sVdg0aetd
p630
I1
sVd3sc4go
p631
I2
sVdimom1x
p632
I3
sVdnikxy5
p633
I1
sVdep6g8u
p634
I1
sVdg5xao6
p635
I1
sVdo7cx1u
p636
I2
sVdk6s652
p637
I1
sVdrh8fz3
p638
I1
sVd3zad2x
p639
I1
sVdclisbg
p640
I2
sVdbh2b48
p641
I1
sVddv2bfx
p642
I4
sVdibx88x
p643
I1
sVd747a46
p644
I2
sVdpd5arm
p645
I1
sVd4fvjtn
p646
I1
sVdaddrly
p647
I1
sVdf3ruz7
p648
I1
sVdc0c1uv
p649
I1
sVd58elel
p650
I1
sVds1e672
p651
I5
sVdf74a8n
p652
I2
sVd7rmdoj
p653
I1
sVcz5gaoq
p654
I1
sVdh6nch2
p655
I1
sVcz1th7i
p656
I1
sVd1hy1u9
p657
I1
sVd2oftnd
p658
I1
sVd4d6pqr
p659
I1
sVd0c796i
p660
I1
sVdcew18c
p661
I1
sVdo261gj
p662
I2
sVdiyfc10
p663
I1
sVdja8aqt
p664
I1
sVczj5le6
p665
I4
sVda2ikoz
p666
I1
sVdgji4fi
p667
I1
sVd8nd35c
p668
I2
sVd58zhi4
p669
I1
sVdjceahk
p670
I1
sVdd6xhio
p671
I2
sVd6bybt4
p672
I1
sVdfmxk9q
p673
I3
sVdr53ssi
p674
I1
sVdb00r3o
p675
I4
sVdnv688p
p676
I1
sVd65a8h6
p677
I1
sVda9hqtg
p678
I1
sVcyyf4bb
p679
I1
sVdd335ay
p680
I1
sVdcn193v
p681
I1
sVcyn3mw3
p682
I1
sVde8wrcz
p683
I1
sVdgwfhx6
p684
I1
sVd16xh2b
p685
I1
sVdeh6paj
p686
I1
sVd4triom
p687
I2
sVdphr0gv
p688
I1
sVd1oum86
p689
I1
sVdrc6mgh
p690
I1
sVd62gu8e
p691
I1
sVddq6lby
p692
I1
sVd00zfo6
p693
I3
sVdgsq264
p694
I2
sVdfs571v
p695
I1
sVd7uzbp4
p696
I1
sVd1d31fc
p697
I2
sVdfyepyj
p698
I1
sVdol2pfw
p699
I1
sVdf66xe4
p700
I1
sVdi7simj
p701
I2
sVd1kxotv
p702
I1
sVdeuesk9
p703
I1
sVd3rspeg
p704
I1
sVdp7j4tt
p705
I1
sVdgerapr
p706
I1
sVdd6lbcg
p707
I5
sVd2nadlb
p708
I1
sVd00c45b
p709
I1
sVdb7cd95
p710
I1
sVdr353lb
p711
I1
sVd3saj35
p712
I4
sVcz2r7cz
p713
I1
sVdawqffu
p714
I1
sVddgz26e
p715
I1
sVdixb0e5
p716
I1
sVcyolzs1
p717
I1
sVdi6lnir
p718
I2
sVd9s60an
p719
I1
sVd4v8khy
p720
I1
sVd3rtyke
p721
I2
sVdbw5wk8
p722
I2
sVda1ax06
p723
I1
sVdemj4wg
p724
I1
sVdd3c527
p725
I1
sVda6uvh5
p726
I1
sVdn2r3g6
p727
I1
sVdmeqz9l
p728
I1
sVdes99ji
p729
I1
sVcz6qxfc
p730
I1
sVdse4pcn
p731
I1
sVd1b9hsu
p732
I1
sVdrvaog4
p733
I1
sVd3opxe1
p734
I1
sVd0e243m
p735
I2
sVd1e4fu4
p736
I1
sVdjnxnk5
p737
I1
sVd6jan30
p738
I1
sVd4ju0em
p739
I1
sVd1aag2l
p740
I1
sVd1gfbfl
p741
I1
sVd2kn0vp
p742
I1
sVd1ebmo6
p743
I2
sVdijy0cy
p744
I3
sVdkjt6xo
p745
I3
sVd2p9s1k
p746
I1
sVd6px19u
p747
I1
sVddtqhgf
p748
I1
sVd90shya
p749
I2
sVd27uf6h
p750
I1
sVdhirwgb
p751
I1
sVd8r1xen
p752
I1
sVdftowg2
p753
I1
sVd72pxtu
p754
I1
sVd2dzbf1
p755
I6
sVdjj1tuf
p756
I1
sVdpg0roa
p757
I2
sVdpc117h
p758
I1
sVdeijju6
p759
I1
sVdd8rc9h
p760
I1
sVdmxcx6s
p761
I1
sVd40ic05
p762
I1
sVdmr4sdf
p763
I1
sVd3tivxk
p764
I2
sVdji3zf7
p765
I1
sVd2thj82
p766
I1
sVdhdjabx
p767
I1
sVcyq52cu
p768
I2
sVcyyjm5f
p769
I1
sVdgg0t1n
p770
I1
sVdmf8u9l
p771
I1
sVd9fz5ez
p772
I1
sVdbr316k
p773
I2
sVdifjsoy
p774
I2
sVdkerxyy
p775
I2
sVdg2c8xd
p776
I1
sVd3ns87r
p777
I1
sVd829p85
p778
I1
sVd4bxqyk
p779
I1
sVdrzdnne
p780
I1
sVdj0opd7
p781
I1
sVdho15l6
p782
I1
sVd458lst
p783
I1
sVd93n481
p784
I1
sVdqn1pfu
p785
I1
sVd5m9ego
p786
I6
sVd3qsqk2
p787
I3
sVd4a83ug
p788
I1
sVdfatsrj
p789
I1
sVd1mtitq
p790
I1
sVd5b2a8s
p791
I2
sVda8w1pi
p792
I1
sVd8c2mxs
p793
I1
sVcz8kvjz
p794
I2
sVd1c4hvj
p795
I1
sVdcecof3
p796
I1
sVdks1wva
p797
I1
sVdfdtoli
p798
I2
sVdkpt9wk
p799
I1
sVd0tpllf
p800
I1
sVdkcamih
p801
I1
sVd0rbx00
p802
I1
sVd2lww87
p803
I1
sVd93nqm6
p804
I1
sVdda9r3h
p805
I3
sVdsnip5k
p806
I1
sVd6vvks2
p807
I1
sVdmp2346
p808
I1
sVdtdh5dz
p809
I1
sVczi0onw
p810
I1
sVdg0i6d9
p811
I1
sVd17qh45
p812
I2
sVdmxianf
p813
I2
sVdnnf695
p814
I2
sVdjg3gn2
p815
I3
sVdd2ajfo
p816
I1
sVd6jn8f1
p817
I5
sVdikrzle
p818
I1
sVdd72mn5
p819
I1
sVd23pot7
p820
I1
sVdkx4f41
p821
I1
sVd49bips
p822
I1
sVd9i1cy3
p823
I1
sVddzu32p
p824
I1
sVdb0dor1
p825
I1
sVd5mjmsd
p826
I1
sVdox9wyx
p827
I1
sVdg6cjmb
p828
I2
sVdo059j1
p829
I1
sVd16gadm
p830
I1
sVdgf4gkv
p831
I1
sVczekyjp
p832
I1
sVdjx7pxk
p833
I1
sVdrojxm8
p834
I1
sVcypvf3w
p835
I1
sVdbk9jub
p836
I1
sVddprnp7
p837
I1
sVdmnrmx5
p838
I1
sVdqg1hrl
p839
I2
sVd5ig2kz
p840
I1
sVd341gxi
p841
I1
sVd6juj2l
p842
I1
sVdejnd60
p843
I1
sVdei10bi
p844
I5
sVdbv32jg
p845
I1
sVczhqvjw
p846
I1
sVd99zqav
p847
I2
sVdar2m2c
p848
I1
sVd9zmbaa
p849
I1
sVdr5e7k7
p850
I1
sVdcqwbv9
p851
I1
sVdsppuhe
p852
I1
sVd3n7ql7
p853
I1
sVd1acmef
p854
I1
sVdibouwe
p855
I1
sVdhghu5g
p856
I1
sVd4lsk8y
p857
I1
sVdh91ovz
p858
I1
sVdair4oh
p859
I1
sVd54e26y
p860
I2
sVdi0kdmd
p861
I1
sVd36wmnq
p862
I1
sVd4tlx5i
p863
I1
sVdhk1aw2
p864
I1
sVddiuzms
p865
I2
sVd9e4e01
p866
I1
sVczlxwsr
p867
I2
sVd15jcto
p868
I1
sVdiuqm1h
p869
I4
sVd7kuzdg
p870
I1
sVd0wmkgb
p871
I1
sVd23pulc
p872
I1
sVd804891
p873
I1
sVdjeqqua
p874
I1
sVd0ndyyt
p875
I3
sVd59ud7m
p876
I1
sVdrdrvnp
p877
I1
sVdjvxe20
p878
I2
sVd96yg58
p879
I1
sVd4ojwph
p880
I1
sVdo3gtac
p881
I1
sVdjc799v
p882
I2
sVd3maisu
p883
I1
sVdf5m96b
p884
I1
sVd5d274i
p885
I1
sVdd6itzi
p886
I2
sVds2e7sw
p887
I1
sVdc8l5l4
p888
I1
sVczhohox
p889
I1
sVdgk1w1u
p890
I1
sVd631n55
p891
I1
sVd2o3g7n
p892
I1
sVdajr89w
p893
I1
sVd9gobti
p894
I1
sVdqwz9d3
p895
I1
sVdsit17q
p896
I2
sVd2qr7vr
p897
I1
sVcz1t6j8
p898
I1
sVdfxmnnf
p899
I2
sVd90tv8m
p900
I7
sVd1d8e0m
p901
I1
sVd9lacbd
p902
I2
sVdgybuby
p903
I1
sVd13c240
p904
I2
sVdcwdr7p
p905
I1
sVdajfm5w
p906
I1
sVdq5eccu
p907
I1
sVddv1kkz
p908
I2
sVdkjt7fr
p909
I1
sVdt8d0cg
p910
I1
sVd6ml7d5
p911
I1
sVdmg3w38
p912
I1
sVd98rv2o
p913
I2
sVd5zkqs5
p914
I2
sVden36tz
p915
I1
sVddf2kbj
p916
I1
sVd8dy8wx
p917
I1
sVd3n2qtt
p918
I1
sVdsab93v
p919
I3
sVdj4dcew
p920
I1
sVd2lgbu2
p921
I1
sVdc5jxi6
p922
I1
sVdb34fxu
p923
I4
sVd6oi7qv
p924
I2
sVdauu2xl
p925
I1
sVdg12j1j
p926
I1
sVdr7xibn
p927
I2
sVd6jbtv7
p928
I2
sVdh30621
p929
I1
sVdhjhqjt
p930
I1
sVda4w3g4
p931
I1
sVdrvp90c
p932
I1
sVdrc5690
p933
I2
sVd3evyeg
p934
I1
sVdctg473
p935
I1
sVdkm6ocn
p936
I1
sVd1pfeme
p937
I1
sVdkdfzy6
p938
I1
sVdibcsur
p939
I1
sVd8ojicp
p940
I1
sVd2msk0i
p941
I2
sVcylj14h
p942
I5
sVcyuxkf2
p943
I1
sVdcvd6vc
p944
I1
sVda6yuws
p945
I1
sVd4gqtv9
p946
I1
sVdfnw6js
p947
I1
sVd1k4hmg
p948
I1
sVd4253qb
p949
I2
sVdhaadiv
p950
I1
sVd23y9ej
p951
I1
sVdkf5ret
p952
I4
sVdftia6n
p953
I1
sVdauizoa
p954
I1
sVcynp81r
p955
I1
sVd2fc6wf
p956
I1
sVdrmofjm
p957
I1
sVdsnzvnl
p958
I2
sVcztk7pr
p959
I1
sVd062rpf
p960
I2
sVd65op9b
p961
I1
sVdnvcsca
p962
I1
sVd2r103c
p963
I1
sVd3n3m3j
p964
I2
sVdaxhv94
p965
I1
sVdgjy303
p966
I1
sVd8bxi3d
p967
I2
sVdevgwk7
p968
I1
sVd1zlyms
p969
I1
sVdmlvuob
p970
I1
sVdnel91t
p971
I1
sVd16xn5a
p972
I1
sVdbdda8y
p973
I1
sVd1giu2s
p974
I2
sVdqj1ktn
p975
I1
sVd1my6f8
p976
I1
sVdmnyikr
p977
I1
sVdnyuexn
p978
I1
sVd2wr8b4
p979
I1
sVd082vsb
p980
I1
sVd5xd20s
p981
I1
sVdcb1bws
p982
I1
sVdb8ab4f
p983
I1
sVcyojow2
p984
I1
sVdbgrkqo
p985
I1
sVddut1mh
p986
I2
sVd77zqp2
p987
I1
sVdf45j2h
p988
I1
sVddodfzo
p989
I1
sVdhltdae
p990
I2
sVdbtfyvo
p991
I1
sVdn15oao
p992
I2
sVdk3jaed
p993
I1
sVd7syky3
p994
I5
sVda6uuud
p995
I1
sVd2d0x4p
p996
I1
sVcywdiwj
p997
I3
sVddt3yfx
p998
I1
sVds0eq10
p999
I2
sVdsaj4lk
p1000
I1
sVd19530g
p1001
I1
sVd1z6y8h
p1002
I4
sVczt7tcz
p1003
I1
sVdmkv6dd
p1004
I1
sVda5jxvm
p1005
I1
sVcyv5lg5
p1006
I1
sVd7935fp
p1007
I1
sVdpnlb3a
p1008
I2
sVd1e3cat
p1009
I2
sVd7fbpl3
p1010
I1
sVdegbytn
p1011
I1
sVd1fz00t
p1012
I1
sVcz1vb7k
p1013
I2
sVdko1m2e
p1014
I1
sVcz01gc7
p1015
I1
sVdbqlt59
p1016
I1
sVda5pnxo
p1017
I2
sVdmfwfl8
p1018
I1
sVd0epoel
p1019
I2
sVdsylded
p1020
I1
sVd9emay4
p1021
I1
sVd61bpcz
p1022
I1
sVdqo25z5
p1023
I1
sVdbxmtv8
p1024
I1
sVdgtlwpk
p1025
I1
sVdk4nh8p
p1026
I1
sVdnaseeo
p1027
I1
sVd017ep8
p1028
I1
sVd06k5vg
p1029
I1
sVdewxe2e
p1030
I2
sVdeo2kvz
p1031
I1
sVde5fo07
p1032
I5
sVdjf7vlx
p1033
I1
sVd3cdaw3
p1034
I1
sVdggc6y7
p1035
I1
sVdj6ijb1
p1036
I1
sVdo27j6r
p1037
I3
sVd5keduk
p1038
I1
sVd5pgeq8
p1039
I1
sVd66s2td
p1040
I1
sVcysrn3x
p1041
I1
sVd6wglsp
p1042
I1
sVdozd180
p1043
I1
sVd30eazr
p1044
I2
sVdg3hb05
p1045
I1
sVda4eze1
p1046
I1
sVd3mjpng
p1047
I2
sVd049vlk
p1048
I1
sVdf602fq
p1049
I1
sVd2fd31o
p1050
I1
sVdq3zhev
p1051
I1
sVdsifvkj
p1052
I1
sVd5zkool
p1053
I1
sVddgtpfz
p1054
I1
sVd65jeki
p1055
I2
sVd4xk2hh
p1056
I2
sVd17o78h
p1057
I1
sVd5ths7q
p1058
I1
sVd9gesgx
p1059
I1
sVdg4vg77
p1060
I1
sVd5giklg
p1061
I2
sVd0ip4mq
p1062
I1
sVdcbuzd4
p1063
I2
sVd7rm4ko
p1064
I1
sVd7e9ouz
p1065
I1
sVdpw2hs4
p1066
I1
sVdhgksar
p1067
I1
sVdfu34kg
p1068
I1
sVd4odoyk
p1069
I1
sVdcd5zt7
p1070
I1
sVdokr1fs
p1071
I2
sVd1ea09e
p1072
I1
sVd1x4a54
p1073
I1
sVd81hl0h
p1074
I1
sVdti876l
p1075
I1
sVd1mk8a1
p1076
I1
sVdi5uil0
p1077
I1
sVdnl2wyz
p1078
I1
sVczhr5x7
p1079
I1
s.