(dp0
Vcyllid0
p1
I2
sVdjlkgow
p2
I5
sVdcwcq0z
p3
I1
sVd1h2dlo
p4
I8
sVcz6kguv
p5
I4
sVczhqrto
p6
I1
sVdkj729f
p7
I1
sVdgfrawa
p8
I1
sVd872gda
p9
I1
sVd9wdgw0
p10
I4
sVdg4mx3n
p11
I1
sVdscf9le
p12
I2
sVczgi8jx
p13
I1
sVd3cc9fz
p14
I3
sVdhotq37
p15
I1
sVdmgy3ye
p16
I2
sVdmiem7y
p17
I1
sVdi3jxg0
p18
I3
sVdeorok7
p19
I1
sVdief4ww
p20
I1
sVdp7z7x3
p21
I1
sVdgpbgm7
p22
I1
sVd2gh5hs
p23
I1
sVd1nd1lj
p24
I1
sVdf6fhuh
p25
I3
sVd3afuax
p26
I1
sVd83wgtc
p27
I1
sVd9y3tls
p28
I1
sVdhpi6n1
p29
I1
sVcyxag4c
p30
I1
sVd3cg0dc
p31
I1
sVdhpcw48
p32
I1
sVdku4fae
p33
I2
sVczoltq8
p34
I1
sVdhvgplc
p35
I1
sVdsrrblp
p36
I1
sVd6hqro8
p37
I3
sVd97jztp
p38
I3
sVd6ivth3
p39
I5
sVd0por6y
p40
I4
sVd85mb1x
p41
I1
sVd74h794
p42
I4
sVd68orhm
p43
I1
sVdejx7u0
p44
I1
sVdhpmyej
p45
I1
sVd1w9jb1
p46
I5
sVd382696
p47
I1
sVd40lcnj
p48
I1
sVdble5a1
p49
I1
sVd7qopwn
p50
I1
sVd0tef6k
p51
I1
sVdmzpbst
p52
I1
sVd9s55pv
p53
I1
sVd7r9aik
p54
I1
sVd0unq22
p55
I2
sVd2g6sar
p56
I1
sVd6isnoq
p57
I1
sVd2g6koi
p58
I3
sVd90mdvy
p59
I1
sVcyxw45o
p60
I1
sVdhxhxnx
p61
I1
sVcyle29q
p62
I1
sVdcwofay
p63
I2
sVda5n1r6
p64
I4
sVdplkwjh
p65
I1
sVdhgfih5
p66
I3
sVd9xxlk0
p67
I5
sVd9ydh2t
p68
I2
sVd7v0kyv
p69
I3
sVdry294s
p70
I1
sVddr4a6t
p71
I1
sVd6iog74
p72
I6
sVde1ef5n
p73
I1
sVd0tl3co
p74
I1
sVd4spstd
p75
I2
sVd476m4k
p76
I2
sVdfye3ok
p77
I1
sVd1ioatm
p78
I1
sVd6j0rhl
p79
I1
sVd8rpzzd
p80
I1
sVddgrfef
p81
I1
sVdmip30q
p82
I2
sVd9mf6fi
p83
I1
sVddutm39
p84
I1
sVczyqtt1
p85
I2
sVd08oyae
p86
I1
sVd8pwxxv
p87
I1
sVd7qh42b
p88
I2
sVdt163qx
p89
I1
sVd055twu
p90
I1
sVdqtng5d
p91
I2
sVdcb8js1
p92
I1
sVdgfslg3
p93
I1
sVczku3zn
p94
I1
sVdkxgird
p95
I1
sVdeoif9k
p96
I1
sVdijadeq
p97
I1
sVd0ylw1b
p98
I1
sVd16xou7
p99
I6
sVd9ygn9g
p100
I2
sVcz254tf
p101
I2
sVdfbyg38
p102
I1
sVd5nmuj6
p103
I1
sVd67sbik
p104
I1
sVdi1qhn5
p105
I2
sVdhl1fhl
p106
I1
sVd9yagz7
p107
I1
sVdaxlj18
p108
I1
sVd9y51a7
p109
I2
sVdhplig3
p110
I2
sVdim580g
p111
I1
sVczeucaf
p112
I1
sVds9wkcc
p113
I1
sVd9fkciw
p114
I1
sVd5jvlmi
p115
I1
sVd24cx80
p116
I1
sVdt7ya8n
p117
I1
sVdjna1rl
p118
I1
sVdafin9t
p119
I1
sVd9yrnsg
p120
I1
sVdepj0cf
p121
I3
sVdayg6h4
p122
I1
sVd9y83e2
p123
I2
sVdc8z7na
p124
I1
sVd7l6dcy
p125
I1
sVdeidr5s
p126
I2
sVdcun5nw
p127
I1
sVdeed70a
p128
I1
sVcznw9o3
p129
I1
sVd45kvjy
p130
I1
sVdeoa24l
p131
I1
sVdehy07s
p132
I1
sVdhxm1el
p133
I4
sVd6l3un4
p134
I1
sVd5khac4
p135
I1
sVd17h9ks
p136
I1
sVd2igrun
p137
I1
sVd02k64a
p138
I2
sVd39tiin
p139
I1
sVdd6wfku
p140
I1
sVd4mmb5p
p141
I1
sVd91f4s3
p142
I4
sVdcdldwe
p143
I1
sVczzt12a
p144
I1
sVd0yskno
p145
I1
sVdela2n6
p146
I1
sVdn8h8h8
p147
I4
sVdkle2k5
p148
I1
sVdhvdtll
p149
I1
sVcz1zbly
p150
I1
sVdmudto0
p151
I2
sVdfmpjor
p152
I1
sVcz6gblh
p153
I1
sVd8kgwqm
p154
I1
sVd8xznz2
p155
I1
sVd92y4f0
p156
I1
sVdhgo524
p157
I2
sVczoveo6
p158
I1
sVdcwb38o
p159
I4
sVdkg78lr
p160
I2
sVd6tb0oz
p161
I4
sVd0yd520
p162
I1
sVdhpgoj8
p163
I3
sVdagzzis
p164
I1
sVdibe0k1
p165
I1
sVcyi2odj
p166
I1
sVcz58zsq
p167
I1
sVd2daznn
p168
I1
sVdatf4el
p169
I1
sVd0h4z3z
p170
I1
sVcypod31
p171
I2
sVd6tcqrx
p172
I1
sVd1efrg7
p173
I1
sVde0syav
p174
I5
sVdd66f46
p175
I1
sVd0s0ntz
p176
I1
sVd4834bg
p177
I1
sVd85lkej
p178
I2
sVdg4vu43
p179
I4
sVdeo9yzi
p180
I1
sVd3a2316
p181
I1
sVdhpg3ap
p182
I1
sVd8tc6jq
p183
I1
sVd0yrvpj
p184
I2
sVd9wab2q
p185
I1
sVdohw6w2
p186
I6
sVd9d9rh0
p187
I2
sVdidwwmi
p188
I4
sVd686asr
p189
I1
sVda1vprx
p190
I2
sVdbd30qf
p191
I1
sVd17b3ky
p192
I6
sVd757tr3
p193
I1
sVdbju0ad
p194
I2
sVd9yd2hs
p195
I3
sVdi0sdox
p196
I2
sVd3kk1zv
p197
I1
sVdfcklmx
p198
I2
sVdcpu73v
p199
I1
sVd3cd13e
p200
I1
sVd0pp0tu
p201
I3
sVd0posn8
p202
I2
sVd320sp0
p203
I2
sVdcp43rv
p204
I3
sVdcaijxf
p205
I1
sVd9sxeox
p206
I1
sVd3abu48
p207
I1
sVdo51bcf
p208
I1
sVcywqrlk
p209
I1
sVdhpdcp1
p210
I1
sVdkvzcqb
p211
I1
sVd1piygr
p212
I1
sVd3s1hci
p213
I1
sVdg4pq68
p214
I1
sVd9y65h0
p215
I2
sVddb7391
p216
I1
sVdgav1al
p217
I2
sVdixxmi7
p218
I1
sVdi7qgu2
p219
I1
sVd5wmx4h
p220
I1
sVd9zhghq
p221
I1
sVdtg540b
p222
I2
sVd20hdol
p223
I2
sVd6pq1oc
p224
I1
sVde66njn
p225
I1
sVd7pa5ib
p226
I2
sVdhomaqg
p227
I1
sVd3lqlbv
p228
I1
sVdhpw76d
p229
I1
sVd0us4og
p230
I1
sVd0c6xkt
p231
I1
sVdeyn0l5
p232
I1
sVd85lfv5
p233
I1
sVdepkb40
p234
I4
sVdfwjh7l
p235
I1
sVdr96e51
p236
I1
sVd739il4
p237
I1
sVd47vi5d
p238
I1
sVdq2r02t
p239
I3
sVd5wwsxb
p240
I2
sVd315iq2
p241
I2
sVday73pj
p242
I1
sVddugbmr
p243
I1
sVd08ouws
p244
I1
sVddpw1an
p245
I1
sVd30o1ts
p246
I1
sVddc8qz4
p247
I1
sVdcwcqr6
p248
I1
sVd8ytcb1
p249
I1
sVd9hfo2l
p250
I1
sVdelbra4
p251
I2
sVd5vxw84
p252
I2
sVd6kzzk3
p253
I1
sVd7bnf79
p254
I1
sVdaz7vtz
p255
I1
sVdbe1v99
p256
I2
sVd1jyxvc
p257
I1
sVd9yerw7
p258
I2
sVczhsweo
p259
I3
sVd5cwmmj
p260
I6
sVczv4jcl
p261
I1
sVdhpsoy2
p262
I1
sVd0ys01j
p263
I1
sVdihj9n4
p264
I1
sVdix06om
p265
I1
sVd1qtt19
p266
I1
sVczjb0gv
p267
I1
sVdhvkyf4
p268
I1
sVdhvhcz7
p269
I1
sVddcaw2w
p270
I2
sVd4k0yla
p271
I2
sVdhph1op
p272
I1
sVcykijpk
p273
I1
sVd5w8sd4
p274
I1
sVd799a4c
p275
I1
sVd04m1cw
p276
I1
sVdie1hyq
p277
I6
sVdhvkbpw
p278
I1
sVdq5gshy
p279
I1
sVdan4l1f
p280
I2
sVd5vyu97
p281
I1
sVdexsqa6
p282
I1
sVd6bbgec
p283
I3
sVdnz6h9y
p284
I1
sVdqtzxry
p285
I4
sVdfyfqji
p286
I1
sVdenvne4
p287
I2
sVdao8co5
p288
I1
sVda99du0
p289
I1
sVdhomfkt
p290
I2
sVcyvhoua
p291
I1
sVd4y81fm
p292
I1
sVd2wkx29
p293
I1
sVdkp3gf0
p294
I1
sVdfyaflv
p295
I8
sVd1ets1c
p296
I1
sVdie5nhz
p297
I1
sVdao9gpj
p298
I1
sVdhvraes
p299
I1
sVdctr145
p300
I1
sVd85lfj3
p301
I1
sVdhzha7x
p302
I2
sVdgivw2o
p303
I1
sVdd54dog
p304
I1
sVczexqsi
p305
I1
sVd0avg9k
p306
I1
sVdivtube
p307
I1
sVdhpu0lw
p308
I1
sVdcnr0rd
p309
I2
sVdd3ivcn
p310
I2
sVdhp7i9y
p311
I2
sVd7ntx4i
p312
I1
sVczy2xvw
p313
I2
sVdfxpzbr
p314
I1
sVczj19v1
p315
I1
sVd1yo2i6
p316
I1
sVd9pn8lv
p317
I3
sVczzvvmu
p318
I1
sVd6ingaw
p319
I1
sVdhpehod
p320
I1
sVcz2b4x7
p321
I1
sVdb5gi0v
p322
I9
sVdfbg6qv
p323
I2
sVd9rl13n
p324
I1
sVdmvqnk5
p325
I1
sVd0qp5g0
p326
I1
sVdd7467u
p327
I1
sVdcfrh3r
p328
I5
sVdaztla7
p329
I3
sVd9ydjpj
p330
I1
sVcznezof
p331
I1
sVd1dq8ck
p332
I3
sVdaasjmc
p333
I1
sVdhp5s2f
p334
I1
sVdggqt4f
p335
I1
sVd48d37y
p336
I1
sVd1auupv
p337
I2
sVdotfbs2
p338
I1
sVd4k91y6
p339
I2
sVd1ecg4r
p340
I1
sVd2yj1hd
p341
I3
sVd1q3hnc
p342
I2
sVcyvbv7b
p343
I1
sVdn8j040
p344
I8
sVdhvc705
p345
I1
sVczc7uvl
p346
I1
sVdhjrvxx
p347
I2
sVdpvro1m
p348
I8
sVczzv5uy
p349
I1
sVdhppkej
p350
I1
sVdbibi3g
p351
I1
sVdo80ja6
p352
I1
sVdenwzcb
p353
I1
sVd26e70p
p354
I1
sVd2fait1
p355
I2
sVdmeib1h
p356
I3
sVdhgeff5
p357
I1
sVdd6o3qv
p358
I1
sVd9pok7u
p359
I1
sVcz0hb7v
p360
I1
sVd06afjw
p361
I1
sVd1th0m0
p362
I2
sVczhbrsz
p363
I2
sVd1j30nz
p364
I4
sVdhpj51b
p365
I3
sVczj5mwy
p366
I7
sVcylj2jj
p367
I3
sVd36qv76
p368
I1
sVdhwtb4e
p369
I1
sVdjeoh2w
p370
I5
sVd9ytni1
p371
I1
sVd3pbraa
p372
I1
sVdkfxvo2
p373
I1
sVd9yiyd4
p374
I1
sVd71r08s
p375
I1
sVdfnclin
p376
I1
sVczcta96
p377
I1
sVd04qpi7
p378
I1
sVdauhoe1
p379
I1
sVcypodkc
p380
I1
sVd0b6xdc
p381
I2
sVdg70qll
p382
I1
sVdqnho4t
p383
I1
sVd20r5up
p384
I1
sVd1db33t
p385
I1
sVcyqtu6z
p386
I1
sVdh18afp
p387
I2
sVdmpibdd
p388
I1
sVd9xc0l1
p389
I1
sVd7fc2st
p390
I2
sVdhox0lc
p391
I1
sVdflpfk6
p392
I1
sVd7r9x9n
p393
I2
sVd36xj4o
p394
I1
sVdg4r4ve
p395
I2
sVd1pdvnv
p396
I4
sVdgo379j
p397
I1
sVd1h2b6r
p398
I3
sVdrp14o0
p399
I1
sVd8p40zv
p400
I2
sVda93kqb
p401
I1
sVcz6k5un
p402
I1
sVd3c64gh
p403
I1
sVdh8iocu
p404
I1
sVdi0bz4h
p405
I1
sVd1r7l3w
p406
I1
sVdaeotwg
p407
I3
sVd4k0sa3
p408
I4
sVdgrlws3
p409
I4
sVdhpj0gu
p410
I3
sVd4149hv
p411
I1
sVdevlurs
p412
I1
sVda0c75k
p413
I1
sVd23prjt
p414
I1
sVdi3hhgu
p415
I1
sVd34tban
p416
I1
sVddcaphn
p417
I1
sVdfv2one
p418
I1
sVdqtnrfz
p419
I3
sVdibfaq8
p420
I1
sVd9uxq4k
p421
I1
sVcyj2c3x
p422
I3
sVd7rcgd4
p423
I1
sVda1v05u
p424
I1
sVd0hqw7y
p425
I1
sVd0atf6k
p426
I1
sVdga4u8d
p427
I1
sVdbcf533
p428
I1
sVdksa7k5
p429
I1
sVde0t8b6
p430
I3
sVdgqzg7f
p431
I1
sVdgqx4sy
p432
I3
sVdbgvewo
p433
I1
sVd20r31c
p434
I1
sVdbfzmk2
p435
I1
sVcyleu7u
p436
I2
sVcz8iknr
p437
I1
sVd1thpq6
p438
I1
sVd3agc9h
p439
I2
sVdhb7utf
p440
I2
sVdgk4b7b
p441
I1
sVd73069e
p442
I1
sVddi9fne
p443
I2
sVd08orgl
p444
I1
sVdij6oxo
p445
I1
sVdsp8d1c
p446
I1
sVddhrprn
p447
I3
sVdhkjwq3
p448
I1
sVdkxfyhd
p449
I1
sVd20i8vm
p450
I1
sVd1q21cz
p451
I1
sVdptaii6
p452
I2
sVd6pc16y
p453
I1
sVd9atk5r
p454
I2
sVd48ilgi
p455
I1
sVd040n79
p456
I1
sVd54qdo6
p457
I1
sVd4a4q9j
p458
I1
sVcywjls8
p459
I1
sVd52i70o
p460
I1
sVd0tenmn
p461
I1
sVcz0i6ps
p462
I1
sVd9vf0va
p463
I2
sVcziydp0
p464
I1
sVd2g5o76
p465
I1
sVd48d0cd
p466
I2
sVdayvl6z
p467
I1
sVd9yi8lz
p468
I3
sVdcrbgff
p469
I1
sVd5e7ncd
p470
I1
sVd2p1433
p471
I1
sVdjmvwz5
p472
I1
sVczpyhso
p473
I1
sVd2g6f0k
p474
I3
sVdhlpr6a
p475
I1
sVd367obp
p476
I1
sVdhpfwrn
p477
I3
sVczizjrs
p478
I3
sVd1d355x
p479
I1
sVd07l69t
p480
I1
sVdknzp0o
p481
I2
sVdd9hhmi
p482
I1
sVdq79np8
p483
I2
sVd9twsms
p484
I1
sVdddduuf
p485
I1
sVdrp11cq
p486
I1
sVdazb6wy
p487
I1
sVd2a4sxx
p488
I1
sVdklg0nm
p489
I1
sVd45mtqz
p490
I3
sVdhpcga7
p491
I3
sVd2g61gr
p492
I2
sVdgrtwor
p493
I1
sVdcr8fn2
p494
I1
sVderc7ku
p495
I1
sVd5yk8wx
p496
I1
sVd07733j
p497
I2
sVd03qarn
p498
I1
sVd7c2m1h
p499
I1
sVd45l25h
p500
I1
sVdbgtw4w
p501
I1
sVd9za5mb
p502
I1
sVd81i1kl
p503
I3
sVdjekbix
p504
I3
sVd7v2pzh
p505
I2
sVdirs3sx
p506
I2
sVd8q772j
p507
I1
sVdhpteep
p508
I4
sVcz6ucr5
p509
I2
sVd22t40j
p510
I1
sVdkvpvv4
p511
I1
sVdf2jqsp
p512
I1
sVd9xsqe1
p513
I4
sVdhpp0m8
p514
I1
sVd9uijgo
p515
I1
sVdfme41c
p516
I1
sVd09ml4x
p517
I2
sVdkxtcpg
p518
I2
sVd1chqum
p519
I1
sVd2gt07l
p520
I1
sVdaes52a
p521
I1
sVcyjtrst
p522
I1
sVdizewaq
p523
I5
sVd2irj8e
p524
I1
sVdie1tu6
p525
I2
sVdejaiqo
p526
I1
sVdic88jb
p527
I1
sVd5rldhf
p528
I1
sVd615ff0
p529
I2
sVcypouso
p530
I1
sVdml5zdh
p531
I1
sVdqu1zmh
p532
I2
sVdkuavax
p533
I2
sVd0tjzd7
p534
I1
sVd9wztoe
p535
I1
sVdidu9pm
p536
I4
sVd1ksxwk
p537
I1
sVcysl0ol
p538
I1
sVd6inn8v
p539
I2
sVdie3dvo
p540
I1
sVdggrn80
p541
I1
sVd314q3s
p542
I1
sVcyzdff0
p543
I1
sVdfue8kh
p544
I2
sVczahegl
p545
I1
sVd948j7c
p546
I1
sVdjffrbc
p547
I1
sVdim10l1
p548
I1
sVdfz7gpl
p549
I1
sVdffdalc
p550
I1
sVcyq3km2
p551
I2
sVdelky3s
p552
I1
sVdglwp1z
p553
I1
sVdnaypvi
p554
I1
sVdn4ajfy
p555
I1
sVdbh6ff9
p556
I1
sVdhvi3vf
p557
I3
sVdhaw35g
p558
I1
sVde0t28d
p559
I1
sVdceswyo
p560
I1
sVd175u2y
p561
I3
sVd0nh90o
p562
I4
sVds7fnxd
p563
I1
sVdhtgzc5
p564
I2
sVdi92srw
p565
I1
sVdd3j9x4
p566
I2
sVcz2cefl
p567
I1
sVdtbfzp9
p568
I1
sVd5yrmbi
p569
I1
sVd26p63q
p570
I3
sVdmtixjn
p571
I1
sVddth50x
p572
I1
sVdpvqh0z
p573
I1
sVd2g5r80
p574
I1
sVd413yrx
p575
I1
sVd9y8wb1
p576
I1
sVd9y946b
p577
I1
sVd1atnhf
p578
I3
sVczkuign
p579
I6
sVcywgiwt
p580
I1
sVdhp85e6
p581
I1
sVdhcgj8u
p582
I3
sVdo3y647
p583
I1
sVd48e4rf
p584
I1
sVd0ubk54
p585
I1
sVdctxjkj
p586
I1
sVdbsfx4d
p587
I1
sVdduhztu
p588
I1
sVd01cgh2
p589
I1
sVd2gikdd
p590
I2
sVdii2tzr
p591
I1
sVcz6q8n4
p592
I1
sVd3abcv6
p593
I1
sVd8swx11
p594
I1
sVd14qi3g
p595
I1
sVcz0jkyf
p596
I1
sVd6bc02g
p597
I1
sVcz8dy1f
p598
I1
sVd9ydsos
p599
I1
sVdhph9vv
p600
I3
sVdhvhefm
p601
I4
sVdbrnzju
p602
I1
sVdjuoh3a
p603
I1
sVd1kw5hu
p604
I2
sVd7l6dr9
p605
I1
sVda089tq
p606
I2
sVd3k9o3l
p607
I2
sVczhqa1s
p608
I1
sVd39j7il
p609
I1
sVdilqqxy
p610
I1
sVdhpjhyw
p611
I1
sVddq0hjj
p612
I1
sVdg4n2ae
p613
I2
sVdbj9lrt
p614
I1
sVczhn5tx
p615
I1
sVd803oiu
p616
I1
sVd9wcu68
p617
I1
sVd1pcc0p
p618
I1
sVd10m0ym
p619
I2
sVda7ntvg
p620
I1
sVd82gf3u
p621
I1
sVdhoklif
p622
I1
sVdeyn1le
p623
I1
sVdhowyoz
p624
I2
sVdjbcnbb
p625
I1
sVd31t3l9
p626
I1
sVdgzqg8v
p627
I1
sVd17608q
p628
I2
sVczcqhx8
p629
I6
sVdfvpjvf
p630
I1
sVdiduskw
p631
I3
sVdkxo89o
p632
I1
sVdfq430j
p633
I1
sVd7r9gfa
p634
I1
sVdhp7baf
p635
I1
sVczpcqip
p636
I1
sVd4668ji
p637
I5
sVda4z97g
p638
I1
sVcyqa5ji
p639
I1
sVdexfm1u
p640
I1
sVczc0u6t
p641
I3
sVczj4ra9
p642
I3
sVd5w3no8
p643
I3
sVdmzvr1t
p644
I1
sVdnq54x0
p645
I1
sVd17hg8d
p646
I2
sVdako193
p647
I1
sVd0emkv8
p648
I1
sVdasbg5p
p649
I1
sVdc8xngw
p650
I2
sVd62a4zc
p651
I1
sVd1ql9kw
p652
I1
sVd482ed9
p653
I1
sVdha0rze
p654
I1
sVdhpdhzd
p655
I2
sVd0ko0pd
p656
I1
sVcz9gyu2
p657
I3
sVd1ks5sv
p658
I3
sVdd3p7kz
p659
I2
sVdij24es
p660
I2
sVd48hrwx
p661
I2
sVd2bdhqm
p662
I1
sVdsmvaui
p663
I1
sVd48cpvw
p664
I3
sVdhg5pib
p665
I1
sVd2srn1i
p666
I1
sVdh17rjb
p667
I1
sVd6h91ql
p668
I1
sVd9nkmr9
p669
I1
sVd3amomn
p670
I1
sVdiqmbla
p671
I1
sVczyuxuh
p672
I1
sVd1wy0ty
p673
I2
sVczktzv3
p674
I5
sVdhp16wf
p675
I1
sVdgbg15r
p676
I1
sVdbsfie5
p677
I1
sVd5cxigm
p678
I1
sVd2gnlho
p679
I2
s.