(dp0
Vd2r4bo1
p1
I1
sVd23i0o2
p2
I1
sVczasciv
p3
I1
sVdskz8p5
p4
I1
sVcyijnl2
p5
I1
sVdk2jpf2
p6
I1
sVd0wj61g
p7
I1
sVdcu1kd0
p8
I4
sVcytxf1x
p9
I2
sVdeajm4a
p10
I1
sVd5rbjb3
p11
I1
sVd12cr13
p12
I1
sVdivgllk
p13
I1
sVczi2e2g
p14
I1
sVdn23d1o
p15
I3
sVdqdu4o3
p16
I1
sVd04ay1a
p17
I2
sVdn25323
p18
I1
sVd0km30d
p19
I1
sVd93asa4
p20
I1
sVd3m5yh5
p21
I1
sVd19fulw
p22
I2
sVdjeya9f
p23
I2
sVdctx1wv
p24
I3
sVdi8nsk0
p25
I1
sVd080j9s
p26
I1
sVczyt8kx
p27
I1
sVdggjc75
p28
I1
sVd1jfztx
p29
I1
sVddd5ccp
p30
I1
sVd5l3t1q
p31
I2
sVd1dcg8f
p32
I1
sVdqbf036
p33
I1
sVcyi1g32
p34
I1
sVd20gml0
p35
I1
sVd0mps5o
p36
I1
sVd7cojb9
p37
I1
sVdicrt87
p38
I5
sVd01mas5
p39
I2
sVdese6e7
p40
I1
sVd2jqp08
p41
I1
sVd8hys29
p42
I1
sVd13nolp
p43
I3
sVczuxfb4
p44
I1
sVdjg2jn5
p45
I2
sVczuxixh
p46
I1
sVdgypkt4
p47
I3
sVd2ur3fd
p48
I3
sVczbmngt
p49
I2
sVd5h0xk3
p50
I1
sVd3m0rxc
p51
I1
sVczfq1uv
p52
I2
sVdqhv9i7
p53
I1
sVd20v67i
p54
I1
sVd2i6fvy
p55
I1
sVdcu54vg
p56
I23
sVd01ay65
p57
I4
sVdcau5ay
p58
I1
sVdq0444f
p59
I1
sVd2705ot
p60
I1
sVd2cmcbg
p61
I1
sVdpjldw1
p62
I1
sVdkz0k5f
p63
I1
sVczg3ale
p64
I4
sVd8b1cwq
p65
I1
sVd2be3m3
p66
I1
sVdfodfmb
p67
I1
sVd4qvg85
p68
I1
sVd2vzq08
p69
I1
sVd61orf4
p70
I1
sVczurlsb
p71
I1
sVd0hii9c
p72
I1
sVd20g790
p73
I3
sVdgykiix
p74
I1
sVdgyhyiv
p75
I2
sVd8z5lo1
p76
I1
sVdrbac9j
p77
I1
sVd8wjyac
p78
I1
sVd9fmfz5
p79
I1
sVd1atnhf
p80
I2
sVdf7zqbu
p81
I1
sVd0whcjn
p82
I1
sVdn24vn4
p83
I3
sVd2ctzgq
p84
I1
sVd68u6y6
p85
I2
sVd9lsygb
p86
I1
sVdblryjp
p87
I3
sVczfpq93
p88
I1
sVd3oimwt
p89
I2
sVdn245go
p90
I3
sVd33zr8p
p91
I1
sVday8r52
p92
I2
sVdn21yzh
p93
I1
sVdey8kce
p94
I1
sVdtfw2uz
p95
I2
sVda0r0do
p96
I1
sVd1r8cq5
p97
I1
sVd01gdl0
p98
I1
sVdb7cd95
p99
I1
sVczg38lf
p100
I1
sVdicp1ad
p101
I2
sVczon794
p102
I2
sVd2r4d9x
p103
I3
sVczsw90s
p104
I1
sVczuxftz
p105
I1
sVd32cvr6
p106
I1
sVdd8qyql
p107
I1
sVd9f0lf3
p108
I2
sVda3tpg4
p109
I1
sVczedbmk
p110
I1
sVdfbogus
p111
I1
sVd19kscw
p112
I1
sVd3gu4th
p113
I1
sVdd1shk7
p114
I1
sVdmooxz6
p115
I1
sVcz1on32
p116
I1
sVd66wjw5
p117
I1
sVd61dv8b
p118
I1
sVcykg0yc
p119
I1
sVd0p89ka
p120
I2
sVd30k643
p121
I1
sVd4987pm
p122
I1
sVd6elqtg
p123
I1
sVd59tq51
p124
I1
sVdays9cy
p125
I3
sVds9ca8c
p126
I1
sVd1p25a0
p127
I2
sVdpi6igz
p128
I5
sVdisn55p
p129
I1
sVd04bacy
p130
I9
sVd9vx96j
p131
I1
s.