(dp0
Vdii1dpa
p1
I1
sVdewpkww
p2
I2
sVczyeskr
p3
I1
sVd3yaqh2
p4
I1
sVd334606
p5
I1
sVd8mx8ng
p6
I1
sVdhtq5v6
p7
I1
sVddaorv4
p8
I1
sVdgt7pu9
p9
I1
sVdnyqt0p
p10
I2
sVd31ams7
p11
I1
sVdky2bvn
p12
I1
sVd9qyc1d
p13
I1
sVdt7zb96
p14
I1
sVdr7c98p
p15
I1
sVdk971d7
p16
I1
sVd6healb
p17
I1
sVdk1wfgf
p18
I1
sVdnminv3
p19
I1
sVdajd7d7
p20
I1
sVd2tu3jl
p21
I1
sVczzsjyt
p22
I1
sVdrzplau
p23
I1
sVd2yjihp
p24
I1
sVd452bjq
p25
I1
sVdisbim7
p26
I1
sVdmko61w
p27
I1
sVd6tps3i
p28
I1
sVd39umeu
p29
I1
sVcztd3kp
p30
I1
sVdp02nss
p31
I1
sVdkwk4ei
p32
I1
sVdn6qidv
p33
I1
sVd87f02l
p34
I1
sVd4eild8
p35
I2
sVdcvpmn5
p36
I1
sVdsdyw7n
p37
I1
sVdpaijeq
p38
I1
sVd7qwkjl
p39
I1
sVd664kpd
p40
I1
sVdiiy5zc
p41
I1
sVdihwhkc
p42
I2
sVdnfd4z9
p43
I1
sVdii09qo
p44
I2
sVd0azzhu
p45
I1
sVd287kre
p46
I1
sVdbttazf
p47
I1
sVd64ybaj
p48
I2
sVd4juywv
p49
I1
sVde6wola
p50
I1
sVdmtdp91
p51
I1
sVd2eduu2
p52
I1
sVczzrk66
p53
I1
sVd8nhcfo
p54
I1
sVdjh5q8j
p55
I1
sVdk2h4if
p56
I1
sVdfa3z6q
p57
I1
sVdjlbb04
p58
I1
sVd83wbwx
p59
I1
sVdihwhy9
p60
I1
sVddaqma7
p61
I1
sVdan6m7u
p62
I1
sVdre2zew
p63
I1
sVd563wjx
p64
I1
sVd06wzte
p65
I1
sVdfdqeit
p66
I1
sVdimzsbq
p67
I1
sVd4104lz
p68
I1
sVd6p8d00
p69
I1
sVcyud3gb
p70
I1
sVdira81m
p71
I1
sVddapjyc
p72
I2
sVddaonqh
p73
I1
sVdj6vzli
p74
I1
s.