(dp0
Vdptsjiv
p1
I1
sVd2pxngz
p2
I1
sVdneo4bg
p3
I1
sVde5udtc
p4
I1
sVd7y6a0h
p5
I1
sVdp9nflk
p6
I1
sVd3yn2es
p7
I1
sVdt2h1vj
p8
I1
sVd14pgu6
p9
I1
sVd7y7qgm
p10
I1
sVd58bpo9
p11
I1
sVdne68rl
p12
I1
sVd7yl68p
p13
I2
sVczyhpqp
p14
I1
sVd7ykuq3
p15
I1
sVdb03hjn
p16
I1
sVdjdls1f
p17
I1
sVd3vns7r
p18
I1
sVd008z2p
p19
I1
sVd7qd26s
p20
I1
sVdpnwscb
p21
I1
sVdmyd0gp
p22
I1
sVd09erzn
p23
I1
s.