(dp0
Vdr1fq0s
p1
I1
sVdgh0mxq
p2
I1
sVd6260v8
p3
I2
sVd33lpo8
p4
I1
sVddibk82
p5
I1
sVdcy2jiu
p6
I1
sVd73suv2
p7
I1
sVd629ghn
p8
I1
sVdnq8gjz
p9
I1
sVdheoi62
p10
I1
sVd9ff5r3
p11
I1
sVd0q1s4s
p12
I1
sVdjb61wf
p13
I1
sVdofp4tl
p14
I1
sVd7budue
p15
I1
sVdc5ka88
p16
I1
sVdk6ri52
p17
I1
sVcyojpp1
p18
I1
sVd9x5nw4
p19
I1
sVd7yo7d4
p20
I1
sVdiomvnx
p21
I1
sVdcw9ywr
p22
I1
sVd15lut2
p23
I1
sVdhdu8u6
p24
I1
sVdjwff2y
p25
I1
sVd32c43o
p26
I1
sVd4z3qno
p27
I1
sVdf66lxp
p28
I1
sVd1sawni
p29
I1
sVdcm1gmo
p30
I1
sVds0d7jh
p31
I1
sVdihau6o
p32
I1
sVdfiljn4
p33
I1
sVdpacd70
p34
I1
sVd85j7cb
p35
I1
sVd8dqyyf
p36
I1
sVdbmlkkd
p37
I1
sVdcg50pa
p38
I1
sVdjn9fwx
p39
I1
sVd6nm509
p40
I1
sVd6idtuq
p41
I1
sVd0mr5kc
p42
I1
sVd27hccf
p43
I1
sVdc42nwq
p44
I1
sVd2nyuw3
p45
I1
sVdah853d
p46
I1
sVczwzdbx
p47
I1
sVdp8jrs1
p48
I1
sVdpyxunv
p49
I1
sVczms8v7
p50
I1
sVd5smqyc
p51
I1
sVdeni5k0
p52
I1
sVdexdre9
p53
I1
sVcz5w2c0
p54
I1
sVdmtwpga
p55
I1
sVdoths73
p56
I2
sVd6v4mvo
p57
I1
sVd3gvj6v
p58
I1
sVdble5a1
p59
I2
sVd42y0ys
p60
I1
sVd3yacsp
p61
I1
sVd4gi55v
p62
I1
sVd00khd0
p63
I1
sVd4fiih0
p64
I1
sVd5gudjz
p65
I1
sVd7kauuc
p66
I1
sVds6d8v0
p67
I1
sVd2cpas7
p68
I1
sVd3xuees
p69
I1
sVd3ujr1j
p70
I2
sVcyv0ye2
p71
I1
sVde0efzn
p72
I1
sVdj7r4u2
p73
I1
sVd34qxt7
p74
I1
sVd9mv1cr
p75
I1
sVd4a1gmr
p76
I1
sVd1jpnhe
p77
I1
sVd0cjms3
p78
I1
sVd9n3ofh
p79
I1
sVd0sou8l
p80
I1
sVd0fnani
p81
I2
sVd89l1es
p82
I1
sVdhjo0lz
p83
I1
sVdagcg7g
p84
I1
sVd7n9w6k
p85
I1
sVd9x5ubj
p86
I1
sVd8i4n2a
p87
I1
sVd2u4trv
p88
I1
sVdeu1qiv
p89
I1
sVd0o27b1
p90
I1
sVd10sgu9
p91
I1
sVd5x2we3
p92
I1
sVcylj13x
p93
I2
sVdpacmil
p94
I2
sVd0706xd
p95
I1
sVd3xhocr
p96
I1
sVdasru5k
p97
I1
sVderh9vt
p98
I1
sVdjlbccv
p99
I1
sVdcoqnz2
p100
I1
sVdr5v5aq
p101
I1
sVd0ne749
p102
I1
sVd58k8nu
p103
I1
sVdidya1f
p104
I1
sVdbyaqvq
p105
I1
sVd60p9s6
p106
I1
sVd16ei96
p107
I1
sVdd3fitr
p108
I1
sVdobe5is
p109
I1
sVd7mai1p
p110
I1
sVczge2lt
p111
I1
sVd11t7yt
p112
I1
sVdcaruml
p113
I1
sVdh78n2t
p114
I2
sVd4kgz6o
p115
I1
sVd1ahbio
p116
I2
sVd1ymz53
p117
I1
sVdgqny2k
p118
I1
sVczfptal
p119
I1
sVd1kuiop
p120
I1
sVdgevplc
p121
I1
sVd3odgkg
p122
I1
sVdddikkv
p123
I1
sVcz1cv2y
p124
I1
sVd2njgiy
p125
I2
sVd8uvzf9
p126
I1
sVdeqdgnv
p127
I1
sVdaq1gjx
p128
I1
sVddutvlr
p129
I1
sVd7remaz
p130
I2
sVczb3ha1
p131
I1
sVdc07y2v
p132
I1
sVdqo7mh4
p133
I2
sVd9ithtd
p134
I1
sVd6nlpif
p135
I1
sVd81iqlu
p136
I1
sVdf4btg2
p137
I1
sVdobtx1j
p138
I1
sVdcqu4jh
p139
I1
sVd3vsz62
p140
I1
sVdbn5d4i
p141
I1
sVdgt5csc
p142
I1
sVcyrsefr
p143
I1
sVddggmkp
p144
I1
sVdf5eo8g
p145
I1
sVdd3bhhs
p146
I1
sVd8701rm
p147
I2
sVd1li1o2
p148
I2
sVdijaowa
p149
I1
sVddofipv
p150
I1
sVdiy9ooz
p151
I3
sVd8fgb1m
p152
I1
sVd341mmm
p153
I1
sVd70lltd
p154
I1
sVd792xa6
p155
I1
sVdhn2etw
p156
I1
sVdnyiyf3
p157
I1
sVd17qvm0
p158
I1
sVd4ahrjq
p159
I1
sVddvviln
p160
I1
sVd2ts2vn
p161
I1
sVcymn2pf
p162
I1
sVdk964a0
p163
I1
sVdhluzcf
p164
I1
sVczgr3wb
p165
I1
sVdexkro7
p166
I1
sVdfwy3k1
p167
I1
sVdn4xhl2
p168
I1
sVdpq4m0d
p169
I1
sVda9kdmo
p170
I2
sVd2xdosw
p171
I1
sVdaa5q8i
p172
I1
sVd2emmz4
p173
I1
sVdid3dbn
p174
I1
sVd5dua55
p175
I1
sVdhm9lqx
p176
I1
sVdooiw7u
p177
I1
sVdgv9me3
p178
I1
sVdaa3xkh
p179
I1
sVdnbzc13
p180
I1
sVcz2uvc3
p181
I1
sVd659l5y
p182
I1
sVczftc0g
p183
I1
sVdfq1a3j
p184
I1
sVczd26m9
p185
I1
sVd9mtmee
p186
I1
sVd141jh5
p187
I1
sVd67li92
p188
I1
sVd0f27g6
p189
I1
sVdjszdol
p190
I1
sVd2e3pwy
p191
I1
sVd09hck3
p192
I1
sVde3j4ah
p193
I1
sVd0es8l0
p194
I1
sVcz9683n
p195
I1
sVd9p51m6
p196
I1
sVdh2t8mr
p197
I1
sVdkvpqpx
p198
I1
sVd23t0bq
p199
I1
sVczwft1n
p200
I1
sVdkpof48
p201
I1
sVdn5fp9s
p202
I1
sVd18mite
p203
I1
sVd6dwmfx
p204
I1
sVdhiznsp
p205
I1
sVdmqanc9
p206
I1
sVdsobz99
p207
I1
sVd2698ht
p208
I1
sVd1rwo4y
p209
I1
sVdewbxp8
p210
I2
sVczzyfpp
p211
I1
sVdk9yr1y
p212
I2
sVd31zfqm
p213
I1
sVd0318a7
p214
I1
sVdfvhgfg
p215
I1
sVddwmtqj
p216
I1
sVdrnwcp2
p217
I1
sVdetoak0
p218
I1
sVd20rg72
p219
I1
sVdnqutrl
p220
I1
sVdf3r662
p221
I1
sVdensn20
p222
I2
sVdgr74ff
p223
I1
sVdqp8huk
p224
I1
sVd7urjjr
p225
I1
sVdstorq6
p226
I1
sVdgsybq1
p227
I1
sVd6z836e
p228
I1
sVd0p5roo
p229
I1
sVdan1bfy
p230
I1
sVd69x7j2
p231
I2
sVdqkq8vf
p232
I1
sVdoegpeb
p233
I1
sVd342hr6
p234
I1
sVdg2b1gz
p235
I1
sVdiwglqc
p236
I1
sVdfjugzy
p237
I1
sVdpok5nd
p238
I1
sVcyrg0df
p239
I1
sVd44752l
p240
I1
sVd2m7jzs
p241
I1
sVdbop2up
p242
I1
sVda1gzmq
p243
I1
sVd7sn6hb
p244
I1
sVd2zza60
p245
I1
sVd1dk45w
p246
I1
sVd06cmbf
p247
I1
sVd71jwu9
p248
I1
sVdpnawdi
p249
I1
sVdqllx58
p250
I1
sVd85p05m
p251
I1
sVd8c27za
p252
I1
sVdajn0v8
p253
I1
sVdfhwpf8
p254
I1
sVd1tt0eh
p255
I1
sVd16n2gn
p256
I1
sVdbdeloa
p257
I1
sVd0cvw2l
p258
I1
sVd4n1czm
p259
I2
sVdeclnnx
p260
I1
sVd5ug6ir
p261
I1
sVd6iqx1l
p262
I2
sVderi644
p263
I1
sVd4gkq9g
p264
I1
sVd9mrqpc
p265
I1
sVd0bd6nr
p266
I1
sVd2q16xl
p267
I1
sVdbh745q
p268
I1
sVdf927ah
p269
I1
sVd1r6qqd
p270
I1
sVd03q9pu
p271
I1
sVdilgh1c
p272
I1
sVd40rq2o
p273
I1
sVdc2rpfr
p274
I1
sVdc0upfa
p275
I1
sVcyvcv1j
p276
I1
sVdbiqikp
p277
I1
sVdcuygtq
p278
I1
sVdg4vr28
p279
I1
sVdbhvk42
p280
I1
sVdgzlp5f
p281
I1
sVdh12dst
p282
I1
sVdovot1r
p283
I1
sVdkk9j2m
p284
I1
sVd2rdxkn
p285
I1
sVdmks5g3
p286
I1
sVdg7b0zs
p287
I1
sVdoj72zb
p288
I1
sVdqmn4ly
p289
I1
sVcywk023
p290
I1
sVdc0u2jt
p291
I1
sVd9c32fj
p292
I2
sVda3eq2r
p293
I2
sVdenyudo
p294
I1
sVdaynj85
p295
I1
sVd5u0ax5
p296
I1
sVd8cf4a3
p297
I1
sVdn5bylp
p298
I1
sVdkiuwfl
p299
I1
sVdgkkkyn
p300
I1
sVdgp8yuw
p301
I3
sVd0yqfe4
p302
I1
sVdd39386
p303
I1
sVd29hw6n
p304
I1
sVdgjwmdq
p305
I1
sVd42xlts
p306
I1
sVdf9td3x
p307
I1
sVd79mcpp
p308
I1
sVdhjwnft
p309
I1
sVdnrc4m3
p310
I1
sVdj4dr5q
p311
I1
sVdfjop5w
p312
I1
sVcza15y5
p313
I1
sVd1ky1w8
p314
I1
sVd2hx2kk
p315
I2
sVdaqkbxo
p316
I1
sVde32hia
p317
I1
sVd6ni1zg
p318
I1
sVd7mfr96
p319
I1
sVd4z59f6
p320
I1
sVdc3fgws
p321
I1
sVdmse868
p322
I1
sVdjqupwl
p323
I1
sVd3tn1pt
p324
I1
sVd0jw2f2
p325
I1
sVdepl4t5
p326
I1
sVdbt2s3q
p327
I1
sVddpgvej
p328
I1
sVdpfmh7q
p329
I2
sVd38zga8
p330
I2
sVdjrkxvx
p331
I1
sVde0nl7q
p332
I1
sVcyso1je
p333
I1
sVdbg77wl
p334
I1
sVdrjtoqa
p335
I1
sVd3mmkwa
p336
I7
sVd1e28on
p337
I1
sVddgwoar
p338
I1
sVdmj3059
p339
I1
sVd28yve1
p340
I1
sVdg9fya3
p341
I1
sVdiajbld
p342
I1
sVcyjon6k
p343
I1
sVd4x08cg
p344
I1
sVdg3k7vf
p345
I1
sVd73xo4b
p346
I1
sVczcwmh8
p347
I1
sVd2quqhb
p348
I1
sVddprxnx
p349
I4
sVdaucuqf
p350
I1
sVd6vx4y7
p351
I1
sVda1x4c0
p352
I1
sVcz414jm
p353
I1
sVdcl262v
p354
I1
sVdaiuq7a
p355
I1
sVda8sdaz
p356
I1
sVdo0823q
p357
I1
sVcyw1wl1
p358
I1
sVdgpqyrl
p359
I1
sVczoylte
p360
I1
sVdjpxf4v
p361
I1
sVd85rylv
p362
I1
sVd2ugk23
p363
I1
sVd9x0oy8
p364
I1
sVdf92z6n
p365
I1
sVd8turg4
p366
I1
sVd87jz5v
p367
I1
sVdcscs1s
p368
I1
sVde29bqp
p369
I1
sVdcy6og9
p370
I2
sVdb9mt3e
p371
I1
sVd5jb4rd
p372
I1
sVdbz4n6k
p373
I1
sVd2adj89
p374
I1
sVd8ek67h
p375
I1
sVczt8gdh
p376
I1
sVdsc7hhz
p377
I1
sVd1uyp3h
p378
I2
sVd5i0bb4
p379
I1
sVdq8e1z4
p380
I1
sVdcvsmyt
p381
I1
sVd0sosnq
p382
I1
sVd3syjlf
p383
I1
sVd2wmikr
p384
I1
sVdo1uogj
p385
I1
sVd4mmony
p386
I2
sVdhhh9fg
p387
I1
sVddol021
p388
I1
sVdaz1lru
p389
I1
sVd5rvlev
p390
I1
sVdil89ec
p391
I1
sVd2vm0m5
p392
I1
sVd9v6r8e
p393
I1
sVczt6w3b
p394
I1
sVd74e4sz
p395
I1
sVdihe7ow
p396
I1
sVdj4hudg
p397
I1
sVddna3s0
p398
I1
sVd3j3xth
p399
I1
sVdhpt7xx
p400
I1
sVdr31rxa
p401
I1
sVd6c5wbc
p402
I2
sVdpvx759
p403
I1
sVd386cqw
p404
I1
sVd72s1c0
p405
I1
sVdg0h7jr
p406
I1
sVdhsy933
p407
I2
sVde3uwqu
p408
I1
sVdjn3s4c
p409
I1
sVdi5fiq8
p410
I1
sVdruevqx
p411
I1
sVdc3jpvy
p412
I1
sVdaeve1r
p413
I1
sVdci442u
p414
I1
sVdaou6h5
p415
I1
sVd0qhv80
p416
I1
sVdn0bb75
p417
I2
sVd1z4e9h
p418
I2
sVdpae8j6
p419
I2
sVdimv4nc
p420
I1
sVdf3jy78
p421
I1
sVdqgs3lb
p422
I1
sVdgf62gs
p423
I1
sVd3rgrwf
p424
I1
sVdiumpyu
p425
I1
sVd65jaur
p426
I1
sVd5zj3sm
p427
I1
sVdf30f00
p428
I1
sVcz1noh7
p429
I1
sVdq75kli
p430
I1
sVdh7hrdu
p431
I1
sVd4gish9
p432
I1
sVd8sacg2
p433
I1
sVd27lox4
p434
I1
sVd7xhewt
p435
I1
sVdbqc2e5
p436
I1
sVdfhe1ib
p437
I2
sVdge9sr8
p438
I1
sVd4mou5q
p439
I2
sVd1o0tuq
p440
I1
sVdbrzxkm
p441
I1
sVdptnc5u
p442
I1
sVdahay8s
p443
I1
sVdcc0foy
p444
I1
sVd0i30nt
p445
I1
sVcyx30os
p446
I1
sVd081jyt
p447
I1
sVddcmq21
p448
I1
sVddzgw8v
p449
I1
sVczls9uh
p450
I1
sVd0yxj3o
p451
I1
sVd3mnm1y
p452
I1
sVdimfmqq
p453
I1
sVd482ztr
p454
I1
sVdiu8i84
p455
I1
sVcyjuw6r
p456
I1
sVdgaekef
p457
I4
sVdqccdhr
p458
I1
sVdpt96qo
p459
I1
sVddc4i8y
p460
I1
sVd1lidvr
p461
I1
sVddwp3si
p462
I1
sVd4b888s
p463
I1
sVdnewwu6
p464
I1
sVd1gxi2o
p465
I1
sVdcbhoh3
p466
I1
sVczcl2q2
p467
I1
sVdglfd6a
p468
I1
sVdhj0roo
p469
I1
sVdmuo92y
p470
I1
sVdfvgqca
p471
I1
sVdan6a20
p472
I1
sVd9krubn
p473
I2
sVd7a0ce9
p474
I3
sVd1xqkrq
p475
I1
sVd778afi
p476
I1
sVd78mrgb
p477
I1
sVdmo25u6
p478
I1
sVdaq59i3
p479
I1
sVdp7mpe0
p480
I1
sVdhdkc38
p481
I1
sVcz5c7hg
p482
I2
sVd9d0m93
p483
I1
sVdbdt9gb
p484
I1
sVdc0thf8
p485
I1
sVddi6h9b
p486
I1
sVdp8yvg8
p487
I1
sVd6tb12u
p488
I1
sVd9p1yb1
p489
I1
sVd3i7k04
p490
I1
sVcyqvnd9
p491
I1
sVd48k2jq
p492
I1
sVd9zazb0
p493
I1
sVd0i4stj
p494
I1
sVdr323q9
p495
I1
sVd4t6pez
p496
I1
sVdob4e10
p497
I1
sVdg27k2m
p498
I1
sVd6co3kk
p499
I1
sVd6z3otl
p500
I1
sVd6skq1m
p501
I1
sVd8anqeu
p502
I1
sVd1gfixx
p503
I1
sVdo4m2bs
p504
I2
sVd35no3l
p505
I1
sVdepab6o
p506
I1
sVdkucwdf
p507
I1
sVd72po1m
p508
I1
sVdccvnuh
p509
I1
sVd4gx2wh
p510
I1
sVdjokwtf
p511
I2
sVdfdhtkm
p512
I1
sVczdi2nn
p513
I1
sVdig3zth
p514
I1
sVd3orzu1
p515
I1
sVdj2fq05
p516
I1
sVd2je0t5
p517
I1
sVdbzge3e
p518
I1
sVd2nlt9d
p519
I1
sVdkz0y6i
p520
I1
sVdc4babc
p521
I1
sVd27pha4
p522
I1
sVddr2bf9
p523
I2
sVdnddpzt
p524
I2
sVddcnev9
p525
I1
sVdexj06u
p526
I1
sVde6sdbr
p527
I1
sVdb0fy7s
p528
I2
sVdo8miq5
p529
I1
sVdfqoiwt
p530
I1
sVd20dpae
p531
I2
sVcywseiv
p532
I1
sVdg93d9p
p533
I1
sVdeku6ds
p534
I1
sVdt4vsrq
p535
I1
sVczmc36r
p536
I1
sVd9vba8w
p537
I1
sVdh7rq8r
p538
I1
sVdbpwin7
p539
I1
sVdqxryoe
p540
I1
sVczh3ntq
p541
I1
sVdcuehtn
p542
I1
sVdbdt708
p543
I1
sVd62ncd2
p544
I1
sVdcrx269
p545
I1
sVdb0ynf3
p546
I1
sVd5zyoqe
p547
I1
sVdaljyy3
p548
I1
sVdoe7pzm
p549
I1
sVd0xqub8
p550
I1
sVdjahae0
p551
I1
sVdjdgj12
p552
I1
sVd389cii
p553
I1
sVd0n9n0e
p554
I1
sVdcw7j3e
p555
I1
sVdhnt3a9
p556
I1
sVd61qb9s
p557
I1
sVd72gelr
p558
I1
sVd3b9n6v
p559
I1
sVd8eyirh
p560
I1
sVd6elzcx
p561
I1
sVdeunxqe
p562
I1
sVd1pcbpq
p563
I1
sVdgcxty6
p564
I1
sVd62latc
p565
I1
sVd7r9x9n
p566
I2
sVdel8uz1
p567
I1
sVd2241q1
p568
I1
sVd82zo76
p569
I1
sVd4fm5b1
p570
I1
sVczf6exi
p571
I1
sVd3nkdre
p572
I1
sVda5v2hk
p573
I1
sVdghnqb5
p574
I1
sVde4dlyh
p575
I1
sVdk4n0xl
p576
I1
sVdqgpxwe
p577
I1
sVd0quq7y
p578
I1
sVd1jrds0
p579
I1
sVdmvn4cn
p580
I2
sVdhkyvp1
p581
I1
sVdeav75x
p582
I1
sVd19uegb
p583
I1
sVdkn9e5q
p584
I1
sVdkegt2h
p585
I1
sVdgt9gls
p586
I1
sVds497bz
p587
I1
sVdcg7qkw
p588
I1
sVdsx132n
p589
I3
sVdcj2ghi
p590
I1
sVd1bp62x
p591
I1
sVd5qkimc
p592
I1
sVdmm3gg1
p593
I1
sVdc2bazt
p594
I1
sVdfj7kgs
p595
I1
sVd1l7a9f
p596
I1
sVdjfen4t
p597
I1
sVdgt9sw8
p598
I1
sVdo6yfr5
p599
I1
sVdcjw6c9
p600
I2
sVdgnu8sc
p601
I1
sVdil8z9n
p602
I1
sVdhc5vzt
p603
I1
sVd0gm3pe
p604
I1
sVd3k995x
p605
I2
sVdfw1kaf
p606
I1
sVdb488c0
p607
I1
sVdf036az
p608
I1
sVd8s01hh
p609
I1
sVdf8kw1j
p610
I1
sVds5hdaz
p611
I1
sVd1j1o2e
p612
I1
sVd10zbid
p613
I1
sVdkeidfd
p614
I1
sVd1pckqm
p615
I1
sVdk35enc
p616
I1
sVd7sf5mh
p617
I1
sVdkg8463
p618
I1
sVd4lm5aq
p619
I1
sVd10p5aj
p620
I1
sVdj944ld
p621
I1
sVd40r5e8
p622
I2
sVczwz9bj
p623
I1
sVd58f12d
p624
I1
sVddbfnp8
p625
I1
sVd5w9dna
p626
I1
sVd9gesgx
p627
I1
sVdjgw36k
p628
I1
sVdixj9yk
p629
I1
sVcza4b5w
p630
I1
sVd0na3z1
p631
I1
sVd8o00jq
p632
I1
sVd7lbbvx
p633
I1
sVcz9pwei
p634
I1
sVdb52a9o
p635
I1
sVdrnosrg
p636
I1
sVdg58omh
p637
I1
sVdqipj0g
p638
I1
sVd4d9hm1
p639
I2
sVdesyvrg
p640
I1
sVd2oth9i
p641
I1
sVdgua4nx
p642
I1
sVdo98scn
p643
I1
sVdflf1bz
p644
I3
sVdefvdbu
p645
I1
sVdgi3tq3
p646
I1
sVdn1ylcd
p647
I1
sVdj4me9w
p648
I1
sVczmakds
p649
I1
sVd66x1d7
p650
I1
sVd2fdacw
p651
I1
sVczmueiq
p652
I2
sVd1e3hne
p653
I1
sVdih086i
p654
I1
sVdb151id
p655
I1
sVd1qm34e
p656
I1
sVdh0qa1o
p657
I1
sVden989h
p658
I1
sVdn309ws
p659
I2
sVdf4gq18
p660
I1
sVdhjnmnk
p661
I1
sVdhmtyor
p662
I1
sVdexgn1v
p663
I1
sVdd8q4dr
p664
I1
sVd85okdu
p665
I1
sVd1nplai
p666
I1
sVd70h6t9
p667
I1
sVdrxemfw
p668
I1
sVdbn6szo
p669
I1
sVd5i2uux
p670
I1
sVczvi0q2
p671
I1
sVdgxxhbi
p672
I1
sVd6da73c
p673
I1
sVd7sxukr
p674
I1
sVdj0zi9e
p675
I1
sVdnxs2vm
p676
I1
sVd27cpj3
p677
I1
sVdmf8u9l
p678
I1
sVd4nury2
p679
I1
sVdj4d1pj
p680
I1
sVdar1ri3
p681
I1
sVd3w5d54
p682
I1
sVdgcb721
p683
I1
sVd65yner
p684
I1
sVd9xscqc
p685
I1
sVd8ym6qb
p686
I1
sVdemdh2o
p687
I1
sVczzdi94
p688
I1
sVdg8n6gn
p689
I1
sVdih3rhq
p690
I1
sVdevs0w1
p691
I1
sVdgfeygc
p692
I1
sVd834o0a
p693
I1
sVd4nc926
p694
I1
sVdcz0r3a
p695
I1
sVd7e6nmm
p696
I1
sVddlxi4s
p697
I2
sVdp5c2pr
p698
I1
sVcyigdtr
p699
I1
sVd3ulg04
p700
I1
sVd69ibuc
p701
I1
sVdtibrqs
p702
I1
sVddhbtww
p703
I1
sVd4h22fl
p704
I1
sVd09jy6t
p705
I1
sVd911f1c
p706
I4
sVdf60nix
p707
I1
sVd147y5s
p708
I2
sVd2q167k
p709
I1
sVd6csaju
p710
I1
sVdjbtuxo
p711
I1
sVd0uqw63
p712
I1
sVcypaz83
p713
I1
sVd82wzvj
p714
I1
sVd6y3zh3
p715
I1
sVd9lukoy
p716
I1
sVdms4z3m
p717
I1
sVdrbvxxg
p718
I1
sVdbsoywa
p719
I1
sVd2rdvvu
p720
I1
sVd1ebmo6
p721
I1
sVdn812n5
p722
I1
sVdejaiqo
p723
I1
sVdgwz0hi
p724
I1
sVczjmgtg
p725
I1
sVdgt0l29
p726
I1
sVd30jn04
p727
I1
sVd3e332m
p728
I1
sVd6a2x7v
p729
I1
sVddv7ppv
p730
I1
sVdpmalgv
p731
I2
sVd2r89hm
p732
I1
sVd24wk9f
p733
I1
sVd3kmty6
p734
I1
sVdhtdoam
p735
I1
sVdonapg5
p736
I1
sVd131poe
p737
I1
sVcz2nl3x
p738
I1
sVd31gcsv
p739
I1
sVd98lz62
p740
I1
sVd19gbgd
p741
I1
sVdgr9epf
p742
I2
sVddg2t8t
p743
I1
sVdqexrac
p744
I1
sVda1y1fw
p745
I1
sVdjb7i7b
p746
I1
sVd37m3cw
p747
I1
sVdgvpod7
p748
I1
sVddwine9
p749
I1
sVd5fjl75
p750
I1
sVdo3zpt4
p751
I1
sVd3efrpv
p752
I1
sVd2zlw6p
p753
I1
sVd21m6oq
p754
I1
sVdjgs9fi
p755
I1
sVd99z7u6
p756
I1
sVd3aumcg
p757
I1
sVdfihx1r
p758
I1
sVd5m64nr
p759
I2
sVdoq54z9
p760
I1
sVd69hioe
p761
I1
sVd6xkm9b
p762
I1
sVdnk6p18
p763
I1
sVd0qblig
p764
I1
sVd8wjyac
p765
I2
sVd6a6asp
p766
I2
sVdigddak
p767
I1
sVdh75aww
p768
I1
sVczqksn5
p769
I1
sVd74a77d
p770
I1
sVd2w7tdi
p771
I1
sVdalaqmv
p772
I1
sVd5h3zc7
p773
I1
sVd3dt084
p774
I2
sVd4pnyv3
p775
I2
sVdj0liqh
p776
I1
sVdipzzmi
p777
I1
sVdcamwli
p778
I1
sVdrhv66b
p779
I1
sVdtgwut4
p780
I1
sVdj2krni
p781
I2
sVcyu1p8j
p782
I1
sVdic8ejn
p783
I1
sVd5dej7g
p784
I1
sVdhbs8p9
p785
I1
sVd1q6pme
p786
I1
sVda90n9w
p787
I2
sVd1rrztr
p788
I1
sVd0dkg2z
p789
I1
sVdrfqg1r
p790
I1
sVd07ouji
p791
I1
sVd0qluid
p792
I1
sVd92opcc
p793
I2
sVdij3ovd
p794
I1
sVd20fmy2
p795
I1
sVdiq2dhn
p796
I1
sVd8obwih
p797
I1
sVdidenfg
p798
I1
sVdbch5de
p799
I1
sVd7sklp7
p800
I1
sVcz25k3c
p801
I1
sVd838f67
p802
I1
sVdhyltg0
p803
I1
sVdghs3px
p804
I2
sVdf121ws
p805
I1
sVcz2j84l
p806
I1
sVdfy2dha
p807
I1
sVdb0s2tn
p808
I1
sVddytx9t
p809
I1
sVdfmxu2v
p810
I1
sVd15hi6g
p811
I1
sVd19o095
p812
I1
sVddwjdrh
p813
I1
sVdoh6nhw
p814
I1
sVddcwop6
p815
I1
sVd2ciqmz
p816
I1
sVd1v5ugp
p817
I1
sVczv2wby
p818
I1
sVd3rs24h
p819
I1
sVdk20i8u
p820
I1
sVdnw33pm
p821
I1
sVd9xx88g
p822
I2
sVd21kn0u
p823
I1
sVdb94buw
p824
I1
sVdeahuw6
p825
I1
sVd2ouu8u
p826
I1
sVdeh8s6i
p827
I1
sVd4fe4r2
p828
I1
sVd5ywifo
p829
I1
sVd9o9s5b
p830
I1
sVd28ru9b
p831
I1
sVdpmgdhw
p832
I1
sVczomelq
p833
I1
sVd67isvw
p834
I1
sVdbgn7zq
p835
I1
sVdpnhyh3
p836
I3
sVdkj932x
p837
I2
sVdiwf2j2
p838
I1
sVdfpoija
p839
I1
sVd1hbq8d
p840
I2
sVd9uu0pt
p841
I1
sVdbfjjdp
p842
I1
sVde0r6u0
p843
I3
sVdszovhf
p844
I1
sVddhgwj1
p845
I1
sVdju2qcm
p846
I1
sVczew96n
p847
I1
sVd4pqlks
p848
I1
sVdcfcfe8
p849
I3
sVd8vii3v
p850
I1
sVdq4tlix
p851
I1
sVd4trkn0
p852
I2
sVd6989f9
p853
I1
sVdbotuq1
p854
I1
sVdr305n2
p855
I1
sVd0y1c9l
p856
I1
sVd2juhbh
p857
I1
sVd04zud3
p858
I1
sVds3uz4i
p859
I1
sVd0ntja2
p860
I1
sVdenwxbr
p861
I1
sVd08wx2a
p862
I1
sVdn10y2q
p863
I1
sVdt6f08b
p864
I1
sVdim1vg8
p865
I1
sVdetsm75
p866
I1
sVdnchsn6
p867
I1
sVczsg8ob
p868
I1
sVdnyu5hg
p869
I1
sVd4n7lja
p870
I2
sVddnkrgc
p871
I1
sVd77y4dd
p872
I1
sVd9dp1qa
p873
I1
sVdpdegsn
p874
I1
sVda06qa7
p875
I1
sVd5f4yy0
p876
I1
sVdqnk5b3
p877
I1
sVdrvnbqh
p878
I1
sVda1d8fn
p879
I1
sVd0h4iwg
p880
I1
sVd59lf9a
p881
I4
sVd5i55yg
p882
I1
sVdhajdxx
p883
I1
sVd17o78h
p884
I1
sVd25im42
p885
I2
sVdd8ypyg
p886
I1
sVd14ayrf
p887
I1
sVd4jtass
p888
I1
sVdijxlp1
p889
I1
sVdbt1rfb
p890
I1
sVdafcn9g
p891
I1
sVd7vch00
p892
I1
sVdc0knj5
p893
I1
sVd1yj3d9
p894
I1
sVd39vjha
p895
I1
sVdfumo2y
p896
I1
sVdbyz5rx
p897
I1
sVczn72su
p898
I1
sVd25uvnh
p899
I1
sVdf4b2d0
p900
I1
sVd41kwgy
p901
I1
sVczwzeg6
p902
I1
sVcz4scs6
p903
I1
sVd679drv
p904
I2
sVczbcn01
p905
I1
sVdhppg5p
p906
I1
sVde5rhna
p907
I1
sVd1mnl8z
p908
I1
sVd3ikzbm
p909
I1
sVd26l1xl
p910
I1
sVd3pb9j1
p911
I1
sVdq9dvlz
p912
I1
sVde259jm
p913
I1
sVdhhxvxc
p914
I1
sVdtd78mq
p915
I2
sVdob83ae
p916
I1
sVd1qqipk
p917
I1
sVdghkugo
p918
I1
sVdggz6dv
p919
I1
sVczy46hc
p920
I2
sVdcc2va1
p921
I1
sVdhv8f5f
p922
I4
sVd9c01ez
p923
I1
sVdq1oriy
p924
I1
sVdgpqulu
p925
I1
sVddh65ec
p926
I1
sVd2tlkuc
p927
I1
sVd21s2t8
p928
I1
sVd9fjj5u
p929
I2
sVczmtlrt
p930
I1
sVd37mtc1
p931
I1
sVddj3a23
p932
I1
sVdmhg1r6
p933
I1
sVddpksgn
p934
I2
sVcyonays
p935
I1
sVddik637
p936
I1
sVdbjude7
p937
I1
sVd0sx3iv
p938
I1
sVdem4qpq
p939
I1
sVd0amajz
p940
I1
sVdd17fdr
p941
I1
sVdmsttkv
p942
I1
sVdgijatm
p943
I1
sVdqza5tc
p944
I1
sVd9p0bac
p945
I1
sVd3tr4fb
p946
I1
sVczxsbzk
p947
I1
sVde8xq5w
p948
I1
sVda5ssvk
p949
I1
sVdj3alfh
p950
I1
sVd3w0mxo
p951
I1
sVdhr9l95
p952
I2
sVdetmka6
p953
I1
sVdiu7san
p954
I1
sVcz2p2vf
p955
I2
sVdb8r7up
p956
I1
sVd1ub0mq
p957
I1
sVdrtizy8
p958
I1
sVdf62n1d
p959
I1
sVd472npm
p960
I1
sVdprpuwt
p961
I1
sVd64k0qg
p962
I1
sVd25rueu
p963
I1
sVdi2rdix
p964
I1
sVddi3f81
p965
I1
sVdi4vfey
p966
I1
sVdbsncqz
p967
I1
sVd6ykilg
p968
I2
sVd64pcyr
p969
I1
sVcyki06k
p970
I1
sVdpxrdpx
p971
I1
sVd39bg6o
p972
I1
sVdmi31ty
p973
I1
sVdd7b13s
p974
I1
sVdfhsrr6
p975
I1
sVd41zsdp
p976
I1
sVdqgpv8e
p977
I1
sVdece8rl
p978
I1
sVd6isnoq
p979
I1
sVddxvb7h
p980
I1
sVd8yf41x
p981
I2
sVd2wkfx3
p982
I1
sVczdiiza
p983
I1
sVdo7a1wr
p984
I1
sVczx15ek
p985
I1
sVdk6gfbg
p986
I1
sVd9p9bqr
p987
I1
sVdi4tkrj
p988
I1
sVd0z8p62
p989
I1
sVdf10v7a
p990
I1
sVdkfgran
p991
I1
sVddclpet
p992
I1
sVdpzqbve
p993
I2
sVd72743i
p994
I1
sVdobjryl
p995
I2
sVd5a3maw
p996
I3
sVdh0oohb
p997
I1
sVdhlulj0
p998
I1
sVdcuhxp6
p999
I1
sVd0zcp0o
p1000
I1
sVd6qm6h7
p1001
I1
sVd5a9cwg
p1002
I1
sVd95f96j
p1003
I1
sVd48b043
p1004
I2
sVcyir5oq
p1005
I1
sVdexrdrk
p1006
I2
sVdfwb3wu
p1007
I1
sVcz7e3v7
p1008
I1
sVd3dyxrq
p1009
I1
sVd32w7xd
p1010
I1
sVdnep5oy
p1011
I1
sVdhvp1x7
p1012
I2
sVdi5mak9
p1013
I1
sVcyzmkbw
p1014
I1
sVd3dep10
p1015
I1
sVd0816uf
p1016
I1
sVdmxverm
p1017
I2
sVczm0flt
p1018
I1
sVd1wmnag
p1019
I1
sVdho7hsz
p1020
I1
sVd0073ww
p1021
I1
sVd6c3dxb
p1022
I1
sVdioiitw
p1023
I3
sVd2y8ps3
p1024
I1
sVdml7sdq
p1025
I1
sVdgbil0f
p1026
I1
sVczxlbez
p1027
I1
sVdjk4mbq
p1028
I1
sVdbzijcc
p1029
I1
sVdf38m7c
p1030
I1
sVdpr57bc
p1031
I2
sVdfrn6lw
p1032
I1
sVd5urfdi
p1033
I1
sVd02eidy
p1034
I1
sVdbbvt9y
p1035
I1
sVd7n3kn9
p1036
I1
sVdmsfsv2
p1037
I2
sVd3k9j08
p1038
I1
sVczv0s1m
p1039
I1
sVdcmlrs5
p1040
I1
sVd4c6b33
p1041
I1
sVd7909p9
p1042
I1
sVdb3m2e8
p1043
I1
sVczd11vv
p1044
I1
sVczoz6r2
p1045
I1
sVd7sgp0e
p1046
I1
sVd2gc4cl
p1047
I2
sVdcg5wrk
p1048
I1
sVdc7z5nf
p1049
I1
sVcyi6j1j
p1050
I2
sVd25raf2
p1051
I2
sVdkv8dv2
p1052
I1
sVdpu1xtz
p1053
I1
sVdcnnvgf
p1054
I1
sVde93tn8
p1055
I1
sVdbn194l
p1056
I1
sVcz4i1wf
p1057
I1
sVdhds3io
p1058
I1
sVd8vwhek
p1059
I1
sVdivzt78
p1060
I1
sVd6x62s0
p1061
I1
sVd3y028d
p1062
I1
sVdcuih83
p1063
I1
sVdarjytu
p1064
I1
sVdinaqwt
p1065
I1
sVdatdql1
p1066
I1
sVd1i2323
p1067
I1
sVdbf7n37
p1068
I1
sVd38rjdk
p1069
I1
sVdawdvit
p1070
I1
sVd8pxgqf
p1071
I1
sVd74aiq4
p1072
I1
sVdmuiru9
p1073
I1
sVcyk58no
p1074
I1
sVdnbvd2x
p1075
I1
sVczex8vd
p1076
I1
sVdemht7z
p1077
I1
sVdr0aa9g
p1078
I1
sVdaw4jr6
p1079
I1
sVdmu2c3k
p1080
I1
sVd6e7stg
p1081
I1
sVd6eypfz
p1082
I1
sVd3r3khn
p1083
I1
sVd385chp
p1084
I1
sVdfrq4xs
p1085
I1
sVd1d66t5
p1086
I1
sVdrqld4n
p1087
I2
sVd3kndug
p1088
I1
sVczh2hvb
p1089
I1
sVd50wxsa
p1090
I1
sVdc3i8qs
p1091
I2
sVdrdp2m7
p1092
I1
sVd4pn2qq
p1093
I1
sVd6hbfjy
p1094
I1
sVdbqr0jh
p1095
I1
sVd21z6iy
p1096
I1
sVd21hesw
p1097
I1
sVd2oyi2b
p1098
I1
sVdakfqnv
p1099
I1
sVdp1d9ta
p1100
I1
sVd5l5uvj
p1101
I1
sVdbi90mx
p1102
I2
sVdgob808
p1103
I1
sVdq2dqak
p1104
I1
sVdhd98fb
p1105
I1
sVdii73j1
p1106
I1
sVdh6s3wt
p1107
I1
sVd04o7zx
p1108
I1
sVd380ue5
p1109
I1
sVdogrfa7
p1110
I1
sVdh71mjh
p1111
I1
sVcz46c90
p1112
I1
sVcyxkfbu
p1113
I1
sVd27t5h2
p1114
I1
sVd7amcui
p1115
I1
sVcz5zx8k
p1116
I1
sVdcn2ohh
p1117
I1
sVczvvz1k
p1118
I1
sVd0ztnvs
p1119
I1
sVd4af2de
p1120
I1
sVdafdmqj
p1121
I1
sVdkvgd7b
p1122
I2
sVdfi1ca0
p1123
I1
sVdr04q2m
p1124
I2
sVd2xm7kr
p1125
I1
sVcyljc0y
p1126
I1
sVd927ufm
p1127
I1
sVd8p234f
p1128
I2
sVdspmzn4
p1129
I1
sVcysi820
p1130
I1
sVdte06kh
p1131
I1
sVdkylk7w
p1132
I1
sVd4hak6p
p1133
I1
sVdksydqc
p1134
I1
sVdfj40j1
p1135
I1
sVdq88tlo
p1136
I1
sVdj0mwya
p1137
I2
sVded4674
p1138
I1
sVczkggbx
p1139
I1
sVdpn4vmo
p1140
I1
sVdfe3fef
p1141
I1
sVd7dodhj
p1142
I2
sVd083h00
p1143
I1
sVdg75is1
p1144
I2
sVdohjnfz
p1145
I1
sVd36zmgf
p1146
I1
sVdcud3as
p1147
I1
sVdnq1l7h
p1148
I1
sVd0lku15
p1149
I1
sVd9dfdgh
p1150
I1
sVdhlsn3c
p1151
I1
sVd33kfqu
p1152
I1
sVd0mexzh
p1153
I1
sVdarnk6s
p1154
I1
sVd0x5aw5
p1155
I1
sVd5nyu0k
p1156
I1
sVdfkw41m
p1157
I1
sVdizele9
p1158
I1
sVd6ib6fc
p1159
I2
sVd05imz4
p1160
I1
sVdckm9ou
p1161
I1
sVdpags0x
p1162
I1
sVdgf34wu
p1163
I1
sVd397n6x
p1164
I1
sVdap30bd
p1165
I2
sVd2gip48
p1166
I1
sVdqp5ljo
p1167
I2
sVdfaavig
p1168
I1
sVddr4d9g
p1169
I1
sVdg84ykp
p1170
I1
sVcywjuk9
p1171
I1
sVczu26rg
p1172
I1
sVd4qc3uw
p1173
I1
sVdpuhdz6
p1174
I1
sVdk7dxeh
p1175
I1
sVdblot9b
p1176
I2
sVd3mgxbn
p1177
I1
sVcynyfvi
p1178
I1
sVczyr7kf
p1179
I1
sVd0878mn
p1180
I1
sVdnugfjy
p1181
I1
sVdj61vhp
p1182
I1
sVcys4zla
p1183
I2
sVd192nkf
p1184
I1
sVd9ojaa8
p1185
I1
sVd2zny4q
p1186
I1
sVdgs3abe
p1187
I1
sVdbrq74q
p1188
I1
sVd6trocf
p1189
I1
sVdhds0m6
p1190
I1
sVczhavr0
p1191
I1
sVdh61t78
p1192
I1
sVddndkhf
p1193
I1
sVd02vfbx
p1194
I1
sVdj1n00w
p1195
I1
sVd1mtabx
p1196
I1
sVd8t2m91
p1197
I1
sVddwzmtt
p1198
I3
sVczfnw8h
p1199
I1
sVdi87ad2
p1200
I1
sVd2agwxr
p1201
I2
sVdg4zmhl
p1202
I1
sVdsjqcxj
p1203
I1
sVdb9hfm2
p1204
I1
sVde15mls
p1205
I3
sVdfc4awc
p1206
I1
sVd6wxaw0
p1207
I1
sVd9kgbf5
p1208
I1
sVdasoa28
p1209
I1
sVd1ruao3
p1210
I1
sVczci0m2
p1211
I1
sVd03jn92
p1212
I1
sVddoe7cl
p1213
I1
sVd5npga2
p1214
I1
sVdrzu299
p1215
I1
sVddhgv5x
p1216
I1
sVdhda4oo
p1217
I1
sVdknfqsj
p1218
I1
sVdi4tdux
p1219
I1
sVczi1oqp
p1220
I1
sVd6xelbu
p1221
I1
sVdbsof5l
p1222
I1
sVd6o0rxg
p1223
I1
sVdhz8k0w
p1224
I1
sVdaybckw
p1225
I1
sVdcdwfx2
p1226
I1
sVd6jexua
p1227
I1
sVd0bzml8
p1228
I1
sVde5z21u
p1229
I2
sVdk1egso
p1230
I1
sVd0pwxbr
p1231
I1
sVdnwe912
p1232
I1
sVd5k1i56
p1233
I1
sVda6mrwo
p1234
I2
sVdghlp0m
p1235
I3
sVd8djd8t
p1236
I1
sVde4y9z2
p1237
I2
sVdc6iw47
p1238
I1
sVd35goob
p1239
I2
sVdnvs041
p1240
I1
sVdecb4ki
p1241
I1
sVd2d8grf
p1242
I1
sVdb9jt52
p1243
I1
sVd5zowpz
p1244
I1
sVd2fnghi
p1245
I1
sVdcyusil
p1246
I1
sVd595p25
p1247
I1
sVczuo66q
p1248
I1
sVdggv66u
p1249
I1
sVd3i9yhg
p1250
I1
sVdhbbihw
p1251
I1
sVd04bk63
p1252
I1
sVdhbfiu8
p1253
I1
sVdf3rtuw
p1254
I1
sVcytzqx5
p1255
I1
sVczqarxl
p1256
I1
sVdomuumv
p1257
I1
sVd26zw1r
p1258
I1
sVd55428n
p1259
I1
sVcyhu92r
p1260
I1
sVd8pj8ie
p1261
I1
sVdbhfvuc
p1262
I1
sVdoiebpa
p1263
I1
sVd3fey19
p1264
I1
sVdcmr4tt
p1265
I1
sVd85nqwx
p1266
I1
sVdhfnlpb
p1267
I1
sVdrq1ldz
p1268
I1
sVd46zb37
p1269
I1
sVczc3pnd
p1270
I1
sVdf9pqim
p1271
I1
sVd03wv8k
p1272
I1
sVd9bmged
p1273
I3
sVd1d0fmr
p1274
I1
sVdbrnlhs
p1275
I1
sVdnutkt1
p1276
I1
sVd6z22vm
p1277
I1
sVdeux7um
p1278
I1
sVdp67siy
p1279
I1
sVdincqd1
p1280
I1
sVcztobqc
p1281
I1
sVdh009cf
p1282
I1
sVdr5jtfj
p1283
I2
sVcz2y0y7
p1284
I1
sVd6ejgya
p1285
I1
sVde1uzrf
p1286
I1
sVczm3ozx
p1287
I1
sVda094bc
p1288
I1
sVdhrs6en
p1289
I1
sVd5vrucq
p1290
I1
sVcz9lzt9
p1291
I1
sVdf64uh8
p1292
I1
sVd8huew7
p1293
I1
sVddwj2lp
p1294
I1
sVd1xj5c3
p1295
I1
sVdak02eu
p1296
I1
sVdmr6nqq
p1297
I1
sVd0b9tr1
p1298
I1
sVd4dpcxj
p1299
I1
sVd070x5f
p1300
I1
sVd1kyi0n
p1301
I1
sVddpicrl
p1302
I1
sVd19gon4
p1303
I1
sVd33ovgq
p1304
I1
sVdavfsew
p1305
I1
sVdadmk99
p1306
I2
sVd4dpmn1
p1307
I1
sVdh849yk
p1308
I1
sVdrj6ixw
p1309
I1
sVd086bzp
p1310
I2
sVdmtq8pu
p1311
I1
sVczr6mi3
p1312
I1
sVda7ibit
p1313
I1
sVd0ic9yo
p1314
I1
sVdhx24n0
p1315
I1
sVdknub6d
p1316
I1
sVcyv8pfy
p1317
I1
sVddynb3h
p1318
I1
sVdb5gi0v
p1319
I1
sVd9rl13n
p1320
I1
sVdmz7hk9
p1321
I1
sVd05nfss
p1322
I1
sVdew3vaj
p1323
I2
sVd3xpx5a
p1324
I1
sVd1q15co
p1325
I1
sVd8af2ge
p1326
I1
sVd7p4c23
p1327
I1
sVd0cvk4w
p1328
I1
sVd61int6
p1329
I1
sVd0jo7ux
p1330
I1
sVd6nyw3i
p1331
I1
sVdj89row
p1332
I1
sVdbmdajs
p1333
I2
sVdcczjvm
p1334
I2
sVd99kydy
p1335
I1
sVdj5b1ra
p1336
I1
sVdkkva9r
p1337
I1
sVd44qpc5
p1338
I1
sVd0i1ghq
p1339
I1
sVdeg5epo
p1340
I1
sVd3dtmi7
p1341
I1
sVdgh991s
p1342
I1
sVdnj4so7
p1343
I1
sVd7aq3th
p1344
I1
sVd3dsiua
p1345
I1
sVd7gsflx
p1346
I1
sVdje8lj1
p1347
I1
sVd7hown2
p1348
I1
sVdi1g22y
p1349
I1
sVd270632
p1350
I1
sVd1j3jmv
p1351
I1
sVd1nfxm9
p1352
I1
sVdheklaw
p1353
I1
sVdd79k20
p1354
I1
sVd3fozww
p1355
I2
sVdg1si74
p1356
I1
sVd52ksme
p1357
I1
sVdc5e2x0
p1358
I1
sVdbjixuw
p1359
I3
sVdionfdq
p1360
I1
sVd3xhcr0
p1361
I1
sVdc5hwoq
p1362
I1
sVd508v8v
p1363
I1
sVczjnnvh
p1364
I1
sVcztywbc
p1365
I1
sVd1v6efs
p1366
I1
sVcyqgliq
p1367
I1
sVdfqawsv
p1368
I1
sVd8ize57
p1369
I1
sVd4qvqal
p1370
I1
sVdk0ispj
p1371
I1
sVdbxj2hp
p1372
I1
sVczm8d76
p1373
I1
sVdb1rnzk
p1374
I1
sVdpb6i90
p1375
I1
sVdelnmsk
p1376
I1
sVdspk3ig
p1377
I1
sVdtfgooo
p1378
I1
sVd2a48ce
p1379
I1
sVd6b6l4x
p1380
I1
sVdhfbx0i
p1381
I2
sVd89mgop
p1382
I1
sVdeduped
p1383
I1
sVd276kpz
p1384
I1
sVcynrw6a
p1385
I1
sVczrj8f9
p1386
I1
sVdh35utd
p1387
I1
sVd6t5ir5
p1388
I1
sVdrln4i2
p1389
I1
sVcyy5waz
p1390
I1
sVdaofpay
p1391
I1
sVddwkrf1
p1392
I2
sVd4nf4yo
p1393
I1
sVd1k508i
p1394
I1
sVd31pvmp
p1395
I1
sVd68qbxl
p1396
I1
sVdjsfpp1
p1397
I1
sVd7m56wm
p1398
I1
sVd371jtw
p1399
I1
sVdqgnzv6
p1400
I1
sVd8aorik
p1401
I1
sVddsvy07
p1402
I1
sVd2u7ru9
p1403
I1
sVdhyut4g
p1404
I1
sVddi9ygq
p1405
I1
sVdejg877
p1406
I1
sVdbswv29
p1407
I2
sVdg8fytw
p1408
I1
sVdkmft5d
p1409
I1
sVda4x4cz
p1410
I1
sVdfngysl
p1411
I1
sVdqvp40t
p1412
I1
sVdam1jq2
p1413
I1
sVd90n41o
p1414
I1
sVdtcvhpy
p1415
I1
sVd3qkrgu
p1416
I1
sVd95manh
p1417
I1
sVddc33qr
p1418
I1
sVczx14wt
p1419
I1
sVdhatfxh
p1420
I1
sVdcrfpfj
p1421
I1
sVdgyva0a
p1422
I1
sVd5xs9cb
p1423
I1
sVdihbpfd
p1424
I1
sVdhxbxx7
p1425
I1
sVdjunhea
p1426
I1
sVddj476j
p1427
I1
sVd1xozho
p1428
I1
sVczzoiyn
p1429
I2
sVdgh0fdi
p1430
I2
sVdcr13i0
p1431
I1
sVd4boqll
p1432
I1
sVdnuoe6x
p1433
I1
sVd8zrnkg
p1434
I1
sVczscil5
p1435
I1
sVdmq15p1
p1436
I2
sVd9wfzom
p1437
I1
sVdnbzuy8
p1438
I1
sVdmn30oh
p1439
I1
sVd2i06nn
p1440
I1
sVd5cxfs7
p1441
I1
sVdd6t358
p1442
I1
sVdrl4yme
p1443
I1
sVczu28o3
p1444
I1
sVcyqnqha
p1445
I1
sVdk1fyqw
p1446
I1
sVdk7zo6l
p1447
I1
sVd2awqve
p1448
I1
sVd0oaciw
p1449
I1
sVdmro1lo
p1450
I1
sVdh6lp0z
p1451
I1
sVd4i3s2z
p1452
I1
sVdejg8xk
p1453
I1
sVd3gv93v
p1454
I1
sVd25p4h7
p1455
I1
sVdo9zays
p1456
I7
sVd3tdms4
p1457
I1
sVd27ijva
p1458
I1
sVd4sl3rt
p1459
I1
sVdg22lph
p1460
I1
sVdbfgrys
p1461
I1
sVdgckax6
p1462
I1
sVd90kkwb
p1463
I1
sVd01cd2b
p1464
I1
sVdn0a693
p1465
I2
sVd8qthho
p1466
I1
sVdc9ke85
p1467
I1
sVdk0abjr
p1468
I1
sVda15i0q
p1469
I1
sVdfvgs8d
p1470
I1
sVd24a8dj
p1471
I1
sVd3t1p10
p1472
I1
sVd1l9x2x
p1473
I1
sVd6rga4y
p1474
I2
sVdcgx9m3
p1475
I1
sVda78kyu
p1476
I1
sVdfh2k28
p1477
I1
sVdgqn4zs
p1478
I1
sVdk6cqid
p1479
I1
sVd07naf5
p1480
I2
sVdqccwfq
p1481
I1
sVdb7ekaa
p1482
I1
sVdmq7q2n
p1483
I1
sVcyt1pg7
p1484
I1
sVd6d9ftj
p1485
I1
sVd8ow7b3
p1486
I1
sVdauldaj
p1487
I3
sVdg8xkaq
p1488
I1
sVd71bpuv
p1489
I1
sVdc11vg6
p1490
I1
sVdhq2g0i
p1491
I1
sVddbsh93
p1492
I2
sVdkrm7ah
p1493
I1
sVdnu7jc1
p1494
I1
sVd2qdk4n
p1495
I2
sVdbdo8pt
p1496
I2
sVdqrk2ky
p1497
I1
sVdfyerxs
p1498
I1
sVdg5onrm
p1499
I2
sVcyytafp
p1500
I1
sVd2pg893
p1501
I1
sVdr8vlf6
p1502
I1
sVdjk5ozp
p1503
I2
sVd4vldfb
p1504
I1
sVd623aew
p1505
I1
sVdgc2izw
p1506
I1
sVdjjjdc2
p1507
I1
sVdq6f9pt
p1508
I1
sVdhn9cf3
p1509
I1
sVdd9hhva
p1510
I1
sVdi5pmgc
p1511
I1
sVdk4xhmp
p1512
I1
sVdodnlww
p1513
I1
sVd3l2wt6
p1514
I1
sVd8dde42
p1515
I1
sVdqe1xq4
p1516
I1
sVd4n0d1p
p1517
I2
sVd7ohe0o
p1518
I1
sVdfmvhmv
p1519
I1
sVd7xpp9a
p1520
I2
sVddvk3n2
p1521
I1
sVdajz257
p1522
I1
sVd8t8tvl
p1523
I1
sVd1uskg6
p1524
I1
sVcz6xdvv
p1525
I1
sVdabb6n5
p1526
I1
sVdnfowrt
p1527
I1
sVddaqcfn
p1528
I1
sVdc7s6j0
p1529
I1
sVd9i6k0h
p1530
I1
sVdk7v6s5
p1531
I2
sVd8772hq
p1532
I1
sVde9hfi7
p1533
I1
sVdacyww3
p1534
I1
sVddxbw4h
p1535
I1
sVczcppbn
p1536
I1
sVd2onami
p1537
I1
sVdj67ngk
p1538
I2
sVdcnm9yq
p1539
I1
sVd2p32a8
p1540
I1
sVdauks7q
p1541
I1
sVds8ht47
p1542
I1
sVdgibjlw
p1543
I1
sVcyz1gxr
p1544
I1
sVcztz24y
p1545
I1
sVd9fx3xc
p1546
I1
sVdef9xl0
p1547
I1
sVde3acdl
p1548
I1
sVd3kskfr
p1549
I1
sVd29sxqh
p1550
I1
sVczj4koo
p1551
I1
sVd6zy9h3
p1552
I1
sVd011nu0
p1553
I1
sVd2kyxwf
p1554
I1
sVdf1qn8u
p1555
I1
sVdbv2u1y
p1556
I2
sVdb3ibo3
p1557
I1
sVdj91iyg
p1558
I1
sVdedaeqx
p1559
I1
sVd2twsi2
p1560
I1
sVdmw4fda
p1561
I1
sVd6xowai
p1562
I1
sVd4ncsy2
p1563
I2
sVd6s793o
p1564
I1
sVd3gu6r3
p1565
I1
sVdfagd4z
p1566
I1
sVdbt7vj9
p1567
I1
sVdj4bhd2
p1568
I1
sVd85uj8d
p1569
I1
sVdi1321t
p1570
I1
sVdggxre7
p1571
I1
sVd0hcxie
p1572
I1
sVcyvd56e
p1573
I1
sVczc8exu
p1574
I1
sVdq0vwfs
p1575
I1
sVdf1x0qq
p1576
I1
sVdd9lt7v
p1577
I1
sVd91alik
p1578
I1
sVdhgfjkb
p1579
I1
sVd65fzqk
p1580
I2
sVde9gi3i
p1581
I1
sVdoud9zo
p1582
I1
sVd1u06uq
p1583
I1
sVd61mqt2
p1584
I1
sVd8vr73k
p1585
I1
sVd0plnrt
p1586
I1
sVdmiqv8e
p1587
I1
sVd2eqrid
p1588
I1
sVdp5dkbt
p1589
I1
sVd29etn9
p1590
I1
sVdkkv67j
p1591
I1
sVdftc2un
p1592
I1
sVdb5gaiw
p1593
I1
sVdb7oxbx
p1594
I1
sVczl7lis
p1595
I1
sVde10t5f
p1596
I2
sVdnuc07n
p1597
I1
sVdczt85t
p1598
I1
sVcz6jcyg
p1599
I1
sVdsve2qt
p1600
I1
sVd4swgtp
p1601
I1
sVd5plrns
p1602
I2
sVd08yxvo
p1603
I2
sVd3jqonx
p1604
I1
sVd6teg1n
p1605
I1
sVd6fzgq4
p1606
I2
sVd9wtik5
p1607
I1
sVd197mp7
p1608
I1
sVdmg3vc1
p1609
I2
sVdacouc7
p1610
I1
sVd3ctwjf
p1611
I1
sVd30j6ok
p1612
I1
sVddy15o1
p1613
I1
sVcz9ne50
p1614
I1
sVdd3bzc9
p1615
I1
sVd7rqbc2
p1616
I1
sVdrqflc6
p1617
I1
sVdcxtphp
p1618
I1
sVddnjajc
p1619
I1
sVd1zpv8o
p1620
I1
sVdmnl4ty
p1621
I1
sVd2lppc9
p1622
I1
sVddt42xr
p1623
I1
sVddabv3h
p1624
I2
sVdoz0gy6
p1625
I1
sVd5w1upg
p1626
I1
sVddao4nn
p1627
I1
sVdho3vul
p1628
I1
sVdf1uchu
p1629
I1
sVcz9vdwi
p1630
I1
sVd309rah
p1631
I1
sVda1an0m
p1632
I1
sVcynx971
p1633
I1
sVde8za6t
p1634
I1
sVd628nih
p1635
I1
sVczgubg4
p1636
I1
sVd631d1q
p1637
I1
sVd2qrjy4
p1638
I1
sVcz6jjha
p1639
I1
sVd966q4t
p1640
I2
sVd2k1ecf
p1641
I1
sVdi8vle2
p1642
I1
sVczvxjfj
p1643
I1
sVdhvf138
p1644
I1
sVd3sq15t
p1645
I2
sVd7h5yi7
p1646
I1
sVd32g1z0
p1647
I1
sVdf5sgcb
p1648
I2
sVd84j6xx
p1649
I1
sVdb59arl
p1650
I1
sVdpywbyt
p1651
I1
sVdfwtlqk
p1652
I1
sVdmvxipk
p1653
I1
sVczimnzp
p1654
I1
sVdicqqih
p1655
I1
sVd42vf3e
p1656
I1
sVcz5f86t
p1657
I1
sVdh46i5k
p1658
I5
sVcz6y8r3
p1659
I1
sVdhd5jkp
p1660
I2
sVdj05faf
p1661
I1
sVdhymqx9
p1662
I2
sVd7bm8a8
p1663
I1
sVdidy03l
p1664
I1
sVd4yuixg
p1665
I1
sVczabxum
p1666
I1
sVdhbmb71
p1667
I1
sVd3rrowe
p1668
I1
sVdpb0y0t
p1669
I1
sVdj23u5r
p1670
I1
sVd4kxy2d
p1671
I1
sVd745js1
p1672
I1
sVd05wi6n
p1673
I1
sVd5juk16
p1674
I1
sVd7reiw3
p1675
I1
sVd6r8rzg
p1676
I1
sVde3qz9z
p1677
I1
sVdd5n6ht
p1678
I1
sVd48b21g
p1679
I1
sVd0998i2
p1680
I1
sVda7jsjl
p1681
I1
sVd2oz1ic
p1682
I1
sVczxxu9f
p1683
I1
sVdghu1t7
p1684
I1
sVd2ozml9
p1685
I1
sVd0qqsj6
p1686
I1
sVdctjsd0
p1687
I1
sVdb10x8t
p1688
I1
sVdcjzcrc
p1689
I1
sVd1a4ssj
p1690
I1
sVdgpbl9e
p1691
I1
sVdbgirzi
p1692
I1
sVdgdpczs
p1693
I1
sVd0129ci
p1694
I1
sVdn2cjaq
p1695
I1
sVdh15k1z
p1696
I1
sVd3197u8
p1697
I1
sVcz7f3ha
p1698
I1
sVd59dtdc
p1699
I1
sVdkuwbme
p1700
I1
sVd8u9vx2
p1701
I2
sVdcm73qp
p1702
I1
sVdjrsifu
p1703
I1
sVdbnlkwt
p1704
I1
sVdekny9e
p1705
I1
sVdkoxqmh
p1706
I1
sVdnd89qw
p1707
I1
sVd1jpnrt
p1708
I2
sVdawe5pg
p1709
I1
sVczj220b
p1710
I1
sVd5ap3mu
p1711
I1
sVd2qnn8q
p1712
I1
sVdmw148m
p1713
I2
sVd07bir7
p1714
I1
sVd1v564p
p1715
I3
sVdc9welt
p1716
I1
sVde3n5qv
p1717
I1
sVdgnqwt9
p1718
I1
sVd9vhild
p1719
I2
sVd5inhl7
p1720
I1
sVdcffrfe
p1721
I2
sVdngjhpf
p1722
I1
sVd2pj216
p1723
I1
sVdjes9lq
p1724
I1
sVdatwqi1
p1725
I1
sVddwgyzb
p1726
I1
sVd9a1grn
p1727
I1
sVczx22j7
p1728
I1
sVdax583q
p1729
I1
sVdag7scm
p1730
I1
sVd7kaky7
p1731
I1
sVczgful8
p1732
I2
sVd9p6xro
p1733
I1
sVd2hukjt
p1734
I1
sVdkqhx5v
p1735
I1
sVdnhs8de
p1736
I1
sVdr6fz7j
p1737
I1
sVdrt6v8t
p1738
I1
sVd3npa9o
p1739
I1
sVd2ec7oo
p1740
I1
sVddeowoc
p1741
I1
sVdg9h0v6
p1742
I1
sVdoma7r9
p1743
I1
sVdfwelg1
p1744
I1
sVcztwuw6
p1745
I1
sVds98a8o
p1746
I1
sVd0brgaw
p1747
I1
sVd4hdcw7
p1748
I1
sVde16bmn
p1749
I1
sVddftetw
p1750
I1
sVddxc02f
p1751
I1
sVd6xpho0
p1752
I1
sVdflhd7j
p1753
I1
sVdae3h7c
p1754
I1
sVcz5iiof
p1755
I2
sVd4774d4
p1756
I1
sVd4675ho
p1757
I1
sVdbj266v
p1758
I1
sVdo9ktzd
p1759
I1
sVd4y0frd
p1760
I1
sVd0k8alv
p1761
I1
sVd9lbrxq
p1762
I1
sVd00tqgd
p1763
I1
sVd69hh90
p1764
I1
sVd4o1h9t
p1765
I1
sVdibn3f0
p1766
I1
sVdbnatok
p1767
I1
sVdsku15n
p1768
I1
sVdmt0qzt
p1769
I1
sVdfhe0ay
p1770
I1
sVdmi6qla
p1771
I1
sVczjn0fv
p1772
I1
sVd6br8j7
p1773
I1
sVdc3xnav
p1774
I1
sVd3nj9xo
p1775
I1
sVd025dbu
p1776
I1
sVdikdnyt
p1777
I1
sVdsfvbyu
p1778
I2
sVddrwqac
p1779
I1
sVcz86s1s
p1780
I1
sVdacdyw7
p1781
I1
sVdfvfqq8
p1782
I1
sVdobnhhb
p1783
I1
sVd7qjzmw
p1784
I1
sVdfbyekt
p1785
I1
sVdfqpcj0
p1786
I1
sVd094pyw
p1787
I1
sVczlfhjv
p1788
I1
sVdfhg7k5
p1789
I1
sVdmv642e
p1790
I1
sVd6xflq5
p1791
I1
sVdgxgkrx
p1792
I1
sVcyjpy4s
p1793
I1
sVdhjg6g6
p1794
I2
sVd0qmdvp
p1795
I1
sVdj22hzo
p1796
I1
sVdq19xu0
p1797
I1
sVdi47iay
p1798
I1
sVd7e66b9
p1799
I1
sVdb011sz
p1800
I1
sVd47tjqu
p1801
I1
sVdbks6fm
p1802
I1
sVd3ear5t
p1803
I1
sVdg9xig8
p1804
I1
sVdsou5l2
p1805
I1
sVdqhx4mv
p1806
I1
sVczx09be
p1807
I1
sVd5bzwwa
p1808
I1
sVdaubl7y
p1809
I1
sVdjuwpch
p1810
I1
sVd8hv6pr
p1811
I1
sVd4ssd9u
p1812
I2
sVdtifi23
p1813
I1
sVd4eqdfn
p1814
I1
sVcz3fpcq
p1815
I1
sVdshayng
p1816
I2
sVdiuyd01
p1817
I1
sVd4kb8v3
p1818
I1
sVcyxvu0d
p1819
I1
sVd7m48d5
p1820
I2
sVdmpr0ed
p1821
I2
sVd9d4l0e
p1822
I1
sVd27vmql
p1823
I1
sVdg98ajg
p1824
I1
sVdb1y98z
p1825
I1
sVdmgpgle
p1826
I1
sVd0yddix
p1827
I1
sVd1j73fc
p1828
I1
sVdeksrus
p1829
I1
sVd8fiahg
p1830
I1
sVdam0igp
p1831
I1
sVdct1qvv
p1832
I2
sVdczlgxh
p1833
I1
sVdqe9dun
p1834
I2
sVd2tzeri
p1835
I1
sVd2qvp66
p1836
I1
sVdgu9pfy
p1837
I1
sVd3qxyeq
p1838
I1
sVd0xsk7b
p1839
I1
sVcyn4969
p1840
I2
sVdiroq4n
p1841
I1
sVda5x469
p1842
I1
sVd8f2xav
p1843
I2
sVczfoehk
p1844
I1
sVd0i7h7h
p1845
I1
sVd03crgf
p1846
I1
sVd4shy0p
p1847
I3
sVd5nl0kf
p1848
I1
sVdb01in9
p1849
I1
sVcyj493i
p1850
I1
sVdfc69i0
p1851
I1
sVd1heqdx
p1852
I1
sVcykjycc
p1853
I1
sVdflyigp
p1854
I1
sVdeupxqd
p1855
I1
sVdala46f
p1856
I1
sVcz3ium1
p1857
I1
sVd71b2qc
p1858
I1
sVczkenur
p1859
I1
sVdn6cdsc
p1860
I1
sVdbya0ws
p1861
I2
sVd3lnc5v
p1862
I1
sVdhcogr9
p1863
I1
sVd63vvth
p1864
I1
sVds8qsnb
p1865
I1
sVcz2lq0c
p1866
I1
sVdt2kqnh
p1867
I1
sVdggt4ly
p1868
I1
sVd5tt1tb
p1869
I1
sVdhaqnlc
p1870
I1
sVdnblas7
p1871
I1
sVdifhcyc
p1872
I1
sVdcksf0t
p1873
I1
sVd8suw6i
p1874
I1
sVdcdi8hr
p1875
I1
sVdnd3tm0
p1876
I1
sVda6wqgo
p1877
I1
sVd1gi322
p1878
I1
sVd4i0nxj
p1879
I1
sVdqctzv5
p1880
I1
sVd44pt1h
p1881
I1
sVd5iejqi
p1882
I1
sVd2glwrn
p1883
I1
sVd9dqjul
p1884
I1
sVd1tuo05
p1885
I1
sVdpw55z4
p1886
I2
sVdnddbbr
p1887
I1
sVdc3uipi
p1888
I1
sVdknfdkc
p1889
I1
sVd3e3scw
p1890
I1
sVd69fxjl
p1891
I1
sVdddpc95
p1892
I1
sVd0ory3i
p1893
I1
sVdf6bc1o
p1894
I1
sVdqznh0i
p1895
I1
sVd1hhk1q
p1896
I1
sVd5j4urv
p1897
I1
sVdgnexo3
p1898
I1
sVd2pq5bb
p1899
I1
sVdh9w8hc
p1900
I1
sVdn8tow2
p1901
I1
sVd2afpre
p1902
I1
sVdeuhvv7
p1903
I1
sVdiy0v0s
p1904
I1
sVd2jp7jm
p1905
I1
sVdmsgqve
p1906
I1
sVdmrw2i5
p1907
I1
sVdkmahf5
p1908
I2
sVd3845uc
p1909
I1
sVdnl9xln
p1910
I1
sVd5yhp1x
p1911
I2
sVdbme1uv
p1912
I1
sVd17gbrt
p1913
I1
sVd7g1qpk
p1914
I1
sVdmh8cyu
p1915
I1
sVdd42l7m
p1916
I1
sVd2q7ib0
p1917
I1
sVd1w5u4y
p1918
I1
sVde8v3v1
p1919
I1
sVd4nhp1e
p1920
I1
sVd3b9s6p
p1921
I1
sVdpf4j4t
p1922
I1
sVdd14yqi
p1923
I1
sVdjtcqed
p1924
I1
sVd7rfyhl
p1925
I1
sVd3y32kx
p1926
I1
sVd5sq79n
p1927
I1
sVd0g0cbv
p1928
I1
sVdovq1t7
p1929
I2
sVdaie7tp
p1930
I1
sVdnhnzzw
p1931
I1
sVd2bv2cy
p1932
I1
sVd5v7ojn
p1933
I2
sVdf3wq0a
p1934
I1
sVdjdhj3j
p1935
I1
sVd0qjl2u
p1936
I1
sVdfvm0pt
p1937
I1
sVd5tyors
p1938
I1
sVd7byvq9
p1939
I1
sVd04zj33
p1940
I2
sVd1qbps4
p1941
I1
sVdcbla59
p1942
I1
sVd502eux
p1943
I1
sVczubipi
p1944
I1
sVd3zvr1w
p1945
I1
sVdg2m5nj
p1946
I1
sVda4y299
p1947
I1
sVdcjxoef
p1948
I4
sVdijodo7
p1949
I1
sVd1r0znl
p1950
I1
sVddj9sgk
p1951
I1
sVd7ntbjq
p1952
I1
sVdcginsq
p1953
I1
sVdii6faz
p1954
I1
sVd2oenzj
p1955
I1
sVd7pwbs8
p1956
I2
sVdh2qo3z
p1957
I1
sVd30euue
p1958
I1
sVdfpo9jx
p1959
I1
sVdbs754n
p1960
I2
sVd2ew1qb
p1961
I1
sVd5oss0g
p1962
I1
sVd96tcps
p1963
I1
sVdpacbj0
p1964
I1
sVd340dv0
p1965
I1
sVd3ac2b2
p1966
I1
sVddvkw8h
p1967
I2
sVde3rxly
p1968
I1
sVdd9oik2
p1969
I1
sVd4rvabd
p1970
I1
sVda6fofn
p1971
I1
sVdjq29bf
p1972
I1
sVddrx12x
p1973
I1
sVdf3p4a2
p1974
I1
sVd3hf51w
p1975
I1
sVdexfzml
p1976
I2
sVdi4nmdm
p1977
I1
sVd9a1iqk
p1978
I1
sVdc3y6z0
p1979
I1
sVdf1x18h
p1980
I1
sVdincynv
p1981
I1
sVcz1kcim
p1982
I1
sVdej7jg3
p1983
I4
sVde5oh31
p1984
I1
sVdcu82mc
p1985
I1
sVdb5fxqx
p1986
I1
sVdikfufe
p1987
I1
sVczp65i6
p1988
I1
sVd2rqvgh
p1989
I1
sVdsm4zzw
p1990
I1
sVd3psvkk
p1991
I2
sVd9kt4bm
p1992
I2
sVd94si81
p1993
I1
sVdh25fop
p1994
I1
sVdewa33m
p1995
I1
sVdaf7jzo
p1996
I1
sVd5k9gkk
p1997
I1
sVdcronw9
p1998
I1
sVdbgoyjx
p1999
I2
sVdmvin2r
p2000
I1
sVd9687kr
p2001
I1
sVdph6crb
p2002
I1
sVd0i63dk
p2003
I1
sVdpyyvdt
p2004
I1
sVdjd6l34
p2005
I3
sVdh32sof
p2006
I1
sVczabayk
p2007
I1
sVd3eebt5
p2008
I1
sVd1x0vdt
p2009
I1
sVd2q696i
p2010
I1
sVdshur7r
p2011
I2
sVcz052ej
p2012
I1
sVd2ztik6
p2013
I1
sVdgx4adv
p2014
I1
sVd9d2lau
p2015
I1
sVdd4rok0
p2016
I1
sVd1em3ad
p2017
I2
sVd1wzgwt
p2018
I1
sVczzcsit
p2019
I1
sVdixdlu5
p2020
I1
sVczv2b7c
p2021
I1
sVdgve9k8
p2022
I1
sVd08i0se
p2023
I1
sVd8zcpa7
p2024
I2
sVdf3g0fg
p2025
I1
sVdfieila
p2026
I2
sVdcerlsm
p2027
I1
sVd5mwbjh
p2028
I1
sVdf427u1
p2029
I1
sVd7uwqv5
p2030
I1
sVczwgbc0
p2031
I2
sVdri4b91
p2032
I1
sVdq5k5l7
p2033
I2
sVdhnl5ua
p2034
I1
sVd1q7xze
p2035
I1
sVdj2iu2j
p2036
I2
sVdgifhex
p2037
I1
sVd0x4egh
p2038
I1
sVdcz2ahc
p2039
I1
sVdg54h9v
p2040
I1
sVd9qor9b
p2041
I1
sVd3r8uui
p2042
I1
sVd78ojt5
p2043
I1
sVdhn1fd1
p2044
I4
sVd3ycrdy
p2045
I1
sVdi0ttgn
p2046
I1
sVcypc34p
p2047
I1
sVddy0yd1
p2048
I1
sVcym3pwr
p2049
I1
sVdilnlnh
p2050
I1
sVd8ub32r
p2051
I1
sVcz2bhjy
p2052
I1
sVd7hnnjt
p2053
I1
sVdh20zq9
p2054
I1
sVdclo3y9
p2055
I1
sVdqbd1k4
p2056
I1
sVdfu86ui
p2057
I1
sVczzwt1e
p2058
I1
sVdnmajq0
p2059
I1
sVdqpczl7
p2060
I2
sVdik79f4
p2061
I1
sVdj4gb98
p2062
I1
sVdj8kcov
p2063
I1
sVd5odjpq
p2064
I1
sVd2hfsdf
p2065
I1
sVcyli4o2
p2066
I1
sVd5y1yqt
p2067
I1
sVdgsvvpc
p2068
I1
sVd5yixwa
p2069
I1
sVd2be2mc
p2070
I1
sVd12bl1d
p2071
I1
sVd629zw1
p2072
I1
sVd1cuplz
p2073
I1
sVd8ufkq4
p2074
I1
sVd6zpptb
p2075
I1
sVdsgl6jv
p2076
I1
sVd1zmp73
p2077
I1
sVd1b6dqf
p2078
I1
sVdqlf8lq
p2079
I1
sVdeg1oh6
p2080
I1
sVdeb3k6p
p2081
I1
sVdh6fuuv
p2082
I1
sVd6sba1k
p2083
I1
sVd84iuln
p2084
I1
sVd44nj4z
p2085
I1
sVde6vdf8
p2086
I1
sVczevsun
p2087
I1
sVd0frfs8
p2088
I1
sVd5xjalw
p2089
I1
sVdd6snd8
p2090
I1
sVdckljis
p2091
I1
sVd79su7g
p2092
I1
sVd074v35
p2093
I1
sVd3bc1xo
p2094
I1
sVdbzgxfs
p2095
I1
sVdbjgdxn
p2096
I1
sVdr0e80j
p2097
I1
sVdctlvhv
p2098
I1
sVdesg373
p2099
I1
sVd94aso3
p2100
I1
sVd02s3ld
p2101
I1
sVdqv5ycp
p2102
I1
sVdgusfi0
p2103
I1
sVd9xvjuo
p2104
I1
sVdfl02ut
p2105
I1
sVd36yle9
p2106
I1
sVdk7we5y
p2107
I1
sVd55rzeh
p2108
I1
sVd5gvptr
p2109
I1
sVdi9hzic
p2110
I1
sVdrndvgb
p2111
I1
sVd4t63jw
p2112
I1
sVcz4wa1q
p2113
I2
sVd38g2eg
p2114
I1
sVd29omui
p2115
I1
sVddtriyx
p2116
I1
sVdthltts
p2117
I2
sVd3tkmy3
p2118
I1
sVdezwrcc
p2119
I1
sVd3141lj
p2120
I2
sVdb5o8lt
p2121
I1
sVcz8cf0b
p2122
I1
sVcz0g3ul
p2123
I1
sVdmvk87t
p2124
I1
sVdcazdue
p2125
I1
sVd26kchr
p2126
I1
sVd66rl5j
p2127
I2
sVczhgua0
p2128
I1
sVcyq0dyv
p2129
I1
sVdrwakal
p2130
I2
sVdc1h4e5
p2131
I1
sVdcy2vnw
p2132
I1
sVdd8b0yu
p2133
I1
sVdalkg0u
p2134
I1
sVdo4ow73
p2135
I1
sVddy07qq
p2136
I1
sVdnuj8pl
p2137
I1
sVdgizuqo
p2138
I1
sVd1p17va
p2139
I1
sVd2b06c2
p2140
I1
sVd3xzkdw
p2141
I1
sVczviotl
p2142
I1
sVd23qatb
p2143
I1
sVd0i2qk4
p2144
I1
sVde59034
p2145
I1
sVdoeadoh
p2146
I1
sVdk2txzg
p2147
I1
sVd7g1tsq
p2148
I2
sVda23fl5
p2149
I1
sVdr9pl8n
p2150
I1
sVdbfehc1
p2151
I1
sVdf679sx
p2152
I1
sVd4efb85
p2153
I1
sVdafhalv
p2154
I1
sVd08p6p4
p2155
I1
sVdcy2lni
p2156
I2
sVczuxftz
p2157
I1
sVde1uxst
p2158
I1
sVd95orh8
p2159
I1
sVdfz39na
p2160
I1
sVdn5g4u9
p2161
I1
sVcykgncv
p2162
I2
sVd3lhsim
p2163
I1
sVdt5uxr6
p2164
I1
sVdacqurq
p2165
I1
sVd47gaao
p2166
I1
sVdb2pdlp
p2167
I1
sVdsfezan
p2168
I1
sVd29txb8
p2169
I1
sVczberzd
p2170
I1
sVd5y4lum
p2171
I1
sVcyw83in
p2172
I1
sVdk7cfyy
p2173
I1
sVdnhkod3
p2174
I1
sVdrkjoi7
p2175
I1
sVdhi9sko
p2176
I1
sVd9yxgm4
p2177
I1
sVd2hy8cv
p2178
I1
sVd6rsjo9
p2179
I1
sVdjuaa2b
p2180
I1
sVdqbcm50
p2181
I1
sVdg2nel3
p2182
I1
sVdmom7ue
p2183
I2
sVd6f2tc3
p2184
I1
sVdboxqp5
p2185
I1
sVd0jgv8o
p2186
I1
sVdfcx69u
p2187
I1
sVdctnqmy
p2188
I1
sVczen6om
p2189
I1
sVdbggbzp
p2190
I1
sVd00v26i
p2191
I1
sVdgkfkt6
p2192
I2
sVdrnoft0
p2193
I1
sVdqgsdq2
p2194
I1
sVd31dnbg
p2195
I1
sVdgdf8dz
p2196
I1
sVdb1a06z
p2197
I1
sVdku2nid
p2198
I1
sVd17qx07
p2199
I1
sVd3uvhp3
p2200
I1
sVd7u5vew
p2201
I1
sVdggqt4f
p2202
I1
sVd9evnf7
p2203
I1
sVdo1rlgr
p2204
I1
sVd88dwyh
p2205
I1
sVdceyh4a
p2206
I1
sVdb4z9nt
p2207
I1
sVdik3uuz
p2208
I1
sVd1ys3kp
p2209
I1
sVd9151fd
p2210
I1
sVdelwhfh
p2211
I1
sVczkmlkv
p2212
I1
sVdaeaev3
p2213
I1
sVdf9arig
p2214
I1
sVd33u3t7
p2215
I1
sVdczcj57
p2216
I1
sVd07z3mr
p2217
I1
sVd5m7pxf
p2218
I1
sVd1p0mx2
p2219
I1
sVdsp6j2u
p2220
I1
sVdf7tw6f
p2221
I1
sVdifx870
p2222
I1
sVd0q4aao
p2223
I1
sVd0o73w1
p2224
I1
sVd9xxuri
p2225
I1
sVcz97r8s
p2226
I1
sVd555q4a
p2227
I1
sVdh5jbyh
p2228
I1
sVdp7tiej
p2229
I1
sVdawgosm
p2230
I1
sVdfpdeg6
p2231
I1
sVd4o28f4
p2232
I1
sVdmvcb39
p2233
I1
sVd87ppwn
p2234
I1
sVd94d8n2
p2235
I1
sVdbqw8vi
p2236
I1
sVd19ydt7
p2237
I1
sVczp8skq
p2238
I1
sVdd6ke8c
p2239
I2
sVdelsboq
p2240
I1
sVdffg5l6
p2241
I1
sVcz8prb1
p2242
I1
sVdr3xizi
p2243
I1
sVdf9ygbg
p2244
I1
sVd8wz66j
p2245
I1
sVcynv8j8
p2246
I3
sVdo3fydu
p2247
I1
sVdf5bn4v
p2248
I1
sVdbyv9vh
p2249
I2
sVddm6j6z
p2250
I1
sVddr4u2h
p2251
I1
sVd33kj4t
p2252
I1
sVd27decm
p2253
I2
sVcypd5l0
p2254
I1
sVd72y354
p2255
I1
sVd9wk8v1
p2256
I1
sVdf1zyne
p2257
I1
sVd6cuin3
p2258
I1
sVdhlnul9
p2259
I1
sVd9gritv
p2260
I1
sVd19ijit
p2261
I1
sVd75uek1
p2262
I1
sVdk8s0gt
p2263
I1
sVdc2mriv
p2264
I1
sVd5i4lpc
p2265
I1
sVd6jwubr
p2266
I1
sVd4yg8f9
p2267
I1
sVdqmtphd
p2268
I1
sVdjlo70d
p2269
I1
sVderrbmd
p2270
I1
sVdae2297
p2271
I1
sVd5jhj8g
p2272
I1
sVd58reid
p2273
I1
sVdeu5z8m
p2274
I1
sVdf9lnqm
p2275
I1
sVcz3iv1m
p2276
I1
sVdckoetr
p2277
I1
sVdclrn6p
p2278
I1
sVd15feyr
p2279
I1
sVcznwhao
p2280
I1
sVdcnah19
p2281
I1
sVdimhz9b
p2282
I1
sVd5rizq7
p2283
I1
sVd3c4s7q
p2284
I1
sVcz4e698
p2285
I1
sVdh7mche
p2286
I1
sVdo7l7xt
p2287
I1
sVdq3gthc
p2288
I1
sVdj5y76b
p2289
I1
sVd0bs7ug
p2290
I1
sVdgdsot8
p2291
I1
sVd1de2v8
p2292
I1
sVdfbf7tv
p2293
I1
sVd8iy5eb
p2294
I1
sVdkd4aq8
p2295
I2
sVdtinth5
p2296
I2
sVd9ag18v
p2297
I1
sVdf79z3k
p2298
I1
sVde18c8s
p2299
I1
sVcz05tpx
p2300
I1
sVdgao6j4
p2301
I1
sVd1kr7na
p2302
I1
sVd00jzgf
p2303
I1
sVd22aoll
p2304
I1
sVd3583jr
p2305
I1
sVd5hkx9c
p2306
I1
sVd6ih583
p2307
I1
sVd9ld1rw
p2308
I1
sVd6aroqa
p2309
I1
sVd350bgh
p2310
I2
sVdkr7b52
p2311
I1
sVczv6er4
p2312
I1
sVd2a3bt4
p2313
I1
sVd3i1t64
p2314
I2
sVddvtjt4
p2315
I2
sVd8v4voc
p2316
I1
sVdr1k8it
p2317
I1
sVdryuipy
p2318
I1
sVdcdav33
p2319
I1
sVdeijdcx
p2320
I1
sVdflvf6p
p2321
I1
sVdo899r9
p2322
I1
sVd3y33u6
p2323
I1
sVd1wbths
p2324
I1
sVd1qi6a4
p2325
I1
sVd7byjh5
p2326
I1
sVdk6dn1h
p2327
I1
sVdgf25d9
p2328
I1
sVddcrder
p2329
I1
sVcz993bl
p2330
I2
sVdeipa4y
p2331
I1
sVd8tun4s
p2332
I1
sVdjk4nqd
p2333
I1
sVdbm4120
p2334
I1
sVcyyf4bb
p2335
I1
sVd8scwd6
p2336
I1
sVd8ut7we
p2337
I1
sVd21s01e
p2338
I1
sVdig0l8p
p2339
I1
sVcyzt6ks
p2340
I2
sVd6hm416
p2341
I1
sVdmo7dhj
p2342
I1
sVden3jgq
p2343
I1
sVdoes1x9
p2344
I1
sVddrgj56
p2345
I1
sVdf5l37s
p2346
I1
sVdam1kq8
p2347
I1
sVdf8etbm
p2348
I1
sVdd2hjoy
p2349
I1
sVd0o9wud
p2350
I1
sVddwihr1
p2351
I1
sVdj1rd71
p2352
I1
sVdqftrny
p2353
I1
sVd306ie7
p2354
I1
sVdih8axs
p2355
I2
sVdbmvgdy
p2356
I1
sVdcdn5px
p2357
I1
sVds82q1c
p2358
I1
sVdkd2ghx
p2359
I3
sVd1j8sdf
p2360
I1
sVd1t1kgp
p2361
I1
sVdgzckxt
p2362
I1
sVdhhywrf
p2363
I1
sVda5bvkz
p2364
I1
sVd86wuwk
p2365
I2
sVdte1qzb
p2366
I1
sVdo2ovqv
p2367
I1
sVdkajzyf
p2368
I1
sVdkprjtz
p2369
I2
sVcyr39mo
p2370
I1
sVd6za9h8
p2371
I1
sVd1fgnz9
p2372
I1
sVd64o94u
p2373
I1
sVd2ujdez
p2374
I1
sVdfkract
p2375
I1
sVd4fa7na
p2376
I1
sVdjkd6qd
p2377
I1
sVdg47z70
p2378
I1
sVdejavca
p2379
I1
sVdkvapti
p2380
I1
sVdngxzcm
p2381
I1
sVdt0cxqk
p2382
I2
sVd25xsfq
p2383
I1
sVdnfw90v
p2384
I1
sVddbfts4
p2385
I1
sVdduf1y3
p2386
I1
sVdnjd7mk
p2387
I1
sVdjq9z3p
p2388
I1
sVdhbzzp2
p2389
I1
sVd4jpzql
p2390
I1
sVd6xgpa2
p2391
I1
sVddnig1u
p2392
I1
sVdp473i5
p2393
I1
sVdcr8b95
p2394
I1
sVd7k3330
p2395
I1
sVd957m10
p2396
I1
sVdj0ttfo
p2397
I1
sVd8kjqb1
p2398
I1
sVded5kkd
p2399
I1
sVd2mwtwc
p2400
I1
sVd8rth9r
p2401
I1
sVd56vcv1
p2402
I1
sVdjkr9hb
p2403
I1
sVd3kg8ch
p2404
I1
sVdogeac9
p2405
I1
sVdflniyb
p2406
I4
sVd6eojjx
p2407
I1
sVdru74s8
p2408
I1
sVdivsx79
p2409
I1
sVdh9xpt8
p2410
I1
sVcyk8h2v
p2411
I1
sVdqnsf4n
p2412
I2
sVd8j18wn
p2413
I1
sVdglridl
p2414
I1
sVdr2lhs0
p2415
I1
sVcykzqze
p2416
I2
sVdepwxw3
p2417
I1
sVdrkurq5
p2418
I2
sVdec2039
p2419
I1
sVd9dhdze
p2420
I1
sVd7nco20
p2421
I1
sVdepold1
p2422
I1
sVddbj728
p2423
I1
sVd1otut5
p2424
I1
sVdie92jc
p2425
I1
sVdii3f99
p2426
I1
sVd7zy4ei
p2427
I2
sVd3qmoix
p2428
I1
sVd0q13jv
p2429
I1
sVdi071hl
p2430
I1
sVd00sbv0
p2431
I1
sVd53apyi
p2432
I1
sVd8zpn14
p2433
I1
sVd5mapac
p2434
I1
sVdafghe0
p2435
I1
sVdj5advs
p2436
I1
sVdd5li5q
p2437
I1
sVdbyk5co
p2438
I1
sVd2oysav
p2439
I1
sVd99qdiw
p2440
I1
sVdoidg9r
p2441
I2
sVddpaaax
p2442
I1
sVd4kx2li
p2443
I1
sVd0zeods
p2444
I1
sVd3mnepo
p2445
I1
sVdpaadxi
p2446
I1
sVd7myv5g
p2447
I1
sVddoc7l8
p2448
I1
sVdqfk39v
p2449
I1
sVdiismeq
p2450
I1
sVd7de048
p2451
I1
sVdi8o9pf
p2452
I1
sVdg6akue
p2453
I1
sVdgdq3gx
p2454
I1
sVd6d1ogb
p2455
I1
sVdgdv7bo
p2456
I2
sVdo39mh9
p2457
I1
sVdap3um2
p2458
I1
sVdhbbgkw
p2459
I1
sVd028ser
p2460
I1
sVd1jilvo
p2461
I2
sVdmulhb2
p2462
I2
sVd26qtv9
p2463
I1
sVd7jco20
p2464
I1
sVdcyz2o7
p2465
I1
sVdi2kpfz
p2466
I1
sVdfsp0ia
p2467
I1
sVd22kh7l
p2468
I1
sVczyt8kx
p2469
I1
sVdcja52p
p2470
I1
sVd8ax39c
p2471
I1
sVd2nhg8h
p2472
I1
sVd27t1cc
p2473
I1
sVd8rmh57
p2474
I1
sVdi4m4ik
p2475
I1
sVdcy8fvf
p2476
I1
sVd698phk
p2477
I1
sVds3hr6s
p2478
I1
sVd0ilmrj
p2479
I1
sVdbjpgjj
p2480
I3
sVdo248u1
p2481
I1
sVdifjfv0
p2482
I1
sVd426yty
p2483
I1
sVd3ie8um
p2484
I1
sVdpjdklo
p2485
I2
sVdazekz8
p2486
I1
sVdizrlfk
p2487
I2
sVdd48u7y
p2488
I1
sVdjd78ax
p2489
I1
sVd5nls4c
p2490
I1
sVdau4f7i
p2491
I2
sVd0866ju
p2492
I1
sVdqllg3s
p2493
I5
sVd0vckel
p2494
I1
sVdeft8tz
p2495
I1
sVdibzkvh
p2496
I1
sVdp2n2sw
p2497
I1
sVdggk5ja
p2498
I1
sVdhqcvoc
p2499
I1
sVd303uly
p2500
I1
sVdmhklst
p2501
I1
sVdslme9a
p2502
I1
sVdbfziii
p2503
I1
sVd1p6mqo
p2504
I1
sVcypwfc8
p2505
I1
sVcyuks9n
p2506
I1
sVd1i1hsw
p2507
I1
sVd0yg2le
p2508
I1
sVcyvczpk
p2509
I2
sVcypljq9
p2510
I1
sVd2xpfxe
p2511
I1
sVd37qmqu
p2512
I1
sVdrycy6j
p2513
I1
sVdoemv68
p2514
I1
sVdh4dsik
p2515
I1
sVd2p5qrm
p2516
I1
sVd89bieg
p2517
I1
sVddrxji5
p2518
I1
sVd4zrs10
p2519
I1
sVdggur84
p2520
I1
sVdeb6d5v
p2521
I1
sVczzi1td
p2522
I1
sVdjjk17a
p2523
I1
sVd09r4qj
p2524
I1
sVd08e5ri
p2525
I1
sVdh28v6u
p2526
I1
sVdejba7d
p2527
I1
sVdi5cc6m
p2528
I2
sVdn10knt
p2529
I2
sVd23t77j
p2530
I1
sVdiuq0ox
p2531
I2
sVd2in6l0
p2532
I1
sVd1hhd4a
p2533
I1
sVd6x0p7b
p2534
I1
sVdak5m2s
p2535
I1
sVdh1nfen
p2536
I1
sVdct0718
p2537
I1
sVdk7ofcb
p2538
I1
sVdd8k4s9
p2539
I2
sVdfwmoim
p2540
I1
sVd8qzz5r
p2541
I2
sVd030q38
p2542
I2
sVd6hbx6h
p2543
I1
sVd1jjkoq
p2544
I1
sVd062rpf
p2545
I1
sVddkyhja
p2546
I1
sVdgtbjrz
p2547
I1
sVdbdg8sx
p2548
I1
sVdjon0c8
p2549
I1
sVded3eko
p2550
I1
sVd2ltkrg
p2551
I1
sVdqg00qy
p2552
I1
sVdjlorpt
p2553
I1
sVd2t2uto
p2554
I1
sVd8zz3u9
p2555
I1
sVd5r7sww
p2556
I1
sVds0fekj
p2557
I2
sVd4i5wy2
p2558
I1
sVcypirdr
p2559
I1
sVdicmx7w
p2560
I1
sVdjs4863
p2561
I1
sVcyw0qcb
p2562
I1
sVd27e8m2
p2563
I1
sVdjdmlih
p2564
I1
sVdjfwjq4
p2565
I1
sVd0kn8u2
p2566
I1
sVd0hfq1u
p2567
I1
sVd8k8ioz
p2568
I1
sVcz71l4g
p2569
I1
sVd8zfnxl
p2570
I1
sVd9z4okd
p2571
I1
sVd4pse0t
p2572
I1
sVd0naok9
p2573
I1
sVd8g01f7
p2574
I1
sVd6v38j5
p2575
I1
sVdf4n9vk
p2576
I1
sVczfzf7i
p2577
I1
sVd85rgt1
p2578
I1
sVdfcb5y8
p2579
I1
sVcza0nlv
p2580
I1
sVde9qd67
p2581
I1
sVd2nik5l
p2582
I1
sVd32yrhp
p2583
I1
sVd31zsz1
p2584
I1
sVd3atr60
p2585
I1
sVd9dl7xw
p2586
I1
sVd49rk0e
p2587
I1
sVd0b8qlh
p2588
I1
sVdhdi8j8
p2589
I2
sVcz0s3ra
p2590
I1
sVd6zxlkf
p2591
I1
sVdgfu27f
p2592
I1
sVdpkgdy1
p2593
I1
sVdtio2p3
p2594
I1
sVcynrcdp
p2595
I1
sVd7fawtb
p2596
I2
sVd7ggdh4
p2597
I1
sVdn00xqd
p2598
I1
sVdgpb6wg
p2599
I1
sVdkmfc71
p2600
I1
sVdi66y8l
p2601
I1
sVdeinz6s
p2602
I1
sVd33a78b
p2603
I1
sVdemlzqs
p2604
I1
sVd8rmr0p
p2605
I1
sVd8p56a1
p2606
I1
sVdcio3au
p2607
I1
sVdat6wxe
p2608
I1
sVdmhk6nc
p2609
I1
sVdgbt3gq
p2610
I1
sVdguguhi
p2611
I1
sVczmetmf
p2612
I1
sVd624ijf
p2613
I1
sVd21lj01
p2614
I1
sVdaee0pb
p2615
I1
sVcz0xsph
p2616
I1
sVdg4thrj
p2617
I1
sVd6n57y3
p2618
I1
sVdfwu077
p2619
I1
sVdkhl99r
p2620
I1
sVdqnho4t
p2621
I1
sVcypxozk
p2622
I1
sVd0ov3m9
p2623
I1
sVd27br9h
p2624
I1
sVdb5j6b0
p2625
I1
sVdogr88i
p2626
I1
sVdopt4sr
p2627
I1
sVd1oim90
p2628
I1
sVdh5n9aa
p2629
I1
sVcyjayna
p2630
I1
sVd2lzzb2
p2631
I1
sVdeuyhmi
p2632
I1
sVdd8mzx0
p2633
I1
sVdtf922a
p2634
I1
sVd2lyd4z
p2635
I1
sVcz1gkls
p2636
I1
sVd47j8eq
p2637
I2
sVdaouvnp
p2638
I3
sVdchiecr
p2639
I1
sVdqg0rb2
p2640
I1
sVd72e5gp
p2641
I1
sVdi7x46z
p2642
I1
sVdexyx82
p2643
I2
sVddpmc7x
p2644
I1
sVd79m4ul
p2645
I1
sVd3flvl3
p2646
I2
sVd4lmsjr
p2647
I2
sVd7tf5lj
p2648
I1
sVd5ppqyj
p2649
I1
sVd38mkhk
p2650
I1
sVcytzf8y
p2651
I1
sVd8hzgn1
p2652
I1
sVd66ry8x
p2653
I1
sVczv00of
p2654
I1
sVdnynktp
p2655
I1
sVdedmy7p
p2656
I1
sVd27o102
p2657
I1
sVddpqxaj
p2658
I1
sVdcs3z2b
p2659
I1
sVdivo8kk
p2660
I1
sVd82pm6b
p2661
I1
sVdi4ydhh
p2662
I1
sVdbsx5ab
p2663
I1
sVdgigxa2
p2664
I1
sVd898wg5
p2665
I1
sVd8cwauz
p2666
I2
sVdtfshuy
p2667
I1
sVdki8iyj
p2668
I1
sVdkd54t8
p2669
I1
sVdsvaeix
p2670
I1
sVd2yc3gv
p2671
I1
sVd2xbmn2
p2672
I1
sVd8co6g1
p2673
I1
sVd2urdj3
p2674
I2
sVdie9far
p2675
I1
sVd58yjag
p2676
I1
sVdggulz1
p2677
I1
sVdaevmol
p2678
I1
sVdf8pr2k
p2679
I1
sVdovdji1
p2680
I1
sVdfhzn0m
p2681
I1
sVd06k52e
p2682
I3
sVd856s1p
p2683
I1
sVcyp4fn5
p2684
I1
sVdgiiqj0
p2685
I1
sVddk75ew
p2686
I2
sVdr0m13z
p2687
I1
sVdi8fqb3
p2688
I1
sVd3r1ykv
p2689
I1
sVdd5n21y
p2690
I1
sVdtcaixl
p2691
I1
sVdenxfsr
p2692
I1
sVdqki68c
p2693
I1
sVd1rccr3
p2694
I1
sVdowban3
p2695
I1
sVdizl32r
p2696
I1
sVdibjv3u
p2697
I1
sVcz4y7pv
p2698
I1
sVczcibzm
p2699
I1
sVczmrg5i
p2700
I1
sVd2jsnsl
p2701
I1
sVcyvao1d
p2702
I2
sVdev633e
p2703
I1
sVdgcgqhv
p2704
I1
sVdk8r870
p2705
I2
sVdsbkxuv
p2706
I1
sVd19c8x6
p2707
I1
sVdb1rqde
p2708
I1
sVd0n8x12
p2709
I1
sVdcntapz
p2710
I2
sVcyqawuy
p2711
I1
sVd0bh4ca
p2712
I1
sVdiduhpq
p2713
I1
sVd3rdtz6
p2714
I1
sVdgkc7ke
p2715
I2
sVd7psb59
p2716
I1
sVdjxagmt
p2717
I2
sVdrt51kj
p2718
I1
sVdq5372x
p2719
I1
sVd8eohk1
p2720
I1
sVd2syyou
p2721
I1
sVd6afalk
p2722
I1
sVda46hh8
p2723
I1
sVd65ws01
p2724
I1
sVdg3y0jb
p2725
I1
sVdeufgyb
p2726
I2
sVdccodv5
p2727
I1
sVdbwx378
p2728
I1
sVd9x351r
p2729
I1
sVd20s5go
p2730
I1
sVdg3z7ch
p2731
I1
sVdh65dou
p2732
I1
sVdcwnl1l
p2733
I3
sVd4o861d
p2734
I1
sVdby392s
p2735
I1
sVde2zgeq
p2736
I3
sVd5rse5a
p2737
I1
sVdotpmhv
p2738
I1
sVd2aosy2
p2739
I1
sVd1h992u
p2740
I1
sVdo5ckap
p2741
I1
sVd0zsunq
p2742
I1
sVd9j0x7a
p2743
I1
sVczu5ge3
p2744
I1
sVczitp96
p2745
I1
sVdk91ja5
p2746
I1
sVdf6amx5
p2747
I1
sVczen3vn
p2748
I1
sVd138xie
p2749
I1
sVdp6ie8h
p2750
I1
sVd3buebl
p2751
I1
sVdko4o7n
p2752
I1
sVd00x1wa
p2753
I1
sVd39p39t
p2754
I1
sVd3i424a
p2755
I1
sVdsbnfxr
p2756
I1
sVd8zgep2
p2757
I1
sVddudwb5
p2758
I1
sVdqctrf1
p2759
I1
sVdqdblpm
p2760
I1
sVd97qz10
p2761
I1
sVd0tptx8
p2762
I1
sVdqhb5c2
p2763
I1
sVdcilhk4
p2764
I1
sVd03f953
p2765
I1
sVd0wnvv6
p2766
I1
sVcz5g9en
p2767
I1
sVdfvkt12
p2768
I1
sVds9m1kr
p2769
I1
sVdrryhgr
p2770
I1
sVd62q97r
p2771
I1
sVdn4hb0b
p2772
I1
sVdajkywi
p2773
I1
sVdhr37xb
p2774
I1
sVd7xx4fg
p2775
I1
sVdcmmvtf
p2776
I1
sVd7mdxz6
p2777
I1
sVdaukxoy
p2778
I3
sVd3p1tyo
p2779
I1
sVd0znjdy
p2780
I1
sVdpwstod
p2781
I1
sVdbjeqk5
p2782
I2
sVd7rdp5u
p2783
I1
sVd9r5aul
p2784
I1
sVdb8b6qg
p2785
I1
sVdbgz8ck
p2786
I1
sVdhwwuhx
p2787
I1
sVdink3r7
p2788
I1
sVdegr6r7
p2789
I1
sVdacj4a2
p2790
I1
sVd7ukv1a
p2791
I1
sVd1rkv62
p2792
I1
sVdiy2pb5
p2793
I1
sVczhd7dn
p2794
I1
sVdk5p3ow
p2795
I1
sVdahkdlh
p2796
I1
sVdmrowkk
p2797
I1
sVd4hpy9j
p2798
I1
sVdt4roxg
p2799
I1
sVdnh4u95
p2800
I1
sVdk6r6xo
p2801
I1
sVdayrcp4
p2802
I1
sVd35fkym
p2803
I1
sVd0mexek
p2804
I1
sVd0r26sc
p2805
I1
sVd5g0l6m
p2806
I1
sVdr2gu1w
p2807
I1
sVd3m8sso
p2808
I1
sVd7i1nm1
p2809
I1
sVdnkqizu
p2810
I1
sVdggi8op
p2811
I1
sVdazp9dk
p2812
I1
sVdi34sv8
p2813
I1
sVdmf6nn7
p2814
I1
sVd4o9oos
p2815
I2
sVd5ip1rq
p2816
I2
sVdg3z87b
p2817
I1
sVds6fcl0
p2818
I1
sVddcex1q
p2819
I1
sVd3z1n7w
p2820
I1
sVdh0m0cu
p2821
I1
sVdig3f7f
p2822
I1
sVddde84p
p2823
I1
sVd0fn12f
p2824
I1
sVdenvlag
p2825
I2
sVd0ae2jp
p2826
I1
sVczwrgoo
p2827
I1
sVd1ovdin
p2828
I1
sVds00bz2
p2829
I1
sVder2mvh
p2830
I1
sVd65xojr
p2831
I1
sVd0mtk1f
p2832
I1
sVdcezwgd
p2833
I1
sVd3rzvan
p2834
I1
sVdb5ewsh
p2835
I1
sVd72irew
p2836
I1
sVdele7i8
p2837
I1
sVdg7351b
p2838
I1
sVd4wkahv
p2839
I1
sVd35gu53
p2840
I1
sVd2wq3nd
p2841
I1
sVcyzux3z
p2842
I1
sVdcujio6
p2843
I1
sVczhrj1a
p2844
I1
sVd0g7cat
p2845
I1
sVcysnyu7
p2846
I1
sVdgmom64
p2847
I1
sVd29oof2
p2848
I1
sVdez8rrn
p2849
I1
sVcyrajt4
p2850
I1
sVdctzhdt
p2851
I1
sVd40pkgc
p2852
I1
sVd8pr46i
p2853
I1
sVdqgqe19
p2854
I1
sVdr86oka
p2855
I1
sVd9ei87k
p2856
I1
sVdi3lhte
p2857
I1
sVdg2czx4
p2858
I1
sVdq3yul0
p2859
I1
sVdkqzb2a
p2860
I1
sVd00ttub
p2861
I1
sVdd8z0xi
p2862
I1
sVcz4ufta
p2863
I1
sVd39scli
p2864
I1
sVd8rxny9
p2865
I1
sVdir8zuy
p2866
I1
sVd5w598j
p2867
I1
sVczi2e2g
p2868
I1
sVd7l16h9
p2869
I1
sVd9m2qnx
p2870
I1
sVd40lf5o
p2871
I1
sVd5kz5xg
p2872
I1
sVd8zcqzm
p2873
I1
sVdeousia
p2874
I1
sVdt3hk2r
p2875
I1
sVdqz2nm8
p2876
I1
sVd1vhwch
p2877
I1
sVde06ytv
p2878
I1
sVd2qw14t
p2879
I1
sVd10sbpr
p2880
I2
sVd162l93
p2881
I1
sVdexb8hw
p2882
I1
sVdq6jf8p
p2883
I1
sVd1rnm2r
p2884
I1
sVdi529ak
p2885
I1
sVdemffx5
p2886
I1
sVdryuqt7
p2887
I1
sVd7ie2gl
p2888
I1
sVdf9undi
p2889
I1
sVde95fmr
p2890
I1
sVd3nhgm3
p2891
I1
sVczworam
p2892
I1
sVdf93ju7
p2893
I1
sVd1gylp4
p2894
I2
sVde3ywih
p2895
I1
sVczh28sr
p2896
I1
sVdoek91u
p2897
I1
sVcz81mf4
p2898
I1
sVdd1zcz0
p2899
I1
sVdjra94s
p2900
I1
sVdivcdq7
p2901
I1
sVd5ps1fs
p2902
I1
sVd8eqwes
p2903
I1
sVdj2yi75
p2904
I1
sVd4qw88q
p2905
I1
sVdn4dw27
p2906
I1
sVdfgs89z
p2907
I1
sVd6em177
p2908
I1
sVdcnst39
p2909
I1
sVdp99151
p2910
I1
sVdmrqjp0
p2911
I1
sVdhbmnua
p2912
I2
sVdf0ol70
p2913
I2
sVdb86p32
p2914
I1
sVdjy4yxu
p2915
I1
sVd3ymnbx
p2916
I1
sVczqchck
p2917
I1
sVcz4x7s5
p2918
I1
sVczdrg2a
p2919
I1
sVczh3z30
p2920
I1
sVdj4n55g
p2921
I1
sVdq22e7b
p2922
I1
sVdqfc4zn
p2923
I1
sVdds2eo8
p2924
I2
sVcyr03qu
p2925
I1
sVdpafpbi
p2926
I1
sVdbp0l5h
p2927
I1
sVdbb6txt
p2928
I1
sVdkdfpvv
p2929
I1
sVdply8pu
p2930
I1
sVcytxq1g
p2931
I2
sVdoght43
p2932
I3
sVd30x9q5
p2933
I1
sVcz6kqfc
p2934
I1
sVdtfne27
p2935
I1
sVdh0w6i6
p2936
I1
sVd1jukp2
p2937
I1
sVddsyvzv
p2938
I1
sVczsqyun
p2939
I1
sVdidsh6p
p2940
I2
sVdaifu83
p2941
I1
sVd16tf9o
p2942
I1
sVde86pod
p2943
I1
sVdbfqkhf
p2944
I2
sVcywgpeb
p2945
I1
sVdhd7r88
p2946
I1
sVdbq8l72
p2947
I1
sVd1ohef4
p2948
I1
sVd47dspd
p2949
I2
sVd6excul
p2950
I1
sVd90ps4a
p2951
I1
sVdnj406w
p2952
I1
sVd9r83zb
p2953
I1
sVdjlar6b
p2954
I1
sVdgwu2k4
p2955
I1
sVd8ay70m
p2956
I1
sVd9c5sju
p2957
I1
sVd6gpjsq
p2958
I1
sVcyjrmwr
p2959
I1
sVdi2cfof
p2960
I3
sVdei27vv
p2961
I1
sVdj78g71
p2962
I1
sVd0ahg1k
p2963
I1
sVd8qpt6b
p2964
I1
sVd9pxd10
p2965
I1
sVd6lqrp4
p2966
I1
sVd222jcw
p2967
I2
sVcyxnj9k
p2968
I1
sVdhjeyyp
p2969
I1
sVd1ggtxp
p2970
I1
sVdgyalfy
p2971
I2
sVd1xo0z7
p2972
I1
sVdaupkeq
p2973
I1
sVd59dgr9
p2974
I1
sVd7yznyt
p2975
I1
sVd1tt0nu
p2976
I1
sVdbgpo80
p2977
I1
sVd9dq25i
p2978
I1
sVdf0cnl9
p2979
I1
sVd8y3wen
p2980
I1
sVd58mbp7
p2981
I1
sVd7r4z7m
p2982
I1
sVd6fd9kx
p2983
I2
sVdmmj4ds
p2984
I1
sVdgkuwfv
p2985
I1
sVczxeyc4
p2986
I1
sVdkmf89h
p2987
I1
sVd3vqcb2
p2988
I1
sVdh395z1
p2989
I1
sVd312yvz
p2990
I1
sVcz4xum1
p2991
I1
sVd8yrouz
p2992
I1
sVdcjxd4g
p2993
I1
sVdn7dn08
p2994
I1
sVd0zqnw4
p2995
I1
sVdkrojbb
p2996
I1
sVdfwer52
p2997
I1
sVdsdqwvs
p2998
I1
sVd37l50x
p2999
I1
sVcyvv6x0
p3000
I1
sVds3n87q
p3001
I1
sVdhbtbrp
p3002
I1
sVd4o90mi
p3003
I1
sVcyn98ut
p3004
I1
sVdcphm2m
p3005
I2
sVdoelu1j
p3006
I1
sVd921ugs
p3007
I1
sVddkzlk8
p3008
I1
sVdddsira
p3009
I1
sVcz2blrj
p3010
I1
sVdteldka
p3011
I1
sVd6f5u0g
p3012
I2
sVczflpxt
p3013
I1
sVd3nnc6k
p3014
I2
sVd9196ff
p3015
I1
sVdqp7sej
p3016
I1
sVd1yjmho
p3017
I1
sVczi9gxo
p3018
I1
sVddkn5cl
p3019
I1
sVdicwnnu
p3020
I1
sVdt7u7gm
p3021
I1
sVd9nc5re
p3022
I1
sVd2dxe8m
p3023
I2
sVdbdncpj
p3024
I1
sVdgdqns6
p3025
I1
sVd5mreog
p3026
I2
sVd8sad5y
p3027
I1
sVd9fsyrm
p3028
I1
sVd4hui6w
p3029
I1
sVd2uyw0y
p3030
I2
sVdhd3m7v
p3031
I1
sVder9uts
p3032
I1
sVdj8aq62
p3033
I1
sVd1jqlbn
p3034
I1
sVdc8a23y
p3035
I1
sVd0evzte
p3036
I1
sVd1nqr9d
p3037
I1
sVd59w1g1
p3038
I1
sVd9n0962
p3039
I1
sVdeoz75d
p3040
I1
sVcyipv1e
p3041
I1
sVdmtol5c
p3042
I1
sVdhqi32e
p3043
I1
sVd3hewcf
p3044
I2
sVdhg8hva
p3045
I1
sVd5piyp3
p3046
I2
sVczb6tgt
p3047
I1
sVdmgh6dy
p3048
I1
sVdsyz4fi
p3049
I1
sVd21mub7
p3050
I1
sVdjnvuku
p3051
I1
sVdjd3dw7
p3052
I1
sVd8ttbwc
p3053
I1
sVdhjdfhg
p3054
I1
sVdapl5rr
p3055
I2
sVdberu8w
p3056
I1
sVdrjh7le
p3057
I1
sVdht4i6v
p3058
I1
sVdrkc3re
p3059
I2
sVdcmc92u
p3060
I1
sVdhaxf6f
p3061
I1
sVdek7zw6
p3062
I1
sVdamjvu3
p3063
I1
sVd5lzaha
p3064
I1
sVd4l98lo
p3065
I1
sVdqf4k9i
p3066
I1
sVd1pcb36
p3067
I1
sVdio7s0m
p3068
I1
sVcyk7lpn
p3069
I1
sVdjbjs5l
p3070
I3
sVdjn8r65
p3071
I1
sVd2zub3r
p3072
I1
sVdeolmeo
p3073
I1
sVd5xntx9
p3074
I1
sVdkygeed
p3075
I1
sVdb24w73
p3076
I1
sVdms20xr
p3077
I1
sVdo8pkuz
p3078
I1
sVd3fjhp3
p3079
I1
sVdcxmx2i
p3080
I1
sVd026g2o
p3081
I1
sVddrinr6
p3082
I1
sVdi6p4eu
p3083
I1
sVdg5zitz
p3084
I1
sVddd4dnp
p3085
I1
sVd0rizsf
p3086
I1
sVczvfbfr
p3087
I1
sVd0quhq7
p3088
I1
sVdh2ydmq
p3089
I1
sVd11k2bg
p3090
I1
sVd8hm54u
p3091
I1
sVdhgq385
p3092
I1
sVdbyuamb
p3093
I1
sVd34ks79
p3094
I1
sVdq4xm2y
p3095
I1
sVcyzyzno
p3096
I1
sVd7k7xxl
p3097
I1
sVd594bln
p3098
I1
sVdaz4on9
p3099
I1
sVda7g40b
p3100
I1
sVdc4epu4
p3101
I1
sVcyqol5o
p3102
I1
sVdg8rion
p3103
I1
sVd7rf10e
p3104
I2
sVdpzvp1f
p3105
I1
sVddpp26f
p3106
I5
sVdgy5qwq
p3107
I1
sVcytuql8
p3108
I1
sVd9tuq4q
p3109
I1
sVdpcjsj6
p3110
I1
sVd5xgx2x
p3111
I1
sVdjzac2s
p3112
I1
sVdcq00es
p3113
I1
sVdeu9pa9
p3114
I1
sVd8xfm95
p3115
I2
sVczj2owd
p3116
I1
sVdgd6d5p
p3117
I1
sVdpm7zd7
p3118
I1
sVdqorn7y
p3119
I2
sVdd0stgp
p3120
I1
sVdgldgm4
p3121
I1
sVd83r5m9
p3122
I3
sVdho7264
p3123
I1
sVdezuqg6
p3124
I1
sVdcj1tn7
p3125
I2
sVd2t8zog
p3126
I1
sVdk8z17z
p3127
I1
sVd0ph25y
p3128
I1
sVdhl1gr9
p3129
I1
sVd5x56o9
p3130
I2
sVdej4awp
p3131
I1
sVdplmy9y
p3132
I1
sVczawkhg
p3133
I1
sVdiv0rby
p3134
I1
sVd32nnyb
p3135
I1
sVdi2e8sn
p3136
I1
sVd543yzh
p3137
I1
sVdeb99e6
p3138
I2
sVdfckyaj
p3139
I1
sVcyla1zy
p3140
I1
sVdon98g1
p3141
I1
sVdggrgdd
p3142
I2
sVdps1xu4
p3143
I1
sVdfwq24d
p3144
I1
sVd82u9lq
p3145
I1
sVd11o1p6
p3146
I1
sVcymdcm4
p3147
I1
sVdam5a90
p3148
I1
sVd1bz7fp
p3149
I1
sVd04kcit
p3150
I1
sVd52jf7p
p3151
I1
sVcylupl8
p3152
I1
sVddwi07e
p3153
I1
sVd2w695j
p3154
I1
sVdnpld7h
p3155
I1
sVdeachrc
p3156
I1
sVdovfsk8
p3157
I1
sVd1l7az7
p3158
I3
sVdhv2zua
p3159
I1
sVd3ycn5n
p3160
I1
sVdhu79c5
p3161
I1
sVd0wno57
p3162
I1
sVcz5dz33
p3163
I1
sVdqkxy9i
p3164
I1
sVd1tbgcq
p3165
I1
sVdkymq3i
p3166
I1
sVd6y3jp5
p3167
I1
sVds159b8
p3168
I1
sVdnylxir
p3169
I2
sVdfa6uj5
p3170
I1
sVdik7hbm
p3171
I1
sVddouvln
p3172
I1
sVdecriig
p3173
I1
sVd0wo09o
p3174
I1
sVczsger6
p3175
I1
sVd1ryfv3
p3176
I1
sVdivhvgr
p3177
I2
sVdhbhi2f
p3178
I1
sVdn39kdw
p3179
I1
sVd8rr763
p3180
I1
sVd3x7kfk
p3181
I1
sVd5llsgh
p3182
I1
sVdt9ppyi
p3183
I1
sVdi2a6gp
p3184
I1
sVd3yaqh2
p3185
I1
sVdearur8
p3186
I1
sVd5wsabs
p3187
I1
sVdgjl3vt
p3188
I1
sVdtfbegl
p3189
I1
sVd8apotz
p3190
I1
sVdchk37l
p3191
I2
sVdrzyeme
p3192
I2
sVdd7f9fw
p3193
I1
sVdfsi406
p3194
I1
sVd1k1a4x
p3195
I1
sVdkqa9uj
p3196
I1
sVdhjg7h6
p3197
I3
sVd5cpcpf
p3198
I1
sVddtipzr
p3199
I1
sVd392336
p3200
I1
sVdblft8m
p3201
I2
sVd9up21g
p3202
I1
sVd5wt68e
p3203
I1
sVd40pixd
p3204
I1
sVd9zcm3q
p3205
I2
sVdr2jc07
p3206
I1
sVczau56e
p3207
I1
sVda6zsdf
p3208
I1
sVcziqd43
p3209
I2
sVd0oph5c
p3210
I2
sVdfmy422
p3211
I1
sVdthhbm0
p3212
I1
sVdmi1ldr
p3213
I1
sVde47303
p3214
I1
sVd1btxxz
p3215
I1
sVd8aqdet
p3216
I1
sVdsuhwxa
p3217
I1
sVdo7g1wl
p3218
I1
sVczbekv5
p3219
I1
sVdta7q97
p3220
I1
sVdjlbx0i
p3221
I1
sVdqq6e5y
p3222
I1
sVdhm7a7r
p3223
I1
sVdmwog76
p3224
I1
sVd6nz6dt
p3225
I3
sVdt72dpb
p3226
I1
sVdbfrw8h
p3227
I1
sVdemom9i
p3228
I1
sVd623rgo
p3229
I1
sVd727m6a
p3230
I1
sVd6l6wfe
p3231
I1
sVdfa486r
p3232
I2
sVdsp9di7
p3233
I2
sVdaxi012
p3234
I1
sVczwq92l
p3235
I1
sVcyuzl46
p3236
I1
sVczb77bi
p3237
I1
sVdiwh2uz
p3238
I1
sVd4is0ta
p3239
I1
sVdds0npo
p3240
I3
sVcznww97
p3241
I1
sVdhjlhcg
p3242
I1
sVdiyi4n2
p3243
I1
sVd33bcqf
p3244
I1
sVd2x8hj6
p3245
I1
sVdbeagji
p3246
I1
sVcz096ep
p3247
I2
sVd7558gt
p3248
I1
sVdjir91j
p3249
I1
sVdhbvwen
p3250
I1
sVdgv3klr
p3251
I1
sVdb308ys
p3252
I1
sVdhdau4y
p3253
I1
sVd0w8504
p3254
I1
sVd6aq11k
p3255
I1
sVd7o3ur6
p3256
I1
sVd7j3a5a
p3257
I1
sVdgi6kco
p3258
I1
sVd2vkpuj
p3259
I1
sVdmuj2v9
p3260
I2
sVdkohz86
p3261
I1
sVcysnief
p3262
I1
sVddalqm7
p3263
I1
sVd72pxtu
p3264
I1
sVdq1y76m
p3265
I1
sVd3np1nc
p3266
I1
sVcylpm6b
p3267
I1
sVddwxia0
p3268
I1
sVd34iai5
p3269
I2
sVd73h2n2
p3270
I2
sVdcauvr8
p3271
I1
sVd5929tj
p3272
I1
sVdgrq7ia
p3273
I1
sVd52trs6
p3274
I1
sVdn44ciy
p3275
I1
sVda53b13
p3276
I1
sVd4kng4v
p3277
I1
sVd64tpwy
p3278
I1
sVdi2ovly
p3279
I1
sVdeyzejq
p3280
I1
sVddzytbl
p3281
I2
sVdp1veyn
p3282
I1
sVdatpyei
p3283
I1
sVdaelgqy
p3284
I1
sVdpnpcct
p3285
I1
sVde4pf94
p3286
I1
sVdd05lwm
p3287
I1
sVdpmgbis
p3288
I1
sVd94ngdz
p3289
I1
sVd7w8j29
p3290
I1
sVdihd31j
p3291
I1
sVdjr2pyp
p3292
I1
sVczu7872
p3293
I1
sVdi59fag
p3294
I1
sVd4z7w82
p3295
I1
sVdjbp1le
p3296
I1
sVd8g04ef
p3297
I1
sVd8rdyh6
p3298
I1
sVdbi0psb
p3299
I2
sVdcg2vlo
p3300
I1
sVdbov4yl
p3301
I1
sVd29p5s0
p3302
I3
sVd4v2m61
p3303
I1
sVdqfhr5b
p3304
I1
sVd9ljbu8
p3305
I1
sVcylb9fv
p3306
I1
sVdhv7ewe
p3307
I1
sVcynx2nj
p3308
I1
sVd9tvhsz
p3309
I1
sVdcl5hks
p3310
I1
sVd1y3tq1
p3311
I1
sVdam26gz
p3312
I1
sVdagph1c
p3313
I2
sVdny2yum
p3314
I1
sVd735l4r
p3315
I1
sVd29ni5w
p3316
I1
sVd3o5as2
p3317
I2
sVdqxs6fw
p3318
I2
sVdrkehkw
p3319
I1
sVdde03sz
p3320
I1
sVdmumohr
p3321
I1
sVdruczmp
p3322
I1
sVczfv7mh
p3323
I2
sVdpyl7mn
p3324
I1
sVd8g5mad
p3325
I1
sVd016atx
p3326
I1
sVdafwr41
p3327
I1
sVcyvqgtj
p3328
I1
sVczrj9jq
p3329
I1
sVd30uflb
p3330
I1
sVddlzlrm
p3331
I1
sVd4w4lhv
p3332
I1
sVdenfv21
p3333
I1
sVdcy25wv
p3334
I1
sVd2jzr5i
p3335
I1
sVdd0b1ie
p3336
I1
sVdgh8id4
p3337
I1
sVczw5acc
p3338
I1
sVdh30h03
p3339
I1
sVdfrr1cl
p3340
I1
sVd2snt8j
p3341
I1
sVd8lw0xe
p3342
I1
sVdgoeusq
p3343
I1
sVd19rv5m
p3344
I1
sVd0fn58f
p3345
I1
sVdpupot1
p3346
I1
sVdij3m6x
p3347
I1
sVczjzijj
p3348
I1
sVd62z2g1
p3349
I1
sVd3p4a7f
p3350
I1
sVdgu502c
p3351
I1
sVcyk74dp
p3352
I1
sVdkssvd5
p3353
I1
sVdgtc2am
p3354
I1
sVdipe7o4
p3355
I1
sVda28zm1
p3356
I1
sVdn8fxrb
p3357
I2
sVda160pw
p3358
I1
sVdg86xbd
p3359
I1
sVdb8a0de
p3360
I1
sVddbxnlf
p3361
I1
sVd9k9x1m
p3362
I1
sVcz8tnn3
p3363
I1
sVd1zsb46
p3364
I1
sVdobv3g6
p3365
I1
sVd04xaai
p3366
I1
sVdg44bj5
p3367
I1
sVdrz0h1w
p3368
I1
sVd7r70bw
p3369
I1
sVdb1fg61
p3370
I2
sVczeks4t
p3371
I1
sVdtixdl4
p3372
I1
sVdqb7z55
p3373
I1
sVd54fzqz
p3374
I1
sVczom6qi
p3375
I1
sVdf263rc
p3376
I1
sVde3a5xj
p3377
I1
sVdhn3j8d
p3378
I1
sVczsgnct
p3379
I1
sVd9kakq3
p3380
I1
sVd29qsvn
p3381
I1
sVdccg4yz
p3382
I1
sVd41a3uo
p3383
I1
sVddofmoq
p3384
I1
sVdac6j11
p3385
I1
sVdnwv9xb
p3386
I1
sVd6xl5ej
p3387
I1
sVd8ia410
p3388
I1
sVd5ddvsu
p3389
I1
sVczs14zb
p3390
I1
sVd6wh1k7
p3391
I1
sVd8t3xxg
p3392
I3
sVd94bg1l
p3393
I1
sVd2azy1w
p3394
I1
sVcytlmwk
p3395
I1
sVdq9kby7
p3396
I1
sVd34kk31
p3397
I1
sVdk1qm9a
p3398
I1
sVd0x581q
p3399
I1
sVdkks9co
p3400
I1
sVd2cv592
p3401
I1
sVdow77sg
p3402
I1
sVdda71sx
p3403
I1
sVdpml930
p3404
I1
sVdqa9y5h
p3405
I1
sVd83wwpy
p3406
I2
sVcywul2u
p3407
I1
sVdgxdlt3
p3408
I1
sVdop4p7i
p3409
I1
sVdjlclvv
p3410
I1
sVd26fys4
p3411
I1
sVcz03n3o
p3412
I1
sVd2v779c
p3413
I1
sVddg2v2l
p3414
I1
sVddzuthi
p3415
I1
sVdj4ak4k
p3416
I1
sVdi4y549
p3417
I1
sVdrz81yz
p3418
I1
sVd8d7y54
p3419
I1
sVdbrhg6w
p3420
I1
sVd5yjlq9
p3421
I1
sVdba0das
p3422
I1
sVd386954
p3423
I1
sVdeh6paj
p3424
I1
sVd3oklmm
p3425
I1
sVdrqh34b
p3426
I1
sVdi6okiw
p3427
I1
sVdc3pkea
p3428
I1
sVdb0hput
p3429
I3
sVdro86dn
p3430
I1
sVdcyjtbu
p3431
I1
sVd6rmc2l
p3432
I1
sVd8oi0mw
p3433
I1
sVdd437pm
p3434
I1
sVd56r61s
p3435
I1
sVd38igpq
p3436
I1
sVddripge
p3437
I1
sVdiikorb
p3438
I1
sVd1ikg0c
p3439
I1
sVdndm4xr
p3440
I1
sVczlz6y5
p3441
I1
sVd5fpi7u
p3442
I2
sVd3toq25
p3443
I1
sVdq6thbn
p3444
I1
sVd06kegk
p3445
I1
sVd2wwgi3
p3446
I1
sVd3daphp
p3447
I1
sVdndjwhf
p3448
I1
sVda677bm
p3449
I1
sVdetrehs
p3450
I1
sVd28fq23
p3451
I4
sVdge1z5h
p3452
I2
sVdcu5li4
p3453
I1
sVdcugxg3
p3454
I1
sVdq2y3sz
p3455
I1
sVdalb7a3
p3456
I1
sVczzk7tq
p3457
I1
sVdad1gjv
p3458
I2
sVdmw3dr9
p3459
I1
sVdcf50y7
p3460
I1
sVd317zv3
p3461
I1
sVdbuyanw
p3462
I2
sVdcq70v3
p3463
I1
sVd2teo1m
p3464
I2
sVd3bhzc3
p3465
I1
sVdbpjeh6
p3466
I1
sVdkcjtvg
p3467
I1
sVd3t6xmo
p3468
I2
sVd2x7sm9
p3469
I1
sVd0alr3n
p3470
I1
sVdbwjnym
p3471
I1
sVd98qhbp
p3472
I1
sVdcdaexr
p3473
I1
sVdii7cy2
p3474
I1
sVdfp8maa
p3475
I1
sVdfhegps
p3476
I1
sVdaaccja
p3477
I1
sVd9gs9gw
p3478
I1
sVcywntfr
p3479
I1
sVdbu51nu
p3480
I1
sVd7ukto3
p3481
I1
sVdflwds6
p3482
I1
sVdcf9zuz
p3483
I1
sVdmnhng8
p3484
I1
sVdgwgtkw
p3485
I1
sVdc64qjt
p3486
I1
sVd51liot
p3487
I2
sVdekpa1w
p3488
I1
sVd69wv29
p3489
I1
sVd490ey9
p3490
I1
sVd5iiab9
p3491
I1
sVd52n3ng
p3492
I1
sVd7oztoq
p3493
I1
sVcz90o9y
p3494
I1
sVdtclz0q
p3495
I1
sVcysy36b
p3496
I1
sVd5svavk
p3497
I1
sVdevzv6b
p3498
I1
sVd3mjpng
p3499
I1
sVdg3t3dw
p3500
I1
sVd5ubjw6
p3501
I1
sVd2heu3a
p3502
I1
sVdc76idl
p3503
I2
sVd065id3
p3504
I1
sVd622spw
p3505
I1
sVdfiv6ba
p3506
I1
sVczwehoi
p3507
I3
sVdr921jh
p3508
I1
sVd0m4jn4
p3509
I1
sVdisxz5i
p3510
I1
sVd1fmy31
p3511
I1
sVdrglb9y
p3512
I1
sVd63yxsh
p3513
I1
sVdivuu9y
p3514
I1
sVcztpjfe
p3515
I1
sVdk0d3m2
p3516
I1
sVczemu1c
p3517
I1
sVd0qg1bd
p3518
I1
sVd2x5tnu
p3519
I1
sVczjcllu
p3520
I1
sVd32jt29
p3521
I1
sVd82pto0
p3522
I1
sVde2ibub
p3523
I2
sVdh1tqp0
p3524
I1
s.