(dp0
Vd13k1bm
p1
I1
sVd9d46m4
p2
I1
sVdfm0ibs
p3
I1
sVdip9y9y
p4
I4
sVderardb
p5
I1
sVd9mcg5m
p6
I1
sVd2s1taz
p7
I1
sVdkie22u
p8
I1
sVd2tj6id
p9
I2
sVd65ns89
p10
I1
sVdort07w
p11
I2
sVd5y4ikg
p12
I1
sVd13q0c1
p13
I2
sVdcpqrdb
p14
I1
sVdizl52d
p15
I1
sVd2gaii3
p16
I1
sVder4nkm
p17
I3
sVdil8qeq
p18
I1
sVddzdetp
p19
I1
sVd8zcpa7
p20
I1
sVd3zjtln
p21
I1
sVdcoj938
p22
I1
sVd4gwp11
p23
I1
sVd4q6r4n
p24
I1
sVdshayng
p25
I1
s.