(dp0
Vd3v62oy
p1
I2
sVczf1j0i
p2
I1
sVdn4oe2d
p3
I3
sVdc4lnvd
p4
I1
sVd2jt8q7
p5
I1
sVdf0miwv
p6
I1
sVd92r4nw
p7
I1
sVd1fnvmj
p8
I1
sVczui2ee
p9
I1
sVdhy0ljr
p10
I2
sVdf915pb
p11
I1
sVdpqt466
p12
I1
sVdaki05h
p13
I1
sVd4ctcf0
p14
I1
sVdd0dxmw
p15
I1
sVdeugeu1
p16
I1
sVd62b3qp
p17
I1
sVd5cvi13
p18
I1
sVdf2auv2
p19
I1
sVdpk7a3r
p20
I1
sVdae64sa
p21
I1
sVdmy9xqs
p22
I1
sVd6lmnq4
p23
I1
sVd28qi6x
p24
I1
sVd744gk7
p25
I1
sVdc2wx9h
p26
I1
sVczjttso
p27
I1
sVd17r4t8
p28
I1
sVdo1yfr6
p29
I1
sVdd8nkgd
p30
I1
sVdt4gd53
p31
I2
sVczz8gtj
p32
I1
sVd8gsm3k
p33
I1
sVdiqgx4s
p34
I1
sVdsv2fxc
p35
I1
sVdabq4b7
p36
I1
sVdeza3jr
p37
I1
sVdqel3xf
p38
I1
sVdabvjoq
p39
I1
sVdc3ao6p
p40
I1
sVdakysbs
p41
I1
sVdj18seh
p42
I1
sVdnaxdh5
p43
I1
sVd1yn063
p44
I1
sVdg3z7ch
p45
I1
sVdk2n8e5
p46
I1
sVcz39yzw
p47
I1
sVd5xqi3j
p48
I1
sVd6i7qm1
p49
I1
sVdd394or
p50
I1
sVd551b88
p51
I1
sVdin8ysi
p52
I1
sVd4kx4ws
p53
I1
sVdf5w3ck
p54
I1
sVddlr94a
p55
I1
sVdibvv2y
p56
I1
sVcyvcy8e
p57
I1
sVcyj0r4u
p58
I1
sVd3vdca0
p59
I1
sVdshak6w
p60
I2
sVdgyn38s
p61
I1
sVdpl9z34
p62
I1
sVdoesaz7
p63
I2
sVdcf3ojp
p64
I1
sVdef3od6
p65
I1
sVd6262yr
p66
I1
sVdhcvkj5
p67
I1
sVcypg0z0
p68
I1
sVdfop2dq
p69
I1
sVczsl3et
p70
I1
sVd3zuhx4
p71
I1
sVczcf1ts
p72
I1
sVd4fpj7t
p73
I1
sVd2ks8ek
p74
I1
sVdp09asv
p75
I1
sVd1esrhj
p76
I1
sVdcb5bob
p77
I1
sVd48u1kz
p78
I1
sVde8o34w
p79
I1
sVd4cqc74
p80
I1
sVdf7pt9k
p81
I1
sVcz92iqc
p82
I1
sVdh5e9k3
p83
I1
sVdb2umdw
p84
I1
sVdgb88av
p85
I1
sVdt30qqe
p86
I1
sVdo9629t
p87
I1
sVdpvbl3d
p88
I1
sVdjvzov1
p89
I1
sVdby1n2f
p90
I1
sVdbnfcey
p91
I1
sVd4a2qte
p92
I1
sVd4v1oj8
p93
I1
sVcyiianv
p94
I1
sVd81yevg
p95
I1
sVdgc40by
p96
I1
sVdqcyup2
p97
I1
sVdandzrh
p98
I1
sVdbinczr
p99
I1
sVd3se9d0
p100
I1
sVd1fr3m1
p101
I1
sVd3g7w5g
p102
I1
sVczte9at
p103
I1
sVdq743jz
p104
I1
sVd9y0u1q
p105
I1
sVdhy0slt
p106
I3
sVcyzli4i
p107
I1
sVdew8iyu
p108
I1
sVdpslklu
p109
I1
sVdax24bc
p110
I1
sVd8llc55
p111
I1
sVdmn6rhn
p112
I1
sVdqtqiv4
p113
I2
sVdp0a2rx
p114
I2
sVdrc773m
p115
I1
sVdrb9nb3
p116
I1
sVdq4j4tc
p117
I2
sVdi9yws6
p118
I1
sVd8yxbxs
p119
I1
sVd0ocfh2
p120
I1
sVd1huuci
p121
I1
sVdj6yy5t
p122
I1
sVd6xcfzt
p123
I1
sVdj3kz25
p124
I1
sVcz9lke0
p125
I3
sVdj20r0t
p126
I2
sVd7ayq7k
p127
I1
sVdfzblq0
p128
I1
sVdfozljh
p129
I1
sVd1kw03e
p130
I1
sVdjve4x3
p131
I1
sVdjdvrbq
p132
I1
sVd1nldae
p133
I2
sVdqz89xm
p134
I1
sVderdny8
p135
I1
sVdb9jrd4
p136
I1
sVd00ufi0
p137
I1
sVcyms4mw
p138
I1
sVd9d95w9
p139
I1
sVdib0thr
p140
I1
sVdktu4bb
p141
I1
sVdfkojfw
p142
I1
sVd3nn8xa
p143
I3
sVd9yd6ku
p144
I2
sVdixp2ex
p145
I2
sVd48nfo2
p146
I1
sVdn120fi
p147
I2
sVdr0pece
p148
I1
sVcz1j18s
p149
I1
sVdsn7lah
p150
I1
sVddka6pa
p151
I1
sVdmx1ok0
p152
I1
sVdeck03n
p153
I1
sVdb6vz9b
p154
I1
sVdau08zm
p155
I1
sVd38vw1f
p156
I1
sVd3to2ug
p157
I1
sVczejfs6
p158
I1
sVd04yhxl
p159
I1
sVd8yw6h5
p160
I1
sVdb0nhvd
p161
I1
sVd0zbs8f
p162
I1
sVd7t8cix
p163
I1
sVdg98s4d
p164
I1
sVdghjrb1
p165
I1
sVd35qd4d
p166
I1
sVdg6llpa
p167
I1
sVdt5geeu
p168
I1
sVd7tm3c3
p169
I1
sVdesfrvl
p170
I1
sVd8ny5ay
p171
I1
sVczv8x24
p172
I1
sVdsqacpo
p173
I1
sVddqtl8l
p174
I1
sVdhtfgi2
p175
I2
sVd0qgwy5
p176
I1
sVdigljij
p177
I1
sVczzf1m9
p178
I1
sVdmg5xmc
p179
I1
sVdpppoqg
p180
I1
sVd31a3kr
p181
I1
sVd3zz6n0
p182
I1
sVd1c2b3m
p183
I1
sVd47vb06
p184
I1
sVd5eee3y
p185
I1
sVd85jkoz
p186
I1
sVcyxfj0o
p187
I2
sVd7vshjy
p188
I1
sVdqmpryq
p189
I1
sVdcyqv71
p190
I1
sVdmno5b3
p191
I1
sVdcxs0gk
p192
I1
sVd12z9x9
p193
I1
sVd4r4aoj
p194
I1
sVd8pdp21
p195
I1
sVdnlaory
p196
I1
sVdrbyqgr
p197
I2
sVd4udrnt
p198
I1
sVdmsgrqs
p199
I1
sVd785agg
p200
I1
sVdjpzlfe
p201
I1
sVdq69h3s
p202
I1
sVd9dqctr
p203
I1
sVcyplu53
p204
I1
sVdd5u8if
p205
I1
sVdo80ja6
p206
I1
sVdg8rion
p207
I1
sVdmtvy7x
p208
I1
sVd54peg9
p209
I1
sVdmf9sv6
p210
I1
sVdbv0bnm
p211
I1
sVdh4nyja
p212
I2
sVdc7o2na
p213
I1
sVd622pbb
p214
I1
sVd65gypz
p215
I1
sVd7hr9k0
p216
I1
sVdfkowa9
p217
I1
sVdo49st9
p218
I1
sVdjutddq
p219
I1
sVd8emwpl
p220
I1
sVdnwsoc7
p221
I1
sVd5trhhn
p222
I1
sVd52cp62
p223
I1
sVdoeny9c
p224
I1
sVdid1odj
p225
I1
sVdp86626
p226
I1
sVd13akbe
p227
I1
sVdfo0i1f
p228
I3
sVdeicvfd
p229
I1
sVd459akn
p230
I1
sVd470an0
p231
I1
sVde2nhjk
p232
I1
sVczp5gqi
p233
I1
sVde15u1q
p234
I1
sVdklcjb9
p235
I1
sVcyow7u8
p236
I1
sVd8rkv0r
p237
I1
sVd31mnwf
p238
I1
sVd62aajl
p239
I1
sVd4lf3wk
p240
I1
sVdhwvott
p241
I1
sVdrzwsjm
p242
I1
sVdir617l
p243
I1
sVdi3uq7n
p244
I1
sVd04fl7t
p245
I1
sVd1pxius
p246
I1
sVdecsgxe
p247
I1
sVd9v13yj
p248
I1
sVdk0ajk8
p249
I1
sVd9p6evy
p250
I1
sVcz713mg
p251
I1
sVd04w6dv
p252
I1
sVdf5ck5x
p253
I1
sVddob0co
p254
I1
sVdam96h4
p255
I1
sVdjtxrd5
p256
I1
sVdfnyloj
p257
I1
sVdtay3ai
p258
I1
sVdqg54nb
p259
I1
sVczdnq4r
p260
I1
sVdj72o5s
p261
I1
sVdbaebxd
p262
I1
sVd5vro87
p263
I1
sVcyuxx8q
p264
I4
sVd2vihhm
p265
I1
sVdpgp011
p266
I1
sVd4033vz
p267
I1
sVd2i3vn4
p268
I1
sVd49038p
p269
I1
sVde1qsaj
p270
I1
sVde6h04d
p271
I1
sVdj5aofm
p272
I1
sVd4i4wce
p273
I1
sVdddz0e8
p274
I2
sVcymb2ea
p275
I1
sVd6o6bfl
p276
I1
sVdftm9zj
p277
I3
sVdt6lmrm
p278
I1
sVdfkr52u
p279
I2
sVdk7yua1
p280
I1
sVd4w89am
p281
I1
sVczuw6q7
p282
I1
sVd3lzrud
p283
I1
sVd2iluaq
p284
I1
sVde99u01
p285
I4
sVd8f2tk4
p286
I1
sVd4qr659
p287
I1
sVd6x5796
p288
I1
sVdre17hq
p289
I1
sVdawiec4
p290
I1
sVdd6jy2c
p291
I1
sVdikpmgz
p292
I1
sVd3z7fo6
p293
I1
sVd59gagx
p294
I1
sVd6tz4l6
p295
I1
sVd8q70x2
p296
I2
sVd7bcbdv
p297
I1
sVd04bgy0
p298
I1
sVdazkbm4
p299
I1
sVdom5rg2
p300
I1
sVd0u0uqd
p301
I1
sVd1g720u
p302
I1
sVd9adsi4
p303
I1
sVd98rsgs
p304
I3
sVdbrph3j
p305
I2
sVdc7zyed
p306
I2
sVd04x2rm
p307
I1
sVdftliqh
p308
I2
sVcyigf45
p309
I1
sVdiio830
p310
I1
sVdgcw3pf
p311
I2
sVcykujp2
p312
I1
sVdd0r0r2
p313
I1
sVd25oshn
p314
I1
sVdszxfsd
p315
I2
sVdh1qxwi
p316
I1
sVd92m47c
p317
I1
sVdekzlym
p318
I1
sVd6lblof
p319
I2
sVd9xpt1h
p320
I1
sVdh6gugc
p321
I1
sVdfrhmam
p322
I1
sVdk90lc7
p323
I1
sVdera750
p324
I1
sVd83wwpy
p325
I2
sVdr9tup4
p326
I1
sVd7tc5qv
p327
I1
sVddnht0a
p328
I1
sVd5y8h36
p329
I1
sVdg1ouut
p330
I1
sVd4ldh00
p331
I1
sVddpz1tj
p332
I1
sVdegubsh
p333
I1
sVd2apohb
p334
I1
sVd4rtmv7
p335
I1
sVdoyuaq8
p336
I1
sVd6sy83y
p337
I1
sVdqyj2io
p338
I1
sVczjktwl
p339
I1
sVd8ksi9v
p340
I1
sVd20kt3t
p341
I1
sVd2ozwo4
p342
I1
sVdgcf2xb
p343
I1
sVdir99kk
p344
I1
sVdbe786d
p345
I1
sVd9sximl
p346
I2
sVdrp1wdh
p347
I1
sVdj7pdt0
p348
I1
sVds0eq10
p349
I1
sVdj2je4d
p350
I1
sVdfyae9b
p351
I1
sVd2vf7ls
p352
I1
sVdonapg5
p353
I1
sVdot4mv7
p354
I1
sVdicv9d9
p355
I1
sVde4f37n
p356
I1
sVdgesgyp
p357
I1
sVcyvakhb
p358
I1
sVczhoi07
p359
I1
sVdbsfdr1
p360
I1
sVd862cma
p361
I2
sVd64veyw
p362
I1
sVd75b3my
p363
I2
sVd3yln0r
p364
I1
sVd3r4wnw
p365
I1
sVd3avr3j
p366
I1
sVdbptsu1
p367
I1
sVdeicmgv
p368
I1
sVdtfbt8h
p369
I1
sVdf43q7q
p370
I1
sVd9ube2u
p371
I1
sVd0ugvxq
p372
I1
sVdinzca0
p373
I1
s.