(dp0
Vdct4eu0
p1
I1
sVdeoyf1y
p2
I1
sVdbegvvo
p3
I1
sVdi7xh53
p4
I2
sVdks5dhq
p5
I1
sVcylk7ho
p6
I1
sVdkihxvz
p7
I1
sVde2jn0p
p8
I3
sVdf6noxb
p9
I2
sVdgvhyqe
p10
I1
sVd18eak4
p11
I1
sVcykd666
p12
I1
sVdcm0y4r
p13
I1
sVd9x7q1t
p14
I1
sVdftujo0
p15
I1
sVd7rc898
p16
I2
sVdkqnh3s
p17
I1
sVczcr45y
p18
I1
sVddz3yhr
p19
I1
sVde9a6wy
p20
I1
sVd6lakza
p21
I1
sVd7d4zf3
p22
I1
sVd2w2tsy
p23
I1
sVd30nu3e
p24
I1
sVd8o4ski
p25
I1
sVd9dldp0
p26
I1
sVdfaed8n
p27
I1
sVd2mcwsc
p28
I1
sVd97081f
p29
I3
sVczn5gd7
p30
I1
sVd9vv83s
p31
I1
sVcyqnps3
p32
I1
sVdk0v0fv
p33
I1
sVcyzyndb
p34
I1
sVdddy2h9
p35
I6
sVdmwspn0
p36
I1
sVdd9vodq
p37
I1
sVdmve9tk
p38
I1
sVdi18ipp
p39
I1
sVdphth8g
p40
I1
sVdanqtfm
p41
I1
sVdde4j8w
p42
I1
sVdfiljn4
p43
I2
sVdp2vnfq
p44
I1
sVd7aoe45
p45
I2
sVcz0ki99
p46
I2
sVd3xanzl
p47
I1
sVcziugl1
p48
I1
sVczcpqna
p49
I1
sVdmetm6k
p50
I1
sVdkbuk6k
p51
I1
sVdbyykqo
p52
I1
sVdjec8jh
p53
I1
sVdhd25km
p54
I1
sVdogpury
p55
I1
sVd8hk428
p56
I3
sVd1hhf6m
p57
I1
sVdbz7t7d
p58
I1
sVdr32zue
p59
I1
sVdoxnzdg
p60
I1
sVd6jw4wj
p61
I1
sVdj2p1q9
p62
I1
sVdfquxl9
p63
I1
sVdd3ob8e
p64
I1
sVdrx8nsd
p65
I1
sVd0o0d18
p66
I2
sVdik2mtr
p67
I2
sVd9dgze8
p68
I1
sVd7o4bim
p69
I1
sVdjdp82q
p70
I1
sVdc606jm
p71
I1
sVddpo2ia
p72
I1
sVdg4qywl
p73
I1
sVd0ehwuv
p74
I1
sVdo1yfr6
p75
I1
sVd7wo3bk
p76
I1
sVd1fekdr
p77
I1
sVde1nxq5
p78
I1
sVdf4oy11
p79
I2
sVdbvnvb4
p80
I1
sVdead1kg
p81
I1
sVdc2zx7x
p82
I1
sVdf0ptxv
p83
I1
sVdnkrppd
p84
I1
sVdezj7qw
p85
I1
sVde5o95t
p86
I1
sVde87ruw
p87
I1
sVdqs4f2u
p88
I2
sVdqocz8a
p89
I1
sVde2bfx7
p90
I1
sVdeph549
p91
I1
sVd2ebvvd
p92
I1
sVdb9t55i
p93
I2
sVdeza3jr
p94
I1
sVdavctxw
p95
I4
sVd9b9si3
p96
I1
sVd8e93jg
p97
I1
sVd2gegyi
p98
I1
sVdazsyex
p99
I1
sVcyphs6p
p100
I1
sVd3qh3yh
p101
I2
sVdt4zt4q
p102
I1
sVd3e3z1j
p103
I2
sVcyisfj8
p104
I1
sVd0g58fu
p105
I2
sVdcbevv6
p106
I4
sVde54xot
p107
I1
sVdbsfbs8
p108
I1
sVdp05x3u
p109
I1
sVd9mkhmf
p110
I1
sVdpqyhm6
p111
I1
sVd64ppld
p112
I2
sVd0askpf
p113
I1
sVdiwmq3u
p114
I1
sVd9xqtoh
p115
I4
sVds32on9
p116
I1
sVdqcf7nt
p117
I2
sVdjmpa1p
p118
I1
sVd6aden9
p119
I1
sVczxjri7
p120
I2
sVdck48u4
p121
I1
sVdpsmzb2
p122
I1
sVdbeptnu
p123
I1
sVd678dzn
p124
I1
sVd5oeppi
p125
I1
sVd0f9vg6
p126
I1
sVd9d0wm2
p127
I1
sVdpnb53n
p128
I1
sVd5g5eym
p129
I1
sVdt3bm0v
p130
I1
sVdh8qx47
p131
I1
sVcz0nqk5
p132
I1
sVd3o3l1z
p133
I2
sVd6aw4x3
p134
I2
sVdpi3rr0
p135
I1
sVdh59syx
p136
I1
sVdavax0h
p137
I2
sVdj189nd
p138
I1
sVdbtujba
p139
I1
sVdgar58i
p140
I1
sVcziyiyo
p141
I1
sVd3dbxln
p142
I1
sVczytg9x
p143
I1
sVdjnpjqf
p144
I1
sVdjlkwyr
p145
I1
sVdaf74r2
p146
I1
sVda2gf9l
p147
I1
sVd4vawr4
p148
I1
sVdbo68ef
p149
I1
sVczm9ck2
p150
I1
sVd4ww3hs
p151
I1
sVdt8wxc1
p152
I1
sVdkg6ow2
p153
I2
sVdnr9m6k
p154
I1
sVdftnkge
p155
I2
sVd2jzshk
p156
I1
sVdiy9ooz
p157
I2
sVdp8tzo7
p158
I1
sVd8yhmn1
p159
I1
sVde8688c
p160
I1
sVd03wtsa
p161
I1
sVdrt88tq
p162
I5
sVdjn0au3
p163
I1
sVd2ezz6g
p164
I1
sVcymwdac
p165
I2
sVcyidlhr
p166
I1
sVd2458qg
p167
I2
sVdryr8ub
p168
I1
sVdjxup5b
p169
I1
sVdjvf4az
p170
I1
sVd9llnnr
p171
I1
sVd37huzy
p172
I1
sVd9uw8fo
p173
I1
sVdchnpnj
p174
I1
sVdjwvsma
p175
I1
sVdg5aawi
p176
I1
sVdbu5i92
p177
I1
sVd7tsdax
p178
I1
sVdc0hi41
p179
I1
sVdizezc2
p180
I11
sVd2idcyz
p181
I1
sVd8j2min
p182
I1
sVdouapei
p183
I1
sVd7l6dcy
p184
I1
sVdj131dl
p185
I1
sVd7st8p7
p186
I1
sVd9x5l8l
p187
I1
sVd3fo6y1
p188
I1
sVd6o0rxg
p189
I2
sVdcjxlhy
p190
I1
sVdn3vjc0
p191
I1
sVdhyekr8
p192
I1
sVdgb69ba
p193
I1
sVdk6cbxz
p194
I1
sVd3dzumw
p195
I1
sVdaajnve
p196
I1
sVd6g6tm4
p197
I1
sVd9vqbw6
p198
I2
sVdb2gr6t
p199
I3
sVdqjv3xl
p200
I3
sVd5njbaa
p201
I4
sVdc65dhx
p202
I1
sVdbcomq8
p203
I1
sVdfbembd
p204
I1
sVdr1wo5u
p205
I1
sVdgfouwr
p206
I1
sVdakvr0n
p207
I2
sVd0fs4r1
p208
I2
sVd7vgtsz
p209
I1
sVdfc7zi6
p210
I1
sVdf5sisk
p211
I2
sVdebdz9o
p212
I1
sVcz3wupe
p213
I1
sVdi4kdcb
p214
I1
sVd2ts93g
p215
I1
sVdaapqoq
p216
I1
sVdpvcv28
p217
I2
sVd4mpua9
p218
I1
sVd835bh2
p219
I1
sVdeukfat
p220
I1
sVcyi319k
p221
I1
sVdrc5690
p222
I1
sVdsgrn0h
p223
I1
sVdi80hbp
p224
I1
sVcz3zrfp
p225
I1
sVd7npbvh
p226
I1
sVczmgmf7
p227
I1
sVd25sfay
p228
I2
sVdks7hzc
p229
I3
sVdhkt1v7
p230
I2
sVdpcyo7b
p231
I2
sVdjyqpbc
p232
I1
sVdt2f6tp
p233
I1
sVdkt5eef
p234
I1
sVd009exw
p235
I1
sVdphw9nn
p236
I1
sVdqgyol9
p237
I1
sVd1sm29a
p238
I1
sVdiyrds3
p239
I1
sVdmffkgy
p240
I1
sVd6veu9w
p241
I4
sVd3118eh
p242
I3
sVczmyafa
p243
I1
sVda4g2bj
p244
I1
sVczlp34k
p245
I1
sVdj2ixml
p246
I1
sVdaj3d8k
p247
I1
sVcyp8hkl
p248
I1
sVdf1jifh
p249
I1
sVd2dka3f
p250
I1
sVdd6tlmw
p251
I1
sVdirgzuv
p252
I2
sVdcr8b95
p253
I1
sVdqlhxu0
p254
I1
sVd01v6jd
p255
I1
sVdrozc37
p256
I2
sVd7db4b0
p257
I1
sVdpgnjuh
p258
I1
sVdh4q6o2
p259
I1
sVd6dpore
p260
I1
sVdcaotl6
p261
I2
sVdd3era7
p262
I1
sVdj18uzo
p263
I1
sVd0k3efc
p264
I1
sVdg2g5jt
p265
I1
sVd084ucd
p266
I1
sVczov5iy
p267
I1
sVd2wjitw
p268
I1
sVd5su393
p269
I1
sVd58khkx
p270
I1
sVdddxo3s
p271
I3
sVd4bfhsq
p272
I1
sVdi0wdb3
p273
I1
sVdeeweoo
p274
I2
sVdoszd7n
p275
I1
sVdejs8qo
p276
I1
sVddpk2n2
p277
I1
sVdmnv1ob
p278
I1
sVdbljx3n
p279
I1
sVdgb2f70
p280
I1
sVdb2t1gd
p281
I2
sVdr0g8i3
p282
I1
sVdswwmds
p283
I1
sVde6vxdb
p284
I1
sVd5brcbp
p285
I1
sVdbisi2o
p286
I1
sVdqfqm75
p287
I1
sVd32m1qp
p288
I2
sVdgskl0w
p289
I1
sVdpll3ez
p290
I1
sVdhnuzbq
p291
I2
sVdbyxm7z
p292
I1
sVdkjgl4q
p293
I1
sVd36ci8y
p294
I1
sVd4b7ek6
p295
I1
sVd16pjhw
p296
I1
sVczx74kv
p297
I1
sVddreq0z
p298
I4
sVcym5ri6
p299
I1
sVde1com3
p300
I1
sVdejpcti
p301
I1
sVddd8i7d
p302
I1
sVd3myfvp
p303
I1
sVds4xa68
p304
I1
sVdekna3w
p305
I1
sVd7pppqv
p306
I1
sVdrzpo7n
p307
I1
sVd4ffpf4
p308
I1
sVdj2fgf2
p309
I1
sVdebkke4
p310
I1
sVd30htkf
p311
I1
sVds3i5k1
p312
I1
sVdcfhn16
p313
I1
sVd7v93t0
p314
I3
sVddhygzh
p315
I1
sVdbiixxq
p316
I1
sVdadyzwh
p317
I2
sVdikdgc5
p318
I1
sVdtjkt1v
p319
I1
sVdhc24wn
p320
I3
sVdoy8mas
p321
I1
sVdi5w520
p322
I1
sVd7c7v8b
p323
I1
sVdctnmhe
p324
I1
sVd66rjwb
p325
I2
sVdcsdiqi
p326
I4
sVdf08ckc
p327
I2
sVd6b8c6g
p328
I1
sVd198dj2
p329
I1
sVdnqr8c9
p330
I1
sVdenq1ex
p331
I1
sVd607o1y
p332
I1
sVdflvkp2
p333
I1
sVczxzr0q
p334
I1
sVdicntyz
p335
I1
sVddpvb05
p336
I1
sVdn2t1cx
p337
I1
sVd2jugr5
p338
I4
sVdthis1q
p339
I1
sVczizv6b
p340
I1
sVdkx3ujd
p341
I1
sVde1vym5
p342
I1
sVdgayopa
p343
I1
sVdezagvm
p344
I1
sVdc0zves
p345
I2
sVdi85w6v
p346
I1
sVdb207a7
p347
I2
sVdeaq6fg
p348
I1
sVd25yexb
p349
I1
sVdevm9uz
p350
I1
sVdczl14g
p351
I1
sVcyihmht
p352
I1
sVdn892w5
p353
I1
sVd12xq1a
p354
I1
sVdg5swmk
p355
I1
sVd3wzpit
p356
I3
sVd2hx2kk
p357
I1
sVdsorx4y
p358
I1
sVd6eonag
p359
I1
sVd2ub9wh
p360
I4
sVdarm72d
p361
I1
sVd6eopyq
p362
I2
sVd9gukgj
p363
I2
sVdn77msq
p364
I3
sVdg6j282
p365
I2
sVd39fs2c
p366
I1
sVdp75ck8
p367
I1
sVdbh2yam
p368
I1
sVdfff8bz
p369
I1
sVd2hvrfu
p370
I1
sVdmyfdmz
p371
I1
sVd3ql9zd
p372
I1
sVd8ygt1q
p373
I1
sVcz8urd1
p374
I1
sVdreo0dn
p375
I1
sVd00c1k4
p376
I1
sVdihtd9l
p377
I1
sVd0rfy9w
p378
I1
sVd66f9id
p379
I1
sVdmhxkxx
p380
I1
sVczqyzmm
p381
I1
sVdsqiaag
p382
I2
sVd9878eu
p383
I1
sVdfe1n4a
p384
I1
sVdjt4n33
p385
I1
sVcz6x7iq
p386
I1
sVdpuala2
p387
I1
sVdgvj70a
p388
I1
sVd62p06k
p389
I1
sVde15mls
p390
I1
sVdeihm4z
p391
I1
sVds7rvhr
p392
I1
sVd7vrdg3
p393
I1
sVd2srplr
p394
I1
sVdbwipiq
p395
I1
sVd307rp1
p396
I1
sVdms93vz
p397
I1
sVdjgabk2
p398
I1
sVdh0kwik
p399
I1
sVdiwf2j2
p400
I2
sVdjw12cv
p401
I1
sVd56jh86
p402
I1
sVdocy5r1
p403
I2
sVdr0pece
p404
I3
sVd0tfy8e
p405
I1
sVdc5xp5r
p406
I1
sVd5np3tv
p407
I2
sVdhrtttc
p408
I1
sVd18r3ee
p409
I1
sVdp3771y
p410
I1
sVdbi1w7k
p411
I4
sVd2vp65r
p412
I1
sVdoypga5
p413
I1
sVdcgbot2
p414
I1
sVd5n25hp
p415
I6
sVdhb49vd
p416
I1
sVdb4v5tt
p417
I1
sVdssgozg
p418
I4
sVd1st4ix
p419
I1
sVd00r8ou
p420
I1
sVdb9nbi9
p421
I1
sVczacf6b
p422
I1
sVdn2mjaa
p423
I1
sVd1ycy36
p424
I1
sVdkp2nwc
p425
I1
sVd4h8ria
p426
I1
sVdqarfkb
p427
I1
sVdhk1zqw
p428
I1
sVd7icpbu
p429
I1
sVdpr1ly9
p430
I1
sVdhqnehg
p431
I3
sVd3ky3cw
p432
I2
sVd43agxp
p433
I1
sVd0nv70c
p434
I1
sVdsig9d7
p435
I1
sVd4xt7wp
p436
I1
sVdf4p0fy
p437
I1
sVdr93jfx
p438
I1
sVd01dt0b
p439
I1
sVdegpcq8
p440
I1
sVcz6sklu
p441
I1
sVdt327nh
p442
I1
sVdem4r0v
p443
I1
sVds8qg6g
p444
I1
sVcyxvrfx
p445
I1
sVd09q5lj
p446
I1
sVdik3uuz
p447
I3
sVcz60d0g
p448
I1
sVdavbix8
p449
I1
sVd1xa0dp
p450
I1
sVd7cvpk4
p451
I2
sVd1bpi07
p452
I4
sVd4aegtk
p453
I1
sVdmjl6wk
p454
I1
sVdrqa3ne
p455
I2
sVd86yav1
p456
I3
sVd8347me
p457
I1
sVd4uy8ld
p458
I1
sVdd5i736
p459
I2
sVd7905lw
p460
I2
sVdfz6izy
p461
I1
sVddx8iau
p462
I1
sVdg7rjfj
p463
I1
sVdn6ezm9
p464
I2
sVdjht4mw
p465
I1
sVd2elb6b
p466
I1
sVdhvwnv2
p467
I1
sVd9vcsz9
p468
I2
sVdqkasgx
p469
I1
sVcz7dw0t
p470
I2
sVdgl3x17
p471
I1
sVd19rlib
p472
I1
sVd45mvga
p473
I1
sVdpp2k59
p474
I1
sVdosp0rn
p475
I1
sVd969jjb
p476
I1
sVd45zmd8
p477
I1
sVcz48ujc
p478
I2
sVdcqtg40
p479
I1
sVdb34goq
p480
I1
sVdmzz4m8
p481
I1
sVdbsljgq
p482
I1
sVd256sak
p483
I1
sVdfrx3ro
p484
I1
sVdrs4ggr
p485
I1
sVd09vvr0
p486
I1
sVdkqs969
p487
I1
sVdfhe1ib
p488
I1
sVd1w7bs9
p489
I2
sVdh7yllz
p490
I1
sVdi1h2ce
p491
I1
sVd4up4a0
p492
I3
sVdde1dbu
p493
I10
sVddba5e3
p494
I1
sVdog1zp7
p495
I1
sVdn9h28o
p496
I1
sVd3ccj53
p497
I2
sVd5faxp5
p498
I1
sVdfnwgov
p499
I1
sVdene1rq
p500
I1
sVdjpzslq
p501
I1
sVd8ykve8
p502
I2
sVd081jyt
p503
I1
sVdkrwlql
p504
I1
sVdscjslp
p505
I1
sVdpja35w
p506
I1
sVd4v4fja
p507
I1
sVde9nsah
p508
I1
sVd1d9jxe
p509
I1
sVd2btd2u
p510
I1
sVdawk2dv
p511
I1
sVd0cdvh5
p512
I2
sVcypwtga
p513
I1
sVdg3o99h
p514
I2
sVdj6pkpq
p515
I1
sVdmstybl
p516
I1
sVdse4pcn
p517
I2
sVczn78z9
p518
I1
sVdst9jw1
p519
I1
sVd011l52
p520
I1
sVczzfkru
p521
I1
sVdbs20xo
p522
I3
sVd846bbq
p523
I1
sVdf5p6x8
p524
I1
sVd9lbr3v
p525
I1
sVdqbebbi
p526
I1
sVd1vno77
p527
I1
sVdf1112e
p528
I1
sVdpru4sv
p529
I1
sVdbjd7n8
p530
I2
sVd1hf2fn
p531
I1
sVdn3em0z
p532
I1
sVd1k2e5q
p533
I2
sVdid3x0n
p534
I1
sVdg2wujj
p535
I1
sVdb0qnaj
p536
I1
sVd8iakve
p537
I1
sVd8rh9vu
p538
I1
sVdg6abar
p539
I1
sVdkrdmgf
p540
I1
sVd2baqu1
p541
I1
sVdi816ci
p542
I1
sVdd9kylq
p543
I2
sVdd8mloq
p544
I1
sVcyii1ez
p545
I1
sVdmihj5e
p546
I1
sVdhlq3l3
p547
I1
sVd2do8zi
p548
I1
sVdh4xi76
p549
I1
sVdho1pt5
p550
I2
sVdetix99
p551
I1
sVd8l93r3
p552
I1
sVdho35mx
p553
I2
sVd5iywhw
p554
I1
sVdcsd9qg
p555
I1
sVdb0jbmf
p556
I1
sVd9eosfp
p557
I1
sVd7m7nmu
p558
I1
sVd42ut98
p559
I1
sVdedamou
p560
I1
sVd22151w
p561
I1
sVcytjfiz
p562
I2
sVd0yecum
p563
I1
sVd9bnr76
p564
I2
sVd40y7mb
p565
I1
sVcz7epp5
p566
I1
sVdbxut9e
p567
I1
sVddidd23
p568
I1
sVd0g0z4i
p569
I1
sVdncxpy8
p570
I3
sVd9744qu
p571
I3
sVd3fp0n1
p572
I1
sVd9hzvjs
p573
I1
sVdo25819
p574
I1
sVczunkae
p575
I1
sVd1k2wby
p576
I1
sVdeew3li
p577
I2
sVdb5u7k0
p578
I1
sVdfh2f79
p579
I1
sVdft3m3e
p580
I1
sVd7kt2ks
p581
I1
sVdmrigph
p582
I1
sVd4px2u0
p583
I1
sVdf678ud
p584
I1
sVd69kel6
p585
I1
sVcywseiv
p586
I1
sVcyzao4w
p587
I1
sVd3090pz
p588
I1
sVddpb4m6
p589
I1
sVdc1te68
p590
I1
sVdaylob2
p591
I1
sVd1y4xiq
p592
I1
sVdeiqfem
p593
I1
sVdjvzn83
p594
I1
sVdpxzq16
p595
I2
sVdkdukkc
p596
I1
sVd0vvxzg
p597
I1
sVddfso48
p598
I1
sVdcds5jh
p599
I1
sVd47ebpf
p600
I2
sVczh3ntq
p601
I1
sVd0umb8j
p602
I1
sVdog2pi4
p603
I1
sVd27iew8
p604
I1
sVczdkrv9
p605
I2
sVdi99x49
p606
I1
sVdj7hr96
p607
I2
sVdh0cpf6
p608
I2
sVdoxu4hu
p609
I1
sVdhg274x
p610
I3
sVdez3d9i
p611
I1
sVdglffp9
p612
I2
sVd4xsesf
p613
I5
sVdit4yfn
p614
I1
sVd411qkb
p615
I1
sVdcrj0ww
p616
I3
sVd1tbh7i
p617
I2
sVdcos3qs
p618
I1
sVdd5qk7m
p619
I1
sVdoidg9r
p620
I1
sVdb01in9
p621
I1
sVdjh040v
p622
I2
sVd1numom
p623
I3
sVd11ka9g
p624
I1
sVdf8n5ki
p625
I1
sVdskn0eq
p626
I2
sVd8xh4xo
p627
I1
sVd0ccsfq
p628
I1
sVcylk68w
p629
I1
sVdewwxqw
p630
I1
sVdnmujf7
p631
I1
sVdgpzqb3
p632
I1
sVd39iibt
p633
I1
sVd8qcmbr
p634
I4
sVdtg3jlf
p635
I1
sVd7qs7eb
p636
I2
sVd3kr63m
p637
I1
sVd7yhyd6
p638
I1
sVdd59v1u
p639
I1
sVdc7uyrw
p640
I1
sVdjdls1f
p641
I5
sVdk6nul3
p642
I1
sVdpys5nb
p643
I1
sVdkmhwgq
p644
I2
sVdmva4dy
p645
I1
sVdhi9ofq
p646
I1
sVdc19joi
p647
I1
sVd4wjbyt
p648
I1
sVdpfmh7q
p649
I1
sVdk4go7y
p650
I1
sVcyvfmyc
p651
I1
sVdshgrcm
p652
I1
sVdbcd4x3
p653
I1
sVd1gmfan
p654
I1
sVdscs8lh
p655
I1
sVde9q8jr
p656
I1
sVdpq985u
p657
I1
sVczwexb4
p658
I1
sVcyxdg9j
p659
I1
sVdh66d7c
p660
I1
sVdorox9h
p661
I1
sVd0fcdmf
p662
I2
sVd5ov483
p663
I1
sVdmxrker
p664
I1
sVdfmp0kd
p665
I1
sVdkcbsf9
p666
I1
sVd6bqhpm
p667
I1
sVd7h5l3u
p668
I2
sVdjhbna9
p669
I1
sVdha9756
p670
I1
sVdropgav
p671
I11
sVdg0btqa
p672
I6
sVdhn1n7n
p673
I1
sVda9zucx
p674
I1
sVddh0bs5
p675
I1
sVdcf7oh2
p676
I1
sVcziyggm
p677
I1
sVd8vu59r
p678
I1
sVd3jo1hu
p679
I1
sVd7u0ev6
p680
I1
sVd7bcm3l
p681
I1
sVd465coh
p682
I1
sVd5bpapv
p683
I1
sVdil2vlo
p684
I1
sVd121c77
p685
I1
sVdes8bnw
p686
I1
sVdnenh2e
p687
I1
sVd6u5n1m
p688
I3
sVd1p8rz8
p689
I1
sVd2slbo8
p690
I1
sVd1a7qco
p691
I1
sVdbrnxu0
p692
I6
sVdex5kjz
p693
I1
sVdcbc5hc
p694
I1
sVde60dql
p695
I2
sVdc9pch0
p696
I1
sVdicbkpw
p697
I1
sVdai28ks
p698
I1
sVcyo7bky
p699
I3
sVdavcch1
p700
I1
sVdhc1b5d
p701
I3
sVd9jvhub
p702
I1
sVddcp9bk
p703
I1
sVd1tf81a
p704
I2
sVd9wwis8
p705
I2
sVdbyowrg
p706
I3
sVd9jbmc1
p707
I1
sVd4pkaif
p708
I2
sVdf5ban6
p709
I1
sVd8o00jq
p710
I1
sVdf0blof
p711
I1
sVd8kbtzu
p712
I1
sVdraoq68
p713
I1
sVczeop92
p714
I2
sVcyjkrv8
p715
I1
sVdiwvyzc
p716
I1
sVdd6yagu
p717
I1
sVd847g9r
p718
I3
sVdkr6us3
p719
I2
sVdkjo5zz
p720
I1
sVdrw4znt
p721
I1
sVd7kr2sc
p722
I3
sVd3klgz8
p723
I1
sVd28snva
p724
I1
sVdsatk2y
p725
I1
sVd1uv3zr
p726
I1
sVdfe4bc9
p727
I1
sVdnr4vra
p728
I1
sVczyjed7
p729
I1
sVd36qdhi
p730
I1
sVdjxjsyh
p731
I1
sVd1yx022
p732
I1
sVd1jmtfi
p733
I1
sVdbw7ozu
p734
I1
sVd2d7h1o
p735
I1
sVd4ulhr1
p736
I1
sVd5d80bt
p737
I1
sVd26g6ez
p738
I1
sVd5cjaee
p739
I1
sVdd45icd
p740
I1
sVdj284gx
p741
I2
sVdepizo4
p742
I2
sVdcctw87
p743
I4
sVdexjzsv
p744
I1
sVdkvfv9m
p745
I1
sVd79k18d
p746
I1
sVdhx8kbw
p747
I1
sVd0wzm0z
p748
I1
sVd6oosyk
p749
I1
sVd38o4vc
p750
I3
sVde5hlaf
p751
I1
sVdjs6esn
p752
I1
sVde10nh4
p753
I2
sVdtizx2g
p754
I1
sVd41nwif
p755
I1
sVdfi13vr
p756
I1
sVdi5uv0m
p757
I2
sVdbsg9pt
p758
I2
sVd3a21uc
p759
I1
sVde9xylm
p760
I1
sVd8q69kb
p761
I1
sVddx1wrw
p762
I1
sVdmhxnpy
p763
I2
sVdeahm3i
p764
I1
sVd87eotp
p765
I1
sVd4z2y0m
p766
I1
sVd52t3hk
p767
I1
sVd0ei6zf
p768
I3
sVdos5an0
p769
I1
sVdo1bk62
p770
I1
sVd67e3ng
p771
I1
sVdb9gpfw
p772
I1
sVdmuvwjs
p773
I1
sVdeds6w8
p774
I1
sVd8wm9ow
p775
I1
sVcyu9ohq
p776
I1
sVcyk0180
p777
I1
sVd1aapyo
p778
I1
sVd2l8z84
p779
I1
sVddzwzem
p780
I1
sVdoj400j
p781
I1
sVd1qdvrn
p782
I1
sVdghqyfz
p783
I1
sVd08pjdr
p784
I1
sVdt4594a
p785
I1
sVdbioc5f
p786
I1
sVd3sujvt
p787
I1
sVd7tbtxc
p788
I1
sVd79y5yy
p789
I3
sVcyvafil
p790
I1
sVddv8gbg
p791
I1
sVdhsxsji
p792
I2
sVdsnjycc
p793
I1
sVdo2ep58
p794
I2
sVdrpfvem
p795
I2
sVdb4am5p
p796
I1
sVdjn2q77
p797
I1
sVd37y6ac
p798
I3
sVdct2806
p799
I1
sVdajyr3e
p800
I1
sVd2e2dck
p801
I1
sVd2ebpoi
p802
I1
sVd260a9e
p803
I1
sVd83lpdy
p804
I1
sVd1ltf7o
p805
I1
sVdecrt7z
p806
I1
sVdn7utmu
p807
I1
sVdpnawdi
p808
I2
sVdbprilg
p809
I1
sVdsuiqo2
p810
I1
sVcyt0q68
p811
I2
sVczibc02
p812
I1
sVdo6gj22
p813
I6
sVdrpgm98
p814
I1
sVdqgz7sz
p815
I1
sVd4fxkvd
p816
I2
sVdiqpkqi
p817
I1
sVd19gon4
p818
I1
sVdeu2ud6
p819
I2
sVd7j5jms
p820
I1
sVdnw93bb
p821
I3
sVdo2qxb5
p822
I1
sVd87bukw
p823
I1
sVdqu5xwu
p824
I5
sVdsb3cnc
p825
I1
sVddvw8o4
p826
I1
sVd8pbtyw
p827
I1
sVd90q32j
p828
I1
sVdo6fheo
p829
I1
sVd399u2x
p830
I1
sVddx57jl
p831
I2
sVdsexlej
p832
I1
sVdp7p8e2
p833
I1
sVd3ug2gz
p834
I1
sVdqfke7s
p835
I3
sVdgq8w0v
p836
I2
sVdefx468
p837
I1
sVd2ziaeo
p838
I1
sVdcdaoyy
p839
I1
sVdesoy92
p840
I2
sVd92f2rw
p841
I1
sVczymw8k
p842
I1
sVd3oumkd
p843
I3
sVdkjy4ok
p844
I1
sVd1gbtsc
p845
I4
sVdp07py3
p846
I3
sVd3crq0x
p847
I1
sVdr9s8cd
p848
I2
sVdbh2gxg
p849
I1
sVczt51zo
p850
I2
sVdie54w8
p851
I1
sVd788313
p852
I1
sVdh55y77
p853
I1
sVd8jpu58
p854
I1
sVd89m6ow
p855
I1
sVd18oxo6
p856
I2
sVd3i6ntz
p857
I2
sVdjb4eoo
p858
I2
sVdh4i5c1
p859
I1
sVd4prott
p860
I1
sVd78pv0q
p861
I1
sVd9mm9xx
p862
I1
sVddl2efz
p863
I1
sVdkiusyi
p864
I1
sVd3bl39m
p865
I2
sVd7fgtv1
p866
I1
sVdcja52p
p867
I1
sVdsb4cgw
p868
I1
sVd2hc6jv
p869
I1
sVde5nno2
p870
I1
sVczhog8k
p871
I1
sVd84b2hb
p872
I2
sVdqq6ufs
p873
I1
sVdncb9po
p874
I1
sVdshu0zs
p875
I1
sVd14oidc
p876
I1
sVdd8cxry
p877
I1
sVd7mgkmv
p878
I1
sVdpurcxn
p879
I2
sVdd9vn5w
p880
I1
sVdbobauv
p881
I1
sVdmer97v
p882
I1
sVdfs9h4p
p883
I1
sVd1u6ifi
p884
I1
sVd4po4za
p885
I1
sVdqkinqg
p886
I2
sVcz8110g
p887
I3
sVd281mcg
p888
I1
sVdfpw7pe
p889
I1
sVd0ykosg
p890
I3
sVdizlq1a
p891
I1
sVd1fnjxu
p892
I1
sVd8056rp
p893
I1
sVdjwvd2x
p894
I1
sVdae1ecm
p895
I1
sVd9duvr7
p896
I1
sVd2w7tdi
p897
I1
sVdr0dib9
p898
I1
sVdhh08j2
p899
I1
sVdok6k5b
p900
I4
sVd43j7p6
p901
I2
sVdaj97mt
p902
I1
sVd3dt084
p903
I2
sVczbto6t
p904
I2
sVd4ig27r
p905
I2
sVdb91kbb
p906
I1
sVdcl4uac
p907
I1
sVd9na6wz
p908
I1
sVdqn7f0n
p909
I4
sVd1i6848
p910
I5
sVd9dopkx
p911
I1
sVdn4n19p
p912
I1
sVddtpbym
p913
I1
sVd58p4zg
p914
I1
sVd0gzjy1
p915
I1
sVd2bljow
p916
I1
sVdrp2vtj
p917
I1
sVd6ey5c1
p918
I1
sVd0twy7e
p919
I1
sVcyp44r5
p920
I2
sVd2hb9gq
p921
I1
sVdalmj5u
p922
I1
sVcz6mddo
p923
I1
sVdcuflmi
p924
I1
sVd081w92
p925
I1
sVd7oeelq
p926
I1
sVdk4ydyn
p927
I1
sVd31um3a
p928
I2
sVdde1eck
p929
I1
sVdd9cok5
p930
I1
sVd1686gp
p931
I1
sVd9jzel3
p932
I1
sVd6wxjm8
p933
I3
sVdfw0zij
p934
I1
sVd5wz4xg
p935
I1
sVdb02m01
p936
I1
sVdp3m6o2
p937
I1
sVd0pyyia
p938
I1
sVdsiud9g
p939
I1
sVdjuefbj
p940
I1
sVd3xjbaz
p941
I1
sVd97dsoy
p942
I1
sVcytxsm6
p943
I5
sVdft4627
p944
I1
sVczetzjs
p945
I1
sVdb1kr11
p946
I1
sVd0qmdj9
p947
I1
sVdi7uv2o
p948
I1
sVd7qffba
p949
I1
sVdqsjaml
p950
I1
sVdbualk0
p951
I1
sVdrbglep
p952
I1
sVdaobyng
p953
I1
sVcz9ywew
p954
I1
sVdmqg1x9
p955
I1
sVdo248u1
p956
I2
sVd3rvzea
p957
I2
sVdrjejk6
p958
I2
sVd89jsk4
p959
I1
sVdkwpwkx
p960
I3
sVd4in9qw
p961
I1
sVd96u64u
p962
I8
sVdi1g0xz
p963
I1
sVdhfmn0o
p964
I1
sVdcj0bcs
p965
I1
sVdev7m4w
p966
I1
sVd9kdil5
p967
I1
sVczg9ela
p968
I1
sVdepoj3y
p969
I1
sVd03xarg
p970
I2
sVd9dc6p6
p971
I1
sVdet7fyg
p972
I1
sVda9jsgd
p973
I1
sVd3lmn0i
p974
I2
sVddoiqth
p975
I1
sVd57hsdy
p976
I1
sVdep2jn1
p977
I1
sVdc106xq
p978
I1
sVd1lalbp
p979
I1
sVd6v6wc3
p980
I1
sVdrl5jdf
p981
I2
sVd0b2i34
p982
I1
sVd7k9ws5
p983
I1
sVddux4c0
p984
I2
sVd9x9qga
p985
I3
sVdnw92y1
p986
I3
sVdi83wpi
p987
I1
sVd7u024p
p988
I1
sVd54e63z
p989
I1
sVdgdvq5g
p990
I1
sVdp84bpf
p991
I1
sVd03wurl
p992
I1
sVd86twhu
p993
I1
sVczs1nqb
p994
I1
sVdhig41j
p995
I1
sVdsdsgl7
p996
I1
sVdgny5pq
p997
I1
sVdk2sxd2
p998
I3
sVd03b9qq
p999
I1
sVd0irq8z
p1000
I1
sVds9iyz0
p1001
I2
sVdggvjp4
p1002
I1
sVdas8nwv
p1003
I1
sVdp22br8
p1004
I3
sVdiwe0b4
p1005
I3
sVd1tmgfu
p1006
I1
sVdrv8jcd
p1007
I1
sVdjv60cy
p1008
I1
sVd2juhbh
p1009
I1
sVdfq9iwt
p1010
I1
sVdopzhfr
p1011
I1
sVdsvoj5j
p1012
I1
sVdfo4xot
p1013
I1
sVd798uya
p1014
I1
sVd6g9tw1
p1015
I1
sVd4dhhch
p1016
I4
sVddyfmhw
p1017
I1
sVdbsx45q
p1018
I1
sVd7s5fop
p1019
I1
sVczz6tuk
p1020
I1
sVdgjzem3
p1021
I1
sVdfiip56
p1022
I1
sVdi8v2aj
p1023
I1
sVd7w7m9t
p1024
I2
sVdgtdjgj
p1025
I2
sVd5hyehs
p1026
I1
sVd183vr7
p1027
I2
sVd0irktw
p1028
I1
sVd02in9w
p1029
I1
sVdoh33gh
p1030
I2
sVcyl5f9d
p1031
I1
sVdt0cn1r
p1032
I5
sVd0v00od
p1033
I1
sVd2inmq5
p1034
I1
sVd30n39o
p1035
I1
sVd39fjc6
p1036
I1
sVd8wbz34
p1037
I1
sVd5iezfi
p1038
I1
sVd5eca0s
p1039
I2
sVdna5bde
p1040
I2
sVdia1lci
p1041
I1
sVdeqbtcb
p1042
I1
sVd8lgo4b
p1043
I2
sVdg5zmu9
p1044
I1
sVdhprya6
p1045
I1
sVdf43q7q
p1046
I1
sVd10yztg
p1047
I1
sVd25jxy6
p1048
I1
sVdhrb0re
p1049
I1
sVd7wd62c
p1050
I1
sVdd5y7m6
p1051
I1
sVdbo73s2
p1052
I1
sVd21ikn6
p1053
I1
sVd5ybft6
p1054
I4
sVdkfw0ry
p1055
I1
sVdpsddgt
p1056
I1
sVdcv1aba
p1057
I1
sVd03p6ek
p1058
I1
sVdqbeuo5
p1059
I1
sVdclc47o
p1060
I2
sVd24s1kd
p1061
I1
sVdiniuwg
p1062
I1
sVd5cs41c
p1063
I1
sVd9hhw3a
p1064
I1
sVczoelq8
p1065
I1
sVd7n2q6b
p1066
I1
sVdcm5kas
p1067
I1
sVdam2ggc
p1068
I2
sVdomg0w8
p1069
I2
sVdh85e3x
p1070
I1
sVdke1cy7
p1071
I1
sVd5fi1eg
p1072
I1
sVcypxptn
p1073
I1
sVdkylr1h
p1074
I1
sVdquivbt
p1075
I3
sVcymajuk
p1076
I1
sVdaldyj3
p1077
I2
sVdfxod4r
p1078
I1
sVd5trcj6
p1079
I2
sVdbl5de7
p1080
I1
sVd7uqupq
p1081
I1
sVdiyzojo
p1082
I2
sVdinqdqj
p1083
I1
sVdocm069
p1084
I2
sVd0smt2n
p1085
I1
sVcyovsdm
p1086
I1
sVdai1iqq
p1087
I5
sVd5c2vrf
p1088
I1
sVdr0q7r2
p1089
I1
sVdg5qrk8
p1090
I2
sVdt6xexq
p1091
I1
sVd17c90a
p1092
I1
sVd974ueb
p1093
I1
sVdfwvx9c
p1094
I1
sVdfaon59
p1095
I1
sVdfn6kl8
p1096
I1
sVd19wwaj
p1097
I1
sVd8ylijv
p1098
I1
sVdrq4crm
p1099
I1
sVdaqkcmz
p1100
I1
sVd7h1bfr
p1101
I1
sVdjpj3gu
p1102
I2
sVd5mmvyw
p1103
I1
sVdpc02s6
p1104
I1
sVdptri5p
p1105
I1
sVd67uh34
p1106
I1
sVcz7s95s
p1107
I1
sVdpmuh2x
p1108
I2
sVdo7sbwv
p1109
I1
sVddu7yme
p1110
I1
sVdfepov0
p1111
I1
sVdng0txy
p1112
I1
sVd0r53l9
p1113
I1
sVddrayj0
p1114
I1
sVdfhkldb
p1115
I1
sVd2f87g4
p1116
I2
sVd6hlcb2
p1117
I1
sVd3w0mxo
p1118
I1
sVd41484g
p1119
I1
sVdeitm61
p1120
I4
sVd16sxv9
p1121
I1
sVddx5w3s
p1122
I2
sVcym7rs1
p1123
I1
sVd93o2zt
p1124
I1
sVd7b6yid
p1125
I3
sVdbzb3wz
p1126
I1
sVdd2i4uu
p1127
I1
sVd90c4dy
p1128
I2
sVd60ttsd
p1129
I1
sVdc1jhgs
p1130
I2
sVdi0dj1x
p1131
I1
sVdgdpuou
p1132
I1
sVdr29pq2
p1133
I1
sVdglfvas
p1134
I1
sVd3popzn
p1135
I1
sVdpd4plw
p1136
I2
sVd5ji5gf
p1137
I2
sVd03lzzh
p1138
I1
sVdbrcvzt
p1139
I1
sVcz9fwl8
p1140
I2
sVcziqiu1
p1141
I1
sVdauxjix
p1142
I2
sVddzm50x
p1143
I1
sVd55cgza
p1144
I3
sVd1q4089
p1145
I1
sVd4sho73
p1146
I1
sVdkhy8ik
p1147
I1
sVddhlyql
p1148
I1
sVd8yf41x
p1149
I3
sVdb7qyvp
p1150
I1
sVdjgc88q
p1151
I2
sVd53vy2g
p1152
I1
sVd49tmey
p1153
I1
sVdawoyuq
p1154
I2
sVd7a265v
p1155
I1
sVd4jy0vk
p1156
I2
sVcyukwro
p1157
I1
sVds2lcwc
p1158
I2
sVdetiahi
p1159
I1
sVdavapn7
p1160
I1
sVdegjhag
p1161
I1
sVdfx05e5
p1162
I2
sVdb01e3q
p1163
I1
sVdizi88m
p1164
I1
sVd6zqkgg
p1165
I2
sVd9qor9b
p1166
I1
sVdcd0ihf
p1167
I1
sVd66tkmc
p1168
I2
sVd9jpd9t
p1169
I1
sVczeqs5r
p1170
I1
sVdc3953e
p1171
I2
sVddgaj78
p1172
I1
sVd24m5z0
p1173
I1
sVdfc0dwu
p1174
I3
sVdar1pbf
p1175
I1
sVdccg1sj
p1176
I1
sVd0pai60
p1177
I1
sVdbw2c95
p1178
I1
sVdehrfua
p1179
I1
sVd874rjq
p1180
I2
sVdd4890j
p1181
I2
sVddosxmg
p1182
I1
sVcykusi1
p1183
I1
sVdebbxf8
p1184
I3
sVd6jtbxz
p1185
I1
sVd46dms5
p1186
I1
sVd8d5uwe
p1187
I2
sVd78wkl2
p1188
I1
sVdi5cp6i
p1189
I2
sVdtfzwjf
p1190
I3
sVdmkd2rz
p1191
I1
sVda911ef
p1192
I1
sVd9z950g
p1193
I3
sVcywh6tc
p1194
I1
sVdmlwul2
p1195
I1
sVd8lyhds
p1196
I1
sVdegxpxs
p1197
I1
sVdcemjdp
p1198
I1
sVd566sxw
p1199
I1
sVdh14eem
p1200
I1
sVd67gfov
p1201
I5
sVd3at58y
p1202
I2
sVdate7eo
p1203
I1
sVd5iuarf
p1204
I1
sVd1i5a6a
p1205
I1
sVd9tmapb
p1206
I1
sVd0mqol9
p1207
I1
sVd3hj88t
p1208
I4
sVdsbg1og
p1209
I1
sVcyozjg1
p1210
I1
sVd8s7nqi
p1211
I2
sVdqp399j
p1212
I2
sVd2suklh
p1213
I1
sVd03ypg3
p1214
I1
sVdnatg0u
p1215
I1
sVdkyx8r9
p1216
I1
sVczah1sl
p1217
I9
sVd5fagi5
p1218
I3
sVd945vlw
p1219
I1
sVcyxj3ek
p1220
I1
sVd54gmcj
p1221
I1
sVd0egque
p1222
I1
sVdf4iyct
p1223
I1
sVdde52pn
p1224
I1
sVd5piay9
p1225
I2
sVd0ma4dp
p1226
I1
sVd0e2gbw
p1227
I1
sVd0ug527
p1228
I1
sVd5nr41r
p1229
I1
sVdi6tzew
p1230
I1
sVdeudajf
p1231
I1
sVd1smnxx
p1232
I1
sVdh4x3u8
p1233
I1
sVdekiqu3
p1234
I2
sVdekpxkh
p1235
I2
sVdfmxu2v
p1236
I3
sVdqei396
p1237
I4
sVdfllwob
p1238
I1
sVdn2g7qd
p1239
I2
sVd3phxws
p1240
I1
sVd2p70i2
p1241
I1
sVd3wnv7g
p1242
I1
sVd8b9vco
p1243
I1
sVdio4lth
p1244
I1
sVdjtm5mv
p1245
I2
sVdayssef
p1246
I1
sVdo16t2t
p1247
I1
sVd8g2oxe
p1248
I1
sVdbsx85h
p1249
I1
sVd9afct4
p1250
I2
sVdirgl3b
p1251
I2
sVczxa401
p1252
I1
sVd7ne8cx
p1253
I1
sVdkhp6jf
p1254
I1
sVdbq3k80
p1255
I1
sVd6jih7m
p1256
I1
sVdgrwm8n
p1257
I1
sVdn8xmq4
p1258
I2
sVdbnunzl
p1259
I1
sVd1j79ao
p1260
I1
sVd19rf5m
p1261
I2
sVd1sukbz
p1262
I1
sVdagbjxo
p1263
I1
sVd3y028d
p1264
I2
sVde4dvim
p1265
I1
sVdso3kk3
p1266
I1
sVcyn0ta8
p1267
I2
sVd4xmzsx
p1268
I2
sVcyr9xqu
p1269
I1
sVd9p4g14
p1270
I1
sVdfhcxb4
p1271
I1
sVdo8ps5a
p1272
I1
sVd7aqfwc
p1273
I1
sVd0epe0v
p1274
I1
sVdr6zgu0
p1275
I1
sVdbf7n37
p1276
I1
sVd94gy61
p1277
I2
sVdcw4gjz
p1278
I2
sVdapi2ni
p1279
I1
sVd0gun07
p1280
I1
sVdc6n0vh
p1281
I1
sVdpslklu
p1282
I3
sVdnz30e8
p1283
I1
sVdf1beno
p1284
I1
sVdde7man
p1285
I1
sVdgkzcp8
p1286
I1
sVdt9jr98
p1287
I1
sVd2zixpf
p1288
I2
sVdbcpfr9
p1289
I2
sVd831nh8
p1290
I1
sVdglssz7
p1291
I1
sVdnmksp4
p1292
I1
sVd6qs33f
p1293
I2
sVdcud1qu
p1294
I2
sVd162xe1
p1295
I1
sVdfbecwi
p1296
I1
sVdmnys7r
p1297
I1
sVdnd12f1
p1298
I1
sVcztiivz
p1299
I1
sVdiyphho
p1300
I2
sVdalrcep
p1301
I1
sVd57ngkq
p1302
I1
sVd14apk3
p1303
I2
sVdcab2ll
p1304
I1
sVd66vh3x
p1305
I1
sVdi55jzu
p1306
I1
sVd4ps6x7
p1307
I1
sVdrmqqh1
p1308
I1
sVdeiljxa
p1309
I1
sVd299u4h
p1310
I2
sVcz6z67m
p1311
I1
sVczizez6
p1312
I1
sVdk0bisn
p1313
I1
sVd54e5l5
p1314
I1
sVder0sro
p1315
I1
sVde2b3lm
p1316
I1
sVdck7mss
p1317
I2
sVd82jbqj
p1318
I1
sVd76sj49
p1319
I1
sVdpqzowu
p1320
I1
sVd12vazg
p1321
I2
sVd3szocp
p1322
I1
sVcz0b5q7
p1323
I1
sVd92y4f0
p1324
I1
sVdthfoik
p1325
I1
sVddyyspd
p1326
I1
sVd6wafp8
p1327
I1
sVd90tvuk
p1328
I1
sVd99sqs2
p1329
I1
sVd9b52rx
p1330
I1
sVdcsgt2v
p1331
I1
sVdonwq2o
p1332
I1
sVdi9qkyh
p1333
I1
sVd34bwkq
p1334
I1
sVd1i1h1w
p1335
I1
sVdgfltbj
p1336
I1
sVd7u2psc
p1337
I1
sVdfwkppd
p1338
I1
sVddh1kow
p1339
I3
sVd0hy9mt
p1340
I1
sVdiuqs1o
p1341
I1
sVd0lvu2b
p1342
I1
sVdgi7k0s
p1343
I1
sVdi81x1j
p1344
I1
sVd2tw1hr
p1345
I1
sVdn62fc2
p1346
I1
sVdet4wm6
p1347
I1
sVdc5j4no
p1348
I1
sVdqxsu7h
p1349
I1
sVd0fi4i3
p1350
I2
sVd4nt01e
p1351
I1
sVd5avlo6
p1352
I1
sVdiyynjn
p1353
I2
sVdnene7f
p1354
I1
sVd40pixd
p1355
I1
sVd2q7rgq
p1356
I2
sVd0r3oh5
p1357
I1
sVd60v6ma
p1358
I1
sVdhdxg7x
p1359
I1
sVczryfzm
p1360
I1
sVde2mhvd
p1361
I1
sVdi4vk1l
p1362
I1
sVdmky0tu
p1363
I1
sVdby3ikl
p1364
I1
sVd3a70ga
p1365
I1
sVd2u2qhf
p1366
I1
sVdgoge0c
p1367
I1
sVdckidqj
p1368
I1
sVd938pcb
p1369
I1
sVdo1v00a
p1370
I1
sVd0fjs7l
p1371
I1
sVdgghp21
p1372
I1
sVdhm8cjb
p1373
I1
sVdmztsdi
p1374
I1
sVdj90eir
p1375
I1
sVd5ptb9d
p1376
I2
sVdndw0ad
p1377
I1
sVdi7y750
p1378
I1
sVditddmm
p1379
I1
sVd4dgf7l
p1380
I2
sVd35mebc
p1381
I1
sVd4zipbj
p1382
I1
sVd3nxw4y
p1383
I1
sVd2i0sug
p1384
I1
sVdeutkeo
p1385
I1
sVd2pkbfx
p1386
I1
sVde2zgs4
p1387
I1
sVdkxmm7h
p1388
I1
sVd4j7q3i
p1389
I1
sVde2jpbu
p1390
I1
sVdk6cqid
p1391
I1
sVd95j90c
p1392
I2
sVczcs1fg
p1393
I1
sVd92iz4v
p1394
I1
sVczirst8
p1395
I4
sVdh18hws
p1396
I1
sVdb64w6p
p1397
I1
sVdiz2ipm
p1398
I1
sVdkj20fj
p1399
I1
sVdckk9ev
p1400
I5
sVdh14yf8
p1401
I1
sVd5oq3y3
p1402
I2
sVdr12tda
p1403
I2
sVdir646f
p1404
I1
sVd4ws2ly
p1405
I1
sVd75205e
p1406
I1
sVd91zmqa
p1407
I1
sVdkusp9t
p1408
I1
sVd9xq2xe
p1409
I1
sVcyyrdd6
p1410
I1
sVdfh6x1z
p1411
I1
sVd3j7ntn
p1412
I1
sVdcxsx7p
p1413
I2
sVczwzuti
p1414
I1
sVdn7j025
p1415
I1
sVdj0jwb1
p1416
I1
sVdr3bbwd
p1417
I3
sVdklay6g
p1418
I1
sVdcqfpm0
p1419
I1
sVd107xfx
p1420
I2
sVd78wyd2
p1421
I1
sVd1nqdaw
p1422
I1
sVd31ams7
p1423
I2
sVd0k3ztz
p1424
I1
sVdopxyfv
p1425
I1
sVd3ljwzu
p1426
I4
sVdg74szf
p1427
I8
sVdazloic
p1428
I1
sVdomiuyw
p1429
I1
sVde98ohi
p1430
I1
sVd72cn7v
p1431
I1
sVd1ri1fl
p1432
I2
sVdf87efn
p1433
I1
sVdsq57yt
p1434
I4
sVd1xwt9n
p1435
I1
sVd3osgub
p1436
I1
sVd064zty
p1437
I2
sVdiblimw
p1438
I1
sVdgfgjx0
p1439
I4
sVd1xqlu2
p1440
I5
sVddm9stl
p1441
I1
sVd5npga2
p1442
I1
sVdhvp1x7
p1443
I2
sVddlv1cq
p1444
I1
sVdad40jd
p1445
I1
sVdj4rsuc
p1446
I1
sVd6jwtof
p1447
I1
sVdggyrks
p1448
I2
sVcz2t49l
p1449
I4
sVd9qzdg2
p1450
I1
sVd8kb985
p1451
I1
sVd7wlni3
p1452
I1
sVczi1oqp
p1453
I2
sVd55ii9w
p1454
I2
sVdfihwfi
p1455
I1
sVd0m7slb
p1456
I2
sVd012zua
p1457
I2
sVcziqhro
p1458
I1
sVdspuuvf
p1459
I1
sVd91ldhj
p1460
I1
sVdcmu70i
p1461
I1
sVde5z21u
p1462
I1
sVd607vpu
p1463
I4
sVd0r08cp
p1464
I1
sVdgomolk
p1465
I3
sVd8jng2h
p1466
I1
sVddesigr
p1467
I1
sVdegnby0
p1468
I4
sVddaiu92
p1469
I1
sVd1r5e6h
p1470
I1
sVcz7m1bf
p1471
I2
sVcz3zoih
p1472
I1
sVdhhage0
p1473
I1
sVd4f304z
p1474
I1
sVd4lnvza
p1475
I1
sVdcn68sl
p1476
I1
sVdcaxx43
p1477
I1
sVdqco23t
p1478
I1
sVdjxnwf8
p1479
I1
sVd1w5m7l
p1480
I1
sVd6i73ri
p1481
I1
sVdkvug5i
p1482
I1
sVdfng19t
p1483
I1
sVdrm57bh
p1484
I1
sVd1suvvu
p1485
I1
sVd13zggk
p1486
I1
sVdd316j7
p1487
I1
sVdd7z63a
p1488
I1
sVdjjk17a
p1489
I2
sVd992c8n
p1490
I1
sVdjjezib
p1491
I1
sVcyv9ycl
p1492
I1
sVdbdg8sx
p1493
I1
sVdgkgm7l
p1494
I1
sVdk4oi11
p1495
I1
sVd8djqz3
p1496
I3
sVdeq2g66
p1497
I1
sVdgzb743
p1498
I1
sVd7n7qtc
p1499
I1
sVdmvgzkh
p1500
I1
sVd9l6pw4
p1501
I1
sVdoc2ql0
p1502
I1
sVcypdpv7
p1503
I1
sVdsouqoj
p1504
I3
sVd0nzxqi
p1505
I1
sVddbpgde
p1506
I2
sVdjvzov1
p1507
I1
sVddfscbx
p1508
I1
sVd0onvq5
p1509
I1
sVdsbiq9f
p1510
I1
sVdjfwerx
p1511
I1
sVd4aq7fx
p1512
I2
sVd3e2p00
p1513
I1
sVd01l7mi
p1514
I1
sVd90olil
p1515
I1
sVdi7ukuk
p1516
I6
sVd4oowbm
p1517
I1
sVdeq1r3y
p1518
I1
sVd5kt2k1
p1519
I1
sVd2lubw7
p1520
I1
sVdc86ed4
p1521
I1
sVdbcvjui
p1522
I2
sVde2eory
p1523
I1
sVdd8qqjy
p1524
I2
sVd9k68j2
p1525
I1
sVd88zwqm
p1526
I1
sVdn88syq
p1527
I1
sVd4twc3f
p1528
I2
sVdin4588
p1529
I2
sVdo3jznj
p1530
I1
sVdhfrmsl
p1531
I1
sVdbc6x5r
p1532
I1
sVd36xq8t
p1533
I2
sVczfashb
p1534
I1
sVdasnxau
p1535
I1
sVdj592u6
p1536
I1
sVd2pl7kj
p1537
I1
sVd6pwr35
p1538
I1
sVd2sov8l
p1539
I2
sVd8qu3uu
p1540
I1
sVd03aftw
p1541
I2
sVd6ky1xa
p1542
I1
sVddu01kb
p1543
I1
sVddw4cb2
p1544
I1
sVcyx1jkj
p1545
I1
sVd3kkfq3
p1546
I1
sVd4eg2wc
p1547
I1
sVdo2nwij
p1548
I2
sVdbgtw4w
p1549
I1
sVdeiga1u
p1550
I1
sVd0m44mi
p1551
I2
sVd4i91up
p1552
I1
sVdh21z7o
p1553
I1
sVd1x88u6
p1554
I1
sVdda41ot
p1555
I2
sVdbymj7n
p1556
I1
sVd97jq2f
p1557
I1
sVcz4l3ov
p1558
I2
sVd625scc
p1559
I1
sVd4bu0sy
p1560
I1
sVcyzh5ga
p1561
I4
sVd2jvj2k
p1562
I1
sVd500q16
p1563
I1
sVd6cx6le
p1564
I6
sVdh6meyx
p1565
I1
sVdt5gqks
p1566
I1
sVdkvjxy7
p1567
I2
sVdkk2725
p1568
I1
sVdjr8nce
p1569
I1
sVddh7xs2
p1570
I1
sVda5n5j3
p1571
I4
sVd3bdbvt
p1572
I2
sVdjmurqd
p1573
I4
sVczm9ka7
p1574
I1
sVd62shcb
p1575
I1
sVd7xugjz
p1576
I1
sVd64d4nx
p1577
I1
sVd2xw4t8
p1578
I1
sVdkhvpfn
p1579
I1
sVdbt1804
p1580
I1
sVdmp5xph
p1581
I1
sVd24wca5
p1582
I3
sVd9pi3fp
p1583
I1
sVdgcfuwn
p1584
I1
sVdh7pqfe
p1585
I2
sVde0z1rb
p1586
I1
sVdfaytbg
p1587
I7
sVd0bv624
p1588
I1
sVcz5cqwm
p1589
I1
sVcyr0v2x
p1590
I1
sVd12z9x9
p1591
I1
sVcynhgyx
p1592
I1
sVdcczjvm
p1593
I1
sVd9tq6m9
p1594
I1
sVcyhzf4o
p1595
I1
sVdp3i3pu
p1596
I1
sVd0jlblh
p1597
I1
sVdbb7ial
p1598
I1
sVdaas7i0
p1599
I2
sVdkwv89j
p1600
I1
sVdin47gy
p1601
I2
sVd3yaft0
p1602
I1
sVd2bg3mv
p1603
I1
sVd3rml0n
p1604
I1
sVczuqy1x
p1605
I2
sVdgs27fm
p1606
I2
sVdrferld
p1607
I3
sVdfimsqu
p1608
I1
sVd9xo464
p1609
I1
sVd4rqke7
p1610
I1
sVdf41htb
p1611
I1
sVd8ueqi7
p1612
I1
sVd4ew41y
p1613
I1
sVdkrjcyd
p1614
I2
sVdfz3n68
p1615
I1
sVdk205zf
p1616
I1
sVd1mtru4
p1617
I1
sVdt6xctg
p1618
I1
sVd830rig
p1619
I3
sVde9250u
p1620
I2
sVd2dg358
p1621
I1
sVdqmogsh
p1622
I2
sVddvf3s2
p1623
I1
sVdmr6bej
p1624
I1
sVdjl8a03
p1625
I2
sVdjnkd15
p1626
I2
sVdpdbl5h
p1627
I1
sVdavjs13
p1628
I1
sVdp0b2tr
p1629
I1
sVdggkfrs
p1630
I1
sVd8y2u8y
p1631
I1
sVdeh3g1l
p1632
I1
sVcyzkoxy
p1633
I1
sVdr0aa9g
p1634
I1
sVd23y2b4
p1635
I2
sVdi7g2eu
p1636
I5
sVd7nnxan
p1637
I6
sVd3oo1x5
p1638
I1
sVdbjfee6
p1639
I1
sVdsev3mc
p1640
I1
sVd1i885r
p1641
I1
sVd5iv8bp
p1642
I1
sVd8k6oqf
p1643
I7
sVdb27wgw
p1644
I3
sVdc2hlqc
p1645
I1
sVd2a8odq
p1646
I1
sVdjwga8a
p1647
I4
sVd9o8jg4
p1648
I1
sVd4u7h28
p1649
I3
sVdig8um2
p1650
I1
sVd228crs
p1651
I1
sVdmz74h9
p1652
I1
sVdmew0am
p1653
I1
sVdqmrgkm
p1654
I2
sVd3jgc17
p1655
I2
sVds0rx0c
p1656
I1
sVd3iv9fr
p1657
I1
sVd1hapvd
p1658
I1
sVdef3dc8
p1659
I3
sVdrqhuct
p1660
I1
sVddv9eqz
p1661
I1
sVdt52vf4
p1662
I1
sVd2agcdh
p1663
I1
sVdrcph7n
p1664
I1
sVd6t39ci
p1665
I1
sVcyt0qh2
p1666
I1
sVd18yn6x
p1667
I1
sVd4a44ri
p1668
I1
sVdcau424
p1669
I1
sVd9274kz
p1670
I1
sVdabisk5
p1671
I1
sVcyimwq1
p1672
I1
sVd8hmek1
p1673
I3
sVd6jgfui
p1674
I1
sVd73gtot
p1675
I1
sVdjxuwt7
p1676
I2
sVczy7yb6
p1677
I1
sVd19530g
p1678
I1
sVd9dc19u
p1679
I1
sVdr2hjmy
p1680
I2
sVd6qw64x
p1681
I2
sVdsunjka
p1682
I1
sVd1vk4vs
p1683
I1
sVddzb56s
p1684
I1
sVcyx5cwp
p1685
I1
sVdroi04i
p1686
I1
sVd3jargy
p1687
I2
sVd7bucfy
p1688
I1
sVdd411p1
p1689
I1
sVd5fxdzy
p1690
I2
sVczd2aof
p1691
I2
sVdsclixd
p1692
I1
sVczk4lah
p1693
I1
sVcyucfq1
p1694
I1
sVcz7bp83
p1695
I1
sVdqntya9
p1696
I1
sVdr6po47
p1697
I3
sVdbzupg1
p1698
I1
sVd3sl9y4
p1699
I1
sVd8jbawg
p1700
I2
sVdfnifgz
p1701
I1
sVdpzufed
p1702
I1
sVd77tq8u
p1703
I2
sVdexaops
p1704
I1
sVd5hmggr
p1705
I1
sVczj13iw
p1706
I6
sVdd1wyh0
p1707
I1
sVdek20zb
p1708
I1
sVd2l8a0a
p1709
I1
sVdpa4q9n
p1710
I1
sVd5c9oyc
p1711
I1
sVddafyvz
p1712
I1
sVd6u5x83
p1713
I1
sVcziojwh
p1714
I1
sVdi848jn
p1715
I1
sVdc7250c
p1716
I1
sVdqc8hwi
p1717
I1
sVdc0rb1e
p1718
I1
sVd3e3gd7
p1719
I1
sVd7qm0hd
p1720
I1
sVddga006
p1721
I1
sVdfun8wn
p1722
I1
sVdfe67tc
p1723
I1
sVdejdyx3
p1724
I3
sVd9dkl2j
p1725
I4
sVdjtn7b2
p1726
I1
sVdd6t358
p1727
I1
sVd4idrvg
p1728
I1
sVd69e936
p1729
I6
sVdb1s6h5
p1730
I1
sVczy4jjd
p1731
I1
sVdiv6vei
p1732
I1
sVdoda9gh
p1733
I1
sVdk7zo6l
p1734
I1
sVd4g03vi
p1735
I1
sVd1qc0ot
p1736
I1
sVdrpbhl6
p1737
I5
sVdnd55nr
p1738
I2
sVd78huob
p1739
I1
sVcyv9mly
p1740
I2
sVdo9wsz8
p1741
I2
sVczn1rhi
p1742
I1
sVdoukmy7
p1743
I1
sVdr0gdnb
p1744
I1
sVd8du5n2
p1745
I1
sVdea4lru
p1746
I1
sVcz4t8ts
p1747
I1
sVdd5c0tu
p1748
I1
sVdsrxxgb
p1749
I1
sVda1pn8a
p1750
I1
sVderjmxv
p1751
I1
sVdekdhah
p1752
I1
sVdal1wb9
p1753
I1
sVdcc1ymd
p1754
I1
sVdi4nmtv
p1755
I1
sVdbyxat4
p1756
I1
sVdmwt8mp
p1757
I2
sVdglin7p
p1758
I1
sVczlg44m
p1759
I1
sVdkx4cg0
p1760
I1
sVdrrlms1
p1761
I1
sVdj5122m
p1762
I4
sVd5m6wwf
p1763
I2
sVde97ls9
p1764
I1
sVdbppzn8
p1765
I2
sVd5eaio4
p1766
I3
sVd777yu5
p1767
I1
sVd8j6f9z
p1768
I2
sVdc2p6bm
p1769
I1
sVd6zlran
p1770
I1
sVdnsxzpm
p1771
I2
sVd169oek
p1772
I3
sVddub3r5
p1773
I1
sVd5a2hvu
p1774
I1
sVd2bf1w0
p1775
I1
sVd41dw36
p1776
I2
sVd77c4i4
p1777
I1
sVd3ohu80
p1778
I1
sVd6nzn5r
p1779
I1
sVdik1y68
p1780
I1
sVcz7yz0a
p1781
I1
sVd8ymr1o
p1782
I1
sVdh6568p
p1783
I1
sVdcwm2ok
p1784
I1
sVdbh94m2
p1785
I1
sVdkyi05o
p1786
I2
sVd3mvtvr
p1787
I1
sVd39umgb
p1788
I2
sVde8my7d
p1789
I1
sVd5pquzt
p1790
I1
sVdeexuv0
p1791
I1
sVdncofy8
p1792
I1
sVd9a9zkn
p1793
I1
sVd3mawfy
p1794
I1
sVdaag2le
p1795
I2
sVdb7ekaa
p1796
I1
sVdd34han
p1797
I1
sVdj5mox5
p1798
I2
sVd3bfgd2
p1799
I3
sVd37us0y
p1800
I8
sVdftqwzt
p1801
I1
sVdauldaj
p1802
I1
sVdhufly1
p1803
I1
sVd2blrm6
p1804
I1
sVdbc1893
p1805
I1
sVd8yr8vl
p1806
I2
sVczetkzm
p1807
I1
sVd504pzo
p1808
I2
sVcyz96bx
p1809
I1
sVcyxcrcx
p1810
I1
sVdcmrjf3
p1811
I1
sVd3pliju
p1812
I1
sVd0e243m
p1813
I2
sVdnz3y3k
p1814
I1
sVdh0boot
p1815
I2
sVd2dj684
p1816
I1
sVd206002
p1817
I1
sVdhv17ow
p1818
I1
sVdmwvfhv
p1819
I1
sVdblg4gg
p1820
I1
sVde8gbcu
p1821
I1
sVd0wsr94
p1822
I1
sVd3wrco1
p1823
I1
sVd5ckpb5
p1824
I1
sVd4bfzwx
p1825
I1
sVd33vq9x
p1826
I1
sVddw1l0p
p1827
I1
sVdd9hhva
p1828
I1
sVdjdpxcm
p1829
I2
sVd6am6px
p1830
I1
sVd16g0hy
p1831
I1
sVddty605
p1832
I1
sVcyp0miq
p1833
I1
sVddehf7g
p1834
I3
sVdoj4mp3
p1835
I1
sVdbhzjn4
p1836
I1
sVdmjmjql
p1837
I1
sVdhhkexq
p1838
I1
sVd7mj4f7
p1839
I1
sVd0owrjo
p1840
I1
sVdryoqsq
p1841
I3
sVd4s05x0
p1842
I2
sVdihoajm
p1843
I1
sVddgdo6r
p1844
I1
sVdjp306j
p1845
I1
sVdtanwqh
p1846
I2
sVd4wzrsj
p1847
I1
sVczspu0c
p1848
I1
sVdcawj6n
p1849
I1
sVd7ty7fi
p1850
I1
sVdmtpxp7
p1851
I1
sVczibns1
p1852
I1
sVcz1d1qu
p1853
I1
sVd1iwq5k
p1854
I3
sVdjy23nf
p1855
I1
sVde9q2l9
p1856
I1
sVczb1dhf
p1857
I1
sVd72fopk
p1858
I1
sVd8333vo
p1859
I5
sVcz3hxx5
p1860
I1
sVdn2uyi2
p1861
I1
sVdcpsecd
p1862
I6
sVdrc1sx9
p1863
I1
sVdgrmfu8
p1864
I2
sVdnt2us8
p1865
I2
sVd9d6lr4
p1866
I1
sVd923wpm
p1867
I1
sVd72qcw9
p1868
I1
sVd0t6024
p1869
I2
sVd1egpuq
p1870
I1
sVdnvwvf1
p1871
I1
sVd9l1xyh
p1872
I1
sVdmy280r
p1873
I1
sVdh9mlhr
p1874
I1
sVd2a2zhx
p1875
I1
sVdrrg9vg
p1876
I2
sVdq1z1fm
p1877
I2
sVd1p111f
p1878
I1
sVd9fvngv
p1879
I1
sVdf6mj32
p1880
I1
sVd4d4q9q
p1881
I1
sVdj59iwc
p1882
I1
sVd5om7mo
p1883
I1
sVczw8hfs
p1884
I1
sVd97b225
p1885
I1
sVd9kf9w3
p1886
I2
sVd5y6av3
p1887
I1
sVd08s78i
p1888
I1
sVd2fsfod
p1889
I1
sVdqtn4r8
p1890
I1
sVd46s08b
p1891
I1
sVdskb0xn
p1892
I3
sVd2wxyl5
p1893
I2
sVd0qypkh
p1894
I1
sVd19dttt
p1895
I1
sVdsmesev
p1896
I1
sVcz9eu5h
p1897
I3
sVdenqiou
p1898
I1
sVd6hiyzc
p1899
I2
sVd9hdu37
p1900
I1
sVdepi648
p1901
I1
sVd8etzxm
p1902
I1
sVd1decp6
p1903
I2
sVd9qv0c7
p1904
I1
sVd8k9koa
p1905
I1
sVdd7n8ud
p1906
I1
sVdadzmp0
p1907
I2
sVd9eanis
p1908
I6
sVczd57lo
p1909
I1
sVd63vcfc
p1910
I1
sVczxqpog
p1911
I1
sVdjhzvjc
p1912
I1
sVdel3klv
p1913
I2
sVczhol8h
p1914
I1
sVdg9cmk7
p1915
I1
sVd80s00t
p1916
I1
sVdt6v06f
p1917
I1
sVd19c18t
p1918
I1
sVd8f6n6i
p1919
I3
sVdoh90wc
p1920
I1
sVd6a3teo
p1921
I1
sVdru8rk0
p1922
I1
sVd123drk
p1923
I1
sVd4dnaw6
p1924
I1
sVdh19i3x
p1925
I4
sVdmxj51s
p1926
I2
sVdq4j4tc
p1927
I1
sVdq5gof6
p1928
I2
sVd0i3y9m
p1929
I1
sVd1b94ni
p1930
I1
sVdfclo41
p1931
I1
sVdtgfpjs
p1932
I1
sVd2eqrid
p1933
I1
sVdhy04ns
p1934
I1
sVdtiy2s4
p1935
I1
sVd9n127n
p1936
I1
sVdam1pqi
p1937
I1
sVdpktbqb
p1938
I1
sVd2tisbo
p1939
I1
sVdhua5ij
p1940
I1
sVd05cage
p1941
I3
sVd9ied5z
p1942
I3
sVdi3hghe
p1943
I1
sVdseqwc6
p1944
I1
sVdc769ok
p1945
I1
sVd703dgm
p1946
I1
sVd6hfbod
p1947
I1
sVdmw9bxp
p1948
I1
sVdmi3kn6
p1949
I1
sVd1770go
p1950
I1
sVd7r6vgt
p1951
I1
sVdk4q0wr
p1952
I2
sVdeyzj6i
p1953
I2
sVd1qdizt
p1954
I2
sVd5qem5z
p1955
I1
sVd48juyp
p1956
I2
sVdo6jyyp
p1957
I1
sVddrqkdt
p1958
I1
sVdel8i6p
p1959
I1
sVcz1j7qe
p1960
I1
sVd2a249v
p1961
I1
sVd2emfpp
p1962
I1
sVdebiai1
p1963
I1
sVd5it848
p1964
I1
sVde6fb4v
p1965
I1
sVd37nwd3
p1966
I1
sVdd285z6
p1967
I1
sVdbnntsb
p1968
I1
sVd7l3qxm
p1969
I2
sVd6guzxp
p1970
I2
sVdfyn30u
p1971
I1
sVdhxhfug
p1972
I2
sVdefq2yx
p1973
I2
sVd5iygse
p1974
I1
sVdok649n
p1975
I1
sVczin6pl
p1976
I5
sVd60sb2u
p1977
I1
sVdho3vul
p1978
I1
sVdct5yby
p1979
I1
sVdbn1m3p
p1980
I1
sVdei9kx6
p1981
I1
sVdemrpix
p1982
I1
sVd7npeco
p1983
I1
sVcz86jw7
p1984
I1
sVdbc1j3c
p1985
I1
sVd0ofimv
p1986
I1
sVdeofkq0
p1987
I3
sVdat00d9
p1988
I1
sVdf7xy22
p1989
I1
sVdh85a83
p1990
I1
sVdfk2zfc
p1991
I1
sVd3lmrb0
p1992
I1
sVdimeb87
p1993
I1
sVdks1qq5
p1994
I2
sVd0z8hnf
p1995
I1
sVdbngq6j
p1996
I1
sVd3yptzi
p1997
I1
sVd0pzy4i
p1998
I1
sVdjntc0n
p1999
I1
sVd4h1m4n
p2000
I2
sVdd90x21
p2001
I1
sVd7flemd
p2002
I1
sVdb3rzwb
p2003
I1
sVdin29qa
p2004
I1
sVd9x4wv5
p2005
I1
sVdgscu7n
p2006
I2
sVd9zp8zv
p2007
I1
sVdbouo7t
p2008
I1
sVd2c2u8p
p2009
I1
sVd1j8lyz
p2010
I2
sVd46p47h
p2011
I3
sVcznt0i2
p2012
I1
sVd1s9kuf
p2013
I1
sVdhhxsi0
p2014
I1
sVd080f7q
p2015
I1
sVd5ze8vo
p2016
I1
sVd9dklrp
p2017
I1
sVd1irvc9
p2018
I2
sVd2ykqjm
p2019
I3
sVdr145hi
p2020
I1
sVd19n87k
p2021
I1
sVds70v2w
p2022
I1
sVd1phwls
p2023
I1
sVcztyepr
p2024
I1
sVd8a5xz4
p2025
I2
sVd53cigo
p2026
I2
sVds8bhxn
p2027
I1
sVcz0llmr
p2028
I1
sVdjn8hp8
p2029
I2
sVcz83mgn
p2030
I1
sVd20cndv
p2031
I1
sVd4iliff
p2032
I3
sVd3g7jeu
p2033
I1
sVdpm2n2t
p2034
I1
sVd7fp4g0
p2035
I1
sVd6531m9
p2036
I1
sVd6w815i
p2037
I6
sVd88z7a7
p2038
I1
sVd797qfz
p2039
I2
sVdfe23qh
p2040
I1
sVczwttah
p2041
I1
sVdrb7ghd
p2042
I1
sVczh4a39
p2043
I1
sVda7fj89
p2044
I1
sVdpzhyy5
p2045
I1
sVdjw49fa
p2046
I1
sVd8wpqsf
p2047
I1
sVda6zsdf
p2048
I1
sVdjtpluf
p2049
I1
sVdn2jdup
p2050
I1
sVdadj57m
p2051
I2
sVd7oha8u
p2052
I1
sVdg0g8fp
p2053
I1
sVd1mdlhq
p2054
I1
sVdjsibmq
p2055
I1
sVd9wqzyg
p2056
I1
sVd7l3cju
p2057
I1
sVdazw6ml
p2058
I1
sVdjzo6ow
p2059
I6
sVd2zcer1
p2060
I1
sVd48ru4v
p2061
I1
sVda8o42a
p2062
I1
sVdrnaco1
p2063
I1
sVdgti54h
p2064
I1
sVd2hnp24
p2065
I1
sVdazhbbd
p2066
I1
sVdihb9ek
p2067
I3
sVd9aizr6
p2068
I3
sVd74726n
p2069
I3
sVd97d4p5
p2070
I1
sVdq6ytiv
p2071
I1
sVde3mzak
p2072
I3
sVd7zwsr2
p2073
I1
sVdt26ja8
p2074
I1
sVdg1xjc3
p2075
I1
sVdhwue9j
p2076
I1
sVdsg38cb
p2077
I3
sVdetnd1u
p2078
I1
sVd7hm2w0
p2079
I1
sVdrvs8pv
p2080
I2
sVd7w30lo
p2081
I2
sVddkpu2w
p2082
I1
sVdgz8g75
p2083
I2
sVdk5e37t
p2084
I1
sVde9uttk
p2085
I1
sVdei5ivd
p2086
I1
sVdpa0gud
p2087
I1
sVdqhihtt
p2088
I1
sVd3lno47
p2089
I1
sVdqevfj9
p2090
I2
sVdiajlg7
p2091
I2
sVd9awxny
p2092
I1
sVczku7hx
p2093
I1
sVddbanho
p2094
I1
sVdk55uav
p2095
I1
sVcyzih7z
p2096
I1
sVczsslz8
p2097
I1
sVcytxnij
p2098
I2
sVdgmmop6
p2099
I1
sVd9r61f5
p2100
I1
sVd5vv4nu
p2101
I1
sVddfocaw
p2102
I1
sVddrje29
p2103
I2
sVd9vhild
p2104
I1
sVd6o56yl
p2105
I1
sVdbf15f5
p2106
I1
sVd9wcwxb
p2107
I1
sVdcob3gc
p2108
I1
sVd2sgplc
p2109
I1
sVdgn1xwt
p2110
I2
sVd90121b
p2111
I1
sVdogu0xw
p2112
I2
sVd9bjjbv
p2113
I1
sVdhyq9dm
p2114
I1
sVdj7jb3i
p2115
I1
sVd7j6ib6
p2116
I1
sVczzdizc
p2117
I1
sVdi26tgw
p2118
I1
sVdgqgvwz
p2119
I1
sVdcwj8xq
p2120
I1
sVd6b54vr
p2121
I1
sVd2c6ts4
p2122
I1
sVd4t1peq
p2123
I2
sVd83k9o1
p2124
I1
sVd295ycj
p2125
I1
sVdf37r6t
p2126
I1
sVdqlvdvm
p2127
I1
sVdosna31
p2128
I2
sVdrfayxr
p2129
I3
sVd44mze7
p2130
I1
sVdkv3dqy
p2131
I4
sVdrzuk06
p2132
I1
sVddz0lve
p2133
I1
sVdr8his1
p2134
I1
sVd5c8vd1
p2135
I2
sVcznlp2b
p2136
I1
sVdkragvo
p2137
I2
sVdfxubwn
p2138
I1
sVcyledx0
p2139
I1
sVd2iawop
p2140
I1
sVdtc6r46
p2141
I1
sVd4vn26p
p2142
I1
sVd88xm8a
p2143
I1
sVd3nfk14
p2144
I1
sVdjj3vr9
p2145
I1
sVdrgis0t
p2146
I1
sVdby17c0
p2147
I1
sVddbqzg6
p2148
I1
sVczgu8lm
p2149
I1
sVdru5gsx
p2150
I1
sVdqaox6p
p2151
I1
sVdjpg6jo
p2152
I1
sVdehjsbk
p2153
I2
sVdqgqjil
p2154
I1
sVd5cxigm
p2155
I1
sVdbx2q1j
p2156
I1
sVd4qu1pb
p2157
I1
sVd2jamkv
p2158
I1
sVd3zjcn8
p2159
I1
sVdp2bphz
p2160
I1
sVdfq33q1
p2161
I1
sVdcctaw9
p2162
I2
sVd80r3m7
p2163
I1
sVddhwalz
p2164
I1
sVdgq6h61
p2165
I1
sVd0y8z5v
p2166
I1
sVd3h4udz
p2167
I1
sVdnmypvk
p2168
I3
sVdht1nat
p2169
I1
sVdnr6hg1
p2170
I1
sVdh6bi7m
p2171
I1
sVdhvf3hy
p2172
I2
sVd44n4u6
p2173
I1
sVdak92fl
p2174
I1
sVdemd2ag
p2175
I1
sVddmxfg7
p2176
I1
sVd768f05
p2177
I1
sVczzwt1e
p2178
I6
sVdeetfcg
p2179
I2
sVda28qsm
p2180
I1
sVdh4anrt
p2181
I1
sVdbii1p4
p2182
I1
sVdmm3ssi
p2183
I4
sVd2q46a5
p2184
I1
sVcypy8yz
p2185
I1
sVdmq3xks
p2186
I1
sVddetnje
p2187
I1
sVdclb2h6
p2188
I2
sVddz0f5m
p2189
I2
sVdgyoos9
p2190
I1
sVdmuctkg
p2191
I1
sVddrztxg
p2192
I1
sVdab7wcl
p2193
I1
sVd3n621v
p2194
I1
sVdo6y3sz
p2195
I1
sVdml4gkp
p2196
I6
sVczap6fh
p2197
I1
sVdnmajq0
p2198
I3
sVdj303ug
p2199
I1
sVdn636or
p2200
I2
sVd5lw2um
p2201
I1
sVczk93n3
p2202
I1
sVd2q6fbl
p2203
I1
sVdqujrv0
p2204
I1
sVde1gbll
p2205
I1
sVdj2iuzf
p2206
I1
sVdkjv1r3
p2207
I2
sVdhbuq6b
p2208
I1
sVdahkfp5
p2209
I2
sVddgzvqw
p2210
I1
sVd4nl2a6
p2211
I1
sVcz6k7kp
p2212
I2
sVdautr21
p2213
I1
sVdd8vn7c
p2214
I1
sVdmmrf33
p2215
I2
sVdbt2s3q
p2216
I2
sVd2wfyto
p2217
I1
sVdc16o9f
p2218
I1
sVdsigx9i
p2219
I1
sVdkpddy2
p2220
I1
sVdnypd6x
p2221
I2
sVd1geh5y
p2222
I5
sVdf2awal
p2223
I1
sVdn9ag3k
p2224
I1
sVda83xvt
p2225
I1
sVd05ofg3
p2226
I1
sVczh5afb
p2227
I1
sVdqn1rj3
p2228
I1
sVd091ecz
p2229
I2
sVdjytyer
p2230
I2
sVd0t9q0y
p2231
I1
sVdsq63o6
p2232
I1
sVdfcytvk
p2233
I1
sVd30zkar
p2234
I1
sVd2j272h
p2235
I2
sVdnt1qqd
p2236
I1
sVdcqvqd9
p2237
I1
sVdgw6k5r
p2238
I1
sVd63who1
p2239
I1
sVd7ug7wn
p2240
I1
sVdn9am3x
p2241
I1
sVd6c2zrd
p2242
I3
sVdhm32rf
p2243
I2
sVdnfwzbe
p2244
I1
sVdevv8kt
p2245
I1
sVdaxyh6j
p2246
I2
sVdgrjk5g
p2247
I1
sVd7gbqqi
p2248
I1
sVd2hiv22
p2249
I1
sVdf5iw9v
p2250
I4
sVdgl8h71
p2251
I1
sVd1m4yhr
p2252
I2
sVdcri4tw
p2253
I1
sVdqzvb7e
p2254
I1
sVd5o63y4
p2255
I2
sVdnzwzpy
p2256
I1
sVdgywo1h
p2257
I2
sVdiwekm9
p2258
I1
sVd6no490
p2259
I1
sVdj1wguz
p2260
I1
sVd3bxlu7
p2261
I2
sVdjftjad
p2262
I1
sVd4n9mlx
p2263
I1
sVd7xgmko
p2264
I1
sVd2l9lh0
p2265
I1
sVdbgwqvs
p2266
I1
sVd0c52q0
p2267
I1
sVdt1mtst
p2268
I1
sVdbq6qg7
p2269
I2
sVd8a50nw
p2270
I1
sVdswuyxi
p2271
I3
sVdq8zv1i
p2272
I1
sVczlk8gq
p2273
I1
sVcz0l8zx
p2274
I1
sVdhujxsx
p2275
I1
sVd6hdjpc
p2276
I1
sVd7npsbw
p2277
I1
sVdt1nfps
p2278
I1
sVd8uwq90
p2279
I1
sVdh8bwt9
p2280
I1
sVds6jjfx
p2281
I1
sVdspi1tj
p2282
I1
sVcz6gnsb
p2283
I2
sVdfjhmsj
p2284
I1
sVd0rdt3z
p2285
I1
sVczveect
p2286
I1
sVd875u2l
p2287
I1
sVdkd2v28
p2288
I1
sVddbus77
p2289
I1
sVdcwk2a1
p2290
I1
sVdex1cfd
p2291
I1
sVdhex80j
p2292
I1
sVd0m6els
p2293
I2
sVdgxsgvy
p2294
I1
sVddmmexy
p2295
I2
sVd4twofd
p2296
I2
sVd1ymup4
p2297
I1
sVdaobx04
p2298
I2
sVdr4zjfx
p2299
I1
sVdr0ddlk
p2300
I1
sVdf5lbyl
p2301
I1
sVdmxca6t
p2302
I1
sVdit503y
p2303
I1
sVd4zedwk
p2304
I1
sVd05q59y
p2305
I1
sVdgquz6t
p2306
I1
sVd16tsfy
p2307
I2
sVd9n0lm2
p2308
I1
sVd7fjd77
p2309
I2
sVd9aiyb4
p2310
I1
sVda0q80e
p2311
I4
sVd8foiq2
p2312
I1
sVd1m8rt4
p2313
I1
sVdtb1n2n
p2314
I1
sVd0sklzr
p2315
I1
sVdd1ai5b
p2316
I2
sVdhw4sfs
p2317
I1
sVdsj9ndy
p2318
I1
sVd7wfpih
p2319
I2
sVczw9686
p2320
I1
sVd1kucqy
p2321
I1
sVdj1x5ve
p2322
I1
sVdicnmuu
p2323
I1
sVd6fjads
p2324
I1
sVd3kwg5j
p2325
I1
sVdiyteex
p2326
I1
sVdmi7up4
p2327
I1
sVd90zig0
p2328
I1
sVd6p9jxk
p2329
I1
sVczt7bi9
p2330
I1
sVdg0jmsb
p2331
I3
sVd5n19hl
p2332
I1
sVdn9v9do
p2333
I3
sVd0kpden
p2334
I1
sVd5xiq4l
p2335
I1
sVddiwfsq
p2336
I1
sVdosjhpa
p2337
I5
sVdbygsl1
p2338
I1
sVdeey4m7
p2339
I2
sVdauhnp5
p2340
I1
sVd0ku8a3
p2341
I1
sVdikj3tz
p2342
I1
sVd27jzki
p2343
I1
sVd46f3nk
p2344
I1
sVd00pipm
p2345
I1
sVdjcjnkx
p2346
I1
sVczz0gv4
p2347
I1
sVd8g5638
p2348
I1
sVd2k43ek
p2349
I1
sVdgkadhd
p2350
I2
sVd6q517h
p2351
I1
sVdc7yikn
p2352
I1
sVdhy0ms0
p2353
I1
sVdbar1po
p2354
I1
sVd31o56h
p2355
I1
sVd6o0zof
p2356
I4
sVdnr7hol
p2357
I1
sVcz490pv
p2358
I1
sVdhw9du2
p2359
I1
sVd9ag01u
p2360
I2
sVdt7tw8v
p2361
I1
sVdagtumg
p2362
I2
sVdr0x0o3
p2363
I1
sVdntcfu9
p2364
I1
sVd6lvfvr
p2365
I1
sVd2pngnm
p2366
I1
sVcyzz2il
p2367
I1
sVd0ek8pi
p2368
I1
sVdiyxxvf
p2369
I1
sVd1g659p
p2370
I1
sVdcjxoef
p2371
I1
sVdiwoif8
p2372
I1
sVds6xa1c
p2373
I1
sVdfea0cq
p2374
I1
sVde0g3l6
p2375
I1
sVdiq5g7g
p2376
I1
sVdb67dw3
p2377
I1
sVcyuy8wi
p2378
I2
sVdazv6n2
p2379
I1
sVdspp8g6
p2380
I1
sVdaq57bs
p2381
I1
sVd8jiqnw
p2382
I3
sVd8g71v1
p2383
I1
sVcz12xqb
p2384
I1
sVcz4u0hg
p2385
I1
sVd8oqvp9
p2386
I1
sVda34n3e
p2387
I1
sVdaztwmw
p2388
I1
sVdmyurti
p2389
I1
sVdh50z84
p2390
I1
sVcztt1bs
p2391
I1
sVd3ybtyu
p2392
I1
sVczbisya
p2393
I2
sVdq966fd
p2394
I1
sVd9p92hd
p2395
I1
sVds901re
p2396
I1
sVddtoxvw
p2397
I1
sVd73udds
p2398
I2
sVczks34i
p2399
I1
sVczw17rv
p2400
I1
sVd928n8t
p2401
I1
sVd8vh18z
p2402
I1
sVd5zz42l
p2403
I1
sVdho4svq
p2404
I1
sVdcghrs2
p2405
I1
sVd3t6tem
p2406
I1
sVdej7jg3
p2407
I4
sVdtji25y
p2408
I1
sVdqaw5dh
p2409
I1
sVd97j3af
p2410
I1
sVdbyojmt
p2411
I1
sVcyt4hj4
p2412
I1
sVdojoa3v
p2413
I1
sVdqrcgh7
p2414
I1
sVd9qzejl
p2415
I1
sVd43lao5
p2416
I1
sVdiue6v6
p2417
I1
sVd9jq1rv
p2418
I2
sVd2yjihp
p2419
I1
sVd0oejxu
p2420
I1
sVd169nsa
p2421
I2
sVdfiu83g
p2422
I1
sVdel611z
p2423
I2
sVdiwy9ql
p2424
I3
sVdd7v46p
p2425
I1
sVdappq9t
p2426
I3
sVd2r1nkp
p2427
I1
sVcz2ioc9
p2428
I1
sVd2mz773
p2429
I3
sVd5lx34o
p2430
I1
sVdc8agmx
p2431
I1
sVd551c3m
p2432
I1
sVdr7fmix
p2433
I1
sVd9cyynr
p2434
I1
sVdg0caws
p2435
I3
sVdrufulg
p2436
I1
sVd92914b
p2437
I1
sVd77a2eu
p2438
I1
sVdr22ilf
p2439
I1
sVdpe5sn2
p2440
I1
sVczw6i8i
p2441
I2
sVds1wjev
p2442
I1
sVd5stfps
p2443
I1
sVd37b6t9
p2444
I2
sVdftourl
p2445
I1
sVd6y6d3g
p2446
I1
sVd4kelzl
p2447
I1
sVd1xw7ac
p2448
I1
sVdhkhzo0
p2449
I1
sVdhidtz0
p2450
I3
sVdhqppx2
p2451
I1
sVdsu4p0v
p2452
I1
sVd4cvbts
p2453
I2
sVd82lqzf
p2454
I1
sVdr376ed
p2455
I1
sVdc1t7a6
p2456
I1
sVczetcnm
p2457
I2
sVdh1vi92
p2458
I1
sVczdzd1m
p2459
I1
sVdfieila
p2460
I1
sVd26ijwp
p2461
I1
sVdan751d
p2462
I4
sVczh610t
p2463
I2
sVdp78fw5
p2464
I2
sVczkwsbd
p2465
I1
sVdnkwy99
p2466
I2
sVdmy2td1
p2467
I1
sVdnb03qt
p2468
I1
sVdhsnf26
p2469
I1
sVcz1efuh
p2470
I1
sVd1l3db5
p2471
I1
sVdiwf0a5
p2472
I1
sVdsgn0sr
p2473
I1
sVdj6rkuu
p2474
I1
sVd6asc3l
p2475
I2
sVd1976e0
p2476
I1
sVd0x4egh
p2477
I2
sVdb0wkdc
p2478
I1
sVdqej7a1
p2479
I1
sVdp6psdr
p2480
I1
sVd9uf8te
p2481
I1
sVdchru0s
p2482
I2
sVdmxfolu
p2483
I1
sVd1ieuhm
p2484
I1
sVd0h1n0e
p2485
I1
sVdbmj8k4
p2486
I1
sVd57uyvo
p2487
I1
sVde5yer7
p2488
I1
sVdp2vjir
p2489
I1
sVdjgphkc
p2490
I1
sVdc79sq7
p2491
I1
sVd9o3ix2
p2492
I1
sVd7nrf7i
p2493
I1
sVdbmc7d9
p2494
I4
sVd21khi6
p2495
I1
sVczk0lx2
p2496
I1
sVd5avdkn
p2497
I1
sVd5pvuww
p2498
I1
sVczlxh20
p2499
I1
sVdomy0l0
p2500
I1
sVdch3x9j
p2501
I1
sVdad3we2
p2502
I1
sVd0r9tk0
p2503
I2
sVd37py5o
p2504
I1
sVdks3zgl
p2505
I3
sVd4ohe3x
p2506
I1
sVd3ztqmg
p2507
I1
sVdcmpgtf
p2508
I2
sVda4wlnf
p2509
I1
sVd149c63
p2510
I1
sVdc5vw7m
p2511
I1
sVd1m6f1m
p2512
I1
sVd8kbbdy
p2513
I1
sVdnwn89e
p2514
I1
sVczluv39
p2515
I1
sVdmfnqtq
p2516
I3
sVdhqa5yw
p2517
I1
sVd0h0i3u
p2518
I4
sVdncjcvr
p2519
I2
sVd315iq2
p2520
I1
sVdd9zp3k
p2521
I1
sVd47f1xd
p2522
I1
sVczt19sn
p2523
I1
sVd0hmn2b
p2524
I1
sVdmyiqfm
p2525
I1
sVd1tw3lu
p2526
I1
sVdmrc43a
p2527
I2
sVd0rqt2t
p2528
I4
sVdatq3uq
p2529
I1
sVddc8qz4
p2530
I1
sVd5nqw1d
p2531
I1
sVdryx60y
p2532
I1
sVczcdt94
p2533
I1
sVdgkoymw
p2534
I1
sVdrpor6p
p2535
I2
sVdjlsmik
p2536
I1
sVdf9szvb
p2537
I1
sVdj593qm
p2538
I1
sVd22zg2e
p2539
I3
sVdgm18lx
p2540
I1
sVcymqznp
p2541
I1
sVddkxu4b
p2542
I1
sVdg90klq
p2543
I1
sVd7yxou1
p2544
I3
sVdhb4qca
p2545
I1
sVdenl1bh
p2546
I2
sVd7yxa84
p2547
I1
sVdppo3ya
p2548
I1
sVdam6a1o
p2549
I1
sVd8egsen
p2550
I1
sVd3levef
p2551
I1
sVdnbmiz3
p2552
I1
sVd5a1854
p2553
I1
sVd0smbvm
p2554
I1
sVdf22bam
p2555
I1
sVdmkbxv8
p2556
I2
sVdc23jc2
p2557
I1
sVddcb43z
p2558
I1
sVdkxa613
p2559
I1
sVd2gw2j7
p2560
I1
sVdav2nz5
p2561
I1
sVdamo2qw
p2562
I1
sVdb8l8s3
p2563
I1
sVdilb2ro
p2564
I1
sVd1qc5ty
p2565
I2
sVdi7zkbz
p2566
I1
sVdi7y8ms
p2567
I1
sVdmktcj9
p2568
I1
sVddkch4f
p2569
I1
sVcyosb6x
p2570
I1
sVd6drqzu
p2571
I1
sVdjdlgwo
p2572
I1
sVdsh3nzo
p2573
I2
sVdi0tl0g
p2574
I1
sVd0f9zy2
p2575
I1
sVdfimkcx
p2576
I2
sVcyu9szt
p2577
I2
sVdan6m7u
p2578
I1
sVdo4ow73
p2579
I1
sVdfi82vk
p2580
I3
sVd5kncn7
p2581
I1
sVdjd1iwa
p2582
I1
sVd801wt6
p2583
I1
sVd835meo
p2584
I1
sVdhmlq8t
p2585
I1
sVdk67jyy
p2586
I1
sVdng60vo
p2587
I3
sVd20z677
p2588
I1
sVdn8woyq
p2589
I4
sVdh18fr0
p2590
I2
sVd77iwfy
p2591
I2
sVczflq64
p2592
I2
sVd22qwg8
p2593
I1
sVdp9bry5
p2594
I1
sVdd930hw
p2595
I1
sVdat211h
p2596
I1
sVda3zyy8
p2597
I2
sVditb8tn
p2598
I1
sVd6q1bsj
p2599
I1
sVd19dwzo
p2600
I1
sVdkpim2r
p2601
I1
sVdd5obra
p2602
I1
sVdeldahy
p2603
I1
sVdgjwe2f
p2604
I1
sVdp1nldj
p2605
I1
sVdd0l6xb
p2606
I2
sVdj00m44
p2607
I2
sVdf071wt
p2608
I3
sVd6qxb9g
p2609
I1
sVdjpah9s
p2610
I2
sVdia86td
p2611
I1
sVdga19he
p2612
I1
sVdgpnqx8
p2613
I1
sVd0dz30a
p2614
I4
sVd0co86o
p2615
I1
sVdbjzfaj
p2616
I1
sVdge6lhk
p2617
I1
sVd57lqrk
p2618
I1
sVd9zxpu1
p2619
I1
sVdpg06nu
p2620
I1
sVdd83z96
p2621
I1
sVcz5ok22
p2622
I1
sVd3pgkvp
p2623
I1
sVd2iw1xo
p2624
I1
sVdqswao3
p2625
I1
sVd9zxus7
p2626
I1
sVczm6xu0
p2627
I2
sVd781nee
p2628
I1
sVdn48hnj
p2629
I1
sVdcrik41
p2630
I1
sVdorz3gp
p2631
I2
sVd6imvht
p2632
I1
sVd5oy9u4
p2633
I2
sVdoyxgje
p2634
I1
sVdet7n7h
p2635
I1
sVdhdwifr
p2636
I3
sVdqbcm50
p2637
I1
sVd6wjlqb
p2638
I1
sVd5cti0a
p2639
I3
sVd7qm5cm
p2640
I2
sVd23o5i5
p2641
I1
sVdjiyaxq
p2642
I1
sVdb0h68a
p2643
I1
sVdi2v2no
p2644
I1
sVd4ztmfr
p2645
I1
sVd6c3a14
p2646
I1
sVdt2h4t1
p2647
I1
sVd8z9vfk
p2648
I1
sVd72e9yk
p2649
I1
sVdhzwudt
p2650
I1
sVd8m90eb
p2651
I2
sVdmy7p1i
p2652
I1
sVda3zu7j
p2653
I1
sVdknn8eu
p2654
I2
sVdp6ngw4
p2655
I2
sVdd40wob
p2656
I1
sVdruo9px
p2657
I1
sVd1haws0
p2658
I2
sVdikfufe
p2659
I1
sVd12vaei
p2660
I3
sVd6jvjuq
p2661
I1
sVdpbfz38
p2662
I2
sVdbahgwq
p2663
I1
sVdn1fuf1
p2664
I4
sVcyygzfb
p2665
I2
sVd7z9c0v
p2666
I2
sVdddkj5s
p2667
I2
sVdsq1qii
p2668
I1
sVd7ci51w
p2669
I1
sVdfgsstg
p2670
I1
sVczsxov5
p2671
I1
sVcyxypib
p2672
I1
sVdn1gl2t
p2673
I1
sVds6kc34
p2674
I1
sVdh70uub
p2675
I1
sVd0jlc8t
p2676
I1
sVd70cjyq
p2677
I1
sVdcmn3hk
p2678
I1
sVd2yl0kb
p2679
I1
sVdi6dm28
p2680
I1
sVddyn8js
p2681
I1
sVdf6amx5
p2682
I2
sVd2stokm
p2683
I1
sVd07ovfv
p2684
I1
sVd5dc9mk
p2685
I2
sVdqt8jyc
p2686
I1
sVd9w9oer
p2687
I1
sVda8gpzn
p2688
I1
sVdbfc8hr
p2689
I1
sVdmvk87t
p2690
I1
sVdrp379v
p2691
I1
sVdnvmne6
p2692
I1
sVdoddrwt
p2693
I1
sVd0zkkd0
p2694
I2
sVd42tg5k
p2695
I1
sVdok8nsk
p2696
I5
sVd2f8y7o
p2697
I1
sVd5nzfcv
p2698
I1
sVdfmike0
p2699
I1
sVcz146nc
p2700
I2
sVd1g70pu
p2701
I1
sVdkxnydq
p2702
I1
sVd37wzre
p2703
I1
sVd0pq5ju
p2704
I1
sVdjeoj28
p2705
I1
sVd3ruuuy
p2706
I1
sVdf05gjr
p2707
I3
sVd07m319
p2708
I1
sVcyluxi2
p2709
I4
sVcz8prb1
p2710
I7
sVdhd6juy
p2711
I3
sVd09ridw
p2712
I1
sVdcuim67
p2713
I1
sVcynv8j8
p2714
I8
sVd8j61sr
p2715
I3
sVdfvet1e
p2716
I1
sVdbwrb9v
p2717
I1
sVdnpom5j
p2718
I1
sVdf5bn4v
p2719
I1
sVddt2ko5
p2720
I3
sVdb8k389
p2721
I1
sVd9avx70
p2722
I1
sVd94zk1l
p2723
I1
sVdohz2vg
p2724
I3
sVd4prm7e
p2725
I1
sVditjghf
p2726
I1
sVdgyu7ow
p2727
I2
sVd1zuacj
p2728
I1
sVd7px9lw
p2729
I1
sVdednu4t
p2730
I2
sVdqmp55k
p2731
I1
sVdmuuj6s
p2732
I1
sVdrmopq0
p2733
I2
sVd5f8lxa
p2734
I1
sVd5j95zl
p2735
I2
sVd11na6s
p2736
I1
sVdgpe6be
p2737
I3
sVdegzra8
p2738
I3
sVdfza140
p2739
I1
sVdhx5mts
p2740
I1
sVczqb99d
p2741
I2
sVdkktowu
p2742
I1
sVd1dn7fl
p2743
I1
sVd4xo1vo
p2744
I1
sVda7j3da
p2745
I1
sVdaq1uvp
p2746
I1
sVd5azsem
p2747
I1
sVd5t3max
p2748
I1
sVdmnnky9
p2749
I2
sVdgows2w
p2750
I2
sVd9pndo8
p2751
I1
sVddcbhpc
p2752
I1
sVdgdckfr
p2753
I1
sVdk4mosz
p2754
I2
sVd1d7hna
p2755
I2
sVd3lntf5
p2756
I2
sVdgflkaf
p2757
I1
sVd3bibg3
p2758
I2
sVcywjv3u
p2759
I1
sVdc7ki2b
p2760
I1
sVd66x0wd
p2761
I2
sVd0k6xhg
p2762
I1
sVd0bs7ug
p2763
I1
sVdmz4nqr
p2764
I1
sVcznixd9
p2765
I1
sVdtf0w1f
p2766
I1
sVd9pxa0i
p2767
I1
sVdfyusm8
p2768
I1
sVd9qvqct
p2769
I1
sVdhn7nn4
p2770
I1
sVd7fpaec
p2771
I1
sVdo7r2p0
p2772
I2
sVd1nri3f
p2773
I1
sVdfmy422
p2774
I4
sVd618pjb
p2775
I1
sVd7gdi3c
p2776
I1
sVdb63e1a
p2777
I1
sVdf88924
p2778
I1
sVdi6f2rq
p2779
I1
sVcynof79
p2780
I1
sVd89o615
p2781
I1
sVd1k59oh
p2782
I1
sVd5cdxw3
p2783
I1
sVd215to4
p2784
I1
sVd3ra6df
p2785
I1
sVdbs9nso
p2786
I5
sVd6njfbc
p2787
I1
sVd62aajl
p2788
I3
sVdhxhwuz
p2789
I1
sVd5sj237
p2790
I1
sVd4ftezp
p2791
I1
sVcz6orjf
p2792
I1
sVd0m7v63
p2793
I2
sVd1a244j
p2794
I1
sVd8ltbja
p2795
I1
sVd708eaw
p2796
I1
sVd1h2ru7
p2797
I2
sVdi0t3ru
p2798
I1
sVd3rtp4b
p2799
I2
sVdki7ock
p2800
I2
sVczswcsx
p2801
I1
sVd7byjh5
p2802
I1
sVdc1v3md
p2803
I1
sVdo05343
p2804
I1
sVd0h3g2s
p2805
I1
sVdept4ke
p2806
I1
sVd189idi
p2807
I1
sVdfq4x0x
p2808
I1
sVd9xrs7n
p2809
I1
sVdkbkfc5
p2810
I1
sVdhx63xs
p2811
I1
sVd0cbbfd
p2812
I4
sVczeczh4
p2813
I6
sVdds77v1
p2814
I2
sVd12u1zb
p2815
I1
sVdfj0anw
p2816
I1
sVd48s4yy
p2817
I1
sVd4cqs0y
p2818
I1
sVd3e5uey
p2819
I1
sVd2523iv
p2820
I2
sVdnkhui0
p2821
I1
sVdiu39ye
p2822
I3
sVdd1qp14
p2823
I1
sVd0vppj3
p2824
I1
sVd5hbscz
p2825
I1
sVdcmh5t5
p2826
I1
sVdcf0k3q
p2827
I1
sVdi73pme
p2828
I1
sVd8djevs
p2829
I1
sVdcwm14y
p2830
I3
sVdi15bm0
p2831
I1
sVd5wcjvj
p2832
I1
sVdqvx6ga
p2833
I1
sVd3lltm4
p2834
I2
sVdau0nll
p2835
I1
sVdbcp4bd
p2836
I1
sVdmjqsgr
p2837
I1
sVd8lw0fe
p2838
I1
sVdhn4ewy
p2839
I1
sVd6rgcjr
p2840
I1
sVddqluh5
p2841
I4
sVcyojpp1
p2842
I1
sVd1kp2uw
p2843
I1
sVd9adyiy
p2844
I1
sVdgwi3n0
p2845
I1
sVdhndeu2
p2846
I2
sVdc86g68
p2847
I2
sVczn9ct1
p2848
I1
sVd0bb49y
p2849
I1
sVd7uil3a
p2850
I1
sVdomzlfi
p2851
I1
sVdsla7e2
p2852
I1
sVdrsklha
p2853
I2
sVczxjtv8
p2854
I1
sVd7y6cnw
p2855
I1
sVdi2rfxf
p2856
I2
sVczte19g
p2857
I1
sVdc1e83g
p2858
I1
sVdfhfw4f
p2859
I1
sVdhsn7d1
p2860
I1
sVd5he1g3
p2861
I1
sVcyvam2g
p2862
I1
sVdhgry0j
p2863
I2
sVdbe0vhz
p2864
I2
sVdfp15q0
p2865
I1
sVdc7vu6g
p2866
I1
sVdmjdj83
p2867
I1
sVd1qg9nu
p2868
I1
sVd7lvgy3
p2869
I2
sVdq6l06i
p2870
I1
sVd3ui05c
p2871
I1
sVd8w0o46
p2872
I1
sVd62xf11
p2873
I1
sVdc1xw3n
p2874
I1
sVd8t1xpu
p2875
I1
sVd3mdlgx
p2876
I1
sVda8gw2w
p2877
I1
sVd19injf
p2878
I1
sVdg5b2tf
p2879
I1
sVdfwsofn
p2880
I1
sVd30e1w0
p2881
I3
sVcz5b15q
p2882
I1
sVd1zjkki
p2883
I3
sVdshrdtt
p2884
I5
sVdtdve7r
p2885
I1
sVdhj7h3s
p2886
I1
sVd2w4ozg
p2887
I1
sVcz2s7qx
p2888
I1
sVd37nzmu
p2889
I2
sVdh7elpi
p2890
I1
sVdouvqmo
p2891
I2
sVd1zyhik
p2892
I1
sVd2h0ctf
p2893
I1
sVdqcv4z5
p2894
I1
sVcyvcv1j
p2895
I2
sVd68xkgd
p2896
I2
sVd36ja5r
p2897
I1
sVd14nqlx
p2898
I2
sVdq22bej
p2899
I1
sVd6b4xip
p2900
I2
sVdqcep89
p2901
I2
sVdmo25u6
p2902
I1
sVdrp3s87
p2903
I1
sVdonyslp
p2904
I1
sVdbqups8
p2905
I1
sVdpqwxtf
p2906
I1
sVd1xwo27
p2907
I2
sVdixyyf3
p2908
I1
sVdetwa9n
p2909
I1
sVdf73dcf
p2910
I1
sVdoxshql
p2911
I3
sVczkq1p2
p2912
I1
sVdjgqa37
p2913
I1
sVdas9nky
p2914
I1
sVd7z72wz
p2915
I1
sVd7pw2vz
p2916
I2
sVddsimzo
p2917
I1
sVdot6hft
p2918
I1
sVd5wdo9y
p2919
I1
sVd7seblp
p2920
I1
sVd8547pn
p2921
I3
sVd1mfthw
p2922
I3
sVdb7dqyo
p2923
I1
sVdqb4gzh
p2924
I1
sVd7bp8kt
p2925
I2
sVdodqqte
p2926
I1
sVdg6h794
p2927
I1
sVd2yig8j
p2928
I1
sVdk5bt74
p2929
I2
sVdhtccdn
p2930
I1
sVd2z1105
p2931
I1
sVdqgsooh
p2932
I1
sVd2uzrbj
p2933
I2
sVd99qdiw
p2934
I1
sVd10m8ut
p2935
I1
sVd6j7zfh
p2936
I1
sVdgskes6
p2937
I1
sVd9kwt59
p2938
I3
sVdgkbilp
p2939
I1
sVd69kqcw
p2940
I3
sVdcss6ms
p2941
I1
sVd3gv379
p2942
I1
sVdf4r1fz
p2943
I2
sVdkbwqfi
p2944
I1
sVdhz87h6
p2945
I1
sVd1xzpwc
p2946
I1
sVd1c9rcf
p2947
I1
sVds4asmi
p2948
I1
sVdcspl5n
p2949
I1
sVd04o6lr
p2950
I1
sVd2gfuxz
p2951
I1
sVdc1e5b2
p2952
I1
sVdnoeofd
p2953
I1
sVd581b4c
p2954
I1
sVdk3v5x1
p2955
I1
sVd9bcujd
p2956
I7
sVd6z7mto
p2957
I1
sVd89vvv6
p2958
I1
sVd0iy60x
p2959
I3
sVcze1r4z
p2960
I1
sVd3y0diy
p2961
I1
sVdioqzlt
p2962
I1
sVd92g9ww
p2963
I1
sVdhrcgfp
p2964
I1
sVdfyz4j8
p2965
I2
sVdgob8jw
p2966
I1
sVczjbmcb
p2967
I3
sVdrjn2b0
p2968
I2
sVdr6lays
p2969
I2
sVdr0nol7
p2970
I1
sVd8spr4r
p2971
I1
sVd78zznm
p2972
I3
sVd9iplr5
p2973
I1
sVd22kh7l
p2974
I1
sVczcscbt
p2975
I1
sVd0g38f1
p2976
I1
sVd1tvatl
p2977
I1
sVcz3bct8
p2978
I1
sVde9tags
p2979
I3
sVd6dyvja
p2980
I2
sVd8w2r63
p2981
I2
sVdp633gz
p2982
I1
sVdew734g
p2983
I1
sVd2ltirh
p2984
I1
sVd116c8o
p2985
I1
sVd2ueiqy
p2986
I6
sVda9bhbu
p2987
I1
sVdj0uwx2
p2988
I1
sVdkdiznt
p2989
I1
sVddr4nun
p2990
I1
sVdagc4mn
p2991
I1
sVdo4vij1
p2992
I1
sVd5el7p6
p2993
I1
sVdp35a14
p2994
I1
sVdix6b9o
p2995
I1
sVdrs0zmj
p2996
I1
sVdg0e8wi
p2997
I1
sVdfjf1jz
p2998
I1
sVd0oqp28
p2999
I1
sVd017ep8
p3000
I1
sVd493fk7
p3001
I1
sVd3ng0d5
p3002
I1
sVd79f53x
p3003
I1
sVdqspudy
p3004
I6
sVcz5cshh
p3005
I2
sVdh7bpyg
p3006
I1
sVdfgo4lm
p3007
I1
sVdsdum3t
p3008
I1
sVd8kcv9r
p3009
I2
sVd51ikfx
p3010
I1
sVdc19m63
p3011
I1
sVdholezf
p3012
I2
sVd3a7lt8
p3013
I1
sVdbqfznn
p3014
I1
sVd0bgpjs
p3015
I1
sVdhol8r0
p3016
I3
sVdmm37an
p3017
I1
sVcz04d8v
p3018
I2
sVdb7oxr8
p3019
I1
sVd0s4dqq
p3020
I1
sVdj1hfit
p3021
I1
sVdi80bdv
p3022
I1
sVcz8xai2
p3023
I1
sVd3zighh
p3024
I1
sVdb8xqth
p3025
I1
sVd97qz10
p3026
I1
sVd6rvn7b
p3027
I1
sVd45w02o
p3028
I1
sVd5jbhv3
p3029
I2
sVd815vbr
p3030
I3
sVd5c7p4v
p3031
I1
sVdemr7zn
p3032
I1
sVdoav8fx
p3033
I1
sVd18c4kh
p3034
I1
sVcz99mr9
p3035
I2
sVdd59oz3
p3036
I5
sVd9vuimh
p3037
I1
sVdrz6i1q
p3038
I4
sVdbt1kdo
p3039
I2
sVd93c3e7
p3040
I1
sVdc83fr3
p3041
I1
sVd8gn2we
p3042
I1
sVcyzxjh4
p3043
I3
sVczgowcc
p3044
I1
sVd9s3nto
p3045
I1
sVd66u3by
p3046
I1
sVd3xsa0p
p3047
I1
sVd7d1wpi
p3048
I1
sVcytyftf
p3049
I1
sVcynkusy
p3050
I1
sVd1peyu3
p3051
I2
sVdgsf7ux
p3052
I1
sVdahjpl8
p3053
I1
sVd2a31zq
p3054
I1
sVdkg539e
p3055
I1
sVdjoufrx
p3056
I1
sVdde2cdm
p3057
I1
sVd3pd78j
p3058
I1
sVd2d0hmf
p3059
I1
sVdmijmy4
p3060
I1
sVd7non39
p3061
I1
sVdj1wjvi
p3062
I2
sVdmwh020
p3063
I1
sVdb4b353
p3064
I1
sVd8gdmwx
p3065
I1
sVdgaekef
p3066
I2
sVdr5vqzw
p3067
I1
sVdemj5gx
p3068
I1
sVdp67pec
p3069
I1
sVd2h1pao
p3070
I1
sVd76skhm
p3071
I1
sVdop5cja
p3072
I2
sVdr1kkvz
p3073
I1
sVdrfc3uk
p3074
I2
sVdj1vzvv
p3075
I1
sVczsh2qk
p3076
I1
sVdc7ytw8
p3077
I1
sVd1hsdla
p3078
I2
sVd728s3k
p3079
I2
sVdrqtayv
p3080
I1
sVd8wilry
p3081
I2
sVd027tks
p3082
I1
sVdexwfom
p3083
I1
sVddt1jq3
p3084
I1
sVd555yao
p3085
I1
sVdneiog9
p3086
I4
sVdcpq4qo
p3087
I1
sVd2jcijj
p3088
I1
sVds9k4ln
p3089
I3
sVcza6sxk
p3090
I1
sVcymn7mj
p3091
I3
sVd7ifctk
p3092
I1
sVdicmx7w
p3093
I2
sVdksgzpw
p3094
I1
sVd3ttdrr
p3095
I2
sVdc6t4sl
p3096
I1
sVdfcuypp
p3097
I1
sVdbmrhvu
p3098
I1
sVcz3g0tz
p3099
I4
sVdrlsjc1
p3100
I4
sVdfmoxhc
p3101
I1
sVcywuan9
p3102
I1
sVd4avsq9
p3103
I1
sVd11840q
p3104
I3
sVdt7uy9i
p3105
I1
sVdszmckf
p3106
I1
sVdg2wc7a
p3107
I1
sVdsuzaqm
p3108
I2
sVda7xqrz
p3109
I1
sVd00rzvl
p3110
I1
sVdkh2r4d
p3111
I1
sVd1j4kyt
p3112
I1
sVd1p1xh4
p3113
I3
sVdholkzt
p3114
I4
sVczs1jpz
p3115
I1
sVdfaq515
p3116
I1
sVdex3d8b
p3117
I1
sVcyujb7c
p3118
I1
sVdap30bd
p3119
I1
sVdcb4o64
p3120
I2
sVczozql2
p3121
I1
sVdi9bhmz
p3122
I2
sVd62ik8g
p3123
I1
sVdbg1nlz
p3124
I1
sVdaghic1
p3125
I1
sVdgthfyp
p3126
I1
sVdar1rat
p3127
I1
sVdd1hb3j
p3128
I1
sVdfabrwe
p3129
I1
sVde9qd67
p3130
I1
sVd37nwrb
p3131
I4
sVd6jwbn0
p3132
I1
sVcynvimj
p3133
I1
sVd04i6pv
p3134
I1
sVdbqmy3b
p3135
I7
sVcymgynb
p3136
I1
sVdio7s0m
p3137
I1
sVd5ch334
p3138
I1
sVdedtutz
p3139
I1
sVd7z81w3
p3140
I2
sVdjxe6w1
p3141
I3
sVczzs90z
p3142
I1
sVds9j2fv
p3143
I1
sVdbcp4os
p3144
I1
sVd6j8buo
p3145
I1
sVdbjjrb2
p3146
I1
sVd528go3
p3147
I1
sVczk53pq
p3148
I1
sVd58fknq
p3149
I1
sVd2pn3bv
p3150
I3
sVdcmwxmp
p3151
I2
sVdi7bbb0
p3152
I1
sVcyzeaol
p3153
I1
sVd70z6a2
p3154
I1
sVd1kuxu2
p3155
I1
sVd7h39aj
p3156
I1
sVd91iun5
p3157
I3
sVdpoat0y
p3158
I1
sVd26bye4
p3159
I2
sVdk7p354
p3160
I2
sVd28b0e6
p3161
I1
sVdirsblq
p3162
I1
sVd7qrtqd
p3163
I1
sVd6f5wso
p3164
I4
sVdp4tsa3
p3165
I1
sVczzad4k
p3166
I2
sVdmhjza0
p3167
I1
sVdh1ntjm
p3168
I1
sVdrnd7l6
p3169
I1
sVd3ntaaq
p3170
I1
sVd1qcn5q
p3171
I3
sVd4csfqu
p3172
I3
sVdc9rjdy
p3173
I1
sVdahcnso
p3174
I2
sVdkqq0sl
p3175
I1
sVd8gpdp6
p3176
I1
sVdod18ts
p3177
I2
sVd065b0z
p3178
I1
sVdhfjafq
p3179
I3
sVd1di9c4
p3180
I3
sVdeopaka
p3181
I1
sVdg0ik7h
p3182
I1
sVdbvyvlw
p3183
I4
sVd9fr851
p3184
I1
sVdpuozqh
p3185
I1
sVdo8tzdn
p3186
I1
sVdgjuj5q
p3187
I2
sVczq7wl5
p3188
I1
sVdnaje1y
p3189
I1
sVd72912c
p3190
I2
sVd9wsad2
p3191
I1
sVdnjylck
p3192
I1
sVd0v19n2
p3193
I1
sVded42qe
p3194
I1
sVd038knd
p3195
I1
sVd3yph7p
p3196
I1
sVdh1uj83
p3197
I3
sVdqb7z55
p3198
I1
sVdilua7b
p3199
I1
sVd9aahwt
p3200
I1
sVdewu1s3
p3201
I1
sVdpoboj3
p3202
I1
sVdibzlww
p3203
I1
sVdqxjf6d
p3204
I1
sVd6ny8np
p3205
I1
sVd6abc7e
p3206
I3
sVczxt9jk
p3207
I2
sVdjgdwmc
p3208
I1
sVd8tl5ko
p3209
I1
sVdaitu3y
p3210
I1
sVd4yr9wq
p3211
I1
sVderu7km
p3212
I1
sVdhyu2aj
p3213
I1
sVczgz0jj
p3214
I2
sVdknl2qy
p3215
I1
sVd5hoc8c
p3216
I1
sVdai5b9m
p3217
I1
sVdgj81yk
p3218
I1
sVd2orso4
p3219
I2
sVd8k6g2m
p3220
I1
sVd6xhybm
p3221
I1
sVdadq8lb
p3222
I1
sVd9a4g5c
p3223
I2
sVd9vbyw0
p3224
I1
sVd8lt2zp
p3225
I1
sVdkv3ymg
p3226
I1
sVdoj7a6i
p3227
I2
sVd3ijmeb
p3228
I1
sVd2co4wd
p3229
I1
sVdnomjow
p3230
I1
sVd3m56lr
p3231
I1
sVdfdah22
p3232
I1
sVdrj4bge
p3233
I1
sVd3xpne4
p3234
I1
sVdbhirrb
p3235
I7
sVczoh4t0
p3236
I1
sVdrado1e
p3237
I2
sVdbsjkzj
p3238
I1
sVdj2qzln
p3239
I1
sVd00irdp
p3240
I1
sVd7g7wo1
p3241
I1
sVd2urdj3
p3242
I2
sVd6y0l08
p3243
I1
sVdsnyo8b
p3244
I4
sVdbewqqx
p3245
I1
sVdcxo2py
p3246
I1
sVdp2abuu
p3247
I2
sVdcpd8d3
p3248
I4
sVd40vmcq
p3249
I1
sVdmufupa
p3250
I1
sVd0dlenw
p3251
I4
sVdep7zcl
p3252
I1
sVdk1kik1
p3253
I1
sVd1edi41
p3254
I2
sVd7yn8q4
p3255
I2
sVdbafped
p3256
I1
sVdo64grd
p3257
I3
sVdfdelp0
p3258
I2
sVddfr33e
p3259
I1
sVdn2m2u0
p3260
I1
sVdendlcf
p3261
I1
sVdbix58f
p3262
I1
sVdk3s37x
p3263
I2
sVd1edy4e
p3264
I1
sVdcqih5b
p3265
I2
sVdn6x1zs
p3266
I2
sVdfml4i3
p3267
I1
sVdrxpxhn
p3268
I2
sVdsri0v2
p3269
I1
sVdb7l65v
p3270
I1
sVdg0h364
p3271
I1
sVdknub6d
p3272
I1
sVd1oajk7
p3273
I1
sVdi3i7rh
p3274
I1
sVcymrw23
p3275
I1
sVd22wepd
p3276
I1
sVdc4b6sg
p3277
I1
sVdh1z8ea
p3278
I2
sVd0awv0j
p3279
I1
sVczyb0ib
p3280
I1
sVdkbft6a
p3281
I1
sVdj0leat
p3282
I1
sVd7bj1e7
p3283
I1
sVdhipicx
p3284
I1
sVd0gxn00
p3285
I1
sVdrxbljj
p3286
I4
sVdj3rqzl
p3287
I1
sVddwky8y
p3288
I1
sVdnx3wlv
p3289
I1
sVd5siep9
p3290
I1
sVdhhfdkq
p3291
I1
sVd0f914z
p3292
I1
sVd7nyq8u
p3293
I1
sVdjph7gh
p3294
I1
sVdcebpat
p3295
I4
sVd9z77kf
p3296
I1
sVdr0umkh
p3297
I1
sVd1eew6v
p3298
I1
sVcysbqfb
p3299
I1
sVd97p400
p3300
I1
sVdkirevr
p3301
I1
sVdq786fh
p3302
I1
sVddg8lqh
p3303
I2
sVd7vagxm
p3304
I1
sVdjrhihb
p3305
I1
sVdsazlzi
p3306
I1
sVdfwp9ak
p3307
I2
sVczzzeyy
p3308
I1
sVczlmikx
p3309
I1
sVdbgagbn
p3310
I2
sVdp9vwg6
p3311
I2
sVdkcskzj
p3312
I2
sVdqc159j
p3313
I1
sVd23vzbp
p3314
I1
sVdqj5lvc
p3315
I1
sVds2hujn
p3316
I2
sVczivhkf
p3317
I2
sVczh15u3
p3318
I1
sVd3ryxnp
p3319
I1
sVczevzda
p3320
I1
sVd0753ts
p3321
I1
sVd6jkquf
p3322
I1
sVd0wicqu
p3323
I1
sVd5oy1ir
p3324
I3
sVd29qxjk
p3325
I1
sVd14qodp
p3326
I1
sVdqhzj1k
p3327
I1
sVd3an2f8
p3328
I2
sVdc4j929
p3329
I1
sVdqlba2d
p3330
I1
sVd1oyzys
p3331
I1
sVd1zlq1p
p3332
I1
sVczt2e1m
p3333
I3
sVd08xl5k
p3334
I2
sVd0n6jiv
p3335
I1
sVd7dcm3u
p3336
I1
sVdoae3f1
p3337
I3
sVd07j48u
p3338
I1
sVd012vcf
p3339
I1
sVd454plv
p3340
I1
sVdhmablq
p3341
I1
sVd0ynq2e
p3342
I1
sVcylliq9
p3343
I1
sVdjw7v00
p3344
I2
sVcz5uqg9
p3345
I1
sVd43puxy
p3346
I1
sVd8gt4af
p3347
I2
sVd8ahsqb
p3348
I1
sVcziwwyl
p3349
I4
sVdgdhxp8
p3350
I1
sVd4wrx7c
p3351
I1
sVddcp7ig
p3352
I1
sVdmowqi1
p3353
I1
sVdiwqe1u
p3354
I1
sVdashgj3
p3355
I2
sVdasrcg5
p3356
I1
sVdqo5k9g
p3357
I1
sVczzxmqn
p3358
I1
sVdh1dch9
p3359
I1
sVd62q97r
p3360
I1
sVd2ltm3q
p3361
I1
sVdhksjm5
p3362
I1
sVczyxjnq
p3363
I1
sVd3i4l7w
p3364
I1
sVdddkl7y
p3365
I1
sVd3wr123
p3366
I1
sVdi5zbdi
p3367
I2
sVdheonga
p3368
I2
sVds8xqia
p3369
I1
sVd3wmzom
p3370
I1
sVdfg6ad1
p3371
I1
sVdj6va40
p3372
I1
sVdinqr3g
p3373
I1
sVdb2vzc1
p3374
I1
sVdpcbor3
p3375
I1
sVdt7x20m
p3376
I1
sVdh6f0ct
p3377
I2
sVdepswjy
p3378
I1
sVd3zdak8
p3379
I1
sVd8tkl0g
p3380
I1
sVd429i0t
p3381
I1
sVdrichyn
p3382
I1
sVd2tev3r
p3383
I1
sVdgscgk5
p3384
I5
sVda9e57r
p3385
I1
sVd2808uo
p3386
I1
sVd4kcz0h
p3387
I1
sVdncromu
p3388
I1
sVdq053x5
p3389
I1
sVczng4qm
p3390
I1
sVdik1x24
p3391
I1
sVdir4mgg
p3392
I1
sVde1ekah
p3393
I1
sVdos8qpy
p3394
I1
sVdgf5eis
p3395
I3
sVdsm65dx
p3396
I2
sVdd0mric
p3397
I1
sVdq8xj63
p3398
I1
sVd07p9hi
p3399
I1
sVdq292ev
p3400
I1
sVcyj55t5
p3401
I1
sVde1epch
p3402
I4
sVds6jk5z
p3403
I1
sVcytx3u5
p3404
I1
sVdc4c4o8
p3405
I1
sVd1r2xmx
p3406
I1
sVdh2n0tl
p3407
I1
sVd3ulfce
p3408
I1
sVddcb71p
p3409
I2
sVd0r4opu
p3410
I1
sVdgwqbyw
p3411
I2
sVdiseusx
p3412
I2
sVd2aqde6
p3413
I1
sVdeec502
p3414
I1
sVd7nhw4o
p3415
I1
sVdd0a2u0
p3416
I1
sVczh2iil
p3417
I1
sVd6q5ofa
p3418
I1
sVdokxq2o
p3419
I2
sVd3fujua
p3420
I1
sVdjmdudi
p3421
I1
sVdkm3lmh
p3422
I1
sVdpop29p
p3423
I1
sVd9e4y0a
p3424
I2
sVd6jb3d0
p3425
I1
sVd55gqqr
p3426
I2
sVdp0pbyh
p3427
I2
sVdspfttk
p3428
I1
sVd1m50oa
p3429
I4
sVdc8o6kj
p3430
I1
sVdn9ocu3
p3431
I1
sVdmix252
p3432
I1
sVdgixrow
p3433
I1
sVdjfhcfm
p3434
I2
sVd2kplei
p3435
I1
sVdbi6rbr
p3436
I2
sVcyis4ji
p3437
I2
sVdar1ake
p3438
I1
sVd8gs8ao
p3439
I1
sVdny01u9
p3440
I2
sVd10pe16
p3441
I1
sVdj0cbrb
p3442
I1
sVd5ci9gr
p3443
I1
sVdi7vejg
p3444
I1
sVdryiwfm
p3445
I1
sVd26o7dr
p3446
I1
sVd3xc9dv
p3447
I1
sVczs70kp
p3448
I1
sVdizqw6n
p3449
I2
sVdiyzlw1
p3450
I1
sVd0xfds4
p3451
I1
sVdjo0nnh
p3452
I1
sVd069cpw
p3453
I1
sVdc7vyza
p3454
I1
sVd1i04wm
p3455
I1
sVd7w3c8z
p3456
I1
sVdit7ovu
p3457
I1
sVd4xd17n
p3458
I1
sVdawoxxy
p3459
I1
sVdgayc74
p3460
I1
sVd9xuxaj
p3461
I1
sVd6q4eop
p3462
I1
sVdftn29p
p3463
I1
sVdfh5b9h
p3464
I1
sVdk5eeku
p3465
I1
sVdikdtej
p3466
I1
sVdoqegln
p3467
I1
sVdp2mr5l
p3468
I2
sVd21abdw
p3469
I1
sVd1jjodx
p3470
I1
sVd2vs907
p3471
I1
sVd8e3fep
p3472
I4
sVdmx6jvc
p3473
I1
sVdde3ulk
p3474
I1
sVd70ny5h
p3475
I1
sVdj4nmbs
p3476
I1
sVdf884c6
p3477
I4
sVd6js8s4
p3478
I1
sVdi8cqv3
p3479
I1
sVcz5xcyx
p3480
I1
sVd2fs6vv
p3481
I1
sVdqir4im
p3482
I1
sVczn6ox8
p3483
I1
sVd0bonwp
p3484
I1
sVdi6kev9
p3485
I2
sVdrcf35j
p3486
I1
sVd1pm3i6
p3487
I6
sVdmixo1o
p3488
I1
sVdcenfiw
p3489
I1
sVdpcptic
p3490
I1
sVd0vmrox
p3491
I6
sVd2jp25q
p3492
I1
sVd8valcv
p3493
I2
sVdqde21h
p3494
I2
sVdb3u6ig
p3495
I1
sVcyuldux
p3496
I2
sVdcwluyp
p3497
I2
sVd1smegv
p3498
I1
sVdck4ynz
p3499
I1
sVd5qf5e0
p3500
I1
sVd2vo123
p3501
I1
sVd162l93
p3502
I1
sVczx5ree
p3503
I1
sVczfjggz
p3504
I1
sVdrzzrh3
p3505
I1
sVdbb7pjq
p3506
I2
sVdhlih17
p3507
I1
sVdp64dk4
p3508
I3
sVdjrn854
p3509
I1
sVd75cagf
p3510
I1
sVd2y06uh
p3511
I1
sVd8ezmyd
p3512
I1
sVdrb9nb3
p3513
I2
sVd16hjk5
p3514
I2
sVdkltv0z
p3515
I1
sVdkrma9n
p3516
I1
sVda0dpo4
p3517
I2
sVdb89chs
p3518
I1
sVdhd5jkp
p3519
I1
sVdiws6ig
p3520
I1
sVd1jhqh5
p3521
I1
sVds4ewwf
p3522
I1
sVd1l09v5
p3523
I2
sVdsmatqp
p3524
I1
sVdo9sf5e
p3525
I1
sVdmsywwl
p3526
I1
sVdnqgdvw
p3527
I1
sVdb3spmi
p3528
I1
sVd3for5c
p3529
I1
sVd0vovzt
p3530
I1
sVczqyget
p3531
I2
sVd6smeiu
p3532
I2
sVdgs0czd
p3533
I1
sVd5glms2
p3534
I1
sVcypwxn8
p3535
I1
sVdb524xk
p3536
I1
sVdfwugrn
p3537
I1
sVdkgyyza
p3538
I1
sVd8g5u7j
p3539
I3
sVdc1uzmo
p3540
I1
sVddir4a0
p3541
I1
sVd386954
p3542
I2
sVd4npwzc
p3543
I1
sVdgebtfs
p3544
I2
sVczdtxvi
p3545
I2
sVd3zx2yv
p3546
I2
sVdayukrc
p3547
I4
sVdo9vv8r
p3548
I1
sVd3c8d1j
p3549
I1
sVd4lzccn
p3550
I1
sVd7ndyxg
p3551
I1
sVde2i6mk
p3552
I1
sVdr04tmo
p3553
I1
sVdn7t0b0
p3554
I1
sVdi3ji51
p3555
I1
sVdrsvui7
p3556
I4
sVdjllz1x
p3557
I2
sVd8gdg0z
p3558
I1
sVd6hed53
p3559
I1
sVdc4dxt1
p3560
I1
sVdk2ar9m
p3561
I1
sVdksokrh
p3562
I1
sVdc96vsf
p3563
I1
sVdpoom1z
p3564
I1
sVdfdqnck
p3565
I5
sVczlfd5i
p3566
I1
sVdod4x4u
p3567
I1
sVdn5bylp
p3568
I3
sVdgbe6zt
p3569
I4
sVdo2pvgb
p3570
I1
sVdhmzb9y
p3571
I1
sVd28r8u9
p3572
I1
sVdnexlz9
p3573
I2
sVde1a30f
p3574
I1
sVderzdwd
p3575
I2
sVdjcq8uj
p3576
I1
sVd9yijtx
p3577
I1
sVdqpdm4o
p3578
I1
sVcyoafs3
p3579
I1
sVdepksa2
p3580
I3
sVdfkojfw
p3581
I1
sVddxda21
p3582
I1
sVde6sdbr
p3583
I1
sVdd6p5ym
p3584
I1
sVdc3pkea
p3585
I2
sVd37hc4p
p3586
I1
sVd5iyerz
p3587
I1
sVd1k4miy
p3588
I1
sVd2jpyf5
p3589
I3
sVd1j6vmg
p3590
I1
sVdi7zw61
p3591
I1
sVdo1mrrq
p3592
I1
sVd0ynqja
p3593
I1
sVdo7x6l2
p3594
I2
sVd5nl7rb
p3595
I1
sVdog9z1p
p3596
I1
sVd8erooo
p3597
I2
sVdpxcoip
p3598
I1
sVdaj68qt
p3599
I3
sVdqtqmbj
p3600
I1
sVdj9gb0y
p3601
I1
sVd53v7xh
p3602
I1
sVd0rf7ls
p3603
I1
sVdq06tgc
p3604
I1
sVdfiqyns
p3605
I1
sVd1xo0z7
p3606
I2
sVdaf71xc
p3607
I1
sVczshfkh
p3608
I1
sVdcrl2lq
p3609
I1
sVd7bl1s1
p3610
I1
sVd27msq5
p3611
I3
sVd7gw1mp
p3612
I1
sVdgjmts8
p3613
I1
sVd7skf2p
p3614
I1
sVd7yh0so
p3615
I1
sVdcwmuyi
p3616
I1
sVdb4qx7y
p3617
I1
sVd58mbp7
p3618
I1
sVdr7uace
p3619
I1
sVdpfvffi
p3620
I3
sVd2d5een
p3621
I3
sVdrwqvgj
p3622
I1
sVcytkk5u
p3623
I1
sVd3plf8d
p3624
I4
sVdqmwwjs
p3625
I1
sVdh2881m
p3626
I1
sVd1681m1
p3627
I1
sVdccsu5x
p3628
I3
sVd4iqc96
p3629
I1
sVdfytrua
p3630
I1
sVd5ys8xe
p3631
I1
sVday4e5y
p3632
I1
sVdh3dpz1
p3633
I2
sVdc9d6ur
p3634
I1
sVdaeuhvq
p3635
I1
sVdhm9q2l
p3636
I1
sVdmgsef3
p3637
I1
sVdanvt5b
p3638
I1
sVdfzwabs
p3639
I1
sVdcknlcb
p3640
I3
sVd177xni
p3641
I1
sVczen69s
p3642
I1
sVdes7bkr
p3643
I4
sVd0n51hq
p3644
I2
sVdby50tw
p3645
I1
sVd3jfroo
p3646
I1
sVd1jgruk
p3647
I1
sVcz4g8wl
p3648
I3
sVdcarfjl
p3649
I1
sVd2c1g8t
p3650
I1
sVdn24vn4
p3651
I1
sVdmutlev
p3652
I1
sVdi2b9bz
p3653
I1
sVdrnj1uc
p3654
I1
sVdoc9mvv
p3655
I1
sVd63wo5j
p3656
I1
sVdpvpjte
p3657
I1
sVd1kdi3g
p3658
I2
sVd15nbqv
p3659
I2
sVd7jah0x
p3660
I1
sVd8aqrh3
p3661
I1
sVd8uw4a9
p3662
I1
sVd2j7c89
p3663
I1
sVd6qrrgx
p3664
I1
sVdaw8skk
p3665
I1
sVdbbk5gm
p3666
I2
sVd2effh7
p3667
I1
sVdqb044b
p3668
I1
sVdklq8pm
p3669
I1
sVd9vo0co
p3670
I1
sVdr0qwv1
p3671
I1
sVddwjvgl
p3672
I2
sVd17shu7
p3673
I1
sVd0stadb
p3674
I1
sVdpyx73e
p3675
I1
sVdbas86u
p3676
I2
sVdfzwukc
p3677
I1
sVdrgd6gs
p3678
I1
sVd7rufbq
p3679
I1
sVd4i80gf
p3680
I1
sVdc7isgw
p3681
I2
sVdf1z8ck
p3682
I1
sVdiwn16i
p3683
I1
sVdmzwdyx
p3684
I1
sVdf7txck
p3685
I2
sVdb8acpx
p3686
I1
sVd5ib527
p3687
I3
sVden3nte
p3688
I1
sVd29j5hn
p3689
I1
sVdqh6zxc
p3690
I1
sVd8bkx4g
p3691
I1
sVds2s5xx
p3692
I1
sVdp0d6zl
p3693
I1
sVdcsckiv
p3694
I1
sVcyuee69
p3695
I1
sVczjc41x
p3696
I1
sVdemulky
p3697
I1
sVdsmbw29
p3698
I2
sVdg5pbmj
p3699
I1
sVd3jkv6p
p3700
I1
sVdsyhe6r
p3701
I1
sVd313cta
p3702
I1
sVdhs22bt
p3703
I2
sVdc0a7rx
p3704
I2
sVd43jnmm
p3705
I1
sVddlgtii
p3706
I7
sVd0ha6mz
p3707
I1
sVdmyh8zk
p3708
I1
sVdeuyr75
p3709
I1
sVcyiyowq
p3710
I1
sVd92796d
p3711
I1
sVd17scky
p3712
I1
sVdbbncz7
p3713
I1
sVdcxsq8y
p3714
I1
sVd71gahr
p3715
I1
sVd0hntg3
p3716
I1
sVd4p2ioy
p3717
I1
sVds9x0b6
p3718
I1
sVd2w7n0k
p3719
I1
sVdoim2wl
p3720
I2
sVd4trr98
p3721
I1
sVdkdzyms
p3722
I1
sVdf1mygt
p3723
I1
sVdc1k8vx
p3724
I1
sVdozwyih
p3725
I2
sVczeoe8w
p3726
I3
sVdsmiebb
p3727
I8
sVd9ivgob
p3728
I3
sVd7vacfv
p3729
I1
sVdj23qe2
p3730
I1
sVd2qyush
p3731
I1
sVdhresvv
p3732
I1
sVd5kfp4v
p3733
I3
sVd38ovpx
p3734
I1
sVczpp168
p3735
I2
sVczys4xt
p3736
I1
sVdf6ih76
p3737
I1
sVdq012e4
p3738
I1
sVd70ypii
p3739
I3
sVdf510sf
p3740
I4
sVd3enspe
p3741
I1
sVdds9vdg
p3742
I1
sVd1ofdro
p3743
I1
sVd8tz6m1
p3744
I1
sVd5m0lgn
p3745
I6
sVdh7smq4
p3746
I1
sVdo8pkuz
p3747
I1
sVd4m8nst
p3748
I1
sVdo7zyhi
p3749
I1
sVdhvu6oa
p3750
I1
sVczit34v
p3751
I3
sVdrdx4wi
p3752
I2
sVdnw7c9f
p3753
I1
sVddyrlhl
p3754
I1
sVd1chviu
p3755
I1
sVdmirgg9
p3756
I1
sVdakanzw
p3757
I1
sVd0xc2eb
p3758
I4
sVd5mm5h6
p3759
I2
sVdb549um
p3760
I2
sVdidxbxe
p3761
I1
sVdsdmap2
p3762
I1
sVd135ddy
p3763
I2
sVdnkqjc0
p3764
I1
sVdh44ddz
p3765
I1
sVd2jojo1
p3766
I2
sVdr345bp
p3767
I1
sVd32hfyk
p3768
I1
sVd0jz30w
p3769
I1
sVd0qibov
p3770
I1
sVd99x341
p3771
I1
sVddxhufc
p3772
I1
sVd1yryxw
p3773
I1
sVd0rjvuy
p3774
I1
sVd3j6pqw
p3775
I1
sVdmlyeca
p3776
I1
sVd4ifxvd
p3777
I1
sVd1rbrt8
p3778
I1
sVczxrp2t
p3779
I1
sVd1mbmo8
p3780
I2
sVdhx5yvx
p3781
I1
sVdetypv4
p3782
I2
sVd5ph137
p3783
I3
sVdr3s5v9
p3784
I1
sVdb7bar4
p3785
I1
sVdjzgzwl
p3786
I1
sVd5cyza6
p3787
I1
sVdpunbd6
p3788
I1
sVdq8dli2
p3789
I1
sVdcwjga5
p3790
I1
sVdbcpe75
p3791
I1
sVdgjvwzl
p3792
I2
sVddr0x4v
p3793
I1
sVd5clmv1
p3794
I1
sVdtdikcf
p3795
I2
sVd8w6klu
p3796
I2
sVdq6s4j4
p3797
I1
sVd6yxeve
p3798
I1
sVdo2wywc
p3799
I1
sVd3r7xzg
p3800
I1
sVdnnpkzg
p3801
I1
sVcz21zcz
p3802
I1
sVdgbb3ue
p3803
I1
sVdfu7g07
p3804
I1
sVd7cszsm
p3805
I3
sVd0vhnlw
p3806
I2
sVdben81y
p3807
I1
sVd69m7gz
p3808
I3
sVdreti44
p3809
I1
sVdna766c
p3810
I1
sVdqxbsgx
p3811
I1
sVdi59j57
p3812
I1
sVd3qwg44
p3813
I1
sVd8w5uct
p3814
I1
sVd2sxjfw
p3815
I3
sVdae2ff0
p3816
I1
sVdhv7p6r
p3817
I1
sVdmfxi7n
p3818
I1
sVd2ia400
p3819
I1
sVddmnlaw
p3820
I1
sVd03ujez
p3821
I1
sVd0agpy9
p3822
I2
sVd8x94ev
p3823
I1
sVdr21eiw
p3824
I1
sVdg982zs
p3825
I3
sVdgge70g
p3826
I1
sVdfda4ex
p3827
I2
sVd894j83
p3828
I1
sVdpb644t
p3829
I1
sVdkbiutj
p3830
I1
sVdj8n04b
p3831
I1
sVdnl310o
p3832
I3
sVd2650ix
p3833
I1
sVdoub8va
p3834
I1
sVdew7gk5
p3835
I1
sVdac0wc2
p3836
I2
sVd0fr0hv
p3837
I1
sVd7fnbn4
p3838
I1
sVd381uuh
p3839
I1
sVd2chdnw
p3840
I1
sVczwmajh
p3841
I1
sVd8sc7aj
p3842
I1
sVd5pxit0
p3843
I1
sVd2jo89m
p3844
I1
sVdk685hz
p3845
I1
sVd6b9bko
p3846
I1
sVdf51uz6
p3847
I1
sVdd920hs
p3848
I1
sVd1uq46p
p3849
I1
sVd1l7az7
p3850
I1
sVczt7jpg
p3851
I1
sVcyrq2a0
p3852
I1
sVd7m178k
p3853
I1
sVdrqagyk
p3854
I1
sVcz48pmf
p3855
I1
sVdkwykcd
p3856
I1
sVd68o2d7
p3857
I1
sVdaisr6t
p3858
I3
sVd66fd13
p3859
I1
sVdmjbf62
p3860
I1
sVcz48u0x
p3861
I2
sVd7cq72s
p3862
I1
sVd199b8v
p3863
I1
sVdn8svty
p3864
I1
sVdpxbds8
p3865
I1
sVcyooixe
p3866
I1
sVd28kwkx
p3867
I1
sVdqx34jw
p3868
I1
sVdi3wrol
p3869
I3
sVd1us1oz
p3870
I1
sVd1vjwuc
p3871
I2
sVd0wauj8
p3872
I1
sVd16dkgi
p3873
I1
sVdi5f6fx
p3874
I2
sVdaxbgzg
p3875
I1
sVdddl9ao
p3876
I2
sVdi1ueyq
p3877
I1
sVdow3373
p3878
I1
sVd3e7brk
p3879
I1
sVd15cxpz
p3880
I1
sVdkcghez
p3881
I2
sVcypulyn
p3882
I1
sVcyweqv2
p3883
I1
sVd9ugbyv
p3884
I1
sVd337mqw
p3885
I1
sVdks5aur
p3886
I2
sVd3pkwsv
p3887
I4
sVcztpnww
p3888
I1
sVdpzsh3z
p3889
I1
sVd92pwhk
p3890
I1
sVd9vuknw
p3891
I1
sVdbd6gsa
p3892
I1
sVdbvqnys
p3893
I2
sVd0faij3
p3894
I1
sVd0uigzk
p3895
I4
sVczo1gle
p3896
I1
sVcyrp3oq
p3897
I1
sVdp9xsv0
p3898
I1
sVdgn09cy
p3899
I1
sVd3jo8vm
p3900
I5
sVd5jletk
p3901
I5
sVd6gbo5g
p3902
I1
sVdmx2ca6
p3903
I1
sVczh1m3c
p3904
I1
sVd95kpa0
p3905
I1
sVdgj2lai
p3906
I1
sVd1qes4p
p3907
I1
sVdetyfk0
p3908
I2
sVdhi41w8
p3909
I1
sVd3rcqrs
p3910
I1
sVdjpug4s
p3911
I1
sVcyya4ne
p3912
I1
sVd4zm3x7
p3913
I1
sVde4f0uy
p3914
I2
sVdta7q97
p3915
I1
sVd4uxmi3
p3916
I1
sVdo4za7x
p3917
I1
sVdjtxrd5
p3918
I1
sVdrfcimo
p3919
I1
sVdpdmfg5
p3920
I1
sVd0jlhyv
p3921
I2
sVd2k4pv6
p3922
I1
sVd9heeuy
p3923
I1
sVd02fn11
p3924
I2
sVdngmzt3
p3925
I1
sVdsp9di7
p3926
I2
sVdo6rgso
p3927
I1
sVd0ec0hm
p3928
I2
sVd2snawt
p3929
I1
sVdc3dkky
p3930
I2
sVdqqa0xz
p3931
I1
sVdeg95rt
p3932
I1
sVdjast4l
p3933
I1
sVd89rfc4
p3934
I1
sVd2dyk7p
p3935
I2
sVdew8qs6
p3936
I1
sVd1e18uv
p3937
I1
sVczg5swh
p3938
I1
sVd0i1a8m
p3939
I1
sVdr4lrdg
p3940
I1
sVd4033vz
p3941
I1
sVd4jk6f6
p3942
I1
sVcynsjwf
p3943
I2
sVdgv3klr
p3944
I1
sVd0klt0z
p3945
I1
sVczn3033
p3946
I1
sVdj7cx13
p3947
I1
sVczpz3dm
p3948
I1
sVd21izyb
p3949
I1
sVczxry0v
p3950
I1
sVd4e4snj
p3951
I2
sVdatvm9i
p3952
I1
sVd52bse0
p3953
I1
sVdf0os9a
p3954
I1
sVdrsfl2k
p3955
I1
sVd8jrhha
p3956
I2
sVd6qo3ue
p3957
I1
sVcyo74m4
p3958
I1
sVd4s0j3t
p3959
I1
sVd3t5zpj
p3960
I1
sVd2erevb
p3961
I2
sVdebxskh
p3962
I1
sVds9pyrf
p3963
I1
sVczdswzu
p3964
I1
sVd4ufgzc
p3965
I1
sVd1f5jb0
p3966
I1
sVdeqhw0r
p3967
I1
sVdtad6n6
p3968
I1
sVdeqhtfa
p3969
I1
sVd345w9q
p3970
I1
sVd678fie
p3971
I1
sVdfv4431
p3972
I1
sVdcwhstb
p3973
I1
sVdjlng2l
p3974
I1
sVd1mvv4h
p3975
I1
sVczvmap6
p3976
I1
sVdr8bgep
p3977
I1
sVdfdhfwq
p3978
I1
sVdpv982m
p3979
I1
sVdeeo9du
p3980
I2
sVde6ykbe
p3981
I1
sVdfpmqm6
p3982
I1
sVd3q2tko
p3983
I1
sVd1mam76
p3984
I1
sVda51mx3
p3985
I2
sVd1noyrd
p3986
I1
sVdrv89vn
p3987
I1
sVdcd5zt7
p3988
I1
sVdcxbwwx
p3989
I1
sVdb93inx
p3990
I1
sVdbfdhgx
p3991
I1
sVd9rwe5b
p3992
I1
sVdg3ruu9
p3993
I1
sVdii7tfg
p3994
I4
sVdcrfosm
p3995
I1
sVdnjrw76
p3996
I1
sVddhmlyk
p3997
I1
sVcyxht5a
p3998
I1
sVdricdpv
p3999
I2
sVd3oadh2
p4000
I3
sVdbfgshq
p4001
I1
sVd89lg4j
p4002
I2
sVdd72nj8
p4003
I1
sVdfau8c7
p4004
I1
sVd0oz1mj
p4005
I2
sVdq33t0y
p4006
I2
sVd2jqt1d
p4007
I1
sVdimsvme
p4008
I1
sVd3tfg7q
p4009
I1
sVdcjuipo
p4010
I1
sVczl5nx6
p4011
I1
sVdj1y60r
p4012
I1
sVd4ckfjl
p4013
I2
sVdp1dabt
p4014
I1
sVdcr6q8f
p4015
I2
sVd0m8hah
p4016
I1
sVd2b336m
p4017
I1
sVcyuf4b5
p4018
I4
sVdkhs1nl
p4019
I1
sVd49ixoa
p4020
I3
sVdj5pmxa
p4021
I1
sVdtdv1ss
p4022
I2
sVdaksanp
p4023
I3
sVdt9sylc
p4024
I1
sVdsbd99c
p4025
I1
sVdjp56nd
p4026
I2
sVd11jxe4
p4027
I1
sVdjsq64v
p4028
I1
sVd8hjlug
p4029
I8
sVdip6jdz
p4030
I2
sVdfyj9dh
p4031
I1
sVdos31yj
p4032
I1
sVd1qe1mm
p4033
I1
sVd8b7a6p
p4034
I1
sVdbzqztf
p4035
I1
sVdj8qrws
p4036
I1
sVcz23yxx
p4037
I1
sVddqfzbj
p4038
I2
sVdnk4hhr
p4039
I1
sVdk4gojo
p4040
I4
sVddbteao
p4041
I1
sVdjf168q
p4042
I1
sVdcz5oh4
p4043
I2
sVdjcecro
p4044
I1
sVd9akgec
p4045
I1
sVd3q5tyq
p4046
I1
sVdi62zmi
p4047
I1
sVd38y9dv
p4048
I1
sVcysffka
p4049
I2
sVdjlxej4
p4050
I1
sVdgh8id4
p4051
I2
sVd1q0rm4
p4052
I1
sVdi4nzri
p4053
I1
sVddf22ax
p4054
I1
sVda4eze1
p4055
I2
sVcymtjxp
p4056
I1
sVdspqr3k
p4057
I1
sVd06a3ov
p4058
I1
sVdjfzra5
p4059
I3
sVdcmopi4
p4060
I1
sVd0c50rv
p4061
I1
sVd01b8l9
p4062
I1
sVdpp3khw
p4063
I1
sVdta562h
p4064
I2
sVdsfqzfo
p4065
I1
sVdqqrcrd
p4066
I1
sVd0nvbi1
p4067
I1
sVdjip93n
p4068
I1
sVd87igzd
p4069
I2
sVdrp4r1q
p4070
I1
sVd70vdha
p4071
I1
sVdqa86k7
p4072
I1
sVdfnffmn
p4073
I1
sVcyxgnqd
p4074
I1
sVdgbzday
p4075
I1
sVdmtav3n
p4076
I1
sVdkq68sv
p4077
I4
sVd1gylp4
p4078
I1
sVdp3zlbn
p4079
I4
sVdkzbty4
p4080
I3
sVdgwhj75
p4081
I2
sVdkgvi95
p4082
I1
sVdgvxa1p
p4083
I1
sVdjtnyz4
p4084
I1
sVdfq72b6
p4085
I1
sVdpp4s0k
p4086
I1
sVcz47s0p
p4087
I2
sVddd8vx2
p4088
I3
sVd5w8toz
p4089
I1
sVdb03c99
p4090
I1
sVdghaaug
p4091
I2
sVd3vtx28
p4092
I1
sVdhnb1vo
p4093
I1
sVdi7wap9
p4094
I1
sVd2vl4sl
p4095
I1
sVdjq7q1f
p4096
I2
sVd3oajso
p4097
I2
sVdc7f079
p4098
I1
sVdjsgo3z
p4099
I1
sVdb60h7h
p4100
I1
sVd07zp66
p4101
I1
sVd7ufpdz
p4102
I1
sVdfvz0z5
p4103
I4
sVd9kakq3
p4104
I1
sVd9laml3
p4105
I1
sVdh51naz
p4106
I1
sVdht4jxa
p4107
I1
sVdfe3uam
p4108
I1
sVdgl5oh7
p4109
I1
sVd973xi7
p4110
I2
sVdbfz3hx
p4111
I1
sVdjg97wf
p4112
I1
sVdfwvnr6
p4113
I1
sVdqdamol
p4114
I1
sVcyxg5yi
p4115
I1
sVd2ra516
p4116
I2
sVcymri79
p4117
I1
sVd1dn950
p4118
I1
sVd1s47ho
p4119
I1
sVd7uckqv
p4120
I1
sVdo0tkaj
p4121
I1
sVd3s2qmo
p4122
I1
sVdew165v
p4123
I1
sVdmmirzc
p4124
I1
sVdmqkyke
p4125
I1
sVczqs95t
p4126
I1
sVczf570u
p4127
I1
sVdcoj10l
p4128
I1
sVd8knoeb
p4129
I2
sVcz934t7
p4130
I1
sVd4n1xho
p4131
I3
sVdjcoe1m
p4132
I1
sVdgdflrp
p4133
I1
sVdncm3jv
p4134
I1
sVdelglak
p4135
I1
sVd64il5i
p4136
I1
sVdp2ddx0
p4137
I1
sVd5pm0wn
p4138
I2
sVd0o0gvu
p4139
I1
sVd2vn2au
p4140
I1
sVda6flg0
p4141
I1
sVdc05r7f
p4142
I1
sVcz5em1t
p4143
I1
sVdmr0ypq
p4144
I1
sVdmy49tp
p4145
I1
sVdhg6q7p
p4146
I1
sVdbc4z13
p4147
I1
sVdkwlguq
p4148
I1
sVdhghxjb
p4149
I1
sVdodztqb
p4150
I1
sVdkb5uug
p4151
I2
sVdeva3vf
p4152
I1
sVczzk19b
p4153
I1
sVd58izq9
p4154
I1
sVcyknmdo
p4155
I5
sVd49rpn7
p4156
I1
sVditbbf2
p4157
I1
sVdkjtdl0
p4158
I1
sVd1aljdq
p4159
I1
sVdcv6peb
p4160
I1
sVd3pca1e
p4161
I1
sVdcgujlp
p4162
I2
sVd65oedn
p4163
I1
sVd8kvj7i
p4164
I2
sVda5axmo
p4165
I1
sVczo4wb7
p4166
I1
sVd0gqlax
p4167
I1
sVczw1ig6
p4168
I4
sVdems9kw
p4169
I1
sVd3sx269
p4170
I1
sVd071yy1
p4171
I2
sVde0krzv
p4172
I1
sVdpzoyo4
p4173
I1
sVdayo28d
p4174
I1
sVdf6awn0
p4175
I1
sVda2tcra
p4176
I1
sVdde3tp2
p4177
I2
sVdgy1zzi
p4178
I1
sVcz0kesc
p4179
I2
sVdevzssr
p4180
I2
sVd1i4fup
p4181
I1
sVdkchzds
p4182
I2
sVd9uobnx
p4183
I1
sVdkv1hmi
p4184
I1
sVdde0yxy
p4185
I3
sVdivsx79
p4186
I1
sVd8ddjc0
p4187
I1
sVdoivnu6
p4188
I1
sVdqmo6u7
p4189
I1
sVdmw6egj
p4190
I1
sVd5a4fc6
p4191
I2
sVd5c1hpm
p4192
I2
sVdarvznn
p4193
I1
sVdgaf17n
p4194
I1
sVddef6ab
p4195
I1
sVdj6wazz
p4196
I1
sVd28fq23
p4197
I1
sVd3uypnx
p4198
I2
sVd0rf8fb
p4199
I1
sVdbirlsu
p4200
I1
sVczrl7vt
p4201
I1
sVdqbnoo4
p4202
I1
sVd7peo5g
p4203
I1
sVdd0icfc
p4204
I1
sVd5581mu
p4205
I1
sVd0dnksl
p4206
I1
sVd4y7fo8
p4207
I1
sVdq15j8x
p4208
I1
sVd316bpq
p4209
I2
sVdpug8r9
p4210
I1
sVd3t6xmo
p4211
I1
sVdi6s275
p4212
I1
sVd4s1z7v
p4213
I1
sVdrcsmq7
p4214
I1
sVd4csdmv
p4215
I1
sVd5rp340
p4216
I1
sVdb9xsd7
p4217
I1
sVdmnd11h
p4218
I1
sVds11n6i
p4219
I1
sVd44xyuk
p4220
I1
sVdd75roh
p4221
I1
sVdrj3zm6
p4222
I1
sVczlvm7v
p4223
I1
sVdaref5p
p4224
I2
sVdejnyqn
p4225
I1
sVd3fyzh8
p4226
I4
sVczimxei
p4227
I4
sVd5tihhl
p4228
I1
sVdkxttbq
p4229
I1
sVdog1rm0
p4230
I3
sVdstm09j
p4231
I2
sVdkq5nwd
p4232
I2
sVdc4bite
p4233
I1
sVd6mcywf
p4234
I1
sVczdxdeu
p4235
I1
sVd5j5x7e
p4236
I2
sVdhsy32m
p4237
I2
sVdo4av1l
p4238
I1
sVdn7fibu
p4239
I1
sVd3g1czi
p4240
I1
sVdhld8ft
p4241
I1
sVcz4h5d2
p4242
I1
sVdbd21th
p4243
I1
sVddasqbh
p4244
I1
sVcz17hqh
p4245
I13
sVdey3wey
p4246
I2
sVdaheyjv
p4247
I1
sVd6yn8rs
p4248
I3
sVd36pivz
p4249
I1
sVdc5qaaz
p4250
I1
sVdc2iwx7
p4251
I1
sVd057909
p4252
I1
sVdcyqa1j
p4253
I1
sVd6926b1
p4254
I6
sVddw7knn
p4255
I1
sVdjxb2s4
p4256
I1
sVdkcc2lv
p4257
I2
sVdcknokd
p4258
I1
sVcz7rla2
p4259
I1
sVdf1x1ui
p4260
I1
sVd5ewdkg
p4261
I1
sVd5zzbos
p4262
I1
sVd0nxv4e
p4263
I1
sVd1y3vs7
p4264
I1
sVd21fjg4
p4265
I1
sVd90f6og
p4266
I1
sVddnxtjk
p4267
I1
sVdjg4vx1
p4268
I1
sVd1qdjyf
p4269
I5
sVdhy7nr3
p4270
I1
sVczmz6ma
p4271
I1
sVd0vw8ft
p4272
I1
sVdo68qck
p4273
I1
sVdah3rzi
p4274
I1
sVd0t4og6
p4275
I2
sVczjcllu
p4276
I2
sVdorm0js
p4277
I1
sVd1jl2cv
p4278
I1
sVdan09vu
p4279
I1
sVdiropht
p4280
I1
sVd5jcg2g
p4281
I2
sVdgo25j9
p4282
I1
sVdtbe41e
p4283
I1
sVdj2mu24
p4284
I1
sVd8lll24
p4285
I1
sVdngflpr
p4286
I1
s.