(dp0
Vdrzucto
p1
I1
sVd87lczf
p2
I2
sVdc8ntht
p3
I1
sVd3zj1xe
p4
I1
sVcz2bely
p5
I1
sVdc3c2vf
p6
I2
sVdbfdz0x
p7
I1
sVd208dv5
p8
I1
sVdngntzq
p9
I1
sVd0c0lr6
p10
I1
sVdd9jh0m
p11
I1
sVdndk899
p12
I1
sVdk00rm2
p13
I1
sVd0g9pab
p14
I1
sVdk1g0ua
p15
I1
sVdi4thpw
p16
I1
sVdgyylom
p17
I1
sVdcoun7l
p18
I1
sVdefz9fv
p19
I1
sVd355vwk
p20
I1
sVd5x2dki
p21
I1
sVdn83cax
p22
I1
sVd1sc6rh
p23
I1
sVd5wx3qw
p24
I1
sVdnobin2
p25
I1
sVda72umu
p26
I1
sVdn839xm
p27
I1
sVd1zyhik
p28
I1
sVdbuhfak
p29
I1
sVdactzt2
p30
I1
sVdhcm8h8
p31
I1
sVcyz0m6w
p32
I1
sVd3x8itl
p33
I1
sVd3maefw
p34
I1
sVd26lrni
p35
I2
sVd1iazn5
p36
I1
sVd2n7eps
p37
I1
sVd6yr6cj
p38
I1
sVd2zhkqz
p39
I1
sVd3lis4h
p40
I1
sVdp3552a
p41
I1
sVd42pe6n
p42
I1
sVd1k75gw
p43
I1
sVdhotf88
p44
I2
sVddi2068
p45
I2
sVdi2kkaq
p46
I1
sVdhla0p2
p47
I3
sVdgjrpyp
p48
I1
sVd1jd8c5
p49
I1
sVdd62pip
p50
I1
sVdi8ulkl
p51
I1
sVdbo80u9
p52
I2
sVd4rpibm
p53
I1
sVdpkmcmg
p54
I1
sVd5x9kg0
p55
I1
sVczoj7jr
p56
I1
sVczqg2gx
p57
I1
sVd4cocct
p58
I3
sVd0wn8t6
p59
I1
sVdgn40ns
p60
I1
sVcz0iqpb
p61
I3
sVdf4fvs0
p62
I1
sVd7ehf6b
p63
I1
sVdge2mnv
p64
I1
sVd76n3ef
p65
I3
sVds3q2a9
p66
I1
sVdd4ziaz
p67
I1
sVczi4wrx
p68
I1
sVdime8co
p69
I1
sVd70w3jr
p70
I1
sVd007r5h
p71
I4
sVdbpntjy
p72
I1
sVdeh365j
p73
I1
sVdh94frl
p74
I3
sVd3ziw4o
p75
I1
s.