(dp0
Vcympq9x
p1
I1
sVdizl52d
p2
I1
sVdbnqjl5
p3
I1
sVd4ppouq
p4
I1
sVd5ep6jf
p5
I1
sVdifdta3
p6
I2
sVdgfx3gy
p7
I1
sVd7ne3kd
p8
I2
sVd7luna1
p9
I1
sVdrmwmgd
p10
I1
sVdtbrthe
p11
I1
sVd781mqi
p12
I1
sVdhylcb4
p13
I1
sVdngmzt3
p14
I1
sVdftem1r
p15
I1
sVdcl8zlo
p16
I1
sVcztwhsj
p17
I1
sVd6zw7g5
p18
I1
sVdd34han
p19
I1
s.