(dp0
Vcyla89b
p1
I1
s.(dp0
Vcyla89b
p1
I1
sVcylf6j3
p2
I1
s.(dp0
Vcyla89b
p1
I1
sVcylo0ze
p2
I1
s.(dp0
Vcyla89b
p1
I1
sVcym43vs
p2
I1
s.(dp0
Vcyla89b
p1
I1
sVcynd7xs
p2
I1
s.(dp0
Vcyoj7he
p1
I1
sVcyla89b
p2
I1
s.(dp0
Vcyoyvrs
p1
I1
sVcyla89b
p2
I1
s.(dp0
Vcysbr62
p1
I1
sVcyla89b
p2
I1
s.(dp0
Vcyla89b
p1
I1
sVcysv2zs
p2
I1
s.(dp0
Vcyla89b
p1
I1
sVcyy8d18
p2
I1
s.(dp0
Vcyla89b
p1
I1
sVcyyoba3
p2
I1
s.(dp0
Vcz0112j
p1
I1
sVcyla89b
p2
I1
s.(dp0
Vcyla89b
p1
I1
sVcz29pgk
p2
I1
s.(dp0
Vcz5907y
p1
I1
sVcyla89b
p2
I1
s.(dp0
Vcyla89b
p1
I1
sVcz5iiof
p2
I1
s.(dp0
Vcyla89b
p1
I1
sVcz5iiof
p2
I1
s.(dp0
Vcyla89b
p1
I1
sVcz6b26r
p2
I1
s.(dp0
Vcyla89b
p1
I1
sVcz7z2se
p2
I1
s.(dp0
Vcyla89b
p1
I1
sVcz94brn
p2
I1
s.(dp0
Vcyla89b
p1
I1
sVcz9pd7z
p2
I1
s.(dp0
Vcz9zeec
p1
I1
sVcyla89b
p2
I1
s.(dp0
Vcyla89b
p1
I1
sVcza66dt
p2
I1
s.(dp0
Vcyla89b
p1
I1
sVczanpo5
p2
I1
s.(dp0
Vcyla89b
p1
I1
sVczav57f
p2
I1
s.(dp0
Vcyla89b
p1
I1
sVczdw1m1
p2
I1
s.(dp0
Vcyla89b
p1
I1
sVczeg7ks
p2
I1
s.(dp0
Vcyla89b
p1
I1
sVczgi0u9
p2
I1
s.(dp0
Vcyla89b
p1
I1
sVczgk7zo
p2
I1
s.(dp0
Vcyla89b
p1
I1
sVczgl46u
p2
I1
s.(dp0
Vcyla89b
p1
I1
sVczh3xn2
p2
I1
s.(dp0
Vcyla89b
p1
I1
sVczh8169
p2
I1
s.(dp0
Vcyla89b
p1
I1
sVczhbrsz
p2
I1
s.(dp0
Vcyla89b
p1
I1
sVczhgi8c
p2
I1
s.(dp0
Vcyla89b
p1
I1
sVczjvsu7
p2
I1
s.(dp0
Vcyla89b
p1
I1
sVczk9rui
p2
I1
s.(dp0
Vcyla89b
p1
I1
sVczk9rui
p2
I1
s.(dp0
Vcyla89b
p1
I1
sVczlna5h
p2
I1
s.(dp0
Vcyla89b
p1
I1
sVczoqaos
p2
I1
s.(dp0
Vcyla89b
p1
I1
sVczp9nph
p2
I1
s.(dp0
Vcyla89b
p1
I1
sVczqgs57
p2
I1
s.(dp0
Vcyla89b
p1
I1
sVczqibju
p2
I1
s.(dp0
Vczqqwcz
p1
I1
sVcyla89b
p2
I1
s.(dp0
Vczyeskr
p1
I1
sVcyla89b
p2
I1
s.(dp0
Vczyeskr
p1
I1
sVcyla89b
p2
I1
s.(dp0
Vcyla89b
p1
I1
sVczzd4zd
p2
I1
s.(dp0
Vcyla89b
p1
I1
sVd00cf01
p2
I1
s.(dp0
Vcyla89b
p1
I1
sVd00s8qa
p2
I1
s.(dp0
Vcyla89b
p1
I1
sVd02j8un
p2
I1
s.(dp0
Vcyla89b
p1
I1
sVd05rdix
p2
I1
s.(dp0
Vcyla89b
p1
I1
sVd080512
p2
I1
s.(dp0
Vcyla89b
p1
I1
sVd080512
p2
I1
s.(dp0
Vcyla89b
p1
I1
sVd0agfed
p2
I1
s.(dp0
Vcyla89b
p1
I1
sVd0cnfcq
p2
I1
s.(dp0
Vcyla89b
p1
I1
sVd0eh06o
p2
I1
s.(dp0
Vcyla89b
p1
I1
sVd0g5ync
p2
I1
s.(dp0
Vcyla89b
p1
I1
sVd0g5ync
p2
I1
s.(dp0
Vcyla89b
p1
I1
sVd0gvp90
p2
I1
s.(dp0
Vcyla89b
p1
I1
sVd0gvp90
p2
I1
s.(dp0
Vcyla89b
p1
I1
sVd0ilcfl
p2
I1
s.(dp0
Vcyla89b
p1
I1
sVd0l8w4w
p2
I1
s.(dp0
Vcyla89b
p1
I1
sVd0l8w4w
p2
I1
s.(dp0
Vcyla89b
p1
I1
sVd0lxafs
p2
I1
s.(dp0
Vd0na9sj
p1
I1
sVcyla89b
p2
I1
s.(dp0
Vcyla89b
p1
I1
sVd0or80g
p2
I1
s.(dp0
Vcyla89b
p1
I1
sVd0pequh
p2
I1
s.(dp0
Vcyla89b
p1
I1
sVd0prikk
p2
I1
s.(dp0
Vcyla89b
p1
I1
sVd0qb4w0
p2
I1
s.(dp0
Vcyla89b
p1
I1
sVd0qb4w0
p2
I1
s.(dp0
Vd0tze3y
p1
I1
sVcyla89b
p2
I1
s.(dp0
Vcyla89b
p1
I1
sVd0u01zk
p2
I1
s.(dp0
Vcyla89b
p1
I1
sVd0u01zk
p2
I1
s.(dp0
Vd0v601t
p1
I1
sVcyla89b
p2
I1
s.(dp0
Vcyla89b
p1
I1
sVd0wkj1o
p2
I1
s.(dp0
Vd0wydj5
p1
I1
sVcyla89b
p2
I1
s.(dp0
Vcyla89b
p1
I1
sVd0y6xx3
p2
I1
s.(dp0
Vcyla89b
p1
I1
sVd0y7ni4
p2
I1
s.(dp0
Vcyla89b
p1
I1
sVd0y7ni4
p2
I1
s.(dp0
Vcyla89b
p1
I1
sVd0ybz36
p2
I1
s.(dp0
Vcyla89b
p1
I1
sVd10lvdl
p2
I1
s.(dp0
Vcyla89b
p1
I1
sVd13rku4
p2
I1
s.(dp0
Vcyla89b
p1
I1
sVd17zgwh
p2
I1
s.(dp0
Vcyla89b
p1
I1
sVd17zgwh
p2
I1
s.(dp0
Vcyla89b
p1
I1
sVd17zgwh
p2
I1
s.(dp0
Vcyla89b
p1
I1
sVd18dblw
p2
I1
s.(dp0
Vcyla89b
p1
I1
sVd18dc1x
p2
I1
s.(dp0
Vcyla89b
p1
I1
sVd18dc1x
p2
I1
s.(dp0
Vd19ionk
p1
I1
sVcyla89b
p2
I1
s.(dp0
Vd19ionk
p1
I1
sVcyla89b
p2
I1
s.(dp0
Vd19ionk
p1
I1
sVcyla89b
p2
I1
s.(dp0
Vcyla89b
p1
I1
sVd1awt0p
p2
I1
s.(dp0
Vcyla89b
p1
I1
sVd1bg175
p2
I1
s.(dp0
Vcyla89b
p1
I1
sVd1btbdz
p2
I1
s.(dp0
Vcyla89b
p1
I1
sVd1c8y9n
p2
I1
s.(dp0
Vcyla89b
p1
I1
sVd1eutqy
p2
I1
s.(dp0
Vcyla89b
p1
I1
sVd1qlo9g
p2
I1
s.(dp0
Vcyla89b
p1
I1
sVd1us3my
p2
I1
s.(dp0
Vcyla89b
p1
I1
sVd23s58f
p2
I1
s.(dp0
Vcyla89b
p1
I1
sVd23s58f
p2
I1
s.(dp0
Vcyla89b
p1
I1
sVd23s58f
p2
I1
s.(dp0
Vd27e8m2
p1
I1
sVcyla89b
p2
I1
s.(dp0
Vcyla89b
p1
I1
sVd29jgm4
p2
I1
s.(dp0
Vcyla89b
p1
I1
sVd2aghgr
p2
I1
s.(dp0
Vcyla89b
p1
I1
sVd2azxx0
p2
I1
s.(dp0
Vcyla89b
p1
I1
sVd2fx0q9
p2
I1
s.(dp0
Vcyla89b
p1
I1
sVd2i2rfa
p2
I1
s.(dp0
Vcyla89b
p1
I1
sVd2j1548
p2
I1
s.(dp0
Vcyla89b
p1
I1
sVd2llma0
p2
I1
s.(dp0
Vcyla89b
p1
I1
sVd2s5f4a
p2
I1
s.(dp0
Vcy(dp0
Vcyla89b
p1
I1
sVdsxrd50
p2
I1
s.