(dp0
Vdbnno7b
p1
I1
sVdiuqyjf
p2
I2
sVcz4y00k
p3
I1
sVd6228vx
p4
I1
sVdben3ka
p5
I1
sVdcgwlwc
p6
I1
sVdkkwtmj
p7
I1
sVcyu43cz
p8
I1
sVd309me4
p9
I1
sVd39zj6y
p10
I1
sVde9ld75
p11
I1
sVd10cf63
p12
I1
s.