(dp0
Vcyhu344
p1
I1
s.(dp0
Vcyhuald
p1
I1
sVcyhu344
p2
I1
s.(dp0
Vcyhu344
p1
I1
sVcyhvvdy
p2
I1
s.(dp0
Vcyhzwmo
p1
I1
sVcyhu344
p2
I1
s.(dp0
Vcyhu344
p1
I1
sVcyi20eu
p2
I1
s.(dp0
Vcyhu344
p1
I1
sVcyi3fd2
p2
I1
s.(dp0
Vcyi3ks0
p1
I1
sVcyhu344
p2
I1
s.(dp0
Vcyhu344
p1
I1
sVcyi47hj
p2
I1
s.(dp0
Vcyi4p6t
p1
I1
sVcyhu344
p2
I1
s.(dp0
Vcyhu344
p1
I1
sVcyi5cne
p2
I1
s.(dp0
Vcyhu344
p1
I1
sVcyi5cne
p2
I1
s.(dp0
Vcyi6apk
p1
I1
sVcyhu344
p2
I1
s.(dp0
Vcyi6apk
p1
I1
sVcyhu344
p2
I1
s.(dp0
Vcyhu344
p1
I1
sVcyi6fsq
p2
I1
s.(dp0
Vcyi6uq8
p1
I1
sVcyhu344
p2
I1
s.(dp0
Vcyhu344
p1
I1
sVcyi7byj
p2
I1
s.(dp0
Vcyi803g
p1
I1
sVcyhu344
p2
I1
s.(dp0
Vcyhu344
p1
I1
sVcyi91ks
p2
I1
s.(dp0
Vcyiahw2
p1
I1
sVcyhu344
p2
I1
s.(dp0
Vcyhu344
p1
I1
sVcyibra6
p2
I1
s.(dp0
Vcyicce8
p1
I1
sVcyhu344
p2
I1
s.(dp0
Vcyicy9x
p1
I1
sVcyhu344
p2
I1
s.(dp0
Vcyie7b0
p1
I1
sVcyhu344
p2
I1
s.(dp0
Vcyhu344
p1
I1
sVcyiekhe
p2
I1
s.(dp0
Vcyhu344
p1
I1
sVcyieljc
p2
I1
s.(dp0
Vcyhu344
p1
I1
sVcyieune
p2
I1
s.(dp0
Vcyhu344
p1
I1
sVcyif4ri
p2
I1
s.(dp0
Vcyige48
p1
I1
sVcyhu344
p2
I1
s.(dp0
Vcyhu344
p1
I1
sVcyii1ez
p2
I1
s.(dp0
Vcyiigut
p1
I1
sVcyhu344
p2
I1
s.(dp0
Vcyhu344
p1
I1
sVcyijln9
p2
I1
s.(dp0
Vcyhu344
p1
I1
sVcyiltll
p2
I1
s.(dp0
Vcyim9t0
p1
I1
sVcyhu344
p2
I1
s.(dp0
Vcyinnlj
p1
I1
sVcyhu344
p2
I1
s.(dp0
Vcyinyw9
p1
I1
sVcyhu344
p2
I1
s.(dp0
Vcyion75
p1
I1
sVcyhu344
p2
I1
s.(dp0
Vcyhu344
p1
I1
sVcyioyv1
p2
I1
s.(dp0
Vcyhu344
p1
I1
sVcyipv1e
p2
I1
s.(dp0
Vcyhu344
p1
I1
sVcyir0jr
p2
I1
s.(dp0
Vcyhu344
p1
I1
sVcyirutb
p2
I1
s.(dp0
Vcyisaf1
p1
I1
sVcyhu344
p2
I1
s.(dp0
Vcyhu344
p1
I1
sVcyivxmt
p2
I1
s.(dp0
Vcyhu344
p1
I1
sVcyj50ca
p2
I1
s.(dp0
Vcyhu344
p1
I1
sVcyj7rnn
p2
I1
s.(dp0
Vcyhu344
p1
I1
sVcyj7rnn
p2
I1
s.(dp0
Vcyj9iln
p1
I1
sVcyhu344
p2
I1
s.(dp0
Vcyj9pcj
p1
I1
sVcyhu344
p2
I1
s.(dp0
Vcyjayna
p1
I1
sVcyhu344
p2
I1
s.(dp0
Vcyhu344
p1
I1
sVcyjcqd2
p2
I1
s.(dp0
Vcyhu344
p1
I1
sVcyjeqr5
p2
I1
s.(dp0
Vcyhu344
p1
I1
sVcyjetbk
p2
I1
s.(dp0
Vcyjiso9
p1
I1
sVcyhu344
p2
I1
s.(dp0
Vcyjiso9
p1
I1
sVcyhu344
p2
I1
s.(dp0
Vcyhu344
p1
I1
sVcyjj0jp
p2
I1
s.(dp0
Vcyjjm43
p1
I1
sVcyhu344
p2
I1
s.(dp0
Vcyhu344
p1
I1
sVcyjndpv
p2
I1
s.(dp0
Vcyjoc5q
p1
I1
sVcyhu344
p2
I1
s.(dp0
Vcyjoc5q
p1
I1
sVcyhu344
p2
I1
s.(dp0
Vcyhu344
p1
I1
sVcyjoz50
p2
I1
s.(dp0
Vcyhu344
p1
I1
sVcyjoz50
p2
I1
s.(dp0
Vcyjq3a7
p1
I1
sVcyhu344
p2
I1
s.(dp0
Vcyhu344
p1
I1
sVcyjqbol
p2
I1
s.(dp0
Vcyjqe49
p1
I1
sVcyhu344
p2
I1
s.(dp0
Vcyhu344
p1
I1
sVcyjr4xa
p2
I1
s.(dp0
Vcyjr5c6
p1
I1
sVcyhu344
p2
I1
s.(dp0
Vcyjsi9f
p1
I1
sVcyhu344
p2
I1
s.(dp0
Vcyjsu5g
p1
I1
sVcyhu344
p2
I1
s.(dp0
Vcyjula4
p1
I1
sVcyhu344
p2
I1
s.(dp0
Vcyjwtj8
p1
I1
sVcyhu344
p2
I1
s.(dp0
Vcyhu344
p1
I1
sVcyk0ypa
p2
I1
s.(dp0
Vcyhu344
p1
I1
sVcyk1jpy
p2
I1
s.(dp0
Vcyk3wn1
p1
I1
sVcyhu344
p2
I1
s.(dp0
Vcyhu344
p1
I1
sVcyk5ipu
p2
I1
s.(dp0
Vcyk61on
p1
I1
sVcyhu344
p2
I1
s.(dp0
Vcyk8h2v
p1
I1
sVcyhu344
p2
I1
s.(dp0
Vcyk8h2v
p1
I1
sVcyhu344
p2
I1
s.(dp0
Vcyk8h2v
p1
I1
sVcyhu344
p2
I1
s.(dp0
Vcyk8h2v
p1
I1
sVcyhu344
p2
I1
s.(dp0
Vcykduwu
p1
I1
sVcyhu344
p2
I1
s.(dp0
Vcykecax
p1
I1
sVcyhu344
p2
I1
s.(dp0
Vcyhu344
p1
I1
sVcykg81g
p2
I1
s.(dp0
Vcykh0av
p1
I1
sVcyhu344
p2
I1
s.(dp0
Vcyhu344
p1
I1
sVcykj6vc
p2
I1
s.(dp0
Vcykjrdp
p1
I1
sVcyhu344
p2
I1
s.(dp0
Vcyklb17
p1
I1
sVcyhu344
p2
I1
s.(dp0
Vcyhu344
p1
I1
sVcykmlpq
p2
I1
s.(dp0
Vcykpgjm
p1
I1
sVcyhu344
p2
I1
s.(dp0
Vcykqheq
p1
I1
sVcyhu344
p2
I1
s.(dp0
Vcyhu344
p1
I1
sVcykqr70
p2
I1
s.(dp0
Vcyhu344
p1
I1
sVcyksppr
p2
I1
s.(dp0
Vcyhu344
p1
I1
sVcykus6i
p2
I1
s.(dp0
Vcyhu344
p1
I1
sVcykxxle
p2
I1
s.(dp0
Vcyhu344
p1
I1
sVcykzwq1
p2
I1
s.(dp0
Vcyl1gxg
p1
I1
sVcyhu344
p2
I1
s.(dp0
Vcyl5f9d
p1
I1
sVcyhu344
p2
I1
s.(dp0
Vcyhu344
p1
I1
sVcyl7ih3
p2
I1
s.(dp0
Vcyl7oz7
p1
I1
sVcyhu344
p2
I1
s.(dp0
Vcyhu344
p1
I1
sVcyldgzm
p2
I1
s.(dp0
Vcyhu344
p1
I1
sVcyldgzm
p2
I1
s.(dp0
Vcylhb6r
p1
I1
sVcyhu344
p2
I1
s.(dp0
Vcylj2w0
p1
I1
sVcyhu344
p2
I1
s.(dp0
Vcylj2w0
p1
I1
sVcyhu344
p2
I1
s.(dp0
Vcyhu344
p1
I1
sVcyljbud
p2
I1
s.(dp0
Vcyhu344
p1
I1
sVcylkb59
p2
I1
s.(dp0
Vcyhu344
p1
I1
sVcylkb59
p2
I1
s.(dp0
Vcyhu344
p1
I1
sVcylkp5d
p2
I1
s.(dp0
Vcyhu344
p1
I1
sVcylku62
p2
I1
s.(dp0
Vcyhu344
p1
I1
sVcylltid
p2
I1
s.(dp0
Vcy(dp0
Vdtj40vy
p1
I1
sVcyhu344
p2
I1
s.