(dp0
Vcyqva43
p1
I1
s.(dp0
Vcyqva43
p1
I2
s.(dp0
Vcz30mri
p1
I1
sVcyqva43
p2
I1
s.(dp0
Vczw345c
p1
I1
sVcyqva43
p2
I1
s.(dp0
Vd08galm
p1
I1
sVcyqva43
p2
I1
s.(dp0
Vd0rddcr
p1
I1
sVcyqva43
p2
I1
s.(dp0
Vd18eak4
p1
I1
sVcyqva43
p2
I1
s.(dp0
Vcyqva43
p1
I1
sVd1x1j4z
p2
I1
s.(dp0
Vd1zd2uz
p1
I1
sVcyqva43
p2
I1
s.(dp0
Vd23jrt0
p1
I1
sVcyqva43
p2
I1
s.(dp0
Vd2bed00
p1
I1
sVcyqva43
p2
I1
s.(dp0
Vd34167c
p1
I1
sVcyqva43
p2
I1
s.(dp0
Vd37mk55
p1
I1
sVcyqva43
p2
I1
s.(dp0
Vd4tcp0z
p1
I1
sVcyqva43
p2
I1
s.(dp0
Vd4vhg0h
p1
I1
sVcyqva43
p2
I1
s.(dp0
Vd57p4j3
p1
I1
sVcyqva43
p2
I1
s.(dp0
Vd5yi8md
p1
I1
sVcyqva43
p2
I1
s.(dp0
Vd6o7lsm
p1
I1
sVcyqva43
p2
I1
s.(dp0
Vd6s78on
p1
I1
sVcyqva43
p2
I1
s.(dp0
Vd6uwe6o
p1
I1
sVcyqva43
p2
I1
s.(dp0
Vd6uzsda
p1
I1
sVcyqva43
p2
I1
s.(dp0
Vd6w70zo
p1
I1
sVcyqva43
p2
I1
s.(dp0
Vd6x4sj7
p1
I1
sVcyqva43
p2
I1
s.(dp0
Vd6xl47d
p1
I1
sVcyqva43
p2
I1
s.(dp0
Vd7247u3
p1
I1
sVcyqva43
p2
I1
s.(dp0
Vd7cj5s4
p1
I1
sVcyqva43
p2
I1
s.(dp0
Vd7iqrld
p1
I1
sVcyqva43
p2
I1
s.(dp0
Vd7jaokx
p1
I1
sVcyqva43
p2
I1
s.(dp0
Vd7jnhfu
p1
I1
sVcyqva43
p2
I1
s.(dp0
Vd7w33f8
p1
I1
sVcyqva43
p2
I1
s.(dp0
Vd8u8fkc
p1
I1
sVcyqva43
p2
I1
s.(dp0
Vd9mhpb6
p1
I1
sVcyqva43
p2
I1
s.(dp0
Vdbcacds
p1
I1
sVcyqva43
p2
I1
s.(dp0
Vdc2sh2p
p1
I1
sVcyqva43
p2
I1
s.(dp0
Vdcylhiu
p1
I1
sVcyqva43
p2
I1
s.(dp0
Vddefqu8
p1
I1
sVcyqva43
p2
I1
s.(dp0
Vddeghpc
p1
I1
sVcyqva43
p2
I1
s.(dp0
Vddeghpc
p1
I1
sVcyqva43
p2
I1
s.(dp0
Vddeghpc
p1
I1
sVcyqva43
p2
I1
s.(dp0
Vddf62n3
p1
I1
sVcyqva43
p2
I1
s.(dp0
Vcyqva43
p1
I1
sVddkesv9
p2
I1
s.(dp0
Vddsvvoo
p1
I1
sVcyqva43
p2
I1
s.(dp0
Vddsvvoo
p1
I1
sVcyqva43
p2
I1
s.(dp0
Vddsvvoo
p1
I1
sVcyqva43
p2
I1
s.(dp0
Vcyqva43
p1
I1
sVddxbz4h
p2
I1
s.(dp0
Vddz9jtj
p1
I1
sVcyqva43
p2
I1
s.(dp0
Vcyqva43
p1
I1
sVde0h1m9
p2
I1
s.(dp0
Vdei26ro
p1
I1
sVcyqva43
p2
I1
s.(dp0
Vdeiwr5m
p1
I1
sVcyqva43
p2
I1
s.(dp0
Vdeiwr5m
p1
I1
sVcyqva43
p2
I1
s.(dp0
Vdf4hp7u
p1
I1
sVcyqva43
p2
I1
s.(dp0
Vdgrqmpc
p1
I1
sVcyqva43
p2
I1
s.(dp0
Vdhk0ne6
p1
I1
sVcyqva43
p2
I1
s.(dp0
Vdhlf4n7
p1
I1
sVcyqva43
p2
I1
s.(dp0
Vdhlf4n7
p1
I1
sVcyqva43
p2
I1
s.(dp0
Vdhlf4n7
p1
I1
sVcyqva43
p2
I1
s.(dp0
Vdhlf4n7
p1
I1
sVcyqva43
p2
I1
s.(dp0
Vdhlf4n7
p1
I1
sVcyqva43
p2
I1
s.(dp0
Vdhlf4n7
p1
I1
sVcyqva43
p2
I1
s.(dp0
Vdhlf4n7
p1
I1
sVcyqva43
p2
I1
s.(dp0
Vdhuj5az
p1
I1
sVcyqva43
p2
I1
s.(dp0
Vdhx5fo4
p1
I1
sVcyqva43
p2
I1
s.(dp0
Vcyqva43
p1
I1
sVdi5liof
p2
I1
s.(dp0
Vdifrm1p
p1
I1
sVcyqva43
p2
I1
s.(dp0
Vdj3o0b8
p1
I1
sVcyqva43
p2
I1
s.(dp0
Vdjygqs8
p1
I1
sVcyqva43
p2
I1
s.(dp0
Vdk2h6yx
p1
I1
sVcyqva43
p2
I1
s.(dp0
Vdn903n8
p1
I1
sVcyqva43
p2
I1
s.(dp0
Vdngjmb1
p1
I1
sVcyqva43
p2
I1
s.(dp0
Vdnkhui0
p1
I1
sVcyqva43
p2
I1
s.(dp0
Vdnm24ea
p1
I1
sVcyqva43
p2
I1
s.(dp0
Vdorcgcb
p1
I1
sVcyqva43
p2
I1
s.(dp0
Vdork2za
p1
I1
sVcyqva43
p2
I1
s.(dp0
Vdp4z1n8
p1
I1
sVcyqva43
p2
I1
s.(dp0
Vdpatqnt
p1
I1
sVcyqva43
p2
I1
s.(dp0
Vdpiv9tr
p1
I1
sVcyqva43
p2
I1
s.(dp0
Vcyqva43
p1
I1
sVdpm4izb
p2
I1
s.(dp0
Vdq1oox6
p1
I1
sVcyqva43
p2
I1
s.(dp0
Vcyqva43
p1
I1
sVdqbz128
p2
I1
s.(dp0
Vdri78eo
p1
I1
sVcyqva43
p2
I1
s.(dp0
Vdrt3whg
p1
I1
sVcyqva43
p2
I1
s.(dp0
Vds80eub
p1
I1
sVcyqva43
p2
I1
s.(dp0
Vcyqva43
p1
I1
sVdsofz3g
p2
I1
s.(dp0
Vdt2zqof
p1
I1
sVcyqva43
p2
I1
s.(dp0
Vdt47zkq
p1
I1
sVcyqva43
p2
I1
s.(dp0
Vdtgvfgd
p1
I1
sVcyqva43
p2
I1
s.