(dp0
Vd4t6140
p1
I2
sVdnlas6v
p2
I1
sVdjvkyys
p3
I1
sVda2gtds
p4
I1
sVd3au787
p5
I1
sVd57nbio
p6
I1
sVdmn9ix4
p7
I1
sVdmzc40i
p8
I1
sVd7qzvod
p9
I1
sVd3uueh7
p10
I1
sVdmipj8n
p11
I1
sVd0565y6
p12
I1
sVdnq6zbd
p13
I1
sVda6s31o
p14
I1
sVd2ctcty
p15
I1
sVd78mrwk
p16
I1
sVd4bf4mi
p17
I1
sVczcnphh
p18
I1
sVdc6dz29
p19
I1
sVddavr9n
p20
I1
sVczwlemg
p21
I1
sVdgcol93
p22
I1
sVd7wo3bk
p23
I1
sVdrwkpyo
p24
I2
sVdbc83xl
p25
I1
sVdi5spak
p26
I1
sVd699bo3
p27
I1
sVdc5jslj
p28
I1
sVd2j8ew2
p29
I1
sVda1v9rr
p30
I1
sVdgejbrj
p31
I1
sVdcm73qp
p32
I1
sVdoaixah
p33
I1
sVdrh9msw
p34
I2
sVdeaeugo
p35
I1
sVd0kpnza
p36
I1
sVdpe3bx7
p37
I1
sVdam24hd
p38
I2
sVd45xs9z
p39
I1
sVd5flvi4
p40
I2
sVd211nnc
p41
I1
sVdc2f2qu
p42
I1
sVd5xpsh6
p43
I1
sVd2c2q1a
p44
I1
sVcyiswmp
p45
I1
sVcyyky24
p46
I1
sVd3v8kud
p47
I1
sVdrvur3e
p48
I1
sVd7pbb8n
p49
I1
sVdmfqk2l
p50
I1
sVd4emoby
p51
I1
sVdibu9lr
p52
I1
sVd4jstlz
p53
I1
sVd3nu996
p54
I1
sVczhk87n
p55
I1
sVdny9h8d
p56
I1
sVd93ywjx
p57
I1
sVdrlkcst
p58
I2
sVdse5qtx
p59
I1
sVcymrbxi
p60
I1
sVd9n5f1t
p61
I1
sVdj1g81h
p62
I1
sVd6x9vmr
p63
I1
sVd382yw2
p64
I1
sVd21i2ij
p65
I1
sVd0j2yv3
p66
I1
sVdjmf15t
p67
I1
sVddxegw9
p68
I1
sVd36ffrs
p69
I1
sVd3kc3qr
p70
I1
sVdi9rb2j
p71
I1
sVdrtxu3n
p72
I1
sVdbe7mcu
p73
I2
sVdb93c5r
p74
I2
sVdb6v2k8
p75
I1
sVd1dszk0
p76
I1
sVd2bfvrs
p77
I1
sVd6aj5w7
p78
I1
sVd5u8h28
p79
I1
sVddv722h
p80
I1
sVd7xlmhn
p81
I1
sVd2gsetp
p82
I1
sVd51r1kh
p83
I1
sVd316rqy
p84
I1
sVdr0ooez
p85
I1
sVcz7re5a
p86
I1
sVd06yk4t
p87
I1
sVdpsusuq
p88
I1
sVd4bmmtl
p89
I1
sVczoeu4n
p90
I1
sVdeixhe2
p91
I1
sVdj2mh1l
p92
I1
sVd5yus4i
p93
I1
sVcyzxj3t
p94
I1
sVdf7w2ev
p95
I1
sVd0477h8
p96
I1
sVd729ocu
p97
I1
sVdbc2v32
p98
I1
sVcz4kdfg
p99
I1
sVcyjja7d
p100
I1
sVd9icbrm
p101
I1
sVdk5dev9
p102
I1
sVd5nqxvl
p103
I1
sVddx9coc
p104
I1
sVdnhzi62
p105
I1
sVcywevl9
p106
I1
sVd9xmedk
p107
I1
sVdi6naki
p108
I1
sVd29vf69
p109
I1
sVd06cf14
p110
I1
sVdepq8fs
p111
I1
sVdhpt7xx
p112
I2
sVd2jv966
p113
I1
sVdk5kfz4
p114
I1
sVd92t0fs
p115
I1
sVczon4x7
p116
I1
sVdajtbns
p117
I1
sVd097dgz
p118
I1
sVdskq34t
p119
I1
sVd21d4qh
p120
I1
sVd8xnahf
p121
I1
sVds52n9k
p122
I1
sVdhw37w3
p123
I1
sVdst5xqr
p124
I1
sVd4n1czm
p125
I1
sVd2kmv3j
p126
I1
sVd9vwctj
p127
I1
sVd8hv8dq
p128
I1
sVdt2c49p
p129
I1
sVda74745
p130
I1
sVd8kl2ah
p131
I1
sVde7jd50
p132
I2
sVdnvpiqu
p133
I1
sVdahsuep
p134
I1
sVdg1iei2
p135
I1
sVdemdlpx
p136
I1
sVd79xv8k
p137
I1
sVdikdgc5
p138
I2
sVdqbxey5
p139
I1
sVd7x0ebg
p140
I1
sVd3oviws
p141
I1
sVdb06vkf
p142
I1
sVd3amxhl
p143
I1
sVdb9mxcs
p144
I1
sVdksieoc
p145
I1
sVdakg9im
p146
I4
sVd1huuci
p147
I1
sVdfz0cqx
p148
I1
sVd4zu7ds
p149
I1
sVcz6n5xl
p150
I1
sVdb6ux3r
p151
I2
sVdqevfj9
p152
I1
sVd7yzux3
p153
I1
sVdgleytx
p154
I1
sVdb57fd1
p155
I1
sVcz1kgej
p156
I1
sVdru74s8
p157
I1
sVdbcim6a
p158
I1
sVczbpqmc
p159
I3
sVdawu3c4
p160
I1
sVczzypfb
p161
I1
sVdid0iwr
p162
I1
sVcz6lmay
p163
I1
sVd57k0ec
p164
I1
sVd0197gl
p165
I1
sVdp7y543
p166
I1
sVdbwyayg
p167
I1
sVdawlc4x
p168
I1
sVdh52zja
p169
I1
sVdcir5as
p170
I1
sVdjsju9f
p171
I1
sVd0i5jg8
p172
I1
sVdfu1h8o
p173
I1
sVd86hxpf
p174
I1
sVd2zy93v
p175
I1
sVdilpxht
p176
I1
sVdiwvm84
p177
I1
sVde15mls
p178
I1
sVdrkkbn9
p179
I1
sVcyzi1cu
p180
I1
sVd2a0ftd
p181
I1
sVd64j2z4
p182
I1
sVdoa2twh
p183
I1
sVdosra0q
p184
I1
sVczaengm
p185
I1
sVdba89ae
p186
I1
sVdd6aqwx
p187
I1
sVd2vp65r
p188
I1
sVd6pk5r2
p189
I1
sVdd5f1cc
p190
I2
sVdidm6m4
p191
I1
sVd2hcyrd
p192
I3
sVd7v1otu
p193
I2
sVczeqk90
p194
I1
sVdklg0nm
p195
I1
sVdbb8wux
p196
I1
sVdeaygli
p197
I1
sVdg0z7h2
p198
I1
sVdmij1ag
p199
I1
sVdhnb7xc
p200
I1
sVdneiebg
p201
I1
sVdk7pbm1
p202
I1
sVdh0guij
p203
I1
sVd1tqpcm
p204
I1
sVd73aznc
p205
I1
sVdreo2l3
p206
I1
sVdkg9c8h
p207
I1
sVda06i9e
p208
I1
sVd4l1ifq
p209
I1
sVdiy4yik
p210
I1
sVcypmi8t
p211
I1
sVdd4hnv5
p212
I1
sVdt168fa
p213
I1
sVcze18v0
p214
I1
sVdd1rnl1
p215
I1
sVdowhgmi
p216
I1
sVdmi2iyh
p217
I2
sVdtegi3k
p218
I1
sVdf3ir9a
p219
I1
sVd19xwqp
p220
I1
sVdad4u88
p221
I2
sVddfk7s2
p222
I1
sVd3nt56l
p223
I1
sVd5vzn1t
p224
I1
sVd45zmd8
p225
I1
sVd58tk26
p226
I1
sVdkj3cxy
p227
I1
sVda8g621
p228
I1
sVdeu38k7
p229
I1
sVd35oh0y
p230
I1
sVd4gish9
p231
I1
sVdbw3cp4
p232
I1
sVd1y9zv2
p233
I1
sVdfrm0am
p234
I1
sVd3jcmgy
p235
I1
sVdolgnvp
p236
I1
sVcyt4r7l
p237
I1
sVdaymivp
p238
I1
sVdj7qee9
p239
I1
sVd9y1rxw
p240
I1
sVdah29xk
p241
I1
sVcz5hmbx
p242
I1
sVdef5byv
p243
I1
sVd63s49l
p244
I1
sVd0ynpph
p245
I1
sVd8owouw
p246
I1
sVd0zmhfu
p247
I1
sVd9n35jq
p248
I1
sVd0sxejr
p249
I1
sVdmskg4k
p250
I1
sVd18wntd
p251
I1
sVd5dodrg
p252
I1
sVd47soq9
p253
I1
sVdfnt7w8
p254
I1
sVdojekas
p255
I1
sVd3aqe2z
p256
I1
sVdq0c0n3
p257
I1
sVdpzfg9j
p258
I1
sVdcqtryt
p259
I2
sVd4k91y6
p260
I1
sVcyw4qwd
p261
I1
sVdbl9azh
p262
I1
sVdf1387v
p263
I1
sVd0pfpei
p264
I1
sVd73fzrt
p265
I1
sVdc7hgat
p266
I1
sVdbuklsa
p267
I2
sVdgwav0s
p268
I1
sVdh4m5y7
p269
I1
sVdf99q5o
p270
I1
sVd42fvd6
p271
I1
sVd2w8og5
p272
I1
sVd27mzw5
p273
I1
sVdoghgjm
p274
I1
sVd3r7l9i
p275
I2
sVder5wzd
p276
I1
sVdcy6bx8
p277
I1
sVd5awkt5
p278
I1
sVdefly62
p279
I1
sVdak56cg
p280
I1
sVdkdugic
p281
I1
sVcys8whc
p282
I1
sVde39tdo
p283
I1
sVdpbxk12
p284
I1
sVd8rrldo
p285
I1
sVdcviv12
p286
I3
sVcyqxe83
p287
I1
sVdktnnof
p288
I1
sVdnqy2lb
p289
I1
sVd4devo7
p290
I1
sVczllanf
p291
I1
sVddgkr4q
p292
I1
sVd76p6zi
p293
I1
sVczvh4ed
p294
I1
sVd42ho2f
p295
I1
sVdce92e1
p296
I2
sVdc8ogpa
p297
I1
sVd0ypruk
p298
I1
sVdjh7bj6
p299
I1
sVd251lcp
p300
I1
sVdkmahf5
p301
I1
sVd4kx2li
p302
I1
sVda40rwu
p303
I1
sVdkrbel4
p304
I1
sVd1uydax
p305
I1
sVd7vmidq
p306
I2
sVdgre2ro
p307
I1
sVd6u8712
p308
I1
sVd8cyxyc
p309
I1
sVd2joyba
p310
I1
sVd0dv9vl
p311
I1
sVd7g1qja
p312
I2
sVdagyzyh
p313
I1
sVd1nmegw
p314
I1
sVddssdbe
p315
I1
sVd842wg1
p316
I1
sVdadz4pd
p317
I1
sVcyj4oi2
p318
I1
sVdeim8xc
p319
I1
sVdej6iri
p320
I1
sVd0i8baq
p321
I1
sVdkv1k87
p322
I1
sVd17tm54
p323
I1
sVdiqegkk
p324
I1
sVdb5dzzm
p325
I1
sVd9puxdq
p326
I1
sVdt38gk5
p327
I1
sVdhibxhm
p328
I1
sVd2a3c3k
p329
I1
sVd77tlc5
p330
I1
sVddgxs8g
p331
I1
sVd1d31fc
p332
I1
sVdkde71j
p333
I1
sVdi0iapx
p334
I2
sVd8do82u
p335
I1
sVd1p79ha
p336
I1
sVd7qvg25
p337
I1
sVd5c0kk1
p338
I1
sVddjty0g
p339
I1
sVd9n0xg3
p340
I1
sVd0z72zw
p341
I1
sVdh382kj
p342
I1
sVda8dy1n
p343
I1
sVdb4gta7
p344
I1
sVcysv93j
p345
I1
sVcytsz76
p346
I1
sVcyi29ve
p347
I1
sVdps21by
p348
I1
sVd4c1uva
p349
I1
sVdhitnea
p350
I1
sVdckfxwy
p351
I3
sVd40bxru
p352
I2
sVd2g1a43
p353
I1
sVd48awpl
p354
I1
sVcyjgxwv
p355
I1
sVdj00l75
p356
I1
sVdawspz8
p357
I1
sVdt8j84h
p358
I1
sVdantkk4
p359
I1
sVdgpqhqb
p360
I1
sVd4rhboo
p361
I2
sVd6qbw50
p362
I1
sVdar1ri3
p363
I1
sVd0j242z
p364
I1
sVczi5bwt
p365
I1
sVd5tg154
p366
I2
sVd2ecnop
p367
I1
sVda1zqf0
p368
I1
sVdjy0jk3
p369
I2
sVddxd817
p370
I1
sVdq70exj
p371
I1
sVd5f2e5j
p372
I1
sVdqqmc9s
p373
I1
sVcz33bvr
p374
I1
sVdej3qxe
p375
I1
sVdbxtipt
p376
I1
sVd9mzvfr
p377
I1
sVdt97k5o
p378
I1
sVczzd4zd
p379
I1
sVd608yhs
p380
I1
sVcz355up
p381
I2
sVd2aeauq
p382
I1
sVd4130ct
p383
I1
sVd88ja4v
p384
I1
sVd1ajsvx
p385
I2
sVczw00bi
p386
I1
sVdopxj92
p387
I1
sVddokz8p
p388
I1
sVdbncv0u
p389
I1
sVdmrmev4
p390
I1
sVdij96s3
p391
I1
sVd2w3d16
p392
I1
sVdmh9ew6
p393
I1
sVdge158u
p394
I1
sVd2rwgtp
p395
I1
sVd0o3l23
p396
I1
sVdjnvm8y
p397
I1
sVd0yfhri
p398
I1
sVddih3q8
p399
I1
sVd9f216t
p400
I1
sVdhlitup
p401
I1
sVdes553n
p402
I1
sVd7mpwl7
p403
I1
sVdip7ne1
p404
I1
sVdh55y77
p405
I1
sVdc2p0y8
p406
I1
sVd1waxq5
p407
I1
sVdbwee6y
p408
I1
sVdmh8hxj
p409
I2
sVd2tqdxj
p410
I1
sVdtctz88
p411
I1
sVd5o0c7s
p412
I1
sVdf3lvpy
p413
I1
sVd379ym7
p414
I1
sVdb10xqe
p415
I1
sVd592esg
p416
I1
sVdmm6xvh
p417
I1
sVd8r0qdl
p418
I1
sVd5dnyti
p419
I1
sVd0remet
p420
I1
sVdc4dzea
p421
I1
sVdc8en7j
p422
I1
sVdh5ch32
p423
I1
sVd8lhhxd
p424
I1
sVdfqod3w
p425
I1
sVd4rbrwk
p426
I1
sVd2lazkd
p427
I1
sVdpps6mt
p428
I1
sVddwnf3c
p429
I1
sVd4fkwsj
p430
I1
sVd4t6b4n
p431
I3
sVd3qa1p2
p432
I1
sVdbghh8l
p433
I2
sVd48y5ys
p434
I1
sVdd07lfy
p435
I1
sVcz6r5ux
p436
I1
sVd78odq5
p437
I1
sVdcm8rpf
p438
I1
sVdg9pm61
p439
I1
sVdqc2vcb
p440
I1
sVd1wp5ie
p441
I1
sVdel9g4e
p442
I1
sVd9bn41d
p443
I1
sVdhqtsgt
p444
I1
sVd3j0ox4
p445
I1
sVcz6mddo
p446
I1
sVd690pkc
p447
I1
sVdalej2n
p448
I1
sVdrq0dxh
p449
I1
sVd7u4p04
p450
I1
sVd25zji4
p451
I1
sVczau0zr
p452
I1
sVd6hfzip
p453
I1
sVd3zr9di
p454
I1
sVczri71c
p455
I2
sVcyljbud
p456
I1
sVdi7g2eu
p457
I1
sVdn70s85
p458
I1
sVd99oylu
p459
I1
sVdsmdrzv
p460
I1
sVd050t1c
p461
I1
sVde61lt5
p462
I1
sVd0g00ea
p463
I1
sVdau3qc8
p464
I1
sVdqneyba
p465
I1
sVdf50nkk
p466
I1
sVdqj4j6c
p467
I1
sVd0jilhl
p468
I2
sVdd8vcr0
p469
I1
sVdcbnzfk
p470
I1
sVdkj932x
p471
I1
sVdjfy4oh
p472
I1
sVdf45j2h
p473
I1
sVdcimiwa
p474
I1
sVd3egn6e
p475
I1
sVdcl99py
p476
I1
sVdfeqz8b
p477
I1
sVd7mfvnf
p478
I1
sVdtalb6b
p479
I1
sVd3q4xgw
p480
I1
sVcyu84y6
p481
I1
sVdbf01xb
p482
I1
sVd95rx7w
p483
I1
sVd3yhzxv
p484
I1
sVdkme2mq
p485
I1
sVd3yaopy
p486
I1
sVd97ie08
p487
I2
sVczccphl
p488
I1
sVdgesgyp
p489
I2
sVdhurrgp
p490
I1
sVdmum7gc
p491
I1
sVdiy6e91
p492
I1
sVdml4rkx
p493
I1
sVdnq6iv1
p494
I1
sVd365dqb
p495
I1
sVdkeuue6
p496
I1
sVd3n492k
p497
I2
sVdmi9l2y
p498
I1
sVd21f7wl
p499
I1
sVdae3ein
p500
I1
sVcypjsr3
p501
I1
sVd2mpeh3
p502
I1
sVddyo7jw
p503
I1
sVdama05z
p504
I1
sVd9p11di
p505
I1
sVd5d25ql
p506
I1
sVdajr89w
p507
I1
sVdmntp6t
p508
I1
sVdf26wph
p509
I1
sVdb0u6l5
p510
I1
sVd5dhndl
p511
I1
sVd80i9hj
p512
I1
sVd2afoa1
p513
I1
sVddol021
p514
I1
sVd3pgpz1
p515
I1
sVd5xrhdl
p516
I1
sVddjpoca
p517
I2
sVditc7tw
p518
I1
sVdf3zz30
p519
I1
sVdi2uebk
p520
I1
sVd4k6s39
p521
I1
sVd1do53r
p522
I2
sVd01mmg0
p523
I1
sVde59nu1
p524
I1
sVd24kfaj
p525
I1
sVd22xqfp
p526
I1
sVd3mt0i0
p527
I1
sVdkk9h8z
p528
I1
sVde5az4g
p529
I1
sVd9u5sdh
p530
I1
sVd8xsz1h
p531
I1
sVdcoo9x9
p532
I1
sVd4x0duk
p533
I1
sVdqm1mnu
p534
I1
sVdna6y3y
p535
I1
sVd0cjhny
p536
I1
sVdrha3x6
p537
I1
sVd5jy35c
p538
I1
sVd8uxzbg
p539
I1
sVcz4njd6
p540
I1
sVdj84y6r
p541
I1
sVd19av8m
p542
I1
sVdf1o99j
p543
I1
sVd8akpqr
p544
I1
sVdqzqx3s
p545
I4
sVd0tp6le
p546
I1
sVdsq5qfi
p547
I1
sVd70lvja
p548
I1
sVd6ndl1l
p549
I1
sVdhnsufr
p550
I4
sVd9ubxfd
p551
I3
sVd25fb5b
p552
I1
sVczgrk3w
p553
I2
sVd58bzc0
p554
I1
sVd2gwmwe
p555
I1
sVdjma6dr
p556
I1
sVd7qkpnd
p557
I2
sVd5rtcxw
p558
I1
sVd59lifc
p559
I1
sVdfwa3w8
p560
I1
sVd2s2fb8
p561
I1
sVddwk67s
p562
I1
sVdgdcxh2
p563
I1
sVd9qor9b
p564
I1
sVd6whe8k
p565
I1
sVd5993u3
p566
I1
sVczdr6wi
p567
I1
sVd3rjbkh
p568
I1
sVdekh9z0
p569
I1
sVdcfguoy
p570
I1
sVdax22un
p571
I1
sVdfrn5im
p572
I1
sVdje9j3h
p573
I1
sVd9027gz
p574
I1
sVd2ctbzn
p575
I3
sVczg3ale
p576
I1
sVd4tzq7s
p577
I1
sVcyq8kwk
p578
I1
sVd1y90kb
p579
I2
sVdc1op5s
p580
I1
sVdn7vt08
p581
I1
sVczf5gd1
p582
I1
sVdhyqmrs
p583
I1
sVde3keep
p584
I1
sVd2aae50
p585
I1
sVdes32x6
p586
I1
sVdqwd8d2
p587
I1
sVd16earv
p588
I1
sVdaxlj18
p589
I1
sVdb3kgy1
p590
I1
sVdsd4o3k
p591
I1
sVczvmovs
p592
I1
sVdggsdlk
p593
I1
sVdb3m4x3
p594
I1
sVd13x8k9
p595
I1
sVd7y6d9j
p596
I1
sVddxns8v
p597
I1
sVcyt6yts
p598
I1
sVd9kju8d
p599
I1
sVd85xbfg
p600
I1
sVd04a7mn
p601
I1
sVd82gaff
p602
I2
sVdqeb2hy
p603
I1
sVdpm496v
p604
I2
sVd2c197v
p605
I1
sVdbgwjry
p606
I1
sVd12zkql
p607
I1
sVd0snk9f
p608
I1
sVd127y6x
p609
I1
sVd2o5et9
p610
I1
sVd2r8fgj
p611
I1
sVd0tiykt
p612
I1
sVczktrk7
p613
I1
sVd10gqww
p614
I1
sVczgclm6
p615
I1
sVd3ck7i2
p616
I1
sVd3i39x0
p617
I1
sVd9gsd07
p618
I1
sVd230yfl
p619
I1
sVdkr6hfo
p620
I1
sVd1qel11
p621
I1
sVd1vaguo
p622
I1
sVdny5wbe
p623
I1
sVcyizpl8
p624
I1
sVde8hgz4
p625
I4
sVdd7x27o
p626
I1
sVd543bhm
p627
I1
sVd4zi7zn
p628
I1
sVdcwsnqg
p629
I1
sVdh1p0r1
p630
I1
sVdfnj44p
p631
I1
sVd3t7uo2
p632
I1
sVd5am5y7
p633
I1
sVd09v24l
p634
I1
sVdizgfu5
p635
I1
sVd83b9tg
p636
I1
sVdmjh2fi
p637
I1
sVd87bgd0
p638
I1
sVd6607fi
p639
I1
sVdce40tv
p640
I1
sVdnwk31m
p641
I1
sVd8vfrvb
p642
I1
sVdep4kda
p643
I1
sVd7j6zke
p644
I1
sVdha1g2h
p645
I1
sVd0wkp7o
p646
I1
sVdkdvci9
p647
I1
sVdqejjpc
p648
I1
sVd2siwu9
p649
I1
sVd80sff7
p650
I1
sVd8469qa
p651
I1
sVdbv51si
p652
I2
sVdffipwo
p653
I1
sVd6szq0u
p654
I2
sVd080d59
p655
I1
sVd94i0ru
p656
I1
sVd61kbbo
p657
I1
sVd1i1wvk
p658
I1
sVdgd1q52
p659
I1
sVd4lhvxx
p660
I1
sVd8qic44
p661
I1
sVd3yk80g
p662
I1
sVd3qmdzt
p663
I1
sVddog6ia
p664
I5
sVd7lmzbr
p665
I1
sVdrlib2a
p666
I1
sVd6vxgog
p667
I1
sVd016atx
p668
I1
sVdo03s1c
p669
I1
sVd369jsr
p670
I1
sVdfu9tza
p671
I1
sVd8d9g76
p672
I1
sVd6metqu
p673
I1
sVdj3js1n
p674
I2
sVd8ux62s
p675
I1
sVdr57sfn
p676
I1
sVd36frpi
p677
I1
sVcz1p9ug
p678
I1
sVdprcsjm
p679
I1
sVde72evq
p680
I1
sVdeu9pa9
p681
I1
sVdi8blv3
p682
I1
sVdf1ybd9
p683
I1
sVczvakkp
p684
I1
sVczytf5a
p685
I1
sVd770zpa
p686
I1
sVd107xfx
p687
I1
sVd87r65c
p688
I1
sVdd3aaol
p689
I1
sVdd1vh78
p690
I2
sVd2ou4uu
p691
I1
sVd20qr08
p692
I1
sVd3r5zwz
p693
I1
sVd88uyg4
p694
I1
sVd0b4352
p695
I1
sVdejcqlc
p696
I1
sVdeu1qiv
p697
I1
sVd67rqej
p698
I1
sVczxcvh4
p699
I1
sVd4jxlit
p700
I1
sVdfrdma5
p701
I1
sVdb5dloy
p702
I1
sVd0actp1
p703
I1
sVdid0w4c
p704
I1
sVczt1kyl
p705
I1
sVd0m69yv
p706
I1
sVd53wsym
p707
I1
sVdth127n
p708
I1
sVdjsgn9p
p709
I1
sVdf69nxz
p710
I1
sVd8b4enk
p711
I1
sVdg903fk
p712
I1
sVdco88yt
p713
I1
sVdqfg9d7
p714
I1
sVd8fqp4h
p715
I1
sVdsow8g2
p716
I1
sVdr2rjat
p717
I1
sVdcxi2e9
p718
I1
sVddhjqos
p719
I1
sVdg6d7df
p720
I1
sVdkjyyrm
p721
I1
sVde20www
p722
I1
sVd82pej6
p723
I1
sVcynfnwe
p724
I1
sVd9y3pqb
p725
I2
sVdtdwj5v
p726
I1
sVdd19000
p727
I1
sVdqxbcc4
p728
I1
sVdiiax9d
p729
I1
sVd0nzdmy
p730
I1
sVcyni7wf
p731
I1
sVdhbkwoe
p732
I1
sVd0ju75j
p733
I1
sVdhgs506
p734
I1
sVcz9nl98
p735
I1
sVd77uc5f
p736
I1
sVd0gdz1i
p737
I1
sVd8ujql4
p738
I1
sVd7nd7ct
p739
I1
sVdn09aam
p740
I2
sVd09xlmb
p741
I2
sVdhlxxfa
p742
I1
sVdjrrcf2
p743
I1
sVd91nkdy
p744
I1
sVdhlydjb
p745
I1
sVd0ary5s
p746
I1
sVczff8dg
p747
I1
sVd0gvm4d
p748
I2
sVdhe74ks
p749
I1
sVd7xjxhz
p750
I1
sVd60i1l3
p751
I1
sVd2pw2mj
p752
I1
sVdsvwozi
p753
I1
sVd3bvsa9
p754
I1
sVdjki3d6
p755
I1
sVdenxgj3
p756
I1
sVd2or81a
p757
I1
sVdfa0870
p758
I1
sVczzybgv
p759
I2
sVd0rviz7
p760
I1
sVdknub6d
p761
I1
sVdhpehod
p762
I2
sVdgz8g75
p763
I1
sVd2kkaz8
p764
I1
sVd0t4txz
p765
I1
sVd41i599
p766
I1
sVd0gsqtl
p767
I1
sVd1izcvy
p768
I1
sVd7f959o
p769
I1
sVd2i9318
p770
I1
sVdjwqc4q
p771
I1
sVdgxigw3
p772
I1
sVdk81kuz
p773
I1
sVd8iyhtq
p774
I1
sVdirl0el
p775
I1
sVdf8nis6
p776
I1
sVd82bbn8
p777
I1
sVdf4im6l
p778
I1
sVd1269qw
p779
I1
sVd3kjpk6
p780
I1
sVdks0k0k
p781
I1
sVd6dlgce
p782
I1
sVd24r5kg
p783
I1
sVd3p1nf2
p784
I1
sVddxddtu
p785
I1
sVd5boaql
p786
I1
sVd4rqke7
p787
I1
sVdpqxvj7
p788
I1
sVdn8j040
p789
I1
sVdfxxx1c
p790
I1
sVdn4v4t1
p791
I1
sVdb9j9k7
p792
I1
sVcyzmxgy
p793
I1
sVdn69q9i
p794
I1
sVdh59u3a
p795
I1
sVd96xqaw
p796
I1
sVdh0ig4x
p797
I1
sVd2inb5q
p798
I3
sVdeh246d
p799
I1
sVd31lm48
p800
I1
sVdeq3qaq
p801
I1
sVdjgqfhk
p802
I1
sVdkuftms
p803
I1
sVd6qnu3i
p804
I1
sVde4x2s7
p805
I1
sVd5fmfyc
p806
I2
sVdkb0scj
p807
I1
sVd8ufhr6
p808
I1
sVd1ckeue
p809
I1
sVd0sw6vw
p810
I1
sVdo63a5x
p811
I1
sVdad5bkx
p812
I1
sVcymtqkk
p813
I1
sVd9yiyd4
p814
I1
sVd1hh54p
p815
I1
sVdaqlc6k
p816
I1
sVdneyw6b
p817
I1
sVdh0fvln
p818
I1
sVday0gbh
p819
I1
sVd9dc19u
p820
I2
sVda3tuex
p821
I1
sVcykt9fw
p822
I1
sVd1r9axj
p823
I1
sVd3j4eft
p824
I2
sVd4s0xnz
p825
I1
sVd27w3hf
p826
I1
sVdk4wthq
p827
I2
sVd7zi7r2
p828
I1
sVddbn1x7
p829
I1
sVd65acn0
p830
I1
sVd54lb5a
p831
I1
sVdi2bbyw
p832
I1
sVczozc99
p833
I1
sVdef91sm
p834
I1
sVdcw0h0w
p835
I1
sVdadycok
p836
I1
sVd2g1lug
p837
I1
sVd6m702x
p838
I1
sVdjfjbc3
p839
I1
sVd1vu6dp
p840
I1
sVczcpj66
p841
I2
sVd8mv1e6
p842
I1
sVd5cxfs7
p843
I1
sVdnmuyij
p844
I1
sVd7p8w5m
p845
I1
sVdofwr25
p846
I1
sVdhtc9qo
p847
I1
sVdhoq8k0
p848
I1
sVdgji4fi
p849
I1
sVd1p6qgc
p850
I1
sVd23prjt
p851
I1
sVdno4mil
p852
I1
sVd4bto25
p853
I1
sVdkt225q
p854
I1
sVdbqhrvm
p855
I1
sVd5sgf1i
p856
I1
sVd65a8h6
p857
I1
sVd53dutp
p858
I1
sVd6v9s26
p859
I1
sVdcd1i79
p860
I1
sVdgaj4eq
p861
I1
sVd41uqr2
p862
I1
sVd2kil51
p863
I1
sVd1mfztx
p864
I1
sVdinl220
p865
I1
sVdcsnnzx
p866
I1
sVd0jgdjb
p867
I1
sVd0w1xik
p868
I1
sVdbqfiw3
p869
I1
sVd7j9lc4
p870
I1
sVdfpa5vi
p871
I1
sVdh16izq
p872
I1
sVd3hi4hj
p873
I1
sVdrdffvs
p874
I1
sVd9enup6
p875
I1
sVddhbrnb
p876
I1
sVddi8yhc
p877
I1
sVdr96xip
p878
I1
sVdg6zike
p879
I1
sVd6ya9l6
p880
I1
sVdd2eq6i
p881
I1
sVdg83eob
p882
I1
sVd2c6i2c
p883
I1
sVdpiz84h
p884
I1
sVd2qdk4n
p885
I2
sVczq7sto
p886
I1
sVd57jn3a
p887
I1
sVdn7pv48
p888
I1
sVd5zrj8h
p889
I1
sVdsz2ifa
p890
I1
sVd5e1vpy
p891
I1
sVdeuu02f
p892
I1
sVczyt69w
p893
I2
sVdtidxs3
p894
I2
sVdnrgjt5
p895
I1
sVd0iavpq
p896
I1
sVda13lk8
p897
I1
sVdf6jbxt
p898
I1
sVdb0ougi
p899
I1
sVd94fe6r
p900
I1
sVdtbfl2k
p901
I1
sVdd6b7xk
p902
I1
sVd06hndj
p903
I1
sVd97ge7b
p904
I1
sVdhtm6gy
p905
I1
sVdc0tyaj
p906
I1
sVdpux7i3
p907
I1
sVdgez7fl
p908
I1
sVdi73huu
p909
I2
sVdps1zjx
p910
I1
sVd8eh4c4
p911
I1
sVdgp3ab5
p912
I1
sVd22pw8n
p913
I1
sVdpc79pg
p914
I1
sVcz4l6pd
p915
I1
sVdakvk6f
p916
I1
sVd6zy9h3
p917
I1
sVdda9r3h
p918
I1
sVd0i4767
p919
I1
sVdeity9o
p920
I1
sVdaea603
p921
I1
sVczflhsc
p922
I1
sVdbu5gqg
p923
I1
sVd9vk4rx
p924
I2
sVddbvprc
p925
I1
sVdadvm92
p926
I1
sVd1fuc96
p927
I1
sVdmxnykd
p928
I1
sVdj0lodk
p929
I1
sVd8pdkou
p930
I1
sVd31cmkn
p931
I2
sVd4gjby8
p932
I3
sVdby3mad
p933
I1
sVdmuf6ew
p934
I2
sVd8vr73k
p935
I1
sVdr7wba7
p936
I1
sVd5t4tls
p937
I1
sVdjqknho
p938
I1
sVdc8a7mf
p939
I1
sVd9n127n
p940
I1
sVczc5fqq
p941
I1
sVde10t5f
p942
I1
sVdeh4t4n
p943
I1
sVdid9da8
p944
I1
sVdaol9qk
p945
I1
sVd71diop
p946
I1
sVdcfmh1x
p947
I1
sVcyxkurd
p948
I1
sVd0xyuz0
p949
I1
sVd4d9nsi
p950
I1
sVdeyzj6i
p951
I1
sVdelz1du
p952
I1
sVdeysb6w
p953
I1
sVd3co9ze
p954
I3
sVdi1n12d
p955
I1
sVd3e7pw7
p956
I1
sVdhvbupm
p957
I1
sVddvjkiy
p958
I1
sVdd5qjk9
p959
I1
sVczpcf5r
p960
I1
sVd99fb2v
p961
I1
sVd5oz9rd
p962
I1
sVdn2dpdq
p963
I1
sVddabv3h
p964
I1
sVd4uae6z
p965
I1
sVcyk24of
p966
I1
sVdnizy99
p967
I1
sVdazzpa6
p968
I1
sVd0r48qh
p969
I1
sVdemrpix
p970
I1
sVcz5778t
p971
I1
sVdi4olbf
p972
I1
sVdhfjfjc
p973
I1
sVdfa472i
p974
I1
sVdnc5xme
p975
I1
sVd6c3rhq
p976
I1
sVd6w6ppp
p977
I1
sVd64m7u8
p978
I1
sVdb52tg6
p979
I1
sVdsqyolq
p980
I1
sVdg1lhov
p981
I2
sVd4cztcg
p982
I1
sVd6nqtyk
p983
I1
sVd1416ce
p984
I1
sVdam1qtz
p985
I1
sVd84q4lp
p986
I1
sVd51g0j3
p987
I1
sVd9427x0
p988
I1
sVcyir9yb
p989
I1
sVdekiqu3
p990
I1
sVdavftmh
p991
I1
sVdks2kfp
p992
I1
sVdcrqehu
p993
I2
sVd6j0u3b
p994
I1
sVdrj900c
p995
I1
sVdtb04dg
p996
I1
sVczabxum
p997
I1
sVdt1736f
p998
I1
sVd9fi2zy
p999
I1
sVdspv3hr
p1000
I1
sVd2z2pfu
p1001
I1
sVd7emxpe
p1002
I1
sVdf87mon
p1003
I1
sVd998lhh
p1004
I1
sVdcjxd4g
p1005
I1
sVd3bgkm9
p1006
I1
sVd05xb6p
p1007
I1
sVde5nhyd
p1008
I1
sVdcuhnpw
p1009
I1
sVd5aujlf
p1010
I1
sVdfiwvh5
p1011
I2
sVdo07h9l
p1012
I1
sVdepnzhn
p1013
I1
sVd926wlx
p1014
I1
sVdc1zirt
p1015
I1
sVd7kc4ew
p1016
I1
sVdrmckss
p1017
I1
sVcyyim6x
p1018
I1
sVdkvojua
p1019
I1
sVdhyzm3k
p1020
I1
sVdbwo8om
p1021
I1
sVczseigq
p1022
I1
sVdevi7ax
p1023
I1
sVcyxxqp1
p1024
I1
sVdb5gvmi
p1025
I1
sVdfd1qyw
p1026
I1
sVdh7ux4w
p1027
I1
sVds6fgdz
p1028
I1
sVdenvvjl
p1029
I1
sVdb27vtw
p1030
I1
sVdg3cc6r
p1031
I1
sVdn3z4sv
p1032
I1
sVczfyvmw
p1033
I1
sVd28g6wd
p1034
I1
sVdnw7o11
p1035
I1
sVd4qdefb
p1036
I1
sVdfvpjvf
p1037
I1
sVd0nvygx
p1038
I1
sVd4t7blg
p1039
I1
sVdbgqi26
p1040
I1
sVcz1j8xx
p1041
I1
sVd4db1bm
p1042
I1
sVd0blelz
p1043
I1
sVdebvx6w
p1044
I1
sVd04egh5
p1045
I1
sVddct29i
p1046
I1
sVdiyn68h
p1047
I2
sVdcfujco
p1048
I1
sVdcxt91a
p1049
I1
sVdf84qit
p1050
I1
sVdhoor1l
p1051
I1
sVd3r4wnw
p1052
I1
sVd43ky1d
p1053
I1
sVdpiwf3d
p1054
I1
sVdn8z7ai
p1055
I1
sVddkjb76
p1056
I1
sVdjgi1dy
p1057
I1
sVd4n2ztc
p1058
I1
sVddp517s
p1059
I1
sVd81tgk8
p1060
I1
sVdazr8vk
p1061
I1
sVd3ymc62
p1062
I1
sVd9at5jx
p1063
I1
sVd63podd
p1064
I1
sVdfldfhn
p1065
I1
sVdfxsbr2
p1066
I1
sVd9ubmng
p1067
I1
sVdok5od0
p1068
I1
sVdbzh0su
p1069
I1
sVd9kdthv
p1070
I1
sVczjs6vq
p1071
I1
sVdddikkv
p1072
I1
sVd7tbxqs
p1073
I1
sVdera20z
p1074
I2
sVd0lttbr
p1075
I2
sVds3ltfo
p1076
I1
sVd58m5a0
p1077
I1
sVdmjkiqo
p1078
I1
sVcyj59ni
p1079
I1
sVd5c12ub
p1080
I1
sVczl3jyn
p1081
I1
sVdmka5se
p1082
I1
sVd435niq
p1083
I1
sVcyj4kl3
p1084
I2
sVdslsgim
p1085
I1
sVd09lwk2
p1086
I1
sVd3js959
p1087
I1
sVdcu3lxy
p1088
I1
sVd1lxryt
p1089
I1
sVdcsbef3
p1090
I1
sVdhvbvqn
p1091
I1
sVdphnrlr
p1092
I1
sVddzkn27
p1093
I1
sVdfwzm2x
p1094
I1
sVdhbku8f
p1095
I1
sVdatb1lr
p1096
I2
sVczz8gtj
p1097
I1
sVdcjuyrz
p1098
I1
sVdjbcixf
p1099
I1
sVdibut2g
p1100
I1
sVd1c96dx
p1101
I1
sVde3eqrt
p1102
I1
sVda14kw7
p1103
I1
sVdnfxvdr
p1104
I1
sVd7pp16p
p1105
I1
sVd44dfm5
p1106
I1
sVddx09fa
p1107
I1
sVdpda8vp
p1108
I1
sVd4jqt2w
p1109
I1
sVdelka0o
p1110
I1
sVcynf8yu
p1111
I1
sVd5oq2ol
p1112
I1
sVdow6t0i
p1113
I1
sVd8pcfia
p1114
I1
sVd5lf76k
p1115
I1
sVd0350bn
p1116
I1
sVcypoaah
p1117
I1
sVd6yvt5t
p1118
I1
sVdmtan6v
p1119
I1
sVd17d3vn
p1120
I1
sVdhlrc0b
p1121
I1
sVdhxu1ee
p1122
I2
sVd255qdz
p1123
I1
sVdcdtna6
p1124
I1
sVcyndrli
p1125
I1
sVderdp2k
p1126
I1
sVdd1v8nh
p1127
I1
sVdnx1ry0
p1128
I1
sVd2e62cr
p1129
I1
sVdswnkux
p1130
I1
sVd7lydlj
p1131
I1
sVdsgap7w
p1132
I1
sVdkcdnzx
p1133
I1
sVd16mvnr
p1134
I1
sVd0gx4xl
p1135
I1
sVd97e3u2
p1136
I1
sVdmij2ux
p1137
I1
sVd095roh
p1138
I1
sVd1vta5e
p1139
I1
sVdc2itzl
p1140
I1
sVdc4e1n4
p1141
I2
sVd9j0hbq
p1142
I1
sVd5yhp1x
p1143
I1
sVdgy462a
p1144
I1
sVd6mg0aq
p1145
I1
sVda16nm2
p1146
I1
sVd2c6n9y
p1147
I1
sVd46a0h5
p1148
I1
sVdgdbask
p1149
I1
sVd7b1dyg
p1150
I1
sVd1u2vsj
p1151
I1
sVd5v90u1
p1152
I1
sVdqo0bdf
p1153
I1
sVd5hzvjc
p1154
I2
sVdbjhq70
p1155
I3
sVdhvq4mp
p1156
I1
sVdsbkzah
p1157
I1
sVczn3wbo
p1158
I1
sVdsyn1kl
p1159
I1
sVdb67dw3
p1160
I1
sVdtiadv2
p1161
I1
sVcykosdj
p1162
I1
sVd4pt8fs
p1163
I1
sVcywha8p
p1164
I1
sVd9xigtz
p1165
I1
sVdcnzeva
p1166
I1
sVdjydy6y
p1167
I1
sVdijjr16
p1168
I1
sVd7mzi81
p1169
I2
sVdp042xc
p1170
I1
sVdhay3n3
p1171
I1
sVd57xthc
p1172
I2
sVdn99x27
p1173
I1
sVd6xxqzo
p1174
I1
sVdgiatkd
p1175
I1
sVdqflkjx
p1176
I1
sVd9xhwxc
p1177
I1
sVd8cs29f
p1178
I1
sVd4m5bcd
p1179
I2
sVdfm8xts
p1180
I2
sVd5rouzk
p1181
I1
sVd6bs1en
p1182
I1
sVdikyrre
p1183
I1
sVdho0znm
p1184
I1
sVdngtbwq
p1185
I1
sVcyig0pv
p1186
I1
sVdia1rpk
p1187
I1
sVdhyjm3x
p1188
I1
sVdbk9fed
p1189
I1
sVczzcsit
p1190
I1
sVdgu7z90
p1191
I1
sVdi2w5et
p1192
I1
sVd9vpgos
p1193
I1
sVdh2vdq2
p1194
I1
sVdow36r2
p1195
I1
sVd272z4y
p1196
I2
sVd3udefm
p1197
I1
sVdqsb3xg
p1198
I1
sVdfe5vj7
p1199
I1
sVdd58bvl
p1200
I4
sVdjasbs3
p1201
I1
sVdq5oj1i
p1202
I1
sVdff3agt
p1203
I1
sVdik0dln
p1204
I1
sVdabopo8
p1205
I1
sVdbc8wam
p1206
I1
sVdfcrtj2
p1207
I1
sVd8wkru1
p1208
I1
sVd4r6wzt
p1209
I1
sVdg6m8tp
p1210
I1
sVd219l8t
p1211
I1
sVdph5c94
p1212
I1
sVd3ius59
p1213
I1
sVd51eomh
p1214
I1
sVd1w9jb1
p1215
I1
sVdqabxby
p1216
I2
sVdqizsce
p1217
I2
sVd97bj22
p1218
I1
sVdf9z54c
p1219
I1
sVdi3ldp8
p1220
I1
sVddddwtr
p1221
I1
sVds538wk
p1222
I1
sVd6u4ym5
p1223
I1
sVd2zf0qb
p1224
I1
sVd5a4s3y
p1225
I1
sVdie10tj
p1226
I1
sVdmnic3q
p1227
I1
sVd9781p3
p1228
I1
sVdij83hi
p1229
I1
sVd2o9lt4
p1230
I1
sVdt1mn3i
p1231
I1
sVdf5cdm8
p1232
I1
sVd3mpsjz
p1233
I1
sVd04gznb
p1234
I1
sVd7ktzbs
p1235
I1
sVd2tv68r
p1236
I1
sVd3ldkzo
p1237
I1
sVdb19usi
p1238
I1
sVdfkaazf
p1239
I1
sVdjy5kll
p1240
I2
sVd5uy78g
p1241
I1
sVd2c7moc
p1242
I1
sVdhcjex5
p1243
I1
sVdmujcfi
p1244
I1
sVdd9yf2w
p1245
I1
sVd0ys01j
p1246
I1
sVdszat3u
p1247
I1
sVd28b5iu
p1248
I1
sVda3uuf4
p1249
I1
sVdheufe0
p1250
I1
sVd9vtipm
p1251
I1
sVd29k3pu
p1252
I1
sVd3ydh3o
p1253
I1
sVczxm0ah
p1254
I1
sVdnnpj4i
p1255
I1
sVcz3z01b
p1256
I1
sVdadgny7
p1257
I1
sVdfuel73
p1258
I1
sVd64t4zl
p1259
I1
sVd4ak55p
p1260
I1
sVd7ltnz0
p1261
I1
sVdh6srir
p1262
I1
sVd8rqjph
p1263
I1
sVd7v4g22
p1264
I1
sVd38wn2s
p1265
I1
sVczh0234
p1266
I1
sVcz15ggd
p1267
I1
sVdfng0rb
p1268
I1
sVd9gqnkh
p1269
I1
sVd0cngqg
p1270
I1
sVd1r7xn7
p1271
I1
sVd3ce4kx
p1272
I1
sVd8p14rn
p1273
I2
sVd7pc89e
p1274
I2
sVda9apcq
p1275
I2
sVdmi8ggw
p1276
I1
sVdjqfoe4
p1277
I1
sVd4dcbsz
p1278
I1
sVda7l7if
p1279
I1
sVdhtnq7y
p1280
I1
sVd84vsha
p1281
I1
sVcyqumo0
p1282
I1
sVd6ueofo
p1283
I1
sVczw2mw4
p1284
I1
sVda2lhzb
p1285
I1
sVd4r4b8r
p1286
I2
sVdnznzdd
p1287
I1
sVd6c9ic1
p1288
I1
sVd572bno
p1289
I1
sVd8bcned
p1290
I1
sVdotsvh5
p1291
I1
sVd9ysxzd
p1292
I1
sVdf5yypi
p1293
I3
sVdt6aulu
p1294
I1
sVdnzwtu5
p1295
I1
sVd0c07v3
p1296
I1
sVdtibafq
p1297
I1
sVd2384lo
p1298
I1
sVdsnb439
p1299
I1
sVdmfdfjw
p1300
I1
sVdajhk1z
p1301
I1
sVdsm46pk
p1302
I1
sVd2kvw1r
p1303
I1
sVdf7x4g2
p1304
I1
sVdaeaev3
p1305
I1
sVdj04fnm
p1306
I1
sVd6l12rt
p1307
I1
sVdozd8p5
p1308
I1
sVdo5jjhn
p1309
I2
sVd0eoq9g
p1310
I2
sVd4u5v3d
p1311
I2
sVcz146nc
p1312
I1
sVdemrdps
p1313
I1
sVdi0b55r
p1314
I1
sVd7q0hwi
p1315
I1
sVdg9tm0b
p1316
I1
sVd83iy8i
p1317
I1
sVd2t3qw2
p1318
I1
sVdhicnn5
p1319
I1
sVdfnfqdw
p1320
I2
sVcz0nnft
p1321
I1
sVdhsmf0c
p1322
I1
sVd9aphnp
p1323
I1
sVdjyh3v5
p1324
I1
sVdj7hebn
p1325
I1
sVcyxovjz
p1326
I1
sVdrmopq0
p1327
I1
sVdcqcl3w
p1328
I1
sVd9akwe0
p1329
I1
sVdmr78sd
p1330
I1
sVds6d6pe
p1331
I1
sVdkn8d3u
p1332
I1
sVde6t58i
p1333
I1
sVdfy9sp7
p1334
I1
sVd5t3max
p1335
I1
sVd61x6ut
p1336
I1
sVd4wl7zb
p1337
I2
sVczscqap
p1338
I1
sVdemuy18
p1339
I1
sVdgyue6v
p1340
I1
sVdf0zet0
p1341
I1
sVdegwplh
p1342
I1
sVddspim2
p1343
I1
sVdmtbier
p1344
I2
sVdabtxbd
p1345
I1
sVd30idcn
p1346
I2
sVd6zddop
p1347
I1
sVdhpgz84
p1348
I1
sVcyjsdd2
p1349
I1
sVd0zk1h9
p1350
I1
sVczjupu9
p1351
I1
sVd6c06bp
p1352
I1
sVdbyrsnh
p1353
I1
sVd7fm1g9
p1354
I1
sVd97g2m6
p1355
I1
sVd6xu480
p1356
I1
sVd8esmdq
p1357
I1
sVdfjw6iw
p1358
I1
sVdrpuihl
p1359
I1
sVd2atl10
p1360
I1
sVdc5mlo9
p1361
I1
sVdhvohdj
p1362
I1
sVdcy25wv
p1363
I2
sVczqwtf1
p1364
I1
sVdgy7sg8
p1365
I1
sVdiulcdc
p1366
I1
sVdbhuzr6
p1367
I1
sVdixxohe
p1368
I1
sVdfue9yq
p1369
I1
sVddretwg
p1370
I1
sVd2bvsq2
p1371
I1
sVd2kmkql
p1372
I1
sVdb0siw1
p1373
I1
sVd8alzfk
p1374
I1
sVd49xg7r
p1375
I1
sVdfna8xf
p1376
I1
sVdo5dcy2
p1377
I1
sVczghf98
p1378
I1
sVdfqx8u1
p1379
I1
sVd6d23sm
p1380
I1
sVd0787nk
p1381
I1
sVdj5p28g
p1382
I1
sVd9wjhuy
p1383
I1
sVdhkdu4a
p1384
I1
sVczis2iv
p1385
I2
sVd8hp90k
p1386
I1
sVdhl8flz
p1387
I1
sVdbyfazq
p1388
I1
sVdgvpnpq
p1389
I1
sVd2kdsvy
p1390
I1
sVde6dbdd
p1391
I1
sVdfwvv5z
p1392
I1
sVdgf0lzm
p1393
I1
sVd2scjxg
p1394
I1
sVd5jmabu
p1395
I1
sVcyp78mi
p1396
I1
sVd37l3eq
p1397
I1
sVd7wo7u2
p1398
I1
sVdk2t5o8
p1399
I1
sVdkbnsyy
p1400
I3
sVd014qmx
p1401
I1
sVdka5mdi
p1402
I1
sVd068wxd
p1403
I1
sVddhtzf0
p1404
I1
sVdcr8b95
p1405
I1
sVder204k
p1406
I1
sVd7h20h7
p1407
I1
sVd2dq6ks
p1408
I1
sVdgz37s8
p1409
I1
sVdoyz0xs
p1410
I1
sVd3plaqp
p1411
I1
sVd70mrkh
p1412
I1
sVdmeq51i
p1413
I1
sVdii1w4e
p1414
I3
sVd6s7v2g
p1415
I1
sVd4o4un6
p1416
I1
sVd7pa2ag
p1417
I1
sVd8eu1qk
p1418
I1
sVd2b46l9
p1419
I2
sVd8pg8c6
p1420
I1
sVdjr5nbe
p1421
I1
sVdau6t0k
p1422
I1
sVd52p5fe
p1423
I1
sVd9i2cpn
p1424
I1
sVd0sz5g8
p1425
I1
sVdaqn9ih
p1426
I1
sVcyttj3n
p1427
I1
sVd3nxtpo
p1428
I1
sVd2qgpua
p1429
I1
sVdilorq7
p1430
I1
sVd54qx6e
p1431
I1
sVd3j1iqb
p1432
I1
sVd1zcjif
p1433
I1
sVdic18an
p1434
I1
sVdqn3usd
p1435
I1
sVdr6evjg
p1436
I1
sVd9rm3lf
p1437
I1
sVddwcgsz
p1438
I1
sVd8lxncg
p1439
I1
sVds6eqnd
p1440
I1
sVdbn2ehk
p1441
I1
sVdijssmn
p1442
I1
sVd83b1ke
p1443
I1
sVd2jn0bq
p1444
I1
sVd565tvl
p1445
I1
sVdg7bnat
p1446
I2
sVd0iy60x
p1447
I1
sVdc608yk
p1448
I1
sVdql8o7e
p1449
I4
sVdbnu9ju
p1450
I1
sVdjyh890
p1451
I1
sVdfug0s1
p1452
I1
sVd98rsgs
p1453
I2
sVdhmyclh
p1454
I1
sVczl0dpv
p1455
I1
sVd05n9kg
p1456
I1
sVdqfsikk
p1457
I1
sVd1uoftp
p1458
I1
sVdoci713
p1459
I2
sVd2qfk0k
p1460
I1
sVdkllxuv
p1461
I1
sVd7bwb2u
p1462
I1
sVddifdia
p1463
I1
sVdnfnrxe
p1464
I1
sVdebzjxj
p1465
I2
sVd4v6a23
p1466
I1
sVd1u42e9
p1467
I1
sVcyw5ba5
p1468
I1
sVczli133
p1469
I1
sVd3p2j7r
p1470
I1
sVd9ke8sw
p1471
I2
sVdr92nle
p1472
I1
sVd09gbq0
p1473
I2
sVdcxuih3
p1474
I1
sVdb0rs7z
p1475
I1
sVcztjt2z
p1476
I1
sVd2j1548
p1477
I1
sVd7qeebs
p1478
I1
sVczt05a6
p1479
I1
sVdt9ppyi
p1480
I1
sVdjqj232
p1481
I1
sVcyybgfw
p1482
I1
sVd7vh0cx
p1483
I1
sVdfznj7a
p1484
I1
sVd1th44t
p1485
I1
sVd6v66bw
p1486
I1
sVd5083j8
p1487
I1
sVdftt59d
p1488
I1
sVdmoxb1s
p1489
I1
sVdicskdn
p1490
I1
sVd6bc02g
p1491
I1
sVd6nridu
p1492
I2
sVdio4kem
p1493
I1
sVdb0mc3c
p1494
I1
sVd0s7uh1
p1495
I1
sVdbjciq2
p1496
I1
sVd52r3a5
p1497
I1
sVdazy547
p1498
I1
sVdej306y
p1499
I1
sVd0osml3
p1500
I1
sVdas8pcw
p1501
I1
sVdayalbb
p1502
I1
sVde97tyx
p1503
I1
sVd2hibrt
p1504
I1
sVd8ee1aw
p1505
I1
sVd0e3tpa
p1506
I1
sVd68cipk
p1507
I1
sVdce2dqr
p1508
I1
sVd84t31m
p1509
I1
sVd1x682d
p1510
I1
sVdkoif3f
p1511
I1
sVd01rwch
p1512
I2
sVd0t8eu8
p1513
I1
sVdctf0ls
p1514
I1
sVd78bqxu
p1515
I1
sVd75r0wm
p1516
I1
sVdgwhj75
p1517
I1
sVd8g5rqp
p1518
I1
sVddgq7nz
p1519
I1
sVdqcvm3c
p1520
I1
sVde0oj21
p1521
I1
sVdheemws
p1522
I1
sVddi29ko
p1523
I1
sVdjej4oy
p1524
I1
sVdj8usek
p1525
I1
sVdjuv9js
p1526
I1
sVcyz3woe
p1527
I1
sVdkii3vl
p1528
I1
sVdh9mlhr
p1529
I1
sVdbivm1m
p1530
I1
sVcynxust
p1531
I1
sVdehbdhm
p1532
I1
sVdd481rx
p1533
I1
sVdsqdudd
p1534
I1
sVdhseohh
p1535
I1
sVd96wilx
p1536
I1
sVdco207k
p1537
I2
sVd6d6v0h
p1538
I1
sVd1jeeh1
p1539
I1
sVd9130zh
p1540
I2
sVdep9n78
p1541
I1
sVdne5i5b
p1542
I2
sVdpwy30x
p1543
I1
sVdh9vxwk
p1544
I1
sVdesh70p
p1545
I1
sVddv7l8f
p1546
I1
sVdfwu077
p1547
I1
sVczemn55
p1548
I1
sVdd1h2k9
p1549
I1
sVd8orh7b
p1550
I2
sVdbm3m2i
p1551
I1
sVddbyfhv
p1552
I2
sVddmj7e8
p1553
I1
sVdqbebbi
p1554
I1
sVcywhfib
p1555
I1
sVd09wkue
p1556
I1
sVd1ea09e
p1557
I1
sVd1vz0wm
p1558
I1
sVdfwu3ev
p1559
I1
sVd3m6m33
p1560
I1
sVd1kf5f5
p1561
I2
sVdaz1jop
p1562
I1
sVdhdq7fb
p1563
I1
sVdsbovfp
p1564
I1
sVdpyvq47
p1565
I1
sVd7mqc9x
p1566
I1
sVd0tjaip
p1567
I1
sVd9elyb7
p1568
I1
sVdtcnwae
p1569
I1
sVdf3609f
p1570
I1
sVd0sozw6
p1571
I1
sVczxt9jk
p1572
I1
sVd9pidw6
p1573
I1
sVd4yr9wq
p1574
I1
sVdaugcbn
p1575
I1
sVd3gw1sx
p1576
I1
sVczv00of
p1577
I1
sVcz13bsy
p1578
I1
sVczdjv2e
p1579
I1
sVd0cziwr
p1580
I1
sVd2k7ij6
p1581
I1
sVcysgari
p1582
I1
sVd6yku09
p1583
I1
sVdk051va
p1584
I1
sVdgi1h6b
p1585
I1
sVdhujnfm
p1586
I1
sVd5lqe6l
p1587
I1
sVd5zv4s2
p1588
I1
sVdj0zzmj
p1589
I1
sVdhjh9bs
p1590
I1
sVdj4mwgn
p1591
I1
sVdnvtfo3
p1592
I2
sVdb1cmow
p1593
I1
sVdifjsoy
p1594
I1
sVdfkt7jk
p1595
I1
sVdazr2dk
p1596
I1
sVczyezyc
p1597
I1
sVd6fzkvc
p1598
I1
sVdpb4ja0
p1599
I1
sVdcxmrw7
p1600
I1
sVdokwpa8
p1601
I1
sVczzozdy
p1602
I1
sVdmtcm28
p1603
I1
sVczzucoj
p1604
I1
sVdefehct
p1605
I1
sVdnaf6kz
p1606
I1
sVdakqnff
p1607
I1
sVd62wpzk
p1608
I1
sVdspj9hv
p1609
I1
sVd3c3b5q
p1610
I1
sVd9jreru
p1611
I1
sVdf3r662
p1612
I1
sVd1cuz96
p1613
I1
sVds037nu
p1614
I1
sVdi6nm8r
p1615
I1
sVd2nbhyh
p1616
I1
sVcysbqfb
p1617
I2
sVdfwk53z
p1618
I1
sVd3nip40
p1619
I1
sVdt92fg2
p1620
I1
sVczqx723
p1621
I1
sVd3uo1fz
p1622
I1
sVd5ougyd
p1623
I1
sVczbmx0u
p1624
I1
sVd2ftq5b
p1625
I1
sVd7tqnp9
p1626
I1
sVd03ty5w
p1627
I1
sVd98p8t6
p1628
I1
sVd10sh9h
p1629
I1
sVdmtusfm
p1630
I1
sVd4kxdqf
p1631
I1
sVd6vtsqx
p1632
I1
sVdkfg3ne
p1633
I1
sVcyt3sr1
p1634
I1
sVdgstsy7
p1635
I1
sVdfkgv3b
p1636
I1
sVd864276
p1637
I1
sVcymzoj8
p1638
I1
sVdoa74u6
p1639
I1
sVdgubrwf
p1640
I1
sVd69bfxv
p1641
I2
sVde8x7l4
p1642
I1
sVdidxpja
p1643
I1
sVdt4aigq
p1644
I1
sVdg7ecxs
p1645
I1
sVd2czide
p1646
I1
sVdii6vv5
p1647
I1
sVd7ql0g7
p1648
I1
sVd0rarwn
p1649
I1
sVdfbkkc3
p1650
I1
sVdjwh1h5
p1651
I1
sVcyzl65p
p1652
I1
sVcyljp66
p1653
I1
sVdtjgnor
p1654
I1
sVdex6l9a
p1655
I1
sVdbvhky5
p1656
I1
sVd16mlq1
p1657
I1
sVdkucwdf
p1658
I1
sVd69vxlb
p1659
I1
sVddfj3xe
p1660
I1
sVd2kbz3f
p1661
I1
sVczfmm2r
p1662
I1
sVdp9zght
p1663
I1
sVd1pbodu
p1664
I1
sVdilvtfn
p1665
I1
sVd9aph7g
p1666
I1
sVd8uh82v
p1667
I1
sVd179yju
p1668
I4
sVd0qlv38
p1669
I1
sVdqibf2w
p1670
I2
sVdmfdr60
p1671
I1
sVdilxz2b
p1672
I1
sVdercw69
p1673
I2
sVd2hbz2e
p1674
I1
sVd5pkdw8
p1675
I1
sVd013yto
p1676
I1
sVdp05aa1
p1677
I1
sVd0ur3ll
p1678
I1
sVd3gptxa
p1679
I1
sVdejasia
p1680
I1
sVdb11i0s
p1681
I1
sVderifwk
p1682
I1
sVdjrvytv
p1683
I1
sVd6qhgh6
p1684
I1
sVd115b5d
p1685
I1
sVcz97ew4
p1686
I1
sVdr73p35
p1687
I1
sVd8e1i63
p1688
I1
sVdryqeim
p1689
I1
sVd1j1de6
p1690
I1
sVd3bi9gb
p1691
I1
sVd9pf8z8
p1692
I1
sVd67q89y
p1693
I1
sVdpqs390
p1694
I1
sVd9xbq8r
p1695
I1
sVdokam4l
p1696
I1
sVd2eij5f
p1697
I1
sVdb2ek95
p1698
I1
sVdctzhdt
p1699
I1
sVdjvfrnh
p1700
I1
sVd4ourqj
p1701
I1
sVdc3fzes
p1702
I1
sVdbmy7c3
p1703
I1
sVdn4hgo4
p1704
I3
sVd806mk5
p1705
I1
sVdnxzuph
p1706
I1
sVdpbopww
p1707
I1
sVdf2e3pm
p1708
I1
sVde16v9u
p1709
I1
sVdd1e0ah
p1710
I1
sVdcl2idl
p1711
I2
sVdjmdudi
p1712
I1
sVdhn0vl4
p1713
I1
sVd150zfj
p1714
I2
sVdgtw4l6
p1715
I1
sVds6qt6k
p1716
I1
sVde06ytv
p1717
I1
sVdc89bxi
p1718
I1
sVcz2nj2e
p1719
I1
sVd3oltjr
p1720
I1
sVd78qmeh
p1721
I1
sVd8hjlug
p1722
I1
sVdbudi7u
p1723
I1
sVdfi6aeb
p1724
I2
sVdnznmpi
p1725
I2
sVd03fbby
p1726
I1
sVdo97dox
p1727
I1
sVdhseswy
p1728
I1
sVdjwxh2v
p1729
I1
sVdmzfklp
p1730
I1
sVdjs4fh5
p1731
I1
sVdq4m2do
p1732
I1
sVdnkcaeu
p1733
I1
sVd2ddlho
p1734
I1
sVdeieoat
p1735
I1
sVd75zhek
p1736
I1
sVdjgy76o
p1737
I1
sVdphlk2z
p1738
I1
sVd3fj7y2
p1739
I1
sVdenwlwp
p1740
I1
sVd5vzmfj
p1741
I1
sVd5x71tl
p1742
I1
sVczepygj
p1743
I1
sVd93a71k
p1744
I1
sVdb969t6
p1745
I1
sVdoeoaah
p1746
I1
sVdgbb7jr
p1747
I2
sVd3yzcff
p1748
I2
sVcyjhueb
p1749
I1
sVdifp4xf
p1750
I1
sVdf2l9mv
p1751
I1
sVdkn9xx2
p1752
I2
sVde5pesp
p1753
I1
sVd6tido0
p1754
I1
sVd3k7uyw
p1755
I1
sVd0n53vp
p1756
I1
sVd3miyer
p1757
I1
sVdaateew
p1758
I1
sVdkr23a0
p1759
I1
sVd116ga1
p1760
I1
sVdg46l4m
p1761
I1
sVd0178h6
p1762
I1
sVdel689v
p1763
I1
sVdpews0e
p1764
I4
sVd054xjx
p1765
I1
sVd8o4nt3
p1766
I1
sVdjzqpvb
p1767
I1
sVd59eppg
p1768
I1
sVdctuc62
p1769
I1
sVd03t6gl
p1770
I1
sVdkz02jb
p1771
I1
sVde5dmaw
p1772
I1
sVdqvhh0v
p1773
I1
sVd05qhjs
p1774
I1
sVdjmfe0r
p1775
I1
sVd7ai9hs
p1776
I1
sVde2k86b
p1777
I1
sVdnpe2m1
p1778
I2
sVdqc2dcg
p1779
I1
sVd7p87w1
p1780
I1
sVcytkk5u
p1781
I1
sVdkuzf4c
p1782
I1
sVderreb9
p1783
I1
sVd17qq0c
p1784
I1
sVdef54d0
p1785
I1
sVd312yvz
p1786
I1
sVcyjojzh
p1787
I1
sVd1m8vv7
p1788
I1
sVdnd9bmf
p1789
I1
sVdbczl9b
p1790
I1
sVdhq4uip
p1791
I1
sVdpqy0dp
p1792
I1
sVdboo17i
p1793
I1
sVdj8tm4f
p1794
I1
sVd83vf3y
p1795
I2
sVde89qng
p1796
I1
sVdfz0a3w
p1797
I1
sVd4jzwj0
p1798
I1
sVd9drw5r
p1799
I2
sVdo7n377
p1800
I1
sVdpyiyv5
p1801
I1
sVdhlxxm0
p1802
I1
sVdb3thph
p1803
I1
sVdc960pj
p1804
I1
sVd3xw8ic
p1805
I1
sVczolw7i
p1806
I1
sVcyls3zg
p1807
I1
sVd9xn4fe
p1808
I1
sVd6g6ppw
p1809
I1
sVdjikk20
p1810
I1
sVd3e2jfx
p1811
I1
sVcyse4t9
p1812
I1
sVd788bm1
p1813
I1
sVd5u8pt6
p1814
I1
sVd5n2w9x
p1815
I1
sVdncak7b
p1816
I1
sVd9kdsqy
p1817
I1
sVdfwqiuv
p1818
I1
sVczp4bil
p1819
I1
sVdn9xe2i
p1820
I1
sVd4wmgz4
p1821
I1
sVd8gwyml
p1822
I1
sVdb8h4ox
p1823
I1
sVdseudaw
p1824
I2
sVd1meaha
p1825
I1
sVd3f66ow
p1826
I3
sVddrk159
p1827
I1
sVdgwi52i
p1828
I1
sVdn5rg6n
p1829
I1
sVd7zx380
p1830
I2
sVdcbu5hk
p1831
I1
sVdc43fo7
p1832
I1
sVd48bo0k
p1833
I2
sVdmjx3ws
p1834
I2
sVd2rz6wp
p1835
I1
sVdp1t48i
p1836
I1
sVd8epupu
p1837
I1
sVczcpfuc
p1838
I1
sVd0ov47r
p1839
I1
sVd0utdwv
p1840
I1
sVd0bq017
p1841
I1
sVd3wwgqf
p1842
I1
sVd27l2qg
p1843
I1
sVd3enspe
p1844
I1
sVd6da61v
p1845
I1
sVdaodryc
p1846
I1
sVdmz6ps3
p1847
I1
sVdnbyrfl
p1848
I1
sVdft10z3
p1849
I1
sVdb5ooj3
p1850
I1
sVdmeu0em
p1851
I1
sVd016wol
p1852
I1
sVd11k2bg
p1853
I1
sVdrc5gkm
p1854
I1
sVd95s9nx
p1855
I1
sVdrtb6zr
p1856
I1
sVdnkqjc0
p1857
I2
sVdenwzcb
p1858
I1
sVczzetyi
p1859
I1
sVd06hsch
p1860
I1
sVdhd5na1
p1861
I1
sVd8oi4pi
p1862
I2
sVdgth923
p1863
I1
sVdeloqxd
p1864
I1
sVd95w7l2
p1865
I1
sVd4rfybt
p1866
I1
sVdkp4yot
p1867
I1
sVdbacey7
p1868
I1
sVd3fdj4g
p1869
I1
sVd19mapj
p1870
I2
sVdo9erdd
p1871
I1
sVdq2qy8x
p1872
I1
sVd2sah9v
p1873
I1
sVdfwtuvj
p1874
I1
sVdan8l6u
p1875
I1
sVcysnnku
p1876
I1
sVd442fyu
p1877
I1
sVdc2eub8
p1878
I3
sVdac55ui
p1879
I1
sVddmnlaw
p1880
I1
sVdrzvw5e
p1881
I1
sVd1al4n4
p1882
I1
sVd0zowd3
p1883
I1
sVd7ewli8
p1884
I1
sVcyr7k5h
p1885
I1
sVd3cgns5
p1886
I1
sVd393999
p1887
I1
sVddv6o5l
p1888
I3
sVd6mo2ut
p1889
I1
sVd43oj0h
p1890
I1
sVdj4oxwx
p1891
I1
sVddrs2tr
p1892
I1
sVdfgy9av
p1893
I1
sVd9ya6ws
p1894
I1
sVdq81cls
p1895
I1
sVdgh0fdi
p1896
I2
sVd0b5zrt
p1897
I1
sVdp1vxwo
p1898
I1
sVdtdd2mm
p1899
I1
sVdb5fg3r
p1900
I3
sVd9rd5tl
p1901
I1
sVd660zbw
p1902
I3
sVczxdq9v
p1903
I1
sVdrnsff2
p1904
I1
sVd0rghx4
p1905
I1
sVdkiiywu
p1906
I1
sVdfr8c3b
p1907
I1
sVcyt755e
p1908
I1
sVd5gyl1l
p1909
I1
sVd7mhzcs
p1910
I1
sVd8wi60p
p1911
I1
sVd6k44h3
p1912
I1
sVdfparug
p1913
I1
sVczoxg0c
p1914
I1
sVdrcab7d
p1915
I1
sVd6m4mxi
p1916
I1
sVdgby4fk
p1917
I1
sVdoortlg
p1918
I1
sVd4783qz
p1919
I1
sVdeqrdk1
p1920
I1
sVcyya4ne
p1921
I1
sVd72zbrm
p1922
I1
sVd1s9blr
p1923
I1
sVdagyzf2
p1924
I1
sVdd388rv
p1925
I1
sVdn3fo34
p1926
I1
sVdii9kn3
p1927
I1
sVcz4oioi
p1928
I1
sVczu4jk6
p1929
I1
sVdiv4xgz
p1930
I1
sVd1tp7i2
p1931
I1
sVdfng6na
p1932
I1
sVdgb173k
p1933
I1
sVd4f84dh
p1934
I2
sVdmeq5jw
p1935
I1
sVcyrloyw
p1936
I1
sVdpa9mkv
p1937
I1
sVcyuzl46
p1938
I1
sVdn5m7m4
p1939
I2
sVd6cbap6
p1940
I1
sVdqfyd57
p1941
I1
sVcyrqhu5
p1942
I1
sVd37aib7
p1943
I2
sVd4pho48
p1944
I1
sVd0cenqo
p1945
I1
sVcyinyw9
p1946
I1
sVd6envtl
p1947
I1
sVdrnsyrh
p1948
I1
sVdgfmvh8
p1949
I1
sVdg40b68
p1950
I1
sVd2imz27
p1951
I1
sVd0iibbh
p1952
I1
sVdhuzj8j
p1953
I2
sVdfceirq
p1954
I1
sVdbswcy3
p1955
I1
sVczhsggs
p1956
I1
sVd5x738z
p1957
I1
sVcyv8bgh
p1958
I1
sVd2e3zes
p1959
I4
sVd0ddr0f
p1960
I1
sVdg7zsxm
p1961
I1
sVdn8inod
p1962
I1
sVd0dakzd
p1963
I1
sVdgwrblp
p1964
I1
sVdfkajzx
p1965
I2
sVd05tyrv
p1966
I1
sVd598qtm
p1967
I1
sVd4mv9c5
p1968
I1
sVdo601vt
p1969
I1
sVcynva59
p1970
I1
sVd6vq03v
p1971
I1
sVdb5hjqu
p1972
I1
sVd3lqvxa
p1973
I2
sVdej8kow
p1974
I1
sVd8iewyt
p1975
I1
sVd79hdox
p1976
I2
sVd0qycw6
p1977
I1
sVd8xdku3
p1978
I1
sVd7u94mu
p1979
I1
sVdcu5o7c
p1980
I1
sVdf09a8l
p1981
I1
sVdh03z75
p1982
I1
sVcyjvpm6
p1983
I1
sVdeqw8n0
p1984
I1
sVdn7s066
p1985
I1
sVdmp1l48
p1986
I2
sVdfh5n2t
p1987
I1
sVdr3a40s
p1988
I1
sVd3poczt
p1989
I1
sVddnypct
p1990
I1
sVddb445b
p1991
I2
sVdcxg45q
p1992
I1
sVd5g8ydx
p1993
I1
sVdearrk8
p1994
I1
sVd2d7sjd
p1995
I1
sVdcxl8k2
p1996
I1
sVdg0ni62
p1997
I1
sVcymqhy0
p1998
I1
sVd1h4oci
p1999
I1
sVdbsrp7i
p2000
I2
sVd1t82qu
p2001
I1
sVczpv0yt
p2002
I1
sVd5c4skd
p2003
I1
sVd69mq9t
p2004
I1
sVd7l6ztc
p2005
I1
sVd45q2ct
p2006
I1
sVczaw9bp
p2007
I1
sVd86ot2l
p2008
I1
sVdezyi3j
p2009
I1
sVd1p2u05
p2010
I1
sVdb5aue1
p2011
I1
sVdt8ktll
p2012
I1
sVdg90t5n
p2013
I1
sVdfygbpr
p2014
I1
sVd6td3yn
p2015
I1
sVdfxsah7
p2016
I3
sVdr6u990
p2017
I1
sVd6fxuqi
p2018
I1
sVdo12s04
p2019
I2
sVdag2kl9
p2020
I1
sVd65qi2l
p2021
I1
sVdcb37uc
p2022
I1
sVde4j55n
p2023
I1
sVdg3wicg
p2024
I1
sVdijwtyc
p2025
I1
sVdh34wff
p2026
I1
sVd7usbqm
p2027
I1
sVd055q7l
p2028
I2
sVdbgz8ck
p2029
I1
sVdhab91c
p2030
I1
sVdkhspbu
p2031
I1
sVd1io33j
p2032
I1
sVcylhjq5
p2033
I1
sVdkjqp6c
p2034
I1
sVdt9kkft
p2035
I1
sVd9pezf8
p2036
I1
sVd40ssze
p2037
I1
sVddzuthi
p2038
I1
sVd9d94ol
p2039
I1
sVd3ej8vl
p2040
I1
sVdtb3o2l
p2041
I1
sVde0ka7o
p2042
I1
sVd9qi9wj
p2043
I1
sVcykmlpq
p2044
I1
sVdfqu76h
p2045
I1
sVdsvpsug
p2046
I1
sVd3i26wk
p2047
I1
sVdgxk550
p2048
I1
sVdg31ma2
p2049
I2
sVdakk807
p2050
I1
sVdpfhhhm
p2051
I1
sVdcp6py4
p2052
I1
sVd8bsd0v
p2053
I1
sVdf6awn0
p2054
I1
sVd8f8uk7
p2055
I1
sVd3cjae8
p2056
I1
sVd6ppfun
p2057
I1
sVczehrho
p2058
I1
sVdh4khlc
p2059
I1
sVd96mnp0
p2060
I1
sVd2bq9wu
p2061
I1
sVdetrehs
p2062
I1
sVdd4mbo7
p2063
I2
sVd0g3mpz
p2064
I1
sVd6elp9t
p2065
I1
sVdsf4wjm
p2066
I1
sVdh3k5mr
p2067
I1
sVd8nswvs
p2068
I1
sVd7p6h4a
p2069
I2
sVdfu5g4s
p2070
I3
sVd0xuwrw
p2071
I1
sVd017wxv
p2072
I1
sVd0hz48a
p2073
I1
sVdbnu26q
p2074
I1
sVd3nkhtn
p2075
I1
sVdfgjrxz
p2076
I1
sVcywntfr
p2077
I1
sVd7258nj
p2078
I1
sVdjimga5
p2079
I1
sVdox1jjp
p2080
I1
sVdbiid53
p2081
I1
sVd36oufs
p2082
I1
sVd2xxq28
p2083
I1
sVdp6avmc
p2084
I1
sVd054a08
p2085
I1
sVd2xcu4y
p2086
I1
sVdcy9ndf
p2087
I1
sVdganbb0
p2088
I1
sVdpdqu3n
p2089
I2
sVdexsrl2
p2090
I1
sVdfyasgl
p2091
I1
sVdcdgrko
p2092
I1
sVdi8on4l
p2093
I1
sVddzztry
p2094
I1
sVdnwv9xb
p2095
I1
sVdhcdidb
p2096
I1
sVdstc2b4
p2097
I1
sVdkhoza8
p2098
I1
sVdeekgie
p2099
I1
sVd2pks6n
p2100
I1
sVd8v24a5
p2101
I1
sVd1py9g1
p2102
I1
sVczjcllu
p2103
I1
sVd8xrkq0
p2104
I1
sVd6rnhhs
p2105
I1
sVd7rj2rs
p2106
I1
s.