(dp0
Vdiv1p7b
p1
I1
sVdhtis1n
p2
I1
sVdienc67
p3
I1
sVdfnmro2
p4
I1
sVdf605zh
p5
I1
sVdggswn5
p6
I1
sVdbjlqbj
p7
I1
sVdirgz4d
p8
I1
sVdmh3it9
p9
I1
sVdsfvbyu
p10
I1
sVdjt4hp5
p11
I1
sVd23kmc1
p12
I1
sVddjudnp
p13
I1
sVdb9j9k7
p14
I1
sVd69lnt4
p15
I1
sVdcspm0e
p16
I1
sVdas23jd
p17
I1
sVd0kx15n
p18
I1
sVdbrq4kb
p19
I1
sVdkqaany
p20
I1
sVdfrjwyc
p21
I1
sVdq6bu6l
p22
I2
sVdid7gaw
p23
I1
sVdi3h7v8
p24
I1
sVdnv8eg0
p25
I1
sVd0fn58f
p26
I1
sVd16wc1m
p27
I1
sVd1oy3o8
p28
I1
sVd0nvbi1
p29
I1
sVdecrt7z
p30
I1
sVddylqem
p31
I1
sVdqjxufw
p32
I1
sVdjgy76o
p33
I1
sVd1rhsgt
p34
I1
sVcyzd4p3
p35
I1
sVd9aqnph
p36
I1
sVdsctqq4
p37
I1
sVdpmi6ny
p38
I1
sVda30sw3
p39
I1
sVdbjg8zs
p40
I3
sVdgszrs0
p41
I1
sVddexkyt
p42
I1
sVdf7kwot
p43
I1
sVdgmobxf
p44
I1
sVczc2f62
p45
I1
sVdr8zsv6
p46
I1
sVcyppi7i
p47
I1
sVd2f60dj
p48
I2
sVdcm6gll
p49
I1
sVdj0pr76
p50
I1
sVd1h7q5j
p51
I1
sVdaz95o8
p52
I1
sVd8f493u
p53
I1
sVcypf2zz
p54
I2
sVdf60pt5
p55
I2
sVdehfu8p
p56
I1
sVd0y44nd
p57
I1
sVd3d1sz9
p58
I1
sVdan2fs0
p59
I1
sVczjq4la
p60
I1
sVd01ay65
p61
I1
sVdml5mdc
p62
I1
sVdgujyqa
p63
I1
sVddoeee1
p64
I1
sVd4mjmez
p65
I1
sVdkeypa9
p66
I1
sVczccq5u
p67
I1
sVdbp99ip
p68
I1
sVd7ea2qy
p69
I1
sVd9cgxsp
p70
I1
sVd7jb9gz
p71
I1
sVdh38bcb
p72
I1
sVcyy79bc
p73
I1
sVday3r3b
p74
I1
sVd36yv2a
p75
I1
sVd5qklh5
p76
I1
sVddj9by3
p77
I1
sVd7uj2js
p78
I1
sVd46on3l
p79
I1
sVdg0z7h2
p80
I1
sVdk35enc
p81
I2
sVd7s8ro8
p82
I1
sVd67t4iq
p83
I1
sVczrffd2
p84
I1
sVd3nmhb5
p85
I1
sVdgk301w
p86
I1
sVdn7uipo
p87
I1
sVdb0fosj
p88
I1
sVdmr711l
p89
I1
sVd97j6o0
p90
I1
sVd564qg1
p91
I1
sVdowytsh
p92
I1
sVd3jv7vw
p93
I1
sVd23gdcy
p94
I1
sVdmoj05g
p95
I1
sVd61stq4
p96
I1
sVcz76orz
p97
I1
sVd19oah9
p98
I1
sVdbkh8hw
p99
I1
sVdrcsmq7
p100
I1
sVdfrk934
p101
I3
sVd162kjd
p102
I1
sVd5lverb
p103
I1
sVdfafkcw
p104
I1
sVd66oqcx
p105
I1
sVd5ftnsk
p106
I1
sVd2w6fxd
p107
I1
sVd7rfyhl
p108
I1
sVdety052
p109
I1
sVdg6xavq
p110
I1
sVd08pjtn
p111
I1
sVd957m10
p112
I1
sVd65mwsx
p113
I1
sVdptnc5u
p114
I1
sVdp5dkbt
p115
I1
sVdjdmull
p116
I1
sVdmr87ld
p117
I1
sVd0fn12f
p118
I1
sVdglbmmt
p119
I1
sVd5p6dmk
p120
I1
sVdqc3dpq
p121
I1
sVdgu239u
p122
I1
sVdkjfwrf
p123
I1
sVd35q9gf
p124
I1
sVdpduv8w
p125
I1
sVd5j04y7
p126
I1
sVd12c17q
p127
I1
sVdcz0r3a
p128
I1
sVd65wu1w
p129
I1
s.