(dp0
Vd2i4no8
p1
I1
sVdhcs1ld
p2
I1
sVda9x8bi
p3
I2
sVdhfc822
p4
I1
sVdnat6ir
p5
I1
sVdae1ast
p6
I1
sVddse65y
p7
I1
sVdq14r0o
p8
I1
sVdd0mkn2
p9
I1
sVd9yvs4h
p10
I1
sVczj4a63
p11
I1
sVdjmhyys
p12
I1
sVd73z67n
p13
I1
sVd4ukgc3
p14
I1
sVdfcfmed
p15
I1
sVdc0jqj0
p16
I1
sVdetdhcj
p17
I1
sVdjm6yas
p18
I1
sVdk262n1
p19
I1
sVdfaxnaf
p20
I1
sVd31fr54
p21
I1
sVdbjralv
p22
I1
sVdd0l4sj
p23
I1
sVdipmb6c
p24
I1
sVd4pjf61
p25
I1
sVdb3k2r2
p26
I1
sVd38np77
p27
I2
sVdtiolsz
p28
I1
sVd0s0ads
p29
I1
sVdit752m
p30
I1
sVdjks9df
p31
I1
sVdqgmnpn
p32
I1
sVd4vpip2
p33
I1
sVdkkm1y8
p34
I1
sVdg8rion
p35
I1
sVd0ofor5
p36
I1
sVd5vlrol
p37
I1
sVdgrzgte
p38
I1
sVdc8ogpa
p39
I1
sVddjebbe
p40
I1
sVdt2h4t1
p41
I1
sVdci2pub
p42
I1
sVd9fj412
p43
I1
sVdgzhkq3
p44
I1
sVd734fnr
p45
I1
sVdcvtn1a
p46
I1
sVd1xz6bd
p47
I1
sVd7z3g82
p48
I1
sVcyvpidb
p49
I1
sVd3rxig0
p50
I2
sVdj27c8g
p51
I1
s.