(dp0
Vdkz4iaq
p1
I2
sVdhkc3z8
p2
I1
sVd8bwu4i
p3
I1
sVd04e8gh
p4
I1
sVdshpv1w
p5
I1
sVde6p7hg
p6
I1
sVd5iygse
p7
I1
sVd33t31o
p8
I2
sVcz6w61t
p9
I2
sVdkqv475
p10
I2
sVda5ncnp
p11
I1
sVd6i0rn0
p12
I3
sVd5hx1p8
p13
I1
sVdeq9ghc
p14
I1
s.