(dp0
Vd0gqyd6
p1
I1
sVd62noof
p2
I1
sVd1mebia
p3
I1
sVd80itcq
p4
I1
sVddxgj90
p5
I1
sVdel5hih
p6
I1
sVdd5qjk9
p7
I1
sVddkdvxy
p8
I1
sVdbnt3t8
p9
I1
sVdhguegr
p10
I1
sVczr0r8e
p11
I1
sVdhka2f7
p12
I1
sVdghgr5k
p13
I1
sVdc2nyps
p14
I1
sVdi29rnn
p15
I1
sVd4estjj
p16
I1
sVd3z118t
p17
I1
sVdr7rg0m
p18
I1
sVd080d59
p19
I4
sVdjzt4ac
p20
I1
sVdii2tzr
p21
I1
sVd1umh6l
p22
I1
sVd40sro8
p23
I1
sVczx1zq6
p24
I2
sVdenul3i
p25
I1
sVdejm1ez
p26
I1
sVd35elyk
p27
I1
sVdo8450b
p28
I1
sVd4i16lu
p29
I1
sVdg8pfxy
p30
I1
sVdr1ba1j
p31
I1
sVdccqo0e
p32
I1
sVdmocb7l
p33
I1
sVdgplx5v
p34
I1
sVdadejsl
p35
I1
sVd72kwu4
p36
I1
sVd5cwi5n
p37
I1
sVdiiq3ce
p38
I1
sVd14sb85
p39
I1
sVd449auu
p40
I1
sVd3sctbb
p41
I1
sVd4rv81o
p42
I1
sVdaugn6i
p43
I1
sVd30zk4w
p44
I1
sVdaqg7bh
p45
I1
sVdfnhhfg
p46
I1
sVdnxzyty
p47
I1
sVd198u8c
p48
I1
sVd1o51gg
p49
I1
sVd1dzyz9
p50
I1
sVdam5e7t
p51
I2
sVdcwa2by
p52
I1
sVd38592i
p53
I1
sVd0ha4zz
p54
I1
sVde8pnyk
p55
I1
sVd1oy3o8
p56
I1
sVd7mypvm
p57
I1
sVd5qv111
p58
I1
sVd6mdii4
p59
I1
sVczvxx4e
p60
I2
sVdapyijs
p61
I1
sVcypk55y
p62
I1
sVd9r5s26
p63
I1
sVdb3uvig
p64
I1
sVd99mpu8
p65
I1
sVd4gq1xi
p66
I1
sVd5el7p6
p67
I1
sVd3fexif
p68
I2
sVdcfpitr
p69
I1
sVd5mmpb9
p70
I2
sVdfve8ri
p71
I2
sVd7eefz9
p72
I1
sVdqh8ai6
p73
I1
sVd044n96
p74
I1
sVd3o2fd7
p75
I1
sVdhsbva8
p76
I1
sVcz2phc1
p77
I1
sVd0icsj3
p78
I1
sVd8wsbll
p79
I1
sVdfzwp4g
p80
I1
sVdcungzc
p81
I1
sVd8ap5kw
p82
I1
sVdjupe67
p83
I1
sVd1xrk62
p84
I1
sVdkfyt4u
p85
I1
sVd6ozd0w
p86
I1
sVdr5bau8
p87
I1
sVdmvcb39
p88
I1
sVdgauljp
p89
I1
sVdhh6hs4
p90
I1
sVd7pbfj0
p91
I4
sVdbgqpfm
p92
I1
sVd0h1kis
p93
I1
sVd1bz7fp
p94
I1
sVde316xv
p95
I1
sVdobdws2
p96
I1
sVdeunxqe
p97
I1
sVdnj8sw2
p98
I1
sVcyiigut
p99
I1
sVdt7he9p
p100
I1
sVd9t71ph
p101
I1
sVd5a048w
p102
I1
sVd47uoh8
p103
I1
sVdje6z1v
p104
I1
sVczopy5s
p105
I1
sVdchtah5
p106
I1
sVd5rgico
p107
I1
sVcyojnxi
p108
I1
sVd2xdosw
p109
I1
sVddcyjfe
p110
I1
sVda6xisl
p111
I1
sVd3df8i0
p112
I1
sVdh3im4b
p113
I1
sVdbh5cgm
p114
I1
sVd1tdsjw
p115
I1
sVd32hbe2
p116
I1
sVd8vcoze
p117
I1
sVd035bni
p118
I1
sVd4gxyxn
p119
I1
sVd1s9kuf
p120
I1
sVdbirzkb
p121
I1
sVd6hdjpc
p122
I1
sVdfi2m9z
p123
I2
sVd3i3tsp
p124
I1
sVd0p4y5t
p125
I1
sVdf1v0xt
p126
I2
sVd42b1m2
p127
I1
sVdi5cm8c
p128
I1
sVdnklvvx
p129
I1
sVd5qll5g
p130
I1
sVde8tx9v
p131
I1
sVdq3zmnd
p132
I2
sVd9mrjyi
p133
I1
sVdrq5n1c
p134
I1
sVd3lftdz
p135
I1
sVddgv0ag
p136
I1
sVd8v3u3s
p137
I1
sVd0ylw1b
p138
I1
sVcyncrcb
p139
I1
sVdd4yh6b
p140
I1
sVdfo685r
p141
I1
sVdsr13yu
p142
I1
sVdn1bed7
p143
I2
sVdfymsp4
p144
I1
sVd01cd2b
p145
I1
sVd095gcb
p146
I1
sVdj9knxz
p147
I1
sVd4y5bwj
p148
I1
sVdnj406w
p149
I1
sVd4dj043
p150
I1
sVd3f5zau
p151
I1
sVczjb0gv
p152
I1
sVdgobqaw
p153
I1
sVdfal6d9
p154
I1
sVd0oo4u9
p155
I2
sVdh7brjc
p156
I1
sVdd5f1cc
p157
I1
sVdbdtmx0
p158
I1
sVczd8956
p159
I1
sVd6t8vvr
p160
I1
sVdnkich1
p161
I1
sVd9nbjva
p162
I1
sVdcml4ke
p163
I1
sVdgabz2a
p164
I1
sVd9txzjy
p165
I1
sVdg0dh1s
p166
I1
sVdfis0qk
p167
I1
sVczu0v8n
p168
I1
sVdhp6tqn
p169
I1
sVczr0rgv
p170
I1
sVd91ifql
p171
I1
sVdn10tca
p172
I2
sVdcp4vm6
p173
I1
sVcykf0d4
p174
I1
sVd080bfp
p175
I1
sVd1aenlu
p176
I1
sVd9n0xg3
p177
I1
sVdfr3t53
p178
I1
sVdj8o9mr
p179
I1
sVd5dov81
p180
I1
sVdpi1np6
p181
I1
sVd2qr79o
p182
I1
sVdhw771n
p183
I1
sVdjk5kzr
p184
I1
sVddi35fe
p185
I1
sVdgiinr0
p186
I1
sVdclpanu
p187
I1
sVd15nxia
p188
I2
sVd5szr4l
p189
I1
sVdpx0pfp
p190
I1
sVd7qffba
p191
I1
sVda03g02
p192
I1
sVdcydjr2
p193
I1
sVczcykdg
p194
I1
sVd9kzgdx
p195
I1
sVdpkh4lr
p196
I1
sVddwojo5
p197
I1
sVd9yz12h
p198
I1
sVcyld3e5
p199
I1
sVdf2f3qs
p200
I2
sVdiwboiv
p201
I1
sVd78qvy4
p202
I1
sVdj30gk7
p203
I1
sVdcpt4zq
p204
I1
sVdilhmvo
p205
I1
sVdhlu13g
p206
I1
sVd3orqf8
p207
I1
sVdbq6hds
p208
I1
sVdgqjsis
p209
I1
sVdfknp9d
p210
I1
sVdduqq0l
p211
I1
sVd0p4vte
p212
I1
sVd0pvkgm
p213
I1
sVdi24lhs
p214
I2
sVdny54j6
p215
I1
sVdeopixp
p216
I1
sVdgc2qp3
p217
I1
sVd649f1n
p218
I1
sVd76afs9
p219
I1
sVddxegw9
p220
I1
sVdejhhhb
p221
I1
sVdgx3nxv
p222
I1
sVdhhlftx
p223
I1
sVdbw8au7
p224
I1
sVd1v3j9v
p225
I1
sVdj5azqx
p226
I1
sVdj3iojt
p227
I1
sVdca9w4p
p228
I1
sVdcpmtlz
p229
I1
sVd6j5ge4
p230
I1
sVd3bja4m
p231
I1
sVd52fytn
p232
I1
sVd0snk9f
p233
I1
sVddsjv95
p234
I1
sVcz7sn40
p235
I1
sVd9qfe8g
p236
I1
sVd9tr7hk
p237
I1
sVd8jh7op
p238
I1
sVdawnghw
p239
I1
sVd4vvcak
p240
I1
sVdnp5aye
p241
I1
sVdejeo00
p242
I1
sVd25uvnh
p243
I1
sVcyipvz4
p244
I1
sVd2uc2h1
p245
I1
sVdicrhno
p246
I1
sVddgk1w2
p247
I1
sVdgy2ghv
p248
I1
sVd0tglmk
p249
I3
sVdhvkbpw
p250
I1
s.