(dp0
Vdsnw3lr
p1
I1
sVdiroe5p
p2
I1
sVdmmlrbj
p3
I1
sVdabe0qs
p4
I1
sVcysbqfb
p5
I1
sVdhb6ern
p6
I3
sVd9ctsrm
p7
I1
sVdgg2wg1
p8
I1
sVdg991gr
p9
I1
sVdbw6836
p10
I1
sVd76hosn
p11
I1
sVdjfhon8
p12
I1
sVdfgu1ql
p13
I2
sVdjnkd15
p14
I1
s.