(dp0
Vddjypym
p1
I1
sVd0ipizj
p2
I1
sVd8rku7r
p3
I1
sVdknub6d
p4
I1
sVd6036ay
p5
I1
sVd144yuo
p6
I4
sVd3v4525
p7
I1
sVd39540x
p8
I1
sVd3symk9
p9
I1
sVdcax41j
p10
I1
sVdcb4spo
p11
I1
sVd3mwtt9
p12
I3
sVdhss6d2
p13
I1
sVdc5irdo
p14
I1
sVdnhd8yy
p15
I1
sVd458b0g
p16
I1
sVd3qh3yh
p17
I1
sVd0t4xjt
p18
I1
sVd97hzqm
p19
I1
sVdfk445q
p20
I1
sVdcb7cde
p21
I1
sVdcufygo
p22
I1
sVd8qrc62
p23
I1
sVde81eg0
p24
I1
sVdfk313b
p25
I1
sVd01ay65
p26
I1
sVda5rh11
p27
I1
sVd37huzy
p28
I1
sVd8jb9fi
p29
I1
sVcz55pxx
p30
I1
sVdh5xs5v
p31
I1
sVdefpb34
p32
I1
sVdfknrjn
p33
I1
sVdk8ebm7
p34
I1
sVdfk33bh
p35
I1
sVczorwm1
p36
I1
s.