(dp0
Vdsn2by7
p1
I1
sVdmepxto
p2
I1
sVdqml8e1
p3
I1
sVdcadl8v
p4
I1
sVdndghgs
p5
I1
sVdboubp2
p6
I1
sVdmeqz9l
p7
I2
sVdbc8uj3
p8
I1
sVdrte0if
p9
I1
sVdgfjjyt
p10
I1
sVdnb1wuk
p11
I1
sVdgaffpf
p12
I1
sVd7twepw
p13
I1
sVda6yuws
p14
I1
sVd3n7h6n
p15
I2
sVd9wyz4c
p16
I1
sVdofp4tl
p17
I3
sVcz1noh7
p18
I1
sVdhbtf0r
p19
I1
sVd5spyuj
p20
I1
sVd1semd5
p21
I1
sVd7vxo3g
p22
I1
sVd13hfeu
p23
I5
sVda6zc33
p24
I1
sVd7jsobd
p25
I1
sVda6vpu6
p26
I1
sVczf6ced
p27
I1
sVdeisyw3
p28
I2
sVdhucfsp
p29
I1
sVd1mww6n
p30
I1
sVdevyq5b
p31
I1
sVd2wr8b4
p32
I1
sVdo3fu5j
p33
I1
sVdi6lnir
p34
I1
sVd2apjfn
p35
I1
sVdcjyq9u
p36
I1
sVddo27si
p37
I4
sVdeh94pd
p38
I1
sVd01ggno
p39
I1
sVdfa2a1k
p40
I2
sVdiazqow
p41
I1
sVdek7mj6
p42
I1
sVd5vq3wc
p43
I1
sVd8qujww
p44
I1
sVd7h6gyg
p45
I1
sVczglfts
p46
I1
sVdc6usmu
p47
I3
sVczdc9s0
p48
I3
sVd6hm86h
p49
I3
sVdj8ldk5
p50
I1
sVcz7hrbl
p51
I1
sVdenn5u8
p52
I1
sVdbv2330
p53
I2
sVdglpfv6
p54
I2
sVdb241b1
p55
I1
sVdr7xibn
p56
I1
sVdnb1az1
p57
I1
sVdgaf6g1
p58
I1
sVddo25db
p59
I1
sVd8qeheq
p60
I2
sVd158sfm
p61
I1
sVdq3ez5z
p62
I1
s.