(dp0
Vd98rmt3
p1
I1
sVdptsjiv
p2
I1
sVdqdu4o3
p3
I1
sVddvua6j
p4
I1
sVdb32aw2
p5
I1
sVdh39sih
p6
I1
sVd3r1ykv
p7
I1
sVdfu9dtk
p8
I2
sVdcc8wyl
p9
I1
sVdkgh5v2
p10
I1
sVdt0hvxx
p11
I1
sVd23t0bq
p12
I1
sVcyvvcr1
p13
I1
sVdqg7zeq
p14
I1
sVdeh4yzv
p15
I1
sVczg15q5
p16
I2
sVdf8etbm
p17
I1
sVd8mctnc
p18
I1
sVd7oeldg
p19
I1
sVdefe5mf
p20
I1
sVdh37f89
p21
I1
sVcz4szvd
p22
I2
sVdapjcun
p23
I1
sVd15dlsw
p24
I1
sVdecnfnk
p25
I1
sVdmscp45
p26
I4
sVdr0nbta
p27
I1
sVdkplnn4
p28
I1
sVd7nqzhr
p29
I1
sVd199b8v
p30
I1
sVd2dizbj
p31
I1
sVdae2ff0
p32
I1
sVdjrnjk7
p33
I1
sVcz4ar6s
p34
I1
sVcymo8g8
p35
I1
sVd9xjv87
p36
I1
s.