(dp0
Vdqodbde
p1
I1
sVd52zdyq
p2
I2
sVdgl5ywb
p3
I1
sVd2eybsi
p4
I1
sVdq0xcj2
p5
I1
sVdg944bk
p6
I1
sVd3fd92l
p7
I1
sVd6fdg36
p8
I1
sVd25wc5a
p9
I1
sVd85qwa8
p10
I1
sVdjcnrod
p11
I1
sVd2kd855
p12
I1
sVdn9uzj6
p13
I1
sVd0r8lnt
p14
I1
sVdc90926
p15
I1
sVdcey97i
p16
I1
sVd1p1p24
p17
I1
sVdoiabcl
p18
I1
sVdq3torq
p19
I1
sVdkm9cny
p20
I1
sVdc0c1uv
p21
I1
sVd111f93
p22
I1
sVcymz58g
p23
I1
sVds20w40
p24
I2
sVdex01oc
p25
I1
sVd30lwdg
p26
I1
sVdfwl1qs
p27
I1
sVdbum4dj
p28
I1
sVdah0pid
p29
I1
sVdftmsq2
p30
I1
sVd6czwnt
p31
I1
sVdhnbsf1
p32
I1
sVd6njlx0
p33
I1
sVdmve9tk
p34
I1
sVdg93gdt
p35
I2
sVd42f7wl
p36
I1
sVdcep0du
p37
I1
sVd0fhb44
p38
I1
sVd8dohsc
p39
I1
sVd69707b
p40
I1
sVdbgn7zq
p41
I1
sVdf19srw
p42
I1
sVdsogoe9
p43
I1
sVd0esyq9
p44
I1
sVd6x7g3g
p45
I3
sVdti33td
p46
I1
sVdio4t8q
p47
I1
sVczn9qb9
p48
I1
sVdmg3w38
p49
I1
sVcywmu0k
p50
I1
sVdkvrxuv
p51
I1
sVdneo06i
p52
I1
sVdmtu5ef
p53
I2
sVdhjeyyp
p54
I1
sVdc7b0sh
p55
I1
sVdi359dz
p56
I1
sVdcm6lb9
p57
I1
sVdfpypho
p58
I1
sVda1nx7f
p59
I1
sVcztqor3
p60
I1
sVdewdxxx
p61
I1
sVd0czqtg
p62
I1
sVd1cb2wy
p63
I1
sVd9y9220
p64
I1
sVd7jk5lj
p65
I1
sVdcugwdd
p66
I1
sVcyktywf
p67
I1
sVdk809xl
p68
I1
s.