(dp0
Vdixlg5h
p1
I1
sVdfx0n5f
p2
I1
sVdb5jblk
p3
I4
sVdax2kgq
p4
I1
sVdkqaany
p5
I1
sVdd05p2e
p6
I3
sVd2f8is7
p7
I1
sVd009juk
p8
I1
sVd38xh1k
p9
I1
sVcysfvsn
p10
I1
sVczia33l
p11
I2
sVdnq5e5m
p12
I1
sVdh38bcb
p13
I1
sVd0i7wbi
p14
I1
sVdji0fw1
p15
I1
s.