(dp0
Vd5zrd37
p1
I2
sVd3nalin
p2
I1
sVd310joq
p3
I1
sVd24a64n
p4
I1
sVd5zlwso
p5
I6
sVdizcxtj
p6
I2
sVd2kvygw
p7
I3
sVd3bfxdx
p8
I1
sVd5zlw0b
p9
I7
sVd0tze3y
p10
I1
sVdfqvfqt
p11
I1
sVd00xzfm
p12
I1
sVd310lal
p13
I1
sVd2kv9oz
p14
I3
sVd3bf5qk
p15
I1
sVde6f4xz
p16
I1
sVd5zpqn1
p17
I1
sVdmtvbj1
p18
I1
sVd3n5q6v
p19
I5
sVd5zz867
p20
I4
sVd60bivo
p21
I1
sVd5zpg72
p22
I1
sVdpzkuvy
p23
I1
sVd9higi6
p24
I1
s.