(dp0
Vdimuzu2
p1
I1
sVdd0yxit
p2
I2
sVd363paz
p3
I1
sVdgtpocm
p4
I1
sVdobhcat
p5
I1
sVdbewrk3
p6
I1
sVdasrutp
p7
I1
sVd1m0gf9
p8
I1
sVcyzj8cw
p9
I1
sVdore3vf
p10
I1
sVdechxeu
p11
I1
sVd8qb3cu
p12
I2
sVdehmr6k
p13
I1
sVdjml9v3
p14
I6
sVczxin80
p15
I1
sVddayrep
p16
I1
sVd6qiuji
p17
I1
sVdbvmw05
p18
I1
sVdj1czv6
p19
I1
s.