(dp0
Vde3isnd
p1
I1
sVddc92po
p2
I1
sVdiqpkqi
p3
I1
sVd1fjl8f
p4
I2
sVdcrpt2a
p5
I2
sVd22u7pn
p6
I1
sVdmtt1l3
p7
I1
sVdr3hp2w
p8
I1
sVd04fp26
p9
I1
sVd6wkxch
p10
I1
sVda3ms0f
p11
I1
sVdar8zft
p12
I1
sVdczjtve
p13
I1
sVd4s7m14
p14
I1
sVd8kj0tv
p15
I2
sVdqg7i4c
p16
I1
sVdr3dncx
p17
I3
s.