(dp0
Vdha459t
p1
I1
sVdpem8qe
p2
I1
sVcz782ha
p3
I1
sVd1d4ikh
p4
I1
sVdcbokmt
p5
I1
sVd96xzu0
p6
I1
sVd4mly9g
p7
I1
sVdbnncut
p8
I1
sVd5icivk
p9
I1
sVddkg7z1
p10
I1
sVd0gg2ly
p11
I1
sVdcl262v
p12
I1
sVdell1c9
p13
I1
sVdnodfps
p14
I1
sVdp2vgqb
p15
I1
sVdcsz32f
p16
I1
sVcyzlo81
p17
I1
sVdajkdv3
p18
I1
sVd3jcphq
p19
I1
sVdd55bnw
p20
I2
sVdgd14l2
p21
I2
sVczxsbzk
p22
I1
sVczw36k9
p23
I1
sVdaubl7y
p24
I1
sVdk8e35u
p25
I1
sVd9ics07
p26
I1
sVdbm90pv
p27
I1
sVd97whm9
p28
I1
sVd5vvvno
p29
I1
sVdc0fnrw
p30
I1
sVdaf62tu
p31
I1
sVd3yk1yc
p32
I1
sVd0j8h32
p33
I1
sVd2ftwlz
p34
I1
sVd0zr6ke
p35
I1
sVd5nlsqr
p36
I1
sVd3arxau
p37
I1
sVd7i5046
p38
I1
sVd7cpogb
p39
I1
sVcz4kjss
p40
I1
sVcyycrq9
p41
I1
sVdnrn3aj
p42
I1
sVdc11z14
p43
I1
sVdiy1zq3
p44
I1
sVdmv91mv
p45
I1
sVd23y9ej
p46
I1
sVdj4dcew
p47
I1
sVczt648g
p48
I1
sVd66ottj
p49
I1
sVd2k9pg3
p50
I1
sVdnomuss
p51
I1
sVd0hx7j8
p52
I1
sVd2gpw37
p53
I1
sVd570k1j
p54
I1
sVcztgzvj
p55
I1
sVdd3mwlp
p56
I1
sVdfiz7dc
p57
I1
sVd5u7341
p58
I1
sVdf4rtvc
p59
I1
sVd3jq3ge
p60
I1
sVd0sosnq
p61
I1
sVd0d3ni7
p62
I1
sVdd78l1q
p63
I1
sVczoul3o
p64
I1
sVczkvkc3
p65
I1
sVdfuyb4j
p66
I6
sVd711vm1
p67
I1
sVd4yzkmu
p68
I1
sVdj2eiuu
p69
I2
sVdj1pfiq
p70
I1
sVcyirutb
p71
I1
sVd3o8sq8
p72
I1
sVcyiv90p
p73
I1
sVdq6f4ez
p74
I1
sVd2onzwa
p75
I1
sVdd1i39r
p76
I1
sVcz4mmnr
p77
I1
sVdey79d8
p78
I1
sVdbujskn
p79
I2
sVd6yu8qi
p80
I1
sVdk3bnbx
p81
I3
sVd2h3aep
p82
I1
sVd0w26z5
p83
I1
sVd7unrlu
p84
I2
sVdixhuqj
p85
I1
sVcyrkghk
p86
I1
sVdsw3itg
p87
I1
sVd049vlk
p88
I1
sVd6rjnsh
p89
I1
sVd0epek9
p90
I1
sVdnsqbij
p91
I1
sVd69fc6w
p92
I1
sVdmoei1c
p93
I1
sVdif1tvu
p94
I1
sVd1yocfu
p95
I1
sVd68gjsd
p96
I1
s.