(dp0
Vdjpz5s7
p1
I2
sVdmqqwz9
p2
I2
sVdnj7415
p3
I1
sVdjsshwi
p4
I1
sVdd82ps0
p5
I1
sVdk7ckb5
p6
I2
sVdgn5vf2
p7
I1
sVderdc2y
p8
I1
sVd1u6ifi
p9
I2
sVdj4mk50
p10
I2
sVcz85qfc
p11
I1
sVdgn5tij
p12
I2
sVdpu1ciy
p13
I1
sVdob4pk7
p14
I1
sVd4vsvn7
p15
I4
sVdjp4rr6
p16
I1
sVd2ihaw4
p17
I1
sVcynlisd
p18
I1
sVdo7wu3k
p19
I1
sVdgtr6dg
p20
I1
sVd4sky9u
p21
I1
sVdd5hk0j
p22
I1
sVdc9q7qu
p23
I1
sVdjssig0
p24
I1
s.