(dp0
Vdpy64zz
p1
I1
sVdbnclmf
p2
I1
sVd12gn3q
p3
I1
sVdbe908u
p4
I2
sVd5rhfr0
p5
I1
sVd5redtv
p6
I1
sVd9zhghq
p7
I1
sVdef4me3
p8
I1
sVd25im42
p9
I2
sVdadfnxe
p10
I1
sVd4i16lu
p11
I1
sVdbe6uek
p12
I1
sVd87f2p0
p13
I1
sVdijodo7
p14
I1
sVdeaqiuf
p15
I1
sVdi70r3f
p16
I1
sVdb6vop8
p17
I2
s.