(dp0
Vdev9wmr
p1
I1
sVdaunyug
p2
I1
sVcynfluc
p3
I1
sVdk29aqj
p4
I1
sVd95g3oj
p5
I1
sVd2698ht
p6
I1
sVdb4z9nt
p7
I1
sVd9hggdl
p8
I1
sVczl7xug
p9
I1
sVd1bxu1u
p10
I1
sVcziiqp1
p11
I1
sVd9bqnxm
p12
I1
sVdgfyfpj
p13
I1
sVda1c7zk
p14
I1
sVdelxjyh
p15
I1
sVdfvkf72
p16
I1
sVdarv6nq
p17
I1
sVd4w0ndl
p18
I2
sVd2aobgr
p19
I1
sVdckm9ou
p20
I1
sVd9blss9
p21
I1
sVdd9i7fl
p22
I1
sVd0w789t
p23
I1
sVd30qp1f
p24
I1
sVcynrw6a
p25
I1
sVdchtah5
p26
I1
sVd8yy75b
p27
I1
sVdhctc6p
p28
I1
sVd13bxs3
p29
I1
sVd3pbraa
p30
I1
sVdgt54se
p31
I1
sVd3r8uui
p32
I1
sVdmtegi7
p33
I1
sVd1ibo2x
p34
I1
sVdgom8kl
p35
I1
sVd631n55
p36
I1
sVdch0ncz
p37
I1
sVddzmoqo
p38
I1
sVdmqps1l
p39
I1
sVdbiet6v
p40
I1
sVdcewhkj
p41
I1
sVdfye55b
p42
I1
sVdc8s1so
p43
I1
sVdccarid
p44
I1
sVd6zl8kd
p45
I1
sVd4okkyg
p46
I1
sVdeudajf
p47
I1
sVd1d845t
p48
I1
sVdhojs2u
p49
I1
sVddrhvin
p50
I1
sVdjhbna9
p51
I1
sVddc7ozf
p52
I1
sVd178dfu
p53
I1
sVd3r3m3p
p54
I1
sVd1a02uz
p55
I1
sVdfy2dha
p56
I1
sVdcyusil
p57
I1
sVd53ftpc
p58
I1
sVdgb2092
p59
I1
sVdnrqyvy
p60
I1
sVdcxffu5
p61
I1
sVdnvse33
p62
I1
sVdck5evg
p63
I1
sVdkwou3m
p64
I1
sVdf03s6z
p65
I1
sVdmvai6c
p66
I1
sVd7gpohe
p67
I1
sVdch1agh
p68
I1
sVd7ge353
p69
I1
sVdc8yoal
p70
I1
sVdeqx2vo
p71
I1
sVd0fn12f
p72
I1
sVdel1ld8
p73
I1
sVdj3wy2y
p74
I1
sVd2f36fx
p75
I1
sVdc9l6oj
p76
I1
sVdfb51s5
p77
I1
sVd0flzef
p78
I2
sVdmuwo1o
p79
I1
sVde93mv6
p80
I1
sVd2ah8u6
p81
I1
sVd8fnso2
p82
I1
sVd58jzom
p83
I1
sVdi8r17z
p84
I1
sVczth7qp
p85
I1
sVcyqcko8
p86
I2
sVd13d758
p87
I1
sVd5sbeke
p88
I1
sVd4ofl7m
p89
I1
s.