(dp0
Vd1z2un5
p1
I2
sVd0mqs5j
p2
I1
sVd95mrvg
p3
I1
sVd4v2m61
p4
I1
sVczqg9rr
p5
I1
sVd1wvcw8
p6
I1
sVd4g7s7s
p7
I1
sVczxenb2
p8
I1
sVd40wheq
p9
I1
sVds0k2ix
p10
I1
sVd8w4fop
p11
I1
sVdfy0naj
p12
I4
sVd2y0psi
p13
I1
sVd3u5uak
p14
I1
sVd62pbyt
p15
I1
sVd32udxx
p16
I2
sVdrddbsd
p17
I1
sVdapefa0
p18
I1
sVdgs5ppg
p19
I1
sVd7y4duj
p20
I1
sVdg6d68a
p21
I1
sVd94azlw
p22
I1
sVd6290wf
p23
I1
sVd94tk97
p24
I1
sVd0fpokr
p25
I2
sVddpksgn
p26
I2
sVd6c06j8
p27
I1
sVde3j9je
p28
I2
sVdfd9eqx
p29
I2
sVdq19xu0
p30
I2
sVddxfg57
p31
I1
sVdmpvdwl
p32
I1
sVcyrkdbw
p33
I1
sVdiwklbx
p34
I1
sVd0f6x39
p35
I1
sVdp7j4tt
p36
I1
sVdichhtv
p37
I1
sVd51ugcf
p38
I1
sVdamhcpx
p39
I1
sVd7ekjog
p40
I1
sVd27g9fg
p41
I2
sVd7y1dux
p42
I1
sVd1gylp4
p43
I1
sVd06k52e
p44
I1
sVdcf442q
p45
I1
sVdmr59v6
p46
I2
sVdrqld4n
p47
I1
sVdk91d6d
p48
I1
sVdawqffu
p49
I2
sVd5ploe4
p50
I1
sVczxg0qi
p51
I1
sVd94q6pc
p52
I1
sVd5iom0t
p53
I1
sVdfcup32
p54
I1
sVdeov08v
p55
I1
sVd2j6ly9
p56
I1
sVdghqzsm
p57
I2
sVda3477y
p58
I1
sVd8kn149
p59
I1
sVd1z2mws
p60
I2
sVd803ac4
p61
I3
sVd32ees4
p62
I1
sVd34qxt7
p63
I1
sVd51xfk1
p64
I1
sVd9i6r84
p65
I2
sVd82otx6
p66
I2
sVd02vfbx
p67
I3
sVd3ma2bh
p68
I2
sVdk7cv6b
p69
I2
sVd9681cn
p70
I1
sVdoz0gy6
p71
I1
sVdn9am3x
p72
I1
sVdcgz9bo
p73
I1
sVd51uakv
p74
I2
sVdf9vpz1
p75
I1
sVdgidjgz
p76
I1
sVdbw5wk8
p77
I3
sVdf013x3
p78
I1
sVdc5tprl
p79
I1
sVdio5kp1
p80
I2
sVd4g7yml
p81
I3
sVdghaiks
p82
I1
sVd629zw1
p83
I1
sVd27m3kt
p84
I1
sVdner9me
p85
I1
sVdeue6l0
p86
I1
sVd5plko4
p87
I1
sVd4fvjtn
p88
I1
sVdghaor0
p89
I3
sVdqf2eh8
p90
I1
sVdoe5vrx
p91
I1
sVd6cdz05
p92
I1
sVdf1qax8
p93
I1
sVd55afdl
p94
I1
sVd230qty
p95
I1
sVd7y6pcu
p96
I2
sVdea4jue
p97
I1
sVd227gqs
p98
I1
sVdohj25m
p99
I1
sVd00j8jx
p100
I2
sVd8c0dfo
p101
I3
sVdol9b2f
p102
I1
sVdavz6n3
p103
I1
sVd6bnneh
p104
I1
sVd5h8xqe
p105
I2
sVd1eqrw2
p106
I2
sVd0f6wld
p107
I1
sVds8rb9o
p108
I1
sVd5pwsql
p109
I1
sVdbdeqnl
p110
I1
sVdaq3vpx
p111
I1
sVdc0zzk0
p112
I1
sVd5pm749
p113
I1
sVd03mar6
p114
I1
sVd083h00
p115
I1
sVcyj9nhi
p116
I1
sVdn8wy52
p117
I2
sVd1p05wv
p118
I1
sVd94kgns
p119
I2
sVdku6m0l
p120
I1
sVd4f2dmb
p121
I1
sVdc6e6gs
p122
I1
sVdnjlot4
p123
I1
sVdart8pt
p124
I1
sVd52ny37
p125
I1
sVd258oij
p126
I1
sVdgkb6k7
p127
I1
sVdmr4uh2
p128
I1
sVdcndjqh
p129
I1
sVdfg7jw1
p130
I1
sVd94jmk2
p131
I1
sVdk5eq8x
p132
I1
sVdiaemnp
p133
I1
sVde0r6u0
p134
I2
sVdt7x20m
p135
I1
sVdeht8ch
p136
I1
sVd3u879z
p137
I1
sVcyrkgfy
p138
I1
sVd32eczi
p139
I1
sVd1lshgs
p140
I1
sVd62q60a
p141
I8
sVdildsbd
p142
I1
sVd95bi9r
p143
I2
sVd5ekumw
p144
I2
sVczlbar7
p145
I1
sVd32k70y
p146
I1
sVd3fz82i
p147
I2
sVdghaker
p148
I1
sVderm0py
p149
I1
sVd9hao70
p150
I1
sVd9emay4
p151
I1
sVddc10rp
p152
I2
sVd805hoh
p153
I2
sVdhe8fra
p154
I2
sVdr18d1q
p155
I2
sVde3jdsm
p156
I2
sVd22y0ra
p157
I2
sVcyvrgzb
p158
I1
sVd94ce63
p159
I1
sVdnjqsp0
p160
I1
sVdg2c8xd
p161
I1
sVd8c03o1
p162
I2
sVdfda2ma
p163
I2
sVd68woxh
p164
I1
sVda346du
p165
I1
sVd2kk8vo
p166
I1
sVdctzchp
p167
I1
sVdnpb81r
p168
I1
sVderxkxb
p169
I1
sVdbbrhe0
p170
I1
sVczga1zj
p171
I1
sVdji3zf7
p172
I2
sVdmpvg0a
p173
I1
sVd94kab8
p174
I2
sVdqorpw5
p175
I1
sVczlafqq
p176
I1
sVd0reqbd
p177
I1
sVd27obv4
p178
I1
sVd9e2qhn
p179
I1
sVd5plms0
p180
I3
sVd5gs2qz
p181
I1
sVdc96ho6
p182
I1
sVd8068mz
p183
I1
sVdkwsq53
p184
I1
sVdfq3kdn
p185
I1
sVd3f82ba
p186
I1
sVd0zrviv
p187
I2
sVd02kxr5
p188
I1
sVdk5meh8
p189
I1
sVdc8uld8
p190
I3
sVd6c9ic1
p191
I2
sVczvvz1k
p192
I2
sVd97zrq4
p193
I2
s.