(dp0
Vczi4wrx
p1
I1
s.(dp0
Vd2bhtgz
p1
I1
sVczi4wrx
p2
I1
s.(dp0
Vd2hj8n3
p1
I1
sVczi4wrx
p2
I1
s.(dp0
Vd8f3gj5
p1
I1
sVczi4wrx
p2
I1
s.(dp0
Vd9a8mid
p1
I1
sVczi4wrx
p2
I1
s.(dp0
Vdh68e0k
p1
I1
sVczi4wrx
p2
I1
s.(dp0
Vdi7g932
p1
I1
sVczi4wrx
p2
I1
s.(dp0
Vdrqcgjz
p1
I1
sVczi4wrx
p2
I1
s.