(dp0
Vd5gh9xj
p1
I1
sVd0xsdug
p2
I1
sVd3botpf
p3
I1
sVcywp6rh
p4
I1
sVdfmdc3l
p5
I1
sVcynv4zq
p6
I1
sVdoa1lz6
p7
I1
sVdcq4cau
p8
I1
sVcz90tgi
p9
I1
sVdtd5nzj
p10
I1
sVdfomshp
p11
I1
sVd3z5jp1
p12
I1
sVdjcwxs4
p13
I1
sVdqgasoq
p14
I1
sVd45tm72
p15
I1
sVddvnwzw
p16
I1
sVdgius4c
p17
I1
sVd3fvi38
p18
I1
sVdo4wr8a
p19
I1
sVd3liia6
p20
I1
sVd0slyuf
p21
I1
sVd2agh4m
p22
I1
sVdg37xvg
p23
I1
sVdo3627v
p24
I1
sVd27a5fb
p25
I1
sVdq0l1m3
p26
I1
sVd9vtath
p27
I2
sVd7f71bm
p28
I1
sVd6c3mov
p29
I1
sVczrwzcj
p30
I1
sVdknyqht
p31
I1
sVd3bcfe8
p32
I1
sVdezajb8
p33
I1
sVd3i4l7w
p34
I1
sVdek1z7a
p35
I1
sVdanqflx
p36
I1
sVczbu94s
p37
I1
sVddyq4oj
p38
I1
sVd3iux1t
p39
I1
sVd81neib
p40
I1
sVczfd5hq
p41
I1
sVdsfkh7i
p42
I1
sVda6uuud
p43
I1
sVd67xbq6
p44
I1
sVcz0b80t
p45
I1
sVd990n7f
p46
I1
sVd68mlmc
p47
I1
sVd3ts1l1
p48
I1
sVd6w8a8c
p49
I1
sVd60c2mn
p50
I1
s.