(dp0
Vczats5o
p1
I1
s.(dp0
Vczats5o
p1
I1
sVczs3zcm
p2
I1
s.(dp0
Vczats5o
p1
I1
sVd0bi3sy
p2
I1
s.(dp0
Vczats5o
p1
I1
sVd1qdjyf
p2
I1
s.(dp0
Vczats5o
p1
I1
sVd2kb9x4
p2
I1
s.(dp0
Vczats5o
p1
I1
sVd3583jr
p2
I1
s.(dp0
Vczats5o
p1
I1
sVd9aok81
p2
I1
s.(dp0
Vczats5o
p1
I1
sVdb6dil4
p2
I1
s.(dp0
Vczats5o
p1
I1
sVdbvble8
p2
I1
s.(dp0
Vczats5o
p1
I1
sVdd59sr4
p2
I1
s.(dp0
Vczats5o
p1
I1
sVdnildt5
p2
I1
s.