(dp0
Vcyjt90u
p1
I1
s.(dp0
Vcyjt90u
p1
I1
sVcyn61el
p2
I1
s.(dp0
Vcyr8l5a
p1
I1
sVcyjt90u
p2
I1
s.(dp0
Vcyrknpj
p1
I1
sVcyjt90u
p2
I1
s.(dp0
Vcyrknpj
p1
I1
sVcyjt90u
p2
I1
s.(dp0
Vcyjt90u
p1
I1
sVcyuase8
p2
I1
s.(dp0
Vcyjt90u
p1
I1
sVcyukbfv
p2
I1
s.(dp0
Vcyve58u
p1
I1
sVcyjt90u
p2
I1
s.(dp0
Vcyve58u
p1
I1
sVcyjt90u
p2
I1
s.(dp0
Vcyve58u
p1
I1
sVcyjt90u
p2
I1
s.(dp0
Vcyve58u
p1
I1
sVcyjt90u
p2
I1
s.(dp0
Vcyjt90u
p1
I1
sVcz2cefl
p2
I1
s.(dp0
Vcyjt90u
p1
I1
sVcz70qns
p2
I1
s.(dp0
Vczgv1nx
p1
I1
sVcyjt90u
p2
I1
s.(dp0
Vcyjt90u
p1
I1
sVczhuqlg
p2
I1
s.(dp0
Vcyjt90u
p1
I1
sVczjpfti
p2
I1
s.(dp0
Vczw1qnq
p1
I1
sVcyjt90u
p2
I1
s.(dp0
Vcyjt90u
p1
I1
sVczz12x0
p2
I1
s.(dp0
Vd0avhht
p1
I1
sVcyjt90u
p2
I1
s.(dp0
Vd0g2uni
p1
I1
sVcyjt90u
p2
I1
s.(dp0
Vd0kyo2n
p1
I1
sVcyjt90u
p2
I1
s.(dp0
Vd0trop4
p1
I1
sVcyjt90u
p2
I1
s.(dp0
Vd11cpwv
p1
I1
sVcyjt90u
p2
I1
s.(dp0
Vd13she5
p1
I1
sVcyjt90u
p2
I1
s.(dp0
Vd18vuj1
p1
I1
sVcyjt90u
p2
I1
s.(dp0
Vd1arhgc
p1
I1
sVcyjt90u
p2
I1
s.(dp0
Vd1n5pa8
p1
I1
sVcyjt90u
p2
I1
s.(dp0
Vcyjt90u
p1
I1
sVd1nlqt1
p2
I1
s.(dp0
Vd1uybtx
p1
I1
sVcyjt90u
p2
I1
s.(dp0
Vcyjt90u
p1
I1
sVd1yx022
p2
I1
s.(dp0
Vd2aqnt5
p1
I1
sVcyjt90u
p2
I1
s.(dp0
Vd2cxwsf
p1
I1
sVcyjt90u
p2
I1
s.(dp0
Vd2k43ek
p1
I1
sVcyjt90u
p2
I1
s.(dp0
Vd2pymtg
p1
I1
sVcyjt90u
p2
I1
s.(dp0
Vd2pymtg
p1
I1
sVcyjt90u
p2
I1
s.(dp0
Vd2qen91
p1
I1
sVcyjt90u
p2
I1
s.(dp0
Vd2tlojh
p1
I1
sVcyjt90u
p2
I1
s.(dp0
Vcyjt90u
p1
I1
sVd2u5gnk
p2
I1
s.(dp0
Vd3iux1t
p1
I1
sVcyjt90u
p2
I1
s.(dp0
Vd3mgaup
p1
I1
sVcyjt90u
p2
I1
s.(dp0
Vd3uhu68
p1
I1
sVcyjt90u
p2
I1
s.(dp0
Vd48cr05
p1
I1
sVcyjt90u
p2
I1
s.(dp0
Vd49uc5n
p1
I1
sVcyjt90u
p2
I1
s.(dp0
Vd4gpl87
p1
I1
sVcyjt90u
p2
I1
s.(dp0
Vd4ho4c5
p1
I1
sVcyjt90u
p2
I1
s.(dp0
Vcyjt90u
p1
I1
sVd4hz7tg
p2
I1
s.(dp0
Vd4ph413
p1
I1
sVcyjt90u
p2
I1
s.(dp0
Vd4vsr71
p1
I1
sVcyjt90u
p2
I1
s.(dp0
Vcyjt90u
p1
I1
sVd5ifhic
p2
I1
s.(dp0
Vd5p56yp
p1
I1
sVcyjt90u
p2
I1
s.(dp0
Vd5th0br
p1
I1
sVcyjt90u
p2
I1
s.(dp0
Vcyjt90u
p1
I1
sVd6fhrjn
p2
I1
s.(dp0
Vd6gb4r0
p1
I1
sVcyjt90u
p2
I1
s.(dp0
Vd6hb6na
p1
I1
sVcyjt90u
p2
I1
s.(dp0
Vd6qhpvn
p1
I1
sVcyjt90u
p2
I1
s.(dp0
Vcyjt90u
p1
I1
sVd6z3otl
p2
I1
s.(dp0
Vcyjt90u
p1
I1
sVd79ze70
p2
I1
s.(dp0
Vd7itm6a
p1
I1
sVcyjt90u
p2
I1
s.(dp0
Vd7l16h9
p1
I1
sVcyjt90u
p2
I1
s.(dp0
Vd7s2x3z
p1
I1
sVcyjt90u
p2
I1
s.(dp0
Vd8dxkva
p1
I1
sVcyjt90u
p2
I1
s.(dp0
Vcyjt90u
p1
I1
sVd94u9ml
p2
I1
s.(dp0
Vd9eegty
p1
I1
sVcyjt90u
p2
I1
s.(dp0
Vd9eegty
p1
I1
sVcyjt90u
p2
I1
s.(dp0
Vd9eegty
p1
I1
sVcyjt90u
p2
I1
s.(dp0
Vd9wah07
p1
I1
sVcyjt90u
p2
I1
s.(dp0
Vcyjt90u
p1
I1
sVd9ziray
p2
I1
s.(dp0
Vcyjt90u
p1
I1
sVda1exwq
p2
I1
s.(dp0
Vdab5kkz
p1
I1
sVcyjt90u
p2
I1
s.(dp0
Vdahs020
p1
I1
sVcyjt90u
p2
I1
s.(dp0
Vdaj42uh
p1
I1
sVcyjt90u
p2
I1
s.(dp0
Vdaynnz1
p1
I1
sVcyjt90u
p2
I1
s.(dp0
Vcyjt90u
p1
I1
sVdb0tgy4
p2
I1
s.(dp0
Vdb5npvd
p1
I1
sVcyjt90u
p2
I1
s.(dp0
Vdbe98yy
p1
I1
sVcyjt90u
p2
I1
s.(dp0
Vcyjt90u
p1
I1
sVdbfaoxa
p2
I1
s.(dp0
Vdbg2nn8
p1
I1
sVcyjt90u
p2
I1
s.(dp0
Vdbhuzr6
p1
I1
sVcyjt90u
p2
I1
s.(dp0
Vcyjt90u
p1
I1
sVdbj145i
p2
I1
s.(dp0
Vdc0ed9a
p1
I1
sVcyjt90u
p2
I1
s.(dp0
Vcyjt90u
p1
I1
sVdcbg5bc
p2
I1
s.(dp0
Vcyjt90u
p1
I1
sVdcj1ygp
p2
I1
s.(dp0
Vcyjt90u
p1
I1
sVdcpm5yp
p2
I1
s.(dp0
Vdctldi3
p1
I1
sVcyjt90u
p2
I1
s.(dp0
Vdd0hx7k
p1
I1
sVcyjt90u
p2
I1
s.(dp0
Vcyjt90u
p1
I1
sVdd4nqvy
p2
I1
s.(dp0
Vdd8ya8w
p1
I1
sVcyjt90u
p2
I1
s.(dp0
Vddgvwxp
p1
I1
sVcyjt90u
p2
I1
s.(dp0
Vde4satl
p1
I1
sVcyjt90u
p2
I1
s.(dp0
Vdeetay4
p1
I1
sVcyjt90u
p2
I1
s.(dp0
Vdegf0tu
p1
I1
sVcyjt90u
p2
I1
s.(dp0
Vder3yny
p1
I1
sVcyjt90u
p2
I1
s.(dp0
Vdex68jy
p1
I1
sVcyjt90u
p2
I1
s.(dp0
Vdf68in2
p1
I1
sVcyjt90u
p2
I1
s.(dp0
Vdfafrxo
p1
I1
sVcyjt90u
p2
I1
s.(dp0
Vdfc784s
p1
I1
sVcyjt90u
p2
I1
s.(dp0
Vdfedi5b
p1
I1
sVcyjt90u
p2
I1
s.(dp0
Vcyjt90u
p1
I1
sVdfghyv0
p2
I1
s.(dp0
Vdfly338
p1
I1
sVcyjt90u
p2
I1
s.(dp0
Vcyjt90u
p1
I1
sVdfrb6nl
p2
I1
s.(dp0
Vdfvxub1
p1
I1
sVcyjt90u
p2
I1
s.(dp0
Vdg5vgaa
p1
I1
sVcyjt90u
p2
I1
s.(dp0
Vdggy8vc
p1
I1
sVcyjt90u
p2
I1
s.(dp0
Vcyjt90u
p1
I1
sVdgqt6hp
p2
I1
s.(dp0
Vdhblwcg
p1
I1
sVcyjt90u
p2
I1
s.(dp0
Vcyjt90u
p1
I1
sVdhjn6kv
p2
I1
s.(dp0
Vdhngf7e
p1
I1
sVcyjt90u
p2
I1
s.(dp0
Vdhv4t3y
p1
I1
sVcyjt90u
p2
I1
s.(dp0
Vdh(dp0
Vdte1xy1
p1
I1
sVcyjt90u
p2
I1
s.