(dp0
Vd4xe74b
p1
I1
sVdiiqgsn
p2
I1
sVd27mfrq
p3
I1
sVd9lzlkd
p4
I1
sVd7qffba
p5
I1
sVd1wlyqp
p6
I1
sVd7175ex
p7
I1
sVd9a5hwm
p8
I1
sVd0cvw2l
p9
I1
sVdcoc9od
p10
I1
sVd6m7pdn
p11
I1
sVd1ajm3q
p12
I1
sVczswaae
p13
I1
sVds4ai0x
p14
I1
sVd6z4lza
p15
I1
sVdac5ger
p16
I1
sVdp24avr
p17
I1
sVd7mj4f7
p18
I1
sVd0iqxcj
p19
I1
sVdququai
p20
I1
sVd5sssyd
p21
I1
sVd8xsz1h
p22
I1
sVcyskute
p23
I1
sVd6oxq27
p24
I1
sVd6vwwly
p25
I1
sVd6a34df
p26
I1
sVdfsvwij
p27
I1
sVd5eiplc
p28
I1
sVdab2rjz
p29
I1
sVdg0mtbl
p30
I1
sVcymvj2g
p31
I1
sVdcqjoxh
p32
I1
sVd1x45qd
p33
I1
sVczuoouy
p34
I1
sVczndpne
p35
I1
sVd0r5qog
p36
I1
sVdd5juc5
p37
I1
sVda0ozy6
p38
I1
sVdcw05l4
p39
I1
sVd27h4pd
p40
I1
sVdbxx4v7
p41
I1
sVdexu046
p42
I1
sVds10xuw
p43
I1
sVdfl0aqc
p44
I1
sVd1342xz
p45
I1
s.