(dp0
Vd7o9wh1
p1
I2
sVdaaxxhn
p2
I1
sVdc5mmba
p3
I1
sVcyj9l2p
p4
I1
sVdfy2w6z
p5
I1
sVda3igoc
p6
I1
sVdta9q4v
p7
I1
sVczduq15
p8
I1
sVdj8y9zg
p9
I1
sVdoerqwv
p10
I3
sVdaazalo
p11
I1
sVd7nvtdt
p12
I1
sVd0u10uo
p13
I1
sVcz5nfh7
p14
I4
sVd1t5zd7
p15
I6
sVdeug0gz
p16
I12
sVdgfqo5q
p17
I1
sVczbn178
p18
I1
sVd2oe7b4
p19
I3
sVdpgy5lr
p20
I1
sVcyo9lxe
p21
I3
sVdis3ko4
p22
I1
sVdao4bjm
p23
I2
sVd01aime
p24
I2
sVd2o364q
p25
I1
sVdk93bw3
p26
I1
sVd16yxvm
p27
I1
sVd0ko6wu
p28
I1
sVddfq67t
p29
I1
sVdgjg3d1
p30
I1
sVd1gtapg
p31
I1
sVd7jy0p4
p32
I2
sVdjvhuc3
p33
I1
sVd19530g
p34
I1
sVddjz8re
p35
I1
sVdk3qspn
p36
I1
sVd1l4af7
p37
I1
sVd0a8gv1
p38
I1
s.