(dp0
Vd028r90
p1
I1
s.(dp0
Vd028r90
p1
I1
sVd0yrfsx
p2
I1
s.(dp0
Vd028r90
p1
I1
sVd1tlqds
p2
I1
s.(dp0
Vd028r90
p1
I1
sVd1u2kbu
p2
I1
s.(dp0
Vd028r90
p1
I1
sVd6cjs9t
p2
I1
s.(dp0
Vd028r90
p1
I1
sVd6cjs9t
p2
I1
s.(dp0
Vd028r90
p1
I1
sVd6cjs9t
p2
I1
s.(dp0
Vd028r90
p1
I1
sVd9ey9a3
p2
I1
s.(dp0
Vd028r90
p1
I1
sVde544ao
p2
I1
s.(dp0
Vd028r90
p1
I1
sVdfhg7k5
p2
I1
s.(dp0
Vd028r90
p1
I1
sVdhozx7e
p2
I1
s.(dp0
Vd028r90
p1
I1
sVdjoz9t8
p2
I1
s.(dp0
Vd028r90
p1
I1
sVdjoz9t8
p2
I1
s.(dp0
Vd028r90
p1
I1
sVdjqglsi
p2
I1
s.(dp0
Vd028r90
p1
I1
sVdjye051
p2
I1
s.(dp0
Vd028r90
p1
I1
sVdkj08qi
p2
I1
s.(dp0
Vd028r90
p1
I1
sVdkj08qi
p2
I1
s.(dp0
Vd028r90
p1
I1
sVdkmpdea
p2
I1
s.(dp0
Vd028r90
p1
I1
sVdo3n7gr
p2
I1
s.(dp0
Vd028r90
p1
I1
sVdpc009o
p2
I1
s.(dp0
Vd028r90
p1
I1
sVdpnhcc4
p2
I1
s.(dp0
Vd028r90
p1
I1
sVdpt1vkg
p2
I1
s.(dp0
Vd028r90
p1
I1
sVdq81plo
p2
I1
s.(dp0
Vd028r90
p1
I1
sVdr2k11v
p2
I1
s.(dp0
Vd028r90
p1
I1
sVdryog2h
p2
I1
s.(dp0
Vd028r90
p1
I1
sVds4srv2
p2
I1
s.(dp0
Vd028r90
p1
I1
sVds4srv2
p2
I1
s.(dp0
Vd028r90
p1
I1
sVdsa1np4
p2
I1
s.(dp0
Vd028r90
p1
I1
sVdseekii
p2
I1
s.(dp0
Vd028r90
p1
I1
sVdsz6tt1
p2
I1
s.