(dp0
Vcza392d
p1
I1
s.(dp0
Vczak53y
p1
I1
sVcza392d
p2
I1
s.(dp0
Vczbg575
p1
I1
sVcza392d
p2
I1
s.(dp0
Vcza392d
p1
I1
sVczezj5e
p2
I1
s.(dp0
Vd02cwvh
p1
I1
sVcza392d
p2
I1
s.(dp0
Vdc0sa0p
p1
I1
sVcza392d
p2
I1
s.(dp0
Vdeujtc9
p1
I1
sVcza392d
p2
I1
s.(dp0
Vcza392d
p1
I1
sVdfgcp8y
p2
I1
s.(dp0
Vcza392d
p1
I1
sVdhgry0j
p2
I1
s.(dp0
Vdmiq1g6
p1
I1
sVcza392d
p2
I1
s.(dp0
Vcza392d
p1
I1
sVdo04pw1
p2
I1
s.(dp0
Vdq7934b
p1
I1
sVcza392d
p2
I1
s.(dp0
Vdsdawzh
p1
I1
sVcza392d
p2
I1
s.