(dp0
Vdbnifdx
p1
I1
sVd7e0j1u
p2
I1
sVd51egn7
p3
I1
sVd0vus97
p4
I1
sVcz34ib5
p5
I1
sVdngm96b
p6
I1
sVd71s3w7
p7
I4
sVdsezz52
p8
I2
sVd4rzwp6
p9
I1
sVdg3jc0w
p10
I1
sVd6hlfy3
p11
I1
sVdcznkmk
p12
I1
sVdhy281u
p13
I1
sVcz35obf
p14
I1
sVdq7pn9t
p15
I1
sVdg3opiu
p16
I2
sVdseueur
p17
I3
sVdrwbk1j
p18
I8
sVd9etw3p
p19
I1
sVdfaf9r8
p20
I1
sVddy8mqk
p21
I1
sVd0lh34d
p22
I1
sVdh30mnv
p23
I1
sVdg3psrs
p24
I1
sVdhf1akq
p25
I2
sVdi1321t
p26
I1
sVd50ee80
p27
I1
sVd29yokx
p28
I2
sVddybwii
p29
I1
sVdq6l06i
p30
I1
sVdcpz3ws
p31
I1
sVd5g8ydx
p32
I1
sVdnm4x1s
p33
I1
sVd8gczj7
p34
I1
sVdb86af3
p35
I1
sVd20u3l5
p36
I1
sVde07i4r
p37
I1
sVdhiea14
p38
I1
sVdpxjquj
p39
I1
sVd1euq2k
p40
I1
sVdg3e2me
p41
I6
sVdg3dwub
p42
I1
sVdp5naha
p43
I1
sVdac5tzx
p44
I1
sVdg3e5qt
p45
I2
sVdg3jk6k
p46
I1
sVdqwz1r1
p47
I2
sVdhsqa80
p48
I1
sVdg3m4l7
p49
I1
sVdikdmut
p50
I1
sVdrvsz5w
p51
I2
sVd5xqctu
p52
I1
sVdq2b7lv
p53
I4
sVd2guhw2
p54
I1
sVdqwcyyg
p55
I1
sVd1r7uj5
p56
I1
sVdskhfkg
p57
I2
sVczib1y3
p58
I1
sVdatnxa7
p59
I1
sVd5ujf0e
p60
I3
sVdak3lek
p61
I1
sVdfy01ct
p62
I4
sVdeo4y1h
p63
I6
sVcz5r944
p64
I1
sVcz1a0ee
p65
I1
s.