(dp0
Vcyi26hn
p1
I1
s.(dp0
Vcyiianv
p1
I1
sVcyi26hn
p2
I1
s.(dp0
Vcyisaf1
p1
I1
sVcyi26hn
p2
I1
s.(dp0
Vcyjdu0x
p1
I1
sVcyi26hn
p2
I1
s.(dp0
Vcyi26hn
p1
I1
sVcykns90
p2
I1
s.(dp0
Vcyi26hn
p1
I1
sVcymn7mj
p2
I1
s.(dp0
Vcyn0ta8
p1
I1
sVcyi26hn
p2
I1
s.(dp0
Vcyi26hn
p1
I1
sVcyn1t78
p2
I1
s.(dp0
Vcyi26hn
p1
I1
sVcyn1t78
p2
I1
s.(dp0
Vcyi26hn
p1
I1
sVcyn1t78
p2
I1
s.(dp0
Vcynmxpi
p1
I1
sVcyi26hn
p2
I1
s.(dp0
Vcyoafs3
p1
I1
sVcyi26hn
p2
I1
s.(dp0
Vcyoafs3
p1
I1
sVcyi26hn
p2
I1
s.(dp0
Vcyop3mh
p1
I1
sVcyi26hn
p2
I1
s.(dp0
Vcyi26hn
p1
I1
sVcypljq9
p2
I1
s.(dp0
Vcyi26hn
p1
I1
sVcyqw4fh
p2
I1
s.(dp0
Vcyrp11n
p1
I1
sVcyi26hn
p2
I1
s.(dp0
Vcyrp11n
p1
I1
sVcyi26hn
p2
I1
s.(dp0
Vcyrr54q
p1
I1
sVcyi26hn
p2
I1
s.(dp0
Vcyi26hn
p1
I1
sVcyt0vnj
p2
I1
s.(dp0
Vcytojvj
p1
I1
sVcyi26hn
p2
I1
s.(dp0
Vcytojvj
p1
I1
sVcyi26hn
p2
I1
s.(dp0
Vcytp44s
p1
I1
sVcyi26hn
p2
I1
s.(dp0
Vcytp44s
p1
I1
sVcyi26hn
p2
I1
s.(dp0
Vcyu0c9o
p1
I1
sVcyi26hn
p2
I1
s.(dp0
Vcyu0c9o
p1
I1
sVcyi26hn
p2
I1
s.(dp0
Vcyu0c9o
p1
I1
sVcyi26hn
p2
I1
s.(dp0
Vcyi26hn
p1
I1
sVcyu3kmi
p2
I1
s.(dp0
Vcyuawg7
p1
I1
sVcyi26hn
p2
I1
s.(dp0
Vcyukwro
p1
I1
sVcyi26hn
p2
I1
s.(dp0
Vcyukwro
p1
I1
sVcyi26hn
p2
I1
s.(dp0
Vcyukwro
p1
I1
sVcyi26hn
p2
I1
s.(dp0
Vcyukwro
p1
I1
sVcyi26hn
p2
I1
s.(dp0
Vcyi26hn
p1
I1
sVcyv7fxx
p2
I1
s.(dp0
Vcyw7jlk
p1
I1
sVcyi26hn
p2
I1
s.(dp0
Vcywgzcq
p1
I1
sVcyi26hn
p2
I1
s.(dp0
Vcywgzcq
p1
I1
sVcyi26hn
p2
I1
s.(dp0
Vcywj37x
p1
I1
sVcyi26hn
p2
I1
s.(dp0
Vcywua1q
p1
I1
sVcyi26hn
p2
I1
s.(dp0
Vcyi26hn
p1
I1
sVcyxn87j
p2
I1
s.(dp0
Vcyi26hn
p1
I1
sVcyzkoxy
p2
I1
s.(dp0
Vcz0o749
p1
I1
sVcyi26hn
p2
I1
s.(dp0
Vcz0z46u
p1
I1
sVcyi26hn
p2
I1
s.(dp0
Vcz0z46u
p1
I1
sVcyi26hn
p2
I1
s.(dp0
Vcz1fzqg
p1
I1
sVcyi26hn
p2
I1
s.(dp0
Vcz34fr9
p1
I1
sVcyi26hn
p2
I1
s.(dp0
Vcz34fr9
p1
I1
sVcyi26hn
p2
I1
s.(dp0
Vcz3dtfl
p1
I1
sVcyi26hn
p2
I1
s.(dp0
Vcyi26hn
p1
I1
sVcz3r5f5
p2
I1
s.(dp0
Vcyi26hn
p1
I1
sVcz3ycgo
p2
I1
s.(dp0
Vcyi26hn
p1
I1
sVcz7fil8
p2
I1
s.(dp0
Vcyi26hn
p1
I1
sVcz7fil8
p2
I1
s.(dp0
Vcz7s560
p1
I1
sVcyi26hn
p2
I1
s.(dp0
Vcz8tum8
p1
I1
sVcyi26hn
p2
I1
s.(dp0
Vcyi26hn
p1
I1
sVcz9bty7
p2
I1
s.(dp0
Vcyi26hn
p1
I1
sVcz9bty7
p2
I1
s.(dp0
Vcz9crmy
p1
I1
sVcyi26hn
p2
I1
s.(dp0
Vcz9crmy
p1
I1
sVcyi26hn
p2
I1
s.(dp0
Vcz9jzc0
p1
I1
sVcyi26hn
p2
I1
s.(dp0
Vcz9jzc0
p1
I1
sVcyi26hn
p2
I1
s.(dp0
Vcyi26hn
p1
I1
sVcz9ug9b
p2
I1
s.(dp0
Vcyi26hn
p1
I1
sVczbna1g
p2
I1
s.(dp0
Vczdmqap
p1
I1
sVcyi26hn
p2
I1
s.(dp0
Vczdshx0
p1
I1
sVcyi26hn
p2
I1
s.(dp0
Vczdshx0
p1
I1
sVcyi26hn
p2
I1
s.(dp0
Vczdtfhi
p1
I1
sVcyi26hn
p2
I1
s.(dp0
Vczdtfhi
p1
I1
sVcyi26hn
p2
I1
s.(dp0
Vczg1edw
p1
I1
sVcyi26hn
p2
I1
s.(dp0
Vcyi26hn
p1
I1
sVczgf4oo
p2
I1
s.(dp0
Vczgzz49
p1
I1
sVcyi26hn
p2
I1
s.(dp0
Vczgzz49
p1
I1
sVcyi26hn
p2
I1
s.(dp0
Vczgzz49
p1
I1
sVcyi26hn
p2
I1
s.(dp0
Vcyi26hn
p1
I1
sVczi35pv
p2
I1
s.(dp0
Vcyi26hn
p1
I1
sVczi35pv
p2
I1
s.(dp0
Vczki2s1
p1
I1
sVcyi26hn
p2
I1
s.(dp0
Vczkz8do
p1
I1
sVcyi26hn
p2
I1
s.(dp0
Vczq71bf
p1
I1
sVcyi26hn
p2
I1
s.(dp0
Vczqiiho
p1
I1
sVcyi26hn
p2
I1
s.(dp0
Vczqiiho
p1
I1
sVcyi26hn
p2
I1
s.(dp0
Vczqiiho
p1
I1
sVcyi26hn
p2
I1
s.(dp0
Vczqq3f4
p1
I1
sVcyi26hn
p2
I1
s.(dp0
Vczqq3f4
p1
I1
sVcyi26hn
p2
I1
s.(dp0
Vczqq3f4
p1
I1
sVcyi26hn
p2
I1
s.(dp0
Vczqq3f4
p1
I1
sVcyi26hn
p2
I1
s.(dp0
Vczqq3f4
p1
I1
sVcyi26hn
p2
I1
s.(dp0
Vczqq3f4
p1
I1
sVcyi26hn
p2
I1
s.(dp0
Vczqvqlx
p1
I1
sVcyi26hn
p2
I1
s.(dp0
Vczqz5d3
p1
I1
sVcyi26hn
p2
I1
s.(dp0
Vczqz5d3
p1
I1
sVcyi26hn
p2
I1
s.(dp0
Vczras7e
p1
I1
sVcyi26hn
p2
I1
s.(dp0
Vcyi26hn
p1
I1
sVczrz6vc
p2
I1
s.(dp0
Vczs7mxa
p1
I1
sVcyi26hn
p2
I1
s.(dp0
Vczsaqzn
p1
I1
sVcyi26hn
p2
I1
s.(dp0
Vczsbqaq
p1
I1
sVcyi26hn
p2
I1
s.(dp0
Vcyi26hn
p1
I1
sVczsk80n
p2
I1
s.(dp0
Vcyi26hn
p1
I1
sVczsk80n
p2
I1
s.(dp0
Vcyi26hn
p1
I1
sVczsluqq
p2
I1
s.(dp0
Vcyi26hn
p1
I1
sVczsluqq
p2
I1
s.(dp0
Vczsuo25
p1
I1
sVcyi26hn
p2
I1
s.(dp0
Vczsuo25
p1
I1
sVcyi26hn
p2
I1
s.(dp0
Vcztmdin
p1
I1
sVcyi26hn
p2
I1
s.(dp0
Vcyi26hn
p1
I1
sVcztw1we
p2
I1
s.(dp0
Vczulzen
p1
I1
sVcyi26hn
p2
I1
s.(dp0
Vcyi26hn
p1
I1
sVczutm8w
p2
I1
s.(dp0
Vcyi26hn
p1
I1
sVczuwnyv
p2
I1
s.(dp0
Vczuzg3j
p1
I1
sVcyi26hn
p2
I1
s.(dp0
Vczwgr4o
p1
I1
sVcyi26hn
p2
I1
s.(dp0
Vczwq9k2
p1
I1
sVcyi26hn
p2
I1
s.(dp0
Vcy(dp0
Vcyi26hn
p1
I1
sVdtfjqk8
p2
I1
s.