(dp0
Vcyhylo3
p1
I1
s.(dp0
Vcym0yx2
p1
I1
sVcyhylo3
p2
I1
s.(dp0
Vcyoz50g
p1
I1
sVcyhylo3
p2
I1
s.(dp0
Vcyhylo3
p1
I1
sVcyrwyv2
p2
I1
s.(dp0
Vcyhylo3
p1
I1
sVcyrwyv2
p2
I1
s.(dp0
Vcysj854
p1
I1
sVcyhylo3
p2
I1
s.(dp0
Vcyt0us7
p1
I1
sVcyhylo3
p2
I1
s.(dp0
Vcyhylo3
p1
I1
sVcyvsra4
p2
I1
s.(dp0
Vcyhylo3
p1
I1
sVcyvsra4
p2
I1
s.(dp0
Vcyvz0jp
p1
I1
sVcyhylo3
p2
I1
s.(dp0
Vcyvz80o
p1
I1
sVcyhylo3
p2
I1
s.(dp0
Vcyhylo3
p1
I1
sVcz2r7cz
p2
I1
s.(dp0
Vcyhylo3
p1
I1
sVcz2r7cz
p2
I1
s.(dp0
Vcyhylo3
p1
I1
sVcz2rfx2
p2
I1
s.(dp0
Vcyhylo3
p1
I1
sVcz2rq9v
p2
I1
s.(dp0
Vcz2rtji
p1
I1
sVcyhylo3
p2
I1
s.(dp0
Vcz2rtji
p1
I1
sVcyhylo3
p2
I1
s.(dp0
Vcyhylo3
p1
I1
sVczbnsnw
p2
I1
s.(dp0
Vcyhylo3
p1
I1
sVczc6rvh
p2
I1
s.(dp0
Vczcdxc5
p1
I1
sVcyhylo3
p2
I1
s.(dp0
Vcyhylo3
p1
I1
sVczhkx1x
p2
I1
s.(dp0
Vcyhylo3
p1
I1
sVczi62gi
p2
I1
s.(dp0
Vcyhylo3
p1
I1
sVczi62gi
p2
I1
s.(dp0
Vcyhylo3
p1
I1
sVczi62gi
p2
I1
s.(dp0
Vcyhylo3
p1
I1
sVczi62gi
p2
I1
s.(dp0
Vcyhylo3
p1
I1
sVczi76se
p2
I1
s.(dp0
Vcyhylo3
p1
I1
sVczoa629
p2
I1
s.(dp0
Vcyhylo3
p1
I1
sVczojm1w
p2
I1
s.(dp0
Vcyhylo3
p1
I1
sVczyqtt1
p2
I1
s.(dp0
Vcyhylo3
p1
I1
sVd03cfkx
p2
I1
s.(dp0
Vd05wint
p1
I1
sVcyhylo3
p2
I1
s.(dp0
Vcyhylo3
p1
I1
sVd0baxac
p2
I1
s.(dp0
Vd0db6dr
p1
I1
sVcyhylo3
p2
I1
s.(dp0
Vd0db6dr
p1
I1
sVcyhylo3
p2
I1
s.(dp0
Vd0db6dr
p1
I1
sVcyhylo3
p2
I1
s.(dp0
Vcyhylo3
p1
I1
sVd0j985f
p2
I1
s.(dp0
Vcyhylo3
p1
I1
sVd0tkw8s
p2
I1
s.(dp0
Vcyhylo3
p1
I1
sVd0tl3co
p2
I1
s.(dp0
Vcyhylo3
p1
I1
sVd0tmxcr
p2
I1
s.(dp0
Vcyhylo3
p1
I1
sVd0u10uo
p2
I1
s.(dp0
Vcyhylo3
p1
I1
sVd0upupt
p2
I1
s.(dp0
Vd0ustof
p1
I1
sVcyhylo3
p2
I1
s.(dp0
Vcyhylo3
p1
I1
sVd0zjhca
p2
I1
s.(dp0
Vcyhylo3
p1
I1
sVd0zr9oi
p2
I1
s.(dp0
Vcyhylo3
p1
I1
sVd0zr9oi
p2
I1
s.(dp0
Vcyhylo3
p1
I1
sVd1952bp
p2
I1
s.(dp0
Vcyhylo3
p1
I1
sVd1952bp
p2
I1
s.(dp0
Vcyhylo3
p1
I1
sVd1952bp
p2
I1
s.(dp0
Vcyhylo3
p1
I1
sVd19kmzl
p2
I1
s.(dp0
Vcyhylo3
p1
I1
sVd19lbga
p2
I1
s.(dp0
Vcyhylo3
p1
I1
sVd1e53d5
p2
I1
s.(dp0
Vcyhylo3
p1
I1
sVd1hrfeu
p2
I1
s.(dp0
Vcyhylo3
p1
I1
sVd1inzl7
p2
I1
s.(dp0
Vd1jahyk
p1
I1
sVcyhylo3
p2
I1
s.(dp0
Vcyhylo3
p1
I1
sVd1kfsi7
p2
I1
s.(dp0
Vcyhylo3
p1
I1
sVd1n4edf
p2
I1
s.(dp0
Vcyhylo3
p1
I1
sVd1pqxt3
p2
I1
s.(dp0
Vcyhylo3
p1
I1
sVd1pr05j
p2
I1
s.(dp0
Vd23t0bq
p1
I1
sVcyhylo3
p2
I1
s.(dp0
Vd24g5rc
p1
I1
sVcyhylo3
p2
I1
s.(dp0
Vcyhylo3
p1
I1
sVd24o3c4
p2
I1
s.(dp0
Vcyhylo3
p1
I1
sVd24o3c4
p2
I1
s.(dp0
Vcyhylo3
p1
I1
sVd279m2i
p2
I1
s.(dp0
Vcyhylo3
p1
I1
sVd279m2i
p2
I1
s.(dp0
Vcyhylo3
p1
I1
sVd2c3bxr
p2
I1
s.(dp0
Vd2cpas7
p1
I1
sVcyhylo3
p2
I1
s.(dp0
Vcyhylo3
p1
I1
sVd2cstd3
p2
I1
s.(dp0
Vcyhylo3
p1
I1
sVd2cw4rn
p2
I1
s.(dp0
Vcyhylo3
p1
I1
sVd2i9tmh
p2
I1
s.(dp0
Vcyhylo3
p1
I1
sVd2i9tmh
p2
I1
s.(dp0
Vcyhylo3
p1
I1
sVd2ic374
p2
I1
s.(dp0
Vcyhylo3
p1
I1
sVd2ic374
p2
I1
s.(dp0
Vcyhylo3
p1
I1
sVd2ic374
p2
I1
s.(dp0
Vcyhylo3
p1
I1
sVd2ieja4
p2
I1
s.(dp0
Vcyhylo3
p1
I1
sVd2igy9y
p2
I1
s.(dp0
Vcyhylo3
p1
I1
sVd2igy9y
p2
I1
s.(dp0
Vcyhylo3
p1
I1
sVd2ikk1j
p2
I1
s.(dp0
Vcyhylo3
p1
I1
sVd2ikk1j
p2
I1
s.(dp0
Vcyhylo3
p1
I1
sVd2ikk1j
p2
I1
s.(dp0
Vcyhylo3
p1
I1
sVd2ikk1j
p2
I1
s.(dp0
Vcyhylo3
p1
I1
sVd2ku799
p2
I1
s.(dp0
Vcyhylo3
p1
I1
sVd2ku799
p2
I1
s.(dp0
Vcyhylo3
p1
I1
sVd2p1433
p2
I1
s.(dp0
Vcyhylo3
p1
I1
sVd2p1433
p2
I1
s.(dp0
Vcyhylo3
p1
I1
sVd2sflih
p2
I1
s.(dp0
Vcyhylo3
p1
I1
sVd2yl29a
p2
I1
s.(dp0
Vd32pf1p
p1
I1
sVcyhylo3
p2
I1
s.(dp0
Vcyhylo3
p1
I1
sVd35a7l0
p2
I1
s.(dp0
Vcyhylo3
p1
I1
sVd37ip86
p2
I1
s.(dp0
Vd38z57l
p1
I1
sVcyhylo3
p2
I1
s.(dp0
Vcyhylo3
p1
I1
sVd3xcmng
p2
I1
s.(dp0
Vcyhylo3
p1
I1
sVd40td35
p2
I1
s.(dp0
Vcyhylo3
p1
I1
sVd40td35
p2
I1
s.(dp0
Vd483mn9
p1
I1
sVcyhylo3
p2
I1
s.(dp0
Vd483mn9
p1
I1
sVcyhylo3
p2
I1
s.(dp0
Vd483mn9
p1
I1
sVcyhylo3
p2
I1
s.(dp0
Vd4a739b
p1
I1
sVcyhylo3
p2
I1
s.(dp0
Vd4a739b
p1
I1
sVcyhylo3
p2
I1
s.(dp0
Vd4a739b
p1
I1
sVcyhylo3
p2
I1
s.(dp0
Vcyhylo3
p1
I1
sVd4gq4q3
p2
I1
s.(dp0
Vd4gqj89
p1
I1
sVcyhylo3
p2
I1
s.(dp0
Vd4gqj89
p1
I1
sVcyhylo3
p2
I1
s.(dp0
Vd4gqj89
p1
I1
sVcyhylo3
p2
I1
s.(dp0
Vd4gqj89
p1
I1
sVcyhylo3
p2
I1
s.(dp0
Vcyhylo3
p1
I1
sVd4lktg9
p2
I1
s.(dp0
Vd4r1twz
p1
I1
sVcyhylo3
p2
I1
s.(dp0
Vcyhylo3
p1
I1
sVd4rv81o
p2
I1
s.(dp0
Vd4tszwy
p1
I1
sVcyhylo3
p2
I1
s.(dp0
Vd4(dp0
Vcyhylo3
p1
I1
sVdtii0al
p2
I1
s.