(dp0
Vd3uign1
p1
I2
sVd6hcqz3
p2
I1
sVdpdmy14
p3
I2
sVdijs49g
p4
I1
sVd0kvdtq
p5
I1
sVdf8zmv4
p6
I1
sVd0mysmh
p7
I1
sVd094oad
p8
I1
sVd18s2r2
p9
I1
sVdd9tw6k
p10
I1
sVd1i609g
p11
I1
sVdjnjbg4
p12
I1
sVdjvlepy
p13
I1
sVcyshh8y
p14
I1
sVd85o1nj
p15
I1
sVd03fnf9
p16
I1
sVdtc0iv5
p17
I1
sVdka8fvp
p18
I1
sVdhwm9lz
p19
I1
sVd0myyvh
p20
I2
s.