(dp0
Vdrdeu3f
p1
I1
sVdkoqent
p2
I1
sVcz763wc
p3
I1
sVd7597m4
p4
I1
sVdhjbp24
p5
I1
sVdccryu3
p6
I1
sVd4x6l5v
p7
I1
sVdcco8ja
p8
I1
sVd0dnksl
p9
I1
sVd2d0hmf
p10
I1
sVdez4iq5
p11
I1
sVd6hurnx
p12
I1
sVdgw1kmd
p13
I2
sVdmolao7
p14
I1
sVddesxq9
p15
I1
sVd2cz0lt
p16
I2
sVdhcz372
p17
I3
sVdfka8xq
p18
I9
s.