(dp0
Vcyhzuz7
p1
I1
s.(dp0
Vcyhzuz7
p1
I1
sVcyia8vr
p2
I1
s.(dp0
Vcyhzuz7
p1
I1
sVcykuzks
p2
I1
s.(dp0
Vcyhzuz7
p1
I1
sVcylldi1
p2
I1
s.(dp0
Vcyhzuz7
p1
I1
sVcymi4jt
p2
I1
s.(dp0
Vcyhzuz7
p1
I1
sVcyp2zhl
p2
I1
s.(dp0
Vcyhzuz7
p1
I1
sVcyr3fyk
p2
I1
s.(dp0
Vcyhzuz7
p1
I1
sVcyy5qxf
p2
I1
s.(dp0
Vcyhzuz7
p1
I1
sVcz05853
p2
I1
s.(dp0
Vcyhzuz7
p1
I1
sVcz05853
p2
I1
s.(dp0
Vcyhzuz7
p1
I1
sVcz05853
p2
I1
s.(dp0
Vcyhzuz7
p1
I1
sVcz3c8ea
p2
I1
s.(dp0
Vcyhzuz7
p1
I1
sVcz3cp4v
p2
I1
s.(dp0
Vcyhzuz7
p1
I1
sVcz3cp4v
p2
I1
s.(dp0
Vcyhzuz7
p1
I1
sVcz3cp4v
p2
I1
s.(dp0
Vcyhzuz7
p1
I1
sVcz3csjc
p2
I1
s.(dp0
Vcyhzuz7
p1
I1
sVcz3csjc
p2
I1
s.(dp0
Vcz47744
p1
I1
sVcyhzuz7
p2
I1
s.(dp0
Vcz4f7bu
p1
I1
sVcyhzuz7
p2
I1
s.(dp0
Vcyhzuz7
p1
I1
sVcz4fe4f
p2
I1
s.(dp0
Vcyhzuz7
p1
I1
sVcz5c7mx
p2
I1
s.(dp0
Vcyhzuz7
p1
I1
sVcz87dlf
p2
I1
s.(dp0
Vcyhzuz7
p1
I1
sVczabd58
p2
I1
s.(dp0
Vcyhzuz7
p1
I1
sVczabd58
p2
I1
s.(dp0
Vcyhzuz7
p1
I1
sVczabd58
p2
I1
s.(dp0
Vcyhzuz7
p1
I1
sVczabdhz
p2
I1
s.(dp0
Vcyhzuz7
p1
I1
sVczabxum
p2
I1
s.(dp0
Vcyhzuz7
p1
I1
sVczabxum
p2
I1
s.(dp0
Vcyhzuz7
p1
I1
sVczabxum
p2
I1
s.(dp0
Vcyhzuz7
p1
I1
sVczabxum
p2
I1
s.(dp0
Vcyhzuz7
p1
I1
sVczabxum
p2
I1
s.(dp0
Vcyhzuz7
p1
I1
sVczabxum
p2
I1
s.(dp0
Vcyhzuz7
p1
I1
sVczabxum
p2
I1
s.(dp0
Vcyhzuz7
p1
I1
sVczabxum
p2
I1
s.(dp0
Vcyhzuz7
p1
I1
sVczc16cu
p2
I1
s.(dp0
Vcyhzuz7
p1
I1
sVczexkdo
p2
I1
s.(dp0
Vcyhzuz7
p1
I1
sVczexkdo
p2
I1
s.(dp0
Vcyhzuz7
p1
I1
sVczeyd8z
p2
I1
s.(dp0
Vcyhzuz7
p1
I1
sVczeyd8z
p2
I1
s.(dp0
Vcyhzuz7
p1
I1
sVczeyd8z
p2
I1
s.(dp0
Vcyhzuz7
p1
I1
sVczeyd8z
p2
I1
s.(dp0
Vcyhzuz7
p1
I1
sVczeyd8z
p2
I1
s.(dp0
Vcyhzuz7
p1
I1
sVczj69g0
p2
I1
s.(dp0
Vcyhzuz7
p1
I1
sVczj69g0
p2
I1
s.(dp0
Vcyhzuz7
p1
I1
sVczkozx8
p2
I1
s.(dp0
Vcyhzuz7
p1
I1
sVczorugr
p2
I1
s.(dp0
Vcyhzuz7
p1
I1
sVczrxuyd
p2
I1
s.(dp0
Vcyhzuz7
p1
I1
sVczs00zz
p2
I1
s.(dp0
Vczs6111
p1
I1
sVcyhzuz7
p2
I1
s.(dp0
Vcyhzuz7
p1
I1
sVczsq2yx
p2
I1
s.(dp0
Vcyhzuz7
p1
I1
sVcztm3h4
p2
I1
s.(dp0
Vcyhzuz7
p1
I1
sVcztmiz0
p2
I1
s.(dp0
Vcyhzuz7
p1
I1
sVczu53n9
p2
I1
s.(dp0
Vcyhzuz7
p1
I1
sVd00y05n
p2
I1
s.(dp0
Vcyhzuz7
p1
I1
sVd00y05n
p2
I1
s.(dp0
Vcyhzuz7
p1
I1
sVd00y05n
p2
I1
s.(dp0
Vcyhzuz7
p1
I1
sVd00y05n
p2
I1
s.(dp0
Vcyhzuz7
p1
I1
sVd00y05n
p2
I1
s.(dp0
Vcyhzuz7
p1
I1
sVd00y05n
p2
I1
s.(dp0
Vcyhzuz7
p1
I1
sVd06dad7
p2
I1
s.(dp0
Vcyhzuz7
p1
I1
sVd06e83x
p2
I1
s.(dp0
Vcyhzuz7
p1
I1
sVd07cp32
p2
I1
s.(dp0
Vcyhzuz7
p1
I1
sVd0cp0ub
p2
I1
s.(dp0
Vcyhzuz7
p1
I1
sVd0gfupa
p2
I1
s.(dp0
Vcyhzuz7
p1
I1
sVd0je9wp
p2
I1
s.(dp0
Vcyhzuz7
p1
I1
sVd0je9wp
p2
I1
s.(dp0
Vcyhzuz7
p1
I1
sVd0je9wp
p2
I1
s.(dp0
Vcyhzuz7
p1
I1
sVd0je9wp
p2
I1
s.(dp0
Vcyhzuz7
p1
I1
sVd0je9wp
p2
I1
s.(dp0
Vcyhzuz7
p1
I1
sVd0je9wp
p2
I1
s.(dp0
Vcyhzuz7
p1
I1
sVd0je9wp
p2
I1
s.(dp0
Vcyhzuz7
p1
I1
sVd0m0t34
p2
I1
s.(dp0
Vcyhzuz7
p1
I1
sVd0oyz21
p2
I1
s.(dp0
Vcyhzuz7
p1
I1
sVd0yr2j1
p2
I1
s.(dp0
Vcyhzuz7
p1
I1
sVd12h6fo
p2
I1
s.(dp0
Vcyhzuz7
p1
I1
sVd15gsos
p2
I1
s.(dp0
Vcyhzuz7
p1
I1
sVd15oyrl
p2
I1
s.(dp0
Vcyhzuz7
p1
I1
sVd1mvoa2
p2
I1
s.(dp0
Vcyhzuz7
p1
I1
sVd1n701i
p2
I1
s.(dp0
Vcyhzuz7
p1
I1
sVd1sbrxr
p2
I1
s.(dp0
Vcyhzuz7
p1
I1
sVd1vyeps
p2
I1
s.(dp0
Vcyhzuz7
p1
I1
sVd1vyeps
p2
I1
s.(dp0
Vcyhzuz7
p1
I1
sVd1wcv77
p2
I1
s.(dp0
Vcyhzuz7
p1
I1
sVd1wcv77
p2
I1
s.(dp0
Vcyhzuz7
p1
I1
sVd1xtdgn
p2
I1
s.(dp0
Vcyhzuz7
p1
I1
sVd1xtdgn
p2
I1
s.(dp0
Vcyhzuz7
p1
I1
sVd1y2tkp
p2
I1
s.(dp0
Vcyhzuz7
p1
I1
sVd20yt2h
p2
I1
s.(dp0
Vd20ywev
p1
I1
sVcyhzuz7
p2
I1
s.(dp0
Vcyhzuz7
p1
I1
sVd23q5jo
p2
I1
s.(dp0
Vcyhzuz7
p1
I1
sVd2csivk
p2
I1
s.(dp0
Vcyhzuz7
p1
I1
sVd2krmml
p2
I1
s.(dp0
Vcyhzuz7
p1
I1
sVd2krmml
p2
I1
s.(dp0
Vcyhzuz7
p1
I1
sVd2ks8ek
p2
I1
s.(dp0
Vcyhzuz7
p1
I1
sVd2nw0xr
p2
I1
s.(dp0
Vcyhzuz7
p1
I1
sVd2qzii0
p2
I1
s.(dp0
Vcyhzuz7
p1
I1
sVd2yrosh
p2
I1
s.(dp0
Vcyhzuz7
p1
I1
sVd3114c4
p2
I1
s.(dp0
Vcyhzuz7
p1
I1
sVd32e5ek
p2
I1
s.(dp0
Vcyhzuz7
p1
I1
sVd38ffpp
p2
I1
s.(dp0
Vcyhzuz7
p1
I1
sVd3atr60
p2
I1
s.(dp0
Vcyhzuz7
p1
I1
sVd3dt7lt
p2
I1
s.(dp0
Vcyhzuz7
p1
I1
sVd3hjedb
p2
I1
s.(dp0
Vcyhzuz7
p1
I1
sVd3hxdkh
p2
I1
s.(dp0
Vd3hxzxh
p1
I1
sVcyhzuz7
p2
I1
s.(dp0
Vcyhzuz7
p1
I1
sVd3ifvbx
p2
I1
s.(dp0
Vcyhzuz7
p1
I1
sVd3lytqy
p2
I1
s.(dp0
Vcyhzuz7
p1
I1
sVd3lzjwx
p2
I1
s.(dp0
Vcy(dp0
Vcyhzuz7
p1
I1
sVdti9fst
p2
I1
s.