(dp0
Vd2k213h
p1
I1
sVczjw9sx
p2
I1
sVczwexb4
p3
I1
sVd4zkn3j
p4
I1
sVdj3qwmk
p5
I1
sVddicng7
p6
I2
sVcz0psew
p7
I1
sVd1p2kwl
p8
I1
sVd1p2bqw
p9
I1
sVdehbcqe
p10
I1
sVdr037hj
p11
I1
sVd1ssz3n
p12
I1
sVddg21d2
p13
I1
s.