(dp0
Vd26eizo
p1
I1
sVddhveeo
p2
I1
sVcyskz0d
p3
I1
sVd0y8z5v
p4
I1
sVdn9lwfk
p5
I1
sVdmmx8w4
p6
I1
sVde5fif8
p7
I1
sVdicciqv
p8
I1
sVdgsjo5k
p9
I1
sVdc95z5u
p10
I1
sVdbibx6t
p11
I1
sVd2md8qa
p12
I1
sVdcfe7ub
p13
I2
sVd5myshk
p14
I1
sVdczgses
p15
I2
sVdkgg5mp
p16
I1
sVdgmuivl
p17
I1
sVd0r942f
p18
I2
sVdo449hc
p19
I1
sVdawiu5e
p20
I1
sVdjmi53o
p21
I1
sVd04wpez
p22
I1
sVdaa7x26
p23
I2
sVcz55wn4
p24
I1
sVd0ursd7
p25
I1
sVdc96ueu
p26
I1
sVdbdjx5u
p27
I2
sVdn0z4rr
p28
I2
sVczgq8c2
p29
I1
sVdbl14dn
p30
I1
sVd0tf34s
p31
I1
sVdgniowi
p32
I1
sVds7jrkq
p33
I1
sVdilhe3r
p34
I1
sVd9fetbw
p35
I4
sVdt435eq
p36
I1
sVdmjqegj
p37
I2
sVdg5vj58
p38
I1
sVd61jrw9
p39
I1
sVcynb6p0
p40
I1
sVdjxw6m3
p41
I1
sVdbx7rna
p42
I1
sVd7nmz4l
p43
I1
sVdry3qog
p44
I1
sVdfgq7ru
p45
I3
sVdkm5gsu
p46
I1
sVd8ijegb
p47
I1
sVd0r3i9r
p48
I1
sVdnxv3tu
p49
I1
sVd05lfg6
p50
I2
sVdaebq8l
p51
I1
sVd6kt71g
p52
I1
sVdc5qec0
p53
I1
sVd4nylda
p54
I1
sVdb93c5r
p55
I1
sVd37g22u
p56
I1
sVczasy7t
p57
I1
sVd1e7zps
p58
I1
sVdebk30p
p59
I1
sVdku07md
p60
I1
sVd6quwd3
p61
I1
sVdp0dv1f
p62
I1
sVdrbz1ra
p63
I1
sVd28hnux
p64
I2
sVdndg78s
p65
I1
sVd0r3cad
p66
I1
sVd13v9m8
p67
I2
sVday0sy7
p68
I1
sVdphnkug
p69
I1
sVdcphyce
p70
I1
sVd6az4rv
p71
I1
sVczrmswe
p72
I1
sVd1yetj2
p73
I1
sVd5jphrm
p74
I1
sVdbmicwh
p75
I1
sVdf4ni6u
p76
I1
sVd9uko1c
p77
I1
sVdhrp0ef
p78
I1
sVdqrhete
p79
I1
sVdbqkwbl
p80
I1
sVcylldi1
p81
I2
sVdbe8xtv
p82
I1
sVd72fvfv
p83
I1
sVd7bajcl
p84
I2
sVdeog6vq
p85
I1
sVcysnthf
p86
I1
sVd1hm8iv
p87
I5
sVdpeyvte
p88
I1
sVdp9vd8w
p89
I3
sVdoxw9vv
p90
I1
sVd7absfp
p91
I1
sVdid5cc3
p92
I1
sVd12d47o
p93
I1
sVd9zxkbi
p94
I1
sVd2orcvu
p95
I1
sVd5x2l8z
p96
I1
sVdnb4pfs
p97
I2
sVdix8vr8
p98
I2
sVdbwqja2
p99
I1
sVd62sjih
p100
I1
sVdghqzn8
p101
I1
sVdctxf2q
p102
I1
sVdgmz71y
p103
I1
sVd0raazw
p104
I1
sVdmkcimo
p105
I1
sVdnfk83v
p106
I1
sVd3emjql
p107
I1
sVd0r253p
p108
I1
sVdcmhofm
p109
I1
sVdasxfsa
p110
I1
sVdiya58l
p111
I1
sVd4821du
p112
I1
sVd7kewfy
p113
I1
sVd6lzvks
p114
I1
sVczlopfc
p115
I1
sVd1mz7ta
p116
I1
sVd3co34l
p117
I1
sVd4v6xso
p118
I1
sVd3pghmy
p119
I1
sVdjc0yw0
p120
I1
sVdnbvd2x
p121
I1
sVd01athw
p122
I1
sVdckof7a
p123
I1
sVdjfqzna
p124
I1
sVczhjgbh
p125
I1
sVdpzeh1l
p126
I1
sVcz7tfid
p127
I1
sVddqail4
p128
I1
sVczrxror
p129
I1
sVdal8nlu
p130
I1
sVd7kihvx
p131
I1
sVdjrvytv
p132
I1
sVddm978a
p133
I2
sVdkm6wkb
p134
I1
sVdbcflfj
p135
I1
sVd03m7pi
p136
I1
sVdr15731
p137
I1
sVdd4h7ac
p138
I1
sVd5t0a3i
p139
I1
sVd6o2r99
p140
I1
sVd1vkina
p141
I1
sVd1fymjb
p142
I1
sVd1irsw8
p143
I4
sVdhiifd1
p144
I1
sVdew2eil
p145
I1
sVd0r5876
p146
I1
sVd6qo91w
p147
I1
sVdnu8ulf
p148
I1
sVdctc6r8
p149
I1
sVd4v1h4w
p150
I1
sVdjl8pr7
p151
I1
sVdnra294
p152
I1
sVd0rcjja
p153
I1
sVddl6e7r
p154
I1
sVdixl55q
p155
I3
sVdqzrep8
p156
I1
sVd2s13xk
p157
I2
sVdt6rjo8
p158
I1
sVdpjm7t4
p159
I1
sVdrt2ktg
p160
I1
sVdhted0t
p161
I1
sVdih63r1
p162
I1
sVczte9at
p163
I1
sVdnkjie9
p164
I1
sVd6m5pn9
p165
I1
sVdtf850x
p166
I1
sVdctldi3
p167
I2
sVd5yhhg7
p168
I1
sVd0ypefq
p169
I1
sVdgx87hi
p170
I2
sVcywyu7g
p171
I1
sVdq2mzzc
p172
I7
sVd38nu3e
p173
I1
sVddg1qr5
p174
I1
sVdkk1x11
p175
I1
sVdasfcna
p176
I1
sVdoc40ss
p177
I1
sVdo03s1c
p178
I3
sVdgrnsaa
p179
I5
sVd7fogvf
p180
I1
sVcyljbud
p181
I1
sVdgmupyi
p182
I1
sVd26i1st
p183
I1
sVd9427x0
p184
I9
sVdn4dw27
p185
I1
sVda8v6w4
p186
I4
sVd6nviyn
p187
I4
sVdgnuscf
p188
I2
sVd8ftuoq
p189
I1
sVdgqaue5
p190
I1
sVd5tkru3
p191
I1
sVdcbng0u
p192
I1
sVdk6shtu
p193
I2
sVd3enu20
p194
I1
sVdhpmv5i
p195
I1
sVdmlv201
p196
I1
sVd0jy3di
p197
I1
sVdo7s4c9
p198
I1
sVczbpqmc
p199
I1
sVd9pcqbb
p200
I1
sVdi9a848
p201
I1
sVd5h5hjb
p202
I1
sVd94n5b8
p203
I1
sVdspldzz
p204
I1
sVdo9bw1u
p205
I1
sVdnd901b
p206
I1
sVdbmg0a6
p207
I1
sVd2aaotu
p208
I1
sVcyrknpj
p209
I1
sVdetl94x
p210
I3
sVdmj3059
p211
I1
sVdpcuvtn
p212
I1
sVdgmx2u7
p213
I2
sVdbgj4er
p214
I1
sVdoi73xr
p215
I1
sVdib0thr
p216
I1
sVdc7ma3c
p217
I1
sVd8itpkd
p218
I1
sVdq6qug4
p219
I1
sVdqj3w2s
p220
I1
sVd2q5ia8
p221
I1
sVd0ghm1a
p222
I1
sVdhi5g77
p223
I1
sVds1ua58
p224
I1
sVdg5psds
p225
I1
sVd1upsvp
p226
I1
sVdgmiy9s
p227
I1
sVd546p2f
p228
I1
sVdbnn73c
p229
I1
sVd0r3vfp
p230
I12
sVd6ma5fm
p231
I1
sVdgmooo3
p232
I2
sVdidjjqk
p233
I1
sVcyze5q5
p234
I1
sVd8dd7ne
p235
I1
sVdcx50ng
p236
I1
sVdnkjl1p
p237
I1
sVdda2sgr
p238
I1
sVdc2raaq
p239
I1
sVdgrsnmk
p240
I1
sVdaopgdp
p241
I1
sVd401ffy
p242
I1
sVdh79vj9
p243
I1
sVdkc5czz
p244
I2
sVd19rkz6
p245
I2
sVdnl8kwo
p246
I2
sVdcaxpe1
p247
I1
sVdqmwwjs
p248
I1
sVdcx2emq
p249
I1
sVdckw7zh
p250
I1
sVd6x4l8j
p251
I1
sVd2emgkp
p252
I1
sVd72i1xx
p253
I1
sVdpgowru
p254
I1
sVd1zxn4f
p255
I1
sVcykwika
p256
I1
sVd2sz8zo
p257
I1
sVdae5yli
p258
I1
sVdeivati
p259
I1
sVdo7vgmg
p260
I2
sVdhvhjxo
p261
I1
sVdeyini3
p262
I1
sVd7kfvst
p263
I1
sVd4xmpij
p264
I1
sVd944bic
p265
I1
sVdjc0s6p
p266
I1
sVddfeguv
p267
I1
sVdgnnp1h
p268
I1
sVd0r4k58
p269
I1
sVde5fhw9
p270
I2
sVdhs5a8y
p271
I1
sVd3i4won
p272
I2
sVd3ajatx
p273
I1
sVdt6bnob
p274
I3
sVd478e8f
p275
I1
sVd56q0af
p276
I1
sVdthj787
p277
I1
sVdtatryk
p278
I1
sVdarlfw8
p279
I2
sVd3jk2jf
p280
I1
sVdf5gql0
p281
I1
sVdpqs9gn
p282
I1
sVd07qh5t
p283
I1
sVdrg7big
p284
I1
sVd8xbr5s
p285
I1
sVcys3n9v
p286
I1
sVdo4mgw8
p287
I1
sVdnxcdql
p288
I1
sVdfzjm9p
p289
I1
sVd8k5nft
p290
I1
sVd0rbzm3
p291
I1
sVdt44qbe
p292
I1
sVcyqrz95
p293
I1
sVd06ssyf
p294
I1
sVdc2cad1
p295
I1
sVdgmzw6m
p296
I5
sVdhtmbq0
p297
I1
sVdjnsoeg
p298
I1
sVcz5bqy5
p299
I1
sVdaoccxi
p300
I1
sVdp9ydvm
p301
I2
sVd1ekc3c
p302
I2
sVde5jy40
p303
I1
sVde4qs5l
p304
I1
sVd4y6ev3
p305
I1
sVcywnceq
p306
I1
sVdffqyt6
p307
I1
sVdbe9853
p308
I2
sVdgn4d98
p309
I1
sVddrinr6
p310
I1
sVdatdblw
p311
I7
sVd3ah9v8
p312
I1
sVdeprln9
p313
I1
sVd1hc8xn
p314
I1
sVdjy124o
p315
I1
sVda6eito
p316
I2
sVdfb2sa5
p317
I1
sVdgg7tck
p318
I1
sVd2bhmi6
p319
I1
sVda296uq
p320
I1
sVdn0rald
p321
I2
sVd040lpj
p322
I2
sVd4jj9wc
p323
I1
sVdt8nfbk
p324
I1
sVd3n9yu2
p325
I1
sVd2hu3t9
p326
I1
sVds4yqc6
p327
I2
sVdgsh0g4
p328
I1
sVdesd4cw
p329
I1
sVdb0xyt7
p330
I1
sVday45wz
p331
I1
sVd46wh5g
p332
I4
sVd01q49t
p333
I1
sVdq0uks9
p334
I2
sVddlillm
p335
I1
sVdeijz2y
p336
I3
sVdblxrbo
p337
I1
sVd67sdk1
p338
I1
sVd2tfx59
p339
I2
sVdo2xuq6
p340
I1
sVdev3zc6
p341
I1
sVdtddqgc
p342
I1
sVddjhzvi
p343
I1
sVdevrhdi
p344
I1
sVdi0rolz
p345
I2
sVdacimc0
p346
I1
sVd2c57mb
p347
I1
sVdeg8bht
p348
I1
sVd19ptny
p349
I1
sVdhvn10k
p350
I1
sVdeq37sj
p351
I1
sVd72hz7v
p352
I1
sVd12f767
p353
I2
sVdkqz5by
p354
I1
sVda7mpbo
p355
I1
sVdq77u0v
p356
I1
sVdmxuajp
p357
I1
sVd08s5yh
p358
I1
sVd7cy5ai
p359
I1
sVdbqr0xf
p360
I1
sVd5vlrol
p361
I1
sVd6g6g5c
p362
I2
sVd5jhw6d
p363
I3
sVcz9ka07
p364
I2
sVdog99nl
p365
I1
sVdgmnqza
p366
I2
sVd9xge17
p367
I1
sVd3h1ksx
p368
I1
sVdb2muic
p369
I1
sVd0nodec
p370
I1
sVd9alova
p371
I1
sVdeuz3qv
p372
I2
sVd69xb9o
p373
I1
sVdgyjr26
p374
I1
sVd8o681r
p375
I1
sVdpgo5g1
p376
I2
sVd192eqa
p377
I1
sVdizm8de
p378
I1
sVdn3g7qi
p379
I1
sVdf98j1b
p380
I1
sVdi8p73j
p381
I1
sVdpuxo3n
p382
I1
sVd0ggxk3
p383
I1
sVd1c91qx
p384
I2
sVd63t64k
p385
I1
sVcz5btqr
p386
I1
sVderucmd
p387
I1
sVd7hxeqa
p388
I1
sVdkwq07u
p389
I1
sVd0nubst
p390
I1
sVcz0lqiv
p391
I1
sVdks527o
p392
I1
sVdq1i4ne
p393
I2
sVdexyl9j
p394
I1
sVdrlt5ri
p395
I2
sVdgn1bht
p396
I1
sVd96ltjb
p397
I1
sVdny21ee
p398
I1
sVdben4hn
p399
I1
sVd75isw8
p400
I2
sVd8alzfk
p401
I1
sVczw345c
p402
I1
sVcyleu7u
p403
I1
sVd0kyq9o
p404
I1
sVdi0o00j
p405
I1
sVddw30de
p406
I1
sVdd5kjbp
p407
I2
sVd9iir3i
p408
I2
sVdawpcer
p409
I1
sVdt12ly1
p410
I1
sVds42ffb
p411
I1
sVd4zfb1e
p412
I1
sVd8vccsp
p413
I1
sVddyyhgf
p414
I1
sVd0sx13v
p415
I1
sVdaa8mxa
p416
I3
sVdau7u90
p417
I1
sVda049x2
p418
I1
sVdhad9lz
p419
I1
sVd0i33ee
p420
I1
sVdkz43f6
p421
I1
sVdfak4g8
p422
I1
sVd41dar1
p423
I1
sVd7lagw9
p424
I1
sVdgrtcwb
p425
I1
sVdaki7xc
p426
I1
sVdntpfcd
p427
I2
sVd2t8z1g
p428
I1
sVdafh0hr
p429
I2
sVdq6l06i
p430
I1
sVd23amer
p431
I1
sVdeuyj3z
p432
I1
sVd3x40nt
p433
I1
sVdgfh4py
p434
I1
sVdmfk49c
p435
I1
sVdd7huo8
p436
I1
sVd8nowo6
p437
I1
sVd0mduea
p438
I1
sVd5e9tkd
p439
I2
sVd5zgj8a
p440
I1
sVdqu9mdq
p441
I1
sVdiuxolj
p442
I2
sVdarxw07
p443
I1
sVd4tw1ua
p444
I2
sVdsyv9mk
p445
I1
sVdgyv5l1
p446
I1
sVd57osad
p447
I1
sVd6rql4g
p448
I1
sVd8dirip
p449
I1
sVdphpfcm
p450
I1
sVdb4e784
p451
I1
sVdj53s1r
p452
I1
sVcyhuhxm
p453
I1
sVdru74s8
p454
I1
sVdafppug
p455
I1
sVd2oouz6
p456
I1
sVdmiobfi
p457
I1
sVd4k2oe9
p458
I1
sVd2ynrm6
p459
I1
sVd5jgcvn
p460
I3
sVd88ui1x
p461
I1
sVdcxep5e
p462
I1
sVd5ka7al
p463
I1
sVdnrhire
p464
I1
sVdkymjpc
p465
I1
sVd0r3hq8
p466
I1
sVd4forxy
p467
I1
sVd7ptqq5
p468
I2
sVd1zpgvl
p469
I1
sVd276tev
p470
I1
sVd3tfg7q
p471
I1
sVdnnhgcp
p472
I1
sVdq35dsu
p473
I1
sVddqsczw
p474
I1
sVdgxxorb
p475
I1
sVdbbxt32
p476
I1
sVdczg495
p477
I1
sVdpwh5zm
p478
I2
sVd0vbmdw
p479
I1
sVdaulsh2
p480
I1
sVdpq3ihv
p481
I1
sVdfq7wx0
p482
I1
sVd5hb4wn
p483
I2
sVdce80zk
p484
I1
sVd0ich4l
p485
I1
sVdan5y2p
p486
I1
sVdd3fo0t
p487
I1
sVczl3xgf
p488
I4
sVdpax2ho
p489
I1
sVdo7tpmn
p490
I1
sVdgmy8g8
p491
I1
sVd79k18d
p492
I1
sVdhvc15f
p493
I1
sVd2t0ho8
p494
I1
sVdinb3nv
p495
I1
sVd2t4opd
p496
I1
sVd50o3kx
p497
I1
sVdhjlmwe
p498
I2
sVdi9zivv
p499
I1
sVdd8dvcx
p500
I1
sVd1g720u
p501
I1
sVd0rbnj7
p502
I1
sVdpy64zz
p503
I1
sVdptcmw3
p504
I1
sVd8gavlp
p505
I2
sVd4hjzvf
p506
I1
sVdfj1cm1
p507
I1
sVdbxkego
p508
I1
sVd66nhdf
p509
I1
sVd1vsion
p510
I1
sVdidyetw
p511
I1
sVcyhuk39
p512
I1
sVd2l3udj
p513
I1
sVdmzfklp
p514
I1
sVdruvwih
p515
I1
sVd3665w0
p516
I1
sVddpjgsl
p517
I1
sVdiqe8xo
p518
I1
sVd0x6ntc
p519
I1
sVd74qjek
p520
I1
sVd9fiyvr
p521
I1
sVdte2xur
p522
I1
sVdd06r9m
p523
I1
sVdbxfexi
p524
I1
sVd1ij9gs
p525
I1
sVczuxdk2
p526
I1
sVd1t59x3
p527
I1
sVd2tp9si
p528
I1
sVdniq9j0
p529
I1
sVd62asqi
p530
I3
sVdnsihi4
p531
I1
sVdg2e3x9
p532
I1
sVdnn7jv3
p533
I1
sVd5qvhfq
p534
I1
sVcz53zt9
p535
I1
sVdfrm56t
p536
I1
sVdeye834
p537
I1
sVdera750
p538
I1
sVdc97nmw
p539
I1
sVdjbdxm5
p540
I1
sVdbj0gdw
p541
I1
sVdiqf0pg
p542
I1
sVd3juyfu
p543
I1
sVd7ajhzy
p544
I1
sVd6lk0l4
p545
I1
sVd2kzbih
p546
I1
sVdi4g13r
p547
I1
sVd0tqqo0
p548
I2
sVcyonrkv
p549
I2
sVdiqtxcj
p550
I1
sVd7kk039
p551
I1
sVd0r7tz0
p552
I1
sVd1ul65w
p553
I1
sVdcasfg7
p554
I1
sVdpqer3x
p555
I1
sVd2poavg
p556
I1
sVcynbfc8
p557
I1
sVd7aahil
p558
I1
sVd2ek4b7
p559
I1
sVdnk5vit
p560
I1
sVdimmgau
p561
I1
sVd0s051n
p562
I2
sVdnb3qbk
p563
I1
sVd3fiwwo
p564
I1
sVdimvc9s
p565
I1
sVczx24p2
p566
I1
sVdh79nzt
p567
I2
sVdgmzmbn
p568
I1
sVde4tln6
p569
I1
sVcyw69cy
p570
I1
sVdc06xx0
p571
I1
sVdnd5wlw
p572
I1
sVd3daphp
p573
I1
sVd43kd35
p574
I1
sVdksveno
p575
I1
sVdekio0k
p576
I1
sVdex1oyx
p577
I1
sVdfe51y3
p578
I1
sVczg5reo
p579
I1
sVd8dlxvz
p580
I1
sVd7l8gl4
p581
I2
sVd3aqioz
p582
I1
sVd8ecw3p
p583
I1
sVdgrwegw
p584
I1
sVddolrbq
p585
I1
sVdhbeftj
p586
I1
sVdbf01xb
p587
I1
sVd0nr0ly
p588
I1
sVdd5036d
p589
I1
sVcytwtpz
p590
I1
sVdo7qi09
p591
I1
sVd7kom5v
p592
I1
sVd6hb6na
p593
I1
sVdcxq16f
p594
I4
sVdfi4cd2
p595
I1
sVdnbnv5q
p596
I1
sVd0eqc5t
p597
I4
sVdb5jknh
p598
I1
sVdhsswfq
p599
I1
sVdfpxpqh
p600
I1
sVd8gjs3r
p601
I1
sVd4862lr
p602
I1
sVdtiizm7
p603
I1
sVd0rf0yf
p604
I2
sVdfe4nz3
p605
I1
sVd4ryq9h
p606
I1
sVdmlsd7a
p607
I1
sVdgdgg7z
p608
I1
sVdgn9hga
p609
I1
sVdslyvon
p610
I1
sVdpe8jz9
p611
I2
sVdfoe72q
p612
I1
sVdhb859e
p613
I1
sVd3g968p
p614
I1
sVdewvc8d
p615
I1
sVdcpmtlz
p616
I1
sVd5lnpms
p617
I1
sVddpib2d
p618
I1
sVdjhx9m1
p619
I1
sVdio7x3p
p620
I1
sVdq7omq0
p621
I2
sVdehlvg6
p622
I1
sVdau8cel
p623
I1
sVdimgcit
p624
I1
sVdfbo5zn
p625
I2
sVdixqqgk
p626
I1
sVdptgf7c
p627
I1
sVdgvz1dv
p628
I1
sVdee4isz
p629
I1
sVd10xq2o
p630
I1
sVcz4scs6
p631
I1
s.