(dp0
Vd8yfgpf
p1
I1
sVd7twhmo
p2
I1
sVdnb51ep
p3
I1
sVdofp4tl
p4
I5
sVdb9ur0q
p5
I1
sVdmsndtl
p6
I1
sVd3wvnhz
p7
I1
sVdhkaly8
p8
I1
sVd42btly
p9
I1
sVdqs146q
p10
I1
sVd1tvnmw
p11
I1
sVd8sz8m8
p12
I1
sVd3uc0yz
p13
I1
sVd077wj4
p14
I1
sVd5myshk
p15
I1
sVd2lp6n6
p16
I1
sVczsc0zw
p17
I1
sVdehrwtz
p18
I1
sVdnebxv3
p19
I1
sVd4irk0k
p20
I1
sVdo3x476
p21
I2
sVdn06vxf
p22
I2
sVd9hl3qe
p23
I1
sVdnw0acl
p24
I1
sVdcnn215
p25
I1
sVdizl9jy
p26
I1
sVdi6r9yk
p27
I1
sVd12ycac
p28
I1
sVdi6rjxr
p29
I1
sVdkkgss1
p30
I1
sVd6zjlvb
p31
I1
sVczh1g11
p32
I3
sVdmtp5fn
p33
I1
sVd08he1y
p34
I1
sVdrflyyp
p35
I1
sVd1eutqy
p36
I1
sVddrkz9q
p37
I2
sVdd9gaya
p38
I1
sVd2d1bri
p39
I2
sVd8e1tcb
p40
I1
sVczjcs06
p41
I2
sVczh0otp
p42
I2
sVdbcow37
p43
I1
sVdcsysch
p44
I1
sVcyr028t
p45
I1
sVd0asxjh
p46
I1
sVdfad7h3
p47
I1
sVd1iswe2
p48
I1
sVdjbq07s
p49
I1
sVd2508lb
p50
I1
sVda0yg8o
p51
I1
sVdsjgaui
p52
I1
sVczgh4vc
p53
I1
sVdb3zrmn
p54
I1
sVd90e7ll
p55
I1
sVd171w5t
p56
I1
sVdn6jzyk
p57
I1
sVdccbkge
p58
I1
sVdfz29rv
p59
I1
sVdhvjgnl
p60
I1
sVcz892ey
p61
I1
sVd35k070
p62
I1
sVdeuu8ap
p63
I1
sVd382yw2
p64
I1
sVde9x1as
p65
I1
sVcyprd71
p66
I1
sVdi9r0d6
p67
I1
sVdbnvmjp
p68
I1
sVd5rf6vs
p69
I1
sVd1t7dxg
p70
I1
sVdgy6yzp
p71
I2
sVd0y4mkk
p72
I1
sVd0tkbcw
p73
I1
sVd5kluxv
p74
I1
sVdgb29ca
p75
I1
sVdk9cioj
p76
I2
sVdjrk6cj
p77
I1
sVd5i7coy
p78
I1
sVd4mlvz8
p79
I1
sVd4ew9r0
p80
I1
sVd3nuni3
p81
I1
sVdo7xb1j
p82
I1
sVdd1s1k3
p83
I1
sVd188q68
p84
I1
sVd1uyorz
p85
I1
sVdjc40ej
p86
I1
sVdrrp032
p87
I1
sVd37ilv5
p88
I1
sVdepjcsa
p89
I2
sVd7c04b7
p90
I1
sVd9e0kjn
p91
I1
sVdnu8ulf
p92
I1
sVd6b1sim
p93
I1
sVd3shmau
p94
I1
sVdpwkx84
p95
I1
sVd0hwvgq
p96
I1
sVdcfbzvp
p97
I1
sVdhit0f6
p98
I1
sVd81bypw
p99
I2
sVdhky3y4
p100
I1
sVd54ixz4
p101
I1
sVd9s052n
p102
I1
sVczdm7mb
p103
I1
sVdhpnolr
p104
I5
sVd3zxqfp
p105
I1
sVd95n43l
p106
I1
sVdkulrsc
p107
I1
sVds6e90h
p108
I2
sVdemiolc
p109
I1
sVdf68in2
p110
I2
sVd1akqy0
p111
I1
sVdh7cqog
p112
I2
sVdazppte
p113
I1
sVdn0hcgx
p114
I4
sVd133ad9
p115
I1
sVczds0ft
p116
I1
sVdgrnsaa
p117
I1
sVczaa7mi
p118
I1
sVdgnd0sj
p119
I1
sVd40snd0
p120
I1
sVd5l7e6e
p121
I2
sVd52y0hh
p122
I1
sVd7qh3vc
p123
I2
sVd7k5ons
p124
I1
sVdkmi0xt
p125
I1
sVd849b4q
p126
I1
sVd8kf2u2
p127
I1
sVdmrgbpx
p128
I1
sVdcb0z2p
p129
I1
sVd4acmfu
p130
I1
sVd5a6bls
p131
I1
sVdcuo5kh
p132
I3
sVdaggbzd
p133
I2
sVd4lshkb
p134
I1
sVd9xkzub
p135
I1
sVdgvsnq9
p136
I1
sVd7jx6qf
p137
I1
sVdexl3ds
p138
I1
sVd5eee3y
p139
I1
sVdrpxmsb
p140
I1
sVd5n7z0b
p141
I1
sVd26d1n1
p142
I1
sVdak9ef3
p143
I1
sVd30fspk
p144
I1
sVd0hsj4v
p145
I1
sVdc2c9si
p146
I1
sVdkzmm4x
p147
I1
sVd85rylv
p148
I1
sVdqg40bq
p149
I1
sVdq27zqk
p150
I2
sVd9wnz16
p151
I1
sVdkvn64t
p152
I1
sVdex7ash
p153
I1
sVd9r94dc
p154
I6
sVdbnvwd0
p155
I1
sVdrhmz2z
p156
I1
sVdmx1ggy
p157
I1
sVdi6wjua
p158
I1
sVd4nfkm3
p159
I1
sVdhwmdtd
p160
I1
sVdsk7b4z
p161
I1
sVd8kcmju
p162
I1
sVd171ray
p163
I1
sVdmpw9z4
p164
I1
sVdable6m
p165
I1
sVdg9brqg
p166
I1
sVdnjuwq2
p167
I1
sVdauu4ro
p168
I1
sVddxo2qq
p169
I1
sVd6kw4t0
p170
I1
sVczvswui
p171
I1
sVd2u2yc4
p172
I1
sVdcq8ukn
p173
I1
sVd2y2jd2
p174
I1
sVdt7cofz
p175
I2
sVd6tzczn
p176
I2
sVdh7eg47
p177
I1
sVdc0m9px
p178
I1
sVdcccw5s
p179
I2
sVdejfpp0
p180
I1
sVdex7r26
p181
I1
sVdmfmfbp
p182
I2
sVd7fmvze
p183
I1
sVdejcnb7
p184
I1
sVda5mvc8
p185
I1
sVd65n21q
p186
I1
sVdfgqryo
p187
I1
sVd9sovln
p188
I1
sVdike8e5
p189
I1
sVd64aeh9
p190
I2
sVd80rwfv
p191
I1
sVdhndzdl
p192
I1
sVd4avs7y
p193
I1
sVd78g0sz
p194
I1
sVdesau8i
p195
I1
sVd06lwxc
p196
I1
sVdpeio2d
p197
I1
sVd9fc67a
p198
I1
sVcyqrz95
p199
I1
sVczjr47e
p200
I1
sVdexanwx
p201
I1
sVcykek55
p202
I1
sVdfns1w5
p203
I1
sVdh1m29s
p204
I1
sVd10nzw1
p205
I1
sVdh978ma
p206
I1
sVd471e19
p207
I1
sVdi8u7a2
p208
I1
sVdk4811e
p209
I1
sVder3yny
p210
I1
sVdo7ac1l
p211
I1
sVcz6sklu
p212
I1
sVdayix9b
p213
I1
sVdni3iox
p214
I1
sVd4db830
p215
I1
sVd0o9s4k
p216
I1
sVdqlehj3
p217
I1
sVdr7t27v
p218
I1
sVdhxy75s
p219
I2
sVd9y12ii
p220
I2
sVd62aki0
p221
I1
sVdt8limb
p222
I2
sVdbfseuj
p223
I2
sVdfrj828
p224
I1
sVd62ncd2
p225
I2
sVdh5bmcd
p226
I2
sVdop6cn3
p227
I3
sVdgzme2g
p228
I2
sVd7wf089
p229
I1
sVdsb9y3o
p230
I1
sVdctx573
p231
I1
sVd83dtfi
p232
I1
sVdh62pz7
p233
I1
sVd2gexj1
p234
I1
sVd5lgsd1
p235
I1
sVczdm5pd
p236
I1
sVdj8bbpt
p237
I2
sVd0eiuii
p238
I1
sVdi2x70z
p239
I1
sVdgr1nw2
p240
I1
sVdd1v0lg
p241
I1
sVd4vcwei
p242
I1
sVd4xwz8f
p243
I1
sVd04vr0x
p244
I1
sVd80jf9r
p245
I1
sVda3gvri
p246
I1
sVdgi84fo
p247
I1
sVddi35fe
p248
I1
sVdbo4jca
p249
I1
sVcyu6xdn
p250
I1
sVdjo2p2k
p251
I1
sVdmfsw8q
p252
I1
sVd44uch2
p253
I1
sVd9xpshb
p254
I1
sVd88fo8t
p255
I1
sVdffjrk7
p256
I1
sVds89hu0
p257
I1
sVdf6k9rq
p258
I1
sVd1zxn4f
p259
I1
sVd5eg44i
p260
I1
sVdpfh1nm
p261
I1
sVczxlrkw
p262
I1
sVdkgu9rt
p263
I1
sVdgl30g4
p264
I1
sVdru1blq
p265
I1
sVd759mnq
p266
I1
sVdjgdyza
p267
I1
sVd619cgu
p268
I1
sVd6xsp3d
p269
I1
sVdp3eotq
p270
I1
sVd5l05cq
p271
I1
sVdcufygo
p272
I1
sVdnt3vsy
p273
I1
sVcyjgf89
p274
I2
sVd72d34g
p275
I1
sVd0gv70a
p276
I1
sVdp75ck8
p277
I1
sVd1r1ydl
p278
I1
sVd8sabr3
p279
I1
sVdacmnh2
p280
I1
sVdcqydxo
p281
I1
sVdn3980h
p282
I1
sVdghms49
p283
I1
sVdowhbbp
p284
I1
sVdjkf4fc
p285
I1
sVdiwpwd6
p286
I1
sVdemkfn7
p287
I1
sVd2jxerm
p288
I1
sVd0ugcsq
p289
I1
sVdnkq9nv
p290
I1
sVd7y3g86
p291
I1
sVczcwmh8
p292
I1
sVd7hw1dt
p293
I1
sVdnw8giu
p294
I1
sVd9n01cs
p295
I1
sVdar1ri3
p296
I3
sVd9ch9kz
p297
I1
sVd0ysmhm
p298
I1
sVdrgvq2w
p299
I1
sVdky3ztb
p300
I1
sVd2t1ea4
p301
I1
sVdruk9ao
p302
I2
sVdg2lnm4
p303
I2
sVdkj08qi
p304
I2
sVdmw4hgn
p305
I1
sVd8hqzzx
p306
I1
sVdqqmc9s
p307
I2
sVd71d646
p308
I1
sVdjz05bh
p309
I1
sVdpkv5vk
p310
I1
sVdnzl7ra
p311
I2
sVdea37k5
p312
I1
sVczwkku8
p313
I1
sVdbc0lr9
p314
I1
sVdooesuf
p315
I2
sVdepstpt
p316
I1
sVd7oa2mf
p317
I1
sVd0c3hca
p318
I1
sVdkqydbh
p319
I1
sVdcap8lk
p320
I1
sVdd26qky
p321
I1
sVdsgxq97
p322
I1
sVdtddqgc
p323
I1
sVcyke3nu
p324
I1
sVd9eyez5
p325
I1
sVczzb27j
p326
I1
sVdc6f1bd
p327
I1
sVd84v1cs
p328
I1
sVddf68cj
p329
I1
sVdaggy4e
p330
I1
sVdp098qw
p331
I1
sVczpku16
p332
I1
sVdtgl8rl
p333
I2
sVd01s4t3
p334
I1
sVdpatqnt
p335
I4
sVd9g48q5
p336
I1
sVczhc3lt
p337
I3
sVdetm7od
p338
I1
sVd9xurum
p339
I1
sVdbg86no
p340
I1
sVdkjxspb
p341
I1
sVdt9f3ty
p342
I2
sVd270pui
p343
I1
sVdjdlbv8
p344
I1
sVdeq2jjq
p345
I3
sVdk2d3or
p346
I1
sVdaxxhkw
p347
I1
sVdc8ze4t
p348
I1
sVdn5091p
p349
I1
sVdsg72fe
p350
I1
sVdq3zdkl
p351
I1
sVdbp4pwk
p352
I1
sVdeb7fgl
p353
I1
sVdgtmvnx
p354
I1
sVdr86sbz
p355
I1
sVdizlihl
p356
I1
sVd7aaywk
p357
I1
sVd5lya01
p358
I2
sVdcj2ldr
p359
I1
sVdhrkras
p360
I2
sVde7jln0
p361
I1
sVdh14nfh
p362
I1
sVd9fj1di
p363
I1
sVd31p7w9
p364
I1
sVdcl99py
p365
I1
sVd1i2dun
p366
I1
sVdb6obon
p367
I1
sVd28g2cx
p368
I1
sVdj194a6
p369
I1
sVdhz7m30
p370
I1
sVdb9xlxb
p371
I1
sVdc7id8d
p372
I1
sVdeexbyy
p373
I1
sVd3sbqst
p374
I1
sVdk2ipnb
p375
I1
sVdafur1m
p376
I4
sVdjzwajp
p377
I1
sVd8cl299
p378
I1
sVdbskso1
p379
I1
sVd6qi2p3
p380
I1
sVdbroax6
p381
I1
sVdbazafa
p382
I1
sVdiwcd8d
p383
I1
sVd3zcv7g
p384
I1
sVdjdkteo
p385
I1
sVdelwe35
p386
I1
sVcznmuns
p387
I1
sVdnp452u
p388
I3
sVddomypz
p389
I1
sVd8bwzd0
p390
I1
sVd2p41m6
p391
I1
sVd05cnk6
p392
I1
sVd3k7cbq
p393
I1
sVd841ip5
p394
I1
sVdgjcawk
p395
I1
sVde4i7du
p396
I1
sVd073feb
p397
I1
sVdfzzqu5
p398
I1
sVd8fyktf
p399
I1
sVd86sb6p
p400
I1
sVd6unpgl
p401
I2
sVde7jha0
p402
I1
sVdrp7j1o
p403
I1
sVdc6m1im
p404
I1
sVczeekrz
p405
I1
sVds7jrkq
p406
I1
sVd6daprf
p407
I1
sVdhqyq77
p408
I1
sVczwd8yi
p409
I2
sVd82yqgp
p410
I1
sVdgtc2am
p411
I1
sVdri97om
p412
I1
sVde7odc5
p413
I1
sVd7jj8vz
p414
I1
sVdtfqdgj
p415
I3
sVdhpk3z1
p416
I1
sVdkl2s5x
p417
I1
sVd9nrj2p
p418
I1
sVd6yy8wk
p419
I1
sVd0l8ebf
p420
I1
sVczhg2nv
p421
I1
sVdkaktcw
p422
I1
sVdku07md
p423
I2
sVdqcpwi5
p424
I1
sVdmfcxb4
p425
I1
sVd1zszfi
p426
I1
sVd7373x9
p427
I1
sVd69ksy2
p428
I1
sVcyojnxi
p429
I1
sVdtj7ar9
p430
I1
sVd67l8wh
p431
I1
sVdinnx9i
p432
I2
sVdkn2wpu
p433
I1
sVdq6t8xd
p434
I1
sVdpqrgy3
p435
I1
sVd71q7jf
p436
I1
sVdr01k5k
p437
I1
sVd05qb2w
p438
I1
sVd3as3n7
p439
I1
sVdpf4yhq
p440
I1
sVdil4v7y
p441
I1
sVds7nygc
p442
I1
sVdc3c5kw
p443
I1
sVdciq0t2
p444
I1
sVdhqyddv
p445
I1
sVdbvebey
p446
I1
sVdmifp2i
p447
I1
sVdou2mld
p448
I1
sVdpea4xy
p449
I1
sVdth0756
p450
I3
sVd7xgp4d
p451
I1
sVdc69yos
p452
I1
sVczimxar
p453
I1
sVdhznwz8
p454
I1
sVddtvpmg
p455
I1
sVdcba381
p456
I1
sVd6jmamd
p457
I1
sVda314kv
p458
I1
sVda1ygda
p459
I1
sVdse4uqj
p460
I1
sVd39z4eg
p461
I1
sVdd8wxrp
p462
I1
sVdr5ws3j
p463
I1
sVd2hfuqk
p464
I1
sVd8bpw2v
p465
I1
sVdqzu6q8
p466
I1
sVd4k4dyu
p467
I1
sVdi82ssg
p468
I1
sVdbp4hl3
p469
I1
sVdrv1smg
p470
I1
sVd315vjh
p471
I1
sVdjtcq34
p472
I1
sVdksfllc
p473
I1
sVd9nz2fg
p474
I1
sVcz1bfw1
p475
I1
sVdpiym0j
p476
I1
sVdc2x7ou
p477
I1
sVda2somi
p478
I1
sVczqfxxr
p479
I1
sVd8drc3i
p480
I1
sVdsfyh3t
p481
I1
sVdbr91j8
p482
I1
sVdenl4d2
p483
I2
sVd06yk4t
p484
I1
sVdeqcco6
p485
I1
sVd1i1wvk
p486
I1
sVdef2o64
p487
I1
sVdq1ritc
p488
I1
sVd2g8li4
p489
I1
sVd4wbwuq
p490
I1
sVdrqbl0c
p491
I1
sVd5irfn9
p492
I1
sVd7185p4
p493
I3
sVcyjfkxc
p494
I1
sVdax8gui
p495
I1
sVdhzhuqx
p496
I1
sVddqvkr4
p497
I1
sVdqr2djm
p498
I1
sVd7e5d3p
p499
I2
sVdecy3pi
p500
I2
sVdhmyo1w
p501
I1
sVcz0gwch
p502
I1
sVdjoqgvo
p503
I1
sVdoc5d7w
p504
I1
sVd9js1ld
p505
I1
sVd69p0fz
p506
I1
sVdjk4cmg
p507
I1
sVdal1q0t
p508
I4
sVdd3aaol
p509
I1
sVd7xo7v3
p510
I2
sVdha4zqz
p511
I2
sVd5zas1g
p512
I1
sVdj523js
p513
I1
sVdtfsx4b
p514
I1
sVdnd901b
p515
I4
sVd7fgj4o
p516
I2
sVdhi07ji
p517
I1
sVdewud4c
p518
I1
sVdf28tz1
p519
I1
sVd38adyg
p520
I1
sVd2x2pui
p521
I1
sVdhna7eh
p522
I1
sVdj10x85
p523
I1
sVdopmurh
p524
I1
sVda2rhed
p525
I1
sVdnsmihm
p526
I2
sVdc7ofi3
p527
I1
sVd0qxzhp
p528
I1
sVdizdh5t
p529
I1
sVd57bwzd
p530
I1
sVd0ta5o9
p531
I1
sVd7ezdjd
p532
I1
sVde8t8i5
p533
I1
sVd3ahgrg
p534
I1
sVddep3pg
p535
I1
sVd7j5bgh
p536
I2
sVcyshh8y
p537
I1
sVd55428n
p538
I1
sVdhs5a8y
p539
I1
sVdgguwot
p540
I1
sVdrq1ldz
p541
I1
sVczfhonm
p542
I1
sVdde2p1u
p543
I1
sVcz9nl98
p544
I1
sVd6qsx3k
p545
I1
sVdhhytiv
p546
I1
sVdeh742k
p547
I1
sVd0q0nha
p548
I1
sVdew6iwo
p549
I1
sVd9ugdws
p550
I2
sVczf53x1
p551
I1
sVcz5bh6p
p552
I1
sVd028r90
p553
I1
sVdo8qahu
p554
I1
sVdi29ldc
p555
I2
sVczc4ydo
p556
I1
sVd2bb1sp
p557
I1
sVd2ph0w2
p558
I1
sVczd5l8b
p559
I1
sVcywnbuy
p560
I1
sVdmm6zja
p561
I1
sVdaerbdw
p562
I1
sVczg3nin
p563
I1
sVdeegptu
p564
I1
sVczvs937
p565
I1
sVdmfj7u0
p566
I1
sVd8c3vz9
p567
I1
sVd1izcvy
p568
I1
sVd7f959o
p569
I2
sVd2i9318
p570
I1
sVdr7uq0a
p571
I1
sVdd006as
p572
I2
sVdfla25o
p573
I1
sVd6wm8d4
p574
I1
sVdoepfew
p575
I1
sVdd0o0iw
p576
I1
sVdopik1v
p577
I1
sVdpxu11t
p578
I1
sVczej8jj
p579
I1
sVdkkwwy6
p580
I1
sVdfm7pfs
p581
I1
sVdfnfs9w
p582
I1
sVd03nj34
p583
I1
sVd5spbz7
p584
I1
sVddawr2y
p585
I1
sVd5lscwh
p586
I1
sVdawo3we
p587
I1
sVd0vmgoo
p588
I1
sVdic1ecr
p589
I1
sVdq3rlse
p590
I1
sVdpxrpj9
p591
I3
sVd6qnu3i
p592
I1
sVd2kq2kv
p593
I3
sVdafspwz
p594
I1
sVd2snpwp
p595
I1
sVczpqwuw
p596
I1
sVd9scu9p
p597
I1
sVdak9so3
p598
I1
sVd812z6i
p599
I1
sVdak4vsw
p600
I1
sVd2t3byz
p601
I1
sVdmfbww2
p602
I1
sVd67nsi5
p603
I1
sVdpuuqro
p604
I1
sVdnso2cc
p605
I2
sVdjsbhuu
p606
I1
sVdp7iden
p607
I2
sVd3qb8p1
p608
I1
sVdo0dic5
p609
I1
sVczg8yav
p610
I1
sVdmm8qzm
p611
I1
sVd7fg7sv
p612
I1
sVdrk78f3
p613
I1
sVda6jekz
p614
I1
sVds06zg6
p615
I1
sVcyka2z1
p616
I2
sVdnv7wu5
p617
I1
sVdmfhxsg
p618
I1
sVdfjwlvj
p619
I1
sVd3vg6og
p620
I2
sVd8a0shj
p621
I2
sVderjmxv
p622
I1
sVdhei4yb
p623
I1
sVde4nzna
p624
I1
sVdku1hd1
p625
I1
sVd3rffvc
p626
I2
sVdrqp01a
p627
I1
sVd7y2gxc
p628
I2
sVdaom69q
p629
I1
sVd2l2syd
p630
I1
sVdj6kqdj
p631
I1
sVd0k5v71
p632
I1
sVdfb3a9e
p633
I1
sVczfes4f
p634
I1
sVd8n9q5u
p635
I1
sVd4he6xl
p636
I2
sVdiy4rg1
p637
I1
sVd8jg58p
p638
I1
sVdmtdp91
p639
I1
sVd5lxznr
p640
I1
sVdazgv6k
p641
I1
sVd42oy3t
p642
I1
sVddp0yk5
p643
I1
sVdf4tg3d
p644
I1
sVdazpnaz
p645
I1
sVdc7myzo
p646
I1
sVd8l1x7l
p647
I1
sVda8szz1
p648
I1
sVdfljrm5
p649
I1
sVdqfvssk
p650
I1
sVcz5ei0w
p651
I1
sVd4v0o9b
p652
I2
sVd3dbc1o
p653
I1
sVd3hm2dw
p654
I1
sVdhy07jz
p655
I1
sVd62rwyw
p656
I1
sVdtf850x
p657
I1
sVd3and5d
p658
I3
sVd7xtxsk
p659
I1
sVdoeapgc
p660
I1
sVd4k2oe9
p661
I1
sVde7p4ih
p662
I1
sVdhu76rd
p663
I1
sVdabp1ge
p664
I1
sVdpdlfaq
p665
I1
sVdaca1jh
p666
I1
sVde2fx01
p667
I1
sVd0ncxde
p668
I1
sVd4y9s2t
p669
I1
sVd93x789
p670
I1
sVddqn9ly
p671
I1
sVd6jrxar
p672
I1
sVd76rwz4
p673
I1
sVcztb3nx
p674
I1
sVd4gwigj
p675
I1
sVdpaz3zq
p676
I2
sVd8e8kek
p677
I1
sVdd7mxo2
p678
I1
sVdgmwp1x
p679
I1
sVd85tp8d
p680
I1
sVd9x6b2e
p681
I2
sVddtzuzb
p682
I1
sVda48frq
p683
I1
sVddd1ohz
p684
I1
sVcyqhzw2
p685
I1
sVd9dywi8
p686
I1
sVdpbynci
p687
I1
sVdfgtkp2
p688
I1
sVdhxtqf5
p689
I1
sVddxk1ay
p690
I1
sVdjadvci
p691
I1
sVdgmhcn9
p692
I2
sVd8f57rz
p693
I1
sVdjyzfls
p694
I1
sVd3665w0
p695
I1
sVd176zn0
p696
I1
sVdp4nfdu
p697
I2
sVd6fxcws
p698
I3
sVd0d9wxc
p699
I1
sVdh0d23j
p700
I1
sVdej1cr5
p701
I1
sVczqgpjh
p702
I1
sVd6p9byz
p703
I1
sVdccad2o
p704
I1
sVddxnwf2
p705
I1
sVczdx8l9
p706
I1
sVdceg350
p707
I1
sVdey485u
p708
I1
sVdeh4c8y
p709
I2
sVd9427x0
p710
I1
sVdczf25f
p711
I1
sVdi4dccr
p712
I1
sVdeyxj49
p713
I2
sVd35h7wr
p714
I1
sVd9x9puk
p715
I5
sVd0506qr
p716
I1
sVd2t0b9t
p717
I1
sVdmrfyis
p718
I1
sVdcknryv
p719
I1
sVd2svmmc
p720
I1
sVddwes0w
p721
I1
sVdqhwvew
p722
I1
sVddi0qmn
p723
I1
sVd7i6t5r
p724
I1
sVdsaaf4p
p725
I1
sVdjj4b0a
p726
I1
sVdbgfs20
p727
I1
sVdh7cl69
p728
I1
sVdscrf3e
p729
I1
sVd6xn681
p730
I1
sVd8m7pto
p731
I1
sVdqn2zr6
p732
I1
sVdetuccn
p733
I1
sVddf75tq
p734
I1
sVd4nc3k4
p735
I1
sVdizllld
p736
I1
sVdql16z4
p737
I1
sVdk942yf
p738
I1
sVdfs7lqv
p739
I1
sVczkpadr
p740
I1
sVdck393u
p741
I1
sVdce4bvg
p742
I1
sVd2w9c6c
p743
I1
sVcysm0kc
p744
I1
sVdgtlwpk
p745
I7
sVdqq1pb0
p746
I1
sVczzk4sf
p747
I1
sVd1pr94f
p748
I1
sVdt776mr
p749
I1
sVdrt0ndj
p750
I1
sVd2edit6
p751
I1
sVdi2ncsn
p752
I1
sVdokl2mw
p753
I1
sVdn3erv6
p754
I1
sVdb5980x
p755
I1
sVdk79zdk
p756
I1
sVd8z9947
p757
I1
sVdiiex6h
p758
I1
sVd3grxlj
p759
I1
sVdbifhao
p760
I1
sVd8mfifu
p761
I3
sVdelzqeh
p762
I1
sVdf668g0
p763
I1
sVdfynswo
p764
I1
sVdkjfrgr
p765
I1
sVd37wfod
p766
I1
sVd7xple1
p767
I1
sVdi52wh5
p768
I1
sVdivgukx
p769
I1
sVd7b56xq
p770
I2
sVdnuonrz
p771
I1
sVd40ufdc
p772
I1
sVdikfrc1
p773
I1
sVdnq06xf
p774
I1
sVdnjhe7j
p775
I1
sVdbxr9uo
p776
I1
sVdhgj4h3
p777
I1
sVdk8e35u
p778
I1
sVd7nsaxa
p779
I1
sVd0y22km
p780
I1
sVd4krtfn
p781
I2
sVdbc3xlv
p782
I1
sVderck2i
p783
I1
sVd32z0oq
p784
I1
sVdqwtdtk
p785
I1
sVdjwze2p
p786
I1
sVdnm92os
p787
I1
sVd1vxxjo
p788
I1
sVd0rlpfn
p789
I2
sVdj6pudj
p790
I1
sVd074ac9
p791
I1
sVcypzfo3
p792
I2
sVdj510qh
p793
I2
sVdt0flpg
p794
I1
sVd55xvrm
p795
I1
sVdg3cjk6
p796
I1
sVddx09fa
p797
I1
sVdf997tz
p798
I1
sVd0xzwip
p799
I1
sVczafp8b
p800
I1
sVdnkyl76
p801
I1
sVdo2kkfs
p802
I2
sVdbpzkbc
p803
I1
sVdhv1gx7
p804
I1
sVdemxggn
p805
I1
sVddawcxn
p806
I1
sVdnhfh9z
p807
I1
sVdsinhzc
p808
I1
sVd69inpa
p809
I3
sVd69jnd1
p810
I1
sVdai66pv
p811
I1
sVdac5xfb
p812
I2
sVdar08tg
p813
I1
sVdaxardg
p814
I3
sVdkpyyaq
p815
I1
sVdaib6c2
p816
I1
sVdg6owr3
p817
I1
sVczqmnue
p818
I1
sVczh1unm
p819
I1
sVd0racba
p820
I1
sVdpwl9bn
p821
I1
sVd14jffr
p822
I1
sVd6mg0aq
p823
I1
sVd1d73s1
p824
I1
sVde328g3
p825
I2
sVd3f3zym
p826
I1
sVdeyeyma
p827
I1
sVd1memjx
p828
I2
sVde0xv5z
p829
I1
sVdnitwpu
p830
I1
sVdf8302l
p831
I1
sVd1q1r02
p832
I1
sVdipskrn
p833
I2
sVd9n0v4a
p834
I1
sVdevkx7q
p835
I1
sVd01zskh
p836
I1
sVd8x76cn
p837
I1
sVdad9q0u
p838
I1
sVd4gzz8g
p839
I2
sVdtc5f6e
p840
I2
sVdsyvhfc
p841
I1
sVdp7tyln
p842
I1
sVde7rbz6
p843
I1
sVd0r5876
p844
I2
sVcznmzc6
p845
I1
sVd0l1lqn
p846
I1
sVdhjaqwl
p847
I1
sVdda8wup
p848
I1
sVdhdgfw8
p849
I1
sVd43moky
p850
I1
sVcyplzms
p851
I1
sVdmze1va
p852
I1
sVd1guz9b
p853
I1
sVd3rt7va
p854
I1
sVd504g7h
p855
I1
sVde7enu6
p856
I1
sVddiszg7
p857
I3
sVdfnh3nj
p858
I1
sVdpf88tp
p859
I2
sVdfprrwz
p860
I1
sVdn566ck
p861
I1
sVd1u1a4o
p862
I1
sVdhgjyjd
p863
I1
sVddngcif
p864
I2
sVdb72zcf
p865
I1
sVdivs4q3
p866
I1
sVczw4h3i
p867
I1
sVdmkkhg8
p868
I1
sVd5o1jxo
p869
I1
sVd4fnw3i
p870
I1
sVdk8pohi
p871
I1
sVdfrszzy
p872
I1
sVdcb2o4m
p873
I1
sVdbragn8
p874
I1
sVdi9gvxm
p875
I1
sVd36dtnt
p876
I1
sVdgharp3
p877
I1
sVdanyy84
p878
I1
sVdt47zkq
p879
I1
sVd090u73
p880
I2
sVdpipo4k
p881
I1
sVd4ma6f9
p882
I1
sVdbw97sb
p883
I1
sVdow36r2
p884
I1
sVdbxvzov
p885
I1
sVd2isuga
p886
I1
sVd6s3plx
p887
I1
sVdbhajnt
p888
I1
sVcypqxzc
p889
I2
sVdpwcqjv
p890
I1
sVdjvmawf
p891
I1
sVdeizxi0
p892
I3
sVdpatky0
p893
I2
sVdjgphkc
p894
I1
sVczvmap6
p895
I1
sVdgcdxid
p896
I1
sVd4uw2fh
p897
I1
sVdj5vlca
p898
I1
sVdpgsdp6
p899
I1
sVdd9xpwv
p900
I1
sVdkf1nh4
p901
I2
sVds8m7s5
p902
I1
sVdf161gm
p903
I1
sVdsmdx71
p904
I1
sVde6vdf8
p905
I1
sVcyu3kmi
p906
I1
sVdaskw3d
p907
I1
sVdiqvrza
p908
I2
sVdehtddo
p909
I1
sVd27nibh
p910
I2
sVcypg4at
p911
I1
sVd4gk1hr
p912
I1
sVddx7kov
p913
I1
sVdrybq7r
p914
I1
sVd3of5tr
p915
I1
sVddinpg7
p916
I1
sVdnomxie
p917
I1
sVd6xyj7l
p918
I1
sVdewoidi
p919
I1
sVd3hvxzb
p920
I1
sVdf5de98
p921
I2
sVdgf0lmk
p922
I1
sVd8m3fyl
p923
I1
sVdtfyt8i
p924
I1
sVd9pf8k3
p925
I1
sVdd11gf5
p926
I1
sVdafn3kz
p927
I1
sVd1lvfqe
p928
I2
sVdpfldfr
p929
I1
sVdt7p3eo
p930
I1
sVd9hznoc
p931
I1
sVd7mukpw
p932
I1
sVdpww04t
p933
I3
sVd3dzeiv
p934
I1
sVdc25lx8
p935
I2
sVdhyr0sq
p936
I1
sVd7m9kr3
p937
I1
sVd3bi795
p938
I1
sVd0r3vfp
p939
I2
sVde2gbmi
p940
I1
sVdi50dk3
p941
I1
sVdaie30u
p942
I1
sVd2muc6e
p943
I1
sVdeo5y9j
p944
I1
sVdb8ufzw
p945
I1
sVd1g9chq
p946
I1
sVd9quw0t
p947
I1
sVd1qhpup
p948
I1
sVd2ccf0u
p949
I1
sVdopwqqs
p950
I1
sVd7xmxly
p951
I1
sVddy1f35
p952
I1
sVdcmkuhf
p953
I1
sVdinirzw
p954
I1
sVdfvonf9
p955
I1
sVd9rbero
p956
I1
sVd5uph1l
p957
I1
sVd4vhnis
p958
I1
sVdgq9waq
p959
I1
sVdmik8of
p960
I1
sVdeizlsy
p961
I1
sVdqgk4bb
p962
I1
sVdjq5ue3
p963
I1
sVdoa9v2g
p964
I1
sVdbssywe
p965
I1
sVdnolr22
p966
I1
sVd8k5u93
p967
I1
sVd1huxz0
p968
I1
sVd9jq3so
p969
I1
sVd8apquh
p970
I1
sVd9ndkww
p971
I3
sVd6sm5az
p972
I1
sVdphugif
p973
I1
sVdawqptp
p974
I1
sVdoz297i
p975
I5
sVd5k73jk
p976
I1
sVd1z7si1
p977
I1
sVd05yxvr
p978
I1
sVdjohekv
p979
I1
sVdj4hudg
p980
I1
sVd8edold
p981
I2
sVdo5jjhn
p982
I1
sVdb4rkk3
p983
I1
sVdaojvon
p984
I2
sVd2t3qw2
p985
I1
sVd2cz3u4
p986
I2
sVdmrdklz
p987
I2
sVd64ak96
p988
I2
sVczkyv79
p989
I1
sVd51q3p1
p990
I1
sVd7yz6h4
p991
I1
sVdh438tv
p992
I1
sVdgljp7q
p993
I1
sVdfha6eh
p994
I1
sVd8460p5
p995
I2
sVczt7rrq
p996
I1
sVdgx7v7y
p997
I1
sVdoixqco
p998
I1
sVd07dt1h
p999
I1
sVdahxm35
p1000
I1
sVd8kdlh7
p1001
I1
sVddwi4lj
p1002
I1
sVdfwzpyb
p1003
I1
sVd66x0wd
p1004
I2
sVdbb2z71
p1005
I2
sVdt6hems
p1006
I1
sVd5szy82
p1007
I1
sVdc9rgma
p1008
I1
sVcyposws
p1009
I1
sVcypd5lj
p1010
I1
sVdh9jhc5
p1011
I1
sVdss1ez2
p1012
I1
sVdjtm9wl
p1013
I1
sVdi4owsg
p1014
I1
sVdq6byxx
p1015
I1
sVd7y2cem
p1016
I1
sVd3f41qx
p1017
I1
sVdb5d0a6
p1018
I1
sVczec31x
p1019
I1
sVdk4oj6z
p1020
I1
sVdnpsaey
p1021
I1
sVdprpfxx
p1022
I1
sVdsseyx6
p1023
I2
sVcz9s1eg
p1024
I1
sVd7lj07z
p1025
I1
sVdeyx7vh
p1026
I1
sVd1ze4e4
p1027
I1
sVdcf0k3q
p1028
I1
sVdeh8e8q
p1029
I1
sVdfii9qz
p1030
I1
sVdh5vze1
p1031
I1
sVdamcntk
p1032
I1
sVd33g46i
p1033
I1
sVd9re185
p1034
I1
sVd2qaij5
p1035
I1
sVdo9iajs
p1036
I1
sVdmw56nr
p1037
I3
sVdhrqi5q
p1038
I1
sVd5jmabu
p1039
I1
sVdemmd11
p1040
I1
sVd1pb9a1
p1041
I1
sVdmwi7vg
p1042
I2
sVdizjduo
p1043
I1
sVd5f13u2
p1044
I1
sVdjxwdef
p1045
I4
sVd5qn84e
p1046
I1
sVdaz89xj
p1047
I1
sVdi9obmc
p1048
I1
sVd1w7emf
p1049
I1
sVd0d5hi8
p1050
I1
sVd5m0g6u
p1051
I1
sVd0kc0qv
p1052
I1
sVdabjzux
p1053
I1
sVdqsy6vg
p1054
I1
sVd4rnryx
p1055
I1
sVd6gakgl
p1056
I1
sVdipe8cd
p1057
I1
sVdh37b3i
p1058
I2
sVd9bom24
p1059
I1
sVdrmism6
p1060
I1
sVdhcm1gj
p1061
I1
sVdqgzk36
p1062
I1
sVd990f4y
p1063
I1
sVdi6lqmg
p1064
I1
sVdctgckx
p1065
I1
sVdbsrp7i
p1066
I1
sVdsgin8s
p1067
I2
sVd50j8u2
p1068
I1
sVd4mqm44
p1069
I1
sVdo53sbv
p1070
I1
sVd82zpdl
p1071
I1
sVdbl7m9b
p1072
I1
sVd71o3qc
p1073
I1
sVdex3snw
p1074
I4
sVdpk7we1
p1075
I1
sVdexpq4s
p1076
I1
sVdn82a1r
p1077
I1
sVdc6uxd3
p1078
I1
sVd2r7l1o
p1079
I1
sVczjgpae
p1080
I1
sVdgkaz6o
p1081
I1
sVd3okpr7
p1082
I2
sVd8swolf
p1083
I1
sVdk5i46d
p1084
I1
sVdb0xhz6
p1085
I4
sVdd53d5q
p1086
I1
sVddf8ac6
p1087
I1
sVd4wc8nh
p1088
I1
sVczkq687
p1089
I1
sVdp2yjuw
p1090
I1
sVdrtdkmg
p1091
I1
sVczavb85
p1092
I1
sVczd0m4c
p1093
I1
sVdnw664m
p1094
I2
sVdgv1gj2
p1095
I1
sVd232ox1
p1096
I1
sVd62qz2c
p1097
I1
sVd8njsol
p1098
I1
sVddut4w0
p1099
I1
sVd35g1p1
p1100
I1
sVdi98u0h
p1101
I1
sVd2aa7ac
p1102
I1
sVd3qhehb
p1103
I1
sVdpg9f8p
p1104
I1
sVdkj2cgw
p1105
I1
sVd2tk8fo
p1106
I1
sVd5k0f5r
p1107
I1
sVdnd4moe
p1108
I1
sVdk5tvgw
p1109
I1
sVdjlw29z
p1110
I1
sVd9nheom
p1111
I1
sVdf1kp4e
p1112
I1
sVdpapw3m
p1113
I1
sVcz09ftb
p1114
I1
sVdcbk6uw
p1115
I1
sVdt8yq1w
p1116
I1
sVd3j05qt
p1117
I1
sVdsrx8cz
p1118
I1
sVdichocd
p1119
I3
sVdfe1aq9
p1120
I1
sVdac8tjz
p1121
I1
sVd01qz55
p1122
I1
sVdhjfv6i
p1123
I1
sVdn4b2o0
p1124
I1
sVdsrv6q1
p1125
I1
sVd4v7uyq
p1126
I1
sVdcm5xag
p1127
I1
sVcyxa3p0
p1128
I1
sVdikljzc
p1129
I1
sVd0yruge
p1130
I1
sVd1p1xh4
p1131
I1
sVcyz9j9k
p1132
I1
sVdjqn99s
p1133
I1
sVdn26kmu
p1134
I1
sVdp7mewq
p1135
I1
sVdg95ug2
p1136
I1
sVd7h5fzz
p1137
I1
sVd51v2ss
p1138
I2
sVd3cg1je
p1139
I1
sVdi7fpf8
p1140
I1
sVdaxc32a
p1141
I1
sVdhqniqw
p1142
I4
sVd0rf0yf
p1143
I3
sVd4iqhko
p1144
I1
sVd2q0iro
p1145
I1
sVd8a2xb2
p1146
I1
sVde59thi
p1147
I1
sVdbwuqr8
p1148
I1
sVd7e6c69
p1149
I1
sVds4oamw
p1150
I1
sVdilr71n
p1151
I1
sVda9i1yg
p1152
I1
sVdmf14z4
p1153
I4
sVdptgf7c
p1154
I2
sVds9sz7t
p1155
I2
sVdgo68um
p1156
I1
sVdmfha8h
p1157
I1
sVczj7dzs
p1158
I1
sVdbvfgpg
p1159
I1
sVdaph7go
p1160
I1
sVdkn51g8
p1161
I1
sVd8peyzn
p1162
I1
sVd5s72ls
p1163
I1
sVdc30d5n
p1164
I1
sVd8ovh0e
p1165
I2
sVd5ajvbt
p1166
I1
sVdi33dby
p1167
I1
sVdd8kydy
p1168
I1
sVd1ws7nt
p1169
I1
sVdcbpjyj
p1170
I1
sVdenn4xn
p1171
I1
sVdbyd9k7
p1172
I2
sVd6a8b9z
p1173
I1
sVdsdk0mk
p1174
I1
sVd23s58f
p1175
I1
sVdc9cnzq
p1176
I1
sVdeqm4xz
p1177
I1
sVdhu81iq
p1178
I1
sVd8jp6an
p1179
I2
sVd6wqdvs
p1180
I1
sVcyumqzi
p1181
I1
sVda1loy1
p1182
I1
sVczdpidh
p1183
I1
sVd3b3iji
p1184
I1
sVd9y1jsb
p1185
I1
sVdbgh4pz
p1186
I1
sVd9as7po
p1187
I1
sVd7nmz4l
p1188
I1
sVczj7exb
p1189
I1
sVdag7bcy
p1190
I1
sVde8uqln
p1191
I1
sVdckr08v
p1192
I3
sVdenpx2r
p1193
I1
sVds9w2i0
p1194
I1
sVdrp0rxn
p1195
I1
sVdax6hcq
p1196
I1
sVdhgfih5
p1197
I1
sVdqrpn5b
p1198
I1
sVd64beis
p1199
I3
sVd0sy7jh
p1200
I2
sVdmn10nu
p1201
I1
sVdbly7wg
p1202
I1
sVczavspe
p1203
I1
sVd10jy70
p1204
I1
sVdbbwm9k
p1205
I1
sVdi8v40p
p1206
I1
sVde0quot
p1207
I1
sVd592dss
p1208
I1
sVdhyqwn4
p1209
I1
sVd69l94w
p1210
I1
sVdes8ka4
p1211
I1
sVd3aoq5n
p1212
I1
sVdbqpv28
p1213
I1
sVdcctuvo
p1214
I1
sVd0lqlnw
p1215
I1
sVd1hm8iv
p1216
I1
sVdchinxg
p1217
I1
sVddxwzyn
p1218
I1
sVd9td9ze
p1219
I1
sVdc3ud92
p1220
I2
sVdpwpb1n
p1221
I1
sVdd7dr5q
p1222
I1
sVdmw8ocz
p1223
I2
sVd3gxcpz
p1224
I1
sVd7sxxim
p1225
I3
sVdms4ut2
p1226
I1
sVcyljp66
p1227
I1
sVdk45h09
p1228
I1
sVd2kzx3r
p1229
I1
sVder069o
p1230
I1
sVczky51r
p1231
I1
sVdrnn13u
p1232
I1
sVdb8vjdk
p1233
I1
sVdbg7bse
p1234
I1
sVdr7se4u
p1235
I1
sVd3emjql
p1236
I2
sVdcxvcqz
p1237
I3
sVd120sg9
p1238
I1
sVdii6vv5
p1239
I1
sVdn4asmu
p1240
I3
sVczom39p
p1241
I1
sVdmfxc8f
p1242
I2
sVdrdeu3f
p1243
I1
sVdmvu260
p1244
I1
sVd9o1ckh
p1245
I1
sVdqibf2w
p1246
I1
sVd9f4xy9
p1247
I1
sVd9r4icc
p1248
I1
sVd9td664
p1249
I1
sVde7oje7
p1250
I1
sVdi6jgpm
p1251
I1
sVdebocdx
p1252
I1
sVczw5fsr
p1253
I1
sVdbvajgc
p1254
I1
sVd1vkina
p1255
I1
sVd2f6plu
p1256
I1
sVd2f2jej
p1257
I1
sVd4xwx1f
p1258
I1
sVdsgz2hl
p1259
I1
sVd2p7yd6
p1260
I1
sVd2onkl0
p1261
I1
sVdi24koc
p1262
I1
sVdsk55lq
p1263
I1
sVdpx4qwr
p1264
I1
sVcyk3k2j
p1265
I1
sVd9e09wg
p1266
I2
sVd9xlmc2
p1267
I2
sVde16v9u
p1268
I2
sVdnxamvl
p1269
I1
sVd3t3xzg
p1270
I1
sVd1dy6qi
p1271
I1
sVdgy76cz
p1272
I1
sVdej02v1
p1273
I1
sVd1y76bm
p1274
I3
sVd62s54t
p1275
I1
sVdgjlj7e
p1276
I1
sVdoki7pa
p1277
I1
sVdg1qhpq
p1278
I1
sVd0ru7y1
p1279
I3
sVdf1xf0f
p1280
I1
sVdh31qh6
p1281
I1
sVd9moaeo
p1282
I1
sVdedb0a7
p1283
I1
sVdmvi5ih
p1284
I1
sVdc4tjmx
p1285
I1
sVd2sd75t
p1286
I1
sVdeics4x
p1287
I1
sVcziccox
p1288
I1
sVdny5t5v
p1289
I1
sVcztxweu
p1290
I1
sVd5veyv8
p1291
I1
sVdqdkse6
p1292
I1
sVder7tzk
p1293
I1
sVdh2ocaa
p1294
I2
sVd354rso
p1295
I1
sVdbj5d46
p1296
I1
sVdb72tsc
p1297
I1
sVd6tido0
p1298
I1
sVdkc7d5n
p1299
I1
sVdqm5qsn
p1300
I1
sVdea9ph6
p1301
I3
sVdbnzndc
p1302
I1
sVdhmk1km
p1303
I1
sVd0az726
p1304
I1
sVdgieb57
p1305
I1
sVdbhpizg
p1306
I1
sVdo8kib7
p1307
I1
sVdndmi56
p1308
I1
sVdgi7jnj
p1309
I1
sVd3v8s6u
p1310
I1
sVdqtqmbj
p1311
I1
sVdpqp6ir
p1312
I1
sVd3qxs5i
p1313
I1
sVczsjmjc
p1314
I1
sVd97jc7l
p1315
I1
sVdakwmu6
p1316
I1
sVdjf61et
p1317
I1
sVd2p4k21
p1318
I1
sVd62rgfo
p1319
I1
sVd7f7wai
p1320
I3
sVdbf01xb
p1321
I1
sVdbn5i0p
p1322
I1
sVcykbtg1
p1323
I1
sVd69ls6u
p1324
I1
sVdbjdoon
p1325
I1
sVdduzn9s
p1326
I1
sVdhik5i0
p1327
I1
sVd5zaxgr
p1328
I1
sVd19prfd
p1329
I1
sVd6dkcfg
p1330
I1
sVczggx45
p1331
I1
sVd2seuxc
p1332
I1
sVdcsemzf
p1333
I1
sVdnboey5
p1334
I1
sVdo5gpch
p1335
I1
sVdel4efc
p1336
I1
sVdd7dzgf
p1337
I1
sVd7xheth
p1338
I1
sVdat9ezk
p1339
I3
sVdbmsv5x
p1340
I1
sVdhzsaga
p1341
I1
sVdb492mi
p1342
I1
sVd7yykcu
p1343
I1
sVd3z62l5
p1344
I1
sVdc88dcp
p1345
I1
sVd614930
p1346
I1
sVd9kdsqy
p1347
I1
sVdf46w7m
p1348
I2
sVd3t2nz0
p1349
I1
sVd28mexx
p1350
I1
sVdagikou
p1351
I2
sVdkxvpog
p1352
I2
sVdao03w6
p1353
I1
sVdn6q57l
p1354
I1
sVdgbwbzj
p1355
I1
sVdcklejc
p1356
I1
sVdt9colb
p1357
I2
sVd7mdx21
p1358
I1
sVd9hkieo
p1359
I1
sVda2w3au
p1360
I1
sVd2fz4dh
p1361
I1
sVdbn37vg
p1362
I1
sVdd33iv9
p1363
I1
sVdc4437q
p1364
I1
sVdmv91x6
p1365
I1
sVd26kvvw
p1366
I1
sVd8hownm
p1367
I2
sVdatdblw
p1368
I1
sVde8tx9v
p1369
I1
sVdaft0cb
p1370
I2
sVdkys08n
p1371
I2
sVdbu2glp
p1372
I1
sVdfgkopr
p1373
I2
sVdcbf4qh
p1374
I1
sVdr6jag3
p1375
I2
sVdfaiqrv
p1376
I1
sVd5v6r5m
p1377
I1
sVdrum2ca
p1378
I1
sVd3nj2zy
p1379
I1
sVd0720sk
p1380
I1
sVd93t0mb
p1381
I1
sVd4o7ziv
p1382
I1
sVcz1i56l
p1383
I1
sVd4eehu0
p1384
I1
sVdf32pca
p1385
I1
sVcz5ftce
p1386
I1
sVd5djgv6
p1387
I1
sVd8jtdgl
p1388
I2
sVdq05de5
p1389
I1
sVd7qu17i
p1390
I1
sVdmln1mi
p1391
I2
sVdpxhuu9
p1392
I1
sVdbgqjib
p1393
I1
sVdfgibxa
p1394
I1
sVdqspk27
p1395
I1
sVd6eaknu
p1396
I2
sVd00rnwb
p1397
I1
sVd5rilbz
p1398
I1
sVdkbr1mz
p1399
I1
sVdmfkvvp
p1400
I1
sVdh3239n
p1401
I1
sVczqg8t2
p1402
I1
sVdirb197
p1403
I1
sVd6hqdm2
p1404
I2
sVdbmqo0a
p1405
I1
sVcyxhalu
p1406
I1
sVdnptqqe
p1407
I2
sVdmiyyey
p1408
I1
sVdc0vvyu
p1409
I1
sVd0r79ca
p1410
I1
sVdb6drys
p1411
I1
sVdc9nint
p1412
I2
sVdd5fol1
p1413
I1
sVdjq9cax
p1414
I1
sVdnkoanh
p1415
I1
sVd37kd62
p1416
I1
sVdcuh53g
p1417
I2
sVds8deti
p1418
I1
sVd44l7sg
p1419
I1
sVd2d34r8
p1420
I2
sVcz4hyop
p1421
I1
sVdcku0j8
p1422
I1
sVdh8aseh
p1423
I2
sVd0sjidv
p1424
I1
sVdt2wded
p1425
I1
sVdgh10u6
p1426
I1
sVd6hga4x
p1427
I1
sVdiwkek3
p1428
I1
sVdeh26pr
p1429
I1
sVd5t0efl
p1430
I1
sVd0ydmd0
p1431
I1
sVd23otq2
p1432
I1
sVd4jieiw
p1433
I1
sVdemom9i
p1434
I1
sVdbq1xfv
p1435
I1
sVd0493pq
p1436
I1
sVddkf6mg
p1437
I1
sVdiqgbgy
p1438
I1
sVdpj949g
p1439
I1
sVd44mjry
p1440
I1
sVdnzsg64
p1441
I1
sVdn82399
p1442
I1
sVdjylgub
p1443
I2
sVd7gix17
p1444
I2
sVd5zgj8a
p1445
I1
sVdq2pxyl
p1446
I1
sVdhra4e3
p1447
I1
sVdadoenh
p1448
I1
sVd7vd92s
p1449
I1
sVdsev91v
p1450
I1
sVdelvuzf
p1451
I1
sVd08p81o
p1452
I1
sVdsosvvp
p1453
I2
sVdjin5jy
p1454
I1
sVd5fmujo
p1455
I1
sVdgrq7ia
p1456
I1
sVd9fbhkz
p1457
I1
sVdbp8txd
p1458
I1
sVd1t9pi2
p1459
I1
sVdqzvy5i
p1460
I1
sVdiwpv0y
p1461
I1
sVdranjgb
p1462
I1
sVdes3o3h
p1463
I1
sVd6mcywf
p1464
I1
sVdjp0i5w
p1465
I1
sVd9r8ob5
p1466
I1
sVczki5yw
p1467
I1
sVds4pkqt
p1468
I1
sVczqgxuh
p1469
I1
sVdmnktk0
p1470
I1
sVd4gwq77
p1471
I1
sVd9nqoty
p1472
I1
sVd7e815u
p1473
I1
sVd0y5qgg
p1474
I1
sVdnn4jse
p1475
I1
sVddos16y
p1476
I1
sVda0yjwt
p1477
I1
sVd0jgpww
p1478
I1
sVdsj9qqg
p1479
I1
sVd15ymfv
p1480
I1
sVdc3krrl
p1481
I3
sVdc46aen
p1482
I1
sVd55hzwa
p1483
I3
sVd0y3vev
p1484
I1
sVd019ow5
p1485
I1
sVdk1vfy5
p1486
I1
sVdkicbbv
p1487
I1
sVdsv15k4
p1488
I1
sVdmf1c32
p1489
I1
sVdcgrpav
p1490
I1
sVd4p018t
p1491
I1
sVd36y7tw
p1492
I1
sVdpep6yg
p1493
I1
sVdnhaqy1
p1494
I1
sVd12wyzs
p1495
I1
sVdfn9yg5
p1496
I2
sVd4amgds
p1497
I1
sVd6ylrt1
p1498
I1
sVdre1cka
p1499
I2
sVdfrlsuf
p1500
I1
sVdc0ljzg
p1501
I1
sVdphqvsm
p1502
I1
sVdnn1zuf
p1503
I1
sVddb1eaz
p1504
I1
sVdalk4ar
p1505
I1
sVd253n8b
p1506
I1
sVdsi3vrd
p1507
I1
sVdq3zy94
p1508
I1
sVd3si85x
p1509
I1
sVdqu1ene
p1510
I2
sVdipr89g
p1511
I1
sVcywwvlh
p1512
I2
sVd0l32n2
p1513
I1
sVdp246d0
p1514
I1
sVdqpe4im
p1515
I1
sVd4glcxi
p1516
I7
sVd7usbqm
p1517
I2
sVcz4v5h9
p1518
I1
sVd7nh7n4
p1519
I1
sVdq2a4u3
p1520
I2
sVdiqz0ze
p1521
I1
sVd9r6n40
p1522
I1
sVdeinjjq
p1523
I1
sVdthlrls
p1524
I1
sVd0xzcdv
p1525
I1
sVd3146ih
p1526
I4
sVdbf8gqy
p1527
I1
sVd3zi9ev
p1528
I1
sVddi5w0x
p1529
I1
sVd3f3xwu
p1530
I1
sVdc3um0q
p1531
I1
sVd8x5238
p1532
I1
sVdbml50d
p1533
I3
sVdaa7edw
p1534
I1
sVdjbq8qx
p1535
I1
sVde10e0v
p1536
I1
sVd2fc6wf
p1537
I4
sVdmfqbqy
p1538
I1
sVdbdd3fx
p1539
I1
sVd90i1m3
p1540
I2
sVdszajso
p1541
I1
sVdja4sie
p1542
I1
sVdnukilt
p1543
I1
sVdihcji6
p1544
I1
sVdnkzlfa
p1545
I3
sVdec52ck
p1546
I1
sVd97cndg
p1547
I1
sVdex4jco
p1548
I1
sVd01r2a3
p1549
I1
sVcyi7ozf
p1550
I1
sVdkikavi
p1551
I1
sVczw345c
p1552
I1
sVd2w0jr0
p1553
I1
sVdikkt9x
p1554
I1
sVd8do8qq
p1555
I1
sVdbur7gi
p1556
I1
sVdfmksw7
p1557
I1
sVdfu5g4s
p1558
I1
sVd2z4grn
p1559
I1
sVd0fe9fy
p1560
I1
sVd3n1bnj
p1561
I1
sVd3hsr3z
p1562
I1
sVdngeu8v
p1563
I1
sVdc5hvc9
p1564
I1
sVd6xl47d
p1565
I2
sVdbi64pa
p1566
I1
sVd2tiz05
p1567
I1
sVdms0yfk
p1568
I1
sVdeqwugt
p1569
I4
sVd7jfl1l
p1570
I1
sVde34cta
p1571
I1
sVdgx3nxv
p1572
I1
sVdfpp9yc
p1573
I1
sVdpmkhjg
p1574
I1
sVdbslqjk
p1575
I1
sVdpwk22o
p1576
I1
sVdd1gq6d
p1577
I1
sVdbe2sd8
p1578
I1
sVd7soc4k
p1579
I1
sVdhbuthd
p1580
I1
sVd8vacho
p1581
I1
s.