(dp0
Vcyop3mh
p1
I1
s.(dp0
Vcyxmnii
p1
I1
sVcyop3mh
p2
I1
s.(dp0
Vd0epek9
p1
I1
sVcyop3mh
p2
I1
s.(dp0
Vcyop3mh
p1
I1
sVd0t84oq
p2
I1
s.(dp0
Vd25kmem
p1
I1
sVcyop3mh
p2
I1
s.(dp0
Vd2ltdcn
p1
I1
sVcyop3mh
p2
I1
s.(dp0
Vcyop3mh
p1
I1
sVd2my2ee
p2
I1
s.(dp0
Vcyop3mh
p1
I1
sVd3atr60
p2
I1
s.(dp0
Vd3jil8v
p1
I1
sVcyop3mh
p2
I1
s.(dp0
Vcyop3mh
p1
I1
sVd3o8dr1
p2
I1
s.(dp0
Vd3woi8e
p1
I1
sVcyop3mh
p2
I1
s.(dp0
Vd4e6im7
p1
I1
sVcyop3mh
p2
I1
s.(dp0
Vd4e6im7
p1
I1
sVcyop3mh
p2
I1
s.(dp0
Vd5seepd
p1
I1
sVcyop3mh
p2
I1
s.(dp0
Vd6x8pn3
p1
I1
sVcyop3mh
p2
I1
s.(dp0
Vd8yvcgc
p1
I1
sVcyop3mh
p2
I1
s.(dp0
Vcyop3mh
p1
I1
sVd8yvye3
p2
I1
s.(dp0
Vd9nyl7m
p1
I1
sVcyop3mh
p2
I1
s.(dp0
Vdajfqb1
p1
I1
sVcyop3mh
p2
I1
s.(dp0
Vdajfqb1
p1
I1
sVcyop3mh
p2
I1
s.(dp0
Vdaxh9ei
p1
I1
sVcyop3mh
p2
I1
s.(dp0
Vcyop3mh
p1
I1
sVddx5w3s
p2
I1
s.(dp0
Vcyop3mh
p1
I1
sVddx5w3s
p2
I1
s.(dp0
Vdegtsk2
p1
I1
sVcyop3mh
p2
I1
s.(dp0
Vdfiozv9
p1
I1
sVcyop3mh
p2
I1
s.(dp0
Vcyop3mh
p1
I1
sVdfvp329
p2
I1
s.(dp0
Vcyop3mh
p1
I1
sVdt1thc6
p2
I1
s.