(dp0
Vd0py4ou
p1
I1
s.(dp0
Vd0py4ou
p1
I1
sVd17suhn
p2
I1
s.(dp0
Vd0py4ou
p1
I1
sVd17suhn
p2
I1
s.(dp0
Vd0py4ou
p1
I1
sVd1e0d9v
p2
I1
s.(dp0
Vd0py4ou
p1
I1
sVd4bskrw
p2
I1
s.(dp0
Vd0py4ou
p1
I1
sVd6oemz6
p2
I1
s.(dp0
Vd0py4ou
p1
I1
sVdahzlf2
p2
I1
s.(dp0
Vd0py4ou
p1
I1
sVdats2eu
p2
I1
s.(dp0
Vd0py4ou
p1
I1
sVdjrpewc
p2
I1
s.(dp0
Vd0py4ou
p1
I1
sVdqg795c
p2
I1
s.(dp0
Vd0py4ou
p1
I1
sVdqgaaro
p2
I1
s.