(dp0
Vd0346x3
p1
I1
sVd3msekn
p2
I3
sVd4z21p5
p3
I1
sVd36433j
p4
I1
sVdaph7go
p5
I1
sVd1i1h1w
p6
I1
sVdfxc7lv
p7
I1
sVd04alqg
p8
I1
sVd4h22fl
p9
I1
sVd5hudvl
p10
I1
sVdkqbvmh
p11
I1
sVd71o5vf
p12
I2
sVd4ncsy2
p13
I1
sVd0an0o5
p14
I1
sVde7wr0u
p15
I1
sVdh3fof5
p16
I1
sVd00ekcv
p17
I1
sVdo48hbd
p18
I1
sVcyo3qic
p19
I1
sVda59ky4
p20
I1
sVdcljs5s
p21
I1
sVdrcaol1
p22
I1
sVdpxx7bp
p23
I1
sVd9pkucr
p24
I1
sVd9h6d3s
p25
I1
sVddnss3z
p26
I1
sVditngnx
p27
I1
sVdpgmxy9
p28
I1
sVdd1kv4q
p29
I2
sVdcbla59
p30
I1
sVd9ilhkl
p31
I1
sVdbl0hu8
p32
I1
sVdebf0xa
p33
I1
sVdj94834
p34
I3
sVd6eb3xq
p35
I1
sVdtie98z
p36
I2
sVdsul3t5
p37
I1
sVd36ltav
p38
I2
sVd0mapvm
p39
I1
sVcynr2qh
p40
I1
sVddc52gs
p41
I1
sVde6wktl
p42
I1
sVdhl0gnc
p43
I1
sVd6d5ucs
p44
I1
sVd0asfax
p45
I1
sVdne7kac
p46
I1
sVdfh39qj
p47
I1
sVd1i7hnu
p48
I1
sVd05fixe
p49
I1
sVdoaf5vc
p50
I1
sVdegnby0
p51
I1
sVd8t95du
p52
I1
sVd1ac2km
p53
I1
sVd2ndkia
p54
I1
sVczxzr0q
p55
I1
sVdcz2ahc
p56
I1
sVd3b8gso
p57
I1
sVdnd9pzg
p58
I1
sVdemgiym
p59
I1
sVdhz9awp
p60
I1
sVczyy87b
p61
I1
sVd11bg23
p62
I1
sVdgb2l42
p63
I1
sVdghsjgg
p64
I1
sVdewrbhk
p65
I1
sVdnw0pk0
p66
I1
sVdsvcabz
p67
I1
sVd6fn6ew
p68
I1
sVde899bp
p69
I1
sVdc4v0o2
p70
I1
sVd99szdn
p71
I1
sVdjyvabh
p72
I1
sVd44qlax
p73
I1
sVdbbser5
p74
I1
sVd30if74
p75
I1
sVdsphz7d
p76
I1
sVd21bcju
p77
I1
sVd5y8phf
p78
I1
sVdagcg7g
p79
I1
sVd1xod4h
p80
I1
sVd8fp5gc
p81
I1
sVdatsmw6
p82
I1
sVd7gb3rx
p83
I1
sVd2bfmvo
p84
I1
sVd8ewr2e
p85
I1
sVd0ztf0h
p86
I1
sVdoynfh7
p87
I1
sVdgl7tma
p88
I1
sVd1vod9a
p89
I1
sVdpgvcts
p90
I1
sVd205m15
p91
I1
sVdfhx2gl
p92
I2
sVd2yxix6
p93
I1
sVd3e4wd5
p94
I1
sVdcksgox
p95
I1
sVdq6b3bh
p96
I1
sVdkd4aq8
p97
I1
sVdadblal
p98
I1
sVd2sbwaf
p99
I1
sVdpgob88
p100
I2
sVd6cfbpp
p101
I1
sVdh7v175
p102
I1
sVczwis6s
p103
I1
sVcz6ommo
p104
I1
sVd38rvuk
p105
I1
sVcz3rryg
p106
I1
sVd75yj8j
p107
I1
sVdnla41c
p108
I1
sVdj7buq8
p109
I1
sVdfpmxkv
p110
I1
sVdiyfc10
p111
I2
sVdi0hewh
p112
I1
sVdeg2ncn
p113
I1
sVdagb1xz
p114
I1
sVdoukmy7
p115
I1
sVdrkt7dm
p116
I1
sVd0mav5q
p117
I3
sVd02s3ld
p118
I1
sVdti9tan
p119
I1
sVd8s01hh
p120
I2
sVde5vy48
p121
I1
sVd5gvptr
p122
I1
sVd5jletk
p123
I1
sVd2rl7db
p124
I1
sVd6ejgya
p125
I1
sVdgir7ua
p126
I1
sVdalr1hd
p127
I2
sVczpnww4
p128
I1
sVcyyztqm
p129
I1
sVd6ehqw5
p130
I1
sVdfzbu9i
p131
I1
sVdj7bo7t
p132
I1
sVdblhl3m
p133
I1
sVczsdbod
p134
I1
sVdbpejvi
p135
I1
sVd0zjf2a
p136
I1
sVd0505t8
p137
I1
sVdhdk4qf
p138
I1
sVdanh73b
p139
I1
sVdavufeu
p140
I1
sVd1bf2cd
p141
I1
sVd11b4i5
p142
I1
sVdbspw11
p143
I1
sVd4l0ara
p144
I2
sVdaqe92f
p145
I1
sVd2n5wm8
p146
I1
sVd0yy2j7
p147
I1
sVddq0tyr
p148
I1
sVd88zt1v
p149
I1
sVdofna1d
p150
I1
sVcyqk0sh
p151
I2
sVd7v4g22
p152
I1
sVczhix9g
p153
I1
sVdp35xcu
p154
I1
sVczfw9x4
p155
I1
sVd1kxk6c
p156
I1
sVczy0x8q
p157
I1
sVd4l4e3l
p158
I1
sVdmig8la
p159
I1
sVdblj8xe
p160
I1
sVdpcizu1
p161
I1
sVczhpej1
p162
I1
sVd1ggg4n
p163
I1
sVdnhcqmd
p164
I1
sVd91zm0q
p165
I1
sVd2cg93o
p166
I2
sVd8hb861
p167
I1
sVd5gbfed
p168
I1
sVd0fhpt0
p169
I1
sVd8d2c4t
p170
I1
sVd1woik9
p171
I1
sVdc12pdl
p172
I1
sVd4ib297
p173
I1
sVdi5czv6
p174
I2
sVd1627lt
p175
I1
sVd11b4kg
p176
I1
sVdjtf8tq
p177
I1
sVd4af42v
p178
I1
sVdtizx2g
p179
I1
sVd2asfdi
p180
I2
sVd1gkbcl
p181
I1
sVdgb9osx
p182
I1
sVd21bm82
p183
I1
sVdadoenh
p184
I1
sVd3cxukc
p185
I1
sVdmi9l2y
p186
I1
sVdqjl88v
p187
I1
sVd0n85w1
p188
I1
sVdppfa2k
p189
I1
sVd0tbw57
p190
I1
sVdg1a53b
p191
I2
sVdq488t4
p192
I1
sVd1ty6rm
p193
I1
sVd1a4syr
p194
I1
sVd6yepo7
p195
I2
sVczwrgoo
p196
I1
sVdo7upah
p197
I1
sVdtclz0q
p198
I1
sVd43cnpz
p199
I1
sVdf1m6u5
p200
I1
sVdqyp0gh
p201
I1
sVdkcfywe
p202
I1
sVdcfdan7
p203
I2
sVd10mf3q
p204
I1
sVd065b0z
p205
I1
sVd5r8m8j
p206
I1
sVd9olpkq
p207
I1
sVd2h0xmx
p208
I1
sVdau6t0k
p209
I1
sVdi3yq6p
p210
I4
sVdrnoft0
p211
I5
sVdohcm00
p212
I1
sVd96ub1r
p213
I1
sVcyjayna
p214
I1
sVdezzc0i
p215
I1
sVdi6jtzb
p216
I1
sVdk3hqe5
p217
I1
sVdox2svj
p218
I1
sVd0ii06a
p219
I1
sVddcofgk
p220
I1
s.