(dp0
Vdbojf1y
p1
I1
sVdnybsqt
p2
I1
sVd68vg8x
p3
I1
sVdr79bt5
p4
I1
sVdgn3v88
p5
I2
sVdkgx91g
p6
I1
sVdftg5vv
p7
I1
sVd68u0hz
p8
I1
sVdb488c0
p9
I1
sVdor8i35
p10
I4
sVd68xqar
p11
I1
sVdeaygli
p12
I1
sVd4fe3pa
p13
I1
sVdbflbv4
p14
I1
sVd6gn64j
p15
I1
sVd68ll0l
p16
I1
sVd5tl8mm
p17
I1
sVdqqq1k6
p18
I1
sVd694ktk
p19
I1
sVd46stur
p20
I1
sVdggm966
p21
I1
sVd68fjsd
p22
I2
sVdoqvp9p
p23
I1
sVdfk7vc4
p24
I3
sVd7alggv
p25
I1
sVd4gd5ay
p26
I1
sVdscpogi
p27
I1
sVdjvuco1
p28
I1
sVde5hwd6
p29
I1
sVczch81r
p30
I1
s.