(dp0
Vd7um1pu
p1
I1
sVd9btfmg
p2
I1
sVd8ck7qk
p3
I1
sVd5jb4rd
p4
I1
sVdaewy1k
p5
I1
sVd79z1p0
p6
I2
sVd9kfaln
p7
I2
sVd3cadav
p8
I1
sVd6wq9v2
p9
I4
sVdos42c4
p10
I1
sVdehnyo9
p11
I1
sVczavnoo
p12
I1
sVddpwb0b
p13
I1
sVdqnl36x
p14
I1
sVdp6nebe
p15
I1
sVdd9v7yq
p16
I1
sVdgx0kf8
p17
I1
sVdehvn3q
p18
I2
sVdi7axr3
p19
I2
sVcyim7pd
p20
I2
sVdgfm6pl
p21
I6
s.