(dp0
Vdayc063
p1
I1
sVdh1tjdb
p2
I1
sVdmmx8w4
p3
I1
sVd8t3479
p4
I1
sVd2lc2dj
p5
I1
sVdaflfda
p6
I1
sVdgw08r8
p7
I1
sVcz6rhwr
p8
I2
sVd37m360
p9
I1
sVd3bhbm8
p10
I1
sVd7zg5uu
p11
I1
sVdbpva88
p12
I2
sVd8c7g0o
p13
I1
sVdhfnmsp
p14
I1
sVd7175ex
p15
I1
sVdq4c7ii
p16
I1
sVdn8nluo
p17
I4
sVcyopxu5
p18
I1
sVcytc43a
p19
I1
sVd2ynywq
p20
I1
sVd8nml0d
p21
I3
sVds9igcy
p22
I1
sVd7m9se7
p23
I1
sVd0ffncq
p24
I2
sVdfgluib
p25
I1
sVd3m56lr
p26
I2
sVd3lq5j8
p27
I1
sVdotullv
p28
I1
sVd15wh1k
p29
I1
sVczb8dxd
p30
I1
sVdq19xu0
p31
I1
sVdi33e9r
p32
I1
sVd2nxta3
p33
I1
sVdnujk8q
p34
I1
sVdp1i9xy
p35
I1
sVdh5u4st
p36
I1
sVdmg6d7a
p37
I1
sVdd3bvfk
p38
I1
sVcyzuor1
p39
I1
sVdtegp5m
p40
I2
sVd1hes4s
p41
I1
sVdebha0z
p42
I1
sVdc49yfm
p43
I2
sVd0s1gu7
p44
I1
sVdic1ecr
p45
I1
sVdsuo1sd
p46
I1
sVdeaznoc
p47
I1
sVdj3jzg8
p48
I1
sVd515vbv
p49
I3
sVdiljov4
p50
I1
sVd6wt9i4
p51
I1
sVdq3xwev
p52
I2
sVd6r44dn
p53
I2
sVdeymuh3
p54
I1
sVdgcpr9p
p55
I1
sVdbjm5ne
p56
I5
sVdat93a8
p57
I1
sVd36cphu
p58
I1
sVdhpj4qt
p59
I1
sVcyvmamb
p60
I1
sVdntrf0t
p61
I1
sVdikdmyg
p62
I1
sVdfvkdin
p63
I1
sVdifj18h
p64
I1
sVd7qv0wr
p65
I1
sVdrwbk1j
p66
I1
sVdpi4oxv
p67
I1
sVd75a3ie
p68
I1
sVdrs8zpg
p69
I1
sVdccwtv3
p70
I1
sVddelluj
p71
I1
sVdcpj95j
p72
I1
sVddqfil7
p73
I1
sVdj8vrtj
p74
I2
sVdcvg27g
p75
I1
sVd7psb59
p76
I1
sVd7krnwt
p77
I1
sVd5ekr6u
p78
I1
sVd7a265v
p79
I1
sVd3oq8r8
p80
I1
sVdqc0f75
p81
I1
sVdohc2ve
p82
I1
sVdh54mv2
p83
I2
sVdd6spqn
p84
I1
sVd5swvit
p85
I1
sVczzulwk
p86
I2
sVdcqynp4
p87
I1
sVd9l33d7
p88
I1
sVd6cogdw
p89
I1
sVdmz2icp
p90
I1
sVd2u9ruj
p91
I1
sVd6cwt00
p92
I1
sVd970unx
p93
I1
sVdgal1lx
p94
I3
sVdf0g3vp
p95
I1
sVd7k4cs0
p96
I2
sVds97kwa
p97
I1
sVdflu4ea
p98
I1
sVdb2vzc1
p99
I1
sVd2g1l0m
p100
I1
sVd78wkl2
p101
I1
sVdhyth3h
p102
I1
sVdij7jd9
p103
I2
sVd6c63he
p104
I1
sVda63f1q
p105
I1
sVdh4ceto
p106
I1
sVdhcfotx
p107
I2
sVdeplgpq
p108
I1
sVdjr6ekk
p109
I1
sVd9fywor
p110
I1
sVdnw24es
p111
I1
sVdjlxphw
p112
I3
sVd592tbo
p113
I1
sVdet2acu
p114
I1
sVd8lohgw
p115
I1
sVdbzuk9a
p116
I1
sVdcqsazz
p117
I1
sVd0n6jiv
p118
I1
sVcylgx1l
p119
I1
sVdcibe5t
p120
I1
sVdcmhmgk
p121
I1
sVdk6a1s7
p122
I1
sVdam1qhy
p123
I1
sVd4v0hkn
p124
I1
sVd7sc5qt
p125
I2
sVd07175l
p126
I1
sVdevmz7h
p127
I1
sVdfbkkc3
p128
I1
sVdg9wl7p
p129
I1
sVd0j37kv
p130
I1
sVdbm115k
p131
I1
sVdnp1ktt
p132
I1
sVcza2e17
p133
I1
sVdibchvn
p134
I1
sVdf03npr
p135
I1
sVd7kjsq3
p136
I2
sVd6m9fsw
p137
I1
sVdflt9wl
p138
I1
sVdjlgf1w
p139
I1
sVd4ghuv8
p140
I1
sVd8z9hv8
p141
I1
sVd32zyt9
p142
I1
sVd5kqqcw
p143
I1
sVdfwwco9
p144
I1
sVdgyobq9
p145
I1
sVd9ggkos
p146
I1
sVd6k5zl3
p147
I1
sVdayr16h
p148
I1
sVdhgyfm5
p149
I1
sVdg3y5hl
p150
I1
sVdt506ye
p151
I1
sVdjtdlz9
p152
I1
sVdhplrms
p153
I1
sVdbdzbv3
p154
I2
sVd96ty7s
p155
I2
sVddui6wt
p156
I1
sVdkkegt2
p157
I1
sVdmipeh5
p158
I1
sVddq1ynh
p159
I1
sVcyi5ont
p160
I1
sVdj1gl1i
p161
I1
sVdr13ic1
p162
I1
sVcyxslzz
p163
I1
sVd0yqqmp
p164
I1
sVdda5u31
p165
I1
sVd7cqol0
p166
I2
sVdguqu8a
p167
I4
sVd19ionk
p168
I1
sVd5x5mhg
p169
I1
sVdg5uq4v
p170
I1
sVdc6n0vh
p171
I1
sVdnkq5b7
p172
I2
sVdr5u0yt
p173
I1
sVdk6a0xd
p174
I1
sVd97kr1s
p175
I1
sVcyk5aar
p176
I1
sVczyokve
p177
I1
sVd7e9de8
p178
I1
sVdbfbe78
p179
I1
sVd0ii2cn
p180
I1
sVd5ftzlu
p181
I1
sVd28lkq2
p182
I1
sVddrjvc0
p183
I1
sVdarbgl6
p184
I1
sVddqs4b9
p185
I2
sVdphwcpa
p186
I1
sVdnginxr
p187
I1
sVd8cbos3
p188
I2
sVd4gptp5
p189
I1
sVcz5lkc2
p190
I2
sVd1xoofm
p191
I2
sVdc8ydyu
p192
I1
sVda102vm
p193
I1
sVdql7tmr
p194
I1
sVdpe27k2
p195
I1
sVdn0u4gu
p196
I2
sVcyilgoc
p197
I1
sVczw17rv
p198
I1
sVdf7h5nm
p199
I1
sVdbkjxgc
p200
I1
sVd9pp5c7
p201
I1
sVdfhkcnq
p202
I1
sVd3re87k
p203
I1
sVdrx0yzl
p204
I2
sVd00s0fh
p205
I1
sVd034a7g
p206
I2
sVd71jwu9
p207
I1
sVd7vpwv3
p208
I1
sVdcr66tc
p209
I1
sVdefwwhx
p210
I1
sVcz98pgk
p211
I1
sVdc3oxqo
p212
I1
sVd080d59
p213
I1
sVdhv6vpu
p214
I1
sVdqntk3i
p215
I1
sVczvjwzc
p216
I1
sVd9ea5j0
p217
I1
sVdd1e0ah
p218
I1
sVd407k8z
p219
I1
sVd1mcddt
p220
I1
sVdb2yuog
p221
I1
sVdkr5pdc
p222
I1
sVd63bn6r
p223
I1
sVcztlz18
p224
I1
sVdcyiqnv
p225
I1
sVdfe0eyg
p226
I1
sVdj5w7kl
p227
I2
sVdcjaozk
p228
I1
sVdju18zx
p229
I1
sVd1ius2p
p230
I2
sVdfjk64q
p231
I1
sVdhvq3va
p232
I1
sVd4ggy5r
p233
I1
sVdj2hlga
p234
I1
sVd2qf6we
p235
I1
sVdjhxl25
p236
I1
sVd9b2419
p237
I1
sVdnhrw3h
p238
I1
sVd2sgr4r
p239
I1
sVdbxkaez
p240
I1
sVd8po37k
p241
I1
sVdb0fy7s
p242
I3
sVdii8bts
p243
I2
sVd4n0jh5
p244
I1
sVdom0m7d
p245
I1
sVd4okgkj
p246
I1
sVd9c02na
p247
I1
sVcyy5llf
p248
I2
sVd0lnk7n
p249
I1
sVczqvjx0
p250
I1
sVdbhdfhz
p251
I1
sVd3oqklc
p252
I1
sVd28vysx
p253
I1
sVden12n9
p254
I1
sVd04xw6m
p255
I1
sVdbjhkkb
p256
I1
sVdk06sym
p257
I1
sVdccivs0
p258
I1
sVd92kc6q
p259
I1
sVd3np2um
p260
I1
sVd80gkqc
p261
I1
sVdcmrkqw
p262
I1
sVdk7fvy2
p263
I1
sVdk28h35
p264
I1
sVcyzfm7v
p265
I1
sVd9zhghq
p266
I1
sVd5gq7cx
p267
I1
sVdd9qnzb
p268
I3
sVd35zsqx
p269
I1
sVd5uaeqw
p270
I1
sVdne9hmw
p271
I1
sVdiwb3fd
p272
I2
sVd3qb6f0
p273
I1
sVczzulhl
p274
I3
sVdbpbov7
p275
I1
sVd2333ki
p276
I1
sVdgj2xdc
p277
I1
sVd28r8u9
p278
I1
sVd346988
p279
I2
sVczvekdl
p280
I1
sVd80o9l5
p281
I1
sVdfkr7lb
p282
I1
sVdbypamr
p283
I1
sVczigb7l
p284
I1
sVd0o1t0m
p285
I1
sVdbksj59
p286
I1
sVd7kjk55
p287
I1
sVdem70h7
p288
I1
sVdt0iaxa
p289
I2
sVdfogz75
p290
I1
sVd64gp9n
p291
I1
sVczqtu6n
p292
I1
sVd01fge5
p293
I1
sVd0zd9ze
p294
I1
sVd498rp0
p295
I1
sVdek143h
p296
I1
sVdg342da
p297
I1
sVd9rduzb
p298
I1
sVd5h5r9w
p299
I1
sVd710uvx
p300
I2
sVdhyahgx
p301
I1
sVdgmldyw
p302
I1
sVdt9lyov
p303
I1
sVd6d8f6c
p304
I1
sVcztownu
p305
I2
sVdrxd0mv
p306
I2
sVda967oz
p307
I1
sVd1zmnk5
p308
I2
sVdafcsg8
p309
I1
sVd2gppf3
p310
I1
sVdonftqj
p311
I1
sVd9d1oo0
p312
I1
sVdjxcvfz
p313
I1
sVd90453o
p314
I1
sVcz5q2zg
p315
I1
sVcz8luq4
p316
I2
sVdgv3efj
p317
I2
sVd793udu
p318
I1
sVd1u9hmj
p319
I1
sVcyv3ush
p320
I1
sVdi1w42f
p321
I1
sVd5uafw0
p322
I3
sVd6qj4ik
p323
I1
sVd1e10q9
p324
I1
sVdcsqjix
p325
I1
sVdgguwot
p326
I1
sVdaw47dq
p327
I1
sVdk7pbm1
p328
I1
sVd4okdvn
p329
I1
sVd89bv68
p330
I1
sVdatgwj8
p331
I1
sVdsgelqf
p332
I1
sVdievrn9
p333
I2
sVd8byut1
p334
I2
sVd4mdf0r
p335
I1
sVde7dr1e
p336
I1
sVdriq1gn
p337
I1
sVd5uonci
p338
I1
sVdg0qdiu
p339
I1
sVd36mihk
p340
I1
sVczdc9s0
p341
I1
sVd6c5wbc
p342
I1
sVdgfgpzw
p343
I2
sVd70rs41
p344
I1
sVdqklh9a
p345
I1
sVd3px0y3
p346
I1
sVdhjv7uz
p347
I2
sVd3p7uta
p348
I1
sVcyoawdx
p349
I1
sVd00jzgf
p350
I2
sVd9hg55g
p351
I1
sVdcvwqpz
p352
I1
sVd5nri4j
p353
I1
sVd8hm615
p354
I1
sVdflnpjj
p355
I1
sVdokpiyc
p356
I5
sVdg7npb0
p357
I1
sVddw2q0k
p358
I1
sVd3lp4qf
p359
I1
sVd3cr06y
p360
I1
sVdsvdjzv
p361
I1
sVdrpz4yl
p362
I1
sVdjqj0lp
p363
I1
sVd2bioic
p364
I1
sVdka8ewg
p365
I1
sVd1475ch
p366
I1
sVdsm27ny
p367
I1
sVdaj7fnm
p368
I1
sVdam0igp
p369
I1
sVd2otvg2
p370
I1
sVd7ndlbw
p371
I1
sVd40127j
p372
I1
sVd0ej8dk
p373
I1
sVdmx2php
p374
I1
sVczcdaiv
p375
I2
sVdqfk98l
p376
I1
sVdn0cnnr
p377
I2
sVdk26fe2
p378
I2
sVdat1knp
p379
I1
sVdbw4qdf
p380
I1
sVdhzpr10
p381
I1
sVdqvz0ij
p382
I1
sVdddbf3p
p383
I1
sVdcoyr7x
p384
I1
sVdj0pyf0
p385
I1
sVd9t0ogm
p386
I1
sVd0yipx0
p387
I1
sVdnfj6y2
p388
I5
sVd8vowo1
p389
I1
sVdaerq3f
p390
I1
sVdkwt7m3
p391
I2
sVdhcgytq
p392
I1
sVd3rytmx
p393
I1
sVd0a6ty9
p394
I1
sVd4fkgil
p395
I1
sVd9n0i24
p396
I1
sVcz1duui
p397
I1
sVdav4hzo
p398
I1
sVdmu26cm
p399
I1
sVdr1wfdg
p400
I1
sVcyw7nqg
p401
I4
sVdcby8vs
p402
I1
sVd60u55o
p403
I1
sVdfgzdwq
p404
I3
sVd6ysu92
p405
I2
sVdbzvem9
p406
I1
sVdckf15v
p407
I1
sVd2dwl9g
p408
I1
sVdr0hpyt
p409
I1
sVda7z1yv
p410
I1
sVdd9ytlp
p411
I1
sVczus9p9
p412
I1
sVdjio8g7
p413
I1
sVdalxc0j
p414
I1
sVd9h7t8e
p415
I1
sVd8acw83
p416
I1
sVdpxnh2i
p417
I1
sVd89n0iv
p418
I1
sVdbzcrnp
p419
I1
sVcz08lh5
p420
I1
sVd5zpdt2
p421
I1
sVd8k8ioz
p422
I1
sVdi0noke
p423
I1
sVdq8kdjl
p424
I1
sVczb86wb
p425
I2
sVddgr1oj
p426
I1
sVdk7vds7
p427
I2
sVd7i972b
p428
I1
sVdao1zoc
p429
I1
sVdmta42u
p430
I1
sVd4kj5ul
p431
I1
sVd0h0lvl
p432
I1
sVd1g6qdj
p433
I1
sVd1g2llz
p434
I1
sVdel87jw
p435
I1
sVd3w4is8
p436
I1
sVcziqxwk
p437
I1
sVdh5559m
p438
I1
sVddgeo3b
p439
I1
sVdf5iwjj
p440
I1
sVdbsuhqn
p441
I1
sVdj21erj
p442
I1
sVd3fr8an
p443
I3
sVd1520kk
p444
I1
sVdge1k4c
p445
I1
sVdh5ui1y
p446
I1
sVdsijkxo
p447
I2
sVdi8v2aj
p448
I2
sVdftw7ls
p449
I2
sVdr2hjmy
p450
I1
sVdhm5l5b
p451
I1
sVdkh8170
p452
I1
sVdh5jbyh
p453
I1
sVdfnhyow
p454
I2
sVd3q50op
p455
I1
sVdi1ya1v
p456
I1
sVdkeqs2q
p457
I1
sVdhk5ejy
p458
I1
sVdfo0i1f
p459
I1
sVdcbrtsf
p460
I1
sVdgst2s0
p461
I2
sVdnadkh8
p462
I1
sVd6s4d6i
p463
I1
sVdsfx4vv
p464
I4
sVdtg0dwf
p465
I1
sVd1izyy9
p466
I1
sVdai8sxo
p467
I2
sVd2todou
p468
I1
sVd9bh6sk
p469
I1
sVdrvpodn
p470
I2
sVcz28r6p
p471
I1
sVcyldycl
p472
I1
sVczxq6wd
p473
I1
sVd3xq7mh
p474
I1
sVdfu5y0s
p475
I2
sVd3d4cpr
p476
I1
sVd58elel
p477
I2
sVdqlh04g
p478
I1
sVdoxrtte
p479
I1
sVdahx52w
p480
I1
sVdt962c2
p481
I1
sVddf2xb8
p482
I1
sVdgg0t1n
p483
I1
sVdpvoc1o
p484
I1
sVcyhzwmo
p485
I1
sVd2rcb3z
p486
I1
sVdhzssdc
p487
I1
sVdahtrfi
p488
I1
sVddkalzt
p489
I1
sVd00c6w9
p490
I1
sVdjtx3b9
p491
I1
sVdbzxbzm
p492
I1
sVdbuotht
p493
I1
sVd1ncyqh
p494
I1
sVd134rb8
p495
I1
sVdax1lwv
p496
I1
sVd97zeh9
p497
I1
sVcz3r984
p498
I1
sVdkqhft2
p499
I3
sVdcszmzr
p500
I1
sVdohadq8
p501
I1
sVcz677ik
p502
I1
sVd31vyfm
p503
I1
sVd1kxv2e
p504
I1
sVdkh1342
p505
I1
sVdgd02kf
p506
I1
sVdamv5ze
p507
I1
sVd2fpa7a
p508
I1
sVd9uq8tq
p509
I2
sVczly61h
p510
I1
sVdj6fysh
p511
I1
sVdkemlah
p512
I1
sVdk6vpe9
p513
I1
sVdfvnp3k
p514
I1
sVd6pvyqq
p515
I1
sVdhl2tfo
p516
I1
sVd4veayk
p517
I1
sVd7bp1a6
p518
I1
sVdqklk8z
p519
I4
sVdr12myx
p520
I1
sVdswbbz7
p521
I1
sVd4x4vj9
p522
I1
sVcyhzvnt
p523
I2
sVd3by8dt
p524
I2
sVd1j0vsl
p525
I1
sVdi9ip1k
p526
I1
sVdojfous
p527
I1
sVd8j50h3
p528
I1
sVd8krjl7
p529
I1
sVdr33qob
p530
I1
sVdjco451
p531
I1
sVd1fjytz
p532
I1
sVd6835wi
p533
I1
sVd15xbda
p534
I1
sVdb3dicl
p535
I1
sVdhmsp7e
p536
I1
sVd7rk377
p537
I1
sVd3o8pzq
p538
I1
sVdbf099i
p539
I1
sVcysmk7n
p540
I1
sVder52ob
p541
I1
sVd0o7m1t
p542
I1
sVcyp03fr
p543
I1
sVcyj8yln
p544
I2
sVd9aznge
p545
I1
sVdp6wpxt
p546
I1
sVd2a3bpr
p547
I1
sVda0i4h4
p548
I1
sVd0xb5ft
p549
I1
sVda2jphc
p550
I1
sVddw0ct3
p551
I2
sVdh11tdw
p552
I2
sVdpq2ztp
p553
I4
sVdkfowij
p554
I1
sVdaqbuuo
p555
I1
sVdg6d1nw
p556
I1
sVdqzwult
p557
I1
sVdnyg604
p558
I1
sVdooh650
p559
I1
sVddq0ftc
p560
I1
sVcyy3ut7
p561
I2
sVd7gutux
p562
I1
sVdc5m0g8
p563
I2
sVdb7d1cu
p564
I1
sVd9d6lr4
p565
I1
sVdgmi1ux
p566
I1
sVdoyqxf9
p567
I1
sVdbsdmy6
p568
I1
sVdhvblj1
p569
I1
sVd99c5dd
p570
I1
sVd5vsemf
p571
I1
sVd508ztk
p572
I2
sVd9rdxgp
p573
I1
sVdncru97
p574
I1
sVdt0i7mz
p575
I1
sVdrveajl
p576
I1
sVdqtq3ss
p577
I1
sVczzngkf
p578
I1
sVczsmcqc
p579
I1
sVd16frn7
p580
I1
sVd1g6s7f
p581
I1
sVdct1yk3
p582
I1
sVczztqjo
p583
I1
sVdqij8oc
p584
I1
sVdqye3rt
p585
I2
sVdi071hl
p586
I1
sVd0tpllf
p587
I1
sVdas9f7a
p588
I1
sVd7bkfk9
p589
I3
sVczzdr6l
p590
I1
sVdog75f4
p591
I1
sVda90t7h
p592
I1
sVdcw2f90
p593
I1
sVdnnt22x
p594
I1
sVdprro1n
p595
I1
sVdg44xq6
p596
I1
sVdc595o3
p597
I2
sVdgclams
p598
I1
sVdbc576b
p599
I2
sVdp78fw5
p600
I1
sVdcub3qw
p601
I1
sVd98ujkw
p602
I2
sVdt9k6kd
p603
I1
sVdmiihk0
p604
I1
sVdoriyld
p605
I1
sVdb6e2in
p606
I1
sVdeaocly
p607
I6
sVczhjzcb
p608
I1
sVd6a3teo
p609
I1
sVd5r6ik3
p610
I1
sVdfzb13m
p611
I1
sVdr7sq9q
p612
I1
sVd0rie6v
p613
I1
sVd7svesp
p614
I1
sVd4nfp1o
p615
I1
sVd2jehnz
p616
I1
sVdbv5mpk
p617
I1
sVdkfo7hy
p618
I1
sVd2b4ecs
p619
I1
sVcyobede
p620
I1
sVd7k2q9m
p621
I3
sVd7jfczp
p622
I1
sVdsslspv
p623
I1
sVd7xpv1i
p624
I1
sVdn2rnn5
p625
I1
sVd7yn4aw
p626
I1
sVdt5s69l
p627
I1
sVdbuye3i
p628
I1
sVdjj0jil
p629
I1
sVdqy41qv
p630
I2
sVd4kc3ns
p631
I1
sVd409nv4
p632
I1
sVdkvvizy
p633
I1
sVdgela5p
p634
I1
sVdh8dotr
p635
I1
sVdklggq4
p636
I1
sVd1408a3
p637
I1
sVd3b86w1
p638
I1
sVczhrm82
p639
I1
sVd45bjfh
p640
I1
sVd56izh5
p641
I1
sVdj4o3e7
p642
I1
sVdgn3ruk
p643
I1
sVdj3r8xc
p644
I1
sVdd1wl51
p645
I1
sVczvg94r
p646
I1
sVdecig60
p647
I2
sVdsghudm
p648
I1
sVd2mn0wp
p649
I1
sVczvoz17
p650
I1
sVczatlur
p651
I1
sVdsfea3n
p652
I1
sVdo6yuxx
p653
I1
sVd4b74e7
p654
I1
sVd2d6a1t
p655
I1
sVdg3k4en
p656
I2
sVdpwd296
p657
I1
sVdda0o77
p658
I1
sVdafzl79
p659
I1
sVd3q0sdf
p660
I1
sVd8jb97h
p661
I1
sVdhtgwb9
p662
I1
sVddr01q9
p663
I1
sVdk932sz
p664
I2
sVdoh7dy5
p665
I1
sVcyu2c6b
p666
I1
sVdoahmg1
p667
I2
sVd8gn2we
p668
I1
sVdd342hd
p669
I1
sVd2ov2ub
p670
I1
sVde1b3ro
p671
I1
sVd4iyiup
p672
I1
sVd58ylxk
p673
I1
sVdcas2xi
p674
I1
sVdf3vzfj
p675
I1
sVcz8k620
p676
I1
sVdqk95n0
p677
I1
sVd5698cy
p678
I1
sVdq8dd9n
p679
I1
sVd3rc87m
p680
I1
sVdgkgxri
p681
I1
sVd8z7b5b
p682
I1
sVdf3kmyo
p683
I1
sVdsl9qbs
p684
I1
sVczatmpn
p685
I1
sVczurmde
p686
I2
sVcyp261o
p687
I1
sVdmy2kmk
p688
I3
sVdrwxeiy
p689
I1
sVdcfoyry
p690
I1
sVdszwsm2
p691
I4
sVdgxznpu
p692
I1
sVdcvg11w
p693
I1
sVdbu6m02
p694
I1
sVdguu8se
p695
I7
sVdka5gey
p696
I1
sVd5613fg
p697
I1
sVdd0dmj0
p698
I1
sVd1d76l8
p699
I1
sVd5ko3kn
p700
I1
sVdjkchai
p701
I1
sVdh0y396
p702
I4
sVd07806y
p703
I1
sVdh5u6hu
p704
I1
sVdfv4sxw
p705
I1
sVdar6bee
p706
I3
sVd2vw05g
p707
I1
sVdprqezv
p708
I1
sVdir0qjw
p709
I1
sVdonz2f8
p710
I1
sVdpe2eub
p711
I1
sVdajde6i
p712
I1
sVdti0av3
p713
I5
sVdgmjexm
p714
I1
sVdfmoxhc
p715
I1
sVd4qyiaj
p716
I1
sVdjrpkqh
p717
I1
sVd5uae8t
p718
I2
sVdaqsy92
p719
I1
sVd8tfx7u
p720
I1
sVd96xx0l
p721
I2
sVdjr7c7k
p722
I1
sVdkh7z0x
p723
I1
sVd3iprud
p724
I1
sVd23gdcy
p725
I1
sVd5vpxzy
p726
I1
sVdffh0bz
p727
I1
sVderdwv1
p728
I1
sVdplmy9y
p729
I1
sVd810f4b
p730
I1
sVdev9nth
p731
I1
sVd1ggg4n
p732
I1
sVcyjn51l
p733
I1
sVdss8fkt
p734
I1
sVd9ib7t8
p735
I1
sVd12hdtb
p736
I1
sVdsfehww
p737
I2
sVczwd3rw
p738
I2
sVdt71v9u
p739
I1
sVd1hhno3
p740
I1
sVd5jv1oj
p741
I1
sVdadnw47
p742
I1
sVcyzfj2s
p743
I1
sVd1obg3d
p744
I2
sVcyxi57d
p745
I2
sVd2qx7a5
p746
I1
sVdt0i2bz
p747
I1
sVcz26sct
p748
I1
sVd5hyehs
p749
I1
sVdcm50ft
p750
I1
sVdmet45j
p751
I1
sVd01ssqq
p752
I3
sVdepjdur
p753
I1
sVcysvnyy
p754
I1
sVd90g36k
p755
I1
sVd1f26ov
p756
I1
sVde301wg
p757
I1
sVded3llz
p758
I1
sVdpfiar9
p759
I1
sVd43wtfp
p760
I1
sVdhyaxsz
p761
I1
sVdfiifl7
p762
I1
sVcywp6lb
p763
I1
sVdtej2h7
p764
I1
sVdb8bxow
p765
I2
sVd5xqctu
p766
I1
sVdfhd7mc
p767
I1
sVdam1hru
p768
I1
sVd39vjha
p769
I1
sVczhrj9m
p770
I1
sVd9cr7du
p771
I3
sVdh52s4f
p772
I2
sVcyr70k7
p773
I1
sVda5ncnp
p774
I2
sVdk9frf2
p775
I1
sVcyrqicn
p776
I1
sVdbq3wr9
p777
I2
sVdjwlqk1
p778
I1
s.