(dp0
Vd2mvz9u
p1
I1
sVdbkqcpi
p2
I1
sVd2x93gd
p3
I1
sVdassm12
p4
I1
sVcykqzwk
p5
I1
sVd1ici48
p6
I1
sVd41dbj8
p7
I1
sVdfvfaql
p8
I1
sVdim1uia
p9
I1
sVdrq1ldz
p10
I1
sVd39tnbf
p11
I1
sVd2577un
p12
I1
sVdk4mc3k
p13
I1
sVd2vbbi9
p14
I1
sVdr0oxdr
p15
I1
sVdteijz1
p16
I1
sVdpvg75x
p17
I1
sVdgknxv7
p18
I1
sVdqn3q3t
p19
I1
sVd2uupm4
p20
I1
sVddj9y1j
p21
I1
s.