(dp0
Vd1ici48
p1
I1
s.(dp0
Vd1ici48
p1
I1
sVd2d93j6
p2
I1
s.(dp0
Vd1ici48
p1
I1
sVd34kea6
p2
I1
s.(dp0
Vd3sebhx
p1
I1
sVd1ici48
p2
I1
s.(dp0
Vd1ici48
p1
I1
sVd54jglr
p2
I1
s.(dp0
Vd1ici48
p1
I1
sVd5l4zp4
p2
I1
s.(dp0
Vd1ici48
p1
I1
sVd5vti7e
p2
I1
s.(dp0
Vd68fjsd
p1
I1
sVd1ici48
p2
I1
s.(dp0
Vd1ici48
p1
I1
sVd881f7j
p2
I1
s.(dp0
Vd1ici48
p1
I1
sVd881f7j
p2
I1
s.(dp0
Vd1ici48
p1
I1
sVdados4x
p2
I1
s.(dp0
Vd1ici48
p1
I1
sVdakwah3
p2
I1
s.(dp0
Vd1ici48
p1
I1
sVdbskf3f
p2
I1
s.(dp0
Vd1ici48
p1
I1
sVdfttrfg
p2
I1
s.(dp0
Vd1ici48
p1
I1
sVdfxjzwv
p2
I1
s.(dp0
Vd1ici48
p1
I1
sVdgi1r27
p2
I1
s.(dp0
Vd1ici48
p1
I1
sVdho8dzl
p2
I1
s.(dp0
Vd1ici48
p1
I1
sVdqfsikk
p2
I1
s.