(dp0
Vda2gtds
p1
I1
sVd69um1s
p2
I2
sVda31fte
p3
I1
sVdn8359s
p4
I1
sVcykeyc6
p5
I1
sVdi408gj
p6
I2
sVd4bfxqy
p7
I1
sVdkyjn10
p8
I1
sVdc6k1hq
p9
I1
sVd49dp53
p10
I1
sVd1nd9b0
p11
I1
sVdhxib6t
p12
I1
sVdjopcg9
p13
I1
sVd6aj4nt
p14
I1
sVd09p0ah
p15
I1
sVd9coicp
p16
I1
sVd35684x
p17
I1
sVddokxfh
p18
I1
sVd6s78on
p19
I2
sVd0t8vc1
p20
I1
sVdmve9tk
p21
I1
sVdo1vzkf
p22
I1
sVdmipj8n
p23
I1
sVd4irk0k
p24
I1
sVdejoosj
p25
I1
sVdr55hpo
p26
I1
sVdbn8s5y
p27
I1
sVd8rei4w
p28
I1
sVdca7w9b
p29
I2
sVdalm47s
p30
I1
sVdeuuw0j
p31
I1
sVdsu0nch
p32
I1
sVdge0bvv
p33
I1
sVd2p0xuy
p34
I1
sVdh3wz6p
p35
I1
sVcyy1p1m
p36
I1
sVd9574ww
p37
I1
sVdpb869u
p38
I1
sVdjmz3fy
p39
I1
sVczawird
p40
I1
sVd3fgfy5
p41
I1
sVdg5sd1w
p42
I1
sVdgd4rcv
p43
I1
sVd67hz1g
p44
I2
sVd7ar6cg
p45
I1
sVd9jrpt4
p46
I1
sVdr5t9lm
p47
I1
sVdamw6o3
p48
I1
sVdirbtah
p49
I1
sVd2u9ina
p50
I1
sVd6rhq51
p51
I1
sVd697nql
p52
I1
sVdd6spqn
p53
I1
sVddjarlq
p54
I1
sVdnxjq4q
p55
I1
sVd53z2oy
p56
I1
sVdn3yzx9
p57
I1
sVd5vzp57
p58
I1
sVd3df8i0
p59
I1
sVd2doloq
p60
I1
sVd0c4c9k
p61
I1
sVd1p3df2
p62
I1
sVdgqny2k
p63
I1
sVdn6jzjz
p64
I1
sVdaskt40
p65
I1
sVdboc5wl
p66
I1
sVdbo5s7i
p67
I1
sVd8saq1b
p68
I1
sVd0j4hb3
p69
I1
sVdd73m9a
p70
I1
sVd0i921p
p71
I1
sVdixli1l
p72
I1
sVd2z3kjp
p73
I1
sVdb5iai9
p74
I1
sVdpjfsbe
p75
I1
sVdh7essu
p76
I1
sVdmx8ufm
p77
I1
sVd2p5uk2
p78
I2
sVd5yqtl9
p79
I2
sVczm9ck2
p80
I2
sVdfi628u
p81
I1
sVd3f9em6
p82
I1
sVd3ncfza
p83
I1
sVddofipv
p84
I1
sVdnu7nbh
p85
I1
sVdhkogov
p86
I1
sVd0487hh
p87
I1
sVdt5kff4
p88
I1
sVdoslb85
p89
I1
sVd0ooh47
p90
I1
sVdageq3d
p91
I1
sVdkktucf
p92
I1
sVd82o9qc
p93
I1
sVdkned01
p94
I1
sVd8z8wa6
p95
I1
sVdosvzfl
p96
I1
sVdfsp09p
p97
I1
sVdce0dgx
p98
I1
sVdc93lmj
p99
I1
sVd47w322
p100
I1
sVdkq5l2y
p101
I1
sVde0vjol
p102
I1
sVd3qyii0
p103
I1
sVdde07fw
p104
I1
sVd7witx0
p105
I1
sVd8yc7jh
p106
I1
sVd5ifz43
p107
I2
sVdrqoo5v
p108
I1
sVdckntwe
p109
I1
sVdde6jpk
p110
I1
sVdh9iapt
p111
I1
sVdf1tmmb
p112
I1
sVd1c62pa
p113
I1
sVdhndpqe
p114
I1
sVczahzdd
p115
I1
sVdby5o3o
p116
I1
sVddwcic1
p117
I1
sVd7gs3mq
p118
I1
sVdbxvbw7
p119
I1
sVdi85wmk
p120
I1
sVdh4dchu
p121
I1
sVdqhijud
p122
I1
sVd4x89kv
p123
I1
sVdrnh0ll
p124
I2
sVdae3m58
p125
I1
sVdik45zw
p126
I1
sVd8x3wi8
p127
I1
sVd4587k6
p128
I1
sVd0r5qog
p129
I2
sVdbsviir
p130
I1
sVdg45u18
p131
I1
sVdhuhl2e
p132
I1
sVdijefp8
p133
I1
sVdjwt7wp
p134
I1
sVd2hvqj3
p135
I2
sVdrfoqi7
p136
I1
sVd3hc778
p137
I1
sVdf1farv
p138
I1
sVd1laukb
p139
I1
sVdfxg7f7
p140
I1
sVdfw22d4
p141
I1
sVd18kopj
p142
I2
sVd2es8zx
p143
I1
sVdfngysl
p144
I1
sVdr1t3db
p145
I1
sVd7rj7yo
p146
I1
sVczy6x5q
p147
I1
sVd10er7d
p148
I1
sVd7eh0k2
p149
I1
sVczeao1a
p150
I3
sVdaz8674
p151
I1
sVd9ik8hm
p152
I1
sVd9tj2vx
p153
I1
sVddmbmpn
p154
I1
sVdrqayrc
p155
I1
sVd17nlqp
p156
I1
sVdkrgugv
p157
I1
sVdi15rpd
p158
I1
sVd9qb9xp
p159
I1
sVdo5bl79
p160
I1
sVdoygrtz
p161
I1
sVdqmkzbx
p162
I1
sVdb06vkf
p163
I1
sVd3rxig0
p164
I1
sVdels333
p165
I1
sVd4un2vo
p166
I1
sVd3oaue8
p167
I1
sVdi11848
p168
I1
sVd1p9i5u
p169
I1
sVdgp8yuw
p170
I1
sVdicntyz
p171
I1
sVdc7fosh
p172
I1
sVdj7ekk6
p173
I1
sVddm24fj
p174
I1
sVd9ch1pk
p175
I1
sVcyi30od
p176
I1
sVdbcixjp
p177
I1
sVdblhkrh
p178
I3
sVdg14309
p179
I1
sVdk5k8ac
p180
I1
sVdkib7gt
p181
I1
sVdoahg8m
p182
I1
sVdsfzugt
p183
I1
sVd03gqye
p184
I1
sVd31d0y0
p185
I1
sVdkc2w0u
p186
I1
sVczrl5hl
p187
I1
sVd0uzy89
p188
I1
sVd90oztp
p189
I1
sVdceadji
p190
I1
sVd7mic8h
p191
I1
sVcyl8468
p192
I1
sVd2u9ruj
p193
I1
sVddgzvqw
p194
I1
sVdmic1af
p195
I1
sVd4j6kr5
p196
I1
sVd16bs32
p197
I1
sVd5h53oh
p198
I4
sVd45gflk
p199
I1
sVdbe8m7m
p200
I1
sVdsv2fxc
p201
I1
sVd0ydo9k
p202
I1
sVcywgv73
p203
I2
sVdgy8qim
p204
I1
sVcyqhl5d
p205
I3
sVcyjvw3u
p206
I1
sVddd2hhn
p207
I1
sVddedrq9
p208
I1
sVdqojtt5
p209
I1
sVdn63k03
p210
I1
sVdqkq8vf
p211
I1
sVd59ph9f
p212
I1
sVcyubz6k
p213
I1
sVdgwapbc
p214
I1
sVdha7kj5
p215
I1
sVdmib9u5
p216
I1
sVd9ubv5x
p217
I1
sVdqoprgv
p218
I1
sVdkchzds
p219
I1
sVdn6d9ej
p220
I1
sVdmpvn6m
p221
I1
sVddr8bbh
p222
I1
sVdc63opy
p223
I1
sVdg296s4
p224
I1
sVd7a87rz
p225
I1
sVdcep0du
p226
I1
sVd2j4sbk
p227
I2
sVdnz51r2
p228
I1
sVdsi28vx
p229
I1
sVd81el74
p230
I1
sVdayaqnc
p231
I1
sVd3l1v13
p232
I1
sVd8czfek
p233
I1
sVdcvxkxd
p234
I1
sVdqghh0k
p235
I1
sVdk94fbz
p236
I1
sVd4tv4pu
p237
I1
sVdsxeppn
p238
I1
sVd796ytr
p239
I1
sVd48uxcf
p240
I1
sVddwyq13
p241
I1
sVdgn2739
p242
I1
sVdgrv3b7
p243
I1
sVdp1a1hu
p244
I1
sVdaykdqf
p245
I1
sVdr7hjbf
p246
I1
sVdcc6h6f
p247
I1
sVdgjt3sk
p248
I1
sVded391o
p249
I7
sVdb6krty
p250
I1
sVdcz54yq
p251
I1
sVdo0883o
p252
I1
sVdr2909f
p253
I1
sVcyhzimt
p254
I1
sVd2bp9ea
p255
I1
sVddxvtih
p256
I1
sVddoosoi
p257
I1
sVdd08x9n
p258
I1
sVds2vxsb
p259
I1
sVd2z4iyr
p260
I1
sVdpqgbr8
p261
I1
sVdhz7jho
p262
I1
sVdtht4hc
p263
I1
sVd5efr4r
p264
I1
sVcza9r9r
p265
I1
sVdaxk5vb
p266
I1
sVd5xpuip
p267
I2
sVdmmlmsa
p268
I1
sVdo6x29q
p269
I1
sVd38xh1k
p270
I3
sVd5gt6aq
p271
I2
sVd0v83p2
p272
I1
sVcyq7gao
p273
I1
sVdq8iqlm
p274
I1
sVdgqt1y0
p275
I1
sVdbn2gdw
p276
I1
sVd8qo6av
p277
I1
sVdtfn4kf
p278
I1
sVd5wfeyu
p279
I1
sVcyz4n17
p280
I1
sVdfshcwv
p281
I1
sVdqy00yv
p282
I1
sVdst0k9x
p283
I1
sVdnxz6no
p284
I1
sVdh0yssd
p285
I1
sVdk4811e
p286
I1
sVd2ltrt0
p287
I1
sVd467qc8
p288
I1
sVdogbah3
p289
I2
sVdfkyy2a
p290
I1
sVde1zu4z
p291
I1
sVdr9uao1
p292
I1
sVdb0fy7s
p293
I1
sVdkbs3b9
p294
I1
sVd9tkknh
p295
I1
sVdjxujlb
p296
I1
sVdbyadzm
p297
I1
sVd3dbrjm
p298
I1
sVdjz0t8v
p299
I1
sVdi3u9hq
p300
I2
sVdkbr938
p301
I1
sVd4k1a33
p302
I1
sVd1h5f2p
p303
I1
sVd3wtgla
p304
I1
sVd4eg7ma
p305
I1
sVdi6gzgy
p306
I1
sVdqvpye7
p307
I1
sVdooyeyd
p308
I1
sVd9jalsq
p309
I1
sVddwcgsz
p310
I1
sVd2wfnrp
p311
I1
sVdkkdg8x
p312
I1
sVdjugmlh
p313
I1
sVd1ewidw
p314
I1
sVd3sevfb
p315
I2
sVdjw9qmz
p316
I1
sVddcgdvh
p317
I1
sVd5j7ji2
p318
I1
sVdhiz8z6
p319
I1
sVdnli633
p320
I1
sVd9abshg
p321
I1
sVdk0nwgy
p322
I2
sVdhj9r57
p323
I1
sVdff52by
p324
I1
sVdb207a7
p325
I1
sVdsa9336
p326
I1
sVcytumlb
p327
I1
sVd97a3xw
p328
I1
sVd9tohii
p329
I1
sVd8whscs
p330
I1
sVd77a32d
p331
I2
sVdj01iun
p332
I1
sVdcwi81z
p333
I1
sVdflwds6
p334
I1
sVd6pvyqq
p335
I1
sVdavcch1
p336
I1
sVd88q5qj
p337
I2
sVczzt5zy
p338
I1
sVd3t0dy4
p339
I1
sVd41bjlo
p340
I1
sVdc6k4lw
p341
I1
sVdn6ciqk
p342
I1
sVd5vrucq
p343
I1
sVczrjs6i
p344
I1
sVdc49kpb
p345
I1
sVdnh8wkb
p346
I2
sVdid46va
p347
I1
sVd8d1eie
p348
I2
sVd2oieit
p349
I1
sVd1w9xor
p350
I1
sVcyopzc5
p351
I1
sVcyz2tux
p352
I1
sVczjwqsp
p353
I1
sVd1wrxgd
p354
I1
sVd01b4sx
p355
I1
sVd3uaooh
p356
I1
sVdt0t1h8
p357
I1
sVd5jsyyf
p358
I1
sVd93yz4p
p359
I2
sVd20fv0k
p360
I2
sVdgusd05
p361
I2
sVd8399b4
p362
I1
sVd14owy3
p363
I1
sVdau36np
p364
I1
sVdejp3bz
p365
I1
sVdil2l5z
p366
I1
sVdcxqw6e
p367
I2
sVcypuqsn
p368
I1
sVd0jrs6a
p369
I1
sVcyj40bk
p370
I1
sVd3vz9ad
p371
I1
sVdnsrhlt
p372
I1
sVdhpcvn7
p373
I1
sVdbmicwh
p374
I1
sVd1af7sa
p375
I3
sVd04cr9x
p376
I1
sVdml44iq
p377
I1
sVdam19sd
p378
I1
sVda1zqf0
p379
I1
sVdoncycb
p380
I1
sVdjmhyys
p381
I1
sVdau54nz
p382
I1
sVd2e2dck
p383
I1
sVdreaggu
p384
I1
sVd6vft61
p385
I1
sVdc91n8b
p386
I1
sVd3yydwd
p387
I1
sVd2l38l9
p388
I2
sVd083nug
p389
I1
sVdei2mz2
p390
I2
sVdo53ip3
p391
I1
sVd0bczpq
p392
I1
sVdjvaa7t
p393
I1
sVdcpveyt
p394
I1
sVd3qek30
p395
I1
sVczl3xgf
p396
I2
sVd3p6wpm
p397
I1
sVdb452vg
p398
I1
sVd39er5o
p399
I1
sVde9e8ny
p400
I1
sVd6drgoa
p401
I1
sVdcewemw
p402
I1
sVd8dso3c
p403
I1
sVdkjnhoa
p404
I1
sVd5ubmlu
p405
I1
sVd1eib3p
p406
I1
sVdifmv78
p407
I1
sVdke335g
p408
I1
sVdqq6ufs
p409
I1
sVdqftq2k
p410
I1
sVczwz6rz
p411
I1
sVdruvwih
p412
I1
sVddnxp8c
p413
I1
sVdk340lq
p414
I1
sVdk0f63r
p415
I1
sVd041rs9
p416
I1
sVd0jx0gg
p417
I1
sVd02baev
p418
I1
sVdjvzaq5
p419
I1
sVd531k7f
p420
I2
sVd07727k
p421
I1
sVdae1ecm
p422
I1
sVczhpxh2
p423
I1
sVd4px0zl
p424
I1
sVd3du6dn
p425
I1
sVd02cvoi
p426
I1
sVdczmfj4
p427
I1
sVd6925s6
p428
I1
sVdj8k1yg
p429
I2
sVd2ltdcn
p430
I2
sVdfjp1fr
p431
I1
sVd9xurum
p432
I1
sVdbcf9ng
p433
I1
sVd0pjcfw
p434
I1
sVdklok6f
p435
I1
sVd95pqoh
p436
I1
sVd7clo1f
p437
I1
sVcyu0c9o
p438
I1
sVd49j7s0
p439
I2
sVdf9jttm
p440
I1
sVd3zr9di
p441
I2
sVd4brs26
p442
I1
sVdb6awcv
p443
I1
sVcyxfuoc
p444
I1
sVdjuy191
p445
I1
sVdkkpefo
p446
I1
sVdjqqk6b
p447
I1
sVd2kx81t
p448
I1
sVcys0fv4
p449
I2
sVd6u58ja
p450
I1
sVddsqaud
p451
I1
sVdne2tmb
p452
I1
sVdc2cyhq
p453
I1
sVdrwn2z2
p454
I2
sVdfq56cq
p455
I1
sVdncpvwz
p456
I1
sVdea3p3t
p457
I1
sVd89p45h
p458
I1
sVd4y1vzp
p459
I1
sVdjojae8
p460
I1
sVdb6obon
p461
I1
sVcz71e0o
p462
I1
sVder3tp4
p463
I1
sVd3yra3y
p464
I1
sVdmtw9jk
p465
I3
sVd3quuj2
p466
I1
sVde0axc9
p467
I1
sVdjfh6nw
p468
I1
sVd948vyl
p469
I1
sVdmg2cda
p470
I1
sVde2ki19
p471
I1
sVd0yrusw
p472
I1
sVd55qbhz
p473
I1
sVdmvduus
p474
I1
sVd0ykcis
p475
I1
sVd4qv2s7
p476
I1
sVdebqkuo
p477
I1
sVdfrow5j
p478
I1
sVdafur1m
p479
I4
sVddl4hop
p480
I2
sVd3n492k
p481
I1
sVdcsx2d5
p482
I1
sVd346bp8
p483
I1
sVdszuh7m
p484
I1
sVcymjo7s
p485
I1
sVdf6xlz3
p486
I1
sVcz8ivp0
p487
I1
sVdel3msl
p488
I1
sVdrqp01a
p489
I1
sVdnq5zxo
p490
I1
sVdiqdtli
p491
I1
sVd4n5xgz
p492
I1
sVd3uv71k
p493
I1
sVdmhkvmj
p494
I1
sVd34dtj9
p495
I1
sVdj2q43e
p496
I1
sVdaz0rer
p497
I2
sVd42dy4o
p498
I1
sVdbkfcz1
p499
I4
sVd1dtrti
p500
I1
sVdd41c3f
p501
I1
sVdnved3a
p502
I1
sVdmzcdiy
p503
I2
sVdoe66cr
p504
I1
sVd9kgf9m
p505
I1
sVd73rcfs
p506
I1
sVczymgry
p507
I1
sVcz98ltf
p508
I1
sVczah6kw
p509
I1
sVd4rxoft
p510
I1
sVdht6ukb
p511
I1
sVdor8i35
p512
I1
sVd3egbxg
p513
I1
sVd62ux1c
p514
I1
sVdczj4ob
p515
I1
sVdtiihco
p516
I1
sVdnpaskf
p517
I1
sVdo1vm21
p518
I1
sVd8xvr85
p519
I1
sVdmiem7y
p520
I1
sVdd5df0j
p521
I1
sVd8fyktf
p522
I1
sVd85uhna
p523
I1
sVd9k9qkv
p524
I1
sVd6mc3cc
p525
I1
sVd2665b7
p526
I1
sVd3me7ws
p527
I1
sVdbj53mg
p528
I1
sVdj6wu2x
p529
I1
sVdb06yu2
p530
I1
sVddqlx3w
p531
I1
sVdgtdy9j
p532
I1
sVdndz0t2
p533
I1
sVdaa8trt
p534
I1
sVdq5u0h4
p535
I2
sVd8akpqr
p536
I1
sVd2pmj5l
p537
I1
sVdntd92f
p538
I2
sVdq0o1ym
p539
I1
sVd2zvi43
p540
I4
sVcyssr93
p541
I1
sVd13te5e
p542
I1
sVd6yy8wk
p543
I1
sVdow5j94
p544
I1
sVd25bhk4
p545
I1
sVd89t78x
p546
I1
sVdgpmjhg
p547
I2
sVdir4nzf
p548
I1
sVd5hunek
p549
I1
sVdmm0wcg
p550
I1
sVdhi3ish
p551
I1
sVd01k7lt
p552
I1
sVdqne29r
p553
I1
sVdddpok1
p554
I1
sVdhvj9pr
p555
I1
sVdcax6cr
p556
I1
sVdenvpq2
p557
I1
sVdkp39gp
p558
I1
sVdeyvxhq
p559
I1
sVdfv4pxc
p560
I1
sVd41tr9q
p561
I1
sVd8i682z
p562
I1
sVdjwcxsc
p563
I1
sVddok9gr
p564
I1
sVdgxqqam
p565
I1
sVdbgp0s5
p566
I1
sVd27b9o9
p567
I1
sVd2woly3
p568
I1
sVdehvf2c
p569
I1
sVdrk4kts
p570
I1
sVdo4j4fh
p571
I1
sVczd11vv
p572
I2
sVdnjwcbw
p573
I1
sVczmkvzy
p574
I1
sVd1stpg3
p575
I1
sVdg8a8yb
p576
I1
sVcyohuy4
p577
I1
sVd4o0uoc
p578
I1
sVdaythx5
p579
I1
sVcyid713
p580
I2
sVdhuikll
p581
I1
sVda1gpqw
p582
I1
sVdawb801
p583
I1
sVdogvnex
p584
I2
sVd88ttiv
p585
I1
sVdfoo0aq
p586
I1
sVdjno2dn
p587
I1
sVdrz2sm3
p588
I1
sVdd866er
p589
I1
sVd5p6xd1
p590
I2
sVdctwqai
p591
I1
sVd7ie8nu
p592
I1
sVdrkbrbk
p593
I1
sVd9gcvbc
p594
I1
sVdaj4ze5
p595
I1
sVdbvel87
p596
I3
sVde3tyfh
p597
I1
sVd38mir3
p598
I1
sVdehs2qr
p599
I1
sVd1wurvn
p600
I1
sVdtbhu55
p601
I1
sVd2p065y
p602
I1
sVd795ihd
p603
I1
sVdad6jjg
p604
I1
sVd1hiji5
p605
I1
sVdn9708e
p606
I2
sVcykb23d
p607
I1
sVdcsovdb
p608
I1
sVd7t1mlc
p609
I1
sVdanbide
p610
I1
sVdao55nj
p611
I1
sVd1wjava
p612
I1
sVd1hign7
p613
I1
sVd95w8vn
p614
I1
sVddca2gr
p615
I1
sVdcyrjv2
p616
I1
sVczxcaax
p617
I1
sVda3xbpt
p618
I1
sVd204nzf
p619
I1
sVd4iwpyq
p620
I1
sVddpkq3d
p621
I1
sVd1uc7hc
p622
I1
sVd75t5wb
p623
I1
sVdkkmrev
p624
I1
sVd8orxdg
p625
I1
sVcyn54aj
p626
I2
sVdrquu6i
p627
I1
sVdc5fecp
p628
I2
sVdc1ca0r
p629
I3
sVd9dfdgh
p630
I3
sVd7rnuln
p631
I1
sVd7lmzbr
p632
I1
sVdpt1aen
p633
I1
sVdb12fb3
p634
I1
sVd67dylh
p635
I1
sVd6ghq7k
p636
I1
sVdpc4du5
p637
I1
sVd9e0z38
p638
I1
sVdgayfy7
p639
I1
sVdmukdfv
p640
I1
sVd253jpq
p641
I1
sVdsndnzl
p642
I1
sVdstqk14
p643
I1
sVd2t7g4t
p644
I1
sVdhmyo1w
p645
I1
sVd3mzido
p646
I1
sVd2o6txu
p647
I1
sVd17anf5
p648
I1
sVdihf3cb
p649
I3
sVdtbvy6m
p650
I1
sVd3mih00
p651
I1
sVd12wcsq
p652
I1
sVd22fsah
p653
I1
sVdk84zvb
p654
I1
sVdeaa5fk
p655
I1
sVd6mgwdl
p656
I1
sVd3ttl7t
p657
I1
sVdi4qyah
p658
I1
sVdhn0maq
p659
I1
sVd72vypk
p660
I1
sVdr30ck9
p661
I1
sVdax680h
p662
I1
sVd50f5rf
p663
I1
sVdfjvbxa
p664
I1
sVdf8p01n
p665
I1
sVdektz5z
p666
I1
sVdnyp5q1
p667
I1
sVcz2f9v7
p668
I1
sVdid0w4c
p669
I1
sVdfpbuo2
p670
I1
sVd113hpm
p671
I2
sVddxeoom
p672
I1
sVde4y9z2
p673
I1
sVcz3zoih
p674
I1
sVdaz30ct
p675
I1
sVdmhsatq
p676
I1
sVdcaxx43
p677
I1
sVczk82yr
p678
I1
sVda6xj8d
p679
I1
sVd0i6cdf
p680
I1
sVcysw82k
p681
I1
sVdf92p2c
p682
I1
sVd2f9r5n
p683
I1
sVdini9v7
p684
I1
sVdhr5gpp
p685
I1
sVdecmwwd
p686
I1
sVd5fqyy3
p687
I1
sVcz6nyub
p688
I1
sVdc676px
p689
I1
sVdbwpooj
p690
I1
sVdoib3da
p691
I1
sVdcyoz2n
p692
I1
sVdg2dbpj
p693
I1
sVd4ex1sc
p694
I1
sVcyn0avd
p695
I1
sVd3wk004
p696
I1
sVddddg1p
p697
I1
sVdbmebc4
p698
I1
sVdbea7nr
p699
I1
sVdscdeey
p700
I3
sVd2aia4m
p701
I1
sVd4yilfh
p702
I1
sVczd19mr
p703
I1
sVdmsywwl
p704
I2
sVdcg2r3j
p705
I1
sVdbnlm1n
p706
I1
sVdfghul0
p707
I1
sVdehroyn
p708
I1
sVd7zzat8
p709
I1
sVdqnxpvt
p710
I1
sVd8sryzp
p711
I1
sVdavxovj
p712
I1
sVdopycei
p713
I1
sVd06fjnq
p714
I2
sVdf8qbkq
p715
I1
sVdonm14m
p716
I1
sVdb0n83g
p717
I1
sVcyp5lo7
p718
I1
sVdhqej03
p719
I1
sVddse8nh
p720
I2
sVdqoxd6x
p721
I3
sVdmnab9u
p722
I1
sVdop1lqf
p723
I1
sVdc9p0cn
p724
I1
sVczuxoix
p725
I1
sVdjo4rks
p726
I2
sVd17dq1i
p727
I3
sVdnkf6e7
p728
I1
sVdaf9p0y
p729
I1
sVddfya5b
p730
I1
sVdhp5s2f
p731
I1
sVcywouxt
p732
I1
sVdd61fgh
p733
I1
sVd1b5w9v
p734
I1
sVd4gl9qw
p735
I1
sVdqgusd3
p736
I1
sVdfulg7k
p737
I1
sVdj8al0i
p738
I1
sVdczvyd9
p739
I1
sVdcpk1kb
p740
I4
sVdk1dunv
p741
I1
sVdf620hc
p742
I1
sVd3frnyg
p743
I1
sVdiet1tg
p744
I1
sVdjdlib9
p745
I2
sVdbvujyx
p746
I1
sVdji3yja
p747
I1
sVdft27zh
p748
I1
sVdq3rlse
p749
I1
sVdpxrpj9
p750
I1
sVcypxu8a
p751
I1
sVdg42evz
p752
I1
sVde0cfqd
p753
I1
sVczpqwuw
p754
I1
sVdazhb47
p755
I1
sVd7nnoh5
p756
I1
sVdgn31z9
p757
I1
sVdkzdcht
p758
I1
sVddijgvh
p759
I1
sVdj0swrb
p760
I1
sVddwzpcy
p761
I1
sVdmpjw93
p762
I1
sVdcr3m4j
p763
I2
sVdk9yvh2
p764
I1
sVd42iic6
p765
I1
sVdfb1g5a
p766
I1
sVdq3z05h
p767
I1
sVd2g9b27
p768
I1
sVdkaaq5h
p769
I1
sVdfuvqfj
p770
I1
sVdrlk9cl
p771
I1
sVd5vr73q
p772
I1
sVd013ylm
p773
I1
sVdi2f19h
p774
I1
sVdbsvzo0
p775
I1
sVdemriyi
p776
I1
sVd69e936
p777
I1
sVdiv324v
p778
I1
sVcz97qn1
p779
I1
sVde78srs
p780
I1
sVdae1gfo
p781
I1
sVdkyw0ht
p782
I1
sVddplg0o
p783
I1
sVczbnt1u
p784
I1
sVdp3nchm
p785
I1
sVd4fhd0q
p786
I1
sVdmixzv0
p787
I1
sVdql4qp9
p788
I1
sVdtbw8ao
p789
I1
sVdks47mf
p790
I1
sVdekm535
p791
I1
sVdccthe0
p792
I1
sVddpafiu
p793
I1
sVcyjq8ji
p794
I1
sVdsfwd5k
p795
I1
sVdq99iz6
p796
I1
sVcytz8ib
p797
I1
sVd3js3ev
p798
I1
sVd4gvt77
p799
I2
sVdsyxvtf
p800
I1
sVded3d9d
p801
I1
sVdc5yoga
p802
I1
sVd0h2qn0
p803
I1
sVdgqkpcc
p804
I1
sVd85s8pr
p805
I1
sVdf8ko30
p806
I1
sVd01ntei
p807
I1
sVdq25uu9
p808
I1
sVd0xa3ea
p809
I1
sVd77o1oi
p810
I1
sVd0wmus4
p811
I1
sVdbenyee
p812
I1
sVdql1q4s
p813
I1
sVdqc2opq
p814
I1
sVd7xu71q
p815
I1
sVd2bw1do
p816
I1
sVcyrdawn
p817
I1
sVcypxjc8
p818
I1
sVdaswwcg
p819
I1
sVdqfvssk
p820
I1
sVd9d64eh
p821
I1
sVdetm3x4
p822
I1
sVczomu78
p823
I1
sVdkvio98
p824
I1
sVdrv6kku
p825
I2
sVdhvjszu
p826
I1
sVdqe1xq4
p827
I1
sVdrzuor6
p828
I1
sVcyxuxcc
p829
I1
sVdnb03qt
p830
I1
sVd8ta18a
p831
I1
sVdbh708q
p832
I1
sVdn1lzmd
p833
I2
sVdih8kja
p834
I1
sVd9txfpm
p835
I1
sVdt40gas
p836
I1
sVdashpjx
p837
I1
sVd9vp0lg
p838
I1
sVdt6p5xs
p839
I1
sVd9ufzgf
p840
I1
sVdb38wxa
p841
I1
sVd7ulluf
p842
I1
sVdqclj5a
p843
I1
sVdjtm9t6
p844
I1
sVd7kygb0
p845
I1
sVdcxfhp1
p846
I1
sVdor95xy
p847
I1
sVdauksxv
p848
I1
sVdcrq35e
p849
I1
sVd4ezc07
p850
I1
sVdgh5umo
p851
I1
sVdkulkds
p852
I1
sVd72go7p
p853
I1
sVd2ktyf1
p854
I1
sVd19gnga
p855
I1
sVdmn8pno
p856
I1
sVdr62x6q
p857
I1
sVd38zp5w
p858
I1
sVdp9wd30
p859
I1
sVdimnh2j
p860
I1
sVd9mr951
p861
I1
sVcz1f90a
p862
I1
sVdhccnjm
p863
I1
sVdg3x2se
p864
I1
sVdgwc4lf
p865
I1
sVczfam9r
p866
I1
sVdkx6qnz
p867
I1
sVdamg89o
p868
I1
sVd6jtm8s
p869
I1
sVd9xriz3
p870
I1
sVd0hvirz
p871
I1
sVdiyfdjs
p872
I1
sVd1ja2mr
p873
I1
sVdhr8qqk
p874
I2
sVdjmor1s
p875
I1
sVd468tws
p876
I1
sVdc2ndx2
p877
I1
sVcz8hq1y
p878
I1
sVdjupe67
p879
I3
sVd2da2lc
p880
I1
sVdcu1nbm
p881
I1
sVdry8a2e
p882
I1
sVd1ij9gs
p883
I1
sVdqv5ycp
p884
I1
sVdgdijjb
p885
I1
sVd5cpcpf
p886
I1
sVdnlzefh
p887
I1
sVda1sapf
p888
I1
sVdbedjrp
p889
I1
sVdrcchit
p890
I1
sVddsregg
p891
I1
sVczz4ahb
p892
I1
sVd2w3uq9
p893
I1
sVdgt3kr9
p894
I1
sVdh5n4wq
p895
I1
sVd4s1ep0
p896
I2
sVd2q5b2k
p897
I1
sVd4ybldp
p898
I1
sVd1nnzpu
p899
I1
sVczh4512
p900
I1
sVcz506gk
p901
I1
sVd9k7fc7
p902
I1
sVdswmajr
p903
I1
sVdfno9kg
p904
I1
sVd6hcq89
p905
I1
sVd5o1o5p
p906
I1
sVdt427tw
p907
I1
sVd2ovqkp
p908
I1
sVdnfn597
p909
I1
sVdmqbxp9
p910
I1
sVd7emxpe
p911
I1
sVd4nbcdd
p912
I1
sVd9a8d6n
p913
I1
sVdqdly75
p914
I1
sVd0qxq5x
p915
I1
sVcztcbtt
p916
I1
sVdss3beq
p917
I1
sVd2i25y8
p918
I1
sVdbrbzv8
p919
I1
sVdt9colb
p920
I1
sVdbk6pn5
p921
I1
sVd76lhg0
p922
I1
sVdfap7w3
p923
I2
sVd41p3n8
p924
I1
sVda3ovud
p925
I1
sVczzq49l
p926
I1
sVdh9rxj0
p927
I1
sVdadq48v
p928
I1
sVdryt2qt
p929
I1
sVdd5036d
p930
I1
sVd4ze7l4
p931
I1
sVd3g0obq
p932
I2
sVd058uyp
p933
I1
sVd9dp8yv
p934
I1
sVdcyqj2q
p935
I1
sVd8t6lcg
p936
I1
sVdik6l2b
p937
I2
sVdnw7o11
p938
I1
sVd3ff2nc
p939
I1
sVd7ydwus
p940
I2
sVd9ukt0e
p941
I1
sVdswqkrb
p942
I1
sVd38j8yt
p943
I1
sVd2al8y1
p944
I1
sVd6shc8j
p945
I1
sVd9zdazy
p946
I1
sVdk9nii5
p947
I1
sVdr8syfe
p948
I1
sVd295ycj
p949
I1
sVd9ylbn1
p950
I1
sVd1p2xy8
p951
I1
sVcyy63jc
p952
I1
sVdk7d7u2
p953
I2
sVdi9oc3t
p954
I3
sVd04mlpb
p955
I1
sVdhsif75
p956
I2
sVd3lkut2
p957
I1
sVda8v47b
p958
I1
sVczjllnc
p959
I2
sVdtal8lr
p960
I1
sVdrileyj
p961
I1
sVdtfygfo
p962
I1
sVd8ii8d4
p963
I1
sVdjqzkid
p964
I1
sVdflgugl
p965
I1
sVczm7x9k
p966
I1
sVdrc6mgh
p967
I3
sVd2lfojs
p968
I1
sVdqodbde
p969
I1
sVde39m4y
p970
I1
sVdp0job2
p971
I1
sVd4j2jhw
p972
I1
sVd00ckxv
p973
I1
sVdih89l3
p974
I1
sVdb13ake
p975
I1
sVdf4e9vw
p976
I1
sVd4b5fd4
p977
I3
sVd0wf7ao
p978
I1
sVd8o5k5g
p979
I2
sVdjp8qur
p980
I1
sVddmxfg7
p981
I1
sVdo968n9
p982
I1
sVdg5w068
p983
I2
sVd2a289g
p984
I1
sVd4u12jm
p985
I3
sVcyp2kw2
p986
I1
sVdn2mg49
p987
I1
sVcyyx8g2
p988
I1
sVdecxscs
p989
I1
sVdi899bz
p990
I2
sVdhu7feg
p991
I1
sVd5xjkur
p992
I1
sVdinhp4r
p993
I1
sVdjwy3gz
p994
I1
sVd7bfvbl
p995
I1
sVd1md6f9
p996
I1
sVd09lwk2
p997
I1
sVdiflfck
p998
I1
sVd8fa1lw
p999
I2
sVczorpvz
p1000
I1
sVczv6bnc
p1001
I1
sVcyrc41c
p1002
I1
sVd18gybi
p1003
I1
sVdjfj90i
p1004
I1
sVdb6y83c
p1005
I1
sVdoi0zgu
p1006
I1
sVd301zuk
p1007
I1
sVdpftw89
p1008
I1
sVd66wxjh
p1009
I1
sVd1f13al
p1010
I1
sVdepvzo9
p1011
I1
sVdc3t3jm
p1012
I1
sVdk2jmc4
p1013
I1
sVd0bydjt
p1014
I1
sVd2k9lsf
p1015
I1
sVd8d1veg
p1016
I1
sVdpyfnbt
p1017
I1
sVd5ekr6u
p1018
I1
sVdhhkyo9
p1019
I1
sVdcghou3
p1020
I1
sVd3pgd5o
p1021
I2
sVdnir5fy
p1022
I1
sVdavg66z
p1023
I1
sVdbmtit6
p1024
I1
sVdpifgs8
p1025
I1
sVdgrulgi
p1026
I1
sVd5kpito
p1027
I1
sVd69ff5v
p1028
I1
sVdnrqyvy
p1029
I1
sVdg9wwtf
p1030
I1
sVd250n9p
p1031
I1
sVd0f5q96
p1032
I1
sVd1tw9s9
p1033
I1
sVddid05k
p1034
I1
sVd3fehyp
p1035
I1
sVd6hdjpc
p1036
I1
sVd94gtxg
p1037
I1
sVd5v5lga
p1038
I1
sVdbgtc2k
p1039
I1
sVdr8y4wy
p1040
I1
sVdd9wg4w
p1041
I1
sVddfzckb
p1042
I1
sVda0mhja
p1043
I1
sVdaikk2s
p1044
I1
sVda5dnyd
p1045
I1
sVdbsxuz5
p1046
I1
sVdcpz3ws
p1047
I1
sVdkpropx
p1048
I1
sVd1pv5jf
p1049
I1
sVdrsb5cq
p1050
I1
sVd8kw1nh
p1051
I1
sVdni58r7
p1052
I1
sVdhf18ma
p1053
I1
sVdr5bpgd
p1054
I1
sVddkfjf8
p1055
I2
sVdmvzfrk
p1056
I1
sVdrnekdp
p1057
I1
sVdoy9m25
p1058
I1
sVdsievf3
p1059
I1
sVd69hnvi
p1060
I1
sVdcgchi1
p1061
I1
sVdirhu1q
p1062
I1
sVdnhnms9
p1063
I1
sVde9zw39
p1064
I2
sVd5ucokc
p1065
I1
sVd0r253p
p1066
I1
sVdasad21
p1067
I1
sVdiffv9s
p1068
I1
sVdgnt97o
p1069
I5
sVdqoy3w7
p1070
I1
sVdehz0tb
p1071
I2
sVdsphu37
p1072
I1
sVd5lqo56
p1073
I1
sVd340hvl
p1074
I1
sVdgeghyl
p1075
I1
sVd94hw4y
p1076
I1
sVdewn07e
p1077
I1
sVdcjxoef
p1078
I1
sVd1qrwr5
p1079
I2
sVd99d6f5
p1080
I1
sVd38s4d6
p1081
I1
sVdh0kel5
p1082
I1
sVdeiyots
p1083
I1
sVcyie7b0
p1084
I1
sVdb7698n
p1085
I1
sVdfwz3n2
p1086
I1
sVddna1eq
p1087
I1
sVd36fk9v
p1088
I1
sVcymelzb
p1089
I1
sVdspb5kr
p1090
I2
sVdjvzov1
p1091
I1
sVdn93z84
p1092
I1
sVdpy32r4
p1093
I1
sVdtbfffw
p1094
I1
sVddcizyr
p1095
I1
sVdehfqa3
p1096
I1
sVd28fdse
p1097
I1
sVd4w7lsh
p1098
I1
sVd1xwcs2
p1099
I1
sVdhdrjtu
p1100
I1
sVd77twzw
p1101
I1
sVdjmpn2m
p1102
I1
sVd1o5h1v
p1103
I1
sVdbdrsyv
p1104
I1
sVd3991ul
p1105
I1
sVdqzwfej
p1106
I1
sVd0au5zm
p1107
I1
sVdiqdk1a
p1108
I1
sVd5xcgd9
p1109
I1
sVd27vfdq
p1110
I1
sVdoy042c
p1111
I1
sVdnfmbux
p1112
I1
sVd0u4b8r
p1113
I1
sVdsgtmer
p1114
I1
sVdb9pttr
p1115
I1
sVdb3bi5l
p1116
I1
sVcyljuex
p1117
I1
sVddltm67
p1118
I1
sVdcuuy6j
p1119
I1
sVdc79psa
p1120
I1
sVdj2iu2j
p1121
I1
sVdqs7ixq
p1122
I1
sVcyj4ttn
p1123
I1
sVd2mpewf
p1124
I1
sVd91szmp
p1125
I1
sVd78ojt5
p1126
I1
sVczldo17
p1127
I1
sVd0qrbfv
p1128
I1
sVdqkgu81
p1129
I1
sVdd5f1cc
p1130
I1
sVd7pu6n5
p1131
I2
sVdsvfxg5
p1132
I1
sVd0ylrri
p1133
I1
sVdjf68gi
p1134
I1
sVczbvtvk
p1135
I1
sVdo7s4c9
p1136
I2
sVd2si0ca
p1137
I1
sVdin9l0s
p1138
I1
sVd0yu4d8
p1139
I1
sVdmmqsjc
p1140
I1
sVdmzczs2
p1141
I1
sVdfqyiye
p1142
I1
sVd05kugt
p1143
I1
sVd4g0own
p1144
I1
sVdnhmpx5
p1145
I2
sVcyim7pd
p1146
I1
sVd26jsdu
p1147
I1
sVdsqwpgu
p1148
I1
sVddx0bk6
p1149
I1
sVd1tqnej
p1150
I1
sVde7lnwu
p1151
I1
sVd2vlcz1
p1152
I1
sVdkoi9ju
p1153
I1
sVczglr1z
p1154
I1
sVd52yfez
p1155
I1
sVdtess3u
p1156
I1
sVczcbe7w
p1157
I1
sVcyn1a4j
p1158
I1
sVd7stiky
p1159
I1
sVd8zdfqm
p1160
I1
sVdhy53lx
p1161
I2
sVd15ovrx
p1162
I1
sVcyty0oz
p1163
I2
sVd1fqhw6
p1164
I1
sVd80glyr
p1165
I1
sVd2pyk89
p1166
I1
sVd29wezi
p1167
I1
sVd6pzurx
p1168
I1
sVdsk0r5y
p1169
I1
sVda2p1rm
p1170
I1
sVd092lgg
p1171
I1
sVdi4adqo
p1172
I1
sVdbw6mjc
p1173
I1
sVczfpq93
p1174
I1
sVdhz5e9k
p1175
I1
sVdcgn08x
p1176
I1
sVd4c65r9
p1177
I1
sVdb5o1d4
p1178
I1
sVd1u0vfo
p1179
I1
sVd40hvon
p1180
I1
sVdjm7w73
p1181
I1
sVczcp13d
p1182
I1
sVd2751yy
p1183
I1
sVd8ievpm
p1184
I1
sVdd596c7
p1185
I2
sVdox20gm
p1186
I1
sVczhjrau
p1187
I1
sVdj1gb4n
p1188
I1
sVdqsbgn2
p1189
I1
sVdadqwij
p1190
I4
sVd2xdumh
p1191
I1
sVderm98k
p1192
I1
sVd62ouqh
p1193
I2
sVdex3snw
p1194
I1
sVdgdgc7u
p1195
I1
sVd2lozag
p1196
I1
sVd9ntam5
p1197
I1
sVd6rsjo9
p1198
I1
sVdfn2lvk
p1199
I1
sVdmzlr8u
p1200
I1
sVd8jhazm
p1201
I1
sVd9btfmg
p1202
I1
sVd025sit
p1203
I1
sVdby99jg
p1204
I1
sVddndip6
p1205
I1
sVd43k7al
p1206
I1
sVdol8kla
p1207
I1
sVd1a6gzz
p1208
I2
sVdmir68i
p1209
I1
sVde2ip2b
p1210
I1
sVde5jy40
p1211
I1
sVdpglvpm
p1212
I1
sVd0h7bez
p1213
I1
sVdqff138
p1214
I1
sVdnx7gel
p1215
I1
sVdg4c472
p1216
I1
sVd86f7vn
p1217
I1
sVd7kdgpz
p1218
I1
sVd5fb3xt
p1219
I1
sVd2bmqde
p1220
I1
sVdai41pn
p1221
I1
sVd5gp9jq
p1222
I1
sVdffrnx2
p1223
I1
sVdj6tist
p1224
I1
sVd24swr0
p1225
I1
sVd247vis
p1226
I1
sVdazfd10
p1227
I1
sVdeg128d
p1228
I1
sVdab6ojz
p1229
I1
sVdsyh2qw
p1230
I1
sVd3x3dsq
p1231
I1
sVd7smr3z
p1232
I1
sVd8wz66j
p1233
I1
sVdi30imn
p1234
I1
sVde9wrn1
p1235
I1
sVdiay4ld
p1236
I1
sVdndxm75
p1237
I1
sVdae8h2q
p1238
I1
sVdbblu85
p1239
I1
sVdddbb69
p1240
I2
sVdjng0yc
p1241
I3
sVd2tjdp8
p1242
I1
sVdicjy00
p1243
I3
sVdh5pduv
p1244
I2
sVd63fsv4
p1245
I1
sVd16rus1
p1246
I1
sVdmfyc2n
p1247
I3
sVd58m0ez
p1248
I1
sVdacciw4
p1249
I1
sVdft8pef
p1250
I1
sVdjp7ajx
p1251
I1
sVdpjcsn8
p1252
I1
sVd38zaw0
p1253
I1
sVdb8i5np
p1254
I1
sVd9kuxuj
p1255
I2
sVd5ni6kh
p1256
I1
sVdc435ej
p1257
I1
sVdgrpkyy
p1258
I1
sVd0guunv
p1259
I1
sVdq3ktv4
p1260
I1
sVdj24jju
p1261
I1
sVd8237jj
p1262
I1
sVdt6t5u0
p1263
I1
sVdcvibhu
p1264
I1
sVdsux0vc
p1265
I1
sVd0a0fza
p1266
I1
sVd5y4vin
p1267
I2
sVd1yv6sh
p1268
I1
sVczgl18v
p1269
I1
sVd69fh5q
p1270
I1
sVd10mbz2
p1271
I1
sVdipkdc9
p1272
I1
sVdhsipus
p1273
I1
sVd09a3kv
p1274
I1
sVd1wbths
p1275
I1
sVdqgu413
p1276
I1
sVdbt7vj9
p1277
I1
sVdjk4nqd
p1278
I1
sVdgzh0ng
p1279
I1
sVdanc4dw
p1280
I1
sVd7jug3x
p1281
I1
sVdhg5s87
p1282
I1
sVd9aklac
p1283
I1
sVd15m5x8
p1284
I1
sVdfbjvwj
p1285
I1
sVde904dn
p1286
I1
sVdhhku9r
p1287
I1
sVdbgyd9q
p1288
I1
sVdqfnqkk
p1289
I2
sVdafus8w
p1290
I1
sVdp3qumv
p1291
I1
sVdp3b6xj
p1292
I1
sVdc2f8zs
p1293
I1
sVdo1exd7
p1294
I1
sVdk3fja3
p1295
I1
sVd1lme0q
p1296
I1
sVdf90lau
p1297
I1
sVd9sgo9t
p1298
I1
sVdfrgen6
p1299
I2
sVd9zli5i
p1300
I1
sVdc2a0bv
p1301
I1
sVd0sxkr9
p1302
I2
sVd7iqy06
p1303
I1
sVd4qmztk
p1304
I2
sVditi9wa
p1305
I1
sVdq6l06i
p1306
I1
sVd2nrgn2
p1307
I1
sVd319zlu
p1308
I2
sVdb5gtpe
p1309
I1
sVdnnrnkj
p1310
I1
sVdhleqhl
p1311
I1
sVd1o3i9j
p1312
I1
sVd5hjpqi
p1313
I1
sVdf9rap3
p1314
I1
sVdfjt7ni
p1315
I1
sVdots5u4
p1316
I1
sVdi6f34j
p1317
I1
sVd771fhv
p1318
I1
sVd5hu6lg
p1319
I1
sVd06egay
p1320
I2
sVdaypzza
p1321
I1
sVd6l3ts8
p1322
I1
sVd1qryx5
p1323
I1
sVd7qanor
p1324
I1
sVddogeyx
p1325
I1
sVdq2rfp0
p1326
I1
sVd11vbxq
p1327
I1
sVdrkurq5
p1328
I1
sVdofb6m5
p1329
I2
sVdmuf6ew
p1330
I2
sVd7wru4m
p1331
I2
sVd0c1stv
p1332
I1
sVde55km6
p1333
I1
sVdelglek
p1334
I1
sVdf643de
p1335
I1
sVd1zcjif
p1336
I1
sVdnh8e9v
p1337
I1
sVdc65da2
p1338
I1
sVd7v0npa
p1339
I1
sVd17yfil
p1340
I1
sVdcvylas
p1341
I1
sVd65h6us
p1342
I1
sVdioz9be
p1343
I1
sVdg6dwsn
p1344
I2
sVdclbib4
p1345
I1
sVcz52fgl
p1346
I1
sVd8st64y
p1347
I1
sVd0axkrr
p1348
I2
sVczbysls
p1349
I1
sVdjbdzba
p1350
I1
sVdexlw8o
p1351
I1
sVd2jehnz
p1352
I1
sVdj3d8b5
p1353
I1
sVdkxlbtq
p1354
I1
sVd83i5ct
p1355
I1
sVd147oku
p1356
I1
sVde6yu6g
p1357
I1
sVd2tnsv4
p1358
I1
sVd5wux6a
p1359
I2
sVczvutwz
p1360
I1
sVdob3osz
p1361
I2
sVdg617ov
p1362
I1
sVdtgorli
p1363
I1
sVdsic7wt
p1364
I1
sVczl04wx
p1365
I1
sVczsbw6y
p1366
I1
sVddyfmhw
p1367
I1
sVd3smr3h
p1368
I1
sVdhuhpls
p1369
I1
sVd0yz6mn
p1370
I1
sVd5m94yr
p1371
I2
sVdk2eyvk
p1372
I1
sVdf1qhtz
p1373
I1
sVd8ms8tb
p1374
I2
sVdebzjxj
p1375
I2
sVdprpfxx
p1376
I1
sVcz9jq1g
p1377
I2
sVdbmycio
p1378
I1
sVdnu5rjb
p1379
I1
sVd36yo35
p1380
I1
sVdg2e3x9
p1381
I1
sVcyqbsjm
p1382
I1
sVdstq49t
p1383
I1
sVdcynnct
p1384
I1
sVd4ehw5o
p1385
I1
sVd9o498s
p1386
I1
sVd536z38
p1387
I1
sVd2kzbih
p1388
I1
sVdbpgxnx
p1389
I1
sVcyjp5yv
p1390
I1
sVd0o34s8
p1391
I1
sVdbx8xcm
p1392
I1
sVdphszpk
p1393
I1
sVd6ht7s1
p1394
I3
sVd030q38
p1395
I1
sVd6iwktx
p1396
I1
sVdj0q5b9
p1397
I2
sVd3u0sr7
p1398
I1
sVdfztsf0
p1399
I1
sVcyrrxwb
p1400
I1
sVddmx4m6
p1401
I1
sVd85lxnl
p1402
I1
sVds0fekj
p1403
I1
sVdqbwu31
p1404
I1
sVd3ycsrs
p1405
I1
sVdijg1w2
p1406
I1
sVdpmu5sn
p1407
I1
sVd0lx21t
p1408
I1
sVcztsesx
p1409
I1
sVd8ut1mx
p1410
I1
sVdji5zmt
p1411
I1
sVd00dsqw
p1412
I1
sVd96xx0l
p1413
I1
sVds5bk3v
p1414
I1
sVd1o8rhq
p1415
I1
sVd063pd6
p1416
I2
sVd1p1xh4
p1417
I1
sVd78bqxu
p1418
I1
sVdfaq515
p1419
I1
sVcyvco0u
p1420
I1
sVdbclr93
p1421
I1
sVd047d3t
p1422
I1
sVdamia1t
p1423
I2
sVdek5kku
p1424
I1
sVdf8v7ep
p1425
I1
sVd8lixgm
p1426
I6
sVde0izcy
p1427
I1
sVdewmosy
p1428
I1
sVdn2r3g6
p1429
I1
sVcz95l9q
p1430
I1
sVd4k2oe9
p1431
I1
sVdop7zqq
p1432
I1
sVd2l1ulp
p1433
I1
sVdjvh79l
p1434
I1
sVcyzjbc4
p1435
I1
sVdhwkmj4
p1436
I1
sVd9khuu6
p1437
I2
sVdai44zk
p1438
I1
sVdam30dy
p1439
I1
sVd50cj8v
p1440
I1
sVczgmy2v
p1441
I1
sVd0m7m86
p1442
I1
sVd1y3wl0
p1443
I1
sVd5wnjqq
p1444
I1
sVd2a89lz
p1445
I1
sVd3doh2x
p1446
I1
sVdflx32j
p1447
I1
sVd9kju8d
p1448
I1
sVd3q06wp
p1449
I1
sVdn7075u
p1450
I1
sVd5aahx5
p1451
I1
sVdai0lk1
p1452
I1
sVdcuqb74
p1453
I1
sVda2qqja
p1454
I2
sVdfszkkc
p1455
I2
sVcyjnhga
p1456
I2
sVd0j2lgj
p1457
I1
sVdc53had
p1458
I1
sVdc8pcjb
p1459
I1
sVdfzauvc
p1460
I1
sVdiptapu
p1461
I1
sVd400mwe
p1462
I1
sVd4pnjjm
p1463
I1
sVdbjmatx
p1464
I2
sVczzuvv8
p1465
I1
sVdho198r
p1466
I3
sVdn1yr07
p1467
I1
sVdszok2i
p1468
I1
sVdtiic6x
p1469
I1
sVdhnqrhb
p1470
I1
sVd11ayjp
p1471
I1
sVd6qobo0
p1472
I1
sVdi5sn8m
p1473
I1
sVd1zyba2
p1474
I1
sVdhdn1f5
p1475
I1
sVdfkpmrl
p1476
I3
sVdj8ldk5
p1477
I1
sVd1fvgl9
p1478
I1
sVd4vppeo
p1479
I1
sVdb00r3o
p1480
I1
sVd7echwq
p1481
I1
sVdh1ntjm
p1482
I1
sVcyp4fn5
p1483
I1
sVd10xuke
p1484
I2
sVd79hxlg
p1485
I2
sVdaltk5c
p1486
I1
sVdf0qghy
p1487
I1
sVcz9fqkg
p1488
I1
sVdc7juna
p1489
I1
sVd64qvk2
p1490
I1
sVdmtcm28
p1491
I1
sVd3ubblg
p1492
I1
sVd16ip3q
p1493
I1
sVd09a6y9
p1494
I1
sVdh670uh
p1495
I1
sVdbh7ka6
p1496
I2
sVdsys7hi
p1497
I1
sVd2jub0r
p1498
I1
sVd2chqsc
p1499
I1
sVd2au6n3
p1500
I1
sVdo9pw5l
p1501
I1
sVdbvq18b
p1502
I1
sVdo8wqk4
p1503
I1
sVd95qgrk
p1504
I1
sVd5jdlz8
p1505
I1
sVddcd9dk
p1506
I3
sVd7b8jvx
p1507
I1
sVd75hzrc
p1508
I1
sVd7w48ru
p1509
I1
sVdenuj1z
p1510
I1
sVdgu6m4c
p1511
I1
sVdkwie2m
p1512
I1
sVdcnbwz2
p1513
I2
sVd5z80xx
p1514
I1
sVda829xk
p1515
I1
sVdn131zf
p1516
I2
sVd3i424a
p1517
I1
sVd3kkha2
p1518
I1
sVdoe8ddd
p1519
I1
sVdbme0h5
p1520
I1
sVdqqkl29
p1521
I1
sVdo4wr8a
p1522
I1
sVderbk6k
p1523
I1
sVdtdb9d8
p1524
I2
sVd08uzyr
p1525
I1
sVdq9kby7
p1526
I1
sVd77rgts
p1527
I1
sVdbxivnq
p1528
I1
sVd7jafiz
p1529
I2
sVd5jr993
p1530
I1
sVd9ldgo9
p1531
I1
sVd4cy2f8
p1532
I1
sVdcaycuo
p1533
I1
sVd8z9hv8
p1534
I1
sVd0huq34
p1535
I1
sVddspcs1
p1536
I1
sVdohzcr9
p1537
I1
sVdgqrc43
p1538
I1
sVdbp7yrm
p1539
I1
sVd12lvgv
p1540
I1
sVd8tkl0g
p1541
I1
sVd5qch3i
p1542
I2
sVdcxvcqz
p1543
I1
sVdqyxmr6
p1544
I1
sVdqq8fmt
p1545
I1
sVd7tpxga
p1546
I1
sVdgmok8s
p1547
I1
sVdhcp3r3
p1548
I1
sVdct5gvu
p1549
I1
sVdd5kemz
p1550
I2
sVdqibf2w
p1551
I1
sVd6z8995
p1552
I3
sVdb1tw80
p1553
I1
sVd5g1lwa
p1554
I2
sVdedb62l
p1555
I1
sVdcxa1tl
p1556
I1
sVdsn4r0p
p1557
I1
sVdf1wfd3
p1558
I1
sVdg5r6cj
p1559
I1
sVdreptjp
p1560
I1
sVdab2k4w
p1561
I2
sVd2um1bg
p1562
I1
sVdag2fh1
p1563
I1
sVdcajt6b
p1564
I1
sVd3bja4m
p1565
I1
sVd6gcae9
p1566
I1
sVdqw1wbj
p1567
I3
sVdhniy94
p1568
I1
sVd172mbj
p1569
I1
sVd40rfga
p1570
I1
sVdfbbe0t
p1571
I2
sVd030373
p1572
I1
sVdie5r8z
p1573
I1
sVdt9iqyj
p1574
I1
sVd3ltblx
p1575
I1
sVds6xnst
p1576
I1
sVczp4cjm
p1577
I1
sVdsjtyz9
p1578
I1
sVdn6vytm
p1579
I1
sVcznrav5
p1580
I2
sVd6z4uvj
p1581
I1
sVdcc0g9a
p1582
I1
sVd0c3ql9
p1583
I1
sVdjvpiaf
p1584
I1
sVdfzqq7a
p1585
I1
sVd2ynjle
p1586
I1
sVd9k846o
p1587
I1
sVd047wz9
p1588
I1
sVd03c6sw
p1589
I1
sVdmv4xga
p1590
I1
sVd1gbnfn
p1591
I1
sVdasdz7l
p1592
I2
sVd40zjrz
p1593
I1
sVdfn2rqr
p1594
I1
sVdghe13e
p1595
I1
sVdr5rift
p1596
I1
sVdmp8jbv
p1597
I1
sVdtbwazg
p1598
I1
sVd8hjlug
p1599
I1
sVd9swvg0
p1600
I1
sVd5064un
p1601
I1
sVd3jlits
p1602
I1
sVd9jy4rs
p1603
I1
sVd4b4suf
p1604
I1
sVdmosllv
p1605
I1
sVdgqjzp9
p1606
I1
sVd7juwk7
p1607
I1
sVds89v3u
p1608
I1
sVd4wrrb5
p1609
I1
sVd2x3q1j
p1610
I1
sVdbn42sf
p1611
I3
sVd63za5k
p1612
I1
sVdccivs0
p1613
I1
sVd2kn9u9
p1614
I1
sVd50r33u
p1615
I1
sVczhjwno
p1616
I1
sVdenw829
p1617
I1
sVdosv13e
p1618
I2
sVdjl7qqs
p1619
I1
sVd5veyv8
p1620
I1
sVd37tq94
p1621
I1
sVdc8fxt0
p1622
I1
sVdsnkbfa
p1623
I1
sVd9u4iwe
p1624
I1
sVdoizmqw
p1625
I1
sVds6y9uh
p1626
I1
sVdq0lv5t
p1627
I1
sVdefgemp
p1628
I1
sVdijarsy
p1629
I1
sVd1i3i2y
p1630
I1
sVd9mip2b
p1631
I1
sVd6e6vry
p1632
I1
sVdn9rxy5
p1633
I1
sVdknwh5w
p1634
I1
sVczowjn6
p1635
I1
sVd7sd31v
p1636
I1
sVdb7kd3j
p1637
I2
sVd3kr5ab
p1638
I1
sVd6oic54
p1639
I1
sVd0k167s
p1640
I2
sVd070dgx
p1641
I1
sVdc2qqx7
p1642
I1
sVd2ctrr1
p1643
I1
sVd4ysb1o
p1644
I1
sVdob00bi
p1645
I1
sVd54ek32
p1646
I1
sVdbviirk
p1647
I1
sVd86t55m
p1648
I1
sVd7rrb3n
p1649
I1
sVd4tvvmj
p1650
I1
sVd8ny80t
p1651
I1
sVds004o3
p1652
I1
sVd05qhjs
p1653
I1
sVd97i8mk
p1654
I1
sVd3ib52v
p1655
I1
sVd3ihtoo
p1656
I1
sVd9i3q8r
p1657
I1
sVdgik972
p1658
I1
sVczg5xr6
p1659
I1
sVdgmooo3
p1660
I1
sVdfyquo4
p1661
I2
sVd3dz7jt
p1662
I1
sVdar0jn4
p1663
I2
sVdd3ru8x
p1664
I1
sVd312yvz
p1665
I1
sVcyp41gk
p1666
I2
sVd5g6xc3
p1667
I1
sVd9q92wb
p1668
I1
sVdalr6ok
p1669
I1
sVdffr0x0
p1670
I1
sVd457gbq
p1671
I1
sVdgafs6m
p1672
I1
sVddtj6ih
p1673
I1
sVd49ipjl
p1674
I1
sVd5i01le
p1675
I1
sVdgd86ue
p1676
I1
sVcyrq48o
p1677
I1
sVdco9v2q
p1678
I1
sVd2tvtex
p1679
I1
sVd50l0z8
p1680
I1
sVd31n1a4
p1681
I2
sVdd4rdio
p1682
I1
sVd58hkt1
p1683
I1
sVd6yel4t
p1684
I1
sVd1yx53m
p1685
I1
sVcys509q
p1686
I1
sVczi970k
p1687
I1
sVd5n2ju0
p1688
I1
sVdj5q6sb
p1689
I1
sVd4bq7e1
p1690
I1
sVd40127j
p1691
I1
sVdn44xu1
p1692
I1
sVd8tbjpy
p1693
I1
sVdml55i6
p1694
I1
sVczmi7ly
p1695
I1
sVdf0texg
p1696
I1
sVdr6j51q
p1697
I1
sVdc0a7rx
p1698
I1
sVde6e96d
p1699
I1
sVdgi0wqp
p1700
I1
sVd6cbs60
p1701
I1
sVdt4z9ca
p1702
I1
sVdchon6y
p1703
I1
sVdfu481g
p1704
I1
sVdca2ijt
p1705
I1
sVcztsjox
p1706
I1
sVdcwb353
p1707
I1
sVdbpii6o
p1708
I1
sVdhhqd1n
p1709
I1
sVd6s9itg
p1710
I1
sVdn3d2az
p1711
I1
sVde8pslh
p1712
I1
sVd0ht4fr
p1713
I1
sVdau3wpc
p1714
I1
sVd9aa6f3
p1715
I1
sVdncm9uq
p1716
I1
sVczs1use
p1717
I1
sVd37an3t
p1718
I1
sVd728k3i
p1719
I1
sVd042a6z
p1720
I1
sVd3kajc1
p1721
I1
sVdpnjzue
p1722
I1
sVdgjabql
p1723
I1
sVd9w1xzl
p1724
I1
sVd7uhh2e
p1725
I1
sVd5idgr1
p1726
I1
sVd62fqiz
p1727
I1
sVd9tlubw
p1728
I1
sVdq0zto1
p1729
I1
sVdjylett
p1730
I1
sVdec05rh
p1731
I2
sVdi2e8sn
p1732
I1
sVcyzqgbx
p1733
I1
sVdhp6khx
p1734
I1
sVdeg5epo
p1735
I1
sVdbm9ja6
p1736
I1
sVd9cvy2y
p1737
I1
sVd1441e4
p1738
I1
sVd41okmz
p1739
I1
sVdas8zmj
p1740
I1
sVcypbogq
p1741
I1
sVcywtvoq
p1742
I1
sVd4op3ap
p1743
I1
sVd95se22
p1744
I1
sVdfe2yd9
p1745
I1
sVdpt6pam
p1746
I1
sVd3iul8a
p1747
I1
sVcyu7nv9
p1748
I1
sVd4ao0pc
p1749
I1
sVd6ld29s
p1750
I1
sVdmisdef
p1751
I1
sVdpmtqlo
p1752
I2
sVdiox3o4
p1753
I1
sVdmgmhr9
p1754
I1
sVdauaxrx
p1755
I1
sVdozuyuw
p1756
I1
sVdqds12e
p1757
I1
sVd8by270
p1758
I1
sVdpypueq
p1759
I1
sVdd7f9fw
p1760
I1
sVdt2wded
p1761
I1
sVcz8o4ez
p1762
I1
sVd9wiv8f
p1763
I1
sVd4lorrf
p1764
I1
sVdk03cjm
p1765
I1
sVdepu9x6
p1766
I2
sVdn5yv7n
p1767
I1
sVdn8wy52
p1768
I2
sVd6520po
p1769
I1
sVdcxozcu
p1770
I1
sVd9yskf4
p1771
I1
sVdeh26pr
p1772
I1
sVd48dtsr
p1773
I1
sVddsnx7e
p1774
I2
sVczu4jk6
p1775
I1
sVd2e7wch
p1776
I1
sVdqgb3xn
p1777
I1
sVcyl5wy9
p1778
I1
sVd7l3frp
p1779
I1
sVdhfwqgx
p1780
I1
sVd8ntygr
p1781
I1
sVdfgdbw4
p1782
I1
sVdcar57p
p1783
I1
sVd0nea6m
p1784
I1
sVdkfckmk
p1785
I1
sVd23vdcu
p1786
I1
sVd2zhyfj
p1787
I1
sVd35ejwc
p1788
I1
sVdq2pxyl
p1789
I1
sVdhra4e3
p1790
I2
sVdev9wmr
p1791
I1
sVd5hif36
p1792
I1
sVdnqr1o0
p1793
I1
sVdtb0s9a
p1794
I1
sVdcekrls
p1795
I1
sVd6njlx0
p1796
I1
sVdnrnds5
p1797
I1
sVdfvfrm9
p1798
I2
sVczjuzf6
p1799
I1
sVd5ur9nn
p1800
I1
sVd0d5inb
p1801
I1
sVddhjhpv
p1802
I1
sVdoylhw4
p1803
I1
sVd4ij0hs
p1804
I1
sVdsh3nzo
p1805
I1
sVd2oe2xk
p1806
I1
sVd6mcywf
p1807
I1
sVdjeer9f
p1808
I1
sVcz4cfzx
p1809
I3
sVd1i64f2
p1810
I1
sVd43ljr5
p1811
I1
sVdcoy9xe
p1812
I1
sVdd9rfz7
p1813
I1
sVdbl0tzb
p1814
I1
sVd01dtcx
p1815
I1
sVd6e81r7
p1816
I2
sVd002fe3
p1817
I1
sVd91zlld
p1818
I1
sVdfwuh1o
p1819
I1
sVd9zipgv
p1820
I1
sVd4o6xli
p1821
I1
sVd95pknz
p1822
I1
sVd6oqxzj
p1823
I1
sVd1fts6u
p1824
I1
sVd2tofc0
p1825
I1
sVdn2chiu
p1826
I1
sVd3p3ghn
p1827
I1
sVdffmxb1
p1828
I1
sVdifia5r
p1829
I1
sVdpwgzz1
p1830
I1
sVdav7p2x
p1831
I1
sVd1a2b3f
p1832
I1
sVdmfc8gq
p1833
I1
sVdcz4nv5
p1834
I1
sVdigudjg
p1835
I1
sVdhvnr87
p1836
I1
sVdiftumw
p1837
I1
sVd4fd2rt
p1838
I1
sVd2kllom
p1839
I1
sVd0ya8ys
p1840
I1
sVd5i75i4
p1841
I1
sVdoh4vpv
p1842
I1
sVd1dvd4f
p1843
I2
sVddnky6f
p1844
I1
sVdmnnty5
p1845
I1
sVdpazbh2
p1846
I1
sVcyrfoj0
p1847
I1
sVdrfmahl
p1848
I1
sVcytxda7
p1849
I1
sVdflgfpg
p1850
I1
sVddvecy0
p1851
I1
sVdn2v6ja
p1852
I1
sVdgn1yso
p1853
I1
sVd69mq9t
p1854
I1
sVdd445u7
p1855
I2
sVder1b6j
p1856
I1
sVdasxe5t
p1857
I1
sVdrqgqqq
p1858
I1
sVd1zsf4m
p1859
I1
sVddw1meh
p1860
I1
sVdhe1dtq
p1861
I1
sVd3cd13e
p1862
I1
sVcywwvlh
p1863
I1
sVdgorf0l
p1864
I1
sVdpjfmyv
p1865
I1
sVddwidpu
p1866
I1
sVddwnply
p1867
I1
sVd7usbqm
p1868
I1
sVdrmu8qg
p1869
I2
sVd110n3s
p1870
I1
sVd94bg1l
p1871
I1
sVdpp078j
p1872
I1
sVdiwqjj5
p1873
I1
sVdacr2sl
p1874
I1
sVd85us5z
p1875
I1
sVdoe3p7s
p1876
I1
sVd2an49o
p1877
I1
sVdh5i1r6
p1878
I1
sVdoc3fwa
p1879
I1
sVds3o69n
p1880
I1
sVcz3y45e
p1881
I1
sVd6nxzuo
p1882
I1
sVdnko4p2
p1883
I1
sVd9d94ol
p1884
I1
sVdcey8re
p1885
I1
sVd9jorqo
p1886
I1
sVdfb1fie
p1887
I1
sVdrpevz0
p1888
I1
sVdqffl0c
p1889
I1
sVdee878g
p1890
I1
sVdmzvpnt
p1891
I1
sVd9yunb0
p1892
I1
sVdej0vvr
p1893
I1
sVd5h97an
p1894
I2
sVderb3be
p1895
I1
sVdgv5kaq
p1896
I1
sVdbaoy7e
p1897
I1
sVd97mtwl
p1898
I1
sVd3toq25
p1899
I1
sVd194rg5
p1900
I1
sVd5ursav
p1901
I1
sVdqjlmca
p1902
I1
sVczirkyh
p1903
I1
sVddmu3z4
p1904
I1
sVd71om97
p1905
I1
sVdqeajfx
p1906
I1
sVdgwj5pc
p1907
I1
sVd4imnai
p1908
I1
sVdrgs4qf
p1909
I1
sVdq4l2rg
p1910
I1
sVdbe1j87
p1911
I1
sVd0aa7d9
p1912
I1
sVd773xof
p1913
I1
sVczvwnjf
p1914
I1
sVdpta0p2
p1915
I1
sVdq506zz
p1916
I1
sVdpp6gp3
p1917
I1
sVd07ttxh
p1918
I2
sVd31b75t
p1919
I2
sVdda24fq
p1920
I1
sVd1z67qx
p1921
I1
sVdbjawlk
p1922
I1
sVd1kr7ix
p1923
I1
sVdftmvlj
p1924
I3
sVd03eohj
p1925
I1
sVcyxvczr
p1926
I1
sVdrgc8j4
p1927
I1
sVd631xj9
p1928
I1
sVdcvu21g
p1929
I1
sVd065id3
p1930
I1
sVdk8rjvw
p1931
I1
sVdaanl2e
p1932
I1
sVdfpp9yc
p1933
I1
sVd2qbwt5
p1934
I1
sVdejrxus
p1935
I1
sVdgdz0hv
p1936
I1
sVczkmkh7
p1937
I1
sVcywtlj1
p1938
I1
sVddnhrv5
p1939
I1
sVdcb547i
p1940
I1
sVdal5s4e
p1941
I1
sVd3sbdfa
p1942
I1
sVdg7oprs
p1943
I1
sVdqdrx2u
p1944
I1
sVdmpxt1l
p1945
I1
sVdeapxc0
p1946
I1
sVd7hfetl
p1947
I2
s.