(dp0
Vd5dud00
p1
I1
s.(dp0
Vd5dud00
p1
I1
sVd9c3cqs
p2
I1
s.(dp0
Vd9cd7v4
p1
I1
sVd5dud00
p2
I1
s.(dp0
Vdbogz9p
p1
I1
sVd5dud00
p2
I1
s.(dp0
Vdbogz9p
p1
I1
sVd5dud00
p2
I1
s.(dp0
Vd5dud00
p1
I1
sVder1b6j
p2
I1
s.(dp0
Vd5dud00
p1
I1
sVdfc8fkt
p2
I1
s.(dp0
Vd5dud00
p1
I1
sVdfya1hu
p2
I1
s.(dp0
Vdh246ud
p1
I1
sVd5dud00
p2
I1
s.(dp0
Vd5dud00
p1
I1
sVdi3mbks
p2
I1
s.(dp0
Vdikhvyr
p1
I1
sVd5dud00
p2
I1
s.