(dp0
Vczm91h1
p1
I1
sVcziuxkl
p2
I1
sVd37kd62
p3
I1
sVd2inns2
p4
I1
sVd6b0sdz
p5
I1
sVdmoofvq
p6
I1
sVczgidzi
p7
I1
sVd84zcxu
p8
I1
sVdi6naki
p9
I1
sVdciwren
p10
I1
sVdk68jw4
p11
I1
sVd2yg7hk
p12
I1
sVczznpyv
p13
I1
sVd379q6g
p14
I1
sVd97b3ik
p15
I1
sVdkqwnho
p16
I1
sVdefehct
p17
I1
sVd0wwicp
p18
I1
sVdb5fscr
p19
I1
sVd9r7t62
p20
I1
sVdiminjp
p21
I1
sVcysgdmm
p22
I1
sVczufuvk
p23
I1
sVdp7jotv
p24
I2
sVd1z87sd
p25
I1
sVczhdc40
p26
I1
sVdddr2hy
p27
I1
sVdc5sxjn
p28
I1
sVd5kimh3
p29
I1
sVd3r8722
p30
I1
sVczruyaa
p31
I1
sVd8m0wxs
p32
I1
sVd0mf7jg
p33
I1
sVd0z3a5i
p34
I1
sVd7bi559
p35
I1
sVd3d0995
p36
I2
sVd7y6wkt
p37
I1
sVczipgne
p38
I1
sVd5rgohh
p39
I1
sVdni7zj3
p40
I1
sVd18kls5
p41
I1
sVd90ouhm
p42
I1
sVd30jbrj
p43
I1
sVddpkhgd
p44
I1
sVdpp7hmh
p45
I2
sVdtevngq
p46
I1
sVd675ral
p47
I1
sVdf7a5ds
p48
I1
sVdpq6uk5
p49
I1
sVdrnwcp2
p50
I1
sVd19oycc
p51
I1
sVd37k8hx
p52
I1
sVd8u6fh3
p53
I1
sVd63dmhq
p54
I1
sVde40aiq
p55
I1
sVd8502ok
p56
I1
sVdix19kf
p57
I1
sVd0wbnbz
p58
I1
sVczey6li
p59
I1
sVdbit130
p60
I1
sVde1umwk
p61
I1
sVda5v2hk
p62
I1
sVd1ooum7
p63
I1
sVd04iwap
p64
I1
sVdixdc2h
p65
I1
sVczbetvv
p66
I1
sVcz2b4x7
p67
I1
sVczepygj
p68
I1
sVd0p3q4w
p69
I1
sVdazn4gy
p70
I1
sVdjn0au3
p71
I1
sVd2avpng
p72
I1
sVdbf26p3
p73
I1
sVdp1ttg6
p74
I1
sVdrf62po
p75
I1
sVd4nxxjb
p76
I1
sVd0qtiq8
p77
I1
sVd2ze07l
p78
I1
sVdqlehj3
p79
I1
sVd12ybcy
p80
I1
sVd3i7dgg
p81
I1
sVdemem9e
p82
I1
sVdeubz2f
p83
I1
sVcyqsnz8
p84
I1
s.