(dp0
Vdqzvy5i
p1
I1
sVdholdmh
p2
I1
sVdbwza48
p3
I1
sVd6908of
p4
I1
sVd3lltm4
p5
I1
sVdocwk0u
p6
I1
sVdde4tvz
p7
I2
sVdn45ncj
p8
I1
sVd8b20nr
p9
I3
sVdd4p8de
p10
I1
sVd18bc19
p11
I1
sVcyyemn8
p12
I1
s.