(dp0
Vdj2m5pe
p1
I1
sVdk0mqx2
p2
I1
sVdijjkmb
p3
I1
sVd7o7xrm
p4
I1
sVd015evk
p5
I1
sVd7chzan
p6
I1
sVcyjub0w
p7
I1
sVd72j55h
p8
I1
sVddyollw
p9
I1
sVdkpof48
p10
I1
sVd3g4xn3
p11
I1
sVcyoulme
p12
I1
sVddcsv02
p13
I1
sVdeoc1v6
p14
I1
sVdrpo77l
p15
I1
sVczpxcft
p16
I1
s.