(dp0
Vdbazjl2
p1
I1
sVdr1lclj
p2
I1
sVd1603os
p3
I1
sVd88owgy
p4
I1
sVd88wu9s
p5
I5
sVd15sy84
p6
I1
sVd88jfb2
p7
I1
sVdkx3ujd
p8
I1
sVde7zyd3
p9
I1
sVdntfbu9
p10
I1
sVcyrdoy9
p11
I1
sVdqg9ck2
p12
I1
sVdbriato
p13
I2
sVdnv37kk
p14
I1
s.