(dp0
Vcyi990h
p1
I1
s.(dp0
Vcyi990h
p1
I1
sVcyir5oq
p2
I1
s.(dp0
Vcyi990h
p1
I1
sVcykmlpq
p2
I1
s.(dp0
Vcyi990h
p1
I1
sVcym3nqx
p2
I1
s.(dp0
Vcyi990h
p1
I1
sVcym3nqx
p2
I1
s.(dp0
Vcyi990h
p1
I1
sVcym3ok7
p2
I1
s.(dp0
Vcyi990h
p1
I1
sVcyos3gg
p2
I1
s.(dp0
Vcyi990h
p1
I1
sVcyqzgla
p2
I1
s.(dp0
Vcyi990h
p1
I1
sVcys49rf
p2
I1
s.(dp0
Vcyi990h
p1
I1
sVcysoatt
p2
I1
s.(dp0
Vcyi990h
p1
I1
sVcysphrd
p2
I1
s.(dp0
Vcyi990h
p1
I1
sVcysr0f1
p2
I1
s.(dp0
Vcyi990h
p1
I1
sVcyw4t27
p2
I1
s.(dp0
Vcyi990h
p1
I1
sVcyw4t27
p2
I1
s.(dp0
Vcyi990h
p1
I1
sVcyz38o0
p2
I1
s.(dp0
Vcyi990h
p1
I1
sVcz2s8e8
p2
I1
s.(dp0
Vcyi990h
p1
I1
sVcz351bf
p2
I1
s.(dp0
Vcyi990h
p1
I1
sVcz3b2m4
p2
I1
s.(dp0
Vcyi990h
p1
I1
sVcz4gn22
p2
I1
s.(dp0
Vcyi990h
p1
I1
sVcz5g9en
p2
I1
s.(dp0
Vcyi990h
p1
I1
sVcz693z1
p2
I1
s.(dp0
Vcyi990h
p1
I1
sVcz6yhc9
p2
I1
s.(dp0
Vcyi990h
p1
I1
sVcz97xrm
p2
I1
s.(dp0
Vcyi990h
p1
I1
sVczaffi8
p2
I1
s.(dp0
Vcyi990h
p1
I1
sVczarwdk
p2
I1
s.(dp0
Vcyi990h
p1
I1
sVczd6aq9
p2
I1
s.(dp0
Vcyi990h
p1
I1
sVczd6dcs
p2
I1
s.(dp0
Vcyi990h
p1
I1
sVczi279a
p2
I1
s.(dp0
Vcyi990h
p1
I1
sVczlnfe0
p2
I1
s.(dp0
Vcyi990h
p1
I1
sVczn1fef
p2
I1
s.(dp0
Vcyi990h
p1
I1
sVczo64dm
p2
I1
s.(dp0
Vcyi990h
p1
I1
sVczokv6n
p2
I1
s.(dp0
Vcyi990h
p1
I1
sVczowlab
p2
I1
s.(dp0
Vcyi990h
p1
I1
sVczqvvxr
p2
I1
s.(dp0
Vcyi990h
p1
I1
sVczua6p4
p2
I1
s.(dp0
Vcyi990h
p1
I1
sVczvqwte
p2
I1
s.(dp0
Vcyi990h
p1
I1
sVczwgu4a
p2
I1
s.(dp0
Vcyi990h
p1
I1
sVczwj9yp
p2
I1
s.(dp0
Vcyi990h
p1
I1
sVczx0ptv
p2
I1
s.(dp0
Vcyi990h
p1
I1
sVczyt3v5
p2
I1
s.(dp0
Vcyi990h
p1
I1
sVczztalt
p2
I1
s.(dp0
Vcyi990h
p1
I1
sVczztb6w
p2
I1
s.(dp0
Vcyi990h
p1
I1
sVd013zo3
p2
I1
s.(dp0
Vcyi990h
p1
I1
sVd02vfbx
p2
I1
s.(dp0
Vcyi990h
p1
I1
sVd04b1ts
p2
I1
s.(dp0
Vcyi990h
p1
I1
sVd077cm3
p2
I1
s.(dp0
Vcyi990h
p1
I1
sVd08zl81
p2
I1
s.(dp0
Vcyi990h
p1
I1
sVd0aa5te
p2
I1
s.(dp0
Vcyi990h
p1
I1
sVd0b81q3
p2
I1
s.(dp0
Vcyi990h
p1
I1
sVd0df8ib
p2
I1
s.(dp0
Vcyi990h
p1
I1
sVd0euha5
p2
I1
s.(dp0
Vcyi990h
p1
I1
sVd0htwqp
p2
I1
s.(dp0
Vcyi990h
p1
I1
sVd0hz48a
p2
I1
s.(dp0
Vcyi990h
p1
I1
sVd0kqcgd
p2
I1
s.(dp0
Vcyi990h
p1
I1
sVd0lbln5
p2
I1
s.(dp0
Vcyi990h
p1
I1
sVd0qyrqa
p2
I1
s.(dp0
Vcyi990h
p1
I1
sVd0qzbqp
p2
I1
s.(dp0
Vcyi990h
p1
I1
sVd0u19tt
p2
I1
s.(dp0
Vcyi990h
p1
I1
sVd0wbnbz
p2
I1
s.(dp0
Vcyi990h
p1
I1
sVd0y6k3z
p2
I1
s.(dp0
Vcyi990h
p1
I1
sVd0ztf0h
p2
I1
s.(dp0
Vcyi990h
p1
I1
sVd12e1jc
p2
I1
s.(dp0
Vcyi990h
p1
I1
sVd1334um
p2
I1
s.(dp0
Vcyi990h
p1
I1
sVd1799bs
p2
I1
s.(dp0
Vcyi990h
p1
I1
sVd18yds6
p2
I1
s.(dp0
Vcyi990h
p1
I1
sVd1bvj7q
p2
I1
s.(dp0
Vcyi990h
p1
I1
sVd1dc2mp
p2
I1
s.(dp0
Vcyi990h
p1
I1
sVd1gylp4
p2
I1
s.(dp0
Vcyi990h
p1
I1
sVd1h863l
p2
I1
s.(dp0
Vcyi990h
p1
I1
sVd1iyyyv
p2
I1
s.(dp0
Vcyi990h
p1
I1
sVd1jmc1k
p2
I1
s.(dp0
Vcyi990h
p1
I1
sVd1ptakq
p2
I1
s.(dp0
Vcyi990h
p1
I1
sVd1ro6w4
p2
I1
s.(dp0
Vcyi990h
p1
I1
sVd1ttu7p
p2
I1
s.(dp0
Vcyi990h
p1
I1
sVd1zto0g
p2
I1
s.(dp0
Vcyi990h
p1
I1
sVd20lv2h
p2
I1
s.(dp0
Vcyi990h
p1
I1
sVd20x7lm
p2
I1
s.(dp0
Vcyi990h
p1
I1
sVd217e1n
p2
I1
s.(dp0
Vcyi990h
p1
I1
sVd23hqh0
p2
I1
s.(dp0
Vcyi990h
p1
I1
sVd24ex71
p2
I1
s.(dp0
Vcyi990h
p1
I1
sVd2dfxpm
p2
I1
s.(dp0
Vcyi990h
p1
I1
sVd2dfxpm
p2
I1
s.(dp0
Vcyi990h
p1
I1
sVd2dfxpm
p2
I1
s.(dp0
Vcyi990h
p1
I1
sVd2g8aom
p2
I1
s.(dp0
Vcyi990h
p1
I1
sVd2jwxh5
p2
I1
s.(dp0
Vcyi990h
p1
I1
sVd2ms5kx
p2
I1
s.(dp0
Vcyi990h
p1
I1
sVd2nqkvh
p2
I1
s.(dp0
Vcyi990h
p1
I1
sVd2ox0vs
p2
I1
s.(dp0
Vcyi990h
p1
I1
sVd2ug41k
p2
I1
s.(dp0
Vcyi990h
p1
I1
sVd2wmopn
p2
I1
s.(dp0
Vcyi990h
p1
I1
sVd2z2kd8
p2
I1
s.(dp0
Vcyi990h
p1
I1
sVd2zhhb9
p2
I1
s.(dp0
Vcyi990h
p1
I1
sVd2zt9ei
p2
I1
s.(dp0
Vcyi990h
p1
I1
sVd2zwxzf
p2
I1
s.(dp0
Vcyi990h
p1
I1
sVd315sca
p2
I1
s.(dp0
Vcyi990h
p1
I1
sVd32udxx
p2
I1
s.(dp0
Vcyi990h
p1
I1
sVd32yrhp
p2
I1
s.(dp0
Vcyi990h
p1
I1
sVd35szzl
p2
I1
s.(dp0
Vcyi990h
p1
I1
sVd38xcca
p2
I1
s.(dp0
Vcyi990h
p1
I1
sVd3991ul
p2
I1
s.(dp0
Vcyi990h
p1
I1
sVd3991ul
p2
I1
s.(dp0
Vcyi990h
p1
I1
sVd3el20t
p2
I1
s.(dp0
Vcyi990h
p1
I1
sVd3f3y9g
p2
I1
s.(dp0
Vcyi990h
p1
I1
sVd3kdqjf
p2
I1
s.(dp0
Vcyi990h
p1
I1
sVd3m8pw0
p2
I1
s.(dp0
Vcyi990h
p1
I1
sVd3m8sso
p2
I1
s.(dp0
Vcyi990h
p1
I1
sVd3m946i
p2
I1
s.(dp0
Vcyi990h
p1
I1
sVd3nligy
p2
I1
s.(dp0
Vcy(dp0
Vcyi990h
p1
I1
sVdth3yy6
p2
I1
s.