(dp0
Vd8f9n33
p1
I1
sVczp17bo
p2
I1
sVczvp3kw
p3
I1
sVd5isbq3
p4
I1
sVdo27sbc
p5
I1
sVczhw1ng
p6
I1
sVd1apw0r
p7
I1
sVd0naw0m
p8
I1
sVd1vcqsu
p9
I1
sVd3any72
p10
I1
sVdivd7vz
p11
I1
sVczb3ha1
p12
I1
sVdbpxtds
p13
I1
sVcz2jwa7
p14
I1
sVdisn55p
p15
I1
sVd7ywehk
p16
I1
sVd9667hq
p17
I1
s.