(dp0
Vd0kfgey
p1
I1
s.(dp0
Vd16h4wn
p1
I1
sVd0kfgey
p2
I1
s.(dp0
Vd16hyts
p1
I1
sVd0kfgey
p2
I1
s.(dp0
Vd16hyts
p1
I1
sVd0kfgey
p2
I1
s.(dp0
Vd16hyts
p1
I1
sVd0kfgey
p2
I1
s.(dp0
Vd16hyts
p1
I1
sVd0kfgey
p2
I1
s.(dp0
Vd1urqm9
p1
I1
sVd0kfgey
p2
I1
s.(dp0
Vd0kfgey
p1
I1
sVd1uv3zr
p2
I1
s.(dp0
Vd0kfgey
p1
I1
sVd1uv3zr
p2
I1
s.(dp0
Vd0kfgey
p1
I1
sVd1uv3zr
p2
I1
s.(dp0
Vd0kfgey
p1
I1
sVd1uv3zr
p2
I1
s.(dp0
Vd0kfgey
p1
I1
sVd1uv3zr
p2
I1
s.(dp0
Vd0kfgey
p1
I1
sVd1v9rgb
p2
I1
s.(dp0
Vd1vgwlp
p1
I1
sVd0kfgey
p2
I1
s.(dp0
Vd1vgwlp
p1
I1
sVd0kfgey
p2
I1
s.(dp0
Vd0kfgey
p1
I1
sVd221ui8
p2
I1
s.(dp0
Vd0kfgey
p1
I1
sVd221ui8
p2
I1
s.(dp0
Vd0kfgey
p1
I1
sVd2cs8ka
p2
I1
s.(dp0
Vd2d000b
p1
I1
sVd0kfgey
p2
I1
s.(dp0
Vd0kfgey
p1
I1
sVd2d02wm
p2
I1
s.(dp0
Vd0kfgey
p1
I1
sVd2d02wm
p2
I1
s.(dp0
Vd0kfgey
p1
I1
sVd2oecg8
p2
I1
s.(dp0
Vd0kfgey
p1
I1
sVd2oecg8
p2
I1
s.(dp0
Vd0kfgey
p1
I1
sVd2quw7h
p2
I1
s.(dp0
Vd2yig8j
p1
I1
sVd0kfgey
p2
I1
s.(dp0
Vd2yig8j
p1
I1
sVd0kfgey
p2
I1
s.(dp0
Vd39vjha
p1
I1
sVd0kfgey
p2
I1
s.(dp0
Vd39vjha
p1
I1
sVd0kfgey
p2
I1
s.(dp0
Vd41c13v
p1
I1
sVd0kfgey
p2
I1
s.(dp0
Vd41c13v
p1
I1
sVd0kfgey
p2
I1
s.(dp0
Vd0kfgey
p1
I1
sVd4h3pmz
p2
I1
s.(dp0
Vd0kfgey
p1
I1
sVd50j9t0
p2
I1
s.(dp0
Vd0kfgey
p1
I1
sVd50jkox
p2
I1
s.(dp0
Vd0kfgey
p1
I1
sVd50jkox
p2
I1
s.(dp0
Vd0kfgey
p1
I1
sVd50jkox
p2
I1
s.(dp0
Vd0kfgey
p1
I1
sVd50jz1r
p2
I1
s.(dp0
Vd50lm3p
p1
I1
sVd0kfgey
p2
I1
s.(dp0
Vd50lm3p
p1
I1
sVd0kfgey
p2
I1
s.(dp0
Vd50lm3p
p1
I1
sVd0kfgey
p2
I1
s.(dp0
Vd55kf4m
p1
I1
sVd0kfgey
p2
I1
s.(dp0
Vd0kfgey
p1
I1
sVd5bmu5j
p2
I1
s.(dp0
Vd0kfgey
p1
I1
sVd5hvvsn
p2
I1
s.(dp0
Vd0kfgey
p1
I1
sVd5hvvsn
p2
I1
s.(dp0
Vd0kfgey
p1
I1
sVd62qwcy
p2
I1
s.(dp0
Vd6en15n
p1
I1
sVd0kfgey
p2
I1
s.(dp0
Vd6en15n
p1
I1
sVd0kfgey
p2
I1
s.(dp0
Vd0kfgey
p1
I1
sVd6xer6q
p2
I1
s.(dp0
Vd0kfgey
p1
I1
sVd72nhxm
p2
I1
s.(dp0
Vd76skhm
p1
I1
sVd0kfgey
p2
I1
s.(dp0
Vd76skhm
p1
I1
sVd0kfgey
p2
I1
s.(dp0
Vd76skhm
p1
I1
sVd0kfgey
p2
I1
s.(dp0
Vd76skhm
p1
I1
sVd0kfgey
p2
I1
s.(dp0
Vd76skhm
p1
I1
sVd0kfgey
p2
I1
s.(dp0
Vd0kfgey
p1
I1
sVd7fogvf
p2
I1
s.(dp0
Vd7kv461
p1
I1
sVd0kfgey
p2
I1
s.(dp0
Vd7lsruz
p1
I1
sVd0kfgey
p2
I1
s.(dp0
Vd7lsruz
p1
I1
sVd0kfgey
p2
I1
s.(dp0
Vd0kfgey
p1
I1
sVd7m48d5
p2
I1
s.(dp0
Vd7m7nmu
p1
I1
sVd0kfgey
p2
I1
s.(dp0
Vd0kfgey
p1
I1
sVd7yr96r
p2
I1
s.(dp0
Vd0kfgey
p1
I1
sVd813wmv
p2
I1
s.(dp0
Vd0kfgey
p1
I1
sVd813wmv
p2
I1
s.(dp0
Vd0kfgey
p1
I1
sVd8g2vbv
p2
I1
s.(dp0
Vd0kfgey
p1
I1
sVd8g2vbv
p2
I1
s.(dp0
Vd8w4fop
p1
I1
sVd0kfgey
p2
I1
s.(dp0
Vd911f1c
p1
I1
sVd0kfgey
p2
I1
s.(dp0
Vd0kfgey
p1
I1
sVd9rdyk0
p2
I1
s.(dp0
Vdbgqi26
p1
I1
sVd0kfgey
p2
I1
s.(dp0
Vdbgqi26
p1
I1
sVd0kfgey
p2
I1
s.(dp0
Vdbgqi26
p1
I1
sVd0kfgey
p2
I1
s.(dp0
Vd0kfgey
p1
I1
sVdbl9z93
p2
I1
s.(dp0
Vd0kfgey
p1
I1
sVdc5dhp0
p2
I1
s.(dp0
Vd0kfgey
p1
I1
sVdc5dhp0
p2
I1
s.(dp0
Vd0kfgey
p1
I1
sVdcc8j5o
p2
I1
s.(dp0
Vd0kfgey
p1
I1
sVddr7nme
p2
I1
s.(dp0
Vd0kfgey
p1
I1
sVdeq15wv
p2
I1
s.(dp0
Vd0kfgey
p1
I1
sVdeqw4mx
p2
I1
s.(dp0
Vd0kfgey
p1
I1
sVdeshd79
p2
I1
s.(dp0
Vd0kfgey
p1
I1
sVdetd9o0
p2
I1
s.(dp0
Vdfdelp0
p1
I1
sVd0kfgey
p2
I1
s.(dp0
Vd0kfgey
p1
I1
sVdfieila
p2
I1
s.(dp0
Vd0kfgey
p1
I1
sVdfieila
p2
I1
s.(dp0
Vd0kfgey
p1
I1
sVdigf66n
p2
I1
s.(dp0
Vdjxxpri
p1
I1
sVd0kfgey
p2
I1
s.(dp0
Vdkie22u
p1
I1
sVd0kfgey
p2
I1
s.(dp0
Vd0kfgey
p1
I1
sVdoktrhw
p2
I1
s.(dp0
Vd0kfgey
p1
I1
sVdp32zgl
p2
I1
s.(dp0
Vdp3ja1s
p1
I1
sVd0kfgey
p2
I1
s.(dp0
Vd0kfgey
p1
I1
sVdrx0muc
p2
I1
s.