(dp0
Vd2inns2
p1
I1
sVdq3peh0
p2
I2
sVczn3gg7
p3
I1
sVdpxt8mj
p4
I1
sVcynvimj
p5
I1
sVd34ff15
p6
I1
sVdqla6lk
p7
I1
sVcznbbyk
p8
I1
sVd2h6oa9
p9
I1
sVdq9tqov
p10
I1
sVdrpfl1l
p11
I1
sVdkmlqhx
p12
I1
sVd2dthu9
p13
I1
sVd219l8t
p14
I1
sVdhaspsj
p15
I1
sVda14kw7
p16
I1
sVdehgsno
p17
I1
sVd1tp2wj
p18
I1
sVd5vpx4e
p19
I1
sVdjjd5lg
p20
I1
sVdf4f9po
p21
I1
sVdr9px9l
p22
I1
sVdraapwn
p23
I1
sVd00ppan
p24
I1
sVd82w909
p25
I1
sVdr9p8vv
p26
I1
sVd9bmged
p27
I1
sVd9hljnr
p28
I1
sVcz8s300
p29
I1
sVdbw9f5x
p30
I1
sVcz677us
p31
I1
sVcz6mddo
p32
I1
sVdal013k
p33
I1
sVdg8d4ma
p34
I1
sVd5jdf4v
p35
I1
sVd1lt1dg
p36
I1
sVd1pp23w
p37
I1
sVdsbx8dz
p38
I1
s.