(dp0
Vcyi3gc3
p1
I1
s.(dp0
Vcyi3gc3
p1
I2
s.(dp0
Vcyi3gc3
p1
I2
s.(dp0
Vcyi3h37
p1
I1
sVcyi3gc3
p2
I1
s.(dp0
Vcyi4uh1
p1
I1
sVcyi3gc3
p2
I1
s.(dp0
Vcyi4uh1
p1
I1
sVcyi3gc3
p2
I1
s.(dp0
Vcyi735g
p1
I1
sVcyi3gc3
p2
I1
s.(dp0
Vcyi3gc3
p1
I1
sVcyiit0j
p2
I1
s.(dp0
Vcyi3gc3
p1
I1
sVcyiit0j
p2
I1
s.(dp0
Vcyi3gc3
p1
I1
sVcyiit0j
p2
I1
s.(dp0
Vcyim0jp
p1
I1
sVcyi3gc3
p2
I1
s.(dp0
Vcyjaups
p1
I1
sVcyi3gc3
p2
I1
s.(dp0
Vcyl2n5u
p1
I1
sVcyi3gc3
p2
I1
s.(dp0
Vcylb43z
p1
I1
sVcyi3gc3
p2
I1
s.(dp0
Vcylb43z
p1
I1
sVcyi3gc3
p2
I1
s.(dp0
Vcyou61h
p1
I1
sVcyi3gc3
p2
I1
s.(dp0
Vcyi3gc3
p1
I1
sVcyq1zcm
p2
I1
s.(dp0
Vcyq5vw8
p1
I1
sVcyi3gc3
p2
I1
s.(dp0
Vcytiqcw
p1
I1
sVcyi3gc3
p2
I1
s.(dp0
Vcyxfyvi
p1
I1
sVcyi3gc3
p2
I1
s.(dp0
Vcyxfyvi
p1
I1
sVcyi3gc3
p2
I1
s.(dp0
Vcyzarjc
p1
I1
sVcyi3gc3
p2
I1
s.(dp0
Vcz0u94a
p1
I1
sVcyi3gc3
p2
I1
s.(dp0
Vcz0u94a
p1
I1
sVcyi3gc3
p2
I1
s.(dp0
Vcz0uzja
p1
I1
sVcyi3gc3
p2
I1
s.(dp0
Vcz0uzja
p1
I1
sVcyi3gc3
p2
I1
s.(dp0
Vcz0uzja
p1
I1
sVcyi3gc3
p2
I1
s.(dp0
Vcz5j8mw
p1
I1
sVcyi3gc3
p2
I1
s.(dp0
Vcz93kpn
p1
I1
sVcyi3gc3
p2
I1
s.(dp0
Vcz93kpn
p1
I1
sVcyi3gc3
p2
I1
s.(dp0
Vczdr9dq
p1
I1
sVcyi3gc3
p2
I1
s.(dp0
Vczfdbei
p1
I1
sVcyi3gc3
p2
I1
s.(dp0
Vczh4ymz
p1
I1
sVcyi3gc3
p2
I1
s.(dp0
Vczh4ymz
p1
I1
sVcyi3gc3
p2
I1
s.(dp0
Vczh52c0
p1
I1
sVcyi3gc3
p2
I1
s.(dp0
Vczh52c0
p1
I1
sVcyi3gc3
p2
I1
s.(dp0
Vczh52xs
p1
I1
sVcyi3gc3
p2
I1
s.(dp0
Vczh52xs
p1
I1
sVcyi3gc3
p2
I1
s.(dp0
Vczh52xs
p1
I1
sVcyi3gc3
p2
I1
s.(dp0
Vczh52xs
p1
I1
sVcyi3gc3
p2
I1
s.(dp0
Vczi35h8
p1
I1
sVcyi3gc3
p2
I1
s.(dp0
Vczk3yfc
p1
I1
sVcyi3gc3
p2
I1
s.(dp0
Vcyi3gc3
p1
I1
sVczk3z6c
p2
I1
s.(dp0
Vczk4zt1
p1
I1
sVcyi3gc3
p2
I1
s.(dp0
Vczlxh20
p1
I1
sVcyi3gc3
p2
I1
s.(dp0
Vczmbawp
p1
I1
sVcyi3gc3
p2
I1
s.(dp0
Vczs262h
p1
I1
sVcyi3gc3
p2
I1
s.(dp0
Vczseigq
p1
I1
sVcyi3gc3
p2
I1
s.(dp0
Vcztltu7
p1
I1
sVcyi3gc3
p2
I1
s.(dp0
Vczuqq43
p1
I1
sVcyi3gc3
p2
I1
s.(dp0
Vczvzak1
p1
I1
sVcyi3gc3
p2
I1
s.(dp0
Vczwztt9
p1
I1
sVcyi3gc3
p2
I1
s.(dp0
Vczz6mz0
p1
I1
sVcyi3gc3
p2
I1
s.(dp0
Vd00af3j
p1
I1
sVcyi3gc3
p2
I1
s.(dp0
Vd04kngm
p1
I1
sVcyi3gc3
p2
I1
s.(dp0
Vd04zwwj
p1
I1
sVcyi3gc3
p2
I1
s.(dp0
Vcyi3gc3
p1
I1
sVd04zzp4
p2
I1
s.(dp0
Vd07pjaa
p1
I1
sVcyi3gc3
p2
I1
s.(dp0
Vd090ekt
p1
I1
sVcyi3gc3
p2
I1
s.(dp0
Vcyi3gc3
p1
I1
sVd0dlenw
p2
I1
s.(dp0
Vcyi3gc3
p1
I1
sVd0dlenw
p2
I1
s.(dp0
Vcyi3gc3
p1
I1
sVd0e7zqi
p2
I1
s.(dp0
Vd0gsvwo
p1
I1
sVcyi3gc3
p2
I1
s.(dp0
Vd0kd2u9
p1
I1
sVcyi3gc3
p2
I1
s.(dp0
Vd0l9f4t
p1
I1
sVcyi3gc3
p2
I1
s.(dp0
Vd0oka0n
p1
I1
sVcyi3gc3
p2
I1
s.(dp0
Vd0s7kid
p1
I1
sVcyi3gc3
p2
I1
s.(dp0
Vd0tchvd
p1
I1
sVcyi3gc3
p2
I1
s.(dp0
Vcyi3gc3
p1
I1
sVd0uxm9o
p2
I1
s.(dp0
Vd0xqpay
p1
I1
sVcyi3gc3
p2
I1
s.(dp0
Vd0xsos3
p1
I1
sVcyi3gc3
p2
I1
s.(dp0
Vd0y3buz
p1
I1
sVcyi3gc3
p2
I1
s.(dp0
Vd0y6k3z
p1
I1
sVcyi3gc3
p2
I1
s.(dp0
Vcyi3gc3
p1
I1
sVd0zn1nk
p2
I1
s.(dp0
Vd10kkrx
p1
I1
sVcyi3gc3
p2
I1
s.(dp0
Vd10zm9h
p1
I1
sVcyi3gc3
p2
I1
s.(dp0
Vcyi3gc3
p1
I1
sVd113n63
p2
I1
s.(dp0
Vd13crro
p1
I1
sVcyi3gc3
p2
I1
s.(dp0
Vd13crro
p1
I1
sVcyi3gc3
p2
I1
s.(dp0
Vd15vy8n
p1
I1
sVcyi3gc3
p2
I1
s.(dp0
Vd1dqsiu
p1
I1
sVcyi3gc3
p2
I1
s.(dp0
Vd1k0ksi
p1
I1
sVcyi3gc3
p2
I1
s.(dp0
Vd1k4vqb
p1
I1
sVcyi3gc3
p2
I1
s.(dp0
Vd1p2ccw
p1
I1
sVcyi3gc3
p2
I1
s.(dp0
Vd1p2ccw
p1
I1
sVcyi3gc3
p2
I1
s.(dp0
Vd1p50l8
p1
I1
sVcyi3gc3
p2
I1
s.(dp0
Vcyi3gc3
p1
I1
sVd1qhp6d
p2
I1
s.(dp0
Vcyi3gc3
p1
I1
sVd1smiam
p2
I1
s.(dp0
Vd1twrcv
p1
I1
sVcyi3gc3
p2
I1
s.(dp0
Vd1utbh1
p1
I1
sVcyi3gc3
p2
I1
s.(dp0
Vd1utmwl
p1
I1
sVcyi3gc3
p2
I1
s.(dp0
Vd1y2tkp
p1
I1
sVcyi3gc3
p2
I1
s.(dp0
Vd1y2tkp
p1
I1
sVcyi3gc3
p2
I1
s.(dp0
Vd20fvnk
p1
I1
sVcyi3gc3
p2
I1
s.(dp0
Vd20fvnk
p1
I1
sVcyi3gc3
p2
I1
s.(dp0
Vd22gzsd
p1
I1
sVcyi3gc3
p2
I1
s.(dp0
Vd27xtrw
p1
I1
sVcyi3gc3
p2
I1
s.(dp0
Vd286eo2
p1
I1
sVcyi3gc3
p2
I1
s.(dp0
Vd2dn9ba
p1
I1
sVcyi3gc3
p2
I1
s.(dp0
Vd2dn9ba
p1
I1
sVcyi3gc3
p2
I1
s.(dp0
Vd2dn9ba
p1
I1
sVcyi3gc3
p2
I1
s.(dp0
Vd2f5jb5
p1
I1
sVcyi3gc3
p2
I1
s.(dp0
Vd2fw4zj
p1
I1
sVcyi3gc3
p2
I1
s.(dp0
Vcyi3gc3
p1
I1
sVd2jp7jm
p2
I1
s.(dp0
Vd2kdrai
p1
I1
sVcyi3gc3
p2
I1
s.(dp0
Vd2nkgig
p1
I1
sVcyi3gc3
p2
I1
s.(dp0
Vd2ny47n
p1
I1
sVcyi3gc3
p2
I1
s.(dp0
Vd2ny47n
p1
I1
sVcyi3gc3
p2
I1
s.(dp0
Vd2o01b3
p1
I1
sVcyi3gc3
p2
I1
s.(d(dp0
Vdtgyws7
p1
I1
sVcyi3gc3
p2
I1
s.