(dp0
Vdo5jjhn
p1
I1
sVddsw82y
p2
I1
sVdftoref
p3
I1
sVdh438tv
p4
I1
sVd94rgth
p5
I1
sVd08u6wh
p6
I1
sVdd3mwlp
p7
I1
sVd0912zs
p8
I1
sVd54jglr
p9
I1
sVdisc3bw
p10
I1
sVd38yxij
p11
I4
sVdmrolyo
p12
I1
sVdgfx67j
p13
I1
sVddd7fdt
p14
I1
sVd46yuam
p15
I1
sVdtald2l
p16
I1
sVdbwokjw
p17
I1
sVcys9w37
p18
I1
sVddvcndu
p19
I1
sVdf1xwr0
p20
I1
sVdcttosf
p21
I1
sVdjlez9v
p22
I1
s.