(dp0
Vdt2omlw
p1
I1
sVd8ing6r
p2
I1
sVd07d2l9
p3
I1
sVd9wmayb
p4
I1
sVd4e6bpd
p5
I1
sVdbrn4ko
p6
I1
sVd6lhu4p
p7
I1
sVdnmblnj
p8
I1
sVdc8utw1
p9
I1
sVdmzc1w2
p10
I1
sVdnddlne
p11
I1
sVcz68uhv
p12
I1
sVd0f39t1
p13
I1
sVd2sktn4
p14
I3
sVd2xyi5k
p15
I1
sVdefz6of
p16
I1
sVdcdv2z2
p17
I2
sVdhcokxv
p18
I1
sVd30jvyd
p19
I1
sVd22i9wb
p20
I1
sVd4p24h7
p21
I1
sVd61emhv
p22
I1
sVdptnxmp
p23
I1
sVd303p7v
p24
I1
sVd0ers5r
p25
I2
sVdbx7z2f
p26
I1
sVdiod3z9
p27
I1
sVd4vfi4b
p28
I1
sVd8vabqn
p29
I1
sVdb3nrzp
p30
I1
sVd1d39x4
p31
I1
sVd6jnnrn
p32
I1
sVds8qamk
p33
I2
sVdgd724c
p34
I1
sVddycew1
p35
I1
sVd7qgj4i
p36
I1
sVd2knhdl
p37
I1
sVczaur4t
p38
I1
sVdjd3u7n
p39
I1
sVcyk3wn1
p40
I1
sVd79jy9s
p41
I1
sVdc3b1c3
p42
I1
sVd3ldgcf
p43
I1
sVdn918k5
p44
I1
sVd3dp796
p45
I1
sVdjy4c2m
p46
I1
sVdedi95l
p47
I1
sVddxde70
p48
I1
sVdd06r9m
p49
I1
sVdjpnymu
p50
I1
sVd8w5jg1
p51
I1
sVdc1t7a6
p52
I1
sVdgo73cu
p53
I1
sVcyy0ca3
p54
I1
sVd0939um
p55
I1
sVd4rx8u3
p56
I1
sVd9e0z38
p57
I1
sVdmwwigq
p58
I1
sVd20cbsm
p59
I2
sVdaa1vpo
p60
I1
sVd0gqzsh
p61
I1
sVdabtrxb
p62
I1
sVczz4vo9
p63
I1
sVd20frt5
p64
I1
sVdiz6t76
p65
I1
sVd18t0fb
p66
I1
sVdgnju58
p67
I1
sVdsgspgs
p68
I1
sVczaem0n
p69
I1
sVdc8xtmk
p70
I1
sVd5gzd8h
p71
I1
sVdid5l5c
p72
I2
sVdaxcywn
p73
I1
sVdf7uozv
p74
I1
sVdt6xlr4
p75
I1
sVdijewvz
p76
I1
sVdijp0gy
p77
I1
sVdc43je1
p78
I1
sVdkz4iaq
p79
I1
sVd05eqjo
p80
I1
sVd01l4lt
p81
I1
sVd7azp4y
p82
I1
sVdnnroqg
p83
I1
sVd4hry7o
p84
I1
sVdg19qyu
p85
I1
sVdr7icxt
p86
I1
sVd17rytf
p87
I1
sVdmqvoq8
p88
I1
sVd9cvbpi
p89
I3
sVdavgpfq
p90
I1
sVd85sesc
p91
I1
sVd69yb9e
p92
I1
sVds8g1do
p93
I1
sVd0v09h5
p94
I1
sVd5zoc0b
p95
I1
sVdms76pf
p96
I1
sVd0mf07n
p97
I1
sVd48c1kz
p98
I1
sVdbf4wi6
p99
I1
sVdeasrak
p100
I1
sVd37nbfp
p101
I1
sVdhisjvi
p102
I4
sVd9ab81f
p103
I1
sVd3u2uvr
p104
I1
sVcyi53dl
p105
I1
sVdcawzuj
p106
I1
sVdfb29x7
p107
I1
sVcz0xqiz
p108
I1
sVdjj4b0a
p109
I1
sVczt05a6
p110
I1
sVdsgmkfa
p111
I1
sVdsd2wvf
p112
I1
sVdhzqif9
p113
I1
sVdou08i6
p114
I1
sVdiorkdq
p115
I1
sVdibte5u
p116
I1
sVd24zysm
p117
I1
sVd9c1xpl
p118
I1
sVdr6fviz
p119
I1
sVd742h4u
p120
I1
sVd5x0g8y
p121
I1
sVdhvhtok
p122
I1
sVd85sxdr
p123
I1
sVde580yd
p124
I1
sVd4rekb7
p125
I1
sVdakt4vo
p126
I4
sVd8pph2e
p127
I2
sVdh1d0ng
p128
I1
sVdcwbt96
p129
I1
sVd1m0gf9
p130
I1
sVd5k0f5r
p131
I1
sVdjxwjlh
p132
I1
sVdgd7mo3
p133
I1
sVdd2qog1
p134
I1
sVd2nawc9
p135
I1
sVd8jbyaa
p136
I1
sVd43hc6t
p137
I2
sVds4px6n
p138
I1
sVd6knaff
p139
I1
sVdh1r4mp
p140
I1
sVdjsh9uv
p141
I1
sVczrayi3
p142
I1
sVd12exux
p143
I1
sVdmwncd1
p144
I1
sVd92e5iz
p145
I1
sVd1xshal
p146
I1
sVdc72pxj
p147
I1
sVd2k0oh7
p148
I1
sVd0faj7p
p149
I1
sVdavh6ih
p150
I1
sVd1z6y8h
p151
I10
sVd43nlxx
p152
I1
sVdaxhv94
p153
I1
sVd37m2q5
p154
I1
sVdj2heqt
p155
I1
sVd8qb3cu
p156
I1
sVde9erew
p157
I1
sVdf0srdh
p158
I1
sVd4mjbpr
p159
I2
sVdi9gia4
p160
I1
sVdho47th
p161
I1
sVddx7s1p
p162
I1
sVdmeydgi
p163
I1
sVczqibju
p164
I1
sVd32adoq
p165
I1
sVd8hzswe
p166
I3
sVd0d3qlu
p167
I1
sVd8pqprx
p168
I1
sVd8yewjw
p169
I1
sVdael0m6
p170
I1
sVdewhq3e
p171
I1
sVdjsozve
p172
I1
sVdc53dxu
p173
I1
sVda8dpb6
p174
I1
sVd8g6dep
p175
I1
sVdjlkeoj
p176
I1
sVdax6g2l
p177
I1
sVd37yx6x
p178
I1
sVdmphjnx
p179
I1
sVds4p9d7
p180
I1
sVd7c4vjw
p181
I2
sVdt552te
p182
I1
sVd5ns2nd
p183
I1
sVdaohdr2
p184
I1
sVdir841x
p185
I1
sVd48latf
p186
I1
sVdr8oq0i
p187
I1
sVd8j73x5
p188
I1
sVdiiozar
p189
I1
sVdg9zise
p190
I1
sVdrdsd1h
p191
I1
sVds8mxn7
p192
I1
sVd2nyn9g
p193
I1
sVd8p14rn
p194
I1
sVd9einsp
p195
I1
sVd9f1icv
p196
I1
sVdeg3ysv
p197
I2
sVddyqsic
p198
I1
sVd96n6p1
p199
I1
sVd5mgxii
p200
I1
sVdb0uqu7
p201
I1
sVdn0gkyd
p202
I4
sVd0eqc5t
p203
I1
sVdiy6e91
p204
I1
sVdboveqw
p205
I1
sVd9g57la
p206
I1
sVdd7mn8j
p207
I2
sVd5pkdw8
p208
I1
sVd3ayrb5
p209
I1
sVd7aonq7
p210
I1
sVd7tpsx8
p211
I1
sVd66rnvn
p212
I1
sVcywts9p
p213
I1
sVd5gttlj
p214
I1
sVdpbcsfx
p215
I1
sVda67w04
p216
I1
sVd3xqkbe
p217
I1
sVd4eyd67
p218
I1
sVd7btngf
p219
I2
sVdf7pf88
p220
I1
sVda68jzo
p221
I1
sVdkk9j2m
p222
I1
sVczclkbt
p223
I1
sVdkkqp0x
p224
I1
sVd88umur
p225
I1
sVddjeg5n
p226
I1
sVczu94fl
p227
I1
sVd3qfnpw
p228
I2
sVdpqw5xe
p229
I1
sVd50xi5c
p230
I1
sVdjc0yw0
p231
I1
sVdjyvpp8
p232
I2
sVdeeshn6
p233
I1
sVd3oeegk
p234
I1
sVczewys7
p235
I1
sVdgz6vuk
p236
I1
sVda832je
p237
I1
sVddynb3h
p238
I1
sVd2oftnd
p239
I1
sVdio2m20
p240
I1
sVd1w2nm8
p241
I1
sVdb0zogd
p242
I1
sVd9lf59b
p243
I1
sVd3cbjlq
p244
I1
sVd6jfxzk
p245
I3
sVdjcbeae
p246
I1
sVdj14lx0
p247
I1
sVd20tiow
p248
I1
sVd2h4izm
p249
I1
sVd33ffnl
p250
I1
sVdgrf9n5
p251
I1
sVd5f0762
p252
I1
sVd31h5fa
p253
I1
sVdf4zyp0
p254
I1
sVdk0qamh
p255
I1
sVcz26evx
p256
I2
sVdp7p1ju
p257
I1
s.