(dp0
Vdqaghkm
p1
I1
sVdikc0b3
p2
I1
sVda0mlc6
p3
I1
sVd2obpjq
p4
I1
sVdbtk1ec
p5
I1
sVdbs23m0
p6
I1
sVdppxdwh
p7
I1
sVdjr4q5h
p8
I1
sVdgmeq54
p9
I1
sVdbc2cr6
p10
I1
sVdc1ag2h
p11
I1
sVdi80any
p12
I2
sVd93ty0e
p13
I1
sVdfq4x0x
p14
I1
sVddmb8ez
p15
I1
sVd544622
p16
I1
sVd1yfa38
p17
I1
sVd31d0y0
p18
I1
sVdha6vi8
p19
I1
sVd33x1ks
p20
I1
sVdmsjzrp
p21
I1
sVdp1gk05
p22
I1
sVd1gfqyu
p23
I1
sVdc1jxuk
p24
I1
sVd999kit
p25
I1
sVdo1gbiy
p26
I1
sVd3bq7a4
p27
I1
sVd6hgf63
p28
I1
sVdacerom
p29
I1
sVd6trb21
p30
I1
sVd3z6mga
p31
I2
sVdmtn8b4
p32
I1
sVczxchok
p33
I1
sVdd3jqk8
p34
I1
sVd22g2gv
p35
I1
sVdj5vqcw
p36
I1
sVd3xhocr
p37
I1
sVdsfl2li
p38
I1
sVd9pm1pv
p39
I1
sVcymvmzl
p40
I1
sVd4ynz2d
p41
I1
sVddjyuzl
p42
I1
sVddjfua2
p43
I1
sVcym0bul
p44
I1
sVdb2337p
p45
I1
sVdjtu22w
p46
I1
sVd0v1k8v
p47
I1
sVd2askln
p48
I1
sVd4qn3pb
p49
I1
sVcyzehda
p50
I1
sVdqam19l
p51
I1
sVd7i6vq5
p52
I1
sVdgrnsaa
p53
I1
sVdeuext6
p54
I1
sVdev64uo
p55
I2
sVdiej6s5
p56
I1
sVdkxcbph
p57
I1
sVd1wuos5
p58
I1
sVdroi6gk
p59
I1
s.