(dp0
Vd73duer
p1
I1
sVdac14vx
p2
I1
sVd7whl7p
p3
I1
sVdf2b0fa
p4
I1
sVd6581pj
p5
I2
sVdjiddtu
p6
I1
sVd7wl235
p7
I1
sVdpoipgn
p8
I1
sVdcy8mql
p9
I1
sVdaf73bh
p10
I1
sVdftlzur
p11
I1
sVdp8lcm4
p12
I1
sVd73gfva
p13
I1
sVd73ddvj
p14
I1
sVd8w8d8i
p15
I1
sVdhzf47l
p16
I2
sVd99gdoe
p17
I1
sVd83ho85
p18
I1
sVd2kwfrx
p19
I1
sVdkrp70z
p20
I1
sVd73ek42
p21
I1
sVd45459n
p22
I1
sVdcyocts
p23
I4
sVdeenhli
p24
I1
sVddsgxud
p25
I2
sVd3lq93g
p26
I1
sVdik53vp
p27
I1
sVdmlxd7d
p28
I1
sVdcnxk6h
p29
I2
sVdsv9vvx
p30
I2
sVdg2571c
p31
I1
sVd738dah
p32
I1
s.