(dp0
Vcyuw6sw
p1
I1
s.(dp0
Vcz145qh
p1
I1
sVcyuw6sw
p2
I1
s.(dp0
Vczq5ttx
p1
I1
sVcyuw6sw
p2
I1
s.(dp0
Vcyuw6sw
p1
I1
sVd0pl9x9
p2
I1
s.(dp0
Vd18q24n
p1
I1
sVcyuw6sw
p2
I1
s.(dp0
Vcyuw6sw
p1
I1
sVd275vij
p2
I1
s.(dp0
Vd2769ev
p1
I1
sVcyuw6sw
p2
I1
s.(dp0
Vcyuw6sw
p1
I1
sVd276ck0
p2
I1
s.(dp0
Vcyuw6sw
p1
I1
sVd276ck0
p2
I1
s.(dp0
Vcyuw6sw
p1
I1
sVd277ohg
p2
I1
s.(dp0
Vd27a50j
p1
I1
sVcyuw6sw
p2
I1
s.(dp0
Vcyuw6sw
p1
I1
sVd27mv31
p2
I1
s.(dp0
Vcyuw6sw
p1
I1
sVd27mv31
p2
I1
s.(dp0
Vd27oymw
p1
I1
sVcyuw6sw
p2
I1
s.(dp0
Vd3ahsyq
p1
I1
sVcyuw6sw
p2
I1
s.(dp0
Vd3sc9r1
p1
I1
sVcyuw6sw
p2
I1
s.(dp0
Vd4czhn2
p1
I1
sVcyuw6sw
p2
I1
s.(dp0
Vcyuw6sw
p1
I1
sVd6hlzdh
p2
I1
s.(dp0
Vcyuw6sw
p1
I1
sVd6hlzdh
p2
I1
s.(dp0
Vd6hmfmk
p1
I1
sVcyuw6sw
p2
I1
s.(dp0
Vcyuw6sw
p1
I1
sVd6hnogn
p2
I1
s.(dp0
Vd6hnvet
p1
I1
sVcyuw6sw
p2
I1
s.(dp0
Vcyuw6sw
p1
I1
sVd6hnzhl
p2
I1
s.(dp0
Vcyuw6sw
p1
I1
sVd6hoorn
p2
I1
s.(dp0
Vcyuw6sw
p1
I1
sVd6houwz
p2
I1
s.(dp0
Vcyuw6sw
p1
I1
sVd6houwz
p2
I1
s.(dp0
Vcyuw6sw
p1
I1
sVd6houwz
p2
I1
s.(dp0
Vcyuw6sw
p1
I1
sVd6hoyhg
p2
I1
s.(dp0
Vd6hpmio
p1
I1
sVcyuw6sw
p2
I1
s.(dp0
Vd6hpmio
p1
I1
sVcyuw6sw
p2
I1
s.(dp0
Vd6hpmio
p1
I1
sVcyuw6sw
p2
I1
s.(dp0
Vcyuw6sw
p1
I1
sVd6hqw1j
p2
I1
s.(dp0
Vcyuw6sw
p1
I1
sVd6hr5la
p2
I1
s.(dp0
Vcyuw6sw
p1
I1
sVd6hr9wd
p2
I1
s.(dp0
Vd6hsm1m
p1
I1
sVcyuw6sw
p2
I1
s.(dp0
Vd6hsm1m
p1
I1
sVcyuw6sw
p2
I1
s.(dp0
Vd6ht7s1
p1
I1
sVcyuw6sw
p2
I1
s.(dp0
Vd6ht7s1
p1
I1
sVcyuw6sw
p2
I1
s.(dp0
Vd6ht7s1
p1
I1
sVcyuw6sw
p2
I1
s.(dp0
Vd6ht7s1
p1
I1
sVcyuw6sw
p2
I1
s.(dp0
Vd6ht7s1
p1
I1
sVcyuw6sw
p2
I1
s.(dp0
Vd6ht7s1
p1
I1
sVcyuw6sw
p2
I1
s.(dp0
Vd6ht7s1
p1
I1
sVcyuw6sw
p2
I1
s.(dp0
Vcyuw6sw
p1
I1
sVd6htpvk
p2
I1
s.(dp0
Vcyuw6sw
p1
I1
sVd6hu3iz
p2
I1
s.(dp0
Vcyuw6sw
p1
I1
sVd6huqr6
p2
I1
s.(dp0
Vcyuw6sw
p1
I1
sVd6huqr6
p2
I1
s.(dp0
Vcyuw6sw
p1
I1
sVd6husti
p2
I1
s.(dp0
Vcyuw6sw
p1
I1
sVd6hxwuc
p2
I1
s.(dp0
Vcyuw6sw
p1
I1
sVd6hy0zh
p2
I1
s.(dp0
Vd6hyte3
p1
I1
sVcyuw6sw
p2
I1
s.(dp0
Vd6hzn2w
p1
I1
sVcyuw6sw
p2
I1
s.(dp0
Vd6hzq4j
p1
I1
sVcyuw6sw
p2
I1
s.(dp0
Vd6hzq4j
p1
I1
sVcyuw6sw
p2
I1
s.(dp0
Vd6hzq4j
p1
I1
sVcyuw6sw
p2
I1
s.(dp0
Vd6hzq4j
p1
I1
sVcyuw6sw
p2
I1
s.(dp0
Vd6hzq4j
p1
I1
sVcyuw6sw
p2
I1
s.(dp0
Vd6hzq4j
p1
I1
sVcyuw6sw
p2
I1
s.(dp0
Vd6hzq4j
p1
I1
sVcyuw6sw
p2
I1
s.(dp0
Vd6hzq4j
p1
I1
sVcyuw6sw
p2
I1
s.(dp0
Vd6hzq4j
p1
I1
sVcyuw6sw
p2
I1
s.(dp0
Vd6hzq4j
p1
I1
sVcyuw6sw
p2
I1
s.(dp0
Vd6hzq4j
p1
I1
sVcyuw6sw
p2
I1
s.(dp0
Vd6hzq4j
p1
I1
sVcyuw6sw
p2
I1
s.(dp0
Vd6hzq4j
p1
I1
sVcyuw6sw
p2
I1
s.(dp0
Vd6hzq4j
p1
I1
sVcyuw6sw
p2
I1
s.(dp0
Vcyuw6sw
p1
I1
sVd6i0gyg
p2
I1
s.(dp0
Vcyuw6sw
p1
I1
sVd6i3g6z
p2
I1
s.(dp0
Vcyuw6sw
p1
I1
sVd6i3g6z
p2
I1
s.(dp0
Vd6i5g4u
p1
I1
sVcyuw6sw
p2
I1
s.(dp0
Vd6i7jkq
p1
I1
sVcyuw6sw
p2
I1
s.(dp0
Vd7r30b6
p1
I1
sVcyuw6sw
p2
I1
s.(dp0
Vd7r30b6
p1
I1
sVcyuw6sw
p2
I1
s.(dp0
Vcyuw6sw
p1
I1
sVd8aiwpf
p2
I1
s.(dp0
Vd8ed4o1
p1
I1
sVcyuw6sw
p2
I1
s.(dp0
Vcyuw6sw
p1
I1
sVdbt33si
p2
I1
s.(dp0
Vdbv6m77
p1
I1
sVcyuw6sw
p2
I1
s.(dp0
Vdbv6m77
p1
I1
sVcyuw6sw
p2
I1
s.(dp0
Vcyuw6sw
p1
I1
sVdbvn4ec
p2
I1
s.(dp0
Vcyuw6sw
p1
I1
sVdbvteyr
p2
I1
s.(dp0
Vdei41h8
p1
I1
sVcyuw6sw
p2
I1
s.(dp0
Vcyuw6sw
p1
I1
sVdexo079
p2
I1
s.(dp0
Vcyuw6sw
p1
I1
sVdf17oql
p2
I1
s.(dp0
Vdfxm5bp
p1
I1
sVcyuw6sw
p2
I1
s.(dp0
Vdg4aosz
p1
I1
sVcyuw6sw
p2
I1
s.(dp0
Vdgejpcx
p1
I1
sVcyuw6sw
p2
I1
s.(dp0
Vcyuw6sw
p1
I1
sVdggr38x
p2
I1
s.(dp0
Vcyuw6sw
p1
I1
sVdggr38x
p2
I1
s.(dp0
Vcyuw6sw
p1
I1
sVdhsi2is
p2
I1
s.(dp0
Vcyuw6sw
p1
I1
sVdhsipus
p2
I1
s.(dp0
Vdmq76iw
p1
I1
sVcyuw6sw
p2
I1
s.(dp0
Vcyuw6sw
p1
I1
sVdn1d28x
p2
I1
s.(dp0
Vdn1gkt6
p1
I1
sVcyuw6sw
p2
I1
s.(dp0
Vcyuw6sw
p1
I1
sVdn1d28x
p2
I1
s.(dp0
Vdn1gkt6
p1
I1
sVcyuw6sw
p2
I1
s.(dp0
Vdn4apz1
p1
I1
sVcyuw6sw
p2
I1
s.(dp0
Vcyuw6sw
p1
I1
sVdphhf5j
p2
I1
s.(dp0
Vcyuw6sw
p1
I1
sVdphhf5j
p2
I1
s.(dp0
Vcyuw6sw
p1
I1
sVdphhf5j
p2
I1
s.(dp0
Vcyuw6sw
p1
I1
sVdphhf5j
p2
I1
s.(dp0
Vdpvykdf
p1
I1
sVcyuw6sw
p2
I1
s.(dp0
Vdqgyyo5
p1
I1
sVcyuw6sw
p2
I1
s.(dp0
Vdtditxo
p1
I1
sVcyuw6sw
p2
I1
s.