(dp0
Vcz7gjt5
p1
I1
s.(dp0
Vcz7gjt5
p1
I1
sVczkhtyk
p2
I1
s.(dp0
Vcz7gjt5
p1
I1
sVd2wkvkg
p2
I1
s.(dp0
Vcz7gjt5
p1
I1
sVd3wvu3w
p2
I1
s.(dp0
Vcz7gjt5
p1
I1
sVd40ms88
p2
I1
s.(dp0
Vcz7gjt5
p1
I1
sVd4n0ho6
p2
I1
s.(dp0
Vd73duer
p1
I1
sVcz7gjt5
p2
I1
s.(dp0
Vcz7gjt5
p1
I1
sVd9ia961
p2
I1
s.(dp0
Vcz7gjt5
p1
I1
sVdcspeen
p2
I1
s.(dp0
Vcz7gjt5
p1
I1
sVddntxn8
p2
I1
s.(dp0
Vcz7gjt5
p1
I1
sVddntxn8
p2
I1
s.(dp0
Vdeax544
p1
I1
sVcz7gjt5
p2
I1
s.(dp0
Vcz7gjt5
p1
I1
sVdgdmx5f
p2
I1
s.(dp0
Vcz7gjt5
p1
I1
sVdh7cl69
p2
I1
s.(dp0
Vcz7gjt5
p1
I1
sVdhvk8j5
p2
I1
s.(dp0
Vcz7gjt5
p1
I1
sVdhxxef3
p2
I1
s.(dp0
Vcz7gjt5
p1
I1
sVdijh2fa
p2
I1
s.(dp0
Vcz7gjt5
p1
I1
sVdk21dzv
p2
I1
s.(dp0
Vcz7gjt5
p1
I1
sVdkvz3x3
p2
I1
s.(dp0
Vcz7gjt5
p1
I1
sVdrbw0ak
p2
I1
s.(dp0
Vcz7gjt5
p1
I1
sVdrbw0ak
p2
I1
s.(dp0
Vcz7gjt5
p1
I1
sVdrbw0ak
p2
I1
s.(dp0
Vdsypyb0
p1
I1
sVcz7gjt5
p2
I1
s.