(dp0
Vd4pdzxt
p1
I1
s.(dp0
Vd89ztvp
p1
I1
sVd4pdzxt
p2
I1
s.(dp0
Vdbsfbs8
p1
I1
sVd4pdzxt
p2
I1
s.(dp0
Vdfxi2ub
p1
I1
sVd4pdzxt
p2
I1
s.(dp0
Vd4pdzxt
p1
I1
sVdim6tdj
p2
I1
s.(dp0
Vdmwmupp
p1
I1
sVd4pdzxt
p2
I1
s.(dp0
Vdmwmupp
p1
I1
sVd4pdzxt
p2
I1
s.(dp0
Vdmwqk2g
p1
I1
sVd4pdzxt
p2
I1
s.(dp0
Vdmx21sg
p1
I1
sVd4pdzxt
p2
I1
s.(dp0
Vdmx21sg
p1
I1
sVd4pdzxt
p2
I1
s.(dp0
Vdmx21sg
p1
I1
sVd4pdzxt
p2
I1
s.(dp0
Vd4pdzxt
p1
I1
sVdpqzjkv
p2
I1
s.(dp0
Vd4pdzxt
p1
I1
sVdrqc7rq
p2
I1
s.