(dp0
Vdjcu9sq
p1
I1
sVd2lya1m
p2
I1
sVdaudksg
p3
I1
sVddbymwg
p4
I1
sVd877mg7
p5
I1
sVd6fdg36
p6
I1
sVdb53c59
p7
I1
sVdjcuh75
p8
I1
sVdb53e7s
p9
I1
sVdhsxq5t
p10
I1
sVd9j2zwy
p11
I1
sVdc5h4do
p12
I1
sVd97lqus
p13
I2
sVd8hsj9e
p14
I1
sVdkm0m8j
p15
I1
sVd0mcb9l
p16
I1
sVdc3cx3l
p17
I1
sVdb56hh7
p18
I2
sVd78xm6s
p19
I1
sVd4g2916
p20
I1
sVd0z9nwx
p21
I1
sVdcuj09g
p22
I1
sVd877fih
p23
I1
sVd9xtrn1
p24
I1
sVdihihqj
p25
I2
sVd4lbtor
p26
I1
sVd3eov71
p27
I2
sVd6zj7ze
p28
I2
sVdclx5yw
p29
I1
sVd4usi80
p30
I1
sVdihi922
p31
I1
sVd1trjh2
p32
I1
s.