(dp0
Vds2y3tl
p1
I1
sVdnrwupd
p2
I1
sVcyrzrot
p3
I1
sVcyoo848
p4
I1
sVdtess3u
p5
I1
sVdnhibjo
p6
I1
sVda6odk8
p7
I1
sVdsllbhf
p8
I1
sVdsb32my
p9
I1
sVdicthxt
p10
I1
sVd19xgnd
p11
I1
sVdo4peg4
p12
I1
sVd6pfdod
p13
I1
sVdcv6svn
p14
I1
sVdjdp81w
p15
I1
sVdaecw9w
p16
I2
sVdqybz4t
p17
I2
sVdqyc0zq
p18
I1
sVd39scli
p19
I3
sVdgrmjmx
p20
I1
sVd9o1nli
p21
I1
sVddlzask
p22
I1
sVd178u0a
p23
I1
sVdej7ct8
p24
I1
sVdat4kti
p25
I1
sVdemiolc
p26
I2
sVdk8p0am
p27
I1
sVdo99o8r
p28
I1
sVdt6bnob
p29
I1
sVd2m37d6
p30
I1
sVdjhm3vq
p31
I1
sVdgqb07j
p32
I1
sVd445mok
p33
I1
sVd9n1i6s
p34
I1
sVdr5nf77
p35
I3
sVd1d7igf
p36
I1
sVdf8id5w
p37
I1
sVdfpbhde
p38
I1
sVdai8twl
p39
I1
sVdmjouz6
p40
I1
sVd3k5gqk
p41
I1
sVdn5z2f8
p42
I1
sVdqyimdd
p43
I1
sVdb94buw
p44
I1
sVdjpxvki
p45
I1
sVdael0m6
p46
I1
sVddoeerw
p47
I1
sVd3ilqtj
p48
I1
sVd2kvx6w
p49
I1
sVdbv0xj6
p50
I1
sVdiabazz
p51
I1
sVdbfl7y4
p52
I3
sVd8v6zm6
p53
I1
sVdi6o2yf
p54
I1
sVd03lsg9
p55
I1
sVdjheks5
p56
I1
sVdblnsgg
p57
I1
sVdaedyq4
p58
I1
sVd4ajdwi
p59
I1
sVdr5ybmy
p60
I3
sVd3wix0o
p61
I1
sVd5roal8
p62
I4
s.