(dp0
Vdggqnlm
p1
I1
sVdggvtfo
p2
I2
sVdjnre5s
p3
I3
sVd51o5pv
p4
I1
sVdo5q8aa
p5
I2
sVd0rzdwi
p6
I1
sVd09pds9
p7
I1
sVdcf442q
p8
I1
sVdjo0dxv
p9
I2
sVcyzfbwm
p10
I1
sVd77y4dd
p11
I1
sVdbxvbdx
p12
I1
sVdorag2m
p13
I1
s.