(dp0
Vd4uvbxp
p1
I1
s.(dp0
Vd4uvbxp
p1
I2
s.(dp0
Vd4uvbxp
p1
I2
s.(dp0
Vd4uxxii
p1
I1
sVd4uvbxp
p2
I1
s.(dp0
Vd4uxxii
p1
I1
sVd4uvbxp
p2
I1
s.(dp0
Vd4uxxii
p1
I1
sVd4uvbxp
p2
I1
s.(dp0
Vd4uxxii
p1
I1
sVd4uvbxp
p2
I1
s.(dp0
Vd4uxxii
p1
I1
sVd4uvbxp
p2
I1
s.(dp0
Vd4uxxii
p1
I1
sVd4uvbxp
p2
I1
s.(dp0
Vd4uxxii
p1
I1
sVd4uvbxp
p2
I1
s.(dp0
Vd70ot5x
p1
I1
sVd4uvbxp
p2
I1
s.(dp0
Vd7oufcj
p1
I1
sVd4uvbxp
p2
I1
s.