(dp0
Vdjrcdzq
p1
I1
sVd9d2lau
p2
I1
sVd1gz481
p3
I1
sVd096tgy
p4
I1
sVdeyczw2
p5
I1
sVd170tbc
p6
I1
sVd10ti1r
p7
I1
sVdgvycw1
p8
I1
sVd7ewrm8
p9
I1
sVdthhs3u
p10
I1
sVdefv88m
p11
I1
sVdauidrf
p12
I1
sVdfystsi
p13
I1
sVd1iubg7
p14
I1
sVcztw783
p15
I1
sVd12ftf3
p16
I1
sVd6d2uq9
p17
I1
sVdn5vqv8
p18
I1
sVddpwr31
p19
I1
sVd2krmml
p20
I1
sVds3qfef
p21
I1
sVd3uw2a1
p22
I1
sVdemh58o
p23
I1
sVd8ta18a
p24
I1
sVczb0xgc
p25
I1
sVde823dv
p26
I1
sVd8gxic3
p27
I1
sVd04ejco
p28
I1
sVd4ov771
p29
I1
sVd0a0qll
p30
I1
sVd5oo8td
p31
I1
sVd07snk1
p32
I1
sVdsyvhfc
p33
I1
sVd1stpg3
p34
I1
sVdcczp85
p35
I1
sVdh22qw8
p36
I1
sVdcyga8a
p37
I1
sVdet5l5s
p38
I1
sVdhcnv6d
p39
I2
sVd2z01he
p40
I1
sVdse6q2s
p41
I1
sVd4013r8
p42
I1
sVd1raffv
p43
I1
sVd2phdoj
p44
I1
s.