(dp0
Vdtgnar8
p1
I1
sVdegtraf
p2
I1
sVdfpw3q5
p3
I1
sVd92h72z
p4
I1
sVd1a6g5z
p5
I1
sVd22jlfh
p6
I1
sVdqyjm6n
p7
I1
sVd8f0oka
p8
I4
sVdamaqhy
p9
I1
sVd53dzwc
p10
I1
sVdqkasgx
p11
I1
sVdhe5dvh
p12
I2
sVdbfziii
p13
I1
sVd1eru04
p14
I1
sVdn5fenp
p15
I1
sVd514kbl
p16
I1
sVd6p39sk
p17
I1
sVdewx1jq
p18
I1
sVds8o09c
p19
I1
sVdi3d83o
p20
I1
sVdpucjv5
p21
I1
sVd9caj2w
p22
I1
sVczhrt9i
p23
I1
s.