(dp0
Vdskq0lc
p1
I1
sVdg8im59
p2
I1
sVdf387vs
p3
I1
sVd0qwcde
p4
I1
sVdrikygi
p5
I1
sVdjxjsyh
p6
I1
sVdbbpxv8
p7
I1
sVd5ftf32
p8
I1
sVdjw1mo8
p9
I1
sVd0hwuo4
p10
I2
sVdjos05g
p11
I1
sVd1603os
p12
I1
sVd5vlxsr
p13
I1
sVdjrjx7x
p14
I5
sVd587e9o
p15
I2
sVdpjz4rt
p16
I1
sVcz3grev
p17
I1
sVdmu8eqh
p18
I1
sVd0qxvs9
p19
I1
sVdebvx6w
p20
I1
sVdmikm9o
p21
I1
sVd150zfj
p22
I1
sVdey3wey
p23
I2
sVczjgqi4
p24
I1
sVd01zzud
p25
I1
sVcz33r57
p26
I2
sVcysttry
p27
I1
sVd0vjco9
p28
I1
sVcznvopc
p29
I2
sVcyp9ol4
p30
I1
sVdh12zcg
p31
I1
sVcysiwg6
p32
I1
sVdsksaxt
p33
I1
sVd9fs1st
p34
I1
sVdnns1fu
p35
I1
sVdgb21rq
p36
I1
sVdcfw31q
p37
I1
sVdelnu9j
p38
I1
sVd5vkmm1
p39
I1
sVdmrjz1g
p40
I2
sVd7aeco0
p41
I1
sVd3y2qof
p42
I1
sVdd6yb8n
p43
I1
sVd55ka1g
p44
I1
sVd50f35x
p45
I1
sVdcvtc39
p46
I1
s.