(dp0
Vdno3h3l
p1
I1
sVdikdnyt
p2
I1
sVd0apb07
p3
I1
sVdnt4m3x
p4
I1
sVczlxwsr
p5
I1
sVd2q9uh1
p6
I1
sVdfaavig
p7
I1
sVdss2z6j
p8
I1
sVd2unuwa
p9
I1
sVdha8un5
p10
I1
sVd28qgsi
p11
I2
sVd1r92g0
p12
I1
sVd8104ep
p13
I1
sVddo9eoe
p14
I1
sVdoj8drw
p15
I1
sVcyvwlm1
p16
I1
sVdaxt30c
p17
I1
sVdeszd2a
p18
I1
sVdguqu8a
p19
I1
sVd6qt44s
p20
I1
sVdenxwjb
p21
I1
sVd9g3tca
p22
I1
sVdiwluyv
p23
I1
sVdeounhf
p24
I1
sVdgdsjuo
p25
I1
sVdc2uysf
p26
I1
sVdh8lqm1
p27
I1
sVdqp757d
p28
I1
sVddd3vat
p29
I1
sVdguu8se
p30
I3
sVd3kud40
p31
I1
sVdalff4n
p32
I3
sVdprho4l
p33
I1
sVd20r1wo
p34
I1
sVd9jzwi5
p35
I1
sVd9gtqm3
p36
I3
sVdcevnz6
p37
I1
sVdgv3efj
p38
I1
sVd5aj789
p39
I2
sVcylxvdf
p40
I2
sVda3s7ar
p41
I1
sVd0lenwx
p42
I1
sVd4lnams
p43
I1
sVd747l1m
p44
I1
sVdkevzjo
p45
I1
sVdt6v06f
p46
I1
sVdn766pv
p47
I1
sVdixbw08
p48
I1
sVddcouuh
p49
I1
sVddde84p
p50
I1
sVd73m9ws
p51
I2
sVcz6gn1n
p52
I2
sVdgamudc
p53
I1
sVdcqvn35
p54
I1
sVd5a4fc6
p55
I1
sVdryoqsq
p56
I1
sVdepq84q
p57
I1
sVd80qzte
p58
I1
sVdf1112e
p59
I1
sVdibchvn
p60
I1
sVdgmjpho
p61
I1
sVd8o9on5
p62
I1
sVddwwolo
p63
I1
sVczzrpr4
p64
I2
sVd7n1vq3
p65
I1
sVdgyobq9
p66
I4
sVd9p92hd
p67
I1
sVdfw41t6
p68
I1
sVdqvel8h
p69
I1
sVda8oh31
p70
I3
sVd5hvv23
p71
I1
sVdf6f4dp
p72
I1
sVd16ozu8
p73
I1
sVdeitm61
p74
I2
sVdnfwtxr
p75
I1
sVdp8kw06
p76
I1
sVdmrareq
p77
I1
sVdqn6jv3
p78
I1
sVdh16zh6
p79
I1
sVdkwzp46
p80
I1
sVdnagow6
p81
I1
sVdmrlgbq
p82
I1
sVdgyjmbr
p83
I1
sVdd8vn7c
p84
I1
sVdk5go9q
p85
I1
s.