(dp0
Vdidxpja
p1
I1
sVd58vvzq
p2
I1
sVd7tffxd
p3
I1
sVd8651xk
p4
I1
sVd85rgt1
p5
I2
sVd85r0ri
p6
I1
sVd7dhsxp
p7
I1
sVd41a2bi
p8
I1
sVddwht56
p9
I1
sVdtae2ob
p10
I1
sVdco7bar
p11
I1
sVdfrfrg3
p12
I1
sVdckdf90
p13
I2
sVd85r2o6
p14
I1
sVdkrz55m
p15
I1
sVd7cd5ch
p16
I2
sVd8qf6ru
p17
I2
sVczm67qc
p18
I1
sVdfrxenp
p19
I1
sVdg21t8v
p20
I2
sVdhexhoi
p21
I1
sVdjd3z3s
p22
I1
sVd3knsm2
p23
I1
sVdc9lx1h
p24
I1
sVd7ccz66
p25
I4
sVd0gsqtl
p26
I1
sVczhs40h
p27
I1
sVdftem1r
p28
I1
s.