(dp0
Vd45mtqz
p1
I1
sVdcdmuq9
p2
I1
sVd06ttww
p3
I1
sVcypk55y
p4
I1
sVdso0uf8
p5
I1
sVdanem7v
p6
I1
sVd6hvfez
p7
I2
sVdjtq2dz
p8
I1
sVdgyj6q5
p9
I1
sVde6wbv4
p10
I1
sVd0628so
p11
I1
sVczq635e
p12
I1
sVd1kg7zn
p13
I1
sVdjypmb4
p14
I2
sVd8ewi72
p15
I1
s.