(dp0
Vd0ni9mo
p1
I1
sVdfwq24d
p2
I1
sVd1bdk54
p3
I1
sVdpqxe5s
p4
I2
sVcyo4lb6
p5
I1
sVdb0n631
p6
I1
sVdgi05dh
p7
I1
sVd04dlvl
p8
I1
sVdi123ea
p9
I1
sVd9zwh8d
p10
I1
sVd1xk8t5
p11
I1
sVd1hi4pr
p12
I1
sVdbobgho
p13
I2
sVd4lx4yu
p14
I1
sVd15zvoo
p15
I1
sVd0nvrfk
p16
I1
sVd0njlrd
p17
I1
sVdp356v9
p18
I1
sVd1w7ase
p19
I2
s.