(dp0
Vdfpjmv6
p1
I1
sVdbsaeju
p2
I2
sVdajkdv3
p3
I1
sVd3n0q7z
p4
I1
sVd658kqn
p5
I1
sVdhcrx1j
p6
I2
sVd4uk39m
p7
I1
sVd7ukto3
p8
I1
sVcztyd7q
p9
I1
sVd62fx8c
p10
I1
sVdeor5vu
p11
I1
sVd2pl7kj
p12
I1
sVd827lem
p13
I1
sVdh2f6hz
p14
I2
sVd5mgxii
p15
I1
sVd591daj
p16
I1
sVdbu2p9p
p17
I1
sVd8eqdd7
p18
I1
sVd9r93k2
p19
I2
sVdcw26rh
p20
I1
sVd1d9m8y
p21
I1
sVdh59hwu
p22
I1
sVd50bdku
p23
I1
sVdou3l3i
p24
I1
sVczn6vxp
p25
I1
sVczf6ced
p26
I1
sVd79gu9o
p27
I4
sVdtcovcn
p28
I1
sVdjnxnk5
p29
I1
sVdkf4jwh
p30
I1
sVd4triom
p31
I2
sVdf03npr
p32
I1
sVd15zvoo
p33
I1
sVcysrn3x
p34
I1
sVdmry8a0
p35
I1
sVdcm3ehk
p36
I1
sVczn9qb9
p37
I1
sVddw8l6p
p38
I1
sVd0ba4ts
p39
I1
sVd0j7xv3
p40
I1
sVdrlnaug
p41
I1
sVdbgrrpb
p42
I3
sVdhxq7th
p43
I1
sVcz9rkfq
p44
I1
sVdohcaz5
p45
I1
sVd6mayq9
p46
I1
sVdf66xe4
p47
I2
sVdkibgbk
p48
I1
sVd9a1kso
p49
I1
sVd30yc0f
p50
I1
sVd9er0hz
p51
I1
sVczyy8r4
p52
I1
sVdjj76fa
p53
I1
sVd4otq4u
p54
I1
sVd482ztr
p55
I1
sVd55wdq9
p56
I1
sVd30l1we
p57
I1
sVd30lsic
p58
I1
sVdjt7tbe
p59
I3
sVdrovjao
p60
I3
sVd0u8jj6
p61
I1
sVd7a5g7y
p62
I1
sVdbfvd0v
p63
I1
sVd0qhsjh
p64
I1
sVd7ffjpe
p65
I1
sVde7r1ey
p66
I1
sVds0eq10
p67
I1
sVdjo3xtm
p68
I1
sVdfw7k4q
p69
I1
sVd4xenxv
p70
I2
sVdjavntz
p71
I1
sVdh39sih
p72
I1
sVd8qer73
p73
I1
sVddg1en6
p74
I1
sVd41tffu
p75
I1
sVd5deqz0
p76
I1
sVdhl31in
p77
I1
sVd37wcl0
p78
I1
sVd554b61
p79
I2
sVd5xmsfl
p80
I1
sVdakinwj
p81
I1
s.