(dp0
Vd1duthn
p1
I1
sVd05hri1
p2
I1
sVd3l6hh1
p3
I1
sVdffg3s4
p4
I1
sVdc3kco3
p5
I1
sVd2g3xcm
p6
I1
sVdahgyaw
p7
I5
sVdhzjq55
p8
I1
sVd37m360
p9
I1
sVdkuamuj
p10
I1
sVd62fx8c
p11
I1
sVd7he242
p12
I1
sVcznv3kn
p13
I8
sVdb569v2
p14
I2
sVdpoex1l
p15
I1
sVdn56xg2
p16
I1
sVd3x26vg
p17
I2
sVd2d1n6v
p18
I1
sVddb3kjm
p19
I1
sVdc595o3
p20
I1
sVdpi1qjj
p21
I1
sVdatl0qu
p22
I1
sVd1j83ft
p23
I1
sVd52nnxf
p24
I1
sVdcz2vfh
p25
I1
sVddnzp5c
p26
I2
sVdcdltss
p27
I1
sVdcjczd5
p28
I1
sVd3v9zo0
p29
I1
sVczwhxb0
p30
I1
sVdj5w7kl
p31
I1
sVd29z7dh
p32
I1
sVdskhfkg
p33
I1
sVdax2kgq
p34
I1
sVdilht6q
p35
I1
sVdfazw3i
p36
I2
sVdiq9zfi
p37
I1
sVdbyek16
p38
I1
sVdmfy072
p39
I1
sVd83trxg
p40
I2
sVd0nwii5
p41
I2
sVdj9kye7
p42
I1
sVdt82zkj
p43
I1
sVdnq1eev
p44
I1
sVdqu4yvr
p45
I1
sVd0c6eeq
p46
I1
sVdhf7clg
p47
I2
sVdcebu72
p48
I1
sVdhwelu1
p49
I5
sVdifcxvn
p50
I1
sVcz8k620
p51
I1
sVd51egn7
p52
I1
sVd3x1jtm
p53
I1
sVczxq8q1
p54
I1
sVdi3628c
p55
I2
sVdhw50cn
p56
I1
sVczhvzbz
p57
I1
sVd2vviyb
p58
I1
sVcz6stlx
p59
I1
sVd7qpk40
p60
I1
sVdfqcagv
p61
I1
sVdjnibya
p62
I3
sVdp0cns0
p63
I1
sVdfjf1jz
p64
I1
sVdfj8fyk
p65
I1
sVdk8s0gt
p66
I1
sVd0f16mv
p67
I1
sVd245e5o
p68
I2
sVdmh06t6
p69
I1
sVdt7xqsl
p70
I1
sVdi5irjo
p71
I1
sVdezybvy
p72
I1
sVds2e7sw
p73
I2
sVd2o2ub0
p74
I1
sVdiahkqi
p75
I2
sVdc9kdii
p76
I1
sVd1cc4wr
p77
I3
sVd3wtgla
p78
I1
sVd4ikofx
p79
I2
sVd4j1azr
p80
I1
sVd6yosky
p81
I1
sVd7mq8f5
p82
I2
sVdh4qzck
p83
I1
sVd5rs5ut
p84
I1
sVd9aoptx
p85
I1
sVczatlur
p86
I1
sVd1ezjw3
p87
I1
sVddpxomb
p88
I1
sVdhw8hqx
p89
I1
sVd4swx0g
p90
I1
sVd8xmlx3
p91
I1
sVdcfwr4d
p92
I1
sVd7tq3oo
p93
I3
sVcz2xt14
p94
I1
sVd1bwp0g
p95
I1
sVda80vvs
p96
I1
sVd5pqam1
p97
I1
sVdoacxar
p98
I1
sVdcpmnlg
p99
I2
sVdpxkkgw
p100
I5
sVdkqt70q
p101
I1
sVde0k0jo
p102
I1
sVd3x36bb
p103
I2
sVcytpdgi
p104
I1
sVdj7czqq
p105
I1
sVdaw2apu
p106
I1
sVd0cfa9z
p107
I1
sVdh4ceto
p108
I2
sVd2ydnxj
p109
I1
sVdd7nxol
p110
I1
sVcznuonw
p111
I3
sVdi4g13r
p112
I1
sVda3x8gu
p113
I1
sVdhcz2ew
p114
I1
sVcynxr38
p115
I1
sVd7uboiv
p116
I2
sVd5pv390
p117
I1
sVdn8j9c8
p118
I1
sVczatmpn
p119
I1
sVdg4tdu0
p120
I1
sVdmy2kmk
p121
I2
sVd1jgyfm
p122
I1
sVd7mwrzy
p123
I2
sVdhylt0y
p124
I1
sVdae5394
p125
I1
sVcyo1ne1
p126
I7
sVdcvg11w
p127
I1
sVd7f8ir4
p128
I1
sVdguu8se
p129
I1
sVd1kxv2e
p130
I1
sVcyim32d
p131
I1
sVdrvsz5w
p132
I1
sVd6ub1ur
p133
I4
sVdevwt7e
p134
I1
sVd8ip5ez
p135
I1
sVddgp9a3
p136
I1
sVdetr0tt
p137
I1
sVd1dts34
p138
I2
sVdiy8b0d
p139
I1
sVd5rr8yg
p140
I1
sVd3x49h5
p141
I1
sVd5w0nhn
p142
I1
sVd7qntbk
p143
I2
sVdkcpsq5
p144
I1
sVd7bnk4t
p145
I1
sVddph6vx
p146
I1
sVdf3ot5b
p147
I1
sVd1bwvg7
p148
I1
sVd6hbss0
p149
I3
sVdd1q57j
p150
I1
sVczhwml7
p151
I1
sVd4fmz8f
p152
I1
sVczjjnof
p153
I2
sVdkn3nyd
p154
I1
sVdmk9kcw
p155
I1
sVdclwq74
p156
I1
sVdhotwzt
p157
I1
sVcywdiwj
p158
I4
sVd2t4jxw
p159
I1
sVd36v4kf
p160
I1
sVdici3tk
p161
I1
sVdp9xlqj
p162
I1
sVd8hn9gv
p163
I1
sVd2h4vux
p164
I1
sVdj8vrtj
p165
I3
sVd6q2bjg
p166
I1
sVd5pe7a0
p167
I1
sVd4enn4r
p168
I1
sVdbygjbn
p169
I1
sVdpi2cwc
p170
I1
sVcza2e17
p171
I4
sVd0f18u2
p172
I2
sVdeu8zl7
p173
I1
sVczjk6ea
p174
I2
sVdarxr9i
p175
I1
sVd0iav4t
p176
I3
sVdp93s27
p177
I2
sVd0epoel
p178
I1
sVd7i0zam
p179
I1
sVd0q5ubn
p180
I1
sVdhxb60c
p181
I1
sVd3x40nt
p182
I3
sVdn2r3g6
p183
I1
sVdh231oi
p184
I1
sVdqhf98m
p185
I1
sVd2eejh0
p186
I1
sVd7w546x
p187
I1
sVd0hr5w5
p188
I1
sVd01cen5
p189
I1
sVdpmnodw
p190
I1
sVd8owk7c
p191
I1
sVddgl8vx
p192
I1
sVdac5ger
p193
I1
sVdkhf2bd
p194
I1
sVdsmls9c
p195
I1
sVd3qm80n
p196
I1
sVczadewp
p197
I1
sVd436d5q
p198
I2
sVd5olr3n
p199
I1
sVdrgqob2
p200
I1
sVdp0cgtr
p201
I1
sVd1gu3uu
p202
I2
sVdjpvmpf
p203
I1
sVdf06lp0
p204
I1
sVdsimj9f
p205
I1
sVdpmq8qe
p206
I1
sVcyirva8
p207
I1
sVdeijc56
p208
I1
sVczravfi
p209
I1
sVd70zcxa
p210
I1
sVdoepd2e
p211
I1
sVda8oh31
p212
I1
sVdfogz75
p213
I1
sVdffgtf0
p214
I1
sVdf67j5t
p215
I1
sVdqjmdl1
p216
I1
sVdckgruj
p217
I1
sVdg7zkir
p218
I2
s.