(dp0
Vdhvb1z3
p1
I1
sVdg2lgo0
p2
I1
sVd7ddfxs
p3
I1
sVdbt3yze
p4
I1
sVdflemaf
p5
I1
sVdb8vjdk
p6
I1
sVd2k43ek
p7
I1
sVddsw82y
p8
I1
sVd1y2utb
p9
I1
sVdh4rbb7
p10
I1
sVdc8hzn0
p11
I1
sVd27ijva
p12
I1
sVd1jg2fu
p13
I2
sVczvy9mr
p14
I2
sVd2af1dy
p15
I2
sVdfk5979
p16
I1
sVdj6duzi
p17
I1
sVdbw9mvj
p18
I1
sVdbtfisv
p19
I1
sVd07yj47
p20
I1
sVdbe98yy
p21
I1
sVczhpbu8
p22
I1
sVd1qm9wr
p23
I1
sVd07yldr
p24
I1
sVczc6z5i
p25
I1
sVd0tze3y
p26
I1
sVd0dfvef
p27
I1
sVd36a61r
p28
I1
sVd1mvxe6
p29
I1
sVddjp8ov
p30
I1
sVddwgvnm
p31
I1
sVdgwfzyc
p32
I1
sVds3nv1r
p33
I2
sVdcm4caf
p34
I1
sVdifeg1c
p35
I1
sVd2a2gye
p36
I1
sVd8mjc98
p37
I1
sVd4hz7tg
p38
I1
sVd95q4ca
p39
I1
sVcz4y2x8
p40
I1
sVdjff8ui
p41
I1
sVcyn6kvr
p42
I1
sVdmi4ioo
p43
I1
sVd4j1c9n
p44
I1
sVdcau6i9
p45
I1
sVdcbp7h6
p46
I5
sVdir4ozh
p47
I1
sVd1torml
p48
I1
sVd3f39z0
p49
I1
sVd76sbzi
p50
I1
sVdg3x2se
p51
I1
sVdeewbyq
p52
I2
sVd7rfjif
p53
I1
sVdr6jzq2
p54
I1
sVd03fc7u
p55
I1
sVdje2l5w
p56
I1
sVd3l0rsn
p57
I1
sVde4m4kx
p58
I1
sVd8jtd7v
p59
I1
sVdt0xkwj
p60
I1
sVcyk7336
p61
I1
sVd1pf7hc
p62
I1
sVd65o0b0
p63
I1
sVd561120
p64
I1
sVd12sg7j
p65
I1
sVd73p7ph
p66
I1
sVd8uhm7l
p67
I1
sVcz3uvnt
p68
I1
sVd0k9kck
p69
I1
sVd95tj9u
p70
I1
sVczvl8pv
p71
I1
sVd3arlxr
p72
I1
sVdd59dwv
p73
I1
sVcz7sizd
p74
I1
sVddi4xmc
p75
I1
sVd97edfp
p76
I1
sVdjecl9p
p77
I1
sVdb5erwy
p78
I2
s.