(dp0
Vd6suotl
p1
I1
sVdcpk1kb
p2
I1
sVdhn2cn3
p3
I1
sVd107v07
p4
I2
sVd3qwk6q
p5
I1
sVdgvmrg7
p6
I2
sVdh2h0wu
p7
I1
sVdd5fzlw
p8
I1
sVdr1ci6t
p9
I1
sVd0vbmdw
p10
I1
sVde8hgz4
p11
I2
sVdqvdy72
p12
I1
sVd6oceel
p13
I1
sVdhzroic
p14
I2
sVd5f1sk1
p15
I2
sVd0teba7
p16
I1
sVd8eyye4
p17
I2
sVdiidoy8
p18
I1
sVdbmmbpl
p19
I2
sVczfjaof
p20
I1
sVdbaxs9d
p21
I5
sVdg934jy
p22
I1
sVddm93a4
p23
I1
sVdkyx2x6
p24
I1
sVdcx2vxv
p25
I2
sVd0dy4ug
p26
I3
sVczlv768
p27
I1
sVdjd0b65
p28
I1
sVdh1b64g
p29
I1
sVd4rly8g
p30
I1
sVdcxlmed
p31
I1
sVdgtmcup
p32
I1
sVddbn0bh
p33
I1
sVdh8u0p4
p34
I1
sVda13cl0
p35
I3
sVdnuqxf2
p36
I1
sVdsqepm1
p37
I2
sVd2m0dhg
p38
I1
sVd3hyz1h
p39
I1
sVdn40gom
p40
I1
sVd7a1dg2
p41
I2
sVczp8yto
p42
I1
sVdmou70u
p43
I1
sVda01v44
p44
I5
sVdgtk7kh
p45
I1
sVcytogj3
p46
I1
sVd81atic
p47
I1
sVdnws63b
p48
I2
sVcz8tr7i
p49
I2
sVdqpnqd4
p50
I1
sVdseziwx
p51
I1
sVd0t1axo
p52
I1
sVd8yh1mb
p53
I2
sVdall8yc
p54
I1
sVczekpr2
p55
I1
sVd9lrx5e
p56
I2
sVcyly7rx
p57
I1
sVddz937m
p58
I2
sVcyjv5pm
p59
I1
sVczf3rwz
p60
I1
sVczsnm2i
p61
I1
sVdpj6jhb
p62
I1
sVd87idtn
p63
I1
sVd8veh6v
p64
I1
sVd8g6bps
p65
I6
sVdd5juc5
p66
I1
sVd27h4pd
p67
I2
sVdevammi
p68
I2
sVd92zrww
p69
I1
sVd6ao6h6
p70
I3
sVd7qkchs
p71
I1
sVdaf59pd
p72
I1
sVd79o1fm
p73
I5
sVd09fhq2
p74
I1
sVd7hzeco
p75
I1
sVczgor05
p76
I1
sVd27mfrq
p77
I1
sVd8dd8af
p78
I1
sVdah07xo
p79
I1
sVdajfqb1
p80
I1
sVdhuy1fu
p81
I1
sVddzaqoc
p82
I1
sVd0huflz
p83
I1
sVdpq3rq8
p84
I1
sVd0sul7g
p85
I1
sVd9no7sw
p86
I1
sVd7wyesq
p87
I4
sVdifkqj9
p88
I1
sVdn2br9h
p89
I1
sVdk30opl
p90
I1
sVcyob4bg
p91
I1
sVde695fw
p92
I2
sVd5fcfhw
p93
I1
sVdd83et4
p94
I1
sVd8f4279
p95
I1
sVdafflk9
p96
I1
sVd6w47ka
p97
I1
sVd3970mq
p98
I1
sVddq68er
p99
I2
sVd8e8n2j
p100
I1
sVdjhi1nk
p101
I1
sVdquwyj7
p102
I1
sVdjbcnbb
p103
I1
sVd3o8sq8
p104
I1
sVdt7q0ld
p105
I1
sVdaz0ekh
p106
I1
sVd6sufgj
p107
I1
sVddznzal
p108
I1
sVdt2u203
p109
I1
sVczae642
p110
I1
sVd179yju
p111
I3
sVdcx4tpc
p112
I1
sVd1aqvbf
p113
I2
sVdmvz6sm
p114
I1
sVd7w0o06
p115
I1
sVdeuyj3z
p116
I1
sVds96g75
p117
I2
sVczesi75
p118
I1
sVdjyxyfi
p119
I2
sVdgm396c
p120
I1
sVdi9lmnm
p121
I1
sVd1nqqdk
p122
I1
sVde8ef7e
p123
I1
sVdkhkczh
p124
I1
sVd1o12ox
p125
I1
sVdeakn6o
p126
I2
sVd86evli
p127
I2
sVd07wzk4
p128
I4
sVdkhksn5
p129
I1
sVcylh2p4
p130
I1
sVdg1bqyz
p131
I2
sVd1gvrys
p132
I1
sVdqnkfde
p133
I1
sVdhgba5b
p134
I1
sVda102vm
p135
I2
sVdgd0knf
p136
I1
sVdeux7um
p137
I1
sVddrjn5g
p138
I1
sVddvalvx
p139
I2
sVdij0ydg
p140
I1
s.