(dp0
Vds2rjx8
p1
I1
sVdi014dm
p2
I1
sVcyqfzi7
p3
I1
sVd0n1qso
p4
I1
sVdfzhbru
p5
I1
sVdsfezan
p6
I1
sVczgz0jj
p7
I1
sVd4bfsl5
p8
I1
sVd8ciclh
p9
I1
sVd0k6egh
p10
I1
sVd10er7d
p11
I1
sVd5n9893
p12
I1
sVd85tmb2
p13
I1
sVd2rb5t0
p14
I1
sVdgsgakj
p15
I1
sVdczm9tb
p16
I1
sVd0yvdt1
p17
I1
sVdmn6rhn
p18
I1
sVdjh5m9i
p19
I1
sVddcmu2y
p20
I1
sVd34ngjp
p21
I1
sVdhacfgx
p22
I1
sVd29sxqh
p23
I1
sVd1ybge7
p24
I2
sVd46x45w
p25
I1
sVdbrfhj8
p26
I1
sVd9pvojk
p27
I1
sVcyjvp1r
p28
I1
sVdorm0js
p29
I1
sVdiscnjn
p30
I1
sVd4ssd9u
p31
I2
sVd5xp1s4
p32
I1
sVd738vvd
p33
I1
sVd346qi0
p34
I1
sVdhzfjh5
p35
I1
sVd9o4zhd
p36
I1
sVd85o3j4
p37
I1
sVd46emgn
p38
I1
sVd2bspsf
p39
I1
sVczm3655
p40
I1
sVdmiio79
p41
I1
sVd8s3cp0
p42
I1
sVddgegba
p43
I1
sVd471s5f
p44
I1
sVdoiuaw2
p45
I1
sVdo1vm21
p46
I1
sVddbhn7v
p47
I1
sVdiloqjn
p48
I1
sVd4fltuu
p49
I1
sVd6m8gqj
p50
I2
sVcyuh9vz
p51
I1
sVdira9n8
p52
I1
sVd7ygs4r
p53
I1
sVd09q4s7
p54
I1
sVcysiwg6
p55
I1
sVd3r3v5n
p56
I1
sVdi2p8xg
p57
I1
sVcz854gv
p58
I1
sVdhvf138
p59
I1
sVd8hmm7h
p60
I1
sVd83pzs2
p61
I1
sVd10sh9h
p62
I1
sVczfoc0e
p63
I1
sVdbmcnyb
p64
I1
sVdroq11q
p65
I1
sVdefnpi5
p66
I1
sVdmxrker
p67
I1
sVdaikk2s
p68
I1
sVddp7mnr
p69
I1
sVcysumwu
p70
I1
sVdhexc0z
p71
I1
sVcz053fn
p72
I1
sVd5e56ju
p73
I1
sVd4r4d72
p74
I2
sVdoj894b
p75
I1
sVd3tzede
p76
I1
sVdew3kcl
p77
I1
sVd0m9x14
p78
I1
sVcz677ik
p79
I1
sVd89jdcs
p80
I1
sVdnhd8yy
p81
I1
sVd9y6n5j
p82
I1
sVdguua55
p83
I2
sVd1ze0tg
p84
I1
sVd1uullx
p85
I1
sVd95877c
p86
I6
sVd4qw8n5
p87
I1
sVdir5we5
p88
I1
sVd5bly82
p89
I1
sVcyjec2i
p90
I1
sVdn655sd
p91
I1
sVcyxif5c
p92
I1
sVd8xuy8p
p93
I1
sVdeypngp
p94
I1
sVdc2ybhj
p95
I1
sVd71zjnl
p96
I1
sVdiqp4h4
p97
I1
sVdknjnyy
p98
I1
sVd44dy42
p99
I1
sVdeuz3qv
p100
I1
sVd5yckbz
p101
I1
sVdq41ddl
p102
I1
sVdbi0axx
p103
I1
sVdjir91j
p104
I1
sVd9yq8gt
p105
I1
sVdsvqbl9
p106
I1
sVcytcqz6
p107
I1
sVd1w88pr
p108
I1
sVd0iwpb9
p109
I1
sVdgt3ll0
p110
I1
sVd59zf1o
p111
I1
sVdgdorv7
p112
I1
sVdoree68
p113
I1
sVd0smsux
p114
I1
sVdb0swks
p115
I1
sVdeuwq3m
p116
I1
sVd7rxfzu
p117
I2
sVda68rz1
p118
I1
sVcz4s4bh
p119
I1
sVdibnxt2
p120
I1
sVd1dsfbq
p121
I1
sVdh0yyba
p122
I1
sVd4fm20q
p123
I1
sVdjyzruc
p124
I1
sVd3ytzjb
p125
I1
sVdhbsx04
p126
I1
sVdc71b2a
p127
I1
sVdbsviir
p128
I1
sVd85oxes
p129
I1
sVdg4me9u
p130
I1
sVdfdr33c
p131
I1
sVdbyuzkc
p132
I1
sVd4xkd7d
p133
I1
s.