(dp0
Vd7o9wh1
p1
I1
sVd6rkp9u
p2
I2
sVdfhxz1l
p3
I1
sVd84qoly
p4
I1
sVdqwugjp
p5
I1
sVdfi5jnu
p6
I1
sVd2bdc2k
p7
I4
sVd4u67fs
p8
I2
sVd7nyh1x
p9
I1
sVd7xouuf
p10
I3
sVd5ksl6p
p11
I4
sVdiga5lw
p12
I1
sVdfi18yi
p13
I1
sVd4j64ar
p14
I2
sVdfhwzb6
p15
I2
sVdejwopj
p16
I1
sVdbcflfj
p17
I1
sVcz7e5hh
p18
I3
sVd0teelc
p19
I1
sVd2hepux
p20
I1
sVd9gqf2n
p21
I1
sVd05e5di
p22
I1
sVdpbryi5
p23
I1
sVcyzb8xu
p24
I1
sVd7pw2vz
p25
I1
sVczwq9qv
p26
I1
sVd2uxg61
p27
I3
sVdfhx7j4
p28
I1
sVcyrd2tm
p29
I1
sVdigkj89
p30
I1
s.