(dp0
Vcysnyu7
p1
I1
sVde68ffh
p2
I1
sVditucs0
p3
I1
sVda7l64i
p4
I2
sVdcaqem6
p5
I1
sVd9v0sd1
p6
I1
sVcyr5w8p
p7
I1
sVcymuae3
p8
I1
sVdf7xblh
p9
I1
sVd9e94l3
p10
I2
sVd9pvvod
p11
I1
sVd4h3rco
p12
I1
sVdjh9rs7
p13
I1
sVdhn7o84
p14
I1
sVd6xxt61
p15
I1
sVd2igjll
p16
I1
sVde64oq8
p17
I1
sVd6rsjo9
p18
I1
sVcyp8154
p19
I1
sVdnr2jki
p20
I1
sVdb88763
p21
I1
sVdjvhh2y
p22
I1
sVdig8um2
p23
I1
sVd0chlcj
p24
I4
sVd3e3bro
p25
I1
sVd5yeof6
p26
I1
s.