(dp0
Vd1xh4ck
p1
I1
s.(dp0
Vd1xh4ck
p1
I1
sVd2ntgkn
p2
I1
s.(dp0
Vd2w6gpb
p1
I1
sVd1xh4ck
p2
I1
s.(dp0
Vd1xh4ck
p1
I1
sVd5t6ol7
p2
I1
s.(dp0
Vd631n55
p1
I1
sVd1xh4ck
p2
I1
s.(dp0
Vd1xh4ck
p1
I1
sVd6aonl4
p2
I1
s.(dp0
Vd1xh4ck
p1
I1
sVd6xg0qx
p2
I1
s.(dp0
Vd1xh4ck
p1
I1
sVd7s4545
p2
I1
s.(dp0
Vd1xh4ck
p1
I1
sVd95m8in
p2
I1
s.(dp0
Vd1xh4ck
p1
I1
sVdauc2x0
p2
I1
s.(dp0
Vd1xh4ck
p1
I1
sVdcap8lk
p2
I1
s.(dp0
Vd1xh4ck
p1
I1
sVddf4f4s
p2
I1
s.(dp0
Vd1xh4ck
p1
I1
sVddf4f4s
p2
I1
s.(dp0
Vd1xh4ck
p1
I1
sVddw1l0p
p2
I1
s.(dp0
Vd1xh4ck
p1
I1
sVde0sjtm
p2
I1
s.(dp0
Vd1xh4ck
p1
I1
sVdehhqnq
p2
I1
s.(dp0
Vd1xh4ck
p1
I1
sVdeqfdgh
p2
I1
s.(dp0
Vdfykukd
p1
I1
sVd1xh4ck
p2
I1
s.(dp0
Vd1xh4ck
p1
I1
sVdiqegkk
p2
I1
s.(dp0
Vdk5yxuk
p1
I1
sVd1xh4ck
p2
I1
s.(dp0
Vdkoxc9h
p1
I1
sVd1xh4ck
p2
I1
s.(dp0
Vd1xh4ck
p1
I1
sVdkrdmgf
p2
I1
s.(dp0
Vd1xh4ck
p1
I1
sVdmpstpq
p2
I1
s.(dp0
Vd1xh4ck
p1
I1
sVdmuaaw1
p2
I1
s.(dp0
Vdp5rq41
p1
I1
sVd1xh4ck
p2
I1
s.(dp0
Vd1xh4ck
p1
I1
sVdt8j3oz
p2
I1
s.(dp0
Vdtcklpt
p1
I1
sVd1xh4ck
p2
I1
s.