(dp0
Vd2o27qh
p1
I1
sVdbqrxfc
p2
I1
sVczb814e
p3
I1
sVdqklrtm
p4
I1
sVds4rxkg
p5
I1
sVcyo1ne1
p6
I1
sVd659ydz
p7
I2
sVd137727
p8
I1
sVczu6d4r
p9
I1
sVd1j2vjq
p10
I1
sVdb9x37p
p11
I1
sVd5p4g7l
p12
I1
sVdfkcco0
p13
I1
sVd70cv74
p14
I1
sVdj18wh0
p15
I1
sVdfow6hj
p16
I1
sVd7o66pw
p17
I1
sVdtar0jb
p18
I1
sVd0c6eeq
p19
I2
sVd83xu0g
p20
I1
sVdaz9h91
p21
I1
sVdj9kjxq
p22
I1
sVd1td409
p23
I1
sVd01is9w
p24
I1
s.