(dp0
Vczbwgqm
p1
I1
s.(dp0
Vczbwgqm
p1
I1
sVczoxg0c
p2
I1
s.(dp0
Vczbwgqm
p1
I1
sVd0wwgy5
p2
I1
s.(dp0
Vczbwgqm
p1
I1
sVd10m15w
p2
I1
s.(dp0
Vczbwgqm
p1
I1
sVd171ray
p2
I1
s.(dp0
Vczbwgqm
p1
I1
sVd34furt
p2
I1
s.(dp0
Vczbwgqm
p1
I1
sVd3lim3p
p2
I1
s.(dp0
Vczbwgqm
p1
I1
sVd4tzbnx
p2
I1
s.(dp0
Vczbwgqm
p1
I1
sVd6cfx1i
p2
I1
s.(dp0
Vczbwgqm
p1
I1
sVdcmi2nq
p2
I1
s.(dp0
Vczbwgqm
p1
I1
sVdef06h5
p2
I1
s.(dp0
Vczbwgqm
p1
I1
sVdg3jfl3
p2
I1
s.(dp0
Vczbwgqm
p1
I1
sVdit1u6f
p2
I1
s.(dp0
Vczbwgqm
p1
I1
sVdkfel8d
p2
I1
s.(dp0
Vczbwgqm
p1
I1
sVdoeszz4
p2
I1
s.(dp0
Vczbwgqm
p1
I1
sVdou6fw6
p2
I1
s.(dp0
Vczbwgqm
p1
I1
sVdqybh21
p2
I1
s.(dp0
Vczbwgqm
p1
I1
sVdrsy8c3
p2
I1
s.(dp0
Vczbwgqm
p1
I1
sVdsfkh7i
p2
I1
s.