(dp0
Vd3qtakn
p1
I1
sVd3uod6v
p2
I1
sVdo5t27x
p3
I1
sVdmt9p1b
p4
I1
sVdateqqg
p5
I1
sVdintvp8
p6
I2
sVdn8wfhp
p7
I2
sVddn7y5y
p8
I4
sVd0j5eau
p9
I1
sVdpy32r4
p10
I1
sVd2tysp1
p11
I1
sVdkfqg2o
p12
I1
sVd1zycnx
p13
I1
sVcz0mpll
p14
I3
sVd48xjuh
p15
I1
sVd91ij74
p16
I1
sVd0hzeem
p17
I2
sVdiy8wlh
p18
I1
sVdphhjc2
p19
I1
sVd3r8w6m
p20
I1
sVddcuqvo
p21
I1
sVd15jcto
p22
I1
sVcyicfzu
p23
I3
sVddenhbu
p24
I1
sVd284rqj
p25
I1
sVczgo3g2
p26
I1
sVdgrqyd6
p27
I3
sVd6aianz
p28
I2
sVdp8ki71
p29
I1
sVdphh8h2
p30
I2
sVd2yh1zu
p31
I2
sVdcjv8fx
p32
I2
sVdjlesni
p33
I1
sVdj0pr76
p34
I1
sVd2yfq29
p35
I1
sVdcu37r7
p36
I1
sVdaqmiaz
p37
I2
sVd85wcll
p38
I3
sVdqc8sj8
p39
I1
sVd3r1xr7
p40
I1
sVd4ffug2
p41
I1
sVdjecl9p
p42
I2
sVd2bgwoa
p43
I6
sVdfxt9ef
p44
I1
sVcyldfpa
p45
I1
sVd3pd2oe
p46
I1
sVd2zxy6z
p47
I1
sVdaqm31q
p48
I1
sVdrfdk50
p49
I1
sVdg5uuug
p50
I1
sVdihqygq
p51
I2
sVczfn3fj
p52
I1
sVcz64m3l
p53
I1
sVdb5klw9
p54
I5
sVd3aktrp
p55
I3
sVd9ry5s9
p56
I2
sVdf3kyf2
p57
I1
sVd3ty0v1
p58
I8
sVdkf5dmq
p59
I1
sVdb5kend
p60
I3
sVdbm2iwu
p61
I1
sVd5v2ghj
p62
I1
sVdaqon53
p63
I2
sVcyyxd1d
p64
I2
sVd3p6hyz
p65
I1
sVdp644rp
p66
I1
sVcymseid
p67
I1
sVd5v2h7h
p68
I1
sVcznael6
p69
I1
sVdrzj6br
p70
I1
sVdtcvwn0
p71
I1
sVddiedts
p72
I2
sVd7hbo5v
p73
I1
sVd5zuri3
p74
I1
sVd23j527
p75
I1
sVdkwen9p
p76
I1
sVcyyxmeh
p77
I1
sVd5oih9u
p78
I2
sVd6agwbu
p79
I4
sVddzgw8v
p80
I1
sVdmq39lj
p81
I2
sVdc71pgh
p82
I1
sVcytfo7y
p83
I1
sVd48y5ys
p84
I1
sVdb7d9sq
p85
I1
sVdb1g08u
p86
I1
sVdjbctji
p87
I1
sVd5vgjj9
p88
I1
sVdt6aulu
p89
I2
sVd7wrngs
p90
I1
sVdmpxt1l
p91
I1
s.