(dp0
Vcyj7om6
p1
I1
s.(dp0
Vcyj7om6
p1
I1
sVd035voo
p2
I1
s.(dp0
Vd18qrdt
p1
I1
sVcyj7om6
p2
I1
s.(dp0
Vcyj7om6
p1
I1
sVd1k5he4
p2
I1
s.(dp0
Vcyj7om6
p1
I1
sVd1w9jb1
p2
I1
s.(dp0
Vcyj7om6
p1
I1
sVd2pqbuq
p2
I1
s.(dp0
Vcyj7om6
p1
I1
sVd2pqbuq
p2
I1
s.(dp0
Vd4rxw2p
p1
I1
sVcyj7om6
p2
I1
s.(dp0
Vcyj7om6
p1
I1
sVd5d2v07
p2
I1
s.(dp0
Vcyj7om6
p1
I1
sVd5hmhup
p2
I1
s.(dp0
Vcyj7om6
p1
I1
sVd7wrxka
p2
I1
s.(dp0
Vcyj7om6
p1
I1
sVd8ejrne
p2
I1
s.(dp0
Vcyj7om6
p1
I1
sVd8q10up
p2
I1
s.(dp0
Vcyj7om6
p1
I1
sVd8qb79b
p2
I1
s.(dp0
Vcyj7om6
p1
I1
sVd9ywfe3
p2
I1
s.(dp0
Vcyj7om6
p1
I1
sVdbxhpgn
p2
I1
s.(dp0
Vcyj7om6
p1
I1
sVdcvnhlx
p2
I1
s.(dp0
Vdcza1xj
p1
I1
sVcyj7om6
p2
I1
s.(dp0
Vcyj7om6
p1
I1
sVddjcp7w
p2
I1
s.(dp0
Vcyj7om6
p1
I1
sVddnbszr
p2
I1
s.(dp0
Vcyj7om6
p1
I1
sVdee4isz
p2
I1
s.(dp0
Vcyj7om6
p1
I1
sVdercdo5
p2
I1
s.(dp0
Vdhkrjo1
p1
I1
sVcyj7om6
p2
I1
s.(dp0
Vcyj7om6
p1
I1
sVdhwx3oh
p2
I1
s.(dp0
Vcyj7om6
p1
I1
sVdi6iuyu
p2
I1
s.(dp0
Vcyj7om6
p1
I1
sVdi6iuyu
p2
I1
s.(dp0
Vcyj7om6
p1
I1
sVdilyxmo
p2
I1
s.(dp0
Vcyj7om6
p1
I1
sVdjbwybb
p2
I1
s.(dp0
Vcyj7om6
p1
I1
sVdjv3rk1
p2
I1
s.(dp0
Vcyj7om6
p1
I1
sVdn1674p
p2
I1
s.(dp0
Vcyj7om6
p1
I1
sVdn1674p
p2
I1
s.(dp0
Vcyj7om6
p1
I1
sVdngcgxo
p2
I1
s.(dp0
Vcyj7om6
p1
I1
sVdo895m4
p2
I1
s.(dp0
Vdp6gsfe
p1
I1
sVcyj7om6
p2
I1
s.(dp0
Vcyj7om6
p1
I1
sVdpiq6da
p2
I1
s.(dp0
Vcyj7om6
p1
I1
sVdpiq6da
p2
I1
s.(dp0
Vcyj7om6
p1
I1
sVdri1drx
p2
I1
s.(dp0
Vcyj7om6
p1
I1
sVdsbkiyx
p2
I1
s.