(dp0
Vd2wyiuc
p1
I1
sVdmo3rgc
p2
I1
sVd7z2o3w
p3
I1
sVd33wwhx
p4
I1
sVdngx0vp
p5
I1
sVd1kof6w
p6
I1
sVd0o73w1
p7
I1
sVdditrrb
p8
I1
sVd44p3hi
p9
I1
sVd9ywhuu
p10
I1
sVcyi2odj
p11
I1
sVdst5xqr
p12
I1
sVcyyyaev
p13
I1
sVd3n0ilj
p14
I1
sVczqfvnp
p15
I1
sVdia3o93
p16
I1
sVdh7wv7z
p17
I1
sVd760h4i
p18
I2
sVdaiknk3
p19
I1
sVd9i1cy3
p20
I1
sVdmrmev4
p21
I1
sVddrav4h
p22
I1
sVd8q10up
p23
I1
sVd6l12rt
p24
I1
sVdngtbwq
p25
I1
sVdgjd8r8
p26
I1
sVd0a5l33
p27
I1
sVd3tarrh
p28
I1
sVdpz6eas
p29
I2
sVdf9ql8y
p30
I1
sVdd5d55m
p31
I1
sVdh8jitr
p32
I1
sVcyjgxwv
p33
I1
sVcyj59ni
p34
I1
sVddog6ia
p35
I1
sVdhby67d
p36
I1
sVdk8q12u
p37
I1
sVd6l65mw
p38
I1
sVdevs344
p39
I1
sVdkqdx1n
p40
I1
sVdf1s0ft
p41
I1
sVd2t3qw2
p42
I1
sVd99bzc2
p43
I1
sVddi4dm9
p44
I1
sVd8yh5s5
p45
I1
sVczh2bam
p46
I1
sVd74h794
p47
I1
sVdazr2dk
p48
I1
sVd30zfdt
p49
I1
sVcyidzzc
p50
I1
sVdr8n2d3
p51
I1
sVd0r1lkp
p52
I1
sVd44cx40
p53
I1
sVdcbji04
p54
I1
sVdh27ip8
p55
I1
sVdkdwvgx
p56
I1
sVcyncxwh
p57
I1
sVd1hh54p
p58
I1
sVdg54h9v
p59
I1
sVdco0qm0
p60
I1
sVd8ftuoq
p61
I1
sVdkku57t
p62
I1
sVdga5imz
p63
I1
sVd8am2cz
p64
I1
sVdkhy6ye
p65
I1
sVd4xxecu
p66
I1
sVcz86sck
p67
I1
sVdkkad7f
p68
I1
sVd29xlkz
p69
I1
sVd2a0gfy
p70
I4
sVdpatky0
p71
I1
sVd1ibo2x
p72
I1
sVdf3rirp
p73
I1
sVd9tssbq
p74
I1
sVd7v6q29
p75
I1
sVd897kfy
p76
I1
sVda816bk
p77
I1
sVd4jn89z
p78
I1
sVdceux7c
p79
I1
sVd3tat6r
p80
I1
sVd3r5zwz
p81
I3
sVdbd426j
p82
I1
sVdclh169
p83
I1
sVd9qor9b
p84
I3
sVd3bhvfa
p85
I1
sVdgrulgi
p86
I1
sVd9130zh
p87
I2
sVdhlyb98
p88
I1
sVdfu1ylf
p89
I1
sVdkmahf5
p90
I1
sVdic87l4
p91
I1
sVd8q0vk4
p92
I1
sVd01sgl6
p93
I1
sVdh1mudk
p94
I1
sVdo5ckap
p95
I1
sVd7k5utf
p96
I1
sVd474ino
p97
I1
sVd5ize5t
p98
I1
sVd90sqhv
p99
I1
sVdpvro1m
p100
I1
sVdilj8lm
p101
I1
sVd4cusnc
p102
I1
sVd5jlbsp
p103
I1
sVczqwtf1
p104
I1
sVdo94f8f
p105
I1
sVddb822x
p106
I1
sVczh4got
p107
I1
sVd7pmqk0
p108
I1
sVdmn28zp
p109
I1
sVdhgo524
p110
I1
sVd5u59nt
p111
I1
sVddccg2e
p112
I1
sVdbc7tbu
p113
I2
sVd050t1c
p114
I1
sVdjrky3j
p115
I1
sVd2xljh6
p116
I2
sVd44cxlx
p117
I1
sVdt38gk5
p118
I1
sVcz4qmyj
p119
I1
sVdf87mon
p120
I1
sVczkudwc
p121
I1
sVd1ohchr
p122
I1
sVd1io79m
p123
I1
sVdhd5na1
p124
I2
sVd5vpx4e
p125
I1
sVd4w9xs7
p126
I2
sVd5zn0oi
p127
I2
sVd3cxccb
p128
I1
sVdqppmii
p129
I2
sVd811ahr
p130
I2
sVd5aujlf
p131
I1
sVd83td3v
p132
I1
sVdnpjs6a
p133
I1
sVdj5dgsv
p134
I1
sVdizobl4
p135
I1
sVd8p1enx
p136
I1
sVd3r8ril
p137
I1
sVdd3sxeh
p138
I1
sVd242vhw
p139
I1
sVdojw9mm
p140
I1
sVdgso2rf
p141
I1
sVdskwhgq
p142
I1
sVdo1r3qb
p143
I1
sVcze18v0
p144
I1
sVd9x5i7l
p145
I1
sVdk5bgdr
p146
I1
sVdjgnzmq
p147
I1
sVdo5t3mp
p148
I1
sVczw6q2i
p149
I1
sVdi8x03o
p150
I1
sVd3nqyyh
p151
I1
sVdejq4dr
p152
I1
sVdivjirg
p153
I1
sVd0s7351
p154
I1
sVdc9w80z
p155
I1
sVdf6elte
p156
I1
sVcywntfr
p157
I1
sVd44pafv
p158
I1
sVddwnhj2
p159
I2
sVd4h4a20
p160
I1
sVdalg3ro
p161
I1
sVd8x8uut
p162
I1
sVd62y2yu
p163
I1
sVd20fo7c
p164
I1
sVdct36hu
p165
I1
sVd9hwmnk
p166
I1
sVdgi6kco
p167
I1
sVd015vii
p168
I1
sVd1uxxp5
p169
I1
sVcz17hqh
p170
I2
sVdsdm1pz
p171
I1
sVdsrpvk6
p172
I1
sVd8fzny2
p173
I1
sVdr50nfz
p174
I1
sVd9mm9xx
p175
I1
sVdb0ougi
p176
I5
sVdgrrw4n
p177
I1
sVdpfjro5
p178
I1
sVdjdxsw0
p179
I1
sVd97fvw3
p180
I1
sVd50gcrz
p181
I1
sVd0fr8l8
p182
I1
sVdah29xk
p183
I1
sVdq4ohmh
p184
I2
sVd039bj6
p185
I1
sVd81nw78
p186
I1
sVd48ls9d
p187
I1
sVdcf3pky
p188
I1
sVd8zsiu7
p189
I2
sVdb4q2kc
p190
I1
sVdervw38
p191
I1
sVdfbbv0s
p192
I1
sVdiziz9l
p193
I1
sVdbfxgty
p194
I1
sVd22qc16
p195
I1
sVd7gv2iu
p196
I1
sVdanod3j
p197
I1
sVdrwx2l9
p198
I1
s.