(dp0
Vdcalj02
p1
I1
sVdhmgxg9
p2
I1
sVd9nb45t
p3
I1
sVd74sx2s
p4
I1
sVd6xlj9w
p5
I1
sVd8q0m7t
p6
I1
sVd5vxi4p
p7
I1
sVd95mzpl
p8
I1
sVd5i8zen
p9
I1
sVdeo0s2h
p10
I1
sVd730woz
p11
I1
sVdppdb74
p12
I1
sVczrib1c
p13
I1
sVd83edsh
p14
I1
sVdksz4we
p15
I1
sVdk1vr06
p16
I1
sVdsag62d
p17
I1
sVdjkf0yu
p18
I1
sVd7jh7fc
p19
I1
sVdgosval
p20
I1
sVd0n9e7l
p21
I1
sVdcw7qaw
p22
I1
sVd1p4w3y
p23
I1
sVd2gf1te
p24
I1
s.