(dp0
Vdb7cd95
p1
I1
sVdcqef66
p2
I1
sVdoja5mw
p3
I1
sVdjz7f4h
p4
I1
sVde3ejgm
p5
I1
sVd9qfnhz
p6
I1
sVddsjv95
p7
I1
sVd2e4zbm
p8
I1
sVd6gc31m
p9
I1
sVczen9n4
p10
I1
sVdc74jpy
p11
I4
sVdcmsne8
p12
I1
sVde3bak3
p13
I1
sVd43dcvf
p14
I1
sVd8bdg54
p15
I1
sVdjujfem
p16
I1
sVd2qx22v
p17
I1
sVcywntpe
p18
I1
sVd7c04b7
p19
I1
sVdazmak4
p20
I1
sVczk7zkc
p21
I1
sVd9nkmr9
p22
I1
sVde6qvcu
p23
I1
sVdg39igt
p24
I1
sVdcviv12
p25
I1
sVdmz0hwn
p26
I1
s.