(dp0
Vczqa3lk
p1
I1
sVd844o9y
p2
I1
sVdeiur0b
p3
I1
sVd07pkrv
p4
I1
sVcz0bjk6
p5
I1
sVd7la8c4
p6
I1
sVdhy62c6
p7
I1
sVd00jcv3
p8
I1
sVdnz2nv1
p9
I1
sVd5m0lgn
p10
I1
sVd3lgfi7
p11
I1
sVdk09aw5
p12
I1
sVd1lxpg4
p13
I3
sVczxin80
p14
I1
sVdslbi4y
p15
I1
sVdawveca
p16
I1
sVdocm069
p17
I1
sVdalsxlo
p18
I1
sVd0qrzhq
p19
I1
sVdnae9il
p20
I1
sVd1smuzq
p21
I1
sVd6ueofo
p22
I1
sVd8xsz1h
p23
I2
sVdeo3wor
p24
I1
sVdfu6hj9
p25
I1
sVd95ov4t
p26
I1
sVdbro1lh
p27
I1
sVcz56kqe
p28
I2
sVd0btvum
p29
I1
sVczglde0
p30
I1
sVczmf9zy
p31
I1
sVdq90fy1
p32
I1
sVd6jlm2a
p33
I1
sVdb48hyg
p34
I1
sVd3x3dsq
p35
I1
sVcylf51n
p36
I1
sVd8zxg9s
p37
I1
sVd3k2nnx
p38
I1
sVdp37xrx
p39
I1
sVdc3dvnp
p40
I1
sVd8sn5nc
p41
I1
sVdf99239
p42
I1
sVd9k8o7r
p43
I1
sVdcvzin6
p44
I1
sVd89r86h
p45
I1
sVdcuh1no
p46
I1
sVd7p5wb1
p47
I1
sVd1wwo0e
p48
I1
sVdo1zbhr
p49
I1
sVd4i3iu6
p50
I1
sVd46emgn
p51
I1
sVdho618q
p52
I1
sVd3r8uui
p53
I1
sVdn04r7b
p54
I2
sVd0ph25y
p55
I1
sVd4a2vf1
p56
I1
sVcynrv8f
p57
I1
sVdmwrvz1
p58
I1
sVda0of7g
p59
I1
sVd9qoqg1
p60
I1
sVda4ftzf
p61
I1
sVd3gq2bi
p62
I1
sVdf0wp9g
p63
I1
sVddetmd6
p64
I1
sVd0e4j0r
p65
I1
sVd7l1i32
p66
I1
sVddjausx
p67
I1
sVdjb6an5
p68
I1
sVd5hwnnh
p69
I1
sVdbdprm1
p70
I1
sVdon8xru
p71
I1
sVd9gxidj
p72
I1
sVd54dy6e
p73
I1
sVd3klkw9
p74
I1
sVday4gk4
p75
I1
sVd4ualt0
p76
I1
sVd5ougyd
p77
I1
sVdcw64bp
p78
I2
sVdo7r2p0
p79
I1
sVd4sgcdr
p80
I1
sVdcxva19
p81
I1
sVdf93gsk
p82
I1
sVdqvqxid
p83
I1
sVdn77d6a
p84
I1
sVd51rh5i
p85
I1
sVd9czian
p86
I1
sVddpw1an
p87
I1
sVdaul7k0
p88
I1
sVd4kgz6o
p89
I1
sVczbr3is
p90
I1
sVdfhawwc
p91
I1
sVd47rqwj
p92
I1
sVdrnirmr
p93
I1
sVdd72n7c
p94
I1
sVdfuz1bq
p95
I1
sVdhah3jo
p96
I1
sVdcgh142
p97
I1
sVdejjbdl
p98
I1
sVczurmde
p99
I1
sVdc73xvm
p100
I1
sVdq7yrm4
p101
I1
sVdqvr42t
p102
I1
sVd8826x4
p103
I1
sVd4s71t8
p104
I1
sVdqjugfz
p105
I1
sVdg46biv
p106
I1
sVdpzr1go
p107
I1
sVd1dzxd8
p108
I1
sVdh4dwa3
p109
I1
sVdd7tmdd
p110
I1
sVd2rcy6k
p111
I1
sVd10z0i0
p112
I1
sVd0axhka
p113
I1
sVddnbpmd
p114
I1
sVd1cye6j
p115
I1
sVd06vbz5
p116
I1
sVd95y60t
p117
I1
sVdelhztw
p118
I1
sVd87n5m5
p119
I1
sVd375bs6
p120
I1
sVddwhhdt
p121
I1
sVdf690i3
p122
I1
sVdeiiuiq
p123
I1
sVddt5my4
p124
I1
sVdr5yyz9
p125
I1
sVd2c4qzn
p126
I1
sVddomgna
p127
I1
sVd847a0l
p128
I1
sVdn6ezm9
p129
I1
sVdgo8is6
p130
I2
sVd2lchtd
p131
I1
sVcz0b3c8
p132
I1
sVda2ikoz
p133
I1
sVd88nmux
p134
I1
sVdcpvzmq
p135
I1
sVd7yz0of
p136
I1
sVdbspxch
p137
I1
sVdrox4x9
p138
I1
sVdi7n9du
p139
I1
sVde1wr4u
p140
I1
sVdh84ru7
p141
I1
sVdazp9dk
p142
I1
sVd6xajle
p143
I1
sVd01htxf
p144
I1
sVde0n8sq
p145
I1
sVd8lvpdr
p146
I1
sVd0huxsu
p147
I1
sVcz17hqh
p148
I1
sVdaxn98v
p149
I1
sVd1l63j4
p150
I1
sVd3l0rmv
p151
I1
sVcz8a6d1
p152
I1
sVd01r9jk
p153
I1
sVdp5269u
p154
I1
sVczoi1uz
p155
I1
sVdsustqy
p156
I1
sVcz5en0z
p157
I1
sVd0qsdbw
p158
I1
sVdk09flo
p159
I1
sVdhesz0o
p160
I1
sVdmtzgkd
p161
I1
sVdcwcdw2
p162
I1
sVdh4fhvf
p163
I1
sVd6a6c3z
p164
I1
sVd5ojfqs
p165
I1
sVdh4gtxk
p166
I1
sVd03nyz8
p167
I2
sVcz3wss8
p168
I2
sVd4db5z5
p169
I1
s.