(dp0
Vd8ts5eh
p1
I2
sVd161nj4
p2
I1
sVdfhri0a
p3
I1
sVd7uklew
p4
I1
sVdfynswo
p5
I1
sVd1qqipk
p6
I2
sVd5x2we3
p7
I1
sVdacerom
p8
I1
sVd8n7ivg
p9
I1
sVdfdi2v5
p10
I1
sVd1gs9py
p11
I1
sVd7cqqzg
p12
I1
sVdrekn85
p13
I1
sVd9cd0ne
p14
I1
sVd2tc042
p15
I1
sVd33lweh
p16
I1
sVd2vdmvf
p17
I1
sVdedvft2
p18
I1
sVd7482wh
p19
I1
sVcyzuor1
p20
I1
sVdhz6ebc
p21
I1
sVdjnncrx
p22
I1
sVdbn20l0
p23
I1
sVdewd7qr
p24
I1
sVd8pii1f
p25
I2
sVd2w9oul
p26
I1
sVd9ftvdq
p27
I1
sVcz4rqgf
p28
I1
sVdiy1s9x
p29
I1
sVdg5huqu
p30
I1
sVd6snd33
p31
I1
sVdbwkk5j
p32
I1
sVddkxjaq
p33
I1
sVdi3if4h
p34
I1
sVczxafgl
p35
I1
sVdjmzaau
p36
I1
sVd0pl84r
p37
I1
sVdmslmtq
p38
I1
sVd97jta4
p39
I1
sVd0mu0cy
p40
I1
sVd6tgctg
p41
I1
sVd2fsw0r
p42
I1
sVdhf0y4j
p43
I1
sVdcbevv6
p44
I1
sVdqp92xn
p45
I1
sVd1h1na4
p46
I1
sVdh086dc
p47
I1
sVd66tkmc
p48
I1
sVds4r0vt
p49
I1
sVdqc2dcg
p50
I1
sVd5jctx4
p51
I1
sVczsrb3g
p52
I1
sVd23vzbp
p53
I1
sVczcmelv
p54
I1
sVddi6zbc
p55
I1
sVczxq1kc
p56
I1
sVd034q86
p57
I1
sVdebk423
p58
I1
sVddyw92t
p59
I1
sVda4jtvq
p60
I1
sVdd6g4zi
p61
I1
sVdbr3d2l
p62
I1
sVdf9ajgy
p63
I1
sVdb8dzh1
p64
I1
sVcyuny2p
p65
I1
sVdan8oq9
p66
I1
sVd9515g0
p67
I1
sVdfvxnr4
p68
I1
sVdcw1whx
p69
I1
sVd16d0vm
p70
I1
sVdsinhzc
p71
I1
sVdf6tn1o
p72
I1
sVdea5yyj
p73
I1
sVdfd22zm
p74
I1
sVdfrztjr
p75
I2
sVcyt1dnt
p76
I1
sVdg3qhjh
p77
I1
sVdozk6yu
p78
I1
sVdmsfsv2
p79
I1
sVd9l3cko
p80
I1
sVd81gqns
p81
I1
sVdftyfq8
p82
I1
sVdcg91et
p83
I1
sVds1ywi6
p84
I1
sVd182bge
p85
I1
sVd3d17g7
p86
I1
sVdt9eet2
p87
I1
sVd7fe2v0
p88
I1
sVdhcvkj5
p89
I1
sVdh4vof3
p90
I1
sVd0fcd3f
p91
I1
sVd3t6tzb
p92
I1
sVdjkpv4i
p93
I2
sVdcctf6q
p94
I1
sVd34dk9a
p95
I1
sVd4jnyy5
p96
I1
sVd8v9kxa
p97
I1
sVde8v3v1
p98
I1
sVd6i2tmn
p99
I1
sVdi3mamv
p100
I1
sVdbo2nea
p101
I1
sVdsg50vz
p102
I1
sVdo6ol5e
p103
I1
sVcz91y5s
p104
I1
sVcz48v73
p105
I1
sVcz6iqdb
p106
I1
sVd971dn3
p107
I1
sVd3zvr1w
p108
I1
sVd6sn1lu
p109
I1
sVdhqxhjb
p110
I1
sVd43o1nu
p111
I1
sVdbrnf0a
p112
I1
sVd3gylj3
p113
I1
sVd1zjg53
p114
I1
sVdjg476w
p115
I1
sVd6mk7e5
p116
I1
sVd796sku
p117
I1
sVdp2aoij
p118
I1
sVdc2sxoz
p119
I1
sVdo1mrrq
p120
I1
sVd9fm1ss
p121
I1
sVd3iux1t
p122
I1
sVd5ob2cg
p123
I1
sVd6csv4z
p124
I1
sVdg2xhmj
p125
I1
sVd192y1l
p126
I1
sVdms5rdc
p127
I1
sVd1667w1
p128
I1
sVdauwz20
p129
I1
sVdgs6f7u
p130
I1
sVdi92s4r
p131
I1
sVd1i2f1c
p132
I2
sVd2zmm6x
p133
I1
sVd08xm5m
p134
I1
sVd4veu4r
p135
I1
sVdt52vf4
p136
I1
sVd43lao5
p137
I1
sVcywfqha
p138
I1
sVdiept3k
p139
I1
sVcznqfza
p140
I1
sVd28tjtz
p141
I1
sVdd7odih
p142
I1
sVcyxua6m
p143
I1
sVdbl1bgy
p144
I1
sVdefv63v
p145
I1
sVd44jys3
p146
I1
sVd0lrle3
p147
I1
sVd1xqlu2
p148
I1
sVd3iwwsp
p149
I1
sVd0yghua
p150
I1
sVdcgydxn
p151
I1
sVd8wb9zi
p152
I1
sVd5eoz43
p153
I1
sVdjkf4fc
p154
I1
sVd07xtrj
p155
I1
sVcym0066
p156
I1
sVde7ysy3
p157
I1
sVdcibq5g
p158
I1
sVdkw1877
p159
I1
sVczw0s6w
p160
I1
sVd7jut06
p161
I1
sVdjkz7yg
p162
I1
sVd3qk61z
p163
I2
sVdgyfkdc
p164
I1
sVd37pr1h
p165
I3
sVczwzoxc
p166
I1
sVdrxtms9
p167
I2
sVdqyjm6n
p168
I1
sVdcuu015
p169
I1
sVcyvd3n0
p170
I1
sVddp5jav
p171
I1
sVddopk46
p172
I1
sVd4j4f1n
p173
I1
sVdti9kjd
p174
I1
sVdh5wx16
p175
I1
sVdd3aaol
p176
I1
sVdhnx39y
p177
I1
sVdbem5ja
p178
I1
sVd9ua5w4
p179
I1
sVdhminy9
p180
I1
sVdeu1qiv
p181
I1
sVdquina1
p182
I1
sVdqh5hvz
p183
I1
sVcyi90ah
p184
I1
sVdnr5olh
p185
I1
sVd08fg37
p186
I1
sVdc7t8pp
p187
I1
sVd8kb985
p188
I1
sVd39eux9
p189
I1
sVd2my1ii
p190
I1
sVde15mls
p191
I1
sVdixp2ex
p192
I1
sVdgwlwnw
p193
I1
sVcyu1x3d
p194
I2
sVd0s3cbi
p195
I1
sVcyvjfo6
p196
I2
sVdrozlou
p197
I1
sVdft142i
p198
I3
sVdg8bd8p
p199
I1
sVd6wr1e0
p200
I1
sVd7w2lnd
p201
I1
sVdg0r6cm
p202
I1
sVdeq7wd8
p203
I1
sVd61tp18
p204
I1
sVd49rpn7
p205
I1
sVdfgsobt
p206
I1
sVdo8ihac
p207
I1
sVdh8ub70
p208
I1
sVd3vqcb2
p209
I1
sVd8oi0mw
p210
I1
sVdd60wpx
p211
I1
sVd03wv8k
p212
I1
sVdmeydgi
p213
I1
sVd1j2oer
p214
I1
sVd0zxtrd
p215
I3
sVd896yoi
p216
I1
sVd4bcxbb
p217
I1
sVdcyaqjb
p218
I1
sVd4t367s
p219
I1
sVd88vgws
p220
I1
sVdcla4qc
p221
I1
sVdn6fb1f
p222
I1
sVdn6ddjz
p223
I1
sVd9q040b
p224
I1
sVdmz9kjp
p225
I2
sVczvks22
p226
I1
sVdkt5p7l
p227
I2
sVd2geksa
p228
I1
sVde20z7e
p229
I1
sVdd6qsq3
p230
I1
sVdj8vhms
p231
I1
sVdfthrre
p232
I1
sVde2p7a4
p233
I1
sVdhzuegv
p234
I1
sVd5mfozk
p235
I1
sVdppmxfh
p236
I1
sVdkkz11f
p237
I1
sVdf4rtf5
p238
I1
sVd4wlro6
p239
I1
sVdfihhhp
p240
I1
sVd3n1ag7
p241
I1
sVczvs937
p242
I2
sVdc3vqv7
p243
I1
sVdhz47e3
p244
I2
sVd8s7mif
p245
I1
sVdjpn653
p246
I1
sVd2ewpu1
p247
I1
sVczl2mv1
p248
I1
sVd6wjlqb
p249
I1
sVdpuvxq9
p250
I1
sVddojkzj
p251
I2
sVd6wp2g5
p252
I1
sVdd8cylh
p253
I1
sVd6lukli
p254
I1
sVdtdv8dk
p255
I1
sVcz5d9cy
p256
I1
sVdiue6v6
p257
I1
sVdg26qdp
p258
I1
sVdayrplw
p259
I1
sVdkj932x
p260
I1
sVdeo7gst
p261
I1
sVdk0nhpc
p262
I1
sVdpfhmqb
p263
I1
sVd9ojaa8
p264
I2
sVd0ld2iy
p265
I1
sVdr1xfrx
p266
I1
sVdo5tmg1
p267
I1
sVd6pm7tf
p268
I1
sVdd61fgh
p269
I1
sVdfboe57
p270
I1
sVdnjhoga
p271
I1
sVdjqg7so
p272
I1
sVdjb5hvp
p273
I2
sVd0wu8vu
p274
I1
sVdrgbjc6
p275
I1
sVdj8al0i
p276
I1
sVd6r1d1d
p277
I1
sVd1gfixx
p278
I1
sVdrg6ahr
p279
I3
sVde05pnz
p280
I1
sVd9600e2
p281
I1
sVcz0jpf3
p282
I1
sVd16hppk
p283
I1
sVcyxt381
p284
I1
sVdmnhw2u
p285
I1
sVdgvrs4t
p286
I1
sVd29u17d
p287
I1
sVd0gqzsh
p288
I1
sVdbzfws2
p289
I1
sVdrwihnl
p290
I1
sVd1iesg8
p291
I1
sVdcvwxmb
p292
I1
sVdbb1xfu
p293
I1
sVdbacey7
p294
I1
sVdk0ftwk
p295
I1
sVcymtqkk
p296
I2
sVdpmykal
p297
I1
sVdftw7ls
p298
I1
sVcztgbu3
p299
I3
sVd5aaxe4
p300
I1
sVd6w6fi8
p301
I1
sVd7ctm3f
p302
I1
sVd96e98k
p303
I1
sVdctqqm0
p304
I1
sVd3q204i
p305
I1
sVdiioham
p306
I1
sVd72xl1m
p307
I1
sVddsg7ny
p308
I1
sVdk1vbhs
p309
I1
sVdc2hxd2
p310
I1
sVd45vrqq
p311
I1
sVdn6a9r7
p312
I1
sVdbojs41
p313
I1
sVdbkm893
p314
I1
sVczou2a1
p315
I1
sVdo7r2p0
p316
I1
sVd8doz64
p317
I1
sVdps2rnr
p318
I1
sVdftq8at
p319
I1
sVd5ilewe
p320
I1
sVd8h1ei9
p321
I1
sVd1bp62x
p322
I1
sVde0ubgg
p323
I1
sVdmq9mxw
p324
I1
sVdg1ipt3
p325
I1
sVdq8jeyc
p326
I1
sVdr9m2oy
p327
I1
sVddh480m
p328
I1
sVdmyapu3
p329
I1
sVdbjx6dk
p330
I1
sVd1j5uzu
p331
I1
sVdp626l2
p332
I1
sVdh62btb
p333
I1
sVcyzt6ks
p334
I1
sVdp90mv8
p335
I1
sVdmruo83
p336
I1
sVdhiqu2p
p337
I1
sVdfnccoz
p338
I1
sVdji6ooq
p339
I1
sVd9lrbqj
p340
I2
sVdoegkzu
p341
I1
sVd23gxm4
p342
I1
sVd747edb
p343
I1
sVd61i49i
p344
I1
sVd26t1hr
p345
I1
sVd15n2lg
p346
I1
sVczzzqtt
p347
I1
sVd5oozqg
p348
I1
sVcz4ry15
p349
I1
sVd92914b
p350
I1
sVd2iyknz
p351
I1
sVd6d9ftj
p352
I1
sVddupkie
p353
I1
sVdteph92
p354
I1
sVd4oiukm
p355
I1
sVdt7q0ld
p356
I1
sVdih7229
p357
I1
sVdnenkac
p358
I1
sVd1jmtfi
p359
I1
sVd7z6q91
p360
I1
sVddxm1iz
p361
I1
sVdds6utu
p362
I1
sVdsos3s0
p363
I1
sVcyonf00
p364
I1
sVdcuumn6
p365
I1
sVdt4dv18
p366
I1
sVdn9ian4
p367
I1
sVd33vq9x
p368
I1
sVdqzpqrr
p369
I1
sVdeqrmbw
p370
I1
sVd8jgryh
p371
I1
sVdq7pwxn
p372
I1
sVd0yivlx
p373
I1
sVd35i2n9
p374
I1
sVdiy6vnl
p375
I1
sVd88ip8i
p376
I1
sVdc8uq9m
p377
I2
sVd2zgegh
p378
I1
sVd5zpv93
p379
I1
sVdsvcabz
p380
I1
sVd0zzb7z
p381
I1
sVd1qkf7r
p382
I1
sVd2ph5x3
p383
I1
sVdbqreb0
p384
I1
sVd0uh3jt
p385
I2
sVdc7dzx3
p386
I1
sVdpqy1jw
p387
I1
sVd17f9mi
p388
I1
sVd51wt4h
p389
I1
sVd26svz0
p390
I1
sVdflc71c
p391
I1
sVd9fr336
p392
I2
sVd5jc20q
p393
I1
sVd51ud8z
p394
I1
sVdfty4vw
p395
I1
sVd2aeauq
p396
I1
sVdcbx8sd
p397
I1
sVdn3lzdt
p398
I1
sVdohd8t0
p399
I1
sVde5s6vr
p400
I1
sVd911f1c
p401
I1
sVdo5xq3z
p402
I1
sVd2kf05u
p403
I1
sVd7ms0i5
p404
I1
sVdas9kwr
p405
I1
sVd25958i
p406
I2
sVdikdpfv
p407
I1
sVd59vokg
p408
I1
sVder87en
p409
I1
sVd1chqum
p410
I1
sVdkpz01l
p411
I1
sVd51wuv6
p412
I1
sVd06dpn5
p413
I1
sVd75x4gm
p414
I1
sVddgs324
p415
I1
sVd0zki7e
p416
I1
sVd640kwq
p417
I1
sVdc432n8
p418
I1
sVczyz1zt
p419
I1
sVd05uhzm
p420
I1
sVdh9v4r6
p421
I2
sVcz0wiua
p422
I2
sVd62b9mb
p423
I1
sVde9gaqv
p424
I1
sVd87igzd
p425
I1
sVczyak4t
p426
I1
sVdf6ss23
p427
I1
sVd5j46u8
p428
I1
sVd6ujynz
p429
I3
sVddxmdu5
p430
I1
sVdey85ju
p431
I1
sVczfd254
p432
I2
sVd64s940
p433
I1
sVdfkjxak
p434
I1
sVd2bvjk5
p435
I1
sVd161m6j
p436
I1
sVcza3qe6
p437
I1
sVddbkzmx
p438
I1
sVcyogevo
p439
I1
sVdn58pyw
p440
I1
sVd0do6ww
p441
I1
sVd87799k
p442
I1
sVdevnq3v
p443
I1
sVd1o2voe
p444
I2
sVdeuh9cy
p445
I1
sVdrjrjf7
p446
I1
sVd01n5s8
p447
I1
sVd04vs6e
p448
I1
sVd0np868
p449
I1
sVd6fiil1
p450
I1
sVczopesh
p451
I1
sVdifxpn3
p452
I1
sVdjaeera
p453
I2
sVdi11la2
p454
I1
sVd2ziep5
p455
I1
sVczxswnx
p456
I1
sVd5gjbz1
p457
I1
sVdeldenf
p458
I1
sVcyu0c9o
p459
I1
sVd9bgr4t
p460
I1
sVdmmv140
p461
I1
sVdcy8m6q
p462
I1
sVd8ble6d
p463
I1
sVdoja5mw
p464
I1
sVdhzmb3p
p465
I1
sVdim1323
p466
I1
sVd6v2nsd
p467
I1
sVd804k6i
p468
I1
sVdgignrz
p469
I1
sVdky501o
p470
I1
sVde0iaz5
p471
I1
sVd27co7f
p472
I1
sVdhl6ov1
p473
I1
sVd94igxb
p474
I1
sVd3rs24h
p475
I1
sVdgcodlg
p476
I1
sVd4i8rqx
p477
I1
sVdeybnev
p478
I1
sVd96n1dt
p479
I1
sVcyhvg8p
p480
I1
sVd9jn3ue
p481
I1
sVddt1jq3
p482
I1
sVd7mix1s
p483
I1
sVdi3xxsq
p484
I1
sVdfwtipu
p485
I1
sVdepoj3y
p486
I1
sVdb5to3z
p487
I1
sVd7zcdza
p488
I1
sVd7t11yr
p489
I1
sVczsplvg
p490
I1
sVd0zr6ke
p491
I1
sVddfkggc
p492
I1
sVd7ykpvy
p493
I1
sVd2ymg7d
p494
I1
sVdgaxv8c
p495
I1
sVde1kz09
p496
I1
sVdc63dce
p497
I1
sVd8kb5ir
p498
I1
sVd2xm276
p499
I1
sVd0eqc5t
p500
I1
sVd8x3wi8
p501
I1
sVd1t67at
p502
I1
sVdi3upmi
p503
I1
sVdej9ua2
p504
I1
sVd9p6i4l
p505
I1
sVcym3z96
p506
I1
sVdgkr5el
p507
I1
sVd0skn7q
p508
I1
sVdawmzod
p509
I1
sVdio2m20
p510
I1
sVd2s6bv3
p511
I1
sVdbm3m2i
p512
I2
sVddryiwi
p513
I1
sVdg9fity
p514
I1
sVd8ba0qb
p515
I1
sVd34lfmb
p516
I1
sVd3fks5x
p517
I1
sVd2w4xig
p518
I1
sVd9lplat
p519
I1
s.