(dp0
Vd2ls0qt
p1
I1
s.(dp0
Vd3e95p1
p1
I1
sVd2ls0qt
p2
I1
s.(dp0
Vd2ls0qt
p1
I1
sVd6wt6zc
p2
I1
s.(dp0
Vd2ls0qt
p1
I1
sVdap7cya
p2
I1
s.(dp0
Vdc8ogpa
p1
I1
sVd2ls0qt
p2
I1
s.(dp0
Vdctzzys
p1
I1
sVd2ls0qt
p2
I1
s.(dp0
Vd2ls0qt
p1
I1
sVdh22qw8
p2
I1
s.(dp0
Vd2ls0qt
p1
I1
sVdp4z1n8
p2
I1
s.