(dp0
Vd6eu0rf
p1
I1
sVd7j1t49
p2
I1
sVddpddhh
p3
I1
sVdp927l1
p4
I1
sVd4o1h9t
p5
I1
sVdic1ecr
p6
I8
sVd69q9x7
p7
I1
sVd2qp7ne
p8
I2
sVd7mdlub
p9
I1
sVdfj1zmb
p10
I1
sVd4z6c88
p11
I2
sVdk7v6s5
p12
I1
sVdmnwnzt
p13
I1
sVdok4amv
p14
I1
sVd1dkz8y
p15
I1
sVdt0b3x0
p16
I1
sVdeukc9l
p17
I2
sVd80l7kr
p18
I1
sVczr0nis
p19
I1
sVcyxnfvf
p20
I1
sVd5qobo1
p21
I2
sVd0kriqg
p22
I1
sVdbn20l0
p23
I1
sVd53ad5d
p24
I1
sVd79hxlg
p25
I1
sVdb6jkno
p26
I1
sVd926k2i
p27
I1
sVdfidbmh
p28
I1
sVd6vlk8g
p29
I2
sVdis0n2n
p30
I1
sVde0uhxs
p31
I1
sVd04qtq1
p32
I2
sVd4gglfl
p33
I1
sVdr9pfzl
p34
I1
sVdakyyg1
p35
I1
sVdknazjk
p36
I1
sVd03143c
p37
I2
sVdkbket2
p38
I3
sVczoknra
p39
I1
sVd2zdyyp
p40
I1
sVdn3iant
p41
I1
sVd2nkder
p42
I2
sVdb01in9
p43
I2
sVdsp00hu
p44
I2
sVdf5q6cx
p45
I1
sVcz9rygt
p46
I1
sVd9ilvet
p47
I1
sVdhxazjv
p48
I2
sVdr7uofy
p49
I1
sVdpc4umg
p50
I1
sVd8426m8
p51
I1
sVdegws9c
p52
I1
sVdberzwc
p53
I1
sVd5hj401
p54
I3
sVdf3b7x1
p55
I1
sVd8onrgf
p56
I1
sVdexrdrk
p57
I1
sVdis1c76
p58
I1
sVd3gfxav
p59
I1
sVdcfegsf
p60
I1
sVd3xhgeg
p61
I1
sVdkz4zqz
p62
I1
sVdexqpxw
p63
I2
sVdfkagjr
p64
I1
sVdd6g4zi
p65
I1
sVd3odgkg
p66
I1
sVdmt0eg7
p67
I1
sVd26dj6r
p68
I1
sVd0a7bu8
p69
I1
sVddrvkn0
p70
I2
sVdq78c9u
p71
I1
sVd5gbn04
p72
I1
sVdqx1vj4
p73
I1
sVdcb61h6
p74
I1
sVderbk6k
p75
I1
sVdb5m2ab
p76
I1
sVd0c4uyw
p77
I1
sVdes76zu
p78
I1
sVdjqqmsg
p79
I4
sVdf795mm
p80
I1
sVdqykvzq
p81
I2
sVddu40k7
p82
I1
sVd7o0tnt
p83
I1
sVdqbykif
p84
I1
sVd2obqrn
p85
I1
sVd2zjhlg
p86
I1
sVdq9w4gz
p87
I1
sVdt6a3su
p88
I1
sVdfm8ekb
p89
I1
sVdcuuold
p90
I1
sVdf6xo0d
p91
I1
sVdcb4uw6
p92
I2
sVddvviln
p93
I1
sVdpglmqi
p94
I1
sVdpt0myd
p95
I1
sVdbqv4vs
p96
I1
sVd5lv3o5
p97
I1
sVdiyce3v
p98
I1
sVczlt17n
p99
I2
sVdbrr0ez
p100
I1
sVdmjcmsx
p101
I1
sVd113ck0
p102
I1
sVczcpn2z
p103
I1
sVdmi9eo7
p104
I1
sVdmqk46n
p105
I1
sVdawdvit
p106
I2
sVdaxuzae
p107
I1
sVd01sadi
p108
I3
sVd610ddb
p109
I1
sVdrncw3e
p110
I1
sVdaw8nfm
p111
I1
sVczpext8
p112
I1
sVdk4jm1y
p113
I1
sVdn5fp9s
p114
I1
sVdrrfzwm
p115
I1
sVdc2uysf
p116
I1
sVd09i48s
p117
I1
sVdodbvbb
p118
I1
sVddarom8
p119
I2
sVdrqld4n
p120
I3
sVdnd12f1
p121
I2
sVd240dgo
p122
I1
sVdfaa5un
p123
I1
sVdazv6n2
p124
I1
sVdazkq9b
p125
I2
sVdn4vpl1
p126
I2
sVdbgfzgw
p127
I1
sVd5oss0g
p128
I1
sVd9zx8rq
p129
I1
sVdcnzeva
p130
I3
sVdbh16b7
p131
I1
sVd97jhxb
p132
I1
sVd7o4umq
p133
I1
sVd44jwr2
p134
I1
sVdopjug8
p135
I1
sVdfjugzy
p136
I1
sVdeh59nz
p137
I1
sVd3oqr8i
p138
I2
sVdqyk2iq
p139
I1
sVdpvyhqw
p140
I3
sVdj85ux5
p141
I1
sVd1o5xq3
p142
I1
sVd6xgmtu
p143
I2
sVd9dhosr
p144
I2
sVczp4cjm
p145
I1
sVdsmt478
p146
I1
sVd5poaca
p147
I1
sVdhxy6oz
p148
I1
sVd0j6g4b
p149
I1
sVd2je0t5
p150
I5
sVd94si81
p151
I1
sVdi66fp5
p152
I3
sVczwgu4a
p153
I1
sVdfkp722
p154
I1
sVdo1gej3
p155
I1
sVcznvet6
p156
I1
sVd5nrwye
p157
I1
sVds98cvm
p158
I1
sVdakykc0
p159
I1
sVdmrolyo
p160
I1
sVd11wdnt
p161
I1
sVd1p911o
p162
I1
sVdrwpf1h
p163
I1
sVd8x7r7p
p164
I3
sVdb0dfwi
p165
I1
sVczzcsit
p166
I1
sVdryklkc
p167
I1
sVcz18yo4
p168
I1
sVdo2r02m
p169
I2
sVdmpvthh
p170
I1
sVdbh47fo
p171
I1
sVdjra5ht
p172
I1
sVdfvam6z
p173
I1
sVdbsgwup
p174
I1
sVd3qk61z
p175
I9
sVdq7v5f1
p176
I2
sVd1p9i5u
p177
I3
sVd86t5u0
p178
I4
sVdh5mna7
p179
I1
sVcykfqmw
p180
I1
sVdak48n1
p181
I1
sVdsbnyct
p182
I5
sVdp71myj
p183
I2
sVd4db830
p184
I1
sVdjgm0td
p185
I1
sVd689wqe
p186
I1
sVdecsird
p187
I1
sVdpl71wq
p188
I2
sVdg0kcny
p189
I1
sVdibyjon
p190
I1
sVdh67rbj
p191
I2
sVdnw8ce9
p192
I1
sVdhxnphr
p193
I1
sVdcpcdom
p194
I1
sVdag4cqa
p195
I1
sVdn73p2y
p196
I1
sVdopkcth
p197
I7
sVdkit55m
p198
I2
sVdnizmaw
p199
I1
sVdc5frsp
p200
I1
sVd3s5hne
p201
I1
sVdd5t2uw
p202
I1
sVdr2oubc
p203
I1
sVd21jywf
p204
I1
sVczpxcyg
p205
I1
sVdc49ior
p206
I1
sVd35wiq5
p207
I1
sVd6vq6va
p208
I1
sVd4ib74x
p209
I1
sVdie5vxg
p210
I1
sVdhr8vxr
p211
I1
sVdfsceqj
p212
I1
sVddpynpv
p213
I1
sVd0ms738
p214
I1
sVd3mtiwv
p215
I1
sVd01rawg
p216
I1
sVczh6cqy
p217
I1
sVdc9kzxk
p218
I1
sVdpu0l51
p219
I1
sVddrf756
p220
I1
sVdaks1fn
p221
I1
sVdtf1tn9
p222
I1
sVdp3r9vi
p223
I1
sVdd7mqhk
p224
I1
sVdaw0qfg
p225
I1
sVdbtwnpd
p226
I2
sVdcmr4tt
p227
I1
sVcyx40dh
p228
I1
sVdaz1lru
p229
I1
sVdirwq0y
p230
I1
sVdkotqsy
p231
I1
sVdi9kqup
p232
I1
sVczzr045
p233
I1
sVd1rf6ct
p234
I1
sVdjrvub3
p235
I2
sVd0318a7
p236
I1
sVcz9f7br
p237
I1
sVd8mdfjy
p238
I1
sVd7qnkqi
p239
I1
sVdg5m4gk
p240
I1
sVdf1wb1p
p241
I1
sVdd7h0t3
p242
I2
sVczn361r
p243
I1
sVdovdvdd
p244
I1
sVdbpcgq1
p245
I2
sVczhynav
p246
I1
sVd1qkf7r
p247
I1
sVd94eu2j
p248
I1
sVcz582wo
p249
I1
sVd3016c4
p250
I1
sVczsdcnl
p251
I1
sVdckrhhe
p252
I1
sVdgiv4en
p253
I1
sVd0ax0t4
p254
I1
sVczgb17y
p255
I1
sVdg73ue5
p256
I2
sVddf3vnq
p257
I1
sVdfda3bz
p258
I2
sVdegiqyq
p259
I1
sVdjoxlwy
p260
I1
sVdk7d0zl
p261
I1
sVdbtwrmx
p262
I1
sVcz6clf7
p263
I1
sVdgzo7mh
p264
I1
sVd32ji8q
p265
I1
sVdienbyy
p266
I1
sVd12n2x0
p267
I1
sVd55fq7v
p268
I1
sVdhp66u7
p269
I2
sVd15kb7o
p270
I1
sVdpqjxq9
p271
I2
sVdc1i3fp
p272
I1
sVdmo4b2a
p273
I2
sVdic8ia2
p274
I1
sVdo7cogt
p275
I1
sVdt6ksbr
p276
I1
sVdn70nig
p277
I1
sVde88uqt
p278
I2
sVd01w0ie
p279
I1
sVcyv68zr
p280
I4
sVd2sat7d
p281
I1
sVd5frsqr
p282
I1
sVd6dbt85
p283
I1
sVd194q9p
p284
I2
sVdj6tist
p285
I1
sVdrnjd0m
p286
I2
sVd6jr853
p287
I1
sVd8i9sh7
p288
I1
sVdt2wt1g
p289
I2
sVczp8skq
p290
I2
sVd5mzw75
p291
I1
sVdaw8lpi
p292
I1
sVd5ho5od
p293
I1
sVd96oo6e
p294
I1
sVd1l7uc5
p295
I2
sVdhfbx0i
p296
I1
sVdf03y7r
p297
I1
sVdd18a93
p298
I1
sVd63hfht
p299
I1
sVd5fskzg
p300
I1
sVdazrhok
p301
I1
sVdfz1amk
p302
I1
sVd9k8d3h
p303
I1
sVddulphf
p304
I1
sVdcls1vi
p305
I1
sVdklfeg3
p306
I1
sVdaljyy3
p307
I2
sVd8hys29
p308
I1
sVd2hfhlz
p309
I1
sVd6cab9o
p310
I1
sVdfza3x3
p311
I1
sVdd6oiqn
p312
I1
sVd1i9x6k
p313
I1
sVddrxk9u
p314
I1
sVdscms97
p315
I2
sVdcc9ra0
p316
I1
sVd4kocme
p317
I1
sVd6vx98u
p318
I2
sVdmfh71x
p319
I1
sVd0b5lbl
p320
I2
sVd7b81uo
p321
I1
sVdt72dpb
p322
I1
sVd66fd13
p323
I1
sVdeav75x
p324
I1
sVdcck8l8
p325
I2
sVcyvuw3s
p326
I2
sVd2qpv4x
p327
I1
sVd54yz99
p328
I1
sVdhsy87o
p329
I1
sVd69e936
p330
I2
sVdhnbjk2
p331
I1
sVd67ysxa
p332
I2
sVdndghgs
p333
I2
sVdt2swut
p334
I1
sVd876vbx
p335
I1
sVdhey648
p336
I1
sVdf84c21
p337
I1
sVdaavo7k
p338
I3
sVd5tx6zl
p339
I1
sVdd7f9fw
p340
I1
sVcz7ih5d
p341
I1
sVdjjf7zb
p342
I1
sVdawaqi8
p343
I1
sVdgljg4c
p344
I1
sVdhi41w8
p345
I3
sVda92ksd
p346
I1
sVdff0d2d
p347
I1
sVd2ofwi3
p348
I1
sVdhp07eu
p349
I1
sVdei56tm
p350
I1
sVdforxv2
p351
I1
sVd7am4it
p352
I1
sVdfo28wz
p353
I1
sVdfo115r
p354
I1
sVdfntfxr
p355
I1
sVdove98d
p356
I1
sVdiismeq
p357
I1
sVddtcz5j
p358
I1
sVdcycv5s
p359
I1
sVdjyj423
p360
I1
sVde3tltv
p361
I1
sVcz1nyel
p362
I1
sVd66z28p
p363
I1
sVd21r8sp
p364
I1
sVdmss67p
p365
I1
sVdpgm5pk
p366
I1
sVdgv3klr
p367
I1
sVd2bdc2k
p368
I1
sVdfpov0m
p369
I3
sVd0flvwd
p370
I1
sVd5eqgmh
p371
I1
sVd92mm7g
p372
I1
sVd77tu7m
p373
I1
sVd0qnrmc
p374
I1
sVdc39uz4
p375
I1
sVd68xkgd
p376
I1
sVd9rbum0
p377
I2
sVddavcsu
p378
I1
sVd2dplj3
p379
I2
sVdn95ssq
p380
I1
sVdil1y56
p381
I1
sVdogb3ld
p382
I2
sVdmpbae4
p383
I2
sVczgb4k5
p384
I1
sVdc5m0g8
p385
I1
sVddk9vl4
p386
I1
sVdj256fm
p387
I4
sVdhazoj0
p388
I1
sVddvj4v0
p389
I1
sVdn47gx1
p390
I1
sVd2syb2v
p391
I1
sVdk16mik
p392
I1
sVddwhdhs
p393
I1
sVd6c1sr3
p394
I1
sVdbtxsnt
p395
I2
sVde6c8iz
p396
I3
sVdnj5a2m
p397
I1
sVd0pchrx
p398
I1
sVdi86jwd
p399
I2
sVd0n84v7
p400
I1
sVdb357wz
p401
I2
sVdo239v1
p402
I1
sVdbfuhll
p403
I1
sVdf9uph1
p404
I1
sVdgm9n4z
p405
I1
sVd25958i
p406
I6
sVdjaanjs
p407
I1
sVczdshx0
p408
I1
sVdj07d17
p409
I1
sVd1c3lyd
p410
I1
sVd2nkjvx
p411
I2
sVdc92evy
p412
I1
sVdn39rti
p413
I1
sVcyw4tvj
p414
I1
sVd3pce79
p415
I2
sVd2o63mc
p416
I1
sVdfzipqn
p417
I1
sVd67p4jp
p418
I1
sVden3s59
p419
I3
sVdnfkg21
p420
I1
sVdccqow7
p421
I1
sVdfyz4j8
p422
I1
sVd7cmaca
p423
I3
sVd99yyvw
p424
I1
sVdmzukbx
p425
I1
sVd0ukste
p426
I1
sVdi174oz
p427
I1
sVdggbmf5
p428
I1
sVcz4wkkj
p429
I1
sVdqyx9o8
p430
I1
sVdo9ix6o
p431
I1
sVdfz9eu0
p432
I1
sVdg7vmtz
p433
I1
sVdev7kb3
p434
I3
sVdd8kgte
p435
I1
sVdpenbt4
p436
I1
sVcyjuzn2
p437
I1
sVdkddc5h
p438
I1
sVd4dabk8
p439
I1
sVd5nn09y
p440
I1
sVd99l6th
p441
I1
sVdeysjfo
p442
I1
sVcyorwwe
p443
I1
sVd8vmzn8
p444
I1
sVd2hdetk
p445
I1
sVdokjkwg
p446
I1
sVdn58pyw
p447
I1
sVd23fdt2
p448
I1
sVdbqd0fr
p449
I1
sVdcfehpe
p450
I1
sVdqwz9d3
p451
I1
sVcz04d8v
p452
I2
sVd2znlo2
p453
I1
sVdfo05s8
p454
I1
sVdn1l5sg
p455
I2
sVd5hhreu
p456
I1
sVdccpvew
p457
I2
sVd5zqeca
p458
I2
sVd4k0969
p459
I1
sVdt6kbio
p460
I1
sVcyz1xtn
p461
I1
sVdg0iri9
p462
I1
sVd17g6u8
p463
I1
sVd01sgl6
p464
I1
sVdi5a1vo
p465
I1
sVdkbkdti
p466
I2
sVdalrcep
p467
I2
sVdem0ml2
p468
I1
sVdqg410t
p469
I1
sVdidx0ti
p470
I1
sVdhi1jmg
p471
I2
sVde88okj
p472
I2
sVdk55x1s
p473
I1
sVdccpczi
p474
I1
sVda4mdkt
p475
I1
sVdswvjgt
p476
I1
sVdsvt6gv
p477
I1
sVd27jghu
p478
I1
sVd4q345t
p479
I2
sVd86wokt
p480
I2
sVd77p71i
p481
I1
sVdbgn7zq
p482
I1
sVd0878s8
p483
I1
sVd3q65d3
p484
I1
sVdeltd8j
p485
I1
sVdqfrzln
p486
I1
sVd899rfd
p487
I1
sVdh30tye
p488
I1
sVd35we4e
p489
I1
sVd6h74uc
p490
I1
sVdfnjvc7
p491
I1
sVdb011sz
p492
I1
sVde8dnhb
p493
I1
sVdkcezyf
p494
I1
sVd6qkxrm
p495
I1
sVd2tqqyi
p496
I1
sVddw93hb
p497
I1
sVdhi1t42
p498
I1
sVd9vhild
p499
I1
sVdcffrfe
p500
I1
sVdfcxu6c
p501
I1
sVd3oduo5
p502
I1
sVdgtnwjn
p503
I1
sVddwadg5
p504
I1
sVdb5svc6
p505
I1
sVdezl2x6
p506
I1
sVd8rmr0p
p507
I1
sVdampndc
p508
I1
sVd82sl0u
p509
I1
sVd34culh
p510
I1
sVd3op2vn
p511
I1
sVcyrtqyo
p512
I1
sVd2jdtk0
p513
I2
sVd7rfw1i
p514
I1
sVddhb1gg
p515
I1
sVdhi3i2q
p516
I2
sVdjp9g7e
p517
I1
sVcyjb7m1
p518
I1
sVdfq3kdn
p519
I1
sVdr9rnwm
p520
I1
sVds5zmrw
p521
I2
sVdj19y6x
p522
I1
sVdkji5dn
p523
I1
sVd7uycz7
p524
I1
sVdb4361x
p525
I1
s.