(dp0
Vd01v777
p1
I1
s.(dp0
Vd01v777
p1
I1
sVd03coe2
p2
I1
s.(dp0
Vd01v777
p1
I1
sVd12soem
p2
I1
s.(dp0
Vd01v777
p1
I1
sVd7v1rvy
p2
I1
s.(dp0
Vd01v777
p1
I1
sVdb569v2
p2
I1
s.(dp0
Vd01v777
p1
I1
sVddgl8vx
p2
I1
s.(dp0
Vd01v777
p1
I1
sVdmhaiqw
p2
I1
s.(dp0
Vd01v777
p1
I1
sVdn45poa
p2
I1
s.(dp0
Vdp7nivy
p1
I1
sVd01v777
p2
I1
s.