(dp0
Vdislcb8
p1
I3
sVddg5h51
p2
I1
sVddndmrv
p3
I1
sVdjk581c
p4
I1
sVd7fovdv
p5
I2
sVdo9oiz3
p6
I1
sVdmu8h1g
p7
I1
sVd1iswjg
p8
I1
sVd1yjq20
p9
I1
sVdgze7m6
p10
I1
sVdnj7ms2
p11
I1
sVd71xyu6
p12
I1
sVdnj93et
p13
I6
sVdgm0uq0
p14
I1
sVdnj9tuc
p15
I1
sVd0iablx
p16
I1
sVddlipn3
p17
I1
sVczyg8z6
p18
I1
sVdbmv5xj
p19
I2
sVcyo2de3
p20
I1
sVdc4qsdq
p21
I2
sVdgvm5no
p22
I1
sVd60q1ol
p23
I1
sVd8ay70m
p24
I1
sVdiz2ipm
p25
I2
sVdjk22gk
p26
I1
sVd7ey104
p27
I1
sVd0i2n66
p28
I1
sVdc2zx7x
p29
I1
sVdbrfawu
p30
I1
sVd5cyza6
p31
I1
sVdnj9uzo
p32
I3
sVd7exsh9
p33
I3
sVdkmlqhx
p34
I1
sVdkbvqfu
p35
I1
sVd1jv0r5
p36
I1
sVdg2js3u
p37
I1
sVd9a44fe
p38
I1
sVcyrlubw
p39
I1
sVcyhtwr3
p40
I2
sVd25a8e2
p41
I1
sVczymvwl
p42
I1
sVd1rp2nf
p43
I1
sVdomjbzt
p44
I1
sVdnxjq4q
p45
I1
sVdayb43f
p46
I1
sVd1unj20
p47
I1
sVde6hy5c
p48
I1
sVd60p9s6
p49
I1
sVdf9obt3
p50
I1
sVdq1w2uh
p51
I1
sVdhs4uzg
p52
I1
sVd1umoqb
p53
I1
sVd2vty3g
p54
I1
sVd51t20r
p55
I1
sVdbn0d7i
p56
I1
sVdj9es2w
p57
I1
sVczfrpw9
p58
I2
sVde90eje
p59
I1
sVd92yf8c
p60
I1
sVdgxqbqp
p61
I1
sVd82ztpx
p62
I2
sVdepoqrn
p63
I1
sVdnj87jf
p64
I2
sVdnhorf2
p65
I1
sVdacku0x
p66
I1
sVczgn6i5
p67
I1
sVd1k75gw
p68
I1
sVdc3w9np
p69
I1
sVda4l94y
p70
I1
sVd077k13
p71
I2
sVddm1tv0
p72
I1
sVd19hg9u
p73
I1
sVd1v2woq
p74
I1
sVdnj9yq7
p75
I1
sVdjbcnbb
p76
I1
sVd01uk4g
p77
I1
sVd69qcvp
p78
I1
sVdf8nico
p79
I1
sVdoi1naf
p80
I1
sVdkm4vu1
p81
I2
sVd0kokhh
p82
I1
sVczewq53
p83
I1
sVd6x1lq9
p84
I1
sVcyhugv1
p85
I2
sVd911r1h
p86
I1
sVdryjap1
p87
I1
sVdnj73iz
p88
I2
sVdnj6686
p89
I2
sVdglii4p
p90
I1
sVdbn1l4c
p91
I3
sVdnj8jvb
p92
I1
sVddgh56w
p93
I1
sVdixnny2
p94
I1
sVdpuvxq9
p95
I1
sVdhqldwd
p96
I1
sVdnja8t6
p97
I3
sVdmmblz1
p98
I1
sVd09j5d4
p99
I1
sVdflx32j
p100
I1
sVddu78fm
p101
I1
sVdtbv5tm
p102
I1
sVczyhue5
p103
I2
sVdmlvnsz
p104
I1
sVdbmzfn6
p105
I1
s.