(dp0
Vd7rklrb
p1
I1
sVdhyks14
p2
I3
sVd1bw24i
p3
I1
sVdi2ehc8
p4
I1
sVd7lbd8e
p5
I1
sVdgom8kl
p6
I1
sVd0y6z5p
p7
I1
sVczmc3wo
p8
I1
sVdd2dbqx
p9
I1
sVdkk9coo
p10
I1
sVdbwbi9s
p11
I1
sVd03b5c9
p12
I1
sVcyps2t0
p13
I2
sVdjhk1s0
p14
I1
sVdfbbv0s
p15
I1
sVdj2z1za
p16
I1
sVd4o5kmt
p17
I1
sVdc2bazt
p18
I1
sVd1agz5z
p19
I2
sVczvssi5
p20
I2
sVd3tk9al
p21
I1
sVdd2z9c5
p22
I1
sVd2d7sjd
p23
I1
sVczdy1zo
p24
I3
sVd0u5wzf
p25
I1
sVdihiuve
p26
I2
sVd2ug41k
p27
I1
sVdid28gf
p28
I1
sVd1j17e7
p29
I1
sVdkp94h6
p30
I2
sVdo38lyn
p31
I1
sVdd9eg21
p32
I1
sVdcyqesk
p33
I2
sVd6cgcd9
p34
I1
sVcz0mz2n
p35
I1
sVd3nymko
p36
I1
sVd6gakbo
p37
I1
sVd4h4d0w
p38
I2
sVcyibddw
p39
I2
sVdg7smgp
p40
I1
sVd5jpu2g
p41
I2
sVdc4b75r
p42
I1
sVdbsxt2p
p43
I1
sVds20w40
p44
I1
sVd8p2ge4
p45
I1
sVd3arxau
p46
I2
sVcypqtqx
p47
I1
sVdeno89p
p48
I1
sVczokfxt
p49
I1
sVdif0qbq
p50
I1
sVdsyg74n
p51
I3
sVdkzn4q1
p52
I1
sVd9hc4ts
p53
I1
sVdcw8vi1
p54
I1
sVd1s75a1
p55
I1
sVdibx88x
p56
I1
sVd4pi6b6
p57
I1
sVdg7ere3
p58
I1
sVcztbcig
p59
I1
sVcyxmkow
p60
I1
sVdd3srr6
p61
I1
sVd99jrcw
p62
I1
sVd123x6i
p63
I1
sVdhn36oa
p64
I2
sVdix79n5
p65
I1
sVd7gbi2a
p66
I1
sVd1ox31n
p67
I1
sVde4wm0o
p68
I1
sVd8d424h
p69
I1
sVdfwoyxi
p70
I3
sVdatzzq0
p71
I2
sVd5kskch
p72
I1
sVd005pel
p73
I1
sVd025zw7
p74
I1
sVdqbtwfm
p75
I1
sVd1lp9jc
p76
I1
sVd8v90z2
p77
I1
sVd7nukli
p78
I1
sVd0ii6ks
p79
I1
sVdk0lnps
p80
I3
sVdrc5lbz
p81
I1
sVdetw2mo
p82
I1
sVdqhu1po
p83
I1
sVd3j8zf7
p84
I1
sVd1vtv0f
p85
I1
sVddm544v
p86
I1
sVd8pa2om
p87
I3
sVdo3fu5j
p88
I1
sVdadk6k0
p89
I1
sVd8gfict
p90
I2
sVdfconvg
p91
I1
sVd4ax72r
p92
I1
sVczogn3f
p93
I2
sVczc6cw7
p94
I1
sVdggnkmc
p95
I1
sVdjnzz39
p96
I2
sVdeioh8l
p97
I4
sVd8npxwb
p98
I1
sVd1i50md
p99
I1
sVd0wg0y2
p100
I1
sVddwlzva
p101
I1
sVdd61yop
p102
I2
sVdq37z8y
p103
I1
sVd04jki3
p104
I1
sVdn27wow
p105
I1
sVd3rgrwf
p106
I2
sVd0ny7n6
p107
I1
sVd9gsb7p
p108
I1
sVdb0n631
p109
I1
sVd04fikc
p110
I1
sVd048r4f
p111
I1
sVddroxhh
p112
I1
sVd5jmb0v
p113
I1
sVd7clo1f
p114
I1
sVd8p2jct
p115
I4
sVd6zb7bj
p116
I1
sVdavc2tw
p117
I1
sVd4gdq5z
p118
I1
sVdcbtf30
p119
I1
sVd8umuu9
p120
I1
sVdbcnzoo
p121
I1
sVd1r3kew
p122
I1
sVd7n06iu
p123
I1
s.