(dp0
Vdcc1fu6
p1
I2
sVdovv3pr
p2
I2
sVd2chxhp
p3
I1
sVczak53y
p4
I2
sVczigyg2
p5
I1
sVdk3bvvy
p6
I3
sVdtbxvcy
p7
I1
sVdc7q88v
p8
I1
sVczbg0gb
p9
I2
sVd6iq8tf
p10
I1
sVdjef2jv
p11
I1
sVdmltjqp
p12
I1
sVd0ryql7
p13
I1
sVd3zg1a3
p14
I1
sVdgjsfro
p15
I1
sVdq7934b
p16
I1
sVdqs7rir
p17
I1
sVdny3m86
p18
I2
sVdjskw9l
p19
I2
sVdizuy8x
p20
I1
sVd92284d
p21
I1
sVd4d9d6h
p22
I1
sVdjysvqx
p23
I1
sVd2m7aow
p24
I1
sVdkxnfja
p25
I1
sVd4bnx0k
p26
I1
sVdb3ooyw
p27
I3
sVd6df52s
p28
I2
sVdbn7nvc
p29
I1
sVd092yov
p30
I1
sVd7g36ci
p31
I1
sVdexvy5g
p32
I1
sVd2j1h6o
p33
I1
sVdrb53zt
p34
I1
sVdi8wma8
p35
I1
sVdon4j2d
p36
I1
sVdar85cw
p37
I1
sVdfm67rn
p38
I2
sVdqbsq3h
p39
I1
sVd5vw2j7
p40
I1
sVd0dqfob
p41
I1
sVddi5lg6
p42
I2
sVdfryc2g
p43
I1
sVdopktv5
p44
I1
sVd5qyibz
p45
I3
sVdie0o0c
p46
I1
sVdauxjix
p47
I2
sVd5z56i3
p48
I2
sVd178454
p49
I2
sVd3tqxvo
p50
I1
sVdmxl13b
p51
I1
sVddspi0z
p52
I2
sVdsmwzsw
p53
I2
sVdk29vi7
p54
I2
sVd32tlxx
p55
I2
sVd16pdxu
p56
I1
sVdft5mu5
p57
I1
sVdh2moop
p58
I1
sVd6jk9xv
p59
I1
sVd2elk7r
p60
I1
sVdhbqz8l
p61
I1
sVd05o25r
p62
I1
sVdgx1icw
p63
I1
sVd3l5jq8
p64
I2
sVdc0tup2
p65
I2
sVd05u2wi
p66
I1
sVczvhd4x
p67
I2
sVdirmmu0
p68
I3
sVd5aq6bs
p69
I1
sVd3fbwqx
p70
I1
sVd8ifgwo
p71
I2
sVd1t5q89
p72
I1
sVd1upbia
p73
I2
sVdcw58gt
p74
I1
sVd3odgkg
p75
I1
sVd03m6wk
p76
I1
sVdd1kib1
p77
I3
sVdofvemz
p78
I1
sVczolev9
p79
I2
sVdi2xxnf
p80
I1
sVddzarah
p81
I3
sVdottcpz
p82
I2
sVd71bmx3
p83
I1
sVdat3ado
p84
I1
sVdjh5q8j
p85
I10
sVds67plx
p86
I1
sVdky168g
p87
I1
sVdb3ku67
p88
I1
sVdfrn6lw
p89
I7
sVdi6lfuj
p90
I2
sVdd350q6
p91
I1
sVd0y5t9u
p92
I1
sVd0g3yku
p93
I1
sVd1ui1x7
p94
I3
sVdd0quyk
p95
I2
sVdcs3svt
p96
I1
sVdsafh4w
p97
I1
sVdrmbtjg
p98
I1
sVdcn5g8x
p99
I2
sVd6gfn0k
p100
I3
sVd1celdj
p101
I1
sVd9vbzmb
p102
I2
sVdjtkoyy
p103
I1
sVd2qgop1
p104
I1
sVdemg4g2
p105
I1
sVdes05nr
p106
I1
sVd11gi89
p107
I1
sVdk5ydg7
p108
I1
sVdggin0w
p109
I4
sVdhia4y4
p110
I1
sVd911a3u
p111
I1
sVde40lkt
p112
I1
sVddrodey
p113
I1
sVdjscxrm
p114
I1
sVdi30jho
p115
I3
sVdmm264j
p116
I1
sVcz7rp7q
p117
I1
sVd064z2t
p118
I1
sVddj9zs7
p119
I1
sVdrgv0r5
p120
I1
sVcz5xmrx
p121
I1
sVdo1fdit
p122
I1
sVd1d73s1
p123
I1
sVd1w88pr
p124
I1
sVd9wu259
p125
I1
sVdffcewp
p126
I4
sVdhyekr8
p127
I1
sVdr2k11v
p128
I2
sVdrwrnu9
p129
I1
sVdeww64a
p130
I1
sVd2qj21q
p131
I1
sVdmjpwc5
p132
I3
sVdpkuy0j
p133
I1
sVd1ur6zt
p134
I1
sVd1tk4bz
p135
I1
sVcz4t7v1
p136
I1
sVdnjopau
p137
I1
sVdoexewc
p138
I1
sVddt1krd
p139
I5
sVdpy5k19
p140
I1
sVdpbgstt
p141
I1
sVde3z1wx
p142
I2
sVdfufxcv
p143
I1
sVdevkx7q
p144
I1
sVd09oibq
p145
I1
sVddswa5u
p146
I1
sVde3vmwi
p147
I1
sVdntncuv
p148
I1
sVdioiejg
p149
I1
sVd05mgrk
p150
I1
sVddwnf9u
p151
I1
sVd623y9f
p152
I1
sVdc1fx03
p153
I1
sVdhnzetn
p154
I1
sVd053wd5
p155
I1
sVdcrks1c
p156
I1
sVdacb1qd
p157
I1
sVdks9daj
p158
I1
sVd439qyi
p159
I2
sVdemggoi
p160
I1
sVdjh4459
p161
I5
sVdh3wr0j
p162
I1
sVd78zj2n
p163
I1
sVcz1m6sl
p164
I1
sVd4104lz
p165
I2
sVdkjtg5r
p166
I1
sVdijefp8
p167
I1
sVdh8ijqt
p168
I1
sVdaw3un2
p169
I1
sVd2i4h2z
p170
I1
sVd2zza60
p171
I3
sVd1hslm4
p172
I1
sVd69jjke
p173
I1
sVdjsazfk
p174
I1
sVd3vf7lb
p175
I1
sVd7gh8yr
p176
I1
sVdt47qwy
p177
I1
sVdcc5cxg
p178
I1
sVddl3u57
p179
I3
sVczg4sbu
p180
I1
sVd6uug51
p181
I1
sVdirquul
p182
I1
sVdoijd0q
p183
I1
sVdq81plo
p184
I1
sVd0rl3l1
p185
I1
sVd2usx4j
p186
I1
sVdcw3on5
p187
I1
sVd2xlcfv
p188
I1
sVd5nmw2a
p189
I1
sVdoyt3gn
p190
I1
sVdn7hurv
p191
I3
sVdt1iv4g
p192
I1
sVczu7log
p193
I1
sVde6r33q
p194
I2
sVcz9uqi8
p195
I1
sVdc2ppk5
p196
I1
sVdevnugy
p197
I1
sVde98xva
p198
I3
sVd8ww05s
p199
I1
sVcz35poc
p200
I2
sVdox4igz
p201
I2
sVdhw56hs
p202
I1
sVd8honnn
p203
I1
sVd29iyqe
p204
I2
sVdq8he2n
p205
I2
sVd4u29y8
p206
I1
sVczkwsbd
p207
I1
sVdczw3cw
p208
I2
sVdfysr92
p209
I1
sVdbow9js
p210
I1
sVdc3i60s
p211
I1
sVd0oeaqq
p212
I1
sVd5ykr7h
p213
I2
sVdjd65tq
p214
I1
sVd0euyu0
p215
I5
sVdb065w6
p216
I2
sVdd82ps0
p217
I1
sVdg031md
p218
I1
sVdkiph9a
p219
I1
sVdezcqw1
p220
I1
sVdakf9s6
p221
I1
sVd6fsz08
p222
I1
sVd5r4gu6
p223
I1
sVdh6o0wn
p224
I1
sVdi0gbu2
p225
I1
sVdstdsfo
p226
I1
sVd858601
p227
I1
sVdi3bg4d
p228
I1
sVdgulitd
p229
I3
sVdrwzfyo
p230
I1
sVdoeim8b
p231
I1
sVd378ixg
p232
I1
sVdowwei7
p233
I1
sVczgbsdf
p234
I1
sVdgsl47s
p235
I1
sVdjye2ew
p236
I1
sVd064zty
p237
I1
sVdsmf5dk
p238
I2
sVd1325hz
p239
I1
sVcz2c6r6
p240
I2
sVd87oj85
p241
I1
sVdt931gg
p242
I1
sVddyqopi
p243
I1
sVdmz274g
p244
I1
sVdh5uo7g
p245
I2
sVdi0mhyx
p246
I1
sVd3flz4j
p247
I1
sVdopaw3e
p248
I1
sVdj26luo
p249
I1
sVd0srfs9
p250
I1
sVd6nggm4
p251
I1
sVdb64zr7
p252
I1
sVd1c3c2f
p253
I1
sVd2jqn22
p254
I1
sVdhgchy1
p255
I1
sVdgxq74h
p256
I1
sVd4f2yx3
p257
I1
sVczjoz37
p258
I2
sVdh42nle
p259
I1
sVdp12q5x
p260
I1
sVd9ey9a3
p261
I1
sVdh1jth6
p262
I1
sVd21rnmh
p263
I2
sVdfpig2t
p264
I1
sVczsygs4
p265
I2
sVdnpbysq
p266
I3
sVdqhawcf
p267
I1
sVd383vw7
p268
I1
sVczjpjy1
p269
I1
sVdh2881m
p270
I1
sVd06e0pt
p271
I2
sVdsy2nfg
p272
I3
sVdeitmou
p273
I1
sVdt0lai5
p274
I1
sVddrmnxm
p275
I1
sVdqfnn3p
p276
I1
sVd3ezw27
p277
I1
sVdc3b6hv
p278
I1
sVd4aj78s
p279
I1
sVcynbuxc
p280
I1
sVdhpf2xp
p281
I1
sVd88vgws
p282
I1
sVd26jgto
p283
I1
sVd3532fh
p284
I1
sVdhjex1f
p285
I1
sVdd372p0
p286
I1
sVdokw4ac
p287
I1
sVd5x7nrf
p288
I1
sVd8693yz
p289
I3
sVd028r90
p290
I1
sVdab35tn
p291
I1
sVdat5s3j
p292
I1
sVde5b7a2
p293
I1
sVd2088nt
p294
I1
sVdsnrp2v
p295
I1
sVd03aftw
p296
I1
sVd27cmj9
p297
I1
sVd53ku0w
p298
I1
sVd5yoyva
p299
I2
sVd3wskhm
p300
I1
sVdhtkcjf
p301
I2
sVdhf7w3j
p302
I1
sVdpfz9rp
p303
I2
sVdhpqren
p304
I2
sVdcel4yy
p305
I1
sVd3takku
p306
I1
sVdo2j9d4
p307
I1
sVdjpo5kd
p308
I2
sVd1qazn6
p309
I3
sVdrza478
p310
I1
sVd1zqlam
p311
I1
sVd79u9if
p312
I1
sVde6smhb
p313
I1
sVd8au7bo
p314
I2
sVdqce9i9
p315
I1
sVd5gv9sb
p316
I2
sVd26dbh6
p317
I1
sVdmmblz1
p318
I1
sVdtdv8dk
p319
I1
sVds5xgon
p320
I1
sVdjasnm8
p321
I1
sVdscf59n
p322
I2
sVd2ki91u
p323
I1
sVd5bqxwa
p324
I1
sVdhfm957
p325
I1
sVd2jk10a
p326
I1
sVdn7un98
p327
I1
sVd630hji
p328
I1
sVd702vav
p329
I1
sVdb88gvq
p330
I1
sVdb5mdcp
p331
I1
sVd2bg3mv
p332
I1
sVd31rdlj
p333
I1
sVcz9g5ie
p334
I1
sVdmerpjs
p335
I2
sVcysg7x1
p336
I1
sVd2r4l3g
p337
I1
sVdi83f2z
p338
I4
sVdp4tzyj
p339
I3
sVdpwco8y
p340
I1
sVddyrlhl
p341
I1
sVdc5d949
p342
I1
sVdt3ck1j
p343
I1
sVd8hm54u
p344
I2
sVd0cuvqi
p345
I1
sVdmkao9p
p346
I2
sVd5nzfcv
p347
I1
sVdd5gby0
p348
I1
sVd3p9cnc
p349
I1
sVdeinlb5
p350
I1
sVdnhb5pa
p351
I1
sVdflzyqw
p352
I1
sVdhzk76u
p353
I1
sVdd3trvx
p354
I2
sVdosiz8u
p355
I1
sVdauuha1
p356
I3
sVdk14n6c
p357
I1
sVdr0jr2z
p358
I2
sVd696dzi
p359
I1
sVdfn5kb2
p360
I1
sVdj0479a
p361
I1
sVdh381uc
p362
I1
sVdt14j1u
p363
I1
sVdj8jvv0
p364
I1
sVd7z8b2l
p365
I1
sVdeaeuw7
p366
I1
sVdgrwegw
p367
I1
sVdbz6aau
p368
I1
sVd12noym
p369
I1
sVd707vae
p370
I1
sVdjsis64
p371
I1
sVdjgxw7d
p372
I1
sVd37m06d
p373
I2
sVd0p9j53
p374
I1
sVd0tyhje
p375
I1
sVdealf6k
p376
I1
sVdpkv5vk
p377
I1
sVcyu3k03
p378
I1
sVd667kbr
p379
I1
sVdjph4ih
p380
I1
sVd15t80p
p381
I1
sVdstu0za
p382
I1
sVd64fs4c
p383
I1
sVdhc1e9e
p384
I3
sVd6dm6mz
p385
I1
sVdcx04m2
p386
I1
sVcz57z1f
p387
I1
sVdaclmq2
p388
I1
sVd4tifrh
p389
I1
sVdqx1512
p390
I1
sVd443dp4
p391
I1
sVdbi9kjw
p392
I1
sVdhrxy8l
p393
I1
sVderdc2y
p394
I1
sVddal1th
p395
I1
sVdewu7f0
p396
I1
sVds4srv2
p397
I1
sVddmrf98
p398
I1
sVdktzq2a
p399
I1
sVdqz7790
p400
I2
sVd1v1jzu
p401
I1
sVd8aolmp
p402
I1
sVdnxmqdl
p403
I2
sVczkxbdy
p404
I2
sVd96s00t
p405
I1
sVdd9bmpg
p406
I2
sVdkrceak
p407
I1
sVdrias07
p408
I1
sVdgryphz
p409
I1
sVd3mirru
p410
I1
sVd6254k4
p411
I1
sVd6j8ykv
p412
I1
sVczze0z0
p413
I2
sVddiudp0
p414
I1
sVdemqivr
p415
I1
sVdq0dznw
p416
I1
sVd3y0ky8
p417
I3
sVdj3btr6
p418
I1
sVd1y7oe7
p419
I2
sVd8hbnsj
p420
I1
sVd5oh59t
p421
I1
sVdfucdfm
p422
I1
sVdcnoq3d
p423
I2
sVd3kstoz
p424
I3
sVd6uvgvp
p425
I1
sVd79sjac
p426
I1
sVdq88333
p427
I1
sVdjwntm7
p428
I1
sVdfdmq4t
p429
I2
sVczv2kj2
p430
I1
sVdd45ki4
p431
I3
sVdsj14ln
p432
I1
sVdqe75pg
p433
I1
sVd874b93
p434
I1
sVd0sqlmc
p435
I2
sVdt174md
p436
I1
sVd3dk631
p437
I2
sVdi05u9z
p438
I1
sVd0tqqy2
p439
I1
sVdgy9ysl
p440
I1
sVd4c1asv
p441
I1
sVd4aikih
p442
I1
sVd8ppam2
p443
I1
sVd63w91j
p444
I1
sVdigprca
p445
I1
sVdepnub6
p446
I5
sVdq8ennv
p447
I4
sVd35hcsa
p448
I1
sVd5r8tbq
p449
I1
sVdboiq03
p450
I1
sVdbevy4e
p451
I1
sVdbz3zoj
p452
I1
sVdashpjx
p453
I1
sVdohfmtk
p454
I1
sVdnx75oo
p455
I1
sVdn59od9
p456
I1
sVdefwcjf
p457
I2
sVddxafg6
p458
I1
sVdntvmx1
p459
I1
sVd78r1xh
p460
I1
sVdmv2rma
p461
I8
sVdjoz9t8
p462
I1
sVdnfhyu2
p463
I1
sVddulr75
p464
I2
sVd05tb0w
p465
I1
sVdqzs79n
p466
I1
sVde1lqvj
p467
I1
sVdqrz5e0
p468
I1
sVdsdawzh
p469
I1
sVd1np6a7
p470
I4
sVd2xgr0v
p471
I1
sVdc5m422
p472
I1
sVczgwl3q
p473
I1
sVddzqvmx
p474
I1
sVd1mqcyh
p475
I1
sVdkj74i3
p476
I2
sVdau7jgn
p477
I1
sVd1cil28
p478
I2
sVdt99t15
p479
I3
sVdavrt1x
p480
I2
sVd2kth7c
p481
I1
sVdo7q87z
p482
I1
sVd1degmp
p483
I1
sVd17m2ln
p484
I1
sVdcc2vvp
p485
I1
sVd31ro2l
p486
I2
sVd1uupyt
p487
I1
sVdjtywzy
p488
I1
sVd23yx1q
p489
I2
sVd7z88w6
p490
I1
sVczv2kxm
p491
I1
sVczh5s8g
p492
I1
sVd6i11v7
p493
I2
sVdftalpn
p494
I1
sVdmv4rj6
p495
I4
sVdd9b6eo
p496
I1
sVd4ukbvl
p497
I1
sVdmuv530
p498
I1
sVdd2o6ie
p499
I2
sVd4o403k
p500
I1
sVdki6hqu
p501
I1
sVdogr209
p502
I1
sVd1zajl6
p503
I1
sVdhnaf8z
p504
I1
sVdd1qx7k
p505
I4
sVdg6bncw
p506
I4
sVd8vf4f6
p507
I1
sVd6ngkzl
p508
I2
sVdhq1wgq
p509
I1
sVdc03c0j
p510
I2
sVd7ilo0w
p511
I1
sVdnj5i0a
p512
I1
sVdi486qg
p513
I1
sVd1brtnf
p514
I1
sVd4er1pn
p515
I1
sVd3hhxiu
p516
I2
sVde7wk0x
p517
I2
sVdok31db
p518
I1
sVd62asqi
p519
I4
sVdc0voh5
p520
I1
sVdmlobu1
p521
I1
sVdtj6gqx
p522
I1
sVdbz8zcl
p523
I1
sVd1m5wki
p524
I1
sVd82y30k
p525
I1
sVdcw9d2s
p526
I2
sVd1et687
p527
I2
sVdqkf0a5
p528
I1
sVdhb859e
p529
I1
sVde3sfex
p530
I6
sVdiwvosr
p531
I1
sVdf3vzfj
p532
I2
sVdrji98m
p533
I1
sVdjy94i0
p534
I1
sVd1eeiwp
p535
I1
sVddwnaoj
p536
I2
sVdb73t7v
p537
I1
sVdoja5mw
p538
I1
sVd0xi7r1
p539
I1
sVczsw62l
p540
I1
sVd5zmuv8
p541
I1
sVdfc6cru
p542
I1
sVdd7hvo5
p543
I1
sVdqbciug
p544
I1
sVde9yffo
p545
I1
sVd15mi5o
p546
I1
sVdqichq9
p547
I1
sVdhruz7l
p548
I1
sVd3dg7vh
p549
I1
sVdo7wbmb
p550
I2
sVdgzs092
p551
I1
sVd924a1i
p552
I1
sVd27e8m2
p553
I1
sVdgdoz8w
p554
I1
sVdjh2dzm
p555
I1
sVd4g3ddg
p556
I2
sVddwsegw
p557
I1
sVdbk304d
p558
I2
sVd4n9qvv
p559
I1
sVdcsh7zk
p560
I1
sVd2lb8hn
p561
I1
sVdccdev8
p562
I2
sVdhhi2ry
p563
I1
sVdjd4maq
p564
I2
sVdezza7b
p565
I2
sVdqsfmhc
p566
I3
sVd3dg1vf
p567
I1
sVdaucdox
p568
I1
sVdicbkpw
p569
I1
sVdseekii
p570
I1
sVd0dxjb0
p571
I5
sVdhfajqw
p572
I1
sVdgsa5oy
p573
I1
sVdkfkn7t
p574
I3
sVdt27dde
p575
I2
sVdd2cpeo
p576
I1
sVd68pdgm
p577
I1
sVdt13dy5
p578
I1
sVd1ybi3g
p579
I2
sVdjyss4w
p580
I1
sVdphocyo
p581
I1
sVdia5twd
p582
I1
sVdo8yde5
p583
I1
sVdekf6cu
p584
I2
sVd2qjyhw
p585
I1
sVdrbvn3x
p586
I3
sVddo6nk8
p587
I2
sVd1c7yl2
p588
I1
sVdkk2i9x
p589
I3
sVczggtql
p590
I1
sVd7ocb0b
p591
I3
sVddzztry
p592
I3
sVdpo3vx2
p593
I1
sVd1s5b6m
p594
I2
sVdfcp1cz
p595
I1
sVdbile4k
p596
I2
sVdtbfa1z
p597
I1
sVd2pxtah
p598
I1
sVdn3erv6
p599
I1
sVdqsv7rk
p600
I1
sVd1wkagn
p601
I1
sVdf525xm
p602
I1
sVd7nx8j5
p603
I1
sVda86ek0
p604
I1
sVd21sujk
p605
I4
sVd3h05lc
p606
I1
sVd6ktna9
p607
I2
sVd3pyd5d
p608
I2
sVd5n8ejj
p609
I2
sVczpuvu0
p610
I1
sVczekfbh
p611
I1
sVdsnrxvj
p612
I1
sVd4rj35b
p613
I1
s.