(dp0
Vd5ejqyy
p1
I1
sVdgop016
p2
I1
sVdsarqzx
p3
I1
sVdb8gaya
p4
I1
sVd64r4gb
p5
I1
sVcywnt8q
p6
I1
sVdq94yak
p7
I1
sVddxil2u
p8
I1
sVczb05ke
p9
I1
sVde3wu16
p10
I1
sVda1dme4
p11
I1
sVd5ponub
p12
I1
s.