(dp0
Vdfz37ls
p1
I1
sVdgwhbnl
p2
I1
sVdkkn041
p3
I1
sVcyo1oks
p4
I1
sVd1ptzdf
p5
I1
sVd6xhdbu
p6
I1
sVczpnlcp
p7
I1
sVdexkt5w
p8
I1
sVd8lik1j
p9
I1
sVdnkpo3p
p10
I1
sVdcau5ay
p11
I1
sVdaqgzil
p12
I1
sVdb5mpyf
p13
I1
sVdi0t0mh
p14
I1
sVdnklr7a
p15
I1
sVd1nd9b0
p16
I1
sVd8st9lt
p17
I1
sVddx4ssl
p18
I1
sVd09p0ah
p19
I1
sVdkf19gd
p20
I2
sVdqkaygv
p21
I1
sVdbxz3x0
p22
I1
sVdspf4cw
p23
I1
sVdnjpsdw
p24
I1
sVdtdd27f
p25
I1
sVdp1gd2v
p26
I1
sVcz5bc4k
p27
I1
sVd7v0q46
p28
I1
sVdop2d5r
p29
I1
sVddstxte
p30
I1
sVd5ohkiq
p31
I2
sVd5yugc2
p32
I1
sVdn4utg2
p33
I2
sVdi852va
p34
I1
sVdpeze1y
p35
I1
sVdk6ekiw
p36
I1
sVdbbzkuk
p37
I1
sVdjt4hp5
p38
I1
sVdhvoi5l
p39
I1
sVdsep6i2
p40
I1
sVdc2zx7x
p41
I1
sVdh7pp1o
p42
I1
sVdg3qp6q
p43
I1
sVdewg4ke
p44
I1
sVd290eh6
p45
I1
sVdqjy7s0
p46
I1
sVdgiciqq
p47
I1
sVd5m19cz
p48
I1
sVdda6j1s
p49
I1
sVdd8ozvv
p50
I1
sVd070cqu
p51
I1
sVdjebybr
p52
I1
sVdhfzjxu
p53
I1
sVdmvcb39
p54
I3
sVddb3kjm
p55
I1
sVd0ku12m
p56
I1
sVd82a47l
p57
I1
sVd3wwa9z
p58
I1
sVd1v2hpd
p59
I2
sVdbwm895
p60
I1
sVd6pp8az
p61
I2
sVdqhb05p
p62
I1
sVdfoszvd
p63
I1
sVd51wx9i
p64
I1
sVcz2cl3o
p65
I1
sVdg5n75u
p66
I1
sVd8enn41
p67
I1
sVdmnq99k
p68
I1
sVdmw8vo2
p69
I1
sVd7e8ffx
p70
I1
sVdj8n447
p71
I1
sVdsz4ghh
p72
I1
sVdbjlrta
p73
I1
sVd4m30mn
p74
I1
sVdhpi7zb
p75
I1
sVd1g6c2q
p76
I1
sVdjcifhy
p77
I1
sVczawvgz
p78
I1
sVczienvl
p79
I1
sVdcz2sqh
p80
I1
sVdcjck0q
p81
I1
sVdrx3v55
p82
I1
sVddgm6pu
p83
I3
sVdn2fsen
p84
I1
sVcyl67om
p85
I2
sVd1lxpg4
p86
I2
sVdbit1a5
p87
I1
sVdo1j6xx
p88
I1
sVdc1sool
p89
I1
sVd8kxtox
p90
I1
sVd3hq1c8
p91
I1
sVdaie7zv
p92
I1
sVdozf63f
p93
I1
sVdrradtt
p94
I1
sVd4jstlz
p95
I1
sVdb4g7w9
p96
I2
sVczoxrqt
p97
I1
sVdc444gm
p98
I1
sVdduaekl
p99
I1
sVdj1ukcy
p100
I1
sVd6gqs5y
p101
I1
sVdrslbn1
p102
I1
sVczgxczs
p103
I1
sVdd0chhb
p104
I1
sVd9h5iin
p105
I1
sVdanzoa8
p106
I1
sVdem1xop
p107
I1
sVdatjyul
p108
I2
sVdt7j7fa
p109
I1
sVdauuuu3
p110
I1
sVdj7btzt
p111
I1
sVd8j132c
p112
I2
sVdc05p5c
p113
I1
sVdmwrt5i
p114
I1
sVdpvmwwq
p115
I1
sVdkiqdk2
p116
I1
sVd7leaf7
p117
I1
sVdkktucf
p118
I1
sVdbpml7r
p119
I1
sVcyl4h88
p120
I1
sVdd8fpo4
p121
I1
sVdj1csjj
p122
I1
sVd4fhvpl
p123
I1
sVdosse1r
p124
I1
sVd0w8bwx
p125
I1
sVd8to9am
p126
I1
sVdsf84qk
p127
I2
sVd4j714h
p128
I1
sVdjebwnd
p129
I1
sVdg6kzk6
p130
I1
sVd3xw864
p131
I1
sVdbk11g4
p132
I1
sVdqbbqz8
p133
I1
sVdqhs2v5
p134
I1
sVdem7dew
p135
I1
sVd8gwrvt
p136
I1
sVd0xjhwg
p137
I1
sVd2i56ox
p138
I1
sVdi6661d
p139
I1
sVds1m9of
p140
I1
sVdmhywgt
p141
I1
sVdd40bxd
p142
I1
sVdqwcvre
p143
I1
sVd4khqu2
p144
I1
sVd2gd63v
p145
I1
sVdbx16qb
p146
I1
sVdnz2nv1
p147
I5
sVdk3rmpr
p148
I1
sVdk8z0go
p149
I3
sVdhii8l0
p150
I1
sVdcghxwo
p151
I2
sVcz6pmel
p152
I1
sVdsi95kd
p153
I1
sVdgr16p8
p154
I1
sVdby0o4l
p155
I1
sVdae3m58
p156
I1
sVd7zk32b
p157
I1
sVdsn3lxv
p158
I1
sVczkubay
p159
I1
sVdjx69h9
p160
I1
sVdnop132
p161
I1
sVd6jm5hs
p162
I1
sVd35qw75
p163
I1
sVdc5wy36
p164
I1
sVcyyz2pc
p165
I2
sVdaybf3b
p166
I1
sVd0ovf6e
p167
I2
sVdjnojsp
p168
I1
sVd85o9k5
p169
I1
sVdjvw7wa
p170
I1
sVdiz3i5k
p171
I2
sVdfmdc3l
p172
I5
sVdcasd61
p173
I1
sVdqt92d1
p174
I1
sVdn5wgch
p175
I1
sVdhwi8it
p176
I1
sVdiolzam
p177
I3
sVd3863c9
p178
I1
sVd0aa0nu
p179
I1
sVdngu0c4
p180
I1
sVd47o650
p181
I5
sVdnbmp63
p182
I1
sVd6er9v9
p183
I1
sVdnhl4je
p184
I1
sVcykrlex
p185
I1
sVd93fhv8
p186
I1
sVdtgu2p9
p187
I1
sVd33mpnl
p188
I1
sVddcn5qk
p189
I2
sVd0ew3gd
p190
I1
sVdkk2725
p191
I3
sVdrnl2i8
p192
I1
sVdrc3z64
p193
I4
sVdq2m8v7
p194
I1
sVdemivrw
p195
I1
sVd9bvi9l
p196
I1
sVdmwr2q7
p197
I1
sVczy5bnl
p198
I1
sVd79xv8k
p199
I1
sVdi15rpd
p200
I1
sVczds0ft
p201
I1
sVd0cdcdl
p202
I7
sVdbt2k1q
p203
I1
sVd7csdi7
p204
I1
sVd0awj2y
p205
I2
sVdi1wvrp
p206
I1
sVdafi01a
p207
I1
sVdgcytwz
p208
I1
sVd40ftqz
p209
I1
sVdbyhos7
p210
I1
sVd2j8ap0
p211
I1
sVdjrif9b
p212
I1
sVdc1ykew
p213
I1
sVdkl3imx
p214
I1
sVd2lbol2
p215
I1
sVddf63e0
p216
I1
sVdt2pvr9
p217
I1
sVdg3jgct
p218
I1
sVdhxe3co
p219
I1
sVddihq5r
p220
I2
sVdgzbziv
p221
I1
sVd5w5k9p
p222
I1
sVdihs048
p223
I2
sVd2q0tpr
p224
I2
sVdajwf0n
p225
I1
sVddpgvej
p226
I1
sVdhy8y0r
p227
I2
sVd7247u3
p228
I2
sVd3r9i6q
p229
I1
sVdp91czm
p230
I1
sVd7v75x0
p231
I1
sVcys917l
p232
I1
sVd2a1mdw
p233
I1
sVd28etdd
p234
I1
sVd0jhboe
p235
I1
sVdcjd79d
p236
I1
sVd1912pq
p237
I1
sVdkmulzx
p238
I1
sVd0qr4b9
p239
I3
sVd195w2b
p240
I1
sVdeksvsa
p241
I1
sVd3p76rr
p242
I1
sVcz82zgj
p243
I1
sVdmp4y2e
p244
I1
sVdjpjqov
p245
I1
sVcznmdi2
p246
I1
sVczazfl0
p247
I1
sVd6to7j3
p248
I1
sVd0tfy8e
p249
I1
sVdkesmr7
p250
I5
sVdfwxy6b
p251
I1
sVd0ka5rx
p252
I1
sVdrsk6jb
p253
I3
sVd0ajsn6
p254
I1
sVd4v7trw
p255
I1
sVd1tcwmk
p256
I1
sVddej54i
p257
I1
sVd9xnjh2
p258
I1
sVd29jxi6
p259
I2
sVd732pbt
p260
I1
sVdbxsgog
p261
I1
sVdft8efi
p262
I1
sVdijmi92
p263
I2
sVdsfnfuz
p264
I1
sVdbi1x26
p265
I1
sVd54dnfg
p266
I2
sVdfrnni0
p267
I1
sVd5sqaag
p268
I1
sVd3ky3cw
p269
I1
sVdksyttf
p270
I1
sVd4ng4s2
p271
I2
sVdnlt56g
p272
I1
sVdbd3s37
p273
I1
sVdbhopt2
p274
I1
sVd1tqpcm
p275
I2
sVdd85fkt
p276
I2
sVd9uhx80
p277
I1
sVddyse35
p278
I1
sVd9a5duu
p279
I1
sVdrqck3x
p280
I1
sVdjwyzti
p281
I1
sVddhtzp2
p282
I1
sVdec0ixp
p283
I1
sVd2v1yvl
p284
I1
sVdjogooy
p285
I1
sVdh95k8c
p286
I1
sVdj1xc2y
p287
I3
sVdh7b3p6
p288
I1
sVd5u9u06
p289
I1
sVd7xkcgc
p290
I2
sVdjfrkqs
p291
I1
sVd2zgxgc
p292
I1
sVd0vhn4j
p293
I2
sVd6lm7ad
p294
I1
sVdpn1efz
p295
I2
sVdigdcv2
p296
I1
sVdgy5l3p
p297
I1
sVdc1j0yg
p298
I3
sVdbwklsa
p299
I1
sVdnacm72
p300
I3
sVd5wov5f
p301
I1
sVdkhwy0t
p302
I1
sVd5lb1ls
p303
I2
sVd1475ch
p304
I1
sVd2ts83i
p305
I5
sVdi87uzm
p306
I1
sVddntw3i
p307
I1
sVdcbe0ef
p308
I1
sVdjopx7o
p309
I1
sVdac6ci2
p310
I1
sVd22x0lq
p311
I1
sVde2p8oo
p312
I1
sVdivrjll
p313
I2
sVczwu4j3
p314
I1
sVdgtt9b5
p315
I1
sVdj6yy5t
p316
I1
sVd3v5qag
p317
I1
sVcz5hmbx
p318
I1
sVd61brqf
p319
I1
sVd8ee4ic
p320
I1
sVdhrin55
p321
I1
sVd2wosvd
p322
I1
sVdpugylw
p323
I1
sVdechn9s
p324
I1
sVdqgbum9
p325
I1
sVdixaxqy
p326
I1
sVdtfm68o
p327
I3
sVdos4lb5
p328
I1
sVdrpt5di
p329
I1
sVdcfas31
p330
I1
sVdibgd4d
p331
I1
sVdg6b5i1
p332
I1
sVdoa2ih0
p333
I2
sVcz0fq3p
p334
I1
sVdr082rj
p335
I1
sVdb5ioxs
p336
I1
sVd1bf7l5
p337
I1
sVdh7sua3
p338
I1
sVd8fpuc3
p339
I1
sVdkhk7cy
p340
I1
sVd3kapqh
p341
I1
sVdgal1lx
p342
I1
sVd5y7klq
p343
I1
sVcz1fu3q
p344
I1
sVd6skq1m
p345
I1
sVdt8isxe
p346
I2
sVde3eqrt
p347
I1
sVdozxr04
p348
I1
sVd68mp90
p349
I3
sVdqj4mmd
p350
I1
sVd1tt9lv
p351
I1
sVd2g6mvw
p352
I1
sVdb63jtz
p353
I1
sVd1nn6yv
p354
I1
sVczpsdhx
p355
I1
sVdbjgops
p356
I3
sVdorsq8h
p357
I3
sVdol7sbk
p358
I3
sVdr6jzq2
p359
I1
sVd2nv8w0
p360
I1
sVd50aqy3
p361
I1
sVdapzp4b
p362
I1
sVdawqabm
p363
I3
sVd7ylyz5
p364
I2
sVdkqzmfh
p365
I1
sVdi0slbx
p366
I1
sVd88gx2d
p367
I1
sVd5xzz94
p368
I1
sVdcviv12
p369
I1
sVdabnioa
p370
I1
sVdei5gmn
p371
I1
sVdejb190
p372
I1
sVdbbq0a9
p373
I1
sVd4devo7
p374
I1
sVcyhu441
p375
I1
sVdam51f2
p376
I1
sVdbpwin7
p377
I1
sVdao9nji
p378
I1
sVd7d2zgu
p379
I1
sVd6hbjf1
p380
I2
sVd9hx2pm
p381
I1
sVcz2z7fb
p382
I1
sVdatyrhg
p383
I1
sVd0pwx41
p384
I1
sVd6ctw22
p385
I2
sVdckgu79
p386
I1
sVdcy98sc
p387
I1
sVdp258sj
p388
I1
sVd0kf8yh
p389
I1
sVd3rkk83
p390
I1
sVd2t440g
p391
I1
sVdrrctot
p392
I1
sVd299d9z
p393
I1
sVd2q2jr5
p394
I1
sVdce92e1
p395
I1
sVd5kpexe
p396
I1
sVd0r17ai
p397
I1
sVdb6fa4v
p398
I1
sVdkeaq42
p399
I1
sVdscdeey
p400
I2
sVderh1r7
p401
I1
sVdiq4hdu
p402
I1
sVdpfnrfi
p403
I1
sVdizx6l5
p404
I1
sVdd1p7ja
p405
I1
sVdmosdv8
p406
I1
sVdcxva19
p407
I1
sVde847dm
p408
I1
sVd0yihxz
p409
I1
sVdjrr4sq
p410
I1
sVd1cgpl8
p411
I1
sVd566d4p
p412
I1
sVdsry4s2
p413
I1
sVd4bzzx3
p414
I2
sVdbbxkha
p415
I1
sVd24rvfr
p416
I1
sVd6hyeq5
p417
I1
sVczjjjrg
p418
I1
sVdfx10y8
p419
I1
sVd6vejv8
p420
I2
sVd9qxvf8
p421
I1
sVd343i7e
p422
I1
sVdt54hnp
p423
I1
sVdsqsvie
p424
I1
sVdrz0h1w
p425
I1
sVd2x5613
p426
I1
sVd58vnif
p427
I1
sVda34hcz
p428
I1
sVddt39g6
p429
I3
sVd404npt
p430
I1
sVcyn3mw3
p431
I2
sVdf1uvou
p432
I1
sVd4eqbsp
p433
I1
sVdepr090
p434
I1
sVdjec5ji
p435
I1
sVdrrv9dd
p436
I1
sVdhs2rq9
p437
I1
sVcyvdnza
p438
I1
sVd5o5l16
p439
I1
sVd1tf81a
p440
I2
sVdbmq6fr
p441
I1
sVd34358n
p442
I1
sVdpm54vk
p443
I1
sVd2e6aie
p444
I1
sVczhffkz
p445
I3
sVdi521kj
p446
I1
sVdg4a7vv
p447
I1
sVdixpdex
p448
I1
sVda87114
p449
I1
sVcz4x9ql
p450
I1
sVd1uv3zr
p451
I1
sVds05itq
p452
I3
sVdeqev5h
p453
I1
sVdsp8pnl
p454
I3
sVdnhbvnv
p455
I1
sVdf7nvbn
p456
I1
sVdkjzper
p457
I1
sVd2vihhm
p458
I1
sVde2mc06
p459
I1
sVdqgkuqg
p460
I1
sVdeyaqxu
p461
I1
sVdns54j6
p462
I1
sVcyz2tux
p463
I2
sVd5fqw26
p464
I1
sVdfaizda
p465
I1
sVcz439xx
p466
I1
sVdirjoxl
p467
I1
sVd33mb6w
p468
I1
sVdf99rih
p469
I1
sVdnoeofd
p470
I2
sVdampsvb
p471
I1
sVdgap2d6
p472
I1
sVd1k0woe
p473
I1
sVdr0j794
p474
I1
sVcz8so84
p475
I1
sVd6cd97o
p476
I1
sVd6utnxh
p477
I1
sVdc1kpgr
p478
I1
sVcymb2ea
p479
I1
sVdspeaiv
p480
I1
sVdco4qzl
p481
I1
sVd89hqoi
p482
I1
sVdb092x9
p483
I1
sVdewbwd1
p484
I1
sVcz0whbz
p485
I1
sVd35szux
p486
I1
sVd961f7n
p487
I1
sVdi55t1d
p488
I3
sVcyxop2x
p489
I1
sVds2q3nd
p490
I1
sVd1y6w6g
p491
I1
sVddhn96r
p492
I1
sVd09d5w1
p493
I1
sVcyjka7q
p494
I1
sVd37hyv1
p495
I2
sVd2a4fld
p496
I1
sVdqu5lhe
p497
I1
sVd3aipwl
p498
I1
sVdde23qg
p499
I1
sVdixylud
p500
I1
sVdnhcqmd
p501
I1
sVd87mr2l
p502
I1
sVd5vfq7h
p503
I1
sVd4d67ku
p504
I1
sVd8zz0s8
p505
I1
sVd260a9e
p506
I1
sVddn4zny
p507
I1
sVd3xfofc
p508
I1
sVdbf1jrl
p509
I1
sVdeafh7p
p510
I1
sVd45w25v
p511
I1
sVd04ud2u
p512
I1
sVd5hp59o
p513
I1
sVd2osoir
p514
I1
sVd9fs61c
p515
I1
sVdipkyv4
p516
I2
sVdg9b2rb
p517
I1
sVdjcs4ut
p518
I2
sVdpaydy5
p519
I1
sVd657el2
p520
I1
sVdk2fucb
p521
I1
sVcyx96hv
p522
I1
sVdfjktdw
p523
I1
sVd493tj3
p524
I1
sVd7k1xkv
p525
I2
sVdt6mk2n
p526
I1
sVd7rrizu
p527
I3
sVd92mzy0
p528
I1
sVdjylh4g
p529
I1
sVcyn45sa
p530
I1
sVd2p0g2u
p531
I1
sVcyjqavs
p532
I1
sVdad5ipf
p533
I1
sVdcgh982
p534
I1
sVd2ww0o0
p535
I1
sVd1ecooa
p536
I1
sVdi2nm4w
p537
I1
sVcz5ffh3
p538
I1
sVd4t2kqd
p539
I1
sVd3zofpq
p540
I2
sVd2yxe11
p541
I1
sVdib1xev
p542
I3
sVddyyelw
p543
I1
sVdia1a9d
p544
I2
sVczjpxui
p545
I1
sVdmpk2os
p546
I1
sVd3de03q
p547
I1
sVdqov80n
p548
I1
sVdsdyqrh
p549
I1
sVdeyk45j
p550
I1
sVdb0xyt7
p551
I1
sVdd9q2f5
p552
I2
sVcznf28s
p553
I1
sVdrp1wdh
p554
I1
sVd20vuaf
p555
I1
sVcz44cub
p556
I2
sVdfmd2o1
p557
I1
sVdd9vn5w
p558
I1
sVdhy8bqr
p559
I1
sVdd50k2e
p560
I1
sVdg2n2bb
p561
I1
sVdrv22o4
p562
I1
sVdg1ecdn
p563
I1
sVd325ux1
p564
I1
sVdhc1x9e
p565
I1
sVd7zir4y
p566
I1
sVd9buofr
p567
I1
sVd8rpgpa
p568
I1
sVdcql1t2
p569
I1
sVdovscml
p570
I1
sVd0tbypl
p571
I1
sVd4vqu3d
p572
I1
sVdekjh4z
p573
I1
sVdtgwut4
p574
I1
sVdg7swv3
p575
I1
sVdbe6mi0
p576
I1
sVdp0aqgf
p577
I1
sVd2gcsp4
p578
I1
sVd4y5gw9
p579
I1
sVd2fq8gj
p580
I1
sVd2a72dc
p581
I1
sVd94oik2
p582
I1
sVcysvlzh
p583
I1
sVdb78p63
p584
I1
sVdhfejjr
p585
I1
sVd0ilmrj
p586
I1
sVdk4ydyn
p587
I1
sVd7xmm7c
p588
I1
sVd1ntpxq
p589
I1
sVd3zd51c
p590
I1
sVdoss6mb
p591
I1
sVdcb3nul
p592
I1
sVdruqqxa
p593
I2
sVd6z1kxe
p594
I2
sVd8gxseh
p595
I1
sVd1igeid
p596
I1
sVd7t0dr6
p597
I1
sVdt6m9sq
p598
I2
sVd3nujzr
p599
I1
sVd2011e3
p600
I1
sVd17dp4o
p601
I2
sVd88bfw0
p602
I1
sVcyt55v3
p603
I2
sVdb6kyyj
p604
I1
sVdk9mxds
p605
I1
sVdol9kzq
p606
I1
sVdnqux59
p607
I1
sVd2rahjq
p608
I1
sVd29rwb2
p609
I1
sVd5uutfa
p610
I1
sVdt0lmr8
p611
I1
sVdd52r0i
p612
I1
sVd9vauxp
p613
I1
sVdafajfc
p614
I1
sVdj41ilm
p615
I1
sVdc92ajw
p616
I1
sVdd50c05
p617
I1
sVdep97u1
p618
I1
sVd1elsw1
p619
I1
sVd2nqsds
p620
I1
sVddux4c0
p621
I1
sVdbicgzu
p622
I1
sVd7j8y0g
p623
I1
sVdfqfhxi
p624
I1
sVd1ktguo
p625
I1
sVdt5sail
p626
I1
sVddbiwn2
p627
I1
sVdoszhkj
p628
I1
sVd0d2tv3
p629
I1
sVd47vr8z
p630
I1
sVdt8nuev
p631
I1
sVdbzln0d
p632
I1
sVdi2peg4
p633
I1
sVd0obnm9
p634
I1
sVd3bb3c4
p635
I1
sVdisdztu
p636
I1
sVdopzhfr
p637
I2
sVcymj2x0
p638
I1
sVd4dxqpi
p639
I1
sVd9qr90y
p640
I1
sVda5mxij
p641
I1
sVd7oi0xr
p642
I1
sVdaj9i8y
p643
I1
sVd37rrk9
p644
I2
sVd7hljc9
p645
I1
sVdsnov8m
p646
I1
sVczsg8ob
p647
I3
sVd8oc6jj
p648
I2
sVdal2d8g
p649
I1
sVd6m7no1
p650
I1
sVdbud3gx
p651
I1
sVdkk8gar
p652
I1
sVdbo6g21
p653
I1
sVddhi5on
p654
I1
sVddhag71
p655
I1
sVdiybfry
p656
I2
sVdf8t5he
p657
I1
sVddo5lhs
p658
I1
sVd1jxpaf
p659
I1
sVd5ocm7j
p660
I1
sVd09q80v
p661
I1
sVdq9s1g0
p662
I1
sVd7h5o79
p663
I1
sVczmrujm
p664
I1
sVdhtbb96
p665
I1
sVdbdyo4r
p666
I2
sVdb0u6l5
p667
I1
sVd8ftlnc
p668
I1
sVdp6wzum
p669
I1
sVdpruis3
p670
I1
sVdeiqazw
p671
I1
sVd2i4rpi
p672
I1
sVd3yignb
p673
I1
sVdc01sqg
p674
I1
sVdibscaz
p675
I1
sVd2eglnf
p676
I1
sVdhgem0a
p677
I1
sVd095m9b
p678
I1
sVdjyrvrz
p679
I1
sVdb24p38
p680
I1
sVdkz4iaq
p681
I2
sVdhoz503
p682
I1
sVdcqgvsl
p683
I1
sVdby1g3z
p684
I2
sVdeox63h
p685
I1
sVd884ycj
p686
I1
sVdnc5nae
p687
I1
sVdbibx6t
p688
I1
sVdewx51t
p689
I1
sVd7dk8wp
p690
I2
sVdbch3ar
p691
I1
sVdrkxd6k
p692
I1
sVdaejpqm
p693
I1
sVdn1fnpg
p694
I2
sVdk2rihd
p695
I1
sVd9fjj5u
p696
I1
sVdd3b2h3
p697
I1
sVda25mrx
p698
I1
sVdgit7am
p699
I1
sVd5wksjk
p700
I1
sVdhtozok
p701
I1
sVd1fkf90
p702
I1
sVda5y90l
p703
I1
sVczpjc1u
p704
I1
sVds2x0mi
p705
I1
sVdmpu1ef
p706
I1
sVdthmfkc
p707
I1
sVcyvk45a
p708
I1
sVd3joeuj
p709
I1
sVdo14ijr
p710
I1
sVdgrk626
p711
I1
sVd6cmo4x
p712
I1
sVdajrwhx
p713
I1
sVdiura32
p714
I2
sVd0snkxw
p715
I1
sVdd7a9eb
p716
I2
sVdj4gb98
p717
I1
sVdiz17o5
p718
I1
sVczwj1xl
p719
I1
sVd1trjh2
p720
I1
sVdi7ysnr
p721
I1
sVdhpgw8w
p722
I1
sVdtgjy1q
p723
I1
sVd9x5y46
p724
I1
sVd0qrx27
p725
I1
sVdqu93qe
p726
I1
sVdro3azl
p727
I1
sVdkgtfas
p728
I1
sVd9ijctp
p729
I1
sVczms1vx
p730
I1
sVd1ybgd7
p731
I1
sVdi6drgw
p732
I1
sVdiqgx4s
p733
I3
sVdcfjhkv
p734
I1
sVdd900vp
p735
I1
sVdd57ipd
p736
I1
sVd7b1035
p737
I1
sVd5z9w43
p738
I1
sVd9vk62z
p739
I1
sVdoxowjh
p740
I1
sVdqsb3xg
p741
I1
sVd1mabr8
p742
I1
sVd2qtjar
p743
I1
sVdt1ey4h
p744
I1
sVdkic2ud
p745
I1
sVdmtintm
p746
I3
sVd3zhvf1
p747
I1
sVczkg7o7
p748
I1
sVdcdlfj4
p749
I1
sVdhbbvjl
p750
I1
sVdje9j3h
p751
I1
sVdit68vb
p752
I1
sVdt100ei
p753
I1
sVdqcl88y
p754
I1
sVd0d7lvq
p755
I1
sVdmlwul2
p756
I1
sVdkenauh
p757
I5
sVdo53nc4
p758
I1
sVdkn2wpu
p759
I1
sVcynuc6f
p760
I1
sVd42gw22
p761
I1
sVd2ed9ji
p762
I2
sVdehbtk6
p763
I1
sVdk2k7pg
p764
I1
sVdoszfpw
p765
I1
sVdnclz6n
p766
I1
sVd8781rz
p767
I1
sVdfcnifl
p768
I1
sVd34exqn
p769
I1
sVdhc9uys
p770
I1
sVd2j1548
p771
I2
sVdec0sla
p772
I1
sVdmmbowb
p773
I1
sVdteki1l
p774
I1
sVdmsfsv2
p775
I1
sVdcpxyvf
p776
I1
sVcyz2s70
p777
I4
sVd3chot8
p778
I1
sVd4o4n99
p779
I3
sVd5gy9fk
p780
I1
sVdqgfauz
p781
I1
sVdqou1s2
p782
I1
sVdeuldkq
p783
I1
sVd4hahwu
p784
I1
sVdr5z8n8
p785
I1
sVdgla4gn
p786
I1
sVd6eo9ax
p787
I6
sVd27odl6
p788
I1
sVd3yn9eo
p789
I1
sVdd64tl7
p790
I1
sVd6k5zl3
p791
I1
sVdcrjwm3
p792
I1
sVdnd0wri
p793
I1
sVdg7pjgl
p794
I1
sVd180ocw
p795
I1
sVdc5i66o
p796
I1
sVd895sce
p797
I1
sVcyktnni
p798
I1
sVdk3jaed
p799
I2
sVd562vqr
p800
I1
sVde6bcym
p801
I1
sVdtccrhy
p802
I1
sVd2jxrgz
p803
I1
sVd1pgvyk
p804
I1
sVd3jny7q
p805
I3
sVdh48j6a
p806
I1
sVd627d0r
p807
I1
sVdoaa8vf
p808
I1
sVdaz7t2u
p809
I2
sVd2yafu5
p810
I1
sVdejaqr6
p811
I1
sVd4v7y6e
p812
I2
sVd7t0nra
p813
I1
sVd39fr0s
p814
I1
sVdnlx060
p815
I1
sVdkk7t9t
p816
I1
sVde8d1is
p817
I1
sVd6rgwn1
p818
I1
sVd1f6a7l
p819
I1
sVczh2hvb
p820
I1
sVd50wxsa
p821
I2
sVdaj412z
p822
I1
sVde4r7bu
p823
I1
sVdbg00a3
p824
I1
sVdirgpbq
p825
I1
sVdkzltrq
p826
I1
sVd1r3bpe
p827
I1
sVdrdweqt
p828
I1
sVd44ytut
p829
I1
sVd9hu7em
p830
I1
sVdjwqzuh
p831
I1
sVd29htf5
p832
I2
sVdjnj6om
p833
I1
sVdcmh5t5
p834
I1
sVdib5ei9
p835
I1
sVd19ro8w
p836
I1
sVd23ixi6
p837
I1
sVdqttz4g
p838
I1
sVdi2h5ck
p839
I1
sVdjwpk3t
p840
I2
sVdj9pxcl
p841
I1
sVdevymlw
p842
I1
sVd1i1h1w
p843
I1
sVd7j75at
p844
I3
sVd73jxji
p845
I1
sVd9e8hg9
p846
I1
sVdo5du9s
p847
I1
sVd7zysf8
p848
I1
sVd3i8qhg
p849
I3
sVdh5srtm
p850
I1
sVd4nt01e
p851
I1
sVdjb6e78
p852
I1
sVd1sn0j2
p853
I1
sVd0r3ali
p854
I1
sVdovrn4x
p855
I1
sVdtdbxji
p856
I1
sVdowqonx
p857
I1
sVd39f44o
p858
I3
sVd8rpqd5
p859
I1
sVcz7fjdr
p860
I1
sVdid1nbr
p861
I1
sVdqrp5en
p862
I2
sVd9dfdgh
p863
I1
sVcz0g0w3
p864
I1
sVdj30cyk
p865
I1
sVdagyqvd
p866
I1
sVdhq0ozv
p867
I1
sVd5vlfjg
p868
I1
sVdq6zx8t
p869
I1
sVd9rtxpf
p870
I1
sVdr0nvlo
p871
I1
sVddi7g2p
p872
I1
sVd0elav7
p873
I1
sVd0rh4a3
p874
I1
sVd2dnned
p875
I1
sVdqkwxa4
p876
I1
sVdhpbiql
p877
I1
sVdms2t5h
p878
I1
sVds0nby6
p879
I1
sVd8utmea
p880
I1
sVd4j7q3i
p881
I4
sVdsazpzh
p882
I1
sVd7ulkmv
p883
I1
sVdsxc61x
p884
I1
sVd3zpplv
p885
I1
sVdd62kpz
p886
I1
sVd1hlyik
p887
I2
sVczbs8ep
p888
I1
sVcz9fipj
p889
I1
sVd17anf5
p890
I1
sVcz5ayi1
p891
I1
sVdjwu3iz
p892
I1
sVdkp94h6
p893
I2
sVd17mq8u
p894
I1
sVdhygy4b
p895
I1
sVdiunfu6
p896
I1
sVdmvhbd2
p897
I1
sVdr8kzbi
p898
I2
sVd7lk9jh
p899
I1
sVdq6k0fw
p900
I1
sVdfu1t23
p901
I1
sVdd3aaol
p902
I1
sVcyvxmgm
p903
I1
sVdog9xa7
p904
I1
sVdifit9s
p905
I1
sVcyyxxvr
p906
I1
sVdg3d8ip
p907
I1
sVdcff3wh
p908
I1
sVdijatxe
p909
I1
sVdav76ej
p910
I1
sVcymhalb
p911
I1
sVdk6w73g
p912
I1
sVdfpbqyt
p913
I1
sVdd411p1
p914
I1
sVdjwbfb8
p915
I6
sVdc5vplu
p916
I1
sVcyi8fgl
p917
I1
sVdbkub01
p918
I1
sVdpltbn2
p919
I1
sVdck7mss
p920
I1
sVdt1hm5u
p921
I1
sVddmstfv
p922
I1
sVd7t3hrm
p923
I1
sVdha6zc0
p924
I2
sVdkdlyum
p925
I1
sVd4fdncn
p926
I1
sVd2xwr80
p927
I1
sVdfodfmb
p928
I2
sVdbmrx4t
p929
I1
sVdp1692f
p930
I1
sVdrlxx1p
p931
I1
sVd21a3to
p932
I1
sVddi6xr0
p933
I1
sVdgasymv
p934
I1
sVcywwh8h
p935
I1
sVd7ezdjd
p936
I1
sVdfim9l6
p937
I1
sVd61sk1r
p938
I1
sVdjiq3rc
p939
I1
sVd00o5q9
p940
I1
sVdcb0ob3
p941
I1
sVdhyk6fa
p942
I1
sVd2vwcma
p943
I1
sVd82guuz
p944
I1
sVd4587k6
p945
I1
sVdh1gv9x
p946
I1
sVdcjigwl
p947
I2
sVdgkgm7l
p948
I1
sVd1h3gmo
p949
I1
sVdjwwzui
p950
I3
sVdsibtgp
p951
I1
sVdowcbh4
p952
I1
sVcyjg645
p953
I1
sVdrqtayv
p954
I1
sVd8olv94
p955
I1
sVdb1im85
p956
I1
sVdhgexsr
p957
I1
sVd0s466e
p958
I1
sVd0r3lgc
p959
I1
sVdkycjdc
p960
I1
sVdpkl4ew
p961
I1
sVd0egati
p962
I1
sVczyqudm
p963
I1
sVdaad9e1
p964
I1
sVder6mcb
p965
I1
sVd7t8cix
p966
I1
sVd16k2ws
p967
I1
sVd2q1cky
p968
I1
sVd60cfhx
p969
I1
sVcyo55d8
p970
I1
sVd2l5ipg
p971
I1
sVd3k92xu
p972
I1
sVdatlcug
p973
I1
sVdjvisy6
p974
I1
sVdp0opy6
p975
I1
sVdn3y13f
p976
I1
sVdn6ciqk
p977
I1
sVd9r04eu
p978
I1
sVdawr44s
p979
I2
sVd10eyfg
p980
I1
sVdazj3ql
p981
I1
sVdmx97l9
p982
I1
sVd1k8158
p983
I1
sVd6m5opa
p984
I1
sVd3kkfq3
p985
I1
sVd3dvxfa
p986
I1
sVcysnnku
p987
I6
sVd7swt8l
p988
I4
sVd6x7qne
p989
I2
sVdgxbupu
p990
I1
sVdpbec8t
p991
I2
sVdgk9agi
p992
I1
sVdhy327x
p993
I1
sVdabp4zg
p994
I1
sVddqnmdt
p995
I1
sVdkf40jm
p996
I1
sVcyu35i5
p997
I1
sVcyy5g86
p998
I2
sVd6kar62
p999
I1
sVds6wqt0
p1000
I1
sVdnrglqc
p1001
I1
sVdmqay50
p1002
I1
sVdnl4l22
p1003
I1
sVdr66ozn
p1004
I1
sVd1lw6yc
p1005
I1
sVdfl8i8i
p1006
I2
sVd9lyquj
p1007
I1
sVd9rl13n
p1008
I3
sVd6elqtg
p1009
I1
sVd5t3eug
p1010
I1
sVdkernj8
p1011
I1
sVd9cxvc2
p1012
I1
sVcz3l491
p1013
I2
sVd0wabke
p1014
I1
sVdnnat9u
p1015
I1
sVdolvsr3
p1016
I1
sVcyhvog3
p1017
I2
sVdhcgytq
p1018
I1
sVdmkbxv8
p1019
I1
sVdf101ki
p1020
I1
sVd9uein2
p1021
I1
sVd7v4rvb
p1022
I1
sVd7sv0bp
p1023
I1
sVd1amwqi
p1024
I1
sVdk0miro
p1025
I1
sVdfr4ghl
p1026
I1
sVdb4xgft
p1027
I1
sVd273zn1
p1028
I1
sVdbmmg3y
p1029
I1
sVcymx3j7
p1030
I1
sVd52g1w3
p1031
I1
sVdczvyd9
p1032
I1
sVdg6d68a
p1033
I1
sVdbdjdtv
p1034
I1
sVczzaufx
p1035
I1
sVd03j2xf
p1036
I1
sVd7j8l72
p1037
I1
sVdsp4nmi
p1038
I1
sVdo80ja6
p1039
I1
sVdfincnu
p1040
I1
sVcz8fmih
p1041
I2
sVd0gdb9m
p1042
I2
sVd45jh2y
p1043
I1
sVdb56yg3
p1044
I1
sVd9bpgyv
p1045
I1
sVd3j3r7m
p1046
I1
sVd4yiaqs
p1047
I1
sVd04zwv2
p1048
I4
sVd2kfv26
p1049
I1
sVcz62v20
p1050
I1
sVd7yfljp
p1051
I1
sVde0cfqd
p1052
I1
sVdnvxtck
p1053
I1
sVdpmgate
p1054
I1
sVd0iag14
p1055
I2
sVd7rn0ks
p1056
I1
sVdi27lrq
p1057
I1
sVdcbymyb
p1058
I1
sVcynp57z
p1059
I1
sVdhmjjo3
p1060
I1
sVdnhut5f
p1061
I4
sVd630cpu
p1062
I4
sVdhzpjnh
p1063
I1
sVdpgrvv7
p1064
I1
sVdirfzzo
p1065
I2
sVdjvbyrd
p1066
I1
sVd5pyvia
p1067
I1
sVd3ceax5
p1068
I1
sVddijgvh
p1069
I2
sVdfvmard
p1070
I1
sVd4a4d8p
p1071
I1
sVd0pref5
p1072
I1
sVdboxt7n
p1073
I1
sVczaohdv
p1074
I1
sVczniyta
p1075
I1
sVdk0cadv
p1076
I1
sVdra6kl3
p1077
I1
sVdsv2uhg
p1078
I1
sVd3xhxgx
p1079
I1
sVczh05l2
p1080
I1
sVdjr9ooq
p1081
I1
sVdcrfpfj
p1082
I1
sVd9fx81u
p1083
I1
sVd7q14uk
p1084
I2
sVdelq3a2
p1085
I1
sVd73ouqb
p1086
I1
sVddfbxg7
p1087
I3
sVdrj3o63
p1088
I1
sVd6n2aeh
p1089
I1
sVdp0gdam
p1090
I1
sVdgkcgwt
p1091
I1
sVd013ylm
p1092
I1
sVd95ljj1
p1093
I1
sVdb8iz38
p1094
I1
sVdojk82o
p1095
I2
sVd8eut4o
p1096
I1
sVcz5gaoq
p1097
I1
sVdfateyw
p1098
I1
sVdb40q1h
p1099
I1
sVdh3wm2y
p1100
I1
sVd0oaciw
p1101
I1
sVcz2mgn0
p1102
I1
sVdbl9azh
p1103
I1
sVdc8zcan
p1104
I1
sVdj77w11
p1105
I1
sVd18tlqh
p1106
I1
sVd04fl7t
p1107
I1
sVdbms0yb
p1108
I1
sVdpaqicv
p1109
I1
sVd1g1phh
p1110
I1
sVdopxl0t
p1111
I1
sVdbidfcf
p1112
I1
sVdag8nfy
p1113
I1
sVde6pw91
p1114
I2
sVdb6rtb0
p1115
I1
sVdf0wbw6
p1116
I2
sVdn2n69g
p1117
I1
sVd1vq3dh
p1118
I2
sVd2kil51
p1119
I4
sVdgxcm1e
p1120
I1
sVddni2gn
p1121
I1
sVd95m3d0
p1122
I1
sVd0ejzd8
p1123
I2
sVd7v11su
p1124
I1
sVdnedi81
p1125
I1
sVdio3oao
p1126
I1
sVd66jlqo
p1127
I1
sVdqm94kh
p1128
I1
sVdr9bx4r
p1129
I1
sVd3l3h9m
p1130
I1
sVdhrbpfg
p1131
I1
sVd8m20yl
p1132
I1
sVd1g3dv9
p1133
I1
sVdfpa5vi
p1134
I1
sVd9cls5z
p1135
I1
sVczz80zj
p1136
I1
sVcyu58zz
p1137
I2
sVdpg4s24
p1138
I1
sVdf4lk5n
p1139
I1
sVd1wr3ee
p1140
I5
sVdgjd8r8
p1141
I1
sVd1kwkhs
p1142
I1
sVdmm3ssi
p1143
I1
sVdazgv6k
p1144
I1
sVdf46l2v
p1145
I1
sVd09n42p
p1146
I1
sVd0krz48
p1147
I5
sVd567k4h
p1148
I1
sVcyzz68e
p1149
I1
sVddpgfvh
p1150
I1
sVd7273bw
p1151
I1
sVczb51cf
p1152
I1
sVdohnygp
p1153
I3
sVdid77m4
p1154
I1
sVdeb9bip
p1155
I1
sVdft1rsa
p1156
I1
sVd12kxfe
p1157
I1
sVd61rgtt
p1158
I1
sVdjpk2ze
p1159
I1
sVder52ob
p1160
I1
sVd7uo5de
p1161
I1
sVd8w32rk
p1162
I1
sVdaie7tp
p1163
I1
sVdrwnqwf
p1164
I2
sVdt7hw1c
p1165
I1
sVdbwjssg
p1166
I1
sVdd9hhva
p1167
I3
sVdkeqq15
p1168
I3
sVdg3gpzl
p1169
I1
sVdpb058d
p1170
I1
sVdflygqb
p1171
I1
sVdk30a2f
p1172
I3
sVdqco23t
p1173
I1
sVdk2zz5a
p1174
I1
sVdpv9gl9
p1175
I1
sVdrczsfu
p1176
I1
sVd8ffgaq
p1177
I1
sVd1qrjlv
p1178
I1
sVdjrqj5w
p1179
I1
sVdsxbbdn
p1180
I1
sVd7smm1v
p1181
I1
sVd1f53it
p1182
I4
sVdgac88w
p1183
I2
sVd49z3qn
p1184
I1
sVdis6pmr
p1185
I1
sVdkbknt2
p1186
I1
sVdc0tyaj
p1187
I1
sVdmzt15q
p1188
I3
sVdk96z53
p1189
I1
sVd4pfhkn
p1190
I1
sVdjadjn8
p1191
I2
sVdie7ore
p1192
I1
sVd2bdeh0
p1193
I1
sVcyl0va1
p1194
I1
sVd9qpy8m
p1195
I1
sVd9cr9t8
p1196
I1
sVd7rklrb
p1197
I1
sVd97ay9o
p1198
I4
sVd7jnwsf
p1199
I1
sVczt5bhq
p1200
I1
sVdoswfbd
p1201
I1
sVd774rss
p1202
I1
sVd9ngeox
p1203
I1
sVdtgdgqv
p1204
I1
sVdmur5ec
p1205
I1
sVd048r4f
p1206
I1
sVdbcy03x
p1207
I1
sVd9vk4rx
p1208
I2
sVdi4ytol
p1209
I2
sVdd7n8ud
p1210
I1
sVd8l9poy
p1211
I1
sVd63vcfc
p1212
I5
sVdt0cxqk
p1213
I1
sVczm9pou
p1214
I2
sVdg7dpfb
p1215
I3
sVdfsvb44
p1216
I1
sVd3202e0
p1217
I1
sVdjx2bl1
p1218
I2
sVdmuf6ew
p1219
I1
sVdh7qyyc
p1220
I1
sVdszh4eu
p1221
I2
sVdffmwae
p1222
I1
sVcz9w787
p1223
I1
sVdheqbo3
p1224
I1
sVdkhe8qw
p1225
I1
sVd1j4mk0
p1226
I1
sVd87r91s
p1227
I2
sVdgrjk5g
p1228
I2
sVd4xys4d
p1229
I1
sVdblbowh
p1230
I1
sVdtcd5l2
p1231
I1
sVdseqwc6
p1232
I1
sVdchkfna
p1233
I1
sVdscpxrz
p1234
I1
sVd0yzphe
p1235
I1
sVd341jvy
p1236
I1
sVdhx5bon
p1237
I1
sVdp11dqg
p1238
I1
sVd3vceo8
p1239
I1
sVd7swzzj
p1240
I1
sVczx5zbk
p1241
I1
sVdkntml7
p1242
I3
sVd8sx2k5
p1243
I1
sVd2a1j0w
p1244
I3
sVdro94ih
p1245
I1
sVdrh7xkv
p1246
I1
sVde2clfy
p1247
I1
sVdn86vv4
p1248
I1
sVcyxmfno
p1249
I2
sVd30by08
p1250
I1
sVdsgir7j
p1251
I1
sVdekeapu
p1252
I1
sVd7k34jc
p1253
I1
sVd5xyc8f
p1254
I1
sVd37tdn0
p1255
I1
sVdpy5cs7
p1256
I1
sVdjkneg6
p1257
I1
sVdayaz3u
p1258
I1
sVdge394g
p1259
I1
sVd8k4ahw
p1260
I2
sVd13c240
p1261
I1
sVd19rjx0
p1262
I1
sVd45w6vo
p1263
I2
sVdoxzpmm
p1264
I1
sVdklvdv3
p1265
I1
sVdmh34vx
p1266
I2
sVdeappnk
p1267
I1
sVdk3qbfo
p1268
I1
sVdcjzv8y
p1269
I1
sVcyq20ts
p1270
I1
sVd5axyp2
p1271
I1
sVdcdmro2
p1272
I1
sVdk5uqvo
p1273
I2
sVd5uqfau
p1274
I1
sVd3ge1gm
p1275
I1
sVdc4d617
p1276
I1
sVd2a6ken
p1277
I1
sVd6xdeey
p1278
I1
sVd04vdpj
p1279
I1
sVdrkrg4y
p1280
I1
sVdjc4ouw
p1281
I1
sVd161uhm
p1282
I1
sVczrhbxl
p1283
I1
sVdbjzbk9
p1284
I1
sVd5cvpx1
p1285
I1
sVcyxtie4
p1286
I1
sVdibjq6m
p1287
I1
sVczy1lr3
p1288
I1
sVdrxym8g
p1289
I1
sVdck6w4r
p1290
I1
sVdkeq5ug
p1291
I1
sVdg26cms
p1292
I1
sVdrul51z
p1293
I1
sVd8fggpm
p1294
I1
sVdertjfx
p1295
I1
sVd3xtkxl
p1296
I1
sVd1jplb6
p1297
I1
sVdgs2rxj
p1298
I1
sVdspv3hr
p1299
I1
sVdgz7ygf
p1300
I1
sVdpo43lx
p1301
I1
sVdplqw0p
p1302
I1
sVdf33g54
p1303
I1
sVdd5i8qq
p1304
I1
sVd20kt3t
p1305
I2
sVd5wb64v
p1306
I1
sVd52zwi8
p1307
I1
sVd7rnj0s
p1308
I1
sVderthv0
p1309
I1
sVd49011q
p1310
I1
sVd03vq1m
p1311
I1
sVd1vr8g6
p1312
I1
sVdtaqevv
p1313
I1
sVd9sximl
p1314
I1
sVdd51mnh
p1315
I1
sVdpnjzue
p1316
I1
sVd8sqq02
p1317
I1
sVdn1f52r
p1318
I4
sVd4nr93c
p1319
I1
sVdrkicae
p1320
I1
sVd7ses4z
p1321
I1
sVd1vxdtp
p1322
I1
sVd3urax3
p1323
I1
sVd7ng2uy
p1324
I1
sVd0lhyh1
p1325
I1
sVdiqga0t
p1326
I2
sVd4n161e
p1327
I1
sVdrtnahc
p1328
I1
sVdqbpfis
p1329
I1
sVdatutc3
p1330
I1
sVdkeo3uw
p1331
I1
sVdjb2jk8
p1332
I1
sVdepjp3s
p1333
I1
sVdhhpzve
p1334
I1
sVdnolzni
p1335
I1
sVd5y1gfi
p1336
I1
sVde5fo07
p1337
I1
sVcywtdoo
p1338
I1
sVd7moeip
p1339
I1
sVdrqmio8
p1340
I2
sVd9r5ubu
p1341
I2
sVd64r3ts
p1342
I1
sVdav2ejv
p1343
I2
sVdfenk61
p1344
I1
sVdidi2q4
p1345
I1
sVdikuc7h
p1346
I4
sVczb9uv7
p1347
I1
sVde63in0
p1348
I1
sVdbqfiw3
p1349
I1
sVdbnlip8
p1350
I1
sVd17701t
p1351
I1
sVd3m811c
p1352
I1
sVdf8ss18
p1353
I1
sVd1ro6l2
p1354
I1
sVde16bmn
p1355
I1
sVdi4yweo
p1356
I1
sVd35q9gf
p1357
I2
sVd4nwpau
p1358
I1
sVd6xpho0
p1359
I2
sVdbdig9t
p1360
I1
sVd4o45k0
p1361
I1
sVdnf2cfb
p1362
I2
sVdj9pe52
p1363
I2
sVdnfrauf
p1364
I1
sVdkes3zo
p1365
I1
sVdd54w9z
p1366
I1
sVd1wfsg2
p1367
I2
sVdam7kst
p1368
I1
sVd7re6us
p1369
I2
sVd22a2o5
p1370
I1
sVdenb8u0
p1371
I4
sVdjcnrod
p1372
I1
sVddss72r
p1373
I1
sVdg4iwby
p1374
I1
sVdi5g2ky
p1375
I1
sVd0ejrha
p1376
I2
sVdny2p0b
p1377
I1
sVdifntjw
p1378
I1
sVde8yuvz
p1379
I1
sVdfdu97r
p1380
I1
sVdnufan3
p1381
I1
sVdt8ogj0
p1382
I2
sVd872gda
p1383
I3
sVds3p5wr
p1384
I1
sVdg52qm6
p1385
I1
sVde8tna9
p1386
I1
sVdorqpe9
p1387
I1
sVdq7ahpa
p1388
I1
sVczglfts
p1389
I1
sVd9l2qz5
p1390
I1
sVdbvzje9
p1391
I1
sVd6mf2qw
p1392
I1
sVdgdov8w
p1393
I1
sVd87fi3d
p1394
I1
sVczpwfdu
p1395
I1
sVd2nvjhd
p1396
I1
sVdaglh4i
p1397
I1
sVd3fckqt
p1398
I1
sVdfkep28
p1399
I1
sVd2vjbvg
p1400
I1
sVdn191he
p1401
I2
sVd03axs7
p1402
I1
sVd3zf0sq
p1403
I1
sVd6527tb
p1404
I1
sVd979utw
p1405
I1
sVdbjbtxz
p1406
I1
sVdd5c53w
p1407
I4
sVd2gtueo
p1408
I1
sVdmoqk87
p1409
I1
sVd2gpbwl
p1410
I2
sVd3bamuz
p1411
I1
sVd6w7xje
p1412
I1
sVdst65ak
p1413
I1
sVd2w16gg
p1414
I6
sVddbyfhv
p1415
I1
sVd1lxryt
p1416
I1
sVd2r1rqd
p1417
I1
sVd9jw96y
p1418
I1
sVdjnm8f9
p1419
I1
sVdrk9vqw
p1420
I1
sVcykinpo
p1421
I1
sVd95956u
p1422
I1
sVd4ztqgr
p1423
I1
sVdnckhgx
p1424
I1
sVd8dpwd3
p1425
I2
sVd19hipq
p1426
I1
sVdrwkxrw
p1427
I2
sVdjx2qel
p1428
I1
sVdolarfd
p1429
I1
sVde9asz3
p1430
I1
sVdcta2et
p1431
I1
sVd0l0v3o
p1432
I1
sVd03pqct
p1433
I1
sVdffnp09
p1434
I1
sVdqbhmlf
p1435
I1
sVd0689ea
p1436
I1
sVdiu5gml
p1437
I1
sVd6w8shh
p1438
I1
sVdap8nnz
p1439
I1
sVdaitbd0
p1440
I1
sVd4ppw1w
p1441
I2
sVczfib6v
p1442
I2
sVdftnlpu
p1443
I1
sVdebyn3f
p1444
I1
sVd0qmssa
p1445
I2
sVdry7g1r
p1446
I1
sVcypfqz6
p1447
I1
sVczx1msl
p1448
I2
sVd1iw1r9
p1449
I1
sVdarg6fn
p1450
I1
sVdf0bfvp
p1451
I1
sVd8sxi2a
p1452
I1
sVdctedg7
p1453
I1
sVddljl3r
p1454
I3
sVd7ncvny
p1455
I3
sVdbjekw4
p1456
I1
sVde4wm0o
p1457
I1
sVcylzxp0
p1458
I1
sVdes15wv
p1459
I1
sVd4vj808
p1460
I1
sVdrtmqx6
p1461
I1
sVczcz9ac
p1462
I1
sVd8syqbe
p1463
I1
sVd85x3he
p1464
I1
sVdqms6vi
p1465
I1
sVdoqu48b
p1466
I1
sVdj3iuy4
p1467
I1
sVd1qu22z
p1468
I1
sVdde2prv
p1469
I1
sVddfk9m2
p1470
I1
sVdg41t6n
p1471
I2
sVdav7a35
p1472
I1
sVdhwh7pd
p1473
I1
sVdfqk5ed
p1474
I1
sVd5e8ok2
p1475
I1
sVdhdurae
p1476
I1
sVd2e62cr
p1477
I1
sVdmmfbvw
p1478
I2
sVd6aegss
p1479
I2
sVd0t0o8l
p1480
I1
sVd20cdgx
p1481
I1
sVczi8maq
p1482
I1
sVd6ozlxn
p1483
I1
sVd1fhn7j
p1484
I1
sVdjesknl
p1485
I1
sVd3kwg5j
p1486
I1
sVdcl1dhf
p1487
I1
sVd5u2y7g
p1488
I1
sVdsvqbl9
p1489
I1
sVdijhkmy
p1490
I1
sVd7khopv
p1491
I1
sVcys9l5c
p1492
I1
sVd1173jw
p1493
I3
sVdbjz04a
p1494
I1
sVd5jagkp
p1495
I1
sVd8ll01a
p1496
I1
sVddt3fyn
p1497
I1
sVdjedm7r
p1498
I1
sVdmvlrru
p1499
I1
sVdk0lwpu
p1500
I1
sVdhnqrhb
p1501
I1
sVdjxg44l
p1502
I1
sVd2ud99h
p1503
I2
sVdqoy3w7
p1504
I2
sVd4td9y7
p1505
I1
sVderc9ze
p1506
I1
sVdde7man
p1507
I2
sVd0pur1k
p1508
I2
sVczm4443
p1509
I1
sVdghdwl4
p1510
I3
sVds8kn0m
p1511
I1
sVdnoazqo
p1512
I2
sVd9oergt
p1513
I3
sVd2g6g54
p1514
I2
sVd6ptchg
p1515
I1
sVd2fkszl
p1516
I1
sVdbt5krx
p1517
I2
sVdd9sq86
p1518
I1
sVd93wyyn
p1519
I1
sVdexi3b5
p1520
I2
sVdenn2ko
p1521
I1
sVczacu5t
p1522
I2
sVd15ww19
p1523
I1
sVd1u7rfd
p1524
I2
sVdaq91f8
p1525
I1
sVd04t3bd
p1526
I1
sVddglnqe
p1527
I1
sVcyv0cpk
p1528
I1
sVd13zefh
p1529
I1
sVd7osnvk
p1530
I1
sVcywha8p
p1531
I1
sVd96tcps
p1532
I1
sVdr0uvey
p1533
I1
sVdbw163e
p1534
I1
sVdqixnzd
p1535
I1
sVd0soe3y
p1536
I1
sVdijsjln
p1537
I1
sVdrogv1j
p1538
I1
sVdab2rjz
p1539
I1
sVddjx57h
p1540
I1
sVdh5j5tw
p1541
I1
sVdg1rz6u
p1542
I1
sVd7zy0eu
p1543
I2
sVczdqy8z
p1544
I1
sVdbwiz0k
p1545
I2
sVcyqktdy
p1546
I3
sVdh4rbb7
p1547
I1
sVcyl152v
p1548
I1
sVd27i2gd
p1549
I1
sVdhro92s
p1550
I1
sVd1iq9k7
p1551
I1
sVdd9i1ef
p1552
I1
sVcyvtv5w
p1553
I1
sVczzpy3i
p1554
I1
sVdmhh6aw
p1555
I1
sVdog6bf0
p1556
I1
sVdhy07jz
p1557
I1
sVdcg4ygy
p1558
I1
sVdkhl6iy
p1559
I1
sVd1gqnej
p1560
I1
sVd6m1vmn
p1561
I1
sVdk2owod
p1562
I1
sVdcuhvvi
p1563
I1
sVcyjrddr
p1564
I1
sVdcuxvv1
p1565
I2
sVd6xa3ww
p1566
I1
sVdc2hvcs
p1567
I2
sVcypjp31
p1568
I1
sVczpdnem
p1569
I1
sVczw4h3i
p1570
I1
sVd5yhhg7
p1571
I2
sVd99txb8
p1572
I1
sVd1fq2wi
p1573
I1
sVd3jsjsv
p1574
I2
sVdbk9fed
p1575
I1
sVdrpukwf
p1576
I1
sVdkvk3h9
p1577
I1
sVdb01yji
p1578
I1
sVd78sky9
p1579
I1
sVdeg7bpu
p1580
I1
sVdjgab8r
p1581
I1
sVd03q6mh
p1582
I1
sVdohvpex
p1583
I1
sVdsic3q9
p1584
I1
sVdbo2zyj
p1585
I1
sVd71nmff
p1586
I1
sVdhdtic2
p1587
I1
sVdmfivot
p1588
I1
sVd4nbr3d
p1589
I1
sVcyjgpib
p1590
I1
sVczlnyhe
p1591
I1
sVd18s9hd
p1592
I1
sVdrpyaxi
p1593
I1
sVdopxyfv
p1594
I1
sVd1fr4mz
p1595
I2
sVd4jsxhv
p1596
I2
sVdnhea98
p1597
I1
sVdc0oabc
p1598
I1
sVdpv1v1n
p1599
I1
sVdjaan3v
p1600
I1
sVdr86qke
p1601
I1
sVdh1ntjm
p1602
I1
sVd3vv6hi
p1603
I1
sVd0icfmp
p1604
I1
sVd1l6d6w
p1605
I1
sVd3zlab3
p1606
I1
sVd1fq7op
p1607
I1
sVcz2bhjy
p1608
I1
sVcyxotki
p1609
I1
sVdr07m8x
p1610
I1
sVd6zp3rj
p1611
I1
sVdrt2e8t
p1612
I2
sVdnq79op
p1613
I1
sVdsryumw
p1614
I1
sVczcq5v1
p1615
I1
sVdrgqob2
p1616
I1
sVd7w84nq
p1617
I2
sVdqizsce
p1618
I1
sVd1d98m8
p1619
I1
sVcyvdgl9
p1620
I1
sVdhkrf0f
p1621
I1
sVditgt64
p1622
I1
sVddjzowx
p1623
I1
sVddyqopi
p1624
I1
sVdpozv73
p1625
I2
sVdnyl5h0
p1626
I1
sVdsmdx71
p1627
I1
sVdf76d90
p1628
I1
sVdklcf60
p1629
I2
sVdo77l62
p1630
I1
sVd2zsw28
p1631
I1
sVd3st4mj
p1632
I1
sVddod696
p1633
I1
sVdrtizy8
p1634
I1
sVdkrj60h
p1635
I2
sVdgc3c06
p1636
I1
sVdh4zyhw
p1637
I1
sVd0qp3lw
p1638
I1
sVdroq7ev
p1639
I1
sVdbjgdxn
p1640
I1
sVdr0e80j
p1641
I1
sVddhpy3b
p1642
I1
sVcyn1a4j
p1643
I4
sVd69du1v
p1644
I1
sVdqabxby
p1645
I1
sVd03fhrf
p1646
I1
sVdfn0hpd
p1647
I1
sVdsqwpgu
p1648
I1
sVdejy1ju
p1649
I1
sVd39ew1w
p1650
I1
sVddun64r
p1651
I1
sVczkudwc
p1652
I1
sVdgn7q9s
p1653
I1
sVdheufe0
p1654
I1
sVdjgo4ir
p1655
I1
sVdcgsciu
p1656
I1
sVd65in28
p1657
I1
sVd6k28lf
p1658
I1
sVd7urupu
p1659
I1
sVdpjc4h0
p1660
I1
sVd5o7h6r
p1661
I1
sVd1ya6qv
p1662
I1
sVdd9p9ez
p1663
I2
sVdho9srb
p1664
I1
sVdjdlgwo
p1665
I1
sVdkeys1s
p1666
I1
sVd9s08se
p1667
I1
sVdadnzkt
p1668
I2
sVdhadzz5
p1669
I2
sVds2h6du
p1670
I1
sVd07hxsj
p1671
I1
sVcyv9c83
p1672
I1
sVdkn814b
p1673
I2
sVds2d8e3
p1674
I1
sVd4sgzx5
p1675
I2
sVd7r8rrn
p1676
I1
sVd9ekx4o
p1677
I1
sVdd841ai
p1678
I1
sVdoeadoh
p1679
I1
sVdb4bk3o
p1680
I1
sVd0psmid
p1681
I1
sVd92n0ks
p1682
I2
sVd0iav4t
p1683
I2
sVdaerjzb
p1684
I1
sVdctk6tj
p1685
I1
sVdoi15if
p1686
I1
sVd7pc89e
p1687
I1
sVczp2po8
p1688
I1
sVdedcmh7
p1689
I1
sVd43znb0
p1690
I1
sVdg4m7id
p1691
I1
sVddp04t3
p1692
I1
sVdr82o9a
p1693
I1
sVdtj12zk
p1694
I1
sVddbx1gz
p1695
I5
sVdp87ie6
p1696
I1
sVddz4tvx
p1697
I1
sVd3acmoq
p1698
I1
sVdgpbxn4
p1699
I1
sVd09q0qi
p1700
I1
sVd9l0bq6
p1701
I1
sVdo95b3y
p1702
I1
sVdaizl23
p1703
I1
sVd849sby
p1704
I1
sVdatf35o
p1705
I1
sVd13she5
p1706
I1
sVdo7w9na
p1707
I1
sVdtdu6jm
p1708
I1
sVd7mem1e
p1709
I1
sVdiue6v6
p1710
I1
sVdng6fpd
p1711
I1
sVdn2p9un
p1712
I2
sVdri78eo
p1713
I1
sVd0kora4
p1714
I1
sVdtibafq
p1715
I1
sVd7nryvn
p1716
I1
sVd2384lo
p1717
I1
sVdhrsfym
p1718
I1
sVd95ktgv
p1719
I1
sVd0c184g
p1720
I1
sVd7r40a0
p1721
I1
sVczrmx03
p1722
I1
sVd1imu49
p1723
I2
sVdf1w1fc
p1724
I1
sVd3qwk6q
p1725
I1
sVdnccdib
p1726
I1
sVdh3ojq7
p1727
I1
sVcys7ie3
p1728
I1
sVdjktyk3
p1729
I1
sVd7kdgpz
p1730
I1
sVd12cr13
p1731
I1
sVdsrrhqp
p1732
I1
sVdawqptp
p1733
I1
sVcylk0by
p1734
I1
sVdenmzgg
p1735
I1
sVd7eld19
p1736
I1
sVdi4k3o3
p1737
I1
sVdhvddhr
p1738
I1
sVdp08ugs
p1739
I1
sVd1gi6l5
p1740
I2
sVd9igw6y
p1741
I1
sVdi32l5c
p1742
I1
sVdtiqkq9
p1743
I1
sVd1srdi3
p1744
I1
sVdcr9laj
p1745
I1
sVdgzc504
p1746
I1
sVdjy7cbw
p1747
I1
sVdaa9k7e
p1748
I3
sVd3a7zdk
p1749
I2
sVd1nar4t
p1750
I1
sVcz4l8y4
p1751
I1
sVd5dt9ug
p1752
I1
sVd2tugaa
p1753
I1
sVdd82g7f
p1754
I1
sVd6s1txm
p1755
I1
sVdfvdnoy
p1756
I1
sVdn7jhwi
p1757
I1
sVd7t68ry
p1758
I1
sVd3ide73
p1759
I1
sVd2b1xpw
p1760
I2
sVdp3rzlj
p1761
I1
sVd8xvtl1
p1762
I2
sVd37vt33
p1763
I2
sVd3zrova
p1764
I1
sVczylwfm
p1765
I1
sVdkn8d3u
p1766
I1
sVdk2fyc7
p1767
I1
sVd59b65z
p1768
I1
sVdcby7qj
p1769
I1
sVdkoqjui
p1770
I1
sVd5bbaxu
p1771
I1
sVdacciw4
p1772
I1
sVd9xeoyn
p1773
I1
sVdawqlfa
p1774
I1
sVdfjkbhw
p1775
I1
sVd3ade56
p1776
I1
sVddh39tp
p1777
I1
sVdp0904p
p1778
I1
sVd96pi6l
p1779
I1
sVdfc18n5
p1780
I1
sVdetmqc3
p1781
I1
sVd7vkdum
p1782
I3
sVdp9k8u8
p1783
I1
sVd87s52y
p1784
I1
sVd59rx3z
p1785
I1
sVddlyq2n
p1786
I1
sVdc5b950
p1787
I1
sVdiwxnao
p1788
I1
sVdadym8e
p1789
I2
sVcz93njw
p1790
I1
sVdh9jhc5
p1791
I1
sVdb3cuec
p1792
I1
sVd39zeh5
p1793
I1
sVdb571ic
p1794
I1
sVdt5geeu
p1795
I1
sVdrqpot0
p1796
I1
sVcz7y4qi
p1797
I1
sVdoswimr
p1798
I1
sVdq6byxx
p1799
I1
sVdq8jeyc
p1800
I2
sVdreiqm4
p1801
I1
sVd0oie9t
p1802
I2
sVdqnuh7s
p1803
I1
sVdnb7st3
p1804
I2
sVdb3wog7
p1805
I1
sVd1w6w8g
p1806
I1
sVd6gbaup
p1807
I1
sVdfu69oo
p1808
I1
sVdmzzdaq
p1809
I1
sVdd96e44
p1810
I1
sVdfmrht5
p1811
I1
sVdrphleh
p1812
I1
sVd37o7p5
p1813
I1
sVdqo1g28
p1814
I1
sVdspalux
p1815
I1
sVd4k5pek
p1816
I1
sVdkoybw9
p1817
I1
sVdnguyhx
p1818
I4
sVdmmfon0
p1819
I1
sVd2w2mx1
p1820
I1
sVd47907s
p1821
I1
sVdasch6c
p1822
I1
sVcykyiul
p1823
I1
sVdihj529
p1824
I2
sVd497k5d
p1825
I1
sVde8ez39
p1826
I1
sVdjwp6pu
p1827
I2
sVds7t23n
p1828
I1
sVdh7j728
p1829
I1
sVcyv12f6
p1830
I1
sVczis2iv
p1831
I2
sVd319pl4
p1832
I1
sVd0vt78k
p1833
I1
sVd1arhgc
p1834
I1
sVd2hdmnu
p1835
I1
sVdhevwj8
p1836
I1
sVdcnx4u4
p1837
I3
sVcymeqc0
p1838
I1
sVdkag9w3
p1839
I1
sVdgy4vhw
p1840
I1
sVd8v14q4
p1841
I1
sVd98if36
p1842
I1
sVdh60n5i
p1843
I1
sVd9rg2qs
p1844
I1
sVdgcfyhj
p1845
I1
sVd0lwuky
p1846
I1
sVdkez2ij
p1847
I1
sVdrpa0qr
p1848
I1
sVd3p3mvf
p1849
I1
sVdpmsz42
p1850
I1
sVd1czgq9
p1851
I1
sVd1e92nb
p1852
I1
sVdej3fk1
p1853
I1
sVditrytu
p1854
I1
sVd03m11h
p1855
I1
sVd711o9f
p1856
I1
sVd2q6u75
p1857
I2
sVddsmwwc
p1858
I1
sVd2bsd22
p1859
I1
sVdbsfb4e
p1860
I1
sVd2a2vbm
p1861
I1
sVdgi8x9l
p1862
I2
sVd0wiylh
p1863
I1
sVdch4pm2
p1864
I1
sVd1r02j7
p1865
I1
sVditdena
p1866
I1
sVd8sfc1n
p1867
I1
sVdorl3yt
p1868
I1
sVd73dqvq
p1869
I1
sVczcjvn7
p1870
I2
sVdkfj0ho
p1871
I1
sVczv8rlp
p1872
I1
sVd7pa2ag
p1873
I1
sVd7vv78e
p1874
I1
sVd2alfr9
p1875
I1
sVdqvrod6
p1876
I1
sVdkm3ewe
p1877
I4
sVdddfgnx
p1878
I2
sVdfgwrtx
p1879
I1
sVd0un7r1
p1880
I1
sVd0vy3ex
p1881
I1
sVdadythx
p1882
I1
sVd5mq0iw
p1883
I1
sVczytf5a
p1884
I1
sVdnnwge6
p1885
I1
sVdcwgvs8
p1886
I1
sVdfd755l
p1887
I1
sVd4n1i06
p1888
I1
sVd8spdsq
p1889
I1
sVd19rd6f
p1890
I1
sVd07lm36
p1891
I1
sVdimm77q
p1892
I1
sVd0df8ib
p1893
I1
sVde5s6vr
p1894
I2
sVdqc054j
p1895
I1
sVdek7h06
p1896
I1
sVd0r4e5m
p1897
I1
sVdjf3khy
p1898
I1
sVd77opcg
p1899
I1
sVdeajm4a
p1900
I1
sVd0eqjyt
p1901
I1
sVd0gde3m
p1902
I2
sVdatf38w
p1903
I1
sVdbzx2gk
p1904
I1
sVd7eiifa
p1905
I3
sVczcb95j
p1906
I2
sVd9tkze0
p1907
I2
sVdinpki6
p1908
I1
sVdbz36bt
p1909
I1
sVd31dvrx
p1910
I1
sVdcn193v
p1911
I1
sVd0jjeiv
p1912
I1
sVd3ghxec
p1913
I2
sVd7afrsy
p1914
I3
sVdrbzw0f
p1915
I1
sVczbgu6e
p1916
I1
sVdb3hkmz
p1917
I1
sVdfe7vu9
p1918
I1
sVdcooegr
p1919
I1
sVczs9nxy
p1920
I1
sVdd4fg4d
p1921
I1
sVdkf4msy
p1922
I1
sVdgpqd48
p1923
I1
sVd134hsq
p1924
I1
sVddvvg79
p1925
I1
sVd5jw21w
p1926
I1
sVdkl1634
p1927
I1
sVdcq6zuh
p1928
I1
sVdrtr65l
p1929
I1
sVd7nmmxa
p1930
I2
sVdoe8ddd
p1931
I1
sVdpi7e9w
p1932
I1
sVd4hby7j
p1933
I1
sVdeovbxv
p1934
I2
sVd7rjd6c
p1935
I1
sVdcifwch
p1936
I1
sVcz43347
p1937
I1
sVd3atts5
p1938
I1
sVd8z594v
p1939
I2
sVd7zjiht
p1940
I1
sVdj3qr14
p1941
I1
sVcz1oo6x
p1942
I1
sVczpuypu
p1943
I2
sVcz7iyyw
p1944
I2
sVd5el7p6
p1945
I1
sVd4bsax7
p1946
I1
sVdba506e
p1947
I2
sVd5gpa5o
p1948
I2
sVd74icum
p1949
I1
sVczgo3g2
p1950
I1
sVdtgriyl
p1951
I1
sVdnjd1zy
p1952
I1
sVdi389do
p1953
I1
sVde4qxy9
p1954
I1
sVddvgnq2
p1955
I1
sVdq3aeko
p1956
I2
sVdb21z9h
p1957
I1
sVdp2pfv6
p1958
I2
sVd9rtkav
p1959
I1
sVdrq4crm
p1960
I1
sVdcokvyf
p1961
I1
sVd63cthj
p1962
I1
sVd4xjs4l
p1963
I1
sVd0rj0xs
p1964
I2
sVdi9gxlj
p1965
I1
sVdozuifo
p1966
I1
sVd7l4em1
p1967
I1
sVdo42ck2
p1968
I1
sVd8cvrgo
p1969
I1
sVd8w6tnh
p1970
I1
sVd33s6a8
p1971
I1
sVdmknlrq
p1972
I4
sVcyjv5pm
p1973
I2
sVd29l4rn
p1974
I3
sVd95jj94
p1975
I1
sVdorn0hi
p1976
I1
sVddut4w0
p1977
I2
sVczw2c39
p1978
I1
sVd15val3
p1979
I1
sVd1vgwxv
p1980
I1
sVdbdwxcb
p1981
I1
sVdjwsqn5
p1982
I1
sVdg4vzdf
p1983
I3
sVd7mn5xi
p1984
I1
sVd0cxq18
p1985
I1
sVcypxv0y
p1986
I1
sVd2333di
p1987
I1
sVd2e89nf
p1988
I1
sVd529w80
p1989
I1
sVd36gkt2
p1990
I1
sVdbl62fz
p1991
I1
sVdhs24a3
p1992
I1
sVdk36oeh
p1993
I1
sVcyipk0s
p1994
I1
sVde1q9wu
p1995
I1
sVd4kka95
p1996
I1
sVd5njua2
p1997
I1
sVdr85c43
p1998
I1
sVdcxu6pp
p1999
I1
sVdmov58j
p2000
I1
sVd5fgkzv
p2001
I1
sVdhs63vf
p2002
I1
sVd92iodc
p2003
I1
sVdnhrvke
p2004
I1
sVdf8yxr1
p2005
I1
sVd65io3d
p2006
I1
sVdiku7t5
p2007
I2
sVd9b9ohd
p2008
I1
sVdrc7yvl
p2009
I1
sVded3eko
p2010
I1
sVdrraydj
p2011
I1
sVd7788j3
p2012
I1
sVdt9zeo0
p2013
I1
sVd5mb656
p2014
I1
sVdfqknhv
p2015
I1
sVdebukfk
p2016
I1
sVd1te4eu
p2017
I1
sVdkdxpyw
p2018
I1
sVd0gldz6
p2019
I1
sVd2aaz4k
p2020
I3
sVd9ay7m6
p2021
I1
sVdeqzsmb
p2022
I2
sVcztsesx
p2023
I1
sVddvathx
p2024
I1
sVdmvmzr8
p2025
I1
sVdj4mseh
p2026
I1
sVdny9daj
p2027
I1
sVd2a0r8z
p2028
I1
sVdb41fry
p2029
I1
sVd0luob6
p2030
I1
sVd43q44p
p2031
I3
sVdn8rdn3
p2032
I1
sVdi9zolp
p2033
I1
sVd64zx1p
p2034
I1
sVd7edq3l
p2035
I1
sVdfd6827
p2036
I3
sVdi0w9e6
p2037
I2
sVd3e0txa
p2038
I2
sVd2q4q55
p2039
I1
sVdbga2l2
p2040
I1
sVd3amrfc
p2041
I1
sVdhyiisk
p2042
I3
sVczcuszh
p2043
I1
sVdjzvpw0
p2044
I1
sVd3co9ze
p2045
I4
sVcyi9mj4
p2046
I1
sVcyt9zqx
p2047
I1
sVd0g770z
p2048
I1
sVcyuvd3t
p2049
I1
sVd3orqf8
p2050
I1
sVddoiuqn
p2051
I1
sVdsqdudd
p2052
I1
sVd4nt6ng
p2053
I1
sVdr4cbex
p2054
I1
sVdrn99pf
p2055
I1
sVd60j7ge
p2056
I1
sVdeha09n
p2057
I3
sVdo2hd1r
p2058
I1
sVdf36qry
p2059
I1
sVdgx62sv
p2060
I1
sVdss7twz
p2061
I1
sVdn36o7j
p2062
I1
sVdi8ghg7
p2063
I1
sVdfsb076
p2064
I2
sVdqhxm7d
p2065
I1
sVddhe89v
p2066
I1
sVd8gpdp6
p2067
I2
sVdf2qghc
p2068
I1
sVdgl6m0e
p2069
I1
sVda9u1op
p2070
I4
sVdbm56ni
p2071
I1
sVdkvizu1
p2072
I1
sVdgsvf2y
p2073
I2
sVd5voii1
p2074
I1
sVd33xz0n
p2075
I1
sVdrffzxz
p2076
I2
sVd7t6706
p2077
I1
sVdc84rit
p2078
I3
sVd9fgoxi
p2079
I1
sVdib7igd
p2080
I1
sVczqwsp5
p2081
I1
sVd6x7fjo
p2082
I1
sVdfrtg1v
p2083
I2
sVd6k2a5o
p2084
I1
sVdss8mbf
p2085
I1
sVd5lqh9j
p2086
I1
sVdi7x46z
p2087
I1
sVdgj7sxd
p2088
I1
sVd235wgs
p2089
I1
sVd21wlqp
p2090
I1
sVdn2dpdq
p2091
I1
sVcyhx5sb
p2092
I2
sVdgkchii
p2093
I2
sVd18ng1e
p2094
I1
sVd27o102
p2095
I1
sVd6lz48w
p2096
I1
sVd28jy97
p2097
I1
sVdhdz740
p2098
I1
sVdavpd1f
p2099
I1
sVdmtfra2
p2100
I1
sVcym4lnc
p2101
I1
sVd5wtdx3
p2102
I2
sVdduopok
p2103
I1
sVd3f3cag
p2104
I1
sVdket38e
p2105
I2
sVdno9yhh
p2106
I1
sVcyv9b0t
p2107
I1
sVcysl6nz
p2108
I1
sVdpo7enu
p2109
I1
sVda1scru
p2110
I1
sVdorgn2t
p2111
I1
sVd31a5eb
p2112
I1
sVdp8s8r4
p2113
I1
sVdad2zud
p2114
I1
sVddfvr03
p2115
I1
sVdaevmol
p2116
I1
sVdk523bd
p2117
I1
sVd9lkq9d
p2118
I1
sVczsmpr1
p2119
I1
sVd2au12f
p2120
I1
sVdcx6j8i
p2121
I1
sVddw6d9d
p2122
I1
sVd8dqsya
p2123
I1
sVdi2pqat
p2124
I1
sVd0wmvj5
p2125
I1
sVdojnz3h
p2126
I1
sVd8eq5ge
p2127
I1
sVd6rr0tu
p2128
I1
sVdmwxypl
p2129
I1
sVdk0qu36
p2130
I2
sVd9aw6l6
p2131
I1
sVd66b3op
p2132
I1
sVd6j3ezh
p2133
I1
sVdjil56m
p2134
I1
sVdbkxpf6
p2135
I1
sVd92ult6
p2136
I1
sVcywjw2a
p2137
I1
sVdag33c4
p2138
I1
sVdkbft6a
p2139
I1
sVd5n6458
p2140
I1
sVdduwwkv
p2141
I3
sVds3jpgp
p2142
I2
sVd0q9olu
p2143
I1
sVdpyu1zt
p2144
I1
sVdh4o3j9
p2145
I1
sVdsrfcpr
p2146
I1
sVd1qa87c
p2147
I3
sVd28mw7b
p2148
I1
sVd50e7br
p2149
I1
sVdejydyh
p2150
I1
sVd8c7fby
p2151
I1
sVcysbqfb
p2152
I4
sVd4mnmoa
p2153
I1
sVcykj7dn
p2154
I2
sVd1aljai
p2155
I1
sVd85me57
p2156
I1
sVd9lc07s
p2157
I1
sVdfmx8nb
p2158
I1
sVdiqb92y
p2159
I1
sVd07sq2t
p2160
I1
sVdkeafll
p2161
I1
sVdeffxfr
p2162
I1
sVdeaqgwm
p2163
I1
sVdekeizl
p2164
I1
sVdbgyrxa
p2165
I1
sVdsmu3ar
p2166
I1
sVd8c705w
p2167
I1
sVdepo0k5
p2168
I1
sVdbxhnld
p2169
I1
sVd4fxo7m
p2170
I1
sVdg6ouyu
p2171
I2
sVd7y44ss
p2172
I1
sVdiv7z7q
p2173
I2
sVdeh37mf
p2174
I1
sVd85j1tu
p2175
I1
sVdnmwmah
p2176
I1
sVdemjgiw
p2177
I1
sVdij1edj
p2178
I1
sVdsaxykc
p2179
I1
sVdg7r2ks
p2180
I1
sVdmzmyxv
p2181
I1
sVd0d9a3m
p2182
I1
sVd1cj82l
p2183
I2
sVd1ibm9d
p2184
I1
sVczj23tb
p2185
I1
sVdq9xqgm
p2186
I1
sVdtdb9d8
p2187
I1
sVdfl8ina
p2188
I1
sVd1fsbmz
p2189
I1
sVd03nnbd
p2190
I1
sVdaon9lp
p2191
I1
sVcytnzmg
p2192
I1
sVd7dw6x7
p2193
I1
sVdi7fpf8
p2194
I2
sVd5jc565
p2195
I1
sVdkqwcrg
p2196
I1
sVdc5e298
p2197
I1
sVdapnnua
p2198
I1
sVddbwvgx
p2199
I1
sVd5jvlmi
p2200
I1
sVdfj8fyk
p2201
I1
sVded90x9
p2202
I1
sVd93pt99
p2203
I1
sVdk0hz42
p2204
I1
sVdokzs6n
p2205
I1
sVdookv0t
p2206
I1
sVd22tjb7
p2207
I2
sVd7j9q2u
p2208
I1
sVcymimt9
p2209
I1
sVdsqhymt
p2210
I2
sVds907pd
p2211
I1
sVddd9itn
p2212
I1
sVczh9gpb
p2213
I1
sVd1ndalj
p2214
I1
sVdfk33bh
p2215
I1
sVd7tpxga
p2216
I1
sVd450hg4
p2217
I1
sVd9n355u
p2218
I1
sVdizorie
p2219
I1
sVdmov64k
p2220
I1
sVddtgru3
p2221
I1
sVda1pjef
p2222
I1
sVcyqjuz4
p2223
I1
sVd01k49b
p2224
I1
sVdinxzc6
p2225
I1
sVczc0azi
p2226
I3
sVdbnf7a6
p2227
I1
sVd49z689
p2228
I1
sVcz3s6qg
p2229
I1
sVd9t6gco
p2230
I1
sVd2zwlgz
p2231
I1
sVd9w85x9
p2232
I1
sVdj6wyp3
p2233
I1
sVd6oxo20
p2234
I1
sVdfbogus
p2235
I1
sVdgf4q4s
p2236
I1
sVdmsljlz
p2237
I1
sVd9ltw1x
p2238
I1
sVdf1wfd3
p2239
I1
sVdk9bp1a
p2240
I4
sVd66wjw5
p2241
I1
sVdk2l9jv
p2242
I1
sVd3q1a1a
p2243
I1
sVdmix252
p2244
I7
sVd281q6r
p2245
I1
sVddxx9uy
p2246
I1
sVd1fexke
p2247
I1
sVd4cszxa
p2248
I1
sVdqvylsl
p2249
I1
sVdjv481j
p2250
I1
sVd6sz0bd
p2251
I1
sVdfrj6mu
p2252
I1
sVd3mtiwv
p2253
I1
sVd4k6efw
p2254
I1
sVcz9lxxx
p2255
I1
sVdr38yze
p2256
I1
sVcz33kma
p2257
I2
sVd448mec
p2258
I1
sVd3gc9wb
p2259
I2
sVdema0jx
p2260
I1
sVd3otvx3
p2261
I1
sVd3smaab
p2262
I1
sVdiph9am
p2263
I1
sVdoedrqf
p2264
I1
sVd6m4k3e
p2265
I2
sVczmb2b0
p2266
I1
sVd3u8ktg
p2267
I1
sVd008dmh
p2268
I1
sVd75spyt
p2269
I1
sVdapkblq
p2270
I1
sVd294h0w
p2271
I1
sVd04c8rx
p2272
I1
sVdo6fheo
p2273
I1
sVdqgz5ou
p2274
I1
sVdb1xqip
p2275
I1
sVdrzkkm3
p2276
I1
sVcz1fqqo
p2277
I1
sVd7lbd8e
p2278
I1
sVdnj98ye
p2279
I1
sVd70ny5h
p2280
I1
sVd826atc
p2281
I1
sVd20hmx0
p2282
I2
sVdgfzary
p2283
I1
sVdbxsikf
p2284
I1
sVdkig3qa
p2285
I1
sVdb76yz5
p2286
I2
sVd6cnws0
p2287
I1
sVd77xkqz
p2288
I1
sVdpsawy5
p2289
I1
sVdbjmes2
p2290
I1
sVd8valcv
p2291
I1
sVde6n6st
p2292
I3
sVdb6s3nc
p2293
I1
sVd5ylt2b
p2294
I1
sVdi6dwra
p2295
I1
sVd1hpdab
p2296
I1
sVd3p2dnx
p2297
I1
sVda81pls
p2298
I4
sVdr9uao1
p2299
I1
sVd8qk4fy
p2300
I1
sVdhx25bp
p2301
I1
sVdixoe8q
p2302
I1
sVd4ymt4l
p2303
I1
sVd0hpiqi
p2304
I1
sVd1jhqh5
p2305
I1
sVdhp0ym8
p2306
I1
sVd7t0c97
p2307
I1
sVd7zpfy5
p2308
I1
sVd56ej0i
p2309
I1
sVddpy8kb
p2310
I1
sVd30jgsz
p2311
I1
sVd7trgtl
p2312
I1
sVdgia0x3
p2313
I1
sVd15adqq
p2314
I1
sVd0yd2f6
p2315
I1
sVdkls6y8
p2316
I1
sVdo5evv5
p2317
I1
sVddit11k
p2318
I1
sVd5jhlht
p2319
I1
sVcyky63i
p2320
I1
sVdjxb80s
p2321
I2
sVd6o9wej
p2322
I4
sVcz693z1
p2323
I1
sVd6lvjbv
p2324
I1
sVds30anx
p2325
I1
sVd6xsmhf
p2326
I1
sVdhtslpj
p2327
I1
sVdfa3ei1
p2328
I3
sVds6y9uh
p2329
I1
sVdjwhdlx
p2330
I1
sVdjadqfz
p2331
I2
sVde9hs2a
p2332
I2
sVddwwp3q
p2333
I1
sVcypxkit
p2334
I1
sVd542wfk
p2335
I2
sVdgkrxfg
p2336
I1
sVdoob55p
p2337
I1
sVd5w8d8u
p2338
I1
sVd6e6vry
p2339
I1
sVcywgpeb
p2340
I1
sVdcjzk2f
p2341
I1
sVdfmhdee
p2342
I1
sVdqbrray
p2343
I1
sVdjwpx27
p2344
I1
sVd557v2h
p2345
I1
sVd8ga1a3
p2346
I1
sVd9r83zb
p2347
I1
sVd6wfw6b
p2348
I1
sVdnqznkh
p2349
I1
sVdjx0qzz
p2350
I1
sVd2bjfc0
p2351
I1
sVd4vjokd
p2352
I1
sVcykr153
p2353
I2
sVdswinyk
p2354
I1
sVdb01lxa
p2355
I1
sVd6oc6oi
p2356
I1
sVd303kvt
p2357
I1
sVd6ixf45
p2358
I1
sVdik3ksg
p2359
I1
sVd3t72ci
p2360
I1
sVdcgh142
p2361
I1
sVdcwgepm
p2362
I1
sVd1ggtxp
p2363
I1
sVdffxd2t
p2364
I3
sVdb1z3mn
p2365
I1
sVd59dgr9
p2366
I1
sVdbl0qqz
p2367
I1
sVdirrqbj
p2368
I1
sVdmk40ef
p2369
I2
sVdken791
p2370
I1
sVd5fg01j
p2371
I4
sVdmow8jl
p2372
I1
sVd0d9trk
p2373
I1
sVcyu1s0s
p2374
I1
sVdbaplof
p2375
I1
sVd7p87w1
p2376
I1
sVcz06l5a
p2377
I1
sVdbg3h2n
p2378
I1
sVd5od8qr
p2379
I1
sVd7d9quy
p2380
I1
sVcyz728b
p2381
I1
sVdp7smyy
p2382
I1
sVdqvcq2j
p2383
I1
sVdhbpy3r
p2384
I1
sVdcjx82s
p2385
I2
sVdjvgf49
p2386
I1
sVdqjwb6i
p2387
I1
sVdfdhtkm
p2388
I1
sVd2qeqxo
p2389
I1
sVdc07iuf
p2390
I1
sVdnh1kzv
p2391
I1
sVdhl1wc9
p2392
I1
sVd18cwkg
p2393
I1
sVcz334r3
p2394
I1
sVd6dkcfg
p2395
I1
sVdqeeekc
p2396
I1
sVdre7jno
p2397
I1
sVd849ud5
p2398
I1
sVd36gpeo
p2399
I1
sVdb3thph
p2400
I1
sVd9b1esf
p2401
I1
sVdkk85gz
p2402
I1
sVdqvq1vf
p2403
I1
sVdspyaqn
p2404
I1
sVd2apq6i
p2405
I1
sVdt5ovw1
p2406
I1
sVd9o578e
p2407
I1
sVdn3ifsy
p2408
I1
sVdk9xd9i
p2409
I1
sVd28cqkb
p2410
I1
sVdghukoe
p2411
I2
sVdq85vf6
p2412
I1
sVd8bkqda
p2413
I1
sVczumicy
p2414
I1
sVdsqhl8e
p2415
I1
sVdr0nyn0
p2416
I1
sVd7jaal0
p2417
I2
sVd8x90yi
p2418
I1
sVd04zxh6
p2419
I1
sVd042ai2
p2420
I1
sVdrc7wvo
p2421
I1
sVd8z3tl5
p2422
I1
sVdf7j9om
p2423
I1
sVdn27dut
p2424
I1
sVcyie9py
p2425
I1
sVcz6rwly
p2426
I2
sVdjror55
p2427
I1
sVd1c2b3m
p2428
I1
sVdipzzmi
p2429
I1
sVd74k8us
p2430
I1
sVd49x7kd
p2431
I1
sVd0jk8qd
p2432
I1
sVd888468
p2433
I1
sVdt0defp
p2434
I1
sVd1cwja9
p2435
I1
sVd2z4wej
p2436
I1
sVdh32b5l
p2437
I1
sVdr4al3r
p2438
I1
sVd0fmmzj
p2439
I1
sVd9xya9h
p2440
I1
sVdcmm8d9
p2441
I3
sVd74f02h
p2442
I1
sVdokam4l
p2443
I1
sVcyxavdc
p2444
I1
sVd3y0xoy
p2445
I1
sVd0nsbc3
p2446
I1
sVdjjwsvr
p2447
I2
sVd3loivb
p2448
I1
sVd664ggz
p2449
I1
sVdo77qqm
p2450
I1
sVdseweyc
p2451
I2
sVd9qy033
p2452
I2
sVdkwtrta
p2453
I1
sVd1tepwi
p2454
I1
sVdkkv67j
p2455
I1
sVd8jh9sc
p2456
I1
sVdgdpuou
p2457
I1
sVd5m0lgn
p2458
I1
sVdbpxu5g
p2459
I1
sVdkr06i5
p2460
I1
sVdphlrwy
p2461
I1
sVdexi934
p2462
I2
sVd1smuzq
p2463
I1
sVdbyuamb
p2464
I1
sVdfap7w3
p2465
I1
sVd5umuja
p2466
I1
sVdc7u7hy
p2467
I1
sVdqqbi6b
p2468
I2
sVdd5024p
p2469
I1
sVdia7xwl
p2470
I1
sVdn4e2s3
p2471
I1
sVdp6yzi6
p2472
I1
sVde5fcmg
p2473
I1
sVd95aqmm
p2474
I1
sVds70hkk
p2475
I1
sVdbxxus1
p2476
I1
sVdjos3wf
p2477
I1
sVds5ptln
p2478
I1
sVd0dnksl
p2479
I1
sVdebb41w
p2480
I1
sVdos484v
p2481
I1
sVd02ocv3
p2482
I1
sVde798cf
p2483
I1
sVdq2qy8x
p2484
I2
sVdr5shcv
p2485
I1
sVdfwbvdn
p2486
I1
sVd4cfo5d
p2487
I1
sVcz2uy3e
p2488
I3
sVd6f7og3
p2489
I1
sVd5wu40a
p2490
I1
sVd3qwrxp
p2491
I1
sVd35eof7
p2492
I1
sVdebbrm5
p2493
I1
sVd97gvbl
p2494
I1
sVd5z3vij
p2495
I1
sVda2crjb
p2496
I1
sVcyyi1kr
p2497
I1
sVdjtibif
p2498
I1
sVdcpwosi
p2499
I1
sVdcbh428
p2500
I1
sVd29m40w
p2501
I1
sVd960756
p2502
I2
sVd627llq
p2503
I1
sVd9e0pzk
p2504
I1
sVd6sdbm2
p2505
I1
sVdjx0vk8
p2506
I1
sVdh0vhq2
p2507
I1
sVdpkkoth
p2508
I2
sVdog69la
p2509
I1
sVd8mu0sw
p2510
I1
sVd3rra5v
p2511
I1
sVdmufr60
p2512
I1
sVd890ufj
p2513
I1
sVd0w7o9m
p2514
I1
sVdrzohcf
p2515
I3
sVdr6raec
p2516
I1
sVd8e80q8
p2517
I1
sVdrzkp9s
p2518
I2
sVdrkt5lh
p2519
I3
sVdfa9h4c
p2520
I1
sVd19ethc
p2521
I1
sVdsiv05g
p2522
I1
sVdi3wrol
p2523
I1
sVd1i09ne
p2524
I1
sVcywclrt
p2525
I1
sVdeek70s
p2526
I1
sVd6ftn9z
p2527
I1
sVd2b538t
p2528
I1
sVd5t113q
p2529
I1
sVd1t9tu9
p2530
I1
sVdf64dd5
p2531
I1
sVczhzxn0
p2532
I1
sVcyz5uwc
p2533
I1
sVdamp0lg
p2534
I1
sVdrcab7d
p2535
I2
sVd2lrew4
p2536
I1
sVdou8h6l
p2537
I1
sVdb3wzpy
p2538
I1
sVdrc6mgh
p2539
I1
sVd7qmnwv
p2540
I1
sVd7ac1av
p2541
I2
sVczfsrcf
p2542
I1
sVdhzdzcv
p2543
I3
sVdh3pz1v
p2544
I2
sVd09nxa9
p2545
I1
sVd80kxo0
p2546
I1
sVd6tq2ic
p2547
I2
sVdc85rx9
p2548
I1
sVd2vixem
p2549
I1
sVd57n9v0
p2550
I1
sVd2kyt9c
p2551
I1
sVdjfn2zf
p2552
I1
sVdg13tbv
p2553
I1
sVddg54rr
p2554
I1
sVdk7bv4c
p2555
I1
sVd1l7r9i
p2556
I1
sVdqpwah1
p2557
I1
sVdd9qg70
p2558
I2
sVddunuwt
p2559
I2
sVd2zzimh
p2560
I1
sVdgf01te
p2561
I2
sVdcqy2kq
p2562
I1
sVdfdmq4t
p2563
I1
sVdqmco9v
p2564
I2
sVd211j92
p2565
I1
sVd6ca1bw
p2566
I1
sVd7qli1w
p2567
I1
sVdbrhzfh
p2568
I1
sVdb6efaq
p2569
I1
sVd1vq7al
p2570
I1
sVdipwb83
p2571
I1
sVcyspqro
p2572
I1
sVd45284i
p2573
I1
sVd9n1651
p2574
I1
sVdol2rkj
p2575
I1
sVdrx9x0x
p2576
I1
sVd45lury
p2577
I3
sVd6crmzk
p2578
I1
sVdhyp8t4
p2579
I1
sVd62zus1
p2580
I1
sVd8gvx64
p2581
I2
sVczey60o
p2582
I3
sVdguvnhd
p2583
I1
sVdireuo0
p2584
I1
sVd31af20
p2585
I2
sVdeszzau
p2586
I1
sVdru73i3
p2587
I1
sVd2kx5yy
p2588
I1
sVdtiv1wi
p2589
I1
sVcz86ww0
p2590
I1
sVd0i87pf
p2591
I1
sVd20iotc
p2592
I1
sVdc8liso
p2593
I1
sVdainqvf
p2594
I1
sVd5wkx7i
p2595
I1
sVd2z9bxf
p2596
I2
sVdiawjc5
p2597
I1
sVcz4zp5t
p2598
I1
sVd21598u
p2599
I1
sVdatpv7n
p2600
I1
sVd8by5en
p2601
I1
sVdmtlgn2
p2602
I1
sVcywldqn
p2603
I1
sVdb1z3vg
p2604
I1
sVdcg2vlo
p2605
I1
sVd58nm2p
p2606
I1
sVdmguzz6
p2607
I2
sVcz2kmg0
p2608
I1
sVd1fnirv
p2609
I2
sVdkyulib
p2610
I2
sVd1y0358
p2611
I1
sVdr1cgno
p2612
I1
sVddjq5je
p2613
I1
sVcyjvpm6
p2614
I1
sVdgxlo46
p2615
I1
sVd099e1c
p2616
I1
sVd1n1qy9
p2617
I1
sVd3598f2
p2618
I2
sVdbwcyg5
p2619
I1
sVd7y4duj
p2620
I1
sVd5g8ydx
p2621
I1
sVd1gq69l
p2622
I1
sVcz5eg5v
p2623
I1
sVd3iskum
p2624
I2
sVdfp15q0
p2625
I1
sVdta0391
p2626
I1
sVdd59sr4
p2627
I1
sVd1avlc2
p2628
I1
sVdfi6aeb
p2629
I1
sVdf93037
p2630
I1
sVd1cp6s9
p2631
I1
sVdj7ddnq
p2632
I1
sVd7zrc3i
p2633
I2
sVd5t5gf5
p2634
I2
sVd7vhz61
p2635
I1
sVdorm0js
p2636
I1
sVd27ite3
p2637
I1
sVcytxda7
p2638
I1
sVd1qira1
p2639
I1
sVd6btkjd
p2640
I1
sVdgvdbrc
p2641
I1
sVd1ykp1g
p2642
I1
sVdjamjjf
p2643
I1
sVdp9c3oo
p2644
I1
sVd50j4cb
p2645
I1
sVcyigf45
p2646
I1
sVd54hwya
p2647
I1
sVdihl3zx
p2648
I1
sVd5kqw6x
p2649
I1
sVd5j1qhb
p2650
I3
sVdjjr11w
p2651
I1
sVdngnfbs
p2652
I1
sVdev0o4a
p2653
I1
sVczqw2i0
p2654
I1
sVdo3gtac
p2655
I1
sVdhxhzm8
p2656
I1
sVdc6shmv
p2657
I1
sVdiz0ks5
p2658
I1
sVd5sqo6a
p2659
I1
sVd0slbyh
p2660
I1
sVd7sugvo
p2661
I3
sVdb3o954
p2662
I1
sVdq0ganu
p2663
I1
sVd20ji9m
p2664
I1
sVdknwq0x
p2665
I1
sVd2a914b
p2666
I5
sVd70rm05
p2667
I1
sVd9lacbd
p2668
I1
sVdbxyqrx
p2669
I1
sVdb58yck
p2670
I1
sVdg7c9ov
p2671
I1
sVdcidxbv
p2672
I1
sVcztlg63
p2673
I1
sVd94bg1l
p2674
I1
sVdhadwk8
p2675
I1
sVdppgy2x
p2676
I1
sVdgvg070
p2677
I1
sVde6wym6
p2678
I1
sVcywwczm
p2679
I1
sVdgt348i
p2680
I1
sVczgl4lt
p2681
I1
sVd9wwt4f
p2682
I1
sVd13znb5
p2683
I1
sVdkergxt
p2684
I1
sVdj1aswf
p2685
I1
sVdfpw3q5
p2686
I1
sVd4qsxua
p2687
I1
sVcyu33jp
p2688
I1
sVdni6164
p2689
I1
sVd2becjg
p2690
I1
sVd1vrsvq
p2691
I1
sVdh8hai3
p2692
I1
sVdr55qwk
p2693
I2
sVd7hncbl
p2694
I1
sVdbqi4dq
p2695
I1
sVd2gssdk
p2696
I1
sVdb0hput
p2697
I2
sVdfr0fcg
p2698
I2
sVd027blj
p2699
I1
sVdfq41ev
p2700
I1
sVdhcvtbt
p2701
I1
sVd6xtk9x
p2702
I1
sVdf5wnuk
p2703
I1
sVderb3be
p2704
I1
sVd4bgpi1
p2705
I1
sVdhcgkvc
p2706
I2
sVdrc8v7i
p2707
I1
sVdj3l4nj
p2708
I1
sVdetiu76
p2709
I1
sVdhtat3t
p2710
I1
sVddwn11a
p2711
I1
sVda92d1g
p2712
I1
sVdth5pse
p2713
I1
sVdqjlmca
p2714
I1
sVd9at8ke
p2715
I1
sVdihdipj
p2716
I1
sVd0rh6xm
p2717
I1
sVd1ow1a5
p2718
I1
sVd2qao1s
p2719
I1
sVd05tdlz
p2720
I1
sVd1a5rxr
p2721
I1
sVd48df34
p2722
I1
sVdjxncaj
p2723
I1
sVd39aggc
p2724
I1
sVdqy79t5
p2725
I1
sVdiry3zg
p2726
I2
sVd7j5mkt
p2727
I2
sVd4y7fo8
p2728
I1
sVd7sg5b7
p2729
I1
sVd4jwp0h
p2730
I1
sVd3dzzvv
p2731
I1
sVczew96n
p2732
I1
sVdfrqe6e
p2733
I1
sVdhn5kpj
p2734
I1
sVcz6pr0v
p2735
I2
sVd59sbs7
p2736
I1
sVddm2zgy
p2737
I1
sVdgt3cw0
p2738
I2
sVdausbd9
p2739
I1
sVdcb9emo
p2740
I3
sVdah8vx5
p2741
I1
sVddcudvq
p2742
I2
sVdrbfqtm
p2743
I1
sVdt9z413
p2744
I1
sVd7hjg72
p2745
I1
sVd96cmbg
p2746
I1
sVd0eyccs
p2747
I1
sVdjxzjvb
p2748
I1
sVdaykv17
p2749
I1
sVczeqx65
p2750
I1
sVdnvz7o4
p2751
I2
sVd5m4u5u
p2752
I1
sVdtj4yh0
p2753
I1
sVdexsrl2
p2754
I1
sVdadncmt
p2755
I1
sVddbr51x
p2756
I1
sVdaanl2e
p2757
I1
sVdkoloov
p2758
I1
sVdgkkkyn
p2759
I1
sVdrpxzs6
p2760
I1
sVd9ghgkl
p2761
I1
sVd0ku7lw
p2762
I2
sVdrowagz
p2763
I1
sVdirldae
p2764
I1
sVde19knd
p2765
I1
sVdjflkjw
p2766
I1
sVddhqfca
p2767
I2
sVdi0857w
p2768
I1
sVds6zmg8
p2769
I2
sVd0pewkb
p2770
I1
sVdipghqd
p2771
I1
sVdc5n33y
p2772
I1
sVdpmwimt
p2773
I2
sVd5nwn5a
p2774
I1
sVd2zgqqd
p2775
I1
sVdmpxt1l
p2776
I1
sVdf6aspw
p2777
I1
sVdn8qz2z
p2778
I1
sVde02k9q
p2779
I1
sVcyvcq0x
p2780
I1
s.