(dp0
Vdfp6pgf
p1
I1
sVdrv2yzc
p2
I1
sVdcfi0ug
p3
I1
sVdbtqdxi
p4
I1
sVcyukqqy
p5
I1
sVd09emmm
p6
I1
sVdbjuneu
p7
I2
sVd0ytrmq
p8
I1
sVdcxq16f
p9
I1
sVdhyqid6
p10
I1
sVdrwe2nf
p11
I1
sVd12slrq
p12
I1
sVdr5z8n8
p13
I1
sVdbqadgi
p14
I1
s.