(dp0
Vd14rhxz
p1
I1
sVczfum0b
p2
I1
sVdb73kcl
p3
I1
sVdeu67a3
p4
I1
sVdk6d23n
p5
I1
sVdc46m14
p6
I1
sVdechxeu
p7
I1
sVd8ajg7y
p8
I1
sVcyrmemh
p9
I1
sVdjiqduy
p10
I1
sVdjwdr7l
p11
I1
sVdf5sisk
p12
I1
sVd0je19z
p13
I1
sVd2m1yg1
p14
I1
sVdpf3wnx
p15
I1
sVddpxqdq
p16
I1
sVd04ti37
p17
I1
sVd6idtuq
p18
I1
sVcztmfhb
p19
I1
sVdi0wrq1
p20
I1
sVdjipy9t
p21
I1
sVd3vkqdk
p22
I1
sVdbn9epe
p23
I1
sVdcezjzd
p24
I1
sVdaq13g3
p25
I1
sVdig3whu
p26
I1
sVd4bsh9u
p27
I1
sVds7uzwd
p28
I1
sVdpaxapy
p29
I1
sVdhe1jgj
p30
I1
sVdhp4dc5
p31
I1
sVd03cfkx
p32
I1
sVcyn846j
p33
I1
sVczmazs4
p34
I1
sVdgx5iy6
p35
I1
sVdbkxsh9
p36
I1
sVd2c89lx
p37
I1
sVdr3exdc
p38
I1
sVd38z57l
p39
I1
sVdfxeyy6
p40
I3
sVddlv0yd
p41
I1
sVdnhy84g
p42
I1
sVd0kufmj
p43
I1
sVd11y5ab
p44
I1
sVdjdgik6
p45
I1
sVczve2qm
p46
I1
sVd177nf9
p47
I1
sVd11l4uv
p48
I1
sVdb10otz
p49
I1
sVd4wfecu
p50
I1
sVda19e2y
p51
I2
sVdim9ffg
p52
I1
sVd7l5fyj
p53
I1
sVdgqelgt
p54
I1
sVczuug6t
p55
I1
sVdem1xop
p56
I2
sVdp45owj
p57
I1
sVcyvay9u
p58
I1
sVd0zbtvv
p59
I1
sVde4eqec
p60
I1
sVdt7dqzd
p61
I1
sVdp92k7g
p62
I1
sVd2onbas
p63
I1
sVcz65rgx
p64
I1
sVd1663nq
p65
I1
sVd090xc5
p66
I1
sVdbntepm
p67
I1
sVdgzs35a
p68
I1
sVd4o4sam
p69
I1
sVdggboxw
p70
I1
sVd0h92n7
p71
I1
sVd0tm68p
p72
I1
sVdan1y6f
p73
I1
sVdg6eh24
p74
I2
sVd9d8fse
p75
I1
sVd5imnas
p76
I1
sVd97qnp8
p77
I1
sVdt4frpo
p78
I1
sVdixyzac
p79
I1
sVdgvfyhf
p80
I1
sVd68677t
p81
I1
sVczclg7l
p82
I1
sVddlos7e
p83
I1
sVczk0gux
p84
I1
sVdbedimr
p85
I1
sVdenvvr6
p86
I1
sVdhnyuko
p87
I1
sVd55fb7v
p88
I1
sVd5lnaur
p89
I1
sVdjhbtqd
p90
I1
sVdf0srdh
p91
I1
sVdayvhur
p92
I1
sVd932os0
p93
I1
sVd1nxvsp
p94
I1
sVd835cnz
p95
I1
sVdbipiui
p96
I1
sVdha18vk
p97
I1
sVdajtbns
p98
I1
sVdfxg7f7
p99
I1
sVd01fhfn
p100
I1
sVdgqhwq8
p101
I1
sVdnivnxv
p102
I1
sVd1emphb
p103
I1
sVdau6upg
p104
I1
sVdcc9kr8
p105
I1
sVda2wrvf
p106
I1
sVd229195
p107
I1
sVd9k0dei
p108
I1
sVdgzecvc
p109
I1
sVdfpx9j4
p110
I1
sVczhyqev
p111
I1
sVdh458s7
p112
I1
sVdigfxss
p113
I1
sVd4gqsbl
p114
I1
sVd341wv2
p115
I1
sVdi0ipvb
p116
I1
sVd30lsu9
p117
I1
sVd390uso
p118
I1
sVdihs1dz
p119
I1
sVdeth0d0
p120
I1
sVd970qjq
p121
I1
sVdha92vl
p122
I1
sVd0z0x2t
p123
I1
sVcz7hdee
p124
I1
sVd7ssrqh
p125
I1
sVdet4ecm
p126
I1
sVd5yhkvp
p127
I2
sVcyoqfs8
p128
I1
sVd5d53kn
p129
I1
sVd36ka9e
p130
I1
sVdqajzuq
p131
I1
sVda7nsvu
p132
I1
sVdj59i7n
p133
I1
sVd9q3kta
p134
I1
sVd763hh2
p135
I1
sVdf5co0s
p136
I1
sVdg6j282
p137
I1
sVd2z0yjo
p138
I1
sVd2x8fp4
p139
I1
sVd899okb
p140
I1
sVdoe8pp7
p141
I1
sVd8j7sx4
p142
I1
sVdihtd9l
p143
I1
sVd04ra9a
p144
I2
sVdp04egp
p145
I1
sVdcwxume
p146
I1
sVd821vgn
p147
I1
sVd18fncm
p148
I1
sVd0no9rh
p149
I1
sVd1ikkdg
p150
I1
sVdcwfh9t
p151
I1
sVd79k2a0
p152
I1
sVd7i3wh1
p153
I1
sVd98dow4
p154
I1
sVczd64c7
p155
I1
sVd14rd8q
p156
I1
sVczt4van
p157
I1
sVdqtwtuf
p158
I1
sVdojvi6c
p159
I1
sVde29bqp
p160
I1
sVdhzbg0l
p161
I1
sVdo43kqc
p162
I1
sVdho9uad
p163
I1
sVd985g9o
p164
I1
sVcyp22fc
p165
I1
sVd8k0l70
p166
I1
sVdaagyww
p167
I1
sVdd0wkhj
p168
I1
sVd1kf230
p169
I1
sVd3r1bui
p170
I1
sVd8p5eun
p171
I1
sVd3g3ggv
p172
I1
sVdfjxngu
p173
I1
sVdklzns5
p174
I1
sVd3j3xth
p175
I1
sVdb0qnaj
p176
I1
sVdie8hlk
p177
I1
sVd2gtpw8
p178
I1
sVczl0tx3
p179
I1
sVd0y4yw3
p180
I1
sVd29sn6p
p181
I1
sVdbn28gn
p182
I2
sVdflnpjj
p183
I1
sVdj5p28g
p184
I1
sVd1zp5dj
p185
I1
sVd7q88q6
p186
I1
sVd1vlcxd
p187
I1
sVdbsljgq
p188
I2
sVd6tzczn
p189
I1
sVd93091x
p190
I1
sVd5wov5f
p191
I1
sVdekusxf
p192
I1
sVd1epuxf
p193
I1
sVczmaci4
p194
I1
sVde420dc
p195
I1
sVd2ph42j
p196
I1
sVdicoerl
p197
I1
sVdet6o10
p198
I1
sVdg62m64
p199
I1
sVdkao9qd
p200
I1
sVd23li3v
p201
I1
sVdguhaf6
p202
I1
sVd0yfwgp
p203
I1
sVd0bh55i
p204
I1
sVdj8ib64
p205
I1
sVd9k9jjt
p206
I1
sVdhf0kw1
p207
I1
sVdo1hgeu
p208
I1
sVd8jg1a2
p209
I1
sVdhxmnf8
p210
I1
sVd1721pf
p211
I1
sVczm8bnz
p212
I1
sVdh2mcfo
p213
I1
sVd6e0j8f
p214
I1
sVdg47saz
p215
I1
sVcytc1wi
p216
I1
sVdf99q5o
p217
I1
sVde0fz46
p218
I1
sVd669rmv
p219
I1
sVd7jzqa6
p220
I1
sVditss9s
p221
I1
sVdqo7qmp
p222
I1
sVdjhygjs
p223
I1
sVd5dr5ax
p224
I1
sVd7f88t9
p225
I1
sVdo5t79j
p226
I1
sVdh04f9z
p227
I1
sVdjzsfgw
p228
I1
sVcznbf10
p229
I1
sVdfbwdvl
p230
I2
sVdimh1m2
p231
I1
sVdkdukkc
p232
I1
sVddi69ch
p233
I1
sVd2igw6f
p234
I1
sVdelk5yw
p235
I1
sVcz98mbc
p236
I1
sVdi3u9hq
p237
I1
sVczztfzt
p238
I1
sVdoxwnkm
p239
I1
sVd7q6l9h
p240
I1
sVd0ypruk
p241
I1
sVdekageo
p242
I1
sVdgr0y7q
p243
I1
sVd5ioouz
p244
I1
sVczymvwl
p245
I1
sVdmva4dy
p246
I1
sVd463wck
p247
I1
sVde2kqob
p248
I1
sVdk4cr6o
p249
I1
sVd5j7ji2
p250
I1
sVdh442oi
p251
I1
sVczkbr6y
p252
I1
sVd9bg8ta
p253
I1
sVd1zfs82
p254
I1
sVdhc5vzt
p255
I1
sVdqwnolz
p256
I1
sVd7s6pv3
p257
I1
sVdrz0h1w
p258
I1
sVdc70j3o
p259
I1
sVdhjokr6
p260
I1
sVdqoy15x
p261
I1
sVd54s44f
p262
I1
sVdbrnxu0
p263
I1
sVdfcph3p
p264
I1
sVdgw35ti
p265
I1
sVd7kzfzf
p266
I2
sVdbbot74
p267
I1
sVcz3gfp4
p268
I1
sVd7fnxel
p269
I2
sVdrxb3i3
p270
I1
sVdmgktp4
p271
I1
sVdjb9gtj
p272
I1
sVd9jbmc1
p273
I1
sVddewan5
p274
I1
sVdjb2r4x
p275
I1
sVd9n0xg3
p276
I1
sVd1qvv3y
p277
I1
sVd94yrnv
p278
I1
sVdcz50b5
p279
I1
sVcyj9omk
p280
I1
sVdhzte12
p281
I1
sVd2bqt1c
p282
I1
sVdj2u6r6
p283
I1
sVdt7dm9m
p284
I1
sVczdulez
p285
I1
sVdi8wjc0
p286
I1
sVdr9i6kv
p287
I1
sVd2tu3jl
p288
I1
sVdd1qnaz
p289
I1
sVd0kyzb5
p290
I1
sVczthbhp
p291
I1
sVd5r8tbq
p292
I1
sVdmkqqcm
p293
I1
sVdjqyy08
p294
I1
sVd8g8n2b
p295
I1
sVd465g8q
p296
I1
sVd014dgc
p297
I1
sVdi47qzj
p298
I1
sVd1952bp
p299
I1
sVd1y6w6g
p300
I1
sVd1aapyo
p301
I2
sVdpyx73e
p302
I1
sVd7dbkas
p303
I1
sVdawnghw
p304
I1
sVd07mwxo
p305
I1
sVdpfs81m
p306
I1
sVd8iwb5a
p307
I1
sVd2xuefi
p308
I1
sVd7ab18h
p309
I1
sVdig21ol
p310
I2
sVdgyg8ju
p311
I1
sVdbprilg
p312
I1
sVcyt0q68
p313
I1
sVd5mpxco
p314
I1
sVdadh2wl
p315
I1
sVd8f0rkt
p316
I1
sVd4ndl1q
p317
I1
sVdgpzlf8
p318
I1
sVd90q32j
p319
I1
sVd20hdol
p320
I1
sVd19hawc
p321
I1
sVd6fcz9d
p322
I1
sVd25t8ka
p323
I1
sVdc2qaxz
p324
I1
sVdgxvmw6
p325
I1
sVdi8ifal
p326
I1
sVdp5i39b
p327
I1
sVdizn8zf
p328
I1
sVcyujcy6
p329
I1
sVdiqe95p
p330
I1
sVdg79n0q
p331
I1
sVd7799zf
p332
I1
sVdfwm4vl
p333
I1
sVdjgs9fi
p334
I1
sVcypny6j
p335
I1
sVdgau7rt
p336
I1
sVdgqzqas
p337
I1
sVdd1wl51
p338
I1
sVdjghzqv
p339
I1
sVddja7ib
p340
I1
sVdcweuz5
p341
I1
sVdrpl3is
p342
I1
sVd5gm164
p343
I1
sVd9jtet9
p344
I1
sVd0n2eth
p345
I1
sVczhfbt0
p346
I1
sVdcdh05r
p347
I1
sVdqc2vcb
p348
I1
sVdccnt53
p349
I2
sVdp92hsc
p350
I1
sVd0y4aww
p351
I1
sVddjds4y
p352
I1
sVd78cffp
p353
I1
sVdph49r2
p354
I1
sVcykynfk
p355
I1
sVd3hykcs
p356
I1
sVd7034vy
p357
I1
sVddczfoq
p358
I1
sVd8jfsfd
p359
I1
sVdeptj7j
p360
I1
sVdsfj58m
p361
I1
sVdhor1nz
p362
I1
sVd7wqki0
p363
I1
sVd10fuj3
p364
I1
sVdfe4iiw
p365
I2
sVdr8zjgt
p366
I1
sVdencid8
p367
I1
sVdprgw4k
p368
I1
sVdmt5yoj
p369
I1
sVdhz5hkv
p370
I1
sVdf5vo2t
p371
I1
sVdjgaena
p372
I1
sVdd18762
p373
I1
sVddojexa
p374
I1
sVd5hxjl8
p375
I1
sVd14wu7b
p376
I1
sVde6shr5
p377
I1
sVdt7cyj7
p378
I1
sVcz9vijx
p379
I1
sVd9ur83u
p380
I1
sVd2qc4rc
p381
I1
sVd54lnc0
p382
I1
sVdh5iqek
p383
I1
sVdjpw33p
p384
I1
sVdctb9wl
p385
I1
sVdmm31zf
p386
I1
sVdmyx2vv
p387
I1
sVczaa8im
p388
I1
sVda0r97b
p389
I1
sVd9k62cg
p390
I1
sVdal6em6
p391
I1
sVd195wyn
p392
I1
sVczjyymv
p393
I1
sVdgf72bu
p394
I1
sVczrxuyd
p395
I1
sVd1hzhnc
p396
I1
sVd2l0j9p
p397
I1
sVdc8xngw
p398
I1
sVczwf16o
p399
I1
sVd0ebgxn
p400
I1
sVdk1gxom
p401
I1
sVddh7xs2
p402
I1
sVcz9ukb1
p403
I1
sVdaek6uz
p404
I1
sVd25im42
p405
I3
sVd726e79
p406
I1
sVdap1ajv
p407
I1
sVd9atlz7
p408
I1
sVcyyfhqn
p409
I1
sVd2igy9y
p410
I1
sVdc5ev8w
p411
I1
sVd5srk4e
p412
I1
sVd841tjk
p413
I1
sVdgt8ywe
p414
I1
sVdmutt49
p415
I1
sVd7bw9d4
p416
I1
sVdk1yrtu
p417
I1
sVczoelq8
p418
I1
sVdic1ecr
p419
I1
sVcz7qre0
p420
I1
sVd03vf5y
p421
I1
sVdggmipt
p422
I1
sVd9kkkh8
p423
I1
sVcz7yrk8
p424
I1
sVd2xe7fy
p425
I1
sVd5t1okr
p426
I1
sVdkned01
p427
I1
sVdh0wn50
p428
I1
sVdctbtrc
p429
I1
sVd16rmgu
p430
I1
sVdf3ds3v
p431
I1
sVcylmova
p432
I1
sVdms3cvv
p433
I1
sVddik637
p434
I1
sVd1ln3cq
p435
I1
sVd2yrowp
p436
I1
sVczqrh30
p437
I1
sVd5cvi13
p438
I1
sVdbipzlq
p439
I1
sVdgnxju4
p440
I1
sVd6hlcb2
p441
I1
sVdi2vivl
p442
I1
sVdhchx4a
p443
I1
sVdr3f349
p444
I1
sVd05t1mc
p445
I1
sVd8vatuw
p446
I1
sVdc68o80
p447
I1
sVd7azsme
p448
I1
sVd4kmhuq
p449
I1
sVcywxkyv
p450
I1
sVdi2rdix
p451
I1
sVdfnmch6
p452
I1
sVcykxa1k
p453
I1
sVdk6l6dx
p454
I1
sVd1btbdz
p455
I1
sVdcg1obm
p456
I1
sVd6kjhmh
p457
I1
sVdc2cad1
p458
I1
sVdbo2g38
p459
I1
sVdb0okog
p460
I1
sVcz3oah5
p461
I1
sVdirxw0s
p462
I1
sVddia9hg
p463
I1
sVdbtm67u
p464
I1
sVd6gb9lr
p465
I1
sVd90rpdq
p466
I1
sVdbgsrsn
p467
I1
sVczpnyn6
p468
I1
sVdskuvr0
p469
I1
sVdmijqmv
p470
I1
sVd3g2re2
p471
I1
sVd7uk058
p472
I1
sVdov4c1y
p473
I1
sVdohjzdj
p474
I1
sVd2ufmun
p475
I1
sVdi6lv37
p476
I1
sVdhe887j
p477
I1
sVdjep3ki
p478
I1
sVd4l0r9c
p479
I2
sVcz6o25m
p480
I1
sVd7llyuu
p481
I1
sVd9aq0on
p482
I1
sVd5u5s5z
p483
I1
sVdrd6nrf
p484
I1
sVdi0s6ez
p485
I1
sVd2ljyxe
p486
I1
sVd6dk2zd
p487
I2
sVcz663ps
p488
I1
sVdgl9v1b
p489
I1
sVdbprmr3
p490
I1
sVczz0g1z
p491
I1
sVdj5zgy6
p492
I1
sVczkm80c
p493
I1
sVdhrpl03
p494
I1
sVdch1agh
p495
I1
sVd1hdz7y
p496
I1
sVd0178rr
p497
I1
sVdjmdgf9
p498
I1
sVdersadu
p499
I1
sVdctfzjs
p500
I1
sVdebf8ls
p501
I1
sVdgv7pen
p502
I1
sVd2aines
p503
I1
sVd44y6q5
p504
I1
sVd96ty7s
p505
I1
sVd36bbsx
p506
I1
sVda9659s
p507
I1
sVdg1e70j
p508
I1
sVd9ramog
p509
I1
sVd99crl5
p510
I1
sVdb5bcwe
p511
I2
sVdb2o1yt
p512
I1
sVdbpbae6
p513
I1
sVd8i1sdz
p514
I1
sVdekzo1s
p515
I1
sVd861whf
p516
I1
sVdjn1b5g
p517
I2
sVdh9h32k
p518
I1
sVdieuxzj
p519
I1
sVczug8ts
p520
I1
sVdpq6uk5
p521
I1
sVdnh0q9x
p522
I1
sVdke35id
p523
I1
sVdcowspf
p524
I1
sVdkfx40k
p525
I1
sVd4ib2gn
p526
I1
sVdb53948
p527
I1
sVdkmr8jf
p528
I1
sVd3ouqrc
p529
I1
sVd2qo4i1
p530
I1
sVdbd4lo4
p531
I1
sVdgkv3sk
p532
I1
sVd0klec8
p533
I1
sVdteqio2
p534
I1
sVczyuyre
p535
I1
sVd5r4b59
p536
I1
sVcz9ta6i
p537
I2
sVdet9y96
p538
I1
sVdqcw0ee
p539
I1
sVczu5h0g
p540
I1
sVd9rmhs2
p541
I1
sVd7uyaxn
p542
I1
sVdjto405
p543
I1
sVdg8z7ul
p544
I1
sVdf1tzih
p545
I1
sVdc902t4
p546
I1
sVdhcss7s
p547
I1
sVdqltioo
p548
I1
sVda9d7rz
p549
I1
sVddv0ljo
p550
I1
sVdkniahi
p551
I1
sVd0fn7us
p552
I1
sVdb0zxyl
p553
I1
sVd45x4be
p554
I1
sVd8lq3s3
p555
I1
sVdgdxdbz
p556
I1
sVd3ftpfs
p557
I1
sVdbb2an3
p558
I1
sVdjwe91u
p559
I1
sVd0ap6c5
p560
I1
sVdjm0fiq
p561
I1
sVdi6q3fe
p562
I1
sVdavz1ru
p563
I2
sVdb5e476
p564
I1
sVcynf05v
p565
I1
sVdijnwy7
p566
I1
sVdpyderf
p567
I1
sVdf8p12g
p568
I1
sVdd2jzcy
p569
I2
sVd9o6frc
p570
I1
sVdbj1fr9
p571
I1
sVcz3xffu
p572
I1
sVdpynhc6
p573
I1
sVd0lwhc9
p574
I1
sVdd0migg
p575
I1
sVd6wwma5
p576
I1
sVdipm139
p577
I1
sVd82guuz
p578
I1
sVdc2t69k
p579
I1
sVd3e2f5i
p580
I1
sVd84grvn
p581
I1
sVd992c8n
p582
I1
sVdsxmvzz
p583
I3
sVcz5ivcr
p584
I1
sVd0lyefl
p585
I1
sVdagvd8q
p586
I1
sVdbhdd1p
p587
I1
sVczw856l
p588
I1
sVdd4nqb1
p589
I1
sVdf7oths
p590
I1
sVderf6e0
p591
I2
sVd9lc8hj
p592
I1
sVd3994cw
p593
I1
sVd509qat
p594
I1
sVdkshovj
p595
I1
sVd4cyv0n
p596
I1
sVdjjflef
p597
I1
sVdqzo0bo
p598
I1
sVddkzgq1
p599
I1
sVdgr7u3g
p600
I1
sVdpyysj7
p601
I1
sVdsru4x7
p602
I1
sVdhy327x
p603
I1
sVd2b0z3n
p604
I1
sVcyj6gxj
p605
I1
sVd1n6bym
p606
I1
sVdaw8l80
p607
I1
sVd39y507
p608
I1
sVdb5gi0v
p609
I2
sVd0gsqtl
p610
I1
sVdd2apr5
p611
I1
sVd7lqnbu
p612
I1
sVdh26h3p
p613
I1
sVdhv8y13
p614
I1
sVczcl10o
p615
I1
sVd9tq6m9
p616
I1
sVdqpixr4
p617
I1
sVdcufsxm
p618
I1
sVdis1c76
p619
I1
sVd1gg76j
p620
I1
sVdgu9u48
p621
I1
sVds6616m
p622
I2
sVd4snyt3
p623
I1
sVd5nqm0t
p624
I1
sVdfqawsv
p625
I1
sVdghtbw8
p626
I1
sVdk0ispj
p627
I2
sVd7fa8ue
p628
I1
sVddwyk90
p629
I1
sVd7066i8
p630
I1
sVdt8md3s
p631
I1
sVd8b2m73
p632
I1
sVd9kqkyf
p633
I1
sVd116wwi
p634
I1
sVdnelwsi
p635
I1
sVdo4xfvi
p636
I1
sVdai99h6
p637
I1
sVdmrsgry
p638
I1
sVdgaydfj
p639
I1
sVdk4z8zc
p640
I1
sVd5o7zyr
p641
I1
sVdi92yaw
p642
I1
sVde0gmmy
p643
I1
sVd7w2403
p644
I1
sVczor21q
p645
I1
sVdac5ger
p646
I1
sVd5otshv
p647
I1
sVdi0lz5r
p648
I1
sVd23u14j
p649
I1
sVdczk8oe
p650
I1
sVdr02o2t
p651
I1
sVd6a34df
p652
I1
sVd2sp9vr
p653
I1
sVdnbbm0x
p654
I1
sVdcs6k3n
p655
I1
sVdqg1lg9
p656
I1
sVdco6esh
p657
I1
sVddi2hiq
p658
I1
sVd8etctb
p659
I1
sVdge2mnv
p660
I1
sVd51q11k
p661
I1
sVdoe1stc
p662
I1
sVdhc4yoy
p663
I1
sVd3mamse
p664
I1
sVdjj8cgg
p665
I1
sVd8n3hp6
p666
I1
sVdfjeulf
p667
I1
sVd8fr7qf
p668
I1
sVdrnirmr
p669
I1
sVd6q4acm
p670
I1
sVd0254rb
p671
I1
sVdd2n99y
p672
I1
sVdhkl4ym
p673
I1
sVd6v9s26
p674
I1
sVd4urffx
p675
I1
sVd4n23mr
p676
I1
sVczf1ap7
p677
I1
sVdk15nqd
p678
I1
sVd62veng
p679
I1
sVdh3yjp8
p680
I1
sVczbtttb
p681
I1
sVdaitsvf
p682
I1
sVddpxbss
p683
I1
sVdjyzruc
p684
I1
sVdqh5af5
p685
I1
sVd1k533t
p686
I1
sVdhys7pc
p687
I1
sVd1ip3ae
p688
I1
sVdo48hbd
p689
I1
sVd3z09xl
p690
I1
sVda68o0a
p691
I1
sVd4nqsg6
p692
I1
sVdrkwwd4
p693
I1
sVd0kg9m2
p694
I1
sVdofqhxl
p695
I1
sVdfa4vvd
p696
I1
sVcyoam8h
p697
I1
sVd91aa4l
p698
I1
sVd3oe8ia
p699
I1
sVdandy9f
p700
I1
sVcz0i6ps
p701
I1
sVcyxnuy6
p702
I1
sVd0kmko6
p703
I1
sVdjhoqjq
p704
I1
sVd26qo4e
p705
I1
sVdjn0r51
p706
I1
sVd6s9ddp
p707
I1
sVdgv06ln
p708
I1
sVdkw30kz
p709
I1
sVdadp97y
p710
I1
sVdhuoyc2
p711
I1
sVd07l69t
p712
I2
sVd8asjb6
p713
I1
sVdr0tjnu
p714
I1
sVd411frp
p715
I1
sVcze42hv
p716
I1
sVd6ujkwc
p717
I1
sVd0org9v
p718
I1
sVd37lepj
p719
I1
sVd46ee0w
p720
I1
sVcznva0u
p721
I1
sVdniclsx
p722
I1
sVcyt8ikf
p723
I1
sVd8rr8w1
p724
I1
sVdep3bkg
p725
I1
sVczgxsta
p726
I1
sVdro37e9
p727
I1
sVd3tn9el
p728
I1
sVcyxb0rn
p729
I1
sVdi3l9wy
p730
I1
sVdjss34g
p731
I1
sVdef4tdb
p732
I1
sVd5wyjh0
p733
I1
sVd9hdu37
p734
I1
sVcykitxg
p735
I1
sVd82m5xh
p736
I1
sVd2qpgi4
p737
I1
sVdb1nhed
p738
I1
sVdol6dxv
p739
I1
sVd7x2hix
p740
I1
sVd15zvoo
p741
I2
sVcz66oyz
p742
I1
sVd9cfboh
p743
I1
sVdebkke4
p744
I1
sVd178wm3
p745
I1
sVd65fzqk
p746
I1
sVd91dl0h
p747
I1
sVdait5w2
p748
I1
sVdijpa1j
p749
I1
sVd8v0zd2
p750
I1
sVdmwwigq
p751
I1
sVd29txv6
p752
I1
sVdr30rk7
p753
I1
sVdqidl2z
p754
I1
sVd5dc8vw
p755
I1
sVdnh3a9j
p756
I1
sVdn82osb
p757
I1
sVd2l13j5
p758
I1
sVdg6lewu
p759
I1
sVda6xw0m
p760
I1
sVdcvvgo3
p761
I1
sVdpj5gx3
p762
I1
sVd8aekfy
p763
I1
sVd8x1c1n
p764
I1
sVdfrociz
p765
I1
sVdf08ckc
p766
I1
sVcyuuk0l
p767
I1
sVdny3ixp
p768
I1
sVczhotpm
p769
I1
sVd6tlj8o
p770
I1
sVd7s2xy4
p771
I1
sVdhhfgsa
p772
I1
sVdo2pca7
p773
I2
sVda195cu
p774
I1
sVd0yl0op
p775
I1
sVd6ahvkc
p776
I1
sVczh4512
p777
I1
sVdad6bkq
p778
I1
sVczggjgt
p779
I1
sVd6u9etg
p780
I1
sVd7uj2js
p781
I1
sVdalvew2
p782
I1
sVd5t5aao
p783
I1
sVdgs4aqq
p784
I1
sVd0u2a20
p785
I1
sVczkbsly
p786
I1
sVdig1jy9
p787
I1
sVczqs105
p788
I1
sVd5rh7uy
p789
I1
sVdc9ltwc
p790
I1
sVd2wtufx
p791
I1
sVdqwmdp2
p792
I1
sVddfpyn0
p793
I1
sVd2hbg2e
p794
I1
sVd5dov81
p795
I1
sVcyiv90p
p796
I1
sVdkive3v
p797
I1
sVd348wnp
p798
I1
sVdek1ow3
p799
I1
sVd5d2b5k
p800
I1
sVd035o3h
p801
I1
sVda19nx1
p802
I1
sVd7yopuf
p803
I1
sVdh548vn
p804
I1
sVd30ce7g
p805
I1
sVd34fwam
p806
I1
sVd90121b
p807
I1
sVdf3vn6j
p808
I1
sVddfssrh
p809
I1
sVd32kfvl
p810
I1
sVdcnu6sf
p811
I1
sVd2sm7b5
p812
I1
sVdfs7cq4
p813
I1
sVdt0iuq1
p814
I1
sVda7ntvg
p815
I1
sVdduxi2q
p816
I1
sVdgkzg7d
p817
I1
sVderiqg6
p818
I1
sVddxypy4
p819
I1
sVdfxj1rt
p820
I1
sVdt4fh7w
p821
I1
sVd3rzyej
p822
I1
sVdsz9td1
p823
I1
sVdg8xhes
p824
I1
sVd5xbuwa
p825
I1
sVd5odhi6
p826
I1
sVdh868lf
p827
I1
sVdnez3fs
p828
I1
sVda4mwxn
p829
I1
sVdk4vm4d
p830
I1
sVdchiecr
p831
I1
sVczimvza
p832
I1
sVdgjsfro
p833
I1
sVdobnhhb
p834
I1
sVd5ncwdj
p835
I1
sVdjbmzb3
p836
I1
sVdaglh4i
p837
I1
sVddhe7x2
p838
I1
sVdafd4iq
p839
I1
sVde699s1
p840
I1
sVd4fu3mw
p841
I1
sVdi4eeyw
p842
I1
sVd4mhi5c
p843
I1
sVd6ivth3
p844
I1
sVczvj0er
p845
I1
sVdg5qnvt
p846
I1
sVdde58y4
p847
I1
sVcz6k7kp
p848
I1
sVd1ovng0
p849
I1
sVdcyblw3
p850
I1
sVdmjt6sw
p851
I1
sVdkdt3h3
p852
I1
sVdpqj6p9
p853
I1
sVd0r0u8y
p854
I1
sVda7vr7b
p855
I1
sVdq9x99s
p856
I1
sVczw14f5
p857
I1
sVd6kh0q1
p858
I1
sVdfgsstg
p859
I1
sVdi9vb71
p860
I1
sVd4k4ota
p861
I1
sVcz85sk2
p862
I1
sVd16xi2v
p863
I1
sVdbgyi04
p864
I1
sVd9l5pot
p865
I1
sVd7e6ghb
p866
I1
sVdb7bn9i
p867
I1
sVd8jdy5o
p868
I1
sVcynqqk8
p869
I1
sVd6iog74
p870
I2
sVdkqi9oo
p871
I1
sVd58f12d
p872
I1
sVd7crbil
p873
I1
sVdd7ga6a
p874
I1
sVdj5n392
p875
I1
sVd47ev83
p876
I1
sVddcr8n1
p877
I1
sVdgejpcx
p878
I1
sVd0ylw1b
p879
I2
sVdcrau2v
p880
I1
sVcyieqhh
p881
I1
sVdg8fr0b
p882
I1
sVdgzkl6y
p883
I1
sVdnk3ebh
p884
I1
sVdelinjn
p885
I1
sVdda3vc4
p886
I1
sVdmek166
p887
I1
sVdbjoii3
p888
I1
sVd69fxjl
p889
I1
sVde0lkdm
p890
I1
sVdhqmqkr
p891
I1
sVdfknp9d
p892
I1
sVdguemca
p893
I1
sVcynr04f
p894
I1
sVd7igr1d
p895
I1
sVd1173jw
p896
I1
sVdqxhxka
p897
I1
sVdivorbx
p898
I2
sVd4ie6y9
p899
I1
sVd24acwv
p900
I1
sVd8lyj0j
p901
I1
sVdi80mes
p902
I1
sVdsvmcbo
p903
I1
sVd9dj3cz
p904
I1
sVdcngksm
p905
I1
sVdamampc
p906
I4
sVdniyf1s
p907
I1
sVd8ejrne
p908
I2
sVdixv1hm
p909
I1
sVdtb63gx
p910
I1
sVcyqcvrj
p911
I1
sVdci081z
p912
I1
sVd1hzvyt
p913
I1
sVd5oqb9r
p914
I1
sVd2gyi5z
p915
I1
sVd1n56ca
p916
I1
sVd15b3sq
p917
I1
sVdns8311
p918
I1
sVdb9tuiy
p919
I1
sVd5uykx8
p920
I1
sVd68nk6f
p921
I2
sVd2lfw2t
p922
I1
sVczffigw
p923
I1
sVdad26mi
p924
I1
sVdosw6bh
p925
I1
sVdmle35j
p926
I1
sVczcq6n2
p927
I1
sVdabnme1
p928
I1
sVd0kq1d2
p929
I1
sVd0hii9c
p930
I1
sVd0cd5tk
p931
I1
sVd2eke0x
p932
I1
sVdqw4o86
p933
I1
sVdqg4j9s
p934
I1
sVd8gqcbx
p935
I2
sVdepygco
p936
I1
sVczm993n
p937
I1
sVdtc3kpw
p938
I1
sVd7nwkn2
p939
I1
sVdcomytx
p940
I1
sVdnkwy99
p941
I1
sVd8yy75b
p942
I1
sVdhsnf26
p943
I1
sVd0ljivv
p944
I1
sVczv7kbr
p945
I1
sVdkf1ng0
p946
I1
sVdk48ecr
p947
I2
sVdsz5ct6
p948
I1
sVdsp340l
p949
I1
sVdaa6v8e
p950
I1
sVd0lfqqb
p951
I1
sVdcummdk
p952
I1
sVd5ov959
p953
I1
sVda3i69v
p954
I1
sVdhja9y5
p955
I1
sVdt3n9bs
p956
I1
sVd9eh1pd
p957
I1
sVd1jr9ae
p958
I1
sVdb8b6qg
p959
I1
sVdkc6m97
p960
I1
sVdk6lwhw
p961
I1
sVdioo8hq
p962
I1
sVdp8qrr1
p963
I1
sVdd6snd8
p964
I2
sVdayr2kg
p965
I1
sVcyw5h15
p966
I1
sVdds63e8
p967
I1
sVdeabaqm
p968
I1
sVddka6pa
p969
I1
sVd5vrv8b
p970
I1
sVcz6wcfy
p971
I1
sVd6hefo0
p972
I1
sVdit0qzd
p973
I1
sVcylq3g7
p974
I1
sVdd9yf2w
p975
I1
sVczyrnhw
p976
I1
sVd02pbu5
p977
I1
sVd01vf9y
p978
I1
sVdawntv6
p979
I1
sVdfe2i33
p980
I1
sVd65wboo
p981
I1
sVderd6ws
p982
I1
sVd0yzt4g
p983
I1
sVdejcapv
p984
I1
sVcz6jeqx
p985
I1
sVda09d5k
p986
I1
sVdmfk6h1
p987
I1
sVd4n89bg
p988
I1
sVdck5p9t
p989
I1
sVdhwzt6p
p990
I1
sVdrtf9s6
p991
I1
sVdb4b4ys
p992
I1
sVd8fe87d
p993
I1
sVdckw7zh
p994
I1
sVdg1eppo
p995
I1
sVdhwlc60
p996
I1
sVdnoc891
p997
I1
sVd438q0b
p998
I1
sVdidu8g6
p999
I1
sVd0uuwh3
p1000
I1
sVdd227tz
p1001
I1
sVd75tri3
p1002
I1
sVd40vf7l
p1003
I1
sVdftzs8m
p1004
I1
sVd9kr1c8
p1005
I1
sVdffqfrj
p1006
I1
sVdcaav6h
p1007
I1
sVd1g767y
p1008
I1
sVdn8bf0c
p1009
I1
sVd0layuq
p1010
I1
sVdgtecf4
p1011
I1
sVd15hoxq
p1012
I1
sVdr8otqo
p1013
I1
sVddugjn6
p1014
I1
sVdft8lbm
p1015
I1
sVdby99jg
p1016
I1
sVd1urtsc
p1017
I1
sVd6g02gw
p1018
I1
sVczhvrng
p1019
I1
sVdmywluk
p1020
I1
sVd8oqrvk
p1021
I1
sVdbkcm1p
p1022
I1
sVdb58hx8
p1023
I1
sVd5yjzo1
p1024
I1
sVdbxt6zx
p1025
I1
sVczrk13m
p1026
I1
sVd1vhzu9
p1027
I2
sVd9oecc6
p1028
I1
sVd3qensb
p1029
I1
sVdaeuhc4
p1030
I1
sVd5tdx7d
p1031
I2
sVd0cf78j
p1032
I1
sVdiur1ud
p1033
I1
sVd78q8xk
p1034
I1
sVdeb463d
p1035
I1
sVddj832t
p1036
I2
sVdgbdqcz
p1037
I1
sVd208nfs
p1038
I2
sVd0zkkd0
p1039
I1
sVcz992pr
p1040
I1
sVd5ksnt5
p1041
I1
sVczzw3ab
p1042
I1
sVdjqaov1
p1043
I1
sVdesbmyd
p1044
I1
sVd54ur34
p1045
I1
sVd3s7jw2
p1046
I1
sVczthldk
p1047
I1
sVdqijq94
p1048
I1
sVd5fmg92
p1049
I1
sVdmyoizm
p1050
I1
sVd317sez
p1051
I1
sVdbapns9
p1052
I1
sVd3ue2j5
p1053
I1
sVd8ay70m
p1054
I1
sVddaa1mg
p1055
I1
sVd8vf2li
p1056
I1
sVd01san8
p1057
I1
sVdi85kfa
p1058
I1
sVdcgy2t2
p1059
I1
sVdb3wnmw
p1060
I1
sVd0ck5am
p1061
I1
sVdn02g9v
p1062
I2
sVda4ftzf
p1063
I1
sVdgroe5a
p1064
I1
sVcyqphgq
p1065
I1
sVd1ajk4n
p1066
I1
sVdgyovfe
p1067
I1
sVddmtjti
p1068
I1
sVd9146i2
p1069
I1
sVdmpibdd
p1070
I1
sVcyxpt0v
p1071
I1
sVdhgmogq
p1072
I1
sVdkxyfnn
p1073
I1
sVd05mm9e
p1074
I1
sVd0u8xsx
p1075
I1
sVdgcluvi
p1076
I1
sVdqeemha
p1077
I1
sVddxhjyh
p1078
I1
sVdo3wip9
p1079
I1
sVdgcoeqx
p1080
I1
sVd6rxa5i
p1081
I1
sVdat5edz
p1082
I1
sVdc46skx
p1083
I1
sVczdrt69
p1084
I1
sVddcrder
p1085
I1
sVdn6t7t0
p1086
I1
sVd43tdyt
p1087
I1
sVczxlut1
p1088
I1
sVdglen0v
p1089
I1
sVdad36d5
p1090
I1
sVd0cngqg
p1091
I1
sVdam8fyt
p1092
I1
sVd2xf9qw
p1093
I1
sVdr4v9hj
p1094
I1
sVd0787nk
p1095
I1
sVdde1fvt
p1096
I1
sVdsqbxws
p1097
I1
sVdfnyloj
p1098
I1
sVd8frhm8
p1099
I1
sVdghaor0
p1100
I1
sVcytwq0t
p1101
I1
sVdomzlfi
p1102
I1
sVdtctm9g
p1103
I1
sVdcyj7pd
p1104
I1
sVdj8vrtj
p1105
I1
sVdfixyv3
p1106
I1
sVd61okik
p1107
I1
sVdhupkkn
p1108
I1
sVd9czian
p1109
I1
sVcz9v6gg
p1110
I1
sVczxqnh4
p1111
I1
sVdg25pza
p1112
I1
sVdi6f34j
p1113
I1
sVdef43gk
p1114
I1
sVdorsxb7
p1115
I1
sVd35i2n9
p1116
I1
sVdii1w4e
p1117
I1
sVd4cd1bb
p1118
I1
sVczk2n2u
p1119
I1
sVdhcdx3y
p1120
I1
sVdnabrg2
p1121
I1
sVdixyyf3
p1122
I1
sVd3bwp6o
p1123
I1
sVd9cbl0h
p1124
I1
sVd4ntxt3
p1125
I1
sVdkcclyk
p1126
I1
sVdjn81cz
p1127
I1
sVd116vzy
p1128
I1
sVd62vqkn
p1129
I1
sVdpej135
p1130
I1
sVd3j1iqb
p1131
I1
sVdcm5gcr
p1132
I2
sVdnb4hnz
p1133
I1
sVdiotagr
p1134
I1
sVcz29ejm
p1135
I1
sVdqhzj1k
p1136
I1
sVd1y51e0
p1137
I1
sVdq0d8tu
p1138
I1
sVczs4e4f
p1139
I1
sVd38owqi
p1140
I2
sVczyjc61
p1141
I1
sVd8lol0w
p1142
I1
sVdc54k8u
p1143
I1
sVdtjkdbn
p1144
I1
sVdidu9pm
p1145
I1
sVdefbvy5
p1146
I1
sVdhyz7xi
p1147
I1
sVdjrcdzq
p1148
I1
sVd3xc2fn
p1149
I1
sVdbcazyo
p1150
I1
sVdftl9ha
p1151
I1
sVddpjgsl
p1152
I1
sVde8u8pw
p1153
I1
sVcz6485s
p1154
I1
sVd5odi81
p1155
I1
sVcziuutu
p1156
I1
sVd779fqi
p1157
I1
sVcz2cefl
p1158
I1
sVdcce8pg
p1159
I1
sVd4lot8p
p1160
I1
sVdhjpsuv
p1161
I1
sVdhk0zcl
p1162
I1
sVdgv6drk
p1163
I1
sVd16xnup
p1164
I2
sVdbbjifa
p1165
I1
sVd277p7z
p1166
I1
sVddifa5j
p1167
I1
sVdk3nkpf
p1168
I1
sVddcs1hm
p1169
I1
sVdh31edb
p1170
I1
sVd19gjiv
p1171
I1
sVd5xovnc
p1172
I1
sVd591o5e
p1173
I1
sVdcx54mi
p1174
I1
sVd54hodf
p1175
I1
sVd38nh54
p1176
I1
sVd2r103c
p1177
I1
sVdc3wsw5
p1178
I3
sVd6fozyr
p1179
I1
sVd0ikkgt
p1180
I1
sVda094bc
p1181
I1
sVd0i3kxg
p1182
I1
sVdhydrc3
p1183
I1
sVdfeidz6
p1184
I1
sVdffn8ku
p1185
I1
sVd7kipdi
p1186
I1
sVd06pse6
p1187
I1
sVdf2tjzm
p1188
I1
sVd8p4ti2
p1189
I1
sVdkrxz2t
p1190
I1
sVdkucj24
p1191
I1
sVdgkexwg
p1192
I1
sVdektcub
p1193
I1
sVdiwknve
p1194
I1
sVd6izr0l
p1195
I1
sVdaku86s
p1196
I1
sVddzlmw1
p1197
I1
sVdeqwt9f
p1198
I1
sVdgaj4eq
p1199
I1
sVd645349
p1200
I1
sVde29hp9
p1201
I1
sVdbwb089
p1202
I1
sVcylxcr7
p1203
I1
sVda66mlq
p1204
I2
sVdtamksc
p1205
I1
sVd0yhmxq
p1206
I1
sVd9ymnfe
p1207
I1
sVdgjhiqr
p1208
I1
sVd3bep85
p1209
I1
sVdt9qaj9
p1210
I2
sVdky2yhe
p1211
I1
sVdfrsnfj
p1212
I1
sVdgke41f
p1213
I1
sVd065b0z
p1214
I1
sVd356lj0
p1215
I1
sVdd455vx
p1216
I1
sVdbew3u8
p1217
I1
sVdhrtm5r
p1218
I1
sVcyv47s4
p1219
I1
sVdkz5rhm
p1220
I1
sVdtbjbb9
p1221
I1
sVdhs7scs
p1222
I1
sVdb3cgtc
p1223
I1
sVdiptapu
p1224
I1
sVdop6lo2
p1225
I1
sVd9youun
p1226
I1
sVdc7edy6
p1227
I1
sVd7tp8gk
p1228
I1
sVczy5apn
p1229
I1
sVd5jyron
p1230
I1
sVcyv69ov
p1231
I1
sVdf1x9g2
p1232
I1
sVdk68pr9
p1233
I3
sVdsy4xr0
p1234
I1
sVdhdtf07
p1235
I1
sVcyk3wn1
p1236
I1
sVdhgz87a
p1237
I1
sVdg85if9
p1238
I1
sVdd0zxyk
p1239
I1
sVdpfcwpt
p1240
I1
sVd3hfdwe
p1241
I1
sVd7echwq
p1242
I2
sVdej4xqs
p1243
I1
sVd5kesvy
p1244
I1
sVd03hd1k
p1245
I1
sVdagdsf4
p1246
I1
sVd1sc6rh
p1247
I1
sVdbnmxri
p1248
I1
sVdf22bam
p1249
I1
sVd2g5z9j
p1250
I1
sVd7v1nsv
p1251
I1
sVdt4gd53
p1252
I1
sVczfxht7
p1253
I1
sVdfsn3ns
p1254
I1
sVd28kyz0
p1255
I1
sVdahxyvq
p1256
I1
sVd7gq834
p1257
I1
sVd90jgd8
p1258
I1
sVdbfitx5
p1259
I1
sVdjh9rs7
p1260
I1
sVd81njxx
p1261
I1
sVdfbcix3
p1262
I1
sVd8eohk1
p1263
I1
sVd7d8p02
p1264
I1
sVd0cgmiu
p1265
I1
sVdc3n08x
p1266
I1
sVd9yu666
p1267
I1
sVdi3tw16
p1268
I3
sVd0ly1lt
p1269
I1
sVdgp09r2
p1270
I1
sVdbd5hbl
p1271
I1
sVdq2wf8k
p1272
I1
sVdjbvigz
p1273
I1
sVdberzwc
p1274
I1
sVdp3qumv
p1275
I1
sVdddm2v4
p1276
I1
sVcyu29c9
p1277
I1
sVd75um0g
p1278
I1
sVdfwnawj
p1279
I1
sVd61ibha
p1280
I1
sVd0s6uc5
p1281
I1
sVdajtn4i
p1282
I1
sVdk91ja5
p1283
I1
sVdgkzr26
p1284
I1
sVdpy64zz
p1285
I1
sVd8nouv1
p1286
I1
sVdihpjb4
p1287
I1
sVd3i424a
p1288
I1
sVdj33pb8
p1289
I1
sVdqk2ekq
p1290
I1
sVd2kt0kt
p1291
I1
sVdemr7zn
p1292
I1
sVd0a0em2
p1293
I1
sVdaaxgkd
p1294
I1
sVd7szrgq
p1295
I1
sVd3rzxmd
p1296
I1
sVcywrp5d
p1297
I1
sVcywx6rw
p1298
I1
sVdblp2im
p1299
I1
sVd5zccn5
p1300
I1
sVdmnaw88
p1301
I1
sVd8c1f7o
p1302
I1
sVd0jxqlf
p1303
I1
sVd05rtl3
p1304
I1
sVczoqaos
p1305
I1
sVdeug0gz
p1306
I1
sVd1s42us
p1307
I1
sVde0w2z1
p1308
I1
sVdrgv0r5
p1309
I1
sVdb5x3fe
p1310
I1
sVdap8y2v
p1311
I1
sVd3nl1gz
p1312
I1
sVd1ql14d
p1313
I1
sVd6yu8qi
p1314
I1
sVdas6070
p1315
I1
sVd77m8cn
p1316
I1
sVd6lzvks
p1317
I1
sVczomyuh
p1318
I2
sVdd57xr7
p1319
I1
sVdebi4n7
p1320
I1
sVddf73a7
p1321
I1
sVcz04x1v
p1322
I1
sVdj0knog
p1323
I1
sVd2yy6sa
p1324
I1
sVdct73ss
p1325
I1
sVdg5eper
p1326
I1
sVd0fy8io
p1327
I1
sVd7lbfc4
p1328
I1
sVd34v4kc
p1329
I1
sVdsmb9rg
p1330
I1
sVdcezwgd
p1331
I1
sVd05m2fj
p1332
I1
sVdbd6wqd
p1333
I1
sVd2fwayu
p1334
I1
sVdsywlic
p1335
I1
sVdj58hsk
p1336
I1
sVczo0mt0
p1337
I1
sVdhj1kam
p1338
I1
sVd9xdwfe
p1339
I1
sVdq4h9ch
p1340
I1
sVczcd7aq
p1341
I1
sVd318zro
p1342
I1
sVcyriiik
p1343
I1
sVdcsvsdm
p1344
I1
sVd39scli
p1345
I1
sVdfljerj
p1346
I1
sVd94s2gu
p1347
I2
sVd40zzmh
p1348
I1
sVcznha1s
p1349
I1
sVd8xaz8i
p1350
I1
sVd8tc6jq
p1351
I1
sVda2pvwz
p1352
I1
sVdp2cqgk
p1353
I1
sVd5zpzyg
p1354
I1
sVd4bk73b
p1355
I1
sVdibmfco
p1356
I1
sVd1c5pvh
p1357
I1
sVdomx4m3
p1358
I1
sVd2m6k3e
p1359
I1
sVdf7z94y
p1360
I1
sVdmg32f4
p1361
I1
sVd3bz16z
p1362
I1
sVcz736kk
p1363
I1
sVd8gpilh
p1364
I1
sVdi3wiy1
p1365
I1
sVd0posn8
p1366
I1
sVdp1nhyo
p1367
I1
sVd235gs9
p1368
I1
sVd0nkqwf
p1369
I1
sVcyj56fr
p1370
I1
sVdrm4vxr
p1371
I1
sVd3r47us
p1372
I1
sVd2snqes
p1373
I2
sVd2liu6q
p1374
I1
sVcztb504
p1375
I1
sVcyuy461
p1376
I1
sVd9zhghq
p1377
I1
sVdembsr1
p1378
I1
sVdh8bun7
p1379
I1
sVd1k4hmg
p1380
I1
sVdjwhdlx
p1381
I1
sVd2071sh
p1382
I1
sVdc6um5h
p1383
I1
sVd01qqlc
p1384
I1
sVdc6hdc8
p1385
I1
sVdpxu0f3
p1386
I1
sVdjv9khf
p1387
I1
sVdepksa2
p1388
I1
sVdmhpp3a
p1389
I1
sVcyvphu7
p1390
I1
sVdqshoh6
p1391
I1
sVdpcyo7b
p1392
I1
sVddvcvgz
p1393
I1
sVd768h1l
p1394
I1
sVddcwrrw
p1395
I1
sVcyj116d
p1396
I1
sVd8vgjb2
p1397
I1
sVcztuwt5
p1398
I1
sVd15lij2
p1399
I1
sVd4d7mdr
p1400
I1
sVdas4xxg
p1401
I1
sVd8p924z
p1402
I1
sVdcfbdwa
p1403
I1
sVdd5cl2i
p1404
I1
sVdp4esol
p1405
I1
sVd4mou5q
p1406
I1
sVd0hj1i6
p1407
I1
sVdnd9bmf
p1408
I1
sVd03vmxh
p1409
I1
sVcz5caco
p1410
I1
sVczd4iy5
p1411
I1
sVd1vtv0f
p1412
I1
sVd3skdo5
p1413
I2
sVczzatui
p1414
I2
sVde8u6a0
p1415
I1
sVd1pum7q
p1416
I1
sVczhzgv4
p1417
I1
sVdneoy2i
p1418
I1
sVdao3xsw
p1419
I1
sVdceak0m
p1420
I1
sVd05mwce
p1421
I1
sVddclz7h
p1422
I1
sVd5aycp1
p1423
I3
sVd7yz0of
p1424
I1
sVcz4f7bu
p1425
I1
sVcywg63u
p1426
I1
sVda65e1v
p1427
I1
sVd8ffzno
p1428
I1
sVddkn5cl
p1429
I1
sVd30d0i8
p1430
I1
sVd0r1tei
p1431
I1
sVdgwvxcs
p1432
I1
sVd39awkt
p1433
I1
sVczfwjrk
p1434
I1
sVdgpbkxp
p1435
I1
sVdmz6aq9
p1436
I1
sVdaojyan
p1437
I1
sVdj409zc
p1438
I1
sVd788bm1
p1439
I1
sVdb8z0tl
p1440
I1
sVdbcdsr7
p1441
I1
sVczo8q36
p1442
I2
sVd4ysnp5
p1443
I1
sVd3vhhl9
p1444
I1
sVdocuv8s
p1445
I1
sVdnejiqp
p1446
I2
sVdehgph7
p1447
I1
sVd313bl0
p1448
I1
sVd3w5z4u
p1449
I1
sVd312svi
p1450
I1
sVd4rcsts
p1451
I2
sVdiay10i
p1452
I1
sVdt7kc9c
p1453
I1
sVczmji7p
p1454
I1
sVdgf4rgy
p1455
I1
sVdal7ax1
p1456
I1
sVds7v62e
p1457
I1
sVd0bq017
p1458
I1
sVd39n64x
p1459
I1
sVd2rb054
p1460
I1
sVd6orzwn
p1461
I1
sVdafow5s
p1462
I1
sVd03mgxk
p1463
I3
sVdiru1rt
p1464
I1
sVdftfxkw
p1465
I1
sVdketiwm
p1466
I1
sVd1cddji
p1467
I1
sVd3f2d0d
p1468
I1
sVddn7y5y
p1469
I1
sVdbog4w3
p1470
I1
sVdggol6c
p1471
I1
sVdh9gsp6
p1472
I2
sVd3b0b0n
p1473
I1
sVd2aobgr
p1474
I1
sVd203gwx
p1475
I2
sVd1rbrt8
p1476
I1
sVdhdyues
p1477
I1
sVdpvfhod
p1478
I1
sVd429a0t
p1479
I1
sVdsnk128
p1480
I1
sVcz5b3bo
p1481
I1
sVddqs69r
p1482
I2
sVdh9d28y
p1483
I1
sVdgjzktg
p1484
I1
sVdc2jg7d
p1485
I1
sVdijql88
p1486
I1
sVdawk73z
p1487
I1
sVdjeoh2w
p1488
I2
sVdbscdhu
p1489
I1
sVdon4qh6
p1490
I1
sVdq6onx7
p1491
I1
sVddwi6po
p1492
I1
sVd39iibt
p1493
I1
sVdkfts7h
p1494
I1
sVd8rzmjh
p1495
I1
sVd8e3if1
p1496
I1
sVdb356wb
p1497
I1
sVd460szm
p1498
I1
sVdje956f
p1499
I1
sVdffpppn
p1500
I1
sVdbe4ocv
p1501
I1
sVda01v44
p1502
I1
sVdkw1ogx
p1503
I1
sVd198j2l
p1504
I1
sVdjdgv60
p1505
I1
sVdnaxpbq
p1506
I1
sVdmen6tz
p1507
I1
sVczp5gqi
p1508
I1
sVdggno1w
p1509
I1
sVdphvirn
p1510
I1
sVd0wno57
p1511
I1
sVdklcjb9
p1512
I1
sVdfv7f8o
p1513
I1
sVd3fe3nk
p1514
I1
sVd1i09ne
p1515
I1
sVdpksgo6
p1516
I1
sVdbriato
p1517
I1
sVd3t47zd
p1518
I1
sVcyornea
p1519
I1
sVda0z05r
p1520
I1
sVdhcz2ew
p1521
I1
sVcznowl3
p1522
I1
sVcyjhsuf
p1523
I1
sVdssqdok
p1524
I1
sVd8qus3l
p1525
I1
sVd8nw99f
p1526
I1
sVd8xkcq8
p1527
I1
sVdqnsxdq
p1528
I1
sVd7h7jzk
p1529
I1
sVdbd633d
p1530
I1
sVdbioc5f
p1531
I1
sVd2kj2ob
p1532
I1
sVdk8mxre
p1533
I1
sVdgdqwwt
p1534
I1
sVdmi41wl
p1535
I1
sVd5illry
p1536
I1
sVdps59dy
p1537
I1
sVczz12x0
p1538
I1
sVd2kd67r
p1539
I1
sVdmh3uyc
p1540
I1
sVdq8z5yp
p1541
I1
sVdnclaa4
p1542
I1
sVdczn90u
p1543
I1
sVdih4pw3
p1544
I1
sVd07ouxg
p1545
I1
sVczjy20d
p1546
I1
sVd15b31p
p1547
I1
sVdjnuk5u
p1548
I1
sVdbbycu0
p1549
I1
sVdqivq5p
p1550
I1
sVd3dqoyf
p1551
I2
sVde4dk0t
p1552
I1
sVd4u9igd
p1553
I1
sVcyqyndg
p1554
I1
sVd7alndw
p1555
I1
sVd0p46j8
p1556
I1
sVdb5g7iu
p1557
I1
sVd8nj3k8
p1558
I1
sVddxzjjp
p1559
I1
sVdbzg13b
p1560
I1
sVdjvpo96
p1561
I1
sVd4h5an1
p1562
I1
sVdkrhn5z
p1563
I1
sVd15dwby
p1564
I1
sVd9ed0ht
p1565
I1
sVda54klp
p1566
I1
sVd3ifzd6
p1567
I1
sVd26328p
p1568
I1
sVcyxdmoe
p1569
I1
sVd7v2pzh
p1570
I1
sVd9f0guq
p1571
I1
sVddi0c5g
p1572
I2
sVd0vbmdw
p1573
I1
sVd7n3hkg
p1574
I1
sVdnn4jse
p1575
I1
sVdtdicve
p1576
I1
sVd6nzqab
p1577
I1
sVczngmw7
p1578
I1
sVd9uijgo
p1579
I1
sVcyyrlj4
p1580
I1
sVcz3080v
p1581
I1
sVdbcngyx
p1582
I1
sVd5b8w1q
p1583
I1
sVddtfx68
p1584
I1
sVdfrr1cl
p1585
I1
sVd6vs88g
p1586
I1
sVdbbdifb
p1587
I1
sVdhx25bp
p1588
I1
sVcyvii53
p1589
I1
sVd9w2xr1
p1590
I1
sVdd2hw9o
p1591
I1
sVddxfy8q
p1592
I1
sVdiyn68h
p1593
I1
sVd8j75b4
p1594
I1
sVd3c7wwx
p1595
I1
sVd5dfzso
p1596
I1
sVdadcqgm
p1597
I1
sVdctbweq
p1598
I1
sVdh4tzza
p1599
I1
sVd3f7r8t
p1600
I1
sVdsb1oe7
p1601
I1
sVd1kfov1
p1602
I1
sVczfh5rj
p1603
I1
sVdfwvnr6
p1604
I1
sVczsko4f
p1605
I1
sVd2f3dai
p1606
I1
sVdd1zcz0
p1607
I1
sVd01khkx
p1608
I1
sVd17fqmf
p1609
I1
sVdph1bhz
p1610
I1
sVdg2hnxy
p1611
I1
sVde7bmv2
p1612
I1
sVd2qhi69
p1613
I1
sVd2ikk1j
p1614
I3
sVdazl7u6
p1615
I1
sVdrh3fdv
p1616
I2
sVdfwi9yy
p1617
I2
sVd6hs1pz
p1618
I1
sVdgkh3xt
p1619
I1
sVd0prr4x
p1620
I1
sVd63xhyz
p1621
I1
sVd56h822
p1622
I1
sVdnvfrmt
p1623
I1
sVcywltpe
p1624
I1
sVdj3pgiy
p1625
I1
sVdq5jcdy
p1626
I1
sVdah89l4
p1627
I1
sVd4qgcz7
p1628
I1
sVd1ikg0c
p1629
I1
sVdbdbuz6
p1630
I1
sVd78smct
p1631
I1
sVdqmkzbx
p1632
I1
sVdag7f7m
p1633
I1
sVd48vvuy
p1634
I1
sVdavajbs
p1635
I1
sVd48jwle
p1636
I1
sVd21ulkn
p1637
I1
sVd1ytypq
p1638
I1
sVdeqx2vo
p1639
I1
sVdbp972e
p1640
I1
sVcykba0f
p1641
I1
sVczjom5n
p1642
I1
sVd2ieja4
p1643
I1
sVdel1ld8
p1644
I1
sVdrt30xy
p1645
I1
sVdizjuo2
p1646
I2
sVdgr7g6s
p1647
I1
sVd3hegr4
p1648
I1
sVdhlewdj
p1649
I1
sVd7ukto3
p1650
I1
sVdhnwwow
p1651
I1
sVdh9cf3i
p1652
I1
sVdhgr382
p1653
I1
sVcztzb92
p1654
I1
sVdesb4g1
p1655
I1
sVd82mrj5
p1656
I1
sVd5cfi4t
p1657
I1
sVd0ivfl9
p1658
I1
sVdheyevb
p1659
I1
sVderdt7r
p1660
I1
sVdfam6it
p1661
I1
sVdkd9zdz
p1662
I1
sVdmzms06
p1663
I1
sVdbw2ovn
p1664
I1
sVczcqqh6
p1665
I1
sVddesxq9
p1666
I1
sVdjajoqg
p1667
I1
sVczbrc9i
p1668
I1
sVcz0vech
p1669
I1
sVd6axd6p
p1670
I1
sVdr5t8d8
p1671
I1
sVd9dup8s
p1672
I1
sVd7jt350
p1673
I1
sVcyv12f6
p1674
I1
sVd1n5pa8
p1675
I1
sVdsp25gp
p1676
I1
sVdo2otbj
p1677
I1
s.