(dp0
Vdguxk9j
p1
I1
sVdkjdgl5
p2
I1
sVczmduez
p3
I1
sVdn7vlre
p4
I1
sVdrd6nrf
p5
I1
sVd691m8p
p6
I1
sVdhbvuav
p7
I1
sVdg5uru5
p8
I1
sVdhhvhyb
p9
I1
sVdbmxauw
p10
I1
sVdsl89hi
p11
I1
sVdcm1gmo
p12
I1
sVd7a9z3j
p13
I1
sVczkbtjn
p14
I1
sVdmz20ew
p15
I1
sVd0uu1ok
p16
I1
sVd2aryic
p17
I2
sVd0m292z
p18
I1
sVczqibug
p19
I1
sVdaq5gfp
p20
I1
sVdfqaybf
p21
I1
sVdk1c0h9
p22
I1
sVdrqbgim
p23
I1
sVdphdwxg
p24
I1
sVd0tf34s
p25
I1
sVdpjqnpc
p26
I1
sVde0o5uh
p27
I1
sVdn0bjwd
p28
I2
sVdi03kmt
p29
I1
sVd8ahmhr
p30
I1
sVdpeze1y
p31
I1
sVd5u5zos
p32
I1
sVcz809nb
p33
I1
sVd0blt3j
p34
I4
sVdfs2ioz
p35
I1
sVdrqn368
p36
I1
sVdqjvvbl
p37
I1
sVdf5nbww
p38
I1
sVd10kbi4
p39
I1
sVd2x31si
p40
I1
sVdext1nu
p41
I1
sVdt0tzz8
p42
I1
sVd90mdvy
p43
I1
sVdth2yrk
p44
I1
sVdca5yc9
p45
I1
sVdav1zp6
p46
I1
sVd1yx022
p47
I1
sVczzw776
p48
I1
sVdd56r1t
p49
I1
sVd048guh
p50
I3
sVd0iikes
p51
I1
sVcz46irm
p52
I1
sVd1q2shw
p53
I1
sVdftkoqm
p54
I1
sVczjgzi6
p55
I1
sVdco7jjv
p56
I1
sVdbcgs9p
p57
I1
sVdabvklt
p58
I1
sVdc5r3ba
p59
I1
sVddi6m4j
p60
I1
sVdc9qjfy
p61
I1
sVdglaa2y
p62
I1
sVczb9ktc
p63
I1
sVder6mcb
p64
I1
sVdhx9swe
p65
I1
sVd1qz3bc
p66
I1
sVdf2qvia
p67
I1
sVdd73m9a
p68
I1
sVddxqtjl
p69
I1
sVdgxpl45
p70
I1
sVd1fzdy7
p71
I2
sVdixli1l
p72
I1
sVdntvlku
p73
I1
sVd2jy2h7
p74
I1
sVdbfgtng
p75
I1
sVdgc9zf2
p76
I1
sVd0cm9ch
p77
I1
sVdanzoa8
p78
I1
sVd5yqtl9
p79
I1
sVcz9wdm9
p80
I1
sVddedeej
p81
I1
sVczocfq7
p82
I1
sVdd9tw6k
p83
I1
sVde62a1i
p84
I1
sVdfwyh6f
p85
I1
sVd0afe8g
p86
I2
sVd9dwl9v
p87
I1
sVdgmz71y
p88
I2
sVdimno83
p89
I1
sVd9r1sxo
p90
I1
sVdev061s
p91
I2
sVd6m46c6
p92
I2
sVdco6ct6
p93
I1
sVddpcfbi
p94
I1
sVdh31576
p95
I1
sVd40ufdc
p96
I1
sVd4982ez
p97
I1
sVdh3n57i
p98
I1
sVdb5we83
p99
I1
sVdcc2n9w
p100
I1
sVd0dvn56
p101
I1
sVdc3t0bu
p102
I2
sVddpxfvk
p103
I1
sVd5n0fvs
p104
I1
sVdku8g9y
p105
I1
sVdcr3oxd
p106
I1
sVdd4tr95
p107
I1
sVd6gwvvt
p108
I1
sVd4b8uhd
p109
I1
sVdi9ssc1
p110
I1
sVd1crhbw
p111
I1
sVdftuefv
p112
I2
sVcyolib3
p113
I1
sVcykf0rv
p114
I1
sVdh43xne
p115
I1
sVd36p4lo
p116
I1
sVdsuw8eb
p117
I1
sVd49lui9
p118
I1
sVd7t1a05
p119
I1
sVd2ri0xf
p120
I1
sVda231sa
p121
I1
sVd7djhkk
p122
I1
sVd8kkpcl
p123
I2
sVd88ccwb
p124
I1
sVdpupot1
p125
I1
sVd8kamzy
p126
I2
sVdk2jpf2
p127
I1
sVd5essti
p128
I1
sVdst5xqr
p129
I1
sVd0aa0nu
p130
I1
sVd0qr3lc
p131
I1
sVd1wad7i
p132
I2
sVdkcjieb
p133
I5
sVd9vwctj
p134
I1
sVd7vl1hf
p135
I1
sVdcspm0e
p136
I1
sVd3bk0dn
p137
I1
sVd1vjv8y
p138
I1
sVdc2rpfr
p139
I1
sVds7cwlk
p140
I1
sVdeb06ft
p141
I1
sVdbzq4ih
p142
I1
sVdjapezj
p143
I1
sVdf8id5w
p144
I1
sVdhby67d
p145
I1
sVcyz2ac2
p146
I1
sVczzzagy
p147
I1
sVcyojfi0
p148
I2
sVdn0nyqe
p149
I2
sVcz6xlog
p150
I2
sVd5z2pd3
p151
I1
sVd4pmsvd
p152
I1
sVd3t3f0q
p153
I1
sVcznsicj
p154
I1
sVd8jbuam
p155
I1
sVdfbjp8a
p156
I1
sVd2p4uj3
p157
I1
sVdo1u5xg
p158
I1
sVds5yv01
p159
I1
sVd3k8u44
p160
I1
sVdayadmp
p161
I1
sVd161p3n
p162
I1
sVd3abu48
p163
I1
sVdje90cg
p164
I1
sVd8cn2a7
p165
I1
sVdmujtll
p166
I1
sVdgxo4vd
p167
I1
sVdcaobom
p168
I1
sVdg3jgct
p169
I1
sVd3b7x41
p170
I1
sVdq31mmy
p171
I1
sVd7p9ssq
p172
I1
sVdd7qto5
p173
I1
sVd7mic8h
p174
I1
sVd3ukz47
p175
I1
sVdbwyayg
p176
I1
sVd4u5qp4
p177
I1
sVd94n68s
p178
I1
sVd2zy93v
p179
I1
sVd821vgn
p180
I1
sVdf3wl6a
p181
I1
sVd4m0oc0
p182
I1
sVd6ajzr7
p183
I1
sVdhguxd0
p184
I1
sVday17hj
p185
I1
sVd857dv0
p186
I1
sVdp060fj
p187
I1
sVczms0tj
p188
I1
sVdh0oohb
p189
I1
sVdt4ylif
p190
I1
sVde63oss
p191
I1
sVdhsjuig
p192
I1
sVdrktaln
p193
I2
sVd1r41i3
p194
I1
sVd467r0v
p195
I1
sVdcy6og9
p196
I2
sVdpoxa5r
p197
I1
sVdngks1x
p198
I1
sVd4qrdym
p199
I1
sVdda0fsr
p200
I1
sVd84i6il
p201
I2
sVd06o2bv
p202
I1
sVd3sp2x8
p203
I1
sVdkoxzp2
p204
I2
sVd7c4vjw
p205
I1
sVd9end18
p206
I1
sVd1tqpcm
p207
I1
sVd5we5x7
p208
I1
sVdkpehi5
p209
I1
sVdfgafdv
p210
I1
sVdkjq07p
p211
I1
sVdk3mblh
p212
I1
sVd5rjqg1
p213
I1
sVd2838xi
p214
I1
sVdjp5owt
p215
I7
sVd2om40u
p216
I1
sVdfs4xih
p217
I1
sVd2trv1s
p218
I1
sVdrxew86
p219
I1
sVdq4o6sb
p220
I1
sVcz8rg3s
p221
I1
sVd19xwqp
p222
I2
sVdocub4r
p223
I1
sVdc1iwcx
p224
I1
sVdoukssx
p225
I1
sVd8ykyob
p226
I1
sVd94z37n
p227
I1
sVds3p3rs
p228
I1
sVd0v335j
p229
I1
sVdkowlfa
p230
I1
sVd19ivsm
p231
I1
sVd4nv4hd
p232
I1
sVd4htp9t
p233
I2
sVczg1xif
p234
I1
sVd8f2tk4
p235
I1
sVdda380z
p236
I1
sVdhxmyni
p237
I1
sVcz6s06f
p238
I1
sVdt5pot4
p239
I1
sVd4btwb2
p240
I1
sVdd3s5ec
p241
I1
sVd4gk1gm
p242
I1
sVdfpzatv
p243
I2
sVdkrwlql
p244
I1
sVdpo12g5
p245
I1
sVdkao9qd
p246
I1
sVd7e7s2z
p247
I1
sVdotltnt
p248
I1
sVd3t9jld
p249
I1
sVd5ytehx
p250
I1
sVd4jfben
p251
I2
sVd1lidvr
p252
I2
sVdsj14ln
p253
I1
sVdkl8hlv
p254
I1
sVczn78z9
p255
I1
sVdrxc5j8
p256
I1
sVdg6dq0l
p257
I1
sVdbeizwy
p258
I1
sVd7jzw5i
p259
I1
sVdjm9kz9
p260
I1
sVdop65kw
p261
I1
sVdn1b6ys
p262
I2
sVd24o64g
p263
I1
sVdmjtyze
p264
I1
sVd3ryovl
p265
I1
sVdmtusfm
p266
I1
sVd00ivcu
p267
I1
sVdqa2lxm
p268
I1
sVdenn2ko
p269
I1
sVd7fchlp
p270
I1
sVdepab6o
p271
I1
sVdeug0gz
p272
I1
sVdt41jss
p273
I1
sVdejzqb7
p274
I1
sVd2g88mt
p275
I1
sVczxdm4t
p276
I1
sVdc91n8b
p277
I1
sVd8rhqvm
p278
I1
sVdqa3pqz
p279
I1
sVdkp979c
p280
I1
sVdsa1np4
p281
I1
sVd2dpaz7
p282
I1
sVdo8gn9l
p283
I1
sVcytup2y
p284
I1
sVd9rcesr
p285
I1
sVczl3zvv
p286
I1
sVde0hjcc
p287
I1
sVdd66rnr
p288
I2
sVdiy1v4g
p289
I2
sVd57c9yi
p290
I1
sVd185228
p291
I1
sVd3fn3ho
p292
I1
sVd6ip3g1
p293
I1
sVdrbrfkn
p294
I1
sVd1kpb4e
p295
I1
sVd4rg728
p296
I1
sVdn9s65a
p297
I2
sVdgotgrj
p298
I1
sVcypi9eu
p299
I1
sVdmk1y6k
p300
I1
sVdb1tss5
p301
I1
sVdhk62yo
p302
I1
sVd20u3l5
p303
I1
sVd0r17ai
p304
I2
sVdf7kdm5
p305
I1
sVd19m1d4
p306
I2
sVdthhp81
p307
I1
sVdg8qpfu
p308
I1
sVd9qe5b1
p309
I1
sVdfmtr88
p310
I1
sVd7d6a4b
p311
I1
sVd23jfst
p312
I1
sVd78r8g6
p313
I1
sVd747a46
p314
I1
sVdd1p7ja
p315
I1
sVcytn00v
p316
I1
sVd62a3fs
p317
I1
sVd1umoqb
p318
I1
sVd1v1jzu
p319
I1
sVd1iswe2
p320
I3
sVd8wffq9
p321
I1
sVdeim8xc
p322
I1
sVdfh0gar
p323
I1
sVczdplbh
p324
I1
sVda0wuyb
p325
I1
sVddeec0p
p326
I1
sVdh0tm0y
p327
I1
sVdcx3rgv
p328
I1
sVdhzr016
p329
I1
sVczoyxtl
p330
I1
sVda31v1h
p331
I1
sVd4zzp02
p332
I1
sVdfx1yck
p333
I2
sVddy9qgq
p334
I1
sVdjrs34r
p335
I1
sVdjemaz9
p336
I1
sVdhxo2v6
p337
I1
sVdksanr7
p338
I1
sVd2c9ka3
p339
I1
sVdt7ivq2
p340
I1
sVczl1mrl
p341
I1
sVdn10tca
p342
I2
sVcyxmge2
p343
I2
sVdjszsij
p344
I1
sVdj9y9j8
p345
I1
sVdd3bmgs
p346
I1
sVd99fy9s
p347
I1
sVdh650vx
p348
I1
sVdp4jt5a
p349
I1
sVdhg695o
p350
I1
sVd0acuyx
p351
I1
sVdav5bon
p352
I1
sVdb6np9y
p353
I1
sVd4e6f7g
p354
I1
sVd4v3mvf
p355
I1
sVd4upr2s
p356
I1
sVd87kwj2
p357
I1
sVd0mf7jg
p358
I2
sVdf7we6w
p359
I1
sVd19vjwp
p360
I1
sVdi0xdd7
p361
I1
sVdej1wtl
p362
I1
sVd465g8q
p363
I1
sVcytbhma
p364
I1
sVds008j8
p365
I1
sVdnxs2vm
p366
I1
sVdfnnhgz
p367
I1
sVddfl23a
p368
I1
sVde30hf7
p369
I1
sVdi47qzj
p370
I1
sVd1qhb3z
p371
I1
sVd35ouqx
p372
I1
sVd63kqh2
p373
I2
sVde9xase
p374
I1
sVdmkd5e0
p375
I1
sVd8ym6qb
p376
I1
sVdhp67oo
p377
I1
sVd834o0a
p378
I1
sVd9r7br8
p379
I1
sVdg2gg0j
p380
I1
sVd2wyiuc
p381
I1
sVd08nrha
p382
I1
sVd1hhs6u
p383
I2
sVdnlsen6
p384
I1
sVdb6fw7l
p385
I1
sVdbtmv7a
p386
I1
sVd2zxjj2
p387
I1
sVdtibrqs
p388
I2
sVdj1wskk
p389
I1
sVd3vdq9s
p390
I1
sVd09j6uk
p391
I1
sVdpyv3vu
p392
I1
sVdk1mqds
p393
I1
sVd24k44w
p394
I1
sVd0fnkdf
p395
I1
sVd6frg1n
p396
I1
sVdpyhzeo
p397
I1
sVdfj142j
p398
I1
sVdj8e4x1
p399
I1
sVddlm9wi
p400
I1
sVd4qtwcj
p401
I1
sVd1tn2q0
p402
I1
sVdh1nyvo
p403
I7
sVdi84h7v
p404
I1
sVd4y6ev3
p405
I1
sVdazn618
p406
I1
sVdhsmlib
p407
I1
sVdel748h
p408
I1
sVczsgcx0
p409
I1
sVd0xl3ag
p410
I1
sVczv2kxm
p411
I1
sVczt51zo
p412
I2
sVdb2snqm
p413
I1
sVdg79n0q
p414
I1
sVd4jqdef
p415
I1
sVdcry1em
p416
I1
sVd84uuxr
p417
I1
sVdbwcsry
p418
I1
sVd17oa7y
p419
I1
sVcz3lake
p420
I1
sVcyun6oz
p421
I1
sVdmkfn9y
p422
I1
sVdhdp9h4
p423
I3
sVdfwm4vl
p424
I3
sVd284rqj
p425
I1
sVd6jlijh
p426
I1
sVcz4371i
p427
I1
sVd88zhym
p428
I1
sVcz6ld7b
p429
I1
sVd2v4pi4
p430
I1
sVd73e4jy
p431
I1
sVdmzw5s0
p432
I1
sVdd1wl51
p433
I1
sVd4hby7j
p434
I1
sVd8qcsj7
p435
I1
sVd0ppp3f
p436
I1
sVdd3j8hp
p437
I1
sVd6tb4f0
p438
I1
sVdhx24n0
p439
I3
sVdqzq83x
p440
I1
sVdni88cr
p441
I1
sVdh1i8hb
p442
I1
sVd8c62cy
p443
I1
sVd4pnyv3
p444
I1
sVd0jepe3
p445
I1
sVd4epals
p446
I2
sVdbuevdr
p447
I1
sVdazqnzm
p448
I1
sVd14pqs1
p449
I1
sVd87xkgc
p450
I1
sVdg9h0md
p451
I2
sVdgf83rv
p452
I1
sVd1pp23w
p453
I1
sVd5ivrzw
p454
I1
sVd56dzin
p455
I1
sVdemvbfa
p456
I1
sVczg30ul
p457
I1
sVd0qmdj9
p458
I1
sVd1eio9q
p459
I1
sVd3p3rit
p460
I1
sVd8m0mrx
p461
I2
sVdg9f11j
p462
I1
sVd4o2460
p463
I1
sVd1bskby
p464
I1
sVda5z64w
p465
I1
sVdf5vo2t
p466
I13
sVdd1f0p4
p467
I1
sVd3n2bh9
p468
I1
sVd6p8e2h
p469
I2
sVdcmfd5g
p470
I1
sVdkm2qo8
p471
I1
sVdmspx7i
p472
I1
sVd26jid5
p473
I1
sVd5hedlb
p474
I1
sVd8nqf4b
p475
I3
sVddb9n5k
p476
I4
sVdgdt6gg
p477
I1
sVdabxus9
p478
I1
sVdevu2mz
p479
I1
sVdk97zev
p480
I1
sVd9mzzav
p481
I1
sVdas8nwv
p482
I2
sVdob2t1m
p483
I1
sVddgizrj
p484
I1
sVdjgkh66
p485
I2
sVdihsyww
p486
I1
sVdg8xkaq
p487
I1
sVdeiw8ve
p488
I1
sVdneukmm
p489
I1
sVdc053zx
p490
I3
sVd6sluws
p491
I1
sVd8t5d4v
p492
I1
sVdanajmx
p493
I2
sVdkpxm02
p494
I2
sVd6m7no1
p495
I1
sVd2ucamr
p496
I1
sVd4s7z0h
p497
I1
sVdiix5n0
p498
I1
sVdhxuigt
p499
I1
sVd2n09yo
p500
I1
sVd89hjko
p501
I1
sVdf7vg99
p502
I1
sVdtbfj6x
p503
I1
sVdbp1o03
p504
I1
sVdo09fw5
p505
I1
sVdkbmi8j
p506
I1
sVd059g2q
p507
I2
sVddol021
p508
I1
sVdf0rgdm
p509
I1
sVddtu1p0
p510
I1
sVdmutt49
p511
I1
sVdfldmji
p512
I1
sVdb8tvmr
p513
I1
sVdj510qh
p514
I1
sVdkxrl6f
p515
I1
sVd0l8zw1
p516
I1
sVd37m360
p517
I1
sVdeootzc
p518
I1
sVd89t83c
p519
I1
sVd884ycj
p520
I1
sVd1p4cjy
p521
I1
sVdbibx6t
p522
I2
sVd80ihmi
p523
I1
sVdjwdl94
p524
I1
sVd0smt2n
p525
I1
sVcyjoolc
p526
I1
sVd9ptysk
p527
I1
sVde111jt
p528
I1
sVd72t74p
p529
I1
sVd3g9tve
p530
I5
sVdnh9su7
p531
I4
sVdi8pct0
p532
I3
sVdkzg8tk
p533
I1
sVdnwhao8
p534
I2
sVd83xj75
p535
I1
sVd70r6cl
p536
I1
sVd8uxzbg
p537
I1
sVdtdk73n
p538
I1
sVdn5ypuw
p539
I1
sVd2hqnzz
p540
I1
sVdsbdlsh
p541
I1
sVdav9eob
p542
I1
sVd2uad21
p543
I1
sVdiy2dng
p544
I3
sVd5rhfr0
p545
I1
sVcyu60x7
p546
I1
sVd4sgzx5
p547
I1
sVcz1vnxo
p548
I1
sVd1rukb6
p549
I1
sVcynlz2p
p550
I1
sVd68muk3
p551
I1
sVdeft2p4
p552
I1
sVddrusaf
p553
I1
sVd9qwis9
p554
I1
sVdkz8v39
p555
I3
sVd39uay5
p556
I1
sVd9onw33
p557
I1
sVdc8xpev
p558
I1
sVcyu146a
p559
I1
sVd19gkdy
p560
I1
sVds0euo3
p561
I1
sVdbc8cgo
p562
I1
sVd80bsq5
p563
I1
sVdco0zin
p564
I1
sVd7z2nv0
p565
I1
sVdadym8e
p566
I1
sVd7h4aih
p567
I1
sVd3aacuw
p568
I2
sVdcqk0wb
p569
I1
sVd2plhy4
p570
I4
sVdid4558
p571
I1
sVdjlmi8l
p572
I2
sVdt2zyo7
p573
I1
sVd5slw89
p574
I1
sVd872p7e
p575
I1
sVde8v5r0
p576
I1
sVdf7vbq6
p577
I8
sVdmyxhvn
p578
I1
sVdobhn6h
p579
I1
sVd4tuihs
p580
I1
sVdh8kgwm
p581
I1
sVczae984
p582
I1
sVdi6lv37
p583
I1
sVd7n85bv
p584
I1
sVd3boib9
p585
I1
sVdia21vt
p586
I1
sVd5jmtli
p587
I1
sVcykbqsu
p588
I1
sVd8hupq4
p589
I1
sVd5209f8
p590
I1
sVd42mvj3
p591
I1
sVdgn0qj6
p592
I1
sVdht7alr
p593
I1
sVd1wae3z
p594
I1
sVczd62db
p595
I1
sVd7g9d4g
p596
I1
sVd6eo9ax
p597
I1
sVdo2s0l6
p598
I1
sVdmmsn0f
p599
I2
sVd0qm7v5
p600
I1
sVd1v2woq
p601
I1
sVdcbae11
p602
I1
sVdexq3j5
p603
I1
sVd28tivc
p604
I1
sVcyll5ja
p605
I1
sVd3jflvd
p606
I1
sVd0ol5o7
p607
I1
sVdspvp39
p608
I1
sVdt31r12
p609
I1
sVdb25zw6
p610
I1
sVd2p39ri
p611
I1
sVd0zb1mg
p612
I1
sVdfru30y
p613
I1
sVdmrre0n
p614
I1
sVd7leq79
p615
I1
sVd078ixw
p616
I1
sVdkyg0lh
p617
I1
sVcz7r8j2
p618
I1
sVd0yze3h
p619
I1
sVdml3ukw
p620
I1
sVd9fkrm5
p621
I1
sVd9eza6b
p622
I1
sVd306725
p623
I1
sVd6wvrx2
p624
I2
sVdaw4jr6
p625
I1
sVdmwc6gg
p626
I1
sVdgqekkq
p627
I1
sVcyj3pjg
p628
I1
sVdi56ayz
p629
I1
sVdpp7hmh
p630
I1
sVdog72df
p631
I1
sVddn7y5y
p632
I1
sVd9pfusx
p633
I1
sVd6xloqk
p634
I1
sVd9re3f3
p635
I1
sVcysth6g
p636
I1
sVd2dn092
p637
I1
sVdpbxd7g
p638
I1
sVdg8sawk
p639
I2
sVdcbp7h6
p640
I1
sVd00u2jo
p641
I1
sVdo4tn02
p642
I1
sVczpf8up
p643
I1
sVdpxr1k1
p644
I1
sVd5aw9t7
p645
I1
sVdphyxee
p646
I1
sVdevymlw
p647
I1
sVd2olmbr
p648
I1
sVd4veu4r
p649
I1
sVdp3z0vr
p650
I1
sVdf9c05y
p651
I1
sVdq3ztod
p652
I1
sVdkqmn52
p653
I1
sVdr0ntgw
p654
I1
sVd8y4c5e
p655
I1
sVd63ytn7
p656
I1
sVd82ttz9
p657
I1
sVd2qyaot
p658
I2
sVde844mz
p659
I1
sVd481rzh
p660
I1
sVd7ftm7v
p661
I1
sVdebzrd3
p662
I1
sVdngtem0
p663
I1
sVd5oyhsw
p664
I1
sVd8zjb4m
p665
I2
sVd6m0i88
p666
I1
sVdbn08bi
p667
I1
sVdiv02je
p668
I1
sVcyvb4z2
p669
I1
sVdq43umj
p670
I1
sVd0pp0tu
p671
I1
sVd3qk61z
p672
I1
sVdc6ma1m
p673
I1
sVdjz8i0d
p674
I1
sVdd3bcfl
p675
I1
sVd02ty9h
p676
I1
sVdobkaur
p677
I5
sVdcw32jz
p678
I1
sVdi3kiua
p679
I1
sVdcvu21g
p680
I1
sVdfdsedu
p681
I1
sVd4l2nox
p682
I1
sVd7lcob1
p683
I2
sVdg91d5a
p684
I1
sVdd597qu
p685
I3
sVdhg6op5
p686
I1
sVdfdm2xe
p687
I1
sVd8dxh8w
p688
I1
sVdet8twf
p689
I1
sVdbq5x2j
p690
I1
sVd0ynuy7
p691
I1
sVdhjtbwg
p692
I1
sVd5jzgf7
p693
I1
sVdbvogb9
p694
I1
sVddc1m8j
p695
I1
sVd5ayvpe
p696
I1
sVdpbhagf
p697
I2
sVdh1q35p
p698
I1
sVcz3xffu
p699
I1
sVdphdprn
p700
I1
sVd676dod
p701
I1
sVdos6yi6
p702
I1
sVczt3yh7
p703
I1
sVdprmqrm
p704
I1
sVde4y9z2
p705
I1
sVd0w79dm
p706
I1
sVd9gkmhz
p707
I1
sVdods4jb
p708
I2
sVd7qinxg
p709
I1
sVd8fqp4h
p710
I1
sVd01kci2
p711
I1
sVd2a8t55
p712
I1
sVdt0xezh
p713
I1
sVdi56phf
p714
I1
sVd2apfs1
p715
I1
sVdn6cxd1
p716
I1
sVda668yz
p717
I2
sVdauox4w
p718
I1
sVde4ew6o
p719
I1
sVde798cf
p720
I1
sVdk2n0c1
p721
I2
sVdf2nr6y
p722
I4
sVdcz54yq
p723
I1
sVcyjg645
p724
I1
sVdrq1ldz
p725
I1
sVdnhv9rw
p726
I1
sVdieky4d
p727
I1
sVdmm1btr
p728
I1
sVde3mwpz
p729
I1
sVdda6wtc
p730
I1
sVczvke7h
p731
I1
sVdavabym
p732
I1
sVd68samj
p733
I1
sVd0un6qj
p734
I2
sVdgnwk06
p735
I1
sVd5ivwws
p736
I2
sVd3grmcq
p737
I10
sVd1akc29
p738
I1
sVd6j9tc2
p739
I1
sVdakp9tu
p740
I1
sVdoevmcu
p741
I1
sVd7mxz2z
p742
I1
sVdqh5n7p
p743
I1
sVd031cq9
p744
I1
sVd86bg5o
p745
I1
sVdgd83d8
p746
I1
sVdhrs6en
p747
I1
sVdawr44s
p748
I2
sVddfm0gz
p749
I1
sVd886f1f
p750
I1
sVd8w1wka
p751
I1
sVdaroz8j
p752
I1
sVd1r3v0a
p753
I1
sVd4y5p35
p754
I1
sVd1fiufb
p755
I1
sVdsclnef
p756
I2
sVdkf40jm
p757
I2
sVd0a4cuu
p758
I1
sVd07shg4
p759
I1
sVdhwuc68
p760
I1
sVcyrwlp1
p761
I1
sVczzvvmu
p762
I1
sVcyv8pfy
p763
I1
sVdhss6d2
p764
I1
sVdh6w0fg
p765
I3
sVd0v8u9q
p766
I1
sVcz3d13b
p767
I1
sVd832wis
p768
I1
sVdc1cier
p769
I1
sVdflrnvh
p770
I1
sVdaj24qt
p771
I1
sVdgdvstt
p772
I1
sVde5qsyr
p773
I1
sVdb3pt7f
p774
I1
sVd39wier
p775
I3
sVdd3ia29
p776
I1
sVd94pwx4
p777
I1
sVdbuqstj
p778
I1
sVd3q594z
p779
I1
sVdpwkw1g
p780
I1
sVdp5b3c9
p781
I1
sVdrswlpe
p782
I1
sVdd8eoz1
p783
I1
sVd3sisa6
p784
I1
sVd24r619
p785
I1
sVdb0eou8
p786
I2
sVdf5vf5p
p787
I2
sVd6c3mov
p788
I1
sVde3hltn
p789
I1
sVdcglcdx
p790
I1
sVdogrfa7
p791
I1
sVdaxl1eh
p792
I1
sVd10cpzk
p793
I2
sVdgosval
p794
I1
sVdjffyni
p795
I1
sVd0qckgi
p796
I1
sVddun2z7
p797
I1
sVcz3l6bw
p798
I1
sVdqumo7j
p799
I1
sVdh3aqii
p800
I1
sVcyptije
p801
I1
sVdo63a5x
p802
I1
sVddwkrf1
p803
I1
sVd4evtyd
p804
I1
sVczrkpwx
p805
I1
sVdguxehr
p806
I1
sVdhip1r4
p807
I1
sVdgcwtam
p808
I1
sVddijgvh
p809
I1
sVcyzfpxv
p810
I3
sVdcngu49
p811
I1
sVdrgro6n
p812
I2
sVd7g393n
p813
I1
sVda4x4cz
p814
I1
sVczs16r5
p815
I1
sVcyp06h5
p816
I1
sVdp1ssl2
p817
I1
sVdqtb8vp
p818
I1
sVdhatfxh
p819
I2
sVdd6flmz
p820
I2
sVddxvj7i
p821
I1
sVd53idep
p822
I1
sVd3p5f8s
p823
I1
sVdijkk8n
p824
I1
sVdapwcyd
p825
I3
sVdftkbqc
p826
I1
sVdd6zrel
p827
I1
sVdbo4i8t
p828
I1
sVdhz24gc
p829
I1
sVdc97px7
p830
I2
sVd9l0758
p831
I2
sVddi2hiq
p832
I1
sVd5cxfs7
p833
I1
sVdbe56se
p834
I1
sVd5i8n0x
p835
I1
sVdjtqcl7
p836
I1
sVd2hrsfy
p837
I5
sVdenuhxs
p838
I1
sVcyspdb6
p839
I5
sVdmizrgp
p840
I1
sVdk9ye13
p841
I1
sVdtganc2
p842
I1
sVdg28o4t
p843
I1
sVd2a4fld
p844
I1
sVd623ujr
p845
I1
sVdiesekr
p846
I2
sVd5eaio4
p847
I1
sVdbsfx4d
p848
I1
sVdg5yjv3
p849
I1
sVd9xjk5j
p850
I1
sVd5xc5xu
p851
I1
sVd2hkp4j
p852
I1
sVdgeff5l
p853
I1
sVd6cs3ly
p854
I1
sVd1kwkhs
p855
I2
sVdf9dcfe
p856
I1
sVdn19h37
p857
I2
sVdpmr6gf
p858
I1
sVd0kg9m2
p859
I1
sVditelf8
p860
I1
sVdd464xd
p861
I1
sVd1hcy3r
p862
I1
sVda32krh
p863
I1
sVd1490xn
p864
I1
sVdqoz4a6
p865
I2
sVd9dgd0f
p866
I1
sVdeb9bip
p867
I1
sVd2juewu
p868
I1
sVcyri8cx
p869
I1
sVdqrk2ky
p870
I1
sVddkgww4
p871
I1
sVdtb64ya
p872
I1
sVdjzyv6e
p873
I1
sVdgtb22p
p874
I1
sVczomu78
p875
I4
sVcz7f88f
p876
I2
sVddty605
p877
I1
sVd0jfu8z
p878
I1
sVddisxem
p879
I1
sVd1mww6n
p880
I1
sVd23m5s4
p881
I1
sVdh2ij9u
p882
I2
sVddf3n1z
p883
I1
sVdhe70l4
p884
I1
sVd5mj8gn
p885
I1
sVdeopydm
p886
I1
sVd1v64cx
p887
I1
sVd522q11
p888
I1
sVdaeftg1
p889
I1
sVdi0w9e6
p890
I1
sVdcdvf43
p891
I1
sVdal5ayz
p892
I1
sVda2nsua
p893
I1
sVdhe810t
p894
I1
sVd2nepfd
p895
I1
sVd3nrrba
p896
I1
sVd9thfzm
p897
I1
sVdej5ncl
p898
I1
sVdklywu5
p899
I1
sVd0kodyr
p900
I1
sVde0gu15
p901
I1
sVdmi7sbh
p902
I1
sVdo3jto6
p903
I1
sVdtd7aef
p904
I1
sVd9vxiqr
p905
I2
sVd76rwz4
p906
I1
sVdd72mn5
p907
I1
sVd9tnsn2
p908
I1
sVcz7djus
p909
I1
sVdrqx5qt
p910
I1
sVd5iaxwx
p911
I3
sVdfj2k8g
p912
I1
sVd7c40sh
p913
I1
sVdn6ka4j
p914
I9
sVde9gi3i
p915
I3
sVcz9crmy
p916
I1
sVdiwgjdc
p917
I1
sVdmf2t9z
p918
I1
sVd9guti3
p919
I1
sVdndwk8n
p920
I3
sVdk80p68
p921
I1
sVdbvqpkx
p922
I1
sVczc5fqq
p923
I1
sVdig28zo
p924
I1
sVcyo0rne
p925
I1
sVd1kyptf
p926
I1
sVddq1crs
p927
I1
sVd83ysqm
p928
I2
sVd2bx2a2
p929
I1
sVdcau74n
p930
I1
sVdfgxycg
p931
I1
sVdde958d
p932
I2
sVd2cy3q3
p933
I1
sVdopmenu
p934
I1
sVdn3v6ud
p935
I1
sVdnillin
p936
I2
sVd30by08
p937
I1
sVddpckte
p938
I1
sVd7rk1fa
p939
I4
sVd28zl3n
p940
I1
sVdfy6h8b
p941
I2
sVdjp5bbb
p942
I4
sVdowd4zg
p943
I13
sVd6c1bwd
p944
I1
sVdhfjfjc
p945
I1
sVdc7tfnu
p946
I1
sVdhtm6qj
p947
I1
sVdqxpue7
p948
I1
sVdg5u9a3
p949
I1
sVdd8fbb8
p950
I1
sVdbvxxkw
p951
I2
sVd8oblsd
p952
I1
sVdscpogi
p953
I1
sVd51b51w
p954
I1
sVcz7sizd
p955
I1
sVcyw43jt
p956
I1
sVd8uulon
p957
I1
sVd1bhmd3
p958
I1
sVd9yae8b
p959
I1
sVdem0ml2
p960
I2
sVd2nbbqo
p961
I1
sVcyq7r6u
p962
I1
sVdq2qvem
p963
I1
sVdqks869
p964
I1
sVd1vknwi
p965
I2
sVd2dh6ds
p966
I1
sVdqwlgjw
p967
I1
sVd9mcg5m
p968
I1
sVcyzbh16
p969
I1
sVdd7q639
p970
I1
sVdb8yj9n
p971
I1
sVd9t32gt
p972
I2
sVd0zakd1
p973
I1
sVd1z1r0r
p974
I2
sVdany1b2
p975
I1
sVcznbnju
p976
I1
sVd5btpnh
p977
I1
sVd5mmf28
p978
I1
sVd4owmz9
p979
I1
sVd4kzdvw
p980
I2
sVd0ndj0b
p981
I1
sVdap1ajv
p982
I1
sVd1jqjvw
p983
I1
sVd15b4rd
p984
I1
sVd92tp7r
p985
I1
sVdc9q3k6
p986
I1
sVdhoysxk
p987
I1
sVd7ng2uy
p988
I1
sVdr0d2mr
p989
I1
sVd0ix7kc
p990
I1
sVd7yob8s
p991
I1
sVdjzq0c8
p992
I2
sVdonh0gm
p993
I1
sVdcca1lq
p994
I1
sVd1ef15b
p995
I1
sVdeo0s2h
p996
I2
sVd95o0jb
p997
I1
sVdcdvuej
p998
I1
sVcz2n2mj
p999
I1
sVdjip93n
p1000
I1
sVd6vtzdx
p1001
I1
sVd4wjbd4
p1002
I1
sVd8xk6hg
p1003
I1
sVdjw9mat
p1004
I2
sVczcn1g7
p1005
I1
sVdrybhl4
p1006
I1
sVd7e1jab
p1007
I1
sVdn2h20q
p1008
I1
sVdtc9d3f
p1009
I1
sVda3tyds
p1010
I1
sVdicw4w4
p1011
I1
sVdfx0xbj
p1012
I1
sVdrileyj
p1013
I2
sVdarpyvp
p1014
I1
sVdntyld8
p1015
I1
sVd195h52
p1016
I1
sVd81hl0h
p1017
I1
sVdpw3t6p
p1018
I1
sVdbx2q1j
p1019
I1
sVcyir0jr
p1020
I1
sVdclf4fv
p1021
I1
sVdaz5mpo
p1022
I1
sVd1bo0bd
p1023
I1
sVdjf518r
p1024
I2
sVdddikkv
p1025
I1
sVd1cv0u5
p1026
I1
sVde9622h
p1027
I1
sVd87fi3d
p1028
I2
sVd7elkg2
p1029
I1
sVcz5d0mq
p1030
I1
sVddp0kgw
p1031
I1
sVd4wddkx
p1032
I3
sVdjj80v0
p1033
I1
sVdqdrx2u
p1034
I1
sVd3946t4
p1035
I1
sVcz8c9ce
p1036
I1
sVdr96xip
p1037
I1
sVddxujyq
p1038
I1
sVdfgdmkc
p1039
I1
sVdqpfu8t
p1040
I1
sVczvj0er
p1041
I1
sVd6m59lh
p1042
I1
sVd6757s4
p1043
I1
sVd2acf3z
p1044
I1
sVdfal0dw
p1045
I1
sVcyrgpmy
p1046
I1
sVdcswihg
p1047
I1
sVddz36yk
p1048
I1
sVdfjvkkh
p1049
I1
sVczz8gtj
p1050
I1
sVdawg551
p1051
I1
sVd1pg1t9
p1052
I1
sVd3ontnv
p1053
I1
sVd454532
p1054
I1
sVdmwr3sn
p1055
I1
sVdb86p32
p1056
I1
sVdk2jmc4
p1057
I1
sVdor0lv1
p1058
I1
sVdk9bp1a
p1059
I1
sVd2t6krr
p1060
I1
sVdjx61mx
p1061
I1
sVd8cxijo
p1062
I1
sVd914toi
p1063
I1
sVd4shy0p
p1064
I1
sVd7xbmn2
p1065
I1
sVd2vxw6r
p1066
I1
sVd3z9dyg
p1067
I1
sVdkb4plz
p1068
I1
sVdrbz1ra
p1069
I1
sVdbdexld
p1070
I1
sVdj8ewxb
p1071
I1
sVczkenur
p1072
I1
sVd2bhjcv
p1073
I1
sVdcg8k8b
p1074
I1
sVdjfh83v
p1075
I1
sVdsyoqas
p1076
I1
sVdmhwt7i
p1077
I1
sVdo1cdc1
p1078
I1
sVcz0pdn1
p1079
I1
sVdne50sn
p1080
I1
sVdqgtdxg
p1081
I1
sVd1yw0j2
p1082
I1
sVd8eyye4
p1083
I1
sVczam347
p1084
I1
sVd1l68qw
p1085
I1
sVdi97xsc
p1086
I1
sVdby43lk
p1087
I1
sVd7uogqi
p1088
I1
sVdfug3ml
p1089
I1
sVde950rg
p1090
I5
sVd2jecjh
p1091
I1
sVd4nj3g3
p1092
I1
sVdao0zys
p1093
I1
sVdtc6eic
p1094
I1
sVd20zief
p1095
I1
sVdhmpycm
p1096
I1
sVd40709z
p1097
I1
sVd58e5uw
p1098
I1
sVdfis0qk
p1099
I1
sVcynhyi7
p1100
I1
sVdh62usi
p1101
I1
sVdoj7a6i
p1102
I1
sVd7khopv
p1103
I1
sVcz4m4bu
p1104
I1
sVd5hdkao
p1105
I1
sVdfu1byb
p1106
I1
sVd1173jw
p1107
I2
sVdjtvu0z
p1108
I1
sVdfb2jsx
p1109
I1
sVddq8ppf
p1110
I1
sVd4gahi5
p1111
I1
sVdccv49z
p1112
I1
sVdeerpbq
p1113
I1
sVddsg7ny
p1114
I1
sVd4mw417
p1115
I1
sVdp7g1qd
p1116
I1
sVd5c217o
p1117
I1
sVd0iaaem
p1118
I1
sVdf9ttro
p1119
I1
sVd3bkkvr
p1120
I2
sVdgpbgm7
p1121
I1
sVdd21qkb
p1122
I1
sVde0xv5z
p1123
I1
sVd0np5n0
p1124
I1
sVdk1fagy
p1125
I2
sVdhkchtz
p1126
I1
sVdo3d2km
p1127
I1
sVdmwo84i
p1128
I2
sVd5hzvjc
p1129
I1
sVd1g659p
p1130
I1
sVcz4f8aw
p1131
I1
sVddoolqz
p1132
I1
sVd2gyi5z
p1133
I1
sVczjgqi4
p1134
I1
sVd8btwf9
p1135
I1
sVdjra2lk
p1136
I1
sVd92vb82
p1137
I1
sVdqeanpo
p1138
I2
sVd3greb5
p1139
I1
sVd3nng7v
p1140
I1
sVdtekv8n
p1141
I1
sVdrczmiv
p1142
I1
sVdoxm85w
p1143
I1
sVdr31rxa
p1144
I1
sVdd5mfge
p1145
I2
sVcz0hfaj
p1146
I1
sVd3yvmy7
p1147
I1
sVdemp23y
p1148
I1
sVde7enu6
p1149
I1
sVd3m3w26
p1150
I1
sVcypqsuj
p1151
I1
sVcyxnkmv
p1152
I1
sVd8cllpx
p1153
I1
sVdnb0g1f
p1154
I1
sVdr082rj
p1155
I1
sVcynob8u
p1156
I1
sVd4wiwvb
p1157
I1
sVdcdnyec
p1158
I1
sVda2va18
p1159
I2
sVdd4zjhh
p1160
I1
sVd0ymjea
p1161
I1
sVdobcsuv
p1162
I1
sVcytsrz5
p1163
I1
sVdjpwgxr
p1164
I3
sVdge45p8
p1165
I1
sVd319g09
p1166
I1
sVde1qecw
p1167
I1
sVdnkckn2
p1168
I1
sVd9gpsgc
p1169
I1
sVd4fnw3i
p1170
I1
sVd1137b6
p1171
I1
sVdq9irra
p1172
I1
sVdbzxx3l
p1173
I1
sVd3ye6e2
p1174
I1
sVd34p2jp
p1175
I1
sVda7nhuv
p1176
I1
sVdb01yji
p1177
I1
sVd4qzn79
p1178
I1
sVdsh5vny
p1179
I1
sVdo1ub2b
p1180
I1
sVd0388o5
p1181
I1
sVd7nwkn2
p1182
I1
sVdci864q
p1183
I1
sVd23r3g1
p1184
I1
sVcyrrdud
p1185
I1
sVd1gozgi
p1186
I1
sVcyidzzc
p1187
I2
sVdabe9z1
p1188
I1
sVd40ebiq
p1189
I1
sVdqek1pn
p1190
I1
sVdrsgg8n
p1191
I1
sVcz8nhsm
p1192
I1
sVdrtizy8
p1193
I1
sVczuwuuo
p1194
I1
sVdfkhw81
p1195
I1
sVdfzblq0
p1196
I3
sVd5hc4x5
p1197
I1
sVdht2tnr
p1198
I1
sVdg9h0v6
p1199
I4
sVdeh5p0d
p1200
I1
sVddri6ls
p1201
I1
sVd7d0maw
p1202
I1
sVdhmc4og
p1203
I1
sVdscleb8
p1204
I1
sVdkbs621
p1205
I1
sVdc1lj2y
p1206
I1
sVds9qox8
p1207
I3
sVdgg2wg1
p1208
I1
sVd0qrhp5
p1209
I1
sVd9gt9ku
p1210
I1
sVdhwqqyb
p1211
I1
sVcz1xyxt
p1212
I1
sVdi537i7
p1213
I3
sVd58u2ab
p1214
I1
sVdhhpaog
p1215
I1
sVcz2ff7u
p1216
I1
sVdsrcuhl
p1217
I1
sVdhrl8vp
p1218
I1
sVd00h6so
p1219
I1
sVdiil82x
p1220
I1
sVdh6ghqy
p1221
I2
sVdrcamqx
p1222
I1
sVday7eml
p1223
I1
sVd9hfo2l
p1224
I1
sVd3q70wo
p1225
I1
sVd8bo5uh
p1226
I1
sVdnikht9
p1227
I2
sVd0471tg
p1228
I1
sVdfnd0fy
p1229
I1
sVd8gd85f
p1230
I1
sVd0r3x2h
p1231
I1
sVczztcgq
p1232
I1
sVdkilvkh
p1233
I1
sVd0yhqu1
p1234
I1
sVd9qzkec
p1235
I1
sVdfh06h5
p1236
I1
sVd6xoosx
p1237
I1
sVdahqid5
p1238
I1
sVdbig28q
p1239
I1
sVdpcsgof
p1240
I4
sVdq9sng1
p1241
I1
sVdi57vzo
p1242
I1
sVdfuel73
p1243
I1
sVdnk5fme
p1244
I1
sVdhjd87u
p1245
I1
sVd04yhxl
p1246
I1
sVdaxgya5
p1247
I1
sVd4bks9p
p1248
I1
sVczrj0en
p1249
I1
sVd8vc746
p1250
I1
sVdn16j0s
p1251
I2
sVd5vd5la
p1252
I1
sVd4z3ai9
p1253
I1
sVdg5c945
p1254
I1
sVdt64s06
p1255
I1
sVda99pp7
p1256
I1
sVdhryk7w
p1257
I1
sVd472v1m
p1258
I4
sVdgvokk7
p1259
I1
sVd92usms
p1260
I1
sVd223uln
p1261
I1
sVdj0g3ne
p1262
I1
sVd9quw0t
p1263
I2
sVdcjx5r6
p1264
I1
sVdefmsyr
p1265
I1
sVdsxw7ka
p1266
I1
sVdge6lhk
p1267
I1
sVdgivw2o
p1268
I1
sVddl6ozw
p1269
I1
sVd0tlqdz
p1270
I2
sVdd6raoj
p1271
I1
sVd096wrn
p1272
I1
sVd9h5nyz
p1273
I1
sVdh5wasv
p1274
I1
sVdqj1bbi
p1275
I1
sVczcc58r
p1276
I2
sVczlw7v6
p1277
I1
sVd1g767y
p1278
I1
sVdkgc9x4
p1279
I1
sVdg22xc0
p1280
I1
sVdthfj8b
p1281
I1
sVd2i6r1u
p1282
I2
sVddtnx2p
p1283
I1
sVd2ltj2z
p1284
I1
sVdt2h4t1
p1285
I1
sVde3hyi9
p1286
I1
sVdfv3s3t
p1287
I1
sVdinyz0i
p1288
I1
sVddxesnb
p1289
I1
sVdn2p9un
p1290
I1
sVdevqab6
p1291
I2
sVdpty175
p1292
I1
sVd1a6gzz
p1293
I1
sVdimicsq
p1294
I1
sVdeiur0b
p1295
I1
sVde1htle
p1296
I1
sVd5pgm2p
p1297
I2
sVd3moas9
p1298
I2
sVd5t9ycf
p1299
I1
sVdqykqq0
p1300
I1
sVdavangi
p1301
I1
sVdr20eml
p1302
I1
sVdn8aq6l
p1303
I1
sVdjxrtqn
p1304
I1
sVdrm954o
p1305
I1
sVdgbiah6
p1306
I1
sVd7wqng9
p1307
I1
sVd1samsr
p1308
I1
sVd71ib0b
p1309
I1
sVdex5nvz
p1310
I2
sVd8qknjb
p1311
I1
sVd9v7zxz
p1312
I1
sVdnnbkj4
p1313
I2
sVcyojv4c
p1314
I1
sVdt5u5zj
p1315
I1
sVdbq059q
p1316
I1
sVd4vaiz8
p1317
I1
sVdh7xuu7
p1318
I1
sVdipkdc9
p1319
I1
sVd0y33oq
p1320
I1
sVd8bi40u
p1321
I1
sVczvstwn
p1322
I1
sVdbgww9o
p1323
I1
sVdhgraj0
p1324
I1
sVdgt9mag
p1325
I1
sVd6c1n9f
p1326
I1
sVdfwvyv8
p1327
I1
sVd0he3qk
p1328
I1
sVdsl16jb
p1329
I2
sVcyxoivv
p1330
I1
sVdfvdewb
p1331
I1
sVdbawmq8
p1332
I1
sVd8oaly4
p1333
I1
sVdd3jmlo
p1334
I1
sVdaaem2a
p1335
I1
sVdh0u56a
p1336
I1
sVd6jwubr
p1337
I1
sVczhtoyc
p1338
I1
sVd018ad9
p1339
I1
sVddem404
p1340
I1
sVdmtugn4
p1341
I1
sVd17v8rk
p1342
I1
sVdptk19e
p1343
I1
sVd7imxbi
p1344
I1
sVd099e1c
p1345
I1
sVdqur9ll
p1346
I1
sVd9jf40c
p1347
I1
sVd78ufgy
p1348
I1
sVcyvrvxg
p1349
I1
sVcz93njw
p1350
I1
sVd3zcdn2
p1351
I1
sVd8a6j6g
p1352
I1
sVd9rizmy
p1353
I1
sVcyqmyj2
p1354
I1
sVdk3iqzy
p1355
I1
sVdfzgsv4
p1356
I1
sVcyrvtiu
p1357
I1
sVdmy5ri9
p1358
I1
sVd3yp3kb
p1359
I1
sVdn8coy8
p1360
I1
sVd223683
p1361
I1
sVddd7ion
p1362
I1
sVd3if9bs
p1363
I1
sVczdrt69
p1364
I1
sVd1ycrmw
p1365
I1
sVd7187q5
p1366
I1
sVdgldo1n
p1367
I1
sVdhgh9k5
p1368
I1
sVd1x7szh
p1369
I1
sVdpw44v0
p1370
I5
sVd0zifli
p1371
I1
sVddfo2ys
p1372
I1
sVd63mo51
p1373
I1
sVdd2hjoy
p1374
I1
sVcym8w1g
p1375
I1
sVdc9pwkp
p1376
I2
sVd6rr80o
p1377
I1
sVd7y3jus
p1378
I1
sVdjldm4x
p1379
I1
sVddjb11o
p1380
I2
sVd6yuwbn
p1381
I2
sVd5lj2na
p1382
I1
sVddlas3k
p1383
I1
sVdfv6je0
p1384
I1
sVd8hp90k
p1385
I2
sVd9fxtpx
p1386
I1
sVd0dxg9p
p1387
I1
sVd96m4r7
p1388
I1
sVd42fvzq
p1389
I1
sVdb6cnbd
p1390
I1
sVdhllpkn
p1391
I1
sVdgmg4oa
p1392
I1
sVd66s6b2
p1393
I1
sVd19oah9
p1394
I1
sVdg67nyv
p1395
I1
sVdh67asc
p1396
I1
sVdhtlz63
p1397
I1
sVd2a3wyp
p1398
I1
sVcyi5mdn
p1399
I1
sVd0slfd9
p1400
I2
sVd9f244o
p1401
I1
sVdi9nz84
p1402
I1
sVczkd5qx
p1403
I1
sVczc8176
p1404
I1
sVd5l0sz2
p1405
I1
sVd1n76ix
p1406
I1
sVdcu5dyu
p1407
I1
sVd6slbct
p1408
I1
sVdd6yobr
p1409
I1
sVdbsehgr
p1410
I1
sVdp8nlt6
p1411
I1
sVd9xfw06
p1412
I1
sVd3plaqp
p1413
I1
sVd7fe12a
p1414
I1
sVde32hia
p1415
I1
sVdg9dw8n
p1416
I1
sVd8thonu
p1417
I1
sVdol0ltc
p1418
I1
sVdc42cgl
p1419
I1
sVd085xvx
p1420
I1
sVdr0rma4
p1421
I2
sVdip0zhe
p1422
I1
sVdienefw
p1423
I1
sVdegb4e8
p1424
I1
sVd1f7aaz
p1425
I1
sVddjkpfl
p1426
I1
sVcz67gl6
p1427
I1
sVd9ho4oc
p1428
I1
sVde55km6
p1429
I1
sVdtb3hn3
p1430
I1
sVd24upw6
p1431
I1
sVdqeu9fn
p1432
I2
sVcz5m06f
p1433
I1
sVd71apqx
p1434
I1
sVdh70asp
p1435
I2
sVd27kx5h
p1436
I1
sVd4lftpc
p1437
I1
sVd4vsr71
p1438
I1
sVdbgsxqd
p1439
I1
sVdnw18gg
p1440
I1
sVdbt035h
p1441
I1
sVddszdle
p1442
I1
sVcyuxzwf
p1443
I1
sVdb3rz3g
p1444
I1
sVd60pr55
p1445
I1
sVdfxs5xx
p1446
I1
sVdilff6i
p1447
I2
sVd0gvym9
p1448
I1
sVcyshhhr
p1449
I1
sVdbdo3vp
p1450
I1
sVddwi2u3
p1451
I1
sVd0r3zzr
p1452
I1
sVd2zdm30
p1453
I1
sVd69707b
p1454
I1
sVdi8vela
p1455
I1
sVd36ltav
p1456
I1
sVdhlqe9l
p1457
I1
sVd6x4sj7
p1458
I1
sVd237huk
p1459
I2
sVd4kou1n
p1460
I1
sVd4gjd7c
p1461
I1
sVda9tgll
p1462
I1
sVdqam19l
p1463
I1
sVdi2b9bz
p1464
I1
sVd70ut8z
p1465
I1
sVczsvy2j
p1466
I1
sVczy0ihy
p1467
I1
sVdg4vu43
p1468
I1
sVd22ue3g
p1469
I1
sVcz9unjn
p1470
I1
sVd9r5s26
p1471
I2
sVczxq8q1
p1472
I1
sVdgi8xb5
p1473
I1
sVdep97u1
p1474
I1
sVdflltse
p1475
I1
sVda3fa6n
p1476
I1
sVd60ujiw
p1477
I2
sVdj0sgiz
p1478
I1
sVdo1wirl
p1479
I1
sVcz763wc
p1480
I1
sVdkinhwo
p1481
I1
sVd8dtszf
p1482
I1
sVcyrjl1h
p1483
I1
sVdprpfxx
p1484
I1
sVd4xjs4l
p1485
I1
sVd9d0xw0
p1486
I2
sVd036fte
p1487
I1
sVdq33p9y
p1488
I1
sVd3mdo97
p1489
I1
sVddje0hk
p1490
I1
sVd17aai1
p1491
I1
sVdbe8edd
p1492
I1
sVdrcdedm
p1493
I1
sVdkbqicv
p1494
I1
sVd29l4rn
p1495
I1
sVdt0su4t
p1496
I1
sVdrxd26h
p1497
I1
sVd1v95ly
p1498
I1
sVdfcrnc7
p1499
I1
sVdigqf3x
p1500
I2
sVdpfguxg
p1501
I1
sVd5tk4ej
p1502
I1
sVd0j7l85
p1503
I2
sVd9kl8hl
p1504
I1
sVdpwfkyy
p1505
I1
sVd7zv5a6
p1506
I1
sVd4q3ati
p1507
I1
sVd2e89nf
p1508
I1
sVd4d9wgs
p1509
I1
sVdcsikn7
p1510
I1
sVdstti0n
p1511
I1
sVdci1vmo
p1512
I1
sVd4nvykx
p1513
I1
sVdjavkda
p1514
I1
sVd3rqsxi
p1515
I1
sVd6op1i9
p1516
I1
sVdi2z6dr
p1517
I1
sVdt2ibf9
p1518
I1
sVde97tyx
p1519
I1
sVdmtvefm
p1520
I2
sVdhztuch
p1521
I1
sVdtgeyk5
p1522
I1
sVd4pwnok
p1523
I1
sVd4i08gz
p1524
I1
sVd01rwch
p1525
I1
sVdorku1m
p1526
I1
sVdbw6v67
p1527
I1
sVd9rbf9m
p1528
I1
sVd7yxfrh
p1529
I1
sVd03hnuj
p1530
I1
sVd03hlit
p1531
I2
sVcyrmh1g
p1532
I1
sVd232549
p1533
I1
sVdnsu9iu
p1534
I1
sVd39ez1p
p1535
I1
sVdjlx0v0
p1536
I2
sVd7l2kap
p1537
I1
sVdi5czv6
p1538
I1
sVd023n1p
p1539
I1
sVd3atr60
p1540
I1
sVdjtmmgz
p1541
I1
sVdqg5nr6
p1542
I1
sVdkjer9f
p1543
I1
sVd0g770z
p1544
I1
sVd9ys1ft
p1545
I1
sVd98ie1n
p1546
I1
sVd89zgwk
p1547
I1
sVdkmfc71
p1548
I1
sVdjby3ny
p1549
I1
sVd1iluyj
p1550
I1
sVdi01o6x
p1551
I1
sVdefm19w
p1552
I1
sVdc5hl56
p1553
I1
sVdh6sihz
p1554
I1
sVd5vp6do
p1555
I1
sVd19mf4r
p1556
I1
sVdr7hojw
p1557
I1
sVd70jwrr
p1558
I1
sVd7d3gez
p1559
I1
sVdr7qem0
p1560
I1
sVdcr24pw
p1561
I1
sVdpqs390
p1562
I2
sVczxwxku
p1563
I1
sVd0unwml
p1564
I2
sVd0h1u1t
p1565
I1
sVd4tc6cb
p1566
I1
sVdmncb2z
p1567
I1
sVd6v612w
p1568
I1
sVd1jlh1r
p1569
I1
sVd5cr3vi
p1570
I1
sVdd7825n
p1571
I1
sVdaechn6
p1572
I1
sVcz7egm5
p1573
I1
sVdpyx9zb
p1574
I1
sVd7hc21d
p1575
I1
sVd1ixugr
p1576
I1
sVdo8hj5z
p1577
I1
sVd1mnbjp
p1578
I2
sVczj6q6y
p1579
I1
sVd0juj1p
p1580
I1
sVd3syyf4
p1581
I4
sVd4yytpj
p1582
I1
sVd3pubry
p1583
I2
sVdc2mi2v
p1584
I1
sVdif6kk5
p1585
I1
sVdsx1t6s
p1586
I2
sVd9egwwu
p1587
I1
sVd0k2w8c
p1588
I1
sVdakvhxj
p1589
I1
sVdknbkc6
p1590
I1
sVczyo0b7
p1591
I2
sVdcd7s5g
p1592
I1
sVcysl6nz
p1593
I1
sVdhpu3l8
p1594
I1
sVdpa42k0
p1595
I1
sVddiiph7
p1596
I1
sVczgq8c2
p1597
I1
sVczhitgs
p1598
I1
sVdik51pi
p1599
I1
sVdazr2dk
p1600
I1
sVdgv6rca
p1601
I1
sVd1201aj
p1602
I1
sVde8l5zq
p1603
I1
sVd37ukfd
p1604
I1
sVd7h1dsl
p1605
I1
sVd00tuea
p1606
I1
sVdfenk61
p1607
I1
sVd1zyjzs
p1608
I1
sVdo4xz6u
p1609
I1
sVd5k6dwf
p1610
I1
sVdmvouap
p1611
I1
sVdakwsjo
p1612
I2
sVdies381
p1613
I1
sVd0cpm24
p1614
I1
sVcysjp49
p1615
I1
sVdhhhqke
p1616
I2
sVdo1qkm5
p1617
I2
sVdazrstn
p1618
I1
sVcykj7dn
p1619
I1
sVdi7faoc
p1620
I1
sVdgsqzg6
p1621
I1
sVcyt744d
p1622
I1
sVdt1s3dm
p1623
I1
sVd8d0wte
p1624
I1
sVdgtjovr
p1625
I1
sVd7kfg5u
p1626
I1
sVd6ylw14
p1627
I1
sVcyze2y8
p1628
I1
sVdef06h5
p1629
I1
sVdai4tze
p1630
I1
sVd75yj8j
p1631
I1
sVdiy27zp
p1632
I1
sVdhg7a8i
p1633
I1
sVdqe7ute
p1634
I2
sVcz0awhj
p1635
I1
sVd0g55ec
p1636
I2
sVd17tzpm
p1637
I1
sVddhmlyk
p1638
I1
sVd47mfyn
p1639
I1
sVdbqv4dm
p1640
I1
sVdcmx93g
p1641
I2
sVdd5f5w5
p1642
I1
sVdmj1pfm
p1643
I1
sVd03c7ma
p1644
I1
sVd2hoy0d
p1645
I1
sVd3b62x0
p1646
I1
sVczcqlcw
p1647
I1
sVd7gu4h7
p1648
I4
sVdqd80i4
p1649
I1
sVd0n501w
p1650
I1
sVdqasfrj
p1651
I1
sVd2x7j0z
p1652
I1
sVd03hhpm
p1653
I1
sVd9v6lxc
p1654
I1
sVd8cp7p2
p1655
I1
sVcyr32qx
p1656
I1
sVdsxia9x
p1657
I1
sVdeya85j
p1658
I1
sVda45tlt
p1659
I1
sVdn0h6oj
p1660
I6
sVdink3r7
p1661
I1
sVdrwx7sk
p1662
I1
sVdbg7bse
p1663
I1
sVdipk8s8
p1664
I1
sVdrxbljj
p1665
I3
sVd86t23w
p1666
I1
sVd24gpoo
p1667
I1
sVd78bov5
p1668
I1
sVdbu7wkj
p1669
I1
sVdd81m9n
p1670
I1
sVdq6f4ez
p1671
I1
sVdmx33bt
p1672
I1
sVdjwsfth
p1673
I1
sVd44pafv
p1674
I1
sVd7jqwth
p1675
I1
sVdnlx2n2
p1676
I1
sVdj22cqv
p1677
I1
sVd4rfdpl
p1678
I1
sVd1mymxj
p1679
I1
sVde8ef7e
p1680
I1
sVddl986j
p1681
I1
sVd39x2sy
p1682
I1
sVdgbdet8
p1683
I1
sVdkcj1fj
p1684
I2
sVddcex1q
p1685
I1
sVdg3iu5b
p1686
I1
sVd3z1n7w
p1687
I2
sVdfs49q0
p1688
I1
sVd2yy6sa
p1689
I1
sVd30qdqd
p1690
I1
sVdqrnq4m
p1691
I1
sVd1dmwbc
p1692
I1
sVd3yyzmq
p1693
I1
sVdf57g4c
p1694
I1
sVdb5761a
p1695
I1
sVdbvgzns
p1696
I1
sVdhbsx04
p1697
I2
sVd484avg
p1698
I1
sVdkeb1w7
p1699
I1
sVdhv99sj
p1700
I1
sVdc9s88o
p1701
I1
sVd7vfl1m
p1702
I2
sVdctjymo
p1703
I1
sVdo9ffvk
p1704
I1
sVdevda8b
p1705
I1
sVd4p0ngy
p1706
I1
sVdix5zvw
p1707
I1
sVdpxex0o
p1708
I1
sVdaoa74k
p1709
I1
sVd1zd2uz
p1710
I1
sVdec82ds
p1711
I1
sVd2i5rrt
p1712
I1
sVdd11rep
p1713
I1
sVd862o6w
p1714
I1
sVcztc9wg
p1715
I1
sVdo5t27x
p1716
I1
sVdfpw3q5
p1717
I3
sVcyyyaev
p1718
I1
sVdglqugb
p1719
I1
sVdrzohcf
p1720
I1
sVcz03m7t
p1721
I1
sVd9k846o
p1722
I1
sVd3aan9l
p1723
I1
sVd713kuw
p1724
I1
sVdqab7mc
p1725
I1
sVdp3vnpm
p1726
I1
sVd95bi9r
p1727
I1
sVd5ou6fw
p1728
I1
sVdd1kv4q
p1729
I1
sVdina6xv
p1730
I1
sVdddfpxu
p1731
I1
sVcyy5gy0
p1732
I1
sVdph6crb
p1733
I1
sVdpa7b1j
p1734
I1
sVdiazqow
p1735
I1
sVd9wpsjp
p1736
I1
sVdbglb6a
p1737
I1
sVd9h9xpd
p1738
I1
sVd3edj6r
p1739
I1
sVdor320q
p1740
I1
sVdd1zcz0
p1741
I1
sVdfl8uep
p1742
I1
sVdhwlbgn
p1743
I1
sVd0woew2
p1744
I1
sVdg5rl4q
p1745
I1
sVdaf4akt
p1746
I2
sVdfvmw16
p1747
I1
sVdbwvy4g
p1748
I1
sVd48xevw
p1749
I1
sVdejdmy0
p1750
I1
sVdkh8mw7
p1751
I1
sVdcevweh
p1752
I1
sVdkoxc9h
p1753
I1
sVczepygj
p1754
I1
sVcyklz8r
p1755
I1
sVdfn5cmu
p1756
I1
sVd37tq94
p1757
I1
sVdgm9izv
p1758
I2
sVdetd132
p1759
I1
sVdk0v0fv
p1760
I1
sVd53wnjh
p1761
I1
sVdo4jgff
p1762
I1
sVdphvirn
p1763
I9
sVdrz1vht
p1764
I1
sVd1lt9p6
p1765
I3
sVd09hpc2
p1766
I1
sVcz5ds33
p1767
I1
sVdctjo1u
p1768
I1
sVd4m0pmt
p1769
I1
sVdjf7sw6
p1770
I2
sVd058d9d
p1771
I1
sVcyjvkqr
p1772
I1
sVd96f1ks
p1773
I1
sVcywgpeb
p1774
I1
sVd65haxr
p1775
I1
sVdn77d6a
p1776
I1
sVdfrjl7f
p1777
I1
sVcyjqyxt
p1778
I1
sVdjh2hkr
p1779
I1
sVd0k167s
p1780
I1
sVdjgmk1l
p1781
I1
sVdrn08cx
p1782
I1
sVdo7x6l2
p1783
I2
sVdiuxlrj
p1784
I1
sVd1hv5hz
p1785
I1
sVdraet47
p1786
I1
sVdb268af
p1787
I1
sVd9p2chi
p1788
I1
sVd2a5luc
p1789
I1
sVd3r40k4
p1790
I1
sVdjznux4
p1791
I1
sVd0dfvef
p1792
I1
sVdig50al
p1793
I1
sVdken791
p1794
I1
sVd49jt85
p1795
I1
sVd1rpg48
p1796
I1
sVd25nyq6
p1797
I1
sVcyq4mhc
p1798
I1
sVd8btrhq
p1799
I4
sVdh6uyat
p1800
I1
sVddiyasr
p1801
I1
sVd39kwrx
p1802
I1
sVd239n3b
p1803
I1
sVd23oaj5
p1804
I1
sVd5r3fv5
p1805
I1
sVdo0g2cv
p1806
I1
sVd0vcwf9
p1807
I1
sVdhvkbpw
p1808
I2
sVdp7ci4c
p1809
I1
sVd5mmv8s
p1810
I1
sVdphsmts
p1811
I8
sVd177xni
p1812
I1
sVd025q16
p1813
I1
sVdpl1wbq
p1814
I1
sVczomjmy
p1815
I1
sVd6s74q9
p1816
I1
sVdhq6blj
p1817
I2
sVd2tj29h
p1818
I1
sVde79kiw
p1819
I1
sVdgalvth
p1820
I1
sVd7g2o40
p1821
I1
sVd56yop5
p1822
I1
sVdip1rkd
p1823
I1
sVdphsgv5
p1824
I2
sVd188huo
p1825
I1
sVdbhfsv3
p1826
I1
sVdixq8fc
p1827
I1
sVdh0vwkp
p1828
I1
sVdnet9ej
p1829
I1
sVd39awkt
p1830
I1
sVd64tfyb
p1831
I1
sVdhz713e
p1832
I1
sVd7fzirg
p1833
I2
sVd51ueo3
p1834
I1
sVdfl3yo0
p1835
I2
sVdfb1t49
p1836
I1
sVd15x0ai
p1837
I2
sVd3l150e
p1838
I1
sVdrdhodp
p1839
I1
sVd4ysnp5
p1840
I1
sVdhu7hm1
p1841
I1
sVd1cmyfq
p1842
I1
sVd9mm9xx
p1843
I1
sVd3gh8o6
p1844
I3
sVdram8sa
p1845
I1
sVde71zbd
p1846
I1
sVdse1z97
p1847
I1
sVddipwzh
p1848
I1
sVdd6tfn8
p1849
I1
sVdhbndl8
p1850
I1
sVd313cta
p1851
I1
sVd7p5iq6
p1852
I1
sVd17scky
p1853
I1
sVcz9da9t
p1854
I1
sVdberu8w
p1855
I1
sVdk46l0n
p1856
I2
sVdi6jkgi
p1857
I1
sVdktc0bx
p1858
I1
sVdnmskou
p1859
I1
sVdg8xxs7
p1860
I1
sVdb1gbg3
p1861
I2
sVdkqz5by
p1862
I1
sVd5bgelv
p1863
I1
sVd9gs1yx
p1864
I1
sVdcky8f6
p1865
I1
sVd05q7eo
p1866
I1
sVd8tz6m1
p1867
I1
sVdafdmqj
p1868
I3
sVd6s2p4v
p1869
I1
sVdk4wm3i
p1870
I1
sVd5zgfhc
p1871
I1
sVd2o7141
p1872
I1
sVddwhhst
p1873
I1
sVddgk3yr
p1874
I1
sVds416wz
p1875
I1
sVdkgvu7g
p1876
I1
sVczay2n8
p1877
I1
sVcywmu0k
p1878
I1
sVdpm5izr
p1879
I1
sVd33ykfq
p1880
I1
sVdergrpf
p1881
I1
sVdsnk128
p1882
I1
sVdcn8yed
p1883
I1
sVdn296d9
p1884
I1
sVdg8jjt2
p1885
I1
sVde7h2fp
p1886
I1
sVcz4ovw0
p1887
I1
sVdjxw15d
p1888
I2
sVdj7a95f
p1889
I1
sVcyo9f64
p1890
I1
sVd1v7t2t
p1891
I1
sVdfdc6xh
p1892
I2
sVdnh9ejp
p1893
I1
sVd9riyie
p1894
I1
sVdgbq3je
p1895
I1
sVdrrskgy
p1896
I1
sVd6waq6m
p1897
I1
sVdac0i1k
p1898
I1
sVdffpppn
p1899
I1
sVd1lldvo
p1900
I1
sVd0gubip
p1901
I1
sVczyq298
p1902
I1
sVdazupwq
p1903
I1
sVdpmj5kd
p1904
I1
sVdd0t89o
p1905
I1
sVd656ct4
p1906
I3
sVdamejcf
p1907
I1
sVcyop3mh
p1908
I1
sVd3n1dae
p1909
I1
sVdfdly6m
p1910
I1
sVdhe4hlj
p1911
I1
sVdexaops
p1912
I1
sVd26w4q1
p1913
I1
sVd0w7o9m
p1914
I1
sVd9bh6sk
p1915
I2
sVd8o681r
p1916
I1
sVdh8iocu
p1917
I1
sVd7b4pms
p1918
I1
sVd9i0tyu
p1919
I1
sVdi601vt
p1920
I1
sVdi57ul1
p1921
I1
sVdgd3k16
p1922
I1
sVd5454hz
p1923
I2
sVcymr5aa
p1924
I1
sVczbuzcb
p1925
I1
sVdd2t5ye
p1926
I1
sVdhvquse
p1927
I2
sVdak1myw
p1928
I2
sVdhi68cr
p1929
I3
sVd510rp9
p1930
I1
sVdmt7hq7
p1931
I1
sVdsiqgud
p1932
I1
sVdblft8m
p1933
I1
sVd7g61ej
p1934
I2
sVdn2vbaj
p1935
I1
sVd3jvj8p
p1936
I1
sVd980dtf
p1937
I2
sVdbgzdww
p1938
I1
sVdeyu7ag
p1939
I1
sVdfh39qj
p1940
I1
sVdagyzf2
p1941
I1
sVdjmmks1
p1942
I1
sVddm1tv0
p1943
I1
sVcywntfr
p1944
I1
sVd1wnvhe
p1945
I1
sVda9t52q
p1946
I1
sVd0gqu2e
p1947
I1
sVcz8mms4
p1948
I1
sVczjjsj7
p1949
I1
sVd0rsgub
p1950
I2
sVdg3cc6r
p1951
I1
sVcznrv9s
p1952
I1
sVd3wysr2
p1953
I1
sVd7slg3w
p1954
I1
sVdgtq39n
p1955
I1
sVd3aewgz
p1956
I1
sVdbiatu5
p1957
I1
sVczpx51l
p1958
I1
sVddc02nw
p1959
I1
sVddp5cfu
p1960
I1
sVd5m1c2l
p1961
I1
sVd1i1nf7
p1962
I1
sVd6wjegk
p1963
I1
sVczarvl7
p1964
I1
sVd0tgdv5
p1965
I1
sVdt23ecz
p1966
I1
sVd0d35w2
p1967
I1
sVcz66fri
p1968
I1
sVd7e06yf
p1969
I1
sVdfknrjn
p1970
I1
sVdo9da52
p1971
I1
sVdoe7zwi
p1972
I2
sVdfanj1i
p1973
I1
sVda0wewy
p1974
I2
sVd73iud8
p1975
I1
sVd5v1q2k
p1976
I1
sVda2h3n7
p1977
I1
sVd4gm795
p1978
I3
sVd29m3ov
p1979
I1
sVdrmvpqp
p1980
I1
sVd9ouo6g
p1981
I2
sVdn45ncj
p1982
I1
sVd4i01nq
p1983
I1
sVdf50ogk
p1984
I1
sVd91eegb
p1985
I1
sVdknn3pr
p1986
I1
sVdha4e95
p1987
I1
sVd6boyuq
p1988
I1
sVd05tyrv
p1989
I1
sVdii7tfg
p1990
I1
sVd6mcywf
p1991
I1
sVdejc1j0
p1992
I1
sVcz34hn6
p1993
I1
sVd8s0ye0
p1994
I1
sVcz7w88d
p1995
I1
sVdex6ufw
p1996
I1
sVd0c163e
p1997
I1
sVdc0giy2
p1998
I1
sVdebmna0
p1999
I1
sVczktvjj
p2000
I1
sVdmfyc2n
p2001
I1
sVdby2uwz
p2002
I1
sVd3gd2q8
p2003
I15
sVdiq0ynt
p2004
I1
sVd25958i
p2005
I1
sVdhwvo45
p2006
I1
sVdfttws0
p2007
I2
sVddos16y
p2008
I1
sVd3d0484
p2009
I1
sVdh3bxpd
p2010
I1
sVd7sx4v1
p2011
I1
sVd1ab703
p2012
I1
sVdbecsqn
p2013
I2
sVdfbxxjt
p2014
I1
sVdn0u01z
p2015
I2
sVd1dvd4f
p2016
I1
sVdcxl8k2
p2017
I1
sVdi617ec
p2018
I1
sVd529lkz
p2019
I4
sVdiom3qt
p2020
I1
sVd5ig2kz
p2021
I1
sVda8hgzi
p2022
I1
sVd5ubykq
p2023
I1
sVd0pwt7n
p2024
I1
sVd3jecsj
p2025
I1
sVdqnx8lo
p2026
I1
sVdbr8nbi
p2027
I2
sVcyyu77o
p2028
I1
sVdgggz6c
p2029
I1
sVdc3dvnp
p2030
I1
sVdd445u7
p2031
I1
sVdclo0xj
p2032
I1
sVdb5aue1
p2033
I1
sVdfp8e3t
p2034
I1
sVdcw3h5g
p2035
I1
sVd1zsb46
p2036
I1
sVdorsgsj
p2037
I6
sVd3upo7n
p2038
I1
sVdksddrb
p2039
I1
sVdaoqbfk
p2040
I1
sVcylfygg
p2041
I1
sVdjzst2i
p2042
I1
sVdbpzvta
p2043
I1
sVdkifqyz
p2044
I1
sVd18b5xw
p2045
I1
sVdg8u9ec
p2046
I1
sVd6vkxus
p2047
I1
sVd7usbqm
p2048
I2
sVdih6nex
p2049
I1
sVdjb1est
p2050
I1
sVczsi7gb
p2051
I4
sVdb2n0dx
p2052
I1
sVdj9g1p6
p2053
I1
sVd9t19vb
p2054
I1
sVdajilyn
p2055
I1
sVdbe7wm9
p2056
I2
sVdpq5bw3
p2057
I1
sVd9r20mh
p2058
I1
sVdca1aik
p2059
I1
sVdc90pzb
p2060
I2
sVdt2xz0v
p2061
I1
sVdq9t4mo
p2062
I1
sVdmhnry4
p2063
I2
sVd5xzbnk
p2064
I1
sVdeev8vb
p2065
I1
sVd3qcmmm
p2066
I1
sVd4enelb
p2067
I1
sVdnyqpn8
p2068
I1
sVd7nqkhe
p2069
I1
sVd0878mn
p2070
I1
sVde4mv8u
p2071
I1
sVdbkux7q
p2072
I1
sVdee878g
p2073
I1
sVd5xg0l9
p2074
I1
sVd03csg2
p2075
I1
sVdht4ao9
p2076
I1
sVd5c4fsk
p2077
I1
sVdmfkfit
p2078
I1
sVd5bf8c5
p2079
I1
sVdjlyjun
p2080
I1
sVcyjyj0q
p2081
I1
sVdd6axyy
p2082
I2
sVd97cndg
p2083
I1
sVdgtowti
p2084
I1
sVdqmo6u7
p2085
I1
sVdn1lfxe
p2086
I2
sVd8olpkm
p2087
I1
sVd1bu9cw
p2088
I1
sVd1t2a02
p2089
I1
sVdkr3biz
p2090
I1
sVd87h5pr
p2091
I1
sVdapmgwg
p2092
I1
sVdtedq3m
p2093
I1
sVd2qy8v6
p2094
I1
sVdd4xf01
p2095
I1
sVd40duou
p2096
I1
sVcz6y2sf
p2097
I2
sVdecy09z
p2098
I1
sVd1q3z45
p2099
I1
sVdb6lc7v
p2100
I1
sVdojkdzd
p2101
I1
sVdqqqfaa
p2102
I1
sVdsmbycg
p2103
I1
sVdtcvwn0
p2104
I1
sVd0t785j
p2105
I1
sVd0wim1m
p2106
I1
sVdhlewdj
p2107
I1
sVddm2zgy
p2108
I1
sVd29bh2i
p2109
I1
sVd3wpogf
p2110
I1
sVd07ttxh
p2111
I1
sVd0p9fs0
p2112
I1
sVdaoefin
p2113
I1
sVdh1px6x
p2114
I1
sVdrtd78b
p2115
I1
sVd630uas
p2116
I1
sVdctd5tk
p2117
I1
sVdrl7q02
p2118
I2
sVd0iaja0
p2119
I1
sVd5igrda
p2120
I1
sVdkd9zdz
p2121
I1
sVdt679ap
p2122
I1
sVcztwwle
p2123
I1
sVda6jncn
p2124
I1
sVd2dm6z6
p2125
I1
sVdkhoza8
p2126
I1
sVcyj8rzy
p2127
I1
sVczhtpi6
p2128
I2
sVdf2gadb
p2129
I1
sVdag6vji
p2130
I1
sVdp5ep8l
p2131
I1
sVdcdk2xh
p2132
I1
sVdmpxt1l
p2133
I1
sVdsj2y59
p2134
I1
sVdo4un6x
p2135
I1
s.