(dp0
Vcyliapv
p1
I1
s.(dp0
Vcyo0vln
p1
I1
sVcyliapv
p2
I1
s.(dp0
Vcypsgna
p1
I1
sVcyliapv
p2
I1
s.(dp0
Vcytstfr
p1
I1
sVcyliapv
p2
I1
s.(dp0
Vcyu7i81
p1
I1
sVcyliapv
p2
I1
s.(dp0
Vcywayxs
p1
I1
sVcyliapv
p2
I1
s.(dp0
Vcz0mp6c
p1
I1
sVcyliapv
p2
I1
s.(dp0
Vcz0ydox
p1
I1
sVcyliapv
p2
I1
s.(dp0
Vcz8gntq
p1
I1
sVcyliapv
p2
I1
s.(dp0
Vczf5r2o
p1
I1
sVcyliapv
p2
I1
s.(dp0
Vczjp8fc
p1
I1
sVcyliapv
p2
I1
s.(dp0
Vczki1ip
p1
I1
sVcyliapv
p2
I1
s.(dp0
Vczky9ew
p1
I1
sVcyliapv
p2
I1
s.(dp0
Vczmgar0
p1
I1
sVcyliapv
p2
I1
s.(dp0
Vczmgar0
p1
I1
sVcyliapv
p2
I1
s.(dp0
Vczpm5jo
p1
I1
sVcyliapv
p2
I1
s.(dp0
Vczraf9v
p1
I1
sVcyliapv
p2
I1
s.(dp0
Vczvxrsm
p1
I1
sVcyliapv
p2
I1
s.(dp0
Vd00qu9q
p1
I1
sVcyliapv
p2
I1
s.(dp0
Vd00sf90
p1
I1
sVcyliapv
p2
I1
s.(dp0
Vd01ft35
p1
I1
sVcyliapv
p2
I1
s.(dp0
Vd024mzt
p1
I1
sVcyliapv
p2
I1
s.(dp0
Vd07ue64
p1
I1
sVcyliapv
p2
I1
s.(dp0
Vd07xtrj
p1
I1
sVcyliapv
p2
I1
s.(dp0
Vd094pyw
p1
I1
sVcyliapv
p2
I1
s.(dp0
Vd0956er
p1
I1
sVcyliapv
p2
I1
s.(dp0
Vd09gcws
p1
I1
sVcyliapv
p2
I1
s.(dp0
Vd09s0jq
p1
I1
sVcyliapv
p2
I1
s.(dp0
Vd0b6eg9
p1
I1
sVcyliapv
p2
I1
s.(dp0
Vd0c8xsx
p1
I1
sVcyliapv
p2
I1
s.(dp0
Vd0cpu2p
p1
I1
sVcyliapv
p2
I1
s.(dp0
Vd0ddzn6
p1
I1
sVcyliapv
p2
I1
s.(dp0
Vd0e12mt
p1
I1
sVcyliapv
p2
I1
s.(dp0
Vd0egrpz
p1
I1
sVcyliapv
p2
I1
s.(dp0
Vd0fjs7l
p1
I1
sVcyliapv
p2
I1
s.(dp0
Vd0fyku2
p1
I1
sVcyliapv
p2
I1
s.(dp0
Vd0fyku2
p1
I1
sVcyliapv
p2
I1
s.(dp0
Vd0fylbn
p1
I1
sVcyliapv
p2
I1
s.(dp0
Vd0gmnk4
p1
I1
sVcyliapv
p2
I1
s.(dp0
Vd0gqoms
p1
I1
sVcyliapv
p2
I1
s.(dp0
Vd0h5top
p1
I1
sVcyliapv
p2
I1
s.(dp0
Vd0hq6pr
p1
I1
sVcyliapv
p2
I1
s.(dp0
Vd0i4u9b
p1
I1
sVcyliapv
p2
I1
s.(dp0
Vd0jqkr6
p1
I1
sVcyliapv
p2
I1
s.(dp0
Vd0jzbtp
p1
I1
sVcyliapv
p2
I1
s.(dp0
Vd0lumo1
p1
I1
sVcyliapv
p2
I1
s.(dp0
Vd0pb5s3
p1
I1
sVcyliapv
p2
I1
s.(dp0
Vd0ptpt7
p1
I1
sVcyliapv
p2
I1
s.(dp0
Vd0qngwz
p1
I1
sVcyliapv
p2
I1
s.(dp0
Vd0sgus7
p1
I1
sVcyliapv
p2
I1
s.(dp0
Vd10smqz
p1
I1
sVcyliapv
p2
I1
s.(dp0
Vd10yo4r
p1
I1
sVcyliapv
p2
I1
s.(dp0
Vd13cmbm
p1
I1
sVcyliapv
p2
I1
s.(dp0
Vd15bsqc
p1
I1
sVcyliapv
p2
I1
s.(dp0
Vd19ehor
p1
I1
sVcyliapv
p2
I1
s.(dp0
Vd19gz9t
p1
I1
sVcyliapv
p2
I1
s.(dp0
Vd19lajq
p1
I1
sVcyliapv
p2
I1
s.(dp0
Vd1af638
p1
I1
sVcyliapv
p2
I1
s.(dp0
Vd1gk3ij
p1
I1
sVcyliapv
p2
I1
s.(dp0
Vd1h39ni
p1
I1
sVcyliapv
p2
I1
s.(dp0
Vd1ivs5e
p1
I1
sVcyliapv
p2
I1
s.(dp0
Vd1j7h8n
p1
I1
sVcyliapv
p2
I1
s.(dp0
Vd1jmd7i
p1
I1
sVcyliapv
p2
I1
s.(dp0
Vd1nv9p0
p1
I1
sVcyliapv
p2
I1
s.(dp0
Vd1rvpph
p1
I1
sVcyliapv
p2
I1
s.(dp0
Vd1u5g55
p1
I1
sVcyliapv
p2
I1
s.(dp0
Vd1vii2g
p1
I1
sVcyliapv
p2
I1
s.(dp0
Vd1vpjyc
p1
I1
sVcyliapv
p2
I1
s.(dp0
Vd1x3afd
p1
I1
sVcyliapv
p2
I1
s.(dp0
Vd277ohg
p1
I1
sVcyliapv
p2
I1
s.(dp0
Vd277ohg
p1
I1
sVcyliapv
p2
I1
s.(dp0
Vd29ia9p
p1
I1
sVcyliapv
p2
I1
s.(dp0
Vd2cvzm6
p1
I1
sVcyliapv
p2
I1
s.(dp0
Vd2dx2z8
p1
I1
sVcyliapv
p2
I1
s.(dp0
Vd2dzbf1
p1
I1
sVcyliapv
p2
I1
s.(dp0
Vd2h8pie
p1
I1
sVcyliapv
p2
I1
s.(dp0
Vd2hfdk2
p1
I1
sVcyliapv
p2
I1
s.(dp0
Vd2lyrsi
p1
I1
sVcyliapv
p2
I1
s.(dp0
Vd2oll01
p1
I1
sVcyliapv
p2
I1
s.(dp0
Vd2px7vn
p1
I1
sVcyliapv
p2
I1
s.(dp0
Vd2q5b2k
p1
I1
sVcyliapv
p2
I1
s.(dp0
Vd2qmeew
p1
I1
sVcyliapv
p2
I1
s.(dp0
Vd2rpgg4
p1
I1
sVcyliapv
p2
I1
s.(dp0
Vd2rpgg4
p1
I1
sVcyliapv
p2
I1
s.(dp0
Vd2rpgg4
p1
I1
sVcyliapv
p2
I1
s.(dp0
Vd2rpgg4
p1
I1
sVcyliapv
p2
I1
s.(dp0
Vd2t7p2f
p1
I1
sVcyliapv
p2
I1
s.(dp0
Vd2tndce
p1
I1
sVcyliapv
p2
I1
s.(dp0
Vd2tndce
p1
I1
sVcyliapv
p2
I1
s.(dp0
Vd2uq0l6
p1
I1
sVcyliapv
p2
I1
s.(dp0
Vd2yudv4
p1
I1
sVcyliapv
p2
I1
s.(dp0
Vd322spd
p1
I1
sVcyliapv
p2
I1
s.(dp0
Vd32zwvd
p1
I1
sVcyliapv
p2
I1
s.(dp0
Vd36yv2a
p1
I1
sVcyliapv
p2
I1
s.(dp0
Vd37lepj
p1
I1
sVcyliapv
p2
I1
s.(dp0
Vd37lepj
p1
I1
sVcyliapv
p2
I1
s.(dp0
Vd37lepj
p1
I1
sVcyliapv
p2
I1
s.(dp0
Vd3b0b0n
p1
I1
sVcyliapv
p2
I1
s.(dp0
Vd3b0b0n
p1
I1
sVcyliapv
p2
I1
s.(dp0
Vd3b4vwz
p1
I1
sVcyliapv
p2
I1
s.(dp0
Vd3bapm7
p1
I1
sVcyliapv
p2
I1
s.(dp0
Vd3dyr89
p1
I1
sVcyliapv
p2
I1
s.(dp0
Vd3f02uk
p1
I1
sVcyliapv
p2
I1
s.(dp0
Vd3f9wjk
p1
I1
sVcyliapv
p2
I1
s.(dp0
Vd3ga5qu
p1
I1
sVcyliapv
p2
I1
s.(dp0
Vd3hkvyb
p1
I1
sVcyliapv
p2
I1
s.(dp0
Vd3i7eks
p1
I1
sVcyliapv
p2
I1
s.(dp0
Vd3j0ox4
p1
I1
sVcyliapv
p2
I1
s.(dp0
Vd3(dp0
Vdteon1f
p1
I1
sVcyliapv
p2
I1
s.