(dp0
Vdkpnz4v
p1
I1
sVdoj4hlz
p2
I1
sVd25wc5a
p3
I1
sVdotfzzu
p4
I1
sVdnb51ep
p5
I1
sVdftujo0
p6
I1
sVd547c1e
p7
I1
sVd7jwbbi
p8
I1
sVdpqt466
p9
I4
sVds0d7jh
p10
I1
sVdd4sjyu
p11
I2
sVd9fbm9d
p12
I1
sVdr0jpvd
p13
I1
sVd1fb27a
p14
I1
sVdci2n31
p15
I1
sVdgnilo5
p16
I2
sVd4kt0su
p17
I1
sVd44bugt
p18
I1
sVdhr413r
p19
I1
sVds48749
p20
I1
sVd318cil
p21
I2
sVd4b80a3
p22
I1
sVd4wdazm
p23
I1
sVdh06sjv
p24
I1
sVdb7bl24
p25
I2
sVczejl3g
p26
I1
sVd5ljzig
p27
I1
sVd9k2txb
p28
I3
sVczhy139
p29
I1
sVdifhfsl
p30
I2
sVdiioap8
p31
I1
sVd14ajh6
p32
I1
sVd7i2sdr
p33
I1
sVdcdnjhs
p34
I2
sVcyi8ilf
p35
I1
sVdgnbin6
p36
I1
sVd50g377
p37
I1
sVds194nl
p38
I1
sVdpmqkve
p39
I1
sVdpsxokm
p40
I1
sVdb0t9wf
p41
I1
sVd3rl0ej
p42
I1
sVd8iyik2
p43
I1
sVdgqny2k
p44
I3
sVdpwdkav
p45
I1
sVd2q26d8
p46
I1
sVdr4pjw0
p47
I2
sVd0djhlu
p48
I1
sVdd2w3l2
p49
I1
sVd3nom87
p50
I1
sVcywt4er
p51
I1
sVdg78zkb
p52
I1
sVd4y2tp9
p53
I1
sVdauu54v
p54
I1
sVd7gspsk
p55
I1
sVdp8tzo7
p56
I1
sVd5btrfr
p57
I1
sVdgyn38s
p58
I2
sVdk48et9
p59
I2
sVdhb3e8x
p60
I1
sVd313m23
p61
I4
sVdor6yfm
p62
I2
sVdkeapdq
p63
I1
sVdrwr2p5
p64
I1
sVd5356m5
p65
I3
sVd6r4a2n
p66
I1
sVd13417s
p67
I1
sVd6aktsn
p68
I2
sVdj27a6y
p69
I1
sVd2zrgsv
p70
I1
sVda6w8pq
p71
I1
sVdgryfk6
p72
I1
sVdjnlte2
p73
I1
sVdc1casu
p74
I1
sVdhnyuko
p75
I2
sVd6ufo86
p76
I1
sVd18kvux
p77
I1
sVdpu8qlz
p78
I1
sVdijz3tm
p79
I1
sVdi6z0cb
p80
I1
sVdix4jdj
p81
I1
sVdpedw7f
p82
I2
sVdaaurfw
p83
I1
sVdcxhyqd
p84
I1
sVd1nhd7y
p85
I1
sVdb0uqu7
p86
I1
sVd2syj6c
p87
I1
sVd2eajsh
p88
I1
sVdoazrmm
p89
I1
sVcyiianv
p90
I1
sVd1qgffm
p91
I1
sVd37f6wy
p92
I1
sVdemwsh8
p93
I1
sVd3nyggu
p94
I1
sVdmq15p1
p95
I2
sVdobj2th
p96
I1
sVd2wr0p7
p97
I2
sVd6iqx1l
p98
I1
sVddk0jmb
p99
I2
sVd71gzqu
p100
I1
sVczi0b6e
p101
I1
sVdj740pp
p102
I1
sVd23ppga
p103
I1
sVd3g9yxr
p104
I1
sVde9ac7j
p105
I2
sVdbo7wnn
p106
I1
sVdrgrtma
p107
I1
sVd7h5o79
p108
I1
sVdsw33o3
p109
I1
sVd321okz
p110
I1
sVdqqwhwa
p111
I1
sVd3njzhf
p112
I1
sVdft4aay
p113
I1
sVd5ly3wa
p114
I2
sVda4bmt2
p115
I1
sVdi5ukv5
p116
I1
sVdc3ttz9
p117
I1
sVdb3x75x
p118
I1
sVdeqtnmy
p119
I1
sVd7sd7jf
p120
I1
sVdor9be8
p121
I1
sVd6a5fmv
p122
I1
sVdj2z4gy
p123
I1
sVdd78yn4
p124
I1
sVd39y2yw
p125
I1
sVd19f8py
p126
I1
sVd5yn3bg
p127
I2
sVddd2hhn
p128
I1
sVde1bkyw
p129
I1
sVczqmxnk
p130
I1
sVd9jbmt6
p131
I1
sVdpmvzpo
p132
I1
sVdeefvv9
p133
I1
sVdpau7m3
p134
I1
sVddselhf
p135
I1
sVd9cpl69
p136
I1
sVdnb8h64
p137
I1
sVd2ta8k0
p138
I1
sVdfxl7it
p139
I1
sVd5xr831
p140
I1
sVdhg7830
p141
I1
sVd22pp5g
p142
I1
sVd902wkq
p143
I1
sVd046rta
p144
I1
sVdsmh2ll
p145
I1
sVd9kc7kc
p146
I1
sVdjn45qo
p147
I1
sVczg35uy
p148
I1
sVdeddkwk
p149
I1
sVddnhe6a
p150
I1
sVdhmyuvd
p151
I2
sVdob1lps
p152
I1
sVds7je2x
p153
I1
sVd89425q
p154
I1
sVcz45jny
p155
I2
sVd9k44yn
p156
I1
sVd5vuoid
p157
I3
sVd1d9y2t
p158
I3
sVdsy3jbq
p159
I1
sVd3tdyst
p160
I1
sVdda380z
p161
I2
sVdidyu8y
p162
I1
sVdo0hmxy
p163
I1
sVdr74gnq
p164
I1
sVd4qzx19
p165
I1
sVdar59dm
p166
I1
sVdbf8ocm
p167
I1
sVd29zl97
p168
I1
sVd6hkcyc
p169
I1
sVdr45gzj
p170
I1
sVd13xayu
p171
I2
sVdj8ib64
p172
I2
sVd00v3bx
p173
I1
sVdo0i4uh
p174
I1
sVd1721pf
p175
I2
sVd6o5eej
p176
I1
sVdo682oi
p177
I1
sVd99psin
p178
I1
sVd46lnja
p179
I1
sVd69yqug
p180
I1
sVddq2b4h
p181
I1
sVdetjacb
p182
I1
sVdbc0kmv
p183
I1
sVcyrcmcr
p184
I1
sVd3jcphq
p185
I1
sVd85abk4
p186
I1
sVcytiuca
p187
I1
sVdds52y1
p188
I1
sVdfynyn2
p189
I1
sVczn3033
p190
I1
sVcymcccb
p191
I2
sVdff3cod
p192
I1
sVd6ptkts
p193
I3
sVdecirwp
p194
I2
sVd2a4qaa
p195
I2
sVdjqb3iz
p196
I3
sVd5h7ea1
p197
I2
sVd19j1zx
p198
I1
sVdepp5o6
p199
I2
sVd50g4ki
p200
I2
sVde4yd06
p201
I2
sVczkrqig
p202
I1
sVdgr0y7q
p203
I1
sVczf12qx
p204
I1
sVdjnw0gh
p205
I1
sVdd6pbhr
p206
I1
sVdervjud
p207
I1
sVdoxans7
p208
I2
sVd42p75w
p209
I1
sVdojezn3
p210
I1
sVda6wdg4
p211
I1
sVd5x2e0k
p212
I1
sVd9bauhy
p213
I1
sVdhfzxll
p214
I1
sVdjwmt1g
p215
I1
sVdpususb
p216
I2
sVdcbb3rl
p217
I1
sVdg8u2pj
p218
I1
sVcyjqvou
p219
I1
sVdrx5bjl
p220
I1
sVdc3r4f1
p221
I2
sVd5j9jqr
p222
I2
sVd9viyad
p223
I2
sVddalrnz
p224
I1
sVd4eqbsp
p225
I1
sVd0w5nlr
p226
I1
sVdhn8mzn
p227
I1
sVd6ik1rk
p228
I1
sVd2jzqtz
p229
I1
sVdigc7j7
p230
I1
sVdhly4y0
p231
I1
sVcyvdnza
p232
I3
sVd50fu6t
p233
I1
sVd2a5o9a
p234
I1
sVczi7b0o
p235
I2
sVdrah1r0
p236
I1
sVdby3pge
p237
I2
sVd0g5ync
p238
I1
sVdd6wbub
p239
I1
sVd90bpx6
p240
I1
sVdebxlov
p241
I2
sVd35593x
p242
I1
sVd51up6q
p243
I5
sVdhybdrh
p244
I1
sVdjt3llk
p245
I1
sVd10lvdl
p246
I1
sVdiugvf7
p247
I1
sVdgzgt40
p248
I1
sVdkge0q8
p249
I2
sVdeiirc6
p250
I1
sVd3h0693
p251
I1
sVd64bx9o
p252
I2
sVdhg1w51
p253
I1
sVdnxedi9
p254
I2
sVddnmsmc
p255
I1
sVdrq04ye
p256
I2
sVd6ve8ws
p257
I1
sVdgn0tb7
p258
I3
sVd40wz7b
p259
I1
sVdpua7zf
p260
I1
sVd7y42u9
p261
I1
sVdt2aiwc
p262
I1
sVdhtqhfw
p263
I1
sVdsh3ar0
p264
I1
sVdomo2g5
p265
I1
sVd9zaec5
p266
I1
sVd4vgmpd
p267
I1
sVdiebmz9
p268
I2
sVdk46xlb
p269
I1
sVdbprilg
p270
I4
sVde827ah
p271
I1
sVd9d30ng
p272
I1
sVczw00bi
p273
I1
sVczx3xfl
p274
I2
sVd6bj40c
p275
I1
sVczi0wny
p276
I3
sVd4s25u8
p277
I1
sVd7k3zyp
p278
I1
sVd392un9
p279
I2
sVd0pb6hj
p280
I7
sVdt2k720
p281
I1
sVdqlp90f
p282
I1
sVd9beqaz
p283
I1
sVdpzwjva
p284
I1
sVdpenbt4
p285
I1
sVdenao03
p286
I1
sVdb0t7vk
p287
I2
sVdjogl4z
p288
I1
sVdn9bg52
p289
I2
sVdddblgn
p290
I1
sVd7pta6f
p291
I1
sVd2dtgnm
p292
I1
sVdhfyrsf
p293
I1
sVcyyn0bs
p294
I5
sVd33fv00
p295
I1
sVdict8hp
p296
I1
sVcymnskd
p297
I1
sVdniqivn
p298
I1
sVdpel5pq
p299
I1
sVdaii4xe
p300
I1
sVdb1ijd2
p301
I1
sVd5nf0d2
p302
I1
sVczqu82v
p303
I1
sVdrxbn92
p304
I1
sVd3dea7l
p305
I1
sVdsaqblj
p306
I1
sVd1ho6b3
p307
I1
sVdd8lwfl
p308
I1
sVdb580qt
p309
I1
sVdmoq5z1
p310
I1
sVdbch5de
p311
I1
sVdbpdxw4
p312
I1
sVdojhi2d
p313
I1
sVdnyrt0m
p314
I2
sVd4qzqjc
p315
I1
sVd8l3oiq
p316
I1
sVd903bsf
p317
I1
sVd1e7ofr
p318
I1
sVd40j5ha
p319
I1
sVde61prq
p320
I1
sVdnwmoi8
p321
I1
sVdt0tv6s
p322
I1
sVd9kdvhz
p323
I1
sVdd4zbr9
p324
I1
sVd3a1r88
p325
I2
sVcz363qd
p326
I1
sVdql7a6k
p327
I1
sVd37u1n7
p328
I1
sVdmf2dkd
p329
I1
sVdoawxzs
p330
I2
sVd0rslj7
p331
I1
sVdt29xye
p332
I6
sVdghzo1r
p333
I1
sVdhjxoml
p334
I1
sVdom2yb1
p335
I1
sVd0eqc5t
p336
I1
sVdnu7nbh
p337
I1
sVdb10731
p338
I1
sVdhknomd
p339
I1
sVd9bmix7
p340
I1
sVdendnhd
p341
I1
sVdoync0n
p342
I1
sVd1ni4v9
p343
I6
sVdpxs7dn
p344
I1
sVdaz0rer
p345
I2
sVdandaes
p346
I1
sVd14hx1o
p347
I1
sVdoe55ek
p348
I1
sVdq1it0t
p349
I1
sVd6f34fc
p350
I1
sVd0smf4w
p351
I1
sVd3tch2z
p352
I2
sVd2jghiw
p353
I1
sVd5fi1eg
p354
I1
sVd7xpebo
p355
I1
sVdalmjy8
p356
I1
sVdckjj2r
p357
I1
sVdmq4ft6
p358
I1
sVdb56u2b
p359
I1
sVd2cxem2
p360
I2
sVddl7jjy
p361
I1
sVd2n9y95
p362
I1
sVd16bk4k
p363
I1
sVdoy9m25
p364
I1
sVd79wakz
p365
I1
sVdee5q7v
p366
I1
sVd347q01
p367
I1
sVddu7yme
p368
I1
sVddjyhws
p369
I2
sVdj803fj
p370
I1
sVdaa1vpo
p371
I1
sVd02qqse
p372
I1
sVdgfuyye
p373
I1
sVd0yyhke
p374
I2
sVdic6a3r
p375
I1
sVdiuw4x0
p376
I1
sVd84jrus
p377
I1
sVd5rhfr0
p378
I1
sVd5s6bgz
p379
I1
sVd1nvrb7
p380
I1
sVd8gsm3k
p381
I9
sVdgscgk5
p382
I1
sVdn0fni6
p383
I6
sVdtdv8dk
p384
I1
sVd01mda5
p385
I2
sVdd3jjmk
p386
I3
sVd9nxy8e
p387
I1
sVdrvnh2h
p388
I1
sVdt6qvo8
p389
I1
sVdhl7ok0
p390
I1
sVdemkva9
p391
I1
sVcyl586c
p392
I2
sVd6hkznk
p393
I2
sVdcssnus
p394
I1
sVdfh4e43
p395
I1
sVdctwaer
p396
I1
sVdgkbilp
p397
I1
sVd01lrzo
p398
I1
sVdhqpki4
p399
I2
sVd3watko
p400
I1
sVd5209f8
p401
I1
sVd5oqco7
p402
I1
sVdh9g6hz
p403
I1
sVdd7b9hk
p404
I1
sVdaxlj18
p405
I1
sVdog94k1
p406
I1
sVd0o2p7k
p407
I1
sVdmg9pt7
p408
I2
sVd26gnei
p409
I1
sVd1278wu
p410
I1
sVd4g5sp7
p411
I1
sVdcw5l9i
p412
I4
sVdchobw7
p413
I2
sVdjdhjn5
p414
I1
sVd0yuwd5
p415
I1
sVd2zz92j
p416
I1
sVd0xsos3
p417
I1
sVd9asqq3
p418
I1
sVdtdl66i
p419
I1
sVdt31r12
p420
I2
sVd3bprou
p421
I1
sVd36bbsx
p422
I2
sVd3w8lkz
p423
I1
sVdcg1wew
p424
I1
sVdp09w9q
p425
I1
sVdrv6ea7
p426
I1
sVdemvd20
p427
I1
sVdkjph7j
p428
I1
sVdnoqwsz
p429
I1
sVczh65we
p430
I1
sVdakj4in
p431
I2
sVd5wn5fu
p432
I1
sVd7ks9t6
p433
I1
sVd50xi5c
p434
I2
sVd5wzssa
p435
I1
sVd361kcc
p436
I1
sVdhd1y4g
p437
I1
sVd1wtz1t
p438
I1
sVdmlsd7a
p439
I1
sVdf64abb
p440
I1
sVcyl0diq
p441
I1
sVdbd3fhf
p442
I1
sVd2a9loq
p443
I1
sVd586htf
p444
I1
sVczyxszu
p445
I1
sVd17azrr
p446
I1
sVdofagyp
p447
I1
sVd4no6ey
p448
I1
sVdc0ttvh
p449
I1
sVdt0gqt6
p450
I1
sVd17eas8
p451
I3
sVdg8gwo3
p452
I1
sVdq9b1y6
p453
I1
sVdmqb7lq
p454
I1
sVd7qz0l0
p455
I1
sVdq2afer
p456
I2
sVd4tashb
p457
I1
sVdfjk64q
p458
I3
sVdd8gv27
p459
I1
sVdqzc8cp
p460
I1
sVczfpnjs
p461
I1
sVd0mb9d7
p462
I1
sVdrgd3qv
p463
I1
sVd8tzjaw
p464
I1
sVczlqj8i
p465
I1
sVdi18r4z
p466
I1
sVd3rz8cs
p467
I7
sVd2i8t6r
p468
I1
sVdt4vkuc
p469
I1
sVdnz62hl
p470
I1
sVd0v09h5
p471
I1
sVda7sbn1
p472
I1
sVdg4zmhl
p473
I1
sVczqydh6
p474
I1
sVd6sxh8w
p475
I1
sVdjrbiu0
p476
I1
sVdi5fj8m
p477
I1
sVd39eux9
p478
I2
sVdj24ts4
p479
I1
sVd9f5r5t
p480
I1
sVdbazqn9
p481
I2
sVd2fl73i
p482
I2
sVdg342da
p483
I1
sVd05751h
p484
I1
sVd18px9l
p485
I1
sVdojg292
p486
I1
sVdkvug5i
p487
I1
sVddbqab7
p488
I1
sVd445kzu
p489
I1
sVdk0x48q
p490
I1
sVddzugr9
p491
I1
sVdnmumlh
p492
I1
sVdbo7ygn
p493
I1
sVczqibju
p494
I1
sVd7kz6vb
p495
I2
sVd7k23oe
p496
I1
sVd0zyqyk
p497
I1
sVditcb8z
p498
I4
sVddbtl66
p499
I1
sVdmtz622
p500
I1
sVdmq7oja
p501
I1
sVczozk3l
p502
I1
sVdosxp2z
p503
I1
sVddwk5pq
p504
I1
sVdiu349l
p505
I1
sVdn0rmlh
p506
I2
sVd0kpq2z
p507
I1
sVd2a4o8p
p508
I1
sVd2z73rw
p509
I1
sVddnnop7
p510
I1
sVdkjp9g8
p511
I1
sVd4tazgq
p512
I1
sVddynb3h
p513
I1
sVd7kim3c
p514
I3
sVdksbnaq
p515
I1
sVd5mhgtf
p516
I2
sVd2774cd
p517
I1
sVd24r5kg
p518
I1
sVd5oqxpe
p519
I1
sVd2voreo
p520
I1
sVd2tttqw
p521
I1
sVd8woa8z
p522
I1
sVdb574lh
p523
I1
sVd4i8x3e
p524
I1
sVdmn4bob
p525
I1
sVd0na9sj
p526
I1
sVd4rzwp6
p527
I2
sVde1cd12
p528
I2
sVcyq8wd4
p529
I1
sVdila3c9
p530
I1
sVdimmay1
p531
I1
sVdf4i1bb
p532
I1
sVdp6sojj
p533
I1
sVd9aes5s
p534
I1
sVd85lp98
p535
I2
sVd8pasuj
p536
I2
sVczgnbay
p537
I1
sVd04vok2
p538
I1
sVd0eyijx
p539
I1
sVde5hwd6
p540
I1
sVd6quqa6
p541
I1
sVdr2rjat
p542
I1
sVdo9m1uy
p543
I2
sVdaj42uh
p544
I1
sVdpx2u30
p545
I1
sVda6hbh4
p546
I1
sVddbn1x7
p547
I3
sVd1cu4m9
p548
I1
sVdfdtvxq
p549
I4
sVd02rtki
p550
I1
sVd13gxpz
p551
I1
sVdsvlg46
p552
I1
sVdt1yicl
p553
I1
sVde1yf3n
p554
I2
sVd7odoac
p555
I1
sVd3y9117
p556
I2
sVda66zpo
p557
I1
sVdsb91vp
p558
I2
sVdmz2nni
p559
I1
sVdt3zjlp
p560
I1
sVd24ch4t
p561
I1
sVdc2b8mx
p562
I1
sVcz3ck1w
p563
I1
sVdnpdhdy
p564
I1
sVcz71783
p565
I2
sVczsrh04
p566
I1
sVdkityn1
p567
I1
sVdffxjoa
p568
I1
sVdr0iu4l
p569
I1
sVdg7f9ri
p570
I1
sVd4xt0uu
p571
I2
sVdg8ppkl
p572
I2
sVdfh2k28
p573
I1
sVd9fx3jc
p574
I1
sVcyyqfum
p575
I1
sVdj7m0ea
p576
I1
sVdsxxyv5
p577
I1
sVddoqt75
p578
I1
sVddpobp5
p579
I1
sVdcey137
p580
I1
sVdohnygp
p581
I1
sVdi2s2ti
p582
I1
sVdj69xr7
p583
I2
sVdsd4uuf
p584
I1
sVdjecg64
p585
I1
sVdoobhhn
p586
I1
sVd2bzuat
p587
I4
sVdfp33h6
p588
I1
sVdd2wx0j
p589
I1
sVdsycrsd
p590
I1
sVd33g9xs
p591
I1
sVcz4xwi6
p592
I1
sVdoe1stc
p593
I1
sVdadp97y
p594
I1
sVdedlwru
p595
I1
sVcyzn0m2
p596
I1
sVdijdclj
p597
I1
sVd4rpibm
p598
I1
sVd3tikay
p599
I3
sVdq1y0jo
p600
I1
sVd2hmbou
p601
I1
sVdks130k
p602
I1
sVdh0opkd
p603
I1
sVdh4lo3w
p604
I1
sVd4iwdsg
p605
I2
sVdmvg9ht
p606
I1
sVdjjtrko
p607
I1
sVdgbhqro
p608
I1
sVdf4jiw8
p609
I1
sVdi7v1rp
p610
I2
sVdkfm957
p611
I1
sVdksseh6
p612
I2
sVd1go83r
p613
I1
sVdg8pltk
p614
I1
sVdii4mhm
p615
I1
sVdgzf233
p616
I1
sVdh4w2qk
p617
I1
sVd7oktvt
p618
I1
sVdbr4o54
p619
I1
sVdswowca
p620
I1
sVcyyfof1
p621
I1
sVdcmivr8
p622
I1
sVdt8jukh
p623
I1
sVdbf4nfq
p624
I1
sVd931qgc
p625
I1
sVd5xnft6
p626
I1
sVdmg3vc1
p627
I1
sVdfyra5h
p628
I1
sVd2xessu
p629
I1
sVde9mjyb
p630
I3
sVdghktmt
p631
I1
sVczwebzq
p632
I1
sVdhtonp1
p633
I1
sVdpjn4le
p634
I1
sVd1rccr3
p635
I1
sVd6j19w3
p636
I1
sVd727uwo
p637
I1
sVd3w8z6d
p638
I1
sVczqif75
p639
I1
sVd8ruk7j
p640
I1
sVd1ev545
p641
I1
sVczwh2yp
p642
I1
sVdg1iy20
p643
I1
sVdeyx7ih
p644
I1
sVdqem1qr
p645
I1
sVdep7rpu
p646
I1
sVdj4gnog
p647
I1
sVdeldenf
p648
I1
sVd79i2vg
p649
I1
sVdp7obfg
p650
I2
sVdr86oka
p651
I1
sVd2mbt14
p652
I1
sVd19n87k
p653
I1
sVcyneiyi
p654
I1
sVd1az25p
p655
I1
sVdfstc0w
p656
I1
sVd4jaodo
p657
I3
sVdt3sx0a
p658
I1
sVdddgv1h
p659
I2
sVdd2zzjb
p660
I1
sVd4z3k8e
p661
I1
sVd330abo
p662
I1
sVd7i6t5r
p663
I1
sVdcd670l
p664
I1
sVdgxi5u3
p665
I1
sVd8bou12
p666
I1
sVdh2uyod
p667
I1
sVd1ibz5r
p668
I1
sVd2ipxxu
p669
I1
sVdcjnu9h
p670
I1
sVdn16a72
p671
I2
sVdf06eg1
p672
I1
sVd12ranq
p673
I1
sVd16tv0o
p674
I2
sVd9nxziu
p675
I2
sVdsfc4cv
p676
I1
sVd5h8o7k
p677
I1
sVcz6zllb
p678
I2
sVdq8nndz
p679
I2
sVczlqaxx
p680
I1
sVdnrs7hm
p681
I2
sVdt2lvpb
p682
I1
sVdiv08k0
p683
I2
sVd1859oc
p684
I1
sVd33g58r
p685
I1
sVd9bj06o
p686
I1
sVd24kn4x
p687
I1
sVd54wnpn
p688
I1
sVdog3cn4
p689
I1
sVdfdu97r
p690
I3
sVdb3crdr
p691
I3
sVd2241q1
p692
I1
sVczdwzxz
p693
I1
sVd5x2we3
p694
I1
sVdplxohw
p695
I2
sVd2chm7g
p696
I1
sVdcqef66
p697
I1
sVdt35qgf
p698
I1
sVdt43cx0
p699
I1
sVczv5nac
p700
I1
sVd3kg9ba
p701
I1
sVczi4wrx
p702
I6
sVdda2ltz
p703
I1
sVd15bsqc
p704
I1
sVdbkpy38
p705
I1
sVd7dwwfd
p706
I1
sVdrf8oth
p707
I1
sVd3ghiak
p708
I1
sVd3qa9hd
p709
I1
sVd9azowe
p710
I2
sVd1chxlo
p711
I3
sVdp7psi0
p712
I1
sVdqyshd7
p713
I2
sVdpqalaf
p714
I1
sVd0n3nce
p715
I1
sVdawf7dv
p716
I1
sVd3089p5
p717
I1
sVczmsuv6
p718
I1
sVd0ch9en
p719
I1
sVdgawg17
p720
I1
sVd8uir9b
p721
I1
sVdq7okqs
p722
I1
sVdhfysu6
p723
I1
sVczx51ev
p724
I1
sVcymghi4
p725
I7
sVdpmvdr4
p726
I1
sVdb2xdwr
p727
I2
sVdelagot
p728
I1
sVczj38k7
p729
I1
sVdgriwaf
p730
I2
sVdp7hlhh
p731
I1
sVd0p4zj1
p732
I3
sVdaoyxsd
p733
I1
sVdhrgcus
p734
I1
sVd2t40z1
p735
I1
sVdn2o3if
p736
I1
sVda0mhja
p737
I2
sVdbkbtvl
p738
I1
sVczqexw4
p739
I3
sVd2wl5t6
p740
I2
sVd0yz51w
p741
I1
sVd4qa744
p742
I1
sVdp33s5g
p743
I1
sVdfop2dq
p744
I1
sVd6tb5zr
p745
I1
sVdh79gkj
p746
I1
sVdeuxij2
p747
I1
sVdhedes9
p748
I4
sVd4rzvg0
p749
I1
sVd4v6xso
p750
I1
sVd415f54
p751
I1
sVdjn4855
p752
I4
sVd17nkr8
p753
I1
sVd28lkq2
p754
I1
sVd2wv092
p755
I1
sVdfpo9jx
p756
I1
sVdalsa3i
p757
I1
sVddhjtop
p758
I1
sVdou0ibx
p759
I1
sVdns8311
p760
I1
sVdeyaswk
p761
I1
sVd3ek4pc
p762
I1
sVdk4agjh
p763
I1
sVdi4nmdm
p764
I1
sVdpwvbad
p765
I1
sVdn9qr3j
p766
I1
sVdaf9p0y
p767
I1
sVd32s5bb
p768
I1
sVd0tp7wl
p769
I1
sVd3bg29t
p770
I1
sVdgazwow
p771
I2
sVd9in985
p772
I1
sVdr6snei
p773
I1
sVdckprr1
p774
I2
sVdkp15ze
p775
I1
sVdd6u2mj
p776
I1
sVd2ez10f
p777
I1
sVd68pglf
p778
I1
sVcz9zk1v
p779
I1
sVdjr5lm5
p780
I1
sVd5wyjh0
p781
I1
sVddxoim8
p782
I1
sVdosuanc
p783
I1
sVddec3b5
p784
I1
sVdfeyo97
p785
I1
sVdq7p8jy
p786
I2
sVdnchikh
p787
I1
sVd3zt825
p788
I1
sVdbdvb2v
p789
I1
sVd30nmgf
p790
I1
sVdhgjxlp
p791
I1
sVdhny9vo
p792
I1
sVd21bcju
p793
I2
sVdii6k5v
p794
I1
sVd18972j
p795
I1
sVdj7qma2
p796
I1
sVdqb5jdr
p797
I3
sVdghv3im
p798
I1
sVdgbzpuk
p799
I2
sVddatycx
p800
I1
sVd6wha5s
p801
I1
sVd1fay56
p802
I1
sVdk5rq2n
p803
I1
sVdgqf9tk
p804
I1
sVcznaoch
p805
I1
sVdi4fv5k
p806
I4
sVd2fvqb8
p807
I1
sVdi6nm8r
p808
I1
sVd6hn2p1
p809
I1
sVdkgu6vy
p810
I1
sVdqy8pno
p811
I1
sVd8j7da5
p812
I1
sVdgh8w2x
p813
I2
sVdo0r9k9
p814
I1
sVddhpizu
p815
I3
sVd6gers4
p816
I1
sVczm2mw8
p817
I1
sVdq82480
p818
I1
sVd8uh6fc
p819
I1
sVdo28cb0
p820
I1
sVd61gw5o
p821
I2
sVdax38ip
p822
I1
sVd3tkmy3
p823
I1
sVczqkual
p824
I1
sVd8u4472
p825
I1
sVdqswao3
p826
I1
sVd6w630d
p827
I1
sVdhwk0i2
p828
I1
sVdpusi4m
p829
I1
sVd6pmruj
p830
I1
sVdd04847
p831
I1
sVdfyjl8n
p832
I1
sVd0pm42h
p833
I2
sVdaokn47
p834
I1
sVczz251z
p835
I3
sVd1woik9
p836
I1
sVd8p14rn
p837
I2
sVdo0wa6j
p838
I2
sVdh22cdo
p839
I1
sVdpppkml
p840
I1
sVdf071wt
p841
I1
sVdazj7p3
p842
I1
sVd57lqrk
p843
I2
sVd0ou5wa
p844
I2
sVd24e30j
p845
I1
sVd0dkxp1
p846
I1
sVde8mwu0
p847
I2
sVdjr8sdr
p848
I1
sVddif6wc
p849
I1
sVd10qyim
p850
I1
sVd4pmbze
p851
I1
sVdhocln8
p852
I1
sVdsk3ygt
p853
I1
sVdjpoo0k
p854
I3
sVdjef4p5
p855
I1
sVdd68azv
p856
I4
sVd91t73k
p857
I1
sVcyv1w49
p858
I1
sVdn291yo
p859
I1
sVdmq6yri
p860
I1
sVdfmlnwb
p861
I1
sVczper05
p862
I1
sVdjkk1wy
p863
I1
sVd0yeepv
p864
I2
sVd6dvbxm
p865
I2
sVd18vm92
p866
I1
sVd0a0zrq
p867
I1
sVdnxtdjs
p868
I1
sVd3k59lw
p869
I1
sVd85mmvi
p870
I1
sVd2890z0
p871
I1
sVd80u5ou
p872
I1
sVdc2gn76
p873
I1
sVdhajwxg
p874
I1
sVd3462le
p875
I1
sVdnyvrmf
p876
I1
sVdb21lu9
p877
I1
sVds21c4t
p878
I1
sVczkjyu3
p879
I1
sVdom9q1p
p880
I1
sVdt39y4h
p881
I1
sVd317sez
p882
I1
sVcyiukzq
p883
I1
sVd8kdwf2
p884
I1
sVdk0ftwk
p885
I1
sVczbddev
p886
I1
sVczqxabt
p887
I1
sVdn1i8c0
p888
I2
sVdpw17pw
p889
I1
sVd241kvt
p890
I1
sVdc87efh
p891
I1
sVdkxb588
p892
I1
sVd8u7oyp
p893
I1
sVdryddbf
p894
I2
sVd5azsem
p895
I1
sVdi3mnpq
p896
I1
sVdd3hy26
p897
I1
sVdpown5j
p898
I1
sVdfo0i1f
p899
I5
sVcz8jw31
p900
I1
sVd1k9m2w
p901
I1
sVdejdtyl
p902
I1
sVdc3zxew
p903
I1
sVdght413
p904
I1
sVdbx6oik
p905
I1
sVdcptenx
p906
I1
sVdd3kvc8
p907
I1
sVdbn4n2h
p908
I1
sVd477sd8
p909
I3
sVdedkb4l
p910
I1
sVddts330
p911
I1
sVdgiu718
p912
I2
sVd2vp0mb
p913
I1
sVd22k3ir
p914
I1
sVd1fss41
p915
I1
sVda8ze0i
p916
I1
sVd3krquf
p917
I1
sVdj44p2l
p918
I1
sVd9qt3p6
p919
I2
sVd5qbwif
p920
I2
sVdgm3bqe
p921
I1
sVd7r9vg8
p922
I1
sVd85xvpd
p923
I3
sVdp1w8ds
p924
I1
sVdru2qs1
p925
I1
sVdh66cmr
p926
I1
sVd2maw2z
p927
I1
sVd50fpsv
p928
I1
sVd7wcia5
p929
I1
sVdn2qn7c
p930
I1
sVdgch93z
p931
I1
sVd2canhi
p932
I2
sVdobhcat
p933
I1
sVdb24rx5
p934
I1
sVd4vmyz9
p935
I1
sVd06vbz5
p936
I1
sVdhp5r9a
p937
I1
sVdgvpnpq
p938
I1
sVdd3k7iw
p939
I1
sVd9cc63u
p940
I2
sVd5wp16k
p941
I1
sVd160oi5
p942
I1
sVd242ngf
p943
I1
sVczhzvaw
p944
I1
sVd6w5d6d
p945
I1
sVd8iw6hm
p946
I1
sVd9xjehu
p947
I1
sVda13al3
p948
I1
sVdd9lt7v
p949
I1
sVdfickko
p950
I1
sVd6waa52
p951
I1
sVd0pxvsx
p952
I2
sVd1zjzhf
p953
I2
sVd2c7nvr
p954
I1
sVd75kpu7
p955
I2
sVdj0wv1y
p956
I1
sVdb0w48c
p957
I1
sVdmu0tx2
p958
I1
sVd1cnwse
p959
I3
sVdn9bnn7
p960
I2
sVdn1ey0r
p961
I2
sVdq06v20
p962
I2
sVd2gsagz
p963
I1
sVd2c01el
p964
I3
sVd4oes8x
p965
I2
sVdsasj35
p966
I2
sVddszdle
p967
I1
sVdosu7qn
p968
I1
sVdhc2mhe
p969
I2
sVdda1qfx
p970
I3
sVdhjqqne
p971
I1
sVd2otvg2
p972
I1
sVd9q1a3g
p973
I3
sVdi0exw2
p974
I1
sVdaob6br
p975
I1
sVd05l6oy
p976
I1
sVddk0ctv
p977
I1
sVd9rlluy
p978
I1
sVdcijrbk
p979
I1
sVddzkn27
p980
I1
sVdjdk2w6
p981
I1
sVdkls1yk
p982
I3
sVdphwesy
p983
I1
sVdd4u9qu
p984
I1
sVd5fgvp2
p985
I1
sVdb9fv50
p986
I1
sVd5ji1cu
p987
I2
sVd2bq14r
p988
I1
sVd7a1j8j
p989
I2
sVd8p9fny
p990
I1
sVd2nbd9b
p991
I2
sVcza00pb
p992
I1
sVdmx2x97
p993
I1
sVd6u2fsc
p994
I1
sVd39erg2
p995
I1
sVdiotr4y
p996
I1
sVddxd1ma
p997
I2
sVd54zmqf
p998
I1
sVdp0qa44
p999
I1
sVcz1gpe5
p1000
I1
sVdmhklst
p1001
I1
sVd34xt78
p1002
I1
sVdk2nsjg
p1003
I1
sVdkw4tpi
p1004
I1
sVd45w02o
p1005
I1
sVdoef95g
p1006
I1
sVddj0ap8
p1007
I1
sVd2pgvmc
p1008
I2
sVdqxm25c
p1009
I1
sVda55xac
p1010
I1
sVdnchpl7
p1011
I1
sVdncr2kq
p1012
I1
sVd0qa7k3
p1013
I1
sVcz8ykq6
p1014
I1
sVdhokmva
p1015
I1
sVdeg9b8w
p1016
I1
sVdmv9oik
p1017
I1
sVda65sxs
p1018
I2
sVczqjxa7
p1019
I3
sVd0s051n
p1020
I1
sVd783bn0
p1021
I1
sVdh5rwpr
p1022
I1
sVddf6dgq
p1023
I1
sVd7l5imb
p1024
I1
sVd8ooau1
p1025
I1
sVdqkeree
p1026
I3
sVdg2k4rc
p1027
I1
sVdbuyyu2
p1028
I2
sVd12qse1
p1029
I1
sVd6u8hli
p1030
I1
sVd07d8v2
p1031
I1
sVdbxd96a
p1032
I2
sVdqcvm3c
p1033
I1
sVdq04t8m
p1034
I2
sVdpz1u6o
p1035
I1
sVdqgvhf7
p1036
I2
sVd2c9rj9
p1037
I4
sVcyq67i9
p1038
I1
sVd8qypeb
p1039
I3
sVdex7mrt
p1040
I1
sVdokwx65
p1041
I1
sVd60451y
p1042
I1
sVdtiolsz
p1043
I1
sVdergp7h
p1044
I1
sVdmi5p01
p1045
I1
sVdej8o0v
p1046
I1
sVdimpj50
p1047
I1
sVd5qums6
p1048
I1
sVdehlu94
p1049
I1
sVdf19vdn
p1050
I1
sVdq0nk0v
p1051
I1
sVdfq3kdn
p1052
I1
sVd95iwz0
p1053
I1
sVdo9vpth
p1054
I1
sVd6akz4x
p1055
I4
sVd84k1rd
p1056
I4
sVd37757v
p1057
I2
sVd0h24ym
p1058
I2
sVd6abc7e
p1059
I1
sVdqdtggp
p1060
I1
sVdiwekm9
p1061
I1
sVd5ec3i3
p1062
I1
sVd4pnjjm
p1063
I3
sVd18ng1e
p1064
I1
sVdscdph1
p1065
I1
sVdd8auki
p1066
I1
sVd5jyron
p1067
I4
sVd316r0f
p1068
I1
sVdr01aq8
p1069
I1
sVd31b2wf
p1070
I4
sVd90pyi7
p1071
I1
sVd8sucgi
p1072
I1
sVdd7g1f9
p1073
I1
sVdhjh9bs
p1074
I1
sVddg237k
p1075
I1
sVd191s1p
p1076
I1
sVd8i3qzt
p1077
I1
sVdcyaap5
p1078
I1
sVdq3peh0
p1079
I2
sVd3j1t01
p1080
I1
sVd8u2pmw
p1081
I2
sVd6im1dr
p1082
I2
sVdi6k7pa
p1083
I1
sVdqiztns
p1084
I1
sVd9vdshf
p1085
I1
sVd32qw8g
p1086
I1
sVdalqvbb
p1087
I1
sVd4j9wbd
p1088
I3
sVde1fn6w
p1089
I1
sVd9fryqo
p1090
I1
sVdenhp20
p1091
I1
sVdgp09r2
p1092
I1
sVdbn6q5j
p1093
I1
sVd6v7kdl
p1094
I1
sVd15snai
p1095
I1
sVdkegnf2
p1096
I1
sVdk9d9dg
p1097
I1
sVdacqa1p
p1098
I1
sVd9ehnxl
p1099
I1
sVdo0p9uf
p1100
I1
sVd3i5v5x
p1101
I2
sVd9jn9aq
p1102
I1
sVdqb580q
p1103
I2
sVdnranch
p1104
I1
sVd7chosz
p1105
I1
sVd5xmqoe
p1106
I2
sVczqdigw
p1107
I1
sVdestax9
p1108
I1
sVdghhs64
p1109
I1
sVdkew4vu
p1110
I1
sVdju48p1
p1111
I1
sVdb0v8qr
p1112
I2
sVd39s2c6
p1113
I1
sVczhyy1u
p1114
I2
sVdps3gei
p1115
I1
sVd9e6m2t
p1116
I2
sVdqhvn8u
p1117
I1
sVd7cpmx8
p1118
I2
sVdcf3ojp
p1119
I8
sVdqc7p7w
p1120
I1
sVd3wl8nm
p1121
I1
sVdookv0t
p1122
I1
sVds4bn7e
p1123
I1
sVde5tzqd
p1124
I1
sVdnpin6e
p1125
I1
sVd5a6jzu
p1126
I1
sVddnnxml
p1127
I2
sVddyt5pb
p1128
I1
sVd2tlojh
p1129
I1
sVdesnqn0
p1130
I1
sVd5g0l6m
p1131
I1
sVdaludm7
p1132
I1
sVdjc0yw0
p1133
I1
sVdatnvlh
p1134
I1
sVdg1n93z
p1135
I1
sVd2uvre7
p1136
I3
sVd39zovh
p1137
I1
sVdmwot0c
p1138
I1
sVdk49efp
p1139
I1
sVd6iancv
p1140
I1
sVdir8inq
p1141
I1
sVd6vj74j
p1142
I1
sVdgj868p
p1143
I1
sVdsxw7ka
p1144
I2
sVdpkcoyi
p1145
I1
sVczhh5sy
p1146
I1
sVcyok0lc
p1147
I1
sVdf5s9fm
p1148
I4
sVdq3ya4a
p1149
I1
sVd05zkf8
p1150
I1
sVd1hqnmn
p1151
I1
sVd9c34pm
p1152
I1
sVdhrulm9
p1153
I1
sVd17tkmx
p1154
I1
sVdb64cu1
p1155
I1
sVde552ar
p1156
I1
sVcyz3lx5
p1157
I1
sVddalpas
p1158
I1
sVd4hpez8
p1159
I1
sVdo4ts4s
p1160
I1
sVdccfc6h
p1161
I1
sVdgx87hi
p1162
I1
sVdhugchz
p1163
I1
sVd79eh68
p1164
I1
sVdgtc58s
p1165
I1
sVcz2xq1w
p1166
I3
sVdb3spmi
p1167
I3
sVd6ug8z8
p1168
I1
sVd37pr1h
p1169
I1
sVdavwe3r
p1170
I1
sVczqchck
p1171
I1
sVdikdk0k
p1172
I2
sVdrxtms9
p1173
I2
sVd0xhk7s
p1174
I1
sVd9k6rkk
p1175
I2
sVdktb6my
p1176
I1
sVd2zzwnc
p1177
I2
sVd0rwva5
p1178
I1
sVd6inho8
p1179
I2
sVdkwaxue
p1180
I1
sVczhzqye
p1181
I1
sVd2jj6xn
p1182
I1
sVdaivob5
p1183
I4
sVdkg8463
p1184
I1
sVdiut6zl
p1185
I1
sVdrrs608
p1186
I1
sVda2p8y6
p1187
I1
sVcyvphu7
p1188
I1
sVd5otiq6
p1189
I1
sVdca2pl9
p1190
I1
sVd064rm5
p1191
I2
sVdklj4pj
p1192
I1
sVd20wrvw
p1193
I1
sVd6au5ll
p1194
I1
sVdt2wadf
p1195
I1
sVd84zn72
p1196
I1
sVdn6dgr7
p1197
I1
sVd3to2ug
p1198
I1
sVdn2wly9
p1199
I2
sVdiqquqs
p1200
I1
sVd2btr90
p1201
I1
sVdbczl9b
p1202
I2
sVdbqvryf
p1203
I1
sVd32xxga
p1204
I1
sVdbjozly
p1205
I1
sVd1t2x24
p1206
I1
sVdap92fw
p1207
I1
sVd7czzxn
p1208
I1
sVdho7t8b
p1209
I1
sVcyugv34
p1210
I1
sVdrbw8uc
p1211
I1
sVde4fjxl
p1212
I1
sVdd9gz17
p1213
I1
sVdmm23m8
p1214
I1
sVcyxkfbu
p1215
I1
sVczk6vy6
p1216
I2
sVd6w7ojt
p1217
I1
sVderj379
p1218
I2
sVd0ljsrg
p1219
I1
sVd84hs3e
p1220
I4
sVdew1n6q
p1221
I1
sVdbb6lt7
p1222
I1
sVczumpu3
p1223
I4
sVd6erib8
p1224
I1
sVd0ug9k1
p1225
I1
sVdb6bpux
p1226
I1
sVcz365b7
p1227
I2
sVd5n401w
p1228
I1
sVdaj5orf
p1229
I1
sVd70ypii
p1230
I2
sVdhvu6oa
p1231
I1
sVdk4ysuu
p1232
I1
sVdnp1ktt
p1233
I1
sVd53meeo
p1234
I1
sVdce2fqm
p1235
I1
sVd0y3buz
p1236
I1
sVdjc6dl9
p1237
I1
sVdplxptx
p1238
I1
sVd3173c9
p1239
I1
sVd856mx9
p1240
I1
sVdj3kfgk
p1241
I1
sVdc3tym1
p1242
I1
sVdslq4ci
p1243
I1
sVd90hmm4
p1244
I1
sVdke7qu8
p1245
I1
sVd2c57mb
p1246
I1
sVdbklfg0
p1247
I1
sVdaxmkqu
p1248
I2
sVd5useef
p1249
I1
sVdav8d37
p1250
I2
sVd1y66gk
p1251
I1
sVdoaeb5i
p1252
I1
sVd48b8wc
p1253
I1
sVdjdbrat
p1254
I1
sVd9ugpoc
p1255
I1
sVdda3gxy
p1256
I2
sVdg7qcf6
p1257
I2
sVd2d19yx
p1258
I1
sVd1d5fgj
p1259
I2
sVdcgwipg
p1260
I1
sVdoezu0d
p1261
I1
sVdgd3k16
p1262
I1
sVd313nb7
p1263
I1
sVd2elhjc
p1264
I2
sVddwzy7n
p1265
I1
sVd0u3cwn
p1266
I2
sVdt2a5qj
p1267
I4
sVdjn1fug
p1268
I1
sVdt2bavg
p1269
I1
sVdoyu7cf
p1270
I1
sVd0a9zua
p1271
I1
sVdn2wa9b
p1272
I1
sVddc3l4v
p1273
I2
sVd2ygryf
p1274
I1
sVdanjdas
p1275
I1
sVdfjgd8k
p1276
I2
sVdah3tv0
p1277
I1
sVdb86f5s
p1278
I2
sVdk8xj3j
p1279
I1
sVdawpcer
p1280
I2
sVcz4ik93
p1281
I2
sVd0ifoe7
p1282
I1
sVdrj578r
p1283
I2
sVd2mycoq
p1284
I1
sVdkpr0mf
p1285
I1
sVdmeq5jw
p1286
I1
sVd3937fz
p1287
I1
sVdkuj19l
p1288
I1
sVd53jx1f
p1289
I1
sVdi0vw4g
p1290
I2
sVdkj3tr0
p1291
I1
sVcyupiii
p1292
I1
sVd1dt0c2
p1293
I1
sVd9u1sxm
p1294
I1
sVdkcjzg5
p1295
I2
sVd9vkfiy
p1296
I1
sVdqwjxyw
p1297
I1
sVdeefqds
p1298
I2
sVden6n5x
p1299
I1
sVdq0363q
p1300
I1
sVdjo8yu0
p1301
I1
sVdcbhniw
p1302
I1
sVd8a9ola
p1303
I1
sVd9ieesf
p1304
I1
sVd0o77rh
p1305
I1
sVdpf4ttz
p1306
I1
sVdmq45bk
p1307
I2
sVdt2omlw
p1308
I1
sVd2ghicy
p1309
I1
sVd64ij1k
p1310
I1
sVdp8xco0
p1311
I3
sVdmmdumy
p1312
I1
sVdbujgx2
p1313
I1
sVcylb43z
p1314
I1
sVdbf5r48
p1315
I1
sVdp06566
p1316
I3
sVd0nd6ex
p1317
I1
sVd3dq6hl
p1318
I1
sVd4ph00i
p1319
I1
sVdmet45j
p1320
I1
sVd31al2j
p1321
I4
sVd1pf7hc
p1322
I1
sVdjfzra5
p1323
I1
sVd2dg2mt
p1324
I2
sVden7bdh
p1325
I1
sVdbkb1fk
p1326
I1
sVd3xrywm
p1327
I1
sVdaj112e
p1328
I1
sVdfyyrwp
p1329
I1
sVcyyms65
p1330
I3
sVd17e3lq
p1331
I3
sVcyx2zkr
p1332
I1
sVdk1gvcr
p1333
I2
sVdp3p8v7
p1334
I1
sVdcjnu09
p1335
I1
sVdahhnsj
p1336
I1
sVded5n3k
p1337
I1
sVd97ruvd
p1338
I1
sVddds82s
p1339
I1
sVd2wc5z9
p1340
I2
sVdjehsbm
p1341
I1
sVd0yv8lq
p1342
I1
sVda600mf
p1343
I1
sVdgbn41g
p1344
I1
sVdj9669p
p1345
I1
sVd18rvq8
p1346
I1
sVdr18g50
p1347
I2
sVdmlz9ol
p1348
I1
sVdawzd1x
p1349
I2
sVdkvnprz
p1350
I1
sVdelaf8e
p1351
I1
sVd6rmc2l
p1352
I1
sVdmulpam
p1353
I1
sVdddoz3j
p1354
I1
sVdnqvzg3
p1355
I1
sVd9emjf5
p1356
I1
sVd287kre
p1357
I7
sVd0xapww
p1358
I1
sVd08smck
p1359
I1
sVdojlitu
p1360
I1
sVdj9e7e9
p1361
I2
sVdk0nd6i
p1362
I1
sVdn5kv69
p1363
I3
sVczwnfvu
p1364
I2
sVd0do007
p1365
I1
sVdceqyrf
p1366
I1
sVd379b6x
p1367
I1
sVdmnhng8
p1368
I1
sVdn5u4ex
p1369
I1
sVdh50lui
p1370
I2
sVddplbtd
p1371
I1
sVd9iwi8b
p1372
I1
sVdky4r1z
p1373
I2
sVd19i9t1
p1374
I1
sVdhb7kae
p1375
I2
sVdqqtdrv
p1376
I2
sVd4xjxb2
p1377
I1
sVdndmsdm
p1378
I1
sVczdm3pn
p1379
I1
sVdh5b97j
p1380
I1
sVdest57h
p1381
I1
sVd8uls18
p1382
I1
sVd9nxoiz
p1383
I1
sVcyy18y1
p1384
I1
sVd2ehhjs
p1385
I1
sVdiyduqv
p1386
I1
s.