(dp0
Vdel7oih
p1
I1
sVdbxzi0l
p2
I1
sVd9obi5h
p3
I1
sVdelq8dc
p4
I1
sVcys3esl
p5
I1
sVczl7xug
p6
I1
sVdi7sm7k
p7
I1
sVd56lkxb
p8
I1
sVde970bl
p9
I1
sVdcyahjn
p10
I1
sVd0w0usq
p11
I1
sVdsd5xdq
p12
I1
sVdqw3zb4
p13
I1
sVdh8hted
p14
I1
sVdefv63v
p15
I1
sVd7ttrnk
p16
I2
sVdc5a9tj
p17
I1
sVd7hbn13
p18
I1
sVdcyhdwz
p19
I1
sVdbjnz84
p20
I1
sVd8k7a0w
p21
I1
sVdosaj08
p22
I1
sVdc8bf15
p23
I1
sVd500784
p24
I1
sVdo6y4ts
p25
I1
sVdaynrgb
p26
I1
sVdgaaiqv
p27
I1
sVd68l6y0
p28
I1
sVdqu3se3
p29
I1
sVd1y85mq
p30
I1
sVd0k58zt
p31
I1
sVd6m6ykl
p32
I1
sVcyozhwg
p33
I1
sVdh0e53f
p34
I1
sVd48s0t9
p35
I1
sVdphixho
p36
I1
sVcz5vh0s
p37
I1
sVdd3fx7e
p38
I1
sVdguyvzg
p39
I1
sVdjb9c5d
p40
I1
sVd7c55m4
p41
I1
sVd0lrm4s
p42
I1
sVd2k9lsf
p43
I1
sVdhm9w0n
p44
I1
sVczeuvdm
p45
I2
sVdd6oan7
p46
I1
sVd8t81vv
p47
I1
sVdfzrlhf
p48
I1
sVdtcb4pq
p49
I1
sVddy19cy
p50
I1
sVd7j72pa
p51
I1
sVdi67qkz
p52
I1
sVdho9uad
p53
I2
sVd5zqvd8
p54
I1
sVd4v4ihh
p55
I2
sVd7xdi5s
p56
I1
sVd65p9a8
p57
I1
sVd345wjs
p58
I1
sVd4q9p2r
p59
I1
sVdh0cu7n
p60
I1
sVdaz9989
p61
I1
sVd7op51u
p62
I1
sVdepzpci
p63
I1
sVdcdkfbn
p64
I1
sVdnvz0uv
p65
I1
sVdrueovi
p66
I1
sVdh5qmlr
p67
I1
sVdgvs9qb
p68
I1
sVcze4re4
p69
I1
sVdafmjnf
p70
I1
sVcztfr3k
p71
I1
sVd6ozlxn
p72
I2
sVdmkaoy7
p73
I1
sVdjf4mf5
p74
I1
sVdfknb9f
p75
I1
sVdczuepl
p76
I1
sVczwm3ej
p77
I1
sVdiutg1r
p78
I1
sVded5m59
p79
I1
sVdbx8m1c
p80
I1
sVdd93sik
p81
I1
sVda6tktz
p82
I1
sVdixq8fc
p83
I2
sVdc6n0vh
p84
I1
sVdbv948y
p85
I1
sVdeiei57
p86
I1
sVdfaqkkr
p87
I1
sVd8e8kek
p88
I1
sVdcdik1b
p89
I1
sVdg66w1i
p90
I1
sVdilgekk
p91
I1
sVdqfuz9k
p92
I1
sVd55gs9m
p93
I1
sVdpbtuqt
p94
I1
sVd68fjsd
p95
I1
sVd68maen
p96
I1
sVdn7tndi
p97
I1
sVd0p4t3g
p98
I1
sVd8iejtw
p99
I1
sVd16xlm2
p100
I1
s.