(dp0
Vcyqfbg0
p1
I1
s.(dp0
Vcyqgbre
p1
I1
sVcyqfbg0
p2
I1
s.(dp0
Vcyqgbre
p1
I1
sVcyqfbg0
p2
I1
s.(dp0
Vcyqm7zg
p1
I1
sVcyqfbg0
p2
I1
s.(dp0
Vcyqm7zg
p1
I1
sVcyqfbg0
p2
I1
s.(dp0
Vcyqm7zg
p1
I1
sVcyqfbg0
p2
I1
s.(dp0
Vd415ola
p1
I1
sVcyqfbg0
p2
I1
s.(dp0
Vd83g8l4
p1
I1
sVcyqfbg0
p2
I1
s.(dp0
Vd83zui0
p1
I1
sVcyqfbg0
p2
I1
s.(dp0
Vdbwhsd0
p1
I1
sVcyqfbg0
p2
I1
s.(dp0
Vddrs0pj
p1
I1
sVcyqfbg0
p2
I1
s.(dp0
Vddrs0pj
p1
I1
sVcyqfbg0
p2
I1
s.(dp0
Vde26uqn
p1
I1
sVcyqfbg0
p2
I1
s.(dp0
Vdgqu9cq
p1
I1
sVcyqfbg0
p2
I1
s.(dp0
Vdh2qzw8
p1
I1
sVcyqfbg0
p2
I1
s.(dp0
Vdhygy4b
p1
I1
sVcyqfbg0
p2
I1
s.(dp0
Vdhzpjnh
p1
I1
sVcyqfbg0
p2
I1
s.(dp0
Vdipi349
p1
I1
sVcyqfbg0
p2
I1
s.(dp0
Vdjyrsoy
p1
I1
sVcyqfbg0
p2
I1
s.(dp0
Vdk9hkvt
p1
I1
sVcyqfbg0
p2
I1
s.(dp0
Vdkb91as
p1
I1
sVcyqfbg0
p2
I1
s.(dp0
Vdkb91as
p1
I1
sVcyqfbg0
p2
I1
s.(dp0
Vdph4d4q
p1
I1
sVcyqfbg0
p2
I1
s.(dp0
Vdpmhb5b
p1
I1
sVcyqfbg0
p2
I1
s.(dp0
Vds4nd37
p1
I1
sVcyqfbg0
p2
I1
s.