(dp0
Vd95naor
p1
I1
sVdpqrxni
p2
I1
sVdjmw2mp
p3
I1
sVda2itnn
p4
I1
sVd9mugnd
p5
I2
sVczdkghg
p6
I1
sVdplgg4m
p7
I2
sVd1614ag
p8
I1
sVd3ntw26
p9
I1
sVd3nqace
p10
I1
sVd7ikutg
p11
I1
sVd1d2brw
p12
I3
sVd8q7f25
p13
I1
sVd3nk8yx
p14
I1
sVd7k7241
p15
I1
sVd83m96c
p16
I1
sVd3ntbsd
p17
I1
sVd3zw7bm
p18
I1
sVd291c2b
p19
I1
sVdjytjb0
p20
I1
sVd39dq0l
p21
I1
sVddwgmuh
p22
I1
sVdc8ziby
p23
I1
sVdb04srx
p24
I1
sVdbwx378
p25
I1
sVdcuhllu
p26
I1
sVd399cah
p27
I1
sVd3nll27
p28
I1
sVd39dbx7
p29
I1
sVczpqwuw
p30
I1
sVdcbji04
p31
I1
sVdomwkoy
p32
I1
sVd4nvnm3
p33
I1
s.