(dp0
Vd37cce5
p1
I1
s.(dp0
Vd37cce5
p1
I1
sVd4s72yk
p2
I1
s.(dp0
Vd37cce5
p1
I1
sVd7a8p12
p2
I1
s.(dp0
Vd37cce5
p1
I1
sVd9lqnxw
p2
I1
s.(dp0
Vd37cce5
p1
I1
sVda11bnt
p2
I1
s.(dp0
Vd37cce5
p1
I1
sVda20nj5
p2
I1
s.