(dp0
Vd9rk2s6
p1
I1
sVda0z05r
p2
I1
sVdepq78f
p3
I1
sVda86lv2
p4
I1
sVd4jystw
p5
I1
sVdkirty6
p6
I1
sVd8x7952
p7
I1
sVdns59hf
p8
I1
sVddmzkdh
p9
I1
sVcz5hclu
p10
I1
sVczgu1qr
p11
I1
sVdex8qi5
p12
I1
sVcyi960h
p13
I1
s.