(dp0
Vd9rk2s6
p1
I1
sVd10r7q3
p2
I1
sVdgf354m
p3
I1
sVdnicbfl
p4
I1
sVd1zcjif
p5
I2
sVd0s07nd
p6
I1
sVczos5gj
p7
I1
sVd9rtkav
p8
I1
sVd0dx8w4
p9
I1
sVdokujdy
p10
I1
sVd7b7cdg
p11
I1
sVd9hxn2s
p12
I1
s.