(dp0
Vdsu8u9t
p1
I1
sVdfw38xm
p2
I1
sVd1kvzpb
p3
I1
sVdjopai2
p4
I1
sVd1q21cz
p5
I1
sVd5uxq15
p6
I1
sVd1ftzwt
p7
I1
sVd9vfnxl
p8
I1
sVczy786w
p9
I1
sVdqftp4e
p10
I1
sVdarf1bv
p11
I1
sVde97hgs
p12
I1
sVdb4uoe6
p13
I1
sVd6cd97o
p14
I1
s.