(dp0
Vczzdlej
p1
I1
sVda1cud1
p2
I1
sVdkg0lyh
p3
I1
sVdb44x3c
p4
I1
sVdenii44
p5
I2
sVdkia1ee
p6
I1
sVdq9vifp
p7
I1
sVdeuyu41
p8
I1
sVd3u1dzz
p9
I1
sVd70jvwf
p10
I1
sVcz4ji5l
p11
I1
sVdqbdjui
p12
I1
sVd2z3v6t
p13
I1
sVd8ow0hx
p14
I1
sVczq3v80
p15
I1
sVd019ow5
p16
I1
sVd7u4p04
p17
I2
sVd9w2nfa
p18
I1
sVczws0l9
p19
I2
sVdf2yk9l
p20
I1
sVdaw4io5
p21
I1
sVd6hfach
p22
I1
sVdf0o3zd
p23
I1
sVd8lgo4b
p24
I1
s.