(dp0
Vd0crhii
p1
I1
s.(dp0
Vd22qre6
p1
I1
sVd0crhii
p2
I1
s.(dp0
Vd0crhii
p1
I1
sVd3i0zeu
p2
I1
s.(dp0
Vd0crhii
p1
I1
sVd3i0zeu
p2
I1
s.(dp0
Vd0crhii
p1
I1
sVd3i0zeu
p2
I1
s.(dp0
Vd0crhii
p1
I1
sVd3i0zeu
p2
I1
s.(dp0
Vd4o1z1m
p1
I1
sVd0crhii
p2
I1
s.(dp0
Vd0crhii
p1
I1
sVd575r6v
p2
I1
s.(dp0
Vd6q2x14
p1
I1
sVd0crhii
p2
I1
s.(dp0
Vd96stcr
p1
I1
sVd0crhii
p2
I1
s.(dp0
Vd0crhii
p1
I1
sVd9lrbqj
p2
I1
s.(dp0
Vd9pgxxi
p1
I1
sVd0crhii
p2
I1
s.(dp0
Vd9pgxxi
p1
I1
sVd0crhii
p2
I1
s.(dp0
Vd9pgxxi
p1
I1
sVd0crhii
p2
I1
s.(dp0
Vd9pgxxi
p1
I1
sVd0crhii
p2
I1
s.(dp0
Vdbaci99
p1
I1
sVd0crhii
p2
I1
s.(dp0
Vdbaci99
p1
I1
sVd0crhii
p2
I1
s.(dp0
Vddlkzf2
p1
I1
sVd0crhii
p2
I1
s.(dp0
Vd0crhii
p1
I1
sVddrayj0
p2
I1
s.(dp0
Vd0crhii
p1
I1
sVddrayj0
p2
I1
s.(dp0
Vd0crhii
p1
I1
sVddrayj0
p2
I1
s.(dp0
Vd0crhii
p1
I1
sVddrayj0
p2
I1
s.(dp0
Vd0crhii
p1
I1
sVddrayj0
p2
I1
s.(dp0
Vd0crhii
p1
I1
sVddrayj0
p2
I1
s.(dp0
Vd0crhii
p1
I1
sVddrayj0
p2
I1
s.(dp0
Vd0crhii
p1
I1
sVdekdxkw
p2
I1
s.(dp0
Vd0crhii
p1
I1
sVdf4x9jc
p2
I1
s.(dp0
Vd0crhii
p1
I1
sVdioipvo
p2
I1
s.(dp0
Vd0crhii
p1
I1
sVdioipvo
p2
I1
s.(dp0
Vdj6ingz
p1
I1
sVd0crhii
p2
I1
s.(dp0
Vdj8bcij
p1
I1
sVd0crhii
p2
I1
s.(dp0
Vdj8bcij
p1
I1
sVd0crhii
p2
I1
s.(dp0
Vdj8bcij
p1
I1
sVd0crhii
p2
I1
s.(dp0
Vdk7oqaz
p1
I1
sVd0crhii
p2
I1
s.(dp0
Vdk7oqaz
p1
I1
sVd0crhii
p2
I1
s.