(dp0
Vczx1zq6
p1
I1
s.(dp0
Vd02r1li
p1
I1
sVczx1zq6
p2
I1
s.(dp0
Vd05o8vu
p1
I1
sVczx1zq6
p2
I1
s.(dp0
Vd1ab703
p1
I1
sVczx1zq6
p2
I1
s.(dp0
Vd1myoka
p1
I1
sVczx1zq6
p2
I1
s.(dp0
Vd1myoka
p1
I1
sVczx1zq6
p2
I1
s.(dp0
Vd36sm51
p1
I1
sVczx1zq6
p2
I1
s.(dp0
Vd36sm51
p1
I1
sVczx1zq6
p2
I1
s.(dp0
Vd6hcb7j
p1
I1
sVczx1zq6
p2
I1
s.(dp0
Vd8rcth0
p1
I1
sVczx1zq6
p2
I1
s.(dp0
Vd8rcth0
p1
I1
sVczx1zq6
p2
I1
s.(dp0
Vdacru2l
p1
I1
sVczx1zq6
p2
I1
s.(dp0
Vdam7c5m
p1
I1
sVczx1zq6
p2
I1
s.(dp0
Vddd7fdt
p1
I1
sVczx1zq6
p2
I1
s.(dp0
Vdk4fnho
p1
I1
sVczx1zq6
p2
I1
s.