(dp0
Vdrt5uuj
p1
I1
sVd0w7jjl
p2
I1
sVdarkg65
p3
I1
sVcztrpxp
p4
I1
sVdfs3ss3
p5
I1
sVdctb7ju
p6
I1
sVd6tn0kd
p7
I1
sVdf2045t
p8
I1
sVd1w88pr
p9
I1
sVd0tuiz9
p10
I1
sVcymf3ri
p11
I1
sVdbvkbev
p12
I1
sVd7bbiti
p13
I1
sVd4jlg8c
p14
I1
sVdnxu714
p15
I1
sVd039o1r
p16
I1
sVd6vmmlx
p17
I1
sVdhelvn9
p18
I1
sVdnfp9k2
p19
I1
sVdnnpkmr
p20
I1
sVdbts2lx
p21
I1
sVds55urg
p22
I1
sVdk3vysm
p23
I1
sVd219l8t
p24
I1
sVddnpmca
p25
I1
sVd2p9cb5
p26
I1
sVdgx6n9b
p27
I1
sVddvw8o4
p28
I1
sVd3hfimq
p29
I1
sVd6adsu4
p30
I1
sVd9e72yj
p31
I1
sVd0iaja0
p32
I1
sVdevukb2
p33
I1
sVd15pvxk
p34
I1
sVd3plaqp
p35
I1
sVd1e16u6
p36
I1
sVdey3wey
p37
I1
sVd7h2ere
p38
I1
sVd39umeu
p39
I1
sVdbq1z7a
p40
I1
sVd3ye6e2
p41
I1
sVd045ib2
p42
I1
sVd235jwt
p43
I1
sVdeetgb1
p44
I1
sVd6av5vq
p45
I1
sVdd78ntk
p46
I1
sVdrygoqo
p47
I1
sVdflvf6p
p48
I1
sVdqqfrxm
p49
I1
sVdp8611c
p50
I1
sVczyxn5m
p51
I1
sVd250n9p
p52
I1
sVd4iqdsl
p53
I1
sVdnhrw3h
p54
I1
sVd372kgq
p55
I1
sVdn1i8c0
p56
I2
sVd0hvamg
p57
I1
sVd4attla
p58
I1
sVd2acf3z
p59
I1
sVd62p873
p60
I1
sVdjc2new
p61
I1
sVd4jang2
p62
I1
sVdpnt40u
p63
I1
sVd0u82ss
p64
I1
sVd3sk20q
p65
I1
sVdt12e4a
p66
I1
sVd3mhy03
p67
I1
sVcz6v93s
p68
I1
s.