(dp0
Vd82or7d
p1
I1
sVdexsefv
p2
I1
sVcyuhze8
p3
I1
sVdgf72bu
p4
I2
sVd20ra8i
p5
I1
sVdrzyb20
p6
I1
sVd24zl9n
p7
I7
sVd7jdx3z
p8
I1
sVdjujfem
p9
I1
sVdbjvqo2
p10
I1
sVdg3yi7r
p11
I1
sVd2iv0ms
p12
I1
sVd1jlh1r
p13
I2
sVd4a102r
p14
I1
sVdp5p2jy
p15
I1
s.