(dp0
Vd0k9ps9
p1
I3
sVdfgs89z
p2
I1
sVdgqnu7y
p3
I1
sVdpjlib8
p4
I1
sVd539rvq
p5
I1
sVdc5j7m6
p6
I1
sVdeuywfn
p7
I1
sVd1flh6m
p8
I1
sVdk2ye3e
p9
I1
sVdj4yzdk
p10
I1
sVd71h632
p11
I1
sVdq226fp
p12
I1
sVdnw664m
p13
I1
sVd5vvege
p14
I1
sVde6p3x7
p15
I1
sVczvhlc9
p16
I1
sVcypej95
p17
I1
sVdq36knn
p18
I1
sVd2tnsv4
p19
I1
sVd3ea91v
p20
I1
sVd0hnafl
p21
I1
sVcymr9rh
p22
I1
s.