(dp0
Vcyp2ymb
p1
I1
s.(dp0
Vd016atx
p1
I1
sVcyp2ymb
p2
I1
s.(dp0
Vd176dhh
p1
I1
sVcyp2ymb
p2
I1
s.(dp0
Vd1l734r
p1
I1
sVcyp2ymb
p2
I1
s.(dp0
Vcyp2ymb
p1
I1
sVd2x085c
p2
I1
s.(dp0
Vcyp2ymb
p1
I1
sVd2x085c
p2
I1
s.(dp0
Vcyp2ymb
p1
I1
sVd2x1ki1
p2
I1
s.(dp0
Vcyp2ymb
p1
I1
sVd4n0jh5
p2
I1
s.(dp0
Vcyp2ymb
p1
I1
sVd66m0gd
p2
I1
s.(dp0
Vd6i1jyv
p1
I1
sVcyp2ymb
p2
I1
s.(dp0
Vcyp2ymb
p1
I1
sVd6x9qp2
p2
I1
s.(dp0
Vd7lttiq
p1
I1
sVcyp2ymb
p2
I1
s.(dp0
Vd8ox0zo
p1
I1
sVcyp2ymb
p2
I1
s.(dp0
Vcyp2ymb
p1
I1
sVdau54nz
p2
I1
s.(dp0
Vdbi9kjw
p1
I1
sVcyp2ymb
p2
I1
s.(dp0
Vdcccuro
p1
I1
sVcyp2ymb
p2
I1
s.(dp0
Vdcuv3vq
p1
I1
sVcyp2ymb
p2
I1
s.(dp0
Vcyp2ymb
p1
I1
sVdfmce01
p2
I1
s.(dp0
Vdfpq8k6
p1
I1
sVcyp2ymb
p2
I1
s.(dp0
Vdg8d597
p1
I1
sVcyp2ymb
p2
I1
s.(dp0
Vdiprbph
p1
I1
sVcyp2ymb
p2
I1
s.(dp0
Vdisf7qh
p1
I1
sVcyp2ymb
p2
I1
s.(dp0
Vdixqqgk
p1
I1
sVcyp2ymb
p2
I1
s.(dp0
Vdixqqgk
p1
I1
sVcyp2ymb
p2
I1
s.(dp0
Vdp45owj
p1
I1
sVcyp2ymb
p2
I1
s.(dp0
Vdp45owj
p1
I1
sVcyp2ymb
p2
I1
s.(dp0
Vdpwg69q
p1
I1
sVcyp2ymb
p2
I1
s.(dp0
Vdpws1q0
p1
I1
sVcyp2ymb
p2
I1
s.