(dp0
Vcyi4uh1
p1
I1
s.(dp0
Vcyi4uh1
p1
I2
s.(dp0
Vcyi6isw
p1
I1
sVcyi4uh1
p2
I1
s.(dp0
Vcyi9xar
p1
I1
sVcyi4uh1
p2
I1
s.(dp0
Vcyiduby
p1
I1
sVcyi4uh1
p2
I1
s.(dp0
Vcyijnl2
p1
I1
sVcyi4uh1
p2
I1
s.(dp0
Vcyi4uh1
p1
I1
sVcyiu785
p2
I1
s.(dp0
Vcyiwwh7
p1
I1
sVcyi4uh1
p2
I1
s.(dp0
Vcyj2qmw
p1
I1
sVcyi4uh1
p2
I1
s.(dp0
Vcyj3ikr
p1
I1
sVcyi4uh1
p2
I1
s.(dp0
Vcyj3ikr
p1
I1
sVcyi4uh1
p2
I1
s.(dp0
Vcyj3ikr
p1
I1
sVcyi4uh1
p2
I1
s.(dp0
Vcyj9b2h
p1
I1
sVcyi4uh1
p2
I1
s.(dp0
Vcyjd0u3
p1
I1
sVcyi4uh1
p2
I1
s.(dp0
Vcyi4uh1
p1
I1
sVcyjh8xj
p2
I1
s.(dp0
Vcyjkzek
p1
I1
sVcyi4uh1
p2
I1
s.(dp0
Vcyjr2uj
p1
I1
sVcyi4uh1
p2
I1
s.(dp0
Vcyjr2uj
p1
I1
sVcyi4uh1
p2
I1
s.(dp0
Vcyjw0jl
p1
I1
sVcyi4uh1
p2
I1
s.(dp0
Vcyjw0jl
p1
I1
sVcyi4uh1
p2
I1
s.(dp0
Vcykfqmw
p1
I1
sVcyi4uh1
p2
I1
s.(dp0
Vcykh0av
p1
I1
sVcyi4uh1
p2
I1
s.(dp0
Vcyi4uh1
p1
I1
sVcykimro
p2
I1
s.(dp0
Vcykk2a8
p1
I1
sVcyi4uh1
p2
I1
s.(dp0
Vcyknmdo
p1
I1
sVcyi4uh1
p2
I1
s.(dp0
Vcykpkt0
p1
I1
sVcyi4uh1
p2
I1
s.(dp0
Vcykwkrj
p1
I1
sVcyi4uh1
p2
I1
s.(dp0
Vcyl88li
p1
I1
sVcyi4uh1
p2
I1
s.(dp0
Vcylhdvl
p1
I1
sVcyi4uh1
p2
I1
s.(dp0
Vcylit8j
p1
I1
sVcyi4uh1
p2
I1
s.(dp0
Vcylk0by
p1
I1
sVcyi4uh1
p2
I1
s.(dp0
Vcylyefw
p1
I1
sVcyi4uh1
p2
I1
s.(dp0
Vcyi4uh1
p1
I1
sVcymckxg
p2
I1
s.(dp0
Vcyi4uh1
p1
I1
sVcymckxg
p2
I1
s.(dp0
Vcyme3mx
p1
I1
sVcyi4uh1
p2
I1
s.(dp0
Vcymgynb
p1
I1
sVcyi4uh1
p2
I1
s.(dp0
Vcymgynb
p1
I1
sVcyi4uh1
p2
I1
s.(dp0
Vcymgynb
p1
I1
sVcyi4uh1
p2
I1
s.(dp0
Vcymhkde
p1
I1
sVcyi4uh1
p2
I1
s.(dp0
Vcyi4uh1
p1
I1
sVcymol71
p2
I1
s.(dp0
Vcymuae3
p1
I1
sVcyi4uh1
p2
I1
s.(dp0
Vcymw2sl
p1
I1
sVcyi4uh1
p2
I1
s.(dp0
Vcyn9p0f
p1
I1
sVcyi4uh1
p2
I1
s.(dp0
Vcyi4uh1
p1
I1
sVcynht8z
p2
I1
s.(dp0
Vcynp81r
p1
I1
sVcyi4uh1
p2
I1
s.(dp0
Vcyo6rbh
p1
I1
sVcyi4uh1
p2
I1
s.(dp0
Vcyot7di
p1
I1
sVcyi4uh1
p2
I1
s.(dp0
Vcyot7di
p1
I1
sVcyi4uh1
p2
I1
s.(dp0
Vcyot7di
p1
I1
sVcyi4uh1
p2
I1
s.(dp0
Vcyouph3
p1
I1
sVcyi4uh1
p2
I1
s.(dp0
Vcyourri
p1
I1
sVcyi4uh1
p2
I1
s.(dp0
Vcyourri
p1
I1
sVcyi4uh1
p2
I1
s.(dp0
Vcyp0muo
p1
I1
sVcyi4uh1
p2
I1
s.(dp0
Vcyp0muo
p1
I1
sVcyi4uh1
p2
I1
s.(dp0
Vcyp0muo
p1
I1
sVcyi4uh1
p2
I1
s.(dp0
Vcyp0muo
p1
I1
sVcyi4uh1
p2
I1
s.(dp0
Vcyp0muo
p1
I1
sVcyi4uh1
p2
I1
s.(dp0
Vcyp0muo
p1
I1
sVcyi4uh1
p2
I1
s.(dp0
Vcyp5mhf
p1
I1
sVcyi4uh1
p2
I1
s.(dp0
Vcypc34p
p1
I1
sVcyi4uh1
p2
I1
s.(dp0
Vcypc34p
p1
I1
sVcyi4uh1
p2
I1
s.(dp0
Vcypc34p
p1
I1
sVcyi4uh1
p2
I1
s.(dp0
Vcypc34p
p1
I1
sVcyi4uh1
p2
I1
s.(dp0
Vcypcwda
p1
I1
sVcyi4uh1
p2
I1
s.(dp0
Vcypdfaf
p1
I1
sVcyi4uh1
p2
I1
s.(dp0
Vcypftin
p1
I1
sVcyi4uh1
p2
I1
s.(dp0
Vcyqaoxz
p1
I1
sVcyi4uh1
p2
I1
s.(dp0
Vcyqgbre
p1
I1
sVcyi4uh1
p2
I1
s.(dp0
Vcyqia79
p1
I1
sVcyi4uh1
p2
I1
s.(dp0
Vcyi4uh1
p1
I1
sVcyqm7zg
p2
I1
s.(dp0
Vcyi4uh1
p1
I1
sVcyqm7zg
p2
I1
s.(dp0
Vcyqnps3
p1
I1
sVcyi4uh1
p2
I1
s.(dp0
Vcyqnps3
p1
I1
sVcyi4uh1
p2
I1
s.(dp0
Vcyqnps3
p1
I1
sVcyi4uh1
p2
I1
s.(dp0
Vcyqnps3
p1
I1
sVcyi4uh1
p2
I1
s.(dp0
Vcyqnps3
p1
I1
sVcyi4uh1
p2
I1
s.(dp0
Vcyqnps3
p1
I1
sVcyi4uh1
p2
I1
s.(dp0
Vcyqwmct
p1
I1
sVcyi4uh1
p2
I1
s.(dp0
Vcyqwmct
p1
I1
sVcyi4uh1
p2
I1
s.(dp0
Vcyi4uh1
p1
I1
sVcyrl5yp
p2
I1
s.(dp0
Vcyrmh1g
p1
I1
sVcyi4uh1
p2
I1
s.(dp0
Vcyrmh1g
p1
I1
sVcyi4uh1
p2
I1
s.(dp0
Vcyrmh1g
p1
I1
sVcyi4uh1
p2
I1
s.(dp0
Vcyrmh1g
p1
I1
sVcyi4uh1
p2
I1
s.(dp0
Vcyrqt0f
p1
I1
sVcyi4uh1
p2
I1
s.(dp0
Vcys0ead
p1
I1
sVcyi4uh1
p2
I1
s.(dp0
Vcyi4uh1
p1
I1
sVcys5noc
p2
I1
s.(dp0
Vcys8min
p1
I1
sVcyi4uh1
p2
I1
s.(dp0
Vcys8min
p1
I1
sVcyi4uh1
p2
I1
s.(dp0
Vcys8min
p1
I1
sVcyi4uh1
p2
I1
s.(dp0
Vcyi4uh1
p1
I1
sVcysakg2
p2
I1
s.(dp0
Vcyi4uh1
p1
I1
sVcysbqfb
p2
I1
s.(dp0
Vcysg7x1
p1
I1
sVcyi4uh1
p2
I1
s.(dp0
Vcyi4uh1
p1
I1
sVcysi5f3
p2
I1
s.(dp0
Vcyi4uh1
p1
I1
sVcysi5f3
p2
I1
s.(dp0
Vcysjfvu
p1
I1
sVcyi4uh1
p2
I1
s.(dp0
Vcysl6nz
p1
I1
sVcyi4uh1
p2
I1
s.(dp0
Vcysv2cq
p1
I1
sVcyi4uh1
p2
I1
s.(dp0
Vcysv2cq
p1
I1
sVcyi4uh1
p2
I1
s.(dp0
Vcysy7hk
p1
I1
sVcyi4uh1
p2
I1
s.(dp0
Vcytdo8p
p1
I1
sVcyi4uh1
p2
I1
s.(dp0
Vcytdo8p
p1
I1
sVcyi4uh1
p2
I1
s.(dp0
Vcytdo8p
p1
I1
sVcyi4uh1
p2
I1
s.(dp0
Vcyi4uh1
p1
I1
sVcytec6b
p2
I1
s.(dp0
Vcyi4uh1
p1
I1
sVcytec6b
p2
I1
s.(dp0
Vcytiotj
p1
I1
sVcyi4uh1
p2
I1
s.(dp0
Vcytiotj
p1
I1
sVcyi4uh1
p2
I1
s.(dp0
Vcytiotj
p1
I1
sVcyi4uh1
p2
I1
s.(dp0
Vcytoihw
p1
I1
sVcy(dp0
Vdtj12zk
p1
I1
sVcyi4uh1
p2
I1
s.