(dp0
Vdejzbsn
p1
I1
sVde0c80s
p2
I1
sVdssbg75
p3
I1
sVdo8hj5z
p4
I2
sVdabngn4
p5
I1
sVdfnuvs6
p6
I1
sVd2rvngc
p7
I1
sVdbdviqs
p8
I1
sVdecprnw
p9
I1
sVd7ad15e
p10
I1
sVde7qu7i
p11
I1
sVdrk2sr7
p12
I1
sVdav6iue
p13
I1
sVczzu82y
p14
I1
sVdej595z
p15
I4
sVdj1nkkq
p16
I1
sVd3ujbp0
p17
I1
sVd78qsbq
p18
I1
sVda3hs7i
p19
I1
sVd71g024
p20
I5
sVd3nu0lr
p21
I1
sVd5ybgtn
p22
I1
sVd8korem
p23
I1
sVd1g2llz
p24
I1
sVd8nswvs
p25
I1
sVdq1a0v6
p26
I1
sVd7197rk
p27
I1
sVd1hzkqs
p28
I1
s.