(dp0
Vd1txfns
p1
I1
sVdeo5y9j
p2
I1
sVd360l23
p3
I1
sVda19nx1
p4
I1
sVd159pgz
p5
I1
sVd119f8i
p6
I1
sVd4dt32b
p7
I1
sVd1n17ao
p8
I1
sVdr8zsv6
p9
I1
sVdmen0eh
p10
I1
sVdcbjh6y
p11
I1
sVdaz2jnl
p12
I1
sVd0t4x2q
p13
I1
sVd84zcxu
p14
I1
sVcz6r5ux
p15
I1
sVd8vt7sf
p16
I1
sVd3skdo5
p17
I1
sVd82ta42
p18
I2
sVcyxzw0h
p19
I1
sVd3s49ba
p20
I1
sVd8izpgb
p21
I1
sVdge1z5h
p22
I1
sVdomkgzv
p23
I1
sVdq725b0
p24
I1
sVd4q2o55
p25
I1
sVdci5932
p26
I1
sVdacar0u
p27
I1
s.