(dp0
Vcymutpi
p1
I1
s.(dp0
Vcyu1egb
p1
I1
sVcymutpi
p2
I1
s.(dp0
Vczlnyhe
p1
I1
sVcymutpi
p2
I1
s.(dp0
Vd22vh4i
p1
I1
sVcymutpi
p2
I1
s.(dp0
Vd2nbg9w
p1
I1
sVcymutpi
p2
I1
s.(dp0
Vcymutpi
p1
I1
sVd4gcocm
p2
I1
s.(dp0
Vcymutpi
p1
I1
sVdc5x4ke
p2
I1
s.(dp0
Vdebbxf8
p1
I1
sVcymutpi
p2
I1
s.(dp0
Vdebbxf8
p1
I1
sVcymutpi
p2
I1
s.(dp0
Vcymutpi
p1
I1
sVdfzv1gw
p2
I1
s.(dp0
Vdhmo3fb
p1
I1
sVcymutpi
p2
I1
s.