(dp0
Vdirj80p
p1
I1
sVd05ybee
p2
I1
sVd7htwl2
p3
I1
sVdjcw9ks
p4
I1
sVdkjdgl5
p5
I1
sVcymxmmm
p6
I1
sVdfx9moh
p7
I1
sVd87qij5
p8
I1
sVdefd9ep
p9
I1
sVd4ubem1
p10
I1
sVdiy857w
p11
I1
sVcykexuh
p12
I1
sVd22xqfp
p13
I1
sVczx1zq6
p14
I1
sVd7hpc9z
p15
I1
sVd0ki5tq
p16
I1
sVczaxih1
p17
I1
sVd028qij
p18
I1
sVd934xd6
p19
I1
sVdah6q38
p20
I1
sVd4ud226
p21
I1
sVczuqu98
p22
I1
sVd7h1bfr
p23
I1
sVdhgfypn
p24
I1
sVd2pbfn6
p25
I1
sVd7g3656
p26
I1
sVd9rk2s6
p27
I1
sVdj3h70t
p28
I1
sVdb3jp9l
p29
I1
sVczxd5ut
p30
I1
sVcyi6jcj
p31
I1
sVdsxiouw
p32
I1
sVddylqem
p33
I1
sVdnuq7sb
p34
I1
sVd472npm
p35
I1
sVd85rc7y
p36
I1
sVdsfsj95
p37
I1
sVd1f7vnv
p38
I1
sVd5tggpx
p39
I1
sVdct1qvv
p40
I2
sVd0850pg
p41
I1
sVdr3kgn6
p42
I1
sVdk365pd
p43
I1
sVd0cu1vl
p44
I1
sVd0nvk16
p45
I1
sVdj5nccb
p46
I1
sVd0cgmiu
p47
I1
sVd0laz6t
p48
I1
sVcz6emu6
p49
I1
sVdgqjmdp
p50
I1
sVdn6sn50
p51
I1
sVd42b4pc
p52
I1
sVdqc2dcg
p53
I1
sVdp75q0z
p54
I1
sVdgy2ghv
p55
I1
sVda2zmba
p56
I1
sVd5kfx7z
p57
I1
sVdbqg03y
p58
I1
sVd0tpkz0
p59
I1
sVdk4zh31
p60
I1
sVddnac6d
p61
I1
sVd84knt2
p62
I1
sVdcii1zm
p63
I1
sVd0g3peg
p64
I1
sVd03fg9a
p65
I1
sVdicx3o9
p66
I1
sVczur217
p67
I1
sVd1lpak7
p68
I1
sVd44zqk2
p69
I1
sVdb8xoyy
p70
I1
sVd1nypk1
p71
I1
sVcyrdues
p72
I1
sVds0itey
p73
I1
sVdb0owb0
p74
I1
sVcztsbnh
p75
I1
sVdn9rxy5
p76
I2
sVd5uq9qk
p77
I1
sVds5f2m6
p78
I1
sVdjz1rot
p79
I1
sVd1arpau
p80
I1
sVdggjwxw
p81
I2
sVd7u40t1
p82
I1
sVd0yuwd5
p83
I1
sVdfqpxrs
p84
I1
sVda1gpqw
p85
I2
sVd86t23w
p86
I2
sVd82ta42
p87
I1
sVdtazicm
p88
I1
sVdid0w4c
p89
I1
sVddhhul9
p90
I1
sVdhl13im
p91
I1
sVczktrk7
p92
I1
sVd7jqwth
p93
I1
sVdi4ljce
p94
I1
sVd03p80g
p95
I1
sVd2a12yk
p96
I2
sVd237zh3
p97
I1
sVdi5v7da
p98
I1
sVd6le39j
p99
I2
sVd1bojnn
p100
I1
sVd0ek8pi
p101
I1
sVddwggaq
p102
I1
sVd5uy48u
p103
I1
sVd9kqwyb
p104
I1
sVd0dyq7x
p105
I1
sVdjjeuc3
p106
I1
sVd9vq368
p107
I1
sVcyli5p1
p108
I1
sVdsmmbna
p109
I1
sVddyqcp7
p110
I1
sVczj6uhy
p111
I1
sVd6zb7bj
p112
I1
sVd3ujdsm
p113
I1
sVdoevgdq
p114
I1
sVd06gpvv
p115
I1
sVdsdleee
p116
I1
sVd5mjirq
p117
I1
sVdfbsyz6
p118
I1
sVdc0chbm
p119
I1
sVd9ans2i
p120
I1
sVdb2zh41
p121
I3
sVd3ffffp
p122
I1
sVd0d43yt
p123
I1
sVd8ol6jv
p124
I1
sVdb7xpaf
p125
I1
sVdr9c7xk
p126
I2
sVd8d4odi
p127
I1
sVdhgj63o
p128
I1
sVdfljerj
p129
I1
sVd3j8yez
p130
I1
sVcyj48iu
p131
I1
sVczbftp9
p132
I1
sVd6l6wfe
p133
I1
sVdbqj5xg
p134
I1
sVdmocb7l
p135
I1
sVd319g09
p136
I2
sVdirnwev
p137
I1
sVdsgfx5p
p138
I1
sVd4hxziw
p139
I1
sVda2pvwz
p140
I2
sVd34oyqn
p141
I1
sVd11icg3
p142
I1
sVcznt41b
p143
I1
sVdq7gk02
p144
I1
sVd0eou02
p145
I1
sVd0pp0tu
p146
I1
sVd53dndk
p147
I1
sVdra1vp4
p148
I1
sVcykg3fu
p149
I1
sVd6g52sx
p150
I1
sVd0igwl9
p151
I1
sVcz6u1fz
p152
I1
sVdfc8w1a
p153
I1
sVdbxbilc
p154
I1
sVdgxmicw
p155
I1
sVd29ftdy
p156
I1
sVcyw34cc
p157
I1
sVd08nxu2
p158
I1
sVdgf160x
p159
I1
sVdra7ofs
p160
I1
sVdhofk8q
p161
I1
sVdfy4b28
p162
I1
sVdbz5ont
p163
I1
sVdn0qoxv
p164
I2
sVczht9q8
p165
I3
sVd3w6wbm
p166
I1
sVddvehtz
p167
I1
sVd6ajzr7
p168
I1
sVcywg41y
p169
I1
sVd86l4vt
p170
I1
sVdcrlerr
p171
I1
sVdeiz491
p172
I1
sVdcl8zlo
p173
I1
sVd5fp81e
p174
I1
sVdj3iojt
p175
I3
sVd3znsk3
p176
I1
sVdnc858j
p177
I1
sVdfozqd2
p178
I1
sVdhxld05
p179
I1
sVd7p87w1
p180
I1
sVdcgsciu
p181
I1
sVd48mbqm
p182
I1
sVcz04z55
p183
I1
sVd2sdqm8
p184
I1
sVd1tqpcm
p185
I1
sVdaug9jy
p186
I1
sVd1fj0wa
p187
I1
sVdajid8d
p188
I1
sVdemipsb
p189
I1
sVdh827tg
p190
I3
sVdnr34s2
p191
I1
sVd964op5
p192
I1
sVd1018p5
p193
I1
sVd9o32d0
p194
I1
sVd7tjprg
p195
I1
sVcyk7wm1
p196
I1
sVdob6ohq
p197
I1
sVdia86td
p198
I1
sVdiqkhaw
p199
I1
sVdffmivi
p200
I1
sVds9b9yb
p201
I1
sVd9e3i1n
p202
I2
sVcym57oc
p203
I1
sVddj8f0m
p204
I1
sVdcordfm
p205
I1
sVd8z5by2
p206
I1
sVd7bn7er
p207
I1
sVcz3d13b
p208
I1
sVdco207k
p209
I2
sVd316tb2
p210
I1
sVd7p6w3z
p211
I2
sVd9co07f
p212
I1
sVd70ypii
p213
I1
sVdck7qao
p214
I1
sVddwz35x
p215
I1
sVd8cs8qn
p216
I1
sVdclrsnk
p217
I1
sVd3wbs3r
p218
I1
sVdfvqtfl
p219
I1
sVdjz75d2
p220
I1
sVd3bk537
p221
I1
sVczwtk8r
p222
I1
sVdd6fsna
p223
I1
sVdff7fzj
p224
I1
sVdbtxjqv
p225
I1
sVdgkc69z
p226
I1
sVd538abb
p227
I1
sVcyrcmcr
p228
I1
sVd3cxztd
p229
I1
sVdeqb072
p230
I1
sVd8rrldo
p231
I1
sVddhs39q
p232
I1
sVdhjfrqm
p233
I1
sVczkbm74
p234
I1
sVd2o592q
p235
I1
sVdfvseie
p236
I1
sVdjz5zxo
p237
I1
sVdnz248y
p238
I1
sVdid7gaw
p239
I1
sVdbx5m0f
p240
I1
sVdqtb8vp
p241
I1
sVdjz64es
p242
I1
sVds34d97
p243
I1
sVdn4aqgt
p244
I1
sVd2j9gu6
p245
I1
sVdcdhkns
p246
I1
sVcyl96jq
p247
I1
sVd980dtf
p248
I1
sVdcjx2cl
p249
I2
sVd2z862y
p250
I1
sVdo888uz
p251
I1
sVdjtfmvc
p252
I1
sVdkv3rkt
p253
I1
sVdcbhalv
p254
I1
sVdat5edz
p255
I1
sVdd72n7c
p256
I1
sVd7jwc4j
p257
I2
sVd43tdyt
p258
I1
sVd6n355i
p259
I1
sVd69krnj
p260
I1
sVdqbctus
p261
I1
sVd5ic6a7
p262
I1
sVdsfeb1u
p263
I1
sVcyuojp8
p264
I1
sVdhf47lw
p265
I1
sVdio8003
p266
I1
sVdkx80u1
p267
I1
sVd43vord
p268
I1
sVdtg4pte
p269
I1
sVdfdiw6h
p270
I1
sVd0zjipa
p271
I1
sVdcvze43
p272
I1
sVd7vn2wm
p273
I1
sVczhix9g
p274
I1
sVd3tfqsp
p275
I1
sVd12ybcy
p276
I1
sVdafz9bo
p277
I2
sVdbpiya3
p278
I1
sVdid00q0
p279
I1
sVdavrbpy
p280
I1
sVdt8b9p9
p281
I1
sVdhslbby
p282
I1
sVdpjfv97
p283
I1
sVdo882dj
p284
I1
sVd4dk6tl
p285
I1
sVdh4gkbr
p286
I1
sVd0quton
p287
I1
sVdchve1e
p288
I1
sVdofuqex
p289
I1
sVdaypzza
p290
I1
sVdnmkbbm
p291
I1
sVdfs8a7c
p292
I1
sVdjzknmp
p293
I1
sVdfgyrro
p294
I1
sVczey6li
p295
I1
sVdn9vgr1
p296
I1
sVd4m182l
p297
I1
sVd94huop
p298
I1
sVdijnztz
p299
I1
sVddu468z
p300
I1
sVczc72y2
p301
I1
sVcz2im2h
p302
I1
sVdkxdit1
p303
I1
sVdejny0d
p304
I1
sVd07mwxo
p305
I1
sVd672i01
p306
I1
sVcyl1iy1
p307
I1
sVd1b9br8
p308
I1
sVd4q0f7p
p309
I1
sVdbeby1f
p310
I1
sVdok9rr2
p311
I1
sVdg933gn
p312
I1
sVcyxa82k
p313
I1
sVd6v5vlz
p314
I1
sVddp8awb
p315
I1
sVd1llhnc
p316
I1
sVd16bew8
p317
I1
sVdg2zt1w
p318
I1
sVd3rupgo
p319
I1
sVd7oavn0
p320
I1
sVddwi2u3
p321
I1
sVder75ww
p322
I1
sVd0528wx
p323
I1
sVd29c6fb
p324
I1
sVd8i0he9
p325
I1
sVdi5c4wl
p326
I1
sVd2kyzuk
p327
I1
sVdol03kn
p328
I1
sVdbkaq9a
p329
I1
sVczyjc61
p330
I1
sVd108tng
p331
I1
sVcyu5oll
p332
I1
sVdhmyclh
p333
I1
sVd4onq6j
p334
I1
sVd1377r4
p335
I1
sVd3tgn5a
p336
I1
sVd39w5ck
p337
I1
sVd0betpi
p338
I1
sVd4eryb8
p339
I1
sVd483mn9
p340
I1
sVdamb7py
p341
I1
sVdenao03
p342
I1
sVdpg0ye2
p343
I1
sVdedrbb7
p344
I1
sVczb8z37
p345
I1
sVdirh4f2
p346
I1
sVdkhksn5
p347
I1
sVd532es9
p348
I1
sVdjoq3wf
p349
I1
sVdb1wluy
p350
I1
sVddofmoq
p351
I1
sVcypwfc8
p352
I1
sVdgynznc
p353
I1
sVd2ls0qt
p354
I1
sVdd4nqvy
p355
I1
sVd646c1a
p356
I1
sVd2aa7ac
p357
I1
sVdppbj0m
p358
I1
sVd19q1ou
p359
I1
sVd73tqn7
p360
I1
sVd36gkt2
p361
I1
sVdhtrolc
p362
I1
sVdirehzk
p363
I1
sVcz6q8n4
p364
I1
sVczy3mo3
p365
I1
sVcyt303k
p366
I1
sVdie7m1j
p367
I1
sVd7hncbl
p368
I3
sVdjtcp1u
p369
I1
sVd2nnvf7
p370
I2
sVde2ix13
p371
I1
sVdnr7ccb
p372
I1
sVd6sy83y
p373
I1
sVdghs0jb
p374
I1
sVd1ehzl4
p375
I1
sVd2hibrt
p376
I1
sVczehrho
p377
I1
sVd51bddl
p378
I1
sVdf2xl4y
p379
I1
sVd9ugl39
p380
I2
sVd19qj04
p381
I1
sVdfv5xtm
p382
I1
sVdotv3s3
p383
I1
sVdeypngp
p384
I1
sVdia7xwl
p385
I1
sVd9ajj8p
p386
I1
sVdel1ld8
p387
I1
sVd0390it
p388
I1
sVdan8ji3
p389
I2
sVdbebnah
p390
I1
sVd4qqah2
p391
I1
sVdps1zjx
p392
I1
sVdex6ufw
p393
I2
sVdei0dno
p394
I1
sVd868tbc
p395
I1
sVd36gaox
p396
I1
sVdghkare
p397
I1
sVddj8dcx
p398
I1
sVd3565cx
p399
I1
sVd88fgp0
p400
I1
sVd0l7r23
p401
I1
sVcz86iqj
p402
I1
sVd01935c
p403
I2
sVd9ulgd8
p404
I1
sVds90fay
p405
I1
sVd7e9ouz
p406
I1
sVd5uwt0y
p407
I1
sVcylicze
p408
I1
sVczx1wbu
p409
I1
sVd3xqgqc
p410
I1
s.