(dp0
Vd23g4rv
p1
I1
sVd984j9k
p2
I1
sVd4yq0zd
p3
I1
sVdhomfkt
p4
I1
sVddyjoos
p5
I1
sVderwmej
p6
I1
sVdjk5ozp
p7
I1
sVd16xou7
p8
I3
sVd4xuls7
p9
I1
sVd2ls0qt
p10
I1
sVdfc1nor
p11
I3
sVd83315v
p12
I1
sVd9youun
p13
I1
sVdmr43zw
p14
I1
sVdercdo5
p15
I1
sVd019mya
p16
I1
sVde48squ
p17
I1
sVd5yfqsp
p18
I1
sVd312yvz
p19
I1
sVdmr87ld
p20
I1
sVdpd1cv4
p21
I1
sVd4r8ofu
p22
I1
sVdmeoxuy
p23
I1
sVdrjn5at
p24
I1
sVd564qg1
p25
I1
sVd29yokx
p26
I1
sVdigz4ck
p27
I1
sVd9zf55y
p28
I1
sVd7kyrbw
p29
I1
sVdmjl6wk
p30
I3
sVd57y3yo
p31
I1
sVdbt3l7z
p32
I1
sVd22szaj
p33
I1
sVczjpwug
p34
I1
sVdim3op3
p35
I1
sVd30o1ts
p36
I1
sVdb3dlz6
p37
I1
sVd17608q
p38
I1
sVd4ksvhz
p39
I1
sVdhphrwv
p40
I2
s.