(dp0
Vczidtye
p1
I1
sVdk6irnk
p2
I1
sVdblsg1x
p3
I1
sVd42t6ax
p4
I2
sVd3a5n2q
p5
I1
sVdppsxvb
p6
I1
sVd61kz1p
p7
I2
sVdkw2e4p
p8
I3
sVd0uu1ok
p9
I1
sVd6e6mp0
p10
I1
sVcztgzc9
p11
I1
sVdnw0acl
p12
I1
sVdh8bgot
p13
I1
sVczwhzss
p14
I3
sVczzv7oo
p15
I1
sVda0izg5
p16
I1
sVdj7ekk6
p17
I1
sVd36tzfm
p18
I1
sVdpoqzph
p19
I1
sVdt0bq8f
p20
I1
sVd8or5lz
p21
I1
sVde002h3
p22
I1
sVcyzmr7s
p23
I1
sVdi07h4b
p24
I1
sVdsz9jyc
p25
I3
sVd3e118v
p26
I1
sVddkhrio
p27
I1
sVd1v2hpd
p28
I2
sVczyqvak
p29
I2
sVd6kaex1
p30
I2
sVdou68i3
p31
I1
sVdmsssnh
p32
I5
sVdf64lnp
p33
I1
sVdesw7w5
p34
I1
sVdggi0tm
p35
I1
sVd60p9s6
p36
I1
sVdpmqkve
p37
I1
sVdkb9m5m
p38
I1
sVd8urobn
p39
I1
sVd75pqcd
p40
I1
sVd6aw4x3
p41
I1
sVdqo7mh4
p42
I1
sVczhk87n
p43
I1
sVd5pb2nt
p44
I2
sVczsdkzw
p45
I1
sVdcaz10a
p46
I1
sVdmt8406
p47
I1
sVd1brybq
p48
I1
sVd6dhr7y
p49
I1
sVdcqhy4f
p50
I1
sVddx69ee
p51
I1
sVd6ne3s3
p52
I1
sVd0xczgw
p53
I1
sVd09sjj0
p54
I1
sVddoc5w0
p55
I2
sVd7x91lc
p56
I1
sVdh0y0xr
p57
I1
sVczdweyb
p58
I1
sVd967n1g
p59
I1
sVda79yga
p60
I1
sVd782x61
p61
I4
sVdj4v0ne
p62
I1
sVdd66uvw
p63
I1
sVdr82456
p64
I1
sVdb2s50w
p65
I1
sVd3gylj3
p66
I2
sVdd19km6
p67
I1
sVdh7i3aj
p68
I1
sVddc6yhk
p69
I1
sVczaalkb
p70
I1
sVcz2ui64
p71
I1
sVcyxltok
p72
I1
sVd03377q
p73
I1
sVd9bsre9
p74
I1
sVdajtbns
p75
I1
sVd0pownj
p76
I1
sVd17mbem
p77
I1
sVdihd0ud
p78
I1
sVd4zja1v
p79
I1
sVdejywwd
p80
I3
sVdpp7vcw
p81
I2
sVd95n43l
p82
I1
sVdj4ani4
p83
I1
sVcz9uls1
p84
I2
sVcynqnpz
p85
I1
sVd8nr3qn
p86
I2
sVdbiqikp
p87
I1
sVd4xrfep
p88
I1
sVdejrj82
p89
I1
sVdqg55kv
p90
I1
sVd8nj3k8
p91
I1
sVd031f9x
p92
I1
sVd7syanb
p93
I2
sVdi9yws6
p94
I1
sVd157mq8
p95
I1
sVdh0uhaf
p96
I2
sVd6b42h2
p97
I1
sVcz2sw1v
p98
I1
sVdsypm55
p99
I1
sVd2fb1rk
p100
I1
sVd0lrbt9
p101
I1
sVd440i68
p102
I1
sVcywuj2z
p103
I1
sVdhowwky
p104
I1
sVdd3mr2v
p105
I1
sVd8y7n2o
p106
I2
sVd2e07af
p107
I1
sVd6p4woq
p108
I1
sVddphytk
p109
I1
sVd4m9o4k
p110
I1
sVdofp0gj
p111
I1
sVd85c2yd
p112
I2
sVd5w7y5z
p113
I2
sVdobg1l1
p114
I1
sVdi26dgl
p115
I1
sVdblghof
p116
I2
sVdf7h205
p117
I1
sVd0nv70c
p118
I1
sVd1uzlxp
p119
I1
sVd1vtdmy
p120
I1
sVdc2zx7x
p121
I1
sVd01yllj
p122
I1
sVd7cvpk4
p123
I1
sVd36l6g8
p124
I1
sVd1y94cy
p125
I1
sVd9ob7hh
p126
I1
sVdopwa24
p127
I1
sVd71kfi5
p128
I1
sVd7h43od
p129
I1
sVcysnwce
p130
I1
sVdi7esz4
p131
I1
sVdaqnbdh
p132
I1
sVd1ul47s
p133
I2
sVdhut74h
p134
I1
sVd0tdsuh
p135
I1
sVdra7umu
p136
I1
sVd112nc8
p137
I1
sVd482ztr
p138
I1
sVdbqu1sp
p139
I1
sVddfqlly
p140
I1
sVdcpqm1a
p141
I1
sVdi6261v
p142
I2
sVdi9ph1c
p143
I1
sVcz58lbp
p144
I1
sVdciln5w
p145
I1
sVcz4to0c
p146
I2
sVdn3ztzs
p147
I1
sVcza9r9r
p148
I1
sVdjor66m
p149
I2
sVd25qq9r
p150
I1
sVdnbuxzw
p151
I1
sVdipup75
p152
I3
sVd4qs8mv
p153
I1
sVd6peozp
p154
I1
sVcz9h7w4
p155
I2
sVdfwzvp5
p156
I1
sVdag6xvh
p157
I1
sVd1bxque
p158
I1
sVdiicql7
p159
I1
sVdiuq1sv
p160
I1
sVdjp79en
p161
I1
sVdcy6bx8
p162
I1
sVd5mdzjb
p163
I1
sVd3ba1yu
p164
I1
sVdazscn4
p165
I1
sVdew6ln8
p166
I1
sVd9fkmuq
p167
I1
sVd95t3r9
p168
I1
sVd6itwxg
p169
I1
sVd9xnsxs
p170
I1
sVd2h7pv2
p171
I1
sVdd42jz9
p172
I1
sVdid1odj
p173
I1
sVdklcig0
p174
I1
sVd28crus
p175
I1
sVdmybvr8
p176
I1
sVd5bqtky
p177
I1
sVd6a1oqd
p178
I1
sVd3xdhd2
p179
I1
sVdjdpjld
p180
I1
sVd4fm5b1
p181
I1
sVdg7ihnk
p182
I1
sVdex5bm5
p183
I1
sVczgv8k9
p184
I1
sVd6hc2ok
p185
I1
sVd9q3b9k
p186
I1
sVcz6zwhy
p187
I1
sVdn45a0z
p188
I1
sVd4ukbvl
p189
I1
sVddfqnyc
p190
I1
sVddt9sow
p191
I3
sVczz08es
p192
I1
sVd330xll
p193
I1
sVdjwk0hq
p194
I1
sVd9gnwbf
p195
I1
sVd1p8rz8
p196
I1
sVdbkmd8c
p197
I1
sVd0y64hc
p198
I1
sVdbe6uek
p199
I2
sVcywqoez
p200
I1
sVdio8003
p201
I1
sVdb7jrm2
p202
I2
sVd40b2dr
p203
I1
sVdczuepl
p204
I1
sVd0pulqc
p205
I1
sVd7y1a1s
p206
I1
sVd7vn2wm
p207
I1
sVd82njb5
p208
I1
sVdpauk4c
p209
I1
sVd264i87
p210
I1
sVd135x15
p211
I1
sVdh25g64
p212
I1
sVdg6qo0s
p213
I1
sVdb6np9y
p214
I1
sVdqz233y
p215
I1
sVdtipvnj
p216
I1
sVdswjhdd
p217
I1
sVd7m26lk
p218
I1
sVd4xa7rs
p219
I1
sVdi5cjpm
p220
I1
sVdcxym7l
p221
I1
sVd9i32id
p222
I1
sVcytbhma
p223
I1
sVdottkif
p224
I1
sVdgbu7vl
p225
I1
sVdes3ei1
p226
I1
sVdr5bcz5
p227
I1
sVdhe0tdu
p228
I1
sVdgkwxe6
p229
I1
sVd26svz0
p230
I1
sVd72t9he
p231
I1
sVd9yiirn
p232
I1
sVdf26gln
p233
I2
sVdehvc4e
p234
I1
sVd82hrue
p235
I1
sVdsc4crg
p236
I1
sVd2rxchp
p237
I1
sVd1r9jpj
p238
I1
sVd0l4v7q
p239
I1
sVczkg1p4
p240
I1
sVd4m4x0t
p241
I1
sVdbv7k19
p242
I1
sVddkcy19
p243
I1
sVdmf12zd
p244
I1
sVd01vlqa
p245
I1
sVczh5s8g
p246
I1
sVdbwee6y
p247
I1
sVdia1a9d
p248
I1
sVd6g85j0
p249
I1
sVdpxlfl0
p250
I1
sVdaogakm
p251
I2
sVd74kwbf
p252
I1
sVd8i27jg
p253
I1
sVdhnp0b9
p254
I1
sVdgtoktt
p255
I1
sVdokxi6e
p256
I1
sVd8qcsj7
p257
I1
sVdel5x77
p258
I1
sVcz5jtxe
p259
I1
sVdd5b3j5
p260
I1
sVdd1xbda
p261
I1
sVd7w177w
p262
I1
sVdns738k
p263
I1
sVd0y4aww
p264
I1
sVdajzwyb
p265
I1
sVdhyrmcd
p266
I1
sVdarhq0u
p267
I1
sVdcw83um
p268
I1
sVdpjldw1
p269
I1
sVd8nchys
p270
I1
sVdbc7t6t
p271
I1
sVdp57ryv
p272
I1
sVdfi5jnu
p273
I1
sVdgdu4tz
p274
I1
sVdmqfi8b
p275
I1
sVd4ff3xu
p276
I1
sVdh3fyw6
p277
I1
sVdbdipkm
p278
I1
sVdc61ka6
p279
I1
sVdf8zr6l
p280
I3
sVd3asa7r
p281
I1
sVddktxtk
p282
I2
sVddirix9
p283
I2
sVd3kxrd8
p284
I2
sVd24i698
p285
I2
sVd1hbq8d
p286
I1
sVdgtnoim
p287
I1
sVcyq8chu
p288
I1
sVd5hnt8h
p289
I1
sVdfns944
p290
I1
sVdk42hgf
p291
I1
sVcz6ant2
p292
I1
sVd45ib8x
p293
I1
sVd6mdsz5
p294
I1
sVdgomlp5
p295
I1
sVcywta7p
p296
I1
sVdbhbqxb
p297
I1
sVdjeqp9f
p298
I1
sVdex643b
p299
I1
sVdo5wpot
p300
I1
sVde1lz1x
p301
I1
sVczgpzhm
p302
I1
sVd4icspn
p303
I1
sVd4ssjrq
p304
I1
sVdhrk3oq
p305
I1
sVd8thi39
p306
I1
sVd6iyu0v
p307
I1
sVdhwc9ef
p308
I4
sVdrpqz0c
p309
I1
sVdb8tvmr
p310
I1
sVdi7yv7y
p311
I1
sVd2a2z1y
p312
I1
sVd87hhp5
p313
I2
sVdggvbxd
p314
I1
sVcyq7d3v
p315
I1
sVddwlcej
p316
I1
sVdbw0fk5
p317
I1
sVd25zsjx
p318
I1
sVd1pqxt3
p319
I1
sVdkdpv8x
p320
I3
sVdaw6fgg
p321
I1
sVdddadiu
p322
I1
sVd8zxz0o
p323
I1
sVdf5wxj5
p324
I1
sVd07frrh
p325
I1
sVdgfuyye
p326
I1
sVdhchx4a
p327
I2
sVd71xol4
p328
I1
sVdgqxg5d
p329
I1
sVdjinsm3
p330
I1
sVd498p0m
p331
I1
sVd1e6f1j
p332
I1
sVd9n3tz2
p333
I1
sVd7x63pk
p334
I1
sVd8d7290
p335
I1
sVdpxvxuw
p336
I1
sVdcbpzpq
p337
I2
sVdt5zfu0
p338
I1
sVd49s96n
p339
I1
sVdic26cj
p340
I1
sVdfhsrr6
p341
I1
sVd9kvdqy
p342
I1
sVd58bzc0
p343
I1
sVdb1kl2h
p344
I1
sVd03c2uh
p345
I1
sVd95rf4w
p346
I1
sVdisoxu4
p347
I1
sVd2huzuu
p348
I1
sVd6acfjk
p349
I1
sVd04el5t
p350
I1
sVdkkjbh4
p351
I1
sVdhgplc1
p352
I1
sVd090ekt
p353
I2
sVd5jhdb5
p354
I1
sVdsgr3w9
p355
I1
sVd1berfm
p356
I1
sVcyyhbq8
p357
I2
sVd5npr0s
p358
I1
sVd4rpodp
p359
I1
sVd93cmo7
p360
I1
sVd4idklb
p361
I1
sVdh1kgj7
p362
I1
sVd2me8uz
p363
I1
sVd6s6ayw
p364
I4
sVd0o2p7k
p365
I1
sVdgmm0n3
p366
I1
sVdmuer0r
p367
I1
sVdjml9v3
p368
I1
sVdsj3u1h
p369
I1
sVdmt2rpm
p370
I1
sVdam51f2
p371
I1
sVde40lkt
p372
I1
sVdao45sy
p373
I1
sVd9cevjy
p374
I1
sVdiesht9
p375
I1
sVdbcusuk
p376
I1
sVd3wrs7h
p377
I1
sVdrnijdx
p378
I1
sVdcoasd5
p379
I1
sVdg750pw
p380
I1
sVdmsljlz
p381
I1
sVdgm396c
p382
I1
sVd2u58wd
p383
I1
sVd9q2qi6
p384
I1
sVdb5gyhx
p385
I1
sVdnuimt2
p386
I1
sVcymo32h
p387
I1
sVdnopip3
p388
I1
sVd0r59e5
p389
I1
sVczrbp1s
p390
I1
sVd9vkkmz
p391
I1
sVdrico2z
p392
I1
sVcyp3l3p
p393
I1
sVdpi6bc1
p394
I1
sVd9l9o83
p395
I1
sVdo0rrej
p396
I1
sVczk92uq
p397
I1
sVd8p234f
p398
I3
sVdqpmcyw
p399
I1
sVcz1uh4s
p400
I1
sVdhtt01w
p401
I1
sVd2tv08r
p402
I1
sVdr8ycx1
p403
I1
sVdsg1tmw
p404
I1
sVdta9q4v
p405
I1
sVdj2j651
p406
I1
sVdakjl74
p407
I1
sVdo03s1c
p408
I1
sVdehxcrm
p409
I1
sVd59jryh
p410
I1
sVd9oysqi
p411
I1
sVd3uomat
p412
I1
sVczay8g2
p413
I1
sVdemb6w0
p414
I1
sVd0fn7us
p415
I1
sVczgrxga
p416
I1
sVd61jd6e
p417
I1
sVd88bnps
p418
I1
sVd0qckgi
p419
I1
sVdbnlcek
p420
I1
sVddzaaq3
p421
I1
sVd8j1we1
p422
I1
sVdf00m15
p423
I1
sVd8c56ms
p424
I1
sVdakd9ro
p425
I1
sVdcrkt15
p426
I1
sVd5uza9x
p427
I1
sVd21vjm1
p428
I1
sVdsyr4hc
p429
I1
sVdf9kcdn
p430
I1
sVdj2t96i
p431
I2
sVcys55td
p432
I4
sVdq6cs9v
p433
I2
sVd5gqe14
p434
I2
sVdbpghyv
p435
I1
sVdqmt0zu
p436
I1
sVd5hma2o
p437
I1
sVd55428n
p438
I1
sVd5t8lbl
p439
I1
sVcytzvht
p440
I1
sVczfxb9p
p441
I1
sVdd0o1na
p442
I1
sVdjepsf9
p443
I1
sVdtegi3k
p444
I1
sVd4k6vfz
p445
I1
sVd99380i
p446
I2
sVczk4fri
p447
I1
sVd6timro
p448
I1
sVczla9uc
p449
I1
sVdqtsxtv
p450
I1
sVd8n0j0w
p451
I2
sVdjvmazn
p452
I1
sVdfi7tre
p453
I1
sVdgi298u
p454
I1
sVdhy327x
p455
I1
sVd5t81np
p456
I1
sVdfeamkw
p457
I1
sVczffvr7
p458
I1
sVdbq77gy
p459
I2
sVdkf40jm
p460
I1
sVd4gewyr
p461
I1
sVdqkxnb8
p462
I1
sVd61jh8h
p463
I1
sVd0lw0ol
p464
I4
sVdmr1gft
p465
I1
sVde2umty
p466
I1
sVdk4qihr
p467
I3
sVdobuqkn
p468
I1
sVdh7pqfe
p469
I1
sVddu1gd1
p470
I1
sVdoqo2m6
p471
I1
sVdfwmrxz
p472
I2
sVdb4xgft
p473
I1
sVdaqy1gl
p474
I1
sVd19h2zq
p475
I2
sVd3fh0sd
p476
I1
sVdd55j6i
p477
I1
sVdiqhdsc
p478
I1
sVd8woa8z
p479
I1
sVdbdjdtv
p480
I1
sVdft6sfr
p481
I1
sVdmui2vi
p482
I2
sVd3p9cnc
p483
I1
sVd0uj8zr
p484
I2
sVdbb6wxg
p485
I1
sVdb53y84
p486
I1
sVdmuh0um
p487
I1
sVd84mmha
p488
I1
sVdbfpbv9
p489
I2
sVd7hmen8
p490
I2
sVdgcwcat
p491
I1
sVdflzyqw
p492
I1
sVczwdqbx
p493
I1
sVdhakjxw
p494
I1
sVda4hq59
p495
I1
sVdqlseih
p496
I3
sVdpqym8b
p497
I1
sVd2b1qv3
p498
I1
sVd0o26i9
p499
I1
sVd4wmxcs
p500
I1
sVde8fh8l
p501
I1
sVd039zrf
p502
I1
sVd0uabs9
p503
I1
sVdsyumxs
p504
I1
sVdqxds6c
p505
I1
sVdpack6r
p506
I1
sVdimom1x
p507
I1
sVdgvzg28
p508
I1
sVdcirotj
p509
I1
sVdkbap93
p510
I1
sVdrj3o63
p511
I1
sVd6qck3y
p512
I1
sVd23lxan
p513
I1
sVdt16wa6
p514
I1
sVd25bimw
p515
I1
sVdszt7dk
p516
I1
sVd2aekre
p517
I2
sVd0j30df
p518
I1
sVd2aabqr
p519
I1
sVd6q0ab6
p520
I1
sVd61n74m
p521
I2
sVd6hgf63
p522
I4
sVd07tf6m
p523
I1
sVdauf8cq
p524
I1
sVdq3r8jr
p525
I1
sVda78kyu
p526
I1
sVdis36e6
p527
I2
sVd5qcgwu
p528
I1
sVd1d8ysj
p529
I1
sVd675ral
p530
I3
sVczl27nx
p531
I1
sVd15l54q
p532
I1
sVd34x68e
p533
I1
sVdfdqeit
p534
I1
sVdb8e1vu
p535
I1
sVd6wca12
p536
I1
sVd87w4t8
p537
I1
sVd1k8mr8
p538
I1
sVdfttrfg
p539
I1
sVcz2e1he
p540
I1
sVcyljclh
p541
I1
sVd1h1ya9
p542
I1
sVdisd1ja
p543
I1
sVdjp9r8i
p544
I1
sVd1ip0y7
p545
I1
sVd5v0epo
p546
I1
sVdppfa2k
p547
I1
sVdnehhgp
p548
I1
sVdo28vzw
p549
I1
sVd70xecp
p550
I1
sVdjapezj
p551
I1
sVdrc1sx9
p552
I1
sVdkog79h
p553
I2
sVd98j96t
p554
I1
sVdpa35x3
p555
I2
sVd35ygut
p556
I1
sVd1nlqef
p557
I1
sVd0912zs
p558
I1
sVd5vzea2
p559
I1
sVdjt211f
p560
I1
sVd510z2z
p561
I1
sVd9cq9t5
p562
I1
sVdrmupdq
p563
I1
sVdpq5et5
p564
I1
sVd7x2hix
p565
I3
sVdnd43b3
p566
I1
sVd3p9sid
p567
I1
sVdoe847m
p568
I1
sVdrqk3j1
p569
I1
sVd00vq60
p570
I1
sVd35thvk
p571
I1
sVd1btc4j
p572
I1
sVdjdc29f
p573
I1
sVdp3nchm
p574
I1
sVd7hqwlq
p575
I2
sVdjtj3rk
p576
I1
sVde8nj7u
p577
I1
sVdou5ohl
p578
I1
sVd1y7y4l
p579
I1
sVd9qw074
p580
I1
sVczrd8g7
p581
I1
sVdeyzj6i
p582
I1
sVderjmxv
p583
I1
sVdng7dtd
p584
I1
sVdcm4cnf
p585
I1
sVd3q3xqk
p586
I1
sVcywze9a
p587
I1
sVdmse74e
p588
I1
sVda8nrog
p589
I1
sVd435e3t
p590
I1
sVcyxwxdl
p591
I1
sVd2rseun
p592
I1
sVdihd7f1
p593
I1
sVd7mcl4f
p594
I1
sVdcbpbap
p595
I2
sVd2719wj
p596
I3
sVd4h1m4n
p597
I1
sVcz197cr
p598
I1
sVdgnlccg
p599
I1
sVcyow8g7
p600
I3
sVd7i1nm1
p601
I1
sVd9nsli2
p602
I1
sVczruslp
p603
I1
sVdcjqds3
p604
I1
sVdb46v82
p605
I7
sVd906bzm
p606
I1
sVdache13
p607
I1
sVda0rdk3
p608
I1
sVdjbopgj
p609
I1
sVd10kyze
p610
I1
sVdk48v23
p611
I1
sVd5a0jsv
p612
I1
sVdjizarg
p613
I1
sVd3mdf3k
p614
I1
sVd0ccpkb
p615
I1
sVcyswqoe
p616
I1
sVdbrbzv8
p617
I2
sVd8arhm5
p618
I1
sVddv8bhx
p619
I1
sVd4nr93c
p620
I1
sVd80j4kz
p621
I1
sVd013l1q
p622
I1
sVd80agdd
p623
I1
sVd9dt8iz
p624
I1
sVdt2vl45
p625
I1
sVd78cvzy
p626
I1
sVdgoqc1z
p627
I1
sVdcfa1te
p628
I1
sVdn2wpsk
p629
I1
sVcz0z0r7
p630
I1
sVdsibnni
p631
I1
sVczmix3n
p632
I1
sVdmk13ps
p633
I2
sVd0i7hnt
p634
I1
sVcz91j9p
p635
I1
sVczios6w
p636
I1
sVdri6gxc
p637
I1
sVdajogqn
p638
I1
sVdq8vhe7
p639
I1
sVda7ntvg
p640
I1
sVd9pgpj2
p641
I1
sVd09c642
p642
I2
sVd21x2j8
p643
I1
sVd7yhgez
p644
I1
sVd0ny8mj
p645
I1
sVd6ltywn
p646
I2
sVczv7sh2
p647
I1
sVdruo1pv
p648
I1
sVd2k8kbc
p649
I1
sVdgvb18l
p650
I1
sVdhlvkcw
p651
I1
sVdeag8oi
p652
I1
sVdmmx8w4
p653
I1
sVdhwnmzt
p654
I1
sVd4gfssy
p655
I1
sVd8o2du4
p656
I1
sVdjkl7vh
p657
I1
sVd30t8e6
p658
I1
sVcz8fpl0
p659
I1
sVdcl9vff
p660
I1
sVdb0hl7m
p661
I1
sVd2e9tsy
p662
I1
sVddwr9gw
p663
I2
sVdeetfcg
p664
I1
sVcyoczn5
p665
I1
sVda3nxi7
p666
I1
sVdgmoajw
p667
I1
sVdnrtabg
p668
I1
sVdnvmk7r
p669
I2
sVd32uwkz
p670
I1
sVdhuprtp
p671
I2
sVde3oy60
p672
I1
sVd6m2232
p673
I2
sVd9u4coo
p674
I1
sVd4tedy0
p675
I1
sVdk5ojus
p676
I1
sVdhv0nx2
p677
I1
sVd2i5p95
p678
I1
sVde63la4
p679
I1
sVd3d0995
p680
I2
sVdcpuhhy
p681
I1
sVdj577zc
p682
I1
sVdftjnnr
p683
I2
sVd9dlzaj
p684
I1
sVd70ip10
p685
I1
sVczfib6v
p686
I1
sVdbc7tob
p687
I1
sVdfwthvr
p688
I1
sVdazmak4
p689
I1
sVdrma6jo
p690
I1
sVdsueonp
p691
I1
sVdsjpfy9
p692
I1
sVdfv6cwz
p693
I1
sVd9mxu7x
p694
I1
sVd1u3su0
p695
I2
sVdktk2oe
p696
I1
sVcyl8uoh
p697
I1
sVdanafny
p698
I1
sVdovh493
p699
I1
sVdc3i4eb
p700
I1
sVd26v8t2
p701
I1
sVdfpcc7n
p702
I1
sVd1y4d2e
p703
I1
sVd6rtyj7
p704
I1
sVd9uwyui
p705
I1
sVdr01aq8
p706
I1
sVd96awm1
p707
I2
sVdckv2lc
p708
I1
sVd8f9amo
p709
I1
sVdfijppc
p710
I1
sVdkjrwvz
p711
I1
sVdrn7k49
p712
I1
sVdotkzx7
p713
I1
sVdonk0h4
p714
I1
sVd26mdrv
p715
I1
sVdhtvie8
p716
I1
sVdrhqkri
p717
I2
sVdousaxr
p718
I1
sVd3q7dy1
p719
I1
sVdgk9qo0
p720
I1
sVdcl8j31
p721
I1
sVd3tm6nu
p722
I1
sVdftwtfa
p723
I1
sVd6z5t9m
p724
I1
sVcz57gsu
p725
I2
sVdiaisf1
p726
I1
sVdel9wd0
p727
I1
sVcyxu4my
p728
I1
sVd88x9fp
p729
I1
sVd42l2rc
p730
I1
sVdd2k6ds
p731
I1
sVcynjuil
p732
I1
sVdepygco
p733
I1
sVd3eebt5
p734
I1
sVd6he24c
p735
I1
sVdfm34af
p736
I7
sVdfprteo
p737
I1
sVcz82nnd
p738
I1
sVd0km1p4
p739
I1
sVdf3aaoj
p740
I1
sVdibvki4
p741
I1
sVczp0430
p742
I2
sVdhy3ism
p743
I1
sVd77dw2i
p744
I1
sVdf1xcin
p745
I1
sVd7rfa60
p746
I1
sVdc7b3q8
p747
I1
sVdmeutvn
p748
I2
sVdnhea98
p749
I1
sVd7xu11m
p750
I1
sVdqc2ztf
p751
I2
sVdbapx9b
p752
I1
sVd59vg0l
p753
I1
sVdj5p4wu
p754
I1
sVdhlyfwr
p755
I1
sVdosxaos
p756
I1
sVd799f8x
p757
I1
sVd1iraiz
p758
I1
sVd3hf5ia
p759
I1
sVcywo55c
p760
I1
sVddx49ie
p761
I1
sVd9ih9t6
p762
I2
sVdfry413
p763
I1
sVddwux60
p764
I1
sVdidxihk
p765
I1
sVddghtw3
p766
I1
sVd2vlcz1
p767
I1
sVd3h5wkk
p768
I1
sVczcdt94
p769
I1
sVdaadyx4
p770
I1
sVd4k7wy2
p771
I1
sVdkq1fmm
p772
I1
sVdh36el5
p773
I2
sVd24g0qg
p774
I1
sVd8gbboy
p775
I1
sVczcppbn
p776
I2
sVdgyj6q5
p777
I1
sVd65in28
p778
I1
sVdb6fmb9
p779
I1
sVd37gjlf
p780
I1
sVd7jx50z
p781
I2
sVdego1tm
p782
I1
sVdhfv6o1
p783
I1
sVdgax024
p784
I1
sVd4bks9p
p785
I1
sVdf9o4sy
p786
I1
sVdna9dtq
p787
I1
sVdmwi1k7
p788
I1
sVd2wmikr
p789
I1
sVdga96q6
p790
I1
sVd7k78ae
p791
I1
sVdfk53lq
p792
I1
sVdnd18ec
p793
I1
sVd2gah19
p794
I1
sVdb8ufzw
p795
I1
sVdcjx5r6
p796
I1
sVdpg06nu
p797
I1
sVdc6oqhw
p798
I1
sVd6phhn4
p799
I1
sVd6f5u0g
p800
I1
sVdd6h80g
p801
I1
sVd30wq92
p802
I2
sVdnxv5nm
p803
I1
sVdgy8mnr
p804
I1
sVdgu1zq5
p805
I1
sVdel1qw5
p806
I1
sVdgq1at5
p807
I1
sVdaizl23
p808
I1
sVd20rp0j
p809
I1
sVdnduqf7
p810
I1
sVddgfy58
p811
I1
sVd3aybjq
p812
I3
sVddxtq8z
p813
I2
sVdkoqent
p814
I1
sVdglpfv6
p815
I2
sVd6sjtpa
p816
I1
sVd8kgln9
p817
I1
sVd9x3x3y
p818
I1
sVdmpfpds
p819
I2
sVdny4aak
p820
I1
sVdcuzaps
p821
I1
sVdbtnjik
p822
I1
sVdnlaory
p823
I1
sVdcmgxj6
p824
I1
sVdaqj7xo
p825
I1
sVdcz0rt5
p826
I1
sVdc5bso1
p827
I1
sVddd4rgd
p828
I1
sVd5elbgz
p829
I1
sVcz3fdva
p830
I1
sVd2shd5w
p831
I1
sVdd6ke8c
p832
I1
sVcz8prb1
p833
I1
sVd1k0qua
p834
I1
sVdeprbin
p835
I1
sVdaqp1r6
p836
I1
sVd10qzca
p837
I1
sVd8i8c47
p838
I1
sVd83p3m7
p839
I1
sVd6s1txm
p840
I1
sVd8ay70m
p841
I1
sVd27tptz
p842
I1
sVd30bxah
p843
I1
sVd2xlnxy
p844
I1
sVd2xyi5k
p845
I1
sVdndrbyb
p846
I1
sVdim0pg2
p847
I1
sVd3qhxht
p848
I1
sVcyzmsa2
p849
I3
sVd38zaw0
p850
I1
sVd5naqvv
p851
I1
sVd66x0wd
p852
I1
sVd8uc7u5
p853
I1
sVdoe4wip
p854
I1
sVdasb9yd
p855
I1
sVd25w5x5
p856
I1
sVd7r9vg8
p857
I1
sVdfu9vwh
p858
I1
sVdn5vlt3
p859
I2
sVd4hmxmd
p860
I1
sVdde0ibp
p861
I1
sVder87en
p862
I1
sVczaayiu
p863
I1
sVd9pj9rg
p864
I1
sVdoj4uhc
p865
I1
sVd0jxv5g
p866
I1
sVdfuyb4j
p867
I1
sVcynttoa
p868
I1
sVdhjo40o
p869
I1
sVde76w9n
p870
I2
sVdfs9ae3
p871
I1
sVdo4x0cp
p872
I1
sVdkajnll
p873
I1
sVde46c49
p874
I1
sVd02fjrm
p875
I1
sVd9ccmbd
p876
I1
sVdad076n
p877
I1
sVdmitkua
p878
I1
sVdcbga23
p879
I1
sVcz864x2
p880
I1
sVd2q6u75
p881
I1
sVdmolhn5
p882
I1
sVd3mq0s0
p883
I1
sVd92mm7g
p884
I2
sVdiv2pnv
p885
I1
sVde3ht8v
p886
I1
sVdpw6tqh
p887
I1
sVdmqmcu0
p888
I1
sVd2yp55b
p889
I1
sVdc85l66
p890
I1
sVdh8zjyy
p891
I1
sVds0ghbt
p892
I2
sVdbx5ko6
p893
I1
sVdhfslir
p894
I1
sVds921pz
p895
I1
sVdg3ry2r
p896
I1
sVd30uxzb
p897
I1
sVdffagkf
p898
I1
sVd38qt0h
p899
I2
sVd7aii1r
p900
I1
sVddhkolw
p901
I1
sVdn6vhun
p902
I1
sVd9eh38m
p903
I2
sVdjf3khy
p904
I1
sVdcpnxk7
p905
I1
sVd9l2pqi
p906
I1
sVdajb8m6
p907
I1
sVdk0g6yt
p908
I2
sVd1da5kr
p909
I1
sVdjmmhhe
p910
I1
sVdkhar79
p911
I1
sVdhnq6oi
p912
I1
sVd37litj
p913
I1
sVda20m84
p914
I1
sVd4xmkq4
p915
I1
sVd4ojjcu
p916
I1
sVd96vhxu
p917
I1
sVdijmaui
p918
I1
sVd6qvggw
p919
I1
sVdi0svam
p920
I1
sVdpydgmk
p921
I1
sVd8n49ao
p922
I1
sVdsg72fe
p923
I1
sVdb5fpch
p924
I1
sVdojjywc
p925
I1
sVd0p2e10
p926
I1
sVdba506e
p927
I1
sVczgnm9l
p928
I1
sVd5wuaue
p929
I1
sVd8n1hhz
p930
I1
sVcyv07l8
p931
I1
sVdnjd1zy
p932
I2
sVd1q0os3
p933
I1
sVdemuzdz
p934
I1
sVd61tszv
p935
I1
sVczv1qv5
p936
I1
sVd5n726q
p937
I2
sVdns6fnm
p938
I1
sVdp8oqjd
p939
I2
sVd3ur4sw
p940
I3
sVdia0fb2
p941
I1
sVdo1e88v
p942
I1
sVd19zzu9
p943
I1
sVdbd4n2e
p944
I1
sVdqzvdcx
p945
I1
sVd4msbhk
p946
I1
sVd4jtlb9
p947
I1
sVdh28v6u
p948
I1
sVdjs810s
p949
I1
sVddcs1hm
p950
I1
sVdhs63vf
p951
I1
sVdkm36ok
p952
I1
sVdhndzdl
p953
I1
sVcynxo4o
p954
I1
sVd28qun7
p955
I1
sVd1he0ub
p956
I1
sVdevqnnm
p957
I1
sVd9kgvo0
p958
I1
sVdfwrvci
p959
I1
sVd2pmgyd
p960
I1
sVd9a3ee7
p961
I1
sVdjfwjq4
p962
I1
sVd5kl489
p963
I1
sVdibinlj
p964
I1
sVddz8734
p965
I1
sVd21r9ff
p966
I1
sVd2vu507
p967
I1
sVd9bgpc4
p968
I1
sVd8a0shj
p969
I1
sVd1grgad
p970
I1
sVd2hn3wx
p971
I1
sVdi9bbx0
p972
I2
sVd7lgl65
p973
I1
sVd5elmy2
p974
I2
sVdr0yzrf
p975
I1
sVdta562h
p976
I1
sVd4hpkc4
p977
I1
sVde9i21d
p978
I1
sVczhwwhf
p979
I1
sVd11mugq
p980
I1
sVd4tfinl
p981
I1
sVdbolzpo
p982
I1
sVczc8exu
p983
I2
sVd15i9fw
p984
I1
sVcz0qp9z
p985
I1
sVdb5n911
p986
I1
sVcyhurf6
p987
I1
sVd60m4s2
p988
I1
sVdfh1pl8
p989
I1
sVdacqaxt
p990
I1
sVds4oamw
p991
I1
sVdfyqsfw
p992
I1
sVdmvfjm6
p993
I1
sVdetxe11
p994
I1
sVd1yuwqe
p995
I1
sVdd3bkmw
p996
I1
sVczbamqb
p997
I1
sVcznxgh4
p998
I1
sVdfkosl6
p999
I1
sVd9lplat
p1000
I1
sVdo8hj5z
p1001
I3
sVd1wnjcu
p1002
I1
sVd1lglsq
p1003
I1
sVd1kpcjm
p1004
I1
sVdofdsvm
p1005
I1
sVd4jllb9
p1006
I2
sVd3xl4k5
p1007
I2
sVcz4ji5l
p1008
I1
sVd1idpfv
p1009
I1
sVdt1thc6
p1010
I1
sVd9yt7t1
p1011
I1
sVdce33vn
p1012
I1
sVd3r6qm7
p1013
I1
sVd5vma1b
p1014
I1
sVdi9uksz
p1015
I1
sVdg71eks
p1016
I5
sVdc49yfm
p1017
I1
sVdd5kxwc
p1018
I1
sVdb93zeh
p1019
I1
sVd3jrbd4
p1020
I1
sVdgweg9i
p1021
I1
sVdka7nuh
p1022
I1
sVdd4r7jq
p1023
I1
sVdfc0dq6
p1024
I1
sVdp6kbtf
p1025
I1
sVd1rk6u8
p1026
I1
sVdblcgcc
p1027
I1
sVdml5acr
p1028
I1
sVd7z27qh
p1029
I1
sVdn4jf6f
p1030
I1
sVdemdsuu
p1031
I3
sVd0bh4ca
p1032
I1
sVdot1l2m
p1033
I1
sVdp7g0fu
p1034
I1
sVcyj6b4z
p1035
I1
sVdcvj7x1
p1036
I1
sVdkirevr
p1037
I1
sVdcrha6l
p1038
I1
sVdhln0ia
p1039
I1
sVdffiye3
p1040
I1
sVd0h2qeu
p1041
I1
sVd2yogqv
p1042
I1
sVdt42djn
p1043
I1
sVd6mont5
p1044
I1
sVd256t9d
p1045
I1
sVcz8w256
p1046
I1
sVd69bfxv
p1047
I1
sVddzarah
p1048
I1
sVdp8e8k3
p1049
I1
sVdpizith
p1050
I1
sVdhvsimz
p1051
I1
sVdks26z0
p1052
I1
sVdn2jbae
p1053
I1
sVd1ei8oe
p1054
I1
sVd0bwelm
p1055
I2
sVdjdsleb
p1056
I1
sVd09ozom
p1057
I1
sVdsqfbzv
p1058
I1
sVd66rqp5
p1059
I1
sVddgyvc9
p1060
I1
sVd6hb1t9
p1061
I1
sVdilimf9
p1062
I2
sVdazn6oq
p1063
I1
sVdgwgfuo
p1064
I1
sVd21hjqb
p1065
I1
sVdnlhlen
p1066
I1
sVd0b58p4
p1067
I1
sVdo16dlk
p1068
I1
sVczgeiyx
p1069
I1
sVdcl8czg
p1070
I1
sVcyy2yfo
p1071
I2
sVdpr0mk0
p1072
I1
sVd8gk2j6
p1073
I1
sVdpofrpk
p1074
I1
sVdmk1zn5
p1075
I1
sVd3iov3d
p1076
I1
sVdgkbw2m
p1077
I1
sVdcnawkv
p1078
I2
sVd9ne4et
p1079
I1
sVdb9hymy
p1080
I1
sVcz0qs9u
p1081
I1
sVdihi16e
p1082
I2
sVd0ug2ae
p1083
I1
sVd2rv1cf
p1084
I1
sVczrxror
p1085
I1
sVdoen6v6
p1086
I1
sVdf907lu
p1087
I1
sVd9jpxhw
p1088
I1
sVdbiujmj
p1089
I1
sVd281q6r
p1090
I1
sVdjdz0ye
p1091
I2
sVd1z3fe5
p1092
I1
sVd6gcae9
p1093
I1
sVczefitp
p1094
I1
sVdahh5d7
p1095
I1
sVcyp6q8u
p1096
I1
sVdf6gffp
p1097
I1
sVd76vhtt
p1098
I1
sVd7ahdil
p1099
I1
sVdbj2q9l
p1100
I2
sVdgx4v0d
p1101
I1
sVdf1depe
p1102
I1
sVdaxny4e
p1103
I1
sVdnxzuph
p1104
I1
sVdirquul
p1105
I1
sVd1a2lx4
p1106
I1
sVd9c432f
p1107
I1
sVdrhuven
p1108
I1
sVdf2288m
p1109
I1
sVdkw15zp
p1110
I1
sVd1fgnvm
p1111
I1
sVd1x43lz
p1112
I1
sVdsolyes
p1113
I1
sVdmvp8ak
p1114
I1
sVddxogcm
p1115
I1
sVd2d7sjd
p1116
I1
sVd9n3wgj
p1117
I2
sVd0b59k7
p1118
I1
sVd0b6z9h
p1119
I1
sVcyid2tj
p1120
I1
sVcz82ycj
p1121
I1
sVdiypifa
p1122
I2
sVd2t2fae
p1123
I1
sVdaf1cvx
p1124
I1
sVd071yy1
p1125
I1
sVd3fj7y2
p1126
I1
sVdeelm3h
p1127
I1
sVde9wpq4
p1128
I1
sVd0jc4fv
p1129
I1
sVdnns1fu
p1130
I1
sVdsvpcgj
p1131
I2
sVdcxcz7y
p1132
I1
sVd2a3f1g
p1133
I1
sVd1sisxv
p1134
I1
sVd48lrlk
p1135
I1
sVd1z1l9g
p1136
I1
sVdfm5fe4
p1137
I1
sVdml9nfu
p1138
I1
sVdpbmr1g
p1139
I1
sVdrjns5k
p1140
I1
sVdicp425
p1141
I1
sVda651ak
p1142
I1
sVd87bcaa
p1143
I1
sVdki52sd
p1144
I1
sVd0tp0em
p1145
I1
sVd0ghm1a
p1146
I1
sVdcvqakt
p1147
I1
sVdhy7bl1
p1148
I1
sVdh8c1h0
p1149
I1
sVd1xo0z7
p1150
I1
sVdszmreb
p1151
I1
sVd4p8b96
p1152
I1
sVdk9cbt2
p1153
I1
sVd8v064k
p1154
I1
sVd7h96py
p1155
I1
sVczkvutu
p1156
I1
sVdhh0xep
p1157
I1
sVd5fuya9
p1158
I1
sVcyq15pw
p1159
I1
sVd1z4ro2
p1160
I1
sVd0sozdl
p1161
I1
sVd9mg9b7
p1162
I1
sVd013ge4
p1163
I1
sVdgfmqai
p1164
I2
sVd9tkn0v
p1165
I1
sVd59wd1s
p1166
I1
sVd0gfupa
p1167
I1
sVd2kraw2
p1168
I1
sVdaexw0e
p1169
I1
sVcypqkvv
p1170
I2
sVd661a8f
p1171
I1
sVd9kum55
p1172
I2
sVdeqwmg1
p1173
I1
sVd7v3g8t
p1174
I1
sVdh0ibgb
p1175
I3
sVdeuj52t
p1176
I1
sVdac2pwi
p1177
I1
sVdfe2xpw
p1178
I1
sVd0tksy0
p1179
I1
sVcys3xxt
p1180
I1
sVcypr1hp
p1181
I1
sVdb1lc66
p1182
I1
sVdmlqf7u
p1183
I1
sVdbo4a17
p1184
I1
sVd4ysnp5
p1185
I1
sVdeqcb5q
p1186
I2
sVd3kx87r
p1187
I1
sVcz4od8o
p1188
I1
sVdgdqhci
p1189
I1
sVdclzjaz
p1190
I1
sVczlqpv3
p1191
I1
sVd5piyp3
p1192
I1
sVdmgh6dy
p1193
I1
sVd8k5nft
p1194
I1
sVddkuh1p
p1195
I1
sVd202kua
p1196
I1
sVd4h3x1g
p1197
I2
sVd5q2173
p1198
I1
sVdevu6vx
p1199
I1
sVdjbjs5l
p1200
I1
sVdcqalps
p1201
I1
sVd2m0793
p1202
I1
sVcyt08uk
p1203
I1
sVd6t7nx0
p1204
I1
sVdgo1u1n
p1205
I1
sVd347zf9
p1206
I1
sVczzw33o
p1207
I1
sVczeafyd
p1208
I1
sVdtijivp
p1209
I2
sVdq6ytiv
p1210
I1
sVd4jwitr
p1211
I1
sVd7dbl7j
p1212
I1
sVd10ngzk
p1213
I1
sVczlmh6v
p1214
I1
sVd7qu17i
p1215
I1
sVda386w7
p1216
I1
sVdgyrwk4
p1217
I1
sVd1r1ydl
p1218
I1
sVdih4x0b
p1219
I1
sVd7hlnfk
p1220
I1
sVdksy9cm
p1221
I1
sVdj9j82z
p1222
I1
sVddxz275
p1223
I2
sVdexeztq
p1224
I1
sVd52jf7p
p1225
I1
sVdtay2el
p1226
I1
sVd08n82o
p1227
I1
sVddbh5pj
p1228
I1
sVd1hubat
p1229
I1
sVdfise5f
p1230
I1
sVdhncw5m
p1231
I1
sVdk1mvdx
p1232
I1
sVd3lxtov
p1233
I1
sVd05wi6n
p1234
I1
sVdmgw552
p1235
I1
sVd0o3ytc
p1236
I1
sVd31c1ii
p1237
I1
sVdp1bqk2
p1238
I1
sVdjurusn
p1239
I1
sVdhgm7gh
p1240
I1
sVd6nz6dt
p1241
I1
sVd3i0fa2
p1242
I1
sVd5m54as
p1243
I1
sVcyz6vk3
p1244
I1
sVdi7byd5
p1245
I1
sVdhownen
p1246
I1
sVdijmpml
p1247
I1
sVd9vhild
p1248
I1
sVd4s0j3t
p1249
I1
sVddwfyv1
p1250
I1
sVd1i0i0q
p1251
I1
sVdq5k5l7
p1252
I1
sVdcauvr8
p1253
I1
sVdacvddx
p1254
I1
sVd6bqji0
p1255
I1
sVd47fh8h
p1256
I1
sVda17rhj
p1257
I1
sVdcoqxfp
p1258
I1
sVd4lah5s
p1259
I1
sVd84rh5h
p1260
I1
sVdf6kebu
p1261
I1
sVd81dc0q
p1262
I1
sVd6oqxzj
p1263
I1
sVdhwkmoq
p1264
I1
sVd25958i
p1265
I1
sVdqvdy72
p1266
I1
sVd5tib4v
p1267
I1
sVdhrgzhu
p1268
I1
sVdk4gojo
p1269
I1
sVczav3zi
p1270
I2
sVdhr5ktc
p1271
I1
sVdqrelu6
p1272
I1
sVd0udgnt
p1273
I1
sVdhv4l5b
p1274
I1
sVdg8p4bz
p1275
I1
sVdi276m4
p1276
I1
sVd2nsu56
p1277
I1
sVd0v1k8v
p1278
I2
sVd0fpf5t
p1279
I1
sVdo6qpgf
p1280
I1
sVd54n048
p1281
I1
sVd1q93kg
p1282
I1
sVdaajgqj
p1283
I2
sVd097e7y
p1284
I1
sVd4hwl02
p1285
I1
sVd86i6vp
p1286
I1
sVd6bvsd9
p1287
I1
sVdfu3q0o
p1288
I2
sVd3u1xas
p1289
I1
sVd4wy15o
p1290
I1
sVd09elst
p1291
I1
sVd8j0z4j
p1292
I2
sVd2znlo2
p1293
I1
sVd97191n
p1294
I1
sVdhexhoi
p1295
I1
sVd5elwg4
p1296
I1
sVdgry5a1
p1297
I1
sVdh0k3bn
p1298
I1
sVdbcq6z4
p1299
I1
sVd4ippfg
p1300
I1
sVdetzp80
p1301
I2
sVdfxivla
p1302
I1
sVdpwvirt
p1303
I1
sVd300jwt
p1304
I1
sVdage82c
p1305
I1
sVdfpw3q5
p1306
I1
sVd2c8jl2
p1307
I2
sVdoja5mw
p1308
I1
sVdcldwd1
p1309
I1
sVd0xewpw
p1310
I1
sVdnu3vn0
p1311
I1
sVdtf6lx2
p1312
I1
sVcyt23wk
p1313
I2
sVdd6k4kd
p1314
I1
sVd1r3mrf
p1315
I1
sVd4bk0gh
p1316
I2
sVdssbg75
p1317
I1
sVdn2q24r
p1318
I1
sVd8oi0mw
p1319
I1
sVdsxiiu0
p1320
I2
sVdaz07ci
p1321
I1
sVd9lmfpv
p1322
I1
sVdhnhm9b
p1323
I1
sVd7m4xeh
p1324
I1
sVdeznfk0
p1325
I1
sVdfk6b1u
p1326
I1
sVdj4ej2g
p1327
I1
sVczmrvrx
p1328
I1
sVdkbc6oi
p1329
I1
sVcysnwwz
p1330
I1
sVd2t1pse
p1331
I1
sVd1l4ljy
p1332
I1
sVd9mizpr
p1333
I1
sVdko1m2e
p1334
I1
sVddcm4u4
p1335
I1
sVcyzjunl
p1336
I2
sVdf7sypk
p1337
I1
sVczgxj5h
p1338
I1
sVdaqucaz
p1339
I1
sVdic1owr
p1340
I1
sVdggzt0z
p1341
I1
sVde4leuz
p1342
I1
sVdncbzit
p1343
I1
sVdk8rjvw
p1344
I1
sVd10tpvc
p1345
I1
sVdhf90uf
p1346
I1
sVdeh2qch
p1347
I1
sVd88rog8
p1348
I1
sVdsy91pr
p1349
I1
sVd65wu1w
p1350
I1
sVd045m9j
p1351
I1
sVcyix8ru
p1352
I1
sVdmwow49
p1353
I1
sVczdqnnc
p1354
I1
sVdigcq4w
p1355
I1
sVd9q9bxq
p1356
I1
sVdar8l9e
p1357
I2
sVdrakaz7
p1358
I1
sVdilcmav
p1359
I1
sVdcvy5ul
p1360
I1
sVdmjfppn
p1361
I1
sVdedar83
p1362
I1
sVd397qvk
p1363
I1
sVdg2bqx7
p1364
I1
sVd3ee5r1
p1365
I2
sVd040cc2
p1366
I1
sVd3aq3xb
p1367
I1
sVczzl5ip
p1368
I2
sVdb0ari0
p1369
I1
sVd5kfdr8
p1370
I1
sVddjb0f3
p1371
I1
sVczg2t2b
p1372
I1
sVdt3w38c
p1373
I1
sVczjm0mf
p1374
I1
sVcyvtfjy
p1375
I1
sVdc77276
p1376
I1
sVdnw024n
p1377
I1
sVdgy9tyq
p1378
I1
sVdbewzk1
p1379
I1
sVd3xuees
p1380
I2
sVd66o88d
p1381
I1
sVdmigoig
p1382
I1
sVd1me06r
p1383
I1
sVdbol2sb
p1384
I1
sVdjiljxn
p1385
I1
sVd65zz5n
p1386
I3
sVde54xot
p1387
I1
sVd3tej1o
p1388
I1
sVd8j51ra
p1389
I1
sVd9n8ab0
p1390
I1
sVd3ocgyh
p1391
I1
sVd2gm6sv
p1392
I1
sVdh5k96y
p1393
I1
sVdaimf2s
p1394
I1
sVdtatkge
p1395
I1
sVds4xrwj
p1396
I1
sVcyzm4qf
p1397
I2
sVdeb4bms
p1398
I1
sVdfmby0r
p1399
I1
sVcylldi1
p1400
I1
sVczmakds
p1401
I1
sVdrd5w1f
p1402
I1
sVddfnaym
p1403
I1
sVdjh5q8j
p1404
I1
sVd4stwly
p1405
I1
sVd2h1mzg
p1406
I1
sVd3x83ng
p1407
I1
sVd28op7l
p1408
I1
sVdiqemqh
p1409
I1
sVd0umho1
p1410
I1
sVdcxd9me
p1411
I1
sVd9mz2p7
p1412
I1
sVd96krdi
p1413
I1
sVd9zn3x2
p1414
I1
sVd25p0yr
p1415
I1
sVdbnn8py
p1416
I1
sVdipnr48
p1417
I1
sVdjc4n3g
p1418
I1
sVcyxn5r3
p1419
I1
sVdq516ql
p1420
I1
sVd4ycw85
p1421
I1
sVdjdhop8
p1422
I1
sVdc9l6oj
p1423
I1
sVd0a1be2
p1424
I1
sVd8o60fq
p1425
I1
sVczza1j3
p1426
I1
sVd23t0bq
p1427
I1
sVd9xexn3
p1428
I1
sVd4se3qj
p1429
I1
sVd6rshg5
p1430
I2
sVdcdnh03
p1431
I1
sVd9xq2xe
p1432
I1
sVd43dcvf
p1433
I1
sVdkifpx0
p1434
I1
sVdmt5jyr
p1435
I1
sVd13xmbe
p1436
I1
sVdefxw0n
p1437
I1
sVd37ilv5
p1438
I1
sVd2kq9ev
p1439
I1
sVdpm0at6
p1440
I1
sVcz1zbly
p1441
I1
sVd4unney
p1442
I1
sVdgq5wut
p1443
I1
sVd8b01dp
p1444
I1
sVd585edn
p1445
I1
sVdfiufao
p1446
I2
sVdrkakzc
p1447
I1
sVd2p1007
p1448
I1
sVdg4jj3e
p1449
I1
sVdfcvkyh
p1450
I1
sVczs3qi5
p1451
I1
sVddaduae
p1452
I2
sVdd9wy2n
p1453
I1
sVdcl4ver
p1454
I1
sVdmomysp
p1455
I1
sVda2rsvp
p1456
I1
sVdborysf
p1457
I1
sVdkbp9fp
p1458
I1
sVdhlfq71
p1459
I1
sVddjffyg
p1460
I1
sVd72jdwe
p1461
I1
sVdjbd98z
p1462
I1
sVd1fa794
p1463
I1
sVcyl99z9
p1464
I2
sVda36h40
p1465
I1
sVdrka9j5
p1466
I1
sVczx74kv
p1467
I2
sVczzzagy
p1468
I1
sVdqi2p55
p1469
I1
sVd0rjguv
p1470
I1
sVd8yxext
p1471
I1
sVd3n9b76
p1472
I1
sVcyv8sdh
p1473
I1
sVd0cdcdl
p1474
I1
sVd4x5v8w
p1475
I2
sVd4qnla4
p1476
I1
sVd8jyaxn
p1477
I1
sVdotoa94
p1478
I1
sVdezfkdh
p1479
I1
sVd5ozgtn
p1480
I1
sVdhzqif9
p1481
I1
sVdroi6gk
p1482
I1
sVczv3jto
p1483
I2
sVdbyhos7
p1484
I1
sVdhbjb18
p1485
I1
sVdjhyftu
p1486
I1
sVd0ftrfe
p1487
I1
sVd0jy3di
p1488
I1
sVd3w14fv
p1489
I1
sVdh91m3n
p1490
I1
sVd77sme6
p1491
I1
sVd7wqeel
p1492
I1
sVd4atirq
p1493
I3
sVd18as7a
p1494
I1
sVdsp3hkq
p1495
I1
sVdcxypth
p1496
I1
sVdd5ciik
p1497
I1
sVda12nbn
p1498
I1
sVd7u3q67
p1499
I1
sVd2ks8ek
p1500
I2
sVdazjuwx
p1501
I1
sVdex2v3f
p1502
I1
sVdi2pujl
p1503
I1
sVdd7lenr
p1504
I1
sVczktypc
p1505
I1
sVdgfnujy
p1506
I1
sVd2qbruf
p1507
I1
sVd2ipe32
p1508
I1
sVd2vzitq
p1509
I1
sVdbnv7vo
p1510
I2
sVdmx7tpk
p1511
I1
sVd2cv206
p1512
I1
sVdkz7mem
p1513
I1
sVdqi5184
p1514
I1
sVd61lq4k
p1515
I1
sVdg0n958
p1516
I1
sVdczdgkq
p1517
I1
sVczgosm4
p1518
I1
sVd8mqrva
p1519
I1
sVczldf7o
p1520
I1
sVdgbhsuh
p1521
I1
sVdefqni2
p1522
I1
sVdgcsd4l
p1523
I1
sVdfoxdm3
p1524
I1
sVdhtr2he
p1525
I1
sVdn6ezm9
p1526
I1
sVdalzmft
p1527
I1
sVd32dc7p
p1528
I1
sVd2hve8n
p1529
I1
sVddhtzf0
p1530
I1
sVd75fjf5
p1531
I1
sVd1o3ywt
p1532
I1
sVd1k2yzi
p1533
I1
sVd6l4fox
p1534
I1
sVdfsf3b7
p1535
I1
sVdbf7egs
p1536
I1
sVd3yu4fk
p1537
I1
sVdew734g
p1538
I1
sVda0daqg
p1539
I1
sVd0f3zrg
p1540
I1
sVd5nsx99
p1541
I1
sVdcl8jm9
p1542
I1
sVd7qzzc7
p1543
I1
sVdabzs3m
p1544
I1
sVd3a0fla
p1545
I1
sVdiapjtz
p1546
I1
sVd9ghb4n
p1547
I1
sVddzzie9
p1548
I1
sVdhceklu
p1549
I1
sVdhg5un6
p1550
I1
sVdikfcdn
p1551
I1
sVd3p4z3k
p1552
I1
sVdoreaac
p1553
I1
sVdd23zev
p1554
I1
sVd0jxqlf
p1555
I1
sVd9u12k8
p1556
I1
sVczksti0
p1557
I1
sVd8mmz31
p1558
I1
sVdmqd1y1
p1559
I1
sVd29jhm5
p1560
I1
sVd177xni
p1561
I2
sVd0a7med
p1562
I1
sVd1m08np
p1563
I2
sVd1ici48
p1564
I1
sVcylo8g9
p1565
I1
sVdq7fr4w
p1566
I1
sVdmgelim
p1567
I1
sVdemw95j
p1568
I1
sVddculqw
p1569
I2
sVd47w6ln
p1570
I1
sVdii8yfg
p1571
I1
sVd4u7k7y
p1572
I1
sVd8isurd
p1573
I1
sVd10iss1
p1574
I2
sVdfn8kzb
p1575
I1
sVd9gcg4z
p1576
I2
sVdbrrf4w
p1577
I1
sVd8exu7i
p1578
I1
sVd2advhc
p1579
I2
sVdbzln3n
p1580
I1
sVdbhmhj3
p1581
I2
sVdqjs0v6
p1582
I1
sVd9x0i3i
p1583
I1
sVd7x5663
p1584
I1
sVd63ntz1
p1585
I1
sVdp3xu5j
p1586
I2
sVdsystss
p1587
I1
sVdcrdt3y
p1588
I1
sVdb9o0x7
p1589
I1
sVczljot4
p1590
I1
sVd7ewk7a
p1591
I1
sVdge7rt5
p1592
I1
sVdmw5m4i
p1593
I1
sVd2i6lhu
p1594
I1
sVdaoz7nq
p1595
I1
sVdky0ubh
p1596
I1
sVdco6jjc
p1597
I1
sVd3h72oe
p1598
I1
sVcz4wqpe
p1599
I1
sVd3cdnel
p1600
I1
sVdjem8tx
p1601
I1
sVdfzxaiy
p1602
I1
sVdgq8ccy
p1603
I1
sVdjtbu7c
p1604
I1
sVcz7e5hh
p1605
I1
sVd0ihvct
p1606
I2
sVdqu53cg
p1607
I2
sVdas0sma
p1608
I1
sVd07imqu
p1609
I1
sVd0mdot6
p1610
I1
sVdkrd3li
p1611
I1
sVd21npu9
p1612
I1
sVd7ahfp3
p1613
I1
sVcypq9dt
p1614
I1
sVd2f6fu8
p1615
I1
sVd4awyl4
p1616
I1
sVdnusb1k
p1617
I1
sVdhzkt34
p1618
I1
sVdbjv12q
p1619
I1
sVdhsn7d1
p1620
I1
sVdhoipp9
p1621
I1
sVd07fhro
p1622
I1
sVcypbf05
p1623
I2
sVdbqoloe
p1624
I1
sVd41kx7k
p1625
I1
sVddntxn8
p1626
I1
sVdrzsbgb
p1627
I1
sVdtax29h
p1628
I1
sVd43q44p
p1629
I2
sVdjrc8e7
p1630
I1
sVd6qbw50
p1631
I2
sVdku16j4
p1632
I1
sVdce7b88
p1633
I1
sVczayt28
p1634
I1
sVdike6h9
p1635
I1
sVd2bwpy5
p1636
I1
sVd2p0kgg
p1637
I1
sVdakl7kx
p1638
I1
sVczlve44
p1639
I1
sVd4icks6
p1640
I1
sVd7xjfzf
p1641
I1
sVdrbvxxg
p1642
I1
sVdiygdhz
p1643
I1
sVddzwzem
p1644
I1
sVdf9b3qo
p1645
I1
sVcz6lwk6
p1646
I1
sVdhvqykk
p1647
I1
sVdhz47e3
p1648
I5
sVdgpnuvj
p1649
I1
sVdp0a80e
p1650
I1
sVd423lsi
p1651
I1
sVd94cw8o
p1652
I1
sVcyj76x2
p1653
I1
sVd5a3386
p1654
I1
sVdhsmoa1
p1655
I1
sVd67biiy
p1656
I1
sVdg7ojmj
p1657
I4
sVd9y6hms
p1658
I1
sVd592esg
p1659
I1
sVcztkbvr
p1660
I1
sVd4x6uo5
p1661
I1
sVdndffrf
p1662
I1
sVdcv86y6
p1663
I1
sVcyyhbco
p1664
I1
sVd8yy0v8
p1665
I1
sVd8oemdi
p1666
I1
sVd75obz2
p1667
I1
sVdidb5cg
p1668
I1
sVdgynznc
p1669
I1
sVczwmb07
p1670
I1
sVcywujyf
p1671
I1
sVd3fl8gb
p1672
I1
sVdeshrkb
p1673
I1
sVd3gqhrh
p1674
I1
sVdr3nf98
p1675
I1
sVdj1l4xw
p1676
I1
sVdbuaaa0
p1677
I1
sVd2gc7ai
p1678
I1
sVcztjh3i
p1679
I1
sVd2ncqka
p1680
I1
sVd5yrf8c
p1681
I2
sVddohrlg
p1682
I1
sVczbtco8
p1683
I1
sVdcb8zti
p1684
I1
sVdfe4iiw
p1685
I1
sVd8ohrf3
p1686
I1
sVdicp9ep
p1687
I1
sVdei1519
p1688
I1
sVdqk0kb1
p1689
I1
sVd0fhkj8
p1690
I1
sVdar6w5n
p1691
I1
sVdjfcqxo
p1692
I1
sVdida83t
p1693
I1
sVd19iqvw
p1694
I1
sVdd3hnmz
p1695
I1
sVdszu9g3
p1696
I1
sVd7bq4ix
p1697
I1
sVdbpvvpg
p1698
I1
sVd0xu6ll
p1699
I1
sVd4n9qvv
p1700
I1
sVd3iprud
p1701
I1
sVdpahtia
p1702
I1
sVd9d15vu
p1703
I1
sVd6czv6t
p1704
I2
sVcznyf6i
p1705
I1
sVde0axc9
p1706
I1
sVdcshw0p
p1707
I1
sVdjc99bm
p1708
I1
sVdhnydf8
p1709
I1
sVdknzp0o
p1710
I1
sVdgah39l
p1711
I1
sVdelnn7l
p1712
I1
sVdcdw9hr
p1713
I1
sVdezaeja
p1714
I1
sVdbskso1
p1715
I1
sVd1kzego
p1716
I1
sVdbs8b44
p1717
I1
sVd59lf9a
p1718
I1
sVczqfrab
p1719
I1
sVdggzc2a
p1720
I1
sVd5uitwf
p1721
I1
sVd6mnju4
p1722
I1
sVd7nzttp
p1723
I1
sVd25uvnh
p1724
I1
sVd8502ok
p1725
I1
sVcynhw8y
p1726
I1
sVdcvtx9t
p1727
I1
sVcyicykr
p1728
I1
sVdn9jgv9
p1729
I1
sVd3efov2
p1730
I1
sVd6iyed7
p1731
I1
sVdqp21lm
p1732
I1
sVd8xvr85
p1733
I1
sVd3xuskk
p1734
I1
sVdjb8hoa
p1735
I1
sVd8xsz1h
p1736
I1
sVdgetsrj
p1737
I1
sVdf3ds3v
p1738
I1
sVddglh0i
p1739
I2
sVdgm40vk
p1740
I1
sVdsyp990
p1741
I1
sVd1ovemc
p1742
I1
sVd9d5pse
p1743
I1
sVda6rvzr
p1744
I1
sVd42b13l
p1745
I1
sVdbi0yab
p1746
I1
sVd4ew65g
p1747
I1
sVd5rhfr0
p1748
I2
sVcypg9u8
p1749
I1
sVd530gty
p1750
I1
sVd8bw2dm
p1751
I1
sVdr16ex3
p1752
I1
sVdml4t2j
p1753
I1
sVd0xcy2d
p1754
I1
sVd013rts
p1755
I1
sVd85577u
p1756
I1
sVdhwc65n
p1757
I2
sVdeoeebh
p1758
I1
sVd5c4wbm
p1759
I1
sVddled43
p1760
I1
sVdscjowx
p1761
I1
sVcyv6z4b
p1762
I1
sVd112qy7
p1763
I1
sVdkft57k
p1764
I1
sVdhy3iyi
p1765
I1
sVd1sf3q8
p1766
I1
sVdd4oz73
p1767
I1
sVdexrdrk
p1768
I2
sVd46dms5
p1769
I1
sVczru1ao
p1770
I1
sVczzcuq2
p1771
I1
sVdhpukzg
p1772
I1
sVdbspcub
p1773
I1
sVcys05hb
p1774
I1
sVd5ei99k
p1775
I1
sVczwz2kx
p1776
I1
sVcyli8aa
p1777
I1
sVdgpb6wg
p1778
I2
sVd8zxrkz
p1779
I1
sVd8ipk19
p1780
I1
sVdfiye9d
p1781
I1
sVd1v7ihc
p1782
I1
sVdjwh655
p1783
I1
sVd1j6nst
p1784
I1
sVdc5i66o
p1785
I1
sVddeo2x0
p1786
I1
sVdj74sqy
p1787
I1
sVdj8dm85
p1788
I1
sVdag4iyv
p1789
I1
sVcynf5fo
p1790
I1
sVd5w90do
p1791
I1
sVdahz07p
p1792
I1
sVddnbuwo
p1793
I1
sVd9kuliw
p1794
I1
sVd2n6gyp
p1795
I1
sVdspkj8v
p1796
I1
sVd8m0wxs
p1797
I1
sVd3hk59u
p1798
I1
sVd0vpdnf
p1799
I1
sVd6lggn6
p1800
I1
sVdgnvt91
p1801
I1
sVd50wxsa
p1802
I1
sVdaa8uu9
p1803
I1
sVd6vf75j
p1804
I1
sVdfo051x
p1805
I1
sVd63r8kz
p1806
I1
sVddxq3ep
p1807
I1
sVd4gozja
p1808
I1
sVdo7xgx6
p1809
I1
sVdbqvryf
p1810
I2
sVd3wibb2
p1811
I1
sVd3ptkcp
p1812
I1
sVdeby9nz
p1813
I1
sVcynd6lj
p1814
I1
sVd12lr1q
p1815
I1
sVdd9cok5
p1816
I1
sVdf6ih76
p1817
I1
sVd3bompj
p1818
I1
sVd1i63q6
p1819
I1
sVd4ii1sj
p1820
I1
sVd6jf4mf
p1821
I1
sVd2siwu9
p1822
I1
sVdkebysb
p1823
I1
sVddg1kk7
p1824
I1
sVcytcqz6
p1825
I1
sVdhsy87o
p1826
I1
sVd7gleeu
p1827
I3
sVdov8im7
p1828
I1
sVdc5fecp
p1829
I1
sVcz7da3w
p1830
I1
sVdj9p149
p1831
I1
sVcz2jv2l
p1832
I1
sVd694zzy
p1833
I1
sVd5x0f8l
p1834
I1
sVdg8ycl6
p1835
I1
sVdpfnaht
p1836
I1
sVd3i4kmi
p1837
I1
sVdbykzt6
p1838
I1
sVdiz2ipm
p1839
I1
sVdfmeyuy
p1840
I1
sVd7zeuai
p1841
I1
sVdrrw9pu
p1842
I1
sVczzhw9g
p1843
I1
sVd2qwwyp
p1844
I1
sVdj1n00w
p1845
I1
sVdd3aaol
p1846
I1
sVd5gkbbz
p1847
I1
sVd9eb8ra
p1848
I1
sVdn8xbgn
p1849
I1
sVd3fh1bh
p1850
I1
sVdj77xhb
p1851
I1
sVd7lt9gm
p1852
I3
sVda2kzp8
p1853
I1
sVd2crznk
p1854
I1
sVdj05wrh
p1855
I1
sVd9zxhy7
p1856
I3
sVdddpc95
p1857
I1
sVddbrq7u
p1858
I1
sVdc93528
p1859
I1
sVdmnkab8
p1860
I1
sVcz51ixp
p1861
I2
sVcyv48bl
p1862
I1
sVdshni4f
p1863
I3
sVd80b0na
p1864
I1
sVdiata1g
p1865
I1
sVd202yps
p1866
I1
sVd3nng7v
p1867
I1
sVd346yz3
p1868
I1
sVdajid8d
p1869
I1
sVdj6xj5z
p1870
I1
sVd4xwkc5
p1871
I1
sVdfqtsmr
p1872
I2
sVd0gdz1i
p1873
I1
sVd88c5od
p1874
I1
sVdnh30ww
p1875
I2
sVd0yu5le
p1876
I1
sVdf62z9i
p1877
I1
sVd08ncu9
p1878
I2
sVdazj3ql
p1879
I1
sVdfiz0xg
p1880
I2
sVd7ygtp9
p1881
I1
sVdhzuegv
p1882
I1
sVd070x5f
p1883
I1
sVdifurde
p1884
I1
sVd6g4yvr
p1885
I1
sVdmit32m
p1886
I1
sVdomt4ct
p1887
I1
sVczr7u9j
p1888
I1
sVd4bu0sy
p1889
I1
sVdmfvbox
p1890
I2
sVdiuyoqc
p1891
I1
sVd4me1eq
p1892
I1
sVczvkb0h
p1893
I1
sVd1hrhia
p1894
I1
sVdfmaoo0
p1895
I1
sVcyv8pfy
p1896
I1
sVdcyvszl
p1897
I1
sVd0t4txz
p1898
I1
sVdeg9ek7
p1899
I1
sVdfwnjgw
p1900
I1
sVde6tdbp
p1901
I2
sVdbu9j0o
p1902
I2
sVd9w7s7p
p1903
I2
sVd5yzjum
p1904
I1
sVd0q7oei
p1905
I1
sVdrvgk4w
p1906
I1
sVd6g9pu2
p1907
I1
sVdes32x6
p1908
I1
sVd10yt5r
p1909
I2
sVd3frnyg
p1910
I1
sVdnc8k22
p1911
I1
sVdhjmfl8
p1912
I1
sVd1jdkr7
p1913
I1
sVd887eyx
p1914
I1
sVd2snpwp
p1915
I1
sVdpbch0j
p1916
I1
sVdbe4eu7
p1917
I1
sVdgqeijo
p1918
I1
sVcznnh64
p1919
I1
sVdjf8jv1
p1920
I3
sVcyyyf13
p1921
I2
sVd88xd4y
p1922
I2
sVd0xpn9x
p1923
I1
sVdmzr657
p1924
I1
sVd0nkrux
p1925
I1
sVd5lxx19
p1926
I1
sVdtc6eic
p1927
I1
sVdhzmqiq
p1928
I1
sVdd8aeb2
p1929
I1
sVdjadeya
p1930
I1
sVd8zy3hr
p1931
I2
sVdiqzmvt
p1932
I1
sVd2at2mj
p1933
I1
sVddngcif
p1934
I1
sVd1shvxc
p1935
I1
sVd30wnzo
p1936
I1
sVdqka3em
p1937
I1
sVdb0d0vy
p1938
I1
sVd82ucr4
p1939
I1
sVd6f98nt
p1940
I1
sVcyzk5hq
p1941
I1
sVdhyhhzh
p1942
I1
sVdmg041t
p1943
I1
sVd9w9f2u
p1944
I1
sVd5y7elj
p1945
I1
sVd8lebos
p1946
I1
sVdmqgt0n
p1947
I2
sVddw1p86
p1948
I1
sVdtepbyl
p1949
I2
sVd2xac8z
p1950
I1
sVd8a2007
p1951
I1
sVd0sg6ud
p1952
I1
sVdqn21vr
p1953
I2
sVd80nnvr
p1954
I1
sVd1kz26p
p1955
I2
sVdh6568p
p1956
I2
sVdo14mvj
p1957
I2
sVdb2t7r3
p1958
I1
sVczm8qgq
p1959
I1
sVddrscoe
p1960
I1
sVd0c1z0n
p1961
I1
sVdblg4gg
p1962
I1
sVdcw4zg6
p1963
I1
sVd0b4guy
p1964
I1
sVd4fgtiu
p1965
I1
sVcyxytvy
p1966
I2
sVdf1crly
p1967
I1
sVdhoe880
p1968
I1
sVd0qpgns
p1969
I1
sVd5aj789
p1970
I1
sVdbhfp4s
p1971
I1
sVd30tp8w
p1972
I1
sVdgvp4ql
p1973
I1
sVdt0hgug
p1974
I1
sVd07l69t
p1975
I1
sVdjtv9cu
p1976
I1
sVcyixu2l
p1977
I1
sVdb2ojfb
p1978
I1
sVd9d6lr4
p1979
I1
sVcykn7dt
p1980
I1
sVd1ez0mv
p1981
I1
sVd4r873m
p1982
I1
sVd1j04cq
p1983
I1
sVdt8ktll
p1984
I1
sVd897ts1
p1985
I1
sVdeq52j8
p1986
I1
sVdhj4rqz
p1987
I1
sVczqg9rr
p1988
I1
sVd9xoy9h
p1989
I1
sVd5a1rl4
p1990
I1
sVdgrxuew
p1991
I1
sVd4hg9t1
p1992
I1
sVdggxre7
p1993
I1
sVd0wj79z
p1994
I2
sVd7c40sh
p1995
I2
sVdsve98m
p1996
I1
sVddwlaxz
p1997
I1
sVd65fzqk
p1998
I1
sVdpwyozx
p1999
I2
sVdinrrqq
p2000
I1
sVdalj18l
p2001
I1
sVdgkkr6b
p2002
I1
sVd08yxvo
p2003
I1
sVd9r6t9x
p2004
I1
sVcz83310
p2005
I1
sVdiy98hx
p2006
I1
sVd82f2ga
p2007
I3
sVcym3yss
p2008
I1
sVd98ynph
p2009
I1
sVd8qn38o
p2010
I2
sVd3p22sr
p2011
I1
sVd9jsv6m
p2012
I1
sVcyv9sep
p2013
I2
sVd1jrz18
p2014
I1
sVdaplm1i
p2015
I1
sVdahk51w
p2016
I1
sVd6hzq4j
p2017
I1
sVda1an0m
p2018
I1
sVd0a9zua
p2019
I2
sVdhykbtg
p2020
I1
sVdbf0fjg
p2021
I1
sVd1e4bmu
p2022
I1
sVd9vnp6d
p2023
I1
sVcz6g677
p2024
I1
sVdpahbxb
p2025
I1
sVdg35eis
p2026
I1
sVd7u9i1e
p2027
I1
sVdg1yqz5
p2028
I1
sVdnw89zw
p2029
I1
sVdgj0okv
p2030
I1
sVd8gxyp7
p2031
I1
sVddt77ga
p2032
I1
sVdjuoh3a
p2033
I1
sVd9vgahd
p2034
I1
sVde2grkk
p2035
I1
sVdgztdxg
p2036
I1
sVcz18wi5
p2037
I1
sVdaopb5j
p2038
I1
sVd31bzql
p2039
I1
sVddcofgk
p2040
I1
sVd6jlc8c
p2041
I1
sVdbs23m0
p2042
I2
sVd10yqkg
p2043
I1
sVd74726n
p2044
I1
sVd9sximl
p2045
I2
sVd8sqq02
p2046
I1
sVd1vi1cc
p2047
I1
sVdireo9j
p2048
I1
sVdrx0sx9
p2049
I1
sVd66q9hx
p2050
I1
sVdcedlaq
p2051
I1
sVd4h7r7g
p2052
I1
sVd1w29uo
p2053
I1
sVdt6g2uh
p2054
I1
sVd7wjbzn
p2055
I1
sVd4t7blg
p2056
I1
sVd229kdb
p2057
I1
sVczdvjck
p2058
I1
sVds9r9bo
p2059
I1
sVd62xvzo
p2060
I1
sVdfwwwie
p2061
I1
sVdtej2h7
p2062
I1
sVd5cop7i
p2063
I1
sVdr8his1
p2064
I1
sVdgkpdor
p2065
I1
sVd3116ya
p2066
I1
sVd1607jf
p2067
I1
sVdbmdkib
p2068
I1
sVdav65e7
p2069
I1
sVd1298p7
p2070
I1
sVd4ujabl
p2071
I1
sVd92spxk
p2072
I1
sVd7p3jzg
p2073
I1
sVd5g9c9k
p2074
I1
sVdifntjw
p2075
I1
sVcyijnl2
p2076
I2
sVddv126c
p2077
I1
sVd71o5vf
p2078
I1
sVd4zwr5q
p2079
I1
sVdds49do
p2080
I1
sVda6gww5
p2081
I1
sVczt3457
p2082
I1
sVd3yq88l
p2083
I1
sVd0agbmd
p2084
I1
sVd7b56xq
p2085
I2
sVcyzlrus
p2086
I1
sVdcplti5
p2087
I1
sVda17qvr
p2088
I1
sVdg450q5
p2089
I1
sVdmypzle
p2090
I1
sVd1itc12
p2091
I1
sVdfng6na
p2092
I1
sVdenaqot
p2093
I1
sVdhpips6
p2094
I1
sVd5eivqg
p2095
I2
sVd1zst22
p2096
I1
sVdaefn3x
p2097
I2
sVd745g9t
p2098
I2
sVd3b13sm
p2099
I1
sVddj82dv
p2100
I1
sVd68llvp
p2101
I1
sVdg2751f
p2102
I1
sVd2c4gpl
p2103
I2
sVdn1cfw6
p2104
I1
sVdj2m7ty
p2105
I1
sVdg2js3u
p2106
I2
sVddcvhrp
p2107
I1
sVczzx0js
p2108
I1
sVdj510qh
p2109
I2
sVdazlndo
p2110
I1
sVd0ypa2q
p2111
I1
sVdghn4c1
p2112
I1
sVd9fkjhv
p2113
I1
sVd1q9haq
p2114
I1
sVdkjgy7m
p2115
I1
sVd6axlel
p2116
I1
sVd4rwt59
p2117
I1
sVdiniic2
p2118
I1
sVdc4bfxe
p2119
I1
sVdaa69yg
p2120
I2
sVdaaq9t8
p2121
I1
sVdmyoe5n
p2122
I1
sVd40irz8
p2123
I1
sVdggowed
p2124
I1
sVdfjhmsj
p2125
I1
sVdcufi98
p2126
I2
sVd56iho9
p2127
I1
sVdel2k0u
p2128
I1
sVdjd7u4g
p2129
I1
sVd55952q
p2130
I1
sVd0l1rpz
p2131
I1
sVd2abc5k
p2132
I1
sVddkm5sk
p2133
I1
sVcz5c8l9
p2134
I1
sVddiy7bh
p2135
I1
sVd3deu9g
p2136
I1
sVde5rdqc
p2137
I1
sVdg64fgr
p2138
I1
sVd3b1n5i
p2139
I1
sVdk9sgi8
p2140
I1
sVdbwdn8f
p2141
I1
sVdth0756
p2142
I1
sVd5aa6e9
p2143
I2
sVd14tdnw
p2144
I1
sVdr9of1h
p2145
I1
sVdbjralv
p2146
I1
sVdd0l4sj
p2147
I1
sVdo63z07
p2148
I1
sVdms4qgb
p2149
I1
sVds6z4ym
p2150
I1
sVdiis4iw
p2151
I1
sVdf2bjkv
p2152
I1
sVdas3h67
p2153
I1
sVd6f75ac
p2154
I2
sVczawmuh
p2155
I1
sVd4jbsaq
p2156
I1
sVdcjigfr
p2157
I1
sVd85oxes
p2158
I1
sVdadbbdc
p2159
I1
sVd0yqlx8
p2160
I1
sVdobbn38
p2161
I1
sVcyp7h4q
p2162
I1
sVddom92e
p2163
I1
sVda0mem5
p2164
I1
sVdd7gixo
p2165
I1
sVczuo3va
p2166
I1
sVdamscf3
p2167
I1
sVdjmu8ij
p2168
I1
sVcyou61h
p2169
I1
sVd3a3gum
p2170
I1
sVdbvydfx
p2171
I3
sVd3h3662
p2172
I1
sVdbj8s02
p2173
I1
sVd3lfw8d
p2174
I1
sVcyz69h8
p2175
I1
sVd29vyiw
p2176
I1
sVdk2x02c
p2177
I1
sVdae76ce
p2178
I1
sVdj2tijl
p2179
I1
sVd161u16
p2180
I1
sVd97buhs
p2181
I1
sVdex7u92
p2182
I1
sVczg0bws
p2183
I1
sVdardrtd
p2184
I1
sVd102qov
p2185
I1
sVdcupv8c
p2186
I1
sVd0ztf0h
p2187
I1
sVdefo5d6
p2188
I1
sVdkant52
p2189
I1
sVdf6ef3v
p2190
I1
sVdat2tmh
p2191
I1
sVdqzwmbe
p2192
I1
sVdehoh2d
p2193
I1
sVdernmk8
p2194
I1
sVczbleif
p2195
I1
sVdqnnx9x
p2196
I1
sVd3kb0ab
p2197
I1
sVdnhqcop
p2198
I1
sVdfzwpvy
p2199
I1
sVd95hgfx
p2200
I1
sVd3l40ip
p2201
I2
sVczbtmf7
p2202
I1
sVcyn1a4j
p2203
I1
sVdjg96l5
p2204
I1
sVd15w0jv
p2205
I1
sVdj626qp
p2206
I6
sVd0dex28
p2207
I1
sVd1469kf
p2208
I1
sVczs1pih
p2209
I1
sVd32werk
p2210
I1
sVd21w7go
p2211
I1
sVdbxmo38
p2212
I1
sVd730bj1
p2213
I1
sVdfw7672
p2214
I1
sVczflq64
p2215
I1
sVd4oztkw
p2216
I1
sVdi5kn8t
p2217
I1
sVcyrij2v
p2218
I1
sVdhdsub7
p2219
I1
sVcywi24j
p2220
I1
sVd9gdkyn
p2221
I1
sVdg0mpz0
p2222
I1
sVd05y14c
p2223
I1
sVd9fe98o
p2224
I4
sVcytsoqp
p2225
I1
sVday5oev
p2226
I1
sVdig1ugj
p2227
I1
sVdd68azv
p2228
I1
sVdfy0mfj
p2229
I1
sVdcuc3ye
p2230
I1
sVdg4vg77
p2231
I1
sVd9xmn2r
p2232
I1
sVdbw8zjc
p2233
I2
sVd84k6w7
p2234
I1
sVd7z11j5
p2235
I1
sVdr8164w
p2236
I1
sVdp08ugs
p2237
I1
sVde7a6m6
p2238
I1
sVdbgzvp4
p2239
I1
sVd9t5vxy
p2240
I1
sVde7sfij
p2241
I2
sVdemxl0a
p2242
I1
sVczvfiis
p2243
I1
sVcyjcuzn
p2244
I1
sVd64ak96
p2245
I1
sVdo5wsnx
p2246
I1
sVdovtq5d
p2247
I1
sVdmwpygr
p2248
I1
sVd8km3me
p2249
I1
sVdp3rzlj
p2250
I1
sVdcbja9x
p2251
I1
sVddwk67s
p2252
I1
sVdbe72iu
p2253
I1
sVdcxlv1t
p2254
I1
sVd0tyhje
p2255
I1
sVdok8ma6
p2256
I1
sVd61m1iz
p2257
I1
sVdbpsbl2
p2258
I1
sVd7mlvqi
p2259
I1
sVd5vte3p
p2260
I1
sVdsclfgy
p2261
I1
sVdnrruda
p2262
I1
sVddcu65y
p2263
I1
sVd10qcar
p2264
I1
sVd9rwe5b
p2265
I1
sVdpvaoui
p2266
I1
sVd10ko9u
p2267
I1
sVd77chgd
p2268
I1
sVd4v1sdu
p2269
I1
sVd2y3wy9
p2270
I1
sVdadr3ov
p2271
I1
sVdi3hhgu
p2272
I1
sVdb8f3cj
p2273
I1
sVdd3tkj3
p2274
I1
sVdfu69oo
p2275
I1
sVdb11usy
p2276
I1
sVd3kfg8q
p2277
I1
sVd69krnj
p2278
I2
sVdgmnde0
p2279
I1
sVdphqgx1
p2280
I1
sVdn9hyi1
p2281
I1
sVd3agc9h
p2282
I1
sVdqg54nb
p2283
I1
sVdgs2r6y
p2284
I1
sVdooyyk5
p2285
I1
sVddjwja9
p2286
I1
sVdfic932
p2287
I1
sVdj7qr1z
p2288
I1
sVdkt8aew
p2289
I1
sVd0zc5qj
p2290
I1
sVderx04d
p2291
I1
sVcyul4lv
p2292
I1
sVd6dsbru
p2293
I1
sVdh9pc10
p2294
I1
sVdi0figm
p2295
I1
sVdgb4qx7
p2296
I1
sVd5kxg5l
p2297
I1
sVdhoti7t
p2298
I1
sVd80653r
p2299
I2
sVd703nyp
p2300
I1
sVdorvsn7
p2301
I1
sVd3gifuq
p2302
I1
sVdjhzoow
p2303
I1
sVdcn5ymj
p2304
I1
sVdp8nlt6
p2305
I1
sVd7g1z3i
p2306
I1
sVdcw1nub
p2307
I1
sVdgujzgh
p2308
I1
sVdf0zhfh
p2309
I1
sVdkz4ok5
p2310
I2
sVd92wcr6
p2311
I1
sVd5mn27p
p2312
I2
sVdkws08l
p2313
I1
sVczt8ixv
p2314
I3
sVdq2rfp0
p2315
I1
sVdkm3ewe
p2316
I1
sVdjw8n28
p2317
I1
sVdd1yc5c
p2318
I1
sVcz7z8sw
p2319
I1
sVd0sz5g8
p2320
I1
sVdipe8cd
p2321
I1
sVd3hrkc0
p2322
I1
sVdilorq7
p2323
I1
sVd93dvo6
p2324
I1
sVdg9r4p2
p2325
I1
sVczbxvhz
p2326
I1
sVdsnip5k
p2327
I1
sVdbzu5wh
p2328
I1
sVdnll8by
p2329
I1
sVd0t84oq
p2330
I3
sVd1jdt9p
p2331
I1
sVdfer46v
p2332
I1
sVdsfx520
p2333
I1
sVd4efnvy
p2334
I1
sVd134hsq
p2335
I1
sVdoncycb
p2336
I1
sVdd7ntqm
p2337
I1
sVd36ltav
p2338
I1
sVdpb7xe0
p2339
I1
sVczh802l
p2340
I1
sVcyua34q
p2341
I1
sVcz2b78l
p2342
I1
sVdspaxuu
p2343
I1
sVd2nhg8h
p2344
I1
sVd2rax7x
p2345
I2
sVdpikv9f
p2346
I1
sVd4zz6rj
p2347
I1
sVdejpsi1
p2348
I1
sVd8swolf
p2349
I1
sVda3igoc
p2350
I1
sVdc4nls3
p2351
I1
sVdgi2jst
p2352
I1
sVdf4lz8v
p2353
I1
sVdoydh2a
p2354
I1
sVd8m0s59
p2355
I1
sVdhhieyg
p2356
I1
sVd8a1tae
p2357
I1
sVd9trkpj
p2358
I1
sVdrr6ugb
p2359
I1
sVdhniwot
p2360
I1
sVdkkaip6
p2361
I1
sVdb4wnuv
p2362
I1
sVdgujyqa
p2363
I1
sVd0rx6ge
p2364
I1
sVdfghyv0
p2365
I1
sVdau5tf2
p2366
I1
sVd21gxvq
p2367
I1
sVdcwf2dy
p2368
I1
sVdjmm7lu
p2369
I1
sVczl8ydx
p2370
I1
sVdbud5h6
p2371
I2
sVdsxl79f
p2372
I1
sVczk838q
p2373
I2
sVdjnrht9
p2374
I1
sVczrl6ug
p2375
I1
sVczkk1zb
p2376
I1
sVdhiywp5
p2377
I1
sVdnzvd45
p2378
I1
sVdr3uit9
p2379
I1
sVd9y3nvy
p2380
I1
sVd5nmz9q
p2381
I1
sVdiua6pq
p2382
I1
sVdfo7cox
p2383
I2
sVcym9621
p2384
I1
sVd3x6q27
p2385
I2
sVdjbypzq
p2386
I1
sVd26mrhr
p2387
I2
sVdqukuo8
p2388
I1
sVdi9zolp
p2389
I1
sVd69hxsp
p2390
I1
sVd6w3if6
p2391
I1
sVdsyeiwc
p2392
I1
sVcynyom6
p2393
I1
sVddba7x4
p2394
I1
sVd01t3wg
p2395
I1
sVd9x0vuk
p2396
I1
sVddngjc9
p2397
I1
sVdsist0y
p2398
I2
sVd18own4
p2399
I1
sVdfgb305
p2400
I1
sVd82qwsk
p2401
I1
sVcz2yeh1
p2402
I1
sVcz9gyu2
p2403
I1
sVd9cr7du
p2404
I1
sVdio7x3p
p2405
I1
sVd88p8kj
p2406
I1
sVdgupv8l
p2407
I1
sVdtjg30o
p2408
I1
sVdd8ctd7
p2409
I4
sVdp2pltw
p2410
I1
sVd0qxk5l
p2411
I2
sVd8vzwu3
p2412
I1
sVczju6iy
p2413
I1
sVdepwcs1
p2414
I1
sVdjoouat
p2415
I1
sVdgcxx30
p2416
I1
sVd8e8u8t
p2417
I1
sVdber17g
p2418
I1
sVdq0xgjz
p2419
I1
sVdf6fhuh
p2420
I1
sVdc83xsx
p2421
I1
sVdggymsl
p2422
I1
sVdhdtf07
p2423
I1
sVd47l8j5
p2424
I2
sVd2dfygp
p2425
I1
sVdf1hw3l
p2426
I1
sVdaz13v8
p2427
I1
sVdo1skf2
p2428
I1
sVdggjc75
p2429
I1
sVd9aocc6
p2430
I1
sVcz9mcah
p2431
I1
sVdiugr0o
p2432
I2
sVd2d8iwf
p2433
I1
sVdgvehbz
p2434
I1
sVd5paf56
p2435
I1
sVdmkx4ti
p2436
I1
sVczmrg5i
p2437
I1
sVdn1jah9
p2438
I1
sVdqe926y
p2439
I1
sVdemj1ld
p2440
I1
sVdjc266t
p2441
I1
sVdqmdj3c
p2442
I1
sVdjg97wf
p2443
I1
sVd1qa87c
p2444
I1
sVdcddc3v
p2445
I1
sVd5y7d1k
p2446
I2
sVdiba5j5
p2447
I1
sVdeffxfr
p2448
I1
sVdk3lyhe
p2449
I1
sVdiag3i0
p2450
I1
sVd3i2gr4
p2451
I1
sVdf57c3a
p2452
I2
sVd2un9li
p2453
I1
sVd5za5oj
p2454
I1
sVd8qkqpk
p2455
I1
sVdc601za
p2456
I1
sVczxfr2k
p2457
I1
sVdgubrwf
p2458
I1
sVdpdnee5
p2459
I1
sVdp9vd8w
p2460
I1
sVdrdejxy
p2461
I3
sVd0xxbqt
p2462
I2
sVdb9oywx
p2463
I1
sVdkk1cwz
p2464
I1
sVdattfqo
p2465
I1
sVdjfodff
p2466
I1
sVdhjlkmc
p2467
I1
sVd7rdp5u
p2468
I1
sVdayr16h
p2469
I1
sVd9rj80l
p2470
I1
sVd2nbz0z
p2471
I1
sVd3ni6dw
p2472
I1
sVcyq57g8
p2473
I1
sVdduozkz
p2474
I1
sVdf973b1
p2475
I1
sVd179yju
p2476
I2
sVdhlntr6
p2477
I1
sVdef60ac
p2478
I1
sVd3e8ewr
p2479
I1
sVd6lzvks
p2480
I1
sVd30p2xe
p2481
I1
sVczkx157
p2482
I1
sVdc4c4o8
p2483
I1
sVdjwe91u
p2484
I1
sVd40za02
p2485
I1
sVd1o12ox
p2486
I3
sVddfzgc3
p2487
I1
sVcz9prbs
p2488
I1
sVdkjs1mv
p2489
I1
sVczwrgoo
p2490
I7
sVdh7xuu7
p2491
I2
sVdbsx4bz
p2492
I1
sVczuj5xw
p2493
I1
sVczwxk9h
p2494
I1
sVddi8tba
p2495
I1
sVcyzehda
p2496
I1
sVcyxkiai
p2497
I3
sVdfzwukc
p2498
I1
sVd4wkahv
p2499
I1
sVdnnthtp
p2500
I1
sVdcbk96n
p2501
I1
sVd7hh8nk
p2502
I1
sVdehkpnq
p2503
I1
sVdinzqol
p2504
I1
sVds98cvm
p2505
I1
sVd0fanis
p2506
I1
sVdf0773g
p2507
I2
sVd233j9p
p2508
I1
sVdezlwth
p2509
I1
sVdrmmp5c
p2510
I1
sVd0oiilo
p2511
I1
sVd71pkxu
p2512
I2
sVd7gjf7j
p2513
I1
sVdb859tf
p2514
I1
sVdnildt5
p2515
I3
sVd047izk
p2516
I1
sVdizpub7
p2517
I1
sVdgorcdu
p2518
I1
sVdi56ayz
p2519
I4
sVdql06sj
p2520
I1
sVdcno8qf
p2521
I1
sVd7k16ji
p2522
I1
sVczyriyy
p2523
I1
sVcylxooy
p2524
I1
sVd44xlla
p2525
I1
sVdp1nhyo
p2526
I1
sVd0yzsq1
p2527
I1
sVdj3ls9g
p2528
I1
sVdscllt6
p2529
I1
sVd4j3iax
p2530
I1
sVdpxb7ff
p2531
I1
sVd1gj7yq
p2532
I1
sVcys38og
p2533
I1
sVd5veyv8
p2534
I1
sVd6gbiok
p2535
I1
sVdt8z0o1
p2536
I1
sVdnzi0kb
p2537
I1
sVdo4jgff
p2538
I1
sVd14726k
p2539
I1
sVdfapcnf
p2540
I1
sVdayy3nj
p2541
I1
sVdgmwd2f
p2542
I1
sVd1ngw9k
p2543
I1
sVdml64vs
p2544
I1
sVd97ex04
p2545
I1
sVd349mtp
p2546
I1
sVdgh25rd
p2547
I1
sVd4ryhv9
p2548
I1
sVd67r8tu
p2549
I1
sVdof6e60
p2550
I1
sVd3wpdit
p2551
I2
sVd5ar8zg
p2552
I1
sVd38wipy
p2553
I1
sVdkz02jb
p2554
I1
sVd2ctrr1
p2555
I1
sVdbl5qsu
p2556
I1
sVdkfskg8
p2557
I1
sVd15lij2
p2558
I1
sVdiokksh
p2559
I1
sVcz9s0s2
p2560
I1
sVd0cq239
p2561
I1
sVddt460v
p2562
I1
sVd621kdd
p2563
I1
sVdh6zb3z
p2564
I2
sVdi4vfey
p2565
I1
sVdf64abb
p2566
I1
sVd0usbyd
p2567
I1
sVdd9v09h
p2568
I1
sVd1ooum7
p2569
I2
sVd7t4o18
p2570
I1
sVdthb4cc
p2571
I1
sVd5aycp1
p2572
I2
sVdc904a5
p2573
I1
sVczsf7z4
p2574
I1
sVdco9v2q
p2575
I1
sVd8047tg
p2576
I1
sVdfc70ry
p2577
I1
sVddwjvgl
p2578
I2
sVdcl4inz
p2579
I1
sVd2q6rsm
p2580
I1
sVd4wlro6
p2581
I1
sVd9mm9xx
p2582
I2
sVdd8sgmj
p2583
I1
sVddf3vnq
p2584
I1
sVd9rixzz
p2585
I1
sVd72n4hb
p2586
I1
sVddrgwpb
p2587
I1
sVd68maen
p2588
I1
sVd0yjr31
p2589
I2
sVd534sgt
p2590
I1
sVdj2jzao
p2591
I1
sVczynemv
p2592
I1
sVd7t28hw
p2593
I1
sVda1yapb
p2594
I1
sVdgc9jvw
p2595
I1
sVcyugwen
p2596
I1
sVdc4d67j
p2597
I1
sVd5mm5h6
p2598
I1
sVd3pf8ri
p2599
I1
sVd1keme6
p2600
I1
sVdcowspf
p2601
I1
sVcyugx5y
p2602
I1
sVdf4d704
p2603
I1
sVdj2z5hf
p2604
I1
sVdi6htp9
p2605
I2
sVdcymyox
p2606
I1
sVczqi3df
p2607
I1
sVdahxm35
p2608
I1
sVd30qp1f
p2609
I1
sVdkp4yot
p2610
I1
sVd0qtusg
p2611
I1
sVddpql08
p2612
I1
sVdbscdhu
p2613
I1
sVdstamzo
p2614
I1
sVd0ph25y
p2615
I1
sVd8rzmjh
p2616
I1
sVd5bs7it
p2617
I1
sVd6h35be
p2618
I1
sVd6f2luy
p2619
I1
sVda0lhq4
p2620
I1
sVdsdo1b0
p2621
I1
sVd5axn09
p2622
I1
sVdae6nl6
p2623
I2
sVd81oxc1
p2624
I1
sVd0xl9ue
p2625
I1
sVdjdwjo3
p2626
I1
sVd695hss
p2627
I2
sVd0pmeba
p2628
I1
sVdacik7a
p2629
I1
sVd09jhko
p2630
I1
sVd5tibya
p2631
I2
sVdtggij0
p2632
I1
sVcz1n3m9
p2633
I1
sVdb5fg3r
p2634
I1
sVdev64uo
p2635
I1
sVd3x36bb
p2636
I1
sVdftxe8z
p2637
I1
sVdnicbfl
p2638
I1
sVd7037ae
p2639
I1
sVdhzyzzs
p2640
I2
sVd7oiyeo
p2641
I1
sVder4gox
p2642
I2
sVdka3x7m
p2643
I1
sVdjznux4
p2644
I1
sVdgjuzbs
p2645
I1
sVdiod63u
p2646
I1
sVd2y1ehl
p2647
I4
sVdclucq6
p2648
I1
sVde1w84x
p2649
I1
sVczf2xto
p2650
I1
sVd7z6fxl
p2651
I1
sVdepjzlj
p2652
I1
sVd768w5t
p2653
I1
sVdmum6xv
p2654
I1
sVd0ts243
p2655
I1
sVd6x9hzd
p2656
I1
sVdfg47qs
p2657
I1
sVd9bktyw
p2658
I1
sVdfop0ow
p2659
I1
sVdgontg7
p2660
I1
sVcyqg487
p2661
I1
sVczgk4qh
p2662
I1
sVcz8vyz1
p2663
I1
sVczzzw8a
p2664
I1
sVdnenkac
p2665
I1
sVd5fw5oq
p2666
I1
sVd9ydh2t
p2667
I1
sVd0r7hg1
p2668
I1
sVdbobtfy
p2669
I1
sVcyrqhu5
p2670
I1
sVdnezft5
p2671
I1
sVdremelt
p2672
I1
sVcyrfgnx
p2673
I1
sVd0lyu68
p2674
I1
sVdqt4o42
p2675
I1
sVd1jajzo
p2676
I1
sVdnkoym7
p2677
I1
sVdkqp39i
p2678
I1
sVd2zc77m
p2679
I1
sVd2yp0bg
p2680
I1
sVd2unjta
p2681
I1
sVd25a52w
p2682
I1
sVcyk0e3q
p2683
I1
sVd61vd65
p2684
I1
sVdrv89vn
p2685
I1
sVdrpuihl
p2686
I1
sVdn4tz9g
p2687
I1
sVdbxphgr
p2688
I1
sVdd6dtmp
p2689
I1
sVdjiz7wd
p2690
I1
sVdaayjzw
p2691
I1
sVdeidbaf
p2692
I1
sVdiohwgn
p2693
I1
sVd1y0358
p2694
I1
sVcym43vs
p2695
I1
sVddkllo8
p2696
I1
sVcylfmrm
p2697
I1
sVd0vbmdw
p2698
I3
sVdfb4c4a
p2699
I1
sVd17xgdz
p2700
I1
sVdjvnigq
p2701
I1
sVdgtkbsv
p2702
I1
sVdhelmjz
p2703
I1
sVd3snifm
p2704
I1
sVdmeog7f
p2705
I1
sVdgq15ow
p2706
I1
sVdmul7m5
p2707
I2
sVdb87p7h
p2708
I1
sVd6nqk9r
p2709
I1
sVdb1vz2s
p2710
I2
sVdtfbu01
p2711
I1
sVdfu17hd
p2712
I1
sVdk4u7mf
p2713
I1
sVd2uymfb
p2714
I1
sVdfz2pg0
p2715
I1
sVd9o4zhd
p2716
I1
sVd6ppi7s
p2717
I1
sVdeoeg5r
p2718
I1
sVcz1gf3r
p2719
I1
sVdo86q3k
p2720
I1
sVdcw3h5g
p2721
I1
sVd8xgxtj
p2722
I1
sVd10i250
p2723
I1
sVdo9qumn
p2724
I1
sVdh9gf2d
p2725
I1
sVd6ofx3q
p2726
I1
sVdk8n4ne
p2727
I1
sVd2n3hio
p2728
I1
sVdjgbk39
p2729
I1
sVczcvsii
p2730
I1
sVd3likr9
p2731
I1
sVd09almv
p2732
I1
sVda7g6jv
p2733
I1
sVdpq5bw3
p2734
I1
sVd3h8zna
p2735
I1
sVds8d31b
p2736
I1
sVdelvjgl
p2737
I1
sVdh34y0r
p2738
I1
sVd1w07yz
p2739
I1
sVdknw48c
p2740
I1
sVdkhp497
p2741
I1
sVd200cmg
p2742
I1
sVdhxhrri
p2743
I1
sVcz7rngp
p2744
I1
sVdbvwa22
p2745
I1
sVdqwnlw3
p2746
I1
sVd88zvhf
p2747
I1
sVdcwzudx
p2748
I1
sVdcvg11w
p2749
I1
sVdheuklf
p2750
I1
sVdjh3f4p
p2751
I1
sVd976ks4
p2752
I1
sVdqmo6u7
p2753
I1
sVdj0awuj
p2754
I1
sVd34631y
p2755
I1
sVdoi62na
p2756
I1
sVdboajxm
p2757
I1
sVdmw3dr9
p2758
I1
sVd33ykfq
p2759
I1
sVd0mradd
p2760
I1
sVd33tykr
p2761
I1
sVdbur7gi
p2762
I1
sVd3wpjag
p2763
I1
sVdhfc822
p2764
I1
sVd23otq2
p2765
I1
sVdk7vxgi
p2766
I1
sVda1c5jf
p2767
I3
sVdb05c5n
p2768
I1
sVd3ui348
p2769
I1
sVdi4rwgt
p2770
I1
sVd3x23hb
p2771
I1
sVd0qmj5d
p2772
I1
sVd6smfqi
p2773
I2
sVdfqhbey
p2774
I1
sVd0l04hi
p2775
I2
sVd0m01oh
p2776
I1
sVd8ja2rg
p2777
I1
sVd8qrc62
p2778
I1
sVczs21f9
p2779
I1
sVdmu7xo5
p2780
I1
sVddugvem
p2781
I1
sVcywqo86
p2782
I1
sVdheowgs
p2783
I1
sVdal5s4e
p2784
I1
sVd36pivz
p2785
I1
sVd3fks5x
p2786
I2
sVdhk5trq
p2787
I1
sVdf8m61i
p2788
I1
sVdqqbwis
p2789
I1
sVdgh0mxq
p2790
I1
sVcz876l4
p2791
I1
sVdrujlly
p2792
I1
sVdd61v7l
p2793
I1
sVd7clu0t
p2794
I1
sVdjclwwj
p2795
I1
sVd0iixh6
p2796
I1
sVd7budue
p2797
I1
sVda1dme4
p2798
I1
sVd2zztwg
p2799
I1
sVdikrg52
p2800
I1
sVd8nyy2j
p2801
I1
sVcynpt6u
p2802
I1
sVd83aqlu
p2803
I1
sVdqgyol9
p2804
I1
sVcz0qpzg
p2805
I2
sVddcqmxo
p2806
I1
sVdhpwld0
p2807
I1
sVdhok4ha
p2808
I1
sVczs73kz
p2809
I2
sVd1nyh7d
p2810
I1
sVd6jw4wj
p2811
I1
sVdn66s3q
p2812
I1
sVcz94reb
p2813
I1
sVd5hn20e
p2814
I1
sVde1bbj1
p2815
I2
sVdiucm52
p2816
I1
sVcyll5yp
p2817
I1
sVdpgy5lr
p2818
I1
sVd201c9q
p2819
I1
sVcypj9pz
p2820
I1
sVczm6izy
p2821
I1
sVd1k09si
p2822
I1
sVdaps4sx
p2823
I1
sVdmmiiz7
p2824
I1
sVdac3chf
p2825
I1
sVdhj8bmu
p2826
I2
sVdjnqxde
p2827
I1
sVd0nt57h
p2828
I1
sVd7v0kyv
p2829
I1
sVd17uel6
p2830
I1
sVczgssa7
p2831
I1
sVd4dykf0
p2832
I1
sVddf51ah
p2833
I2
sVdj9mmcw
p2834
I1
sVdjnolo5
p2835
I3
sVczvv5o5
p2836
I1
sVdih0pya
p2837
I1
sVd28xcek
p2838
I1
sVd11l4uv
p2839
I1
sVdms2aio
p2840
I1
sVdb5dq72
p2841
I1
sVd3cccd7
p2842
I1
sVd9xixb2
p2843
I1
sVd1p2cj4
p2844
I1
sVd0m1fcr
p2845
I1
sVdfzw9x1
p2846
I1
sVd2c1uyg
p2847
I2
sVdav3tr0
p2848
I1
sVdcpds3e
p2849
I1
sVd358gs4
p2850
I2
sVd8v73r3
p2851
I2
sVd7v9ayh
p2852
I1
sVd33twix
p2853
I1
sVdhwqkgc
p2854
I1
sVdateqqg
p2855
I1
sVd8397jy
p2856
I1
sVdh47zpl
p2857
I1
sVdab7ex1
p2858
I1
sVdk96skf
p2859
I1
sVdfo0tzp
p2860
I1
sVdb93c5r
p2861
I1
sVdcjvop5
p2862
I1
sVdii62dc
p2863
I1
sVd7l8sap
p2864
I1
sVd2rijuu
p2865
I1
sVdaoeojr
p2866
I1
sVdf1tmmb
p2867
I1
sVd03wbc5
p2868
I1
sVcyvbt4n
p2869
I1
sVdbaory2
p2870
I1
sVd9zfkwx
p2871
I1
sVd2bwd4u
p2872
I1
sVdmiilfj
p2873
I1
sVdbn08bi
p2874
I2
sVcz9no0e
p2875
I1
sVdf71cgr
p2876
I1
sVd8lnu4d
p2877
I1
sVd2wv8h3
p2878
I1
sVd3qcwoj
p2879
I1
sVdr00jyp
p2880
I1
sVdgsybq1
p2881
I1
sVd4i2ofw
p2882
I1
sVdqedhbb
p2883
I1
sVcyp5odn
p2884
I1
sVda5opp9
p2885
I1
sVdait42b
p2886
I1
sVdt6rjo8
p2887
I1
sVdnotc8i
p2888
I2
sVczbp04d
p2889
I1
sVdih3c2y
p2890
I1
sVdckq4oj
p2891
I1
sVdn73o0x
p2892
I2
sVdj4z8jp
p2893
I1
sVdau6upg
p2894
I1
sVd0bd6nr
p2895
I1
sVd70en07
p2896
I1
sVdfpj9u9
p2897
I1
sVd48ewsj
p2898
I1
sVdfnhhfg
p2899
I1
sVdsm4ne9
p2900
I1
sVdpxxvzi
p2901
I1
sVdj5sgnq
p2902
I1
sVde48p9s
p2903
I1
sVd7ssrqh
p2904
I1
sVcyw2egs
p2905
I1
sVd4sv0rg
p2906
I1
sVd9n25gu
p2907
I1
sVd9hgtu1
p2908
I1
sVddqpfoo
p2909
I2
sVdrnank3
p2910
I1
sVd6mjrz1
p2911
I1
sVcysm0kc
p2912
I1
sVdbk8g86
p2913
I1
sVdqhpkz8
p2914
I1
sVczsdujq
p2915
I1
sVddhe7x2
p2916
I1
sVdexm3j8
p2917
I1
sVdibnvr6
p2918
I1
sVd2u9ruj
p2919
I1
sVdf524ol
p2920
I1
sVd3b63fn
p2921
I1
sVddlnorm
p2922
I2
sVdqooj9w
p2923
I1
sVdam77sv
p2924
I1
sVdjf3bnz
p2925
I1
sVdd434wu
p2926
I1
sVd0tfy8e
p2927
I1
sVd65otsa
p2928
I1
sVd09vfey
p2929
I1
sVdd4w5yf
p2930
I1
sVdjk359v
p2931
I1
sVdqtwtuf
p2932
I1
sVdnu5gu6
p2933
I1
sVddrf756
p2934
I1
sVdkf7405
p2935
I1
sVd0rau31
p2936
I1
sVd2qm9u6
p2937
I1
sVdcdistk
p2938
I1
sVd9zh04r
p2939
I1
sVdj1nkkq
p2940
I2
sVd43ki8k
p2941
I1
sVcznlp2b
p2942
I1
sVd83v108
p2943
I1
sVde0vxqi
p2944
I1
sVdgolwoc
p2945
I1
sVd8jatze
p2946
I1
sVd9m3eii
p2947
I1
sVd49ckk1
p2948
I1
sVcz2bely
p2949
I1
sVd45zmd8
p2950
I1
sVdefs9ca
p2951
I1
sVdc1j0yg
p2952
I1
sVdt7cofz
p2953
I1
sVdefi6hb
p2954
I1
sVdalz6mg
p2955
I1
sVd7tklhu
p2956
I1
sVd05pjon
p2957
I1
sVdi7clpo
p2958
I3
sVd2lq6lt
p2959
I1
sVddseapq
p2960
I1
sVdnhniv2
p2961
I1
sVdbssgnv
p2962
I2
sVczcl0du
p2963
I1
sVdnm4vkd
p2964
I1
sVdq4qgns
p2965
I1
sVd3d5238
p2966
I1
sVd9k581m
p2967
I1
sVdqbceef
p2968
I2
sVdc9usdz
p2969
I1
sVd8siy0a
p2970
I1
sVdi00mo9
p2971
I1
sVd0h182p
p2972
I2
sVd6ui8bb
p2973
I2
sVdcgju8w
p2974
I1
sVdodqjt9
p2975
I1
sVdhoh95m
p2976
I2
sVczwa9qk
p2977
I1
sVdducrf0
p2978
I1
sVdck7qao
p2979
I1
sVde95nu2
p2980
I1
sVd2wjajd
p2981
I3
sVczs3coa
p2982
I1
sVdfrh6yy
p2983
I1
sVdddjc3t
p2984
I1
sVdccg7uu
p2985
I1
sVddhcqiw
p2986
I1
sVdkkt0to
p2987
I1
sVdgbdet8
p2988
I1
sVdiinfqc
p2989
I2
sVd0qxs2i
p2990
I1
sVdmlxd7d
p2991
I1
sVdhsyrei
p2992
I2
sVdphps5b
p2993
I1
sVd66fmpl
p2994
I1
sVd4p8fak
p2995
I1
sVdjndvje
p2996
I5
sVddtlqy0
p2997
I1
sVd2y3had
p2998
I1
sVczbodh4
p2999
I1
sVd29ll3c
p3000
I1
sVd2w97an
p3001
I1
sVd6bh27s
p3002
I1
sVd09ww86
p3003
I1
sVdnat6ir
p3004
I1
sVczwexb4
p3005
I1
sVdad8f1k
p3006
I1
sVd2cx9gg
p3007
I1
sVd5dgqha
p3008
I1
sVdfwrpau
p3009
I1
sVcyurmaw
p3010
I1
sVdbfrwnf
p3011
I3
sVd6upicc
p3012
I1
sVd39za2c
p3013
I1
sVdc5pymg
p3014
I1
sVd23kmc1
p3015
I1
sVdjwmq63
p3016
I1
sVd47yagw
p3017
I1
sVd0c5u1l
p3018
I1
sVdbqbfob
p3019
I2
sVdf4llm5
p3020
I1
sVd06q9o3
p3021
I1
sVd9vmt28
p3022
I1
sVdepr090
p3023
I1
sVd5ihk7n
p3024
I1
sVdn1th3d
p3025
I1
sVdt6igp4
p3026
I1
sVdb3u0xe
p3027
I2
sVd0qewq9
p3028
I1
sVdiyd55d
p3029
I1
sVdesyvrg
p3030
I2
sVd8l7bo0
p3031
I1
sVdo1kbtt
p3032
I1
sVcypz69d
p3033
I1
sVdsbg3ap
p3034
I1
sVd6gum8w
p3035
I1
sVd1vcdkk
p3036
I1
sVdqkkxlp
p3037
I1
sVdhz0rho
p3038
I1
sVdegulom
p3039
I1
sVcypmewz
p3040
I1
sVdro7anz
p3041
I1
sVd2qdetg
p3042
I1
sVd7rlc43
p3043
I1
sVd9th1vi
p3044
I1
sVd6ukked
p3045
I1
sVd88ex0g
p3046
I1
sVdhx445q
p3047
I1
sVd73kea4
p3048
I1
sVd8umxrf
p3049
I1
sVd1952bp
p3050
I1
sVd9xscqc
p3051
I1
sVdsd1fqz
p3052
I1
sVdkrlt5x
p3053
I1
sVd25ncj3
p3054
I1
sVdha2xsg
p3055
I1
sVdis3gfb
p3056
I1
sVd9brwje
p3057
I2
sVdmswcet
p3058
I1
sVd1y2utb
p3059
I1
sVde3x3fh
p3060
I2
sVdbzjjle
p3061
I1
sVd50m1hq
p3062
I1
sVd3zmvmj
p3063
I1
sVdropgav
p3064
I2
sVdema651
p3065
I1
sVdaoitse
p3066
I1
sVdpdr8ms
p3067
I1
sVdidfoy4
p3068
I1
sVd50neo4
p3069
I1
sVd4pdc8l
p3070
I1
sVdihuw36
p3071
I2
sVd2w7tdi
p3072
I1
sVdkbm5i6
p3073
I1
sVd6ydif2
p3074
I3
sVd88z5oy
p3075
I1
sVdb5jblk
p3076
I1
sVcypkqz0
p3077
I1
sVd85yjq2
p3078
I1
sVdnyarb8
p3079
I1
sVd1a3mz2
p3080
I2
sVd2abms3
p3081
I1
sVdhh2roc
p3082
I1
sVdbjb5d3
p3083
I1
sVd01051x
p3084
I1
sVd7h3mq5
p3085
I1
sVdh1qxwi
p3086
I1
sVdhx24n0
p3087
I1
sVdp6lqor
p3088
I1
sVdijudll
p3089
I1
sVdbqadgi
p3090
I1
sVd5qvhfq
p3091
I1
sVdjaeera
p3092
I2
sVd5gjbz1
p3093
I1
sVdk4hhpu
p3094
I4
sVdrq0dxh
p3095
I1
sVdgt25rp
p3096
I1
sVd9ulcqs
p3097
I1
sVd22de3e
p3098
I1
sVdbv9ykq
p3099
I1
sVcz954xc
p3100
I1
sVczqrmr4
p3101
I1
sVdcm8h7q
p3102
I1
sVd7lw4kw
p3103
I2
sVd5i2zq5
p3104
I1
sVd9d72v9
p3105
I1
sVdjs0uyd
p3106
I1
sVd593ylt
p3107
I2
sVd18dblw
p3108
I1
sVd64d4nx
p3109
I1
sVd12v8bd
p3110
I1
sVdep2jn1
p3111
I1
sVdk4mc3k
p3112
I1
sVd5p9gvp
p3113
I1
sVdcmrxs2
p3114
I1
sVdmt1rc9
p3115
I1
sVd0j0kb4
p3116
I1
sVdjjsih3
p3117
I1
sVdpi9zs3
p3118
I1
sVdcat0f1
p3119
I1
sVd2251tn
p3120
I1
sVdgs3y13
p3121
I1
sVd2rhmwt
p3122
I1
sVdf934fl
p3123
I1
sVd80basd
p3124
I1
sVdd89cxe
p3125
I1
sVdca8j38
p3126
I1
sVd1hzhnc
p3127
I1
sVczlhqok
p3128
I1
sVdb5gaiw
p3129
I1
sVdc0u9mh
p3130
I1
sVdoqelst
p3131
I1
sVd0inf9t
p3132
I1
sVdd2wkqs
p3133
I1
sVddtwskc
p3134
I1
sVdnl6a3l
p3135
I1
sVd5wwcef
p3136
I1
sVd7gs8fa
p3137
I1
sVdexqtwx
p3138
I1
sVczskjjc
p3139
I1
sVd6d1zzs
p3140
I1
sVd3c9bi3
p3141
I1
sVd2ubsja
p3142
I1
sVdalwcrm
p3143
I1
sVd2i9tmh
p3144
I1
sVdjzqnra
p3145
I1
sVdejb2ga
p3146
I1
sVdgmx6x0
p3147
I1
sVd52ivad
p3148
I1
sVdr114hr
p3149
I1
sVdfom4k8
p3150
I1
sVd38hgnk
p3151
I1
sVd08n7qt
p3152
I1
sVd2a8afy
p3153
I1
sVdcjdo42
p3154
I1
sVd1g9y4m
p3155
I1
sVddwilh9
p3156
I4
sVdrty40e
p3157
I1
sVde0c80s
p3158
I1
sVdn2jk20
p3159
I1
sVdml3k4y
p3160
I1
sVd624l7o
p3161
I1
sVdr3rf6s
p3162
I1
sVd8ddfb6
p3163
I1
sVd1zgywv
p3164
I4
sVdf1udt0
p3165
I1
sVdsk7cc3
p3166
I1
sVd66tkmc
p3167
I1
sVd24vjl2
p3168
I1
sVd27oqqb
p3169
I2
sVdbz3luh
p3170
I1
sVddt70fe
p3171
I2
sVd5rskvb
p3172
I1
sVdnxhe8x
p3173
I1
sVde90eje
p3174
I3
sVcyrzrot
p3175
I1
sVcyoih47
p3176
I1
sVdp3k7pl
p3177
I1
sVdf9ajgy
p3178
I1
sVd4jhtdn
p3179
I1
sVd1l6f0h
p3180
I1
sVdri7zvj
p3181
I1
sVdb1veuo
p3182
I1
sVd2j1548
p3183
I1
sVd7n3kn9
p3184
I1
sVd2072ku
p3185
I1
sVdezpsw8
p3186
I1
sVdapi5ro
p3187
I1
sVdmfoqyk
p3188
I1
sVd12ix20
p3189
I2
sVdsjlzra
p3190
I2
sVd3f7cdu
p3191
I1
sVdazswqz
p3192
I1
sVdaqwe93
p3193
I1
sVdepwrsw
p3194
I1
sVdb58sdh
p3195
I1
sVczevboo
p3196
I1
sVcyzch5s
p3197
I1
sVd7yme5x
p3198
I1
sVdjzpxpi
p3199
I1
sVd425j1i
p3200
I1
sVd0mnnyz
p3201
I1
sVdhn6iex
p3202
I1
sVcypz3ej
p3203
I1
sVdk96gly
p3204
I1
sVd1kogep
p3205
I1
sVdef2anz
p3206
I1
sVdifui09
p3207
I1
sVdmqaam9
p3208
I1
sVd1wg8yb
p3209
I5
sVd2yad4e
p3210
I2
sVdj9im5z
p3211
I1
sVdmo37jb
p3212
I2
sVdkfx40k
p3213
I1
sVcyxnyee
p3214
I1
sVddciw8u
p3215
I1
sVdifjbi6
p3216
I1
sVd3da5we
p3217
I2
sVdh5nyic
p3218
I1
sVd0vqwmq
p3219
I1
sVd3j6pqw
p3220
I2
sVdsd2zuz
p3221
I1
sVdafzsvk
p3222
I1
sVdaofz8u
p3223
I1
sVdhppkej
p3224
I1
sVdf0763u
p3225
I1
sVd3g7w5g
p3226
I1
sVd22nd5v
p3227
I1
sVd35d9v2
p3228
I1
sVdbp30xh
p3229
I1
sVczi76se
p3230
I1
sVd1ljwk6
p3231
I1
sVd04o9pi
p3232
I1
sVd2d7e8u
p3233
I2
sVddkkajd
p3234
I1
sVdqi1rgd
p3235
I1
sVdcslg2h
p3236
I1
sVd9ns52d
p3237
I1
sVd8ufb9s
p3238
I1
sVcz4xhr0
p3239
I1
sVd8ux62s
p3240
I1
sVdjcxkiy
p3241
I1
sVczgdwbt
p3242
I1
sVd3qk61z
p3243
I3
sVd2gbu93
p3244
I1
sVd7j6tsr
p3245
I1
sVd9xfr9a
p3246
I1
sVd2naubx
p3247
I2
sVdeglra3
p3248
I1
sVd8ofkt5
p3249
I1
sVdfggqun
p3250
I1
sVd7q4mc1
p3251
I1
sVd7amwwi
p3252
I1
sVdfapny1
p3253
I1
sVd9rjb90
p3254
I1
sVd3jq7or
p3255
I1
sVdhmu08l
p3256
I1
sVdgsii7d
p3257
I1
sVd1lsmr8
p3258
I1
sVd68sls4
p3259
I1
sVd9izg6l
p3260
I1
sVd33vvit
p3261
I1
sVdkvwh62
p3262
I1
sVdqa6ver
p3263
I1
sVdkfrhto
p3264
I1
sVdhoppzo
p3265
I1
sVd96ae44
p3266
I2
sVdhu9gg5
p3267
I1
sVdbd4nbo
p3268
I1
sVdbgagvo
p3269
I1
sVdchzo9h
p3270
I1
sVddu7vqa
p3271
I2
sVd81x7qu
p3272
I1
sVdgv4upa
p3273
I1
sVd3sunf0
p3274
I1
sVddrqx7s
p3275
I1
sVd7s1iin
p3276
I1
sVdo7wcgq
p3277
I1
sVdcz54yq
p3278
I1
sVd1rrcjo
p3279
I1
sVdpdtold
p3280
I1
sVdak3dlz
p3281
I1
sVdszmm44
p3282
I1
sVd95qf58
p3283
I1
sVda7ihqg
p3284
I1
sVdeeog9d
p3285
I1
sVczrbpkv
p3286
I1
sVdfhc619
p3287
I2
sVcykc66p
p3288
I1
sVd0la04n
p3289
I3
sVdcmuxot
p3290
I1
sVda3yidz
p3291
I1
sVdakr7zi
p3292
I1
sVd1w6mq0
p3293
I1
sVddhn5ak
p3294
I1
sVd625im4
p3295
I1
sVdixtdew
p3296
I1
sVdepk48a
p3297
I1
sVd28ee8f
p3298
I1
sVd2ph0w2
p3299
I1
sVd0wzm0z
p3300
I1
sVdoe9k2k
p3301
I1
sVczarwdk
p3302
I1
sVcyjnvpt
p3303
I1
sVdt6zevu
p3304
I1
sVd0uoi8j
p3305
I1
sVd72vyl3
p3306
I2
sVdgxbupu
p3307
I1
sVd6b9y95
p3308
I1
sVdt83ixr
p3309
I1
sVcyvbod9
p3310
I2
sVd5ybft6
p3311
I1
sVdj1lbpb
p3312
I1
sVcz5bqy5
p3313
I1
sVcz5wcqj
p3314
I1
sVd2iyq81
p3315
I1
sVd41zsdp
p3316
I1
sVd8ce9os
p3317
I1
sVd0xgbg6
p3318
I1
sVdhkvcii
p3319
I1
sVdd4n455
p3320
I1
sVdfgtmai
p3321
I1
sVdnl450k
p3322
I4
sVczgr7bo
p3323
I1
sVd23y2b4
p3324
I1
sVd48gvwf
p3325
I1
sVd1kw990
p3326
I1
sVd185gyt
p3327
I1
sVdc3gpor
p3328
I1
sVd7xr8f4
p3329
I1
sVdeq3qaq
p3330
I1
sVd8gl0du
p3331
I2
sVdcq4u8t
p3332
I1
sVd0xh0lp
p3333
I1
sVd4pymn6
p3334
I1
sVdhfbx0i
p3335
I1
sVd1hlb5n
p3336
I1
sVd9dsvu4
p3337
I1
sVd0ku8a3
p3338
I2
sVd15haus
p3339
I1
sVddwl9fq
p3340
I2
sVd893lqu
p3341
I2
sVd5ftf32
p3342
I1
sVd0enrcg
p3343
I1
sVdgreo2d
p3344
I1
sVd9bp0at
p3345
I1
sVd0b6eg9
p3346
I1
sVdka6ppr
p3347
I1
sVd5h5f6f
p3348
I1
sVdhisjvi
p3349
I1
sVdshko11
p3350
I1
sVdnbbm0x
p3351
I2
sVd8rrtef
p3352
I1
sVdqktw6h
p3353
I1
sVdixfb68
p3354
I1
sVd27795p
p3355
I1
sVd6a73vz
p3356
I1
sVd0ig4ge
p3357
I1
sVd34jr1t
p3358
I1
sVd9g53x3
p3359
I1
sVddujuf8
p3360
I1
sVdrzsh1t
p3361
I1
sVd1wuos5
p3362
I1
sVdiv324v
p3363
I1
sVcyjvth3
p3364
I1
sVczljix5
p3365
I1
sVcyl2m7g
p3366
I1
sVdhtm6qj
p3367
I1
sVdj47j7i
p3368
I1
sVczmehvr
p3369
I1
sVd6dtfoy
p3370
I1
sVd7tro3b
p3371
I1
sVdgdjweu
p3372
I2
sVd8qthho
p3373
I1
sVd34xekq
p3374
I1
sVde485fq
p3375
I1
sVd3tareu
p3376
I1
sVdap9mw4
p3377
I1
sVdbqfiw3
p3378
I1
sVd03asxv
p3379
I1
sVczrpegx
p3380
I1
sVd80h81z
p3381
I1
sVd9u6zni
p3382
I2
sVczjs6vq
p3383
I1
sVd19qyzq
p3384
I2
sVdgo3lj8
p3385
I1
sVd0ldthh
p3386
I1
sVdgi2u6k
p3387
I1
sVdeg18a6
p3388
I1
sVdistsme
p3389
I3
sVdadvixq
p3390
I1
sVd5trnqn
p3391
I1
sVd07zjmh
p3392
I1
sVd8eunh1
p3393
I1
sVd4je97y
p3394
I1
sVdkm4vu1
p3395
I1
sVdi16pdn
p3396
I1
sVd5xmsfl
p3397
I3
sVdex1jp1
p3398
I1
sVd9d2lau
p3399
I1
sVd5zm95u
p3400
I1
sVd453q9y
p3401
I1
sVd4h8yha
p3402
I1
sVdjaf9kh
p3403
I1
sVdbcfvuy
p3404
I1
sVd24wnrs
p3405
I1
sVdq5n860
p3406
I1
sVdh0opkd
p3407
I1
sVd4ftl72
p3408
I1
sVd9e2tcm
p3409
I1
sVd3gushi
p3410
I1
sVdc010la
p3411
I1
sVdt7w6sx
p3412
I1
sVdq4pk8j
p3413
I1
sVcyl5mh1
p3414
I1
sVdnkhui0
p3415
I1
sVdfls03u
p3416
I1
sVdbd30f8
p3417
I1
sVd9z0io5
p3418
I1
sVdfuk2ho
p3419
I1
sVd341gxi
p3420
I1
sVd1bo1wb
p3421
I1
sVddcxz8q
p3422
I1
sVdrotaap
p3423
I1
sVdnc8tmz
p3424
I1
sVdaj5q7k
p3425
I1
sVdc0djs5
p3426
I1
sVdiyqb7b
p3427
I1
sVd4sg2tu
p3428
I1
sVdguguhi
p3429
I1
sVd0zr7kb
p3430
I1
sVd7mjgat
p3431
I1
sVd4l0pv2
p3432
I1
sVd5qef27
p3433
I1
sVd2gapmp
p3434
I2
sVds1w63s
p3435
I1
sVd5u8mx9
p3436
I1
sVd2w34ki
p3437
I2
sVdh2vgri
p3438
I1
sVd6k75rl
p3439
I1
sVd9c22su
p3440
I1
sVd5vb0er
p3441
I1
sVdjcx27y
p3442
I2
sVdnm4qzm
p3443
I1
sVddej049
p3444
I1
sVdkw5m7f
p3445
I1
sVd14j8uq
p3446
I1
sVdhtrolc
p3447
I1
sVd8ojicp
p3448
I1
sVd6gftgb
p3449
I1
sVdbjzbk9
p3450
I1
sVdg1ouut
p3451
I1
sVd7d5v8q
p3452
I2
sVdiu21b7
p3453
I1
sVd7eta2u
p3454
I1
sVdertjfx
p3455
I1
sVdkvjfjo
p3456
I1
sVdfffx3z
p3457
I1
sVdq8z0gz
p3458
I1
sVd3nvh2i
p3459
I1
sVdsj564j
p3460
I1
sVcz5k1fm
p3461
I2
sVd6tntrx
p3462
I1
sVdpsa5rz
p3463
I8
sVdih443d
p3464
I1
sVcyyim6x
p3465
I1
sVd2wx99w
p3466
I1
sVd5ssgfz
p3467
I2
sVd810f4b
p3468
I1
sVd1a5via
p3469
I1
sVd28uj6b
p3470
I2
sVd8brqs4
p3471
I1
sVczxim46
p3472
I1
sVdcffrfe
p3473
I1
sVd9fmnpl
p3474
I1
sVd281346
p3475
I1
sVd9x355l
p3476
I1
sVcz85v3e
p3477
I1
sVdr4b2kx
p3478
I1
sVdsm8i0k
p3479
I1
sVdar7nuw
p3480
I1
sVd90mloq
p3481
I1
sVd0hzh6m
p3482
I1
sVd7es5nh
p3483
I1
sVdenb8u0
p3484
I1
sVd0nn5d6
p3485
I1
sVd90nxpk
p3486
I1
sVdbjv0ey
p3487
I1
sVdg4iwby
p3488
I1
sVd0gb20q
p3489
I1
sVczi0y3o
p3490
I1
sVdp8tu7f
p3491
I2
sVczrdkiq
p3492
I1
sVd602q2a
p3493
I2
sVd4ioknq
p3494
I1
sVczziswo
p3495
I1
sVdgkzzew
p3496
I1
sVdbqczm7
p3497
I1
sVdehsaos
p3498
I2
sVdpqw5xe
p3499
I2
sVdiasl68
p3500
I1
sVdelodgy
p3501
I1
sVcz6402l
p3502
I1
sVda1vfsf
p3503
I1
sVd8fa1lw
p3504
I1
sVdhx99m0
p3505
I1
sVdh75q7y
p3506
I1
sVdfhmwh4
p3507
I2
sVd3kktii
p3508
I1
sVcyocysd
p3509
I1
sVdhp9ynv
p3510
I1
sVdfeayay
p3511
I1
sVdatb1lr
p3512
I1
sVddn0rv2
p3513
I1
sVd2t5st5
p3514
I1
sVd609z2w
p3515
I1
sVda14kw7
p3516
I1
sVd41t4y7
p3517
I1
sVd36lbl9
p3518
I1
sVd81c7h6
p3519
I1
sVdpbuqob
p3520
I1
sVdc00s8y
p3521
I1
sVd2g9nnt
p3522
I2
sVd6cogdw
p3523
I1
sVdn6cdsc
p3524
I1
sVdjgul6u
p3525
I1
sVdpmpndy
p3526
I1
sVdeiahpt
p3527
I1
sVd28ze9x
p3528
I1
sVdccrrbo
p3529
I1
sVdia884p
p3530
I1
sVdfntdb8
p3531
I1
sVdoqu48b
p3532
I1
sVdaqza2x
p3533
I1
sVde4eo2y
p3534
I1
sVcyvvzsu
p3535
I1
sVdh15p7y
p3536
I1
sVdcpmm3a
p3537
I1
sVdqdvr0r
p3538
I1
sVd0jfd8i
p3539
I1
sVdg7zfxn
p3540
I1
sVdasg63t
p3541
I1
sVczkbcpg
p3542
I1
sVd0u0ily
p3543
I1
sVdpph7ry
p3544
I1
sVdmer1bj
p3545
I1
sVd00pipm
p3546
I1
sVdjedm7r
p3547
I1
sVdsv2fxc
p3548
I1
sVdqp399j
p3549
I1
sVde328g3
p3550
I1
sVcymzjmw
p3551
I1
sVdrd77dj
p3552
I1
sVderc9ze
p3553
I1
sVdano30o
p3554
I1
sVdr0ntgw
p3555
I1
sVdbqgnp1
p3556
I1
sVdd24t0k
p3557
I1
sVd0aiq7e
p3558
I1
sVdeadpeh
p3559
I1
sVdsstpvo
p3560
I1
sVdqsjyas
p3561
I1
sVddcs9r3
p3562
I1
sVdelm63v
p3563
I1
sVd2kl9kn
p3564
I1
sVd4s0vz5
p3565
I1
sVdpvi9fa
p3566
I1
sVdhmgd1n
p3567
I1
sVdazusht
p3568
I1
sVcz0ky1n
p3569
I1
sVdkgcdyg
p3570
I1
sVd53ydwk
p3571
I1
sVd16xlm2
p3572
I1
sVdq3ooc7
p3573
I1
sVdirhwua
p3574
I1
sVd3pk4ve
p3575
I2
sVdiohjt8
p3576
I1
sVd9ql6k1
p3577
I1
sVd9nw2f6
p3578
I1
sVdi5b6uh
p3579
I1
sVdjk5et0
p3580
I1
sVd4lltoq
p3581
I1
sVd2eke0x
p3582
I1
sVd9a8mid
p3583
I1
sVczw6i8i
p3584
I1
sVdhrkiqw
p3585
I1
sVdk899my
p3586
I1
sVd3v3ot0
p3587
I2
sVczsrdtb
p3588
I1
sVds83gz0
p3589
I1
sVdfmzzgx
p3590
I1
sVd3fgxup
p3591
I1
sVdjjq77i
p3592
I1
sVd2cx6g4
p3593
I1
sVdp4nfdu
p3594
I1
sVd4qjthv
p3595
I1
sVd91sknt
p3596
I1
sVdhsz8yg
p3597
I1
sVczufjjo
p3598
I1
sVdcplrde
p3599
I1
sVcz3kwbx
p3600
I1
sVczuvnto
p3601
I1
sVd95nmkg
p3602
I1
sVdjnn4ul
p3603
I1
sVdarfm8g
p3604
I1
sVdmp0754
p3605
I1
sVdmu3983
p3606
I1
sVdjsluqb
p3607
I1
sVdrt24vu
p3608
I1
sVdkmj0mu
p3609
I1
sVd1xalpz
p3610
I1
sVdr7gyxy
p3611
I1
sVd2ennhw
p3612
I1
sVczzgv06
p3613
I1
sVdkyk0ez
p3614
I2
sVdin4uuf
p3615
I1
sVddi82qp
p3616
I2
sVdokvux8
p3617
I1
sVdfhjt63
p3618
I1
sVd66ottj
p3619
I1
sVd5on975
p3620
I1
sVdpbnaw2
p3621
I1
sVd8coubo
p3622
I2
sVd1dzkhr
p3623
I1
sVd4otttt
p3624
I1
sVdsg6ghi
p3625
I1
sVd8dd7ne
p3626
I1
sVd85qt9g
p3627
I2
sVdiw9hiw
p3628
I1
sVd03wlmd
p3629
I1
sVdhfcrma
p3630
I1
sVd33arvb
p3631
I2
sVd3wz9ny
p3632
I1
sVdflaj4c
p3633
I2
sVdjvo379
p3634
I1
sVd95nvjx
p3635
I1
sVcztqkxr
p3636
I1
sVdcdsxrn
p3637
I1
sVddcqlly
p3638
I1
sVd1bhuhf
p3639
I1
sVdfptkb6
p3640
I1
sVddfm2nu
p3641
I1
sVd23qgfv
p3642
I1
sVdcdqzbw
p3643
I1
sVd6mhg01
p3644
I5
sVd1vhbfl
p3645
I1
sVd1l6fl0
p3646
I1
sVcys3167
p3647
I1
sVdi0u2it
p3648
I1
sVdjw6i9g
p3649
I1
sVdfgcp8y
p3650
I1
sVd2ldae1
p3651
I1
sVdsszmut
p3652
I1
sVczav3bh
p3653
I1
sVd1iyyyv
p3654
I1
sVdhgj3iv
p3655
I1
sVdpi5t5a
p3656
I1
sVd8bl5cd
p3657
I1
sVd1ynmu6
p3658
I1
sVdnfrxx5
p3659
I1
sVd3orjnl
p3660
I1
sVdaylw65
p3661
I1
sVde0n1ld
p3662
I1
sVd1h9wnn
p3663
I1
sVdazsht1
p3664
I1
sVd6tzi9l
p3665
I1
sVdggr38x
p3666
I2
sVd7jxjqd
p3667
I1
sVd0o0lvq
p3668
I1
sVdcvl99q
p3669
I1
sVddxa3ym
p3670
I1
sVdbr0ujj
p3671
I1
sVdtcojjy
p3672
I1
sVdcfrvk4
p3673
I1
sVd31d0o2
p3674
I1
sVdi71m0m
p3675
I1
sVd4s64i4
p3676
I1
sVdbez1sz
p3677
I1
sVdjx0x2x
p3678
I1
sVdqd0pkl
p3679
I1
sVddaol7z
p3680
I5
sVdffp6k0
p3681
I1
sVdrddqal
p3682
I1
sVdjsm6la
p3683
I1
sVd1gzgnx
p3684
I1
sVdj4gax4
p3685
I1
sVdhyd5v0
p3686
I1
sVd1u49p0
p3687
I1
sVdehvnqi
p3688
I1
sVdhd5s4t
p3689
I1
sVdb2i9zv
p3690
I1
sVdegh7qv
p3691
I1
sVd0ofc7s
p3692
I1
sVddspim2
p3693
I1
sVd7zhs9d
p3694
I1
sVd0usj5t
p3695
I1
sVddl75dk
p3696
I1
sVd0vjco9
p3697
I1
sVdrlw7lg
p3698
I1
sVd46yuam
p3699
I1
sVdhn7nn4
p3700
I1
sVddhwvk8
p3701
I1
sVdh9jhc5
p3702
I1
sVdb571ic
p3703
I1
sVddwjdrh
p3704
I1
sVdnr128d
p3705
I1
sVdfaqall
p3706
I1
sVdfv2one
p3707
I1
sVdt9v5od
p3708
I1
sVd12439p
p3709
I1
sVd2bvsq2
p3710
I1
sVdtdvzot
p3711
I1
sVdq0mxdh
p3712
I1
sVdgjrkt6
p3713
I1
sVd0t7x0s
p3714
I1
sVdhun6dg
p3715
I1
sVd0x3xv6
p3716
I1
sVd5e2rgd
p3717
I1
sVd7uhnjz
p3718
I1
sVd88r1dh
p3719
I2
sVd5undx3
p3720
I1
sVd1j0vsl
p3721
I1
sVd0b662l
p3722
I1
sVdfq5pue
p3723
I1
sVdenzqcj
p3724
I1
sVdey4r30
p3725
I1
sVd4vxsa1
p3726
I2
sVdn6w01i
p3727
I1
sVdjyqpbc
p3728
I1
sVd9mybgw
p3729
I1
sVd6luw39
p3730
I1
sVdafqjkd
p3731
I2
sVd2dplj3
p3732
I1
sVdcaqxok
p3733
I1
sVdmwiqjc
p3734
I1
sVd2p4d83
p3735
I1
sVczfgjfn
p3736
I1
sVdgoh2d5
p3737
I1
sVde2jkp2
p3738
I1
sVd9sufie
p3739
I1
sVd46vtmy
p3740
I1
sVd26ixwt
p3741
I1
sVd7seblp
p3742
I1
sVdmgqwjm
p3743
I2
sVd82fm6z
p3744
I1
sVde8zm2k
p3745
I1
sVd8zpn14
p3746
I1
sVd1zcjif
p3747
I1
sVdqyp41h
p3748
I1
sVdpi8ajq
p3749
I1
sVcz0jt22
p3750
I1
sVczyqima
p3751
I1
sVdmf24sy
p3752
I1
sVd2o63mc
p3753
I2
sVd7tfb8z
p3754
I1
sVdghufyu
p3755
I1
sVdidf7ow
p3756
I1
sVcz2t9h1
p3757
I1
sVdhom2hj
p3758
I2
sVdkxlbtq
p3759
I1
sVdi573ap
p3760
I1
sVd6nyyg9
p3761
I1
sVdstyrux
p3762
I1
sVdc8xtmk
p3763
I1
sVd33drxe
p3764
I2
sVd8il0si
p3765
I1
sVdg7ecxs
p3766
I3
sVdo09fw5
p3767
I1
sVdftl9ha
p3768
I1
sVdpfgq7s
p3769
I1
sVdgk7vg7
p3770
I1
sVdhlo182
p3771
I1
sVdet20w5
p3772
I1
sVdbkqsae
p3773
I1
sVcyktkve
p3774
I1
sVdtgj09h
p3775
I1
sVd5oqcec
p3776
I1
sVd3udzwg
p3777
I1
sVczy0lvn
p3778
I1
sVdt673tk
p3779
I1
sVd6vgboh
p3780
I1
sVdfznj7a
p3781
I1
sVdcvw2dj
p3782
I1
sVd7j7eig
p3783
I1
sVdokntr2
p3784
I1
sVdcgk2ys
p3785
I1
sVd5g5kyg
p3786
I1
sVdeg9b8w
p3787
I1
sVde2ltjz
p3788
I1
sVdd8k4s9
p3789
I1
sVdnzmpbg
p3790
I1
sVdop5cja
p3791
I1
sVd1kwlq7
p3792
I1
sVczsh2qk
p3793
I1
sVdsc1j74
p3794
I1
sVd3willz
p3795
I1
sVd86b8s9
p3796
I1
sVcz1hdie
p3797
I1
sVdkx8qho
p3798
I1
sVdj1b8qb
p3799
I1
sVdtdvfp6
p3800
I1
sVdrpxmsb
p3801
I1
sVdf79air
p3802
I1
sVd2t6dzw
p3803
I1
sVd76n09f
p3804
I1
sVdoa0zyk
p3805
I1
sVdh8evog
p3806
I1
sVdeu06vo
p3807
I1
sVdkqoubk
p3808
I1
sVdfi6ddn
p3809
I1
sVd1lgaly
p3810
I1
sVd4hi8lz
p3811
I1
sVd4bcr8v
p3812
I1
sVdip5w8m
p3813
I1
sVd9isn5z
p3814
I1
sVd77qq8q
p3815
I1
sVdjinafc
p3816
I1
sVd8fswgf
p3817
I1
sVdha3s4r
p3818
I1
sVczxhfdk
p3819
I1
sVd8orh7b
p3820
I1
sVda9i1yg
p3821
I1
sVdpd6ml0
p3822
I1
sVde0liaa
p3823
I3
sVdf2vqjr
p3824
I2
sVd7y5ra4
p3825
I1
sVdfq3kdn
p3826
I2
sVdh0tkcs
p3827
I1
sVddj56m9
p3828
I1
sVd8um13k
p3829
I1
sVda12qdd
p3830
I1
sVdca10u2
p3831
I1
sVdpzs3au
p3832
I1
sVd25cx6j
p3833
I1
sVd1ixugr
p3834
I1
sVdi7x46z
p3835
I1
sVcz3tcaz
p3836
I1
sVdii85rt
p3837
I1
sVd6twigh
p3838
I1
sVd2lwtpj
p3839
I1
sVd2a3y5i
p3840
I1
sVdb57je3
p3841
I1
sVdsx1t6s
p3842
I1
sVd05kcdy
p3843
I1
sVd44orz9
p3844
I1
sVddf9fif
p3845
I1
sVdg1on84
p3846
I1
sVdrn55xd
p3847
I1
sVd2urdj3
p3848
I1
sVdsaixwq
p3849
I1
sVd23s58f
p3850
I1
sVczivc3x
p3851
I2
sVd4vppeo
p3852
I1
sVd6an5a1
p3853
I1
sVd5az477
p3854
I2
sVd0t6xyt
p3855
I1
sVd4fsdt2
p3856
I1
sVdev3m44
p3857
I1
sVd46msmf
p3858
I1
sVdrdjnso
p3859
I1
sVdk3wdzo
p3860
I1
sVd0z4auu
p3861
I1
sVdkbft6a
p3862
I1
sVd6zlt7p
p3863
I1
sVd9s7um0
p3864
I1
sVd4l3qi0
p3865
I1
sVdpub04s
p3866
I1
sVd15m6pm
p3867
I1
sVdoa6ib1
p3868
I2
sVd0l6a26
p3869
I4
sVdgfyfpj
p3870
I1
sVdies381
p3871
I1
sVdetxjqq
p3872
I1
sVd68qegc
p3873
I2
sVdofo5ua
p3874
I1
sVd3010dr
p3875
I1
sVd51qotm
p3876
I1
sVddvljua
p3877
I2
sVdr14q5h
p3878
I1
sVd03evdp
p3879
I1
sVcyhz27v
p3880
I1
sVdsvlr0d
p3881
I1
sVdn339hn
p3882
I2
sVdavh70y
p3883
I1
sVdi6vhow
p3884
I1
sVdj7s29s
p3885
I1
sVcymvrdn
p3886
I1
sVdke20wu
p3887
I1
sVd6qr37n
p3888
I1
sVd7r3shh
p3889
I1
sVd9m2l42
p3890
I1
sVdhi21nm
p3891
I1
sVcztkv9l
p3892
I1
sVdrryhgr
p3893
I1
sVcyzl65p
p3894
I1
sVd0ibj4t
p3895
I2
sVd0ha5q0
p3896
I2
sVdqbn4wa
p3897
I2
sVd9xrf3q
p3898
I1
sVdfagmng
p3899
I1
sVcz8p5k5
p3900
I1
sVd2gdalk
p3901
I1
sVdhkw8uo
p3902
I1
sVda107q9
p3903
I1
sVdc0u7fr
p3904
I1
sVdpjxqtw
p3905
I1
sVd8l0pg7
p3906
I1
sVcytx3u5
p3907
I1
sVczwbt45
p3908
I1
sVddin4x7
p3909
I2
sVd5ip1rq
p3910
I1
sVcyljyhe
p3911
I1
sVd30qdqd
p3912
I1
sVdhlofup
p3913
I1
sVdk6046v
p3914
I1
sVd3iux1t
p3915
I1
sVd530wg2
p3916
I1
sVd9dy6l2
p3917
I2
sVdmo0bdh
p3918
I1
sVd2zqw1r
p3919
I1
sVd624oif
p3920
I1
sVczi8ylr
p3921
I1
sVdb5fscr
p3922
I1
sVd1sbucf
p3923
I1
sVdti4jxy
p3924
I1
sVd8rskdl
p3925
I1
sVdstd5pt
p3926
I1
sVddakhzo
p3927
I1
sVdr2carh
p3928
I1
sVd95bi9r
p3929
I1
sVdnssy9m
p3930
I1
sVdd6w1ja
p3931
I1
sVdbl66ug
p3932
I1
sVdt6bdcf
p3933
I2
sVd6oygfr
p3934
I1
sVd1p0nb4
p3935
I1
sVdkydx9h
p3936
I1
sVd0507vm
p3937
I1
sVd81iwsj
p3938
I1
sVdd0v6uo
p3939
I1
sVd6tyzur
p3940
I2
sVdd24jgf
p3941
I1
sVd84i7at
p3942
I1
sVdst885c
p3943
I1
sVdekifr1
p3944
I1
sVdf60pt5
p3945
I1
sVdrvn9qs
p3946
I1
sVdnv8ldl
p3947
I1
sVd2sr3pf
p3948
I1
sVcz231x7
p3949
I1
sVdeseubt
p3950
I1
sVd6gpjsq
p3951
I1
sVdan8pl4
p3952
I1
sVczibluy
p3953
I1
sVd68ox5e
p3954
I1
sVdccmtgo
p3955
I1
sVdamf7l3
p3956
I2
sVdec9xec
p3957
I1
sVd2cd5au
p3958
I2
sVdb5ctte
p3959
I1
sVd8s26lz
p3960
I1
sVd05i7qd
p3961
I1
sVdb18197
p3962
I1
sVd0mrto7
p3963
I1
sVdazl3ec
p3964
I1
sVd5a1792
p3965
I1
sVdnd9bmf
p3966
I1
sVd1xeqm0
p3967
I1
sVd56yylo
p3968
I1
sVd211i9k
p3969
I1
sVd1y470g
p3970
I1
sVdik7w0d
p3971
I1
sVdk14n6c
p3972
I1
sVd09mooz
p3973
I2
sVdj0tj9l
p3974
I2
sVdb06xic
p3975
I1
sVdrqtxv1
p3976
I1
sVdqe3w7z
p3977
I1
sVdpjl2mr
p3978
I1
sVdcuvlx9
p3979
I1
sVdqeijzl
p3980
I1
sVd0p4wyj
p3981
I1
sVd9fsyrm
p3982
I1
sVdj9dem2
p3983
I1
sVdgpqgtm
p3984
I1
sVddu4rl0
p3985
I1
sVd7ad15e
p3986
I2
sVdkjy4ok
p3987
I1
sVda68rz1
p3988
I1
sVdnd4qh4
p3989
I1
sVcyl1r66
p3990
I1
sVd3gyyh0
p3991
I1
sVczmqe23
p3992
I1
sVdio4r0x
p3993
I1
sVdnyknqb
p3994
I1
sVd9n0tmr
p3995
I1
sVdrdd37f
p3996
I1
sVcys6dse
p3997
I1
sVd2fz4dh
p3998
I1
sVdi4f5js
p3999
I1
sVd5o8fj0
p4000
I1
sVdioxua5
p4001
I1
sVd4nzy57
p4002
I1
sVdf8uduu
p4003
I1
sVcysu9w8
p4004
I1
sVdggol6c
p4005
I1
sVd5o8s9i
p4006
I1
sVdj6ekwa
p4007
I1
sVdkfuud6
p4008
I1
sVdi4la7a
p4009
I1
sVdtggzbh
p4010
I1
sVdqicuak
p4011
I1
sVdj3kfgk
p4012
I1
sVdeahg7z
p4013
I1
sVd05isz8
p4014
I1
sVd1l6cni
p4015
I1
sVdmhfxw8
p4016
I1
sVdetuccn
p4017
I1
sVd3l9zzy
p4018
I1
sVd6aoiho
p4019
I1
sVd0c9qyj
p4020
I1
sVd98s9a3
p4021
I1
sVdq1nl5k
p4022
I1
sVczh0tqi
p4023
I1
sVd7shvbc
p4024
I1
sVddwi07e
p4025
I1
sVd7p458n
p4026
I1
sVczp4oui
p4027
I2
sVdcq59ih
p4028
I1
sVd1d7vxx
p4029
I1
sVd7nwb0n
p4030
I1
sVd7t94cc
p4031
I1
sVd199b8v
p4032
I1
sVdfqb5jq
p4033
I1
sVdhqc7av
p4034
I1
sVd31k7rg
p4035
I1
sVddf2xb8
p4036
I1
sVcywclrt
p4037
I1
sVdgts833
p4038
I2
sVdkiiywu
p4039
I1
sVd6tdqtj
p4040
I1
sVd3doan0
p4041
I1
sVd5sh2qk
p4042
I1
sVdh15dg0
p4043
I1
sVdgbja44
p4044
I1
sVd0vmvy0
p4045
I1
sVdixujq3
p4046
I1
sVdbm5r9d
p4047
I1
sVd9vp4e8
p4048
I1
sVcyuemlj
p4049
I1
sVdekrhl5
p4050
I1
sVdbjrw4c
p4051
I1
sVdqst4ky
p4052
I2
sVdhcvv2c
p4053
I3
sVdgre2ro
p4054
I2
sVd2wu15t
p4055
I1
sVdiio36w
p4056
I2
sVdir465d
p4057
I1
sVdhjlhcg
p4058
I1
sVd89gawp
p4059
I1
sVdexqz2o
p4060
I2
sVdfw89l4
p4061
I1
sVds6nr0l
p4062
I1
sVdb4s4ap
p4063
I1
sVdgsji3z
p4064
I4
sVdft92jo
p4065
I1
sVdhevjxc
p4066
I1
sVd2dsxjr
p4067
I1
sVd4akiw8
p4068
I1
sVczalktq
p4069
I2
sVdbk74fw
p4070
I2
sVd9d8rw3
p4071
I1
sVcymgz8g
p4072
I1
sVdkthpnh
p4073
I1
sVd14c1wi
p4074
I1
sVdgojmgq
p4075
I1
sVdgkfkt6
p4076
I3
sVdt1xyxf
p4077
I1
sVd9ifjr1
p4078
I1
sVd4vtlqy
p4079
I1
sVdgxlo46
p4080
I1
sVds14vz7
p4081
I1
sVdg5ncaq
p4082
I1
sVdtiwfhk
p4083
I1
sVdea8ieh
p4084
I1
sVdtgq3r5
p4085
I1
sVd7yf3vk
p4086
I1
sVdquk4hy
p4087
I1
sVdt1x1db
p4088
I1
sVdf2wgt2
p4089
I1
sVdc92gfd
p4090
I1
sVd1pf7hc
p4091
I1
sVczamltp
p4092
I1
sVd029o3c
p4093
I1
sVd5n3yly
p4094
I1
sVdbhq2yt
p4095
I1
sVd1ndsdt
p4096
I1
sVdd437bw
p4097
I1
sVd1dsvpq
p4098
I1
sVdal3o5r
p4099
I1
sVdjmjt3u
p4100
I2
sVd59ud7m
p4101
I1
sVdgl4l3x
p4102
I1
sVczvsnbc
p4103
I1
sVdkxk1ow
p4104
I1
sVdh7vo21
p4105
I1
sVdkp258u
p4106
I1
sVd5x3zbc
p4107
I1
sVd4thmpf
p4108
I1
sVdb5l76x
p4109
I1
sVd0z7a0c
p4110
I1
sVcykhwyw
p4111
I1
sVdi9lqhf
p4112
I1
sVdn38uj6
p4113
I2
sVdai52mw
p4114
I1
sVdr1ekpt
p4115
I1
sVdq9kby7
p4116
I1
sVd6g8bsx
p4117
I1
sVd4a1fv0
p4118
I1
sVd6ncx8u
p4119
I2
sVd8nz5um
p4120
I1
sVddeghpc
p4121
I1
sVczuyzop
p4122
I1
sVdbpwslz
p4123
I1
sVd259m9o
p4124
I1
sVdfwgzad
p4125
I1
sVd6ooi8p
p4126
I1
sVdix50lh
p4127
I1
sVd66rrkw
p4128
I1
sVdror9rp
p4129
I1
sVd5z2wx2
p4130
I1
sVdkyj4ra
p4131
I1
sVczc3f0q
p4132
I1
sVcztraa0
p4133
I2
sVds5mlk6
p4134
I1
sVd70jfzi
p4135
I1
sVdise7n2
p4136
I1
sVd0fe7z4
p4137
I1
sVdcvihnk
p4138
I1
sVdbtx02f
p4139
I1
sVdevwmlk
p4140
I1
sVdejo32r
p4141
I1
sVd7ukto3
p4142
I1
sVdhuqdmo
p4143
I1
sVd62kger
p4144
I1
sVd36oufs
p4145
I1
sVddvcd2r
p4146
I1
sVd01sh1u
p4147
I1
sVdq9o20r
p4148
I1
sVd35h1wc
p4149
I1
sVddq2js5
p4150
I1
sVd2q86v3
p4151
I1
sVddhqfca
p4152
I1
sVd55zcr3
p4153
I1
sVd3hz1hx
p4154
I1
sVczzdy5o
p4155
I1
sVdjtetl0
p4156
I1
sVdi1dydr
p4157
I2
sVdj57y65
p4158
I1
sVdc00wni
p4159
I1
sVd60pfcx
p4160
I2
sVdbhiqsy
p4161
I1
sVdh5gxyq
p4162
I1
sVdg8a0k8
p4163
I1
sVddktguu
p4164
I1
sVdeky9bz
p4165
I1
sVcyxfyvi
p4166
I1
sVdak1l47
p4167
I1
sVdqw5fhu
p4168
I1
sVdhcrpir
p4169
I1
sVd21ihxe
p4170
I1
sVdjdp82q
p4171
I1
sVdsr0nax
p4172
I1
sVd1fp7p1
p4173
I1
sVd0wopkj
p4174
I1
sVdeuugg3
p4175
I1
sVdcfanco
p4176
I1
sVdpu47n4
p4177
I1
sVdq3yoeg
p4178
I1
sVd7k7dbi
p4179
I1
sVd9mv1cr
p4180
I1
sVdeza3jr
p4181
I1
sVdgsm4ou
p4182
I1
sVcznz2jk
p4183
I1
sVda57z0i
p4184
I1
sVdndeh3u
p4185
I1
sVd8swcgo
p4186
I1
sVd720grh
p4187
I2
sVd6ncjfx
p4188
I1
sVdhiea14
p4189
I1
sVdfimjlp
p4190
I2
sVdotonjf
p4191
I1
sVdiax4dk
p4192
I1
sVczorugr
p4193
I1
sVdenbbef
p4194
I1
sVd2doloq
p4195
I1
sVdk5ssup
p4196
I1
sVd5wxjnw
p4197
I1
sVd0d98pe
p4198
I1
sVdhbnuaw
p4199
I1
sVdaajcl0
p4200
I1
sVd0p4yq2
p4201
I1
sVd6p5ajy
p4202
I1
sVd57s2am
p4203
I1
sVd882539
p4204
I1
sVd5yqtl9
p4205
I1
sVcyynz0f
p4206
I1
sVd1r7zhx
p4207
I1
sVdqeev7d
p4208
I1
sVd079gzt
p4209
I1
sVdehzmnn
p4210
I1
sVd1sl8xl
p4211
I2
sVd7nqzhr
p4212
I2
sVdau28lr
p4213
I1
sVdqviyrz
p4214
I1
sVd15pe7l
p4215
I1
sVddodbjr
p4216
I1
sVdid3dbn
p4217
I1
sVdt5jjpk
p4218
I1
sVdh1q558
p4219
I1
sVdbn76pi
p4220
I1
sVdg6eh24
p4221
I1
sVd84k0il
p4222
I1
sVdtg74s5
p4223
I2
sVd5btdk7
p4224
I2
sVd6u45dz
p4225
I4
sVd0brdej
p4226
I1
sVd8qdrha
p4227
I2
sVd3ci1v9
p4228
I1
sVd8nmkvu
p4229
I5
sVdj2mh1l
p4230
I1
sVd5yus4i
p4231
I1
sVd5cn1px
p4232
I1
sVdjubeu2
p4233
I1
sVdqqtxoe
p4234
I1
sVd7hso6n
p4235
I1
sVdnml37a
p4236
I1
sVdfs1o9w
p4237
I1
sVdas2e26
p4238
I2
sVd5os05b
p4239
I2
sVcyiianv
p4240
I1
sVdka04io
p4241
I1
sVd8l22ei
p4242
I1
sVdf0or2n
p4243
I1
sVdd3ra8p
p4244
I1
sVdncccwh
p4245
I1
sVd3v5utd
p4246
I1
sVdav9jd9
p4247
I1
sVd3vf7lb
p4248
I1
sVczyevjy
p4249
I1
sVczl129x
p4250
I1
sVcz4nfjg
p4251
I1
sVd8qpt6b
p4252
I1
sVdilgh1c
p4253
I1
sVdba5eim
p4254
I1
sVcyzgmem
p4255
I2
sVdb5erwy
p4256
I1
sVddmiyiu
p4257
I1
sVd7t2vpe
p4258
I1
sVd1ugxpf
p4259
I1
sVdcmn4g3
p4260
I1
sVd6yw636
p4261
I1
sVdcpeh07
p4262
I1
sVd2e9ihf
p4263
I1
sVczyhy3l
p4264
I1
sVd1bzroi
p4265
I1
sVd1xssze
p4266
I1
sVd2bc9v6
p4267
I1
sVcylxq6p
p4268
I1
sVdkx3ujd
p4269
I1
sVczhqnlb
p4270
I1
sVd2mmakd
p4271
I1
sVdgb8zsi
p4272
I1
sVdd7d605
p4273
I1
sVd690z8a
p4274
I1
sVdrb1d6s
p4275
I1
sVd68m93l
p4276
I1
sVd3mmkwa
p4277
I1
sVd5ximo7
p4278
I1
sVda51dmi
p4279
I1
sVd2i0p2i
p4280
I1
sVd3ge6bk
p4281
I4
sVdg8fytw
p4282
I1
sVd0r4juv
p4283
I1
sVdivejko
p4284
I1
sVd19cl50
p4285
I1
sVd5o9k4o
p4286
I1
sVd1dhu30
p4287
I1
sVd3jl5cu
p4288
I1
sVdk8zif1
p4289
I1
sVdh60qff
p4290
I1
sVd79lp4b
p4291
I1
sVdesx7qa
p4292
I1
sVdaeoswh
p4293
I1
sVd004dvx
p4294
I1
sVdc4o6cm
p4295
I1
sVdcm4caf
p4296
I1
sVdhec3iy
p4297
I1
sVcztke2l
p4298
I1
sVdb1qe6b
p4299
I1
sVcyiwwh7
p4300
I2
sVdbx4wnd
p4301
I1
sVd8zip5u
p4302
I1
sVd14pl28
p4303
I1
sVd1in62o
p4304
I1
sVd1vkktw
p4305
I1
sVd1rr0pt
p4306
I1
sVd19xwqp
p4307
I1
sVd9y7w41
p4308
I1
sVd3ueelo
p4309
I1
sVd3e2yh1
p4310
I1
sVd0j11ck
p4311
I1
sVdrbxz7a
p4312
I1
sVdqe2488
p4313
I1
sVd6094il
p4314
I1
sVcz85t7l
p4315
I1
sVdaarpj2
p4316
I1
sVd9dzkl3
p4317
I2
sVdrs2pai
p4318
I1
sVd1zgq87
p4319
I1
sVdbga5dc
p4320
I1
sVdf1vd00
p4321
I1
sVcyyd4cs
p4322
I1
sVdgbt3gq
p4323
I1
sVda94oc7
p4324
I1
sVdeay1mj
p4325
I1
sVd2fo5gq
p4326
I1
sVd1vzzeh
p4327
I1
sVd2uxq00
p4328
I1
sVdn8s619
p4329
I1
sVdpyu1zt
p4330
I1
sVd2p3qs5
p4331
I1
sVde7e1uj
p4332
I2
sVdo3itbc
p4333
I2
sVdhxnwah
p4334
I1
sVd40l3u1
p4335
I1
sVdivmung
p4336
I1
sVdpvro1m
p4337
I1
sVd2ihuk9
p4338
I2
sVczslg89
p4339
I1
sVdcy40sg
p4340
I1
sVde2x9w1
p4341
I1
sVdelwfae
p4342
I1
sVcz3x01p
p4343
I1
sVdni3iox
p4344
I1
sVdcviv12
p4345
I1
sVdevpqms
p4346
I1
sVdpydkwn
p4347
I1
sVd387hqr
p4348
I1
sVd3e4ekh
p4349
I1
sVd56lfii
p4350
I1
sVczh3ntq
p4351
I1
sVdfaa9nq
p4352
I1
sVd1h6ecm
p4353
I1
sVcyisxz0
p4354
I1
sVderr8a3
p4355
I1
sVdhz8yfu
p4356
I1
sVd1atu8m
p4357
I1
sVd9r54m3
p4358
I1
sVd3gfcdr
p4359
I1
sVcyia8vr
p4360
I1
sVdak0gk8
p4361
I1
sVcyxqvk1
p4362
I1
sVd952p2e
p4363
I1
sVd4vvsjf
p4364
I1
sVdfoeo8l
p4365
I1
sVd810cb4
p4366
I1
sVd9itpp8
p4367
I1
sVdbn7tos
p4368
I1
sVd51liot
p4369
I1
sVd1c1wgu
p4370
I1
sVd9l6gd2
p4371
I1
sVdgk1qz3
p4372
I1
sVdsmanqq
p4373
I1
sVd12efwv
p4374
I1
sVdepglnt
p4375
I1
sVdfx1yck
p4376
I1
sVdk8vlzd
p4377
I1
sVcyt6n6a
p4378
I1
sVd16wmay
p4379
I1
sVdgizq9y
p4380
I1
sVd2gz0dv
p4381
I1
sVddc2f7q
p4382
I1
sVd2vcbha
p4383
I2
sVdhi1xo9
p4384
I1
sVddjty0g
p4385
I1
sVczwm3ej
p4386
I1
sVdmgm6dd
p4387
I1
sVdb5xurb
p4388
I1
sVdnu0a6v
p4389
I1
sVd4gabzv
p4390
I1
sVdqawndh
p4391
I2
sVdiuxolj
p4392
I1
sVdfbcx65
p4393
I1
sVd3npet6
p4394
I1
sVdrjauww
p4395
I1
sVd233rjz
p4396
I1
sVdi1602h
p4397
I1
sVddlm31z
p4398
I1
sVd3e2hvh
p4399
I1
sVd2vxrmc
p4400
I1
sVd1y6w6g
p4401
I1
sVczyu9n7
p4402
I1
sVd50e3tk
p4403
I1
sVdc1qlzu
p4404
I1
sVdkkpboy
p4405
I1
sVdrt2txv
p4406
I1
sVd7itq0f
p4407
I1
sVdb65tzq
p4408
I1
sVdhrghvj
p4409
I1
sVdirs3sx
p4410
I1
sVddh0bs5
p4411
I1
sVd4liv52
p4412
I1
sVdms4z3m
p4413
I1
sVdmwjff8
p4414
I1
sVdf6c96e
p4415
I1
sVd7s0qq4
p4416
I1
sVdd3d09f
p4417
I1
sVdgi1zut
p4418
I1
sVd430smi
p4419
I1
sVd83z0ix
p4420
I1
sVczwivmf
p4421
I3
sVdn0gs4j
p4422
I1
sVdesjqeg
p4423
I1
sVdga5gub
p4424
I1
sVd6hfvcp
p4425
I1
sVdq6pfb8
p4426
I1
sVd6wfthp
p4427
I1
sVd2npu2m
p4428
I2
sVcytk3do
p4429
I1
sVdcf2ujf
p4430
I1
sVddg0p3j
p4431
I1
sVdhxp3n7
p4432
I1
sVdi2kc1b
p4433
I2
sVd0ryz41
p4434
I1
sVdggov9s
p4435
I1
sVcyp9ot4
p4436
I1
sVczfdiws
p4437
I1
sVdigxvc5
p4438
I1
sVd034gnz
p4439
I1
sVdgevxve
p4440
I1
sVd95f4wo
p4441
I1
sVd87jxoh
p4442
I1
sVcyz9kfw
p4443
I1
sVd170lqg
p4444
I1
sVd6bmghb
p4445
I1
sVczv0uk2
p4446
I1
sVd7s7tw7
p4447
I1
sVdcl4uac
p4448
I1
sVd9ly4mt
p4449
I1
sVd1halt2
p4450
I1
sVd2lgbu2
p4451
I1
sVd2qj4m4
p4452
I1
sVdhcz372
p4453
I1
sVd2fq8gj
p4454
I1
sVd0qluid
p4455
I1
sVdkm62rb
p4456
I1
sVd4b0qw4
p4457
I1
sVdixv9gp
p4458
I1
sVd8nepbe
p4459
I1
sVdcb3nul
p4460
I1
sVdpfhxss
p4461
I1
sVcyyztqm
p4462
I1
sVdeylg2t
p4463
I1
sVd1e94i8
p4464
I1
sVdh5qmlr
p4465
I1
sVd2p29vv
p4466
I1
sVczi16dm
p4467
I3
sVde2wfle
p4468
I1
sVd6092un
p4469
I1
sVd0o41st
p4470
I1
sVdjbcnbb
p4471
I1
sVd48lx8d
p4472
I2
sVdbf01xb
p4473
I1
sVdouef8m
p4474
I1
sVdoe7kj1
p4475
I2
sVcz01gc7
p4476
I1
sVdkyta3m
p4477
I1
sVd2ji4b1
p4478
I1
sVd9nbv8a
p4479
I1
sVd0x29xj
p4480
I1
sVdkrfyxw
p4481
I1
sVd3qfh9d
p4482
I1
sVdd86j0x
p4483
I2
sVdgf72bu
p4484
I1
sVd7l6b5h
p4485
I1
sVdpanlfe
p4486
I1
sVd0tgthb
p4487
I1
sVds1akw0
p4488
I1
sVdr2iu0c
p4489
I1
sVd25im42
p4490
I1
sVd7xubz3
p4491
I1
sVddpx3os
p4492
I1
sVd76id36
p4493
I1
sVd7wfe5a
p4494
I1
sVdfa8wup
p4495
I1
sVdax00b3
p4496
I1
sVd7e9ouz
p4497
I1
sVdt4gk5m
p4498
I1
sVdjp9g7e
p4499
I1
sVd0kxt6x
p4500
I1
sVdhrb0re
p4501
I1
sVd1ap46y
p4502
I1
sVd5p2zmc
p4503
I1
sVd841tjk
p4504
I1
sVd9ve51h
p4505
I1
sVdrg9dx1
p4506
I1
sVd97iask
p4507
I1
sVdbqdaoy
p4508
I1
sVdgfj9mk
p4509
I1
sVd67phzf
p4510
I1
sVd2qyush
p4511
I1
sVdrrx5xf
p4512
I1
sVd1ocz9h
p4513
I1
sVdggnfwa
p4514
I1
sVd0qngwz
p4515
I1
sVd80ihmi
p4516
I2
sVd04g7f0
p4517
I1
sVdsb3cnc
p4518
I1
sVddtjd2g
p4519
I1
sVdq5ngie
p4520
I1
sVd5jy35c
p4521
I1
sVd341xm1
p4522
I1
sVdjn9f6t
p4523
I1
sVcz40yma
p4524
I1
sVdmo460w
p4525
I1
sVdjmfd28
p4526
I1
sVd078eqg
p4527
I1
sVdbpa6f9
p4528
I1
sVd85rc7y
p4529
I1
sVcz3zpcn
p4530
I1
sVd19i3gk
p4531
I4
sVd83hdeq
p4532
I1
sVdkxmhpx
p4533
I1
sVd5vo179
p4534
I1
sVd2aivf8
p4535
I1
sVdfs3zhy
p4536
I1
sVd9iw281
p4537
I1
sVd33juk6
p4538
I1
sVd8on1v6
p4539
I1
sVdpd1cv4
p4540
I1
sVdcuhxp6
p4541
I1
sVd3fjhp3
p4542
I1
sVcyyihsz
p4543
I3
sVdih9311
p4544
I1
sVd0noujq
p4545
I1
sVd0t8ll4
p4546
I1
sVczgh2nt
p4547
I1
sVdit68vb
p4548
I1
sVcyqup4y
p4549
I1
sVcymkb2j
p4550
I1
sVdhmsjng
p4551
I1
sVdkenauh
p4552
I1
sVdpak5hz
p4553
I1
sVdnkelbq
p4554
I1
sVdfifes2
p4555
I1
sVcz8un8w
p4556
I1
sVcyxj3ek
p4557
I1
sVd2woly3
p4558
I1
sVdcbs0rc
p4559
I1
sVdfja3p1
p4560
I1
sVddfjymc
p4561
I1
sVcyj6n33
p4562
I1
sVd1xmq1f
p4563
I1
sVd3btztq
p4564
I1
sVdkyxeoe
p4565
I1
sVd9jde7q
p4566
I1
sVdqoy3w7
p4567
I1
sVdkw5lk2
p4568
I1
sVd7aqfwc
p4569
I1
sVdp8gfxu
p4570
I1
sVdcnimsk
p4571
I1
sVdeh9h2h
p4572
I1
sVd4164yh
p4573
I1
sVdml3ukw
p4574
I1
sVczeemms
p4575
I1
sVdhdyekx
p4576
I1
sVdawq072
p4577
I1
sVdjjimok
p4578
I1
sVd19ov3k
p4579
I1
sVcyyrooy
p4580
I1
sVd07ijkt
p4581
I1
sVd0hvrzh
p4582
I1
sVdih9xa8
p4583
I1
sVd1l5nfa
p4584
I1
sVd4oh8rk
p4585
I1
sVd00u2jo
p4586
I1
sVd3fyb1b
p4587
I2
sVdfavvi8
p4588
I1
sVdetkv9d
p4589
I1
sVdbettgt
p4590
I2
sVdp3botv
p4591
I1
sVdb1rli3
p4592
I1
sVcyu0c9o
p4593
I1
sVdep4kda
p4594
I1
sVdep6n5k
p4595
I1
sVd4r9qfq
p4596
I1
sVd74avrf
p4597
I1
sVd1y8hnm
p4598
I1
sVdaaz1rb
p4599
I1
sVd8w6wvx
p4600
I1
sVdire1yc
p4601
I1
sVddpkq3d
p4602
I2
sVd2vr0lm
p4603
I1
sVdsy537q
p4604
I1
sVd2qyaot
p4605
I1
sVd52nnxf
p4606
I1
sVdhyym79
p4607
I1
sVd9o8ynk
p4608
I1
sVdbtkf9q
p4609
I1
sVdguvnhd
p4610
I1
sVdfhf27t
p4611
I1
sVdnufsyk
p4612
I1
sVdn70s85
p4613
I1
sVdql3d0a
p4614
I1
sVczjnaz9
p4615
I1
sVdjzac2s
p4616
I1
sVd2z8ze3
p4617
I1
sVcyww23e
p4618
I1
sVd05pplr
p4619
I1
sVd17anf5
p4620
I1
sVd47llyx
p4621
I1
sVdg3jfl3
p4622
I1
sVd2p9nx9
p4623
I1
sVd9fkvpw
p4624
I1
sVd2flm4q
p4625
I1
sVd17rytf
p4626
I1
sVdphhqmw
p4627
I1
sVd6pq1oc
p4628
I1
sVdc2azp2
p4629
I1
sVdihdrhx
p4630
I1
sVdcpcdom
p4631
I1
sVd0vg7ju
p4632
I1
sVdb2yj6p
p4633
I1
sVdctpxul
p4634
I1
sVd0b3pge
p4635
I1
sVd2lce18
p4636
I1
sVde5z21u
p4637
I1
sVdr8hs67
p4638
I2
sVdkg1vvr
p4639
I1
sVdco88yt
p4640
I1
sVdd04crq
p4641
I1
sVd42bsmb
p4642
I1
sVd109k2c
p4643
I1
sVdh3p8sd
p4644
I1
sVd3n4xkr
p4645
I2
sVdafzfpt
p4646
I1
sVdg9bds8
p4647
I1
sVd5ea5c6
p4648
I1
sVdcvza1d
p4649
I1
sVczvke7h
p4650
I1
sVdgiygoq
p4651
I1
sVdfhw1pi
p4652
I1
sVddfscbx
p4653
I1
sVd3e5a5n
p4654
I1
sVdjl4gdz
p4655
I2
sVd1ztfti
p4656
I1
sVd75nrlm
p4657
I1
sVd4bmb89
p4658
I1
sVd031cq9
p4659
I1
sVdey79d8
p4660
I1
sVdjjfz8g
p4661
I1
sVd3d6b7b
p4662
I1
sVdey2dmv
p4663
I1
sVdb8j54f
p4664
I1
sVd4u6ypw
p4665
I1
sVdtfea5z
p4666
I1
sVdh4y4ga
p4667
I1
sVcylv5zy
p4668
I1
sVd0rgmz3
p4669
I1
sVddcizyr
p4670
I1
sVd1k4vqb
p4671
I1
sVd05n2pu
p4672
I1
sVcz00gos
p4673
I1
sVd010t9j
p4674
I1
sVdiv53yo
p4675
I1
sVd8xhc3o
p4676
I1
sVdkki72z
p4677
I1
sVcz5cqwm
p4678
I1
sVd8yx76z
p4679
I1
sVddhaa3h
p4680
I1
sVdj1nf13
p4681
I2
sVdhc3v1u
p4682
I1
sVdqqkvcj
p4683
I1
sVd0ofy92
p4684
I1
sVdt2aiwc
p4685
I1
sVdhfjcwb
p4686
I1
sVde6c6ox
p4687
I1
sVd2aj9ka
p4688
I1
sVdnwah38
p4689
I1
sVd2k2qvb
p4690
I3
sVdedlpvb
p4691
I1
sVde2iti8
p4692
I1
sVd1q0c99
p4693
I1
sVd2ac0u2
p4694
I1
sVdavld90
p4695
I1
sVdel95st
p4696
I1
sVd7d4gbp
p4697
I1
sVdc0fcqk
p4698
I1
sVdmy6wrz
p4699
I2
sVcyyzxj8
p4700
I1
sVcyl0jxb
p4701
I2
sVdc3swtk
p4702
I1
sVd6ttdtc
p4703
I1
sVd6doynl
p4704
I2
sVd53nkrb
p4705
I1
sVd2gk8va
p4706
I1
sVd32hhzx
p4707
I2
sVd277y63
p4708
I1
sVd51s1yb
p4709
I2
sVda1o2gu
p4710
I1
sVczt9zg2
p4711
I1
sVd28xw75
p4712
I1
sVdk0cadv
p4713
I1
sVd90n41o
p4714
I1
sVdjfjbc3
p4715
I1
sVdr06a5y
p4716
I1
sVcyohlmw
p4717
I1
sVd8etctb
p4718
I1
sVdsii81z
p4719
I1
sVd69e936
p4720
I2
sVcznmsbr
p4721
I1
sVdikwn1g
p4722
I1
sVdd0x3ps
p4723
I1
sVd4um4az
p4724
I1
sVdjx95uk
p4725
I2
sVd558p2c
p4726
I1
sVdnxndjy
p4727
I1
sVdhrmabv
p4728
I1
sVde66yey
p4729
I1
sVdnx136w
p4730
I1
sVd8bm5tx
p4731
I1
sVd2ue112
p4732
I1
sVdagcv5o
p4733
I1
sVd3i0c84
p4734
I1
sVd9txzjy
p4735
I1
sVdpo7fyq
p4736
I2
sVd0o6hfj
p4737
I2
sVdac325m
p4738
I1
sVdisv2p1
p4739
I2
sVd4jwwyd
p4740
I1
sVdf3bl3m
p4741
I1
sVdd12l50
p4742
I1
sVdiw5v6t
p4743
I1
sVda8q667
p4744
I1
sVdavaj3c
p4745
I1
sVdc3f707
p4746
I1
sVdohevhi
p4747
I1
sVdmeoick
p4748
I1
sVdhrovkf
p4749
I1
sVdj8nop5
p4750
I1
sVdaufduj
p4751
I1
sVd0gyka9
p4752
I1
sVdhnfkf6
p4753
I1
sVdfxj6i8
p4754
I1
sVddaqcfn
p4755
I1
sVd61pvbf
p4756
I1
sVdmjv64q
p4757
I1
sVcz3csjc
p4758
I1
sVd0lfjhf
p4759
I1
sVdhulsxx
p4760
I2
sVds12u5a
p4761
I1
sVd2abknv
p4762
I1
sVdsvllfg
p4763
I1
sVd394957
p4764
I1
sVd2q7yj5
p4765
I1
sVdsmyvvf
p4766
I1
sVd4zrone
p4767
I2
sVdk35xne
p4768
I1
sVdobefsb
p4769
I1
sVcymqfb6
p4770
I1
sVd85jghh
p4771
I1
sVd587e9o
p4772
I1
sVdnhg23z
p4773
I3
sVdi4nzri
p4774
I1
sVdczv3n7
p4775
I1
sVd5baz9l
p4776
I1
sVdcpdsrr
p4777
I1
sVdhr5pjb
p4778
I1
sVd56jk88
p4779
I1
sVdn25fe3
p4780
I1
sVd0cfczb
p4781
I1
sVddbsvjs
p4782
I2
sVd077e86
p4783
I1
sVcz1nguh
p4784
I1
sVd7sd6kt
p4785
I1
sVdhbugmm
p4786
I1
sVd6xmh36
p4787
I1
sVd6pbq97
p4788
I1
sVd5g9xx7
p4789
I2
sVd1rhb1d
p4790
I1
sVd2c49ui
p4791
I1
sVcypuiue
p4792
I1
sVdr0efmr
p4793
I1
sVdcay89i
p4794
I1
sVd2a913h
p4795
I1
sVd3zctx4
p4796
I1
sVd8856pw
p4797
I1
sVd7npeco
p4798
I1
sVdfjpwom
p4799
I1
sVd1a2gem
p4800
I2
sVdpo3tsd
p4801
I1
sVdnimg5i
p4802
I1
sVd2smb0e
p4803
I1
sVdf7xy22
p4804
I1
sVd8x41us
p4805
I1
sVd0f42ru
p4806
I1
sVd3fcu2o
p4807
I1
sVczi1j41
p4808
I1
sVdi8tzb1
p4809
I1
sVdftgquw
p4810
I1
sVd5jlngd
p4811
I1
sVd1amzvk
p4812
I1
sVd35p1cu
p4813
I2
sVdow3iod
p4814
I1
sVddc3623
p4815
I1
sVd87s1sk
p4816
I1
sVd6jjxet
p4817
I1
sVdo4qnbl
p4818
I1
sVdo13hcr
p4819
I1
sVd5hsaa7
p4820
I1
sVd3p6pda
p4821
I1
sVd2rj5t2
p4822
I1
sVd2mvqgy
p4823
I1
sVd2npsie
p4824
I1
sVdivsaih
p4825
I1
sVczwkz59
p4826
I1
sVdjypsg4
p4827
I1
sVd6nk8yx
p4828
I1
sVcywt3ok
p4829
I1
sVd0nu2l4
p4830
I1
sVd5iybk8
p4831
I1
sVd076sim
p4832
I1
sVd4g6389
p4833
I1
sVdn2vfhb
p4834
I1
sVczt8rgw
p4835
I1
sVddhi3hu
p4836
I1
sVcyuaxsq
p4837
I1
sVdnl3qpq
p4838
I1
sVdhgrz5q
p4839
I1
sVdqc0j99
p4840
I2
sVd5zf09v
p4841
I1
sVdox20gm
p4842
I1
sVd381yae
p4843
I1
sVdqxzmae
p4844
I1
sVdi7bpjt
p4845
I1
sVdb8bxow
p4846
I1
sVd3lkut2
p4847
I1
sVczp2w3e
p4848
I1
sVd0e4ixj
p4849
I1
sVdcln68p
p4850
I1
sVdpp5e6u
p4851
I3
sVd4j2jhw
p4852
I1
sVd5p1w6q
p4853
I1
sVd2aewoz
p4854
I1
sVd0se36b
p4855
I1
sVd1saxny
p4856
I1
sVdpdg8dw
p4857
I1
sVdnnw69k
p4858
I2
sVdphyvg5
p4859
I1
sVdkqu2cf
p4860
I1
sVd7eojku
p4861
I1
sVd3kg9ba
p4862
I1
sVdrtacx7
p4863
I1
sVdaubl7y
p4864
I1
sVdtbuho5
p4865
I1
sVd8wyg9l
p4866
I1
sVd5vl39m
p4867
I1
sVdcxw47t
p4868
I1
sVday6s7q
p4869
I3
sVd3o01ip
p4870
I1
sVdam0igp
p4871
I1
sVczi9ype
p4872
I1
sVd73mutw
p4873
I1
sVdia0jy6
p4874
I1
sVczgsjr0
p4875
I1
sVdp8wyjl
p4876
I1
sVdorsq8h
p4877
I1
sVd0ar9se
p4878
I1
sVde8hxjj
p4879
I1
sVd1wgm7g
p4880
I1
sVd8sbvj0
p4881
I1
sVd2845k1
p4882
I1
sVdia4y6h
p4883
I4
sVdjo5ntt
p4884
I2
sVdt86olm
p4885
I2
sVdmnlzw4
p4886
I1
sVdsorsp1
p4887
I1
sVdp3jk5u
p4888
I1
sVd2jltqo
p4889
I3
sVd35fsat
p4890
I1
sVdeuue55
p4891
I1
sVdfg11hv
p4892
I1
sVdrsnyt1
p4893
I1
sVd6kctw9
p4894
I1
sVd1p2ccw
p4895
I1
sVd3mxur9
p4896
I1
sVd81gqns
p4897
I1
sVdifkqj9
p4898
I1
sVd0kwi69
p4899
I1
sVd3y8dww
p4900
I1
sVd1i97ue
p4901
I1
sVdirhloc
p4902
I1
sVdndt7t4
p4903
I1
sVd2ui1gz
p4904
I1
sVdh4stig
p4905
I1
sVd08yd0o
p4906
I1
sVd0rmcen
p4907
I1
sVdidzkog
p4908
I1
sVdfu7jg1
p4909
I1
sVdfimn0e
p4910
I1
sVd1memjx
p4911
I1
sVd6tzmy8
p4912
I1
sVd3l5fkf
p4913
I2
sVd26inqt
p4914
I1
sVdg75is1
p4915
I1
sVd41baid
p4916
I1
sVd8uzkvv
p4917
I1
sVd7kihvx
p4918
I1
sVcyzgi3f
p4919
I1
sVd4ugd3h
p4920
I1
sVd3u0xkb
p4921
I1
sVd03m7pi
p4922
I2
sVdbgerbq
p4923
I1
sVdbczv3n
p4924
I1
sVdp7bofp
p4925
I3
sVdkvkdms
p4926
I1
sVdmpoqr1
p4927
I1
sVd4xrfzr
p4928
I1
sVddwdeb0
p4929
I1
sVdcnzeva
p4930
I1
sVdjdpzgc
p4931
I1
sVdf6gv27
p4932
I1
sVdc48kjr
p4933
I1
sVd85p35k
p4934
I1
sVdjlkou3
p4935
I1
sVdmqtdxs
p4936
I1
sVddoxh0p
p4937
I1
sVd0dkljc
p4938
I1
sVdkc0evp
p4939
I1
sVdfcfmed
p4940
I1
sVd0uz23g
p4941
I1
sVd2yn45i
p4942
I1
sVde0gekx
p4943
I1
sVdekwnd8
p4944
I1
sVcz4osz3
p4945
I2
sVdazo3v5
p4946
I1
sVdcxjt40
p4947
I1
sVdaxxstw
p4948
I2
sVdcseesm
p4949
I1
sVdmz0iqh
p4950
I1
sVdav6u25
p4951
I1
sVd2u4yai
p4952
I1
sVdco2epe
p4953
I1
sVd2isuga
p4954
I1
sVd3zpmna
p4955
I1
sVdhzjke0
p4956
I1
sVdc0oabc
p4957
I1
sVd98h2n9
p4958
I1
sVdixxmi7
p4959
I1
sVdqawebj
p4960
I1
sVdf43wu8
p4961
I1
sVd3e2r15
p4962
I1
sVd9ba1tc
p4963
I1
sVd68y03r
p4964
I1
sVdn14fqj
p4965
I2
sVda720xp
p4966
I2
sVdkvrxuv
p4967
I1
sVdq66m63
p4968
I1
sVcz7md8s
p4969
I1
sVdbzmi8w
p4970
I1
sVd9ggsyw
p4971
I1
sVd3bc1xo
p4972
I1
sVd13pzpf
p4973
I1
sVdcqbj8r
p4974
I1
sVd6jhnhu
p4975
I1
sVd50g7xo
p4976
I2
sVddx7kov
p4977
I1
sVd6e6zo4
p4978
I1
sVd5uy78g
p4979
I1
sVdjdgkuk
p4980
I1
sVd5cg6qn
p4981
I1
sVdi07qpz
p4982
I1
sVd1lciz9
p4983
I1
sVddi1pg8
p4984
I1
sVdhg96ag
p4985
I1
sVdnk5fme
p4986
I1
sVd5obl5l
p4987
I1
sVdovj5c7
p4988
I1
sVd3qso37
p4989
I1
sVdhvkyf4
p4990
I1
sVczm0xhp
p4991
I1
sVd59jten
p4992
I1
sVdf8o9k3
p4993
I1
sVdpmjt15
p4994
I1
sVdexsa7w
p4995
I1
sVdfismfk
p4996
I1
sVdn1t0bi
p4997
I2
sVdaipit7
p4998
I1
sVdjaspi4
p4999
I1
sVd4y9owv
p5000
I1
sVdrsza63
p5001
I1
sVd48hsmv
p5002
I2
sVd66t4mm
p5003
I1
sVdn7o3xa
p5004
I1
sVdopq038
p5005
I2
sVd7v8vn5
p5006
I1
sVdjdaw23
p5007
I1
sVd8hfu12
p5008
I1
sVd31dnbg
p5009
I1
sVd1a6gzz
p5010
I2
sVdgx0kf8
p5011
I1
sVdmji7f8
p5012
I1
sVd191s1p
p5013
I1
sVd18u2dm
p5014
I1
sVdbde2j8
p5015
I1
sVcyrqzxw
p5016
I1
sVdfgvqzv
p5017
I1
sVdh9lb4g
p5018
I1
sVdd2mzyf
p5019
I1
sVd2ua5vn
p5020
I1
sVd3xvdj8
p5021
I1
sVd0xpp2n
p5022
I3
sVda3ahh6
p5023
I1
sVdcxqjbp
p5024
I3
sVdohcm00
p5025
I1
sVdcu4nx0
p5026
I1
sVdjpw3rv
p5027
I1
sVd7u94mu
p5028
I1
sVddzu470
p5029
I2
sVdog9ppm
p5030
I1
sVdbh5qic
p5031
I2
sVcyv5cz6
p5032
I1
sVcykdqsd
p5033
I1
sVde26bqv
p5034
I2
sVcykhfh8
p5035
I1
sVd0ldx6v
p5036
I1
sVdav732r
p5037
I1
sVd4u58tq
p5038
I1
sVdhs3he0
p5039
I1
sVdff5u1n
p5040
I1
sVdnb6dhj
p5041
I1
sVdrnciuh
p5042
I1
sVdo6c3bq
p5043
I1
sVdcvq7gc
p5044
I1
sVd5qbwif
p5045
I1
sVcyy3r8n
p5046
I1
sVd3yyyaz
p5047
I1
sVd7y3jus
p5048
I1
sVd4zwkgs
p5049
I1
sVdagrcwo
p5050
I1
sVd0b9rb7
p5051
I1
sVd2ew6tq
p5052
I3
sVd8hp90k
p5053
I1
sVd2qaij5
p5054
I1
sVd01hqk7
p5055
I1
sVdomin25
p5056
I1
sVd20kbqq
p5057
I1
sVdt0f5a5
p5058
I1
sVdh56fin
p5059
I1
sVd585oec
p5060
I1
sVdio4kem
p5061
I1
sVdai0ifl
p5062
I1
sVd61okik
p5063
I1
sVczcenpg
p5064
I1
sVdck9e75
p5065
I1
sVdn0byu4
p5066
I2
sVdd24rn1
p5067
I1
sVczyxxix
p5068
I1
sVdj0kz85
p5069
I1
sVd1q8ao1
p5070
I1
sVdb207a7
p5071
I1
sVd6irji2
p5072
I1
sVdgluqma
p5073
I2
sVdhjfqw8
p5074
I1
sVdhgwc5u
p5075
I1
sVd5x07h1
p5076
I1
sVdh9pdp0
p5077
I1
sVd48fgib
p5078
I1
sVd1gbzza
p5079
I1
sVd3kk7co
p5080
I1
sVdqvrod6
p5081
I1
sVdmxqadq
p5082
I1
sVdd71vjg
p5083
I1
sVdbvfurp
p5084
I1
sVd02ocis
p5085
I1
sVcz7jqhd
p5086
I1
sVdju3011
p5087
I1
sVde55km6
p5088
I2
sVdixbw08
p5089
I1
sVcyzqlst
p5090
I1
sVd0qzf25
p5091
I1
sVdfkdr5i
p5092
I1
sVdc0jqj0
p5093
I1
sVdsh5ot6
p5094
I1
sVdodvnk5
p5095
I1
sVdpqkp6k
p5096
I1
sVd79h3us
p5097
I1
sVd0vyxh3
p5098
I1
sVddzkn27
p5099
I1
sVdcpvaxo
p5100
I1
sVd2d379d
p5101
I1
sVdh2dkmk
p5102
I2
sVdbjtn22
p5103
I1
sVdd7p1xf
p5104
I1
sVd05uhzm
p5105
I1
sVdc09pli
p5106
I2
sVd9sedsd
p5107
I1
sVdf43h5p
p5108
I1
sVdr2w6yz
p5109
I2
sVd84uv9w
p5110
I1
sVd2cvf5b
p5111
I1
sVdptioz1
p5112
I1
sVd3dmoxq
p5113
I2
sVd9bram7
p5114
I1
sVdj8ng13
p5115
I1
sVdabpj61
p5116
I1
sVdo0m7kz
p5117
I1
sVd53m06o
p5118
I1
sVdbn8ugj
p5119
I1
sVdb6vop8
p5120
I1
sVd2dkm09
p5121
I2
sVd08ircw
p5122
I1
sVdsidppj
p5123
I1
sVdqzoboc
p5124
I1
sVd847lnn
p5125
I1
sVdgtki0z
p5126
I1
sVd0i6h7t
p5127
I1
sVd1ulwno
p5128
I1
sVdmrkpvd
p5129
I1
sVd5vvege
p5130
I1
sVdkhy6ye
p5131
I1
sVd3eloii
p5132
I1
sVdc5iw66
p5133
I1
sVdjdl3gs
p5134
I1
sVdjqj232
p5135
I1
sVdat6pdk
p5136
I1
sVd72r5u0
p5137
I2
sVd4cx0ai
p5138
I1
sVcytb69d
p5139
I1
sVdod39z2
p5140
I1
sVdjggb63
p5141
I1
sVdi9zc6l
p5142
I1
sVd1rmho9
p5143
I1
sVddudtt6
p5144
I1
sVdknzcqy
p5145
I1
sVd345q2q
p5146
I1
sVddyz0lp
p5147
I1
sVd6ht7s1
p5148
I3
sVdbqj3hi
p5149
I1
sVdbmze8n
p5150
I1
sVd9ccp9e
p5151
I1
sVditgy32
p5152
I1
sVdodn73u
p5153
I1
sVd7wjsjo
p5154
I1
sVdhruz7l
p5155
I1
sVdfpu62v
p5156
I1
sVdfkg6sc
p5157
I1
sVd6elrkp
p5158
I1
sVd1vbx2x
p5159
I1
sVd5elany
p5160
I1
sVdficaxb
p5161
I1
sVd9amfci
p5162
I1
sVdab6yzr
p5163
I1
sVdi5czv6
p5164
I2
sVdbm9tst
p5165
I1
sVdoi84qi
p5166
I1
sVdd3ob8e
p5167
I1
sVd5wudlh
p5168
I1
sVd94rfo4
p5169
I1
sVd154x1g
p5170
I1
sVd0zrviv
p5171
I1
sVdf28v5t
p5172
I1
sVd6zqa1e
p5173
I1
sVd8ydznw
p5174
I1
sVdf4q9kp
p5175
I1
sVd87ywy3
p5176
I1
sVdc5t90y
p5177
I2
sVd1d7yr9
p5178
I1
sVd2y61yq
p5179
I1
sVdf2zsyd
p5180
I3
sVdg3psrs
p5181
I1
sVd8bddr0
p5182
I1
sVcyml8m3
p5183
I1
sVditbsz2
p5184
I2
sVdqyimdd
p5185
I1
sVds1w7ca
p5186
I3
sVd8awxpq
p5187
I1
sVdh7fk6l
p5188
I1
sVdku3sti
p5189
I1
sVd929eyi
p5190
I1
sVddcy1ml
p5191
I1
sVddhjyvj
p5192
I1
sVdb9cibx
p5193
I1
sVdbzqdp3
p5194
I1
sVdjrrcf2
p5195
I1
sVdqenwf0
p5196
I1
sVdckccsy
p5197
I1
sVd4y0o39
p5198
I1
sVd1311ow
p5199
I2
sVdo3fnht
p5200
I1
sVdgxsgvy
p5201
I1
sVd3hs8v1
p5202
I1
sVdfwz85z
p5203
I1
sVd1wdn1p
p5204
I1
sVdapi9ee
p5205
I1
sVdk84yuo
p5206
I1
sVdsytj7h
p5207
I2
sVdjmr2gt
p5208
I1
sVczlhhle
p5209
I1
sVd1ii9k5
p5210
I1
sVdixvq3s
p5211
I3
sVd22qe3k
p5212
I1
sVd9fi76s
p5213
I1
sVdbix58f
p5214
I1
sVd01nm65
p5215
I1
sVdjn8pwm
p5216
I1
sVdcvb5nw
p5217
I1
sVd5uwwtf
p5218
I2
sVddwky8y
p5219
I1
sVdqgkhe4
p5220
I1
sVdfc5qup
p5221
I1
sVd1yjumy
p5222
I1
sVdasirwc
p5223
I1
sVdjujfem
p5224
I1
sVd10jy70
p5225
I1
sVdbn9a2w
p5226
I1
sVcynfbw3
p5227
I1
sVdiy0c55
p5228
I1
sVd01yise
p5229
I1
sVdt8ftpk
p5230
I1
sVdcbijiq
p5231
I1
sVdbz5mt4
p5232
I1
sVdt0tu7s
p5233
I1
sVditbmia
p5234
I2
sVd5pgbrj
p5235
I1
sVd2czide
p5236
I2
sVd0qor6y
p5237
I1
sVdbnt07e
p5238
I1
sVdky168g
p5239
I1
sVd3jq3ge
p5240
I1
sVczvv0lh
p5241
I1
sVdbgnvz5
p5242
I3
sVd0gy7yx
p5243
I1
sVd6dikl9
p5244
I1
sVdedyxu2
p5245
I1
sVdgrwvsj
p5246
I1
sVd2k7ij6
p5247
I1
sVdako0ko
p5248
I1
sVd1cau78
p5249
I1
sVddscv58
p5250
I1
sVdb5x3fe
p5251
I1
sVdb92wo7
p5252
I1
sVd0ozbu2
p5253
I1
sVdqxvq9b
p5254
I1
sVd5g0l6m
p5255
I1
sVd2cru9a
p5256
I1
sVdcv0dnj
p5257
I2
sVd47ferk
p5258
I1
sVd4galag
p5259
I1
sVddsk1ka
p5260
I1
sVd9caq5e
p5261
I1
sVdg9svmn
p5262
I1
sVdc0urnt
p5263
I1
sVd0fn12f
p5264
I1
sVd1jvxbs
p5265
I1
sVd1ornk7
p5266
I1
sVd0qavns
p5267
I1
sVd8q3i05
p5268
I1
sVdcp95pp
p5269
I1
sVd1263s4
p5270
I2
sVd72zo2t
p5271
I1
sVd9e8gch
p5272
I1
sVdcipdmb
p5273
I1
sVdsh74cg
p5274
I1
sVd1lm1lv
p5275
I1
sVd3mikl9
p5276
I1
sVdbylv8l
p5277
I1
sVd03trdn
p5278
I1
sVd9kdzty
p5279
I1
sVd5rwfou
p5280
I1
sVd2bxyb6
p5281
I2
sVdd1e0ah
p5282
I1
sVdf0z715
p5283
I1
sVd2jjp75
p5284
I1
sVdekvrg7
p5285
I1
sVdo4wozk
p5286
I2
sVd4a739b
p5287
I1
sVdghe13e
p5288
I1
sVdeqb072
p5289
I1
sVdjnii4s
p5290
I1
sVd3p2dnx
p5291
I1
sVdq1p55i
p5292
I1
sVdcix3ar
p5293
I1
sVdejavob
p5294
I1
sVdi36k3w
p5295
I1
sVd7c0r75
p5296
I1
sVdmtbsbk
p5297
I1
sVdd3e8u5
p5298
I1
sVd9zhghq
p5299
I3
sVczi9mc5
p5300
I1
sVddgxj0i
p5301
I1
sVd4anihs
p5302
I1
sVdfi1doa
p5303
I1
sVdcevy0i
p5304
I1
sVcyjf4mt
p5305
I1
sVd3e2vt9
p5306
I1
sVdgc05j2
p5307
I1
sVdqr1lek
p5308
I1
sVd2kg5ef
p5309
I1
sVdg2cv0v
p5310
I1
sVda1gzmq
p5311
I1
sVd2sxv2i
p5312
I1
sVd52mhz2
p5313
I1
sVdhr8vxr
p5314
I1
sVdgk6q1v
p5315
I1
sVdjlafk6
p5316
I1
sVcz7cklm
p5317
I1
sVd5kdba6
p5318
I1
sVd05qhjs
p5319
I1
sVdhx1ggt
p5320
I2
sVdftsu7c
p5321
I1
sVcz8t47f
p5322
I1
sVdbmd359
p5323
I1
sVd17qq0c
p5324
I2
sVdfoi02v
p5325
I1
sVd1adz6g
p5326
I1
sVd68oocf
p5327
I1
sVdkwwrgx
p5328
I1
sVdnczjlj
p5329
I1
sVd0d61ob
p5330
I1
sVd6wrfxb
p5331
I1
sVd2nfmwa
p5332
I1
sVcyv70er
p5333
I3
sVde50qqo
p5334
I1
sVdaovapz
p5335
I1
sVdcm640a
p5336
I1
sVdo6frh1
p5337
I1
sVdc3dl0z
p5338
I1
sVd1lqamg
p5339
I1
sVdfrvv0e
p5340
I1
sVdf1uvel
p5341
I1
sVcyls3zg
p5342
I1
sVdopn2be
p5343
I4
sVde5fhw9
p5344
I1
sVdct2806
p5345
I1
sVd5nlnr9
p5346
I2
sVd5rxtem
p5347
I2
sVdg82u34
p5348
I1
sVcyxpf4y
p5349
I1
sVd32dt3f
p5350
I1
sVd7bsaau
p5351
I1
sVdatrdvc
p5352
I1
sVddc4rxx
p5353
I1
sVddrk159
p5354
I1
sVde8wxxx
p5355
I1
sVdil2u2w
p5356
I2
sVd07psjy
p5357
I1
sVd7ha8qw
p5358
I1
sVdjv3lwk
p5359
I1
sVdnzyk19
p5360
I1
sVdfwuak2
p5361
I1
sVd8epupu
p5362
I1
sVdfy9wuk
p5363
I1
sVd35ga92
p5364
I1
sVd4w6blp
p5365
I1
sVd1ecg4r
p5366
I1
sVdijlvcx
p5367
I1
sVdb7m68p
p5368
I1
sVdjngfm9
p5369
I1
sVddusuir
p5370
I1
sVdcdy6b5
p5371
I1
sVdd4oarw
p5372
I1
sVdf3npmj
p5373
I1
sVddn7y5y
p5374
I2
sVdevsb59
p5375
I1
sVdkeg2fv
p5376
I1
sVdda67ra
p5377
I1
sVdhpgjo9
p5378
I1
sVdib57fs
p5379
I1
sVd9zrd8x
p5380
I1
sVd3tgwqq
p5381
I1
sVdpkg0tl
p5382
I1
sVded2hod
p5383
I2
sVd4b4ky7
p5384
I1
sVd6hcq89
p5385
I3
sVd8e3if1
p5386
I1
sVd37th8f
p5387
I1
sVdgsjbzk
p5388
I2
sVdhritcx
p5389
I1
sVdkw1ogx
p5390
I1
sVd9xc0l1
p5391
I1
sVdeeqjv8
p5392
I1
sVcyqdwcw
p5393
I1
sVddyn1es
p5394
I1
sVdgz165n
p5395
I1
sVdpt6pam
p5396
I2
sVdtb1n2n
p5397
I1
sVd6vx98u
p5398
I1
sVdar6ybl
p5399
I1
sVdgl08ui
p5400
I2
sVd2psbz5
p5401
I1
sVdfxuiuq
p5402
I1
sVdr7wj0j
p5403
I1
sVdevlurs
p5404
I2
sVcykx159
p5405
I2
sVczw501g
p5406
I1
sVdn43hqm
p5407
I1
sVd1bxjgz
p5408
I1
sVdi4rnyx
p5409
I1
sVczopgiv
p5410
I1
sVdo6ka24
p5411
I1
sVdoe5ks2
p5412
I1
sVdn2wa9b
p5413
I1
sVczayj0f
p5414
I1
sVd6j64o6
p5415
I1
sVdfr4wcv
p5416
I1
sVd3mhn8z
p5417
I1
sVdfxqx9h
p5418
I1
sVd4yj07g
p5419
I1
sVdap491t
p5420
I1
sVd6rll03
p5421
I2
sVdpm10xf
p5422
I1
sVdotiyu9
p5423
I1
sVd859ojz
p5424
I1
sVczznpyv
p5425
I1
sVdbw5wk8
p5426
I1
sVdkyhrdo
p5427
I1
sVcznww97
p5428
I1
sVd6cbap6
p5429
I1
sVdc8yoey
p5430
I1
sVcyog3md
p5431
I1
sVczk8p7x
p5432
I1
sVdkj411q
p5433
I1
sVd99bbs4
p5434
I1
sVd13hfeu
p5435
I1
sVdjale6f
p5436
I1
sVd7e06yf
p5437
I1
sVd8eoaqj
p5438
I1
sVd3jbk5k
p5439
I1
sVcys9dz3
p5440
I1
sVdfnvm5r
p5441
I1
sVds1z3xz
p5442
I1
sVds5o5qx
p5443
I1
sVdnyn8lk
p5444
I1
sVd598qtm
p5445
I1
sVcz71oe2
p5446
I1
sVdfoncc4
p5447
I1
sVd40xmgb
p5448
I1
sVd3j6mdv
p5449
I1
sVd0953ac
p5450
I3
sVd4rnjr7
p5451
I1
sVdiswfy5
p5452
I1
sVd5g8ydx
p5453
I1
sVdd59oz3
p5454
I2
sVdh9y05c
p5455
I1
sVdduoq29
p5456
I1
sVd53xcge
p5457
I1
sVd3q5tyq
p5458
I1
sVd6kxp4g
p5459
I1
sVday668i
p5460
I1
sVds273xz
p5461
I1
sVdf4rtyn
p5462
I1
sVd1o35py
p5463
I1
sVd618vfu
p5464
I1
sVdo9ix6o
p5465
I1
sVdqahuxf
p5466
I1
sVddm544v
p5467
I1
sVd7kb01q
p5468
I1
sVd3gioe4
p5469
I1
sVd3si85x
p5470
I1
sVczfd7i8
p5471
I1
sVdal5k7f
p5472
I1
sVd7nalvg
p5473
I1
sVdcre9sf
p5474
I1
sVd4oeq8s
p5475
I1
sVczbmx0u
p5476
I2
sVdcr982q
p5477
I1
sVdsq6h01
p5478
I1
sVdmlohqx
p5479
I1
sVd83wwpy
p5480
I1
sVdggtgft
p5481
I1
sVd60jdtf
p5482
I2
sVdifdta3
p5483
I1
sVd6bil3o
p5484
I1
sVdsudhyc
p5485
I1
sVde88kly
p5486
I1
sVdevton6
p5487
I1
sVdh0ciyi
p5488
I1
sVd1v002f
p5489
I1
sVd1k4hmg
p5490
I1
sVcz30rhg
p5491
I1
sVdih8mvt
p5492
I1
sVd5z9gx6
p5493
I1
sVdb0hput
p5494
I1
sVdkn25lc
p5495
I2
sVczedbmk
p5496
I1
sVdrzsnta
p5497
I1
sVderreb9
p5498
I1
sVdeht2nn
p5499
I1
sVczgga2j
p5500
I1
sVdqmkzbx
p5501
I1
sVdgbmwxq
p5502
I1
sVd0xapww
p5503
I2
sVd7443rk
p5504
I2
sVdiu78kh
p5505
I1
sVdegkla1
p5506
I1
sVdk44gpb
p5507
I1
sVd1wguxe
p5508
I1
sVcyiafxx
p5509
I1
sVd6nwu04
p5510
I1
sVdsx1a2t
p5511
I1
sVd3ge0gz
p5512
I2
sVdel1ld8
p5513
I1
sVdj0hn3s
p5514
I1
sVdcglfn3
p5515
I1
sVdj9qzkw
p5516
I1
sVd3h885c
p5517
I1
sVczzrybq
p5518
I2
sVcz26gtk
p5519
I1
sVcyqie2p
p5520
I1
sVd6lldtm
p5521
I1
sVd90vgfd
p5522
I1
sVdbq3yv6
p5523
I1
sVcz90o9y
p5524
I1
sVd21z67d
p5525
I2
sVdjiowm1
p5526
I2
sVd9awuox
p5527
I2
sVdnv9ptb
p5528
I1
sVd4pyz5k
p5529
I1
sVd3dxwlr
p5530
I1
sVde30van
p5531
I12
sVdggfs9r
p5532
I1
sVdgjtogi
p5533
I1
sVdn3rmba
p5534
I1
sVd646r79
p5535
I1
sVd4jang2
p5536
I3
s.