(dp0
Vd0l13le
p1
I1
s.(dp0
Vd13v62i
p1
I1
sVd0l13le
p2
I1
s.(dp0
Vd1ksykj
p1
I1
sVd0l13le
p2
I1
s.(dp0
Vd1ktmn1
p1
I1
sVd0l13le
p2
I1
s.(dp0
Vd1kylna
p1
I1
sVd0l13le
p2
I1
s.(dp0
Vd1l0aay
p1
I1
sVd0l13le
p2
I1
s.(dp0
Vd1l0aay
p1
I1
sVd0l13le
p2
I1
s.(dp0
Vd1l0aay
p1
I1
sVd0l13le
p2
I1
s.(dp0
Vd0l13le
p1
I1
sVd1l4ljy
p2
I1
s.(dp0
Vd1l4uyl
p1
I1
sVd0l13le
p2
I1
s.(dp0
Vd1l4uyl
p1
I1
sVd0l13le
p2
I1
s.(dp0
Vd20j12m
p1
I1
sVd0l13le
p2
I1
s.(dp0
Vd3fjhp3
p1
I1
sVd0l13le
p2
I1
s.(dp0
Vdbfytie
p1
I1
sVd0l13le
p2
I1
s.(dp0
Vdcb20p1
p1
I1
sVd0l13le
p2
I1
s.(dp0
Vdd0tafe
p1
I1
sVd0l13le
p2
I1
s.(dp0
Vddarhr0
p1
I1
sVd0l13le
p2
I1
s.(dp0
Vddej049
p1
I1
sVd0l13le
p2
I1
s.(dp0
Vdfct4hg
p1
I1
sVd0l13le
p2
I1
s.(dp0
Vdfkqau0
p1
I1
sVd0l13le
p2
I1
s.(dp0
Vdfkqau0
p1
I1
sVd0l13le
p2
I1
s.(dp0
Vdfkqau0
p1
I1
sVd0l13le
p2
I1
s.(dp0
Vdi2a6gp
p1
I1
sVd0l13le
p2
I1
s.(dp0
Vdnzuz9g
p1
I1
sVd0l13le
p2
I1
s.