(dp0
Vda6ao1h
p1
I1
sVd7z9s4k
p2
I1
sVdbesuuk
p3
I1
sVdovr1u2
p4
I1
sVde4q1vd
p5
I1
sVddfm0gz
p6
I1
sVdetwgff
p7
I1
sVd9xq2xe
p8
I1
sVdnu93w3
p9
I1
sVd7oho22
p10
I1
sVcymyn4o
p11
I2
sVd9ee9pm
p12
I1
sVddne61l
p13
I1
sVd2cmncs
p14
I1
sVd79htx3
p15
I1
sVd4smy7w
p16
I2
sVd0817df
p17
I1
sVd592yvj
p18
I2
sVdj2hbyu
p19
I1
sVdcpx0r3
p20
I1
sVdq3929a
p21
I1
sVcytd9pk
p22
I1
sVd6ra4p4
p23
I1
sVcyo1h5t
p24
I1
sVd84dh2q
p25
I1
sVditvyxk
p26
I1
sVdqs6ze6
p27
I1
sVdd6my7b
p28
I1
sVdqyn5vm
p29
I1
sVdf4q5vb
p30
I1
sVdta3aok
p31
I1
sVdmf12zd
p32
I1
sVdt5rpdk
p33
I1
sVczuiemn
p34
I1
sVd63cpcg
p35
I1
sVd48h4fi
p36
I1
sVcyx7prq
p37
I1
sVdokn27c
p38
I2
sVd1bpcxm
p39
I1
sVd2d4bsu
p40
I1
s.