(dp0
Vdg8fv8g
p1
I1
sVczw88uy
p2
I1
sVd93cmo7
p3
I1
sVdrdf7ba
p4
I1
sVd8dohsc
p5
I2
sVdb4g9xx
p6
I1
sVd01k2nq
p7
I1
sVcyxim1v
p8
I1
sVdprcghh
p9
I1
sVdbo6g21
p10
I1
sVd9ijctp
p11
I1
sVd124u27
p12
I2
s.