(dp0
Vcyteo7k
p1
I1
s.(dp0
Vcyueh1o
p1
I1
sVcyteo7k
p2
I1
s.(dp0
Vcyv9nq2
p1
I1
sVcyteo7k
p2
I1
s.(dp0
Vcyteo7k
p1
I1
sVczktrk7
p2
I1
s.(dp0
Vd1fekdr
p1
I1
sVcyteo7k
p2
I1
s.(dp0
Vd1xzyar
p1
I1
sVcyteo7k
p2
I1
s.(dp0
Vcyteo7k
p1
I1
sVd375cj6
p2
I1
s.(dp0
Vcyteo7k
p1
I1
sVd6x7qne
p2
I1
s.(dp0
Vcyteo7k
p1
I1
sVd6x7qne
p2
I1
s.(dp0
Vcyteo7k
p1
I1
sVd6x7qne
p2
I1
s.(dp0
Vcyteo7k
p1
I1
sVd6x7qne
p2
I1
s.(dp0
Vd7rdp5u
p1
I1
sVcyteo7k
p2
I1
s.(dp0
Vcyteo7k
p1
I1
sVd7re29y
p2
I1
s.(dp0
Vcyteo7k
p1
I1
sVd7re29y
p2
I1
s.(dp0
Vd7remaz
p1
I1
sVcyteo7k
p2
I1
s.(dp0
Vd7remaz
p1
I1
sVcyteo7k
p2
I1
s.(dp0
Vcyteo7k
p1
I1
sVd7rf10e
p2
I1
s.(dp0
Vd7rgi3s
p1
I1
sVcyteo7k
p2
I1
s.(dp0
Vd7rh0tx
p1
I1
sVcyteo7k
p2
I1
s.(dp0
Vd7rh0tx
p1
I1
sVcyteo7k
p2
I1
s.(dp0
Vd7rh0tx
p1
I1
sVcyteo7k
p2
I1
s.(dp0
Vd7ugp35
p1
I1
sVcyteo7k
p2
I1
s.(dp0
Vd7ysc4y
p1
I1
sVcyteo7k
p2
I1
s.(dp0
Vd7ysc4y
p1
I1
sVcyteo7k
p2
I1
s.(dp0
Vdbbo75b
p1
I1
sVcyteo7k
p2
I1
s.(dp0
Vdbbo75b
p1
I1
sVcyteo7k
p2
I1
s.(dp0
Vdc6a9t3
p1
I1
sVcyteo7k
p2
I1
s.(dp0
Vddgknvs
p1
I1
sVcyteo7k
p2
I1
s.(dp0
Vdepo15g
p1
I1
sVcyteo7k
p2
I1
s.(dp0
Vdf3609f
p1
I1
sVcyteo7k
p2
I1
s.(dp0
Vcyteo7k
p1
I1
sVdfhejv8
p2
I1
s.(dp0
Vcyteo7k
p1
I1
sVdfhlmj4
p2
I1
s.(dp0
Vdfnq7sx
p1
I1
sVcyteo7k
p2
I1
s.(dp0
Vdfnq7sx
p1
I1
sVcyteo7k
p2
I1
s.(dp0
Vdh94f1s
p1
I1
sVcyteo7k
p2
I1
s.(dp0
Vdjg3gn2
p1
I1
sVcyteo7k
p2
I1
s.(dp0
Vcyteo7k
p1
I1
sVdk6bx5r
p2
I1
s.(dp0
Vdmolwy3
p1
I1
sVcyteo7k
p2
I1
s.(dp0
Vdmon2zi
p1
I1
sVcyteo7k
p2
I1
s.(dp0
Vcyteo7k
p1
I1
sVdn4ajfy
p2
I1
s.(dp0
Vcyteo7k
p1
I1
sVdn4ajfy
p2
I1
s.(dp0
Vcyteo7k
p1
I1
sVdpjykbt
p2
I1
s.(dp0
Vcyteo7k
p1
I1
sVdrbb8sa
p2
I1
s.(dp0
Vdrhyfdj
p1
I1
sVcyteo7k
p2
I1
s.(dp0
Vdruewke
p1
I1
sVcyteo7k
p2
I1
s.(dp0
Vcyteo7k
p1
I1
sVdtgomaz
p2
I1
s.