(dp0
Vdfz37ls
p1
I1
sVdf66lxp
p2
I1
sVdenvfkb
p3
I1
sVdjuohve
p4
I1
sVdfxqf1e
p5
I5
sVdivchjp
p6
I1
sVd1gwean
p7
I1
sVdqmimov
p8
I1
sVdag71b7
p9
I1
sVd6y8xy0
p10
I1
sVdho198r
p11
I1
sVd65b7eu
p12
I1
sVd3ijmeb
p13
I1
sVdmsh1ps
p14
I1
sVd8si8k0
p15
I1
sVdmzulpf
p16
I1
sVda0ckbd
p17
I1
sVdj4mwgn
p18
I1
sVcywps9f
p19
I1
sVd6zjlvb
p20
I1
sVdiobj0c
p21
I1
sVdkybcdx
p22
I1
sVcz0s623
p23
I1
sVdk0miro
p24
I1
sVd08vx2n
p25
I1
sVdayguz0
p26
I1
sVd40lcnj
p27
I1
sVdmn3nao
p28
I1
sVdg12wol
p29
I1
sVd90uh12
p30
I1
sVd89s9nu
p31
I1
sVdholdmh
p32
I1
sVdrgts1v
p33
I1
sVddkhrio
p34
I3
sVdbgqpfm
p35
I2
sVcysjp49
p36
I1
sVd5ougyd
p37
I1
sVd0l57k1
p38
I1
sVd6whe8k
p39
I1
sVd7rgi3s
p40
I1
sVdd8bnq4
p41
I1
sVcz2e9nx
p42
I1
sVdehuga1
p43
I1
sVd90ly92
p44
I1
sVd7uk058
p45
I1
sVd0h7qj3
p46
I2
sVd56vcv1
p47
I1
sVdkm2842
p48
I1
sVdh43dk1
p49
I1
sVdd5pgd4
p50
I1
sVdcnsxuj
p51
I2
sVd3bvykb
p52
I1
sVczgrjbu
p53
I1
sVds34d97
p54
I2
sVdg74dwr
p55
I1
sVdbn1mui
p56
I1
sVd1smxqm
p57
I1
sVd4pjf61
p58
I1
sVdrzunsq
p59
I1
sVd3bh85x
p60
I2
sVdeavn38
p61
I2
sVdot211e
p62
I1
sVdkyq14d
p63
I1
sVd4nx5z3
p64
I1
sVdmzuz13
p65
I1
sVd7re29y
p66
I1
sVdfknp9d
p67
I1
sVdakwah3
p68
I1
sVdkx5la6
p69
I1
sVdkned01
p70
I1
sVdennmu5
p71
I1
sVcys9l5c
p72
I1
sVd7e6z83
p73
I1
sVdanwy4e
p74
I1
sVdeysqt0
p75
I1
sVd3bkn5e
p76
I1
sVd3btztq
p77
I1
sVd2663xv
p78
I1
sVd1b38hm
p79
I1
sVd1o4dpd
p80
I1
sVd1j7rae
p81
I1
sVd0f9fkv
p82
I1
sVd27iocq
p83
I1
sVd55h0uz
p84
I2
sVdrbh9d0
p85
I1
sVd18xiug
p86
I1
sVdbqmj6h
p87
I1
sVcznx4fd
p88
I2
sVdd3iw7p
p89
I1
sVdfzv5p8
p90
I1
sVcz3zrfp
p91
I1
sVd0wc2n4
p92
I1
sVd0eq7xs
p93
I1
sVdfm6ll3
p94
I1
sVdd96s38
p95
I1
sVcz46c90
p96
I2
sVdbewij7
p97
I1
sVdhit0f6
p98
I2
sVdfdhjxv
p99
I1
sVd93byt3
p100
I1
sVd3iknjl
p101
I1
sVd0c3pvk
p102
I1
sVdakam4a
p103
I3
sVcys7r81
p104
I1
sVd6f7sc5
p105
I1
sVdd4hpca
p106
I1
sVdn1stkd
p107
I1
sVdirnwev
p108
I1
sVcyxphd0
p109
I1
sVd5ui4tr
p110
I1
sVd4a739b
p111
I2
sVdoh4us9
p112
I1
sVczhx84b
p113
I1
sVd0cjp31
p114
I1
sVd7w3m6o
p115
I1
sVczhol8h
p116
I1
sVdkj0wse
p117
I1
sVdmzfklp
p118
I1
sVd040art
p119
I2
sVdhjmfl8
p120
I1
sVd9vfnxl
p121
I1
sVd3bz16z
p122
I1
sVdab0nsl
p123
I1
sVdr4q5ya
p124
I1
sVd0icncx
p125
I1
sVd1hcjih
p126
I1
sVdkohfkd
p127
I1
sVddg7ipr
p128
I1
sVdchuchg
p129
I1
sVde0gwxq
p130
I1
sVdn4ajfy
p131
I2
sVd1c9mts
p132
I1
sVdgxiuxg
p133
I1
sVd06heg5
p134
I1
sVdcg3e16
p135
I1
sVdtgomaz
p136
I1
sVdapog1h
p137
I1
sVd7l0fd8
p138
I1
sVdjv3ey7
p139
I1
sVdi5s08y
p140
I1
sVdp89vsv
p141
I1
sVdq6l6es
p142
I1
sVd48ds16
p143
I1
sVcyp38r8
p144
I1
sVd4lx4yu
p145
I1
sVdbhq1w2
p146
I1
sVd15m85h
p147
I1
sVcz1ci0r
p148
I1
sVcz1l3gf
p149
I1
sVd25begz
p150
I1
sVdjx2j4q
p151
I1
sVd6zjf4h
p152
I1
sVdcj9mbo
p153
I1
sVd9w6uty
p154
I1
sVd6ii5jt
p155
I1
sVdh95k8c
p156
I1
sVdh3cbm2
p157
I1
sVd0fjmnh
p158
I2
sVdjso0mu
p159
I1
sVd9gqnkh
p160
I1
sVdql8j6n
p161
I1
sVd45mvga
p162
I1
sVdr9pl8n
p163
I2
sVdeg0f56
p164
I1
sVd311lsh
p165
I1
sVdf3t352
p166
I1
sVd2enmla
p167
I1
sVdcz38xr
p168
I1
sVd65jaur
p169
I1
sVdew8ws5
p170
I1
sVd313dhm
p171
I1
sVdaoosv7
p172
I1
sVd5dagkn
p173
I2
sVd3sr6hb
p174
I1
sVd1yuruv
p175
I1
sVdjpzslq
p176
I2
sVcylcx5c
p177
I2
sVdp4mzlr
p178
I1
sVdd8sgmj
p179
I1
sVd7qzzc7
p180
I1
sVd7ul557
p181
I1
sVdpym2wo
p182
I1
sVd6ui8bb
p183
I1
sVdkdzyms
p184
I1
sVd74f02h
p185
I1
sVcz7hlrc
p186
I1
sVd8sfdt0
p187
I1
sVcyjnhn4
p188
I1
sVdfvxxx4
p189
I1
sVd1avnz6
p190
I1
sVdk9g6ug
p191
I1
sVdtffvhi
p192
I1
sVd2i4tiq
p193
I1
sVdpqxvj7
p194
I1
sVdj03pe0
p195
I1
sVdocrd1g
p196
I1
sVdqod5ng
p197
I1
sVde81c1m
p198
I1
sVdih2ux3
p199
I2
sVd5boqki
p200
I1
sVd1mcsy7
p201
I1
sVd0l4sm9
p202
I1
sVdawrm7c
p203
I1
sVdtbijjx
p204
I1
sVdb5ajy2
p205
I1
sVdnuatw3
p206
I1
sVddj8nru
p207
I1
sVd08oz36
p208
I1
sVdom7vld
p209
I1
sVd9cw5zr
p210
I1
sVdo63a5x
p211
I1
sVd9qnt9p
p212
I1
sVd8kqcqe
p213
I1
sVdi9efb1
p214
I2
sVds011g1
p215
I1
sVdf052fm
p216
I1
sVdicjy00
p217
I2
sVdbohf4w
p218
I1
sVdbha7c0
p219
I1
sVdffm4dd
p220
I1
sVd3bybvn
p221
I1
sVdd6347b
p222
I1
sVdiixurm
p223
I1
sVdkvon10
p224
I1
sVd1qqyk4
p225
I1
sVdcbzhz5
p226
I1
sVd09o4ij
p227
I1
sVd908rz3
p228
I1
sVdb7gf4o
p229
I1
sVdfknrjn
p230
I1
sVd69fh5q
p231
I1
sVd5fwtuu
p232
I1
sVdg05kmk
p233
I1
sVd9l83k6
p234
I1
sVd1rxr73
p235
I1
sVdf8f9fy
p236
I1
sVd9abshg
p237
I1
sVd3fmgpl
p238
I1
sVd3c06s4
p239
I2
sVd8t1or7
p240
I1
sVdc25qju
p241
I1
sVdqfnb68
p242
I1
sVd89c8vi
p243
I1
sVdgh10u6
p244
I1
sVdaxn8dg
p245
I1
sVdfb4gmx
p246
I2
sVdcueg79
p247
I1
sVdpli14n
p248
I1
sVdfk2xs0
p249
I1
sVdniubfp
p250
I1
sVd623v3h
p251
I1
sVd303fmf
p252
I1
sVcyrloyw
p253
I2
sVdhn8e44
p254
I1
sVd3bgyfx
p255
I1
sVd0nnztt
p256
I1
sVd6kaiyi
p257
I1
sVd27vd57
p258
I1
sVdbd3gnx
p259
I1
sVdb641ct
p260
I1
sVd1e4r1b
p261
I1
sVdr5tioh
p262
I1
sVda33n3r
p263
I1
sVdexfdbq
p264
I1
sVdgpzboo
p265
I3
sVd1qqo0u
p266
I1
sVd4wzrsj
p267
I1
sVd7t8z0d
p268
I1
sVdq3v5i8
p269
I2
sVd0qzwz7
p270
I1
sVd25xg2j
p271
I1
sVczau3bi
p272
I1
sVdjbjrbt
p273
I1
sVdkkpboy
p274
I1
sVdbyaic5
p275
I1
sVd5hwe4o
p276
I1
sVczhx0tf
p277
I1
sVdt6zlul
p278
I1
sVd14u0lx
p279
I1
sVdggok1b
p280
I1
sVde2sueo
p281
I1
sVd427as8
p282
I1
sVdom86yv
p283
I1
sVdea37k5
p284
I1
sVdbgsxqd
p285
I1
sVczi0itr
p286
I1
sVdju5o72
p287
I1
sVczmv5fo
p288
I1
sVd2tcl18
p289
I1
sVd0fokr4
p290
I1
sVdjchp1c
p291
I1
sVdohmr9g
p292
I1
sVdbls51k
p293
I2
sVd5g8ydx
p294
I5
sVcywutlu
p295
I1
sVdk9c9tr
p296
I1
sVcz8o0z9
p297
I1
sVd2podrm
p298
I2
sVczdfbwr
p299
I2
sVdae79az
p300
I1
sVd2kx508
p301
I1
sVd0coo9y
p302
I1
sVd3gfzjb
p303
I1
sVcywtgpp
p304
I1
sVd90bkn4
p305
I1
sVdmolwy3
p306
I1
sVczhog8k
p307
I2
sVd5dc8vw
p308
I1
sVdb0xhz6
p309
I1
sVdfbc23d
p310
I1
sVd25p61t
p311
I1
sVdidda2c
p312
I2
sVczhwyqc
p313
I2
sVd631n55
p314
I1
sVd3bj80a
p315
I2
sVdkykgg8
p316
I10
sVd0emh4y
p317
I1
sVd1iuzqa
p318
I1
sVcyxy9aw
p319
I1
sVdoynfh7
p320
I1
sVdncbjvr
p321
I1
sVdjtjyy5
p322
I1
sVdp6w8rs
p323
I1
sVdeltiys
p324
I1
sVdc1twzi
p325
I1
sVd1dn950
p326
I1
sVczews6z
p327
I1
sVdk4q0wr
p328
I1
sVd1o0vtr
p329
I1
sVczsnm2i
p330
I1
sVd9xurum
p331
I1
sVdids37i
p332
I1
sVde5z4zi
p333
I1
sVcyyos8b
p334
I2
sVdoxw9vv
p335
I1
sVdi0occl
p336
I1
sVd7qpk40
p337
I1
sVd7hncbl
p338
I1
sVdn1bsxy
p339
I1
sVdsmdrzv
p340
I1
sVd08rcaz
p341
I8
sVdbbo75b
p342
I1
sVd2ozml9
p343
I2
sVdhzhbyb
p344
I1
sVdil1hoi
p345
I2
sVd9uf16y
p346
I1
sVdcd670l
p347
I1
sVd9tfb4f
p348
I1
sVdhwxss1
p349
I1
sVdifsoti
p350
I1
sVdd8aptc
p351
I1
sVczpszml
p352
I1
sVdh5b3gv
p353
I2
sVdei9kx6
p354
I1
sVdiolluq
p355
I1
sVdmh4lmi
p356
I2
sVd1qp0st
p357
I1
sVdaknhv2
p358
I1
sVd99xz7g
p359
I1
sVd0nl0wj
p360
I1
sVddwgyzb
p361
I1
sVd054a08
p362
I1
sVdbk2u84
p363
I1
sVdidi2q4
p364
I1
sVddgh56w
p365
I1
sVdmk7jpx
p366
I1
sVcyrlyw0
p367
I1
sVd0sgunj
p368
I1
sVd2tn72u
p369
I1
sVdhza78b
p370
I1
sVdgq0id3
p371
I1
sVdo7k7x7
p372
I1
sVda2lkqa
p373
I1
sVdjuuswy
p374
I1
sVdmx71br
p375
I1
s.