(dp0
Vcyj56ry
p1
I1
s.(dp0
Vcyj56ry
p1
I1
sVcyqkl9m
p2
I1
s.(dp0
Vczr0r8e
p1
I1
sVcyj56ry
p2
I1
s.(dp0
Vd2aobgr
p1
I1
sVcyj56ry
p2
I1
s.(dp0
Vd69hh90
p1
I1
sVcyj56ry
p2
I1
s.(dp0
Vd7g85u0
p1
I1
sVcyj56ry
p2
I1
s.(dp0
Vcyj56ry
p1
I1
sVd9ugwdk
p2
I1
s.(dp0
Vcyj56ry
p1
I1
sVddse77n
p2
I1
s.(dp0
Vcyj56ry
p1
I1
sVdfgvba3
p2
I1
s.(dp0
Vdko76cr
p1
I1
sVcyj56ry
p2
I1
s.