(dp0
Vd30uluj
p1
I1
s.(dp0
Vd30uluj
p1
I1
sVd3w3jvr
p2
I1
s.(dp0
Vd441x1x
p1
I1
sVd30uluj
p2
I1
s.(dp0
Vd30uluj
p1
I1
sVd57htnh
p2
I1
s.(dp0
Vd6zqf13
p1
I1
sVd30uluj
p2
I1
s.(dp0
Vd6zqf13
p1
I1
sVd30uluj
p2
I1
s.(dp0
Vd6zqf13
p1
I1
sVd30uluj
p2
I1
s.(dp0
Vd7jzw5i
p1
I1
sVd30uluj
p2
I1
s.(dp0
Vd30uluj
p1
I1
sVd8t10wr
p2
I1
s.(dp0
Vdaknzgj
p1
I1
sVd30uluj
p2
I1
s.(dp0
Vd30uluj
p1
I1
sVdbeubd4
p2
I1
s.(dp0
Vd30uluj
p1
I1
sVdbgilug
p2
I1
s.(dp0
Vddsvib9
p1
I1
sVd30uluj
p2
I1
s.(dp0
Vd30uluj
p1
I1
sVdf7ehje
p2
I1
s.(dp0
Vdh1hj7c
p1
I1
sVd30uluj
p2
I1
s.(dp0
Vd30uluj
p1
I1
sVdojbugi
p2
I1
s.(dp0
Vd30uluj
p1
I1
sVdsarqzx
p2
I1
s.(dp0
Vd30uluj
p1
I1
sVdsarqzx
p2
I1
s.(dp0
Vdtas5qd
p1
I1
sVd30uluj
p2
I1
s.