(dp0
Vcym5nh3
p1
I1
s.(dp0
Vcym5nh3
p1
I1
sVczh9jye
p2
I1
s.(dp0
Vcym5nh3
p1
I1
sVczh9jye
p2
I1
s.(dp0
Vcym5nh3
p1
I1
sVczh9vgg
p2
I1
s.(dp0
Vcym5nh3
p1
I1
sVczwd2xb
p2
I1
s.(dp0
Vd0cssym
p1
I1
sVcym5nh3
p2
I1
s.(dp0
Vd0gl3hi
p1
I1
sVcym5nh3
p2
I1
s.(dp0
Vd0gl3hi
p1
I1
sVcym5nh3
p2
I1
s.(dp0
Vcym5nh3
p1
I1
sVd0kmssg
p2
I1
s.(dp0
Vcym5nh3
p1
I1
sVd0kmssg
p2
I1
s.(dp0
Vd0swi2s
p1
I1
sVcym5nh3
p2
I1
s.(dp0
Vd14kqum
p1
I1
sVcym5nh3
p2
I1
s.(dp0
Vcym5nh3
p1
I1
sVd15o2ex
p2
I1
s.(dp0
Vcym5nh3
p1
I1
sVd18neua
p2
I1
s.(dp0
Vd1m6xlc
p1
I1
sVcym5nh3
p2
I1
s.(dp0
Vcym5nh3
p1
I1
sVd1meaha
p2
I1
s.(dp0
Vcym5nh3
p1
I1
sVd1mgill
p2
I1
s.(dp0
Vcym5nh3
p1
I1
sVd1mgill
p2
I1
s.(dp0
Vcym5nh3
p1
I1
sVd1mqseo
p2
I1
s.(dp0
Vcym5nh3
p1
I1
sVd1mqseo
p2
I1
s.(dp0
Vcym5nh3
p1
I1
sVd1ms6du
p2
I1
s.(dp0
Vcym5nh3
p1
I1
sVd1mvxe6
p2
I1
s.(dp0
Vcym5nh3
p1
I1
sVd1mvxe6
p2
I1
s.(dp0
Vcym5nh3
p1
I1
sVd1mvxe6
p2
I1
s.(dp0
Vcym5nh3
p1
I1
sVd1n3vxo
p2
I1
s.(dp0
Vcym5nh3
p1
I1
sVd3cdaw3
p2
I1
s.(dp0
Vcym5nh3
p1
I1
sVd591yfo
p2
I1
s.(dp0
Vcym5nh3
p1
I1
sVd5wfpz1
p2
I1
s.(dp0
Vd6hbss0
p1
I1
sVcym5nh3
p2
I1
s.(dp0
Vd6hbss0
p1
I1
sVcym5nh3
p2
I1
s.(dp0
Vd6hbss0
p1
I1
sVcym5nh3
p2
I1
s.(dp0
Vd6mbq2h
p1
I1
sVcym5nh3
p2
I1
s.(dp0
Vd71ouob
p1
I1
sVcym5nh3
p2
I1
s.(dp0
Vd71skmb
p1
I1
sVcym5nh3
p2
I1
s.(dp0
Vd7nhekz
p1
I1
sVcym5nh3
p2
I1
s.(dp0
Vcym5nh3
p1
I1
sVd7tkvvb
p2
I1
s.(dp0
Vcym5nh3
p1
I1
sVd7u0ev6
p2
I1
s.(dp0
Vd877rip
p1
I1
sVcym5nh3
p2
I1
s.(dp0
Vd877rip
p1
I1
sVcym5nh3
p2
I1
s.(dp0
Vcym5nh3
p1
I1
sVd9obs7j
p2
I1
s.(dp0
Vdamqd8u
p1
I1
sVcym5nh3
p2
I1
s.(dp0
Vdb24rx5
p1
I1
sVcym5nh3
p2
I1
s.(dp0
Vcym5nh3
p1
I1
sVdbnr2hy
p2
I1
s.(dp0
Vcym5nh3
p1
I1
sVdc9mxy1
p2
I1
s.(dp0
Vcym5nh3
p1
I1
sVdcr3w98
p2
I1
s.(dp0
Vdcz0ggz
p1
I1
sVcym5nh3
p2
I1
s.(dp0
Vddfwy4a
p1
I1
sVcym5nh3
p2
I1
s.(dp0
Vde1tweo
p1
I1
sVcym5nh3
p2
I1
s.(dp0
Vcym5nh3
p1
I1
sVdevxx4a
p2
I1
s.(dp0
Vdew4o35
p1
I1
sVcym5nh3
p2
I1
s.(dp0
Vcym5nh3
p1
I1
sVdhtkcfz
p2
I1
s.(dp0
Vdhvjyo5
p1
I1
sVcym5nh3
p2
I1
s.(dp0
Vcym5nh3
p1
I1
sVdib5wv6
p2
I1
s.(dp0
Vcym5nh3
p1
I1
sVdibp9mb
p2
I1
s.(dp0
Vcym5nh3
p1
I1
sVdibp9mb
p2
I1
s.(dp0
Vcym5nh3
p1
I1
sVdim9ffg
p2
I1
s.(dp0
Vcym5nh3
p1
I1
sVdim9ffg
p2
I1
s.(dp0
Vcym5nh3
p1
I1
sVdjm6tyx
p2
I1
s.(dp0
Vdkkkdeo
p1
I1
sVcym5nh3
p2
I1
s.(dp0
Vcym5nh3
p1
I1
sVdkoq5vb
p2
I1
s.(dp0
Vcym5nh3
p1
I1
sVdkteewd
p2
I1
s.(dp0
Vdpvcc7e
p1
I1
sVcym5nh3
p2
I1
s.(dp0
Vdpvcc7e
p1
I1
sVcym5nh3
p2
I1
s.(dp0
Vdpvcc7e
p1
I1
sVcym5nh3
p2
I1
s.(dp0
Vcym5nh3
p1
I1
sVdpvetbv
p2
I1
s.(dp0
Vcym5nh3
p1
I1
sVdpx8nhk
p2
I1
s.(dp0
Vdqmivh0
p1
I1
sVcym5nh3
p2
I1
s.(dp0
Vdszkdns
p1
I1
sVcym5nh3
p2
I1
s.(dp0
Vdt0vmyi
p1
I1
sVcym5nh3
p2
I1
s.