(dp0
Vdj5xepg
p1
I2
sVd0rbx00
p2
I1
sVd26cv0y
p3
I1
sVd381o8e
p4
I1
sVdqnukdx
p5
I1
sVdmk1y6k
p6
I1
sVd8knf73
p7
I1
sVd5nqik2
p8
I1
sVd31fr54
p9
I1
sVd0oab6k
p10
I1
sVd1xz6bd
p11
I1
sVd6202m2
p12
I1
sVd4cy4aj
p13
I1
sVdaspjtd
p14
I1
sVdat1dqu
p15
I1
sVdkj6qb3
p16
I1
sVdkkj9xk
p17
I1
sVdszkdns
p18
I1
sVd7z4o49
p19
I1
sVd7650vf
p20
I1
sVd1yl6zq
p21
I1
sVdkkjugi
p22
I1
sVdmifd9l
p23
I1
sVczze3ge
p24
I1
sVd5vrpko
p25
I1
sVdjdh88k
p26
I1
sVdc62sb1
p27
I1
sVd6ole5s
p28
I1
sVdj5tgsf
p29
I1
s.