(dp0
Vd9nvsj3
p1
I1
s.(dp0
Vdbtlp0d
p1
I1
sVd9nvsj3
p2
I1
s.(dp0
Vdg6spe7
p1
I1
sVd9nvsj3
p2
I1
s.(dp0
Vdgkw6dj
p1
I1
sVd9nvsj3
p2
I1
s.(dp0
Vdgkw6dj
p1
I1
sVd9nvsj3
p2
I1
s.(dp0
Vdgkw6dj
p1
I1
sVd9nvsj3
p2
I1
s.(dp0
Vdhrbwc5
p1
I1
sVd9nvsj3
p2
I1
s.(dp0
Vdhrbwc5
p1
I1
sVd9nvsj3
p2
I1
s.(dp0
Vdhrbwc5
p1
I1
sVd9nvsj3
p2
I1
s.(dp0
Vdi0exw2
p1
I1
sVd9nvsj3
p2
I1
s.(dp0
Vdi0exw2
p1
I1
sVd9nvsj3
p2
I1
s.(dp0
Vdi0exw2
p1
I1
sVd9nvsj3
p2
I1
s.(dp0
Vdqqtdrv
p1
I1
sVd9nvsj3
p2
I1
s.