(dp0
Vcyi2yad
p1
I1
s.(dp0
Vcyi83uc
p1
I1
sVcyi2yad
p2
I1
s.(dp0
Vcyidh07
p1
I1
sVcyi2yad
p2
I1
s.(dp0
Vcyj2g8a
p1
I1
sVcyi2yad
p2
I1
s.(dp0
Vcyj7ney
p1
I1
sVcyi2yad
p2
I1
s.(dp0
Vcyjb7m1
p1
I1
sVcyi2yad
p2
I1
s.(dp0
Vcyjce23
p1
I1
sVcyi2yad
p2
I1
s.(dp0
Vcyjqh7q
p1
I1
sVcyi2yad
p2
I1
s.(dp0
Vcyi2yad
p1
I1
sVcyjv5pm
p2
I1
s.(dp0
Vcyi2yad
p1
I1
sVcyk3se6
p2
I1
s.(dp0
Vcyk7i5h
p1
I1
sVcyi2yad
p2
I1
s.(dp0
Vcykdzm7
p1
I1
sVcyi2yad
p2
I1
s.(dp0
Vcyi2yad
p1
I1
sVcykzeoi
p2
I1
s.(dp0
Vcyldps4
p1
I1
sVcyi2yad
p2
I1
s.(dp0
Vcylhsmj
p1
I1
sVcyi2yad
p2
I1
s.(dp0
Vcyln1jr
p1
I1
sVcyi2yad
p2
I1
s.(dp0
Vcym74lv
p1
I1
sVcyi2yad
p2
I1
s.(dp0
Vcyi2yad
p1
I1
sVcymckxg
p2
I1
s.(dp0
Vcyi2yad
p1
I1
sVcymckxg
p2
I1
s.(dp0
Vcymcydb
p1
I1
sVcyi2yad
p2
I1
s.(dp0
Vcyi2yad
p1
I1
sVcyme235
p2
I1
s.(dp0
Vcyi2yad
p1
I1
sVcyme235
p2
I1
s.(dp0
Vcymoeoq
p1
I1
sVcyi2yad
p2
I1
s.(dp0
Vcymtmua
p1
I1
sVcyi2yad
p2
I1
s.(dp0
Vcymv1qx
p1
I1
sVcyi2yad
p2
I1
s.(dp0
Vcynazj5
p1
I1
sVcyi2yad
p2
I1
s.(dp0
Vcyncmwb
p1
I1
sVcyi2yad
p2
I1
s.(dp0
Vcynv0n5
p1
I1
sVcyi2yad
p2
I1
s.(dp0
Vcyi2yad
p1
I1
sVcyo5w9l
p2
I1
s.(dp0
Vcyop3mh
p1
I1
sVcyi2yad
p2
I1
s.(dp0
Vcyopf59
p1
I1
sVcyi2yad
p2
I1
s.(dp0
Vcyozvkr
p1
I1
sVcyi2yad
p2
I1
s.(dp0
Vcyi2yad
p1
I1
sVcyp2zhl
p2
I1
s.(dp0
Vcyi2yad
p1
I1
sVcypez7p
p2
I1
s.(dp0
Vcypg4at
p1
I1
sVcyi2yad
p2
I1
s.(dp0
Vcypg4at
p1
I1
sVcyi2yad
p2
I1
s.(dp0
Vcypjp31
p1
I1
sVcyi2yad
p2
I1
s.(dp0
Vcypk5ze
p1
I1
sVcyi2yad
p2
I1
s.(dp0
Vcypvzlb
p1
I1
sVcyi2yad
p2
I1
s.(dp0
Vcypxkit
p1
I1
sVcyi2yad
p2
I1
s.(dp0
Vcyq5zn6
p1
I1
sVcyi2yad
p2
I1
s.(dp0
Vcyql8z1
p1
I1
sVcyi2yad
p2
I1
s.(dp0
Vcyqrp14
p1
I1
sVcyi2yad
p2
I1
s.(dp0
Vcyr70k7
p1
I1
sVcyi2yad
p2
I1
s.(dp0
Vcyr748i
p1
I1
sVcyi2yad
p2
I1
s.(dp0
Vcyr9b1n
p1
I1
sVcyi2yad
p2
I1
s.(dp0
Vcyr9b1n
p1
I1
sVcyi2yad
p2
I1
s.(dp0
Vcyrdoy9
p1
I1
sVcyi2yad
p2
I1
s.(dp0
Vcys05hb
p1
I1
sVcyi2yad
p2
I1
s.(dp0
Vcys55td
p1
I1
sVcyi2yad
p2
I1
s.(dp0
Vcysc40t
p1
I1
sVcyi2yad
p2
I1
s.(dp0
Vcyi2yad
p1
I1
sVcyspo6f
p2
I1
s.(dp0
Vcyst3hm
p1
I1
sVcyi2yad
p2
I1
s.(dp0
Vcytc0a7
p1
I1
sVcyi2yad
p2
I1
s.(dp0
Vcytf214
p1
I1
sVcyi2yad
p2
I1
s.(dp0
Vcyi2yad
p1
I1
sVcyu5q9d
p2
I1
s.(dp0
Vcyu9pgf
p1
I1
sVcyi2yad
p2
I1
s.(dp0
Vcyuajce
p1
I1
sVcyi2yad
p2
I1
s.(dp0
Vcyubs2h
p1
I1
sVcyi2yad
p2
I1
s.(dp0
Vcyug8rh
p1
I1
sVcyi2yad
p2
I1
s.(dp0
Vcyujb7c
p1
I1
sVcyi2yad
p2
I1
s.(dp0
Vcyujb7c
p1
I1
sVcyi2yad
p2
I1
s.(dp0
Vcyujb7c
p1
I1
sVcyi2yad
p2
I1
s.(dp0
Vcyujb7c
p1
I1
sVcyi2yad
p2
I1
s.(dp0
Vcyujb7c
p1
I1
sVcyi2yad
p2
I1
s.(dp0
Vcyi2yad
p1
I1
sVcyumrrb
p2
I1
s.(dp0
Vcyumxdh
p1
I1
sVcyi2yad
p2
I1
s.(dp0
Vcyuy7b2
p1
I1
sVcyi2yad
p2
I1
s.(dp0
Vcyv39yt
p1
I1
sVcyi2yad
p2
I1
s.(dp0
Vcyv58q5
p1
I1
sVcyi2yad
p2
I1
s.(dp0
Vcyv5eut
p1
I1
sVcyi2yad
p2
I1
s.(dp0
Vcyvczpk
p1
I1
sVcyi2yad
p2
I1
s.(dp0
Vcyve3id
p1
I1
sVcyi2yad
p2
I1
s.(dp0
Vcyvk33j
p1
I1
sVcyi2yad
p2
I1
s.(dp0
Vcyvk33j
p1
I1
sVcyi2yad
p2
I1
s.(dp0
Vcyvu5bq
p1
I1
sVcyi2yad
p2
I1
s.(dp0
Vcyw2egs
p1
I1
sVcyi2yad
p2
I1
s.(dp0
Vcyw2egs
p1
I1
sVcyi2yad
p2
I1
s.(dp0
Vcywmu0k
p1
I1
sVcyi2yad
p2
I1
s.(dp0
Vcywwqqf
p1
I1
sVcyi2yad
p2
I1
s.(dp0
Vcyxgt7g
p1
I1
sVcyi2yad
p2
I1
s.(dp0
Vcyxjo4d
p1
I1
sVcyi2yad
p2
I1
s.(dp0
Vcyxpt0v
p1
I1
sVcyi2yad
p2
I1
s.(dp0
Vcyxslzz
p1
I1
sVcyi2yad
p2
I1
s.(dp0
Vcyi2yad
p1
I1
sVcyxxdj2
p2
I1
s.(dp0
Vcyy2dki
p1
I1
sVcyi2yad
p2
I1
s.(dp0
Vcyy6mfm
p1
I1
sVcyi2yad
p2
I1
s.(dp0
Vcyyameu
p1
I1
sVcyi2yad
p2
I1
s.(dp0
Vcyycp9d
p1
I1
sVcyi2yad
p2
I1
s.(dp0
Vcyymhoi
p1
I1
sVcyi2yad
p2
I1
s.(dp0
Vcyyoclb
p1
I1
sVcyi2yad
p2
I1
s.(dp0
Vcyyoqwm
p1
I1
sVcyi2yad
p2
I1
s.(dp0
Vcyyos8b
p1
I1
sVcyi2yad
p2
I1
s.(dp0
Vcyyos8b
p1
I1
sVcyi2yad
p2
I1
s.(dp0
Vcyi2yad
p1
I1
sVcyyrooy
p2
I1
s.(dp0
Vcyywibe
p1
I1
sVcyi2yad
p2
I1
s.(dp0
Vcyz4hh8
p1
I1
sVcyi2yad
p2
I1
s.(dp0
Vcyzevgx
p1
I1
sVcyi2yad
p2
I1
s.(dp0
Vcyzhpvi
p1
I1
sVcyi2yad
p2
I1
s.(dp0
Vcyzie0g
p1
I1
sVcyi2yad
p2
I1
s.(dp0
Vcyzl8qf
p1
I1
sVcyi2yad
p2
I1
s.(dp0
Vcyzl8qf
p1
I1
sVcyi2yad
p2
I1
s.(dp0
Vcyzl8qf
p1
I1
sVcyi2yad
p2
I1
s.(dp0
Vcyzl8qf
p1
I1
sVcyi2yad
p2
I1
s.(dp0
Vcyznk6h
p1
I1
sVcyi2yad
p2
I1
s.(dp0
Vcyzop8i
p1
I1
sVcyi2yad
p2
I1
s.(dp0
Vcyzuor1
p1
I1
sVcyi2yad
p2
I1
s.(dp0
Vcyzxgci
p1
I1
sVcyi2yad
p2
I1
s.(dp0
Vcz(dp0
Vdtj280p
p1
I1
sVcyi2yad
p2
I1
s.