(dp0
Vdrpp7bh
p1
I1
sVczdaidl
p2
I1
sVddc3xk2
p3
I1
sVdblk345
p4
I1
sVdcz1w9p
p5
I1
sVde3sm1q
p6
I1
sVd78ggyi
p7
I1
sVdhubn5f
p8
I1
sVdjy3a96
p9
I1
sVd1rzpiy
p10
I1
sVd8jg7a8
p11
I1
sVdhrbm1y
p12
I1
sVczmb16t
p13
I1
sVds4vmmg
p14
I1
sVd5ivrzw
p15
I1
sVczmcfkp
p16
I1
sVdapokg4
p17
I1
sVdb3fita
p18
I1
sVdjsibmq
p19
I1
sVd3x9366
p20
I1
sVd31t8s9
p21
I1
s.