(dp0
Vdc8xxzp
p1
I1
sVd1l79vf
p2
I1
sVd10ygib
p3
I1
sVd86t55m
p4
I1
sVczvew58
p5
I2
sVd5y1vms
p6
I1
sVd0m690s
p7
I2
sVcz73dgd
p8
I1
sVd84qh1z
p9
I1
sVd0mcb9l
p10
I3
sVd2d7hjc
p11
I2
sVd2ahroy
p12
I1
sVd0us2iy
p13
I1
sVd44rlyv
p14
I1
sVdpia7ay
p15
I1
sVd0m6fty
p16
I1
sVd4bobwa
p17
I1
sVd3df8i0
p18
I1
sVd25x620
p19
I1
sVcysl0ol
p20
I1
sVd5opyk3
p21
I1
sVd4bodtg
p22
I1
sVd86t23w
p23
I2
sVd9nbfbm
p24
I1
s.