(dp0
Vdn4dw27
p1
I1
sVczgdgwh
p2
I1
sVd2krqyz
p3
I1
sVd4munk0
p4
I1
sVd7t9uqc
p5
I2
sVdfoog58
p6
I1
sVdhjuohx
p7
I1
sVdhmgjli
p8
I1
sVdb57je3
p9
I1
sVde3nb1t
p10
I1
sVd3vmzkz
p11
I1
sVdjc40ej
p12
I1
sVds2yhtg
p13
I1
sVdmhr7wo
p14
I1
sVdium0v4
p15
I1
sVd18dcyq
p16
I1
sVd3izo9k
p17
I1
sVd97np7o
p18
I1
sVdecmf23
p19
I1
sVdpnlm5j
p20
I1
sVd71ymua
p21
I1
sVd5n4r4e
p22
I1
sVdg2u0fp
p23
I1
sVd0537dn
p24
I1
s.