(dp0
Vcz96fk9
p1
I1
s.(dp0
Vd0gun07
p1
I1
sVcz96fk9
p2
I1
s.(dp0
Vd1ecg4r
p1
I1
sVcz96fk9
p2
I1
s.(dp0
Vd1ecg4r
p1
I1
sVcz96fk9
p2
I1
s.(dp0
Vd2o7141
p1
I1
sVcz96fk9
p2
I1
s.(dp0
Vcz96fk9
p1
I1
sVd44td5b
p2
I1
s.(dp0
Vcz96fk9
p1
I1
sVd67uh34
p2
I1
s.(dp0
Vd68tf99
p1
I1
sVcz96fk9
p2
I1
s.(dp0
Vd8uavw0
p1
I1
sVcz96fk9
p2
I1
s.(dp0
Vcz96fk9
p1
I1
sVdcl20mw
p2
I1
s.(dp0
Vcz96fk9
p1
I1
sVdds7gp6
p2
I1
s.(dp0
Vdeufd72
p1
I1
sVcz96fk9
p2
I1
s.(dp0
Vcz96fk9
p1
I1
sVdfljerj
p2
I1
s.(dp0
Vcz96fk9
p1
I1
sVdfy7qo5
p2
I1
s.(dp0
Vcz96fk9
p1
I1
sVdgkg4uh
p2
I1
s.(dp0
Vcz96fk9
p1
I1
sVdkmo3ml
p2
I1
s.