(dp0
Vd7qwtf8
p1
I1
sVd2wj2pk
p2
I1
sVdd5kp1k
p3
I1
sVd7qway9
p4
I2
sVdgwni95
p5
I1
sVd7qvwur
p6
I1
sVd7qvroj
p7
I1
sVdrosre9
p8
I1
sVd8vsis2
p9
I1
sVdgvzg28
p10
I1
sVdexkt5w
p11
I1
sVd74xqrt
p12
I1
sVdhsi2is
p13
I1
sVd3aen6z
p14
I1
sVdqpnfrw
p15
I1
s.