(dp0
Vddojz4o
p1
I1
sVdgvuvt1
p2
I1
sVdg102wa
p3
I1
sVd5ykr7h
p4
I2
sVddl3u57
p5
I1
sVdoyt3gn
p6
I2
sVd2z5a5m
p7
I1
sVdes8fqs
p8
I1
sVd5qargx
p9
I1
sVdsm7zdn
p10
I1
sVd64p2lh
p11
I1
sVdkck1eq
p12
I1
sVd4ukbvl
p13
I1
sVdi64pi5
p14
I1
sVdjrtlnj
p15
I1
sVd6df52s
p16
I3
sVd2z6ajs
p17
I1
sVdgv5cfe
p18
I1
s.