(dp0
Vczhydic
p1
I1
s.(dp0
Vczhydic
p1
I1
sVcznrknd
p2
I1
s.(dp0
Vczhydic
p1
I1
sVd179yju
p2
I1
s.(dp0
Vczhydic
p1
I1
sVd1dfin7
p2
I1
s.(dp0
Vczhydic
p1
I1
sVd1fqjnr
p2
I1
s.(dp0
Vczhydic
p1
I1
sVd1g1a99
p2
I1
s.(dp0
Vczhydic
p1
I1
sVd1tk8zp
p2
I1
s.(dp0
Vczhydic
p1
I1
sVd1tk8zp
p2
I1
s.(dp0
Vczhydic
p1
I1
sVd3xptgf
p2
I1
s.(dp0
Vczhydic
p1
I1
sVd56urhj
p2
I1
s.(dp0
Vd5omzeu
p1
I1
sVczhydic
p2
I1
s.(dp0
Vd5omzeu
p1
I1
sVczhydic
p2
I1
s.(dp0
Vczhydic
p1
I1
sVd5wsc4o
p2
I1
s.(dp0
Vczhydic
p1
I1
sVd5z06dx
p2
I1
s.(dp0
Vczhydic
p1
I1
sVd5z5t2i
p2
I1
s.(dp0
Vczhydic
p1
I1
sVd604sqf
p2
I1
s.(dp0
Vczhydic
p1
I1
sVd66wnr5
p2
I1
s.(dp0
Vczhydic
p1
I1
sVd881f7j
p2
I1
s.(dp0
Vczhydic
p1
I1
sVd8g3mji
p2
I1
s.(dp0
Vczhydic
p1
I1
sVd99z8oa
p2
I1
s.(dp0
Vczhydic
p1
I1
sVdae01mp
p2
I1
s.(dp0
Vczhydic
p1
I1
sVdb11i0s
p2
I1
s.(dp0
Vdb3pzl0
p1
I1
sVczhydic
p2
I1
s.(dp0
Vdb3v01s
p1
I1
sVczhydic
p2
I1
s.(dp0
Vczhydic
p1
I1
sVdcc88xg
p2
I1
s.(dp0
Vczhydic
p1
I1
sVdcdr9gf
p2
I1
s.(dp0
Vczhydic
p1
I1
sVdchpu1q
p2
I1
s.(dp0
Vczhydic
p1
I1
sVdcwinnc
p2
I1
s.(dp0
Vczhydic
p1
I1
sVdcww31f
p2
I1
s.(dp0
Vczhydic
p1
I1
sVddiwlzb
p2
I1
s.(dp0
Vczhydic
p1
I1
sVdeayb1q
p2
I1
s.(dp0
Vdfo8luq
p1
I1
sVczhydic
p2
I1
s.(dp0
Vczhydic
p1
I1
sVdgvu7o6
p2
I1
s.(dp0
Vczhydic
p1
I1
sVdhxwgu7
p2
I1
s.(dp0
Vczhydic
p1
I1
sVdjsfdgx
p2
I1
s.(dp0
Vczhydic
p1
I1
sVdkvcuxg
p2
I1
s.(dp0
Vczhydic
p1
I1
sVdkvcuxg
p2
I1
s.(dp0
Vczhydic
p1
I1
sVdn9qr3j
p2
I1
s.(dp0
Vczhydic
p1
I1
sVdnus0e8
p2
I1
s.(dp0
Vczhydic
p1
I1
sVdou4z98
p2
I1
s.(dp0
Vczhydic
p1
I1
sVdqxbpr6
p2
I1
s.(dp0
Vczhydic
p1
I1
sVds4p9d7
p2
I1
s.