(dp0
Vd6zg1xo
p1
I1
sVddyondh
p2
I1
sVcyngdit
p3
I1
sVczg6lkz
p4
I2
sVdc1iwcx
p5
I1
sVdaykdqf
p6
I2
sVd72voer
p7
I1
sVd6n1ikf
p8
I1
sVd3zd51c
p9
I1
sVcyxxsvd
p10
I1
sVdqnk196
p11
I1
sVd0p4yq2
p12
I3
sVdpmaczt
p13
I1
sVd6filzg
p14
I1
sVd1bnbmk
p15
I2
sVcyx5ms7
p16
I2
sVd55ybgo
p17
I1
sVdasjtph
p18
I1
sVdoelwxc
p19
I3
sVczsynmn
p20
I1
sVd99coov
p21
I5
sVde6n0bu
p22
I3
sVdfv8gjy
p23
I2
sVdqnjw1f
p24
I3
sVcyxhycj
p25
I2
sVd0wsnfs
p26
I1
sVd4txmw2
p27
I1
sVd7h10r7
p28
I2
sVd6zlxjv
p29
I6
sVczm23gm
p30
I2
sVd52oyj7
p31
I2
sVd312yvz
p32
I1
sVcyx1gal
p33
I1
sVdal042l
p34
I1
sVd6xsmhf
p35
I1
sVd2quzzk
p36
I3
sVd56h4se
p37
I1
sVd9wrfdx
p38
I1
sVdrzr2yd
p39
I1
sVd3lj8aq
p40
I2
sVd52pg4p
p41
I1
sVdosfddl
p42
I1
sVdcjxkbl
p43
I1
sVdsgrn0h
p44
I1
sVcyxqb0q
p45
I1
sVcyjsi9f
p46
I2
sVd6pmyyi
p47
I7
sVd83ty8z
p48
I1
sVdbuevdr
p49
I16
sVd1j46pn
p50
I1
sVd9f08ta
p51
I1
sVdfytpyw
p52
I1
sVd52rxsh
p53
I4
sVd52znak
p54
I2
sVd4vays0
p55
I3
sVd648t1f
p56
I1
sVd1iq9k7
p57
I1
sVczhm43v
p58
I2
sVd639mhk
p59
I2
sVdtgejxq
p60
I1
sVd72wikk
p61
I1
sVczg7p7o
p62
I1
sVd3dmptn
p63
I1
sVd3qvq6n
p64
I2
sVdcezi72
p65
I1
sVdp8bp7r
p66
I3
sVcyujcy6
p67
I1
sVd5m01os
p68
I2
sVd7fj6zm
p69
I1
sVd09m4qf
p70
I4
sVdphlk2z
p71
I2
sVdcgmx4m
p72
I1
sVd0x88ru
p73
I1
sVd4gro0g
p74
I1
sVd52qusu
p75
I2
sVd2887tk
p76
I5
sVd6be1ma
p77
I1
sVdj8fimt
p78
I1
sVd52qwpl
p79
I5
sVcyql2yp
p80
I2
sVdc0zd5o
p81
I1
sVd6muikl
p82
I2
s.