(dp0
Vcypx4tg
p1
I1
sVdmxek8p
p2
I1
sVde8ddr2
p3
I2
sVd64etvw
p4
I1
sVdcl4x04
p5
I1
sVczpc031
p6
I1
sVdcmu70i
p7
I1
sVddf4czm
p8
I2
sVdjg6lso
p9
I1
sVd2n16vd
p10
I1
sVdgsck3g
p11
I1
sVd5suv66
p12
I2
sVdd4d9j5
p13
I1
sVd2n91rm
p14
I1
sVczds3bc
p15
I1
sVda0ozy6
p16
I1
sVdel3nxi
p17
I1
sVd397ns6
p18
I1
sVdi7ikhk
p19
I1
sVdc5ka88
p20
I3
sVdg734jz
p21
I1
sVdhbuspv
p22
I1
sVd0x6eku
p23
I1
sVcyw69n5
p24
I1
sVddghnx0
p25
I2
sVdj4t9qe
p26
I2
sVdqiqwyk
p27
I1
sVdgimiyf
p28
I2
sVdhldd3n
p29
I1
sVd48e8tv
p30
I1
sVdgsjbzk
p31
I1
sVdb9hh9a
p32
I2
sVd0iy81k
p33
I1
sVdateqqg
p34
I1
sVd0bl9ny
p35
I1
sVddhbx1i
p36
I1
sVdav9nef
p37
I1
sVd0t3wj2
p38
I1
sVdjwdr7l
p39
I1
sVdqnukdx
p40
I1
sVdbqkwbl
p41
I1
sVd4irk0k
p42
I1
sVdb68red
p43
I1
sVd1wenp8
p44
I2
sVde1t5i8
p45
I1
sVd3mzkqe
p46
I1
sVd4k7esd
p47
I1
sVddqs4b9
p48
I1
sVdaf6h16
p49
I1
sVdenx9w0
p50
I1
sVdil0etp
p51
I1
sVdh4wlsv
p52
I1
sVdgc3mwv
p53
I1
sVd6jecyg
p54
I1
sVd4bb99i
p55
I1
sVddl67ag
p56
I1
sVcz96t9a
p57
I1
sVdivcgt8
p58
I1
sVcznlb5f
p59
I1
sVd59q568
p60
I1
sVdptlf8b
p61
I1
sVdbn20l0
p62
I2
sVdmzh0u9
p63
I1
sVdntwsyy
p64
I1
sVd9087k5
p65
I1
sVdk12hzo
p66
I1
sVdc2s7mf
p67
I1
sVd566sbc
p68
I1
sVd7rh0tx
p69
I1
sVdd30bgf
p70
I1
sVd9apgjd
p71
I1
sVdkfniv0
p72
I1
sVdbikj72
p73
I1
sVdia4q3t
p74
I1
sVdjlaeps
p75
I1
sVd2oa2fv
p76
I1
sVd5qaz2n
p77
I1
sVd8or5lz
p78
I2
sVd201c9q
p79
I1
sVcyjq3a7
p80
I5
sVdo2ovqv
p81
I1
sVdcihfwj
p82
I2
sVdav3qrs
p83
I1
sVdbef415
p84
I2
sVdkt8aew
p85
I1
sVd4a3v31
p86
I1
sVd815q59
p87
I1
sVdmh06t6
p88
I1
sVdsvpay1
p89
I1
sVdkmlqhx
p90
I6
sVd6k0bsv
p91
I1
sVdcmowjo
p92
I1
sVdaou1nd
p93
I1
sVcylzts4
p94
I1
sVd1jpnhe
p95
I1
sVd9sak6c
p96
I1
sVd7seusy
p97
I1
sVdos47m9
p98
I1
sVd03k7wz
p99
I2
sVdcta169
p100
I1
sVd0fnani
p101
I1
sVd7obuio
p102
I1
sVdogpli9
p103
I1
sVd2gvbim
p104
I1
sVczix30a
p105
I1
sVdpuz0q1
p106
I1
sVd79xaz5
p107
I1
sVd9x5ubj
p108
I1
sVd61ghok
p109
I1
sVdorq6pr
p110
I1
sVd1ey524
p111
I2
sVdabjubv
p112
I4
sVczzw776
p113
I1
sVd3zoizi
p114
I1
sVdbesuuk
p115
I2
sVd3xq0n1
p116
I1
sVdkgxw6k
p117
I1
sVd2ku149
p118
I1
sVdi54hsc
p119
I2
sVdalgr5s
p120
I1
sVdg5yo4w
p121
I1
sVdbjph8x
p122
I2
sVdn2ld4o
p123
I1
sVdbzh0su
p124
I1
sVdshx3e1
p125
I1
sVdeaq6fg
p126
I1
sVd2lrzal
p127
I1
sVdidmfjx
p128
I1
sVde3l2ar
p129
I1
sVd10smqz
p130
I2
sVd65cijy
p131
I1
sVd59u2mq
p132
I2
sVdkgqwtk
p133
I1
sVdj30eoh
p134
I1
sVczv0zyb
p135
I2
sVdhwhy9j
p136
I1
sVdgh3j7o
p137
I1
sVdcs7dt2
p138
I1
sVdji07oz
p139
I1
sVdim5rvd
p140
I1
sVdizt7lx
p141
I1
sVdbzeurj
p142
I1
sVczzudzu
p143
I1
sVd08t6ka
p144
I1
sVdcphyce
p145
I1
sVddw3r50
p146
I2
sVd15olxc
p147
I1
sVdhsn6lq
p148
I1
sVdq3v5i8
p149
I1
sVd5x1p6t
p150
I1
sVdqd4637
p151
I1
sVdhjwnft
p152
I1
sVdgqny2k
p153
I1
sVdfn2mia
p154
I2
sVdjf6u4m
p155
I1
sVd73srlg
p156
I1
sVd1ibg62
p157
I1
sVdmf5fib
p158
I1
sVdpmuvc4
p159
I1
sVdk8maar
p160
I1
sVcz88w6c
p161
I2
sVdcquejf
p162
I1
sVdjr76on
p163
I3
sVd3bvykb
p164
I1
sVd2u94hz
p165
I1
sVdqr9z8d
p166
I2
sVdcx111v
p167
I1
sVd4kx4ws
p168
I5
sVdfxjyst
p169
I1
sVd6p5ajy
p170
I1
sVdghjcxj
p171
I4
sVdixyu1g
p172
I2
sVdow5gh9
p173
I1
sVdb1gkap
p174
I1
sVd6pqcnd
p175
I1
sVdbmjcl9
p176
I2
sVdbesqw8
p177
I1
sVdb7dyvk
p178
I1
sVd00trd8
p179
I1
sVdrlkcst
p180
I1
sVdd1rnl1
p181
I2
sVd9tbs53
p182
I2
sVdbvzje9
p183
I1
sVd4r3vdz
p184
I1
sVdpu9b11
p185
I1
sVdkokqvd
p186
I2
sVddrkuk4
p187
I1
sVczuug6t
p188
I1
sVd8och87
p189
I1
sVd5sm10v
p190
I1
sVd48d2g0
p191
I2
sVd2x98yt
p192
I2
sVd8wmvih
p193
I1
sVdk2bk9m
p194
I1
sVd865kwh
p195
I1
sVd5fv1oi
p196
I1
sVdt7j7fa
p197
I1
sVd6c8z8w
p198
I1
sVd5rbmek
p199
I1
sVczhzppn
p200
I1
sVdflavc2
p201
I1
sVd28s6px
p202
I2
sVdeycm38
p203
I2
sVddhhkqn
p204
I1
sVdhnf15q
p205
I1
sVddlkme7
p206
I1
sVdjqgy6c
p207
I2
sVcyvixac
p208
I1
sVdkiqdk2
p209
I1
sVdrt88tq
p210
I1
sVd7r0z3j
p211
I1
sVd6wgeci
p212
I1
sVdb2mvt7
p213
I1
sVd2oywfo
p214
I1
sVdo765l8
p215
I1
sVdczr8tw
p216
I1
sVd9fs1st
p217
I1
sVd1rhg27
p218
I1
sVd2i5u3y
p219
I1
sVdo6ktwg
p220
I1
sVdr464p7
p221
I1
sVcz5b74u
p222
I3
sVd98qntw
p223
I1
sVdfwycfz
p224
I1
sVd95l7du
p225
I1
sVdhm1mb5
p226
I1
sVd6iyrs8
p227
I1
sVdf2jars
p228
I2
sVdhan7s3
p229
I1
sVdpfs81m
p230
I3
sVd2o3eyy
p231
I1
sVdjfqmz9
p232
I1
sVd8lm0ah
p233
I1
sVd2q55fh
p234
I1
sVd97uzux
p235
I1
sVcyy5qxf
p236
I1
sVdagx6jl
p237
I2
sVdbpqchm
p238
I1
sVdgfuzwl
p239
I1
sVdnu8ulf
p240
I1
sVd0odb7q
p241
I1
sVd0bxxmm
p242
I1
sVczbcnfe
p243
I1
sVdsl7y3n
p244
I1
sVdhbzm7i
p245
I1
sVdkhcjfb
p246
I1
sVdg6eh24
p247
I3
sVdog7ji3
p248
I1
sVd5imnas
p249
I1
sVd3wtfg8
p250
I1
sVdq94yak
p251
I2
sVdrqzaib
p252
I1
sVdbr5jt8
p253
I1
sVd90453o
p254
I2
sVdfhqv43
p255
I1
sVd5btdk7
p256
I1
sVd3fhnrq
p257
I1
sVdcqa3ha
p258
I1
sVdny2xc0
p259
I1
sVd97dw5u
p260
I1
sVdefx468
p261
I2
sVd23t0bq
p262
I3
sVddgk4kq
p263
I1
sVdi7wx48
p264
I1
sVd4rdti2
p265
I1
sVd8ho0r4
p266
I1
sVd1gfqyu
p267
I1
sVcyr3uit
p268
I2
sVddum0ce
p269
I1
sVde88as2
p270
I1
sVcyje4jc
p271
I1
sVda2ehla
p272
I1
sVdp7lhyx
p273
I3
sVdqkwxa4
p274
I1
sVdcrgijz
p275
I1
sVdkgtqy2
p276
I1
sVd5mx9ay
p277
I2
sVde5244d
p278
I1
sVda1locg
p279
I2
sVd80t0f0
p280
I1
sVd7h3qyw
p281
I1
sVdraapwn
p282
I1
sVdjqm9i4
p283
I1
sVdiebhi4
p284
I1
sVdbhnat4
p285
I1
sVdjc0yw0
p286
I1
sVdfe8kux
p287
I1
sVddc0pnp
p288
I1
sVdby0o4l
p289
I1
sVdh87arn
p290
I1
sVd03zu1y
p291
I2
sVdi8yp2d
p292
I1
sVd7j5252
p293
I1
sVdgt2qsp
p294
I1
sVd6a41ih
p295
I1
sVd8j4ftt
p296
I1
sVcz1zbly
p297
I1
sVd6rodo2
p298
I1
sVdq1rfn1
p299
I1
sVdmqarnb
p300
I1
sVdehm85i
p301
I2
sVd83w46h
p302
I1
sVczvv16n
p303
I1
sVddhl9db
p304
I1
sVdn0u4gu
p305
I2
sVdg8a6h8
p306
I3
sVd55zxa4
p307
I1
sVd3shmau
p308
I1
sVd5kcbtk
p309
I1
sVdpgay75
p310
I1
sVdjfkz0o
p311
I1
sVd5jc5ka
p312
I1
sVdno64zu
p313
I1
sVd777p84
p314
I2
sVd8d83on
p315
I1
sVdkr1pnw
p316
I1
sVddt446l
p317
I2
sVcyiianv
p318
I2
sVd9ila8n
p319
I1
sVd97akxl
p320
I1
sVd3hc778
p321
I1
sVdfmdc3l
p322
I1
sVd9yb223
p323
I2
sVcz0bjk6
p324
I1
sVddd8c1s
p325
I1
sVdoc2ql0
p326
I1
sVd5vqi1j
p327
I1
sVdch9s8v
p328
I1
sVd44eg01
p329
I1
sVczw8ct5
p330
I1
sVd1ydzps
p331
I1
sVd6z4jzv
p332
I1
sVdihd0ud
p333
I1
sVd6hsm1m
p334
I3
sVd5vrsei
p335
I1
sVdcjp3cj
p336
I1
sVcz4tqkn
p337
I1
sVddbrj8c
p338
I1
sVd97g8l5
p339
I1
sVdp7d3uc
p340
I1
sVdtctm9g
p341
I1
sVd53xvbq
p342
I1
sVdejywwd
p343
I1
sVdp7ut8f
p344
I1
sVdel3zqf
p345
I1
sVd7skthb
p346
I1
sVdcl8hx1
p347
I2
sVdrg9z2q
p348
I1
sVdfhhgyr
p349
I1
sVdd4kk0r
p350
I1
sVdbh745q
p351
I1
sVd5sew7e
p352
I2
sVdhr9l95
p353
I1
sVda2wrvf
p354
I1
sVdcg6xop
p355
I1
sVdi8ysm4
p356
I1
sVdjzxjd4
p357
I2
sVd7cqjf6
p358
I1
sVdn0t758
p359
I2
sVds6e90h
p360
I1
sVdp8yjmm
p361
I1
sVdmrkvyk
p362
I1
sVd7t9kuk
p363
I1
sVd13wp0y
p364
I1
sVczxj8c1
p365
I1
sVdagvqti
p366
I2
sVd6arz5m
p367
I1
sVdeorhqw
p368
I1
sVd19vayw
p369
I2
sVdk4fx06
p370
I2
sVdft696w
p371
I1
sVdrte0if
p372
I2
sVd6izptz
p373
I2
sVd3n4ern
p374
I1
sVd0b7k0u
p375
I1
sVdjwvb8w
p376
I1
sVdph5hnn
p377
I1
sVdb9df2k
p378
I1
sVd2s5ukx
p379
I1
sVdj2fgf2
p380
I1
sVd1562cw
p381
I2
sVdjboh83
p382
I1
sVcylkbmu
p383
I2
sVdog90xm
p384
I2
sVdpsa44e
p385
I2
sVdki6art
p386
I1
sVcz7f2py
p387
I1
sVdpmspuy
p388
I1
sVdq6k81k
p389
I1
sVdkukoye
p390
I1
sVdi7jg6j
p391
I1
sVd7kil08
p392
I1
sVd3oviws
p393
I1
sVd9c91f9
p394
I1
sVd45y91l
p395
I2
sVd2e9ihf
p396
I1
sVde3427f
p397
I2
sVdn9n9b5
p398
I2
sVd1n20hw
p399
I1
sVdaztgo4
p400
I1
sVd1bp12h
p401
I1
sVdsp1025
p402
I1
sVczzu44d
p403
I1
sVddpb878
p404
I1
sVd9427x0
p405
I1
sVdncbt55
p406
I1
sVd82yqxa
p407
I1
sVdf9ku3z
p408
I1
sVd6r8rzg
p409
I1
sVdca5or8
p410
I1
sVdi70iwu
p411
I1
sVdth4qst
p412
I1
sVcz83as7
p413
I1
sVdagceky
p414
I1
sVdsn7lah
p415
I1
sVdjs04wb
p416
I2
sVdj17eoh
p417
I2
sVd4uz9x8
p418
I1
sVd89e782
p419
I1
sVdcesudr
p420
I2
sVdijp0gy
p421
I1
sVd72q3ro
p422
I2
sVdcd6bvn
p423
I2
sVd58gify
p424
I1
sVd1s5tfp
p425
I1
sVcz2sw1v
p426
I1
sVdoei71x
p427
I1
sVdsk8ly1
p428
I1
sVdg3q6oy
p429
I1
sVd9puvs1
p430
I2
sVd7mfr96
p431
I1
sVd6joqi4
p432
I1
sVdgtc01c
p433
I3
sVdqe0p30
p434
I1
sVdkp13hu
p435
I1
sVdf5xi6m
p436
I1
sVd50wdzs
p437
I1
sVdjk6uxc
p438
I1
sVdajwf0n
p439
I2
sVd7mic8h
p440
I2
sVdoe8pp7
p441
I1
sVdogisth
p442
I1
sVd68m93l
p443
I1
sVdgfj19s
p444
I1
sVdbmg0a6
p445
I1
sVde0nl7q
p446
I1
sVdb8tq8g
p447
I1
sVdbvls7y
p448
I1
sVdb6vz9b
p449
I1
sVdp5bo44
p450
I1
sVd2333ki
p451
I1
sVdbax1w4
p452
I1
sVdav6i51
p453
I1
sVd3a36xa
p454
I2
sVdojfzmi
p455
I2
sVd8yivtx
p456
I1
sVd8micqp
p457
I1
sVd63alab
p458
I1
sVd9y0u1q
p459
I1
sVde950rg
p460
I1
sVd4rglvb
p461
I1
sVdgwm8xo
p462
I1
sVdfs4kce
p463
I2
sVdpb2zf0
p464
I1
sVd4qwnof
p465
I1
sVdgl1xpy
p466
I1
sVdphsqla
p467
I1
sVd240jcc
p468
I1
sVdkyxmk1
p469
I1
sVd8krxfx
p470
I1
sVdeihm4z
p471
I1
sVdq23kd1
p472
I1
sVczwokrl
p473
I1
sVd93383x
p474
I1
sVd4h4iwk
p475
I1
sVdck7qvt
p476
I1
sVdd3e5iu
p477
I2
sVdnn3rcs
p478
I1
sVda1bfco
p479
I1
sVdmk40ef
p480
I1
sVd925ldz
p481
I1
sVd201wyb
p482
I1
sVdbsias7
p483
I1
sVd87nlgh
p484
I1
sVd48nfo2
p485
I1
sVdhk3iwf
p486
I1
sVd7untsn
p487
I1
sVd1eveq5
p488
I1
sVcznr5gn
p489
I1
sVdknarfp
p490
I1
sVdokzg1z
p491
I1
sVczt4van
p492
I1
sVd04m3i7
p493
I1
sVdkl1wis
p494
I2
sVdgydh27
p495
I1
sVdf7sa8m
p496
I1
sVdazo055
p497
I1
sVdrkwzuf
p498
I1
sVd97dfgb
p499
I1
sVd382cf0
p500
I2
sVdoiepqy
p501
I1
sVdhfhbkx
p502
I1
sVcyms4mw
p503
I1
sVdavmvvd
p504
I1
sVdjwyeom
p505
I1
sVd68gq29
p506
I1
sVd6p7yqn
p507
I1
sVdiunz3y
p508
I2
sVddfwipc
p509
I1
sVdft8j4x
p510
I3
sVd985g9o
p511
I1
sVd4tdbao
p512
I1
sVddxnd3b
p513
I1
sVd61tp18
p514
I1
sVd8ybbhc
p515
I1
sVdbb1qr0
p516
I1
sVd0rjiec
p517
I1
sVczie4hk
p518
I1
sVde34rp0
p519
I1
sVd4gu2kw
p520
I1
sVd9ivy2l
p521
I1
sVczwx7si
p522
I2
sVdrs61is
p523
I1
sVdifcxvn
p524
I1
sVcz04z55
p525
I1
sVdbksdb6
p526
I1
sVdjvj577
p527
I1
sVdccurcu
p528
I1
sVdpgbri1
p529
I1
sVdgc4txj
p530
I1
sVdro33h8
p531
I2
sVd2qg1fh
p532
I1
sVd6cfx1i
p533
I1
sVd0xwpxv
p534
I1
sVcyiwwh7
p535
I1
sVd3k1181
p536
I1
sVddtw5g9
p537
I1
sVd3irsdr
p538
I1
sVd7bj7np
p539
I1
sVd73dkmw
p540
I3
sVddq2rrp
p541
I2
sVd1iuuxv
p542
I1
sVde5gu9i
p543
I1
sVczxzzhr
p544
I4
sVcypmi8t
p545
I1
sVdpq1q1q
p546
I9
sVd1by5wp
p547
I1
sVd7qeoil
p548
I1
sVdoxlu5j
p549
I2
sVdbtw0yx
p550
I1
sVd1rvpph
p551
I3
sVdjrl0j2
p552
I1
sVd9fbtie
p553
I1
sVdb9g80j
p554
I1
sVd964op5
p555
I1
sVdb241b1
p556
I1
sVdjajoqg
p557
I2
sVd800ssh
p558
I2
sVdhmyuvd
p559
I1
sVdeb7fgl
p560
I1
sVd1o3k1c
p561
I2
sVdnzwin2
p562
I5
sVdgp3mri
p563
I1
sVdog08mv
p564
I1
sVdpcbor3
p565
I1
sVddd6njq
p566
I1
sVdak0e7s
p567
I1
sVdid1hs2
p568
I2
sVcypslbv
p569
I1
sVdcjigwl
p570
I5
sVdav31wb
p571
I1
sVdod31u3
p572
I2
sVd3b5is0
p573
I1
sVdqas9mx
p574
I1
sVdefs9ca
p575
I1
sVdfxc7lv
p576
I1
sVd2adwdf
p577
I1
sVdj5kbzg
p578
I1
sVdr0i9bf
p579
I1
sVdbnzkm8
p580
I2
sVdhdhhsy
p581
I1
sVdd71c8u
p582
I1
sVd1qc4g0
p583
I1
sVdsea4h3
p584
I1
sVdseuqnt
p585
I1
sVd4f9dvm
p586
I1
sVdb0wetv
p587
I1
sVdkazlek
p588
I1
sVdc71pgh
p589
I1
sVdde1t4e
p590
I1
sVdqgvhf7
p591
I2
sVdfatsrj
p592
I3
sVd6c74vp
p593
I1
sVdrmzdmn
p594
I3
sVcyug8rh
p595
I1
sVdj8ag0a
p596
I1
sVdjpzslq
p597
I2
sVdew734g
p598
I1
sVdd3s5ec
p599
I1
sVdn649b0
p600
I1
sVd73ek42
p601
I1
sVdn9ofxs
p602
I1
sVdgn9ffy
p603
I1
sVcywl84g
p604
I1
sVdrza478
p605
I1
sVdac5tzx
p606
I1
sVczzuxnn
p607
I1
sVdebc0oa
p608
I1
sVddi1faj
p609
I1
sVd0ielnw
p610
I2
sVd53s5yj
p611
I1
sVd7k7dbi
p612
I1
sVdiapjtz
p613
I1
sVddoosoi
p614
I1
sVdf4fxp0
p615
I1
sVcyjuw6r
p616
I1
sVdgwezb0
p617
I1
sVdivx310
p618
I1
sVddi7w9a
p619
I1
sVdetqbmo
p620
I1
sVdb8l8hy
p621
I1
sVda2u2uv
p622
I1
sVcz0gmy5
p623
I2
sVdkyhmkf
p624
I1
sVdisigbm
p625
I1
sVddyztws
p626
I2
sVdmozpk3
p627
I1
sVdcivthg
p628
I1
sVcz93m20
p629
I1
sVcytsl1i
p630
I1
sVd4zzbs6
p631
I1
sVd0tdob5
p632
I1
sVczardpy
p633
I1
sVd0yipx0
p634
I1
sVdnfj6y2
p635
I1
sVcyx8kbv
p636
I1
sVczrjplg
p637
I1
sVd94ebkd
p638
I1
sVdpwa7q3
p639
I2
sVdb573vv
p640
I1
sVd308gkl
p641
I1
sVdhebg9u
p642
I1
sVdcfas31
p643
I2
sVcyvdsf4
p644
I1
sVd3yibys
p645
I2
sVdeuebkz
p646
I1
sVd1con1k
p647
I1
sVddiz7tf
p648
I1
sVdpt7rzt
p649
I1
sVdqh8vds
p650
I1
sVdoaixah
p651
I1
sVdjvdsby
p652
I1
sVcyii1ez
p653
I1
sVdn22zhq
p654
I1
sVdodqqte
p655
I1
sVd3vrc5t
p656
I1
sVdtigpvh
p657
I4
sVdblqg74
p658
I1
sVdi3hbcb
p659
I1
sVd0ku12m
p660
I1
sVdpe1rao
p661
I1
sVdhpcnh2
p662
I1
sVd2kttx1
p663
I1
sVd9c3cqs
p664
I1
sVd8anqeu
p665
I1
sVdaylix8
p666
I1
sVcz4rvig
p667
I2
sVdjze1wd
p668
I1
sVd8sv81a
p669
I1
sVd8p1enx
p670
I2
sVdsn2l4b
p671
I1
sVdjsibmq
p672
I4
sVdpipby5
p673
I1
sVdawjpwa
p674
I1
sVdcedon8
p675
I1
sVdeu4zwf
p676
I1
sVdnd3hec
p677
I1
sVdrkt0h5
p678
I1
sVdc0tcez
p679
I1
sVcyjsoww
p680
I1
sVdbjgops
p681
I1
sVddd1ohz
p682
I1
sVdnkyr0o
p683
I1
sVdhtqia1
p684
I2
sVd1vlq50
p685
I1
sVd07lm36
p686
I1
sVdr6jzq2
p687
I1
sVdmphjnx
p688
I1
sVd55c5na
p689
I1
sVdbbc77s
p690
I2
sVd467qc8
p691
I6
sVda5x469
p692
I1
sVdeew3li
p693
I1
sVdbwjcw9
p694
I1
sVcz06mty
p695
I1
sVd1kyis0
p696
I1
sVddrruu1
p697
I1
sVd3wlcbu
p698
I1
sVd1g2llz
p699
I1
sVd639l1w
p700
I1
sVczydmry
p701
I1
sVdmolssn
p702
I1
sVd620tqq
p703
I1
sVd0wvyfi
p704
I1
sVdgfgpzw
p705
I1
sVd0o9s4k
p706
I1
sVdtdx9zy
p707
I1
sVd2dyjj6
p708
I3
sVdee7p9g
p709
I1
sVczn3033
p710
I1
sVdjisr21
p711
I1
sVddwr7ni
p712
I1
sVd481vqm
p713
I1
sVdd3doej
p714
I1
sVday1ney
p715
I1
sVd636ebv
p716
I1
sVdtjk0m7
p717
I1
sVd2cd5au
p718
I3
sVdbmztxt
p719
I1
sVcypbdey
p720
I1
sVdb3ld8j
p721
I1
sVdi8ya72
p722
I1
sVdhp3v99
p723
I1
sVdmnfr0c
p724
I1
sVcyyhvo1
p725
I1
sVda5ncnp
p726
I1
sVddfo9pb
p727
I1
sVdccenem
p728
I1
sVderh2j0
p729
I1
sVd3pgvtr
p730
I1
sVdn5wlaf
p731
I1
sVdrolda2
p732
I1
sVdghllz1
p733
I1
sVd0pwx41
p734
I2
sVd166bkn
p735
I1
sVd8ek5x0
p736
I1
sVd0ay6gc
p737
I1
sVd2u6c0s
p738
I1
sVd2sa0f4
p739
I3
sVczztfzt
p740
I1
sVd59ki1o
p741
I1
sVd4k1a33
p742
I1
sVdprro1n
p743
I2
sVdhm80ih
p744
I1
sVd0y6ira
p745
I1
sVd6nupix
p746
I1
sVd91derl
p747
I3
sVd6rms4i
p748
I1
sVdf4oy11
p749
I1
sVcz3nalz
p750
I2
sVdkyiljf
p751
I1
sVdbr4guh
p752
I2
sVdq9apbq
p753
I1
sVd8p8che
p754
I1
sVdklstue
p755
I1
sVd7qs7eb
p756
I1
sVdghnqb5
p757
I1
sVcz0lfn9
p758
I1
sVd2n2tvo
p759
I1
sVdbsdxyx
p760
I4
sVd0qp5g0
p761
I1
sVdqzg211
p762
I1
sVdgvfhau
p763
I1
sVd1fyf6h
p764
I1
sVdcixsl2
p765
I1
sVd66bn39
p766
I1
sVdh2dkmk
p767
I1
sVdgwf1wh
p768
I1
sVdj4r53y
p769
I2
sVdpv9h6b
p770
I1
sVd03kq31
p771
I1
sVd718e5r
p772
I1
sVdhrxy8l
p773
I1
sVd655gq2
p774
I1
sVdb7tg0o
p775
I1
sVd2mn3kw
p776
I1
sVd254imn
p777
I1
sVd4iwwh6
p778
I1
sVdavnpwf
p779
I1
sVcz677us
p780
I2
sVdcg7qkw
p781
I1
sVdj36g8f
p782
I1
sVdorox9h
p783
I1
sVd3fqnf0
p784
I1
sVdqbu6fy
p785
I1
sVdfhu22w
p786
I1
sVd93iqqb
p787
I1
sVd7dr3ss
p788
I1
sVdgrtei5
p789
I1
sVd07pqnz
p790
I1
sVdkghzo4
p791
I2
sVdpob00t
p792
I1
sVdgo45ii
p793
I1
sVdnxkjpt
p794
I1
sVd2o46wg
p795
I1
sVdcjw6c9
p796
I1
sVdd7i1h3
p797
I1
sVd35phgh
p798
I1
sVcyj4oi2
p799
I1
sVdgjdw8u
p800
I1
sVd9fyii5
p801
I1
sVdboqbw5
p802
I1
sVd14q5bi
p803
I3
sVd7embtl
p804
I1
sVdiuiw2m
p805
I1
sVdk80la0
p806
I1
sVczqk9zf
p807
I1
sVdcamphf
p808
I1
sVd043bh2
p809
I3
sVczz08es
p810
I2
sVdfvsoso
p811
I1
sVd8wdpux
p812
I1
sVcypuq88
p813
I2
sVd5sqpx7
p814
I1
sVdi3yer6
p815
I1
sVdbpd6t2
p816
I1
sVdkpe8hz
p817
I1
sVds194nl
p818
I1
sVda7gark
p819
I1
sVdnsc8w7
p820
I1
sVcz1jruu
p821
I1
sVd9akgec
p822
I1
sVdspbpep
p823
I1
sVdbybj2p
p824
I1
sVd2551l2
p825
I1
sVd3q4c9f
p826
I1
sVdhc2fhg
p827
I2
sVdfajs23
p828
I1
sVd9iin0u
p829
I1
sVdcbijiq
p830
I1
sVdh1aiks
p831
I1
sVdjkpqt0
p832
I1
sVdrsrfcu
p833
I1
sVdgd83d8
p834
I2
sVdd6wjhj
p835
I1
sVd5swy54
p836
I1
sVdgw1kmd
p837
I1
sVdmxsdi9
p838
I2
sVd5uw9r1
p839
I1
sVd2a5o9a
p840
I1
sVdkfbxdp
p841
I1
sVczl55oz
p842
I1
sVd2r40rq
p843
I1
sVdruppo4
p844
I1
sVd8ymoqg
p845
I2
sVd43ezme
p846
I3
sVdklefpk
p847
I1
sVd115uzj
p848
I1
sVdpv6vc3
p849
I1
sVd4qibte
p850
I4
sVd7suhro
p851
I1
sVddwp02n
p852
I1
sVdqtsn1f
p853
I1
sVd0k9kck
p854
I1
sVcypp594
p855
I1
sVczjxyl4
p856
I1
sVde5x5iq
p857
I1
sVd4l4e3l
p858
I1
sVdfgqcsc
p859
I1
sVd7nwgh4
p860
I2
sVd080mcl
p861
I1
sVczs745s
p862
I1
sVdi0r0vq
p863
I1
sVd6p7jju
p864
I1
sVd2zhegv
p865
I3
sVd2870p5
p866
I1
sVdmndo7i
p867
I1
sVdi13921
p868
I2
sVdtddm3l
p869
I1
sVcyvt7ni
p870
I1
sVd1ctujo
p871
I2
sVd4730k9
p872
I1
sVdi8wjc0
p873
I1
sVd0l20ok
p874
I1
sVd41om2a
p875
I1
sVdawprs1
p876
I1
sVdgj8e36
p877
I1
sVd1ny98f
p878
I1
sVdfdhfwq
p879
I1
sVdt5r20r
p880
I1
sVdkge0q8
p881
I2
sVd1t8gc8
p882
I1
sVcz24vc4
p883
I1
sVczoehze
p884
I1
sVcyp4xet
p885
I1
sVd7sr25s
p886
I1
sVdnubiwp
p887
I1
sVdivvi4j
p888
I1
sVd0y6k3z
p889
I1
sVd4c1uva
p890
I1
sVd9u4wk9
p891
I1
sVdegss2h
p892
I2
sVd0rqsx5
p893
I1
sVdbgiucu
p894
I1
sVdp9uqdi
p895
I1
sVdsbw1u1
p896
I1
sVdruc7fn
p897
I1
sVd8dirip
p898
I1
sVdhxdkj1
p899
I1
sVd5h0prp
p900
I1
sVdmle5yb
p901
I1
sVdbsmcc7
p902
I1
sVdaqfe0w
p903
I1
sVddzkn27
p904
I1
sVd6mfxlz
p905
I1
sVd4h9zpk
p906
I1
sVdjl37xu
p907
I2
sVdpkq1ug
p908
I1
sVdqdt3fa
p909
I1
sVd0fogjg
p910
I1
sVdknpa4f
p911
I1
sVdbl66ug
p912
I1
sVdn8p4jh
p913
I3
sVd55gs9m
p914
I2
sVdgbu7vl
p915
I1
sVd5m3k3q
p916
I1
sVdg5ahic
p917
I1
sVd2a8qmg
p918
I1
sVd2p6p7e
p919
I1
sVdf6wr7e
p920
I1
sVdh2sapg
p921
I2
sVdn3x17h
p922
I2
sVd4ia3fs
p923
I1
sVd9kvwcn
p924
I1
sVd2lu9s0
p925
I1
sVdjzrve4
p926
I1
sVdsp5jbc
p927
I1
sVdr93101
p928
I1
sVdsvkqic
p929
I1
sVd2xr25s
p930
I1
sVdel7znu
p931
I1
sVddojnhv
p932
I1
sVd01318l
p933
I1
sVdddy2h9
p934
I1
sVdcaw5sv
p935
I1
sVd92f2rw
p936
I1
sVdnpi7rc
p937
I1
sVdo479lg
p938
I1
sVdgs3mad
p939
I2
sVd2fb72w
p940
I2
sVcyrp8a2
p941
I1
sVdf5izwi
p942
I1
sVd0241wg
p943
I1
sVdh7tqxz
p944
I1
sVd1zle5p
p945
I1
sVd2w65th
p946
I1
sVd03r0ij
p947
I1
sVdn3bp71
p948
I1
sVdoxrd1r
p949
I1
sVdb4t7gt
p950
I1
sVd72t9he
p951
I1
sVddcuvzm
p952
I1
sVdrdvm3y
p953
I1
sVdoi6nrd
p954
I1
sVczzd4zd
p955
I1
sVd8ppcbw
p956
I1
sVdhbrj1l
p957
I1
sVd97fgqz
p958
I1
sVd4phqqp
p959
I1
sVday1tvu
p960
I2
sVdrq344b
p961
I1
sVd86uuad
p962
I1
sVdnx5rd9
p963
I1
sVczk0kyf
p964
I1
sVd1kuiop
p965
I1
sVdeush9x
p966
I1
sVd72hjji
p967
I1
sVdp1rwot
p968
I1
sVd90j9jm
p969
I1
sVddwe8r6
p970
I1
sVd2i8t4v
p971
I1
sVdbk4fgn
p972
I1
sVdoti4xr
p973
I1
sVd7xv50p
p974
I1
sVd8265b3
p975
I1
sVdkoo91r
p976
I1
sVdq8c05d
p977
I1
sVcznoo37
p978
I1
sVds24y40
p979
I2
sVdrc0tfn
p980
I2
sVdanq7hm
p981
I1
sVdgoo57h
p982
I1
sVdf0520f
p983
I1
sVdhsvu9w
p984
I1
sVcyncjl2
p985
I1
sVd5b3w9b
p986
I1
sVdrrsems
p987
I1
sVdgze897
p988
I1
sVd6552zz
p989
I2
sVdi4o2gd
p990
I1
sVczqcs4n
p991
I1
sVd8ceri2
p992
I1
sVd4pr8su
p993
I1
sVczvkbuj
p994
I1
sVd5yk3dt
p995
I2
sVcyp5gxr
p996
I1
sVczqm2z6
p997
I2
sVd4zmq20
p998
I1
sVdbec12f
p999
I5
sVde9e8ny
p1000
I1
sVd6hc5hc
p1001
I1
sVczrgroa
p1002
I1
sVd4zibw5
p1003
I1
sVdhjm1ke
p1004
I1
sVd1r4okz
p1005
I1
sVd7cuvkt
p1006
I1
sVdbpp96h
p1007
I1
sVd14y62t
p1008
I1
sVdixyzac
p1009
I1
sVd42uovv
p1010
I1
sVd46djrw
p1011
I1
sVd17rgbc
p1012
I1
sVd6j9ab7
p1013
I1
sVdomf5b7
p1014
I1
sVdhz47e3
p1015
I2
sVdcufi98
p1016
I1
sVddut6rf
p1017
I1
sVd7kh85x
p1018
I1
sVcz28x5b
p1019
I1
sVdi0ky2m
p1020
I1
sVdgwig54
p1021
I2
sVdiq5g7g
p1022
I1
sVd0tjzd7
p1023
I1
sVd22px8f
p1024
I1
sVdoqbxqb
p1025
I2
sVd89m6ow
p1026
I1
sVd1b4ktv
p1027
I1
sVdefqnv1
p1028
I1
sVdr0e99v
p1029
I1
sVczfgubm
p1030
I1
sVdiaypwl
p1031
I1
sVde9coyt
p1032
I1
sVdnvacbh
p1033
I1
sVd373x2p
p1034
I1
sVd9bs0xx
p1035
I1
sVd5ntuzy
p1036
I1
sVdf1and4
p1037
I2
sVdn6t7t0
p1038
I1
sVdir1qs6
p1039
I2
sVdqcyg9k
p1040
I1
sVd71fpgo
p1041
I1
sVdr0cigs
p1042
I1
sVd3scc5v
p1043
I1
sVczarwpq
p1044
I1
sVdh8bun7
p1045
I1
sVdbddtzp
p1046
I1
sVd6ykm01
p1047
I1
sVdakkprx
p1048
I1
sVdtf3q1k
p1049
I1
sVdrneee0
p1050
I1
sVdatu0ma
p1051
I1
sVd4xm31f
p1052
I1
sVdaogakm
p1053
I1
sVd4htz09
p1054
I1
sVdb0m5sk
p1055
I1
sVdh0z5gs
p1056
I1
sVdppv3gf
p1057
I1
sVdg2ehzq
p1058
I1
sVdjz5r39
p1059
I1
sVdpe3q5u
p1060
I1
sVdjokq5p
p1061
I2
sVd07ja8c
p1062
I1
sVcyvfap4
p1063
I1
sVd5m64nr
p1064
I1
sVdsa8u3n
p1065
I1
sVd1xaaka
p1066
I2
sVczk054c
p1067
I1
sVd3efnyv
p1068
I1
sVdcy8mql
p1069
I1
sVd5qbzu8
p1070
I1
sVcyp194j
p1071
I1
sVdsfiq0b
p1072
I1
sVdn6frle
p1073
I1
sVczccm5o
p1074
I1
sVdf7ytcb
p1075
I1
sVcyqt0f7
p1076
I1
sVdn1gkt6
p1077
I2
sVcysxuon
p1078
I1
sVd7zir4y
p1079
I1
sVdmfxmd2
p1080
I1
sVdjqnilg
p1081
I1
sVd4kevom
p1082
I1
sVd8ow3uu
p1083
I1
sVdfyygo9
p1084
I1
sVdo38oyq
p1085
I3
sVdebajp1
p1086
I1
sVdkilocd
p1087
I1
sVdf6ss23
p1088
I1
sVdeuhpcl
p1089
I1
sVdf2ihja
p1090
I2
sVd803yfd
p1091
I1
sVd3orfto
p1092
I1
sVdafc69a
p1093
I1
sVdg008tj
p1094
I2
sVdosj0mv
p1095
I1
sVd6czhrw
p1096
I1
sVdbvzqbb
p1097
I1
sVdrmphwk
p1098
I1
sVdii6n4k
p1099
I1
sVd8837k9
p1100
I1
sVd9gdg3k
p1101
I1
sVd4cpcb2
p1102
I1
sVdnkk10n
p1103
I1
sVd1hjbol
p1104
I1
sVd9bn41d
p1105
I1
sVds3rl4h
p1106
I1
sVdmh0t62
p1107
I1
sVdc9ftr9
p1108
I1
sVdb4bea2
p1109
I1
sVdd4fg4d
p1110
I1
sVdntll6c
p1111
I2
sVdnv7cqc
p1112
I1
sVd8d0rzs
p1113
I1
sVdkk7t9t
p1114
I2
sVd2d8xac
p1115
I1
sVdr6fviz
p1116
I1
sVd6yk5pw
p1117
I3
sVdgrl4es
p1118
I1
sVdtct81r
p1119
I1
sVd0i41mr
p1120
I1
sVcyuvxzu
p1121
I1
sVdde1eck
p1122
I1
sVdtgdpk2
p1123
I1
sVcyojc56
p1124
I1
sVdoey0bt
p1125
I1
sVdagwcz9
p1126
I2
sVdilia09
p1127
I1
sVdmqb4m7
p1128
I1
sVd8nepbe
p1129
I1
sVds5fyaz
p1130
I1
sVdhi1jmg
p1131
I1
sVd04odae
p1132
I1
sVdf121ws
p1133
I2
sVd9kmfr0
p1134
I1
sVdkb625c
p1135
I1
sVdcjv05o
p1136
I1
sVd2a5ll7
p1137
I1
sVdenxbyf
p1138
I1
sVd8jbyaa
p1139
I1
sVdstyrux
p1140
I1
sVd27pafc
p1141
I1
sVd5i2zq5
p1142
I1
sVd3z5jp1
p1143
I1
sVdfe4iiw
p1144
I1
sVd10fuj3
p1145
I2
sVd5rhh7d
p1146
I1
sVd7kx6sz
p1147
I1
sVdmykweu
p1148
I1
sVdatmd56
p1149
I1
sVdex5n7k
p1150
I1
sVdfxnm8b
p1151
I1
sVdi05xj2
p1152
I1
sVdmpjjmi
p1153
I1
sVd9xx88g
p1154
I1
sVds3jx9c
p1155
I1
sVdsaohxj
p1156
I1
sVdfqk5ed
p1157
I1
sVd0bezcx
p1158
I1
sVd7felgg
p1159
I1
sVd2t3xge
p1160
I1
sVdatjyul
p1161
I1
sVdmvjh9i
p1162
I1
sVdem9v10
p1163
I1
sVd0zckq8
p1164
I1
sVdkopy0j
p1165
I1
sVds01pwq
p1166
I1
sVd1xrqq8
p1167
I1
sVdnw92y1
p1168
I1
sVd6datkt
p1169
I1
sVd7q140m
p1170
I1
sVdgmnqza
p1171
I1
sVdkezg7t
p1172
I1
sVcyji820
p1173
I1
sVd5hxjl8
p1174
I1
sVd5v0rfu
p1175
I1
sVcznkzzu
p1176
I1
sVd7bjqau
p1177
I9
sVd6hcx19
p1178
I7
sVd64d4nx
p1179
I1
sVdavwizh
p1180
I2
sVd15wfkj
p1181
I2
sVdafxj3s
p1182
I1
sVdgi0wqp
p1183
I1
sVdqn21vr
p1184
I3
sVdd434wu
p1185
I2
sVdg4l645
p1186
I1
sVd2jq186
p1187
I1
sVd4iysxw
p1188
I1
sVdt2riqj
p1189
I1
sVd4kpm3a
p1190
I1
sVd9v4ras
p1191
I1
sVdggd2ba
p1192
I1
sVdgkojnp
p1193
I1
sVdbe5nnw
p1194
I1
sVd3iprud
p1195
I1
sVdbkz1l0
p1196
I1
sVd0ycfqb
p1197
I1
sVd1i2dun
p1198
I1
sVdnl261u
p1199
I1
sVd8o465x
p1200
I1
sVdb7vja1
p1201
I1
sVd8l9zih
p1202
I1
sVd2vej0t
p1203
I2
sVdaa6d84
p1204
I1
sVdey58ni
p1205
I1
sVd743uz4
p1206
I1
sVdq0lzfa
p1207
I1
sVd6989f9
p1208
I1
sVdbe9dcy
p1209
I1
sVcyvxcxv
p1210
I1
sVd1zf7vd
p1211
I1
sVdb0888p
p1212
I1
sVd4pugv5
p1213
I1
sVdnftaov
p1214
I1
sVdjwqc4q
p1215
I6
sVd57naqv
p1216
I1
sVd3yaopy
p1217
I2
sVd4rhnze
p1218
I2
sVdpcfs8i
p1219
I1
sVdmg2cda
p1220
I1
sVd4zlrkw
p1221
I2
sVd5mybc7
p1222
I1
sVdam8qc6
p1223
I1
sVd04ml4i
p1224
I1
sVdgcztxd
p1225
I3
sVdenao03
p1226
I1
sVdan80v1
p1227
I1
sVde72kct
p1228
I1
sVdaj9i8y
p1229
I3
sVd55qbhz
p1230
I1
sVdiy6e91
p1231
I1
sVd8aplfa
p1232
I1
sVd3du13r
p1233
I1
sVdd7ak7a
p1234
I1
sVczjofmc
p1235
I1
sVdegxrq7
p1236
I1
sVd8oc6jj
p1237
I1
sVd25h8q7
p1238
I1
sVd4vg5lt
p1239
I1
sVd7w7m9t
p1240
I1
sVd8cl299
p1241
I1
sVd9rdml6
p1242
I1
sVdbf4wi6
p1243
I2
sVdav1dxp
p1244
I2
sVdce8qp8
p1245
I2
sVd45l0de
p1246
I1
sVdfaoky5
p1247
I1
sVdbeaxx7
p1248
I1
sVdft654d
p1249
I1
sVdkyx8r9
p1250
I1
sVd3c88vi
p1251
I1
sVd4ea5ux
p1252
I1
sVdf8t5he
p1253
I1
sVcyvlbqm
p1254
I1
sVdd7oaba
p1255
I1
sVdsi9a87
p1256
I1
sVdhlfhq7
p1257
I1
sVdhostgs
p1258
I1
sVdckzxi3
p1259
I1
sVd4d3622
p1260
I1
sVdkm0xp1
p1261
I1
sVd76dlst
p1262
I1
sVdcvg49n
p1263
I1
sVd5p2qut
p1264
I1
sVcyi6uq8
p1265
I1
sVd6prvln
p1266
I1
sVdqf9bri
p1267
I2
sVd5qygsf
p1268
I2
sVd0epk9e
p1269
I1
sVdiy1ii3
p1270
I1
sVdjx2qel
p1271
I2
sVdjhfvxs
p1272
I1
sVd74sveh
p1273
I1
sVdb7h2qt
p1274
I3
sVdhwt70s
p1275
I1
sVdah0ibh
p1276
I1
sVdqdvr0r
p1277
I1
sVd65ro2i
p1278
I1
sVczpsws2
p1279
I1
sVdelzzw0
p1280
I2
sVdsp0959
p1281
I2
sVdhnuoo3
p1282
I1
sVdaehi5g
p1283
I1
sVdn5afci
p1284
I1
sVdb7v217
p1285
I1
sVd1x1j4z
p1286
I1
sVd642rjw
p1287
I1
sVdk3hqe5
p1288
I1
sVd27t88m
p1289
I1
sVdilz5ab
p1290
I1
sVd13goov
p1291
I1
sVda2086c
p1292
I1
sVddoeuzh
p1293
I2
sVd6875c3
p1294
I1
sVdiwx7mu
p1295
I1
sVdsdncy0
p1296
I1
sVdaa8ut9
p1297
I1
sVczymgry
p1298
I2
sVdglzzxs
p1299
I1
sVd6jb2la
p1300
I1
sVdj6r0x7
p1301
I1
sVdr1lclj
p1302
I3
sVd3ik23u
p1303
I1
sVd9fq338
p1304
I1
sVdeup647
p1305
I1
sVcymuoz1
p1306
I1
sVdcqvvcf
p1307
I1
sVdj4xvwq
p1308
I1
sVdt3dudu
p1309
I2
sVd0ujbep
p1310
I1
sVdfm1yr0
p1311
I2
sVd2svunn
p1312
I1
sVdceezqg
p1313
I1
sVdmrrz1r
p1314
I1
sVd2swvpp
p1315
I1
sVcz25s06
p1316
I1
sVd24kfaj
p1317
I1
sVd1iualv
p1318
I1
sVdcbi038
p1319
I1
sVdgm0r3d
p1320
I1
sVdgpqulu
p1321
I1
sVd8cpox5
p1322
I1
sVczk2jev
p1323
I1
sVd0m1h04
p1324
I1
sVd9dns29
p1325
I1
sVdmiem7y
p1326
I1
sVdeu908z
p1327
I1
sVdc2hz73
p1328
I1
sVdjmj202
p1329
I2
sVczvlfkt
p1330
I1
sVdsn9an4
p1331
I1
sVdhwcylv
p1332
I1
sVd3o32rj
p1333
I2
sVczmozpo
p1334
I1
sVd38hgnk
p1335
I2
sVds3wxbw
p1336
I1
sVdppuihe
p1337
I2
sVcywir1g
p1338
I1
sVd51jovm
p1339
I1
sVd6qsikm
p1340
I1
sVdd3dwsl
p1341
I2
sVcz0h5dh
p1342
I2
sVdcacacj
p1343
I4
sVczpjc1u
p1344
I1
sVdhaspsj
p1345
I1
sVd3nt3ci
p1346
I1
sVdcm9gtc
p1347
I2
sVd0j2kx3
p1348
I1
sVdtih3cw
p1349
I1
sVd2qur7m
p1350
I1
sVdf5wxj5
p1351
I1
sVd2pwirt
p1352
I1
sVdah61oz
p1353
I1
sVd53inkx
p1354
I1
sVd8gjwb2
p1355
I1
sVdfhkldb
p1356
I1
sVd1e8f79
p1357
I1
sVdny2ask
p1358
I1
sVd808gsi
p1359
I1
sVdblp9m0
p1360
I1
sVdbw9f5x
p1361
I1
sVdhpujnv
p1362
I1
sVd2dqych
p1363
I1
sVdaa1vpo
p1364
I3
sVczvbbzr
p1365
I1
sVd1xo1vo
p1366
I1
sVd0snkxw
p1367
I3
sVdhp6gf9
p1368
I1
sVdiqbvdi
p1369
I1
sVd9fetbw
p1370
I1
sVdb0rwf3
p1371
I1
sVdq4o1sm
p1372
I1
sVdt86xfm
p1373
I4
sVdkqiawg
p1374
I1
sVd9qjv07
p1375
I1
sVdio22w1
p1376
I1
sVd9d7rit
p1377
I1
sVd9my8dz
p1378
I1
sVd9uk07e
p1379
I1
sVdpdj9c8
p1380
I1
sVdfzl8kc
p1381
I1
sVdoawg8v
p1382
I1
sVdg8pnjv
p1383
I1
sVd5nnpba
p1384
I1
sVd3qmpub
p1385
I1
sVdrlma5n
p1386
I2
sVd6pjlmw
p1387
I1
sVd55cgza
p1388
I1
sVd8jg1a2
p1389
I1
sVdos78ks
p1390
I1
sVdcc072o
p1391
I2
sVd3tqxvo
p1392
I1
sVddhlyql
p1393
I1
sVd5vo179
p1394
I2
sVdc8xpev
p1395
I1
sVdd900vp
p1396
I1
sVdd5b3j5
p1397
I1
sVdax2ysy
p1398
I1
sVdag98n6
p1399
I1
sVdihmfzb
p1400
I1
sVdqya6qf
p1401
I1
sVdkp3xl6
p1402
I1
sVdhrvxb2
p1403
I1
sVd09s8qi
p1404
I1
sVdh9oiwn
p1405
I1
sVdmopx4q
p1406
I1
sVd9vtath
p1407
I3
sVd64sihq
p1408
I1
sVdn26p1v
p1409
I1
sVdrygbzm
p1410
I1
sVdc50a29
p1411
I1
sVd1lvmfj
p1412
I1
sVd1sx9eq
p1413
I1
sVd6wzcxn
p1414
I2
sVdcf1z98
p1415
I1
sVd1t48oj
p1416
I1
sVd8ow0hx
p1417
I1
sVd0wso6v
p1418
I1
sVdn49gms
p1419
I1
sVcyik9wc
p1420
I1
sVczfxsjl
p1421
I2
sVcynaiht
p1422
I1
sVdmtintm
p1423
I2
sVd9ke8sw
p1424
I1
sVdd3twet
p1425
I1
sVdii3hv8
p1426
I1
sVd0zcp0o
p1427
I1
sVd6cjs9t
p1428
I1
sVcz0xqiz
p1429
I1
sVdcog6qr
p1430
I1
sVd4il4dj
p1431
I1
sVds1itl9
p1432
I1
sVdg8xz3r
p1433
I2
sVdfhkcnq
p1434
I1
sVdjxy1uj
p1435
I1
sVcyl6ad2
p1436
I1
sVde755hu
p1437
I1
sVd4ke7zd
p1438
I1
sVddt8lgf
p1439
I1
sVdj4929j
p1440
I2
sVdat27qq
p1441
I2
sVdb6tn0y
p1442
I2
sVd14qpi5
p1443
I1
sVd5bhli6
p1444
I1
sVds9g04f
p1445
I1
sVdmoy8m2
p1446
I1
sVdt4mbek
p1447
I2
sVdnqplba
p1448
I1
sVdmq3mwl
p1449
I1
sVdth1uag
p1450
I1
sVd7ael58
p1451
I1
sVdnxhe8x
p1452
I1
sVczit34v
p1453
I1
sVdmrowkk
p1454
I3
sVd45pvbf
p1455
I1
sVd27urci
p1456
I1
sVd3mtnyl
p1457
I1
sVdnsiusc
p1458
I1
sVdqc7qlz
p1459
I1
sVdfrth4i
p1460
I1
sVdkisrgz
p1461
I1
sVdt38ljj
p1462
I1
sVdql3w6j
p1463
I1
sVdc62r4f
p1464
I1
sVdi66oqa
p1465
I1
sVdgn7noz
p1466
I1
sVd2o94wy
p1467
I1
sVczir73t
p1468
I1
sVczdkqpo
p1469
I1
sVdc1op5s
p1470
I1
sVdf9ym1c
p1471
I2
sVdehbtk6
p1472
I1
sVcyi3gc3
p1473
I1
sVdi0u6cc
p1474
I1
sVdgy8g4k
p1475
I1
sVddlr94a
p1476
I2
sVdk2afj0
p1477
I1
sVd26ozw1
p1478
I1
sVdbprtpa
p1479
I2
sVdrz6i1q
p1480
I1
sVczs03hi
p1481
I1
sVdefq9oe
p1482
I1
sVdhx9o4w
p1483
I1
sVd0zka26
p1484
I2
sVd5umd5g
p1485
I1
sVcyxj3ek
p1486
I4
sVdru8rk0
p1487
I1
sVddpm29i
p1488
I1
sVcyoxbht
p1489
I1
sVd5ca8t6
p1490
I1
sVdkm4vu1
p1491
I1
sVd74xqrt
p1492
I1
sVdsdi08s
p1493
I1
sVd6n5m55
p1494
I1
sVd49nzb4
p1495
I1
sVdjg0exz
p1496
I1
sVd85kfkb
p1497
I2
sVddsxtqv
p1498
I1
sVd3cicrs
p1499
I1
sVcyz2s70
p1500
I1
sVcyli8aa
p1501
I1
sVdkn85q0
p1502
I1
sVdbrg9lv
p1503
I1
sVd8suant
p1504
I1
sVczadewp
p1505
I1
sVdjkgpm8
p1506
I1
sVdiszukj
p1507
I1
sVdg2jbg7
p1508
I1
sVd2lgbu2
p1509
I1
sVdnjwcbw
p1510
I1
sVdakrvaf
p1511
I1
sVd1stpg3
p1512
I1
sVdh8v741
p1513
I1
sVdmz6ps3
p1514
I1
sVd3s2lo2
p1515
I1
sVdaak6vy
p1516
I1
sVcziwmo7
p1517
I1
sVdbegidf
p1518
I1
sVdagin6g
p1519
I1
sVdcqafo4
p1520
I1
sVd0hwmoh
p1521
I1
sVdgoo0ge
p1522
I5
sVdfnq7sx
p1523
I2
sVd3bkn5e
p1524
I3
sVd39suz3
p1525
I1
sVd0xsos3
p1526
I1
sVdnozgxf
p1527
I1
sVd462amc
p1528
I2
sVd2bayq5
p1529
I1
sVdoi52c3
p1530
I1
sVd4rdbsk
p1531
I1
sVdr2ufk4
p1532
I1
sVdhn5vkj
p1533
I1
sVd79iyp0
p1534
I1
sVdsnss85
p1535
I1
sVd4a8mgf
p1536
I1
sVd1s7tba
p1537
I1
sVd93j17w
p1538
I1
sVdt0hgug
p1539
I1
sVd1yhn8c
p1540
I1
sVdo8qzw0
p1541
I2
sVdio12i1
p1542
I1
sVd4jug3u
p1543
I1
sVczd51xz
p1544
I1
sVdh8anc4
p1545
I1
sVd14n8py
p1546
I1
sVdec9xec
p1547
I2
sVdbbyxs0
p1548
I1
sVdeb9lt2
p1549
I1
sVdp35xcu
p1550
I1
sVdnovce3
p1551
I1
sVdt9f3ty
p1552
I1
sVdebcilm
p1553
I1
sVda0g5jg
p1554
I2
sVd406pry
p1555
I1
sVd03ybey
p1556
I1
sVd7ejxj7
p1557
I1
sVdql7a6k
p1558
I2
sVdejd3r5
p1559
I1
sVcyq3tfz
p1560
I1
sVdc6oipz
p1561
I1
sVdauprb0
p1562
I1
sVdbkrklc
p1563
I2
sVdhjq6a9
p1564
I1
sVd97cy9c
p1565
I7
sVdhyz6un
p1566
I1
sVdqg1lg9
p1567
I1
sVd9z3wfz
p1568
I1
sVdbhqnim
p1569
I1
sVd11qm1e
p1570
I1
sVdag04t7
p1571
I1
sVd8x22v7
p1572
I2
sVd97a4ne
p1573
I2
sVd5hm9lb
p1574
I1
sVd3kndug
p1575
I1
sVczug8ts
p1576
I1
sVdgpsqpm
p1577
I1
sVd57j4no
p1578
I1
sVd6pcx09
p1579
I3
sVcz0qfo5
p1580
I1
sVdhhn79u
p1581
I1
sVdb580qt
p1582
I2
sVd2oyi2b
p1583
I1
sVdhbvtla
p1584
I1
sVd5wzssa
p1585
I2
sVd5lwtwu
p1586
I1
sVdnh0q9x
p1587
I1
sVd3bwa6r
p1588
I1
sVd2o235i
p1589
I1
sVd06vqfp
p1590
I1
sVd15njhd
p1591
I1
sVd4ic0i6
p1592
I1
sVd5nmh5f
p1593
I1
sVdfpbq2a
p1594
I1
sVd236gew
p1595
I1
sVddhbuql
p1596
I1
sVd94r2zs
p1597
I1
sVd10opf5
p1598
I1
sVd0kz5f2
p1599
I1
sVcymv1qx
p1600
I1
sVdcacepm
p1601
I1
sVcz190aa
p1602
I1
sVd01kzjp
p1603
I1
sVdcbogbt
p1604
I1
sVd9hwmnk
p1605
I1
sVd7u1tjg
p1606
I1
sVd23ixi6
p1607
I1
sVd9r70m9
p1608
I1
sVd19gr1w
p1609
I1
sVdnrkckb
p1610
I1
sVd53rutt
p1611
I1
sVd04c8cj
p1612
I4
sVdfqu3hy
p1613
I1
sVdrev7ch
p1614
I1
sVdrmwmgd
p1615
I4
sVdgekiqn
p1616
I2
sVdev4wl2
p1617
I1
sVd2wec1t
p1618
I1
sVda2somi
p1619
I2
sVdo6dtn6
p1620
I1
sVd1i1h1w
p1621
I1
sVdkx5el5
p1622
I1
sVdfwfcs9
p1623
I3
sVdhtvj32
p1624
I1
sVd9ans2i
p1625
I1
sVdahssvu
p1626
I1
sVd9tg964
p1627
I2
sVdn6x8y5
p1628
I1
sVdeh3xjk
p1629
I1
sVdenl4d2
p1630
I1
sVd4tau9m
p1631
I1
sVdnz2nv1
p1632
I4
sVd3govm3
p1633
I1
sVdaoyw5u
p1634
I2
sVd5no80j
p1635
I1
sVde1zawq
p1636
I1
sVdfvp329
p1637
I1
sVdbeflo6
p1638
I2
sVd0xkhyo
p1639
I1
sVd17u8f5
p1640
I1
sVdpqvhv7
p1641
I1
sVd0nu1de
p1642
I1
sVdrtdnjz
p1643
I2
sVda536j4
p1644
I1
sVdbgrrpb
p1645
I1
sVds42l21
p1646
I1
sVd2hot05
p1647
I1
sVd0vxojn
p1648
I2
sVd1hhd4a
p1649
I1
sVdkmid7r
p1650
I1
sVd65s4x1
p1651
I2
sVdp4qa5s
p1652
I1
sVdg3onu6
p1653
I1
sVdsu8u9t
p1654
I1
sVdfv93k6
p1655
I3
sVd09jvuv
p1656
I1
sVdevd3ng
p1657
I1
sVdatvm9i
p1658
I1
sVd2k2vse
p1659
I1
sVd65jz6e
p1660
I2
sVdpxzq16
p1661
I1
sVde9v6zt
p1662
I1
sVcyruqm5
p1663
I1
sVdai5qlq
p1664
I1
sVds45sne
p1665
I2
sVd1kaf5m
p1666
I1
sVd9rtxpf
p1667
I1
sVdtibrqs
p1668
I1
sVd89h4up
p1669
I5
sVd3nys21
p1670
I1
sVdb85u1u
p1671
I1
sVdhwqu1v
p1672
I1
sVcza2il1
p1673
I1
sVd6j97en
p1674
I1
sVdmtu5ef
p1675
I1
sVdbe3vvq
p1676
I1
sVdd8gv27
p1677
I1
sVd6j865e
p1678
I1
sVd0tcppp
p1679
I1
sVdh9zn30
p1680
I1
sVde8ghkh
p1681
I1
sVdel51vd
p1682
I1
sVdjdbpk8
p1683
I1
sVdergrpf
p1684
I1
sVdqkla30
p1685
I1
sVdorku1m
p1686
I1
sVddxknw9
p1687
I1
sVdogbf7h
p1688
I1
sVdbjusi2
p1689
I1
sVd1ertc3
p1690
I1
sVd0cmu3b
p1691
I1
sVdco74l7
p1692
I1
sVdaks8su
p1693
I1
sVd3bk9wj
p1694
I1
sVd0ekehj
p1695
I1
sVdmsbbo5
p1696
I1
sVdazdsn3
p1697
I1
sVd7j6tsr
p1698
I2
sVdeabtcv
p1699
I1
sVdb36h2f
p1700
I1
sVdr7hl0w
p1701
I1
sVd7g7uyp
p1702
I1
sVdmzwlyd
p1703
I1
sVd17anf5
p1704
I1
sVd8guyjj
p1705
I1
sVdj4v7z5
p1706
I1
sVdi2g461
p1707
I1
sVdbedimr
p1708
I3
sVd17mq8u
p1709
I1
sVddd3vat
p1710
I1
sVd73fmyc
p1711
I1
sVdcilykb
p1712
I1
sVdese6e7
p1713
I1
sVcz8n4i4
p1714
I1
sVd0lv2na
p1715
I1
sVdjk4cmg
p1716
I1
sVd9fkvpw
p1717
I1
sVdju2ujh
p1718
I1
sVddndkhf
p1719
I1
sVdk9v40o
p1720
I2
sVd6d7s22
p1721
I1
sVcyjufq6
p1722
I1
sVdnbk7uu
p1723
I2
sVd3b50fr
p1724
I1
sVddzaaq3
p1725
I1
sVdc9ot9h
p1726
I1
sVdj8frl6
p1727
I1
sVd9boils
p1728
I1
sVd7cyxdi
p1729
I1
sVdgin5ar
p1730
I1
sVcz1ffmm
p1731
I1
sVd9rc48t
p1732
I1
sVddi73z6
p1733
I1
sVd80dsly
p1734
I1
sVd9nwbpb
p1735
I1
sVd8k86fd
p1736
I1
sVd6dbunm
p1737
I2
sVdelc06y
p1738
I1
sVd570ufo
p1739
I1
sVdk6w73g
p1740
I1
sVdk6h2rp
p1741
I1
sVdj5v5zc
p1742
I1
sVdin9nqc
p1743
I1
sVdspmv00
p1744
I1
sVd9ugg1f
p1745
I2
sVdqu93qe
p1746
I1
sVdknfqsj
p1747
I1
sVdos7cja
p1748
I1
sVcyk9nwz
p1749
I1
sVdel85bp
p1750
I1
sVczmdrwh
p1751
I1
sVdcry9el
p1752
I1
sVdtiihco
p1753
I1
sVdbsof5l
p1754
I3
sVdocgiri
p1755
I1
sVdddpc95
p1756
I1
sVd3s87an
p1757
I1
sVdoiyltu
p1758
I1
sVdjpzcip
p1759
I2
sVd3bgcrn
p1760
I1
sVcz2dlq7
p1761
I1
sVdho2y0c
p1762
I1
sVdjcqjgs
p1763
I1
sVdgvca2s
p1764
I1
sVdetkylo
p1765
I1
sVddqm3wh
p1766
I1
sVcys55td
p1767
I2
sVdqmtr8e
p1768
I1
sVd4a64wf
p1769
I1
sVd6htzlw
p1770
I1
sVdeiz491
p1771
I1
sVd4jioxr
p1772
I1
sVd9d1wln
p1773
I2
sVdhpnx6x
p1774
I1
sVdmya7l5
p1775
I1
sVdmm1q8y
p1776
I1
sVdnnjpld
p1777
I1
sVdbly051
p1778
I1
sVd0urugw
p1779
I1
sVdjutddq
p1780
I2
sVdqqj4ni
p1781
I1
sVd2i0q1h
p1782
I1
sVdact4f2
p1783
I1
sVd4s72yk
p1784
I3
sVd12ofsl
p1785
I1
sVd66wbc7
p1786
I1
sVdnyhn9r
p1787
I1
sVdfty6jb
p1788
I1
sVdky76yu
p1789
I1
sVd7e8d50
p1790
I2
sVdc72pxj
p1791
I2
sVdbf4hxd
p1792
I1
sVdqvglw7
p1793
I1
sVcysh32y
p1794
I1
sVdf8yoxw
p1795
I1
sVdjx69h9
p1796
I1
sVdsm847h
p1797
I1
sVdnwljkp
p1798
I1
sVd43nlxx
p1799
I1
sVdaxhv94
p1800
I1
sVd4qs0zq
p1801
I1
sVd8clt4c
p1802
I1
sVczunlpw
p1803
I1
sVd410hzq
p1804
I1
sVd6zjf4h
p1805
I1
sVdj58rk3
p1806
I1
sVdd6vnnl
p1807
I1
sVdrh6ml4
p1808
I1
sVd16il1b
p1809
I1
sVd6dpwry
p1810
I1
sVd5vilnq
p1811
I1
sVdal0wx8
p1812
I1
sVd20dmew
p1813
I1
sVd2i9cws
p1814
I1
sVczz0pf4
p1815
I1
sVdjdgsqq
p1816
I2
sVd4kldes
p1817
I1
sVdg5ssgi
p1818
I1
sVdbv9zy7
p1819
I1
sVdqsydt3
p1820
I1
sVd0ju75j
p1821
I1
sVdiu543u
p1822
I1
sVd0ish5o
p1823
I1
sVdoxgls8
p1824
I1
sVdajj9k1
p1825
I1
sVdelmw1b
p1826
I1
sVd2cawyi
p1827
I1
sVdjevfsq
p1828
I1
sVdcznw5i
p1829
I1
sVddwi6po
p1830
I1
sVd7t8cix
p1831
I1
sVdbea7nr
p1832
I1
sVd39dbx7
p1833
I2
sVd6j9tc2
p1834
I4
sVdb4747y
p1835
I1
sVdeldl9r
p1836
I1
sVdokw4ac
p1837
I1
sVd0havvz
p1838
I1
sVd85nvbs
p1839
I2
sVdd4vd9t
p1840
I1
sVd7mix1s
p1841
I2
sVcz0mqm9
p1842
I1
sVdmm6omp
p1843
I1
sVdcf28jy
p1844
I1
sVd7ibkgk
p1845
I1
sVdmuedgv
p1846
I1
sVdgx7m6x
p1847
I1
sVcyv7g15
p1848
I1
sVczc4ydo
p1849
I1
sVd3c4lqc
p1850
I1
sVd27wqv7
p1851
I2
sVd9r04eu
p1852
I2
sVdbsg5tj
p1853
I1
sVd6rv96t
p1854
I2
sVd80tm5r
p1855
I1
sVddszqih
p1856
I1
sVd2qz8ri
p1857
I1
sVdcyn4s6
p1858
I1
sVdmi9eo7
p1859
I2
sVdnzqy2n
p1860
I1
sVd713nco
p1861
I1
sVcym24na
p1862
I1
sVd7w33f8
p1863
I1
sVdhkryyb
p1864
I2
sVdgey1tx
p1865
I1
sVd7llrn2
p1866
I2
sVd481b1p
p1867
I1
sVdctxr28
p1868
I1
sVd3hf51w
p1869
I1
sVdg7wo6d
p1870
I2
sVddgo3w3
p1871
I1
sVd7swt8l
p1872
I4
sVdfghul0
p1873
I1
sVd2pw2mj
p1874
I1
sVdfd8bau
p1875
I1
sVdblusam
p1876
I1
sVd3epabx
p1877
I1
sVd684l8d
p1878
I2
sVd8owk7c
p1879
I1
sVd1z5mk0
p1880
I1
sVdff1t6y
p1881
I1
sVd61t1yo
p1882
I2
sVdgb23sf
p1883
I1
sVdp89dx1
p1884
I2
sVdopf6ab
p1885
I1
sVdedxe2a
p1886
I1
sVdc7lgi2
p1887
I1
sVd0gmnk4
p1888
I5
sVd1h0a7a
p1889
I1
sVd41lcvq
p1890
I1
sVdqkxnb8
p1891
I1
sVdnf0tsv
p1892
I1
sVdhh3vg8
p1893
I1
sVdfskuhx
p1894
I1
sVdaqnmnu
p1895
I1
sVdn1qvo7
p1896
I2
sVde703o6
p1897
I1
sVd37tqkm
p1898
I1
sVd99lrbs
p1899
I1
sVd6jhdmc
p1900
I2
sVdmr1gft
p1901
I3
sVdij3flw
p1902
I1
sVdsqh4e9
p1903
I1
sVdbt1804
p1904
I1
sVdguhbcn
p1905
I1
sVda6fsgk
p1906
I1
sVdc92ajw
p1907
I1
sVd3xpx5a
p1908
I1
sVdb8cszt
p1909
I1
sVd0639a4
p1910
I2
sVd7eagl4
p1911
I1
sVdii6h7z
p1912
I2
sVdon07ii
p1913
I1
sVd8tekdy
p1914
I1
sVd5hr2no
p1915
I1
sVdfigaku
p1916
I1
sVdexqnd1
p1917
I1
sVdhrk3oq
p1918
I1
sVdqsudh7
p1919
I1
sVdex8qi5
p1920
I1
sVdq1j087
p1921
I1
sVcyrpdeb
p1922
I1
sVdcycv5s
p1923
I1
sVdbeuboq
p1924
I1
sVdkysbqm
p1925
I1
sVdc7h4xq
p1926
I1
sVd48iud7
p1927
I1
sVdc3b1c3
p1928
I1
sVd1eud35
p1929
I1
sVdof3skz
p1930
I1
sVd9cam0e
p1931
I1
sVd62fx8c
p1932
I1
sVdqxds6c
p1933
I1
sVcythr3f
p1934
I1
sVd7epw4a
p1935
I1
sVdbw3yb3
p1936
I1
sVdbtvqqi
p1937
I1
sVd2k2qvb
p1938
I1
sVdph6p90
p1939
I2
sVdonrn1o
p1940
I1
sVcyourri
p1941
I1
sVddhao39
p1942
I1
sVdkn2wpu
p1943
I1
sVdh76lk5
p1944
I1
sVdheuqeu
p1945
I1
sVdczvyd9
p1946
I3
sVdd4n455
p1947
I1
sVd0kosb5
p1948
I1
sVdg1si74
p1949
I2
sVd6w5rgb
p1950
I1
sVcz7jgq0
p1951
I1
sVdpt3mhq
p1952
I1
sVdnl450k
p1953
I1
sVdjey4xo
p1954
I1
sVdjylett
p1955
I1
sVdt9nkwm
p1956
I1
sVd5n825r
p1957
I1
sVcykrowo
p1958
I1
sVdhpg7gi
p1959
I1
sVd7keee6
p1960
I1
sVcypic76
p1961
I1
sVd9rn4d2
p1962
I1
sVde8t87f
p1963
I1
sVdbvss2v
p1964
I1
sVddexeax
p1965
I1
sVd4sc1u2
p1966
I1
sVd6q8uzm
p1967
I2
sVcz887ss
p1968
I2
sVdila3c9
p1969
I1
sVdni4nbd
p1970
I1
sVd7keheg
p1971
I2
sVd139u8n
p1972
I1
sVcym3vhh
p1973
I1
sVdsaj4lk
p1974
I1
sVd1dsozz
p1975
I1
sVd48xjuh
p1976
I1
sVda4hq59
p1977
I2
sVcz89bm6
p1978
I1
sVdg4ivng
p1979
I1
sVdbwi8hc
p1980
I1
sVd01pb5n
p1981
I1
sVddc1sr5
p1982
I4
sVdq713lv
p1983
I1
sVd5g498x
p1984
I1
sVd14ghj4
p1985
I1
sVdh35utd
p1986
I1
sVd5pqm2c
p1987
I1
sVd9dsvu4
p1988
I1
sVd97cpwq
p1989
I1
sVdpbch0j
p1990
I1
sVdmq3qmw
p1991
I1
sVcz9811i
p1992
I1
sVd97d0om
p1993
I1
sVd3myyx9
p1994
I1
sVdirihad
p1995
I3
sVd3kcn9z
p1996
I1
sVd2g9sc7
p1997
I2
sVdizjj3o
p1998
I1
sVd9a1kso
p1999
I1
sVdn1q57h
p2000
I2
sVd46emgn
p2001
I1
sVdfyxao2
p2002
I1
sVd3fexif
p2003
I1
sVd04p6em
p2004
I1
sVde0xv5z
p2005
I1
sVdif1xcf
p2006
I1
sVdaj42uh
p2007
I2
sVdtj63oa
p2008
I1
sVdcmg32r
p2009
I1
sVdsyz4fi
p2010
I1
sVd2jaf5n
p2011
I1
sVd8czm1k
p2012
I1
sVdj9ab8d
p2013
I1
sVd0zsk6y
p2014
I1
sVd2u7ru9
p2015
I2
sVderlki0
p2016
I2
sVd2oxp70
p2017
I1
sVdbcgq3l
p2018
I1
sVdejg877
p2019
I1
sVd2iii7q
p2020
I1
sVdd4hpca
p2021
I1
sVd2e67ib
p2022
I1
sVdsjdv3h
p2023
I1
sVdbpgffr
p2024
I1
sVd75r0wm
p2025
I1
sVdnkwy99
p2026
I1
sVdsyumxs
p2027
I1
sVdhbceot
p2028
I1
sVdbz46gn
p2029
I1
sVcyot7di
p2030
I2
sVdgtqsjy
p2031
I1
sVdk0cadv
p2032
I1
sVcyjsi9f
p2033
I1
sVdf961jt
p2034
I1
sVd8x2j3x
p2035
I2
sVdasq0i4
p2036
I1
sVd0c9gkk
p2037
I2
sVdka6ppr
p2038
I3
sVd3qkrgu
p2039
I2
sVdio6296
p2040
I1
sVczzfd2b
p2041
I1
sVdkn4838
p2042
I1
sVd3s506t
p2043
I2
sVd1jyru1
p2044
I1
sVd1vhfok
p2045
I1
sVd727g8a
p2046
I1
sVdeaoqj7
p2047
I1
sVdd8aeb2
p2048
I1
sVdgb2f70
p2049
I1
sVd571awx
p2050
I1
sVddtfe5y
p2051
I1
sVdb76t5t
p2052
I1
sVd0fo5p4
p2053
I1
sVdk46vbf
p2054
I1
sVdkznazl
p2055
I1
sVdfzuago
p2056
I1
sVdf91m66
p2057
I1
sVdigja0p
p2058
I1
sVdi77cu6
p2059
I1
sVd7khkzj
p2060
I1
sVczcyl1f
p2061
I1
sVdfvtert
p2062
I1
sVdicmp7h
p2063
I1
sVd0ig4ge
p2064
I1
sVdjsgukc
p2065
I1
sVd7vxjoz
p2066
I1
sVdawjgrz
p2067
I1
sVd0p3w9z
p2068
I1
sVd31n59f
p2069
I1
sVdrezonm
p2070
I1
sVd3bpg44
p2071
I2
sVdcvtn1a
p2072
I1
sVdh1v9li
p2073
I1
sVdf4klgo
p2074
I1
sVd2jlctg
p2075
I1
sVd44093v
p2076
I1
sVcyv4qdv
p2077
I1
sVcyxysq3
p2078
I1
sVcyqnqha
p2079
I1
sVd3mamse
p2080
I2
sVd89a8gk
p2081
I1
sVdfvub6j
p2082
I1
sVd1qc0ot
p2083
I1
sVd45whub
p2084
I1
sVdejh1zn
p2085
I1
sVdf1rgqm
p2086
I1
sVd2jd45k
p2087
I1
sVd4twvsa
p2088
I1
sVdt0qr07
p2089
I1
sVdcdwn0b
p2090
I1
sVd7a7vrf
p2091
I2
sVddxfnyr
p2092
I2
sVcyxaf6j
p2093
I1
sVdnklkls
p2094
I1
sVd8oqkfb
p2095
I1
sVdd5pyjy
p2096
I1
sVdhm3pjb
p2097
I1
sVd66oclq
p2098
I1
sVday3r3b
p2099
I1
sVd6n8tz3
p2100
I1
sVd3jlpa8
p2101
I1
sVd0hke50
p2102
I1
sVdgn61il
p2103
I1
sVdegzcmo
p2104
I2
sVczg089c
p2105
I1
sVd60o4em
p2106
I3
sVdn46l84
p2107
I1
sVczw8io9
p2108
I1
sVczfegr0
p2109
I1
sVddqh8vs
p2110
I1
sVdbqh93d
p2111
I2
sVdfelf23
p2112
I1
sVd676lnt
p2113
I1
sVd97a3kf
p2114
I3
sVd2l2syd
p2115
I2
sVdj3vsyd
p2116
I1
sVdmj83x0
p2117
I1
sVdqabei0
p2118
I1
sVd6jaihu
p2119
I1
sVd5yobne
p2120
I1
sVdown7wz
p2121
I1
sVd24a8dj
p2122
I1
sVd5fkq9t
p2123
I1
sVdixwvjy
p2124
I1
sVdbhsluu
p2125
I1
sVd07cgwr
p2126
I1
sVdgeln8y
p2127
I2
sVd9xuvxc
p2128
I1
sVd9q7n0w
p2129
I2
sVdpwej9r
p2130
I2
sVd92qo87
p2131
I1
sVdetl6jv
p2132
I1
sVd38qu7f
p2133
I1
sVd6gam8d
p2134
I1
sVdjbd98z
p2135
I1
sVdmug9e1
p2136
I1
sVdfo3l4d
p2137
I1
sVd6zvw3q
p2138
I1
sVd9g8xu6
p2139
I2
sVdhyc6c0
p2140
I1
sVd192eqa
p2141
I1
sVdnv6uny
p2142
I1
sVczglfts
p2143
I1
sVd31bhm3
p2144
I1
sVddog6ia
p2145
I1
sVdhz24gc
p2146
I1
sVd1roqc7
p2147
I1
sVdcfbwaw
p2148
I1
sVd2sfqos
p2149
I2
sVdb7ekaa
p2150
I2
sVdc1rbsf
p2151
I2
sVdimerpc
p2152
I1
sVdd4f7zu
p2153
I1
sVd6gcowk
p2154
I1
sVd38i65g
p2155
I1
sVdim3yul
p2156
I1
sVdgacg1d
p2157
I1
sVdc3xy02
p2158
I1
sVdafw68f
p2159
I1
sVdmgr0iw
p2160
I1
sVd1ml0ts
p2161
I2
sVd25l0aw
p2162
I1
sVdc889s6
p2163
I1
sVcz2e9s9
p2164
I1
sVdio65sz
p2165
I2
sVdcdyq0d
p2166
I1
sVdi0fk4w
p2167
I1
sVdmsg7d1
p2168
I1
sVd7szzpi
p2169
I1
sVdrkt5lh
p2170
I1
sVdiohjt8
p2171
I1
sVddcw3r1
p2172
I1
sVd2smpkv
p2173
I3
sVdkop75f
p2174
I1
sVdihky47
p2175
I4
sVd5rqxmc
p2176
I1
sVdom2yb1
p2177
I3
sVdc2gs3g
p2178
I1
sVde6xsy3
p2179
I2
sVd1d9cpb
p2180
I1
sVd71zkyh
p2181
I1
sVcys7z6v
p2182
I4
sVd2dwxdx
p2183
I1
sVdhqdas1
p2184
I8
sVd5ha80a
p2185
I1
sVdjr4ny3
p2186
I1
sVcyp03fr
p2187
I1
sVd4vldfb
p2188
I3
sVdestg2e
p2189
I1
sVd5rpl81
p2190
I1
sVdcm3osi
p2191
I1
sVdcvoc1v
p2192
I2
sVd9lgvtv
p2193
I2
sVdcfx7r7
p2194
I2
sVdfw4ke9
p2195
I1
sVdkme9ap
p2196
I1
sVdodnlww
p2197
I1
sVd5tqpgq
p2198
I1
sVdca9wj1
p2199
I1
sVddehf7g
p2200
I1
sVdbgip62
p2201
I1
sVd96vx4m
p2202
I1
sVdgv6ojl
p2203
I1
sVdhc5mum
p2204
I1
sVd5aj789
p2205
I1
sVdra8xtf
p2206
I1
sVd6mc08i
p2207
I1
sVdg4f1pi
p2208
I1
sVdinrtcd
p2209
I1
sVdadp97y
p2210
I1
sVdfi2wy4
p2211
I1
sVd4wzrsj
p2212
I1
sVdrks42k
p2213
I1
sVd8mvqk6
p2214
I1
sVdn3lvin
p2215
I2
sVd3s4pzm
p2216
I1
sVdd64b7r
p2217
I1
sVdil97wm
p2218
I2
sVdr4pjw0
p2219
I1
sVczzxc9p
p2220
I1
sVd92n0ks
p2221
I1
sVd0wgmpe
p2222
I1
sVdi4rz1o
p2223
I5
sVdbq5k45
p2224
I1
sVdf12s9x
p2225
I1
sVd4k2oe9
p2226
I1
sVdctl48b
p2227
I1
sVdeljviz
p2228
I1
sVd0il3e7
p2229
I1
sVddfm0gz
p2230
I1
sVdhe69h5
p2231
I1
sVdbefmwd
p2232
I1
sVdmxqwuj
p2233
I1
sVdhsswfq
p2234
I1
sVd0dd281
p2235
I1
sVdqobkkd
p2236
I1
sVd1pg2ci
p2237
I1
sVddy4a1t
p2238
I1
sVd8a8qj8
p2239
I2
sVczrn9ej
p2240
I2
sVdf3kxsy
p2241
I1
sVczn67fm
p2242
I1
sVdn39kdw
p2243
I1
sVdh04f9z
p2244
I1
sVcz42i70
p2245
I1
sVd3db6j2
p2246
I1
sVd5lazbb
p2247
I1
sVd37lepj
p2248
I1
sVdgk7pcy
p2249
I3
sVddnd35e
p2250
I1
sVdqhy3g2
p2251
I1
sVcz4l6pd
p2252
I2
sVdb5erwy
p2253
I1
sVdemjo71
p2254
I1
sVdjo584m
p2255
I1
sVd674uvh
p2256
I1
sVdho0fqd
p2257
I1
sVdb5daho
p2258
I1
sVd1k0dl0
p2259
I1
sVdnxll89
p2260
I1
sVdcvbi14
p2261
I1
sVdshllah
p2262
I2
sVdinaf22
p2263
I3
sVdp127z6
p2264
I1
sVd01vcs3
p2265
I1
sVdc3c2vf
p2266
I1
sVdp8aj6w
p2267
I1
sVd72uc5k
p2268
I3
sVd7mc5js
p2269
I2
sVds14dx0
p2270
I3
sVd28ilux
p2271
I1
sVdc4gu5x
p2272
I1
sVdsavhfo
p2273
I1
sVddnkrgc
p2274
I1
sVd8j0tz1
p2275
I2
sVd1ycw80
p2276
I1
sVdjohxr5
p2277
I1
sVdgqq7ox
p2278
I1
sVczgzjrr
p2279
I4
sVdhqebyb
p2280
I1
sVd0wdsk7
p2281
I1
sVdjoplk5
p2282
I1
sVdol6dxv
p2283
I1
sVd2tfgry
p2284
I1
sVcyl5mh1
p2285
I1
sVdbx9bwx
p2286
I1
sVd9utor6
p2287
I1
sVd4hmxmd
p2288
I1
sVd0ic1dz
p2289
I1
sVd21rcoq
p2290
I1
sVdtbfl2k
p2291
I1
sVd1o49te
p2292
I1
sVd1chqum
p2293
I1
sVd05enm3
p2294
I1
sVdifnz0z
p2295
I1
sVcym6y3r
p2296
I1
sVd90xguu
p2297
I1
sVdfm0oqf
p2298
I1
sVd1q8tkq
p2299
I1
sVd03ksfg
p2300
I2
sVdjx2bl1
p2301
I1
sVdoeatia
p2302
I1
sVd4dco7c
p2303
I1
sVd89qxb9
p2304
I1
sVd2h4mn9
p2305
I3
sVdmfnqtq
p2306
I1
sVdboohpj
p2307
I2
sVdhnhoeo
p2308
I1
sVd3atlce
p2309
I1
sVdhy281u
p2310
I1
sVdo2uujw
p2311
I1
sVd5myulk
p2312
I1
sVdagnnqj
p2313
I2
sVdmjvvox
p2314
I1
sVdsbknv1
p2315
I1
sVd509o9r
p2316
I1
sVdrfrn1j
p2317
I1
sVdbmdujt
p2318
I1
sVcz7p588
p2319
I1
sVd085vh7
p2320
I2
sVdka2mtb
p2321
I1
sVd100ne2
p2322
I1
sVdi127fu
p2323
I2
sVd435wie
p2324
I1
sVdc6oei7
p2325
I1
sVd85yizm
p2326
I1
sVdmu2njn
p2327
I3
sVczhdg9h
p2328
I1
sVdcbfvwe
p2329
I1
sVdijrgdn
p2330
I1
sVdbowrb5
p2331
I1
sVdfkdasv
p2332
I1
sVd419q89
p2333
I3
sVd0mfsx1
p2334
I1
sVday1t0q
p2335
I1
sVdqsv1y6
p2336
I1
sVdaxlytg
p2337
I1
sVd6jm3e4
p2338
I1
sVdsk7pgy
p2339
I1
sVcz7xxx5
p2340
I1
sVdavgvc9
p2341
I1
sVd7rg0i8
p2342
I1
sVdci652b
p2343
I1
sVd8a82bw
p2344
I2
sVd7xhjrv
p2345
I1
sVdahlt0j
p2346
I1
sVdeyuhcd
p2347
I1
sVd9dpntg
p2348
I2
sVdq7wgh7
p2349
I1
sVdgi0dby
p2350
I1
sVd1paen5
p2351
I1
sVdeul6ky
p2352
I1
sVdffebgz
p2353
I1
sVde2h11w
p2354
I1
sVds9xtqg
p2355
I1
sVd1ogfz3
p2356
I1
sVd1dcwx6
p2357
I1
sVdhmgmcn
p2358
I3
sVd4oqcfj
p2359
I1
sVdmm29uz
p2360
I2
sVdd96ym2
p2361
I1
sVcznk0ow
p2362
I1
sVdsa9y7v
p2363
I1
sVdc1e9cg
p2364
I1
sVdi6yr7l
p2365
I1
sVd5vr2jd
p2366
I1
sVdfjig3l
p2367
I1
sVd2w9pwc
p2368
I1
sVdgcwu8f
p2369
I1
sVd0sjlu7
p2370
I3
sVd4j8cfc
p2371
I1
sVd56i8mb
p2372
I1
sVczjlcr0
p2373
I1
sVd82mhlw
p2374
I1
sVd6jnnrn
p2375
I1
sVddjp16p
p2376
I1
sVd9w6rzz
p2377
I5
sVdmmgq12
p2378
I1
sVd8hl2ry
p2379
I1
sVdd4wwjw
p2380
I1
sVd8rpzzd
p2381
I2
sVdo85e33
p2382
I1
sVdqh45lx
p2383
I2
sVd77sddl
p2384
I1
sVdjx3odi
p2385
I1
sVdh09ctt
p2386
I1
sVdfvm0pt
p2387
I1
sVdqyx9o8
p2388
I1
sVdh8ll2m
p2389
I1
sVddt73u4
p2390
I1
sVdg8epj0
p2391
I1
sVdhlf4n7
p2392
I1
sVdhqay9y
p2393
I1
sVd5r2tau
p2394
I1
sVdnnejp4
p2395
I1
sVdjp5hl2
p2396
I2
sVdgfg9c1
p2397
I1
sVdhsgk8s
p2398
I4
sVd44x31w
p2399
I1
sVdgmd6rq
p2400
I1
sVd3cgwvj
p2401
I1
sVczw4294
p2402
I2
sVddfthkq
p2403
I1
sVd4vlgpn
p2404
I1
sVdsuzaqm
p2405
I1
sVd35p1cu
p2406
I1
sVd5vubo5
p2407
I1
sVdq4t2rc
p2408
I1
sVdayq7fa
p2409
I1
sVdkz058j
p2410
I1
sVdn55elk
p2411
I1
sVdbeextx
p2412
I1
sVd3juyfu
p2413
I1
sVd3zzs9h
p2414
I1
sVcyn1t78
p2415
I1
sVd40lf5o
p2416
I1
sVdjf3bnz
p2417
I1
sVczdax11
p2418
I1
sVdd3dyt4
p2419
I1
sVd743tkt
p2420
I1
sVdmx2ca6
p2421
I1
sVda35kne
p2422
I1
sVcymwbak
p2423
I1
sVdff9ua1
p2424
I1
sVdbgvidg
p2425
I1
sVdb7vzn7
p2426
I1
sVd0pf7bl
p2427
I1
sVdf4jr72
p2428
I1
sVd2h9ubz
p2429
I1
sVdq053x5
p2430
I2
sVdgbnjp1
p2431
I1
sVd5a0jsv
p2432
I1
sVdrittj3
p2433
I2
sVdt06zrv
p2434
I1
sVd3smaab
p2435
I1
sVd8e2w9s
p2436
I1
sVd31cry6
p2437
I1
sVd5t5aao
p2438
I1
sVdfosuxj
p2439
I1
sVd3ezx00
p2440
I2
sVd08q40n
p2441
I1
sVd9f9cyz
p2442
I1
sVcynih4p
p2443
I2
sVddbbpn2
p2444
I2
sVcz1fhze
p2445
I1
sVdo6cs6z
p2446
I1
sVd5wb64v
p2447
I1
sVczs30q1
p2448
I2
sVd6x04a9
p2449
I1
sVd8axc56
p2450
I1
sVdem2ine
p2451
I1
sVdg1qsux
p2452
I2
sVdbrbzv8
p2453
I1
sVdri3ksq
p2454
I1
sVdjdhj3j
p2455
I3
sVd61nxkk
p2456
I1
sVd9evcjs
p2457
I1
sVd97tlmo
p2458
I1
sVdrkrg4y
p2459
I1
sVd8ahczs
p2460
I1
sVddm75wl
p2461
I1
sVddd6mke
p2462
I1
sVd2cvofp
p2463
I1
sVdc0zwhp
p2464
I6
sVdkmi0xt
p2465
I1
sVd2g69of
p2466
I1
sVdj1g99e
p2467
I1
sVdf3ag7t
p2468
I1
sVdbe8tl9
p2469
I1
sVdisymso
p2470
I1
sVddmqrlx
p2471
I1
sVdo648rh
p2472
I1
sVdaapqoq
p2473
I1
sVd7ntoza
p2474
I1
sVdjhv0l1
p2475
I1
sVdbicxgc
p2476
I1
sVderjg4a
p2477
I1
sVdio1gdp
p2478
I1
sVcz0az7f
p2479
I1
sVdr5l0q2
p2480
I1
sVcyx031t
p2481
I1
sVdmj3059
p2482
I2
sVddhvvua
p2483
I2
sVd1l8i2d
p2484
I1
sVd7b4ayv
p2485
I1
sVd12ranq
p2486
I1
sVdp0gdam
p2487
I1
sVd8w8jhs
p2488
I1
sVdi748d4
p2489
I1
sVd0ivqnw
p2490
I1
sVdflt4i5
p2491
I1
sVd1avmcj
p2492
I1
sVdbebjv1
p2493
I2
sVdbe7hn2
p2494
I1
sVdgi402n
p2495
I1
sVdims0nk
p2496
I1
sVd4t7blg
p2497
I3
sVdb6fhgx
p2498
I1
sVd0eduy5
p2499
I1
sVdap9mw4
p2500
I1
sVd5gttlj
p2501
I1
sVdag0x13
p2502
I1
sVdflx3kw
p2503
I2
sVdseiwc2
p2504
I1
sVcyxcd5k
p2505
I1
sVdks1ubv
p2506
I1
sVd7ibqyo
p2507
I1
sVd49bluh
p2508
I1
sVdiwvev5
p2509
I1
sVd17b1ny
p2510
I1
sVdidi2q4
p2511
I1
sVd78xtua
p2512
I2
sVdrl2lz2
p2513
I1
sVdabiiov
p2514
I2
sVdin3l4b
p2515
I1
sVd31cotn
p2516
I1
sVdkx2lzf
p2517
I1
sVd1sp1do
p2518
I1
sVdtbl1ly
p2519
I1
sVdokl2mw
p2520
I1
sVdsohwnp
p2521
I1
sVd2qvpox
p2522
I4
sVdbrlng4
p2523
I1
sVdgsju1c
p2524
I1
sVdawvhkk
p2525
I2
sVczca3vw
p2526
I1
sVd3g4tzl
p2527
I1
sVdcknq3i
p2528
I1
sVd8ymr1o
p2529
I1
sVd3lkut2
p2530
I1
sVd4hdcw7
p2531
I1
sVdabfqxe
p2532
I1
sVdjnm8f9
p2533
I1
sVde30e7a
p2534
I1
sVd1lhqh3
p2535
I2
sVdawpcer
p2536
I1
sVczl6c0g
p2537
I1
sVd5ri5k8
p2538
I1
sVd280ym8
p2539
I1
sVd1e2dva
p2540
I1
sVdketl33
p2541
I1
sVdjxv1d4
p2542
I1
sVdko2bqr
p2543
I1
sVdo83ne6
p2544
I1
sVde3kl0y
p2545
I2
sVd3jh5ny
p2546
I1
sVd55x04r
p2547
I1
sVdiaw0zr
p2548
I2
sVde2q35q
p2549
I1
sVd3g64p1
p2550
I1
sVdoj1iu9
p2551
I1
sVdgmgh58
p2552
I1
sVd6cbdfl
p2553
I1
sVdrodc68
p2554
I2
sVdcjqit6
p2555
I1
sVde2jn0p
p2556
I1
sVdb3pfyp
p2557
I1
sVcyipkhp
p2558
I1
sVdq412bs
p2559
I2
sVdg4iwby
p2560
I1
sVdbf36fq
p2561
I1
sVd0yv2w7
p2562
I1
sVd4eqq4n
p2563
I1
sVcz6qw9x
p2564
I1
sVdqg6vai
p2565
I1
sVdh0q3z8
p2566
I1
sVdnmypvk
p2567
I2
sVdavl2pi
p2568
I1
sVd10paqr
p2569
I1
sVd71o5vf
p2570
I1
sVdstp80j
p2571
I1
sVdja7q5k
p2572
I3
sVd69e936
p2573
I1
sVdcw5xtn
p2574
I1
sVdgc31ri
p2575
I1
sVde0bgq0
p2576
I1
sVdgpj2w4
p2577
I1
sVddmxfg7
p2578
I2
sVdsmcoia
p2579
I1
sVdepzu64
p2580
I2
sVd1b24zf
p2581
I1
sVdh5w34v
p2582
I1
sVd4zpzsu
p2583
I1
sVdtimx6w
p2584
I4
sVdcveku7
p2585
I1
sVd6rll03
p2586
I1
sVd68rtj7
p2587
I1
sVdd4yagk
p2588
I1
sVd7esffw
p2589
I1
sVd1kej1n
p2590
I1
sVdmzj3uu
p2591
I1
sVd8yvye3
p2592
I1
sVdfrtg1v
p2593
I1
sVd3dp796
p2594
I1
sVd8mbqxl
p2595
I1
sVdfwgxtt
p2596
I1
sVdhx5ash
p2597
I1
sVd2ke8rf
p2598
I1
sVd6c581n
p2599
I1
sVdf16nvb
p2600
I1
sVd24420e
p2601
I1
sVdt7vmpt
p2602
I1
sVdf35p3m
p2603
I1
sVcznymky
p2604
I1
sVd9blss9
p2605
I1
sVcz6402l
p2606
I1
sVd7eojku
p2607
I1
sVdqc78wv
p2608
I1
sVd3kg9ba
p2609
I1
sVdgya2i6
p2610
I1
sVdbl4cpr
p2611
I1
sVczhmxa9
p2612
I1
sVd5yife6
p2613
I1
sVdawphbf
p2614
I2
sVdgki41q
p2615
I1
sVdk0pv2i
p2616
I5
sVdgzpkxt
p2617
I1
sVdsflikh
p2618
I1
sVdkjpq0g
p2619
I1
sVcz3fpcq
p2620
I3
sVdg7079p
p2621
I1
sVd6biz3q
p2622
I1
sVdjmsjtj
p2623
I1
sVdaq4ru7
p2624
I3
sVdj4v9cq
p2625
I1
sVdgh95kr
p2626
I1
sVddomqvd
p2627
I1
sVd9eemb0
p2628
I1
sVdrbfuot
p2629
I1
sVdjo8aig
p2630
I1
sVdasa672
p2631
I2
sVczr4wpu
p2632
I2
sVcyuw6sw
p2633
I1
sVdn25ryl
p2634
I1
sVd4c2t93
p2635
I1
sVd9d53up
p2636
I1
sVd6tz9uy
p2637
I1
sVd1qtlq7
p2638
I1
sVddslscy
p2639
I1
sVdibbma2
p2640
I1
sVd2yowcv
p2641
I1
sVd9hjjxv
p2642
I1
sVd05ofg3
p2643
I1
sVdivu4iv
p2644
I1
sVdnlep2i
p2645
I1
sVdhyrqpj
p2646
I1
sVdjtte2w
p2647
I1
sVdb03jrv
p2648
I1
sVdah80l4
p2649
I1
sVdt34x1g
p2650
I1
sVdsshqis
p2651
I1
sVdcvdwkp
p2652
I2
sVdb3u6sf
p2653
I1
sVddhkdwz
p2654
I1
sVdn3h6qn
p2655
I1
sVdgdwgsu
p2656
I1
sVd6kt71g
p2657
I1
sVd7xx5lc
p2658
I1
sVdcsipz6
p2659
I1
sVd3tdrcc
p2660
I1
sVddc9774
p2661
I1
sVd3bcbal
p2662
I1
sVdoibsnp
p2663
I1
sVdd457kf
p2664
I1
sVdcecc62
p2665
I1
sVcyynr6n
p2666
I1
sVd7579ek
p2667
I1
sVd7pp16p
p2668
I1
sVcyxmnii
p2669
I1
sVd1qj1gb
p2670
I1
sVd0689ea
p2671
I1
sVd03crgf
p2672
I2
sVdhdej5w
p2673
I1
sVdji516e
p2674
I1
sVd6i6jfb
p2675
I1
sVd68o9vr
p2676
I1
sVd3px9e6
p2677
I1
sVd3venzx
p2678
I3
sVd2hiv22
p2679
I1
sVd9p96fb
p2680
I1
sVdj8k19l
p2681
I5
sVdg13v2e
p2682
I1
sVcz5zmqk
p2683
I1
sVd40x6es
p2684
I1
sVd1heqdx
p2685
I1
sVdgd0bbo
p2686
I1
sVd3sccr1
p2687
I1
sVcz2ijax
p2688
I1
sVdan8ws3
p2689
I2
sVdpori0k
p2690
I1
sVdqlnzkx
p2691
I1
sVdnddbbr
p2692
I1
sVdg6tsgp
p2693
I2
sVd1dk4fa
p2694
I1
sVdghgwky
p2695
I1
sVd4n9mlx
p2696
I1
sVd1boz7t
p2697
I1
sVdnj7eqt
p2698
I1
sVdcurpi5
p2699
I1
sVdpbyyyj
p2700
I1
sVdo8yy9k
p2701
I1
sVdpmvdr4
p2702
I1
sVdj0uj9t
p2703
I1
sVdgknnlr
p2704
I1
sVd4g2rib
p2705
I2
sVd1cxgb6
p2706
I1
sVd2ynrm6
p2707
I1
sVdg3owgq
p2708
I1
sVdhjlhcg
p2709
I1
sVd0en6ri
p2710
I1
sVdh51lm3
p2711
I1
sVd5lu8fm
p2712
I1
sVd2v2evl
p2713
I1
sVcz2hva6
p2714
I1
sVd7rjaue
p2715
I1
sVdfjt8f3
p2716
I1
sVdd5wcdq
p2717
I1
sVd9wtujd
p2718
I1
sVcyjiso9
p2719
I1
sVczpn3z6
p2720
I1
sVdpnm3lo
p2721
I1
sVd8suw6i
p2722
I2
sVd14kfoz
p2723
I1
sVd4egaau
p2724
I1
sVd2w20l3
p2725
I1
sVdqksg5v
p2726
I1
sVddkf6mg
p2727
I1
sVdkb7wnf
p2728
I1
sVcz1jf5s
p2729
I1
sVdg5uuug
p2730
I1
sVd3s46go
p2731
I1
sVd3yipa0
p2732
I2
sVd2fdszz
p2733
I1
sVdbq6sx6
p2734
I1
sVd2g3ivk
p2735
I1
sVd2glwrn
p2736
I1
sVdqjlqhu
p2737
I1
sVd65mudy
p2738
I1
sVd7db7s0
p2739
I2
sVd83dgvq
p2740
I1
sVdrxe55u
p2741
I1
sVd02qhbv
p2742
I1
sVd2dv1yf
p2743
I1
sVd2bfy1i
p2744
I2
sVdcjwq1l
p2745
I1
sVde6shr5
p2746
I1
sVd55c0jo
p2747
I1
sVdhwoem9
p2748
I1
sVd0ih2wv
p2749
I1
sVdpuffug
p2750
I2
sVddteq1l
p2751
I1
sVcz5c8l9
p2752
I2
sVd3if2o6
p2753
I1
sVd0jzr7e
p2754
I1
sVddptwhs
p2755
I1
sVd87cg19
p2756
I1
sVd20zb79
p2757
I1
sVdkazgtk
p2758
I1
sVd2a82nj
p2759
I1
sVdfrt6cc
p2760
I1
sVdfu3mbe
p2761
I1
sVdq08w77
p2762
I2
sVdhnsm90
p2763
I1
sVde5rdqc
p2764
I3
sVdbks070
p2765
I1
sVd97e3u2
p2766
I1
sVczif4h9
p2767
I2
sVdbh8rvo
p2768
I1
sVdfdi2v5
p2769
I1
sVdg6gpod
p2770
I6
sVd9wrj9m
p2771
I1
sVd095roh
p2772
I1
sVd68o6x7
p2773
I1
sVdoxhj6p
p2774
I1
sVczs6zmo
p2775
I1
sVd01bsz9
p2776
I1
sVdnnvk57
p2777
I1
sVdmwx5xc
p2778
I1
sVdg8u7nt
p2779
I1
sVdt663jx
p2780
I1
sVd6ll990
p2781
I1
sVds5a1fk
p2782
I1
sVdbvvwuc
p2783
I1
sVd14wirq
p2784
I1
sVdtcvwn0
p2785
I1
sVd6mg0aq
p2786
I1
sVczl9vql
p2787
I1
sVd9m7abv
p2788
I2
sVd00vs3t
p2789
I1
sVd70brik
p2790
I1
sVdjx7fiv
p2791
I1
sVdhoxhm6
p2792
I1
sVcyjce23
p2793
I1
sVdk8ls4h
p2794
I3
sVcz7dq4d
p2795
I1
sVdeu0ipj
p2796
I1
sVdmvq16t
p2797
I1
sVdofwcxa
p2798
I1
sVdhl13im
p2799
I1
sVdqsdt2w
p2800
I1
sVd8xsz1h
p2801
I1
sVdd21qkb
p2802
I1
sVdccgxxr
p2803
I1
sVdd45crz
p2804
I2
sVd3bvvpx
p2805
I3
sVdgldmlf
p2806
I1
sVd5apf92
p2807
I1
sVda33n3r
p2808
I2
sVd1zws3m
p2809
I1
sVdkcf47k
p2810
I1
sVdde49bx
p2811
I1
sVd1qbps4
p2812
I1
sVdpyhy8z
p2813
I1
sVd3xnia4
p2814
I1
sVddrenif
p2815
I1
sVdmepv35
p2816
I1
sVd32o1sm
p2817
I1
sVdf9ppfe
p2818
I1
sVda6yycq
p2819
I1
sVdf7we6w
p2820
I1
sVdk4zc0i
p2821
I1
sVd9pxv42
p2822
I1
sVdipskrn
p2823
I1
sVdbgaf31
p2824
I1
sVdifqjei
p2825
I1
sVdb121fp
p2826
I1
sVdjsh9uv
p2827
I1
sVd47al3i
p2828
I1
sVcyxq8jn
p2829
I1
sVd79lur7
p2830
I1
sVdfkcqz9
p2831
I1
sVds3owa5
p2832
I1
sVdjhg1cs
p2833
I1
sVdbgerbq
p2834
I1
sVddm9stl
p2835
I1
sVd05lvqh
p2836
I1
sVd1m6xlc
p2837
I1
sVdp7bofp
p2838
I1
sVdiis4iw
p2839
I3
sVd8v7vix
p2840
I1
sVd6pukjw
p2841
I1
sVd9s78xo
p2842
I1
sVdpvbl3d
p2843
I4
sVd2jye0v
p2844
I1
sVdns8311
p2845
I1
sVdauivtx
p2846
I1
sVdgjsd2j
p2847
I1
sVd71gk2d
p2848
I1
sVd7bo37m
p2849
I1
sVd264b40
p2850
I1
sVd2q1cky
p2851
I1
sVd1oym7i
p2852
I1
sVdbkqm3j
p2853
I1
sVczqftkj
p2854
I1
sVdflw2iy
p2855
I1
sVd3ek4pc
p2856
I1
sVdk64thy
p2857
I1
sVd0besug
p2858
I1
sVdigzeav
p2859
I1
sVddcizyr
p2860
I1
sVdeko4sk
p2861
I1
sVd312l2r
p2862
I1
sVd5356dl
p2863
I1
sVd6ql949
p2864
I1
sVd0j4mn2
p2865
I1
sVd3h65y0
p2866
I1
sVd5300kc
p2867
I12
sVd2s13xk
p2868
I2
sVd3pe8xr
p2869
I1
sVdi3ldp8
p2870
I1
sVczm21mw
p2871
I1
sVd24lj16
p2872
I1
sVcylufu2
p2873
I1
sVdjtr6qd
p2874
I1
sVda2va18
p2875
I1
sVdsqxfue
p2876
I1
sVdqdjnlx
p2877
I1
sVd9nw2f6
p2878
I1
sVdrb2xd3
p2879
I1
sVdaubjle
p2880
I1
sVdcibeue
p2881
I2
sVdg8wc7p
p2882
I1
sVdbntcsl
p2883
I1
sVd3vsqbr
p2884
I1
sVdnepw44
p2885
I2
sVd04kngm
p2886
I1
sVd84q4lp
p2887
I1
sVdedizz6
p2888
I1
sVdhbybnb
p2889
I1
sVdejvao2
p2890
I1
sVd2eyhhp
p2891
I1
sVdjubeu2
p2892
I1
sVdhbkijf
p2893
I1
sVdh32sof
p2894
I1
sVdjpp9yj
p2895
I1
sVcyj6j9z
p2896
I1
sVd6w6f46
p2897
I1
sVd7r92ek
p2898
I1
sVd4d70uj
p2899
I1
sVdq67kc9
p2900
I1
sVd6cutr0
p2901
I1
sVd7yftu6
p2902
I1
sVd4hxziw
p2903
I1
sVd8wb9zi
p2904
I1
sVdjg7rqn
p2905
I2
sVdjr4uzv
p2906
I1
sVd3et0as
p2907
I1
sVd2aq1tj
p2908
I1
sVdmih396
p2909
I1
sVd3e7kmv
p2910
I1
sVdi2w5et
p2911
I1
sVdovojqv
p2912
I1
sVdbeaqpz
p2913
I1
sVdb5i2z7
p2914
I1
sVdgv89l7
p2915
I1
sVd97f6yk
p2916
I1
sVd5us67r
p2917
I1
sVdjtkken
p2918
I1
sVdg8sgs5
p2919
I1
sVd95sz2a
p2920
I1
sVcz0iqpb
p2921
I1
sVdaxie2k
p2922
I1
sVczh610t
p2923
I1
sVd0ymli5
p2924
I1
sVdibvki4
p2925
I1
sVdgwpqox
p2926
I1
sVczpjsa6
p2927
I1
sVd6mcuqd
p2928
I1
sVd45bq4i
p2929
I2
sVcyzqwvx
p2930
I1
sVd0r8gcg
p2931
I1
sVdf2045t
p2932
I1
sVd9ly8to
p2933
I1
sVdsl3n62
p2934
I1
sVd15ci1p
p2935
I1
sVcz6wwr3
p2936
I1
sVcyzz68e
p2937
I1
sVd0o92ra
p2938
I1
sVdami57t
p2939
I3
sVdb0wkdc
p2940
I1
sVd1n0lb1
p2941
I3
sVdbtks4q
p2942
I1
sVdfwy8ey
p2943
I1
sVd2gbysi
p2944
I1
sVdodz2oh
p2945
I1
sVdiy94a1
p2946
I1
sVdnnn2ff
p2947
I1
sVczfgt2g
p2948
I1
sVdgtdy9j
p2949
I1
sVd8gy953
p2950
I2
sVd43hc6t
p2951
I1
sVdkb72j8
p2952
I1
sVdk1vr06
p2953
I1
sVdnh5do1
p2954
I1
sVdeaznoc
p2955
I1
sVdgv5uo6
p2956
I1
sVd1g8j8r
p2957
I1
sVd1idxen
p2958
I1
sVczg3mp0
p2959
I1
sVdbkvuha
p2960
I1
sVd1fpq8q
p2961
I1
sVcyliapv
p2962
I1
sVdoyms9p
p2963
I1
sVdriv6pe
p2964
I1
sVdd6pbhr
p2965
I1
sVdd6mtlx
p2966
I1
sVdslzk8q
p2967
I1
sVdmnbqn4
p2968
I1
sVczkblve
p2969
I4
sVdt7etoa
p2970
I1
sVdj8f5wt
p2971
I1
sVdo7s4c9
p2972
I1
sVdbe9e4w
p2973
I1
sVd993jjm
p2974
I1
sVd69vt9g
p2975
I1
sVd7t44dy
p2976
I1
sVdn8b983
p2977
I1
sVcykpnhj
p2978
I1
sVdj6wu2x
p2979
I1
sVdjlesni
p2980
I1
sVdt3c082
p2981
I1
sVdas5sue
p2982
I1
sVdchrdhs
p2983
I1
sVd7d3had
p2984
I2
sVdkant52
p2985
I1
sVd4z8g1h
p2986
I1
sVd3q8puc
p2987
I1
sVdg4mnef
p2988
I1
sVd6wha5s
p2989
I1
sVcyk2lwy
p2990
I1
sVd7xn00i
p2991
I1
sVdf1ud0g
p2992
I1
sVd6mbm5m
p2993
I1
sVd3w1j1q
p2994
I1
sVd7h6gyg
p2995
I1
sVdkvur61
p2996
I1
sVd26jsdu
p2997
I1
sVdavj1nf
p2998
I1
sVdfa0g49
p2999
I1
sVdhqa5yw
p3000
I1
sVddwux60
p3001
I1
sVdg0jmsb
p3002
I1
sVd6hdvn6
p3003
I1
sVd0tlnk0
p3004
I1
sVd04e8gh
p3005
I1
sVdfkxvdj
p3006
I1
sVd1jr9ae
p3007
I1
sVdgvyecs
p3008
I1
sVdre4d76
p3009
I2
sVd39olhb
p3010
I1
sVdh0w6i6
p3011
I1
sVd4qqttz
p3012
I1
sVdms4qgb
p3013
I1
sVdksopb4
p3014
I1
sVdeg66dc
p3015
I1
sVczo8n2j
p3016
I2
sVdb3thfp
p3017
I1
sVd801n0p
p3018
I1
sVd39yjbo
p3019
I1
sVdmuxge6
p3020
I2
sVd19ywjc
p3021
I1
sVd6hf7nl
p3022
I1
sVdbjgdxn
p3023
I1
sVdhbxrai
p3024
I1
sVdsa1np4
p3025
I1
sVdieqfto
p3026
I1
sVd2mxaqs
p3027
I4
sVdecenll
p3028
I1
sVddtg858
p3029
I2
sVdc08f8t
p3030
I1
sVd1fuz85
p3031
I1
sVdd63ig7
p3032
I1
sVda7wfgi
p3033
I6
sVdcxrtkz
p3034
I1
sVd15w0jv
p3035
I1
sVczm2mw8
p3036
I3
sVdjz9wcf
p3037
I1
sVdbkk8ma
p3038
I1
sVdf602fq
p3039
I2
sVd8gbboy
p3040
I1
sVdcwegu7
p3041
I1
sVd3ewf8z
p3042
I1
sVd37h8xn
p3043
I1
sVdahvxdt
p3044
I1
sVd1ypmd0
p3045
I1
sVdkqnqq3
p3046
I1
sVd4r749x
p3047
I1
sVd0ltlvk
p3048
I1
sVddtriyx
p3049
I1
sVd6j94a9
p3050
I1
sVcyz0m6w
p3051
I1
sVdddg7o2
p3052
I1
sVddnmi7i
p3053
I1
sVd3ew7du
p3054
I1
sVd4nzgfk
p3055
I1
sVdgf0lmk
p3056
I1
sVd8n5p7e
p3057
I1
sVdk8n82p
p3058
I1
sVdbqizk1
p3059
I1
sVdaseui6
p3060
I1
sVd4osd6r
p3061
I1
sVd4yjml1
p3062
I1
sVd8ea8si
p3063
I1
sVcz2a5wq
p3064
I1
sVddi1pg8
p3065
I1
sVdf5s1yd
p3066
I1
sVd37bdgq
p3067
I1
sVdkda6c9
p3068
I1
sVd07br2q
p3069
I1
sVdgoepvu
p3070
I1
sVdd2o3hf
p3071
I1
sVdnixbla
p3072
I1
sVdb3vbp6
p3073
I1
sVd5obl5l
p3074
I2
sVd0r4p3g
p3075
I1
sVdqd6k4t
p3076
I1
sVd6dz6of
p3077
I3
sVdo9c45j
p3078
I1
sVdewp14z
p3079
I1
sVd3houjm
p3080
I1
sVd5tnx1w
p3081
I1
sVcyz3m6x
p3082
I1
sVddwclsl
p3083
I1
sVdg4xcz3
p3084
I1
sVdft5mu5
p3085
I1
sVdmvgkx3
p3086
I1
sVdbthck6
p3087
I3
sVds9pivj
p3088
I1
sVdevjalm
p3089
I1
sVdjrfz2j
p3090
I2
sVd3syjlf
p3091
I2
sVcz15ggd
p3092
I1
sVd6f7e64
p3093
I2
sVczk0vra
p3094
I1
sVdhwujlw
p3095
I1
sVdkjhdcn
p3096
I1
sVdk8mb5e
p3097
I4
sVdhvohdj
p3098
I1
sVczflq64
p3099
I1
sVdc7qykw
p3100
I1
sVdrg81mm
p3101
I1
sVd2384zh
p3102
I1
sVdrrvokb
p3103
I1
sVczz251z
p3104
I1
sVdbytubp
p3105
I2
sVddlzukq
p3106
I2
sVd2x36qt
p3107
I2
sVd2cv72a
p3108
I2
sVcz5nfkm
p3109
I1
sVdpvuxuw
p3110
I1
sVdk14vt9
p3111
I1
sVdssp840
p3112
I2
sVdb1043s
p3113
I1
sVdbeqb7a
p3114
I1
sVd43znb0
p3115
I1
sVdeqlspa
p3116
I2
sVd14r6dh
p3117
I1
sVcyj3pjg
p3118
I2
sVdgn1854
p3119
I1
sVdhzqif9
p3120
I1
sVd0iegjf
p3121
I1
sVd9y0rkg
p3122
I5
sVder1jpd
p3123
I1
sVdo27y0d
p3124
I1
sVdey7013
p3125
I5
sVdqwbk4j
p3126
I1
sVd0329w2
p3127
I2
sVdth1l0m
p3128
I1
sVdb2pdlp
p3129
I1
sVden4hnx
p3130
I1
sVcyqumo0
p3131
I3
sVdjit0k6
p3132
I1
sVdr255gj
p3133
I1
sVd6t9tad
p3134
I1
sVd1cqlto
p3135
I1
sVd62ouqh
p3136
I1
sVdd5l7yo
p3137
I1
sVdjaspi4
p3138
I1
sVde8mwu0
p3139
I1
sVdnb2d1f
p3140
I1
sVd6pr0sg
p3141
I1
sVdikal25
p3142
I1
sVdgq1at5
p3143
I1
sVdks130k
p3144
I1
sVdepq78f
p3145
I1
sVcz0q6ak
p3146
I1
sVdgx5iy6
p3147
I1
sVdrx5z73
p3148
I1
sVdb7d9sq
p3149
I1
sVd92ms8j
p3150
I1
sVdpi3qp1
p3151
I1
sVd1v3j9v
p3152
I1
sVdepgjv3
p3153
I1
sVczs36e3
p3154
I1
sVdkj2cgw
p3155
I1
sVdjqaov1
p3156
I1
sVd3aybjq
p3157
I1
sVd85apaj
p3158
I1
sVd7mcd4m
p3159
I1
sVczen6om
p3160
I1
sVdigmqxk
p3161
I1
sVd5r8m8j
p3162
I1
sVd6mhg01
p3163
I2
sVd4q87n4
p3164
I1
sVdpqsetn
p3165
I1
sVdssyuvt
p3166
I1
sVd72e9yk
p3167
I1
sVd801prr
p3168
I1
sVd9egn5e
p3169
I2
sVdb5xurb
p3170
I1
sVdrnoft0
p3171
I1
sVdofvkcm
p3172
I1
sVd8szejv
p3173
I1
sVd1vm86v
p3174
I1
sVddezx02
p3175
I1
sVd39j8cc
p3176
I1
sVdjqv5a8
p3177
I1
sVd379v1z
p3178
I1
sVd251hem
p3179
I1
sVdajbujp
p3180
I1
sVd7n06iu
p3181
I2
sVd59fvxd
p3182
I1
sVddoeerw
p3183
I1
sVde6x7sg
p3184
I1
sVd80q4s3
p3185
I1
sVcz5yfow
p3186
I1
sVddex2c8
p3187
I1
sVd0bee3h
p3188
I1
sVd68k8fk
p3189
I1
sVdjppcp7
p3190
I1
sVdr2ztoa
p3191
I1
sVd4u7tbs
p3192
I1
sVdggzpfr
p3193
I1
sVczd68ol
p3194
I1
sVdd0dxmw
p3195
I1
sVdajhk1z
p3196
I1
sVdn1e8g3
p3197
I8
sVdn25ben
p3198
I1
sVdgfjqj6
p3199
I1
sVczuzk28
p3200
I1
sVd80r5jo
p3201
I1
sVcz0tnhg
p3202
I1
sVdkfgtt9
p3203
I1
sVdfvvnlh
p3204
I1
sVdt60bno
p3205
I1
sVdeekrw3
p3206
I1
sVcyzurvc
p3207
I1
sVd1zvj7x
p3208
I1
sVd3ah9v8
p3209
I1
sVds4cgob
p3210
I1
sVdjj5kt0
p3211
I1
sVd01uf8u
p3212
I1
sVd0a0zrq
p3213
I2
sVd0ch54u
p3214
I1
sVdgvrynw
p3215
I1
sVd55f544
p3216
I2
sVd6p8qxg
p3217
I1
sVd9gq5zo
p3218
I1
sVdhomt8l
p3219
I1
sVd4duwqj
p3220
I1
sVdenkwdw
p3221
I4
sVcysxagi
p3222
I3
sVd4fzoxv
p3223
I1
sVddhynok
p3224
I1
sVdmup3oe
p3225
I1
sVd2sti04
p3226
I1
sVd4dhziv
p3227
I1
sVdpirxnl
p3228
I1
sVdj07rvc
p3229
I1
sVde6fzp8
p3230
I1
sVd6kjdyb
p3231
I1
sVd9ukk4o
p3232
I1
sVdohcm00
p3233
I1
sVd7q0hwi
p3234
I2
sVd8nfqkj
p3235
I1
sVd0pq5ju
p3236
I1
sVddst4ap
p3237
I1
sVdbk3322
p3238
I1
sVdgrk626
p3239
I1
sVdfv6070
p3240
I1
sVdalqcv7
p3241
I1
sVdpinab6
p3242
I1
sVd0cq37i
p3243
I1
sVd2wddm8
p3244
I1
sVdc0eq24
p3245
I1
sVdbzl693
p3246
I1
sVdemalg3
p3247
I2
sVd4oo6b7
p3248
I1
sVdi9heqv
p3249
I3
sVd7rj5kh
p3250
I1
sVdoxcpdx
p3251
I1
sVd6s1txm
p3252
I1
sVczmb6j7
p3253
I1
sVdemjbim
p3254
I1
sVdspwh70
p3255
I1
sVd0sinm0
p3256
I1
sVddlndab
p3257
I1
sVdb10f3p
p3258
I2
sVdagwa4y
p3259
I1
sVd6fihpa
p3260
I1
sVd8km3me
p3261
I2
sVdan8hyn
p3262
I1
sVczzri6t
p3263
I1
sVd1fvdtr
p3264
I2
sVdiohwgn
p3265
I1
sVdstmwwi
p3266
I3
sVdamw9l6
p3267
I1
sVdexp7y1
p3268
I1
sVdg2jakm
p3269
I1
sVdckuo3d
p3270
I2
sVdpw17pw
p3271
I1
sVdkn8d3u
p3272
I1
sVd3ck7t6
p3273
I1
sVd1dn7fl
p3274
I1
sVd7vpcco
p3275
I1
sVd6g5a53
p3276
I1
sVdfq1nic
p3277
I1
sVdcnfymt
p3278
I1
sVddndtdd
p3279
I1
sVd7yet7x
p3280
I1
sVdfha6eh
p3281
I1
sVdaasocx
p3282
I1
sVdaxv218
p3283
I1
sVcz3ree9
p3284
I1
sVd5bnrbe
p3285
I2
sVczk2ldd
p3286
I1
sVd434866
p3287
I2
sVdi6nx71
p3288
I1
sVdsnzvnl
p3289
I1
sVdjtf7sg
p3290
I1
sVcz4me03
p3291
I1
sVdegwplh
p3292
I1
sVdsbvohz
p3293
I1
sVdhpsdqk
p3294
I1
sVdc330gk
p3295
I1
sVd10l3l4
p3296
I1
sVd9gxidj
p3297
I2
sVdaofeo1
p3298
I1
sVdq6onx7
p3299
I1
sVd6gpkhf
p3300
I1
sVdmyd7jq
p3301
I7
sVd5isbq3
p3302
I1
sVd17leku
p3303
I3
sVcz1zxsp
p3304
I1
sVda48r58
p3305
I1
sVdf51uz6
p3306
I2
sVdthgpex
p3307
I1
sVdaqbcch
p3308
I1
sVcyposws
p3309
I1
sVdk51d2e
p3310
I1
sVda332ea
p3311
I1
sVdew1pc4
p3312
I1
sVdposysu
p3313
I1
sVdazmi2h
p3314
I2
sVdi4fp8i
p3315
I1
sVd6gy4lu
p3316
I1
sVderk7f2
p3317
I1
sVd0hlx0y
p3318
I1
sVd220mjz
p3319
I1
sVdawdqz3
p3320
I1
sVdhgygp5
p3321
I1
sVd5ylns8
p3322
I3
sVdfsja0k
p3323
I1
sVdd3utoj
p3324
I2
sVdo888uz
p3325
I1
sVdqdg7by
p3326
I1
sVdbu8mhf
p3327
I1
sVdjuoy2n
p3328
I1
sVdgi8h7g
p3329
I1
sVd5z5ypx
p3330
I1
sVdcxhxsd
p3331
I1
sVd51af6r
p3332
I1
sVd8vll9j
p3333
I1
sVd3w7uf0
p3334
I1
sVdoynfh7
p3335
I1
sVd8esmdq
p3336
I1
sVda3z0d9
p3337
I1
sVdmffyvc
p3338
I1
sVdhwnwds
p3339
I4
sVd3k1ixa
p3340
I1
sVdpvaoui
p3341
I1
sVda3hvfm
p3342
I1
sVd9gqf2n
p3343
I1
sVdmmi5vf
p3344
I1
sVd0ohklk
p3345
I1
sVdpq3ihv
p3346
I1
sVdmv4xga
p3347
I1
sVdkx4f41
p3348
I3
sVdedpkmi
p3349
I1
sVd1kz1kj
p3350
I1
sVdh7fmku
p3351
I1
sVdkpao4a
p3352
I1
sVd0h3g2s
p3353
I2
sVd6p4a2g
p3354
I2
sVd00er5w
p3355
I1
sVd7hk59i
p3356
I1
sVdkync31
p3357
I1
sVdhii7zf
p3358
I1
sVd1wr52i
p3359
I4
sVd2a9dpj
p3360
I1
sVd5k39t8
p3361
I1
sVd6ebkkd
p3362
I1
sVd5z0c9t
p3363
I1
sVd6g1vpn
p3364
I1
sVdcujl8i
p3365
I1
sVd1rqm99
p3366
I2
sVdml29hl
p3367
I1
sVd1kpkn8
p3368
I1
sVderqpai
p3369
I1
sVd5i08gl
p3370
I1
sVdoes1x9
p3371
I2
sVdnd43b3
p3372
I1
sVdfy10b1
p3373
I1
sVdgzurom
p3374
I1
sVd75isw8
p3375
I1
sVdq2j1gk
p3376
I1
sVd4c0u3p
p3377
I1
sVd3ajgki
p3378
I1
sVdcwii0t
p3379
I1
sVd48pjpp
p3380
I1
sVdf7g5ji
p3381
I1
sVd4ci57w
p3382
I1
sVdgm8d7y
p3383
I1
sVdjnx1m5
p3384
I2
sVdkv56eb
p3385
I1
sVd6d23sm
p3386
I1
sVd9d8uy7
p3387
I1
sVd1otgxo
p3388
I1
sVd3bkxzv
p3389
I1
sVd0jxv5g
p3390
I1
sVd7ifqky
p3391
I2
sVddf2zsi
p3392
I2
sVdrxgk8x
p3393
I1
sVderhryv
p3394
I2
sVdiuxolj
p3395
I1
sVdb3m04x
p3396
I1
sVdmfga4q
p3397
I1
sVdhhywrf
p3398
I1
sVd8p14rn
p3399
I1
sVd5undx3
p3400
I2
sVczn9ct1
p3401
I1
sVddq57g0
p3402
I1
sVd773hli
p3403
I1
sVdomzlfi
p3404
I1
sVd9qs03l
p3405
I1
sVdj773zx
p3406
I2
sVdbea0c5
p3407
I1
sVdq365fa
p3408
I1
sVdcnx4u4
p3409
I3
sVde0xohk
p3410
I1
sVd1kxk6c
p3411
I1
sVd2yysya
p3412
I3
sVds3flfd
p3413
I1
sVd1kl7j8
p3414
I1
sVdg2571c
p3415
I1
sVczlhkwq
p3416
I1
sVdg67nyv
p3417
I1
sVdko8rkp
p3418
I1
sVd7aehts
p3419
I2
sVd2a3wyp
p3420
I2
sVd0az07s
p3421
I1
sVd7lvgy3
p3422
I4
sVd99dcxt
p3423
I1
sVd1zwfvk
p3424
I2
sVcz3he09
p3425
I2
sVczbzp1s
p3426
I2
sVdpmsz42
p3427
I1
sVcyqlvac
p3428
I2
sVdg6trm8
p3429
I1
sVd0tm68p
p3430
I1
sVdelkzvu
p3431
I1
sVdgc7b2y
p3432
I2
sVd79yikb
p3433
I2
sVd1tjk2e
p3434
I1
sVdexr9mg
p3435
I1
sVd7eiifa
p3436
I1
sVd8ua0ti
p3437
I1
sVdh0g8mj
p3438
I1
sVd04fikc
p3439
I1
sVczyy56o
p3440
I1
sVd6waa52
p3441
I3
sVd77aox4
p3442
I1
sVdjk658l
p3443
I2
sVdc2nng2
p3444
I1
sVd3bwbmx
p3445
I1
sVd1yv9g2
p3446
I1
sVddlyhve
p3447
I1
sVdf5xu26
p3448
I1
sVdeumy3x
p3449
I1
sVdkk9j2m
p3450
I1
sVd5irdcz
p3451
I1
sVd2c7nvr
p3452
I1
sVd2v7h3d
p3453
I1
sVdbpj5c8
p3454
I1
sVd85sesc
p3455
I1
sVdpe8rt8
p3456
I2
sVd8vb37k
p3457
I1
sVddphvhe
p3458
I1
sVd17k9na
p3459
I1
sVdc97y1z
p3460
I1
sVdfwxy6b
p3461
I1
sVdkayuyz
p3462
I1
sVcz2q5w6
p3463
I2
sVd085xvx
p3464
I1
sVd2uvtnk
p3465
I1
sVdfomf7r
p3466
I1
sVcz9g5fh
p3467
I1
sVdghdprg
p3468
I1
sVdiesp4u
p3469
I1
sVcz95dmq
p3470
I1
sVd9ncfr3
p3471
I1
sVdgt7qwd
p3472
I1
sVd0uh3jt
p3473
I1
sVdq6gi1a
p3474
I1
sVdhv3iqp
p3475
I1
sVdc7u3s6
p3476
I1
sVd84vdaw
p3477
I1
sVd519cr5
p3478
I1
sVdedekal
p3479
I1
sVdqr1lek
p3480
I1
sVdpg06nu
p3481
I1
sVd7qymdv
p3482
I3
sVd0uir0a
p3483
I1
sVdi2xdeh
p3484
I2
sVd390eee
p3485
I3
sVd492gqp
p3486
I1
sVdgk4r0x
p3487
I1
sVdeypngp
p3488
I2
sVddonz67
p3489
I1
sVd3hc8t0
p3490
I1
sVdjzt4ac
p3491
I1
sVd1yy31f
p3492
I1
sVd6qcs0k
p3493
I1
sVd4lftpc
p3494
I1
sVdflfr2t
p3495
I2
sVd7aii1r
p3496
I1
sVdny21ee
p3497
I1
sVdhi89s4
p3498
I1
sVdj5ijov
p3499
I1
sVd7skf2p
p3500
I1
sVd2y3had
p3501
I1
sVd1rgivt
p3502
I1
sVczxtevx
p3503
I1
sVd10rsrf
p3504
I3
sVd1tfi83
p3505
I2
sVd6hmvy3
p3506
I1
sVd2c7k4v
p3507
I1
sVd0rjk7p
p3508
I1
sVdow3ira
p3509
I1
sVd31dvrx
p3510
I1
sVdn4aymx
p3511
I1
sVd1pnlhi
p3512
I1
sVdn03rqe
p3513
I6
sVdimpzbl
p3514
I2
sVcyzbzpq
p3515
I1
sVdauzhzd
p3516
I1
sVdsh8ll7
p3517
I1
sVd37dqj9
p3518
I1
sVd1toupu
p3519
I2
sVd9i7c2k
p3520
I1
sVd6ueofo
p3521
I1
sVd1u65ln
p3522
I1
sVd4uvio5
p3523
I5
sVd04o6lr
p3524
I2
sVd2ur607
p3525
I1
sVdr8wvt3
p3526
I1
sVdbshwbi
p3527
I1
sVdii82v0
p3528
I1
sVdaktk1o
p3529
I1
sVdadtple
p3530
I2
sVd0u3toe
p3531
I1
sVd3gdwkx
p3532
I1
sVd1vcqsu
p3533
I1
sVd6k1ln6
p3534
I1
sVd8jach3
p3535
I1
sVd0ualxn
p3536
I1
sVd9v810v
p3537
I2
sVd50tnvb
p3538
I1
sVd8sz5fy
p3539
I2
sVd5f1exe
p3540
I2
sVd7jkvby
p3541
I1
sVdcdnue0
p3542
I3
sVdf9ajgy
p3543
I1
sVdmrr7xa
p3544
I1
sVd0p4icl
p3545
I1
sVdghdx5e
p3546
I1
sVdbohf4w
p3547
I1
sVd7bp0n9
p3548
I1
sVdkk7ov3
p3549
I1
sVdtczrxh
p3550
I1
sVdg4vg0s
p3551
I1
sVd8bxwq8
p3552
I2
sVde3v4hk
p3553
I1
sVcz43347
p3554
I1
sVdmxy3te
p3555
I1
sVdbjpgjj
p3556
I1
sVdf09dm8
p3557
I1
sVd6het7i
p3558
I1
sVd8xo8c3
p3559
I1
sVdbuusst
p3560
I1
sVdbg6sa3
p3561
I1
sVd91k12j
p3562
I1
sVczjop2b
p3563
I2
sVdkyr8lm
p3564
I1
sVdmzj12f
p3565
I1
sVd84uv9w
p3566
I1
sVd5qffj8
p3567
I1
sVdrdl79e
p3568
I1
sVd1inxsk
p3569
I1
sVcytoz6y
p3570
I2
sVdg8ls8m
p3571
I1
sVd5q661s
p3572
I1
sVd2cvf5b
p3573
I3
sVdp4mzlr
p3574
I1
sVd6s9lju
p3575
I1
sVdggca7g
p3576
I3
sVdob41q3
p3577
I1
sVdmyfeyr
p3578
I1
sVdsnep66
p3579
I1
sVdrfnazy
p3580
I1
sVdka0a9a
p3581
I1
sVdn31s5x
p3582
I1
sVdfgo4lm
p3583
I1
sVdkewa4w
p3584
I1
sVd8y8q60
p3585
I1
sVd2f3x22
p3586
I1
sVd5hf6ih
p3587
I1
sVdciepis
p3588
I1
sVd811447
p3589
I1
sVd8fwwvf
p3590
I2
sVd99iegy
p3591
I1
sVdmvi7k5
p3592
I1
sVdbwalhr
p3593
I1
sVcz8tpum
p3594
I1
sVcyywrji
p3595
I1
sVd4mojfv
p3596
I1
sVd2f10jx
p3597
I1
sVdd1yji5
p3598
I4
sVd5n726q
p3599
I1
sVcyycrq9
p3600
I1
sVdfxmnnf
p3601
I1
sVda2zc2c
p3602
I1
sVd4k673h
p3603
I3
sVdtiolsz
p3604
I1
sVdedfbxf
p3605
I3
sVd9g40yz
p3606
I1
sVd45w02o
p3607
I1
sVdfiir99
p3608
I1
sVczt1ssw
p3609
I1
sVdoh9umk
p3610
I2
sVd6genk1
p3611
I1
sVdd4j1eo
p3612
I1
sVdollb8y
p3613
I1
sVd0bpk0d
p3614
I1
sVdnw664m
p3615
I1
sVda0fqrq
p3616
I1
sVd2z2a53
p3617
I1
sVdbe8edd
p3618
I2
sVd2bbsg9
p3619
I1
sVdrhcvkj
p3620
I1
sVdd3m3mt
p3621
I1
sVczt05a6
p3622
I1
sVdrk0pyj
p3623
I1
sVd2if71l
p3624
I1
sVdikvdhm
p3625
I1
sVd6kpb4u
p3626
I2
sVde6tb5l
p3627
I1
sVdnztqs5
p3628
I1
sVd4q5rc8
p3629
I1
sVda66m9j
p3630
I1
sVd0avbf1
p3631
I1
sVd81k130
p3632
I1
sVd88f0j3
p3633
I7
sVdgti0ga
p3634
I1
sVd2kqgqg
p3635
I2
sVdgv7pen
p3636
I1
sVd0qxqod
p3637
I1
sVdklnyb8
p3638
I1
sVd0tfq3t
p3639
I1
sVdrhwq3v
p3640
I1
sVcz7keh6
p3641
I1
sVdjwpk3t
p3642
I2
sVdnx1ry0
p3643
I1
sVda3yhg3
p3644
I1
sVdnt7wl4
p3645
I1
sVdb70ugv
p3646
I1
sVd8zwu3q
p3647
I1
sVdi6oust
p3648
I1
sVd4nk5td
p3649
I1
sVdd528w2
p3650
I2
sVdc62gyr
p3651
I1
sVd6s6ayw
p3652
I3
sVdp6luwy
p3653
I1
sVdfucx5q
p3654
I1
sVdf7svwd
p3655
I1
sVdmv9nk7
p3656
I1
sVcz8ef71
p3657
I1
sVd6wzkr0
p3658
I1
sVd8u1dum
p3659
I1
sVdgar58i
p3660
I1
sVd7m1ddv
p3661
I1
sVdcff3wh
p3662
I1
sVd9l32p8
p3663
I1
sVde47cz4
p3664
I3
sVd1hy0hu
p3665
I1
sVd8gbg80
p3666
I1
sVdoxshql
p3667
I2
sVd3dlj8a
p3668
I1
sVd94igxb
p3669
I1
sVdr7oat7
p3670
I1
sVdbx8k0l
p3671
I1
sVdn9vcv9
p3672
I1
sVd3ozv8b
p3673
I1
sVd8ga62w
p3674
I2
sVd3fcb9z
p3675
I2
sVdf1kp4e
p3676
I1
sVds6a317
p3677
I1
sVdewfyb3
p3678
I1
sVdbz4kw8
p3679
I1
sVdderoo5
p3680
I1
sVdd84rs1
p3681
I1
sVdn07qpw
p3682
I1
sVczbfu57
p3683
I1
sVdpsbykz
p3684
I1
sVdcazjgd
p3685
I1
sVdn7o3xa
p3686
I1
sVdt42cje
p3687
I1
sVdencvnq
p3688
I1
sVdd3fgf8
p3689
I1
sVde8ywcu
p3690
I1
sVddqcqg2
p3691
I5
sVd8zbvgk
p3692
I1
sVd79xyg6
p3693
I1
sVd0lx21t
p3694
I1
sVdp7jzwt
p3695
I1
sVdkim6x2
p3696
I1
sVdffce1i
p3697
I1
sVdi6k67y
p3698
I1
sVdbm2iwu
p3699
I1
sVdaa2fun
p3700
I1
sVds864rt
p3701
I1
sVd1he97t
p3702
I1
sVddf2a4z
p3703
I1
sVdcp4vm6
p3704
I1
sVdoeiql2
p3705
I1
sVds4yqc6
p3706
I1
sVd7l8gl4
p3707
I1
sVdipvmly
p3708
I1
sVda56ewj
p3709
I1
sVd1rqucg
p3710
I1
sVd12qse1
p3711
I1
sVdip7baj
p3712
I1
sVdg8scql
p3713
I4
sVddw3ukz
p3714
I1
sVd78bqxu
p3715
I1
sVd3bw68v
p3716
I1
sVdtafcnw
p3717
I1
sVdfssz8h
p3718
I1
sVdinjxk4
p3719
I1
sVdd5oj7r
p3720
I1
sVdk3ailz
p3721
I1
sVdorr72d
p3722
I2
sVd26p6tf
p3723
I2
sVd0inkpu
p3724
I1
sVcyrqi62
p3725
I1
sVd6o7fu2
p3726
I1
sVdbq0xsw
p3727
I1
sVdficaxb
p3728
I1
sVczgynr3
p3729
I1
sVd5l09q6
p3730
I1
sVdddl1fw
p3731
I1
sVd6x2uls
p3732
I1
sVd0qpt5o
p3733
I1
sVdechn9s
p3734
I1
sVd3hxzxh
p3735
I1
sVd8fng3g
p3736
I1
sVd4668ji
p3737
I2
sVd5jphrm
p3738
I1
sVd5mutrb
p3739
I1
sVd1nhz1h
p3740
I1
sVdh8ev47
p3741
I1
sVdhyiisk
p3742
I1
sVd8fuy5o
p3743
I1
sVd2zl6y0
p3744
I1
sVdmq3zjf
p3745
I1
sVdnwah38
p3746
I3
sVd05vqlw
p3747
I1
sVd121u9x
p3748
I1
sVdpji346
p3749
I1
sVdbwhb3h
p3750
I1
sVd9cdgy5
p3751
I1
sVcynrcdp
p3752
I1
sVdbivm1m
p3753
I1
sVd4jc7ap
p3754
I1
sVd9q3io1
p3755
I1
sVd9tnk9h
p3756
I1
sVdr0jpvd
p3757
I1
sVd3xqkbe
p3758
I2
sVczsi1j7
p3759
I1
sVd5pgeq8
p3760
I1
sVdjy4c2m
p3761
I1
sVdg225ai
p3762
I1
sVd2fl324
p3763
I1
sVczs1f3j
p3764
I1
sVdntv66g
p3765
I1
sVd4zrru7
p3766
I1
sVd6bx8k3
p3767
I2
sVdcfrh3r
p3768
I1
sVd8a2xb2
p3769
I1
sVczi46em
p3770
I1
sVd6w9to9
p3771
I1
sVdiq8hja
p3772
I1
sVdae5vtk
p3773
I1
sVd7g7ko6
p3774
I1
sVd6dtipr
p3775
I1
sVdn4v4t1
p3776
I1
sVd8nxfp2
p3777
I1
sVdce6i9z
p3778
I1
sVdipc5k8
p3779
I1
sVdik1cjv
p3780
I2
sVdh7uyh5
p3781
I1
sVdgc5a1h
p3782
I1
sVd3yln0r
p3783
I1
sVd5ev4bc
p3784
I1
sVddcbs9o
p3785
I1
sVd43cujp
p3786
I1
sVd022lvp
p3787
I3
sVd49kj70
p3788
I1
sVd0aqtxg
p3789
I1
sVd14w8z4
p3790
I1
sVdj9fzdl
p3791
I1
sVd97d8zt
p3792
I1
sVcywhfib
p3793
I1
sVdfq3kdn
p3794
I3
sVddjhmd6
p3795
I1
sVd027ygf
p3796
I1
sVdd43swh
p3797
I1
sVd4w9aj1
p3798
I1
sVd5qd8d6
p3799
I1
sVdh2n0tl
p3800
I2
sVdfpln0i
p3801
I1
sVddy5e5p
p3802
I1
sVdqun5sa
p3803
I1
sVd0v19n2
p3804
I2
sVd6hwz0w
p3805
I2
sVdswby1q
p3806
I2
sVdfdxdv4
p3807
I2
sVdemwo8n
p3808
I1
sVcytklvt
p3809
I1
sVdovv3pr
p3810
I1
sVd2pprot
p3811
I1
sVcyv47s4
p3812
I1
sVd7mqc9x
p3813
I1
sVd0lj5gw
p3814
I1
sVdinqywl
p3815
I1
sVdaph7go
p3816
I2
sVderasc5
p3817
I1
sVdaoc1wm
p3818
I1
sVdirrrea
p3819
I2
sVdex6l9a
p3820
I1
sVd7uc4k5
p3821
I1
sVdspllod
p3822
I1
sVdbdjlrp
p3823
I1
sVczbo9nd
p3824
I1
sVd3uc6yz
p3825
I1
sVd5tiv8q
p3826
I1
sVdig4dh0
p3827
I1
sVdaexglj
p3828
I1
sVd8syell
p3829
I2
sVde2ip2b
p3830
I1
sVd3syyf4
p3831
I1
sVdbq1b3z
p3832
I1
sVdg1vil3
p3833
I3
sVd235wgs
p3834
I1
sVda74tay
p3835
I1
sVdavvzkv
p3836
I2
sVdqk0kb1
p3837
I1
sVdbef2nj
p3838
I1
sVd3mv237
p3839
I1
sVdmula69
p3840
I1
sVdk0wp1g
p3841
I1
sVczhnygl
p3842
I1
sVdmtsnqu
p3843
I2
sVd55vok6
p3844
I1
sVdskr72s
p3845
I1
sVd8o2q04
p3846
I1
sVdt4f4rn
p3847
I1
sVdqlloq9
p3848
I1
sVdffbevd
p3849
I1
sVdqo9qgm
p3850
I1
sVdszok2i
p3851
I1
sVd94fzz8
p3852
I2
sVdcjfjux
p3853
I1
sVd6c8nc4
p3854
I1
sVcyvsuri
p3855
I1
sVdhp2goh
p3856
I2
sVcynuqfq
p3857
I1
sVdgits8p
p3858
I1
sVdba59pq
p3859
I1
sVcym4lnc
p3860
I1
sVd0gsdf7
p3861
I1
sVddj7tdm
p3862
I2
sVd2t0qko
p3863
I1
sVd3n21fn
p3864
I1
sVd8noqnf
p3865
I4
sVdrti93f
p3866
I1
sVdc9oxge
p3867
I1
sVdbwnqt9
p3868
I2
sVd1roleu
p3869
I2
sVdd3yvdo
p3870
I2
sVd9w3f2r
p3871
I1
sVd04a565
p3872
I1
sVd7wezp6
p3873
I2
sVd801wt6
p3874
I1
sVdcmt2wj
p3875
I1
sVd8sucgi
p3876
I3
sVd398sye
p3877
I1
sVdne9hmw
p3878
I1
sVdi6xdft
p3879
I1
sVdap4hin
p3880
I1
sVdj4mwgn
p3881
I1
sVddao4nn
p3882
I1
sVdekdxkw
p3883
I1
sVdbfy90x
p3884
I1
sVd4icwmw
p3885
I1
sVdopwl0f
p3886
I2
sVdh1ntt0
p3887
I1
sVdb6lo8m
p3888
I1
sVcyqe6ao
p3889
I1
sVcyi6jcj
p3890
I1
sVd0sihod
p3891
I1
sVd7pep1w
p3892
I1
sVddtjq2x
p3893
I1
sVdhjd258
p3894
I1
sVd1ne9zw
p3895
I1
sVd8kh8eu
p3896
I1
sVdq3rywb
p3897
I1
sVd2xtg5h
p3898
I1
sVder9uts
p3899
I1
sVdfv251l
p3900
I1
sVdfr4ps7
p3901
I1
sVdf14w5n
p3902
I1
sVdj4i547
p3903
I1
sVdivece0
p3904
I1
sVdcta5ob
p3905
I2
sVd3bik2r
p3906
I1
sVdf6gmnl
p3907
I1
sVdt4gd53
p3908
I1
sVdgvehbz
p3909
I1
sVd8vip42
p3910
I1
sVdhudnx0
p3911
I1
sVdevdehu
p3912
I1
sVdtg4pte
p3913
I1
sVdb4rhbu
p3914
I1
sVd0t31di
p3915
I1
sVd8y9leq
p3916
I1
sVdbil403
p3917
I1
sVdf3j8rw
p3918
I1
sVdq8bng9
p3919
I1
sVdjixq3e
p3920
I1
sVdmt0ned
p3921
I1
sVd7j7ils
p3922
I1
sVd68ukx9
p3923
I3
sVdbo0rd5
p3924
I1
sVdkzcvyg
p3925
I1
sVdgj3me7
p3926
I1
sVd64ujo2
p3927
I1
sVdk1rp8e
p3928
I1
sVds3jpgp
p3929
I1
sVd4bchto
p3930
I1
sVdi4rk0u
p3931
I1
sVd7psb59
p3932
I1
sVdekoj4l
p3933
I1
sVdgxko38
p3934
I1
sVdhgp8on
p3935
I1
sVdf8yczy
p3936
I1
sVd22z087
p3937
I1
sVdcarnh6
p3938
I1
sVdp1j92w
p3939
I1
sVdbxh0yu
p3940
I1
sVdofo5ua
p3941
I2
sVdcqr4my
p3942
I1
sVdfhho4s
p3943
I2
sVd1eew6v
p3944
I1
sVdbiuj0u
p3945
I1
sVdgjbzqw
p3946
I1
sVd8hwxb5
p3947
I1
sVd9dmij2
p3948
I3
sVdqev22j
p3949
I1
sVd9yu666
p3950
I1
sVd1sm7ea
p3951
I1
sVd69seym
p3952
I1
sVdoxjk9a
p3953
I1
sVdevxrft
p3954
I3
sVcym21hr
p3955
I1
sVd32eb1n
p3956
I1
sVd2fdu8t
p3957
I1
sVd1k0244
p3958
I1
sVcyl3bbh
p3959
I1
sVdembh4x
p3960
I4
sVd476m4k
p3961
I1
sVdfk33bh
p3962
I1
sVd4wlzzz
p3963
I1
sVdab3mub
p3964
I1
sVcyhz27v
p3965
I1
sVcyudjs0
p3966
I1
sVdre4w4t
p3967
I1
sVdhih25c
p3968
I1
sVdi4l3hn
p3969
I1
sVd7kfg5u
p3970
I2
sVde0h1m9
p3971
I1
sVd0bmanu
p3972
I1
sVdmmxrlo
p3973
I1
sVdcu5dyu
p3974
I1
sVd7a0ffo
p3975
I1
sVd5l5jtl
p3976
I1
sVd9ud7gt
p3977
I1
sVdiy27zp
p3978
I1
sVdr8ar03
p3979
I2
sVd4rc2e5
p3980
I1
sVddbjjw5
p3981
I1
sVdeicayp
p3982
I1
sVd8v9kxa
p3983
I1
sVdgstsy7
p3984
I1
sVd99psin
p3985
I1
sVd9ia00r
p3986
I1
sVdg44cze
p3987
I1
sVdo6kdcu
p3988
I1
sVdro3dsn
p3989
I1
sVdebb41w
p3990
I1
sVde1hwv6
p3991
I1
sVdf5p1ss
p3992
I1
sVdefstdo
p3993
I1
sVdpw5xnw
p3994
I1
sVd1499qh
p3995
I1
sVdawcndv
p3996
I1
sVd72fvfv
p3997
I1
sVdf0d4ja
p3998
I1
sVdg8yngs
p3999
I1
sVdfos8q5
p4000
I1
sVd5pgbrj
p4001
I1
sVcyvkpvo
p4002
I2
sVds4px6n
p4003
I1
sVdkm6wkb
p4004
I1
sVd1hm8iv
p4005
I1
sVdd6t358
p4006
I1
sVdghwqpb
p4007
I1
sVd1gd0jd
p4008
I1
sVdt9gh8t
p4009
I1
sVdshjfwx
p4010
I1
sVde2vup8
p4011
I1
sVd8hjc5v
p4012
I2
sVd1fn39m
p4013
I1
sVdjvjl8x
p4014
I1
sVdah5ext
p4015
I1
sVd3jq3ge
p4016
I2
sVd1144ik
p4017
I1
sVdrrtxhk
p4018
I1
sVdj67g21
p4019
I1
sVdf3mpfd
p4020
I1
sVda6eito
p4021
I1
sVd2pvx4v
p4022
I1
sVdhlkg87
p4023
I1
sVdimpj50
p4024
I1
sVdchf83x
p4025
I1
sVdam3abw
p4026
I1
sVdkdx2it
p4027
I1
sVdgfovj5
p4028
I1
sVdjlgf1w
p4029
I1
sVd3wmzom
p4030
I1
sVdbz8zcl
p4031
I1
sVd6262yr
p4032
I1
sVdd41vdm
p4033
I1
sVd3bvz44
p4034
I1
sVd93pt99
p4035
I2
sVdaumrpl
p4036
I1
sVdek5h8a
p4037
I1
sVd8jk2nz
p4038
I1
sVdf7vhkr
p4039
I1
sVdoe5nh2
p4040
I2
sVdebp9qu
p4041
I1
sVdiz6csg
p4042
I1
sVcz3r5f5
p4043
I1
sVd7hsld1
p4044
I1
sVdsqhymt
p4045
I1
sVddd8h2w
p4046
I1
sVd66ju25
p4047
I2
sVdavpcbf
p4048
I1
sVdhhhqke
p4049
I4
sVdem9a04
p4050
I1
sVdjxys8s
p4051
I1
sVdaariik
p4052
I2
sVdprkbcq
p4053
I1
sVcz7do6y
p4054
I1
sVdhthxxw
p4055
I1
sVdeo85je
p4056
I1
sVd3zbhqf
p4057
I1
sVd0iqlop
p4058
I1
sVdr4z6gu
p4059
I1
sVdcwt4xo
p4060
I1
sVda5wkp8
p4061
I1
sVdhbrjl5
p4062
I1
sVdezevy5
p4063
I1
sVd0h4s9h
p4064
I1
sVdoapafx
p4065
I1
sVd60yt88
p4066
I1
sVd2pilu8
p4067
I1
sVd797m6r
p4068
I2
sVd40u7mx
p4069
I1
sVd1v9r8z
p4070
I2
sVd1n3327
p4071
I1
sVczf28iz
p4072
I1
sVdg0o5be
p4073
I1
sVd3xc355
p4074
I2
sVda3gkhv
p4075
I1
sVdrsxmdn
p4076
I2
sVczi9sp8
p4077
I1
sVdptgf7c
p4078
I1
sVczns0lc
p4079
I3
sVd82b8qs
p4080
I2
sVd22b21d
p4081
I2
sVd4prr4j
p4082
I1
sVdilvab7
p4083
I1
sVdn4yjse
p4084
I3
sVdcqvn35
p4085
I1
sVd6lshh4
p4086
I1
sVdp9ew2m
p4087
I1
sVcz9prbs
p4088
I1
sVcz7wwc7
p4089
I1
sVdn9tphr
p4090
I1
sVdazis1f
p4091
I1
sVde5de9f
p4092
I1
sVd6odnhr
p4093
I1
sVdemkdal
p4094
I1
sVdjw7bpm
p4095
I1
sVdr9g6f7
p4096
I1
sVd9ite4g
p4097
I1
sVd53hqu0
p4098
I1
sVdt0io85
p4099
I1
sVd4od80s
p4100
I1
sVd2fmhbl
p4101
I1
sVdprsgxv
p4102
I3
sVdgwuybj
p4103
I1
sVdh1t400
p4104
I1
sVczwrgoo
p4105
I1
sVd79mfu0
p4106
I1
sVcytvaa1
p4107
I1
sVdekaos1
p4108
I1
sVd1xyogi
p4109
I1
sVd3hef1i
p4110
I2
sVd8nm2zh
p4111
I1
sVdr73p35
p4112
I1
sVd05oi5i
p4113
I1
sVd5m3wtf
p4114
I1
sVd3iux1t
p4115
I2
sVd5eohsi
p4116
I1
sVd9be4tp
p4117
I1
sVd2pyh8u
p4118
I1
sVdnjo6rb
p4119
I1
sVdjtyyxv
p4120
I2
sVdiyr0kd
p4121
I1
sVdcpzid6
p4122
I1
sVd1j1de6
p4123
I1
sVdkkcxvo
p4124
I1
sVd1c9nmd
p4125
I1
sVddg96ja
p4126
I1
sVd3ykmhj
p4127
I1
sVd259t2w
p4128
I1
sVdn0x17d
p4129
I2
sVdfhguo4
p4130
I7
sVde8ul7r
p4131
I1
sVczhefjg
p4132
I2
sVd26nkum
p4133
I1
sVdb0xu5b
p4134
I1
sVdhvy9n1
p4135
I1
sVd5rberf
p4136
I1
sVdq40m1t
p4137
I1
sVddtb30c
p4138
I1
sVd9nax6m
p4139
I1
sVdi7fgt6
p4140
I1
sVd5rkse2
p4141
I2
sVdrqihjb
p4142
I1
sVd7xj2tt
p4143
I1
sVddl6e7r
p4144
I1
sVdq4h9ch
p4145
I1
sVdbe0k9i
p4146
I2
sVd6flzxr
p4147
I1
sVdctzhdt
p4148
I1
sVd62l9l7
p4149
I1
sVd7rf10e
p4150
I1
sVdknhg1u
p4151
I1
sVd2uzxrx
p4152
I1
sVd6vjzv5
p4153
I1
sVd54k7ak
p4154
I1
sVd31czfq
p4155
I3
sVczi8ylr
p4156
I1
sVd7vbhbr
p4157
I2
sVdd6347b
p4158
I1
sVczcqq5h
p4159
I1
sVd8axo6w
p4160
I1
sVdabnkdv
p4161
I1
sVdcc0g9a
p4162
I1
sVddgknvs
p4163
I1
sVdj4t7lm
p4164
I1
sVd7vqr8d
p4165
I1
sVd31vr5j
p4166
I1
sVdf04tbv
p4167
I1
sVd94ia4p
p4168
I1
sVcyl8flr
p4169
I1
sVdkx80u1
p4170
I1
sVdch5qvt
p4171
I2
sVdbzjjle
p4172
I1
sVdi6kev9
p4173
I1
sVdhtrolc
p4174
I1
sVcykaequ
p4175
I1
sVddsk1ka
p4176
I1
sVd94r040
p4177
I1
sVdbgfdwz
p4178
I1
sVdc5mg23
p4179
I4
sVdjv60cy
p4180
I1
sVddsliuz
p4181
I1
sVd0lupa9
p4182
I1
sVd9z5m5x
p4183
I1
sVd7uttdp
p4184
I1
sVddjn0v6
p4185
I2
sVd1smegv
p4186
I1
sVd73p36g
p4187
I1
sVd5ylt2b
p4188
I1
sVcyok4f9
p4189
I1
sVd1cxn8n
p4190
I1
sVczdmgy4
p4191
I1
sVdge2yi1
p4192
I1
sVdhbhp1g
p4193
I1
sVd3r2hoo
p4194
I1
sVdit85zs
p4195
I1
sVdbqkprp
p4196
I1
sVdiua6pq
p4197
I1
sVd5gxlhx
p4198
I1
sVds8oes4
p4199
I1
sVdkjibjt
p4200
I1
sVdfghs1r
p4201
I1
sVd2ei2cu
p4202
I1
sVd5fy791
p4203
I1
sVdruojkx
p4204
I1
sVd1yyd4a
p4205
I1
sVdfx977h
p4206
I1
sVd3bz16z
p4207
I2
sVdfpss8b
p4208
I1
sVd7fogvf
p4209
I2
sVd07o16c
p4210
I3
sVdiig898
p4211
I1
sVd19ma8w
p4212
I1
sVd7juwk7
p4213
I1
sVd6j9jxm
p4214
I3
sVd0fyy68
p4215
I1
sVdn8txyi
p4216
I1
sVd0uzh8p
p4217
I2
sVdfbxxjt
p4218
I1
sVdekh4im
p4219
I1
sVczfztai
p4220
I1
sVdj6xpq1
p4221
I1
sVdgrvks3
p4222
I1
sVd3mxspy
p4223
I1
sVdhwkmj4
p4224
I1
sVdir1x1u
p4225
I1
sVd4x28z6
p4226
I1
sVd1r92g0
p4227
I1
sVdfve8ri
p4228
I1
sVdcxty5d
p4229
I1
sVdoszhkj
p4230
I1
sVdfb6731
p4231
I1
sVcyupemq
p4232
I1
sVdeh3gr4
p4233
I1
sVd365oa6
p4234
I1
sVdck5wnb
p4235
I1
sVdsssqrh
p4236
I1
sVd1u20k6
p4237
I1
sVd1ztj4a
p4238
I1
sVdjezu9k
p4239
I1
sVdojbh7g
p4240
I1
sVd7w87fu
p4241
I1
sVd21k9fv
p4242
I1
sVd40xurw
p4243
I2
sVdgbb7jr
p4244
I1
sVd83vj0j
p4245
I2
sVdqfcpdz
p4246
I1
sVdixxj5s
p4247
I1
sVdmpmu2h
p4248
I1
sVd0iyiyb
p4249
I1
sVd22ntu4
p4250
I1
sVd6sjzk7
p4251
I1
sVd6ip6ht
p4252
I1
sVdimandx
p4253
I1
sVdfih6ww
p4254
I1
sVdmix252
p4255
I2
sVd0rpclp
p4256
I1
sVdovq798
p4257
I2
sVd5t133d
p4258
I1
sVd8uc41m
p4259
I1
sVd2ebvvd
p4260
I1
sVd5vv0ah
p4261
I1
sVdd4zwrd
p4262
I1
sVdj3qxfh
p4263
I3
sVddmopmm
p4264
I1
sVd8gpep1
p4265
I1
sVdaxp8ry
p4266
I1
sVdhhxmbz
p4267
I1
sVdbvji5u
p4268
I1
sVdsdyyzx
p4269
I1
sVdhwfvsn
p4270
I1
sVd5wdmif
p4271
I1
sVdch2qvw
p4272
I1
sVd3a9820
p4273
I2
sVdf8e8y2
p4274
I1
sVd10xq2o
p4275
I1
sVdqpdm4o
p4276
I1
sVdduxfbe
p4277
I1
sVdb26v4f
p4278
I1
sVcz9ey2q
p4279
I1
sVcyomsoh
p4280
I1
sVdbn6gi9
p4281
I1
sVczgk6f5
p4282
I1
sVdajqbiv
p4283
I1
sVcyjqyxt
p4284
I1
sVdbk5c0o
p4285
I1
sVds5ola1
p4286
I1
sVczbev9a
p4287
I1
sVdjeag5c
p4288
I1
sVd30o1ts
p4289
I1
sVdiwxdsx
p4290
I1
sVdfia8wz
p4291
I1
sVdej59x2
p4292
I1
sVd2zmper
p4293
I1
sVdjzqpvb
p4294
I1
sVdqog61f
p4295
I1
sVd9alx5t
p4296
I1
sVde8puth
p4297
I1
sVdokai6y
p4298
I1
sVdnijnjw
p4299
I1
sVdfad5nr
p4300
I1
sVd80c7ss
p4301
I1
sVdemajx8
p4302
I1
sVdjxujlb
p4303
I2
sVdbl5qsu
p4304
I1
sVdkkgmcp
p4305
I1
sVdim0sme
p4306
I1
sVdazdwva
p4307
I1
sVdk84tqv
p4308
I1
sVd6w8nmk
p4309
I1
sVd2jafvi
p4310
I1
sVdkcm8km
p4311
I1
sVdaxga8a
p4312
I1
sVd03emnw
p4313
I1
sVdmxs0us
p4314
I1
sVdhd14ws
p4315
I1
sVd3iwtjy
p4316
I1
sVdnv8jtb
p4317
I1
sVd2aytup
p4318
I1
sVdsk2g3c
p4319
I1
sVdgx0b8b
p4320
I1
sVd40xflj
p4321
I1
sVdb4yhal
p4322
I1
sVdojj486
p4323
I1
sVdewxfqx
p4324
I2
sVdbednyr
p4325
I1
sVd16h33d
p4326
I1
sVd97e7mm
p4327
I1
sVdgcsrfm
p4328
I1
sVd76c5bb
p4329
I1
sVdekvya5
p4330
I1
sVd50ss2s
p4331
I1
sVd7ckuk5
p4332
I1
sVd559sdo
p4333
I1
sVdcl4iq1
p4334
I3
sVdh6uyat
p4335
I1
sVd7p87w1
p4336
I1
sVdjwyzti
p4337
I1
sVd1uh2dx
p4338
I1
sVd5pj9k4
p4339
I1
sVdticltp
p4340
I1
sVdktpqxg
p4341
I1
sVdryqeim
p4342
I2
sVdmoqaji
p4343
I1
sVd7id41r
p4344
I1
sVd6stu8k
p4345
I1
sVdjgcopm
p4346
I4
sVdmw6sff
p4347
I1
sVdp7smyy
p4348
I1
sVd3usqdt
p4349
I1
sVdjhwkep
p4350
I1
sVcz62b1q
p4351
I1
sVcz11lrq
p4352
I1
sVdsfl2li
p4353
I1
sVd0d61ob
p4354
I1
sVd8ezvhv
p4355
I1
sVdmfp2sg
p4356
I1
sVdgmlysl
p4357
I1
sVczc8pkj
p4358
I1
sVd6c1hei
p4359
I2
sVd10ix60
p4360
I1
sVdboo17i
p4361
I1
sVdecfsz7
p4362
I1
sVdbeeu5u
p4363
I1
sVd2kraw2
p4364
I2
sVczg6aqz
p4365
I1
sVdd9f0ga
p4366
I1
sVdnp1ktt
p4367
I1
sVd4gtx35
p4368
I1
sVdasitvl
p4369
I1
sVdi1oh7z
p4370
I1
sVd2qr79o
p4371
I2
sVdqgzcxf
p4372
I1
sVczbfj2i
p4373
I1
sVdbm4bow
p4374
I1
sVd7e9ep8
p4375
I3
sVdn2q4du
p4376
I1
sVd5hp010
p4377
I1
sVczggx45
p4378
I1
sVczr911s
p4379
I3
sVd6kyubi
p4380
I1
sVd3si9wn
p4381
I1
sVdrbw8uc
p4382
I1
sVd0stovo
p4383
I1
sVdcsemzf
p4384
I1
sVdbh8ysm
p4385
I1
sVdd3q8jt
p4386
I1
sVczsf7z4
p4387
I1
sVdiwluyv
p4388
I1
sVdatb1lr
p4389
I1
sVdgcp650
p4390
I4
sVdmm23m8
p4391
I1
sVdo9yic4
p4392
I1
sVd9omx11
p4393
I1
sVd1j9xf9
p4394
I1
sVcz1jw3g
p4395
I1
sVdgf8jmj
p4396
I1
sVdp75ck8
p4397
I1
sVd1w9xor
p4398
I1
sVd8mo44c
p4399
I1
sVd2dxe8m
p4400
I1
sVd0x96yr
p4401
I1
sVczbtr68
p4402
I1
sVdr9b53w
p4403
I1
sVdh3wa3r
p4404
I1
sVdhhdb1z
p4405
I3
sVdhjvhl7
p4406
I1
sVdq4817v
p4407
I1
sVdb7d1cu
p4408
I1
sVdbnnbzc
p4409
I1
sVde5fhw9
p4410
I1
sVdhl53fh
p4411
I1
sVcz5hxa3
p4412
I1
sVdj9dem2
p4413
I1
sVd0kpkdj
p4414
I1
sVdhgwjv9
p4415
I1
sVdp42hmz
p4416
I2
sVd85tmb2
p4417
I2
sVdemoqhg
p4418
I1
sVdgegoyo
p4419
I1
sVd5p0fop
p4420
I2
sVdb8acpx
p4421
I2
sVdcly8rm
p4422
I1
sVd3udq8y
p4423
I1
sVde9x5cq
p4424
I1
sVd8v7qnj
p4425
I1
sVdhd586p
p4426
I1
sVd3ezj3r
p4427
I1
sVd3vhhl9
p4428
I1
sVdo3zpt4
p4429
I1
sVdmsb8fo
p4430
I2
sVdk9bp1a
p4431
I2
sVdryfxn2
p4432
I1
sVdo2so0a
p4433
I2
sVd2paqem
p4434
I1
sVde0n1ld
p4435
I2
sVd68dyeg
p4436
I1
sVdjboyer
p4437
I1
sVd9bh3ee
p4438
I1
sVdctifyy
p4439
I1
sVd6r9zwq
p4440
I2
sVczh1a9t
p4441
I1
sVd9de9au
p4442
I1
sVdifov5b
p4443
I2
sVdazbvtq
p4444
I1
sVd7rtxtp
p4445
I1
sVdfrvan8
p4446
I1
sVd9v5l2b
p4447
I1
sVd5uutfa
p4448
I4
sVczsgdv4
p4449
I2
sVd21mub7
p4450
I1
sVd3lm6m9
p4451
I1
sVd71kjcf
p4452
I1
sVdbeep14
p4453
I1
sVdpub6sd
p4454
I1
sVdnx2t1v
p4455
I2
sVdgtia8a
p4456
I1
sVda75yu1
p4457
I1
sVd0ldmv4
p4458
I1
sVdeicbwy
p4459
I3
sVd4lo45w
p4460
I1
sVd6nhbs9
p4461
I1
sVdo8yd8p
p4462
I1
sVczxnjh3
p4463
I1
sVdpnazwb
p4464
I1
sVd7cbhvz
p4465
I1
sVcz26evx
p4466
I1
sVd02emb6
p4467
I1
sVdh5b81y
p4468
I1
sVd7hcyst
p4469
I1
sVdmqvx54
p4470
I1
sVda9pzw1
p4471
I2
sVdmrjlf2
p4472
I1
sVdhr7p0x
p4473
I1
sVdbpii6o
p4474
I1
sVda7mpbo
p4475
I1
sVd3e95p1
p4476
I1
sVczynemv
p4477
I1
sVd0k6dm2
p4478
I3
sVdccyr5n
p4479
I1
sVdbtx563
p4480
I1
sVcysncdm
p4481
I1
sVd2oykst
p4482
I2
sVd8arhm5
p4483
I1
sVdiaa7zo
p4484
I1
sVd5ft9ix
p4485
I1
sVdijlvcx
p4486
I1
sVd0h77yh
p4487
I1
sVd7wmesq
p4488
I2
sVd99pie7
p4489
I1
sVcyporzx
p4490
I1
sVdcz30r3
p4491
I1
sVd060sbm
p4492
I3
sVdgdvoiu
p4493
I1
sVd2paahc
p4494
I1
sVdgrmjmx
p4495
I1
sVdh4fz0t
p4496
I1
sVddyrlhl
p4497
I1
sVdapmgwg
p4498
I1
sVcyiml11
p4499
I1
sVdfk9bu1
p4500
I1
sVd9xwvml
p4501
I1
sVd51yfps
p4502
I2
sVd0teba7
p4503
I1
sVdc5k40q
p4504
I1
sVdfnedc5
p4505
I2
sVdf8xzl1
p4506
I1
sVd5bhj6m
p4507
I1
sVdd5u8if
p4508
I1
sVd347zf9
p4509
I3
sVdgavyic
p4510
I1
sVcyxy4q9
p4511
I1
sVd19gikj
p4512
I1
sVdk1kxmt
p4513
I1
sVdn86cpz
p4514
I2
sVd8j5mzu
p4515
I1
sVd15dlsw
p4516
I1
sVd7xhqra
p4517
I1
sVd5afb0t
p4518
I1
sVdcjh6fs
p4519
I1
sVd0n6gsa
p4520
I1
sVdn3bahf
p4521
I1
sVdtf5anf
p4522
I1
sVdjwgd00
p4523
I1
sVdb9bypx
p4524
I1
sVdh27uaj
p4525
I1
sVdhjln5e
p4526
I1
sVdj8nseh
p4527
I1
sVd5pwxin
p4528
I1
sVdgjabql
p4529
I1
sVczzhw9g
p4530
I1
sVdn4yfl0
p4531
I1
sVd5djgv6
p4532
I1
sVde6021o
p4533
I1
sVdgem0yr
p4534
I1
sVcyltn6e
p4535
I1
sVdarf09v
p4536
I1
sVdg8jjt2
p4537
I1
sVd5clmv1
p4538
I1
sVczj5mwy
p4539
I1
sVdck7151
p4540
I1
sVdbasrr2
p4541
I1
sVczwnfvu
p4542
I3
sVd9cw5zr
p4543
I1
sVdbefbif
p4544
I1
sVd0rd27p
p4545
I1
sVd3j0ch7
p4546
I1
sVd6p826o
p4547
I3
sVd29zbxz
p4548
I1
sVd5ho1x3
p4549
I1
sVdkc0ao1
p4550
I1
sVczgidzi
p4551
I1
sVd91zrls
p4552
I1
sVdgtpcak
p4553
I1
sVdfdc6xh
p4554
I1
sVdbpqm6x
p4555
I3
sVdfwbvdn
p4556
I1
sVd9riyie
p4557
I1
sVde83vx4
p4558
I1
sVdbrsg56
p4559
I1
sVd4oyexa
p4560
I1
sVcysnnku
p4561
I1
sVd40kbaz
p4562
I1
sVdal1iq7
p4563
I1
sVczfn1mg
p4564
I1
sVdmoi68q
p4565
I1
sVd342dxi
p4566
I1
sVdi53wxj
p4567
I1
sVdgn0noo
p4568
I1
sVd66x0wd
p4569
I1
sVdh54u0n
p4570
I1
sVdb0diw9
p4571
I1
sVdkyjlrn
p4572
I1
sVdgkivs2
p4573
I1
sVd6pk0f8
p4574
I1
sVdddbmar
p4575
I1
sVd7i5046
p4576
I2
sVdnu2529
p4577
I2
sVd82u9lq
p4578
I1
sVd9xc0l1
p4579
I1
sVd12zezb
p4580
I1
sVdixv57a
p4581
I1
sVddf83lc
p4582
I1
sVd5lik6g
p4583
I1
sVd5l306u
p4584
I1
sVdborc0e
p4585
I3
sVd3izfip
p4586
I1
sVcz7dqre
p4587
I1
sVdkog1ox
p4588
I1
sVcypfhtd
p4589
I1
sVd0kv9sx
p4590
I1
sVdobmx8f
p4591
I1
sVdevqlzd
p4592
I1
sVd2i47u9
p4593
I4
sVdje3zdq
p4594
I1
sVdjoeahc
p4595
I1
sVd0ymmuw
p4596
I1
sVdcn5fbn
p4597
I1
sVdk3iqzy
p4598
I1
sVdjtuwk8
p4599
I1
sVd9ya6ws
p4600
I1
sVdh1x0bx
p4601
I1
sVcyygcha
p4602
I1
sVdbkrt5e
p4603
I2
sVd0smp35
p4604
I1
sVd343xel
p4605
I1
sVd8j4z9r
p4606
I1
sVd1zvoce
p4607
I1
sVd5rpljy
p4608
I1
sVcymjdsr
p4609
I1
sVd3bo6s3
p4610
I2
sVd02rl71
p4611
I1
sVdi3wrol
p4612
I1
sVd1y8m8n
p4613
I1
sVd706ird
p4614
I1
sVdd6alcx
p4615
I1
sVdd2o0b3
p4616
I1
sVd8wr405
p4617
I1
sVdq9lkay
p4618
I2
sVcz1dk36
p4619
I1
sVde2gbmi
p4620
I1
sVdmopkzp
p4621
I1
sVdevlurs
p4622
I1
sVcykx159
p4623
I1
sVd7ydtu9
p4624
I1
sVczw501g
p4625
I1
sVd06xh1q
p4626
I1
sVczjom5n
p4627
I1
sVdhc13iy
p4628
I1
sVd68l9wz
p4629
I1
sVddv10tf
p4630
I1
sVd78ctyz
p4631
I2
sVd44n9qt
p4632
I1
sVdi2oi6h
p4633
I1
sVdbfa6xo
p4634
I1
sVd3c06s4
p4635
I2
sVdr7tymt
p4636
I1
sVd1hzkqs
p4637
I4
sVczy5qvj
p4638
I1
sVdmn28zp
p4639
I1
sVczu18q0
p4640
I1
sVd4tzbnx
p4641
I1
sVdsq7jqb
p4642
I1
sVdhpzzbn
p4643
I1
sVczk20kz
p4644
I3
sVd0a9zua
p4645
I1
sVcylc273
p4646
I1
sVcytknze
p4647
I1
sVdnqkyw3
p4648
I1
sVdr6wcfx
p4649
I1
sVdpnzspl
p4650
I1
sVd8j6xuk
p4651
I1
sVczm8fw7
p4652
I1
sVd7h7jzk
p4653
I2
sVdt6qvo8
p4654
I1
sVdhm8k7z
p4655
I1
sVdekguy3
p4656
I1
sVczmiirg
p4657
I1
sVcz0i8gq
p4658
I1
sVdhqhv2m
p4659
I1
sVd6rlban
p4660
I1
sVdjspbrp
p4661
I1
sVdi33xvl
p4662
I1
sVdaspjtd
p4663
I1
sVd7ac1av
p4664
I2
sVd82gmoh
p4665
I1
sVdbggbbv
p4666
I1
sVd2otywd
p4667
I6
sVdb7emdy
p4668
I1
sVd25kmem
p4669
I1
sVderhcmm
p4670
I1
sVd1s9blr
p4671
I1
sVd0552gd
p4672
I1
sVdendv6i
p4673
I3
sVd30p2xe
p4674
I2
sVd3dak66
p4675
I1
sVcyzdeu0
p4676
I1
sVd62vid0
p4677
I1
sVd7gdi3c
p4678
I1
sVd97i8zx
p4679
I3
sVdataqgn
p4680
I1
sVdctngz1
p4681
I1
sVd2kyt9c
p4682
I1
sVd2doqe9
p4683
I1
sVd2hepux
p4684
I3
sVd15n2lg
p4685
I2
sVdqjysk0
p4686
I1
sVd9tr08w
p4687
I1
sVdrglddm
p4688
I1
sVd3jtuhu
p4689
I2
sVdfqm8p2
p4690
I2
sVde8xddz
p4691
I2
sVdhqbb4u
p4692
I1
sVd52xtau
p4693
I2
sVdgzdtqv
p4694
I1
sVd0ifoe7
p4695
I1
sVczcg3j7
p4696
I1
sVd1h6ecm
p4697
I1
sVdejozkm
p4698
I1
sVcz5nfsq
p4699
I2
sVdiygdhz
p4700
I1
sVcyiki4g
p4701
I1
sVd55r0z1
p4702
I1
sVd6j9ook
p4703
I2
sVdb5aue1
p4704
I1
sVdfb392v
p4705
I1
sVd5sfhm3
p4706
I1
sVd892rzn
p4707
I1
sVcyzjunl
p4708
I1
sVdgdo5yo
p4709
I1
sVd0l11ga
p4710
I1
sVdnklrme
p4711
I1
sVdfiv3ca
p4712
I1
sVd0r7hg1
p4713
I1
sVdcybk98
p4714
I1
sVd2dyk7p
p4715
I2
sVdbeyhbi
p4716
I1
sVdbyfdx4
p4717
I1
sVdnt4m3x
p4718
I1
sVd99rzjf
p4719
I1
sVdpvdwz2
p4720
I1
sVdgv3klr
p4721
I1
sVcyupiii
p4722
I1
sVdar59dm
p4723
I2
sVdfgunuo
p4724
I1
sVdkyxv0q
p4725
I1
sVd9wzrok
p4726
I1
sVcypfj14
p4727
I1
sVdqq1dhe
p4728
I1
sVd99bbs4
p4729
I1
sVdie6hxb
p4730
I1
sVdcin14d
p4731
I1
sVd8lq35s
p4732
I1
sVd574yvv
p4733
I4
sVd97g2m6
p4734
I1
sVczm1pv7
p4735
I1
sVd2sf8ou
p4736
I2
sVd015vii
p4737
I2
sVd7bdfz2
p4738
I1
sVd7vd92s
p4739
I1
sVdkez9aj
p4740
I1
sVd0f09ey
p4741
I1
sVdi3mnpq
p4742
I1
sVddpo3z8
p4743
I1
sVcytdnn8
p4744
I1
sVdmnhlft
p4745
I1
sVda7fj89
p4746
I1
sVd18s9hd
p4747
I1
sVczey60o
p4748
I1
sVdilz0cf
p4749
I1
sVdin4erz
p4750
I1
sVdoedbzv
p4751
I1
sVdjk2sin
p4752
I1
sVdj619jq
p4753
I1
sVd52trs6
p4754
I1
sVdf6xunw
p4755
I1
sVdru73i3
p4756
I1
sVd0p46j8
p4757
I4
sVd4g5azt
p4758
I1
sVd07wzk4
p4759
I1
sVdj1uoms
p4760
I1
sVde4k13g
p4761
I1
sVdoynk7r
p4762
I1
sVdbsyyt4
p4763
I1
sVd2s05a4
p4764
I1
sVdb8jed9
p4765
I1
sVd40oc6g
p4766
I1
sVdiql7s9
p4767
I2
sVczygsj0
p4768
I1
sVd9x8721
p4769
I1
sVd0qlcc2
p4770
I1
sVd4w89am
p4771
I1
sVda9yd0f
p4772
I1
sVd0ild3d
p4773
I1
sVdgrl9os
p4774
I1
sVd3lzrud
p4775
I1
sVdffp4eo
p4776
I2
sVdb23140
p4777
I2
sVd0jg9y3
p4778
I1
sVdfq8biq
p4779
I1
sVdmimazy
p4780
I1
sVczzfx31
p4781
I1
sVdefosme
p4782
I2
sVd82xzxd
p4783
I1
sVdt9ppyi
p4784
I1
sVd2iv0ms
p4785
I1
sVdtgnf0v
p4786
I1
sVd3gwa6b
p4787
I2
sVdd9bvke
p4788
I1
sVdebl5pb
p4789
I1
sVd5novsu
p4790
I2
sVdgajslv
p4791
I1
sVdhr4ury
p4792
I2
sVdmydaot
p4793
I1
sVcyv95z2
p4794
I1
sVdjpzlfe
p4795
I1
sVdenmzgg
p4796
I1
sVd84rh5h
p4797
I1
sVczeyrm2
p4798
I1
sVd4v2m61
p4799
I2
sVd6jmj6o
p4800
I3
sVd81z4ep
p4801
I1
sVdg5kt14
p4802
I1
sVdadwmlj
p4803
I1
sVd0afpf5
p4804
I1
sVdnyl5h0
p4805
I1
sVd3zqgbr
p4806
I1
sVdiy4r9c
p4807
I1
sVd01vv2h
p4808
I1
sVdislqhl
p4809
I1
sVdpdro4v
p4810
I1
sVdnvu01e
p4811
I1
sVdaksanp
p4812
I2
sVd87j2yo
p4813
I1
sVdn5pwuh
p4814
I1
sVdgy8hpe
p4815
I1
sVdb2i78g
p4816
I1
sVdejbqyw
p4817
I1
sVdrrgo17
p4818
I1
sVcz4wd9y
p4819
I1
sVd3nliu6
p4820
I1
sVdbsn3zx
p4821
I2
sVdfx10y8
p4822
I1
sVdajrmjj
p4823
I1
sVdfl95l1
p4824
I1
sVdf9dxyt
p4825
I1
sVd41wu59
p4826
I1
sVd48latf
p4827
I1
sVd2ci3id
p4828
I1
sVd7sx4v1
p4829
I1
sVdhp7sai
p4830
I1
sVdrdsd1h
p4831
I1
sVdjvnigq
p4832
I1
sVddk9mtw
p4833
I2
sVd7c3knk
p4834
I1
sVdogeac9
p4835
I1
sVd66obio
p4836
I2
sVcyy61nl
p4837
I1
sVdkiihle
p4838
I1
sVddsw6ok
p4839
I1
sVd8b20nr
p4840
I1
sVdcdecmm
p4841
I1
sVd6jhdwq
p4842
I1
sVdgffa9g
p4843
I1
sVdb9kklh
p4844
I2
sVdhgblbe
p4845
I2
sVdav64l0
p4846
I1
sVdnvxtck
p4847
I1
sVd92g9ww
p4848
I1
sVddmqn06
p4849
I1
sVd0fpf5t
p4850
I1
sVd6rp07g
p4851
I1
sVdt26t2x
p4852
I1
sVdros8cs
p4853
I5
sVd7lrzlj
p4854
I1
sVd2f23bq
p4855
I1
sVdbj22t9
p4856
I1
sVd30f74g
p4857
I1
sVds9nzn6
p4858
I1
sVd20frt5
p4859
I1
sVd1p0xyn
p4860
I1
sVdg7c16x
p4861
I6
sVd1anxi1
p4862
I1
sVcz1jkeu
p4863
I1
sVd3xe11v
p4864
I1
sVdbsx4z1
p4865
I1
sVd8mvyv3
p4866
I1
sVd5hpfdg
p4867
I2
sVdrd79d7
p4868
I1
sVd1r4m9k
p4869
I1
sVdr8otqo
p4870
I1
sVdfp8e3t
p4871
I1
sVd4qgmrs
p4872
I1
sVdf0nlim
p4873
I1
sVdgzn0s8
p4874
I2
sVdsxlkss
p4875
I1
sVd02y96h
p4876
I1
sVd7sxs00
p4877
I1
sVd8x8uut
p4878
I1
sVd33auev
p4879
I1
sVczzq24r
p4880
I1
sVdkqg5xy
p4881
I1
sVdd86mpn
p4882
I1
sVdcjx5r6
p4883
I1
sVds1b2hn
p4884
I1
sVdnm9cge
p4885
I1
sVd134rb8
p4886
I1
sVddceqhf
p4887
I1
sVdckz8en
p4888
I1
sVdixu1ws
p4889
I2
sVd94m2q7
p4890
I1
sVd3c7wwx
p4891
I1
sVdhnb1vo
p4892
I1
sVd20isdy
p4893
I1
sVdft9wlt
p4894
I1
sVd7tj1dm
p4895
I1
sVdmzms06
p4896
I2
sVd0z7a0c
p4897
I2
sVd5mnqn7
p4898
I2
sVd2y3w6f
p4899
I1
sVd2vccwo
p4900
I1
sVdpto7s2
p4901
I1
sVdfqpy6t
p4902
I1
sVditjroi
p4903
I1
sVdkiighe
p4904
I1
sVdoek91u
p4905
I2
sVcyx2zkr
p4906
I1
sVd3rqq2r
p4907
I1
sVdh98idz
p4908
I1
sVdc33er9
p4909
I1
sVczv1dv2
p4910
I1
sVd97b9eo
p4911
I1
sVdnmyrll
p4912
I1
sVdai52mw
p4913
I1
sVd8clo93
p4914
I1
sVdexbnpc
p4915
I1
sVd78kjy7
p4916
I1
sVd3wk1f5
p4917
I1
sVd312v04
p4918
I1
sVdia9w01
p4919
I1
sVdb2n0dx
p4920
I1
sVdgeq8gb
p4921
I1
sVdi1iwki
p4922
I1
sVdbknykj
p4923
I1
sVd5r2d3b
p4924
I2
sVd5w4g3w
p4925
I2
sVd8hy66t
p4926
I2
sVdn1f10z
p4927
I1
sVd3kx07q
p4928
I1
sVdajchdw
p4929
I1
sVd39hooi
p4930
I1
sVd5vkiod
p4931
I1
sVd2ziep5
p4932
I1
sVdph1bhz
p4933
I1
sVdhp85e6
p4934
I1
sVdevttlx
p4935
I1
sVd03fry8
p4936
I2
sVd4gy7n0
p4937
I3
sVdixjm1o
p4938
I1
sVd82f08a
p4939
I1
sVcylyds7
p4940
I1
sVdb7r2bg
p4941
I1
sVd008dmh
p4942
I1
sVdd8mf57
p4943
I2
sVdj0xn0h
p4944
I1
sVd8o86zl
p4945
I1
sVdnevqam
p4946
I1
sVczi2vxx
p4947
I2
sVdfilh8m
p4948
I1
sVcz25gm9
p4949
I1
sVdnznft4
p4950
I2
sVd1s1bas
p4951
I2
sVd8swx11
p4952
I1
sVdd7l628
p4953
I1
sVdo94f8f
p4954
I2
sVdfb1fie
p4955
I1
sVd96ltjb
p4956
I1
sVd7ykb3x
p4957
I1
sVd0zc74o
p4958
I1
sVdjv3arb
p4959
I1
sVd2ilpvj
p4960
I2
sVdbkux7q
p4961
I1
sVd8aiycp
p4962
I2
sVdfoyujy
p4963
I2
sVd18yds6
p4964
I2
sVdcgujlp
p4965
I1
sVd91dpzy
p4966
I1
sVdazgflv
p4967
I1
sVd9wwjh4
p4968
I1
sVde2ix13
p4969
I1
sVdd3xtaf
p4970
I1
sVd92d5h4
p4971
I1
sVdi4z1he
p4972
I1
sVd6tywe5
p4973
I1
sVd323rm4
p4974
I1
sVd2ou0pd
p4975
I1
sVd9geqt5
p4976
I1
sVd2zp1gc
p4977
I1
sVd7ayczb
p4978
I2
sVd0dapp9
p4979
I1
sVd9y508m
p4980
I1
sVdeht2nn
p4981
I1
sVdimfeu0
p4982
I1
sVdtj4bfr
p4983
I1
sVdn4ajfy
p4984
I4
sVd8iyh2n
p4985
I2
sVd131fxy
p4986
I1
sVdjaz0t1
p4987
I2
sVdeluwrw
p4988
I1
sVd73p1qy
p4989
I1
sVd4ju3yz
p4990
I1
sVdaznio5
p4991
I1
sVdq2jery
p4992
I1
sVd2qf007
p4993
I1
sVdhgbjiw
p4994
I1
sVdhdv5fg
p4995
I1
sVde35lio
p4996
I1
sVdhh0xep
p4997
I1
sVd1t2a02
p4998
I1
sVcyto39t
p4999
I1
sVdseweyc
p5000
I1
sVd5glvgy
p5001
I1
sVdatk2h0
p5002
I1
sVdf9c3nm
p5003
I1
sVd3zq0af
p5004
I1
sVdthxlww
p5005
I1
sVdn9rtq9
p5006
I1
sVdgofyfo
p5007
I1
sVdfapgp2
p5008
I1
sVda0zqc4
p5009
I1
sVd75l28j
p5010
I1
sVd1rhmnl
p5011
I3
sVd0i4tpx
p5012
I1
sVd6rfz3o
p5013
I1
sVdfn0hpd
p5014
I1
sVd6iai77
p5015
I2
sVd316bpq
p5016
I1
sVdpo8g78
p5017
I1
sVde745ay
p5018
I1
sVdcx4kp7
p5019
I1
sVdny56eu
p5020
I2
sVd380bgv
p5021
I1
sVd25ddar
p5022
I1
sVd0q1rj3
p5023
I3
sVdmnd11h
p5024
I1
sVdfwugrn
p5025
I1
sVd0h55p7
p5026
I1
sVd9yo69c
p5027
I1
sVdimsblz
p5028
I1
sVd9ak6rt
p5029
I1
sVdhjb8zb
p5030
I1
sVd3sv93i
p5031
I1
sVd68t4iu
p5032
I1
sVd0tujtr
p5033
I2
sVd4ufu8l
p5034
I1
sVdp3o83c
p5035
I1
sVdh7xin7
p5036
I1
sVdj6z318
p5037
I3
sVd6si1ne
p5038
I1
sVdbjtn22
p5039
I1
sVd31b75t
p5040
I1
sVd7bodhw
p5041
I1
sVdid1odj
p5042
I1
sVdks0lib
p5043
I1
sVdd4d7py
p5044
I1
sVdecqp4j
p5045
I1
sVd3bj6ug
p5046
I1
sVczx6e7i
p5047
I1
sVdbe8e0p
p5048
I1
sVd69wv29
p5049
I2
sVdmn0uie
p5050
I1
sVd5wsc4o
p5051
I1
sVdktifrd
p5052
I1
sVd4862lr
p5053
I4
sVdb362du
p5054
I1
sVdsr1kma
p5055
I1
sVdoh6ro8
p5056
I1
sVdksd12z
p5057
I1
sVcz1k4ex
p5058
I1
sVd646r79
p5059
I1
sVdd5bezj
p5060
I1
sVdat389m
p5061
I1
sVdnv688p
p5062
I1
sVd96ufbs
p5063
I1
sVd6926b1
p5064
I1
sVd8szjdt
p5065
I1
sVdkfc4g6
p5066
I5
sVdduh386
p5067
I1
sVdb6xpcw
p5068
I1
sVd7a8p12
p5069
I2
sVdgugb12
p5070
I1
sVd4h5khj
p5071
I2
sVdf1x1ui
p5072
I1
sVdecncjy
p5073
I2
sVdjk00o3
p5074
I1
sVd48cpvw
p5075
I1
sVd5ebe4v
p5076
I1
sVd4ul21k
p5077
I1
sVd6iexel
p5078
I1
sVd0hzh6m
p5079
I2
sVdpst6l0
p5080
I1
sVdfaq7b0
p5081
I1
sVdnobin2
p5082
I1
sVczg3r6a
p5083
I1
sVdjhx9m1
p5084
I1
sVddmu3z4
p5085
I1
sVd55zcr3
p5086
I1
sVd2x5tnu
p5087
I1
sVd0fhqf8
p5088
I1
sVdqh3nhy
p5089
I1
sVcyqrm20
p5090
I1
sVdd3p7kz
p5091
I1
sVdd6pmbt
p5092
I2
sVd25jf8q
p5093
I1
sVd7iqrld
p5094
I1
sVd2xmtdn
p5095
I1
sVdjhkmzj
p5096
I1
sVdkz43f6
p5097
I2
sVd3qj6ux
p5098
I1
sVdngflpr
p5099
I1
sVd17isxx
p5100
I1
s.