(dp0
Vd67ysxa
p1
I1
sVd35wiq5
p2
I1
sVdfntfxr
p3
I1
sVczbmhek
p4
I1
sVdfo05s8
p5
I1
sVdd2izmk
p6
I1
sVd1q3r6e
p7
I1
sVdecw5qy
p8
I1
sVczbsd7y
p9
I1
sVdb5m2ab
p10
I2
sVd681hcf
p11
I1
sVdp6e7yu
p12
I1
sVdb0dfwi
p13
I1
sVdab5mjz
p14
I1
sVdawhdwk
p15
I1
sVdceyh4a
p16
I3
sVd7jk5lj
p17
I1
sVd5ns9bs
p18
I1
sVdb357wz
p19
I1
sVdkzjpu7
p20
I3
sVd2tqqyi
p21
I1
s.