(dp0
Vde43jce
p1
I2
sVdehpcsr
p2
I1
sVdikvtbe
p3
I2
sVd4b1mv4
p4
I1
sVczi76se
p5
I1
sVdg37izf
p6
I1
sVd1j8xfc
p7
I1
sVd17anf5
p8
I1
sVd20q1u6
p9
I1
sVdikvyyg
p10
I1
sVdbeqyzh
p11
I1
sVdh7yc88
p12
I1
sVczx6jti
p13
I1
sVcyk81gs
p14
I1
s.