(dp0
Vdgxt94o
p1
I1
sVdbv1pel
p2
I1
sVd29fm9i
p3
I1
sVd1vsthm
p4
I1
sVd1etz22
p5
I1
sVdbfxwzv
p6
I1
sVdrq1ldz
p7
I1
sVd6r8rzg
p8
I1
sVdh596ze
p9
I1
sVdq80bcl
p10
I1
sVdgx7v7y
p11
I1
sVczh1y66
p12
I1
sVd2w9mgy
p13
I1
sVdea8r05
p14
I1
sVd4mp7nd
p15
I1
sVd2v4keo
p16
I1
sVdechxeu
p17
I1
sVdauhoe1
p18
I2
sVd3sbp2c
p19
I1
sVd2a6fpg
p20
I1
sVdepkd5j
p21
I1
sVd217xrm
p22
I1
sVdnyo5j5
p23
I1
sVczzfu50
p24
I1
sVd5bn4kx
p25
I1
sVd3r6b9e
p26
I1
sVdq0sini
p27
I1
sVd26kvvw
p28
I1
sVd446bez
p29
I1
sVdhyxd0p
p30
I1
sVdjd58al
p31
I1
sVdmmfza0
p32
I1
sVd077flb
p33
I1
sVdaa3nx4
p34
I2
sVd00uzza
p35
I1
sVdn7lrh8
p36
I3
sVdb2uqyu
p37
I1
sVd2qo0fk
p38
I1
sVdefk9vb
p39
I1
sVd36zmgf
p40
I1
sVdac2bd7
p41
I1
sVdj9fo0u
p42
I1
sVd6gz96t
p43
I1
sVd2w0547
p44
I1
sVdawda4d
p45
I1
sVdfaxe8m
p46
I1
sVczksti0
p47
I1
sVdftkbqc
p48
I1
sVd5ks7z2
p49
I1
sVdjc05cd
p50
I1
sVdc8ydld
p51
I1
sVdesiv5c
p52
I1
sVd9qy5y2
p53
I1
sVdcvl99q
p54
I1
sVd636uwi
p55
I1
sVczzzagy
p56
I1
sVd2h8h2o
p57
I2
sVdj72h38
p58
I1
sVddi8p9u
p59
I1
sVdsr1kma
p60
I1
sVd2da7af
p61
I1
sVdb0h7hk
p62
I1
sVd079shy
p63
I1
sVd9jowsj
p64
I1
sVdawtjwh
p65
I1
sVdacd1va
p66
I3
sVd0zrufv
p67
I1
sVd7nwkn2
p68
I1
sVdn0z4rr
p69
I2
sVd3173c9
p70
I1
sVd1yn967
p71
I1
sVczeknno
p72
I1
sVd1g97e4
p73
I1
sVczuxvgv
p74
I1
sVd0f6n7c
p75
I1
sVdfkt7jk
p76
I1
sVd4ppqi3
p77
I1
sVdb73yqy
p78
I1
sVd54tfr2
p79
I4
sVcylnjxd
p80
I1
sVdeuzx8z
p81
I1
sVd9mayt9
p82
I1
sVdfle80k
p83
I1
sVdjf68gi
p84
I1
sVdb6obon
p85
I1
sVcz3aw79
p86
I1
sVcykwp85
p87
I1
sVd3v22bg
p88
I1
sVddfj0g8
p89
I1
sVd04xw6m
p90
I1
sVd5aonrj
p91
I3
sVdiuan1a
p92
I1
sVd8u9vx2
p93
I1
sVd2h4r7v
p94
I1
sVdaurnrc
p95
I1
sVd2heu3a
p96
I1
sVd70xai1
p97
I1
sVddu4xuf
p98
I1
sVdrybhl4
p99
I1
sVdkk6c3q
p100
I1
sVdppgf3o
p101
I1
sVdeotnx2
p102
I1
sVdcm039m
p103
I1
sVd37ixce
p104
I1
sVdb8c2wh
p105
I2
sVczvhw0n
p106
I1
sVd0ip7lz
p107
I1
sVd2dtrz7
p108
I1
sVd2n809g
p109
I1
sVd2ac7kc
p110
I1
sVd052bdh
p111
I1
sVd32krpz
p112
I1
sVd1s7r2y
p113
I1
sVdel44eg
p114
I1
sVczb9v8y
p115
I1
sVczp0430
p116
I1
sVd3fbtmm
p117
I5
sVd4p2n60
p118
I1
sVd3kbcjx
p119
I1
sVd0nt57h
p120
I1
sVd8dqsya
p121
I1
sVdiq1r5c
p122
I1
sVdn9qr3j
p123
I1
sVdt3c082
p124
I1
sVdd50lck
p125
I1
sVd4nnzbz
p126
I1
sVczj8u06
p127
I1
sVd5op1dn
p128
I1
sVdjdlbv8
p129
I1
sVddmmaq1
p130
I1
sVdqlrg0b
p131
I1
sVdofidqp
p132
I1
sVd98pxko
p133
I1
sVd3g689o
p134
I1
sVdiuc6by
p135
I1
sVczbg6ps
p136
I1
sVdao3xsw
p137
I1
sVd9hsvqr
p138
I1
sVcyozvkr
p139
I1
sVdakpyor
p140
I1
sVd3i40fc
p141
I1
sVda2uc9u
p142
I1
sVdoob55p
p143
I1
sVd19cv6i
p144
I1
sVdatwqi1
p145
I1
sVd2w3uq9
p146
I1
sVdg5e07m
p147
I1
sVd0kyuv2
p148
I1
sVd32bfux
p149
I1
sVd1ikkdg
p150
I1
sVdp92hsc
p151
I1
sVdo17usw
p152
I1
sVd6yb1d7
p153
I1
sVdfbz4ju
p154
I1
sVd8lnpza
p155
I1
sVdgh25rd
p156
I1
sVddbrq7c
p157
I1
sVcyrwy62
p158
I1
sVczjd9ah
p159
I1
sVd87w4t8
p160
I1
sVddspcs1
p161
I1
sVcynpwjg
p162
I1
sVd8pqjdb
p163
I1
sVd6h272w
p164
I1
sVde6vdf8
p165
I1
sVddbrq7u
p166
I1
sVdr92dkq
p167
I1
sVds72did
p168
I1
sVd474ino
p169
I1
sVdt6jji3
p170
I1
sVdh3nnp7
p171
I2
sVdjs810s
p172
I1
sVdaufodi
p173
I1
sVcyiiwxn
p174
I1
sVdad8ebb
p175
I1
sVd6cmegn
p176
I1
sVd2vzq08
p177
I1
sVdsjulr8
p178
I1
sVd8rgubu
p179
I1
sVdn0hcgx
p180
I8
sVdedlpvb
p181
I1
sVddi6xr0
p182
I1
sVd178dfu
p183
I1
sVdqfdh2a
p184
I1
sVdjtanyk
p185
I1
sVd0qvg29
p186
I1
sVczsbs6s
p187
I1
sVd03fhrf
p188
I1
sVdh7hyuz
p189
I1
sVd2lu80v
p190
I1
sVdt3bsbk
p191
I1
sVd8ituc3
p192
I1
sVdssrurm
p193
I1
sVd9k9w8j
p194
I2
sVd0f488i
p195
I1
sVdgj48x4
p196
I1
sVdn0jbos
p197
I2
sVdj7cuya
p198
I1
sVdbf4hg3
p199
I1
sVdoad7v7
p200
I1
sVd2lv3ra
p201
I1
sVdesflf7
p202
I1
sVd01j4hr
p203
I1
sVdcnblzq
p204
I1
sVdco0qm0
p205
I1
sVdknu6nf
p206
I1
sVdgf7xng
p207
I1
sVdav9qy9
p208
I1
sVd7kj1gy
p209
I1
sVdk13akb
p210
I1
sVd0gwz58
p211
I1
sVd9f0zqf
p212
I1
sVdt2wnic
p213
I1
sVd7kexam
p214
I1
sVdqdb731
p215
I1
sVdr4x6mv
p216
I1
sVdp3bgzj
p217
I1
sVd8mebsf
p218
I1
sVczz3gui
p219
I1
sVd2kolqq
p220
I1
sVczqk1vr
p221
I1
sVd8pshe1
p222
I1
sVdhzgc5v
p223
I1
sVd2wh55k
p224
I1
sVdehuvyo
p225
I3
sVdmsizjd
p226
I1
sVd00rzvl
p227
I1
sVd75fzd4
p228
I1
sVczsl3et
p229
I1
sVd8so9b4
p230
I1
sVdcxdxdg
p231
I6
sVdjmzaau
p232
I1
sVd2l2v3w
p233
I1
sVdip788g
p234
I1
sVd34qyre
p235
I1
sVd1tvp3c
p236
I1
sVdau2ko5
p237
I1
sVd1g1b2o
p238
I1
sVd0226ty
p239
I1
sVd627s8x
p240
I1
sVdc5hl56
p241
I1
sVd6e79uj
p242
I1
sVd3zj2md
p243
I1
sVd2lgkbd
p244
I1
sVczga99o
p245
I1
sVdk2bzvk
p246
I1
sVd2t9909
p247
I1
sVd6ajzr7
p248
I1
sVd9fj1di
p249
I1
sVdovq1t7
p250
I1
sVd6wjegk
p251
I1
sVdb4axri
p252
I2
sVcz7cjqw
p253
I1
sVds8bctx
p254
I1
sVdi03a6e
p255
I1
sVd03boq0
p256
I1
sVdcqdgdx
p257
I1
sVcyobcpg
p258
I1
sVdj8kvty
p259
I1
sVdeet3un
p260
I1
sVdd00vhz
p261
I1
sVd3jchjn
p262
I1
sVdpoqp86
p263
I1
sVd1pyx9i
p264
I1
sVdmognlk
p265
I1
sVdfooycg
p266
I1
sVd4b800h
p267
I1
sVd6etb1z
p268
I1
sVdcg2x98
p269
I2
sVd2tnnmt
p270
I2
sVdbbzwqr
p271
I1
sVd1hbhwa
p272
I1
sVdaxlou2
p273
I1
sVd49tpzo
p274
I1
sVd4tiqp9
p275
I1
sVdncak7b
p276
I1
sVdjmuk59
p277
I2
sVcynd2ke
p278
I1
sVd2q0iro
p279
I2
sVd20entb
p280
I2
sVcz7so2b
p281
I1
sVd1uvlsp
p282
I1
sVczge15w
p283
I1
sVd7t8z0d
p284
I1
sVdpfs81m
p285
I1
sVdensby9
p286
I1
sVd2ktiix
p287
I1
sVdjjcgz3
p288
I3
sVd2wsz0v
p289
I1
sVd1f0674
p290
I1
sVczsgp7z
p291
I1
sVdbnq68g
p292
I1
sVd06sx72
p293
I1
sVdi47qzj
p294
I1
sVcz7e1rc
p295
I1
sVddxq3ep
p296
I1
sVdhdc6la
p297
I1
sVdr1ahzb
p298
I1
sVdfpdeg6
p299
I1
sVdbi9y46
p300
I1
sVd0gmxye
p301
I1
sVdelgkg9
p302
I1
sVd8vbixo
p303
I2
sVdbirfjj
p304
I1
sVdhx7ize
p305
I1
sVd998iif
p306
I1
sVdmvwmpc
p307
I1
sVdat4uqz
p308
I2
sVd7erjd7
p309
I1
sVcz2aeyi
p310
I1
sVd31d2hp
p311
I1
sVddubveb
p312
I1
sVd67gwo4
p313
I1
sVczl3d4i
p314
I1
sVd1zxtnk
p315
I1
sVczj4ms4
p316
I1
sVd9jues4
p317
I1
sVd24oa2y
p318
I1
sVd2sakja
p319
I1
sVd0kjare
p320
I1
sVdnyknqb
p321
I1
sVd6o1f3r
p322
I1
sVd1g45zj
p323
I1
sVd072l2w
p324
I1
s.