(dp0
Vcyt4k27
p1
I1
sVd1ef7gr
p2
I1
sVda8v6w4
p3
I1
sVdacsodw
p4
I1
sVd0f40tl
p5
I1
sVd95s2cy
p6
I1
sVdj02ct7
p7
I1
sVdgth1u1
p8
I1
sVde42m81
p9
I1
sVda19nx1
p10
I1
sVdoij8c1
p11
I1
sVdsy67m6
p12
I1
sVd39xs04
p13
I1
sVd2dtrz7
p14
I1
sVdg3myfl
p15
I1
sVd752q4r
p16
I1
sVd6hiw7c
p17
I1
sVdbkakxr
p18
I1
sVdb7bl24
p19
I1
sVde2mbdx
p20
I1
sVcywa483
p21
I1
sVd2k0bv7
p22
I1
sVcykp0gk
p23
I1
sVddiernj
p24
I1
sVd9yxjx3
p25
I1
sVdjnio6d
p26
I1
sVds471ba
p27
I1
sVdau2ko5
p28
I1
sVdt30bnj
p29
I1
sVdf9tvna
p30
I2
sVdjc6v9p
p31
I1
sVdcue3ay
p32
I1
sVdod69sj
p33
I1
sVcz3f1ij
p34
I1
sVdgqbquw
p35
I1
sVdpdaeor
p36
I1
sVd6dya88
p37
I1
sVd2lm43z
p38
I1
sVdggqy3w
p39
I1
sVczshxrj
p40
I1
sVdhsxr8v
p41
I1
sVd2abc5k
p42
I1
sVd0zmhfu
p43
I1
sVd34rllx
p44
I1
sVd013rts
p45
I1
sVdo4pn72
p46
I1
sVcz71oe2
p47
I1
sVczyd953
p48
I1
sVdtalb6b
p49
I1
sVd19ethc
p50
I1
sVd5x82m3
p51
I1
sVda9f637
p52
I1
sVd49sgxq
p53
I1
sVd6ncx8u
p54
I1
sVdkik89v
p55
I1
sVdbrnejs
p56
I1
sVdkjer9f
p57
I1
sVdcc83dz
p58
I1
sVd2emgkp
p59
I2
sVddawcxn
p60
I1
s.