(dp0
Vdjxse1c
p1
I2
sVdd6zl8g
p2
I1
sVd6pxifj
p3
I1
sVd29bccb
p4
I1
sVdsf8m3c
p5
I1
sVd1453xm
p6
I1
sVdaxt6rv
p7
I1
sVd4tx5wf
p8
I1
sVd0gzie8
p9
I1
sVddw86p1
p10
I1
sVdf96nfz
p11
I1
sVcz8110g
p12
I1
sVdr67300
p13
I1
sVdctuxc7
p14
I1
sVdcawxrw
p15
I1
sVdcwfuaq
p16
I1
sVddzyybk
p17
I1
sVdkhbbxm
p18
I1
sVdftk3mt
p19
I1
sVdgmz71y
p20
I1
sVdbehk7f
p21
I1
sVdjopqzv
p22
I1
sVd81fvjo
p23
I1
sVdd1urcl
p24
I1
sVdhaw35g
p25
I2
sVdfekiv4
p26
I1
sVd9bgumz
p27
I1
sVdc9wq32
p28
I1
sVdgqxpua
p29
I1
sVcyveh13
p30
I1
sVdbnsxtp
p31
I1
sVd5wtkcf
p32
I1
sVdpypywc
p33
I1
sVdc36jra
p34
I1
sVcz6402l
p35
I1
sVd1udpcb
p36
I1
sVdbfpxaj
p37
I1
sVd1trg8d
p38
I1
sVdiopomj
p39
I2
sVd3yg4ye
p40
I1
sVd2bt4dz
p41
I1
sVd14c972
p42
I1
sVdi6qk2d
p43
I1
sVd6bt0aq
p44
I1
sVdo0p22a
p45
I1
sVdayq3gl
p46
I1
sVdkybcdx
p47
I1
sVdfikfrz
p48
I2
sVd9muhf5
p49
I2
sVczstd3s
p50
I1
sVdkdwvgx
p51
I1
sVdisa6f5
p52
I1
sVdjrggkz
p53
I1
sVd61lpc4
p54
I1
sVdc2zx7x
p55
I1
sVdcabxrs
p56
I1
sVddc86ad
p57
I1
sVdr32fff
p58
I1
sVdjdi25v
p59
I1
sVd4r6dmf
p60
I1
sVd9ntam5
p61
I3
sVddjhd6g
p62
I2
sVdtfqdgj
p63
I2
sVdk0y1dl
p64
I1
sVdpptet5
p65
I1
sVczasciv
p66
I1
sVcyocqzx
p67
I1
sVdgoluu6
p68
I2
sVczjx86a
p69
I1
sVdjtjnli
p70
I1
sVd3xe7sj
p71
I1
sVdeqfs8e
p72
I1
sVd2kv9oz
p73
I1
sVdiik0wn
p74
I1
sVczasy7t
p75
I1
sVdnxvlot
p76
I1
sVd6i6jfb
p77
I1
sVdfuqwna
p78
I1
sVdb7bn9i
p79
I1
sVd8enn41
p80
I1
sVcyku4i1
p81
I2
sVd5d4bzs
p82
I1
sVd9t8ii2
p83
I1
sVddtx3qr
p84
I1
sVd9k1vdx
p85
I1
sVdghhrjg
p86
I1
sVdgk0ap7
p87
I1
sVd2aw178
p88
I1
sVd4vhg0h
p89
I1
sVd7megjm
p90
I1
sVdgnr9tf
p91
I1
sVcykusi1
p92
I2
sVd8piol4
p93
I1
sVcypk819
p94
I1
sVd4pnz9u
p95
I1
sVdaynnz1
p96
I1
sVdjvj011
p97
I1
sVdh0nojj
p98
I1
sVdepbemk
p99
I1
sVd5vz9ts
p100
I1
sVdd80iro
p101
I1
sVdd50f3m
p102
I1
sVdbz5mt4
p103
I1
sVdcpnxk7
p104
I1
sVd9d46m4
p105
I1
sVdbvzkvq
p106
I2
sVda7hoft
p107
I1
sVdhx9swe
p108
I1
sVdp3k7pl
p109
I1
sVdf9ajgy
p110
I2
sVdfxjyst
p111
I1
sVdow5gh9
p112
I1
sVdccbkge
p113
I1
sVczkyluy
p114
I1
sVd2uytjl
p115
I1
sVdn1kqu5
p116
I2
sVd680bvy
p117
I1
sVdb2nfg3
p118
I2
sVdr4zjfx
p119
I1
sVd5fn20l
p120
I1
sVcz13ajt
p121
I1
sVd4dxyqj
p122
I1
sVd43puxy
p123
I1
sVdisndbg
p124
I1
sVd0yb8qn
p125
I1
sVd6c57de
p126
I1
sVdgmsl9u
p127
I1
sVdeppvus
p128
I1
sVd8an1a1
p129
I1
sVcziaa2w
p130
I1
sVd6aegss
p131
I1
sVd3cicrs
p132
I1
sVd3chot8
p133
I1
sVd40709z
p134
I1
sVdi580i2
p135
I1
sVd6j4jsr
p136
I1
sVdjml9v3
p137
I2
sVd5jbq8o
p138
I1
sVd367zmf
p139
I1
sVdmm1n5o
p140
I1
sVd17qvm0
p141
I1
sVd93j4z3
p142
I1
sVdoeqv08
p143
I1
sVdazu8uj
p144
I1
sVddhnq9m
p145
I1
sVdeq7b7p
p146
I1
sVdoo3o78
p147
I1
sVdggvfn1
p148
I1
sVdd5btol
p149
I1
sVd7rpjco
p150
I1
sVdi56d12
p151
I1
sVd29i861
p152
I1
sVda4w4nv
p153
I1
sVd72racp
p154
I1
sVd17gbrt
p155
I1
sVd8pk3ww
p156
I1
sVdaj5508
p157
I1
sVdfk33bh
p158
I1
sVdr3xwre
p159
I1
sVdesglal
p160
I1
sVd0ek051
p161
I1
sVdpld6ih
p162
I1
sVd4o6zg6
p163
I1
sVdd0mric
p164
I1
sVd0jlq9h
p165
I1
sVd6ot09d
p166
I1
sVdqwxzaf
p167
I2
sVdhndpqe
p168
I1
sVd9vg28d
p169
I1
sVdhcjq52
p170
I1
sVdbifpps
p171
I2
sVd2em0la
p172
I1
sVdejaqr6
p173
I1
sVcz92ouu
p174
I1
sVd0xsq4v
p175
I1
sVd42isi8
p176
I1
sVdh30yoh
p177
I1
sVd8rhfbp
p178
I1
sVd3ci1v9
p179
I1
sVdaj4ze5
p180
I1
sVd1lvczw
p181
I1
sVdqky25p
p182
I1
sVdazv6n2
p183
I1
sVdhmdvo4
p184
I1
sVczdf1el
p185
I1
sVd52y6ho
p186
I1
sVcyv0cpk
p187
I1
sVdmh93ym
p188
I1
sVd1d88ld
p189
I1
sVcyqcko8
p190
I1
sVdffbjvo
p191
I1
sVdpwvirt
p192
I1
sVczfd2tb
p193
I1
sVd8nvb2b
p194
I1
sVdhkfc8y
p195
I1
sVd95e461
p196
I1
sVczomevs
p197
I1
sVdgnhn9m
p198
I1
sVd2hg0v0
p199
I1
sVczh15u3
p200
I1
sVdngxccm
p201
I1
sVdamism6
p202
I2
sVdd8pg2b
p203
I1
sVd14pylh
p204
I1
sVd0tonvy
p205
I1
sVdi4eq73
p206
I1
sVcyv9w18
p207
I1
sVd8yygir
p208
I1
sVd1wa1lc
p209
I1
sVdait42b
p210
I1
sVdi12gur
p211
I1
sVd1gnbvl
p212
I1
sVczw8ct5
p213
I1
sVde6z03a
p214
I1
sVd0lbwsq
p215
I2
sVdc3fzes
p216
I1
sVdel6el4
p217
I1
sVd56k0bp
p218
I1
sVdbdhjav
p219
I1
sVcyx2z6v
p220
I1
sVd9687kr
p221
I1
sVd6fs3nh
p222
I1
sVdeqcco6
p223
I1
sVczu9eb2
p224
I1
sVdi5g2ky
p225
I1
sVdd8nh3p
p226
I1
sVdrg9z2q
p227
I2
sVczh5tr4
p228
I1
sVdawveca
p229
I1
sVd1krihy
p230
I1
sVdpcuc3n
p231
I1
sVd09vyen
p232
I1
sVdfkyy2a
p233
I1
sVd1d8hw4
p234
I1
sVd9dfdgh
p235
I1
sVd1evf7l
p236
I1
sVdhe2n88
p237
I1
sVdhzh2mv
p238
I1
sVcyruqm5
p239
I1
sVcyyd1qi
p240
I2
sVdgn6f1l
p241
I1
sVdmncwez
p242
I1
sVd8b90s3
p243
I1
sVd6j97en
p244
I1
sVdrcaa32
p245
I1
sVd9n0xg3
p246
I1
sVd0z35j5
p247
I1
sVdbd36ot
p248
I1
sVd8gefwh
p249
I1
sVddiiph7
p250
I1
sVdhqprrx
p251
I1
sVdauagc5
p252
I1
sVd2pi1qr
p253
I1
sVdor760e
p254
I1
sVdjdqze4
p255
I1
sVdf2wpru
p256
I1
sVd0wnirh
p257
I1
sVd1mcqri
p258
I1
sVdazxjgd
p259
I1
sVdgwq0ul
p260
I1
sVddus25x
p261
I1
sVdkiuwfl
p262
I1
sVd3ej5qy
p263
I1
sVdcphm2m
p264
I1
sVdg1kpv2
p265
I1
sVdaznfrv
p266
I1
sVd3mgfal
p267
I1
sVdfwvp3q
p268
I1
sVczzxm65
p269
I1
sVdkwftbd
p270
I1
sVd25yexb
p271
I2
sVd0icfmp
p272
I1
sVdfpfybg
p273
I2
sVd3rvmfy
p274
I2
sVczf05d8
p275
I2
sVddj8wsg
p276
I1
sVcypqywq
p277
I1
sVd219l8t
p278
I1
sVd4j3eeu
p279
I1
sVd5dc2vi
p280
I1
sVdirgbtt
p281
I1
sVd0btcbr
p282
I1
sVd7ebuh1
p283
I1
sVd50wdzs
p284
I1
sVdetz20e
p285
I1
sVde66njn
p286
I1
sVdgcol93
p287
I1
sVdgnn2d9
p288
I1
sVdkk6c3q
p289
I1
sVd6h6csz
p290
I1
sVd20daes
p291
I1
sVd0cj63k
p292
I1
sVd4atirq
p293
I1
sVd67clb0
p294
I2
sVdb4u8zg
p295
I1
sVdjr5927
p296
I1
sVdg15e1x
p297
I2
sVd01ucno
p298
I1
sVddexuvi
p299
I1
sVdehmr6k
p300
I3
sVd3z7ijh
p301
I1
sVdbgmghc
p302
I1
sVdb8dcni
p303
I1
sVd6mkcln
p304
I1
sVd9zr3ix
p305
I1
sVd429yuf
p306
I1
sVd05t9qk
p307
I1
sVd47vi5d
p308
I1
sVd67wpw3
p309
I1
sVdfvhatt
p310
I1
sVd050n76
p311
I1
sVd6culg7
p312
I1
sVdr5hmrt
p313
I1
sVda1x4c0
p314
I1
sVdhd6y6y
p315
I1
sVd3h5sq1
p316
I2
sVdegl6p0
p317
I1
sVd7tas0b
p318
I1
sVdk4ezrb
p319
I1
sVcyp0tm8
p320
I1
sVd34zdo6
p321
I1
sVd5nqw1d
p322
I1
sVd3bc1xo
p323
I2
sVd0o01wb
p324
I1
sVdj9ljnt
p325
I1
sVdf6jrd5
p326
I1
sVdgkbxwr
p327
I1
sVdht62x1
p328
I1
sVdgkzk55
p329
I1
sVd2jiols
p330
I1
sVd1q1nyv
p331
I1
sVdagk7m3
p332
I1
sVdi170gy
p333
I1
sVdgn794p
p334
I1
sVdc5l4vg
p335
I1
sVd8zv179
p336
I1
sVd1iyu1j
p337
I1
sVdpqcs2y
p338
I1
sVd4in9qw
p339
I1
sVd2c7moc
p340
I1
sVd5je1cp
p341
I1
sVdb44jhq
p342
I1
sVdq88tlo
p343
I1
sVd52kbfw
p344
I1
sVdeh4yzv
p345
I1
sVdheufe0
p346
I1
sVcyjalsi
p347
I1
sVdnh3er9
p348
I1
sVd27giwx
p349
I1
sVdc23jc2
p350
I1
sVdecmwwd
p351
I1
sVd7w03jm
p352
I1
sVdjo9jg2
p353
I1
sVd59ehsd
p354
I1
sVdiys7w2
p355
I1
sVd1wwg61
p356
I1
sVde9phpg
p357
I1
sVdo8qewv
p358
I1
sVdqgpv8e
p359
I1
sVd6ls91c
p360
I1
sVdec3p3g
p361
I3
sVd3b3rr8
p362
I1
sVd2j9914
p363
I1
sVdj32otp
p364
I1
sVda7x8sf
p365
I1
sVdidt1uf
p366
I1
sVddjwts8
p367
I1
sVdkprdtv
p368
I1
sVd2vc3co
p369
I1
sVd5uqhks
p370
I1
sVdemipsb
p371
I1
sVd1pfxoi
p372
I1
sVczsgak4
p373
I1
sVd74f0ml
p374
I1
sVdc90abp
p375
I1
sVcz4xgkz
p376
I1
sVdkgjscv
p377
I1
sVdtaqgvn
p378
I1
sVdscdeey
p379
I1
sVde2z9on
p380
I2
sVdognt6h
p381
I1
sVdmhul1d
p382
I1
sVd6wsp9v
p383
I1
sVdo98o0t
p384
I1
sVczc1zn2
p385
I1
sVd4twc3f
p386
I1
sVdejhzuw
p387
I1
sVd969jjb
p388
I1
sVdmf12zd
p389
I1
sVd9o578e
p390
I1
sVdnitln3
p391
I1
sVd4mwvyk
p392
I1
sVd0iljhk
p393
I3
sVd2jokq5
p394
I1
sVd0iodu8
p395
I1
sVdggwz5k
p396
I1
sVdecee5p
p397
I1
sVdqgxsvm
p398
I1
sVdmfnohs
p399
I1
sVdd63eku
p400
I1
sVdda41ot
p401
I1
sVdsjev9b
p402
I1
sVdqk6oek
p403
I1
sVd32dt3f
p404
I1
sVd1s3uap
p405
I1
sVdhbmnua
p406
I1
sVd6c0u6j
p407
I1
sVd9i2zpm
p408
I1
sVdbl17g2
p409
I1
sVd6trb21
p410
I1
sVdhjgeu5
p411
I1
sVd0im0jg
p412
I1
sVd1u3fku
p413
I1
sVdjtjotm
p414
I1
sVdpfhapr
p415
I1
sVdcrjqss
p416
I1
sVdrdobun
p417
I1
sVdgzusff
p418
I1
sVcykm08y
p419
I1
sVdcgm5vw
p420
I1
sVdft6sfr
p421
I1
sVdafc3ym
p422
I1
sVd63vyg7
p423
I1
sVd1cs3xm
p424
I1
sVcyr3j3m
p425
I1
sVd26zhry
p426
I1
sVdajkywi
p427
I3
sVd591yyg
p428
I1
sVddwzjga
p429
I1
sVd6bzvmf
p430
I1
sVdhgsq59
p431
I1
sVdpgym7b
p432
I2
sVdexanwx
p433
I2
sVdbjd7n8
p434
I1
sVdbityzs
p435
I1
sVd3nalin
p436
I1
sVd9l5ke2
p437
I1
sVdguxi94
p438
I1
sVdjdiu13
p439
I1
sVddxddtu
p440
I1
sVczxpz29
p441
I1
sVd0p0aaa
p442
I1
sVcz2855t
p443
I1
sVd4k91y6
p444
I1
sVdqftrny
p445
I1
sVdk6d4b2
p446
I1
sVdtji25y
p447
I1
sVdaatqzx
p448
I1
sVdfftjst
p449
I1
sVdhgrupp
p450
I1
sVdei7v7q
p451
I1
sVd8ip9gy
p452
I1
sVcz0ql4q
p453
I1
sVd7do4z7
p454
I1
sVd8qa0p1
p455
I1
sVd2v0tb1
p456
I1
sVde0fz46
p457
I2
sVdas23jd
p458
I1
sVcyly2xs
p459
I1
sVdflame2
p460
I1
sVdcet5pj
p461
I1
sVdh392j0
p462
I1
sVdbbzwl8
p463
I1
sVdsqhcgr
p464
I1
sVd1dpd8y
p465
I1
sVd0pq5ju
p466
I2
sVd2aobgr
p467
I1
sVd0wm1q1
p468
I1
sVdmowfml
p469
I2
sVdf5309z
p470
I1
sVdfeseaz
p471
I1
sVdhuhwlf
p472
I2
sVdhlcrjs
p473
I1
sVdazebnc
p474
I1
sVdsuli5a
p475
I1
sVdt52vf4
p476
I1
sVdfwvyv8
p477
I1
sVdirs786
p478
I1
sVd1kezki
p479
I1
sVczx14wt
p480
I1
sVd95elvf
p481
I1
sVczcec4u
p482
I1
sVdhjf91x
p483
I1
sVdaciayv
p484
I1
sVd9suivf
p485
I1
sVd295xnu
p486
I1
sVd2v7h3d
p487
I1
sVczcixsh
p488
I1
sVdfdn3le
p489
I1
sVdjdqec9
p490
I1
sVd2ozpqf
p491
I1
sVdkog1ox
p492
I1
sVdcxlv1t
p493
I1
sVdr59aiu
p494
I1
sVdkowbce
p495
I1
sVd28ye2d
p496
I1
sVdddlxd5
p497
I1
sVcyp2zhl
p498
I1
sVdkipbgt
p499
I1
sVdfgcxx8
p500
I1
sVd2qwyji
p501
I1
sVd5avemu
p502
I2
sVczblx5r
p503
I1
sVd3uewnm
p504
I1
sVdao5dx6
p505
I1
sVdgzvs57
p506
I1
sVdao4f27
p507
I1
sVd6hqdm2
p508
I2
sVczakvw5
p509
I1
sVd9hbvo8
p510
I1
sVd8sssic
p511
I1
sVd47aztn
p512
I1
sVd6mlxhv
p513
I1
sVd4mazeo
p514
I1
sVd5xny7u
p515
I1
sVdhs3he0
p516
I1
sVcz1n3m9
p517
I1
sVcz6k5un
p518
I1
sVdafz4vl
p519
I1
sVdszrtao
p520
I1
sVd47cck3
p521
I1
sVcyv8bgh
p522
I1
sVdkm91kx
p523
I1
sVcyrvtiu
p524
I1
sVd1cxkae
p525
I1
sVd3ezxnt
p526
I1
sVdqxx1r8
p527
I1
sVdmmi5vf
p528
I1
sVdk9vesw
p529
I1
sVd9enx6w
p530
I1
sVd1jds44
p531
I1
sVdejg8xk
p532
I1
sVdbwx378
p533
I1
sVd70mwrz
p534
I1
sVd7jjrep
p535
I1
sVda76l4u
p536
I1
sVczsg1m7
p537
I1
sVdibfaq8
p538
I1
sVcyiwthd
p539
I1
sVd42cbeg
p540
I1
sVd69krnj
p541
I1
sVdb26jjk
p542
I1
sVdduxwpi
p543
I1
sVdcbkxhn
p544
I1
sVdhcikzf
p545
I1
sVczf1ap7
p546
I1
sVdhp125c
p547
I1
sVdejfi46
p548
I1
sVd4l1xc6
p549
I1
sVd6zlran
p550
I1
sVd2mx7ia
p551
I1
sVd1j3nna
p552
I1
sVd2dikjl
p553
I1
sVcz713mg
p554
I1
sVczyx28f
p555
I1
sVdg2tnal
p556
I1
sVds1itl9
p557
I1
sVd1oex8c
p558
I1
sVdbqfiw3
p559
I1
sVd7j9lc4
p560
I1
sVdmfwfl8
p561
I1
sVcytz8ib
p562
I1
sVdj6ijb1
p563
I1
sVd2kpkf5
p564
I1
sVd8peodt
p565
I1
sVd6c88yr
p566
I1
sVdp946ly
p567
I1
sVdey5a6c
p568
I1
sVd69m96g
p569
I1
sVd2me43q
p570
I1
sVd3m6liv
p571
I1
sVd37us0y
p572
I1
sVdc5ry6q
p573
I1
sVdihc91v
p574
I1
sVd5mfuwt
p575
I1
sVd5q63fx
p576
I1
sVd0hgh64
p577
I1
sVd02p8zz
p578
I1
sVd4h7r7g
p579
I1
sVd3opxe1
p580
I2
sVdelrxe9
p581
I1
sVd8msuv5
p582
I1
sVdn2lfkf
p583
I1
sVd091jea
p584
I1
sVdnejflv
p585
I1
sVd1czgq9
p586
I1
sVd623aew
p587
I1
sVd19injf
p588
I1
sVdbo80u9
p589
I2
sVd01b4sx
p590
I1
sVd57vc3w
p591
I1
sVdmrmthd
p592
I1
sVdflsser
p593
I1
sVd9z495k
p594
I1
sVdfetdu6
p595
I3
sVdnqr1o0
p596
I1
sVdhglx9d
p597
I1
sVd14a30g
p598
I1
sVdt2h5tq
p599
I1
sVd19kycv
p600
I1
sVdnbo39u
p601
I1
sVdajtflm
p602
I1
sVd2r0b77
p603
I2
sVd6njlx0
p604
I1
sVdcwhstb
p605
I1
sVd1oqzt9
p606
I1
sVdcumi41
p607
I1
sVd66egsh
p608
I1
sVdcbv016
p609
I1
sVdru74s8
p610
I3
sVdprrpn1
p611
I2
sVd4lxtfq
p612
I1
sVdj6l8pm
p613
I1
sVdbf37oc
p614
I1
sVdsdxgsl
p615
I1
sVdbwipiq
p616
I1
sVd9by86s
p617
I1
sVdgls27e
p618
I2
sVd0gja32
p619
I1
sVd10gr2f
p620
I1
sVdqowqe9
p621
I1
sVdqgsm0m
p622
I1
sVdpvld5v
p623
I1
sVdabjzux
p624
I1
sVdmvk87t
p625
I1
sVdh1fev3
p626
I1
sVcynjy1p
p627
I1
sVd4lxloh
p628
I1
sVd8i0fgf
p629
I1
sVde539mb
p630
I3
sVdd1o3kk
p631
I1
sVd5oppej
p632
I2
sVd7c2m1h
p633
I1
sVdego988
p634
I1
sVcz4l6pd
p635
I1
sVdqeu9fn
p636
I1
sVddu233g
p637
I1
sVda0ioeb
p638
I1
sVd6zy9h3
p639
I5
sVdal6b83
p640
I1
sVdh53cb8
p641
I2
sVd7q7jdk
p642
I1
sVd5y1vms
p643
I1
sVczezz7k
p644
I1
sVcz0jt22
p645
I1
sVdryk33b
p646
I1
sVcyux19k
p647
I1
sVdi3geli
p648
I1
sVddzvda6
p649
I1
sVdf1wciq
p650
I1
sVdhqx51k
p651
I1
sVdmfc8gq
p652
I1
sVd3xyw3q
p653
I1
sVd9uvs61
p654
I1
sVd75yk5j
p655
I1
sVdcquejf
p656
I1
sVcznphgy
p657
I1
sVd644qjy
p658
I1
sVdc8vo8a
p659
I1
sVdamjgk6
p660
I1
sVdra6toh
p661
I1
sVd1wrxgd
p662
I1
sVd1fv8lz
p663
I1
sVdk4gojo
p664
I1
sVd0km30d
p665
I1
sVdcp7gjs
p666
I1
sVd7aj4kc
p667
I1
sVd5gzy3e
p668
I1
sVd1e83ze
p669
I1
sVd60a7y4
p670
I1
sVdh2ca2m
p671
I1
sVdbjtn22
p672
I2
sVczhm43v
p673
I1
sVd8ciclh
p674
I1
sVdf8xa2w
p675
I3
sVd1z16r2
p676
I1
sVd1sblyg
p677
I1
sVd6sky6v
p678
I1
sVdpwujdy
p679
I1
sVd6s1rdn
p680
I1
sVdf90qmj
p681
I1
sVdsppuhe
p682
I2
sVddk6ubi
p683
I1
sVdh94frl
p684
I1
sVd7eoqy7
p685
I1
sVd5ivp0c
p686
I1
sVd346qi0
p687
I1
sVd7wizsi
p688
I1
sVdbp82j3
p689
I1
sVd65ex1p
p690
I1
sVdeop4v6
p691
I1
sVcynzkqr
p692
I1
sVczh62dx
p693
I1
sVd7felgg
p694
I1
sVd3kj6rd
p695
I1
sVdainp8n
p696
I1
sVdjw90ar
p697
I1
sVdgcw3pf
p698
I1
sVdel8i6p
p699
I1
sVda60767
p700
I1
sVd85rgt1
p701
I1
sVd8x8uut
p702
I1
sVdfhyly7
p703
I3
sVcz4gn22
p704
I1
sVdf64dd5
p705
I1
sVdix5i2j
p706
I1
sVdsf6va9
p707
I1
sVd65vlb4
p708
I1
sVcyqsjp4
p709
I1
sVd6vq5r5
p710
I1
sVd0866ju
p711
I1
sVdhgmqjj
p712
I1
sVczxlqku
p713
I1
sVd65qi2l
p714
I1
sVcz6b26r
p715
I1
sVd8bjnq9
p716
I1
sVcz5x0hv
p717
I1
sVdaue8h9
p718
I1
sVdff4bsu
p719
I1
sVd62buzl
p720
I1
sVd0bbnja
p721
I1
sVdp8oqjd
p722
I1
sVddd8olp
p723
I2
sVd8rpzzd
p724
I1
sVd2smb0e
p725
I2
sVdcu0rue
p726
I1
sVd9gp2rf
p727
I1
sVd6ml7d5
p728
I1
sVdbw6836
p729
I1
sVd5ucbv8
p730
I1
sVd33wtj2
p731
I1
sVcyrf2y4
p732
I1
sVd00iqmc
p733
I1
sVdhdk4qf
p734
I1
sVdnxr7sa
p735
I1
sVdhs0z8m
p736
I2
sVdsxjcyy
p737
I1
sVdow77sg
p738
I1
sVdjcr88n
p739
I1
sVdjdy2ab
p740
I2
sVcywul2u
p741
I1
sVddjlxi3
p742
I1
sVcyhvnr9
p743
I1
sVd730yku
p744
I1
sVdb7r2bg
p745
I2
sVdcvthte
p746
I1
sVdjsfzzm
p747
I1
sVcyqxks8
p748
I1
sVd6irzlh
p749
I1
sVdmujnn0
p750
I1
sVdbecmw4
p751
I1
sVd410aiz
p752
I1
sVdep8u26
p753
I1
sVd9mcg5m
p754
I1
sVcz8dy1f
p755
I1
sVdrbglep
p756
I1
sVd0dum42
p757
I1
sVd0fs6db
p758
I1
sVdir3muo
p759
I1
sVdhfvukk
p760
I1
sVd2f3uvu
p761
I1
sVd6sy83y
p762
I1
sVd1hsdla
p763
I1
sVd6nd5sz
p764
I1
sVd2fhvqt
p765
I1
sVddktxtk
p766
I1
sVdevgwk7
p767
I1
sVdbgp7fl
p768
I1
sVdnel91t
p769
I1
sVd9qcefm
p770
I3
sVdfa8wup
p771
I1
sVdi55ixt
p772
I1
sVd3c1h8k
p773
I1
sVdangudx
p774
I1
sVdn4v29d
p775
I1
sVdcweq0h
p776
I1
sVdiwfsnx
p777
I1
sVd17scky
p778
I1
sVdkj932x
p779
I1
sVdcml4ke
p780
I1
sVdd50c05
p781
I1
sVd9evcjs
p782
I1
sVd0tzbe2
p783
I1
sVdn8o4oh
p784
I1
sVd0eaurt
p785
I1
sVdjqxs1q
p786
I1
sVd3jq3ge
p787
I1
sVdc9n762
p788
I2
sVdaza8if
p789
I1
sVdcbjqzh
p790
I1
sVdbyfz3h
p791
I1
sVdkcjtvg
p792
I1
sVd97d8zt
p793
I1
sVd22vh4i
p794
I1
sVdo42ihl
p795
I1
sVdblj8xe
p796
I1
sVdbbot74
p797
I1
sVdqumqhp
p798
I1
sVdbnu26q
p799
I1
sVddz4jir
p800
I1
sVd3nkhtn
p801
I1
sVd8brqs4
p802
I1
sVd3qb4mw
p803
I1
sVd40r5e8
p804
I2
sVdhjeo26
p805
I3
sVd6nfxlg
p806
I1
sVdhgarbl
p807
I1
sVdo8xpu0
p808
I1
sVczc0u6t
p809
I1
sVdfio3s8
p810
I1
sVd5wudlh
p811
I1
sVdhgr382
p812
I2
sVd8rrsl9
p813
I2
sVdp6kluq
p814
I1
sVd14897b
p815
I1
sVdfjqtkg
p816
I1
sVd03ksfg
p817
I1
sVdfkvwxi
p818
I1
sVcynd2ke
p819
I1
sVczxvazz
p820
I1
sVdjzuq6d
p821
I1
sVde1oy85
p822
I1
sVdpjof62
p823
I1
sVded8erf
p824
I1
sVd2ejvbp
p825
I1
sVds195qi
p826
I1
sVd2fezqu
p827
I1
sVdgx3nxv
p828
I1
sVd0esyq9
p829
I1
sVd0swwd6
p830
I1
sVd9cgegp
p831
I1
sVdf26wph
p832
I1
sVd17701t
p833
I1
sVddyqtya
p834
I1
sVd4ikx3b
p835
I1
sVdftem1r
p836
I1
sVdazyqj6
p837
I1
sVdib92b9
p838
I1
sVddrdqyi
p839
I1
sVczmz6ma
p840
I1
sVdind17p
p841
I1
sVd056gei
p842
I1
sVd2z1vrb
p843
I1
sVdhnq1on
p844
I1
sVd5nlsqr
p845
I1
sVdjpoc1r
p846
I1
sVdbzyhkx
p847
I2
sVdh7oyms
p848
I1
sVd3fks5x
p849
I1
sVd2yvw7b
p850
I1
sVcysyuyz
p851
I1
s.