(dp0
Vd9rnw5v
p1
I1
sVd7vtat2
p2
I1
sVd343oxt
p3
I1
sVd6dj6ph
p4
I1
sVd9ysnla
p5
I1
sVd27djjd
p6
I1
sVddhqk4d
p7
I1
sVdbzhuom
p8
I1
sVcz8pas8
p9
I1
sVd7h5yi7
p10
I1
sVdaenrp9
p11
I1
sVd6xdeey
p12
I1
sVdjutpcp
p13
I1
sVdfeek6g
p14
I1
sVd2k5th3
p15
I1
sVd8560fu
p16
I1
sVdheq6yx
p17
I1
sVdizi2op
p18
I1
sVcz6f0jr
p19
I1
s.