(dp0
Vczinktt
p1
I1
s.(dp0
Vczinktt
p1
I2
s.(dp0
Vczinktt
p1
I2
s.(dp0
Vczs00zz
p1
I1
sVczinktt
p2
I1
s.(dp0
Vd1celdj
p1
I1
sVczinktt
p2
I1
s.(dp0
Vd2hh66j
p1
I1
sVczinktt
p2
I1
s.(dp0
Vd4onc53
p1
I1
sVczinktt
p2
I1
s.(dp0
Vd5fn8oa
p1
I1
sVczinktt
p2
I1
s.(dp0
Vd5fnlk4
p1
I1
sVczinktt
p2
I1
s.(dp0
Vd6pauu9
p1
I1
sVczinktt
p2
I1
s.(dp0
Vczinktt
p1
I1
sVd85nvbs
p2
I1
s.(dp0
Vdcjafga
p1
I1
sVczinktt
p2
I1
s.(dp0
Vdcjafga
p1
I1
sVczinktt
p2
I1
s.(dp0
Vdcjafga
p1
I1
sVczinktt
p2
I1
s.(dp0
Vdcjafga
p1
I1
sVczinktt
p2
I1
s.(dp0
Vdcjafga
p1
I1
sVczinktt
p2
I1
s.(dp0
Vczinktt
p1
I1
sVdgmp0t8
p2
I1
s.(dp0
Vdiis4iw
p1
I1
sVczinktt
p2
I1
s.(dp0
Vdk7wu7t
p1
I1
sVczinktt
p2
I1
s.(dp0
Vczinktt
p1
I1
sVdmpq7xo
p2
I1
s.(dp0
Vdpy6ceh
p1
I1
sVczinktt
p2
I1
s.(dp0
Vdqe0p30
p1
I1
sVczinktt
p2
I1
s.