(dp0
Vcz82nnd
p1
I1
s.(dp0
Vcz82nnd
p1
I1
sVd19cl50
p2
I1
s.(dp0
Vcz82nnd
p1
I1
sVd3a2cc8
p2
I1
s.(dp0
Vcz82nnd
p1
I1
sVd71g024
p2
I1
s.(dp0
Vcz82nnd
p1
I1
sVd7tc4r5
p2
I1
s.(dp0
Vcz82nnd
p1
I1
sVd91wfwt
p2
I1
s.(dp0
Vcz82nnd
p1
I1
sVdcntrh9
p2
I1
s.(dp0
Vcz82nnd
p1
I1
sVdfgejkl
p2
I1
s.