(dp0
Vd9xqr03
p1
I1
sVdbnph29
p2
I1
sVd1yvkjo
p3
I1
sVdcw550a
p4
I1
sVczmfbdr
p5
I1
sVdjtanyk
p6
I1
sVd35uk7a
p7
I1
sVdjuoh3a
p8
I1
sVdahghyp
p9
I2
sVdjtdwns
p10
I1
sVcyk6eov
p11
I1
sVdinokpa
p12
I1
sVd2o9bp4
p13
I1
sVd9arwnw
p14
I1
sVde0h5qk
p15
I1
sVd895sce
p16
I2
sVd3r9i6q
p17
I1
sVdeqgks1
p18
I1
sVdaitbd0
p19
I1
sVdq2rfp0
p20
I1
sVdfakxxl
p21
I2
sVczip80d
p22
I1
sVd1n4khj
p23
I1
sVdo8dva9
p24
I1
sVdbngcog
p25
I1
sVd6w3if6
p26
I2
s.