(dp0
Vdjpxhsh
p1
I3
sVd5kohoc
p2
I3
sVdfplhrp
p3
I1
sVdmopuhv
p4
I1
sVczqq3f4
p5
I1
sVd5jf5b9
p6
I3
sVdfbbgnf
p7
I1
sVdpipkhj
p8
I3
sVdn6wixq
p9
I1
sVdaig97v
p10
I1
sVdnahict
p11
I1
sVddj6d9d
p12
I1
sVcyou61h
p13
I3
sVdh1wart
p14
I1
sVcyuldux
p15
I2
sVd4hxziw
p16
I1
sVcytojvj
p17
I1
sVdp47uty
p18
I1
sVdfp0o9r
p19
I1
sVdpp0w0g
p20
I1
sVdos20wt
p21
I2
sVd8j00ro
p22
I1
sVda6flg0
p23
I1
sVd01pb5n
p24
I3
sVczyp3rn
p25
I1
sVdj5lkxv
p26
I1
sVd1xemh8
p27
I1
sVdddbb69
p28
I1
sVd7m3iyd
p29
I1
sVczptmmg
p30
I1
sVdcfs0xl
p31
I1
sVdiu4x0f
p32
I1
sVdmxfolu
p33
I1
sVddx7nke
p34
I1
sVdq5fq76
p35
I1
sVddhcau1
p36
I1
sVd06mh5o
p37
I1
sVczsk80n
p38
I1
sVd2flm4q
p39
I2
sVdtcovcn
p40
I1
sVdmgvmo8
p41
I1
sVd7l7ur3
p42
I2
sVdn8hjfi
p43
I2
sVd68odfw
p44
I1
sVdcjpzab
p45
I1
sVd8gh359
p46
I2
sVd3hzaz8
p47
I1
sVdt2kqnh
p48
I1
sVdbq65yu
p49
I1
sVdq4o1sm
p50
I1
sVdk90lc7
p51
I3
sVddiw2n1
p52
I2
sVd7upjmi
p53
I2
sVdb8lux3
p54
I1
sVdjpyw4l
p55
I3
sVdjniwx6
p56
I1
sVdewihcq
p57
I1
sVd55ns37
p58
I1
sVd255tqo
p59
I1
sVddub9bt
p60
I1
sVdfo584a
p61
I2
sVd48ltc3
p62
I1
sVdczwkp8
p63
I1
sVd8t6yru
p64
I2
sVd992c8n
p65
I1
sVd7jafiz
p66
I1
sVdblxkg1
p67
I3
sVd72bynq
p68
I2
sVdsy3faa
p69
I1
sVdbx17ea
p70
I1
sVdjgxw7d
p71
I1
sVdi22d1e
p72
I2
sVdprg09y
p73
I1
sVcyuny2p
p74
I5
sVd2pbz65
p75
I1
sVdtcfbr5
p76
I1
sVdr377tq
p77
I1
sVdcfg5y1
p78
I1
sVdmp56jj
p79
I1
sVd7j8bcp
p80
I1
sVd4pkvv8
p81
I1
sVd2y7nlw
p82
I1
sVd2flk52
p83
I1
sVdh1t400
p84
I2
sVdj5n5tf
p85
I6
sVd3xofn9
p86
I1
sVdjciqha
p87
I1
sVdqv7bhl
p88
I1
sVdk9yr1y
p89
I1
sVd796sku
p90
I1
sVcywua1q
p91
I1
sVd1fq6lp
p92
I2
sVdg3bmo7
p93
I2
sVdg9fity
p94
I3
sVdkrbd5n
p95
I1
sVdazna2u
p96
I2
sVdri72ky
p97
I2
sVdt08g4n
p98
I1
sVd5xmsfl
p99
I4
s.