(dp0
Vd48k4jh
p1
I1
sVd4mgty2
p2
I1
sVdj3jwcw
p3
I1
sVd05hri1
p4
I1
sVdcbubnp
p5
I2
sVdddvanz
p6
I1
sVddntv45
p7
I1
sVdg1mmbh
p8
I1
sVd4or4v6
p9
I2
sVd6e7ojo
p10
I2
sVdsmaslw
p11
I1
sVdbfieni
p12
I2
sVd2dgs8c
p13
I1
sVdisqsqf
p14
I1
sVdrti93f
p15
I1
sVdn8s619
p16
I2
sVdavgewm
p17
I1
sVdaea603
p18
I2
sVddsypza
p19
I1
sVd6hiyzc
p20
I2
sVd0vrj05
p21
I3
sVdmswcet
p22
I1
sVdbp30xh
p23
I1
sVd8svliq
p24
I1
sVd7oa2mf
p25
I1
sVdkexj3x
p26
I1
sVd7lcef2
p27
I1
sVdd9vsr1
p28
I3
sVdid27wy
p29
I1
sVdgv76hb
p30
I1
sVddlf043
p31
I2
sVcyt2ucm
p32
I1
sVd8ge2jf
p33
I1
sVd5c9424
p34
I1
sVd2pivya
p35
I3
sVdag6xvh
p36
I1
sVdsyjoc3
p37
I1
sVdj2qzln
p38
I1
sVd27g4yj
p39
I1
sVdnwnsli
p40
I1
sVdp8oz11
p41
I1
sVdauj5n0
p42
I1
sVderp750
p43
I1
sVd5zv4s2
p44
I1
sVd813y6y
p45
I1
sVdo7x8s5
p46
I2
sVd9d5pse
p47
I1
sVdn625uy
p48
I2
sVdpgw9z1
p49
I1
sVdsehwcu
p50
I2
sVd3joeuj
p51
I1
sVd8ufb9s
p52
I1
sVdsna05j
p53
I1
sVdedbdhr
p54
I1
sVdhw50cn
p55
I1
sVdo812ju
p56
I5
sVdio32dy
p57
I1
sVd0cm32h
p58
I1
sVdj107me
p59
I1
sVd9qyylz
p60
I1
sVdktr6zc
p61
I1
sVd275wxj
p62
I1
sVdhxb7uc
p63
I1
sVddwr7ni
p64
I1
sVdetwjw7
p65
I1
sVdrcxglg
p66
I1
sVd682d1c
p67
I1
sVdbz7x9x
p68
I1
sVd2rnef6
p69
I1
sVdg1kpv2
p70
I1
sVd4xruh9
p71
I1
sVcz9lke0
p72
I2
sVczcq6n2
p73
I1
sVdoa7lb7
p74
I1
sVde8yaja
p75
I3
sVd51adxv
p76
I1
sVd4d5enz
p77
I5
sVdf6rebd
p78
I1
sVczfy007
p79
I2
sVdpvtkni
p80
I1
sVczkzukl
p81
I1
sVdbdon2r
p82
I1
sVdnzldtf
p83
I1
sVd5nlsqr
p84
I1
sVd4x0owf
p85
I1
sVddbwhkq
p86
I1
sVdkqg5xy
p87
I1
sVd38kd8q
p88
I1
sVdbzupg1
p89
I1
sVddqlx3w
p90
I1
sVdqpx2xo
p91
I1
sVcyq0u7a
p92
I1
sVdcghou3
p93
I1
sVd0p5hfl
p94
I1
sVdg5xao6
p95
I2
sVd0cj63k
p96
I1
sVdi2rfph
p97
I1
sVd5deqz0
p98
I1
sVds5i5xw
p99
I1
sVdgpx357
p100
I1
sVdbm81dq
p101
I1
sVdnc5zgl
p102
I1
sVdaee9jc
p103
I1
sVcyooayz
p104
I1
sVdft1rsa
p105
I1
sVd99jz3y
p106
I1
sVd0311vv
p107
I3
sVdkwoe85
p108
I1
sVd42mq09
p109
I9
sVds31au0
p110
I1
sVdhy3iyi
p111
I1
sVder03ut
p112
I1
sVdaoft32
p113
I1
sVdkdjhli
p114
I1
sVdrq0ilj
p115
I1
sVd3bjwk5
p116
I1
sVdan1io1
p117
I1
sVd3yaqh2
p118
I1
sVd15owf1
p119
I1
sVd4o2u4m
p120
I1
sVdspgtnf
p121
I1
sVdjd3z3s
p122
I1
sVdr52xv1
p123
I1
sVd0uigzk
p124
I2
sVdqvn4y7
p125
I1
sVd44pt1h
p126
I1
sVcypsb1b
p127
I1
sVdb0raxx
p128
I1
sVdrfovg6
p129
I1
sVd0jvyge
p130
I1
sVd5mn6xs
p131
I1
sVd8nnkoe
p132
I1
sVd65i567
p133
I1
sVdeqjjwl
p134
I1
sVd8jsyh0
p135
I1
sVd2enku8
p136
I2
sVdqwtprq
p137
I1
sVdmsfsv2
p138
I1
sVddwdpeu
p139
I1
sVcza2e17
p140
I4
sVd08xuzm
p141
I1
sVdkmyi21
p142
I1
sVdpmgrsb
p143
I1
sVdazkzdk
p144
I1
sVd9hsouy
p145
I1
sVddw30de
p146
I1
sVd0umho1
p147
I1
sVdcvu5t4
p148
I1
sVdajjl21
p149
I1
sVdprb4mv
p150
I1
sVd3x9vuh
p151
I1
sVdjrfbr4
p152
I1
sVd3e57qb
p153
I1
sVddietx7
p154
I1
sVdicgpyq
p155
I3
sVd97d4p5
p156
I1
sVdmzl7nn
p157
I1
sVddq78g8
p158
I1
sVd8z6kpy
p159
I1
sVddcsosr
p160
I1
sVd1odcfp
p161
I1
sVdmjqegj
p162
I1
sVd04vvhg
p163
I1
sVdkltdku
p164
I2
sVdiieadl
p165
I1
sVd0bugfr
p166
I1
sVdoa2r7i
p167
I2
sVdqzvqlb
p168
I1
sVdo7qq7n
p169
I2
sVcym92k3
p170
I2
sVdhuhegn
p171
I1
sVd8lo25i
p172
I1
sVda1p3nq
p173
I1
sVdkegt2h
p174
I1
sVdpxkkgw
p175
I1
sVdj96kxa
p176
I1
sVddlqklm
p177
I4
sVdgqjouk
p178
I1
sVdfvq4sd
p179
I1
sVdc0en27
p180
I1
sVd2fupox
p181
I1
sVdiidoy8
p182
I1
sVdclnl4x
p183
I1
sVdpacrc5
p184
I1
sVdbzgs91
p185
I1
sVd7wlseu
p186
I3
sVd5oqn0z
p187
I1
sVdegen8g
p188
I1
sVd8jjjsz
p189
I1
sVd1o12ox
p190
I5
sVdhap5hz
p191
I1
sVdehbcqe
p192
I1
sVdq3k59u
p193
I1
sVdp969fu
p194
I1
sVdt85dy4
p195
I1
sVdb7bi31
p196
I1
sVd4067z9
p197
I1
sVczaxizz
p198
I2
sVdbnaq28
p199
I1
sVd572bno
p200
I1
sVd27bb4j
p201
I1
sVdggsz6g
p202
I1
sVdnzfibb
p203
I1
sVd3ugct4
p204
I1
sVcyow9m4
p205
I1
sVdbekejw
p206
I1
sVd5t5u65
p207
I1
sVcznddd7
p208
I5
sVdol825z
p209
I1
sVd37e91v
p210
I1
sVdqxsz46
p211
I1
sVde2p7a4
p212
I1
sVd5d5bnx
p213
I1
sVdffgtf0
p214
I1
sVd1pxruh
p215
I1
sVdbj0kzu
p216
I1
sVdd2nadv
p217
I1
sVda1jr2v
p218
I2
sVd5ysl9o
p219
I1
sVdgb3q2q
p220
I2
s.