(dp0
Vd2dzsqz
p1
I1
sVdjxw6m3
p2
I1
sVdhjfxuc
p3
I1
sVdqg8qc8
p4
I1
sVdqf1x8d
p5
I1
sVdfu1mmi
p6
I1
sVdfa87bz
p7
I1
sVdtfojis
p8
I1
sVdkt1961
p9
I1
sVdfaq310
p10
I1
sVdiqe8xo
p11
I1
sVdff5a44
p12
I1
sVd3n492k
p13
I1
sVd3ucol3
p14
I2
sVd8jgxkz
p15
I1
sVdfzxtwp
p16
I2
sVdeuezdx
p17
I1
sVcyyy4ex
p18
I1
sVdqf56sq
p19
I1
sVd0jpqdq
p20
I1
sVdeu37ny
p21
I1
sVdiq3jr0
p22
I1
sVd5w0a0w
p23
I1
sVdo4whux
p24
I1
sVdnko89v
p25
I1
sVd2a2xi6
p26
I1
sVdfvtert
p27
I1
sVdp0a80e
p28
I1
sVd28razw
p29
I1
sVd1zpgvl
p30
I1
sVdcuj3yi
p31
I1
s.