(dp0
Vcyi3ef9
p1
I1
s.(dp0
Vcyi3ef9
p1
I1
sVcyi47bu
p2
I1
s.(dp0
Vcyieqhh
p1
I1
sVcyi3ef9
p2
I1
s.(dp0
Vcyif314
p1
I1
sVcyi3ef9
p2
I1
s.(dp0
Vcyif314
p1
I1
sVcyi3ef9
p2
I1
s.(dp0
Vcyi3ef9
p1
I1
sVcyj4ekn
p2
I1
s.(dp0
Vcyjwtj8
p1
I1
sVcyi3ef9
p2
I1
s.(dp0
Vcyjwtj8
p1
I1
sVcyi3ef9
p2
I1
s.(dp0
Vcyl4fej
p1
I1
sVcyi3ef9
p2
I1
s.(dp0
Vcyleq40
p1
I1
sVcyi3ef9
p2
I1
s.(dp0
Vcymbkov
p1
I1
sVcyi3ef9
p2
I1
s.(dp0
Vcymbkov
p1
I1
sVcyi3ef9
p2
I1
s.(dp0
Vcymbkov
p1
I1
sVcyi3ef9
p2
I1
s.(dp0
Vcymcydb
p1
I1
sVcyi3ef9
p2
I1
s.(dp0
Vcynj1x5
p1
I1
sVcyi3ef9
p2
I1
s.(dp0
Vcynp81r
p1
I1
sVcyi3ef9
p2
I1
s.(dp0
Vcyo15m1
p1
I1
sVcyi3ef9
p2
I1
s.(dp0
Vcyoclej
p1
I1
sVcyi3ef9
p2
I1
s.(dp0
Vcyozq6a
p1
I1
sVcyi3ef9
p2
I1
s.(dp0
Vcyp8q1u
p1
I1
sVcyi3ef9
p2
I1
s.(dp0
Vcypa8ua
p1
I1
sVcyi3ef9
p2
I1
s.(dp0
Vcypzfux
p1
I1
sVcyi3ef9
p2
I1
s.(dp0
Vcyi3ef9
p1
I1
sVcyqw2q8
p2
I1
s.(dp0
Vcyqyu8n
p1
I1
sVcyi3ef9
p2
I1
s.(dp0
Vcyi3ef9
p1
I1
sVcyr0l0n
p2
I1
s.(dp0
Vcyi3ef9
p1
I1
sVcyr0l0n
p2
I1
s.(dp0
Vcyri9m8
p1
I1
sVcyi3ef9
p2
I1
s.(dp0
Vcyrkm2p
p1
I1
sVcyi3ef9
p2
I1
s.(dp0
Vcys5m7a
p1
I1
sVcyi3ef9
p2
I1
s.(dp0
Vcys94ni
p1
I1
sVcyi3ef9
p2
I1
s.(dp0
Vcysk3gg
p1
I1
sVcyi3ef9
p2
I1
s.(dp0
Vcyskuhe
p1
I1
sVcyi3ef9
p2
I1
s.(dp0
Vcysofuo
p1
I1
sVcyi3ef9
p2
I1
s.(dp0
Vcyi3ef9
p1
I1
sVcystue3
p2
I1
s.(dp0
Vcyt1b8n
p1
I1
sVcyi3ef9
p2
I1
s.(dp0
Vcytg5hy
p1
I1
sVcyi3ef9
p2
I1
s.(dp0
Vcyi3ef9
p1
I1
sVcytinwf
p2
I1
s.(dp0
Vcytxz63
p1
I1
sVcyi3ef9
p2
I1
s.(dp0
Vcytxz63
p1
I1
sVcyi3ef9
p2
I1
s.(dp0
Vcytxz63
p1
I1
sVcyi3ef9
p2
I1
s.(dp0
Vcyi3ef9
p1
I1
sVcyugy47
p2
I1
s.(dp0
Vcyv33xf
p1
I1
sVcyi3ef9
p2
I1
s.(dp0
Vcyv7n1z
p1
I1
sVcyi3ef9
p2
I1
s.(dp0
Vcyvixik
p1
I1
sVcyi3ef9
p2
I1
s.(dp0
Vcyw0om9
p1
I1
sVcyi3ef9
p2
I1
s.(dp0
Vcyi3ef9
p1
I1
sVcywg5g2
p2
I1
s.(dp0
Vcyi3ef9
p1
I1
sVcywkjd6
p2
I1
s.(dp0
Vcyxag4c
p1
I1
sVcyi3ef9
p2
I1
s.(dp0
Vcyi3ef9
p1
I1
sVcyxalrd
p2
I1
s.(dp0
Vcyi3ef9
p1
I1
sVcyxalrd
p2
I1
s.(dp0
Vcyxc746
p1
I1
sVcyi3ef9
p2
I1
s.(dp0
Vcyi3ef9
p1
I1
sVcyxdg9j
p2
I1
s.(dp0
Vcyxlk8b
p1
I1
sVcyi3ef9
p2
I1
s.(dp0
Vcyxn371
p1
I1
sVcyi3ef9
p2
I1
s.(dp0
Vcyxo7tm
p1
I1
sVcyi3ef9
p2
I1
s.(dp0
Vcyxo7tm
p1
I1
sVcyi3ef9
p2
I1
s.(dp0
Vcyymt9j
p1
I1
sVcyi3ef9
p2
I1
s.(dp0
Vcyymt9j
p1
I1
sVcyi3ef9
p2
I1
s.(dp0
Vcyymt9j
p1
I1
sVcyi3ef9
p2
I1
s.(dp0
Vcyzbrsw
p1
I1
sVcyi3ef9
p2
I1
s.(dp0
Vcyzc2um
p1
I1
sVcyi3ef9
p2
I1
s.(dp0
Vcyi3ef9
p1
I1
sVcyzsr8t
p2
I1
s.(dp0
Vcyi3ef9
p1
I1
sVcz02v7q
p2
I1
s.(dp0
Vcyi3ef9
p1
I1
sVcz05pgk
p2
I1
s.(dp0
Vcyi3ef9
p1
I1
sVcz1061q
p2
I1
s.(dp0
Vcyi3ef9
p1
I1
sVcz1db7e
p2
I1
s.(dp0
Vcyi3ef9
p1
I1
sVcz1kcim
p2
I1
s.(dp0
Vcyi3ef9
p1
I1
sVcz1kcim
p2
I1
s.(dp0
Vcyi3ef9
p1
I1
sVcz1m3q5
p2
I1
s.(dp0
Vcz25gm9
p1
I1
sVcyi3ef9
p2
I1
s.(dp0
Vcyi3ef9
p1
I1
sVcz37wm3
p2
I1
s.(dp0
Vcyi3ef9
p1
I1
sVcz4feas
p2
I1
s.(dp0
Vcyi3ef9
p1
I1
sVcz4feas
p2
I1
s.(dp0
Vcyi3ef9
p1
I1
sVcz5caco
p2
I1
s.(dp0
Vcz5g6dp
p1
I1
sVcyi3ef9
p2
I1
s.(dp0
Vcyi3ef9
p1
I1
sVcz6gblh
p2
I1
s.(dp0
Vcyi3ef9
p1
I1
sVcz6gblh
p2
I1
s.(dp0
Vcyi3ef9
p1
I1
sVcz6l3qr
p2
I1
s.(dp0
Vcyi3ef9
p1
I1
sVcz6wwr3
p2
I1
s.(dp0
Vcz72odn
p1
I1
sVcyi3ef9
p2
I1
s.(dp0
Vcyi3ef9
p1
I1
sVcz7gg8h
p2
I1
s.(dp0
Vcz7i6hs
p1
I1
sVcyi3ef9
p2
I1
s.(dp0
Vcyi3ef9
p1
I1
sVcz7vgor
p2
I1
s.(dp0
Vcz83as7
p1
I1
sVcyi3ef9
p2
I1
s.(dp0
Vcz8arfe
p1
I1
sVcyi3ef9
p2
I1
s.(dp0
Vcz8arfe
p1
I1
sVcyi3ef9
p2
I1
s.(dp0
Vcz8arfe
p1
I1
sVcyi3ef9
p2
I1
s.(dp0
Vcz8arfe
p1
I1
sVcyi3ef9
p2
I1
s.(dp0
Vcyi3ef9
p1
I1
sVcz8p5k5
p2
I1
s.(dp0
Vcyi3ef9
p1
I1
sVcz9gyu2
p2
I1
s.(dp0
Vcza545z
p1
I1
sVcyi3ef9
p2
I1
s.(dp0
Vcza5tf3
p1
I1
sVcyi3ef9
p2
I1
s.(dp0
Vczamltp
p1
I1
sVcyi3ef9
p2
I1
s.(dp0
Vczayj0f
p1
I1
sVcyi3ef9
p2
I1
s.(dp0
Vczb1mep
p1
I1
sVcyi3ef9
p2
I1
s.(dp0
Vcyi3ef9
p1
I1
sVczb3pm4
p2
I1
s.(dp0
Vczd6unb
p1
I1
sVcyi3ef9
p2
I1
s.(dp0
Vczdab18
p1
I1
sVcyi3ef9
p2
I1
s.(dp0
Vczetmhi
p1
I1
sVcyi3ef9
p2
I1
s.(dp0
Vczf1hys
p1
I1
sVcyi3ef9
p2
I1
s.(dp0
Vczfc0qz
p1
I1
sVcyi3ef9
p2
I1
s.(dp0
Vcyi3ef9
p1
I1
sVczfi4bn
p2
I1
s.(dp0
Vczg7bbp
p1
I1
sVcyi3ef9
p2
I1
s.(dp0
Vcyi3ef9
p1
I1
sVczgaeyf
p2
I1
s.(dp0
Vcyi3ef9
p1
I1
sVczgaeyf
p2
I1
s.(dp0
Vczghfdz
p1
I1
sVcyi3ef9
p2
I1
s.(dp0
Vcyi3ef9
p1
I1
sVczgq9x1
p2
I1
s.(dp0
Vczgvqpi
p1
I1
sVcyi3ef9
p2
I1
s.(dp0
Vcz(dp0
Vdthmfkc
p1
I1
sVcyi3ef9
p2
I1
s.