(dp0
Vdc3b2e5
p1
I1
s.(dp0
Vdc3b2e5
p1
I1
sVdccdev8
p2
I1
s.(dp0
Vdgw5i90
p1
I1
sVdc3b2e5
p2
I1
s.(dp0
Vdjt7jh8
p1
I1
sVdc3b2e5
p2
I1
s.(dp0
Vdn34cfm
p1
I1
sVdc3b2e5
p2
I1
s.(dp0
Vdpfz9rp
p1
I1
sVdc3b2e5
p2
I1
s.(dp0
Vdrkqm4z
p1
I1
sVdc3b2e5
p2
I1
s.