(dp0
Vd49j7s0
p1
I1
sVdencid8
p2
I1
sVd9xpfjr
p3
I1
sVdhiqevn
p4
I1
sVdf1u00d
p5
I1
sVdfljgto
p6
I1
sVcz259ql
p7
I1
sVd1gd5oi
p8
I1
sVdjatza0
p9
I1
sVd4wthuv
p10
I1
sVd70td1h
p11
I1
sVdmos7xp
p12
I1
sVdemj5gx
p13
I1
s.