(dp0
Vcyimsh6
p1
I1
s.(dp0
Vcyimsh6
p1
I1
sVcyk0180
p2
I1
s.(dp0
Vcyimsh6
p1
I1
sVcykynfk
p2
I1
s.(dp0
Vcyimsh6
p1
I1
sVcyz1q0e
p2
I1
s.(dp0
Vcyimsh6
p1
I1
sVcyzkoxy
p2
I1
s.(dp0
Vcyimsh6
p1
I1
sVcz02tb9
p2
I1
s.(dp0
Vcyimsh6
p1
I1
sVcz21op4
p2
I1
s.(dp0
Vcyimsh6
p1
I1
sVcz6k7kp
p2
I1
s.(dp0
Vcyimsh6
p1
I1
sVcz7h8rh
p2
I1
s.(dp0
Vcyimsh6
p1
I1
sVcz93m20
p2
I1
s.(dp0
Vcyimsh6
p1
I1
sVczb3o1j
p2
I1
s.(dp0
Vcyimsh6
p1
I1
sVczb3o1j
p2
I1
s.(dp0
Vcyimsh6
p1
I1
sVczcppbn
p2
I1
s.(dp0
Vcyimsh6
p1
I1
sVczduh5a
p2
I1
s.(dp0
Vcyimsh6
p1
I1
sVczgmic4
p2
I1
s.(dp0
Vcyimsh6
p1
I1
sVczgpd3s
p2
I1
s.(dp0
Vcyimsh6
p1
I1
sVczjchka
p2
I1
s.(dp0
Vcyimsh6
p1
I1
sVczqp0uh
p2
I1
s.(dp0
Vcyimsh6
p1
I1
sVcztqkxr
p2
I1
s.(dp0
Vcyimsh6
p1
I1
sVczy2xvw
p2
I1
s.(dp0
Vcyimsh6
p1
I1
sVczy2xvw
p2
I1
s.(dp0
Vcyimsh6
p1
I1
sVczy2xvw
p2
I1
s.(dp0
Vcyimsh6
p1
I1
sVczzvvmu
p2
I1
s.(dp0
Vcyimsh6
p1
I1
sVd011wnv
p2
I1
s.(dp0
Vcyimsh6
p1
I1
sVd03ru98
p2
I1
s.(dp0
Vcyimsh6
p1
I1
sVd046q0t
p2
I1
s.(dp0
Vcyimsh6
p1
I1
sVd048mi8
p2
I1
s.(dp0
Vcyimsh6
p1
I1
sVd05pd5i
p2
I1
s.(dp0
Vcyimsh6
p1
I1
sVd07l4pa
p2
I1
s.(dp0
Vcyimsh6
p1
I1
sVd07yldr
p2
I1
s.(dp0
Vcyimsh6
p1
I1
sVd0b5p3l
p2
I1
s.(dp0
Vcyimsh6
p1
I1
sVd0fz6tv
p2
I1
s.(dp0
Vcyimsh6
p1
I1
sVd0hnglr
p2
I1
s.(dp0
Vcyimsh6
p1
I1
sVd0m97ql
p2
I1
s.(dp0
Vcyimsh6
p1
I1
sVd0n4iae
p2
I1
s.(dp0
Vcyimsh6
p1
I1
sVd0num11
p2
I1
s.(dp0
Vcyimsh6
p1
I1
sVd0svtjl
p2
I1
s.(dp0
Vcyimsh6
p1
I1
sVd0svtjl
p2
I1
s.(dp0
Vcyimsh6
p1
I1
sVd0t3csa
p2
I1
s.(dp0
Vcyimsh6
p1
I1
sVd0yniek
p2
I1
s.(dp0
Vcyimsh6
p1
I1
sVd0yzg2z
p2
I1
s.(dp0
Vcyimsh6
p1
I1
sVd0z72zw
p2
I1
s.(dp0
Vcyimsh6
p1
I1
sVd18vo2l
p2
I1
s.(dp0
Vcyimsh6
p1
I1
sVd19ethc
p2
I1
s.(dp0
Vcyimsh6
p1
I1
sVd19i3xu
p2
I1
s.(dp0
Vcyimsh6
p1
I1
sVd19ilt6
p2
I1
s.(dp0
Vcyimsh6
p1
I1
sVd1jr9ae
p2
I1
s.(dp0
Vcyimsh6
p1
I1
sVd1jzp1y
p2
I1
s.(dp0
Vcyimsh6
p1
I1
sVd1k3nmw
p2
I1
s.(dp0
Vcyimsh6
p1
I1
sVd1p9ens
p2
I1
s.(dp0
Vcyimsh6
p1
I1
sVd1sbucf
p2
I1
s.(dp0
Vcyimsh6
p1
I1
sVd1snbtw
p2
I1
s.(dp0
Vcyimsh6
p1
I1
sVd1tmf8w
p2
I1
s.(dp0
Vcyimsh6
p1
I1
sVd1vs30a
p2
I1
s.(dp0
Vcyimsh6
p1
I1
sVd1wmrzo
p2
I1
s.(dp0
Vcyimsh6
p1
I1
sVd1xocc8
p2
I1
s.(dp0
Vcyimsh6
p1
I1
sVd25bvkh
p2
I1
s.(dp0
Vcyimsh6
p1
I1
sVd2et58i
p2
I1
s.(dp0
Vcyimsh6
p1
I1
sVd2gwq0y
p2
I1
s.(dp0
Vcyimsh6
p1
I1
sVd2ivhg1
p2
I1
s.(dp0
Vcyimsh6
p1
I1
sVd2okb72
p2
I1
s.(dp0
Vcyimsh6
p1
I1
sVd2oupra
p2
I1
s.(dp0
Vcyimsh6
p1
I1
sVd2pgut1
p2
I1
s.(dp0
Vcyimsh6
p1
I1
sVd2q25yz
p2
I1
s.(dp0
Vcyimsh6
p1
I1
sVd2ruskn
p2
I1
s.(dp0
Vcyimsh6
p1
I1
sVd2sg3l7
p2
I1
s.(dp0
Vcyimsh6
p1
I1
sVd3195fu
p2
I1
s.(dp0
Vcyimsh6
p1
I1
sVd31akp7
p2
I1
s.(dp0
Vcyimsh6
p1
I1
sVd37jpgz
p2
I1
s.(dp0
Vcyimsh6
p1
I1
sVd3bwbmx
p2
I1
s.(dp0
Vcyimsh6
p1
I1
sVd3guz1c
p2
I1
s.(dp0
Vcyimsh6
p1
I1
sVd3jrz5n
p2
I1
s.(dp0
Vcyimsh6
p1
I1
sVd40g1ht
p2
I1
s.(dp0
Vcyimsh6
p1
I1
sVd42d77e
p2
I1
s.(dp0
Vcyimsh6
p1
I1
sVd45md24
p2
I1
s.(dp0
Vcyimsh6
p1
I1
sVd47h8y0
p2
I1
s.(dp0
Vcyimsh6
p1
I1
sVd4970z6
p2
I1
s.(dp0
Vcyimsh6
p1
I1
sVd4e1zm9
p2
I1
s.(dp0
Vcyimsh6
p1
I1
sVd4h15x3
p2
I1
s.(dp0
Vcyimsh6
p1
I1
sVd4kvc1z
p2
I1
s.(dp0
Vcyimsh6
p1
I1
sVd4lx4yu
p2
I1
s.(dp0
Vcyimsh6
p1
I1
sVd4nq0iu
p2
I1
s.(dp0
Vcyimsh6
p1
I1
sVd4pg9mo
p2
I1
s.(dp0
Vcyimsh6
p1
I1
sVd4r1jju
p2
I1
s.(dp0
Vcyimsh6
p1
I1
sVd4w683h
p2
I1
s.(dp0
Vcyimsh6
p1
I1
sVd4xksy9
p2
I1
s.(dp0
Vcyimsh6
p1
I1
sVd55ka1g
p2
I1
s.(dp0
Vcyimsh6
p1
I1
sVd5dnyti
p2
I1
s.(dp0
Vcyimsh6
p1
I1
sVd5lfh9h
p2
I1
s.(dp0
Vcyimsh6
p1
I1
sVd5q661s
p2
I1
s.(dp0
Vcyimsh6
p1
I1
sVd5t8bi8
p2
I1
s.(dp0
Vcyimsh6
p1
I1
sVd60lvt4
p2
I1
s.(dp0
Vcyimsh6
p1
I1
sVd62tmgc
p2
I1
s.(dp0
Vcyimsh6
p1
I1
sVd64ehrg
p2
I1
s.(dp0
Vcyimsh6
p1
I1
sVd65oc5v
p2
I1
s.(dp0
Vcyimsh6
p1
I1
sVd69wv29
p2
I1
s.(dp0
Vcyimsh6
p1
I1
sVd6j4o9d
p2
I1
s.(dp0
Vcyimsh6
p1
I1
sVd6kejyf
p2
I1
s.(dp0
Vcyimsh6
p1
I1
sVd6nmv2z
p2
I1
s.(dp0
Vcyimsh6
p1
I1
sVd6qn29k
p2
I1
s.(dp0
Vcyimsh6
p1
I1
sVd6sdepc
p2
I1
s.(dp0
Vcyimsh6
p1
I1
sVd6w6fi8
p2
I1
s.(dp0
Vcyimsh6
p1
I1
sVd70lk3h
p2
I1
s.(dp0
Vcyimsh6
p1
I1
sVd71guou
p2
I1
s.(dp0
Vcyimsh6
p1
I1
sVd797fnp
p2
I1
s.(dp0
Vcyimsh6
p1
I1
sVd7di6zd
p2
I1
s.(dp0
Vcyimsh6
p1
I1
sVd7kyfqt
p2
I1
s.(dp0
Vcyimsh6
p1
I1
sVd7njzko
p2
I1
s.(dp0
Vcy(dp0
Vcyimsh6
p1
I1
sVdt7ljoh
p2
I1
s.