(dp0
Vcymrlc8
p1
I4
sVdhjo81h
p2
I1
sVcz07tlv
p3
I1
sVd7fmfcj
p4
I1
sVd1339vn
p5
I1
sVdgv3gkc
p6
I1
sVdn4a0kw
p7
I1
sVdb8khl8
p8
I2
sVdjqozri
p9
I1
sVd1ryjji
p10
I1
sVdgesgyp
p11
I1
sVd8jsyh0
p12
I1
sVdd8c6tj
p13
I1
sVd1qyjf3
p14
I1
sVcyiic6t
p15
I1
sVdjqnsku
p16
I1
sVdgori8l
p17
I1
sVd95yj6y
p18
I1
sVcymn8zs
p19
I1
sVcykqsqz
p20
I1
s.