(dp0
Vdbtv9xj
p1
I1
sVdq2iihq
p2
I1
sVd60e5iv
p3
I1
sVdmswqbp
p4
I1
sVdfzxsfp
p5
I1
sVd3ng29e
p6
I2
sVdnz6c8n
p7
I1
sVd6djyp1
p8
I1
sVczsvxbm
p9
I1
sVdha43ud
p10
I1
sVd0629mr
p11
I1
sVdbczl9b
p12
I1
sVdc5izcg
p13
I1
sVdcbrvxs
p14
I1
sVdpu19za
p15
I1
sVdkd11nc
p16
I1
sVdf7rps7
p17
I1
sVddlw80q
p18
I1
sVczgq6y9
p19
I1
sVdfeczac
p20
I1
sVd0ukbhe
p21
I1
sVdggxre7
p22
I1
sVdacerom
p23
I2
sVdemg4g2
p24
I1
sVdhl6iuc
p25
I1
sVdbhbv19
p26
I1
sVdpcwwc8
p27
I1
sVd028qij
p28
I1
sVdhwm89r
p29
I1
sVd3wnen7
p30
I2
sVdqg3dlb
p31
I1
sVdgkcn3j
p32
I2
sVdihwhkc
p33
I2
sVdh71ote
p34
I1
sVd5mglrm
p35
I2
sVdd3df1w
p36
I1
sVdi7n7dk
p37
I2
sVd1snbtw
p38
I1
sVdfu124d
p39
I1
sVd3oumkd
p40
I1
sVd2xm2tx
p41
I3
sVcyjvp1r
p42
I1
sVdiben44
p43
I1
sVdmh9j7u
p44
I2
sVdrpaaqk
p45
I1
sVd67klp2
p46
I1
sVd758a9f
p47
I1
sVdh8nc1a
p48
I1
sVd33t4t2
p49
I1
sVdtc45dr
p50
I1
sVd0iwnui
p51
I1
sVdaoim2k
p52
I1
sVdba5qxb
p53
I1
sVdgnn6ei
p54
I1
sVdii6gcb
p55
I2
sVddapjyc
p56
I1
sVd0uvaqx
p57
I1
sVd1zuacj
p58
I2
sVd96xzu0
p59
I1
sVcyrgpmy
p60
I1
sVdem486e
p61
I1
sVdk75b26
p62
I1
sVdp0p8m9
p63
I3
sVcyjamrw
p64
I1
sVdkk2i9x
p65
I1
sVd01san8
p66
I1
sVd4ftqjl
p67
I1
sVdgxohoy
p68
I1
sVd1tk3z9
p69
I1
sVdan6lmc
p70
I3
sVd0d06tp
p71
I1
sVd6bxe80
p72
I1
sVdbho4dp
p73
I2
sVd2e293s
p74
I1
sVdhk5y8e
p75
I1
sVdavhglq
p76
I2
sVd0j2ubv
p77
I4
sVddhjfcs
p78
I1
sVczyi9mf
p79
I1
sVdhlvjy4
p80
I2
sVdfbn3rj
p81
I2
sVd0lh34d
p82
I2
sVdt7zb96
p83
I3
sVdgmvx7v
p84
I1
sVd0fhzmq
p85
I1
sVd4o49gt
p86
I1
sVd6ll202
p87
I1
sVcz276or
p88
I2
sVdt7toyh
p89
I2
sVdbwee6y
p90
I1
sVdt7to7r
p91
I1
sVd0ww81w
p92
I1
sVdtfwgpq
p93
I1
sVdq31mmy
p94
I1
sVd8fgnzs
p95
I4
sVd4eild8
p96
I1
sVd3gn78n
p97
I1
sVdgl2x7a
p98
I1
sVd0c56i7
p99
I1
sVd177th4
p100
I1
sVczi2ioe
p101
I1
sVdq7j53g
p102
I1
sVd9f3mep
p103
I1
sVdpcwzwo
p104
I4
sVd4jxlit
p105
I4
sVd0d59b4
p106
I1
sVdiwfark
p107
I1
sVd7c4pya
p108
I1
sVdnyqt0p
p109
I2
sVdazieb5
p110
I2
sVda98ty6
p111
I1
sVdai1r33
p112
I1
sVdj4mhc8
p113
I1
sVdtc4i6k
p114
I1
sVdcp95b8
p115
I2
sVdildf6c
p116
I3
sVdkhdxpx
p117
I1
sVdhh513w
p118
I1
sVdftmj4r
p119
I1
sVd0avbf1
p120
I1
sVdb2srit
p121
I1
sVczqa8qh
p122
I1
sVdiii8qa
p123
I1
sVd0gltot
p124
I1
sVdou4esh
p125
I1
sVd0vtq8j
p126
I1
sVd6tk7l5
p127
I1
sVdtcl9vc
p128
I2
sVd2333di
p129
I5
sVdgbvtwh
p130
I2
sVd7evdyf
p131
I4
sVd7chyqf
p132
I3
sVd10aijr
p133
I1
sVczvkib2
p134
I2
sVdgrp96z
p135
I1
sVdecenll
p136
I1
sVdd28aji
p137
I1
sVdp3nchm
p138
I1
sVcz4t8ts
p139
I2
sVd5k7hc8
p140
I1
sVdqiqtmu
p141
I1
sVd623feo
p142
I1
sVd3f9zi7
p143
I1
sVddwv9pa
p144
I1
sVd0skjzf
p145
I1
sVd9kw1xo
p146
I1
sVczoxg0c
p147
I1
sVddbx9y5
p148
I1
sVdbb565r
p149
I1
sVd3gml9i
p150
I1
sVd3b55ru
p151
I1
sVdgn4idn
p152
I1
sVdo162g1
p153
I1
sVdeq8h7q
p154
I1
sVdn2r6kl
p155
I2
sVdihiwit
p156
I1
sVcyjkn1f
p157
I1
sVd07lez1
p158
I1
sVd07wykz
p159
I1
sVczxr9n6
p160
I1
sVdc068ww
p161
I1
sVdt7dm9m
p162
I3
sVdiiy5zc
p163
I3
sVd3agc9h
p164
I1
sVd7cz7rq
p165
I1
sVdrq1ldz
p166
I1
sVd0awbf1
p167
I1
sVd0jxv5g
p168
I1
sVd5a940n
p169
I1
sVd7chvpj
p170
I2
sVdqu6yj7
p171
I1
sVdii1dpa
p172
I1
sVdo4xbde
p173
I1
sVd4jwef2
p174
I1
sVdg9brqg
p175
I1
sVd23ntvb
p176
I1
sVd5ckob7
p177
I1
sVd8c7zry
p178
I1
sVd0wo5y2
p179
I1
sVd33r8if
p180
I1
sVdha7uub
p181
I1
sVd1ub7rb
p182
I4
sVdrcnt9q
p183
I1
sVd8cwlhm
p184
I1
sVd3kdm9z
p185
I1
sVdpruo0o
p186
I1
sVd9h5hbj
p187
I1
sVdcp94cz
p188
I1
sVdal5s4e
p189
I4
sVd5ldg4e
p190
I1
sVddq6pnx
p191
I1
sVdcfs0xl
p192
I1
sVdgfb67m
p193
I1
sVdpqp6ir
p194
I5
sVd4jizbq
p195
I1
sVdha6vi8
p196
I1
sVd0ezrg2
p197
I1
sVdnislj7
p198
I1
sVdnknoqi
p199
I3
sVd3hibzc
p200
I1
sVdp92mq9
p201
I1
sVdj1muqd
p202
I3
sVcz079bh
p203
I1
sVdaygpib
p204
I1
sVd9d3vbc
p205
I1
sVd79k18d
p206
I1
sVdca351p
p207
I1
sVdclw446
p208
I1
sVdhxf43g
p209
I1
sVdp8z1sx
p210
I1
sVdr1wo5u
p211
I1
sVdhd5dss
p212
I2
sVdjfx677
p213
I2
sVdhxept5
p214
I1
sVd6hfajn
p215
I1
sVdh9vcuo
p216
I8
sVdmeq51i
p217
I1
sVd07k1sg
p218
I1
sVcz77fc1
p219
I1
sVddkhunz
p220
I2
sVd0y40ss
p221
I1
sVdd6ze3q
p222
I1
sVdh9vl0w
p223
I2
sVczoytc3
p224
I1
sVd6sn1lu
p225
I1
sVcysy36b
p226
I2
sVd7kihvx
p227
I1
sVdkq1jk1
p228
I1
sVd7cirnn
p229
I3
sVd07k6kt
p230
I1
sVd31zfqm
p231
I1
sVde4s6wx
p232
I2
sVdcacx96
p233
I1
sVd2znsm9
p234
I4
sVd8ao8l1
p235
I1
sVd9878eu
p236
I1
sVdpsjqcb
p237
I1
sVd64ybaj
p238
I1
sVde7ys3h
p239
I1
sVdtfytj9
p240
I1
sVdjejkkt
p241
I1
sVdnkubfp
p242
I2
sVdim6bfr
p243
I1
sVdqudyxr
p244
I1
sVdnhzi62
p245
I1
sVdpjc142
p246
I1
sVcz4m53u
p247
I1
sVd0enb7y
p248
I1
sVd6hg27f
p249
I1
sVczpaqir
p250
I2
sVdn82osb
p251
I1
sVcz0pbpa
p252
I1
sVdjebogs
p253
I1
sVcyjcxkt
p254
I2
sVdc3rdre
p255
I1
sVds3lgbk
p256
I2
sVd8qer73
p257
I1
sVddogeyx
p258
I1
sVd7bkv8v
p259
I2
sVddf6tzb
p260
I1
sVd4a2qte
p261
I1
sVdd3gogi
p262
I1
sVdn4lnvp
p263
I1
s.