(dp0
Vcysildf
p1
I1
s.(dp0
Vcysildf
p1
I1
sVcz7c657
p2
I1
s.(dp0
Vcysildf
p1
I1
sVczky51r
p2
I1
s.(dp0
Vcysildf
p1
I1
sVczwuj0s
p2
I1
s.(dp0
Vcysildf
p1
I1
sVczxim46
p2
I1
s.(dp0
Vcysildf
p1
I1
sVczxim46
p2
I1
s.(dp0
Vcysildf
p1
I1
sVd0vqtr1
p2
I1
s.(dp0
Vcysildf
p1
I1
sVd1i2c1b
p2
I1
s.(dp0
Vd1if4j9
p1
I1
sVcysildf
p2
I1
s.(dp0
Vcysildf
p1
I1
sVd2fwp81
p2
I1
s.(dp0
Vcysildf
p1
I1
sVd2mksu4
p2
I1
s.(dp0
Vcysildf
p1
I1
sVd2mqprc
p2
I1
s.(dp0
Vcysildf
p1
I1
sVd38adyg
p2
I1
s.(dp0
Vcysildf
p1
I1
sVd3oht8u
p2
I1
s.(dp0
Vd3wd7tj
p1
I1
sVcysildf
p2
I1
s.(dp0
Vd48cob7
p1
I1
sVcysildf
p2
I1
s.(dp0
Vcysildf
p1
I1
sVd5lv9ez
p2
I1
s.(dp0
Vcysildf
p1
I1
sVd64bx9o
p2
I1
s.(dp0
Vcysildf
p1
I1
sVd64bx9o
p2
I1
s.(dp0
Vcysildf
p1
I1
sVd66nhdf
p2
I1
s.(dp0
Vcysildf
p1
I1
sVd6y5qff
p2
I1
s.(dp0
Vcysildf
p1
I1
sVd6y8nak
p2
I1
s.(dp0
Vcysildf
p1
I1
sVd7ewrm8
p2
I1
s.(dp0
Vcysildf
p1
I1
sVd7ivrl1
p2
I1
s.(dp0
Vcysildf
p1
I1
sVd7myo2f
p2
I1
s.(dp0
Vcysildf
p1
I1
sVd83dtfi
p2
I1
s.(dp0
Vcysildf
p1
I1
sVd9a2e5x
p2
I1
s.(dp0
Vcysildf
p1
I1
sVd9p9tms
p2
I1
s.(dp0
Vcysildf
p1
I1
sVdblghof
p2
I1
s.(dp0
Vcysildf
p1
I1
sVdbpii6o
p2
I1
s.(dp0
Vcysildf
p1
I1
sVdbqzhki
p2
I1
s.(dp0
Vcysildf
p1
I1
sVdch0l9x
p2
I1
s.(dp0
Vcysildf
p1
I1
sVdcq3tsj
p2
I1
s.(dp0
Vcysildf
p1
I1
sVdczkmle
p2
I1
s.(dp0
Vcysildf
p1
I1
sVddy8squ
p2
I1
s.(dp0
Vcysildf
p1
I1
sVddy8squ
p2
I1
s.(dp0
Vcysildf
p1
I1
sVddy8squ
p2
I1
s.(dp0
Vde0cper
p1
I1
sVcysildf
p2
I1
s.(dp0
Vcysildf
p1
I1
sVdf1xmr7
p2
I1
s.(dp0
Vcysildf
p1
I1
sVdf4n9vk
p2
I1
s.(dp0
Vcysildf
p1
I1
sVdfk8q6x
p2
I1
s.(dp0
Vcysildf
p1
I1
sVdfy0d2a
p2
I1
s.(dp0
Vcysildf
p1
I1
sVdgi76r9
p2
I1
s.(dp0
Vcysildf
p1
I1
sVdgin5ar
p2
I1
s.(dp0
Vcysildf
p1
I1
sVdhlpw3l
p2
I1
s.(dp0
Vdhpgqds
p1
I1
sVcysildf
p2
I1
s.(dp0
Vcysildf
p1
I1
sVdijgfvg
p2
I1
s.(dp0
Vcysildf
p1
I1
sVdipgh5n
p2
I1
s.(dp0
Vcysildf
p1
I1
sVdjegxxx
p2
I1
s.(dp0
Vcysildf
p1
I1
sVdkj6qb3
p2
I1
s.(dp0
Vcysildf
p1
I1
sVdnzwtu5
p2
I1
s.(dp0
Vcysildf
p1
I1
sVdo4xcd4
p2
I1
s.(dp0
Vcysildf
p1
I1
sVdo9lscd
p2
I1
s.(dp0
Vcysildf
p1
I1
sVdphrdra
p2
I1
s.(dp0
Vcysildf
p1
I1
sVdphrdra
p2
I1
s.(dp0
Vcysildf
p1
I1
sVdpogu7j
p2
I1
s.(dp0
Vcysildf
p1
I1
sVdpp4s0k
p2
I1
s.(dp0
Vcysildf
p1
I1
sVdrpizj6
p2
I1
s.(dp0
Vcysildf
p1
I1
sVdrwaa61
p2
I1
s.(dp0
Vcysildf
p1
I1
sVdtamc5k
p2
I1
s.