(dp0
Vdpl5elx
p1
I1
sVdp5p9aq
p2
I1
sVd7a563x
p3
I1
sVd78kzz2
p4
I1
sVdrxs54c
p5
I1
sVde1uxst
p6
I1
sVd7j8bcp
p7
I1
sVd2pc65e
p8
I1
sVdbqs96g
p9
I1
sVdq16sa1
p10
I1
sVdihau6o
p11
I1
sVd0ukbhe
p12
I1
sVdo8pkfx
p13
I1
sVdav9nef
p14
I1
sVdp5mleg
p15
I1
sVd0qm1ma
p16
I3
sVd0ddr0f
p17
I1
sVdh090cd
p18
I1
sVdhyujik
p19
I1
sVdj36awy
p20
I1
sVcz4szvd
p21
I2
sVda083tr
p22
I1
sVdhcc28i
p23
I1
sVcyw51zt
p24
I1
sVdj7iw5b
p25
I1
sVdf8ounp
p26
I1
sVd9i8myf
p27
I1
sVd1bm0v8
p28
I1
sVd0rc49v
p29
I1
sVdpglwqj
p30
I1
sVd5k53bl
p31
I1
sVdi8y1vv
p32
I1
s.