(dp0
Vdsdyt8w
p1
I2
sVdis2pup
p2
I1
sVdp3p4da
p3
I1
sVdegb2h5
p4
I1
sVdi66fp5
p5
I2
sVd9vkdes
p6
I1
sVdoqkmtj
p7
I1
sVdo9oiz3
p8
I1
sVcyvs2q1
p9
I1
sVd568icx
p10
I2
sVdpxokhv
p11
I1
sVdeg4c7h
p12
I1
sVdp0d6zl
p13
I1
sVdijsh7s
p14
I1
sVd07esk2
p15
I1
sVdpnib0p
p16
I1
sVdok4t86
p17
I1
sVd2rnblo
p18
I1
sVczrz15d
p19
I1
sVdp2abuu
p20
I1
sVdaz7r82
p21
I2
sVd5v27wp
p22
I1
sVdd8xiir
p23
I1
sVdn1w9wd
p24
I1
sVdo9erdd
p25
I1
sVdftw7ls
p26
I1
sVdktmwjl
p27
I1
sVdtf8w0d
p28
I1
sVdjssx2f
p29
I1
sVdk4jhkr
p30
I1
sVd2wd3am
p31
I1
sVdbfqr0q
p32
I1
sVd2qowho
p33
I1
sVdc435ej
p34
I1
sVdbguf4u
p35
I2
sVdi2znha
p36
I1
sVdh2uyn9
p37
I1
sVd34dk9a
p38
I3
sVdbgxuwg
p39
I1
sVdmwxah2
p40
I2
sVdkq7ns6
p41
I2
sVderaymz
p42
I1
sVdc5jxi6
p43
I3
sVdexrdrk
p44
I1
sVderbcqi
p45
I1
sVdmi8xg3
p46
I2
sVd2dbfnn
p47
I3
sVd0huuwv
p48
I4
sVd2ucfqq
p49
I1
sVdgmv6u3
p50
I2
sVds1wcni
p51
I1
sVd4in9qw
p52
I1
sVdfrztjr
p53
I6
sVd1gix9p
p54
I1
sVcyozymb
p55
I1
sVcyucikc
p56
I1
sVd7019pr
p57
I1
sVdd7230j
p58
I1
sVd1pd6dl
p59
I1
sVdaomjsn
p60
I1
sVdq5wrno
p61
I2
sVd5lv3o5
p62
I1
sVdpnlqg2
p63
I2
sVd0b6tu4
p64
I1
sVdki5kfj
p65
I1
sVd7gd92f
p66
I1
sVd1d6akt
p67
I1
sVdexqpxw
p68
I1
sVdfm0zj8
p69
I1
sVddz3x29
p70
I2
sVcz4i1wf
p71
I1
sVd2ao70w
p72
I1
sVdn9ian4
p73
I3
sVdd48b4z
p74
I1
sVd4r1g3x
p75
I1
sVd3oqr8i
p76
I1
sVda1eae8
p77
I1
sVd74tk0h
p78
I1
sVdevsvyi
p79
I2
sVd6vt13o
p80
I1
sVcz0ah1l
p81
I1
sVdc5b2vz
p82
I1
sVd711yt3
p83
I1
sVdilpdou
p84
I1
sVdsr1z8m
p85
I1
sVddktxdm
p86
I1
sVd0s6oos
p87
I1
sVde7s70q
p88
I1
sVd2w06e8
p89
I1
sVdevur2i
p90
I1
sVdoqfrf0
p91
I2
s.