(dp0
Vdqsh9a8
p1
I1
sVd6rlxtj
p2
I1
sVcz5tu0x
p3
I1
sVdc6oqhw
p4
I1
sVd654jai
p5
I1
sVdb59nz6
p6
I1
sVd20qsfu
p7
I1
sVdbom6g8
p8
I1
sVdgo11u4
p9
I1
sVd629chf
p10
I1
sVdep6n5k
p11
I1
sVdsaixwq
p12
I3
sVdeh1xav
p13
I1
sVdeh09gg
p14
I1
sVczu7853
p15
I1
sVdavofoh
p16
I1
sVd7pp7ep
p17
I1
sVdn62fc2
p18
I1
sVdiwx7mu
p19
I1
sVdfkiyqx
p20
I1
sVdt1rwo6
p21
I4
sVdig2zi8
p22
I2
sVdc2s241
p23
I1
sVdhv01oo
p24
I2
sVdc8zcan
p25
I1
sVda6mb4u
p26
I3
sVdd23zev
p27
I7
sVdeekrw3
p28
I1
sVd8g2oxe
p29
I2
sVcz91zac
p30
I1
sVdh5lmke
p31
I1
sVdp6nebe
p32
I2
sVd2tt7az
p33
I1
sVdjad25l
p34
I1
sVdd451b8
p35
I1
sVd0h6mj3
p36
I1
sVd1x58h8
p37
I1
sVddwn495
p38
I1
sVdcmvpsq
p39
I1
sVdr8li74
p40
I1
sVdc5ptdk
p41
I1
sVd5tb2b7
p42
I1
sVd7ek6fd
p43
I1
sVczyoe1i
p44
I1
sVdputev6
p45
I1
sVczta25y
p46
I1
sVczxb2cu
p47
I1
sVd934xd6
p48
I1
sVdn3qk7t
p49
I1
sVd9vbs5w
p50
I1
sVdkw2e4p
p51
I1
sVdogeac9
p52
I1
sVd2rnblo
p53
I1
sVdn5j0mg
p54
I2
sVdeu0rf8
p55
I1
sVcylqjhc
p56
I1
sVd27dr0v
p57
I1
sVd7hgbtf
p58
I3
sVdaohzr7
p59
I1
sVdp1siy8
p60
I1
sVddcsjd1
p61
I1
sVdnb57jd
p62
I1
sVdgksuaz
p63
I1
sVd8k6oqf
p64
I2
sVds5b4ik
p65
I1
sVd5cvi13
p66
I1
sVdsaj4lk
p67
I2
sVdeq3qaq
p68
I10
sVdfj31va
p69
I1
sVdichhtv
p70
I1
sVd07frrh
p71
I1
sVdsvvl6d
p72
I1
sVd933xi5
p73
I1
sVdrrvfh6
p74
I1
sVdh6753a
p75
I1
sVdcyo1k2
p76
I1
sVdemvbfa
p77
I1
sVdrn4fuz
p78
I3
sVdalhy1p
p79
I1
sVd20dpae
p80
I1
sVd7ulkmv
p81
I1
sVd0rvngr
p82
I1
sVdpyojl1
p83
I1
sVdb8juuy
p84
I1
sVd6z2062
p85
I4
sVd3qf700
p86
I1
sVcyo3l5m
p87
I1
sVdig3zth
p88
I2
sVdiraiwd
p89
I1
sVdo1yfr6
p90
I2
sVd0aiouw
p91
I2
sVda80vnz
p92
I1
sVdek82ye
p93
I2
sVdfurdcy
p94
I2
sVd1ngege
p95
I1
sVdf2jars
p96
I1
sVd477h6k
p97
I2
sVd0jazez
p98
I2
sVdabp8n6
p99
I1
sVdqzdkp1
p100
I1
sVdp6f0sx
p101
I2
sVd872crd
p102
I2
sVd3xuees
p103
I1
sVcymdw26
p104
I1
sVd8zvmib
p105
I1
sVd7nkzbo
p106
I1
sVd2qtmuq
p107
I1
sVd0jc4fv
p108
I1
sVdhjmc6q
p109
I2
sVd9wga71
p110
I2
sVd2vusfq
p111
I1
sVd96z37c
p112
I1
sVdswn8m0
p113
I1
sVd5aj789
p114
I1
sVdtjcljd
p115
I1
sVdffuerl
p116
I1
sVdsfbomx
p117
I1
sVd5cyfo4
p118
I1
sVdf1bng3
p119
I1
sVd8osbw7
p120
I1
sVdhz7jzr
p121
I1
sVd1opg3b
p122
I1
sVdei97o9
p123
I1
sVd4ysggd
p124
I1
sVcytda62
p125
I1
sVdffdhwz
p126
I1
sVd286eo2
p127
I2
sVd3qm5yy
p128
I1
sVddu9pgg
p129
I1
sVdbfwpdv
p130
I1
sVdbzwypm
p131
I4
sVdruuhbw
p132
I1
sVdmufbog
p133
I1
sVdmt0unu
p134
I2
sVdhxiqkw
p135
I1
sVd5tci0i
p136
I1
sVdnrw09o
p137
I1
sVdmlgccb
p138
I2
sVdrvn9qs
p139
I1
sVddlv0yd
p140
I2
sVdaz423n
p141
I1
sVdfjkd9u
p142
I1
sVd7f49bn
p143
I1
sVdmknlrq
p144
I2
sVdbgpo80
p145
I1
sVd7ob0sw
p146
I1
sVdaqagnm
p147
I1
sVdim5rvd
p148
I1
sVd3ibu6q
p149
I1
sVdinaqwt
p150
I1
sVdbk1i97
p151
I2
sVdhnr25p
p152
I1
sVd4a1fv0
p153
I1
sVd0noujq
p154
I1
sVdfdzl4d
p155
I3
sVdk0e0k7
p156
I1
sVdcmnmp9
p157
I1
sVdelmkr5
p158
I1
sVd3tr3x3
p159
I2
sVcytd9pk
p160
I1
sVd1bp62x
p161
I1
sVdd28aji
p162
I1
sVdenssiw
p163
I1
sVd6fofl7
p164
I1
sVd21jywf
p165
I1
sVdmi9h6y
p166
I3
sVdfrvv0e
p167
I2
sVdejzbsn
p168
I1
sVdpfhxss
p169
I1
sVdj0qvar
p170
I1
sVczj5le6
p171
I1
sVdiuq0ox
p172
I1
sVdaz3fik
p173
I1
sVcyznieg
p174
I2
sVdkyk0ez
p175
I1
sVdqr9z8d
p176
I1
sVdha6vi8
p177
I1
sVd4kx4ws
p178
I1
sVdbqbfob
p179
I1
sVdtbqu4o
p180
I1
sVdkdsqtr
p181
I1
sVd9jqbgl
p182
I1
sVd0fz6tv
p183
I1
sVd9raczd
p184
I1
sVd0uu815
p185
I1
sVdd7epcj
p186
I2
sVdk31mb7
p187
I1
sVd8vsis2
p188
I3
sVcyjcyuu
p189
I2
sVd8ek67h
p190
I1
sVd87270k
p191
I1
sVczu77rj
p192
I1
sVd3ewf8z
p193
I1
sVd0b2ke3
p194
I1
sVdrrbl6k
p195
I1
sVdermpc3
p196
I3
sVdg76yxo
p197
I1
sVd1ycy36
p198
I1
sVdd63a0b
p199
I1
sVd52pqji
p200
I4
sVdpqfybn
p201
I1
sVd9wkdhn
p202
I1
sVcz4qak7
p203
I1
sVcztke2l
p204
I1
sVddrj2qo
p205
I1
sVdbb77w6
p206
I1
sVdmrowkk
p207
I1
sVd6w2iag
p208
I1
sVd6qu7g9
p209
I1
sVcyvwur2
p210
I1
sVd82n3lq
p211
I1
sVdkylgz4
p212
I1
sVdifrxxs
p213
I1
sVd4neu2j
p214
I2
sVd9ugl39
p215
I1
sVdfficod
p216
I2
sVd7443rk
p217
I1
sVdd6r1n4
p218
I1
sVd5glvgy
p219
I1
sVd2bejrd
p220
I1
sVd0b2m25
p221
I1
sVdjaeera
p222
I1
sVdb7qett
p223
I1
sVd6nfotl
p224
I1
sVdr4cznv
p225
I2
sVdfmx0mf
p226
I1
sVde1bvfo
p227
I1
sVd42bv1x
p228
I1
sVdrktz7t
p229
I1
sVdqxhxka
p230
I1
sVd76ytnp
p231
I1
sVd9uf9ek
p232
I3
sVdflaj4c
p233
I1
sVdrkakzc
p234
I3
sVd8wv627
p235
I2
sVd52sz98
p236
I1
sVd5grwai
p237
I1
sVd1ztfti
p238
I2
sVd0mifxy
p239
I1
sVddaefa1
p240
I1
sVdnh6qa6
p241
I1
sVd2aab5r
p242
I1
sVd52n8dz
p243
I1
sVdn0wevv
p244
I2
sVddrbu5l
p245
I2
sVdnqwqrt
p246
I1
sVdrdco1h
p247
I1
sVd5ta0yr
p248
I1
sVdmi9eo7
p249
I1
sVdjyjqq9
p250
I2
sVdeklr7x
p251
I1
sVd1zp5dj
p252
I1
sVcytk1l5
p253
I2
sVdikqcdz
p254
I1
sVdelmdwu
p255
I1
sVdmi8ggw
p256
I1
sVdofwb91
p257
I1
sVdgu76y7
p258
I1
sVddr4i4q
p259
I1
sVdn2i944
p260
I1
sVczdf1el
p261
I1
sVdpwlfsx
p262
I1
sVdgkfkt6
p263
I2
sVd93byt3
p264
I1
sVd7s3lgs
p265
I1
sVd3ylbpj
p266
I2
sVd5keduk
p267
I1
sVdda7sb1
p268
I2
sVdouxurz
p269
I2
sVcz1naev
p270
I1
sVcztivyt
p271
I2
sVd32dt3f
p272
I1
sVd9ket5b
p273
I1
sVdf907lu
p274
I1
sVd3dxr48
p275
I1
sVde7r9rl
p276
I1
sVd9qnnrx
p277
I1
sVd6hyd8f
p278
I2
sVdbjaiur
p279
I3
sVd0318a7
p280
I1
sVdk9w72g
p281
I2
sVd468xh8
p282
I1
sVd7afx4c
p283
I2
sVd0yczh5
p284
I2
sVd5a7o3h
p285
I2
sVd2hvy4u
p286
I1
sVdb795ps
p287
I1
sVdbtc7id
p288
I2
sVdef9xl0
p289
I4
sVdd6gbh6
p290
I1
sVd9wah07
p291
I1
sVd2czw0o
p292
I1
sVczj6uhy
p293
I1
sVcyja6nz
p294
I1
sVdtdu7c0
p295
I1
sVd5t96rp
p296
I1
sVd531k7f
p297
I1
sVdogrfa7
p298
I4
sVd9bwi5e
p299
I1
sVdgg0t1n
p300
I1
sVczwl11e
p301
I2
sVdn2nqjf
p302
I1
sVczxrqyt
p303
I1
sVddxeggu
p304
I1
sVd2w4xig
p305
I1
sVd7gof0g
p306
I1
sVddrdzt9
p307
I1
sVd38b4dl
p308
I2
sVd6azg2f
p309
I1
sVd4y0frd
p310
I1
sVdd9rfz7
p311
I1
s.