(dp0
Vdd8u8lo
p1
I1
sVd3133tk
p2
I1
sVd62q2z1
p3
I1
sVdabp8n6
p4
I1
sVd3fj7y2
p5
I1
sVdcefvh6
p6
I1
sVdrjv4xo
p7
I1
sVd0fwja1
p8
I1
sVdhjogtp
p9
I1
sVddbh5pj
p10
I1
sVddgybyy
p11
I2
sVd4782p9
p12
I1
sVd76edvw
p13
I1
sVd1cgfit
p14
I1
sVd7lku37
p15
I1
sVcyn05s5
p16
I1
sVd3f8wdm
p17
I2
sVdgevjic
p18
I1
sVdifub96
p19
I1
sVd4xrfep
p20
I1
sVdtdy06q
p21
I1
sVdkeqq15
p22
I1
sVcyqk0sh
p23
I1
sVd769tkg
p24
I1
sVday0gbh
p25
I1
s.