(dp0
Vdptqccy
p1
I1
sVdoodapt
p2
I1
sVdpbgstt
p3
I1
sVd2ctrr1
p4
I1
sVdes0m7r
p5
I1
sVdpwvs4m
p6
I1
sVdpp83e1
p7
I1
sVd15eg29
p8
I1
sVdjoy581
p9
I1
sVdd2hw9o
p10
I1
sVcyn5f9u
p11
I1
sVd3ik4nq
p12
I1
sVdkf76h1
p13
I1
sVd1v94hr
p14
I1
sVd9r94dc
p15
I2
sVd8ikqul
p16
I1
sVdi0tclz
p17
I1
sVdf2kwdj
p18
I1
sVdk1qrhj
p19
I1
sVd7cc9ku
p20
I1
sVd5c4wbm
p21
I1
sVdht7alr
p22
I1
sVd5gprw9
p23
I1
sVcz146nc
p24
I1
sVd3gdwkx
p25
I1
sVd7r0osb
p26
I1
sVd0iy60x
p27
I1
sVd27bb4j
p28
I1
sVdhrtm5r
p29
I1
sVdffv3hg
p30
I1
sVdruheem
p31
I1
sVdnehmn7
p32
I1
sVdax1v7y
p33
I1
sVdphxf7v
p34
I1
sVdswadbg
p35
I1
sVde6wktl
p36
I1
sVdd7bxlv
p37
I1
sVd3ugfnk
p38
I1
sVdczgt2x
p39
I2
sVd9zaec5
p40
I1
sVd3akw6d
p41
I1
s.