(dp0
Vd52xz5p
p1
I1
sVd3mvvru
p2
I1
sVd3gkbpi
p3
I1
sVdcakqvo
p4
I1
sVd2wgl04
p5
I1
sVd3i7k04
p6
I1
sVd5ug6ir
p7
I1
sVcypeo54
p8
I1
sVd2ktzn2
p9
I1
sVd0tvta3
p10
I2
sVdhjv517
p11
I1
sVdgfuzwl
p12
I1
sVd4hnrjk
p13
I1
sVdcowspf
p14
I1
sVczv1k07
p15
I1
sVcz9rvqo
p16
I3
sVdjaanjs
p17
I1
sVdj1lezc
p18
I1
sVdbppq6k
p19
I2
sVdaubl7y
p20
I1
sVdhus2lr
p21
I2
sVd9jnpyb
p22
I1
sVd6qajdj
p23
I1
sVdd2q1cb
p24
I2
sVd8wkjfk
p25
I1
sVd0ztf0h
p26
I5
sVdh0zubb
p27
I1
sVdc8yudo
p28
I1
sVd2qfsd9
p29
I1
sVczhc0pr
p30
I1
sVd0fmmzj
p31
I1
sVd1ibo2x
p32
I1
sVdeu5z8m
p33
I1
sVd6xctcz
p34
I2
sVdr3kgn6
p35
I5
sVd4yx8q7
p36
I1
sVdb381vn
p37
I1
sVcz9rkfq
p38
I1
sVdsclixd
p39
I1
sVdpafwvl
p40
I1
sVd2ktai6
p41
I1
sVdg5n75u
p42
I1
sVda5v2hk
p43
I1
sVdc30ilg
p44
I1
sVdaw4xce
p45
I1
sVdint1l6
p46
I1
sVdhv59cs
p47
I2
sVdiwqjj5
p48
I1
sVde4vdbf
p49
I2
sVd62lnb0
p50
I1
sVcytjj5g
p51
I1
sVd9rksou
p52
I1
sVdi09moa
p53
I1
sVd0us0bn
p54
I1
sVd0ucrwy
p55
I1
sVd882jws
p56
I1
sVd2qezqf
p57
I1
sVd2ksuch
p58
I1
sVczv23q3
p59
I1
sVd1cf8ea
p60
I2
sVcyr0v2x
p61
I1
sVdcth8am
p62
I1
sVdd20257
p63
I2
sVddfq67t
p64
I1
sVde3c4hu
p65
I3
sVd2ktkot
p66
I1
sVdcat0f1
p67
I1
sVd1napmt
p68
I1
sVd6aktsn
p69
I2
sVd15ngn3
p70
I1
sVd2bdc2k
p71
I1
sVd0ty409
p72
I1
sVd0ztnvs
p73
I1
sVdf4rtf5
p74
I1
sVdr3bqt8
p75
I2
sVdj83j55
p76
I2
sVd876306
p77
I1
sVdcvkzhk
p78
I1
sVd20s68q
p79
I1
sVdd4kaih
p80
I1
sVd8x90yi
p81
I2
sVdr3bfh2
p82
I4
sVd0prikk
p83
I1
sVd6akz4x
p84
I3
sVd2qdn3k
p85
I1
sVdifjbi6
p86
I1
s.