(dp0
Vd6hzq4j
p1
I1
sVdilzk9l
p2
I1
sVdilwucp
p3
I1
sVd1sbmw1
p4
I1
sVdit7r6t
p5
I1
sVdjwet21
p6
I2
sVd344ue4
p7
I2
sVddcizyr
p8
I1
sVdekwv0u
p9
I1
sVd8nmkvu
p10
I1
sVdmzfklp
p11
I1
sVd1211td
p12
I1
sVd3tckf7
p13
I1
s.