(dp0
Vdai6zw1
p1
I1
sVd8ylbtz
p2
I1
sVdavfb1q
p3
I1
sVdc2kgah
p4
I1
sVd78vw6s
p5
I1
sVd3y6a1t
p6
I1
sVd2sonwl
p7
I1
sVd20f184
p8
I1
sVd60x1or
p9
I1
sVdd2y2fo
p10
I2
sVd42vgvg
p11
I1
sVd15ymfv
p12
I1
sVd6dija7
p13
I1
sVd1689pa
p14
I1
sVdrqld4n
p15
I1
sVd5lgsd1
p16
I1
sVd7ht1m4
p17
I1
sVd8eauck
p18
I1
sVd1cmyfq
p19
I1
sVd0isdge
p20
I1
s.