(dp0
Vd29yjmj
p1
I1
sVdcl4x04
p2
I1
sVdexpa1b
p3
I1
sVdditrrb
p4
I1
sVdbact0m
p5
I1
sVd2n91rm
p6
I1
sVd4tfbpv
p7
I1
sVddoezb5
p8
I1
sVdjjg814
p9
I1
sVd7t9uqc
p10
I3
sVd47m08v
p11
I1
sVd02xn4p
p12
I1
sVd30xal0
p13
I1
sVdcsqh1z
p14
I1
sVdhzzmfm
p15
I1
sVd4r0ecm
p16
I1
sVcyoujkb
p17
I1
sVd0h0h2n
p18
I1
sVddcllp1
p19
I1
sVdsgslts
p20
I1
sVdg2bqx7
p21
I1
sVd5nf7qa
p22
I1
sVdenevf7
p23
I1
sVd7a9z3j
p24
I1
sVdbo8njg
p25
I1
sVdne7qmy
p26
I1
sVd0g3zru
p27
I1
sVdb0ari0
p28
I1
sVda373xa
p29
I1
sVdcmzaft
p30
I1
sVd3t89ko
p31
I2
sVd95j7du
p32
I1
sVd2hqk7e
p33
I1
sVdgtgmr7
p34
I1
sVd5wu8rd
p35
I1
sVdbhod1o
p36
I1
sVddfvv4o
p37
I1
sVczvs1ti
p38
I1
sVdekwdrw
p39
I1
sVdjc2new
p40
I1
sVd3b0kes
p41
I1
sVd1gje6z
p42
I1
sVd811fvu
p43
I1
sVdcbji04
p44
I1
sVd8gcmdm
p45
I1
sVdibqsa7
p46
I1
sVd3mf7m6
p47
I1
sVdb8khl8
p48
I5
sVdrql6dl
p49
I1
sVdc2zx7x
p50
I1
sVdhgl485
p51
I1
sVd0h828z
p52
I1
sVdcfs0xl
p53
I1
sVdju98l9
p54
I1
sVdq74hss
p55
I2
sVd7ar6cg
p56
I3
sVdkeobj8
p57
I1
sVdibaeau
p58
I1
sVdiaaxvy
p59
I1
sVd8c31uo
p60
I1
sVdd9g3ef
p61
I1
sVdrs0uye
p62
I1
sVd8ec3gf
p63
I2
sVdnsqrh3
p64
I1
sVd4wln8p
p65
I1
sVd54nzg6
p66
I1
sVdaqq4vk
p67
I1
sVd21mcdv
p68
I1
sVd6pp8az
p69
I1
sVdok5od0
p70
I1
sVd5y79up
p71
I1
sVdnjxf8j
p72
I1
sVdn45poa
p73
I1
sVdbfzwmr
p74
I1
sVcyuwaq7
p75
I1
sVd5g1zab
p76
I1
sVd0wf73a
p77
I2
sVdhjvklu
p78
I1
sVdadblal
p79
I1
sVd6no643
p80
I1
sVdkr23op
p81
I2
sVdbjlrta
p82
I1
sVdetedvp
p83
I1
sVda2zmba
p84
I1
sVd0e1sav
p85
I1
sVd6hyiwd
p86
I1
sVdgqny2k
p87
I1
sVcyzm4qf
p88
I3
sVdfmby0r
p89
I1
sVdaistit
p90
I1
sVd1pg14r
p91
I1
sVd2ynywq
p92
I2
sVdf14cny
p93
I1
sVd8wjyac
p94
I1
sVd0z3m9g
p95
I1
sVdexho62
p96
I1
sVdbmekm7
p97
I1
sVdbvzje9
p98
I3
sVd2y29nn
p99
I1
sVd4klf1t
p100
I2
sVcyid4u2
p101
I1
sVdneqt57
p102
I1
sVdfvbs5w
p103
I1
sVdbq7lur
p104
I1
sVds3ltfo
p105
I1
sVcz0nil9
p106
I1
sVdpapw3m
p107
I1
sVd1brybq
p108
I1
sVcyiv85p
p109
I1
sVcyva4ea
p110
I1
sVcz0jns3
p111
I1
sVdcpds3e
p112
I1
sVdp6k6re
p113
I1
sVdheq1k9
p114
I1
sVd7kawgv
p115
I1
sVddr79ae
p116
I1
sVden5c7j
p117
I1
sVcz47744
p118
I2
sVd19hsft
p119
I2
sVd2501v9
p120
I1
sVdqmlfjz
p121
I1
sVd0btlj1
p122
I1
sVd855d6j
p123
I1
sVdt9nsx9
p124
I1
sVd2uv37w
p125
I1
sVdiknich
p126
I1
sVd231jsf
p127
I1
sVd69dep3
p128
I1
sVdby2jbx
p129
I1
sVdhdmp4s
p130
I1
sVdn60h1i
p131
I1
sVd1e088v
p132
I1
sVczf3xjm
p133
I1
sVd0xjhwg
p134
I1
sVd4m14jq
p135
I1
sVd2a3i1k
p136
I1
sVd1mz7ta
p137
I1
sVd3zt1s4
p138
I1
sVdsvmm9y
p139
I1
sVdgbabbf
p140
I1
sVd5zrlho
p141
I1
sVd44u2rx
p142
I1
sVd3xofn9
p143
I1
sVd782x61
p144
I3
sVdb44q90
p145
I1
sVdpvcv28
p146
I1
sVczyoe1i
p147
I1
sVd8js63k
p148
I2
sVd6rshg5
p149
I1
sVd1itc12
p150
I1
sVdb2s50w
p151
I1
sVdtaplih
p152
I1
sVd1eac1b
p153
I1
sVcz9hp9j
p154
I1
sVdd19km6
p155
I1
sVdmt5jyr
p156
I1
sVd1zjkki
p157
I1
sVd80onbs
p158
I1
sVdi6fysg
p159
I1
sVdh7i3aj
p160
I1
sVdtgdgqv
p161
I1
sVdjjezib
p162
I1
sVdnc4bev
p163
I1
sVdmw5ehs
p164
I1
sVdgcy7d3
p165
I1
sVdkwgmku
p166
I1
sVdas2e26
p167
I1
sVddjb0f3
p168
I1
sVd81n6lh
p169
I1
sVd596ed6
p170
I1
sVdhpt7xx
p171
I1
sVd2syj6c
p172
I1
sVcywcmrm
p173
I1
sVcyiianv
p174
I3
sVdcghflf
p175
I1
sVdda4jw0
p176
I1
sVd1qgffm
p177
I1
sVd6fd67d
p178
I1
sVddtcsng
p179
I1
sVdf7we6w
p180
I1
sVczwy1m8
p181
I1
sVd0vav22
p182
I1
sVd5xnzo4
p183
I1
sVdeclnnx
p184
I1
sVd47o650
p185
I1
sVczzaqhw
p186
I1
sVd6iqx1l
p187
I1
sVd5fvin5
p188
I1
sVdbeyhbi
p189
I1
sVdqsjvhq
p190
I1
sVd6xbwqy
p191
I1
sVdfpx9j4
p192
I3
sVdpnaox6
p193
I1
sVdo4hw90
p194
I1
sVcyzgmem
p195
I1
sVd42avfr
p196
I1
sVd6izptz
p197
I1
sVd2yf611
p198
I1
sVd4bf4mi
p199
I1
sVdmmdglg
p200
I1
sVd1ugxpf
p201
I1
sVd0ddzn6
p202
I1
sVdki6art
p203
I1
sVdo02fr0
p204
I1
sVdrc72m7
p205
I1
sVd4xxecu
p206
I1
sVcykczpt
p207
I1
sVdi9yws6
p208
I1
sVd23vjlu
p209
I1
sVdbfqh4b
p210
I1
sVdb46v82
p211
I3
sVd2dplj3
p212
I1
sVd6hcq89
p213
I1
sVd4s86pj
p214
I1
sVd9xlt7s
p215
I1
sVd1cpgdl
p216
I1
sVde1bbj1
p217
I1
sVdiqozks
p218
I1
sVd4uz9x8
p219
I1
sVdiaghkn
p220
I1
sVdbuzdbi
p221
I1
sVdajk1uy
p222
I1
sVd3gazki
p223
I1
sVd0cxc0f
p224
I1
sVdgmkxba
p225
I1
sVd0jgreq
p226
I1
sVd14d41v
p227
I1
sVdoht2z1
p228
I1
sVd0ftrfe
p229
I1
sVdgbnjp1
p230
I1
sVdpucbds
p231
I1
sVd440i68
p232
I1
sVdabjawe
p233
I1
sVdjox0kz
p234
I1
sVd35f0iz
p235
I1
sVdi3px3q
p236
I1
sVdpjrofp
p237
I1
sVd0eyt1t
p238
I1
sVdp9top2
p239
I1
sVdcu57gt
p240
I2
sVczjoz37
p241
I1
sVd8y7n2o
p242
I1
sVd5hm4yx
p243
I1
sVd3mmkwa
p244
I1
sVdczg6xg
p245
I1
sVdhxiqkw
p246
I1
sVd92ddab
p247
I1
sVdnwev7l
p248
I1
sVd3ge6bk
p249
I1
sVd28yve1
p250
I1
sVdcjd79d
p251
I1
sVdsszqz6
p252
I1
sVdasch6c
p253
I1
sVd3q1ehs
p254
I1
sVdhn1mcq
p255
I1
sVd4jxg6l
p256
I1
sVd3uoe8b
p257
I1
sVdp3hv8x
p258
I1
sVd6hpwfn
p259
I1
sVd22u7pn
p260
I1
sVcywmv43
p261
I1
sVdemlua3
p262
I1
sVddf1ic4
p263
I1
sVd7ag39w
p264
I1
sVd1vy1ox
p265
I1
sVdickccw
p266
I1
sVdhnfio6
p267
I1
sVcz9247b
p268
I1
sVdaciiq7
p269
I1
sVd3cku6w
p270
I2
sVdne9hmw
p271
I1
sVd93eke3
p272
I1
sVd17p9vd
p273
I1
sVd5y592d
p274
I1
sVde1rd4s
p275
I2
sVcz5aiux
p276
I1
sVcz553s2
p277
I1
sVcyvxse1
p278
I2
sVd5ehvgs
p279
I1
sVdcf5627
p280
I1
sVd0ia8ig
p281
I1
sVdic838w
p282
I1
sVczdwd7i
p283
I1
sVd2321wb
p284
I3
sVdf5vxtn
p285
I1
sVdksywfj
p286
I1
sVcz04z55
p287
I2
sVd383vw7
p288
I1
sVd1gqcxj
p289
I2
sVd8h0cib
p290
I1
sVdav96gy
p291
I2
sVdaztias
p292
I1
sVdjm9e4e
p293
I1
sVd6cwyil
p294
I1
sVdsi28vx
p295
I1
sVdei4l1n
p296
I1
sVcypmi8t
p297
I2
sVdf57h1m
p298
I1
sVd4aj78s
p299
I1
sVdsz0pc0
p300
I1
sVdix49la
p301
I1
sVd0qitw9
p302
I1
sVdc10kfl
p303
I1
sVdtixts8
p304
I1
sVd3g2oq3
p305
I1
sVdh407zl
p306
I1
sVd0mifxy
p307
I1
sVd9w7jin
p308
I1
sVd1zy3co
p309
I1
sVdcq8ukn
p310
I1
sVdfaqall
p311
I1
sVdhpkjhn
p312
I1
sVdptgach
p313
I1
sVdeo7cr8
p314
I1
sVdkcwwu7
p315
I1
sVdip1bok
p316
I1
sVdimt78k
p317
I1
sVdmtb52n
p318
I1
sVdnzno5k
p319
I1
sVda8ej5z
p320
I2
sVdbqc2e5
p321
I1
sVdb3dzfc
p322
I1
sVdteypnx
p323
I1
sVd0d9dnn
p324
I1
sVdapneem
p325
I1
sVd1xi36r
p326
I1
sVdn9h28o
p327
I1
sVdc463aw
p328
I1
sVd8fzny2
p329
I1
sVdbzvmca
p330
I1
sVd25zgei
p331
I1
sVdiapjtz
p332
I1
sVczxqx3t
p333
I1
sVd29zl97
p334
I1
sVde99ahw
p335
I1
sVdf4n9vk
p336
I1
sVd2ibchp
p337
I1
sVdebkyb3
p338
I3
sVd011l52
p339
I1
sVd1pquju
p340
I1
sVd4zzbs6
p341
I1
sVdbgwhyg
p342
I1
sVd1b5odu
p343
I1
sVd4kae32
p344
I1
sVdesi30h
p345
I2
sVdkcqfo4
p346
I1
sVd07g5he
p347
I1
sVcznol5p
p348
I1
sVdbjd7n8
p349
I1
sVdj9ut6h
p350
I2
sVdhdkc38
p351
I1
sVd59sfyk
p352
I1
sVdeszrbp
p353
I1
sVd700a0a
p354
I1
sVd6r6y52
p355
I1
sVczkygch
p356
I1
sVdd4x189
p357
I1
sVcyq3r3d
p358
I1
sVd0oapp3
p359
I1
sVdd23zev
p360
I1
sVdniy1tp
p361
I1
sVdipm08g
p362
I1
sVd1396nn
p363
I1
sVdo3htn2
p364
I1
sVd0lmh04
p365
I1
sVdadhvxm
p366
I1
sVddhcqiw
p367
I1
sVcyjcusa
p368
I2
sVd6g9caf
p369
I1
sVdeuyor8
p370
I1
sVd5dr5ax
p371
I1
sVdo3e50y
p372
I1
sVd7arenn
p373
I1
sVdcyft6u
p374
I1
sVcz06mty
p375
I1
sVd6hbg4v
p376
I1
sVde6wktl
p377
I1
sVdo5egvp
p378
I1
sVdhrtttc
p379
I1
sVdpbxk12
p380
I1
sVdaspxjn
p381
I3
sVddlpwfo
p382
I1
sVd1crn9x
p383
I1
sVd3ndeb9
p384
I1
sVdkb3nrs
p385
I1
sVd2a9iub
p386
I1
sVd627gng
p387
I1
sVd278xew
p388
I1
sVdj8jvv0
p389
I1
sVd5hfz2s
p390
I1
sVddt6maa
p391
I1
sVcyontmn
p392
I1
sVd1vqqih
p393
I1
sVdbtor3y
p394
I1
sVdb4kun0
p395
I1
sVczcwtle
p396
I1
sVds6dsgv
p397
I1
sVdasn6rx
p398
I1
sVdape5fg
p399
I1
sVd4k1a33
p400
I1
sVdjn8r65
p401
I1
sVdhp4dsu
p402
I1
sVd0y6ira
p403
I2
sVda5lb6b
p404
I2
sVcynbb3v
p405
I1
sVdfihxp7
p406
I1
sVd2xywf4
p407
I1
sVd2gnrq4
p408
I2
sVdskv0dg
p409
I1
sVd3gfcdr
p410
I2
sVdqmznya
p411
I1
sVdqh2er4
p412
I1
sVdew1pc4
p413
I1
sVdqgu60f
p414
I2
sVdtgnz2h
p415
I1
sVddu3oxy
p416
I1
sVdcu1291
p417
I2
sVdodns9t
p418
I1
sVd2b6sfv
p419
I1
sVdkgckvh
p420
I1
sVdhq9e09
p421
I1
sVdjtfmvc
p422
I1
sVd7jeh8d
p423
I1
sVdisz7cs
p424
I1
sVdorox9h
p425
I1
sVd7qeufh
p426
I1
sVdjniwx6
p427
I1
sVdenw8ot
p428
I1
sVd6kputv
p429
I1
sVdas9f7a
p430
I1
sVdgt9sw8
p431
I1
sVd2dbfnn
p432
I1
sVdgiy6m6
p433
I1
sVd2qzh55
p434
I1
sVcyybx0p
p435
I1
sVdhn1n7n
p436
I2
sVd7rw0rn
p437
I1
sVd9p9cf8
p438
I2
sVdbkwd5v
p439
I1
sVd14q5bi
p440
I1
sVczbtdtj
p441
I1
sVcz7s560
p442
I1
sVdj5thxy
p443
I1
sVd4ukbvl
p444
I2
sVdej5q7e
p445
I2
sVd8vkbba
p446
I1
sVcze5czr
p447
I1
sVd4a47w0
p448
I1
sVczdr371
p449
I2
sVdnav136
p450
I1
sVd9tohii
p451
I1
sVder6gwd
p452
I1
sVda2hfwz
p453
I1
sVd5bsrgd
p454
I1
sVdgycfiz
p455
I1
sVd5sqpx7
p456
I1
sVd5nj1sp
p457
I1
sVdbt6aj9
p458
I1
sVd74emtr
p459
I1
sVdkpe8hz
p460
I1
sVdago47f
p461
I1
sVdh3xxes
p462
I1
sVcz4wqpe
p463
I1
sVd1mb4ml
p464
I1
sVd8nhtxn
p465
I1
sVdc7jhiq
p466
I1
sVd02dajx
p467
I1
sVdf75np4
p468
I1
sVdco97ij
p469
I1
sVdb54bcs
p470
I1
sVd2u120o
p471
I1
sVdi6naki
p472
I1
sVdt4jjp3
p473
I1
sVd0ihvct
p474
I1
sVdaom1kr
p475
I1
sVd0x4wz2
p476
I1
sVdfewf3n
p477
I1
sVdd6be6x
p478
I1
sVd3r3y5m
p479
I2
sVdmvfrru
p480
I1
sVdqnohzg
p481
I1
sVdixpdex
p482
I1
sVdoc4fo5
p483
I1
sVd266hfz
p484
I1
sVdo8y6vf
p485
I1
sVdrd60b2
p486
I1
sVd4fydtv
p487
I1
sVczi3opx
p488
I1
sVd91n6ri
p489
I1
sVdg28ydb
p490
I1
sVdeipxg9
p491
I1
sVdh54p3e
p492
I1
sVdf000kk
p493
I1
sVd1h4hfw
p494
I1
sVd8sagvk
p495
I1
sVdmfv3g8
p496
I1
sVdgb9osx
p497
I1
sVdb6np9y
p498
I1
sVdn8qbs5
p499
I1
sVdg0ymzp
p500
I1
sVdn9ofxs
p501
I1
sVdegss2h
p502
I1
sVdphnkug
p503
I1
sVczqu8kv
p504
I1
sVdcxym7l
p505
I1
sVdeyriis
p506
I1
sVd8dnkds
p507
I1
sVddzkn27
p508
I1
sVdcdmty2
p509
I1
sVd2kunst
p510
I1
sVd572gmt
p511
I1
sVdoe15az
p512
I1
sVdoj400j
p513
I1
sVd513qjl
p514
I1
sVdqu5lhe
p515
I1
sVdr6i46d
p516
I1
sVd4o1z1m
p517
I1
sVdixylud
p518
I1
sVczrsj5p
p519
I2
sVd37y6ac
p520
I1
sVcypk90p
p521
I1
sVdovq7ub
p522
I1
sVdhjdjsa
p523
I1
sVd17vdav
p524
I1
sVdedxorx
p525
I1
sVdcq0ubp
p526
I4
sVde3x3fh
p527
I6
sVd1epkbo
p528
I1
sVdjelm3a
p529
I1
sVd9r4ou4
p530
I1
sVd6gtqwy
p531
I1
sVdkrz55m
p532
I1
sVd5mpxco
p533
I1
sVd4jld5p
p534
I1
sVdcqk8zv
p535
I1
sVddrbgk9
p536
I1
sVdf2m076
p537
I1
sVd17l7ay
p538
I1
sVdrjs1ew
p539
I2
sVdrp1wdh
p540
I1
sVd04bgy0
p541
I1
sVd399u2x
p542
I1
sVdn5lmqt
p543
I1
sVdq5basz
p544
I2
sVd6bgibm
p545
I1
sVd5v7qyw
p546
I1
sVczkg1p4
p547
I1
sVd30jn04
p548
I1
sVdruuhbw
p549
I2
sVd07z4i4
p550
I1
sVdmtahbv
p551
I1
sVd31maj5
p552
I1
sVdpo4ma3
p553
I1
sVdognnjx
p554
I1
sVdmf12zd
p555
I1
sVcyujcy6
p556
I2
sVdaa8k5q
p557
I1
sVdb9ov3z
p558
I1
sVdihuw36
p559
I1
sVd8wcp40
p560
I1
sVdfc0ntq
p561
I1
sVd1uipwa
p562
I1
sVdb5jblk
p563
I1
sVdnugn2e
p564
I1
sVdmm8tss
p565
I1
sVdqksg5v
p566
I3
sVdd8madf
p567
I1
sVdijmaui
p568
I1
sVdh5v9qm
p569
I1
sVdj4c7p6
p570
I1
sVd63ruvo
p571
I2
sVdesjqeg
p572
I2
sVd5x1879
p573
I1
sVd5m64nr
p574
I2
sVd38wc38
p575
I1
sVd8ns8el
p576
I1
sVd1fmqc1
p577
I1
sVdq1zc0w
p578
I1
sVd7mtc19
p579
I1
sVd4xnmh8
p580
I1
sVdbk97ds
p581
I1
sVdr5zeg1
p582
I1
sVd3kujax
p583
I2
sVddwnf3c
p584
I1
sVdbsncqz
p585
I1
sVdqkxnb8
p586
I1
sVdauxjix
p587
I1
sVd5n93mw
p588
I1
sVdej6y52
p589
I1
sVdhtthpr
p590
I1
sVdnu52c0
p591
I1
sVdqc2vcb
p592
I1
sVd0gzjy1
p593
I1
sVdc2rtt7
p594
I1
sVd86otqs
p595
I1
sVder03ut
p596
I1
sVdbdqhph
p597
I1
sVd25zji4
p598
I1
sVdenrihh
p599
I1
sVczrfh9g
p600
I1
sVda5vlcy
p601
I1
sVd4fb6fm
p602
I1
sVd2y5sys
p603
I1
sVdemvbfa
p604
I1
sVdad0qv9
p605
I1
sVdgyswl9
p606
I1
sVd2fm8ei
p607
I1
sVd3jq7or
p608
I1
sVd9nfmrh
p609
I1
sVdeuj0ul
p610
I1
sVd05339g
p611
I1
sVd3rvzea
p612
I1
sVd9wteu5
p613
I1
sVdjr9653
p614
I1
sVd2hk7tn
p615
I1
sVd4va85d
p616
I2
sVd2plglb
p617
I1
sVd59qyyi
p618
I1
sVdh5qmlr
p619
I2
sVd84pxl8
p620
I1
sVdf4g2n6
p621
I1
sVd6i3fg7
p622
I1
sVdjqn43t
p623
I1
sVd64d4nx
p624
I1
sVdrxv756
p625
I1
sVde37a11
p626
I1
sVcys2jsv
p627
I1
sVdrl5jdf
p628
I1
sVczi16dm
p629
I2
sVcz0vheb
p630
I1
sVdbpvvpg
p631
I1
sVde0r6u0
p632
I2
sVd54e63z
p633
I1
sVd84rwrm
p634
I1
sVd7tgia9
p635
I1
sVd4y1vzp
p636
I1
sVd2i22ui
p637
I1
sVdr0t85u
p638
I1
sVdg7ojmj
p639
I2
sVd6aegss
p640
I1
sVd3512ef
p641
I1
sVdh85k33
p642
I2
sVd5hnt8h
p643
I2
sVdasn21r
p644
I1
sVddhhkqn
p645
I1
sVcz6ant2
p646
I1
sVdo1ma2b
p647
I1
sVd2pearq
p648
I1
sVd9ga7vd
p649
I1
sVdjskzwl
p650
I1
sVd1ww6oy
p651
I2
sVdcwr172
p652
I2
sVd6hfajn
p653
I1
sVd3ro40e
p654
I1
sVd0buhs6
p655
I1
sVdafs1i7
p656
I1
sVd6bojx1
p657
I1
sVd9dd794
p658
I1
sVdasbg5p
p659
I1
sVczxssm3
p660
I1
sVdgci0sq
p661
I1
sVdo5wpot
p662
I1
sVd1f26ov
p663
I1
sVd67bpcc
p664
I1
sVdaycozc
p665
I1
sVdk54glz
p666
I1
sVdfwt00y
p667
I1
sVd0761ag
p668
I1
sVd2lqzl1
p669
I1
sVddtwskc
p670
I1
sVdqf9bri
p671
I1
sVd8wcd5c
p672
I1
sVdcxgjmx
p673
I2
sVde78br7
p674
I1
sVd6timbx
p675
I1
sVd97081f
p676
I1
sVdcmalv2
p677
I1
sVdn1f52r
p678
I4
sVdf43q7q
p679
I1
sVddi11vt
p680
I1
sVd6mnju4
p681
I1
sVd4n20dk
p682
I1
sVczbi9rp
p683
I1
sVd5p2zmc
p684
I1
sVczyl6bb
p685
I1
sVdhh08j2
p686
I1
sVdhxtnmv
p687
I1
sVd13goov
p688
I1
sVdbhh4zx
p689
I1
sVdho3zz6
p690
I1
sVdsrfp2b
p691
I1
sVcyogh5u
p692
I1
sVdk5m1zg
p693
I1
sVczqq3f4
p694
I1
sVdo7br4f
p695
I1
sVd67kwnk
p696
I1
sVdc4vulk
p697
I1
sVczropow
p698
I1
sVdqs4f2u
p699
I1
sVdct5fpr
p700
I1
sVcyx6igw
p701
I1
sVdd3p869
p702
I1
sVd4ubem1
p703
I1
sVdi4kml8
p704
I1
sVd1xctco
p705
I1
sVd1i5gsg
p706
I1
sVdpthxza
p707
I1
sVd3xqc2g
p708
I1
sVdg3we87
p709
I1
sVd84v40o
p710
I2
sVdhztq6p
p711
I1
sVdb8o8pc
p712
I1
sVdetlw5c
p713
I1
sVd028qij
p714
I1
sVczmozpo
p715
I1
sVdgfouwr
p716
I1
sVdb576pu
p717
I1
sVd7rxsfa
p718
I1
sVcztwroi
p719
I1
sVd9hliys
p720
I1
sVddx0xpd
p721
I1
sVd791g1i
p722
I1
sVder2fmk
p723
I1
sVczi62gi
p724
I1
sVdhau5uv
p725
I1
sVdg5r5sk
p726
I1
sVd2pvdh9
p727
I1
sVd3b4vwz
p728
I1
sVd5jakjq
p729
I1
sVdt9chhu
p730
I1
sVd9fetbw
p731
I1
sVd078eqg
p732
I1
sVd3gv7j8
p733
I1
sVd5p76wj
p734
I1
sVdiy2dng
p735
I1
sVdmg9ltg
p736
I1
sVd4i3iu6
p737
I1
sVd1d4nua
p738
I1
sVd38wy24
p739
I1
sVd0y57qr
p740
I1
sVdc2k443
p741
I1
sVdijgfvg
p742
I1
sVd8gsm3k
p743
I1
sVd0tr5oi
p744
I1
sVdcm039m
p745
I1
sVdi0xp9j
p746
I1
sVdmz9z9u
p747
I1
sVdccwtv3
p748
I1
sVdfa402l
p749
I1
sVd95qsrm
p750
I1
sVdnqznkh
p751
I1
sVczb0wx7
p752
I1
sVdfskhab
p753
I1
sVdg1mb9t
p754
I1
sVdf27myk
p755
I1
sVd9ti2m9
p756
I1
sVde2jdx8
p757
I1
sVdbjxbze
p758
I1
sVd5bnh3u
p759
I1
sVdhy3iyi
p760
I1
sVdaez0lp
p761
I1
sVd24m5z0
p762
I1
sVd2plhy4
p763
I1
sVdkb81hl
p764
I1
sVd00q00j
p765
I1
sVd1v8r78
p766
I1
sVdddpok1
p767
I3
sVdidzx63
p768
I1
sVd33z7us
p769
I1
sVddt70fe
p770
I1
sVd04ajbz
p771
I1
sVdtak794
p772
I1
sVdk91sbs
p773
I1
sVczqw520
p774
I1
sVd3f5tk5
p775
I1
sVd22mcsr
p776
I1
sVd87lczf
p777
I1
sVdt7wfuj
p778
I1
sVd4tzq7s
p779
I1
sVcyq8kwk
p780
I1
sVdcyhvik
p781
I2
sVd4l308p
p782
I1
sVczu72r5
p783
I1
sVczfffmr
p784
I1
sVdgdwpbv
p785
I1
sVdb56k3q
p786
I1
sVd6w9i5i
p787
I1
sVdj5nccb
p788
I1
sVddy7dad
p789
I1
sVdeesiuw
p790
I1
sVdastwnp
p791
I1
sVdd0pw0k
p792
I1
sVdgnk9r9
p793
I1
sVdi9z33h
p794
I1
sVd0grglw
p795
I1
sVczah1sl
p796
I1
sVdbjauol
p797
I1
sVdhvd9ti
p798
I1
sVdmn88z7
p799
I1
sVdo8pkfx
p800
I1
sVd6xel5n
p801
I1
sVda8a78a
p802
I1
sVd00xzfm
p803
I1
sVd8noo6w
p804
I1
sVd3cicrs
p805
I1
sVdaidoez
p806
I1
sVdjl9iru
p807
I1
sVd7ee8hq
p808
I1
sVcyz48eh
p809
I1
sVde9erew
p810
I1
sVdd8eoz1
p811
I1
sVdb574lh
p812
I2
sVdnhyhqz
p813
I1
sVdgc7b2y
p814
I1
sVd3fu07n
p815
I1
sVdd8h443
p816
I1
sVdolmxd8
p817
I1
sVdnq8mk4
p818
I1
sVd0yjjr4
p819
I1
sVd33zr8p
p820
I1
sVdoxbo7a
p821
I1
sVd08ghhw
p822
I1
sVd4sloyw
p823
I1
sVdf5e4jm
p824
I1
sVdn8ddtx
p825
I1
sVdfye3ok
p826
I1
sVd8juyhb
p827
I1
sVdi96m9w
p828
I1
sVd3jo63p
p829
I1
sVdqusf6g
p830
I1
sVd3minu5
p831
I1
sVdgwizaj
p832
I1
sVd2b1hns
p833
I1
sVdtbe8et
p834
I1
sVd8ks9ew
p835
I1
sVdbof2zl
p836
I1
sVd3ffbwr
p837
I1
sVczpb5q9
p838
I1
sVdcsg5da
p839
I1
sVdki5a0e
p840
I1
sVcyv3zw1
p841
I1
sVdf62smp
p842
I1
sVdia4147
p843
I1
sVd8kvbel
p844
I1
sVd192su3
p845
I1
sVdbh183q
p846
I1
sVd9smdnc
p847
I1
sVd6uib1u
p848
I1
sVdo7xgx6
p849
I1
sVd2yad4e
p850
I2
sVd6qo91w
p851
I1
sVczbjnh1
p852
I1
sVde2z9on
p853
I1
sVdgtyhgp
p854
I1
sVdh0cvjp
p855
I1
sVdqwscc0
p856
I1
sVdmo37jb
p857
I1
sVdegb2h5
p858
I1
sVcyp3l3p
p859
I1
sVdc8zdoz
p860
I1
sVdetkv9d
p861
I1
sVd2o4b1q
p862
I1
sVdrjuziz
p863
I1
sVd67tvgu
p864
I1
sVdafcvd0
p865
I1
sVcz5kp7n
p866
I1
sVd3j6pqw
p867
I2
sVdd3dgby
p868
I1
sVcyljbjp
p869
I1
sVd8shpmd
p870
I1
sVd3xnia4
p871
I1
sVd88ohax
p872
I1
sVcyndwz8
p873
I1
sVd2vr0lm
p874
I1
sVdh83ye9
p875
I1
sVdhtt01w
p876
I1
sVd2d444e
p877
I1
sVdc2hlqc
p878
I1
sVd7gleeu
p879
I4
sVdggkrmh
p880
I1
sVddp4t1v
p881
I2
sVcyn54aj
p882
I2
sVd999kit
p883
I1
sVdffj5eg
p884
I1
sVcytinwf
p885
I1
sVd5b7h56
p886
I1
sVd14bx4y
p887
I1
sVd360cqa
p888
I1
sVdjc05cd
p889
I1
sVdpk9fdk
p890
I1
sVdc5ly31
p891
I1
sVd1qneuc
p892
I1
sVdrlib2a
p893
I1
sVdjeekzo
p894
I1
sVdake1lr
p895
I1
sVdquz1qu
p896
I1
sVd5ntkfv
p897
I1
sVdgpyrp1
p898
I1
sVd21u8ky
p899
I1
sVd1oruys
p900
I1
sVdrygoqo
p901
I1
sVdnhsun5
p902
I1
sVd2pi1qr
p903
I1
sVddt7waq
p904
I1
sVd17gnye
p905
I1
sVdnpmy9v
p906
I1
sVcytsn8o
p907
I1
sVdi104uo
p908
I1
sVdjzgzwl
p909
I1
sVdoc5d7w
p910
I1
sVdqyjm6n
p911
I1
sVd73fmyc
p912
I1
sVczzrouj
p913
I1
sVdnsz382
p914
I1
sVd3rz8cs
p915
I1
sVdky4tmh
p916
I1
sVdilbv0w
p917
I1
sVdphhqmw
p918
I1
sVcylv5zy
p919
I1
sVd1dpru7
p920
I1
sVd8j1we1
p921
I1
sVd3r5zwz
p922
I1
sVdq9rg9z
p923
I1
sVd5fjkcu
p924
I1
sVdn8xbgn
p925
I1
sVd6wxaw0
p926
I1
sVdg0cray
p927
I1
sVd2lioda
p928
I1
sVdh18fr0
p929
I1
sVdea104s
p930
I1
sVdoe0www
p931
I1
sVdj5v5zc
p932
I1
sVdcksgox
p933
I1
sVddjqcb0
p934
I1
sVdi0rvt2
p935
I1
sVd7xdal5
p936
I1
sVd08fg37
p937
I1
sVd9nwn1c
p938
I1
sVd9p4723
p939
I1
sVdhgyfm5
p940
I1
sVd6kedvs
p941
I1
sVdbsof5l
p942
I1
sVd6qmccb
p943
I1
sVdfffgce
p944
I1
sVdqq60n9
p945
I1
sVd79dskl
p946
I1
sVdh9dzho
p947
I1
sVdf36p0z
p948
I1
sVd0gd80n
p949
I1
sVdrtadv3
p950
I1
sVczprly2
p951
I1
sVdf9kcdn
p952
I1
sVdn1a4z4
p953
I2
sVdjzaib1
p954
I1
sVd4jioxr
p955
I1
sVdi7xfhh
p956
I1
sVd4f304z
p957
I1
sVd9gqyj2
p958
I1
sVd8gp35j
p959
I1
sVd6i73ri
p960
I1
sVdew5zvg
p961
I1
sVd45p4ge
p962
I1
sVdshni4f
p963
I1
sVd0xd8yd
p964
I1
sVd0kqcgd
p965
I1
sVd3n4xkr
p966
I3
sVd0xwpxv
p967
I1
sVd55428n
p968
I1
sVd3a02bu
p969
I1
sVd1fki7g
p970
I1
sVdg0h7jr
p971
I1
sVd80b0na
p972
I1
sVda2tluq
p973
I1
sVdfu871c
p974
I1
sVd827wqs
p975
I1
sVd235dwg
p976
I1
sVd2d0w6l
p977
I1
sVdrytnfn
p978
I1
sVd66sfvl
p979
I1
sVdcsnpyg
p980
I1
sVds92yo7
p981
I1
sVdi8n3hf
p982
I1
sVd5cdda0
p983
I1
sVdkvw8n9
p984
I1
sVdhch3g8
p985
I1
sVdprlvfp
p986
I1
sVdap1sai
p987
I2
sVdpqtv5z
p988
I1
sVdptlv39
p989
I2
sVdqcaw5j
p990
I1
sVd9lc8hj
p991
I1
sVd39mmyj
p992
I1
sVd3gk6jq
p993
I1
sVd7nd7ct
p994
I1
sVdfztzeg
p995
I1
sVdewi1ym
p996
I1
sVd4mt74h
p997
I1
sVdep0c99
p998
I1
sVd36fqdy
p999
I1
sVd71eaic
p1000
I1
sVdiut2vl
p1001
I1
sVd0t7ufq
p1002
I1
sVdj5mox5
p1003
I4
sVdjcq1ru
p1004
I1
sVcyutkkt
p1005
I1
sVddzgw8v
p1006
I1
sVd1ziwq1
p1007
I1
sVd7gbwy6
p1008
I1
sVd775lif
p1009
I1
sVczq06b3
p1010
I2
sVdg5qw49
p1011
I1
sVdtfea5z
p1012
I1
sVd7zzat8
p1013
I1
sVd1jlxa0
p1014
I1
sVczxpme3
p1015
I1
sVcznt369
p1016
I1
sVd5x1cz9
p1017
I1
sVdjki3d6
p1018
I1
sVdh96gh2
p1019
I1
sVdkch2bw
p1020
I2
sVd1v29cs
p1021
I1
sVdmgdzu7
p1022
I1
sVdcceo0n
p1023
I2
sVdgiqos8
p1024
I1
sVd0lw0ol
p1025
I3
sVde6smhb
p1026
I1
sVdketdxr
p1027
I1
sVdd53o90
p1028
I1
sVdd3fgf8
p1029
I1
sVdmrwkxa
p1030
I2
sVd2kznzk
p1031
I1
sVde7el3y
p1032
I1
sVdfaq7b0
p1033
I2
sVdbgif2b
p1034
I1
sVdjsl6dq
p1035
I1
sVdn73mca
p1036
I1
sVd1m81wf
p1037
I1
sVdex14bi
p1038
I1
sVdobuqkn
p1039
I1
sVde3jkx8
p1040
I1
sVd99dpki
p1041
I1
sVdd7mn8j
p1042
I1
sVdgxjtdq
p1043
I1
sVd12z9x9
p1044
I2
sVd55mgm0
p1045
I1
sVdjbvkoj
p1046
I1
sVdnh9943
p1047
I1
sVdi3024z
p1048
I1
sVdfhn8ne
p1049
I1
sVdbzcb4x
p1050
I1
sVdftoref
p1051
I1
sVcz4njd6
p1052
I1
sVdoigzqk
p1053
I1
sVdd5nhvv
p1054
I1
sVd1ch3vk
p1055
I1
sVdeag2f0
p1056
I1
sVd3y4lik
p1057
I1
sVdb47xxl
p1058
I2
sVd2k2qvb
p1059
I1
sVdg5m4gk
p1060
I1
sVdkdmmp7
p1061
I1
sVdmye4ba
p1062
I1
sVdsxv015
p1063
I1
sVde5r9ym
p1064
I1
sVdg47q08
p1065
I1
sVdk2ikk2
p1066
I1
sVd5etic1
p1067
I1
sVd1ne7y4
p1068
I1
sVdab2ui6
p1069
I1
sVdenn7aj
p1070
I1
sVdb3svmc
p1071
I1
sVczgr7bo
p1072
I1
sVd2j8soj
p1073
I1
sVd2ztz0i
p1074
I1
sVdmhdetv
p1075
I1
sVdbf3nvv
p1076
I1
sVd6q8uzm
p1077
I1
sVcz887ss
p1078
I1
sVd1i885r
p1079
I1
sVcyl0jxb
p1080
I1
sVczm8d76
p1081
I1
sVda1q5wd
p1082
I1
sVd48zrgl
p1083
I1
sVdfh1iwq
p1084
I2
sVda4hq59
p1085
I1
sVd2a933z
p1086
I1
sVdef3dc8
p1087
I1
sVdk9qe88
p1088
I1
sVdf1b79r
p1089
I1
sVdikljzc
p1090
I1
sVdhd8bln
p1091
I1
sVd229scd
p1092
I1
sVdmjx2lo
p1093
I1
sVd9dsvu4
p1094
I1
sVdhkj83n
p1095
I1
sVdchm7k0
p1096
I1
sVd4ijk87
p1097
I1
sVd5fqyy3
p1098
I1
sVdfipe17
p1099
I1
sVd97d6q3
p1100
I1
sVdo86ffe
p1101
I1
sVd2u7ru9
p1102
I1
sVd5ftf32
p1103
I1
sVde93nqc
p1104
I2
sVdnr277g
p1105
I1
sVd2ha1zs
p1106
I1
sVcz7dh34
p1107
I1
sVdiahic0
p1108
I1
sVdk1vbhs
p1109
I1
sVdh2g4h2
p1110
I1
sVd5otshv
p1111
I1
sVdn6ry2q
p1112
I1
sVdn5mgb4
p1113
I1
sVdaqwj3v
p1114
I3
sVdfp7v8v
p1115
I1
sVd07cohw
p1116
I1
sVd1vhfok
p1117
I1
sVdfypcy3
p1118
I1
sVd7hz47f
p1119
I1
sVd6si7zz
p1120
I1
sVd1c8j2k
p1121
I1
sVd0n1mue
p1122
I1
sVdshko11
p1123
I1
sVdj42ze1
p1124
I1
sVdbs8313
p1125
I1
sVdqox07y
p1126
I1
sVdcv1dra
p1127
I1
sVddwvtyx
p1128
I1
sVdj2zjq1
p1129
I1
sVdgkcgwt
p1130
I1
sVdqka3em
p1131
I1
sVd2aux3a
p1132
I1
sVdrpwhlv
p1133
I1
sVdiqeer4
p1134
I1
sVdcw7o83
p1135
I1
sVdbnjp5j
p1136
I1
sVdgs67bg
p1137
I1
sVcyo3hfz
p1138
I2
sVczbn9gx
p1139
I1
sVd695hss
p1140
I1
sVdhoq8k0
p1141
I1
sVdc5xh98
p1142
I1
sVd4n8odr
p1143
I1
sVddxfnyr
p1144
I1
sVdd7p2pi
p1145
I1
sVdf0dbtv
p1146
I1
sVd8oqkfb
p1147
I1
sVd0qt01h
p1148
I1
sVcz69zvp
p1149
I1
sVd6ebdh5
p1150
I1
sVdhlzzi8
p1151
I1
sVdppworo
p1152
I1
sVd2q3n54
p1153
I1
sVddhe7x2
p1154
I2
sVde66yey
p1155
I1
sVd8bm5tx
p1156
I1
sVd7tro3b
p1157
I2
sVdg5yjv3
p1158
I1
sVczlkjfh
p1159
I1
sVcyjlr7b
p1160
I1
sVd4u7qrb
p1161
I1
sVd05l6kb
p1162
I1
sVcynqp4b
p1163
I1
sVd1jowhk
p1164
I1
sVdrdffvs
p1165
I2
sVd4u6q72
p1166
I1
sVd5uf52n
p1167
I1
sVczjs6vq
p1168
I1
sVd5v2ghj
p1169
I1
sVd1roqc7
p1170
I1
sVcz4mmnr
p1171
I1
sVdj6igdw
p1172
I1
sVd43hfr5
p1173
I1
sVdig8rc6
p1174
I1
sVdi3g838
p1175
I1
sVdh88b0y
p1176
I1
sVdihc91v
p1177
I3
sVdmk51wk
p1178
I1
sVd4mlriz
p1179
I1
sVdeu24em
p1180
I1
sVd7yam60
p1181
I1
sVdc2g9ef
p1182
I1
sVd23lxan
p1183
I1
sVdfttrfg
p1184
I1
sVd4b7ek6
p1185
I1
sVdqvirrk
p1186
I1
sVd4gpbs3
p1187
I1
sVd996x14
p1188
I1
sVd19gqsb
p1189
I1
sVd5ckpb5
p1190
I1
sVd4bfzwx
p1191
I1
sVdnjjr9j
p1192
I2
sVd9lgvtv
p1193
I1
sVd4fgtiu
p1194
I1
sVd39ycd3
p1195
I1
sVdbt4z63
p1196
I1
sVdd2wx0j
p1197
I2
sVdo0w61s
p1198
I1
sVd6u7ak9
p1199
I1
sVddsoq96
p1200
I1
sVddwd03l
p1201
I1
sVdkp6nhf
p1202
I1
sVd9v0bx5
p1203
I1
sVdknzp0o
p1204
I1
sVda2sdvm
p1205
I1
sVdbqdja1
p1206
I1
sVczb1dhf
p1207
I1
sVdsaixwq
p1208
I1
sVdc9dmb4
p1209
I1
sVddf2xb8
p1210
I2
sVdo9rsnl
p1211
I1
sVdbw1ro0
p1212
I1
sVd24wnrs
p1213
I1
sVd6y3n3r
p1214
I1
sVd1ez0mv
p1215
I1
sVd20x9ps
p1216
I1
sVd6cz39s
p1217
I1
sVd3ce297
p1218
I1
sVdembl7c
p1219
I1
sVdr8asdm
p1220
I1
sVdt3y5ue
p1221
I1
sVdks130k
p1222
I2
sVdqclj5a
p1223
I1
sVcz4l6pd
p1224
I1
sVdmmn9cn
p1225
I1
sVdp9frw4
p1226
I1
sVdgn0z0c
p1227
I1
sVczy2wpy
p1228
I1
sVdgg5mhm
p1229
I1
sVd627y9w
p1230
I1
sVdejk392
p1231
I1
sVd4or4v6
p1232
I1
sVd5qargx
p1233
I1
sVczgych7
p1234
I1
sVdixb5sj
p1235
I1
sVdskqpuc
p1236
I1
sVdbg8ukh
p1237
I1
sVdczxtrl
p1238
I1
sVd4n7lja
p1239
I1
sVd5a1rl4
p1240
I1
sVdik44ue
p1241
I1
sVdft6d7m
p1242
I1
sVdecw5qy
p1243
I3
sVdffhz4q
p1244
I1
sVdc8sp6k
p1245
I1
sVdmmp56p
p1246
I6
sVd57g2yt
p1247
I1
sVdc2sa5g
p1248
I1
sVd4au4jh
p1249
I1
sVd1caokl
p1250
I3
sVdp35a14
p1251
I1
sVddwlaxz
p1252
I2
sVd65fzqk
p1253
I1
sVdcch388
p1254
I1
sVdgdr36b
p1255
I1
sVdn8yk5q
p1256
I1
sVd1x874s
p1257
I1
sVd4tm7fb
p1258
I1
sVdp44viu
p1259
I1
sVczvycxs
p1260
I1
sVcyq860u
p1261
I1
sVdh6h5kx
p1262
I1
sVdinrrqq
p1263
I2
sVd911gxj
p1264
I1
sVdeum7mb
p1265
I1
sVd50ahz9
p1266
I1
sVdrenj3s
p1267
I1
sVczip80d
p1268
I1
sVd0xz2hg
p1269
I1
sVd7n1r6n
p1270
I1
sVdf8pfc6
p1271
I1
sVdewdyzj
p1272
I1
sVdic7u2l
p1273
I1
sVczuk325
p1274
I1
sVd6ds15n
p1275
I1
sVdgn13xn
p1276
I1
sVdehb0ed
p1277
I1
sVdopmenu
p1278
I1
sVd2a249v
p1279
I1
sVd0mx4se
p1280
I1
sVdg8wlib
p1281
I1
sVdn82osb
p1282
I1
sVdkeb1w7
p1283
I1
sVd1gw0dk
p1284
I1
sVdgk1w1u
p1285
I1
sVdo1akei
p1286
I1
sVdh6ucfd
p1287
I1
sVd3l78e8
p1288
I1
sVd95scmr
p1289
I1
sVd4g797m
p1290
I1
sVd6dtipr
p1291
I1
sVda2sioa
p1292
I1
sVd6hzq4j
p1293
I1
sVd2rseun
p1294
I1
sVdayaz3u
p1295
I1
sVdkwu612
p1296
I1
sVd8ruk7j
p1297
I1
sVdjrbsi3
p1298
I1
sVd6zy6bk
p1299
I1
sVdi7g932
p1300
I1
sVd0in7aa
p1301
I1
sVdbwhb7b
p1302
I1
sVda6o1h1
p1303
I1
sVdhlf4n7
p1304
I1
sVdsvueja
p1305
I1
sVdokzmv8
p1306
I1
sVdefswwx
p1307
I1
sVdc60n57
p1308
I1
sVdjmd1gh
p1309
I1
sVde9xiuz
p1310
I1
sVdh4jasj
p1311
I1
sVdo4my9n
p1312
I1
sVcyklo9j
p1313
I1
sVdd5jiqv
p1314
I1
sVd78kvhm
p1315
I1
sVd4wssb9
p1316
I1
sVdh0jvgh
p1317
I1
sVcyn1t78
p1318
I1
sVdi1824w
p1319
I1
sVdhtrolc
p1320
I1
sVd97qdt6
p1321
I1
sVdend508
p1322
I1
sVd19n87k
p1323
I1
sVdg9liiz
p1324
I2
sVdkfz07b
p1325
I1
sVcyzxvzv
p1326
I1
sVdibjq6m
p1327
I3
sVd9x9puk
p1328
I1
sVd2pcfvp
p1329
I1
sVcyupemq
p1330
I1
sVddgpzl3
p1331
I3
sVd4iliff
p1332
I2
sVdg6dwxz
p1333
I1
sVd5a0jsv
p1334
I1
sVdr2iwmc
p1335
I1
sVcyntjw0
p1336
I2
sVdal0pcq
p1337
I1
sVd0zk10g
p1338
I1
sVdd8l5ym
p1339
I1
sVdi6qu43
p1340
I1
sVdck7ao6
p1341
I1
sVd07806y
p1342
I1
sVdg3e2me
p1343
I1
sVd1a2nvb
p1344
I1
sVdmv6b4p
p1345
I2
sVd31bzql
p1346
I1
sVd0pxqqf
p1347
I1
sVddcofgk
p1348
I1
sVd9zy4kk
p1349
I1
sVd5y0g1u
p1350
I1
sVdqu0n3x
p1351
I1
sVdo4j8qo
p1352
I1
sVcyr2ns5
p1353
I1
sVdfe51y3
p1354
I1
sVdqclyf0
p1355
I1
sVdgcsyxx
p1356
I1
sVdo1zvom
p1357
I1
sVd2hbg2e
p1358
I1
sVd4m9qwa
p1359
I1
sVczfq9kg
p1360
I1
sVdbsr5nb
p1361
I1
sVd0nu2l4
p1362
I1
sVdgt3pd2
p1363
I1
sVdfs7lqv
p1364
I1
sVd71ccl3
p1365
I1
sVdarwjeu
p1366
I1
sVdbzcz4t
p1367
I1
sVcykqzwk
p1368
I2
sVd9eg77i
p1369
I1
sVdjq7q1f
p1370
I1
sVdshkvhh
p1371
I1
sVdfsstm1
p1372
I1
sVditkreb
p1373
I1
sVdni71wp
p1374
I1
sVd1relu7
p1375
I1
sVd0yjnin
p1376
I1
sVdcmhh6e
p1377
I1
sVde326xm
p1378
I1
sVdnkxwk3
p1379
I1
sVdo8tzdn
p1380
I1
sVdcxwy2i
p1381
I1
sVdbayv3d
p1382
I1
sVdh7jgb3
p1383
I1
sVdjlxej4
p1384
I1
sVdfe4nz3
p1385
I1
sVdi1yxjn
p1386
I1
sVdkmiki0
p1387
I1
sVd1f0674
p1388
I1
sVd0del8v
p1389
I2
sVdntve7t
p1390
I1
sVczgeweh
p1391
I1
sVd0w1ulw
p1392
I1
sVd12wpo7
p1393
I1
sVd1h1hc5
p1394
I1
sVdiwej87
p1395
I1
sVczyc9ky
p1396
I1
sVd1taspd
p1397
I1
sVdccgcjf
p1398
I1
sVddbfu47
p1399
I1
sVdfldmji
p1400
I5
sVcyputej
p1401
I1
sVdawv18w
p1402
I1
sVd62noof
p1403
I1
sVdpp5e6u
p1404
I1
sVd9meict
p1405
I1
sVd4eqq4n
p1406
I1
sVdet7px0
p1407
I1
sVd6a6qwp
p1408
I1
sVd4lltoq
p1409
I1
sVd4vz2rw
p1410
I1
sVd5cy1hc
p1411
I1
sVd8dbyeu
p1412
I1
sVd6dwf3l
p1413
I1
sVcykswkd
p1414
I1
sVcyufd2e
p1415
I1
sVda6gww5
p1416
I1
sVcz0iwkn
p1417
I1
sVdd2ylma
p1418
I1
sVdeetfcg
p1419
I1
sVd7elkg2
p1420
I1
sVcyoczn5
p1421
I1
sVd8ut1mx
p1422
I1
sVd37hftt
p1423
I1
sVd26v038
p1424
I1
sVczbpqmc
p1425
I1
sVdblsocr
p1426
I1
sVdhmd1be
p1427
I1
sVcz7gjt5
p1428
I1
sVddd8uws
p1429
I1
sVdgwpc7j
p1430
I3
sVde5ql63
p1431
I1
sVdq3y4f6
p1432
I1
sVd3lkthi
p1433
I1
sVdqtutwx
p1434
I1
sVdslsgim
p1435
I3
sVczs3gft
p1436
I1
sVdfsyhkr
p1437
I1
sVd5eivqg
p1438
I1
sVd6ou1ud
p1439
I1
sVdcnbetc
p1440
I1
sVdiqgz3k
p1441
I1
sVdcld3zl
p1442
I1
sVdo9b032
p1443
I1
sVd9ftvdq
p1444
I1
sVd35rldk
p1445
I1
sVd1orhq5
p1446
I1
sVdshayng
p1447
I1
sVdglhixe
p1448
I1
sVd9jw96y
p1449
I1
sVczpt36d
p1450
I1
sVdc2yzmf
p1451
I2
sVczvx2sq
p1452
I1
sVczs7v30
p1453
I1
sVdmn3nao
p1454
I1
sVdobqqi4
p1455
I1
sVdfk700k
p1456
I1
sVd88jo2p
p1457
I1
sVd1u66v1
p1458
I1
sVdc1mqjw
p1459
I1
sVdgt7rq4
p1460
I1
sVdo7wsfo
p1461
I1
sVdd7f41g
p1462
I1
sVcyr9b1n
p1463
I1
sVd3tdrcc
p1464
I1
sVdi9vb71
p1465
I2
sVd0lumo1
p1466
I1
sVd79u64e
p1467
I1
sVdila3c9
p1468
I1
sVd81c7h6
p1469
I1
sVdk0vz4m
p1470
I1
sVd2o3sfr
p1471
I1
sVd0ti4cp
p1472
I1
sVde78ezi
p1473
I1
sVd0689ea
p1474
I1
sVdeviek0
p1475
I1
sVd3b4jec
p1476
I1
sVdbcwdmk
p1477
I1
sVd0laz6t
p1478
I2
sVd30p0rp
p1479
I1
sVcywhjry
p1480
I1
sVdmh3uyc
p1481
I1
sVd37evgd
p1482
I1
sVd6pgdcq
p1483
I1
sVczjzw79
p1484
I1
sVd88ih1v
p1485
I1
sVdfwthvr
p1486
I2
sVdjq0kdy
p1487
I1
sVd3bxlu7
p1488
I1
sVd2qzdhd
p1489
I1
sVdpyhy8z
p1490
I1
sVdj1zksd
p1491
I1
sVdsist0y
p1492
I1
sVd6az4rv
p1493
I1
sVdh36eas
p1494
I1
sVdtax29h
p1495
I1
sVdgh89i0
p1496
I2
sVd9c0eji
p1497
I1
sVd0c4j7s
p1498
I1
sVdn764ki
p1499
I1
sVd9dmij2
p1500
I1
sVdb3qxaf
p1501
I1
sVdntqlt0
p1502
I1
sVd2i0p2i
p1503
I1
sVdcwk2a1
p1504
I1
sVd5p37yn
p1505
I1
sVdks30aw
p1506
I1
sVdgb2djc
p1507
I1
sVdbata94
p1508
I1
sVdelzolv
p1509
I1
sVd55952q
p1510
I1
sVdn63g8m
p1511
I1
sVd8zg1ah
p1512
I1
sVd3bwdsb
p1513
I1
sVdiulsqx
p1514
I1
sVdmodsjb
p1515
I1
sVd8x4rex
p1516
I1
sVdbiwia0
p1517
I1
sVd4le4ry
p1518
I1
sVdifkqj9
p1519
I1
sVdaw937b
p1520
I1
sVd17zvco
p1521
I1
sVdn3s1ho
p1522
I1
sVd9hgm1y
p1523
I1
sVd7ubiqr
p1524
I1
sVd9ig8at
p1525
I1
sVdbvtowr
p1526
I2
sVd095roh
p1527
I2
sVdnj2qpt
p1528
I1
sVdfop2dq
p1529
I1
sVdaaj19z
p1530
I1
sVd3b1n5i
p1531
I1
sVd2quqhb
p1532
I1
sVd64d8vy
p1533
I1
sVdqhp4t3
p1534
I1
sVd0rmcen
p1535
I1
sVd0nivh1
p1536
I1
sVdhmry24
p1537
I1
sVdf3esz7
p1538
I1
sVcykautj
p1539
I1
sVdklphou
p1540
I1
sVdf55s9d
p1541
I1
sVdstcuf4
p1542
I1
sVdbbekc4
p1543
I1
sVddy6j3e
p1544
I2
sVdj1gl1i
p1545
I1
sVdfzsgyn
p1546
I1
sVdsqngx3
p1547
I1
sVd8xsz1h
p1548
I1
sVdawgmje
p1549
I1
sVdrkkbn9
p1550
I2
sVdfqkmtj
p1551
I1
sVdbesjuq
p1552
I1
sVdbu1p86
p1553
I2
sVdjdhj3j
p1554
I1
sVd3l5fkf
p1555
I2
sVdsoggmq
p1556
I1
sVdotkzx7
p1557
I2
sVd8gmb06
p1558
I1
sVdsf9w1d
p1559
I1
sVdjfqzna
p1560
I1
sVd907vqb
p1561
I1
sVdnkrxuv
p1562
I3
sVdgs27uy
p1563
I1
sVd9n0v4a
p1564
I1
sVd55aw8g
p1565
I1
sVdggqnlm
p1566
I1
sVdboy4mk
p1567
I1
sVdbcflfj
p1568
I1
sVczwy46x
p1569
I1
sVczoe70h
p1570
I1
sVd3mj75s
p1571
I1
sVd5kguox
p1572
I1
sVdgyjpym
p1573
I1
sVczjxnqy
p1574
I1
sVdfz2xiw
p1575
I1
sVdbh16b7
p1576
I1
sVd3lkht9
p1577
I1
sVd3l4ulj
p1578
I1
sVd3uko75
p1579
I1
sVd0wn0yj
p1580
I1
sVd3mol4c
p1581
I1
sVdfs7j5h
p1582
I1
sVcys3yit
p1583
I1
sVdho4svq
p1584
I2
sVd1jp7lc
p1585
I1
sVdqb5mj9
p1586
I1
sVd1tdue4
p1587
I1
sVdnxutic
p1588
I1
sVdntaqqs
p1589
I1
sVdcgb6d0
p1590
I2
sVdefwwhx
p1591
I1
sVdo25ekl
p1592
I1
sVd3de1r3
p1593
I1
sVdk9os8l
p1594
I1
sVd3naub0
p1595
I1
sVdd6u2mj
p1596
I1
sVd1m7wku
p1597
I1
sVdotrv1y
p1598
I1
sVd6uhxuq
p1599
I1
sVdgcubmf
p1600
I1
sVdf9fd03
p1601
I1
sVd4v30em
p1602
I1
sVd0ul1sx
p1603
I1
sVd91jsqs
p1604
I1
sVdrpyk24
p1605
I1
sVdj2xkbk
p1606
I1
sVdbvydfx
p1607
I2
sVddxde70
p1608
I2
sVd00vmet
p1609
I1
sVcymxoi2
p1610
I1
sVdoge4ds
p1611
I1
sVddof6s7
p1612
I1
sVdfm34af
p1613
I2
sVdasfcna
p1614
I1
sVdkm8b8e
p1615
I1
sVd0slmv7
p1616
I1
sVd5o4bie
p1617
I1
sVddemohb
p1618
I1
sVd1ubzvo
p1619
I1
sVd4xr64q
p1620
I1
sVdabe9z1
p1621
I1
sVdao6qm9
p1622
I1
sVdk2x02c
p1623
I1
sVdq966fd
p1624
I1
sVdeq68wu
p1625
I2
sVddsb38i
p1626
I1
sVd62h39n
p1627
I2
sVdr3b18h
p1628
I1
sVd0wo5y2
p1629
I1
sVdh6u2ye
p1630
I1
sVd2dk4hg
p1631
I1
sVdea6z5t
p1632
I1
sVdtcmsjw
p1633
I1
sVczehoqx
p1634
I1
sVdemnwyb
p1635
I1
sVd3ed5ph
p1636
I1
sVd7stiky
p1637
I1
sVd84x2of
p1638
I1
sVdb0p4y6
p1639
I1
sVd1ii9k5
p1640
I1
sVd0ww81w
p1641
I1
sVdc8xox3
p1642
I2
sVdh3ubnp
p1643
I1
sVcyjlx5r
p1644
I1
sVdrd4mzs
p1645
I1
sVdjnn4ul
p1646
I1
sVd16q76c
p1647
I1
sVdg99osn
p1648
I1
sVd9zblnt
p1649
I1
sVd8mdr0x
p1650
I3
sVdgajr4u
p1651
I1
sVdgvhinh
p1652
I1
sVd2m8ero
p1653
I1
sVd3srruq
p1654
I1
sVd5ov959
p1655
I1
sVd1n5s5b
p1656
I1
sVdakpyor
p1657
I1
sVd9ed950
p1658
I1
sVdiz6cbg
p1659
I1
sVdr96e51
p1660
I1
sVd5jbq8o
p1661
I1
sVd31mywx
p1662
I1
sVdj626qp
p1663
I3
sVdspjdk7
p1664
I1
sVdkkqvvi
p1665
I1
sVd9ggsyw
p1666
I1
sVd6h7z06
p1667
I1
sVdahiifc
p1668
I1
sVdconbya
p1669
I1
sVd27t2zp
p1670
I1
sVdrl6nev
p1671
I1
sVdel4ql6
p1672
I1
sVdq1b5u1
p1673
I1
sVda7wfgi
p1674
I1
sVdg8t78b
p1675
I1
sVd6kzzk3
p1676
I1
sVddrkha2
p1677
I1
sVd5zwswe
p1678
I1
sVd7o9yod
p1679
I1
sVd6i703k
p1680
I2
sVdn3f38w
p1681
I1
sVdohgnde
p1682
I1
sVd1sc6rh
p1683
I1
sVd55rzeh
p1684
I1
sVdnkqltl
p1685
I1
sVd2c7moc
p1686
I4
sVd7efx66
p1687
I1
sVd8aks78
p1688
I1
sVddnjolm
p1689
I1
sVdj29fsi
p1690
I1
sVdbs46km
p1691
I1
sVdedyngr
p1692
I2
sVdosvyfo
p1693
I1
sVdalt0dd
p1694
I1
sVd6w72qw
p1695
I1
sVdez2xzl
p1696
I1
sVdezwrcc
p1697
I1
sVd9e9qi9
p1698
I1
sVd1p6gsg
p1699
I1
sVd01vf9y
p1700
I1
sVdkyg5li
p1701
I1
sVd1k75gw
p1702
I1
sVcz3z01b
p1703
I1
sVdmpvn6m
p1704
I1
sVdirco70
p1705
I1
sVddkch4f
p1706
I1
sVdc1n8eg
p1707
I1
sVd5u885r
p1708
I1
sVcym0h37
p1709
I1
sVd896yoi
p1710
I1
sVd07hxsj
p1711
I1
sVcyo6n9w
p1712
I1
sVd3o8sq8
p1713
I1
sVd5bcp7m
p1714
I1
sVd77b2uf
p1715
I1
sVdckw7zh
p1716
I1
sVczlsvu3
p1717
I1
sVdbxkl6l
p1718
I1
sVd29yaol
p1719
I2
sVd9gqnkh
p1720
I2
sVcyng12c
p1721
I1
sVdn10tca
p1722
I2
sVd05vvr7
p1723
I1
sVdooy8ke
p1724
I2
sVdd6qsq3
p1725
I1
sVd1ojkno
p1726
I1
sVdo167e9
p1727
I1
sVd2h3aep
p1728
I1
sVd5ehuvq
p1729
I1
sVdopn2be
p1730
I2
sVd8t15kd
p1731
I3
sVd7vvs8g
p1732
I1
sVda6tfjx
p1733
I1
sVd0kw6g2
p1734
I1
sVd47gaao
p1735
I1
sVd46t6aw
p1736
I1
sVdadqwij
p1737
I1
sVd6f5u0g
p1738
I1
sVdsw3itg
p1739
I1
sVdbfaoc3
p1740
I1
sVds4up0x
p1741
I1
sVczdesdn
p1742
I1
sVd2u1yr1
p1743
I1
sVdqfk98l
p1744
I1
sVd9fe98o
p1745
I5
sVd0zbnyx
p1746
I1
sVd7rilzo
p1747
I2
sVd8zxs6a
p1748
I4
sVd3aybjq
p1749
I2
sVcz5j9ko
p1750
I1
sVdopq038
p1751
I1
sVdsuzaqm
p1752
I1
sVd4o8bcd
p1753
I1
sVd6x45m7
p1754
I1
sVdc6mez0
p1755
I1
sVd3qans9
p1756
I1
sVcyme235
p1757
I1
sVd0vjzwp
p1758
I1
sVdefkjyf
p1759
I1
sVd8ocxyd
p1760
I1
sVdg7qex0
p1761
I3
sVd49o4tb
p1762
I1
sVd1gx8y5
p1763
I1
sVd0unwml
p1764
I1
sVdevpqms
p1765
I1
sVdbw8zjc
p1766
I1
sVdcydnak
p1767
I1
sVdqg8qc8
p1768
I1
sVd2rn0tz
p1769
I2
sVd293rgb
p1770
I1
sVdr20eml
p1771
I1
sVdcrlifu
p1772
I1
sVdkaqndt
p1773
I1
sVdogkqdl
p1774
I1
sVdawqptp
p1775
I2
sVd9zuavd
p1776
I1
sVd0ch54u
p1777
I1
sVdsn64bj
p1778
I1
sVddy8squ
p1779
I1
sVdidlvae
p1780
I2
sVdggr38x
p1781
I1
sVdh1d0ng
p1782
I1
sVd2y93at
p1783
I1
sVd1ox6eg
p1784
I1
sVdcl5yy6
p1785
I1
sVd754xfo
p1786
I1
sVczaubn9
p1787
I2
sVdkor8di
p1788
I1
sVd4nywkd
p1789
I1
sVd07ue64
p1790
I1
sVdms97bp
p1791
I1
sVdqjhbkf
p1792
I2
sVd2clnsd
p1793
I1
sVdi723h0
p1794
I1
sVd65p72a
p1795
I1
sVdenqxja
p1796
I1
sVdsqjyvw
p1797
I1
sVd1lg7ec
p1798
I1
sVdnil2qr
p1799
I1
sVdduwmn9
p1800
I1
sVdflfcwv
p1801
I1
sVd3hhcmx
p1802
I1
sVd51egn7
p1803
I1
sVd6qr9mr
p1804
I1
sVd8vf2li
p1805
I1
sVddgk6o2
p1806
I1
sVdog9ppm
p1807
I1
sVdi942xr
p1808
I1
sVdjsm6la
p1809
I1
sVd37vt33
p1810
I2
sVd64vg7q
p1811
I1
sVd99yppj
p1812
I1
sVdaztz58
p1813
I1
sVdil77cw
p1814
I2
sVdhm9iwv
p1815
I1
sVd99vpin
p1816
I1
sVdb00ssz
p1817
I1
sVdim0pg2
p1818
I1
sVddjxlpp
p1819
I1
sVd0tyhje
p1820
I2
sVdk3i0dg
p1821
I1
sVcypsq94
p1822
I1
sVdet7iqc
p1823
I1
sVdgzt6yb
p1824
I1
sVday8rxv
p1825
I1
sVdnkcwnz
p1826
I1
sVd89fwjl
p1827
I1
sVd9d5ov9
p1828
I1
sVdckh2jy
p1829
I1
sVd6oxq27
p1830
I1
sVd0h6sv4
p1831
I1
sVdnruwgy
p1832
I1
sVd3wiiso
p1833
I1
sVd9pxa0i
p1834
I1
sVdgotliw
p1835
I1
sVd4yvunu
p1836
I1
sVd6oj60w
p1837
I1
sVd6zddop
p1838
I1
sVd7mvt0b
p1839
I4
sVddm0l7l
p1840
I1
sVdeaocly
p1841
I2
sVd5docvw
p1842
I2
sVdifia5r
p1843
I1
sVdhpgz84
p1844
I1
sVdhslbby
p1845
I1
sVd5rt0u6
p1846
I1
sVddoyw6q
p1847
I1
sVd3b2ev0
p1848
I1
sVdolcc75
p1849
I1
sVdflju6d
p1850
I1
sVd5m7xxo
p1851
I1
sVdkpt9wk
p1852
I1
sVdmt6udl
p1853
I1
sVcywrowi
p1854
I1
sVdec8w34
p1855
I1
sVdj44p2l
p1856
I1
sVdh8v4ak
p1857
I1
sVd9l33d7
p1858
I1
sVd3vjzci
p1859
I2
sVd6p4a2g
p1860
I1
sVdsyv2w2
p1861
I2
sVdhm0w6x
p1862
I1
sVd718gao
p1863
I1
sVdgcql5u
p1864
I1
sVdp9tfzn
p1865
I1
sVd9lrbqj
p1866
I1
sVdagrcwo
p1867
I1
sVd2ew6tq
p1868
I2
sVdgs2r6y
p1869
I1
sVd9cbcgp
p1870
I1
sVdbqkjo3
p1871
I1
sVd1zl7wf
p1872
I1
sVdtbeog2
p1873
I1
sVdsbg84f
p1874
I1
sVd37dmuu
p1875
I1
sVd0zjipa
p1876
I1
sVd3mm57g
p1877
I1
sVdf1jgwq
p1878
I1
sVde46c49
p1879
I1
sVdc2a0bv
p1880
I1
sVdg2571c
p1881
I1
sVdfnay4f
p1882
I1
sVdg67nyv
p1883
I1
sVdelcize
p1884
I1
sVd3opxe1
p1885
I1
sVdj3wy2y
p1886
I1
sVd7lvgy3
p1887
I1
sVdgcfwlp
p1888
I1
sVd9ccmbd
p1889
I1
sVdflun74
p1890
I1
sVd61okik
p1891
I1
sVd4brbq2
p1892
I1
sVd2jk6ux
p1893
I1
sVd1bymm5
p1894
I2
sVd4tc1mw
p1895
I1
sVdnfp9k2
p1896
I1
sVdrkmhq4
p1897
I2
sVdbl31ti
p1898
I1
sVd92mm7g
p1899
I1
sVd59zf1o
p1900
I1
sVd1mr8uz
p1901
I1
sVdrt6ix8
p1902
I1
sVd8kjqb1
p1903
I1
sVdckeo3w
p1904
I1
sVcz9vwo7
p1905
I1
sVdew3y1k
p1906
I1
sVdb207a7
p1907
I1
sVd4ztawd
p1908
I1
sVd51fro2
p1909
I1
sVdil0j09
p1910
I1
sVdio6mng
p1911
I1
sVd85vy6i
p1912
I1
sVdtfjqk8
p1913
I1
sVdnw694h
p1914
I1
sVd46vago
p1915
I1
sVdkm3srh
p1916
I1
sVd8cuhaa
p1917
I1
sVdk4bunu
p1918
I2
sVd60bivo
p1919
I1
sVcz2q5w6
p1920
I1
sVd3kk7co
p1921
I1
sVd2b46l9
p1922
I1
sVdrgdu1h
p1923
I1
sVd4gey6c
p1924
I1
sVd4daigr
p1925
I1
sVd7t2bqf
p1926
I1
sVdfrk0ci
p1927
I1
sVdax3ofn
p1928
I1
sVdi0ozfr
p1929
I1
sVd0e2k73
p1930
I1
sVdpkqs7m
p1931
I1
sVdg0ct76
p1932
I1
sVd0bqn9r
p1933
I1
sVdcurho3
p1934
I1
sVd8dz5y3
p1935
I1
sVd2p3r55
p1936
I1
sVdagfkqg
p1937
I1
sVdjxgau4
p1938
I1
sVd42b1m2
p1939
I1
sVczkefjw
p1940
I1
sVdn766pv
p1941
I1
sVcz0jt22
p1942
I1
sVd0t84oq
p1943
I1
sVdfvfuxp
p1944
I1
sVd53dkr3
p1945
I1
sVdnajfow
p1946
I1
sVczdshx0
p1947
I2
sVd3p75kg
p1948
I1
sVd9rgi9u
p1949
I1
sVd54bgrd
p1950
I1
sVd4ffirb
p1951
I1
sVdj2dv4r
p1952
I1
sVdav9mwq
p1953
I1
sVdq04ons
p1954
I1
sVd6r21vd
p1955
I1
sVcz2oxyj
p1956
I1
sVd1isvfg
p1957
I1
sVdizewaq
p1958
I1
sVd918rsq
p1959
I1
sVdf7pf88
p1960
I1
sVd7svesp
p1961
I1
sVd89e2pq
p1962
I1
sVdgdyeie
p1963
I1
sVdnvj8h6
p1964
I1
sVcyrg6mm
p1965
I2
sVdb4bzjr
p1966
I1
sVd3exbvc
p1967
I1
sVd9j9u5b
p1968
I1
sVd20cbsm
p1969
I1
sVd4rly8g
p1970
I1
sVdj6ingz
p1971
I1
sVd5jd4tv
p1972
I1
sVdfc66t1
p1973
I1
sVdg4vg0s
p1974
I1
sVd8bxwq8
p1975
I2
sVddokrgp
p1976
I1
sVd4970z6
p1977
I1
sVdmwwigq
p1978
I2
sVd7a1j8j
p1979
I1
sVd7felgg
p1980
I1
sVd0wgsbw
p1981
I1
sVdgaz8un
p1982
I1
sVd0qhjql
p1983
I1
sVd3jil8v
p1984
I2
sVdgm3igv
p1985
I1
sVd66tayn
p1986
I2
sVda32ue2
p1987
I1
sVdgi2jst
p1988
I2
sVd51n7qd
p1989
I1
sVczp8yto
p1990
I1
sVd0r4xx3
p1991
I2
sVdkllxuv
p1992
I1
sVdb6ebqf
p1993
I1
sVd83vjwy
p1994
I1
sVd2ai7t1
p1995
I1
sVdhol8r0
p1996
I2
sVdgzckxt
p1997
I1
sVdd539xu
p1998
I1
sVczv1qv5
p1999
I1
sVdb55ura
p2000
I1
sVdchq8k5
p2001
I1
sVdbfziii
p2002
I2
sVdgq450c
p2003
I1
sVd35rnk6
p2004
I1
sVd242rtj
p2005
I1
sVdb29ypk
p2006
I1
sVdar3why
p2007
I1
sVd5rms3y
p2008
I1
sVdg0hbwn
p2009
I1
sVd2nwr0h
p2010
I2
sVdnw664m
p2011
I1
sVd2u0z5h
p2012
I1
sVd413yrx
p2013
I1
sVd3bzfa2
p2014
I1
sVdr7e20d
p2015
I1
sVdk6kybx
p2016
I1
sVdccieko
p2017
I2
sVdc442dv
p2018
I1
sVd04fkoe
p2019
I1
sVdic89g2
p2020
I1
sVd4z5tgm
p2021
I1
sVd9o5o79
p2022
I1
sVd67ejqi
p2023
I1
sVd50b74c
p2024
I1
sVdais4be
p2025
I1
sVd1th44t
p2026
I2
sVd4v8x37
p2027
I2
sVdi4g13r
p2028
I1
sVd2g8li4
p2029
I1
sVdcwf2dy
p2030
I1
sVd1rrb5h
p2031
I1
sVczazjgi
p2032
I3
sVdk9pv13
p2033
I1
sVd8dfz34
p2034
I1
sVdczjfid
p2035
I1
sVcynqjwy
p2036
I1
sVdgar58i
p2037
I1
sVd345q2q
p2038
I1
sVdcff3wh
p2039
I1
sVd6f1yo9
p2040
I1
sVd93xtci
p2041
I1
sVd3dlj8a
p2042
I1
sVd9i5twa
p2043
I1
sVdatulw8
p2044
I1
sVd9e754x
p2045
I1
sVdf3t9b5
p2046
I1
sVdnl8kwo
p2047
I1
sVd2xhb77
p2048
I1
sVd414o2h
p2049
I1
sVdrva5kl
p2050
I1
sVd9rv828
p2051
I2
sVd4lqu6p
p2052
I1
sVdkx8qho
p2053
I1
sVdgrw3ly
p2054
I1
sVdbbimjy
p2055
I1
sVd4zb37f
p2056
I1
sVd06pse6
p2057
I1
sVd4uk39m
p2058
I1
sVd84t31m
p2059
I1
sVd1277ho
p2060
I1
sVdev9dmx
p2061
I1
sVd2ac679
p2062
I1
sVdiurbqb
p2063
I1
sVcyxa3p0
p2064
I1
sVdqy8l54
p2065
I1
sVd3x6q27
p2066
I3
sVdfx1yck
p2067
I1
sVdft1tv6
p2068
I3
sVdjfqmz9
p2069
I1
sVdhfadhc
p2070
I1
sVdrkf4qf
p2071
I2
sVcz1gf3r
p2072
I1
sVd2vu507
p2073
I1
sVdp85jrp
p2074
I1
sVdi6tzew
p2075
I1
sVdcpkk8j
p2076
I1
sVdb28nqe
p2077
I1
sVddo1go2
p2078
I1
sVdnvnw3t
p2079
I1
sVd6hb6na
p2080
I2
sVdbevisx
p2081
I2
sVd8wn72d
p2082
I1
sVd380wq1
p2083
I1
sVdg52x5n
p2084
I1
sVdjxe6w1
p2085
I2
sVdd3ob8e
p2086
I1
sVd1hv3ps
p2087
I1
sVdia5twd
p2088
I1
sVd0g770z
p2089
I1
sVd4ftl72
p2090
I1
sVdesx7xc
p2091
I1
sVddo6nk8
p2092
I1
sVdqdafry
p2093
I1
sVd2q1vue
p2094
I1
sVde7wyyw
p2095
I2
sVdgt848k
p2096
I1
sVdn88qkl
p2097
I1
sVdgw27xf
p2098
I2
sVd0bwelm
p2099
I1
sVda18p2u
p2100
I1
sVd1183op
p2101
I1
sVczu5nzy
p2102
I1
sVd55zbrg
p2103
I1
sVdqwx1so
p2104
I1
sVd302t00
p2105
I1
sVd9pd5j6
p2106
I1
sVdn3cozn
p2107
I1
sVdh5viyr
p2108
I1
sVdot1sx1
p2109
I1
sVdfq3kdn
p2110
I2
sVdeh9t12
p2111
I1
sVd2p5xec
p2112
I1
sVdgbg2wj
p2113
I1
sVdggc6y7
p2114
I1
sVdrjfhu5
p2115
I1
sVdpprd9z
p2116
I1
sVdervw38
p2117
I1
sVdid1rae
p2118
I1
sVdc45rvt
p2119
I1
sVdh0ro3u
p2120
I1
sVczf1j0i
p2121
I1
sVd8hm6hu
p2122
I1
sVddhveeo
p2123
I1
sVd7we6xh
p2124
I1
sVdo8hj5z
p2125
I3
sVd8vzwu3
p2126
I1
sVd3r5fyb
p2127
I1
sVdkmznac
p2128
I1
sVd2g68in
p2129
I1
sVddcpkbj
p2130
I1
sVd5ec3i3
p2131
I1
sVdakawqg
p2132
I1
sVdgrknch
p2133
I1
sVdcc1hha
p2134
I1
sVdg7ovwb
p2135
I1
sVdjrs94b
p2136
I1
sVdalsxlo
p2137
I1
sVd4kki9f
p2138
I1
sVd9daqgu
p2139
I1
sVdax7glr
p2140
I1
sVd83xzwn
p2141
I1
sVdasdzq4
p2142
I1
sVd3n21fn
p2143
I1
sVdgkbqtg
p2144
I1
sVdnrywak
p2145
I1
sVdap1pa0
p2146
I1
sVd23s58f
p2147
I1
sVd4kymr6
p2148
I1
sVd0dlenw
p2149
I1
sVdg71eks
p2150
I3
sVdd58bvl
p2151
I1
sVdqgaj2a
p2152
I1
sVdjkv33g
p2153
I1
sVd8bttsm
p2154
I1
sVd1e6xd0
p2155
I1
sVdn9n6ro
p2156
I1
sVddtjq2x
p2157
I2
sVdfoyczy
p2158
I1
sVdemfqmp
p2159
I1
sVdcibnmz
p2160
I2
sVdayguz0
p2161
I1
sVcz9fqkg
p2162
I1
sVdaqk8ji
p2163
I1
sVd3vc4bs
p2164
I1
sVdg4ovm8
p2165
I1
sVdmw2vdy
p2166
I1
sVd67u3pb
p2167
I1
sVd7934cp
p2168
I1
sVdk89kh3
p2169
I1
sVdi8rfs8
p2170
I1
sVd7mktaa
p2171
I1
sVdaawvdc
p2172
I1
sVdcntapz
p2173
I1
sVd9s7um0
p2174
I1
sVdeois1i
p2175
I1
sVd37k2aa
p2176
I1
sVdi64pi5
p2177
I1
sVdb2xgft
p2178
I1
sVcz4glpe
p2179
I1
sVd2syyou
p2180
I1
sVd1a6y8g
p2181
I1
sVdcvj7x1
p2182
I1
sVdazrstn
p2183
I1
sVdermr68
p2184
I1
sVdsza1hz
p2185
I1
sVd26gtpa
p2186
I1
sVdrp01p1
p2187
I1
sVd3kji2s
p2188
I1
sVdir8l3s
p2189
I1
sVdcvadfr
p2190
I1
sVcyhz27v
p2191
I1
sVdn0272b
p2192
I1
sVdk45cyg
p2193
I1
sVdetvcpz
p2194
I1
sVd3gcitl
p2195
I1
sVdd6me3p
p2196
I1
sVdoodapt
p2197
I2
sVdbegbin
p2198
I1
sVczfocbs
p2199
I1
sVd3fwmpe
p2200
I1
sVdmhfqrv
p2201
I4
sVdqlba2d
p2202
I1
sVd1xuhzx
p2203
I1
sVd4xmzsx
p2204
I1
sVdo42f22
p2205
I1
sVd3fdxoq
p2206
I1
sVdta5i3t
p2207
I1
sVds4px6n
p2208
I1
sVd944l3x
p2209
I1
sVd2kfyjl
p2210
I2
sVdb1tdkg
p2211
I1
sVczxdsgt
p2212
I1
sVcz88bq0
p2213
I2
sVd2hoy0d
p2214
I1
sVcz5bo75
p2215
I1
sVcykp0gk
p2216
I1
sVd43kmui
p2217
I2
sVd04b1ts
p2218
I1
sVd2dhems
p2219
I1
sVd7sxvge
p2220
I1
sVd0qrkex
p2221
I1
sVd2pvx4v
p2222
I1
sVdgpo566
p2223
I1
sVdp8gfxu
p2224
I1
sVd8no9tp
p2225
I1
sVd0ibj4t
p2226
I1
sVdmkc68t
p2227
I1
sVde62agq
p2228
I2
sVdp806cw
p2229
I2
sVde4o0rk
p2230
I1
sVdmuwiq2
p2231
I1
sVdqu1m9j
p2232
I1
sVd4sk8c0
p2233
I1
sVd01r6jj
p2234
I1
sVd3avana
p2235
I1
sVdh0a4ae
p2236
I1
sVdfwzvp5
p2237
I2
sVd7og0l2
p2238
I1
sVcz1stoh
p2239
I1
sVdn8nzu2
p2240
I1
sVdhly2zw
p2241
I1
sVd179yju
p2242
I2
sVdjmo9su
p2243
I1
sVde9hi2e
p2244
I2
sVdqibf2w
p2245
I1
sVdarn9i9
p2246
I1
sVdfxidet
p2247
I1
sVdc4c4o8
p2248
I2
sVd3xc355
p2249
I1
sVd2sg0j6
p2250
I1
sVdqhjxqr
p2251
I1
sVdg22795
p2252
I1
sVdjszbog
p2253
I1
sVd33sekj
p2254
I1
sVdh5vxh5
p2255
I1
sVd7klb2m
p2256
I1
sVdjbdyte
p2257
I1
sVdejasia
p2258
I1
sVcywkhn7
p2259
I1
sVcyu0d8c
p2260
I1
sVcyljyhe
p2261
I1
sVdk666z0
p2262
I3
sVd2f84ou
p2263
I1
sVde0n278
p2264
I1
sVd0fn12f
p2265
I1
sVdbvajgc
p2266
I1
sVcytwgkq
p2267
I2
sVczwrgoo
p2268
I1
sVd6h7gsi
p2269
I1
sVd8kv6l5
p2270
I1
sVd381hpf
p2271
I1
sVd1nvepb
p2272
I1
sVd1hfmfb
p2273
I1
sVd49jt85
p2274
I1
sVdcezwgd
p2275
I1
sVd2tqzbl
p2276
I1
sVdkkcxvo
p2277
I1
sVdskwkef
p2278
I1
sVcyzehda
p2279
I1
sVd1nawcb
p2280
I2
sVd7l9z5f
p2281
I1
sVd6pj9je
p2282
I1
sVdojb1f7
p2283
I1
sVd27ldmw
p2284
I2
sVczyugk6
p2285
I1
sVdcmaj5w
p2286
I1
sVdq8mtxu
p2287
I1
sVdcd0jxl
p2288
I1
sVd1uts42
p2289
I1
sVd1i2f1c
p2290
I1
sVd57kk1x
p2291
I1
sVds6xnst
p2292
I1
sVdb2o1yt
p2293
I2
sVdgw6k5r
p2294
I2
sVd40pkgc
p2295
I1
sVd7jc397
p2296
I1
sVddzf4e0
p2297
I1
sVdkie22u
p2298
I1
sVd7hi5h2
p2299
I1
sVd8rskdl
p2300
I2
sVddgr1oj
p2301
I2
sVdckn6hc
p2302
I1
sVd6ml21z
p2303
I1
sVdov57gq
p2304
I1
sVdnvkwgj
p2305
I2
sVdbq1j29
p2306
I1
sVdkmto5a
p2307
I1
sVdc5mg23
p2308
I1
sVdr4znzx
p2309
I1
sVcyxogbm
p2310
I1
sVdgzatgh
p2311
I1
sVd49g8gv
p2312
I1
sVd556ti4
p2313
I1
sVd1tir4u
p2314
I2
sVd5jq8ap
p2315
I1
sVdqfaud7
p2316
I1
sVcyt6nx7
p2317
I2
sVdkdub9x
p2318
I1
sVdb9iyas
p2319
I1
sVd79eh68
p2320
I2
sVdif6glb
p2321
I2
sVd67ub33
p2322
I1
sVd0l5ftx
p2323
I1
sVdf1xf0f
p2324
I1
sVd6nynj9
p2325
I1
sVddfgmpo
p2326
I1
sVd3tpqwf
p2327
I1
sVdb129iu
p2328
I1
sVdkzjkfe
p2329
I1
sVd7juwk7
p2330
I2
sVd84hvct
p2331
I3
sVdiu7gcs
p2332
I1
sVd5kkbqi
p2333
I1
sVd0ojq26
p2334
I1
sVczfztai
p2335
I1
sVd2571tu
p2336
I1
sVdjaz0t1
p2337
I1
sVd4fu644
p2338
I2
sVdn9rtq9
p2339
I1
sVd0clws1
p2340
I1
sVd2j09ao
p2341
I1
sVczwxuah
p2342
I1
sVds67f6q
p2343
I1
sVd9h69ta
p2344
I1
sVdbk4845
p2345
I1
sVdd5jupk
p2346
I1
sVdda0l00
p2347
I1
sVdsyx7bh
p2348
I1
sVd41c13v
p2349
I2
sVdcovlv0
p2350
I1
sVdjopqzv
p2351
I1
sVd0wdsk7
p2352
I1
sVd6wt6lx
p2353
I1
sVdbqrjri
p2354
I1
sVd0rpclp
p2355
I1
sVdjsluqb
p2356
I2
sVcziwtmh
p2357
I1
sVdokz1z9
p2358
I1
sVdo2pvgb
p2359
I1
sVdfu55uq
p2360
I2
sVd5p1je4
p2361
I1
sVdnkqts8
p2362
I1
sVdbh4sob
p2363
I1
sVdpqw2s7
p2364
I1
sVdn2u511
p2365
I1
sVd0o1t0m
p2366
I2
sVd1ccgc0
p2367
I1
sVd1cc2px
p2368
I3
sVd67t4z2
p2369
I1
sVd30o1ts
p2370
I1
sVdd5fzlw
p2371
I1
sVd2wr0p7
p2372
I1
sVdkz02jb
p2373
I1
sVdkpto99
p2374
I1
sVdsnrp2v
p2375
I1
sVd37f9zo
p2376
I2
sVdbhq1w2
p2377
I1
sVdmhjard
p2378
I1
sVd1i9ymf
p2379
I1
sVdobbn38
p2380
I1
sVdii6n4k
p2381
I1
sVd9563bk
p2382
I1
sVd2cxwsf
p2383
I1
sVd3dmoh1
p2384
I1
sVdgzoy8x
p2385
I1
sVczv3yhi
p2386
I1
sVd40t2ve
p2387
I1
sVdbb47qw
p2388
I1
sVd16ya6e
p2389
I1
sVd0cq239
p2390
I1
sVd4o0ras
p2391
I1
sVdn6dgr7
p2392
I2
sVd408leo
p2393
I1
sVddiubbz
p2394
I1
sVd4t5nyx
p2395
I1
sVd013ge4
p2396
I1
sVd0b8yke
p2397
I1
sVdnphqnd
p2398
I1
sVd9xpvqb
p2399
I1
sVd7m3eha
p2400
I1
sVdasbeql
p2401
I1
sVd9tkn0v
p2402
I1
sVds6mmyx
p2403
I1
sVd0b0k47
p2404
I1
sVdmrzxm5
p2405
I1
sVd1gnhq2
p2406
I1
sVd0m7ivg
p2407
I1
sVcyvnxdc
p2408
I1
sVd2qsck4
p2409
I1
sVd7ls6dh
p2410
I1
sVd1f6s8t
p2411
I1
sVd9qzbls
p2412
I1
sVd2ntiks
p2413
I1
sVd1c91qx
p2414
I1
sVdotmfbv
p2415
I1
sVdpvpjte
p2416
I1
sVdpcp9nt
p2417
I1
sVde3sm1q
p2418
I1
sVdh0ibgb
p2419
I2
sVd0a7rah
p2420
I2
sVd9aoptx
p2421
I1
sVcynuck3
p2422
I1
sVddg9kaf
p2423
I1
sVd68exak
p2424
I1
sVdpsa5rz
p2425
I7
sVd4njq0p
p2426
I1
sVdbqxv1t
p2427
I1
sVd1ee37q
p2428
I1
sVdnnbkj4
p2429
I1
sVdpvboiu
p2430
I1
sVd91ce0j
p2431
I1
sVd4xo1vo
p2432
I1
sVdgd8umf
p2433
I1
sVdf7txck
p2434
I1
sVdkjy4ok
p2435
I1
sVdgixrow
p2436
I1
sVd0afgdz
p2437
I1
sVczn1ows
p2438
I1
sVdb82cdw
p2439
I1
sVd2tbmm4
p2440
I1
sVd447fzh
p2441
I1
sVdfwl3w4
p2442
I1
sVdn1cnh1
p2443
I2
sVdmru1wl
p2444
I1
sVcyl1r66
p2445
I1
sVdke396f
p2446
I1
sVdoey0bt
p2447
I1
sVd7y10kd
p2448
I1
sVd5a4fc6
p2449
I1
sVdk4etit
p2450
I1
sVdf4x9jc
p2451
I1
sVdjasnm8
p2452
I1
sVdc4en0z
p2453
I1
sVd26xnev
p2454
I1
sVdan4uam
p2455
I1
sVcym6ir5
p2456
I1
sVdh8bu4t
p2457
I1
sVdh2n0tl
p2458
I1
sVd3y0xoy
p2459
I1
sVdkx7o6f
p2460
I1
sVd5zvuss
p2461
I1
sVdal7ax1
p2462
I1
sVd5n401w
p2463
I1
sVdk5b0py
p2464
I1
sVddrdlrl
p2465
I1
sVdcptwr3
p2466
I1
sVd0utdwv
p2467
I1
sVdagtvnd
p2468
I1
sVd3a8x65
p2469
I1
sVdeodnpw
p2470
I1
sVdatnkks
p2471
I1
sVd7ymtuc
p2472
I1
sVd31sszu
p2473
I1
sVd1wmoga
p2474
I2
sVdi95599
p2475
I2
sVdbmqrra
p2476
I1
sVde1ja9m
p2477
I1
sVczd6unb
p2478
I1
sVdowrelt
p2479
I1
sVd2yj1hd
p2480
I1
sVcykqppc
p2481
I1
sVdijlvcx
p2482
I1
sVdqa86k7
p2483
I1
sVczit34v
p2484
I1
sVd8sru2u
p2485
I1
sVd90c5rg
p2486
I1
sVdeigjv8
p2487
I1
sVd30ph10
p2488
I1
sVd5ckcs9
p2489
I1
sVdcj864s
p2490
I1
sVdf38joa
p2491
I1
sVd0pzcq4
p2492
I1
sVddtq0dw
p2493
I1
sVd4x1nrt
p2494
I1
sVd32qrx4
p2495
I1
sVdj13xi1
p2496
I1
sVcytuql8
p2497
I1
sVd3goi3z
p2498
I1
sVd0uq99f
p2499
I1
sVdhz8yfu
p2500
I1
sVdtggzbh
p2501
I1
sVcyo4nx5
p2502
I1
sVdjgdf48
p2503
I1
sVd1rqyo8
p2504
I1
sVd9ans2i
p2505
I1
sVd5clmv1
p2506
I1
sVd1xh4ck
p2507
I1
sVdnuw6nv
p2508
I1
sVdrqkz74
p2509
I1
sVdkz5ekd
p2510
I1
sVd0axpnc
p2511
I2
sVd776qzk
p2512
I1
sVdoskqvq
p2513
I1
sVda64dq2
p2514
I1
sVder0cfq
p2515
I1
sVdas7ruz
p2516
I1
sVddqtl8l
p2517
I4
sVdno70rs
p2518
I1
sVd9q3n0s
p2519
I1
sVdqlb04f
p2520
I1
sVd4zi8za
p2521
I1
sVczyr03y
p2522
I1
sVd0il39e
p2523
I1
sVdruefgr
p2524
I1
sVd8i5r3a
p2525
I1
sVd51s1yb
p2526
I1
sVd0d89j9
p2527
I1
sVdek3qkh
p2528
I1
sVd727g8a
p2529
I1
sVd4t4nrb
p2530
I1
sVd0rtbr4
p2531
I1
sVdkmahf5
p2532
I1
sVdfvq6b4
p2533
I1
sVdfh8xt7
p2534
I1
sVdauq0u5
p2535
I1
sVd52ow69
p2536
I1
sVdhf9zfk
p2537
I1
sVdt7p7ky
p2538
I1
sVd5avlo6
p2539
I1
sVdoezu0d
p2540
I1
sVdfxuiuq
p2541
I1
sVd39a7ko
p2542
I1
sVd234qen
p2543
I1
sVd7tblev
p2544
I2
sVdgybmox
p2545
I1
sVdcwcura
p2546
I2
sVdd3ikmy
p2547
I1
sVdr02c72
p2548
I1
sVczkhbcv
p2549
I1
sVdjygqs8
p2550
I1
sVd197brr
p2551
I1
sVddvu3xe
p2552
I1
sVdfljerj
p2553
I1
sVdax1lwv
p2554
I1
sVdfu0c52
p2555
I1
sVd7sc3va
p2556
I1
sVdhtixrt
p2557
I1
sVdo6ka24
p2558
I1
sVdd7yesi
p2559
I1
sVdblft8m
p2560
I1
sVdrnl3kj
p2561
I1
sVdb0qmhc
p2562
I1
sVd4l9n6y
p2563
I1
sVd79z2le
p2564
I1
sVd0t08wy
p2565
I1
sVd7mu9id
p2566
I1
sVdsqin3h
p2567
I1
sVde47303
p2568
I1
sVd8aqdet
p2569
I1
sVdjd7gvv
p2570
I2
sVdpd5arm
p2571
I1
sVdmhms0v
p2572
I1
sVdfimjlp
p2573
I2
sVd2doqe9
p2574
I1
sVdimieyr
p2575
I1
sVd8x3d2u
p2576
I3
sVdo1exd7
p2577
I1
sVd4iyeew
p2578
I2
sVdd4r84y
p2579
I1
sVdqst4ky
p2580
I1
sVdmvi2vo
p2581
I1
sVd1h6ecm
p2582
I1
sVdjbste8
p2583
I1
sVczgx9oz
p2584
I1
sVd53pejl
p2585
I1
sVd61yulo
p2586
I1
sVdrqwui2
p2587
I1
sVd0cpu2p
p2588
I1
sVd5zbx1a
p2589
I2
sVcyz6vk3
p2590
I1
sVdcjfrx8
p2591
I1
sVdcg8k8b
p2592
I1
sVd2mf2xb
p2593
I1
sVd25oxa6
p2594
I1
sVd3jrol7
p2595
I1
sVd9dfdgh
p2596
I1
sVdmstqs1
p2597
I1
sVdiorkdq
p2598
I2
sVd3uqmzk
p2599
I1
sVd8lo85l
p2600
I1
sVd5zgj8a
p2601
I1
sVdch8gn5
p2602
I1
sVdbc576b
p2603
I1
sVdqdbxo4
p2604
I1
sVdcfj4h7
p2605
I1
sVd5muhlo
p2606
I1
sVd4rsl5q
p2607
I3
sVd34lp01
p2608
I1
sVd1gp2ns
p2609
I1
sVddwxia0
p2610
I1
sVdfwbrhq
p2611
I1
sVd18s9hd
p2612
I2
sVcypqcgc
p2613
I1
sVd44f5lk
p2614
I1
sVdgtnk6x
p2615
I1
sVdqzrw3a
p2616
I2
sVdhezquf
p2617
I1
sVd7utdaa
p2618
I1
sVddj6dlm
p2619
I1
sVdosbkqd
p2620
I1
sVd8grjtd
p2621
I1
sVd6bakuv
p2622
I1
sVd9g2bqd
p2623
I1
sVdn4eij6
p2624
I1
sVda17rhj
p2625
I1
sVdpw9pma
p2626
I1
sVdq9dq1b
p2627
I1
sVdelt26q
p2628
I1
sVdp4whlj
p2629
I1
sVd3j50uv
p2630
I1
sVdamp3py
p2631
I1
sVd001mls
p2632
I1
sVcz4cfzx
p2633
I1
sVdhs9f7d
p2634
I1
sVdkxg632
p2635
I1
sVd65ziao
p2636
I1
sVd9mic6e
p2637
I1
sVd4ckfjl
p2638
I1
sVd0953ac
p2639
I1
sVd0tp68v
p2640
I1
sVczcz0s1
p2641
I1
sVczweodw
p2642
I2
sVdr145hi
p2643
I1
sVdh03z75
p2644
I1
sVcyzj8cw
p2645
I2
sVdivzk1i
p2646
I1
sVd15fgs0
p2647
I1
sVd03b5c9
p2648
I1
sVdbg54up
p2649
I1
sVdjy8kgn
p2650
I2
sVdfb4c4a
p2651
I1
sVdo0hs8q
p2652
I1
sVdf7g5ji
p2653
I1
sVdnd2s6o
p2654
I1
sVdd59oz3
p2655
I2
sVdj4gs6t
p2656
I1
sVdijssmn
p2657
I1
sVdtbkyx1
p2658
I1
sVd0n6zvm
p2659
I1
sVcztrith
p2660
I1
sVdeim8xc
p2661
I1
sVdk9rupl
p2662
I1
sVd7udrs2
p2663
I1
sVd4sheix
p2664
I1
sVdsi0561
p2665
I1
sVd0udgnt
p2666
I1
sVd3o8dr1
p2667
I1
sVczcidvj
p2668
I1
sVdf9wx9k
p2669
I1
sVd2nsu56
p2670
I1
sVd859vxq
p2671
I1
sVdhgnwxu
p2672
I1
sVdaqj3vs
p2673
I1
sVdtfbu01
p2674
I1
sVd7lrzlj
p2675
I1
sVd0m9ub3
p2676
I2
sVd2h7yci
p2677
I1
sVdjamjjf
p2678
I1
sVdegnemy
p2679
I1
sVdrijglz
p2680
I1
sVd29li5n
p2681
I2
sVd449mu8
p2682
I1
sVd9w5ffw
p2683
I1
sVczvm1wj
p2684
I1
sVdiy46ym
p2685
I1
sVdeov08v
p2686
I1
sVdp3zlbn
p2687
I1
sVdagf1v6
p2688
I1
sVdt0t8yr
p2689
I1
sVd1dsvpq
p2690
I1
sVd3l27lg
p2691
I1
sVd42319u
p2692
I1
sVd1hxp14
p2693
I1
sVd3mstnp
p2694
I1
sVdpsq4he
p2695
I1
sVddefqu8
p2696
I1
sVd1ppj7h
p2697
I1
sVd2vl4sl
p2698
I1
sVdjmk732
p2699
I1
sVcyt6bll
p2700
I1
sVdocu8yf
p2701
I1
sVd0bzqvi
p2702
I1
sVdk3iemo
p2703
I1
sVdac6j11
p2704
I1
sVd78cyuq
p2705
I1
sVdbfz3hx
p2706
I3
sVdkbvqfu
p2707
I2
sVdmqa13a
p2708
I1
sVdimee25
p2709
I1
sVdnniz9p
p2710
I1
sVdgb2cjp
p2711
I1
sVdiwfoda
p2712
I1
sVdqshive
p2713
I1
sVd1m0amy
p2714
I1
sVd17fqmf
p2715
I1
sVd1owxn5
p2716
I1
sVdi2a530
p2717
I1
sVdal8o1h
p2718
I1
sVd7qhmr9
p2719
I1
sVdcu9psw
p2720
I1
sVdc8enmh
p2721
I1
sVd2vjgy4
p2722
I1
sVdc2e771
p2723
I1
sVczzk19b
p2724
I1
sVdd5zyyk
p2725
I1
sVczboxaj
p2726
I1
sVdp7em9v
p2727
I1
sVd1v002f
p2728
I1
sVd00uuhm
p2729
I1
sVdiqnt89
p2730
I1
sVd1k4hmg
p2731
I1
sVddr6fey
p2732
I1
sVdnm1mam
p2733
I2
sVd0x5q4v
p2734
I1
sVdk6u4a8
p2735
I1
sVd0277j1
p2736
I2
sVd4bk0gh
p2737
I2
sVd2r2c1f
p2738
I1
sVdhcvtbt
p2739
I1
sVd2ijkxx
p2740
I1
sVdeht2nn
p2741
I1
sVdrguty0
p2742
I1
sVd738pei
p2743
I1
sVdgeuv0v
p2744
I1
sVdbnnbzc
p2745
I1
sVdfj8hs6
p2746
I1
sVd2x6c4k
p2747
I1
sVd287kre
p2748
I1
sVd7443rk
p2749
I2
sVcz3lcde
p2750
I1
sVdi6wfu8
p2751
I1
sVdmrnkkc
p2752
I1
sVddg7vw0
p2753
I2
sVdj4ej2g
p2754
I1
sVdfib76i
p2755
I1
sVd63gvw7
p2756
I1
sVdc3tym1
p2757
I1
sVdrqnlxq
p2758
I1
sVdh58dc4
p2759
I1
sVda5qwpw
p2760
I1
sVdbx5m0f
p2761
I1
sVdjch3xb
p2762
I1
sVdcf7oh2
p2763
I1
sVd3ge0gz
p2764
I1
sVczn7pfy
p2765
I1
sVdel1ld8
p2766
I1
sVdei4p9r
p2767
I1
sVda9e43x
p2768
I1
sVd3hegr4
p2769
I1
sVderfg1m
p2770
I1
sVdg6jssj
p2771
I1
sVd533a3b
p2772
I1
sVd1774rj
p2773
I1
sVd7ukto3
p2774
I2
sVczznpyv
p2775
I1
sVcyzjunl
p2776
I1
sVczzrybq
p2777
I1
sVd31b75t
p2778
I1
sVdggmqvn
p2779
I1
sVd5o5a6o
p2780
I1
sVczils5e
p2781
I1
sVd36oufs
p2782
I1
sVdmzzffj
p2783
I1
sVd69wv29
p2784
I1
sVdg1h2hx
p2785
I1
sVd90vgfd
p2786
I1
sVdg2ic94
p2787
I1
sVcz7puh9
p2788
I1
sVd38vkxw
p2789
I1
sVdo99o8r
p2790
I2
sVdcyt5hv
p2791
I1
sVd0j3jxy
p2792
I1
sVdgh4i5l
p2793
I1
sVdo6q8bg
p2794
I1
sVdbvn3hy
p2795
I1
sVcz0j4fy
p2796
I1
sVdri72ky
p2797
I1
sVdejo5b1
p2798
I2
sVd21fjg4
p2799
I5
sVdh5vze1
p2800
I1
sVde30van
p2801
I4
sVczwl11e
p2802
I1
sVcz3hpan
p2803
I1
sVd64r4gb
p2804
I1
sVdbdrhxz
p2805
I1
sVd7ieaah
p2806
I1
sVd62a1bh
p2807
I1
sVdeun9ck
p2808
I1
sVdh5o3et
p2809
I1
sVcyybr6e
p2810
I2
s.