(dp0
Vd2rioru
p1
I1
sVd7mras8
p2
I1
sVd504g7h
p3
I1
sVdb2ygas
p4
I1
sVdh7xuu7
p5
I1
sVdg2wujj
p6
I1
sVdhyrgah
p7
I1
sVd2ob30y
p8
I1
sVd9fuvq3
p9
I2
sVd9kwicz
p10
I1
sVd52zdyq
p11
I1
sVdff4flg
p12
I1
sVd58d3ns
p13
I1
sVd5t2qki
p14
I1
sVd4iw8fm
p15
I1
sVcz6v93s
p16
I1
sVdg3kaph
p17
I1
sVdd66uvw
p18
I1
sVde5fif8
p19
I1
sVdgt2yn4
p20
I2
sVcytnuv1
p21
I1
sVcz6wr0n
p22
I1
sVd07jrj0
p23
I1
sVczc6z5i
p24
I1
sVde4tw3q
p25
I1
sVddut6rf
p26
I1
sVd37wfod
p27
I1
sVd48bki0
p28
I1
sVde8u5st
p29
I1
sVd29hma7
p30
I1
sVd9vqlts
p31
I1
sVd0kosb5
p32
I1
sVd703nyp
p33
I1
sVdjxup5b
p34
I1
sVdfngur5
p35
I1
sVd58frdg
p36
I1
sVdms7oxh
p37
I1
sVdcj9hns
p38
I2
sVcz0hk94
p39
I1
sVdbv5vj8
p40
I1
sVdb5khx4
p41
I1
sVdk4z4hz
p42
I2
sVdibv8al
p43
I3
sVd0w5d5l
p44
I1
sVdoeszz4
p45
I1
sVdg8iqm8
p46
I1
sVdimsywa
p47
I2
sVd9sfrew
p48
I1
sVcylm25v
p49
I1
sVdepr9tw
p50
I1
sVdd76814
p51
I1
sVdhylw1u
p52
I1
sVdf9ogwn
p53
I3
sVdbmcgu9
p54
I1
sVd37aspx
p55
I1
sVdhyrpgb
p56
I1
sVdbmcwlk
p57
I1
sVd10j0q3
p58
I3
sVd17rgbc
p59
I1
sVcz58omw
p60
I1
sVdjhxl25
p61
I1
sVdhz5kuu
p62
I1
sVd10k9xh
p63
I1
sVd00qx52
p64
I1
sVd3eccij
p65
I1
sVdpo4ma3
p66
I1
sVdg85if9
p67
I2
sVd0bsaj7
p68
I1
sVd10jevx
p69
I2
sVdcdnue0
p70
I1
sVd0yd7hv
p71
I1
sVd73z95y
p72
I1
sVd3jgyuq
p73
I1
sVdmijjvj
p74
I1
sVdsg1zz4
p75
I1
sVd367m1b
p76
I1
sVdhz5dly
p77
I2
sVd2isuga
p78
I1
sVd07ot4c
p79
I1
sVd7rjd6c
p80
I1
sVdt0su4t
p81
I1
sVdh28v6u
p82
I1
sVdebb9yt
p83
I1
sVdibs15o
p84
I1
sVdp1nhyo
p85
I2
sVdd4rwqn
p86
I1
sVdg5vj58
p87
I1
sVczafziz
p88
I1
sVcz9fqkg
p89
I1
sVdauz9kt
p90
I2
sVd61jrw9
p91
I1
sVd0wopkj
p92
I1
sVdj5v0zv
p93
I1
sVd4qqj8t
p94
I1
sVdg8ls8m
p95
I1
sVdc5rgjz
p96
I1
sVczpwqzp
p97
I1
sVdg4pq68
p98
I1
sVdmg5686
p99
I1
sVd8kw6ue
p100
I1
sVdnma4pf
p101
I1
sVdjg3zf3
p102
I1
sVdg8bd5d
p103
I1
sVd6kpm63
p104
I1
sVd4hry7o
p105
I1
sVday6atg
p106
I1
sVdmndave
p107
I1
sVczkatfq
p108
I1
sVds0j8u4
p109
I1
sVdfv4ws7
p110
I1
sVd4t29tw
p111
I1
sVdgmy99o
p112
I1
sVdo7s4c9
p113
I1
sVdimvc9s
p114
I1
sVd78xm6s
p115
I1
sVdi3px3q
p116
I2
sVd9dj4ze
p117
I1
sVd1d7hna
p118
I1
sVdk8mb5e
p119
I1
sVdes1j4x
p120
I1
sVdeegjkb
p121
I2
sVdbym0d1
p122
I1
sVd1jupml
p123
I1
sVd048guh
p124
I1
sVd2gjf2l
p125
I1
sVcylj13x
p126
I1
sVdsgqeh0
p127
I2
sVd9mzejp
p128
I1
sVdgmwu15
p129
I1
sVdj4cd9p
p130
I1
sVdhz8lrj
p131
I1
sVdgiahmp
p132
I1
sVdhyym79
p133
I3
sVdg864kz
p134
I4
sVdhyr1lp
p135
I1
sVddgrplh
p136
I1
sVda5zuvm
p137
I1
sVd129tzo
p138
I1
sVdbz3luh
p139
I1
sVdcj35y8
p140
I1
sVcytkkkp
p141
I1
sVd12a2z4
p142
I1
sVcyqueyk
p143
I2
sVd0sy0yn
p144
I1
sVdqj86i5
p145
I1
sVdi8i7yj
p146
I1
sVd3gcitl
p147
I1
sVd82xd4r
p148
I1
sVdimj2sj
p149
I1
sVdg5uqcy
p150
I1
sVdg8b5i7
p151
I1
sVdn9a7jr
p152
I1
sVdpo1znz
p153
I1
sVdif8e4c
p154
I1
sVd7phxe2
p155
I3
sVdg7yp86
p156
I1
sVdinnx9i
p157
I2
sVd1tp4cv
p158
I1
sVd3apyic
p159
I2
sVd73ydej
p160
I2
sVd3e7oht
p161
I1
sVd0nl3in
p162
I2
sVdrm0mg9
p163
I1
sVdoja5mw
p164
I1
sVdeprln9
p165
I1
sVdhknzzf
p166
I1
sVdeu7jc2
p167
I1
sVcz9xkhr
p168
I1
sVdhymqx9
p169
I1
sVdh27uaj
p170
I1
sVd2vl9ty
p171
I1
sVdgslb9m
p172
I1
sVdkr12sx
p173
I1
sVdii1lob
p174
I1
sVdtj11lp
p175
I1
sVdjzt533
p176
I1
sVdh273po
p177
I1
sVddxc72n
p178
I1
sVdh6ssuo
p179
I1
sVdhrqosu
p180
I1
sVd4pjf61
p181
I1
sVdho7nq5
p182
I1
sVd12j3b3
p183
I3
sVcz3kflj
p184
I1
sVdimea1e
p185
I2
sVd0xqpay
p186
I1
sVddmc5ro
p187
I1
sVd5wdtct
p188
I1
sVdojp6op
p189
I1
sVd12gfuk
p190
I2
sVdrkurq5
p191
I1
sVdfvc8n4
p192
I1
sVdgurwrd
p193
I1
sVdi6naki
p194
I1
sVd82y671
p195
I3
sVdcft1ap
p196
I1
sVd3j1zv3
p197
I1
sVdpo4ued
p198
I1
sVdhyodjc
p199
I1
sVd3jrjhs
p200
I1
sVdgc7b2y
p201
I1
sVd19toha
p202
I1
sVdbdjtms
p203
I1
sVdtb3vje
p204
I1
sVdpo46x8
p205
I1
sVdmv1w3d
p206
I1
sVd868fyy
p207
I1
sVdjv1bkc
p208
I2
sVd20029m
p209
I1
sVd8ze5iv
p210
I1
sVd3512ef
p211
I1
sVdgn3kam
p212
I1
sVd05jyqh
p213
I1
sVdibzeid
p214
I1
sVdg8gmj4
p215
I1
sVd0bpnt2
p216
I1
sVdj1l4xw
p217
I1
sVdqsmbqw
p218
I2
sVdsu8u9t
p219
I1
sVdhypewb
p220
I1
sVd87208e
p221
I1
sVd62wikj
p222
I1
sVdeoyqip
p223
I1
sVdipzf1q
p224
I1
sVdkm4vu1
p225
I1
sVdimq0zp
p226
I1
sVdhzr44y
p227
I1
sVdmiqv8e
p228
I1
sVdps1crj
p229
I1
sVd10kkrx
p230
I1
sVdg1avfa
p231
I1
sVcyjw16q
p232
I1
sVdbhu2s0
p233
I1
sVde1u6ne
p234
I1
sVdgq6n5a
p235
I1
sVdb3ogzg
p236
I1
sVdmimazy
p237
I1
sVd66y4rn
p238
I1
sVdp4lpuv
p239
I1
sVd2uluno
p240
I1
sVdg9jjz0
p241
I1
sVd4ua0ep
p242
I1
sVczm8659
p243
I1
sVd8qypeb
p244
I1
sVd12h7pp
p245
I3
sVdfb4rz5
p246
I1
sVdbmu1ub
p247
I1
sVdaa77e8
p248
I1
sVd7lajb0
p249
I1
sVddllbxv
p250
I1
sVdt0l47f
p251
I1
sVdn0224o
p252
I1
sVd13gtiz
p253
I1
sVdd91lrr
p254
I1
sVd0sz2a1
p255
I1
sVdnd5hmk
p256
I1
sVdgn9hga
p257
I1
sVd22g7ku
p258
I1
sVdg8ac7i
p259
I1
sVdbtqhk8
p260
I1
sVdbnq3lv
p261
I1
sVdakt4vo
p262
I1
sVcyjja7d
p263
I1
sVdgu168r
p264
I1
sVcz7e1rc
p265
I1
sVdh9x71u
p266
I1
sVd5ebe4v
p267
I1
sVd0sxzn5
p268
I1
sVdhoybgo
p269
I1
sVd00qylh
p270
I1
sVdjipo1k
p271
I1
sVdgq9x1o
p272
I1
sVdhj1syf
p273
I1
sVd97sb51
p274
I1
sVdhyqrje
p275
I1
sVdmoei1c
p276
I2
sVcyp4anf
p277
I1
sVde5fhw9
p278
I1
sVd18s1ku
p279
I1
sVdstyrux
p280
I1
sVczu9ry4
p281
I1
sVdqftrny
p282
I1
sVdi8m1ie
p283
I1
sVdg5yo4w
p284
I1
sVcz6uax8
p285
I1
sVd59ki1o
p286
I1
sVdgmzw6m
p287
I1
sVdp7xal5
p288
I1
sVdegml58
p289
I1
s.