(dp0
Vddtzf6w
p1
I1
sVd6pzbil
p2
I1
sVd7wjjhd
p3
I1
sVd55wv8h
p4
I1
sVd46vhio
p5
I3
sVdpy0oi7
p6
I1
sVd47gnpa
p7
I1
sVde5r68v
p8
I1
sVdazzhtv
p9
I1
sVdi733ge
p10
I1
sVd0qwaxl
p11
I1
sVd5s1qnb
p12
I1
sVd7k5utf
p13
I1
sVdbv79o1
p14
I1
sVdfppbyb
p15
I1
sVdg98v0o
p16
I1
sVdbcrcfb
p17
I1
sVdjiclol
p18
I1
sVdphjfoe
p19
I1
sVd9p91ml
p20
I1
sVdoe6veq
p21
I1
sVd4y7iuc
p22
I1
sVdfjlvnl
p23
I1
sVd33ybdx
p24
I1
sVd0pabqy
p25
I1
sVcyk9j5o
p26
I1
sVdkw2e4p
p27
I1
sVddreq0z
p28
I1
sVdbj901s
p29
I1
sVddze7kz
p30
I1
sVdcj9khr
p31
I1
sVdbvb2xf
p32
I1
sVdgdlcd1
p33
I1
sVdgrj910
p34
I1
sVda23bj5
p35
I1
sVdt680nl
p36
I1
sVd22bal8
p37
I2
sVcynvycd
p38
I1
sVdaojw5d
p39
I1
sVd0vz75q
p40
I1
sVd10ngzk
p41
I1
sVdrd7lgi
p42
I1
sVd159c8j
p43
I1
sVd0spbvy
p44
I1
sVdfsp2v0
p45
I1
sVdb3pg2u
p46
I1
sVddc1sr5
p47
I1
sVdcviv12
p48
I2
sVdd4zgcm
p49
I1
sVd4wzrsj
p50
I1
sVd3oaue8
p51
I1
sVcz1nguh
p52
I1
sVdd3doej
p53
I1
sVdg0wiq6
p54
I1
sVcz4evnx
p55
I1
sVczarwpq
p56
I1
sVdbjz04a
p57
I1
sVdfc0dq6
p58
I1
sVdqvw058
p59
I1
sVdf69u1s
p60
I1
sVd5cpjua
p61
I1
sVd2naubx
p62
I1
sVd0qc3s3
p63
I2
sVczylwfm
p64
I1
sVcyuaxsq
p65
I1
sVd91nzwb
p66
I1
sVdcrxwto
p67
I1
sVcyt4n4h
p68
I1
sVd1w0xas
p69
I1
sVd3n07ny
p70
I1
sVd2my2ee
p71
I1
sVdp7zgte
p72
I1
sVd6w1ohz
p73
I1
sVdfgejkl
p74
I1
sVdmmlmsa
p75
I2
sVd54mbse
p76
I1
sVd0kuusk
p77
I1
sVdmsm1uz
p78
I1
sVdghsziy
p79
I1
sVd88que7
p80
I1
sVdncsrq4
p81
I1
sVd2qexzn
p82
I1
sVd20u3l5
p83
I2
sVcyjrmrm
p84
I1
sVd0sjlu7
p85
I1
sVd9h8qkg
p86
I1
sVd8xaksf
p87
I2
sVd3fcbsm
p88
I1
sVdq0smtk
p89
I1
sVd4y6d2u
p90
I1
sVd4x322b
p91
I1
sVdsqt2rm
p92
I1
sVdj9klc5
p93
I1
sVd9dzwvk
p94
I1
sVdf48j3t
p95
I1
sVdje58z2
p96
I1
sVdeefe1t
p97
I2
sVdi5ihdi
p98
I1
sVdn06m1p
p99
I2
sVdcacemj
p100
I1
sVdbwa2gj
p101
I1
sVcytfxvt
p102
I2
sVdbwn88b
p103
I1
sVd2a8l2e
p104
I1
sVd2kuxsh
p105
I1
sVd6oyu5b
p106
I1
sVd3wfk66
p107
I1
sVda7pi48
p108
I1
sVdatkg0s
p109
I1
sVdeklj6p
p110
I1
sVd4eqskz
p111
I1
sVdk51tvt
p112
I1
sVddduazk
p113
I1
sVd4kwkzn
p114
I1
sVdk1v249
p115
I1
sVdt0ayjc
p116
I1
sVd5dogjx
p117
I1
sVds0kkin
p118
I1
sVdrxde4v
p119
I1
sVd6a874b
p120
I1
sVd61sljg
p121
I1
sVcz50k8z
p122
I1
sVd630z7d
p123
I1
sVczjjz29
p124
I1
sVdcf8466
p125
I1
sVd4urcd5
p126
I1
sVdixygix
p127
I1
sVcyv5w9f
p128
I1
sVd3jjfsl
p129
I1
sVdjanmdl
p130
I1
sVd0hke50
p131
I1
sVd1g2unf
p132
I1
sVdcnaxl2
p133
I1
sVdj0q5b9
p134
I1
sVdku1hd1
p135
I1
sVd1i3caw
p136
I1
sVd08tuqq
p137
I1
sVdjbopgj
p138
I1
sVd0d9trk
p139
I2
sVd3jfgau
p140
I1
sVdgdekm1
p141
I1
sVdeuu8ap
p142
I2
sVd4xusej
p143
I1
sVdau1ru8
p144
I1
sVd8erl22
p145
I1
sVds15kir
p146
I1
sVd094vqz
p147
I1
sVdmrb205
p148
I1
sVdh4a726
p149
I1
sVder2ehe
p150
I1
sVdjm8ps5
p151
I1
sVdfk2xs0
p152
I1
sVdr9cw6p
p153
I1
sVd2v0qym
p154
I1
sVddmu3dl
p155
I1
sVdfjrkjz
p156
I1
sVd33usup
p157
I1
sVd8rqjph
p158
I1
sVd71zjnl
p159
I1
sVd6f23lw
p160
I1
sVdhw9xun
p161
I1
sVdofu2ia
p162
I1
sVdb16e12
p163
I1
sVdftq8at
p164
I1
sVd4xh7ol
p165
I1
sVdau8s0v
p166
I1
sVd4uz9x8
p167
I1
sVd1zaurw
p168
I1
sVdibqufh
p169
I1
sVdhod0dc
p170
I1
sVd49f1tq
p171
I1
sVdtj35il
p172
I1
sVd0ttaqe
p173
I1
sVczojmll
p174
I1
sVdt7ya8n
p175
I1
sVd9pxese
p176
I1
sVcynuck3
p177
I1
sVcyppm9i
p178
I1
sVd9cvbpi
p179
I2
sVddw82xa
p180
I1
sVd1er6j6
p181
I1
sVdn8ngdx
p182
I2
sVdax9haa
p183
I1
sVd5gsoo6
p184
I1
sVdjc3vxr
p185
I2
sVd2l9olm
p186
I1
sVdr59xs0
p187
I1
sVd4a68pm
p188
I1
sVdnz2nv1
p189
I1
sVdasagaf
p190
I1
sVdfak8l2
p191
I1
sVdezzgwi
p192
I1
sVd8czw2b
p193
I1
sVd7aqfwc
p194
I1
sVdclkle1
p195
I1
sVd4f9mhd
p196
I1
sVd5dsm80
p197
I1
sVdbs3t1k
p198
I1
sVdfm792g
p199
I1
sVdf8qbkq
p200
I1
sVd2e3zes
p201
I1
sVdibpeed
p202
I1
sVd17shu7
p203
I1
sVdd19km6
p204
I1
sVdsufhhm
p205
I1
sVd3roxpk
p206
I1
sVda5kawk
p207
I1
sVddhjtop
p208
I1
sVdk09flo
p209
I2
sVd2htpyn
p210
I1
sVdd8lebz
p211
I1
sVddbx38g
p212
I1
sVdeicmgv
p213
I1
sVdhwsgen
p214
I1
sVd8e3mcg
p215
I1
sVd70ozi9
p216
I1
sVdcjigfr
p217
I1
sVd0r5qog
p218
I1
sVd3i3u2c
p219
I1
sVd4f7hvm
p220
I1
sVd03gdh3
p221
I1
sVdhgi9w4
p222
I1
sVdr9of1h
p223
I1
sVdike6h9
p224
I1
sVd0kj2gt
p225
I1
sVczce5q7
p226
I1
sVdh12zcg
p227
I1
sVdibq0ov
p228
I1
sVd0gfp09
p229
I1
s.