(dp0
Vczi49ys
p1
I1
s.(dp0
Vd1d2itu
p1
I1
sVczi49ys
p2
I1
s.(dp0
Vd24rsnq
p1
I1
sVczi49ys
p2
I1
s.(dp0
Vd2d7yjf
p1
I1
sVczi49ys
p2
I1
s.(dp0
Vd37zzyj
p1
I1
sVczi49ys
p2
I1
s.(dp0
Vd3z84ay
p1
I1
sVczi49ys
p2
I1
s.(dp0
Vd40twmo
p1
I1
sVczi49ys
p2
I1
s.(dp0
Vd4cu7fj
p1
I1
sVczi49ys
p2
I1
s.(dp0
Vd5prcu7
p1
I1
sVczi49ys
p2
I1
s.(dp0
Vd627svt
p1
I1
sVczi49ys
p2
I1
s.(dp0
Vd66s2td
p1
I1
sVczi49ys
p2
I1
s.(dp0
Vd9aqzcl
p1
I1
sVczi49ys
p2
I1
s.(dp0
Vd9td664
p1
I1
sVczi49ys
p2
I1
s.(dp0
Vdadabll
p1
I1
sVczi49ys
p2
I1
s.(dp0
Vdadabll
p1
I1
sVczi49ys
p2
I1
s.(dp0
Vdb557dm
p1
I1
sVczi49ys
p2
I1
s.(dp0
Vdbirzkb
p1
I1
sVczi49ys
p2
I1
s.(dp0
Vdbvginp
p1
I1
sVczi49ys
p2
I1
s.(dp0
Vdc1pj0h
p1
I1
sVczi49ys
p2
I1
s.(dp0
Vdcmhucs
p1
I1
sVczi49ys
p2
I1
s.(dp0
Vdco9so1
p1
I1
sVczi49ys
p2
I1
s.(dp0
Vdfa2afp
p1
I1
sVczi49ys
p2
I1
s.(dp0
Vdh9d28y
p1
I1
sVczi49ys
p2
I1
s.(dp0
Vdjoxnxm
p1
I1
sVczi49ys
p2
I1
s.(dp0
Vczi49ys
p1
I1
sVdnkich1
p2
I1
s.(dp0
Vdooh650
p1
I1
sVczi49ys
p2
I1
s.(dp0
Vdq5k5l7
p1
I1
sVczi49ys
p2
I1
s.(dp0
Vds0p9ar
p1
I1
sVczi49ys
p2
I1
s.(dp0
Vds1bu4m
p1
I1
sVczi49ys
p2
I1
s.