(dp0
Vd61925k
p1
I1
sVd1zgl0x
p2
I3
sVdguj3oz
p3
I1
sVd023lq4
p4
I1
sVd0ptc9f
p5
I1
sVd7zmi7p
p6
I1
sVdhz24gc
p7
I3
sVczg665b
p8
I1
sVdjlnfg7
p9
I1
sVdbddq82
p10
I1
sVd4wo7ez
p11
I5
sVdjn65fj
p12
I1
sVd641px9
p13
I1
sVdauh8te
p14
I1
sVdklv71m
p15
I1
sVdfm8xts
p16
I1
sVdqw5ykz
p17
I2
sVdgb1nw7
p18
I1
sVd2svunn
p19
I1
sVd0rpcnf
p20
I1
sVcz4srt9
p21
I1
sVdizzenq
p22
I1
sVd0kkvt8
p23
I1
sVd6hvfez
p24
I1
sVcynabp1
p25
I1
sVdknb3s0
p26
I3
sVcylk0by
p27
I1
sVde8svoa
p28
I1
sVd104xoi
p29
I1
sVdberiay
p30
I2
sVd1qi2p8
p31
I1
sVd9iqjho
p32
I1
sVd8mjc98
p33
I1
sVda74745
p34
I1
sVdko7yab
p35
I1
sVdbddru1
p36
I1
sVdhnqrhb
p37
I1
sVd1bqbjr
p38
I1
sVdd2chck
p39
I1
sVd4j1596
p40
I1
sVd0u3toe
p41
I1
sVcynxle8
p42
I1
sVdjqaov1
p43
I1
sVdscoy0s
p44
I2
sVd088lrz
p45
I1
sVdnmldzj
p46
I2
sVdq7hgj2
p47
I1
sVdawn051
p48
I3
sVdbk9tmw
p49
I2
sVda92evx
p50
I1
sVd8dg95c
p51
I1
sVdt5py0l
p52
I1
sVd7fadah
p53
I1
sVd5rgara
p54
I1
sVczg5wdq
p55
I1
sVdjg7lcs
p56
I1
sVd7m3ssn
p57
I1
sVdbhoisc
p58
I1
sVd5pwxin
p59
I1
sVdr2w0to
p60
I1
sVd7ln67v
p61
I1
sVcynxiz3
p62
I1
sVd1624wr
p63
I2
sVd9p7zw5
p64
I1
sVdehvn3q
p65
I1
sVd60kdi9
p66
I1
sVd3p4a7f
p67
I1
sVdh5rnqc
p68
I2
sVd0gp664
p69
I1
sVczvfunp
p70
I3
sVdb0e7lo
p71
I1
sVd4wmxcs
p72
I2
sVd9qdv1n
p73
I1
sVds2kzi8
p74
I1
sVddvq5tb
p75
I1
sVcyjq3a7
p76
I2
sVdgpgvi6
p77
I1
sVd8emwpl
p78
I1
sVczqb99d
p79
I1
sVdmw8kq1
p80
I1
sVcz4n2t7
p81
I1
sVddbell9
p82
I1
sVdci9xi7
p83
I1
sVd1ccmrc
p84
I1
sVdf0wp9g
p85
I6
sVd2my2ee
p86
I1
sVd1af638
p87
I1
sVdetf9a6
p88
I1
sVdbd7thi
p89
I2
sVd2t2hkw
p90
I1
sVd0lu6fz
p91
I1
sVdn82osb
p92
I1
sVcysvrei
p93
I1
sVd6buy9e
p94
I1
sVdh7lgtg
p95
I1
sVdi5x7nn
p96
I1
sVd17rqov
p97
I1
sVdnijde9
p98
I1
sVdmulegd
p99
I2
sVd14qlur
p100
I2
sVdbk09cq
p101
I1
sVd1ij9gs
p102
I1
sVd0rbi0p
p103
I1
sVdesyaff
p104
I1
sVddx61tl
p105
I1
sVdbjxv2v
p106
I1
sVd5n93mw
p107
I1
sVdbpijv4
p108
I1
sVd023e9k
p109
I1
sVd9jrda0
p110
I1
sVdbmhh4l
p111
I2
sVd5n9r6d
p112
I1
sVdguxtc3
p113
I1
sVd1zjwnk
p114
I1
sVczvxh9h
p115
I1
sVdb0c3d3
p116
I1
sVczq3v80
p117
I1
sVd7m23zm
p118
I1
sVdb6n4ce
p119
I1
sVdehrfua
p120
I1
sVda7g6jv
p121
I1
sVd5ntuzy
p122
I1
sVdb0d0vy
p123
I1
sVd2bus35
p124
I2
sVd9gsfpm
p125
I1
sVd5nc4qr
p126
I1
sVd1252l6
p127
I1
sVd10fvht
p128
I1
sVdsquksi
p129
I1
sVd5nqw1d
p130
I3
sVczaoca8
p131
I2
sVdbc94fv
p132
I2
sVddwnaoj
p133
I1
sVd63ugiz
p134
I1
sVd941y22
p135
I1
sVdk7qerz
p136
I2
sVcz4t8ts
p137
I1
sVdazdwva
p138
I1
sVdpmaczt
p139
I1
sVcz9d1la
p140
I1
sVd6g4i46
p141
I1
sVdgnu90p
p142
I1
sVcyms4mw
p143
I1
sVdegubsh
p144
I1
sVdn0altt
p145
I2
sVd2z3kjp
p146
I1
sVd275tqg
p147
I1
sVd9f6w3y
p148
I1
sVd7l5hi8
p149
I1
sVd6w815i
p150
I1
sVdq3yis8
p151
I1
sVdems9kw
p152
I1
sVd1li1o2
p153
I2
sVd0ewxte
p154
I2
sVdh1jz5j
p155
I1
sVd6y58se
p156
I1
sVdbwfj23
p157
I1
sVcywoum3
p158
I1
sVde0rb6r
p159
I1
sVdsv5ee9
p160
I1
sVd4j2aub
p161
I1
sVda4nzh8
p162
I1
sVdcdsc5l
p163
I1
sVdezy8nj
p164
I1
sVdixp2ex
p165
I1
sVdbuppvr
p166
I1
sVdbptsu1
p167
I1
sVd3lltm4
p168
I1
sVdjzo6ow
p169
I1
sVd0esgkn
p170
I1
sVdscqvhy
p171
I1
sVdcrgb7f
p172
I2
sVdotw8zk
p173
I2
sVd1vycxu
p174
I1
sVd3mn1bt
p175
I1
sVdmgsef3
p176
I1
sVd4zgbhi
p177
I2
sVd9fjruv
p178
I1
sVd5rorla
p179
I1
sVd9si3w7
p180
I1
sVdczfyzr
p181
I1
sVdc0mra5
p182
I1
sVd1f13al
p183
I1
sVdjp8icq
p184
I1
sVd6s2029
p185
I1
sVd0jg2gh
p186
I2
sVdgio4ze
p187
I1
sVcyrmh1g
p188
I1
sVdo893cd
p189
I1
sVdftkbqc
p190
I4
sVd90hz9t
p191
I3
sVd1zaurw
p192
I2
sVd838z8d
p193
I1
sVdmwwqlt
p194
I1
sVd89o3ky
p195
I1
sVd97er1w
p196
I3
sVd0ex5th
p197
I3
sVdhewh5y
p198
I2
sVczjyp3a
p199
I1
sVd0yxfxl
p200
I3
sVcyl2dhh
p201
I1
sVcyjpy4s
p202
I1
sVd1w88pr
p203
I1
sVd0tm68p
p204
I1
sVd2aam70
p205
I1
sVdaevaiq
p206
I1
sVczg19fw
p207
I1
sVd0dj85y
p208
I1
sVdgjsd2j
p209
I1
sVdmuiru9
p210
I1
sVds9ca8c
p211
I1
sVdqibf2w
p212
I1
sVd1qs9i1
p213
I1
sVdbwhx4g
p214
I2
sVd7ztlui
p215
I1
sVcywcl56
p216
I1
sVda0fdlw
p217
I1
sVdbk7rxa
p218
I2
sVdox9992
p219
I1
sVdf05egy
p220
I1
sVczm435o
p221
I1
sVdbjv1om
p222
I3
sVdkbio99
p223
I1
sVd4zf6tl
p224
I5
sVdj66ae6
p225
I1
sVcz2e1he
p226
I1
sVcz92iqc
p227
I2
sVd436u5y
p228
I1
sVdkwrv81
p229
I1
sVd3autkj
p230
I1
sVd5wnx0x
p231
I1
sVdi2bzle
p232
I1
sVcyx199v
p233
I2
sVczbhat7
p234
I1
sVdccfeb5
p235
I1
sVdhq6l1a
p236
I1
sVd1yikoo
p237
I1
sVd7s3jdo
p238
I1
sVdkilvkh
p239
I1
sVd42j2t0
p240
I1
sVdr5ezff
p241
I1
sVdjuzpmv
p242
I1
sVd15z8q9
p243
I1
sVdbci5r5
p244
I1
sVdbaay0h
p245
I2
sVdfkowa9
p246
I1
sVdnml37a
p247
I1
sVd8j8hrb
p248
I1
sVdixns3a
p249
I3
sVd2iluaq
p250
I1
sVd9ec1bw
p251
I1
sVd4c2g3o
p252
I1
sVdnp0i8q
p253
I1
sVdqmpryq
p254
I1
sVd2fiaax
p255
I1
sVdd7825n
p256
I1
sVd3au9kd
p257
I1
sVcz9r9yd
p258
I1
s.