(dp0
Vczfrpw9
p1
I1
s.(dp0
Vd1xccl4
p1
I1
sVczfrpw9
p2
I1
s.(dp0
Vd42fvzq
p1
I1
sVczfrpw9
p2
I1
s.(dp0
Vd55xl81
p1
I1
sVczfrpw9
p2
I1
s.(dp0
Vd671v2x
p1
I1
sVczfrpw9
p2
I1
s.(dp0
Vd8t87ou
p1
I1
sVczfrpw9
p2
I1
s.(dp0
Vd8vcoze
p1
I1
sVczfrpw9
p2
I1
s.(dp0
Vdby0jo8
p1
I1
sVczfrpw9
p2
I1
s.(dp0
Vczfrpw9
p1
I1
sVdc46he8
p2
I1
s.(dp0
Vdck8mk1
p1
I1
sVczfrpw9
p2
I1
s.(dp0
Vddpkq3d
p1
I1
sVczfrpw9
p2
I1
s.(dp0
Vczfrpw9
p1
I1
sVdfwm4vl
p2
I1
s.(dp0
Vdggol6c
p1
I1
sVczfrpw9
p2
I1
s.(dp0
Vdk7pbm1
p1
I1
sVczfrpw9
p2
I1
s.(dp0
Vdsyx7bh
p1
I1
sVczfrpw9
p2
I1
s.