(dp0
Vde3wpam
p1
I1
sVdgucivs
p2
I1
sVdjh5iga
p3
I1
sVd34tban
p4
I1
sVd253bq1
p5
I1
sVd0emkv8
p6
I1
sVd492rds
p7
I1
sVd4ph413
p8
I1
sVdfb4gmx
p9
I1
sVddlylfr
p10
I1
sVdg1oguo
p11
I1
sVdjdlveo
p12
I1
sVdiksv3o
p13
I1
sVdj949r4
p14
I1
sVcz9ydx8
p15
I1
sVd4z8kqr
p16
I1
sVdhynxz1
p17
I2
sVd71gd1m
p18
I1
sVdie124q
p19
I1
sVcyihhu6
p20
I1
sVdex6l9a
p21
I1
sVd59rleq
p22
I1
sVdfset94
p23
I1
sVdhio4m2
p24
I1
sVd56tprk
p25
I1
sVd4m30mn
p26
I1
sVd4pw9zw
p27
I1
sVdbxhnld
p28
I1
sVdnac5e9
p29
I1
sVdid02av
p30
I1
sVczk2tlv
p31
I1
sVdhn97fq
p32
I1
s.