(dp0
Vczftann
p1
I1
sVd135x15
p2
I1
sVcz6ant2
p3
I1
sVdt1yby3
p4
I2
sVd0qvy74
p5
I1
sVdc9u7ep
p6
I1
sVdig5b1e
p7
I1
sVd8743k1
p8
I1
sVdhgo524
p9
I1
sVdeb1vja
p10
I1
sVdn6pqs7
p11
I1
sVd0pur1k
p12
I1
sVd0wrki1
p13
I1
sVd81xjxa
p14
I1
sVd9fv36u
p15
I1
sVd2vpq3p
p16
I1
sVdk46e87
p17
I1
sVd3tfi3n
p18
I1
sVdtigezj
p19
I1
sVdn6p3bf
p20
I2
sVd5vnq2b
p21
I1
sVcz6bsnm
p22
I1
sVdcnsdjl
p23
I1
sVdan5t8y
p24
I1
sVdav2ejv
p25
I1
sVdpybdhg
p26
I1
sVdn6pm8e
p27
I1
sVdf8q6zr
p28
I1
sVdcbugth
p29
I1
sVd4qb6as
p30
I1
sVdo398ey
p31
I1
sVdgb9tmf
p32
I1
sVcyuvs39
p33
I1
sVdbl80vk
p34
I1
sVd0d2xdo
p35
I1
sVddeltlm
p36
I1
sVd6t8h26
p37
I1
sVdhpwld0
p38
I1
sVdb5e476
p39
I1
sVda21tx8
p40
I1
sVd3bzf10
p41
I1
sVd1r6x88
p42
I1
sVd3vn9l5
p43
I1
sVd1izcvy
p44
I1
sVdhccnjm
p45
I1
sVd2v1yvl
p46
I1
sVdc86mk4
p47
I1
sVd8ey7lx
p48
I1
sVd5362yv
p49
I1
sVdeopydm
p50
I1
sVdhh37ib
p51
I1
sVcylj2jj
p52
I1
sVdk0iqru
p53
I1
s.