(dp0
Vcyi803g
p1
I1
s.(dp0
Vcyi803g
p1
I1
sVcyix59q
p2
I1
s.(dp0
Vcyi803g
p1
I1
sVcykaequ
p2
I1
s.(dp0
Vcyi803g
p1
I1
sVcyl1vpp
p2
I1
s.(dp0
Vcyi803g
p1
I1
sVcymptia
p2
I1
s.(dp0
Vcyi803g
p1
I1
sVcymqs5d
p2
I1
s.(dp0
Vcyi803g
p1
I1
sVcyn05s5
p2
I1
s.(dp0
Vcyi803g
p1
I1
sVcyofg8x
p2
I1
s.(dp0
Vcyi803g
p1
I1
sVcyogkvk
p2
I1
s.(dp0
Vcyi803g
p1
I1
sVcyok4f9
p2
I1
s.(dp0
Vcyi803g
p1
I1
sVcyok4f9
p2
I1
s.(dp0
Vcyi803g
p1
I1
sVcyr70k7
p2
I1
s.(dp0
Vcyi803g
p1
I1
sVcyt4vak
p2
I1
s.(dp0
Vcyi803g
p1
I1
sVcyto3xr
p2
I1
s.(dp0
Vcyi803g
p1
I1
sVcyu4fzc
p2
I1
s.(dp0
Vcyi803g
p1
I1
sVcyubzvh
p2
I1
s.(dp0
Vcyi803g
p1
I1
sVcyuzoqa
p2
I1
s.(dp0
Vcyi803g
p1
I1
sVcywtdnf
p2
I1
s.(dp0
Vcyi803g
p1
I1
sVcyy1j2d
p2
I1
s.(dp0
Vcyi803g
p1
I1
sVcyzt28s
p2
I1
s.(dp0
Vcyi803g
p1
I1
sVcz1q7pm
p2
I1
s.(dp0
Vcyi803g
p1
I1
sVcz1q7pm
p2
I1
s.(dp0
Vcyi803g
p1
I1
sVcz1q7pm
p2
I1
s.(dp0
Vcyi803g
p1
I1
sVcz1q7pm
p2
I1
s.(dp0
Vcyi803g
p1
I1
sVcz1q7pm
p2
I1
s.(dp0
Vcyi803g
p1
I1
sVcz3gj6f
p2
I1
s.(dp0
Vcyi803g
p1
I1
sVcz3gj6f
p2
I1
s.(dp0
Vcyi803g
p1
I1
sVcz4dgpy
p2
I1
s.(dp0
Vcyi803g
p1
I1
sVcz6wyib
p2
I1
s.(dp0
Vcyi803g
p1
I1
sVcz6wyib
p2
I1
s.(dp0
Vcyi803g
p1
I1
sVcz7n07i
p2
I1
s.(dp0
Vcyi803g
p1
I1
sVcz8bi1o
p2
I1
s.(dp0
Vcyi803g
p1
I1
sVcz8wkx5
p2
I1
s.(dp0
Vcyi803g
p1
I1
sVcz8zekd
p2
I1
s.(dp0
Vcyi803g
p1
I1
sVcz91anv
p2
I1
s.(dp0
Vcyi803g
p1
I1
sVcz91anv
p2
I1
s.(dp0
Vcyi803g
p1
I1
sVcz93m20
p2
I1
s.(dp0
Vcyi803g
p1
I1
sVcz95blo
p2
I1
s.(dp0
Vcyi803g
p1
I1
sVcz95blo
p2
I1
s.(dp0
Vcyi803g
p1
I1
sVcz95blo
p2
I1
s.(dp0
Vcyi803g
p1
I1
sVcz95blo
p2
I1
s.(dp0
Vcyi803g
p1
I1
sVcz95blo
p2
I1
s.(dp0
Vcyi803g
p1
I1
sVcz97qyo
p2
I1
s.(dp0
Vcyi803g
p1
I1
sVcz97qyo
p2
I1
s.(dp0
Vcyi803g
p1
I1
sVcz9wkbd
p2
I1
s.(dp0
Vcyi803g
p1
I1
sVczadewp
p2
I1
s.(dp0
Vcyi803g
p1
I1
sVczadewp
p2
I1
s.(dp0
Vcyi803g
p1
I1
sVczadewp
p2
I1
s.(dp0
Vcyi803g
p1
I1
sVczadewp
p2
I1
s.(dp0
Vcyi803g
p1
I1
sVczatlur
p2
I1
s.(dp0
Vcyi803g
p1
I1
sVczatmpn
p2
I1
s.(dp0
Vcyi803g
p1
I1
sVczc1km5
p2
I1
s.(dp0
Vcyi803g
p1
I1
sVczc1km5
p2
I1
s.(dp0
Vcyi803g
p1
I1
sVczc1km5
p2
I1
s.(dp0
Vcyi803g
p1
I1
sVczc1km5
p2
I1
s.(dp0
Vcyi803g
p1
I1
sVczc1km5
p2
I1
s.(dp0
Vcyi803g
p1
I1
sVczc9fmg
p2
I1
s.(dp0
Vcyi803g
p1
I1
sVczccm5o
p2
I1
s.(dp0
Vcyi803g
p1
I1
sVczccm5o
p2
I1
s.(dp0
Vcyi803g
p1
I1
sVczccm5o
p2
I1
s.(dp0
Vcyi803g
p1
I1
sVczeloxi
p2
I1
s.(dp0
Vcyi803g
p1
I1
sVczemn55
p2
I1
s.(dp0
Vcyi803g
p1
I1
sVczescx9
p2
I1
s.(dp0
Vcyi803g
p1
I1
sVczevzda
p2
I1
s.(dp0
Vcyi803g
p1
I1
sVczewwas
p2
I1
s.(dp0
Vcyi803g
p1
I1
sVczewwas
p2
I1
s.(dp0
Vcyi803g
p1
I1
sVczewwas
p2
I1
s.(dp0
Vcyi803g
p1
I1
sVczewwas
p2
I1
s.(dp0
Vcyi803g
p1
I1
sVczewwas
p2
I1
s.(dp0
Vcyi803g
p1
I1
sVczeyo93
p2
I1
s.(dp0
Vcyi803g
p1
I1
sVczeyo93
p2
I1
s.(dp0
Vcyi803g
p1
I1
sVczeyo93
p2
I1
s.(dp0
Vcyi803g
p1
I1
sVczeyo93
p2
I1
s.(dp0
Vcyi803g
p1
I1
sVczeyo93
p2
I1
s.(dp0
Vcyi803g
p1
I1
sVczeyo93
p2
I1
s.(dp0
Vcyi803g
p1
I1
sVczeyo93
p2
I1
s.(dp0
Vcyi803g
p1
I1
sVczfqg9w
p2
I1
s.(dp0
Vcyi803g
p1
I1
sVczgdxlc
p2
I1
s.(dp0
Vcyi803g
p1
I1
sVczi9gxo
p2
I1
s.(dp0
Vcyi803g
p1
I1
sVczi9gxo
p2
I1
s.(dp0
Vcyi803g
p1
I1
sVczi9gxo
p2
I1
s.(dp0
Vcyi803g
p1
I1
sVczi9gxo
p2
I1
s.(dp0
Vcyi803g
p1
I1
sVczi9gxo
p2
I1
s.(dp0
Vcyi803g
p1
I1
sVczjp8fc
p2
I1
s.(dp0
Vcyi803g
p1
I1
sVczjyp3a
p2
I1
s.(dp0
Vcyi803g
p1
I1
sVczjyp3a
p2
I1
s.(dp0
Vcyi803g
p1
I1
sVczjyp3a
p2
I1
s.(dp0
Vcyi803g
p1
I1
sVczkb1np
p2
I1
s.(dp0
Vcyi803g
p1
I1
sVczm23gm
p2
I1
s.(dp0
Vcyi803g
p1
I1
sVczm23gm
p2
I1
s.(dp0
Vcyi803g
p1
I1
sVczm23gm
p2
I1
s.(dp0
Vcyi803g
p1
I1
sVczm23gm
p2
I1
s.(dp0
Vcyi803g
p1
I1
sVczn06xn
p2
I1
s.(dp0
Vcyi803g
p1
I1
sVcznael6
p2
I1
s.(dp0
Vcyi803g
p1
I1
sVcznelah
p2
I1
s.(dp0
Vcyi803g
p1
I1
sVczptt0e
p2
I1
s.(dp0
Vcyi803g
p1
I1
sVczqix0j
p2
I1
s.(dp0
Vcyi803g
p1
I1
sVczr0te7
p2
I1
s.(dp0
Vcyi803g
p1
I1
sVczrd8g7
p2
I1
s.(dp0
Vcyi803g
p1
I1
sVczs20uh
p2
I1
s.(dp0
Vcyi803g
p1
I1
sVcztanq6
p2
I1
s.(dp0
Vcyi803g
p1
I1
sVczw25vf
p2
I1
s.(dp0
Vcyi803g
p1
I1
sVczw2lav
p2
I1
s.(dp0
Vcyi803g
p1
I1
sVczwu0dd
p2
I1
s.(dp0
Vcyi803g
p1
I1
sVczx358c
p2
I1
s.(dp0
Vcyi803g
p1
I1
sVczx358c
p2
I1
s.(dp0
Vcyi803g
p1
I1
sVczxt4nc
p2
I1
s.(dp0
Vcyi803g
p1
I1
sVczxyhm8
p2
I1
s.(dp0
Vcy(dp0
Vcyi803g
p1
I1
sVdthkujv
p2
I1
s.