(dp0
Vdmxek8p
p1
I1
sVd9zi1ln
p2
I1
sVd1qb2c8
p3
I1
sVdkwl41x
p4
I1
sVddiym7x
p5
I1
sVdf0miwv
p6
I1
sVd0usa7d
p7
I1
sVd40xmt2
p8
I2
sVdt0w4l3
p9
I1
sVdp1xmdd
p10
I1
sVdapm075
p11
I1
sVd7o6gho
p12
I2
sVd03xeql
p13
I1
sVdfqmclx
p14
I5
sVd9a2e5x
p15
I1
sVdfjte43
p16
I1
sVd2hufkt
p17
I1
sVd4sj4lc
p18
I1
sVdknsjoi
p19
I1
sVd5c9iem
p20
I2
sVda5hftz
p21
I1
sVdpeze1y
p22
I1
sVda0mb5v
p23
I1
sVdg374up
p24
I1
sVd8450wx
p25
I1
sVdd3b6fi
p26
I1
sVd7tqs8l
p27
I1
sVdpjaqa5
p28
I3
sVd1dorgp
p29
I1
sVcz95blo
p30
I1
sVd4wln8p
p31
I1
sVcyu45b3
p32
I1
sVdhedgxp
p33
I1
sVd4fmm42
p34
I2
sVdbesuuk
p35
I1
sVda37ahu
p36
I1
sVdr404h8
p37
I1
sVd0gh2on
p38
I1
sVd4resbi
p39
I1
sVd7e8ffx
p40
I1
sVd3fv55a
p41
I1
sVd2ncslw
p42
I1
sVd2n3se9
p43
I2
sVd4wxvkn
p44
I1
sVcyibubi
p45
I1
sVd8vbtm9
p46
I1
sVd39yzxa
p47
I1
sVd4ijm32
p48
I1
sVdb85do5
p49
I1
sVczi8uz2
p50
I1
sVdduaekl
p51
I2
sVdrlkcst
p52
I1
sVd1p4ge9
p53
I3
sVd0ajvsq
p54
I2
sVd3n7g2w
p55
I1
sVd3tuc6u
p56
I2
sVdsfghzq
p57
I1
sVd9l3cko
p58
I3
sVcyrm9l4
p59
I1
sVd039n87
p60
I1
sVdn6fk27
p61
I1
sVdojn28d
p62
I1
sVdnu7nbh
p63
I1
sVdghxp7t
p64
I1
sVdjfzxda
p65
I1
sVd5hgnd1
p66
I1
sVd8fmlt9
p67
I1
sVdsfk065
p68
I1
sVdmp46hj
p69
I1
sVd0v1k8v
p70
I1
sVd5bfmha
p71
I3
sVd4fjcxm
p72
I1
sVd1ob784
p73
I1
sVds0d7jh
p74
I1
sVdfi1hx7
p75
I1
sVde93tn8
p76
I1
sVcz99ste
p77
I1
sVdct7y5f
p78
I2
sVd4ao41c
p79
I1
sVdh59fm0
p80
I1
sVdj6x0tq
p81
I1
sVczwao65
p82
I1
sVdkx5el5
p83
I1
sVd41gmw0
p84
I1
sVd0kzcc0
p85
I1
sVd9cau6e
p86
I1
sVd5mavrf
p87
I1
sVd036iha
p88
I1
sVdc13mtz
p89
I1
sVd6dac44
p90
I5
sVd6w5es7
p91
I1
sVdehm85i
p92
I2
sVdftfn5t
p93
I1
sVd6p1e94
p94
I1
sVd6lm4vl
p95
I1
sVdf76sxy
p96
I1
sVczn6q9s
p97
I1
sVdi6jtzb
p98
I1
sVd10fl2a
p99
I1
sVdizx3my
p100
I2
sVdc4l31v
p101
I1
sVd9ffyus
p102
I2
sVdj8kg1r
p103
I1
sVd9blauh
p104
I1
sVd23adhf
p105
I1
sVdgq9jb2
p106
I1
sVdfxpk6d
p107
I1
sVddjffyg
p108
I1
sVcynzmq2
p109
I2
sVd1ppbek
p110
I2
sVd1r6qqd
p111
I2
sVddt3zby
p112
I1
sVdfsd6dh
p113
I1
sVdgzecvc
p114
I1
sVd6arz5m
p115
I1
sVd0vu43v
p116
I1
sVdi3d95i
p117
I1
sVdezdhwm
p118
I1
sVdbpwgi2
p119
I1
sVd3oviws
p120
I1
sVdrc0es9
p121
I1
sVdicntyz
p122
I1
sVdj3j13k
p123
I1
sVdj9jnnc
p124
I2
sVdgrksmq
p125
I2
sVdrd7iym
p126
I1
sVdi85w6v
p127
I1
sVdkv3x2j
p128
I1
sVdokg54d
p129
I1
sVde0hql6
p130
I1
sVd4hobg1
p131
I1
sVdpucbds
p132
I1
sVcz7bace
p133
I1
sVdeoh66c
p134
I1
sVdiioham
p135
I1
sVdmpr0ed
p136
I1
sVd8ylva7
p137
I1
sVd9ye4ca
p138
I1
sVdhlmosc
p139
I1
sVdtj0taf
p140
I1
sVdiipbuq
p141
I1
sVdqu1ene
p142
I1
sVd22u7pn
p143
I1
sVdn5fgqn
p144
I1
sVdn8qvyp
p145
I1
sVdkjy490
p146
I1
sVd2bgwoa
p147
I3
sVdauxtsp
p148
I1
sVdk21dhz
p149
I2
sVdrxgsgr
p150
I1
sVdgf6lx7
p151
I1
sVdfi7wxn
p152
I1
sVdcijpvv
p153
I1
sVd2vuljj
p154
I2
sVd6jxco8
p155
I1
sVd6qud4p
p156
I1
sVdrg81mm
p157
I1
sVdjvvcdh
p158
I1
sVdqgcpix
p159
I2
sVd7x41hx
p160
I1
sVdbz501w
p161
I4
sVd7haw66
p162
I3
sVczzwory
p163
I1
sVd55reys
p164
I1
sVdfeseaz
p165
I2
sVdf1xenw
p166
I1
sVdn6ezm9
p167
I1
sVd1pl9ca
p168
I1
sVdhlejsn
p169
I1
sVdrjejk6
p170
I1
sVdf5fodw
p171
I1
sVdkn2wpu
p172
I1
sVdjy183q
p173
I1
sVd9k11ka
p174
I2
sVde9dt3w
p175
I1
sVdepxcmx
p176
I1
sVdmo25u6
p177
I1
sVd4vsx4x
p178
I1
sVd4ab21b
p179
I1
sVd2ts83i
p180
I2
sVd4vbeh8
p181
I1
sVdg2b6nc
p182
I1
sVdn50o5y
p183
I1
sVdjopx7o
p184
I1
sVd04oq7j
p185
I1
sVdkehtvm
p186
I1
sVd4l1mb2
p187
I1
sVcztdyq6
p188
I5
sVdf4fxp0
p189
I1
sVdbqu1sp
p190
I1
sVdgmwc7p
p191
I1
sVdep7o5o
p192
I1
sVd1lidvr
p193
I1
sVddyztws
p194
I1
sVd2xck2p
p195
I1
sVdbnr2hy
p196
I2
sVds6a56n
p197
I1
sVddst68x
p198
I3
sVdqystml
p199
I1
sVdjb32ge
p200
I1
sVd9d0m93
p201
I1
sVdb8bomg
p202
I1
sVczd2okg
p203
I1
sVd1uej51
p204
I1
sVdbbocaz
p205
I1
sVdja8rzy
p206
I1
sVd9baesr
p207
I1
sVdcq5ln4
p208
I1
sVdbay0fj
p209
I1
sVdjmw2mp
p210
I1
sVd9eznjf
p211
I1
sVcylhi56
p212
I1
sVd7wrbi0
p213
I1
sVdpy32r4
p214
I1
sVd2b2zgj
p215
I1
sVdt0vzhe
p216
I1
sVdh8jrgg
p217
I3
sVdft3m3e
p218
I1
sVdbyhxtj
p219
I1
sVdsnip5k
p220
I1
sVdh6whrc
p221
I1
sVd3hbaov
p222
I1
sVd4wsxkk
p223
I2
sVd2vxhiv
p224
I2
sVddfso48
p225
I1
sVd7tt4p6
p226
I1
sVdmngycm
p227
I1
sVd047l7v
p228
I1
sVddt6maa
p229
I1
sVdbjg8zs
p230
I1
sVdsb9y3o
p231
I1
sVd1ypn0z
p232
I1
sVd13akbe
p233
I1
sVcz9l9as
p234
I2
sVd0ii7sl
p235
I1
sVdfe37lx
p236
I3
sVcz18ltr
p237
I2
sVdfsutur
p238
I1
sVd7vxopm
p239
I1
sVd9bn6o3
p240
I1
sVdnpqk7e
p241
I1
sVdkfv4l9
p242
I1
sVcynsjwf
p243
I1
sVdg0z38v
p244
I1
sVczozf6a
p245
I1
sVd1bp62x
p246
I4
sVddc5o1f
p247
I1
sVd4d6pqr
p248
I2
sVd0iegjf
p249
I2
sVdjecl9p
p250
I1
sVd1cfxcm
p251
I2
sVczh14vm
p252
I1
sVdi9zivv
p253
I2
sVcyvwx63
p254
I1
sVczhdz6s
p255
I1
sVd9171bl
p256
I1
sVdap13vl
p257
I1
sVda0sf88
p258
I1
sVd8whscs
p259
I2
sVd1ddwek
p260
I1
sVdck2jfj
p261
I1
sVd4rnpl9
p262
I1
sVcz18k22
p263
I2
sVdbn05a9
p264
I1
sVdao9f53
p265
I1
sVdf7i1u8
p266
I2
sVd1fk6ox
p267
I1
sVdqzkuru
p268
I3
sVd0pulqc
p269
I1
sVdn1gkt6
p270
I2
sVd36qdhi
p271
I1
sVd1yx022
p272
I2
sVczsfo8v
p273
I1
sVdizwm37
p274
I2
sVd1cs7ju
p275
I1
sVdqyof19
p276
I1
sVddn9w9d
p277
I2
sVdd69cqq
p278
I1
sVczdnjt6
p279
I2
sVd7l5hi8
p280
I1
sVd31ltcs
p281
I1
sVd4wohk8
p282
I2
sVd1snu5s
p283
I1
sVdpga7no
p284
I1
sVd8swqjt
p285
I1
sVdjkf4fc
p286
I2
sVdrjvamz
p287
I1
sVdgylut8
p288
I1
sVdhv1488
p289
I2
sVd0fogjg
p290
I1
sVdeof4ib
p291
I1
sVdgaemxk
p292
I1
sVcykhl43
p293
I1
sVcymw92u
p294
I1
sVd14ofu3
p295
I1
sVd4jma4z
p296
I2
sVdh3dop1
p297
I1
sVdeabcg6
p298
I1
sVd9cpzle
p299
I1
sVdg90fmy
p300
I1
sVda0ozy6
p301
I1
sVd0uorq1
p302
I1
sVd7oq6n6
p303
I1
sVczed5jy
p304
I1
sVd1i2orq
p305
I1
sVdp7p1ju
p306
I1
sVd1zgl0x
p307
I2
sVczarqjn
p308
I1
sVd1yrru9
p309
I1
sVdr0dxi7
p310
I1
sVd11xwhl
p311
I1
sVd82duzd
p312
I1
sVdn6j0cv
p313
I1
sVdk85hvx
p314
I1
sVdpqvtjf
p315
I1
sVdaft30t
p316
I1
sVdkwjim1
p317
I1
sVddwymax
p318
I1
sVdk2fucb
p319
I1
sVdi961p6
p320
I1
sVd2xlmt5
p321
I1
sVdp8mjq7
p322
I1
sVczl3xgf
p323
I1
sVd0cfi7y
p324
I1
sVcytzj8g
p325
I1
sVd7mpc7l
p326
I1
sVdho3nts
p327
I3
sVcz9g82t
p328
I1
sVd30jn04
p329
I1
sVdnmldzj
p330
I1
sVdc8ct3f
p331
I1
sVdfp7omw
p332
I1
sVdftg0qe
p333
I1
sVdiedhuz
p334
I1
sVdc90rv6
p335
I1
sVcynoh9q
p336
I1
sVddzuhuf
p337
I1
sVdodk3yk
p338
I1
sVdczr6zw
p339
I1
sVdnrvkva
p340
I1
sVde9gqnf
p341
I1
sVd23uls6
p342
I1
sVcyx9elg
p343
I1
sVd0uoiqd
p344
I1
sVdccd4uo
p345
I1
sVd7l4kgl
p346
I1
sVd1anh89
p347
I1
sVdqfal5y
p348
I1
sVd9i003w
p349
I1
sVd51jovm
p350
I1
sVd7yh74d
p351
I1
sVdtinth5
p352
I1
sVdbyuamb
p353
I1
sVcyjvidq
p354
I1
sVd43mwys
p355
I1
sVdcql1t2
p356
I1
sVd38fk4b
p357
I1
sVd2x0qqt
p358
I3
sVdqoy3df
p359
I1
sVdf932no
p360
I1
sVd0p8vd3
p361
I1
sVd5y5nim
p362
I1
sVdf8vzeq
p363
I1
sVdr3nf98
p364
I1
sVd1rrztr
p365
I1
sVda2cog0
p366
I1
sVde3thlf
p367
I2
sVd6av42q
p368
I1
sVdmuo92y
p369
I1
sVcz954xc
p370
I2
sVdgdnbaq
p371
I1
sVdkafyes
p372
I1
sVd8gxseh
p373
I5
sVdihqygq
p374
I1
sVd4gd40r
p375
I1
sVdg81lif
p376
I1
sVdjy7lc1
p377
I1
sVd49rhya
p378
I1
sVdpvav38
p379
I1
sVd9bpgmc
p380
I1
sVd2plglb
p381
I1
sVdpuryps
p382
I2
sVdahojo9
p383
I1
sVd7mix1s
p384
I1
sVd76v6ov
p385
I1
sVdbhnixl
p386
I1
sVdgpxi2v
p387
I2
sVd15wfkj
p388
I1
sVdafd6ix
p389
I1
sVdg88crp
p390
I1
sVdaaxn2m
p391
I1
sVd315n4c
p392
I1
sVd2pgbyy
p393
I1
sVdrakaz7
p394
I1
sVdoe7kj1
p395
I1
sVdbb565r
p396
I1
sVda0r97b
p397
I1
sVdg8xkaq
p398
I1
sVczzuilb
p399
I1
sVdejiwjq
p400
I1
sVdbm8oll
p401
I1
sVczhhhd2
p402
I1
sVd4gc8ha
p403
I1
sVdckhczq
p404
I1
sVczeyrm2
p405
I1
sVdb1onfg
p406
I1
sVczw2sra
p407
I1
sVdkc23gz
p408
I1
sVd5gpq1d
p409
I2
sVdf3als9
p410
I1
sVdcinj14
p411
I1
sVcz1zhyl
p412
I1
sVd1aktr4
p413
I2
sVdg08ad3
p414
I1
sVda9nr9x
p415
I1
sVd6b0usv
p416
I1
sVdqw31kq
p417
I1
sVd5srk4e
p418
I2
sVd8mnrm6
p419
I1
sVdsprqla
p420
I1
sVczzw187
p421
I4
sVdgona3f
p422
I1
sVddeoy0f
p423
I1
sVd8rku7r
p424
I1
sVdam2ggc
p425
I1
sVd1snzfc
p426
I1
sVddi7aj5
p427
I1
sVdhhxvxc
p428
I1
sVd1wff8r
p429
I1
sVd7175ex
p430
I1
sVdg4mx3n
p431
I1
sVdeounhf
p432
I1
sVd1iualv
p433
I2
sVdq1oriy
p434
I1
sVdafvhae
p435
I1
sVdhqmqkr
p436
I1
sVd3uuivh
p437
I1
sVd8xsz1h
p438
I1
sVd16q0ly
p439
I1
sVd5xcj73
p440
I2
sVd7ena1p
p441
I4
sVdmsa8xb
p442
I1
sVdb4wmuv
p443
I1
sVdceiias
p444
I1
sVd9p0bac
p445
I1
sVd9anqe1
p446
I1
sVd8c8xtv
p447
I1
sVd9v1pcg
p448
I1
sVdfhkldb
p449
I2
sVdkb79s0
p450
I1
sVczqtea5
p451
I1
sVd9zm4ow
p452
I3
sVd7azsme
p453
I1
sVd9t0fms
p454
I1
sVd39nvn8
p455
I1
sVdpoyv45
p456
I1
sVdj4h5zl
p457
I1
sVd4i3iu6
p458
I1
sVd3popzn
p459
I2
sVd4fbzdw
p460
I1
sVdcp6tr5
p461
I1
sVdc5q6qn
p462
I2
sVdgez61z
p463
I1
sVdsqb8lv
p464
I1
sVd5bgcm5
p465
I1
sVd6403hv
p466
I1
sVdkdfzy6
p467
I2
sVdnc1bel
p468
I1
sVd3u2uvr
p469
I1
sVda0l7hr
p470
I2
sVde54ro1
p471
I1
sVdhoenvh
p472
I2
sVdd72xyy
p473
I1
sVcysrkso
p474
I1
sVdaevpej
p475
I1
sVdnbopbz
p476
I1
sVd13v9m8
p477
I2
sVd46dms5
p478
I1
sVdt0hvxx
p479
I1
sVdjv1o02
p480
I1
sVdgmf7wj
p481
I2
sVdc7wafk
p482
I1
sVdbgrr20
p483
I1
sVdio15ms
p484
I1
sVcyjnhd1
p485
I1
sVdrckqsp
p486
I1
sVdjthqnz
p487
I1
sVdg172fa
p488
I1
sVda8j0zm
p489
I2
sVdob4d84
p490
I1
sVd6s6ayw
p491
I1
sVdgdn9s8
p492
I1
sVdru8rk0
p493
I1
sVd6kyhtl
p494
I2
sVdav7s4f
p495
I1
sVcyv1rcm
p496
I1
sVd4ur5j6
p497
I1
sVdjml9v3
p498
I3
sVd1z0lem
p499
I1
sVdhn0rr9
p500
I1
sVd75jnj5
p501
I1
sVd4fj16g
p502
I1
sVd66v2qe
p503
I1
sVd79iyp0
p504
I2
sVd2rit6j
p505
I1
sVd05v6xh
p506
I1
sVdhw0kjy
p507
I1
sVd9dk1t6
p508
I1
sVd62frz6
p509
I2
sVdp09w9q
p510
I1
sVcziylkz
p511
I1
sVdrbywmz
p512
I1
sVd99crl5
p513
I1
sVd6rl39x
p514
I1
sVdh55rg4
p515
I1
sVdmzs9fi
p516
I3
sVdigm0di
p517
I1
sVcz6rxl6
p518
I2
sVd1nvqv7
p519
I1
sVd6xjpa2
p520
I1
sVdh6eipw
p521
I1
sVdhe576m
p522
I1
sVdfw62jh
p523
I1
sVd69az0e
p524
I1
sVd2vr3fe
p525
I1
sVdfa20e2
p526
I1
sVczpaqir
p527
I1
sVdbd3fhf
p528
I1
sVdde52pn
p529
I3
sVdeyatik
p530
I1
sVd4f1v90
p531
I1
sVcyq5j4j
p532
I1
sVd93mc1u
p533
I1
sVdibq0ov
p534
I1
sVdb7e6je
p535
I1
sVd3wn5ze
p536
I1
sVd2wy04u
p537
I1
sVd8nhcfo
p538
I1
sVd80sff7
p539
I1
sVdbv51si
p540
I1
sVd0i2tqb
p541
I1
sVd63ytn7
p542
I1
sVd65jz6e
p543
I1
sVdkyulib
p544
I2
sVd13dje2
p545
I1
sVdhcss7s
p546
I1
sVdq83yk5
p547
I5
sVdss2l9d
p548
I1
sVdckk9ev
p549
I1
sVdqbydui
p550
I1
sVdj3kz25
p551
I1
sVd9cvpdl
p552
I4
sVczm1gw8
p553
I1
sVdbj58zq
p554
I1
sVdfx4z2y
p555
I1
sVcyl3bjl
p556
I1
sVdej0d81
p557
I2
sVd4y0749
p558
I1
sVdnkg1ci
p559
I1
sVd43dqiy
p560
I1
sVdb9aazx
p561
I1
sVdbdy6m8
p562
I1
sVdfytckg
p563
I1
sVd2kvjs6
p564
I2
sVdmna4ra
p565
I1
sVd2m4wie
p566
I1
sVdelc06y
p567
I2
sVczbll9p
p568
I1
sVdcjcdxm
p569
I1
sVda2kzp8
p570
I2
sVdn8uifg
p571
I1
sVd08940s
p572
I1
sVdefjoos
p573
I1
sVcyl3fpx
p574
I2
sVcziqhro
p575
I1
sVd80p7wv
p576
I1
sVd7t3hrm
p577
I2
sVds5m9jk
p578
I1
sVcys55td
p579
I1
sVde4y9z2
p580
I3
sVd8fqx6b
p581
I1
sVdqyh3ed
p582
I1
sVdcauo5u
p583
I1
sVd0gvmmr
p584
I1
sVczddaar
p585
I1
sVdn0wevv
p586
I2
sVdeeujwx
p587
I1
sVdk5hboa
p588
I1
sVcz36ymj
p589
I1
sVda668yz
p590
I1
sVd6q4qts
p591
I1
sVdhc20qn
p592
I1
sVd4a3hab
p593
I1
sVdbjthrv
p594
I1
sVdhs20p2
p595
I1
sVdfubar8
p596
I2
sVcyxwyxg
p597
I1
sVda34ijc
p598
I2
sVdcbgbgm
p599
I1
sVd0dy05l
p600
I1
sVd7psw0s
p601
I1
sVdn0w7w3
p602
I2
sVczubwsq
p603
I1
sVdhch3g8
p604
I1
sVczfxb9p
p605
I1
sVdf35k7x
p606
I1
sVd6qu7g9
p607
I1
sVdaygpib
p608
I1
sVdgoq9t7
p609
I1
sVd8micqp
p610
I1
sVdshz3b8
p611
I1
sVdctxr28
p612
I1
sVd3qwrxp
p613
I2
sVd2ml6if
p614
I1
sVdfhshbp
p615
I1
sVdcjuxzb
p616
I1
sVdg4duja
p617
I1
sVd4f9mhd
p618
I1
sVdrp274c
p619
I1
sVdf7vpb4
p620
I1
sVdg4cmh9
p621
I1
sVdf3oj5r
p622
I1
sVd5x1djo
p623
I1
sVdhb8xov
p624
I1
sVd1n9bnn
p625
I1
sVdjti6y2
p626
I1
sVd0ay0rq
p627
I2
sVdaszksc
p628
I1
sVdhrk3oq
p629
I1
sVdfql3ln
p630
I1
sVd3qtakn
p631
I1
sVd729f1u
p632
I1
sVd8f4kuh
p633
I1
sVd23fw43
p634
I1
sVdc0olmo
p635
I1
sVde53gpu
p636
I1
sVdd0vmjj
p637
I1
sVdb470h3
p638
I2
sVd2bg3mv
p639
I1
sVdg1levr
p640
I1
sVd3tffks
p641
I1
sVd61fd1m
p642
I1
sVczd23p4
p643
I1
sVdgifjfl
p644
I1
sVdjegnon
p645
I1
sVd0b2m25
p646
I1
sVdq4tgqb
p647
I1
sVdhmz010
p648
I1
sVdb9w9sb
p649
I1
sVd37sgbf
p650
I1
sVd6j3qfh
p651
I1
sVdiet1tg
p652
I1
sVd2j5sn9
p653
I1
sVdct9q82
p654
I1
sVd4h4uy6
p655
I1
sVdht00xl
p656
I1
sVdqgc2uy
p657
I2
sVdbpl4rn
p658
I1
sVdq713lv
p659
I2
sVdg2e03m
p660
I2
sVd6t5ir5
p661
I1
sVczw5ua3
p662
I1
sVdieh7du
p663
I1
sVdkfsx40
p664
I1
sVdixe8x0
p665
I1
sVdhnhwi4
p666
I1
sVdh5uo7g
p667
I1
sVd94si81
p668
I1
sVd98zm8o
p669
I2
sVda9zucx
p670
I1
sVdexead2
p671
I1
sVd1j84xe
p672
I2
sVd07fvlq
p673
I1
sVdfq3o2m
p674
I1
sVd7le4f7
p675
I1
sVdqegtqs
p676
I1
sVd4boqll
p677
I1
sVdak0hp9
p678
I1
sVd8vvmx3
p679
I1
sVd2i9qu1
p680
I1
sVd6quc1b
p681
I2
sVd6j3ai7
p682
I2
sVd013ylm
p683
I1
sVd7yx6hv
p684
I1
sVdi33270
p685
I1
sVd31o2r2
p686
I5
sVcyqnqha
p687
I2
sVdjenupe
p688
I2
sVd97ke9g
p689
I1
sVdab7tju
p690
I1
sVcz4t8ts
p691
I1
sVdgb4si2
p692
I1
sVd6q0ab6
p693
I1
sVdkr5yp2
p694
I1
sVddem9b7
p695
I1
sVdcd1i79
p696
I1
sVd46on3l
p697
I1
sVdk5lt1y
p698
I1
sVdr01k5k
p699
I2
sVdak3hxp
p700
I1
sVdj800h7
p701
I2
sVdo8xpu0
p702
I2
sVd3elc8f
p703
I1
sVd2he72y
p704
I1
sVd2nadlb
p705
I1
sVdk3w6nm
p706
I1
sVdo9h30t
p707
I1
sVdb7ekaa
p708
I1
sVd2y5ile
p709
I1
sVdo14mvj
p710
I1
sVd9y91de
p711
I1
sVd9znoog
p712
I1
sVdi2vmkf
p713
I1
sVdba5hpf
p714
I1
sVd7jghju
p715
I1
sVdg5onrm
p716
I3
sVde1ad8e
p717
I1
sVdaqfkkb
p718
I1
sVdg0ps4k
p719
I1
sVd8gjhyu
p720
I1
sVdhp6gf9
p721
I1
sVdorlsib
p722
I1
sVdb8o8pc
p723
I1
sVd9oyxls
p724
I1
sVd3eug4j
p725
I1
sVd4qb6as
p726
I1
sVdn1lzmd
p727
I2
sVd45qzhd
p728
I1
sVdajx6aq
p729
I1
sVdkerxyy
p730
I1
sVd1paid6
p731
I2
sVd99c5dd
p732
I1
sVdf3kxsy
p733
I1
sVdjth7nf
p734
I1
sVd22an94
p735
I1
sVd8i0fgf
p736
I1
sVd3ca5m1
p737
I1
sVcz9hpuy
p738
I1
sVdqxbpr6
p739
I1
sVczid3up
p740
I3
sVds3vhi1
p741
I1
sVd6ndz39
p742
I1
sVd01zu72
p743
I1
sVdctiasz
p744
I1
sVd1isukv
p745
I1
sVd7sf09a
p746
I1
sVdofo1ic
p747
I1
sVdhea3rl
p748
I1
sVdqbl7aj
p749
I1
sVdadzmp0
p750
I1
sVcyl8hqa
p751
I1
sVd8so3p5
p752
I1
sVdq1doat
p753
I1
sVdrsrnrw
p754
I1
sVd2knotj
p755
I1
sVd5f1exe
p756
I4
sVdaww6dz
p757
I1
sVdmwwigq
p758
I1
sVczvb9ci
p759
I2
sVd8zkdej
p760
I1
sVdi9gxlj
p761
I1
sVdioeflh
p762
I2
sVd1s6zyi
p763
I1
sVd63cwni
p764
I1
sVd6fzgq4
p765
I1
sVdkk2i9x
p766
I2
sVd197mp7
p767
I1
sVdkx8qho
p768
I1
sVdcy6inh
p769
I1
sVda0vrjk
p770
I4
sVdbshxte
p771
I1
sVdjwgd00
p772
I1
sVdmswsx8
p773
I1
sVd2mqma2
p774
I1
sVdo78dkf
p775
I1
sVczfniwu
p776
I1
sVdb8f5nn
p777
I1
sVcznqlrm
p778
I2
sVd5do61f
p779
I1
sVdh1i792
p780
I2
sVdc7tfnu
p781
I1
sVdgpg7lq
p782
I1
sVd7e1bb5
p783
I1
sVdoq2b9n
p784
I1
sVd07e0v9
p785
I1
sVdg5u9a3
p786
I1
sVczw6dd8
p787
I1
sVdj6w9py
p788
I1
sVd0uy8th
p789
I1
sVdeldenf
p790
I1
sVd0aeuem
p791
I1
sVd7f78pq
p792
I1
sVd4fui5b
p793
I1
sVd906bzm
p794
I2
sVd9cgxsp
p795
I2
sVdebqeuw
p796
I1
sVd10o9tz
p797
I2
sVdi7rhbd
p798
I1
sVcyneiyi
p799
I2
sVd0irg0v
p800
I1
sVdfstc0w
p801
I1
sVdspv3hr
p802
I1
sVdtfhsp7
p803
I1
sVd9l6u1d
p804
I3
sVd65i567
p805
I4
sVdfgjrxz
p806
I1
sVdaqi66y
p807
I3
sVd1fnirv
p808
I1
sVd152ol2
p809
I1
sVd53ptdz
p810
I1
sVd1dguf7
p811
I1
sVdjzo6ow
p812
I1
sVdr0lz1o
p813
I1
sVdbs23m0
p814
I1
sVd9r58zk
p815
I1
sVdc1i45l
p816
I1
sVdncuejn
p817
I1
sVd6nk8yx
p818
I4
sVdhyzm3k
p819
I1
sVcz8noa9
p820
I1
sVczeesx2
p821
I1
sVd9boze8
p822
I1
sVddx92x7
p823
I1
sVd086bjo
p824
I3
sVden19yj
p825
I5
sVdh8t9jo
p826
I1
sVdooh650
p827
I1
sVdgi402n
p828
I2
sVdtjj8zi
p829
I2
sVd8rrsl9
p830
I1
sVdd2obe5
p831
I4
sVdcti5x1
p832
I1
sVcyjiwjt
p833
I1
sVdd1zzhp
p834
I1
sVd4ojwph
p835
I3
sVd31cotn
p836
I1
sVd1t7u22
p837
I1
sVdcv3cps
p838
I1
sVd0tjo6c
p839
I1
sVdcxgpe1
p840
I2
sVdi7bpjt
p841
I1
sVd0izza2
p842
I1
sVdb8bxow
p843
I4
sVd6ai123
p844
I1
sVdf8ss18
p845
I2
sVdgdcjnu
p846
I1
sVdf5wnuk
p847
I1
sVdnlt7q9
p848
I1
sVdkb7wnf
p849
I1
sVd5bt2n1
p850
I1
sVd3tnur3
p851
I1
sVddhvya6
p852
I1
sVd3fuasf
p853
I1
sVdccc1o4
p854
I1
sVdbq7tse
p855
I2
sVdjmmxah
p856
I1
sVdju8nms
p857
I1
sVd80r3m7
p858
I1
sVdmibbwu
p859
I1
sVd5p1w6q
p860
I3
sVdimapc1
p861
I1
sVd3581zo
p862
I1
sVdbnaw3y
p863
I1
sVd34phgh
p864
I1
sVczmgzfh
p865
I3
sVdplgdo9
p866
I1
sVdfjm8no
p867
I1
sVded9osb
p868
I1
sVdg5w068
p869
I1
sVd5bcoji
p870
I1
sVd0wd9od
p871
I1
sVdhaej8f
p872
I1
sVdbnsxtp
p873
I1
sVd646r79
p874
I1
sVdh3mgei
p875
I2
sVdiwg74f
p876
I1
sVd72a7pa
p877
I1
sVdjj80v0
p878
I1
sVdd7h369
p879
I1
sVdrjpty4
p880
I1
sVdcnbetc
p881
I1
sVd1xocc8
p882
I1
sVd4snapv
p883
I1
sVdgdyd2d
p884
I1
sVdsv97df
p885
I1
sVdmf51m9
p886
I1
sVd1oqc3v
p887
I1
sVd1f0lm3
p888
I1
sVdsva9kt
p889
I2
sVdmeqdfq
p890
I1
sVdrmmmz1
p891
I1
sVd37lpks
p892
I2
sVdkxcbph
p893
I1
sVdhw6xt8
p894
I1
sVczruyaa
p895
I1
sVdmhx9ar
p896
I2
sVdq5b4vh
p897
I1
sVdbtlsyn
p898
I2
sVd3rjkkh
p899
I1
sVd7hr9k0
p900
I1
sVdsqnnho
p901
I1
sVd3z9dyg
p902
I1
sVd733d3s
p903
I1
sVd3t0826
p904
I1
sVd3vg3dm
p905
I1
sVdpyibp9
p906
I1
sVdg5f3wa
p907
I1
sVdabwkge
p908
I1
sVdfong2h
p909
I1
sVd5oq2ol
p910
I1
sVd7r97bp
p911
I1
sVd5d9ksj
p912
I1
sVczxi7jf
p913
I1
sVdaaq9t8
p914
I1
sVd3k8peo
p915
I1
sVd7emkky
p916
I1
sVd6tk7l5
p917
I2
sVd0c4j7s
p918
I1
sVd0s7psw
p919
I1
sVcyxcrcx
p920
I1
sVd7enb46
p921
I1
sVd7s6n2t
p922
I1
sVdg4njsa
p923
I1
sVddhgkz8
p924
I1
sVdid77m4
p925
I1
sVdj1jiaf
p926
I1
sVd8o79zd
p927
I1
sVd6kctw9
p928
I1
sVd6p9np9
p929
I1
sVd0lkg8d
p930
I1
sVczeyo93
p931
I1
sVd82pmnk
p932
I2
sVdggbrfx
p933
I1
sVdcxbrbc
p934
I1
sVdifyr6q
p935
I1
sVd8f47b0
p936
I4
sVczw9686
p937
I2
sVcz07tfq
p938
I1
sVd0fh90b
p939
I2
sVd4otlef
p940
I2
sVd1sl1l5
p941
I1
sVd13rmqd
p942
I1
sVdoiag1p
p943
I1
sVdasg63t
p944
I1
sVd0rwzqo
p945
I1
sVdquytyi
p946
I1
sVdbkpgfa
p947
I1
sVcz4dk06
p948
I2
sVdkxf2zd
p949
I2
sVdq6b3bh
p950
I1
sVcz2lh0j
p951
I1
sVdtazicm
p952
I1
sVdacldij
p953
I1
sVd7c7zqm
p954
I3
sVdc4lij5
p955
I1
sVd3kny6i
p956
I1
sVdflp63t
p957
I2
sVdirgl3b
p958
I1
sVdi3j63p
p959
I1
sVd5gt8ki
p960
I1
sVdpsov9n
p961
I1
sVdjhg8r9
p962
I1
sVczrc1th
p963
I1
sVde0016j
p964
I1
sVdmf3kv8
p965
I1
sVdagas6q
p966
I1
sVd04zj33
p967
I1
sVdjfqzna
p968
I1
sVd2q7rgq
p969
I1
sVd7v9pkw
p970
I1
sVdqkasgx
p971
I2
sVcypqh27
p972
I2
sVd7t1elq
p973
I1
sVds17t8j
p974
I1
sVdjo2rdw
p975
I1
sVcz4u0hg
p976
I1
sVdgo4adv
p977
I1
sVcymptia
p978
I3
sVcziwlje
p979
I1
sVdhtf8kr
p980
I2
sVdt0izhb
p981
I1
sVd4104lz
p982
I1
sVdsre5li
p983
I1
sVd2kwu2i
p984
I1
sVdbyojmt
p985
I1
sVd3kxa1b
p986
I1
sVdiept3k
p987
I1
sVd7t4m9y
p988
I1
sVdcw0h0w
p989
I1
sVda7jndn
p990
I1
sVd5o0h5t
p991
I1
sVd967eda
p992
I1
sVd2ez10f
p993
I1
sVdkcbl0c
p994
I9
sVdraet47
p995
I1
sVd68pglf
p996
I1
sVd6t8prh
p997
I2
sVdasrutp
p998
I2
sVd6mhurx
p999
I1
sVdfsyc18
p1000
I1
sVd6rjha4
p1001
I1
sVdhpks6j
p1002
I1
sVdcmpozu
p1003
I1
sVczh610t
p1004
I1
sVd2dxvcp
p1005
I1
sVd7uwqv5
p1006
I1
sVd9cjjiu
p1007
I1
sVdhsnf26
p1008
I2
sVdmn7rjv
p1009
I2
sVd1h7kzi
p1010
I3
sVd4apzuh
p1011
I1
sVdnovzi9
p1012
I1
sVd3w5747
p1013
I1
sVd91xrfb
p1014
I1
sVdkgb7et
p1015
I1
sVcz05rs5
p1016
I1
sVdhmxppx
p1017
I1
sVdaoiag3
p1018
I1
sVdrv1c0b
p1019
I1
sVdftcn3a
p1020
I1
sVdc095kp
p1021
I1
sVdnmajq0
p1022
I1
sVd0gv30b
p1023
I1
sVdjlesni
p1024
I2
sVdc0yrd1
p1025
I1
sVdibson1
p1026
I1
sVd8vt7sf
p1027
I1
sVd2a4q5p
p1028
I1
sVdf1sgnq
p1029
I1
sVd5f1k99
p1030
I1
sVdmgv9mz
p1031
I1
sVd34cd7x
p1032
I1
sVd315iq2
p1033
I1
sVdeg1oh6
p1034
I1
sVcz1xyxt
p1035
I1
sVd99kd3q
p1036
I1
sVdiunz3y
p1037
I2
sVd6k39hv
p1038
I1
sVdsuv164
p1039
I1
sVdbjgdxn
p1040
I2
sVd1fuz85
p1041
I1
sVdh0k535
p1042
I1
sVdeyrf0k
p1043
I1
sVd48hntb
p1044
I1
sVds3j32x
p1045
I1
sVdmx1ok0
p1046
I1
sVd947nu9
p1047
I1
sVdn93gd8
p1048
I1
sVddzkbt6
p1049
I1
sVdj2heqt
p1050
I1
sVd1k75gw
p1051
I2
sVdeh01zd
p1052
I1
sVdk79bv5
p1053
I1
sVdb3ondu
p1054
I1
sVdibi8wy
p1055
I2
sVdfwzc9n
p1056
I1
sVdt7p3eo
p1057
I1
sVd896yoi
p1058
I1
sVdj6wgxa
p1059
I1
sVdehwn30
p1060
I1
sVdgzlycp
p1061
I1
sVdkn814b
p1062
I3
sVdn5jdat
p1063
I1
sVdca4ig6
p1064
I2
sVd55m3x1
p1065
I1
sVdsj7rb3
p1066
I1
sVd49sicf
p1067
I1
sVd7xsirj
p1068
I1
sVdkzhntp
p1069
I1
sVdknjuv8
p1070
I1
sVdq8sp9u
p1071
I1
sVd8zyt0y
p1072
I1
sVczhjzcb
p1073
I3
sVdb9wb9m
p1074
I1
sVdkjt3dl
p1075
I1
sVddif6wc
p1076
I2
sVczqmx8h
p1077
I1
sVdafrg4l
p1078
I1
sVd1xv6l6
p1079
I2
sVdrok4uo
p1080
I1
sVdibpl5l
p1081
I1
sVd1ahd59
p1082
I1
sVd1pxruh
p1083
I1
sVdcpvks4
p1084
I2
sVcykglk2
p1085
I1
sVd90jgd8
p1086
I1
sVds9rtxk
p1087
I1
sVdrpr7kq
p1088
I1
sVczav3bh
p1089
I1
sVddo6blu
p1090
I1
sVdrs8zpg
p1091
I1
sVd8mhngn
p1092
I1
sVd5psfnp
p1093
I1
sVcyy2xf2
p1094
I1
sVcyy29jz
p1095
I2
sVd9v7zxz
p1096
I1
sVdmmwssz
p1097
I1
sVd80u5ou
p1098
I1
sVdesdfp3
p1099
I1
sVdrkrx2a
p1100
I1
sVddxvszl
p1101
I1
sVd2egkdq
p1102
I3
sVdctanuh
p1103
I1
sVd8pu17r
p1104
I1
sVd4gvfjb
p1105
I1
sVdc4qsdq
p1106
I1
sVdo4cuus
p1107
I1
sVdpdasur
p1108
I1
sVd83wvzz
p1109
I2
sVde7v43u
p1110
I1
sVdgc36v0
p1111
I1
sVd6tixnn
p1112
I3
sVd7vpcco
p1113
I2
sVd0y9i08
p1114
I1
sVdgpssi2
p1115
I1
sVd75lzvg
p1116
I1
sVdp1t48i
p1117
I1
sVdnftxcf
p1118
I2
sVdtgjt7u
p1119
I1
sVdpkevfe
p1120
I1
sVdd9xbut
p1121
I1
sVd9l9dov
p1122
I1
sVczvvvb8
p1123
I1
sVd1tvndw
p1124
I1
sVd4t4nrb
p1125
I3
sVd9wqd4l
p1126
I1
sVcynr7f1
p1127
I2
sVdbitwz2
p1128
I1
sVczw25vf
p1129
I1
sVdpd1cv4
p1130
I1
sVd1vkk7e
p1131
I7
sVd0r3em3
p1132
I1
sVd1vdbos
p1133
I1
sVdni6qks
p1134
I1
sVd1n477g
p1135
I1
sVdq8jeyc
p1136
I1
sVdezxxnx
p1137
I1
sVczelwdg
p1138
I1
sVd6tk4bn
p1139
I1
sVdej3d45
p1140
I1
sVd8k2pkd
p1141
I1
sVdhyr9bo
p1142
I1
sVdha9hog
p1143
I1
sVd5i08gl
p1144
I1
sVdoes1x9
p1145
I1
sVdfz1qp4
p1146
I1
sVd2pzh0e
p1147
I1
sVdj4df0d
p1148
I1
sVd2aetws
p1149
I1
sVdjg4f7z
p1150
I1
sVdny56eu
p1151
I2
sVdkx80u1
p1152
I3
sVdb7st46
p1153
I1
sVcz3s514
p1154
I1
sVdcwm14y
p1155
I1
sVd7yn6mv
p1156
I1
sVdpf3cwo
p1157
I2
sVdbv3t13
p1158
I3
sVdqzowzg
p1159
I1
sVdoiitc9
p1160
I1
sVdeu4r6x
p1161
I1
sVd55eyl8
p1162
I1
sVdg67nyv
p1163
I2
sVdc7vu6g
p1164
I1
sVdf0shrr
p1165
I1
sVdg92ysc
p1166
I2
sVd7lvgy3
p1167
I1
sVcz4mnr3
p1168
I1
sVdfi0b0k
p1169
I1
sVd4uy43f
p1170
I1
sVd1snp7e
p1171
I1
sVdq3kh12
p1172
I2
sVd59zf1o
p1173
I2
sVdjk658l
p1174
I1
sVded5kkd
p1175
I2
sVdfornoh
p1176
I1
sVd2v6iyt
p1177
I1
sVd3u3vah
p1178
I1
sVdk1dt87
p1179
I1
sVd1jw1jd
p1180
I2
sVdorl3yt
p1181
I1
sVdf8oxwd
p1182
I1
sVd1yoafr
p1183
I2
sVd4zogve
p1184
I1
sVd44zjxv
p1185
I1
sVd00yu4b
p1186
I1
sVdba3byh
p1187
I1
sVdjyv440
p1188
I2
sVczau3bi
p1189
I1
sVd2wo9nf
p1190
I2
sVdd1yc5c
p1191
I1
sVd0frx5q
p1192
I1
sVdi2i146
p1193
I1
sVdhe1qbs
p1194
I1
sVdrgaove
p1195
I2
sVdb608wd
p1196
I1
sVd4n1i06
p1197
I1
sVd10xym1
p1198
I1
sVd89jg1i
p1199
I1
sVcyo2ic6
p1200
I1
sVdeajm4a
p1201
I2
sVczvh04z
p1202
I1
sVd6umpf1
p1203
I1
sVd7eiifa
p1204
I1
sVd3r8722
p1205
I1
sVd8htheu
p1206
I2
sVd1pnlhi
p1207
I1
sVd926g5j
p1208
I1
sVdicmgfk
p1209
I1
sVdjnoxth
p1210
I2
sVd9a5sjr
p1211
I1
sVd9mzb43
p1212
I1
sVdse8374
p1213
I1
sVdc2vj2i
p1214
I1
sVdqduusj
p1215
I2
sVdc5lgmm
p1216
I1
sVdcn6njs
p1217
I2
sVd0d4j23
p1218
I1
sVdjdk2w6
p1219
I1
sVdfv2k5a
p1220
I1
sVdagcfxa
p1221
I1
sVdjazek1
p1222
I1
sVdh9v99d
p1223
I1
sVdg85xhe
p1224
I1
sVd0qmsmv
p1225
I1
sVdna86rh
p1226
I1
sVdhrbiaq
p1227
I1
sVdmsixnp
p1228
I1
sVczph8ax
p1229
I1
sVdruqqxa
p1230
I1
sVd6bwosq
p1231
I2
sVdguum1v
p1232
I1
sVczpuypu
p1233
I1
sVd1qud9s
p1234
I1
sVd62fslb
p1235
I2
sVd0um7a5
p1236
I1
sVdkiag2q
p1237
I1
sVdn8l7h0
p1238
I1
sVdox9wyx
p1239
I1
sVdi9zg4w
p1240
I2
sVczgo3g2
p1241
I1
sVd0440k5
p1242
I1
sVdfgo4lm
p1243
I1
sVd9l5yd3
p1244
I2
sVd9n3nzx
p1245
I2
sVd61tszv
p1246
I6
sVd1rhmnl
p1247
I1
sVd6xw6bs
p1248
I1
sVd0m9ub3
p1249
I1
sVczxrubw
p1250
I1
sVdbmelzn
p1251
I1
sVdjc1d83
p1252
I1
sVdop2e9f
p1253
I3
sVdkqlh3p
p1254
I2
sVd3drjpc
p1255
I1
sVdbmyfsf
p1256
I1
sVczicbcp
p1257
I1
sVczt05a6
p1258
I1
sVdorn0hi
p1259
I2
sVd9xwnrh
p1260
I1
sVd6h0rh5
p1261
I1
sVd1cjup7
p1262
I1
sVdj4s7yw
p1263
I1
sVd0mnnyz
p1264
I1
sVd1f3qqy
p1265
I1
sVdg947g4
p1266
I1
sVdg7c16x
p1267
I1
sVd3d1lmm
p1268
I1
sVd931qgc
p1269
I1
sVdnu85ty
p1270
I1
sVdhpfq6p
p1271
I1
sVczlxm50
p1272
I1
sVd8q7ec7
p1273
I1
sVdsfg2b6
p1274
I1
sVd6ypr8t
p1275
I2
sVdf0ci70
p1276
I1
sVd4hkknb
p1277
I1
sVd1h3gmo
p1278
I3
sVdscqvhy
p1279
I1
sVdnya1k5
p1280
I1
sVdgcf2xb
p1281
I1
sVdbm2iwu
p1282
I2
sVd8xuy8p
p1283
I1
sVd2pak4f
p1284
I1
sVdo8dsng
p1285
I1
sVdpb9w12
p1286
I1
sVd06zg5m
p1287
I1
sVdgihbda
p1288
I1
sVddi9t08
p1289
I2
sVdamekbz
p1290
I1
sVde2v0dn
p1291
I1
sVd3y6iga
p1292
I1
sVd6hb6na
p1293
I1
sVdn2r3g6
p1294
I1
sVd7busvi
p1295
I1
sVdio7s0m
p1296
I1
sVdrvmyc6
p1297
I1
sVd53c3af
p1298
I1
sVdrwxhal
p1299
I1
sVd7iu9y7
p1300
I1
sVdgs7tgm
p1301
I1
sVd1vp4gj
p1302
I2
sVd2a9num
p1303
I3
sVczgzjrr
p1304
I1
sVdsqdudd
p1305
I1
sVdsx2ffi
p1306
I1
sVd3i6or1
p1307
I1
sVd8fj1eo
p1308
I1
sVd8bddr0
p1309
I1
sVd5bbf9n
p1310
I1
sVd08rcaz
p1311
I1
sVdj33v7u
p1312
I1
sVczurg9a
p1313
I1
sVd27br9h
p1314
I1
sVdpb8v2e
p1315
I1
sVdigt4mf
p1316
I1
sVd34y8l2
p1317
I1
sVdasiwka
p1318
I1
sVdbrvzba
p1319
I1
sVdheia2p
p1320
I1
sVd1k8u4o
p1321
I1
sVd20b4qo
p1322
I3
sVdgaxxk6
p1323
I1
sVdjg23i9
p1324
I1
sVdqo37i4
p1325
I2
sVdc8pcjb
p1326
I4
sVdcv0w9n
p1327
I1
sVd5ntwxe
p1328
I2
sVd6hxdn8
p1329
I1
sVdqy2rye
p1330
I1
sVd4iuef7
p1331
I1
sVd2vccwo
p1332
I1
sVdkpynnt
p1333
I1
sVd2o7cpj
p1334
I1
sVddvv7ap
p1335
I1
sVd1iq9k7
p1336
I1
sVd23s58f
p1337
I1
sVddys6ww
p1338
I1
sVd65bjb7
p1339
I1
sVd3hfdwe
p1340
I1
sVdhmyi38
p1341
I1
sVdfgyy33
p1342
I1
sVd0b562t
p1343
I1
sVd032r13
p1344
I1
sVd898wia
p1345
I2
sVdnyxygv
p1346
I1
sVdd2tme0
p1347
I1
sVdfoo1rt
p1348
I1
sVdag8po7
p1349
I1
sVdktdzqr
p1350
I1
sVdo2uo1c
p1351
I1
sVd6j19w3
p1352
I1
sVd1h69x9
p1353
I2
sVdt4if17
p1354
I1
sVd1gzyo1
p1355
I1
sVd9kp7im
p1356
I1
sVd05lfg6
p1357
I1
sVczv8j50
p1358
I1
sVd521wcl
p1359
I1
sVcz7h8rh
p1360
I1
sVd3sde20
p1361
I1
sVdizkcxv
p1362
I1
sVd3j89nk
p1363
I1
sVd1385qz
p1364
I1
sVds3p5wr
p1365
I1
sVdcfjrrn
p1366
I1
sVd40x5fu
p1367
I1
sVd2fdu8t
p1368
I1
sVdao0odx
p1369
I1
sVczrzz06
p1370
I1
sVd2i3hr3
p1371
I2
sVdfacbou
p1372
I1
sVdsteb0c
p1373
I2
sVdef06h5
p1374
I3
sVdmxgj8r
p1375
I1
sVd828f1s
p1376
I3
sVd1dn950
p1377
I1
sVdpxfr8q
p1378
I1
sVcz0awhj
p1379
I4
sVd4xztep
p1380
I1
sVdgybjot
p1381
I1
sVdrap2sh
p1382
I1
sVd3cqboe
p1383
I1
sVd208r3h
p1384
I2
sVcyjyeds
p1385
I1
sVdkn7qsn
p1386
I1
sVcz6uph4
p1387
I1
sVdiu25b0
p1388
I1
sVddnot0f
p1389
I2
sVdsxi5l2
p1390
I1
sVd7gu4h7
p1391
I1
sVczewwas
p1392
I1
sVdi7fpf8
p1393
I1
sVdhjmwqc
p1394
I1
sVd1i2lha
p1395
I1
sVdan6lmc
p1396
I1
sVd7vyca9
p1397
I1
sVd46ojbv
p1398
I1
sVdebp9qu
p1399
I2
sVd9rj80l
p1400
I3
sVd2nt90s
p1401
I1
sVdclrehw
p1402
I1
sVd3tfi3n
p1403
I1
sVd1hpviz
p1404
I1
sVdcarnh6
p1405
I1
sVda9e57r
p1406
I1
sVcz4388b
p1407
I1
sVdea0rdi
p1408
I1
sVdawqm48
p1409
I1
sVdmwncd1
p1410
I1
sVddxv3ky
p1411
I1
sVdg92lvu
p1412
I1
sVdcaa5rw
p1413
I2
sVd28ywyx
p1414
I1
sVdc4ml7o
p1415
I1
sVd28f8ad
p1416
I1
sVdj4rzx8
p1417
I1
sVdblo4jn
p1418
I1
sVda72sfh
p1419
I1
sVd0d6q55
p1420
I1
sVd1fexke
p1421
I1
sVd8t8wo7
p1422
I1
sVdiekb7h
p1423
I4
sVd1qm7r2
p1424
I1
sVcz8m4nm
p1425
I1
sVd6vj74j
p1426
I1
sVd2tqzbl
p1427
I2
sVd8ezvhv
p1428
I1
sVdag07k8
p1429
I1
sVdo04voq
p1430
I1
sVdmxocqx
p1431
I1
sVdk3xzpd
p1432
I1
sVczyugk6
p1433
I2
sVczns0lc
p1434
I2
sVdcd0jxl
p1435
I2
sVd8z4lbl
p1436
I1
sVdfij468
p1437
I1
sVd75spyt
p1438
I1
sVd9600e2
p1439
I3
sVdo9du4f
p1440
I1
sVdq2o4v4
p1441
I2
sVd1bc84y
p1442
I1
sVd664e3u
p1443
I1
sVdjavdkt
p1444
I1
sVd16i4ry
p1445
I1
sVdo5t27x
p1446
I1
sVd303p7v
p1447
I1
sVdf1jfq2
p1448
I1
sVdd5qqf4
p1449
I1
sVdmf2b20
p1450
I1
sVdc1jxuk
p1451
I1
sVd5q77e4
p1452
I2
sVdjd3u7n
p1453
I1
sVd1smegv
p1454
I2
sVdg6eawc
p1455
I2
sVcyok4f9
p1456
I1
sVde3zo74
p1457
I1
sVddxogcm
p1458
I2
sVdk7msp5
p1459
I1
sVd8ezmyd
p1460
I1
sVd3343ua
p1461
I1
sVd10x7fh
p1462
I1
sVczj8njn
p1463
I1
sVdbsvzo0
p1464
I1
sVd3o2sr9
p1465
I1
sVdi3wiy1
p1466
I1
sVdkqcdf5
p1467
I1
sVd5kkbqi
p1468
I1
sVdfj8hs6
p1469
I2
sVd3lq3q4
p1470
I1
sVdn61ka2
p1471
I1
sVd4am9ga
p1472
I2
sVd7s43zp
p1473
I1
sVd3e2j36
p1474
I1
sVdble8yb
p1475
I1
sVd3i0rus
p1476
I3
sVdjopqzv
p1477
I1
sVdgjhdud
p1478
I1
sVd36i3a2
p1479
I1
sVd1s3q3f
p1480
I1
sVd3z6mga
p1481
I1
sVdd2nt30
p1482
I2
sVdabp036
p1483
I1
sVdkfv5d1
p1484
I1
sVdtczjxk
p1485
I2
sVdidrlg3
p1486
I1
sVdqfn6ej
p1487
I1
sVcznne7u
p1488
I1
sVd7h9tom
p1489
I1
sVd349mtp
p1490
I1
sVd673mnn
p1491
I1
sVdblc7r2
p1492
I1
sVde670b0
p1493
I1
sVddlhzvx
p1494
I2
sVczdvpfb
p1495
I1
sVdkpoo0s
p1496
I3
sVd61sljg
p1497
I1
sVdemajx8
p1498
I1
sVczexbif
p1499
I1
sVd3uf93j
p1500
I1
sVd245ng8
p1501
I1
sVdmpuwjv
p1502
I1
sVdewxfqx
p1503
I1
sVdp6g2u2
p1504
I1
sVdken791
p1505
I1
sVd9wt76g
p1506
I1
sVdrs61is
p1507
I2
sVdn62yb7
p1508
I1
sVdgayhnc
p1509
I1
sVdn6twyl
p1510
I1
sVd0vcwf9
p1511
I1
sVdst7u9j
p1512
I1
sVcyoqjvl
p1513
I1
sVczzz23t
p1514
I1
sVd6ns1i8
p1515
I1
sVdasitvl
p1516
I1
sVdi794fl
p1517
I1
sVd9h5hbj
p1518
I3
sVdoxy2d1
p1519
I1
sVdq8r0k6
p1520
I1
sVdia6xzb
p1521
I1
sVdauzyqt
p1522
I1
sVdca6jmh
p1523
I2
sVd8hm615
p1524
I1
sVd4vnfg0
p1525
I1
sVdnz57kl
p1526
I1
sVdrzozrr
p1527
I1
sVdp75ck8
p1528
I1
sVdie0xef
p1529
I2
sVd0koagx
p1530
I1
sVd9y7g1a
p1531
I1
sVdr0qwv1
p1532
I1
sVd99coov
p1533
I1
sVd0qtzu0
p1534
I2
sVdbaiprw
p1535
I2
sVdf1z8ck
p1536
I1
sVdefz6of
p1537
I1
sVdhwsveo
p1538
I2
sVcytd0ih
p1539
I1
sVdph41o9
p1540
I1
sVd2i0lao
p1541
I2
sVdgi66cu
p1542
I1
sVdbq6sx6
p1543
I1
sVd94x1h6
p1544
I1
sVdp8933n
p1545
I3
sVdoey0bt
p1546
I1
sVczx27qf
p1547
I1
sVdgdrag4
p1548
I1
sVd7o16og
p1549
I1
sVczb6tgt
p1550
I1
sVdkn6p8t
p1551
I1
sVdjon1tc
p1552
I1
sVd6jc8ad
p1553
I1
sVd8b1omv
p1554
I2
sVdkqnbcz
p1555
I1
sVdknsp1g
p1556
I1
sVdan5vqk
p1557
I1
sVddpxai3
p1558
I4
sVdcxg2un
p1559
I1
sVd365zk5
p1560
I1
sVdt3126g
p1561
I1
sVd2jufah
p1562
I1
sVdaodil5
p1563
I1
sVdj13xi1
p1564
I2
sVcytcqz6
p1565
I1
sVd39xmzy
p1566
I2
sVdteq37c
p1567
I1
sVdphgca8
p1568
I1
sVdn296d9
p1569
I1
sVdhpbwlh
p1570
I1
sVdck7151
p1571
I4
sVdci2h35
p1572
I3
sVddyhg3d
p1573
I1
sVdg4ac9u
p1574
I1
sVdjutddq
p1575
I1
sVd0axpnc
p1576
I1
sVdb6fa4v
p1577
I1
sVd766k51
p1578
I1
sVdfatdrv
p1579
I1
sVdf7zx5i
p1580
I1
sVdnlfuaf
p1581
I1
sVdk35gvz
p1582
I1
sVdj6xthf
p1583
I1
sVdo0yiq5
p1584
I1
sVd0il39e
p1585
I1
sVd2ibpru
p1586
I1
sVdejopwb
p1587
I3
sVddq0heg
p1588
I1
sVd48k8qb
p1589
I2
sVdgiwb76
p1590
I1
sVd8fzfh7
p1591
I1
sVd0xd316
p1592
I1
sVdmet2iv
p1593
I1
sVdijqyle
p1594
I1
sVdoezu0d
p1595
I1
sVcztc7ft
p1596
I1
sVd7ywehk
p1597
I1
sVdqkfyxt
p1598
I1
sVdst8y4s
p1599
I1
sVdrpwf43
p1600
I1
sVd32hz97
p1601
I1
sVdcaplv3
p1602
I1
sVd82ei89
p1603
I2
sVd8yzqef
p1604
I1
sVddc3l4v
p1605
I1
sVdp6rj1i
p1606
I1
sVd7vw8gn
p1607
I1
sVd958uue
p1608
I1
sVd3wj9gw
p1609
I1
sVd4zm3x7
p1610
I1
sVdc5rsre
p1611
I1
sVdnuyfod
p1612
I1
sVd3jtuhu
p1613
I1
sVdbxz8gv
p1614
I1
sVd0k6e85
p1615
I1
sVdhdej5w
p1616
I1
sVdkuj19l
p1617
I1
sVde3cy3f
p1618
I1
sVdd5wcdq
p1619
I1
sVdqbz128
p1620
I1
sVdfwwco9
p1621
I3
sVd6zaq69
p1622
I1
sVd7rfyhl
p1623
I2
sVdnmda7s
p1624
I1
sVd99gw2v
p1625
I2
sVdmyuf26
p1626
I2
sVdh5559m
p1627
I1
sVd678fie
p1628
I1
sVd2rgo4c
p1629
I2
sVcyy3ut7
p1630
I2
sVd31af20
p1631
I1
sVdjli0l1
p1632
I1
sVdgsd05l
p1633
I1
sVd1k72wu
p1634
I1
sVdbwe6gq
p1635
I1
sVddxafg6
p1636
I1
sVdk8jd2k
p1637
I2
sVdhs1lmk
p1638
I1
sVd0tethr
p1639
I2
sVdegcmm8
p1640
I1
sVd96d146
p1641
I2
sVd9cml4g
p1642
I1
sVcz2n1mj
p1643
I1
sVcyhzuz7
p1644
I2
sVcz9iakb
p1645
I1
sVd8eu3sn
p1646
I1
sVdob0l3s
p1647
I1
sVd0nqy29
p1648
I1
sVd0vzn8h
p1649
I1
sVdifyc95
p1650
I3
sVd7y4duj
p1651
I1
sVd77dyxo
p1652
I1
sVdcxg45q
p1653
I2
sVd3hvtyy
p1654
I1
sVdjkfjt9
p1655
I1
sVdtjg664
p1656
I1
sVdonyslp
p1657
I2
sVcyptk1l
p1658
I1
sVd1gcwlm
p1659
I1
sVdqy5yt6
p1660
I1
sVdhx7d6k
p1661
I1
sVdci3ix5
p1662
I3
sVday85zv
p1663
I1
sVd4ei0zn
p1664
I1
sVd6ppi7s
p1665
I3
sVdcn4bs0
p1666
I1
sVdenxpn3
p1667
I1
sVdaluiy0
p1668
I1
sVd7kbtsh
p1669
I3
sVdoi5p34
p1670
I1
sVd4sbi5g
p1671
I1
sVd2r1ctc
p1672
I1
sVd216xnd
p1673
I1
sVd0zez3q
p1674
I3
sVdn8wfhp
p1675
I1
sVd4myisf
p1676
I1
sVd5no41z
p1677
I1
sVde9rinu
p1678
I2
sVdbce8o8
p1679
I1
sVdmqa13a
p1680
I1
sVd32kvhz
p1681
I1
sVdaxqf2h
p1682
I1
sVdif5vup
p1683
I1
sVddutvlr
p1684
I1
sVdcidxbv
p1685
I2
sVd7qfbh4
p1686
I1
sVdj77izk
p1687
I1
sVcywchmq
p1688
I1
sVdh45jqo
p1689
I2
sVdhvhtok
p1690
I3
sVd3hpzvd
p1691
I1
sVdadc6me
p1692
I1
sVdeev8vb
p1693
I1
sVd4qsxua
p1694
I2
sVdc5mg23
p1695
I1
sVd7gjxtu
p1696
I1
sVdd05eoi
p1697
I1
sVdr1ba1j
p1698
I1
sVdrfdk50
p1699
I2
sVcz2zugy
p1700
I1
sVd18yds6
p1701
I3
sVd4v1dqf
p1702
I1
sVdjopai2
p1703
I2
sVdelaf8e
p1704
I1
sVczztmg4
p1705
I1
sVdaejoax
p1706
I1
sVdr7a04m
p1707
I1
sVdnqvzg3
p1708
I1
sVd8bwu4i
p1709
I1
sVdgls17a
p1710
I1
sVdcrgb7f
p1711
I3
sVd38etnj
p1712
I1
sVd2qao1s
p1713
I1
sVdj9kuyk
p1714
I1
sVdsbtp2x
p1715
I1
sVd23vvnv
p1716
I1
sVd8ecw3p
p1717
I1
sVd8vnffy
p1718
I1
sVdp6mqi7
p1719
I1
sVdk0y4ar
p1720
I3
sVczzuqp8
p1721
I1
sVdi9wmo9
p1722
I1
sVdc7wb2v
p1723
I1
sVdh8g4p4
p1724
I2
sVcypltic
p1725
I1
sVdk9t784
p1726
I1
sVd48mtpu
p1727
I1
sVdf0mh2r
p1728
I1
sVdtfbaqw
p1729
I1
sVd06k5vg
p1730
I1
sVdi80any
p1731
I1
sVd5jpnt1
p1732
I1
sVd8xke0j
p1733
I1
sVddaqrkk
p1734
I2
sVdp99htu
p1735
I2
sVddr0yxr
p1736
I1
sVd68h4yk
p1737
I3
sVd9jdwxc
p1738
I2
sVda4q7bw
p1739
I1
sVdhjwdtg
p1740
I1
sVddj0ok7
p1741
I1
sVded8erf
p1742
I1
sVd8kvrbh
p1743
I1
sVddzztry
p1744
I1
sVd33rsfo
p1745
I1
sVdh8gp4z
p1746
I1
sVddmgn6t
p1747
I1
sVd7qumow
p1748
I1
sVdexlexq
p1749
I1
sVd2r7bhn
p1750
I1
sVd6pdopa
p1751
I3
sVdktb6my
p1752
I1
sVd7jfl1l
p1753
I1
sVcyr70k7
p1754
I7
sVd2ehhjs
p1755
I1
sVdertbkn
p1756
I2
s.