(dp0
Vczccf37
p1
I1
sVd5emsu3
p2
I1
sVdb61ipc
p3
I1
sVdnt3vsy
p4
I1
sVczgq9x1
p5
I3
sVdsmcoia
p6
I1
sVde55f1o
p7
I1
sVdcvx81f
p8
I1
sVczp65i6
p9
I1
sVddco9bk
p10
I1
sVdi8letc
p11
I1
sVczuxlci
p12
I1
sVdmqbf6o
p13
I1
sVdb0ougi
p14
I1
sVdhcjv2s
p15
I1
sVdadgyo0
p16
I1
sVczxt9jk
p17
I1
sVdo37u11
p18
I1
sVdgy3mrm
p19
I1
sVdho7n93
p20
I2
sVdsml0i4
p21
I1
sVdi3o8cf
p22
I1
sVde857fo
p23
I1
sVd6s793o
p24
I1
sVdffipwo
p25
I1
sVd251z60
p26
I1
sVd0737v4
p27
I1
sVd5vhfkl
p28
I1
sVd2e5vfe
p29
I1
sVda3hwht
p30
I1
sVdgnnp1h
p31
I2
sVd2fs6vv
p32
I1
sVd0kwzr0
p33
I1
sVdi2v7iv
p34
I1
sVd3djxg5
p35
I1
sVddwmm8k
p36
I1
sVd7kdqzh
p37
I1
sVdavfa8h
p38
I1
sVd1wlwcs
p39
I1
sVd6s78on
p40
I1
sVcytl0t5
p41
I1
sVd1da5kr
p42
I1
sVdftua88
p43
I1
sVdoxe71h
p44
I1
sVd9zujml
p45
I1
sVd6hgf63
p46
I1
sVd1itc12
p47
I1
sVdetu3pi
p48
I1
sVczhf9wx
p49
I1
sVdggk3wk
p50
I1
sVd14phe1
p51
I1
sVdekvq8l
p52
I1
sVdhacfgx
p53
I2
sVd8bi40u
p54
I1
sVddx4pul
p55
I1
sVdnh2opg
p56
I1
sVdhks4ja
p57
I1
sVdhc55b8
p58
I1
sVddfzmwv
p59
I1
sVd51m56b
p60
I1
sVdnshnzp
p61
I1
sVd9ytvfh
p62
I3
sVdcja52p
p63
I1
sVdaquxcu
p64
I1
sVdpjojdo
p65
I1
sVd0b32o3
p66
I1
sVd20yyi2
p67
I1
sVdnrt92g
p68
I1
sVd45bq4i
p69
I3
sVdidlmfy
p70
I1
sVdsj2h7m
p71
I1
sVda386w7
p72
I1
sVd9kawa8
p73
I1
sVdotj47c
p74
I1
sVdqh6m6d
p75
I1
sVcz77ejs
p76
I1
sVd0da1kb
p77
I1
sVd15b9wz
p78
I1
sVd978co3
p79
I1
sVcyokcbc
p80
I1
sVdqgqe19
p81
I2
sVdgpqulu
p82
I1
sVds59jk4
p83
I1
sVde5nsh6
p84
I3
sVd3r47us
p85
I1
sVcyug6dt
p86
I1
sVdsbnyct
p87
I1
sVdtfqdgj
p88
I1
sVdgx2c11
p89
I1
sVdh71693
p90
I1
sVd65vlb4
p91
I1
sVcyxazmt
p92
I2
sVdefoik5
p93
I2
sVddc9thn
p94
I1
sVczgrecu
p95
I1
sVcyugk8k
p96
I3
sVddwg3ea
p97
I1
sVdjtb87x
p98
I1
sVd2c2xlk
p99
I1
sVdngw6mo
p100
I3
sVdd5qmnn
p101
I1
sVdc2u71g
p102
I1
sVdkeoqbo
p103
I1
sVdjz4f9e
p104
I1
sVdc9awu7
p105
I1
sVd5forfo
p106
I1
sVd6f25p4
p107
I1
sVdecaz7y
p108
I1
sVd61xcge
p109
I1
sVdhofk8q
p110
I1
sVdmzpo0w
p111
I1
sVcz3rw32
p112
I1
sVdnu8ulf
p113
I1
sVd9wxltz
p114
I1
sVddj9sgk
p115
I2
sVda0bind
p116
I1
sVd2333ki
p117
I1
sVdiolkg4
p118
I1
sVdgaznnc
p119
I1
sVdbu8afv
p120
I1
sVd0772s1
p121
I1
sVczgssa7
p122
I1
sVczccuvz
p123
I1
sVd6qm6h7
p124
I1
sVdnrd8jr
p125
I1
sVdeos6j6
p126
I1
sVdbh2gxg
p127
I1
sVd9igsf5
p128
I1
sVddwlr1g
p129
I3
sVd6aifos
p130
I1
sVd02j245
p131
I1
sVczre3wr
p132
I1
sVd6excul
p133
I1
sVczcdnqk
p134
I1
sVd05z0t8
p135
I1
sVd61ot6f
p136
I1
sVd03fy4i
p137
I1
sVdggv7a7
p138
I1
sVcyv15gj
p139
I1
sVdpmpndy
p140
I2
sVdesfdpo
p141
I1
sVcyxp0j8
p142
I1
sVd6ffrb1
p143
I1
sVdfeek6g
p144
I2
sVdaaom0d
p145
I1
sVdnrahid
p146
I1
sVdi336h9
p147
I1
sVdms169k
p148
I1
sVdipv6va
p149
I1
sVdow3373
p150
I2
sVd3ui40h
p151
I1
sVdh2pi73
p152
I1
sVd8b4enk
p153
I1
sVdcpnxk7
p154
I1
sVd2l6yyb
p155
I1
sVd2kvike
p156
I1
sVd4ttl89
p157
I2
sVdnnuzv3
p158
I1
sVddi8p9u
p159
I1
sVd1akljh
p160
I1
sVd0hii9c
p161
I1
sVczkhbcv
p162
I1
sVd891sz5
p163
I2
sVczhip61
p164
I1
sVdjltrsb
p165
I1
sVd6bxyrm
p166
I1
sVdi9ar7h
p167
I1
sVdt2b1ja
p168
I1
sVda31bpc
p169
I1
sVdimsa91
p170
I1
sVczka9be
p171
I2
sVdaoz7nq
p172
I1
sVd2h4szj
p173
I1
sVda66k0t
p174
I1
sVdi4viix
p175
I1
sVd3ucmiy
p176
I1
sVcznxzn6
p177
I2
sVdix50lh
p178
I1
sVd6bzf94
p179
I2
sVd2g7gbt
p180
I1
sVdrqflc6
p181
I1
sVd7mqfdn
p182
I1
sVd3uw9pu
p183
I1
sVd3f5zau
p184
I1
sVdc23jc2
p185
I1
sVczrqx6p
p186
I1
sVcz01ob4
p187
I1
sVddb8iz7
p188
I1
sVd48ryax
p189
I1
sVcz5p5ma
p190
I1
sVd4u7qrb
p191
I1
sVdj58rk3
p192
I3
sVdgdv7bo
p193
I1
sVd14wu7b
p194
I1
sVdfxib0r
p195
I1
sVczh3io4
p196
I1
sVdgfmqai
p197
I1
sVczxga4l
p198
I1
sVddsh62k
p199
I1
sVdb9od93
p200
I1
sVd6nlvdg
p201
I1
sVd4ghuv8
p202
I2
sVdjdlgwo
p203
I1
sVdbh5qic
p204
I4
sVcz5eg5v
p205
I1
sVd3s6fx2
p206
I2
sVd6tdhes
p207
I1
sVdh6572e
p208
I3
sVddwmmav
p209
I3
sVd001479
p210
I1
sVdms97bp
p211
I1
sVczdgvov
p212
I1
sVddv7wom
p213
I1
sVd00310q
p214
I2
sVddwjcmf
p215
I2
sVdfa4ig9
p216
I1
sVdqmwwjs
p217
I1
sVdsotgrx
p218
I1
sVd92tp7r
p219
I1
sVdqcbhho
p220
I1
sVdpmc0bw
p221
I2
sVd2lyjpz
p222
I1
sVdd8fbb8
p223
I1
sVdgmedl4
p224
I1
sVd3rb5l7
p225
I1
sVd5k8snj
p226
I3
sVd6hqdm2
p227
I1
sVd4mw417
p228
I1
sVdg8x25y
p229
I1
sVd9hg55g
p230
I3
sVdrre6vn
p231
I1
sVddup9i8
p232
I1
sVdhlofak
p233
I1
sVd0kmko6
p234
I1
sVdejny0d
p235
I1
sVd091jea
p236
I1
sVd7shmsg
p237
I1
sVcz48lq2
p238
I1
sVd08wx2a
p239
I1
sVd87rx5s
p240
I2
sVd2dqg5e
p241
I2
sVd67qbg7
p242
I1
sVdh6koyc
p243
I1
sVczuwiai
p244
I1
sVddtjk0a
p245
I1
sVczdgmvd
p246
I1
sVcyuhbjz
p247
I1
sVdorvsn7
p248
I1
sVdgxko38
p249
I1
sVd7h10r7
p250
I2
sVd010838
p251
I3
sVd4vg5lt
p252
I1
sVdhlnfl1
p253
I1
sVdgufwlb
p254
I1
sVdiskkb4
p255
I1
sVdelcznp
p256
I1
sVd0rf0yf
p257
I1
sVdddkxl5
p258
I1
sVd3ma9d4
p259
I2
sVdtcv7o9
p260
I1
sVdmv6eez
p261
I1
sVd8iburz
p262
I1
sVd8g90gx
p263
I1
sVd17n5ji
p264
I1
sVdhv1488
p265
I1
sVdhcjjyk
p266
I2
sVdbsujcy
p267
I1
sVdai9gla
p268
I1
sVddfm0gz
p269
I1
sVdjadisr
p270
I1
sVd736ca7
p271
I1
sVd3hzlhv
p272
I1
sVdc3ex6x
p273
I1
sVdp8gw2j
p274
I1
sVddv7s4x
p275
I1
sVd274mkz
p276
I1
sVdcjitbx
p277
I1
sVd354osk
p278
I1
sVdnklni4
p279
I1
sVdnlwrah
p280
I1
sVd5v2mbi
p281
I3
sVd1izcvy
p282
I1
sVda34cgl
p283
I1
sVdpn0x1h
p284
I4
sVdh0tkcs
p285
I1
sVczjcllu
p286
I1
sVd5ndjsc
p287
I1
sVd4pfhkn
p288
I1
sVcyyl7wk
p289
I1
sVdohjzdj
p290
I1
sVdidrndx
p291
I3
sVd3xvsi6
p292
I1
sVd91g69l
p293
I1
sVdfvd67v
p294
I1
sVdgh211c
p295
I1
sVdhnymwf
p296
I1
sVd1kmueg
p297
I1
sVdo89sfz
p298
I1
sVdj43tex
p299
I1
s.