(dp0
Vczjcdk3
p1
I1
s.(dp0
Vd0n6zvm
p1
I1
sVczjcdk3
p2
I1
s.(dp0
Vczjcdk3
p1
I1
sVd18rye0
p2
I1
s.(dp0
Vd1e6z28
p1
I1
sVczjcdk3
p2
I1
s.(dp0
Vczjcdk3
p1
I1
sVd1w9jb1
p2
I1
s.(dp0
Vczjcdk3
p1
I1
sVd6veu9w
p2
I1
s.(dp0
Vd8o1vll
p1
I1
sVczjcdk3
p2
I1
s.(dp0
Vdctnlzo
p1
I1
sVczjcdk3
p2
I1
s.(dp0
Vczjcdk3
p1
I1
sVdqmn7gz
p2
I1
s.(dp0
Vczjcdk3
p1
I1
sVdqmn7gz
p2
I1
s.(dp0
Vdsiap23
p1
I1
sVczjcdk3
p2
I1
s.