(dp0
Vdjb32ge
p1
I1
sVczq7uzp
p2
I1
sVd52zdyq
p3
I2
sVd4kuzwt
p4
I1
sVd2d7n8k
p5
I1
sVdczcj57
p6
I1
sVd8z4h9i
p7
I1
sVd5vxyiu
p8
I1
sVdnexhst
p9
I1
sVczweodw
p10
I1
sVdjr59p6
p11
I1
sVd0mupuy
p12
I1
sVddidtiy
p13
I1
sVd3zpxsa
p14
I1
sVdho0ix8
p15
I1
sVddan6kj
p16
I1
sVd0kyio7
p17
I1
sVdejv6lf
p18
I1
sVdgzmcnp
p19
I1
sVdkmy322
p20
I1
sVd5q4nwz
p21
I1
sVd2o7141
p22
I1
sVd6er9v9
p23
I1
sVdnmuqh7
p24
I1
sVdkxyk00
p25
I1
sVd2jp25q
p26
I1
sVd4sx1qk
p27
I1
sVd0eoq9g
p28
I1
sVdejbvbk
p29
I1
sVdakpx7r
p30
I1
sVczwayjf
p31
I1
sVd83orbt
p32
I1
sVd0as05m
p33
I1
sVd6mdfas
p34
I1
sVdr5zo9g
p35
I1
sVdnuykdq
p36
I1
sVdfjq00c
p37
I1
sVdpfzsgd
p38
I1
sVcytij5w
p39
I1
sVdgmvg89
p40
I1
sVdijssmn
p41
I1
sVdg1qhpq
p42
I1
sVd0z7w4t
p43
I1
sVdqvjsnu
p44
I1
sVdb5shzg
p45
I1
sVde19vpz
p46
I1
sVd9h7t8e
p47
I1
sVd6cgcd9
p48
I1
sVdfv2one
p49
I2
sVd5k2nb8
p50
I1
sVczoua1t
p51
I1
sVddoa6e0
p52
I1
sVdbnmxri
p53
I1
sVcypke92
p54
I1
sVdre2wft
p55
I1
sVd3133tk
p56
I1
sVda3igoc
p57
I1
sVdd42jz9
p58
I1
sVcyinwth
p59
I2
sVdfuxoi5
p60
I1
sVcz5z96z
p61
I1
sVdml2xb3
p62
I2
sVcyp8bo7
p63
I1
sVd0vf78z
p64
I1
sVdml2pqi
p65
I1
sVdcwavyo
p66
I2
sVdqdwuum
p67
I1
sVddjausx
p68
I1
sVd557w42
p69
I1
sVdsbvohz
p70
I1
sVczswpt8
p71
I1
sVd64pcyr
p72
I1
sVd5jabcb
p73
I1
sVdfcx69u
p74
I1
sVdkit2an
p75
I1
sVdoc3hx5
p76
I1
sVddx09fa
p77
I1
sVcys11ku
p78
I1
sVczzhoak
p79
I1
sVcyq7cpt
p80
I1
sVdkfs1am
p81
I1
sVd0561gv
p82
I1
sVd6iog74
p83
I1
sVdo9os7t
p84
I1
sVdk4q0wr
p85
I1
sVdca8ela
p86
I1
sVddagaef
p87
I1
sVdfc8w1a
p88
I1
sVd8ikrq2
p89
I1
sVdi6f34j
p90
I1
sVdauc2x0
p91
I1
sVd0qcovi
p92
I1
sVcyhvog3
p93
I1
sVd4fuwng
p94
I1
sVdcwox0w
p95
I1
sVd0jp94p
p96
I1
sVczst6t5
p97
I1
sVd97kbac
p98
I1
sVde9zl5k
p99
I2
sVd0vr2mn
p100
I1
sVd1gpiur
p101
I1
sVd4urq5h
p102
I1
sVdkokp7r
p103
I1
sVdaavelk
p104
I1
sVdjxu22k
p105
I1
sVddpxe8a
p106
I1
sVdambo4z
p107
I1
sVd1wmduf
p108
I1
sVdgjaomc
p109
I1
sVd7n5tg5
p110
I1
sVd237agc
p111
I1
sVd7e8q35
p112
I1
sVd0d9ukd
p113
I1
sVd7j5vtj
p114
I1
sVd27wuxf
p115
I1
sVdboe9h6
p116
I1
sVd00r8ou
p117
I1
sVdav6yq9
p118
I1
sVcz12rvl
p119
I1
sVdr06u3j
p120
I1
sVdkkn47q
p121
I1
sVde19rl3
p122
I1
sVdc5fb6l
p123
I1
sVd3c88vi
p124
I1
sVd7bn7er
p125
I1
sVdifp4xf
p126
I2
sVcytzvht
p127
I4
sVczggrm0
p128
I1
sVdjwh98a
p129
I1
sVdee4isz
p130
I2
sVdg9nvsm
p131
I1
sVdmzwc14
p132
I1
sVdky9z7k
p133
I1
sVczok2b3
p134
I1
sVdkskpdw
p135
I1
sVdb5kiyj
p136
I1
sVddq0ts2
p137
I1
sVdd7cw0y
p138
I1
sVdfli4uc
p139
I1
sVd1n08ei
p140
I1
sVczok55l
p141
I1
sVd8aykf4
p142
I1
sVd63ouic
p143
I1
sVdii8a6f
p144
I7
sVda2mujl
p145
I1
sVd64obqr
p146
I2
sVda9vcdr
p147
I1
sVczl5ojk
p148
I1
sVdbx8m1c
p149
I1
sVdh6we0c
p150
I1
sVdf0cq9u
p151
I1
sVd1j9xf9
p152
I2
sVdml3s23
p153
I1
sVdebi4n7
p154
I1
sVda1cnwn
p155
I1
sVdalg3ro
p156
I1
sVdqjdm3v
p157
I1
sVd0p4wyj
p158
I1
sVdml3ukw
p159
I1
sVde7crg2
p160
I1
sVd21fakl
p161
I1
sVddrxpbx
p162
I1
sVdi2v5ix
p163
I1
sVddew53u
p164
I1
sVde1acde
p165
I3
sVd0sxld1
p166
I1
sVdcwj8xq
p167
I2
sVd4mparn
p168
I1
sVdac0l7z
p169
I1
sVdfo6e84
p170
I1
sVd974ehc
p171
I1
sVd0jyvpi
p172
I1
sVdmsh64o
p173
I1
sVcykurba
p174
I1
sVd7t8jso
p175
I1
sVcz7px8j
p176
I1
sVczjgtjr
p177
I1
sVcz5nuvu
p178
I1
sVd5h3i99
p179
I1
sVdfttb9o
p180
I1
sVd6veu9w
p181
I2
sVd46yrco
p182
I1
sVdi2v2no
p183
I1
sVdguhaf6
p184
I1
sVd598qtm
p185
I1
sVd876c43
p186
I1
sVdh1uiad
p187
I1
sVczxahvo
p188
I1
sVdda2x3l
p189
I1
sVd0a8yl3
p190
I3
sVdmuy6tg
p191
I1
sVd5r0mre
p192
I1
sVdat9oft
p193
I1
sVdfuyb4j
p194
I1
sVdervw38
p195
I1
sVdco85qd
p196
I1
sVd0uir0a
p197
I1
sVd1aj0re
p198
I1
sVde19rp7
p199
I2
s.