(dp0
Vdr06l8l
p1
I1
sVde7019t
p2
I1
sVdigz0im
p3
I1
sVd1jl0hh
p4
I1
sVd5er781
p5
I1
sVdsmwekw
p6
I1
sVd6dv3fi
p7
I1
sVd1utqdr
p8
I1
sVdiw704y
p9
I1
sVdn63lc2
p10
I1
sVdf915pb
p11
I1
sVdb8d5by
p12
I1
sVdk1yrtu
p13
I1
sVd6kbti1
p14
I1
sVdb89t2e
p15
I1
sVd0btvum
p16
I1
sVcyxag4c
p17
I1
sVdg1qhpq
p18
I1
sVd9e8lmo
p19
I1
sVdqrqusv
p20
I1
sVdi942xr
p21
I1
sVd68s8ob
p22
I1
sVd32ay8s
p23
I1
sVdt163qx
p24
I1
sVcz6ypfj
p25
I1
sVcyocqzx
p26
I1
sVd5xoseq
p27
I1
sVdc2zx7x
p28
I1
sVd69gv9r
p29
I1
sVd4spstd
p30
I1
sVdphvy3m
p31
I1
sVdgc4ogw
p32
I1
sVdn2ud7o
p33
I1
sVd1dav0c
p34
I2
sVdbxa3yt
p35
I1
sVdmuy6tg
p36
I1
sVdco653z
p37
I1
sVd1af04k
p38
I1
sVd4fuwng
p39
I1
sVdcet68y
p40
I1
sVd2lyhs6
p41
I1
sVdjubl9z
p42
I1
sVd3z3onp
p43
I1
sVdcocuo2
p44
I1
sVdhkfg0j
p45
I2
sVd6w8nmk
p46
I1
sVdg6cul7
p47
I1
sVdd22p37
p48
I1
sVd1jfkl4
p49
I1
sVd42yde5
p50
I1
sVdco6axc
p51
I1
sVd9dzsgr
p52
I1
sVcz12r84
p53
I1
sVd6j64o6
p54
I1
sVd02l804
p55
I1
sVd1zg049
p56
I1
sVd8yn4hy
p57
I1
sVd15pvxk
p58
I1
sVdgb8oar
p59
I1
sVddj25wh
p60
I1
sVd5tgudf
p61
I1
sVd1grwlr
p62
I1
sVdg964na
p63
I1
sVdgv7pen
p64
I1
sVd0s1p5v
p65
I1
sVdd6bwtv
p66
I1
sVd3wuvqe
p67
I1
sVdnbb408
p68
I1
sVd2ekcr0
p69
I1
sVcynyom6
p70
I1
sVdfgm037
p71
I1
sVd9e5am1
p72
I1
sVd1219t8
p73
I1
sVddz0qif
p74
I1
sVczsr7t2
p75
I1
sVdcdldwe
p76
I1
sVd05e1xu
p77
I1
sVd974ehc
p78
I2
sVdbnblus
p79
I1
sVd9smt09
p80
I1
sVdb19hba
p81
I2
sVd2fsiy2
p82
I1
sVczt1dji
p83
I2
sVdengcci
p84
I1
sVdn3unxv
p85
I1
sVd392i7f
p86
I1
sVd2gudpi
p87
I1
sVd4mjfdw
p88
I1
sVd62r7m0
p89
I1
sVdco85qd
p90
I2
sVcz2bqm5
p91
I1
s.