(dp0
Vd9mp9k8
p1
I1
sVdtdu7c0
p2
I1
sVdik3uuz
p3
I1
sVd6lep70
p4
I1
sVddgot2w
p5
I1
sVd0kb8xo
p6
I1
sVdqfqm75
p7
I4
sVd2xgmje
p8
I1
sVd3z7w7o
p9
I1
sVdn6frle
p10
I4
sVdfuheqe
p11
I1
sVd3myfvp
p12
I9
sVd82dnv2
p13
I1
sVdami9nv
p14
I2
sVd9acpi2
p15
I1
sVczotksa
p16
I1
sVdsimlz1
p17
I2
sVdce5egg
p18
I1
sVdbpl4rn
p19
I2
sVdgo9azm
p20
I2
sVdbcozje
p21
I2
sVcz7hdee
p22
I2
sVdbi0ku4
p23
I1
sVd25y948
p24
I1
sVd6hccqv
p25
I1
sVd3029xm
p26
I1
sVcz7m1u6
p27
I1
sVd7wuiq5
p28
I7
sVddarm2y
p29
I1
sVdf62n1d
p30
I1
sVdc61fo7
p31
I1
sVd3iv9fr
p32
I3
sVdpkct7r
p33
I1
sVdn6va5s
p34
I1
sVdbtp2qk
p35
I1
sVdhi3f8c
p36
I1
sVd1nv9p0
p37
I1
sVd4xvwwu
p38
I1
sVd5emtyv
p39
I1
sVdegsfb0
p40
I1
sVdkewv8r
p41
I1
sVd2wwnyi
p42
I1
sVd6eg19e
p43
I1
sVdbmc7d9
p44
I1
sVd5rxaxg
p45
I2
sVdenlya2
p46
I1
sVddtotfw
p47
I1
sVdel5zx1
p48
I1
sVddplrff
p49
I1
sVd3k8apv
p50
I2
sVdocfhp8
p51
I1
sVd1zn2yq
p52
I2
sVdcrs2hd
p53
I2
sVd9jq07x
p54
I1
sVdneosjy
p55
I1
sVd0wmzzh
p56
I5
sVdi5djh1
p57
I1
sVd3gupkr
p58
I1
sVdpnu7s9
p59
I1
sVdg6yk0h
p60
I1
sVd5ov483
p61
I2
sVd9fz5ez
p62
I3
sVdnch9h9
p63
I2
sVdhdqv9t
p64
I1
sVdcdwlwi
p65
I1
sVdq6q8ap
p66
I1
sVdbf5hn0
p67
I2
sVd3i0b6f
p68
I2
sVd3gv93v
p69
I1
sVd6y9dvf
p70
I1
sVdbuao9e
p71
I3
sVdqtags2
p72
I2
sVdf8687f
p73
I1
sVdhdu4qc
p74
I1
sVd9ml4hr
p75
I1
sVdacbpq2
p76
I1
sVdibvv2y
p77
I1
sVcz7i2sj
p78
I1
sVd6qjnt6
p79
I1
sVdmq74vj
p80
I1
sVd0uetr2
p81
I1
sVd0owzot
p82
I2
sVd8oi0mw
p83
I2
sVda3jy6k
p84
I1
sVd5ne9hk
p85
I3
sVd1j3nna
p86
I1
sVd0vppj3
p87
I3
sVd9cm7iq
p88
I1
sVd047s69
p89
I1
sVdn6fan1
p90
I2
sVdcx0dpp
p91
I1
sVdos31yj
p92
I2
sVd5ouuqi
p93
I2
sVdei5vqz
p94
I1
sVd1y4d2e
p95
I1
sVdcnjnlc
p96
I1
sVdns99oq
p97
I1
sVdhdtyn2
p98
I1
sVdok8nsk
p99
I1
sVdei8p9d
p100
I2
sVd2wx99w
p101
I2
sVddf75tq
p102
I1
sVdaw6hpd
p103
I1
sVddv0z5f
p104
I3
sVdpbt07q
p105
I2
sVd5na5gi
p106
I2
sVcz4naep
p107
I1
sVdik2mtr
p108
I1
sVdcrlju1
p109
I1
sVdq1v25q
p110
I1
sVdn6c72d
p111
I1
sVdq1p8ud
p112
I1
sVcyrcpdc
p113
I1
sVdan6wsz
p114
I1
sVd1zto0g
p115
I2
sVd9v73n1
p116
I1
sVd9ynfy2
p117
I1
sVd3jlk7h
p118
I1
sVdonh0gm
p119
I1
sVdcopttx
p120
I1
sVdfu1pky
p121
I1
sVdsjv20k
p122
I3
sVcylqc99
p123
I1
sVd53gmmk
p124
I1
sVdbtpdeh
p125
I1
sVdouvqmo
p126
I1
sVd2rv1cf
p127
I1
sVdsn4r0p
p128
I1
sVczmyq95
p129
I1
sVd7jfx42
p130
I1
sVdq6rb3x
p131
I1
sVd1ceoqr
p132
I1
sVd9crix9
p133
I1
sVdsnkbfa
p134
I1
sVcz8a6d1
p135
I1
sVd25kh0v
p136
I2
sVd1l6y2k
p137
I1
sVdn6f85b
p138
I1
sVcznf5rc
p139
I1
sVdn6cg11
p140
I3
sVdn6jhk7
p141
I1
sVdo6003x
p142
I1
sVd42hcc7
p143
I1
sVd7n1vq3
p144
I2
sVcz4li7m
p145
I1
sVd7wwtic
p146
I6
sVd5u4fzp
p147
I1
sVdruevqx
p148
I1
sVcz7zbs9
p149
I1
sVd7wu9wk
p150
I1
sVdcgju8w
p151
I1
sVdcdwlga
p152
I1
sVcyz0kyw
p153
I2
s.