(dp0
Vcypp594
p1
I1
s.(dp0
Vcz7hlrc
p1
I1
sVcypp594
p2
I1
s.(dp0
Vcypp594
p1
I1
sVcz9rkfq
p2
I1
s.(dp0
Vcypp594
p1
I1
sVczbmpzp
p2
I1
s.(dp0
Vcypp594
p1
I1
sVczj0wmf
p2
I1
s.(dp0
Vcypp594
p1
I1
sVczmlglo
p2
I1
s.(dp0
Vcypp594
p1
I1
sVczon6dr
p2
I1
s.(dp0
Vcypp594
p1
I1
sVczongic
p2
I1
s.(dp0
Vcypp594
p1
I1
sVczzb436
p2
I1
s.(dp0
Vcypp594
p1
I1
sVd06cf14
p2
I1
s.(dp0
Vd08qi6k
p1
I1
sVcypp594
p2
I1
s.(dp0
Vcypp594
p1
I1
sVd0m5w3z
p2
I1
s.(dp0
Vcypp594
p1
I1
sVd0ymoj8
p2
I1
s.(dp0
Vcypp594
p1
I1
sVd144yuo
p2
I1
s.(dp0
Vcypp594
p1
I1
sVd144yuo
p2
I1
s.(dp0
Vcypp594
p1
I1
sVd1jl85q
p2
I1
s.(dp0
Vcypp594
p1
I1
sVd1jl85q
p2
I1
s.(dp0
Vcypp594
p1
I1
sVd1jl85q
p2
I1
s.(dp0
Vcypp594
p1
I1
sVd1jl85q
p2
I1
s.(dp0
Vcypp594
p1
I1
sVd1wgm7g
p2
I1
s.(dp0
Vcypp594
p1
I1
sVd208x2b
p2
I1
s.(dp0
Vcypp594
p1
I1
sVd2dixe4
p2
I1
s.(dp0
Vcypp594
p1
I1
sVd2e5rqa
p2
I1
s.(dp0
Vcypp594
p1
I1
sVd2i838k
p2
I1
s.(dp0
Vcypp594
p1
I1
sVd34084w
p2
I1
s.(dp0
Vcypp594
p1
I1
sVd3orqf8
p2
I1
s.(dp0
Vd44tr92
p1
I1
sVcypp594
p2
I1
s.(dp0
Vcypp594
p1
I1
sVd4gdq5z
p2
I1
s.(dp0
Vcypp594
p1
I1
sVd4wrrb5
p2
I1
s.(dp0
Vcypp594
p1
I1
sVd4xox6g
p2
I1
s.(dp0
Vcypp594
p1
I1
sVd5tmvs8
p2
I1
s.(dp0
Vcypp594
p1
I1
sVd65pwic
p2
I1
s.(dp0
Vcypp594
p1
I1
sVd65pwic
p2
I1
s.(dp0
Vcypp594
p1
I1
sVd6m7vjp
p2
I1
s.(dp0
Vcypp594
p1
I1
sVd7gqiz2
p2
I1
s.(dp0
Vcypp594
p1
I1
sVd7keee6
p2
I1
s.(dp0
Vcypp594
p1
I1
sVd7kfg5u
p2
I1
s.(dp0
Vcypp594
p1
I1
sVd7kfg5u
p2
I1
s.(dp0
Vcypp594
p1
I1
sVd7kfg5u
p2
I1
s.(dp0
Vcypp594
p1
I1
sVd7kh85x
p2
I1
s.(dp0
Vcypp594
p1
I1
sVd7la1ya
p2
I1
s.(dp0
Vcypp594
p1
I1
sVd7z0w6z
p2
I1
s.(dp0
Vd89c8vi
p1
I1
sVcypp594
p2
I1
s.(dp0
Vcypp594
p1
I1
sVd8kyap4
p2
I1
s.(dp0
Vcypp594
p1
I1
sVd8pl944
p2
I1
s.(dp0
Vcypp594
p1
I1
sVd97j1kk
p2
I1
s.(dp0
Vcypp594
p1
I1
sVd9qu81f
p2
I1
s.(dp0
Vcypp594
p1
I1
sVd9vk9at
p2
I1
s.(dp0
Vcypp594
p1
I1
sVda0gtgy
p2
I1
s.(dp0
Vcypp594
p1
I1
sVda8nxvs
p2
I1
s.(dp0
Vcypp594
p1
I1
sVda8qkez
p2
I1
s.(dp0
Vcypp594
p1
I1
sVdafmr5n
p2
I1
s.(dp0
Vcypp594
p1
I1
sVdafr5d3
p2
I1
s.(dp0
Vcypp594
p1
I1
sVdaz2bz2
p2
I1
s.(dp0
Vcypp594
p1
I1
sVdbfh811
p2
I1
s.(dp0
Vcypp594
p1
I1
sVdbfh811
p2
I1
s.(dp0
Vcypp594
p1
I1
sVdbfxgty
p2
I1
s.(dp0
Vcypp594
p1
I1
sVdbfxgty
p2
I1
s.(dp0
Vcypp594
p1
I1
sVdbmaao2
p2
I1
s.(dp0
Vcypp594
p1
I1
sVdbmaao2
p2
I1
s.(dp0
Vcypp594
p1
I1
sVdbz3w1t
p2
I1
s.(dp0
Vcypp594
p1
I1
sVdczpi9r
p2
I1
s.(dp0
Vcypp594
p1
I1
sVdd2xylf
p2
I1
s.(dp0
Vcypp594
p1
I1
sVdd3q8jt
p2
I1
s.(dp0
Vcypp594
p1
I1
sVddj902f
p2
I1
s.(dp0
Vcypp594
p1
I1
sVddrd8eo
p2
I1
s.(dp0
Vcypp594
p1
I1
sVddrd8eo
p2
I1
s.(dp0
Vcypp594
p1
I1
sVde7ffrr
p2
I1
s.(dp0
Vdefesu1
p1
I1
sVcypp594
p2
I1
s.(dp0
Vdf1tmmb
p1
I1
sVcypp594
p2
I1
s.(dp0
Vcypp594
p1
I1
sVdfal2zj
p2
I1
s.(dp0
Vdfapny1
p1
I1
sVcypp594
p2
I1
s.(dp0
Vdfgcztq
p1
I1
sVcypp594
p2
I1
s.(dp0
Vdfgcztq
p1
I1
sVcypp594
p2
I1
s.(dp0
Vcypp594
p1
I1
sVdgd8liu
p2
I1
s.(dp0
Vcypp594
p1
I1
sVdh0uhaf
p2
I1
s.(dp0
Vcypp594
p1
I1
sVdh0uhaf
p2
I1
s.(dp0
Vcypp594
p1
I1
sVdh0uhaf
p2
I1
s.(dp0
Vdh7oyms
p1
I1
sVcypp594
p2
I1
s.(dp0
Vdh7oyms
p1
I1
sVcypp594
p2
I1
s.(dp0
Vcypp594
p1
I1
sVdhadvvu
p2
I1
s.(dp0
Vcypp594
p1
I1
sVdie7m1j
p2
I1
s.(dp0
Vcypp594
p1
I1
sVdiofix3
p2
I1
s.(dp0
Vdiomvnx
p1
I1
sVcypp594
p2
I1
s.(dp0
Vcypp594
p1
I1
sVdj0r5eo
p2
I1
s.(dp0
Vcypp594
p1
I1
sVdk78ifn
p2
I1
s.(dp0
Vcypp594
p1
I1
sVdkdoaab
p2
I1
s.(dp0
Vcypp594
p1
I1
sVdkdugic
p2
I1
s.(dp0
Vcypp594
p1
I1
sVdkdvci9
p2
I1
s.(dp0
Vcypp594
p1
I1
sVdkj0v1p
p2
I1
s.(dp0
Vcypp594
p1
I1
sVdkybcdx
p2
I1
s.(dp0
Vcypp594
p1
I1
sVdmgxkr7
p2
I1
s.(dp0
Vcypp594
p1
I1
sVdmgxkr7
p2
I1
s.(dp0
Vcypp594
p1
I1
sVdmou3e9
p2
I1
s.(dp0
Vcypp594
p1
I1
sVdo1wirl
p2
I1
s.(dp0
Vcypp594
p1
I1
sVdo84nmu
p2
I1
s.(dp0
Vcypp594
p1
I1
sVdoe3kgb
p2
I1
s.(dp0
Vcypp594
p1
I1
sVdohadq8
p2
I1
s.(dp0
Vcypp594
p1
I1
sVdoihan2
p2
I1
s.(dp0
Vdqe0038
p1
I1
sVcypp594
p2
I1
s.(dp0
Vdqx0ob1
p1
I1
sVcypp594
p2
I1
s.(dp0
Vcypp594
p1
I1
sVdrmg41h
p2
I1
s.(dp0
Vcypp594
p1
I1
sVdsqhidj
p2
I1
s.(dp0
Vcypp594
p1
I1
sVdtho007
p2
I1
s.