(dp0
Vd0pw80g
p1
I1
sVd75avc3
p2
I2
sVd4fihkz
p3
I1
sVdeuhdza
p4
I1
sVd9gz7ok
p5
I1
sVdge1fj5
p6
I1
sVdgoj129
p7
I1
sVcyyq8wg
p8
I2
sVd6fd67d
p9
I1
sVd3u0h23
p10
I1
sVdssowig
p11
I2
sVdroe5su
p12
I1
sVdohjnfz
p13
I1
sVczwgjra
p14
I1
sVd7ygqaq
p15
I1
sVdjk0k59
p16
I1
sVd21m6oq
p17
I1
sVde5oqxd
p18
I1
sVd0ntz0b
p19
I1
sVdr6khhw
p20
I1
sVd8k355q
p21
I1
sVdgf72bu
p22
I1
sVd5j5x7e
p23
I2
sVd6y75z0
p24
I1
sVdeissws
p25
I1
sVdse9bn6
p26
I1
sVd6ue2hw
p27
I1
sVdp9bry5
p28
I1
sVda2984l
p29
I1
sVd07ehpz
p30
I1
sVdggg17r
p31
I1
sVdgfwpxb
p32
I1
sVd7d90xy
p33
I1
sVdeovs4w
p34
I1
sVd9w6rzz
p35
I1
sVdt5gqks
p36
I1
sVd8yuwox
p37
I1
sVd2pwoza
p38
I1
sVdskvkxe
p39
I1
sVd8b20nr
p40
I2
sVdn6x1zs
p41
I1
sVd4n1xho
p42
I1
sVd4c1cpa
p43
I1
sVdno4mil
p44
I1
sVd8b4pss
p45
I1
sVd2d0x4p
p46
I1
sVdgwob9c
p47
I1
sVd2t4v99
p48
I1
sVd3198r1
p49
I1
sVd0l7k4i
p50
I1
sVczge1ot
p51
I1
sVdc9q7qu
p52
I1
sVd36u6iq
p53
I1
sVczg7ajz
p54
I1
sVdbx4lbe
p55
I1
sVd02yu1t
p56
I1
sVd6ruzr7
p57
I1
sVcyhtumq
p58
I1
sVdilq2jv
p59
I1
sVdde4tvz
p60
I1
sVdd4ziaz
p61
I1
s.