(dp0
Vd0409sy
p1
I1
sVdd18762
p2
I1
sVd3xqxkr
p3
I1
sVcz28itb
p4
I1
sVdbbk0kc
p5
I1
sVdb3lo69
p6
I1
sVdgmeq54
p7
I1
sVd5rrae9
p8
I1
sVdk1aqnk
p9
I1
sVdnmj8tz
p10
I3
sVcz6v7tw
p11
I1
sVdei7gbi
p12
I1
sVdcqdtzb
p13
I1
sVd3cc9fz
p14
I1
sVddkl0ar
p15
I1
sVd5fifte
p16
I1
sVd2xcrpe
p17
I1
sVdctbweq
p18
I1
sVdh4zs46
p19
I1
sVdrsb6yk
p20
I1
sVdtaaf3k
p21
I1
sVd3rly85
p22
I2
sVdaxj5do
p23
I1
sVd2kv40q
p24
I1
sVdbv682f
p25
I2
sVdgmfusg
p26
I1
sVd97cwax
p27
I2
sVd4bpchy
p28
I1
sVdmfaifz
p29
I1
sVdc5zweg
p30
I1
sVd26p7ov
p31
I1
sVd773djf
p32
I1
sVdaymlnf
p33
I1
sVdpsq3m7
p34
I1
sVczc3to7
p35
I1
sVcyxvu0d
p36
I1
sVd1ovng0
p37
I1
sVd5rhfr0
p38
I2
sVdc2zx7x
p39
I1
sVdfd50mz
p40
I1
sVdgcmc2b
p41
I1
sVd4t3wci
p42
I1
sVczdo8qh
p43
I1
sVd90mdvy
p44
I1
sVde50xjw
p45
I1
sVdirh77n
p46
I1
sVdrmvjsm
p47
I1
sVd2usint
p48
I1
sVdd56r1t
p49
I1
sVczeptki
p50
I1
sVdet7iqc
p51
I1
sVd4n0rb6
p52
I1
sVd874yr1
p53
I1
sVd5hol5u
p54
I1
sVd8rqhm6
p55
I1
sVddjxw11
p56
I1
sVd3g3n5x
p57
I1
sVd85m6jl
p58
I1
sVdenv1pg
p59
I1
sVdfvhz3n
p60
I1
sVdj973qp
p61
I1
sVd7aoay4
p62
I1
sVdjyjwu5
p63
I1
sVdix6cbz
p64
I1
sVdaz8ioq
p65
I1
sVdns6qcf
p66
I1
sVdav26y2
p67
I1
sVdet6tkc
p68
I1
sVdau3wpc
p69
I1
sVd3ybooj
p70
I1
sVdnxxr6h
p71
I1
sVdh5j1a5
p72
I1
sVd0dmtjp
p73
I1
sVdinaqwt
p74
I1
sVd8x9dhi
p75
I1
sVd43puxy
p76
I1
sVd0hglz9
p77
I1
sVdjphd7d
p78
I1
sVd8drren
p79
I1
sVdbi0a14
p80
I1
sVdau7nea
p81
I2
sVcypb9tx
p82
I1
sVd1nlcw2
p83
I1
sVd1o51dg
p84
I1
sVdf47eih
p85
I1
sVddspxwr
p86
I2
sVczfdw3j
p87
I1
sVdb3ystv
p88
I1
sVds4bn7e
p89
I1
sVd7vofgj
p90
I1
sVdktkm1x
p91
I1
sVd846l16
p92
I1
sVdivhgfz
p93
I1
sVdapokg4
p94
I2
sVdck0nxb
p95
I1
sVd1h1dn7
p96
I1
sVd1v9r8z
p97
I3
sVd3uqtjn
p98
I1
sVd1a4wyv
p99
I1
sVdtihnia
p100
I1
sVdniyf1s
p101
I2
sVdonv9j4
p102
I1
sVd3uuwuz
p103
I1
sVd2q7rgq
p104
I2
sVdcmrx9j
p105
I1
sVdb0dv4y
p106
I1
sVd71k2rd
p107
I1
sVdc9vs97
p108
I1
sVdjnpfea
p109
I1
sVd1pxffe
p110
I1
sVda5keat
p111
I1
sVdemlcfi
p112
I1
sVdbe35ut
p113
I2
sVdg3623u
p114
I1
sVcywevl9
p115
I1
sVdq5crmg
p116
I1
sVd6jw4hf
p117
I1
sVd4rvdhv
p118
I1
sVd9mtapv
p119
I1
sVd1ahh32
p120
I1
sVd2bh3om
p121
I1
sVdd8dbkn
p122
I1
sVdcpl18c
p123
I1
sVczph0ho
p124
I1
sVdn4hgo4
p125
I1
sVd159pgz
p126
I1
sVdk4vemp
p127
I1
sVcz1pswa
p128
I1
sVdtgaeku
p129
I1
sVczbq9f2
p130
I1
sVddf3d9y
p131
I1
sVdclc4j6
p132
I1
sVd77s72u
p133
I1
sVd1d8qjh
p134
I1
sVdorq6pr
p135
I2
sVdf9ccs8
p136
I1
sVd466ugm
p137
I1
sVd0nxwdi
p138
I1
sVdb6dil4
p139
I1
sVd5r2nmm
p140
I1
sVdcix3ar
p141
I1
sVdi0nca8
p142
I1
sVd2oiie2
p143
I1
sVd266wg4
p144
I1
sVd11qfmf
p145
I1
sVcz12lcz
p146
I1
sVdrf7cpn
p147
I1
sVd8or7fg
p148
I1
sVdjqzqzp
p149
I1
sVd97x8pz
p150
I1
sVd4rk9vc
p151
I1
sVd85pj3x
p152
I1
sVdd3aaol
p153
I1
sVdd9qnzb
p154
I1
sVd8oskrw
p155
I1
sVd127ei5
p156
I1
sVczeuvdm
p157
I1
sVd77sme6
p158
I1
sVdgajr4u
p159
I1
sVd3z6mga
p160
I1
sVd14l3ij
p161
I2
sVdp6rxix
p162
I1
sVd0u8zav
p163
I1
sVdiz6cbg
p164
I1
sVd08fg37
p165
I1
sVda63nad
p166
I1
sVdmgv9mz
p167
I1
sVdj05wrh
p168
I1
sVdix8kkv
p169
I1
sVd59xq2a
p170
I1
sVd104g0b
p171
I1
sVd0jp94p
p172
I1
sVd6b01kv
p173
I1
sVdbzmi8w
p174
I1
sVdemmq5l
p175
I1
sVd0nk510
p176
I2
sVd2iqeri
p177
I1
sVdconbya
p178
I1
sVd9i9zrh
p179
I1
sVdd4qr9v
p180
I1
sVdimwjb2
p181
I1
sVdels333
p182
I1
sVdpatzel
p183
I1
sVdf8fdso
p184
I1
sVd03w7k1
p185
I1
sVd4m9jdq
p186
I1
sVdeuydyv
p187
I1
sVdd05z8b
p188
I1
sVd1cu5t1
p189
I1
sVdhfazvt
p190
I1
sVdgrmmmf
p191
I1
sVcziwy4k
p192
I1
sVdhuqero
p193
I2
sVdcufla5
p194
I1
sVdce6z3c
p195
I2
sVdgzusff
p196
I2
sVczi883h
p197
I1
sVdj6xj5z
p198
I1
sVdfk9g3z
p199
I1
sVdbb77w6
p200
I1
sVde6a39v
p201
I1
sVdbgp7fl
p202
I1
sVd1in62o
p203
I2
sVcze18v0
p204
I1
sVdiha88l
p205
I1
sVdg5m4gk
p206
I2
sVdaeve1r
p207
I1
sVdqnku5x
p208
I1
sVdr21eiw
p209
I1
sVd86bg5o
p210
I1
sVd3nqyyh
p211
I1
sVd1zp5dj
p212
I1
sVd84amio
p213
I1
sVd98l4gs
p214
I1
sVdj53j2h
p215
I1
sVd227tge
p216
I1
sVd23rdaz
p217
I1
sVd0mkh9o
p218
I1
sVdaznio5
p219
I1
sVd4zzq3z
p220
I2
sVdqa3yfp
p221
I1
sVdhzz77d
p222
I1
sVdayjzpk
p223
I1
sVdrg7big
p224
I3
sVdail96s
p225
I1
sVddfm2nu
p226
I1
sVd2qxbb8
p227
I1
sVdfw5hok
p228
I1
sVde8e9pj
p229
I1
sVde6e96d
p230
I1
sVda6ue97
p231
I1
sVdeafsqq
p232
I1
sVd5ursav
p233
I1
sVdsist0y
p234
I1
sVdberu8w
p235
I2
sVdid4ute
p236
I1
sVd1auupv
p237
I1
sVcyycmgg
p238
I1
sVdck7qao
p239
I1
sVd0mupuy
p240
I1
sVd0oapp3
p241
I1
sVd093yfw
p242
I1
sVd8a0axg
p243
I1
sVczs3coa
p244
I1
sVdekqsp6
p245
I1
sVd259g13
p246
I1
sVdbcv32x
p247
I1
sVd5er0ev
p248
I1
sVdbh8s79
p249
I1
sVdeug0gz
p250
I1
sVdqx2rfc
p251
I1
sVd2sti04
p252
I1
sVd54iotr
p253
I1
sVdmle35j
p254
I1
sVcyvvrvj
p255
I1
sVd7zbq9n
p256
I1
sVdq3791a
p257
I3
sVczcec4u
p258
I1
sVd4q4r3w
p259
I1
sVdcastd2
p260
I1
sVday0gbh
p261
I2
sVdgaw1b3
p262
I2
sVdju9isl
p263
I1
sVd09l1fz
p264
I1
sVdfh7sj5
p265
I2
sVcyph3zp
p266
I1
sVdn1glww
p267
I2
sVczran92
p268
I1
sVdr3yrlz
p269
I1
sVdkpu0z6
p270
I1
sVdb05eqa
p271
I1
sVdf3d5rr
p272
I1
sVdcvook7
p273
I1
sVd4t4nrb
p274
I1
sVdfisc1b
p275
I1
sVdap93v8
p276
I1
sVdndlha4
p277
I1
sVd0quq7y
p278
I1
sVdb571ic
p279
I2
sVd6u8712
p280
I1
sVd72g8h1
p281
I1
sVd5mkonn
p282
I1
sVdtgir15
p283
I1
sVdex7f41
p284
I1
sVczy4jjd
p285
I1
sVd0lb60c
p286
I1
sVdd3zbzs
p287
I1
sVd1q1y76
p288
I1
sVczbuzcb
p289
I1
sVdjdzgdv
p290
I1
sVdrv50gf
p291
I1
sVdit9tkg
p292
I1
sVd15pjkm
p293
I1
sVd1cukwp
p294
I1
sVd6yn3sm
p295
I1
sVddn2mfr
p296
I1
sVdp1w8ds
p297
I1
sVdccorkz
p298
I1
sVdedbara
p299
I2
sVdbgvewo
p300
I1
sVd2aim7v
p301
I1
sVdd34e99
p302
I1
sVdn2qn7c
p303
I1
sVdikrzsr
p304
I1
sVda78kyu
p305
I2
sVdbw3xyk
p306
I1
sVd0tchvd
p307
I1
sVdfng6na
p308
I1
sVdfnhp9p
p309
I1
sVdaf3tvl
p310
I1
sVdfcicrk
p311
I2
sVde1bvfo
p312
I1
sVdc8f4x9
p313
I1
sVd4m5tl7
p314
I1
sVda1ax06
p315
I1
sVdeu24em
p316
I1
sVdnuiul0
p317
I1
sVd8i0he9
p318
I1
sVdo01ryf
p319
I1
sVd9sxacy
p320
I1
sVd8v2rvj
p321
I1
sVdpz97va
p322
I1
sVdcnrvb6
p323
I1
sVd1bzpck
p324
I1
sVd2p1433
p325
I1
sVda1qdxp
p326
I1
sVczca5u0
p327
I1
sVd92mm7g
p328
I1
sVdj5aofm
p329
I1
sVd01yise
p330
I1
sVd1vevo2
p331
I1
sVdqx5wz3
p332
I1
sVczcxz58
p333
I1
sVddhwdf3
p334
I1
sVdc6t105
p335
I1
sVd88be2u
p336
I1
sVd45459n
p337
I1
sVday9wxw
p338
I1
sVcywcass
p339
I1
sVd233keh
p340
I1
sVd37ndrq
p341
I1
sVd8eb0op
p342
I1
sVdip0zhe
p343
I1
sVd58dxrp
p344
I1
sVdejny0d
p345
I1
sVd0zs7zc
p346
I1
sVdmjpnn2
p347
I1
sVddu233g
p348
I1
sVdehbhkm
p349
I1
sVdsx9qsr
p350
I2
sVda2oj7y
p351
I1
sVczyzzq8
p352
I2
sVd1wci5a
p353
I1
sVd9zc7dn
p354
I1
sVdff5rnf
p355
I1
sVd13e8ln
p356
I1
sVczbep5e
p357
I1
sVd9ylbva
p358
I1
sVcymqfb6
p359
I1
sVdfxevt0
p360
I1
sVde09cwt
p361
I1
sVdb5atms
p362
I1
sVdbls51k
p363
I1
sVd086n0u
p364
I1
sVdrz5yj0
p365
I1
sVdh3bxpd
p366
I1
sVd8ou4fz
p367
I1
sVd3c3oyh
p368
I1
sVd90xguu
p369
I1
sVdjkfjt9
p370
I1
sVd0lmte3
p371
I1
sVdgdv7bo
p372
I1
sVdh1uhvv
p373
I1
sVd1iwt6d
p374
I3
sVd4qi503
p375
I1
sVda0bjdz
p376
I1
sVcz2t9h1
p377
I1
sVd0wrxjo
p378
I1
sVd2gox1x
p379
I1
sVdosopkv
p380
I1
sVdkirw4j
p381
I1
sVdgcmhzn
p382
I1
sVdoqjvke
p383
I1
sVdk877v6
p384
I1
sVcz4diet
p385
I1
sVd9fm2ow
p386
I1
sVd84uuxr
p387
I1
sVdidahxg
p388
I1
sVdf09dm8
p389
I1
sVd0724ox
p390
I1
sVdh3su5v
p391
I1
sVcyozk0u
p392
I1
sVdk0gfhc
p393
I1
sVd1r0r3n
p394
I1
sVdfxewn8
p395
I1
sVdkku4kz
p396
I1
sVd17rd2n
p397
I1
sVd2b70la
p398
I1
sVddbkzmx
p399
I1
sVd1zpv8o
p400
I1
sVd8m0s59
p401
I1
sVd4lwrqz
p402
I1
sVcz0e6ap
p403
I1
sVdnkj4oy
p404
I1
sVd2a914b
p405
I1
sVd2ralyo
p406
I1
sVd8aekfy
p407
I1
sVd5desji
p408
I1
sVd14iqd4
p409
I1
sVd01aldx
p410
I1
sVdf53sd8
p411
I1
sVd1atnhf
p412
I2
sVd9vuimh
p413
I1
sVdt4q6u8
p414
I1
sVdnv7cqc
p415
I1
sVdjmu27k
p416
I1
sVd5v3vk2
p417
I1
sVdhzrncm
p418
I1
sVdc38hx9
p419
I1
sVczw3klr
p420
I2
sVdambo4z
p421
I1
sVcyzxvzv
p422
I1
sVd53cigo
p423
I1
sVd7ecm85
p424
I1
sVdcnsmzp
p425
I1
sVd2f3uvu
p426
I1
sVd4bk0gh
p427
I1
sVd6pa5nu
p428
I1
sVd08q40n
p429
I1
sVdavqqyh
p430
I1
sVczwl60n
p431
I1
sVdd41dwk
p432
I1
sVde3w3mc
p433
I1
sVcyuyt5a
p434
I1
sVczlz6y5
p435
I1
sVd300o8r
p436
I1
sVd4fu644
p437
I1
sVdhoxk9c
p438
I1
sVd97jxu6
p439
I1
sVd1a4ssj
p440
I1
sVd2l0q0y
p441
I1
sVdifrxxs
p442
I1
sVddpvnms
p443
I2
sVd3970mq
p444
I1
sVd845d4q
p445
I1
sVdbc2etk
p446
I1
sVdkc1qvg
p447
I1
sVdngrbl4
p448
I1
sVd6wqswh
p449
I1
sVddb9n5k
p450
I2
sVdd25s6r
p451
I1
sVd4pse0t
p452
I1
sVd95qvi3
p453
I1
sVd3u01eb
p454
I1
sVcyjn51l
p455
I1
sVdoqwum0
p456
I1
sVdqkgewa
p457
I1
sVd7258nj
p458
I1
sVd7yz3gy
p459
I1
sVdoqzp5k
p460
I1
sVd4kydnj
p461
I1
sVdi80any
p462
I1
sVd6zzcz9
p463
I1
sVd0912zs
p464
I1
sVdszwyb6
p465
I1
sVd94orge
p466
I1
sVdafi1o0
p467
I1
sVd15zvoo
p468
I3
sVdcmfyx9
p469
I1
sVd7jdjht
p470
I1
sVd7jdxz6
p471
I1
sVdag6ztp
p472
I1
sVddum4e2
p473
I1
sVdk4p510
p474
I1
sVd0inf9t
p475
I1
sVd88eyfm
p476
I1
sVdpqzjkv
p477
I1
sVd25im42
p478
I1
sVd48hrwx
p479
I1
sVde69hx3
p480
I1
sVdc6usmu
p481
I1
sVd5ag67d
p482
I2
sVd56j2yc
p483
I1
sVcyrqt0f
p484
I1
sVd5ri5k8
p485
I2
sVd4a9j5y
p486
I1
sVdt3ntet
p487
I1
sVdi8y1vv
p488
I1
sVddo2djc
p489
I1
s.