(dp0
Vdh246ud
p1
I1
sVd2ldae1
p2
I1
sVdh1op97
p3
I1
sVdd3fblx
p4
I1
sVd2clgp0
p5
I1
sVd86ybm4
p6
I1
sVczh8ytc
p7
I1
sVdiu7gcs
p8
I2
sVddquwu9
p9
I1
sVd3gbrcy
p10
I1
sVdhnu19z
p11
I1
sVdixv57a
p12
I1
sVd2c30o2
p13
I1
sVdf8ofnw
p14
I1
sVd7fovdv
p15
I2
sVdisvuq1
p16
I5
sVdfvqtfl
p17
I1
sVd6aj4nt
p18
I1
sVd0jgpww
p19
I1
sVd6nmz8s
p20
I1
sVd1jurnj
p21
I1
sVd0oefsr
p22
I1
sVdcbazrt
p23
I1
sVd9ujn7c
p24
I1
sVddx5pxv
p25
I1
sVd2aryic
p26
I1
sVdaiwusk
p27
I1
sVdqstz45
p28
I2
sVdeelpvr
p29
I1
sVdatakie
p30
I1
sVdnp3es7
p31
I2
sVd6eekgu
p32
I3
sVdq4m2do
p33
I2
sVd1gozgi
p34
I1
sVdp3fcez
p35
I1
sVdd7s9dj
p36
I2
sVdcw0qa8
p37
I1
sVdd9zndg
p38
I1
sVd9f1tiq
p39
I1
sVddls0g3
p40
I3
sVdkj1zm4
p41
I1
sVdk7p354
p42
I1
sVd73ua4d
p43
I1
sVcz6n5xl
p44
I1
sVdifocg9
p45
I1
sVddf9emj
p46
I2
sVd88jo2p
p47
I5
sVdjsxsgd
p48
I1
sVd5qtm60
p49
I1
sVd5i62u2
p50
I1
sVd7bolt0
p51
I1
sVdkoya43
p52
I1
sVdeejn93
p53
I1
sVdhdxil3
p54
I2
sVdpufob3
p55
I1
sVdaabaab
p56
I2
sVdhsxq5t
p57
I4
sVcz036j1
p58
I1
sVd9bfwhr
p59
I1
sVcymdcm4
p60
I1
sVd8dsjow
p61
I2
sVczl5cmv
p62
I5
sVdc0ltvn
p63
I1
sVdf1x18h
p64
I1
sVd9b7xkd
p65
I1
sVd04u926
p66
I1
sVdejv6lf
p67
I1
sVdhp8gvl
p68
I2
sVd3kji2s
p69
I4
sVd9mdoix
p70
I2
sVdmyn7iy
p71
I1
sVd1unj20
p72
I1
sVdp6k6re
p73
I3
sVdhqjohe
p74
I1
sVdii9kn3
p75
I1
sVd0xju56
p76
I1
sVd1to8xz
p77
I1
sVdhrrev1
p78
I4
sVd71p858
p79
I3
sVczl2o64
p80
I1
sVdj6q35w
p81
I1
sVdafmr5n
p82
I1
sVczeje32
p83
I2
sVd6giybk
p84
I1
sVd29qxjk
p85
I1
sVd49t1jq
p86
I2
sVddw3ihu
p87
I1
sVd08qm5y
p88
I1
sVdotmfbv
p89
I1
sVdesmuh1
p90
I1
sVdefit4k
p91
I1
sVd20wrvw
p92
I5
sVd3kkha2
p93
I2
sVddqv428
p94
I1
sVdjsk7hw
p95
I1
sVdizr7bs
p96
I1
sVdf1w3qh
p97
I1
sVdda1bqq
p98
I1
sVddts6mb
p99
I4
sVd7ki3zt
p100
I1
sVdd9y7tw
p101
I1
sVd1uz22h
p102
I2
sVd71uu3u
p103
I1
sVd9y34ul
p104
I1
sVdg1ai8f
p105
I1
sVdsqh4e9
p106
I1
sVdg94jyg
p107
I1
sVdap5t85
p108
I1
sVd53mq61
p109
I1
sVddm1tv0
p110
I2
sVcymnqxq
p111
I1
sVd2iz4wr
p112
I1
sVd95fhd0
p113
I1
sVcykis7h
p114
I1
sVd2q3v8l
p115
I2
sVd2cm0ba
p116
I1
sVd3hi03g
p117
I1
sVdt4t523
p118
I1
sVd8pn69p
p119
I1
sVd48erix
p120
I1
sVdbxnehp
p121
I1
sVd755cpd
p122
I2
sVd0nu2l4
p123
I1
sVdfs7lqv
p124
I2
sVdhdgjbm
p125
I2
sVdii8a6f
p126
I1
sVd9ehjuu
p127
I1
sVd2q3y7n
p128
I1
sVdh25g64
p129
I1
sVd0eoq9g
p130
I2
sVdh48j6a
p131
I1
sVdgvymcm
p132
I1
sVdb91o4b
p133
I3
sVdnww2lr
p134
I1
sVdetlhlx
p135
I1
sVda4cxnx
p136
I1
sVd3zts19
p137
I1
sVd0wf18c
p138
I2
sVd76e8aw
p139
I1
sVd7t0nra
p140
I1
sVd9r7evv
p141
I1
sVd437m8c
p142
I1
sVd907vqb
p143
I2
sVdfnezuf
p144
I1
sVczjbvt7
p145
I1
sVdc1mgsz
p146
I1
sVd54dhtd
p147
I1
sVdpq1rej
p148
I2
sVdqb3z6c
p149
I1
sVde6cuz4
p150
I1
sVd6zk6h0
p151
I1
sVd7x0qbt
p152
I1
sVdcptayb
p153
I1
sVddyp0d0
p154
I1
sVd765gau
p155
I1
sVdcptqwu
p156
I2
sVdorbjny
p157
I1
sVd5ido5c
p158
I1
sVdco9so1
p159
I1
sVddre6zv
p160
I1
sVdoj7l1c
p161
I1
sVddlgve6
p162
I1
sVdefv88m
p163
I1
sVd71luta
p164
I4
sVd5p2zmc
p165
I1
sVd49o4tb
p166
I2
sVdfldmji
p167
I2
sVdd4mpdu
p168
I1
sVd8ortxm
p169
I1
s.