(dp0
Vczats5o
p1
I1
sVdhdfnbq
p2
I1
sVd2tnubd
p3
I1
sVddsvzkw
p4
I1
sVd2i9irh
p5
I1
sVdom2yb1
p6
I1
sVdf3c3d4
p7
I1
sVd4vi60w
p8
I2
sVdgjl3vt
p9
I1
sVd8uxw59
p10
I1
sVd2hot05
p11
I1
sVdaplkjq
p12
I1
sVd0isy17
p13
I1
sVcyz6qfs
p14
I1
sVdgj0vja
p15
I1
sVd627bam
p16
I1
sVdao0x7s
p17
I1
sVdkj0ynx
p18
I1
sVdaee0pb
p19
I1
sVdnstdzo
p20
I1
sVd5oozqg
p21
I1
sVdekyqdp
p22
I1
sVd0eo5dn
p23
I1
sVd035msx
p24
I1
sVd21hzmb
p25
I1
sVd19m8p3
p26
I1
sVdjlrfbz
p27
I1
sVdmqsery
p28
I1
sVd4v64lh
p29
I1
sVdeormje
p30
I1
s.