(dp0
Vcyjkc21
p1
I1
s.(dp0
Vd0iegjf
p1
I1
sVcyjkc21
p2
I1
s.(dp0
Vd2f5jb5
p1
I1
sVcyjkc21
p2
I1
s.(dp0
Vd2fal5h
p1
I1
sVcyjkc21
p2
I1
s.(dp0
Vcyjkc21
p1
I1
sVd3k2xvh
p2
I1
s.(dp0
Vd4m30mn
p1
I1
sVcyjkc21
p2
I1
s.(dp0
Vdc051c5
p1
I1
sVcyjkc21
p2
I1
s.(dp0
Vddomqvd
p1
I1
sVcyjkc21
p2
I1
s.(dp0
Vcyjkc21
p1
I1
sVde8gdgu
p2
I1
s.(dp0
Vdgnr9tf
p1
I1
sVcyjkc21
p2
I1
s.(dp0
Vdpp6c75
p1
I1
sVcyjkc21
p2
I1
s.