(dp0
Vd1a7zhp
p1
I1
sVdg2ss45
p2
I1
sVcyjb4ks
p3
I1
sVdayilun
p4
I1
sVczv5z7h
p5
I1
sVdemsoir
p6
I1
sVd4ib297
p7
I1
sVdfljgto
p8
I1
sVd7k8bgc
p9
I1
sVd39540x
p10
I1
sVd00e36p
p11
I1
sVd5087tu
p12
I1
sVcykdbok
p13
I1
sVd27omc6
p14
I1
sVczh5ara
p15
I1
sVdi32i34
p16
I1
sVdcx24yq
p17
I1
sVd5cboz6
p18
I1
sVdojmt1s
p19
I1
sVdpsc66c
p20
I1
sVderq6k5
p21
I1
sVd28xw75
p22
I1
sVd9g6wj4
p23
I1
sVdr6jzq2
p24
I1
sVd1ooum7
p25
I1
sVd3dt301
p26
I1
sVd5b7wv0
p27
I1
sVd0zcp0o
p28
I1
sVd5kygbh
p29
I1
sVde0r6u0
p30
I1
sVd4htfz8
p31
I1
sVd1v95ly
p32
I1
sVd68xg9j
p33
I1
sVdqxhxka
p34
I1
sVddwxdjf
p35
I1
sVd1ztkzr
p36
I1
sVd7dm8fv
p37
I1
sVd32gw79
p38
I1
sVd3k1ixa
p39
I1
s.