(dp0
Vdnec3bo
p1
I1
sVdd3lfq9
p2
I1
sVd4kvfbt
p3
I1
sVd9ctsrm
p4
I1
sVd2lv4q1
p5
I1
sVdbk7zyw
p6
I1
sVdcw3l4k
p7
I1
sVdmnueg0
p8
I1
sVdfvst1t
p9
I1
sVdc8skgv
p10
I1
sVdnzdk9c
p11
I1
sVd1mi2dk
p12
I1
sVd0wp9f4
p13
I1
sVdgnzys6
p14
I1
sVd4i6166
p15
I1
sVd20zubu
p16
I1
sVd2amajr
p17
I1
sVd507zfq
p18
I1
sVdn2dpdq
p19
I1
sVdmk64qh
p20
I1
sVd0txp6r
p21
I1
sVd5ec40b
p22
I1
sVd9zb42s
p23
I1
sVd3gfdsj
p24
I1
sVdkluhtk
p25
I1
sVddb4qzm
p26
I1
sVd4mmony
p27
I1
sVd8eun3i
p28
I1
sVdczchxm
p29
I1
sVd049xqq
p30
I1
sVdejtl45
p31
I1
sVdgcql5u
p32
I1
sVde0jb50
p33
I1
sVdfuk80w
p34
I1
sVcysyb22
p35
I1
sVdr1ahzb
p36
I1
sVd8o681r
p37
I1
sVde5ovdk
p38
I1
sVd9vouqz
p39
I1
sVdcueodv
p40
I1
sVdhgsfj8
p41
I1
sVdscjowx
p42
I1
sVdf8dsg6
p43
I1
sVdhxuquh
p44
I1
sVczt24ki
p45
I1
sVdqrjusb
p46
I1
sVdhvhefm
p47
I1
sVd1l4af7
p48
I1
sVdnberrd
p49
I1
sVdf1x18h
p50
I1
sVdmsxnk6
p51
I1
sVdctz8te
p52
I1
s.