(dp0
Vcyhu441
p1
I1
s.(dp0
Vcyhu441
p1
I1
sVcymgb9g
p2
I1
s.(dp0
Vcyhu441
p1
I1
sVcyojv4c
p2
I1
s.(dp0
Vcyhu441
p1
I1
sVd0cxc0f
p2
I1
s.(dp0
Vd0m4xzh
p1
I1
sVcyhu441
p2
I1
s.(dp0
Vcyhu441
p1
I1
sVd1ga5e0
p2
I1
s.(dp0
Vcyhu441
p1
I1
sVd1j1t7j
p2
I1
s.(dp0
Vcyhu441
p1
I1
sVd1u2noy
p2
I1
s.(dp0
Vcyhu441
p1
I1
sVd2cympr
p2
I1
s.(dp0
Vcyhu441
p1
I1
sVd33hqb0
p2
I1
s.(dp0
Vcyhu441
p1
I1
sVd37kmf0
p2
I1
s.(dp0
Vd3a0fla
p1
I1
sVcyhu441
p2
I1
s.(dp0
Vcyhu441
p1
I1
sVd40fxro
p2
I1
s.(dp0
Vcyhu441
p1
I1
sVd43nh1q
p2
I1
s.(dp0
Vcyhu441
p1
I1
sVd47aigd
p2
I1
s.(dp0
Vcyhu441
p1
I1
sVd4u7y1s
p2
I1
s.(dp0
Vd4zs4t8
p1
I1
sVcyhu441
p2
I1
s.(dp0
Vcyhu441
p1
I1
sVd5ugxgv
p2
I1
s.(dp0
Vcyhu441
p1
I1
sVd5x8144
p2
I1
s.(dp0
Vcyhu441
p1
I1
sVd6gjipb
p2
I1
s.(dp0
Vcyhu441
p1
I1
sVd6ln6vv
p2
I1
s.(dp0
Vcyhu441
p1
I1
sVd7k5ccf
p2
I1
s.(dp0
Vcyhu441
p1
I1
sVd7zx2jy
p2
I1
s.(dp0
Vcyhu441
p1
I1
sVd8qar2f
p2
I1
s.(dp0
Vcyhu441
p1
I1
sVd9xexn3
p2
I1
s.(dp0
Vcyhu441
p1
I1
sVd9zn3x2
p2
I1
s.(dp0
Vdarkotp
p1
I1
sVcyhu441
p2
I1
s.(dp0
Vcyhu441
p1
I1
sVdbg94a8
p2
I1
s.(dp0
Vcyhu441
p1
I1
sVdbjl8n3
p2
I1
s.(dp0
Vcyhu441
p1
I1
sVdbqz6j8
p2
I1
s.(dp0
Vcyhu441
p1
I1
sVdc4bnyh
p2
I1
s.(dp0
Vcyhu441
p1
I1
sVdc5fly3
p2
I1
s.(dp0
Vcyhu441
p1
I1
sVdc9vmxn
p2
I1
s.(dp0
Vcyhu441
p1
I1
sVdd91qlk
p2
I1
s.(dp0
Vddkdone
p1
I1
sVcyhu441
p2
I1
s.(dp0
Vcyhu441
p1
I1
sVddtwf3a
p2
I1
s.(dp0
Vcyhu441
p1
I1
sVdehuans
p2
I1
s.(dp0
Vcyhu441
p1
I1
sVdenvmoq
p2
I1
s.(dp0
Vcyhu441
p1
I1
sVdg96du9
p2
I1
s.(dp0
Vcyhu441
p1
I1
sVdg9ca4l
p2
I1
s.(dp0
Vcyhu441
p1
I1
sVdgesgyp
p2
I1
s.(dp0
Vcyhu441
p1
I1
sVdgo1rbk
p2
I1
s.(dp0
Vdh4pg57
p1
I1
sVcyhu441
p2
I1
s.(dp0
Vcyhu441
p1
I1
sVdhnuuav
p2
I1
s.(dp0
Vcyhu441
p1
I1
sVdhqs6gf
p2
I1
s.(dp0
Vcyhu441
p1
I1
sVdhv2ac8
p2
I1
s.(dp0
Vcyhu441
p1
I1
sVdj60q83
p2
I1
s.(dp0
Vcyhu441
p1
I1
sVdk0gfhc
p2
I1
s.(dp0
Vcyhu441
p1
I1
sVdkn85gu
p2
I1
s.(dp0
Vcyhu441
p1
I1
sVdmpx9cc
p2
I1
s.(dp0
Vcyhu441
p1
I1
sVdnkxwk3
p2
I1
s.(dp0
Vcyhu441
p1
I1
sVdp8028m
p2
I1
s.(dp0
Vcyhu441
p1
I1
sVdrmvz7r
p2
I1
s.(dp0
Vdsqnnho
p1
I1
sVcyhu441
p2
I1
s.(dp0
Vcyhu441
p1
I1
sVdsrmjf5
p2
I1
s.(dp0
Vcyhu441
p1
I1
sVdsuyj23
p2
I1
s.