(dp0
Vd06vbz5
p1
I1
sVdizfmvl
p2
I1
sVd1cu2dw
p3
I1
sVdabnme1
p4
I1
sVd2qh887
p5
I1
sVdeyj60r
p6
I1
sVdgcxx30
p7
I1
sVd2nhq5z
p8
I1
sVczxmqfo
p9
I1
sVdc1vtyo
p10
I1
sVcyqy5vz
p11
I1
sVdg6155g
p12
I1
sVd7s1v8t
p13
I1
sVcylqjhc
p14
I1
sVd8qm0kq
p15
I1
sVd0cxwvc
p16
I1
sVdrb040b
p17
I1
sVd7uil3a
p18
I1
sVdfidlf3
p19
I1
sVdc3hlhm
p20
I1
sVd5nbpgr
p21
I1
sVd8yy75b
p22
I1
sVcznwh5g
p23
I1
sVd6jnje5
p24
I1
sVdi06425
p25
I1
sVdeqstnc
p26
I1
sVdc5lao9
p27
I1
sVdf3eshj
p28
I1
sVdahaqeg
p29
I1
sVdmula69
p30
I1
sVdmotb8p
p31
I1
sVdmqrrfu
p32
I1
sVdedcd5m
p33
I1
sVd3mxml7
p34
I1
sVczi75oy
p35
I1
sVd3sxtj4
p36
I1
sVdg4jg7b
p37
I1
sVds8m428
p38
I2
sVd3deqqx
p39
I1
sVdd3ikf8
p40
I1
sVdbiqg6r
p41
I1
sVd5v7pdi
p42
I1
sVcziocm6
p43
I1
sVczgb73s
p44
I1
sVdcgegbd
p45
I1
sVdjtbzb5
p46
I1
sVd9vmkrl
p47
I1
sVdgdu4tz
p48
I1
sVd9yqi7w
p49
I1
sVd6bhecg
p50
I1
sVdan1yg2
p51
I1
sVd85xvpd
p52
I1
sVd77eybc
p53
I1
sVdh7essu
p54
I1
sVdeaintx
p55
I1
sVdecxg7c
p56
I1
sVdkd6eko
p57
I1
sVd6cmxbh
p58
I1
sVdgvxlsh
p59
I1
sVdee4isz
p60
I2
sVdf72nbf
p61
I1
sVdf1ud0g
p62
I3
sVdog2rrn
p63
I1
sVdfya1hu
p64
I1
sVd8zcpa7
p65
I1
sVd0ob5sh
p66
I1
sVdrkwwd4
p67
I1
sVczmqe23
p68
I1
sVdf1jgwq
p69
I1
sVd27lilz
p70
I1
sVd5i2k9u
p71
I3
sVdia88qq
p72
I1
sVcyj3iei
p73
I1
sVd5i2gjc
p74
I1
sVde2p7a4
p75
I1
sVdjec6yd
p76
I3
sVd0g966y
p77
I1
sVdj0vbob
p78
I1
sVd5i2uux
p79
I3
sVdehbcqe
p80
I1
sVdfhj918
p81
I1
sVd6b67vs
p82
I1
sVdh7x2pi
p83
I1
sVczu9uwh
p84
I1
sVdajkkcs
p85
I1
sVd5rp6hu
p86
I1
sVdhjaqwl
p87
I1
sVdga5zpr
p88
I1
sVdpfz58o
p89
I2
sVdgthaft
p90
I1
sVczi3zgn
p91
I1
sVdmlvnsz
p92
I1
sVdelddnk
p93
I1
s.