(dp0
Vcyxcrcx
p1
I1
sVd6ai4pj
p2
I1
sVdmwwqlt
p3
I1
sVdfd5gop
p4
I1
sVdskb0xn
p5
I2
sVd2bpa69
p6
I1
sVdjxxfev
p7
I1
sVdhw7cno
p8
I1
sVdikdnyt
p9
I2
sVcyiznix
p10
I1
sVdj4d63b
p11
I1
sVcz3kxk7
p12
I1
sVd8l9poy
p13
I1
sVdg3vavx
p14
I2
sVdbhu4di
p15
I1
sVdrkw4at
p16
I1
sVdclequ9
p17
I1
sVdq19xu0
p18
I1
sVd9600e2
p19
I1
sVd4h2cp2
p20
I1
sVdc2mqug
p21
I1
sVd2duykf
p22
I1
sVd6c5wbc
p23
I2
sVd6uhaa1
p24
I1
sVd3ufsfg
p25
I2
sVdcxbwwx
p26
I3
sVd06t8p5
p27
I1
s.