(dp0
Vd35fjhn
p1
I1
sVdq4qv7v
p2
I1
sVdj16qb2
p3
I2
sVdj00mgp
p4
I2
sVdr6y2q6
p5
I1
sVcykkhve
p6
I1
sVdd1q57j
p7
I3
sVdgqoazu
p8
I1
sVde0z83i
p9
I1
sVdb0pave
p10
I3
sVdn0bea5
p11
I2
sVdmxtw8j
p12
I1
sVdq3zhev
p13
I1
sVd2e55sz
p14
I3
sVdcw0h0w
p15
I1
sVdccd4uo
p16
I1
sVdccwtv3
p17
I1
sVd1wu9g4
p18
I1
sVd57aysl
p19
I1
sVczc3sgr
p20
I1
sVdb0gy5g
p21
I2
sVdch1tml
p22
I2
sVdknkn0u
p23
I1
sVdnkq5b7
p24
I2
sVdb0mwg8
p25
I3
sVddgbpn7
p26
I1
sVd1ius2p
p27
I1
sVd7443rk
p28
I1
sVdb0n83g
p29
I2
sVdjpvmpf
p30
I1
sVdcdnfxi
p31
I1
sVdc0a7rx
p32
I1
sVd0bk9th
p33
I3
sVdb0ircy
p34
I1
sVdderoo5
p35
I3
sVd4aubzq
p36
I1
sVdd5ow2x
p37
I1
sVdoszhkj
p38
I1
sVdc49yfm
p39
I2
sVddfokgy
p40
I3
sVd35evar
p41
I1
sVd4495v3
p42
I1
sVd77xz3e
p43
I1
s.