(dp0
Vdc5znx6
p1
I2
sVd4gj963
p2
I2
sVdj5uo2x
p3
I2
sVczmp9ni
p4
I1
sVd9judal
p5
I1
sVd8fcwvr
p6
I1
sVd82rme5
p7
I1
sVd0rjems
p8
I1
sVdr3bunp
p9
I2
sVd0ok838
p10
I1
sVdg6tmoz
p11
I1
sVd6k09an
p12
I1
sVd04a2sv
p13
I1
sVd6akvzw
p14
I1
sVda8ow6k
p15
I1
sVd8vz871
p16
I1
sVd4k65v5
p17
I1
sVd9rr2it
p18
I1
sVcys2vo2
p19
I1
sVd3yzr5m
p20
I1
sVdgfkkzl
p21
I1
sVd7qb34d
p22
I1
sVd9r7t62
p23
I1
sVdiyk3cr
p24
I1
sVdmxw87y
p25
I1
sVcylq3g7
p26
I1
sVdjopai2
p27
I1
sVd6aku9h
p28
I1
sVd4pz9s1
p29
I1
sVcz29ejm
p30
I1
sVd1x0f68
p31
I1
sVdr3bqt8
p32
I1
sVd6zg9s4
p33
I1
sVd5lo6ee
p34
I1
sVdr3kgn6
p35
I3
sVd8vsb1k
p36
I1
sVdfnamoq
p37
I1
sVd1rwlip
p38
I3
sVdstcslu
p39
I1
sVddia8dw
p40
I1
sVdpt2ha4
p41
I1
sVcyleu7u
p42
I1
sVd0656pn
p43
I1
sVd59nc35
p44
I1
sVcypirdr
p45
I1
sVd9x5y46
p46
I3
sVddbnqtx
p47
I1
sVdebc0oa
p48
I1
sVdc2vj7t
p49
I1
sVdcxh7az
p50
I9
sVd25kjht
p51
I1
sVdep4kda
p52
I1
sVczqkbbh
p53
I1
sVdojoph5
p54
I2
sVcziowq3
p55
I1
sVd6v84wj
p56
I1
sVdfiye9d
p57
I1
sVdduko82
p58
I1
sVd4ws5yt
p59
I2
sVdbdqv1k
p60
I1
sVdo1hgeu
p61
I1
sVdjkoixg
p62
I1
sVd8piol4
p63
I1
sVd0ru01m
p64
I2
sVdfixqg2
p65
I6
sVdrs4vyl
p66
I2
sVdaxtxxb
p67
I1
sVdj7ct3w
p68
I1
sVd6pagu8
p69
I1
sVdhe810t
p70
I1
sVdhab91c
p71
I1
sVdnmuyij
p72
I1
s.