(dp0
Vd61y95x
p1
I1
sVd97a3kf
p2
I1
sVd070xp7
p3
I1
sVdd5qz74
p4
I1
sVd14q5bi
p5
I1
sVd8x9u39
p6
I1
sVdg170q2
p7
I1
sVdh2blxs
p8
I1
sVdj3kccf
p9
I1
sVd5wnr23
p10
I1
sVdgiavz1
p11
I2
sVdhpt7xx
p12
I1
sVd0ztnvs
p13
I1
sVdbpnhvf
p14
I1
sVd4rtmv7
p15
I1
sVd1wm340
p16
I1
sVdr3kgn6
p17
I2
sVd1lq6b6
p18
I1
sVd6zg9s4
p19
I1
sVdojhap2
p20
I1
sVd7q8iaw
p21
I1
sVdf960hv
p22
I2
sVd5c566p
p23
I1
sVd3jsoh1
p24
I1
sVdsal0we
p25
I2
sVd8ttpa0
p26
I1
sVd0lmpve
p27
I1
sVczbocrh
p28
I1
sVd8vsb7y
p29
I1
sVdkd2wxj
p30
I1
sVd44dh58
p31
I1
sVd3c88vi
p32
I1
sVdgyine6
p33
I1
sVdhtp0yx
p34
I2
sVd8fvvba
p35
I1
sVddsyvzv
p36
I1
sVdfjxpra
p37
I1
sVdep4kda
p38
I1
sVd8yt4ly
p39
I1
sVd1hr38x
p40
I1
sVdd3zk2h
p41
I2
sVd0qm7v5
p42
I1
sVd7kh85x
p43
I1
sVdhv59cs
p44
I1
sVd6heh3z
p45
I1
sVd81mzv2
p46
I1
sVdfbyg38
p47
I1
sVdrzphxq
p48
I1
sVdb5c57n
p49
I1
sVdczmn09
p50
I1
sVd7y1a1s
p51
I1
sVdiwtqnn
p52
I1
sVdiwknve
p53
I1
sVdnqzt2r
p54
I1
sVczlz515
p55
I1
sVd9gq7yr
p56
I1
sVdivmung
p57
I2
sVds2ngh4
p58
I3
sVcz9ijrs
p59
I1
sVdr57sfn
p60
I1
sVd1o6ole
p61
I1
sVd1pdalu
p62
I1
sVdd434wu
p63
I1
sVdg4fx5l
p64
I1
s.