(dp0
Vd5iceir
p1
I1
sVda30sw3
p2
I1
sVd30478t
p3
I1
sVd40z2qv
p4
I1
sVdgvw69k
p5
I1
sVdnbyrfl
p6
I1
sVd7504st
p7
I1
sVd3o8llq
p8
I1
sVdgm2nda
p9
I1
sVcywp1a9
p10
I1
sVd2yzveo
p11
I1
sVdpsufm2
p12
I1
sVdk531uu
p13
I1
sVczqiabm
p14
I1
sVdde4hav
p15
I1
sVd9iq042
p16
I1
sVd8dug28
p17
I1
sVd40z3v6
p18
I1
sVdc915bg
p19
I1
sVd1cliwn
p20
I1
s.