(dp0
Vczm6naq
p1
I1
s.(dp0
Vd5c152k
p1
I1
sVczm6naq
p2
I1
s.(dp0
Vd6jeonu
p1
I1
sVczm6naq
p2
I1
s.(dp0
Vd7v45s4
p1
I1
sVczm6naq
p2
I1
s.(dp0
Vd7v45s4
p1
I1
sVczm6naq
p2
I1
s.(dp0
Vd9t4wnl
p1
I1
sVczm6naq
p2
I1
s.(dp0
Vdb6ki1y
p1
I1
sVczm6naq
p2
I1
s.(dp0
Vczm6naq
p1
I1
sVdgqyh3d
p2
I1
s.(dp0
Vdi4jv9g
p1
I1
sVczm6naq
p2
I1
s.(dp0
Vczm6naq
p1
I1
sVdidxfq8
p2
I1
s.(dp0
Vczm6naq
p1
I1
sVdn3x17h
p2
I1
s.