(dp0
Vdb056mn
p1
I1
sVcz0sut1
p2
I1
sVdij8jl7
p3
I1
sVdrzs3l4
p4
I1
sVdp29oeu
p5
I1
sVd57ibk1
p6
I1
sVd20jjr9
p7
I1
sVdms4ut2
p8
I1
sVde5kmwd
p9
I1
sVdtd4lmx
p10
I1
sVd6qt0or
p11
I1
sVd6hzq4j
p12
I1
sVdh44ddz
p13
I1
sVdnq06xf
p14
I1
sVddim2b1
p15
I1
sVde6pw91
p16
I1
sVd4hdcw7
p17
I1
sVd7nx8j5
p18
I1
sVde8688c
p19
I1
sVda09d5k
p20
I1
sVd77tp1g
p21
I1
sVdnueob9
p22
I1
sVd7pw2vz
p23
I1
sVczhtrcn
p24
I1
sVd440m4p
p25
I1
sVdkxtel8
p26
I1
s.