(dp0
Vcykg2gc
p1
I1
sVdjivk7b
p2
I1
sVd5edrpk
p3
I1
sVde9nkgm
p4
I1
sVd0rbk1f
p5
I1
sVdbnypp8
p6
I3
sVd4igdno
p7
I1
sVdesyvrg
p8
I4
sVdhfadhc
p9
I1
sVd7a8p12
p10
I1
sVdhfiesq
p11
I1
sVd3ajatx
p12
I2
sVd0j6mw2
p13
I1
sVd6i799y
p14
I1
sVd5srk4e
p15
I1
sVdk4p4lb
p16
I2
sVdsqb8lv
p17
I1
sVdetm8di
p18
I1
sVd2q8rn4
p19
I2
sVdb3bud0
p20
I1
s.