(dp0
Vcz96g5a
p1
I1
sVdrmism6
p2
I1
sVdgoj44t
p3
I1
sVds40uwv
p4
I1
sVd8drc3i
p5
I1
sVdg8l10j
p6
I1
sVd3te8to
p7
I1
sVdgc9jvw
p8
I1
sVddklas0
p9
I1
sVd3djxg5
p10
I1
sVddhveeo
p11
I1
sVdmza9u4
p12
I1
sVd0au5zm
p13
I3
sVczix30a
p14
I1
sVdepo7ft
p15
I1
sVdkxx7tx
p16
I2
sVdhlmdws
p17
I2
sVdbl66ug
p18
I1
sVdebl5pb
p19
I1
sVd07wios
p20
I1
sVdrmupdq
p21
I1
sVdrmu8qg
p22
I1
sVdhlo1l2
p23
I1
sVd6v64xu
p24
I1
sVd355106
p25
I1
sVdi723h0
p26
I1
sVdn7lswa
p27
I1
sVdd4rwqn
p28
I1
sVd893i07
p29
I1
sVd24ex71
p30
I1
sVdfvkdin
p31
I1
sVdblc1kw
p32
I1
sVdiqgx4s
p33
I1
sVd0qxwg4
p34
I1
sVd9ntam5
p35
I1
sVd2pvhav
p36
I1
sVdo426nk
p37
I1
sVcypqywq
p38
I1
sVdt4fts6
p39
I1
sVdjhnr9z
p40
I1
sVd010rgg
p41
I1
sVd2bxcgj
p42
I1
sVdhvb4uv
p43
I1
sVd82961l
p44
I1
sVdpxe8qf
p45
I1
sVdmvozpk
p46
I1
sVdhef6x7
p47
I1
sVdaanl2e
p48
I1
sVdbmqo0a
p49
I1
sVd5oqeam
p50
I1
sVdi748d4
p51
I1
sVd44i2ex
p52
I1
sVddfl23a
p53
I1
sVd3te0ma
p54
I1
sVdn9rxy5
p55
I1
sVdpt1qme
p56
I1
sVd1n1um9
p57
I1
sVdhrb0re
p58
I1
sVdhln0ia
p59
I1
sVd04mcc6
p60
I1
sVd9mxu7x
p61
I1
sVdrmbb51
p62
I1
sVdirnhb6
p63
I1
sVdhlory6
p64
I1
sVcznvpxo
p65
I1
sVdav6i51
p66
I1
sVd0w77t9
p67
I1
sVdn9blxk
p68
I1
sVdd3ecop
p69
I1
sVd15338f
p70
I1
sVd25kyt1
p71
I2
sVds488mb
p72
I1
sVde9phpg
p73
I1
sVda92d1g
p74
I1
sVdkhdq27
p75
I1
sVdhlovqp
p76
I1
sVd0gqu2e
p77
I1
sVd3waqng
p78
I2
sVcyt0gyd
p79
I1
sVdh8qzqf
p80
I1
sVdgum2pj
p81
I1
sVdodpa9b
p82
I1
sVd5lza02
p83
I1
sVd7edm0v
p84
I1
sVd1d599x
p85
I1
sVdn4229s
p86
I1
sVdbil918
p87
I1
sVd4latpt
p88
I1
sVdhlnfl1
p89
I1
sVd08m6by
p90
I1
sVd3fqnf0
p91
I1
sVdp8nlt6
p92
I1
sVd8ao3lz
p93
I1
sVd8a2xb2
p94
I1
sVdhjb8zb
p95
I1
sVdk1dt87
p96
I1
sVdtgqksl
p97
I1
sVdkiighe
p98
I2
sVdavbmaz
p99
I1
sVdhwxalc
p100
I2
sVdig4dh0
p101
I1
sVdd7n8ud
p102
I1
sVdigmqxk
p103
I1
sVdbt286x
p104
I1
sVdal37ah
p105
I1
sVd44fgvn
p106
I1
sVdd4kaih
p107
I1
sVde897gx
p108
I1
sVdgcp650
p109
I2
sVdrmq3lr
p110
I2
sVd19gr1w
p111
I1
sVde55km6
p112
I1
sVdrn55xd
p113
I1
s.