(dp0
Vd9cb1rg
p1
I1
sVd2se34i
p2
I2
sVd4h7r7g
p3
I2
sVd3227x8
p4
I1
sVd02zlju
p5
I1
sVd178x3x
p6
I2
sVdg6cul7
p7
I1
sVd4h770p
p8
I1
sVd05gvh5
p9
I1
sVdjdj8pl
p10
I1
sVdghta0i
p11
I1
sVd178u0a
p12
I1
sVdnylrm9
p13
I1
sVdegvyk0
p14
I1
sVdbqr0xf
p15
I1
sVdmgxxc6
p16
I1
sVcz1hdie
p17
I1
sVdav7jh7
p18
I1
sVdmjw8ag
p19
I1
sVdjdr8j1
p20
I1
sVd31zfqm
p21
I1
sVdcjbfas
p22
I1
sVdjdbnt3
p23
I1
sVdmjouz6
p24
I1
sVd42t83c
p25
I1
sVdhhage0
p26
I1
sVdbvon90
p27
I1
sVdi1sazg
p28
I2
sVds5w71g
p29
I1
sVdc3fya6
p30
I1
sVdft3m3e
p31
I1
sVdc0pdwm
p32
I1
sVd61dh54
p33
I1
sVdcjavvo
p34
I5
sVdo2pca7
p35
I1
sVdcn1xf3
p36
I1
sVdjd8irn
p37
I1
s.