(dp0
Vdf6ewp6
p1
I1
sVd0nx6jb
p2
I1
sVdqngmlu
p3
I1
sVdk6nzwe
p4
I1
sVcytz8yz
p5
I2
sVdgj6wrs
p6
I1
sVd3hs8v1
p7
I1
sVdh88hax
p8
I1
sVdfxt4nn
p9
I2
sVd1nlotw
p10
I1
sVdiz2vy0
p11
I1
sVd776yio
p12
I1
sVd89lg4j
p13
I1
sVd8lsgc3
p14
I1
sVddw0lpw
p15
I3
sVd1hqjas
p16
I1
sVd92vvoq
p17
I1
sVd4cvbts
p18
I2
sVd0yaae0
p19
I1
sVdo4ow73
p20
I1
sVdfxtg45
p21
I2
sVczkwma1
p22
I1
sVd3yezia
p23
I1
s.