(dp0
Vd77ce34
p1
I1
sVdg7g3ni
p2
I1
sVdmiiyas
p3
I1
sVdapc8wx
p4
I1
sVd7e6ypo
p5
I1
sVd2zixpf
p6
I1
sVd5064un
p7
I1
sVdd3c7ua
p8
I1
sVdf795mm
p9
I1
sVdfllsz4
p10
I2
sVdpt5q24
p11
I1
sVdsp1025
p12
I1
s.