(dp0
Vd5na5gi
p1
I1
sVd9afct4
p2
I3
sVdn6fan1
p3
I1
sVdei8p9d
p4
I1
sVd93fpog
p5
I1
sVdn6cdsc
p6
I3
sVd3iv9fr
p7
I1
sVdn6va5s
p8
I2
sVd3iul8a
p9
I2
sVd6eg19e
p10
I2
sVd6efc0e
p11
I2
sVdn6frle
p12
I4
sVddk75ew
p13
I3
sVdn6f85b
p14
I2
sVdn6jhk7
p15
I1
sVd9adyiy
p16
I1
s.