(dp0
Vdcgziod
p1
I1
sVdt0b3x0
p2
I1
sVd72pamm
p3
I1
sVdd4s10x
p4
I1
sVd07cp32
p5
I1
sVdkn6lhi
p6
I1
sVd7sxrf1
p7
I1
sVd3k8j0e
p8
I1
sVd07cohw
p9
I2
sVdazkq9b
p10
I3
sVd5oss0g
p11
I1
sVdj0x5m6
p12
I1
sVdgijz9c
p13
I1
sVdhhage0
p14
I2
sVdd2b9im
p15
I1
sVdnkm28p
p16
I1
sVdazpxbl
p17
I1
sVdkp6bad
p18
I1
sVddwhdhs
p19
I1
sVdaxxd3b
p20
I1
sVdd4qyev
p21
I1
sVdhi3i2q
p22
I1
sVdmm9r5e
p23
I1
s.