(dp0
Vczy3kq8
p1
I1
s.(dp0
Vczy3kq8
p1
I1
sVd08wjq1
p2
I1
s.(dp0
Vd1uynfr
p1
I1
sVczy3kq8
p2
I1
s.(dp0
Vczy3kq8
p1
I1
sVd6vb6i2
p2
I1
s.(dp0
Vczy3kq8
p1
I1
sVd6vb6i2
p2
I1
s.(dp0
Vda1zqf0
p1
I1
sVczy3kq8
p2
I1
s.(dp0
Vczy3kq8
p1
I1
sVdp8wyjl
p2
I1
s.