(dp0
Vd95ed1o
p1
I2
sVdj2251k
p2
I1
sVd57htnh
p3
I1
sVd0c2g4x
p4
I1
sVd90gz8p
p5
I1
sVd0kl9aw
p6
I1
sVczgrr4h
p7
I1
sVd9v9npl
p8
I1
sVdgjx9oy
p9
I1
sVczi6f8r
p10
I1
sVd7tkfu8
p11
I1
sVd2yj1hd
p12
I1
sVde8tx9v
p13
I1
sVdniy1tp
p14
I1
sVda0vgyq
p15
I1
sVd8puyib
p16
I1
sVd5uwybm
p17
I1
sVdmlpbtn
p18
I1
sVd95euhe
p19
I2
sVd3lkoko
p20
I1
sVd6q8uzm
p21
I1
sVd5711xb
p22
I1
sVd7sn28y
p23
I1
sVdpli14n
p24
I1
sVdkeyv0q
p25
I1
sVdc9ab34
p26
I1
sVdf7i6xb
p27
I1
sVd2f7jnm
p28
I1
sVdkuavax
p29
I1
sVd3lnrun
p30
I1
sVd3g4xn3
p31
I1
sVdh0iocw
p32
I2
sVdcxtphp
p33
I2
sVdjqi69z
p34
I1
sVdcm73qp
p35
I1
sVdkzd5j6
p36
I1
sVd1zwl43
p37
I1
sVd0741q5
p38
I1
sVddstrlx
p39
I2
sVd10p0qc
p40
I1
sVdcql1t2
p41
I1
sVd0cgmiu
p42
I1
sVd82bs8b
p43
I1
sVdgg30ri
p44
I1
sVd0hdksv
p45
I1
sVd07zd0i
p46
I1
sVdgkcm1d
p47
I1
sVdcw5q0s
p48
I2
sVde1c7ye
p49
I1
sVd0hm4tq
p50
I1
sVd1ou6bz
p51
I1
sVdfbdvur
p52
I1
sVdej6ezi
p53
I1
sVd42b1m2
p54
I1
sVd2tal8r
p55
I2
sVdnbwecs
p56
I1
sVdh6973e
p57
I1
sVd0xewpw
p58
I1
sVdkzn4a0
p59
I2
sVd0a00fb
p60
I1
sVddcrs13
p61
I1
sVcznr5gn
p62
I1
sVdeukmkp
p63
I2
sVd1j117j
p64
I1
sVdmuer0r
p65
I1
sVd0ccpkb
p66
I1
sVdcq45o8
p67
I1
sVd2dg72c
p68
I1
sVd4w6del
p69
I1
sVdego1tm
p70
I1
sVcyxecr4
p71
I1
sVdenul3i
p72
I1
sVd6ei03a
p73
I1
sVd2nbz0z
p74
I1
sVd20gtjr
p75
I1
sVdesglal
p76
I1
sVdh67asc
p77
I1
sVczhas2t
p78
I1
sVdek5kku
p79
I1
sVdgdron8
p80
I1
sVdb92vbg
p81
I1
sVdgjswb8
p82
I1
sVdkzctnf
p83
I1
sVdeeki4v
p84
I1
sVd0pxuj5
p85
I1
sVd9xdflw
p86
I1
sVd9tnk9h
p87
I1
sVd4dc7kr
p88
I1
sVd72dlxy
p89
I1
sVd03xuat
p90
I1
sVdc463aw
p91
I1
sVd0jicp9
p92
I2
sVd1tzywj
p93
I1
sVd1vs30a
p94
I1
sVd8502ok
p95
I1
sVddk5v21
p96
I1
sVdew77ln
p97
I6
sVd8kbfof
p98
I1
sVd05nfss
p99
I1
s.