(dp0
Vdqnic8g
p1
I1
sVdexfzml
p2
I1
sVd3qxeau
p3
I1
sVdt6qvo8
p4
I1
sVdn1d5km
p5
I2
sVcyuebbo
p6
I1
sVden3s59
p7
I1
sVdct4jov
p8
I1
sVd0slogt
p9
I1
sVd1hx2dj
p10
I1
sVdbc7dqb
p11
I1
sVdgfyfpj
p12
I1
sVdiuy21b
p13
I1
sVd1z7leo
p14
I1
sVd1jl85q
p15
I1
sVddw1l0p
p16
I1
sVdj4jb57
p17
I1
sVdkwwacc
p18
I1
sVdk4tq1e
p19
I1
sVdeaa2pg
p20
I1
sVdcdw9hr
p21
I1
sVd0sw9wp
p22
I1
sVcyxcoor
p23
I1
sVd04j71u
p24
I1
sVdsqauz5
p25
I1
sVd18mite
p26
I2
sVda51ypi
p27
I1
sVd65t72z
p28
I1
sVd0g52b3
p29
I1
sVdngyt1o
p30
I1
sVdbvtnr8
p31
I1
sVczma4m2
p32
I1
sVds7pnc0
p33
I1
sVdk3bjws
p34
I1
sVd20hdol
p35
I1
sVdiij1hp
p36
I1
sVdg6428i
p37
I1
sVdjnzz39
p38
I1
sVdbdl0md
p39
I1
sVdgx62sv
p40
I1
sVdc9m838
p41
I1
sVd0ifk48
p42
I1
sVdeg7wrb
p43
I1
sVcz9t16l
p44
I1
sVd0ku7lw
p45
I1
sVcyix9zp
p46
I1
sVcz6jjha
p47
I1
sVdb8dcni
p48
I1
sVdbui4wu
p49
I1
sVd2rj2cj
p50
I1
sVd1izcvy
p51
I1
sVd0yd7hv
p52
I1
sVcytrz3w
p53
I1
sVd4mq9ld
p54
I1
sVd3bkkvr
p55
I1
sVdd16p15
p56
I1
sVd1dtrti
p57
I1
sVddcnta9
p58
I1
sVd3lz3hf
p59
I1
sVcyozzhz
p60
I1
sVd3mmix2
p61
I1
sVcyp5odn
p62
I1
sVdhg4pl9
p63
I1
sVdf89kmi
p64
I1
sVczx3vtm
p65
I1
sVd03fnsq
p66
I1
sVd03ko2z
p67
I1
sVd7slssd
p68
I1
sVdea4mce
p69
I1
sVd2la73v
p70
I1
sVd87x2q7
p71
I1
sVd3hzenc
p72
I1
s.