(dp0
Vczicfz2
p1
I1
sVcz7s2gc
p2
I1
sVdbhkqv9
p3
I1
sVdficlj3
p4
I1
sVd9ks3ap
p5
I1
sVcyogqje
p6
I1
sVd1hkpwd
p7
I1
sVdiahkqi
p8
I1
sVdr22o3g
p9
I1
sVdip9y9y
p10
I1
sVdd3ikmy
p11
I1
sVd1hvz0t
p12
I1
sVde13ss2
p13
I1
sVdekzzdg
p14
I1
sVdgwhgh3
p15
I1
sVdc78bew
p16
I1
sVd65a8h6
p17
I1
sVd8hgf69
p18
I1
sVdcuzkvg
p19
I1
sVdgpds06
p20
I1
sVd0rl813
p21
I1
sVd0sbdq6
p22
I1
sVd0pu01k
p23
I1
sVdkk1cwz
p24
I1
sVdbyi49h
p25
I1
sVd0hf9mv
p26
I1
sVd7uxydr
p27
I1
sVdouxqhu
p28
I1
sVd2sgw2n
p29
I1
sVd9b21km
p30
I1
sVd2c0isl
p31
I1
sVcz2oisi
p32
I1
sVd6vr1iy
p33
I3
sVd4pn2qq
p34
I1
sVcyi2nxe
p35
I1
sVddzkn27
p36
I1
sVd2tl8zf
p37
I1
sVdihdtq9
p38
I1
sVdahs020
p39
I1
sVd8w9v4z
p40
I1
sVd1mqpzh
p41
I1
sVdgtize9
p42
I1
sVd9pldnt
p43
I1
sVd7m4mc7
p44
I1
sVdpgr29z
p45
I1
sVdg04vcx
p46
I1
sVds1i4e3
p47
I1
sVds4gnf5
p48
I1
sVdknpwnz
p49
I1
sVdawwl4c
p50
I1
sVd2kgmxi
p51
I1
sVdbgmndc
p52
I1
sVd1o3k1c
p53
I1
sVczg4aql
p54
I1
sVd850odq
p55
I1
s.