(dp0
Vcyyuhih
p1
I1
sVddzuthi
p2
I3
sVcyzfovy
p3
I2
sVdgdron8
p4
I1
sVdao7os7
p5
I1
sVd1jgkky
p6
I1
sVd1lm4uj
p7
I1
sVczwbm8a
p8
I1
sVczczfb4
p9
I1
sVd8h0jg8
p10
I1
sVd5uehve
p11
I1
sVd1qy8bf
p12
I1
sVd5uf52n
p13
I1
sVde55vyo
p14
I1
sVdf4ap5p
p15
I1
sVdecl9np
p16
I1
sVdd5qjk9
p17
I1
sVd7ki3zt
p18
I3
sVdnj93et
p19
I1
sVd02ql2d
p20
I1
sVd3yu4fk
p21
I1
sVd584yyq
p22
I1
sVd3znyh3
p23
I1
sVcz01fia
p24
I1
sVdt4xm0g
p25
I1
sVd9o7kt7
p26
I1
sVdi0z81h
p27
I1
sVdep5lz6
p28
I1
sVd2l9eui
p29
I2
sVde15glj
p30
I1
sVds07frn
p31
I1
sVcz2ijax
p32
I1
sVcyrayk1
p33
I1
sVd5h390d
p34
I1
sVcyr6or7
p35
I1
sVdsqh4e9
p36
I3
sVd1pcxu4
p37
I2
sVdnl6a3l
p38
I1
sVd62o65b
p39
I4
sVdgt5s7z
p40
I1
sVdfq3wn3
p41
I1
sVcyqj6yi
p42
I1
sVd4wthuv
p43
I1
sVd5363c9
p44
I1
sVcyqsnz8
p45
I1
s.