(dp0
Vcykj6nb
p1
I1
s.(dp0
Vcyx0695
p1
I1
sVcykj6nb
p2
I1
s.(dp0
Vczjs6vq
p1
I1
sVcykj6nb
p2
I1
s.(dp0
Vcykj6nb
p1
I1
sVd1hj60q
p2
I1
s.(dp0
Vd4o2460
p1
I1
sVcykj6nb
p2
I1
s.(dp0
Vd4o2460
p1
I1
sVcykj6nb
p2
I1
s.(dp0
Vcykj6nb
p1
I1
sVd7o02pf
p2
I1
s.(dp0
Vcykj6nb
p1
I1
sVd7pqkkd
p2
I1
s.(dp0
Vcykj6nb
p1
I1
sVd8suw6i
p2
I1
s.(dp0
Vdaqi9sg
p1
I1
sVcykj6nb
p2
I1
s.(dp0
Vdcdusrv
p1
I1
sVcykj6nb
p2
I1
s.(dp0
Vdcdxq71
p1
I1
sVcykj6nb
p2
I1
s.