(dp0
Vdct4eu0
p1
I1
sVdhixagd
p2
I1
sVdjg6lso
p3
I1
sVd5i0zu3
p4
I1
sVd1g81yn
p5
I2
sVdj7c8b1
p6
I1
sVdn8cmfg
p7
I1
sVd3wvnhz
p8
I1
sVdruqwzs
p9
I1
sVdfqvfqt
p10
I1
sVdgimiyf
p11
I1
sVd9vv83s
p12
I1
sVdhahze1
p13
I2
sVd7r4wzq
p14
I1
sVd9uvihj
p15
I1
sVd1todw1
p16
I1
sVd04cdon
p17
I1
sVd78mrwk
p18
I1
sVdsqdccc
p19
I1
sVd9kqz3w
p20
I1
sVdbn20l0
p21
I1
sVd2hqk7e
p22
I1
sVdiemi7g
p23
I1
sVd3oey6x
p24
I1
sVdqbsq3h
p25
I1
sVdig3whu
p26
I1
sVd5gme2q
p27
I1
sVdgibjlw
p28
I1
sVd7avedr
p29
I1
sVcz7jtgm
p30
I1
sVd9ael9u
p31
I1
sVdcb52q7
p32
I2
sVdeh8cl4
p33
I1
sVdhj7hq2
p34
I1
sVd3jnneb
p35
I1
sVdotct09
p36
I1
sVdd6spqn
p37
I1
sVd4i8pwp
p38
I1
sVde5vg79
p39
I1
sVd64ppld
p40
I1
sVd211nnc
p41
I2
sVde9t9vf
p42
I1
sVd3wtm55
p43
I1
sVdjnx627
p44
I1
sVdbu3yaj
p45
I1
sVd2njgiy
p46
I1
sVd7ns2xz
p47
I1
sVdaajcl0
p48
I1
sVd7v4qt9
p49
I1
sVd6aw4x3
p50
I1
sVdecygq9
p51
I1
sVd5x1879
p52
I1
sVdcqv1yf
p53
I1
sVd8xrj6p
p54
I1
sVcyij13c
p55
I2
sVdbisx1o
p56
I1
sVd72vi20
p57
I2
sVdolyl9i
p58
I1
sVdqeev7d
p59
I1
sVd87fkgh
p60
I1
sVdobl7zb
p61
I1
sVdt7dqzd
p62
I1
sVde8uam9
p63
I1
sVdndzbf8
p64
I1
sVdocx1cm
p65
I1
sVd5pw0cp
p66
I1
sVdanqdex
p67
I1
sVdkgjqfy
p68
I1
sVdh6tzz2
p69
I1
sVd2a3i1k
p70
I1
sVd23t0bq
p71
I1
sVdplkcde
p72
I1
sVdhvsp19
p73
I1
sVd23b8tx
p74
I1
sVd3c2p3g
p75
I1
sVdjidcv0
p76
I1
sVd18kvux
p77
I1
sVd47sq4q
p78
I1
sVddw5yck
p79
I1
sVd6p1e94
p80
I3
sVdc0at3z
p81
I1
sVd05xngf
p82
I1
sVcyp5odn
p83
I1
sVdjdaaqj
p84
I1
sVdbipiui
p85
I1
sVdno64zu
p86
I1
sVd3eaghn
p87
I1
sVczg432s
p88
I1
sVd8fk59e
p89
I1
sVd0tal20
p90
I1
sVczxx6pe
p91
I1
sVd7sdt0v
p92
I1
sVd5rhhhz
p93
I1
sVdckq4oj
p94
I1
sVda2rsvp
p95
I1
sVd3i0b6f
p96
I1
sVdioi2e2
p97
I1
sVdmwjwum
p98
I1
sVdb64k6z
p99
I1
sVd5c02k8
p100
I1
sVd9blss9
p101
I1
sVdfovim0
p102
I1
sVdpwdkp6
p103
I1
sVdnr82ac
p104
I1
sVd3nrrba
p105
I1
sVd71ixg5
p106
I1
sVd1fg0ch
p107
I1
sVda6v4fx
p108
I1
sVczoaiu9
p109
I1
sVdmks5g3
p110
I1
sVd0d1m2i
p111
I1
sVd0cdcdl
p112
I3
sVd1buhqn
p113
I1
sVdkq37ah
p114
I1
sVdb53zr5
p115
I1
sVdk8rskv
p116
I1
sVd5qz6fg
p117
I1
sVddyq5dl
p118
I1
sVdiaoegg
p119
I1
sVd8651xk
p120
I1
sVdjqj912
p121
I2
sVd34lfmb
p122
I1
sVd54iog0
p123
I1
sVdt3msqe
p124
I1
sVdb1903i
p125
I1
sVdq62bp7
p126
I1
sVd8ygt1q
p127
I1
sVdck6i1h
p128
I1
sVdojfzmi
p129
I1
sVd7gcxec
p130
I1
sVdbata94
p131
I1
sVd72j0ev
p132
I2
sVd0dvc9y
p133
I2
sVd7wuiq5
p134
I1
sVdghvang
p135
I1
sVdcvshmh
p136
I1
sVddnagxj
p137
I1
sVd19mp3s
p138
I1
sVd5di4ur
p139
I1
sVdakt4vo
p140
I1
sVdt20ffy
p141
I1
sVdk7947h
p142
I1
sVdf00cw8
p143
I1
sVdd1sfbd
p144
I1
sVd3gstc6
p145
I1
sVczadbep
p146
I1
sVd16kmd2
p147
I1
sVdrfk0yx
p148
I1
sVcyo670b
p149
I1
sVdihe7ow
p150
I1
sVczvpsw4
p151
I1
sVdgolwoc
p152
I1
sVd7ilp1b
p153
I1
sVdmu9i66
p154
I1
sVdqh86mf
p155
I1
sVd3g2oq3
p156
I1
sVd1iyq7l
p157
I1
sVdmnvzsh
p158
I1
sVd430ici
p159
I1
sVd60lmj2
p160
I1
sVd6cs7vh
p161
I2
sVdosp0rn
p162
I1
sVd5hxlcr
p163
I1
sVdfqa7o4
p164
I1
sVdeyini3
p165
I1
sVdb27sg5
p166
I1
sVd80nmdk
p167
I1
sVdbwkw3t
p168
I1
sVddqkhwa
p169
I1
sVd0elc4a
p170
I1
sVdj8h8m9
p171
I1
sVdmq9im8
p172
I1
sVd6ptbpq
p173
I1
sVdrbv8kv
p174
I1
sVdompsgf
p175
I1
sVd9ak65k
p176
I1
sVd5ptw1d
p177
I1
sVd0q3p0a
p178
I1
sVdkfppcy
p179
I1
sVczz970r
p180
I1
sVdh4pjwu
p181
I1
sVdfjxfxv
p182
I1
sVddzzie9
p183
I1
sVd7jzw5i
p184
I1
sVd1jeskg
p185
I1
sVdpvhfnt
p186
I1
sVdhabg9u
p187
I1
sVczemq78
p188
I1
sVd7x72rr
p189
I1
sVdhxnwah
p190
I1
sVdgre805
p191
I1
sVdcsd9qg
p192
I3
sVd91ifql
p193
I1
sVcyxrocf
p194
I1
sVdb10dcl
p195
I1
sVdacbg85
p196
I1
sVdd1wn8b
p197
I1
sVcylgry5
p198
I1
sVd5gsbq4
p199
I1
sVd1n5qmb
p200
I1
sVd04ll95
p201
I1
sVdo8miq5
p202
I2
sVdbaqq7h
p203
I3
sVcywseiv
p204
I1
sVdkjmasp
p205
I1
sVd3g5lqh
p206
I1
sVd42jadj
p207
I1
sVdiwjr5z
p208
I1
sVd4lx73x
p209
I1
sVdjndvje
p210
I1
sVdg7zj11
p211
I1
sVdcail3f
p212
I1
sVdhm311t
p213
I1
sVdekt7bx
p214
I1
sVd6nhbs9
p215
I1
sVdelfs1v
p216
I1
sVdaqup72
p217
I1
sVdir152f
p218
I1
sVdhw9du2
p219
I1
sVd8xh4xo
p220
I1
sVcyldsj7
p221
I1
sVd1xcwcz
p222
I1
sVdcx04m2
p223
I2
sVdijhutr
p224
I2
sVdf6cvdx
p225
I1
sVdruc7fn
p226
I1
sVd0shy6o
p227
I1
sVdnbtwv9
p228
I1
sVd12l39d
p229
I2
sVdfhaiit
p230
I1
sVd4a4q9j
p231
I1
sVdiija14
p232
I1
sVdi3ezw6
p233
I1
sVdb9o0x7
p234
I1
sVd4k0d4l
p235
I1
sVd2dbfnn
p236
I1
sVdkfqppv
p237
I1
sVdf9ysrs
p238
I1
sVdtigezj
p239
I1
sVda07cag
p240
I1
sVdhfpy8g
p241
I1
sVd85us5z
p242
I1
sVd1mb4ml
p243
I1
sVdmx131w
p244
I1
sVcz18k22
p245
I1
sVd48b7pp
p246
I1
sVdg79spt
p247
I1
sVdt4y5cd
p248
I1
sVdet1eed
p249
I1
sVdplbbiu
p250
I2
sVdjlo64l
p251
I1
sVd8zcpa7
p252
I1
sVd1e3hne
p253
I1
sVd7l4v8x
p254
I1
sVdkotuss
p255
I1
sVdc2tus4
p256
I1
sVdt3i1lh
p257
I1
sVd1ek4ft
p258
I2
sVd9kfq7f
p259
I1
sVd35593x
p260
I1
sVcz100r0
p261
I1
sVdej6tyo
p262
I1
sVd9uc9g3
p263
I1
sVdd3xiv2
p264
I1
sVczql178
p265
I1
sVdfzp06q
p266
I1
sVd8dnkds
p267
I1
sVdrmun50
p268
I1
sVdnrcs3p
p269
I1
sVd1zor96
p270
I1
sVdat1hnr
p271
I1
sVd4vsr71
p272
I1
sVdcl31nt
p273
I1
sVdfusyot
p274
I1
sVdgaemxk
p275
I1
sVdg5ahic
p276
I1
sVd5pn5ke
p277
I1
sVcznddd7
p278
I1
sVczrbl2w
p279
I1
sVdbvlzm1
p280
I1
sVdc204ha
p281
I1
sVdk2amuo
p282
I1
sVdmstybl
p283
I1
sVdc6kqel
p284
I1
sVd21ysl4
p285
I1
sVdngx0vp
p286
I1
sVdquhtx0
p287
I1
sVd7v4nbk
p288
I2
sVd5meoob
p289
I1
sVd5b2865
p290
I1
sVd1bxu1u
p291
I1
sVdmyzg9d
p292
I1
sVd0fnkdf
p293
I1
sVdit1c2q
p294
I1
sVd8rghsq
p295
I1
sVd69gtc7
p296
I1
sVdd6e9c6
p297
I1
sVdf9b3qo
p298
I1
sVd7fyyzk
p299
I1
sVd0e405u
p300
I2
sVdku9zi4
p301
I1
sVd22kh7l
p302
I1
sVd89m6ow
p303
I1
sVd67inou
p304
I2
sVd1689pa
p305
I3
sVdmgs3jq
p306
I1
sVdiuan1a
p307
I1
sVd5u3hzx
p308
I1
sVddjmvw9
p309
I1
sVd9yeoeo
p310
I1
sVd21m6oq
p311
I1
sVd1fm8e1
p312
I1
sVdqo7mh4
p313
I1
sVd7u1423
p314
I1
sVdqkinqg
p315
I1
sVdd1wl51
p316
I1
sVd6osyu9
p317
I1
sVddwnf3c
p318
I1
sVdb91kbb
p319
I1
sVd5y5nim
p320
I1
sVda4gda6
p321
I1
sVd1z4cu4
p322
I1
sVdtj6gqx
p323
I1
sVdrgd6gs
p324
I1
sVdfwvcy7
p325
I1
sVcz6mddo
p326
I2
sVd24zysm
p327
I1
sVd8x4wq7
p328
I2
sVdmh2qaz
p329
I1
sVdrglpg4
p330
I2
sVdfhawwc
p331
I2
sVdojhi2d
p332
I1
sVd0tl9ih
p333
I1
sVdswelwg
p334
I1
sVdnoxoiy
p335
I1
sVdon18mg
p336
I1
sVd60618d
p337
I1
sVd03xarg
p338
I1
sVd5he8sz
p339
I1
sVcyk098t
p340
I1
sVd070dlr
p341
I1
sVdj4632s
p342
I1
sVded24kh
p343
I1
sVdf4kynm
p344
I1
sVcz2nqyj
p345
I1
sVdi1ppyo
p346
I1
sVdks2pqk
p347
I1
sVd4trkn0
p348
I1
sVdq5j1vf
p349
I1
sVd0f39t1
p350
I1
sVdb7cd95
p351
I1
sVddwrghs
p352
I1
sVde440td
p353
I1
sVd1frjbc
p354
I1
sVd32exb3
p355
I1
sVdbbx4hg
p356
I1
sVd3yw9q9
p357
I1
sVdd86j0x
p358
I1
sVdgfknu3
p359
I1
sVd64mhcu
p360
I1
sVdap70s1
p361
I3
sVdq4v599
p362
I1
sVd9a2ygk
p363
I1
sVd7ub4rw
p364
I1
sVczqfrab
p365
I1
sVczctsz9
p366
I1
sVd16umrg
p367
I1
sVd8lgo4b
p368
I2
sVdjp9g7e
p369
I2
sVd7332xh
p370
I1
sVdek3636
p371
I1
sVdfldmji
p372
I1
sVcz2vien
p373
I3
sVd8bwzd0
p374
I1
sVd26ikcc
p375
I1
sVdjuxr57
p376
I1
sVd5napw2
p377
I1
sVdkktucf
p378
I1
sVd7dk8wp
p379
I1
sVd5q1gjl
p380
I1
sVdj50uoh
p381
I1
sVcz6ahlr
p382
I1
sVd865v30
p383
I1
sVd81fvjo
p384
I1
sVdnahict
p385
I1
sVd5y3cbl
p386
I1
sVd7bcgnd
p387
I1
sVdrbz99p
p388
I1
sVdnxhol7
p389
I1
sVd1e2kss
p390
I1
sVd7z71wj
p391
I1
sVd65if5p
p392
I1
sVdc6z0h8
p393
I1
sVda7z5vs
p394
I1
sVde9z9f0
p395
I1
sVdpvv2ad
p396
I1
sVdthmfkc
p397
I1
sVdfepov0
p398
I1
sVdb8wqeu
p399
I1
sVdbyjyks
p400
I1
sVd773djf
p401
I1
sVdae6ulq
p402
I1
sVd1jc176
p403
I1
sVd7x63pk
p404
I1
sVdj7num1
p405
I1
sVd2wwnyi
p406
I1
sVd089i7j
p407
I1
sVd0m125h
p408
I1
sVdcspbdx
p409
I1
sVdki8km8
p410
I1
sVde96521
p411
I1
sVdetiahi
p412
I1
sVdp2o8dq
p413
I1
sVcyik9wc
p414
I3
sVd89ect8
p415
I1
sVd5tga5x
p416
I1
sVd6tndc3
p417
I1
sVdpw0ix5
p418
I1
sVddosxmg
p419
I1
sVdnxhe8x
p420
I1
sVdhcv3to
p421
I1
sVcyi5ont
p422
I1
sVdgkbilp
p423
I1
sVd5j8p0q
p424
I1
sVd5k7hc8
p425
I1
sVdo9r2pv
p426
I1
sVd8f0oka
p427
I2
sVdeguswi
p428
I1
sVd9rhv08
p429
I1
sVd74t7l4
p430
I1
sVdnd994c
p431
I1
sVd6s6ayw
p432
I2
sVd7n3kn9
p433
I2
sVd5k9r9r
p434
I2
sVd5b4h5a
p435
I2
sVd9fr851
p436
I1
sVdjtym0h
p437
I1
sVd7mhrlc
p438
I1
sVdda2ufl
p439
I1
sVdbi1vxa
p440
I1
sVdfvropk
p441
I1
sVd0yqqmp
p442
I1
sVd9q89a2
p443
I2
sVd45ony5
p444
I1
sVczdf1el
p445
I1
sVdf6g506
p446
I1
sVd8d4odi
p447
I1
sVddcmpmv
p448
I1
sVd2u58wd
p449
I1
sVdgy4obi
p450
I2
sVd0ii2cn
p451
I1
sVdaeyrur
p452
I1
sVd1zjg53
p453
I1
sVdc4pei4
p454
I1
sVdbg00a3
p455
I2
sVd54qn1f
p456
I1
sVd2l2x0m
p457
I1
sVd93mc1u
p458
I1
sVd50f35x
p459
I1
sVdfavvi8
p460
I2
sVd07v13b
p461
I1
sVd1cvs5w
p462
I1
sVdebr0ep
p463
I1
sVdgrdd8r
p464
I1
sVdh4w0cr
p465
I1
sVdh1pj20
p466
I1
sVcyk7j27
p467
I1
sVdcfoyry
p468
I1
sVd5gqyt6
p469
I1
sVdq7nd0a
p470
I2
sVdhsy87o
p471
I2
sVd3lep09
p472
I1
sVd2a5opb
p473
I1
sVczsbupk
p474
I1
sVd9dfdgh
p475
I1
sVdmowqi1
p476
I2
sVdgmknr0
p477
I1
sVdkqp98v
p478
I1
sVdfjk64q
p479
I1
sVdhnifqc
p480
I1
sVd2xvtu9
p481
I1
sVdhjg8v6
p482
I1
sVdckm9ou
p483
I1
sVddv9n1j
p484
I1
sVdg8z7ul
p485
I1
sVd19rv5m
p486
I1
sVd7lnmes
p487
I1
sVd3uomat
p488
I1
sVd1akljh
p489
I1
sVd4cm1c8
p490
I1
sVd5ie9wf
p491
I1
sVd1x812z
p492
I1
sVdbku4t3
p493
I1
sVdfu9dtk
p494
I1
sVdjd6s5o
p495
I2
sVcyindf0
p496
I1
sVddhc5he
p497
I1
sVd2i8t6r
p498
I1
sVd3wllco
p499
I1
sVd6tdwdc
p500
I1
sVdc9vs97
p501
I1
sVd570ufo
p502
I1
sVd171w5t
p503
I1
sVd0yf0by
p504
I2
sVdili8vh
p505
I1
sVdhz66sy
p506
I1
sVd06zxx3
p507
I1
sVd00fwj4
p508
I1
sVdft142i
p509
I1
sVcys55td
p510
I1
sVdqjf2a0
p511
I1
sVdmj1zix
p512
I1
sVd4ujk51
p513
I1
sVddcq8ul
p514
I1
sVd6ymmv5
p515
I1
sVcypa8x6
p516
I1
sVddn1a3z
p517
I1
sVdi9kqup
p518
I1
sVdti40hz
p519
I2
sVdqz3ahi
p520
I1
sVds22hra
p521
I1
sVdh28gmi
p522
I1
sVdat5s3j
p523
I1
sVdb372s7
p524
I1
sVd12owpl
p525
I1
sVd2vj3u6
p526
I1
sVcz75x49
p527
I1
sVde6ukld
p528
I1
sVdddu9qn
p529
I2
sVd22513n
p530
I1
sVdfk5kwd
p531
I1
sVdaacsty
p532
I1
sVdb5gi0v
p533
I1
sVd5hkt51
p534
I1
sVd0266d8
p535
I1
sVdkjznkl
p536
I1
sVdnyit2h
p537
I1
sVdhg7m1a
p538
I1
sVdqm7kb9
p539
I2
sVd99dpki
p540
I1
sVd5htqhs
p541
I1
sVcz5cqwm
p542
I1
sVdb105wg
p543
I1
sVdq1j087
p544
I2
sVd7e0j1u
p545
I1
sVdgmsi8y
p546
I1
sVdpp1evl
p547
I1
sVd8t2fw5
p548
I1
sVdaawz4v
p549
I1
sVdpn8s1p
p550
I1
sVd3tffks
p551
I2
sVddc624b
p552
I1
sVd4576qc
p553
I1
sVd58nyyu
p554
I1
sVdmhrheo
p555
I1
sVcyzkoxy
p556
I1
sVdpq70cu
p557
I1
sVd3h65y0
p558
I1
sVd0bd9y9
p559
I1
sVdbc4gqp
p560
I1
sVd3d8ckw
p561
I1
sVcyo1dxq
p562
I1
sVdreuwb3
p563
I1
sVdfzzfjo
p564
I1
sVdawpw8k
p565
I1
sVd13d7za
p566
I1
sVd2i9cws
p567
I1
sVd0ifsak
p568
I1
sVd6rtkvz
p569
I1
sVd5rzosm
p570
I1
sVd2bqpw4
p571
I1
sVcz6vk51
p572
I1
sVda9zucx
p573
I1
sVdjeb8v8
p574
I1
sVczgrecu
p575
I1
sVd5otshv
p576
I1
sVczzfd2b
p577
I1
sVdap2usq
p578
I1
sVd60bbra
p579
I2
sVddndckg
p580
I1
sVdbloee7
p581
I1
sVd62ucja
p582
I2
sVdbi6rbr
p583
I1
sVd20camv
p584
I1
sVd6dvx7x
p585
I1
sVd8zq7tk
p586
I1
sVd686m91
p587
I1
sVdjdpxcm
p588
I1
sVd2wbhdf
p589
I1
sVdg1jpb9
p590
I1
sVd69e936
p591
I1
sVd73jw4a
p592
I1
sVdg9v7tz
p593
I1
sVdrys8r1
p594
I1
sVd9vu7xc
p595
I1
sVdfzb13m
p596
I3
sVdbi68ra
p597
I1
sVd1i1xmo
p598
I1
sVd1tlnl6
p599
I1
sVd8vx5pw
p600
I1
sVd1572hg
p601
I1
sVd4b53ak
p602
I1
sVcyqtjs6
p603
I1
sVdeozcy5
p604
I1
sVcz2bvk7
p605
I1
sVdstbcyw
p606
I1
sVdc2bp9f
p607
I1
sVdg7f9ri
p608
I1
sVd2e3vle
p609
I1
sVdsbmt08
p610
I2
sVdbwr5jz
p611
I1
sVdahs020
p612
I1
sVdojni94
p613
I1
sVdc53vbz
p614
I1
sVd2sfqos
p615
I1
sVd0achgu
p616
I1
sVdsq63o6
p617
I2
sVdpj0qxf
p618
I1
sVdapu4t7
p619
I1
sVdswuyxi
p620
I1
sVdorc47k
p621
I1
sVdbeqd2l
p622
I1
sVd3x28sc
p623
I1
sVdng8x9f
p624
I1
sVd3us3bg
p625
I1
sVdbwgqts
p626
I1
sVdkm9sl7
p627
I1
sVdaobyyr
p628
I1
sVd142b20
p629
I1
sVd3s4pzm
p630
I1
sVdekqnls
p631
I1
sVd2q7yj5
p632
I1
sVd76tvxu
p633
I1
sVd9ngeox
p634
I1
sVdmog9l7
p635
I1
sVdf8mxph
p636
I1
sVdg7sdsp
p637
I1
sVdjhzvjc
p638
I1
sVdmq5juq
p639
I1
sVdoh90wc
p640
I1
sVdp9vgax
p641
I1
sVdkilgom
p642
I1
sVczuuoj7
p643
I1
sVdba59pq
p644
I1
sVdh3t00w
p645
I1
sVdaylrem
p646
I1
sVd5suw7h
p647
I1
sVd1beo16
p648
I1
sVdo2uu4a
p649
I1
sVd84vwhd
p650
I1
sVdive1wz
p651
I1
sVdhr8qqk
p652
I1
sVd07ivmt
p653
I1
sVdaqi80p
p654
I1
sVdn82osb
p655
I1
sVd7kppmb
p656
I1
sVd1zpv8o
p657
I1
sVdeod6kf
p658
I1
sVdhj79jf
p659
I1
sVd78xm6s
p660
I1
sVd0ey25v
p661
I1
sVdekzlym
p662
I1
sVdqifk3a
p663
I1
sVd4pquoj
p664
I1
sVd5xj8lq
p665
I1
sVdn8gge9
p666
I1
sVdjjqn2t
p667
I1
sVdiwn05o
p668
I1
sVd7s2xy4
p669
I1
sVd4zk9tl
p670
I2
sVczyti18
p671
I1
sVdik508a
p672
I1
sVd02cbom
p673
I1
sVdb64cu1
p674
I1
sVdq8dd9n
p675
I1
sVdch8gn5
p676
I1
sVd9jzhlb
p677
I1
sVd0xpn4p
p678
I1
sVd3puf11
p679
I1
sVdce3knl
p680
I1
sVdknau7p
p681
I1
sVdq3iz2d
p682
I1
sVdt3sx0a
p683
I1
sVd24m56q
p684
I1
sVdh44ddz
p685
I1
sVddfpyn0
p686
I1
sVdpwfm32
p687
I2
sVdgs2hsw
p688
I1
sVd2wx99w
p689
I2
sVcyq0s7u
p690
I1
sVdafylpq
p691
I1
sVdrjc1bu
p692
I1
sVd0mlsh6
p693
I1
sVdg10559
p694
I1
sVd0obdag
p695
I1
sVdqp2hxi
p696
I2
sVdfd1qyw
p697
I1
sVdf06eg1
p698
I1
sVczwhtlf
p699
I1
sVd2w9c6c
p700
I1
sVd1w18qm
p701
I1
sVd2kv70s
p702
I2
sVd2sgplc
p703
I1
sVdsa5u8o
p704
I1
sVczzk4sf
p705
I1
sVd97q1nx
p706
I1
sVdhnvap9
p707
I1
sVd9uo93i
p708
I1
sVdinszjy
p709
I1
sVd01laxl
p710
I2
sVdqbbo9y
p711
I1
sVczl7qy6
p712
I1
sVdj2mu24
p713
I1
sVd0yihs1
p714
I1
sVd6gmvsg
p715
I2
sVd5oozqg
p716
I1
sVd34phgh
p717
I1
sVd9y9udr
p718
I1
sVdkq2m8r
p719
I1
sVdryg861
p720
I1
sVd1xchae
p721
I2
sVd53ubs8
p722
I1
sVd7jvyfk
p723
I1
sVd3dp796
p724
I1
sVdmka5se
p725
I1
sVdhidx15
p726
I1
sVd6oydbr
p727
I1
sVcz6402l
p728
I1
sVczchyad
p729
I1
sVdiey5dn
p730
I1
sVdbfpxaj
p731
I1
sVd1al9nn
p732
I2
sVd8427ja
p733
I1
sVd6j1mtp
p734
I1
sVdhvbvqn
p735
I1
sVdoltdig
p736
I1
sVdmf51m9
p737
I2
sVdbfckux
p738
I1
sVd3tuudq
p739
I1
sVdhlzq5y
p740
I1
sVczxw4nm
p741
I2
sVdgcpfx2
p742
I1
sVdp7psi0
p743
I1
sVd4fj3aw
p744
I1
sVd2uxdh3
p745
I1
sVd7nqfda
p746
I1
sVd098lb7
p747
I1
sVdkal2vp
p748
I1
sVd5oqi8y
p749
I1
sVd6iog74
p750
I1
sVd93k801
p751
I3
sVd6v4k6z
p752
I1
sVd73m8z7
p753
I2
sVdn1gkt6
p754
I2
sVdircmnb
p755
I1
sVddqk862
p756
I1
sVd6a6xxm
p757
I1
sVd0pz3kh
p758
I1
sVdjdqfbw
p759
I1
sVdfi9len
p760
I1
sVdphwse2
p761
I1
sVd00zchs
p762
I1
sVdpksx5o
p763
I1
sVdqctzv5
p764
I1
sVd9p70gs
p765
I1
sVdcdkfbn
p766
I1
sVcyssflv
p767
I1
sVd0jzr7e
p768
I1
sVdkc1ygu
p769
I1
sVdd8eld4
p770
I1
sVddmmyvc
p771
I1
sVdncjh0i
p772
I1
sVdiy0v0s
p773
I1
sVcz8c2sa
p774
I2
sVd3dyxrq
p775
I1
sVczpchg2
p776
I1
sVdc6h16m
p777
I1
sVdajm3fc
p778
I1
sVdhnc2ye
p779
I1
sVdt2bavg
p780
I1
sVczubipi
p781
I1
sVd5ucxv9
p782
I4
sVd67ylxo
p783
I1
sVdexiz2e
p784
I1
sVdejvo6u
p785
I2
sVdiheejj
p786
I1
sVdei5t72
p787
I1
sVd54phb7
p788
I1
sVddoyru1
p789
I1
sVd04eh33
p790
I1
sVd7kdrhh
p791
I1
sVd3mol4c
p792
I1
sVdh5j5tw
p793
I1
sVdqebzzl
p794
I1
sVd23ruil
p795
I2
sVdph41ro
p796
I1
sVdqsqvpp
p797
I1
sVdhc67na
p798
I1
sVdefwwhx
p799
I1
sVczne7fr
p800
I1
sVdd75a0e
p801
I1
sVd5n0b44
p802
I1
sVd7hicvf
p803
I1
sVd8i52ho
p804
I1
sVd1tf9ul
p805
I1
sVdh6r8wj
p806
I1
sVd72i359
p807
I1
sVdechmis
p808
I1
sVddxbsmn
p809
I1
sVd5y126h
p810
I2
sVddz76yl
p811
I1
sVdc13qsu
p812
I1
sVdgharp3
p813
I1
sVd2kf05u
p814
I1
sVd2odwol
p815
I1
sVdfieila
p816
I1
sVd74sl38
p817
I1
sVd6c3xsu
p818
I1
sVd6mcuqd
p819
I1
sVdjasbs3
p820
I1
sVd0amzdc
p821
I1
sVdbtks4q
p822
I1
sVdroe5su
p823
I1
sVd343vo0
p824
I2
sVdeu336f
p825
I1
sVde1znfb
p826
I1
sVd85pj3x
p827
I1
sVd7227nx
p828
I1
sVdet3woq
p829
I1
sVd015u0v
p830
I1
sVczonbio
p831
I1
sVdnmajq0
p832
I2
sVdj2bgzp
p833
I1
sVdkirhoy
p834
I1
sVd8yv4id
p835
I1
sVd3svcse
p836
I2
sVd3wjgsf
p837
I1
sVdj9zk8i
p838
I1
sVcyo0vln
p839
I1
sVdsq8dbg
p840
I1
sVdd6gtn8
p841
I1
sVdptjnh1
p842
I1
sVdg1lmur
p843
I2
sVdp405dw
p844
I1
sVdrmkqbi
p845
I1
sVdo1wkzt
p846
I1
sVczglr1z
p847
I1
sVd22zg2e
p848
I1
sVd9lg8vk
p849
I1
sVdqhodhz
p850
I1
sVd6d2ttf
p851
I1
sVcz7l4uc
p852
I1
sVdncngdg
p853
I1
sVdom62qq
p854
I1
sVddh3qr8
p855
I1
sVdgtbdxb
p856
I1
sVd6boyuq
p857
I1
sVdilb2ro
p858
I1
sVdg7jbke
p859
I1
sVd4mrs7n
p860
I1
sVdet2ft1
p861
I1
sVd8vku87
p862
I1
sVdgy89mf
p863
I1
sVdehwn30
p864
I1
sVcywi9uq
p865
I1
sVdnp5yf8
p866
I1
sVd0iqzlq
p867
I1
sVd8p14rn
p868
I1
sVdkj5tss
p869
I1
sVd86qgu8
p870
I1
sVd9mbl67
p871
I1
sVd47gaao
p872
I1
sVdjhzcmx
p873
I1
sVdi6o8e2
p874
I1
sVd4y9owv
p875
I1
sVdaizl23
p876
I1
sVdnduqf7
p877
I1
sVd66t4mm
p878
I1
sVdp6764d
p879
I1
sVd14oe4g
p880
I1
sVd2h9g25
p881
I1
sVdft8lbm
p882
I1
sVd25btqo
p883
I1
sVdp7akj9
p884
I1
sVdd68azv
p885
I1
sVczpnhoi
p886
I1
sVdi2hfpu
p887
I1
sVdrz7tbj
p888
I1
sVdjo1n6y
p889
I1
sVdalra8n
p890
I1
sVds9rtxk
p891
I1
sVd5m7kql
p892
I1
sVd7jrl63
p893
I1
sVdb59nz6
p894
I1
sVdrdav9l
p895
I1
sVdq9w9f6
p896
I1
sVdho6lzd
p897
I1
sVczh1tc9
p898
I1
sVdjos05g
p899
I1
sVdeunaa1
p900
I1
sVd0ol6j7
p901
I1
sVdkinzi6
p902
I1
sVczgy3ct
p903
I2
sVd8kknct
p904
I1
sVdbtpo1z
p905
I1
sVdjxninh
p906
I1
sVddvmos2
p907
I1
sVdsyqw13
p908
I1
sVd0gyc71
p909
I1
sVd67bqyp
p910
I1
sVd94d8n2
p911
I1
sVd6t0p8n
p912
I1
sVd70fujb
p913
I1
sVdfkmclt
p914
I1
sVd8t0xs3
p915
I1
sVdfwvyv8
p916
I1
sVd5x3olp
p917
I1
sVd6cuin3
p918
I1
sVd7jah0x
p919
I1
sVcyxs947
p920
I1
sVdih8qpy
p921
I1
sVdi5e0zq
p922
I1
sVdkqj3ff
p923
I1
sVd2hb523
p924
I1
sVcyy1w7u
p925
I1
sVdk4ws2c
p926
I1
sVdndspnt
p927
I1
sVd3uewnm
p928
I1
sVd5zh1jr
p929
I1
sVdkemf8h
p930
I1
sVdgauj5h
p931
I1
sVczzrk66
p932
I1
sVdmlx5u6
p933
I1
sVdjnjcjt
p934
I1
sVdhelnn8
p935
I1
sVd7vaupp
p936
I1
sVdihh3o7
p937
I1
sVdjubl9z
p938
I1
sVd8d0726
p939
I1
sVdirpoo9
p940
I1
sVcz0se8u
p941
I1
sVd00er5w
p942
I1
sVdh6pjuu
p943
I1
sVcylx3e8
p944
I1
sVdc2r5nt
p945
I1
sVdjr14a2
p946
I1
sVd9qzkec
p947
I1
sVdcxwqm6
p948
I1
sVd39kr79
p949
I1
sVdiu39ye
p950
I2
sVdeg4c7h
p951
I2
sVdk0llkt
p952
I1
sVdqipo48
p953
I1
sVd9adyiy
p954
I1
sVd9zz8bb
p955
I1
sVdqks0t0
p956
I1
sVd4ce2h8
p957
I1
sVd1v0ri4
p958
I1
sVcymrpod
p959
I1
sVd477xno
p960
I1
sVd27xc2u
p961
I1
sVd31j907
p962
I1
sVdngxzcm
p963
I1
sVddfq2hl
p964
I1
sVdqsr3d8
p965
I1
sVdf3qaj5
p966
I1
sVd0zyml8
p967
I1
sVdeldoud
p968
I1
sVcyzxgci
p969
I1
sVd9crix9
p970
I1
sVdgrogt4
p971
I2
sVdkbihoz
p972
I1
sVdaxkdul
p973
I1
sVdtfzwjf
p974
I1
sVdtghgiy
p975
I1
sVdqi7ivh
p976
I1
sVdqmpfkg
p977
I1
sVdqubdhw
p978
I1
sVd1wk62o
p979
I1
sVdg92h8a
p980
I1
sVditzn8d
p981
I1
sVdakt6r8
p982
I1
sVcz0jt22
p983
I1
sVd0iegjf
p984
I2
sVd9on9me
p985
I1
sVde9587c
p986
I1
sVdi9yprp
p987
I1
sVd094p7j
p988
I1
sVdgdv7bo
p989
I1
sVdb4qkkv
p990
I3
sVd088jso
p991
I1
sVdcve7yz
p992
I1
sVd237huk
p993
I1
sVde2hmb8
p994
I1
sVd63djd6
p995
I1
sVd4e3zvl
p996
I1
sVd2ltirh
p997
I1
sVdj83bcy
p998
I2
sVdbm4120
p999
I1
sVd95foh3
p1000
I1
sVd7nuhcr
p1001
I3
sVd7ky76h
p1002
I1
sVdnm5796
p1003
I1
sVdbde4wl
p1004
I1
sVd8n1hhz
p1005
I1
sVcysvju5
p1006
I1
sVd5oy9u4
p1007
I1
sVd13vjn4
p1008
I1
sVdbdprm1
p1009
I1
sVd8vfi83
p1010
I1
sVdnnjwgz
p1011
I1
sVdnw664m
p1012
I1
sVdee3hvi
p1013
I1
sVd5dpbib
p1014
I1
sVd7xn6no
p1015
I3
sVdo63bwv
p1016
I1
sVd9lhnl7
p1017
I1
sVdkg539e
p1018
I1
sVcztntd2
p1019
I1
sVdgaqke4
p1020
I1
sVddgwdas
p1021
I1
sVdd36ves
p1022
I1
sVdcpn03d
p1023
I1
sVd0awnxo
p1024
I1
sVdmsdgr6
p1025
I1
sVdp7jzwt
p1026
I1
sVdnumlr8
p1027
I1
sVdqscen8
p1028
I3
sVdh7f5p9
p1029
I1
sVdbe63as
p1030
I1
sVd0yk3l8
p1031
I1
sVdkh2r4d
p1032
I1
sVd5ni6dt
p1033
I1
sVd62twa8
p1034
I1
sVdcxnmif
p1035
I1
sVd384ncd
p1036
I1
sVd8g01f7
p1037
I1
sVd65yeg3
p1038
I2
sVdh8evog
p1039
I1
sVd3imq50
p1040
I1
sVdguicid
p1041
I1
sVdr0yzrf
p1042
I1
sVd5x9kg0
p1043
I1
sVd9hyqzt
p1044
I1
sVd084qf9
p1045
I1
sVdewtxau
p1046
I1
sVd7jrimb
p1047
I1
sVd13xayu
p1048
I1
sVdn0j9ht
p1049
I2
sVdammulj
p1050
I1
sVd60rf47
p1051
I1
sVdf6uzb8
p1052
I1
sVcypxozk
p1053
I1
sVdr8ox0p
p1054
I1
sVdemsozc
p1055
I2
sVddclu1v
p1056
I1
sVd6bqlrp
p1057
I1
sVd15qnlw
p1058
I1
sVd06os0d
p1059
I1
sVdbtv9xj
p1060
I1
sVdcab9kq
p1061
I1
sVd1ap3rz
p1062
I1
sVdff4flg
p1063
I1
sVd7bbiti
p1064
I1
sVdpehi9r
p1065
I1
sVdnbfac4
p1066
I1
sVda63utv
p1067
I1
sVdjkuvi8
p1068
I1
sVd316jwr
p1069
I1
sVdfdah22
p1070
I1
sVdrsbboo
p1071
I1
sVdp2abuu
p1072
I1
sVd67lgxf
p1073
I1
sVd3z67c5
p1074
I1
sVczeppxy
p1075
I2
sVdihfr7z
p1076
I1
sVdmvaa3a
p1077
I1
sVdtf041u
p1078
I2
sVd7jipgr
p1079
I1
sVdihbdri
p1080
I1
sVd00vcyc
p1081
I1
sVd53klcf
p1082
I1
sVdr8blhx
p1083
I1
sVdn4i140
p1084
I2
sVdhvc705
p1085
I1
sVdidlvae
p1086
I1
sVd8pugy3
p1087
I1
sVd6lw77w
p1088
I2
sVd99yppj
p1089
I1
sVd5s5fn8
p1090
I1
sVd9myt51
p1091
I1
sVdn62mne
p1092
I1
sVdnbr53a
p1093
I1
sVdirmmu0
p1094
I1
sVd770yjz
p1095
I2
sVdgtn9p6
p1096
I1
sVd1ttqg9
p1097
I1
sVcz0o47h
p1098
I1
sVdh366gf
p1099
I1
sVd4o0z7h
p1100
I2
sVdihpjb4
p1101
I1
sVd69yqug
p1102
I1
sVd60e1ck
p1103
I1
sVd4bqbk0
p1104
I1
sVd5i9y0b
p1105
I1
sVdjw7v00
p1106
I2
sVdhj63c7
p1107
I1
sVdrmyxik
p1108
I1
sVdnlmm9d
p1109
I1
sVdgyovfe
p1110
I1
sVdte031q
p1111
I1
sVd6jpo5s
p1112
I1
sVd3jq3ge
p1113
I1
sVdenmmip
p1114
I1
sVdbprbdp
p1115
I1
sVdjktdzz
p1116
I1
sVdapqii5
p1117
I1
sVdhr37xb
p1118
I1
sVdhrtm5r
p1119
I1
sVdfao4bq
p1120
I1
sVd8nmmtg
p1121
I1
sVd4sdrox
p1122
I2
sVds4bn7e
p1123
I1
sVdqgk5yt
p1124
I1
sVd4d63fh
p1125
I1
sVd1fkw3v
p1126
I1
sVd8npxwb
p1127
I1
sVdatteqb
p1128
I1
sVd6bjdvw
p1129
I1
sVddyt5pb
p1130
I2
sVd84pb5q
p1131
I1
sVd0afkcd
p1132
I1
sVd9xxuri
p1133
I1
sVd14d8ex
p1134
I1
sVddal41n
p1135
I1
sVd0hky3y
p1136
I1
sVdt7avf3
p1137
I1
sVczz9bxw
p1138
I1
sVcyljyhe
p1139
I1
sVdhnv7rp
p1140
I1
sVdb2fode
p1141
I1
sVdh0m0cu
p1142
I2
sVczhjr18
p1143
I1
sVd0pb72w
p1144
I1
sVd1fa0ur
p1145
I1
sVddrdt9f
p1146
I1
sVdi8w62t
p1147
I1
sVdmxocqx
p1148
I3
sVd7z62wd
p1149
I1
sVdeutt2s
p1150
I1
sVd128455
p1151
I1
sVdrbvt1q
p1152
I1
sVdgdyx8t
p1153
I1
sVd8ttxem
p1154
I3
sVczbubmr
p1155
I1
sVd44wpbu
p1156
I1
sVd7d6o4r
p1157
I1
sVdfwkppd
p1158
I1
sVdg04a0y
p1159
I1
sVcyk46g8
p1160
I1
sVdpcptic
p1161
I1
sVd795l3q
p1162
I1
sVdhnnt3p
p1163
I1
sVdo7ozif
p1164
I1
sVdp1siy8
p1165
I1
sVd8nckia
p1166
I1
sVdksqftv
p1167
I1
sVdjhbbj3
p1168
I1
sVdfyazb3
p1169
I1
sVdpbqpud
p1170
I1
sVdq1p55i
p1171
I1
sVdog9mo0
p1172
I1
sVdhrhfjy
p1173
I1
sVd2ct8qh
p1174
I3
sVd03suv9
p1175
I1
sVd75lfdx
p1176
I1
sVd8eqwes
p1177
I1
sVd26i1st
p1178
I1
sVdnjtptz
p1179
I1
sVdf0ol70
p1180
I1
sVczrvz41
p1181
I1
sVd3up7ql
p1182
I2
sVdeykfwy
p1183
I2
sVd4me08g
p1184
I1
sVd17fh7w
p1185
I1
sVdf8r6kc
p1186
I1
sVdkrd9x5
p1187
I1
sVd3wmk9a
p1188
I1
sVdihey38
p1189
I1
sVd8exl61
p1190
I1
sVdoz5898
p1191
I1
sVdqj4ef8
p1192
I1
sVdhthyl8
p1193
I1
sVdt4sjgb
p1194
I1
sVd0rc49v
p1195
I1
sVdcg9iky
p1196
I2
sVdg415fq
p1197
I1
sVda2f5vh
p1198
I1
sVd222jcw
p1199
I1
sVdca2pl9
p1200
I3
sVdklj4pj
p1201
I1
sVdb5le7l
p1202
I1
sVd8odoe7
p1203
I1
sVd15lij2
p1204
I1
sVczv760f
p1205
I1
sVdaytz6a
p1206
I1
sVde21goz
p1207
I1
sVdqlbkpb
p1208
I1
sVd4gx83m
p1209
I1
sVdpl4si3
p1210
I1
sVd0sozdl
p1211
I1
sVcyukitz
p1212
I1
sVczbddev
p1213
I1
sVdibj61q
p1214
I1
sVdacytwr
p1215
I1
sVd6c1hei
p1216
I1
sVde9xylm
p1217
I1
sVdku9vtf
p1218
I1
sVd2hf8nh
p1219
I1
sVdidb7v0
p1220
I1
sVdplb6n1
p1221
I1
sVd69qcvp
p1222
I1
sVcyugv34
p1223
I1
sVdmwcwka
p1224
I1
sVdo16c3s
p1225
I1
sVdgv7xre
p1226
I1
sVd9z20t7
p1227
I1
sVdfe2xpw
p1228
I1
sVd23nkvz
p1229
I1
sVd0ljsrg
p1230
I2
sVd14ei15
p1231
I1
sVdkggz8z
p1232
I1
sVd4izcde
p1233
I1
sVd32dt3f
p1234
I1
sVd0nrsd2
p1235
I1
sVdswuehy
p1236
I1
sVd3co2vj
p1237
I1
sVdne2tmb
p1238
I1
sVdmhle83
p1239
I1
sVdbk2vn4
p1240
I1
sVdcdmoqm
p1241
I1
sVd1fz2jm
p1242
I1
sVdhrna5a
p1243
I1
sVdcptwr3
p1244
I1
sVd5glvgy
p1245
I1
sVcysncdm
p1246
I1
sVdg0cd2v
p1247
I1
sVd8a0axg
p1248
I1
sVd9bqkxl
p1249
I1
sVdg3jcxn
p1250
I1
sVd4r5wrx
p1251
I1
sVdbggpfu
p1252
I1
sVcz10zkx
p1253
I1
sVd8vbs19
p1254
I1
sVdmo0qfw
p1255
I1
sVd2xnpmo
p1256
I1
sVdn41rio
p1257
I2
sVd2u5dnc
p1258
I1
sVd1o9p7c
p1259
I1
sVdr77gzz
p1260
I1
sVd09p5wx
p1261
I1
sVdegnby0
p1262
I1
sVcysifea
p1263
I1
sVde9zxcu
p1264
I1
sVdbrnriv
p1265
I1
sVd8u9vx2
p1266
I1
sVd0ph25y
p1267
I1
sVdj773zx
p1268
I2
sVd6e0osv
p1269
I1
sVdhss6d2
p1270
I1
sVdinnhe9
p1271
I1
sVdgkivs2
p1272
I1
sVd19sgxb
p1273
I1
sVd7ewli8
p1274
I3
sVdf3z6nv
p1275
I1
sVd4zi8za
p1276
I1
sVdhjl3rf
p1277
I1
sVcz6argh
p1278
I1
sVd71nwah
p1279
I1
sVdk43qij
p1280
I1
sVd09jhko
p1281
I1
sVcz75n3g
p1282
I2
sVdqanof7
p1283
I1
sVd8u2byy
p1284
I1
sVdhbhi2f
p1285
I1
sVdrp1i1p
p1286
I1
sVd5hnoqv
p1287
I1
sVdicbtjd
p1288
I1
sVd4qzm3r
p1289
I1
sVdfk1evg
p1290
I1
sVd35t91f
p1291
I1
sVd97zeh9
p1292
I1
sVczo1gle
p1293
I1
sVd5cpcpf
p1294
I1
sVdo22wlo
p1295
I1
sVd1gmfan
p1296
I1
sVd2rnlnj
p1297
I1
sVd6ewqhv
p1298
I1
sVcz2688z
p1299
I1
sVdn1gtf7
p1300
I2
sVdqtqf80
p1301
I1
sVdrj578r
p1302
I1
sVdjjru9c
p1303
I1
sVdds0npo
p1304
I1
sVdjpv64s
p1305
I1
sVdbjdpwe
p1306
I1
sVd7619dz
p1307
I1
sVczmpxmc
p1308
I1
sVd5uo3ue
p1309
I1
sVdry3nnr
p1310
I2
sVdhsn82q
p1311
I1
sVdq8buke
p1312
I1
sVdpp83e1
p1313
I2
sVdgwwbwv
p1314
I2
sVdcq7iqo
p1315
I1
sVdq5k5l7
p1316
I1
sVdo2j6xd
p1317
I1
sVd0rqh3r
p1318
I1
sVd02528h
p1319
I1
sVd2unjta
p1320
I1
sVdowoy63
p1321
I1
sVd91usps
p1322
I1
sVdeuydyv
p1323
I1
sVczjiz4g
p1324
I1
sVden6n5x
p1325
I1
sVdbpaolg
p1326
I1
sVda4fcwh
p1327
I1
sVdeualxp
p1328
I1
sVdmmdumy
p1329
I1
sVdaoofmd
p1330
I2
sVdnr42ce
p1331
I1
sVd2dgs8c
p1332
I1
sVd0m8hah
p1333
I1
sVdgm9n4z
p1334
I1
sVd6dcn3j
p1335
I1
sVd8iwcvt
p1336
I4
sVde23wx1
p1337
I1
sVd42vn8a
p1338
I1
sVdbr5kml
p1339
I1
sVd5at418
p1340
I1
sVdfb3yyf
p1341
I1
sVdn5f2pt
p1342
I1
sVdey2jqr
p1343
I1
sVdmxuhnw
p1344
I1
sVd431ha0
p1345
I1
sVcz8cmuq
p1346
I1
sVd2zdmng
p1347
I1
sVdewfyb3
p1348
I1
sVd1r4m9k
p1349
I1
sVd0sjsit
p1350
I1
sVdrffzxz
p1351
I1
sVds6by3e
p1352
I1
sVd42jp6w
p1353
I1
sVd1m8ylg
p1354
I1
sVd9laml3
p1355
I1
sVd99pran
p1356
I2
sVddofmoq
p1357
I1
sVdqpe4im
p1358
I1
sVd6pr835
p1359
I1
sVdbtqs66
p1360
I1
sVdda0o77
p1361
I1
sVd2gw60h
p1362
I1
sVd8jb97h
p1363
I1
sVdjt85nm
p1364
I1
sVd0jp46q
p1365
I2
sVdgjwe2f
p1366
I2
sVdh5jvlc
p1367
I1
sVdgg7t3a
p1368
I1
sVdkpwkee
p1369
I2
sVdg9yyqm
p1370
I1
sVdr37brx
p1371
I1
sVdmlen26
p1372
I1
sVdcmgk7d
p1373
I1
sVdc3pkea
p1374
I1
sVcyixtjp
p1375
I1
sVdsgsb00
p1376
I1
sVdfxx7x1
p1377
I1
sVdeijhpa
p1378
I1
sVdms8aqp
p1379
I1
sVdametyx
p1380
I1
sVd899rfd
p1381
I1
sVd9k8x7c
p1382
I1
sVd2sonwl
p1383
I1
sVdezz054
p1384
I1
sVd3kxo30
p1385
I1
sVdaufgac
p1386
I1
sVd3ftb0y
p1387
I1
sVd5v7mbv
p1388
I1
sVd5x9nm2
p1389
I1
sVd0qmj5d
p1390
I1
sVddiwsp7
p1391
I1
sVd6yn8rs
p1392
I1
sVdfua6i8
p1393
I1
sVdg12k1v
p1394
I1
sVdale1y4
p1395
I1
sVd2dmn4z
p1396
I1
sVde66kub
p1397
I1
sVd5rqf0l
p1398
I1
sVdbo2xsf
p1399
I1
sVdbi2a08
p1400
I1
s.