(dp0
Vcyix6k4
p1
I1
sVdtibrgd
p2
I1
sVczs6tki
p3
I2
sVczscojd
p4
I1
sVd702e8o
p5
I5
sVdhixeft
p6
I2
sVdidek2w
p7
I1
sVdd2h2fo
p8
I1
sVd8459sg
p9
I4
sVddg7hbt
p10
I1
sVdd2epim
p11
I1
sVd15bd30
p12
I1
sVdgf5eis
p13
I1
sVd1j8sdf
p14
I1
sVd4qxm2q
p15
I1
sVdd20928
p16
I1
sVdbpudre
p17
I1
s.