(dp0
Vdb182ai
p1
I1
sVczidtye
p2
I1
sVdcspgvs
p3
I1
sVd614m1x
p4
I1
sVd2yx65a
p5
I1
sVd5suv66
p6
I1
sVdhxzbae
p7
I1
sVd3xqxkr
p8
I1
sVd1p79ha
p9
I1
sVd17j9i3
p10
I1
sVd4i8so6
p11
I1
sVdi0t0mh
p12
I1
sVd0xygje
p13
I1
sVczj4lai
p14
I1
sVd2uz2ns
p15
I1
sVd7r4wzq
p16
I1
sVddx3f09
p17
I1
sVdn2kmp5
p18
I1
sVdmfr02l
p19
I1
sVd3e09bk
p20
I1
sVdebyzt6
p21
I1
sVd2sskep
p22
I1
sVdcrixcl
p23
I1
sVdqecsnu
p24
I1
sVdk8mq8w
p25
I1
sVd11conx
p26
I1
sVd2d6gh6
p27
I1
sVd2h8h2o
p28
I1
sVd1o0jkz
p29
I1
sVd9mingc
p30
I1
sVd4kt0su
p31
I1
sVd1x4dtn
p32
I1
sVdbn1g76
p33
I1
sVda82xss
p34
I1
sVd3klgz8
p35
I1
sVdrmlg2k
p36
I1
sVds2b4y2
p37
I1
sVdb6wlh4
p38
I1
sVd2wpggl
p39
I1
sVdhkgl8h
p40
I1
sVd0ezylk
p41
I1
sVdi7kkdb
p42
I1
sVdgnzys6
p43
I1
sVdf6k0pm
p44
I1
sVdqko2i5
p45
I1
sVddwexk3
p46
I1
sVdoz24r9
p47
I1
sVdmqps1l
p48
I1
sVd0bw85f
p49
I1
sVd6wru5m
p50
I1
sVd5y1fwd
p51
I1
sVdkw7rfe
p52
I1
sVdixh68h
p53
I1
sVd5vro87
p54
I1
sVd6ncjfx
p55
I1
sVdgwfzyc
p56
I1
sVd1iswe2
p57
I1
sVdarlgcs
p58
I1
sVdboz7r8
p59
I1
sVdervyhr
p60
I1
sVdj4ztp2
p61
I2
sVd4jcaaj
p62
I1
sVdcug8ss
p63
I1
sVdhzuxwv
p64
I1
sVdczk653
p65
I1
sVdg0ltlz
p66
I1
sVd3rl0ej
p67
I1
sVdf16i37
p68
I1
sVdbu3yaj
p69
I1
sVdid6odn
p70
I1
sVdqe980c
p71
I1
sVd12ubyz
p72
I1
sVd0cf3ck
p73
I1
sVd56jbvo
p74
I1
sVdfee7js
p75
I1
sVdeotgy0
p76
I1
sVd735els
p77
I1
sVd4qb8ur
p78
I1
sVdextjwm
p79
I1
sVcz5a3k7
p80
I1
sVd09uhxo
p81
I1
sVcz9wdm9
p82
I1
sVd0vzhl9
p83
I1
sVd2orcvu
p84
I1
sVcyzyenb
p85
I1
sVd7jrpfd
p86
I1
sVdgb8oar
p87
I1
sVd1aktr4
p88
I1
sVd04n1pq
p89
I1
sVdcsaytf
p90
I1
sVdh32m2z
p91
I1
sVd090xc5
p92
I1
sVdb91bo1
p93
I1
sVdco6ct6
p94
I1
sVdjj8fn9
p95
I1
sVd3af8ov
p96
I1
sVczdweyb
p97
I1
sVdpkb26e
p98
I1
sVd2a55yf
p99
I1
sVdovr8y7
p100
I1
sVdfc7zi6
p101
I1
sVdf5sisk
p102
I1
sVd3hz2ht
p103
I1
sVd0hsisu
p104
I1
sVdckzi1h
p105
I1
sVd4mlvz8
p106
I1
sVdnz2nv1
p107
I1
sVczy6o06
p108
I1
sVd1cj5iz
p109
I1
sVd7r2765
p110
I1
sVd3heslw
p111
I2
sVcyx199v
p112
I1
sVd6wu4co
p113
I1
sVd25xt9u
p114
I1
sVcyzhfvu
p115
I1
sVdow5pw9
p116
I1
sVdeeyczm
p117
I1
sVd6cctdq
p118
I1
sVdptk67f
p119
I1
sVdhihhbl
p120
I1
sVdmrk3ue
p121
I1
sVdia5fjf
p122
I1
sVd1kmau5
p123
I1
sVd8u6rwi
p124
I1
sVdfyaymv
p125
I1
sVdf68llg
p126
I1
sVd9bzejz
p127
I1
sVdf3ctfd
p128
I1
sVdfc3e44
p129
I1
sVcyjfthc
p130
I1
sVd488u7u
p131
I1
sVd1ivnii
p132
I1
sVd6zbe4x
p133
I1
sVd5v0epo
p134
I1
sVdp8nlt6
p135
I1
sVdq5qq66
p136
I1
sVdn6ka4j
p137
I1
sVdnd62hh
p138
I1
sVdb5kokq
p139
I1
sVdphpfcm
p140
I1
sVdfbjp8a
p141
I1
sVczslnze
p142
I1
sVdir8vgn
p143
I1
sVd3abu48
p144
I2
sVdq5133f
p145
I1
sVdtbuho5
p146
I1
sVd4pswgb
p147
I1
sVdo4y6kg
p148
I1
sVdha0rze
p149
I1
sVd1jzp1y
p150
I1
sVd3foghy
p151
I1
sVd3b7x41
p152
I1
sVdb2uqyu
p153
I1
sVd2tqmca
p154
I1
sVdfosymr
p155
I1
sVczwgcrp
p156
I1
sVdibnvr6
p157
I1
sVdsle6sg
p158
I1
sVd3wt6ut
p159
I1
sVdkkxov7
p160
I1
sVdauvb2a
p161
I1
sVdex6moa
p162
I1
sVdboypdl
p163
I1
sVdridxj7
p164
I2
sVdsxtkd8
p165
I1
sVda9ev7b
p166
I1
sVdo39s4i
p167
I1
sVdifrhh9
p168
I1
sVdepor63
p169
I1
sVdpqnjzv
p170
I1
sVcys9r1y
p171
I1
sVd8axo6w
p172
I1
sVd865t77
p173
I1
sVd9aage9
p174
I1
sVczmdb3v
p175
I1
sVd69kcfh
p176
I1
sVdsfsj95
p177
I1
sVd5beca9
p178
I1
sVd4w9ow0
p179
I1
sVd3xhjzf
p180
I1
sVd036ewk
p181
I1
sVdmpvn6m
p182
I1
sVcyp22fc
p183
I1
sVcylkpmb
p184
I1
sVdkoxzp2
p185
I1
sVcys8ypm
p186
I2
sVcza1ae7
p187
I1
sVdbyxrl3
p188
I2
sVd9b2k69
p189
I1
sVczzwory
p190
I1
sVdnh4sde
p191
I1
sVd1gwws9
p192
I1
sVdjn45qo
p193
I1
sVd73el13
p194
I1
sVdnik9v0
p195
I1
sVddmcu7i
p196
I1
sVdr63nkm
p197
I1
sVd0we9cm
p198
I1
sVd8evnlu
p199
I1
sVdmq42o0
p200
I1
sVd969jjb
p201
I1
sVczsy5bu
p202
I2
sVdbmyhyk
p203
I2
sVd9cj2a1
p204
I1
sVdd3je0q
p205
I1
sVde4kq87
p206
I1
sVd2auq8v
p207
I1
sVd03xuat
p208
I1
sVd4zf6tl
p209
I1
sVd59hdqx
p210
I1
sVdikdx1v
p211
I1
sVd2odku1
p212
I1
sVd4z7tdl
p213
I1
sVd5dl73g
p214
I1
sVdfk95zi
p215
I1
sVdhndzdl
p216
I1
sVddi7w9a
p217
I1
sVd702mk5
p218
I1
sVdctjvey
p219
I1
sVd2bx69w
p220
I1
sVczp70rt
p221
I1
sVdbpb27x
p222
I1
sVdb573vv
p223
I1
sVdc3u1ym
p224
I1
sVd1hit0n
p225
I2
sVd6e0j8f
p226
I1
sVd9b19n3
p227
I1
sVcyqvnd9
p228
I1
sVd6g3iiu
p229
I1
sVd08zuf8
p230
I1
sVdtd9mbc
p231
I1
sVdpldrll
p232
I1
sVdmvkczv
p233
I1
sVd3ryovl
p234
I1
sVd6aiq8a
p235
I1
sVd3lggkf
p236
I1
sVdbci10s
p237
I1
sVdb42fuv
p238
I1
sVdtdoli8
p239
I1
sVd97atbq
p240
I1
sVczgl9yr
p241
I1
sVd67i3yf
p242
I1
sVd55wdq9
p243
I1
sVd9ydxvq
p244
I2
sVd2zfe5h
p245
I1
sVdeajvjz
p246
I1
sVd8a7h1x
p247
I1
sVdpc0dxk
p248
I1
sVdhhcivd
p249
I1
sVdjqb3iz
p250
I1
sVdez3d9i
p251
I1
sVdr0p3z7
p252
I1
sVdq5dndv
p253
I1
sVd9yidur
p254
I1
sVd9gwwjt
p255
I1
sVda166eg
p256
I1
sVd3zlsvn
p257
I1
sVdszwhjn
p258
I1
sVdhp1w0f
p259
I2
sVdg6u23g
p260
I1
sVdalzt7s
p261
I1
sVd93nwmx
p262
I1
sVdnwpxfy
p263
I1
sVd8llupy
p264
I1
sVczloc7e
p265
I1
sVdkm9srf
p266
I1
sVdbsvobu
p267
I1
sVd2hka53
p268
I1
sVda2i4i4
p269
I1
sVd2cnn7h
p270
I1
sVczjjd58
p271
I2
sVd6r1d1d
p272
I1
sVdrtww2s
p273
I2
sVdpq985u
p274
I1
sVdauc2x0
p275
I1
sVcz8aqv3
p276
I1
sVd5x2e0k
p277
I1
sVd51t20r
p278
I1
sVda7w78f
p279
I1
sVdhwvott
p280
I3
sVd2s6yxh
p281
I1
sVdk0nwgy
p282
I1
sVdfushqw
p283
I1
sVcze5czr
p284
I1
sVdf63rb6
p285
I1
sVd5eafhw
p286
I1
sVd9puxdq
p287
I1
sVdr882z9
p288
I1
sVdhr37ah
p289
I1
sVcz874tg
p290
I1
sVcztzb92
p291
I1
sVdqit57j
p292
I1
sVdnnt4ab
p293
I1
sVczq37o7
p294
I1
sVdehn5fa
p295
I1
sVdbuw49m
p296
I1
sVdctsdnx
p297
I1
sVde2fs74
p298
I1
sVd6et4jb
p299
I1
sVdkomet2
p300
I1
sVcz41y8t
p301
I1
sVd0z72zw
p302
I1
sVd5u84bk
p303
I1
sVd7otgno
p304
I1
sVd37qlmp
p305
I1
sVdid00q0
p306
I1
sVd7xt4pt
p307
I1
sVdcf74mo
p308
I1
sVd1e8kp8
p309
I1
sVcz2v1xf
p310
I1
sVdbhfsv3
p311
I1
sVd2gdftg
p312
I1
sVd0ukn1b
p313
I1
sVdavydqz
p314
I1
sVd85okdu
p315
I1
sVd0xxoax
p316
I1
sVdkzmi58
p317
I1
sVddlky9w
p318
I1
sVdrma6jo
p319
I1
sVdh4bm0v
p320
I1
sVd19mopv
p321
I1
sVdmzqua8
p322
I1
sVdsylded
p323
I1
sVdhdp1ts
p324
I1
sVdpl7aas
p325
I1
sVd0zh412
p326
I1
sVd2po86a
p327
I1
sVd1zle5p
p328
I1
sVd3zo0iy
p329
I1
sVd6iy4cv
p330
I1
sVdakl7kx
p331
I1
sVdi48cen
p332
I1
sVd2o6f66
p333
I1
sVdci782h
p334
I1
sVd0mhfva
p335
I1
sVd5mpxco
p336
I1
sVdfqydkh
p337
I1
sVdf8lcn9
p338
I1
sVdgopq31
p339
I1
sVdep8fyo
p340
I1
sVdiovi0b
p341
I1
sVd6y687b
p342
I1
sVdjfdk9l
p343
I1
sVdmsjly0
p344
I1
sVd42axsl
p345
I1
sVdcc2vvp
p346
I1
sVddut6rf
p347
I1
sVd8dso3c
p348
I1
sVd17f5mo
p349
I1
sVczl3u54
p350
I1
sVd7k2q9m
p351
I1
sVd4q0l0a
p352
I1
sVdq60edi
p353
I1
sVdjacf64
p354
I1
sVd7l85kk
p355
I1
sVd06w970
p356
I1
sVd3uh154
p357
I1
sVcys3527
p358
I1
sVdc8zbrz
p359
I1
sVdna5bde
p360
I1
sVd8xw96h
p361
I1
sVdketyd0
p362
I1
sVd93pnx1
p363
I1
sVd66n2vo
p364
I1
sVdpy73rd
p365
I1
sVdnf0zlb
p366
I1
sVd4ivsgw
p367
I1
sVd7ilo0w
p368
I1
sVdpf2rjw
p369
I1
sVdtbc828
p370
I1
sVd9na1mg
p371
I1
sVdfekd1g
p372
I1
sVd1qv8t1
p373
I1
sVczxek5i
p374
I1
sVd7s7tw7
p375
I1
sVd9tmapb
p376
I1
sVczewffy
p377
I1
sVd58u9lt
p378
I1
sVdkk0g7t
p379
I1
sVd5bwnm7
p380
I1
sVd5fzfy6
p381
I1
sVd86otqs
p382
I1
sVddzdvfi
p383
I1
sVdd3m941
p384
I1
sVdrrgo17
p385
I1
sVd6hfzip
p386
I1
sVdqdxe86
p387
I1
sVdn5091p
p388
I1
sVcyljbud
p389
I1
sVdbnvsrp
p390
I1
sVdfwk9f5
p391
I1
sVd5ffath
p392
I1
sVdjy7lc1
p393
I1
sVd64rs0y
p394
I1
sVdf8zr6l
p395
I1
sVdqgbgiw
p396
I1
sVdbvu0xp
p397
I1
sVdpf15qa
p398
I1
sVd0ruhyn
p399
I1
sVd1msk78
p400
I1
sVdblxsf3
p401
I1
sVdn6hk66
p402
I1
sVd7sgoev
p403
I1
sVdanamsp
p404
I1
sVd3dn9mq
p405
I2
sVcyxb2m0
p406
I1
sVdnw92y1
p407
I1
sVdjdskgh
p408
I1
sVdg8tj4w
p409
I1
sVd54e63z
p410
I1
sVdglvsjh
p411
I1
sVdk4o4xp
p412
I1
sVddb9n5k
p413
I1
sVd2sch7w
p414
I1
sVd4trkn0
p415
I1
sVdmnco0p
p416
I1
sVds2jqrb
p417
I1
sVd0wf18c
p418
I1
sVdd89cxe
p419
I1
sVdjvewhj
p420
I1
sVcyqmgve
p421
I1
sVdag3ata
p422
I1
sVdht6aay
p423
I1
sVds3fjrx
p424
I1
sVdhqldwd
p425
I1
sVdc0knj5
p426
I1
sVd7fj6zm
p427
I1
sVd13nc9t
p428
I1
sVdt8lseb
p429
I1
sVczw1vna
p430
I1
sVdinzca0
p431
I1
sVdmzhabw
p432
I1
sVdfs8lcu
p433
I1
sVdt7tisl
p434
I1
sVd9g0uta
p435
I1
sVdhuy02v
p436
I1
sVdjf3pak
p437
I1
sVdht6ukb
p438
I1
sVdj510qh
p439
I1
sVdi4lkjq
p440
I1
sVd073feb
p441
I1
sVd7pb80q
p442
I1
sVd2p86ny
p443
I1
sVd8dx2qy
p444
I1
sVd154z8o
p445
I1
sVdijsh7s
p446
I2
sVdaw6fgg
p447
I1
sVd4m219u
p448
I1
sVd1eud35
p449
I1
sVdcflpqy
p450
I1
sVdkcynjy
p451
I1
sVdo3nhuq
p452
I1
sVddixzyu
p453
I1
sVd6af2tp
p454
I1
sVdaqswu9
p455
I1
sVd90eves
p456
I1
sVd1mv1o4
p457
I1
sVddbdlnn
p458
I1
sVd2wmc1r
p459
I1
sVdsh9ve6
p460
I1
sVcynwm27
p461
I1
sVd253sre
p462
I1
sVdjuu0h4
p463
I1
sVd624l7o
p464
I1
sVdj66utr
p465
I2
sVdiik0wn
p466
I1
sVdidv281
p467
I1
sVdazsgp2
p468
I1
sVd1lvmfj
p469
I2
sVd8f2cbx
p470
I1
sVd1mabr8
p471
I1
sVdekzzdg
p472
I1
sVdg7jwzd
p473
I1
sVcztdkfm
p474
I1
sVdexrdrk
p475
I1
sVd800lgr
p476
I1
sVdaok57j
p477
I1
sVdgt7zag
p478
I1
sVcz7am23
p479
I1
sVcywfcx9
p480
I1
sVd9wynah
p481
I1
sVdfvtfre
p482
I1
sVdnjsa0q
p483
I1
sVd3us43k
p484
I1
sVd1bywe2
p485
I1
sVdf9ajgy
p486
I1
sVd1gd5oi
p487
I1
sVdmnggif
p488
I1
sVdrhve7y
p489
I1
sVd42gw22
p490
I1
sVdbwgsf7
p491
I1
sVdfkrgae
p492
I2
sVd3ygp0i
p493
I1
sVdkmto5a
p494
I1
sVd6s6ayw
p495
I1
sVd1xmopc
p496
I1
sVd451kpb
p497
I1
sVda8a78a
p498
I1
sVddiernj
p499
I1
sVd4ksbum
p500
I1
sVdil4v7y
p501
I1
sVd4o4n99
p502
I1
sVd96eddx
p503
I1
sVczjdpap
p504
I1
sVdeuldkq
p505
I1
sVdbn73y4
p506
I1
sVdnqqnfg
p507
I1
sVd4g5sp7
p508
I1
sVd9a137s
p509
I1
sVcz9f2pr
p510
I1
sVd9wgtpo
p511
I1
sVde5e00b
p512
I1
sVdgph2cm
p513
I1
sVddeo2x0
p514
I1
sVdjr9u2h
p515
I1
sVd2tuq8i
p516
I1
sVd34pi66
p517
I1
sVdbi1vxa
p518
I1
sVds6yqlp
p519
I1
sVd1o4dpd
p520
I1
sVd0ustof
p521
I1
sVdg750pw
p522
I1
sVd2gdqqc
p523
I1
sVde0vic2
p524
I1
sVdg2x9gy
p525
I1
sVdfau1yh
p526
I1
sVd435kpb
p527
I1
sVd8m0wxs
p528
I1
sVd6sn1lu
p529
I1
sVczeoame
p530
I1
sVd5lmbfv
p531
I1
sVdczslmi
p532
I1
sVdan751d
p533
I1
sVd1xl7re
p534
I1
sVdknzaw7
p535
I1
sVd51mvnh
p536
I1
sVd2ic5i7
p537
I1
sVd9abnwv
p538
I1
sVd1wg8yb
p539
I3
sVdp9tkyo
p540
I1
sVdb9iq6t
p541
I1
sVd492v5t
p542
I1
sVd3nevr5
p543
I1
sVd1p25a0
p544
I1
sVd3lmp50
p545
I1
sVd99sqs2
p546
I1
sVd17azrr
p547
I1
sVd0aan2o
p548
I1
sVcyljbjp
p549
I1
sVdbmw0xz
p550
I1
sVd4jdgnt
p551
I1
sVdkdvci9
p552
I1
sVdg76dg6
p553
I1
sVdnpw6ld
p554
I3
sVczg4sbu
p555
I1
sVdhlaesn
p556
I1
sVd1p93jf
p557
I1
sVd96yf0x
p558
I1
sVddjf8n0
p559
I1
sVds25mkt
p560
I1
sVcykhjm2
p561
I1
sVd4xvt6n
p562
I1
sVd94rds8
p563
I1
sVdtie98z
p564
I1
sVd5ygrbf
p565
I1
sVdaxpjv7
p566
I1
sVd3hazko
p567
I1
sVd4qc3uw
p568
I2
sVd9djbzc
p569
I1
sVd7ulkmv
p570
I1
sVd8qepgq
p571
I1
sVddg3dfd
p572
I1
sVdeqcwt3
p573
I1
sVdsvkvfm
p574
I1
sVd19ikcz
p575
I1
sVdbn16t5
p576
I1
sVdihf4wk
p577
I1
sVdmybgst
p578
I2
sVczh8169
p579
I1
sVdakbeaz
p580
I1
sVdi0eb4k
p581
I1
sVdafipck
p582
I1
sVcyup45w
p583
I1
sVdk065b3
p584
I1
sVczjbhn6
p585
I1
sVdfytckg
p586
I1
sVd06fmx3
p587
I1
sVdfbu7ea
p588
I1
sVdggi0tm
p589
I1
sVdbiiwd8
p590
I1
sVd2kuxsh
p591
I1
sVdgnyefl
p592
I1
sVdp7bofp
p593
I1
sVdils201
p594
I1
sVdnhrku3
p595
I1
sVcz2cj9s
p596
I1
sVcys55td
p597
I1
sVde4y9z2
p598
I1
sVdgzfmg1
p599
I1
sVdkk4dbr
p600
I1
sVcz3dlqa
p601
I1
sVd28gskc
p602
I1
sVcywivq4
p603
I1
sVd74adhb
p604
I1
sVdqco23t
p605
I1
sVddhw1u0
p606
I1
sVd1whvfh
p607
I1
sVd3aktrp
p608
I1
sVd9fwd3a
p609
I1
sVdnm47z5
p610
I1
sVd4pjzrb
p611
I1
sVdjc8d53
p612
I1
sVdsm847h
p613
I1
sVdmq4tjm
p614
I1
sVczunlpw
p615
I1
sVds4ej9z
p616
I1
sVdb0jhd1
p617
I1
sVdd26ijc
p618
I1
sVdgiq29s
p619
I1
sVdjq5xr3
p620
I1
sVd24kgvw
p621
I1
sVdfyi96t
p622
I1
sVd9va7zu
p623
I2
sVdgo0q9g
p624
I1
sVd0ytotk
p625
I1
sVdoxm85w
p626
I1
sVddv0dno
p627
I1
sVdh66d7c
p628
I1
sVdjso0mu
p629
I1
sVd4bget9
p630
I1
sVdjcf32i
p631
I1
sVdiklfyh
p632
I2
sVdklpasa
p633
I1
sVdmqmr3y
p634
I1
sVdqwugjp
p635
I1
sVdq8s6rb
p636
I1
sVcyzlh8j
p637
I1
sVdj3vxfr
p638
I1
sVdfuc066
p639
I1
sVd5ayset
p640
I1
sVdscsamg
p641
I1
sVd6eaknu
p642
I1
sVd5iv5tr
p643
I1
sVd8gdld6
p644
I1
sVczhwqwe
p645
I1
sVdehkzbm
p646
I1
sVdnsqbij
p647
I1
sVdchwxv2
p648
I1
sVdi5xiu0
p649
I1
sVdii6h7z
p650
I1
sVd70vw0m
p651
I1
sVd0yg0zv
p652
I1
sVd1jo6yx
p653
I1
sVd0cocar
p654
I1
sVda20st6
p655
I1
sVdeoc1v6
p656
I1
sVdi60ebp
p657
I1
sVd3vilwh
p658
I1
sVczu8xxb
p659
I2
sVcynwnjc
p660
I1
sVd3dtmi7
p661
I1
sVddwm510
p662
I1
sVdig663w
p663
I1
sVd11dfze
p664
I1
sVdfi7qxb
p665
I1
sVdong060
p666
I1
sVd7do4z7
p667
I1
sVd62o3cq
p668
I1
sVdi6sjcw
p669
I1
sVd7d4gbp
p670
I1
sVd461dpj
p671
I1
sVd09me3v
p672
I1
sVdhva7rk
p673
I1
sVd209e47
p674
I1
sVcym30jb
p675
I1
sVczv5s5h
p676
I1
sVd17cjc1
p677
I1
sVdpqym8b
p678
I1
sVdboj35g
p679
I1
sVdr2rjat
p680
I1
sVd8xnahf
p681
I1
sVcz2fz2l
p682
I1
sVdauz9kt
p683
I1
sVd8539iq
p684
I1
sVddb0d5f
p685
I1
sVd2qao9t
p686
I1
sVcznnh64
p687
I1
sVd94ampx
p688
I1
sVd0rb1y5
p689
I1
sVdnvgjye
p690
I1
sVcyuf3j0
p691
I1
sVd27w3hf
p692
I1
sVdgreo2d
p693
I1
sVd6jv5yr
p694
I1
sVdqxds6c
p695
I1
sVd2wh2yr
p696
I1
sVdgsjp1l
p697
I1
sVd1uk6iw
p698
I1
sVd1jeiz7
p699
I1
sVda7pq5a
p700
I1
sVdnciyv8
p701
I1
sVczoo6e9
p702
I1
sVczonj3r
p703
I1
sVd47hxfy
p704
I1
sVdmsj906
p705
I1
sVdplfwx9
p706
I1
sVd06h3d0
p707
I1
sVdqhbslq
p708
I1
sVd8voco1
p709
I1
sVdkj5hkt
p710
I1
sVd2ft5vn
p711
I1
sVczjmqug
p712
I1
sVdenuhxs
p713
I1
sVczkqzco
p714
I1
sVdj6u1s3
p715
I1
sVd27ijva
p716
I1
sVd52mnbm
p717
I1
sVdqarwzc
p718
I1
sVdd3ui3i
p719
I1
sVdelao3b
p720
I1
sVdb5gbmj
p721
I1
sVcza32g5
p722
I1
sVdcmkziy
p723
I1
sVczp88bs
p724
I1
sVdbohv49
p725
I1
sVdh49x43
p726
I1
sVda67nw9
p727
I1
sVdqumipm
p728
I1
sVdawits9
p729
I1
sVd0ykggx
p730
I1
sVdpk4jq6
p731
I1
sVd39umgb
p732
I1
sVdheh2uf
p733
I1
sVd468cr4
p734
I1
sVdimerpc
p735
I1
sVd15l54q
p736
I1
sVdee3775
p737
I1
sVdixb0e5
p738
I1
sVdi206hj
p739
I1
sVdkgqxf9
p740
I1
sVd2re2z8
p741
I1
sVdjpwoqh
p742
I1
sVdd12l50
p743
I1
sVdmzrgrt
p744
I1
sVd3bvdfh
p745
I1
sVdizt7lx
p746
I1
sVdi7cgj7
p747
I1
sVdgpt643
p748
I1
sVd3q52tf
p749
I1
sVd0jfu8z
p750
I1
sVdelcznp
p751
I1
sVczcdcnl
p752
I1
sVdppfa2k
p753
I1
sVdhe70l4
p754
I1
sVdg1whbr
p755
I2
sVd3dgh75
p756
I1
sVcz4a9zx
p757
I1
sVdtihg00
p758
I1
sVdikrmk1
p759
I1
sVdj13551
p760
I1
sVdscas3f
p761
I1
sVd1mt88i
p762
I1
sVdgcmumv
p763
I1
sVddy4a1t
p764
I1
sVd9x3s3r
p765
I1
sVdbtve5b
p766
I1
sVdh9mlhr
p767
I1
sVd0bxjtb
p768
I1
sVd4pm4ud
p769
I1
sVd0czqtg
p770
I1
sVdp6hhk2
p771
I1
sVdnonyy0
p772
I1
sVdhlmur1
p773
I1
sVd7po8j8
p774
I1
sVd3v0twm
p775
I1
sVd7aslg4
p776
I1
sVdpmjno0
p777
I1
sVdjpj0cc
p778
I1
sVdh84qej
p779
I1
sVd468rk9
p780
I1
sVddfuawc
p781
I1
sVdq3gthc
p782
I1
sVdf18vbf
p783
I1
sVdd7n8ud
p784
I1
sVdgmyi0a
p785
I1
sVdak9cs3
p786
I1
sVd3k6224
p787
I1
sVd2vfkw3
p788
I1
sVddl7nsx
p789
I1
sVda8gdap
p790
I1
sVczjcdk3
p791
I1
sVdbr316k
p792
I1
sVdpf7txb
p793
I1
sVd4ewz51
p794
I1
sVd0plnrt
p795
I1
sVd8jbgje
p796
I1
sVd33fbu0
p797
I1
sVd9n127n
p798
I1
sVd3gf34s
p799
I1
sVdmyapu3
p800
I1
sVdikw1zp
p801
I1
sVd65ex1p
p802
I1
sVdb0yxsf
p803
I1
sVd04m3pr
p804
I1
sVd1g67w6
p805
I1
sVdhfuzez
p806
I1
sVdjh9rs7
p807
I1
sVddt42xr
p808
I1
sVd69bu6u
p809
I1
sVd9kpyyx
p810
I1
sVddnnt3t
p811
I1
sVd2hheal
p812
I1
sVdrzhg5c
p813
I1
sVd0sjlu7
p814
I2
sVdgza3xr
p815
I1
sVdj83dt9
p816
I1
sVdrbvm11
p817
I1
sVdfrc5cc
p818
I1
sVdiuc6by
p819
I1
sVdh09ctt
p820
I1
sVdgvgh3c
p821
I1
sVd99s8bc
p822
I1
sVd3t8o8f
p823
I1
sVd14j8uq
p824
I1
sVdfp5tsu
p825
I2
sVd7m8mz5
p826
I1
sVdh2z2fw
p827
I1
sVdhwipqn
p828
I1
sVddrbgk9
p829
I1
sVd2jjr0u
p830
I1
sVcysbslk
p831
I1
sVdmg1u6s
p832
I1
sVdg9hpcw
p833
I1
sVd5cu68l
p834
I1
sVdpqfmc3
p835
I2
sVd8xkg9g
p836
I1
sVdivsaih
p837
I1
sVddqr4sg
p838
I1
sVcyyim6x
p839
I1
sVd05eh6c
p840
I1
sVd1wb1sk
p841
I1
sVde9j0jj
p842
I1
sVdkknclj
p843
I1
sVddzl87t
p844
I2
sVd8wg8g1
p845
I1
sVddh582c
p846
I1
sVd2dmwqp
p847
I1
sVdj90pgh
p848
I1
sVd2yxkph
p849
I1
sVdggkp83
p850
I1
sVdb8sk8c
p851
I1
sVdq37z8y
p852
I1
sVd6jeonu
p853
I1
sVd18n3ce
p854
I1
sVcyjb2xa
p855
I1
sVd0igy0w
p856
I1
sVdgd2lcb
p857
I1
sVcyp3png
p858
I1
sVcz7so2b
p859
I2
sVd3wxe71
p860
I2
sVdjm970q
p861
I1
sVddskl8f
p862
I1
sVdk4rvq9
p863
I1
sVdp1xhyv
p864
I1
sVd4h4c51
p865
I1
sVdkilq1n
p866
I1
sVd5606p0
p867
I1
sVdruo1pv
p868
I1
sVdgl2jhp
p869
I1
sVd90mloq
p870
I1
sVdiaw0zr
p871
I1
sVdgau7di
p872
I1
sVd7ob20c
p873
I1
sVd2jamkv
p874
I1
sVd3f3hbu
p875
I1
sVde8gfvz
p876
I1
sVdb4t6ex
p877
I1
sVd2411ir
p878
I1
sVdbhwf2b
p879
I1
sVdcshmot
p880
I1
sVdsdq9ms
p881
I1
sVdjveahx
p882
I1
sVdjxmnim
p883
I1
sVd5pl0mt
p884
I1
sVdejerml
p885
I1
sVdikjnoh
p886
I1
sVd26509w
p887
I1
sVd29esc0
p888
I1
sVdjia3uz
p889
I1
sVddw8ql9
p890
I1
sVdqjgvwz
p891
I1
sVdcefwi1
p892
I1
sVdh8cx6q
p893
I1
sVdmmrwiz
p894
I1
sVdhmad8s
p895
I1
sVdo9b032
p896
I1
sVdsszqz6
p897
I1
sVd38orqr
p898
I1
sVdgt54se
p899
I1
sVcz1hdxa
p900
I1
sVd8022f5
p901
I1
sVczhz1q6
p902
I1
sVd37lpks
p903
I1
sVdg3usiq
p904
I1
sVd3phutt
p905
I1
sVdgtqpb2
p906
I1
sVcyn4969
p907
I1
sVdt6chs7
p908
I1
sVd73wxbq
p909
I1
sVd1jtudp
p910
I1
sVdca05z7
p911
I1
sVd6pgdcq
p912
I1
sVczwxxcx
p913
I1
sVd48qoa4
p914
I1
sVdhl4pcb
p915
I1
sVdh36eas
p916
I1
sVde7qs1l
p917
I2
sVdgdrnf5
p918
I1
sVdcucw8p
p919
I1
sVde5bgok
p920
I1
sVdbn0d7i
p921
I1
sVdg8vgmn
p922
I1
sVd2haeg3
p923
I1
sVdqstqfa
p924
I1
sVd18gm5o
p925
I1
sVd50um00
p926
I1
sVdgop2yo
p927
I1
sVd14kfoz
p928
I1
sVdamsymb
p929
I1
sVdqctzv5
p930
I1
sVdnhorf2
p931
I1
sVd69inpa
p932
I1
sVdhpw0bi
p933
I1
sVdbrz4d6
p934
I1
sVd6czwnt
p935
I1
sVdkmj0mu
p936
I1
sVd37rrk9
p937
I1
sVd3kkj68
p938
I1
sVdmoc4c4
p939
I1
sVd1y4d2e
p940
I1
sVdct7wwb
p941
I1
sVczd8oa3
p942
I1
sVdh9j0aa
p943
I1
sVderccon
p944
I1
sVdhlnyb3
p945
I1
sVdqlmind
p946
I1
sVcz9h102
p947
I1
sVd9yz12h
p948
I1
sVd9e0sqy
p949
I1
sVdij8tnt
p950
I1
sVd35t2jz
p951
I1
sVczrc1th
p952
I1
sVczc2hap
p953
I1
sVd907vqb
p954
I1
sVd5op9vm
p955
I1
sVczjgqi4
p956
I1
sVcypd4i6
p957
I1
sVd1nx88e
p958
I1
sVczc4opz
p959
I1
sVdtauabi
p960
I1
sVdf92ngl
p961
I1
sVdjx36sj
p962
I1
sVdc9xgml
p963
I1
sVdhdxdpb
p964
I1
sVd127pmz
p965
I1
sVdazusht
p966
I1
sVd8vv9va
p967
I1
sVdn1lxq5
p968
I2
sVd9nbfbm
p969
I1
sVd6ln6vv
p970
I1
sVcyp7h4q
p971
I1
sVdefwwhx
p972
I1
sVddso235
p973
I1
sVd9687kr
p974
I1
sVd7hicvf
p975
I1
sVcze5sn0
p976
I2
sVcyig0pv
p977
I1
sVd3t1jng
p978
I1
sVditelf8
p979
I1
sVdc2fco2
p980
I1
sVdh40j8h
p981
I1
sVcyjze93
p982
I1
sVd5xcgd9
p983
I1
sVdmufupa
p984
I1
sVd617j8e
p985
I1
sVdnp3es7
p986
I1
sVdkubk0z
p987
I1
sVd3wa2ip
p988
I1
sVdqf9qfz
p989
I1
sVd7wetgz
p990
I1
sVcz7lde0
p991
I1
sVd3fdn7l
p992
I1
sVdjn6nf4
p993
I1
sVdgmbalh
p994
I1
sVdom86yv
p995
I1
sVds92s6j
p996
I1
sVdo1skf2
p997
I1
sVd68p070
p998
I1
sVd3m7ebh
p999
I1
sVd59t119
p1000
I1
sVd9cf6vl
p1001
I1
sVdcui7bp
p1002
I1
sVczlxh20
p1003
I1
sVd90gflr
p1004
I1
sVd2m8ero
p1005
I1
sVdkant52
p1006
I1
sVdjsluqb
p1007
I1
sVdkqr78n
p1008
I1
sVd22ayvi
p1009
I1
sVdnwn89e
p1010
I1
sVd9b7tr2
p1011
I1
sVdr96e51
p1012
I1
sVcz73pul
p1013
I1
sVdeet6a6
p1014
I1
sVdnj3w0g
p1015
I1
sVdjdf0oc
p1016
I1
sVd9zauy3
p1017
I1
sVdt94t85
p1018
I1
sVcz9kpo9
p1019
I1
sVdf1v9yk
p1020
I1
sVd1cvt8g
p1021
I1
sVdbak74p
p1022
I1
sVddnaeg0
p1023
I2
sVd8xrp0n
p1024
I1
sVdqendyy
p1025
I1
sVdkkd3q3
p1026
I1
sVd8u6ofc
p1027
I1
sVdml92sm
p1028
I1
sVdkj2qwl
p1029
I1
sVd17n2ou
p1030
I1
sVdf55n39
p1031
I1
sVd1dd13v
p1032
I1
sVderd6ws
p1033
I1
sVdnnkzys
p1034
I1
sVdhjnznq
p1035
I1
sVdpwn32b
p1036
I1
sVd4rnk4x
p1037
I1
sVdmfk6h1
p1038
I1
sVd6bbgec
p1039
I1
sVd99d3r6
p1040
I1
sVd04dfix
p1041
I1
sVdsi8o5s
p1042
I1
sVdixf6hs
p1043
I1
sVd9x50be
p1044
I1
sVdedcmh7
p1045
I1
sVda8f1y1
p1046
I1
sVd5op49m
p1047
I1
sVd7qb34d
p1048
I1
sVdfqujt9
p1049
I1
sVdc6oqhw
p1050
I2
sVdaj7fnm
p1051
I1
sVdgu5uyq
p1052
I1
sVcztjnty
p1053
I1
sVcyw83in
p1054
I1
sVdpq1rej
p1055
I1
sVdfzwam0
p1056
I1
sVder6ls2
p1057
I1
sVdatl1z0
p1058
I1
sVczv6n0i
p1059
I1
sVd7a9edo
p1060
I1
sVd5na3pc
p1061
I1
sVdcehpmz
p1062
I1
sVd5eee3y
p1063
I1
sVdpw8e31
p1064
I1
sVdecudjh
p1065
I1
sVdbtzbch
p1066
I1
sVdqfmgul
p1067
I3
sVdakysbs
p1068
I1
sVd71ry1s
p1069
I1
sVdji43tb
p1070
I1
sVd0zsunq
p1071
I1
sVd5upr59
p1072
I1
sVdpld6ih
p1073
I1
sVdf7actd
p1074
I1
sVdfyjkby
p1075
I1
sVd1k0dl0
p1076
I1
sVdies381
p1077
I1
sVdexfn8t
p1078
I1
sVdhvn2fq
p1079
I1
sVdjpw3rv
p1080
I1
sVdbcozje
p1081
I1
sVdijhsep
p1082
I1
sVdo1gvfq
p1083
I1
sVdqd0pkl
p1084
I1
sVdkdxeej
p1085
I1
sVd1raffv
p1086
I1
sVd7ym80z
p1087
I1
sVd9nhy7s
p1088
I1
sVdpppoqg
p1089
I1
sVd04nobb
p1090
I1
sVdnpfsej
p1091
I1
sVd5mj7zt
p1092
I1
sVcyzj8cw
p1093
I1
sVdiv8oir
p1094
I1
sVdhpgjo9
p1095
I1
sVd66x0wd
p1096
I1
sVd1hrlu5
p1097
I1
sVdk1xctd
p1098
I1
sVcyku3d0
p1099
I1
sVd0u8xsx
p1100
I2
sVd6h50yv
p1101
I1
sVdmxpw1v
p1102
I1
sVd8esmdq
p1103
I1
sVddf0nyk
p1104
I1
sVcywkojj
p1105
I1
sVdd6rsnm
p1106
I1
sVdbwozxs
p1107
I2
sVd9nid8w
p1108
I1
sVde6zeva
p1109
I1
sVdjq0rb5
p1110
I1
sVdhvaomk
p1111
I1
sVdfh08sc
p1112
I1
sVd8alzfk
p1113
I1
sVd2d1ai5
p1114
I1
sVd00uoh2
p1115
I1
sVda1dme4
p1116
I1
sVd7uil3a
p1117
I1
sVd7qmh37
p1118
I1
sVdamut4a
p1119
I1
sVdkbvqfu
p1120
I1
sVdo2ovqv
p1121
I1
sVddkifdz
p1122
I1
sVd6o6bfl
p1123
I1
sVd4nejqg
p1124
I1
sVd8v14q4
p1125
I1
sVd0qukdf
p1126
I1
sVdo36gvw
p1127
I1
sVd7iqy06
p1128
I1
sVd2ekcr0
p1129
I1
sVdddoea5
p1130
I1
sVdnm0yjl
p1131
I1
sVczjag3q
p1132
I1
sVd4tszwy
p1133
I2
sVdelb52c
p1134
I1
sVd0cbvd4
p1135
I1
sVdh3n57i
p1136
I1
sVderhgxx
p1137
I1
sVd1bymm5
p1138
I1
sVdfc1nor
p1139
I1
sVd18l2eb
p1140
I1
sVdbl31ti
p1141
I1
sVd2ecw40
p1142
I1
sVd5ys38u
p1143
I1
sVdcdik1b
p1144
I1
sVczkz3so
p1145
I1
sVddjg6ik
p1146
I1
sVdgyafne
p1147
I1
sVdh4iv1o
p1148
I1
sVdokw1uf
p1149
I1
sVdh0p26u
p1150
I2
sVczgofyn
p1151
I1
sVdi1tzk0
p1152
I1
sVdjr5nbe
p1153
I1
sVdmosvx8
p1154
I1
sVdo968n9
p1155
I1
sVdbroied
p1156
I1
sVdj2gn06
p1157
I1
sVdmvahns
p1158
I1
sVd1asz3i
p1159
I1
sVd7sforp
p1160
I1
sVdb44x3c
p1161
I1
sVd391mc0
p1162
I1
sVdpy8i7e
p1163
I1
sVdq0f8bq
p1164
I1
sVd21v8ox
p1165
I1
sVdggkv1l
p1166
I1
sVdhecbu9
p1167
I1
sVdgowy8p
p1168
I1
sVddrbu5l
p1169
I1
sVdkacqdh
p1170
I1
sVd49zugd
p1171
I1
sVdi0yn58
p1172
I1
sVcysvq5a
p1173
I1
sVdioqzlt
p1174
I1
sVdibpi5h
p1175
I1
sVdcbkttd
p1176
I1
sVdggubrq
p1177
I1
sVdixwf11
p1178
I1
sVddd5pv2
p1179
I1
sVdo8x23t
p1180
I1
sVd8f66ra
p1181
I1
sVd6wg2qp
p1182
I1
sVdbxfexi
p1183
I1
sVdcue321
p1184
I1
sVdbdprm1
p1185
I1
sVdazm2lk
p1186
I1
sVdgqdbmd
p1187
I1
sVd8aeyoh
p1188
I1
sVdatlye2
p1189
I1
sVcz2f55m
p1190
I1
sVdifjrfr
p1191
I1
sVd413yrx
p1192
I1
sVdqwd8d2
p1193
I1
sVczjdj5b
p1194
I1
sVdhgfazp
p1195
I1
sVd6m7pdn
p1196
I1
sVczxswnx
p1197
I1
sVdj2mpoy
p1198
I1
sVd7qigel
p1199
I1
sVdr85c43
p1200
I1
sVcynqjwy
p1201
I2
sVdf35aui
p1202
I1
sVd6nxq2e
p1203
I1
sVdds1ow7
p1204
I1
sVd95u85n
p1205
I1
sVdatx1xy
p1206
I1
sVdepugtr
p1207
I2
sVd2hibrt
p1208
I1
sVczzf2lr
p1209
I1
sVd5ei99k
p1210
I1
sVd96o7av
p1211
I1
sVdnabs7w
p1212
I1
sVds4yqc6
p1213
I1
sVdbb70ml
p1214
I1
sVd4xzyxf
p1215
I1
sVdry9ae0
p1216
I1
sVdati0pm
p1217
I1
sVdgak0uu
p1218
I1
sVdhfhe8b
p1219
I1
sVdh0fqpf
p1220
I1
sVd311xz3
p1221
I1
sVd5elmy2
p1222
I1
sVd9j8olp
p1223
I1
sVd9asfbp
p1224
I1
sVd9hyqzt
p1225
I1
sVd8d0iwv
p1226
I1
sVd4ua0ep
p1227
I1
sVd2cninj
p1228
I1
sVdeuhzqi
p1229
I1
sVdh0rd07
p1230
I1
sVd85r8c4
p1231
I1
sVdqc0jtn
p1232
I1
sVd630hji
p1233
I1
sVdoi2hb4
p1234
I1
sVdb5c57n
p1235
I1
sVdeibffw
p1236
I1
sVdkralqc
p1237
I1
sVdbnbji3
p1238
I1
sVcyjayna
p1239
I1
sVdgwom8g
p1240
I1
sVd6fdcer
p1241
I1
sVd0843rl
p1242
I1
sVd1jlh1r
p1243
I1
sVczywig0
p1244
I1
sVdaygftm
p1245
I1
sVd6esfzx
p1246
I1
sVdtc29rv
p1247
I1
sVdkw9otw
p1248
I1
sVczbmr17
p1249
I1
sVd6877dl
p1250
I1
sVd1311ow
p1251
I1
sVd1xrhws
p1252
I1
sVd81oct3
p1253
I1
sVd80ytce
p1254
I1
sVd2co4wd
p1255
I1
sVd40ofpw
p1256
I1
sVd9d0m93
p1257
I1
sVd5zv4s2
p1258
I1
sVd6a8b9z
p1259
I1
sVd4g9m5l
p1260
I1
sVdbqzhki
p1261
I1
sVdptjgrm
p1262
I1
sVdkkad7f
p1263
I1
sVczgq8c2
p1264
I1
sVd0t6xyt
p1265
I1
sVdefx1zv
p1266
I1
sVdip52xh
p1267
I1
sVdd2q1cb
p1268
I1
sVdpxgo1o
p1269
I1
sVdiugr0o
p1270
I1
sVd018t15
p1271
I1
sVd2aesyn
p1272
I1
sVcz6a00x
p1273
I1
sVdgyx5t3
p1274
I1
sVdagssdf
p1275
I1
sVcyp5g7j
p1276
I1
sVdd9kdhb
p1277
I1
sVdantvg7
p1278
I1
sVdo1tr3r
p1279
I1
sVd5d6bzv
p1280
I1
sVdb2xgft
p1281
I1
sVdnckko7
p1282
I1
sVdkdxhiv
p1283
I1
sVdkihkqn
p1284
I1
sVd8aekfy
p1285
I1
sVdkrxssx
p1286
I1
sVd3kji2s
p1287
I1
sVdn04e0h
p1288
I2
sVdj38koc
p1289
I1
sVdqd0h0u
p1290
I1
sVcynfbw3
p1291
I2
sVdsvlr0d
p1292
I1
sVd7yg93k
p1293
I2
sVdn339hn
p1294
I1
sVddnxxyn
p1295
I1
sVdgp7jv2
p1296
I1
sVd7xxs5j
p1297
I1
sVdfnstdc
p1298
I1
sVd29qxjk
p1299
I1
sVd4xdvbx
p1300
I1
sVdt8paub
p1301
I1
sVd00zkhm
p1302
I1
sVd5r28sm
p1303
I1
sVd5ch4t8
p1304
I1
sVdk4q0wr
p1305
I1
sVd56dc42
p1306
I1
sVdhau6xh
p1307
I1
sVcz85s4y
p1308
I1
sVdr7sd3e
p1309
I1
sVdcaluj5
p1310
I1
sVd7p5a4j
p1311
I1
sVd6hdp05
p1312
I1
sVdcgzkj8
p1313
I1
sVd7sxxim
p1314
I1
sVd1v8fqs
p1315
I1
sVdor7eio
p1316
I1
sVddv1jwy
p1317
I1
sVd05oecs
p1318
I1
sVdh8hcn0
p1319
I1
sVddvo7qp
p1320
I1
sVd6pkw8a
p1321
I1
sVczoqaos
p1322
I1
sVd58frdg
p1323
I1
sVdqu1m9j
p1324
I1
sVczvc875
p1325
I1
sVdb5x3fe
p1326
I1
sVdcxvcqz
p1327
I1
sVddfvt57
p1328
I1
sVcyuny2p
p1329
I1
sVd5dwwjc
p1330
I1
sVcytpnry
p1331
I1
sVdmunub8
p1332
I1
sVd2t9909
p1333
I1
sVd07p9hi
p1334
I1
sVczujtj7
p1335
I2
sVd1tk4bz
p1336
I1
sVde2pkn1
p1337
I1
sVd1jruf5
p1338
I1
sVdn00xqd
p1339
I1
sVd541pkv
p1340
I1
sVd2naihd
p1341
I1
sVd1hiuf0
p1342
I1
sVddkaryf
p1343
I1
sVdg3z87b
p1344
I2
sVd99jicw
p1345
I1
sVdoxoyzh
p1346
I1
sVd0s7rk0
p1347
I1
sVddb822x
p1348
I1
sVd1l7e8u
p1349
I1
sVd3p0oku
p1350
I1
sVdc8vnsm
p1351
I1
sVd67q89y
p1352
I1
sVd0sq6di
p1353
I1
sVd24kk5s
p1354
I1
sVd7e2q0s
p1355
I1
sVdemod19
p1356
I1
sVdmvx04p
p1357
I1
sVd0q367u
p1358
I1
sVdq4h9ch
p1359
I1
sVd0ldpnc
p1360
I1
sVdf39sea
p1361
I1
sVdglqugb
p1362
I1
sVd4dz43j
p1363
I1
sVcz835q3
p1364
I1
sVd4i4hxg
p1365
I1
sVdnvkwgj
p1366
I1
sVd6jfxzk
p1367
I1
sVdkn85gu
p1368
I1
sVd00cf01
p1369
I1
sVd0p4vte
p1370
I1
sVd1y76bm
p1371
I1
sVdi6anjb
p1372
I1
sVddx4aun
p1373
I1
sVd6m5l8d
p1374
I1
sVcytwvos
p1375
I1
sVd8hjlug
p1376
I1
sVcyuoisa
p1377
I2
sVcz7hmjd
p1378
I1
sVd8wunm2
p1379
I1
sVdpnkjr5
p1380
I1
sVddi0k57
p1381
I1
sVdcsf6u0
p1382
I1
sVd4ymt4l
p1383
I1
sVd59npbj
p1384
I1
sVcyrx0kf
p1385
I1
sVd9k30gh
p1386
I1
sVd235gs9
p1387
I1
sVd3lnrun
p1388
I1
sVdfvmw16
p1389
I1
sVdf1et6f
p1390
I1
sVdmf4kcf
p1391
I1
sVd1wxk9n
p1392
I1
sVcykdwwv
p1393
I1
sVd7cmk0c
p1394
I1
sVd9aud4u
p1395
I1
sVdh71693
p1396
I1
sVdhcje1v
p1397
I1
sVdi6nnki
p1398
I1
sVczhzqye
p1399
I1
sVd7q5tou
p1400
I1
sVd421zv0
p1401
I1
sVd9lupnw
p1402
I1
sVdkuzop1
p1403
I1
sVd67y4cx
p1404
I1
sVd275xn7
p1405
I1
sVd4h0vcr
p1406
I1
sVd4u4e1u
p1407
I1
sVdkzkrk5
p1408
I1
sVdj78g71
p1409
I1
sVdbvwrp6
p1410
I1
sVd7lc0wj
p1411
I1
sVdktfbq9
p1412
I1
sVd02a70i
p1413
I1
sVdmp5ncq
p1414
I1
sVd9w6owm
p1415
I1
sVd0ry1m5
p1416
I1
sVdaca22v
p1417
I1
sVd9yodqa
p1418
I1
sVd9dm8gq
p1419
I1
sVd3b3rr8
p1420
I1
sVd6xjiq3
p1421
I1
sVdg9nvsm
p1422
I1
sVcz6wcu4
p1423
I1
sVd436kyl
p1424
I1
sVdq6mdsb
p1425
I1
sVdkq3gnt
p1426
I1
sVd34qyre
p1427
I1
sVdbmgv9t
p1428
I1
sVddmmwcy
p1429
I1
sVdfx2673
p1430
I1
sVd4vnfg0
p1431
I1
sVddu6w9w
p1432
I1
sVdhtcz6b
p1433
I1
sVder805s
p1434
I1
sVdcpo47v
p1435
I1
sVcyi3ks0
p1436
I1
sVdmrysqu
p1437
I1
sVdo8suas
p1438
I1
sVd3v501i
p1439
I1
sVdj9jlsn
p1440
I1
sVdcel4yy
p1441
I1
sVd16r903
p1442
I1
sVdrblu60
p1443
I1
sVdrdwcuh
p1444
I2
sVd236j3q
p1445
I1
sVdbuevdr
p1446
I1
sVdjbvfhn
p1447
I1
sVd1dok1a
p1448
I1
sVdazbvtq
p1449
I1
sVdbn05yv
p1450
I1
sVdqn0tjl
p1451
I1
sVdsakx2w
p1452
I1
sVd0xio2t
p1453
I1
sVd0zz09s
p1454
I1
sVdpyppsb
p1455
I1
sVdkjk3jn
p1456
I1
sVdb6kynk
p1457
I1
sVdc4v0o2
p1458
I1
sVd39eml7
p1459
I1
sVd0mupuy
p1460
I1
sVdo8gwss
p1461
I1
sVd5a0vfr
p1462
I1
sVd3dtozg
p1463
I1
sVd6kursb
p1464
I1
sVczmt6f1
p1465
I1
sVczs1use
p1466
I1
sVddyrlhl
p1467
I1
sVd7lseyu
p1468
I1
sVd271nvq
p1469
I1
sVdn3mi0a
p1470
I1
sVd8xho2u
p1471
I1
sVdaf71dk
p1472
I1
sVd9mw5ml
p1473
I1
sVdeytlq2
p1474
I1
sVd6cc6lr
p1475
I1
sVd4xv8h3
p1476
I1
sVd0w6yb5
p1477
I1
sVdj5kwnf
p1478
I1
sVd5xgx2x
p1479
I1
sVd0101u2
p1480
I1
sVd4b3zf3
p1481
I1
sVd27tepd
p1482
I1
sVd3u12di
p1483
I1
sVcylo6ej
p1484
I1
sVd57ygte
p1485
I1
sVd8spqii
p1486
I1
sVdqb26ly
p1487
I1
sVcz2eb1p
p1488
I1
sVcyogi3z
p1489
I1
sVd0vhnlw
p1490
I1
sVdi78rp4
p1491
I1
sVdbil403
p1492
I1
sVdnuob8v
p1493
I1
sVd82mj31
p1494
I1
sVdd8bu0c
p1495
I1
sVdmts3c2
p1496
I1
sVd1fjl8f
p1497
I1
sVd46dolw
p1498
I1
sVdck4tgt
p1499
I1
sVdi56rp3
p1500
I1
sVdepkwt3
p1501
I1
sVd8s4cn8
p1502
I1
sVd68wzng
p1503
I1
sVdnpld7h
p1504
I1
sVdcq972w
p1505
I1
sVd6nkg61
p1506
I1
sVd8322gf
p1507
I2
sVd0smp35
p1508
I1
sVd1px5kz
p1509
I1
sVdpxbds8
p1510
I1
sVdkq7h2b
p1511
I1
sVd0mqggb
p1512
I1
sVdem9olq
p1513
I1
sVdgrlws3
p1514
I1
sVdbxu2ht
p1515
I1
sVcykx159
p1516
I1
sVdb90w3n
p1517
I1
sVdjceahk
p1518
I1
sVdtfbegl
p1519
I1
sVd3qbe4z
p1520
I1
sVdb8eva5
p1521
I1
sVd9hcp8j
p1522
I1
sVdj2ur6k
p1523
I1
sVdc3g7r0
p1524
I1
sVdbi9j0p
p1525
I2
sVde8l999
p1526
I1
sVd6j64o6
p1527
I1
sVdo3n7gr
p1528
I1
sVd9yss3y
p1529
I1
sVd850gzb
p1530
I1
sVd1j3nna
p1531
I1
sVd80kxo0
p1532
I1
sVczhxj2w
p1533
I1
sVczbekv5
p1534
I1
sVd3aoy54
p1535
I1
sVczz12x0
p1536
I1
sVdbyf5w2
p1537
I1
sVd4115l0
p1538
I1
sVcyl3gj2
p1539
I1
sVdd3sxeh
p1540
I1
sVdg8gkci
p1541
I1
sVd2mycoq
p1542
I1
sVczdkghg
p1543
I1
sVdi3hzxe
p1544
I1
sVdf88cw0
p1545
I1
sVda13j11
p1546
I1
sVdcpjxge
p1547
I1
sVdd5wcdq
p1548
I1
sVd44mjry
p1549
I1
sVd7m48d5
p1550
I1
sVdrko7lr
p1551
I1
sVdd9wam4
p1552
I1
sVdk156cd
p1553
I1
sVd8jrhha
p1554
I1
sVczecvgu
p1555
I1
sVd5821e7
p1556
I1
sVdcfj4h7
p1557
I2
sVdfanj1i
p1558
I1
sVdhn3b9z
p1559
I1
sVd8de45z
p1560
I1
sVd3ma9d4
p1561
I1
sVd18s9hd
p1562
I1
sVd5rj7kf
p1563
I1
sVdhgf2mc
p1564
I1
sVcyk0e3q
p1565
I1
sVd70mmtr
p1566
I1
sVdd4xu24
p1567
I1
sVd6boyuq
p1568
I1
sVd9hkj91
p1569
I1
sVdj8et4a
p1570
I1
sVcz12n3w
p1571
I1
sVd03fom7
p1572
I1
sVdgvrju1
p1573
I1
sVdcg2vlo
p1574
I1
sVd64ij1k
p1575
I1
sVd0ypdao
p1576
I1
sVdcqfyzm
p1577
I1
sVd1q93yz
p1578
I1
sVczcz0s1
p1579
I1
sVddvhtz7
p1580
I1
sVdnr42ce
p1581
I1
sVczyzzq8
p1582
I1
sVda245s0
p1583
I1
sVdb5e2wp
p1584
I1
sVdh1k6h0
p1585
I1
sVdf9fq3d
p1586
I1
sVdbd21th
p1587
I1
sVde09cwt
p1588
I1
sVd5rxzf3
p1589
I1
sVd9xumqx
p1590
I1
sVd89132p
p1591
I1
sVd8di0vg
p1592
I1
sVd0btvum
p1593
I1
sVd6l7mcz
p1594
I1
sVdp0tfjp
p1595
I1
sVd1kqgvp
p1596
I1
sVdd0b1ie
p1597
I1
sVdfoan36
p1598
I1
sVdf5hu7u
p1599
I1
sVdb2775l
p1600
I1
sVdndq6h8
p1601
I1
sVd5ad5ha
p1602
I1
sVdhrklr9
p1603
I1
sVdf47ood
p1604
I1
sVd61nmf7
p1605
I1
sVdcibq5g
p1606
I1
sVd10tmc7
p1607
I1
sVd7xiagl
p1608
I1
sVdicccck
p1609
I1
sVdngnfbs
p1610
I1
sVdasxe5t
p1611
I1
sVd35mcu8
p1612
I1
sVcz4gn22
p1613
I1
sVde5rrm0
p1614
I1
sVdjskbjo
p1615
I1
sVd5vl8fa
p1616
I1
sVdejizb5
p1617
I1
sVdcb6nuh
p1618
I1
sVdkdx8bd
p1619
I1
sVdje6lfu
p1620
I1
sVda85ipu
p1621
I1
sVdh8actc
p1622
I1
sVdas4spj
p1623
I1
sVdk5m9py
p1624
I1
sVd97b9eo
p1625
I1
sVd91tdou
p1626
I1
sVczbmx0u
p1627
I1
sVdp9vwg6
p1628
I1
sVd1dn950
p1629
I1
sVdf0u6m5
p1630
I1
sVd8icj47
p1631
I1
sVdiqz0ze
p1632
I1
sVdg11oqz
p1633
I1
sVd1t5938
p1634
I1
sVddmf83q
p1635
I1
sVd17m0t9
p1636
I1
sVd97nhla
p1637
I1
sVd06xqo5
p1638
I1
sVdsjqtty
p1639
I1
sVd3pzfw7
p1640
I1
sVd27trr4
p1641
I1
sVdjhm3vq
p1642
I1
sVdaevwe6
p1643
I1
sVd0a09g1
p1644
I1
sVd6y9dvf
p1645
I1
sVdq4blp9
p1646
I1
sVdr1ba1j
p1647
I1
sVdd5hy9s
p1648
I1
sVd05r404
p1649
I1
sVdgl80cv
p1650
I1
sVd6bpy20
p1651
I1
sVdjyz1yl
p1652
I1
sVd36hevn
p1653
I1
sVd4xjl7b
p1654
I1
sVczokoug
p1655
I1
sVd6qg45h
p1656
I2
sVd1i4fup
p1657
I1
sVdgt4m4r
p1658
I1
sVdhce35k
p1659
I1
sVdhtmbq0
p1660
I2
sVd02t5ae
p1661
I1
sVd13kq0t
p1662
I1
sVdc63i3u
p1663
I1
sVdnhwpa2
p1664
I1
sVdbi5d78
p1665
I1
sVdkl1wis
p1666
I1
sVd30fwah
p1667
I1
sVdmlgccb
p1668
I1
sVd4n94g0
p1669
I1
sVd3g96od
p1670
I1
sVd8f2je8
p1671
I1
sVdapbmw2
p1672
I2
sVd84qoly
p1673
I1
sVder7fpv
p1674
I1
sVdc5n5pu
p1675
I1
sVdmvrjwv
p1676
I1
sVdaoefin
p1677
I1
sVd77a4cb
p1678
I1
sVdi4vlus
p1679
I1
sVdel8dmi
p1680
I1
sVdo78a3f
p1681
I1
sVdky4r1z
p1682
I1
sVdhcmjy3
p1683
I1
sVdfam6it
p1684
I1
sVda0s8i1
p1685
I1
sVd8jd6nd
p1686
I1
sVddxv2ym
p1687
I1
sVdfngce8
p1688
I1
sVdbt0eu0
p1689
I1
sVdssf7ff
p1690
I1
sVdbtmjob
p1691
I1
sVczmxy0e
p1692
I1
sVdoj2xmu
p1693
I1
sVd5cxigm
p1694
I1
sVd7iqrld
p1695
I1
sVdj6sel3
p1696
I1
sVd9o3ix2
p1697
I1
s.