(dp0
Vcyi6uq8
p1
I1
s.(dp0
Vcyi6uq8
p1
I1
sVcyjp5in
p2
I1
s.(dp0
Vcyi6uq8
p1
I1
sVcyjp6qk
p2
I1
s.(dp0
Vcyi6uq8
p1
I1
sVcyjpagg
p2
I1
s.(dp0
Vcyi6uq8
p1
I1
sVcyk74dp
p2
I1
s.(dp0
Vcyi6uq8
p1
I1
sVcyldgzm
p2
I1
s.(dp0
Vcyi6uq8
p1
I1
sVcylkli7
p2
I1
s.(dp0
Vcyi6uq8
p1
I1
sVcylkli7
p2
I1
s.(dp0
Vcyi6uq8
p1
I1
sVcylxq6p
p2
I1
s.(dp0
Vcyi6uq8
p1
I1
sVcym1mve
p2
I1
s.(dp0
Vcyi6uq8
p1
I1
sVcyo1t6x
p2
I1
s.(dp0
Vcyi6uq8
p1
I1
sVcyo1t6x
p2
I1
s.(dp0
Vcyi6uq8
p1
I1
sVcyoa7zm
p2
I1
s.(dp0
Vcyi6uq8
p1
I1
sVcyopxu5
p2
I1
s.(dp0
Vcyi6uq8
p1
I1
sVcyp4n14
p2
I1
s.(dp0
Vcyi6uq8
p1
I1
sVcyqapui
p2
I1
s.(dp0
Vcyi6uq8
p1
I1
sVcyqva43
p2
I1
s.(dp0
Vcyr5i3g
p1
I1
sVcyi6uq8
p2
I1
s.(dp0
Vcyi6uq8
p1
I1
sVcyr70k7
p2
I1
s.(dp0
Vcyi6uq8
p1
I1
sVcys0xcs
p2
I1
s.(dp0
Vcysmti5
p1
I1
sVcyi6uq8
p2
I1
s.(dp0
Vcysnthf
p1
I1
sVcyi6uq8
p2
I1
s.(dp0
Vcytb3wk
p1
I1
sVcyi6uq8
p2
I1
s.(dp0
Vcyi6uq8
p1
I1
sVcyvs3g7
p2
I1
s.(dp0
Vcyi6uq8
p1
I1
sVcyxba5k
p2
I1
s.(dp0
Vcyi6uq8
p1
I1
sVcyxsv9t
p2
I1
s.(dp0
Vcyi6uq8
p1
I1
sVcyyefwe
p2
I1
s.(dp0
Vcyi6uq8
p1
I1
sVcyyz800
p2
I1
s.(dp0
Vcyi6uq8
p1
I1
sVcyyztqm
p2
I1
s.(dp0
Vcyi6uq8
p1
I1
sVcyzkoxy
p2
I1
s.(dp0
Vcyi6uq8
p1
I1
sVcyzt22p
p2
I1
s.(dp0
Vcyi6uq8
p1
I1
sVcyzwv2z
p2
I1
s.(dp0
Vcz1jp6j
p1
I1
sVcyi6uq8
p2
I1
s.(dp0
Vcyi6uq8
p1
I1
sVcz2jv2l
p2
I1
s.(dp0
Vcyi6uq8
p1
I1
sVcz34dzo
p2
I1
s.(dp0
Vcyi6uq8
p1
I1
sVcz3fftr
p2
I1
s.(dp0
Vcz3poy4
p1
I1
sVcyi6uq8
p2
I1
s.(dp0
Vcz3q2gi
p1
I1
sVcyi6uq8
p2
I1
s.(dp0
Vcz3rryg
p1
I1
sVcyi6uq8
p2
I1
s.(dp0
Vcyi6uq8
p1
I1
sVcz54258
p2
I1
s.(dp0
Vcyi6uq8
p1
I1
sVcz64gc9
p2
I1
s.(dp0
Vcyi6uq8
p1
I1
sVcz7bt0e
p2
I1
s.(dp0
Vcz7i49e
p1
I1
sVcyi6uq8
p2
I1
s.(dp0
Vcyi6uq8
p1
I1
sVcz7igl0
p2
I1
s.(dp0
Vcz7ih5d
p1
I1
sVcyi6uq8
p2
I1
s.(dp0
Vcyi6uq8
p1
I1
sVcz8o0z9
p2
I1
s.(dp0
Vcyi6uq8
p1
I1
sVcz8u886
p2
I1
s.(dp0
Vcyi6uq8
p1
I1
sVcz9evdo
p2
I1
s.(dp0
Vcyi6uq8
p1
I1
sVczbja85
p2
I1
s.(dp0
Vcyi6uq8
p1
I1
sVczbxjsk
p2
I1
s.(dp0
Vcyi6uq8
p1
I1
sVczcwfcv
p2
I1
s.(dp0
Vcyi6uq8
p1
I1
sVczda0i7
p2
I1
s.(dp0
Vcyi6uq8
p1
I1
sVczdc9s0
p2
I1
s.(dp0
Vczdy1zo
p1
I1
sVcyi6uq8
p2
I1
s.(dp0
Vcyi6uq8
p1
I1
sVczecs8k
p2
I1
s.(dp0
Vczfq164
p1
I1
sVcyi6uq8
p2
I1
s.(dp0
Vcyi6uq8
p1
I1
sVczg500v
p2
I1
s.(dp0
Vcyi6uq8
p1
I1
sVczg9fy4
p2
I1
s.(dp0
Vczhozn2
p1
I1
sVcyi6uq8
p2
I1
s.(dp0
Vczj19v1
p1
I1
sVcyi6uq8
p2
I1
s.(dp0
Vczjbptk
p1
I1
sVcyi6uq8
p2
I1
s.(dp0
Vcyi6uq8
p1
I1
sVczjs6vq
p2
I1
s.(dp0
Vczk15jq
p1
I1
sVcyi6uq8
p2
I1
s.(dp0
Vcyi6uq8
p1
I1
sVczntou7
p2
I1
s.(dp0
Vcyi6uq8
p1
I1
sVczoxrqt
p2
I1
s.(dp0
Vcyi6uq8
p1
I1
sVczoxrqt
p2
I1
s.(dp0
Vcyi6uq8
p1
I1
sVczscbyw
p2
I1
s.(dp0
Vcyi6uq8
p1
I1
sVczt6ejk
p2
I1
s.(dp0
Vcyi6uq8
p1
I1
sVcztgbu3
p2
I1
s.(dp0
Vcyi6uq8
p1
I1
sVczw109g
p2
I1
s.(dp0
Vcyi6uq8
p1
I1
sVczwadjl
p2
I1
s.(dp0
Vczxcc52
p1
I1
sVcyi6uq8
p2
I1
s.(dp0
Vcyi6uq8
p1
I1
sVczybulg
p2
I1
s.(dp0
Vcyi6uq8
p1
I1
sVczz6qod
p2
I1
s.(dp0
Vcyi6uq8
p1
I1
sVczzgb6b
p2
I1
s.(dp0
Vd00q4iw
p1
I1
sVcyi6uq8
p2
I1
s.(dp0
Vcyi6uq8
p1
I1
sVd010yga
p2
I1
s.(dp0
Vcyi6uq8
p1
I1
sVd01b1cp
p2
I1
s.(dp0
Vcyi6uq8
p1
I1
sVd03mgxk
p2
I1
s.(dp0
Vcyi6uq8
p1
I1
sVd048guh
p2
I1
s.(dp0
Vcyi6uq8
p1
I1
sVd04bqyl
p2
I1
s.(dp0
Vcyi6uq8
p1
I1
sVd04bqyl
p2
I1
s.(dp0
Vcyi6uq8
p1
I1
sVd04bqyl
p2
I1
s.(dp0
Vd04dlvl
p1
I1
sVcyi6uq8
p2
I1
s.(dp0
Vd088e8o
p1
I1
sVcyi6uq8
p2
I1
s.(dp0
Vcyi6uq8
p1
I1
sVd0941kj
p2
I1
s.(dp0
Vcyi6uq8
p1
I1
sVd0bs3h1
p2
I1
s.(dp0
Vd0btyom
p1
I1
sVcyi6uq8
p2
I1
s.(dp0
Vcyi6uq8
p1
I1
sVd0c4wh5
p2
I1
s.(dp0
Vcyi6uq8
p1
I1
sVd0d4pbf
p2
I1
s.(dp0
Vcyi6uq8
p1
I1
sVd0d4pbf
p2
I1
s.(dp0
Vcyi6uq8
p1
I1
sVd0f74xz
p2
I1
s.(dp0
Vd0fbsll
p1
I1
sVcyi6uq8
p2
I1
s.(dp0
Vcyi6uq8
p1
I1
sVd0g5ync
p2
I1
s.(dp0
Vd0hf9mv
p1
I1
sVcyi6uq8
p2
I1
s.(dp0
Vcyi6uq8
p1
I1
sVd0hfz70
p2
I1
s.(dp0
Vcyi6uq8
p1
I1
sVd0hmzri
p2
I1
s.(dp0
Vcyi6uq8
p1
I1
sVd0hta6m
p2
I1
s.(dp0
Vcyi6uq8
p1
I1
sVd0i7qnt
p2
I1
s.(dp0
Vd0l73j7
p1
I1
sVcyi6uq8
p2
I1
s.(dp0
Vcyi6uq8
p1
I1
sVd0mrn1b
p2
I1
s.(dp0
Vcyi6uq8
p1
I1
sVd0mrto7
p2
I1
s.(dp0
Vcyi6uq8
p1
I1
sVd0mtd41
p2
I1
s.(dp0
Vcyi6uq8
p1
I1
sVd0o6xdu
p2
I1
s.(dp0
Vcyi6uq8
p1
I1
sVd0p4yq2
p2
I1
s.(dp0
Vcyi6uq8
p1
I1
sVd0qspcp
p2
I1
s.(dp0
Vcyi6uq8
p1
I1
sVd0rd27p
p2
I1
s.(dp0
Vcyi6uq8
p1
I1
sVd0rucsq
p2
I1
s.(dp0
Vcy(dp0
Vcyi6uq8
p1
I1
sVdti876l
p2
I1
s.