(dp0
Vd4nm6ky
p1
I3
sVdi35uq8
p2
I1
sVd3cy91c
p3
I2
sVd2p0kgg
p4
I1
sVd6fdg36
p5
I1
sVcyqujz2
p6
I1
sVczbmpzp
p7
I1
sVdeptl3n
p8
I1
sVdihhui3
p9
I1
sVd31sszu
p10
I1
sVddpwbc6
p11
I2
sVddcf4p2
p12
I1
sVddk5v21
p13
I1
sVdb3cgtc
p14
I1
sVdf753xx
p15
I1
sVdczcj57
p16
I20
sVd099czx
p17
I1
sVd0hii9c
p18
I1
sVd4i16lu
p19
I1
sVd16gmf1
p20
I1
sVdjbmzb3
p21
I1
sVczlig1b
p22
I1
sVcztb0i8
p23
I1
sVdihc4et
p24
I1
sVd1u06uq
p25
I4
sVd0y33oq
p26
I1
sVd1c632k
p27
I1
sVddwkonx
p28
I1
sVd86ap5d
p29
I1
sVda211h6
p30
I1
sVdeqswd4
p31
I1
sVdhv4l5b
p32
I1
sVd1tz8ek
p33
I1
sVdj2yvjp
p34
I1
sVczgvqpi
p35
I1
sVdollkdh
p36
I2
sVdfzu84l
p37
I1
sVdcoqr49
p38
I1
sVdgmv1ji
p39
I1
sVddrl832
p40
I1
sVczujmgl
p41
I3
sVd35fltz
p42
I1
sVddwkrf1
p43
I1
sVd8fybru
p44
I2
sVczuowze
p45
I1
sVd4fu644
p46
I1
sVdhj9g3k
p47
I1
sVd161u16
p48
I1
sVd61mft8
p49
I1
sVd7l03cq
p50
I1
sVczhavr0
p51
I1
sVdmvm61o
p52
I1
sVdj4nays
p53
I1
sVcz36hm6
p54
I1
sVdbpjfpj
p55
I1
sVdczthu9
p56
I1
sVdbo2g38
p57
I4
sVdee48r3
p58
I1
sVddmwzeq
p59
I2
sVddwhy6n
p60
I1
sVd4hwbrr
p61
I1
sVczrqx6p
p62
I1
sVd5xs9cb
p63
I2
sVdi3zqx5
p64
I1
sVdcvook7
p65
I1
sVdhlx5dp
p66
I1
sVdfrociz
p67
I1
sVdjqi3nq
p68
I1
sVd1qdlvf
p69
I1
sVd0pmeba
p70
I2
sVddwine9
p71
I2
sVd0wlwft
p72
I1
sVd0qo4ds
p73
I1
sVddwhuk5
p74
I1
sVd195pn9
p75
I1
sVcyt6yts
p76
I1
sVdjc9p4k
p77
I2
sVd3jxqva
p78
I1
sVdgt9gls
p79
I1
sVcz4gmib
p80
I2
sVczewv25
p81
I1
sVdd6snd8
p82
I2
sVdb1d5km
p83
I1
sVdd5jiqv
p84
I1
sVdcvq7gc
p85
I1
sVd08o0tv
p86
I1
sVd8bsspi
p87
I1
sVcyyv109
p88
I1
sVdgubrwf
p89
I1
sVdihihqj
p90
I1
sVd1wh21z
p91
I1
sVcz1xrfe
p92
I1
sVd14ckde
p93
I1
sVd5xugb3
p94
I1
sVd1q7wc0
p95
I1
sVd4i3uur
p96
I1
sVdnzikd6
p97
I2
sVd84ccy0
p98
I1
sVdczajqp
p99
I1
sVd3cx7fx
p100
I1
sVd11n4yi
p101
I1
sVdgt5csc
p102
I1
sVczoveau
p103
I1
sVd0quxxy
p104
I1
sVdhiazrs
p105
I1
sVd9tgy2m
p106
I1
sVdj2royd
p107
I1
sVd0y0890
p108
I1
sVd16lend
p109
I1
sVd9uijgo
p110
I1
sVd5upa3d
p111
I1
sVd2djjkc
p112
I1
sVddwn3xj
p113
I1
sVdak20ar
p114
I1
sVd5xu3i2
p115
I1
sVczh31nb
p116
I1
sVcz0hjdd
p117
I2
sVd0qiiz3
p118
I1
sVdcuk32k
p119
I1
sVcz0hvtv
p120
I3
sVd8c1f7o
p121
I1
sVdc9r5zo
p122
I1
sVd30cegl
p123
I1
sVd0niimn
p124
I1
sVd0qv6vg
p125
I2
sVdj2kohe
p126
I1
sVdjvmyvj
p127
I1
sVd0pmdtk
p128
I3
sVdbsqkd4
p129
I1
sVd5nr41r
p130
I1
sVdbi6t7t
p131
I1
sVd6ggis2
p132
I1
sVd00zok8
p133
I1
sVdh2r4uj
p134
I1
sVd0nz4zc
p135
I1
sVd0j5paa
p136
I1
sVd9tjeok
p137
I1
sVdgr7g6s
p138
I3
sVd0acpdv
p139
I2
sVdf1u5gz
p140
I1
sVd9efti5
p141
I1
sVcz2fz2l
p142
I1
sVddwpf81
p143
I6
sVd8pxgqf
p144
I4
sVdgmtmbx
p145
I1
sVdknzp0o
p146
I1
sVd0mcb9l
p147
I2
sVd4i1esk
p148
I1
sVd4kaqlq
p149
I1
sVczgz0p2
p150
I1
sVd6gh0gz
p151
I1
sVddwjotv
p152
I3
sVdfnf0qn
p153
I1
sVd0wfdp8
p154
I1
sVd3uw2a1
p155
I1
sVczbu67o
p156
I1
sVda2rxdi
p157
I1
sVd1tzzuu
p158
I1
sVdhn9qjl
p159
I1
sVd1tzywj
p160
I1
sVd28gksh
p161
I1
sVd0qavns
p162
I1
sVdflq9yo
p163
I1
sVd4unney
p164
I1
sVd0wthz1
p165
I1
sVcyses9o
p166
I1
sVd3577j9
p167
I1
sVd0qjrat
p168
I1
sVdc7gkf7
p169
I1
sVd1tywfm
p170
I1
sVd4gv9s2
p171
I1
sVdihd31j
p172
I3
sVdggvc3k
p173
I1
sVderldib
p174
I1
sVd3no328
p175
I2
sVdf4e3cw
p176
I1
s.