(dp0
Vdb59nz6
p1
I4
sVcyphje6
p2
I1
sVczc638u
p3
I1
sVd8ble6d
p4
I3
sVdf427u1
p5
I1
sVdfle80k
p6
I1
sVd61oju3
p7
I1
sVd4mrbwf
p8
I1
sVczhfe2i
p9
I1
sVd83xha5
p10
I1
sVdmiwas1
p11
I1
sVd0b9cgq
p12
I1
sVd9687kr
p13
I1
sVdg0zsy7
p14
I1
sVcyk7j27
p15
I1
sVdbnb7d7
p16
I1
sVd90q32j
p17
I1
sVddwnf3c
p18
I1
sVdakhre3
p19
I1
sVd0ouxyk
p20
I1
sVczqezhm
p21
I1
sVd86bv90
p22
I1
sVd4tba8z
p23
I2
sVda7fbz1
p24
I1
sVd7ds0bn
p25
I1
sVd53939b
p26
I1
sVdhv4l5b
p27
I1
sVdgavz2t
p28
I1
sVd51iwx8
p29
I1
sVddn2mfr
p30
I1
sVdbhsfby
p31
I1
sVczbmbq6
p32
I1
sVczre3wr
p33
I2
sVdcxygoy
p34
I1
sVdd3zbzs
p35
I1
sVczqhhmz
p36
I1
sVdedsf0h
p37
I1
sVdaenrp9
p38
I1
sVdds9yv4
p39
I1
sVcyotubb
p40
I2
sVde5rrm0
p41
I1
s.