(dp0
Vdj3p0md
p1
I1
sVd6obsl1
p2
I1
sVd9xhwxc
p3
I1
sVdmu3v4t
p4
I1
sVd8zlit2
p5
I1
sVdhh0epz
p6
I1
sVdrcr8vd
p7
I1
sVdjpwoqh
p8
I2
sVd3gltpk
p9
I1
sVdfx9q2q
p10
I1
sVd4w6aoh
p11
I1
sVdjavi00
p12
I1
sVdrpiqri
p13
I1
sVdga44xb
p14
I1
sVdi7tq1l
p15
I1
sVdq5qwxe
p16
I1
sVdda63i8
p17
I1
sVdpw6qz5
p18
I1
sVdezaymi
p19
I1
sVdk9z6f6
p20
I1
sVcymx7zd
p21
I1
sVdda65nb
p22
I2
sVdbjd6kh
p23
I3
sVdhkn0mo
p24
I1
sVd477pu9
p25
I1
sVddj0ok7
p26
I1
sVdghq1j5
p27
I1
sVd72n4nh
p28
I1
sVdp8gtjy
p29
I1
sVd7ifk5n
p30
I2
sVdogy2gz
p31
I1
sVdg3sy7i
p32
I1
sVdeskt5e
p33
I1
sVdo3bnit
p34
I2
sVdpua422
p35
I1
sVdds9vdg
p36
I1
sVd7cmaca
p37
I1
sVd1lu3as
p38
I1
sVd12e6nd
p39
I2
sVdt5pfh1
p40
I1
sVdg1dtuf
p41
I2
sVd0lkzvm
p42
I1
sVdgx5zn1
p43
I1
sVcz2iukh
p44
I1
sVd7t4him
p45
I1
sVd80cpvb
p46
I1
sVdkepvo0
p47
I1
sVd55y68y
p48
I1
sVdrpjiup
p49
I1
sVdnupuo2
p50
I1
sVd4zbk3y
p51
I1
sVd1onq3w
p52
I1
sVdesi30h
p53
I1
s.