(dp0
Vcz3a4f7
p1
I1
s.(dp0
Vczpf8up
p1
I1
sVcz3a4f7
p2
I1
s.(dp0
Vczytf5a
p1
I1
sVcz3a4f7
p2
I1
s.(dp0
Vczzk19b
p1
I1
sVcz3a4f7
p2
I1
s.(dp0
Vd0eqqna
p1
I1
sVcz3a4f7
p2
I1
s.(dp0
Vd2wx99w
p1
I1
sVcz3a4f7
p2
I1
s.(dp0
Vd3cjsm3
p1
I1
sVcz3a4f7
p2
I1
s.(dp0
Vd3cjsm3
p1
I1
sVcz3a4f7
p2
I1
s.(dp0
Vd5ddvsu
p1
I1
sVcz3a4f7
p2
I1
s.(dp0
Vd70pmso
p1
I1
sVcz3a4f7
p2
I1
s.(dp0
Vd9qjnrl
p1
I1
sVcz3a4f7
p2
I1
s.(dp0
Vdchxaw6
p1
I1
sVcz3a4f7
p2
I1
s.(dp0
Vdfemem9
p1
I1
sVcz3a4f7
p2
I1
s.(dp0
Vdhz7m30
p1
I1
sVcz3a4f7
p2
I1
s.(dp0
Vdn4n19p
p1
I1
sVcz3a4f7
p2
I1
s.(dp0
Vdniq9j0
p1
I1
sVcz3a4f7
p2
I1
s.(dp0
Vdp33qra
p1
I1
sVcz3a4f7
p2
I1
s.(dp0
Vdqid24h
p1
I1
sVcz3a4f7
p2
I1
s.(dp0
Vdr24c6t
p1
I1
sVcz3a4f7
p2
I1
s.