(dp0
Vd0zocxs
p1
I1
sVdgf4gkv
p2
I1
sVd7091z7
p3
I1
sVd5677q2
p4
I1
sVd9owgvi
p5
I1
sVd64rs0y
p6
I4
sVdhjzorl
p7
I1
sVdcrvexr
p8
I1
sVd98m3lh
p9
I1
sVd9r5ti3
p10
I1
sVdasveak
p11
I2
sVczl7ba7
p12
I1
sVdazrro1
p13
I1
sVcztbb72
p14
I1
s.