(dp0
Vd04mdc8
p1
I1
sVd3augx9
p2
I1
sVdj3jwcw
p3
I1
sVd7i7a9f
p4
I1
sVd7lgmq2
p5
I1
sVd84nus5
p6
I1
sVdq4zrna
p7
I1
sVd7cp5oe
p8
I1
sVdfhluax
p9
I1
sVdai3hgb
p10
I1
sVd6vu9k4
p11
I1
sVdcqhy4f
p12
I2
sVd2dk6ek
p13
I1
sVdt2x4ms
p14
I1
sVdaurnrc
p15
I1
sVd3twm80
p16
I1
sVd1lg2fz
p17
I1
sVdcyc5c5
p18
I1
sVd0pgnv7
p19
I1
sVcyl9fev
p20
I1
sVdcia78r
p21
I2
sVd405rxk
p22
I2
sVdhjh4ry
p23
I1
sVddu3bs7
p24
I1
sVd0wwcau
p25
I1
sVd9iyp29
p26
I1
sVdiiraci
p27
I1
sVd73eshz
p28
I1
sVdgimiyf
p29
I1
sVddbc16o
p30
I1
sVd90o5t7
p31
I1
sVdaode15
p32
I1
sVdf7actd
p33
I1
sVdq9r0om
p34
I1
sVdau2ko5
p35
I1
sVdk267mj
p36
I1
sVd3rmed9
p37
I1
sVcykmf0v
p38
I1
sVdhuczt8
p39
I1
sVcz95ycw
p40
I1
sVdbl3d31
p41
I1
sVdk6w73g
p42
I1
sVdh3ojq7
p43
I1
sVdbxgb0q
p44
I1
sVd3xvdj8
p45
I1
sVd0lmuzv
p46
I1
sVdpfamrw
p47
I1
sVd14ofu3
p48
I3
sVcz6t4ld
p49
I1
sVd0as05m
p50
I1
sVdgv97xw
p51
I1
sVdaohzr7
p52
I1
sVdiq5dlw
p53
I1
sVdafn2h4
p54
I1
sVdhn7j9h
p55
I1
sVd2ose0f
p56
I1
sVdnzctku
p57
I1
sVdcdh05r
p58
I1
sVdh8bhy5
p59
I1
sVdao1zoc
p60
I1
sVdrige5o
p61
I1
sVda2rjci
p62
I1
sVdb4p4rx
p63
I1
sVda1i9np
p64
I1
sVd0v1k8v
p65
I1
sVd0tjzd7
p66
I1
sVdiyuysi
p67
I2
sVdasvyk7
p68
I1
sVd5o4bie
p69
I2
sVd0s1gu7
p70
I1
sVd5yife6
p71
I1
sVdh7g5l3
p72
I1
sVde4w1q1
p73
I1
sVdbaqq7h
p74
I1
sVd9zblnt
p75
I1
sVcz3ovqj
p76
I1
sVdmw6uc8
p77
I1
sVd8c1f7o
p78
I1
sVd2mcdgw
p79
I1
sVdcab5oc
p80
I1
sVd0suj7b
p81
I1
sVdog6j42
p82
I1
sVcytpwhd
p83
I2
sVdnovzi9
p84
I1
sVd1vsion
p85
I1
sVd1o5d8b
p86
I1
sVdpjjtpr
p87
I1
sVcznbs2n
p88
I1
sVddfj0g8
p89
I1
sVd9pdy55
p90
I1
sVddgx3aq
p91
I2
sVdhwd63n
p92
I1
sVdh0ykk8
p93
I1
sVdbewzk1
p94
I1
sVdmfdd3g
p95
I2
sVcyuase8
p96
I2
sVd4vn6al
p97
I1
sVd4up9fx
p98
I1
sVcyn5f9u
p99
I1
sVdelch9m
p100
I1
sVdsf3mb2
p101
I1
sVdc7t186
p102
I1
sVdaty3kq
p103
I1
sVd75nkil
p104
I1
sVd4z8g1h
p105
I1
sVczm6izy
p106
I1
sVdja4x4z
p107
I1
sVdarxw07
p108
I1
sVdgbja44
p109
I1
sVd0qwst8
p110
I2
sVdphhf5j
p111
I1
sVdpuj49b
p112
I1
sVd87799k
p113
I1
sVczasov6
p114
I2
sVdgczyxm
p115
I1
sVd450rv6
p116
I1
sVczrjjfk
p117
I1
sVd8a1tae
p118
I1
sVd3qkrgu
p119
I1
sVd76e8si
p120
I1
sVdahb5po
p121
I1
sVdel40u2
p122
I1
sVdsgaozq
p123
I1
sVdfjvere
p124
I1
sVd0zkn4y
p125
I1
sVd3bdz0u
p126
I1
sVdejcfol
p127
I1
sVd76qycy
p128
I1
sVdd13wlo
p129
I1
sVd0ypa2q
p130
I1
sVd3a9asi
p131
I1
sVds5i5xw
p132
I1
sVd14jocy
p133
I1
sVdevsznp
p134
I1
sVd0pfpei
p135
I1
sVdsxia9x
p136
I1
sVdk5ogtb
p137
I1
sVd2w34ki
p138
I1
sVczi93ux
p139
I1
sVde47cz4
p140
I1
sVdfo80zs
p141
I1
sVdnxycmq
p142
I1
sVd6e6vry
p143
I1
sVdemlcjt
p144
I1
sVdmfnqtq
p145
I1
sVd3eq5m9
p146
I1
sVczfd8nd
p147
I1
sVdmom7ue
p148
I1
sVdjcijxs
p149
I1
sVdivvzsr
p150
I1
sVdcqq84u
p151
I1
sVczryp7t
p152
I1
sVd4bftjm
p153
I1
sVcz5nbtu
p154
I1
sVd3mh8yo
p155
I1
sVdcrdt3y
p156
I2
sVd1he7fc
p157
I1
sVd3z5z3f
p158
I1
sVczetv17
p159
I1
sVdj2m1pi
p160
I1
sVddnel7k
p161
I1
sVdndfbb7
p162
I1
sVdi336h9
p163
I1
sVdatxrqr
p164
I1
sVdn71s7m
p165
I1
sVdemlua3
p166
I1
sVdctafja
p167
I1
sVdbjekw4
p168
I1
sVdpfhxss
p169
I1
sVd4v1sdu
p170
I1
sVdks6agq
p171
I1
sVd19eqgx
p172
I1
sVd1bf36z
p173
I1
sVd9ciiuf
p174
I1
sVd6iog74
p175
I2
sVdp0k7dl
p176
I1
sVdgejpcx
p177
I1
sVd2j527v
p178
I1
sVdim6tdj
p179
I1
sVdef7ril
p180
I1
sVdfm52l5
p181
I1
sVddr6fey
p182
I1
sVd6m9lm6
p183
I1
sVcz1jf5s
p184
I1
sVdoexq66
p185
I1
sVd2plnol
p186
I1
sVd34eyza
p187
I1
sVdtf2mtl
p188
I1
sVdfjvqrx
p189
I1
sVdcse0bk
p190
I1
sVddulfog
p191
I1
sVdcjzv8y
p192
I1
sVd6hmq76
p193
I1
sVd2lh47u
p194
I3
sVd1iql0i
p195
I1
sVdafwp07
p196
I2
sVdck5evg
p197
I1
sVd0zpd5t
p198
I1
sVdnl6ycs
p199
I1
sVdb5gi0v
p200
I1
sVd264i87
p201
I1
sVdfwjyr7
p202
I1
sVdasch6c
p203
I1
sVd0rr4lj
p204
I1
sVd1wu4e5
p205
I1
sVd42yccv
p206
I1
sVczyqtt1
p207
I1
sVdf3ny0a
p208
I1
sVd0awnxo
p209
I1
sVd1pa6gk
p210
I1
sVd2p9zj8
p211
I1
sVd7x41hx
p212
I1
sVdqe3w7z
p213
I1
sVdcizcrv
p214
I1
sVdfon67m
p215
I1
sVdb4sx6h
p216
I1
sVdf2h3ra
p217
I1
sVd4xgntm
p218
I2
sVdonxr9l
p219
I1
sVdbwnaaa
p220
I1
sVcyo2wi6
p221
I1
sVd0epsv4
p222
I1
sVd5rnkb2
p223
I3
sVdeo5y9j
p224
I1
sVd0ifasj
p225
I1
sVd2r3wis
p226
I1
sVdf8wl46
p227
I1
sVdoiw47z
p228
I1
sVd6590rq
p229
I1
sVdjlkeoj
p230
I1
sVdqw1wbj
p231
I1
sVd9hqg8s
p232
I1
sVd6ctbyn
p233
I1
sVdfnebw2
p234
I1
sVde6qo13
p235
I1
sVd05i3h3
p236
I1
sVcylj2w0
p237
I1
sVd9arzvh
p238
I1
sVdatkg0s
p239
I1
sVd9kp4px
p240
I1
sVd4pugv5
p241
I1
sVd7ewrm8
p242
I1
sVdd5zmaq
p243
I1
sVd6he8fq
p244
I2
sVczfa2ms
p245
I1
sVd40hs3s
p246
I1
sVdgxl0y2
p247
I1
sVd4v1ylg
p248
I1
sVdj800h7
p249
I1
sVd2o4apy
p250
I1
sVd89evyt
p251
I1
sVd9xc0l1
p252
I1
sVd8arf3l
p253
I1
sVdavsu2n
p254
I1
sVdhhpzve
p255
I1
sVdgwrblp
p256
I1
sVd47af22
p257
I1
sVd3qfh9d
p258
I1
sVdhndpqe
p259
I1
sVd0t31di
p260
I1
sVcyn98bj
p261
I1
sVdb0nkgy
p262
I1
sVddgp38k
p263
I1
sVd4upr2s
p264
I1
sVdfvhz3n
p265
I2
sVdi2m0fp
p266
I1
sVddiax18
p267
I1
sVda42hld
p268
I1
sVdimqf7z
p269
I1
sVdfgb305
p270
I1
sVd4c0xjt
p271
I2
sVd0mf7jg
p272
I1
sVddgwl3u
p273
I1
sVd0rqsx5
p274
I1
sVd0igy0w
p275
I1
sVd4sq53q
p276
I1
sVdhlk6g1
p277
I1
sVd5h9855
p278
I1
sVcywkhn7
p279
I1
sVd3i9b06
p280
I1
sVdt85dy4
p281
I1
sVd65if5p
p282
I1
sVd1uzhjc
p283
I2
sVd0wo09o
p284
I1
sVdgdfvv5
p285
I1
sVdkti1p2
p286
I1
sVdavgnez
p287
I1
sVdb5n911
p288
I1
sVdr8pbpp
p289
I1
sVd4e5akd
p290
I1
sVdhwm6ut
p291
I1
sVd1he1mb
p292
I1
sVd1d8e0m
p293
I1
sVdgo1rbk
p294
I1
sVdii2tzr
p295
I2
sVdbbvup1
p296
I1
sVd2vqee5
p297
I1
sVdf37y77
p298
I1
sVd8j18wn
p299
I1
sVd13zefh
p300
I1
sVdecsgxe
p301
I1
sVczioid5
p302
I1
sVd55zbrg
p303
I1
sVd33ankk
p304
I1
sVd1wg8yb
p305
I1
sVd0z1fw0
p306
I1
sVdaug9jy
p307
I1
sVczm8sek
p308
I2
sVdjlyrw0
p309
I1
sVdbfkvq6
p310
I1
sVdacvhsn
p311
I1
sVd9bg5s8
p312
I1
sVd10mlmh
p313
I1
sVd42y9js
p314
I1
sVdiokhxe
p315
I1
sVdberu8w
p316
I1
sVd0ugvxq
p317
I1
sVde6600r
p318
I1
sVczqm4qo
p319
I1
sVdk0ispj
p320
I3
sVdea92r8
p321
I1
sVddb6s8b
p322
I1
sVdidp564
p323
I1
s.