(dp0
Vdneow01
p1
I2
sVd16jt6r
p2
I1
sVd8bybmt
p3
I1
sVdk9q5sm
p4
I1
sVd2n91rm
p5
I1
sVdbpps6z
p6
I1
sVdcaghh2
p7
I1
sVdfnmro2
p8
I3
sVdoe9hxq
p9
I1
sVd8f0oka
p10
I3
sVd8fn5yz
p11
I1
sVd0cacqm
p12
I1
sVd0wphf5
p13
I1
sVdirchcz
p14
I1
sVdadrxws
p15
I1
sVd56h822
p16
I1
sVddbvhfe
p17
I1
sVd732ths
p18
I1
sVd8en84q
p19
I1
sVd3wbs3r
p20
I1
sVd080d59
p21
I1
sVd58fwk3
p22
I1
sVd97e7mm
p23
I2
sVd3ojawo
p24
I1
sVdivu3z4
p25
I1
sVdfdhlcy
p26
I1
sVd036vui
p27
I1
sVcz4m8u0
p28
I2
sVdbjbtxz
p29
I1
sVd2ffydg
p30
I1
sVdjnkd15
p31
I3
sVder0wbm
p32
I1
sVd8erl22
p33
I1
sVczzsi0i
p34
I1
sVd8bae3h
p35
I1
sVdbdju7y
p36
I1
sVdhulsxx
p37
I1
sVd8c0mfm
p38
I1
sVdb014e7
p39
I1
sVd2fls5i
p40
I1
sVd8wbfep
p41
I1
sVd17npug
p42
I1
sVd7c5zt2
p43
I1
sVcz30afg
p44
I1
sVd63hpqr
p45
I1
sVd9ohepz
p46
I1
sVdc3oxqo
p47
I1
sVdqq3mmi
p48
I1
sVczsxnoj
p49
I1
sVd78u6l2
p50
I1
sVdb5j6p9
p51
I1
sVd5wkzr3
p52
I1
sVcyjsdd2
p53
I1
sVdisgkqv
p54
I2
sVdhx9va4
p55
I1
sVd97h2qe
p56
I1
sVdetalpv
p57
I1
sVd1fkdmv
p58
I1
sVd6tkus7
p59
I1
sVdff0eom
p60
I1
sVd78qwaf
p61
I1
sVd97g2m6
p62
I1
sVdirsuj2
p63
I1
sVd1y9q0g
p64
I1
sVd03jf7l
p65
I1
sVczhrt9i
p66
I1
sVdi4fd49
p67
I1
sVddf0nyk
p68
I1
s.