(dp0
Vczr25t5
p1
I1
s.(dp0
Vczr25t5
p1
I1
sVczzzo74
p2
I1
s.(dp0
Vd0pu26x
p1
I1
sVczr25t5
p2
I1
s.(dp0
Vd0x9bkc
p1
I1
sVczr25t5
p2
I1
s.(dp0
Vczr25t5
p1
I1
sVd0xcfor
p2
I1
s.(dp0
Vczr25t5
p1
I1
sVd0xcfor
p2
I1
s.(dp0
Vczr25t5
p1
I1
sVd0xcfor
p2
I1
s.(dp0
Vczr25t5
p1
I1
sVd0xcfor
p2
I1
s.(dp0
Vczr25t5
p1
I1
sVd0xi47y
p2
I1
s.(dp0
Vczr25t5
p1
I1
sVd17t8bi
p2
I1
s.(dp0
Vczr25t5
p1
I1
sVd2o4apy
p2
I1
s.(dp0
Vczr25t5
p1
I1
sVd62ncd2
p2
I1
s.(dp0
Vczr25t5
p1
I1
sVd62ncd2
p2
I1
s.(dp0
Vczr25t5
p1
I1
sVd8jgy56
p2
I1
s.(dp0
Vczr25t5
p1
I1
sVd8pk3ww
p2
I1
s.(dp0
Vczr25t5
p1
I1
sVd8pk3ww
p2
I1
s.(dp0
Vczr25t5
p1
I1
sVd8pk3ww
p2
I1
s.(dp0
Vczr25t5
p1
I1
sVda53d0v
p2
I1
s.(dp0
Vczr25t5
p1
I1
sVdatyzd7
p2
I1
s.(dp0
Vczr25t5
p1
I1
sVdb7kae3
p2
I1
s.(dp0
Vczr25t5
p1
I1
sVdb7kae3
p2
I1
s.(dp0
Vczr25t5
p1
I1
sVdcdovpi
p2
I1
s.(dp0
Vczr25t5
p1
I1
sVdgkeuzh
p2
I1
s.(dp0
Vczr25t5
p1
I1
sVdjsluqb
p2
I1
s.(dp0
Vczr25t5
p1
I1
sVdk9urmh
p2
I1
s.(dp0
Vczr25t5
p1
I1
sVdk9ypj0
p2
I1
s.(dp0
Vczr25t5
p1
I1
sVdkz02jb
p2
I1
s.(dp0
Vczr25t5
p1
I1
sVdok1pi1
p2
I1
s.(dp0
Vczr25t5
p1
I1
sVdpl9z34
p2
I1
s.(dp0
Vczr25t5
p1
I1
sVdpl9z34
p2
I1
s.(dp0
Vczr25t5
p1
I1
sVdplaz38
p2
I1
s.(dp0
Vczr25t5
p1
I1
sVdplbok2
p2
I1
s.(dp0
Vczr25t5
p1
I1
sVdplgdo9
p2
I1
s.(dp0
Vczr25t5
p1
I1
sVdrk6p16
p2
I1
s.(dp0
Vczr25t5
p1
I1
sVdrkakzc
p2
I1
s.(dp0
Vdsoev4u
p1
I1
sVczr25t5
p2
I1
s.(dp0
Vczr25t5
p1
I1
sVdt0r121
p2
I1
s.(dp0
Vdt1xkhd
p1
I1
sVczr25t5
p2
I1
s.