(dp0
Vdct4eu0
p1
I2
sVd34tqo4
p2
I1
sVcyq5gt2
p3
I1
sVd16yxvm
p4
I1
sVddpddhh
p5
I2
sVdoeuhty
p6
I5
sVd172iw3
p7
I3
sVd1n2scm
p8
I2
sVdfz37ls
p9
I1
sVd2z3w8g
p10
I1
sVd594q2u
p11
I3
sVczror1u
p12
I1
sVd67cj9e
p13
I3
sVd24s60n
p14
I7
sVdhca2hy
p15
I1
sVd16dh2i
p16
I1
sVdays4q5
p17
I2
sVd77wfls
p18
I1
sVd07wy63
p19
I2
sVdpw849n
p20
I1
sVdfdk0b4
p21
I1
sVdfyk3qj
p22
I4
sVdanhpl7
p23
I1
sVd91lnjk
p24
I1
sVd3uxvjg
p25
I1
sVdateqqg
p26
I1
sVdosuo6i
p27
I1
sVd08sxp3
p28
I1
sVczpra2v
p29
I1
sVdo5xi4y
p30
I2
sVdt43cx0
p31
I1
sVd4uxvql
p32
I3
sVd2m1yg1
p33
I2
sVczzta5m
p34
I1
sVcz2ezmx
p35
I1
sVd7gwp8k
p36
I1
sVdb1cflf
p37
I1
sVdcns4yt
p38
I2
sVdfjpgti
p39
I3
sVdhj4fvc
p40
I1
sVdaz7egd
p41
I3
sVd1d76z1
p42
I1
sVdbqbifz
p43
I1
sVd91cbl2
p44
I6
sVdneurm8
p45
I1
sVd1nyh7d
p46
I1
sVd2qa7kk
p47
I2
sVdphdwxg
p48
I3
sVdbxpryd
p49
I1
sVdjte9le
p50
I1
sVd1dmdu7
p51
I5
sVd586rkj
p52
I1
sVd173ivd
p53
I2
sVd1gkgm9
p54
I1
sVd1kw1m0
p55
I3
sVdhiwmkr
p56
I2
sVdh4mrn3
p57
I6
sVd16wtij
p58
I1
sVd3skwao
p59
I1
sVdiw6h05
p60
I2
sVdepeiuk
p61
I1
sVdmtbier
p62
I1
sVdgjrf0e
p63
I1
sVdpnbyho
p64
I1
sVd0j3ik9
p65
I7
sVd1wsy8e
p66
I1
sVd6es4mt
p67
I1
sVd7i22dc
p68
I1
sVd9pcnwc
p69
I1
sVd9dzaya
p70
I1
sVd49t9iw
p71
I1
sVdsvcabz
p72
I7
sVd7ar6cg
p73
I1
sVd5un91g
p74
I1
sVd972zda
p75
I1
sVdnyop2b
p76
I1
sVd2zpf69
p77
I1
sVdojkzug
p78
I1
sVddg21d2
p79
I1
sVdkx3r8x
p80
I1
sVd31pkz0
p81
I1
sVdk29vi7
p82
I3
sVd24r48m
p83
I1
sVdganmb2
p84
I8
sVdhmjan5
p85
I1
sVdapn75w
p86
I1
sVdjhpi2p
p87
I1
sVdbh0qxp
p88
I1
sVd9x5ubj
p89
I1
sVdatsmw6
p90
I2
sVdpvg75x
p91
I1
sVd0gcxfn
p92
I1
sVd3x3hg8
p93
I1
sVd8dfqd0
p94
I1
sVddzha22
p95
I6
sVdpkpop3
p96
I1
sVdk0pv06
p97
I1
sVdfk5gbr
p98
I1
sVd72hqlp
p99
I1
sVd4dykf0
p100
I2
sVcyuxx8q
p101
I5
sVczoshjr
p102
I1
sVdem1mu9
p103
I1
sVdklxnt2
p104
I1
sVdih21fv
p105
I1
sVd6hyiwd
p106
I4
sVdfkuz8i
p107
I2
sVd30nu3e
p108
I3
sVdij7jd9
p109
I1
sVczje95k
p110
I5
sVd77xcn7
p111
I1
sVd9xbngh
p112
I1
sVd0o2oqp
p113
I1
sVdkeazn9
p114
I1
sVd1lxpg4
p115
I2
sVdixbw08
p116
I4
sVd6hendm
p117
I1
sVdh7xpmy
p118
I1
sVd4wfecu
p119
I1
sVd44c2pi
p120
I1
sVdipmhwy
p121
I2
sVczassgs
p122
I1
sVd1e1iih
p123
I1
sVdh5ch32
p124
I3
sVd6l0ru6
p125
I14
sVd2z3kjp
p126
I1
sVdbmekm7
p127
I4
sVdfh1dgq
p128
I1
sVd0kofqn
p129
I1
sVd1p2cj4
p130
I1
sVddrkuk4
p131
I1
sVdc0g6vf
p132
I2
sVd6v4hoy
p133
I1
sVd7tj1dm
p134
I1
sVd7zfyss
p135
I1
sVcykpkt0
p136
I1
sVdk4fnho
p137
I1
sVda89fwv
p138
I1
sVd3f9em6
p139
I1
sVd7dbmwl
p140
I2
sVd7e8yd6
p141
I4
sVd9coicp
p142
I1
sVd1xww66
p143
I1
sVd1d9pcy
p144
I1
sVd8iw6hm
p145
I1
sVdkyqtwn
p146
I1
sVdgf4dri
p147
I1
sVdk177b9
p148
I1
sVdsk9q2a
p149
I4
sVd33twix
p150
I1
sVd8ve676
p151
I1
sVdr0wn9l
p152
I1
sVdiww71p
p153
I2
sVd1sl8xl
p154
I1
sVd462vr3
p155
I1
sVd1spfr6
p156
I1
sVdmlabpd
p157
I1
sVdd4v13r
p158
I2
sVdc9wq32
p159
I6
sVd342yo6
p160
I3
sVd69dep3
p161
I1
sVd0th8ku
p162
I1
sVd3j8dtt
p163
I1
sVdfnebw2
p164
I1
sVdf1wtwi
p165
I1
sVd4o4sam
p166
I1
sVcypq7po
p167
I1
sVdfadzbp
p168
I1
sVdggboxw
p169
I6
sVdaungtm
p170
I1
sVdgc4bdk
p171
I1
sVd7l8sap
p172
I1
sVdcebdb4
p173
I1
sVd93e7kj
p174
I2
sVd97fsgz
p175
I1
sVdhvp1x7
p176
I4
sVd3dzumw
p177
I2
sVdqj523j
p178
I6
sVd2577un
p179
I3
sVdarqs4o
p180
I1
sVdkcvf1c
p181
I1
sVddxqku4
p182
I3
sVdsiltk3
p183
I3
sVcyk1i3b
p184
I1
sVdc15y4w
p185
I1
sVdgjnn23
p186
I1
sVdc1g78w
p187
I1
sVdam6ga0
p188
I1
sVdfkep28
p189
I3
sVd46ctjo
p190
I5
sVd76kft5
p191
I1
sVd9ynpgk
p192
I1
sVdo5h0u5
p193
I2
sVd9a7edz
p194
I1
sVdbn08bi
p195
I1
sVd12ur2k
p196
I1
sVd63y1rn
p197
I1
sVdbxvbw7
p198
I3
sVd299m6a
p199
I1
sVddclf4t
p200
I1
sVdfvhgfg
p201
I1
sVczcevkb
p202
I1
sVdg7ujas
p203
I1
sVd9f45p1
p204
I1
sVd4svatp
p205
I1
sVdn4pes9
p206
I1
sVdn5scmv
p207
I3
sVdiqdwil
p208
I1
sVdc4evnr
p209
I2
sVdgq5wut
p210
I1
sVdh4m2p4
p211
I1
sVdcwz737
p212
I1
sVdgr3rj7
p213
I1
sVddu3dau
p214
I12
sVdhiksbk
p215
I1
sVd0ok8t0
p216
I1
sVd1xztj4
p217
I3
sVd0d2kan
p218
I3
sVd3p3dum
p219
I2
sVdbwgaci
p220
I2
sVd6dpore
p221
I3
sVd2mkvum
p222
I1
sVdrvue61
p223
I1
sVcyjwdan
p224
I2
sVdqvs0jw
p225
I1
sVd9s052n
p226
I2
sVczw8ct5
p227
I1
sVd2ecw40
p228
I1
sVd4wvsxz
p229
I1
sVd85p05m
p230
I1
sVdbx7oar
p231
I5
sVdsqxkeq
p232
I4
sVd54vw4z
p233
I3
sVdj114h3
p234
I3
sVczlarg8
p235
I1
sVd3nyggu
p236
I2
sVdqq8fa9
p237
I1
sVdejywwd
p238
I3
sVdo7b1jl
p239
I1
sVdahqwv3
p240
I1
sVd7njzko
p241
I1
sVdj3eosy
p242
I2
sVdj8xdfd
p243
I2
sVczj57x6
p244
I1
sVd6w2iag
p245
I1
sVddkbfwg
p246
I1
sVdtcarkr
p247
I1
sVdjcmiw2
p248
I1
sVd5mgzd8
p249
I4
sVddk0jmb
p250
I1
sVd25q4gs
p251
I2
sVd5tc5e8
p252
I1
sVd1owp83
p253
I3
sVdd2ji0a
p254
I1
sVd5e5ghx
p255
I2
sVczgzj47
p256
I2
sVd225199
p257
I3
sVdf4ncv2
p258
I1
sVd5hyx72
p259
I1
sVdazppte
p260
I1
sVd1eyanm
p261
I1
sVd3n4ern
p262
I1
sVd174erz
p263
I2
sVd390uso
p264
I1
sVdc59r1l
p265
I1
sVdgpwjoq
p266
I2
sVd3af7wy
p267
I1
sVdhjfnvd
p268
I2
sVd7v93t0
p269
I1
sVde1bhqm
p270
I1
sVdjef5iv
p271
I3
sVdpw7wh6
p272
I1
sVd031f9x
p273
I3
sVdai1d3e
p274
I1
sVdb735i3
p275
I1
sVdpq7ln3
p276
I1
sVdfq7gv4
p277
I2
sVd13fu3f
p278
I1
sVdo1u5xg
p279
I1
sVds1hn8h
p280
I1
sVdsp1025
p281
I2
sVd9hgtu1
p282
I1
sVdgb1w6m
p283
I1
sVdb5bt2y
p284
I1
sVdgn0a2q
p285
I2
sVde93z8e
p286
I1
sVd7bwcwk
p287
I2
sVdpf1nl9
p288
I1
sVdiikgn4
p289
I1
sVd6rdm5r
p290
I1
sVd7yzux3
p291
I1
sVdtd3pjm
p292
I1
sVd4ygms8
p293
I1
sVdhc0es8
p294
I3
sVd7j9y4f
p295
I7
sVd2hx2kk
p296
I3
sVd7h5c75
p297
I1
sVd1pr132
p298
I1
sVd4acmfu
p299
I1
sVd0gkcsm
p300
I1
sVdctd702
p301
I1
sVd36mbd4
p302
I1
sVdrtxct2
p303
I1
sVd9wguki
p304
I1
sVd0zcvye
p305
I1
sVdibk8hj
p306
I1
sVdbtm4k5
p307
I1
sVd39fs2c
p308
I1
sVdcw68h3
p309
I1
sVczlz04a
p310
I1
sVd9lqnxw
p311
I1
sVdbh2yam
p312
I1
sVdekqywm
p313
I1
sVdogyhl1
p314
I3
sVdbmg0a6
p315
I1
sVde9ohcx
p316
I1
sVdjerhpu
p317
I3
sVdkfbw6p
p318
I1
sVddhm0xo
p319
I1
sVdkbnf2m
p320
I1
sVdjs1j1x
p321
I2
sVcyog5e3
p322
I2
sVd68ufvs
p323
I1
sVdpjnq8q
p324
I1
sVde94zb9
p325
I1
sVd47fj0i
p326
I1
sVdbfl7y4
p327
I1
sVdq2c6px
p328
I3
sVd47h755
p329
I1
sVdt4lnds
p330
I1
sVdms93vz
p331
I1
sVdhutpy1
p332
I1
sVdqeny4k
p333
I3
sVdmp3f2h
p334
I1
sVd48nfo2
p335
I4
sVdeauigl
p336
I3
sVdmqzkjs
p337
I1
sVdao78a5
p338
I1
sVd4uiswj
p339
I1
sVcyl53du
p340
I2
sVczbe9dv
p341
I1
sVde9tkhk
p342
I1
sVdf37xrw
p343
I1
sVdn63k03
p344
I1
sVd1bchn1
p345
I2
sVd467r0v
p346
I1
sVdne9hmw
p347
I1
sVdj2kxfb
p348
I2
sVddjty0g
p349
I2
sVd37ssgr
p350
I1
sVdczwns3
p351
I1
sVczj80vm
p352
I3
sVdiunz3y
p353
I1
sVcz553s2
p354
I1
sVd9r94dc
p355
I2
sVdjy5kll
p356
I1
sVd31lyn1
p357
I1
sVd0yb0v5
p358
I2
sVd3xhjzf
p359
I1
sVde1nxq5
p360
I1
sVddagjpc
p361
I3
sVd7xah75
p362
I1
sVd8py4ps
p363
I1
sVczoloh2
p364
I1
sVcyuxykx
p365
I3
sVd1q9foj
p366
I1
sVdbbxyp3
p367
I1
sVdpoo5uf
p368
I1
sVd73aznc
p369
I1
sVd6xq5in
p370
I1
sVdac30t1
p371
I1
sVdrt4ys6
p372
I1
sVdagb33r
p373
I1
sVdhvvftk
p374
I2
sVdp0wkl8
p375
I1
sVdbvnxib
p376
I1
sVd0y6k3z
p377
I1
sVdsrrhqp
p378
I1
sVdnh4sde
p379
I1
sVdcabxrs
p380
I1
sVdge86yp
p381
I1
sVdbk3322
p382
I1
sVdfnefp3
p383
I1
sVda0fmag
p384
I1
sVczras7e
p385
I1
sVd5x3olp
p386
I1
sVd4cap8t
p387
I2
sVdg127gw
p388
I1
sVdn9ag3k
p389
I2
sVdhfebi9
p390
I1
sVddjxlpp
p391
I6
sVd5tkehc
p392
I1
sVdko4sn8
p393
I8
sVd0tkmrp
p394
I1
sVdb16e12
p395
I1
sVda5p433
p396
I1
sVd49ckk1
p397
I1
sVd40tinw
p398
I1
sVdo9nia2
p399
I1
sVdmneghx
p400
I1
sVd8sn9qq
p401
I1
sVcymfkxw
p402
I1
sVdgfmlj1
p403
I2
sVd6lgt1s
p404
I1
sVd2y2jd2
p405
I2
sVd9yzsj1
p406
I1
sVdn2glh4
p407
I1
sVd2omegl
p408
I1
sVczsy5bu
p409
I24
sVdoxg5pp
p410
I1
sVd9bt1ky
p411
I2
sVcztla86
p412
I4
sVd6ui651
p413
I1
sVdfswnkh
p414
I5
sVdkeobj8
p415
I1
sVd6sgo4b
p416
I2
sVdf3oqvq
p417
I2
sVdksakm6
p418
I1
sVdpzncgi
p419
I1
sVdflclis
p420
I1
sVd2atuwd
p421
I1
sVdgjt3sk
p422
I1
sVdppmxfh
p423
I1
sVdf6g4d1
p424
I1
sVde8pbqu
p425
I1
sVd7fymat
p426
I1
sVd01gf32
p427
I1
sVdksrcoz
p428
I1
sVdhv5g37
p429
I1
sVd4up4a0
p430
I1
sVd9vfnxl
p431
I2
sVd228heh
p432
I1
sVd1rmxse
p433
I2
sVd0i30nt
p434
I1
sVdn16283
p435
I2
sVczcl0du
p436
I1
sVdpi2yha
p437
I1
sVd2281op
p438
I3
sVderph3w
p439
I3
sVcyva5xz
p440
I1
sVd0t4x2q
p441
I2
sVdbng1y2
p442
I1
sVdah29xk
p443
I1
sVd181rxj
p444
I5
sVdiapjtz
p445
I1
sVd7p539o
p446
I1
sVdn38306
p447
I1
sVd2v9qq6
p448
I1
sVd84sue2
p449
I1
sVd78g0sz
p450
I1
sVdqgkgwc
p451
I1
sVdpwg86c
p452
I1
sVdg0ayqu
p453
I1
sVd9zakip
p454
I2
sVdayrplw
p455
I2
sVd0iupbj
p456
I1
sVdffoy1w
p457
I5
sVdowai6l
p458
I5
sVds3zufu
p459
I1
sVdkcf4pu
p460
I2
sVd09wd0x
p461
I2
sVdb489r7
p462
I1
sVdrckqsp
p463
I1
sVd5lfyzk
p464
I2
sVdhjj8kr
p465
I2
sVcyk9342
p466
I3
sVde4ds1w
p467
I4
sVd7m6cco
p468
I1
sVdtih4sm
p469
I2
sVdk8l11w
p470
I1
sVdea0gnb
p471
I2
sVdab4py0
p472
I1
sVdc90rgr
p473
I4
sVdkp5kr6
p474
I1
sVd5fvs2k
p475
I1
sVdgoqnjf
p476
I1
sVd73fzrt
p477
I1
sVdr0klyc
p478
I1
sVdcli8o7
p479
I1
sVdir4cq7
p480
I1
sVddmp3dl
p481
I2
sVdfrm487
p482
I1
sVdfrv36t
p483
I2
sVd6bfsdo
p484
I1
sVdaftdl0
p485
I1
sVd1v8gdn
p486
I1
sVdsn2l4b
p487
I1
sVdgt215h
p488
I1
sVd9g5ks3
p489
I2
sVd91lpwq
p490
I2
sVd0qxqek
p491
I1
sVdsw4kvv
p492
I1
sVdcjck0q
p493
I1
sVdf0e5a0
p494
I4
sVd50r59o
p495
I1
sVdazunzs
p496
I1
sVd6bn71j
p497
I1
sVdqa3pqz
p498
I1
sVd538abb
p499
I2
sVdiy6e91
p500
I1
sVdc5mflx
p501
I1
sVdcj8821
p502
I1
sVd7vjl77
p503
I1
sVd9ydxvq
p504
I1
sVdcajrea
p505
I1
sVddr2bf9
p506
I1
sVd3fmipq
p507
I1
sVdjjuukr
p508
I2
sVdog7ffw
p509
I1
sVdc6wbzi
p510
I1
sVdfqwanf
p511
I3
sVd36fxe3
p512
I1
sVczw3hre
p513
I1
sVd1gnqyv
p514
I1
sVdbh4ddk
p515
I1
sVdilg018
p516
I1
sVdhxy75s
p517
I3
sVd3xu8ib
p518
I1
sVczzrh0q
p519
I1
sVdk0ig6v
p520
I1
sVdo239v1
p521
I1
sVdal2p14
p522
I1
sVd9xnsxs
p523
I1
sVdo8i9su
p524
I1
sVd2cil5t
p525
I1
sVd2y541b
p526
I1
sVcyontmn
p527
I1
sVd1xh7ag
p528
I1
sVd62ncd2
p529
I1
sVd2ox3v6
p530
I1
sVd7e89la
p531
I3
sVdihegha
p532
I1
sVd5b8yaw
p533
I3
sVd2t1dzm
p534
I2
sVd6brv48
p535
I3
sVdawfubz
p536
I3
sVdrzi2dt
p537
I2
sVd9gcg4z
p538
I1
sVd5sw6nx
p539
I1
sVdc16aa6
p540
I1
sVd11ka9g
p541
I1
sVd2d0dgd
p542
I2
sVd0rcd6g
p543
I2
sVd90nllt
p544
I1
sVdsr89nh
p545
I1
sVd6qywhs
p546
I1
sVdozbghx
p547
I1
sVd2p8aal
p548
I2
sVd1c9j37
p549
I1
sVdj0nbl7
p550
I1
sVd37uyaz
p551
I5
sVdg0ihc3
p552
I3
sVdp3dubq
p553
I1
sVczuodh8
p554
I1
sVdjdpjld
p555
I1
sVdq8vhe7
p556
I1
sVd8hbb8x
p557
I1
sVdb2muic
p558
I1
sVdev1ug5
p559
I3
sVdrq818b
p560
I18
sVd463wck
p561
I6
sVdd1v0lg
p562
I1
sVdeuf5it
p563
I1
sVdgvki8j
p564
I2
sVdefdb48
p565
I1
sVd5orfis
p566
I1
sVd52mu6j
p567
I1
sVd42p75w
p568
I1
sVdcsql3g
p569
I2
sVdiija14
p570
I2
sVdpxtbc6
p571
I1
sVd7jeh8d
p572
I1
sVd3p23hs
p573
I1
sVdeegl8t
p574
I1
sVdfknrjn
p575
I1
sVczdr112
p576
I1
sVd24r8i4
p577
I3
sVd4d6pqr
p578
I1
sVd67ysxa
p579
I1
sVd3ohyuw
p580
I1
sVdqlmind
p581
I1
sVdffkzq9
p582
I1
sVd5vgc5b
p583
I1
sVdjm0mar
p584
I1
sVd4jimed
p585
I3
sVd14q5bi
p586
I1
sVdii238g
p587
I1
sVd8qc337
p588
I3
sVd1yimyw
p589
I1
sVdgmll5b
p590
I2
sVczdr371
p591
I3
sVdjrqj5w
p592
I1
sVdcq7ajd
p593
I1
sVd6h9vcs
p594
I2
sVd9qccn3
p595
I1
sVda8lvr7
p596
I1
sVdf1uvou
p597
I1
sVd90llvk
p598
I1
sVdggvjp4
p599
I1
sVd60qnz1
p600
I1
sVd1tkcv4
p601
I1
sVd4p65b3
p602
I1
sVdhly4y0
p603
I1
sVdhr1dmk
p604
I1
sVddag0vf
p605
I8
sVdfptq4y
p606
I1
sVdjk5ozp
p607
I1
sVd8ep8li
p608
I1
sVdeq15wv
p609
I4
sVczevaia
p610
I1
sVdrvomst
p611
I2
sVd4js3z9
p612
I1
sVd088kx3
p613
I8
sVd229do3
p614
I2
sVdjlojnj
p615
I2
sVdtfd0nj
p616
I1
sVdr43hyu
p617
I9
sVd0lm83b
p618
I1
sVd3klgz8
p619
I1
sVdepwsuy
p620
I1
sVdk7bidt
p621
I1
sVdrs7wsk
p622
I2
sVdrenm13
p623
I1
sVdawida7
p624
I1
sVdfgvjtv
p625
I2
sVd0jdt9e
p626
I1
sVd0obs59
p627
I1
sVd3p3kia
p628
I1
sVd98b4br
p629
I1
sVd0v93qq
p630
I3
sVd9sxacy
p631
I2
sVdeyaqxu
p632
I4
sVdnax8cr
p633
I3
sVd8v2rvj
p634
I1
sVd3kvd7i
p635
I1
sVda1yttc
p636
I1
sVd7l5hi8
p637
I1
sVdb6np9y
p638
I1
sVdfbldvo
p639
I2
sVd5e7ncd
p640
I2
sVda1w6py
p641
I1
sVd18s94g
p642
I1
sVde1tekx
p643
I1
sVdigja0p
p644
I2
sVd3h0693
p645
I3
sVdkfmf15
p646
I1
sVdgkpy43
p647
I1
sVd28qwbi
p648
I1
sVd1l3e17
p649
I1
sVdijudll
p650
I2
sVd05uhg1
p651
I2
sVd3xwqk9
p652
I2
sVdhjo799
p653
I1
sVdq731r9
p654
I1
sVdowaf1p
p655
I5
sVdc6cbxc
p656
I1
sVdbrs6fi
p657
I2
sVcz23odh
p658
I3
sVdr3seea
p659
I1
sVdg2bbtx
p660
I2
sVdqikwl3
p661
I1
sVdd3w0xx
p662
I1
sVd5n5vc0
p663
I1
sVcykhl43
p664
I2
sVddf3r42
p665
I1
sVde49t7q
p666
I1
sVd56x1u9
p667
I1
sVd2qg1fh
p668
I2
sVds8bctx
p669
I1
sVd05cft2
p670
I2
sVdhbr5d4
p671
I1
sVd0mmj77
p672
I1
sVdhm2zof
p673
I1
sVd7l33bj
p674
I1
sVczqrts1
p675
I2
sVdbuth8p
p676
I1
sVdrpfvem
p677
I1
sVdgtta9x
p678
I2
sVdje4n9y
p679
I1
sVd1wg8iq
p680
I2
sVd4bf79u
p681
I1
sVczff2mk
p682
I1
sVdr98yfm
p683
I2
sVd2e2dck
p684
I3
sVdoe1stc
p685
I1
sVdmswcet
p686
I1
sVdifbc7m
p687
I1
sVdh2njto
p688
I2
sVczarqjn
p689
I6
sVdtg4mez
p690
I1
sVd11xwhl
p691
I1
sVczzr1jj
p692
I3
sVdcbhvlg
p693
I1
sVd19h5w1
p694
I1
sVd67uev8
p695
I2
sVdnnb3en
p696
I2
sVd2b6sfv
p697
I1
sVd9w3cef
p698
I1
sVd9eyez5
p699
I1
sVdfnhwsc
p700
I1
sVd5wlrfp
p701
I1
sVd87kd84
p702
I2
sVddtw8xe
p703
I4
sVdan24m0
p704
I2
sVdsoekpp
p705
I1
sVd7ad15e
p706
I7
sVd3gmhy3
p707
I3
sVdnuj22b
p708
I1
sVdg7a3s0
p709
I1
sVd0wgq2o
p710
I1
sVdt9odbp
p711
I1
sVd9uv1rt
p712
I1
sVczb45d0
p713
I1
sVd0ac3me
p714
I1
sVd6l00h2
p715
I1
sVd15qbz9
p716
I5
sVdb4am5p
p717
I2
sVd813wmv
p718
I1
sVd46djrw
p719
I2
sVczji7mv
p720
I3
sVd0e405u
p721
I1
sVdmuao5r
p722
I1
sVddc98xn
p723
I1
sVdojc1h2
p724
I1
sVczk1cy5
p725
I1
sVcynf4nh
p726
I1
sVd8wtnph
p727
I1
sVd10m0ym
p728
I1
sVdjl2s5p
p729
I1
sVd467ek0
p730
I1
sVdbxubny
p731
I2
sVdcmzbft
p732
I1
sVcyo0rcs
p733
I1
sVd882nmw
p734
I1
sVdf6w3gv
p735
I2
sVdk8a5h8
p736
I1
sVdnhibjo
p737
I1
sVd5inedu
p738
I1
sVd06w970
p739
I1
sVd2htxsr
p740
I1
sVd3efwhj
p741
I1
sVddvcd2r
p742
I1
sVd53irs2
p743
I2
sVd1lsu91
p744
I1
sVdnp9eep
p745
I3
sVdo141c9
p746
I3
sVczffvr7
p747
I8
sVdb9ov3z
p748
I1
sVdos4ttm
p749
I4
sVdketyd0
p750
I1
sVczfdiws
p751
I1
sVds5zmrw
p752
I1
sVd3xzbgz
p753
I1
sVdinchos
p754
I1
sVdg40ffa
p755
I1
sVdh1qxwi
p756
I2
sVd6buy9e
p757
I1
sVdby3bpq
p758
I1
sVd445md6
p759
I1
sVd3gn78n
p760
I2
sVd5wvxsc
p761
I2
sVdae1ecm
p762
I1
sVd3rrmfd
p763
I1
sVd6403hv
p764
I1
sVd1eqw1u
p765
I1
sVdg7shd3
p766
I1
sVdhlulj0
p767
I3
sVdat8l6f
p768
I1
sVdf644co
p769
I1
sVdcagl3p
p770
I1
sVd912p89
p771
I2
sVdcamwli
p772
I1
sVd4edmek
p773
I3
sVdaqr2j9
p774
I3
sVd76z10w
p775
I1
sVdejxzjo
p776
I1
sVdhvp46l
p777
I1
sVd1z4cu4
p778
I2
sVdc3c5kw
p779
I1
sVd1frnee
p780
I1
sVdbchdac
p781
I1
sVdt56gq6
p782
I1
sVd86ni3s
p783
I1
sVdghmu04
p784
I1
sVdcbkzxz
p785
I2
sVcz6mddo
p786
I1
sVd1tdsjw
p787
I1
sVd1lsltm
p788
I1
sVdh5rlvy
p789
I2
sVdcacol9
p790
I1
sVdhq0ozv
p791
I1
sVd797ag1
p792
I3
sVdnpw6ld
p793
I3
sVd7dg2q7
p794
I1
sVcz4wkkj
p795
I1
sVdrg2n9g
p796
I1
sVd6elhrl
p797
I1
sVdhor1nz
p798
I1
sVd3syihs
p799
I1
sVd9xhru4
p800
I1
sVdihqygq
p801
I2
sVd4igmtb
p802
I2
sVd44wmks
p803
I2
sVdetc2vy
p804
I2
sVd30y1do
p805
I1
sVd3gml9i
p806
I2
sVdkk4dbr
p807
I1
sVd4q345t
p808
I1
sVdti7oxu
p809
I6
sVdiic7f7
p810
I1
sVd3a76zd
p811
I1
sVcym4dyj
p812
I2
sVd3v6e3d
p813
I1
sVda16avx
p814
I1
sVdnwmoi8
p815
I1
sVd6wfvzc
p816
I2
sVddtgbuz
p817
I1
sVd4e9942
p818
I1
sVdizlihl
p819
I1
sVczbm6zu
p820
I3
sVd54u6lr
p821
I1
sVdaig3re
p822
I1
sVd915cn0
p823
I2
sVdgpxi2v
p824
I1
sVdcvjfmo
p825
I1
sVdo8aipr
p826
I2
sVd2vy6a2
p827
I2
sVdahvcaw
p828
I1
sVdh193kq
p829
I3
sVditiin7
p830
I5
sVd0um1vi
p831
I2
sVde0r6u0
p832
I11
sVdj3p83t
p833
I1
sVd623mt4
p834
I1
sVd6h74uc
p835
I1
sVdixl7qs
p836
I1
sVcz2sbus
p837
I1
sVda7lbt7
p838
I1
sVd7l86ad
p839
I2
sVd7aomr5
p840
I3
sVd25apws
p841
I1
sVdctb9wl
p842
I2
sVcyvl8h0
p843
I1
sVdccgwp2
p844
I1
sVcz1vb7k
p845
I1
sVdqb4cvu
p846
I3
sVde19bfe
p847
I1
sVdqbrxmu
p848
I1
sVddwrghs
p849
I1
sVd6ue1vs
p850
I1
sVdh51naz
p851
I1
sVd8kb5ir
p852
I1
sVdevpkuw
p853
I1
sVdpp1qbg
p854
I2
sVdgesgyp
p855
I4
sVdev27w9
p856
I1
sVdby0vdt
p857
I3
sVd13adq4
p858
I9
sVd05kw4p
p859
I1
sVd04rb3w
p860
I1
sVd55qbhz
p861
I2
sVdgyn38s
p862
I2
sVd467yo8
p863
I1
sVd474aa1
p864
I2
sVd3yw9q9
p865
I1
sVddbkna3
p866
I1
sVd0x1j3o
p867
I1
sVdeo1lr1
p868
I2
sVdc8xngw
p869
I1
sVd5nxrq5
p870
I2
sVdsu7gr5
p871
I1
sVdhb3e8x
p872
I1
sVd1eytj0
p873
I1
sVdb3xt7l
p874
I2
sVd759shx
p875
I1
sVd9nby5y
p876
I3
sVd174zn2
p877
I1
sVczvn6pe
p878
I1
sVddh7xs2
p879
I1
sVddmhbkv
p880
I1
sVdfodmpo
p881
I1
sVdddpsb9
p882
I1
sVd6ozlxn
p883
I1
sVd9fu91n
p884
I2
sVdglq4qd
p885
I2
sVdklankm
p886
I1
sVd175rrd
p887
I1
sVd8wcd5c
p888
I2
sVdt7g4a5
p889
I1
sVd86ys7x
p890
I4
sVdagiznb
p891
I2
sVdd2g3jz
p892
I2
sVdg5zmu9
p893
I3
sVddurkiq
p894
I2
sVd4snkfe
p895
I1
sVdcmq54d
p896
I1
sVd3ea91v
p897
I1
sVdbu532z
p898
I6
sVdnp452u
p899
I2
sVcykdy7p
p900
I1
sVdklj4pj
p901
I1
sVdbr3mqh
p902
I2
sVd12gh73
p903
I1
sVdbjhbh1
p904
I1
sVdk1yrtu
p905
I1
sVd7tdjln
p906
I1
sVd5vla4x
p907
I1
sVcyrqzad
p908
I1
sVd6iq8tf
p909
I1
sVde9oqon
p910
I19
sVd0hdrxf
p911
I1
sVd139f5a
p912
I1
sVdrdd37f
p913
I2
sVdctxf2q
p914
I1
sVd6h71xe
p915
I5
sVd0l82u6
p916
I1
sVdg852f8
p917
I2
sVdqsgqoq
p918
I2
sVdirfuvn
p919
I1
sVd6wd31k
p920
I1
sVd52ivad
p921
I2
sVdom6i53
p922
I1
sVdhqmqkr
p923
I2
sVd22a038
p924
I1
sVd8tcaxc
p925
I1
sVd2384az
p926
I1
sVd49x619
p927
I1
sVd4hnrjk
p928
I2
sVdnkbhlg
p929
I1
sVdohx065
p930
I1
sVd19wwaj
p931
I1
sVd4e3lkf
p932
I1
sVdpj2ru7
p933
I1
sVdh5v8rh
p934
I1
sVdbycx9u
p935
I2
sVdiifu3j
p936
I1
sVdc5qbxw
p937
I2
sVd118uv8
p938
I2
sVd08brjb
p939
I4
sVdf7ytcb
p940
I1
sVdfbp5lr
p941
I5
sVdtg2afr
p942
I1
sVdd7pv1u
p943
I1
sVd2p85hv
p944
I2
sVdhtf5yn
p945
I2
sVdrjqau5
p946
I1
sVd36tv3r
p947
I2
sVd78sdsc
p948
I1
sVdbjbfrc
p949
I1
sVddznf0g
p950
I1
sVdd9vscj
p951
I1
sVd2fx0d5
p952
I1
sVd19av8m
p953
I1
sVdb6mkqs
p954
I1
sVd8akpqr
p955
I1
sVdhvjgnl
p956
I3
sVdgjaomc
p957
I2
sVdnvepju
p958
I2
sVczyeskr
p959
I1
sVdp3oqh2
p960
I2
sVdnvlo03
p961
I2
sVcz3zpcn
p962
I1
sVdfnmch6
p963
I2
sVdrlypno
p964
I1
sVdqu93qe
p965
I1
sVdkk9w10
p966
I1
sVdkedb77
p967
I1
sVd22uydd
p968
I1
sVdddfnq5
p969
I1
sVdn8x777
p970
I1
sVd4zq0nz
p971
I6
sVd9m4i50
p972
I1
sVdgkw6dj
p973
I2
sVd5muj8m
p974
I1
sVd1a3ap3
p975
I1
sVdaqihzl
p976
I1
sVdkxmhpx
p977
I1
sVd8rpgpa
p978
I2
sVdfqx2nm
p979
I3
sVcysi31r
p980
I1
sVdfs3zhy
p981
I1
sVd5jabcb
p982
I1
sVczfvg2t
p983
I6
sVd9yu7kt
p984
I1
sVd87oxhj
p985
I1
sVdb4uoe6
p986
I1
sVcypufnt
p987
I1
sVdkaktcw
p988
I3
sVcz5upjm
p989
I1
sVdenvsib
p990
I1
sVdcjlomc
p991
I1
sVdcqgs0e
p992
I9
sVcyqe5pa
p993
I1
sVdc300wa
p994
I1
sVdhdt0fq
p995
I1
sVcz7coj1
p996
I1
sVdf6js2f
p997
I1
sVd0ysagl
p998
I5
sVdekyqdp
p999
I1
sVdbp4aya
p1000
I1
sVddumun4
p1001
I1
sVdccfx7q
p1002
I1
sVd7hyxin
p1003
I1
sVdh6risj
p1004
I1
sVd00q00j
p1005
I1
sVd0pai60
p1006
I1
sVdru7h9b
p1007
I4
sVd80i05q
p1008
I1
sVd6tuj6u
p1009
I1
sVdsnc1hd
p1010
I1
sVdnqozmn
p1011
I2
sVd3c8omi
p1012
I1
sVdp8vsna
p1013
I2
sVd5mvsff
p1014
I1
sVd3tsfdu
p1015
I1
sVdpwl4s2
p1016
I1
sVd9xdibt
p1017
I1
sVdfj4p31
p1018
I2
sVcyuzm86
p1019
I4
sVdkuu9gd
p1020
I2
sVdogg89v
p1021
I1
sVd3ydvax
p1022
I1
sVdaup8tf
p1023
I4
sVd6ty3mj
p1024
I1
sVd8f0k8b
p1025
I1
sVdgmp40z
p1026
I1
sVdg5w9sp
p1027
I1
sVcz66egq
p1028
I1
sVdrpbfky
p1029
I3
sVd0y8kcn
p1030
I1
sVczfffmr
p1031
I2
sVdr4sqic
p1032
I2
sVcyrqgd3
p1033
I1
sVdc93dm6
p1034
I1
sVd9gz8kr
p1035
I4
sVdg2e3x9
p1036
I2
sVdddw1zi
p1037
I1
sVdklmjg3
p1038
I2
sVdektpn5
p1039
I1
sVd15ycyn
p1040
I1
sVde3keep
p1041
I1
sVd8u26z8
p1042
I1
sVdi9z33h
p1043
I4
sVdkmto5a
p1044
I2
sVddok9gr
p1045
I1
sVdfqw33c
p1046
I3
sVdebucck
p1047
I1
sVd4cub8v
p1048
I4
sVdprm5eh
p1049
I3
sVd4ksbum
p1050
I1
sVdo6hnir
p1051
I1
sVdn3oa9y
p1052
I1
sVdetbsys
p1053
I1
sVdjcnzbv
p1054
I3
sVdgkmgiz
p1055
I2
sVd01i7ba
p1056
I2
sVd9icjg0
p1057
I2
sVdiqdvnw
p1058
I1
sVd4c6b33
p1059
I1
sVdkc38zq
p1060
I1
sVczadewp
p1061
I1
sVdmm9btj
p1062
I1
sVd2mg3u7
p1063
I1
sVdt5bnj1
p1064
I1
sVdn2kkyo
p1065
I1
sVd7lb08k
p1066
I1
sVdri75hi
p1067
I1
sVdd8pgd3
p1068
I1
sVd7e0x2q
p1069
I2
sVdbvebey
p1070
I1
sVdomctgf
p1071
I2
sVdh6fo2c
p1072
I2
sVd3kkr3x
p1073
I1
sVd33zr8p
p1074
I1
sVd5cbj3k
p1075
I1
sVd0vp724
p1076
I1
sVdai3qge
p1077
I2
sVd5ff2zf
p1078
I1
sVdftc15i
p1079
I2
sVd16zyeb
p1080
I2
sVd36jd6r
p1081
I1
sVdkr8eg1
p1082
I2
sVdp90ikj
p1083
I1
sVd9rjvxg
p1084
I2
sVd4fcfl5
p1085
I1
sVdegtraf
p1086
I3
sVds23g2m
p1087
I2
sVd04cese
p1088
I1
sVd5w90do
p1089
I8
sVd0epe0v
p1090
I1
sVdnumh9g
p1091
I2
sVdjo2l8w
p1092
I1
sVdfvmard
p1093
I1
sVd174ek1
p1094
I1
sVdrv6ea7
p1095
I1
sVcytfjlm
p1096
I1
sVd46b6ie
p1097
I1
sVdt1sdcm
p1098
I1
sVd8e4ezq
p1099
I2
sVdszmreb
p1100
I3
sVd65v7zt
p1101
I1
sVd277cms
p1102
I1
sVd1ttji6
p1103
I1
sVd5wx3qw
p1104
I1
sVdc4e0d7
p1105
I1
sVdbu1p86
p1106
I1
sVd6vw14g
p1107
I1
sVdbnpdoh
p1108
I1
sVdc7v2h5
p1109
I2
sVd9pa4ar
p1110
I1
sVd0fjqnm
p1111
I1
sVd9vq368
p1112
I1
sVdmpdbju
p1113
I1
sVdgs2l3q
p1114
I2
sVdtg2osl
p1115
I1
sVd15h4x2
p1116
I1
sVd9vxont
p1117
I1
sVdc9wx11
p1118
I1
sVdgtiozh
p1119
I1
sVd9eyod5
p1120
I2
sVd9ixjtq
p1121
I1
sVd3rrrqs
p1122
I1
sVd0iz1p2
p1123
I2
sVdfm6w25
p1124
I1
sVdh71mjh
p1125
I1
sVdg37izf
p1126
I2
sVd2a9loq
p1127
I1
sVdqwscc0
p1128
I7
sVdindm5c
p1129
I3
sVdh13jwp
p1130
I1
sVd0rc8bs
p1131
I1
sVdjcx670
p1132
I3
sVdds09qi
p1133
I3
sVd5n5qg8
p1134
I1
sVdn65vur
p1135
I1
sVddhuxla
p1136
I5
sVd5jwfgh
p1137
I1
sVd9d8sxp
p1138
I2
sVdaofz8u
p1139
I3
sVd2tw1hr
p1140
I1
sVdo5ztgl
p1141
I3
sVdi30h05
p1142
I2
sVd1ncwxy
p1143
I1
sVd00jxyp
p1144
I1
sVd1vzr1l
p1145
I1
sVdp2sf40
p1146
I5
sVd4w0kb2
p1147
I1
sVcytiv82
p1148
I1
sVcz9ta6i
p1149
I1
sVdmug7ob
p1150
I1
sVdf1yusk
p1151
I1
sVdh7dczk
p1152
I3
sVd4lhvxx
p1153
I3
sVd88hwth
p1154
I1
sVddrrj85
p1155
I3
sVdcr0def
p1156
I1
sVdctqpf4
p1157
I1
sVdocifoq
p1158
I2
sVd6zuful
p1159
I1
sVdftg3xz
p1160
I1
sVdmme4zf
p1161
I1
sVdsnyo8b
p1162
I1
sVdiqf5h3
p1163
I1
sVdn0v5on
p1164
I10
sVcz2ixo2
p1165
I3
sVd6zvekp
p1166
I1
sVdndw0ad
p1167
I1
sVde8tf5i
p1168
I1
sVddyeakp
p1169
I2
sVdald4sb
p1170
I1
sVda9q51e
p1171
I1
sVdh9zn30
p1172
I3
sVcyw68je
p1173
I1
sVd38592i
p1174
I1
sVdfu9tza
p1175
I1
sVcz7i34d
p1176
I1
sVd7f67t3
p1177
I1
sVd8yqruo
p1178
I1
sVczje4av
p1179
I1
sVczv3zw1
p1180
I1
sVdid9iiw
p1181
I1
sVdh0kel5
p1182
I1
sVd4b8y0b
p1183
I1
sVdp8uuue
p1184
I1
sVd56oum3
p1185
I1
sVczgdwbt
p1186
I1
sVcyxe5z3
p1187
I1
sVcz1p9ug
p1188
I2
sVcz9j3v7
p1189
I1
sVd2o0ct8
p1190
I5
sVddq5ha4
p1191
I1
sVddikvdz
p1192
I1
sVdd9jwzw
p1193
I5
sVczktjae
p1194
I1
sVd0jhvvj
p1195
I1
sVdftnkge
p1196
I1
sVdc6klzb
p1197
I1
sVd6vnqb4
p1198
I1
sVdr4lttf
p1199
I1
sVdrstke4
p1200
I1
sVd3x4xol
p1201
I1
sVdcaeie3
p1202
I4
sVd0667lq
p1203
I1
sVd31zfqm
p1204
I2
sVd67qcim
p1205
I2
sVd4ohlvs
p1206
I2
sVdbjo0kq
p1207
I4
sVdbb3z1d
p1208
I1
sVd0li05e
p1209
I1
sVcyyuuu5
p1210
I1
sVdky4tmh
p1211
I1
sVdj7krqf
p1212
I9
sVd7mcd4m
p1213
I6
sVdi3jevn
p1214
I1
sVd8wbbdv
p1215
I1
sVd8zyf6u
p1216
I2
sVdj1h1ne
p1217
I1
sVd3alqo4
p1218
I1
sVd27dzkq
p1219
I1
sVd6kbat1
p1220
I1
sVd3rk4l8
p1221
I1
sVdc4b75r
p1222
I1
sVdca5yc9
p1223
I2
sVd33wvck
p1224
I1
sVdeh5kd2
p1225
I1
sVdiyh2dj
p1226
I1
sVdmp6zj9
p1227
I1
sVdavz1ru
p1228
I1
sVdmguqb4
p1229
I1
sVd0d6n77
p1230
I1
sVdg7ecxs
p1231
I2
sVd6hq09j
p1232
I1
sVd0dkrpp
p1233
I2
sVdi0hyrz
p1234
I1
sVd08940s
p1235
I1
sVdgntni5
p1236
I4
sVd103zng
p1237
I1
sVdnidcrg
p1238
I1
sVdfpbuo2
p1239
I2
sVdf1upe0
p1240
I1
sVdbtk4bp
p1241
I2
sVd9f5r5t
p1242
I6
sVd0gfge8
p1243
I1
sVdgl8n29
p1244
I4
sVddf03ap
p1245
I1
sVd2kh2nu
p1246
I1
sVd6o00aa
p1247
I5
sVdt95xzb
p1248
I2
sVcz8uypn
p1249
I1
sVd1ivnii
p1250
I1
sVd2q7kdv
p1251
I1
sVd9iwwig
p1252
I1
sVdgasymv
p1253
I3
sVdhfyzov
p1254
I4
sVdfu6hj9
p1255
I1
sVd07p2e6
p1256
I1
sVdg4bpzv
p1257
I2
sVd3sjd5q
p1258
I1
sVdemz2qr
p1259
I1
sVd4h3pmz
p1260
I4
sVdifkpqt
p1261
I1
sVd0x4p8m
p1262
I1
sVczovhk9
p1263
I1
sVdcaxx43
p1264
I2
sVcz1gjin
p1265
I4
sVdc72pxj
p1266
I1
sVd6fosgz
p1267
I2
sVdnb5qlr
p1268
I4
sVdav8wqj
p1269
I1
sVd2jy6f2
p1270
I1
sVddkqyo4
p1271
I1
sVd0pry05
p1272
I1
sVdfvozo1
p1273
I2
sVdfr7ipc
p1274
I2
sVdcts5ju
p1275
I1
sVd2rcy6k
p1276
I1
sVdtibmho
p1277
I2
sVd1d8np8
p1278
I1
sVd6p3j3l
p1279
I1
sVds6ll7i
p1280
I1
sVddi93t3
p1281
I1
sVdgzb743
p1282
I1
sVd1gtvq5
p1283
I1
sVd8zwwr9
p1284
I5
sVd1padsb
p1285
I1
sVd9z1wit
p1286
I1
sVdbibw0j
p1287
I1
sVd17vr1y
p1288
I1
sVdrvslj4
p1289
I1
sVd5k61rd
p1290
I1
sVd20p78n
p1291
I1
sVdkvw8n9
p1292
I8
sVdnimbzb
p1293
I1
sVd3e2p00
p1294
I1
sVd6xgjer
p1295
I1
sVd0gdz1i
p1296
I1
sVdswlf4c
p1297
I1
sVd7g5ywa
p1298
I1
sVd74tlqd
p1299
I1
sVde4txea
p1300
I1
sVdiaz3ug
p1301
I6
sVczayk5e
p1302
I3
sVdqjc6r4
p1303
I1
sVdex8nfk
p1304
I1
sVdanoo6v
p1305
I1
sVdi85qgh
p1306
I1
sVdbg5mvw
p1307
I1
sVd1zxn4f
p1308
I1
sVdesao8s
p1309
I1
sVcz27u02
p1310
I1
sVdp4towa
p1311
I1
sVd27wqv7
p1312
I1
sVd5vrucq
p1313
I1
sVcyxmge2
p1314
I1
sVdqx4so1
p1315
I2
sVdj592u6
p1316
I1
sVd8qvtif
p1317
I1
sVd3tu5td
p1318
I1
sVddkvo6n
p1319
I1
sVd2gb2h0
p1320
I1
sVdoei6vt
p1321
I1
sVde9aw4k
p1322
I2
sVd2amsst
p1323
I1
sVczm6e2l
p1324
I1
sVd96r8qt
p1325
I2
sVd2csfdh
p1326
I5
sVdp36ie9
p1327
I2
sVdmx0l6q
p1328
I1
sVdgzj1sq
p1329
I1
sVd1n3afg
p1330
I2
sVdf4yi0r
p1331
I1
sVdpf048g
p1332
I1
sVd4guhue
p1333
I3
sVd53l7dx
p1334
I1
sVd8h3pj2
p1335
I2
sVd4725ln
p1336
I5
sVczyykzn
p1337
I1
sVdb0q293
p1338
I1
sVd9tnh11
p1339
I1
sVdn1s4sy
p1340
I1
sVdrqr4zf
p1341
I1
sVdf7vylv
p1342
I4
sVcywjnrr
p1343
I1
sVdc3bnds
p1344
I1
sVd8prna4
p1345
I4
sVdrag8mt
p1346
I1
sVdrrb4ex
p1347
I3
sVd2al84s
p1348
I1
sVd947zpo
p1349
I2
sVdj2e9wh
p1350
I1
sVd20slyj
p1351
I1
sVczri86m
p1352
I1
sVd4i5j05
p1353
I2
sVdiux0e5
p1354
I1
sVdn2nj7b
p1355
I1
sVczdiwor
p1356
I1
sVdfo9ccf
p1357
I3
sVdfpgoqm
p1358
I3
sVdo6ia1f
p1359
I2
sVcypt1ue
p1360
I1
sVdeobkpv
p1361
I1
sVd99dpki
p1362
I1
sVd2frjth
p1363
I1
sVdcbl0fz
p1364
I2
sVd7e0j1u
p1365
I2
sVd3q1sbq
p1366
I2
sVczgobg1
p1367
I1
sVdogbc9r
p1368
I1
sVd8ly925
p1369
I2
sVd1ga2s8
p1370
I1
sVd0i1ghq
p1371
I1
sVd9fyebb
p1372
I2
sVdkecilm
p1373
I1
sVd3orlni
p1374
I1
sVdfghgri
p1375
I1
sVd5mqqot
p1376
I2
sVd7a2eed
p1377
I9
sVd261ayf
p1378
I1
sVdq734ou
p1379
I1
sVddavi31
p1380
I1
sVdgu9u48
p1381
I1
sVdb2ecdl
p1382
I1
sVdesa1a4
p1383
I1
sVdpxsx7m
p1384
I1
sVd1dk45w
p1385
I1
sVddy2pbr
p1386
I1
sVd4zj6h6
p1387
I1
sVd7yh8wt
p1388
I1
sVdja5612
p1389
I1
sVdavci1j
p1390
I1
sVdf5hoc0
p1391
I1
sVdr0s81u
p1392
I2
sVd2ztz0i
p1393
I4
sVdo8sqte
p1394
I3
sVd3w0yrj
p1395
I4
sVd02p9iv
p1396
I1
sVd2j5sn9
p1397
I1
sVd0ys7ff
p1398
I3
sVdiaanqo
p1399
I1
sVdg8xjyz
p1400
I1
sVd0vmgoo
p1401
I2
sVdhly2rm
p1402
I1
sVdflzyqw
p1403
I2
sVdh43zei
p1404
I1
sVd46gk5a
p1405
I11
sVd7z7eg7
p1406
I1
sVd6hwv5u
p1407
I2
sVde988gm
p1408
I1
sVdg9wsvx
p1409
I1
sVd1hapvd
p1410
I1
sVd0yy19x
p1411
I1
sVd1lt1dg
p1412
I2
sVd554b61
p1413
I2
sVdqp3msm
p1414
I1
sVdapzxgv
p1415
I2
sVdgarx50
p1416
I1
sVdk4z8zc
p1417
I1
sVdoc2ql0
p1418
I1
sVddodvba
p1419
I2
sVdanuw88
p1420
I2
sVd1y0otq
p1421
I2
sVdr5le07
p1422
I1
sVdcx5se8
p1423
I1
sVdct1jkj
p1424
I1
sVd3ep87h
p1425
I1
sVdd50aou
p1426
I3
sVdhk4faw
p1427
I1
sVd8fr3ow
p1428
I1
sVdce9x99
p1429
I1
sVdf9nd4y
p1430
I1
sVdrgro6n
p1431
I2
sVd6jv5yr
p1432
I2
sVdkm6tai
p1433
I1
sVdhd70ck
p1434
I1
sVdbo598x
p1435
I1
sVdspyokw
p1436
I1
sVd0kqqhq
p1437
I2
sVdk9yvh2
p1438
I1
sVdhx35vh
p1439
I1
sVda0ankv
p1440
I1
sVd8n547p
p1441
I3
sVdn4pva8
p1442
I1
sVdgukcl2
p1443
I1
sVd3qsw27
p1444
I1
sVdfnifgz
p1445
I5
sVcz8w44c
p1446
I1
sVde9adih
p1447
I2
sVdh34jrg
p1448
I3
sVdmqw4xt
p1449
I1
sVd4ogprb
p1450
I4
sVd6si7zz
p1451
I1
sVdaeu4pi
p1452
I1
sVds5zsy9
p1453
I1
sVdqqbalx
p1454
I1
sVdjzl5qc
p1455
I1
sVd4boqll
p1456
I1
sVdc96ho6
p1457
I1
sVdf7pf88
p1458
I1
sVdidizoe
p1459
I1
sVdicvcdm
p1460
I1
sVdecie3r
p1461
I1
sVd6ufhd1
p1462
I1
sVd1x68pf
p1463
I4
sVd1x5f0o
p1464
I5
sVczon68e
p1465
I2
sVdc0v6c4
p1466
I3
sVczze82x
p1467
I1
sVd31o2r2
p1468
I2
sVdez9n79
p1469
I2
sVd69e936
p1470
I1
sVdjpaqwi
p1471
I1
sVdbxzu9s
p1472
I2
sVd9872y7
p1473
I1
sVdbwlhw3
p1474
I1
sVdia63n0
p1475
I7
sVdk0w4dp
p1476
I1
sVdjbecyh
p1477
I1
sVd8fr7qf
p1478
I1
sVdkwq07u
p1479
I3
sVdffszxn
p1480
I1
sVd9vmkrl
p1481
I1
sVcz4t8ts
p1482
I1
sVcyjlbjf
p1483
I1
sVdns79dk
p1484
I1
sVcz69zvp
p1485
I1
sVdh59aq7
p1486
I1
sVd7b4yu7
p1487
I1
sVdopxl0t
p1488
I5
sVdhlzzi8
p1489
I1
sVd1lovob
p1490
I1
sVd008ae4
p1491
I1
sVdgjwkf6
p1492
I2
sVd4urffx
p1493
I1
sVd9mhszv
p1494
I2
sVd77l41k
p1495
I1
sVdn5sodq
p1496
I2
sVd3a7x8s
p1497
I1
sVdrrlms1
p1498
I1
sVddwqpkm
p1499
I1
sVdg27oa8
p1500
I1
sVdkbumi9
p1501
I1
sVd5vpghx
p1502
I1
sVcz0ejes
p1503
I1
sVdi2hrom
p1504
I2
sVd0melvl
p1505
I1
sVdhquaaj
p1506
I1
sVd5f2t71
p1507
I1
sVd2ko6qw
p1508
I1
sVd4u6q72
p1509
I1
sVdjhn26p
p1510
I1
sVdegwyu1
p1511
I1
sVdi4dkr6
p1512
I1
sVdbyyc8h
p1513
I1
sVcz4fike
p1514
I1
sVczl27nx
p1515
I3
sVdh6muht
p1516
I3
sVdn245go
p1517
I1
sVd68pglf
p1518
I1
sVdazpnaz
p1519
I3
sVdjttnog
p1520
I1
sVdod23qf
p1521
I1
sVdenpuk6
p1522
I1
sVdfuxdre
p1523
I1
sVcyq0xr4
p1524
I1
sVczfk0d2
p1525
I7
sVdbs1zn4
p1526
I1
sVdfvvxgr
p1527
I3
sVdhlih17
p1528
I2
sVdqvt6dh
p1529
I1
sVd03qut7
p1530
I3
sVdej81xo
p1531
I1
sVd1i6hi2
p1532
I3
sVd7t6gs6
p1533
I1
sVdhjj0cs
p1534
I1
sVdeg9s18
p1535
I1
sVdc93rzk
p1536
I2
sVd6ps110
p1537
I1
sVczzzhlf
p1538
I1
sVde99y8f
p1539
I1
sVd9vjdcd
p1540
I1
sVd3591g4
p1541
I1
sVd1l080f
p1542
I1
sVdhxhz3d
p1543
I1
sVdn5pv0j
p1544
I1
sVdhr4bb5
p1545
I1
sVdo3kxjm
p1546
I1
sVcyqhwb7
p1547
I1
sVdcmidpt
p1548
I1
sVdrzuor6
p1549
I1
sVd2ci4fn
p1550
I1
sVd4hrz3y
p1551
I1
sVd0hkp0c
p1552
I1
sVd2vy2hw
p1553
I1
sVd6htzlw
p1554
I1
sVdtg540b
p1555
I1
sVcylqpc7
p1556
I1
sVde1o6gs
p1557
I1
sVd2nccs2
p1558
I1
sVd3kvh3z
p1559
I1
sVdcpsecd
p1560
I1
sVdijdclj
p1561
I3
sVd3rjrig
p1562
I1
sVdndh978
p1563
I1
sVd3wodlj
p1564
I4
sVcyjz9kr
p1565
I1
sVdeuxugu
p1566
I1
sVd473uah
p1567
I2
sVde7p4ih
p1568
I1
sVdjv4a4w
p1569
I5
sVd3aazbe
p1570
I4
sVdhvblj1
p1571
I2
sVdppgiby
p1572
I2
sVd935mkv
p1573
I1
sVd5zv850
p1574
I1
sVd5r0kjb
p1575
I2
sVdfkxzjx
p1576
I2
sVd7nsjqx
p1577
I2
sVd49sgxq
p1578
I1
sVdc9vmxn
p1579
I1
sVddwe7rq
p1580
I2
sVdo4hcel
p1581
I1
sVdgz41qq
p1582
I2
sVd6q5mqv
p1583
I1
sVd7yyi6c
p1584
I1
sVdduzuwi
p1585
I1
sVd3pszct
p1586
I1
sVdfdtoli
p1587
I1
sVdf411kl
p1588
I1
sVddmacpw
p1589
I2
sVd3mqy04
p1590
I1
sVd1i2hh8
p1591
I1
sVdevqdt9
p1592
I1
sVd1n5khf
p1593
I2
sVd56gdni
p1594
I1
sVda7omlg
p1595
I1
sVd95ipru
p1596
I1
sVddoa6e0
p1597
I1
sVcz2klr0
p1598
I1
sVd28ilux
p1599
I1
sVd27zqxf
p1600
I2
sVdjkf9vc
p1601
I1
sVdgfk19m
p1602
I1
sVdbbxwgg
p1603
I1
sVdpmqr6l
p1604
I1
sVdcee677
p1605
I2
sVd4hmxmd
p1606
I1
sVdg7sdsp
p1607
I1
sVd3jnzns
p1608
I1
sVdfls03u
p1609
I2
sVdp9wd30
p1610
I1
sVdgx9kia
p1611
I1
sVd4rqsds
p1612
I1
sVdqovmw1
p1613
I1
sVdgmwp1x
p1614
I4
sVczkcwdq
p1615
I1
sVczshuxv
p1616
I1
sVdomnrcv
p1617
I3
sVdggo2f3
p1618
I3
sVdiqdigo
p1619
I3
sVdfieila
p1620
I2
sVdhxuv2l
p1621
I2
sVdomc0nz
p1622
I1
sVd2m39el
p1623
I1
sVdn19zr7
p1624
I12
sVd1b94ni
p1625
I1
sVd0797sn
p1626
I1
sVd0tca7v
p1627
I3
sVdh6h5kx
p1628
I1
sVdnv3h8w
p1629
I1
sVd1asmjt
p1630
I1
sVcyyv9a3
p1631
I3
sVdk2qmor
p1632
I2
sVd3nnq46
p1633
I2
sVdk34y2t
p1634
I1
sVd6k5vpc
p1635
I2
sVd7948ey
p1636
I1
sVdnuc07n
p1637
I2
sVdpewhg7
p1638
I1
sVd3w339z
p1639
I1
sVd53mfjg
p1640
I1
sVdtjkt1v
p1641
I2
sVdoxf0ya
p1642
I1
sVdhrak0b
p1643
I2
sVdk9e4xe
p1644
I1
sVdkr68uw
p1645
I1
sVdgcd7cq
p1646
I5
sVdnc8tmz
p1647
I1
sVdr0sxrf
p1648
I2
sVda5w015
p1649
I2
sVd9l30um
p1650
I1
sVd606zxm
p1651
I2
sVdgn13xn
p1652
I2
sVdgmhcn9
p1653
I4
sVd330mp4
p1654
I1
sVdfaj777
p1655
I2
sVdqatsq4
p1656
I2
sVdhqt6oh
p1657
I1
sVd5muaky
p1658
I1
sVd1408a3
p1659
I1
sVd07ivmt
p1660
I1
sVd3eg9a0
p1661
I1
sVdrhivyk
p1662
I2
sVdhkkya9
p1663
I3
sVd8ml8nl
p1664
I1
sVd6k2a5o
p1665
I1
sVdpraoq0
p1666
I2
sVdgrwd9c
p1667
I1
sVd8w7gvm
p1668
I1
sVczff5g7
p1669
I1
sVdeod6kf
p1670
I1
sVdrjamzs
p1671
I5
sVdkolscm
p1672
I1
sVdaplm1i
p1673
I1
sVd7soctk
p1674
I1
sVd45bq4i
p1675
I1
sVd1ij9gs
p1676
I1
sVd9qelzo
p1677
I1
sVd9jq07x
p1678
I1
sVdfbfudo
p1679
I1
sVdempbhr
p1680
I1
sVdhykbtg
p1681
I5
sVd3s0jr6
p1682
I1
sVd31g8g7
p1683
I1
sVdcsddsq
p1684
I4
sVcyuuk0l
p1685
I1
sVdjmsf8j
p1686
I1
sVd0hcven
p1687
I1
sVd4rr0g8
p1688
I1
sVditjknb
p1689
I1
sVded1pgv
p1690
I1
sVdai9ed6
p1691
I1
sVd0fsvdh
p1692
I1
sVdh5n4wq
p1693
I1
sVde9q2l9
p1694
I5
sVdceg350
p1695
I9
sVdazokz9
p1696
I3
sVd16wpeh
p1697
I2
sVd3hkowc
p1698
I1
sVd2q5b2k
p1699
I1
sVdge5h9o
p1700
I1
sVczmfrw4
p1701
I1
sVdt2uqdw
p1702
I1
sVddej049
p1703
I2
sVd13fpe4
p1704
I1
sVd556rgl
p1705
I1
sVdmv8wq4
p1706
I1
sVd2ykqjm
p1707
I1
sVd6lk0l4
p1708
I1
sVdnjsud0
p1709
I1
sVd70wcb6
p1710
I1
sVdbftsvw
p1711
I2
sVdp1ddrm
p1712
I1
sVdfaqbas
p1713
I3
sVdh6omj7
p1714
I2
sVdbq5nd5
p1715
I3
sVd58vvzq
p1716
I1
sVdr6vqz3
p1717
I2
sVczk59h4
p1718
I1
sVde3ik4n
p1719
I1
sVd4iliff
p1720
I1
sVcyneiyi
p1721
I3
sVd1ghmca
p1722
I1
sVdpvpat3
p1723
I3
sVdftia6n
p1724
I1
sVdfb07l9
p1725
I1
sVd8v90z2
p1726
I1
sVddfqbgf
p1727
I1
sVd5ekwdb
p1728
I1
sVdnu7nbh
p1729
I2
sVd72mqkc
p1730
I2
sVd59hwg6
p1731
I1
sVddlzask
p1732
I1
sVd1dy98m
p1733
I1
sVdf525xm
p1734
I1
sVd2d9qsa
p1735
I1
sVd4ekzde
p1736
I1
sVd7n3myx
p1737
I1
sVd0kj93o
p1738
I1
sVdfyn8eb
p1739
I1
sVde7whdb
p1740
I1
sVcz0obj5
p1741
I3
sVd0qxq5x
p1742
I1
sVdf40i5u
p1743
I1
sVdgpeuts
p1744
I1
sVd6xcfzt
p1745
I2
sVdf63frx
p1746
I1
sVdhvh3de
p1747
I1
sVd1mdlhq
p1748
I1
sVds8au6d
p1749
I2
sVd5cv9hf
p1750
I1
sVd5ybxcy
p1751
I3
sVcyiv5oh
p1752
I2
sVd2fx0q9
p1753
I3
sVdmh8wxd
p1754
I1
sVd64fzeo
p1755
I2
sVdblnzvq
p1756
I8
sVcyo7dcc
p1757
I1
sVcz8dscr
p1758
I1
sVd5yctmk
p1759
I1
sVd0jiqjz
p1760
I1
sVd9jnpyb
p1761
I2
sVd810f4b
p1762
I1
sVd8ku8wy
p1763
I1
sVdbsr5nb
p1764
I2
sVdrjc1bu
p1765
I1
sVcz583mp
p1766
I1
sVdp6gsfe
p1767
I1
sVd5v039g
p1768
I1
sVd9f07rc
p1769
I1
sVd9uxlsu
p1770
I1
sVd2xprjc
p1771
I1
sVdcc8j5o
p1772
I1
sVdbxxf05
p1773
I1
sVdgzm7cv
p1774
I1
sVdn21hhp
p1775
I2
sVdcvi7aa
p1776
I3
sVd2w9c6c
p1777
I1
sVddulfog
p1778
I3
sVcz4x3jq
p1779
I2
sVdrjs1ew
p1780
I1
sVd7o3ur6
p1781
I1
sVdqbckfr
p1782
I1
sVdrd61yq
p1783
I1
sVd5vig0w
p1784
I2
sVdjw9g3u
p1785
I1
sVdrzklpj
p1786
I1
sVd0fscz0
p1787
I1
sVdezxkva
p1788
I1
sVdjeyi1z
p1789
I2
sVdc3twv5
p1790
I1
sVdpzaemw
p1791
I1
sVddaq481
p1792
I1
sVdk8alws
p1793
I8
sVdkaran3
p1794
I1
sVd56faw8
p1795
I1
sVdncuqg7
p1796
I1
sVdhkn0mo
p1797
I1
sVdjalvhx
p1798
I1
sVd4muakr
p1799
I1
sVdc4gpcr
p1800
I1
sVcymp7fn
p1801
I1
sVdcxt91a
p1802
I1
sVd7bky2i
p1803
I5
sVdortnia
p1804
I1
sVd5cop7i
p1805
I5
sVd1fd2cb
p1806
I1
sVd3kxr99
p1807
I1
sVcz0w453
p1808
I1
sVdda6sfy
p1809
I2
sVdhg5pib
p1810
I2
sVde4moza
p1811
I3
sVdomucd7
p1812
I1
sVdfx0xbj
p1813
I1
sVdheg071
p1814
I1
sVd469t3g
p1815
I1
sVd47mbi7
p1816
I2
sVd43fm1s
p1817
I1
sVdcmlhww
p1818
I1
sVdhos9sn
p1819
I1
sVd626l9n
p1820
I2
sVdfgsvb4
p1821
I3
sVdg97r0o
p1822
I3
sVd1amij5
p1823
I1
sVdcdbjfh
p1824
I1
sVdj28kgo
p1825
I4
sVd5e70qo
p1826
I2
sVdfh2k28
p1827
I12
sVd77rtek
p1828
I1
sVd3f3hbu
p1829
I5
sVd0m6paw
p1830
I1
sVd113fzw
p1831
I1
sVdmepdsi
p1832
I2
sVdj8iu6g
p1833
I1
sVdipw9fm
p1834
I2
sVdqij8oc
p1835
I1
sVdbnaw3y
p1836
I2
sVdg0cgf6
p1837
I1
sVdezt9xz
p1838
I1
sVdprro1n
p1839
I2
sVdbg7m7z
p1840
I1
sVd4m7fxp
p1841
I2
sVdclm2tq
p1842
I4
sVd8etb90
p1843
I1
sVcz4srt9
p1844
I2
sVdakckrn
p1845
I1
sVd71mtcc
p1846
I1
sVd79gu9o
p1847
I1
sVdeh48c1
p1848
I1
sVd5n8z41
p1849
I1
sVdief6l7
p1850
I2
sVdiqe1ph
p1851
I1
sVdp5p2jy
p1852
I1
sVddr79ae
p1853
I1
sVdcvfymt
p1854
I6
sVd7m9se7
p1855
I3
sVd7b56xq
p1856
I1
sVd8zi1xk
p1857
I2
sVddpfoy0
p1858
I1
sVda8w9cb
p1859
I5
sVdelsaei
p1860
I1
sVdfvkf72
p1861
I1
sVdrdh24c
p1862
I1
sVdf39a1j
p1863
I1
sVd7esskd
p1864
I1
sVdexqcdy
p1865
I2
sVdhbghri
p1866
I2
sVds9vxpe
p1867
I3
sVcykl8a6
p1868
I7
sVdk407ce
p1869
I4
sVdn8x4rq
p1870
I3
sVddx00op
p1871
I1
sVd03938o
p1872
I5
sVd9mqhqn
p1873
I2
sVdmilklc
p1874
I2
sVdshsqta
p1875
I3
sVdrrhaz5
p1876
I1
sVdcgi51n
p1877
I2
sVdg7zans
p1878
I2
sVd0s1gu7
p1879
I7
sVdkcscv8
p1880
I1
sVd5p22s1
p1881
I1
sVdag1o64
p1882
I5
sVdfvuhig
p1883
I1
sVd8fa1lw
p1884
I1
sVdqzkmbe
p1885
I1
sVd2r1rqd
p1886
I1
sVcz4cjxg
p1887
I3
sVdf6idef
p1888
I1
sVd5jdm85
p1889
I1
sVcyqhpvm
p1890
I1
sVd1k38xr
p1891
I1
sVd46dnuu
p1892
I5
sVdegq1or
p1893
I1
sVdf1vh1d
p1894
I2
sVdgrwhy5
p1895
I1
sVd8jihw3
p1896
I1
sVddif02h
p1897
I1
sVd6jyr5d
p1898
I1
sVd87nlio
p1899
I1
sVdawg551
p1900
I7
sVd04qtq1
p1901
I1
sVd68llvp
p1902
I1
sVd9ziray
p1903
I4
sVd091ecz
p1904
I1
sVdoxfl6b
p1905
I3
sVd47a6ou
p1906
I1
sVdedvhop
p1907
I1
sVdaxg12f
p1908
I2
sVdmq94i1
p1909
I3
sVdbkrdmi
p1910
I1
sVddt0z1t
p1911
I3
sVd797l5d
p1912
I1
sVde7bin8
p1913
I1
sVd9mnhvs
p1914
I9
sVdanun9u
p1915
I1
sVdr55qwk
p1916
I3
sVd4cs1zz
p1917
I1
sVd4x6x9c
p1918
I1
sVd2j5x8i
p1919
I2
sVdbumxvw
p1920
I1
sVdb4u8zg
p1921
I1
sVd8i0025
p1922
I1
sVdg13xw5
p1923
I1
sVcz7loq6
p1924
I1
sVd7qvg25
p1925
I2
sVd2l8gch
p1926
I1
sVdbgwqvs
p1927
I2
sVczoxeya
p1928
I1
sVdegczb5
p1929
I1
sVd3zg1a3
p1930
I1
sVde7qs1l
p1931
I1
sVdfrhv8x
p1932
I1
sVd8mxtvd
p1933
I1
sVdgguz50
p1934
I2
sVdhfy5yz
p1935
I1
sVdfwld6y
p1936
I2
sVdooaxq6
p1937
I1
sVd1u3su0
p1938
I1
sVdrnsdj1
p1939
I1
sVd0558zs
p1940
I1
sVd0dngtd
p1941
I1
sVd0hek48
p1942
I10
sVd3cfx3l
p1943
I5
sVde4i7du
p1944
I1
sVdtd2hu1
p1945
I1
sVdjxxpri
p1946
I1
sVdspfwp5
p1947
I1
sVcypydc5
p1948
I1
sVcyye0cj
p1949
I2
sVdb4wqmt
p1950
I1
sVdarrj2g
p1951
I1
sVcyw86f9
p1952
I1
sVd1ymup4
p1953
I1
sVdpp39tk
p1954
I3
sVdaobx04
p1955
I1
sVd7ma52e
p1956
I1
sVd2413bw
p1957
I1
sVd60q4hn
p1958
I4
sVdft4627
p1959
I2
sVd4h7kg0
p1960
I1
sVcyj9iln
p1961
I1
sVdk15anf
p1962
I4
sVdicx29r
p1963
I2
sVda0q80e
p1964
I2
sVd6ehyh4
p1965
I1
sVdf7y8re
p1966
I1
sVdq3gnep
p1967
I1
sVd2h3r7g
p1968
I1
sVd47adjh
p1969
I3
sVdti33td
p1970
I1
sVdptj3mz
p1971
I1
sVd6x9qp2
p1972
I1
sVd17zvco
p1973
I2
sVdf3c1k8
p1974
I2
sVd7irhe3
p1975
I1
sVczw9686
p1976
I2
sVd3xpr3r
p1977
I1
sVczqmnue
p1978
I1
sVdgo0zjp
p1979
I1
sVdpgmxy9
p1980
I1
sVd1qpmv8
p1981
I1
sVdh9w8hc
p1982
I1
sVd4x7j9u
p1983
I1
sVdkldp2x
p1984
I1
sVcyy2ocy
p1985
I2
sVcziejen
p1986
I1
sVdfic87t
p1987
I1
sVd8hi2h8
p1988
I1
sVcz7rp7q
p1989
I1
sVd4hu28w
p1990
I1
sVd3mphsh
p1991
I5
sVdoj142z
p1992
I1
sVdnfk83v
p1993
I2
sVdjblmg1
p1994
I1
sVd1ju2nb
p1995
I2
sVd2j6rmu
p1996
I3
sVd4eks2t
p1997
I1
sVd4m6gju
p1998
I1
sVdc9yvvo
p1999
I3
sVd46f3nk
p2000
I9
sVd6wn4ml
p2001
I1
sVd7c7zqm
p2002
I2
sVdqp399j
p2003
I2
sVdidzlk5
p2004
I4
sVdmsrhzb
p2005
I1
sVdc12pdl
p2006
I1
sVdhyp2om
p2007
I2
sVdd9609j
p2008
I1
sVdp5979g
p2009
I1
sVdp6rjxp
p2010
I1
sVd5bmu5j
p2011
I4
sVdpu8h96
p2012
I1
sVdcrvk4z
p2013
I1
sVd5vov38
p2014
I1
sVddwwmnx
p2015
I1
sVdgi4vgz
p2016
I2
sVd1u2vsj
p2017
I2
sVczxfd9a
p2018
I2
sVdg75is1
p2019
I2
sVdj5iqet
p2020
I2
sVdcjxoef
p2021
I1
sVd39umeu
p2022
I1
sVdc3m4i1
p2023
I1
sVdrkqvwh
p2024
I1
sVd8u2pvy
p2025
I1
sVd25qjxr
p2026
I1
sVd2cse3f
p2027
I3
sVcz2i089
p2028
I1
sVd8nowo6
p2029
I3
sVdgcztxd
p2030
I2
sVd3ye97q
p2031
I1
sVd1tzzuu
p2032
I1
sVdf3iyta
p2033
I1
sVd13fr9x
p2034
I1
sVdbh6uag
p2035
I3
sVd0p6v9y
p2036
I1
sVd0rrn8w
p2037
I1
sVd82b61d
p2038
I11
sVd9pvqmv
p2039
I1
sVd5x1xx8
p2040
I1
sVd3fyjs3
p2041
I1
sVdd6pu5v
p2042
I1
sVdag6zee
p2043
I1
sVczc3jyi
p2044
I1
sVdg6qq57
p2045
I1
sVd4rvabd
p2046
I1
sVdafwfmg
p2047
I2
sVd9rfafi
p2048
I2
sVdev100z
p2049
I1
sVde06pxh
p2050
I1
sVd3cbqae
p2051
I2
sVczffigw
p2052
I1
sVd6naqp6
p2053
I1
sVdag0cp9
p2054
I1
sVczid9wi
p2055
I3
sVdoykr5r
p2056
I1
sVcz57gsu
p2057
I1
sVczmo8tl
p2058
I4
sVdde7rlf
p2059
I2
sVdc93v1q
p2060
I2
sVdopwyqr
p2061
I1
sVd2870p5
p2062
I2
sVdjf8jv1
p2063
I2
sVdppn5nx
p2064
I1
sVdjwtpwd
p2065
I1
sVdjtqcl7
p2066
I1
sVddedjb3
p2067
I1
sVd2jsddi
p2068
I3
sVdhrbwc5
p2069
I2
sVd83qhu5
p2070
I1
sVczs9k61
p2071
I1
sVdfrlebk
p2072
I1
sVdivs4q3
p2073
I1
sVd1selmc
p2074
I1
sVdi5vbd6
p2075
I1
sVdirnwev
p2076
I6
sVdglvo6j
p2077
I1
sVdaeyuq8
p2078
I1
sVdk10cvx
p2079
I1
sVczy64tb
p2080
I1
sVd5vh25b
p2081
I1
sVd16t6g3
p2082
I1
sVd0ui6kn
p2083
I1
sVd4gy5dc
p2084
I3
sVd3dt301
p2085
I1
sVdb3v8hl
p2086
I1
sVdsx642v
p2087
I1
sVdoiv5ak
p2088
I1
sVdd31in3
p2089
I7
sVdi2fzn0
p2090
I1
sVd3barqb
p2091
I1
sVdmkirhi
p2092
I2
sVdb8vxwj
p2093
I1
sVcyq8e4k
p2094
I2
sVdg71eks
p2095
I6
sVd9cjjiu
p2096
I2
sVdr9kc4j
p2097
I1
sVdcopnv0
p2098
I2
sVczi49ys
p2099
I1
sVdppfa2k
p2100
I1
sVdcse41b
p2101
I6
sVd231sn0
p2102
I1
sVdcpwk1y
p2103
I2
sVdo1skf2
p2104
I1
sVcyv1id9
p2105
I2
sVd4olgmh
p2106
I1
sVdjmno2j
p2107
I1
sVdekw3v3
p2108
I1
sVdtigxy6
p2109
I1
sVdioerfq
p2110
I1
sVde9cw50
p2111
I1
sVdeuext6
p2112
I3
sVdpw7h2m
p2113
I3
sVdo64grd
p2114
I3
sVd2anjoq
p2115
I1
sVcz37j1h
p2116
I1
sVd0i05zb
p2117
I1
sVdiu7san
p2118
I1
sVdn8j27z
p2119
I1
sVcz81ll0
p2120
I1
sVddhn1hn
p2121
I2
sVdgsbbgy
p2122
I1
sVderohgd
p2123
I7
sVdqpczl7
p2124
I1
sVdg29xlv
p2125
I1
sVdkrxnnf
p2126
I2
sVczfs72w
p2127
I1
sVdn766pv
p2128
I1
sVd918usk
p2129
I1
sVddhauaz
p2130
I1
sVczohdd0
p2131
I1
sVd3mllhl
p2132
I2
sVd0e95mo
p2133
I2
sVdofmsd6
p2134
I4
sVd9cqhlb
p2135
I2
sVd2a9yno
p2136
I1
sVdb00fq8
p2137
I1
sVdeldqlx
p2138
I1
sVd5a4n4y
p2139
I1
sVdh6tx8j
p2140
I1
sVdoxe93u
p2141
I1
sVd26k3tt
p2142
I2
sVd4zj2ws
p2143
I1
sVd0gxwrq
p2144
I1
sVd93o2zt
p2145
I2
sVddi2068
p2146
I1
sVdevk7rg
p2147
I1
sVdgqf9tk
p2148
I2
sVdib0thr
p2149
I1
sVd6bq22t
p2150
I2
sVd2tgktz
p2151
I1
sVcztdt6t
p2152
I1
sVd4xbe79
p2153
I1
sVdjdadt7
p2154
I2
sVd4vf58n
p2155
I2
sVd5xjalw
p2156
I2
sVdd6snd8
p2157
I1
sVd0xqwbv
p2158
I1
sVdqbdhnj
p2159
I1
sVdbgd0yu
p2160
I1
sVdfbncz6
p2161
I5
sVdbo7p51
p2162
I1
sVdinlyhr
p2163
I1
sVd7tepwx
p2164
I1
sVd1nk2ai
p2165
I1
sVdmilmn9
p2166
I2
sVdjye5dd
p2167
I1
sVdbu2nd7
p2168
I1
sVdhyki9q
p2169
I1
sVdcqekas
p2170
I1
sVd9spk7q
p2171
I1
sVddcpfvi
p2172
I2
sVd1fqhw6
p2173
I1
sVd0h8zjp
p2174
I1
sVd1dthys
p2175
I1
sVd5sruxp
p2176
I1
sVdh7063k
p2177
I1
sVd38vw1f
p2178
I2
sVd3z6v8g
p2179
I2
sVd8htqy1
p2180
I1
sVdszat3u
p2181
I1
sVd2jca1z
p2182
I1
sVdolgfsk
p2183
I1
sVcz8luq4
p2184
I2
sVd5vpx4e
p2185
I1
sVd3g7un9
p2186
I1
sVddqqz5z
p2187
I2
sVdf6jppg
p2188
I3
sVd19foyg
p2189
I1
sVd1axifw
p2190
I1
sVdqbyx3w
p2191
I1
sVdh8lx86
p2192
I3
sVdrok4uo
p2193
I3
sVd4mrs7n
p2194
I1
sVd73b7ch
p2195
I4
sVd9sfrew
p2196
I1
sVd78twdd
p2197
I2
sVdej0gxo
p2198
I1
sVd6wp0lu
p2199
I1
sVddh6fjd
p2200
I1
sVdh9ekz7
p2201
I1
sVd16zgid
p2202
I1
sVd1opnzx
p2203
I2
sVd88zt1v
p2204
I1
sVcynu7f5
p2205
I2
sVd2a3rn6
p2206
I1
sVd6yoch5
p2207
I1
sVdplzgs7
p2208
I1
sVdiythhv
p2209
I1
sVdesg0hx
p2210
I1
sVcyoimfm
p2211
I1
sVcys40xw
p2212
I7
sVdjzm3yh
p2213
I1
sVd00jzgf
p2214
I1
sVdc44s06
p2215
I1
sVd0f8h28
p2216
I2
sVdnzbexv
p2217
I1
sVd1jsz7q
p2218
I1
sVd8n8s4q
p2219
I1
sVd3oc4k4
p2220
I1
sVdo6h10d
p2221
I1
sVd4oztkw
p2222
I1
sVd468hkv
p2223
I1
sVdd0wkhj
p2224
I1
sVdb1043s
p2225
I1
sVd2ux8dm
p2226
I1
sVdnazkze
p2227
I1
sVdfrbir1
p2228
I5
sVd4uqeec
p2229
I2
sVddmj5y7
p2230
I1
sVd07wyma
p2231
I5
sVd1b77gu
p2232
I1
sVdqd5n72
p2233
I3
sVd4eafb2
p2234
I2
sVdmt77ph
p2235
I3
sVd1brvls
p2236
I2
sVdqo5sri
p2237
I2
sVdcef7du
p2238
I2
sVdeh02tw
p2239
I1
sVd5l5ix1
p2240
I4
sVd31qn4p
p2241
I1
sVdgo9vda
p2242
I2
sVdfe7hab
p2243
I3
sVd0yjrat
p2244
I1
sVddm44w3
p2245
I2
sVd90o356
p2246
I1
sVdgs5f24
p2247
I1
sVdftqm4b
p2248
I1
sVd1e95yl
p2249
I1
sVd7we2b6
p2250
I1
sVdid56lj
p2251
I2
sVd85apaj
p2252
I1
sVcz278sw
p2253
I1
sVd46726t
p2254
I2
sVdif1tvu
p2255
I1
sVd1cjfxw
p2256
I1
sVda2xx2v
p2257
I4
sVdnolr22
p2258
I1
sVd2ozkxj
p2259
I1
sVd6p88do
p2260
I1
sVdea4xye
p2261
I1
sVdb956a6
p2262
I1
sVdh06al9
p2263
I1
sVdrcq03v
p2264
I1
sVdcjnjci
p2265
I2
sVdfgcp8y
p2266
I1
sVd6f1qdv
p2267
I1
sVda0yoin
p2268
I1
sVddo6blu
p2269
I1
sVddlzwyc
p2270
I1
sVdbiq9c0
p2271
I4
sVdgnam10
p2272
I3
sVddgj265
p2273
I2
sVdoeprjp
p2274
I1
sVd65ppgn
p2275
I1
sVdd4r5xi
p2276
I1
sVdigcns6
p2277
I4
sVd3kg7b9
p2278
I1
sVd5xy992
p2279
I1
sVdkkxg4f
p2280
I1
sVcyk84q6
p2281
I5
sVdgmsdfn
p2282
I2
sVd5ceac5
p2283
I1
sVd6dvbxm
p2284
I4
sVdeczu2q
p2285
I1
sVdthis1q
p2286
I1
sVd7rqrjf
p2287
I1
sVd49ggky
p2288
I1
sVd0f5e3s
p2289
I1
sVd18vm92
p2290
I1
sVdoz297i
p2291
I10
sVdcup9dv
p2292
I3
sVd1iwos3
p2293
I1
sVdd7arji
p2294
I2
sVdfhrijm
p2295
I1
sVdtb6jx4
p2296
I1
sVddfarh9
p2297
I1
sVdjwux27
p2298
I2
sVd088w0m
p2299
I1
sVddjw94a
p2300
I1
sVdjg859e
p2301
I1
sVd89e2pq
p2302
I1
sVcz3glth
p2303
I1
sVd4rqs2b
p2304
I1
sVdoc69zt
p2305
I2
sVdg3fyy2
p2306
I1
sVd159ybx
p2307
I4
sVdbluccr
p2308
I1
sVde15glj
p2309
I2
sVd4yfag4
p2310
I1
sVd4yyi28
p2311
I1
sVdelsboq
p2312
I1
sVd0xze3l
p2313
I1
sVdk2stvn
p2314
I1
sVd8pu17r
p2315
I5
sVdbkmf40
p2316
I1
sVdba4o9p
p2317
I1
sVdopzgec
p2318
I1
sVd0p6uf3
p2319
I1
sVdas4spj
p2320
I1
sVdqd0pkl
p2321
I1
sVdohz2vg
p2322
I1
sVczlxs62
p2323
I1
sVczuflzq
p2324
I2
sVd8f3ymo
p2325
I2
sVd2y67ad
p2326
I2
sVd2dlbxp
p2327
I1
sVczt1jhw
p2328
I1
sVd5f8lxa
p2329
I10
sVd3s178q
p2330
I1
sVczgyp69
p2331
I1
sVdp2lbzz
p2332
I2
sVdghx1b5
p2333
I1
sVd0yn485
p2334
I1
sVd55e53h
p2335
I2
sVd8lorlk
p2336
I4
sVdmsgazp
p2337
I1
sVdprizcs
p2338
I1
sVd2j3j6n
p2339
I1
sVd46j0w7
p2340
I1
sVd4erpow
p2341
I1
sVdff2d0t
p2342
I1
sVd59b65z
p2343
I1
sVd9nypo6
p2344
I7
sVdd2ombp
p2345
I1
sVd4yg8f9
p2346
I1
sVdbcx1j6
p2347
I1
sVd3tgexl
p2348
I1
sVddhrd52
p2349
I2
sVdailhd4
p2350
I1
sVdflacgv
p2351
I1
sVd8miom0
p2352
I1
sVda0s04q
p2353
I1
sVd5hn70t
p2354
I1
sVdfo0i1f
p2355
I2
sVdffzbad
p2356
I2
sVd8rfbcb
p2357
I3
sVddnn8j4
p2358
I1
sVd072uvs
p2359
I1
sVd5shhek
p2360
I1
sVdmi2iyh
p2361
I1
sVdtai8dj
p2362
I1
sVdgflkaf
p2363
I1
sVd1hlnl5
p2364
I1
sVdn02b4w
p2365
I6
sVd44bxxr
p2366
I1
sVdk6s652
p2367
I1
sVdkkxjl1
p2368
I1
sVdfoys11
p2369
I1
sVdfbf7tv
p2370
I1
sVd3ga5qu
p2371
I1
sVd4c9o1q
p2372
I2
sVds6nr0l
p2373
I2
sVd6z65nw
p2374
I1
sVddnmk11
p2375
I1
sVczw25vf
p2376
I7
sVdbmeh0t
p2377
I1
sVd95k57z
p2378
I1
sVd3kwrcm
p2379
I1
sVd7h1hej
p2380
I1
sVdps0lpe
p2381
I1
sVd7z9aw2
p2382
I1
sVcz1hkxm
p2383
I1
sVd6xu480
p2384
I1
sVdcdsxrn
p2385
I4
sVd91djpk
p2386
I1
sVdr6q87g
p2387
I1
sVd0ofklu
p2388
I1
sVd16hyts
p2389
I3
sVdomkgzv
p2390
I1
sVd3ldi6w
p2391
I1
sVd8o02hw
p2392
I1
sVd21bv5u
p2393
I1
sVdcbdeqh
p2394
I2
sVdbtm67u
p2395
I3
sVd6ew456
p2396
I2
sVdp6ye3x
p2397
I2
sVd4cael7
p2398
I1
sVd2zo62t
p2399
I1
sVd18q24n
p2400
I1
sVdpb68w6
p2401
I2
sVd48ltc3
p2402
I1
sVd34eyza
p2403
I2
sVd4elnxy
p2404
I1
sVd85xvpd
p2405
I1
sVdj3eoni
p2406
I1
sVdavbw7j
p2407
I1
sVd4rr2dh
p2408
I2
sVd46q2o5
p2409
I1
sVdrl44ds
p2410
I1
sVd729auf
p2411
I1
sVd1xyzr3
p2412
I1
sVcz3r11x
p2413
I1
sVd3hfimq
p2414
I1
sVczvtvo7
p2415
I1
sVdkmklpa
p2416
I1
sVd6lm7ad
p2417
I1
sVczaayiu
p2418
I1
sVdip2d0f
p2419
I1
sVdahtjrv
p2420
I1
sVdgjwcmi
p2421
I2
sVd1usy2a
p2422
I2
sVd0qzq9v
p2423
I2
sVdauoxsr
p2424
I2
sVdc8bkdz
p2425
I4
sVdjzm5z8
p2426
I2
sVd2jfgfj
p2427
I2
sVd3ry0cj
p2428
I1
sVdnfx8st
p2429
I12
sVdil7zqh
p2430
I1
sVd3ab06y
p2431
I3
sVdgeykqf
p2432
I2
sVd0gdlpu
p2433
I3
sVd28lfw2
p2434
I1
sVdirmxx8
p2435
I1
sVdrw9f1x
p2436
I1
sVd7qmu5r
p2437
I11
sVdqplvjf
p2438
I1
sVdg3rdmx
p2439
I1
sVda3x8gu
p2440
I1
sVd2ghmie
p2441
I1
sVd1gsp46
p2442
I1
sVdn3lo13
p2443
I2
sVd8eui52
p2444
I1
sVdisnx2z
p2445
I1
sVd229mkp
p2446
I2
sVdev9wmr
p2447
I1
sVdbkix6v
p2448
I1
sVdhleqhl
p2449
I2
sVdd4v526
p2450
I1
sVdddpok1
p2451
I1
sVdgs9s1d
p2452
I1
sVd3p4438
p2453
I1
sVd9uf3xp
p2454
I1
sVd91alik
p2455
I2
sVdaqiep5
p2456
I1
sVddcwmcl
p2457
I1
sVdmsm7x3
p2458
I1
sVd5rhnks
p2459
I1
sVd8d76cp
p2460
I2
sVd5ho5ws
p2461
I6
sVdcpron9
p2462
I1
sVd53cc6a
p2463
I1
sVd09evyd
p2464
I2
sVd00h92y
p2465
I1
sVdoxa4q7
p2466
I1
sVd1d6k9g
p2467
I1
sVdfonomj
p2468
I1
sVd2yp55b
p2469
I1
sVd6m4u4f
p2470
I2
sVd2pvuk4
p2471
I1
sVdau2h9t
p2472
I1
sVcyk8h2v
p2473
I1
sVdciykj4
p2474
I1
sVdnd7jze
p2475
I2
sVdrhoeoc
p2476
I6
sVdki29u8
p2477
I1
sVdfh1bnc
p2478
I5
sVd4bxqyk
p2479
I2
sVdca584e
p2480
I1
sVdgmcin4
p2481
I1
sVdifzrw4
p2482
I1
sVd467wzy
p2483
I1
sVd00k203
p2484
I1
sVd2pjvns
p2485
I1
sVd4asfyk
p2486
I2
sVdovz675
p2487
I2
sVdft1alu
p2488
I1
sVdkjld4z
p2489
I1
sVdc1vk1j
p2490
I5
sVd4a83ug
p2491
I7
sVdfqhtac
p2492
I2
sVd9f5p25
p2493
I2
sVdsm27ny
p2494
I1
sVds9jy2f
p2495
I3
sVdiqdxhy
p2496
I1
sVdqff96q
p2497
I1
sVd8dbw25
p2498
I1
sVdauf381
p2499
I2
sVczkvlxt
p2500
I1
sVd4e0yi8
p2501
I2
sVdnfp9k2
p2502
I1
sVd2zxl8q
p2503
I1
sVd9bp5ik
p2504
I2
sVd035iwo
p2505
I1
sVd0h6vty
p2506
I4
sVd10xym1
p2507
I1
sVd6vq510
p2508
I4
sVdqy5yt6
p2509
I1
sVdb2pdlp
p2510
I1
sVcywbzfk
p2511
I3
sVdb7gvn3
p2512
I2
sVd5p1tqc
p2513
I2
sVd59riai
p2514
I4
sVdb2y4qn
p2515
I1
sVd2zo2pg
p2516
I1
sVdd1wk5e
p2517
I1
sVde3ctp6
p2518
I1
sVdhvowra
p2519
I5
sVdav3xiu
p2520
I2
sVddr7nme
p2521
I1
sVdbumgye
p2522
I2
sVdgm74ye
p2523
I1
sVd5n2cs0
p2524
I1
sVdeaekrv
p2525
I1
sVdi0exw2
p2526
I2
sVda2w4yr
p2527
I1
sVdi9yprp
p2528
I1
sVdppiq5o
p2529
I1
sVd918rsq
p2530
I2
sVdhnq6oi
p2531
I1
sVd2b863i
p2532
I1
sVd14ofu3
p2533
I2
sVd88fqzz
p2534
I2
sVdipmmnu
p2535
I1
sVd5ha9x5
p2536
I3
sVczf35oe
p2537
I3
sVdpqzjkv
p2538
I1
sVdahay8s
p2539
I2
sVd2xm2tx
p2540
I3
sVd9m4b07
p2541
I2
sVdfdmdoc
p2542
I2
sVd80jouw
p2543
I1
sVdo65tuu
p2544
I1
sVdr5e7k7
p2545
I3
sVd5hoqu7
p2546
I4
sVd4a1ujc
p2547
I1
sVdc9q9td
p2548
I1
sVdpi3ffh
p2549
I1
sVd1l26ec
p2550
I1
sVd0qb150
p2551
I7
sVd52tb9e
p2552
I1
sVd8hol6o
p2553
I7
sVd27t1cc
p2554
I3
sVddpn860
p2555
I2
sVd0m2lka
p2556
I3
sVd7wlycd
p2557
I1
sVd0vk41a
p2558
I1
sVdrs24xt
p2559
I2
sVdedvcqc
p2560
I1
sVdkvv54a
p2561
I1
sVcytxda7
p2562
I1
sVdsjrlvd
p2563
I1
sVdj8iooq
p2564
I1
sVd2u6gxo
p2565
I1
sVd0mwfso
p2566
I4
sVdabdas6
p2567
I1
sVd3g5fw8
p2568
I1
sVdc10e9v
p2569
I2
sVdg8ae2c
p2570
I6
sVdfyggxv
p2571
I1
sVdrs0zmj
p2572
I2
sVd74bz6w
p2573
I3
sVdfb57gc
p2574
I1
sVdck70e9
p2575
I3
sVdfos8q5
p2576
I3
sVdh7nb22
p2577
I1
sVd67t6yv
p2578
I4
sVdmrjhvc
p2579
I1
sVd64mw68
p2580
I1
sVd0r3mql
p2581
I2
sVdpvufg7
p2582
I1
sVdjozdl7
p2583
I1
sVd9h8uj3
p2584
I1
sVd8v3u3s
p2585
I1
sVdt6cbbh
p2586
I1
sVd6i9eof
p2587
I1
sVdenj2tx
p2588
I1
sVdskov6g
p2589
I4
sVdqujle8
p2590
I1
sVd7lrmd2
p2591
I1
sVdajr89w
p2592
I1
sVdp3ofxh
p2593
I1
sVdn0qv58
p2594
I1
sVcyqflzg
p2595
I1
sVdj4kgvk
p2596
I1
sVd4pxsl7
p2597
I1
sVdeybj38
p2598
I2
sVd4elcpx
p2599
I3
sVdbfziii
p2600
I1
sVd6f4651
p2601
I1
sVd2dkm09
p2602
I2
sVdraps5n
p2603
I2
sVdankbth
p2604
I1
sVd4wz3at
p2605
I1
sVdfto2j7
p2606
I2
sVd50fmul
p2607
I1
sVczqoo73
p2608
I1
sVd2dhxf3
p2609
I1
sVdbjclb8
p2610
I3
sVdtj40vy
p2611
I3
sVddpv21b
p2612
I2
sVd3dmz64
p2613
I3
sVdgbul1c
p2614
I1
sVd2bbsg9
p2615
I2
sVdmg2765
p2616
I2
sVdk6kybx
p2617
I2
sVdegtsk2
p2618
I2
sVdjlr8xj
p2619
I1
sVdc83fr3
p2620
I2
sVd78oweb
p2621
I1
sVdk2ws2k
p2622
I1
sVdg4b88t
p2623
I3
sVdpoqcc6
p2624
I1
sVdcqaiuv
p2625
I1
sVcz2sugx
p2626
I6
sVd8c2q5s
p2627
I1
sVd5tk4ej
p2628
I3
sVdd96s38
p2629
I1
sVcytyftf
p2630
I1
sVd468p01
p2631
I10
sVddr6qa1
p2632
I1
sVd5s74k1
p2633
I1
sVd01p2zj
p2634
I1
sVdiqdlw2
p2635
I1
sVdrrkz58
p2636
I2
sVdn3vayn
p2637
I2
sVcztntd2
p2638
I1
sVd4sv8x5
p2639
I2
sVdc6an1v
p2640
I2
sVdkaw8b2
p2641
I1
sVcz8ef71
p2642
I1
sVddudtt6
p2643
I10
sVdbztss1
p2644
I1
sVd1rp5wt
p2645
I1
sVd39v9rd
p2646
I3
sVdjjeo37
p2647
I1
sVd9i5twa
p2648
I1
sVdatulw8
p2649
I2
sVdf5hvfk
p2650
I1
sVdnm5jhj
p2651
I6
sVd7d0e8s
p2652
I1
sVd0jdeug
p2653
I1
sVd8bxi3d
p2654
I1
sVczkk1zb
p2655
I1
sVd77hmoj
p2656
I1
sVd2tlhsq
p2657
I2
sVdt3s73d
p2658
I1
sVdosuwb3
p2659
I2
sVd924a1i
p2660
I2
sVcymn7mj
p2661
I3
sVd0i3kxg
p2662
I1
sVddgbpn7
p2663
I1
sVdd9g4h8
p2664
I1
sVdaj36h5
p2665
I1
sVd9uo09f
p2666
I1
sVdhp8chb
p2667
I1
sVdpmu5sn
p2668
I1
sVdfbj99b
p2669
I1
sVdekio0k
p2670
I1
sVddzn7nr
p2671
I1
sVd8xuy8p
p2672
I1
sVd1hleyh
p2673
I4
sVdhwhwln
p2674
I1
sVdkgp1bd
p2675
I3
sVde6wqcc
p2676
I1
sVd19530g
p2677
I1
sVdd8bbje
p2678
I1
sVda5wa1q
p2679
I1
sVd9ou086
p2680
I5
sVcysn92s
p2681
I1
sVdbyy642
p2682
I1
sVd09dexm
p2683
I1
sVdahywkf
p2684
I1
sVdgpezdc
p2685
I1
sVdcpkk8j
p2686
I3
sVd7hyfbr
p2687
I1
sVdhchs6e
p2688
I1
sVdp678jp
p2689
I6
sVd1d5ds7
p2690
I3
sVdjzzwty
p2691
I1
sVcynyom6
p2692
I1
sVd19qyzq
p2693
I2
sVd6p2sho
p2694
I1
sVd24vcxf
p2695
I1
sVd7rddl2
p2696
I2
sVdgs2gke
p2697
I2
sVd44xbkq
p2698
I1
sVdnfewfs
p2699
I1
sVd80j8li
p2700
I1
sVd2hh66j
p2701
I1
sVdhv6xza
p2702
I1
sVde9i21d
p2703
I1
sVd2h5y79
p2704
I1
sVdsspbd5
p2705
I1
sVd7yss4n
p2706
I1
sVdfljerj
p2707
I1
sVczbep5e
p2708
I1
sVdeinz6s
p2709
I2
sVd3s830b
p2710
I7
sVdd4lw2c
p2711
I1
sVd2c0isl
p2712
I1
sVdp6gjsd
p2713
I1
sVdkpelx0
p2714
I1
sVdix9zdm
p2715
I1
sVdg5afpe
p2716
I1
sVd1k2rpr
p2717
I3
sVda18p2u
p2718
I1
sVdpw7mnm
p2719
I5
sVdp4tu39
p2720
I1
sVcyqi215
p2721
I1
sVdbixlsb
p2722
I1
sVdecmzi4
p2723
I1
sVd8fswgf
p2724
I1
sVd7kj1gy
p2725
I1
sVdihc0v1
p2726
I1
sVdo0883o
p2727
I2
sVdhjv8y3
p2728
I1
sVd3z8s7x
p2729
I1
sVdkg9t7b
p2730
I2
sVdjfmnq6
p2731
I1
sVcz2dw6y
p2732
I2
sVdaok3yw
p2733
I10
sVdbag7r9
p2734
I1
sVdmw9msc
p2735
I1
sVdfq3kdn
p2736
I4
sVd2p5xec
p2737
I3
sVd4p61th
p2738
I1
sVdbfwkvv
p2739
I1
sVd36oa1c
p2740
I1
sVddha6k2
p2741
I2
sVd4gdq5z
p2742
I1
sVdf77m0x
p2743
I1
sVdestcr0
p2744
I1
sVdrkzuv8
p2745
I1
sVd61vz72
p2746
I2
sVcypsej0
p2747
I2
sVd69q9x7
p2748
I1
sVdqpt2zf
p2749
I1
sVdq1h9pg
p2750
I2
sVd3xl4k5
p2751
I1
sVdtc7wv4
p2752
I1
sVdege2cf
p2753
I1
sVdn7odpw
p2754
I1
sVdr38p6a
p2755
I1
sVdfz7y0l
p2756
I1
sVdd74tv2
p2757
I5
sVdrfum5c
p2758
I1
sVd92284d
p2759
I1
sVd0umqlr
p2760
I2
sVd95fz9i
p2761
I1
sVddo0dj3
p2762
I1
sVd06brkr
p2763
I1
sVdduopok
p2764
I1
sVdqmnp3d
p2765
I1
sVd1ix53r
p2766
I1
sVdbo5shv
p2767
I1
sVdmp3kvd
p2768
I8
sVdjxas7i
p2769
I1
sVdag3sss
p2770
I1
sVdsjtldt
p2771
I1
sVcyo90lv
p2772
I1
sVdhcaqe3
p2773
I1
sVdeqm4xz
p2774
I1
sVdi81o8e
p2775
I1
sVdk4bdyt
p2776
I2
sVd554esy
p2777
I1
sVdqs40vx
p2778
I11
sVdfqhiik
p2779
I2
sVd6bsr0q
p2780
I1
sVdbapx9b
p2781
I2
sVd8uww6z
p2782
I2
sVdetbv5z
p2783
I1
sVd1zftvl
p2784
I1
sVdetmapm
p2785
I3
sVd8dqsya
p2786
I1
sVdh3ytve
p2787
I1
sVdgvs00l
p2788
I1
sVdd2q1cb
p2789
I1
sVd792rxr
p2790
I1
sVdgxcy6s
p2791
I1
sVdfoo1rt
p2792
I6
sVds3bnjy
p2793
I1
sVdaqk8ji
p2794
I4
sVcz5vh0s
p2795
I2
sVd1zu84q
p2796
I1
sVd6aiv4d
p2797
I2
sVdh0iocw
p2798
I2
sVdpvwh6f
p2799
I1
sVdb4qgfn
p2800
I1
sVdobwle0
p2801
I1
sVd8y9leq
p2802
I3
sVdflie00
p2803
I4
sVdkbgctw
p2804
I2
sVdjz0t8v
p2805
I1
sVd1dnj7m
p2806
I3
sVczhygms
p2807
I1
sVdh6cqqv
p2808
I2
sVd6lnu4s
p2809
I1
sVdd0zmgu
p2810
I1
sVd0bh4ca
p2811
I1
sVd32qw8g
p2812
I1
sVdc4b2uy
p2813
I3
sVd479eud
p2814
I1
sVdoob38l
p2815
I1
sVddqp370
p2816
I1
sVd79tipy
p2817
I1
sVddyigv0
p2818
I1
sVd6pr835
p2819
I1
sVdbsbefv
p2820
I2
sVd97p400
p2821
I1
sVczcxkfa
p2822
I1
sVd2wu9fe
p2823
I1
sVd4jl1dh
p2824
I1
sVd7w48ru
p2825
I1
sVd2s92zb
p2826
I1
sVdad39rz
p2827
I1
sVcymt1pt
p2828
I4
sVdao0odx
p2829
I1
sVcyvv0io
p2830
I1
sVd4p36h3
p2831
I2
sVd2qkqq7
p2832
I1
sVdhruz7l
p2833
I2
sVdrje8bn
p2834
I1
sVczg1g78
p2835
I1
sVd34d5zi
p2836
I1
sVdj6h672
p2837
I2
sVd1he1mb
p2838
I1
sVdh8oews
p2839
I1
sVcypsvq3
p2840
I5
sVdaa4tkm
p2841
I1
sVd469998
p2842
I2
sVdfnqxl5
p2843
I3
sVd8vsjcm
p2844
I1
sVcz3e9gs
p2845
I2
sVdcphejm
p2846
I1
sVdazn3kc
p2847
I1
sVdqo5k9g
p2848
I1
sVd2fu5o2
p2849
I1
sVdhcpnt9
p2850
I1
sVd2u8kga
p2851
I1
sVd35foe1
p2852
I1
sVd6pgky9
p2853
I1
sVd4h0qzv
p2854
I1
sVd0umo67
p2855
I1
sVdem0z7b
p2856
I1
sVdrptk8o
p2857
I1
sVd0t8qd5
p2858
I1
sVdehzygg
p2859
I1
sVddi6dg2
p2860
I1
sVd6h0m5r
p2861
I1
sVdcjbsw4
p2862
I1
sVdh847e2
p2863
I1
sVdfu3890
p2864
I1
sVd0y5t9u
p2865
I1
sVdesh2si
p2866
I1
sVd3g72j6
p2867
I1
sVd9fqao2
p2868
I3
sVdfvkt12
p2869
I1
sVdc0tofc
p2870
I12
sVd0rhdyk
p2871
I2
sVczfczpl
p2872
I1
sVdn0wa57
p2873
I2
sVd0nwrqw
p2874
I1
sVdmm6axm
p2875
I2
sVd2pas7p
p2876
I1
sVdegw9hm
p2877
I1
sVd8w1pvf
p2878
I1
sVdog3p5o
p2879
I1
sVd17a1m0
p2880
I1
sVdfk313b
p2881
I1
sVd5casyy
p2882
I1
sVd4ugclv
p2883
I1
sVczo8xxy
p2884
I1
sVd2escls
p2885
I11
sVdcdqwvc
p2886
I1
sVdp71myj
p2887
I1
sVdcq5717
p2888
I3
sVdisbh07
p2889
I2
sVdffdogu
p2890
I2
sVd8pa2om
p2891
I1
sVdoj72zb
p2892
I1
sVd46ojbv
p2893
I1
sVd005vro
p2894
I2
sVd7y8cpd
p2895
I3
sVdh97907
p2896
I1
sVdbmnd8y
p2897
I1
sVd6ull83
p2898
I3
sVdbzdvmn
p2899
I2
sVd80akn0
p2900
I1
sVdkwen9p
p2901
I1
sVda61j0l
p2902
I1
sVdq5ldc5
p2903
I3
sVdd6me3p
p2904
I1
sVdg5arsl
p2905
I1
sVczm91h1
p2906
I1
sVd0j4vlk
p2907
I1
sVd4gpigu
p2908
I1
sVdcxsucv
p2909
I1
sVdbx8fi2
p2910
I2
sVczovo1s
p2911
I3
sVdo7cqgq
p2912
I2
sVd171ktb
p2913
I1
sVd6lzvks
p2914
I6
sVdpsjo45
p2915
I1
sVd1g3sx0
p2916
I1
sVd67qbg7
p2917
I1
sVdd7mn8j
p2918
I1
sVd7udl95
p2919
I1
sVd1r2xmx
p2920
I1
sVczdylhh
p2921
I1
sVd5nb83o
p2922
I5
sVd8swo3l
p2923
I2
sVddtdpo2
p2924
I1
sVdapjxrm
p2925
I3
sVddxq405
p2926
I2
sVdhfx7ow
p2927
I1
sVdhcaa97
p2928
I1
sVdmf6nn7
p2929
I1
sVd8dkiun
p2930
I1
sVd8vcoze
p2931
I1
sVdb0dv4y
p2932
I1
sVdkywljc
p2933
I1
sVd40u9zj
p2934
I1
sVdhnv7rp
p2935
I2
sVds6w0b6
p2936
I6
sVd2yy6sa
p2937
I1
sVdf64nd1
p2938
I1
sVd1fwvye
p2939
I1
sVd5i9235
p2940
I2
sVdkwf71r
p2941
I1
sVdre4w4t
p2942
I1
sVd9yv5mx
p2943
I1
sVdofjwnq
p2944
I1
sVdrji98m
p2945
I2
sVdbgfzgw
p2946
I1
sVddowmgy
p2947
I1
sVd3p38uv
p2948
I2
sVd6zle0k
p2949
I2
sVdgk95rw
p2950
I3
sVdo24fr4
p2951
I1
sVd4dz9bm
p2952
I2
sVdq3ya4a
p2953
I1
sVdgutckd
p2954
I1
sVd917v8x
p2955
I1
sVdi8mm5s
p2956
I1
sVd2zhhb9
p2957
I4
sVdei6pf6
p2958
I1
sVdopwu44
p2959
I2
sVdg73ue5
p2960
I3
sVddwhq4t
p2961
I2
sVdtb5s9c
p2962
I1
sVd4zj8la
p2963
I1
sVd59cwfb
p2964
I1
sVdgq8qj0
p2965
I1
sVd3s5y4i
p2966
I1
sVd0u6ltg
p2967
I1
sVdf9zthl
p2968
I1
sVdh6m58s
p2969
I1
sVczex2o1
p2970
I7
sVd4zj54p
p2971
I5
sVdjxj8kd
p2972
I2
sVd26l9yp
p2973
I2
sVd9790lb
p2974
I1
sVd5vxi4p
p2975
I3
sVdpx1pez
p2976
I1
sVd96k475
p2977
I1
sVd01i6oj
p2978
I2
sVd7hs3ko
p2979
I1
sVdii6u01
p2980
I1
sVd1j2b1b
p2981
I1
sVd39scli
p2982
I1
sVddxum3e
p2983
I1
sVd1wgc9x
p2984
I1
sVcyscapq
p2985
I2
sVd79qb0d
p2986
I1
sVd0twnqa
p2987
I1
sVd3gfdsj
p2988
I1
sVddrzjxm
p2989
I2
sVda2c4yp
p2990
I1
sVdgs2kp7
p2991
I1
sVd0e7ivl
p2992
I1
sVd3ym5p0
p2993
I1
sVdj8tg3n
p2994
I1
sVcz0go0l
p2995
I1
sVd7lwgg8
p2996
I2
sVd8n8l48
p2997
I1
sVdidat3z
p2998
I1
sVd8ixw1c
p2999
I1
sVdmqm4tk
p3000
I1
sVcyqwmct
p3001
I2
sVdn017ih
p3002
I5
sVdih9nl6
p3003
I4
sVdny3s4b
p3004
I1
sVd0ru7y1
p3005
I2
sVdgkh3xt
p3006
I1
sVdrrqeej
p3007
I3
sVdi0nca8
p3008
I5
sVd0g80mh
p3009
I1
sVdg7ojmj
p3010
I2
sVdblny1p
p3011
I3
sVdjdqze4
p3012
I1
sVczyp3rn
p3013
I3
sVd423s2g
p3014
I1
sVcywplf6
p3015
I4
sVdmsywwl
p3016
I3
sVdn3g4m9
p3017
I4
sVdaot4ls
p3018
I1
sVczrp9gm
p3019
I1
sVdiqnt89
p3020
I1
sVd46bk93
p3021
I2
sVd071yy1
p3022
I1
sVdmrqjp0
p3023
I2
sVdi7c2hy
p3024
I1
sVd6mkjn7
p3025
I2
sVdjwdr7l
p3026
I1
sVddpv149
p3027
I2
sVdpen21n
p3028
I2
sVd88kvco
p3029
I1
sVdgoxsqf
p3030
I2
sVdipwrau
p3031
I2
sVdey5a6c
p3032
I1
sVdrfdk50
p3033
I1
sVdgmkjh6
p3034
I7
sVdmlxd7d
p3035
I3
sVdpv9tkp
p3036
I1
sVd15w1wy
p3037
I1
sVd0q8lca
p3038
I2
sVd37tq94
p3039
I5
sVd3i0rus
p3040
I1
sVd4amim0
p3041
I5
sVda723ru
p3042
I1
sVdoeujwk
p3043
I1
sVd8upwf2
p3044
I2
sVczi712f
p3045
I3
sVdgtdjgj
p3046
I3
sVd9lupnw
p3047
I1
sVd0netm6
p3048
I1
sVd3su2y2
p3049
I2
sVdd97g0n
p3050
I2
sVdnpi7rc
p3051
I7
sVdomx2nr
p3052
I1
sVd91m7ud
p3053
I5
sVdhyfkwm
p3054
I2
sVdkmbl2v
p3055
I1
sVdmlh50c
p3056
I1
sVddh57ee
p3057
I3
sVd2hlczp
p3058
I1
sVdfti8p1
p3059
I1
sVd9yu9sd
p3060
I3
sVcyqm9m3
p3061
I4
sVdgb69ba
p3062
I1
sVd7tincs
p3063
I2
sVdb3qe6q
p3064
I2
sVd9dlf00
p3065
I1
sVd67t4z2
p3066
I2
sVdtb2k1z
p3067
I2
sVd16whe7
p3068
I4
sVdekjhfg
p3069
I1
sVdre4zg5
p3070
I1
sVd8tpajd
p3071
I1
sVdkglzox
p3072
I2
sVdsmreqg
p3073
I1
sVd3ck9w6
p3074
I1
sVczympkf
p3075
I3
sVdkhgza6
p3076
I1
sVd1wgtnn
p3077
I2
sVd5hft0g
p3078
I1
sVd0tooon
p3079
I1
sVdiawuck
p3080
I3
sVdn024qf
p3081
I1
sVd5ewl3y
p3082
I1
sVdisj5hl
p3083
I1
sVdi7bqgc
p3084
I1
sVcztownu
p3085
I2
sVd7bl1s1
p3086
I1
sVdfriz93
p3087
I1
sVde6p0t9
p3088
I1
sVdemdsjy
p3089
I2
sVdrb7ghd
p3090
I3
sVdgnfxln
p3091
I1
sVczptmmg
p3092
I1
sVdcjyl12
p3093
I1
sVd2y144h
p3094
I1
sVczfc0qz
p3095
I1
sVdbb47qw
p3096
I2
sVd3h67yc
p3097
I2
sVdnbpmhz
p3098
I4
sVd4vg01s
p3099
I1
sVdndumhn
p3100
I1
sVdbxwsee
p3101
I3
sVd8eivxa
p3102
I2
sVde9b38h
p3103
I2
sVd1bxi2q
p3104
I1
sVdos4p9t
p3105
I3
sVd66h3ad
p3106
I1
sVdce6z3c
p3107
I1
sVd4h802q
p3108
I1
sVdgahap8
p3109
I1
sVd2v9zug
p3110
I1
sVd1x6b77
p3111
I2
sVd36d560
p3112
I1
sVd1gnhq2
p3113
I1
sVdhmf55w
p3114
I1
sVdcxl3vj
p3115
I1
sVddulqb2
p3116
I1
sVdbqf8zd
p3117
I3
sVdhgjwxl
p3118
I1
sVcz1gs7w
p3119
I1
sVdbm2ig6
p3120
I1
sVd5m532n
p3121
I3
sVdd2xj1f
p3122
I1
sVdcphm2m
p3123
I1
sVdtbtn16
p3124
I1
sVd43avf5
p3125
I2
sVcyp39jh
p3126
I1
sVd5jfnbv
p3127
I1
sVdfd52k5
p3128
I1
sVdip788g
p3129
I1
sVcznv4ug
p3130
I7
sVdbmgv9t
p3131
I1
sVdhk6uc9
p3132
I2
sVcznngno
p3133
I1
sVd5aycp1
p3134
I1
sVd0449s2
p3135
I1
sVdc960pj
p3136
I5
sVddwgcw1
p3137
I3
sVdkqz64w
p3138
I1
sVd5a1pj9
p3139
I1
sVd22rojg
p3140
I1
sVcz9shlt
p3141
I1
sVdo7ptqe
p3142
I2
sVd9aiyuh
p3143
I1
sVddq4rxz
p3144
I1
sVdbg6h13
p3145
I1
sVcyopdf2
p3146
I1
sVdtgkav1
p3147
I1
sVczhdqj8
p3148
I2
sVd07k1sg
p3149
I1
sVdnsyr1p
p3150
I1
sVd687avd
p3151
I3
sVd2nmtoa
p3152
I2
sVdfjyht8
p3153
I1
sVd7ne3vy
p3154
I2
sVdnj8duf
p3155
I3
sVd4flc2p
p3156
I1
sVd3denxn
p3157
I2
sVd9e91ez
p3158
I1
sVdoeqit8
p3159
I3
sVdpqs9gn
p3160
I1
sVd9de3pz
p3161
I4
sVcz6oq10
p3162
I1
sVd8j0ca1
p3163
I2
sVd3uglrj
p3164
I1
sVdg5pbmj
p3165
I1
sVdswuehy
p3166
I1
sVdnbrxg1
p3167
I1
sVd1gs5np
p3168
I4
sVd4e1erl
p3169
I2
sVd92796d
p3170
I2
sVdbp4amo
p3171
I1
sVd578ty6
p3172
I1
sVdbt1qb6
p3173
I2
sVd08pqvx
p3174
I4
sVd3j48m1
p3175
I1
sVdcjt15s
p3176
I1
sVcyklet1
p3177
I1
sVd7cfqzy
p3178
I3
sVdc5ioe2
p3179
I1
sVczlgwfa
p3180
I1
sVdr878er
p3181
I1
sVd9brve2
p3182
I4
sVdq8rr53
p3183
I1
sVd6qgzoc
p3184
I1
sVdpp2hkf
p3185
I1
sVdaasjmc
p3186
I1
sVdgjj43i
p3187
I2
sVdfif80y
p3188
I1
sVd0g4d89
p3189
I2
sVda96emb
p3190
I2
sVdafflk9
p3191
I1
sVdjo6ak2
p3192
I2
sVd465lc4
p3193
I5
sVd9gs1yx
p3194
I1
sVczruk3r
p3195
I1
sVdmks5g3
p3196
I1
sVdj220nw
p3197
I1
sVdq2hpxm
p3198
I3
sVczrauew
p3199
I1
sVd6g49mk
p3200
I6
sVdaqpp2b
p3201
I1
sVd2dwl9g
p3202
I1
sVd99g1ex
p3203
I2
sVd5eg313
p3204
I1
sVdd9cg40
p3205
I1
sVd5zgfhc
p3206
I1
sVdesz6n4
p3207
I1
sVdgdckfr
p3208
I1
sVdbbig6f
p3209
I1
sVdmywluk
p3210
I3
sVdo2oq76
p3211
I4
sVd4e1chy
p3212
I1
sVd6vvj6u
p3213
I3
sVd7o6cd4
p3214
I1
sVcyllh6f
p3215
I1
sVddqqmgx
p3216
I1
sVdghmioj
p3217
I1
sVdsdhy8y
p3218
I8
sVdgkikxr
p3219
I1
sVdqqbi6b
p3220
I1
sVddly7gi
p3221
I9
sVd6min4i
p3222
I2
sVdc65hc3
p3223
I1
sVcytcqz6
p3224
I1
sVd0kizun
p3225
I1
sVcyjvp1r
p3226
I2
sVdiqu8vz
p3227
I1
sVdhbfm72
p3228
I1
sVd0ady4h
p3229
I2
sVdaus8g5
p3230
I1
sVdkoleaj
p3231
I5
sVdeh0rjc
p3232
I1
sVd1syjxk
p3233
I1
sVd6znbsp
p3234
I1
sVdissomq
p3235
I1
sVd18t0fb
p3236
I1
sVdqmxukl
p3237
I4
sVd2t0k0x
p3238
I1
sVde9zxcu
p3239
I3
sVdbrnriv
p3240
I2
sVdel1ld8
p3241
I2
sVdb2z4rv
p3242
I1
sVd0d6gpe
p3243
I1
sVd5ivwws
p3244
I1
sVd69m7gz
p3245
I1
sVdej4awp
p3246
I1
sVdekro98
p3247
I1
sVddqtl8l
p3248
I2
sVd2c57mb
p3249
I1
sVd7qhtgr
p3250
I2
sVdgkv3sk
p3251
I1
sVd2atsdi
p3252
I2
sVdhv7p6r
p3253
I1
sVcyjjf2a
p3254
I1
sVdd5fmhe
p3255
I1
sVdg8qpfu
p3256
I1
sVdf98j1b
p3257
I2
sVd120fql
p3258
I1
sVda5qwpw
p3259
I2
sVdk0etba
p3260
I3
sVcyw7jlk
p3261
I2
sVdaulq7l
p3262
I1
sVdpb8yzl
p3263
I8
sVcz5s22z
p3264
I1
sVdr82haj
p3265
I1
sVdndxwhw
p3266
I1
sVda6t06s
p3267
I1
sVded4hd0
p3268
I1
sVd01lcpl
p3269
I6
sVdpsft30
p3270
I1
sVdomegmz
p3271
I1
sVd1y897a
p3272
I1
sVd20ea5b
p3273
I1
sVdousjbm
p3274
I2
sVdkog1ox
p3275
I1
sVdba1x7h
p3276
I1
sVd8usmtt
p3277
I1
sVdglqugb
p3278
I1
sVd5d1i5u
p3279
I1
sVd5r2d3b
p3280
I12
sVdbsnk2e
p3281
I1
sVdieedw0
p3282
I1
sVd1rs8co
p3283
I1
sVd6aeenr
p3284
I1
sVd80y81l
p3285
I1
sVd5v8d4j
p3286
I2
sVd9f5ocp
p3287
I3
sVd5swaos
p3288
I3
sVdtbkto5
p3289
I2
sVd1y9nz3
p3290
I1
sVcywpxvs
p3291
I1
sVdecfxvt
p3292
I4
sVd2krnnh
p3293
I1
sVdcbv8z3
p3294
I4
sVdetqeju
p3295
I1
sVcz1eofq
p3296
I1
sVd6q33vq
p3297
I1
sVd6vb6i2
p3298
I1
sVda7nrvl
p3299
I2
sVdrd0uec
p3300
I1
sVczi76se
p3301
I8
sVderskac
p3302
I1
sVdjceahk
p3303
I1
sVd14aaxn
p3304
I1
sVdjc0yw0
p3305
I1
sVd3nkhtn
p3306
I1
sVd42vd3v
p3307
I2
sVd1hzkqs
p3308
I1
sVd16vaao
p3309
I2
sVd46hrut
p3310
I1
sVd7tl7tw
p3311
I1
sVd5s2a77
p3312
I1
sVd0hsggs
p3313
I1
sVdjcy7sh
p3314
I1
sVd9dklrp
p3315
I1
sVd9730xk
p3316
I1
sVdj7tnt3
p3317
I1
sVd2tecap
p3318
I9
sVd0o19vg
p3319
I1
sVdgafy97
p3320
I1
sVd4w9xs7
p3321
I1
sVd9afe6v
p3322
I3
sVdn7ocfp
p3323
I1
sVd3d5ioa
p3324
I3
sVdjwlyx8
p3325
I2
sVdahovy7
p3326
I1
sVdb0fosj
p3327
I1
sVdcrgb7f
p3328
I1
sVdbloezq
p3329
I1
sVd27ruhf
p3330
I1
sVdshf30x
p3331
I3
sVd5eozs9
p3332
I6
sVd4mrra6
p3333
I3
sVd8hzswe
p3334
I3
sVdkr0e59
p3335
I1
sVdf4qyel
p3336
I1
sVdd3sxeh
p3337
I1
sVdelodgy
p3338
I1
sVdku27p6
p3339
I2
sVdibouwe
p3340
I2
sVddupkie
p3341
I1
sVdkrdwgk
p3342
I8
sVd3dddk9
p3343
I1
sVdn3eyjx
p3344
I2
sVd2qa3v9
p3345
I2
sVd1nrmtc
p3346
I1
sVdt1xkhd
p3347
I1
sVdh8aqcn
p3348
I1
sVd0m4say
p3349
I6
sVda5h6om
p3350
I1
sVdfvovgy
p3351
I7
sVd1napmt
p3352
I4
sVddoomgq
p3353
I5
sVdhewh5y
p3354
I1
sVdkj3tr0
p3355
I1
sVda1c5jf
p3356
I3
sVdf550ck
p3357
I1
sVdtg2ykn
p3358
I1
sVdj616l0
p3359
I2
sVderdizk
p3360
I1
sVd5mum43
p3361
I1
sVd0mduea
p3362
I2
sVd0grfud
p3363
I1
sVda1xn19
p3364
I1
sVdgix6rq
p3365
I2
sVcyrppui
p3366
I2
sVcz2dni1
p3367
I4
sVdd8othi
p3368
I1
sVd7e06yf
p3369
I3
sVdr5kaf7
p3370
I1
sVdpp83e1
p3371
I1
sVdc52bsm
p3372
I1
sVd190b24
p3373
I2
sVczrcjks
p3374
I1
sVdo1n4rg
p3375
I1
sVdcq7iqo
p3376
I1
sVdjtw5xy
p3377
I1
sVd8hoikh
p3378
I1
sVdbswcy3
p3379
I1
sVdgfm0np
p3380
I2
sVd5fmujo
p3381
I1
sVd2zgegh
p3382
I1
sVdk1d05n
p3383
I1
sVd4sao43
p3384
I1
sVdgkn6se
p3385
I1
sVdp1sccv
p3386
I1
sVdeefqds
p3387
I1
sVdft9jon
p3388
I1
sVdbcp3qi
p3389
I2
sVdfkajzx
p3390
I3
sVd4xdbfq
p3391
I3
sVdbwe6gq
p3392
I5
sVdc9wtia
p3393
I1
sVdi67li8
p3394
I1
sVd97goud
p3395
I1
sVdpnpcct
p3396
I1
sVdaq4ric
p3397
I2
sVdjp2c4e
p3398
I1
sVdank28o
p3399
I1
sVd8d6h1f
p3400
I1
sVdefosme
p3401
I1
sVdt9ppyi
p3402
I1
sVdas944q
p3403
I11
sVdo7w9na
p3404
I1
sVdtbco22
p3405
I2
sVcz4a643
p3406
I1
sVczmppm5
p3407
I1
sVd6lubvp
p3408
I1
sVd3tfg7q
p3409
I1
sVczq97ny
p3410
I1
sVcyhzuz7
p3411
I1
sVd0mfqul
p3412
I1
sVdf34007
p3413
I1
sVczcz0s1
p3414
I2
sVd6j4pcr
p3415
I2
sVczn77mx
p3416
I1
sVdg7z782
p3417
I4
sVd6oqxzj
p3418
I2
sVdgdw38b
p3419
I1
sVdczt6hs
p3420
I2
sVdpdro4v
p3421
I3
sVd0ajjnr
p3422
I1
sVd4m7jgm
p3423
I2
sVdcj9z8o
p3424
I1
sVd5frwor
p3425
I1
sVdbpn2hl
p3426
I1
sVdip6jdz
p3427
I1
sVd1p9ens
p3428
I7
sVdo0hs8q
p3429
I1
sVd7q4tuw
p3430
I1
sVd8pzo1u
p3431
I1
sVdicbuzs
p3432
I1
sVdbfhuto
p3433
I2
sVd8nlcta
p3434
I2
sVdgf4gkv
p3435
I5
sVd0dwmrl
p3436
I1
sVdfyqrqa
p3437
I7
sVdc4jxm8
p3438
I2
sVcz4exqi
p3439
I2
sVd69isrr
p3440
I2
sVd3kvy3b
p3441
I1
sVdokpo9i
p3442
I1
sVcznc8h0
p3443
I1
sVdganbb0
p3444
I1
sVdibj6j5
p3445
I7
sVd0hvvkj
p3446
I2
sVd7a1iop
p3447
I2
sVczttrgp
p3448
I1
sVde5n6o5
p3449
I1
sVd19005a
p3450
I1
sVdmzukbx
p3451
I2
sVd3vcczh
p3452
I2
sVdf54g7o
p3453
I1
sVd1xpcet
p3454
I2
sVdpl1wbq
p3455
I1
sVdizi680
p3456
I1
sVdomx4m3
p3457
I1
sVdqyx9o8
p3458
I3
sVdp3zlbn
p3459
I2
sVd5ee3n5
p3460
I1
sVdiooawn
p3461
I1
sVcz1gf3r
p3462
I1
sVd5ulkom
p3463
I1
sVdrs2od5
p3464
I2
sVczvsnbc
p3465
I1
sVdcbi58a
p3466
I2
sVdd7bfuz
p3467
I1
sVd6wjmdn
p3468
I3
sVd36vise
p3469
I2
sVdenecqo
p3470
I1
sVd4oigwf
p3471
I2
sVczjog9h
p3472
I1
sVd8067le
p3473
I2
sVd3g3u9h
p3474
I1
sVdrria77
p3475
I1
sVde4j55n
p3476
I2
sVdaq2s4g
p3477
I1
sVd9rjzx1
p3478
I1
sVd653lf3
p3479
I2
sVdabujxe
p3480
I1
sVdnb62hf
p3481
I1
sVdhig2pz
p3482
I1
sVdku8qel
p3483
I1
sVd7qtkpn
p3484
I1
sVd4aq64j
p3485
I1
sVdhexhoi
p3486
I1
sVd5elwg4
p3487
I1
sVd5ddvsu
p3488
I1
sVddpjg85
p3489
I3
sVczs14zb
p3490
I1
sVd4ippfg
p3491
I1
sVdcz0496
p3492
I1
sVd34ypwd
p3493
I1
sVdohadq8
p3494
I2
sVd62qwcy
p3495
I4
sVcys7jw1
p3496
I1
sVddhuqkr
p3497
I1
sVdahd493
p3498
I1
sVdbg0dyd
p3499
I1
sVd0jp46q
p3500
I1
sVdb7ulkj
p3501
I5
sVd79kah4
p3502
I2
sVcyl5vve
p3503
I1
sVd0i9xr1
p3504
I1
sVczzxp6g
p3505
I3
sVd14ipk6
p3506
I1
sVd9gzyqq
p3507
I1
sVdjdgonn
p3508
I1
sVd79o1fm
p3509
I3
sVdogikfa
p3510
I3
sVdg4h632
p3511
I2
sVdgo4kei
p3512
I1
sVd49tvh4
p3513
I1
sVdeuyk76
p3514
I2
sVd56fuhz
p3515
I2
sVdax9ftl
p3516
I1
sVdr1ba1j
p3517
I6
sVdn9rmds
p3518
I1
sVd4gueh3
p3519
I5
sVd57xbnh
p3520
I1
sVd4gqtv9
p3521
I1
sVdghemaz
p3522
I1
sVdqs5ih2
p3523
I5
sVdgn9tmh
p3524
I1
sVd09c642
p3525
I2
sVdeudn6m
p3526
I1
sVd3i26wk
p3527
I1
sVd7ozgpo
p3528
I1
sVd5liwpd
p3529
I4
sVd6jo0tu
p3530
I1
sVdaioidt
p3531
I1
sVdfq57q5
p3532
I3
sVdg3lv3b
p3533
I1
sVdot3phi
p3534
I4
sVddoxqpk
p3535
I2
sVdmv6ms1
p3536
I2
sVdh0y396
p3537
I2
sVd0i6t3z
p3538
I1
sVdiprmvd
p3539
I3
sVdbepjc9
p3540
I2
sVdd6axyy
p3541
I1
sVczfxje5
p3542
I1
sVcywngbi
p3543
I1
sVdag7f7m
p3544
I1
sVd3daphp
p3545
I4
sVdqh5af5
p3546
I1
sVd96npgo
p3547
I1
sVdadlqm5
p3548
I3
sVd2hb784
p3549
I1
sVd3whv8r
p3550
I2
sVd3uypnx
p3551
I2
sVdc02hjf
p3552
I2
sVd9ycifz
p3553
I1
sVczdkx3b
p3554
I1
sVdqbnoo4
p3555
I3
sVdn38jne
p3556
I1
sVczjtulo
p3557
I1
sVdr4ypef
p3558
I1
sVddo6tfn
p3559
I1
sVd1p1azb
p3560
I2
sVdfb3zcc
p3561
I6
sVdqstt3o
p3562
I1
sVd316bpq
p3563
I1
sVdbe1j87
p3564
I1
sVd2nzxrt
p3565
I1
sVd3t6xmo
p3566
I1
sVcypufvi
p3567
I3
sVdnkkord
p3568
I1
sVdr6vu7b
p3569
I1
sVditbs03
p3570
I1
sVczlbar7
p3571
I1
sVd65alis
p3572
I1
sVd7z0elj
p3573
I1
sVdf5w5cb
p3574
I1
sVd9uy4i5
p3575
I1
sVdqoxrcg
p3576
I1
sVd7lm29p
p3577
I1
sVdc4vzqs
p3578
I1
sVcz2h53u
p3579
I1
sVd5c7dbv
p3580
I1
sVdo9oeeo
p3581
I9
sVdc5n5pu
p3582
I1
sVde9ozgk
p3583
I2
sVdh9cf3i
p3584
I1
sVdk2y46w
p3585
I2
sVd3ui348
p3586
I1
sVdjnsgra
p3587
I1
sVdda24fq
p3588
I1
sVdna21nh
p3589
I7
sVdh8903g
p3590
I1
sVd9iwi8b
p3591
I2
sVdeunpgn
p3592
I5
sVdtiizm7
p3593
I2
sVdh86w4r
p3594
I1
sVdcusotu
p3595
I1
sVd39xjvb
p3596
I2
sVdc3khu6
p3597
I2
sVd796ozf
p3598
I1
sVdawtbz7
p3599
I1
sVdgqb07j
p3600
I4
sVd8ib753
p3601
I2
sVdq4tgqb
p3602
I1
sVd8dkm6n
p3603
I1
sVdqwtm2c
p3604
I1
sVdab3q9i
p3605
I1
sVdr85pdw
p3606
I1
sVdi9u57q
p3607
I1
sVdj2g7tc
p3608
I1
sVd46fieb
p3609
I16
sVdejo5b1
p3610
I1
sVdale1y4
p3611
I1
sVczw1ig6
p3612
I5
sVd0fpn7s
p3613
I4
sVdd134q8
p3614
I5
sVdfku8fz
p3615
I1
sVd55zcr3
p3616
I1
sVcz2ki3y
p3617
I3
sVda1t638
p3618
I1
sVdn18bjm
p3619
I6
sVd7soc4k
p3620
I3
sVd4lopac
p3621
I1
sVd4tw5m7
p3622
I2
sVdnhhq4i
p3623
I5
s.