(dp0
Vdfbabnj
p1
I1
sVdpmdp12
p2
I1
sVdkue5va
p3
I1
sVdilxifu
p4
I1
sVdn6okg9
p5
I1
sVd0j4vhg
p6
I1
sVdeyb6cu
p7
I1
sVdckjrn0
p8
I1
sVd380wq1
p9
I1
sVdggqdip
p10
I1
sVcz2855t
p11
I1
sVd4yya0a
p12
I1
sVdhpteep
p13
I1
sVcz58p4a
p14
I1
sVd691jlb
p15
I1
sVdfbbv0s
p16
I1
sVdk12hcj
p17
I1
sVdbo2a1g
p18
I1
sVdh2c5al
p19
I1
sVdhafahx
p20
I1
sVd4cs1zz
p21
I1
sVd8cp7p2
p22
I1
sVd5g1qtj
p23
I1
sVdazbvtq
p24
I1
sVdhlurtc
p25
I1
sVd0t214t
p26
I1
sVd9yunb0
p27
I1
sVd1806r0
p28
I1
sVde1bbj1
p29
I2
sVd9ywwg8
p30
I1
sVdg3bcq6
p31
I2
sVcze4tj3
p32
I1
sVcysjk5p
p33
I1
sVdhzte12
p34
I1
sVczat9mb
p35
I1
sVd0rnftt
p36
I1
s.