(dp0
Vczk7yfw
p1
I1
s.(dp0
Vczk7yfw
p1
I1
sVd2sxv2i
p2
I1
s.(dp0
Vczk7yfw
p1
I1
sVd37j4c6
p2
I1
s.(dp0
Vczk7yfw
p1
I1
sVd4m7jgm
p2
I1
s.(dp0
Vczk7yfw
p1
I1
sVdaoqr41
p2
I1
s.(dp0
Vczk7yfw
p1
I1
sVdcvi7aa
p2
I1
s.(dp0
Vczk7yfw
p1
I1
sVdcxsx7p
p2
I1
s.(dp0
Vczk7yfw
p1
I1
sVdffzbad
p2
I1
s.(dp0
Vczk7yfw
p1
I1
sVdral0ka
p2
I1
s.