(dp0
Vcz1gs7w
p1
I1
s.(dp0
Vcz1hkxm
p1
I1
sVcz1gs7w
p2
I1
s.(dp0
Vczympkf
p1
I1
sVcz1gs7w
p2
I1
s.(dp0
Vczympkf
p1
I1
sVcz1gs7w
p2
I1
s.(dp0
Vd0667lq
p1
I1
sVcz1gs7w
p2
I1
s.(dp0
Vd0c8dg4
p1
I1
sVcz1gs7w
p2
I1
s.(dp0
Vd0y5t9u
p1
I1
sVcz1gs7w
p2
I1
s.(dp0
Vd1bchn1
p1
I1
sVcz1gs7w
p2
I1
s.(dp0
Vd1bchn1
p1
I1
sVcz1gs7w
p2
I1
s.(dp0
Vd1dklnk
p1
I1
sVcz1gs7w
p2
I1
s.(dp0
Vd1dnj7m
p1
I1
sVcz1gs7w
p2
I1
s.(dp0
Vd1hquy8
p1
I1
sVcz1gs7w
p2
I1
s.(dp0
Vd1zrtty
p1
I1
sVcz1gs7w
p2
I1
s.(dp0
Vd25qjxr
p1
I1
sVcz1gs7w
p2
I1
s.(dp0
Vd2n152j
p1
I1
sVcz1gs7w
p2
I1
s.(dp0
Vd3g5fw8
p1
I1
sVcz1gs7w
p2
I1
s.(dp0
Vd4bfsl5
p1
I1
sVcz1gs7w
p2
I1
s.(dp0
Vd4ekzde
p1
I1
sVcz1gs7w
p2
I1
s.(dp0
Vd50mhp5
p1
I1
sVcz1gs7w
p2
I1
s.(dp0
Vd50mhp5
p1
I1
sVcz1gs7w
p2
I1
s.(dp0
Vd5c97hi
p1
I1
sVcz1gs7w
p2
I1
s.(dp0
Vd5jfjgu
p1
I1
sVcz1gs7w
p2
I1
s.(dp0
Vd5n8z41
p1
I1
sVcz1gs7w
p2
I1
s.(dp0
Vd64fs4c
p1
I1
sVcz1gs7w
p2
I1
s.(dp0
Vd65ggng
p1
I1
sVcz1gs7w
p2
I1
s.(dp0
Vd6kdchs
p1
I1
sVcz1gs7w
p2
I1
s.(dp0
Vd6n8tz3
p1
I1
sVcz1gs7w
p2
I1
s.(dp0
Vd6ty3mj
p1
I1
sVcz1gs7w
p2
I1
s.(dp0
Vd6ue1vs
p1
I1
sVcz1gs7w
p2
I1
s.(dp0
Vd7f1k7z
p1
I1
sVcz1gs7w
p2
I1
s.(dp0
Vd826z1m
p1
I1
sVcz1gs7w
p2
I1
s.(dp0
Vd83eo1a
p1
I1
sVcz1gs7w
p2
I1
s.(dp0
Vd8pzo1u
p1
I1
sVcz1gs7w
p2
I1
s.(dp0
Vd9dmvk1
p1
I1
sVcz1gs7w
p2
I1
s.(dp0
Vdank28o
p1
I1
sVcz1gs7w
p2
I1
s.(dp0
Vdbxp9t6
p1
I1
sVcz1gs7w
p2
I1
s.(dp0
Vdcbi58a
p1
I1
sVcz1gs7w
p2
I1
s.(dp0
Vdcgyewu
p1
I1
sVcz1gs7w
p2
I1
s.(dp0
Vdcue48x
p1
I1
sVcz1gs7w
p2
I1
s.(dp0
Vdd5zyyk
p1
I1
sVcz1gs7w
p2
I1
s.(dp0
Vddcllp1
p1
I1
sVcz1gs7w
p2
I1
s.(dp0
Vdde281u
p1
I1
sVcz1gs7w
p2
I1
s.(dp0
Vddpv149
p1
I1
sVcz1gs7w
p2
I1
s.(dp0
Vdecudjh
p1
I1
sVcz1gs7w
p2
I1
s.(dp0
Vdei43ci
p1
I1
sVcz1gs7w
p2
I1
s.(dp0
Vdf5sisk
p1
I1
sVcz1gs7w
p2
I1
s.(dp0
Vdfibsc6
p1
I1
sVcz1gs7w
p2
I1
s.(dp0
Vdg9ol9z
p1
I1
sVcz1gs7w
p2
I1
s.(dp0
Vdgadrtw
p1
I1
sVcz1gs7w
p2
I1
s.(dp0
Vdgzod8i
p1
I1
sVcz1gs7w
p2
I1
s.(dp0
Vditjknb
p1
I1
sVcz1gs7w
p2
I1
s.(dp0
Vditvq4d
p1
I1
sVcz1gs7w
p2
I1
s.(dp0
Vdjc6kfc
p1
I1
sVcz1gs7w
p2
I1
s.(dp0
Vdkjx49h
p1
I1
sVcz1gs7w
p2
I1
s.(dp0
Vdklankm
p1
I1
sVcz1gs7w
p2
I1
s.(dp0
Vdn3y9pp
p1
I1
sVcz1gs7w
p2
I1
s.(dp0
Vdnp76ss
p1
I1
sVcz1gs7w
p2
I1
s.(dp0
Vdntookm
p1
I1
sVcz1gs7w
p2
I1
s.(dp0
Vdnw63s6
p1
I1
sVcz1gs7w
p2
I1
s.(dp0
Vdo8cagy
p1
I1
sVcz1gs7w
p2
I1
s.(dp0
Vdp28bzx
p1
I1
sVcz1gs7w
p2
I1
s.(dp0
Vdp7kzpz
p1
I1
sVcz1gs7w
p2
I1
s.(dp0
Vdpw849n
p1
I1
sVcz1gs7w
p2
I1
s.(dp0
Vdq3z6ni
p1
I1
sVcz1gs7w
p2
I1
s.(dp0
Vdqdb78p
p1
I1
sVcz1gs7w
p2
I1
s.(dp0
Vdqichq9
p1
I1
sVcz1gs7w
p2
I1
s.(dp0
Vdqup24s
p1
I1
sVcz1gs7w
p2
I1
s.(dp0
Vdrg47lq
p1
I1
sVcz1gs7w
p2
I1
s.(dp0
Vds1cs16
p1
I1
sVcz1gs7w
p2
I1
s.(dp0
Vds3ltfo
p1
I1
sVcz1gs7w
p2
I1
s.