(dp0
Vdi2bm5l
p1
I1
sVd92qp06
p2
I1
sVd1nqr9d
p3
I1
sVczvf65q
p4
I1
sVczvgsw1
p5
I1
sVdhw56hs
p6
I1
sVczvf29h
p7
I1
sVd006fy4
p8
I1
sVdmrj55i
p9
I1
sVd1fo1bt
p10
I2
sVd71ifz8
p11
I1
sVdb64zr7
p12
I1
sVdj37a60
p13
I1
sVd2vokf3
p14
I1
s.