(dp0
Vd7xwzp8
p1
I1
sVd31gpv2
p2
I3
sVdeipe0s
p3
I1
sVczj7dzs
p4
I1
sVd62noof
p5
I1
sVd1b24zf
p6
I1
sVdgvokk7
p7
I2
sVdgvfwdv
p8
I2
sVdgrzgte
p9
I1
sVdeootzc
p10
I2
sVdtj3j1l
p11
I1
sVdt3msqe
p12
I1
sVdfk5186
p13
I1
sVd1do53r
p14
I2
sVdkqnh3s
p15
I1
sVd36tyns
p16
I2
sVczoee0e
p17
I1
sVdemgx2a
p18
I1
sVddnayb6
p19
I1
sVcz9kxhg
p20
I1
sVd7ln58m
p21
I1
sVdbymw7w
p22
I1
sVdg5hyx0
p23
I2
sVdcab9kq
p24
I1
sVdneqt57
p25
I1
sVcz849fe
p26
I1
sVd998fk0
p27
I2
sVd5gjvse
p28
I1
sVdendonc
p29
I1
sVdn7w1cb
p30
I1
sVdswx474
p31
I1
sVdb450nq
p32
I1
sVd0qm1ma
p33
I1
sVd5c7mph
p34
I1
sVdpu3p64
p35
I1
sVdj14961
p36
I1
sVdfrbn39
p37
I1
sVdj6x0tq
p38
I1
sVdq15aoo
p39
I1
sVdbhirrb
p40
I1
sVdeey8f5
p41
I1
sVd33aut3
p42
I2
sVdpou33b
p43
I1
sVdrrnzds
p44
I1
sVds4n56l
p45
I1
sVczsi8uu
p46
I2
sVd97puuf
p47
I2
sVdcaol9y
p48
I1
sVd7lrcar
p49
I1
sVdi4j2xo
p50
I1
sVdcnn215
p51
I1
sVdeqb072
p52
I1
sVcz6402l
p53
I1
sVcywakcv
p54
I1
sVd75t6ci
p55
I1
sVd26mwyv
p56
I2
sVdctnmhe
p57
I1
sVczlv768
p58
I1
sVd9087k5
p59
I1
sVdkril60
p60
I1
sVdk1j28a
p61
I1
sVdhan7s3
p62
I2
sVd5eu1bg
p63
I1
sVdkb4svv
p64
I1
sVd4ya0pi
p65
I1
sVdegrgc8
p66
I2
sVd8wxkfn
p67
I1
sVdfvspjr
p68
I1
sVdihfr7z
p69
I2
sVcz45l1z
p70
I1
sVder18gx
p71
I1
sVd9gwdnk
p72
I1
sVdb0gg7x
p73
I1
sVdcxjyu4
p74
I1
sVczpt36d
p75
I1
sVdn7ocfp
p76
I1
sVd9nflm1
p77
I1
sVdg5huqu
p78
I1
sVdgwuybj
p79
I2
sVdga5imz
p80
I1
sVd15qpzy
p81
I2
sVdnwieps
p82
I1
sVdhr413r
p83
I1
sVcyki06k
p84
I1
sVdgdoz8w
p85
I1
sVdnj8duf
p86
I1
sVczx2dzy
p87
I1
sVdd7p2pi
p88
I2
sVdt69oqh
p89
I1
sVd2wwnyi
p90
I1
sVdapa3f2
p91
I1
sVdr0g2r9
p92
I2
sVdcb52q7
p93
I1
sVdqqbzgq
p94
I1
sVd1f7hqx
p95
I1
sVd8ymr1o
p96
I1
sVdcuj3yi
p97
I1
sVdmmf0pw
p98
I1
sVdg0ip9u
p99
I1
sVd1sfidx
p100
I1
sVdddfpxu
p101
I1
sVdoyoch1
p102
I1
sVcz5upjm
p103
I1
sVd04uc5a
p104
I1
sVd3k8apv
p105
I1
sVczirwrl
p106
I1
sVd21bk0n
p107
I1
sVd8j51ra
p108
I1
sVczn9ng1
p109
I1
sVd0kiqw9
p110
I1
sVd38z57l
p111
I2
sVd2q662w
p112
I1
sVczzl356
p113
I1
sVd3wg90f
p114
I1
sVdmnq99k
p115
I3
sVczupjee
p116
I1
sVdbtm67u
p117
I2
sVd8vgvnw
p118
I1
sVdnta1ms
p119
I2
sVd8skg5f
p120
I2
sVde02a2i
p121
I1
sVd2u7brd
p122
I1
sVd6ocbdb
p123
I1
sVdghaor0
p124
I1
sVd3nu0lr
p125
I1
sVdg3oaza
p126
I1
sVczre3wr
p127
I1
sVdfplkea
p128
I1
sVdf4diee
p129
I1
sVdegczb5
p130
I1
sVd90ly92
p131
I1
sVdfegt6h
p132
I1
sVd3vtk7r
p133
I1
sVd05c8l5
p134
I1
sVd405rxk
p135
I1
sVddshy5a
p136
I1
sVd27b8kq
p137
I1
sVd10mweq
p138
I1
sVd492gqp
p139
I1
sVd42atj2
p140
I2
sVdcf256w
p141
I1
sVcyi7rdb
p142
I1
sVd9zggf1
p143
I1
sVda3i69v
p144
I1
sVdg44rh6
p145
I1
sVd5z5t2i
p146
I2
sVd8suw6i
p147
I1
sVd0mav5q
p148
I1
sVda3x8gu
p149
I1
sVczc63st
p150
I1
sVd8t3xxg
p151
I1
sVdotrv1y
p152
I1
sVczojm1w
p153
I1
sVd5drgdc
p154
I1
sVdb58oy2
p155
I1
sVde7wyyw
p156
I1
sVdd1ef25
p157
I1
sVd7o0cpb
p158
I1
sVcyoieke
p159
I1
sVdco7bar
p160
I1
sVd6wh6fs
p161
I1
sVcz825u8
p162
I1
sVczah1sl
p163
I1
sVddrkuk4
p164
I1
sVdh5h4o9
p165
I1
sVd69bj50
p166
I1
sVd5gr3ta
p167
I1
sVddpm29i
p168
I1
sVdjtzeny
p169
I1
sVdnezft5
p170
I1
sVdd5l9sn
p171
I3
sVczv61hf
p172
I1
sVdk66sd7
p173
I1
sVd16cgo2
p174
I4
sVd3jq3ge
p175
I1
sVd7idkmy
p176
I1
sVd0n3p3j
p177
I1
sVd9p163y
p178
I1
sVdp9bry5
p179
I1
sVd4xgx1p
p180
I1
sVdq6i95e
p181
I1
sVcz7dq4d
p182
I1
sVdpoat0y
p183
I1
sVdh0kmz2
p184
I1
sVd2step2
p185
I1
sVd63p5s1
p186
I1
sVdmkwujq
p187
I1
sVdhc1md2
p188
I1
sVdeh9t12
p189
I1
sVczbu94s
p190
I1
sVda727py
p191
I1
sVdknl9we
p192
I2
sVd24cx80
p193
I1
sVddhjgdf
p194
I1
sVd3s2lo2
p195
I1
sVczg4gyc
p196
I1
sVd1nz8wq
p197
I1
sVde62agq
p198
I3
sVd3xsbd7
p199
I1
sVdfwycfz
p200
I2
sVd3zdak8
p201
I1
sVdd7cw0y
p202
I1
sVd15pe7l
p203
I3
sVdndwvz6
p204
I1
sVdb66plb
p205
I1
sVdeqtjz4
p206
I1
sVd5cbj3k
p207
I1
sVd7s8bh5
p208
I1
sVdflbktc
p209
I2
sVd8dg9ma
p210
I1
sVdnb27sr
p211
I1
sVd4luhmr
p212
I1
sVdixwvjy
p213
I1
sVdg8dv18
p214
I1
sVd1nowr3
p215
I1
sVd0eeq1a
p216
I1
sVde4dvim
p217
I1
sVdaa3xkh
p218
I1
sVd9b00lo
p219
I1
sVd0sc3qb
p220
I1
sVd0p461b
p221
I1
sVdali7nh
p222
I1
sVd1n41eh
p223
I1
sVds0kefl
p224
I2
sVd7con9k
p225
I1
sVdspas0o
p226
I1
sVdbx0jgy
p227
I2
sVd5ogipk
p228
I1
sVdhhfgsa
p229
I1
sVdhfohrv
p230
I1
sVdrxg78p
p231
I1
sVd60ox0t
p232
I1
sVdjxxfev
p233
I1
sVdj6q35w
p234
I1
sVd2sg0j6
p235
I1
sVdam20l2
p236
I1
sVdda34v0
p237
I1
sVd4iqy2r
p238
I1
sVd73t5j2
p239
I1
sVd1ttji6
p240
I1
sVdav4qep
p241
I1
sVd4prr4j
p242
I1
sVd1sba6m
p243
I1
sVdhx7qmh
p244
I1
sVde0phxm
p245
I1
sVd861whf
p246
I2
sVdorr72d
p247
I1
sVd2ywhx5
p248
I1
sVd0crez5
p249
I1
sVdcvet1a
p250
I1
sVdfthn4f
p251
I1
sVczyyos8
p252
I1
sVda97v4q
p253
I2
sVd57j4no
p254
I1
sVdelbca8
p255
I1
sVd33kjxb
p256
I1
sVdjpwuxr
p257
I1
sVdp52juf
p258
I1
sVdfn2mia
p259
I1
sVd0vahz2
p260
I1
sVd20wssu
p261
I2
sVd7lhxa8
p262
I1
sVde7qtb9
p263
I1
sVd7gs4wy
p264
I1
sVds83ltt
p265
I1
sVdhqmfnc
p266
I1
sVd1mahls
p267
I1
sVdf64dd5
p268
I1
sVd5ikj5n
p269
I1
sVd6mjqnu
p270
I3
sVczqg2gx
p271
I1
sVd9l5tsl
p272
I1
sVd7rqj0a
p273
I1
sVdghtbw8
p274
I1
sVd48ls9d
p275
I1
sVdfrnq2f
p276
I2
sVdr4iwiy
p277
I1
sVda8oh31
p278
I1
sVczks34i
p279
I1
sVd3hf51w
p280
I1
sVdsyx7bh
p281
I1
sVdn45f2x
p282
I1
sVddq9xcr
p283
I1
sVdcsiqyq
p284
I1
sVdh7dfzx
p285
I1
sVdteh4q0
p286
I1
sVd92jii5
p287
I1
sVcz3gj6f
p288
I1
sVd28fdse
p289
I1
sVd0lr9u7
p290
I1
sVcyisaf1
p291
I1
sVdan1fje
p292
I1
sVd0jvsfg
p293
I1
sVd3qjeln
p294
I1
sVdiot4zn
p295
I1
sVdco594y
p296
I1
sVcz7z3me
p297
I1
sVcyljc0y
p298
I1
sVd5ryi5o
p299
I1
sVd8pn00l
p300
I2
sVd958ojb
p301
I1
sVd6z4jzv
p302
I1
sVdqa73jp
p303
I1
sVd0d819v
p304
I2
sVd82tyg5
p305
I1
sVdp51w8o
p306
I1
sVd6hsm1m
p307
I3
sVczqv5om
p308
I1
sVd8tqv3a
p309
I1
sVdc1gwpw
p310
I1
sVd315epn
p311
I1
sVdelkzvu
p312
I1
sVd05iyte
p313
I1
sVd5nqik2
p314
I1
sVd0vrj05
p315
I1
sVd6z3h5l
p316
I1
sVdn7451r
p317
I1
sVdtgaeku
p318
I1
sVdemp2xp
p319
I2
sVd2cczns
p320
I1
sVczi6uch
p321
I1
sVcyvs2q1
p322
I1
sVdejm1ez
p323
I1
sVdgy906n
p324
I3
sVda0klnf
p325
I1
sVdewyw5o
p326
I1
sVdjpwgxr
p327
I2
sVdf459rm
p328
I1
sVd46x18k
p329
I1
sVdc1rmr6
p330
I1
sVd1qyt8o
p331
I1
sVd0qufmy
p332
I1
sVd4b7ek6
p333
I1
sVd5p8hag
p334
I1
sVczdy1zo
p335
I1
sVdihjl4x
p336
I1
sVcyqapui
p337
I1
sVd0yrvpj
p338
I1
sVd4ruccz
p339
I1
sVd5qb6ye
p340
I1
sVd7zjznb
p341
I1
sVd99my2n
p342
I1
sVdk2ys3q
p343
I2
sVdokpnm2
p344
I1
sVd6bkgr5
p345
I1
sVd01gh4r
p346
I1
sVdd6o4r4
p347
I1
sVdmpt73u
p348
I1
sVd6rhee9
p349
I1
sVd8hjlug
p350
I2
sVd3y5t68
p351
I2
sVd68czia
p352
I3
sVdepv46i
p353
I1
sVdau8z4m
p354
I2
sVdarf7h4
p355
I3
sVdhgqj13
p356
I1
sVd8ezmyd
p357
I1
sVcym0ldg
p358
I1
sVdo3nfkb
p359
I1
sVd6wothh
p360
I1
sVdqzqm2k
p361
I1
sVdsoc7pm
p362
I1
sVd2ord4d
p363
I1
sVd37dgej
p364
I1
sVd9tmxyx
p365
I1
sVd69as4e
p366
I1
sVd7cvqyd
p367
I1
sVdibs15o
p368
I1
sVde2tf59
p369
I1
sVd2u2fwq
p370
I1
sVd0568r7
p371
I1
sVd0fn7us
p372
I1
sVd6ee4ii
p373
I1
sVdjauzio
p374
I1
sVdep3of3
p375
I1
sVcz6kasm
p376
I1
sVcyjrhct
p377
I1
sVd6wgnf7
p378
I2
sVd0va4ls
p379
I1
sVdpuliea
p380
I1
sVdo5ztgl
p381
I1
sVd4npwzc
p382
I1
sVdpy6ceh
p383
I1
sVdinsycq
p384
I1
sVddw9lht
p385
I1
sVdcifhr3
p386
I1
sVd6me8e1
p387
I1
sVdcnyf3l
p388
I1
sVde0hql6
p389
I1
sVcyvdltu
p390
I1
sVdqrra2d
p391
I1
sVd6d7s22
p392
I1
sVd36u39u
p393
I1
sVditfpi8
p394
I1
sVd5k8jab
p395
I1
sVdpmxv1b
p396
I1
sVd3658hy
p397
I1
sVd5pvuww
p398
I1
sVd3lx262
p399
I1
sVdhqmqkr
p400
I1
sVdo82cic
p401
I1
sVd37h3cj
p402
I1
sVd02tfno
p403
I1
sVcyvujru
p404
I1
sVdbf15c0
p405
I1
sVd5t133d
p406
I1
sVd5usmmo
p407
I1
sVdrb6fmz
p408
I1
sVczn92rl
p409
I1
sVdrcxx4a
p410
I1
sVdquina1
p411
I1
sVdbjk13a
p412
I2
sVcyoulme
p413
I1
sVd3fyizn
p414
I1
sVd4pzjnz
p415
I2
sVczl7dea
p416
I1
sVd0emrz7
p417
I1
sVd259o0k
p418
I1
sVd5w8d8u
p419
I1
sVd9ia0mi
p420
I1
sVdr8hs67
p421
I1
sVd7e8yd6
p422
I2
sVcz1jp6j
p423
I1
sVdgundri
p424
I1
sVdfu1w21
p425
I1
sVd1ikkdg
p426
I1
sVdgy854q
p427
I1
sVdarnof8
p428
I1
sVd94xtjh
p429
I1
sVddchd83
p430
I1
sVdf9ttro
p431
I1
sVde9xszt
p432
I1
sVd7z711w
p433
I1
sVdnh0q9x
p434
I1
sVd4jjobx
p435
I1
sVdizhwcq
p436
I1
sVdh8jlnq
p437
I1
sVd0my9iw
p438
I1
sVdg8n5g3
p439
I1
sVdahiifc
p440
I1
sVddwsoj8
p441
I1
sVd5di4ur
p442
I1
sVd3bc1xo
p443
I1
sVdc450gi
p444
I1
sVcywkqja
p445
I1
sVdds63e8
p446
I2
sVdg8rc9i
p447
I1
sVde61jx7
p448
I2
sVdq6cs9v
p449
I1
sVdd4a1pj
p450
I1
sVdkcdcrq
p451
I1
sVdsl487l
p452
I1
sVdgvwz0j
p453
I1
sVd3bdz0u
p454
I1
sVcznf1k4
p455
I1
sVdbza9yl
p456
I1
sVd3k8cqz
p457
I1
sVdav6i51
p458
I1
sVd77gb8b
p459
I1
sVddtv98r
p460
I2
sVdc4ud6h
p461
I1
sVcz553s2
p462
I1
sVdbjaf6q
p463
I1
sVd2o74fq
p464
I1
sVczrkpwx
p465
I1
sVdco7dl0
p466
I1
sVd1861rb
p467
I2
sVdq45q0n
p468
I1
sVdsfe65s
p469
I1
sVdht2pd8
p470
I1
sVd3p259j
p471
I1
sVczlzf2g
p472
I2
sVd4awavf
p473
I2
sVd56qlfm
p474
I2
sVd0ptu8j
p475
I1
sVdgfqo5q
p476
I1
sVd3plf8d
p477
I1
sVdpir1y8
p478
I1
sVd55m3q9
p479
I1
sVd42kx6t
p480
I1
sVdpj8p12
p481
I1
sVdecg450
p482
I1
sVd1pmn9i
p483
I1
sVczgzz49
p484
I1
sVdc0repu
p485
I1
sVd31fetb
p486
I1
sVds8m428
p487
I1
sVdqhmugh
p488
I1
sVdho7uhn
p489
I1
sVdeotbvv
p490
I1
sVddza3ft
p491
I1
sVd53v4lh
p492
I2
sVd7kkumn
p493
I1
sVd3h59du
p494
I1
sVdj870nl
p495
I1
sVd3x6xj8
p496
I1
sVdeo3vaf
p497
I1
sVcyqjskv
p498
I1
sVdalr6ok
p499
I1
sVczttx70
p500
I1
sVcyo6n9w
p501
I1
sVcyuw93i
p502
I1
sVd4pvv4j
p503
I1
sVdeoulxu
p504
I1
sVcyovymy
p505
I1
sVd4vpxtf
p506
I1
sVdopwa24
p507
I1
sVd2116vc
p508
I1
sVd5hkqr4
p509
I1
sVd62q60a
p510
I1
sVde8cxtm
p511
I1
sVddqtchx
p512
I1
sVd2t7fdx
p513
I2
sVdcj35y8
p514
I1
sVd3azax1
p515
I1
sVd3rrt44
p516
I1
sVd1dfxiu
p517
I1
sVdh6dh6x
p518
I1
sVd1p00nz
p519
I3
sVcz3ehoj
p520
I2
sVdgx7m6x
p521
I1
sVdemoxax
p522
I2
sVdg0hbwn
p523
I1
sVcyj4e2s
p524
I1
sVdo9ix6o
p525
I1
sVdceo2et
p526
I1
sVdb34goq
p527
I1
sVd4bnkwb
p528
I1
sVdcsrx8w
p529
I1
sVdflglm3
p530
I1
sVde195yc
p531
I1
sVd7e95j7
p532
I1
sVdk8s0gt
p533
I1
sVd49tzuo
p534
I1
sVd9vnq83
p535
I1
sVde4kq87
p536
I1
sVdof6ytg
p537
I1
sVd9u3thr
p538
I1
sVd57lqrk
p539
I5
sVd5nqfvi
p540
I1
sVdisrnum
p541
I1
sVd1j4sdr
p542
I1
sVdnspwlm
p543
I1
sVd1zwjnj
p544
I1
sVdj7c34z
p545
I1
sVdasn8dq
p546
I1
sVdjfxjqq
p547
I1
sVdirqras
p548
I1
sVdcwbdzq
p549
I1
sVcyzsgax
p550
I1
sVdans52r
p551
I1
sVd1ttd6t
p552
I1
sVd0vgusu
p553
I1
sVd0itwqd
p554
I2
sVd4que2i
p555
I1
sVdg44tm7
p556
I1
sVdh2hd7r
p557
I1
sVdbfbd18
p558
I1
sVdcwgr9f
p559
I1
sVd8axc56
p560
I1
sVczddiz4
p561
I1
sVdb89o9j
p562
I1
sVda4i06p
p563
I1
sVdg5tqy8
p564
I1
sVd7o95em
p565
I1
sVdaee52i
p566
I1
sVdaet6o5
p567
I1
sVdepygco
p568
I1
sVddnhd21
p569
I1
sVdr7xibn
p570
I1
sVdgvklow
p571
I1
sVdf0e5a0
p572
I1
sVd8krlrn
p573
I1
sVdkiwpn8
p574
I1
sVdny3tiv
p575
I2
sVdewrbhk
p576
I1
sVdcf8nxw
p577
I1
sVcza1c7r
p578
I1
sVdei6nnr
p579
I1
sVcz3loht
p580
I1
sVd3bk0yv
p581
I1
sVcz26evx
p582
I2
sVd1nl4g5
p583
I1
sVdivffpa
p584
I1
sVdfhho4s
p585
I1
sVdq8fldl
p586
I1
sVdgkdxzl
p587
I1
sVdkej5w0
p588
I1
sVdghukoe
p589
I1
sVd88fz0t
p590
I1
sVd3jbcws
p591
I1
sVddypyde
p592
I1
sVdgx7v7y
p593
I1
sVdcd4hg1
p594
I2
sVcyoygtk
p595
I1
sVda4ogz6
p596
I1
sVdnz51r2
p597
I1
sVdtcvlcw
p598
I1
sVczqlpar
p599
I1
sVdjlaeps
p600
I1
sVd61fd1m
p601
I1
sVde34rp0
p602
I2
sVdk7a4ua
p603
I1
sVddj35od
p604
I3
sVdcy3lqw
p605
I1
sVdeu0rf8
p606
I1
sVdhor64o
p607
I1
sVcyso37p
p608
I1
sVd108sts
p609
I1
sVd6orzwn
p610
I1
sVd6z3otl
p611
I1
sVd5u5s5z
p612
I1
sVdk6ofpr
p613
I1
sVd0a0zrq
p614
I1
sVdemg4g2
p615
I1
sVdf9s645
p616
I1
sVdb9e0ou
p617
I1
sVdkys08n
p618
I1
sVdswbgvw
p619
I1
sVds29ass
p620
I1
sVdmuuw6f
p621
I1
sVdncmkdm
p622
I1
sVdehwzgf
p623
I1
sVdcqxal8
p624
I1
sVd1bxque
p625
I1
sVd739gck
p626
I1
sVd43k958
p627
I1
sVcz1liz8
p628
I1
sVd8lf7p2
p629
I1
sVd0covsr
p630
I1
sVdpdg8dw
p631
I2
sVdktvp70
p632
I1
sVdn9qr3j
p633
I1
sVd79qwbo
p634
I1
sVdb99aqj
p635
I1
sVdbcahqs
p636
I1
sVd4yxspk
p637
I1
sVdpor0ok
p638
I1
sVdch9s8v
p639
I1
sVdhnfm1j
p640
I1
sVde0mpm0
p641
I1
sVdbpl4rn
p642
I1
sVdh62lb7
p643
I2
sVdevxrft
p644
I4
sVcyjcuzn
p645
I1
sVdbaval7
p646
I1
sVdseezuu
p647
I1
sVcyqki3s
p648
I1
sVd5vl4l8
p649
I1
sVda3ql8t
p650
I1
sVdhlgg11
p651
I2
sVdap2usq
p652
I1
sVd05iwqe
p653
I1
sVczgnxrc
p654
I1
sVd9e0pzk
p655
I1
sVdgi0z5u
p656
I1
sVddiw2n1
p657
I1
sVdnwojr8
p658
I1
sVcyo0j95
p659
I1
sVdigja0p
p660
I1
sVcypke92
p661
I1
sVd1b5622
p662
I1
sVd6klq98
p663
I2
sVdctatwr
p664
I1
sVddpyj0i
p665
I1
sVdfwbvdn
p666
I1
sVdblkqky
p667
I1
sVd7ym80z
p668
I1
sVdici3tk
p669
I1
sVdc00mof
p670
I1
sVdrya744
p671
I1
sVdhjfcuf
p672
I1
sVcyqg827
p673
I1
sVdn04wch
p674
I2
sVd3y5z50
p675
I3
sVdg3ema1
p676
I1
sVdd4xseu
p677
I1
sVd1lldvo
p678
I1
sVd543yzh
p679
I1
sVd7eagl4
p680
I1
sVddfwxbf
p681
I1
sVd6f2u5w
p682
I1
sVda49fps
p683
I2
sVd80zdhy
p684
I1
sVd0xpn9x
p685
I1
sVd2j59wk
p686
I2
sVdhwr0ry
p687
I1
sVcyy1w7u
p688
I1
sVd0asx76
p689
I1
sVd5kazpo
p690
I1
sVdp5g5ir
p691
I1
sVd54vw4z
p692
I1
sVd1rvfh5
p693
I1
sVd889jgo
p694
I1
sVddwg3ea
p695
I1
sVcyvumur
p696
I1
sVdnaxpbq
p697
I1
sVdn8p3dk
p698
I1
sVczyz1zt
p699
I1
sVdsmwekw
p700
I1
sVd7r95q4
p701
I2
sVd9gvrfw
p702
I1
sVdftna69
p703
I1
sVcznx5nq
p704
I1
sVd1aljai
p705
I1
sVd62ucja
p706
I1
sVcyseeo1
p707
I1
sVdquy0hc
p708
I1
sVczywf5e
p709
I1
sVdrrhaz5
p710
I1
sVdjt5k5n
p711
I1
sVdav3c8m
p712
I1
sVczts6d2
p713
I1
sVdorri2m
p714
I1
sVdkc91ue
p715
I1
sVdcsnnl6
p716
I1
sVdghn4c1
p717
I1
sVczw25vf
p718
I1
sVdfo80zs
p719
I2
sVd4xdcyo
p720
I1
sVda6mb4u
p721
I1
sVdc5p09r
p722
I1
sVddls1ht
p723
I2
sVddj83vx
p724
I1
sVczzde8t
p725
I1
sVd2aux3a
p726
I1
sVcyooixe
p727
I1
sVd15wf71
p728
I1
sVdrl67wj
p729
I1
sVddsrcki
p730
I1
sVd9m9fnd
p731
I1
sVd3o00mu
p732
I1
sVdd6t358
p733
I4
sVd3ra6df
p734
I1
sVdpeels5
p735
I1
sVdiy0d54
p736
I1
sVd6koe6w
p737
I2
sVdholkzt
p738
I1
sVdq1z1fm
p739
I2
sVdcka18x
p740
I2
sVdp6gsfe
p741
I1
sVdf3oye6
p742
I1
sVd8w7wc6
p743
I1
sVd5024xm
p744
I2
sVdrs24xt
p745
I1
sVdohrhnm
p746
I2
sVdg4lzpb
p747
I2
sVdcva84r
p748
I1
sVddmdnj0
p749
I1
sVd017irg
p750
I1
sVdbu2rq4
p751
I1
sVdq1c7op
p752
I1
sVddi7jrj
p753
I1
sVd6egup5
p754
I1
sVd4omeil
p755
I1
sVd6aysoz
p756
I1
sVda34hcz
p757
I1
sVdqy8pno
p758
I2
sVd9viyad
p759
I1
sVdb5nuhk
p760
I1
sVdnhh9eh
p761
I1
sVd3c85wa
p762
I1
sVdsxce6s
p763
I1
sVdg53uct
p764
I1
sVd4hmxmd
p765
I1
sVd6ik1rk
p766
I1
sVd9rmzz2
p767
I1
sVd9f8wxi
p768
I1
sVd73owhy
p769
I1
sVdfjeulf
p770
I1
sVd4w9xs7
p771
I1
sVcztruu8
p772
I1
sVd5w6pv9
p773
I1
sVdnhg7fn
p774
I3
sVd2drj1v
p775
I1
sVczj7fuq
p776
I1
sVdkjybqp
p777
I1
sVdeh8e8q
p778
I1
sVd3mvfow
p779
I3
sVdexd0fd
p780
I1
sVd05l6kb
p781
I2
sVdbr9uql
p782
I1
sVd0msz3f
p783
I1
sVd4uxmi3
p784
I1
sVd0tns19
p785
I1
sVdh7uku6
p786
I2
sVd4mx693
p787
I1
sVdriq1gn
p788
I1
sVdhxycwm
p789
I1
sVddc2f7q
p790
I1
sVcz9b55x
p791
I1
sVdfn99p8
p792
I3
sVczmp9ni
p793
I1
sVdk3w6nm
p794
I1
sVdcwxume
p795
I2
sVda1pvz2
p796
I1
sVcyptys7
p797
I1
sVdovpq32
p798
I1
sVde09fpo
p799
I1
sVdggyu6h
p800
I2
sVdckjatc
p801
I1
sVdn34cfm
p802
I1
sVdo4x0cp
p803
I1
sVdr7xdz9
p804
I1
sVd4xnuoo
p805
I1
sVdec0qkz
p806
I2
sVdmpx224
p807
I1
sVdrkdmli
p808
I1
sVd59j3y6
p809
I1
sVdnf0626
p810
I1
sVd21npu9
p811
I1
sVdheonga
p812
I1
sVdnksf4u
p813
I1
sVdigkj89
p814
I1
sVd5szegc
p815
I1
sVd05saol
p816
I1
sVd1tixcg
p817
I1
sVcyots9g
p818
I1
sVd7zuoe7
p819
I1
sVdfv6des
p820
I1
sVd936wge
p821
I1
sVdcsbhwr
p822
I1
sVd6v9vve
p823
I1
sVd8u1a9a
p824
I1
sVcyowvni
p825
I1
sVde09k1b
p826
I3
sVd1d9cpb
p827
I2
sVd03qut7
p828
I1
sVd4tszwy
p829
I1
sVdcloxxw
p830
I1
sVd6h2paz
p831
I1
sVdnfk83v
p832
I1
sVd43xp95
p833
I1
sVd2p1433
p834
I1
sVdoi96fi
p835
I1
sVdaiv951
p836
I1
sVdnarhwd
p837
I1
sVdekgic7
p838
I1
sVdiovi0b
p839
I1
sVdcbx1hi
p840
I1
sVdqivq5p
p841
I1
sVdarj297
p842
I1
sVd5q7tzy
p843
I1
sVdopcp11
p844
I1
sVdielmxa
p845
I1
sVd62tfh9
p846
I1
sVd1zyhik
p847
I1
sVds69uvm
p848
I1
sVdml2xb3
p849
I1
sVczfope6
p850
I2
sVdrpbmes
p851
I2
sVdrzuor6
p852
I2
sVdp4zi0p
p853
I1
sVdbqi2b6
p854
I1
sVdrrq7xd
p855
I1
sVdntejhf
p856
I1
sVcz11x51
p857
I1
sVd2bhtgz
p858
I1
sVd7qanor
p859
I1
sVdbf37oc
p860
I1
sVcyjrt72
p861
I1
sVdga2js1
p862
I2
sVd4rhboo
p863
I1
sVdfoqqyg
p864
I1
sVdb5lmif
p865
I1
sVd32xqnq
p866
I1
sVdqsyl6e
p867
I1
sVdtidop5
p868
I1
sVd84t7s5
p869
I1
sVdg3a95w
p870
I1
sVdgtj9ye
p871
I2
sVdkibgbk
p872
I1
sVd4svgb1
p873
I2
sVddksls3
p874
I1
sVcz6evai
p875
I1
sVd5yzmsn
p876
I1
sVdqjjvnr
p877
I2
sVdgi3u29
p878
I1
sVd1o5lp1
p879
I1
sVdco85qd
p880
I1
sVdef9xl0
p881
I1
sVdngntzq
p882
I1
sVczvzf00
p883
I1
sVdozk6yu
p884
I1
sVdfnuvs6
p885
I1
sVd07uyck
p886
I1
sVdsfnlor
p887
I1
sVdbf95ur
p888
I1
sVdezp1gy
p889
I2
sVd8czm1k
p890
I1
sVdqdui0m
p891
I1
sVdcx2vxv
p892
I1
sVd9f0guq
p893
I1
sVddu0bau
p894
I1
sVdekdel9
p895
I2
sVdgvmrg7
p896
I2
sVd1isk6i
p897
I1
sVd73ujk4
p898
I1
sVddgyhsz
p899
I1
sVde98nn0
p900
I2
sVdat0ane
p901
I1
sVdou436o
p902
I1
sVd82xs8i
p903
I1
sVddvqmmp
p904
I1
sVd4f4k6c
p905
I1
sVcyybx0p
p906
I1
sVdrolda2
p907
I1
sVd2hzhtg
p908
I1
sVcync3gy
p909
I1
sVdh4hmb6
p910
I1
sVdgpzlf8
p911
I1
sVd1xo446
p912
I1
sVd4rwj9q
p913
I1
sVd3y5o2c
p914
I1
sVd0f2oli
p915
I1
sVcztb0i8
p916
I1
sVd8e6sok
p917
I2
sVddipnai
p918
I3
sVdjctee2
p919
I1
sVd0k6iuw
p920
I1
sVdo1yfr6
p921
I1
sVd21fs7y
p922
I1
sVd2blter
p923
I1
sVd2ze6za
p924
I1
sVd0675jx
p925
I1
sVdakq3m8
p926
I1
sVdbd9gvp
p927
I1
sVd2gox1x
p928
I1
sVcyzvca5
p929
I1
sVd7bimp1
p930
I1
sVd7qj9ht
p931
I1
sVdrzj6br
p932
I1
sVcz1eho7
p933
I1
sVde89qng
p934
I1
sVd14p6vm
p935
I1
sVdmic3rz
p936
I1
sVdgqho1e
p937
I1
sVdo6qpgf
p938
I1
sVdauo0wg
p939
I1
sVd1q0wxu
p940
I1
sVdho2m16
p941
I1
sVdixyzac
p942
I1
sVdrbne2k
p943
I1
sVd8bxwq8
p944
I3
sVd4ysnp5
p945
I1
sVd5mtwk4
p946
I1
sVczvm1wj
p947
I1
sVdhqnvgs
p948
I2
sVd3i43pq
p949
I1
sVcz6eqtk
p950
I1
sVdameczt
p951
I1
sVd7b9mtr
p952
I1
sVd3jaxv4
p953
I1
sVd5prpeb
p954
I1
sVd7llqkw
p955
I1
sVdig3zth
p956
I1
sVdq8x7uv
p957
I1
sVdje85pp
p958
I1
sVdbbkk3p
p959
I1
sVd2nwuvb
p960
I1
sVdrbfw4r
p961
I1
sVdkqi9oo
p962
I1
sVd0ncc0l
p963
I1
sVd59j5wz
p964
I1
sVddilz5a
p965
I1
sVczki86d
p966
I1
sVd99pjx9
p967
I1
sVddvgnq2
p968
I1
sVdev74ve
p969
I1
sVd7ur5fk
p970
I1
sVdi23tjo
p971
I1
sVde4tsci
p972
I1
sVd416zh9
p973
I1
sVdjghzqv
p974
I1
sVd9d9xjp
p975
I1
sVd558ddz
p976
I1
sVdob3osz
p977
I1
sVdmy0ead
p978
I1
sVddfnaym
p979
I1
sVdh4xh2k
p980
I1
sVdoibsnp
p981
I2
sVd2gapmp
p982
I1
sVdoxied1
p983
I1
sVcynx971
p984
I1
sVdjqr98a
p985
I1
sVdq2oexu
p986
I1
sVdgry5a1
p987
I1
sVd91tdou
p988
I1
sVd5ddvsu
p989
I1
sVdaevb4l
p990
I2
sVdmx0exa
p991
I1
sVdbbu5vj
p992
I1
sVdcik7bx
p993
I1
sVd5umu2t
p994
I1
sVdhx12fz
p995
I1
sVcz5p74o
p996
I1
sVd3dmz64
p997
I1
sVd2neou6
p998
I1
sVditqsja
p999
I1
sVczt05a6
p1000
I2
sVdbeogzo
p1001
I2
sVdson0x2
p1002
I1
sVdgec2le
p1003
I1
sVdfwajrt
p1004
I1
sVd4rs9dg
p1005
I1
sVdeqqchj
p1006
I1
sVde5z4zi
p1007
I1
sVdoypblk
p1008
I1
sVd9jhn1y
p1009
I1
sVd7qyio3
p1010
I1
sVd00mh1f
p1011
I1
sVd934c0o
p1012
I1
sVczyti18
p1013
I1
sVdfryc2g
p1014
I1
sVdihai24
p1015
I1
sVdcy94hv
p1016
I2
sVd13fpe4
p1017
I1
sVdcbnjs6
p1018
I1
sVddifa5j
p1019
I1
sVd43u4cd
p1020
I1
sVdiqojs0
p1021
I1
sVdgz01j8
p1022
I1
sVdggrn80
p1023
I1
sVd9kavoj
p1024
I1
sVdodztqb
p1025
I1
sVdjdksc4
p1026
I1
sVdg9rnz9
p1027
I1
sVd5zrwq4
p1028
I2
sVdcznkmk
p1029
I1
sVd6ym7g4
p1030
I1
sVd6bc02g
p1031
I1
sVdjcd8be
p1032
I1
sVddi2hiq
p1033
I1
sVd7z6wm9
p1034
I3
sVd9z5qd1
p1035
I1
sVdg81s6z
p1036
I1
sVczln7qu
p1037
I2
sVcyqagmn
p1038
I1
sVds6i50g
p1039
I1
sVd2l9rqi
p1040
I1
sVdcmg6wa
p1041
I1
sVdgt62js
p1042
I1
sVdct44de
p1043
I1
sVd1ayxzt
p1044
I1
sVdf8zr6l
p1045
I2
sVdfgshoi
p1046
I2
sVd7it4x9
p1047
I1
sVdegii8m
p1048
I1
sVd4h802q
p1049
I1
sVda16avx
p1050
I1
sVde9b2wz
p1051
I2
sVd45wpzx
p1052
I1
sVd047s69
p1053
I1
sVdforhsz
p1054
I1
sVdk6bset
p1055
I1
sVdg3e2me
p1056
I1
sVd78smct
p1057
I1
sVd7bxhu7
p1058
I2
sVd28y0ph
p1059
I1
sVd2r15t1
p1060
I2
sVd8g6pqp
p1061
I1
sVd0m4mvz
p1062
I1
sVdqkeree
p1063
I1
sVcykttma
p1064
I1
sVcz88sbx
p1065
I1
sVcyizjf4
p1066
I2
sVczz240l
p1067
I1
sVd8f4279
p1068
I1
sVdcrgb7f
p1069
I1
sVdhe0gzf
p1070
I1
sVdk6bx5r
p1071
I1
sVds4w5ao
p1072
I1
sVda56pbt
p1073
I1
sVddkcted
p1074
I2
sVd1ktguo
p1075
I1
sVdb2vkm7
p1076
I1
sVczm85b7
p1077
I1
sVdidmfr4
p1078
I1
sVd19530g
p1079
I1
sVd2wosao
p1080
I1
sVd810f4b
p1081
I1
sVdo1k5va
p1082
I1
sVdpp7hmh
p1083
I3
sVd4vbj03
p1084
I1
sVd3ah5xn
p1085
I1
sVd4yoe8r
p1086
I1
sVd0cwvo1
p1087
I1
sVdfqi5d6
p1088
I1
sVd21htmz
p1089
I2
sVdkqtgna
p1090
I2
sVd3t1qpp
p1091
I1
sVdbp3thc
p1092
I1
sVdqdo5so
p1093
I1
sVdk55uav
p1094
I1
sVdoma082
p1095
I1
sVczpcqip
p1096
I1
sVczhpdcy
p1097
I1
sVdk0gt6n
p1098
I1
sVdknexcx
p1099
I1
sVd3d5ioa
p1100
I2
sVdpn76zk
p1101
I1
sVd70t1eq
p1102
I1
sVdhb3e8x
p1103
I1
sVd3m48hd
p1104
I2
sVd06k5vg
p1105
I2
sVdr18d1q
p1106
I1
sVd5hze1s
p1107
I1
sVdehwz89
p1108
I1
sVd53uhzt
p1109
I1
sVdhostxv
p1110
I1
sVd3x23hb
p1111
I1
sVddan6kj
p1112
I1
sVd51vura
p1113
I1
sVdafi1o0
p1114
I1
sVdbubkm8
p1115
I1
sVdgf7g7h
p1116
I2
sVdearrk8
p1117
I1
sVdhf9sd0
p1118
I1
sVd2vomh4
p1119
I1
sVdjbc0sg
p1120
I2
sVd0nx8k1
p1121
I2
sVddgl8vx
p1122
I2
sVdb9dx1l
p1123
I2
sVdi6iuyu
p1124
I1
sVdd67kdh
p1125
I1
sVd59qp2p
p1126
I1
sVdqqtdrv
p1127
I1
sVd9il68h
p1128
I1
sVdjad25l
p1129
I1
sVd9g40yz
p1130
I1
sVdicfcg3
p1131
I1
sVdjedm7r
p1132
I1
sVd3ugqnv
p1133
I1
sVdacbpq2
p1134
I1
sVdmrqtn3
p1135
I1
sVd37vk93
p1136
I1
sVdetl6jv
p1137
I1
sVd11l9gu
p1138
I1
sVd08rcaz
p1139
I1
sVdk79zdk
p1140
I1
sVdfa8wup
p1141
I2
sVd27a3mo
p1142
I2
sVdjhtoty
p1143
I1
sVd6vemo1
p1144
I1
sVczi4ppm
p1145
I1
sVdczjkiq
p1146
I1
sVd3dcfr7
p1147
I1
sVd504brd
p1148
I1
sVdiwwgfu
p1149
I1
sVdizwgls
p1150
I1
sVdbkkhsa
p1151
I1
sVd0u07p9
p1152
I2
sVdd4zu0d
p1153
I1
sVd864hlx
p1154
I1
sVd68gjsd
p1155
I1
sVdbhdvu2
p1156
I1
sVddic3ls
p1157
I1
sVd626l9n
p1158
I2
sVdpo9c9i
p1159
I1
sVd98xf9v
p1160
I2
s.