(dp0
Vd1wvb1w
p1
I1
sVd0hj6gj
p2
I1
sVdo9rm53
p3
I4
sVd2pfz6w
p4
I1
sVddad911
p5
I1
sVdq8bng9
p6
I1
sVdac80a3
p7
I1
sVd0y057p
p8
I1
sVdbht0va
p9
I1
sVczcx2rj
p10
I1
sVdruqwzs
p11
I2
sVd547c1e
p12
I2
sVd0v2r4n
p13
I1
sVdg7llmn
p14
I1
sVd1if5g1
p15
I1
sVdpkkfz9
p16
I1
sVd20vh85
p17
I1
sVdevrna3
p18
I1
sVd5ac2cy
p19
I1
sVdfrkdye
p20
I2
sVdhwwy6s
p21
I1
sVdmmsjve
p22
I1
sVd9lqnxw
p23
I1
sVczs38ze
p24
I1
sVdpeze1y
p25
I1
sVd08vx2n
p26
I1
sVdc37hqw
p27
I1
sVdpxvxuw
p28
I1
sVditfp56
p29
I1
sVdnezixq
p30
I1
sVd5crgxc
p31
I1
sVdg19qyu
p32
I1
sVd8jfbb6
p33
I1
sVd31pkz0
p34
I2
sVdo8tpfb
p35
I3
sVczxchok
p36
I1
sVdbv4ou7
p37
I4
sVd074ac9
p38
I1
sVd9xec38
p39
I1
sVd0cenb4
p40
I1
sVd84l4wf
p41
I1
sVd0ky1f9
p42
I1
sVd2si1bp
p43
I1
sVd6pa00j
p44
I1
sVdcuy93v
p45
I1
sVdt61rq3
p46
I1
sVd9ijoza
p47
I1
sVda1g7xu
p48
I1
sVd4rabna
p49
I1
sVds8qsnb
p50
I2
sVd9czian
p51
I2
sVd50j30p
p52
I3
sVdgi6urk
p53
I1
sVczcu7is
p54
I1
sVdirlf02
p55
I1
sVd4kx4ws
p56
I2
sVcylr65t
p57
I1
sVdekh4im
p58
I2
sVdithr19
p59
I1
sVd6vtmtx
p60
I1
sVd9bup23
p61
I1
sVd6vgboh
p62
I1
sVdjoqtvg
p63
I1
sVd0q87c7
p64
I1
sVd1h9xp7
p65
I1
sVd3sjgfk
p66
I2
sVcz04j6x
p67
I1
sVdjho021
p68
I5
sVdcsg3fy
p69
I3
sVd3rqinn
p70
I1
sVdc1704y
p71
I2
sVd7ga98x
p72
I1
sVddc7exs
p73
I1
sVdomoucf
p74
I1
sVd3jflvd
p75
I1
sVds4bn7e
p76
I1
sVdh79gkj
p77
I4
sVd5e5p8b
p78
I1
sVd9asqq3
p79
I1
sVd8v9kxa
p80
I2
sVd424f3g
p81
I1
sVd3bprou
p82
I1
sVd15xko9
p83
I1
sVdh9brje
p84
I2
sVde92d2q
p85
I1
sVddh7guo
p86
I1
sVdhbvtla
p87
I1
sVdam2mbh
p88
I1
sVdcy97bb
p89
I2
sVdot4gv3
p90
I2
sVdfpac6v
p91
I1
sVdrqipu6
p92
I1
sVdcrn16b
p93
I1
sVdcqs1zr
p94
I1
sVd6tjhc1
p95
I1
sVdabqqn7
p96
I1
sVd6yr0vc
p97
I1
sVdgr5zj7
p98
I2
sVdf64abb
p99
I3
sVd20jrim
p100
I1
sVdg2gt8v
p101
I1
sVdcma2hz
p102
I1
sVdrihvie
p103
I1
sVdbe0k9i
p104
I2
sVda2somi
p105
I1
sVd1yrk6q
p106
I1
sVd6te1ba
p107
I1
sVd4t4mc9
p108
I1
sVdc1gwpw
p109
I3
sVd9in985
p110
I2
sVdfwhwri
p111
I1
sVd9p7wcw
p112
I1
sVcz8se3j
p113
I1
sVd2fkrxv
p114
I4
sVd6d9juh
p115
I1
sVd9r2072
p116
I1
sVd0xa69m
p117
I1
sVdbh9db8
p118
I1
sVdf4u5ik
p119
I1
sVdcajpqf
p120
I1
sVdbdg95n
p121
I1
sVdq8dpcg
p122
I1
sVd9yms0a
p123
I1
sVd9xrcf9
p124
I1
sVd1q1qpa
p125
I5
sVdgd788g
p126
I1
sVdfo95o9
p127
I1
sVdp4jd76
p128
I1
sVcyk1avc
p129
I1
sVczdwbhr
p130
I1
sVd3bkpon
p131
I3
sVdmimqpw
p132
I1
sVd6lzady
p133
I1
sVdr74f3n
p134
I2
sVdi0ttgn
p135
I1
sVdntm8k6
p136
I1
sVdk7fvy2
p137
I2
sVdcs9gti
p138
I1
sVdj2a5uw
p139
I1
sVd467gue
p140
I1
sVd9ua5w4
p141
I1
sVd98rett
p142
I3
sVdimuzu2
p143
I4
sVd8jal6o
p144
I2
sVdihiacz
p145
I1
sVd9pm463
p146
I1
sVd1qju5v
p147
I1
sVd6wha5s
p148
I1
sVd5oxvvi
p149
I1
sVdjhxbmx
p150
I1
sVdqj4ef8
p151
I1
sVd1h5uzn
p152
I1
sVdpxnq7m
p153
I1
sVdj2z4gy
p154
I4
sVdji9c4o
p155
I2
sVcyog5e3
p156
I1
sVd7zqnr5
p157
I1
sVczg0l3p
p158
I2
sVd2w68ot
p159
I1
sVd4pc6ti
p160
I1
sVczk2ba8
p161
I1
sVdjzqpvb
p162
I3
sVdfeiz15
p163
I1
sVdn6092f
p164
I1
sVd37f9zo
p165
I1
sVd8kry7z
p166
I1
sVd9bvfj3
p167
I1
sVda9t7h3
p168
I2
sVdcjt66o
p169
I1
sVdsdok5r
p170
I1
sVdo6iihw
p171
I1
sVda1m0fr
p172
I1
sVdcnsvq9
p173
I2
sVd1cd07m
p174
I2
sVd2d33ng
p175
I1
sVdn4eqag
p176
I1
sVdc2jyfl
p177
I1
sVdesg0hx
p178
I2
sVdmf84ci
p179
I1
sVdqjc6r4
p180
I1
sVdfnzw9f
p181
I1
sVdrdsd1h
p182
I2
sVd7e3mo8
p183
I1
sVdac2pwi
p184
I3
sVcz8w0g2
p185
I3
sVdrkv622
p186
I1
sVdnm421z
p187
I8
sVda9jn8u
p188
I1
sVdj8h8m9
p189
I1
sVddk2ur7
p190
I2
sVdd4dn0r
p191
I1
sVd9p8b3h
p192
I2
sVdiioq9a
p193
I3
sVdb4qokl
p194
I1
sVdmk7n4y
p195
I1
sVdrwtdbv
p196
I1
sVdiap3qz
p197
I1
sVdfvruez
p198
I2
sVdfm3zpg
p199
I1
sVds1bwnr
p200
I1
sVdjopsp2
p201
I1
sVdej6oct
p202
I1
sVdbn3mfa
p203
I1
sVd9bg5s8
p204
I1
sVd06jwbd
p205
I2
sVd9bhr0e
p206
I2
sVde71gaj
p207
I2
sVdpqqm9m
p208
I1
sVdk589tg
p209
I1
sVdgi75xf
p210
I1
sVd69xhnm
p211
I2
sVd5oqxpe
p212
I4
sVd0lhw7g
p213
I1
sVd9xhok0
p214
I2
sVdr6knwz
p215
I1
sVd0fav35
p216
I1
sVdczvyd9
p217
I1
sVcz4rvig
p218
I4
sVdjze1wd
p219
I1
sVdnc6rq3
p220
I1
sVdjcbq09
p221
I2
sVda9ugo4
p222
I1
sVd0xyqu9
p223
I2
sVdkg42vo
p224
I1
sVd0jkrj5
p225
I1
sVdg2581x
p226
I1
sVczvfiis
p227
I1
sVdbatc9n
p228
I2
sVd9651t8
p229
I1
sVdflfcwv
p230
I2
sVd7npl17
p231
I1
sVd5hax20
p232
I1
sVdn1xho6
p233
I3
sVdho91cl
p234
I1
sVda763wk
p235
I1
sVd11fo52
p236
I1
sVd7q57n6
p237
I1
sVdgi9cge
p238
I1
sVd8q5kt2
p239
I2
sVddhpc2k
p240
I1
sVda4ftzf
p241
I2
sVdekt7bx
p242
I1
sVd6q1ipp
p243
I1
sVd2ydrbf
p244
I1
sVde4yd06
p245
I3
sVd419kks
p246
I7
sVdgmnqza
p247
I1
sVd9ret4p
p248
I1
sVdtd39qz
p249
I2
sVdbbd1be
p250
I3
sVd55pnar
p251
I1
sVdeeepri
p252
I1
sVdcgwipg
p253
I2
sVd415bl5
p254
I1
sVd0il3e7
p255
I1
sVdb3lnwt
p256
I1
sVd8gjyfy
p257
I1
sVd5hnt8h
p258
I1
sVd9idppi
p259
I3
sVczfau9x
p260
I1
sVdn6zgk5
p261
I1
sVda07cag
p262
I1
sVcz0v4k3
p263
I1
sVdqw2ket
p264
I1
sVdi11la2
p265
I1
sVd7zku9c
p266
I1
sVd8pyq01
p267
I1
sVdhmlzbq
p268
I1
sVd9uxvim
p269
I1
sVd5jlisj
p270
I1
sVdntwo0i
p271
I2
sVd44ugsx
p272
I1
sVdkm8rnv
p273
I1
sVdby68ws
p274
I1
sVd7gzppb
p275
I1
sVd01ntei
p276
I1
sVd67zqge
p277
I1
sVd16tv0o
p278
I2
sVdkmcp16
p279
I2
sVdfgqcsc
p280
I1
sVdhmnmlo
p281
I3
sVdkhguy0
p282
I1
sVdc0dv0y
p283
I1
sVdh98qsp
p284
I1
sVczjag3q
p285
I1
sVd10kgyy
p286
I1
sVd0w9kus
p287
I2
sVd9lgvtv
p288
I1
sVdddk10s
p289
I1
sVdi53b2i
p290
I4
sVcz7xc8x
p291
I1
sVd3bbbu0
p292
I1
sVd8swqjt
p293
I1
sVd17mwh7
p294
I3
sVd8bizp7
p295
I1
sVdjp2nn1
p296
I1
sVdeyht8a
p297
I1
sVczrkj8h
p298
I1
sVd2nfv47
p299
I1
sVd3s4pzm
p300
I1
sVdhpr035
p301
I1
sVd4d804y
p302
I1
sVdsxf6dq
p303
I1
sVdn2njiv
p304
I1
sVd9gsy51
p305
I1
sVd07mwxo
p306
I1
sVd4p5067
p307
I1
sVdf4p3mp
p308
I1
sVd76tvxu
p309
I1
sVd0xyqej
p310
I1
sVdd3wzlb
p311
I1
sVd05kagl
p312
I2
sVcyzj8cw
p313
I1
sVdeajm4a
p314
I1
sVdk55dzc
p315
I1
sVd8ltjxt
p316
I1
sVd9cj9xf
p317
I2
sVd4eyd67
p318
I4
sVdelvaql
p319
I1
sVdqszcb3
p320
I2
sVdn5lmqt
p321
I1
sVd1vvkwo
p322
I1
sVdpwyozx
p323
I1
sVczksppo
p324
I1
sVdqx6upb
p325
I1
sVdcfik3k
p326
I2
sVd2ebpoi
p327
I1
sVd75x4gm
p328
I1
sVdkz6kpe
p329
I3
sVd31maj5
p330
I4
sVddufvbk
p331
I1
sVdegd8wc
p332
I1
sVd9xz63m
p333
I4
sVdqpaaw5
p334
I1
sVdd9nnot
p335
I1
sVdb4rp3n
p336
I1
sVd304jhc
p337
I1
sVdaqqzvb
p338
I1
sVd5xnft6
p339
I1
sVdgd7l71
p340
I1
sVdt0l6p1
p341
I2
sVdqahuxf
p342
I1
sVczrp031
p343
I1
sVdnm5796
p344
I1
sVda2ip0o
p345
I1
sVdayzn7s
p346
I1
sVdglqijw
p347
I2
sVd91lp0m
p348
I1
sVd3lqg6q
p349
I2
sVdpqs9gn
p350
I1
sVd4bpxut
p351
I2
sVd0ehstl
p352
I1
sVd1llmk7
p353
I1
sVd779fqi
p354
I1
sVdizf64f
p355
I1
sVdnnjwgz
p356
I1
sVdkmedzr
p357
I1
sVd5gcr79
p358
I1
sVdguv0nq
p359
I1
sVczt05a6
p360
I1
sVd0yyu34
p361
I1
sVd7jgzki
p362
I1
sVd9l8dk1
p363
I1
sVdjehsbm
p364
I1
sVdbnwf6k
p365
I2
sVdadyknl
p366
I1
sVdgl8gm7
p367
I2
sVd0z7yiq
p368
I2
sVd9zkv8e
p369
I1
sVdk1kzrr
p370
I1
sVd6nvqqv
p371
I1
sVdgd724c
p372
I3
sVdk74erv
p373
I1
sVd8grwsn
p374
I1
sVd7iau1b
p375
I1
sVdby2scb
p376
I1
sVczbd5ry
p377
I1
sVdnskixm
p378
I1
sVd3rrowe
p379
I1
sVd30y1do
p380
I1
sVd4xctt1
p381
I1
sVdjcb7np
p382
I1
sVcyq2g28
p383
I2
sVd76nmrb
p384
I1
sVdcpuls8
p385
I1
sVdnxd8q8
p386
I1
sVda9yxe8
p387
I4
sVdg501ew
p388
I2
sVd7mix1s
p389
I1
sVd6phu50
p390
I3
sVdjl3b8u
p391
I3
sVd0xapww
p392
I3
sVdahvcaw
p393
I1
sVdg53aah
p394
I2
sVdf61b03
p395
I1
sVderaxj0
p396
I1
sVdaup5u0
p397
I1
sVditbs03
p398
I2
sVdiqctmu
p399
I1
sVdqskycy
p400
I1
sVdgdl5bu
p401
I3
sVd4uk8xp
p402
I1
sVd7i8lcv
p403
I1
sVd3j5vkv
p404
I1
sVd9q0b60
p405
I2
sVdk9d27g
p406
I1
sVdrkqf2w
p407
I1
sVdqjl88v
p408
I2
sVczc5ek9
p409
I1
sVdefli95
p410
I7
sVd1ja2mr
p411
I1
sVdfeichx
p412
I1
sVczs0x2m
p413
I1
sVdeggpeu
p414
I1
sVdby70lo
p415
I1
sVdfumwba
p416
I2
sVda0eg6w
p417
I4
sVczioid5
p418
I1
sVda39yy5
p419
I1
sVdtgpgw4
p420
I1
sVdgthaft
p421
I1
sVdsioevp
p422
I1
sVdjlrfbz
p423
I1
sVd75htno
p424
I1
s.