(dp0
Vcyqhwb7
p1
I1
s.(dp0
Vcyqhwb7
p1
I1
sVcz811jy
p2
I1
s.(dp0
Vcyqhwb7
p1
I1
sVczyxjnq
p2
I1
s.(dp0
Vcyqhwb7
p1
I1
sVd065b0z
p2
I1
s.(dp0
Vcyqhwb7
p1
I1
sVd1epys8
p2
I1
s.(dp0
Vcyqhwb7
p1
I1
sVd2fuiw6
p2
I1
s.(dp0
Vcyqhwb7
p1
I1
sVd4ifxvd
p2
I1
s.(dp0
Vcyqhwb7
p1
I1
sVd582c94
p2
I1
s.(dp0
Vcyqhwb7
p1
I1
sVdbq6qg7
p2
I1
s.(dp0
Vcyqhwb7
p1
I1
sVdc2tz1x
p2
I1
s.(dp0
Vcyqhwb7
p1
I1
sVdc2tz1x
p2
I1
s.(dp0
Vcyqhwb7
p1
I1
sVdc2tz1x
p2
I1
s.(dp0
Vcyqhwb7
p1
I1
sVdc5qmye
p2
I1
s.(dp0
Vcyqhwb7
p1
I1
sVdczspn1
p2
I1
s.(dp0
Vcyqhwb7
p1
I1
sVddvviln
p2
I1
s.(dp0
Vcyqhwb7
p1
I1
sVdfbynth
p2
I1
s.(dp0
Vcyqhwb7
p1
I1
sVdhdvptc
p2
I1
s.(dp0
Vcyqhwb7
p1
I1
sVdj0su8u
p2
I1
s.(dp0
Vcyqhwb7
p1
I1
sVdj0su8u
p2
I1
s.(dp0
Vcyqhwb7
p1
I1
sVdjbgmui
p2
I1
s.(dp0
Vcyqhwb7
p1
I1
sVdjuz80k
p2
I1
s.(dp0
Vcyqhwb7
p1
I1
sVdjuz80k
p2
I1
s.(dp0
Vcyqhwb7
p1
I1
sVdjyvb03
p2
I1
s.(dp0
Vcyqhwb7
p1
I1
sVdr9px9l
p2
I1
s.