(dp0
Vd5c152k
p1
I1
sVd8aqwmd
p2
I1
sVd12j6xy
p3
I1
sVdfyaw42
p4
I1
sVd4gwq77
p5
I1
sVdh55rg4
p6
I1
sVdn75z3d
p7
I1
sVd8hfddm
p8
I1
sVd4gr56k
p9
I1
sVd8o1war
p10
I2
sVd1evv0y
p11
I1
sVdnxamvl
p12
I1
sVdmt9p1b
p13
I1
sVd7mqfdn
p14
I1
sVdeg4c7h
p15
I1
sVd75vdfy
p16
I1
sVd65fzqk
p17
I1
sVdefe5mf
p18
I1
sVcza127a
p19
I1
sVd3ri76e
p20
I1
sVd3yafb8
p21
I1
sVd042a6z
p22
I2
sVde6is4s
p23
I1
sVdavlpvi
p24
I1
sVdg79n0q
p25
I1
sVdj27llp
p26
I1
sVdkbeg9u
p27
I2
sVd8zkdej
p28
I1
sVda0c9y9
p29
I1
sVcza238c
p30
I1
sVdilg018
p31
I1
sVdotiuhm
p32
I1
sVdgo9nel
p33
I1
sVd8uio83
p34
I1
sVddee33b
p35
I1
sVcz1evtq
p36
I1
sVd1hst9u
p37
I1
sVdkkfrnp
p38
I1
sVczlna5h
p39
I1
sVdt40li4
p40
I1
sVd1dlnx6
p41
I1
sVd76rb23
p42
I1
sVdcqsydp
p43
I1
sVdt608hr
p44
I1
sVd1ey524
p45
I1
sVdaqq4vk
p46
I1
sVdjqyy08
p47
I1
sVd9lupnw
p48
I1
sVd1ln1el
p49
I1
sVddndf9f
p50
I1
sVdexlcfn
p51
I1
sVd62asqi
p52
I1
sVdc5b950
p53
I1
sVdhx0cr3
p54
I1
sVdbvcwk9
p55
I1
sVdfwgtj4
p56
I1
sVd1g0hkv
p57
I1
sVcz4x95x
p58
I1
sVdh3d3hx
p59
I1
sVd4fjgs4
p60
I1
sVd8heivs
p61
I1
sVd25d8v2
p62
I1
sVdkb5uug
p63
I1
sVczs9qqf
p64
I1
sVdc9apal
p65
I1
sVczjoh4y
p66
I1
sVda6z148
p67
I1
sVdqg2jbr
p68
I1
sVds3t4bw
p69
I1
sVderbk6k
p70
I1
sVd4gx83m
p71
I1
sVdcluk41
p72
I1
sVczzvb2t
p73
I1
sVcz0obj5
p74
I1
sVdqlihq3
p75
I1
sVdbrzxkm
p76
I1
sVdangudx
p77
I1
sVczscmg2
p78
I2
sVd693srk
p79
I1
sVd0784kk
p80
I1
sVd10dw7l
p81
I1
sVdixinag
p82
I1
sVd3x0nua
p83
I1
sVcyn1e33
p84
I1
sVdcf6fxx
p85
I1
sVdhik5i0
p86
I3
sVdi744d8
p87
I1
sVdf846m0
p88
I1
sVdmgw552
p89
I2
sVdhzoovu
p90
I1
sVd11xmag
p91
I1
sVd4zu4lz
p92
I1
sVd0hxou6
p93
I1
sVdfyke41
p94
I3
sVd12ranq
p95
I1
sVdjx45hd
p96
I2
sVdhwaqfw
p97
I1
sVdisd69n
p98
I1
sVd7w7m9t
p99
I1
sVdjivdfk
p100
I1
sVczhpd7a
p101
I1
sVcz8wka3
p102
I1
sVd6lbsyq
p103
I1
sVddin87w
p104
I3
sVdc99x4t
p105
I1
sVczpxp0z
p106
I1
sVdjz8zcm
p107
I1
sVdg8xtxl
p108
I1
sVddumdgd
p109
I1
sVda85zbp
p110
I1
sVde7s70q
p111
I1
sVdg37izf
p112
I1
sVd2673gq
p113
I1
s.