(dp0
Vcyij1z2
p1
I1
s.(dp0
Vcyij1z2
p1
I1
sVcyrqi62
p2
I1
s.(dp0
Vcyij1z2
p1
I1
sVcyrqrxs
p2
I1
s.(dp0
Vcysw82k
p1
I1
sVcyij1z2
p2
I1
s.(dp0
Vcysw82k
p1
I1
sVcyij1z2
p2
I1
s.(dp0
Vcyij1z2
p1
I1
sVczrmwg0
p2
I1
s.(dp0
Vczrn0e1
p1
I1
sVcyij1z2
p2
I1
s.(dp0
Vcyij1z2
p1
I1
sVd0ymli5
p2
I1
s.(dp0
Vcyij1z2
p1
I1
sVd259t2w
p2
I1
s.(dp0
Vcyij1z2
p1
I1
sVd2i88ov
p2
I1
s.(dp0
Vcyij1z2
p1
I1
sVd2t0k0x
p2
I1
s.(dp0
Vcyij1z2
p1
I1
sVd2t0k0x
p2
I1
s.(dp0
Vcyij1z2
p1
I1
sVd2vlxr2
p2
I1
s.(dp0
Vcyij1z2
p1
I1
sVd2vlxr2
p2
I1
s.(dp0
Vd2vrerz
p1
I1
sVcyij1z2
p2
I1
s.(dp0
Vcyij1z2
p1
I1
sVd2x3ne6
p2
I1
s.(dp0
Vcyij1z2
p1
I1
sVd30uxzb
p2
I1
s.(dp0
Vcyij1z2
p1
I1
sVd30uxzb
p2
I1
s.(dp0
Vcyij1z2
p1
I1
sVd7aalf2
p2
I1
s.(dp0
Vd7ybenz
p1
I1
sVcyij1z2
p2
I1
s.(dp0
Vd87zd6d
p1
I1
sVcyij1z2
p2
I1
s.(dp0
Vcyij1z2
p1
I1
sVd8bt6du
p2
I1
s.(dp0
Vcyij1z2
p1
I1
sVd8umwsb
p2
I1
s.(dp0
Vcyij1z2
p1
I1
sVd8umwsb
p2
I1
s.(dp0
Vcyij1z2
p1
I1
sVd9b9uft
p2
I1
s.(dp0
Vcyij1z2
p1
I1
sVdaoykn0
p2
I1
s.(dp0
Vcyij1z2
p1
I1
sVdb6fyol
p2
I1
s.(dp0
Vcyij1z2
p1
I1
sVdc9s0ch
p2
I1
s.(dp0
Vcyij1z2
p1
I1
sVdcdusrv
p2
I1
s.(dp0
Vcyij1z2
p1
I1
sVdcqh2c5
p2
I1
s.(dp0
Vcyij1z2
p1
I1
sVdcqh2c5
p2
I1
s.(dp0
Vcyij1z2
p1
I1
sVdcwnl1l
p2
I1
s.(dp0
Vdd0xabd
p1
I1
sVcyij1z2
p2
I1
s.(dp0
Vcyij1z2
p1
I1
sVdd2xylf
p2
I1
s.(dp0
Vcyij1z2
p1
I1
sVde8tf5i
p2
I1
s.(dp0
Vcyij1z2
p1
I1
sVdfak8l2
p2
I1
s.(dp0
Vcyij1z2
p1
I1
sVdfdk83l
p2
I1
s.(dp0
Vdfhguo4
p1
I1
sVcyij1z2
p2
I1
s.(dp0
Vcyij1z2
p1
I1
sVdhnxai8
p2
I1
s.(dp0
Vcyij1z2
p1
I1
sVdi6z2ph
p2
I1
s.(dp0
Vcyij1z2
p1
I1
sVdim0tq0
p2
I1
s.(dp0
Vcyij1z2
p1
I1
sVdim8akv
p2
I1
s.(dp0
Vcyij1z2
p1
I1
sVdim8akv
p2
I1
s.(dp0
Vcyij1z2
p1
I1
sVdim8akv
p2
I1
s.(dp0
Vcyij1z2
p1
I1
sVdityukb
p2
I1
s.(dp0
Vcyij1z2
p1
I1
sVdjpv9yl
p2
I1
s.(dp0
Vcyij1z2
p1
I1
sVdnlxwkn
p2
I1
s.(dp0
Vdnrekcn
p1
I1
sVcyij1z2
p2
I1
s.(dp0
Vdnrekcn
p1
I1
sVcyij1z2
p2
I1
s.(dp0
Vdnrekcn
p1
I1
sVcyij1z2
p2
I1
s.(dp0
Vcyij1z2
p1
I1
sVdo9jtic
p2
I1
s.(dp0
Vcyij1z2
p1
I1
sVdq4wyiy
p2
I1
s.(dp0
Vcyij1z2
p1
I1
sVds0g4i2
p2
I1
s.(dp0
Vcyij1z2
p1
I1
sVds0g4i2
p2
I1
s.(dp0
Vds0kb7p
p1
I1
sVcyij1z2
p2
I1
s.(dp0
Vcyij1z2
p1
I1
sVdtibrqs
p2
I1
s.