(dp0
Vczb2edt
p1
I1
s.(dp0
Vczb2edt
p1
I1
sVd0c796i
p2
I1
s.(dp0
Vczb2edt
p1
I1
sVd0twf5m
p2
I1
s.(dp0
Vd27jh00
p1
I1
sVczb2edt
p2
I1
s.(dp0
Vd8j61sr
p1
I1
sVczb2edt
p2
I1
s.(dp0
Vczb2edt
p1
I1
sVdam2ggc
p2
I1
s.(dp0
Vczb2edt
p1
I1
sVdb3sx00
p2
I1
s.(dp0
Vddz893r
p1
I1
sVczb2edt
p2
I1
s.(dp0
Vczb2edt
p1
I1
sVdf1nta0
p2
I1
s.(dp0
Vdjtmxs1
p1
I1
sVczb2edt
p2
I1
s.(dp0
Vczb2edt
p1
I1
sVdkpc0vr
p2
I1
s.