(dp0
Vcywntfr
p1
I1
s.(dp0
Vczk178t
p1
I1
sVcywntfr
p2
I1
s.(dp0
Vcywntfr
p1
I1
sVczo3czv
p2
I1
s.(dp0
Vd0g1drt
p1
I1
sVcywntfr
p2
I1
s.(dp0
Vd0g1g16
p1
I1
sVcywntfr
p2
I1
s.(dp0
Vd0g1p1a
p1
I1
sVcywntfr
p2
I1
s.(dp0
Vd0ugcsq
p1
I1
sVcywntfr
p2
I1
s.(dp0
Vd0y81je
p1
I1
sVcywntfr
p2
I1
s.(dp0
Vd29v9sv
p1
I1
sVcywntfr
p2
I1
s.(dp0
Vd2j5boj
p1
I1
sVcywntfr
p2
I1
s.(dp0
Vd2rbt0y
p1
I1
sVcywntfr
p2
I1
s.(dp0
Vd44fgvn
p1
I1
sVcywntfr
p2
I1
s.(dp0
Vd56wgnb
p1
I1
sVcywntfr
p2
I1
s.(dp0
Vd71evla
p1
I1
sVcywntfr
p2
I1
s.(dp0
Vd71g8mz
p1
I1
sVcywntfr
p2
I1
s.(dp0
Vd71gqjo
p1
I1
sVcywntfr
p2
I1
s.(dp0
Vd71gv70
p1
I1
sVcywntfr
p2
I1
s.(dp0
Vd9lg8vk
p1
I1
sVcywntfr
p2
I1
s.(dp0
Vd9mpcr6
p1
I1
sVcywntfr
p2
I1
s.(dp0
Vd9u8q22
p1
I1
sVcywntfr
p2
I1
s.(dp0
Vda45mw5
p1
I1
sVcywntfr
p2
I1
s.(dp0
Vda9ts7y
p1
I1
sVcywntfr
p2
I1
s.(dp0
Vcywntfr
p1
I1
sVdazo2hr
p2
I1
s.(dp0
Vcywntfr
p1
I1
sVdazo2hr
p2
I1
s.(dp0
Vdbll3il
p1
I1
sVcywntfr
p2
I1
s.(dp0
Vdbyrks3
p1
I1
sVcywntfr
p2
I1
s.(dp0
Vddx5w3s
p1
I1
sVcywntfr
p2
I1
s.(dp0
Vddzzt53
p1
I1
sVcywntfr
p2
I1
s.(dp0
Vde2te7d
p1
I1
sVcywntfr
p2
I1
s.(dp0
Vde2tf59
p1
I1
sVcywntfr
p2
I1
s.(dp0
Vde2tf59
p1
I1
sVcywntfr
p2
I1
s.(dp0
Vde4fjxl
p1
I1
sVcywntfr
p2
I1
s.(dp0
Vdeicod7
p1
I1
sVcywntfr
p2
I1
s.(dp0
Vdeicod7
p1
I1
sVcywntfr
p2
I1
s.(dp0
Vdeicod7
p1
I1
sVcywntfr
p2
I1
s.(dp0
Vdeiu4pd
p1
I1
sVcywntfr
p2
I1
s.(dp0
Vdeiubn2
p1
I1
sVcywntfr
p2
I1
s.(dp0
Vdeiuful
p1
I1
sVcywntfr
p2
I1
s.(dp0
Vdeytggi
p1
I1
sVcywntfr
p2
I1
s.(dp0
Vdfiqs4q
p1
I1
sVcywntfr
p2
I1
s.(dp0
Vdfnl195
p1
I1
sVcywntfr
p2
I1
s.(dp0
Vdh7oajr
p1
I1
sVcywntfr
p2
I1
s.(dp0
Vdha5740
p1
I1
sVcywntfr
p2
I1
s.(dp0
Vdhfd0hb
p1
I1
sVcywntfr
p2
I1
s.(dp0
Vdj0usk1
p1
I1
sVcywntfr
p2
I1
s.(dp0
Vdk9rdyx
p1
I1
sVcywntfr
p2
I1
s.(dp0
Vdkhdk6d
p1
I1
sVcywntfr
p2
I1
s.(dp0
Vdkrhyki
p1
I1
sVcywntfr
p2
I1
s.(dp0
Vdn87e5m
p1
I1
sVcywntfr
p2
I1
s.(dp0
Vcywntfr
p1
I1
sVdn87j6c
p2
I1
s.(dp0
Vdnpdhdy
p1
I1
sVcywntfr
p2
I1
s.(dp0
Vdnzp25o
p1
I1
sVcywntfr
p2
I1
s.(dp0
Vdon2i1u
p1
I1
sVcywntfr
p2
I1
s.(dp0
Vdq64a2c
p1
I1
sVcywntfr
p2
I1
s.(dp0
Vdq64a2c
p1
I1
sVcywntfr
p2
I1
s.(dp0
Vdq64dor
p1
I1
sVcywntfr
p2
I1
s.(dp0
Vdq64dor
p1
I1
sVcywntfr
p2
I1
s.(dp0
Vdrsa100
p1
I1
sVcywntfr
p2
I1
s.(dp0
Vdrsb5cq
p1
I1
sVcywntfr
p2
I1
s.(dp0
Vdrsb5cq
p1
I1
sVcywntfr
p2
I1
s.(dp0
Vdrsb5cq
p1
I1
sVcywntfr
p2
I1
s.(dp0
Vdsn9an4
p1
I1
sVcywntfr
p2
I1
s.(dp0
Vdsnafx9
p1
I1
sVcywntfr
p2
I1
s.(dp0
Vdsxt0nn
p1
I1
sVcywntfr
p2
I1
s.(dp0
Vdsy3jbq
p1
I1
sVcywntfr
p2
I1
s.(dp0
Vdt0isks
p1
I1
sVcywntfr
p2
I1
s.(dp0
Vdt0j5ns
p1
I1
sVcywntfr
p2
I1
s.