(dp0
Vd36xj4o
p1
I1
s.(dp0
Vd36xj4o
p1
I2
s.(dp0
Vd36xj4o
p1
I2
s.(dp0
Vd36xj4o
p1
I2
s.(dp0
Vd36xj4o
p1
I1
sVd412lvi
p2
I1
s.(dp0
Vd36xj4o
p1
I1
sVd412lvi
p2
I1
s.(dp0
Vd413yrx
p1
I1
sVd36xj4o
p2
I1
s.(dp0
Vd413yrx
p1
I1
sVd36xj4o
p2
I1
s.(dp0
Vd413yrx
p1
I1
sVd36xj4o
p2
I1
s.(dp0
Vd413yrx
p1
I1
sVd36xj4o
p2
I1
s.(dp0
Vd413yrx
p1
I1
sVd36xj4o
p2
I1
s.(dp0
Vd413yrx
p1
I1
sVd36xj4o
p2
I1
s.(dp0
Vd36xj4o
p1
I1
sVd9o5p9n
p2
I1
s.(dp0
Vd36xj4o
p1
I1
sVd9o5p9n
p2
I1
s.(dp0
Vd36xj4o
p1
I1
sVd9o5p9n
p2
I1
s.(dp0
Vd36xj4o
p1
I1
sVdbqz5dp
p2
I1
s.(dp0
Vd36xj4o
p1
I1
sVdbqz5dp
p2
I1
s.(dp0
Vdcnzd3r
p1
I1
sVd36xj4o
p2
I1
s.(dp0
Vde9fjwu
p1
I1
sVd36xj4o
p2
I1
s.(dp0
Vde9fjwu
p1
I1
sVd36xj4o
p2
I1
s.(dp0
Vdey0mji
p1
I1
sVd36xj4o
p2
I1
s.(dp0
Vdey0mji
p1
I1
sVd36xj4o
p2
I1
s.(dp0
Vdey0mji
p1
I1
sVd36xj4o
p2
I1
s.(dp0
Vdey0mji
p1
I1
sVd36xj4o
p2
I1
s.(dp0
Vdey0mji
p1
I1
sVd36xj4o
p2
I1
s.(dp0
Vdtih6vn
p1
I1
sVd36xj4o
p2
I1
s.(dp0
Vdtih6vn
p1
I1
sVd36xj4o
p2
I1
s.(dp0
Vdtih6vn
p1
I1
sVd36xj4o
p2
I1
s.(dp0
Vdtih6vn
p1
I1
sVd36xj4o
p2
I1
s.(dp0
Vdtii0al
p1
I1
sVd36xj4o
p2
I1
s.