(dp0
Vdemgiym
p1
I1
sVd967n1g
p2
I1
sVd9at8qa
p3
I1
sVcz5btba
p4
I1
sVd4rzmbi
p5
I4
sVcylmmk7
p6
I1
sVd9au3la
p7
I1
sVdkvojua
p8
I1
sVdicp9ep
p9
I1
sVd3cnnhq
p10
I1
sVde420dc
p11
I1
sVdi7v1rp
p12
I1
sVd15mi5o
p13
I1
sVdhpsoy2
p14
I1
sVczha9qo
p15
I1
sVdchddo9
p16
I1
sVdanqtfm
p17
I1
sVczayqhi
p18
I1
sVcz0vhpu
p19
I1
sVd4vpip2
p20
I1
sVdd3izpk
p21
I1
sVcz6hm6a
p22
I1
sVd02wrfn
p23
I1
sVd9avunk
p24
I1
sVdq42c8n
p25
I1
sVdc2hfjc
p26
I1
sVd9yvns0
p27
I1
sVcypqkvv
p28
I1
sVczmxy0e
p29
I1
sVcypp594
p30
I1
sVd9atyle
p31
I1
sVddil3i0
p32
I1
s.