(dp0
Vcyilqxp
p1
I1
s.(dp0
Vcyilqxp
p1
I1
sVcylhsmj
p2
I1
s.(dp0
Vcyilqxp
p1
I1
sVcylxvdf
p2
I1
s.(dp0
Vcym4xqb
p1
I1
sVcyilqxp
p2
I1
s.(dp0
Vcyilqxp
p1
I1
sVcyo3l5m
p2
I1
s.(dp0
Vcyp8hkl
p1
I1
sVcyilqxp
p2
I1
s.(dp0
Vcyilqxp
p1
I1
sVcysdvtd
p2
I1
s.(dp0
Vcyvc5lw
p1
I1
sVcyilqxp
p2
I1
s.(dp0
Vcyilqxp
p1
I1
sVcyvi859
p2
I1
s.(dp0
Vcyilqxp
p1
I1
sVcyxegi7
p2
I1
s.(dp0
Vcyilqxp
p1
I1
sVcyxinjg
p2
I1
s.(dp0
Vcyilqxp
p1
I1
sVcyzysk0
p2
I1
s.(dp0
Vcyilqxp
p1
I1
sVcz0bd5r
p2
I1
s.(dp0
Vcz0cf9v
p1
I1
sVcyilqxp
p2
I1
s.(dp0
Vcyilqxp
p1
I1
sVcz3q5lw
p2
I1
s.(dp0
Vcz45hzm
p1
I1
sVcyilqxp
p2
I1
s.(dp0
Vcyilqxp
p1
I1
sVcz4qwdb
p2
I1
s.(dp0
Vcyilqxp
p1
I1
sVcz4qwdb
p2
I1
s.(dp0
Vcyilqxp
p1
I1
sVcz4qwdb
p2
I1
s.(dp0
Vcz5c8fn
p1
I1
sVcyilqxp
p2
I1
s.(dp0
Vcyilqxp
p1
I1
sVcz5kemo
p2
I1
s.(dp0
Vcyilqxp
p1
I1
sVcz5w6o7
p2
I1
s.(dp0
Vcyilqxp
p1
I1
sVcz6nkmy
p2
I1
s.(dp0
Vcz9b0hp
p1
I1
sVcyilqxp
p2
I1
s.(dp0
Vczbep5e
p1
I1
sVcyilqxp
p2
I1
s.(dp0
Vczbep5e
p1
I1
sVcyilqxp
p2
I1
s.(dp0
Vczbep5e
p1
I1
sVcyilqxp
p2
I1
s.(dp0
Vczbep5e
p1
I1
sVcyilqxp
p2
I1
s.(dp0
Vcyilqxp
p1
I1
sVczbfmm7
p2
I1
s.(dp0
Vcyilqxp
p1
I1
sVczbfmm7
p2
I1
s.(dp0
Vcyilqxp
p1
I1
sVczbfu57
p2
I1
s.(dp0
Vcyilqxp
p1
I1
sVczbidg2
p2
I1
s.(dp0
Vcyilqxp
p1
I1
sVczedraf
p2
I1
s.(dp0
Vcyilqxp
p1
I1
sVczedraf
p2
I1
s.(dp0
Vcyilqxp
p1
I1
sVczef2hh
p2
I1
s.(dp0
Vcyilqxp
p1
I1
sVczef2hh
p2
I1
s.(dp0
Vcyilqxp
p1
I1
sVczf2p70
p2
I1
s.(dp0
Vcyilqxp
p1
I1
sVczg6zyz
p2
I1
s.(dp0
Vczg71ph
p1
I1
sVcyilqxp
p2
I1
s.(dp0
Vcyilqxp
p1
I1
sVczj3u3o
p2
I1
s.(dp0
Vcyilqxp
p1
I1
sVczj3u3o
p2
I1
s.(dp0
Vcyilqxp
p1
I1
sVczj3u3o
p2
I1
s.(dp0
Vczllxqh
p1
I1
sVcyilqxp
p2
I1
s.(dp0
Vczllxqh
p1
I1
sVcyilqxp
p2
I1
s.(dp0
Vczma4m2
p1
I1
sVcyilqxp
p2
I1
s.(dp0
Vcyilqxp
p1
I1
sVczo2iiw
p2
I1
s.(dp0
Vcyilqxp
p1
I1
sVczo2iiw
p2
I1
s.(dp0
Vcyilqxp
p1
I1
sVczpfvmp
p2
I1
s.(dp0
Vcyilqxp
p1
I1
sVczsit0e
p2
I1
s.(dp0
Vcyilqxp
p1
I1
sVczsit0e
p2
I1
s.(dp0
Vcyilqxp
p1
I1
sVczsit0e
p2
I1
s.(dp0
Vcyilqxp
p1
I1
sVczsn7bw
p2
I1
s.(dp0
Vczuvh6a
p1
I1
sVcyilqxp
p2
I1
s.(dp0
Vczw0s6w
p1
I1
sVcyilqxp
p2
I1
s.(dp0
Vcyilqxp
p1
I1
sVczw4b1q
p2
I1
s.(dp0
Vczw5acc
p1
I1
sVcyilqxp
p2
I1
s.(dp0
Vczwas38
p1
I1
sVcyilqxp
p2
I1
s.(dp0
Vczwg27o
p1
I1
sVcyilqxp
p2
I1
s.(dp0
Vczwgjra
p1
I1
sVcyilqxp
p2
I1
s.(dp0
Vczwhzss
p1
I1
sVcyilqxp
p2
I1
s.(dp0
Vczwhzss
p1
I1
sVcyilqxp
p2
I1
s.(dp0
Vczwhzss
p1
I1
sVcyilqxp
p2
I1
s.(dp0
Vczwhzss
p1
I1
sVcyilqxp
p2
I1
s.(dp0
Vczwhzss
p1
I1
sVcyilqxp
p2
I1
s.(dp0
Vczwhzss
p1
I1
sVcyilqxp
p2
I1
s.(dp0
Vczwhzss
p1
I1
sVcyilqxp
p2
I1
s.(dp0
Vczwhzss
p1
I1
sVcyilqxp
p2
I1
s.(dp0
Vczwl11e
p1
I1
sVcyilqxp
p2
I1
s.(dp0
Vczwl11e
p1
I1
sVcyilqxp
p2
I1
s.(dp0
Vczwl11e
p1
I1
sVcyilqxp
p2
I1
s.(dp0
Vczwl11e
p1
I1
sVcyilqxp
p2
I1
s.(dp0
Vczwl11e
p1
I1
sVcyilqxp
p2
I1
s.(dp0
Vczwl11e
p1
I1
sVcyilqxp
p2
I1
s.(dp0
Vczwl11e
p1
I1
sVcyilqxp
p2
I1
s.(dp0
Vczwvnis
p1
I1
sVcyilqxp
p2
I1
s.(dp0
Vczwvorf
p1
I1
sVcyilqxp
p2
I1
s.(dp0
Vcyilqxp
p1
I1
sVczwz8j6
p2
I1
s.(dp0
Vczxwuwi
p1
I1
sVcyilqxp
p2
I1
s.(dp0
Vczynbei
p1
I1
sVcyilqxp
p2
I1
s.(dp0
Vczyy8r4
p1
I1
sVcyilqxp
p2
I1
s.(dp0
Vczyy8r4
p1
I1
sVcyilqxp
p2
I1
s.(dp0
Vcyilqxp
p1
I1
sVczzntw4
p2
I1
s.(dp0
Vczzoiyn
p1
I1
sVcyilqxp
p2
I1
s.(dp0
Vczzoiyn
p1
I1
sVcyilqxp
p2
I1
s.(dp0
Vczzoiyn
p1
I1
sVcyilqxp
p2
I1
s.(dp0
Vczzoiyn
p1
I1
sVcyilqxp
p2
I1
s.(dp0
Vcyilqxp
p1
I1
sVczzpe1r
p2
I1
s.(dp0
Vcyilqxp
p1
I1
sVczzpki8
p2
I1
s.(dp0
Vczzv4s5
p1
I1
sVcyilqxp
p2
I1
s.(dp0
Vczzvejk
p1
I1
sVcyilqxp
p2
I1
s.(dp0
Vczzvejk
p1
I1
sVcyilqxp
p2
I1
s.(dp0
Vcyilqxp
p1
I1
sVczzwt1e
p2
I1
s.(dp0
Vczzyfpp
p1
I1
sVcyilqxp
p2
I1
s.(dp0
Vczzyfpp
p1
I1
sVcyilqxp
p2
I1
s.(dp0
Vczzyfpp
p1
I1
sVcyilqxp
p2
I1
s.(dp0
Vczzyfpp
p1
I1
sVcyilqxp
p2
I1
s.(dp0
Vczzyfpp
p1
I1
sVcyilqxp
p2
I1
s.(dp0
Vczzyfpp
p1
I1
sVcyilqxp
p2
I1
s.(dp0
Vd004dvx
p1
I1
sVcyilqxp
p2
I1
s.(dp0
Vd0071hn
p1
I1
sVcyilqxp
p2
I1
s.(dp0
Vd0071hn
p1
I1
sVcyilqxp
p2
I1
s.(dp0
Vd00gb2m
p1
I1
sVcyilqxp
p2
I1
s.(dp0
Vcyilqxp
p1
I1
sVd0138co
p2
I1
s.(dp0
Vd02fdyv
p1
I1
sVcyilqxp
p2
I1
s.(dp0
Vd076dp6
p1
I1
sVcyilqxp
p2
I1
s.(dp0
Vd07ehpz
p1
I1
sVcyilqxp
p2
I1
s.(dp0
Vd07frrh
p1
I1
sVcyilqxp
p2
I1
s.(dp0
Vcyilqxp
p1
I1
sVd080vnz
p2
I1
s.(dp0
Vcy(dp0
Vdtbd2b4
p1
I1
sVcyilqxp
p2
I1
s.