(dp0
Vdr1fq0s
p1
I1
sVdilc5f6
p2
I1
sVdexpa1b
p3
I1
sVdd4d9j5
p4
I1
sVdcuqwlr
p5
I1
sVdhsxq5t
p6
I1
sVd1spjfr
p7
I1
sVd2nc4pa
p8
I1
sVd0cpiv0
p9
I1
sVd7ns2xz
p10
I2
sVd7hp91j
p11
I1
sVcysx0ti
p12
I2
sVdj59x95
p13
I1
sVczqu19v
p14
I1
sVd18lf9f
p15
I1
sVdfiljn4
p16
I1
sVdf5sisk
p17
I1
sVdiebnnf
p18
I1
sVdbcu8ao
p19
I1
sVd97yb5u
p20
I1
sVd5ohkiq
p21
I1
sVd7bnolu
p22
I1
sVd970qjq
p23
I1
sVdbhoisc
p24
I1
sVd96lzii
p25
I1
sVdreotuj
p26
I1
sVdilhe3r
p27
I2
sVddmvod8
p28
I3
sVd5h5hjb
p29
I1
sVd7wuiq5
p30
I1
sVdraps5n
p31
I1
sVdhjcjke
p32
I1
sVdfjmsj4
p33
I1
sVdn8t6rf
p34
I2
sVdgvxa1p
p35
I1
sVd1vtqkz
p36
I1
sVdmx9gz2
p37
I1
sVdcsysch
p38
I3
sVd8hisk6
p39
I1
sVdk29vi7
p40
I1
sVdck48u4
p41
I1
sVdhjo0lz
p42
I1
sVd2qexzn
p43
I1
sVdqk0dmr
p44
I1
sVd3elc8f
p45
I2
sVd1e7zps
p46
I1
sVdo6k49w
p47
I1
sVd2gdwyw
p48
I1
sVdgmwd2f
p49
I3
sVd2o46wg
p50
I1
sVddk96gw
p51
I1
sVd3l2yaj
p52
I1
sVdhwg6lv
p53
I1
sVd2508lb
p54
I1
sVda6df48
p55
I1
sVd18z2ii
p56
I1
sVddycb8s
p57
I1
sVde9t9vf
p58
I1
sVdpsxokm
p59
I1
sVdgzmgy3
p60
I1
sVdok8nsk
p61
I1
sVdq5ldc5
p62
I1
sVd5n7s2e
p63
I1
sVdr4pjw0
p64
I1
sVd6dooto
p65
I1
sVdffra2p
p66
I1
sVdnkl4lc
p67
I1
sVdc4vs61
p68
I1
sVdb6gktr
p69
I1
sVdq08xju
p70
I1
sVd6qaz7k
p71
I1
sVczd9qsq
p72
I1
sVdbisx1o
p73
I1
sVd9n0jhx
p74
I1
sVd0spjwr
p75
I1
sVd87uzwh
p76
I1
sVdnj280v
p77
I1
sVd8yhmn1
p78
I2
sVdblb5lx
p79
I1
sVd1d9pcy
p80
I1
sVd03wtsa
p81
I1
sVd77qato
p82
I1
sVd9cgck1
p83
I1
sVcyw89u3
p84
I1
sVd2v24ka
p85
I1
sVd9absxc
p86
I1
sVd9fxd8z
p87
I1
sVda4hyud
p88
I1
sVdmu8alr
p89
I1
sVdb0maug
p90
I1
sVd09mj42
p91
I1
sVcyshcui
p92
I1
sVdkbnsyy
p93
I5
sVdrmzdmn
p94
I1
sVd7y5uql
p95
I2
sVdfdyush
p96
I1
sVde7t2cl
p97
I1
sVd4fp24m
p98
I1
sVd59e75v
p99
I1
sVdjpemgk
p100
I1
sVd2r0tet
p101
I2
sVdcj2aqv
p102
I1
sVdbdhxgr
p103
I1
sVd9c2anf
p104
I1
sVczza1j3
p105
I1
sVd3p7rlp
p106
I1
sVd3xofn9
p107
I1
sVd2ts93g
p108
I1
sVczx9b2q
p109
I1
sVd7o084a
p110
I1
sVdhpbwlh
p111
I1
sVd2ehn9g
p112
I2
sVd1hcx72
p113
I1
sVdc4offd
p114
I1
sVdsybp16
p115
I1
sVczicv9v
p116
I1
sVcyli5p1
p117
I1
sVdpa3wgc
p118
I1
sVdnnjpld
p119
I1
sVdtgdgqv
p120
I1
sVdkazndw
p121
I1
sVd0sinye
p122
I1
sVd55q5bq
p123
I1
sVd5piwea
p124
I1
sVd9qdqa8
p125
I1
sVdemwo8n
p126
I1
sVdf9j90e
p127
I1
sVdklo4i8
p128
I1
sVdqinris
p129
I1
sVd00hhga
p130
I1
sVdmhrheo
p131
I3
sVdjisugv
p132
I2
sVdilorq7
p133
I1
sVdnua5w4
p134
I1
sVdt52vf4
p135
I1
sVdobf3zi
p136
I1
sVdd3djvw
p137
I1
sVddsyswh
p138
I2
sVd0cvw2l
p139
I1
sVdetplc4
p140
I1
sVd0htp3d
p141
I1
sVdd4zjhh
p142
I1
sVddf0clx
p143
I1
sVd5fvin5
p144
I1
sVdk3ccoj
p145
I2
sVd44jys3
p146
I1
sVdgkx8ux
p147
I1
sVd16pjhw
p148
I2
sVdeb06ft
p149
I1
sVdjy8kgn
p150
I1
sVd93wdun
p151
I1
sVcz0orp0
p152
I1
sVd13l481
p153
I2
sVd0qyr8d
p154
I1
sVd9qv0c7
p155
I1
sVdghxxsg
p156
I1
sVd5z2pd3
p157
I1
sVcyv8sdh
p158
I2
sVdsq65hl
p159
I1
sVdelmps7
p160
I1
sVd8jyaxn
p161
I2
sVdc9ab34
p162
I1
sVdfsxhtr
p163
I1
sVd6xer6q
p164
I1
sVdayadmp
p165
I1
sVdn5bylp
p166
I1
sVdfzwxi5
p167
I1
sVczzj7zl
p168
I1
sVdepgwx3
p169
I3
sVdd90u6g
p170
I1
sVd7o89p8
p171
I1
sVdcx5amm
p172
I1
sVddm76v0
p173
I1
sVdmztsdi
p174
I2
sVdorilp4
p175
I1
sVczkm65j
p176
I1
sVd7mfr96
p177
I1
sVd1uaic1
p178
I1
sVdp3r2hd
p179
I1
sVd0alo57
p180
I1
sVdrwzfyo
p181
I1
sVd5k5ggr
p182
I1
sVdq62bp7
p183
I1
sVd3k7t87
p184
I1
sVdiioham
p185
I1
sVddexzak
p186
I1
sVd4z1mo0
p187
I1
sVdb0zrnm
p188
I1
sVdekd0br
p189
I1
sVcywddy1
p190
I1
sVd950yb8
p191
I1
sVdcrfrjc
p192
I1
sVd3ae07l
p193
I1
sVd4i58zi
p194
I1
sVdmj3059
p195
I1
sVd277ykm
p196
I1
sVdf5xm6v
p197
I1
sVd4x08cg
p198
I1
sVda9ev7b
p199
I1
sVdf9ttro
p200
I1
sVd7i3wh1
p201
I1
sVd02ekvq
p202
I1
sVde9rkzl
p203
I1
sVdn73fju
p204
I1
sVdne9hmw
p205
I1
sVd3avkwu
p206
I1
sVde6l0gx
p207
I1
sVdb0z8r5
p208
I1
sVda9t7h3
p209
I1
sVdi9hzic
p210
I1
sVdngks1x
p211
I1
sVd0wa86u
p212
I1
sVd6rkp9u
p213
I1
sVdsfth6v
p214
I1
sVdcjev9h
p215
I1
sVd7kr1d6
p216
I1
sVd1s978t
p217
I1
sVd4sjfhu
p218
I1
sVdjppmsd
p219
I1
sVd7uxj9l
p220
I1
sVdb30lpn
p221
I1
sVdb7imyn
p222
I2
sVddzbtsu
p223
I1
sVd6c5wbc
p224
I3
sVd5x3olp
p225
I1
sVdnjtptz
p226
I1
sVd2jbgab
p227
I1
sVd0po13i
p228
I1
sVdsuqt8d
p229
I1
sVdegkbep
p230
I2
sVcymfkxw
p231
I1
sVd7ramay
p232
I1
sVdspeqyu
p233
I1
sVdsxaz24
p234
I1
sVd2hve8n
p235
I1
sVd3noyxd
p236
I1
sVd5n391v
p237
I1
sVd1qlf94
p238
I1
sVdi9fs05
p239
I1
sVd5yoyva
p240
I1
sVdkbrxrb
p241
I1
sVd1uuhz7
p242
I1
sVd5ez62i
p243
I1
sVd68kwk9
p244
I1
sVdeaekrv
p245
I2
sVcyttgkm
p246
I1
sVd8ykve8
p247
I1
sVd65n21q
p248
I1
sVd9afjzc
p249
I1
sVdfpttaa
p250
I1
sVdfgqryo
p251
I1
sVd1d9jxe
p252
I1
sVdjcr88n
p253
I1
sVdi7is4x
p254
I1
sVdf0wp9g
p255
I2
sVd3t9jld
p256
I4
sVcyo16o1
p257
I1
sVdbhnptn
p258
I1
sVd24hhia
p259
I1
sVdiwppad
p260
I1
sVd22wyky
p261
I1
sVd3y0uja
p262
I1
sVdaouvnp
p263
I1
sVdbjd7n8
p264
I1
sVd1ttu7p
p265
I1
sVdgo9kf2
p266
I1
sVdf6ddwe
p267
I1
sVdmj8wn7
p268
I2
sVd6vxogx
p269
I2
sVd7oppv0
p270
I1
sVd03bag2
p271
I1
sVdklyrmr
p272
I1
sVczqlpar
p273
I1
sVd3e0yb5
p274
I1
sVdf64mly
p275
I1
sVdafbas0
p276
I1
sVd4w07vx
p277
I1
sVdcb2zog
p278
I1
sVd7kz6vb
p279
I1
sVd7sncu8
p280
I1
sVd9ci0ea
p281
I1
sVd97xm8b
p282
I1
sVd31fmzl
p283
I1
sVd7ls8r6
p284
I1
sVdrmtwgz
p285
I1
sVd9n4plp
p286
I1
sVd081cm3
p287
I1
sVdrth3bf
p288
I1
sVd9vlxi7
p289
I1
sVdi0ttgn
p290
I1
sVdsp40w1
p291
I2
sVd8gr9cm
p292
I1
sVd98w20w
p293
I1
sVd9x5821
p294
I1
sVd2je0t5
p295
I1
sVdpyb5jp
p296
I1
sVdkb1x43
p297
I1
sVde6xogk
p298
I1
sVcz06mty
p299
I1
sVd7xx267
p300
I4
sVdo5egvp
p301
I1
sVdbx8hha
p302
I1
sVczydmry
p303
I1
sVd1sq89h
p304
I1
sVdfvkj0h
p305
I1
sVdew7tji
p306
I1
sVdev0ks4
p307
I1
sVdq0pupa
p308
I2
sVds35mx2
p309
I1
sVdfqo1cv
p310
I1
sVd7ey104
p311
I1
sVddt6maa
p312
I1
sVdkqqgur
p313
I1
sVd7cnqmj
p314
I1
sVdbybab0
p315
I1
sVdsg6l01
p316
I1
sVdcy98sc
p317
I1
sVdcrj0ww
p318
I1
sVddo961k
p319
I1
sVdf10h6j
p320
I1
sVdb01in9
p321
I2
sVdir152f
p322
I1
sVd27pks9
p323
I1
sVcynbb3v
p324
I1
sVd8xh4xo
p325
I1
sVd59v2o8
p326
I1
sVd2w97an
p327
I1
sVd2gdimn
p328
I1
sVd2uumh2
p329
I1
sVd8eyirh
p330
I1
sVd1mawko
p331
I1
sVd60q6dm
p332
I1
sVd7d6a4b
p333
I1
sVdd6pbhr
p334
I1
sVczwxp1z
p335
I1
sVd02m25z
p336
I1
sVdhi68cr
p337
I1
sVdk4n0xl
p338
I1
sVcym9due
p339
I1
sVdqkk1px
p340
I1
sVd14rr78
p341
I1
sVdeav75x
p342
I1
sVd7rafgy
p343
I2
sVd42pw4s
p344
I1
sVdex77ib
p345
I1
sVdqrjusb
p346
I3
sVd3jukbm
p347
I1
sVdeibffw
p348
I1
sVd2o6vmo
p349
I1
sVdmsvqzw
p350
I2
sVcyquqc3
p351
I3
sVdcsd1bu
p352
I5
sVcyu6xdn
p353
I1
sVdd6f6p6
p354
I1
sVdobfark
p355
I1
sVdgvuvt1
p356
I1
sVdagcopk
p357
I1
sVdgb2y0m
p358
I1
sVdtf2t3d
p359
I1
sVd4ukbvl
p360
I2
sVdj3wk45
p361
I1
sVds56du9
p362
I1
sVdb5nuhk
p363
I1
sVczuw6g0
p364
I1
sVdbg1jpq
p365
I1
sVd3m1sy3
p366
I2
sVd2pmoqo
p367
I1
sVdca30ka
p368
I1
sVdgqxah3
p369
I1
sVdff0d2d
p370
I2
sVd56od8t
p371
I1
sVd3ty0v1
p372
I1
sVcz9x2pn
p373
I1
sVd5xbszk
p374
I1
sVdnik84b
p375
I1
sVd8oo3vt
p376
I3
sVd33bird
p377
I1
sVd5ed0s1
p378
I1
sVdczuepl
p379
I1
sVdgu65u1
p380
I1
sVdabjubv
p381
I1
sVdfgqcsc
p382
I1
sVdbze0tv
p383
I1
sVd4f8tov
p384
I1
sVd059ac2
p385
I1
sVcyqv05g
p386
I1
sVd95xr7i
p387
I1
sVczdulez
p388
I1
sVdf3eomq
p389
I2
sVdiioxro
p390
I1
sVddhx4o1
p391
I1
sVdfvoqd2
p392
I1
sVd5jt7v9
p393
I2
sVdh87arn
p394
I1
sVddx7f46
p395
I1
sVczif8i9
p396
I1
sVdaq9zww
p397
I1
sVd7pm5io
p398
I1
sVddtny95
p399
I1
sVcz7g6ni
p400
I1
sVdbf2le7
p401
I1
sVd7hbjt0
p402
I1
sVdq0cgs2
p403
I1
sVd67e3ng
p404
I1
sVdghhq1c
p405
I1
sVdo1fskp
p406
I1
sVdj3v58l
p407
I1
sVdge8n78
p408
I1
sVdh0texb
p409
I1
sVdmu8q7z
p410
I1
sVdc204ha
p411
I1
sVdc86g68
p412
I1
sVdaezlvq
p413
I1
sVdb7h5rv
p414
I1
sVdf6ug6u
p415
I1
sVd0p7wce
p416
I1
sVdskz8p5
p417
I1
sVd07t6ov
p418
I4
sVdopnfnb
p419
I1
sVcyw2gea
p420
I2
sVcyrg6mm
p421
I1
sVdfyow7b
p422
I2
sVd69lnt4
p423
I1
sVddv7ppv
p424
I1
sVdga76zx
p425
I1
sVd1v0675
p426
I1
sVcz3n081
p427
I1
sVcyxayrt
p428
I1
sVd5hfa6r
p429
I1
sVd17vr1y
p430
I1
sVd8ox6d1
p431
I1
sVdpfamrw
p432
I1
sVddih3q8
p433
I1
sVd51ezpy
p434
I1
sVcz4n4qm
p435
I1
sVd3bm2s8
p436
I1
sVdqbykif
p437
I1
sVd9jaqmi
p438
I1
sVdhzgj9u
p439
I1
sVd6tbv4a
p440
I4
sVdq1zc0w
p441
I1
sVdskb0xn
p442
I1
sVdd29a73
p443
I1
sVdax3by2
p444
I1
sVdcgqy2r
p445
I1
sVds2l6ql
p446
I1
sVdhs6hmi
p447
I1
sVd3uh154
p448
I1
sVcyxwmqf
p449
I1
sVd2o12d7
p450
I2
sVd18yk6k
p451
I1
sVd8wud10
p452
I1
sVdt0cn1r
p453
I1
sVcz2jamd
p454
I1
sVdhjpmuq
p455
I1
sVd9n3yup
p456
I1
sVd53inkx
p457
I1
sVdciab1a
p458
I1
sVdanuil5
p459
I1
sVd74a77d
p460
I1
sVdqncd3d
p461
I1
sVdgynznc
p462
I1
sVdo4xfvi
p463
I1
sVcyl2xxy
p464
I1
sVdoni9or
p465
I1
sVd1qv8t1
p466
I2
sVd4vmtq2
p467
I1
sVdf35g15
p468
I1
sVd8pery7
p469
I1
sVd5nf0d2
p470
I1
sVd1e66xr
p471
I1
sVd26tql5
p472
I1
sVddd4c1c
p473
I1
sVd6co03h
p474
I1
sVd5x6v8s
p475
I1
sVcz6mddo
p476
I2
sVdiwvosr
p477
I1
sVcysvlzh
p478
I1
sVd9fvdpj
p479
I1
sVd8c3vz9
p480
I1
sVdaqipfb
p481
I1
sVczwj1xl
p482
I1
sVdbdqhph
p483
I1
sVd1wqku6
p484
I1
sVdau594l
p485
I1
sVdp3m6o2
p486
I1
sVcz7glts
p487
I2
sVd4fb6fm
p488
I1
sVcytxsm6
p489
I3
sVd4zpojf
p490
I1
sVd15hi6g
p491
I1
sVd00361w
p492
I1
sVdmz8lvv
p493
I1
sVdi6k80b
p494
I1
sVd1ozf8m
p495
I1
sVdhn6qo6
p496
I2
sVd03xarg
p497
I2
sVdgey1tx
p498
I1
sVczzw9qi
p499
I2
sVdgq6n5a
p500
I1
sVd3lmn0i
p501
I1
sVdiwf2j2
p502
I3
sVdhcpli9
p503
I1
sVdbfjjdp
p504
I1
sVdkkkht4
p505
I1
sVd8sypzx
p506
I1
sVdh30tye
p507
I1
sVd6bu4j1
p508
I1
sVd0c1zf5
p509
I2
sVd49jpax
p510
I2
sVd0a51pb
p511
I1
sVd9htjwe
p512
I1
sVczowruf
p513
I1
sVdjzvxou
p514
I1
sVd1c8y9n
p515
I1
sVdodv672
p516
I1
sVdo7qi09
p517
I1
sVd860yq8
p518
I1
sVd0dxjb0
p519
I1
sVd55qin1
p520
I1
sVd9k62cg
p521
I1
sVdcgb2ne
p522
I1
sVd77ce34
p523
I1
sVd1lzsqs
p524
I1
sVdmuel71
p525
I1
sVdoyvyi7
p526
I1
sVd4x6uo5
p527
I2
sVd9h71g6
p528
I2
sVd1zajl6
p529
I1
sVd5hyehs
p530
I1
sVd2rd2q0
p531
I1
sVdnperov
p532
I1
sVdor6yfm
p533
I1
sVdey1y9j
p534
I1
sVd1d8e0m
p535
I1
sVd1t880z
p536
I2
sVd8k7vnb
p537
I1
sVd9k9jzj
p538
I1
sVdh5fspw
p539
I1
sVd7yimzr
p540
I1
sVcznf5rc
p541
I1
sVdbilq9v
p542
I2
sVdn9bg52
p543
I1
sVcyi6uq8
p544
I1
sVda8yj15
p545
I1
sVda11sv9
p546
I2
sVd8f5qom
p547
I1
sVd4ya0pi
p548
I1
sVczjtjmp
p549
I1
sVdmja3tc
p550
I1
sVd3rtjw6
p551
I1
sVdbdl5c3
p552
I1
sVd9rmjnf
p553
I1
sVcymrota
p554
I1
sVdkbucqg
p555
I1
sVd95ztsp
p556
I2
sVdeym8ho
p557
I1
sVd6d1zzs
p558
I1
sVdi3z62x
p559
I1
sVd04bdy7
p560
I1
sVd67phzf
p561
I1
sVdhql68x
p562
I1
sVd2gv7kx
p563
I1
sVds22cmy
p564
I1
sVd6zm1oz
p565
I1
sVd815zbr
p566
I1
sVd0ru9oh
p567
I1
sVd4rkkm0
p568
I9
sVdpowfv0
p569
I1
sVd8n7ivg
p570
I1
sVd18aa6v
p571
I3
sVd7luna1
p572
I1
sVdg6b4cf
p573
I1
sVddo8eq1
p574
I1
sVdi41wgs
p575
I1
sVdfklei1
p576
I1
sVdgyuicf
p577
I1
sVdnh9su7
p578
I2
sVdew2fux
p579
I1
sVdjv5wx6
p580
I2
sVd8rtm6h
p581
I1
sVd7ze8r5
p582
I1
sVd8zxz0o
p583
I1
sVd4euxis
p584
I1
sVd24h8j7
p585
I1
sVdrg5stg
p586
I1
sVczxsbzk
p587
I1
sVde7da29
p588
I1
sVdcve8pn
p589
I1
sVdd9eg21
p590
I1
sVdn63n3f
p591
I1
sVdjgbvmz
p592
I1
sVdiobj0c
p593
I1
sVd5acqxd
p594
I1
sVdppzyn1
p595
I1
sVdqkkjjo
p596
I1
sVd5hmc19
p597
I1
sVd15rwt3
p598
I1
sVd9uk07e
p599
I2
sVdctamto
p600
I1
sVd3yqnfu
p601
I1
sVdd07ql1
p602
I1
sVd1u42e9
p603
I1
sVdcy8sek
p604
I1
sVdg5g40r
p605
I1
sVd1jynqx
p606
I1
sVdcwtl7g
p607
I2
sVd7ocsj7
p608
I1
sVdoc69zt
p609
I1
sVd985osd
p610
I1
sVda302l1
p611
I1
sVdfp6pgf
p612
I1
sVczfxsjl
p613
I3
sVd5tga5x
p614
I1
sVd6gb9lr
p615
I1
sVdkdb3jc
p616
I1
sVcz0xqiz
p617
I1
sVd1otzue
p618
I1
sVd7hyxin
p619
I1
sVdag8pfl
p620
I1
sVd7k3tt3
p621
I1
sVd5v1lgv
p622
I1
sVdcpmp6k
p623
I1
sVdhwm9lz
p624
I2
sVdbx6gsy
p625
I1
sVds1qswp
p626
I3
sVd47boej
p627
I1
sVdtfjqk8
p628
I1
sVdia2jen
p629
I1
sVdcdj7x8
p630
I1
sVdku0kjp
p631
I1
sVd1euz6b
p632
I1
sVd724xsr
p633
I1
sVd6w9i5i
p634
I1
sVddfdoag
p635
I1
sVdpnam20
p636
I1
sVd1j1t7j
p637
I1
sVd3q36zj
p638
I1
sVd0qpelf
p639
I1
sVd3lade0
p640
I1
sVd6kwnvu
p641
I1
sVd8o6738
p642
I1
sVd36yk3y
p643
I1
sVd0xc0w0
p644
I1
sVd68j5ww
p645
I1
sVdrd8p5c
p646
I1
sVdeptwfy
p647
I1
sVd0yuwd5
p648
I1
sVd67bx66
p649
I1
sVd67ycv1
p650
I1
sVd4fj16g
p651
I1
sVd152k5f
p652
I1
sVd6o0zof
p653
I2
sVd3lpfou
p654
I1
sVd5e5p8b
p655
I1
sVdo93m9f
p656
I1
sVd4fcfl5
p657
I5
sVdevzssr
p658
I1
sVdbgwjry
p659
I2
sVdgzn9wz
p660
I1
sVd2705ot
p661
I1
sVdg1avfa
p662
I3
sVczr9vkj
p663
I1
sVd0mo3b9
p664
I1
sVd0438of
p665
I1
sVd2hjaw8
p666
I1
sVd1bojnn
p667
I1
sVd3i9863
p668
I1
sVd6vw14g
p669
I1
sVcyqy5vz
p670
I1
sVdfji0xj
p671
I1
sVd27glxe
p672
I1
sVczv3lej
p673
I2
sVd04z2ol
p674
I1
sVdr5ws3j
p675
I1
sVczqvz1o
p676
I1
sVdenhs3u
p677
I1
sVdk4zx3q
p678
I1
sVdjsiryy
p679
I1
sVdc0a3bx
p680
I1
sVdb8uy1w
p681
I1
sVdexu046
p682
I1
sVd0sj54y
p683
I1
sVd4l487o
p684
I1
sVd299u4h
p685
I1
sVdoccaqa
p686
I1
sVd84g9yx
p687
I1
sVdes7bkr
p688
I1
sVcykb23d
p689
I1
sVd6wafp8
p690
I1
sVd1klv2g
p691
I3
sVd06gpvv
p692
I1
sVd2o4b1q
p693
I1
sVd95rgy0
p694
I1
sVd3ouqrc
p695
I1
sVdfwtwpv
p696
I1
sVdof6lrd
p697
I1
sVczk92uq
p698
I1
sVd58hdtf
p699
I1
sVd706llk
p700
I1
sVd94hw4y
p701
I2
sVd2n03vg
p702
I1
sVd4iwpyq
p703
I2
sVd2ubgbq
p704
I1
sVd68sr08
p705
I1
sVddl3u57
p706
I1
sVd1n7bhr
p707
I1
sVd9y0u1q
p708
I1
sVdfilbep
p709
I3
sVdbhstj3
p710
I1
sVdiktlfo
p711
I1
sVd9jkw84
p712
I1
sVd9j3v27
p713
I1
sVd0lku15
p714
I1
sVd4is5df
p715
I1
sVdj072na
p716
I1
sVdrxk0mu
p717
I1
sVdinpo9x
p718
I1
sVdkuwvft
p719
I1
sVd27gt7q
p720
I1
sVd5ptb9d
p721
I1
sVcz27fbs
p722
I1
sVdrz5yj0
p723
I1
sVdaojw5d
p724
I1
sVd4zipbj
p725
I1
sVd2i0sug
p726
I2
sVdno17xg
p727
I1
sVdcibq5g
p728
I1
sVd59jryh
p729
I2
sVd7hwxtx
p730
I1
sVd51o8si
p731
I1
sVczooh8o
p732
I1
sVdhz5cju
p733
I2
sVd0za7zt
p734
I1
sVd6kprvw
p735
I2
sVdqhty4u
p736
I2
sVdeqcwt3
p737
I1
sVd83wcov
p738
I1
sVd7514xg
p739
I1
sVdddunfr
p740
I1
sVdhayhyw
p741
I3
sVd35qxmk
p742
I1
sVdi5ki3e
p743
I2
sVddsaqow
p744
I1
sVd3rz8cs
p745
I1
sVd3hjp96
p746
I1
sVd120804
p747
I1
sVcyobjqo
p748
I1
sVd4dml4m
p749
I1
sVdfytckg
p750
I1
sVdfpleyq
p751
I1
sVdnkjb6w
p752
I1
sVd3rk4l8
p753
I3
sVdqcjxf9
p754
I1
sVdav76ej
p755
I1
sVd6x7mb6
p756
I2
sVdrscq8p
p757
I1
sVdenon6l
p758
I1
sVdds4v6w
p759
I1
sVd5o8z2q
p760
I1
sVd5g1qtj
p761
I1
sVdbcbl66
p762
I1
sVdi0hyrz
p763
I1
sVdknfqsj
p764
I2
sVcymwdac
p765
I1
sVdqvrcrg
p766
I1
sVdcvwxmb
p767
I1
sVde537d8
p768
I1
sVdspas0o
p769
I1
sVdcdb0dk
p770
I1
sVdt9fbjn
p771
I1
sVdpuca48
p772
I1
sVdcjbhdr
p773
I1
sVdmfpxih
p774
I2
sVdpok5nd
p775
I1
sVd4fdncn
p776
I1
sVdft142i
p777
I1
sVcz8uypn
p778
I1
sVdg342da
p779
I1
sVd7pppqv
p780
I1
sVd6p2xlr
p781
I3
sVd1d8ooq
p782
I1
sVd4ztson
p783
I1
sVcznxaar
p784
I1
sVd7llmkx
p785
I1
sVdcdvlqr
p786
I1
sVdg6szco
p787
I1
sVdfmkaor
p788
I1
sVd86o878
p789
I1
sVd3mb02u
p790
I1
sVd9hth2z
p791
I1
sVczhk1it
p792
I1
sVdir6i2j
p793
I1
sVdjfxbiz
p794
I1
sVdaytky5
p795
I2
sVd2g72yt
p796
I1
sVcyzho28
p797
I1
sVdeq2g66
p798
I1
sVdovxjki
p799
I1
sVdopy88r
p800
I1
sVdentxft
p801
I1
sVdazhxqj
p802
I1
sVdclnw4s
p803
I1
sVd7bjfgm
p804
I1
sVdflvf6p
p805
I1
sVd27i0zf
p806
I1
sVdjhhtos
p807
I1
sVdspxvcd
p808
I2
sVd46n56h
p809
I1
sVd1vu4e9
p810
I2
sVdt3kuo1
p811
I1
sVdk8z17z
p812
I1
sVd4t367s
p813
I1
sVd3532fh
p814
I1
sVd9lc8hj
p815
I1
sVd8pn69p
p816
I1
sVd7fv4ev
p817
I1
sVd64jy3z
p818
I1
sVd1vx83b
p819
I1
sVdgziye7
p820
I2
sVdh28gmi
p821
I1
sVd2tzz2k
p822
I1
sVd8k8ri9
p823
I1
sVdq0t6ar
p824
I1
sVdhq8dgc
p825
I1
sVdr69lmf
p826
I1
sVd2ph0w2
p827
I1
sVdoegpeb
p828
I1
sVdbi79i9
p829
I3
sVdbfioj0
p830
I1
sVd2qylcn
p831
I1
sVd5qv225
p832
I1
sVd0alej7
p833
I1
sVd5o8prt
p834
I1
sVd3epabx
p835
I1
sVdbklxj9
p836
I1
sVcz4l3ov
p837
I1
sVdfunbk6
p838
I1
sVcyntmzl
p839
I1
sVdh6meyx
p840
I1
sVd1hzxgv
p841
I1
sVdgzkoar
p842
I1
sVd14klu2
p843
I1
sVd2xgpef
p844
I1
sVdtd3yzi
p845
I1
sVdaw8l80
p846
I2
sVd1c3p84
p847
I3
sVd4cvnek
p848
I1
sVd5g9c9k
p849
I1
sVd061ftu
p850
I1
sVd2gg0qs
p851
I1
sVd52ncwt
p852
I1
sVdt75qmu
p853
I1
sVdn6agii
p854
I1
sVddvd0qh
p855
I1
sVd3p0iez
p856
I1
sVd136vk3
p857
I1
sVd0ehn24
p858
I1
sVd12z9x9
p859
I1
sVd97syzp
p860
I1
sVd2d7n8k
p861
I1
sVdb3pt7f
p862
I2
sVdej0ges
p863
I1
sVdhxz6o4
p864
I1
sVd8ce9os
p865
I1
sVdrfndhf
p866
I2
sVd4rqke7
p867
I1
sVd7uhnn6
p868
I1
sVdmgq6jk
p869
I1
sVdppcm24
p870
I2
sVd5jt31t
p871
I2
sVd91gqwg
p872
I1
sVdbcg5bd
p873
I1
sVdfnu25b
p874
I1
sVdg2djhl
p875
I1
sVdnyd9oj
p876
I2
sVdtaj8uw
p877
I1
sVd96xqaw
p878
I1
sVd3r8ku3
p879
I1
sVd2j5sn9
p880
I1
sVdogrfa7
p881
I1
sVdnajwjc
p882
I1
sVdc3swtk
p883
I1
sVde4qgz4
p884
I1
sVddoxh0p
p885
I1
sVdpk9fdk
p886
I1
sVd5p0kaj
p887
I2
sVd7m3ssn
p888
I1
sVcytsn8o
p889
I1
sVd1lt1dg
p890
I1
sVd2my1ii
p891
I1
sVd2tfx59
p892
I1
sVdb9jt52
p893
I1
sVd7bjux4
p894
I1
sVd0t3di5
p895
I1
sVdfneu3i
p896
I1
sVdg6og5p
p897
I1
sVd31pvmp
p898
I1
sVd68s8ob
p899
I1
sVdtj63oa
p900
I1
sVd18lmyi
p901
I1
sVdj0swrb
p902
I1
sVd8grqiy
p903
I1
sVdnj5ybv
p904
I1
sVd5fxdzy
p905
I1
sVdk0cadv
p906
I1
sVdfz3n68
p907
I1
sVd0jsqcd
p908
I1
sVdb2el2h
p909
I1
sVd5x91k8
p910
I1
sVddkkhyw
p911
I1
sVdfn08g0
p912
I1
sVdepw7uf
p913
I1
sVczwjrvf
p914
I1
sVdfq7fcu
p915
I1
sVdbsafuu
p916
I1
sVdt4a6an
p917
I1
sVdd36aln
p918
I1
sVd5dojhm
p919
I1
sVd97ajfz
p920
I2
sVdav04dh
p921
I1
sVd5gtv2f
p922
I1
sVd47hxfy
p923
I1
sVdcalxvn
p924
I1
sVd16gccc
p925
I1
sVdc8uq9m
p926
I1
sVdopni6w
p927
I1
sVdc7rd46
p928
I1
sVd53iaoc
p929
I1
sVd8iou9c
p930
I1
sVdpcicbk
p931
I1
sVda73h77
p932
I1
sVd1ou9ce
p933
I1
sVd6ydkkd
p934
I1
sVdai4vuv
p935
I2
sVditjknb
p936
I1
sVcytevmk
p937
I1
sVczfadko
p938
I1
sVd712vo4
p939
I1
sVd35ebdr
p940
I1
sVd337ta8
p941
I1
sVd2imlnu
p942
I2
sVd8m20yl
p943
I1
sVd8ymr1o
p944
I2
sVdh6568p
p945
I1
sVd5j38dk
p946
I1
sVd4efidr
p947
I1
sVd02j64q
p948
I1
sVdg982zs
p949
I1
sVd93uon9
p950
I1
sVd37us0y
p951
I2
sVdt8jcor
p952
I1
sVd6rt29e
p953
I1
sVd08ykki
p954
I1
sVdr1xz2r
p955
I2
sVd14pw11
p956
I1
sVde4t62i
p957
I1
sVd0u3oy5
p958
I1
sVddrfb1i
p959
I1
sVd5ha80a
p960
I1
sVd6ps110
p961
I1
sVd4v0o9b
p962
I1
sVd3591g4
p963
I1
sVd53k7gq
p964
I1
sVdgd3k16
p965
I1
sVdc0lpr0
p966
I1
sVd8jgryh
p967
I2
sVd1e2989
p968
I1
sVd03teht
p969
I1
sVdeou5p7
p970
I1
sVd8d4zcc
p971
I2
sVdr4mmpo
p972
I1
sVdmn4u91
p973
I2
sVcz6xdvv
p974
I1
sVdku8px2
p975
I1
sVdpbzwn2
p976
I1
sVcz3hxx5
p977
I1
sVczvgvmk
p978
I1
sVdeuxugu
p979
I1
sVd3r5hxq
p980
I1
sVd7pbscv
p981
I1
sVdfhuq0r
p982
I1
sVd05agcp
p983
I1
sVd3vi16y
p984
I1
sVdmkkrfm
p985
I1
sVdhq1h7q
p986
I2
sVd08s78i
p987
I1
sVd3e7brk
p988
I1
sVdgussd4
p989
I1
sVd3mivrb
p990
I1
sVdba3z7s
p991
I1
sVd5qargx
p992
I1
sVdc3c2vf
p993
I1
sVd1jht6x
p994
I2
sVdc7tkfe
p995
I1
sVczxh81f
p996
I1
sVd6xowai
p997
I2
sVddbuav3
p998
I2
sVdeqf4vg
p999
I1
sVdcnme6q
p1000
I1
sVdes47om
p1001
I1
sVd7mgixu
p1002
I1
sVdmltq8x
p1003
I1
sVdd7n8ud
p1004
I1
sVdf8mxph
p1005
I1
sVdj1fae8
p1006
I1
sVd55eyl8
p1007
I1
sVd5z7eme
p1008
I1
sVdb558jq
p1009
I1
sVcyurpjs
p1010
I1
sVd7b4gna
p1011
I1
sVd5gtgho
p1012
I1
sVd3l6xg1
p1013
I1
sVdfazw3i
p1014
I1
sVd01d3xy
p1015
I2
sVdboohpj
p1016
I1
sVd5z21gj
p1017
I1
sVdr6chli
p1018
I1
sVddsvon4
p1019
I1
sVdb5q3y7
p1020
I1
sVd1oxxvg
p1021
I2
sVd3pui4p
p1022
I1
sVd8g1inu
p1023
I1
sVczg5eb7
p1024
I1
sVddq1crs
p1025
I1
sVcz0iqpb
p1026
I1
sVda5bnlv
p1027
I1
sVd0hvirz
p1028
I1
sVdf1mzvn
p1029
I1
sVdmm29uz
p1030
I1
sVdnv8sjn
p1031
I1
sVd5g9xx7
p1032
I1
sVdj0plju
p1033
I1
sVcyujb7c
p1034
I1
sVdip8m4m
p1035
I1
sVczjgmz8
p1036
I1
sVd2c49ui
p1037
I1
sVddkfi49
p1038
I1
sVdn82osb
p1039
I2
sVd2da2lc
p1040
I1
sVcz0zw5q
p1041
I3
sVd0efh2l
p1042
I1
sVddt42xr
p1043
I1
sVcze4w7a
p1044
I1
sVczg9bwq
p1045
I2
sVdgt75vn
p1046
I1
sVdatumzd
p1047
I1
sVdcls9wa
p1048
I1
sVd92rvft
p1049
I1
sVdgfknu3
p1050
I1
sVd1ohubw
p1051
I1
sVdawb68e
p1052
I2
sVdfa472i
p1053
I1
sVczm4qok
p1054
I1
sVdg3sy7i
p1055
I1
sVd459sjp
p1056
I1
sVdkrr5qz
p1057
I1
sVcyyc16i
p1058
I2
sVd00ptsq
p1059
I1
sVdnb9w0c
p1060
I1
sVdgsm77r
p1061
I1
sVd3zt825
p1062
I1
sVcztlujb
p1063
I1
sVd417n9l
p1064
I1
sVd3ge1gm
p1065
I3
sVd43cla9
p1066
I1
sVczruslp
p1067
I1
sVd3pxxdx
p1068
I1
sVd3elxgr
p1069
I1
sVd8skfyo
p1070
I1
sVcyqxks8
p1071
I1
sVd42vf3e
p1072
I1
sVdp0jfu6
p1073
I1
sVd8a5xz4
p1074
I1
sVdab5mjz
p1075
I1
sVd3z89y2
p1076
I1
sVdgz1quh
p1077
I1
sVcz7ms6k
p1078
I1
sVdftia6n
p1079
I1
sVd00u82m
p1080
I1
sVd3un4yd
p1081
I1
sVczxstub
p1082
I1
sVdcknryv
p1083
I1
sVd26axte
p1084
I1
sVdblyzyl
p1085
I1
sVdfgjrxz
p1086
I3
sVdd5i8qq
p1087
I1
sVd9bsqrn
p1088
I1
sVd4satj2
p1089
I1
sVdc0si9m
p1090
I1
sVd1fnirv
p1091
I3
sVdo6dtn6
p1092
I1
sVdemwuji
p1093
I1
sVd1a4ssj
p1094
I1
sVd2zcer1
p1095
I1
sVd9orgph
p1096
I1
sVd4gmzri
p1097
I1
sVd0ry8ln
p1098
I1
sVdmzg571
p1099
I1
sVd4k196v
p1100
I1
sVczw5he6
p1101
I2
sVd5tjszm
p1102
I1
sVdcluk41
p1103
I1
sVcz8dscr
p1104
I1
sVd0257ay
p1105
I1
sVd8u9vx2
p1106
I1
sVday8r52
p1107
I2
sVd635ku9
p1108
I1
sVd1a5via
p1109
I2
sVd9dt8iz
p1110
I1
sVdt2vl45
p1111
I2
sVd9lpez8
p1112
I1
sVdiqga0t
p1113
I1
sVdrbx76i
p1114
I1
sVdhx2h20
p1115
I1
sVd4eluv7
p1116
I1
sVdjtyjm2
p1117
I1
sVdpuozqh
p1118
I1
sVd34etbi
p1119
I1
sVd1zx2xb
p1120
I1
sVdswlj0u
p1121
I1
sVdb36sai
p1122
I1
sVdfcqiqj
p1123
I1
sVd7kaky7
p1124
I1
sVd53oihg
p1125
I1
sVdbmhz0y
p1126
I1
sVdh8ffwo
p1127
I1
sVddholi7
p1128
I1
sVdjq5dju
p1129
I1
sVdce72ov
p1130
I1
sVdgnuaix
p1131
I1
sVd1kuh6o
p1132
I1
sVdcxgpe1
p1133
I1
sVd89jh73
p1134
I1
sVd403zv6
p1135
I1
sVdqorpw5
p1136
I1
sVdf1xlx3
p1137
I1
sVdr8his1
p1138
I1
sVd6ai123
p1139
I1
sVd5wcjvj
p1140
I1
sVd0yaae0
p1141
I1
sVd7gz1lv
p1142
I1
sVczsw0hy
p1143
I1
sVd88xm8a
p1144
I1
sVdh8q34w
p1145
I2
sVcyoyfkq
p1146
I1
sVdorh446
p1147
I1
sVdcbw4gw
p1148
I2
sVcylicze
p1149
I1
sVddmoncy
p1150
I1
sVds3fypi
p1151
I1
sVd1yqh1g
p1152
I1
sVdo01npc
p1153
I1
sVdej7za7
p1154
I1
sVd1xozho
p1155
I2
sVdikdnyt
p1156
I1
sVd06l587
p1157
I1
sVddrf2s7
p1158
I1
sVd592gyg
p1159
I1
sVd1edeic
p1160
I2
sVd341mmm
p1161
I1
sVd7n8v0n
p1162
I1
sVd3lcdhb
p1163
I1
sVd0agbmd
p1164
I1
sVdajfivc
p1165
I1
sVdfk1ipq
p1166
I1
sVdck7ne7
p1167
I2
sVdkm01z7
p1168
I1
sVdg32pdr
p1169
I3
sVd7gnhu2
p1170
I1
sVd4wddkx
p1171
I1
sVd6dpore
p1172
I1
sVda9xria
p1173
I1
sVd2c2ida
p1174
I1
sVd7ason0
p1175
I1
sVcyqhpvm
p1176
I1
sVd1v2vwg
p1177
I1
sVdasa672
p1178
I2
sVd2g38xa
p1179
I1
sVdg98ajg
p1180
I1
sVd2z41sv
p1181
I1
sVdi9366y
p1182
I1
sVczpr9of
p1183
I1
sVd4pra54
p1184
I1
sVderum04
p1185
I1
sVdpcig78
p1186
I1
sVdb7yqff
p1187
I4
sVdq9x99s
p1188
I1
sVd0qk3jm
p1189
I1
sVdne7qmy
p1190
I1
sVcysyg8h
p1191
I1
sVd7n6oi7
p1192
I1
sVdn9328j
p1193
I1
sVdgt9ema
p1194
I1
sVdt6yere
p1195
I1
sVdri10ya
p1196
I1
sVdncuqg7
p1197
I1
sVd63zax1
p1198
I1
sVd4jqt2w
p1199
I1
sVd8kfc5d
p1200
I1
sVdnj93et
p1201
I1
sVdn6nt4t
p1202
I1
sVd90tvuk
p1203
I1
sVdh460hb
p1204
I1
sVd5kfx7z
p1205
I1
sVdpmvdr4
p1206
I1
sVczyqtt1
p1207
I1
sVd0en6ri
p1208
I1
sVd8yf97j
p1209
I1
sVdhyjdi0
p1210
I1
sVd2hiyp3
p1211
I1
sVdbxavfy
p1212
I1
sVd1fjb9q
p1213
I1
sVdpu08im
p1214
I2
sVdg7jeid
p1215
I1
sVde3d3zp
p1216
I1
sVcznbuxr
p1217
I1
sVd1v9896
p1218
I1
sVczfn3fj
p1219
I1
sVdf35p3m
p1220
I1
sVdgzkl6y
p1221
I1
sVdc2juhz
p1222
I1
sVddgyc5o
p1223
I1
sVdefsepg
p1224
I1
sVdhm9d3b
p1225
I1
sVd93vac6
p1226
I2
sVczuyzyq
p1227
I1
sVd6ozlxn
p1228
I1
sVd1yd5mo
p1229
I1
sVdifx870
p1230
I1
sVd2b44n1
p1231
I1
sVd2nm1vi
p1232
I1
sVdasg63t
p1233
I1
sVdap0e18
p1234
I1
sVczt7bi9
p1235
I1
sVd82zke2
p1236
I1
sVd938iky
p1237
I1
sVdpq3xu3
p1238
I1
sVd7ffao8
p1239
I1
sVd5hsq97
p1240
I1
sVdgwbcg0
p1241
I1
sVd6f7ymt
p1242
I1
sVdiai4pv
p1243
I1
sVd3xdm5r
p1244
I1
sVdgoy4kk
p1245
I1
sVdcfyb3i
p1246
I1
sVdk0zfn8
p1247
I1
sVdat61nz
p1248
I1
sVcymreiy
p1249
I1
sVd5h7rjm
p1250
I1
sVdr36u8h
p1251
I1
sVd3pghmy
p1252
I1
sVdo71a49
p1253
I1
sVdn3vwfd
p1254
I1
sVd1qbps4
p1255
I1
sVd96rfcv
p1256
I1
sVczm23gm
p1257
I1
sVdgejf9x
p1258
I1
sVczptlkf
p1259
I1
sVdb121fp
p1260
I1
sVddzquho
p1261
I1
sVdg5ykgm
p1262
I1
sVd1oatv3
p1263
I1
sVdd9hhva
p1264
I2
sVd2l6cxc
p1265
I1
sVddkcr7b
p1266
I1
sVdsustqy
p1267
I1
sVdja9cvb
p1268
I1
sVdf1zbja
p1269
I1
sVd1mahls
p1270
I2
sVd6healb
p1271
I1
sVdn6fseg
p1272
I1
sVcz4wn5n
p1273
I1
sVdf3nqse
p1274
I1
sVdbdp3k5
p1275
I1
sVdj6r72p
p1276
I1
sVdfhfw4f
p1277
I1
sVd3mol4c
p1278
I1
sVd4104lz
p1279
I1
sVde6ni62
p1280
I1
sVdeq68wu
p1281
I1
sVdn6t17s
p1282
I1
sVdpmmm4f
p1283
I1
sVcyjqt44
p1284
I1
sVde3nuji
p1285
I1
sVd85p35k
p1286
I1
sVd01yr0m
p1287
I2
sVddb99a4
p1288
I1
sVdbimimq
p1289
I1
sVdhhkx0b
p1290
I1
sVdo4xcd4
p1291
I3
sVd613owv
p1292
I1
sVd9in985
p1293
I1
sVdhatfxh
p1294
I1
sVd8nv41b
p1295
I1
sVdauobmb
p1296
I1
sVd0psyp8
p1297
I1
sVcyyv109
p1298
I1
sVdbuxhim
p1299
I1
sVdcr5j0h
p1300
I1
sVdig705f
p1301
I1
sVdbagept
p1302
I1
sVcz6yhl9
p1303
I1
sVddof6s7
p1304
I4
sVd5kz26c
p1305
I1
sVddygt40
p1306
I1
sVddiiph7
p1307
I1
sVdo1kigt
p1308
I1
sVd1m5eot
p1309
I1
sVdeddy8a
p1310
I1
sVdfnm5vj
p1311
I1
sVdrol2r6
p1312
I1
sVdgdf617
p1313
I1
sVdri3tya
p1314
I1
sVdfb9zxp
p1315
I1
sVd14ohk7
p1316
I1
sVdp2qe4j
p1317
I1
sVdr2iwmc
p1318
I1
sVda86gf3
p1319
I1
sVd2ajh8t
p1320
I1
sVdjlng2l
p1321
I1
sVdd6nung
p1322
I1
sVddcbl41
p1323
I1
sVdn2qfhb
p1324
I1
sVd3zlab3
p1325
I1
sVd64hnl5
p1326
I2
sVd7sxgud
p1327
I1
sVdfajiig
p1328
I1
sVd2msxnm
p1329
I1
sVdn4oe2d
p1330
I1
sVdhfo22g
p1331
I1
sVdmka5se
p1332
I1
sVdgv5cfe
p1333
I1
sVd4uw2fh
p1334
I1
sVcykpnhj
p1335
I1
sVdg8cf9k
p1336
I1
sVd0e95mo
p1337
I1
sVd3q8puc
p1338
I1
sVdn3u7t2
p1339
I1
sVdnb03qt
p1340
I1
sVd4flt73
p1341
I1
sVd5jbq8o
p1342
I1
sVczsivd3
p1343
I1
sVdhqa5yw
p1344
I1
sVd0h0i3u
p1345
I1
sVd1p1z5k
p1346
I2
sVcz1xyxt
p1347
I1
sVczbi1eb
p1348
I1
sVd4kbklf
p1349
I1
sVcz5fggs
p1350
I1
sVd18ehi1
p1351
I2
sVcyokbpi
p1352
I1
sVd1gsnn6
p1353
I1
sVdmq3v4x
p1354
I1
sVdepjp7j
p1355
I1
sVdaadyx4
p1356
I1
sVdie5vxg
p1357
I1
sVd9q1evw
p1358
I1
sVdkq1fmm
p1359
I1
sVd27nibh
p1360
I1
sVd59jpkf
p1361
I1
sVd6i703k
p1362
I1
sVdaux391
p1363
I1
sVdbkl6sp
p1364
I1
sVd77gb8b
p1365
I1
sVd3levef
p1366
I1
sVdgusfi0
p1367
I1
sVd90453o
p1368
I1
sVdbiwgzt
p1369
I2
sVdc0tyaj
p1370
I1
sVd8kirtr
p1371
I1
sVdheufe0
p1372
I1
sVd7542v2
p1373
I1
sVdgf0lmk
p1374
I1
sVd9e9qi9
p1375
I1
sVdhtcbmh
p1376
I1
sVdglf0ez
p1377
I1
sVddpgs5u
p1378
I3
sVdegmvuc
p1379
I1
sVd550a1t
p1380
I1
sVcyvrqcj
p1381
I2
sVd9y6fad
p1382
I1
sVd131nw2
p1383
I1
sVd076o8o
p1384
I1
sVdckjpgi
p1385
I1
sVd9hvkzf
p1386
I2
sVdajt3mw
p1387
I1
sVdji8323
p1388
I1
sVdbthck6
p1389
I1
sVdk5ff3d
p1390
I1
sVd0pmdtk
p1391
I1
sVdtbwm8a
p1392
I1
sVdjofb4k
p1393
I1
sVd8zz3e0
p1394
I1
sVcze5lvk
p1395
I1
sVd29yaol
p1396
I1
sVdmz9kjp
p1397
I2
sVd95mlwy
p1398
I1
sVd012xoi
p1399
I3
sVdsmtkpb
p1400
I1
sVdgm8d7y
p1401
I2
sVdhjhezn
p1402
I1
sVcyvk33j
p1403
I1
sVdkm6ocn
p1404
I1
sVdfu1pky
p1405
I2
sVdaiws4j
p1406
I1
sVd120ai6
p1407
I1
sVcz227oe
p1408
I1
sVdccdr89
p1409
I2
sVdggqdip
p1410
I1
sVds8kvxw
p1411
I1
sVde8mwu0
p1412
I1
sVdk9iijc
p1413
I1
sVdsq1qux
p1414
I5
sVcyj0a3g
p1415
I1
sVddm44w3
p1416
I1
sVd7oe3bp
p1417
I1
sVda8c22h
p1418
I1
sVde5f7dd
p1419
I1
sVd69ccq8
p1420
I1
sVd2cv49k
p1421
I3
sVd4ztmfr
p1422
I1
sVdry7ka3
p1423
I1
sVd1urtsc
p1424
I1
sVdjw0y08
p1425
I2
sVdfxgn2z
p1426
I1
sVd0mqboy
p1427
I1
sVdegcmm8
p1428
I1
sVdgzszve
p1429
I1
sVd220v6u
p1430
I1
sVdjppcp7
p1431
I2
sVd8yt4ly
p1432
I1
sVcz3veob
p1433
I1
sVdggzpfr
p1434
I1
sVd1ttyqg
p1435
I1
sVcyoqw9d
p1436
I1
sVd18u2dm
p1437
I1
sVdceyh4a
p1438
I1
sVdfuhieb
p1439
I1
sVd91lgkx
p1440
I1
sVdboxf81
p1441
I1
sVd16j6s7
p1442
I1
sVd14r4fr
p1443
I2
sVd7st925
p1444
I1
sVdgb3cmh
p1445
I1
sVd18vm92
p1446
I1
sVdcm62g1
p1447
I1
sVdfckzxi
p1448
I1
sVd0yl0cm
p1449
I1
sVdi9m8et
p1450
I1
sVdoa0i0n
p1451
I1
sVdij5x05
p1452
I3
sVdb1o5af
p1453
I1
sVdot6hft
p1454
I1
sVd82b8qs
p1455
I1
sVd2bq8e8
p1456
I1
sVdbgcfuj
p1457
I1
sVdhuvqjm
p1458
I1
sVdt2fzvy
p1459
I1
sVd4vgevt
p1460
I1
sVdng60vo
p1461
I1
sVcyluxi2
p1462
I1
sVdeh20bt
p1463
I2
sVcyyujfv
p1464
I1
sVdaqp1r6
p1465
I1
sVd96hbtn
p1466
I1
sVdnp6uzu
p1467
I1
sVdklw84y
p1468
I6
sVdear4vu
p1469
I1
sVd9e0wxn
p1470
I1
sVd2y67ad
p1471
I2
sVdbusgzu
p1472
I1
sVde22ymn
p1473
I1
sVdgg81y2
p1474
I1
sVd3udzwg
p1475
I1
sVd1dq41h
p1476
I1
sVdhgpsox
p1477
I1
sVd3uz0ov
p1478
I1
sVd7ctm3f
p1479
I1
sVd23ijm4
p1480
I1
sVd0biz38
p1481
I1
sVdaztz58
p1482
I2
sVd11zeem
p1483
I1
sVdku1ksk
p1484
I1
sVd57se45
p1485
I1
sVdeo5hb2
p1486
I1
sVd3q50op
p1487
I1
sVdcdmoqm
p1488
I3
sVd4ua1l3
p1489
I1
sVd72xl1m
p1490
I1
sVdgrlg3k
p1491
I1
sVdj12vjj
p1492
I1
sVdmtugn4
p1493
I1
sVd583p03
p1494
I1
sVdjus1qr
p1495
I1
sVdt7m7n3
p1496
I1
sVd66x0wd
p1497
I1
sVddkfkcl
p1498
I1
sVd3gi40r
p1499
I1
sVde0uj2d
p1500
I1
sVcznixd9
p1501
I1
sVdgbonpx
p1502
I1
sVdmuaaw1
p1503
I3
sVd5s71tw
p1504
I1
sVd8fskyf
p1505
I1
sVd6xm8t7
p1506
I1
sVdgcluvi
p1507
I1
sVd2lnnmh
p1508
I1
sVdbudenq
p1509
I1
sVdqdi7ov
p1510
I1
sVd91djpk
p1511
I1
sVd5sj237
p1512
I1
sVdgk2quy
p1513
I1
sVdi2bifo
p1514
I2
sVdesdd5o
p1515
I1
sVdd3jclu
p1516
I1
sVdc3953e
p1517
I2
sVd06qirt
p1518
I1
sVdidna8f
p1519
I1
sVdn6t7t0
p1520
I1
sVd3xxyx8
p1521
I1
sVd34eyza
p1522
I3
sVdk4pztk
p1523
I1
sVdbm81dq
p1524
I1
sVd7ebdbg
p1525
I1
sVd7fet29
p1526
I1
sVdphqgx1
p1527
I1
sVd35f1oy
p1528
I1
sVdp9tfzn
p1529
I1
sVd868ae3
p1530
I1
sVczghf98
p1531
I3
sVddzx5e3
p1532
I1
sVdfucdfm
p1533
I1
sVdaq8etw
p1534
I1
sVddf2zsi
p1535
I2
sVdeuxnc1
p1536
I1
sVde60mbs
p1537
I1
sVd3ab06y
p1538
I2
sVdhhywrf
p1539
I1
sVczctj9x
p1540
I1
sVd2pybox
p1541
I1
sVdsbg84f
p1542
I1
sVd0fpgay
p1543
I1
sVd1v0ri4
p1544
I2
sVde0hgau
p1545
I1
sVdgpxf9m
p1546
I1
sVd0w3hnn
p1547
I1
sVd178454
p1548
I1
sVdsaac8k
p1549
I1
sVdivn356
p1550
I1
sVdkajnll
p1551
I1
sVd5gxvi7
p1552
I1
sVdbspxch
p1553
I1
sVd585oec
p1554
I1
sVdjc8p2e
p1555
I2
sVczw0c1j
p1556
I1
sVd9nljis
p1557
I1
sVds737ae
p1558
I1
sVdgy7d8p
p1559
I1
sVdphnkug
p1560
I1
sVdkvkydi
p1561
I1
sVd6228vx
p1562
I2
sVdf0p9qw
p1563
I1
sVd65fzqk
p1564
I1
sVd2bsd22
p1565
I1
sVdfb4rz5
p1566
I1
sVds48y3q
p1567
I1
sVd6kfzyw
p1568
I1
sVd7aa4cz
p1569
I1
sVd2dt233
p1570
I1
sVcyxt4tb
p1571
I1
sVd60ip3r
p1572
I1
sVdp3771y
p1573
I1
sVdbi793p
p1574
I3
sVdisa72i
p1575
I1
sVd76q35t
p1576
I1
sVd2nbuol
p1577
I1
sVddoagrp
p1578
I1
sVdbi2uy7
p1579
I1
sVdiedvbi
p1580
I1
sVd1llbkh
p1581
I1
sVdj2g2pw
p1582
I1
sVd4vrnnb
p1583
I1
sVcz8sg98
p1584
I2
sVcylivyl
p1585
I1
sVddn0ocs
p1586
I1
sVd6qcs0k
p1587
I1
sVd0u245s
p1588
I1
sVd8se3v7
p1589
I2
sVd9zem7u
p1590
I1
sVdevnpjr
p1591
I1
sVdqgxsvm
p1592
I5
sVcyo2ic6
p1593
I1
sVd7v0npa
p1594
I1
sVdb9nmc6
p1595
I1
sVd7om6hv
p1596
I1
sVd26xc7u
p1597
I2
sVde8ednk
p1598
I2
sVd0iegjf
p1599
I2
sVdg6hztg
p1600
I2
sVd05ccwk
p1601
I1
sVdsd326x
p1602
I1
sVdbv4kb4
p1603
I1
sVdspxqqg
p1604
I1
sVd83k9o1
p1605
I1
sVdp58t7g
p1606
I1
sVdi9yprp
p1607
I1
sVdce8zi4
p1608
I2
sVd1degmp
p1609
I1
sVdtebojw
p1610
I1
sVdbssgnv
p1611
I1
sVdj2rekb
p1612
I1
sVdiadvfd
p1613
I1
sVd2q7uep
p1614
I1
sVd9v810v
p1615
I1
sVd50gqgg
p1616
I1
sVd8sz5fy
p1617
I1
sVdjcdf92
p1618
I1
sVd5e45hi
p1619
I1
sVd6sky6v
p1620
I1
sVd78zznm
p1621
I1
sVdqk0m9n
p1622
I1
sVda808gc
p1623
I1
sVdkm458x
p1624
I1
sVd3ae0xe
p1625
I3
sVd1v2woq
p1626
I1
sVdhnyvny
p1627
I1
sVd2ltirh
p1628
I2
sVd2yreml
p1629
I1
sVdgb46ri
p1630
I1
sVdbd569c
p1631
I1
sVd1q3r6e
p1632
I1
sVd7vxadj
p1633
I1
sVdhf12fr
p1634
I1
sVdhzwm8q
p1635
I1
sVdbygyf7
p1636
I1
sVd0wybsu
p1637
I1
sVdf4lz8v
p1638
I1
sVdartm3d
p1639
I1
sVdi9167y
p1640
I1
sVdhol8r0
p1641
I1
sVdqjtjiq
p1642
I1
sVdg6069a
p1643
I1
sVd8vfl5i
p1644
I1
sVdbkqsae
p1645
I1
sVczd0m4c
p1646
I1
sVd1jeoj7
p1647
I1
sVdnw664m
p1648
I2
sVdo8fmg0
p1649
I1
sVddkfupe
p1650
I2
sVd2sifd4
p1651
I1
sVdcg0bjl
p1652
I2
sVcyrf2y4
p1653
I1
sVdj22h3m
p1654
I1
sVd8gn2we
p1655
I1
sVdns6wmq
p1656
I1
sVd2ahsp2
p1657
I1
sVczgowcc
p1658
I1
sVde6jaq1
p1659
I1
sVd6jf8zb
p1660
I1
sVcz87b3c
p1661
I2
sVdk7e843
p1662
I1
sVd0x8yii
p1663
I1
sVdkuwku7
p1664
I1
sVdsxzxkh
p1665
I2
sVd4kar37
p1666
I1
sVdczjfid
p1667
I1
sVdbtzej5
p1668
I1
sVcyikqoq
p1669
I2
sVdecuswr
p1670
I1
sVdmixksg
p1671
I1
sVd33ryzu
p1672
I1
sVdn98kid
p1673
I1
sVdnanuzt
p1674
I1
sVd0s051n
p1675
I5
sVd0zegh0
p1676
I1
sVd7n5wyl
p1677
I1
sVd7wjsjo
p1678
I1
sVde8hp6p
p1679
I1
sVdrd6s81
p1680
I1
sVd3krl21
p1681
I1
sVd2b8jwk
p1682
I2
sVdk9xk50
p1683
I2
sVdjdff3x
p1684
I1
sVdev9dmx
p1685
I1
sVdip802e
p1686
I1
sVdqsllu1
p1687
I1
sVd5fn3i5
p1688
I3
sVd6qtrrz
p1689
I1
sVdb41fry
p1690
I1
sVdnu364n
p1691
I1
sVd0zr6ke
p1692
I1
sVdiact0c
p1693
I1
sVd1qp0st
p1694
I1
sVde7cx7q
p1695
I1
sVd4ceovw
p1696
I1
sVdph5qo1
p1697
I1
sVdk6cqid
p1698
I1
sVd8lixgm
p1699
I1
sVd6p2sho
p1700
I1
sVd6x1lq9
p1701
I1
sVdqap8yi
p1702
I1
sVdh8ev47
p1703
I2
sVdbnxepy
p1704
I1
sVdio7s0m
p1705
I1
sVdgnp4qm
p1706
I1
sVd8oahfv
p1707
I2
sVdc4a5bi
p1708
I2
sVd1aa7yc
p1709
I1
sVcz2zzjt
p1710
I1
sVd5gjtlq
p1711
I2
sVdg6axbh
p1712
I2
sVdeha09n
p1713
I2
sVdk2jx7t
p1714
I1
sVdq53gyi
p1715
I1
sVd96wilx
p1716
I1
sVd9lizyp
p1717
I1
sVd7kieoy
p1718
I1
sVdd6ylib
p1719
I1
sVdnf8aiz
p1720
I1
sVd03skw1
p1721
I1
sVd4pfo8t
p1722
I1
sVdh7uyh5
p1723
I1
sVdnucml5
p1724
I2
sVd2fdorn
p1725
I2
sVdppgm3d
p1726
I3
sVd0cz5zi
p1727
I1
sVdeupkdh
p1728
I1
sVd2m2bof
p1729
I1
sVd7xetya
p1730
I1
sVd03du1b
p1731
I1
sVd18dzqz
p1732
I1
sVd9ywybo
p1733
I1
sVd858ojf
p1734
I2
sVd1ap3rz
p1735
I1
sVdfrtg1v
p1736
I1
sVdasioy1
p1737
I1
sVdai0lk1
p1738
I2
sVd62qxvh
p1739
I1
sVdelldjm
p1740
I1
sVd4y2tt5
p1741
I1
sVd0ryql7
p1742
I1
sVcyravso
p1743
I1
sVd5ec3i3
p1744
I1
sVd4klljg
p1745
I1
sVda63utv
p1746
I1
sVd0guv4n
p1747
I1
sVd4iy9yd
p1748
I1
sVd3bq7a4
p1749
I1
sVdkpzgyh
p1750
I1
sVd1b50y9
p1751
I1
sVdaqgqdu
p1752
I1
sVdauk6nk
p1753
I1
sVcz0a98b
p1754
I1
sVd0kriqg
p1755
I1
sVd7npnlz
p1756
I1
sVd1iq9k7
p1757
I1
sVddlipn3
p1758
I1
sVd398sye
p1759
I1
sVd21vqgr
p1760
I1
sVd30xqrc
p1761
I2
sVd12sg7j
p1762
I1
sVdexokt1
p1763
I1
sVcyp4fn5
p1764
I1
sVdeet3un
p1765
I1
sVdkqod21
p1766
I1
sVd032r13
p1767
I1
sVd2u26wl
p1768
I1
sVdfaxa3l
p1769
I1
sVd1ij9gs
p1770
I2
sVd4bahu5
p1771
I1
sVdtf041u
p1772
I1
sVda5rp9q
p1773
I1
sVdnnntv0
p1774
I1
sVd7nmz4l
p1775
I1
sVdgqxh7d
p1776
I1
sVd2avztt
p1777
I1
sVczibuq6
p1778
I1
sVd9yobp0
p1779
I2
sVdeomdvd
p1780
I2
sVderutk4
p1781
I2
sVdiwg4bf
p1782
I1
sVdgnnzcu
p1783
I1
sVd55xxpw
p1784
I1
sVd9pgxxi
p1785
I1
sVddn7y5y
p1786
I1
sVdi64pi5
p1787
I1
sVd9hkdzn
p1788
I1
sVdc4cka2
p1789
I1
sVdn0d6lr
p1790
I2
sVdfkdzr5
p1791
I1
sVd6qkry9
p1792
I1
sVddrvv5p
p1793
I1
sVd9yu666
p1794
I1
sVd94hoc7
p1795
I1
sVdi7faoc
p1796
I1
sVczqx723
p1797
I1
sVdc6ygtn
p1798
I1
sVdf7udim
p1799
I1
sVdniuquj
p1800
I3
sVd9t8ii2
p1801
I1
sVd9x351r
p1802
I1
sVd6jg8wl
p1803
I1
sVdkegnf2
p1804
I1
sVd7kfg5u
p1805
I1
sVddzkj9v
p1806
I1
sVd9xz1pe
p1807
I1
sVdjirp1f
p1808
I1
sVdpd00wf
p1809
I1
sVdsbjeb8
p1810
I1
sVdpxfr8q
p1811
I1
sVd4rc2e5
p1812
I1
sVd7hm3q7
p1813
I1
sVdihu5dq
p1814
I1
sVdes3upk
p1815
I1
sVdofvemz
p1816
I1
sVd8mx8ng
p1817
I1
sVdej2pid
p1818
I1
sVd9jzhlb
p1819
I1
sVdf0d4ja
p1820
I1
sVdcmx93g
p1821
I1
sVd54trbf
p1822
I1
sVd4hyjun
p1823
I2
sVd3uckqh
p1824
I1
sVd5ssjqh
p1825
I2
sVdq9kby7
p1826
I1
sVdkmp1iw
p1827
I1
sVded5n3k
p1828
I1
sVcz05i4m
p1829
I1
sVdks26z0
p1830
I5
sVdap5cep
p1831
I3
sVd0oc2fr
p1832
I1
sVd7wbh3g
p1833
I1
sVdhrtm5r
p1834
I1
sVdckw3c8
p1835
I1
sVd9fimnv
p1836
I1
sVcyxn8j4
p1837
I1
sVd07namp
p1838
I1
sVdbd74uz
p1839
I2
sVds4bn7e
p1840
I1
sVd9njkw3
p1841
I1
sVdedamou
p1842
I1
sVd5hl1gf
p1843
I1
sVdrgowd2
p1844
I1
sVdaye5mg
p1845
I2
sVczm91h1
p1846
I1
sVd0y9y24
p1847
I1
sVdd3epug
p1848
I1
sVdmu7mf1
p1849
I1
sVd0dzxn4
p1850
I1
sVd3hvyeg
p1851
I2
sVd4k77de
p1852
I1
sVdhig15c
p1853
I2
sVdik3ksg
p1854
I1
sVd5ogipk
p1855
I1
sVdqn1rj3
p1856
I1
sVdqibf2w
p1857
I1
sVdd7mn8j
p1858
I1
sVdhfccgk
p1859
I2
sVd80u5ou
p1860
I1
sVdmkyxal
p1861
I1
sVdcw1neu
p1862
I1
sVdiyzlw1
p1863
I1
sVcyt2521
p1864
I1
sVdkzbsdq
p1865
I1
sVd3jyont
p1866
I1
sVd7oxw3y
p1867
I1
sVczyzxpe
p1868
I1
sVd26etjw
p1869
I1
sVdgp6kh4
p1870
I1
sVd08n364
p1871
I1
sVdg9svmn
p1872
I1
sVdh78pmx
p1873
I2
sVdol3f4g
p1874
I1
sVdrbxm3l
p1875
I1
sVdj5jtor
p1876
I1
sVd1btwvq
p1877
I1
sVd6pawfw
p1878
I3
sVd3ffp9e
p1879
I2
sVdq0444f
p1880
I1
sVdfpnu2z
p1881
I1
sVd97gqam
p1882
I1
sVd7l2jli
p1883
I1
sVd5kd7gh
p1884
I1
sVdrg7big
p1885
I1
sVd7bfj8c
p1886
I1
sVdd2hd8m
p1887
I1
sVdmo0bdh
p1888
I3
sVd3sfbyr
p1889
I1
sVdauwz20
p1890
I1
sVdocemnv
p1891
I2
sVcyisaf1
p1892
I1
sVd0f7kgp
p1893
I1
sVd40wheq
p1894
I1
sVcyz3lx5
p1895
I1
sVd00pgpg
p1896
I1
sVdfzv8jb
p1897
I1
sVdkaylyg
p1898
I1
sVd2vm6ej
p1899
I1
sVdnyvrmf
p1900
I1
sVdb7f2a6
p1901
I1
sVdhmg5s5
p1902
I1
sVdj07rvc
p1903
I1
sVdq9dvlz
p1904
I1
sVdgajd9c
p1905
I1
sVdaj4ze5
p1906
I1
sVdnqw6g4
p1907
I2
sVd3vtgzv
p1908
I1
sVdeuzhy8
p1909
I1
sVdi7y6ni
p1910
I2
sVdhj183v
p1911
I1
sVdahvu9k
p1912
I1
sVd1tir4u
p1913
I1
sVdh9b5g3
p1914
I1
sVdkk1x11
p1915
I1
sVczx5ree
p1916
I1
sVcz0mpll
p1917
I2
sVdq1yvie
p1918
I1
sVd4hz6jf
p1919
I1
sVd9vodjk
p1920
I2
sVd6jm3e4
p1921
I1
sVd4ymt4l
p1922
I2
sVdsv5t85
p1923
I1
sVdcazk8s
p1924
I1
sVd9x4k4u
p1925
I1
sVdb129iu
p1926
I1
sVd1l09v5
p1927
I1
sVdgmupyi
p1928
I2
sVdiu7gcs
p1929
I1
sVd235gs9
p1930
I1
sVd4w6zhj
p1931
I1
sVd5ykr7h
p1932
I2
sVdkqvgtb
p1933
I1
sVdd5vbeu
p1934
I1
sVczxmh5l
p1935
I1
sVczqchck
p1936
I1
sVdndugy5
p1937
I1
sVd8j8yhg
p1938
I1
sVcztb504
p1939
I1
sVczcy6ss
p1940
I1
sVdii6a6y
p1941
I1
sVd0czcz7
p1942
I1
sVd8ykf37
p1943
I1
sVd0fnjyp
p1944
I1
sVdia63n0
p1945
I1
sVcyu2wtd
p1946
I1
sVcytxq1g
p1947
I2
sVdn6h68k
p1948
I1
sVddis6k1
p1949
I1
sVdd3jqk8
p1950
I1
sVds32on9
p1951
I1
sVdayqufq
p1952
I1
sVddi1alw
p1953
I1
sVdo4zssv
p1954
I1
sVd8mzj4b
p1955
I1
sVdbh4sob
p1956
I1
sVdc1n83s
p1957
I2
sVdizezc2
p1958
I1
sVdgb69ba
p1959
I1
sVd6wkb9u
p1960
I1
sVd9n4wf3
p1961
I1
sVdmg4u6r
p1962
I1
sVd91lf09
p1963
I1
sVd2h7y23
p1964
I1
sVdddaprq
p1965
I1
sVd0ghm1a
p1966
I1
sVd6oc6oi
p1967
I1
sVd8ytcb1
p1968
I1
sVd47aigd
p1969
I2
sVdegygih
p1970
I1
sVdfbwcry
p1971
I1
sVdgpmpzm
p1972
I1
sVczh85vh
p1973
I1
sVd5h24e5
p1974
I1
sVdnobin2
p1975
I2
sVcytkk5u
p1976
I1
sVd0c8xsx
p1977
I1
sVdikvtbe
p1978
I1
sVdf6mckb
p1979
I1
sVdmyerv3
p1980
I1
sVdost7fz
p1981
I1
sVd0tydpk
p1982
I1
sVd7p41m6
p1983
I1
sVdn9fitt
p1984
I1
sVczhpm19
p1985
I1
sVd8m2k1w
p1986
I1
sVdq2aek9
p1987
I1
sVd1oa91v
p1988
I1
sVd4wxuoq
p1989
I2
sVd6dkcfg
p1990
I1
sVdj0hxzc
p1991
I1
sVdfm0zj8
p1992
I1
sVdpslklu
p1993
I2
sVdit93h0
p1994
I2
sVdf7ahaq
p1995
I1
sVd8nyfjv
p1996
I1
sVddkn5cl
p1997
I1
sVdj0ryn9
p1998
I1
sVd23nkvz
p1999
I1
sVd77qv9d
p2000
I3
sVd7i6t5r
p2001
I1
sVdfl9l45
p2002
I1
sVdojdkg6
p2003
I1
sVdcel4yy
p2004
I1
sVdho2m16
p2005
I1
sVdpidsbq
p2006
I1
sVd6yg4tb
p2007
I1
sVd03t22n
p2008
I1
sVdbdd6ci
p2009
I2
sVd5xkxho
p2010
I1
sVd0fbd8x
p2011
I1
sVcylpv0n
p2012
I1
sVdf32ow8
p2013
I1
sVdebe0dl
p2014
I2
sVdd2hizl
p2015
I2
sVd3ru5rs
p2016
I1
sVdcrv1dz
p2017
I1
sVcyiyowq
p2018
I1
sVd09fr6k
p2019
I1
sVdd32rsy
p2020
I1
sVdklkb8h
p2021
I1
sVdhi3i2q
p2022
I1
sVdb1gbg3
p2023
I1
sVd6zc6s2
p2024
I1
sVcyp2ymb
p2025
I1
sVd664ggz
p2026
I2
sVd38c76c
p2027
I1
sVd1jzyp5
p2028
I1
sVdgoy361
p2029
I1
sVdeodnpw
p2030
I1
sVdemgq1q
p2031
I2
sVd2zub3r
p2032
I1
sVdgox9k3
p2033
I1
sVd8i3v4i
p2034
I1
sVd41ldjr
p2035
I1
sVdpczgul
p2036
I1
sVdalykyr
p2037
I1
sVd2b7ddl
p2038
I1
sVd25ussi
p2039
I1
sVd32hfyk
p2040
I3
sVd2tuptu
p2041
I1
sVdemdmxj
p2042
I1
sVd4vszrz
p2043
I1
sVdqgq3r8
p2044
I1
sVd417qss
p2045
I1
sVdqkwxa4
p2046
I1
sVd5ph137
p2047
I1
sVcz07vc0
p2048
I1
sVdcn8yed
p2049
I1
sVdj2qqm2
p2050
I1
sVd0rvngr
p2051
I1
sVd9e69w7
p2052
I2
sVdbceujl
p2053
I1
sVdkovogd
p2054
I1
sVd3r8w6m
p2055
I1
sVdsxce6s
p2056
I2
sVd5idgr1
p2057
I1
sVdd05p2e
p2058
I1
sVdjkz0av
p2059
I1
sVd4d89n1
p2060
I1
sVd90hmm4
p2061
I1
sVdggob6r
p2062
I1
sVd1ob2xg
p2063
I1
sVdhxk2xn
p2064
I1
sVdoyt3gn
p2065
I2
sVdhg6qv7
p2066
I1
sVd20c44f
p2067
I1
sVda6ld3u
p2068
I1
sVdnl310o
p2069
I1
sVd82rsdx
p2070
I1
sVdbj4rl4
p2071
I1
sVdn8p3dk
p2072
I3
sVdeg14cv
p2073
I1
sVdejcfol
p2074
I3
sVcz7dqre
p2075
I1
sVddpkq3d
p2076
I1
sVdiu8fgt
p2077
I1
sVdb341p5
p2078
I1
sVd2jw1mr
p2079
I1
sVd1unj20
p2080
I1
sVd3ycn5n
p2081
I1
sVd4d620s
p2082
I1
sVdeb6krw
p2083
I1
sVd4snbzu
p2084
I1
sVd9qyhen
p2085
I1
sVdi8p73j
p2086
I1
sVd7lp44o
p2087
I1
sVddmrf98
p2088
I1
sVdd2o0b3
p2089
I1
sVdn2mmzn
p2090
I2
sVd9kp4px
p2091
I1
sVd3hrixo
p2092
I1
sVd6q33vq
p2093
I1
sVdnuo1vn
p2094
I1
sVczdisc4
p2095
I1
sVd90mf98
p2096
I1
sVczo1gle
p2097
I1
sVdd6d2sp
p2098
I1
sVd5es4nv
p2099
I1
sVd7wldyg
p2100
I1
sVd5iojf2
p2101
I1
sVd8nnkoe
p2102
I3
sVd5p56yp
p2103
I1
sVd95kpa0
p2104
I2
sVda6zsdf
p2105
I1
sVddhf8bu
p2106
I1
sVds5ola1
p2107
I1
sVdhi41w8
p2108
I1
sVd1gmfan
p2109
I3
sVdom2hvg
p2110
I1
sVdcxqwsj
p2111
I1
sVdabiiov
p2112
I1
sVd62vid0
p2113
I1
sVd0tns19
p2114
I2
sVdebo8bl
p2115
I1
sVdeuq8m6
p2116
I1
sVd7kexam
p2117
I1
sVdj1lb0t
p2118
I2
sVd6lpl6l
p2119
I1
sVd5w3hiz
p2120
I1
sVd51n9t1
p2121
I4
sVd6j9ook
p2122
I1
sVd6b4mka
p2123
I1
sVd1ru64f
p2124
I1
sVdteul25
p2125
I1
sVd5nmjmv
p2126
I1
sVdfj788h
p2127
I1
sVd8eo82j
p2128
I1
sVdbu31c8
p2129
I1
sVdcwfmkq
p2130
I1
sVd55isga
p2131
I2
sVcyvcvcq
p2132
I1
sVd4zjpn5
p2133
I1
sVdge2uab
p2134
I1
sVdenu37n
p2135
I1
sVd9z7pqr
p2136
I1
sVdai2kqn
p2137
I2
sVd8lo85l
p2138
I4
sVdh94ifv
p2139
I1
sVd2erevb
p2140
I1
sVdjctyrs
p2141
I1
sVd5gmuh6
p2142
I2
sVdrvh1le
p2143
I1
sVcztr27u
p2144
I1
sVd3bcfe8
p2145
I1
sVdh2bu1w
p2146
I1
sVczlxrfq
p2147
I1
sVd15oyrl
p2148
I1
sVdc08f8t
p2149
I1
sVdi1myj9
p2150
I1
sVdahw56h
p2151
I1
sVdf8fcwg
p2152
I1
sVd1wy951
p2153
I1
sVdhfzxll
p2154
I1
sVd598qtm
p2155
I1
sVd7jz77p
p2156
I1
sVdct0jew
p2157
I1
sVdanwlb8
p2158
I1
sVdckfb5y
p2159
I1
sVdfny5o6
p2160
I1
sVdk5o19i
p2161
I1
sVd7klabz
p2162
I1
sVd2qw14t
p2163
I1
sVd0oz1mj
p2164
I1
sVdb64lvq
p2165
I1
sVdt2omlw
p2166
I2
sVd7ujl7c
p2167
I1
sVcyhzuz7
p2168
I1
sVdezmki5
p2169
I1
sVdrao2um
p2170
I1
sVdc47l5c
p2171
I1
sVdb2f9gk
p2172
I1
sVd5afx00
p2173
I1
sVdmr3xut
p2174
I1
sVcyoh2ya
p2175
I1
sVdtc993e
p2176
I1
sVdejbyy1
p2177
I1
sVddqgl1e
p2178
I1
sVd1j896u
p2179
I1
sVdf7t9da
p2180
I1
sVdezk0ql
p2181
I1
sVdngw6mo
p2182
I2
sVdjb96bz
p2183
I1
sVd5zr2ym
p2184
I1
sVdal042l
p2185
I1
sVdibwpgj
p2186
I1
sVdcvrvtc
p2187
I1
sVd2anfr2
p2188
I1
sVd5gu41v
p2189
I6
sVdt9x52s
p2190
I2
sVd3pfg4n
p2191
I1
sVd8f9n33
p2192
I1
sVd89vbn9
p2193
I1
sVdfbxxjt
p2194
I1
sVd2eokan
p2195
I1
sVd1iwt6d
p2196
I1
sVdi62zmi
p2197
I1
sVdmf1j2w
p2198
I1
sVdfyf39o
p2199
I1
sVczxk3ep
p2200
I1
sVd8vfytw
p2201
I1
sVdbr8nbi
p2202
I1
sVdqm8965
p2203
I1
sVd9bgmsc
p2204
I1
sVdey2jqr
p2205
I1
sVd5ad5ha
p2206
I1
sVd3o72ig
p2207
I1
sVdo6qpgf
p2208
I2
sVd2g8qeg
p2209
I1
sVdhtkcfz
p2210
I3
sVdmxuhnw
p2211
I1
sVd0p5o0y
p2212
I1
sVdg97mcv
p2213
I1
sVd8jo6di
p2214
I1
sVd5z43m7
p2215
I2
sVde003ui
p2216
I1
sVd5mnhgj
p2217
I1
sVdngst46
p2218
I1
sVdgmtnz8
p2219
I1
sVd0gwdx3
p2220
I1
sVd57g8zw
p2221
I1
sVdqky25p
p2222
I1
sVds6by3e
p2223
I1
sVd20i2l0
p2224
I1
sVd8nrt60
p2225
I1
sVcz0gxfo
p2226
I1
sVd5no41z
p2227
I1
sVd9k21un
p2228
I2
sVdnijai0
p2229
I1
sVdbig6bd
p2230
I1
sVdn8va49
p2231
I1
sVdbltx8o
p2232
I1
sVd454y45
p2233
I1
sVdbnffp0
p2234
I2
sVdaik8vq
p2235
I1
sVd7bph0t
p2236
I1
sVd2ziep5
p2237
I1
sVdncm3jv
p2238
I2
sVd5bsrgd
p2239
I1
sVd26noyl
p2240
I1
sVdj9669p
p2241
I1
sVd5pm0wn
p2242
I1
sVds3fwhw
p2243
I1
sVcz5em1t
p2244
I1
sVdcaqm9o
p2245
I1
sVdkpwkee
p2246
I1
sVdrliyhf
p2247
I1
sVdjiq5xe
p2248
I1
sVd7gjxtu
p2249
I1
sVd0b4u5g
p2250
I1
sVdcabrto
p2251
I1
sVdbedbnf
p2252
I1
sVda87twa
p2253
I1
sVd3edyt0
p2254
I2
sVd4m0tme
p2255
I1
sVdn9zdgz
p2256
I1
sVdrys8r1
p2257
I1
sVdit2or6
p2258
I1
sVdix50lh
p2259
I2
sVd250xo0
p2260
I1
sVd2r2c1f
p2261
I1
sVd0dapp9
p2262
I1
sVd3q8upi
p2263
I2
sVd1nozym
p2264
I1
sVd9cm7iq
p2265
I1
sVd75smo8
p2266
I1
sVdmytgo3
p2267
I4
sVdja25ee
p2268
I1
sVd4znjdl
p2269
I1
sVd0n02we
p2270
I1
sVcz3dtfl
p2271
I1
sVd0qiiz3
p2272
I1
sVdky2xw4
p2273
I1
sVd0yqavc
p2274
I1
sVdboajxm
p2275
I1
sVdb2tumn
p2276
I2
sVdg986jj
p2277
I1
sVd5jtkzp
p2278
I1
sVdq2ww4q
p2279
I1
sVd202jbq
p2280
I1
sVdiolluq
p2281
I1
sVd3zjn49
p2282
I1
sVd35frej
p2283
I1
sVda615d2
p2284
I1
sVd7iuvqp
p2285
I1
sVd7tx8la
p2286
I1
sVdnw63s6
p2287
I1
sVd5hky19
p2288
I1
sVd3ftb0y
p2289
I2
sVdc2nqeq
p2290
I1
sVd9jwgz0
p2291
I1
sVdc4bite
p2292
I1
sVdpdl429
p2293
I1
sVdaz3zvw
p2294
I1
sVd4ej5ei
p2295
I1
sVd3pc3os
p2296
I2
sVd1faerx
p2297
I1
sVdfe5pcb
p2298
I1
sVdnkl1x6
p2299
I1
sVd3k4qsu
p2300
I2
sVd2ex91s
p2301
I1
sVdcopvrb
p2302
I1
sVdgdflrp
p2303
I1
sVd32wuf4
p2304
I1
sVdgrqyd6
p2305
I1
sVdfbvjr9
p2306
I1
sVdbkakxr
p2307
I1
sVdnd1fax
p2308
I3
sVdbu51nu
p2309
I1
sVdgrxh53
p2310
I1
sVdilawft
p2311
I1
sVdfnmfpy
p2312
I1
s.