(dp0
Vdcwl33c
p1
I1
sVdf04e5z
p2
I1
sVd5vxwgz
p3
I1
sVdgl3x17
p4
I1
sVcz7gezx
p5
I1
sVd93c4ps
p6
I1
sVd627d0r
p7
I1
sVdibjv3u
p8
I1
sVdebl2bf
p9
I1
sVdbiiuru
p10
I1
sVczh0ofm
p11
I1
sVd3sjtlm
p12
I1
sVd013zo3
p13
I1
sVdmzt15q
p14
I1
sVd8o2du4
p15
I1
sVcyjwaad
p16
I1
sVcymigst
p17
I1
sVd1gk3ij
p18
I1
sVd8vh25i
p19
I1
sVd1bou5j
p20
I1
sVdcuufm9
p21
I1
sVd6f2wr4
p22
I1
sVdktjvs1
p23
I1
sVdmujcfi
p24
I1
sVd2026py
p25
I1
sVdhh6hs4
p26
I1
sVdcpcn5s
p27
I1
sVd5gpzif
p28
I1
sVcz5f2s8
p29
I1
sVcyn4969
p30
I1
sVdefdvpf
p31
I1
sVda9rrjc
p32
I1
sVd4ql6nk
p33
I1
sVdc23jc2
p34
I1
sVdd62ddz
p35
I1
sVd6aegss
p36
I1
sVczjwuna
p37
I1
sVdjki3d6
p38
I1
sVcyjznq3
p39
I1
sVd14k6uk
p40
I1
sVdeygxdt
p41
I1
sVdcag4du
p42
I1
sVd1z7leo
p43
I1
sVdmfwfl8
p44
I1
sVdcytb9z
p45
I1
sVdq0nhq5
p46
I1
sVdpgym7b
p47
I1
sVdgoyecy
p48
I1
sVcz0l832
p49
I1
sVdeth00f
p50
I1
sVde950rg
p51
I1
sVdcgoczd
p52
I1
sVdilarp3
p53
I1
sVdcerlsm
p54
I2
sVczoqgld
p55
I1
sVd3n5g25
p56
I1
sVd6ai8gs
p57
I1
sVd0aupon
p58
I1
sVdcvozs6
p59
I1
sVdftl0yo
p60
I1
sVd1r5wsa
p61
I2
sVdebis0z
p62
I1
sVdsmwqcx
p63
I1
sVd6z2957
p64
I1
sVdadex3a
p65
I1
sVd6llmlo
p66
I1
sVd0venvw
p67
I1
sVcznol5p
p68
I1
sVdfj7kgs
p69
I1
s.