(dp0
Vd1qo2bb
p1
I1
sVd3len5w
p2
I1
sVcza0hfc
p3
I1
sVdeq52j8
p4
I1
sVde4q1vd
p5
I1
sVd4h61sv
p6
I1
sVdmr0ji5
p7
I1
sVdqngcn5
p8
I1
sVd9e8hg9
p9
I1
sVdc7wqfi
p10
I1
sVd6j7zfh
p11
I2
sVczw1t6l
p12
I1
sVd4713ib
p13
I1
sVd29fn9p
p14
I3
sVd9c1n7w
p15
I1
sVd2stokm
p16
I1
sVdo42f22
p17
I1
sVd95s940
p18
I1
sVdgbiah6
p19
I1
sVdo6u2sh
p20
I1
sVcys8uln
p21
I1
sVdd8tm20
p22
I1
sVdmrd6xq
p23
I1
sVd2ytuq9
p24
I1
sVdh44s05
p25
I1
sVdt1x1db
p26
I1
sVd45jh2y
p27
I1
sVd80diu9
p28
I1
sVdd6ke8c
p29
I1
sVd7e3usu
p30
I1
sVdej0hvr
p31
I1
sVdjpwjf2
p32
I1
sVd53ley2
p33
I1
sVdhrymmr
p34
I1
sVdd2zo0s
p35
I1
sVdn4dw27
p36
I1
sVd82yqxa
p37
I1
sVdqmxbr0
p38
I1
sVd2g9sc7
p39
I2
sVdt9colb
p40
I1
sVdr7l1mo
p41
I1
sVczix30a
p42
I1
sVd25c4m4
p43
I2
sVdmyd7jq
p44
I1
sVd1jf6jb
p45
I1
sVdebyn3f
p46
I1
sVdhz8lrj
p47
I1
sVcyl96jq
p48
I1
sVdejbnzt
p49
I1
sVd0t6k58
p50
I1
sVdh44uwf
p51
I1
sVdnhb1rc
p52
I1
sVda13nve
p53
I1
sVd7jyn9y
p54
I1
sVcyii4md
p55
I1
sVd5j7ji2
p56
I1
sVd35e3sm
p57
I1
sVdn9mpl9
p58
I1
sVdgfh222
p59
I1
sVd1se1kj
p60
I1
sVdbmuaij
p61
I1
sVddajsr8
p62
I1
sVdp9vseg
p63
I1
sVcz89r16
p64
I1
sVd0s4hzi
p65
I1
sVd0glfjb
p66
I1
sVdp2ddx0
p67
I1
sVdsqsgia
p68
I1
sVd5wurry
p69
I2
sVd96mdy4
p70
I1
sVd75afls
p71
I2
sVdh4n0ao
p72
I1
sVdsprvfe
p73
I1
sVd356rkj
p74
I1
sVdnm8ihl
p75
I1
sVdg25wur
p76
I1
sVdh48j6a
p77
I1
sVddkfjf8
p78
I1
sVd5oee40
p79
I1
sVdbkb4hi
p80
I3
sVcz3r5f5
p81
I1
sVd8izjgf
p82
I1
sVdqbkvhx
p83
I1
sVcztiuc3
p84
I1
sVd3ca9mw
p85
I1
sVdn0o375
p86
I2
sVd37vyva
p87
I1
sVdc9xs21
p88
I1
sVdakqol3
p89
I1
sVcyjnvpt
p90
I1
sVd9viazj
p91
I1
sVczsr7t2
p92
I1
sVd4z1c01
p93
I1
sVdq8ennv
p94
I1
sVd3ueno5
p95
I1
sVde6cuz4
p96
I1
sVd1b9op4
p97
I1
sVdimotd5
p98
I1
sVdh1rgl6
p99
I1
sVd0rqedr
p100
I1
sVd64tpwy
p101
I1
sVdh43xne
p102
I1
sVdoernc4
p103
I1
sVd61x5d4
p104
I1
s.