(dp0
Vddyvlub
p1
I1
sVdbjhbh1
p2
I1
sVddcmadq
p3
I1
sVdghitzz
p4
I1
sVd8rku7r
p5
I1
sVd4eqq4n
p6
I1
sVd3183sz
p7
I1
sVd1qqipk
p8
I1
sVdsz9jyc
p9
I1
sVd841ip5
p10
I1
sVdi4lkjq
p11
I1
sVdn79bx1
p12
I1
sVd80ihmi
p13
I1
sVdbnecgz
p14
I1
sVddi01ze
p15
I1
sVd7qf4zh
p16
I1
sVcz84ajp
p17
I1
sVd7lp9z7
p18
I1
sVdgpu58m
p19
I3
sVd35aeb1
p20
I1
sVd5kfdr8
p21
I1
sVd7cj6du
p22
I2
sVdiis37k
p23
I1
sVd3h3vee
p24
I1
sVd77dw2i
p25
I1
sVcyov9qk
p26
I1
sVd58eggh
p27
I1
sVdde4hav
p28
I1
sVda5hftz
p29
I1
sVdaymlnf
p30
I1
sVdsupqx1
p31
I2
sVd6ysbke
p32
I2
sVd0621ji
p33
I1
sVd9uk07e
p34
I1
sVdf1vh1d
p35
I1
sVd46tded
p36
I1
sVdqeisar
p37
I3
sVdg1p2im
p38
I1
sVd6qq6zy
p39
I1
sVdbpktzd
p40
I1
sVd6gxu6g
p41
I1
sVdckgnxn
p42
I1
sVdbsr5a1
p43
I1
sVd7y1ryl
p44
I1
sVd0bu9hb
p45
I6
sVd0q9olu
p46
I1
sVd9w6knd
p47
I1
sVdieybly
p48
I1
sVdoeheqz
p49
I1
sVdcpi201
p50
I1
sVcystz41
p51
I3
sVdg2etk4
p52
I1
sVdfjw6iw
p53
I1
sVds05g0x
p54
I1
sVd2a9ek3
p55
I1
sVdah9qbo
p56
I1
sVdc3rkqt
p57
I1
sVd4c0xjt
p58
I1
sVd5jq9l2
p59
I1
sVdghdlod
p60
I1
sVdbgqbkd
p61
I1
sVd4ec3by
p62
I1
sVdgap9uh
p63
I1
sVd31rfs3
p64
I1
sVdcn6njs
p65
I2
sVd9ka09m
p66
I1
sVd0h8o18
p67
I1
sVd5khddc
p68
I1
sVd208r3h
p69
I1
sVcyuk6ww
p70
I1
sVd746eo7
p71
I1
sVdapg7o2
p72
I1
sVd1hm8iv
p73
I2
sVd7aoku9
p74
I1
sVd4xf6v3
p75
I1
sVd65o7rs
p76
I1
sVczxdsgt
p77
I1
sVd6e6vry
p78
I2
sVcz8twup
p79
I1
sVdkc1ygu
p80
I1
sVd81dg2g
p81
I1
sVdpqzjkv
p82
I1
sVd2dc9v7
p83
I1
sVd2el5na
p84
I1
sVd6tcl8o
p85
I1
sVdcapgiy
p86
I1
sVd6hb1t9
p87
I1
sVd8zfnxl
p88
I1
sVdc96r45
p89
I1
sVd3ap55y
p90
I1
sVd95l7du
p91
I1
sVdddvn1p
p92
I1
sVdq7k6hm
p93
I1
sVcyuzcrf
p94
I2
sVcyq57g8
p95
I1
sVdbbfbxl
p96
I1
sVdkeypa9
p97
I2
sVdej6v1j
p98
I1
sVdalhqrg
p99
I1
sVcysmlyf
p100
I1
sVdrr7j0g
p101
I1
sVd0h8afl
p102
I1
sVddesa8k
p103
I1
sVdbj6vp0
p104
I1
sVdqibf2w
p105
I1
sVded1dc0
p106
I1
sVd7zju59
p107
I1
sVdhxmlwr
p108
I1
sVd8zy3hr
p109
I1
sVdcrjz0o
p110
I2
sVd3zlja5
p111
I1
sVcypvzlb
p112
I1
sVd1wg8yb
p113
I2
sVdcizcrv
p114
I1
sVdittsj8
p115
I2
sVdb0jeo7
p116
I1
sVdif5el3
p117
I1
sVdg679pp
p118
I1
sVd504g7h
p119
I1
sVcz9v5lp
p120
I1
sVdo2dcgp
p121
I1
sVd35it78
p122
I1
sVd9e09wg
p123
I1
sVd8xb65c
p124
I1
sVdn73o0x
p125
I1
sVdk0sk56
p126
I1
sVdabserh
p127
I1
sVdbyhcpi
p128
I1
sVd0at0cf
p129
I2
sVdd88q2x
p130
I1
sVdcqck5m
p131
I1
sVdnqeb16
p132
I1
sVd5pdmo3
p133
I1
sVdc1ca0r
p134
I1
sVde9hu9j
p135
I1
sVdjo2p2k
p136
I1
sVdottszt
p137
I1
sVdnildt5
p138
I1
sVd2xja9q
p139
I1
sVd65ic1v
p140
I1
sVd9dxms0
p141
I1
sVd5sqst6
p142
I1
sVd4omr10
p143
I2
sVdmg32f4
p144
I2
sVdevphqs
p145
I1
sVd4xbggg
p146
I1
sVd8edold
p147
I2
sVdjnis31
p148
I1
sVdcifg77
p149
I1
sVdelm1vf
p150
I1
sVd84n3f0
p151
I1
sVdkxvgzl
p152
I1
sVdbi9ql2
p153
I1
sVcyvd3n0
p154
I1
sVdco5qd6
p155
I1
sVd7hnnjt
p156
I1
sVdqwe26h
p157
I1
sVdgmyqiy
p158
I1
sVcz1kgej
p159
I1
sVdt2gwiw
p160
I1
sVd6tdwdc
p161
I1
sVczes77o
p162
I1
sVd1qaqih
p163
I1
sVdmktcj9
p164
I1
sVdkeltvb
p165
I1
sVd55u6o1
p166
I1
sVdqhsw7i
p167
I1
sVd3q8puc
p168
I1
sVdafy1tm
p169
I1
sVdj39vdv
p170
I1
sVdghp6xi
p171
I1
sVcyjon6k
p172
I1
sVd4ol1uu
p173
I1
sVd7dgo8s
p174
I2
sVditvgdo
p175
I1
sVcyup6d1
p176
I1
sVdebnr1n
p177
I1
sVdt0iaxa
p178
I1
sVd4989hz
p179
I1
sVd8fjema
p180
I1
sVd57bwzd
p181
I1
sVcyqhsob
p182
I1
sVdjnta0o
p183
I1
sVdf47kuz
p184
I1
sVdexrath
p185
I1
sVddh59a2
p186
I1
sVd0r3x2h
p187
I1
sVdqn7jr6
p188
I1
sVd7a1p9i
p189
I1
sVcyu1s0s
p190
I1
sVd2mv68q
p191
I1
sVdndybfj
p192
I1
sVdqyld8i
p193
I1
sVda51mx3
p194
I1
sVd8owsob
p195
I1
sVcymi51q
p196
I4
sVdawqwu3
p197
I1
sVdo4path
p198
I1
sVdqwdeoa
p199
I1
sVd896yoi
p200
I1
sVdaera3b
p201
I1
sVdcw9kpx
p202
I1
sVd7oj8ur
p203
I1
sVd8yd50p
p204
I1
sVde6qo13
p205
I1
sVd43ogov
p206
I2
sVd9ijkfg
p207
I1
sVdrqtxv1
p208
I1
sVdqe3w7z
p209
I1
sVd3ip5qc
p210
I1
sVdaaw0f2
p211
I1
sVd4bhoy5
p212
I1
sVdh819nw
p213
I1
sVdbfioj0
p214
I1
sVdqfhokw
p215
I2
sVcyu4p1w
p216
I1
sVdasog6h
p217
I1
sVde0n8sq
p218
I1
sVdiph9am
p219
I1
sVdd9jvrn
p220
I1
sVdkhs1nl
p221
I1
sVdsvwozi
p222
I2
sVdkjgp8z
p223
I1
sVdredr16
p224
I1
sVcyo72t6
p225
I1
sVdel1qw5
p226
I1
sVd48hsmv
p227
I1
sVdbdd6ci
p228
I1
sVd6wjlqb
p229
I1
sVdpqer3x
p230
I1
sVd0wthz1
p231
I1
sVd8na22d
p232
I1
sVd93grhb
p233
I1
sVdsh4qdt
p234
I1
sVd4tr9nz
p235
I1
sVdpjm2zd
p236
I1
sVd0fhxzq
p237
I1
sVd7yexex
p238
I1
sVd0x4ofz
p239
I1
sVd4jmtjs
p240
I2
sVd6tb12u
p241
I1
sVde6rscd
p242
I1
sVdc1ptnb
p243
I1
sVdgi9u8p
p244
I1
sVcys7ie3
p245
I2
sVd0pfpei
p246
I1
sVdaodryc
p247
I2
sVddqqe7b
p248
I1
sVdgn2c96
p249
I1
sVd50di86
p250
I1
sVdhx1p54
p251
I2
sVdfnedc5
p252
I1
sVd97paoc
p253
I1
sVdjrdv68
p254
I1
sVdelwfae
p255
I3
sVdjhoqjq
p256
I1
sVdbc4gqp
p257
I1
sVde6xogk
p258
I1
sVdjgqfhk
p259
I1
sVdi30imn
p260
I2
sVdf4xyl9
p261
I1
sVdfhdn70
p262
I1
sVd9d6fwk
p263
I1
sVd1daes3
p264
I1
sVcylo8g9
p265
I1
sVdngdfs2
p266
I1
sVd0ioo97
p267
I1
sVddxnal7
p268
I1
sVd51q3p1
p269
I2
sVdgwrblp
p270
I1
sVd0yixow
p271
I1
sVdd6q0uy
p272
I1
sVdeg8bht
p273
I1
sVd728t14
p274
I1
sVdcpi5js
p275
I1
sVd28xw75
p276
I1
sVdszvd4x
p277
I1
sVd8qcjzn
p278
I1
sVd2nqngy
p279
I1
sVd8hys29
p280
I1
sVd5axn09
p281
I1
sVda0ankv
p282
I1
sVdde5217
p283
I1
sVcz5s22z
p284
I4
sVds60tqp
p285
I3
sVd4fsupx
p286
I1
sVd1k0chc
p287
I1
sVdpjvgke
p288
I1
sVdp67ilg
p289
I1
sVdee57pu
p290
I1
sVddpl4ok
p291
I1
sVd9e0e8c
p292
I1
sVdef91sm
p293
I1
sVd3khn2n
p294
I1
sVczztalt
p295
I1
sVdd1v0lg
p296
I1
sVd80jf9r
p297
I1
sVd2at2mj
p298
I1
sVdb7tg0o
p299
I1
sVd7g8ii4
p300
I1
sVda3vykt
p301
I1
sVdaeg3i8
p302
I1
sVd1bp62x
p303
I1
sVczuf33z
p304
I1
sVdfimerr
p305
I1
sVd7qmu5r
p306
I1
sVd2sox02
p307
I1
sVd5vumzt
p308
I1
sVdr1ac22
p309
I1
sVdg3bznv
p310
I1
sVd756v8p
p311
I1
sVd01o551
p312
I1
sVd2jtxsa
p313
I1
sVd4i3s2z
p314
I1
sVdazpue5
p315
I1
sVd0l32n2
p316
I1
sVdckd7y9
p317
I5
sVdiyoi2a
p318
I1
sVd88p4uh
p319
I1
sVd2wj452
p320
I1
sVd01cd2b
p321
I1
sVczverh1
p322
I1
sVdmftufn
p323
I1
sVd9f1omr
p324
I1
sVdh5aal5
p325
I2
sVdgnox6a
p326
I1
sVdhjf7tt
p327
I1
sVd874nxh
p328
I1
sVd0ihvct
p329
I1
sVdooyyk5
p330
I1
sVdr1v3v0
p331
I1
sVd0bxb1v
p332
I2
sVdbnb26r
p333
I2
sVdsqqb7z
p334
I1
sVdo7w8f7
p335
I1
sVd78p7fi
p336
I1
sVdba5hpf
p337
I2
sVd7lvgy3
p338
I1
sVd8f9n33
p339
I1
sVd0th8ku
p340
I1
sVdinvjts
p341
I1
sVdn9ian4
p342
I1
sVdjc3vxr
p343
I1
sVdry7g1r
p344
I1
sVd9h48uz
p345
I2
sVdjxwdef
p346
I1
sVdnqr1o0
p347
I1
sVdgusd05
p348
I1
sVdg32679
p349
I1
sVdi6xjxr
p350
I1
sVd1s41h6
p351
I1
sVd6njlx0
p352
I1
sVdb0s9gb
p353
I1
sVd41gy4g
p354
I1
sVdgfg93l
p355
I1
sVd55gs9m
p356
I1
sVd510s3f
p357
I1
sVd64tpwy
p358
I2
sVdrykggj
p359
I1
sVdrkehkw
p360
I1
sVdenx9ds
p361
I1
sVdid6k1c
p362
I1
sVddo1l6b
p363
I1
sVdj191rh
p364
I1
sVd3erodo
p365
I1
sVd9zim7x
p366
I1
sVd62aynp
p367
I1
sVd72t9he
p368
I1
sVd1ekrvm
p369
I2
sVdgq15ow
p370
I1
sVd93x789
p371
I1
sVdc8qdmd
p372
I1
sVd4rnjr7
p373
I1
sVdml5zdh
p374
I2
sVdafyc7k
p375
I1
sVdp4wtpq
p376
I1
sVd3cks07
p377
I1
sVddd6xfq
p378
I1
sVd0t84oq
p379
I1
sVd10sl01
p380
I1
sVd83paex
p381
I1
sVdcc50uz
p382
I1
sVdbltcuz
p383
I1
sVdnw88ju
p384
I1
sVdjit0k6
p385
I3
sVda0yjwt
p386
I2
sVd63vcfc
p387
I1
sVdbzfuep
p388
I2
sVdml8hfs
p389
I1
sVd3hvtyy
p390
I1
sVd30x4fv
p391
I1
sVd5r6ik3
p392
I1
sVdhelmjz
p393
I2
sVdefe5mf
p394
I1
sVd1smn02
p395
I1
sVdnub92k
p396
I1
sVde4thjy
p397
I1
sVd0388o5
p398
I1
sVda23bj5
p399
I1
sVd31maj5
p400
I1
sVd1e9ltb
p401
I1
sVcywiuv9
p402
I1
sVdkp3w1m
p403
I1
sVdr0nol7
p404
I1
sVd9tw3a5
p405
I1
sVdpjgt7x
p406
I1
sVcyujcy6
p407
I1
sVd3kg1zo
p408
I2
sVd24umhb
p409
I2
sVd5wux6a
p410
I1
sVd346qi0
p411
I1
sVd431ha0
p412
I1
sVd53bb9b
p413
I1
sVd5sis6v
p414
I1
sVczc5tli
p415
I1
sVdaqac6v
p416
I1
sVd47u0vb
p417
I1
sVd3hyz1h
p418
I1
sVdaas71u
p419
I1
sVdc20k23
p420
I1
sVdf2ps6k
p421
I1
sVcysp6k6
p422
I1
sVd2c49ui
p423
I1
sVd253n8b
p424
I1
sVdazbccn
p425
I1
sVd60ocpv
p426
I1
sVd0p82va
p427
I1
sVdk2gfru
p428
I1
sVd2yh1zu
p429
I1
sVd4d4mqo
p430
I1
sVd43mmmn
p431
I1
sVdk78iyl
p432
I1
sVdgorf0l
p433
I2
sVddwms6m
p434
I2
sVd9xpt1h
p435
I1
sVdnnxm9m
p436
I1
sVdfgox4n
p437
I1
sVdo4yhaf
p438
I1
sVdpzzr6a
p439
I1
sVd72dbin
p440
I1
sVd6ea74u
p441
I1
sVd67pljx
p442
I1
sVdj2g7tc
p443
I1
sVdg12j1j
p444
I1
sVd08e5ri
p445
I1
sVdi8xo4l
p446
I3
sVddyt7q2
p447
I2
sVd14j8uq
p448
I2
sVdbhz35b
p449
I1
sVd6hs1pz
p450
I2
sVd8jfsfd
p451
I1
sVdenxbyf
p452
I3
sVd6hcq89
p453
I1
sVdbtco7l
p454
I1
sVd0gy6xt
p455
I1
sVdni34mz
p456
I1
sVdicp9ep
p457
I1
sVdb5jblk
p458
I1
sVczoveau
p459
I1
sVderreb9
p460
I2
sVdco4crz
p461
I2
sVdgmjniw
p462
I1
sVddxu9nw
p463
I1
sVdfgdtas
p464
I1
sVddtrgnu
p465
I1
sVczl3ao5
p466
I1
sVd5p9gvp
p467
I1
sVde8fn7e
p468
I1
sVdjvfdza
p469
I1
sVd92k8b8
p470
I1
sVd8scers
p471
I1
sVd0xvl29
p472
I1
sVddu4yiq
p473
I2
sVd2ycr6e
p474
I1
sVd0ldsj4
p475
I1
sVdkcjtvg
p476
I1
sVd10qoqr
p477
I2
sVd20h4pw
p478
I1
sVdcb8uv8
p479
I1
sVdf387vs
p480
I1
sVd19obrw
p481
I1
sVdsuu4v2
p482
I1
sVd7jwyt6
p483
I1
sVd85sm3t
p484
I1
sVdgj0hoa
p485
I1
sVdemq8yv
p486
I1
sVdshrsi9
p487
I1
sVddkqdf4
p488
I1
sVd7aonq7
p489
I1
sVczu7872
p490
I1
sVdmyjqsa
p491
I3
sVdqw5avo
p492
I1
sVdd528w2
p493
I1
sVdmlxkwq
p494
I1
sVdt85dy4
p495
I1
sVd13zzea
p496
I1
sVdihz01w
p497
I1
sVd0iuvyy
p498
I1
sVd31cotn
p499
I1
sVd2s8cu4
p500
I1
sVd5zuajm
p501
I1
sVd3g968p
p502
I1
sVddtwyhz
p503
I1
sVdg8oz17
p504
I1
sVd6jd790
p505
I1
sVdgib2e8
p506
I1
sVdg3u9gq
p507
I1
sVd7jfl1l
p508
I1
sVd0kz9kc
p509
I1
sVda5x8mm
p510
I1
sVdin8xxr
p511
I1
sVdfldmji
p512
I1
s.