(dp0
Vdqqbwis
p1
I1
sVda84sod
p2
I1
sVdh76ut1
p3
I1
sVczs4gc4
p4
I1
sVdh21rkb
p5
I1
sVdrkrbg2
p6
I1
sVd6k0bsv
p7
I1
sVdhsxq5t
p8
I1
sVczuhfhn
p9
I1
sVd0rhdt2
p10
I1
sVd2fmy9e
p11
I1
sVd4r0ecm
p12
I1
sVdgezex5
p13
I1
sVdjo4e0m
p14
I1
sVczmxmu2
p15
I1
sVdpfml8s
p16
I1
sVdpqt466
p17
I1
sVdj5al6n
p18
I1
sVdgapuv0
p19
I1
sVds04o61
p20
I2
sVdcuf1pd
p21
I1
sVd1todw1
p22
I1
sVd0er5cn
p23
I1
sVdd4r3z4
p24
I1
sVd2sn22h
p25
I1
sVczbzb8g
p26
I1
sVdg688fr
p27
I1
sVdfdpjyj
p28
I1
sVd51dux7
p29
I1
sVd648be3
p30
I1
sVdd1z9w0
p31
I1
sVd54p39c
p32
I1
sVdamrpi5
p33
I1
sVdp06qcl
p34
I1
sVd4c3p03
p35
I1
sVcymbs6b
p36
I1
sVdgfp16w
p37
I2
sVde0mgva
p38
I1
sVdq3ds9y
p39
I1
sVd5k2nb8
p40
I1
sVd2r4dzn
p41
I1
sVdmwx1ne
p42
I1
sVd5u5zos
p43
I1
sVdbd3k3o
p44
I1
sVdbqo5yo
p45
I1
sVdcciwvt
p46
I1
sVd3xuees
p47
I1
sVd5un91g
p48
I1
sVdnbbc3a
p49
I1
sVdjrfxaz
p50
I1
sVd4b80a3
p51
I2
sVdt5rttj
p52
I1
sVcz7px8j
p53
I1
sVdmigoig
p54
I1
sVdmz7b53
p55
I1
sVdsv8mh7
p56
I1
sVd427htf
p57
I1
sVd2fsw0r
p58
I1
sVdpvpfv3
p59
I1
sVdp7gqv2
p60
I1
sVdkfkled
p61
I1
sVd472ecu
p62
I1
sVczvyw5p
p63
I1
sVdj3mwip
p64
I1
sVdergn84
p65
I2
sVdinsjnq
p66
I1
sVdeytmyf
p67
I1
sVcz4nbqh
p68
I1
sVd9wwis8
p69
I1
sVdbylwt7
p70
I1
sVd5yhtm5
p71
I1
sVcz2c8s2
p72
I1
sVd41bdxg
p73
I1
sVdpuiv8w
p74
I1
sVdih6ehw
p75
I1
sVdfvs8ex
p76
I1
sVdjaodyo
p77
I1
sVd08oyae
p78
I2
sVdamar5t
p79
I1
sVd36gg6a
p80
I1
sVczkaeoi
p81
I1
sVd6hendm
p82
I1
sVd8kb5f2
p83
I2
sVdcgf4kr
p84
I2
sVda7l2au
p85
I1
sVdcdxzrj
p86
I1
sVd1mcq8d
p87
I1
sVd3nom87
p88
I2
sVd4kx4ws
p89
I1
sVcyphklk
p90
I1
sVdbi7pg9
p91
I1
sVdewt7yu
p92
I1
sVd735els
p93
I1
sVdh75aww
p94
I1
sVdgimiyf
p95
I1
sVdeoo2qu
p96
I1
sVd74jlup
p97
I1
sVdcc3ext
p98
I1
sVd1vobf5
p99
I1
sVdqotecx
p100
I2
sVcysw4oq
p101
I1
sVd9n0jhx
p102
I3
sVdn65opj
p103
I1
sVdb9f1cw
p104
I4
sVdk48et9
p105
I1
sVd5v7q2c
p106
I1
sVd20j512
p107
I1
sVd6mzrji
p108
I1
sVd5ijpwr
p109
I1
sVdc0svlw
p110
I1
sVd8r35u3
p111
I1
sVdctg7zr
p112
I1
sVd2i5u3y
p113
I1
sVd9f0j8c
p114
I1
sVdj9h966
p115
I1
sVdfz106h
p116
I1
sVdd13nh2
p117
I1
sVd2kgmxi
p118
I3
sVda3ta7f
p119
I1
sVdco6ct6
p120
I1
sVczao6f2
p121
I1
sVdpp6vae
p122
I1
sVdrmzdmn
p123
I1
sVd91m0zy
p124
I1
sVd9xjbxj
p125
I1
sVdpc52z6
p126
I1
sVd1mc9r8
p127
I1
sVdnvdylb
p128
I1
sVdg7a0c0
p129
I1
sVdj5d36x
p130
I1
sVcz9683n
p131
I2
sVds9qfcg
p132
I1
sVdcqa3ha
p133
I1
sVd5uza9x
p134
I1
sVd2nkhxt
p135
I1
sVdaupihc
p136
I1
sVd9dg00d
p137
I1
sVd1gfqyu
p138
I1
sVdhm8k7z
p139
I1
sVdevsvyi
p140
I2
sVdh0boot
p141
I1
sVdrnwtcw
p142
I1
sVcyt50hi
p143
I2
sVdc4offd
p144
I1
sVdhlnvkw
p145
I1
sVdc9nuq3
p146
I1
sVdj1zvul
p147
I1
sVd9l1joy
p148
I1
sVdgr79zj
p149
I1
sVd0piyei
p150
I1
sVdnhy84g
p151
I1
sVd0qsdbw
p152
I1
sVdhzy9bn
p153
I3
sVdak7js3
p154
I1
sVddicng7
p155
I1
sVddxjzzi
p156
I1
sVd6kk6ln
p157
I1
sVdakj51r
p158
I1
sVd9l3zhy
p159
I1
sVd7i6gmz
p160
I1
sVd00531x
p161
I1
sVdduhmbw
p162
I1
sVdjcnxu6
p163
I1
sVd3rqv4j
p164
I1
sVd48iv7a
p165
I1
sVd2kfkc3
p166
I1
sVd5e1esa
p167
I1
sVdc6w7ke
p168
I1
sVd1nrreu
p169
I1
sVdg7yqxv
p170
I1
sVdj2g18g
p171
I1
sVd807ttc
p172
I1
sVdffltms
p173
I2
sVdci2n31
p174
I1
sVd3nyggu
p175
I1
sVdrypa9c
p176
I1
sVd05v33k
p177
I1
sVdei77ms
p178
I1
sVd2dp3kp
p179
I1
sVdazbx6z
p180
I1
sVd2wpuvm
p181
I2
sVdj901s2
p182
I1
sVcyhy54j
p183
I1
sVdbq22qe
p184
I1
sVdp3lx0w
p185
I1
sVd93kl4f
p186
I1
sVd9xt43n
p187
I1
sVcyjmb2q
p188
I1
sVdov5u03
p189
I1
sVdhplf3z
p190
I1
sVdihs1dz
p191
I1
sVd49b892
p192
I3
sVd1wsm7y
p193
I1
sVd27jvxa
p194
I1
sVdifhi40
p195
I1
sVd4x5v8w
p196
I6
sVd24i98s
p197
I1
sVdkvdxnn
p198
I1
sVd8v77fp
p199
I1
sVd2xy9rc
p200
I1
sVd2hh5nw
p201
I1
sVd7143qi
p202
I1
sVdfr5g7y
p203
I1
sVds1hn8h
p204
I1
sVd3k7k9v
p205
I1
sVd9bvttk
p206
I1
sVdi4a0j8
p207
I1
sVdgb1w6m
p208
I1
sVdehjlcv
p209
I1
sVddcnmw5
p210
I1
sVd25qpte
p211
I1
sVdjfatv1
p212
I1
sVd0vfu60
p213
I1
sVdatlz0h
p214
I1
sVdjnv28h
p215
I1
sVdr7bieu
p216
I1
sVdg4uvho
p217
I1
sVdjrmfel
p218
I1
sVdhi8m7p
p219
I2
sVdql1ht8
p220
I1
sVda4awf7
p221
I1
sVczx4u70
p222
I1
sVd2j7ifr
p223
I1
sVdebvv08
p224
I1
sVd1s5tfp
p225
I1
sVdkr5yp2
p226
I1
sVddy4ckd
p227
I1
sVd1yraov
p228
I1
sVdsn18ls
p229
I1
sVdb28ndo
p230
I1
sVdk631fb
p231
I1
sVd2e094x
p232
I1
sVczh71ji
p233
I1
sVddsmbtn
p234
I1
sVd50wdzs
p235
I1
sVd04pfwe
p236
I1
sVdantcq6
p237
I1
sVd5r8jwn
p238
I1
sVddlp179
p239
I1
sVd2ruz2o
p240
I1
sVd4spstd
p241
I1
sVdbi6yiz
p242
I1
sVd4cqghu
p243
I1
sVdbata94
p244
I1
sVdinrz1d
p245
I1
sVdhnbkqj
p246
I1
sVdgioktf
p247
I1
sVdd3a4z1
p248
I2
sVdcy5bm2
p249
I1
sVd49oxmt
p250
I1
sVd1zy9dl
p251
I1
sVdgvekui
p252
I1
sVde0jgix
p253
I1
sVddd0i80
p254
I1
sVd945rbi
p255
I1
sVd0u5e69
p256
I1
sVd9kp3iy
p257
I1
sVdgxe1t4
p258
I1
sVd1jer8f
p259
I1
sVd5hkz5z
p260
I1
sVd1au5wp
p261
I1
sVdao78a5
p262
I1
sVd4y7iuc
p263
I2
sVd373n9q
p264
I1
sVd16mich
p265
I1
sVdkz94if
p266
I1
sVd1mtf71
p267
I1
sVdnhn9m4
p268
I1
sVdaj1olb
p269
I1
sVdjgrlnl
p270
I1
sVd9p77hf
p271
I1
sVcykezmp
p272
I1
sVdnb8h64
p273
I1
sVdn6k8l2
p274
I1
sVdngm96b
p275
I1
sVd8d8w40
p276
I1
sVdr2yz2t
p277
I1
sVdkcskzj
p278
I1
sVdrx8f42
p279
I1
sVd1lnzg0
p280
I1
sVd4xg6uj
p281
I1
sVdozxztt
p282
I1
sVcywwkvb
p283
I1
sVd8oib91
p284
I1
sVde8hcqh
p285
I1
sVd3zqvne
p286
I2
sVdcp9b37
p287
I1
sVd7ilp1b
p288
I1
sVdqxdgyw
p289
I1
sVdjbavot
p290
I1
sVd92by4p
p291
I1
sVdqyvd4q
p292
I1
sVd7bilbx
p293
I1
sVdi9366y
p294
I2
sVd5cmx7a
p295
I2
sVd89425q
p296
I1
sVd9f07ed
p297
I1
sVdjr9k5y
p298
I1
sVdbn28gn
p299
I1
sVdnwhol6
p300
I1
sVd6e2wwh
p301
I1
sVd1jrtad
p302
I1
sVddp7rfl
p303
I1
sVdedw4pp
p304
I1
sVd09vvr0
p305
I1
sVdo5li8w
p306
I1
sVd11towc
p307
I1
sVd534b8o
p308
I1
sVd1y9zv2
p309
I1
sVdkhjk1c
p310
I1
sVd0eyltm
p311
I1
sVdhqgqv6
p312
I1
sVdqe2488
p313
I1
sVdjf3khy
p314
I1
sVd6094il
p315
I1
sVd7bypp1
p316
I1
sVd517rix
p317
I1
sVdq64j9a
p318
I1
sVd75v2p0
p319
I1
sVdgqs4a9
p320
I1
sVdnac5e9
p321
I1
sVdkra429
p322
I1
sVdptd3vm
p323
I1
sVdhpnx6x
p324
I1
sVcytk676
p325
I1
sVdgujt9w
p326
I1
sVded15j5
p327
I1
sVcyz65h9
p328
I1
sVcz1mnof
p329
I1
sVdpoviq1
p330
I1
sVdaqzdix
p331
I1
sVdjz2oau
p332
I2
sVdegsgl8
p333
I1
sVdi7pba1
p334
I1
sVdramx49
p335
I1
sVdh4q1tx
p336
I1
sVd5y9sen
p337
I1
sVdj5k9q9
p338
I1
sVdp6za11
p339
I1
sVd5d58e9
p340
I1
sVd8fe4hf
p341
I1
sVdcjotjn
p342
I1
sVddfaxqu
p343
I1
sVd33l2cb
p344
I1
sVdg48d9t
p345
I1
sVdaqmfc1
p346
I1
sVdafksj4
p347
I1
sVd03bag2
p348
I1
sVdc21tkn
p349
I1
sVdn8s619
p350
I1
sVdia3e8l
p351
I1
sVd5mkb4t
p352
I1
sVd60qkrc
p353
I1
sVds44k1v
p354
I1
sVdj8tyuc
p355
I1
sVdg8nopq
p356
I1
sVdo4ed6o
p357
I1
sVd7kj0r1
p358
I1
sVd5x32oa
p359
I1
sVd46lnja
p360
I2
sVd2vvtcf
p361
I1
sVdkkaqfd
p362
I1
sVczlhlaq
p363
I1
sVdmv4bmu
p364
I1
sVd06t523
p365
I1
sVdg2y4aw
p366
I1
sVd3nuh8y
p367
I1
sVdjb5wgh
p368
I1
sVd1234mq
p369
I1
sVdc9c1ca
p370
I1
sVd7ps767
p371
I1
sVd629477
p372
I1
sVdab6lor
p373
I1
sVddmj11j
p374
I1
sVd85abk4
p375
I1
sVd5oqzdq
p376
I1
sVczgmj7j
p377
I1
sVd1lzpn5
p378
I1
sVdedtgpm
p379
I1
sVd1kcxvv
p380
I1
sVcyvgs6e
p381
I1
sVd5vl4l8
p382
I2
sVdew7tji
p383
I1
sVdct9d3v
p384
I1
sVdg89fbm
p385
I1
sVdq2tr87
p386
I1
sVdmkqv0g
p387
I1
sVd1fsi24
p388
I1
sVd26u8fx
p389
I1
sVczk0kyf
p390
I1
sVd2w1hx8
p391
I1
sVd59vgcq
p392
I1
sVd13e6yh
p393
I1
sVds44mz7
p394
I1
sVd7e89la
p395
I1
sVd1725x5
p396
I1
sVdop6cn3
p397
I1
sVdhol23h
p398
I1
sVd27j2o0
p399
I2
sVdi6oplc
p400
I1
sVd9kewu0
p401
I1
sVdk17kx0
p402
I1
sVdh08vpc
p403
I1
sVdjjd5lg
p404
I1
sVdp0br9t
p405
I1
sVcyijt8r
p406
I2
sVdc66mlo
p407
I1
sVdbklfg0
p408
I1
sVd49o9jj
p409
I1
sVdkh9nep
p410
I1
sVdd59v1u
p411
I1
sVdog7ffw
p412
I1
sVd6x2c68
p413
I1
sVdi6lqmg
p414
I1
sVdhrhvn4
p415
I1
sVd4d95mb
p416
I1
sVdro9349
p417
I2
sVd4qqfal
p418
I1
sVdan2bei
p419
I2
sVd14rr78
p420
I1
sVdciufow
p421
I1
sVd9emvqo
p422
I1
sVdh66d7c
p423
I1
sVdnkrexu
p424
I1
sVdh1s56a
p425
I1
sVdorox9h
p426
I1
sVdgijz9c
p427
I1
sVd5j7ji2
p428
I1
sVd4kpzad
p429
I1
sVd8dzql7
p430
I1
sVd1o468b
p431
I1
sVd2vh606
p432
I1
sVdcjw6c9
p433
I1
sVdfltfwl
p434
I1
sVdbtww58
p435
I1
sVd5dch2i
p436
I1
sVcziyggm
p437
I1
sVczvf517
p438
I1
sVd0qfcgp
p439
I1
sVd8tlhgm
p440
I1
sVde1qq07
p441
I1
sVd09tue9
p442
I1
sVdhgaaci
p443
I1
sVd465coh
p444
I1
sVcz9mva2
p445
I1
sVd44jj2g
p446
I1
sVd76ohkj
p447
I1
sVdnztb22
p448
I1
sVd9rwpt4
p449
I1
sVdgx471s
p450
I1
sVddag0vf
p451
I1
sVdo6v8lr
p452
I1
sVdh5aal5
p453
I1
sVddlir1m
p454
I1
sVdkidtkx
p455
I1
sVdefb4t4
p456
I1
sVd6xsp3d
p457
I1
sVd1ri068
p458
I1
sVdfwz4j3
p459
I1
sVd1kelwb
p460
I2
sVdcxatcc
p461
I1
sVdctsdnx
p462
I1
sVdjfdk9l
p463
I1
sVd5e11p2
p464
I1
sVddjty0g
p465
I1
sVd01fydi
p466
I1
sVdih856n
p467
I1
sVdbtx2az
p468
I2
sVdbgu9of
p469
I1
sVd0g5ync
p470
I2
sVd8osi3v
p471
I1
sVd7is4lv
p472
I1
sVd1fjytz
p473
I1
sVdn6h833
p474
I1
sVdcurpi5
p475
I1
sVd66x1d7
p476
I3
sVd98b4br
p477
I1
sVdntcylq
p478
I1
sVdh6we0c
p479
I1
sVdj2yuq1
p480
I1
sVdn2ydpv
p481
I1
sVdmv40x2
p482
I1
sVdhoawu5
p483
I2
sVdir91rp
p484
I1
sVdkge0q8
p485
I1
sVdjkkax5
p486
I1
sVdav6dmr
p487
I1
sVdof7kso
p488
I3
sVd2gt1pc
p489
I2
sVd58azld
p490
I1
sVd4xa7rs
p491
I2
sVdacx93b
p492
I1
sVdfclc8y
p493
I1
sVdrvhf3f
p494
I1
sVdo3otod
p495
I1
sVd9p77o5
p496
I1
sVcz2e1he
p497
I1
sVdntpxhd
p498
I1
sVdhr34ry
p499
I1
sVd213o88
p500
I1
sVcz2lt5h
p501
I1
sVdrwsltg
p502
I1
sVdakevvr
p503
I1
sVd8qvh9m
p504
I1
sVd53x6qx
p505
I1
sVczhl26n
p506
I1
sVdetvfbk
p507
I1
sVdd24cxq
p508
I1
sVdctxr28
p509
I1
sVd15u31c
p510
I1
sVd1ff6az
p511
I1
sVdjyh4n0
p512
I1
sVdn08609
p513
I2
sVdmuq6dk
p514
I1
sVd0kjsyo
p515
I1
sVdc4e86q
p516
I1
sVd9zggf1
p517
I2
sVdbnepjn
p518
I1
sVd03ovd4
p519
I1
sVd2gkxzr
p520
I1
sVdgcxc6h
p521
I1
sVd2191un
p522
I1
sVdirs3sx
p523
I1
sVd6h09of
p524
I1
sVdjir6ic
p525
I1
sVd72hjji
p526
I1
sVdjl53sc
p527
I1
sVdg34haf
p528
I1
sVcyn1jla
p529
I1
sVdn3mpo8
p530
I1
sVcyi4rib
p531
I1
sVd0nxjpu
p532
I1
sVdpol1zt
p533
I1
sVd220nkq
p534
I1
sVdt6358a
p535
I1
sVdr1wab7
p536
I1
sVdaikad4
p537
I1
sVdbb6kfs
p538
I1
sVdirvqlh
p539
I1
sVdd5ra7b
p540
I1
sVdp2mr5l
p541
I1
sVdskhplx
p542
I1
sVdpfamrw
p543
I1
sVd19lajq
p544
I1
sVdbkaq9a
p545
I3
sVdb7o5vs
p546
I1
sVd7aoxgp
p547
I1
sVddut6rf
p548
I1
sVdbi2ubl
p549
I1
sVdj76fv6
p550
I1
sVdqte2qr
p551
I1
sVdqzunnz
p552
I1
sVdghf52k
p553
I1
sVczh5s8g
p554
I1
sVdt77par
p555
I1
sVdi21w5w
p556
I1
sVd12wm7x
p557
I1
sVdj144ms
p558
I1
sVd5ntuzy
p559
I3
sVdkiusyi
p560
I1
sVdnnpw01
p561
I1
sVdbf45mm
p562
I1
sVdkr8vx6
p563
I1
sVcz3ypjy
p564
I1
sVdiee97x
p565
I1
sVd63xljj
p566
I1
sVdiabd03
p567
I1
sVd14oidc
p568
I1
sVdigb6g6
p569
I1
sVd3mpgv0
p570
I1
sVd084j34
p571
I1
sVd8pmmk4
p572
I1
sVdrgt9l3
p573
I1
sVczawtpt
p574
I1
sVddoo7az
p575
I1
sVcypfgxg
p576
I1
sVdrq5ion
p577
I1
sVd9fzj3s
p578
I1
sVd1fzeyl
p579
I1
sVd4c89yn
p580
I1
sVdj66ae6
p581
I1
sVd49f0qy
p582
I1
sVd249s4n
p583
I1
sVd04vs6e
p584
I1
sVdfgi4ka
p585
I1
sVdq72rn4
p586
I1
sVd1jxv7n
p587
I1
sVdio1r2u
p588
I1
sVd1hzxgv
p589
I1
sVd37t8zp
p590
I1
sVdkajvze
p591
I1
sVd1l4af7
p592
I1
sVdgdufia
p593
I1
sVcz4musf
p594
I1
sVd5adnie
p595
I1
sVd11klv4
p596
I1
sVdia4gde
p597
I1
sVdij7dc3
p598
I1
sVdi4s76j
p599
I1
sVdqgibs5
p600
I1
sVd6z68lj
p601
I1
sVdotbu63
p602
I1
sVdn70s85
p603
I1
sVd13bwlg
p604
I1
sVdbjdi4l
p605
I1
sVdd97tdh
p606
I1
sVd7qffba
p607
I1
sVd2ljljx
p608
I1
sVdh8byay
p609
I2
sVd0m0jij
p610
I1
sVd42phe6
p611
I1
sVdd3a70j
p612
I2
sVd96u64u
p613
I1
sVdoj7efe
p614
I1
sVd0lfem0
p615
I1
sVde7j153
p616
I1
sVd2i5z9w
p617
I1
sVd72ixqp
p618
I1
sVdh52ic7
p619
I1
sVdkw7gn7
p620
I1
sVd2f1dbi
p621
I1
sVd73i79n
p622
I1
sVd06p2j9
p623
I1
sVdr8nj0f
p624
I1
sVdbozcii
p625
I1
sVd3ubuge
p626
I1
sVdfzu8ue
p627
I1
sVd2842mu
p628
I1
sVdic4528
p629
I1
sVdimf8mt
p630
I1
sVdoh88sq
p631
I1
sVdc1cvyt
p632
I1
sVdjp3iqj
p633
I1
sVd6aod6l
p634
I1
sVde6jfdn
p635
I1
sVdbivim4
p636
I1
sVd1e69sn
p637
I1
sVdt5l3kj
p638
I1
sVdmt5h1j
p639
I1
sVd53i51w
p640
I1
sVd0dxjb0
p641
I1
sVdgyn38s
p642
I1
sVdfw1cnk
p643
I1
sVdoyvyi7
p644
I1
sVd2x78yd
p645
I1
sVdjzwajp
p646
I1
sVd3pjprr
p647
I1
sVd6ime6c
p648
I1
sVd7748el
p649
I3
sVd6snuyu
p650
I1
sVdb8gaya
p651
I1
sVdj1tg6q
p652
I1
sVdg8wlib
p653
I1
sVdcdpj30
p654
I1
sVczanpo5
p655
I1
sVd1d8e0m
p656
I2
sVd9p11di
p657
I1
sVdhgvotm
p658
I2
sVda224uv
p659
I1
sVdep55pp
p660
I1
sVd14r7go
p661
I1
sVdna5bde
p662
I1
sVdglq4qd
p663
I1
sVd197267
p664
I1
sVdbui4wu
p665
I1
sVd7e9ouz
p666
I1
sVdfnidk6
p667
I1
sVdaqc2n9
p668
I1
sVdistre5
p669
I1
sVdo1m4oo
p670
I1
sVd9x6k4c
p671
I1
sVdsayt82
p672
I1
sVd9xyjxf
p673
I1
sVcykvzjh
p674
I1
sVdt6jvcj
p675
I1
sVdemk4k5
p676
I1
sVdcc1fu6
p677
I1
sVczzhxv8
p678
I1
sVdds2mec
p679
I2
sVd0l2bzm
p680
I1
sVd7iu70e
p681
I1
sVd9kpq45
p682
I1
sVdqs4f2u
p683
I1
sVdkbvgyw
p684
I1
sVdj510qh
p685
I1
sVcz78awr
p686
I1
sVdek49rf
p687
I1
sVcz5bp92
p688
I1
sVcymajuk
p689
I1
sVcyw3y6w
p690
I1
sVdep0754
p691
I1
sVd7xyrz5
p692
I1
sVd3ufj2e
p693
I1
sVcyx7rvn
p694
I1
sVd6jx6ed
p695
I1
sVd5gxebb
p696
I1
sVdc1sojp
p697
I1
sVd3ov3xo
p698
I1
sVcz9us70
p699
I1
sVd1pptt4
p700
I1
sVdqsdb8z
p701
I2
sVd6lusx7
p702
I1
sVdc1jhgs
p703
I1
sVdcr6saj
p704
I1
sVdolxzsd
p705
I1
sVd0lgqvc
p706
I1
sVcznf72q
p707
I1
sVdbyla9a
p708
I1
sVd2a5btm
p709
I1
sVcyhycoc
p710
I1
sVdr16ex3
p711
I1
sVdkz8v39
p712
I1
sVd5wghmv
p713
I1
sVdhbjbus
p714
I1
sVd3ixgi0
p715
I1
sVdbabeo3
p716
I1
sVd4jy0vk
p717
I2
sVdjytjb0
p718
I1
sVdob4pk7
p719
I1
sVd08mb0q
p720
I1
sVdrzw81b
p721
I1
sVczott8d
p722
I1
sVddnbf1v
p723
I1
sVdtfzwjf
p724
I1
sVd0zpu2x
p725
I1
sVcypiwi8
p726
I1
sVdnfzbbl
p727
I1
sVdhyr1lp
p728
I1
sVd2hmsb5
p729
I1
sVcysrkso
p730
I1
sVdaq03lo
p731
I1
sVdf58zwi
p732
I1
sVd0c2b1n
p733
I1
sVddosxmg
p734
I1
sVd9wwvgo
p735
I1
sVd58zwwl
p736
I1
sVd14ueby
p737
I1
sVde60w7k
p738
I1
sVdijcohm
p739
I1
sVdb2a1s4
p740
I1
sVd7hp3of
p741
I1
sVdienefw
p742
I1
sVd0dvlib
p743
I1
sVdml3n9u
p744
I1
sVd6ty3mj
p745
I1
sVd5vbf01
p746
I3
sVd0jaax7
p747
I1
sVd7l3p8i
p748
I1
sVdig7w4k
p749
I1
sVdbqm2l3
p750
I1
sVd1i5a6a
p751
I1
sVdsbg1og
p752
I1
sVczgzyhs
p753
I1
sVdj1r23h
p754
I1
sVd4d8mdi
p755
I1
sVdahkjuu
p756
I1
sVcz1l5yh
p757
I1
sVd8sl77h
p758
I1
sVdeqjq3z
p759
I1
sVdcvbzoc
p760
I1
sVdoto3f5
p761
I1
sVcywuan9
p762
I1
sVdg3opiu
p763
I1
sVdehvf2c
p764
I1
sVdg6anwj
p765
I1
sVd50e6nh
p766
I1
sVdosr2b7
p767
I3
sVd7db17m
p768
I1
sVcypf5wg
p769
I1
sVczbq50m
p770
I1
sVdizoxjx
p771
I1
sVdix3roo
p772
I1
sVdgkciby
p773
I1
sVdeswkjw
p774
I1
sVd2j0y3u
p775
I1
sVd8mbld0
p776
I1
sVdgc7b2y
p777
I1
sVdhasnr4
p778
I1
sVdnrwevi
p779
I1
sVdsnkmy5
p780
I1
sVdkn21qk
p781
I1
sVdeuq6fs
p782
I1
sVdfwhqu0
p783
I1
sVd11dw0x
p784
I1
sVdpt8leb
p785
I1
sVdqukn56
p786
I1
sVd7xfdeq
p787
I1
sVdjuzv6q
p788
I2
sVdg9chwe
p789
I1
sVd0rnw8s
p790
I1
sVd79725v
p791
I1
sVd864pdf
p792
I1
sVd9kdk95
p793
I1
sVd7vysd6
p794
I1
sVd45ony5
p795
I1
sVd8ik04b
p796
I1
sVd2qujsc
p797
I1
sVdbrgfka
p798
I1
sVd0gun07
p799
I1
sVds03v9w
p800
I1
sVdg89x96
p801
I4
sVd6450bo
p802
I1
sVdi7bh98
p803
I1
sVdkxv4hb
p804
I1
sVczrtvnm
p805
I1
sVdgyo18l
p806
I1
sVd6jkwzk
p807
I1
sVdkr8pn2
p808
I1
sVdhjryj8
p809
I1
sVcynzal7
p810
I1
sVd3kndug
p811
I2
sVczh2hvb
p812
I1
sVdhl5m2p
p813
I1
sVdcg60oa
p814
I1
sVd50xi5c
p815
I1
sVdpudd1r
p816
I1
sVdakwuoz
p817
I1
sVdks86lf
p818
I1
sVcysth6g
p819
I1
sVd4iqc96
p820
I8
sVd1v62pg
p821
I1
sVd2np6jb
p822
I1
sVdmv4rj6
p823
I1
sVd0pp34k
p824
I1
sVdftatso
p825
I1
sVdi6l1zq
p826
I1
sVd08e5ri
p827
I1
sVczzsp4u
p828
I1
sVd99sqs2
p829
I1
sVd54lzij
p830
I1
sVdnbqpv1
p831
I1
sVd6c8x8b
p832
I1
sVdf6ewp6
p833
I1
sVdb5uajf
p834
I1
sVdkovyup
p835
I1
sVd2bh3om
p836
I1
sVd3j6pqw
p837
I1
sVdis5l99
p838
I1
sVd7nxoql
p839
I1
sVcymr3vr
p840
I1
sVdje3rza
p841
I1
sVdbyp3la
p842
I1
sVdnsh4z3
p843
I2
sVdjw9vfu
p844
I1
sVd87ckds
p845
I1
sVdbpgu7t
p846
I1
sVd9ajcj3
p847
I1
sVdber6q8
p848
I1
sVd4ieujk
p849
I1
sVdb9b2nf
p850
I1
sVdoi3ua0
p851
I1
sVdggpxoa
p852
I3
sVdjpba1e
p853
I1
sVd25wp0x
p854
I1
sVdc8x102
p855
I1
sVdhnifqc
p856
I1
sVd67dylh
p857
I1
sVdnmav01
p858
I1
sVdbklxj9
p859
I1
sVdgngd77
p860
I1
sVcze51pq
p861
I1
sVdk4j9zo
p862
I1
sVd2pkbfx
p863
I1
sVd2xrhb2
p864
I1
sVdeqizjw
p865
I1
sVdr5oloc
p866
I1
sVd0h0fwd
p867
I1
sVdko1zkg
p868
I1
sVdjbfcl1
p869
I1
sVd2k9xfe
p870
I1
sVd0b1h4m
p871
I1
sVd7qrsmc
p872
I1
sVdaznfrv
p873
I1
sVdihf3cb
p874
I1
sVdna41fx
p875
I1
sVczwzuti
p876
I1
sVdqhgzq5
p877
I1
sVd0odbgq
p878
I1
sVd7td233
p879
I1
sVd87r65c
p880
I2
sVd13xiv1
p881
I1
sVdqsho4i
p882
I1
sVcyup45w
p883
I2
sVdn2rqjj
p884
I1
sVdmux56m
p885
I1
sVd1ghp9j
p886
I1
sVdhyz9sk
p887
I1
sVd4h90e9
p888
I1
sVdpz18d1
p889
I3
sVds2jwqg
p890
I1
sVdehmlta
p891
I1
sVd064zty
p892
I2
sVdiwge8j
p893
I1
sVd0zcqam
p894
I3
sVdcaprxk
p895
I1
sVd4eof90
p896
I1
sVdfndlmo
p897
I1
sVd5b000n
p898
I1
sVdteirtp
p899
I1
sVd98cnl3
p900
I1
sVd7wzs4i
p901
I1
sVdie1hyq
p902
I1
sVdq59kx0
p903
I1
sVd4zqeya
p904
I1
sVdj2ty5o
p905
I1
sVdi2xa40
p906
I1
sVd92qs7a
p907
I1
sVdgi26gm
p908
I1
sVd2hg9qf
p909
I1
sVd35goob
p910
I1
sVdochq84
p911
I1
sVdedoqsf
p912
I2
sVdgw390t
p913
I1
sVd2mdc10
p914
I1
sVdcwy9cx
p915
I1
sVdggv66u
p916
I1
sVd168vxe
p917
I1
sVdkuqlvd
p918
I1
sVd5zp1lp
p919
I1
sVdqco23t
p920
I1
sVd6uzjfu
p921
I2
sVdhc20qn
p922
I1
sVd04shsk
p923
I1
sVd0362f0
p924
I1
sVdruvzy8
p925
I1
sVd7k09om
p926
I1
sVdkh87a6
p927
I1
sVd1p5ud7
p928
I1
sVcz2xyag
p929
I1
sVd55cesk
p930
I1
sVdmyxwrw
p931
I1
sVd0x916g
p932
I1
sVcyn2vgm
p933
I1
sVdrytnfn
p934
I1
sVd8qenu0
p935
I1
sVdieky4d
p936
I1
sVd09fxwg
p937
I1
sVdiyp5uk
p938
I1
sVczajfx6
p939
I1
sVdfh9zy4
p940
I1
sVdezjqq7
p941
I1
sVdizh8r6
p942
I1
sVd5qvgsb
p943
I1
sVds92yo7
p944
I2
sVd3082il
p945
I1
sVdhzlwxg
p946
I1
sVd29f9y8
p947
I1
sVd1n1f85
p948
I1
sVd1laweb
p949
I1
sVd78i7nx
p950
I1
sVdqqw2jo
p951
I2
sVdfjs6ll
p952
I1
sVd4mt74h
p953
I1
sVdemggoi
p954
I2
sVd5o7xve
p955
I1
sVdf0r2jl
p956
I1
sVdausmwx
p957
I1
sVdca6e44
p958
I1
sVdcz38xr
p959
I1
sVd03aftw
p960
I1
sVdsuw8eb
p961
I1
sVddl0vf5
p962
I1
sVcynv0n5
p963
I1
sVd5rjo52
p964
I1
sVd3i8m30
p965
I1
sVdag1tiz
p966
I1
sVd9lup8g
p967
I1
sVdijchej
p968
I1
sVd1yrc5s
p969
I1
sVdpyan9r
p970
I1
sVdr0u67d
p971
I1
sVd8n0j0w
p972
I1
sVdbqz5dp
p973
I1
sVd1xy9ju
p974
I1
sVd9oqg2c
p975
I1
sVdkkprgo
p976
I1
sVdk8no7b
p977
I1
sVdbqop7y
p978
I2
sVdmf4kcf
p979
I1
sVdmgdzu7
p980
I1
sVd0x3ga8
p981
I1
sVdoq5g5c
p982
I1
sVcyickig
p983
I1
sVd1gu3uu
p984
I1
sVdgiqos8
p985
I1
sVdbkllvl
p986
I1
sVczm9ka7
p987
I1
sVdd7doie
p988
I1
sVdmkb0ci
p989
I1
sVdbhudad
p990
I1
sVczx2rd0
p991
I2
sVddf6tzb
p992
I1
sVd989nwt
p993
I1
sVdrygyq6
p994
I4
sVdfkotoz
p995
I1
sVdqio991
p996
I1
sVdkf2j70
p997
I1
sVd15ztqt
p998
I1
sVd3q1sbq
p999
I1
sVd16z9ps
p1000
I1
sVdeoc1v6
p1001
I1
sVdjcqlx8
p1002
I1
sVds51w23
p1003
I1
sVd8ce9os
p1004
I1
sVd2tttqw
p1005
I1
sVczaoozy
p1006
I2
sVdadat9u
p1007
I1
sVdif810g
p1008
I1
sVdjx5rqv
p1009
I1
sVdav4wov
p1010
I1
sVczm9j7d
p1011
I1
sVdsqe6yp
p1012
I1
sVdcw2le2
p1013
I1
sVdefiwkp
p1014
I1
sVd2c1s73
p1015
I1
sVdrqc7rq
p1016
I1
sVd1ye6sv
p1017
I1
sVd5vw5ke
p1018
I1
sVdgtz9r6
p1019
I1
sVddby5k1
p1020
I2
sVczfjaof
p1021
I1
sVd9sm50c
p1022
I1
sVdaslumo
p1023
I1
sVczai8yn
p1024
I3
sVd4qvqal
p1025
I1
sVdjiyxmt
p1026
I1
sVd0d197y
p1027
I2
sVdd17cl6
p1028
I1
sVd4u7h28
p1029
I1
sVdccemnv
p1030
I1
sVdmz74h9
p1031
I2
sVd6crfb5
p1032
I1
sVd7kr4h5
p1033
I1
sVd2tn9yy
p1034
I1
sVdgs194z
p1035
I1
sVdt2a2lz
p1036
I1
sVdk9qe88
p1037
I1
sVd2a48ce
p1038
I1
sVdi66iz3
p1039
I1
sVdflhn6a
p1040
I1
sVdgkc8sa
p1041
I1
sVdfq4qaw
p1042
I1
sVd6jztzq
p1043
I1
sVdmv9vcu
p1044
I1
sVdijgxla
p1045
I1
sVdh9rilv
p1046
I3
sVdpnwscb
p1047
I1
sVd15haus
p1048
I1
sVdg7vlos
p1049
I1
sVdoc2ql0
p1050
I1
sVdaclx4b
p1051
I1
sVdtj63oa
p1052
I1
sVdf2k87d
p1053
I1
sVd2o977p
p1054
I1
sVdryswv0
p1055
I1
sVdnlmop0
p1056
I1
sVd3j3fik
p1057
I2
sVdd26pxc
p1058
I1
sVd597ybf
p1059
I1
sVdjv31v8
p1060
I1
sVdjeb8v8
p1061
I1
sVdqxds6c
p1062
I1
sVdk9yvh2
p1063
I1
sVd15g97z
p1064
I1
sVds3kzxg
p1065
I1
sVdfmio1a
p1066
I1
sVdo7khw2
p1067
I1
sVdd1wyh0
p1068
I1
sVd19jbee
p1069
I1
sVdbojs41
p1070
I1
sVd6gu4b8
p1071
I1
sVd1ier5u
p1072
I3
sVdo0gcm3
p1073
I1
sVd0rs51c
p1074
I1
sVdgvijcc
p1075
I1
sVdckh07b
p1076
I1
sVczq4aru
p1077
I1
sVdgkcgwt
p1078
I2
sVd8vgx17
p1079
I1
sVd13jrcd
p1080
I1
sVd4sm61l
p1081
I1
sVddujuf8
p1082
I1
sVdgflgr5
p1083
I1
sVdmxro0p
p1084
I1
sVcyktywf
p1085
I1
sVd8rkv0r
p1086
I1
sVdj56pi8
p1087
I1
sVdn76onw
p1088
I2
sVd5turzw
p1089
I1
sVd6mgf63
p1090
I1
sVcyox66s
p1091
I1
sVdgksutw
p1092
I1
sVdrys8r1
p1093
I1
sVd948vyl
p1094
I1
sVdab7tju
p1095
I1
sVd21kfw3
p1096
I1
sVdtaws3o
p1097
I1
sVd2140lj
p1098
I1
sVdgcczma
p1099
I1
sVd1adngo
p1100
I1
sVd86hgtd
p1101
I1
sVdd37m8l
p1102
I1
sVdhtm2y4
p1103
I1
sVd3bww4q
p1104
I1
sVd6egup5
p1105
I1
sVddrl362
p1106
I1
sVdk24zp7
p1107
I1
sVd0c27d5
p1108
I1
sVd346n5d
p1109
I1
sVd5zm79q
p1110
I1
sVdepq6id
p1111
I1
sVdejfi46
p1112
I1
sVdj8bnvt
p1113
I1
sVdcqxwd3
p1114
I3
sVdi7zm71
p1115
I1
sVdrtl4wn
p1116
I1
sVdqhdzec
p1117
I1
sVdenqdtp
p1118
I1
sVd8bv9ff
p1119
I1
sVdfh30cj
p1120
I1
sVdj3bo0f
p1121
I1
sVczmgzfh
p1122
I1
sVd4ukr3d
p1123
I1
sVd2sfqos
p1124
I1
sVdb7ekaa
p1125
I1
sVczqf4qp
p1126
I1
sVdjzv6dp
p1127
I2
sVcyn1ba6
p1128
I1
sVd1gn2ul
p1129
I2
sVd0kg9m2
p1130
I1
sVdewtybb
p1131
I1
sVdeg68l7
p1132
I1
sVd0omo8o
p1133
I1
sVdbn4gts
p1134
I1
sVdhqv180
p1135
I1
sVd5n6y2i
p1136
I1
sVdse4pcn
p1137
I1
sVda8a851
p1138
I1
sVd4e897p
p1139
I1
sVdcmqgz2
p1140
I1
sVddht1oe
p1141
I1
sVd2ztxnj
p1142
I1
sVdquhn1r
p1143
I1
sVd3y59m8
p1144
I1
sVd7aecg1
p1145
I1
sVd148jqy
p1146
I1
sVdj4ekpx
p1147
I1
sVdjys4be
p1148
I1
sVd4ymyp5
p1149
I1
sVd7s6c6p
p1150
I1
sVczjza6v
p1151
I1
sVd5su7ck
p1152
I1
sVdsycrsd
p1153
I1
sVd39xm94
p1154
I1
sVd3cueu1
p1155
I2
sVdh2d6wl
p1156
I1
sVd30tp8w
p1157
I1
sVd63knj0
p1158
I1
sVdnsrecv
p1159
I1
sVdmr4sdf
p1160
I1
sVdd5pa7p
p1161
I1
sVd13zr84
p1162
I1
sVd3k1grq
p1163
I1
sVdrbnkvb
p1164
I1
sVd9d6lr4
p1165
I1
sVdhx8k05
p1166
I1
sVd9ve6ox
p1167
I1
sVd178bhe
p1168
I1
sVd1xy5st
p1169
I1
sVd6zj7ze
p1170
I1
sVdknp9oj
p1171
I1
sVd2cppu8
p1172
I1
sVdid1hi7
p1173
I1
sVdn1nsmb
p1174
I2
sVd14wbnm
p1175
I1
sVczv3r0d
p1176
I1
sVd62qlqq
p1177
I1
sVdk8r5hz
p1178
I1
sVd7e5s8f
p1179
I1
sVdk335zt
p1180
I1
sVdfkgj95
p1181
I1
sVd0hj4vb
p1182
I1
sVd1iz8dq
p1183
I1
sVcyspofl
p1184
I1
sVd529cnc
p1185
I1
sVdgvj8eq
p1186
I1
sVd6qnr5b
p1187
I1
sVdfvxijo
p1188
I1
sVdekyiyo
p1189
I1
sVcz2ken9
p1190
I1
sVdg8a5yh
p1191
I1
sVczw1sqi
p1192
I1
sVdamb6ru
p1193
I1
sVd73dbnn
p1194
I1
sVds3gp8c
p1195
I1
sVda7jvzg
p1196
I1
sVdqe7mj3
p1197
I1
sVdiz1r23
p1198
I1
sVdeymgyx
p1199
I1
sVdajifv2
p1200
I1
sVdd9lt7v
p1201
I1
sVdpvmd1z
p1202
I1
sVdgvbikq
p1203
I1
sVd27yszj
p1204
I1
sVde9efwx
p1205
I1
sVcz6s5lp
p1206
I1
sVdait5w2
p1207
I1
sVdcet1jb
p1208
I1
sVd3l6bi2
p1209
I1
sVdn3rmba
p1210
I1
sVcypr17f
p1211
I1
sVd5luzsx
p1212
I1
sVd105ad8
p1213
I1
sVdkhctz3
p1214
I1
sVdsw1s4c
p1215
I1
sVdd7qqb5
p1216
I1
sVdhrymmr
p1217
I1
sVdqgexlu
p1218
I1
sVcyyfof1
p1219
I1
sVcyjgkjv
p1220
I1
sVd2cxyad
p1221
I1
sVdgrmiwk
p1222
I1
sVdcsexun
p1223
I1
sVdgcsigd
p1224
I1
sVdsww418
p1225
I1
sVdfvnfan
p1226
I1
sVdbxayy2
p1227
I1
sVcyu881v
p1228
I2
sVdanzaok
p1229
I1
sVdmi1fpn
p1230
I2
sVdhq1ofi
p1231
I1
sVd77qy4t
p1232
I1
sVd4srac7
p1233
I1
sVdjio09v
p1234
I1
sVdmwomty
p1235
I1
sVdetokyl
p1236
I1
sVdhwqfmq
p1237
I1
sVdaykq8t
p1238
I1
sVdemeray
p1239
I1
sVdfyn30u
p1240
I1
sVdhtonp1
p1241
I1
sVdhwod9w
p1242
I1
sVdjwgd00
p1243
I1
sVdcbm6uw
p1244
I1
sVd617bfq
p1245
I1
sVdtdlkh1
p1246
I1
sVdhqbef8
p1247
I1
sVcz2adxv
p1248
I1
sVd98lexa
p1249
I1
sVddygvcq
p1250
I1
sVcze8dpe
p1251
I2
sVd43thlu
p1252
I1
sVdb8xbz9
p1253
I2
sVd1fa3b9
p1254
I1
sVdsfm0yb
p1255
I1
sVd28rce4
p1256
I2
sVcz5uqg9
p1257
I1
sVddihlhd
p1258
I1
sVdg5u9a3
p1259
I1
sVd2t87c3
p1260
I1
sVd20zl8a
p1261
I1
sVdkui82o
p1262
I1
sVd7d937a
p1263
I1
sVd2bzffy
p1264
I1
sVd9sqktb
p1265
I1
sVdg1tbvs
p1266
I1
sVdj8bcij
p1267
I1
sVdirk6wz
p1268
I1
sVd4mk7x1
p1269
I1
sVddpyt5d
p1270
I1
sVd62rk8j
p1271
I1
sVd1i8w0x
p1272
I1
sVcymwbak
p1273
I1
sVdkbl2in
p1274
I1
sVdhwk4s2
p1275
I1
sVdidq28y
p1276
I1
sVd5vz3ay
p1277
I2
sVd3v5jzd
p1278
I1
sVd7wlfc0
p1279
I1
sVdoz6np7
p1280
I1
sVd6hdtbw
p1281
I1
sVde2chhk
p1282
I1
sVdt7g4a5
p1283
I1
sVd1d8iqt
p1284
I1
sVdmstkh2
p1285
I1
sVdd5i8qq
p1286
I1
sVd9bsqrn
p1287
I1
sVd7xd2wa
p1288
I1
sVdeis4ns
p1289
I1
sVd8ekixb
p1290
I1
sVdac9ted
p1291
I1
sVd12xl63
p1292
I1
sVdfbaeqn
p1293
I1
sVd8hv9dn
p1294
I1
sVd9028zd
p1295
I1
sVd8v023l
p1296
I1
sVdeib1bw
p1297
I1
sVd9icsw1
p1298
I1
sVday8i20
p1299
I1
sVd66vy58
p1300
I1
sVdsg38cb
p1301
I1
sVde49okc
p1302
I1
sVdqo5z0q
p1303
I1
sVdryt2qt
p1304
I1
sVdbsr5nb
p1305
I1
sVdbyj0mg
p1306
I1
sVcykqzwk
p1307
I1
sVdbx8m1c
p1308
I1
sVdewyp8l
p1309
I1
sVdf06eg1
p1310
I1
sVdkcghez
p1311
I1
sVdf9opje
p1312
I1
sVczqha0z
p1313
I2
sVdd28c9a
p1314
I1
sVdc9546j
p1315
I1
sVd6jeonu
p1316
I1
sVdc7tnxi
p1317
I1
sVdp3v73z
p1318
I1
sVd8rrsl9
p1319
I1
sVdfcy0ej
p1320
I1
sVdnjzad5
p1321
I1
sVdoe6qc5
p1322
I1
sVczq7wl5
p1323
I1
sVd2ck7fu
p1324
I2
sVdcidtp9
p1325
I1
sVdqrniue
p1326
I1
sVd0lykhc
p1327
I1
sVd56d8kv
p1328
I1
sVd3pkeur
p1329
I1
sVdoypblk
p1330
I1
sVdflipjn
p1331
I1
sVd635ys4
p1332
I1
sVd5bjp4k
p1333
I1
sVd5zpagd
p1334
I1
sVd7nx8j5
p1335
I1
sVdhg5pib
p1336
I1
sVd0ny8mj
p1337
I1
sVdimebs7
p1338
I1
sVdjegm22
p1339
I1
sVddzbslf
p1340
I1
sVdccgcjf
p1341
I1
sVczaqkqa
p1342
I1
sVdj57jj2
p1343
I1
sVd3f3hbu
p1344
I2
sVdnmvs8e
p1345
I1
sVd0p0fpz
p1346
I1
sVd8zyu98
p1347
I1
sVdcy6pdc
p1348
I1
sVdb7n7go
p1349
I1
sVcywpkbk
p1350
I1
sVdh8kfbn
p1351
I1
sVd9tzgga
p1352
I1
sVdmrjfms
p1353
I1
sVcyyk3se
p1354
I1
sVdsa52ce
p1355
I1
sVd7gcev9
p1356
I1
sVdndjgyy
p1357
I1
sVdp1qoko
p1358
I1
sVdcjnzeq
p1359
I1
sVd8d18x8
p1360
I1
sVdbsgp3t
p1361
I4
sVdkj7gh1
p1362
I1
sVd26509w
p1363
I1
sVd3mawfy
p1364
I1
sVd68rtj7
p1365
I1
sVdewu1s3
p1366
I1
sVd8js8z2
p1367
I1
sVd0r942f
p1368
I1
sVdjv3y83
p1369
I1
sVddxnkto
p1370
I1
sVdaph7go
p1371
I1
sVd2jhse8
p1372
I1
sVdn7r7tg
p1373
I1
sVdi0t1xl
p1374
I1
sVd5ucfcs
p1375
I1
sVcz7v8aq
p1376
I1
sVd212ynv
p1377
I1
sVdslm7yz
p1378
I1
sVd6j2ygr
p1379
I1
sVdgsnpn7
p1380
I1
sVczvgsw1
p1381
I1
sVdda3ltg
p1382
I1
sVdax9ls4
p1383
I1
sVdfcicrk
p1384
I1
sVdjk9nf0
p1385
I1
sVdhj971f
p1386
I1
sVdjxxht0
p1387
I1
sVd1y85mq
p1388
I1
sVdd8vn7c
p1389
I1
sVdnh2woo
p1390
I1
sVd5o8xnd
p1391
I1
sVdqza5tc
p1392
I1
sVdibnix5
p1393
I1
sVdhuvaii
p1394
I1
sVdqldarn
p1395
I1
sVcyrloyw
p1396
I1
sVdatfqer
p1397
I1
sVdi8bth1
p1398
I1
sVddac5od
p1399
I1
sVd8dpwd3
p1400
I1
sVdawy638
p1401
I1
sVdofbmfr
p1402
I1
sVd27zhhp
p1403
I1
sVdd7yyok
p1404
I1
sVdisv2p1
p1405
I1
sVdp35pd5
p1406
I1
sVdcvy6jt
p1407
I1
sVdp8wyjl
p1408
I1
sVddne22n
p1409
I1
sVdqdgm93
p1410
I1
sVd3pgd5o
p1411
I2
sVdj22ixm
p1412
I1
sVdmv4e9r
p1413
I1
sVd001f6c
p1414
I1
sVdelij93
p1415
I1
sVdp06sxd
p1416
I2
sVd5vhow1
p1417
I1
sVczjzw79
p1418
I1
sVd5x6yvv
p1419
I1
sVd327bj2
p1420
I2
sVd7hpbiw
p1421
I1
sVd1fznt6
p1422
I1
sVda3qtak
p1423
I1
sVdawhprc
p1424
I1
sVd87nbml
p1425
I1
sVd2ys401
p1426
I1
sVdrv9myp
p1427
I1
sVd22xqfp
p1428
I1
sVd4bzsd9
p1429
I1
sVczlk8gq
p1430
I1
sVd08l0vt
p1431
I1
sVdge2zkz
p1432
I1
sVd8g6hhq
p1433
I1
sVd8nhx38
p1434
I1
sVd0s7psw
p1435
I1
sVdfntfxr
p1436
I1
sVd7s66jf
p1437
I3
sVdq63svp
p1438
I1
sVd7vmaj9
p1439
I1
sVdr0u9ka
p1440
I4
sVd8jf2zu
p1441
I1
sVdhfoh29
p1442
I1
sVddplqsc
p1443
I1
sVdoehodt
p1444
I1
sVd8dd8af
p1445
I1
sVda2rnpf
p1446
I1
sVdtbwqb1
p1447
I1
sVd0jpko2
p1448
I1
sVd6tcwhh
p1449
I1
sVd54lpbn
p1450
I1
sVd60q4hn
p1451
I1
sVd4908ml
p1452
I1
sVdbkbtvl
p1453
I1
sVdg4wdv2
p1454
I2
sVds7w9pq
p1455
I1
sVdia6phu
p1456
I1
sVdg2ut32
p1457
I1
sVd5e6o87
p1458
I1
sVd4jie09
p1459
I1
sVdavj1nf
p1460
I1
sVd87cg19
p1461
I2
sVds6nr0l
p1462
I1
sVdnahict
p1463
I1
sVdg49giw
p1464
I1
sVdjibqh4
p1465
I1
sVd3e18nv
p1466
I1
sVdrjex26
p1467
I1
sVdp8aj6w
p1468
I1
sVd034hkd
p1469
I1
sVd55tm1u
p1470
I1
sVd3wt262
p1471
I1
sVdi5uu6m
p1472
I1
sVd4nj3y1
p1473
I1
sVcyrw8lp
p1474
I1
sVd2quqhb
p1475
I1
sVd2663xv
p1476
I1
sVd55yp2y
p1477
I1
sVdhbzys6
p1478
I1
sVdcaleay
p1479
I1
sVdeeyify
p1480
I1
sVcyze6tn
p1481
I1
sVdp0pt32
p1482
I1
sVdkur517
p1483
I3
sVdkz79lo
p1484
I1
sVdcqoj6k
p1485
I1
sVd2wpsym
p1486
I1
sVdbmhmqg
p1487
I1
sVdrtv17p
p1488
I1
sVddsumml
p1489
I1
sVddds7em
p1490
I1
sVd7ul9of
p1491
I1
sVdazzl1x
p1492
I1
sVd0quyax
p1493
I1
sVd55aw8g
p1494
I1
sVdqetnmg
p1495
I1
sVd05e1xu
p1496
I1
sVd5xq1s9
p1497
I1
sVd2y6d81
p1498
I2
sVda34n3e
p1499
I1
sVd0ulpox
p1500
I1
sVd415vsx
p1501
I1
sVd3ybtyu
p1502
I1
sVd5vqy4x
p1503
I2
sVdd552k3
p1504
I1
sVd1r5s3m
p1505
I1
sVdfgdal6
p1506
I1
sVdj2i9ns
p1507
I1
sVddid3dg
p1508
I1
sVdsvdjzv
p1509
I2
sVd465ja4
p1510
I1
sVczw17rv
p1511
I1
sVczjiqrg
p1512
I1
sVdeeyha5
p1513
I1
sVdazusht
p1514
I1
sVd26dbh6
p1515
I3
sVded73ck
p1516
I1
sVde3nuji
p1517
I1
sVdchwn2l
p1518
I1
sVdko0x3z
p1519
I1
sVd30gsi9
p1520
I1
sVdbnt3t8
p1521
I1
sVdo76gi5
p1522
I1
sVdgwa0j0
p1523
I1
sVd0d2rxe
p1524
I1
sVdi3t11w
p1525
I1
sVdjsazfk
p1526
I1
sVdrv6ea7
p1527
I2
sVdp9widq
p1528
I1
sVd1rec4d
p1529
I1
sVcypeo54
p1530
I1
sVd33v4ox
p1531
I1
sVd3tdye2
p1532
I1
sVd0kays4
p1533
I1
sVczu1zzh
p1534
I1
sVdta5byl
p1535
I1
sVdj3u14s
p1536
I1
sVdpi1np6
p1537
I1
sVda9sun4
p1538
I1
sVd6ke2rg
p1539
I1
sVde708wc
p1540
I1
sVdktmneu
p1541
I1
sVdehfnjr
p1542
I1
sVd1zrnwe
p1543
I1
sVd6m4u4f
p1544
I1
sVd1dcs58
p1545
I2
sVdq614qm
p1546
I1
sVd0fqpwr
p1547
I1
sVdfs7bly
p1548
I1
sVd0dehx6
p1549
I1
sVdg8sgs5
p1550
I1
sVddygfb8
p1551
I1
sVdmxqf7d
p1552
I1
sVdq4j4tc
p1553
I1
sVda4inue
p1554
I1
sVdk5w850
p1555
I1
sVdcjv99i
p1556
I1
sVd9ly8to
p1557
I1
sVdmo2syd
p1558
I1
sVdjkfear
p1559
I1
sVd4sff86
p1560
I1
sVdirqnhx
p1561
I1
sVd1t2o7k
p1562
I1
sVd081ya2
p1563
I1
sVd5kxofq
p1564
I1
sVdj5zp3r
p1565
I1
sVdd4jxs3
p1566
I1
sVczvgns0
p1567
I1
sVd8bttsm
p1568
I1
sVd1utyhb
p1569
I1
sVdn4oe2d
p1570
I1
sVdgdmx5f
p1571
I2
sVd72h9ni
p1572
I1
sVczzwt1e
p1573
I1
sVda7wjjg
p1574
I1
sVdfv0sfq
p1575
I1
sVd4gh665
p1576
I1
sVdiug5ri
p1577
I1
sVded4dju
p1578
I1
sVcz5kyqo
p1579
I1
sVd0xg4kc
p1580
I1
sVd5udigh
p1581
I1
sVdesfurl
p1582
I1
sVdfwperj
p1583
I1
sVd37ssgr
p1584
I1
sVd6oowv1
p1585
I1
sVdhwactz
p1586
I1
sVdmqe6rg
p1587
I1
sVd15w4p6
p1588
I1
sVdaylf8z
p1589
I1
sVdcy8pm0
p1590
I1
sVd0rp1os
p1591
I1
sVdpp572x
p1592
I1
sVdi6nm8r
p1593
I1
sVdfwqa4h
p1594
I1
sVdbwd9hi
p1595
I1
sVddzs4yu
p1596
I1
sVd8gy1he
p1597
I1
sVd750wix
p1598
I1
sVdqaw5dh
p1599
I1
sVdn7mgag
p1600
I1
sVd93226q
p1601
I1
sVdmi6j7a
p1602
I1
sVcz9ch4d
p1603
I1
sVczurlsb
p1604
I1
sVda9bmcn
p1605
I1
sVcyqc9ul
p1606
I1
sVd8wsqc7
p1607
I1
sVdozlf8j
p1608
I1
sVd595iz2
p1609
I1
sVdjtweoh
p1610
I1
sVdngzk4d
p1611
I1
sVd7wtiw3
p1612
I1
sVdatq3uq
p1613
I1
sVd7efx66
p1614
I1
sVd4bjihl
p1615
I1
sVdfa2ln1
p1616
I1
sVcyp2c25
p1617
I1
sVcz2cb5z
p1618
I1
sVdh63s1h
p1619
I1
sVd0uy3n5
p1620
I1
sVdprijmi
p1621
I1
sVd6mri2u
p1622
I1
sVd65in28
p1623
I1
sVd95v7ff
p1624
I1
sVd9e9qi9
p1625
I1
sVdhc3bs0
p1626
I1
sVdnak477
p1627
I1
sVczjpjy1
p1628
I1
sVdgcsrfm
p1629
I1
sVd86bntc
p1630
I1
sVdn63051
p1631
I1
sVdie124q
p1632
I1
sVd4w89am
p1633
I1
sVdesw4ks
p1634
I1
sVd2zzz4q
p1635
I1
sVd45y215
p1636
I1
sVd09ijpm
p1637
I1
sVdok8nsk
p1638
I1
sVd7sbemf
p1639
I4
sVdixg95w
p1640
I1
sVdc23jc2
p1641
I1
sVdr0x0o3
p1642
I1
sVdhw771n
p1643
I1
sVdexlobv
p1644
I1
sVdt96vds
p1645
I1
sVd4qllac
p1646
I1
sVd8zz3e0
p1647
I2
sVd1kx78y
p1648
I1
sVdi7advf
p1649
I1
sVcze6ssa
p1650
I1
sVd0oyzw7
p1651
I1
sVdjo6nz4
p1652
I1
sVd95mlwy
p1653
I1
sVcyv6goc
p1654
I1
sVcz7s5q7
p1655
I1
sVd2jsmiz
p1656
I2
sVdkbiotm
p1657
I1
sVdf7carn
p1658
I1
sVdk9r8mr
p1659
I1
sVdcju86b
p1660
I1
sVdc3s06b
p1661
I1
sVd75tri3
p1662
I1
sVd12u74y
p1663
I1
sVdf73dcf
p1664
I1
sVd98k2kv
p1665
I1
sVcz0y2tv
p1666
I1
sVd96suy1
p1667
I1
sVdbyxrl3
p1668
I1
sVd168vb8
p1669
I1
sVdjifo0g
p1670
I1
sVdkjt3dl
p1671
I2
sVd03nme1
p1672
I1
sVdaizl23
p1673
I1
sVd22fi31
p1674
I1
sVdifw0sa
p1675
I1
sVd3cmdor
p1676
I1
sVd0d2xdo
p1677
I1
sVdkop3eq
p1678
I2
sVd5gz3av
p1679
I1
sVdcl6hge
p1680
I1
sVdprddt2
p1681
I1
sVd2ikem2
p1682
I1
sVdjw0y08
p1683
I5
sVd5l65wb
p1684
I2
sVddclaff
p1685
I1
sVdtgy8b6
p1686
I1
sVd5l1ykh
p1687
I1
sVd251hem
p1688
I1
sVdfgcp8y
p1689
I1
sVdr5d6vv
p1690
I1
sVczg0gmv
p1691
I1
sVd9gtmwe
p1692
I1
sVddpqwee
p1693
I1
sVd2j5zsk
p1694
I1
sVdiabc7y
p1695
I1
sVczuybxk
p1696
I1
sVd0u10uo
p1697
I1
sVdenuxry
p1698
I1
sVd91lgkx
p1699
I1
sVd14pp5o
p1700
I1
sVdji43tb
p1701
I1
sVdaeaev3
p1702
I1
sVd00wu3r
p1703
I1
sVdcwwzm0
p1704
I1
sVdgziye7
p1705
I1
sVd5i6he3
p1706
I1
sVd401shr
p1707
I1
sVdguj3oz
p1708
I2
sVde2rfuy
p1709
I1
sVd2vob2o
p1710
I1
sVd6vypgq
p1711
I1
sVd19wkh1
p1712
I1
sVdd6n77p
p1713
I1
sVdfe27ul
p1714
I1
sVd5nzfcv
p1715
I2
sVdkspuou
p1716
I1
sVdtd3pjm
p1717
I2
sVd3ruuuy
p1718
I1
sVdf05gjr
p1719
I1
sVcz6k9hs
p1720
I1
sVd4da7uo
p1721
I2
sVdmpkrum
p1722
I1
sVd9mkzuv
p1723
I1
sVdj1fufd
p1724
I1
sVdo3fydu
p1725
I1
sVdt63ho7
p1726
I1
sVd02d4kr
p1727
I1
sVdjv5qgl
p1728
I1
sVd82xi02
p1729
I1
sVdib3gh4
p1730
I1
sVdnt5588
p1731
I1
sVdbxs2sa
p1732
I1
sVczfnt5n
p1733
I1
sVd9d6fwk
p1734
I2
sVdft5mu5
p1735
I2
sVded8yvs
p1736
I1
sVdph6crb
p1737
I1
sVcyqxu78
p1738
I1
sVdcbja9x
p1739
I1
sVd3lm2xr
p1740
I1
sVdb3wnmw
p1741
I1
sVdkrrxmc
p1742
I1
sVd9cfsa6
p1743
I1
sVd981v4v
p1744
I1
sVd7lyb7k
p1745
I1
sVd2kg7ja
p1746
I1
sVcyoh2ya
p1747
I2
sVdomwqvo
p1748
I1
sVdjwfa01
p1749
I1
sVdeu5z8m
p1750
I1
sVdkqj3ff
p1751
I1
sVdsc1wz2
p1752
I1
sVdav7vot
p1753
I1
sVdrrswvi
p1754
I1
sVd3z95st
p1755
I1
sVdiv8oir
p1756
I1
sVd5yhm1b
p1757
I1
sVd94z6mu
p1758
I1
sVd81ap58
p1759
I1
sVd13ek1c
p1760
I1
sVczmfrw4
p1761
I1
sVdjcwqdi
p1762
I1
sVddzqvmx
p1763
I1
sVdrb0ds4
p1764
I1
sVdr9aego
p1765
I1
sVdqv4gie
p1766
I1
sVdcu75w0
p1767
I1
sVdcipj3b
p1768
I1
sVd96x6qe
p1769
I1
sVd86b5lb
p1770
I1
sVczjqgzy
p1771
I1
sVd7uinzx
p1772
I1
sVdhfzo5e
p1773
I1
sVd8esmdq
p1774
I1
sVczyucw5
p1775
I1
sVd4lf3wk
p1776
I1
sVdcijj50
p1777
I1
sVdpmnjdd
p1778
I1
sVdk8mb5e
p1779
I1
sVdk48ecr
p1780
I1
sVddc1wpq
p1781
I1
sVd47cjzr
p1782
I2
sVd5uhxys
p1783
I2
sVdje6pcl
p1784
I1
sVdesrzd1
p1785
I1
sVdgan8nx
p1786
I1
sVd96asoq
p1787
I1
sVd72zee4
p1788
I1
sVdgf913a
p1789
I1
sVczzhoak
p1790
I1
sVd7tgaon
p1791
I1
sVdi7zy14
p1792
I1
sVczb3lpf
p1793
I1
sVdqkwjsf
p1794
I1
sVdeufd72
p1795
I1
sVd69mqlq
p1796
I1
sVdgqzg7f
p1797
I1
sVd1tk8zp
p1798
I1
sVdd0ss4x
p1799
I1
sVdffjgei
p1800
I1
sVczetfff
p1801
I1
sVdnu88mr
p1802
I1
sVd8kws8c
p1803
I1
sVd8mxvr6
p1804
I1
sVdp29fwt
p1805
I1
sVdecal4h
p1806
I1
sVdq5rlvo
p1807
I1
sVdgvpnpq
p1808
I1
sVd5dgzy8
p1809
I2
sVdardhke
p1810
I1
sVdnufive
p1811
I1
sVczt99c4
p1812
I1
sVdo2ovqv
p1813
I2
sVdfevi0d
p1814
I1
sVdhevwj8
p1815
I1
sVdms4sjj
p1816
I1
sVd0t6i5o
p1817
I1
sVdbfqm44
p1818
I1
sVddzl50b
p1819
I1
sVdknuj7a
p1820
I1
sVdob1x98
p1821
I1
sVdg3oaza
p1822
I3
sVd34n3d9
p1823
I1
sVdr5xbbx
p1824
I1
sVdrodrhb
p1825
I1
sVdbspxch
p1826
I1
sVd7lvgy3
p1827
I1
sVd31zymd
p1828
I1
sVdc1xw3n
p1829
I1
sVd261rc1
p1830
I1
sVczc8176
p1831
I1
sVdhleqhl
p1832
I1
sVdewojz3
p1833
I1
sVdctpstr
p1834
I2
sVd126o0w
p1835
I1
sVd0b9eqh
p1836
I1
sVd3fki5h
p1837
I1
sVdoj7a6i
p1838
I1
sVdcrlyhw
p1839
I1
sVdpsgge0
p1840
I1
sVd796bvt
p1841
I1
sVd2g69jp
p1842
I1
sVd2dplj3
p1843
I1
sVd5i9k3w
p1844
I1
sVda80s1a
p1845
I2
sVd1js21o
p1846
I1
sVdf8pu06
p1847
I1
sVds11n6i
p1848
I1
sVda3ig4a
p1849
I1
sVdafex6k
p1850
I1
sVdey8ye5
p1851
I1
sVdc0l99s
p1852
I1
sVdnoa4i6
p1853
I1
sVdg5l7m2
p1854
I1
sVd7ttdte
p1855
I1
sVd4ibudq
p1856
I1
sVd6v4a4o
p1857
I1
sVczzlglp
p1858
I1
sVdenrk1t
p1859
I1
sVdd0d1uz
p1860
I1
sVd39vylu
p1861
I2
sVdbrggvg
p1862
I1
sVd7sj8ab
p1863
I1
sVdmjpnn2
p1864
I1
sVd9vn8ho
p1865
I1
sVdairmcb
p1866
I1
sVdikuuh0
p1867
I1
sVd7kq6gr
p1868
I1
sVd6pn6ex
p1869
I1
sVczyc50y
p1870
I1
sVdksbnaq
p1871
I1
sVd4au9ww
p1872
I1
sVdiipxnf
p1873
I1
sVdsb0lvr
p1874
I1
sVdf5n1ge
p1875
I1
sVdazqfgr
p1876
I1
sVds353m7
p1877
I1
sVdj56a06
p1878
I1
sVdn7okh2
p1879
I1
sVd11tatw
p1880
I1
sVdkg8mk3
p1881
I1
sVd10g437
p1882
I1
sVd77ska9
p1883
I1
sVd3i5v5x
p1884
I1
sVdnlqm7l
p1885
I1
sVdqhk6mo
p1886
I1
sVd1c9rcf
p1887
I1
sVd29c6fb
p1888
I2
sVdhwx83t
p1889
I1
sVdkjfs29
p1890
I1
sVd2o45ek
p1891
I1
sVdecy21l
p1892
I1
sVcz52fgl
p1893
I1
sVd6u9ikc
p1894
I1
sVdfq3u7x
p1895
I1
sVd4hxyrp
p1896
I1
sVdmuy94m
p1897
I1
sVdbmwb2k
p1898
I1
sVd2q7uep
p1899
I1
sVd01l8hm
p1900
I1
sVd1g720u
p1901
I1
sVdojta7i
p1902
I1
sVdeyqawv
p1903
I1
sVdgvylea
p1904
I1
sVd7ee4n8
p1905
I1
sVdbwnweb
p1906
I1
sVd7nmmxa
p1907
I1
sVdcja52p
p1908
I1
sVczxk3ep
p1909
I1
sVdaztfna
p1910
I1
sVdq4wmmn
p1911
I1
sVdc9du66
p1912
I1
sVd70ut8z
p1913
I1
sVdob3osz
p1914
I1
sVd629jds
p1915
I1
sVdk03j1f
p1916
I1
sVdb2nwwm
p1917
I1
sVczcbiey
p1918
I1
sVd4owq68
p1919
I1
sVdb646ch
p1920
I1
sVd4i360o
p1921
I1
sVd6ah442
p1922
I1
sVdisazeb
p1923
I1
sVd27cnld
p1924
I1
sVd6p7xtb
p1925
I1
sVd7s97ys
p1926
I3
sVczsnl5a
p1927
I1
sVddxd1ma
p1928
I1
sVdis5rcz
p1929
I1
sVdg22sf5
p1930
I1
sVdfqnkot
p1931
I2
sVdey8xq5
p1932
I1
sVd2eb8xy
p1933
I1
sVdnd1fax
p1934
I1
sVdnls7bz
p1935
I1
sVdnf943i
p1936
I1
sVdcce8pg
p1937
I1
sVde97t0g
p1938
I1
sVde1d3bh
p1939
I1
sVdnw664m
p1940
I1
sVdgcfdt4
p1941
I1
sVdqrt0mp
p1942
I1
sVd2xpfxe
p1943
I2
sVd1df7nr
p1944
I1
sVdpjte2z
p1945
I1
sVczt05a6
p1946
I1
sVdppxmwo
p1947
I1
sVd35nhxs
p1948
I1
sVd5gnsef
p1949
I1
sVcz1onh7
p1950
I1
sVdb8tgoq
p1951
I1
sVd3eloii
p1952
I1
sVd5kv1l7
p1953
I1
sVd4tcp0z
p1954
I1
sVdt673tk
p1955
I1
sVd5q32ic
p1956
I1
sVd2i5b63
p1957
I1
sVd1peyu3
p1958
I1
sVdc1cv7o
p1959
I1
sVd0brogl
p1960
I1
sVdrtq4st
p1961
I1
sVcyw63no
p1962
I1
sVd5jn7eq
p1963
I1
sVdi14bxk
p1964
I3
sVdms7t65
p1965
I1
sVdi2b2sk
p1966
I1
sVdf7svwd
p1967
I1
sVdf727f4
p1968
I1
sVd0d3u10
p1969
I1
sVd463nve
p1970
I1
sVdopc675
p1971
I1
sVd2t1nsl
p1972
I1
sVd19501g
p1973
I1
sVdq2vqvh
p1974
I1
sVdfemcdo
p1975
I1
sVdcjszsj
p1976
I1
sVdihau6o
p1977
I1
sVcyr3k10
p1978
I1
sVczqjxa7
p1979
I1
sVd6kwarn
p1980
I1
sVdf3t9b5
p1981
I1
sVd7wjsjo
p1982
I1
sVdj2royd
p1983
I1
sVd7ftee2
p1984
I1
sVd4l2o8v
p1985
I1
sVcz89fp9
p1986
I1
sVdepoj3y
p1987
I1
sVd8t5jy5
p1988
I1
sVdeje3fq
p1989
I1
sVd2jwnlz
p1990
I1
sVdt9vihb
p1991
I1
sVdijg1w2
p1992
I1
sVd0zp5oh
p1993
I1
sVd7s67vy
p1994
I2
sVd0dvrxt
p1995
I1
sVdaa2fun
p1996
I1
sVds4w5ao
p1997
I2
sVd574yqi
p1998
I1
sVd0nl8cn
p1999
I1
sVd4rm2ls
p2000
I1
sVdskv3v2
p2001
I1
sVdapfnzo
p2002
I1
sVd25svmt
p2003
I1
sVdk07rgp
p2004
I1
sVd046vsd
p2005
I1
sVdg0u91j
p2006
I1
sVdgeof79
p2007
I1
sVdkop75f
p2008
I1
sVddefkfu
p2009
I1
sVdaysx9h
p2010
I1
sVdflw1s4
p2011
I2
sVcyy8tys
p2012
I1
sVdheemws
p2013
I1
sVdrp5b7w
p2014
I1
sVdojgcd1
p2015
I1
sVczqy8x1
p2016
I1
sVdhin6wp
p2017
I1
sVdkphqgw
p2018
I2
sVdiwq6xx
p2019
I1
sVd3114c4
p2020
I1
sVdf00paa
p2021
I1
sVd2kjvtp
p2022
I1
sVdff1dab
p2023
I1
sVdp4c5uv
p2024
I1
sVd1278wu
p2025
I1
sVd3fu8f4
p2026
I1
sVd5uy01z
p2027
I1
sVd5bhv4x
p2028
I1
sVdg34tcn
p2029
I1
sVczxm7id
p2030
I1
sVdh56o05
p2031
I1
sVdcfv5px
p2032
I1
sVd2o85uf
p2033
I1
sVd24ocvp
p2034
I1
sVd5th9pc
p2035
I1
sVd9af1r3
p2036
I1
sVd07vl51
p2037
I1
sVd796012
p2038
I1
sVd1lg7ec
p2039
I1
sVd55to4x
p2040
I1
sVczgra5m
p2041
I1
sVd7j71ti
p2042
I3
sVdpfkkm9
p2043
I1
sVd8ve7ss
p2044
I1
sVdoj828y
p2045
I1
sVdfyu2sv
p2046
I1
sVczzfwth
p2047
I1
sVdt4up9c
p2048
I1
sVdd4y6nd
p2049
I1
sVdeibffw
p2050
I1
sVdbaua8c
p2051
I1
sVd29l13w
p2052
I1
sVdd5cjfw
p2053
I1
sVd1sdzfj
p2054
I1
sVd84kbgj
p2055
I2
sVd9tssbq
p2056
I1
sVdien2ri
p2057
I1
sVczdmbf5
p2058
I1
sVdb3ver1
p2059
I1
sVd3vx4k8
p2060
I2
sVdmiryl5
p2061
I1
sVdsgzdlk
p2062
I1
sVd716vvx
p2063
I1
sVd0tjaip
p2064
I1
sVd2zjbey
p2065
I1
sVd5hfzqv
p2066
I1
sVdh2tuul
p2067
I1
sVdcmwxmp
p2068
I1
sVd0rvabr
p2069
I1
sVd89tc80
p2070
I1
sVda1z8zz
p2071
I1
sVd7qcet3
p2072
I1
sVdrxfw6b
p2073
I1
sVd5m4w0j
p2074
I1
sVd4fxcpy
p2075
I1
sVd7bac70
p2076
I1
sVdauc4b5
p2077
I1
sVd4we0l7
p2078
I1
sVdhjkpr0
p2079
I1
sVd5g8fpj
p2080
I1
sVd83xzwn
p2081
I1
sVdkj90ep
p2082
I1
sVcz6a81c
p2083
I1
sVdg5my5n
p2084
I1
sVd8d4n0l
p2085
I1
sVdhw5e03
p2086
I1
sVdckprr1
p2087
I1
sVdiaunbv
p2088
I1
sVd78efot
p2089
I1
sVdoi2yh3
p2090
I1
sVd75t6ci
p2091
I1
sVdfwp18s
p2092
I1
sVd4u3vd4
p2093
I1
sVd7hhqwu
p2094
I1
sVd5ibvic
p2095
I1
sVd61nqu3
p2096
I1
sVd22qe3k
p2097
I2
sVdt8sxk4
p2098
I1
sVdcubx88
p2099
I1
sVdnbfoim
p2100
I1
sVd66lt91
p2101
I1
sVdix3lvc
p2102
I1
sVd20ul2s
p2103
I1
sVddedc4d
p2104
I1
sVddzl3ae
p2105
I1
sVd69kogl
p2106
I1
sVd4h2lqn
p2107
I1
sVd6j3ezh
p2108
I1
sVd8tmwkb
p2109
I1
sVd4lf1w4
p2110
I1
sVdbtuqow
p2111
I1
sVdqiztns
p2112
I1
sVdqdhos1
p2113
I1
sVdkbft6a
p2114
I4
sVdcbxxep
p2115
I1
sVdfl02ut
p2116
I1
sVd098m9r
p2117
I1
sVdcuc4o8
p2118
I1
sVdph5j3n
p2119
I1
sVdantvg7
p2120
I1
sVd521wcl
p2121
I2
sVcyv2ld3
p2122
I1
sVdn1o3sl
p2123
I2
sVd1qa87c
p2124
I3
sVdng60vo
p2125
I1
sVd5oqj41
p2126
I1
sVd2jgox4
p2127
I1
sVdc6pxqh
p2128
I1
sVdcaysan
p2129
I1
sVdj44p2l
p2130
I1
sVdj3ckb3
p2131
I1
sVdpsdi7s
p2132
I1
sVdjbyssg
p2133
I1
sVcz975wq
p2134
I1
sVdo682oi
p2135
I1
sVdbgsj0y
p2136
I1
sVdrfvyki
p2137
I1
sVdka40gh
p2138
I1
sVdetvcpz
p2139
I1
sVdqtz00r
p2140
I1
sVdf529d4
p2141
I1
sVd0p4y5t
p2142
I1
sVdjb04qd
p2143
I1
sVdaa746w
p2144
I1
sVcz4it29
p2145
I1
sVd3an2f8
p2146
I1
sVdmhfqrv
p2147
I1
sVd4pedhj
p2148
I1
sVda75plf
p2149
I2
sVdcgmkjp
p2150
I1
sVdp8dj9g
p2151
I1
sVdj2c7ja
p2152
I1
sVdbapqcq
p2153
I1
sVdatwhgy
p2154
I1
sVdpzsp9o
p2155
I1
sVdd1ef25
p2156
I1
sVd6ohzc0
p2157
I1
sVdestax9
p2158
I1
sVd04xifa
p2159
I1
sVd4ne3bj
p2160
I1
sVdkk1cwz
p2161
I1
sVdby91v5
p2162
I1
sVd8jsyh0
p2163
I1
sVd9wtik5
p2164
I1
sVds52wre
p2165
I1
sVd3qj7tt
p2166
I1
sVdi865t6
p2167
I1
sVcyms0ky
p2168
I1
sVd5rtbsi
p2169
I1
sVcyxir1w
p2170
I2
sVd2oubhy
p2171
I1
sVdeffa9e
p2172
I1
sVdo5xd2r
p2173
I1
sVdk4bk57
p2174
I1
sVds6rvw1
p2175
I1
sVdpmcztm
p2176
I1
sVd63q6kw
p2177
I1
sVdek5h8a
p2178
I1
sVdrwjhy3
p2179
I1
sVcyx3v8u
p2180
I1
sVdnkx2k3
p2181
I1
sVdj4frii
p2182
I1
sVd9bw9db
p2183
I1
sVdink3r7
p2184
I2
sVdj77izk
p2185
I1
sVd319oza
p2186
I1
sVd4sk8c0
p2187
I1
sVdira81m
p2188
I1
sVdhghs64
p2189
I1
sVdi7160i
p2190
I1
sVdfv0oci
p2191
I1
sVd8npxwb
p2192
I1
sVcyuny2p
p2193
I1
sVd8vayzr
p2194
I1
sVdj7i4bu
p2195
I1
sVdbttibv
p2196
I1
sVddeumdy
p2197
I1
sVdpofrpk
p2198
I1
sVds8zkrt
p2199
I1
sVddo0ac1
p2200
I1
sVd985r83
p2201
I1
sVdaludm7
p2202
I1
sVd5f93vj
p2203
I1
sVdoh0wvz
p2204
I1
sVdoaimo7
p2205
I1
sVdhwisq0
p2206
I1
sVdb7iy2i
p2207
I1
sVd3n0lbx
p2208
I1
sVdavilik
p2209
I1
sVd35fcyt
p2210
I1
sVde3vmwi
p2211
I1
sVczbhat7
p2212
I1
sVd50nljc
p2213
I1
sVd3ffp9e
p2214
I1
sVczp3b6w
p2215
I1
sVd2xng23
p2216
I1
sVd72dgw9
p2217
I1
sVdpkcoyi
p2218
I1
sVd19o8dy
p2219
I1
sVdcyu374
p2220
I1
sVdmwwgn1
p2221
I1
sVczxvh3f
p2222
I1
sVd1rx66o
p2223
I1
sVd2rdywq
p2224
I2
sVdivqht2
p2225
I1
sVdteldka
p2226
I1
sVd0xfds4
p2227
I1
sVd0chhu2
p2228
I2
sVdfhguo4
p2229
I2
sVczov9ux
p2230
I1
sVd6pixnu
p2231
I1
sVdmlvnsz
p2232
I1
sVdcbh096
p2233
I1
sVdmx5o02
p2234
I1
sVdh7d2dj
p2235
I1
sVdp18rus
p2236
I1
sVd57uosd
p2237
I1
sVdiqm4wl
p2238
I1
sVdqecsnu
p2239
I1
sVcz9bnfi
p2240
I1
sVdempk6x
p2241
I1
sVdmv350k
p2242
I1
sVd2k4feq
p2243
I1
sVdpmi185
p2244
I1
sVdqztbw2
p2245
I1
sVcymr5aa
p2246
I1
sVczyqy47
p2247
I1
sVdhwm58y
p2248
I1
sVdsixe4x
p2249
I1
sVd43homr
p2250
I1
sVdmhho83
p2251
I1
sVd713kuw
p2252
I1
sVdfkyy2a
p2253
I1
sVd1vk6xm
p2254
I1
sVcyp7502
p2255
I1
sVd3egr8k
p2256
I1
sVdrg87up
p2257
I1
sVdcre30c
p2258
I1
sVddjn0v6
p2259
I1
sVdn8pn82
p2260
I1
sVdg6vp9y
p2261
I1
sVdnw9dt1
p2262
I1
sVd3oltjr
p2263
I1
sVdh2mff9
p2264
I1
sVdjh42fj
p2265
I1
sVdoki7pa
p2266
I1
sVdct928d
p2267
I1
sVda7zcno
p2268
I1
sVdppr0w4
p2269
I1
sVd8x3l1k
p2270
I1
sVd47h1tq
p2271
I1
sVd066dco
p2272
I1
sVdcw38qd
p2273
I1
sVdb4lliu
p2274
I1
sVdgoc730
p2275
I1
sVdk96gly
p2276
I1
sVczf7g11
p2277
I1
sVdfkehrz
p2278
I1
sVdd5jupk
p2279
I1
sVdit5iqx
p2280
I1
sVcytgbpj
p2281
I1
sVd93a71k
p2282
I2
sVd0xff4p
p2283
I1
sVd2x5mjj
p2284
I1
sVd125gsn
p2285
I3
sVdeg2wvy
p2286
I1
sVdjw2tqy
p2287
I1
sVd3e49td
p2288
I1
sVd916smt
p2289
I1
sVd2sncfm
p2290
I1
sVczvr9kl
p2291
I1
sVdamefxv
p2292
I1
sVd8t46p2
p2293
I1
sVdkvqy7a
p2294
I1
sVd35a4mz
p2295
I1
sVdfg9e2h
p2296
I2
sVdjo2r43
p2297
I1
sVdgtedjt
p2298
I1
sVdo5nsow
p2299
I1
sVd1kknql
p2300
I2
sVdkgqxtf
p2301
I1
sVd09c6vt
p2302
I1
sVczhxbjs
p2303
I1
sVcz3koxa
p2304
I1
sVdqfn6ej
p2305
I1
sVczb2yvu
p2306
I1
sVd66n3e1
p2307
I1
sVd5udfk7
p2308
I1
sVd0ykwhz
p2309
I1
sVd86cgoj
p2310
I1
sVd2xs753
p2311
I1
sVdjy5yfh
p2312
I1
sVd1bu2eq
p2313
I1
sVde7c8p5
p2314
I1
sVdcapxxd
p2315
I1
sVd14otje
p2316
I1
sVd4twinm
p2317
I1
sVdnsbj1t
p2318
I1
sVdnhpj01
p2319
I1
sVdo9ageo
p2320
I1
sVd2wr0p7
p2321
I1
sVd4no5ib
p2322
I1
sVdaqac4p
p2323
I1
sVd9eobjw
p2324
I1
sVd43y5p1
p2325
I1
sVddz9j5b
p2326
I1
sVdmvfmq3
p2327
I1
sVdqar6b6
p2328
I1
sVd44u62b
p2329
I1
sVdhwfduf
p2330
I1
sVdfmdftu
p2331
I1
sVd9a5ft1
p2332
I1
sVdmxhikg
p2333
I1
sVczv3yhi
p2334
I1
sVdhz7pz7
p2335
I1
sVdoej5ks
p2336
I1
sVdf222p0
p2337
I1
sVd8zbu53
p2338
I1
sVd7g59ls
p2339
I1
sVdmuh9sh
p2340
I1
sVdjffjhn
p2341
I1
sVdkm8b8e
p2342
I1
sVdjgcopm
p2343
I1
sVdnphqnd
p2344
I1
sVdce6z3c
p2345
I1
sVdevxk52
p2346
I1
sVd7zgtnb
p2347
I1
sVdd2p0dj
p2348
I1
sVd5mmv8s
p2349
I1
sVd3wxqsh
p2350
I2
sVdbcl8es
p2351
I1
sVd6mker2
p2352
I2
sVd1mpcts
p2353
I1
sVcyy35e1
p2354
I1
sVdieoxhm
p2355
I1
sVczx1ll8
p2356
I1
sVd2c1g8t
p2357
I1
sVd63wo5j
p2358
I1
sVcz0wjri
p2359
I1
sVcykjpgc
p2360
I1
sVdrhqr1a
p2361
I1
sVd76f1qw
p2362
I1
sVd0sno63
p2363
I1
sVdr5b2p2
p2364
I1
sVdeuj52t
p2365
I1
sVdn97ecg
p2366
I1
sVd0cvxcp
p2367
I1
sVdcy1s2f
p2368
I1
sVdscbvqx
p2369
I1
sVde5fhw9
p2370
I1
sVdkd0c0f
p2371
I1
sVdd53ai0
p2372
I1
sVdnsuuhl
p2373
I1
sVdmlqf7u
p2374
I1
sVdgd8umf
p2375
I1
sVdja25ee
p2376
I1
sVd2jjtb9
p2377
I1
sVdkr4pcv
p2378
I1
sVdeijfhb
p2379
I1
sVddsz7hm
p2380
I1
sVddd0ra7
p2381
I1
sVd0b9wf7
p2382
I1
sVdgdsfx6
p2383
I1
sVdqmio1x
p2384
I1
sVdp6lzx4
p2385
I1
sVd3jkv6p
p2386
I1
sVdb8s8jy
p2387
I1
sVd2kxffh
p2388
I1
sVdi5sjgn
p2389
I1
sVdae5uey
p2390
I1
sVdcarkan
p2391
I1
sVdcreog8
p2392
I1
sVd5ejy96
p2393
I1
sVd5eiz9v
p2394
I1
sVdh4pqvf
p2395
I1
sVdgdpczs
p2396
I1
sVdrjuziz
p2397
I1
sVd4qpezw
p2398
I1
sVdfncor4
p2399
I1
sVdqb1rdd
p2400
I1
sVdsnrrra
p2401
I1
sVdja7nce
p2402
I1
sVdgdpuou
p2403
I4
sVdhqfh5q
p2404
I1
sVdcwavyo
p2405
I1
sVd5m0lgn
p2406
I1
sVd3uettv
p2407
I1
sVczdilen
p2408
I1
sVdsxxlr2
p2409
I1
sVdeemj1n
p2410
I1
sVddbkzvt
p2411
I1
sVdb2x52b
p2412
I1
sVczsbynj
p2413
I1
sVdf9s645
p2414
I2
sVddj6d9d
p2415
I1
sVd1it4yl
p2416
I1
sVdr345bp
p2417
I1
sVdo5nxw3
p2418
I1
sVdcz7w66
p2419
I1
sVd0n8k65
p2420
I1
sVcze7dyd
p2421
I1
sVczh24j2
p2422
I2
sVdc30yib
p2423
I1
sVd4i1kup
p2424
I1
sVdjvu13y
p2425
I1
sVd70bmy5
p2426
I1
sVczzhw9g
p2427
I1
sVd04wc01
p2428
I1
sVdphgca8
p2429
I4
sVd56el1i
p2430
I1
sVdhn8mbx
p2431
I1
sVd55m1nn
p2432
I1
sVdj263ik
p2433
I1
sVd3i40sm
p2434
I1
sVd5em4j8
p2435
I1
sVd24wadp
p2436
I1
sVd5ho1x3
p2437
I1
sVcz21zcz
p2438
I1
sVddsz6kp
p2439
I1
sVdqpmcyw
p2440
I1
sVdjl71f9
p2441
I1
sVd9kx1co
p2442
I1
sVdf7v3qv
p2443
I1
sVdo2bmlo
p2444
I1
sVd4oc7yj
p2445
I1
sVd2geyme
p2446
I1
sVdswu4yv
p2447
I1
sVdtgz1ke
p2448
I1
sVd2o3phs
p2449
I1
sVdhp6khx
p2450
I1
sVd47v19o
p2451
I1
sVd3aphv2
p2452
I1
sVd8kds6h
p2453
I1
sVd1dbhdu
p2454
I1
sVdnq27we
p2455
I1
sVd5qz2gc
p2456
I1
sVd8ugy32
p2457
I1
sVdb5ybaj
p2458
I1
sVczwmajh
p2459
I1
sVddpsh1n
p2460
I1
sVd2q977a
p2461
I1
sVdi7wybr
p2462
I1
sVddjgebo
p2463
I1
sVdb544st
p2464
I1
sVd4lds44
p2465
I1
sVd2croeq
p2466
I1
sVcz8sj9p
p2467
I1
sVdehahul
p2468
I1
sVdgd3k16
p2469
I1
sVd42mq09
p2470
I2
sVd95u4tz
p2471
I1
sVd0dz1mz
p2472
I1
sVd173qam
p2473
I1
sVd9o2wl8
p2474
I1
sVd6ctyiw
p2475
I1
sVdr0knc3
p2476
I1
sVdbxzzgu
p2477
I1
sVdg5uubw
p2478
I1
sVd3sptrx
p2479
I1
sVdimm4td
p2480
I1
sVdp06vgz
p2481
I2
sVdgqijht
p2482
I1
sVdctxxqb
p2483
I1
sVdngawss
p2484
I1
sVdf9677u
p2485
I1
sVdhxysb3
p2486
I1
sVdg5bliq
p2487
I2
sVcz81dmj
p2488
I1
sVd2d23q7
p2489
I1
sVddtipzr
p2490
I1
sVd7wldyg
p2491
I1
sVdf2bbpk
p2492
I1
sVd31abqh
p2493
I1
sVd6xzntz
p2494
I1
sVd24ey1q
p2495
I1
sVd2ygryf
p2496
I1
sVda1yhgy
p2497
I1
sVdfzyou4
p2498
I1
sVdi6v671
p2499
I1
sVdbef6tj
p2500
I1
sVd14hkge
p2501
I1
sVddvdtwb
p2502
I2
sVczwmcvx
p2503
I1
sVdmesquk
p2504
I1
sVdbie55s
p2505
I2
sVdjzud75
p2506
I1
sVdfenk61
p2507
I1
sVdapefri
p2508
I1
sVdactqp9
p2509
I1
sVdn6y2u0
p2510
I1
sVdc4tprk
p2511
I1
sVdn3fo34
p2512
I1
sVdj1lb0t
p2513
I1
sVd6nz6dt
p2514
I1
sVdfu08oe
p2515
I1
sVdhv1e2k
p2516
I2
sVd5vzm5e
p2517
I1
sVddc6i5c
p2518
I1
sVdotiyu9
p2519
I1
sVdsotgrx
p2520
I1
sVcyzhpvi
p2521
I1
sVddgc3dk
p2522
I1
sVdke4ezw
p2523
I1
sVdepjp3s
p2524
I1
sVd3ccixg
p2525
I1
sVda0ijev
p2526
I1
sVdqauoek
p2527
I1
sVd7j2qmv
p2528
I1
sVdnwhu10
p2529
I1
sVdoa5lrz
p2530
I1
sVd4mk8zp
p2531
I1
sVdjpv64s
p2532
I3
sVd8zit1q
p2533
I1
sVd5uo3ue
p2534
I2
sVddxcyhz
p2535
I1
sVdt4dv18
p2536
I1
sVdrvivdu
p2537
I1
sVd21izyb
p2538
I1
sVd0antab
p2539
I1
sVdrqh1em
p2540
I1
sVd2b1g0y
p2541
I2
sVdceevkd
p2542
I1
sVdrsfl2k
p2543
I1
sVd1ekeq4
p2544
I1
sVd0ga4w6
p2545
I1
sVdry8ys2
p2546
I1
sVd02wjjf
p2547
I1
sVdatmk0j
p2548
I1
sVdg233l3
p2549
I1
sVd2un9rv
p2550
I1
sVdr7637i
p2551
I1
sVdcd6gcr
p2552
I1
sVdcs1bj3
p2553
I1
sVdgw6k5r
p2554
I1
sVd5c6178
p2555
I1
sVdevwvkq
p2556
I1
sVdn3fkgb
p2557
I1
sVd5c2n6c
p2558
I1
sVdan8ws3
p2559
I1
sVdpvld5v
p2560
I1
sVdbfdhgx
p2561
I1
sVczq4vdj
p2562
I1
sVdonexvq
p2563
I2
sVd8ls1v6
p2564
I1
sVdrym793
p2565
I1
sVd6g4tfp
p2566
I1
sVd243u73
p2567
I1
sVdqsfva1
p2568
I1
sVdfssnoh
p2569
I1
sVde6nelc
p2570
I1
sVdgdnd4m
p2571
I1
sVd27ycbv
p2572
I1
sVd5nk3nr
p2573
I1
sVd29i310
p2574
I1
sVdfvs7b2
p2575
I1
sVddghgq5
p2576
I1
sVdom2u5v
p2577
I1
sVdfvpimg
p2578
I1
sVczouh5m
p2579
I1
sVcyzj8cw
p2580
I1
sVdevlm56
p2581
I1
sVdkttast
p2582
I1
sVd4j64ar
p2583
I1
sVd42zbu9
p2584
I1
sVddy5e6v
p2585
I1
sVdo7yg8k
p2586
I1
sVdqpu174
p2587
I1
sVd036j35
p2588
I1
sVdaelwq8
p2589
I1
sVde8488y
p2590
I1
sVcz8itdc
p2591
I1
sVcysr9f6
p2592
I1
sVd3mng64
p2593
I1
sVds6pbi8
p2594
I1
sVdhjj99w
p2595
I2
sVdsuuoem
p2596
I1
sVdpzv1o9
p2597
I1
sVdf0090x
p2598
I1
sVdmux2ow
p2599
I1
sVd3jecsj
p2600
I1
sVd4xjz55
p2601
I1
sVdak02c6
p2602
I1
sVd6p3nmj
p2603
I1
sVdg2r59b
p2604
I2
sVdpuphjr
p2605
I1
sVd9bw8ha
p2606
I1
sVdggzt0z
p2607
I1
sVdg493nh
p2608
I1
sVdbfnqol
p2609
I1
sVd5mnhgj
p2610
I1
sVdpq32ca
p2611
I1
sVd184pjl
p2612
I1
sVd3owtoc
p2613
I1
sVd3lrqmv
p2614
I1
sVdid5xuh
p2615
I1
sVdah3g5d
p2616
I1
sVd6veoky
p2617
I1
sVdslsr3c
p2618
I1
sVdimqnpx
p2619
I1
sVd4thmpf
p2620
I1
sVdctbweq
p2621
I2
sVcyv9b0t
p2622
I1
sVd30mpr6
p2623
I1
sVdk3iemo
p2624
I1
sVdefuhzi
p2625
I1
sVdjpa1e0
p2626
I1
sVdf8nov2
p2627
I1
sVd790tbw
p2628
I1
sVdkv9oja
p2629
I1
sVdam0vd3
p2630
I1
sVd9k21un
p2631
I1
sVdrxfvss
p2632
I1
sVd3qaltx
p2633
I1
sVczkjkra
p2634
I1
sVd6hydp6
p2635
I1
sVd4e9x0k
p2636
I1
sVd3uomat
p2637
I1
sVd1sal3g
p2638
I1
sVd7dcm3u
p2639
I1
sVdmm360l
p2640
I1
sVdgox356
p2641
I1
sVde1a64c
p2642
I1
sVd71fil7
p2643
I1
sVdauu2xl
p2644
I1
sVds1pgol
p2645
I1
sVdiwrjlr
p2646
I1
sVdds2bir
p2647
I1
sVd3146ih
p2648
I1
sVd0z7yiq
p2649
I1
sVd3k6ok1
p2650
I1
sVdmluwqh
p2651
I1
sVd62oard
p2652
I1
sVd2fw4zj
p2653
I1
sVddol0wh
p2654
I1
sVcyknmdo
p2655
I1
sVdr2hxkp
p2656
I1
sVdho9ofo
p2657
I1
sVdjnflfe
p2658
I1
sVdjhgfly
p2659
I1
sVd8okrvw
p2660
I1
sVd6rn5vw
p2661
I1
sVdb0hput
p2662
I2
sVd9va8kf
p2663
I1
sVcyj04k4
p2664
I1
sVdfl14pl
p2665
I1
sVd2haz1w
p2666
I2
sVdj9s4mx
p2667
I1
sVdn16r97
p2668
I2
sVd9qluo5
p2669
I1
sVdnukilt
p2670
I1
sVdd6uiqi
p2671
I1
sVdnzvt3e
p2672
I1
sVcyirq9m
p2673
I1
sVdk5n6bu
p2674
I1
sVdf31zjw
p2675
I1
sVczmm51r
p2676
I1
sVcz270lt
p2677
I2
sVdsz86ee
p2678
I1
sVddu87nz
p2679
I1
sVdhqwf4w
p2680
I1
sVd75l28j
p2681
I1
sVdkkka1n
p2682
I1
sVd63ow9a
p2683
I1
sVd6isxb8
p2684
I1
sVdrai67r
p2685
I1
sVd7x9sst
p2686
I1
sVdpee682
p2687
I1
sVdr6vu7b
p2688
I1
sVczxopvx
p2689
I1
sVde7wk0x
p2690
I1
sVddrvo72
p2691
I1
sVdckklbf
p2692
I1
sVd0c5mmn
p2693
I1
sVd7vx90s
p2694
I1
sVdonc3en
p2695
I1
sVdc4212d
p2696
I1
sVda16he4
p2697
I1
sVdq11es0
p2698
I1
sVd22omsu
p2699
I1
sVd1ybku8
p2700
I1
sVczcdoko
p2701
I1
sVdqmh748
p2702
I1
sVczmpcg7
p2703
I1
sVdefmyr3
p2704
I1
sVdh50lui
p2705
I1
sVdiz2xw5
p2706
I1
sVdgzpd82
p2707
I1
sVdar831a
p2708
I1
sVd93jfd7
p2709
I1
sVde8oeqs
p2710
I1
sVddvcd2r
p2711
I1
sVdg3t3dw
p2712
I2
sVd1c0adc
p2713
I1
sVcyop97f
p2714
I1
sVdbcfon8
p2715
I1
sVdempjrc
p2716
I1
sVdftlluo
p2717
I1
sVdi1t3t5
p2718
I2
sVd8mfifu
p2719
I1
sVdjtaj8x
p2720
I1
sVd6ktna9
p2721
I1
sVddv5mhd
p2722
I1
sVd6p7wud
p2723
I1
sVd83924p
p2724
I1
sVdcnlaox
p2725
I1
sVd00v1fg
p2726
I1
sVd2zb3mc
p2727
I1
sVd0kud3g
p2728
I1
sVdfvqo36
p2729
I1
sVdn5wsx5
p2730
I1
sVd17isxx
p2731
I1
s.