(dp0
Vcyip6ms
p1
I1
s.(dp0
Vcyip6ms
p1
I1
sVcyjgkjv
p2
I1
s.(dp0
Vcyknmdo
p1
I1
sVcyip6ms
p2
I1
s.(dp0
Vcyku9om
p1
I1
sVcyip6ms
p2
I1
s.(dp0
Vcym5hup
p1
I1
sVcyip6ms
p2
I1
s.(dp0
Vcym5hup
p1
I1
sVcyip6ms
p2
I1
s.(dp0
Vcyip6ms
p1
I1
sVcynfcer
p2
I1
s.(dp0
Vcyugzht
p1
I1
sVcyip6ms
p2
I1
s.(dp0
Vcyv93ir
p1
I1
sVcyip6ms
p2
I1
s.(dp0
Vcyip6ms
p1
I1
sVcyye5uq
p2
I1
s.(dp0
Vcyip6ms
p1
I1
sVcyyms65
p2
I1
s.(dp0
Vcz136iy
p1
I1
sVcyip6ms
p2
I1
s.(dp0
Vcz29tjf
p1
I1
sVcyip6ms
p2
I1
s.(dp0
Vcz3aro0
p1
I1
sVcyip6ms
p2
I1
s.(dp0
Vcyip6ms
p1
I1
sVcz4gdnn
p2
I1
s.(dp0
Vcz7e5rp
p1
I1
sVcyip6ms
p2
I1
s.(dp0
Vczatlur
p1
I1
sVcyip6ms
p2
I1
s.(dp0
Vczatmpn
p1
I1
sVcyip6ms
p2
I1
s.(dp0
Vcyip6ms
p1
I1
sVczayk5e
p2
I1
s.(dp0
Vcyip6ms
p1
I1
sVczayk5e
p2
I1
s.(dp0
Vcyip6ms
p1
I1
sVczayk5e
p2
I1
s.(dp0
Vczb3lpf
p1
I1
sVcyip6ms
p2
I1
s.(dp0
Vczbfj2i
p1
I1
sVcyip6ms
p2
I1
s.(dp0
Vcyip6ms
p1
I1
sVczdn2oe
p2
I1
s.(dp0
Vcyip6ms
p1
I1
sVczdn2oe
p2
I1
s.(dp0
Vczg4mz6
p1
I1
sVcyip6ms
p2
I1
s.(dp0
Vcyip6ms
p1
I1
sVczhbrsz
p2
I1
s.(dp0
Vcznxvaj
p1
I1
sVcyip6ms
p2
I1
s.(dp0
Vczqha0z
p1
I1
sVcyip6ms
p2
I1
s.(dp0
Vcyip6ms
p1
I1
sVd00h6so
p2
I1
s.(dp0
Vcyip6ms
p1
I1
sVd017gx5
p2
I1
s.(dp0
Vd044wqm
p1
I1
sVcyip6ms
p2
I1
s.(dp0
Vcyip6ms
p1
I1
sVd045shm
p2
I1
s.(dp0
Vd05ptv5
p1
I1
sVcyip6ms
p2
I1
s.(dp0
Vd0737v4
p1
I1
sVcyip6ms
p2
I1
s.(dp0
Vd08yd0o
p1
I1
sVcyip6ms
p2
I1
s.(dp0
Vd08yd0o
p1
I1
sVcyip6ms
p2
I1
s.(dp0
Vcyip6ms
p1
I1
sVd0dlenw
p2
I1
s.(dp0
Vd0e1pku
p1
I1
sVcyip6ms
p2
I1
s.(dp0
Vd0euyu0
p1
I1
sVcyip6ms
p2
I1
s.(dp0
Vd0f9vg6
p1
I1
sVcyip6ms
p2
I1
s.(dp0
Vd0gdt9l
p1
I1
sVcyip6ms
p2
I1
s.(dp0
Vd0hek48
p1
I1
sVcyip6ms
p2
I1
s.(dp0
Vd0j09jy
p1
I1
sVcyip6ms
p2
I1
s.(dp0
Vd0mougw
p1
I1
sVcyip6ms
p2
I1
s.(dp0
Vd0mt8hq
p1
I1
sVcyip6ms
p2
I1
s.(dp0
Vcyip6ms
p1
I1
sVd0o5dp9
p2
I1
s.(dp0
Vd0p9j53
p1
I1
sVcyip6ms
p2
I1
s.(dp0
Vcyip6ms
p1
I1
sVd0x5imp
p2
I1
s.(dp0
Vcyip6ms
p1
I1
sVd0xbqri
p2
I1
s.(dp0
Vd15vzdu
p1
I1
sVcyip6ms
p2
I1
s.(dp0
Vd16m5ou
p1
I1
sVcyip6ms
p2
I1
s.(dp0
Vcyip6ms
p1
I1
sVd16wik4
p2
I1
s.(dp0
Vcyip6ms
p1
I1
sVd17lvux
p2
I1
s.(dp0
Vcyip6ms
p1
I1
sVd17lvux
p2
I1
s.(dp0
Vd183rgv
p1
I1
sVcyip6ms
p2
I1
s.(dp0
Vd1e4r1b
p1
I1
sVcyip6ms
p2
I1
s.(dp0
Vd1e4r1b
p1
I1
sVcyip6ms
p2
I1
s.(dp0
Vd1huxz0
p1
I1
sVcyip6ms
p2
I1
s.(dp0
Vd1kqaqj
p1
I1
sVcyip6ms
p2
I1
s.(dp0
Vcyip6ms
p1
I1
sVd1kuzh0
p2
I1
s.(dp0
Vcyip6ms
p1
I1
sVd1laweb
p2
I1
s.(dp0
Vcyip6ms
p1
I1
sVd1s1bas
p2
I1
s.(dp0
Vd1sw5ju
p1
I1
sVcyip6ms
p2
I1
s.(dp0
Vd1trwv0
p1
I1
sVcyip6ms
p2
I1
s.(dp0
Vd1vu4e9
p1
I1
sVcyip6ms
p2
I1
s.(dp0
Vcyip6ms
p1
I1
sVd1xgu4u
p2
I1
s.(dp0
Vcyip6ms
p1
I1
sVd1xu0dl
p2
I1
s.(dp0
Vd1zt9wz
p1
I1
sVcyip6ms
p2
I1
s.(dp0
Vcyip6ms
p1
I1
sVd20zway
p2
I1
s.(dp0
Vd212ynv
p1
I1
sVcyip6ms
p2
I1
s.(dp0
Vcyip6ms
p1
I1
sVd22jeud
p2
I1
s.(dp0
Vd25zvd9
p1
I1
sVcyip6ms
p2
I1
s.(dp0
Vd26dbh6
p1
I1
sVcyip6ms
p2
I1
s.(dp0
Vd274mkz
p1
I1
sVcyip6ms
p2
I1
s.(dp0
Vcyip6ms
p1
I1
sVd29e79j
p2
I1
s.(dp0
Vd2cgx4t
p1
I1
sVcyip6ms
p2
I1
s.(dp0
Vcyip6ms
p1
I1
sVd2ecw40
p2
I1
s.(dp0
Vd2el5na
p1
I1
sVcyip6ms
p2
I1
s.(dp0
Vcyip6ms
p1
I1
sVd2it0fk
p2
I1
s.(dp0
Vd2jqn22
p1
I1
sVcyip6ms
p2
I1
s.(dp0
Vcyip6ms
p1
I1
sVd2lzsjq
p2
I1
s.(dp0
Vd2mqma2
p1
I1
sVcyip6ms
p2
I1
s.(dp0
Vd2mugnv
p1
I1
sVcyip6ms
p2
I1
s.(dp0
Vcyip6ms
p1
I1
sVd2o7cpj
p2
I1
s.(dp0
Vd2ouvtc
p1
I1
sVcyip6ms
p2
I1
s.(dp0
Vcyip6ms
p1
I1
sVd2q7b0z
p2
I1
s.(dp0
Vcyip6ms
p1
I1
sVd2qgyft
p2
I1
s.(dp0
Vd2qzh55
p1
I1
sVcyip6ms
p2
I1
s.(dp0
Vcyip6ms
p1
I1
sVd2tkajn
p2
I1
s.(dp0
Vd2vqrim
p1
I1
sVcyip6ms
p2
I1
s.(dp0
Vcyip6ms
p1
I1
sVd2xswrf
p2
I1
s.(dp0
Vcyip6ms
p1
I1
sVd2y7qdg
p2
I1
s.(dp0
Vd2ylu45
p1
I1
sVcyip6ms
p2
I1
s.(dp0
Vd31x7nn
p1
I1
sVcyip6ms
p2
I1
s.(dp0
Vd37wzre
p1
I1
sVcyip6ms
p2
I1
s.(dp0
Vd39bg6o
p1
I1
sVcyip6ms
p2
I1
s.(dp0
Vd39bg6o
p1
I1
sVcyip6ms
p2
I1
s.(dp0
Vd3fwvhw
p1
I1
sVcyip6ms
p2
I1
s.(dp0
Vd3gwfx0
p1
I1
sVcyip6ms
p2
I1
s.(dp0
Vd3ik23u
p1
I1
sVcyip6ms
p2
I1
s.(dp0
Vd3j525b
p1
I1
sVcyip6ms
p2
I1
s.(dp0
Vd3j8yez
p1
I1
sVcyip6ms
p2
I1
s.(dp0
Vd3kx87r
p1
I1
sVcyip6ms
p2
I1
s.(dp0
Vd3kx87r
p1
I1
sVcyip6ms
p2
I1
s.(dp0
Vd3mj2yi
p1
I1
sVcyip6ms
p2
I1
s.(dp0
Vd3y0ky8
p1
I1
sVcyip6ms
p2
I1
s.(dp0
Vcyip6ms
p1
I1
sVd42mq09
p2
I1
s.(dp0
Vcy(dp0
Vdtimx6w
p1
I1
sVcyip6ms
p2
I1
s.