(dp0
Vdcc1fu6
p1
I1
sVd7brivo
p2
I1
sVd7we6xh
p3
I1
sVd3ik23u
p4
I1
sVd87preg
p5
I1
sVd2cgx4t
p6
I1
sVdixd8dl
p7
I1
sVd5ua2gu
p8
I1
sVdhtpptr
p9
I1
sVdfsvwij
p10
I1
sVd0j09jy
p11
I1
sVd0737v4
p12
I1
sVd0mougw
p13
I1
sVdthis1q
p14
I1
sVdcjczd5
p15
I1
sVd9p661r
p16
I1
sVdk3bjws
p17
I1
sVdczu30p
p18
I1
sVdnmoufa
p19
I1
sVd2o7cpj
p20
I1
sVdomtysh
p21
I1
sVdhdaerz
p22
I1
sVd212ynv
p23
I1
sVd4xlmj8
p24
I1
sVdgbcxsy
p25
I1
sVdp2abuu
p26
I1
sVdi4xvnc
p27
I1
sVdn0gsi0
p28
I1
sVd63s8m1
p29
I1
sVd9nvhit
p30
I1
sVd8uhm7l
p31
I1
sVdqspudy
p32
I1
sVd65w5uw
p33
I1
sVdc2u71g
p34
I1
sVdk5lt1y
p35
I1
sVd548bqb
p36
I1
sVdeu9tqm
p37
I1
sVd0e1pku
p38
I1
sVddz5a60
p39
I1
sVdcuhabp
p40
I1
sVdeazzzi
p41
I1
sVd49t9iw
p42
I1
sVdny3m86
p43
I1
sVd39bg6o
p44
I2
sVdhbjbus
p45
I1
sVdesd4cw
p46
I1
sVdgwivzg
p47
I1
sVdamzj5t
p48
I1
sVdp8bypd
p49
I1
sVdd9236v
p50
I1
sVd4jvtee
p51
I1
sVd0xbqri
p52
I1
sVdcyvve1
p53
I1
sVdav9qy9
p54
I1
sVd2it0fk
p55
I1
sVcym5hup
p56
I2
sVd0f9vg6
p57
I1
sVdbp31ys
p58
I1
sVd828f1s
p59
I1
sVdjyh4n0
p60
I1
sVdd8gpl1
p61
I1
sVd7byxs0
p62
I1
sVdfntfxr
p63
I1
sVd7s66jf
p64
I1
sVd0hek48
p65
I1
sVdh6at4k
p66
I1
sVdjzc4d2
p67
I1
sVddwwh1x
p68
I1
sVd1sw5ju
p69
I1
sVdp9vd8w
p70
I1
sVdgt5csc
p71
I1
sVds96h6b
p72
I1
sVdbootu0
p73
I1
sVdbr9t3x
p74
I1
sVdb87xsq
p75
I1
sVdomv5u9
p76
I1
sVd9n0lm2
p77
I1
sVd4376u5
p78
I1
sVdgovvzh
p79
I1
sVd53ku0w
p80
I1
sVdaon2gt
p81
I1
sVcyv93ir
p82
I1
sVd8zit1q
p83
I1
sVd183rgv
p84
I1
sVd2el5na
p85
I1
sVdemop7r
p86
I1
sVdk9i6s3
p87
I1
sVd6p9jxk
p88
I1
sVdncjh0i
p89
I1
sVd08yd0o
p90
I2
sVdqshive
p91
I1
sVcyugzht
p92
I1
sVd4kl722
p93
I2
sVde30b45
p94
I1
sVcyye5uq
p95
I1
sVdjuzv6q
p96
I1
sVd8g5638
p97
I1
sVdauyzdn
p98
I1
sVddxu6rw
p99
I1
sVdrwrnu9
p100
I1
sVd045shm
p101
I1
sVdg7a0c0
p102
I1
sVd66p803
p103
I1
sVdgcgdb5
p104
I1
sVd8fzwdl
p105
I1
sVdarn9i9
p106
I1
sVdbq4km8
p107
I2
sVdaludm7
p108
I1
sVdcib7h1
p109
I1
sVdi9wmo9
p110
I1
sVddq7j5l
p111
I1
sVd996zm3
p112
I1
sVdh9h32k
p113
I1
sVdidlgfh
p114
I1
sVdp0pbyh
p115
I1
sVdcphnwo
p116
I1
sVdk96gly
p117
I1
sVdaqrm8x
p118
I1
sVdahc969
p119
I1
sVd5oss0g
p120
I1
sVdq8i4pt
p121
I1
sVd0mt8hq
p122
I1
sVd4dz9bm
p123
I1
sVddwhq4t
p124
I1
sVd26dbh6
p125
I1
sVdeqi20q
p126
I1
sVdjk0wyk
p127
I1
sVdi0wdb3
p128
I1
sVd6y04pf
p129
I1
sVdjzku7m
p130
I1
sVdnnq2ac
p131
I1
sVd5gbq7a
p132
I1
sVdci7lt1
p133
I1
sVdctbmlh
p134
I2
sVdo36kat
p135
I1
sVd3j8yez
p136
I1
sVdn2vbaj
p137
I1
sVd3y0ky8
p138
I1
sVd17lvux
p139
I2
sVdmp30h8
p140
I2
sVd0gdt9l
p141
I1
sVdcr5j0h
p142
I1
sVdry8hms
p143
I1
sVdpbzwn2
p144
I1
sVd670rts
p145
I1
sVdoijxbh
p146
I1
sVdbmv49k
p147
I1
sVd25zvd9
p148
I1
sVd0dlenw
p149
I1
sVdsnrp2v
p150
I1
sVdrc0es9
p151
I1
sVdab28uy
p152
I1
sVdafi01a
p153
I1
sVd1trwv0
p154
I1
sVda8v6w4
p155
I1
sVd0euyu0
p156
I1
sVdoho75n
p157
I1
sVdd82ps0
p158
I1
sVdcggjat
p159
I1
sVdd23rxs
p160
I1
sVdco5qd6
p161
I1
sVdaik9ez
p162
I1
sVdrwzfyo
p163
I2
sVdfjpgti
p164
I1
sVd658d82
p165
I1
sVd4iliff
p166
I1
sVdn7ylo3
p167
I1
sVdeqtnmy
p168
I1
sVcznxvaj
p169
I1
sVd20zway
p170
I1
sVd2y7qdg
p171
I1
sVdsm7l18
p172
I1
sVcynfcer
p173
I1
sVdj3tur4
p174
I1
sVd9bkz8j
p175
I1
sVdg8a1cq
p176
I1
sVdkeb9cl
p177
I1
sVdfrvlxb
p178
I1
sVd00h6so
p179
I1
sVd2jqn22
p180
I1
sVdmrmp8g
p181
I1
sVdqmopn7
p182
I1
sVdrmopq0
p183
I1
sVdbw33rm
p184
I1
sVdsujxu7
p185
I1
sVdkh3gr0
p186
I1
sVdmikxc8
p187
I1
sVdtimx6w
p188
I1
sVdhic0s4
p189
I1
sVdjr8sdr
p190
I1
sVd61mgmr
p191
I1
sVczdn2oe
p192
I2
sVd8v8lmm
p193
I1
sVdhat154
p194
I1
sVd8mebsf
p195
I1
sVdkyap6b
p196
I1
sVd68s8ob
p197
I1
sVd15vzdu
p198
I1
sVdp4say7
p199
I1
sVd1vu4e9
p200
I1
sVczbfj2i
p201
I1
sVczayk5e
p202
I3
sVd7xaheu
p203
I1
sVd4qllac
p204
I1
sVcz29tjf
p205
I1
sVddoo4d6
p206
I1
sVdgksvdb
p207
I1
sVd6bhkoe
p208
I1
sVd5bsw6s
p209
I1
sVd4twc3f
p210
I1
sVdpfy2h3
p211
I1
sVdizc4i2
p212
I1
sVdnw0snh
p213
I1
sVdb2s7wp
p214
I1
sVcyip6ms
p215
I1
sVddrqzv2
p216
I1
sVdhbvfao
p217
I1
sVdd044rp
p218
I1
sVdf7txck
p219
I1
sVddag3ks
p220
I1
sVdgtp4pw
p221
I1
sVd3kx87r
p222
I2
sVd97bpd6
p223
I1
sVdhx9va4
p224
I1
sVdachnp7
p225
I1
sVdn03gru
p226
I2
sVd9uohbg
p227
I1
sVdb55etr
p228
I1
sVdqajbrv
p229
I1
sVdhl1qhj
p230
I1
sVdbpnhl0
p231
I1
sVdfrsnfj
p232
I1
sVd1huxz0
p233
I1
sVdp6za11
p234
I1
sVd4bxe38
p235
I1
sVdhrna5a
p236
I1
sVdb3pt7f
p237
I2
sVdjzc11z
p238
I1
sVd51cxfx
p239
I1
sVd61yiml
p240
I1
sVdq9w9f6
p241
I1
sVd044wqm
p242
I1
sVd2lzsjq
p243
I1
sVdiqhdsc
p244
I1
sVd2tkajn
p245
I1
sVdsn64bj
p246
I1
sVdc5zn3h
p247
I1
sVde2nx2s
p248
I1
sVd97khpj
p249
I1
sVd22jeud
p250
I1
sVdncxpy8
p251
I1
sVd61mte2
p252
I1
sVdezelvl
p253
I1
sVd6kqvet
p254
I1
sVd37wzre
p255
I1
sVdcqlbvg
p256
I1
sVdcjh6fs
p257
I1
sVdbyw37n
p258
I1
sVd9gtfoo
p259
I1
sVd9mkzuv
p260
I1
sVdbpkdfz
p261
I1
sVczhbrsz
p262
I1
sVddfclu8
p263
I1
sVd9d6fwk
p264
I1
sVdqpe0v2
p265
I1
sVd16wik4
p266
I1
sVdj28ecv
p267
I2
sVd7e89la
p268
I1
sVd96rmp3
p269
I1
sVdid1odj
p270
I1
sVd0p9j53
p271
I1
sVdgt471r
p272
I1
sVdiuobtu
p273
I1
sVd7eg6z0
p274
I1
sVd1laweb
p275
I1
sVd9r2ziw
p276
I1
sVds1ox8v
p277
I1
sVdqh2er4
p278
I1
sVd7cptru
p279
I1
sVdj52jng
p280
I1
sVdruc7fn
p281
I1
sVdkwzqar
p282
I1
sVdmpm8w6
p283
I1
sVd6u1ag0
p284
I1
sVd86b5lb
p285
I1
sVdhbvwen
p286
I1
sVdigprca
p287
I1
sVdorox9h
p288
I1
sVd42mq09
p289
I2
sVdft09zw
p290
I1
sVd7u2cn7
p291
I1
sVd0x5imp
p292
I1
sVd4g5e62
p293
I1
sVd2qzh55
p294
I1
sVdahtrfi
p295
I1
sVd5uhxys
p296
I1
sVdi9zivv
p297
I1
sVds56h95
p298
I1
sVdd97gxo
p299
I1
sVdsr0ue8
p300
I1
sVcyku9om
p301
I1
sVdf3y3zx
p302
I1
sVdnrfwby
p303
I1
sVddnpmca
p304
I1
sVdbq6763
p305
I1
sVd2qgyft
p306
I1
sVczb3lpf
p307
I1
sVd29e79j
p308
I1
sVd4gcv6p
p309
I1
sVdo9wyr8
p310
I1
sVddag0vf
p311
I1
sVdoenkn7
p312
I1
sVdgwz5tp
p313
I1
sVd6286ae
p314
I1
sVdb571ic
p315
I2
sVd1zt9wz
p316
I1
sVdduv9g1
p317
I1
sVdi6j2y8
p318
I1
sVdn9s2u7
p319
I1
sVddp5cfu
p320
I1
sVd1xgu4u
p321
I1
sVdhqc8oy
p322
I1
sVd8gqaka
p323
I1
sVdf071wt
p324
I1
sVd2ecw40
p325
I1
sVcz3aro0
p326
I1
sVdbdjsid
p327
I1
sVdraet47
p328
I1
sVdi9io7f
p329
I1
sVdfhfkm4
p330
I1
sVd3j525b
p331
I1
sVdesvzfp
p332
I1
sVdbevy4e
p333
I1
sVdaa0qql
p334
I1
sVd5v7qyw
p335
I1
sVdbsyyt4
p336
I1
sVdhx8k05
p337
I1
sVdemmu1r
p338
I1
sVd2xswrf
p339
I1
sVd6094il
p340
I2
sVdbzhuom
p341
I1
sVd16m5ou
p342
I1
sVd0o5dp9
p343
I1
sVd2q7b0z
p344
I1
sVd99acy6
p345
I1
sVdo479lg
p346
I1
sVdf0x254
p347
I1
sVdhjlmwe
p348
I1
sVdrazfkx
p349
I1
sVd7g8dm9
p350
I1
sVdbnepjn
p351
I1
sVdovowio
p352
I1
sVdnaap7d
p353
I1
sVdpm0rxj
p354
I1
sVd9eckb3
p355
I2
sVd4fl822
p356
I1
sVd2mugnv
p357
I1
sVdf8mxph
p358
I1
sVdg6jssj
p359
I1
sVdjdrcar
p360
I1
sVdbidl5d
p361
I1
sVd1e4r1b
p362
I2
sVdftx3ll
p363
I1
sVd5zlq06
p364
I1
sVd45459n
p365
I1
sVd7b3xig
p366
I1
sVdb4am5p
p367
I1
sVcz136iy
p368
I1
sVdsgn0sr
p369
I1
sVdmgooo6
p370
I1
sVdbmv5xj
p371
I1
sVdk9fws1
p372
I1
sVd70ut8z
p373
I1
sVdhw5gsg
p374
I1
sVdhcv13i
p375
I1
sVdav7v4r
p376
I1
sVd3fwvhw
p377
I1
sVcyjgkjv
p378
I1
sVdd9b6eo
p379
I2
sVd05ptv5
p380
I1
sVdddcuz5
p381
I1
sVd6p7xtb
p382
I1
sVd2vqrim
p383
I1
sVdfxgmiy
p384
I1
sVdcg9gtd
p385
I1
sVdk8tm3m
p386
I1
sVd3mj2yi
p387
I1
sVd1xu0dl
p388
I1
sVd81b77j
p389
I1
sVd6buy9e
p390
I2
sVd517q3i
p391
I1
sVd2ylu45
p392
I1
sVcyyms65
p393
I1
sVczatlur
p394
I1
sVd2mqma2
p395
I1
sVdauxjix
p396
I1
sVdgt1637
p397
I1
sVdfo05s8
p398
I1
sVd5rms3y
p399
I1
sVd4r3syn
p400
I1
sVd1kqaqj
p401
I1
sVdpjte2z
p402
I1
sVdbm4120
p403
I1
sVddwyp7b
p404
I1
sVdik5b2w
p405
I1
sVd6co03h
p406
I1
sVd5o1r9j
p407
I2
sVd7h5yi7
p408
I1
sVdbj20lq
p409
I1
sVdt2xz0v
p410
I1
sVdmla7ah
p411
I1
sVd60q4hn
p412
I1
sVdhghxjb
p413
I1
sVd1s1bas
p414
I1
sVde1q9wu
p415
I1
sVcyknmdo
p416
I1
sVczatmpn
p417
I1
sVczg4mz6
p418
I1
sVdcfoyry
p419
I1
sVdee97xe
p420
I1
sVdqbciug
p421
I1
sVd5a0jsv
p422
I1
sVdbajuay
p423
I1
sVdsqh7mq
p424
I1
sVdjk0k59
p425
I1
sVdd6xt0w
p426
I1
sVde30bx6
p427
I1
sVdam5k9e
p428
I2
sVd7ukphj
p429
I1
sVdr41vfb
p430
I1
sVd5mkfz4
p431
I1
sVdbpcgq1
p432
I1
sVdj2rzqv
p433
I1
sVd7j03jy
p434
I1
sVdd9j139
p435
I1
sVdj9kks8
p436
I1
sVddi2bmo
p437
I1
sVd7y6ys1
p438
I1
sVdmwqcqz
p439
I1
sVd6d0bwg
p440
I1
sVd7vajn9
p441
I1
sVddkcioh
p442
I1
sVdmt5h1j
p443
I1
sVd3gwfx0
p444
I1
sVde3roy2
p445
I1
sVda0r97b
p446
I1
sVd8ftvbt
p447
I1
sVczqha0z
p448
I1
sVdqzucip
p449
I1
sVcz7e5rp
p450
I1
sVd31x7nn
p451
I1
sVd7tlupk
p452
I1
sVdejs5gi
p453
I1
sVd017gx5
p454
I1
sVdr3b6k2
p455
I1
sVd2ouvtc
p456
I1
sVd6zqf13
p457
I1
sVdki6hqu
p458
I1
sVdkaf3nk
p459
I1
sVdcjnjci
p460
I1
sVdrvghb6
p461
I1
sVdg9qjs4
p462
I1
sVdibwb1g
p463
I1
sVd274mkz
p464
I1
sVdi28cxj
p465
I1
sVd5a1dxo
p466
I1
sVdniw6df
p467
I1
sVdndp6hq
p468
I1
sVcz4gdnn
p469
I1
sVdibkjf3
p470
I1
sVdertbkn
p471
I1
sVd1kuzh0
p472
I1
sVd93pmvw
p473
I1
s.