(dp0
Vdtaesiq
p1
I1
sVcymih8l
p2
I1
sVd3hx48t
p3
I1
sVdnae49l
p4
I1
sVd5e70qo
p5
I1
sVdeqh1bs
p6
I1
sVd6j72zx
p7
I1
sVd4vjokd
p8
I1
sVd2g7mcc
p9
I1
sVd58nm2p
p10
I1
sVd6x7fjo
p11
I1
sVdhkeejt
p12
I1
sVdg8ales
p13
I1
sVd8ppi0d
p14
I1
sVd4wo7ez
p15
I1
sVd7myj5a
p16
I1
sVd5prcu7
p17
I1
sVde6z03a
p18
I1
sVdnyo5j5
p19
I1
sVcyp9m7t
p20
I1
sVd72hjji
p21
I1
sVd67uev8
p22
I2
sVd101ac4
p23
I1
sVdsftchr
p24
I1
sVdgj7sxd
p25
I1
sVd30s4yg
p26
I1
sVdk7a4ua
p27
I1
sVcziuyr1
p28
I1
sVdbeizwy
p29
I2
sVdarqctm
p30
I1
sVd2q75pr
p31
I1
sVd0uqw63
p32
I1
sVd9hpqas
p33
I1
sVde8mdbg
p34
I2
sVds8lrr9
p35
I1
sVdg8i2ck
p36
I1
sVd9uvs61
p37
I1
sVd35f9hp
p38
I1
sVcyzli4i
p39
I1
sVdn40gom
p40
I1
sVdkny1nq
p41
I1
sVda7hl0o
p42
I1
sVd6pptg9
p43
I1
sVddsliuz
p44
I1
sVd1wrxgd
p45
I1
sVdnmbyhd
p46
I1
sVdcbla59
p47
I1
sVde4484h
p48
I1
sVdaawown
p49
I1
sVd9g4r3h
p50
I1
sVd8cg7cq
p51
I1
sVdijyvgf
p52
I1
sVcysl6nz
p53
I1
sVd4tm7fb
p54
I1
sVdn6t17s
p55
I1
sVd820yub
p56
I1
sVd3atlce
p57
I1
sVd3dt301
p58
I2
sVdfsp0ia
p59
I1
sVdfm4rz4
p60
I1
sVdmpxris
p61
I1
sVdh1tryp
p62
I1
sVd5oqzdq
p63
I1
sVdhfsryg
p64
I1
sVdkjibjt
p65
I1
sVd4bk73b
p66
I1
sVdnahf8k
p67
I1
sVcyjfkxc
p68
I1
sVdjnuk5u
p69
I1
sVdb78xl7
p70
I3
sVcytsn8o
p71
I1
sVdkntml7
p72
I1
sVdbh29qm
p73
I1
sVd24cn5k
p74
I1
sVd4gr1r6
p75
I1
sVdeaxflq
p76
I1
sVd37dgej
p77
I1
sVde9coyt
p78
I1
sVdbu4etd
p79
I1
sVdgrgymv
p80
I1
sVd8r8xpw
p81
I1
sVcykdcjb
p82
I2
sVdqt0ohj
p83
I1
sVd68tf99
p84
I1
sVczju7m9
p85
I1
sVdbhoisc
p86
I1
sVdcdmnhp
p87
I1
sVd1um876
p88
I1
sVd3uqewg
p89
I1
sVd5w4tc0
p90
I1
sVd7uk058
p91
I1
sVdjr08zm
p92
I1
sVdj56it9
p93
I1
sVd03mf43
p94
I1
sVd6f7mpz
p95
I1
sVd7kb01q
p96
I1
sVdb8a0de
p97
I1
sVdecf11s
p98
I1
sVdi9oo9q
p99
I1
sVds6dqf8
p100
I1
sVdfwm4vl
p101
I1
sVd6s9lju
p102
I1
sVd6709ke
p103
I1
sVdmwspn0
p104
I1
sVdcbjqzh
p105
I1
sVcyzf28z
p106
I1
sVdeac8lt
p107
I1
sVdnlwz9h
p108
I1
sVdqov80n
p109
I1
sVdgynznc
p110
I1
sVdnh1ph3
p111
I1
sVd7lk9jh
p112
I1
sVcyo4t34
p113
I1
sVdp2lbzz
p114
I1
sVcyzky59
p115
I1
sVdimqnpx
p116
I1
sVd7ur5fk
p117
I1
sVdd3aaol
p118
I2
sVde9cjpj
p119
I1
sVdarvhvy
p120
I1
sVd5f8n3l
p121
I1
sVczh9gpb
p122
I1
sVdfsj5nh
p123
I1
sVd63f0fv
p124
I1
sVddwnf3c
p125
I1
sVd6g1ndn
p126
I1
sVda2rnpf
p127
I1
sVdn9s65a
p128
I1
sVdb78zjl
p129
I1
sVdk180hd
p130
I1
sVdi09c2v
p131
I1
sVdbu433j
p132
I1
sVd872gda
p133
I1
sVdimee25
p134
I1
sVddt3lvu
p135
I1
sVd6h0ilv
p136
I1
sVdepbsgh
p137
I1
sVcylkp5d
p138
I1
sVd0833tr
p139
I1
sVdbw1xab
p140
I1
sVdtinth5
p141
I1
sVdampdtf
p142
I1
sVdnvdmyr
p143
I1
sVd175dxa
p144
I1
sVcz430n9
p145
I1
sVdn86nqk
p146
I1
sVdkninnh
p147
I1
sVdbh2aj7
p148
I1
sVdkob3zx
p149
I1
sVdrzlzji
p150
I1
sVdcl0z3n
p151
I1
sVcyyltmp
p152
I1
sVdnbqm8j
p153
I1
sVdc2w993
p154
I1
sVd6ytfu2
p155
I2
sVd7a6ox8
p156
I1
sVd7uinzx
p157
I1
sVdfkjd12
p158
I1
sVd91ledr
p159
I1
sVdnl261u
p160
I1
sVdk7pfdg
p161
I1
sVdmpwml5
p162
I2
sVd0k38u3
p163
I1
sVdd6snd8
p164
I1
sVdemj85m
p165
I1
sVdcgdsp7
p166
I1
sVcyu0c9o
p167
I1
sVcyk0yji
p168
I1
sVd3r8722
p169
I1
sVddaio7g
p170
I1
sVcz3er5u
p171
I1
sVd8ggxd1
p172
I1
sVdqtal7i
p173
I1
sVd09a3kv
p174
I1
sVdhlwaxq
p175
I1
sVd9wrljz
p176
I1
sVcysv7v3
p177
I1
sVdd93uvn
p178
I1
sVdnf15iq
p179
I1
sVd5i2etu
p180
I1
sVdnvm5pt
p181
I1
sVdjnm8f9
p182
I1
sVd0ht74b
p183
I1
sVd40gyw1
p184
I1
sVd7ezdjd
p185
I1
sVdb8acpx
p186
I1
sVdihqygq
p187
I1
sVczdr371
p188
I1
sVd4ey841
p189
I1
sVdnvwhwr
p190
I1
sVdagz3d9
p191
I1
sVdt8nxhe
p192
I1
sVd623ujr
p193
I1
sVd8yttu4
p194
I1
sVczu9unn
p195
I1
sVdka4ucy
p196
I1
sVd55a5nu
p197
I1
sVd5mmf28
p198
I1
sVdbgif2b
p199
I1
sVdc4otdy
p200
I1
sVd0eq03o
p201
I1
sVd6s9x5p
p202
I1
sVd8wtgzd
p203
I1
sVd59u2mq
p204
I1
sVdmr04lu
p205
I1
sVd0jltrp
p206
I1
sVdfa0k02
p207
I1
sVd5hbgrm
p208
I1
sVddzqsee
p209
I1
sVde9erew
p210
I1
sVdprym92
p211
I1
sVd0hc6ft
p212
I1
sVd1belfw
p213
I1
sVd799a4c
p214
I1
sVd1xeqm0
p215
I1
sVd3z7kqs
p216
I1
sVd1hbq8d
p217
I1
sVczthmx7
p218
I1
sVd7lra25
p219
I1
sVdcqzbvp
p220
I1
sVdcdnkt1
p221
I1
sVdensaio
p222
I1
sVd5m8wt5
p223
I1
sVdefqni2
p224
I1
sVdegc0kx
p225
I1
sVdcgtw4n
p226
I1
sVd8vtja6
p227
I1
sVdpq1q1q
p228
I1
sVdj7crcu
p229
I1
sVdj97v46
p230
I1
sVd9m3eii
p231
I1
sVd09z578
p232
I1
sVd2pnxhz
p233
I1
sVd4q86kd
p234
I1
sVd4r8lww
p235
I1
sVd0yop53
p236
I1
sVd0rup91
p237
I1
sVd41okmz
p238
I1
sVcz1yr9o
p239
I1
sVdhv4t3y
p240
I1
sVd4s61o7
p241
I1
sVdjiwvkh
p242
I1
sVdexa1c0
p243
I1
sVdqauoek
p244
I1
sVdq4250r
p245
I1
sVdis0vov
p246
I1
sVdnkuriz
p247
I1
sVd986o7i
p248
I1
sVd1vtwon
p249
I1
sVdpjnq8q
p250
I1
sVd1m4h9b
p251
I1
sVczftc0g
p252
I1
sVcyqsrsq
p253
I1
sVd09e57g
p254
I1
sVd5qpp2n
p255
I1
sVd10hwp9
p256
I1
sVd1vycxu
p257
I1
sVdfthh30
p258
I1
sVd3mdwa6
p259
I1
sVddlm31z
p260
I1
sVdt9iqyj
p261
I1
sVdqzxk4q
p262
I1
sVczst0zb
p263
I1
sVd9dorqk
p264
I1
sVd2tlojh
p265
I1
sVdkyg0lh
p266
I1
sVdolydzz
p267
I1
sVdn86eei
p268
I1
sVdijxtza
p269
I1
sVdehaoqu
p270
I1
sVdepxcmx
p271
I1
sVdja0puf
p272
I1
sVd4nv4hd
p273
I1
sVdh4sss9
p274
I1
sVdgfmchy
p275
I1
sVd711o9f
p276
I1
sVcyp36fa
p277
I1
sVdoo7ev3
p278
I1
sVczeqx65
p279
I1
sVd4x9zma
p280
I1
sVddda8gc
p281
I1
sVdc2uysf
p282
I1
sVdp486l7
p283
I1
sVdhe3so4
p284
I1
sVdfxur75
p285
I1
sVczssrr5
p286
I1
sVdavxovj
p287
I1
sVdn1dvfk
p288
I2
sVdrqld4n
p289
I1
sVczpb5q9
p290
I1
sVdil1yqa
p291
I1
sVdfz39na
p292
I1
sVdfibb73
p293
I1
sVd3uetzz
p294
I1
sVdclo8e2
p295
I1
sVdffx7be
p296
I1
sVd42pe6n
p297
I1
sVdi6f2rq
p298
I1
sVd9buu1h
p299
I1
sVdawlc4x
p300
I1
sVcz4feas
p301
I1
sVdbng1y2
p302
I1
sVdia3o93
p303
I1
sVdb890er
p304
I1
sVczdg3gc
p305
I1
sVczv8rlp
p306
I1
sVdbec8co
p307
I1
sVdnidu1m
p308
I1
sVdrwl2at
p309
I1
sVd39y9nm
p310
I1
sVdkfu6fv
p311
I1
sVdc65loh
p312
I1
sVdbbwsgc
p313
I1
sVdencvnq
p314
I1
sVdadnw47
p315
I1
sVd861kkj
p316
I1
sVd8d4y0e
p317
I1
sVdkki5nq
p318
I1
sVczja8dr
p319
I1
sVd6rkjl1
p320
I1
sVd4ybpa1
p321
I1
sVdknpeuc
p322
I1
sVd4p089d
p323
I1
sVd2q7qbe
p324
I1
sVd0wq0j5
p325
I1
sVd7z62wd
p326
I1
sVczv8j50
p327
I1
sVd0kjsyo
p328
I1
sVd4lopac
p329
I1
sVd0ypgh3
p330
I1
sVdctuvhv
p331
I2
s.