(dp0
Vcz4nytq
p1
I1
sVczah7rc
p2
I1
sVd9xfu3g
p3
I1
sVdbs3h6b
p4
I1
sVdd3fo0t
p5
I1
sVd0d3knu
p6
I1
sVd5h3anb
p7
I1
sVd3ueqf6
p8
I1
sVd4bhti0
p9
I1
sVdh4xk8k
p10
I1
sVdrs2od5
p11
I1
sVdeush9x
p12
I1
sVd30z6ja
p13
I1
sVd2kvygw
p14
I1
sVd5x2we3
p15
I1
sVdppo3ya
p16
I1
sVd1rl52q
p17
I1
sVds9b9yb
p18
I1
sVd032ll5
p19
I1
sVdhppg5p
p20
I1
sVcyp2zhl
p21
I1
sVd3hfimq
p22
I1
sVdal5tkd
p23
I1
sVdbe786d
p24
I1
sVd1kabua
p25
I1
sVd2tqmca
p26
I1
sVczd7m54
p27
I1
sVdsyg74n
p28
I1
sVd226wil
p29
I1
sVdoge4ds
p30
I1
sVd1xaelp
p31
I1
sVdcyj458
p32
I1
sVd05n3w8
p33
I1
sVd7q47j9
p34
I1
sVdj43h4z
p35
I1
sVdc53dxu
p36
I1
sVdtcvvgu
p37
I1
sVddjar6t
p38
I1
sVdnwb7j9
p39
I1
sVdgjabql
p40
I1
sVd07ykeh
p41
I1
sVd1kq1eo
p42
I1
sVcyqxe83
p43
I1
sVd086bzp
p44
I1
sVdmmfon0
p45
I2
s.