(dp0
Vcyrmh1g
p1
I1
s.(dp0
Vcz3z01b
p1
I1
sVcyrmh1g
p2
I1
s.(dp0
Vcz3z01b
p1
I1
sVcyrmh1g
p2
I1
s.(dp0
Vcz7k2oz
p1
I1
sVcyrmh1g
p2
I1
s.(dp0
Vczw9ljv
p1
I1
sVcyrmh1g
p2
I1
s.(dp0
Vczzyxeb
p1
I1
sVcyrmh1g
p2
I1
s.(dp0
Vd0nlk7m
p1
I1
sVcyrmh1g
p2
I1
s.(dp0
Vd0nlk7m
p1
I1
sVcyrmh1g
p2
I1
s.(dp0
Vd1vfrmp
p1
I1
sVcyrmh1g
p2
I1
s.(dp0
Vd26bd5l
p1
I1
sVcyrmh1g
p2
I1
s.(dp0
Vd2mfz1l
p1
I1
sVcyrmh1g
p2
I1
s.(dp0
Vd33uh0l
p1
I1
sVcyrmh1g
p2
I1
s.(dp0
Vd83veuf
p1
I1
sVcyrmh1g
p2
I1
s.(dp0
Vcyrmh1g
p1
I1
sVd8dmftm
p2
I1
s.(dp0
Vdag6vji
p1
I1
sVcyrmh1g
p2
I1
s.(dp0
Vdbyaqvq
p1
I1
sVcyrmh1g
p2
I1
s.(dp0
Vdd5cgfd
p1
I1
sVcyrmh1g
p2
I1
s.(dp0
Vdedsfxb
p1
I1
sVcyrmh1g
p2
I1
s.(dp0
Vdeiyots
p1
I1
sVcyrmh1g
p2
I1
s.(dp0
Vdf427u1
p1
I1
sVcyrmh1g
p2
I1
s.(dp0
Vdg8dxj0
p1
I1
sVcyrmh1g
p2
I1
s.(dp0
Vdhjg6g6
p1
I1
sVcyrmh1g
p2
I1
s.(dp0
Vdi4z273
p1
I1
sVcyrmh1g
p2
I1
s.(dp0
Vdihdtq9
p1
I1
sVcyrmh1g
p2
I1
s.(dp0
Vdihdtq9
p1
I1
sVcyrmh1g
p2
I1
s.(dp0
Vdn4jf6f
p1
I1
sVcyrmh1g
p2
I1
s.(dp0
Vdnjjr9j
p1
I1
sVcyrmh1g
p2
I1
s.(dp0
Vdpgz61c
p1
I1
sVcyrmh1g
p2
I1
s.(dp0
Vdrrjy5a
p1
I1
sVcyrmh1g
p2
I1
s.(dp0
Vds2slh4
p1
I1
sVcyrmh1g
p2
I1
s.