(dp0
Vcyi3gc3
p1
I1
s.(dp0
Vcyisrx1
p1
I1
sVcyi3gc3
p2
I1
s.(dp0
Vcyks98u
p1
I1
sVcyi3gc3
p2
I1
s.(dp0
Vcykusi1
p1
I1
sVcyi3gc3
p2
I1
s.(dp0
Vcyptb5p
p1
I1
sVcyi3gc3
p2
I1
s.(dp0
Vcyi3gc3
p1
I1
sVcywo7hi
p2
I1
s.(dp0
Vcyi3gc3
p1
I1
sVcz8s0ac
p2
I1
s.(dp0
Vczggx45
p1
I1
sVcyi3gc3
p2
I1
s.(dp0
Vd05jo62
p1
I1
sVcyi3gc3
p2
I1
s.(dp0
Vd0h9zl0
p1
I1
sVcyi3gc3
p2
I1
s.(dp0
Vd1or38q
p1
I1
sVcyi3gc3
p2
I1
s.(dp0
Vd1sc6rh
p1
I1
sVcyi3gc3
p2
I1
s.(dp0
Vd1wkgdm
p1
I1
sVcyi3gc3
p2
I1
s.(dp0
Vd2ayqxg
p1
I1
sVcyi3gc3
p2
I1
s.(dp0
Vd2b7ddl
p1
I1
sVcyi3gc3
p2
I1
s.(dp0
Vd2oy7fy
p1
I1
sVcyi3gc3
p2
I1
s.(dp0
Vd2ubgbq
p1
I1
sVcyi3gc3
p2
I1
s.(dp0
Vd2v49z8
p1
I1
sVcyi3gc3
p2
I1
s.(dp0
Vd3cbu0n
p1
I1
sVcyi3gc3
p2
I1
s.(dp0
Vd3svivm
p1
I1
sVcyi3gc3
p2
I1
s.(dp0
Vd4r4245
p1
I1
sVcyi3gc3
p2
I1
s.(dp0
Vd4uzzuu
p1
I1
sVcyi3gc3
p2
I1
s.(dp0
Vd52eziw
p1
I1
sVcyi3gc3
p2
I1
s.(dp0
Vcyi3gc3
p1
I1
sVd63wv1a
p2
I1
s.(dp0
Vd6ww0xz
p1
I1
sVcyi3gc3
p2
I1
s.(dp0
Vd71kh6z
p1
I1
sVcyi3gc3
p2
I1
s.(dp0
Vd7a8azx
p1
I1
sVcyi3gc3
p2
I1
s.(dp0
Vd7jbocz
p1
I1
sVcyi3gc3
p2
I1
s.(dp0
Vd8i16jy
p1
I1
sVcyi3gc3
p2
I1
s.(dp0
Vd8i2j9s
p1
I1
sVcyi3gc3
p2
I1
s.(dp0
Vd8xr2yp
p1
I1
sVcyi3gc3
p2
I1
s.(dp0
Vcyi3gc3
p1
I1
sVd9re53v
p2
I1
s.(dp0
Vdaenb07
p1
I1
sVcyi3gc3
p2
I1
s.(dp0
Vdahr4da
p1
I1
sVcyi3gc3
p2
I1
s.(dp0
Vdahr4da
p1
I1
sVcyi3gc3
p2
I1
s.(dp0
Vdansqst
p1
I1
sVcyi3gc3
p2
I1
s.(dp0
Vdb4y9zp
p1
I1
sVcyi3gc3
p2
I1
s.(dp0
Vdbwe6gq
p1
I1
sVcyi3gc3
p2
I1
s.(dp0
Vdcdy6b5
p1
I1
sVcyi3gc3
p2
I1
s.(dp0
Vdcto72u
p1
I1
sVcyi3gc3
p2
I1
s.(dp0
Vdd8ll29
p1
I1
sVcyi3gc3
p2
I1
s.(dp0
Vddcn607
p1
I1
sVcyi3gc3
p2
I1
s.(dp0
Vdddyrff
p1
I1
sVcyi3gc3
p2
I1
s.(dp0
Vddea6mt
p1
I1
sVcyi3gc3
p2
I1
s.(dp0
Vddea6mt
p1
I1
sVcyi3gc3
p2
I1
s.(dp0
Vddk84bs
p1
I1
sVcyi3gc3
p2
I1
s.(dp0
Vddl3ca8
p1
I1
sVcyi3gc3
p2
I1
s.(dp0
Vddl3ca8
p1
I1
sVcyi3gc3
p2
I1
s.(dp0
Vcyi3gc3
p1
I1
sVddv2bfx
p2
I1
s.(dp0
Vdew8iyu
p1
I1
sVcyi3gc3
p2
I1
s.(dp0
Vdfv4vcb
p1
I1
sVcyi3gc3
p2
I1
s.(dp0
Vdgb8oar
p1
I1
sVcyi3gc3
p2
I1
s.(dp0
Vdgb8oar
p1
I1
sVcyi3gc3
p2
I1
s.(dp0
Vcyi3gc3
p1
I1
sVdhtfgi2
p2
I1
s.(dp0
Vditvyxk
p1
I1
sVcyi3gc3
p2
I1
s.(dp0
Vdknzaw7
p1
I1
sVcyi3gc3
p2
I1
s.(dp0
Vdkqza0n
p1
I1
sVcyi3gc3
p2
I1
s.(dp0
Vdnlxwkn
p1
I1
sVcyi3gc3
p2
I1
s.(dp0
Vdq1nl5k
p1
I1
sVcyi3gc3
p2
I1
s.(dp0
Vdqb54m0
p1
I1
sVcyi3gc3
p2
I1
s.