(dp0
Vdj8ecsj
p1
I1
sVdgvb7zu
p2
I1
sVdhrs6en
p3
I1
sVd6dx5ys
p4
I1
sVczy4024
p5
I1
sVdfix6l4
p6
I1
sVd4wjk4b
p7
I1
sVdbn5d4i
p8
I1
sVdndn2wr
p9
I1
sVdp18tf7
p10
I1
sVdhemeb2
p11
I1
sVd0jsqcd
p12
I1
sVd2lw6vw
p13
I1
sVdgv76hb
p14
I1
sVd1q1xy9
p15
I1
sVczid536
p16
I1
sVd0edl9p
p17
I1
sVd272759
p18
I1
sVd34tkhr
p19
I2
sVd2efscj
p20
I1
sVdbwhx4g
p21
I3
sVdg3yk26
p22
I1
sVdf1fk4t
p23
I3
sVdflpob7
p24
I1
sVdptjfkf
p25
I1
sVd1ovbta
p26
I1
s.