(dp0
Vdhlib9q
p1
I1
sVdblm85h
p2
I1
sVd97ay9o
p3
I1
sVddss72r
p4
I1
sVdrmwmgd
p5
I1
sVd91zlld
p6
I1
sVcylsus3
p7
I1
sVd668bff
p8
I1
sVdeptl3n
p9
I1
sVczaqgvn
p10
I1
sVd3fhjgk
p11
I1
sVd3ryovl
p12
I1
sVdd9qils
p13
I1
sVdi1g22y
p14
I1
sVdg962jp
p15
I1
sVd2fveoy
p16
I1
sVdatallh
p17
I1
sVddoj6dj
p18
I1
sVd2uz2ns
p19
I1
sVdddn8a8
p20
I1
sVd3gkgz6
p21
I1
sVd6y687b
p22
I1
sVd9ugfai
p23
I1
sVdj5mz4k
p24
I1
sVdbxz3x0
p25
I1
sVd9vbs5w
p26
I1
sVd36pg43
p27
I1
sVcyok4f9
p28
I1
sVdtcfufa
p29
I1
sVdhv7kxs
p30
I1
sVd5iv8bp
p31
I2
sVd4rhjrh
p32
I1
sVd8thml3
p33
I1
sVdce4alf
p34
I2
sVd9ivzqa
p35
I1
sVddm6j6z
p36
I1
sVd5ivp0c
p37
I1
sVcysw6r0
p38
I1
sVdbzwypm
p39
I1
sVd9q0kly
p40
I1
sVdqb3z6c
p41
I1
sVdc9btnn
p42
I1
sVdi1oj4m
p43
I1
sVd69c7zt
p44
I1
sVdqvcq2j
p45
I1
sVdfna9r7
p46
I1
sVdrfvrac
p47
I1
sVd36p3ny
p48
I1
sVdf8kfmo
p49
I1
sVd4ttjol
p50
I1
sVd34u2l2
p51
I1
sVd8q5kt2
p52
I1
sVd3zlab3
p53
I2
sVde2wr6y
p54
I1
sVd8zgh90
p55
I2
sVdq7gqne
p56
I1
sVd4ykrbf
p57
I1
sVd0rk7h9
p58
I1
sVdaf0c0q
p59
I1
sVd2znbwx
p60
I1
sVd8ut1mx
p61
I1
sVdc4dxt1
p62
I1
sVdd7qqb5
p63
I1
sVdcks0iq
p64
I1
sVd2brbzz
p65
I1
sVdg35zq7
p66
I1
sVddtwf3a
p67
I1
sVdo6m93u
p68
I1
sVdctjo1u
p69
I1
sVd0tl0oq
p70
I1
sVd8rpzzd
p71
I1
sVd0ixk69
p72
I1
sVd8hih21
p73
I1
sVd477sd8
p74
I1
sVdcne18o
p75
I1
sVd93cmo7
p76
I1
sVd48oojr
p77
I1
sVd14szm0
p78
I1
sVd67ewxm
p79
I1
sVd04og1c
p80
I1
sVdf1beno
p81
I1
sVdfi4155
p82
I1
sVdei1bi6
p83
I1
sVdg2hnxy
p84
I1
sVds6chhw
p85
I1
sVdfygub1
p86
I1
sVdi55t1d
p87
I1
sVd29htf5
p88
I1
sVcyu1x3d
p89
I1
sVd00h6so
p90
I1
sVd2440go
p91
I1
sVdgjiow8
p92
I2
sVdagkq4a
p93
I2
sVdnmwmah
p94
I1
sVdc6j5zj
p95
I1
sVdeick8n
p96
I2
sVdou40pu
p97
I1
sVd04fl7t
p98
I1
sVdoqu48b
p99
I1
sVd8jbyaa
p100
I1
sVdjihpo2
p101
I1
sVdguwwjb
p102
I1
sVd1cj82l
p103
I1
sVd3bcbkm
p104
I3
sVdai2swp
p105
I1
sVdbs3udv
p106
I1
sVdj89row
p107
I1
sVd7g61ej
p108
I1
sVdt2jarf
p109
I1
sVdofriyg
p110
I1
sVd23j5cd
p111
I2
sVdh1jth6
p112
I1
sVddtbn9s
p113
I1
sVddbwuen
p114
I1
sVdja5k9l
p115
I1
sVdqzyh2q
p116
I1
sVda0p3x7
p117
I1
sVddqgcbs
p118
I1
sVdaig3re
p119
I1
sVd5yqbo0
p120
I1
sVd8680q3
p121
I1
sVdnf4km1
p122
I1
sVdnayutk
p123
I1
sVcyxlhx7
p124
I1
sVd8pj0ga
p125
I1
sVdhio4m2
p126
I2
sVdnx7w3l
p127
I1
sVdhs0z8m
p128
I1
sVdi8b65f
p129
I1
sVd3r2cw9
p130
I1
sVdeej957
p131
I1
sVd07duns
p132
I1
sVd1zf7vd
p133
I1
sVdels6z7
p134
I1
sVd3bb3c4
p135
I1
sVdfwyqek
p136
I1
sVdhig15c
p137
I1
sVd1vuj4v
p138
I1
sVd5v7ojn
p139
I1
sVdd4v526
p140
I3
sVdeezxpn
p141
I2
sVdesdgh0
p142
I1
sVdimeaf5
p143
I1
sVd0l1zgv
p144
I2
sVdeush9x
p145
I1
sVdhamycm
p146
I1
sVd7xp2fh
p147
I1
sVdkfeyda
p148
I1
sVd8czw2b
p149
I1
sVdilgekk
p150
I1
sVdftx2kc
p151
I1
sVddm8jym
p152
I1
sVdrzsbgb
p153
I1
sVdqgsmfs
p154
I1
sVddkcr7b
p155
I1
sVd3ns0ys
p156
I2
sVddlm31z
p157
I1
sVdrk6ho8
p158
I1
sVdo2m3ta
p159
I2
sVdhidhk7
p160
I1
sVdb20ak6
p161
I1
sVdraswcr
p162
I1
sVcys94ni
p163
I1
sVdh4qqqf
p164
I1
sVdb8h0a6
p165
I2
sVdfy0mfj
p166
I1
sVdqvrsu6
p167
I1
sVdtj12zk
p168
I1
sVdgvrju1
p169
I1
sVczi9b5a
p170
I1
sVdfs3ne4
p171
I1
sVcyt6bgp
p172
I1
sVdocthou
p173
I1
s.