(dp0
Vcylsus3
p1
I1
s.(dp0
Vcyok4f9
p1
I1
sVcylsus3
p2
I1
s.(dp0
Vcys94ni
p1
I1
sVcylsus3
p2
I1
s.(dp0
Vcylsus3
p1
I1
sVcysw6r0
p2
I1
s.(dp0
Vcylsus3
p1
I1
sVcyt6bgp
p2
I1
s.(dp0
Vcyu1x3d
p1
I1
sVcylsus3
p2
I1
s.(dp0
Vcyxlhx7
p1
I1
sVcylsus3
p2
I1
s.(dp0
Vcylsus3
p1
I1
sVczaqgvn
p2
I1
s.(dp0
Vczi9b5a
p1
I1
sVcylsus3
p2
I1
s.(dp0
Vcylsus3
p1
I1
sVd00h6so
p2
I1
s.(dp0
Vd04fl7t
p1
I1
sVcylsus3
p2
I1
s.(dp0
Vd04og1c
p1
I1
sVcylsus3
p2
I1
s.(dp0
Vd07duns
p1
I1
sVcylsus3
p2
I1
s.(dp0
Vd0ixk69
p1
I1
sVcylsus3
p2
I1
s.(dp0
Vcylsus3
p1
I1
sVd0l1zgv
p2
I1
s.(dp0
Vcylsus3
p1
I1
sVd0l1zgv
p2
I1
s.(dp0
Vd0rk7h9
p1
I1
sVcylsus3
p2
I1
s.(dp0
Vcylsus3
p1
I1
sVd0tl0oq
p2
I1
s.(dp0
Vd14szm0
p1
I1
sVcylsus3
p2
I1
s.(dp0
Vcylsus3
p1
I1
sVd1cj82l
p2
I1
s.(dp0
Vcylsus3
p1
I1
sVd1vuj4v
p2
I1
s.(dp0
Vcylsus3
p1
I1
sVd1zf7vd
p2
I1
s.(dp0
Vd23j5cd
p1
I1
sVcylsus3
p2
I1
s.(dp0
Vd23j5cd
p1
I1
sVcylsus3
p2
I1
s.(dp0
Vd2440go
p1
I1
sVcylsus3
p2
I1
s.(dp0
Vd29htf5
p1
I1
sVcylsus3
p2
I1
s.(dp0
Vcylsus3
p1
I1
sVd2brbzz
p2
I1
s.(dp0
Vd2fveoy
p1
I1
sVcylsus3
p2
I1
s.(dp0
Vcylsus3
p1
I1
sVd2uz2ns
p2
I1
s.(dp0
Vd2znbwx
p1
I1
sVcylsus3
p2
I1
s.(dp0
Vd34u2l2
p1
I1
sVcylsus3
p2
I1
s.(dp0
Vd36p3ny
p1
I1
sVcylsus3
p2
I1
s.(dp0
Vd36pg43
p1
I1
sVcylsus3
p2
I1
s.(dp0
Vd3bb3c4
p1
I1
sVcylsus3
p2
I1
s.(dp0
Vd3bcbkm
p1
I1
sVcylsus3
p2
I1
s.(dp0
Vd3bcbkm
p1
I1
sVcylsus3
p2
I1
s.(dp0
Vd3bcbkm
p1
I1
sVcylsus3
p2
I1
s.(dp0
Vd3fhjgk
p1
I1
sVcylsus3
p2
I1
s.(dp0
Vcylsus3
p1
I1
sVd3gkgz6
p2
I1
s.(dp0
Vcylsus3
p1
I1
sVd3ns0ys
p2
I1
s.(dp0
Vcylsus3
p1
I1
sVd3ns0ys
p2
I1
s.(dp0
Vd3r2cw9
p1
I1
sVcylsus3
p2
I1
s.(dp0
Vcylsus3
p1
I1
sVd3ryovl
p2
I1
s.(dp0
Vd3zlab3
p1
I1
sVcylsus3
p2
I1
s.(dp0
Vd3zlab3
p1
I1
sVcylsus3
p2
I1
s.(dp0
Vcylsus3
p1
I1
sVd477sd8
p2
I1
s.(dp0
Vd48oojr
p1
I1
sVcylsus3
p2
I1
s.(dp0
Vd4rhjrh
p1
I1
sVcylsus3
p2
I1
s.(dp0
Vd4ttjol
p1
I1
sVcylsus3
p2
I1
s.(dp0
Vcylsus3
p1
I1
sVd4ykrbf
p2
I1
s.(dp0
Vd5iv8bp
p1
I1
sVcylsus3
p2
I1
s.(dp0
Vd5iv8bp
p1
I1
sVcylsus3
p2
I1
s.(dp0
Vd5ivp0c
p1
I1
sVcylsus3
p2
I1
s.(dp0
Vd5v7ojn
p1
I1
sVcylsus3
p2
I1
s.(dp0
Vd5yqbo0
p1
I1
sVcylsus3
p2
I1
s.(dp0
Vd668bff
p1
I1
sVcylsus3
p2
I1
s.(dp0
Vcylsus3
p1
I1
sVd67ewxm
p2
I1
s.(dp0
Vd69c7zt
p1
I1
sVcylsus3
p2
I1
s.(dp0
Vd6y687b
p1
I1
sVcylsus3
p2
I1
s.(dp0
Vd7g61ej
p1
I1
sVcylsus3
p2
I1
s.(dp0
Vd7xp2fh
p1
I1
sVcylsus3
p2
I1
s.(dp0
Vd8680q3
p1
I1
sVcylsus3
p2
I1
s.(dp0
Vd8czw2b
p1
I1
sVcylsus3
p2
I1
s.(dp0
Vd8hih21
p1
I1
sVcylsus3
p2
I1
s.(dp0
Vd8jbyaa
p1
I1
sVcylsus3
p2
I1
s.(dp0
Vcylsus3
p1
I1
sVd8pj0ga
p2
I1
s.(dp0
Vd8q5kt2
p1
I1
sVcylsus3
p2
I1
s.(dp0
Vd8rpzzd
p1
I1
sVcylsus3
p2
I1
s.(dp0
Vcylsus3
p1
I1
sVd8thml3
p2
I1
s.(dp0
Vd8ut1mx
p1
I1
sVcylsus3
p2
I1
s.(dp0
Vd8zgh90
p1
I1
sVcylsus3
p2
I1
s.(dp0
Vd8zgh90
p1
I1
sVcylsus3
p2
I1
s.(dp0
Vd91zlld
p1
I1
sVcylsus3
p2
I1
s.(dp0
Vcylsus3
p1
I1
sVd93cmo7
p2
I1
s.(dp0
Vcylsus3
p1
I1
sVd97ay9o
p2
I1
s.(dp0
Vcylsus3
p1
I1
sVd9ivzqa
p2
I1
s.(dp0
Vcylsus3
p1
I1
sVd9q0kly
p2
I1
s.(dp0
Vd9ugfai
p1
I1
sVcylsus3
p2
I1
s.(dp0
Vcylsus3
p1
I1
sVd9vbs5w
p2
I1
s.(dp0
Vda0p3x7
p1
I1
sVcylsus3
p2
I1
s.(dp0
Vdaf0c0q
p1
I1
sVcylsus3
p2
I1
s.(dp0
Vdagkq4a
p1
I1
sVcylsus3
p2
I1
s.(dp0
Vdagkq4a
p1
I1
sVcylsus3
p2
I1
s.(dp0
Vcylsus3
p1
I1
sVdai2swp
p2
I1
s.(dp0
Vdaig3re
p1
I1
sVcylsus3
p2
I1
s.(dp0
Vcylsus3
p1
I1
sVdatallh
p2
I1
s.(dp0
Vdb20ak6
p1
I1
sVcylsus3
p2
I1
s.(dp0
Vdb8h0a6
p1
I1
sVcylsus3
p2
I1
s.(dp0
Vdb8h0a6
p1
I1
sVcylsus3
p2
I1
s.(dp0
Vdblm85h
p1
I1
sVcylsus3
p2
I1
s.(dp0
Vdbs3udv
p1
I1
sVcylsus3
p2
I1
s.(dp0
Vdbxz3x0
p1
I1
sVcylsus3
p2
I1
s.(dp0
Vcylsus3
p1
I1
sVdbzwypm
p2
I1
s.(dp0
Vcylsus3
p1
I1
sVdc4dxt1
p2
I1
s.(dp0
Vcylsus3
p1
I1
sVdc6j5zj
p2
I1
s.(dp0
Vcylsus3
p1
I1
sVdc9btnn
p2
I1
s.(dp0
Vdce4alf
p1
I1
sVcylsus3
p2
I1
s.(dp0
Vdce4alf
p1
I1
sVcylsus3
p2
I1
s.(dp0
Vcylsus3
p1
I1
sVdcks0iq
p2
I1
s.(dp0
Vcylsus3
p1
I1
sVdcne18o
p2
I1
s.(dp0
Vcylsus3
p1
I1
sVdctjo1u
p2
I1
s.(dp0
Vdd4v526
p1
I1
sVcylsus3
p2
I1
s.(dp0
Vdd4v526
p1
I1
sVcylsus3
p2
I1
s.(dp0
Vdd4v526
p1
I1
sVcylsus3
p2
I1
s.(dp0
Vcylsus3
p1
I1
sVdd7qqb5
p2
I1
s.(dp0
Vcylsus3
p1
I1
sVdd9qils
p2
I1
s.(dp0
Vddbwuen
p1
I1
sVcylsus3
p2
I1
s.(dp0
Vcylsus3
p1
I1
sVdddn8a8
p2
I1
s.(dp0
Vdd(dp0
Vdtj12zk
p1
I1
sVcylsus3
p2
I1
s.