(dp0
Vdb182ai
p1
I1
sVdodbcq8
p2
I1
sVd06vbz5
p3
I1
sVd8t3479
p4
I1
sVdjxse1c
p5
I1
sVd4tbt6r
p6
I1
sVdjrfwdl
p7
I3
sVdhzyzak
p8
I1
sVdkhwnpg
p9
I1
sVdeiagol
p10
I1
sVdrqp1fr
p11
I1
sVdh7izcv
p12
I1
sVdkhb5gu
p13
I1
sVd7bymiu
p14
I1
sVd47m08v
p15
I1
sVczstz4t
p16
I1
sVdohsgmc
p17
I1
sVd4bfxqy
p18
I1
sVdfimk4p
p19
I1
sVdjjcydg
p20
I1
sVdbmxauw
p21
I1
sVdo004ym
p22
I1
sVdh1t8q0
p23
I1
sVd8ju0ii
p24
I2
sVd3bls55
p25
I1
sVdjlxphw
p26
I3
sVdqa73jp
p27
I1
sVd5sqhwl
p28
I1
sVdpvbz50
p29
I1
sVd61tmb2
p30
I2
sVdct0vj3
p31
I1
sVd30zuk9
p32
I1
sVdpxtzgv
p33
I1
sVdgvpnpq
p34
I1
sVdjtetl0
p35
I1
sVdirgbtt
p36
I1
sVd05ky11
p37
I1
sVd1d4i13
p38
I1
sVd7mt1vo
p39
I1
sVdju93z6
p40
I1
sVcziugl1
p41
I1
sVdmgatm6
p42
I1
sVd3iyqew
p43
I1
sVd55fb7v
p44
I1
sVdcmzaft
p45
I1
sVd2lyfqh
p46
I1
sVdi8jju2
p47
I2
sVddx4pul
p48
I1
sVdfjte43
p49
I2
sVd93ic4p
p50
I1
sVd5ohkiq
p51
I1
sVdrogzbj
p52
I1
sVd2bm5kn
p53
I1
sVdn7sc1y
p54
I1
sVdah7dur
p55
I1
sVdq7pwxn
p56
I1
sVdrtdu0r
p57
I1
sVd1qeo46
p58
I1
sVdgmkxba
p59
I1
sVdagvuwb
p60
I1
sVd8062aw
p61
I1
sVd7rh0tx
p62
I1
sVd3i33x8
p63
I1
sVd8wxkfn
p64
I1
sVcytt9sy
p65
I1
sVd6v4mvo
p66
I1
sVdgcol93
p67
I1
sVdeobbvy
p68
I1
sVd42y0ys
p69
I1
sVdk7osgw
p70
I2
sVdd8vont
p71
I1
sVd2wu2gm
p72
I1
sVd6k911s
p73
I1
sVdja4zd1
p74
I1
sVdfl3eaj
p75
I1
sVdewlahv
p76
I1
sVdhu2g21
p77
I1
sVdfelf23
p78
I1
sVdn39f3s
p79
I1
sVdgj2o1q
p80
I1
sVd99tpxc
p81
I1
sVdk1s45h
p82
I1
sVdjd509m
p83
I1
sVd3mnm1y
p84
I3
sVdpaoylk
p85
I1
sVdf6k0pm
p86
I1
sVdmvcb39
p87
I1
sVd7jaokx
p88
I1
sVdmz7b53
p89
I1
sVd7obuio
p90
I1
sVdkw2e4p
p91
I1
sVdevbfs6
p92
I1
sVdbbn71j
p93
I1
sVdnepthg
p94
I1
sVdnc2swj
p95
I1
sVd620tqq
p96
I1
sVcymeqc0
p97
I1
sVdarkqv5
p98
I1
sVddgnx9m
p99
I1
sVd8j22hr
p100
I1
sVdcc8wyl
p101
I1
sVde54xot
p102
I1
sVdcuj604
p103
I1
sVczzf0zj
p104
I1
sVd97nspy
p105
I1
sVd5qvx83
p106
I1
sVdem9jtj
p107
I1
sVdkufd6t
p108
I1
sVd4uarq4
p109
I1
sVd6lr994
p110
I1
sVdd54k42
p111
I1
sVdgh7998
p112
I1
sVdqv1sic
p113
I1
sVd0ne749
p114
I3
sVd8c7uo3
p115
I1
sVddohwgg
p116
I1
sVdhzp078
p117
I1
sVd2ccosa
p118
I1
sVdtb4cwa
p119
I1
sVd9e5uy0
p120
I1
sVdmjptyi
p121
I1
sVda08yu0
p122
I1
sVdsnw3lr
p123
I2
sVdn6h833
p124
I1
sVcypk819
p125
I2
sVdfsae7u
p126
I1
sVdicnhvo
p127
I1
sVd5n4r4e
p128
I1
sVdn1pt6u
p129
I2
sVdbmicwh
p130
I1
sVd5wxjnw
p131
I1
sVdgqny2k
p132
I1
sVdh3d3hx
p133
I1
sVd6texok
p134
I1
sVd1lxpg4
p135
I1
sVd7ygezs
p136
I2
sVd5fwolq
p137
I1
sVdcj89ks
p138
I1
sVd0djhlu
p139
I1
sVdn6fu04
p140
I1
sVdbyx9cr
p141
I1
sVd735els
p142
I1
sVdbesqw8
p143
I1
sVd5pudmg
p144
I1
sVd364gri
p145
I1
sVd5dq7yu
p146
I1
sVdhy7lz6
p147
I1
sVdtf5uwb
p148
I1
sVczz9gyz
p149
I1
sVdj8s8d9
p150
I1
sVdjjhdmi
p151
I1
sVdb0owb0
p152
I2
sVd0ajvsq
p153
I1
sVd6tv0bi
p154
I1
sVd2x98yt
p155
I1
sVcyw8sq3
p156
I1
sVdhzm6hr
p157
I2
sVdqdbed0
p158
I1
sVd6x9vmr
p159
I1
sVdn1p8wh
p160
I2
sVdc05p5c
p161
I1
sVdnzpzjw
p162
I1
sVd12mm6f
p163
I1
sVd8ncz8j
p164
I1
sVd28op7l
p165
I2
sVdc5zeu6
p166
I1
sVdgkjdur
p167
I1
sVdj3pvam
p168
I1
sVd09bb25
p169
I2
sVd0naw0m
p170
I1
sVd574jmj
p171
I1
sVd0afe8g
p172
I1
sVd9p661r
p173
I1
sVd33ah6z
p174
I1
sVdbq3nrb
p175
I1
sVd7oz2l7
p176
I1
sVdn5psxx
p177
I1
sVdi9rb2j
p178
I1
sVd5497pf
p179
I1
sVd3cguya
p180
I1
sVdojow42
p181
I1
sVczt3uh8
p182
I1
sVdqu0yej
p183
I1
sVczxrl4w
p184
I1
sVdbe7mcu
p185
I3
sVdc0hi41
p186
I1
sVd3el8ii
p187
I1
sVdftgca8
p188
I1
sVdfnebw2
p189
I1
sVd8yc7jh
p190
I1
sVd9xet7a
p191
I1
sVdjy9yc1
p192
I1
sVd97uzux
p193
I1
sVdmve9tk
p194
I2
sVczxrjmi
p195
I1
sVd17sofk
p196
I1
sVdfhm01v
p197
I1
sVd7x39rb
p198
I1
sVd09hrl2
p199
I1
sVdiqzgaz
p200
I1
sVdmokbx4
p201
I1
sVdolm374
p202
I1
sVdk1xfxh
p203
I1
sVdfpbuo2
p204
I1
sVdq8e75z
p205
I1
sVd5w9dna
p206
I1
sVda4aeam
p207
I2
sVczxv7la
p208
I1
sVdho3lj8
p209
I1
sVd9e8hwf
p210
I1
sVd3j085x
p211
I1
sVd9i5igl
p212
I1
sVdrsk6jb
p213
I1
sVd1aq77x
p214
I1
sVd316rqy
p215
I1
sVdt8jbv8
p216
I1
sVd9njr5v
p217
I1
sVd8yl4dp
p218
I1
sVdghfdwp
p219
I1
sVder3ryb
p220
I2
sVd3ci1v9
p221
I1
sVd1ny98f
p222
I1
sVd8onl2j
p223
I1
sVd1jq2c9
p224
I1
sVdpzn1li
p225
I1
sVd6rlgcp
p226
I1
sVdt2jarf
p227
I1
sVd16qtm9
p228
I1
sVdibbma2
p229
I1
sVdr404h8
p230
I1
sVd15egv7
p231
I1
sVde4vdbf
p232
I1
sVdbsp7s9
p233
I1
sVdb6skp1
p234
I1
sVdk15l43
p235
I1
sVddn5vp0
p236
I1
sVcyj1773
p237
I1
sVdt2ide5
p238
I1
sVdfqynwu
p239
I1
sVd0otp2x
p240
I1
sVdbhvri9
p241
I1
sVd16ggff
p242
I1
sVdnsmihm
p243
I2
sVd4l4pzg
p244
I1
sVdka63ui
p245
I1
sVcynv44v
p246
I1
sVd9e3n92
p247
I2
sVdicsxg3
p248
I1
sVcypp7rt
p249
I1
sVdexqcdy
p250
I1
sVdjx2az0
p251
I1
sVd336jwi
p252
I1
sVdrta8g8
p253
I1
sVddjb0f3
p254
I1
sVd0aun6z
p255
I1
sVdg4me9u
p256
I1
sVd7i6gmz
p257
I1
sVdb2eits
p258
I1
sVd6s4slt
p259
I1
sVd0o9fsj
p260
I1
sVd3xd7sh
p261
I1
sVd4p7i0i
p262
I1
sVcyiianv
p263
I1
sVd5dt4tx
p264
I1
sVd7djhkk
p265
I1
sVd6iwjao
p266
I1
sVd4467mq
p267
I1
sVde2i3yh
p268
I1
sVd4y0vu1
p269
I1
sVdnspjex
p270
I1
sVd6dms6o
p271
I1
sVdol7iqi
p272
I1
sVd845mof
p273
I1
sVcypd1v7
p274
I1
sVdh4xpv0
p275
I1
sVdqllx58
p276
I1
sVdc4l31v
p277
I1
sVcz2xpl4
p278
I1
sVczyevjy
p279
I1
sVdnivnxv
p280
I1
sVdb8dc58
p281
I1
sVcymicdo
p282
I1
sVd3av04c
p283
I1
sVd0elrv1
p284
I2
sVdj76qsx
p285
I1
sVdgd7qxt
p286
I1
sVd2v2w74
p287
I1
sVczjjx64
p288
I1
sVcz4ya8s
p289
I1
sVd9kcxn4
p290
I1
sVd0ponqz
p291
I1
sVdh4b8p2
p292
I1
sVdbqzltb
p293
I1
sVd8x4ofi
p294
I1
sVda368dq
p295
I2
sVd2bm5ho
p296
I1
sVdq9r0om
p297
I1
sVd5pdmo3
p298
I1
sVdg3e7x3
p299
I1
sVdslnqyf
p300
I1
sVdjyag3q
p301
I1
sVd8hqs5j
p302
I1
sVd68tezb
p303
I1
sVdbhk7n4
p304
I1
sVd6arz5m
p305
I1
sVd89rduo
p306
I1
sVd8zxg9s
p307
I1
sVda6ge0x
p308
I1
sVdjghfv5
p309
I1
sVdejpcti
p310
I1
sVd37c6o7
p311
I1
sVdndy73u
p312
I1
sVdgusifn
p313
I1
sVdidwwmi
p314
I1
sVdihs1dz
p315
I1
sVd6z1w7i
p316
I1
sVcyrmqip
p317
I1
sVd1wsm7y
p318
I1
sVdcct7rx
p319
I1
sVd3n9b76
p320
I1
sVd0ddzn6
p321
I1
sVd5hft0g
p322
I1
sVda0vrjk
p323
I3
sVds9x0b6
p324
I1
sVd9c615b
p325
I1
sVdcsdiqi
p326
I1
sVd42sqr0
p327
I1
sVdmuwiq2
p328
I1
sVd0uc7yi
p329
I1
sVd1tq5if
p330
I2
sVcz13i98
p331
I1
sVd3vnhj6
p332
I1
sVcyoqfs8
p333
I1
sVdakg9im
p334
I1
sVdgoy4kk
p335
I1
sVda1yk4m
p336
I1
sVdj6yy5t
p337
I1
sVd1wf49a
p338
I1
sVcynekh1
p339
I1
sVdpf1nl9
p340
I1
sVdnbyh2u
p341
I2
sVcykg3fu
p342
I1
sVd42xlts
p343
I1
sVds6hvy0
p344
I1
sVdkx3ujd
p345
I1
sVd6mdhf7
p346
I1
sVcz69ub8
p347
I1
sVdo18yeh
p348
I1
sVcyslusf
p349
I1
sVd0sg3yr
p350
I1
sVd4ttjol
p351
I1
sVd7b1wxb
p352
I1
sVd0vulle
p353
I1
sVdgkysj4
p354
I1
sVdfde6ur
p355
I1
sVd7b06x2
p356
I1
sVcyql4jm
p357
I1
sVdgjx483
p358
I1
sVdg79spt
p359
I1
sVd7esddj
p360
I1
sVd3w14fv
p361
I1
sVd7j7nlx
p362
I1
sVdf5xi6m
p363
I1
sVd4r19ou
p364
I1
sVdnx3q8i
p365
I1
sVdetz20e
p366
I1
sVdk9i1u7
p367
I1
sVd75lb75
p368
I1
sVds3de03
p369
I1
sVdhofk8q
p370
I1
sVdhhauew
p371
I1
sVdngc0qn
p372
I1
sVdndett9
p373
I1
sVd4atirq
p374
I1
sVd4odefd
p375
I1
sVd1e28on
p376
I1
sVdhgpwdg
p377
I1
sVdketvll
p378
I1
sVcys917l
p379
I1
sVdhww9of
p380
I1
sVd1tuckt
p381
I1
sVdat1hnr
p382
I1
sVdflotxt
p383
I2
sVczmpsch
p384
I1
sVdbklqaf
p385
I1
sVd9cchir
p386
I1
sVcyztvse
p387
I1
sVdiwvm84
p388
I1
sVcz6x7iq
p389
I1
sVd9lg8vk
p390
I1
sVdsp6c59
p391
I1
sVd3ihh3b
p392
I1
sVdcfvh6z
p393
I1
sVd9nhvy4
p394
I1
sVd1cbnvi
p395
I1
sVdcgwlwc
p396
I1
sVdg6xjfh
p397
I1
sVdn7ziv3
p398
I1
sVdg918fo
p399
I1
sVddl2wke
p400
I1
sVdegl6p0
p401
I1
sVdpt28f7
p402
I1
sVdnn3rcs
p403
I1
sVdcbji04
p404
I1
sVczqmxnk
p405
I1
sVdi6uxjv
p406
I1
sVddhu9h9
p407
I1
sVdnxutic
p408
I1
sVd8bami7
p409
I1
sVd1lbaw2
p410
I1
sVdjyohrr
p411
I1
sVcypqbqk
p412
I1
sVdpbujk8
p413
I1
sVdhrplzc
p414
I1
sVdkkkt2c
p415
I1
sVd9x0oy8
p416
I1
sVdmz8ztf
p417
I1
sVd012zzg
p418
I1
sVd4hzw9h
p419
I3
sVcyijykr
p420
I1
sVdilij60
p421
I1
sVdoi47ph
p422
I1
sVd235q7k
p423
I1
sVd7mwrzy
p424
I1
sVdo42thl
p425
I1
sVdcy6og9
p426
I2
sVd6ihn2o
p427
I1
sVd8lusdq
p428
I2
sVdg2m6lv
p429
I1
sVdd2dd7t
p430
I1
sVcz553s2
p431
I1
sVddtg858
p432
I1
sVdjye5dd
p433
I2
sVdhemeb2
p434
I1
sVdg0z7h2
p435
I1
sVdk3z31d
p436
I1
sVdberf2s
p437
I1
sVd228elp
p438
I1
sVdcnaywe
p439
I1
sVd797yhy
p440
I1
sVd61rqtd
p441
I1
sVd1gqcxj
p442
I1
sVdt8vff0
p443
I1
sVd902wkq
p444
I1
sVd9r3gv9
p445
I1
sVd6g62ro
p446
I1
sVdd7467u
p447
I1
sVdmxqadq
p448
I1
sVdbz501w
p449
I1
sVd0tjukn
p450
I1
sVd3irsdr
p451
I1
sVdik3uuz
p452
I2
sVd3ewyyc
p453
I1
sVd1g4kt9
p454
I1
sVdh79vj9
p455
I1
sVdj4hudg
p456
I1
sVd3f5zau
p457
I1
sVcz9vlby
p458
I1
sVd6zshk7
p459
I1
sVd14pl28
p460
I2
sVd3zti88
p461
I3
sVda7ouzo
p462
I1
sVdssowig
p463
I1
sVdb5uk5p
p464
I1
sVd54dhtd
p465
I1
sVd3pi1ps
p466
I1
sVdbbka4k
p467
I1
sVdalo8po
p468
I1
sVd9yzova
p469
I1
sVd6e0cl3
p470
I1
sVdhs20p2
p471
I1
sVda9m7f4
p472
I2
sVdkbwkaa
p473
I1
sVd6lgt1s
p474
I1
sVdfyaflv
p475
I1
sVdisyx42
p476
I1
sVdmmeyw6
p477
I1
sVdhm802f
p478
I1
sVd62rgfo
p479
I1
sVdhprsn4
p480
I1
sVd1614ag
p481
I1
sVd0suorg
p482
I1
sVd32toiv
p483
I1
sVdkj3hum
p484
I1
sVddg6nwp
p485
I1
sVd2qhy4p
p486
I1
sVd1vytut
p487
I2
sVdss7kew
p488
I1
sVd6btc7k
p489
I2
sVdftkl1w
p490
I1
sVcyjs5rq
p491
I1
sVdrf1m73
p492
I1
sVdb3dzfc
p493
I1
sVd5zlw0b
p494
I1
sVdhux6eo
p495
I1
sVd0exhsm
p496
I1
sVd3ke9ug
p497
I1
sVd4eyd67
p498
I1
sVd8q56lz
p499
I1
sVczw606s
p500
I1
sVd5rgcsj
p501
I1
sVdefhnmn
p502
I1
sVd2vfbps
p503
I2
sVcyn1la7
p504
I2
sVczqrbs6
p505
I1
sVda0daqg
p506
I2
sVczls9uh
p507
I1
sVdmmlrbj
p508
I2
sVdp34wnm
p509
I1
sVd2pw20v
p510
I1
sVd4mv0dj
p511
I1
sVddw76uc
p512
I1
sVd8d4dbi
p513
I1
sVdba0s9z
p514
I1
sVdq2jery
p515
I1
sVd6rid3b
p516
I1
sVdcl57z4
p517
I1
sVddurisk
p518
I2
sVdf8yo0i
p519
I1
sVdohm1t8
p520
I1
sVd10vb1u
p521
I1
sVdkyhmkf
p522
I1
sVd85jkoz
p523
I1
sVdq4t40e
p524
I1
sVd7cuf36
p525
I2
sVds0a1ze
p526
I1
sVdcq8ese
p527
I1
sVd06wpdp
p528
I1
sVdhzzcw6
p529
I1
sVdfw43v7
p530
I1
sVdcfrh3r
p531
I1
sVdd4hqum
p532
I1
sVd7a0ce9
p533
I1
sVdernim5
p534
I1
sVds7aqdr
p535
I1
sVdmztl55
p536
I1
sVd52zdyq
p537
I1
sVdjqghu5
p538
I1
sVdk4ybk2
p539
I1
sVd9n6966
p540
I1
sVd4wo7ez
p541
I1
sVdazwvzw
p542
I1
sVdbe7q11
p543
I1
sVdde0uth
p544
I1
sVczgmh5e
p545
I1
sVcysxyno
p546
I1
sVdblcgcc
p547
I1
sVdirbtah
p548
I1
sVdja3ejj
p549
I1
sVdd1f6wr
p550
I1
sVd0kwn3k
p551
I1
sVdq6b6mq
p552
I1
sVdks0bje
p553
I2
sVdi9j58o
p554
I1
sVdbg28wf
p555
I2
sVd69yqug
p556
I1
sVcykt977
p557
I1
sVd4v0hkn
p558
I1
sVd77fzgk
p559
I1
sVd35lqeu
p560
I1
sVd2lzwk3
p561
I1
sVd9t41gk
p562
I1
sVdh1c2a9
p563
I1
sVdjsibmq
p564
I1
sVdsy4daj
p565
I1
sVda0keho
p566
I1
sVd30idcn
p567
I1
sVdg8k20w
p568
I1
sVd0u6bse
p569
I1
sVdeangyl
p570
I1
sVd667h5i
p571
I1
sVdie64ss
p572
I1
sVdol7sbk
p573
I1
sVdnqr8c9
p574
I1
sVdq6bu6l
p575
I1
sVd5m8ebf
p576
I1
sVdk2inc9
p577
I2
sVd5qeogz
p578
I1
sVd8yhqo5
p579
I1
sVdogbah3
p580
I2
sVczs3upk
p581
I1
sVddk92k5
p582
I1
sVczrf125
p583
I1
sVdd0t89o
p584
I1
sVd623lun
p585
I2
sVdfbyhvh
p586
I1
sVd3qojn3
p587
I1
sVdgqv34y
p588
I1
sVdalr6ok
p589
I1
sVdo2uujw
p590
I1
sVddfclu8
p591
I1
sVdnu78ct
p592
I1
sVd1egrss
p593
I1
sVcylns1s
p594
I1
sVdqc0f75
p595
I1
sVdmjqp19
p596
I1
sVdfrqs99
p597
I1
sVdjndvje
p598
I1
sVd2toped
p599
I1
sVdg56okc
p600
I1
sVdhbfv6t
p601
I1
sVdgb9zjn
p602
I1
sVdbk1cuo
p603
I1
sVdpgwxa8
p604
I1
sVdjnta0o
p605
I1
sVdg120rj
p606
I1
sVd4elqsq
p607
I1
sVdklbb3o
p608
I1
sVczjpw63
p609
I1
sVdjou8ap
p610
I1
sVd8cff6y
p611
I1
sVdf500sa
p612
I1
sVd9f1rby
p613
I1
sVd0xqub8
p614
I1
sVdifhcyc
p615
I1
sVd8q6npo
p616
I1
sVder1cs9
p617
I1
sVdidb7v0
p618
I1
sVd0wxm48
p619
I2
sVdaybwm6
p620
I1
sVdfe3fef
p621
I1
sVdncmd09
p622
I1
sVdfyz4j8
p623
I2
sVd6vthoc
p624
I1
sVdf2poe3
p625
I1
sVdb6fa4v
p626
I1
sVdfw5cbg
p627
I1
sVd3xdhd2
p628
I1
sVczqnv2f
p629
I1
sVdd7s9dj
p630
I1
sVdjmaicu
p631
I1
sVddx44c9
p632
I1
sVdbqie4o
p633
I1
sVczf6exi
p634
I1
sVdpyzk5p
p635
I1
sVd2isu4o
p636
I1
sVdjugmlh
p637
I2
sVda57g9a
p638
I1
sVdc7pxzi
p639
I1
sVd78r8g6
p640
I1
sVdk4n0xl
p641
I1
sVczzlh4z
p642
I1
sVdnpqk7e
p643
I1
sVdnwftuy
p644
I1
sVdqfztuj
p645
I1
sVdb7tg0o
p646
I1
sVdssvv2l
p647
I1
sVd58sipp
p648
I1
sVd55qng0
p649
I1
sVdq6g1wm
p650
I1
sVcz7gkmw
p651
I1
sVcyxdg9j
p652
I1
sVdndfujv
p653
I1
sVddn1sbf
p654
I1
sVd6maqy3
p655
I1
sVdcwpp2w
p656
I1
sVd1bp62x
p657
I1
sVd5hx5fb
p658
I1
sVcyquqc3
p659
I1
sVddssdbe
p660
I1
sVdpi0x0w
p661
I1
sVdgoo1ox
p662
I1
sVdksm191
p663
I1
sVdgfh222
p664
I1
sVda5f1we
p665
I1
sVdj217jq
p666
I1
sVddvafzd
p667
I1
sVda8c37b
p668
I1
sVczmfi9l
p669
I1
sVdd75kwo
p670
I1
sVdtigezj
p671
I1
sVdq8mduz
p672
I1
sVd7rvyxc
p673
I1
sVdkyulib
p674
I1
sVdgffi3b
p675
I1
sVd8tlhgm
p676
I1
sVdbumxvw
p677
I1
sVcylfygg
p678
I1
sVdf98py6
p679
I1
sVcznun9n
p680
I1
sVdi9kgqx
p681
I1
sVd6e6cb3
p682
I1
sVdpvpjte
p683
I1
sVcyibh0z
p684
I1
sVcysfnub
p685
I1
sVdes8bnw
p686
I1
sVd2ex8aa
p687
I2
sVdhaspsj
p688
I1
sVd2v7zcj
p689
I1
sVd6wbmhm
p690
I1
sVdfx1yck
p691
I1
sVdbycmtf
p692
I2
sVdp7nylv
p693
I1
sVdex5kjz
p694
I2
sVdi9jl26
p695
I1
sVd7w546x
p696
I1
sVdc100ue
p697
I1
sVd1d31fc
p698
I1
sVdgoepvu
p699
I1
sVdagr4s1
p700
I1
sVd27djjd
p701
I2
sVdb8b0qs
p702
I2
sVddulojh
p703
I1
sVd0c89ku
p704
I1
sVcynlisd
p705
I2
sVdnn3zvd
p706
I1
sVdq9bty4
p707
I1
sVdiwvyzc
p708
I1
sVdk3pzq4
p709
I1
sVdbqfrp8
p710
I1
sVdfvniio
p711
I1
sVczoc7g5
p712
I1
sVdjszsij
p713
I1
sVd0g5ync
p714
I2
sVd4y0jyg
p715
I1
sVd392a7d
p716
I1
sVdn9we4s
p717
I1
sVdsj14ln
p718
I1
sVdre049q
p719
I1
sVdnppf2h
p720
I1
sVdhnb7i5
p721
I1
sVd462n9m
p722
I2
sVdmeysif
p723
I1
sVd2luyso
p724
I1
sVda0re5f
p725
I1
sVcyj7ney
p726
I1
sVd3t3p6o
p727
I1
sVdrapluk
p728
I1
sVdacnp90
p729
I1
sVdgl7dsc
p730
I1
sVd1i50md
p731
I2
sVdcxdgj2
p732
I1
sVdcu9a4q
p733
I1
sVd0acuyx
p734
I2
sVddllz4b
p735
I1
sVcz74tbi
p736
I1
sVczz7tgd
p737
I1
sVczhpx6r
p738
I1
sVd0qgie8
p739
I1
sVd2qdetg
p740
I1
sVdi31plk
p741
I1
sVd364rr9
p742
I1
sVdh4gkbr
p743
I1
sVdeptl3n
p744
I1
sVdc03rit
p745
I1
sVdjvf8c3
p746
I1
sVd61ntgh
p747
I2
sVd56ph7s
p748
I1
sVd2dzbf1
p749
I1
sVd5fz8nr
p750
I1
sVd6bx64l
p751
I1
sVdj2tpbk
p752
I1
sVd21avhy
p753
I1
sVdoygb8u
p754
I1
sVdavgnez
p755
I1
sVdjl37xu
p756
I1
sVd1pj8s2
p757
I1
sVd4u957q
p758
I1
sVdac9rou
p759
I1
sVd0lmuzv
p760
I1
sVdeccq8g
p761
I1
sVdjf7sw6
p762
I1
sVdboodnr
p763
I1
sVdji2aml
p764
I1
sVdd3w0xx
p765
I1
sVdb7n77x
p766
I1
sVd7dxyoq
p767
I1
sVd2a8qmg
p768
I1
sVdkcfywe
p769
I1
sVdbls58f
p770
I1
sVdb03fyc
p771
I1
sVd1aioay
p772
I1
sVdo598ei
p773
I1
sVdhpcga7
p774
I1
sVdjh7bj6
p775
I1
sVd259fjb
p776
I1
sVdjznux4
p777
I1
sVdiu5736
p778
I1
sVdff5hza
p779
I1
sVdb0b125
p780
I1
sVddxd817
p781
I1
sVd3q7ouz
p782
I1
sVdcptcvh
p783
I1
sVd12d1ll
p784
I1
sVdc8xxzp
p785
I1
sVd2oct8m
p786
I1
sVdf4p3mp
p787
I1
sVd4s6z15
p788
I1
sVd5x32oa
p789
I2
sVdbpb0po
p790
I1
sVcz5t3cv
p791
I1
sVdan01kf
p792
I1
sVd4qdnod
p793
I1
sVd0h9k7k
p794
I1
sVd3icyl1
p795
I1
sVdomf5b7
p796
I3
sVd3zpn5j
p797
I1
sVd2jpwod
p798
I1
sVdf9jwax
p799
I1
sVd147y5s
p800
I1
sVddnlev7
p801
I1
sVd12agbj
p802
I1
sVd9fs61c
p803
I1
sVd7j5jms
p804
I1
sVdhtcp94
p805
I1
sVcz55lq3
p806
I1
sVde8n3wy
p807
I1
sVdf93xwh
p808
I1
sVdpwpehh
p809
I1
sVde6l0gx
p810
I1
sVd1v0675
p811
I1
sVdfu5dwg
p812
I1
sVd8ou4fz
p813
I1
sVd0wq2cb
p814
I1
sVd79gnnf
p815
I1
sVdje6fk9
p816
I1
sVd7kinap
p817
I1
sVd7aj4kc
p818
I1
sVd19lajq
p819
I1
sVdbpp96h
p820
I1
sVd5w1l8c
p821
I1
sVczilk08
p822
I1
sVdeozwv5
p823
I1
sVddih3q8
p824
I1
sVde7ske1
p825
I1
sVdgukd2h
p826
I1
sVde9cok8
p827
I1
sVdhlmosc
p828
I1
sVdbltkel
p829
I1
sVdc22gbu
p830
I1
sVd9ilpnc
p831
I1
sVd8lltbg
p832
I1
sVd63x5dk
p833
I1
sVd0a3b7g
p834
I1
sVdhzgj9u
p835
I1
sVdg79n0q
p836
I1
sVd1d6845
p837
I1
sVdair4oh
p838
I1
sVd3wbxi6
p839
I1
sVdt2k720
p840
I1
sVdqzwskz
p841
I1
sVdmpk2os
p842
I2
sVcyo0rcs
p843
I1
sVdf620vq
p844
I1
sVd7l85kk
p845
I1
sVdalzcuh
p846
I1
sVdp3evtt
p847
I1
sVcz3lake
p848
I1
sVd7neihl
p849
I1
sVdby6cat
p850
I1
sVdcc3513
p851
I2
sVd2aqju0
p852
I1
sVcys1yx1
p853
I1
sVdcuwjoc
p854
I1
sVdtasp7q
p855
I1
sVdjw12cv
p856
I1
sVd0uoiqd
p857
I1
sVdna5bde
p858
I5
sVdccd4uo
p859
I1
sVdozgd6d
p860
I3
sVd8ie754
p861
I1
sVdka0gga
p862
I2
sVd1gntrb
p863
I1
sVd1bh63i
p864
I1
sVdfrnw49
p865
I1
sVczasov6
p866
I1
sVdqy1697
p867
I1
sVd6buy9e
p868
I1
sVddlnlly
p869
I1
sVdnnh2ra
p870
I1
sVdsl9o04
p871
I1
sVdirrlp1
p872
I1
sVdf68in2
p873
I1
sVd4rpt3i
p874
I1
sVdqzq83x
p875
I1
sVdf0zoi9
p876
I1
sVd0tbypl
p877
I1
sVd3dt084
p878
I3
sVdhtp8gm
p879
I1
sVdmjl9yp
p880
I1
sVcz8p0tx
p881
I2
sVd6bny75
p882
I1
sVcz6r5ux
p883
I1
sVd6z9gqe
p884
I1
sVd1gfu8n
p885
I1
sVdctlro6
p886
I1
sVdmiutwf
p887
I1
sVd14pqs1
p888
I1
sVd2lgbu2
p889
I1
sVd8sgh9s
p890
I2
sVdj9ljnt
p891
I1
sVda2og10
p892
I1
sVdjfex42
p893
I1
sVdq8fwdh
p894
I1
sVd2fzy0l
p895
I2
sVd2y1opz
p896
I2
sVdiseft5
p897
I1
sVczjha70
p898
I1
sVdq0ppe5
p899
I1
sVdfl9i6u
p900
I1
sVdmgkbem
p901
I1
sVdddfd36
p902
I1
sVd1kzyuc
p903
I1
sVdftliqh
p904
I1
sVdbhxoo2
p905
I1
sVd2ladqc
p906
I1
sVdj885gy
p907
I1
sVdkuwvft
p908
I1
sVdqw2u7l
p909
I2
sVdr0q4ak
p910
I1
sVddf4czm
p911
I1
sVdaf1nya
p912
I1
sVdj1bf6y
p913
I1
sVd3ozycc
p914
I2
sVd50zm5i
p915
I1
sVdkppjwt
p916
I1
sVd6fdwvz
p917
I1
sVcznvpxo
p918
I1
sVd4gd40r
p919
I2
sVdrjl25i
p920
I1
sVddxc72n
p921
I1
sVdir3muo
p922
I1
sVdn4vdp3
p923
I1
sVd028mmi
p924
I1
sVd4jczpy
p925
I1
sVd4rbvw0
p926
I1
sVdaxhv94
p927
I3
sVdem9p5s
p928
I1
sVd0lfem0
p929
I1
sVddkm5sk
p930
I1
sVd865zrt
p931
I1
sVczk3uk3
p932
I1
sVdnw8yvb
p933
I1
sVdeqokw0
p934
I1
sVdsq5ckr
p935
I1
sVdelq0he
p936
I1
sVd8gl7am
p937
I2
sVdt7k4vq
p938
I1
sVd59loui
p939
I1
sVdf9buue
p940
I1
sVd15wfkj
p941
I1
sVdep2jn1
p942
I1
sVdpslis6
p943
I1
sVd80hcvx
p944
I1
sVdi3024z
p945
I1
sVd5gyvyq
p946
I1
sVdang75h
p947
I1
sVd6y5lwr
p948
I1
sVdcimiwa
p949
I1
sVdn6jhk7
p950
I1
sVdkx7x75
p951
I1
sVd5hedlb
p952
I1
sVdd6mbqx
p953
I2
sVdex3ylu
p954
I1
sVcz9uxkw
p955
I1
sVd3q4xgw
p956
I1
sVdeuu8ap
p957
I1
sVdgyfkdc
p958
I1
sVd29ibxn
p959
I1
sVdnv1fdr
p960
I1
sVdrt4cin
p961
I1
sVdpfndbb
p962
I1
sVdbe9dcy
p963
I1
sVdebyi5j
p964
I1
sVcz042sk
p965
I1
sVddo60ah
p966
I1
sVd6t38d5
p967
I1
sVd02mha6
p968
I1
sVdisdztu
p969
I1
sVdhh1h75
p970
I1
sVd0tjtm0
p971
I1
sVdaqvm4a
p972
I1
sVdbr56xb
p973
I1
sVdh6hpm3
p974
I1
sVdny98ga
p975
I1
sVczhhhd2
p976
I1
sVdnhcgvz
p977
I1
sVd2rvpku
p978
I1
sVd511k2i
p979
I1
sVda3oyck
p980
I2
sVd52tpkc
p981
I1
sVdd89cxe
p982
I1
sVd3du13r
p983
I2
sVdd86g7g
p984
I1
sVd0s7kid
p985
I1
sVd1t8jfj
p986
I1
sVd7w7m9t
p987
I1
sVdo43x1p
p988
I1
sVdp4im4t
p989
I1
sVdkyqtwn
p990
I1
sVdnx72db
p991
I1
sVdnnsiln
p992
I1
sVdgf24rb
p993
I2
sVdhv8y13
p994
I1
sVdmtfekp
p995
I1
sVd7jl1xb
p996
I1
sVd53ixnf
p997
I2
sVdgdym5z
p998
I1
sVd5gpq1d
p999
I2
sVd9far62
p1000
I1
sVdjz3nbn
p1001
I1
sVdfaf9r8
p1002
I1
sVdnerxtb
p1003
I1
sVd1t880z
p1004
I1
sVcz4szvd
p1005
I1
sVdfodmpo
p1006
I1
sVddwzjga
p1007
I1
sVcyynn2v
p1008
I1
sVdrhkvli
p1009
I1
sVdcpl8dn
p1010
I1
sVdjuy7jk
p1011
I1
sVddtuctq
p1012
I1
sVdsimj9f
p1013
I1
sVcyi6uq8
p1014
I1
sVdb7d0ot
p1015
I1
sVd4ikx3b
p1016
I1
sVd5lnpms
p1017
I1
sVdax00b3
p1018
I1
sVd17ypkk
p1019
I1
sVd7xuzzz
p1020
I1
sVcz1hnxg
p1021
I1
sVd4ya0pi
p1022
I1
sVdk46e87
p1023
I1
sVdog52cy
p1024
I1
sVdglrs9l
p1025
I1
sVdh27ip8
p1026
I1
sVcz8upt7
p1027
I1
sVczzw187
p1028
I1
sVd5yeof6
p1029
I1
sVd4788t7
p1030
I3
sVdeatnlu
p1031
I1
sVdpewa4j
p1032
I1
sVd6d1zzs
p1033
I1
sVd0upkcs
p1034
I1
sVd6z9umj
p1035
I1
sVd4ym743
p1036
I1
sVd3gojn6
p1037
I1
sVds35mx2
p1038
I1
sVd0gzie8
p1039
I2
sVdt5xj2c
p1040
I1
sVd16n0r0
p1041
I1
sVd1ocz9h
p1042
I1
sVdbf099i
p1043
I1
sVd3qk3ie
p1044
I1
sVd5napw2
p1045
I1
sVdgy8g4k
p1046
I1
sVddubprj
p1047
I1
sVcyookuc
p1048
I1
sVd66n7oa
p1049
I1
sVdmoyysd
p1050
I1
sVdb8edcq
p1051
I1
sVdbyg0vt
p1052
I1
sVdq1oriy
p1053
I1
sVdemoqhg
p1054
I1
sVdjzmq0y
p1055
I1
sVd2sfk7z
p1056
I1
sVddi1vfq
p1057
I1
sVd9ig8at
p1058
I1
sVdn0qoxv
p1059
I2
sVdh1qxwi
p1060
I1
sVdj3cy3f
p1061
I1
sVdrl789u
p1062
I1
sVcylmova
p1063
I1
sVdsffhxv
p1064
I1
sVd9z7ht9
p1065
I1
sVdmsa8xb
p1066
I2
sVdn2a59c
p1067
I1
sVd264b40
p1068
I3
sVd83iy8i
p1069
I1
sVd7nqzhr
p1070
I1
sVdilfh0o
p1071
I1
sVdmwt2yk
p1072
I1
sVd1xettl
p1073
I1
sVdthmfkc
p1074
I1
sVdcflpqy
p1075
I1
sVd2br9cv
p1076
I1
sVdpzyxjz
p1077
I1
sVdaxie2k
p1078
I1
sVd92toqt
p1079
I1
sVd5b1bld
p1080
I3
sVdk3lpw3
p1081
I1
sVde7jb21
p1082
I1
sVdbdggo8
p1083
I1
sVd5ews8h
p1084
I1
sVcyjkc21
p1085
I1
sVd9jtn5x
p1086
I2
sVd1j14in
p1087
I1
sVdpqfuf9
p1088
I1
sVdab6k4f
p1089
I1
sVd2jpq7u
p1090
I1
sVdcsqala
p1091
I1
sVcz077wf
p1092
I2
sVczcs07e
p1093
I1
sVd25rueu
p1094
I1
sVd18g85t
p1095
I1
sVdio22w1
p1096
I1
sVd5rhfr0
p1097
I1
sVd069lmp
p1098
I1
sVd6snd33
p1099
I1
sVdobjf9q
p1100
I1
sVdj0o1vq
p1101
I2
sVd9ijctp
p1102
I1
sVcz9iqiy
p1103
I1
sVd55cgza
p1104
I1
sVddb9zss
p1105
I1
sVd762wl8
p1106
I1
sVdr7z11u
p1107
I1
sVd23o5i5
p1108
I2
sVd5muj8m
p1109
I1
sVd1p0cii
p1110
I1
sVdbkpgfa
p1111
I1
sVczmj4x9
p1112
I3
sVdaqi9sg
p1113
I1
sVd9nxy8e
p1114
I1
sVdgnrxy2
p1115
I1
sVd09jope
p1116
I1
sVd8dbpws
p1117
I1
sVdfghul0
p1118
I1
sVd1ysubo
p1119
I2
sVcze043t
p1120
I1
sVdqx3fpr
p1121
I1
sVdc1xv6n
p1122
I1
sVdr5t1fu
p1123
I1
sVd1t48oj
p1124
I1
sVdbt3q89
p1125
I1
sVcz6emu6
p1126
I1
sVd038nz6
p1127
I1
sVdmtintm
p1128
I1
sVdj5jnih
p1129
I1
sVdkdlmde
p1130
I1
sVdnbopbz
p1131
I2
sVd6acfjk
p1132
I2
sVdfl0aqc
p1133
I1
sVcykusi1
p1134
I1
sVd7upjmi
p1135
I1
sVd7fj5fc
p1136
I1
sVdat27qq
p1137
I1
sVcz1ncvi
p1138
I1
sVd1nnuyp
p1139
I1
sVd8kq8z6
p1140
I1
sVd47boej
p1141
I1
sVdsszmut
p1142
I1
sVczslfmd
p1143
I1
sVczhsy2v
p1144
I1
sVd5guc4k
p1145
I1
sVd9fb1tz
p1146
I1
sVdb9y1io
p1147
I1
sVdd5wdg7
p1148
I1
sVd566sxw
p1149
I1
sVdppjxrt
p1150
I1
sVdohjkqi
p1151
I1
sVdp7j4tt
p1152
I1
sVdkjmgdt
p1153
I1
sVdc9sx2q
p1154
I1
sVdh4ltcr
p1155
I1
sVd0l143x
p1156
I1
sVd42gw22
p1157
I1
sVdao5mq3
p1158
I1
sVd5bl0e2
p1159
I1
sVd1syu0l
p1160
I1
sVdq365fa
p1161
I1
sVdbzijcc
p1162
I1
sVd6s6ayw
p1163
I2
sVdc4lij5
p1164
I1
sVddy6519
p1165
I1
sVd28r11q
p1166
I1
sVdew0wrh
p1167
I1
sVddoemh0
p1168
I1
sVczounwx
p1169
I1
sVd6z8ot0
p1170
I2
sVdrgp189
p1171
I1
sVd2ko7sj
p1172
I1
sVdqns9so
p1173
I1
sVdpoat0y
p1174
I1
sVdiszukj
p1175
I2
sVd8kshbc
p1176
I1
sVd0178rr
p1177
I1
sVdebvvnt
p1178
I1
sVcz88tv4
p1179
I1
sVd6bx8k3
p1180
I2
sVd0kblp5
p1181
I1
sVdiyptpy
p1182
I1
sVdbidvj1
p1183
I1
sVd0xc0w0
p1184
I1
sVdk0zfn8
p1185
I1
sVdc96r45
p1186
I1
sVdn6cdsc
p1187
I1
sVdfmb6xi
p1188
I1
sVdj747ag
p1189
I1
sVd8azy8j
p1190
I1
sVczsl3et
p1191
I1
sVd2koa5w
p1192
I1
sVdd18lxm
p1193
I1
sVdecfriw
p1194
I1
sVdgo1u1n
p1195
I1
sVddfl23a
p1196
I1
sVdqjudl0
p1197
I1
sVd66v2qe
p1198
I3
sVd2g4lrj
p1199
I1
sVd82gaff
p1200
I1
sVde6v9hz
p1201
I1
sVcyl969y
p1202
I1
sVczatqog
p1203
I2
sVd4fcfl5
p1204
I1
sVd59qcfo
p1205
I1
sVdgcgdb5
p1206
I1
sVd3w8lkz
p1207
I1
sVd6lcc3m
p1208
I1
sVd68j504
p1209
I1
sVdmmd4iz
p1210
I1
sVdjqfy0x
p1211
I1
sVdesshzy
p1212
I1
sVd5p6xd1
p1213
I1
sVdp4say7
p1214
I1
sVcz6mddo
p1215
I1
sVdcdv9at
p1216
I1
sVdn0qxue
p1217
I2
sVdek9va0
p1218
I1
sVdcqwajy
p1219
I1
sVd97cy9c
p1220
I3
sVda55xac
p1221
I1
sVd4mbxhv
p1222
I1
sVdj6xj5z
p1223
I1
sVd8d4odi
p1224
I1
sVd6y8qp3
p1225
I1
sVd3zlja5
p1226
I1
sVdhtpn3r
p1227
I1
sVdkbxtca
p1228
I1
sVdb8wfil
p1229
I1
sVd385chp
p1230
I1
sVd97a4ne
p1231
I1
sVdcx36ig
p1232
I1
sVd0m5eg7
p1233
I1
sVdb22bdr
p1234
I1
sVddtqyb5
p1235
I1
sVdfr59ow
p1236
I3
sVdnjlxcl
p1237
I1
sVd6hbfjy
p1238
I1
sVdbp0l5h
p1239
I1
sVdi00ego
p1240
I1
sVdijpz1j
p1241
I1
sVdnvtdb1
p1242
I3
sVdhd7r88
p1243
I2
sVcznlraz
p1244
I2
sVdaiwg12
p1245
I1
sVdq1tpti
p1246
I1
sVdilht6q
p1247
I1
sVd2mbaxw
p1248
I1
sVd2vr3fe
p1249
I1
sVd3t7uo2
p1250
I1
sVd0kz5f2
p1251
I1
sVd8uao0w
p1252
I1
sVd2x2n0y
p1253
I1
sVd1mz6n9
p1254
I1
sVdelkz6z
p1255
I1
sVd9hwmnk
p1256
I1
sVd1lu6fm
p1257
I2
sVd91ce0j
p1258
I1
sVd3nt1cp
p1259
I1
sVdezzc0i
p1260
I1
sVd6wafp8
p1261
I1
sVdmlyzw0
p1262
I1
sVcznf7us
p1263
I1
sVczsfy0u
p1264
I1
sVd22xcjr
p1265
I1
sVd76s5zh
p1266
I1
sVdbrn4ko
p1267
I1
sVdbwchdj
p1268
I1
sVdqzg8u9
p1269
I2
sVdj8ty9j
p1270
I1
sVd6h0jn2
p1271
I1
sVdj83en2
p1272
I1
sVdk145bw
p1273
I1
sVczns8ty
p1274
I1
sVcykn51n
p1275
I1
sVdahcdg4
p1276
I1
sVdthhyn6
p1277
I1
sVdcl7b6t
p1278
I1
sVdf4pwpc
p1279
I1
sVdd5ojgo
p1280
I1
sVczbm35z
p1281
I1
sVd3wwg33
p1282
I1
sVdou7hbf
p1283
I1
sVdql5z4f
p1284
I1
sVdagwcz9
p1285
I1
sVdfvp329
p1286
I1
sVdkg72qj
p1287
I1
sVd1l7lds
p1288
I1
sVdd5x61p
p1289
I1
sVd4ieujk
p1290
I1
sVd94613y
p1291
I1
sVdf1yusk
p1292
I1
sVdb7lqo0
p1293
I1
sVdegbrbx
p1294
I1
sVdk9sgi8
p1295
I2
sVd4xvt6n
p1296
I1
sVdj3tkw8
p1297
I1
sVdbsgu3m
p1298
I1
sVds03rbg
p1299
I1
sVdpt1aen
p1300
I1
sVdiaeibx
p1301
I1
sVddcsjd1
p1302
I1
sVdcr6q8f
p1303
I1
sVd1pzvlj
p1304
I1
sVcz13v5l
p1305
I1
sVde8tf5i
p1306
I1
sVd73g20p
p1307
I1
sVdhl0gnc
p1308
I1
sVdqp5ljo
p1309
I1
sVdbaw52a
p1310
I3
sVdblcl9n
p1311
I1
sVd40dwb1
p1312
I1
sVda4hq59
p1313
I1
sVczzx8ti
p1314
I1
sVdk7dxeh
p1315
I1
sVde2jpbu
p1316
I1
sVczc16cu
p1317
I1
sVdkycjdc
p1318
I1
sVd7066i8
p1319
I1
sVdqsoomb
p1320
I1
sVdfkqr8c
p1321
I1
sVcz58w3s
p1322
I1
sVd04dgmx
p1323
I1
sVdbc2ufv
p1324
I1
sVdenf7ip
p1325
I1
sVd05e8qk
p1326
I1
sVd0h5ro1
p1327
I1
sVdndlwwd
p1328
I1
sVdosdaou
p1329
I2
sVdik0782
p1330
I1
sVcys4zla
p1331
I1
sVcyx6kv4
p1332
I1
sVcyww23e
p1333
I1
sVdn9xe2i
p1334
I1
sVd39aggc
p1335
I1
sVd2abyb2
p1336
I1
sVczagcch
p1337
I1
sVd48kj7c
p1338
I1
sVd6nridu
p1339
I1
sVd9yrnsg
p1340
I1
sVdj9jec7
p1341
I1
sVd7jsm06
p1342
I1
sVdf1ybd9
p1343
I1
sVdjnlte2
p1344
I1
sVczkatfq
p1345
I1
sVczr1fsx
p1346
I1
sVdc35vqi
p1347
I1
sVcz73dgd
p1348
I1
sVdcw74pp
p1349
I1
sVdkyvg00
p1350
I1
sVdksu4u3
p1351
I1
sVdgi3uqw
p1352
I1
sVdhnx39y
p1353
I1
sVd9boils
p1354
I1
sVdr0oxdr
p1355
I1
sVd1hi1un
p1356
I1
sVd3r5zwz
p1357
I2
sVdcqttfv
p1358
I1
sVde2ioia
p1359
I1
sVda2hfwz
p1360
I1
sVdtfsx4b
p1361
I1
sVd84dh2q
p1362
I1
sVde15mls
p1363
I1
sVd71qzgt
p1364
I1
sVd21ia4s
p1365
I1
sVdb8ckq9
p1366
I1
sVd2m4wie
p1367
I1
sVd22j2n1
p1368
I1
sVd8yumhw
p1369
I1
sVdjf6u4m
p1370
I1
sVdscfuot
p1371
I1
sVdamqq3v
p1372
I1
sVd3z7ijh
p1373
I1
sVdh5gkcb
p1374
I2
sVdpylqbf
p1375
I1
sVd80o9l5
p1376
I1
sVcyo94vb
p1377
I1
sVd3mil8a
p1378
I1
sVd022ctr
p1379
I1
sVdazw6ml
p1380
I1
sVdhgyfm5
p1381
I1
sVdp06rci
p1382
I1
sVd5kguox
p1383
I1
sVdp9ksla
p1384
I2
sVdf9uv4w
p1385
I1
sVdf84qit
p1386
I1
sVd5ujf0e
p1387
I1
sVdcmu70i
p1388
I1
sVdnnuhef
p1389
I1
sVd4myxjq
p1390
I1
sVd4pc6ti
p1391
I1
sVdrmqqh1
p1392
I2
sVdp127z6
p1393
I1
sVd0wkubv
p1394
I1
sVd7rxq1a
p1395
I1
sVdgb3u2j
p1396
I1
sVcys55td
p1397
I2
sVd12ad86
p1398
I1
sVdc18lta
p1399
I2
sVdfodfmb
p1400
I1
sVdj901s2
p1401
I1
sVd1x5bey
p1402
I1
sVdp213c1
p1403
I1
sVd2jiols
p1404
I1
sVd4o2u4m
p1405
I1
sVd18px9l
p1406
I1
sVd4lnvza
p1407
I1
sVdp0cns0
p1408
I1
sVdez2urx
p1409
I1
sVdn89dup
p1410
I1
sVddhjqos
p1411
I1
sVdg5ip6c
p1412
I1
sVd3mo4kq
p1413
I1
sVdbehu4n
p1414
I1
sVdswub47
p1415
I1
sVdfoac0x
p1416
I1
sVdcpdund
p1417
I1
sVdc3ogi7
p1418
I2
sVdkkn47q
p1419
I1
sVdaytky5
p1420
I1
sVdg2w8oy
p1421
I1
sVcyzho28
p1422
I1
sVdjdba69
p1423
I1
sVczunlpw
p1424
I1
sVdpndao7
p1425
I1
sVcz1qh5d
p1426
I1
sVdj58rk3
p1427
I1
sVdqneyba
p1428
I2
sVddi93t3
p1429
I1
sVd5syn4a
p1430
I1
sVd799vui
p1431
I1
sVd0zpgy3
p1432
I1
sVdcbgbgm
p1433
I1
sVd496vui
p1434
I1
sVdt1hyec
p1435
I1
sVdev7m4w
p1436
I1
sVdi4lymb
p1437
I1
sVdcikjup
p1438
I1
sVded32to
p1439
I1
sVd5obcrc
p1440
I1
sVdfhw1pi
p1441
I1
sVd6fe2p8
p1442
I1
sVd7b9htx
p1443
I1
sVdbyjzgk
p1444
I1
sVdhtdg7l
p1445
I1
sVd7vmscq
p1446
I1
sVdnz6h9y
p1447
I1
sVd2i9khq
p1448
I1
sVdb700zv
p1449
I1
sVdd9mhm6
p1450
I1
sVd39dbx7
p1451
I3
sVdp8wtqv
p1452
I1
sVd304emy
p1453
I1
sVdc5iszo
p1454
I1
sVd177th4
p1455
I1
sVdsrhavs
p1456
I1
sVdj4r53y
p1457
I1
sVd6fccpu
p1458
I1
sVd96qy2r
p1459
I1
sVdgon2hs
p1460
I2
sVdfh0gar
p1461
I1
sVddxptnd
p1462
I1
sVd4twc3f
p1463
I1
sVd2aia4m
p1464
I1
sVde1uzrf
p1465
I1
sVd88o1w3
p1466
I1
sVd031cq9
p1467
I1
sVdfigysz
p1468
I1
sVd8do82u
p1469
I1
sVd4m93l4
p1470
I2
sVdfbl2ke
p1471
I1
sVdmqmr3y
p1472
I1
sVdca6e44
p1473
I1
sVd6cmi33
p1474
I1
sVd5yr6os
p1475
I1
sVd40ms88
p1476
I1
sVczarwdk
p1477
I1
sVda34ijc
p1478
I1
sVd2qylcn
p1479
I1
sVd4mwvyk
p1480
I1
sVdojgdmh
p1481
I2
sVd0mkh9o
p1482
I1
sVdfylnmm
p1483
I1
sVd0lj8yc
p1484
I1
sVdokqmc8
p1485
I1
sVd05sfka
p1486
I1
sVdmfnohs
p1487
I1
sVd07isr7
p1488
I1
sVdj2i3fn
p1489
I1
sVdifhafq
p1490
I1
sVdcn8i2e
p1491
I1
sVdkm2qo8
p1492
I1
sVdh4o5hg
p1493
I1
sVd1z5mk0
p1494
I1
sVdpkfhlo
p1495
I1
sVdilgekk
p1496
I1
sVdbvwinx
p1497
I1
sVd172f1d
p1498
I1
sVdqky401
p1499
I1
sVd0gmnk4
p1500
I2
sVdaub6ep
p1501
I1
sVdi8hq9q
p1502
I1
sVdc9tdf9
p1503
I1
sVdfa0870
p1504
I1
sVdaa5lrf
p1505
I1
sVdhx24n0
p1506
I3
sVdso5blm
p1507
I1
sVd6zul9b
p1508
I1
sVd9vuagg
p1509
I1
sVd4uo8nn
p1510
I1
sVd060hrw
p1511
I1
sVddojkzj
p1512
I1
sVd1em66y
p1513
I1
sVd35yavo
p1514
I1
sVd0n36lw
p1515
I1
sVd72in8w
p1516
I1
sVdg1t637
p1517
I1
sVdqs3tmm
p1518
I1
sVdfl2b5s
p1519
I1
sVd4i5j05
p1520
I1
sVdii6h7z
p1521
I1
sVddlky52
p1522
I3
sVd0yg0zv
p1523
I1
sVd832wis
p1524
I1
sVdf6wc38
p1525
I1
sVd1crgi8
p1526
I1
sVd8o00jq
p1527
I2
sVd0jo7ux
p1528
I1
sVd8lgo4b
p1529
I1
sVcyhvog3
p1530
I1
sVdbympia
p1531
I1
sVddcmwp1
p1532
I1
sVd8epwo4
p1533
I1
sVczgv1nx
p1534
I1
sVd29rsvz
p1535
I1
sVczu8xxb
p1536
I1
sVde7pvlz
p1537
I1
sVdqw6r7a
p1538
I1
sVdej66hz
p1539
I1
sVdnvndpl
p1540
I1
sVdiunhha
p1541
I1
sVd202nvf
p1542
I1
sVd41zsdp
p1543
I3
sVd25kfwx
p1544
I1
sVd4l09mf
p1545
I1
sVd9qq26z
p1546
I1
sVddj9cdo
p1547
I1
sVdbm2iwu
p1548
I1
sVd0lkvdi
p1549
I1
sVdedtlxv
p1550
I1
sVdgifjfl
p1551
I1
sVdapocez
p1552
I1
sVdjegnon
p1553
I1
sVdmeiuzw
p1554
I3
sVd25vzxb
p1555
I1
sVd1acqbj
p1556
I1
sVdhf5w4n
p1557
I1
sVdrqc7rq
p1558
I1
sVdgipmfu
p1559
I1
sVd8ne4d2
p1560
I1
sVdd8dbkn
p1561
I1
sVdavjs13
p1562
I1
sVdiatagd
p1563
I1
sVdrloi9u
p1564
I1
sVdir87i6
p1565
I1
sVd7slmaj
p1566
I1
sVd1yzawc
p1567
I1
sVd0d1wnx
p1568
I1
sVdblzqbg
p1569
I1
sVdcaqigf
p1570
I2
sVdizc8tg
p1571
I1
sVcz5s22z
p1572
I1
sVda9w78m
p1573
I1
sVdjr7c7k
p1574
I1
sVddrijms
p1575
I1
sVdtas91d
p1576
I1
sVda3b5dj
p1577
I1
sVd09me3v
p1578
I1
sVd3ffffp
p1579
I1
sVdht00xl
p1580
I1
sVdd5na7r
p1581
I1
sVdfth487
p1582
I1
sVdkh16cp
p1583
I1
sVd0ins0h
p1584
I1
sVcz9zn5q
p1585
I1
sVczn8ddz
p1586
I1
sVdf5adxp
p1587
I1
sVdg3x809
p1588
I1
sVdbvoogb
p1589
I1
sVdfwwznk
p1590
I1
sVday6atg
p1591
I1
sVdq713lv
p1592
I1
sVdgakfie
p1593
I1
sVdo2uo1c
p1594
I1
sVczpqwuw
p1595
I1
sVd6kedvs
p1596
I1
sVd65gypz
p1597
I1
sVcyy5waz
p1598
I1
sVd13d7za
p1599
I1
sVd7bnf79
p1600
I1
sVdh7kn3y
p1601
I1
sVdew8qs6
p1602
I1
sVd2cnkcc
p1603
I1
sVd1xgeyt
p1604
I1
sVd8hmek1
p1605
I1
sVdcbjqzh
p1606
I1
sVdrqflc6
p1607
I1
sVd9kt4bm
p1608
I1
sVdi2rl9t
p1609
I1
sVd3k24z1
p1610
I2
sVd66ke9i
p1611
I1
sVdcavswv
p1612
I1
sVdfhdbli
p1613
I1
sVd1p1xh4
p1614
I1
sVd2eejh0
p1615
I1
sVderlki0
p1616
I3
sVcz39636
p1617
I2
sVd35f8qb
p1618
I1
sVddrqsha
p1619
I1
sVdq27zqk
p1620
I1
sVdcigxnk
p1621
I2
sVdct248n
p1622
I1
sVd7vhmq0
p1623
I1
sVd9n27ph
p1624
I1
sVd0xl17o
p1625
I1
sVdtd31yz
p1626
I1
sVd83a8mq
p1627
I1
sVddipnai
p1628
I2
sVczor21q
p1629
I1
sVdd4d293
p1630
I1
sVd0wdhu4
p1631
I1
sVdqy6ymf
p1632
I1
sVdo2twr6
p1633
I1
sVdhe7h4l
p1634
I1
sVds59u8p
p1635
I1
sVd8wdvdl
p1636
I1
sVd58c5fe
p1637
I2
sVdhxbxx7
p1638
I1
sVdkg21wl
p1639
I1
sVdek20zb
p1640
I2
sVdn1gkt6
p1641
I2
sVd4f3wp9
p1642
I1
sVcyo8ecc
p1643
I1
sVdetqskh
p1644
I1
sVdn50qhs
p1645
I1
sVdc2t3dk
p1646
I1
sVdiyd9c8
p1647
I2
sVdcjx2cl
p1648
I1
sVd0bgj5k
p1649
I2
sVczi79k1
p1650
I1
sVd4w3vxj
p1651
I1
sVdhv3k2r
p1652
I1
sVdfr6em7
p1653
I1
sVda6zhun
p1654
I1
sVddyrfeg
p1655
I1
sVd7iabod
p1656
I1
sVdhp6gf9
p1657
I1
sVd3mamse
p1658
I1
sVd8gejz3
p1659
I1
sVdruoefw
p1660
I1
sVd845g0v
p1661
I2
sVd04bm9j
p1662
I1
sVd23prjt
p1663
I3
sVdea4lru
p1664
I1
sVds56h95
p1665
I2
sVdpcxo8o
p1666
I1
sVd5lwo7q
p1667
I1
sVd7edq3l
p1668
I1
sVddiuqaj
p1669
I2
sVd5dw9d2
p1670
I1
sVdka4e59
p1671
I1
sVd0qt01h
p1672
I1
sVd6w1ohz
p1673
I1
sVdp9f4a6
p1674
I1
sVdaktfvk
p1675
I1
sVdjtxcwq
p1676
I1
sVcyvop9e
p1677
I1
sVd6v9s26
p1678
I1
sVdqwpyh4
p1679
I1
sVdd67fhz
p1680
I1
sVd4ggwjy
p1681
I2
sVdr3vhvf
p1682
I1
sVd90kkwb
p1683
I1
sVczcl91v
p1684
I1
sVcz4qak7
p1685
I1
sVdfhiuwo
p1686
I1
sVczly61h
p1687
I1
sVd8qthho
p1688
I1
sVd47n1vw
p1689
I1
sVdhguhe3
p1690
I1
sVdsi9thg
p1691
I1
sVdkjybqp
p1692
I1
sVd70813y
p1693
I1
sVd1h84e2
p1694
I1
sVd05l6kb
p1695
I1
sVd4to4cs
p1696
I1
sVdahs020
p1697
I1
sVdb60u3z
p1698
I1
sVd5oozqg
p1699
I1
sVd2nadlb
p1700
I1
sVde8my7d
p1701
I1
sVd87xzi6
p1702
I2
sVd6zgcrj
p1703
I1
sVd26ia1m
p1704
I1
sVd62nyl8
p1705
I1
sVdd9d861
p1706
I1
sVd0lkzvm
p1707
I1
sVd1wc671
p1708
I1
sVd6gcowk
p1709
I1
sVda4z41e
p1710
I1
sVdg8xkaq
p1711
I1
sVd27rfbh
p1712
I1
sVdbkhqwz
p1713
I1
sVddk0jmb
p1714
I1
sVddxm1iz
p1715
I1
sVddpobp5
p1716
I1
sVczallug
p1717
I1
sVdr91qy1
p1718
I3
sVdni5nm8
p1719
I1
sVd3q5srr
p1720
I1
sVddcg5ih
p1721
I1
sVdd1q57j
p1722
I2
sVd8z5odi
p1723
I1
sVdeu7dwu
p1724
I1
sVdhyz6un
p1725
I2
sVd8z89lz
p1726
I1
sVd4u7n26
p1727
I1
sVdbsvzo0
p1728
I3
sVd4bfzwx
p1729
I1
sVd33vq9x
p1730
I1
sVdtfpv3h
p1731
I1
sVdii6faz
p1732
I1
sVdsblesm
p1733
I1
sVd3g32sp
p1734
I1
sVddzoh7i
p1735
I1
sVdhx11xl
p1736
I1
sVdbv03h1
p1737
I1
sVdorlsib
p1738
I1
sVdinr7cd
p1739
I1
sVdeleagd
p1740
I1
sVd3c07rn
p1741
I1
sVd02sgqd
p1742
I1
sVd5aj789
p1743
I2
sVdn336vn
p1744
I1
sVd4s05x0
p1745
I2
sVd8yohv6
p1746
I2
sVdc08nj2
p1747
I1
sVdd4hpca
p1748
I1
sVd9xisz4
p1749
I1
sVdgfeffk
p1750
I1
sVdo8bbzx
p1751
I1
sVdf3ujqd
p1752
I1
sVdibeerp
p1753
I1
sVdelljwc
p1754
I1
sVditaepo
p1755
I1
sVdikt8xp
p1756
I1
sVddzv4je
p1757
I1
sVdalufxt
p1758
I1
sVd5r4463
p1759
I1
sVd9by86s
p1760
I1
sVd3osnu0
p1761
I1
sVd9ashej
p1762
I1
sVd246ms5
p1763
I1
sVdsmffr2
p1764
I1
sVd23hdr4
p1765
I1
sVdo7hqmp
p1766
I1
sVd6se9kt
p1767
I1
sVdnnkzys
p1768
I1
sVdh6proe
p1769
I1
sVcz4pnp9
p1770
I1
sVdc5h28w
p1771
I1
sVd46x4xe
p1772
I1
sVdbyk092
p1773
I1
sVdks130k
p1774
I1
sVddo1l6b
p1775
I1
sVdbzm1no
p1776
I1
sVd6rp514
p1777
I1
sVczublc3
p1778
I1
sVdig7sav
p1779
I1
sVds3vhi1
p1780
I1
sVczecezm
p1781
I1
sVde79k5e
p1782
I1
sVczx3alr
p1783
I1
sVcyocd2u
p1784
I1
sVcyngd2m
p1785
I1
sVdfpjmv6
p1786
I1
sVd10h57z
p1787
I1
sVd4hprbd
p1788
I1
sVdqd4637
p1789
I1
sVcyxb0rn
p1790
I1
sVd6br3gh
p1791
I1
sVdqia457
p1792
I1
sVd91ozbe
p1793
I1
sVd46248j
p1794
I1
sVdbj5ffz
p1795
I1
sVd3o35y9
p1796
I1
sVd3ae28j
p1797
I1
sVdb53e1n
p1798
I1
sVd6l5dnr
p1799
I1
sVdaxobao
p1800
I1
sVd0pmidm
p1801
I1
sVdhzniny
p1802
I1
sVdovuemo
p1803
I1
sVddqm3wh
p1804
I1
sVdnsllm9
p1805
I1
sVdcwduxb
p1806
I1
sVcyrp11n
p1807
I1
sVd7kz8a5
p1808
I1
sVd1kmte9
p1809
I1
sVdnodfps
p1810
I1
sVd25iqzy
p1811
I1
sVdaifsi9
p1812
I1
sVd57g2yt
p1813
I2
sVd9aw0ys
p1814
I1
sVdoywqsq
p1815
I1
sVcyulozz
p1816
I1
sVdj3u2cq
p1817
I1
sVcz9gop5
p1818
I1
sVdk0fobt
p1819
I1
sVdr7bff5
p1820
I1
sVdhubn5f
p1821
I1
sVdebf0xa
p1822
I1
sVdh3t00w
p1823
I1
sVd3mn6j8
p1824
I1
sVd6pd4bi
p1825
I1
sVdikdmut
p1826
I1
sVdiwx7mu
p1827
I1
sVdgiiwfb
p1828
I1
sVdn2oif8
p1829
I1
sVd5z21gj
p1830
I1
sVdihoy85
p1831
I1
sVczp75g9
p1832
I1
sVda06qa7
p1833
I1
sVddcel60
p1834
I1
sVcyobede
p1835
I1
sVdayufs9
p1836
I1
sVds3hr6s
p1837
I1
sVd8yh5s5
p1838
I1
sVd86hgtd
p1839
I1
sVczcsdnl
p1840
I1
sVdqt0jez
p1841
I1
sVdotltnt
p1842
I1
sVdalj18l
p1843
I1
sVcyooxa2
p1844
I1
sVd9qw074
p1845
I1
sVdbym0d1
p1846
I1
sVczxi1sg
p1847
I1
sVd9u0f5o
p1848
I1
sVddt5d3y
p1849
I1
sVdrpwf43
p1850
I1
sVd2zilf1
p1851
I1
sVdsqxfue
p1852
I1
sVczeir3e
p1853
I1
sVdk7p354
p1854
I1
sVdd3fqzm
p1855
I1
sVdf77m0x
p1856
I1
sVddjyfde
p1857
I1
sVdgqv2qe
p1858
I1
sVddzkncl
p1859
I1
sVcz1j7qe
p1860
I1
sVd2vj1j8
p1861
I1
sVd479waa
p1862
I1
sVdqfkoop
p1863
I1
sVdbpopei
p1864
I1
sVdchmtx6
p1865
I1
sVd1q7qu7
p1866
I1
sVda0zwn7
p1867
I1
sVd4o02js
p1868
I1
sVd1ch5g7
p1869
I1
sVdjen3wj
p1870
I2
sVd858y1m
p1871
I1
sVd8t1fb3
p1872
I1
sVcyosn4a
p1873
I1
sVdawiccy
p1874
I2
sVd8o5b97
p1875
I1
sVd83pd50
p1876
I1
sVd2a913h
p1877
I1
sVcz0e6ap
p1878
I1
sVd7sa2ig
p1879
I1
sVd8l4vul
p1880
I1
sVdcw1boj
p1881
I1
sVd77epro
p1882
I1
sVd0wem47
p1883
I1
sVdcvvgo3
p1884
I1
sVdqv5ycp
p1885
I1
sVd5qef27
p1886
I2
sVcyup9ng
p1887
I1
sVdcmhofm
p1888
I1
sVdhkdac1
p1889
I2
sVdrbvm11
p1890
I2
sVdf9558y
p1891
I1
sVd30vbei
p1892
I1
sVdjtmtmg
p1893
I2
sVdikqfig
p1894
I1
sVcztyv33
p1895
I1
sVd9vnp6d
p1896
I1
sVczqfrab
p1897
I1
sVdcghz6j
p1898
I1
sVd5drgdc
p1899
I1
sVdbxsemq
p1900
I1
sVddr01q9
p1901
I1
sVdgcq47k
p1902
I1
sVdj56b5z
p1903
I1
sVdc15l7j
p1904
I1
sVda2tptt
p1905
I1
sVd8qc64o
p1906
I1
sVda0xx2f
p1907
I1
sVdhs16tj
p1908
I2
sVdacv5ym
p1909
I1
sVd3wyapr
p1910
I1
sVdg95nf2
p1911
I1
sVd6ev63n
p1912
I1
sVdnjd7mk
p1913
I1
sVdnm4qzm
p1914
I1
sVd2g4n17
p1915
I1
sVdc7vyza
p1916
I2
sVdf26wph
p1917
I1
sVd3zzs9h
p1918
I1
sVd3dqa37
p1919
I1
sVdi9s70d
p1920
I1
sVdfhjfk6
p1921
I1
sVd9f9v3p
p1922
I1
sVcztkntv
p1923
I1
sVdbq5nd5
p1924
I3
sVdii67sd
p1925
I1
sVdcmj8j8
p1926
I1
sVda35kne
p1927
I1
sVd639l1w
p1928
I1
sVdbkiybx
p1929
I1
sVdi1l73l
p1930
I1
sVdpiaqcr
p1931
I1
sVd0l5m05
p1932
I1
sVd00qu9q
p1933
I1
sVdmfxvun
p1934
I1
sVd9l6u1d
p1935
I1
sVdpohgl7
p1936
I1
sVdkx13ok
p1937
I1
sVds6mmyx
p1938
I1
sVd2g300q
p1939
I1
sVd9y34ul
p1940
I1
sVcz5k1fm
p1941
I1
sVdkz9v9g
p1942
I2
sVdetabvk
p1943
I1
sVd6loxdb
p1944
I1
sVd41xece
p1945
I2
sVcyswqoe
p1946
I1
sVdr2i1cg
p1947
I1
sVdet2x4f
p1948
I1
sVdd0245w
p1949
I1
sVdjwh98a
p1950
I2
sVczqpjy9
p1951
I1
sVdbqhozp
p1952
I1
sVdmm5vcx
p1953
I1
sVdsjofut
p1954
I1
sVdnq7jjg
p1955
I1
sVd6cha8o
p1956
I2
sVd0ejzd8
p1957
I1
sVdppe1es
p1958
I1
sVd4ivqwq
p1959
I1
sVdbjd7n8
p1960
I1
sVdbioqx0
p1961
I1
sVdbl4li8
p1962
I1
sVd15gfuo
p1963
I1
sVdbbc3om
p1964
I1
sVd5m01os
p1965
I2
sVd0jiqjz
p1966
I1
sVdohugg1
p1967
I1
sVd8q78si
p1968
I1
sVd9pi528
p1969
I1
sVdn9xco3
p1970
I1
sVd7swyjl
p1971
I1
sVdnk4vqg
p1972
I1
sVdtdd2mm
p1973
I1
sVd4xh7ol
p1974
I1
sVddzdeiy
p1975
I1
sVdal7dxf
p1976
I1
sVd9nbh7u
p1977
I1
sVd5v039g
p1978
I1
sVddpo0fn
p1979
I1
sVd1b8tym
p1980
I1
sVdj20qan
p1981
I1
sVczku7hx
p1982
I1
sVd028aiq
p1983
I1
sVdcfa1te
p1984
I1
sVdbbtd0o
p1985
I1
sVd3yh9xa
p1986
I1
sVdepjp3s
p1987
I1
sVdppjnfd
p1988
I1
sVd218kb7
p1989
I1
sVdj03coa
p1990
I1
sVd0fmvzp
p1991
I1
sVdniqpuq
p1992
I1
sVd5ccaqz
p1993
I1
sVdqmixim
p1994
I2
sVddpxdnd
p1995
I1
sVdf73je8
p1996
I1
sVcyjb2xa
p1997
I1
sVd9a1grn
p1998
I1
sVd4db1bm
p1999
I1
sVd3y57j0
p2000
I1
sVdspbpep
p2001
I1
sVdfm9w5g
p2002
I1
sVd0yu2em
p2003
I1
sVdpjy5sa
p2004
I1
sVdikjtcj
p2005
I1
sVdan4pwp
p2006
I1
sVdnrs7hm
p2007
I1
sVd63qorr
p2008
I1
sVd09nvc7
p2009
I1
sVdd1zzhp
p2010
I1
sVdhe9mj9
p2011
I1
sVdayn5n8
p2012
I1
sVczn8538
p2013
I2
sVd8m20yl
p2014
I1
sVczdvjck
p2015
I1
sVd510bys
p2016
I1
sVd7x8ze8
p2017
I1
sVd75b3my
p2018
I1
sVdof6e60
p2019
I1
sVdiy0tdn
p2020
I1
sVd0qtfn6
p2021
I1
sVd9mjdwc
p2022
I1
sVd2z2pta
p2023
I1
sVdk4bdyt
p2024
I1
sVd03krw2
p2025
I1
sVdcknq3i
p2026
I1
sVdsdahm9
p2027
I1
sVd4e2ux4
p2028
I1
sVdfx0xbj
p2029
I1
sVdkb7wnf
p2030
I1
sVd6ltywn
p2031
I1
sVdorh446
p2032
I2
sVdbon5w3
p2033
I1
sVda40yxq
p2034
I1
sVd16o63e
p2035
I1
sVdmzrwsb
p2036
I1
sVd4l04z8
p2037
I1
sVd5ieci6
p2038
I1
sVdbj8cv7
p2039
I1
sVdb7e2qf
p2040
I1
sVcyt5qb4
p2041
I1
sVdrowagz
p2042
I1
sVda5ncnp
p2043
I1
sVdh4qqqf
p2044
I1
sVczqa3lk
p2045
I1
sVdbq7tse
p2046
I2
sVdgerapr
p2047
I1
sVdqbe3kz
p2048
I1
sVd04cdfi
p2049
I1
sVdcjxnho
p2050
I1
sVd0ms08c
p2051
I1
sVd5lebcn
p2052
I1
sVddw86p1
p2053
I1
sVd2vdn8i
p2054
I1
sVded3d9d
p2055
I1
sVdemrgmz
p2056
I1
sVdkeh616
p2057
I1
sVd8svqaf
p2058
I1
sVdemd2ag
p2059
I1
sVdsuf1b9
p2060
I1
sVd592gyg
p2061
I1
sVdpdg8dw
p2062
I1
sVdde9go5
p2063
I1
sVdfxbfre
p2064
I1
sVdcsksdx
p2065
I1
sVdgwz5tp
p2066
I1
sVdqon543
p2067
I1
sVcyiebat
p2068
I1
sVd37hftt
p2069
I1
sVddetnje
p2070
I1
sVd2lzydc
p2071
I1
sVdin9l0s
p2072
I2
sVd7gnhu2
p2073
I1
sVdfdzt1t
p2074
I1
sVdhnks1l
p2075
I1
sVd8gxic3
p2076
I1
sVdb8f7mc
p2077
I1
sVd9elyb7
p2078
I1
sVd79lh02
p2079
I1
sVdrg3qdm
p2080
I1
sVdfk2dfd
p2081
I1
sVd2u4uy8
p2082
I1
sVd2yz88n
p2083
I1
sVdbjcmnx
p2084
I1
sVdhpo1ll
p2085
I1
sVdjqupwl
p2086
I1
sVd9blss9
p2087
I1
sVd19vayw
p2088
I1
sVd1br9e9
p2089
I1
sVdckfg5m
p2090
I1
sVdr81zc5
p2091
I1
sVdooaxq6
p2092
I1
sVdnzfkel
p2093
I1
sVdtcks14
p2094
I1
sVdbu0xwk
p2095
I1
sVdok5od0
p2096
I1
sVdpz9zkg
p2097
I1
sVd6bt0aq
p2098
I2
sVdanil7u
p2099
I1
sVcyxw3re
p2100
I1
sVd2r1rqd
p2101
I1
sVd6sng1f
p2102
I1
sVcyxvu0d
p2103
I1
sVda40d6p
p2104
I1
sVdajvswd
p2105
I1
sVd30i8nf
p2106
I1
sVd18gybi
p2107
I1
sVdclr5f7
p2108
I1
sVdjlesni
p2109
I1
sVdakjqfl
p2110
I1
sVd6tz9uy
p2111
I1
sVd33uggm
p2112
I1
sVd546elu
p2113
I1
sVd0u5eed
p2114
I1
sVdmeqdfq
p2115
I1
sVdqkq6xh
p2116
I1
sVd1hboqe
p2117
I1
sVdk7rvgu
p2118
I1
sVddcbt3e
p2119
I1
sVd37lpks
p2120
I1
sVdjo9jg2
p2121
I1
sVdct1qvv
p2122
I1
sVdnivttg
p2123
I1
sVdgcxar5
p2124
I1
sVd9unvv8
p2125
I1
sVd0kkg1p
p2126
I1
sVdcxhoa5
p2127
I2
sVd2jpdcz
p2128
I1
sVdgoluu6
p2129
I1
sVdnj63tc
p2130
I1
sVdc4u8wz
p2131
I2
sVd0k52ag
p2132
I1
sVcziqxwk
p2133
I1
sVdn6a9r7
p2134
I1
sVdt6yere
p2135
I1
sVd0689ea
p2136
I1
sVdmq72dm
p2137
I1
sVd6i6jfb
p2138
I1
sVd3z9dyg
p2139
I1
sVdetwmo8
p2140
I1
sVdjwi8mn
p2141
I1
sVdqyp41h
p2142
I1
sVdcri4tw
p2143
I1
sVdjsluqb
p2144
I1
sVd1wb5fl
p2145
I1
sVdfalvfk
p2146
I1
sVd9vrt9s
p2147
I1
sVcyt9vt0
p2148
I1
sVd02lae4
p2149
I1
sVd0xbqri
p2150
I1
sVdg6tsgp
p2151
I1
sVd8rqhm6
p2152
I1
sVd3jodmj
p2153
I1
sVdgz55do
p2154
I2
sVdmvai6c
p2155
I2
sVcyxmsww
p2156
I1
sVd5oq2ol
p2157
I1
sVczv13j7
p2158
I1
sVdq50eu2
p2159
I1
sVd2ok7n2
p2160
I1
sVd02cz5w
p2161
I1
sVd5tt1tb
p2162
I1
sVdgh89i0
p2163
I1
sVdc2wds1
p2164
I1
sVd3a09cq
p2165
I1
sVdaxja5h
p2166
I1
sVdn7yt7y
p2167
I1
sVdatpwx5
p2168
I1
sVd0xatoz
p2169
I1
sVdciw3yv
p2170
I1
sVdf3azzo
p2171
I1
sVd6mxi9p
p2172
I1
sVczfk0d2
p2173
I1
sVd5ekzma
p2174
I1
sVdoqu48b
p2175
I1
sVd1bxas0
p2176
I1
sVd5giwi7
p2177
I1
sVd8ir4jb
p2178
I1
sVdrdwq0i
p2179
I1
sVd0ujtsb
p2180
I1
sVd3s46go
p2181
I1
sVd3yipa0
p2182
I1
sVdj5oyyz
p2183
I1
sVdhxu2ze
p2184
I1
sVd4ru2v4
p2185
I1
sVdqnc15p
p2186
I1
sVdi8vhq1
p2187
I1
sVddid54z
p2188
I1
sVdhzy2c7
p2189
I1
sVd2dv1yf
p2190
I1
sVd4pjf61
p2191
I1
sVdfjrvkl
p2192
I2
sVdblxsf3
p2193
I1
sVdhdurae
p2194
I1
sVd44rakh
p2195
I1
sVd07to1v
p2196
I3
sVdjym2wg
p2197
I1
sVczncxmk
p2198
I2
sVd6rz6h3
p2199
I1
sVdgx0pzh
p2200
I1
sVd6o44ov
p2201
I1
sVd7i3iei
p2202
I1
sVdo2plub
p2203
I1
sVdgh01yl
p2204
I1
sVd5vgjj9
p2205
I1
sVdopk4rn
p2206
I1
sVdmx5r1s
p2207
I1
sVdb8ahzf
p2208
I2
sVdjfyar6
p2209
I1
sVd85j92z
p2210
I1
sVd37c8z9
p2211
I1
sVdnetemk
p2212
I1
sVd4qa744
p2213
I1
sVd0t7lng
p2214
I1
sVdfwwco9
p2215
I1
sVdgfkz4y
p2216
I1
sVdnxzyty
p2217
I1
sVd89bxc8
p2218
I1
sVdd4ye15
p2219
I2
sVddr2ews
p2220
I1
sVd316jwr
p2221
I1
sVdae4pzp
p2222
I3
sVdorp64w
p2223
I1
sVd8vqj1y
p2224
I1
sVdd4uy9a
p2225
I1
sVdqg410t
p2226
I1
sVdktkm1x
p2227
I1
sVd17gbrt
p2228
I1
sVd7h4aih
p2229
I1
sVdd8h882
p2230
I1
sVd4mw417
p2231
I1
sVdcccuro
p2232
I1
sVd01eky4
p2233
I1
sVdjedm7r
p2234
I2
sVdi4d586
p2235
I2
sVdravt7m
p2236
I1
sVd8ggxd1
p2237
I1
sVdbeams6
p2238
I1
sVdkg12s9
p2239
I1
sVd1cbzbl
p2240
I1
sVd0iaaem
p2241
I1
sVd5s7le5
p2242
I1
sVdovq1t7
p2243
I1
sVdd7dfpa
p2244
I1
sVdc30d5n
p2245
I1
sVd5gt8ki
p2246
I1
sVcyiw17w
p2247
I1
sVdre4d76
p2248
I1
sVd1mcjhw
p2249
I1
sVddr4i4q
p2250
I1
sVdd5j87y
p2251
I1
sVdcx7esj
p2252
I1
sVd5v6phv
p2253
I1
sVdg0pfkn
p2254
I1
sVdfab58c
p2255
I1
sVd3ui9m6
p2256
I1
sVdbjralv
p2257
I1
sVd4d34o8
p2258
I1
sVdd0l4sj
p2259
I1
sVdiyjur5
p2260
I1
sVd5jgers
p2261
I1
sVd7e9de8
p2262
I1
sVdk4zc0i
p2263
I1
sVd458b0g
p2264
I2
sVd1bj96r
p2265
I1
sVd1r0znl
p2266
I1
sVd5nt2q3
p2267
I1
sVd2cse3f
p2268
I1
sVdsbexbn
p2269
I1
sVd4ugd3h
p2270
I1
sVddyfmhw
p2271
I1
sVd32nblh
p2272
I1
sVdez6f50
p2273
I1
sVd6cb0jl
p2274
I1
sVderikta
p2275
I1
sVdjra2lk
p2276
I1
sVd2i96gz
p2277
I1
sVd5axvc9
p2278
I1
sVd9g6wj4
p2279
I1
sVdmjr69h
p2280
I1
sVd6vhnum
p2281
I1
sVdopmyc9
p2282
I1
sVd22vubf
p2283
I1
sVd8g6f70
p2284
I1
sVdp434ze
p2285
I1
sVd9qgp0x
p2286
I1
sVdhtf8kr
p2287
I2
sVd9k48fv
p2288
I1
sVd2qw0ll
p2289
I1
sVd8vtja6
p2290
I1
sVcyn0wj3
p2291
I1
sVd030lcr
p2292
I1
sVd3uko75
p2293
I1
sVdcn8ute
p2294
I1
sVd3hf51w
p2295
I1
sVdd17fdr
p2296
I1
sVcyt6kb5
p2297
I1
sVd1veiry
p2298
I1
sVdho4svq
p2299
I1
sVdqxs24z
p2300
I1
sVdrz55q6
p2301
I1
sVdf169a5
p2302
I2
sVdo7t8d1
p2303
I1
sVd25kjht
p2304
I1
sVddxglin
p2305
I1
sVdhzjyqf
p2306
I1
sVdobbn38
p2307
I1
sVdgdjcw0
p2308
I1
sVdhwr3ew
p2309
I1
sVdfojt9y
p2310
I1
sVdj9x5n5
p2311
I1
sVds8dwc2
p2312
I1
sVd4of3wd
p2313
I2
sVd0b9ua9
p2314
I1
sVcz4y7an
p2315
I1
sVdfcfmed
p2316
I1
sVdhnanxl
p2317
I1
sVda7jndn
p2318
I1
sVdgiji8o
p2319
I1
sVd0hii9c
p2320
I2
sVd9bqnxm
p2321
I1
sVd2v4iak
p2322
I2
sVd7ap0r2
p2323
I1
sVdkwfnf3
p2324
I1
sVdkcbl0c
p2325
I1
sVdozf1ba
p2326
I1
sVdjb5zuc
p2327
I1
sVddrrimb
p2328
I2
sVdc5xp5r
p2329
I1
sVczqsvnc
p2330
I1
sVdifq67l
p2331
I1
sVdiaye0i
p2332
I1
sVdcwj8xq
p2333
I1
sVcyk7vix
p2334
I1
sVdo400k6
p2335
I1
sVd9d9rh0
p2336
I1
sVdeui5gg
p2337
I1
sVd82lqzf
p2338
I1
sVczzcsit
p2339
I1
sVdidevdb
p2340
I1
sVd4l9hp8
p2341
I1
sVddhpr04
p2342
I1
sVd9188ux
p2343
I1
sVdfceirq
p2344
I1
sVdn37tcv
p2345
I1
sVdaksk9y
p2346
I1
sVdeljxue
p2347
I1
sVdmw9bxp
p2348
I1
sVdbtyb6i
p2349
I1
sVd2dxvcp
p2350
I1
sVdczlev3
p2351
I1
sVdh0k535
p2352
I1
sVd717y50
p2353
I1
sVd2y6l81
p2354
I1
sVdcuuy6j
p2355
I1
sVdjemcmh
p2356
I1
sVdcnjcuz
p2357
I1
sVdd58bvl
p2358
I1
sVde8obeg
p2359
I1
sVdpuyn14
p2360
I3
sVdatiq9k
p2361
I1
sVdhjcog5
p2362
I1
sVdbyqp3p
p2363
I1
sVd84n3f0
p2364
I1
sVdkjuorn
p2365
I1
sVdrc7wvo
p2366
I1
sVcz3x7i8
p2367
I1
sVczxbxfs
p2368
I2
sVdmfecco
p2369
I1
sVd7x2tsh
p2370
I1
sVd4qjthv
p2371
I1
sVdsmmtw9
p2372
I1
sVcyo3dps
p2373
I1
sVdnar2aa
p2374
I1
sVczvgns0
p2375
I1
sVd4ptsrr
p2376
I1
sVdinqodh
p2377
I1
sVd44nnab
p2378
I1
sVdafs1i7
p2379
I1
sVd5zwswe
p2380
I1
sVd4j88iw
p2381
I1
sVdf571y7
p2382
I1
sVdd9qnzb
p2383
I1
sVdj4t5cq
p2384
I1
sVczx54ra
p2385
I1
sVd7l02q3
p2386
I1
sVdhu7feg
p2387
I1
sVdch3x9j
p2388
I1
sVdkv3qwe
p2389
I1
sVd9mg24b
p2390
I1
sVdj6ekwa
p2391
I1
sVd0xn5qt
p2392
I1
sVd414twe
p2393
I1
sVdo735l2
p2394
I1
sVda8ugp7
p2395
I1
sVdn7o3xa
p2396
I1
sVdam7485
p2397
I1
sVd9by4nu
p2398
I1
sVda40tru
p2399
I1
sVdf9z54c
p2400
I2
sVd56vixm
p2401
I1
sVddq370b
p2402
I1
sVd7ekpcp
p2403
I1
sVdfypvza
p2404
I1
sVd8ufkq4
p2405
I1
sVdevxkx7
p2406
I4
sVdeu7wp2
p2407
I1
sVdh8bryt
p2408
I1
sVdfa0g49
p2409
I1
sVdmqb0aw
p2410
I1
sVdgob01y
p2411
I1
sVdiu25b0
p2412
I1
sVdkbxh2r
p2413
I1
sVdi6f34j
p2414
I1
sVcz1xyxt
p2415
I1
sVdjx7fiv
p2416
I1
sVd01vt5q
p2417
I1
sVdi6nm8r
p2418
I1
sVdmu28pi
p2419
I1
sVd4mcbyw
p2420
I1
sVd0i7yag
p2421
I1
sVdpi8tg5
p2422
I1
sVdo28cb0
p2423
I1
sVdgzpc5a
p2424
I1
sVdq3zhev
p2425
I1
sVd8zh9pf
p2426
I1
sVddrl03q
p2427
I1
sVd5ilbdv
p2428
I1
sVd074v35
p2429
I1
sVdhrhdg2
p2430
I1
sVdge45p8
p2431
I1
sVdi5l79r
p2432
I1
sVdjtgu6o
p2433
I1
sVd9jq0nv
p2434
I1
sVd1cvt8g
p2435
I1
sVd3vp0f9
p2436
I1
sVd1ubzvo
p2437
I1
sVczs3p5a
p2438
I1
sVczvgvv4
p2439
I1
sVdc3v1e6
p2440
I1
sVczqlga3
p2441
I1
sVdgds21t
p2442
I1
sVd5tgfjm
p2443
I1
sVd253bq1
p2444
I1
sVdngzk4d
p2445
I1
sVdmw340f
p2446
I1
sVdotw7eb
p2447
I1
sVddlz9hz
p2448
I1
sVdd50uzj
p2449
I1
sVdb6cp74
p2450
I1
sVd70ot5x
p2451
I1
sVd4tgift
p2452
I1
sVczz5tk2
p2453
I1
sVcz2cb5z
p2454
I1
sVdcst3vg
p2455
I1
sVdavn1mb
p2456
I1
sVdheufe0
p2457
I1
sVds7pnc0
p2458
I1
sVd5rf3ep
p2459
I2
sVdgvrdlt
p2460
I1
sVde7nxuj
p2461
I1
sVdfa0ygr
p2462
I1
sVdafl8gl
p2463
I1
sVds6o9g1
p2464
I1
sVd0hzwwm
p2465
I1
sVdfniy1p
p2466
I1
sVddm5gof
p2467
I1
sVdb5hq4l
p2468
I1
sVd7jx50z
p2469
I1
sVdtg2dam
p2470
I1
sVd4yd9vv
p2471
I1
sVdex35b4
p2472
I1
sVd39rrjj
p2473
I1
sVdfic87t
p2474
I1
sVddyeaoz
p2475
I1
sVd2prcdu
p2476
I1
sVdbbkg9l
p2477
I1
sVdscleb8
p2478
I1
sVd7mukpw
p2479
I1
sVdazv2ft
p2480
I1
sVdohm4i9
p2481
I1
sVdhwzt6p
p2482
I1
sVd1lt3m9
p2483
I1
sVdbzvh9u
p2484
I1
sVd3f0dw9
p2485
I1
sVd6f7e64
p2486
I1
sVd9ijkfg
p2487
I1
sVdb0mmzd
p2488
I1
sVd2jzlf4
p2489
I1
sVd0xyude
p2490
I2
sVd9o32d0
p2491
I1
sVdi0qsaa
p2492
I1
sVcyup76r
p2493
I1
sVdonsapr
p2494
I1
sVd6m8fk4
p2495
I1
sVd3je2ka
p2496
I1
sVd5hyimg
p2497
I1
sVdeu5wzx
p2498
I1
sVdafhalv
p2499
I1
sVdedcmh7
p2500
I1
sVdhf6tf9
p2501
I1
sVdp52juf
p2502
I1
sVd9z67oj
p2503
I1
sVd9zb7gx
p2504
I1
sVd95orh8
p2505
I1
sVd5op49m
p2506
I1
sVdhla5mq
p2507
I2
sVda6tfjx
p2508
I1
sVd5seni9
p2509
I1
sVdkydm5m
p2510
I1
sVdp15t8o
p2511
I1
sVd2p3r55
p2512
I1
sVdggwz5k
p2513
I1
sVden4hnx
p2514
I1
sVden53gv
p2515
I1
sVd24e30j
p2516
I1
sVdg50vr3
p2517
I1
sVdbd5kw2
p2518
I1
sVd9qalxe
p2519
I1
sVdgtp4pw
p2520
I1
sVds4svrj
p2521
I1
sVd92ij8i
p2522
I1
sVd9lf1vp
p2523
I1
sVd009s76
p2524
I1
sVdrr6ugb
p2525
I1
sVcz29gk9
p2526
I1
sVdg22xc0
p2527
I2
sVd2uu2y2
p2528
I1
sVd6wjlqb
p2529
I1
sVdc7tvqz
p2530
I1
sVdhocln8
p2531
I1
sVdap9asz
p2532
I2
sVddz15nf
p2533
I1
sVd9f1v2u
p2534
I1
sVdpwvvay
p2535
I1
sVczcjejq
p2536
I1
sVdp59n57
p2537
I1
sVdfs35g2
p2538
I1
sVdrj915e
p2539
I1
sVd1z7z96
p2540
I1
sVdgtvnnr
p2541
I1
sVddkbnm0
p2542
I2
sVd801prr
p2543
I1
sVdhk2t8j
p2544
I1
sVdinyz0i
p2545
I1
sVd0a2mwq
p2546
I1
sVdsist0y
p2547
I1
sVd76a623
p2548
I1
sVdcpvks4
p2549
I3
sVd5l1ykh
p2550
I1
sVd9x3x3y
p2551
I1
sVdsfghzq
p2552
I1
sVd3va99j
p2553
I1
sVd1a6gzz
p2554
I1
sVd2b21d2
p2555
I1
sVdqnuhm7
p2556
I1
sVdrswb1m
p2557
I1
sVdgmiy9s
p2558
I1
sVdqpyxiu
p2559
I1
sVdjldcyy
p2560
I1
sVd8g7mde
p2561
I1
sVdhyzkoy
p2562
I1
sVd0o7qx8
p2563
I1
sVdryuxag
p2564
I1
sVd4rk1t5
p2565
I1
sVd03hd1k
p2566
I1
sVdd6g4zi
p2567
I1
sVdjktyk3
p2568
I1
sVd3lvqqe
p2569
I1
sVdpiidh7
p2570
I2
sVds1e2et
p2571
I1
sVdfftjst
p2572
I1
sVdk7u404
p2573
I1
sVd1q92e8
p2574
I1
sVd2stokm
p2575
I1
sVdavbix8
p2576
I1
sVds4cgob
p2577
I1
sVdfg8ib9
p2578
I1
sVd9vh50i
p2579
I1
sVd521wcl
p2580
I1
sVdehty0n
p2581
I1
sVd93nvrc
p2582
I1
sVd9kd0dw
p2583
I1
sVd3ergbp
p2584
I1
sVdcicmeu
p2585
I1
sVd992sc6
p2586
I1
sVde49kib
p2587
I1
sVd2ls6wm
p2588
I1
sVdodxzcn
p2589
I1
sVd498krg
p2590
I1
sVcykwkrj
p2591
I1
sVdiuxat1
p2592
I1
sVdpmqkve
p2593
I1
sVd1mty11
p2594
I2
sVczzw3ab
p2595
I1
sVcz146nc
p2596
I1
sVdfwn96f
p2597
I1
sVdrt39x2
p2598
I1
sVd61ouwn
p2599
I1
sVdbluccr
p2600
I1
sVd8n8r3o
p2601
I1
sVd9790lb
p2602
I1
sVd1gt4qw
p2603
I1
sVdcim9ms
p2604
I1
sVd2t5zu8
p2605
I1
sVdexfn8t
p2606
I1
sVdd2nz28
p2607
I1
sVdffrilh
p2608
I1
sVd39mg15
p2609
I1
sVdcj00zc
p2610
I1
sVd4qq8hp
p2611
I1
sVd1tp70g
p2612
I1
sVdd82g7f
p2613
I1
sVdc3ucz9
p2614
I1
sVd47wxtf
p2615
I1
sVd2380rx
p2616
I1
sVdjhymgd
p2617
I1
sVdf92sz6
p2618
I1
sVdjmkdzb
p2619
I1
sVdf8guni
p2620
I1
sVdcf3pky
p2621
I1
sVd9lym9a
p2622
I1
sVd2s2fb8
p2623
I1
sVdmhatmv
p2624
I1
sVd8km3me
p2625
I1
sVdt076z7
p2626
I1
sVdaciayv
p2627
I2
sVdpdasur
p2628
I2
sVd7ub18w
p2629
I1
sVcyty4k4
p2630
I1
sVdg37hcn
p2631
I1
sVdgc36v0
p2632
I2
sVd3gfh1u
p2633
I1
sVd83z2i7
p2634
I1
sVddlpngb
p2635
I1
sVd0n1t7u
p2636
I1
sVczubc72
p2637
I1
sVd6cz7a8
p2638
I2
sVd7vpcco
p2639
I1
sVd3hbfx8
p2640
I1
sVdc8a23y
p2641
I1
sVd7lyb7k
p2642
I1
sVdmvqivy
p2643
I1
sVd3q50op
p2644
I1
sVd75lzvg
p2645
I2
sVd0rcxtd
p2646
I1
sVdszuh7m
p2647
I2
sVd2hnsb3
p2648
I1
sVczscqap
p2649
I2
sVdh1k6h0
p2650
I1
sVd3927vd
p2651
I3
sVdnda16m
p2652
I1
sVcziym41
p2653
I1
sVdjbopgj
p2654
I2
sVddh65ec
p2655
I1
sVdaasvbk
p2656
I1
sVd865mjq
p2657
I1
sVdhte4xy
p2658
I1
sVd0xf02h
p2659
I1
sVd2hz5yy
p2660
I1
sVd61m1iz
p2661
I2
sVdo7l7xt
p2662
I1
sVd0eqev0
p2663
I1
sVdnot13u
p2664
I1
sVd9bm1mo
p2665
I1
sVcyqacgm
p2666
I1
sVdon99ak
p2667
I1
sVd6uw94p
p2668
I1
sVd5flckz
p2669
I1
sVcyku3d0
p2670
I2
sVdb1jljn
p2671
I1
sVd7dn4zu
p2672
I1
sVdgv7bmw
p2673
I1
sVd1xc0r7
p2674
I1
sVdr3htoy
p2675
I1
sVdovpq32
p2676
I1
sVdgpzo3c
p2677
I1
sVda39duq
p2678
I1
sVdgi8h7g
p2679
I2
sVd1gx6uu
p2680
I1
sVdcin14d
p2681
I1
sVdgnd48i
p2682
I1
sVdohakk1
p2683
I1
sVd6h50yv
p2684
I1
sVcznlcfy
p2685
I2
sVdilcw74
p2686
I1
sVdj4qrai
p2687
I1
sVdem034j
p2688
I1
sVd4lf3wk
p2689
I1
sVdc5zr7k
p2690
I1
sVdaom9nm
p2691
I2
sVdh980e7
p2692
I1
sVczktvjj
p2693
I1
sVd4v1sdu
p2694
I3
sVd0qzbqp
p2695
I1
sVd708eaw
p2696
I1
sVdarvznn
p2697
I1
sVdg91oov
p2698
I1
sVde4f09k
p2699
I1
sVdhryk7w
p2700
I1
sVdgu7ign
p2701
I1
sVdh1hwoa
p2702
I1
sVd7187q5
p2703
I1
sVcyk3u6r
p2704
I1
sVczsg1m7
p2705
I1
sVdhyr9bo
p2706
I1
sVd9nwrg1
p2707
I1
sVdi44gah
p2708
I1
sVd6wcacz
p2709
I1
sVdh7xrmb
p2710
I1
sVdh33z4b
p2711
I1
sVd4h9vq9
p2712
I1
sVd9lzlkd
p2713
I1
sVde1zzqv
p2714
I1
sVcyzyfo7
p2715
I1
sVdh6097i
p2716
I1
sVd00rsy4
p2717
I1
sVdaehvc9
p2718
I1
sVdewwekf
p2719
I1
sVdjovla6
p2720
I1
sVd1m4pjw
p2721
I1
sVdhuo6wz
p2722
I1
sVd3y2rvj
p2723
I1
sVd0isb5r
p2724
I1
sVdcx9ehj
p2725
I1
sVd6yuwbn
p2726
I1
sVdnsaeu0
p2727
I1
sVd9hdtzi
p2728
I1
sVdmr25y6
p2729
I1
sVdecmopb
p2730
I1
sVd07452m
p2731
I1
sVd9qi7oo
p2732
I1
sVdkfliph
p2733
I1
sVcyojpp1
p2734
I1
sVdj407on
p2735
I1
sVdf6c3wk
p2736
I1
sVd8e5wzs
p2737
I1
sVd10solr
p2738
I1
sVdcccbon
p2739
I1
sVddq57g0
p2740
I1
sVdglvcxw
p2741
I1
sVdfacbou
p2742
I1
sVde6dbdd
p2743
I1
sVdmv1w3d
p2744
I1
sVdjeqp9f
p2745
I1
sVd26dtjw
p2746
I1
sVd3rtyke
p2747
I1
sVd3apj8n
p2748
I1
sVd1zt9wz
p2749
I1
sVdoukssx
p2750
I1
sVd76ofbu
p2751
I1
sVdenv1pg
p2752
I1
sVd9jjkdq
p2753
I1
sVd9q46e1
p2754
I1
sVd3kporl
p2755
I1
sVdg67nyv
p2756
I2
sVdb4n6rd
p2757
I1
sVdryqeim
p2758
I1
sVd8iw6hm
p2759
I2
sVd2jwp7b
p2760
I1
sVdedts7d
p2761
I1
sVdkc7yc9
p2762
I1
sVd1zwfvk
p2763
I1
sVdj8k19l
p2764
I1
sVdi9nz84
p2765
I1
sVdjaanjs
p2766
I1
sVde97qhb
p2767
I1
sVdk39rij
p2768
I1
sVdai3qge
p2769
I1
sVd30e1w0
p2770
I1
sVdhqn8xb
p2771
I1
sVdt0hvxx
p2772
I4
sVd04fikc
p2773
I1
sVdg4zpb6
p2774
I1
sVd4o0t5f
p2775
I1
sVdhlnx2d
p2776
I1
sVd6x4pxy
p2777
I1
sVd1yv9g2
p2778
I1
sVdjr6ekk
p2779
I1
sVdp8nlt6
p2780
I1
sVdikqpnl
p2781
I1
sVda2d5v4
p2782
I1
sVdja3wys
p2783
I1
sVdo1umm3
p2784
I1
sVdko1xti
p2785
I1
sVd36bana
p2786
I2
sVd9jg3q1
p2787
I1
sVdgrqo4r
p2788
I1
sVda7l7if
p2789
I1
sVd1jw1jd
p2790
I1
sVd6fgrig
p2791
I1
sVczgffc5
p2792
I1
sVdhuiuby
p2793
I1
sVcykd38t
p2794
I1
sVds65pxb
p2795
I2
sVd8gwtib
p2796
I1
sVczx6m4o
p2797
I1
sVdc0l99s
p2798
I1
sVdj37o7q
p2799
I1
sVd1ajyl1
p2800
I1
sVczok5it
p2801
I1
sVdmkjtxr
p2802
I1
sVd9ypw43
p2803
I1
sVdbwz3h8
p2804
I1
sVdpork4m
p2805
I1
sVddnwxdq
p2806
I2
sVdfoufjc
p2807
I1
sVdo6p9ag
p2808
I1
sVd7g34yj
p2809
I1
sVczzlglp
p2810
I1
sVdteqfi5
p2811
I1
sVda341rs
p2812
I1
sVdg56t52
p2813
I1
sVd2fru3o
p2814
I1
sVd88u9vm
p2815
I1
sVd1hjn0j
p2816
I1
sVdf8zspi
p2817
I1
sVd11sa6r
p2818
I1
sVdr1yl6o
p2819
I1
sVd4lrjuo
p2820
I1
sVdg6h794
p2821
I1
sVdsu9xwy
p2822
I1
sVdgpdf8x
p2823
I1
sVd6wp2g5
p2824
I1
sVdot0sxx
p2825
I2
sVdh2f9yj
p2826
I1
sVdiucnqa
p2827
I1
sVdbt035h
p2828
I1
sVczjj20h
p2829
I1
sVdcn71o3
p2830
I1
sVdc0jqj0
p2831
I1
sVdjfopf9
p2832
I1
sVd6umpf1
p2833
I2
sVdajb8m6
p2834
I1
sVdioe510
p2835
I1
sVd8a85jy
p2836
I1
sVd7fmvze
p2837
I1
sVcypkyqb
p2838
I1
sVdkfeyda
p2839
I1
sVd4xzil4
p2840
I1
sVdjyxv99
p2841
I1
sVd75dtzc
p2842
I1
sVdj7ypfc
p2843
I1
sVd229do3
p2844
I1
sVdkl3yfe
p2845
I1
sVd0zd7fp
p2846
I1
sVd3e5zny
p2847
I1
sVdnat6ir
p2848
I1
sVds38sv9
p2849
I1
sVd5zlq06
p2850
I1
sVdqzl7nl
p2851
I1
sVdmf8kwb
p2852
I1
sVd0iy60x
p2853
I1
sVdfv2k5a
p2854
I1
sVds9lw07
p2855
I1
sVd7jco20
p2856
I1
sVd7xnhd9
p2857
I1
sVczxfb3d
p2858
I1
sVd3hy5az
p2859
I1
sVdkkjl1q
p2860
I1
sVdql8o7e
p2861
I1
sVd3exbvc
p2862
I1
sVd6nqk9r
p2863
I2
sVdf9ajgy
p2864
I1
sVdogdmk3
p2865
I1
sVd6nbfey
p2866
I1
sVd8souuq
p2867
I1
sVddoo7az
p2868
I1
sVd6es9yo
p2869
I1
sVdcea81b
p2870
I1
sVd8upz09
p2871
I1
sVd95foh3
p2872
I1
sVd1x5139
p2873
I1
sVd4owq68
p2874
I1
sVd3etweh
p2875
I1
sVczwnbcp
p2876
I1
sVd460tuk
p2877
I1
sVdbzj3dp
p2878
I1
sVd9y85ob
p2879
I1
sVdggqy3w
p2880
I1
sVdiafl3p
p2881
I1
sVd2bbh1i
p2882
I3
sVdenetjs
p2883
I1
sVddj9gp7
p2884
I1
sVde899bp
p2885
I1
sVdkkboz7
p2886
I1
sVczyc187
p2887
I1
sVdf9psqx
p2888
I1
sVcyj7o88
p2889
I1
sVdtbnd3p
p2890
I1
sVd6zpnwy
p2891
I1
sVdbcnzoo
p2892
I1
sVdggd8cm
p2893
I1
sVd1su7uj
p2894
I1
sVd4lu67v
p2895
I1
sVddsdno0
p2896
I1
sVcz1gpe5
p2897
I1
sVd2gf1te
p2898
I1
sVda35hr5
p2899
I1
sVddjyhws
p2900
I1
sVdeu4iy9
p2901
I1
sVczg4vn6
p2902
I1
sVd6bvcy7
p2903
I3
sVddcubrl
p2904
I1
sVd9aapk6
p2905
I2
sVd1kky8w
p2906
I1
sVdeaxweg
p2907
I1
sVdcfwr4d
p2908
I1
sVdb9jgej
p2909
I2
sVd1e7gqb
p2910
I1
sVdjskqs8
p2911
I1
sVdess6d3
p2912
I1
sVd0naeqf
p2913
I1
sVdkx9kj6
p2914
I2
sVdrcdedm
p2915
I1
sVd74726n
p2916
I2
sVd7qeebs
p2917
I1
sVczsnm2i
p2918
I1
sVdnj45jj
p2919
I1
sVdee3hvi
p2920
I1
sVdk12mfj
p2921
I1
sVdcyibsq
p2922
I1
sVdc4udx0
p2923
I1
sVdfozceh
p2924
I1
sVdkjpq72
p2925
I1
sVdnfqoha
p2926
I1
sVd3eloii
p2927
I1
sVdms4jbx
p2928
I1
sVd12s2zm
p2929
I1
sVdfvgkbt
p2930
I1
sVcyz69n5
p2931
I1
sVd277p7z
p2932
I4
sVdkmx5aw
p2933
I1
sVdcsqdvw
p2934
I1
sVdh6bi7m
p2935
I1
sVd4nzyxk
p2936
I1
sVda2mxo7
p2937
I1
sVdh28v6u
p2938
I1
sVd6giybk
p2939
I1
sVd7zb56c
p2940
I1
sVdjrd1ga
p2941
I1
sVdrla9z1
p2942
I1
sVd67bqnp
p2943
I2
sVd6ij9bd
p2944
I1
sVd6y2uv9
p2945
I1
sVd0qv396
p2946
I1
sVd6obu5o
p2947
I1
sVdpkws2x
p2948
I1
sVd2a8lub
p2949
I1
sVd4kcwwz
p2950
I1
sVdb0erwb
p2951
I1
sVd2zot2q
p2952
I1
sVdae4x3r
p2953
I2
sVczojrfj
p2954
I1
sVdnd2snn
p2955
I1
sVdk6tmyr
p2956
I1
sVdfjvbxa
p2957
I1
sVd6c84pb
p2958
I1
sVdt6nsz3
p2959
I1
sVdrsric1
p2960
I1
sVd5c38da
p2961
I1
sVd6he9pe
p2962
I1
sVdf91nxr
p2963
I1
sVd8ovdp6
p2964
I1
sVd0vc1so
p2965
I1
sVdcuia5i
p2966
I1
sVdawucpb
p2967
I1
sVd147h9p
p2968
I1
sVd27vr6g
p2969
I1
sVd36hbzh
p2970
I1
sVdkkg139
p2971
I1
sVd3j05qt
p2972
I1
sVd56p153
p2973
I1
sVd7ftee2
p2974
I1
sVdfnmyzv
p2975
I1
sVdi3iizq
p2976
I2
sVd4gw158
p2977
I1
sVdjwdgdr
p2978
I1
sVdk824k4
p2979
I1
sVdii72s1
p2980
I1
sVd4zb37f
p2981
I1
sVde92i2r
p2982
I1
sVd9dog0j
p2983
I2
sVd8p4ti2
p2984
I1
sVd3bi2kd
p2985
I1
sVd8bwdl8
p2986
I1
sVdfb3hx4
p2987
I1
sVdkoif3f
p2988
I1
sVd70dp22
p2989
I1
sVd3ub2r6
p2990
I2
sVdp8bp7r
p2991
I1
sVd01rwch
p2992
I1
sVdmhqzcx
p2993
I1
sVdss26o2
p2994
I1
sVdho8m3a
p2995
I1
sVd45vhtw
p2996
I1
sVd8ruozs
p2997
I1
sVd32gsag
p2998
I1
sVd2gaol2
p2999
I1
sVdhmxyrl
p3000
I1
sVd1jt4o7
p3001
I1
sVd0cwvo1
p3002
I2
sVdhc6bxy
p3003
I1
sVd52n8dz
p3004
I1
sVdaquw24
p3005
I1
sVd1uv1fh
p3006
I1
sVd18tlqh
p3007
I1
sVdclz7rp
p3008
I1
sVddg2k43
p3009
I1
sVd3c099j
p3010
I1
sVd7y4wwg
p3011
I1
sVczmt8tv
p3012
I1
sVczg38lf
p3013
I1
sVd7qi7ay
p3014
I2
sVd392gx8
p3015
I3
sVddqt7sf
p3016
I1
sVdo8fvwy
p3017
I1
sVdgpdjyd
p3018
I1
sVczc0u6t
p3019
I1
sVdrtl4wn
p3020
I1
sVd3qmqx3
p3021
I1
sVdi0istj
p3022
I1
sVdkocr7x
p3023
I1
sVd0g770z
p3024
I1
sVdb40ryj
p3025
I1
sVddezx02
p3026
I1
sVdk7s5j5
p3027
I1
sVdb7gqjl
p3028
I1
sVdo6iz0h
p3029
I1
sVd3m9jtj
p3030
I1
sVdh65iwc
p3031
I1
sVdn35nxe
p3032
I1
sVd621nt9
p3033
I1
sVdam1pqi
p3034
I1
sVdcg08ea
p3035
I1
sVd62zu9j
p3036
I1
sVcysul47
p3037
I1
sVd9cxdff
p3038
I1
sVd47h5ie
p3039
I1
sVdn8o4oh
p3040
I1
sVdebq0ud
p3041
I1
sVdkuhr3o
p3042
I1
sVdghh0pv
p3043
I1
sVdmusira
p3044
I1
sVdj60r8z
p3045
I1
sVd7k1qe0
p3046
I2
sVda3g8uc
p3047
I1
sVczf6ror
p3048
I1
sVd87dhxy
p3049
I1
sVczemn55
p3050
I1
sVd9msx5j
p3051
I1
sVdd1h2k9
p3052
I2
sVddp5v3c
p3053
I1
sVczr360q
p3054
I1
sVcynj7wm
p3055
I1
sVd2m2bof
p3056
I1
sVd1ttrpj
p3057
I1
sVd5v9gk0
p3058
I1
sVdfaioxq
p3059
I1
sVdigt4mf
p3060
I1
sVd34y8l2
p3061
I1
sVcznxgh4
p3062
I1
sVdjra9jw
p3063
I2
sVdsvhuwm
p3064
I1
sVd9u9nai
p3065
I1
sVd5ezhcd
p3066
I1
sVd9fgoxi
p3067
I1
sVd37757v
p3068
I1
sVd0d6ajv
p3069
I1
sVdg7crqm
p3070
I1
sVd894u6b
p3071
I1
sVd1xmdr1
p3072
I1
sVcz2ovpf
p3073
I1
sVdh16zh6
p3074
I1
sVcyisqip
p3075
I1
sVczb61ri
p3076
I1
sVczbg0gb
p3077
I1
sVd340x37
p3078
I1
sVd4ng7b0
p3079
I1
sVdraceb3
p3080
I1
sVdgcxx30
p3081
I1
sVd3aebkf
p3082
I1
sVd0b6hjo
p3083
I1
sVdfvko15
p3084
I1
sVd68xtqw
p3085
I1
sVdr3h2r8
p3086
I1
sVd0u7qq6
p3087
I1
sVd97j8dy
p3088
I1
sVczk0db2
p3089
I1
sVd63bw56
p3090
I1
sVdh1tps7
p3091
I1
sVd23xe7j
p3092
I1
sVdalsxlo
p3093
I1
sVdfdi2v5
p3094
I1
sVczhocsy
p3095
I1
sVcyor47l
p3096
I1
sVdg8rwax
p3097
I1
sVcyz8p6a
p3098
I1
sVd78xr5j
p3099
I1
sVdgi1h6b
p3100
I1
sVdmwqnnq
p3101
I1
sVd5ekzbv
p3102
I1
sVdbspvjw
p3103
I1
sVddvv7ap
p3104
I1
sVd2xbmn2
p3105
I1
sVcz2ntbd
p3106
I1
sVd1iq9k7
p3107
I1
sVdbac0l7
p3108
I1
sVdoxsuls
p3109
I1
sVds7sypg
p3110
I1
sVd9b9bka
p3111
I1
sVdgu1m1n
p3112
I1
sVdd0zxyk
p3113
I1
sVd6zhx9x
p3114
I1
sVda6xw0m
p3115
I1
sVdd1urcl
p3116
I2
sVdexokt1
p3117
I1
sVdfpziau
p3118
I1
sVdk6g52e
p3119
I1
sVd3yg4ye
p3120
I1
sVd8bttsm
p3121
I1
sVdpki0wa
p3122
I1
sVddppwsn
p3123
I1
sVd5zzawx
p3124
I1
sVd9hgd3b
p3125
I1
sVdefx1zv
p3126
I1
sVd4fsdt2
p3127
I1
sVdsupqx1
p3128
I1
sVdayguz0
p3129
I1
sVdpj82b9
p3130
I1
sVdaqrtr1
p3131
I1
sVd7etcow
p3132
I1
sVdafhbdm
p3133
I1
sVd0y3x96
p3134
I1
sVd05xc7k
p3135
I2
sVdd1y24k
p3136
I1
sVdqu1m9j
p3137
I1
sVdamvbnp
p3138
I1
sVd0t31di
p3139
I1
sVdr3jf16
p3140
I1
sVdey7013
p3141
I1
sVddq1aoo
p3142
I1
sVdnxv3tu
p3143
I2
sVdhdu7jk
p3144
I1
sVds8fght
p3145
I1
sVdc2m5su
p3146
I1
sVdr9jwr7
p3147
I1
sVczollmu
p3148
I1
sVdmi2kbm
p3149
I1
sVdfl02ut
p3150
I1
sVdgfb4y4
p3151
I2
sVdsfjnax
p3152
I1
sVd32qw8g
p3153
I1
sVdh965um
p3154
I1
sVd8wzw0z
p3155
I1
sVdrdxwqk
p3156
I1
sVdh6xgs3
p3157
I1
sVd9pc0xg
p3158
I2
sVd30fhpq
p3159
I1
sVdfjkbhw
p3160
I1
sVdcfjrrn
p3161
I1
sVdira81m
p3162
I1
sVcz9sxrx
p3163
I1
sVdb0xdmw
p3164
I1
sVdh7zupm
p3165
I1
sVdp49w90
p3166
I1
sVd2haqw4
p3167
I1
sVdka9ywr
p3168
I1
sVdakbfuj
p3169
I1
sVd7fnoft
p3170
I1
sVdfjy1pa
p3171
I1
sVdc4vz7l
p3172
I1
sVcys43h6
p3173
I1
sVdhyinsa
p3174
I1
sVdd5a4cp
p3175
I1
sVdfitoe1
p3176
I1
sVdf68llg
p3177
I1
sVd73eh4e
p3178
I1
sVczbg2gh
p3179
I1
sVdiz6t76
p3180
I1
sVdqdawqo
p3181
I1
sVd7hqqu2
p3182
I1
sVdsud0sf
p3183
I1
sVda9r2u4
p3184
I1
sVdaxqrbs
p3185
I1
sVczevzda
p3186
I1
sVda76pai
p3187
I1
sVd6gsbw0
p3188
I1
sVd7e1bb5
p3189
I1
sVdnyoc0j
p3190
I1
sVd5vosd9
p3191
I1
sVdmjvvox
p3192
I1
sVd7qh42b
p3193
I1
sVddepia3
p3194
I1
sVcytttuh
p3195
I1
sVd138xie
p3196
I1
sVd2wbf1h
p3197
I1
sVd8cqy8x
p3198
I1
sVd00zkhm
p3199
I1
sVdgre805
p3200
I1
sVd1bz18w
p3201
I1
sVdhjln5e
p3202
I1
sVd7m2ck7
p3203
I1
sVdatv0jt
p3204
I1
sVd5iopv9
p3205
I1
sVcz15h4r
p3206
I1
sVdg6069a
p3207
I1
sVdfdd2kk
p3208
I1
sVd6m7pdn
p3209
I1
sVdajfqb1
p3210
I1
sVczevntn
p3211
I1
sVd0iherg
p3212
I1
sVd7d424o
p3213
I1
sVd03c7ma
p3214
I1
sVd26mx8f
p3215
I2
sVd0a0zrq
p3216
I1
sVd0l5idi
p3217
I1
sVdnxi1u5
p3218
I1
sVdgjmts8
p3219
I2
sVdg46biv
p3220
I1
sVdijocjt
p3221
I1
sVcziaa2w
p3222
I1
sVdgak0uu
p3223
I1
sVdhhwkaa
p3224
I1
sVdenoa7n
p3225
I1
sVd1uvjmh
p3226
I2
sVdi7fpf8
p3227
I1
sVdna6na0
p3228
I1
sVczyxjnq
p3229
I1
sVd44thuo
p3230
I1
sVdrkb1k0
p3231
I1
sVd9y7gyu
p3232
I1
sVd7fe2v0
p3233
I1
sVdfj8fyk
p3234
I1
sVdqmg6e8
p3235
I1
sVdn85hqr
p3236
I1
sVcykis7h
p3237
I1
sVd348wbo
p3238
I1
sVczoqaos
p3239
I1
sVdpqwvgk
p3240
I1
sVdc7tkfe
p3241
I1
sVd8ufgks
p3242
I1
sVda45tlt
p3243
I1
sVd6cvjct
p3244
I1
sVd89e0hm
p3245
I1
sVdn88vcp
p3246
I1
sVczl2ho3
p3247
I1
sVdi9anji
p3248
I1
sVd5bf4hs
p3249
I1
sVdr2oobk
p3250
I1
sVd5b9fyw
p3251
I1
sVdfv0oci
p3252
I1
sVdrno77k
p3253
I1
sVd4jcd0k
p3254
I1
sVd8uh82v
p3255
I1
sVdje8ep1
p3256
I1
sVdahkdlh
p3257
I2
sVd0y46ma
p3258
I3
sVdc8ct3f
p3259
I1
sVczgn9zz
p3260
I1
sVdnovce3
p3261
I1
sVd4etrd0
p3262
I1
sVd797m6r
p3263
I1
sVdifh8by
p3264
I2
sVdo3w8z6
p3265
I2
sVd5rscp1
p3266
I1
sVcz1ksfh
p3267
I1
sVdrkt0h5
p3268
I1
sVdknhg1u
p3269
I1
sVd9xxz1z
p3270
I1
sVdh4k33a
p3271
I1
sVdjekz8m
p3272
I1
sVd2uvre7
p3273
I1
sVdkh440e
p3274
I1
sVd08rid0
p3275
I1
sVd2bof6q
p3276
I1
sVditvi58
p3277
I1
sVdp0pbyh
p3278
I1
sVdimpzbl
p3279
I1
sVdblo4jn
p3280
I1
sVd7jj5gm
p3281
I1
sVddkaryf
p3282
I1
sVd5asy9i
p3283
I1
sVdtfqzg4
p3284
I1
sVd803ixx
p3285
I1
sVdnmlqom
p3286
I1
sVd8t8wo7
p3287
I1
sVd7xxki8
p3288
I1
sVdsqyc7r
p3289
I1
sVd1l3eev
p3290
I1
sVdba59y2
p3291
I1
sVdh155zt
p3292
I1
sVdrkrx2a
p3293
I1
sVdjcw17y
p3294
I1
sVdaci6pi
p3295
I1
sVdcz4twa
p3296
I1
sVcznii6u
p3297
I1
sVdcrks1c
p3298
I1
sVde8qc07
p3299
I1
sVd9ak6rt
p3300
I1
sVdag07k8
p3301
I1
sVd0mlwfa
p3302
I1
sVd48ls9d
p3303
I1
sVdff90a8
p3304
I1
sVdi85jzw
p3305
I1
sVd1l62ny
p3306
I1
sVdim18uu
p3307
I1
sVd8ogvpn
p3308
I1
sVd2fiaax
p3309
I1
sVczyugk6
p3310
I1
sVdsvm97i
p3311
I1
sVd59cwfb
p3312
I1
sVdruqnjj
p3313
I1
sVdcceji0
p3314
I1
sVd2eij5f
p3315
I1
sVdjrcgi8
p3316
I1
sVdqjs6ww
p3317
I1
sVdbqwq6q
p3318
I1
sVdaeeqap
p3319
I1
sVd6fnfam
p3320
I1
sVdg9pxcj
p3321
I1
sVd6u6kif
p3322
I1
sVd2apxbd
p3323
I1
sVddnkm0o
p3324
I1
sVcyx2z6v
p3325
I2
sVdigqha7
p3326
I2
sVd3r88tf
p3327
I1
sVd71tuda
p3328
I1
sVdi9uer7
p3329
I1
sVdf884c6
p3330
I1
sVdh5cm21
p3331
I1
sVdhi8sxa
p3332
I1
sVcynj8ep
p3333
I1
sVdbnpdoh
p3334
I1
sVdfljerj
p3335
I1
sVdow9jlz
p3336
I1
sVdn0bske
p3337
I2
sVdfs5tag
p3338
I1
sVde2vo30
p3339
I1
sVddxfi6f
p3340
I1
sVd7zl1jc
p3341
I1
sVd2jp25q
p3342
I1
sVd2jw5zi
p3343
I1
sVcz2ntsn
p3344
I1
sVdt3hk2r
p3345
I1
sVdh06tpo
p3346
I1
sVczc17cu
p3347
I1
sVd655qe6
p3348
I1
sVd18zcvb
p3349
I1
sVdhciu5w
p3350
I1
sVd0269xy
p3351
I1
sVdd6w1ja
p3352
I1
sVdf9ccs8
p3353
I2
sVde50052
p3354
I1
sVdhufrr5
p3355
I1
sVdqyirhz
p3356
I1
sVdibpsya
p3357
I1
sVd2qf6we
p3358
I1
sVcysg8ss
p3359
I1
sVdfwqp2s
p3360
I1
sVd1cumt8
p3361
I1
sVd1o2n4e
p3362
I2
sVd2t51m9
p3363
I1
sVdeiznhf
p3364
I1
sVd59vcfl
p3365
I1
sVdky0862
p3366
I1
sVdjpw3rv
p3367
I1
sVczco2qm
p3368
I1
sVd7plrhv
p3369
I1
sVd8lkogg
p3370
I1
sVdgf66e7
p3371
I1
sVd6m2h0g
p3372
I1
sVdfwvpj8
p3373
I1
sVd3x34wq
p3374
I1
sVd6efc0e
p3375
I2
sVdpgv818
p3376
I2
sVd56i8d6
p3377
I1
sVd07o16c
p3378
I1
sVd2xhyxx
p3379
I1
sVd10qtrt
p3380
I1
sVd8eqwes
p3381
I1
sVd66lhy9
p3382
I1
sVdn1okdt
p3383
I1
sVczdo0vy
p3384
I1
sVdi36k3w
p3385
I1
sVdfvmw16
p3386
I1
sVd3khovc
p3387
I1
sVdg75is1
p3388
I1
sVdg4vu43
p3389
I1
sVdjytyer
p3390
I3
sVdontwgr
p3391
I2
sVdfltnh3
p3392
I1
sVddcmqaw
p3393
I1
sVdfs01vy
p3394
I1
sVdtfqdgj
p3395
I1
sVdct92wt
p3396
I1
sVcyklz8r
p3397
I1
sVd4lzccn
p3398
I1
sVdtcv1l0
p3399
I1
sVdcha2b5
p3400
I1
sVd4r8ke0
p3401
I1
sVdkra3ht
p3402
I2
sVd0iia1h
p3403
I1
sVdf3plws
p3404
I1
sVdnon2ng
p3405
I1
sVde9872k
p3406
I1
sVda7qnso
p3407
I1
sVdi6h6fc
p3408
I1
sVdo5x8kq
p3409
I1
sVdk9z6f6
p3410
I1
sVd0wxc3z
p3411
I2
sVdfa3ei1
p3412
I1
sVdc566xn
p3413
I1
sVdcn43yg
p3414
I1
sVdqcyup2
p3415
I1
sVd8yv7nh
p3416
I1
sVdbgwpvf
p3417
I1
sVd3oo3nq
p3418
I1
sVdccbdjg
p3419
I1
sVdaqajv4
p3420
I1
sVdqh5hvz
p3421
I1
sVd82w909
p3422
I2
sVdn1h1ec
p3423
I2
sVdjn2cz2
p3424
I1
sVdp1b3bd
p3425
I1
sVdqf029y
p3426
I1
sVd4u0jb8
p3427
I1
sVds3gtbg
p3428
I1
sVcz3u62d
p3429
I1
sVd2xdosw
p3430
I1
sVd9bxp5m
p3431
I2
sVd0o1t0m
p3432
I1
sVdj21erj
p3433
I1
sVdhifn6t
p3434
I1
sVdgvh14t
p3435
I1
sVdkjox7d
p3436
I1
sVd4i06uz
p3437
I3
sVdi3a9xy
p3438
I1
sVdjlar6b
p3439
I1
sVd30o1ts
p3440
I1
sVd12wiib
p3441
I1
sVd3owhha
p3442
I1
sVd51f7v6
p3443
I1
sVdih086i
p3444
I1
sVddjwhlc
p3445
I1
sVcznumg3
p3446
I1
sVdj78g71
p3447
I1
sVdhgqaio
p3448
I1
sVdjiclol
p3449
I1
sVdk26wo1
p3450
I1
sVd8qpt6b
p3451
I1
sVdkjnnl1
p3452
I1
sVd1wgtnn
p3453
I1
sVdnkjoxh
p3454
I1
sVd1ouoye
p3455
I1
sVdklj4pj
p3456
I1
sVcypgru3
p3457
I1
sVda4z6p6
p3458
I1
sVd9zmbaa
p3459
I1
sVd66fmpl
p3460
I1
sVdg6rhxu
p3461
I1
sVds004o3
p3462
I1
sVds6am6t
p3463
I1
sVd38qv0x
p3464
I2
sVczyb3zl
p3465
I1
sVdt6da0p
p3466
I2
sVdejq689
p3467
I1
sVdrxzdco
p3468
I2
sVdotoa94
p3469
I1
sVd7ynlvo
p3470
I1
sVd4xsgqz
p3471
I1
sVd97e7mm
p3472
I1
sVdk6kk40
p3473
I1
sVdf9b87u
p3474
I1
sVd76n56x
p3475
I1
sVcz85nmo
p3476
I1
sVczebbkr
p3477
I1
sVd7z73s2
p3478
I1
sVdfiupqb
p3479
I1
sVdf222p0
p3480
I1
sVd793udu
p3481
I1
sVd1uh2dx
p3482
I1
sVd5ri8da
p3483
I1
sVdk2n8e5
p3484
I1
sVdccst8v
p3485
I1
sVd9hl1qu
p3486
I1
sVde3isnd
p3487
I1
sVd0sozdl
p3488
I1
sVdeivzxa
p3489
I1
sVd4rpodp
p3490
I1
sVdattuvf
p3491
I2
sVcz3yl2g
p3492
I1
sVcyzgq1j
p3493
I1
sVdbdd3fx
p3494
I1
sVdg317pf
p3495
I1
sVd8es573
p3496
I1
sVddy6dyj
p3497
I1
sVcyz6xxy
p3498
I1
sVcyrdoy9
p3499
I2
sVdgx17z0
p3500
I1
sVdi1693d
p3501
I1
sVdtfquql
p3502
I1
sVcz0mibt
p3503
I1
sVdfknb9f
p3504
I1
sVdgdhjrn
p3505
I1
sVd9n39bt
p3506
I2
sVda0rj4e
p3507
I1
sVda5uolw
p3508
I1
sVcym4h6s
p3509
I1
sVdcphm2m
p3510
I1
sVdnh1kzv
p3511
I1
sVd83slgy
p3512
I1
sVdn6fb1f
p3513
I1
sVd0ng8k2
p3514
I1
sVdbm4bow
p3515
I1
sVd520209
p3516
I1
sVdrcab7d
p3517
I1
sVdd4mimn
p3518
I1
sVdgoqxm9
p3519
I1
sVddnkcea
p3520
I1
sVd6wef1c
p3521
I1
sVd7fulky
p3522
I1
sVcz8nvow
p3523
I1
sVddwhu1l
p3524
I2
sVd44jj2g
p3525
I1
sVdkjogfq
p3526
I1
sVdrlypno
p3527
I1
sVdbh5qic
p3528
I1
sVd6by6u5
p3529
I1
sVd61ed36
p3530
I1
sVcynuck3
p3531
I1
sVd9ks1kb
p3532
I1
sVcyi3ks0
p3533
I1
sVd0tksy0
p3534
I1
sVcz24vc4
p3535
I2
sVdcay72n
p3536
I1
sVdo1uogj
p3537
I1
sVdroonma
p3538
I1
sVd3zvsi6
p3539
I1
sVd114ebt
p3540
I1
sVds7o4c9
p3541
I1
sVdblmfiv
p3542
I1
sVdmz6aq9
p3543
I1
sVd35fijr
p3544
I1
sVdilrv55
p3545
I1
sVd69coil
p3546
I1
sVcyouyht
p3547
I1
sVd3832rs
p3548
I1
sVd4wlro6
p3549
I1
sVdcqqabi
p3550
I1
sVdonexvq
p3551
I1
sVd9mm9xx
p3552
I1
sVdfo6tjw
p3553
I1
sVdrmaei5
p3554
I1
sVddzgu43
p3555
I1
sVdmvwosi
p3556
I1
sVd03t22n
p3557
I1
sVdachnp7
p3558
I1
sVdivqht2
p3559
I1
sVdipmmnu
p3560
I2
sVd6hzxse
p3561
I1
sVd1ya1i0
p3562
I1
sVd4e1erl
p3563
I1
sVdt7uy9i
p3564
I1
sVdmqleth
p3565
I1
sVde6e96d
p3566
I1
sVdjsp90l
p3567
I1
sVdqmpal5
p3568
I1
sVd4a2qte
p3569
I1
sVd68maen
p3570
I1
sVdfaylvi
p3571
I1
sVdrjzldc
p3572
I1
sVdikf8qs
p3573
I1
sVdcdmoqm
p3574
I1
sVdfd7lc1
p3575
I1
sVd3hyc1y
p3576
I1
sVdmvtu8j
p3577
I2
sVdmia4bs
p3578
I1
sVdklyu41
p3579
I1
sVdqiykyq
p3580
I1
sVd664ggz
p3581
I1
sVd072qmh
p3582
I1
sVdb6kynk
p3583
I1
sVdaqj0bk
p3584
I1
sVd0bq017
p3585
I1
sVddebha8
p3586
I1
sVd9gs1yx
p3587
I1
sVd5gelyb
p3588
I1
sVczx0ptv
p3589
I1
sVdpurcxn
p3590
I1
sVde1ja9m
p3591
I1
sVdci3ljn
p3592
I1
sVdaodryc
p3593
I1
sVd719lhv
p3594
I1
sVdb5bemt
p3595
I1
sVdej558j
p3596
I1
sVd1a9i76
p3597
I1
sVdnvohwq
p3598
I1
sVdd9puj0
p3599
I1
sVd272k7v
p3600
I1
sVdf38m7c
p3601
I1
sVd5e7oe3
p3602
I1
sVdhqoam1
p3603
I1
sVdggin0w
p3604
I1
sVdo9hgsg
p3605
I2
sVdgghapl
p3606
I1
sVdqwaqi0
p3607
I1
sVcz47mfj
p3608
I1
sVdczr6s2
p3609
I1
sVczpp36g
p3610
I1
sVcylo2uq
p3611
I1
sVdebr0ep
p3612
I1
sVd6l1jk3
p3613
I1
sVd3pf8ri
p3614
I1
sVdq2bbqu
p3615
I2
sVdctm1tz
p3616
I1
sVdbjgops
p3617
I1
sVd32qrx4
p3618
I1
sVd5ztflu
p3619
I1
sVdgcxos1
p3620
I1
sVd4thz1e
p3621
I1
sVczeafyd
p3622
I1
sVdhd1eco
p3623
I2
sVd0cdhfh
p3624
I1
sVd4a9ira
p3625
I1
sVdo91dm3
p3626
I1
sVd1rbrt8
p3627
I1
sVderkarf
p3628
I1
sVd1v98wz
p3629
I1
sVd7aygyf
p3630
I1
sVd1rz5o2
p3631
I1
sVd2luctr
p3632
I1
sVdn8j040
p3633
I1
sVdkvjxff
p3634
I1
sVdh5559m
p3635
I1
sVddb91rr
p3636
I1
sVdnh5mi1
p3637
I1
sVdb57xwh
p3638
I1
sVdqilqep
p3639
I1
sVcz2eb1p
p3640
I1
sVddfj0g8
p3641
I1
sVdg6c45p
p3642
I1
sVd0d3tcv
p3643
I1
sVdcjkta4
p3644
I1
sVdi2hqrf
p3645
I1
sVdfy85yr
p3646
I1
sVdrqh7n8
p3647
I1
sVdpy2guu
p3648
I1
sVdhtp6md
p3649
I1
sVd1jt0a0
p3650
I1
sVds7xdo5
p3651
I1
sVdbkqptx
p3652
I1
sVcyz1q0e
p3653
I1
sVd9r3s32
p3654
I2
sVd3e53wf
p3655
I2
sVdd93laj
p3656
I1
sVdnz2nv1
p3657
I1
sVd5xbly5
p3658
I1
sVdikdmyg
p3659
I1
sVdh5haej
p3660
I1
sVda35tn1
p3661
I1
sVd23bwby
p3662
I1
sVcyz9dkr
p3663
I1
sVd84bodr
p3664
I1
sVd26ydiv
p3665
I1
sVdfomqje
p3666
I1
sVdfjvkkh
p3667
I1
sVdpo8g78
p3668
I1
sVczrcuya
p3669
I2
sVdgljeaz
p3670
I1
sVd727g8a
p3671
I1
sVdcvook7
p3672
I1
sVdogjbh5
p3673
I1
sVdsu2lry
p3674
I1
sVdi8a17d
p3675
I1
sVd34dhxf
p3676
I1
sVdrmvz7r
p3677
I1
sVd890ufj
p3678
I1
sVd0w7o9m
p3679
I2
sVdtdkadz
p3680
I1
sVdf1vo7h
p3681
I1
sVd8xdfk6
p3682
I1
sVd4i8zrz
p3683
I1
sVd9houz0
p3684
I1
sVd6bodrw
p3685
I1
sVdn8ql82
p3686
I1
sVdaunfx8
p3687
I1
sVdqpkzan
p3688
I1
sVd0hry50
p3689
I1
sVd1xqy6f
p3690
I1
sVdik7hbm
p3691
I1
sVdgvnf7s
p3692
I1
sVddylkbi
p3693
I1
sVd42mq09
p3694
I1
sVd2w7bco
p3695
I1
sVdq5ro56
p3696
I1
sVd8euxra
p3697
I1
sVdmvgdrz
p3698
I1
sVdkm7zrl
p3699
I1
sVdhifajt
p3700
I1
sVde2fx01
p3701
I1
sVd1jspzo
p3702
I1
sVdnwg4p4
p3703
I1
sVd0rghx4
p3704
I1
sVdt9ppyi
p3705
I1
sVdt2a5qj
p3706
I1
sVdfvpjvf
p3707
I1
sVdhzqif9
p3708
I1
sVdco1sez
p3709
I1
sVdgg3c6r
p3710
I1
sVd8fhkkk
p3711
I2
sVdgjl3vt
p3712
I2
sVde57n0e
p3713
I1
sVd82ttz9
p3714
I1
sVd9vuknw
p3715
I1
sVd8yehkg
p3716
I1
sVdgqx207
p3717
I1
sVdgiqp4g
p3718
I1
sVd3lxtov
p3719
I1
sVdey391d
p3720
I1
sVdbieap9
p3721
I1
sVdfzauvc
p3722
I1
sVd3jo8vm
p3723
I1
sVdo22wlo
p3724
I1
sVdekguy3
p3725
I1
sVdfe23qh
p3726
I1
sVd4o8l6u
p3727
I1
sVdfjgd8k
p3728
I1
sVdekhvjj
p3729
I1
sVdqpffrv
p3730
I1
sVd7w203i
p3731
I1
sVdakqh89
p3732
I2
sVd27c7fh
p3733
I2
sVd4hn6ut
p3734
I2
sVdc4m9l3
p3735
I1
sVdrydltu
p3736
I1
sVdc4w2qx
p3737
I1
sVdb3w0fa
p3738
I1
sVdoe9hxq
p3739
I1
sVde8xddz
p3740
I1
sVd1r0lgz
p3741
I1
sVd7lomiw
p3742
I1
sVd2axqb5
p3743
I1
sVdggyu6h
p3744
I1
sVd7nuta0
p3745
I1
sVd7qli1w
p3746
I1
sVdd8bxlv
p3747
I1
sVd8b1y7n
p3748
I1
sVd47u1bu
p3749
I1
sVdr6vb2w
p3750
I1
sVddeiqmx
p3751
I1
sVdshoqid
p3752
I1
sVd986o7i
p3753
I1
sVd5cvv5f
p3754
I1
sVdr9t6ti
p3755
I1
sVdb5sbjt
p3756
I1
sVdc6082o
p3757
I1
sVdnislj7
p3758
I1
sVdta9q4v
p3759
I1
sVdei80cp
p3760
I1
sVd86csz2
p3761
I1
sVd2qaunl
p3762
I1
sVcz4yu4u
p3763
I1
sVd8qtvax
p3764
I1
sVczto1of
p3765
I1
sVcyref66
p3766
I1
sVdg6p3tr
p3767
I1
sVcyqvpak
p3768
I2
sVd8ip9gy
p3769
I1
sVdh39n0i
p3770
I1
sVdry8ys2
p3771
I1
sVd3duo4h
p3772
I1
sVdkrok5f
p3773
I1
sVd137727
p3774
I1
sVdh8db32
p3775
I1
sVdqhgzq5
p3776
I1
sVczyjtr5
p3777
I1
sVdkbio99
p3778
I1
sVdf5lwcf
p3779
I1
sVdnm459f
p3780
I1
sVd1vikp0
p3781
I1
sVczvnzw6
p3782
I1
sVdpt9g0e
p3783
I1
sVczey60o
p3784
I1
sVdq5jee1
p3785
I2
sVdccryu3
p3786
I1
sVdgchq50
p3787
I1
sVdeeo9du
p3788
I1
sVd8ws75t
p3789
I1
sVd0ikc4f
p3790
I1
sVdeiclef
p3791
I1
sVdcexens
p3792
I2
sVd4748yn
p3793
I1
sVdrv89vn
p3794
I1
sVdo2to5d
p3795
I1
sVdie2yek
p3796
I1
sVdfkajzx
p3797
I1
sVd38ffpp
p3798
I1
sVd97it7e
p3799
I1
sVd3nmxji
p3800
I1
sVd0ajr4r
p3801
I1
sVdejny0d
p3802
I1
sVdcdfiuw
p3803
I1
sVdbpsgnl
p3804
I1
sVddu72d3
p3805
I1
sVd89lg4j
p3806
I1
sVd00u08i
p3807
I1
sVdmxmfxt
p3808
I1
sVdfq4u2p
p3809
I1
sVcz7w88d
p3810
I1
sVd0tethr
p3811
I1
sVd2jqt1d
p3812
I1
sVdcuponw
p3813
I1
sVd8k1uuk
p3814
I1
sVcz3a4f7
p3815
I1
sVd5d1r3n
p3816
I1
sVd6czk3y
p3817
I1
sVd9g7c8l
p3818
I1
sVd9n4db9
p3819
I1
sVd07db9u
p3820
I1
sVd6sdsi3
p3821
I2
sVdfnhj1a
p3822
I1
sVdfbxgoa
p3823
I1
sVdt0i2bz
p3824
I2
sVd3udzwg
p3825
I1
sVdb8kx4t
p3826
I1
sVdmr3xut
p3827
I2
sVdd4gos9
p3828
I1
sVd1jyefx
p3829
I1
sVd099e1c
p3830
I1
sVdg5g2lx
p3831
I1
sVd48h192
p3832
I1
sVdrp8rqx
p3833
I2
sVdbikexs
p3834
I1
sVdhpteep
p3835
I1
sVdtdicve
p3836
I2
sVdrhbdrl
p3837
I2
sVdsd5xdq
p3838
I1
sVd79eh68
p3839
I1
sVdbep7ie
p3840
I1
sVdd59oz3
p3841
I1
sVddd2l7a
p3842
I1
sVdk4z4hz
p3843
I1
sVdfnj03x
p3844
I2
sVdduoq29
p3845
I1
sVdd68z2c
p3846
I1
sVd3ce68k
p3847
I1
sVd2yktoe
p3848
I1
sVdcw4fr3
p3849
I1
sVd45459n
p3850
I1
sVdr2cgtk
p3851
I1
sVde3vv1x
p3852
I1
sVdcromg7
p3853
I1
sVdpcr9fw
p3854
I1
sVdorn0hi
p3855
I1
sVd6h94mi
p3856
I1
sVd6mak1e
p3857
I1
sVd2945mz
p3858
I1
sVd85nvu0
p3859
I1
sVdsfx520
p3860
I1
sVdfrr1cl
p3861
I1
sVd06a3ov
p3862
I1
sVdk130b5
p3863
I1
sVdclfdeg
p3864
I1
sVdbnqzx4
p3865
I1
sVddk8oru
p3866
I1
sVd3jk4kf
p3867
I1
sVdhrklr9
p3868
I1
sVdisp9q3
p3869
I1
sVda0lo7g
p3870
I1
sVdjsqici
p3871
I2
sVdfwvqn9
p3872
I1
sVdbrdamz
p3873
I1
sVczzqhrn
p3874
I1
sVczzp9gv
p3875
I1
sVcz1jkeu
p3876
I1
sVczb4mz5
p3877
I1
sVde83cfe
p3878
I1
sVdbsfjx3
p3879
I1
sVczfc613
p3880
I1
sVdctlwyv
p3881
I1
sVd7xiagl
p3882
I1
sVd05wg8r
p3883
I1
sVd2nv46g
p3884
I1
sVd5mnhgj
p3885
I1
sVd55nejs
p3886
I1
sVdei0oq1
p3887
I1
sVdcuytdn
p3888
I1
sVd06c3dj
p3889
I1
sVdj3rqzl
p3890
I2
sVd2bcsjp
p3891
I1
sVcz8jytw
p3892
I1
sVd180rc2
p3893
I1
sVdixu1ws
p3894
I1
sVdijug8g
p3895
I1
sVdfsja0k
p3896
I1
sVd20isdy
p3897
I1
sVczom6qi
p3898
I1
sVdn58pyw
p3899
I1
sVd8i8w1s
p3900
I1
sVd0z7a0c
p3901
I1
sVd0zez3q
p3902
I1
sVd225ho7
p3903
I1
sVdn4il1v
p3904
I1
sVdbpzvta
p3905
I1
sVdiws6ig
p3906
I1
sVditjroi
p3907
I1
sVdj3fjik
p3908
I1
sVdab6yzr
p3909
I1
sVdrd8sjx
p3910
I1
sVd28riot
p3911
I1
sVd61h6xi
p3912
I1
sVdnxx0vs
p3913
I1
sVdicfcg3
p3914
I1
sVd48uvqc
p3915
I1
sVd3rb9bl
p3916
I1
sVd4ifxvd
p3917
I1
sVd2f3bqu
p3918
I1
sVdo08dw7
p3919
I1
sVd2utult
p3920
I1
sVdj26q83
p3921
I1
sVdgzcozm
p3922
I1
sVdahhnsj
p3923
I1
sVd79fizp
p3924
I1
sVd6yn3sm
p3925
I1
sVd3l7zrw
p3926
I1
sVdi2pqg6
p3927
I2
sVdasa9p8
p3928
I1
sVdsq6h01
p3929
I1
sVdi9ftkg
p3930
I1
sVd85us5z
p3931
I2
sVdf8hb1w
p3932
I1
sVd8ndsdw
p3933
I1
sVd6m2ilx
p3934
I1
sVdfc4j08
p3935
I1
sVd9onpyg
p3936
I1
sVd06xqo5
p3937
I1
sVdjt6820
p3938
I1
sVdo2ru17
p3939
I1
sVd29i6s5
p3940
I1
sVde7pfeu
p3941
I1
sVd7tmjbq
p3942
I3
sVd2qz7tr
p3943
I1
sVcz79dwo
p3944
I1
sVdo7bgg3
p3945
I1
sVds6i2dk
p3946
I1
sVd3ccyw5
p3947
I1
sVcyyh8h5
p3948
I1
sVdf6grl3
p3949
I1
sVd9t619p
p3950
I1
sVdgqyj4k
p3951
I1
sVd701p7r
p3952
I1
sVdhn0oao
p3953
I1
sVd1zxlur
p3954
I1
sVd7hphqr
p3955
I1
sVd5ar8zg
p3956
I6
sVdix50lh
p3957
I1
sVd7p1sdt
p3958
I1
sVd33gy8n
p3959
I1
sVdqvhh0v
p3960
I2
sVdgqwub0
p3961
I1
sVd19s4v5
p3962
I1
sVdsgspgs
p3963
I1
sVczgv7hl
p3964
I1
sVcynoh9q
p3965
I1
sVdq1ses9
p3966
I1
sVdbie09h
p3967
I1
sVczehrho
p3968
I1
sVd65d9iq
p3969
I1
sVdd6axyy
p3970
I1
sVd4hzmbj
p3971
I1
sVdqmo6u7
p3972
I1
sVdnkz4kp
p3973
I1
sVd79xvpc
p3974
I1
sVdr4a1il
p3975
I1
sVdavajbs
p3976
I1
sVd9vuz0p
p3977
I1
sVd98w314
p3978
I1
sVd0tujtr
p3979
I1
sVd290x89
p3980
I1
sVd01r2a3
p3981
I1
sVdat85vd
p3982
I1
sVdgwj5pc
p3983
I1
sVd87eliz
p3984
I1
sVdsowley
p3985
I1
sVde6g8tb
p3986
I2
sVd5581mu
p3987
I1
sVd8ce5fx
p3988
I1
sVd1t5mc2
p3989
I1
sVdokuy2g
p3990
I1
sVd3e1tfb
p3991
I1
sVd0i2vjr
p3992
I1
sVcz3waz2
p3993
I1
sVd30fwah
p3994
I1
sVd4c34cs
p3995
I1
sVd3mhy03
p3996
I1
sVdbe4qil
p3997
I1
sVdk65bb8
p3998
I1
sVd0lkxrd
p3999
I1
sVde4w7rl
p4000
I1
sVda615d2
p4001
I1
sVd38df5c
p4002
I1
sVdbku4t3
p4003
I1
sVd0nymuf
p4004
I1
sVdhfc822
p4005
I1
sVd8j1jo2
p4006
I1
sVd59sbs7
p4007
I1
sVd61i49i
p4008
I1
sVdcm5mw5
p4009
I1
sVdkglzox
p4010
I1
sVd4x6ubv
p4011
I1
sVd7ogmcu
p4012
I1
sVd1gg3iw
p4013
I1
sVd2oateq
p4014
I1
sVddcp2j0
p4015
I1
sVd0xs98a
p4016
I1
sVdjf7vlx
p4017
I1
sVczgzqu0
p4018
I1
sVdhim3oq
p4019
I1
sVdf0ltbp
p4020
I1
sVdgz9fgw
p4021
I1
sVdic9ewh
p4022
I1
sVd7s3lgs
p4023
I1
sVdj8zvym
p4024
I1
sVdgq8ccy
p4025
I1
sVdfyi6ze
p4026
I1
sVd6effc2
p4027
I1
sVdrbsci0
p4028
I1
sVd0j3jxy
p4029
I3
sVdd5bezj
p4030
I1
sVd631xj9
p4031
I1
sVd8jd6nd
p4032
I1
sVdft3ti1
p4033
I2
sVdkkdg8x
p4034
I1
sVd705jvf
p4035
I1
sVd8m11qw
p4036
I1
sVdda0l00
p4037
I1
sVdniijmt
p4038
I1
sVd6psbg3
p4039
I1
sVd9a1v1i
p4040
I1
sVd8mcobn
p4041
I1
sVdgvwz0j
p4042
I2
sVd1ksy34
p4043
I1
sVdemmxmi
p4044
I1
sVd78o93j
p4045
I1
sVdjhx9m1
p4046
I1
sVd0hveuu
p4047
I1
sVdd5gnsk
p4048
I1
sVcywd7ud
p4049
I1
sVd151xi4
p4050
I1
sVda0uxrw
p4051
I1
sVdhsogl5
p4052
I1
sVddhus9p
p4053
I1
sVdj4d63b
p4054
I2
sVd5rqf0l
p4055
I1
sVdhict0s
p4056
I1
sVczmgrne
p4057
I1
sVdkrz2zf
p4058
I1
sVdrk7v7x
p4059
I1
sVd1nbnpp
p4060
I1
sVdpw2hs4
p4061
I1
sVdfdt99n
p4062
I1
sVdn6ezm9
p4063
I1
sVdmjqsgr
p4064
I1
s.