(dp0
Vcyjqavs
p1
I1
s.(dp0
Vcyjqavs
p1
I1
sVcyjv5pm
p2
I1
s.(dp0
Vcyjqavs
p1
I1
sVcyk0180
p2
I1
s.(dp0
Vcyjqavs
p1
I1
sVcykidi4
p2
I1
s.(dp0
Vcyjqavs
p1
I1
sVcykn51n
p2
I1
s.(dp0
Vcyjqavs
p1
I1
sVcylwnvm
p2
I1
s.(dp0
Vcyjqavs
p1
I1
sVcylwnvm
p2
I1
s.(dp0
Vcyjqavs
p1
I1
sVcymzar5
p2
I1
s.(dp0
Vcyom6yf
p1
I1
sVcyjqavs
p2
I1
s.(dp0
Vcyjqavs
p1
I1
sVcypsu7b
p2
I1
s.(dp0
Vcyqupx4
p1
I1
sVcyjqavs
p2
I1
s.(dp0
Vcytlt60
p1
I1
sVcyjqavs
p2
I1
s.(dp0
Vcyjqavs
p1
I1
sVcytwm6r
p2
I1
s.(dp0
Vcyjqavs
p1
I1
sVcyv2g6y
p2
I1
s.(dp0
Vcyjqavs
p1
I1
sVcyv2g6y
p2
I1
s.(dp0
Vcyjqavs
p1
I1
sVcyv8vgx
p2
I1
s.(dp0
Vcyw3g03
p1
I1
sVcyjqavs
p2
I1
s.(dp0
Vcyjqavs
p1
I1
sVcywhxsh
p2
I1
s.(dp0
Vcyjqavs
p1
I1
sVcywtdoo
p2
I1
s.(dp0
Vcyjqavs
p1
I1
sVcyxalrd
p2
I1
s.(dp0
Vcyjqavs
p1
I1
sVcyxalrd
p2
I1
s.(dp0
Vcyjqavs
p1
I1
sVcyxx6x4
p2
I1
s.(dp0
Vcyjqavs
p1
I1
sVcyyaa3n
p2
I1
s.(dp0
Vcz05tpx
p1
I1
sVcyjqavs
p2
I1
s.(dp0
Vcyjqavs
p1
I1
sVcz0b3t7
p2
I1
s.(dp0
Vcz0sqbt
p1
I1
sVcyjqavs
p2
I1
s.(dp0
Vcyjqavs
p1
I1
sVcz146nc
p2
I1
s.(dp0
Vcz15pqk
p1
I1
sVcyjqavs
p2
I1
s.(dp0
Vcyjqavs
p1
I1
sVcz1e95g
p2
I1
s.(dp0
Vcz1nqhu
p1
I1
sVcyjqavs
p2
I1
s.(dp0
Vcyjqavs
p1
I1
sVcz5caco
p2
I1
s.(dp0
Vcyjqavs
p1
I1
sVcz5geiw
p2
I1
s.(dp0
Vcyjqavs
p1
I1
sVcz6ant2
p2
I1
s.(dp0
Vcyjqavs
p1
I1
sVcz6ant2
p2
I1
s.(dp0
Vcyjqavs
p1
I1
sVcz6is65
p2
I1
s.(dp0
Vcz6m3qo
p1
I1
sVcyjqavs
p2
I1
s.(dp0
Vcyjqavs
p1
I1
sVcz6zwhy
p2
I1
s.(dp0
Vcyjqavs
p1
I1
sVcz8tdg1
p2
I1
s.(dp0
Vcz9hplz
p1
I1
sVcyjqavs
p2
I1
s.(dp0
Vcz9vurj
p1
I1
sVcyjqavs
p2
I1
s.(dp0
Vcyjqavs
p1
I1
sVczabxum
p2
I1
s.(dp0
Vcyjqavs
p1
I1
sVczavuyd
p2
I1
s.(dp0
Vcze0dso
p1
I1
sVcyjqavs
p2
I1
s.(dp0
Vcyjqavs
p1
I1
sVczevsun
p2
I1
s.(dp0
Vcyjqavs
p1
I1
sVczevsun
p2
I1
s.(dp0
Vczfd254
p1
I1
sVcyjqavs
p2
I1
s.(dp0
Vczfd254
p1
I1
sVcyjqavs
p2
I1
s.(dp0
Vcyjqavs
p1
I1
sVczgk7zo
p2
I1
s.(dp0
Vczgle9z
p1
I1
sVcyjqavs
p2
I1
s.(dp0
Vcyjqavs
p1
I1
sVczgq7ob
p2
I1
s.(dp0
Vcyjqavs
p1
I1
sVczgrk3w
p2
I1
s.(dp0
Vczgteic
p1
I1
sVcyjqavs
p2
I1
s.(dp0
Vcyjqavs
p1
I1
sVczh01mf
p2
I1
s.(dp0
Vcyjqavs
p1
I1
sVczhq4v5
p2
I1
s.(dp0
Vczidxvp
p1
I1
sVcyjqavs
p2
I1
s.(dp0
Vcyjqavs
p1
I1
sVczih2wy
p2
I1
s.(dp0
Vcyjqavs
p1
I1
sVczinktt
p2
I1
s.(dp0
Vcyjqavs
p1
I1
sVczinvsm
p2
I1
s.(dp0
Vczkayj5
p1
I1
sVcyjqavs
p2
I1
s.(dp0
Vczksu3x
p1
I1
sVcyjqavs
p2
I1
s.(dp0
Vcyjqavs
p1
I1
sVczl3zvv
p2
I1
s.(dp0
Vcyjqavs
p1
I1
sVczlr3nz
p2
I1
s.(dp0
Vcyjqavs
p1
I1
sVczlurij
p2
I1
s.(dp0
Vcyjqavs
p1
I1
sVczmc505
p2
I1
s.(dp0
Vczmfi09
p1
I1
sVcyjqavs
p2
I1
s.(dp0
Vcyjqavs
p1
I1
sVcznufuf
p2
I1
s.(dp0
Vcyjqavs
p1
I1
sVczqtea5
p2
I1
s.(dp0
Vcyjqavs
p1
I1
sVczro0uh
p2
I1
s.(dp0
Vcyjqavs
p1
I1
sVcztzb92
p2
I1
s.(dp0
Vcyjqavs
p1
I1
sVczu0vv4
p2
I1
s.(dp0
Vczudrq2
p1
I1
sVcyjqavs
p2
I1
s.(dp0
Vcyjqavs
p1
I1
sVczviqbr
p2
I1
s.(dp0
Vcyjqavs
p1
I1
sVczviqbr
p2
I1
s.(dp0
Vcyjqavs
p1
I1
sVczvkb0h
p2
I1
s.(dp0
Vcyjqavs
p1
I1
sVczxhfdk
p2
I1
s.(dp0
Vcyjqavs
p1
I1
sVczxqehz
p2
I1
s.(dp0
Vcyjqavs
p1
I1
sVczxxgpd
p2
I1
s.(dp0
Vcyjqavs
p1
I1
sVczxxgpd
p2
I1
s.(dp0
Vcyjqavs
p1
I1
sVczxxgpd
p2
I1
s.(dp0
Vcyjqavs
p1
I1
sVczxxgpd
p2
I1
s.(dp0
Vcyjqavs
p1
I1
sVczy7sm1
p2
I1
s.(dp0
Vcyjqavs
p1
I1
sVczyhn7c
p2
I1
s.(dp0
Vcyjqavs
p1
I1
sVczyq9c4
p2
I1
s.(dp0
Vcyjqavs
p1
I1
sVczyq9c4
p2
I1
s.(dp0
Vcyjqavs
p1
I1
sVczyq9c4
p2
I1
s.(dp0
Vczz08es
p1
I1
sVcyjqavs
p2
I1
s.(dp0
Vczzhjsg
p1
I1
sVcyjqavs
p2
I1
s.(dp0
Vd000evx
p1
I1
sVcyjqavs
p2
I1
s.(dp0
Vd000evx
p1
I1
sVcyjqavs
p2
I1
s.(dp0
Vcyjqavs
p1
I1
sVd0066xp
p2
I1
s.(dp0
Vcyjqavs
p1
I1
sVd00mgi6
p2
I1
s.(dp0
Vd011l52
p1
I1
sVcyjqavs
p2
I1
s.(dp0
Vcyjqavs
p1
I1
sVd0178rr
p2
I1
s.(dp0
Vcyjqavs
p1
I1
sVd020utw
p2
I1
s.(dp0
Vd028r90
p1
I1
sVcyjqavs
p2
I1
s.(dp0
Vd02hi5v
p1
I1
sVcyjqavs
p2
I1
s.(dp0
Vcyjqavs
p1
I1
sVd02ubui
p2
I1
s.(dp0
Vcyjqavs
p1
I1
sVd030mob
p2
I1
s.(dp0
Vcyjqavs
p1
I1
sVd031us5
p2
I1
s.(dp0
Vcyjqavs
p1
I1
sVd034fe4
p2
I1
s.(dp0
Vcyjqavs
p1
I1
sVd04abqm
p2
I1
s.(dp0
Vcyjqavs
p1
I1
sVd04t3bd
p2
I1
s.(dp0
Vcyjqavs
p1
I1
sVd05dpap
p2
I1
s.(dp0
Vd060sbm
p1
I1
sVcyjqavs
p2
I1
s.(dp0
Vcyjqavs
p1
I1
sVd065b0z
p2
I1
s.(dp0
Vcyjqavs
p1
I1
sVd065b0z
p2
I1
s.(dp0
Vcyjqavs
p1
I1
sVd065b0z
p2
I1
s.(dp0
Vcyjqavs
p1
I1
sVd0787nk
p2
I1
s.(dp0
Vcy(dp0
Vcyjqavs
p1
I1
sVdtiqkq9
p2
I1
s.