(dp0
Vcyl65d1
p1
I1
s.(dp0
Vcyl65d1
p1
I1
sVcylgrfc
p2
I1
s.(dp0
Vcyl65d1
p1
I1
sVcymml47
p2
I1
s.(dp0
Vcyl65d1
p1
I1
sVcymml47
p2
I1
s.(dp0
Vcyl65d1
p1
I1
sVcypr2mq
p2
I1
s.(dp0
Vcyl65d1
p1
I1
sVczlyd6t
p2
I1
s.(dp0
Vcyl65d1
p1
I1
sVczlyd6t
p2
I1
s.(dp0
Vd06k5vg
p1
I1
sVcyl65d1
p2
I1
s.(dp0
Vcyl65d1
p1
I1
sVd0941kj
p2
I1
s.(dp0
Vcyl65d1
p1
I1
sVd09fxwg
p2
I1
s.(dp0
Vcyl65d1
p1
I1
sVd0exsb9
p2
I1
s.(dp0
Vcyl65d1
p1
I1
sVd0gdz1i
p2
I1
s.(dp0
Vcyl65d1
p1
I1
sVd0i1vro
p2
I1
s.(dp0
Vcyl65d1
p1
I1
sVd0upupt
p2
I1
s.(dp0
Vcyl65d1
p1
I1
sVd18sx98
p2
I1
s.(dp0
Vcyl65d1
p1
I1
sVd1y7y4l
p2
I1
s.(dp0
Vd24h8j7
p1
I1
sVcyl65d1
p2
I1
s.(dp0
Vcyl65d1
p1
I1
sVd2b3z6n
p2
I1
s.(dp0
Vcyl65d1
p1
I1
sVd2ggf8p
p2
I1
s.(dp0
Vcyl65d1
p1
I1
sVd2z1ro7
p2
I1
s.(dp0
Vcyl65d1
p1
I1
sVd2z1ro7
p2
I1
s.(dp0
Vcyl65d1
p1
I1
sVd380n0q
p2
I1
s.(dp0
Vcyl65d1
p1
I1
sVd39hooi
p2
I1
s.(dp0
Vcyl65d1
p1
I1
sVd3gd99u
p2
I1
s.(dp0
Vcyl65d1
p1
I1
sVd3u66tk
p2
I1
s.(dp0
Vcyl65d1
p1
I1
sVd437q91
p2
I1
s.(dp0
Vd48e4rf
p1
I1
sVcyl65d1
p2
I1
s.(dp0
Vcyl65d1
p1
I1
sVd4jg59e
p2
I1
s.(dp0
Vcyl65d1
p1
I1
sVd4kr62i
p2
I1
s.(dp0
Vd4lgqz9
p1
I1
sVcyl65d1
p2
I1
s.(dp0
Vcyl65d1
p1
I1
sVd56fquq
p2
I1
s.(dp0
Vcyl65d1
p1
I1
sVd59lf9a
p2
I1
s.(dp0
Vcyl65d1
p1
I1
sVd5asq71
p2
I1
s.(dp0
Vcyl65d1
p1
I1
sVd5du0xi
p2
I1
s.(dp0
Vd5ucfcs
p1
I1
sVcyl65d1
p2
I1
s.(dp0
Vd614930
p1
I1
sVcyl65d1
p2
I1
s.(dp0
Vcyl65d1
p1
I1
sVd6b2ok7
p2
I1
s.(dp0
Vcyl65d1
p1
I1
sVd6md4w4
p2
I1
s.(dp0
Vcyl65d1
p1
I1
sVd6qiuji
p2
I1
s.(dp0
Vcyl65d1
p1
I1
sVd6zck0t
p2
I1
s.(dp0
Vcyl65d1
p1
I1
sVd7mgm3m
p2
I1
s.(dp0
Vcyl65d1
p1
I1
sVd7oy35q
p2
I1
s.(dp0
Vcyl65d1
p1
I1
sVd7s4eiu
p2
I1
s.(dp0
Vcyl65d1
p1
I1
sVd85uj8d
p2
I1
s.(dp0
Vcyl65d1
p1
I1
sVd89gnh6
p2
I1
s.(dp0
Vcyl65d1
p1
I1
sVd8cp43c
p2
I1
s.(dp0
Vcyl65d1
p1
I1
sVd8jyaxn
p2
I1
s.(dp0
Vcyl65d1
p1
I1
sVd8onl2j
p2
I1
s.(dp0
Vcyl65d1
p1
I1
sVd8wff79
p2
I1
s.(dp0
Vcyl65d1
p1
I1
sVd9h52tg
p2
I1
s.(dp0
Vcyl65d1
p1
I1
sVd9h52tg
p2
I1
s.(dp0
Vcyl65d1
p1
I1
sVd9kh2ws
p2
I1
s.(dp0
Vcyl65d1
p1
I1
sVda12y6n
p2
I1
s.(dp0
Vcyl65d1
p1
I1
sVda160fw
p2
I1
s.(dp0
Vcyl65d1
p1
I1
sVda6t06s
p2
I1
s.(dp0
Vcyl65d1
p1
I1
sVdadk6k0
p2
I1
s.(dp0
Vcyl65d1
p1
I1
sVdaeeqap
p2
I1
s.(dp0
Vdb60bkd
p1
I1
sVcyl65d1
p2
I1
s.(dp0
Vcyl65d1
p1
I1
sVdbc77rm
p2
I1
s.(dp0
Vcyl65d1
p1
I1
sVdbum367
p2
I1
s.(dp0
Vcyl65d1
p1
I1
sVdbyqr87
p2
I1
s.(dp0
Vcyl65d1
p1
I1
sVdc41nj2
p2
I1
s.(dp0
Vcyl65d1
p1
I1
sVdciqh6e
p2
I1
s.(dp0
Vcyl65d1
p1
I1
sVdd3u0r2
p2
I1
s.(dp0
Vcyl65d1
p1
I1
sVdd8dvf5
p2
I1
s.(dp0
Vcyl65d1
p1
I1
sVddbrm9u
p2
I1
s.(dp0
Vcyl65d1
p1
I1
sVddp517s
p2
I1
s.(dp0
Vcyl65d1
p1
I1
sVde0ktf8
p2
I1
s.(dp0
Vcyl65d1
p1
I1
sVde69hx3
p2
I1
s.(dp0
Vcyl65d1
p1
I1
sVde69hx3
p2
I1
s.(dp0
Vde70npu
p1
I1
sVcyl65d1
p2
I1
s.(dp0
Vcyl65d1
p1
I1
sVded15j5
p2
I1
s.(dp0
Vcyl65d1
p1
I1
sVdeexst0
p2
I1
s.(dp0
Vcyl65d1
p1
I1
sVdej1g9u
p2
I1
s.(dp0
Vcyl65d1
p1
I1
sVdev8td1
p2
I1
s.(dp0
Vcyl65d1
p1
I1
sVdexyl9j
p2
I1
s.(dp0
Vcyl65d1
p1
I1
sVdf1dpd9
p2
I1
s.(dp0
Vcyl65d1
p1
I1
sVdf1xcin
p2
I1
s.(dp0
Vcyl65d1
p1
I1
sVdf4f8u2
p2
I1
s.(dp0
Vcyl65d1
p1
I1
sVdfs483n
p2
I1
s.(dp0
Vcyl65d1
p1
I1
sVdfxpbmb
p2
I1
s.(dp0
Vdg9jfjy
p1
I1
sVcyl65d1
p2
I1
s.(dp0
Vcyl65d1
p1
I1
sVdguoggq
p2
I1
s.(dp0
Vcyl65d1
p1
I1
sVdh2bu1w
p2
I1
s.(dp0
Vcyl65d1
p1
I1
sVdh6we0c
p2
I1
s.(dp0
Vdh7kw4b
p1
I1
sVcyl65d1
p2
I1
s.(dp0
Vdh84xb1
p1
I1
sVcyl65d1
p2
I1
s.(dp0
Vdh84xb1
p1
I1
sVcyl65d1
p2
I1
s.(dp0
Vcyl65d1
p1
I1
sVdh9x8b7
p2
I1
s.(dp0
Vcyl65d1
p1
I1
sVdi5kn8t
p2
I1
s.(dp0
Vcyl65d1
p1
I1
sVdiq279d
p2
I1
s.(dp0
Vdj1zltv
p1
I1
sVcyl65d1
p2
I1
s.(dp0
Vcyl65d1
p1
I1
sVdjev69p
p2
I1
s.(dp0
Vcyl65d1
p1
I1
sVdjrosvx
p2
I1
s.(dp0
Vcyl65d1
p1
I1
sVdkmupx4
p2
I1
s.(dp0
Vcyl65d1
p1
I1
sVdkyklao
p2
I1
s.(dp0
Vcyl65d1
p1
I1
sVdmet2iv
p2
I1
s.(dp0
Vcyl65d1
p1
I1
sVdml3k4y
p2
I1
s.(dp0
Vcyl65d1
p1
I1
sVdmqcppw
p2
I1
s.(dp0
Vcyl65d1
p1
I1
sVdn1o3sl
p2
I1
s.(dp0
Vcyl65d1
p1
I1
sVdn1o3sl
p2
I1
s.(dp0
Vcyl65d1
p1
I1
sVdn5hww3
p2
I1
s.(dp0
Vcyl65d1
p1
I1
sVdncjcvr
p2
I1
s.(dp0
Vcyl65d1
p1
I1
sVdnrclgv
p2
I1
s.(dp0
Vcyl65d1
p1
I1
sVdnrcnqd
p2
I1
s.(dp0
Vcyl65d1
p1
I1
sVdnxg949
p2
I1
s.(dp0
Vcyl65d1
p1
I1
sVdrlw7lg
p2
I1
s.(dp0
Vcyl65d1
p1
I1
sVdrv2pww
p2
I1
s.(dp0
Vcy(dp0
Vcyl65d1
p1
I1
sVdt8fcyp
p2
I1
s.