(dp0
Vcyi0jgc
p1
I1
s.(dp0
Vcyi83uc
p1
I1
sVcyi0jgc
p2
I1
s.(dp0
Vcyidiev
p1
I1
sVcyi0jgc
p2
I1
s.(dp0
Vcyinu3t
p1
I1
sVcyi0jgc
p2
I1
s.(dp0
Vcyinu3t
p1
I1
sVcyi0jgc
p2
I1
s.(dp0
Vcyinu3t
p1
I1
sVcyi0jgc
p2
I1
s.(dp0
Vcyk6ft5
p1
I1
sVcyi0jgc
p2
I1
s.(dp0
Vcyklb17
p1
I1
sVcyi0jgc
p2
I1
s.(dp0
Vcykyrkl
p1
I1
sVcyi0jgc
p2
I1
s.(dp0
Vcyi0jgc
p1
I1
sVcyljody
p2
I1
s.(dp0
Vcymf4wl
p1
I1
sVcyi0jgc
p2
I1
s.(dp0
Vcymf4wl
p1
I1
sVcyi0jgc
p2
I1
s.(dp0
Vcyni7wf
p1
I1
sVcyi0jgc
p2
I1
s.(dp0
Vcyni7wf
p1
I1
sVcyi0jgc
p2
I1
s.(dp0
Vcyi0jgc
p1
I1
sVcyp71bj
p2
I1
s.(dp0
Vcyrunnh
p1
I1
sVcyi0jgc
p2
I1
s.(dp0
Vcysxdl1
p1
I1
sVcyi0jgc
p2
I1
s.(dp0
Vcysxjhs
p1
I1
sVcyi0jgc
p2
I1
s.(dp0
Vcysxjhs
p1
I1
sVcyi0jgc
p2
I1
s.(dp0
Vcysxjhs
p1
I1
sVcyi0jgc
p2
I1
s.(dp0
Vcyt0nig
p1
I1
sVcyi0jgc
p2
I1
s.(dp0
Vcytu7sg
p1
I1
sVcyi0jgc
p2
I1
s.(dp0
Vcyukf9l
p1
I1
sVcyi0jgc
p2
I1
s.(dp0
Vcywo55c
p1
I1
sVcyi0jgc
p2
I1
s.(dp0
Vcyzs442
p1
I1
sVcyi0jgc
p2
I1
s.(dp0
Vcz2w8ul
p1
I1
sVcyi0jgc
p2
I1
s.(dp0
Vcz2zvto
p1
I1
sVcyi0jgc
p2
I1
s.(dp0
Vcz5a56b
p1
I1
sVcyi0jgc
p2
I1
s.(dp0
Vcz5aoc3
p1
I1
sVcyi0jgc
p2
I1
s.(dp0
Vcz5btqr
p1
I1
sVcyi0jgc
p2
I1
s.(dp0
Vcz5d9ze
p1
I1
sVcyi0jgc
p2
I1
s.(dp0
Vcz8a79i
p1
I1
sVcyi0jgc
p2
I1
s.(dp0
Vcyi0jgc
p1
I1
sVcz92i07
p2
I1
s.(dp0
Vcz9iqiy
p1
I1
sVcyi0jgc
p2
I1
s.(dp0
Vcz9p2hs
p1
I1
sVcyi0jgc
p2
I1
s.(dp0
Vcz9qdeq
p1
I1
sVcyi0jgc
p2
I1
s.(dp0
Vcz9qdeq
p1
I1
sVcyi0jgc
p2
I1
s.(dp0
Vcz9xjvs
p1
I1
sVcyi0jgc
p2
I1
s.(dp0
Vcz9xjvs
p1
I1
sVcyi0jgc
p2
I1
s.(dp0
Vczbwzep
p1
I1
sVcyi0jgc
p2
I1
s.(dp0
Vczcoie7
p1
I1
sVcyi0jgc
p2
I1
s.(dp0
Vczdisc4
p1
I1
sVcyi0jgc
p2
I1
s.(dp0
Vczdwudz
p1
I1
sVcyi0jgc
p2
I1
s.(dp0
Vcyi0jgc
p1
I1
sVczfxoky
p2
I1
s.(dp0
Vcyi0jgc
p1
I1
sVczfxoky
p2
I1
s.(dp0
Vczg5xr6
p1
I1
sVcyi0jgc
p2
I1
s.(dp0
Vczgffc5
p1
I1
sVcyi0jgc
p2
I1
s.(dp0
Vczgn0ox
p1
I1
sVcyi0jgc
p2
I1
s.(dp0
Vczh3f8y
p1
I1
sVcyi0jgc
p2
I1
s.(dp0
Vczhn0cu
p1
I1
sVcyi0jgc
p2
I1
s.(dp0
Vczjcxda
p1
I1
sVcyi0jgc
p2
I1
s.(dp0
Vczjcxda
p1
I1
sVcyi0jgc
p2
I1
s.(dp0
Vczjdpap
p1
I1
sVcyi0jgc
p2
I1
s.(dp0
Vczjdpap
p1
I1
sVcyi0jgc
p2
I1
s.(dp0
Vczjnqii
p1
I1
sVcyi0jgc
p2
I1
s.(dp0
Vcyi0jgc
p1
I1
sVczjwxbl
p2
I1
s.(dp0
Vczk1xh2
p1
I1
sVcyi0jgc
p2
I1
s.(dp0
Vczk2tlv
p1
I1
sVcyi0jgc
p2
I1
s.(dp0
Vczk9ak6
p1
I1
sVcyi0jgc
p2
I1
s.(dp0
Vczkhoos
p1
I1
sVcyi0jgc
p2
I1
s.(dp0
Vczky2o5
p1
I1
sVcyi0jgc
p2
I1
s.(dp0
Vczldo17
p1
I1
sVcyi0jgc
p2
I1
s.(dp0
Vczlstul
p1
I1
sVcyi0jgc
p2
I1
s.(dp0
Vczms1kp
p1
I1
sVcyi0jgc
p2
I1
s.(dp0
Vczoqaos
p1
I1
sVcyi0jgc
p2
I1
s.(dp0
Vczpcp71
p1
I1
sVcyi0jgc
p2
I1
s.(dp0
Vczqcv4h
p1
I1
sVcyi0jgc
p2
I1
s.(dp0
Vczqvoai
p1
I1
sVcyi0jgc
p2
I1
s.(dp0
Vczudoxz
p1
I1
sVcyi0jgc
p2
I1
s.(dp0
Vczymwwa
p1
I1
sVcyi0jgc
p2
I1
s.(dp0
Vczzh2st
p1
I1
sVcyi0jgc
p2
I1
s.(dp0
Vcyi0jgc
p1
I1
sVd008ft6
p2
I1
s.(dp0
Vd00rcko
p1
I1
sVcyi0jgc
p2
I1
s.(dp0
Vd00sdam
p1
I1
sVcyi0jgc
p2
I1
s.(dp0
Vd00xzfm
p1
I1
sVcyi0jgc
p2
I1
s.(dp0
Vd01rofa
p1
I1
sVcyi0jgc
p2
I1
s.(dp0
Vcyi0jgc
p1
I1
sVd02gowu
p2
I1
s.(dp0
Vd043ylo
p1
I1
sVcyi0jgc
p2
I1
s.(dp0
Vd043ylo
p1
I1
sVcyi0jgc
p2
I1
s.(dp0
Vd043ylo
p1
I1
sVcyi0jgc
p2
I1
s.(dp0
Vd043ylo
p1
I1
sVcyi0jgc
p2
I1
s.(dp0
Vd043ylo
p1
I1
sVcyi0jgc
p2
I1
s.(dp0
Vd04sn86
p1
I1
sVcyi0jgc
p2
I1
s.(dp0
Vd04z3fm
p1
I1
sVcyi0jgc
p2
I1
s.(dp0
Vd04z3fm
p1
I1
sVcyi0jgc
p2
I1
s.(dp0
Vd07362w
p1
I1
sVcyi0jgc
p2
I1
s.(dp0
Vd08bzqb
p1
I1
sVcyi0jgc
p2
I1
s.(dp0
Vd0bq36z
p1
I1
sVcyi0jgc
p2
I1
s.(dp0
Vd0bsyuz
p1
I1
sVcyi0jgc
p2
I1
s.(dp0
Vd0c2ads
p1
I1
sVcyi0jgc
p2
I1
s.(dp0
Vcyi0jgc
p1
I1
sVd0eh06o
p2
I1
s.(dp0
Vd0ijnbq
p1
I1
sVcyi0jgc
p2
I1
s.(dp0
Vcyi0jgc
p1
I1
sVd0jq4ij
p2
I1
s.(dp0
Vd0mduea
p1
I1
sVcyi0jgc
p2
I1
s.(dp0
Vcyi0jgc
p1
I1
sVd0melvl
p2
I1
s.(dp0
Vd0pdm6x
p1
I1
sVcyi0jgc
p2
I1
s.(dp0
Vd0pdm6x
p1
I1
sVcyi0jgc
p2
I1
s.(dp0
Vd0q5l07
p1
I1
sVcyi0jgc
p2
I1
s.(dp0
Vd0tyjss
p1
I1
sVcyi0jgc
p2
I1
s.(dp0
Vd0tze3y
p1
I1
sVcyi0jgc
p2
I1
s.(dp0
Vd0u01zk
p1
I1
sVcyi0jgc
p2
I1
s.(dp0
Vd0wq0j5
p1
I1
sVcyi0jgc
p2
I1
s.(dp0
Vd0wtgu5
p1
I1
sVcyi0jgc
p2
I1
s.(dp0
Vd0xyuz0
p1
I1
sVcyi0jgc
p2
I1
s.(dp0
Vd116wwi
p1
I1
sVcyi0jgc
p2
I1
s.(dp0
Vcyi0jgc
p1
I1
sVd125sh5
p2
I1
s.(dp0
Vd12fma7
p1
I1
sVcyi0jgc
p2
I1
s.(dp0
Vd12fma7
p1
I1
sVcyi0jgc
p2
I1
s.(dp0
Vd1(dp0
Vdtj19y9
p1
I1
sVcyi0jgc
p2
I1
s.