(dp0
Vd1ksykj
p1
I1
sVdcxuy1k
p2
I1
sVd35tn9q
p3
I1
sVd0qxhu4
p4
I1
sVdsvfizk
p5
I1
sVd3lhsim
p6
I1
sVdcrlzq3
p7
I1
sVd54lnc0
p8
I1
sVde8tx9v
p9
I1
sVddf9yh2
p10
I1
sVdn7k3kf
p11
I1
sVdf3pa1e
p12
I1
sVdhmyqfa
p13
I1
sVd4wab1f
p14
I1
sVdh0ntfe
p15
I1
sVd4pg9mo
p16
I1
sVdjojq4i
p17
I1
sVdb5h63b
p18
I1
sVd5cxqnn
p19
I1
sVdajyj2d
p20
I2
s.