(dp0
Vdfldfhn
p1
I1
sVdgysyxn
p2
I1
sVdgjmuxm
p3
I1
sVdqel9mo
p4
I1
sVd6yjhl3
p5
I3
sVd60pfcx
p6
I1
sVcz5yvue
p7
I1
sVdmsndtl
p8
I1
sVdcn48pr
p9
I2
sVdmwu6d3
p10
I1
sVde9aany
p11
I1
sVd96jvld
p12
I1
sVde0hc9d
p13
I2
sVdquivbt
p14
I1
sVczip79e
p15
I1
sVd7r4wzq
p16
I1
sVdsomnvy
p17
I2
sVczq9w7f
p18
I1
sVdaeabx2
p19
I1
sVcz8lqg9
p20
I1
sVdctum2j
p21
I1
sVddksws5
p22
I1
sVddhhg58
p23
I1
sVdjj4mz8
p24
I1
sVdebrglr
p25
I1
sVd07wios
p26
I1
sVdd4n7v9
p27
I1
sVdd3bvfk
p28
I3
sVd3qwch1
p29
I1
sVd0ibk6s
p30
I1
sVd98bt5x
p31
I1
sVddfvv4o
p32
I1
sVdhhdjdf
p33
I1
sVdk6fb4w
p34
I1
sVdguoijw
p35
I1
sVd692c77
p36
I1
sVd1ac2km
p37
I2
sVd3mf7m6
p38
I3
sVcz8w3r6
p39
I1
sVdjm9e4e
p40
I1
sVdd7gb2f
p41
I1
sVdml0w56
p42
I1
sVdcciwvt
p43
I1
sVd3xuees
p44
I1
sVd332wdv
p45
I1
sVdfnnbum
p46
I2
sVd7p3tmz
p47
I2
sVd8wc0xh
p48
I2
sVdkmlqhx
p49
I1
sVdaps4sx
p50
I2
sVd8qmyjt
p51
I1
sVd68o9vr
p52
I1
sVdpoldlk
p53
I1
sVdhor2qz
p54
I1
sVddkhrio
p55
I2
sVcypp0ge
p56
I1
sVd3na3be
p57
I5
sVdsgswet
p58
I1
sVd9okz6c
p59
I1
sVdsv996j
p60
I1
sVd7o7t7a
p61
I1
sVdq7ahpa
p62
I1
sVdggxuuw
p63
I1
sVd4svlx3
p64
I1
sVdg6a00f
p65
I1
sVd38z57l
p66
I1
sVdkpgwzw
p67
I1
sVd62k6e7
p68
I1
sVdq9bty4
p69
I4
sVddyynec
p70
I1
sVd41bdxg
p71
I1
sVdcar603
p72
I1
sVdhzuxwv
p73
I2
sVd2xz7ae
p74
I1
sVddwlrar
p75
I1
sVdfvsrk0
p76
I1
sVd3p3qqn
p77
I1
sVdcbayvi
p78
I1
sVd2id2wa
p79
I1
sVdcfymzh
p80
I1
sVd5atwoj
p81
I1
sVdrt0v18
p82
I1
sVdfi2fyo
p83
I1
sVdpblg55
p84
I7
sVd3ghaxx
p85
I1
sVdib0795
p86
I1
sVd1w5i2v
p87
I3
sVddrxnxx
p88
I2
sVdn0e0t3
p89
I2
sVd2gmp9f
p90
I1
sVd3f129z
p91
I2
sVd6p6yzs
p92
I2
sVd42tzne
p93
I1
sVd3tuc6u
p94
I4
sVd2yw6vh
p95
I1
sVdb85sy9
p96
I1
sVdfn22ba
p97
I1
sVdg2w270
p98
I1
sVd87uzwh
p99
I1
sVd9rrcnk
p100
I1
sVd7hdkqm
p101
I2
sVcyqjw15
p102
I1
sVd7mfhaf
p103
I1
sVd8gaf1j
p104
I1
sVdnxyksm
p105
I3
sVdeg0vep
p106
I1
sVdagranq
p107
I1
sVdna121f
p108
I1
sVdhr3cf6
p109
I1
sVdi9rb2j
p110
I1
sVd8o5pcx
p111
I1
sVd43vi3q
p112
I1
sVdf35nqh
p113
I1
sVd352zp4
p114
I1
sVdfwy3k1
p115
I1
sVdgq8acq
p116
I1
sVd71z25l
p117
I1
sVdbbywui
p118
I1
sVde74xdd
p119
I1
sVdq71kft
p120
I1
sVdqkwuoj
p121
I1
sVdd233u6
p122
I1
sVd9rbib0
p123
I1
sVd7z9hjs
p124
I2
sVczd26m9
p125
I2
sVd4vdjn0
p126
I1
sVcymto87
p127
I1
sVdb5we83
p128
I4
sVdo4httz
p129
I1
sVcz593g0
p130
I1
sVd0f869x
p131
I1
sVdqi9psh
p132
I1
sVddogtyj
p133
I2
sVdel8qu3
p134
I1
sVd7vvnr0
p135
I1
sVdpuow81
p136
I1
sVcyqhoem
p137
I1
sVcz6v3nv
p138
I1
sVczvdixf
p139
I1
sVdktiqca
p140
I1
sVdnz2nv1
p141
I2
sVdceilxz
p142
I1
sVdcb2uxt
p143
I1
sVd0tkbcw
p144
I1
sVd8834uu
p145
I1
sVdiyaede
p146
I1
sVcyxctt1
p147
I2
sVdboh119
p148
I1
sVdde9foh
p149
I1
sVd8xfxem
p150
I1
sVdeex00g
p151
I1
sVd02kfsy
p152
I1
sVdn19je6
p153
I4
sVczq0ilk
p154
I1
sVdk67quo
p155
I2
sVd0h00jh
p156
I1
sVdft9in3
p157
I1
sVdt2bnjr
p158
I2
sVdnso0fk
p159
I1
sVcymx9gw
p160
I1
sVd2qvvi5
p161
I1
sVdi5hfa3
p162
I2
sVdhj32nu
p163
I1
sVd0wy61i
p164
I1
sVd09967v
p165
I1
sVdd1gv4s
p166
I1
sVdav9jd9
p167
I1
sVdedhhle
p168
I1
sVd81z0en
p169
I1
sVd07xi6s
p170
I1
sVdcrlju1
p171
I1
sVdfngysl
p172
I1
sVd3863c9
p173
I1
sVd70jvwf
p174
I1
sVdny0in9
p175
I1
sVdnepthg
p176
I1
sVd3elk5q
p177
I1
sVde5jmab
p178
I1
sVdhwt5pi
p179
I1
sVd80w5g3
p180
I1
sVdgkx8ux
p181
I1
sVdav9ind
p182
I1
sVdbkroep
p183
I1
sVcz051b4
p184
I1
sVdevkbfk
p185
I1
sVdjkg2xp
p186
I1
sVdk2o3x0
p187
I1
sVd6z1w7i
p188
I1
sVdn6ka4j
p189
I1
sVcz7hdee
p190
I1
sVdht9c59
p191
I1
sVdhm2ibq
p192
I1
sVderqv2l
p193
I1
sVdt2x7mg
p194
I2
sVdab67ej
p195
I1
sVdmhqb0u
p196
I1
sVdey4c4c
p197
I1
sVdap3tuj
p198
I1
sVd1zch31
p199
I1
sVcz7dnhe
p200
I2
sVdatlz0h
p201
I1
sVdkwftbd
p202
I1
sVd11pwj1
p203
I1
sVdav9lf5
p204
I1
sVdb3ncy8
p205
I2
sVczsv7lm
p206
I1
sVdbbwopw
p207
I2
sVdqtnpsg
p208
I1
sVd0alo57
p209
I1
sVd9d8fse
p210
I1
sVdmnm2g6
p211
I1
sVdoxftj8
p212
I1
sVd8mm56w
p213
I1
sVdge3n5g
p214
I1
sVdobiaqc
p215
I1
sVd0rfdhi
p216
I2
sVdbqz6j8
p217
I1
sVdbft7o3
p218
I1
sVd2w8y7y
p219
I1
sVdde58y4
p220
I5
sVdct9z6r
p221
I1
sVcyszu40
p222
I2
sVd0gwiin
p223
I1
sVdsmaslw
p224
I1
sVdsv2fxc
p225
I1
sVd35ontt
p226
I1
sVcz51n5z
p227
I1
sVdgtaz67
p228
I1
sVcytbp97
p229
I1
sVd945rbi
p230
I1
sVd8gq5vd
p231
I1
sVd7hrjdh
p232
I1
sVd0g0ukz
p233
I1
sVdeki3zz
p234
I2
sVdt29s17
p235
I3
sVddp8oux
p236
I1
sVdeb06ft
p237
I1
sVdsqcf44
p238
I1
sVd5ew42n
p239
I1
sVd29jxi6
p240
I1
sVdqykqq0
p241
I1
sVd3bcbkm
p242
I1
sVdpdgbng
p243
I1
sVd9z3uq6
p244
I1
sVdjn0au3
p245
I1
sVczmu77t
p246
I2
sVd58gazm
p247
I1
sVdo67cdu
p248
I1
sVd25fvaf
p249
I1
sVdda0fsr
p250
I1
sVd498wa7
p251
I1
sVdgcb721
p252
I1
sVd9pmfw4
p253
I1
sVd0t2a6c
p254
I2
sVdo1uogj
p255
I1
sVdmwf4rq
p256
I1
sVd1g4ih1
p257
I1
sVdb8au0n
p258
I1
sVdcxnuwc
p259
I2
sVdfjxngu
p260
I2
sVdd7467u
p261
I1
sVddixwou
p262
I2
sVd9v6r8e
p263
I1
sVcykh2ue
p264
I1
sVdegi4t4
p265
I1
sVdkn3nyd
p266
I1
sVd3stfeq
p267
I1
sVcynwxeb
p268
I1
sVcze18v0
p269
I1
sVdn8t6rf
p270
I2
sVd5gr22u
p271
I1
sVd3ff8oz
p272
I1
sVdhtr2he
p273
I1
sVdj1xc2y
p274
I2
sVd4ezijm
p275
I1
sVcz0u59w
p276
I1
sVdeaeh4t
p277
I1
sVda7zqto
p278
I1
sVd32dc7p
p279
I1
sVdeinesw
p280
I1
sVdo5bbf8
p281
I1
sVd6kizkn
p282
I1
sVd95wc21
p283
I1
sVdkz6flo
p284
I1
sVdcqtg40
p285
I1
sVd8sib7h
p286
I1
sVd5vr1vx
p287
I1
sVdh395z1
p288
I1
sVdn99jki
p289
I1
sVd05pjon
p290
I1
sVdkg9t7b
p291
I1
sVdnhniv2
p292
I1
sVd3w2izi
p293
I1
sVd4122nr
p294
I1
sVdcantej
p295
I1
sVdjkak10
p296
I1
sVd8sawy8
p297
I4
sVdnvc2wa
p298
I1
sVdb05tun
p299
I1
sVdkp7f7x
p300
I1
sVd08ww79
p301
I1
sVdfvk8kt
p302
I1
sVdpnqaxo
p303
I1
sVdgvk5n3
p304
I1
sVdspj9hv
p305
I1
sVd7e7s2z
p306
I1
sVdd3q9wq
p307
I1
sVd0fho15
p308
I1
sVdf0wp9g
p309
I2
sVdq3xsb0
p310
I1
sVdflixy9
p311
I1
sVdesvbb4
p312
I1
sVddi7w9a
p313
I2
sVdo9v47w
p314
I1
sVdbsv8q4
p315
I1
sVd5f2e5j
p316
I1
sVczn78z9
p317
I1
sVd0g715x
p318
I1
sVdr053hi
p319
I1
sVd9bhr0e
p320
I1
sVczfvwa8
p321
I1
sVdcriqi4
p322
I1
sVd1r7rwq
p323
I1
sVd9qaiep
p324
I1
sVcyui2va
p325
I3
sVddm6om1
p326
I1
sVda50c1g
p327
I1
sVd33wwhx
p328
I1
sVdmsu4rg
p329
I1
sVddlc8kf
p330
I2
sVd700a0a
p331
I1
sVczgrr4h
p332
I1
sVdp8yvg8
p333
I1
sVdklyrmr
p334
I3
sVd7ratm8
p335
I1
sVdazrro1
p336
I1
sVdbo6p18
p337
I1
sVczd2okg
p338
I1
sVczicos3
p339
I3
sVd4mpv5v
p340
I1
sVd91ingu
p341
I1
sVd1cu97g
p342
I1
sVd56ag3f
p343
I1
sVdbpgltc
p344
I1
sVdeug0gz
p345
I1
sVdfpz4jk
p346
I1
sVdhnpbnm
p347
I1
sVdeig34x
p348
I1
sVdq62z8a
p349
I1
sVd04xqdz
p350
I1
sVdpfltkz
p351
I1
sVddbxlcj
p352
I1
sVdich7kn
p353
I1
sVdo2hst7
p354
I1
sVdec9vgb
p355
I1
sVdavbnpm
p356
I1
sVd1mj468
p357
I1
sVd8g8i6n
p358
I1
sVd00e4cg
p359
I3
sVdifmevc
p360
I1
sVd76v46k
p361
I1
sVd10xym1
p362
I1
sVdon9v70
p363
I1
sVd1yjoi5
p364
I3
sVd6x6ywj
p365
I1
sVczptmmg
p366
I1
sVda3zzgv
p367
I3
sVdebrdzn
p368
I1
sVdbm4uhi
p369
I1
sVdk1ddb0
p370
I1
sVda91yez
p371
I1
sVddi6h9b
p372
I1
sVdp258sj
p373
I1
sVdnnq2ac
p374
I2
sVd1euwq2
p375
I1
sVd2t0zjs
p376
I1
sVd98gqjm
p377
I1
sVczblx5r
p378
I1
sVd55ka1g
p379
I1
sVd5bqtky
p380
I1
sVdfe37lx
p381
I1
sVdjls66b
p382
I2
sVd2wfnrp
p383
I1
sVczur8ac
p384
I2
sVd3gfcdr
p385
I1
sVdneoy2i
p386
I1
sVdcufxoa
p387
I1
sVdklvh17
p388
I1
sVcz2jzs7
p389
I3
sVdcrb58x
p390
I1
sVd1uydax
p391
I1
sVda1ymzn
p392
I1
sVd2q7rsh
p393
I1
sVdi3d83o
p394
I1
sVd09m4qf
p395
I5
sVd1n0m09
p396
I1
sVdmsvqzw
p397
I2
sVd20iotc
p398
I1
sVd5w5i4d
p399
I1
sVdgawg17
p400
I1
sVdf7jvq4
p401
I1
sVdka9hht
p402
I1
sVda0wuyb
p403
I1
sVd1l2zqf
p404
I1
sVdicnpds
p405
I1
sVdf63rb6
p406
I1
sVd3gkbu2
p407
I1
sVdeboc1f
p408
I1
sVd8nfs8s
p409
I1
sVd3z7spc
p410
I1
sVdmol7iy
p411
I1
sVdj2au9b
p412
I1
sVd2jzqtz
p413
I1
sVdhoxk9c
p414
I1
sVdcqheq8
p415
I1
sVcyzbd53
p416
I1
sVdefpuyq
p417
I1
sVdbybj2p
p418
I1
sVd0alr3n
p419
I1
sVd0whb11
p420
I1
sVdflwds6
p421
I1
sVd1vyq0f
p422
I1
sVd1fos3r
p423
I2
sVdo2otbj
p424
I1
sVddw7v02
p425
I1
sVd2vcbha
p426
I1
sVdtiw5pu
p427
I3
sVd4i8lvl
p428
I2
sVd7suhro
p429
I2
sVcz55pxx
p430
I1
sVcys2fht
p431
I3
sVdd5cgfd
p432
I1
sVd60gs1j
p433
I1
sVdebxlov
p434
I1
sVcz30c6d
p435
I1
sVdipwlp2
p436
I2
sVd7mei13
p437
I1
sVd6bq0rp
p438
I1
sVdqjudl0
p439
I1
sVddtowww
p440
I1
sVd0acuyx
p441
I1
sVd7x39rb
p442
I1
sVd9qyc1d
p443
I1
sVd9fx99d
p444
I1
sVdnuc5cb
p445
I1
sVd7pm5io
p446
I1
sVdawdlwi
p447
I3
sVcz8so84
p448
I1
sVdpqq8f2
p449
I1
sVd82m73x
p450
I1
sVd7hbjt0
p451
I1
sVdeaf9s3
p452
I1
sVcz9431t
p453
I1
sVdac9rou
p454
I1
sVd3ughw2
p455
I1
sVczcwmh8
p456
I1
sVdar1ri3
p457
I1
sVd1aapyo
p458
I2
sVd1tbsms
p459
I1
sVd4xe3kj
p460
I1
sVdgw6pxc
p461
I1
sVdkqaddb
p462
I1
sVde9xase
p463
I1
sVd63qhpz
p464
I2
sVdcc8jfx
p465
I7
sVdijxdwi
p466
I1
sVdcz0r3a
p467
I4
sVd04bacy
p468
I1
sVdrwx2l9
p469
I2
sVcypnslm
p470
I1
sVdez1kq7
p471
I2
sVd72t9he
p472
I1
sVd70pmso
p473
I1
sVd7ab18h
p474
I2
sVdsw0joa
p475
I1
sVdhli0g9
p476
I2
sVd11xwhl
p477
I1
sVczwkku8
p478
I1
sVdfdsuud
p479
I1
sVdmt3z4s
p480
I1
sVd2ympou
p481
I1
sVdej8e3s
p482
I1
sVdik7hbm
p483
I1
sVdbncv0u
p484
I1
sVd58ynwb
p485
I1
sVd94nll9
p486
I1
sVdt3t7pv
p487
I1
sVdkk0964
p488
I1
sVd5c29si
p489
I1
sVd01aoex
p490
I1
sVdfzrqg6
p491
I2
sVdh1nyvo
p492
I1
sVdk4orj6
p493
I1
sVdbcnpdq
p494
I1
sVd6ruamt
p495
I3
sVdh0i39k
p496
I3
sVdhxp40s
p497
I1
sVddgs8e0
p498
I1
sVd4vays0
p499
I1
sVd1j7whz
p500
I1
sVdejbdk3
p501
I1
sVdeh86yu
p502
I1
sVdfa57sl
p503
I1
sVczgm0b9
p504
I1
sVdp8oe27
p505
I1
sVdeq2zqm
p506
I4
sVd1acmef
p507
I3
sVdkn2ops
p508
I1
sVdk3jtt4
p509
I1
sVczxnwan
p510
I1
sVdg5vaep
p511
I1
sVd88z5oy
p512
I1
sVdrhjbtg
p513
I1
sVdoqu48b
p514
I2
sVdcmmo03
p515
I1
sVd0naqqe
p516
I1
sVdhdp9h4
p517
I1
sVd02y6oz
p518
I1
sVdfiyb1i
p519
I1
sVdbz48k9
p520
I2
sVdgqtgfl
p521
I1
sVd02fx9x
p522
I1
sVd5dnyti
p523
I2
sVdiicqmb
p524
I1
sVd8kkkfn
p525
I1
sVddny6ep
p526
I1
sVd4pz9s1
p527
I1
sVd2kdh0s
p528
I1
sVdszxfsd
p529
I1
sVcyvvlnu
p530
I1
sVd0yzpfb
p531
I1
sVdn5ypuw
p532
I1
sVd1lvscp
p533
I1
sVddglrk9
p534
I1
sVcz32i3z
p535
I1
sVd3rrykz
p536
I1
sVddl3bhc
p537
I1
sVdjxvz51
p538
I1
sVd2ueiqy
p539
I1
sVdnnpyse
p540
I1
sVd4e4edh
p541
I1
sVd25r1b5
p542
I1
sVdq4qxzi
p543
I3
sVd1q6pme
p544
I1
sVdj00fk9
p545
I1
sVd1rrztr
p546
I1
sVczyueqw
p547
I1
sVcyl86qa
p548
I1
sVdespg8y
p549
I1
sVd95pqoh
p550
I2
sVdb6ytjf
p551
I1
sVd0se8tz
p552
I2
sVdnnrnkj
p553
I3
sVdkm62rb
p554
I1
sVdka7dn9
p555
I1
sVdde1eck
p556
I3
sVdd5m2tw
p557
I1
sVd0g0jc6
p558
I1
sVdn57bgn
p559
I1
sVd5ivrzw
p560
I1
sVdmueu2y
p561
I2
sVd7xmm7c
p562
I1
sVda5vlcy
p563
I1
sVdbqcgi8
p564
I1
sVdfi5jnu
p565
I1
sVdey8ska
p566
I1
sVdbnvsrp
p567
I1
sVd7mpxf0
p568
I1
sVd7qffba
p569
I1
sVdj4df0d
p570
I3
sVd3kw49e
p571
I2
sVdei1519
p572
I1
sVdkj3hum
p573
I1
sVdby3ht2
p574
I2
sVdegp2ct
p575
I1
sVd4lawiq
p576
I1
sVd6datkt
p577
I1
sVd9ry5s9
p578
I1
sVd9uf16y
p579
I1
sVd28tqpc
p580
I1
sVd3vmzkz
p581
I1
sVczzsv75
p582
I1
sVdiwfsnx
p583
I1
sVdep2jn1
p584
I1
sVdj4u4hs
p585
I1
sVd3bzf10
p586
I1
sVddvfvot
p587
I1
sVd5etbm3
p588
I1
sVd7tgia9
p589
I2
sVdnmj8tz
p590
I1
sVdk4o4xp
p591
I1
sVd91ukhh
p592
I2
sVd6ovaka
p593
I2
sVddt54m5
p594
I1
sVdewer02
p595
I1
sVczvklb2
p596
I1
sVdouef8m
p597
I1
sVd8j132c
p598
I1
sVdrnnzdc
p599
I1
sVcz042sk
p600
I2
sVd500lqk
p601
I1
sVdo83gq4
p602
I1
sVdfkl6dg
p603
I1
sVda15u8z
p604
I1
sVdf6u3cr
p605
I1
sVd8gjs3r
p606
I1
sVdag07k8
p607
I1
sVddpjx5i
p608
I1
sVdmlxkwq
p609
I1
sVdft654d
p610
I1
sVdn0panx
p611
I2
sVdeac8lt
p612
I2
sVdqa40k4
p613
I2
sVd3tqljt
p614
I3
sVdfoup95
p615
I1
sVd3qrnpk
p616
I1
sVdgtinxf
p617
I1
sVddvyp6x
p618
I1
sVd9enkor
p619
I1
sVd8ery0t
p620
I1
sVd0p6pxb
p621
I1
sVd3tg8ho
p622
I1
sVczn82zu
p623
I1
sVd1dtrti
p624
I1
sVdmoc4c4
p625
I2
sVdhouutw
p626
I1
sVd7erjd7
p627
I1
sVdnlme1k
p628
I1
sVd1qywy0
p629
I1
sVczidi1l
p630
I5
sVdqni102
p631
I1
sVd3c9bi3
p632
I2
sVdrz87fz
p633
I1
sVd96wvnx
p634
I1
sVdd3p869
p635
I1
sVdclix3y
p636
I1
sVd54xrve
p637
I1
sVd6nl6tc
p638
I1
sVdkktucf
p639
I1
sVdcu0fka
p640
I1
sVd0adwbp
p641
I1
sVd2xe7fy
p642
I1
sVd1uwc4f
p643
I1
sVd7dt2hl
p644
I1
sVdf2cbi9
p645
I1
sVdai1iqq
p646
I1
sVd2384az
p647
I1
sVdhra3v3
p648
I1
sVdrq4ra0
p649
I1
sVddik637
p650
I1
sVd7l0buz
p651
I1
sVcz77h2y
p652
I1
sVd1usd3u
p653
I1
sVcyxrjin
p654
I1
sVds8mm5t
p655
I1
sVdhyybfe
p656
I1
sVczpthi4
p657
I2
sVczxsbzk
p658
I1
sVddtm35j
p659
I1
sVd0hnglr
p660
I1
sVdfpttaa
p661
I1
sVdeprpc1
p662
I1
sVdt2aiwc
p663
I1
sVdgba1xr
p664
I1
sVcztehux
p665
I1
sVd0m3vs7
p666
I1
sVdn3u9r4
p667
I1
sVd1dhmks
p668
I1
sVd09cl6m
p669
I1
sVd5rhfr0
p670
I2
sVdt8rv4j
p671
I1
sVdbyqsa4
p672
I1
sVcyk90di
p673
I1
sVd7x8x9b
p674
I1
sVcyqwzcj
p675
I1
sVd9n7c1l
p676
I1
sVdi2kkaq
p677
I2
sVdizt0wp
p678
I1
sVczfuszs
p679
I1
sVdawj1ym
p680
I1
sVdhae2z2
p681
I1
sVd20urfr
p682
I1
sVcz8prmj
p683
I1
sVd767hoo
p684
I1
sVds6g092
p685
I1
sVdihmfzb
p686
I1
sVdh66lo8
p687
I1
sVd8qu4kw
p688
I1
sVczs5z26
p689
I1
sVdeh10ws
p690
I1
sVd1om983
p691
I1
sVdne68rl
p692
I1
sVdggsp99
p693
I1
sVd1awt0p
p694
I1
sVdcf1z98
p695
I1
sVda50vgm
p696
I1
sVdkphdw9
p697
I1
sVdnoadkl
p698
I1
sVd24vjl2
p699
I1
sVde4jsnk
p700
I1
sVdd71i43
p701
I1
sVd1ofylf
p702
I1
sVd5a9cwg
p703
I2
sVd8c0mfm
p704
I2
sVd04el5t
p705
I1
sVdpw0ix5
p706
I1
sVdig705f
p707
I1
sVdhgn681
p708
I1
sVdgbj98e
p709
I1
sVdn82kr0
p710
I1
sVdfau4gn
p711
I1
sVdq4mabl
p712
I1
sVd3embp4
p713
I1
sVd37bwz6
p714
I1
sVdipjfuy
p715
I1
sVd3611rz
p716
I1
sVdqyvswn
p717
I2
sVded8ifc
p718
I1
sVdhiduij
p719
I1
sVd8f0oka
p720
I3
sVd0ks4ef
p721
I2
sVdmg9j1s
p722
I1
sVcz91x8s
p723
I1
sVdjk4mbq
p724
I1
sVd9zdwdw
p725
I2
sVdb13wns
p726
I1
sVdkujhug
p727
I1
sVd9f6w3y
p728
I1
sVdfym26f
p729
I1
sVczwqn9g
p730
I1
sVdmp0ywz
p731
I1
sVd16earv
p732
I2
sVdge3cw5
p733
I1
sVd1ouw8y
p734
I1
sVd1gix9p
p735
I1
sVczgsz6a
p736
I1
sVddoemh0
p737
I1
sVde23cg9
p738
I1
sVd4miko6
p739
I1
sVdg6anwj
p740
I1
sVd8et7hd
p741
I1
sVddkrnla
p742
I1
sVdowyefn
p743
I1
sVdg34k29
p744
I2
sVd97jxmz
p745
I1
sVd1j0esc
p746
I1
sVdku3sti
p747
I1
sVdee4isz
p748
I1
sVczhrskc
p749
I3
sVddxjgxi
p750
I1
sVd88y77q
p751
I2
sVdoencjn
p752
I1
sVdt5pfh1
p753
I2
sVd8zctoh
p754
I1
sVdmx6rkx
p755
I2
sVczdgvov
p756
I2
sVdmu4829
p757
I1
sVdmwvrzs
p758
I2
sVd8cwlhm
p759
I1
sVdd42lrg
p760
I2
sVd39suz3
p761
I1
sVd62p873
p762
I1
sVd18corf
p763
I1
sVdfwajrt
p764
I1
sVd2tuq8i
p765
I1
sVd42ewbe
p766
I2
sVdg979pw
p767
I1
sVdekqe21
p768
I1
sVdmnmfu6
p769
I2
sVd0jyzq7
p770
I1
sVd8h31mf
p771
I1
sVd0jlq9h
p772
I1
sVdqusf6g
p773
I1
sVdq4c7ii
p774
I1
sVdrm35qe
p775
I1
sVd4164yh
p776
I1
sVdoys6ir
p777
I4
sVd6xajle
p778
I1
sVdj6xj5z
p779
I1
sVdqyk4vl
p780
I1
sVcz6rxl6
p781
I1
sVdp1kf8o
p782
I1
sVdh9h32k
p783
I1
sVdifr0or
p784
I1
sVczh2hvb
p785
I1
sVdgzknzk
p786
I1
sVdhdfsi5
p787
I1
sVd4oxany
p788
I2
sVdcmelcr
p789
I1
sVdj6r0x7
p790
I1
sVdkr23a0
p791
I1
sVd58e44c
p792
I1
sVdg3udd6
p793
I1
sVdee5m82
p794
I1
sVdj42p0x
p795
I1
sVd1mm4ma
p796
I1
sVd0hsisu
p797
I1
sVdhqyrgg
p798
I1
sVd1lu6fm
p799
I1
sVdg06hwu
p800
I1
sVdej5u31
p801
I1
sVd3re87k
p802
I1
sVdcz66mm
p803
I1
sVd4eodvo
p804
I1
sVd19snnw
p805
I3
sVd5kjlqf
p806
I1
sVdocejtf
p807
I1
sVdame0jk
p808
I1
sVd5jmd8i
p809
I1
sVdqeq06u
p810
I1
sVczapmsi
p811
I1
sVdotlauu
p812
I1
sVdpovmb9
p813
I2
sVczyuyre
p814
I3
sVdht00xl
p815
I1
sVczygjv7
p816
I1
sVdabyodz
p817
I1
sVd39f44o
p818
I1
sVd4kuwk6
p819
I1
sVdsv34u4
p820
I2
sVd592xsj
p821
I1
sVdfeu18l
p822
I1
sVczdy1zo
p823
I1
sVddog6ia
p824
I1
sVd2scawm
p825
I2
sVdawn051
p826
I4
sVdkyulib
p827
I1
sVdo5rg5f
p828
I1
sVdddtmyv
p829
I1
sVdcq4u8t
p830
I1
sVd5ntkfv
p831
I4
sVd38592i
p832
I1
sVd2iagnb
p833
I1
sVdrygoqo
p834
I2
sVdnm9cge
p835
I1
sVd00e5f2
p836
I3
sVczc16cu
p837
I1
sVdfovwgs
p838
I6
sVd0za7zt
p839
I1
sVczy4xu0
p840
I1
sVdhmo1oo
p841
I1
sVdqlytx3
p842
I1
sVdg0x6ax
p843
I1
sVdk4rfsw
p844
I1
sVczzxm65
p845
I1
sVdo42yl6
p846
I2
sVcyjufq6
p847
I1
sVcylv5zy
p848
I1
sVczfnw8h
p849
I1
sVd3r5zwz
p850
I2
sVczgxfdh
p851
I1
sVdoazntf
p852
I2
sVd54j51l
p853
I1
sVddziggg
p854
I2
sVd3wi40b
p855
I2
sVdf1ofee
p856
I1
sVdgj3kak
p857
I1
sVdjx8qdq
p858
I1
sVdbfxk3b
p859
I1
sVdh35utd
p860
I1
sVd2w1yqy
p861
I1
sVdfqatjv
p862
I1
sVdknfqsj
p863
I3
sVcyve3id
p864
I1
sVd6alsxw
p865
I1
sVdbsof5l
p866
I1
sVdpbhagf
p867
I1
sVd2lce18
p868
I1
sVdnnuhef
p869
I1
sVd4pc6ti
p870
I1
sVdcm662o
p871
I1
sVddfj5jk
p872
I2
sVdf9kcdn
p873
I1
sVdfxkxxa
p874
I1
sVdfw3mw7
p875
I1
sVdhby67d
p876
I1
sVdqx0h4h
p877
I1
sVcz5yxsj
p878
I1
sVcyvkicp
p879
I1
sVd2a8t55
p880
I2
sVd0aylgl
p881
I1
sVdqxv18o
p882
I1
sVdgj5qav
p883
I1
sVd6waogr
p884
I1
sVdb06v2x
p885
I2
sVdk4kpr4
p886
I1
sVd82pej6
p887
I1
sVdibth8t
p888
I1
sVd1y5gc3
p889
I1
sVdiwe2fu
p890
I4
sVdd53rep
p891
I1
sVdcz8lrc
p892
I1
sVdiata1g
p893
I1
sVddaya2f
p894
I1
sVcyue85w
p895
I1
sVday1c47
p896
I1
sVdbeqy8s
p897
I1
sVd5ea5c6
p898
I1
sVdrq1ldz
p899
I1
sVd5nsdkb
p900
I1
sVd1w1j1q
p901
I1
sVd0r3lgc
p902
I1
sVd7pnhj2
p903
I2
sVddm1vln
p904
I1
sVd9s68oj
p905
I1
sVdf7oths
p906
I1
sVdp042xc
p907
I1
sVdn9t90c
p908
I2
sVdc9g2or
p909
I1
sVdcznw5i
p910
I1
sVd3rv36z
p911
I1
sVd4t367s
p912
I1
sVdhjv7uz
p913
I1
sVd5v4544
p914
I1
sVd8bw2dm
p915
I1
sVd6afcfr
p916
I1
sVda38j4c
p917
I1
sVdbjruwd
p918
I2
sVdf2u2zw
p919
I1
sVdhptg62
p920
I3
sVcza9pxw
p921
I2
sVd2aia4m
p922
I1
sVdn7vn0s
p923
I1
sVd6m5opa
p924
I3
sVd4u6ypw
p925
I1
sVd40xyiz
p926
I1
sVcyu5hgt
p927
I1
sVd62m75k
p928
I1
sVdk80svh
p929
I1
sVdq26icr
p930
I1
sVdcers5n
p931
I2
sVd8qer73
p932
I1
sVdnnpw01
p933
I1
sVd1v29cs
p934
I1
sVdsy0qoq
p935
I1
sVd2doelf
p936
I1
sVdmvsc40
p937
I2
sVdi2e8sn
p938
I1
sVdhia0yr
p939
I1
sVdkhr1v2
p940
I1
sVd4ko0ks
p941
I1
sVdketdxr
p942
I1
sVdcnf5mk
p943
I1
sVcz33xf1
p944
I4
sVdkn5po1
p945
I1
sVdbnyr7f
p946
I1
sVdgk10a6
p947
I1
sVdjq5x6n
p948
I2
sVdkvoih3
p949
I1
sVddhaa3h
p950
I1
sVd5emsu3
p951
I1
sVdo1nfjm
p952
I1
sVddwj8ll
p953
I1
sVdn06sli
p954
I2
sVdakxhy3
p955
I1
sVd2o8ub4
p956
I1
sVd2a6fpg
p957
I1
sVczumivz
p958
I1
sVd0av9al
p959
I1
sVd2jscrc
p960
I1
sVcz75h47
p961
I1
sVdg3o15z
p962
I1
sVdof5m9t
p963
I1
sVde10k9a
p964
I1
sVd77n9kp
p965
I1
sVd03nj34
p966
I1
sVd5etic1
p967
I2
sVcz0mna1
p968
I1
sVd00yk4b
p969
I1
sVdkefow5
p970
I1
sVdel95st
p971
I1
sVd3frnyg
p972
I1
sVd2wxn6m
p973
I1
sVdg97oe6
p974
I2
sVczcbxzf
p975
I1
sVd6s609j
p976
I1
sVderj0cw
p977
I2
sVd5mkbpw
p978
I1
sVdog52cy
p979
I1
sVd4sc1u2
p980
I1
sVd5iv8bp
p981
I1
sVdennymd
p982
I2
sVd3qn72g
p983
I1
sVcz8g5ph
p984
I1
sVd00g2fy
p985
I1
sVdfsb3zi
p986
I2
sVd8ufb9s
p987
I1
sVd4k1ync
p988
I1
sVd7xdal5
p989
I5
sVdmjxs47
p990
I2
sVczl8kj3
p991
I2
sVdihd0ud
p992
I1
sVdq4tbny
p993
I1
sVdbj9t5j
p994
I1
sVd09l1fz
p995
I1
sVd1zz4db
p996
I1
sVdmsq09a
p997
I1
sVcyyyf13
p998
I1
sVdmk2x80
p999
I1
sVdbm7fso
p1000
I1
sVdbkcke8
p1001
I1
sVdk6gpb5
p1002
I2
sVdnhprof
p1003
I1
sVd3qsw27
p1004
I1
sVczzfd2b
p1005
I1
sVdt4a6an
p1006
I2
sVdhuc5dd
p1007
I1
sVd1pdvnv
p1008
I1
sVdnciyv8
p1009
I1
sVdfi39k3
p1010
I1
sVd8t4md9
p1011
I2
sVddx0cfp
p1012
I1
sVdctos3f
p1013
I1
sVcz1gblz
p1014
I1
sVddpfr1a
p1015
I2
sVdkqon70
p1016
I1
sVdn03gru
p1017
I2
sVdd6t358
p1018
I1
sVd142b20
p1019
I1
sVcyqnqha
p1020
I1
sVczl2o64
p1021
I1
sVd844wrz
p1022
I1
sVdobd2el
p1023
I1
sVd1pyvf5
p1024
I1
sVd08wquc
p1025
I1
sVdjtfkrf
p1026
I1
sVdkrbupa
p1027
I1
sVdr18q3w
p1028
I2
sVddqw8cu
p1029
I2
sVd9abzse
p1030
I1
sVd3nqb3i
p1031
I1
sVdbfpe0i
p1032
I1
sVd0fyku2
p1033
I1
sVddt9kya
p1034
I1
sVdjj4pq4
p1035
I1
sVds1adht
p1036
I1
sVd0r2rbr
p1037
I1
sVczzh0f0
p1038
I1
sVdmwwqlt
p1039
I2
sVd0upriq
p1040
I1
sVdcspnys
p1041
I1
sVdfr23tb
p1042
I1
sVd8xbvjl
p1043
I1
sVd967eda
p1044
I1
sVdal2hrr
p1045
I1
sVdsn04ov
p1046
I1
sVd1w6tda
p1047
I1
sVd2me80r
p1048
I1
sVdmkxh7j
p1049
I1
sVd1l9x2x
p1050
I1
sVdefibdo
p1051
I1
sVdiiym05
p1052
I1
sVdjyzruc
p1053
I1
sVdczrx50
p1054
I1
sVd17f5xw
p1055
I1
sVcziowq3
p1056
I1
sVdq4qkbx
p1057
I1
sVd8ow7b3
p1058
I1
sVdh20eqi
p1059
I1
sVdpfqmfn
p1060
I2
sVd03ru98
p1061
I1
sVdqkws47
p1062
I1
sVdb8e1vu
p1063
I1
sVdjs2llm
p1064
I1
sVd7yam60
p1065
I1
sVdis26u0
p1066
I1
sVdixzocg
p1067
I1
sVdgwd0fg
p1068
I2
sVdjkr6zd
p1069
I1
sVd19kfxk
p1070
I1
sVdirnwev
p1071
I1
sVda9rfa5
p1072
I1
sVd16gccc
p1073
I1
sVd4vldfb
p1074
I1
sVdf4i1lx
p1075
I1
sVd2p1433
p1076
I1
sVczo3baq
p1077
I2
sVd2kxfnt
p1078
I1
sVdhx11xl
p1079
I3
sVd1gdney
p1080
I6
sVdr8uccj
p1081
I1
sVczy64tb
p1082
I1
sVdbtaqti
p1083
I1
sVdelcznp
p1084
I1
sVdbf14cw
p1085
I1
sVd9d2lau
p1086
I1
sVdfoicao
p1087
I1
sVd352evo
p1088
I1
sVd7qtssb
p1089
I3
sVczspu0c
p1090
I1
sVdmibrqx
p1091
I1
sVczibns1
p1092
I1
sVd5ox4nl
p1093
I1
sVcyvihoa
p1094
I1
sVdqo2tgc
p1095
I1
sVczb1dhf
p1096
I1
sVdkt11wo
p1097
I1
sVdf1m6u5
p1098
I1
sVd3ldkzo
p1099
I1
sVdac1ok2
p1100
I1
sVd34nb25
p1101
I1
sVdddf4vs
p1102
I2
sVcyuao26
p1103
I1
sVde94t6p
p1104
I1
sVdap8aqr
p1105
I1
sVd6ujkwc
p1106
I1
sVd50is8k
p1107
I1
sVdaph8gu
p1108
I1
sVd6nf1nm
p1109
I1
sVdor95xy
p1110
I1
sVd1ccxs6
p1111
I1
sVdqlopsa
p1112
I1
sVcz5beqr
p1113
I1
sVd6zy9h3
p1114
I1
sVd627y9w
p1115
I1
sVd4or4v6
p1116
I1
sVdpmjno0
p1117
I3
sVcyxb0rn
p1118
I1
sVd0i4767
p1119
I1
sVcz0tanc
p1120
I1
sVcyywmt7
p1121
I2
sVd6s793o
p1122
I4
sVd1pw33b
p1123
I1
sVdjjtrko
p1124
I1
sVdnklvvx
p1125
I1
sVd1decp6
p1126
I1
sVcyl5mh1
p1127
I1
sVdggxre7
p1128
I1
sVd63vcfc
p1129
I1
sVd03ffmo
p1130
I1
sVddpkhgd
p1131
I3
sVczdekvx
p1132
I2
sVd2mttj8
p1133
I1
sVdej9rur
p1134
I1
sVd2g656p
p1135
I1
sVdbk9jub
p1136
I1
sVdoe847m
p1137
I1
sVd8vr73k
p1138
I1
sVdjiewm5
p1139
I1
sVdml5zdh
p1140
I1
sVd6j7zfh
p1141
I1
sVddtzuzb
p1142
I1
sVczgict2
p1143
I1
sVdnshnzp
p1144
I2
sVdda1uvy
p1145
I1
sVd8g1inu
p1146
I2
sVd9p7zw5
p1147
I1
sVdd7qqb5
p1148
I1
sVdkuvev9
p1149
I1
sVd72cx5i
p1150
I1
sVd2zilf1
p1151
I1
sVdcfmh1x
p1152
I1
sVd6dcg5o
p1153
I1
sVd4awv0x
p1154
I1
sVdsctqq4
p1155
I1
sVd9dpntg
p1156
I1
sVdngpqb3
p1157
I1
sVdo70gep
p1158
I1
sVdrk91f8
p1159
I1
sVdj41nz5
p1160
I2
sVd2vqrim
p1161
I1
sVdeqrueg
p1162
I1
sVd6uqun7
p1163
I1
sVd3a2lrz
p1164
I1
sVd034wn9
p1165
I1
sVds9l9b7
p1166
I1
sVddpckte
p1167
I1
sVd90wbt8
p1168
I2
sVdizvk07
p1169
I1
sVdmod83i
p1170
I1
sVdj7g1eh
p1171
I1
sVdi4hp6r
p1172
I1
sVd4z8kqr
p1173
I1
sVdd48pqr
p1174
I1
sVcz8lgqo
p1175
I1
sVdk9ye13
p1176
I1
sVdik9ef5
p1177
I1
sVd9m6h51
p1178
I1
sVdmjd0qw
p1179
I1
sVdjdrt2r
p1180
I1
sVcyypon5
p1181
I1
sVd25im42
p1182
I2
sVdsvjbha
p1183
I1
sVd6nqtyk
p1184
I1
sVczbja85
p1185
I2
sVdinjcn8
p1186
I1
sVdd57xr7
p1187
I1
sVd5yvw1k
p1188
I1
sVd3wyapr
p1189
I1
sVdgdq7qq
p1190
I1
sVds6chhw
p1191
I1
sVdqarwzc
p1192
I1
sVde0mxq1
p1193
I1
sVdn85cnt
p1194
I1
sVdg9ns7q
p1195
I1
sVcyqxks8
p1196
I1
sVdkv72wc
p1197
I1
sVdk4dq0w
p1198
I1
sVdbftsvw
p1199
I1
sVd6bg6g8
p1200
I1
sVd2d4vha
p1201
I1
sVddeuvga
p1202
I1
sVdnfoftm
p1203
I2
sVczlxumv
p1204
I1
sVczatmpn
p1205
I2
sVcysxy04
p1206
I1
sVdtfp0h2
p1207
I1
sVdh440af
p1208
I1
sVdhvl9js
p1209
I1
sVczoveau
p1210
I1
sVd7yznyt
p1211
I1
sVdghs0jb
p1212
I1
sVdh2iwk0
p1213
I1
sVdn7yv1c
p1214
I1
sVd811ahr
p1215
I1
sVd7ie3be
p1216
I1
sVd3uycfh
p1217
I1
sVd2zn5yk
p1218
I1
sVdbn1l4c
p1219
I1
sVdcweq0h
p1220
I1
sVczyr72g
p1221
I1
sVczo8sis
p1222
I1
sVd2y6wsw
p1223
I1
sVdh2uyod
p1224
I1
sVddm75wl
p1225
I1
sVczbxyc4
p1226
I3
sVd2wr11k
p1227
I1
sVda0i8ot
p1228
I1
sVdbskgza
p1229
I1
sVd720py2
p1230
I1
sVd0batvt
p1231
I1
sVdpa2rkj
p1232
I2
sVd0lrk68
p1233
I1
sVdrhn6q3
p1234
I1
sVcyj03v7
p1235
I3
sVczseigq
p1236
I1
sVczrds73
p1237
I1
sVdfvpjvf
p1238
I1
sVde0uuqu
p1239
I2
sVdroq8of
p1240
I1
sVddi1xln
p1241
I1
sVcz7ih5d
p1242
I1
sVd059g2q
p1243
I1
sVd9r61f5
p1244
I1
sVd7l3frp
p1245
I1
sVd4f306f
p1246
I1
sVddg8dv7
p1247
I1
sVdr2uztw
p1248
I1
sVdms4m88
p1249
I1
sVd5jv2uo
p1250
I1
sVdmz925s
p1251
I1
sVdpk3j2p
p1252
I1
sVdj8uyfk
p1253
I1
sVdo1mndy
p1254
I1
sVdnkp50k
p1255
I1
sVd1ux4zg
p1256
I3
sVdafi1o0
p1257
I1
sVd6zkd2a
p1258
I1
sVdjn6clw
p1259
I1
sVdqjzrci
p1260
I1
sVdc2e88b
p1261
I2
sVdbxrdbw
p1262
I1
sVd6el2p5
p1263
I1
sVdcufe4n
p1264
I1
sVdf37r6t
p1265
I1
sVd56d8kv
p1266
I1
sVdfozljh
p1267
I1
sVd0lfmma
p1268
I1
sVcyxc7dp
p1269
I1
sVdfbziqx
p1270
I1
sVd7e16kw
p1271
I1
sVd104wvd
p1272
I1
sVdihwauf
p1273
I1
sVd9hljnr
p1274
I1
sVd13721l
p1275
I2
sVdj8pdtx
p1276
I1
sVd8ynpyn
p1277
I1
sVd96grb9
p1278
I1
sVdsxqzat
p1279
I1
sVd3j6tcy
p1280
I1
sVd2cacpa
p1281
I1
sVcz2h2zr
p1282
I1
sVdeevlui
p1283
I1
sVczwb4vn
p1284
I1
sVdd2ea73
p1285
I1
sVczdb17r
p1286
I1
sVdks4lwc
p1287
I1
sVdd6zl8g
p1288
I1
sVczg1u9n
p1289
I1
sVdrwb2hs
p1290
I1
sVd3uu5bv
p1291
I2
sVdt218cm
p1292
I1
sVcyskz0d
p1293
I1
sVdcpykpb
p1294
I1
sVdd44qqn
p1295
I1
sVd8svqaf
p1296
I1
sVd8q4ktb
p1297
I2
sVd8zd15e
p1298
I1
sVd592gyg
p1299
I1
sVcykswkd
p1300
I1
sVdqnwqn5
p1301
I1
sVdgu17u1
p1302
I1
sVczburf3
p1303
I2
sVdpy194l
p1304
I1
sVd0rucsq
p1305
I1
sVcymupj7
p1306
I1
sVczuqu98
p1307
I1
sVd3tt3w7
p1308
I1
sVddxnkto
p1309
I2
sVd19okv8
p1310
I1
sVd7hc21d
p1311
I1
sVdde9kyq
p1312
I1
sVd721uyt
p1313
I1
sVdf1s0ft
p1314
I1
sVdkdgt1y
p1315
I1
sVddq8ula
p1316
I1
sVdalyond
p1317
I1
sVdd9xffx
p1318
I2
sVd8fa1lw
p1319
I5
sVde6wqcc
p1320
I2
sVd7ltqm2
p1321
I1
sVdk17jc1
p1322
I1
sVdcc1lg5
p1323
I1
sVdk12hcj
p1324
I1
sVdfwzm2x
p1325
I1
sVd6yvtlj
p1326
I4
sVd8022f5
p1327
I1
sVd8xg3kb
p1328
I1
sVdmh2bgg
p1329
I1
sVczz8gtj
p1330
I1
sVdtj19y9
p1331
I2
sVdnxaang
p1332
I1
sVddn0rv2
p1333
I1
sVdac6ci2
p1334
I1
sVdb54k9x
p1335
I1
sVd2tzeri
p1336
I1
sVd6w70zo
p1337
I1
sVdmip30q
p1338
I1
sVdczk4mn
p1339
I1
sVczxdg0d
p1340
I3
sVd0catvk
p1341
I1
sVczabw68
p1342
I1
sVdjrexrv
p1343
I1
sVd88vdlm
p1344
I1
sVcyxfl3j
p1345
I2
sVd8adxrt
p1346
I1
sVd03crgf
p1347
I5
sVdj22ixm
p1348
I1
sVd1jzonn
p1349
I1
sVdbu2ek0
p1350
I1
sVd2ne2in
p1351
I3
sVdcwo5jq
p1352
I1
sVdbstua5
p1353
I2
sVdejko99
p1354
I1
sVdmnlzw4
p1355
I1
sVd6wca12
p1356
I1
sVd7xgmko
p1357
I1
sVd87nbml
p1358
I2
sVdemltuz
p1359
I1
sVdpmvdr4
p1360
I1
sVczyqtt1
p1361
I1
sVdr0t3sl
p1362
I1
sVcz6mymm
p1363
I1
sVd7slpye
p1364
I1
sVdin0hrz
p1365
I1
sVd7phxe2
p1366
I1
sVdhplpea
p1367
I1
sVd2vxllc
p1368
I1
sVdjlvsfx
p1369
I1
sVdqksg5v
p1370
I1
sVd70dcix
p1371
I1
sVczj4gp5
p1372
I2
sVdb3sxx8
p1373
I1
sVdrq3ek3
p1374
I1
sVdj1snnp
p1375
I1
sVd1v5ugp
p1376
I1
sVd579wix
p1377
I1
sVdot7l7o
p1378
I2
sVdd1v8nh
p1379
I1
sVdf7y8re
p1380
I1
sVdq2t5y8
p1381
I1
sVczgzfu6
p1382
I1
sVdiilpqb
p1383
I1
sVd3rt0he
p1384
I1
sVdam3j9q
p1385
I1
sVd70vdha
p1386
I1
sVd3kkj68
p1387
I1
sVdkiwenj
p1388
I1
sVdr5o1ik
p1389
I1
sVde5rdqc
p1390
I3
sVd9ig8at
p1391
I1
sVdjfy02n
p1392
I1
sVd4m1iwd
p1393
I1
sVd2or0z1
p1394
I1
sVddq8ppf
p1395
I1
sVd7eu7s3
p1396
I2
sVd0q4z1e
p1397
I1
sVcys7z6v
p1398
I1
sVdmqxbx2
p1399
I1
sVdq1jsgs
p1400
I4
sVdhmry24
p1401
I1
sVdgmsfs1
p1402
I1
sVd2ain7s
p1403
I2
sVd15tnf0
p1404
I1
sVdmevgn4
p1405
I3
sVd0uhin0
p1406
I1
sVd0ke9or
p1407
I1
sVd6pc9ks
p1408
I1
sVd0g0cbv
p1409
I2
sVczu5vow
p1410
I1
sVdd9dku8
p1411
I1
sVdpoimdr
p1412
I1
sVdse4uqj
p1413
I1
sVd5h7rjm
p1414
I1
sVczrh853
p1415
I1
sVdnmiu0g
p1416
I1
sVdcarpe8
p1417
I1
sVdnzpzjw
p1418
I1
sVd04zj33
p1419
I1
sVd4v7bbl
p1420
I1
sVd3is80d
p1421
I2
sVd43tycw
p1422
I1
sVd4mutrj
p1423
I1
sVdjxdq0k
p1424
I1
sVdem734s
p1425
I3
sVczacu5t
p1426
I1
sVd15ww19
p1427
I2
sVd68jucg
p1428
I1
sVd913i3v
p1429
I1
sVdq2ilq2
p1430
I1
sVdou0ibx
p1431
I1
sVd27sfb9
p1432
I1
sVd8g6f70
p1433
I4
sVdcnzeva
p1434
I1
sVczu2w0l
p1435
I1
sVdnbfc43
p1436
I1
sVd4qq778
p1437
I1
sVdn22s5y
p1438
I1
sVd3mol4c
p1439
I1
sVdhl829t
p1440
I1
sVdqgmc6p
p1441
I1
sVde4mnot
p1442
I1
sVd782hv5
p1443
I1
sVdh7zbo7
p1444
I2
sVdgt726t
p1445
I1
sVdqjn4i2
p1446
I3
sVdi7n7dk
p1447
I1
sVd5ryi5o
p1448
I1
sVd1tpt2i
p1449
I1
sVds3cuet
p1450
I1
sVd1bfpzf
p1451
I1
sVdi1y4om
p1452
I1
sVdecjpky
p1453
I2
sVd9687kr
p1454
I1
sVcyps2t0
p1455
I1
sVd5tbpjj
p1456
I1
sVdpfjez7
p1457
I1
sVd0hii9c
p1458
I2
sVd0kyio7
p1459
I1
sVd75b987
p1460
I1
sVd0p005x
p1461
I1
sVdch9zfx
p1462
I1
sVdknmqhe
p1463
I1
sVcyl0mdr
p1464
I2
sVdepygco
p1465
I1
sVczw6i8i
p1466
I1
sVdg9agpn
p1467
I1
sVd01czgw
p1468
I1
sVdc54rrl
p1469
I1
sVcyrqp7g
p1470
I1
sVdb0dfwi
p1471
I1
sVcykc5dc
p1472
I1
sVcynvycd
p1473
I1
sVdj7w0lh
p1474
I1
sVdbt7ifg
p1475
I1
sVd1uhgcf
p1476
I1
sVdim10l1
p1477
I1
sVd6m7cmd
p1478
I1
sVd4mj2sx
p1479
I1
sVd45bq4i
p1480
I5
sVczepcu7
p1481
I1
sVdf8itw0
p1482
I1
sVdftrr14
p1483
I1
sVd86lxya
p1484
I1
sVdb0e7lo
p1485
I1
sVcysn346
p1486
I3
sVd8yrufc
p1487
I1
sVd702e8o
p1488
I2
sVdnvup5x
p1489
I1
sVd7xu11m
p1490
I2
sVd1pcc0p
p1491
I1
sVdqkcfyb
p1492
I1
sVd4vn6al
p1493
I1
sVdtd78mq
p1494
I2
sVd3bi2kd
p1495
I1
sVd09121n
p1496
I1
sVdf0azpo
p1497
I1
sVdoi71m9
p1498
I1
sVdjcku9b
p1499
I1
sVd5d129p
p1500
I1
sVd8ohf6k
p1501
I1
sVdnbmiz3
p1502
I2
sVdmka5se
p1503
I1
sVddy2bj7
p1504
I1
sVd8mdr0x
p1505
I5
sVdfouosn
p1506
I1
sVdiy4t07
p1507
I1
sVdf3rirp
p1508
I1
sVdi0s8eu
p1509
I1
sVdfowvoi
p1510
I1
sVcz8ay5m
p1511
I1
sVd7h8ncb
p1512
I1
sVdpoxa5r
p1513
I1
sVd1cuplz
p1514
I1
sVd58yble
p1515
I1
sVd9pll51
p1516
I1
sVdqds7pg
p1517
I1
sVdbiqg6r
p1518
I1
sVdkthpnh
p1519
I1
sVd6qk8fu
p1520
I1
sVd63jezd
p1521
I1
sVd6cr58g
p1522
I1
sVdhi03d9
p1523
I3
sVcynv73y
p1524
I1
sVd3bc1xo
p1525
I1
sVd3y31rc
p1526
I1
sVd2wirih
p1527
I1
sVdg3qkkx
p1528
I1
sVddtg858
p1529
I1
sVcyued74
p1530
I1
sVd8vhz7h
p1531
I1
sVdnv47r4
p1532
I1
sVd50g7xo
p1533
I1
sVdgwgxa4
p1534
I1
sVdbe1v99
p1535
I1
sVdau08zm
p1536
I1
sVddta001
p1537
I2
sVddzofmc
p1538
I1
sVdi2rdix
p1539
I1
sVd6ohqhc
p1540
I1
sVdmoycf9
p1541
I1
sVddi3f81
p1542
I1
sVd6aigv5
p1543
I1
sVdr94m5o
p1544
I1
sVdcht4tv
p1545
I1
sVd85e7bs
p1546
I1
sVdc7k24t
p1547
I1
sVdf5de98
p1548
I1
sVd04anap
p1549
I1
sVcz3z01b
p1550
I2
sVd89bv68
p1551
I1
sVdawgvsl
p1552
I1
sVdhlovqp
p1553
I1
sVd45y215
p1554
I1
sVcylmmk7
p1555
I1
sVcym0h37
p1556
I1
sVdkrzykx
p1557
I1
sVd131nw2
p1558
I1
sVdhuvqjm
p1559
I3
sVd1ytcyw
p1560
I1
sVd7fb0jo
p1561
I1
sVdjf02he
p1562
I1
sVdbe556n
p1563
I2
sVdhjr8tt
p1564
I1
sVdkoxzp2
p1565
I2
sVdgn6ihv
p1566
I2
sVd8sr8ou
p1567
I1
sVd94n68s
p1568
I1
sVczxprul
p1569
I2
sVdbh7uh0
p1570
I1
sVda52lct
p1571
I1
sVdp2ddx0
p1572
I1
sVddopg9j
p1573
I1
sVd51xp7a
p1574
I1
sVde0yc37
p1575
I3
sVdhdciys
p1576
I1
sVd0cngqg
p1577
I2
sVd0u353a
p1578
I1
sVdov5hf0
p1579
I1
sVd44vke8
p1580
I1
sVdcdu8ml
p1581
I1
sVddqwsyh
p1582
I1
sVd77aox4
p1583
I1
sVddt3n3o
p1584
I1
sVd8u1mog
p1585
I1
sVd1ybgd7
p1586
I1
sVdpg06nu
p1587
I1
sVd27kx5h
p1588
I1
sVdcclggr
p1589
I1
sVd3bxecc
p1590
I2
sVdcaav6h
p1591
I1
sVd92ult6
p1592
I1
sVczcc58r
p1593
I2
sVd1mfxoi
p1594
I1
sVde4rzrt
p1595
I1
sVd3cmdor
p1596
I2
sVd572bno
p1597
I1
sVdd6l4le
p1598
I1
sVdnkubfp
p1599
I2
sVdqju40a
p1600
I2
sVd9ubxfd
p1601
I2
sVdg5hwvb
p1602
I1
sVdg820ky
p1603
I1
sVdejebr3
p1604
I1
sVdbwz7c8
p1605
I1
sVd3m5cgr
p1606
I1
sVdrnoft0
p1607
I2
sVd2a9xji
p1608
I1
sVd7of1w8
p1609
I1
sVdb7kej7
p1610
I3
sVdhwvo45
p1611
I1
sVdpfn1ql
p1612
I1
sVda7gluk
p1613
I1
sVdf7vbq6
p1614
I6
sVd39yewa
p1615
I1
sVd44p3hi
p1616
I1
sVd88dwyh
p1617
I1
sVdo5az91
p1618
I1
sVcyz331n
p1619
I1
sVdaqj7xo
p1620
I1
sVd3e2o3m
p1621
I1
sVdk3ofkt
p1622
I1
sVd0u10uo
p1623
I2
sVd1ys3kp
p1624
I1
sVd1b8nmh
p1625
I1
sVdgkfkt6
p1626
I1
sVd3cl6n6
p1627
I1
sVcyv95z2
p1628
I2
sVd12xgn3
p1629
I1
sVd8p34x4
p1630
I1
sVd8q8trn
p1631
I1
sVd9r5aul
p1632
I1
sVdgjzn5c
p1633
I3
sVdk1enig
p1634
I1
sVczwnxxo
p1635
I1
sVd6ixhun
p1636
I1
sVd3tn9el
p1637
I1
sVcz8c9s9
p1638
I1
sVdcyocts
p1639
I1
sVdeenhli
p1640
I1
sVczpfral
p1641
I1
sVd77blf7
p1642
I3
sVdjpw3rv
p1643
I1
sVdi9yjsf
p1644
I1
sVdk0puaa
p1645
I1
sVddmfaqx
p1646
I2
sVddaol7z
p1647
I2
sVdj2d91t
p1648
I1
sVdq80bcl
p1649
I1
sVd0fbz1r
p1650
I1
sVdh5rnqc
p1651
I1
sVd6ffh0u
p1652
I1
sVdepugc0
p1653
I1
sVd4ivs4t
p1654
I1
sVdn82zz4
p1655
I1
sVdeysih1
p1656
I1
sVd11na6s
p1657
I1
sVd63fsv4
p1658
I1
sVds6d6pe
p1659
I1
sVd75uek1
p1660
I1
sVd31q3mj
p1661
I1
sVd2ek2zb
p1662
I1
sVd6cz7a8
p1663
I1
sVdc65nx8
p1664
I1
sVdgljp7q
p1665
I1
sVdensdae
p1666
I1
sVcyvobd2
p1667
I1
sVdhvddhr
p1668
I1
sVd46786o
p1669
I1
sVdenx4v7
p1670
I2
sVdeezsmk
p1671
I2
sVd74sa35
p1672
I1
sVdecqnwx
p1673
I1
sVd8ojv5u
p1674
I1
sVda5kye6
p1675
I1
sVd76sp3x
p1676
I1
sVcz7s12s
p1677
I1
sVd84102z
p1678
I1
sVd9s7rst
p1679
I1
sVd31825u
p1680
I1
sVcynx8dw
p1681
I1
sVcyvrvxg
p1682
I1
sVd63vt7a
p1683
I1
sVdi332x2
p1684
I1
sVddouvln
p1685
I1
sVd04eynw
p1686
I1
sVczhzwye
p1687
I1
sVd17fb6c
p1688
I1
sVd2jhk8m
p1689
I1
sVd0gyg1r
p1690
I1
sVczto7sf
p1691
I1
sVdef5gxl
p1692
I1
sVd5az5qn
p1693
I1
sVd0txifd
p1694
I1
sVdk673yy
p1695
I1
sVdpeels5
p1696
I3
sVdjydrx1
p1697
I1
sVdbpy88w
p1698
I1
sVda3hvfm
p1699
I3
sVddd7ion
p1700
I1
sVdtdicve
p1701
I2
sVds9lw07
p1702
I1
sVd7wvvdw
p1703
I1
sVd0h3g2s
p1704
I1
sVdmzzdaq
p1705
I1
sVdbywo0f
p1706
I1
sVdhyr9bo
p1707
I1
sVczf7lmw
p1708
I1
sVdbw08z2
p1709
I2
sVdb2c2ro
p1710
I1
sVd2ybrym
p1711
I2
sVdfnc9b2
p1712
I1
sVd2etm4q
p1713
I1
sVd49sicf
p1714
I1
sVdpyskbh
p1715
I1
sVdmo1frp
p1716
I1
sVdeeq1i1
p1717
I1
sVd2pzojq
p1718
I1
sVdn9hyi1
p1719
I1
sVd58z1b1
p1720
I1
sVdsxpjfy
p1721
I1
sVd997i7f
p1722
I1
sVdnsaeu0
p1723
I4
sVdemcq3y
p1724
I1
sVdjteqe4
p1725
I1
sVd3lcdte
p1726
I2
sVdaxmykl
p1727
I1
sVd8x07y5
p1728
I1
sVde76w9n
p1729
I1
sVd1oadq1
p1730
I2
sVdbi5pan
p1731
I1
sVdfnvlow
p1732
I1
sVd1qisdi
p1733
I1
sVd02fjrm
p1734
I2
sVditngnx
p1735
I1
sVddss0az
p1736
I1
sVdddoea5
p1737
I2
sVdsvg6zl
p1738
I1
sVd5o871p
p1739
I1
sVdmss67p
p1740
I1
sVdiezkap
p1741
I1
sVd6ghlr0
p1742
I1
sVdkmcjpf
p1743
I1
sVdethzlj
p1744
I1
sVddd7gn7
p1745
I1
sVd5j2tvs
p1746
I1
sVditrytu
p1747
I1
sVdjyjzzy
p1748
I1
sVdk0mqx2
p1749
I1
sVdpn0kw0
p1750
I1
sVd9h4qej
p1751
I2
sVde3ht8v
p1752
I1
sVd1mr8uz
p1753
I1
sVcyvcv1j
p1754
I2
sVdkk9j2m
p1755
I1
sVdpworhb
p1756
I1
sVddjg6ik
p1757
I1
sVczioza8
p1758
I1
sVd60ip3r
p1759
I1
sVd3ex6vd
p1760
I1
sVcyk8h2v
p1761
I1
sVdhfsdi2
p1762
I1
sVdevess9
p1763
I1
sVd714ers
p1764
I1
sVd2nffkz
p1765
I1
sVddoi2nf
p1766
I1
sVd2o4gt2
p1767
I3
sVd35jy0y
p1768
I1
sVd3n6kiz
p1769
I1
sVddjkpfl
p1770
I1
sVd0389jb
p1771
I1
sVczytf5a
p1772
I1
sVd4vszrz
p1773
I2
sVdghkekg
p1774
I1
sVdcnt8pm
p1775
I1
sVdrx6so4
p1776
I1
sVddqnbwe
p1777
I1
sVdeh09gg
p1778
I1
sVd4uyv9l
p1779
I1
sVczbxvhz
p1780
I1
sVddpn1ea
p1781
I1
sVd08loe4
p1782
I3
sVdi4jv9g
p1783
I1
sVdid6yd8
p1784
I1
sVd7gkoua
p1785
I1
sVdenvpq2
p1786
I1
sVd502mul
p1787
I1
sVcz7yef0
p1788
I1
sVdeajm4a
p1789
I1
sVdbwgo5y
p1790
I1
sVd4r2ipx
p1791
I1
sVd1jdt9p
p1792
I1
sVd472589
p1793
I3
sVd0h6mj3
p1794
I1
sVdbzfuep
p1795
I1
sVcz4x9ql
p1796
I1
sVdaby9zy
p1797
I1
sVdjktng4
p1798
I1
sVd134hsq
p1799
I1
sVd3epy1q
p1800
I1
sVd8bcjtp
p1801
I1
sVd3c5dlv
p1802
I1
sVdd8dvcx
p1803
I1
sVdbj4cne
p1804
I1
sVd0ac0hw
p1805
I1
sVd35eyis
p1806
I1
sVdrsgzi1
p1807
I1
sVczjbmcb
p1808
I1
sVdr5e7k7
p1809
I1
sVdjc23gf
p1810
I1
sVdemfefy
p1811
I1
sVddg2t8t
p1812
I1
sVdnd43b3
p1813
I1
sVcyrynsa
p1814
I1
sVdddqmak
p1815
I2
sVd9k9nif
p1816
I1
sVddttthw
p1817
I1
sVdj51d9y
p1818
I1
sVdbiwwyc
p1819
I1
sVd2sbeya
p1820
I1
sVdbxg6tu
p1821
I1
sVd22n36l
p1822
I1
sVde7xij9
p1823
I1
sVd3kj6rd
p1824
I1
sVdg2a2z6
p1825
I1
sVdb3p6u7
p1826
I2
sVdfj2ye0
p1827
I1
sVcziywdp
p1828
I1
sVdp1kl3z
p1829
I1
sVdguw7ei
p1830
I1
sVd0r4xx3
p1831
I1
sVd791g1i
p1832
I1
sVd237agc
p1833
I1
sVdfir9vk
p1834
I1
sVdd3vypl
p1835
I1
sVdegvqcy
p1836
I1
sVdfg2j8d
p1837
I1
sVd47aphz
p1838
I1
sVdcglad6
p1839
I1
sVdgxb2ib
p1840
I1
sVdheys3u
p1841
I3
sVd97zlrt
p1842
I1
sVdho9x6v
p1843
I1
sVd7u6rb9
p1844
I1
sVd1jynqx
p1845
I1
sVde8kafj
p1846
I2
sVd45byqx
p1847
I1
sVd3c0tli
p1848
I1
sVd2j1548
p1849
I1
sVd1j22ve
p1850
I1
sVdcvowng
p1851
I1
sVdnnevgo
p1852
I1
sVczuvzy5
p1853
I1
sVddxcqu6
p1854
I1
sVd6yb1d7
p1855
I1
sVd8bdjsb
p1856
I1
sVddolbai
p1857
I2
sVd1glew9
p1858
I1
sVdgg3wud
p1859
I2
sVdd96s38
p1860
I1
sVdezyi3j
p1861
I1
sVdjcwze3
p1862
I2
sVdnnrb1p
p1863
I1
sVd1hhd4a
p1864
I1
sVdazcrt1
p1865
I1
sVd18okui
p1866
I2
sVdio17qb
p1867
I1
sVdogvbcs
p1868
I1
sVdeuw3fb
p1869
I1
sVdq6dzws
p1870
I1
sVd345q2q
p1871
I1
sVd0yfvfj
p1872
I1
sVdnw1uqt
p1873
I1
sVdn98kid
p1874
I1
sVd8fkcr4
p1875
I1
sVd306p6i
p1876
I1
sVdrobijc
p1877
I1
sVd1d76l8
p1878
I1
sVdcy94u3
p1879
I1
sVd285rdr
p1880
I1
sVdcbk6uw
p1881
I1
sVdf6tyhy
p1882
I1
sVdeje3fq
p1883
I2
sVd9ynv0n
p1884
I1
sVdpp6drm
p1885
I1
sVdjy3z2v
p1886
I1
sVcyxql8e
p1887
I1
sVdjdff3x
p1888
I1
sVd11af4b
p1889
I1
sVd10tg5l
p1890
I1
sVd1tbs2i
p1891
I1
sVd4nkpl4
p1892
I1
sVdhfadhc
p1893
I1
sVdei9kx6
p1894
I1
sVd2eltgf
p1895
I1
sVd4l5mkv
p1896
I1
sVdingoj5
p1897
I2
sVdek5kku
p1898
I1
sVcyzxhdr
p1899
I1
sVd01t3wg
p1900
I1
sVd8lge1a
p1901
I1
sVd1u5sdq
p1902
I1
sVcz3jl7h
p1903
I2
sVdepu2np
p1904
I1
sVd1xohd2
p1905
I1
sVdkbwsqt
p1906
I1
sVczo2iwu
p1907
I3
sVdc98jiq
p1908
I1
sVd58fwk3
p1909
I1
sVd00ebb2
p1910
I2
sVd4oe38f
p1911
I1
sVdjy4c2m
p1912
I1
sVdp33xd3
p1913
I1
sVcz2yeh1
p1914
I1
sVd8erl22
p1915
I2
sVd5bpn0p
p1916
I1
sVd434rgq
p1917
I1
sVd7l3qxm
p1918
I1
sVd0qeiij
p1919
I1
sVd6mb9ap
p1920
I1
sVdfsb076
p1921
I1
sVdt274p1
p1922
I1
sVd2s8cu4
p1923
I1
sVdnn1zuf
p1924
I1
sVdt6mk2n
p1925
I2
sVdo05ksh
p1926
I1
sVda9i1yg
p1927
I1
sVd26kjh5
p1928
I1
sVcz86637
p1929
I1
sVddcy1ml
p1930
I1
sVdkn2cbo
p1931
I1
sVd72912c
p1932
I2
sVddtjbdy
p1933
I1
sVdha0x6f
p1934
I1
sVd1yotjs
p1935
I1
sVdgoj44t
p1936
I1
sVd9elyb7
p1937
I1
sVd39otg9
p1938
I1
sVdo8hj5z
p1939
I3
sVdkpddy2
p1940
I1
sVdc4cmmh
p1941
I2
sVdeacqa5
p1942
I1
sVdebylqf
p1943
I2
sVdg1vil3
p1944
I1
sVdmnitch
p1945
I1
sVdcbveo8
p1946
I1
sVddi222h
p1947
I1
sVdcuo8ai
p1948
I2
sVdoinit3
p1949
I1
sVd42jp6w
p1950
I1
sVd2t0qko
p1951
I1
sVdrzkwhr
p1952
I1
sVdd9oik2
p1953
I1
sVcysl6nz
p1954
I1
sVda1scru
p1955
I1
sVd8sucgi
p1956
I1
sVd4kymr6
p1957
I1
sVdfuagya
p1958
I1
sVdo614yg
p1959
I1
sVdhri7mz
p1960
I1
sVdj743zy
p1961
I1
sVdcizk5f
p1962
I1
sVd081llt
p1963
I1
sVdkvnykd
p1964
I1
sVd58eggh
p1965
I2
sVdqc2vcb
p1966
I1
sVdjl5ftm
p1967
I1
sVdq3peh0
p1968
I1
sVdqv5ycp
p1969
I1
sVddpkutz
p1970
I1
sVd3gop0s
p1971
I1
sVdneg3oh
p1972
I1
sVd1a2l09
p1973
I1
sVdrhnqck
p1974
I1
sVcz6l3qr
p1975
I1
sVdefehct
p1976
I1
sVcywh0o2
p1977
I2
sVd20fy7v
p1978
I1
sVdd6h80g
p1979
I1
sVd35386o
p1980
I3
sVd3b39zj
p1981
I1
sVcyiphx8
p1982
I1
sVddp00wm
p1983
I1
sVdfwp0hd
p1984
I2
sVd098m9r
p1985
I1
sVd0gxn00
p1986
I1
sVd5y8phf
p1987
I4
sVdpyyoxf
p1988
I1
sVdqk046d
p1989
I1
sVdjluiyd
p1990
I1
sVdei97o9
p1991
I1
sVdde0pre
p1992
I1
sVd3qeto9
p1993
I1
sVcz8loin
p1994
I1
sVczpnp4i
p1995
I1
sVdf836bw
p1996
I1
sVdiq8tiq
p1997
I1
sVde1p4r2
p1998
I2
sVdsvf0g1
p1999
I1
sVdjv3bh7
p2000
I1
sVdomkkni
p2001
I1
sVdd9236v
p2002
I1
sVdbiab40
p2003
I2
sVdbqrxsg
p2004
I1
sVdmnvi0f
p2005
I1
sVd28olbu
p2006
I1
sVdbn9a2w
p2007
I1
sVdenv1pg
p2008
I1
sVdd23zev
p2009
I1
sVdiilvty
p2010
I1
sVdf1yqxv
p2011
I1
sVd9higi6
p2012
I1
sVdcotcjm
p2013
I1
sVdh0nojj
p2014
I1
sVdt8ftpk
p2015
I1
sVd1jpxvj
p2016
I1
sVd56fyuy
p2017
I2
sVd1ttqg9
p2018
I1
sVd29d9dy
p2019
I2
sVdbw288q
p2020
I1
sVd1e6z28
p2021
I1
sVds6yqlp
p2022
I1
sVczgrjbu
p2023
I1
sVd7hlaxd
p2024
I1
sVd3i5s0a
p2025
I2
sVd9hdpw2
p2026
I1
sVdkjrc3m
p2027
I1
sVdkbi1yv
p2028
I1
sVdrdejxy
p2029
I1
sVd78q8xk
p2030
I1
sVddpkfqm
p2031
I1
sVd8anqeu
p2032
I2
sVdnhx6c8
p2033
I1
sVdt4r1uh
p2034
I1
sVdkcfu5c
p2035
I1
sVczzsi0i
p2036
I2
sVcypdu48
p2037
I3
sVdsfhbkp
p2038
I1
sVcyzl65p
p2039
I1
sVd6jkehc
p2040
I1
sVd7etoy9
p2041
I1
sVd4ugclv
p2042
I1
sVdanrsom
p2043
I1
sVdcjysh7
p2044
I1
sVdat65sl
p2045
I1
sVdilimf9
p2046
I1
sVd7rdp5u
p2047
I2
sVdicpjk9
p2048
I1
sVd5jqzfl
p2049
I1
sVd55wdzp
p2050
I2
sVda7g6jv
p2051
I1
sVdrybm6x
p2052
I1
sVdqyxmr6
p2053
I1
sVd43t1sg
p2054
I1
sVd07658y
p2055
I1
sVdh0n6cf
p2056
I1
sVd1tfnpm
p2057
I1
sVdjy7yn2
p2058
I1
sVdpzlur9
p2059
I1
sVd5nbahe
p2060
I1
sVd936wge
p2061
I1
sVdecc2in
p2062
I1
sVdt5y5zh
p2063
I1
sVd1tqra6
p2064
I1
sVdabl86i
p2065
I1
sVddwp9mq
p2066
I1
sVczgaoun
p2067
I1
sVd6gol9z
p2068
I1
sVd8se8gc
p2069
I1
sVdj2krni
p2070
I1
sVdpo5jxv
p2071
I1
sVd0yeepv
p2072
I1
sVd900bsp
p2073
I1
sVdd07lfy
p2074
I1
sVd24lro1
p2075
I1
sVdcka4zq
p2076
I1
sVcyhylo3
p2077
I1
sVdr0qqwf
p2078
I1
sVdtgh6a0
p2079
I1
sVdeypiks
p2080
I1
sVczc5vbo
p2081
I1
sVd1wjlit
p2082
I1
sVdhp7guu
p2083
I1
sVdim3871
p2084
I1
sVdf4jxfk
p2085
I1
sVd5pkdw8
p2086
I1
sVd06dyqy
p2087
I3
sVd49jt85
p2088
I1
sVdbvgzns
p2089
I1
sVd0gucwd
p2090
I4
sVd79vx3n
p2091
I1
sVd84396u
p2092
I1
sVdeal08h
p2093
I2
sVd01wr02
p2094
I1
sVdf5pvkx
p2095
I1
sVd6m4k3e
p2096
I1
sVczd2jc8
p2097
I1
sVdg0pqxw
p2098
I1
sVdr16gv6
p2099
I1
sVd07g19t
p2100
I1
sVd9nmfe9
p2101
I1
sVdeg4qwx
p2102
I1
sVd5er781
p2103
I1
sVcytx6qw
p2104
I2
sVczg40kh
p2105
I2
sVd6c59cl
p2106
I1
sVd5meb37
p2107
I1
sVdag3ml0
p2108
I7
sVd20hmx0
p2109
I1
sVdr0b6k3
p2110
I1
sVdf1jfq2
p2111
I1
sVd3v5kad
p2112
I1
sVd3wuyg8
p2113
I1
sVd94s2gu
p2114
I1
sVd43homr
p2115
I1
sVd4h27wc
p2116
I1
sVd1pxdp3
p2117
I1
sVdqldevm
p2118
I1
sVdmpkrum
p2119
I1
sVdjovsl9
p2120
I1
sVdcy4mw2
p2121
I1
sVda3jq37
p2122
I1
sVdf9ccs8
p2123
I1
sVd3r3khn
p2124
I1
sVdgojmgq
p2125
I1
sVdoxn2fk
p2126
I1
sVd5au9mr
p2127
I1
sVdd7p3ll
p2128
I1
sVde16l3q
p2129
I1
sVd0hn71m
p2130
I1
sVdilj2et
p2131
I1
sVd1yyd4a
p2132
I1
sVd1k77x2
p2133
I1
sVd7fogvf
p2134
I2
sVdecj2sr
p2135
I1
sVd44xlla
p2136
I1
sVd9k30gh
p2137
I1
sVdquina1
p2138
I1
sVdtdxh4f
p2139
I1
sVdgngg9y
p2140
I1
sVdhge7hf
p2141
I1
sVd9gy6zw
p2142
I1
sVd29a5xj
p2143
I1
sVd64o2d3
p2144
I1
sVcymyr8a
p2145
I1
sVcyrr54q
p2146
I1
sVdey5a6c
p2147
I1
sVd4p6wu0
p2148
I1
sVdmiio79
p2149
I1
sVd6wc980
p2150
I1
sVd9zhghq
p2151
I4
sVcyozdr0
p2152
I1
sVd1xtdgn
p2153
I1
sVd7pbfj0
p2154
I3
sVdo2v248
p2155
I1
sVdovq798
p2156
I4
sVdb5juap
p2157
I1
sVd14726k
p2158
I1
sVdqqrrsa
p2159
I1
sVdi1xq10
p2160
I1
sVdctjo1u
p2161
I3
sVczghdm8
p2162
I1
sVd34ko4j
p2163
I1
sVczcutsd
p2164
I1
sVd02fuzx
p2165
I1
sVdbfqkhf
p2166
I1
sVdf5g3qq
p2167
I1
sVd1kxd5p
p2168
I1
sVd4pknbi
p2169
I1
sVd48cob7
p2170
I1
sVdeot4a9
p2171
I2
sVdaz706g
p2172
I1
sVd2z2dqa
p2173
I1
sVdsv9vvx
p2174
I1
sVdfwsd0u
p2175
I2
sVczz6qod
p2176
I2
sVdfz17u2
p2177
I1
sVda2f5vh
p2178
I1
sVddpg98w
p2179
I1
sVd0vabpk
p2180
I1
sVdiyaixv
p2181
I7
sVd01zbpd
p2182
I1
sVdtdjf8j
p2183
I1
sVdo85itr
p2184
I1
sVdfhumfy
p2185
I1
sVdiy8sp4
p2186
I2
sVdj9t3hd
p2187
I1
sVdcc8yqz
p2188
I1
sVd4u1ws9
p2189
I1
sVcymo5iz
p2190
I1
sVd3xtwen
p2191
I1
sVd1yg5yg
p2192
I1
sVd9nvsj3
p2193
I1
sVddik5ct
p2194
I2
sVd3x3pfm
p2195
I1
sVdd1pk3v
p2196
I1
sVds66e1h
p2197
I1
sVdjxi8s6
p2198
I1
sVcytkk5u
p2199
I1
sVd62rgfo
p2200
I1
sVd7943fk
p2201
I1
sVd7f7wai
p2202
I1
sVdrapmtw
p2203
I1
sVd1oz2lk
p2204
I3
sVd0zqnw4
p2205
I1
sVdj7num1
p2206
I1
sVd1681m1
p2207
I1
sVdoix87g
p2208
I1
sVczi883h
p2209
I3
sVdf6qk8d
p2210
I1
sVdj6clbz
p2211
I1
sVd1cdt04
p2212
I1
sVdfdhtkm
p2213
I1
sVdc07iuf
p2214
I1
sVd2hcccn
p2215
I2
sVd7czzxn
p2216
I1
sVd9inb0t
p2217
I1
sVczzt8dk
p2218
I1
sVdhllu5i
p2219
I1
sVdcz65ka
p2220
I1
sVdnr9tnq
p2221
I1
sVdork2za
p2222
I1
sVdcuvlx9
p2223
I1
sVdbzh8hw
p2224
I1
sVczd08td
p2225
I1
sVddwjvgl
p2226
I1
sVdosi9kh
p2227
I1
sVd9nfjel
p2228
I1
sVdhz713e
p2229
I2
sVdt2m286
p2230
I1
sVd1r0f1j
p2231
I1
sVdddkbb4
p2232
I2
sVdf4rtf5
p2233
I1
sVdb80797
p2234
I1
sVdfzsarf
p2235
I1
sVdje4n9y
p2236
I1
sVdhgkfyc
p2237
I1
sVd4ysnp5
p2238
I1
sVd4h60j1
p2239
I1
sVda8981d
p2240
I1
sVde0uszg
p2241
I1
sVddztvf3
p2242
I1
sVcz6rwly
p2243
I4
sVcz4i8bq
p2244
I1
sVdnbk7uu
p2245
I1
sVczht2yl
p2246
I1
sVczd253b
p2247
I3
sVdgoy8ef
p2248
I1
sVddoih7d
p2249
I1
sVd8hv401
p2250
I1
sVd7fkjz4
p2251
I1
sVdcrv1dz
p2252
I1
sVd6e6hfg
p2253
I1
sVdbp4amo
p2254
I1
sVdfk2quv
p2255
I1
sVdsmiebb
p2256
I1
sVdgm7r17
p2257
I1
sVdgxt94o
p2258
I1
sVdkv22dg
p2259
I1
sVdep2vs4
p2260
I1
sVd94ndzp
p2261
I1
sVd9o8shd
p2262
I1
sVdn2cjaq
p2263
I1
sVdefauxt
p2264
I1
sVdcg4nwu
p2265
I1
sVdhg53ge
p2266
I3
sVd2f3rjp
p2267
I1
sVd1a9i76
p2268
I1
sVd8uc936
p2269
I1
sVdbk18yl
p2270
I1
sVdjio8g7
p2271
I6
sVd2o7141
p2272
I1
sVdsxlrjj
p2273
I1
sVdfoy8i6
p2274
I1
sVd5mm5h6
p2275
I1
sVcylo2uq
p2276
I2
sVd3gcydu
p2277
I1
sVdizzq4z
p2278
I1
sVd19gikj
p2279
I1
sVd200kas
p2280
I1
sVczeafyd
p2281
I2
sVd5ubats
p2282
I1
sVd0eslcq
p2283
I1
sVdhlcrjs
p2284
I1
sVd51o8si
p2285
I1
sVdmp4y2e
p2286
I1
sVcyze01v
p2287
I1
sVdmp1ojg
p2288
I1
sVd706llk
p2289
I1
sVd0777j8
p2290
I1
sVd89r86h
p2291
I2
sVd8spqii
p2292
I1
sVd1r3tnn
p2293
I1
sVd2r5cne
p2294
I1
sVd0axpnc
p2295
I2
sVdeavjso
p2296
I2
sVdfdc6xh
p2297
I1
sVd5ahvgd
p2298
I1
sVd6ps6ex
p2299
I1
sVdmqbqc4
p2300
I1
sVd0k4n4d
p2301
I1
sVdhgmogq
p2302
I1
sVd5gpemr
p2303
I1
sVd194k3o
p2304
I1
sVdgh991s
p2305
I1
sVcyt9afb
p2306
I3
sVdekokhw
p2307
I1
sVdmu9tia
p2308
I1
sVd82u9lq
p2309
I3
sVdpmndtl
p2310
I1
sVdickgri
p2311
I1
sVdnq27we
p2312
I1
sVdhe4hlj
p2313
I1
sVdpo8g78
p2314
I2
sVd5mcvmg
p2315
I1
sVdgfh13c
p2316
I1
sVdhne5rb
p2317
I1
sVd2ubgbq
p2318
I2
sVd99lxoo
p2319
I1
sVd25s08b
p2320
I2
sVd1unj20
p2321
I1
sVd7er8ph
p2322
I2
sVd59pszr
p2323
I2
sVczuck42
p2324
I1
sVdem80bt
p2325
I1
sVd84hd2e
p2326
I1
sVdmtmcua
p2327
I1
sVd52ow69
p2328
I1
sVd660zbw
p2329
I1
sVdrsvui7
p2330
I1
sVcyrtpuo
p2331
I1
sVczw730b
p2332
I1
sVd0wo09o
p2333
I3
sVdr7wj0j
p2334
I2
sVdi2bsau
p2335
I1
sVdddl9ao
p2336
I1
sVd2o9904
p2337
I1
sVdkt1xdl
p2338
I1
sVdepbmol
p2339
I1
sVdhkt4nb
p2340
I1
sVd5gu86e
p2341
I1
sVdhrz0ld
p2342
I1
sVd8fhkkk
p2343
I1
sVdgjl3vt
p2344
I2
sVdrtu3go
p2345
I1
sVddztifd
p2346
I1
sVdhvquse
p2347
I1
sVdd8w4mi
p2348
I1
sVdcclpvo
p2349
I1
sVdfrraw9
p2350
I1
sVd2ej5t1
p2351
I1
sVdecba32
p2352
I1
sVd21j9up
p2353
I1
sVd08lpzz
p2354
I1
sVdbb0kol
p2355
I1
sVdte4zap
p2356
I1
sVdht2tnr
p2357
I1
sVdizt9un
p2358
I2
sVddydpuv
p2359
I1
sVd7cfopa
p2360
I1
sVdcw3l4k
p2361
I1
sVdie10tj
p2362
I1
sVdgivd7u
p2363
I2
sVdbie55s
p2364
I1
sVd919eia
p2365
I1
sVd2ate09
p2366
I1
sVd79n10a
p2367
I2
sVd1wooeq
p2368
I1
sVdd62ojh
p2369
I2
sVd1gkftb
p2370
I1
sVd5jov22
p2371
I1
sVddnhdih
p2372
I1
sVds1lkw8
p2373
I1
sVddv6ash
p2374
I1
sVcyog3md
p2375
I1
sVd6wjegk
p2376
I1
sVd72shbn
p2377
I2
sVdjz5y2c
p2378
I1
sVdjn7n6l
p2379
I1
sVd0grfud
p2380
I1
sVda9m3pu
p2381
I1
sVdrsfl2k
p2382
I1
sVd25soxu
p2383
I1
sVdgi6kco
p2384
I1
sVcz8h0g2
p2385
I1
sVdjutnwy
p2386
I1
sVdkrok5f
p2387
I1
sVd04ghm9
p2388
I1
sVdnvp6ou
p2389
I1
sVde7psju
p2390
I1
sVdi11w5k
p2391
I2
sVd4rsl5q
p2392
I1
sVd4akiw8
p2393
I2
sVd2v3i73
p2394
I1
sVdmtgyoa
p2395
I1
sVddnmmd9
p2396
I1
sVd8502ok
p2397
I1
sVd355474
p2398
I1
sVd0iu0n9
p2399
I1
sVd4zsiw3
p2400
I1
sVdeysjje
p2401
I1
sVde2ezco
p2402
I1
sVczuqovw
p2403
I1
sVd598qtm
p2404
I2
sVdkgr8cg
p2405
I1
sVd3e6603
p2406
I1
sVd9qadbu
p2407
I1
sVcz8d9sz
p2408
I1
sVd56gua7
p2409
I1
sVdqhyypq
p2410
I1
sVdnnt3wz
p2411
I1
sVd79hdox
p2412
I2
sVcz3a4f7
p2413
I1
sVdmtbfze
p2414
I3
sVd0mfqul
p2415
I1
sVdhay073
p2416
I2
sVd74sx2s
p2417
I1
sVdg7z782
p2418
I1
sVczv39fp
p2419
I1
sVdn2chiu
p2420
I1
sVd7ycukq
p2421
I1
sVd134xep
p2422
I1
sVd8j8lss
p2423
I1
sVd11jxe4
p2424
I1
sVdatdayx
p2425
I1
sVdtgb40f
p2426
I1
sVcyluo8b
p2427
I1
sVdqxs6fw
p2428
I1
sVdqar7mf
p2429
I1
sVd5yp5af
p2430
I1
sVdf6r5qi
p2431
I1
sVdcr3ty1
p2432
I1
sVd9n1i6s
p2433
I1
sVdbtixq6
p2434
I1
sVddha09v
p2435
I1
sVd5rldhf
p2436
I3
sVd5at418
p2437
I1
sVd93dvo6
p2438
I1
sVcyqva43
p2439
I1
sVd5gpa5o
p2440
I1
sVd0urpbv
p2441
I1
sVda7xl74
p2442
I5
sVd7yn4aw
p2443
I1
sVdrzzhqr
p2444
I1
sVdd445u7
p2445
I1
sVd3zmm0e
p2446
I1
sVcz8cmuq
p2447
I1
sVdcl94lg
p2448
I1
sVdetex2z
p2449
I1
sVdfvvo0h
p2450
I1
sVd0aadyr
p2451
I1
sVdcw5tj7
p2452
I1
sVd0imoaa
p2453
I1
sVdh4wd63
p2454
I1
sVd91lp0m
p2455
I1
sVd24fawe
p2456
I1
sVd1l0aay
p2457
I1
sVdn58pyw
p2458
I1
sVd7t3ysm
p2459
I1
sVdki8iyj
p2460
I1
sVd7nalvg
p2461
I7
sVd9kakq3
p2462
I1
sVczatlur
p2463
I2
sVd0os745
p2464
I1
sVdfwvnr6
p2465
I1
sVdc0irxk
p2466
I1
sVczidpfc
p2467
I1
sVdcidxbv
p2468
I2
sVdd4edbm
p2469
I1
sVddwkpna
p2470
I1
sVd19g03f
p2471
I2
sVd1uhxwl
p2472
I1
sVdi5djh1
p2473
I3
sVd2ziep5
p2474
I1
sVdph1bhz
p2475
I2
sVdaqu50v
p2476
I1
sVdjglvxq
p2477
I1
sVd0squ5g
p2478
I1
sVdk6ekiw
p2479
I6
sVd2s9u28
p2480
I1
sVd8wjm0z
p2481
I1
sVda1cud1
p2482
I2
sVdajayiz
p2483
I1
sVdhdfi16
p2484
I1
sVdfbsjsg
p2485
I1
sVcyv101b
p2486
I1
sVd78oygo
p2487
I1
sVd0g80mh
p2488
I1
sVd175wn1
p2489
I1
sVd5y6i3h
p2490
I1
sVdt2a3rf
p2491
I1
sVddvnfcj
p2492
I1
sVd0nugnx
p2493
I2
sVd18yds6
p2494
I1
sVdmikgfk
p2495
I1
sVd92d5h4
p2496
I2
sVdfw6ksj
p2497
I1
sVdi0d2eq
p2498
I1
sVd1uwjxo
p2499
I1
sVd1tn2tp
p2500
I1
sVd83vng0
p2501
I1
sVd0kjx4q
p2502
I1
sVdcrv10n
p2503
I1
sVdjkscye
p2504
I1
sVczz0ws9
p2505
I1
sVdt8x9vb
p2506
I1
sVde2ng4l
p2507
I2
sVd9bw1jm
p2508
I1
sVdh2wrvg
p2509
I1
sVd94m0ii
p2510
I3
sVdd2aq6y
p2511
I1
sVdav9u43
p2512
I1
sVdav9p9r
p2513
I2
sVd316bpq
p2514
I1
sVd60da6a
p2515
I1
sVd9r9qlt
p2516
I1
sVd9dprsr
p2517
I1
sVdkcjtvg
p2518
I1
sVcyhvueh
p2519
I1
sVdnpld7h
p2520
I1
sVdnhpz6g
p2521
I1
sVczn7pfy
p2522
I1
sVddrvo72
p2523
I1
sVdb7w81h
p2524
I1
sVd2ocm43
p2525
I1
sVdknw2u4
p2526
I1
sVdes0m7r
p2527
I1
sVcywntfr
p2528
I1
sVd5fxil8
p2529
I1
sVda8w53b
p2530
I1
sVdn75suf
p2531
I1
sVd3fyzh8
p2532
I1
sVd15jsep
p2533
I1
sVdd3qflt
p2534
I1
sVdcb9emo
p2535
I1
sVcyn32jt
p2536
I1
sVdcmqir2
p2537
I1
sVd2d4xp2
p2538
I1
sVd8kxbea
p2539
I1
sVcyo2a0p
p2540
I1
sVd1hn318
p2541
I1
sVdejavca
p2542
I1
sVdilxulm
p2543
I2
sVcz17hqh
p2544
I1
sVczm67qc
p2545
I1
sVds52p69
p2546
I1
sVda9akoi
p2547
I1
sVdclmzky
p2548
I2
sVd09xnjm
p2549
I1
sVd08wjq1
p2550
I1
sVd1fmy31
p2551
I1
sVdidt3yk
p2552
I1
sVd6iexel
p2553
I1
sVdajkkcs
p2554
I1
sVdmsh8vp
p2555
I1
sVdcc70sr
p2556
I1
sVd06tdm9
p2557
I1
sVdbabpcn
p2558
I1
sVd2xlbcw
p2559
I1
sVddogeyx
p2560
I1
sVcyy18y1
p2561
I1
sVcz1a0ee
p2562
I1
s.