(dp0
Vcyw32af
p1
I1
s.(dp0
Vcyw32af
p1
I1
sVd1zxn4f
p2
I1
s.(dp0
Vcyw32af
p1
I1
sVd2zlqzl
p2
I1
s.(dp0
Vcyw32af
p1
I1
sVd5i75i4
p2
I1
s.(dp0
Vcyw32af
p1
I1
sVd69ieyf
p2
I1
s.(dp0
Vcyw32af
p1
I1
sVdc66nyq
p2
I1
s.(dp0
Vdez3d9i
p1
I1
sVcyw32af
p2
I1
s.(dp0
Vdez3d9i
p1
I1
sVcyw32af
p2
I1
s.(dp0
Vdf9ajgy
p1
I1
sVcyw32af
p2
I1
s.(dp0
Vcyw32af
p1
I1
sVdg8kw6q
p2
I1
s.(dp0
Vcyw32af
p1
I1
sVdhelmjz
p2
I1
s.(dp0
Vcyw32af
p1
I1
sVdiczp6s
p2
I1
s.(dp0
Vdshrsi9
p1
I1
sVcyw32af
p2
I1
s.