(dp0
Vcyrjzse
p1
I1
s.(dp0
Vcz391k2
p1
I1
sVcyrjzse
p2
I1
s.(dp0
Vcyrjzse
p1
I1
sVcz6hne2
p2
I1
s.(dp0
Vczugsjk
p1
I1
sVcyrjzse
p2
I1
s.(dp0
Vcyrjzse
p1
I1
sVd09hrl2
p2
I1
s.(dp0
Vcyrjzse
p1
I1
sVd0hb4mg
p2
I1
s.(dp0
Vd0yxfxl
p1
I1
sVcyrjzse
p2
I1
s.(dp0
Vcyrjzse
p1
I1
sVd1lgpmx
p2
I1
s.(dp0
Vcyrjzse
p1
I1
sVd1yvz3r
p2
I1
s.(dp0
Vcyrjzse
p1
I1
sVd437q91
p2
I1
s.(dp0
Vcyrjzse
p1
I1
sVd557zvf
p2
I1
s.(dp0
Vcyrjzse
p1
I1
sVd557zvf
p2
I1
s.(dp0
Vcyrjzse
p1
I1
sVd57kk1x
p2
I1
s.(dp0
Vd648t1f
p1
I1
sVcyrjzse
p2
I1
s.(dp0
Vcyrjzse
p1
I1
sVd6r82fv
p2
I1
s.(dp0
Vcyrjzse
p1
I1
sVd7t44dy
p2
I1
s.(dp0
Vcyrjzse
p1
I1
sVd7v11bq
p2
I1
s.(dp0
Vcyrjzse
p1
I1
sVd7x8ze8
p2
I1
s.(dp0
Vcyrjzse
p1
I1
sVd9ebe10
p2
I1
s.(dp0
Vcyrjzse
p1
I1
sVd9t8nrm
p2
I1
s.(dp0
Vcyrjzse
p1
I1
sVdbobit2
p2
I1
s.(dp0
Vcyrjzse
p1
I1
sVdc53g2x
p2
I1
s.(dp0
Vdcwbdzq
p1
I1
sVcyrjzse
p2
I1
s.(dp0
Vcyrjzse
p1
I1
sVdd18762
p2
I1
s.(dp0
Vcyrjzse
p1
I1
sVdd1bk81
p2
I1
s.(dp0
Vdd3pyuf
p1
I1
sVcyrjzse
p2
I1
s.(dp0
Vcyrjzse
p1
I1
sVdd3w2ni
p2
I1
s.(dp0
Vcyrjzse
p1
I1
sVddha09v
p2
I1
s.(dp0
Vcyrjzse
p1
I1
sVddkludn
p2
I1
s.(dp0
Vcyrjzse
p1
I1
sVddx63n1
p2
I1
s.(dp0
Vcyrjzse
p1
I1
sVddxbj79
p2
I1
s.(dp0
Vcyrjzse
p1
I1
sVdfbvs9o
p2
I1
s.(dp0
Vcyrjzse
p1
I1
sVdfbzbbe
p2
I1
s.(dp0
Vcyrjzse
p1
I1
sVdfjd69x
p2
I1
s.(dp0
Vcyrjzse
p1
I1
sVdg170cf
p2
I1
s.(dp0
Vcyrjzse
p1
I1
sVdgllpyv
p2
I1
s.(dp0
Vcyrjzse
p1
I1
sVdhesatn
p2
I1
s.(dp0
Vcyrjzse
p1
I1
sVdiszukj
p2
I1
s.(dp0
Vcyrjzse
p1
I1
sVdjyyrnq
p2
I1
s.(dp0
Vdk4gujt
p1
I1
sVcyrjzse
p2
I1
s.(dp0
Vcyrjzse
p1
I1
sVdkc0yz0
p2
I1
s.(dp0
Vcyrjzse
p1
I1
sVdkrz55m
p2
I1
s.(dp0
Vcyrjzse
p1
I1
sVdnb03qt
p2
I1
s.(dp0
Vdnl2l9d
p1
I1
sVcyrjzse
p2
I1
s.(dp0
Vcyrjzse
p1
I1
sVdofo5ua
p2
I1
s.(dp0
Vcyrjzse
p1
I1
sVdofo5ua
p2
I1
s.(dp0
Vcyrjzse
p1
I1
sVdofo5ua
p2
I1
s.(dp0
Vcyrjzse
p1
I1
sVdq6g1wm
p2
I1
s.(dp0
Vcyrjzse
p1
I1
sVdq6g1wm
p2
I1
s.(dp0
Vcyrjzse
p1
I1
sVdqbh5cg
p2
I1
s.(dp0
Vcyrjzse
p1
I1
sVdrqm1jc
p2
I1
s.(dp0
Vcyrjzse
p1
I1
sVdrzuor6
p2
I1
s.(dp0
Vcyrjzse
p1
I1
sVdszldap
p2
I1
s.(dp0
Vdte486h
p1
I1
sVcyrjzse
p2
I1
s.(dp0
Vcyrjzse
p1
I1
sVdtg4pte
p2
I1
s.