(dp0
Vddolu1q
p1
I1
sVdqni102
p2
I1
sVdogyeff
p3
I1
sVdez3d9i
p4
I1
sVd05wi6n
p5
I1
sVd8pl944
p6
I1
sVd82ajlf
p7
I5
sVd3o7zrd
p8
I2
sVd8okksa
p9
I1
sVdst6cdt
p10
I1
sVcywoxtk
p11
I1
sVdnffe5f
p12
I1
sVddwbtgq
p13
I2
sVd5kcisj
p14
I1
sVdbr35dg
p15
I1
sVdbrg9lv
p16
I1
sVd54gu6u
p17
I3
sVczyt8kx
p18
I7
sVd0o0xxl
p19
I1
sVd9r5c6g
p20
I1
sVd673mnn
p21
I1
sVddzflo8
p22
I1
s.