(dp0
Vdgyn38s
p1
I2
sVd0y57qr
p2
I5
sVd7ieaah
p3
I7
sVd2qzdhd
p4
I4
sVd7f1q7p
p5
I1
sVd1s01bj
p6
I1
sVdrryhgr
p7
I1
sVddi2068
p8
I6
sVdgn13xn
p9
I1
sVddok9gr
p10
I1
sVd255v0k
p11
I1
sVd7enent
p12
I5
sVdsvcabz
p13
I3
sVd2544pz
p14
I1
sVdbmr5sb
p15
I1
sVd13fpe4
p16
I1
sVd54vw4z
p17
I1
s.