(dp0
Vdd7mqsc
p1
I1
sVdb26v4f
p2
I3
sVdot27vq
p3
I5
sVdj8byhg
p4
I4
sVd0qgwy5
p5
I1
sVdai0lk1
p6
I4
sVdf1x1ui
p7
I1
sVd9hwpzk
p8
I1
sVdndett9
p9
I1
sVdb5le7l
p10
I1
sVdnwsoc7
p11
I3
sVdhiqcxe
p12
I1
s.