(dp0
Vddkrpdc
p1
I1
sVdf2ii69
p2
I1
sVd04cdfi
p3
I1
sVdg91d5a
p4
I1
sVd0zi3vv
p5
I3
sVdd3p869
p6
I1
sVdh1mj79
p7
I1
sVd9b3xki
p8
I2
sVd7cpp3u
p9
I1
sVd0hud3e
p10
I1
sVdapmzvc
p11
I1
sVd67r9z4
p12
I1
sVdbgqrto
p13
I1
sVd6no6to
p14
I1
sVdghingb
p15
I1
sVdbspvjw
p16
I1
sVdi3tc9g
p17
I1
sVdqm3i7u
p18
I1
sVdo6c7d4
p19
I1
sVddlipn3
p20
I1
sVd7v1ykp
p21
I1
sVddtwgl0
p22
I1
sVd1csvpj
p23
I1
sVd35tn9q
p24
I2
sVdhnzqai
p25
I1
sVd7a17qm
p26
I1
sVdatb1lr
p27
I1
sVdmvfhua
p28
I1
sVd7x8x9b
p29
I1
sVddz03bv
p30
I1
sVddjhd6g
p31
I1
sVdbzfrco
p32
I1
sVdctjb6l
p33
I1
sVdok5od0
p34
I2
sVdf68hkx
p35
I1
sVcz71va0
p36
I1
sVd5ii1jp
p37
I1
sVdepgy21
p38
I1
sVds3flfd
p39
I1
sVdqjds9k
p40
I1
sVdk09q9w
p41
I1
sVdjkoixg
p42
I1
sVd2jhoz9
p43
I2
sVd0t8hzp
p44
I1
sVd2edvvx
p45
I1
sVdfuoda9
p46
I1
sVdfapmdi
p47
I1
sVd37bwz6
p48
I1
sVd0ss1fc
p49
I1
sVdgubrwf
p50
I1
sVdazdc50
p51
I1
sVdkmto5a
p52
I1
sVdgtwd7b
p53
I1
sVd1v5ugp
p54
I1
sVdcc3pkz
p55
I1
sVdjtxcwq
p56
I2
sVd6x9vmr
p57
I1
sVd14b31m
p58
I1
sVdq9ikzw
p59
I1
sVdnw04tc
p60
I1
sVdte2q0z
p61
I1
sVdrqjr0i
p62
I1
sVdmrftvy
p63
I1
sVd3s6fx2
p64
I2
sVd3m69vn
p65
I1
sVd7h4aih
p66
I1
sVdco9n1f
p67
I1
sVczr4lzs
p68
I1
sVdeha3jp
p69
I1
sVczcb1uh
p70
I1
sVdmuddsa
p71
I1
sVd9yaq5y
p72
I2
sVd900bsp
p73
I1
sVdiyaede
p74
I1
sVdt2bm0g
p75
I1
sVderc7b8
p76
I1
sVczbn3po
p77
I2
sVddkn6cn
p78
I1
sVdiajbko
p79
I1
sVdgar5nf
p80
I2
sVda1740a
p81
I1
sVdjuc9p3
p82
I2
sVdms622i
p83
I1
sVdhpflsw
p84
I1
sVd6f7sc5
p85
I3
sVdij70dx
p86
I1
sVdjdgv60
p87
I1
sVczzajms
p88
I1
sVcyie1j1
p89
I1
sVd6vcmmv
p90
I1
sVd1x34sg
p91
I1
sVd2eke0x
p92
I1
sVd1d9jnn
p93
I1
sVd2k7ym4
p94
I2
sVd18zcvb
p95
I1
sVczgzj47
p96
I1
sVd94ngdz
p97
I1
sVcyizlsu
p98
I1
sVdml6jjh
p99
I3
sVdibfjwo
p100
I1
sVd01ruoq
p101
I1
sVdibvki4
p102
I3
sVdkowvvw
p103
I1
sVdsn7pw5
p104
I1
sVdf9ku3z
p105
I1
sVd8gnird
p106
I1
sVdr4bu35
p107
I1
sVdj2tijl
p108
I1
sVd9rr2it
p109
I1
sVd2snqes
p110
I1
sVd61mft8
p111
I1
sVczj30qh
p112
I1
sVdhdpd6c
p113
I1
sVde4k6x3
p114
I1
sVddbxav0
p115
I1
sVczy55tw
p116
I1
sVdhwnhr1
p117
I1
sVdqtnpsg
p118
I1
sVd6f7cdm
p119
I1
sVczbmi16
p120
I1
sVdcz78on
p121
I1
sVd93pdwj
p122
I1
sVcyz9qcm
p123
I1
sVdqnnx9x
p124
I1
sVda8jfff
p125
I1
sVdqs26ip
p126
I1
sVdj2t96i
p127
I1
sVd1tp7zc
p128
I1
sVdkkkt2c
p129
I1
sVdbmhixt
p130
I1
sVdevf04y
p131
I1
sVd0cjm85
p132
I1
sVdbx4j4t
p133
I1
sVd0exagz
p134
I1
sVdhl9lbk
p135
I1
sVdnr6sna
p136
I1
sVd8xdg3m
p137
I1
sVdhwk0i2
p138
I1
sVdcsoiw6
p139
I1
sVdf058nw
p140
I1
sVd131nw2
p141
I1
sVd1a8hji
p142
I1
sVcz45gu2
p143
I2
sVd2rnks7
p144
I1
sVdpykzye
p145
I1
sVdciwren
p146
I1
sVdn82kr0
p147
I1
sVd78ufgy
p148
I1
sVd1zxn4f
p149
I2
sVdco9v2q
p150
I1
sVd1uyi6l
p151
I2
sVdqbh5cg
p152
I1
sVd7w0oez
p153
I1
sVd6n246x
p154
I1
sVd6f5u0g
p155
I1
sVczbu278
p156
I1
sVdet4dt1
p157
I1
sVd3vd06s
p158
I1
sVdhwhcsg
p159
I1
sVd9n0962
p160
I1
sVd572bno
p161
I1
sVdk1llcf
p162
I1
sVdqw63pa
p163
I2
sVd7fkjz4
p164
I1
sVdc7qa9m
p165
I1
sVczvjjjz
p166
I1
sVd9gm8ju
p167
I1
sVdns1299
p168
I1
sVd3qh8a7
p169
I1
sVd270632
p170
I1
sVdgugxd5
p171
I1
sVd2sk2j7
p172
I1
sVd3y0f9s
p173
I1
sVdqhyo97
p174
I1
sVd9zbe47
p175
I1
sVdjawynj
p176
I1
sVd1qndwx
p177
I1
sVdg6bbaz
p178
I1
sVdjzx2wj
p179
I1
sVd7xj2tt
p180
I1
sVczj1hxg
p181
I1
sVd893wqr
p182
I1
sVd2snpwp
p183
I1
sVda386w7
p184
I1
sVd7ydfbg
p185
I1
sVdhkj83n
p186
I1
sVd459c9b
p187
I1
sVddm16as
p188
I1
sVdi942xr
p189
I1
sVcz2tcbu
p190
I1
sVd1qdhq8
p191
I1
sVdbrh4mm
p192
I1
sVd1yheoj
p193
I1
sVdq1t28n
p194
I1
sVdgng8kn
p195
I1
sVdi9xq59
p196
I1
sVd3mvzti
p197
I1
sVddc33qr
p198
I2
sVd23u14j
p199
I1
sVdb6cl2u
p200
I1
sVddwi07e
p201
I1
sVd08rk2s
p202
I1
sVda2u99w
p203
I1
sVdc2t3dk
p204
I1
sVdgtnvj3
p205
I1
sVdbhnptn
p206
I1
sVd2szuff
p207
I1
sVdecfxvt
p208
I1
sVdauso76
p209
I1
sVdn1mod1
p210
I2
sVd3k1ixa
p211
I1
sVd1ho90o
p212
I1
sVd0rfbr8
p213
I1
sVdnb958o
p214
I1
sVd82mbd4
p215
I1
sVd11n4yi
p216
I1
sVd9jzm1d
p217
I1
sVd9wa56d
p218
I1
sVdkrx003
p219
I1
sVd61n74m
p220
I1
sVczbrdfu
p221
I1
sVdsn04ov
p222
I4
sVdgl4vwp
p223
I2
sVddwkhrv
p224
I1
sVdr5bzwx
p225
I1
sVcz3b6dj
p226
I1
sVda12nqt
p227
I1
sVddm1tv0
p228
I1
sVdb9od93
p229
I1
sVd6nlvdg
p230
I1
sVdcqy2kq
p231
I1
sVd178454
p232
I1
sVd1k5sdm
p233
I1
sVdh382kj
p234
I1
sVczn7p77
p235
I1
sVdf3bl3m
p236
I1
sVd0tqoh5
p237
I1
sVdgy9ysl
p238
I1
sVd5e9ez4
p239
I1
sVdka5mdi
p240
I1
sVd17q7ac
p241
I1
sVd1usbc0
p242
I2
sVdgbx181
p243
I1
sVdi6xjxr
p244
I1
sVd5fst5i
p245
I1
sVd157mq8
p246
I1
sVd4vizph
p247
I1
sVdcauvr8
p248
I1
sVd59xdse
p249
I1
sVdcgc4rf
p250
I1
sVd123vk9
p251
I1
sVdojvi6c
p252
I1
sVda17rhj
p253
I1
sVd9a55s4
p254
I1
sVd6awzzv
p255
I1
sVd1dgeo9
p256
I1
sVddwigkr
p257
I1
sVdh68j0p
p258
I1
sVd99my2n
p259
I1
sVdam1gwi
p260
I1
sVd7lbsg7
p261
I1
sVddpazu6
p262
I1
sVdi80rr6
p263
I1
sVd0p2zpl
p264
I1
sVdjf0zic
p265
I1
sVd8hqw7s
p266
I1
sVdhwkmoq
p267
I1
sVdnn4jse
p268
I1
sVdopnlnf
p269
I1
sVddwi2u3
p270
I1
sVd7ia4b1
p271
I1
sVdelxjyh
p272
I1
sVd95rkoh
p273
I1
sVd8ew8p6
p274
I1
sVd21f7wl
p275
I1
sVd5at418
p276
I1
sVdi32ci1
p277
I1
sVd82gxor
p278
I2
sVd1t82qu
p279
I1
sVczbofzc
p280
I1
sVcz37etp
p281
I1
sVd3jrj5l
p282
I1
sVd0r0jgh
p283
I1
sVczr4a2x
p284
I2
sVdg79ost
p285
I1
sVda3igoc
p286
I1
sVdfom9kx
p287
I1
sVd3j982z
p288
I2
sVd02fx9x
p289
I1
sVd77pbdy
p290
I2
sVd3427wn
p291
I1
sVd1emh1a
p292
I1
sVdjghzqv
p293
I1
sVd3cdgkd
p294
I2
sVd41g5p3
p295
I1
sVd7rz4oa
p296
I1
sVcz2cefl
p297
I1
sVd8rpzzd
p298
I1
sVdio1r2u
p299
I1
sVdjw47kh
p300
I1
sVdio5owe
p301
I1
sVdjz01ti
p302
I1
sVddm1eh9
p303
I1
sVd1v002f
p304
I1
sVd03ev5n
p305
I1
sVdo3chl4
p306
I1
sVd1q9nhy
p307
I1
sVddktxtk
p308
I1
sVdfvr9o6
p309
I1
sVd5ywifo
p310
I1
sVder8lak
p311
I1
sVd505wd2
p312
I1
sVd05mpg3
p313
I1
sVdak20ar
p314
I1
sVd07799f
p315
I1
sVdoy5hcs
p316
I1
sVd2530ac
p317
I1
sVd5etbm3
p318
I2
sVdg2dk3u
p319
I1
sVdbt15wq
p320
I1
sVd1kqzfm
p321
I1
sVddcm4u4
p322
I1
sVczg38lf
p323
I1
sVdidn2da
p324
I1
sVdtab57s
p325
I1
sVdcwpzd3
p326
I1
sVd5iiyr6
p327
I1
sVdh3flbg
p328
I1
sVdj30gk7
p329
I1
sVdrtnz13
p330
I1
sVd084qf9
p331
I1
sVcz4s79w
p332
I2
sVd520ihy
p333
I1
sVd77tmnv
p334
I1
sVdgt73z8
p335
I1
sVd31yirk
p336
I1
sVddvyp6x
p337
I1
sVdajkkcs
p338
I1
sVdihwauf
p339
I1
sVdf81cb6
p340
I1
sVda1gb96
p341
I1
sVcyxvb8q
p342
I1
sVd1wfsg2
p343
I1
sVd1thy7s
p344
I1
s.