(dp0
Vdshyuns
p1
I1
sVczpt36d
p2
I1
sVdaodnq2
p3
I1
sVdohvlvx
p4
I1
sVdqgqe19
p5
I1
sVdb8x67r
p6
I1
sVdgave5x
p7
I1
sVd2my2ee
p8
I1
sVd397x8g
p9
I1
sVdn06sli
p10
I1
sVd2sk2j7
p11
I1
sVdn7j9n9
p12
I1
sVd21f7wl
p13
I1
sVd6rlban
p14
I1
sVd5bqtky
p15
I1
sVczm24bm
p16
I1
sVd53u861
p17
I1
sVcznqqnw
p18
I1
sVd3ol30g
p19
I1
sVdarezud
p20
I1
sVdaodo42
p21
I1
sVdtgdgqv
p22
I1
sVd1wg8yb
p23
I1
sVdsbknv1
p24
I1
sVddt1mcz
p25
I1
sVd3brny0
p26
I1
sVdjj6wsv
p27
I1
sVd33z7us
p28
I1
sVd6i73ri
p29
I1
s.