(dp0
Vdgzgwnz
p1
I1
sVdktvvrw
p2
I1
sVd7fzci2
p3
I1
sVdshayng
p4
I1
sVdbfh811
p5
I1
sVd07xi6s
p6
I2
sVdpyj83r
p7
I1
sVd63ojff
p8
I1
sVdg61dib
p9
I1
sVdhfsr5s
p10
I1
sVdhzdfo1
p11
I1
sVdhq0uhn
p12
I1
sVdgfzfui
p13
I1
sVd32c43o
p14
I1
sVdkt2enw
p15
I1
sVdcqck5m
p16
I1
sVdq226fp
p17
I1
sVd27tn2m
p18
I1
sVd1r49em
p19
I1
sVd1pbmeo
p20
I1
sVd2d4efg
p21
I1
sVczbhoij
p22
I4
sVdan9ozj
p23
I1
sVdn8faao
p24
I1
sVdbxr9uo
p25
I1
sVdcks810
p26
I1
sVdsos7r1
p27
I1
sVd4vqwz6
p28
I1
sVd7wrbi0
p29
I1
sVdjaanjs
p30
I1
sVdo7egob
p31
I1
sVd27tsrr
p32
I1
sVdfvd87v
p33
I1
sVddzamb3
p34
I1
sVdc2s7mf
p35
I1
sVd1y7y4l
p36
I1
sVdgp7bxn
p37
I1
sVdatuwtd
p38
I1
sVd5z8ug3
p39
I1
sVdi0czmj
p40
I1
sVdi2xl5n
p41
I1
sVdh3us7i
p42
I1
sVdrljnwj
p43
I1
sVcyoaona
p44
I1
sVdicrt87
p45
I1
sVdjb3bei
p46
I1
sVd20x7lm
p47
I1
sVdext1nu
p48
I1
sVdmhrrp3
p49
I1
sVcz3s1y8
p50
I1
sVczvorbu
p51
I1
sVdadex3a
p52
I1
sVdjooejv
p53
I1
sVdeuvqaq
p54
I1
sVd1yu5v0
p55
I1
sVdfikfrz
p56
I1
sVd08ssy7
p57
I1
sVditp5ib
p58
I1
sVdbfk9qh
p59
I1
sVd3c0tli
p60
I1
sVdrxcpcz
p61
I1
sVd2xdosw
p62
I2
sVdpmqkve
p63
I1
sVdikal25
p64
I1
sVdrjdd1k
p65
I1
sVdjxujex
p66
I2
sVdnwzi1f
p67
I1
sVd33wzpk
p68
I1
sVd2bvtg8
p69
I2
sVdawx1ap
p70
I1
sVd1q8gg6
p71
I1
sVd74zsp0
p72
I2
sVczoflja
p73
I1
sVdogvbcs
p74
I1
sVczv8g7d
p75
I1
sVd599vkh
p76
I1
sVdi72ilk
p77
I1
sVczz4f90
p78
I1
sVdf23mt1
p79
I1
sVd2xs753
p80
I1
sVcykf5g7
p81
I1
sVdfvkt12
p82
I1
sVd3ha8h4
p83
I1
sVd8cjv3c
p84
I1
sVdpm48rk
p85
I1
sVdsfdh4h
p86
I1
sVdevryzb
p87
I1
sVddgycpq
p88
I1
sVd1ze0tg
p89
I1
sVd1gx3ld
p90
I1
sVdjs188t
p91
I1
sVdq8873l
p92
I1
sVdbhopt2
p93
I1
sVd248jas
p94
I1
sVdsh5bry
p95
I1
sVddtkfir
p96
I1
sVd5nxrq5
p97
I1
sVdays9cy
p98
I1
sVd6a0w61
p99
I1
sVd6rtni9
p100
I1
sVd4xdaz8
p101
I1
sVd63nyvy
p102
I1
sVd1sqrin
p103
I1
sVdicp1ad
p104
I1
sVdmln9xu
p105
I1
sVd99fy9s
p106
I1
sVdatteqb
p107
I2
sVcz1m55d
p108
I1
sVczwadjl
p109
I1
sVdmes5o6
p110
I1
sVd382yw2
p111
I1
sVde8ij2m
p112
I1
sVd1fp2la
p113
I1
sVdjej4oy
p114
I1
sVdjymdm6
p115
I1
sVdd1i39r
p116
I1
sVd5f2p1i
p117
I1
sVdt887f9
p118
I1
sVdks0lib
p119
I1
sVd1n9go2
p120
I1
sVd7901gv
p121
I1
sVcyrtmnp
p122
I1
sVdhlu13g
p123
I1
sVd2y72n6
p124
I1
sVdrxcxui
p125
I1
sVdgps820
p126
I1
sVdkirw4j
p127
I1
sVd7cuv46
p128
I1
sVcz9no0e
p129
I1
sVdf37r6t
p130
I1
sVd1qc4g0
p131
I1
sVdcauvr8
p132
I1
sVcyk24of
p133
I1
sVcz4szvd
p134
I1
sVd7hw1dt
p135
I1
sVd0m3jms
p136
I1
sVd69e936
p137
I1
sVcz83hg2
p138
I1
sVdkshz8r
p139
I1
sVdfgqa0k
p140
I1
sVdn10ej6
p141
I2
sVczgofyn
p142
I1
sVdcnf5mk
p143
I1
sVdqpr92t
p144
I1
sVdfy0mfj
p145
I1
sVdd5y7m6
p146
I1
sVdg9o40j
p147
I1
sVd4zbk3y
p148
I1
s.