(dp0
Vd9rlzl6
p1
I1
sVdberiay
p2
I1
sVczp4cjm
p3
I1
sVd3vxoz3
p4
I1
sVdqgqe19
p5
I1
sVd5jf5b9
p6
I1
sVdhgry0j
p7
I3
sVdnxzuph
p8
I1
sVd3xqc2g
p9
I1
sVd2xlmt5
p10
I2
sVdklgf3l
p11
I1
sVdgv76hb
p12
I1
sVdojcize
p13
I1
sVdbddru1
p14
I1
sVdgac3ol
p15
I1
sVdq9mqs1
p16
I1
sVd2z8xqv
p17
I2
sVczt6ejk
p18
I1
sVds4xa68
p19
I2
sVd23yx1q
p20
I1
sVd68xkgd
p21
I1
sVddmqn06
p22
I1
sVd9py3ic
p23
I1
sVczsfwi6
p24
I1
sVd538gue
p25
I1
sVdfidbmh
p26
I1
sVdqchmjj
p27
I1
sVdccnlnj
p28
I3
sVd7gp5vs
p29
I1
sVd9lfu5m
p30
I1
sVderk568
p31
I1
sVdp5mrk9
p32
I1
sVda3cq47
p33
I1
sVdgf9bra
p34
I1
sVda72umu
p35
I3
sVd0j4sxj
p36
I1
sVd8056rp
p37
I1
sVd0nrwys
p38
I1
sVdj22ixm
p39
I1
sVdn7ddkv
p40
I2
sVd064zty
p41
I1
sVdeqa0op
p42
I1
sVd3nka4e
p43
I1
sVd9pz6gc
p44
I1
sVd384rpl
p45
I1
sVdqwn6zn
p46
I1
sVdan3tcu
p47
I1
sVda3coet
p48
I1
sVdavsu2n
p49
I1
sVdfnxufk
p50
I1
sVdigprca
p51
I1
sVdgvd9ni
p52
I2
sVdqgi42o
p53
I1
sVdemsj8p
p54
I1
sVdiycgn6
p55
I1
sVdhprya6
p56
I2
sVdq5wovt
p57
I1
sVdd1l6pk
p58
I1
sVdp8aj6w
p59
I1
sVd59edq7
p60
I1
sVdb58x06
p61
I2
sVdbaebxd
p62
I1
sVd9cfkw0
p63
I1
sVdjg4knx
p64
I1
sVder52ob
p65
I1
sVd8k0671
p66
I1
sVd1627lt
p67
I1
sVdjc0q6i
p68
I1
sVdnqhp8f
p69
I2
sVdcjphqr
p70
I1
sVd1ixbbp
p71
I3
sVda8055p
p72
I1
sVd0v2mtq
p73
I1
sVcz582wo
p74
I2
sVdqp84e8
p75
I2
sVd06a1n5
p76
I1
sVd7h4p6c
p77
I1
sVd3udq8y
p78
I1
sVdgmma4u
p79
I1
sVdod0lza
p80
I1
sVdfmh5yv
p81
I1
sVcyoji4a
p82
I1
sVdr66ozn
p83
I1
sVdcnzeva
p84
I1
sVdgtvnnr
p85
I1
sVdqx2aq9
p86
I1
sVd4sxerx
p87
I1
sVdigzo3s
p88
I1
sVd2bqgke
p89
I1
sVd0qodfh
p90
I1
sVd0sz5g8
p91
I1
sVd99sqs2
p92
I1
sVd46xfgm
p93
I3
s.