(dp0
Vdemsoir
p1
I1
sVd37pr1h
p2
I1
sVdnbifeh
p3
I1
sVdct1aaa
p4
I1
sVd28u500
p5
I1
sVddshix2
p6
I1
sVd0rdunk
p7
I1
sVdhz5kuu
p8
I1
sVdfnh3nj
p9
I1
sVdkm96ia
p10
I1
sVcz6v93s
p11
I1
sVd9tg964
p12
I2
sVd88pf85
p13
I1
sVdd198oa
p14
I1
sVd1jxpr2
p15
I1
sVdd8cxry
p16
I1
sVdac0i1k
p17
I1
sVd1bbbqr
p18
I1
sVdfgo6qx
p19
I1
sVdele7i8
p20
I1
sVdd9z0rk
p21
I1
sVcynrmwy
p22
I1
sVd1emb1w
p23
I1
sVdcz5bxd
p24
I1
sVd2kmqxf
p25
I1
sVczgv1nx
p26
I1
sVdkkpefo
p27
I1
sVdfnhwsc
p28
I1
sVdfal6d9
p29
I1
sVdatmk0j
p30
I1
sVdcefllx
p31
I1
sVd1ziyho
p32
I1
sVd4u4duo
p33
I1
sVdch9zfx
p34
I1
sVd65ctfe
p35
I1
sVcyibhtc
p36
I1
sVdcro9qw
p37
I1
sVdas5sue
p38
I1
sVczrcuya
p39
I1
sVdpqvs80
p40
I1
sVdj2vm22
p41
I1
sVd6j3qfh
p42
I1
sVd2ep0fe
p43
I1
sVd0b70a3
p44
I1
sVd09gbq0
p45
I1
sVcyi9vk2
p46
I1
sVcz5caco
p47
I1
sVdpiq6da
p48
I1
sVdsv2uhg
p49
I1
sVddx167c
p50
I1
sVdb8jed9
p51
I1
sVdg7c9ov
p52
I1
sVd868ae3
p53
I1
sVdac4ob2
p54
I2
sVddqrzd0
p55
I1
sVdjbmzb3
p56
I1
sVczm8sek
p57
I1
sVdpamqmi
p58
I1
sVdh4q0ul
p59
I1
sVd0eo3gy
p60
I1
sVdob9cct
p61
I1
sVdiv4e2c
p62
I1
sVdbloezq
p63
I1
sVdizh52o
p64
I1
sVdeh8uii
p65
I1
sVd8nej0m
p66
I1
sVdd5ne1s
p67
I1
sVd8g5rqp
p68
I1
sVd31ybxj
p69
I1
sVd37mk55
p70
I1
sVdi7w65g
p71
I1
sVdj5e4xq
p72
I1
sVde2ibub
p73
I1
sVdhd6pfj
p74
I1
s.