(dp0
Vd1dl0q2
p1
I1
sVczvp8me
p2
I1
sVd27cpo5
p3
I1
sVdrbyqgr
p4
I2
sVdqij8oc
p5
I1
sVdacj4a2
p6
I1
sVdb7eeex
p7
I1
sVdmjouz6
p8
I1
sVdrsz15l
p9
I1
sVdn0b04y
p10
I1
sVd86n004
p11
I1
sVdji1mq3
p12
I1
sVd0wvgzb
p13
I1
sVdfvqsk0
p14
I1
sVd1e7733
p15
I1
sVdgmeq54
p16
I1
sVcziccox
p17
I1
sVdc444gm
p18
I1
sVd3xasvo
p19
I1
sVd7ggt5i
p20
I1
sVdd1i39r
p21
I1
sVd1eny0k
p22
I1
sVdjrnjk7
p23
I1
sVd858y1m
p24
I1
sVdav0ixe
p25
I1
sVd40ee20
p26
I1
sVdnw6clo
p27
I1
sVdrt6ix8
p28
I1
sVdscoh7b
p29
I1
sVdj03coa
p30
I1
sVdko8x8b
p31
I1
sVd2qexzn
p32
I1
sVdav9mwq
p33
I1
sVdbjsz2s
p34
I1
sVde2df1y
p35
I1
sVdforhsz
p36
I1
sVd9reqw5
p37
I1
sVdby1xq1
p38
I1
sVdrsnag8
p39
I1
sVdoua63s
p40
I1
sVdaaew0b
p41
I1
sVd2smvv5
p42
I1
sVdbkkjix
p43
I6
sVd9aydjn
p44
I1
sVd52rwdx
p45
I1
sVd77an3w
p46
I1
sVd03dqdr
p47
I2
sVd4xlpuy
p48
I1
sVddodfzo
p49
I1
sVd5oozqg
p50
I1
sVdgke41f
p51
I1
sVd3hhpjd
p52
I1
sVd06e83x
p53
I1
sVd5fyn6y
p54
I1
sVdcjtbjc
p55
I1
sVd5cimkv
p56
I1
sVd3k2nnx
p57
I2
sVd33wg7v
p58
I1
sVdcycznp
p59
I1
sVd9houz0
p60
I1
sVczg6aqz
p61
I1
sVdbjsyj2
p62
I1
sVd2yziov
p63
I1
sVd45cog0
p64
I1
sVdcafgyt
p65
I1
sVdaa6jhg
p66
I1
sVdnhhk3h
p67
I1
sVd2nh5x0
p68
I2
sVcz1yr9o
p69
I1
sVd8gac47
p70
I1
sVdbku3pg
p71
I1
sVdpfb14e
p72
I1
sVczzcojq
p73
I1
sVd3ydvax
p74
I1
sVdnjpz40
p75
I1
s.