(dp0
Vdkatl7e
p1
I1
sVdjwrxq6
p2
I1
sVd910ie0
p3
I1
sVd1rcf8t
p4
I1
sVd6rtni9
p5
I1
sVdnd5391
p6
I1
sVdmm8fwg
p7
I1
sVdjkbabt
p8
I2
sVddvt2ei
p9
I1
sVd9ms8k3
p10
I1
sVdcsqh1z
p11
I1
sVdccn05h
p12
I1
sVdjlxphw
p13
I1
sVd4r0ecm
p14
I1
sVd3woi8e
p15
I2
sVd0pyizi
p16
I1
sVdb72ays
p17
I2
sVcz0qpzg
p18
I1
sVdb88763
p19
I3
sVdgmoac2
p20
I1
sVd0rbzbn
p21
I1
sVdaxj255
p22
I1
sVdbxpryd
p23
I1
sVdfc70bx
p24
I1
sVdfaemyk
p25
I2
sVd6eopyq
p26
I2
sVdsa3ipp
p27
I1
sVdjsju9f
p28
I1
sVd6ma4k6
p29
I1
sVd7wuiq5
p30
I1
sVdbcyq2j
p31
I1
sVdc5pcsx
p32
I1
sVd23asbv
p33
I1
sVdd7gb2f
p34
I2
sVdcz4w0t
p35
I1
sVd9ci83r
p36
I1
sVdf99tgq
p37
I1
sVd8rsrte
p38
I1
sVd1v2hpd
p39
I1
sVd9dtk0q
p40
I1
sVd0b4d9m
p41
I1
sVdikdnyt
p42
I1
sVd7lqx1d
p43
I2
sVdc5rju5
p44
I1
sVdqcf7nt
p45
I1
sVdnppf2h
p46
I4
sVdgzmgy3
p47
I1
sVdpz5okn
p48
I2
sVde9ld75
p49
I1
sVd7gbi2a
p50
I2
sVd4ijm32
p51
I1
sVdg9ow0t
p52
I1
sVd1wykp4
p53
I1
sVdkiusyi
p54
I1
sVddnxryv
p55
I1
sVdc9nj69
p56
I1
sVd629oci
p57
I2
sVdcunugs
p58
I1
sVdh1qrh9
p59
I1
sVdh97irn
p60
I2
sVdokhafb
p61
I1
sVdaylrq6
p62
I1
sVde3paq3
p63
I1
sVd9n0jhx
p64
I1
sVd2odrqo
p65
I2
sVd382yw2
p66
I1
sVdiqemqh
p67
I1
sVdhprya6
p68
I2
sVdbes403
p69
I1
sVdjbm59u
p70
I1
sVd2i60so
p71
I6
sVdjwvsma
p72
I3
sVd4mh5i6
p73
I1
sVd2bq9ff
p74
I1
sVd2vyckp
p75
I1
sVdc9v8k4
p76
I1
sVd4fjcxm
p77
I1
sVdbrr0ez
p78
I1
sVdgrhn0s
p79
I1
sVdcjxlhy
p80
I1
sVczygp29
p81
I1
sVdtim49e
p82
I1
sVdew9rk9
p83
I1
sVd8nvkbt
p84
I4
sVd5hpw2t
p85
I1
sVd0oab6k
p86
I1
sVdd4tr95
p87
I1
sVdj27a6y
p88
I1
sVd5q99lv
p89
I1
sVdjsepts
p90
I1
sVdas6nvp
p91
I1
sVd9fb91l
p92
I1
sVcyvtpds
p93
I1
sVd7rpzr8
p94
I1
sVd9cv7vi
p95
I2
sVdeeyczm
p96
I1
sVd1ms6du
p97
I1
sVdn6q0g3
p98
I1
sVd4cea9h
p99
I1
sVdogr88i
p100
I1
sVdklceji
p101
I1
sVdsqhtwr
p102
I1
sVdnxt4yd
p103
I1
sVd3v5utd
p104
I1
sVd0a3lko
p105
I1
sVdf584yv
p106
I2
sVd3395v1
p107
I1
sVdfz9i21
p108
I1
sVddomjd8
p109
I1
sVdhhnpto
p110
I1
sVdpq42hi
p111
I1
sVcz3qu8j
p112
I1
sVdihiwit
p113
I1
sVddiihql
p114
I8
sVczyytdg
p115
I1
sVcz4ipmb
p116
I1
sVd0vwnre
p117
I1
sVdpdl3jt
p118
I1
sVd9crfwp
p119
I1
sVdkywglw
p120
I1
sVdimzsbq
p121
I1
sVd25lvbd
p122
I1
sVd1x0cdy
p123
I1
sVd4un2vo
p124
I1
sVdh0uhaf
p125
I1
sVdjo0i8a
p126
I1
sVd82qck3
p127
I1
sVd0yqfe4
p128
I2
sVd89u33b
p129
I3
sVczc8fie
p130
I1
sVd39n07i
p131
I1
sVdo18yeh
p132
I1
sVdc8d5yn
p133
I2
sVd4uz9x8
p134
I1
sVdn892w5
p135
I2
sVd9xsmou
p136
I2
sVd2ub9wh
p137
I1
sVd0a916r
p138
I1
sVd1vqmra
p139
I1
sVd139wyw
p140
I2
sVdasch6c
p141
I2
sVdpq3xu3
p142
I2
sVde15mls
p143
I2
sVd3uoe8b
p144
I6
sVd57qt7g
p145
I1
sVd4qx064
p146
I1
sVdew4u0b
p147
I1
sVdmyurti
p148
I1
sVdexazxf
p149
I1
sVdjkh8xz
p150
I1
sVd9rwb26
p151
I1
sVdei0nlf
p152
I1
sVd2lrvlw
p153
I2
sVdeoafxq
p154
I2
sVdhsz8yg
p155
I1
sVd80lf9n
p156
I1
sVcynpwwg
p157
I1
sVdssgozg
p158
I1
sVd63jezd
p159
I1
sVdkchzds
p160
I1
sVdmluhlp
p161
I1
sVczgkzz3
p162
I1
sVcztke2l
p163
I1
sVdahpjkg
p164
I1
sVdb5qnzp
p165
I1
sVcyoo5fo
p166
I2
sVd83v108
p167
I2
sVd1q4y9x
p168
I2
sVdhaaa75
p169
I1
sVd73h3q6
p170
I1
sVcym4xqb
p171
I1
sVdf57h1m
p172
I4
sVdjbzit8
p173
I1
sVddx8iau
p174
I1
sVd2c3pi2
p175
I1
sVdkajp5t
p176
I2
sVd2poc19
p177
I1
sVd13zynd
p178
I2
sVdh2ocmh
p179
I2
sVdn28q0u
p180
I1
sVdsqdudd
p181
I1
sVddq0mbw
p182
I1
sVdk1sxnb
p183
I1
sVd3016c4
p184
I1
sVd0i30nt
p185
I1
sVds5sjgk
p186
I2
sVd85283h
p187
I1
sVd0bvd7x
p188
I1
sVdta29s7
p189
I1
sVdbo40k1
p190
I2
sVd5bfqcm
p191
I7
sVd3t9jld
p192
I1
sVdiwm778
p193
I1
sVdg7vv8p
p194
I1
sVdghlqaz
p195
I1
sVdfkpith
p196
I1
sVd5381wj
p197
I2
sVdoimv21
p198
I1
sVdahjmjy
p199
I1
sVcza9r9r
p200
I1
sVd5rseyy
p201
I1
sVdje9kot
p202
I1
sVdgwuvud
p203
I1
sVd0v83p2
p204
I1
sVdhzrx0i
p205
I3
sVd5e8jrt
p206
I1
sVdguua55
p207
I1
sVdfeczac
p208
I1
sVdti07wk
p209
I1
sVdcf4qi1
p210
I2
sVcyly2xs
p211
I1
sVd7jzqa6
p212
I1
sVcz15msm
p213
I1
sVdjkrrxj
p214
I2
sVd5mzw75
p215
I1
sVd7grkkw
p216
I2
sVdfk1fuw
p217
I5
sVdg6hlzf
p218
I1
sVdk0lg9r
p219
I2
sVd19193w
p220
I1
sVcz7kx58
p221
I2
sVd6ir1t7
p222
I1
sVdpydkwn
p223
I1
sVdatolfx
p224
I1
sVdr4t5wt
p225
I1
sVdjzsaqj
p226
I1
sVdcfti6d
p227
I1
sVdd3doej
p228
I2
sVd4ce606
p229
I4
sVd88s2y6
p230
I1
sVd7718sz
p231
I1
sVd4orjoo
p232
I1
sVdew3thr
p233
I1
sVdk6vx7d
p234
I1
sVdaedlo8
p235
I1
sVde1y8wy
p236
I1
sVcza1vzq
p237
I1
sVdc8ogpa
p238
I2
sVd4x5bd0
p239
I1
sVdd6oiqn
p240
I1
sVd1gp78q
p241
I2
sVd1qqyk4
p242
I4
sVd1hrp5b
p243
I1
sVcz4vka8
p244
I1
sVd1h7q5j
p245
I1
sVd1k0chc
p246
I1
sVdd59v1u
p247
I1
sVdapjcun
p248
I1
sVdcnzo7m
p249
I2
sVdj3awni
p250
I1
sVdmww1ur
p251
I1
sVdeav75x
p252
I1
sVd58sipp
p253
I1
sVdp05rn8
p254
I1
sVd84vg2j
p255
I1
sVd49gkzi
p256
I1
sVdahjpl8
p257
I1
sVdjniwx6
p258
I5
sVdelmdwu
p259
I1
sVd0w1k4o
p260
I2
sVczj1ilz
p261
I1
sVde4c8wo
p262
I1
sVdgisjaq
p263
I1
sVdi74myh
p264
I1
sVd299571
p265
I1
sVd401s57
p266
I1
sVdi4fzt2
p267
I1
sVd6ib10v
p268
I1
sVdgl4vwp
p269
I5
sVdhl9o63
p270
I8
sVdk0ajk8
p271
I1
sVd6ijwlq
p272
I1
sVd322ehe
p273
I1
sVdhac54p
p274
I1
sVdfte33o
p275
I1
sVd17gp2p
p276
I1
sVdqqfi9t
p277
I1
sVd15meaz
p278
I1
sVd0kxdn7
p279
I1
sVcywjls8
p280
I1
sVd2bqt1c
p281
I1
sVdhslbby
p282
I2
sVcza2nvj
p283
I1
sVdgyt7we
p284
I1
sVde10nh4
p285
I2
sVd2i8qvc
p286
I1
sVd4q3ssf
p287
I1
sVd4x9zma
p288
I3
sVdemp8lz
p289
I1
sVd2p9lfh
p290
I1
sVd745mab
p291
I1
sVdcxqw6e
p292
I1
sVdiyqn9p
p293
I1
sVd4u957q
p294
I1
sVczytsjc
p295
I1
sVd942h8t
p296
I1
sVdebuf80
p297
I2
sVdbhjyyu
p298
I1
sVds57b8f
p299
I1
sVdh80r2h
p300
I1
sVdkrlt5x
p301
I1
sVd8mhzr4
p302
I1
sVdapmhuy
p303
I4
sVd084vvx
p304
I3
sVdqx1vj4
p305
I1
sVd4apno8
p306
I1
sVd72t9he
p307
I1
sVdrdvm3y
p308
I1
sVd3b0ndj
p309
I1
sVd9dyv8i
p310
I1
sVd2l38l9
p311
I1
sVd6ibn22
p312
I2
sVczzbig7
p313
I1
sVdo7hzz3
p314
I1
sVd05mhsg
p315
I1
sVde0oybq
p316
I1
sVddjvgqc
p317
I1
sVdiph8th
p318
I1
sVd7cuvkt
p319
I1
sVd30jn04
p320
I1
sVdhz47e3
p321
I1
sVd39fnlh
p322
I1
sVdp5i39b
p323
I2
sVdqd7osr
p324
I3
sVdpa2kqp
p325
I7
sVd8rjxhv
p326
I1
sVdmweo8l
p327
I1
sVdoe2c5l
p328
I1
sVdju5oj0
p329
I1
sVdb8ir4u
p330
I1
sVdb4jcc3
p331
I1
sVdbyl0mf
p332
I1
sVds5zmrw
p333
I4
sVd0a863n
p334
I1
sVd8m44t1
p335
I1
sVd4ks7hv
p336
I1
sVd0yzpfb
p337
I1
sVdigddak
p338
I1
sVcyl2xxy
p339
I3
sVczbto6t
p340
I1
sVczveafu
p341
I3
sVdjz201a
p342
I1
sVdkoyr7l
p343
I1
sVdhdk4qf
p344
I1
sVczxlgcv
p345
I1
sVdpqs9ts
p346
I3
sVd0n7ngg
p347
I1
sVd0venvw
p348
I1
sVd0364o2
p349
I1
sVdbrzrh4
p350
I1
sVdtbhu55
p351
I1
sVdiyds1t
p352
I1
sVdmuo92y
p353
I1
sVd9disid
p354
I1
sVd4brs26
p355
I1
sVdnd9pzg
p356
I10
sVdk7qpeq
p357
I2
sVdkz6wwq
p358
I1
sVdc8j4se
p359
I1
sVd3ik4nq
p360
I1
sVdezc35a
p361
I2
sVde6in2z
p362
I2
sVdkkpefo
p363
I2
sVcykdv8a
p364
I1
sVd6zm6im
p365
I1
sVczxmlw5
p366
I11
sVdhykey3
p367
I1
sVd1rpm77
p368
I2
sVdj4blsu
p369
I1
sVdiwf2j2
p370
I2
sVdmezdgj
p371
I1
sVda9rw8m
p372
I2
sVd8d7g45
p373
I1
sVd30my60
p374
I1
sVd6h74uc
p375
I1
sVdd16p15
p376
I1
sVd0puhvo
p377
I1
sVdpfndbb
p378
I2
sVd2ei8w7
p379
I2
sVdfio3aw
p380
I1
sVd6g9tw1
p381
I1
sVczg3hu4
p382
I6
sVd67ek5y
p383
I1
sVdb467dm
p384
I2
sVdacnwij
p385
I1
sVddgn1j4
p386
I1
sVd42u5pt
p387
I2
sVd95byzx
p388
I1
sVdopkcth
p389
I2
sVd7jrnrk
p390
I1
sVd0ukste
p391
I1
sVdh056ii
p392
I1
sVd314ev1
p393
I1
sVd9p11di
p394
I4
sVdbb1hvx
p395
I1
sVd1pw10n
p396
I2
sVdrukx3a
p397
I1
sVdkj46je
p398
I1
sVds5oud6
p399
I1
sVdj949r4
p400
I1
sVdfq34uc
p401
I1
sVddscvt5
p402
I1
sVd26awyk
p403
I2
sVdrg9dx1
p404
I1
sVd6dwiwg
p405
I3
sVdst6mda
p406
I2
sVde37a11
p407
I1
sVdc8hzn0
p408
I1
sVd96xzu0
p409
I1
sVd1ocz9h
p410
I11
sVd2ln9ln
p411
I1
sVdooliwn
p412
I1
sVdfxk7op
p413
I1
sVd0l82u6
p414
I1
sVdn48hnj
p415
I3
sVdjd4dsh
p416
I1
sVd4x7j9u
p417
I1
sVd85l730
p418
I1
sVd5y3cbl
p419
I2
sVdfom4k8
p420
I1
sVdf9nd4y
p421
I8
sVd75cx4c
p422
I1
sVdcgxtow
p423
I1
sVdauafb1
p424
I3
sVd5kbj6v
p425
I1
sVdfe8pnb
p426
I2
sVczt70tj
p427
I3
sVd5ews8h
p428
I1
sVdiqbvdi
p429
I1
sVde4owyl
p430
I2
sVd4xa5kt
p431
I3
sVczbleif
p432
I1
sVdbpjfpj
p433
I1
sVdio22w1
p434
I2
sVdhid6m7
p435
I3
sVd6mdd0e
p436
I1
sVdmubaw0
p437
I1
sVdhhdwz9
p438
I1
sVdb0lzja
p439
I4
sVczwgmco
p440
I1
sVd4o04uj
p441
I1
sVdg8gopq
p442
I1
sVdaqi9sg
p443
I1
sVd6eni1b
p444
I2
sVdmxwglf
p445
I2
sVdetiahi
p446
I2
sVdcrn6kp
p447
I2
sVday9m5p
p448
I1
sVdhjxbcb
p449
I1
sVd7z59t0
p450
I1
sVcyir5oq
p451
I1
sVd7zt2wo
p452
I1
sVd1rufb2
p453
I1
sVdmim0ya
p454
I1
sVd9bpvov
p455
I1
sVd8on88n
p456
I1
sVd7go44g
p457
I1
sVd1uybd4
p458
I1
sVddp8ra3
p459
I1
sVd82xk7u
p460
I2
sVczta2un
p461
I1
sVdbz3uzz
p462
I1
sVcz9lels
p463
I3
sVdkdth3u
p464
I3
sVd43baom
p465
I2
sVdpbx6pl
p466
I1
sVdecrjzh
p467
I1
sVcz1fzqg
p468
I2
sVdjqqmsg
p469
I1
sVczt75ct
p470
I5
sVczv61hf
p471
I1
sVdedohob
p472
I1
sVdrgp189
p473
I2
sVdekiqu3
p474
I3
sVdowncxn
p475
I1
sVd2p70i2
p476
I1
sVd7z4o49
p477
I1
sVd9xurum
p478
I1
sVdazu8uj
p479
I1
sVdnd0wri
p480
I1
sVdhd5ova
p481
I2
sVd3wtfg8
p482
I1
sVdfe5zxg
p483
I1
sVdnxnr6m
p484
I1
sVd4njiwi
p485
I2
sVd60ox0t
p486
I1
sVd5p6xd1
p487
I6
sVdepe4yt
p488
I1
sVd1tvztk
p489
I1
sVd88wp2d
p490
I1
sVd3srzt6
p491
I1
sVdepsdro
p492
I1
sVcyp2v3w
p493
I3
sVdrtylio
p494
I1
sVdaym46q
p495
I2
sVdhsxr8v
p496
I4
sVdee5m82
p497
I3
sVdp4tsa3
p498
I1
sVdhsx8y5
p499
I1
sVd0ttqdg
p500
I1
sVdd037v1
p501
I1
sVczy9f9n
p502
I1
sVdb53948
p503
I1
sVdg4cpwj
p504
I1
sVdozwyih
p505
I1
sVdc0g9nx
p506
I1
sVdrxnqiv
p507
I1
sVd017avt
p508
I1
sVd465wl4
p509
I1
sVdkylk7w
p510
I1
sVdmwmnaj
p511
I1
sVczwgu4a
p512
I1
sVdql5z4f
p513
I1
sVd5r4b59
p514
I1
sVdi54hsc
p515
I1
sVdecul39
p516
I2
sVd1du7wv
p517
I1
sVd9j3v27
p518
I1
sVczgb5x4
p519
I1
sVdfp6tve
p520
I1
sVdc66zum
p521
I1
sVdhcsbjy
p522
I1
sVdb12fb3
p523
I2
sVdgwob9c
p524
I1
sVdsiu7z6
p525
I1
sVdcibq5g
p526
I1
sVczw0s6w
p527
I1
sVdhsw95p
p528
I1
sVd3ghpev
p529
I1
sVd6eilrl
p530
I1
sVd996mus
p531
I1
sVdkn5tyk
p532
I2
sVdk0abjr
p533
I1
sVdi4ydhh
p534
I1
sVdfl1yev
p535
I1
sVdr0oxdr
p536
I1
sVd9vlsqe
p537
I2
sVd89xsl0
p538
I1
sVdf9510m
p539
I1
sVdhminy9
p540
I2
sVdsokoqd
p541
I4
sVdnyr9dm
p542
I1
sVd2blfm1
p543
I1
sVde47rwu
p544
I1
sVdcdwfx2
p545
I1
sVdbis1vs
p546
I1
sVdq4q39c
p547
I1
sVczxwsxf
p548
I1
sVdnhrku3
p549
I1
sVddqm3wh
p550
I1
sVdkuq0mn
p551
I1
sVdqmxukl
p552
I1
sVdk0co08
p553
I2
sVd64xf8v
p554
I1
sVdo1grbt
p555
I1
sVd0gqdth
p556
I2
sVdnxkp0u
p557
I1
sVdkiulgb
p558
I1
sVczbkxhg
p559
I1
sVd8egdwn
p560
I1
sVd19a3xy
p561
I2
sVd1bw8pk
p562
I1
sVdfu28hf
p563
I1
sVcz5ivcr
p564
I1
sVcz34xqf
p565
I1
sVd2z7g25
p566
I1
sVcyiiyk6
p567
I1
sVd3sj9r7
p568
I1
sVdf7oo66
p569
I1
sVdax1v7y
p570
I1
sVdemk5n5
p571
I1
sVd0il6ce
p572
I1
sVdif64bp
p573
I1
sVd19ctzz
p574
I1
sVd0y1oxc
p575
I1
sVddoo4d6
p576
I1
sVd2bvl2v
p577
I1
sVdi29ldc
p578
I3
sVcyj3muf
p579
I1
sVdks39b1
p580
I3
sVdo9qf9v
p581
I2
sVd8nvm0v
p582
I1
sVda4x39i
p583
I3
sVdclze5x
p584
I1
sVdg0p50h
p585
I1
sVdmocizg
p586
I3
sVd3iardh
p587
I1
sVdgzj1sq
p588
I1
sVdgvj2fd
p589
I1
sVdfbyw8h
p590
I2
sVd4bu0sy
p591
I1
sVdo02cfb
p592
I2
sVdehjonb
p593
I1
sVdj56it9
p594
I1
sVd1o650s
p595
I1
sVdnlgtvc
p596
I1
sVddny6ep
p597
I3
sVd74h4vt
p598
I1
sVdb5e2q4
p599
I1
sVd9ld7nb
p600
I1
sVdr3ueyj
p601
I1
sVd2vv64m
p602
I1
sVdhi1jmg
p603
I1
sVd62shcb
p604
I5
sVczhz4ee
p605
I1
sVd2a8tre
p606
I1
sVcz04j1o
p607
I2
sVcyzjwqp
p608
I1
sVd0wabke
p609
I1
sVdep2jn1
p610
I2
sVdkki72z
p611
I2
sVdk73a4w
p612
I1
sVdpqjxq9
p613
I2
sVdok4amv
p614
I4
sVd7pkniw
p615
I2
sVdizz5ra
p616
I4
sVdkq0yq0
p617
I2
sVdongk0e
p618
I1
sVde6rbtc
p619
I1
sVd830rig
p620
I1
sVddzzhki
p621
I1
sVdc76idl
p622
I1
sVdhzroic
p623
I1
sVd6952qc
p624
I1
sVdmui2vi
p625
I1
sVdj9na3g
p626
I2
sVdjnsxmt
p627
I1
sVd3n9yu2
p628
I1
sVczizez6
p629
I4
sVd6elnho
p630
I1
sVd0yiz2u
p631
I1
sVd01r7nx
p632
I1
sVd5vlrol
p633
I2
sVd7qcbgn
p634
I1
sVd48zrgl
p635
I1
sVdiad4lb
p636
I1
sVd35p19i
p637
I1
sVdk0jmxw
p638
I1
sVd53nkrb
p639
I1
sVd9vssw3
p640
I1
sVdfy1nev
p641
I2
sVd06l2lx
p642
I1
sVd0b6yyi
p643
I2
sVddwl9fq
p644
I4
sVd40ivj6
p645
I1
sVde0zwsr
p646
I2
sVd49sg3l
p647
I1
sVd877rip
p648
I1
sVd93izes
p649
I1
sVczh1ng9
p650
I2
sVdfbnzql
p651
I2
sVdk1vbhs
p652
I1
sVdafpr4j
p653
I1
sVd2h3x5o
p654
I2
sVd90n41o
p655
I1
sVd6si7zz
p656
I3
sVdpphnam
p657
I1
sVdsfx4vv
p658
I2
sVdr0frz2
p659
I1
sVdhxbxx7
p660
I1
sVd0n1mue
p661
I2
sVdap93v8
p662
I1
sVd5a7q3x
p663
I1
sVdnub293
p664
I1
sVdibx88x
p665
I1
sVdb12pta
p666
I13
sVdgibijg
p667
I1
sVdhguhe3
p668
I1
sVdoacqjv
p669
I2
sVdh3wh9d
p670
I1
sVd69e936
p671
I7
sVdiyfc10
p672
I4
sVdkyw0ht
p673
I1
sVd0ymjea
p674
I1
sVday3r3b
p675
I1
sVd0yp9m2
p676
I1
sVde4txea
p677
I3
sVczhb3od
p678
I2
sVd1ri9yr
p679
I1
sVd888o53
p680
I1
sVdq3cujh
p681
I1
sVdi4yweo
p682
I1
sVdfirvbb
p683
I1
sVd1rdqqa
p684
I2
sVda0qjcb
p685
I1
sVdjzv6dp
p686
I4
sVdg0tqp8
p687
I2
sVdihc91v
p688
I3
sVd03xmml
p689
I3
sVdaupvl3
p690
I1
sVd0nyr27
p691
I1
sVdbafmvd
p692
I1
sVd6ksx7d
p693
I3
sVdaqza2x
p694
I1
sVdb2t7r3
p695
I1
sVczyv6qg
p696
I1
sVd46tu53
p697
I1
sVd0dfha7
p698
I1
sVd0o32u3
p699
I2
sVd04l775
p700
I3
sVdd1i39r
p701
I3
sVdrl67wj
p702
I6
sVdax8dbo
p703
I1
sVczomu78
p704
I1
sVd2ltq4c
p705
I1
sVd3wwxo2
p706
I2
sVd9vovap
p707
I1
sVd2i06nn
p708
I2
sVd1dxi3n
p709
I1
sVde1tweo
p710
I1
sVdp89iii
p711
I1
sVdcvpa6j
p712
I1
sVdr4mmpo
p713
I1
sVd6ik7x3
p714
I5
sVd5xw5ni
p715
I1
sVdjaf9kh
p716
I2
sVdhsswfq
p717
I1
sVczowe21
p718
I1
sVd3jewl7
p719
I1
sVdejvhko
p720
I1
sVd07733j
p721
I1
sVdkh1j0r
p722
I1
sVd27p21e
p723
I1
sVd8xbazl
p724
I1
sVd5305gz
p725
I1
sVdcuhk55
p726
I3
sVd443nek
p727
I1
sVdj91iyg
p728
I1
sVd9zkqid
p729
I1
sVddfuawc
p730
I1
sVczkloi8
p731
I1
sVd1g2k89
p732
I1
sVdecw5qy
p733
I1
sVd8ntci2
p734
I4
sVdi1321t
p735
I2
sVdfcojzi
p736
I1
sVdkhl99r
p737
I1
sVd6phklt
p738
I1
sVd8fphf0
p739
I3
sVdfazw3i
p740
I1
sVd5h2bpj
p741
I1
sVd1zl4f2
p742
I2
sVdeum7mb
p743
I1
sVcznnazc
p744
I1
sVdfjuyuu
p745
I1
sVdnuc07n
p746
I1
sVd7l4dzv
p747
I1
sVdhodzwb
p748
I1
sVdiy98hx
p749
I1
sVdavgvc9
p750
I1
sVdgjiy0q
p751
I1
sVdji479m
p752
I2
sVcz9ne50
p753
I2
sVdnkygqk
p754
I1
sVd35vt7z
p755
I1
sVd0frmac
p756
I1
sVdhfjfjc
p757
I4
sVdde9p29
p758
I1
sVdeofkq0
p759
I1
sVdapk1ag
p760
I1
sVd9lylzo
p761
I1
sVd8zz2wh
p762
I1
sVcz4szvd
p763
I1
sVd9cwrrs
p764
I1
sVd9fw1gn
p765
I1
sVdhfl4wd
p766
I1
sVczruslp
p767
I1
sVddsf5n2
p768
I1
sVd034sra
p769
I2
sVcyy5eho
p770
I1
sVdodzk2j
p771
I1
sVdgn465d
p772
I1
sVd1i1j9g
p773
I1
sVd5ekwdb
p774
I1
sVd5mero6
p775
I1
sVd14r3nl
p776
I6
sVdh67swb
p777
I1
sVdbayymu
p778
I1
sVcyx6ixd
p779
I3
sVd6cbs60
p780
I1
sVd9evcjs
p781
I1
sVd8hv9dn
p782
I2
sVd2cvofp
p783
I1
sVdhdu1sq
p784
I2
sVczoebp8
p785
I1
sVdbapr10
p786
I1
sVd0gl3hi
p787
I1
sVddtd192
p788
I1
sVdrycz20
p789
I1
sVdfibrb1
p790
I1
sVcyxinjg
p791
I2
sVd9vhild
p792
I3
sVd7ycbw4
p793
I2
sVdfbhd1z
p794
I5
sVd4qdefb
p795
I1
sVdn95ssq
p796
I1
sVdnbsbz0
p797
I1
sVdnkxwk3
p798
I1
sVd1j6vmg
p799
I1
sVdkgd2oz
p800
I2
sVd49d6zv
p801
I1
sVdg8p4bz
p802
I1
sVdo47ipg
p803
I1
sVd6kmjlu
p804
I3
sVdd73fq0
p805
I4
sVdjeeu8m
p806
I1
sVdr12myx
p807
I1
sVdk262n1
p808
I2
sVd3un8l1
p809
I1
sVdafoa0h
p810
I1
sVd5cxigm
p811
I1
sVd0l7gz8
p812
I1
sVdiplrbs
p813
I1
sVd85koia
p814
I2
sVd3za8ko
p815
I3
sVczdo5e3
p816
I1
sVd3iw5wb
p817
I1
sVd7rh8qm
p818
I1
sVd7ri8qv
p819
I1
sVdh1z8ea
p820
I1
sVd0ofor5
p821
I1
sVd1piacj
p822
I2
sVd2zszqu
p823
I1
sVd5xjkur
p824
I1
sVd80lccl
p825
I3
sVdjr3h9l
p826
I1
sVdkjv1r3
p827
I1
sVddn7td1
p828
I1
sVd86mqnz
p829
I1
sVdhfyjlv
p830
I4
sVd86fwei
p831
I1
sVd9d4l0e
p832
I1
sVdgzphr3
p833
I2
sVddou1tq
p834
I2
sVdfk95zi
p835
I1
sVczz805c
p836
I1
sVd6tlckz
p837
I1
sVdcvdjs9
p838
I1
sVdjsfmya
p839
I1
sVdhm32rf
p840
I1
sVd2hhgwg
p841
I1
sVd9e7fhk
p842
I1
sVdamzj5t
p843
I3
sVdb01in9
p844
I1
sVdik15hb
p845
I26
sVd1heqdx
p846
I1
sVdiczx45
p847
I1
sVd8ctz21
p848
I1
sVd4rwt59
p849
I2
sVdhh3ma3
p850
I10
sVdkvn0gp
p851
I2
sVdaaq9t8
p852
I1
sVdhujxsx
p853
I1
sVd4bt15o
p854
I1
sVd6gn3jo
p855
I2
sVdfvko15
p856
I1
sVdntqlt0
p857
I1
sVd93p5qk
p858
I1
sVd3ez31n
p859
I1
sVdn8j9c8
p860
I1
sVcz32xh0
p861
I1
sVd10nqh8
p862
I4
sVdfnz8g3
p863
I1
sVdmpjjmi
p864
I1
sVd2enku8
p865
I2
sVd26fwvq
p866
I2
sVd6j4jsr
p867
I1
sVd7rewlt
p868
I1
sVdo6lel4
p869
I2
sVd8cdvt6
p870
I1
sVd90zig0
p871
I1
sVdix5dzv
p872
I2
sVdmxiw8t
p873
I1
sVd5yhp1x
p874
I3
sVd3p0uss
p875
I1
sVdfnywu4
p876
I1
sVd54r2ug
p877
I1
sVd8wvhd1
p878
I1
sVd904f4z
p879
I1
sVd1wtwyi
p880
I3
sVdr0ntgw
p881
I1
sVdcqdgdx
p882
I1
sVdb121fp
p883
I1
sVdrk0a4b
p884
I1
sVd5aql9q
p885
I1
sVdd6eytb
p886
I1
sVdf3wesc
p887
I2
sVdffnxxq
p888
I1
sVdn7gus8
p889
I1
sVdbc6x5r
p890
I1
sVd8u6oy0
p891
I1
sVd0p95m4
p892
I2
sVdsk76ak
p893
I1
sVdd3fblx
p894
I1
sVcyr2szn
p895
I2
sVd1cu2dw
p896
I1
sVdfojt9y
p897
I10
sVd3bg29t
p898
I1
sVcyqkrac
p899
I2
sVdanz6yv
p900
I1
sVd0m6t3m
p901
I1
sVd31kn56
p902
I1
sVdpsdlh0
p903
I1
sVdpe8kbx
p904
I1
sVcz0to97
p905
I1
sVczs9k61
p906
I1
sVd36m3sq
p907
I1
sVd28ydjq
p908
I1
sVdommda2
p909
I1
sVczkxlop
p910
I1
sVdsos3s0
p911
I1
sVd59bnoa
p912
I1
sVd0u4b8r
p913
I1
sVd0959t0
p914
I2
sVdmixvbs
p915
I1
sVdhuazs1
p916
I1
sVd6f2bn4
p917
I1
sVdn2x4ls
p918
I2
sVd4mj2sx
p919
I3
sVd5szjx7
p920
I1
sVd36eg7x
p921
I1
sVdte9qyp
p922
I1
sVdae76ce
p923
I2
sVd7xu11m
p924
I1
sVdk6nzwe
p925
I2
sVd36yq7f
p926
I4
sVdg8mt3x
p927
I1
sVd7jx6hj
p928
I1
sVd16q76c
p929
I1
sVdkh0mr5
p930
I1
sVczha2fy
p931
I3
sVdczeer3
p932
I1
sVd7h1lri
p933
I1
sVdt2kqnh
p934
I1
sVddepe1y
p935
I2
sVdtd6j32
p936
I1
sVd1l60q9
p937
I1
sVd3x0sak
p938
I3
sVd2ennhw
p939
I1
sVd3bc1xo
p940
I7
sVd19ywjc
p941
I1
sVd0zf6j4
p942
I1
sVd5jttro
p943
I1
sVdel4ql6
p944
I1
sVd6hclag
p945
I2
sVdqfw3ys
p946
I1
sVdhtm6gy
p947
I1
sVd8qs8da
p948
I1
sVd1wgi2q
p949
I2
sVdokd5r3
p950
I1
sVdrll5oi
p951
I1
sVdk6bozt
p952
I1
sVdk8n82p
p953
I2
sVd262fwq
p954
I1
sVdqbyx3w
p955
I1
sVdelwuqc
p956
I1
sVdawgvsl
p957
I1
sVd8yt4ly
p958
I38
sVd2kdiuo
p959
I1
sVdp1otf4
p960
I1
sVdcdh4c5
p961
I2
sVdfgu1ql
p962
I1
sVdogkio1
p963
I3
sVddc7t80
p964
I1
sVczrefi1
p965
I1
sVddanoww
p966
I1
sVdhiaggq
p967
I1
sVdiglmp3
p968
I1
sVdahqbz1
p969
I1
sVd8b874c
p970
I1
sVd965f5k
p971
I1
sVd0vgpnz
p972
I2
sVdc8dv1n
p973
I1
sVd29txb8
p974
I1
sVdpkepkv
p975
I1
sVd3oadh2
p976
I1
sVdpqqkuj
p977
I1
sVdmtxrvs
p978
I1
sVdjuaa2b
p979
I1
sVd31lblm
p980
I2
sVdjoxlwy
p981
I1
sVdgtvnnr
p982
I4
sVdcs9lzq
p983
I3
sVdkkn1q6
p984
I2
sVd3un7hb
p985
I1
sVdd5dm02
p986
I1
sVdmir68i
p987
I1
sVdnd7zal
p988
I2
sVdqjgzw3
p989
I1
sVczt6w3b
p990
I2
sVd522jh5
p991
I1
sVd18u2dm
p992
I3
sVd6d3b8w
p993
I6
sVcz6adcq
p994
I7
sVcyp5g7j
p995
I2
sVd5xy992
p996
I1
sVd34d5zi
p997
I2
sVdaa3nx4
p998
I1
sVd8z7hdf
p999
I1
sVcz4btyl
p1000
I1
sVd7bttwx
p1001
I1
sVd754xfo
p1002
I1
sVcyzd594
p1003
I1
sVd1n3la0
p1004
I1
sVdmla2i7
p1005
I2
sVcyvemou
p1006
I1
sVdepiura
p1007
I1
sVdb7u304
p1008
I4
sVdmzas71
p1009
I2
sVdk6g4j0
p1010
I1
sVd392pba
p1011
I2
sVd7usjf2
p1012
I3
sVcz5hd1j
p1013
I1
sVdmigg81
p1014
I1
sVd9d6fwk
p1015
I1
sVczzri6t
p1016
I2
sVd8oaly4
p1017
I1
sVd51p2fx
p1018
I1
sVd3kidrk
p1019
I2
sVdn6bbao
p1020
I1
sVd6b19u6
p1021
I1
sVd4qv5n8
p1022
I1
sVd5y4lum
p1023
I2
sVd30iv2x
p1024
I1
sVdgyovfe
p1025
I14
sVd7bmiln
p1026
I4
sVdmtqayf
p1027
I1
sVd45vg4w
p1028
I2
sVd34f1h7
p1029
I1
sVdo7chxx
p1030
I1
sVd0qcmgb
p1031
I3
sVd8w1iui
p1032
I1
sVdc8c4qa
p1033
I1
sVdposysu
p1034
I1
sVd0hlx0y
p1035
I1
sVddeppln
p1036
I1
sVdo0susn
p1037
I1
sVdrvpfyd
p1038
I3
sVdkgef53
p1039
I10
sVd7akjdi
p1040
I1
sVd5hif36
p1041
I1
sVddebble
p1042
I1
sVdj86gd4
p1043
I1
sVdcxbwwx
p1044
I2
sVdndweba
p1045
I2
sVd708eaw
p1046
I1
sVdc46skx
p1047
I1
sVd331y8w
p1048
I1
sVd966p1o
p1049
I1
sVdt5hcka
p1050
I1
sVd9j2tnf
p1051
I1
sVd15txw8
p1052
I1
sVdjf4bw0
p1053
I2
sVd718gao
p1054
I1
sVdr0t4l7
p1055
I1
sVda92ksd
p1056
I6
sVdhhiaso
p1057
I2
sVdey3wey
p1058
I1
sVd3g3ggv
p1059
I1
sVdfaed8n
p1060
I2
sVdcunpal
p1061
I3
sVd62mlgn
p1062
I1
sVd3saj35
p1063
I1
sVdbjn403
p1064
I1
sVdh25lno
p1065
I3
sVd7v5v5w
p1066
I1
sVda0r0do
p1067
I3
sVdmue2qa
p1068
I3
sVdfnrv45
p1069
I3
sVdjkd6qd
p1070
I1
sVd1rnkh0
p1071
I1
sVdsk4o82
p1072
I1
sVdk0ovlc
p1073
I1
sVdhbsc9k
p1074
I1
sVd3ui05c
p1075
I1
sVds737ae
p1076
I2
sVdbornr5
p1077
I1
sVdkb8dl3
p1078
I3
sVd5ho5ws
p1079
I1
sVd13r2ou
p1080
I1
sVdjhwb2d
p1081
I1
sVd2g69jp
p1082
I1
sVdg8thlz
p1083
I1
sVdkz4ok5
p1084
I3
sVds65pxb
p1085
I5
sVd6fmxpp
p1086
I1
sVd3dzsay
p1087
I2
sVdhckodx
p1088
I1
sVd2te6ft
p1089
I1
sVdf5058e
p1090
I2
sVd73rvu8
p1091
I2
sVdiuwkcq
p1092
I1
sVd0zu5c6
p1093
I5
sVd5xiseb
p1094
I1
sVdeunrmn
p1095
I3
sVdkgjo8r
p1096
I2
sVdfio0tr
p1097
I1
sVdigp97o
p1098
I1
sVd17yfil
p1099
I1
sVdbk6wgy
p1100
I1
sVczvpnvu
p1101
I1
sVdq86e9o
p1102
I1
sVcyoe99p
p1103
I1
sVd1ks2kw
p1104
I1
sVdb7uby4
p1105
I1
sVd6rkuz1
p1106
I1
sVdbn2ehk
p1107
I2
sVdcugnny
p1108
I1
sVd4h8e89
p1109
I1
sVddys43z
p1110
I1
sVdjzowp4
p1111
I1
sVd4efnvy
p1112
I1
sVdizzshc
p1113
I1
sVd1624wr
p1114
I2
sVdmve8t0
p1115
I1
sVdh2dkmk
p1116
I3
sVdnepht2
p1117
I1
sVdmf5bq4
p1118
I1
sVdmhkikc
p1119
I1
sVdsbg1og
p1120
I1
sVddr4nun
p1121
I1
sVd4ava3o
p1122
I1
sVd886qjx
p1123
I1
sVdhqosox
p1124
I3
sVdggfcz5
p1125
I1
sVdhja2eb
p1126
I2
sVda3ms0f
p1127
I2
sVcz9zbew
p1128
I1
sVd71skmb
p1129
I1
sVd4mojfv
p1130
I1
sVd4qwucy
p1131
I1
sVd0latyd
p1132
I1
sVd19sooj
p1133
I2
sVcyp8a3l
p1134
I4
sVdkds6ts
p1135
I1
sVdr9q3w1
p1136
I1
sVdk96l2s
p1137
I1
sVd6tkx2g
p1138
I1
sVdo8b9hw
p1139
I1
sVd0mnnyz
p1140
I1
sVd2c48j1
p1141
I1
sVd1o8d1g
p1142
I1
sVdkry2dc
p1143
I1
sVd6eaw8i
p1144
I2
sVdkyvg00
p1145
I1
sVdp67pec
p1146
I2
sVd48scqh
p1147
I1
sVcz5g9en
p1148
I1
sVdop5cja
p1149
I2
sVdjpcqd4
p1150
I1
sVczxdwa5
p1151
I1
sVdj23336
p1152
I2
sVcziwwyl
p1153
I1
sVdicmx7w
p1154
I7
sVd9ak65k
p1155
I1
sVd7zul9o
p1156
I1
sVdgr2frl
p1157
I1
sVd0c8ps4
p1158
I1
sVdgrqg59
p1159
I1
sVdakfc29
p1160
I1
sVdrn0ouv
p1161
I6
sVda2ix3f
p1162
I1
sVd7ui8nd
p1163
I1
sVd57aro4
p1164
I1
sVczg38lf
p1165
I1
sVde9qd67
p1166
I8
sVd6gwekj
p1167
I1
sVdc6clbt
p1168
I1
sVdiqqfo1
p1169
I7
sVdbtpash
p1170
I1
sVd31fr54
p1171
I3
sVczgzjrr
p1172
I1
sVdjoq340
p1173
I10
sVd0hbetr
p1174
I1
sVdhk8ka0
p1175
I1
sVdkg0b8d
p1176
I1
sVdcvwrq7
p1177
I1
sVdgzg9o9
p1178
I1
sVd665f5r
p1179
I1
sVcz8ftuc
p1180
I1
sVdiv4kdm
p1181
I1
sVd4gftxa
p1182
I1
sVdbwhnrr
p1183
I1
sVczc3vkb
p1184
I1
sVd4960o3
p1185
I1
sVdrxpxhn
p1186
I1
sVdb5c57n
p1187
I1
sVdgib2e8
p1188
I1
sVd1sdzfj
p1189
I1
sVdhsz85o
p1190
I2
sVdn8e5wk
p1191
I1
sVdkqbvmh
p1192
I1
sVd25cx6j
p1193
I1
sVd5cuas0
p1194
I1
sVdhs7scs
p1195
I1
sVdp3tpiu
p1196
I5
sVda1z8zz
p1197
I1
sVdh6qn6l
p1198
I1
sVd6kj76z
p1199
I5
sVdb6yqco
p1200
I1
sVczv9mix
p1201
I1
sVdcjfjux
p1202
I1
sVdp0x565
p1203
I1
sVd7rgq62
p1204
I1
sVdcdwr0p
p1205
I1
sVds7qikp
p1206
I1
sVddr4i4q
p1207
I1
sVdhfx0vq
p1208
I2
sVd9deuta
p1209
I1
sVd8ai5f6
p1210
I1
sVdbuxhim
p1211
I1
sVdi81o8e
p1212
I1
sVds2lrkr
p1213
I1
sVdiicxc5
p1214
I1
sVd5eyj2p
p1215
I1
sVdee5exd
p1216
I1
sVdfidbmh
p1217
I4
sVdk46dgn
p1218
I1
sVdb3cwa9
p1219
I1
sVdriv6pe
p1220
I1
sVd7934cp
p1221
I1
sVdk1rp8e
p1222
I1
sVdnx3wlv
p1223
I2
sVdoacoec
p1224
I3
sVdbl9azh
p1225
I3
sVdbdyz7v
p1226
I1
sVd0fbego
p1227
I1
sVd7rnvy9
p1228
I1
sVd3uo1fz
p1229
I1
sVcysgkrc
p1230
I1
sVdkrmf32
p1231
I1
sVczbg2gh
p1232
I3
sVcz2qaz2
p1233
I1
sVdk6t9fl
p1234
I1
sVdjyijjn
p1235
I2
sVdcv8wq8
p1236
I1
sVd5k9bju
p1237
I1
sVd5y49zt
p1238
I1
sVdevmpgo
p1239
I2
sVd9voqp8
p1240
I1
sVdeb9ql1
p1241
I4
sVdos8qpy
p1242
I1
sVd0cdz4z
p1243
I2
sVddxf7px
p1244
I1
sVd1xajo3
p1245
I1
sVd9ngl4o
p1246
I1
sVdiu25b0
p1247
I1
sVd035o9m
p1248
I1
sVd1vy6tj
p1249
I1
sVdq15qxc
p1250
I1
sVd4vcy5t
p1251
I1
sVd5dnt2s
p1252
I1
sVdh6kzsb
p1253
I1
sVdn0h6oj
p1254
I2
sVd58pivl
p1255
I1
sVd1c9bmv
p1256
I1
sVczw26l7
p1257
I2
sVdrgowd2
p1258
I2
sVdbp6cnj
p1259
I1
sVdcy45yx
p1260
I1
sVd0wzblw
p1261
I1
sVd3fmv22
p1262
I2
sVd5nbahe
p1263
I1
sVd9txqod
p1264
I1
sVddx7xh0
p1265
I1
sVdp05aa1
p1266
I1
sVdd6lgcf
p1267
I1
sVd0lv4g9
p1268
I1
sVd1lrbov
p1269
I1
sVcyu0d8c
p1270
I1
sVdb2wkfk
p1271
I2
sVdq3e0g8
p1272
I1
sVdo1dyjo
p1273
I1
sVd1263s4
p1274
I1
sVd6asg8c
p1275
I2
sVddm14ps
p1276
I2
sVd0x086p
p1277
I1
sVdfbbe0t
p1278
I1
sVdg5idju
p1279
I1
sVdaia3d6
p1280
I1
sVd53qkt6
p1281
I1
sVdibp9mb
p1282
I1
sVd9dez97
p1283
I1
sVd8pr46i
p1284
I1
sVd6e5e9b
p1285
I2
sVdnk1fmq
p1286
I1
sVdgg69ay
p1287
I1
sVddakhzo
p1288
I1
sVd4n9rc8
p1289
I3
sVdmf9sv6
p1290
I1
sVdq9dvlz
p1291
I1
sVdsr2cmb
p1292
I1
sVd2s3m96
p1293
I1
sVdiwymst
p1294
I1
sVdkbjwlh
p1295
I4
sVd3541v2
p1296
I1
sVdb6s3nc
p1297
I2
sVdci2nom
p1298
I1
sVd2qw14t
p1299
I1
sVd664tsg
p1300
I1
sVdfi6aeb
p1301
I1
sVd75cagf
p1302
I2
sVd404q7f
p1303
I1
sVda36s43
p1304
I1
sVd2b3h6e
p1305
I1
sVdb129iu
p1306
I5
sVd84hvct
p1307
I1
sVdt390js
p1308
I1
sVd2xnceq
p1309
I1
sVd6lh11k
p1310
I1
sVdd8z3zo
p1311
I1
sVdb8sdge
p1312
I1
sVds158gf
p1313
I1
sVdmra3a1
p1314
I1
sVd1gj7yq
p1315
I1
sVdilz3n0
p1316
I1
sVdjfbk7z
p1317
I2
sVdjllz1x
p1318
I1
sVdapklh0
p1319
I2
sVcyu2wtd
p1320
I1
sVd7jxtth
p1321
I1
sVdpmgbis
p1322
I1
sVd6eifsz
p1323
I2
sVdayy3nj
p1324
I1
sVdrqeos3
p1325
I2
sVdkadfwf
p1326
I1
sVdhcxmca
p1327
I1
sVdo7x6l2
p1328
I5
sVdghduxl
p1329
I1
sVd1tp7zc
p1330
I1
sVdqtnerq
p1331
I1
sVcyi2vja
p1332
I1
sVd7ygqaq
p1333
I3
sVd5h8d44
p1334
I1
sVczhfxzh
p1335
I1
sVdqjycp6
p1336
I1
sVdfoi02v
p1337
I3
sVdasbeql
p1338
I1
sVd3b3rr8
p1339
I1
sVd31fetb
p1340
I2
sVd1r64nd
p1341
I1
sVd3a6z2v
p1342
I1
sVd177xni
p1343
I14
sVdijcxgq
p1344
I1
sVdb5eio2
p1345
I1
sVd08k1u2
p1346
I2
sVczni747
p1347
I2
sVczgm1ip
p1348
I1
sVdd7fwqj
p1349
I1
sVdclre0d
p1350
I1
sVdkkj3vm
p1351
I2
sVd3b7uds
p1352
I3
sVdsw3pze
p1353
I1
sVczsjenk
p1354
I1
sVd1gkbcl
p1355
I2
sVdbvlzm1
p1356
I1
sVdpo9yye
p1357
I1
sVd2uyw0y
p1358
I2
sVd1fbaz3
p1359
I1
sVdgd8umf
p1360
I1
sVdfl9l45
p1361
I1
sVd08nq6o
p1362
I1
sVd3z6hml
p1363
I1
sVd3frg7r
p1364
I1
sVd9de3pz
p1365
I1
sVdp2abuu
p1366
I1
sVd313cta
p1367
I1
sVdoey0bt
p1368
I1
sVd7xhr2f
p1369
I1
sVdnyd85g
p1370
I1
sVdb24jh2
p1371
I1
sVd6sh037
p1372
I3
sVd3gowik
p1373
I1
sVdd0dyrm
p1374
I1
sVd4mfjbc
p1375
I1
sVdhh08j2
p1376
I2
sVd288yeb
p1377
I1
sVdjrsp8l
p1378
I1
sVcyxzets
p1379
I1
sVd3unru8
p1380
I1
sVd2fz4dh
p1381
I1
sVd8grvjt
p1382
I1
sVdpd4plw
p1383
I1
sVd2zub3r
p1384
I4
sVd32zrv2
p1385
I2
sVdp6nebe
p1386
I2
sVcyy3af0
p1387
I1
sVd1xzyzx
p1388
I1
sVd1tnpin
p1389
I1
sVd9xwvml
p1390
I1
sVcz47mfj
p1391
I1
sVd7k7xxl
p1392
I1
sVd624oif
p1393
I7
sVd9cskwg
p1394
I2
sVdcymyox
p1395
I2
sVdjzgzwl
p1396
I1
sVdpaxe19
p1397
I3
sVdmy4kj6
p1398
I1
sVd3xxv3x
p1399
I1
sVdq23m8x
p1400
I1
sVddpp6qw
p1401
I1
sVd1daes3
p1402
I1
sVdfu871c
p1403
I2
sVd0tk3tl
p1404
I1
sVd5ahvgd
p1405
I1
sVd3qwg44
p1406
I2
sVdb534od
p1407
I5
sVd9p64qz
p1408
I2
sVdeb99e6
p1409
I1
sVdeg5epo
p1410
I1
sVd2znif8
p1411
I1
sVdpnlqg2
p1412
I1
sVdjlorpt
p1413
I3
sVdkx5mja
p1414
I2
sVd3xdbxm
p1415
I1
sVdgwzqd1
p1416
I1
sVdsgqigw
p1417
I1
sVd168b8g
p1418
I1
sVd10qzqv
p1419
I1
sVdgzyuh9
p1420
I3
sVdbvrl0o
p1421
I1
sVd9v2sn9
p1422
I1
sVd9v3kle
p1423
I1
sVd9m61j3
p1424
I1
sVd8fzfh7
p1425
I1
sVd01crmo
p1426
I1
sVd0uowe4
p1427
I1
sVdhag09u
p1428
I1
sVd2b4jlo
p1429
I2
sVdetm3x4
p1430
I1
sVd29rnzn
p1431
I1
sVd0prtih
p1432
I3
sVdcykay2
p1433
I1
sVd1wv9dw
p1434
I1
sVdb3qmql
p1435
I1
sVd1hzkqs
p1436
I2
sVd7rcgd4
p1437
I1
sVdr145hi
p1438
I13
sVd8eq3eb
p1439
I1
sVcziqd43
p1440
I3
sVdasy57q
p1441
I2
sVdhl4vcx
p1442
I1
sVd5i0hrn
p1443
I3
sVdb0fosj
p1444
I1
sVd5ygq3n
p1445
I2
sVdd1f8z9
p1446
I1
sVd623rgo
p1447
I1
sVd0e17o2
p1448
I1
sVd2imt0r
p1449
I9
sVdbvx9wh
p1450
I1
sVdesw7w5
p1451
I1
sVd34ft36
p1452
I1
sVczt7ybl
p1453
I1
sVdhownen
p1454
I5
sVdo9a3mk
p1455
I5
sVdgqlc60
p1456
I3
sVdd7nafo
p1457
I1
sVdn9m3no
p1458
I1
sVdqt4o42
p1459
I1
sVdfyxm3q
p1460
I1
sVdfwy2sd
p1461
I1
sVd2erevb
p1462
I1
sVd5dmrdy
p1463
I4
sVddigsa0
p1464
I1
sVdj0oy0q
p1465
I4
sVdspaqt1
p1466
I1
sVd1yw2oe
p1467
I1
sVd4bskii
p1468
I1
sVdrd6pyp
p1469
I1
sVd87w66b
p1470
I1
sVd36oufs
p1471
I1
sVd9f35c9
p1472
I1
sVde1aei0
p1473
I3
sVddtfmws
p1474
I1
sVd5bhe9x
p1475
I1
sVd28oaff
p1476
I1
sVd80a418
p1477
I1
sVd7z9s4k
p1478
I9
sVdczcj57
p1479
I1
sVdq05mab
p1480
I2
sVd0m8hah
p1481
I6
sVcywoqxw
p1482
I1
sVd2evby2
p1483
I1
sVddtushm
p1484
I1
sVd9hpqas
p1485
I1
sVdajrmjj
p1486
I1
sVddqfzbj
p1487
I1
sVczmuysp
p1488
I1
sVczav3zi
p1489
I1
sVd2bseq8
p1490
I1
sVdci0i6p
p1491
I1
sVdsiyohi
p1492
I1
sVda8hgzi
p1493
I1
sVcyqflzg
p1494
I1
sVdey2jqr
p1495
I2
sVd82sl0u
p1496
I4
sVdf9psqx
p1497
I1
sVdg5sf4y
p1498
I1
sVdodztqb
p1499
I2
sVcyujj27
p1500
I3
sVd13471t
p1501
I1
sVdhmt141
p1502
I1
sVdd8kgte
p1503
I2
sVdo86q3k
p1504
I3
sVdblp6w9
p1505
I2
sVd3si85x
p1506
I1
sVdd83j3i
p1507
I1
sVd3oajso
p1508
I1
sVdfksyjg
p1509
I1
sVdkdx8bd
p1510
I1
sVd9kakq3
p1511
I1
sVditjroi
p1512
I1
sVd1mwhno
p1513
I1
sVdpgv818
p1514
I1
sVd0ck4g6
p1515
I1
sVd16m0fv
p1516
I1
sVdoykeir
p1517
I1
sVddxucjl
p1518
I1
sVdcur5kz
p1519
I2
sVd61gxrc
p1520
I1
sVdf5iq7c
p1521
I1
sVdr5jwtr
p1522
I4
sVd830a9s
p1523
I3
sVdgq82hh
p1524
I1
sVdpd5wwv
p1525
I2
sVczh9jye
p1526
I2
sVde3sz3o
p1527
I1
sVdbmp70v
p1528
I1
sVda4mdkt
p1529
I1
sVcz9fesx
p1530
I1
sVdpow8nh
p1531
I1
sVd3pca1e
p1532
I2
sVd8kvj7i
p1533
I1
sVd66rrkw
p1534
I1
sVdro86dn
p1535
I1
sVdiohyeb
p1536
I1
sVddcuun3
p1537
I1
sVdb6ylox
p1538
I1
sVd80up5r
p1539
I1
sVdcrue6k
p1540
I1
sVdbtfyvo
p1541
I1
sVcykywqi
p1542
I1
sVd2718vq
p1543
I1
sVdos1zcf
p1544
I1
sVd55jonr
p1545
I1
sVdef227j
p1546
I1
sVd001s68
p1547
I1
sVdi4xuyg
p1548
I1
sVdoacxar
p1549
I3
sVdi1pdba
p1550
I1
sVdae708w
p1551
I1
sVdf2srbn
p1552
I1
sVdt9z413
p1553
I1
sVdgfmchy
p1554
I1
sVdc0xoo4
p1555
I1
sVdboa1os
p1556
I1
sVd1fpb74
p1557
I1
sVd1zv0tc
p1558
I1
sVdb5svc6
p1559
I1
sVdea1ka7
p1560
I2
sVdmgktp4
p1561
I1
sVd2heu3a
p1562
I1
sVdja0vuu
p1563
I1
sVczu94fl
p1564
I1
sVde4twwe
p1565
I2
sVdcknokd
p1566
I3
sVd0au9ny
p1567
I1
sVcysphrd
p1568
I5
sVdepqwy0
p1569
I1
sVdniw6df
p1570
I6
sVcz33pfg
p1571
I1
sVdb8q6cu
p1572
I1
sVdkf58m9
p1573
I1
sVd1nbnpp
p1574
I1
sVdmld37q
p1575
I1
sVd6une0r
p1576
I1
s.