(dp0
Vd1dszk0
p1
I4
sVd3bmncf
p2
I6
sVd5mcxjq
p3
I8
sVd1hc4cr
p4
I3
sVdjto27b
p5
I1
sVdcywgr4
p6
I1
sVd1hf802
p7
I1
sVdmhiquc
p8
I1
sVdqk2rpa
p9
I1
sVd1rrx2b
p10
I2
sVdcl5f0j
p11
I1
sVd07xi6s
p12
I2
sVdnw0acl
p13
I3
sVda1fw46
p14
I1
sVdpuicx5
p15
I1
sVd8t0tal
p16
I1
sVd7yet7x
p17
I1
sVczzmvdw
p18
I1
sVdi1qhn5
p19
I2
sVd11ja2r
p20
I1
sVd5mbypu
p21
I1
sVdgriz5r
p22
I1
sVd54ii8g
p23
I1
sVdi2dy1o
p24
I1
sVdjsibmq
p25
I1
sVdhhkyo9
p26
I1
sVdksywfj
p27
I1
sVdd7lt83
p28
I1
sVd5yxpzi
p29
I1
sVd112h6c
p30
I1
sVcywkdfd
p31
I2
sVd3its4b
p32
I1
sVd07zd0i
p33
I1
sVd8awxpq
p34
I1
sVdahylak
p35
I2
sVdnvzybw
p36
I1
sVdrpaaqk
p37
I1
sVdh8wsgr
p38
I1
sVd2aodfz
p39
I2
sVczcj2l2
p40
I1
sVd47wxtf
p41
I1
sVd1hbzrn
p42
I2
sVdbufyhh
p43
I1
s.