(dp0
Vdg8pfxy
p1
I1
sVdfq9aei
p2
I1
sVczyc50y
p3
I1
sVdd4uffq
p4
I1
sVd7j27a6
p5
I3
sVd0sfdc9
p6
I1
sVd2h0y6d
p7
I1
sVd2i693m
p8
I1
sVdg8ivhe
p9
I1
sVdf3217m
p10
I1
sVdd4n455
p11
I1
sVdrb040b
p12
I1
sVd270r4n
p13
I1
sVcz3htyu
p14
I1
sVdrth3bf
p15
I1
sVczwayjf
p16
I1
sVdktmneu
p17
I1
sVd8ivzoh
p18
I1
sVd9k6nz7
p19
I1
sVdapkvg1
p20
I1
sVdpz94yn
p21
I1
sVd7c9c1e
p22
I1
sVdapi9ee
p23
I1
sVdd1tukv
p24
I1
sVczm8d76
p25
I1
sVd0ww91u
p26
I1
sVdeeelwb
p27
I1
sVdqcfua7
p28
I2
sVdam5e7t
p29
I1
sVd7kdjri
p30
I1
sVd67ty70
p31
I1
sVd7m6p5k
p32
I1
sVdikbmyn
p33
I1
sVdj3qwmk
p34
I1
sVd062mta
p35
I1
sVcylxooy
p36
I1
sVdq5k5l7
p37
I1
sVdeg1d3g
p38
I1
sVd4dm06u
p39
I1
sVd9fetbw
p40
I2
sVczvszyr
p41
I1
sVdc9wjgo
p42
I1
sVdagboya
p43
I1
sVdmg9ltg
p44
I1
sVd2miuc8
p45
I1
sVczw8euo
p46
I1
sVdc6npr5
p47
I1
sVdevwq1r
p48
I1
sVd0cssym
p49
I1
sVcz0l34r
p50
I1
sVdhk5y8e
p51
I1
sVdnhniv2
p52
I1
sVdqehmkk
p53
I1
sVdjrfxaz
p54
I2
sVd9a5hwm
p55
I1
sVdjtpyjf
p56
I1
sVddsjv95
p57
I2
sVdt2ut5a
p58
I1
sVdgu9pfy
p59
I1
sVd5146vn
p60
I1
sVd5chm98
p61
I1
sVd6lcogd
p62
I1
sVd9k8vrd
p63
I1
sVddjczlv
p64
I1
sVda5n1r6
p65
I1
sVcyigiuj
p66
I1
sVdbf6xn6
p67
I1
sVdfghul0
p68
I1
sVdfnqfye
p69
I1
sVd5tli31
p70
I1
sVdfzvo1z
p71
I1
sVd695hss
p72
I1
sVdbiicln
p73
I1
sVdt89qt3
p74
I1
sVdf1u00d
p75
I1
sVdc8s1so
p76
I1
sVddbh5pj
p77
I1
sVd5yhkvp
p78
I1
sVd62k6e7
p79
I1
sVd1taanl
p80
I1
sVdi5b6uh
p81
I1
sVd11ks0i
p82
I2
sVd9d3rdf
p83
I1
sVdfwnawj
p84
I1
sVd82ucr4
p85
I1
sVd6eaqhx
p86
I1
sVdrl67wj
p87
I1
sVd7i1nm1
p88
I2
sVd85okdu
p89
I1
sVdktzq2a
p90
I1
sVd8h1ei9
p91
I1
sVd01yise
p92
I1
sVdkklel4
p93
I3
sVd0i9xr1
p94
I1
sVd79su7g
p95
I1
sVdecsc5j
p96
I1
sVdks6agq
p97
I1
sVdc9420j
p98
I1
sVdd7ak7a
p99
I1
sVdiptq5l
p100
I1
sVdi4g13r
p101
I1
sVcyi2qq5
p102
I1
sVdci7dr1
p103
I1
sVdk1rl3g
p104
I1
sVdek82ye
p105
I1
sVde29bqp
p106
I1
sVd39g48p
p107
I1
sVdi2psqh
p108
I1
sVd4s72yk
p109
I1
sVd5ufmhb
p110
I1
sVdh4fz0t
p111
I1
sVdgw35ti
p112
I1
sVdcbs0rc
p113
I1
sVdfr19b1
p114
I1
sVd84t7s5
p115
I1
sVd3mvsjv
p116
I1
sVd9kdvhz
p117
I1
sVdr2rsgd
p118
I1
sVdtcdq22
p119
I1
sVd3y8zug
p120
I1
sVcz58cpc
p121
I1
sVd72uc5k
p122
I1
sVdk3a3fr
p123
I1
sVdj17p93
p124
I1
sVdo71smj
p125
I1
sVdo4x0cp
p126
I1
sVdics7iw
p127
I1
sVd964op5
p128
I1
sVdepj0cf
p129
I1
sVdgnbcgs
p130
I1
sVdco6ct6
p131
I1
sVdnkk9jo
p132
I1
sVd9rd5tl
p133
I1
sVd2dyk7p
p134
I1
sVd0wnfag
p135
I1
sVdsnn0j1
p136
I1
sVdo1ma2b
p137
I1
sVd72zoef
p138
I1
sVdd3kvxp
p139
I1
sVdcvlh9s
p140
I1
sVd3f1ihg
p141
I1
sVdkpzp9f
p142
I1
sVda1icek
p143
I1
sVd417hpm
p144
I1
sVczwn55u
p145
I1
sVdmzvr1t
p146
I1
sVdi1iwki
p147
I1
sVd2wu5j9
p148
I1
sVczjp7ul
p149
I1
sVdagnnqj
p150
I1
sVdc72e03
p151
I1
sVd40ix5u
p152
I1
sVdc1pjos
p153
I1
sVdd8sgmj
p154
I1
sVd59xdse
p155
I1
sVdbw2ovn
p156
I1
sVcz4feas
p157
I1
sVd2w8y7y
p158
I1
sVd63vkt1
p159
I1
sVdd8lccs
p160
I1
sVd88bjtl
p161
I1
sVczxqx3t
p162
I1
sVcymvmzl
p163
I1
sVdr6po47
p164
I1
sVdr7qem0
p165
I1
sVdibh1k8
p166
I1
sVd647mn7
p167
I1
sVdin8g9z
p168
I1
sVd1ph2yt
p169
I1
sVdtbys36
p170
I1
sVd69eci4
p171
I1
sVdn3ztzs
p172
I1
sVd865syr
p173
I1
sVdqttz4g
p174
I1
sVdi5uil0
p175
I1
sVdi3yw45
p176
I1
sVd5ojxco
p177
I1
s.