(dp0
Vdr91qy1
p1
I1
sVdnxmqdl
p2
I2
sVdevwam9
p3
I1
sVdi7yv7y
p4
I1
sVdjjfutz
p5
I2
sVdp0b2tr
p6
I1
sVdj6yhgh
p7
I1
sVd5tbtop
p8
I1
sVd1jzyp5
p9
I1
sVd2ekhoz
p10
I1
sVdht1gfq
p11
I1
sVddbfruq
p12
I1
sVdjvdsby
p13
I1
sVdibduq5
p14
I1
sVdn899pr
p15
I1
sVd5cti0a
p16
I1
sVd1xvalv
p17
I1
sVdbppkde
p18
I1
sVdstvxu8
p19
I1
sVd7m26lk
p20
I1
sVdmgrcb3
p21
I1
sVd9d3tmg
p22
I1
sVdp486l7
p23
I1
sVd4bg53o
p24
I1
sVdbero8x
p25
I1
sVdc5m99d
p26
I1
sVdg2cv0v
p27
I1
sVdcn5g8x
p28
I1
sVdg2qee0
p29
I1
sVczivad3
p30
I1
sVczhs2q4
p31
I1
sVdiltul8
p32
I1
sVczvorbu
p33
I1
sVda9flmd
p34
I3
sVdhxlbkz
p35
I1
sVdh2rsef
p36
I1
sVdkurk2f
p37
I1
sVczyo0b7
p38
I1
sVcyuz8xr
p39
I1
sVdcqk0wb
p40
I1
sVcznf5rc
p41
I1
sVdnpbxvd
p42
I1
sVd3ruuuy
p43
I1
sVdsax2jf
p44
I1
sVcz0fial
p45
I1
sVd5ikrjw
p46
I1
sVdp1ddrm
p47
I1
sVdc86sq9
p48
I1
sVd35obi2
p49
I1
sVdoxgw33
p50
I1
sVdrp2vtj
p51
I1
sVcyupd8u
p52
I1
sVda88lzs
p53
I2
sVd3sb7i9
p54
I1
sVdkdawz9
p55
I1
sVd945rbi
p56
I1
sVdoww4g8
p57
I1
sVdmt9udj
p58
I1
sVd2f8l5y
p59
I1
sVd1zuacj
p60
I1
s.