(dp0
Vcyif1oa
p1
I1
sVd9r505v
p2
I1
sVddwpmhs
p3
I1
sVd161z55
p4
I1
sVdki3gj2
p5
I1
sVd7qbl30
p6
I1
sVddcadhc
p7
I1
sVd5avuqf
p8
I1
sVdfc7bkt
p9
I1
sVdhjlkw2
p10
I1
sVcyzvz9b
p11
I1
sVd0bkqrz
p12
I1
sVdmyg0x1
p13
I1
sVdca6cxp
p14
I1
sVdhm0w6x
p15
I1
sVd1gib5b
p16
I1
sVd31lyn1
p17
I1
sVd6ow0s0
p18
I1
sVdsviopy
p19
I1
sVd7t01wd
p20
I1
sVdfmy422
p21
I1
sVd1628ic
p22
I1
sVdr7c3ke
p23
I1
sVdfy82b0
p24
I1
sVdsjqcxj
p25
I1
sVd2jcijj
p26
I1
sVd9b5sux
p27
I1
sVd2alc8b
p28
I1
sVd2m6yxb
p29
I1
sVd0jl2n3
p30
I1
sVd1xdyp5
p31
I4
sVd1qdlvf
p32
I1
sVd162l93
p33
I1
sVdh082a7
p34
I1
sVdbngq6j
p35
I1
sVd8xdg3m
p36
I1
sVd5ax4o1
p37
I1
sVdb5u7k0
p38
I1
sVddbxi3w
p39
I2
sVdhz16g5
p40
I1
sVdkayq4c
p41
I1
sVdnbqm8j
p42
I1
sVdjo0dxv
p43
I1
sVd1lca7e
p44
I1
sVd6zxge2
p45
I1
s.