(dp0
Vd0owzot
p1
I1
s.(dp0
Vdcef7du
p1
I1
sVd0owzot
p2
I1
s.(dp0
Vddi7w9a
p1
I1
sVd0owzot
p2
I1
s.(dp0
Vd0owzot
p1
I1
sVddpddhh
p2
I1
s.(dp0
Vddvafzd
p1
I1
sVd0owzot
p2
I1
s.(dp0
Vdfv7f8o
p1
I1
sVd0owzot
p2
I1
s.(dp0
Vdig57vy
p1
I1
sVd0owzot
p2
I1
s.(dp0
Vdjqm2z2
p1
I1
sVd0owzot
p2
I1
s.(dp0
Vdjs1j1x
p1
I1
sVd0owzot
p2
I1
s.(dp0
Vdk19thl
p1
I1
sVd0owzot
p2
I1
s.(dp0
Vdssgozg
p1
I1
sVd0owzot
p2
I1
s.