(dp0
Vd2b670c
p1
I1
sVdi3mikb
p2
I1
sVdb51uwo
p3
I1
sVcyo4udf
p4
I1
sVdhhdeb4
p5
I1
sVd9ffyus
p6
I1
sVdarqctm
p7
I1
sVd6zl2by
p8
I1
sVdpymkfz
p9
I1
sVcyrozmt
p10
I1
sVdpqt466
p11
I1
sVddfarh9
p12
I1
sVdfomn6g
p13
I1
sVd2qixce
p14
I1
sVd1x0vdt
p15
I1
sVdgabunc
p16
I1
sVdbpwbs0
p17
I1
sVd1vcqsu
p18
I1
sVdsvvl6d
p19
I1
sVdh5i1x4
p20
I1
sVdrqfrer
p21
I1
sVddtabf3
p22
I2
sVdp1j7th
p23
I1
sVdjisr21
p24
I1
sVdjvvwov
p25
I1
sVd9cw5zr
p26
I1
sVd11t22p
p27
I1
sVd4a44ri
p28
I1
sVdsqepm1
p29
I1
sVdbmovtb
p30
I1
sVd0n1t7u
p31
I1
sVd3r47us
p32
I1
sVdfj8fyk
p33
I1
sVdfudrll
p34
I1
sVd4srac7
p35
I1
sVdclkhjl
p36
I1
sVdehvnqi
p37
I1
sVd6o0wqz
p38
I1
sVdg5uuug
p39
I1
sVd7l1i32
p40
I1
sVd0iyiyb
p41
I1
sVd0bw85f
p42
I1
sVdkhetz6
p43
I1
sVd9aypqb
p44
I2
sVcynj6as
p45
I1
sVd6bp1cd
p46
I1
sVd4fjcxm
p47
I1
sVd5q9hne
p48
I1
sVdqc2dcg
p49
I1
sVd4glwrq
p50
I1
sVde96rbv
p51
I1
sVdi5fj8m
p52
I1
sVd1d845t
p53
I1
sVdem0fz3
p54
I1
sVdmuj3r3
p55
I1
sVdktbvoe
p56
I1
sVdgriwaf
p57
I1
sVczxnd37
p58
I1
sVd56fyuy
p59
I1
sVdgfh222
p60
I1
sVdi25386
p61
I1
sVdilxeue
p62
I1
sVd4jivxu
p63
I1
sVd3u4rav
p64
I1
sVdkpai0u
p65
I1
sVd7qffba
p66
I1
sVd7xn26i
p67
I2
sVdrt4ys6
p68
I1
sVdgefo45
p69
I1
sVdih12c8
p70
I1
sVd8j6f9z
p71
I1
sVd6zshk7
p72
I1
sVdks26z0
p73
I1
sVdax5u5y
p74
I1
sVd6lq5rh
p75
I1
sVdfoqksu
p76
I1
sVdo0g2cv
p77
I1
sVdnaes2a
p78
I1
sVd883dh6
p79
I1
sVdn9nnr9
p80
I1
sVdj94834
p81
I1
sVd9wrj9m
p82
I1
sVd9oys12
p83
I1
sVd808kjm
p84
I1
sVd4n7yyn
p85
I1
sVd9asqq3
p86
I1
sVdhfr3o9
p87
I1
sVd00gjfy
p88
I1
sVdpvxv19
p89
I1
sVd9e3ep3
p90
I1
sVda0mlc6
p91
I1
sVd7hrjy2
p92
I1
sVdrqld4n
p93
I1
sVdajfm5w
p94
I2
sVczwrgoo
p95
I1
sVd6dac44
p96
I1
sVd14kqum
p97
I1
sVcyz07ma
p98
I1
sVdfjhles
p99
I1
sVdgfpze4
p100
I1
sVczc8i7q
p101
I1
sVdpw2hs4
p102
I1
s.