(dp0
Vczjc41x
p1
I1
sVdsxtams
p2
I1
sVdiu5gml
p3
I1
sVczbnjy4
p4
I2
sVdsxdx4x
p5
I1
sVdsocx7j
p6
I1
sVdb24p38
p7
I1
sVdt5ovw1
p8
I2
sVcywa3ou
p9
I1
sVd82b9nu
p10
I3
sVcyjvw3u
p11
I1
sVdkkqli0
p12
I1
sVd7u0ev6
p13
I2
sVczbjbih
p14
I1
s.