(dp0
Vd9xgfra
p1
I1
sVdj7qx72
p2
I1
sVdihf1zk
p3
I1
sVd07lo4h
p4
I1
sVdihd0ud
p5
I1
sVd0bkqrz
p6
I1
sVdqbmld6
p7
I1
sVd5ny75e
p8
I1
sVd2m1g9b
p9
I1
sVdj1rxtt
p10
I1
sVdgvlupi
p11
I1
sVdo05cnt
p12
I1
sVdaakf8x
p13
I1
sVdncjwvy
p14
I3
sVddwg7wf
p15
I1
sVd62od4a
p16
I1
sVd3g55qx
p17
I2
sVdenc4cr
p18
I1
sVd0rii7q
p19
I1
sVdemdeow
p20
I1
sVczk1xtq
p21
I1
sVde09cwt
p22
I1
sVd2o9bp4
p23
I1
sVdj7cmp2
p24
I1
sVddcllp1
p25
I1
sVd4s7a20
p26
I1
sVdgi14mp
p27
I1
sVd36zmgf
p28
I1
sVdpczgul
p29
I1
sVd7daplm
p30
I1
sVdh2n7x3
p31
I1
sVd6ak46h
p32
I1
sVdi77phk
p33
I1
sVdghtbw8
p34
I1
sVd0w4guz
p35
I1
sVddpvuto
p36
I1
sVd69dpso
p37
I1
sVd1rbrt8
p38
I1
sVdihoajm
p39
I1
sVd1jqlbn
p40
I1
sVd1364og
p41
I1
sVdey9s1j
p42
I1
sVdd1urcl
p43
I1
sVdihbpfd
p44
I1
sVd19y68t
p45
I1
sVd6s8adj
p46
I1
sVd1qzybj
p47
I1
sVd0poq7h
p48
I1
sVdhz5dly
p49
I1
sVdghkmc8
p50
I1
sVdecjcri
p51
I1
sVd0uof6l
p52
I1
sVdatm18f
p53
I1
sVdb4y6if
p54
I1
sVd341jvy
p55
I1
sVd0v4jte
p56
I1
sVd9jqbgl
p57
I1
sVd7c8h4w
p58
I1
sVd1umt2h
p59
I1
sVdh1zxjk
p60
I1
sVd6hf6fe
p61
I1
sVda82l70
p62
I1
sVd0naqqe
p63
I1
sVdb1ocoe
p64
I1
sVd4a052b
p65
I3
sVd2bspsf
p66
I1
sVdcdj7x8
p67
I1
sVdnjbawh
p68
I1
sVdst3vee
p69
I1
sVdihlktm
p70
I1
sVdkkad7f
p71
I1
sVdihg51u
p72
I1
sVdgl4l3x
p73
I1
sVd62ncd2
p74
I1
sVd44dslv
p75
I1
sVdj22ixm
p76
I1
sVd1ky1w8
p77
I1
sVdmzukbx
p78
I1
sVcz4m8u0
p79
I1
sVdfx8yi7
p80
I1
sVdgw2ra4
p81
I1
sVcz875qq
p82
I1
sVcykduwu
p83
I1
sVd5fnl16
p84
I1
sVdqxds6c
p85
I1
sVdiuu2ns
p86
I1
sVd0g94j4
p87
I1
sVd9kewu0
p88
I1
sVdsbl7ym
p89
I1
sVdod48c4
p90
I1
sVd6b2hoo
p91
I1
sVczasy7t
p92
I1
sVd35qwo9
p93
I1
sVdjwta3j
p94
I1
sVd1paev5
p95
I2
sVdif396p
p96
I1
sVdckfqgm
p97
I1
sVdikdnyt
p98
I1
sVd7y0oq5
p99
I1
sVdhq7io6
p100
I1
sVd398vcc
p101
I1
sVdbedtjf
p102
I1
sVd4i0nxj
p103
I1
sVdig4dh0
p104
I1
sVczrzz06
p105
I1
sVcz4c3b9
p106
I1
sVd7loc3u
p107
I1
sVdnj5931
p108
I1
sVdg7qcf6
p109
I2
sVdncjh0i
p110
I1
sVdihf98b
p111
I1
sVd81cwrp
p112
I1
sVczzhs97
p113
I1
sVd6yhti3
p114
I1
sVddpdu31
p115
I1
sVcz6xall
p116
I1
sVd2o3luj
p117
I1
sVdhlwdhj
p118
I1
sVdnr7okf
p119
I1
sVd9ka09m
p120
I1
sVdrxgsgr
p121
I1
sVdihdl89
p122
I1
sVd01zbpd
p123
I1
sVde1dgkn
p124
I1
sVddv2dku
p125
I1
sVde8w7hj
p126
I1
sVdg6xw2p
p127
I1
sVdih96jp
p128
I1
sVd9r5s26
p129
I1
sVdcyvszl
p130
I1
sVdei1519
p131
I1
sVdi7z8pg
p132
I1
sVd2jck2v
p133
I1
sVdnu2xkv
p134
I1
sVdc9sm2c
p135
I1
sVdduy83k
p136
I1
sVddi7w9a
p137
I1
sVdql9knk
p138
I1
sVdiz8xcr
p139
I1
sVdmt2l1l
p140
I1
sVddwjflz
p141
I1
sVdgpzlf8
p142
I1
sVds8mqwu
p143
I1
sVd5q1hen
p144
I1
sVd2s9jac
p145
I1
sVd1qddgt
p146
I1
sVd9e0kjn
p147
I2
sVdanv86h
p148
I3
sVdcbg5bc
p149
I1
sVdperth8
p150
I1
sVdihdtq9
p151
I1
sVd2au36s
p152
I1
sVd9gu27y
p153
I1
sVdaopgdp
p154
I1
sVdh44ddz
p155
I1
sVddagli7
p156
I1
sVdebf8ls
p157
I2
sVdj2fipx
p158
I1
sVdet1gpv
p159
I1
sVd8g5rqp
p160
I1
sVdaho9gs
p161
I1
sVdakeus5
p162
I1
sVd30yxyx
p163
I1
sVd5y3zpb
p164
I1
sVczwbxuf
p165
I1
sVdaqfkkb
p166
I1
sVdiy6e91
p167
I1
sVd2em0la
p168
I1
sVdrblxoz
p169
I1
sVd6r5fis
p170
I1
sVd1o8wi0
p171
I1
sVd7rufbq
p172
I1
sVdhgnc9r
p173
I1
sVdfn7bho
p174
I1
sVder3ryb
p175
I1
sVd70vyyu
p176
I1
sVdf1pgwf
p177
I1
sVd5tggpx
p178
I1
sVd8st64y
p179
I1
sVczzsnn5
p180
I1
sVd1uzl7f
p181
I1
sVdt9tziv
p182
I1
sVd53qqt6
p183
I1
sVddi9ygq
p184
I1
sVcz1gbc8
p185
I1
sVdhgrz5q
p186
I1
sVdgx3et3
p187
I1
sVd25im42
p188
I1
sVdd6tfn8
p189
I1
sVdiheejj
p190
I1
sVd68o4tu
p191
I1
sVcyml8m3
p192
I1
sVdagxmmx
p193
I1
sVd0zl4h5
p194
I1
sVd4l487o
p195
I1
sVd4wdsxi
p196
I1
sVdfgxgdb
p197
I1
sVcyiyowq
p198
I1
sVd70zcxa
p199
I1
sVd1k2oi4
p200
I1
sVdsgro86
p201
I1
sVd28rtl5
p202
I1
sVd3q2rr3
p203
I1
sVd2fiaax
p204
I1
sVd1haws0
p205
I1
sVd04bacy
p206
I1
sVdgy92uo
p207
I1
s.