(dp0
Vd3zunnk
p1
I1
sVdj011do
p2
I6
sVd3j5xet
p3
I1
sVdfiobec
p4
I1
sVd7t0tix
p5
I2
sVd0tjaip
p6
I3
sVd629chf
p7
I1
sVdaktjn6
p8
I1
sVd82bs8b
p9
I1
sVd93yz4p
p10
I1
sVcyl2h2d
p11
I1
sVd4kvezi
p12
I1
sVdkqbvmh
p13
I1
sVd3hgn14
p14
I4
sVd40qzvu
p15
I1
sVdg2n2bb
p16
I1
sVd4srepx
p17
I1
sVd9fdrfs
p18
I4
sVdeekrw3
p19
I1
sVdas7q0n
p20
I2
sVdd1wk5e
p21
I1
sVdnelwsi
p22
I1
sVdd4tqbt
p23
I1
sVday7x7h
p24
I1
sVd4u0z8k
p25
I1
sVdajnedi
p26
I2
sVdch9zfx
p27
I1
sVcyrjcid
p28
I1
sVdd0r1cu
p29
I2
sVdcw1kkc
p30
I1
sVdi8q1fz
p31
I1
sVd276ubv
p32
I1
sVdqldevm
p33
I3
sVd72e5gp
p34
I1
sVdn7jfch
p35
I1
sVd77tg93
p36
I1
sVd2fqe0f
p37
I1
sVd2b4fw7
p38
I1
sVd30lsu9
p39
I1
sVddjubou
p40
I1
sVdf3217m
p41
I1
sVd9uw8fo
p42
I2
sVd5e1esa
p43
I1
sVdi4se41
p44
I1
sVdgv89l7
p45
I1
sVdayoe50
p46
I4
sVddj8nru
p47
I1
sVd7rpwja
p48
I1
sVczgnjvl
p49
I1
sVd0s1gu7
p50
I2
sVcym0ldg
p51
I1
sVd68vuho
p52
I1
sVd1hbq8d
p53
I1
sVdi51emq
p54
I2
sVde2wyfn
p55
I2
sVdexdan9
p56
I1
sVd3mgyzr
p57
I1
sVdjckoj8
p58
I1
sVd7vtat2
p59
I1
sVds6dqf8
p60
I2
sVd484vvj
p61
I1
sVdfi2spw
p62
I1
sVd9l2buy
p63
I2
sVddcrs13
p64
I1
sVdbeharc
p65
I1
sVdedxe2a
p66
I1
sVdfhnly7
p67
I1
sVdo9owpf
p68
I2
sVdo7aa0t
p69
I1
sVd1vuml0
p70
I3
sVd33lp17
p71
I1
sVdgc7v7v
p72
I1
sVd4s5bvm
p73
I5
sVd6ai7a4
p74
I1
sVd087u53
p75
I1
sVdg6m8tp
p76
I2
sVdhu3jg7
p77
I1
sVd4kme91
p78
I1
sVd3mfnay
p79
I1
sVdkf06e2
p80
I1
sVdokvdd9
p81
I1
sVddwzmtt
p82
I3
sVd7etlkz
p83
I5
sVd19c4mx
p84
I1
sVd0yrokv
p85
I1
sVd6bvcy7
p86
I1
sVd0197gl
p87
I1
sVddfq67t
p88
I1
sVdiexvy1
p89
I1
sVd92673v
p90
I2
sVd5ov959
p91
I2
sVd3mmkwa
p92
I3
sVd2e07af
p93
I5
sVdaxt1c9
p94
I1
sVd5umu2t
p95
I1
sVdrcu4bi
p96
I2
sVdccodv5
p97
I6
sVd30qnjt
p98
I2
sVdihtd9l
p99
I2
sVdo59y2a
p100
I3
sVd62qwcy
p101
I3
sVdc5mzid
p102
I1
sVdeq15wv
p103
I3
sVdkrkpaa
p104
I2
sVdc5frsp
p105
I1
sVd9ddehr
p106
I1
sVd3l3p97
p107
I1
sVdr13ic1
p108
I3
sVd7tlzow
p109
I1
sVdf9arig
p110
I1
sVd3o00mu
p111
I1
sVdd66657
p112
I1
sVdcrhg5k
p113
I1
sVd2g85g6
p114
I1
sVczmqql0
p115
I7
sVd10mweq
p116
I1
sVdcjeufc
p117
I2
sVdmte8ee
p118
I1
sVcza0loo
p119
I2
sVdnj8wli
p120
I2
sVd3ag2t0
p121
I1
sVdfptb2c
p122
I1
sVdjtjgoj
p123
I1
sVd2c30c6
p124
I1
sVdeisrhk
p125
I1
sVdaxtaog
p126
I2
sVdkb0iji
p127
I1
sVd7eta2u
p128
I1
sVdfkb299
p129
I4
sVdpcziub
p130
I3
sVd4h3pmz
p131
I3
sVdtae2ob
p132
I1
sVczkqzco
p133
I2
sVd3qujwv
p134
I1
sVdcvg11w
p135
I1
sVd350njv
p136
I6
sVdhmsl93
p137
I1
sVdbj2prs
p138
I1
sVdf525xm
p139
I1
sVdf04ie4
p140
I2
sVd75w5pj
p141
I1
sVd87jkae
p142
I1
sVcyobkl1
p143
I1
sVdt6gsiu
p144
I1
sVd9q0lpz
p145
I1
sVdpvsuc2
p146
I1
sVdgkpgki
p147
I2
sVdhqqbqa
p148
I1
sVd5urkqx
p149
I1
sVdbnph29
p150
I1
sVdde0yxy
p151
I1
sVd5fpi7u
p152
I1
sVd7a7kr3
p153
I1
sVdcap94g
p154
I1
sVdar1kef
p155
I1
sVdej9kmy
p156
I1
sVcyjatml
p157
I1
sVcylhcaw
p158
I1
sVd3r8xrw
p159
I1
sVdqgbgiw
p160
I1
sVd0z5mx8
p161
I3
sVdjvhuc3
p162
I1
sVdf8r2zs
p163
I2
sVdb1q5al
p164
I3
sVdayg6h4
p165
I1
sVdqj8f76
p166
I1
sVd9inb0t
p167
I1
sVd2c37yr
p168
I1
sVd115k3f
p169
I1
sVdgiiwfb
p170
I1
sVd4xh7ol
p171
I1
sVddclz7h
p172
I2
sVd00fscj
p173
I1
sVd1onxlr
p174
I1
sVdihgl5s
p175
I1
sVdodlwog
p176
I1
sVdcc8j5o
p177
I3
sVdp93s27
p178
I4
sVdcshw0p
p179
I1
sVdj4929j
p180
I1
sVdrmmp5c
p181
I2
sVda719ld
p182
I1
sVdmhzy6h
p183
I3
sVd081a51
p184
I1
sVd5bmu5j
p185
I3
sVcysj854
p186
I1
sVd6xjdrv
p187
I1
sVcz6gsu5
p188
I1
sVd8dlis5
p189
I1
sVddicng7
p190
I1
sVdi2s9k2
p191
I1
sVd7d99xg
p192
I2
sVd01gf32
p193
I1
sVdbci6sc
p194
I1
sVdo2impj
p195
I1
sVd7rtfx7
p196
I1
sVd0tdom8
p197
I1
sVdcyqj2q
p198
I2
sVd3mjpng
p199
I1
sVd91f4s3
p200
I1
sVdh9x8b7
p201
I1
sVdfwqiuv
p202
I1
sVcylcx5c
p203
I1
sVd4z7tdl
p204
I1
sVd99rx64
p205
I2
sVd7qkaxe
p206
I2
sVd3ecxu6
p207
I1
sVd71itub
p208
I1
sVddr7nme
p209
I3
sVdcjspxn
p210
I5
sVd8n4j37
p211
I1
sVd23hoeo
p212
I1
sVddyshau
p213
I1
sVd7f5zg3
p214
I1
sVd84sy36
p215
I1
sVda4g2bj
p216
I1
sVcz6gblh
p217
I1
sVdrv0mck
p218
I1
sVdi4y549
p219
I1
sVd3meaba
p220
I1
sVdsmiebb
p221
I2
sVdcuzaps
p222
I1
sVdd5d7pl
p223
I1
sVdau039z
p224
I2
sVdhadpf4
p225
I2
sVdc31ezs
p226
I2
sVdbydkw4
p227
I1
sVdelglek
p228
I1
s.