(dp0
Vdp35zx6
p1
I1
sVd614m1x
p2
I1
sVd0rvz71
p3
I1
sVd69hh90
p4
I2
sVd8bwzd0
p5
I1
sVdimapc1
p6
I1
sVde3l6yf
p7
I2
sVdhf7wlj
p8
I1
sVd53brrr
p9
I1
sVd2cpas7
p10
I1
sVd04q7pn
p11
I1
sVcywvilf
p12
I1
sVde4i7du
p13
I1
sVdr0sjnl
p14
I1
sVdro4k95
p15
I2
sVdhc3ve7
p16
I1
sVdkt2enw
p17
I1
sVd7pb80q
p18
I1
sVdqgv4n0
p19
I2
sVdgibbkc
p20
I1
sVddbhko3
p21
I1
sVdc9wq32
p22
I1
sVdi3gr7z
p23
I1
sVcys3423
p24
I1
sVdkh7d03
p25
I1
sVd8xsz1h
p26
I2
sVd0wrmap
p27
I1
sVddhllw1
p28
I1
sVde8vu3r
p29
I1
sVdilfh0o
p30
I1
sVdfepov0
p31
I1
sVdfq6q1q
p32
I1
sVd4zn6wg
p33
I1
sVdk5xz76
p34
I1
sVd125tps
p35
I1
sVdaa1vpo
p36
I2
sVd7k85zj
p37
I1
sVdfbyjqv
p38
I1
sVd3zxyq1
p39
I1
sVd032r13
p40
I1
sVdr0m13z
p41
I1
sVde3b3vz
p42
I1
sVdpyyl3k
p43
I1
sVdjqeojc
p44
I1
sVdkmj53x
p45
I1
sVd6krx7a
p46
I1
sVd9y1jsb
p47
I1
sVdhgl485
p48
I1
sVdaxcywn
p49
I1
sVd9afvdw
p50
I1
sVdb3shfm
p51
I1
sVdgi8h18
p52
I1
sVd9lf1vp
p53
I1
sVd3r95dy
p54
I1
sVd098m9r
p55
I1
sVd4nylda
p56
I1
sVd97wj54
p57
I1
sVdh66lo8
p58
I1
sVcyy3d6k
p59
I1
sVd5791ri
p60
I1
sVd7nqfda
p61
I1
sVdbqv1ex
p62
I1
sVd84l4wf
p63
I1
sVd7vagxm
p64
I1
sVd1zszfi
p65
I1
sVdjbq07s
p66
I1
sVdspd9vp
p67
I1
sVdk45cyg
p68
I1
sVdfjp3sx
p69
I1
sVd8dragk
p70
I1
sVd0wh8cb
p71
I1
sVd22o87r
p72
I1
sVdgt0udu
p73
I1
sVdbck61y
p74
I1
sVda3xqqk
p75
I1
sVd2vdvtd
p76
I1
sVdrgfnwe
p77
I1
sVd87fa6p
p78
I1
sVdgqgp67
p79
I1
sVd23iwjp
p80
I1
sVd42eic8
p81
I1
sVdesqf18
p82
I1
sVd6sgaab
p83
I1
sVd8xkogi
p84
I1
sVdf1lhjx
p85
I1
sVdbhv4lg
p86
I1
sVd4md9z4
p87
I1
sVdisca0u
p88
I1
sVdjo3s7p
p89
I1
sVdkokqvd
p90
I1
sVd7absfp
p91
I1
sVd0o6k8s
p92
I1
sVdoj7efe
p93
I1
sVd44v8rc
p94
I1
sVd3cicrs
p95
I1
sVd1fy9vo
p96
I1
sVdpa6xn0
p97
I1
sVcz87hfj
p98
I2
sVd1ffheq
p99
I1
sVdidklb7
p100
I1
sVdirbnp9
p101
I1
sVdj69jkw
p102
I1
sVczqmnue
p103
I1
sVdoj5rmb
p104
I1
sVd13pksz
p105
I1
sVdex6l9a
p106
I2
sVcz6g7dz
p107
I1
sVdeya85j
p108
I1
sVd0oa035
p109
I1
sVdhnfcw1
p110
I1
sVczsl3et
p111
I1
sVdhll42o
p112
I1
sVd152k5f
p113
I1
sVd319zlu
p114
I1
sVdd9vx97
p115
I1
sVde708wc
p116
I2
sVczicuyf
p117
I1
sVd1yjmho
p118
I2
sVd3nl1gz
p119
I1
sVczarmzc
p120
I1
sVd2v2d1l
p121
I1
sVd891q5x
p122
I1
sVdj6m7g2
p123
I1
sVdacrfuc
p124
I1
sVd0mmhch
p125
I1
sVd9l62ki
p126
I1
sVdmvpueo
p127
I1
sVdth0756
p128
I1
sVdqsdt2w
p129
I1
sVdejcfol
p130
I1
sVdk9v6j6
p131
I1
sVdnwml69
p132
I1
sVdbmz7md
p133
I1
sVczeizdb
p134
I1
sVd2x82p1
p135
I1
sVd0qllv9
p136
I1
sVd66m353
p137
I1
sVd9yd2hs
p138
I1
sVdb67dw3
p139
I1
sVdgn9079
p140
I1
sVd0wez0q
p141
I1
sVdfe8kux
p142
I1
sVdcms1su
p143
I1
sVdho7m6j
p144
I1
sVdqjs5yi
p145
I1
sVczoy611
p146
I1
sVdfs1o9w
p147
I1
sVddbbkwo
p148
I1
sVdmrorcy
p149
I1
sVdc7gkf7
p150
I1
sVd3s1w9u
p151
I1
sVdmlvnsz
p152
I1
sVd7jslf3
p153
I1
sVdnagg7a
p154
I1
sVd3drvjo
p155
I1
sVd7jy62o
p156
I1
sVdmvxipk
p157
I2
sVde10k9a
p158
I1
sVdmhrheo
p159
I1
sVddlcmcq
p160
I1
sVd48wpx2
p161
I1
sVdryeml3
p162
I1
sVdhc67na
p163
I1
sVd4iw8fm
p164
I1
sVd7hs3ko
p165
I1
sVdms9ujo
p166
I1
sVdddrixw
p167
I1
sVdcgcikd
p168
I2
sVdank28o
p169
I1
sVczmh349
p170
I1
sVdb8ke6d
p171
I1
sVdgfl4wp
p172
I1
sVdklw1rg
p173
I1
sVczzdjdb
p174
I1
sVd8h6rln
p175
I1
sVd0u4b8r
p176
I1
sVdf64b2z
p177
I1
sVcyk061r
p178
I1
sVdql3d0a
p179
I2
sVdr53aza
p180
I1
sVdbfupxa
p181
I1
sVde0oogi
p182
I1
sVdeppzbq
p183
I1
sVdkq1vlh
p184
I1
sVd23i8xw
p185
I1
sVd071yy1
p186
I1
sVdn9rtq9
p187
I1
sVdi0ttgn
p188
I1
sVdgdt9qb
p189
I1
sVd8wes9j
p190
I1
sVdh2tjqw
p191
I1
sVdmsh8vp
p192
I1
sVdq48dq3
p193
I1
sVdh4rjf3
p194
I1
sVd31d0y0
p195
I1
sVd7pnnnv
p196
I1
sVd1ygb1n
p197
I1
sVdk0v0fv
p198
I1
sVdfriz93
p199
I1
sVdccna5e
p200
I1
sVdak0pg4
p201
I1
sVdj523js
p202
I1
sVd8ox0zo
p203
I1
sVdggwio3
p204
I1
sVd6kbat1
p205
I1
sVd5c8ij1
p206
I1
sVcywo55c
p207
I1
sVdcfiybs
p208
I1
sVdd6dwfy
p209
I4
sVdq5lwhp
p210
I1
sVd072d63
p211
I1
sVd05kugt
p212
I1
sVdf60pt5
p213
I1
sVdehmr6k
p214
I2
sVd4flt73
p215
I1
sVdi2covw
p216
I1
sVcyim7pd
p217
I1
sVcywgpeb
p218
I3
sVds7safs
p219
I1
sVd94xtjh
p220
I1
sVd7wlni3
p221
I1
sVdp5chaa
p222
I1
sVdgdbask
p223
I1
sVde5z21u
p224
I2
sVdst3jxt
p225
I1
sVdi4lm4u
p226
I1
sVdkw1yrk
p227
I1
sVd1cyrcd
p228
I1
sVdo0823q
p229
I1
sVd3b09ag
p230
I1
sVczm21mw
p231
I1
sVdq4g728
p232
I1
sVdhsswfq
p233
I1
sVdd5f1cc
p234
I1
sVd89pccr
p235
I1
sVdntprbg
p236
I1
sVczg18lu
p237
I1
sVd12zwmr
p238
I1
sVd08he1y
p239
I2
sVdbiwgzt
p240
I1
sVd4qrdym
p241
I1
sVd208q0t
p242
I1
sVda5ljjn
p243
I1
sVdajyxkc
p244
I1
sVd2ykz8g
p245
I2
sVd84kqiq
p246
I1
sVdhs5a8y
p247
I1
sVdkdmv75
p248
I2
sVdabv247
p249
I1
sVdd4i0pv
p250
I1
sVd7b0vtj
p251
I1
sVcyjrfco
p252
I1
sVdg0qdiu
p253
I1
sVdp1dpu6
p254
I1
sVd7lgtcl
p255
I1
sVcyjai5e
p256
I1
sVdddvs2l
p257
I1
sVddmvjmr
p258
I1
sVd1akc29
p259
I1
sVd9xbwja
p260
I1
sVd08x1te
p261
I1
sVd8nld7d
p262
I1
sVda6lz6u
p263
I1
sVd0oc91o
p264
I1
sVd2emgkp
p265
I1
sVd4zkkhv
p266
I1
sVdcrqst2
p267
I1
sVdmmeb5h
p268
I1
sVda2lpsv
p269
I1
sVdbpfw9p
p270
I1
sVdd3w9qk
p271
I1
sVdgjxcaa
p272
I1
sVdms6uuc
p273
I1
sVdq7pn9t
p274
I1
sVdid9mws
p275
I1
sVd2vy0ls
p276
I1
sVdayks6f
p277
I1
sVczz3mua
p278
I1
sVd73zwks
p279
I1
sVdj8ml8f
p280
I1
sVdh6hwnq
p281
I1
sVd0i7wbi
p282
I1
sVdtb61dg
p283
I1
sVdd40atq
p284
I1
sVd0708yg
p285
I1
sVdfae4fu
p286
I1
sVd6xw7lz
p287
I1
sVd3izjvu
p288
I1
sVdpnqaxo
p289
I1
sVd0hyat8
p290
I1
sVdn6wz57
p291
I1
sVd572bno
p292
I1
sVddr66q8
p293
I1
sVd5texg8
p294
I1
sVddsut6v
p295
I1
sVd3pfetj
p296
I1
sVdotsvh5
p297
I1
sVdiv15y2
p298
I1
sVdfcofai
p299
I1
sVd73a7d0
p300
I1
sVdcpxnua
p301
I1
sVdgbi99b
p302
I1
sVdf6etnf
p303
I1
sVd1fz2jm
p304
I5
sVdjdu38u
p305
I1
sVdex8qi5
p306
I2
sVdnxkjpt
p307
I1
sVdnzr6e7
p308
I1
sVd1y1kiz
p309
I1
sVdgd11lm
p310
I1
sVdbpii6o
p311
I1
sVdeyx3ba
p312
I1
sVd732is3
p313
I1
sVdkctab3
p314
I1
sVd70ypii
p315
I1
sVd61jzlm
p316
I1
sVdqbu03o
p317
I1
sVdnbyrfl
p318
I1
sVdfdbtgk
p319
I1
sVcyx6sly
p320
I1
sVde8tx9v
p321
I1
sVdf92g1z
p322
I1
sVdaogax1
p323
I1
sVdpub04s
p324
I1
sVczwtk8r
p325
I1
sVcz3rm1o
p326
I1
sVd83yjvc
p327
I1
sVd5n775d
p328
I1
sVdpt3mhq
p329
I1
sVdpt8leb
p330
I1
sVd0lfi2w
p331
I1
sVdc5k40q
p332
I1
sVd40vvlz
p333
I1
sVd0gyc71
p334
I1
sVd4rqs2b
p335
I1
sVd62ds3x
p336
I1
sVdohcm00
p337
I1
sVdqcqtx7
p338
I1
sVd4xv8h3
p339
I1
sVdcpycii
p340
I1
sVdmpkrum
p341
I1
sVdiu543u
p342
I1
sVdn2lu82
p343
I2
sVd399ln6
p344
I1
sVd7jbynx
p345
I1
sVd9d15vu
p346
I1
sVd2dlbxp
p347
I1
sVd7phwd5
p348
I1
sVd85o3j4
p349
I1
sVdbmztxt
p350
I1
sVd1ypf8d
p351
I1
sVd7ctm3f
p352
I1
sVdil5e61
p353
I1
sVdbc0mur
p354
I1
sVd1mawko
p355
I1
sVcyndenl
p356
I1
sVdjjp5hi
p357
I3
sVdc8x44v
p358
I1
sVd7ewli8
p359
I1
sVd8rfbcb
p360
I1
sVdklwvln
p361
I1
sVdaal1dq
p362
I1
sVdinp3yv
p363
I1
sVdmvozpk
p364
I1
sVd1u2kbu
p365
I1
sVddkfkcl
p366
I2
sVd1yqor6
p367
I1
sVd9m9dzn
p368
I1
sVdef91sm
p369
I1
sVd48v871
p370
I1
sVdecfkgs
p371
I1
sVd95yojr
p372
I1
sVdruc7fn
p373
I1
sVd1hyvb8
p374
I1
sVd20camv
p375
I1
sVcyskpyh
p376
I2
sVdb2anbr
p377
I2
sVd7vmidq
p378
I1
sVd5m5lu8
p379
I1
sVd0p3w9z
p380
I1
sVczphwf0
p381
I1
sVdkp6nhf
p382
I1
sVcyy9283
p383
I1
sVdpeels5
p384
I1
sVd98jhvb
p385
I1
sVd0xv2bo
p386
I1
sVd0u3cwn
p387
I1
sVd0h9zl0
p388
I1
sVdjbecyh
p389
I1
sVdhn1n7n
p390
I1
sVdb8jxzp
p391
I1
sVdidna8f
p392
I1
sVd95mk56
p393
I1
sVdgcopmy
p394
I1
sVdcipo57
p395
I1
sVdhgo524
p396
I1
sVd7yplyw
p397
I2
sVdruewke
p398
I1
sVd2nzl1e
p399
I1
sVdhnozky
p400
I1
sVdf1vo7h
p401
I1
sVd4h9vq9
p402
I1
sVd96ltjb
p403
I1
sVd9vmt28
p404
I1
sVdhpfiv4
p405
I1
sVd4m8qmg
p406
I1
sVd5bgn8q
p407
I1
sVdnp5yf8
p408
I1
sVdc2p6bm
p409
I1
sVd0adsqf
p410
I1
sVd1pa6gk
p411
I1
sVdeh8e8q
p412
I1
sVd1l9x2x
p413
I1
sVd0hga2y
p414
I1
sVd8n9q5u
p415
I1
sVczb9ya5
p416
I1
sVdgmzkz3
p417
I1
sVdclb2h6
p418
I1
sVd3phwqx
p419
I1
sVdpuqo9j
p420
I1
sVdmpdjz0
p421
I1
sVdhp04h5
p422
I1
sVd9ydh2t
p423
I1
sVdhjvklu
p424
I2
sVd53o3ex
p425
I1
sVdcfmuqz
p426
I1
sVdbzv1pp
p427
I1
sVd3pgh7w
p428
I1
sVd2mf2xb
p429
I1
sVcywi54c
p430
I1
sVdbqraji
p431
I2
sVd66nmqk
p432
I1
sVdkud3n7
p433
I1
sVd95xr7i
p434
I1
sVdn3lo13
p435
I1
sVd0sqogc
p436
I1
sVd9yq8gt
p437
I1
sVczvy9ie
p438
I1
sVd9f244o
p439
I4
sVdn6w01i
p440
I1
sVdq0vi6k
p441
I1
sVdbqq6yn
p442
I1
sVd57fk3q
p443
I1
sVd4v0o9b
p444
I1
sVd0t2mgx
p445
I1
sVd214t3q
p446
I1
sVd9lgvtv
p447
I1
sVdjrbb75
p448
I1
sVdpa49pj
p449
I1
sVd08j3p1
p450
I1
sVd7hyfzs
p451
I1
sVdhpjld9
p452
I1
sVd0zyml8
p453
I1
sVdhnanxl
p454
I1
sVd190b24
p455
I1
sVcyqslra
p456
I2
sVd6hlm4v
p457
I1
sVdtauipk
p458
I1
sVds008j8
p459
I1
sVd6ik7x3
p460
I1
sVdqkpe8h
p461
I1
sVdki5va1
p462
I1
sVdr9ejv0
p463
I3
sVdo85e33
p464
I1
sVdar1ri3
p465
I1
sVdivzt78
p466
I2
sVd5zsgp2
p467
I1
sVdc0tyaj
p468
I1
sVdg1jq3r
p469
I1
sVd81stjq
p470
I1
sVdbtvbnq
p471
I1
sVd5uomnf
p472
I1
sVd76q35t
p473
I1
sVd9y9udr
p474
I1
sVd1y1m09
p475
I1
sVd82xzxd
p476
I1
sVcysbr62
p477
I1
sVdelglek
p478
I1
sVd9lmjcc
p479
I1
sVdf6bqiq
p480
I1
sVdkgjo8r
p481
I1
sVdaoofmd
p482
I1
sVdir5nja
p483
I1
sVda4dmep
p484
I1
sVd3gzpum
p485
I2
sVd2vhfen
p486
I1
sVdjl3y9y
p487
I1
sVdcr1qre
p488
I1
sVd0u2aj5
p489
I2
sVdgrpx6r
p490
I1
sVczlizwq
p491
I1
sVd0hcxie
p492
I2
sVdgve9k8
p493
I1
sVd4vgawx
p494
I1
sVdmuao5r
p495
I1
sVd8f9n33
p496
I1
sVd79k18d
p497
I1
sVd65fzqk
p498
I1
sVdn3nroh
p499
I1
sVdhx0ro5
p500
I1
sVdiu52su
p501
I1
sVdk9disg
p502
I1
sVd46x45w
p503
I1
sVd7jco20
p504
I1
sVdep43q8
p505
I2
sVde1vx9e
p506
I1
sVdringro
p507
I1
sVdgb9gz3
p508
I1
sVdq7twia
p509
I1
sVdhxo73l
p510
I2
sVdhn5n84
p511
I1
sVd097e7y
p512
I1
sVdk88pwa
p513
I1
sVddjvsr8
p514
I1
sVd3e7pw7
p515
I1
sVd2pvhav
p516
I1
sVd0a0qll
p517
I1
sVd5f01dk
p518
I1
sVd62dxh0
p519
I1
sVdaa61d4
p520
I1
sVd9jmily
p521
I1
sVdcjcwcb
p522
I1
sVdokvdd9
p523
I1
sVczfxfhi
p524
I1
sVdehatyz
p525
I1
sVdj8crtk
p526
I1
sVd6j19w3
p527
I1
sVd5nkmss
p528
I1
sVdej1cr5
p529
I1
sVd1te4eu
p530
I1
sVdam6f9d
p531
I1
sVd3kus60
p532
I1
sVd5oywqq
p533
I1
sVde3yefu
p534
I1
sVdfw15hs
p535
I7
sVd7nh7n4
p536
I1
sVdaysw0i
p537
I2
sVd15z6h8
p538
I1
sVdbj3usz
p539
I1
sVd489z59
p540
I1
sVd4feujf
p541
I2
sVd7rilzo
p542
I1
sVde3sfex
p543
I1
sVdk7vyh6
p544
I1
sVded0fn2
p545
I1
sVdrzjvgi
p546
I1
sVcywwczm
p547
I1
sVda4w3g4
p548
I1
sVdi31tp9
p549
I1
sVd47po3x
p550
I1
sVdii919c
p551
I1
sVd1izptk
p552
I1
sVdeh4c8y
p553
I3
sVdbmqqvi
p554
I1
sVdkg54nc
p555
I1
sVdj0wtic
p556
I1
sVdiu29gt
p557
I1
sVdgy7d8p
p558
I1
sVdfaqxlx
p559
I1
sVd7axeb9
p560
I1
sVdi1noxa
p561
I1
sVd94igxb
p562
I1
sVd71d17l
p563
I1
sVd59hwg6
p564
I1
sVd48b21g
p565
I1
sVdkica55
p566
I2
sVdjfcqxo
p567
I1
sVd7bxj47
p568
I1
sVdex8nfk
p569
I2
sVddtgbuz
p570
I1
sVdghgfd2
p571
I1
sVd0n4ryh
p572
I2
sVd32cs87
p573
I1
sVd0n4qn5
p574
I1
sVd3toq25
p575
I1
sVdj53dqp
p576
I1
sVdep2jn1
p577
I1
sVdhn4ewy
p578
I2
sVdrfx9fp
p579
I1
sVdhotywj
p580
I1
sVd4576qc
p581
I1
sVda0i8ot
p582
I1
sVdgprz0r
p583
I1
sVddfpyn0
p584
I1
sVd9fj412
p585
I1
sVdk0g9ak
p586
I1
sVdh5b3gv
p587
I1
sVdgrwegw
p588
I1
sVdronmzq
p589
I1
sVdk0y4ar
p590
I1
sVd9esoc9
p591
I1
sVdiqctmu
p592
I1
sVdqom9lh
p593
I1
sVdmtrl8d
p594
I1
sVddg71r3
p595
I1
sVdnnefpy
p596
I1
sVcz5xb1n
p597
I1
sVd25qjxr
p598
I1
sVd23et7i
p599
I1
sVdgio599
p600
I1
sVd48bto4
p601
I1
sVdpaaz41
p602
I1
sVdiv3igg
p603
I1
sVddds4ko
p604
I1
sVdeqwugt
p605
I1
sVds7qfn4
p606
I1
sVdgn7ocp
p607
I1
sVdk64thy
p608
I1
sVd7aq7el
p609
I1
sVdpcljsa
p610
I1
sVd2b4zse
p611
I1
sVd18mf7f
p612
I1
sVdal71c8
p613
I1
sVdn1pfi4
p614
I2
sVd4rqvbt
p615
I1
sVcyjetbk
p616
I1
sVd8yh0kv
p617
I1
sVdim5g1b
p618
I1
sVdi0upnb
p619
I1
sVdij8b4c
p620
I1
sVd3ma0ox
p621
I1
sVdep82ya
p622
I1
sVd4ic9r9
p623
I1
sVd7re6us
p624
I1
s.