(dp0
Vcyxkurd
p1
I1
sVcz51eh4
p2
I1
sVd0g4d89
p3
I3
sVdf7ntu5
p4
I1
sVd2a1hie
p5
I1
sVdbt3xh0
p6
I1
sVdkahyzm
p7
I1
sVdk2t5o8
p8
I1
sVcyoaona
p9
I16
sVdkbft6a
p10
I6
sVcynzike
p11
I7
sVdr5ibjt
p12
I1
sVd11ka9g
p13
I1
sVd8tk3ix
p14
I1
sVdi2lw1r
p15
I1
sVd1lmfx3
p16
I4
sVdkai2zs
p17
I2
sVczmaxp7
p18
I1
sVdixkskw
p19
I1
sVddrlnlx
p20
I1
sVdax47p5
p21
I1
sVd8362gu
p22
I1
sVdmpizpp
p23
I1
sVd3mi6rv
p24
I1
sVd5nuedw
p25
I1
sVdql9ntg
p26
I1
sVda0zqc4
p27
I2
sVd5kkisz
p28
I1
sVdhxv289
p29
I1
sVd1hapvd
p30
I1
s.