(dp0
Vdpf9hdf
p1
I2
sVd3u9104
p2
I1
sVdbp90m3
p3
I1
sVdk0qkh5
p4
I1
sVdilc5f6
p5
I1
sVdrhmsat
p6
I1
sVdfey0iu
p7
I1
sVd0rbx00
p8
I2
sVd1mpxj2
p9
I1
sVdea37k5
p10
I1
sVdflx863
p11
I1
sVd74sx2s
p12
I3
sVd9xmljm
p13
I1
sVdp5ef4d
p14
I1
sVd9yjn13
p15
I2
sVdan4m2o
p16
I1
sVd9acdbu
p17
I1
sVd7cpe70
p18
I2
sVd9001t7
p19
I1
sVdgrxuew
p20
I5
sVdaxnqnc
p21
I1
sVdgcxx30
p22
I1
sVdbn2gdw
p23
I1
sVdgm6vij
p24
I2
sVdii2tzr
p25
I1
sVd91xxpe
p26
I1
sVdkcd1ks
p27
I1
sVdi6lyi2
p28
I1
sVdnli633
p29
I1
sVd5j64dv
p30
I1
sVdbyk6ya
p31
I1
sVd6jhfl0
p32
I1
sVdjhoqjq
p33
I1
sVd791g1i
p34
I1
sVde7jd50
p35
I2
sVdfixgyw
p36
I1
sVd8rs909
p37
I1
sVd2p0g2u
p38
I1
sVdhsrk3j
p39
I2
sVdcajjbd
p40
I1
sVdf6930u
p41
I1
sVdq2xpbj
p42
I1
sVdgmytmn
p43
I1
sVdedhy9f
p44
I1
sVd7qhyfi
p45
I1
sVdsmnlxk
p46
I1
sVde62ylx
p47
I1
sVd1dhdc2
p48
I1
sVd7b8lll
p49
I1
sVd1zst22
p50
I1
sVdmyapu3
p51
I2
sVcyrqu0i
p52
I1
sVdgrnsaa
p53
I2
sVddlillm
p54
I1
sVd7fogvf
p55
I3
sVdgdrfoz
p56
I2
sVd2oiie2
p57
I1
sVdtctz88
p58
I1
sVd8kdwf2
p59
I2
sVdbnetpl
p60
I1
sVdpf4mol
p61
I2
sVdrhoeoc
p62
I1
sVd8xo8c3
p63
I1
sVczqn92x
p64
I1
sVd1sc6rh
p65
I1
sVd2xs79c
p66
I1
sVczrk8at
p67
I7
sVdq2jnmy
p68
I1
sVd9dpntg
p69
I1
sVcz9d6ku
p70
I1
sVdgrsijt
p71
I1
sVdd8bu0c
p72
I2
sVdca72k8
p73
I1
sVd93izes
p74
I1
sVdi635q3
p75
I2
sVdkllxuv
p76
I1
sVd817bh7
p77
I1
sVdb207a7
p78
I1
sVdetd132
p79
I1
sVdn629cl
p80
I1
sVdedpkmi
p81
I3
sVd21pwv4
p82
I1
sVcyqef8u
p83
I2
sVdgmnqza
p84
I1
sVd6std4h
p85
I1
sVd9whh2h
p86
I1
sVd5vp9nq
p87
I1
sVd6bp1cd
p88
I1
sVddieamz
p89
I1
sVd1wvzzc
p90
I1
sVdcuy93v
p91
I1
sVdbullzk
p92
I1
sVd9fr19x
p93
I1
sVd2bbsg9
p94
I2
sVd192eqa
p95
I1
sVdgrrkph
p96
I2
sVd71pxvk
p97
I1
sVdetl94x
p98
I1
sVd673mnn
p99
I1
sVdsm3na7
p100
I1
sVdhs8flm
p101
I1
sVczrayi3
p102
I1
sVdqfu6g5
p103
I1
sVdn339hn
p104
I1
sVdntpfcd
p105
I1
sVdg89uvc
p106
I1
sVczatlf7
p107
I1
sVdc4evnr
p108
I1
sVdbeubd4
p109
I1
sVczr9a5n
p110
I2
sVd2x0o99
p111
I1
sVdq13l59
p112
I1
sVd0sg5t7
p113
I1
sVcz8um9r
p114
I1
sVdc5mg23
p115
I6
sVczdax11
p116
I1
sVd6p9z0s
p117
I1
sVd4kx4ws
p118
I1
sVdcbl24a
p119
I1
sVdpf3qrh
p120
I1
sVd1wdy8k
p121
I1
sVddccqm5
p122
I1
sVd7g80jr
p123
I1
sVdaak8dq
p124
I1
sVdhb4jbj
p125
I1
sVdjze1wd
p126
I1
sVdha6vi8
p127
I1
sVd54l275
p128
I1
sVd3fiwwo
p129
I1
sVdf4demt
p130
I1
sVd2t3xge
p131
I1
sVdi9ixzn
p132
I1
sVd1g1twj
p133
I1
sVdnl8kwo
p134
I1
sVdd84rs1
p135
I1
sVd0kjx4q
p136
I1
sVd8047tg
p137
I1
sVdrhmz2z
p138
I1
sVdo1xwn1
p139
I4
sVdozlzog
p140
I1
sVd9alqhx
p141
I1
sVcz7e5hh
p142
I1
sVdrshbjf
p143
I1
sVd2bq9wu
p144
I2
sVderto0s
p145
I1
sVd6qcg8r
p146
I1
sVdgrsnmk
p147
I2
sVdevgdvu
p148
I1
sVdjlyrw0
p149
I4
sVd21w7go
p150
I1
sVdgs0q8d
p151
I1
sVdf2pw06
p152
I1
sVds4yqc6
p153
I2
sVd2spohd
p154
I1
sVdgro3aw
p155
I1
sVdaygpib
p156
I4
sVdc1x388
p157
I1
sVcyr2zxp
p158
I1
sVdjalwpx
p159
I1
sVd7kp7rv
p160
I1
sVdo6k49w
p161
I1
sVd62twa8
p162
I2
sVdeey4m7
p163
I2
sVd0b12hk
p164
I1
sVdgnd817
p165
I1
sVd8idxb5
p166
I1
sVdgrthvi
p167
I2
sVddyez9z
p168
I1
sVd2ejbm0
p169
I1
sVdpxomah
p170
I2
sVd19xwqp
p171
I1
sVd8d95fy
p172
I1
sVd4g5wzv
p173
I1
sVd1bmzdf
p174
I1
sVdico6ik
p175
I1
sVdbhul5p
p176
I1
sVdjc7dq6
p177
I2
sVd2ecwor
p178
I1
sVddnbuwo
p179
I1
sVd23amer
p180
I1
sVdeye834
p181
I1
sVdjgzu1c
p182
I1
sVd4ukul7
p183
I1
sVdji479m
p184
I1
sVdhsswfq
p185
I1
sVddvm0z6
p186
I3
sVd82f99b
p187
I1
sVcztavwd
p188
I2
sVdk5nakl
p189
I1
sVdhslbby
p190
I1
sVd8zwhgh
p191
I1
sVd0l04hi
p192
I1
sVdd82t3m
p193
I1
sVdi6nx71
p194
I1
sVdire2mg
p195
I1
sVczbb91p
p196
I1
sVdq5s1md
p197
I1
sVd342blp
p198
I2
sVd9acnnv
p199
I2
sVd0l7axx
p200
I1
sVd8yh0kv
p201
I2
sVd88qcem
p202
I1
sVdry7ka3
p203
I2
sVddmu3z4
p204
I1
sVddc1hf8
p205
I1
sVdhjjgad
p206
I1
sVdr62r9u
p207
I1
sVd5rs1kk
p208
I1
sVdiuudrr
p209
I1
sVczm8ipo
p210
I1
sVdi5l0bq
p211
I1
sVdeq68wu
p212
I1
sVdnm68p2
p213
I1
sVdd0yxit
p214
I1
s.