(dp0
Vczsko4f
p1
I1
s.(dp0
Vczsko4f
p1
I1
sVd0d7bbo
p2
I1
s.(dp0
Vd0rq0bd
p1
I1
sVczsko4f
p2
I1
s.(dp0
Vd0vg7ju
p1
I1
sVczsko4f
p2
I1
s.(dp0
Vczsko4f
p1
I1
sVd44h45m
p2
I1
s.(dp0
Vczsko4f
p1
I1
sVd44h45m
p2
I1
s.(dp0
Vd4oy47q
p1
I1
sVczsko4f
p2
I1
s.(dp0
Vd4pwn3m
p1
I1
sVczsko4f
p2
I1
s.(dp0
Vd5ji1cu
p1
I1
sVczsko4f
p2
I1
s.(dp0
Vd6ijryp
p1
I1
sVczsko4f
p2
I1
s.(dp0
Vd6r4a2n
p1
I1
sVczsko4f
p2
I1
s.(dp0
Vczsko4f
p1
I1
sVd891ah2
p2
I1
s.(dp0
Vczsko4f
p1
I1
sVdafkm2f
p2
I1
s.(dp0
Vczsko4f
p1
I1
sVdan8hyn
p2
I1
s.(dp0
Vdcmpgtf
p1
I1
sVczsko4f
p2
I1
s.(dp0
Vdflku96
p1
I1
sVczsko4f
p2
I1
s.(dp0
Vdjo0nnh
p1
I1
sVczsko4f
p2
I1
s.(dp0
Vdn32ntr
p1
I1
sVczsko4f
p2
I1
s.(dp0
Vczsko4f
p1
I1
sVdqng95f
p2
I1
s.