(dp0
Vdmjvmt7
p1
I1
sVdecc7zn
p2
I1
sVdkcw83q
p3
I1
sVdecahnd
p4
I1
sVdidx0ti
p5
I1
sVdath5m1
p6
I1
sVd9disid
p7
I1
sVd7byfka
p8
I1
sVdejyrt9
p9
I1
sVdmqjwjo
p10
I1
sVdbgvgrf
p11
I3
sVczmag0v
p12
I1
sVdkiusyi
p13
I1
sVd1btxxz
p14
I1
sVdkiulgb
p15
I1
sVdezzf18
p16
I1
sVd4ubem1
p17
I1
sVd40vf7l
p18
I1
sVd2xxq28
p19
I2
sVczi9l8w
p20
I1
sVd703oo9
p21
I1
sVdece7ud
p22
I1
sVdmqke14
p23
I3
sVdeh4yzv
p24
I1
sVdelk04x
p25
I1
sVd4trp1t
p26
I1
sVd12vsui
p27
I1
sVd90n41o
p28
I1
sVd9zukwp
p29
I1
sVd5pvgcd
p30
I1
sVd4u4duo
p31
I1
sVdbh1ajt
p32
I3
sVcz0ah1l
p33
I1
sVd2tqmca
p34
I1
sVczi2ioe
p35
I2
sVd9dtk0q
p36
I1
sVdp6kluq
p37
I2
sVdkjhvno
p38
I1
sVd888fbo
p39
I1
sVday5gk5
p40
I1
sVdfjjk1w
p41
I1
sVdcnwoj7
p42
I1
sVdmuf9xv
p43
I1
sVd077epq
p44
I1
sVdsrjc8z
p45
I1
sVd69bf92
p46
I1
sVdf8etbm
p47
I1
sVd71ixg5
p48
I1
sVd8pv5m1
p49
I1
sVd1d7vxx
p50
I2
sVde4dqg1
p51
I1
sVdal1v9f
p52
I1
sVd6d9y62
p53
I1
sVdazpxbl
p54
I1
sVd2l9rqi
p55
I1
sVdiwrin0
p56
I1
sVd5p95yl
p57
I1
sVdjtbo94
p58
I1
sVdko8x8b
p59
I1
sVdogg89v
p60
I1
sVd1ao12g
p61
I1
sVdslch65
p62
I1
sVd7p4c23
p63
I1
sVdbguf4u
p64
I1
sVdjvzaq5
p65
I1
sVdatxah5
p66
I1
sVdi66y8l
p67
I2
sVd4kojrv
p68
I1
s.