(dp0
Vczn6jsz
p1
I2
sVd20i7rm
p2
I2
sVd00tqgd
p3
I3
sVd21ub1n
p4
I1
sVd208dv5
p5
I1
sVdkn51g8
p6
I1
sVdbijjql
p7
I1
sVdgr4qc0
p8
I2
sVddh0c7h
p9
I1
sVdoygg1t
p10
I1
sVdgio3aj
p11
I1
sVdipers0
p12
I1
sVd2zyo4n
p13
I1
sVda4lz9c
p14
I2
sVd2efnjd
p15
I4
sVdcshmot
p16
I3
sVd9o35wd
p17
I2
sVd9b3xki
p18
I2
sVd8ojy19
p19
I1
sVdr7ujuj
p20
I1
sVd1wfpoi
p21
I2
sVdkfpiou
p22
I2
sVdka03zg
p23
I1
sVdf92ixc
p24
I1
sVddwlcej
p25
I1
sVdjbb3zs
p26
I1
sVdpy194l
p27
I1
sVdplpog9
p28
I3
sVdhc54vk
p29
I1
sVdan9ozj
p30
I1
sVdggjj9k
p31
I1
sVdjdbpk8
p32
I1
sVd0bff3v
p33
I1
sVd0o8mm0
p34
I1
sVd5pb4kx
p35
I2
sVd2rvogb
p36
I2
sVdc5majf
p37
I1
sVd9sy43k
p38
I1
sVczongic
p39
I2
sVdek39l6
p40
I3
sVdbhajnt
p41
I1
sVdbipzlq
p42
I1
sVdc3mo1w
p43
I2
sVd9n0xg3
p44
I1
sVdfkt7jk
p45
I1
sVdawerml
p46
I3
sVd02cgd8
p47
I2
sVd078eqg
p48
I1
sVd9muhf5
p49
I1
sVdepj4fy
p50
I1
sVd35tn9q
p51
I2
sVczajzi1
p52
I1
sVdicmh4w
p53
I1
sVd3b6aiq
p54
I1
sVd5yqv2g
p55
I3
sVdmh1qls
p56
I1
sVdpuyn14
p57
I1
sVdmjqegj
p58
I1
sVdjuohve
p59
I7
sVcypudw4
p60
I1
sVdmh2bgg
p61
I1
sVdfkoe4b
p62
I1
sVcyknwo1
p63
I2
sVdf95mtw
p64
I1
sVd56iork
p65
I1
sVd043ylo
p66
I2
sVdqkgvta
p67
I1
sVd2azxx0
p68
I1
sVdcryj9t
p69
I1
sVcyyyiju
p70
I1
sVdj66utr
p71
I3
sVd7nzvnn
p72
I1
sVdni3iox
p73
I1
sVdmm1s9z
p74
I1
sVdq6roln
p75
I1
sVdpp347a
p76
I1
sVd9nwbpb
p77
I2
sVdadhhoi
p78
I2
sVd04uc5a
p79
I2
sVdf1udt0
p80
I1
sVd68esa6
p81
I1
sVd9ydh2t
p82
I1
sVd7v0kyv
p83
I2
sVddkalzt
p84
I1
sVdgrulgi
p85
I1
sVdbigeh5
p86
I1
sVdozd8p5
p87
I2
sVddeiqmx
p88
I3
sVczxncne
p89
I1
sVdbgu9of
p90
I1
sVdom7vld
p91
I1
sVde8v5r0
p92
I4
sVdbzj5ys
p93
I2
sVd9ih9t6
p94
I1
sVdam0su3
p95
I1
sVd0sfuz2
p96
I1
sVd90ly92
p97
I2
sVd2jhoz9
p98
I1
sVdmlfr6c
p99
I1
sVdhnaiwt
p100
I1
sVdoce8is
p101
I1
sVdfi2m9z
p102
I1
sVdrb3uyy
p103
I1
sVdctia2p
p104
I1
sVd5eq7u1
p105
I1
sVcypusy4
p106
I1
sVcyzksec
p107
I1
sVd3bls55
p108
I1
sVd27bfso
p109
I1
sVd37wg9q
p110
I1
sVd979y2a
p111
I3
sVd0nvlbx
p112
I1
sVdcv7sus
p113
I2
sVd3b63fn
p114
I1
sVczf9vuj
p115
I1
sVczka9be
p116
I2
sVd8py45r
p117
I1
sVd8f3a30
p118
I1
sVd1kstcn
p119
I2
sVds2z5n3
p120
I1
sVd9upjat
p121
I1
sVdo015gw
p122
I2
sVdfjrvkl
p123
I2
sVdc1pj0h
p124
I2
sVd1zwmmu
p125
I1
sVd2kr40f
p126
I1
sVd1xo0kz
p127
I1
sVdec3obn
p128
I1
sVdaqdplu
p129
I1
sVd8v73r3
p130
I1
sVd8ol8oe
p131
I1
sVd1kxyvv
p132
I2
sVdf9aof9
p133
I1
sVddwptlp
p134
I1
sVd6wve79
p135
I1
sVcymle55
p136
I1
sVd7syiir
p137
I1
sVd9u12k8
p138
I1
sVdspvp39
p139
I1
sVd2zk4vm
p140
I1
sVcypuuce
p141
I1
sVdb5diqp
p142
I1
sVdd6skua
p143
I1
sVd032ky4
p144
I2
sVdh4knpv
p145
I1
sVdj2dyfm
p146
I1
sVdi91u41
p147
I3
sVd1vv9a2
p148
I2
sVd56hhvp
p149
I1
sVd0iaaem
p150
I1
sVdj66nl1
p151
I4
sVdnul7se
p152
I1
sVdn2c5co
p153
I2
sVddvk3n2
p154
I1
sVdkag5qn
p155
I2
sVczr8afo
p156
I1
sVd2san8m
p157
I1
sVdbo5whu
p158
I1
sVddwl1te
p159
I1
sVdi2l25v
p160
I2
sVdfwwqba
p161
I1
sVdj1o940
p162
I1
sVcysfgvu
p163
I2
sVd1mhegj
p164
I2
sVczlyttd
p165
I1
sVdf9b87u
p166
I2
sVdggvr74
p167
I1
sVd3ucydf
p168
I2
sVd7hr0sw
p169
I1
sVdrew2xy
p170
I1
sVdf1wfd3
p171
I1
sVcz92gn1
p172
I1
sVd9o100t
p173
I1
sVd82oo51
p174
I1
sVd0zbbnl
p175
I2
sVcznxf86
p176
I1
sVd1n56ca
p177
I1
sVdfjf2b0
p178
I2
sVdkkavx6
p179
I1
sVdthes52
p180
I1
sVdar6z3o
p181
I1
sVdihbpfd
p182
I2
sVda20ipm
p183
I2
sVdj9qtqv
p184
I1
sVcyyxylz
p185
I1
sVdhemztt
p186
I1
sVdj70fym
p187
I1
sVd1hiji5
p188
I1
sVdkeb1w7
p189
I1
sVd7rawbw
p190
I1
sVdih909v
p191
I1
sVdqm3i7u
p192
I1
sVd4athjh
p193
I1
sVd508v8v
p194
I1
sVdbity2b
p195
I3
sVdn3ann3
p196
I2
sVcyky4ua
p197
I1
sVd1ks0bv
p198
I1
sVczcd7aq
p199
I2
sVdbcfty8
p200
I1
sVddeez6t
p201
I1
sVd1bfpzf
p202
I2
sVd2yd80c
p203
I1
sVcz1pswa
p204
I2
sVcynfxsd
p205
I1
sVd0uxvhx
p206
I1
sVdfstjhy
p207
I1
sVdbj5ysj
p208
I1
sVd1mjv85
p209
I1
sVdaoojz3
p210
I1
sVd7mx9ee
p211
I1
sVdkszpkw
p212
I1
sVddeie9s
p213
I2
sVdh13dgn
p214
I1
sVdj87a77
p215
I1
sVcymogu1
p216
I1
sVd10o8hf
p217
I2
sVd7anxeb
p218
I1
sVdh34wff
p219
I1
sVd193ip5
p220
I2
sVd8auqcf
p221
I2
sVczfa0zr
p222
I1
sVdgw3886
p223
I2
sVdfuzui6
p224
I1
sVcyk061r
p225
I1
sVda68q1g
p226
I7
sVdf9undi
p227
I2
sVd6x0oek
p228
I1
sVd7e3qch
p229
I1
sVcyomzyb
p230
I1
sVcztbsha
p231
I1
sVdheezcz
p232
I1
sVddcsqey
p233
I1
sVd9eqpd5
p234
I1
sVd1mf0gg
p235
I2
sVdfno9kg
p236
I1
sVdbeik9c
p237
I1
sVdcka4zq
p238
I2
sVdith6b5
p239
I2
sVdaznfrv
p240
I1
sVdi9kuuj
p241
I1
sVdbili00
p242
I1
sVd8gy953
p243
I1
sVd2kreh0
p244
I2
sVd61jd6e
p245
I1
sVcyp3png
p246
I1
sVddlv0qu
p247
I2
sVdb2f1q6
p248
I1
sVd2z2oeg
p249
I1
sVdheiz2u
p250
I1
sVdcryuko
p251
I1
sVd0lttbr
p252
I2
sVdmxrker
p253
I1
sVddwi07e
p254
I1
sVd8ece4g
p255
I1
sVdkirhoy
p256
I1
sVd3j5o69
p257
I1
sVd10nxva
p258
I1
sVd2ef95c
p259
I1
sVd7q39xh
p260
I1
sVczdgq52
p261
I2
sVcz8ay5m
p262
I1
sVd5xzwm1
p263
I1
sVdi5cm8c
p264
I1
sVd8lrhfz
p265
I1
sVd1gyfkj
p266
I1
sVdb5mcjd
p267
I1
sVdaylf8z
p268
I1
sVd0orlue
p269
I1
sVdbiuel5
p270
I1
sVd0fqbi3
p271
I1
sVczs50xw
p272
I2
sVdrjy4rl
p273
I1
sVdkqwqc4
p274
I1
sVdc3tiez
p275
I3
sVd60f3t9
p276
I1
sVdmjr69h
p277
I3
sVczfg0le
p278
I1
sVd0vqrv6
p279
I1
sVczvcc1p
p280
I1
sVd6036ay
p281
I1
sVcyiw680
p282
I1
sVdcnmh6g
p283
I1
sVdbyepcz
p284
I1
sVdff0eom
p285
I1
sVczybpea
p286
I1
sVd6bxyrm
p287
I1
sVcz9wps4
p288
I2
sVdf92z6n
p289
I1
sVd467r0v
p290
I1
sVdgwgxa4
p291
I1
sVczh5x8p
p292
I1
sVdk9cbt2
p293
I2
sVdfqgep8
p294
I1
sVdrl4v9o
p295
I1
sVd04shsk
p296
I1
sVdhel6h9
p297
I1
sVcz4wa1q
p298
I1
sVcykh9a1
p299
I1
sVdct9d3v
p300
I5
sVd2qezqf
p301
I1
sVdt9gece
p302
I3
sVd34xrll
p303
I1
sVdbhc2bm
p304
I2
sVdabqtgc
p305
I3
sVcz8y70s
p306
I3
sVczdfjy6
p307
I1
sVdcehgnn
p308
I1
sVddpkutz
p309
I1
sVczd0aw7
p310
I1
sVdihdtq9
p311
I1
sVdr4girg
p312
I1
sVdt142rl
p313
I1
sVd74e4sz
p314
I1
sVd21wvic
p315
I2
sVd0iwq77
p316
I1
sVdej0gxo
p317
I1
sVdbmak5h
p318
I1
sVdavabym
p319
I1
sVddk32n1
p320
I1
sVdrun7or
p321
I1
sVd4b0hus
p322
I1
sVczvtpgk
p323
I1
sVd39dbx7
p324
I1
sVd42qq1k
p325
I1
sVd5gr22u
p326
I1
sVdimcqam
p327
I1
sVdk05uk5
p328
I1
sVdhpqtez
p329
I1
sVdii238g
p330
I1
sVczsg7tc
p331
I1
sVdnapaul
p332
I1
sVdd4c9q0
p333
I2
sVdimhnib
p334
I1
sVdf9ag1e
p335
I1
sVdencwta
p336
I1
sVd5rx3dz
p337
I1
sVdfc70ry
p338
I3
sVdcdu8ml
p339
I1
sVdkfpg49
p340
I1
sVd4htp9t
p341
I1
sVd44an3l
p342
I1
sVd96suy1
p343
I1
sVd3t653g
p344
I1
sVdqd5s2s
p345
I1
sVdb80797
p346
I1
sVd2rzqzf
p347
I2
sVdcvfdvy
p348
I1
sVdibv3ry
p349
I1
sVdq1t28n
p350
I1
sVcz4od8o
p351
I1
sVdc64p5p
p352
I1
sVd1fm6o0
p353
I1
sVdn9aelc
p354
I1
sVcyyolkl
p355
I1
sVdityr7f
p356
I2
sVdffk88g
p357
I2
sVdhry4rn
p358
I2
sVd39i9ue
p359
I1
sVdjvs6uq
p360
I1
sVcze8xbw
p361
I1
sVdbh6kkz
p362
I1
sVdgglocg
p363
I1
sVcz3loht
p364
I1
sVdbix6y8
p365
I1
sVdgcp8lo
p366
I1
sVdbrivgp
p367
I2
sVdckhuv3
p368
I1
sVd2rz6wp
p369
I1
sVd2kp8c4
p370
I1
sVd4vvzmf
p371
I1
sVd84o4br
p372
I1
sVdf8zmv4
p373
I1
sVdh7h8ze
p374
I1
sVczynemv
p375
I1
sVd6tb12u
p376
I1
sVdcsfs76
p377
I1
sVdk8aioy
p378
I2
sVddxpff6
p379
I1
sVcyqwukh
p380
I2
sVczkmlkv
p381
I2
sVd3bn76z
p382
I1
sVdf8zc48
p383
I1
sVd02exu2
p384
I1
sVd7hazu8
p385
I1
sVdcjv4fa
p386
I1
sVdcq5ln4
p387
I1
sVddbyah0
p388
I1
sVdbriw6e
p389
I1
sVd1rkv62
p390
I1
sVd053eew
p391
I2
sVcz5fwdg
p392
I1
sVdf9558y
p393
I1
sVd9hefrk
p394
I2
sVddkfb6q
p395
I2
sVcz3fdva
p396
I3
sVd8gxx5d
p397
I1
sVdbu9zng
p398
I1
sVd2kr72q
p399
I2
sVdguzqmn
p400
I1
sVczoj7jr
p401
I1
sVczgiu51
p402
I1
sVd7sem7p
p403
I1
sVd6gv4ss
p404
I1
sVdfjdch7
p405
I2
sVcyj56fr
p406
I1
sVd75dg9f
p407
I1
sVdcex57o
p408
I1
sVd03cxgm
p409
I1
sVdcwjga5
p410
I1
sVd1kq1eo
p411
I1
sVczlet68
p412
I2
sVd5300so
p413
I1
sVd9mz6rq
p414
I1
sVdfvnixy
p415
I1
sVdd6srv1
p416
I1
sVcz2pcig
p417
I1
sVdgrvzgg
p418
I1
sVdbiluvg
p419
I1
sVczgidzi
p420
I2
sVd21m0xa
p421
I1
sVdh2f9yj
p422
I1
sVczh159u
p423
I1
sVddwp3si
p424
I1
sVd035fgn
p425
I1
sVdfwtuvj
p426
I2
sVde6t58i
p427
I1
sVdd54vkk
p428
I1
sVczgtj6d
p429
I1
sVdc1hpt4
p430
I1
sVd35jymc
p431
I1
sVcz5igq2
p432
I1
sVd6fdoy8
p433
I1
sVcz5b7ol
p434
I1
sVda7mpbo
p435
I1
sVcyjomnd
p436
I1
sVd0zowd3
p437
I1
sVdc02d7t
p438
I1
sVdtfu8zk
p439
I2
sVczldodi
p440
I1
sVd2r1pmu
p441
I1
sVddsgufi
p442
I1
sVdiufge7
p443
I1
sVdggnkmc
p444
I1
sVdg1yysz
p445
I2
sVd1uk6iw
p446
I1
sVdd6flmz
p447
I1
sVd6v3cm5
p448
I1
sVd7msu5p
p449
I1
sVd78tgt0
p450
I2
sVczgjx4h
p451
I2
sVdcufxoa
p452
I1
sVd78fw5i
p453
I1
sVdqj3jt6
p454
I1
sVd9ib90c
p455
I1
sVd2in091
p456
I1
sVdgh0fdi
p457
I1
sVd21020a
p458
I1
sVdarbki0
p459
I1
sVdorr72d
p460
I1
sVdaq6gkm
p461
I1
sVd42pgwb
p462
I2
sVd3p79rz
p463
I1
sVdhlofak
p464
I1
sVd2gvbbj
p465
I1
sVd0l3hlf
p466
I1
sVdekvq8l
p467
I1
sVdnap3m6
p468
I1
sVd0kpw32
p469
I3
sVd10ko9u
p470
I1
sVdf3oye6
p471
I1
sVdsfyv6v
p472
I1
sVd5gu86e
p473
I4
sVczd05al
p474
I1
sVd25w5x5
p475
I1
sVd9enx6w
p476
I1
sVd3ax32i
p477
I1
sVdpdglss
p478
I2
sVd9ibrc6
p479
I2
sVcz0qb0d
p480
I1
sVdkdslp8
p481
I1
sVdkqwnho
p482
I1
sVdnflbpp
p483
I1
sVdih96jp
p484
I1
sVdmn28zp
p485
I1
sVd1kx87r
p486
I2
sVdaoz7nq
p487
I2
sVddwmm8k
p488
I2
sVdn8ss8o
p489
I1
sVd1co8ut
p490
I1
sVddun7dq
p491
I2
sVczgu1qr
p492
I1
sVdeebwgr
p493
I1
sVd9zbqjj
p494
I1
sVd208x2b
p495
I1
sVdghlo8w
p496
I1
sVdjy5o9d
p497
I3
sVdns788j
p498
I1
sVd2zouw2
p499
I1
sVd1l9x2x
p500
I2
sVcz51zoi
p501
I2
sVd4to4cs
p502
I1
sVd5m23y6
p503
I1
sVdih7dri
p504
I1
sVdswtrmo
p505
I1
sVdkeyxte
p506
I1
sVdcbx52y
p507
I1
sVd52d512
p508
I1
sVdp9y7h5
p509
I1
sVd3udjxd
p510
I1
sVdbxr463
p511
I1
sVd90n3s7
p512
I3
sVd0btuz2
p513
I1
sVd0cig9x
p514
I2
sVcz01ppz
p515
I2
sVdj2g44v
p516
I2
sVd7j6276
p517
I1
sVdjuiukg
p518
I1
sVcyrt24u
p519
I1
sVd7yam60
p520
I1
sVd76ofbu
p521
I2
sVd9zrnv2
p522
I1
sVdqoz4a6
p523
I1
sVddz6ou9
p524
I6
sVd6gfype
p525
I1
sVdksvuga
p526
I1
sVdhl5s0t
p527
I3
sVdghi5dp
p528
I1
sVd2eehqf
p529
I1
sVdd5fol1
p530
I1
sVddweygr
p531
I1
sVd88fwct
p532
I1
sVd46dms5
p533
I1
sVdbyoz35
p534
I2
sVd8gjhyu
p535
I1
sVdajezrs
p536
I1
sVdhewjjl
p537
I1
sVd8nh8bf
p538
I1
sVdf99rih
p539
I2
sVd7ya33y
p540
I1
sVdag3xsy
p541
I1
sVd1tllrg
p542
I1
sVd6cv9zy
p543
I1
sVdqjx6zr
p544
I1
sVd6ox231
p545
I1
sVdd4hpca
p546
I1
sVdco7bge
p547
I2
sVdkssp8g
p548
I1
sVd3pen0x
p549
I1
sVdi2isfr
p550
I1
sVd4txvcv
p551
I2
sVdh4xh2k
p552
I1
sVdgvi98s
p553
I1
sVd5tmvs8
p554
I2
sVd4ynw8q
p555
I3
sVcyxjpdg
p556
I6
sVd37hyv1
p557
I1
sVddes5b5
p558
I1
sVda1zqf0
p559
I1
sVd4rnryx
p560
I1
sVcyzagxm
p561
I1
sVdebwg6c
p562
I3
sVd2xuefi
p563
I1
sVdc608yk
p564
I1
sVd71plac
p565
I1
sVd3kskfr
p566
I1
sVd2o9904
p567
I1
sVd4i2dc1
p568
I1
sVd0blvta
p569
I1
sVdfvn9es
p570
I1
sVd2h0stl
p571
I1
sVdryg4ay
p572
I1
sVdo4j0eg
p573
I1
sVdj2l9r9
p574
I1
sVcyz3vzn
p575
I1
sVd11hpq5
p576
I1
sVd4g6hpc
p577
I1
sVd9ifjr1
p578
I3
sVcznk85y
p579
I1
sVczon6dr
p580
I1
sVcypugwr
p581
I2
sVdgvanhg
p582
I4
sVdh1os8r
p583
I1
sVd9rgi9u
p584
I1
sVd03hm5c
p585
I1
sVdbgzt05
p586
I1
sVczjj5rq
p587
I1
sVdap30bd
p588
I1
sVd8oje7l
p589
I1
sVdqnell6
p590
I1
sVczc6to2
p591
I1
sVd56dpq3
p592
I2
sVd0er7qm
p593
I1
sVd61m9z4
p594
I2
sVdcpdsrr
p595
I1
sVdbit130
p596
I3
sVd8lol0w
p597
I1
sVd3kfsrq
p598
I3
sVdh9xg2n
p599
I6
sVdqkbect
p600
I1
sVcztqor3
p601
I2
sVczpsxmm
p602
I1
sVcyjula4
p603
I1
sVczf7ii5
p604
I2
sVd9u0a5l
p605
I1
sVczfu2r9
p606
I2
sVd67vj0i
p607
I1
sVdi8ob7r
p608
I2
sVdc77zw6
p609
I1
sVdj2p54v
p610
I1
sVdf99239
p611
I1
sVdgcw3pf
p612
I1
sVd226caz
p613
I2
sVd2qfsd9
p614
I1
sVdj7ai8w
p615
I1
sVd8mhtq4
p616
I1
sVd1l0aay
p617
I1
sVds35mx2
p618
I1
sVd1sdb0s
p619
I2
sVcyugk8k
p620
I1
sVd77tmnv
p621
I1
sVd1aerhb
p622
I1
sVdebzvd3
p623
I1
sVdggk5ja
p624
I1
sVdf5djr9
p625
I2
sVdazzpa6
p626
I1
sVd2dkm09
p627
I1
sVde3kzo7
p628
I1
sVdexo1uh
p629
I1
sVd1kv153
p630
I1
sVddeeuw8
p631
I5
sVdfjd8k7
p632
I1
sVdihd7f1
p633
I1
sVdc0i3g8
p634
I2
sVdc0irxk
p635
I2
sVdadhn2u
p636
I4
sVd01rxmu
p637
I2
sVdbiu7wj
p638
I1
sVd1s79bm
p639
I4
sVcz5gz88
p640
I1
sVdkc9i2h
p641
I1
sVcz8yxiy
p642
I1
sVdi9sam1
p643
I1
sVdggymsl
p644
I2
sVd3uaad4
p645
I1
sVdggvet9
p646
I1
sVdik75uy
p647
I1
sVd4zdgkd
p648
I2
sVdqd6245
p649
I4
sVdcubvvw
p650
I1
sVdk6ekiw
p651
I1
sVdf30465
p652
I1
sVdrl58dk
p653
I1
sVd73duer
p654
I2
sVdb5kxvl
p655
I2
sVd1qr060
p656
I1
sVd7swplo
p657
I1
sVdqx0ob1
p658
I1
sVd4qdhkg
p659
I1
sVdbh8p9g
p660
I1
sVdiytmmq
p661
I2
sVd6bc02g
p662
I1
sVczggrvt
p663
I3
sVd1vjdng
p664
I1
sVdguk6yz
p665
I1
sVd7i35hi
p666
I2
sVdgabw7h
p667
I1
sVd82mo09
p668
I2
sVd2ciqmz
p669
I1
sVd8ovdp6
p670
I2
sVd0j6bao
p671
I1
sVcyko9g8
p672
I1
sVdpmgrsb
p673
I1
sVdf9j5bv
p674
I1
sVd8zz3u9
p675
I6
sVdjf38v8
p676
I1
sVdmr5myn
p677
I1
sVczf81g7
p678
I1
sVd19iqvw
p679
I1
sVdb52ydd
p680
I1
sVdfoqksu
p681
I1
sVddcofgk
p682
I1
sVdf45j2h
p683
I1
sVdezlj5p
p684
I1
sVdf4f7ok
p685
I1
sVd40ead9
p686
I1
sVd9105og
p687
I1
sVdd8ljio
p688
I1
sVdbioqx0
p689
I1
sVdoyfpq7
p690
I2
sVdjb3q28
p691
I1
sVdfwgq03
p692
I1
sVd7j5mkt
p693
I1
sVdsf4wjm
p694
I2
sVd0rvqou
p695
I1
sVdafhurv
p696
I1
sVdjun72y
p697
I1
sVd97iucv
p698
I3
sVdhvquse
p699
I4
sVdc2734r
p700
I1
sVd60f8m2
p701
I1
sVd2qt0jc
p702
I1
sVd52erai
p703
I2
sVdal6em6
p704
I1
sVd34u2l2
p705
I1
sVdc1ovql
p706
I1
sVczfyvmw
p707
I3
sVd6ndjbj
p708
I1
sVdf0c3vm
p709
I1
sVdazhk2v
p710
I1
sVd6c6zzf
p711
I2
sVd2zwxzf
p712
I1
sVcyy783u
p713
I1
sVdhqbnck
p714
I1
sVd7a8c0x
p715
I1
sVde326xm
p716
I5
sVcysakg2
p717
I1
sVd10ks3k
p718
I1
sVdgve9k8
p719
I1
sVd9isn5z
p720
I1
sVd6rji6u
p721
I1
sVd61jrkm
p722
I1
sVd1b7yjz
p723
I3
sVdj2iuzf
p724
I1
sVd85xe69
p725
I1
sVd56d8kv
p726
I3
sVdbikj72
p727
I1
sVdeinoqf
p728
I1
sVcz9wiwp
p729
I1
sVdbxsemq
p730
I2
sVczgukfk
p731
I4
sVdapx6ap
p732
I1
sVddwi553
p733
I1
sVdfxubwn
p734
I1
sVcz1hnxg
p735
I1
sVdmutt49
p736
I2
sVdnhizg7
p737
I1
sVdf9n38s
p738
I1
sVdh27ip8
p739
I1
sVdfm4mhw
p740
I1
sVdd5ty36
p741
I1
sVd1agvcc
p742
I2
s.