(dp0
Vcynvv99
p1
I1
s.(dp0
Vcynvv99
p1
I1
sVczbm9vp
p2
I1
s.(dp0
Vczlnmk6
p1
I1
sVcynvv99
p2
I1
s.(dp0
Vcynvv99
p1
I1
sVczqgj5x
p2
I1
s.(dp0
Vcztchmm
p1
I1
sVcynvv99
p2
I1
s.(dp0
Vcynvv99
p1
I1
sVd04i0j5
p2
I1
s.(dp0
Vcynvv99
p1
I1
sVd05azuo
p2
I1
s.(dp0
Vcynvv99
p1
I1
sVd08rk2s
p2
I1
s.(dp0
Vcynvv99
p1
I1
sVd0aylgl
p2
I1
s.(dp0
Vcynvv99
p1
I1
sVd0jtszh
p2
I1
s.(dp0
Vcynvv99
p1
I1
sVd0l1rpz
p2
I1
s.(dp0
Vcynvv99
p1
I1
sVd0llmvm
p2
I1
s.(dp0
Vcynvv99
p1
I1
sVd0t8beh
p2
I1
s.(dp0
Vcynvv99
p1
I1
sVd0wvoyt
p2
I1
s.(dp0
Vd10tg5l
p1
I1
sVcynvv99
p2
I1
s.(dp0
Vd14rd8q
p1
I1
sVcynvv99
p2
I1
s.(dp0
Vd14rd8q
p1
I1
sVcynvv99
p2
I1
s.(dp0
Vcynvv99
p1
I1
sVd1cil28
p2
I1
s.(dp0
Vcynvv99
p1
I1
sVd1s4ckm
p2
I1
s.(dp0
Vd27bt2d
p1
I1
sVcynvv99
p2
I1
s.(dp0
Vd702mk5
p1
I1
sVcynvv99
p2
I1
s.(dp0
Vcynvv99
p1
I1
sVd78qwaf
p2
I1
s.(dp0
Vcynvv99
p1
I1
sVd78vc0f
p2
I1
s.(dp0
Vcynvv99
p1
I1
sVd7do9qw
p2
I1
s.(dp0
Vcynvv99
p1
I1
sVd7do9qw
p2
I1
s.(dp0
Vcynvv99
p1
I1
sVd7dw6x7
p2
I1
s.(dp0
Vcynvv99
p1
I1
sVd7td83d
p2
I1
s.(dp0
Vd7zk9v5
p1
I1
sVcynvv99
p2
I1
s.(dp0
Vcynvv99
p1
I1
sVd8au7bo
p2
I1
s.(dp0
Vcynvv99
p1
I1
sVd8fn5yz
p2
I1
s.(dp0
Vddu7s6q
p1
I1
sVcynvv99
p2
I1
s.(dp0
Vcynvv99
p1
I1
sVdeh9cdt
p2
I1
s.(dp0
Vcynvv99
p1
I1
sVdfkhtu2
p2
I1
s.(dp0
Vcynvv99
p1
I1
sVdfrn6lw
p2
I1
s.(dp0
Vdg1d00i
p1
I1
sVcynvv99
p2
I1
s.(dp0
Vdgf69hn
p1
I1
sVcynvv99
p2
I1
s.(dp0
Vcynvv99
p1
I1
sVdgw518d
p2
I1
s.(dp0
Vcynvv99
p1
I1
sVdh3bdi5
p2
I1
s.(dp0
Vdivgllk
p1
I1
sVcynvv99
p2
I1
s.(dp0
Vcynvv99
p1
I1
sVdixpg0d
p2
I1
s.(dp0
Vdj4oxwx
p1
I1
sVcynvv99
p2
I1
s.(dp0
Vcynvv99
p1
I1
sVdj50m7h
p2
I1
s.(dp0
Vdje8i25
p1
I1
sVcynvv99
p2
I1
s.(dp0
Vdno0xy9
p1
I1
sVcynvv99
p2
I1
s.(dp0
Vdo5di04
p1
I1
sVcynvv99
p2
I1
s.(dp0
Vcynvv99
p1
I1
sVdrmhrgc
p2
I1
s.(dp0
Vcynvv99
p1
I1
sVdtauabi
p2
I1
s.