(dp0
Vdfnywu4
p1
I1
sVd3qon61
p2
I1
sVdj2uwgr
p3
I1
sVczxdsgt
p4
I1
sVd58zknr
p5
I1
sVd1s7zhr
p6
I1
sVdh6847h
p7
I1
sVdhcm1gj
p8
I1
sVcyyykub
p9
I1
sVd06pc7o
p10
I1
sVdpd4plw
p11
I1
sVddxswyd
p12
I1
sVdg5udr5
p13
I1
sVdrn31rv
p14
I1
sVdq52mqw
p15
I1
sVd0vas6b
p16
I1
sVczangw3
p17
I1
sVdqass55
p18
I2
sVdbh8i10
p19
I2
sVddwn8vy
p20
I1
sVd493tj3
p21
I1
sVdbp8b7k
p22
I1
sVdea6idm
p23
I4
sVdre8bve
p24
I1
sVd5f5vp4
p25
I2
sVd16rmgu
p26
I1
sVd2c7x9y
p27
I1
sVd9fe98o
p28
I1
sVd63p5s1
p29
I1
sVd9kksry
p30
I2
sVd2tt322
p31
I1
sVddxkd78
p32
I2
sVdj53s1r
p33
I1
sVdimnzqf
p34
I1
sVd14kqum
p35
I1
sVd1riode
p36
I1
sVdklrxy9
p37
I1
sVd3i3qfn
p38
I1
sVd3mys3e
p39
I1
sVdf4mbwx
p40
I1
sVdi2e4kf
p41
I1
sVd435wie
p42
I1
sVd755nwc
p43
I2
sVdhrqi5q
p44
I2
sVd1l4af7
p45
I1
sVdf17x2b
p46
I1
sVdghlcf7
p47
I1
sVd4enn4r
p48
I1
sVd8eun3i
p49
I1
s.