(dp0
Vdcf8toq
p1
I1
sVd5seepd
p2
I1
sVd9tq6m9
p3
I1
sVd37pr1h
p4
I1
sVds6dqf8
p5
I1
sVczllbq5
p6
I2
sVd37uzq2
p7
I1
sVd0eqc5t
p8
I1
sVdfo8luq
p9
I1
sVd2onvez
p10
I1
sVd17lpuy
p11
I1
sVd50yu71
p12
I1
sVdd3m3mt
p13
I1
sVdf7fygr
p14
I1
sVdqzx9pq
p15
I1
sVd50yh75
p16
I1
sVd6y3n3r
p17
I1
sVdjepsf9
p18
I1
sVd3mk74b
p19
I1
sVdq8mxsm
p20
I1
sVcyvz2nw
p21
I1
sVdky36us
p22
I1
sVd5h57r1
p23
I1
sVdrq9ytx
p24
I1
sVdpqmgcl
p25
I1
sVdg4qvak
p26
I1
sVdawwuwv
p27
I2
sVd0p4t3g
p28
I2
sVd8iejtw
p29
I1
sVdbxihke
p30
I1
s.