(dp0
Vdarrbu8
p1
I1
sVdjj3vr9
p2
I1
sVdhwtsxf
p3
I1
sVd3u0i7m
p4
I3
sVdo432op
p5
I1
sVd59l9rk
p6
I1
sVdhtc63t
p7
I3
sVd4v1ylg
p8
I1
sVd4jmvlq
p9
I1
sVd4t6u3m
p10
I1
sVdtbjbb9
p11
I1
sVd7en0yq
p12
I1
sVdb4bqo3
p13
I1
sVdb9u7wt
p14
I1
sVd6hsm1m
p15
I1
sVd68ah6d
p16
I1
sVcyw2o1d
p17
I1
sVd9fhi1u
p18
I1
sVd1vbjdr
p19
I3
sVdeu7ops
p20
I1
sVd323rm4
p21
I1
sVdr0f6fa
p22
I1
sVdnzt3l6
p23
I1
sVd0iuem9
p24
I1
sVdprdt9b
p25
I1
sVddbo9m8
p26
I1
sVddbhn7v
p27
I1
sVdnhkod3
p28
I1
sVdkrzykx
p29
I2
sVdfcph3p
p30
I1
sVdnvjj5f
p31
I1
sVcywq6kh
p32
I1
sVcyjk6sm
p33
I1
sVdfcsgvf
p34
I1
sVdf43h5p
p35
I1
sVd2kb9x4
p36
I1
sVddcmjn0
p37
I1
sVdb47svi
p38
I1
sVcyshtgp
p39
I1
sVdkjditc
p40
I1
sVdb9gj38
p41
I1
sVdazwvzw
p42
I1
sVcywq4on
p43
I1
sVdrpw4ac
p44
I1
sVd0elpzq
p45
I1
sVd7enxxr
p46
I4
sVdpp5bso
p47
I1
sVdp92hsc
p48
I6
sVd6om3ej
p49
I1
sVd3xber3
p50
I1
sVd4fhvpl
p51
I1
sVd0x613x
p52
I1
sVd7098hw
p53
I1
sVdb9g80j
p54
I1
sVdcug8ss
p55
I1
sVddemict
p56
I1
sVd7ffrrz
p57
I1
sVdeu3789
p58
I1
sVdbxzztr
p59
I1
sVcz1stoh
p60
I1
s.