(dp0
Vd06sorj
p1
I1
s.(dp0
Vd76umww
p1
I1
sVd06sorj
p2
I1
s.(dp0
Vd06sorj
p1
I1
sVd7bo37m
p2
I1
s.(dp0
Vda1y75y
p1
I1
sVd06sorj
p2
I1
s.(dp0
Vd06sorj
p1
I1
sVdbxzztr
p2
I1
s.(dp0
Vd06sorj
p1
I1
sVdbxzztr
p2
I1
s.(dp0
Vd06sorj
p1
I1
sVdciyp9g
p2
I1
s.(dp0
Vdfct837
p1
I1
sVd06sorj
p2
I1
s.(dp0
Vdfvgxzp
p1
I1
sVd06sorj
p2
I1
s.(dp0
Vdkxvpog
p1
I1
sVd06sorj
p2
I1
s.(dp0
Vd06sorj
p1
I1
sVdky3ztb
p2
I1
s.(dp0
Vdn5utz3
p1
I1
sVd06sorj
p2
I1
s.(dp0
Vdq3cdxu
p1
I1
sVd06sorj
p2
I1
s.(dp0
Vd06sorj
p1
I1
sVdt7vmpt
p2
I1
s.