(dp0
Vcyk1s8x
p1
I1
s.(dp0
Vcypzfux
p1
I1
sVcyk1s8x
p2
I1
s.(dp0
Vd076p89
p1
I1
sVcyk1s8x
p2
I1
s.(dp0
Vd076p89
p1
I1
sVcyk1s8x
p2
I1
s.(dp0
Vcyk1s8x
p1
I1
sVd0quo8p
p2
I1
s.(dp0
Vcyk1s8x
p1
I1
sVd1588nb
p2
I1
s.(dp0
Vd1o12ox
p1
I1
sVcyk1s8x
p2
I1
s.(dp0
Vd1v6xtg
p1
I1
sVcyk1s8x
p2
I1
s.(dp0
Vd1vbjdr
p1
I1
sVcyk1s8x
p2
I1
s.(dp0
Vd1vbjdr
p1
I1
sVcyk1s8x
p2
I1
s.(dp0
Vcyk1s8x
p1
I1
sVd1wi5bx
p2
I1
s.(dp0
Vd2aodfz
p1
I1
sVcyk1s8x
p2
I1
s.(dp0
Vd2kb9x4
p1
I1
sVcyk1s8x
p2
I1
s.(dp0
Vcyk1s8x
p1
I1
sVd2nzxrt
p2
I1
s.(dp0
Vd4t6u3m
p1
I1
sVcyk1s8x
p2
I1
s.(dp0
Vd4vrc7v
p1
I1
sVcyk1s8x
p2
I1
s.(dp0
Vd55c3l7
p1
I1
sVcyk1s8x
p2
I1
s.(dp0
Vd55c3l7
p1
I1
sVcyk1s8x
p2
I1
s.(dp0
Vd55c3l7
p1
I1
sVcyk1s8x
p2
I1
s.(dp0
Vcyk1s8x
p1
I1
sVd5d9ksj
p2
I1
s.(dp0
Vd5h8xqe
p1
I1
sVcyk1s8x
p2
I1
s.(dp0
Vd6ib1qd
p1
I1
sVcyk1s8x
p2
I1
s.(dp0
Vd7eih34
p1
I1
sVcyk1s8x
p2
I1
s.(dp0
Vd7enxxr
p1
I1
sVcyk1s8x
p2
I1
s.(dp0
Vd7f6jv1
p1
I1
sVcyk1s8x
p2
I1
s.(dp0
Vd7mpxf0
p1
I1
sVcyk1s8x
p2
I1
s.(dp0
Vcyk1s8x
p1
I1
sVd8nrt60
p2
I1
s.(dp0
Vd8olx6b
p1
I1
sVcyk1s8x
p2
I1
s.(dp0
Vd8vv9va
p1
I1
sVcyk1s8x
p2
I1
s.(dp0
Vd9182to
p1
I1
sVcyk1s8x
p2
I1
s.(dp0
Vcyk1s8x
p1
I1
sVd9fa5za
p2
I1
s.(dp0
Vdahu99a
p1
I1
sVcyk1s8x
p2
I1
s.(dp0
Vdb4bqo3
p1
I1
sVcyk1s8x
p2
I1
s.(dp0
Vdb4bqo3
p1
I1
sVcyk1s8x
p2
I1
s.(dp0
Vdb4bqo3
p1
I1
sVcyk1s8x
p2
I1
s.(dp0
Vdbg209a
p1
I1
sVcyk1s8x
p2
I1
s.(dp0
Vdbg209a
p1
I1
sVcyk1s8x
p2
I1
s.(dp0
Vcyk1s8x
p1
I1
sVdbtgooe
p2
I1
s.(dp0
Vdc6cwnj
p1
I1
sVcyk1s8x
p2
I1
s.(dp0
Vcyk1s8x
p1
I1
sVdcb7f4u
p2
I1
s.(dp0
Vcyk1s8x
p1
I1
sVdcoa23r
p2
I1
s.(dp0
Vdda1pau
p1
I1
sVcyk1s8x
p2
I1
s.(dp0
Vdde9koc
p1
I1
sVcyk1s8x
p2
I1
s.(dp0
Vcyk1s8x
p1
I1
sVddf6i49
p2
I1
s.(dp0
Vcyk1s8x
p1
I1
sVddf6i49
p2
I1
s.(dp0
Vcyk1s8x
p1
I1
sVddf6i49
p2
I1
s.(dp0
Vddfa9by
p1
I1
sVcyk1s8x
p2
I1
s.(dp0
Vddfa9by
p1
I1
sVcyk1s8x
p2
I1
s.(dp0
Vdeasbjt
p1
I1
sVcyk1s8x
p2
I1
s.(dp0
Vdehoe8a
p1
I1
sVcyk1s8x
p2
I1
s.(dp0
Vdeu7ops
p1
I1
sVcyk1s8x
p2
I1
s.(dp0
Vdeu7ops
p1
I1
sVcyk1s8x
p2
I1
s.(dp0
Vcyk1s8x
p1
I1
sVdezs687
p2
I1
s.(dp0
Vdfnu25b
p1
I1
sVcyk1s8x
p2
I1
s.(dp0
Vdfzwukc
p1
I1
sVcyk1s8x
p2
I1
s.(dp0
Vdfzwukc
p1
I1
sVcyk1s8x
p2
I1
s.(dp0
Vcyk1s8x
p1
I1
sVdg8zyxr
p2
I1
s.(dp0
Vcyk1s8x
p1
I1
sVdg8zyxr
p2
I1
s.(dp0
Vdg9rnz9
p1
I1
sVcyk1s8x
p2
I1
s.(dp0
Vdgko6rk
p1
I1
sVcyk1s8x
p2
I1
s.(dp0
Vdgnt7ys
p1
I1
sVcyk1s8x
p2
I1
s.(dp0
Vdgnt7ys
p1
I1
sVcyk1s8x
p2
I1
s.(dp0
Vdgnt7ys
p1
I1
sVcyk1s8x
p2
I1
s.(dp0
Vdgnt7ys
p1
I1
sVcyk1s8x
p2
I1
s.(dp0
Vdgtc2am
p1
I1
sVcyk1s8x
p2
I1
s.(dp0
Vdh4zh62
p1
I1
sVcyk1s8x
p2
I1
s.(dp0
Vdhp2q5q
p1
I1
sVcyk1s8x
p2
I1
s.(dp0
Vdhtc63t
p1
I1
sVcyk1s8x
p2
I1
s.(dp0
Vdhtc63t
p1
I1
sVcyk1s8x
p2
I1
s.(dp0
Vcyk1s8x
p1
I1
sVdi0tmlz
p2
I1
s.(dp0
Vcyk1s8x
p1
I1
sVdi0tmlz
p2
I1
s.(dp0
Vcyk1s8x
p1
I1
sVdi0tmlz
p2
I1
s.(dp0
Vdiiipmv
p1
I1
sVcyk1s8x
p2
I1
s.(dp0
Vcyk1s8x
p1
I1
sVdit68vb
p2
I1
s.(dp0
Vdjaid9r
p1
I1
sVcyk1s8x
p2
I1
s.(dp0
Vdkrzykx
p1
I1
sVcyk1s8x
p2
I1
s.(dp0
Vdkrzykx
p1
I1
sVcyk1s8x
p2
I1
s.(dp0
Vdku8g9y
p1
I1
sVcyk1s8x
p2
I1
s.(dp0
Vdn1stkd
p1
I1
sVcyk1s8x
p2
I1
s.(dp0
Vdo432op
p1
I1
sVcyk1s8x
p2
I1
s.(dp0
Vdpqwjib
p1
I1
sVcyk1s8x
p2
I1
s.(dp0
Vdprdt9b
p1
I1
sVcyk1s8x
p2
I1
s.(dp0
Vdqo36me
p1
I1
sVcyk1s8x
p2
I1
s.(dp0
Vdrpaaqk
p1
I1
sVcyk1s8x
p2
I1
s.(dp0
Vdrpe6h1
p1
I1
sVcyk1s8x
p2
I1
s.(dp0
Vdrpw4ac
p1
I1
sVcyk1s8x
p2
I1
s.