(dp0
Vcyi1kys
p1
I1
s.(dp0
Vcypr8nk
p1
I1
sVcyi1kys
p2
I1
s.(dp0
Vcytlt60
p1
I1
sVcyi1kys
p2
I1
s.(dp0
Vcyujb7c
p1
I1
sVcyi1kys
p2
I1
s.(dp0
Vcyv39sk
p1
I1
sVcyi1kys
p2
I1
s.(dp0
Vcyykcn8
p1
I1
sVcyi1kys
p2
I1
s.(dp0
Vcyypzpf
p1
I1
sVcyi1kys
p2
I1
s.(dp0
Vcz4ewdw
p1
I1
sVcyi1kys
p2
I1
s.(dp0
Vcz5b15q
p1
I1
sVcyi1kys
p2
I1
s.(dp0
Vczcvsii
p1
I1
sVcyi1kys
p2
I1
s.(dp0
Vczmr030
p1
I1
sVcyi1kys
p2
I1
s.(dp0
Vczojhx7
p1
I1
sVcyi1kys
p2
I1
s.(dp0
Vczoveo6
p1
I1
sVcyi1kys
p2
I1
s.(dp0
Vcztjr6q
p1
I1
sVcyi1kys
p2
I1
s.(dp0
Vcyi1kys
p1
I1
sVczyddph
p2
I1
s.(dp0
Vczzr12b
p1
I1
sVcyi1kys
p2
I1
s.(dp0
Vd04nd6q
p1
I1
sVcyi1kys
p2
I1
s.(dp0
Vd06kgu1
p1
I1
sVcyi1kys
p2
I1
s.(dp0
Vd08kivr
p1
I1
sVcyi1kys
p2
I1
s.(dp0
Vd0fkzof
p1
I1
sVcyi1kys
p2
I1
s.(dp0
Vd0iav4t
p1
I1
sVcyi1kys
p2
I1
s.(dp0
Vd0kzwjy
p1
I1
sVcyi1kys
p2
I1
s.(dp0
Vd0kzwjy
p1
I1
sVcyi1kys
p2
I1
s.(dp0
Vd0kzwjy
p1
I1
sVcyi1kys
p2
I1
s.(dp0
Vd0l6shm
p1
I1
sVcyi1kys
p2
I1
s.(dp0
Vd0l6shm
p1
I1
sVcyi1kys
p2
I1
s.(dp0
Vd0nnnte
p1
I1
sVcyi1kys
p2
I1
s.(dp0
Vd0qc3s3
p1
I1
sVcyi1kys
p2
I1
s.(dp0
Vd0upyuq
p1
I1
sVcyi1kys
p2
I1
s.(dp0
Vd0zs04m
p1
I1
sVcyi1kys
p2
I1
s.(dp0
Vd11kdkd
p1
I1
sVcyi1kys
p2
I1
s.(dp0
Vd15olxc
p1
I1
sVcyi1kys
p2
I1
s.(dp0
Vd15olxc
p1
I1
sVcyi1kys
p2
I1
s.(dp0
Vd1897we
p1
I1
sVcyi1kys
p2
I1
s.(dp0
Vd1897we
p1
I1
sVcyi1kys
p2
I1
s.(dp0
Vd18eak4
p1
I1
sVcyi1kys
p2
I1
s.(dp0
Vd1bti2s
p1
I1
sVcyi1kys
p2
I1
s.(dp0
Vd1btwvq
p1
I1
sVcyi1kys
p2
I1
s.(dp0
Vd1btwvq
p1
I1
sVcyi1kys
p2
I1
s.(dp0
Vd1f3qqy
p1
I1
sVcyi1kys
p2
I1
s.(dp0
Vd1lpqsz
p1
I1
sVcyi1kys
p2
I1
s.(dp0
Vd1qa87c
p1
I1
sVcyi1kys
p2
I1
s.(dp0
Vd1uullx
p1
I1
sVcyi1kys
p2
I1
s.(dp0
Vd1w2nm8
p1
I1
sVcyi1kys
p2
I1
s.(dp0
Vd20a68j
p1
I1
sVcyi1kys
p2
I1
s.(dp0
Vd23s58f
p1
I1
sVcyi1kys
p2
I1
s.(dp0
Vd23s58f
p1
I1
sVcyi1kys
p2
I1
s.(dp0
Vd25h8q7
p1
I1
sVcyi1kys
p2
I1
s.(dp0
Vcyi1kys
p1
I1
sVd2agryk
p2
I1
s.(dp0
Vcyi1kys
p1
I1
sVd2bayq5
p2
I1
s.(dp0
Vd2d5een
p1
I1
sVcyi1kys
p2
I1
s.(dp0
Vd2p3qs5
p1
I1
sVcyi1kys
p2
I1
s.(dp0
Vcyi1kys
p1
I1
sVd338agn
p2
I1
s.(dp0
Vd343c4z
p1
I1
sVcyi1kys
p2
I1
s.(dp0
Vd39x2sy
p1
I1
sVcyi1kys
p2
I1
s.(dp0
Vd3djxg5
p1
I1
sVcyi1kys
p2
I1
s.(dp0
Vd3edds6
p1
I1
sVcyi1kys
p2
I1
s.(dp0
Vd3eebt5
p1
I1
sVcyi1kys
p2
I1
s.(dp0
Vd3ffbwr
p1
I1
sVcyi1kys
p2
I1
s.(dp0
Vd3hcxmm
p1
I1
sVcyi1kys
p2
I1
s.(dp0
Vcyi1kys
p1
I1
sVd3jam2s
p2
I1
s.(dp0
Vd3z7z7m
p1
I1
sVcyi1kys
p2
I1
s.(dp0
Vd45mvga
p1
I1
sVcyi1kys
p2
I1
s.(dp0
Vd45mvga
p1
I1
sVcyi1kys
p2
I1
s.(dp0
Vd48w92x
p1
I1
sVcyi1kys
p2
I1
s.(dp0
Vd4fxo7m
p1
I1
sVcyi1kys
p2
I1
s.(dp0
Vd4j3sgj
p1
I1
sVcyi1kys
p2
I1
s.(dp0
Vcyi1kys
p1
I1
sVd4jv29u
p2
I1
s.(dp0
Vd4lzbx3
p1
I1
sVcyi1kys
p2
I1
s.(dp0
Vd4vz2rw
p1
I1
sVcyi1kys
p2
I1
s.(dp0
Vd526x1n
p1
I1
sVcyi1kys
p2
I1
s.(dp0
Vd53k7gq
p1
I1
sVcyi1kys
p2
I1
s.(dp0
Vd55t5z2
p1
I1
sVcyi1kys
p2
I1
s.(dp0
Vd55x3p7
p1
I1
sVcyi1kys
p2
I1
s.(dp0
Vd56i1vl
p1
I1
sVcyi1kys
p2
I1
s.(dp0
Vd59jryh
p1
I1
sVcyi1kys
p2
I1
s.(dp0
Vd5a940n
p1
I1
sVcyi1kys
p2
I1
s.(dp0
Vd5c6rq2
p1
I1
sVcyi1kys
p2
I1
s.(dp0
Vd5lqe6l
p1
I1
sVcyi1kys
p2
I1
s.(dp0
Vd5m0q78
p1
I1
sVcyi1kys
p2
I1
s.(dp0
Vd5rci6y
p1
I1
sVcyi1kys
p2
I1
s.(dp0
Vd5rci6y
p1
I1
sVcyi1kys
p2
I1
s.(dp0
Vd6007np
p1
I1
sVcyi1kys
p2
I1
s.(dp0
Vd6a7au6
p1
I1
sVcyi1kys
p2
I1
s.(dp0
Vd6acfjk
p1
I1
sVcyi1kys
p2
I1
s.(dp0
Vd6aiv4d
p1
I1
sVcyi1kys
p2
I1
s.(dp0
Vd6am6px
p1
I1
sVcyi1kys
p2
I1
s.(dp0
Vd6am6px
p1
I1
sVcyi1kys
p2
I1
s.(dp0
Vd6bioiv
p1
I1
sVcyi1kys
p2
I1
s.(dp0
Vcyi1kys
p1
I1
sVd6f7og3
p2
I1
s.(dp0
Vd6ge2qq
p1
I1
sVcyi1kys
p2
I1
s.(dp0
Vd6hb6na
p1
I1
sVcyi1kys
p2
I1
s.(dp0
Vd6j1mtp
p1
I1
sVcyi1kys
p2
I1
s.(dp0
Vd6k3gok
p1
I1
sVcyi1kys
p2
I1
s.(dp0
Vd6metqu
p1
I1
sVcyi1kys
p2
I1
s.(dp0
Vd6metqu
p1
I1
sVcyi1kys
p2
I1
s.(dp0
Vd6vtsqx
p1
I1
sVcyi1kys
p2
I1
s.(dp0
Vd6w75gc
p1
I1
sVcyi1kys
p2
I1
s.(dp0
Vd6w75gc
p1
I1
sVcyi1kys
p2
I1
s.(dp0
Vd6w75gc
p1
I1
sVcyi1kys
p2
I1
s.(dp0
Vd6w75gc
p1
I1
sVcyi1kys
p2
I1
s.(dp0
Vd72wikk
p1
I1
sVcyi1kys
p2
I1
s.(dp0
Vcyi1kys
p1
I1
sVd7j7nlx
p2
I1
s.(dp0
Vd7ntx4i
p1
I1
sVcyi1kys
p2
I1
s.(dp0
Vd7numm7
p1
I1
sVcyi1kys
p2
I1
s.(dp0
Vd7ptqq5
p1
I1
sVcyi1kys
p2
I1
s.(dp0
Vd7px9lw
p1
I1
sVcyi1kys
p2
I1
s.(dp0
Vd7soqla
p1
I1
sVcyi1kys
p2
I1
s.(dp0
Vd8(dp0
Vdted1c5
p1
I1
sVcyi1kys
p2
I1
s.