(dp0
Vd07hbht
p1
I1
s.(dp0
Vd0iqlop
p1
I1
sVd07hbht
p2
I1
s.(dp0
Vd1qs394
p1
I1
sVd07hbht
p2
I1
s.(dp0
Vd07hbht
p1
I1
sVd2duf9s
p2
I1
s.(dp0
Vd07hbht
p1
I1
sVd2rrq9o
p2
I1
s.(dp0
Vddl6wqy
p1
I1
sVd07hbht
p2
I1
s.(dp0
Vdg4rw0g
p1
I1
sVd07hbht
p2
I1
s.(dp0
Vd07hbht
p1
I1
sVdgmeq54
p2
I1
s.(dp0
Vd07hbht
p1
I1
sVdhdaxra
p2
I1
s.(dp0
Vd07hbht
p1
I1
sVdjmjlm6
p2
I1
s.(dp0
Vd07hbht
p1
I1
sVds1zwnc
p2
I1
s.