(dp0
Vd1x5f98
p1
I1
sVd0d18s5
p2
I1
sVd72shbn
p3
I1
sVdjc3vxr
p4
I1
sVd1xj5c3
p5
I1
sVdteqio2
p6
I1
sVd76ohkj
p7
I1
sVdhbk3fo
p8
I1
sVd0ctfw1
p9
I1
sVddog04u
p10
I1
sVd5v27iv
p11
I1
sVd31duht
p12
I1
sVdiltl2t
p13
I1
sVd0wdhu4
p14
I1
sVd50ssmo
p15
I1
sVdqhp9u5
p16
I1
sVdiie31x
p17
I1
sVdj9vaid
p18
I1
sVd59l2mf
p19
I1
sVdefibdo
p20
I1
sVd62cq8d
p21
I1
sVd8oyvir
p22
I1
sVd2artlv
p23
I1
sVdjcezzw
p24
I1
sVd090ax2
p25
I1
sVd72dq72
p26
I1
sVds8y6i3
p27
I1
sVdirsuj2
p28
I1
s.