(dp0
Vcyp1klf
p1
I1
s.(dp0
Vcyv15gj
p1
I1
sVcyp1klf
p2
I1
s.(dp0
Vcyw12mq
p1
I1
sVcyp1klf
p2
I1
s.(dp0
Vcz26z17
p1
I1
sVcyp1klf
p2
I1
s.(dp0
Vcz26z17
p1
I1
sVcyp1klf
p2
I1
s.(dp0
Vcz2k4ee
p1
I1
sVcyp1klf
p2
I1
s.(dp0
Vcz2k4ee
p1
I1
sVcyp1klf
p2
I1
s.(dp0
Vcyp1klf
p1
I1
sVcz3fftr
p2
I1
s.(dp0
Vcyp1klf
p1
I1
sVcz3fftr
p2
I1
s.(dp0
Vczbzfo1
p1
I1
sVcyp1klf
p2
I1
s.(dp0
Vczeg593
p1
I1
sVcyp1klf
p2
I1
s.(dp0
Vczp7s55
p1
I1
sVcyp1klf
p2
I1
s.(dp0
Vd046z54
p1
I1
sVcyp1klf
p2
I1
s.(dp0
Vcyp1klf
p1
I1
sVd04yszl
p2
I1
s.(dp0
Vd070ynl
p1
I1
sVcyp1klf
p2
I1
s.(dp0
Vd0dfdwi
p1
I1
sVcyp1klf
p2
I1
s.(dp0
Vcyp1klf
p1
I1
sVd0hm7ly
p2
I1
s.(dp0
Vd0ik1ad
p1
I1
sVcyp1klf
p2
I1
s.(dp0
Vd0kemup
p1
I1
sVcyp1klf
p2
I1
s.(dp0
Vd17jp9t
p1
I1
sVcyp1klf
p2
I1
s.(dp0
Vd1b5cbh
p1
I1
sVcyp1klf
p2
I1
s.(dp0
Vd1fgnvm
p1
I1
sVcyp1klf
p2
I1
s.(dp0
Vd1gva9l
p1
I1
sVcyp1klf
p2
I1
s.(dp0
Vd1hvbbu
p1
I1
sVcyp1klf
p2
I1
s.(dp0
Vcyp1klf
p1
I1
sVd1xn53w
p2
I1
s.(dp0
Vd21j9up
p1
I1
sVcyp1klf
p2
I1
s.(dp0
Vcyp1klf
p1
I1
sVd25fvaf
p2
I1
s.(dp0
Vcyp1klf
p1
I1
sVd27lox4
p2
I1
s.(dp0
Vd29o07n
p1
I1
sVcyp1klf
p2
I1
s.(dp0
Vcyp1klf
p1
I1
sVd2bjfc0
p2
I1
s.(dp0
Vd2c4ub8
p1
I1
sVcyp1klf
p2
I1
s.(dp0
Vd2ww0o0
p1
I1
sVcyp1klf
p2
I1
s.(dp0
Vd2ww1cv
p1
I1
sVcyp1klf
p2
I1
s.(dp0
Vd2ww1cv
p1
I1
sVcyp1klf
p2
I1
s.(dp0
Vcyp1klf
p1
I1
sVd36poco
p2
I1
s.(dp0
Vcyp1klf
p1
I1
sVd398sye
p2
I1
s.(dp0
Vcyp1klf
p1
I1
sVd398sye
p2
I1
s.(dp0
Vd39qicw
p1
I1
sVcyp1klf
p2
I1
s.(dp0
Vd3aidbd
p1
I1
sVcyp1klf
p2
I1
s.(dp0
Vcyp1klf
p1
I1
sVd3ilmgy
p2
I1
s.(dp0
Vd40r2v3
p1
I1
sVcyp1klf
p2
I1
s.(dp0
Vd45h0dw
p1
I1
sVcyp1klf
p2
I1
s.(dp0
Vcyp1klf
p1
I1
sVd4fwejm
p2
I1
s.(dp0
Vd4pluko
p1
I1
sVcyp1klf
p2
I1
s.(dp0
Vcyp1klf
p1
I1
sVd4pw15k
p2
I1
s.(dp0
Vcyp1klf
p1
I1
sVd4u5494
p2
I1
s.(dp0
Vd55c15r
p1
I1
sVcyp1klf
p2
I1
s.(dp0
Vd55c15r
p1
I1
sVcyp1klf
p2
I1
s.(dp0
Vd59ipsi
p1
I1
sVcyp1klf
p2
I1
s.(dp0
Vcyp1klf
p1
I1
sVd5e26qq
p2
I1
s.(dp0
Vd5kic35
p1
I1
sVcyp1klf
p2
I1
s.(dp0
Vcyp1klf
p1
I1
sVd5ss8gl
p2
I1
s.(dp0
Vd5uqv3q
p1
I1
sVcyp1klf
p2
I1
s.(dp0
Vcyp1klf
p1
I1
sVd62cq8d
p2
I1
s.(dp0
Vd636o80
p1
I1
sVcyp1klf
p2
I1
s.(dp0
Vcyp1klf
p1
I1
sVd6ftfqu
p2
I1
s.(dp0
Vcyp1klf
p1
I1
sVd6m12mi
p2
I1
s.(dp0
Vd6vcmmv
p1
I1
sVcyp1klf
p2
I1
s.(dp0
Vcyp1klf
p1
I1
sVd7cstii
p2
I1
s.(dp0
Vd7g2f1j
p1
I1
sVcyp1klf
p2
I1
s.(dp0
Vd7j8l72
p1
I1
sVcyp1klf
p2
I1
s.(dp0
Vcyp1klf
p1
I1
sVd7yz0of
p2
I1
s.(dp0
Vcyp1klf
p1
I1
sVd83b5kc
p2
I1
s.(dp0
Vcyp1klf
p1
I1
sVd8c78tk
p2
I1
s.(dp0
Vcyp1klf
p1
I1
sVd8epupu
p2
I1
s.(dp0
Vcyp1klf
p1
I1
sVd8f0bbt
p2
I1
s.(dp0
Vcyp1klf
p1
I1
sVd8f0bbt
p2
I1
s.(dp0
Vd97hkvh
p1
I1
sVcyp1klf
p2
I1
s.(dp0
Vcyp1klf
p1
I1
sVd97nspy
p2
I1
s.(dp0
Vd9afh4f
p1
I1
sVcyp1klf
p2
I1
s.(dp0
Vcyp1klf
p1
I1
sVd9eq6cn
p2
I1
s.(dp0
Vcyp1klf
p1
I1
sVd9kpw64
p2
I1
s.(dp0
Vd9lrlyy
p1
I1
sVcyp1klf
p2
I1
s.(dp0
Vcyp1klf
p1
I1
sVd9xo2lx
p2
I1
s.(dp0
Vcyp1klf
p1
I1
sVd9xo2lx
p2
I1
s.(dp0
Vcyp1klf
p1
I1
sVd9xtdod
p2
I1
s.(dp0
Vcyp1klf
p1
I1
sVd9xtdod
p2
I1
s.(dp0
Vcyp1klf
p1
I1
sVd9xtdod
p2
I1
s.(dp0
Vcyp1klf
p1
I1
sVd9xxz1z
p2
I1
s.(dp0
Vcyp1klf
p1
I1
sVda0e838
p2
I1
s.(dp0
Vda0g4mt
p1
I1
sVcyp1klf
p2
I1
s.(dp0
Vda3hvfm
p1
I1
sVcyp1klf
p2
I1
s.(dp0
Vdayaz3u
p1
I1
sVcyp1klf
p2
I1
s.(dp0
Vcyp1klf
p1
I1
sVdbh4f0r
p2
I1
s.(dp0
Vcyp1klf
p1
I1
sVdbmct4k
p2
I1
s.(dp0
Vcyp1klf
p1
I1
sVdbt1t7x
p2
I1
s.(dp0
Vcyp1klf
p1
I1
sVdc3kqdt
p2
I1
s.(dp0
Vdc5k215
p1
I1
sVcyp1klf
p2
I1
s.(dp0
Vdc69ddn
p1
I1
sVcyp1klf
p2
I1
s.(dp0
Vdc69ddn
p1
I1
sVcyp1klf
p2
I1
s.(dp0
Vdc69ddn
p1
I1
sVcyp1klf
p2
I1
s.(dp0
Vcyp1klf
p1
I1
sVdcdw8bz
p2
I1
s.(dp0
Vcyp1klf
p1
I1
sVdcfoihj
p2
I1
s.(dp0
Vcyp1klf
p1
I1
sVdcg0ge7
p2
I1
s.(dp0
Vcyp1klf
p1
I1
sVdcg0ge7
p2
I1
s.(dp0
Vcyp1klf
p1
I1
sVdcg0ge7
p2
I1
s.(dp0
Vcyp1klf
p1
I1
sVdcg0ge7
p2
I1
s.(dp0
Vcyp1klf
p1
I1
sVdcn43yg
p2
I1
s.(dp0
Vdd4yh6b
p1
I1
sVcyp1klf
p2
I1
s.(dp0
Vdd5f1cc
p1
I1
sVcyp1klf
p2
I1
s.(dp0
Vddmps2u
p1
I1
sVcyp1klf
p2
I1
s.(dp0
Vddu30yj
p1
I1
sVcyp1klf
p2
I1
s.(dp0
Vcyp1klf
p1
I1
sVde0u38n
p2
I1
s.(dp0
Vdebjx95
p1
I1
sVcyp1klf
p2
I1
s.(dp0
Vcyp1klf
p1
I1
sVdfgwf3v
p2
I1
s.(dp0
Vdfihp4l
p1
I1
sVcyp1klf
p2
I1
s.(dp0
Vdfiv6ba
p1
I1
sVcyp1klf
p2
I1
s.(dp0
Vdfua9lj
p1
I1
sVcyp1klf
p2
I1
s.(dp0
Vdf(dp0
Vdsdeo32
p1
I1
sVcyp1klf
p2
I1
s.