(dp0
Vdf3p4a2
p1
I1
sVcyzb7mb
p2
I1
sVdntrzd9
p3
I1
sVdtbxvcy
p4
I1
sVd6gtqwy
p5
I1
sVcywoqxw
p6
I1
sVdaokrpw
p7
I1
sVdifia5r
p8
I1
sVdgcxx30
p9
I1
sVd1w6tda
p10
I1
sVczt8pum
p11
I1
sVd2slhxs
p12
I1
sVdgu17u1
p13
I1
sVdmtjwg6
p14
I1
sVde9lq27
p15
I1
sVd3atlce
p16
I1
sVd24jr8t
p17
I1
sVdq5n2rl
p18
I1
sVd526dkt
p19
I3
sVdbg2nn8
p20
I1
sVdh0m2ap
p21
I1
sVd9d6nd2
p22
I1
sVcyioctd
p23
I1
sVdg3znut
p24
I1
sVdh8dxs8
p25
I1
sVdrg31jy
p26
I1
sVd5ewoxi
p27
I1
sVdo63a5x
p28
I1
sVdd39386
p29
I1
sVdj66dmg
p30
I1
sVd2178cd
p31
I1
sVd2kjna8
p32
I1
sVd0l6a26
p33
I1
sVcyzpncc
p34
I1
sVdn5i88p
p35
I2
sVdhn2zxt
p36
I1
sVczfq1uv
p37
I1
sVdcmkop9
p38
I1
sVd0olbfu
p39
I1
sVcz46irm
p40
I2
sVd275sd6
p41
I1
sVd1e097c
p42
I1
sVdnb6dhj
p43
I1
sVdei1c1i
p44
I1
sVd66stw3
p45
I1
sVdarec3e
p46
I1
sVd88bi2i
p47
I1
sVdik49tu
p48
I1
sVd0w0is7
p49
I1
sVd6qdvx9
p50
I1
sVdbimeyt
p51
I1
sVdjahxy7
p52
I1
sVd5rlk4p
p53
I1
sVd92c8es
p54
I1
sVd330xll
p55
I1
sVd2fx4o3
p56
I1
sVd0s94rk
p57
I1
sVdcx0dpp
p58
I1
sVd2d7w28
p59
I2
sVdfyj9o3
p60
I1
sVdtaqgvn
p61
I1
sVdiw9ptp
p62
I1
sVd0v4pzz
p63
I1
sVd3hlwj7
p64
I1
sVdi0pp6g
p65
I1
sVdoe9hxq
p66
I1
sVd1dvr21
p67
I1
sVczmbwzm
p68
I1
sVdh15k1z
p69
I1
sVczvonc4
p70
I1
sVde7t2cl
p71
I1
sVcyiokyd
p72
I1
sVdposi93
p73
I2
sVdiruxe3
p74
I1
sVd9e2yy7
p75
I1
sVd6u8hli
p76
I1
sVd4wpqvm
p77
I1
sVd9svdwm
p78
I1
sVdmz77q5
p79
I1
sVd97fsgz
p80
I1
sVd9q89a2
p81
I1
sVdo7vihr
p82
I1
sVdeeuiko
p83
I1
sVd9v8e5k
p84
I1
sVdq0qkct
p85
I1
sVd2is29i
p86
I1
sVd3io1cl
p87
I1
sVd8pd7e9
p88
I1
sVdeup647
p89
I1
sVd0lw0ol
p90
I1
sVd4ww99t
p91
I1
sVdbtxarl
p92
I1
sVd8auqvy
p93
I1
sVdapi0wn
p94
I1
sVd5od0ny
p95
I1
sVcztjr6q
p96
I1
sVd3ea91v
p97
I1
sVdgnqky2
p98
I1
sVd6zdgvl
p99
I1
sVd2673gq
p100
I1
s.