(dp0
Vcyis0p9
p1
I1
s.(dp0
Vcyjh54a
p1
I1
sVcyis0p9
p2
I1
s.(dp0
Vcykuhwm
p1
I1
sVcyis0p9
p2
I1
s.(dp0
Vcylhf0g
p1
I1
sVcyis0p9
p2
I1
s.(dp0
Vcyljp66
p1
I1
sVcyis0p9
p2
I1
s.(dp0
Vcylqjhc
p1
I1
sVcyis0p9
p2
I1
s.(dp0
Vcylycha
p1
I1
sVcyis0p9
p2
I1
s.(dp0
Vcymd74n
p1
I1
sVcyis0p9
p2
I1
s.(dp0
Vcynxytd
p1
I1
sVcyis0p9
p2
I1
s.(dp0
Vcytkkkp
p1
I1
sVcyis0p9
p2
I1
s.(dp0
Vcywir1g
p1
I1
sVcyis0p9
p2
I1
s.(dp0
Vcyis0p9
p1
I1
sVcywjcbp
p2
I1
s.(dp0
Vcyybcn0
p1
I1
sVcyis0p9
p2
I1
s.(dp0
Vcyzctbr
p1
I1
sVcyis0p9
p2
I1
s.(dp0
Vcz03rfl
p1
I1
sVcyis0p9
p2
I1
s.(dp0
Vcz2ken9
p1
I1
sVcyis0p9
p2
I1
s.(dp0
Vcz76yew
p1
I1
sVcyis0p9
p2
I1
s.(dp0
Vcz7rcoi
p1
I1
sVcyis0p9
p2
I1
s.(dp0
Vcyis0p9
p1
I1
sVcz7so2b
p2
I1
s.(dp0
Vcz8zj8h
p1
I1
sVcyis0p9
p2
I1
s.(dp0
Vczb7mlj
p1
I1
sVcyis0p9
p2
I1
s.(dp0
Vczb86ag
p1
I1
sVcyis0p9
p2
I1
s.(dp0
Vczbmx0u
p1
I1
sVcyis0p9
p2
I1
s.(dp0
Vcyis0p9
p1
I1
sVczc92gn
p2
I1
s.(dp0
Vczcsp51
p1
I1
sVcyis0p9
p2
I1
s.(dp0
Vczflyv5
p1
I1
sVcyis0p9
p2
I1
s.(dp0
Vczgy2bz
p1
I1
sVcyis0p9
p2
I1
s.(dp0
Vczhipm1
p1
I1
sVcyis0p9
p2
I1
s.(dp0
Vczlnyhe
p1
I1
sVcyis0p9
p2
I1
s.(dp0
Vczmf87k
p1
I1
sVcyis0p9
p2
I1
s.(dp0
Vczmh349
p1
I1
sVcyis0p9
p2
I1
s.(dp0
Vczo2iwu
p1
I1
sVcyis0p9
p2
I1
s.(dp0
Vczpm87m
p1
I1
sVcyis0p9
p2
I1
s.(dp0
Vczpu537
p1
I1
sVcyis0p9
p2
I1
s.(dp0
Vczqa3lk
p1
I1
sVcyis0p9
p2
I1
s.(dp0
Vczrqp9y
p1
I1
sVcyis0p9
p2
I1
s.(dp0
Vcyis0p9
p1
I1
sVcztjcnv
p2
I1
s.(dp0
Vcztk0bc
p1
I1
sVcyis0p9
p2
I1
s.(dp0
Vcyis0p9
p1
I1
sVczvi0ke
p2
I1
s.(dp0
Vczvkbuj
p1
I1
sVcyis0p9
p2
I1
s.(dp0
Vczvvc69
p1
I1
sVcyis0p9
p2
I1
s.(dp0
Vczx3xfl
p1
I1
sVcyis0p9
p2
I1
s.(dp0
Vczzucoj
p1
I1
sVcyis0p9
p2
I1
s.(dp0
Vd001f6c
p1
I1
sVcyis0p9
p2
I1
s.(dp0
Vd01zbpd
p1
I1
sVcyis0p9
p2
I1
s.(dp0
Vd02h8lx
p1
I1
sVcyis0p9
p2
I1
s.(dp0
Vd04azt2
p1
I1
sVcyis0p9
p2
I1
s.(dp0
Vd063pd6
p1
I1
sVcyis0p9
p2
I1
s.(dp0
Vd0750hu
p1
I1
sVcyis0p9
p2
I1
s.(dp0
Vd085ls0
p1
I1
sVcyis0p9
p2
I1
s.(dp0
Vd09e57g
p1
I1
sVcyis0p9
p2
I1
s.(dp0
Vd0a1fj6
p1
I1
sVcyis0p9
p2
I1
s.(dp0
Vd0a5q4m
p1
I1
sVcyis0p9
p2
I1
s.(dp0
Vd0c2b1n
p1
I1
sVcyis0p9
p2
I1
s.(dp0
Vd0f626i
p1
I1
sVcyis0p9
p2
I1
s.(dp0
Vd0ffkwn
p1
I1
sVcyis0p9
p2
I1
s.(dp0
Vd0h0fwd
p1
I1
sVcyis0p9
p2
I1
s.(dp0
Vd0h30or
p1
I1
sVcyis0p9
p2
I1
s.(dp0
Vcyis0p9
p1
I1
sVd0ip1jr
p2
I1
s.(dp0
Vd0jyzq7
p1
I1
sVcyis0p9
p2
I1
s.(dp0
Vd0r59e5
p1
I1
sVcyis0p9
p2
I1
s.(dp0
Vd0spmkz
p1
I1
sVcyis0p9
p2
I1
s.(dp0
Vd10yqkg
p1
I1
sVcyis0p9
p2
I1
s.(dp0
Vd10z0i0
p1
I1
sVcyis0p9
p2
I1
s.(dp0
Vd114z43
p1
I1
sVcyis0p9
p2
I1
s.(dp0
Vd1173jw
p1
I1
sVcyis0p9
p2
I1
s.(dp0
Vd129nvr
p1
I1
sVcyis0p9
p2
I1
s.(dp0
Vd1728ru
p1
I1
sVcyis0p9
p2
I1
s.(dp0
Vd17v3bu
p1
I1
sVcyis0p9
p2
I1
s.(dp0
Vd1a5gkk
p1
I1
sVcyis0p9
p2
I1
s.(dp0
Vd1bru7u
p1
I1
sVcyis0p9
p2
I1
s.(dp0
Vcyis0p9
p1
I1
sVd1gxapy
p2
I1
s.(dp0
Vcyis0p9
p1
I1
sVd1gxapy
p2
I1
s.(dp0
Vd1jer8f
p1
I1
sVcyis0p9
p2
I1
s.(dp0
Vd1lidvr
p1
I1
sVcyis0p9
p2
I1
s.(dp0
Vd1m76y6
p1
I1
sVcyis0p9
p2
I1
s.(dp0
Vd1ospzx
p1
I1
sVcyis0p9
p2
I1
s.(dp0
Vd1pm058
p1
I1
sVcyis0p9
p2
I1
s.(dp0
Vd1sdlr9
p1
I1
sVcyis0p9
p2
I1
s.(dp0
Vd1uoftp
p1
I1
sVcyis0p9
p2
I1
s.(dp0
Vd1uw8ac
p1
I1
sVcyis0p9
p2
I1
s.(dp0
Vd1vsion
p1
I1
sVcyis0p9
p2
I1
s.(dp0
Vd1yg5yg
p1
I1
sVcyis0p9
p2
I1
s.(dp0
Vd1yk8rb
p1
I1
sVcyis0p9
p2
I1
s.(dp0
Vd1zd2uz
p1
I1
sVcyis0p9
p2
I1
s.(dp0
Vd20r31c
p1
I1
sVcyis0p9
p2
I1
s.(dp0
Vd211mhh
p1
I1
sVcyis0p9
p2
I1
s.(dp0
Vd21rdc8
p1
I1
sVcyis0p9
p2
I1
s.(dp0
Vd21su3i
p1
I1
sVcyis0p9
p2
I1
s.(dp0
Vd21z6iy
p1
I1
sVcyis0p9
p2
I1
s.(dp0
Vd243u73
p1
I1
sVcyis0p9
p2
I1
s.(dp0
Vd25qpte
p1
I1
sVcyis0p9
p2
I1
s.(dp0
Vd25xsfq
p1
I1
sVcyis0p9
p2
I1
s.(dp0
Vd268lyt
p1
I1
sVcyis0p9
p2
I1
s.(dp0
Vd26kchr
p1
I1
sVcyis0p9
p2
I1
s.(dp0
Vcyis0p9
p1
I1
sVd2719wj
p2
I1
s.(dp0
Vd29f0lv
p1
I1
sVcyis0p9
p2
I1
s.(dp0
Vd2h0ugq
p1
I1
sVcyis0p9
p2
I1
s.(dp0
Vd2i5mg6
p1
I1
sVcyis0p9
p2
I1
s.(dp0
Vd2iwtmq
p1
I1
sVcyis0p9
p2
I1
s.(dp0
Vd2k4pv6
p1
I1
sVcyis0p9
p2
I1
s.(dp0
Vd2o3sfr
p1
I1
sVcyis0p9
p2
I1
s.(dp0
Vd2o4cju
p1
I1
sVcyis0p9
p2
I1
s.(dp0
Vcyis0p9
p1
I1
sVd2uwxhn
p2
I1
s.(dp0
Vd2vqee5
p1
I1
sVcyis0p9
p2
I1
s.(dp0
Vd2zwlgz
p1
I1
sVcyis0p9
p2
I1
s.(dp0
Vd31qdnc
p1
I1
sVcyis0p9
p2
I1
s.(dp0
Vd32dt3f
p1
I1
sVcyis0p9
p2
I1
s.(dp0
Vd3(dp0
Vdthgri9
p1
I1
sVcyis0p9
p2
I1
s.