(dp0
Vde8u6a0
p1
I2
sVdivs4q3
p2
I1
sVd9ppqgn
p3
I1
sVd0mrto7
p4
I1
sVdj2s9un
p5
I1
sVdr8otqo
p6
I1
sVdgjl3vt
p7
I1
sVdgpmpzm
p8
I1
sVdfb1fie
p9
I1
sVdjlxhwe
p10
I1
sVd6idtuq
p11
I3
sVd3qy0ij
p12
I1
sVdetmj1u
p13
I1
sVditss9s
p14
I1
sVd0spjwr
p15
I1
sVd3qdgz4
p16
I1
sVd8ay70m
p17
I3
s.