(dp0
Vdbeqkap
p1
I1
sVdco93hh
p2
I1
sVdrhrze8
p3
I1
sVczigs6v
p4
I1
sVd5z5t2i
p5
I1
sVdajjl21
p6
I1
sVdobbihc
p7
I1
sVd3o8sq8
p8
I2
sVd07wzk4
p9
I1
sVczoasa9
p10
I1
sVcymulbf
p11
I1
sVdfi9fd8
p12
I1
sVdk5vm4a
p13
I3
sVdnuvo4m
p14
I1
sVdtfinjo
p15
I1
sVd6xtv28
p16
I1
s.