(dp0
Vcymulbf
p1
I1
s.(dp0
Vcymulbf
p1
I1
sVczigs6v
p2
I1
s.(dp0
Vczoasa9
p1
I1
sVcymulbf
p2
I1
s.(dp0
Vd07wzk4
p1
I1
sVcymulbf
p2
I1
s.(dp0
Vd3o8sq8
p1
I1
sVcymulbf
p2
I1
s.(dp0
Vd3o8sq8
p1
I1
sVcymulbf
p2
I1
s.(dp0
Vcymulbf
p1
I1
sVd5z5t2i
p2
I1
s.(dp0
Vcymulbf
p1
I1
sVd6xtv28
p2
I1
s.(dp0
Vcymulbf
p1
I1
sVdajjl21
p2
I1
s.(dp0
Vdbeqkap
p1
I1
sVcymulbf
p2
I1
s.(dp0
Vdco93hh
p1
I1
sVcymulbf
p2
I1
s.(dp0
Vdfi9fd8
p1
I1
sVcymulbf
p2
I1
s.(dp0
Vcymulbf
p1
I1
sVdk5vm4a
p2
I1
s.(dp0
Vcymulbf
p1
I1
sVdk5vm4a
p2
I1
s.(dp0
Vcymulbf
p1
I1
sVdk5vm4a
p2
I1
s.(dp0
Vdnuvo4m
p1
I1
sVcymulbf
p2
I1
s.(dp0
Vdobbihc
p1
I1
sVcymulbf
p2
I1
s.(dp0
Vdrhrze8
p1
I1
sVcymulbf
p2
I1
s.(dp0
Vcymulbf
p1
I1
sVdtfinjo
p2
I1
s.