(dp0
Vdctlcgh
p1
I1
sVdrcq3xh
p2
I1
sVdn7g5k1
p3
I1
sVd0yzpun
p4
I1
sVd9f6hee
p5
I1
sVd04ium9
p6
I1
sVd6wq9v2
p7
I1
sVcynnrcq
p8
I1
sVdbu9j0o
p9
I1
sVdh5dw5y
p10
I2
sVdoi15if
p11
I1
sVdnivttg
p12
I1
sVd2ku6m0
p13
I1
sVd6grwp5
p14
I1
sVdovo13o
p15
I1
sVdev633e
p16
I1
sVd249hma
p17
I1
sVdbtfisv
p18
I1
sVd1725x5
p19
I2
sVdfeu18l
p20
I1
sVd26kau3
p21
I1
sVdji9tq0
p22
I1
sVd2zhnzf
p23
I1
sVdb584fo
p24
I1
sVcz83hw4
p25
I1
sVdd4uu2h
p26
I1
sVdfsxrb0
p27
I1
sVddybwii
p28
I1
sVdpvcv28
p29
I1
sVdan4ujt
p30
I1
sVdb5ooj3
p31
I1
sVdj7lvzk
p32
I1
sVd7mq8f5
p33
I1
sVd803e65
p34
I1
sVcynqbp3
p35
I1
sVd0ptu8j
p36
I1
sVd7uzmmd
p37
I1
sVd4v0r3d
p38
I1
sVcyqy5vz
p39
I1
sVd4swx0g
p40
I1
sVd8nr3qn
p41
I1
sVd967n1g
p42
I1
sVd30idcn
p43
I1
sVdiseq9t
p44
I1
sVcymfyry
p45
I1
sVdropgav
p46
I2
sVd6krq3d
p47
I1
sVd5wkzr3
p48
I1
sVdk4f722
p49
I1
sVcznln8v
p50
I1
sVde7xcjo
p51
I1
sVd50fllr
p52
I1
sVdhd4oim
p53
I1
sVdj5n5tf
p54
I1
sVczdghae
p55
I1
sVdbnqvh9
p56
I1
sVdoj4b10
p57
I1
sVdcqgbvm
p58
I1
s.