(dp0
Vd8huvau
p1
I1
sVdimuzu2
p2
I1
sVdewtoxj
p3
I1
sVdgfioh7
p4
I1
sVd1qadjt
p5
I1
sVd6ewis7
p6
I1
sVczu94fl
p7
I1
sVdegdjiz
p8
I1
sVdh9g78c
p9
I1
sVd7j9b4x
p10
I1
sVdrbnkvb
p11
I1
sVd69s6uh
p12
I1
sVdhi21nm
p13
I1
sVdb6bpux
p14
I1
sVdccyhcq
p15
I1
sVd9c1xpl
p16
I1
sVd6ruzr7
p17
I1
sVd0eqc5t
p18
I2
sVd9lqnxw
p19
I1
sVd9k21un
p20
I1
s.