(dp0
Vdtjg30o
p1
I1
sVddy768y
p2
I1
sVd4lmsjr
p3
I1
sVddc9774
p4
I1
sVd17tnea
p5
I1
sVd5ec3i3
p6
I1
sVd0jh4t8
p7
I1
sVds0eu15
p8
I2
sVd5cocdt
p9
I1
sVdcdltss
p10
I1
sVd4we0l7
p11
I1
sVd3vgh4l
p12
I1
sVdkw2e4p
p13
I1
sVdou0sip
p14
I1
sVdoemv68
p15
I1
sVdgo4adv
p16
I1
sVcyjkutp
p17
I1
sVddbzy4l
p18
I1
sVdgwy9y8
p19
I1
sVdmsbcud
p20
I1
sVdgfnilu
p21
I1
sVdq4ssue
p22
I1
sVdgsgrof
p23
I2
sVczdcw11
p24
I1
sVd97jztp
p25
I1
sVdcnbetc
p26
I1
sVdnz97xh
p27
I2
sVcys9eq0
p28
I1
sVdam1w4w
p29
I1
sVdcfdwz5
p30
I3
sVdg374up
p31
I1
sVdg98ajg
p32
I1
sVd6yvtlj
p33
I2
sVd05wztg
p34
I1
sVd9qelzo
p35
I1
sVd2e66g4
p36
I1
sVdsnqb4w
p37
I1
sVdbeu165
p38
I1
sVdny3tiv
p39
I2
sVd098m9r
p40
I1
sVd1eguuc
p41
I1
sVd30t5wl
p42
I1
sVdb09rqo
p43
I1
sVd7etlkz
p44
I4
sVdfhbwyj
p45
I1
sVda1054n
p46
I1
sVd2lw5ty
p47
I1
sVdcghou3
p48
I1
sVd5vt6qw
p49
I1
sVdds79q2
p50
I1
sVczupjee
p51
I1
sVd7yzl85
p52
I1
sVdnyjyis
p53
I1
sVdexesur
p54
I1
sVdomwkoy
p55
I1
sVd2iwjit
p56
I1
sVcz6ommo
p57
I1
sVdhrc9y7
p58
I1
sVd044oxr
p59
I1
sVdtfjqk8
p60
I1
sVd7wwxlg
p61
I1
sVdkenauh
p62
I1
sVdg4njsa
p63
I1
sVdoxj32x
p64
I1
sVd0pk287
p65
I1
sVdhvwfcs
p66
I1
sVdeotgy0
p67
I1
sVd4gm8df
p68
I1
sVdqnwqn5
p69
I1
sVd4v8x37
p70
I1
sVdnxwkzp
p71
I1
sVdnxvw03
p72
I2
sVdkph8ud
p73
I1
sVdjvjl8x
p74
I1
sVdijocjt
p75
I1
sVd6mcwbw
p76
I1
sVdnydufk
p77
I1
sVdesos0b
p78
I2
sVdcmmvtf
p79
I1
sVdsjlzra
p80
I1
sVdr464p7
p81
I1
sVcza8yze
p82
I1
sVdg6gpod
p83
I1
sVderidkv
p84
I1
sVdpguheu
p85
I1
sVddikz7c
p86
I1
sVdn4mpsg
p87
I1
sVddvngdz
p88
I1
sVd505uaj
p89
I1
sVdktkm1x
p90
I1
sVdq1w2uh
p91
I1
sVdny5peh
p92
I1
sVd4kxdqf
p93
I1
sVdmk0qpg
p94
I2
sVd6bjwy5
p95
I1
sVd30p2xe
p96
I4
sVcz7r8j2
p97
I2
sVdel6btu
p98
I1
sVdse4uqj
p99
I1
sVdekiqcd
p100
I1
sVczocpfs
p101
I1
sVd2igrun
p102
I1
sVdprho4l
p103
I1
sVdmky0tu
p104
I1
sVd7zjznb
p105
I1
sVd3e8hf4
p106
I1
sVddj9sgk
p107
I1
sVd12y5ia
p108
I1
sVdcvt7s3
p109
I1
sVdd19km6
p110
I1
sVda34n3e
p111
I1
sVd84zcxu
p112
I1
sVds68769
p113
I4
sVd6bvyi1
p114
I1
sVd2d5een
p115
I1
sVczugsjk
p116
I1
sVd2scvmc
p117
I1
sVdag07k8
p118
I1
sVd0r5qog
p119
I2
sVdcw8q9k
p120
I1
sVdduv73j
p121
I2
sVdsmwekw
p122
I1
sVdgfn8od
p123
I1
sVcyklnqo
p124
I1
sVcz7z3me
p125
I1
sVd554n14
p126
I1
sVd53atql
p127
I1
sVcyp8y43
p128
I1
sVd83iy8i
p129
I1
sVd2m62g1
p130
I1
sVdjn4f3c
p131
I1
sVd7zlb8k
p132
I1
sVde16v9u
p133
I1
sVczifsb9
p134
I4
sVdioi2e2
p135
I1
sVdff5a44
p136
I1
sVd7c8ktq
p137
I2
sVd3aan9l
p138
I1
sVd587ih2
p139
I1
sVcykaequ
p140
I1
sVdqcvok0
p141
I1
sVdiwcsgr
p142
I1
sVcz03rfl
p143
I1
sVdacvhsn
p144
I1
sVdjonsy9
p145
I1
sVd0ii74f
p146
I1
sVde69gt7
p147
I1
sVdkpgv1m
p148
I1
sVd8ixw1c
p149
I1
sVcz3qsa5
p150
I2
sVdj21djn
p151
I1
sVd6ml3qm
p152
I1
sVdcbu3yw
p153
I1
sVczfc4ut
p154
I1
sVdo7pqyt
p155
I1
sVdjmp5n8
p156
I1
sVds4gnf5
p157
I1
sVcyxjo4d
p158
I1
sVdb81ew3
p159
I1
sVdkatnyp
p160
I1
sVd6nwu04
p161
I1
sVdj9jec7
p162
I1
sVcz7g83m
p163
I1
sVdgpm93n
p164
I1
sVdnzdj4u
p165
I7
sVd7ndyxg
p166
I1
sVdqgnq8g
p167
I1
sVd36u39u
p168
I1
sVcykt1qv
p169
I1
sVdcovlv0
p170
I2
sVdhn7j9h
p171
I1
sVdijatxe
p172
I2
sVder4nkm
p173
I1
sVd2yofvt
p174
I1
sVd4t2dvn
p175
I1
sVcyuoaq2
p176
I1
sVdf4ytd4
p177
I1
sVdnxk5es
p178
I1
sVdggissq
p179
I1
sVdfa0fnj
p180
I2
sVdpwba56
p181
I1
sVd8k547b
p182
I1
sVdmwqj6l
p183
I1
sVdqjjtiy
p184
I3
sVd3i3tsp
p185
I1
sVd074v35
p186
I1
sVd7sdt0v
p187
I1
sVdd20or4
p188
I1
sVd0vqrv6
p189
I1
sVdnedpxg
p190
I1
sVddomqvd
p191
I1
sVd9lg8vk
p192
I1
sVdkt1961
p193
I1
sVd2ix59h
p194
I1
sVdhijgej
p195
I1
sVd7c4vjw
p196
I2
sVdf5s1yd
p197
I1
sVdfa0k02
p198
I1
sVd2pjw22
p199
I1
sVd8yt4ly
p200
I1
sVdeayr7j
p201
I1
sVd7p41m6
p202
I1
sVd8npto6
p203
I1
sVdfmls6v
p204
I1
sVdjufoio
p205
I1
sVcyzs442
p206
I1
sVdehq72d
p207
I1
sVdnxw9nm
p208
I1
sVd60p4ej
p209
I2
sVdiglmp3
p210
I1
sVcz1ukrf
p211
I1
sVd7bcm3l
p212
I1
sVd1lj7c9
p213
I1
sVd44llgi
p214
I1
sVdfrvv0e
p215
I1
sVd95skck
p216
I1
sVd5ltkws
p217
I1
sVdhpuest
p218
I1
sVd3e3toe
p219
I1
sVd07isr7
p220
I1
sVdfg5swj
p221
I1
sVddllbxv
p222
I1
sVdequi77
p223
I1
sVde3nb1t
p224
I1
sVdth4zjm
p225
I1
sVcykc5dc
p226
I1
sVdedvxp3
p227
I2
sVdcqw0a1
p228
I1
sVdrx1uuz
p229
I1
sVd1hrhia
p230
I1
sVd9ippaf
p231
I1
sVd7rtxtp
p232
I1
sVcz8t5ef
p233
I1
sVda2tk7c
p234
I1
sVdcvqqyy
p235
I1
sVdqoxd6x
p236
I1
sVdfmst2x
p237
I1
sVdmsgyds
p238
I1
sVdbnpha6
p239
I1
sVd1mb987
p240
I1
sVdctjvey
p241
I1
sVcz7zbs9
p242
I1
sVd7no8ef
p243
I1
sVd9p180m
p244
I1
sVdou0r0b
p245
I2
sVdq8rr53
p246
I1
sVdcng04t
p247
I1
sVd35fjhn
p248
I1
sVdb59nz6
p249
I1
sVd4ebezl
p250
I1
sVd6i4hxg
p251
I2
sVd3e95p1
p252
I1
sVd1hit0n
p253
I1
sVdnxw9ip
p254
I1
sVd25jarz
p255
I1
sVdcmj5sl
p256
I1
sVd1os1sx
p257
I2
sVczooidk
p258
I1
sVdou17sg
p259
I1
sVcyourri
p260
I1
sVd7obuio
p261
I1
sVddd4rgd
p262
I1
sVdocrd1g
p263
I1
sVdaplkjq
p264
I1
sVd19gjiv
p265
I1
sVd2nyhs3
p266
I1
sVdojf7uq
p267
I1
sVd3n0lbx
p268
I1
sVczf8k21
p269
I1
sVdan3ppp
p270
I1
sVd4bzvpe
p271
I1
sVcz5d70m
p272
I1
sVdfzx4pe
p273
I1
sVd8nqe3u
p274
I1
sVdeq1o2x
p275
I1
sVdmz74h9
p276
I1
sVdd0x9qn
p277
I1
sVd9483oz
p278
I1
sVdqjz2xx
p279
I1
sVdoubj1q
p280
I3
sVcys562g
p281
I2
sVdefsyha
p282
I1
sVdcnuy7r
p283
I1
sVdfk2yva
p284
I1
sVdsp8d1c
p285
I1
sVczs1x72
p286
I1
sVde7g3q5
p287
I1
sVczqb99d
p288
I1
sVd2hfeg7
p289
I1
sVd1nv9p0
p290
I4
sVdrpiqri
p291
I1
sVdny9o5z
p292
I1
sVds0ue5i
p293
I1
sVd8np7q6
p294
I2
sVdj2hfxl
p295
I1
sVd2t2hkw
p296
I1
sVd8bkt7r
p297
I1
sVd82u9lq
p298
I1
sVdam1jq2
p299
I1
sVdg2czx4
p300
I1
sVdel40u2
p301
I1
sVdfomqje
p302
I1
sVd2966p5
p303
I1
sVda48r58
p304
I1
sVdocfhp8
p305
I2
sVdak8ai6
p306
I1
sVdpyzk5p
p307
I2
sVd70sjid
p308
I1
sVd1zuf9e
p309
I1
sVd980dtf
p310
I1
sVd03kq31
p311
I1
sVdbjc7kw
p312
I1
sVd4w84wq
p313
I1
sVdc5p09r
p314
I1
sVd9rd5tl
p315
I1
sVd0a12nz
p316
I1
sVd9dkl2j
p317
I1
sVdjarak5
p318
I4
sVd268t2h
p319
I1
sVczfib6v
p320
I1
sVdh7bzjn
p321
I1
sVdcpzlva
p322
I1
sVd4bd1sh
p323
I2
sVd09a3kv
p324
I1
sVda9flmd
p325
I2
sVdk0nwgy
p326
I1
sVdmxb43k
p327
I1
sVdbfa6xo
p328
I2
sVdewidb1
p329
I1
sVddbz0y1
p330
I1
sVd52mnbm
p331
I1
sVdf0wbw6
p332
I2
sVdgn116a
p333
I1
sVdqaghkm
p334
I1
sVdgtuht1
p335
I1
sVd6ik1rk
p336
I1
sVdh6g9qt
p337
I1
sVdhg9jpl
p338
I1
sVdfmpgs0
p339
I3
sVd9w9uyr
p340
I1
sVczbj7is
p341
I1
sVd3j7tkx
p342
I1
sVd2doqe9
p343
I1
sVd8mxvr6
p344
I1
sVd0na3z1
p345
I1
sVdbg2fht
p346
I1
sVdaxmykl
p347
I1
sVdepzu64
p348
I1
sVdsueonp
p349
I1
sVd41cr9t
p350
I1
sVdn1gkt6
p351
I4
sVcys2fht
p352
I1
sVd26gflr
p353
I1
sVd3oe8ia
p354
I1
sVczemepp
p355
I1
sVd6z6cmo
p356
I1
sVdiq7nl5
p357
I1
sVd9dz7q2
p358
I1
sVddkibrs
p359
I1
sVczij0jl
p360
I2
sVdhsn7d1
p361
I1
sVd3b81e1
p362
I1
sVds4jstv
p363
I3
sVd9x2yld
p364
I1
sVdcaqxok
p365
I1
sVdru74s8
p366
I1
sVd35szux
p367
I1
sVdf50ogk
p368
I1
sVde7c6ai
p369
I1
sVd6xg0qx
p370
I1
sVdjk7tag
p371
I2
sVdk8f0sr
p372
I1
sVdjo8yu0
p373
I1
sVd4e7quu
p374
I1
sVd8yie0l
p375
I1
sVdpc79pg
p376
I1
sVd94fr0p
p377
I1
sVdgbfhec
p378
I1
sVd3pu89a
p379
I1
sVd0kstki
p380
I1
sVdesi30h
p381
I1
sVd390eee
p382
I1
sVd731nae
p383
I1
sVdpovcr4
p384
I2
sVdb3t02q
p385
I1
sVd608yhs
p386
I2
sVdo7lw5u
p387
I1
sVd9ngeox
p388
I1
sVd8nhhuz
p389
I2
sVdd28yc4
p390
I1
sVddplyhj
p391
I1
sVdny54j6
p392
I1
sVczgu7xc
p393
I1
sVdbar7u2
p394
I1
sVdtdicve
p395
I1
sVds11c55
p396
I1
sVdcwrpxh
p397
I1
sVd3p9sid
p398
I1
sVdo7lsaf
p399
I4
sVd4avv4j
p400
I1
sVcyirn2u
p401
I1
sVd77tg93
p402
I5
sVdgdv7bo
p403
I1
sVd1oqzt9
p404
I1
sVd9q3z58
p405
I1
sVdb4qkkv
p406
I1
sVdcfik3k
p407
I1
sVdhjfnvd
p408
I1
sVda21tx8
p409
I1
sVd50gqgg
p410
I3
sVdgbvelw
p411
I1
sVdf8xa2w
p412
I1
sVd44ubun
p413
I1
sVcz7nusc
p414
I1
sVd7xgrxk
p415
I1
sVd4hxej5
p416
I1
sVdid02av
p417
I1
sVdcvqug5
p418
I1
sVd72cx5i
p419
I1
sVdgu502c
p420
I1
sVdg7c16x
p421
I1
sVdfigebf
p422
I1
sVd1w0z7u
p423
I1
sVddd7bam
p424
I1
sVdh0enw0
p425
I1
sVdog967w
p426
I1
sVd78cjqb
p427
I1
sVd0jx0gg
p428
I1
sVd8nry19
p429
I1
sVdjy7nyk
p430
I1
sVd903kh6
p431
I1
sVcz7va5x
p432
I2
sVd2mqma2
p433
I1
sVdb897s6
p434
I1
sVdnxx0vs
p435
I3
sVczqif75
p436
I1
sVdd3inhm
p437
I1
sVd6ml7d5
p438
I2
sVd2npzus
p439
I1
sVd9zt6ac
p440
I1
sVdo39mh9
p441
I1
sVd4e5ssu
p442
I1
sVddykjym
p443
I1
sVd1416ce
p444
I1
sVdnbalh2
p445
I1
sVdny89f8
p446
I1
sVd6jbtv7
p447
I1
sVd51g0j3
p448
I1
sVczxahvo
p449
I1
sVdq3gomy
p450
I1
sVd6hfzip
p451
I1
sVdfmltcq
p452
I2
sVd7eta2u
p453
I1
sVdnye4eh
p454
I2
sVcynczo5
p455
I1
sVdti7oxu
p456
I1
sVdpu58fm
p457
I1
sVdgv3efj
p458
I1
sVdjkchai
p459
I2
sVd7fp821
p460
I1
sVd3hq1c8
p461
I1
sVd8e3sfn
p462
I1
sVd17scky
p463
I1
sVd4vm9fc
p464
I1
sVd1es0wl
p465
I3
sVdgdijjb
p466
I1
sVde2ng4l
p467
I2
sVd6zbvrj
p468
I1
sVdc5yfkj
p469
I1
sVdmno4s7
p470
I1
sVdcx4kp7
p471
I1
sVdf0ybsz
p472
I1
sVd9qe5zm
p473
I1
sVd0tyn5t
p474
I1
sVd1i0nua
p475
I1
sVcyjdu0x
p476
I1
sVcznu6y0
p477
I1
sVdny98ga
p478
I1
sVd9xa2hx
p479
I1
sVds3jpgp
p480
I1
sVdkp3zgl
p481
I1
sVdfqer5k
p482
I1
sVczkvurn
p483
I1
sVd004sgj
p484
I1
sVd1yhhqe
p485
I1
sVd8qypeb
p486
I1
sVdhncwuf
p487
I1
sVdpc6159
p488
I1
sVd7p4131
p489
I1
sVd0j3jxy
p490
I1
sVdqeklmw
p491
I6
sVdk4c75r
p492
I1
sVd510bys
p493
I1
sVd95zrds
p494
I1
sVd7eoyo9
p495
I1
sVd36lv9g
p496
I1
sVd1lekxk
p497
I1
sVd5m3avh
p498
I1
sVd0pxqqf
p499
I1
sVd344m12
p500
I1
sVd453fki
p501
I1
sVdgz1uau
p502
I1
sVdfq3kdn
p503
I1
sVd2sjcxn
p504
I1
sVd4l3kqm
p505
I1
sVd1qm6jq
p506
I1
sVdilyuia
p507
I1
sVd070jg7
p508
I1
s.