(dp0
Vcz16vya
p1
I1
sVd9eqfqr
p2
I1
sVd3u8eod
p3
I1
sVdn6r7na
p4
I1
sVdbn9a2w
p5
I4
sVdenwr0d
p6
I1
sVdn6rh8v
p7
I1
sVczrqcn3
p8
I1
sVdbj2prs
p9
I2
sVcykmlpq
p10
I3
sVdrq1d1g
p11
I1
sVdctd5tk
p12
I1
sVd7fodx8
p13
I2
sVd6xxt61
p14
I1
sVd3l0dvk
p15
I1
s.