(dp0
Vdc2wqh7
p1
I1
sVdnnejp4
p2
I1
sVdk3n692
p3
I1
sVdb882a7
p4
I1
sVdsiyohi
p5
I1
sVd3uzrcj
p6
I1
sVdnb7cwu
p7
I1
sVdaq09i8
p8
I1
sVd800ssh
p9
I1
sVd9bb4um
p10
I1
sVdd2jifv
p11
I1
sVd54ek32
p12
I1
sVdkq1zxf
p13
I1
sVd0eyt1t
p14
I1
sVda2pzkx
p15
I1
s.