(dp0
Vdgwj5pc
p1
I3
sVdgwj77j
p2
I3
sVdd6p7on
p3
I1
sVdowz073
p4
I1
sVdgwhs1m
p5
I1
sVd48gk8c
p6
I1
sVd9o2kx5
p7
I1
sVd1fd1k3
p8
I1
sVd8aa9ss
p9
I3
sVd6td3yn
p10
I1
sVd1baa1r
p11
I1
sVd31q3mj
p12
I1
sVdf0w6xn
p13
I1
sVdgwizaj
p14
I4
s.