(dp0
Vd3gu6r3
p1
I1
sVdqjpjlw
p2
I2
sVdh5i1x4
p3
I1
sVd29z2f7
p4
I1
sVdjdqc2u
p5
I1
sVcyzmnv2
p6
I1
sVd13dje2
p7
I2
sVddreq0z
p8
I2
sVdjdls1f
p9
I1
sVdb4ujtu
p10
I1
sVdrm22j8
p11
I1
sVdnt29h1
p12
I2
sVcz8fmsm
p13
I1
sVd72912c
p14
I1
sVdr7aoaz
p15
I1
sVdmxtw8j
p16
I1
sVdifqjei
p17
I1
s.