(dp0
Vd0zu5c6
p1
I1
sVd9pbp7f
p2
I1
sVdhownen
p3
I2
sVdo7x6l2
p4
I5
sVd89u33b
p5
I1
sVd4ce606
p6
I2
sVdeunrmn
p7
I1
sVd876vbx
p8
I1
sVd6e5e9b
p9
I1
sVczg3hu4
p10
I2
sVd0m8hah
p11
I3
sVdfk95zi
p12
I1
sVd16i7rv
p13
I1
sVdhl9o63
p14
I2
sVd695epi
p15
I1
sVde4twwe
p16
I1
sVd0n1mue
p17
I1
sVdjf4bw0
p18
I1
sVdogkqdl
p19
I1
sVdqd7osr
p20
I2
sVd5m31g6
p21
I1
sVdjzv6dp
p22
I1
sVdnyka6p
p23
I1
sVd35myf6
p24
I2
sVdc9vh9a
p25
I1
sVd69e936
p26
I4
sVdk6bozt
p27
I1
sVdjlkwyr
p28
I1
sVdca10u2
p29
I1
s.