(dp0
Vdqumy88
p1
I1
sVdducrf0
p2
I1
sVd90zbr5
p3
I1
sVdi4spck
p4
I1
sVdog75f4
p5
I1
sVde2kvh8
p6
I1
sVdppxdwh
p7
I1
sVd7ksnk4
p8
I1
sVd2qpqvc
p9
I1
sVd2egkdq
p10
I1
sVdjlclvv
p11
I1
sVdii18uf
p12
I1
sVdh62qpa
p13
I1
sVd1kwkhs
p14
I2
s.