(dp0
Vdd363cg
p1
I1
sVd2zfcu1
p2
I1
sVd2hbs63
p3
I1
sVcztirkh
p4
I1
sVdczcj57
p5
I1
sVdbafaor
p6
I1
sVddiubbz
p7
I1
sVdj96x6f
p8
I1
sVddo9waf
p9
I1
sVd6jnje5
p10
I1
sVddg5h51
p11
I1
sVd6ewfny
p12
I1
sVd6ul52b
p13
I1
sVdhs1zcv
p14
I1
sVd4jq9xx
p15
I1
sVdjb33w6
p16
I1
sVd69krnj
p17
I1
sVd5x2we3
p18
I1
sVddjaot5
p19
I1
sVd4k65v5
p20
I1
sVdefmqo6
p21
I1
sVd0dkebp
p22
I1
sVd051gq2
p23
I1
sVd5tib4v
p24
I1
sVd7mzg1y
p25
I1
sVdb6vop8
p26
I1
sVdbghphz
p27
I1
sVd69nkyp
p28
I1
sVdhlvn3i
p29
I1
sVd25xm6b
p30
I1
sVcymot7h
p31
I1
sVd0cuvqi
p32
I1
sVdcgiud2
p33
I1
sVd37mge1
p34
I1
sVd8os9d8
p35
I1
sVdeqg2de
p36
I1
sVds3ju12
p37
I1
sVdoxc0n9
p38
I1
sVdf3pa1e
p39
I3
sVd86u30m
p40
I1
sVdb48hyg
p41
I1
sVd91usps
p42
I1
sVdcp1dz4
p43
I2
sVd6lgq27
p44
I1
sVd9ig8at
p45
I1
sVdnrbm08
p46
I1
sVd9f35c9
p47
I1
sVdkm62rb
p48
I1
sVd07l4pa
p49
I2
sVd05wvnp
p50
I1
sVd38592i
p51
I1
sVd7scit9
p52
I1
sVd19530g
p53
I1
sVcz91x8s
p54
I1
sVd7di6zd
p55
I1
sVddktcjg
p56
I1
sVdcuuy6j
p57
I1
sVdbywc41
p58
I1
sVde2ibub
p59
I2
s.