(dp0
Vd1tixcg
p1
I1
s.(dp0
Vd1tixcg
p1
I1
sVd34gdd6
p2
I1
s.(dp0
Vd1tixcg
p1
I1
sVd6tdwdc
p2
I1
s.(dp0
Vd1tixcg
p1
I1
sVd91dyz9
p2
I1
s.(dp0
Vd1tixcg
p1
I1
sVdbi9cyl
p2
I1
s.(dp0
Vd1tixcg
p1
I1
sVdcx82ln
p2
I1
s.(dp0
Vd1tixcg
p1
I1
sVds0d7jh
p2
I1
s.