(dp0
Vcyjrmrm
p1
I1
s.(dp0
Vcyjrmrm
p1
I1
sVcypainf
p2
I1
s.(dp0
Vcypfqz6
p1
I1
sVcyjrmrm
p2
I1
s.(dp0
Vcyjrmrm
p1
I1
sVcyphljl
p2
I1
s.(dp0
Vcyjrmrm
p1
I1
sVcypke92
p2
I1
s.(dp0
Vcyjrmrm
p1
I1
sVcyvyujf
p2
I1
s.(dp0
Vcyjrmrm
p1
I1
sVcyxcxcc
p2
I1
s.(dp0
Vcz4voqx
p1
I1
sVcyjrmrm
p2
I1
s.(dp0
Vcyjrmrm
p1
I1
sVcz4wg3c
p2
I1
s.(dp0
Vcyjrmrm
p1
I1
sVcz51har
p2
I1
s.(dp0
Vcyjrmrm
p1
I1
sVcz5atgt
p2
I1
s.(dp0
Vcyjrmrm
p1
I1
sVcz5d9ze
p2
I1
s.(dp0
Vcz7eeoj
p1
I1
sVcyjrmrm
p2
I1
s.(dp0
Vcyjrmrm
p1
I1
sVcz7fm97
p2
I1
s.(dp0
Vcyjrmrm
p1
I1
sVcz7fm97
p2
I1
s.(dp0
Vcyjrmrm
p1
I1
sVcz7jgq0
p2
I1
s.(dp0
Vcyjrmrm
p1
I1
sVcz7jgq0
p2
I1
s.(dp0
Vcyjrmrm
p1
I1
sVcz7k35c
p2
I1
s.(dp0
Vcyjrmrm
p1
I1
sVcz7k35c
p2
I1
s.(dp0
Vcyjrmrm
p1
I1
sVcz7k35c
p2
I1
s.(dp0
Vcyjrmrm
p1
I1
sVcz7k35c
p2
I1
s.(dp0
Vcyjrmrm
p1
I1
sVcz7kzvo
p2
I1
s.(dp0
Vcyjrmrm
p1
I1
sVcz7kzvo
p2
I1
s.(dp0
Vcyjrmrm
p1
I1
sVcz7n3b1
p2
I1
s.(dp0
Vcyjrmrm
p1
I1
sVcz7pobo
p2
I1
s.(dp0
Vcyjrmrm
p1
I1
sVcz7pobo
p2
I1
s.(dp0
Vcyjrmrm
p1
I1
sVcz7pobo
p2
I1
s.(dp0
Vcyjrmrm
p1
I1
sVcz7ppba
p2
I1
s.(dp0
Vcyjrmrm
p1
I1
sVcz7ppba
p2
I1
s.(dp0
Vcyjrmrm
p1
I1
sVcz7ppba
p2
I1
s.(dp0
Vcyjrmrm
p1
I1
sVcz7ppba
p2
I1
s.(dp0
Vcyjrmrm
p1
I1
sVcz7qg4g
p2
I1
s.(dp0
Vcyjrmrm
p1
I1
sVcz7r8j2
p2
I1
s.(dp0
Vcyjrmrm
p1
I1
sVcz7r8j2
p2
I1
s.(dp0
Vcyjrmrm
p1
I1
sVcz7r8j2
p2
I1
s.(dp0
Vcyjrmrm
p1
I1
sVcz7r8j2
p2
I1
s.(dp0
Vcyjrmrm
p1
I1
sVcz7r8j2
p2
I1
s.(dp0
Vcz7re5a
p1
I1
sVcyjrmrm
p2
I1
s.(dp0
Vcz7s2gc
p1
I1
sVcyjrmrm
p2
I1
s.(dp0
Vcyjrmrm
p1
I1
sVcz7u2x2
p2
I1
s.(dp0
Vcyjrmrm
p1
I1
sVcz7va5x
p2
I1
s.(dp0
Vcyjrmrm
p1
I1
sVcz7va5x
p2
I1
s.(dp0
Vcyjrmrm
p1
I1
sVcz7wtv7
p2
I1
s.(dp0
Vcyjrmrm
p1
I1
sVcz7zbs9
p2
I1
s.(dp0
Vcyjrmrm
p1
I1
sVcz7zbs9
p2
I1
s.(dp0
Vcyjrmrm
p1
I1
sVcz85v3e
p2
I1
s.(dp0
Vcyjrmrm
p1
I1
sVcz8a6d1
p2
I1
s.(dp0
Vcz8cmuq
p1
I1
sVcyjrmrm
p2
I1
s.(dp0
Vcz8cmuq
p1
I1
sVcyjrmrm
p2
I1
s.(dp0
Vcyjrmrm
p1
I1
sVczcbxzf
p2
I1
s.(dp0
Vcyjrmrm
p1
I1
sVczg4aql
p2
I1
s.(dp0
Vcyjrmrm
p1
I1
sVczi0exh
p2
I1
s.(dp0
Vcyjrmrm
p1
I1
sVczjgpsf
p2
I1
s.(dp0
Vcyjrmrm
p1
I1
sVczmbi93
p2
I1
s.(dp0
Vcyjrmrm
p1
I1
sVczmh349
p2
I1
s.(dp0
Vcyjrmrm
p1
I1
sVczslk0f
p2
I1
s.(dp0
Vcyjrmrm
p1
I1
sVd006h40
p2
I1
s.(dp0
Vd014qmx
p1
I1
sVcyjrmrm
p2
I1
s.(dp0
Vcyjrmrm
p1
I1
sVd03dqdr
p2
I1
s.(dp0
Vcyjrmrm
p1
I1
sVd04hqb8
p2
I1
s.(dp0
Vcyjrmrm
p1
I1
sVd04hqb8
p2
I1
s.(dp0
Vcyjrmrm
p1
I1
sVd04ickw
p2
I1
s.(dp0
Vcyjrmrm
p1
I1
sVd0b2024
p2
I1
s.(dp0
Vcyjrmrm
p1
I1
sVd0b6yyi
p2
I1
s.(dp0
Vcyjrmrm
p1
I1
sVd0ocwnw
p2
I1
s.(dp0
Vd0p4vte
p1
I1
sVcyjrmrm
p2
I1
s.(dp0
Vcyjrmrm
p1
I1
sVd10frc2
p2
I1
s.(dp0
Vcyjrmrm
p1
I1
sVd16xigq
p2
I1
s.(dp0
Vcyjrmrm
p1
I1
sVd16xigq
p2
I1
s.(dp0
Vd17gjh0
p1
I1
sVcyjrmrm
p2
I1
s.(dp0
Vcyjrmrm
p1
I1
sVd1crgi8
p2
I1
s.(dp0
Vcyjrmrm
p1
I1
sVd1dpd8y
p2
I1
s.(dp0
Vd1hvz0t
p1
I1
sVcyjrmrm
p2
I1
s.(dp0
Vcyjrmrm
p1
I1
sVd1junjv
p2
I1
s.(dp0
Vcyjrmrm
p1
I1
sVd1tkqi8
p2
I1
s.(dp0
Vcyjrmrm
p1
I1
sVd21kfw3
p2
I1
s.(dp0
Vcyjrmrm
p1
I1
sVd226543
p2
I1
s.(dp0
Vcyjrmrm
p1
I1
sVd274gj0
p2
I1
s.(dp0
Vd29f9y8
p1
I1
sVcyjrmrm
p2
I1
s.(dp0
Vcyjrmrm
p1
I1
sVd2ag2y0
p2
I1
s.(dp0
Vd2onsy4
p1
I1
sVcyjrmrm
p2
I1
s.(dp0
Vcyjrmrm
p1
I1
sVd2ztlty
p2
I1
s.(dp0
Vcyjrmrm
p1
I1
sVd35ab2a
p2
I1
s.(dp0
Vcyjrmrm
p1
I1
sVd3fn9hi
p2
I1
s.(dp0
Vcyjrmrm
p1
I1
sVd3j555f
p2
I1
s.(dp0
Vcyjrmrm
p1
I1
sVd3mtrkv
p2
I1
s.(dp0
Vcyjrmrm
p1
I1
sVd3qamtl
p2
I1
s.(dp0
Vcyjrmrm
p1
I1
sVd3to2ug
p2
I1
s.(dp0
Vd40wheq
p1
I1
sVcyjrmrm
p2
I1
s.(dp0
Vcyjrmrm
p1
I1
sVd43k958
p2
I1
s.(dp0
Vcyjrmrm
p1
I1
sVd4795ox
p2
I1
s.(dp0
Vcyjrmrm
p1
I1
sVd48usn5
p2
I1
s.(dp0
Vcyjrmrm
p1
I1
sVd4g1pdc
p2
I1
s.(dp0
Vcyjrmrm
p1
I1
sVd4kszv4
p2
I1
s.(dp0
Vcyjrmrm
p1
I1
sVd4kvg4e
p2
I1
s.(dp0
Vcyjrmrm
p1
I1
sVd4kvre8
p2
I1
s.(dp0
Vcyjrmrm
p1
I1
sVd4kvre8
p2
I1
s.(dp0
Vcyjrmrm
p1
I1
sVd4kyj07
p2
I1
s.(dp0
Vcyjrmrm
p1
I1
sVd4kyj07
p2
I1
s.(dp0
Vcyjrmrm
p1
I1
sVd4kzx1v
p2
I1
s.(dp0
Vcyjrmrm
p1
I1
sVd4l05kr
p2
I1
s.(dp0
Vcyjrmrm
p1
I1
sVd4l1fqb
p2
I1
s.(dp0
Vcyjrmrm
p1
I1
sVd4l2iyt
p2
I1
s.(dp0
Vcyjrmrm
p1
I1
sVd4l2iyt
p2
I1
s.(dp0
Vcyjrmrm
p1
I1
sVd4l2nox
p2
I1
s.(dp0
Vcyjrmrm
p1
I1
sVd4l4i1s
p2
I1
s.(dp0
Vcyjrmrm
p1
I1
sVd4yvvr7
p2
I1
s.(dp0
Vcyjrmrm
p1
I1
sVd53r373
p2
I1
s.(dp0
Vcy(dp0
Vcyjrmrm
p1
I1
sVdskz8p5
p2
I1
s.