(dp0
Vcypkh0h
p1
I1
s.(dp0
Vcypkh0h
p1
I2
s.(dp0
Vcz8ty9f
p1
I1
sVcypkh0h
p2
I1
s.(dp0
Vd45xs9z
p1
I1
sVcypkh0h
p2
I1
s.(dp0
Vd59tsgk
p1
I1
sVcypkh0h
p2
I1
s.(dp0
Vd8try9z
p1
I1
sVcypkh0h
p2
I1
s.(dp0
Vd9refg8
p1
I1
sVcypkh0h
p2
I1
s.(dp0
Vdc9vmxn
p1
I1
sVcypkh0h
p2
I1
s.(dp0
Vdpqwjib
p1
I1
sVcypkh0h
p2
I1
s.