(dp0
Vczylfid
p1
I1
s.(dp0
Vczylfid
p1
I2
s.(dp0
Vczylfid
p1
I2
s.(dp0
Vd0k2d7p
p1
I1
sVczylfid
p2
I1
s.(dp0
Vd0p5j11
p1
I1
sVczylfid
p2
I1
s.(dp0
Vd0p5j11
p1
I1
sVczylfid
p2
I1
s.(dp0
Vd0p5j11
p1
I1
sVczylfid
p2
I1
s.(dp0
Vd332kwy
p1
I1
sVczylfid
p2
I1
s.(dp0
Vd332kwy
p1
I1
sVczylfid
p2
I1
s.(dp0
Vd87c8ov
p1
I1
sVczylfid
p2
I1
s.(dp0
Vdcos3qs
p1
I1
sVczylfid
p2
I1
s.(dp0
Vczylfid
p1
I1
sVdctiasz
p2
I1
s.(dp0
Vdi87sx9
p1
I1
sVczylfid
p2
I1
s.(dp0
Vdi87u9z
p1
I1
sVczylfid
p2
I1
s.(dp0
Vdi87u9z
p1
I1
sVczylfid
p2
I1
s.(dp0
Vczylfid
p1
I1
sVdpv3syo
p2
I1
s.(dp0
Vczylfid
p1
I1
sVdpv3syo
p2
I1
s.