(dp0
Vczh2hvb
p1
I1
sVd7tbxqs
p2
I1
sVd2pxojt
p3
I1
sVdb3uvig
p4
I1
sVdd8ctd7
p5
I1
sVdbpejvi
p6
I1
sVdfnw9b9
p7
I1
sVdnymo2e
p8
I1
sVd25im42
p9
I1
sVd5vnq2b
p10
I1
sVdjra2lk
p11
I2
sVcz0w84q
p12
I1
sVdn5tg6a
p13
I1
sVdi1irqh
p14
I1
sVd2tmv6f
p15
I1
sVd0y6z5p
p16
I1
sVdpu9i59
p17
I1
sVd2ownf4
p18
I1
s.