(dp0
Vda160pw
p1
I1
sVdi41gwb
p2
I1
sVdaolrpm
p3
I1
sVdcxp94u
p4
I1
sVdn4a3go
p5
I1
sVd9cpzle
p6
I2
sVcyp1ouh
p7
I1
sVd3olvvw
p8
I1
sVdeyf08t
p9
I1
sVd8axc56
p10
I1
sVdduej7i
p11
I1
sVd5vpz53
p12
I1
sVd49dp53
p13
I3
sVdb2vipb
p14
I1
s.