(dp0
Vd3owuh9
p1
I1
sVdf1i5lr
p2
I1
sVdj4d3z4
p3
I1
sVczqq3f4
p4
I1
sVdku02y1
p5
I1
sVdaph7go
p6
I1
sVdckds8h
p7
I2
sVd9hhw3a
p8
I1
sVdi0gecq
p9
I1
sVdd4d9j5
p10
I1
sVdke7q7d
p11
I1
sVd517gr0
p12
I1
sVde8yuvz
p13
I1
sVdawaxlx
p14
I1
sVd3d6yr5
p15
I1
sVdawiccy
p16
I1
sVd4habsk
p17
I1
sVda88sjc
p18
I1
sVdcbrvxs
p19
I2
sVczgz0jj
p20
I1
sVdbibx6t
p21
I1
sVdbmxauw
p22
I2
sVdkim2m3
p23
I1
sVdgtjrgo
p24
I1
sVd2kzgzd
p25
I1
sVcyjifcc
p26
I2
sVd1lhvrc
p27
I1
sVd7837y6
p28
I1
sVd1zl7wf
p29
I1
sVcyj4ekn
p30
I2
sVdncwcj2
p31
I1
sVdcm1gmo
p32
I1
sVdbsgp3t
p33
I3
sVddl7jjy
p34
I1
sVd9x8oip
p35
I1
sVcz9yp70
p36
I1
sVdaqgqdu
p37
I1
sVdbjnjnc
p38
I1
sVdi7abzc
p39
I1
sVd1iq9k7
p40
I1
sVdirn78l
p41
I1
sVd4r8tix
p42
I1
sVdfmcgto
p43
I1
sVd5fadif
p44
I1
sVcz6402l
p45
I1
sVdek39l6
p46
I1
sVd3kg9ba
p47
I1
sVcyxd5mj
p48
I1
sVd7dk0q0
p49
I1
sVczeoyui
p50
I2
sVd1o3qi6
p51
I1
sVd7v1ykp
p52
I1
sVdi684po
p53
I3
sVdhmad8s
p54
I1
sVd11yff1
p55
I1
sVd9ics07
p56
I1
sVdd40g14
p57
I1
sVdftm4e5
p58
I1
sVd2uje9i
p59
I1
sVdhl7u9e
p60
I1
sVdq5id5u
p61
I1
sVd2lrbqi
p62
I1
sVdket3sp
p63
I1
sVd9rcu2s
p64
I2
sVdjutddq
p65
I1
sVdqmic25
p66
I1
sVd0o2rcw
p67
I1
sVd9d4l0e
p68
I1
sVcytf214
p69
I1
sVdd04847
p70
I1
sVd5ru5tt
p71
I1
sVdbs438c
p72
I1
sVd89sile
p73
I1
sVdro3azl
p74
I1
sVd95wc21
p75
I1
sVdmo4qqj
p76
I1
sVd5i9omk
p77
I1
sVdfouosn
p78
I1
sVd45qv1p
p79
I1
sVdi6qk2d
p80
I1
sVcypqwva
p81
I1
sVd8qbs0b
p82
I2
sVd191ss5
p83
I1
sVdkqg5xy
p84
I1
sVd7b1035
p85
I1
sVdbifv6u
p86
I1
sVd3wyjue
p87
I1
sVdhxef1d
p88
I1
sVdr21ch8
p89
I1
sVd1v2hpd
p90
I1
sVd9okz6c
p91
I1
sVd91nm0z
p92
I1
sVd4wl7zb
p93
I2
sVcylj13x
p94
I1
sVd76un0d
p95
I1
sVd187swi
p96
I1
sVdjv3bh7
p97
I1
sVda0l7hr
p98
I1
sVd4eubmw
p99
I1
sVd7fnoft
p100
I1
sVdan3ly7
p101
I1
sVdf17h14
p102
I1
sVd6wca12
p103
I1
sVdbd2z27
p104
I1
sVdt5ymdb
p105
I1
sVd04fboe
p106
I2
sVdiae65j
p107
I1
sVczduoo8
p108
I1
sVd7k8yvw
p109
I1
sVdejfkm2
p110
I1
sVdfzw8vq
p111
I1
sVdoeu8gx
p112
I1
sVdc5z0xp
p113
I1
sVdih9311
p114
I1
sVdhor64o
p115
I1
sVdc0x5ih
p116
I2
sVcz20lpm
p117
I1
sVdb8lux3
p118
I1
sVdepo67a
p119
I2
sVdakqp3l
p120
I1
sVdfvtlbz
p121
I1
sVd01yise
p122
I1
sVd3dokrd
p123
I1
sVdnq3ias
p124
I1
sVde5bgok
p125
I2
sVdcwpsg3
p126
I1
sVdk7o3t4
p127
I1
sVd4emoby
p128
I1
sVddx119t
p129
I1
sVd1et8m2
p130
I1
sVda1epng
p131
I1
sVd3i424a
p132
I2
sVdeoif9k
p133
I1
sVdbjpebm
p134
I1
sVd5m0m90
p135
I2
sVcz4jpjk
p136
I1
sVdd5rjot
p137
I1
sVdmvabm0
p138
I1
sVdg03h2u
p139
I1
sVd6s6ayw
p140
I9
sVd16rlpp
p141
I1
sVcykpkt0
p142
I1
sVd2a98yy
p143
I1
sVde6shr5
p144
I1
sVcyu1vzd
p145
I1
sVcypsu7b
p146
I1
sVdpi00nz
p147
I1
sVdjkshdk
p148
I1
sVd3lza0v
p149
I1
sVdb9f1cw
p150
I3
sVd8es9av
p151
I1
sVdq3dxtg
p152
I1
sVdc8yae8
p153
I1
sVczbfxq8
p154
I1
sVdf9aw46
p155
I2
sVdnbj23o
p156
I1
sVd2a82nj
p157
I1
sVd7m6hbl
p158
I1
sVd5zccn5
p159
I2
sVczi279a
p160
I1
sVdggu51k
p161
I1
sVdifcxvn
p162
I1
sVd5u2y7g
p163
I1
sVdj0wtic
p164
I1
sVd1iyddq
p165
I1
sVd8voyev
p166
I1
sVdg6gpod
p167
I1
sVdcrjwm3
p168
I2
sVczt3uh8
p169
I1
sVdde74pd
p170
I1
sVczwj1xl
p171
I1
sVd2x2tmt
p172
I2
sVd6q7ncs
p173
I1
sVdic26cj
p174
I1
sVdjc11np
p175
I1
sVcyss1n9
p176
I1
sVczgpvv5
p177
I1
sVdjz6bws
p178
I1
sVddiw2n1
p179
I1
sVdc53q99
p180
I1
sVd9d46m4
p181
I1
sVcze015b
p182
I1
sVdawqm48
p183
I1
sVdgaxv8c
p184
I1
sVdg28o4t
p185
I1
sVdqzxj9q
p186
I1
sVdrgbwk3
p187
I1
sVdn1gw37
p188
I1
sVd6co03h
p189
I1
sVdcp3mg2
p190
I1
sVd7jqwth
p191
I1
sVd7qqhxy
p192
I1
sVdco6e1n
p193
I1
sVd6qoy60
p194
I1
sVdeba8dt
p195
I1
sVd23t0bq
p196
I1
sVd54uxfy
p197
I1
sVd9pcxqc
p198
I1
sVd4o1js6
p199
I1
sVdg0ymzp
p200
I1
sVcyjewav
p201
I1
sVdiih1d7
p202
I1
sVcyz1zf1
p203
I1
sVdcg60oa
p204
I3
sVdn79s72
p205
I1
sVd04gldl
p206
I1
sVdsstpvo
p207
I1
sVd1z3fe5
p208
I1
sVdc7tn9b
p209
I1
sVd6xloqk
p210
I1
sVd344k5i
p211
I1
sVd8e1i63
p212
I1
sVd5ikj5n
p213
I1
sVd5vqy4x
p214
I1
sVdkm9s1u
p215
I1
sVd5v2mbi
p216
I1
sVdehm85i
p217
I1
sVcyvjdc5
p218
I1
sVd6k39hv
p219
I1
sVdmua1o9
p220
I1
sVczolw7i
p221
I1
sVdffq5cc
p222
I1
sVdfzwukc
p223
I1
sVd8ogvpn
p224
I2
sVdcgufwh
p225
I1
sVczys2sh
p226
I1
sVd1kutzf
p227
I1
sVd78jamh
p228
I1
sVd6607fi
p229
I1
sVdnjbawh
p230
I1
sVdd5jiqv
p231
I1
sVdrmswb2
p232
I1
sVdew1ksa
p233
I1
sVdhjn0i5
p234
I1
sVd0fktqi
p235
I1
sVdmt4a9k
p236
I1
sVczr56w4
p237
I2
sVdggkfrs
p238
I1
sVdmhkk0f
p239
I1
sVd2ssl4q
p240
I1
sVd5ryi5o
p241
I1
sVczlxga3
p242
I1
sVdiy02hx
p243
I1
sVdabavfg
p244
I1
sVd7g4iy6
p245
I3
sVd9kdzty
p246
I1
sVdakgkis
p247
I1
sVdf8p53b
p248
I1
sVdaqfyp4
p249
I1
sVd10pxai
p250
I1
sVdmzs9fi
p251
I1
sVdasagaf
p252
I1
sVdjoqeok
p253
I1
sVd3fuiif
p254
I1
sVcz8dmcr
p255
I2
sVdcmkziy
p256
I1
sVd92914b
p257
I1
sVd9a8mid
p258
I1
sVdde1dbu
p259
I1
sVd817iw0
p260
I1
sVdcwjj2c
p261
I1
sVd00k8yx
p262
I1
sVd3wzhp2
p263
I2
sVde9v6zt
p264
I1
sVd5e5ghx
p265
I1
sVdex6l9a
p266
I1
sVczthbhp
p267
I1
sVdqp07xe
p268
I1
sVd3et0as
p269
I1
sVdbit2xw
p270
I1
sVdbj8s02
p271
I1
sVdk0yiw2
p272
I1
sVdidwwmi
p273
I1
sVcytwvos
p274
I2
sVd3i6e5p
p275
I1
sVdjby3ny
p276
I1
sVdksehit
p277
I2
sVdb1xvvj
p278
I1
sVcyuefuo
p279
I1
sVd08i0se
p280
I1
sVdhi6do1
p281
I1
sVdfi6aeb
p282
I1
sVdki6art
p283
I1
sVdbju0ad
p284
I1
sVd3ppxcu
p285
I2
sVcykczpt
p286
I1
sVddxbgko
p287
I1
sVdkey4pa
p288
I1
sVdgggt10
p289
I1
sVde3427f
p290
I2
sVdedwwxx
p291
I1
sVdf08ckc
p292
I1
sVdc738vl
p293
I1
sVd8zqwq9
p294
I1
sVdaynj85
p295
I1
sVd61oc8o
p296
I1
sVdn4dw27
p297
I1
sVd2u2fwq
p298
I1
sVdq9dq1b
p299
I1
sVd1ybr6v
p300
I1
sVd0i96k6
p301
I1
sVd6g8vld
p302
I1
sVd2sd75t
p303
I1
sVd1e48cx
p304
I1
sVd7x2tsh
p305
I2
sVdcf4mzz
p306
I1
sVddn9rzf
p307
I1
sVd9cvpdl
p308
I1
sVdqc8sj8
p309
I1
sVdimkzgl
p310
I1
sVd0mryru
p311
I1
sVdn4ajfy
p312
I1
sVczgnin4
p313
I1
sVd1kvhyz
p314
I1
sVdft1tv6
p315
I1
sVdcdylos
p316
I1
sVd7wpcgv
p317
I3
sVdjbef40
p318
I1
sVd2j6eih
p319
I1
sVd9zhghq
p320
I1
sVd2301uz
p321
I1
sVd5kfjld
p322
I1
sVderoc66
p323
I1
sVdoy0awj
p324
I1
sVdqn2qls
p325
I1
sVd514fa9
p326
I2
sVdi67zrf
p327
I1
sVds7ufx8
p328
I2
sVd1flknz
p329
I2
sVdoa7ce5
p330
I1
sVdkx5ro3
p331
I1
sVdfr69bt
p332
I1
sVdj4gb98
p333
I1
sVd7mic8h
p334
I1
sVd95q3vf
p335
I1
sVdd1r8fi
p336
I1
sVdpwnvzt
p337
I1
sVd7247u3
p338
I1
sVd0yp97z
p339
I1
sVdgz5q7c
p340
I1
sVddhm0xo
p341
I1
sVdcz868h
p342
I1
sVcywy0bb
p343
I1
sVdfvu9fb
p344
I1
sVdc5mzid
p345
I1
sVdfmhdee
p346
I1
sVdaj3d8k
p347
I1
sVcyhz7tk
p348
I1
sVd3c1q5b
p349
I1
sVdi9cyr8
p350
I1
sVd1x5qz8
p351
I1
sVdc0vg8u
p352
I1
sVdj1it1p
p353
I1
sVdg0c11y
p354
I1
sVd18x45i
p355
I1
sVdnh0q9x
p356
I1
sVcyjvw3u
p357
I1
sVd30o1ts
p358
I1
sVd1k5xmo
p359
I2
sVddc8qz4
p360
I1
sVdgzgk97
p361
I1
sVdnu6lna
p362
I1
sVd9gsfpm
p363
I1
sVd9i9zrh
p364
I1
sVcys55td
p365
I7
sVd7n7jek
p366
I1
sVddn29qq
p367
I1
sVda9ydcg
p368
I1
sVdf1gnbf
p369
I1
sVdmw16m0
p370
I3
sVd4832no
p371
I2
sVds1ua58
p372
I1
sVd22jlfh
p373
I1
sVd595p25
p374
I1
sVdpu3yo4
p375
I1
sVd50g7xo
p376
I1
sVde6p0t9
p377
I1
sVda1cjtd
p378
I1
sVde6069j
p379
I1
sVdeqnah5
p380
I1
sVd7mvci0
p381
I1
sVd930kid
p382
I1
sVd0ctc87
p383
I1
sVd5t5ut2
p384
I1
sVd0zpd5t
p385
I2
sVdh9f9zv
p386
I1
sVcz77j67
p387
I1
sVd9f3yr1
p388
I1
sVczgheml
p389
I1
sVdbcox2d
p390
I1
sVdcht4tv
p391
I1
sVd6f75ac
p392
I1
sVd7xah75
p393
I1
sVdbdg8sx
p394
I1
sVd5d8y9b
p395
I1
sVdav2nz5
p396
I1
sVcz1qh5d
p397
I1
sVde7uc0n
p398
I1
sVd9e0kjn
p399
I1
sVd6nedya
p400
I1
sVd2x5by0
p401
I1
sVd18qrdt
p402
I1
sVdo0g2cv
p403
I1
sVdjclkaz
p404
I1
sVd1jtz8s
p405
I1
sVd43tbmb
p406
I1
sVdii7tfg
p407
I1
sVdov8wc6
p408
I1
sVdd8b0yu
p409
I1
sVda6ex7h
p410
I1
sVd7kyrbw
p411
I1
sVdf63hls
p412
I1
sVd8347me
p413
I1
sVda231aq
p414
I1
sVdqtzxry
p415
I1
sVd2z1ieh
p416
I2
sVd8j3npo
p417
I1
sVd0s9s4e
p418
I1
sVcyq1sgm
p419
I1
sVdb4747y
p420
I1
sVdk1ddb0
p421
I1
sVday4gk4
p422
I1
sVdg86n9o
p423
I1
sVdcmg32r
p424
I1
sVddd6njq
p425
I1
sVdazt5h1
p426
I1
sVd16x9vn
p427
I2
sVdqco23t
p428
I2
sVcz2bely
p429
I1
sVdp6ciay
p430
I1
sVdoggy7j
p431
I1
sVd05vvr7
p432
I1
sVczi9gxo
p433
I2
sVd9yhf2h
p434
I1
sVd3fu4er
p435
I1
sVcypp0si
p436
I1
sVdknz402
p437
I2
sVd0koagx
p438
I1
sVdpppkml
p439
I1
sVdcjx5r6
p440
I1
sVddevsn8
p441
I2
sVdkbgf1f
p442
I1
sVdh2rxid
p443
I1
sVd2asfdi
p444
I1
sVd30sd7y
p445
I1
sVd9grdhc
p446
I1
sVcyu4p1w
p447
I1
sVdo6gj22
p448
I1
sVcyuehpc
p449
I1
sVd7fc7yq
p450
I2
sVczjp7ul
p451
I1
sVd39cyal
p452
I2
sVczat5i9
p453
I1
sVd2z9clz
p454
I1
sVcyhzimt
p455
I1
sVddrpt3x
p456
I1
sVd7a1bba
p457
I1
sVdprnfq2
p458
I1
sVdg34m7l
p459
I1
sVdgwhuna
p460
I1
sVde0nf74
p461
I1
sVdjvkb4a
p462
I3
sVdk9ql90
p463
I1
sVd5texg8
p464
I1
sVcymvmzl
p465
I1
sVdd3vzer
p466
I1
sVcz56u10
p467
I1
sVdd4pjbe
p468
I1
sVdthpg7w
p469
I1
sVczaz8ld
p470
I1
sVdhk7z7r
p471
I1
sVdeo7gst
p472
I1
sVdewrbhk
p473
I1
sVdad6poh
p474
I1
sVczu5nzy
p475
I1
sVd15v3oq
p476
I1
sVds4eehy
p477
I1
sVdqoy3w7
p478
I1
sVdbem24h
p479
I1
sVdi6ttta
p480
I1
sVdskhi08
p481
I1
sVdienz8e
p482
I1
sVd7z9s4k
p483
I1
sVdcmgxj6
p484
I1
sVd1vynuo
p485
I1
sVd1zoct0
p486
I1
sVddtww36
p487
I1
sVdd2vlo8
p488
I2
sVddwm510
p489
I1
sVdkecilm
p490
I1
sVde34rp0
p491
I2
sVdhwafna
p492
I1
sVd8xv6ec
p493
I1
sVd51k19h
p494
I1
sVde0zf4r
p495
I1
sVdn8j040
p496
I1
sVda0tah5
p497
I3
sVdn6wixq
p498
I1
sVd9cwdf3
p499
I2
sVdhzroic
p500
I1
sVdst68s9
p501
I1
sVcysxagi
p502
I1
sVdjxhd0t
p503
I1
sVd0zb1mg
p504
I1
sVd1d0q74
p505
I1
sVdn8gsba
p506
I1
sVcyu32rj
p507
I1
sVddxa3ym
p508
I2
sVddhqzfc
p509
I1
sVdc5or5i
p510
I1
sVd6u38jm
p511
I1
sVd9vj2l5
p512
I2
sVdgcwcat
p513
I1
sVd534rkm
p514
I1
sVdpjk49y
p515
I1
sVd8lk08p
p516
I1
sVdrj86kn
p517
I1
sVd3azd51
p518
I1
sVd4vif2f
p519
I1
sVdfh8c4n
p520
I2
sVd13nolp
p521
I1
sVdejtele
p522
I1
sVdn2rgnz
p523
I1
sVdhwtb4e
p524
I1
sVdhaudfj
p525
I1
sVdfvl8cu
p526
I1
sVdjxw15d
p527
I1
sVd28vjwo
p528
I1
sVd4wmxcs
p529
I1
sVdi9efb1
p530
I1
sVd22fjrj
p531
I1
sVdps3swv
p532
I1
sVdj6utrz
p533
I1
sVdkeezbi
p534
I1
sVdd1u0yv
p535
I1
sVcyv9c83
p536
I1
sVdglullw
p537
I1
sVdau9c8i
p538
I1
sVczi2ioe
p539
I1
sVd3kidrk
p540
I1
sVd0l095h
p541
I3
sVdeunxqe
p542
I2
sVdgfp16w
p543
I1
sVd1zz4db
p544
I2
sVdn4hgo4
p545
I1
sVd75r0wm
p546
I1
sVd24rl90
p547
I1
sVdben3ka
p548
I1
sVd2ssnhs
p549
I1
sVdc21z0r
p550
I1
sVd9gcg4z
p551
I1
sVdnsnwrl
p552
I1
sVd6k70j3
p553
I1
sVdce92e1
p554
I2
sVde0mrwf
p555
I1
sVd03zjkt
p556
I1
sVdf7zt2x
p557
I1
sVdro48rs
p558
I1
sVd51s1yb
p559
I1
sVdbccr2v
p560
I1
sVd37icax
p561
I1
sVdi7mlz9
p562
I1
sVd3mslh8
p563
I1
sVdieau3t
p564
I1
sVd6b9bko
p565
I1
sVd9ccj8v
p566
I1
sVd3k0nvd
p567
I1
sVd797fnp
p568
I1
sVdiwye3n
p569
I1
sVd8f8elr
p570
I1
sVdii75i2
p571
I1
sVdfu5g4s
p572
I1
sVczwexb4
p573
I1
sVd1j2w3s
p574
I1
sVcytp44s
p575
I1
sVd07wya6
p576
I1
sVcyp9fyw
p577
I1
sVd38s4wi
p578
I1
sVdcyjbnc
p579
I1
sVdby6djd
p580
I1
sVcyihhu6
p581
I1
sVdjpwlsn
p582
I1
sVd1r3rqx
p583
I2
sVd7hqb5c
p584
I1
sVdoq57ob
p585
I1
sVd1n701i
p586
I1
sVd84be68
p587
I1
sVd117m9f
p588
I1
sVd18rgyc
p589
I1
sVd1oocpt
p590
I1
sVd276ck0
p591
I1
sVdk034nj
p592
I1
sVd51hrob
p593
I1
sVdd8yb6i
p594
I2
sVdqfv2ih
p595
I1
sVdepnrvq
p596
I1
sVd4wmjxh
p597
I1
sVddxfnyr
p598
I1
sVdaoog9o
p599
I1
sVdbdi9r7
p600
I1
sVdd4g447
p601
I1
sVdkbu42f
p602
I1
sVd9ya6ws
p603
I2
sVdf2mpxm
p604
I1
sVd22x1ar
p605
I1
sVd2lu80v
p606
I1
sVdiaplke
p607
I1
sVdbn6pw1
p608
I1
sVdae3m58
p609
I2
sVd3c85wa
p610
I1
sVd0yr2j1
p611
I1
sVdf5l37s
p612
I1
sVd2tecap
p613
I2
sVdgbja44
p614
I2
sVdh0yxst
p615
I1
sVcyw03qw
p616
I1
sVdsfcnox
p617
I1
sVd64u4oy
p618
I1
sVdac9htt
p619
I3
sVd7wanyp
p620
I1
sVd0zaydf
p621
I3
sVd1bg175
p622
I2
sVdmjihme
p623
I1
sVdqa9plf
p624
I1
sVdavbnpm
p625
I1
sVd8f8pdz
p626
I1
sVdjegshn
p627
I1
sVd4akh7t
p628
I1
sVdpli14n
p629
I1
sVd9al5gq
p630
I1
sVdf89zni
p631
I1
sVd4xpu43
p632
I1
sVd2etu6e
p633
I1
sVd319pl4
p634
I1
sVdc0m8od
p635
I1
sVdkvaglh
p636
I1
sVd1p69pz
p637
I1
sVd52d512
p638
I1
sVd58l62y
p639
I1
sVd0mdot6
p640
I1
sVdcl8s56
p641
I1
sVdg33208
p642
I1
sVdojd5j8
p643
I1
sVdd2eq6i
p644
I1
sVdb3lzr7
p645
I1
sVd211j92
p646
I1
sVdi9nn2k
p647
I1
sVd0t6i5o
p648
I1
sVddcrjjg
p649
I1
sVd48ilgi
p650
I1
sVdfghihf
p651
I1
sVd2xb74s
p652
I1
sVcypq9dt
p653
I1
sVd2bqt1c
p654
I1
sVcz3vzl8
p655
I1
sVcyrqhu5
p656
I1
sVdkbfds7
p657
I1
sVdj1b8qb
p658
I1
sVd3kp6zb
p659
I1
sVd4033vz
p660
I1
sVd0acuyx
p661
I1
sVd5zxlg2
p662
I1
sVd4srmyc
p663
I1
sVd1ny98f
p664
I2
sVdii6faz
p665
I1
sVdkqbz8n
p666
I1
sVdjale6f
p667
I1
sVdarj297
p668
I1
sVd3zz1ce
p669
I1
sVd0fjfpx
p670
I1
sVdswenye
p671
I1
sVdrla01f
p672
I1
sVd157f8b
p673
I1
sVd4wml9r
p674
I1
sVcz8kcln
p675
I1
sVddp3wnu
p676
I1
sVd2irj8e
p677
I1
sVd1lu5n0
p678
I1
sVdgvmdab
p679
I2
sVd4w4dhr
p680
I1
sVczizjrs
p681
I2
sVd0lniip
p682
I1
sVd7uu3zq
p683
I1
sVd0akp9q
p684
I1
sVd8ffgaq
p685
I1
sVd9qnnrx
p686
I1
sVd1hiadh
p687
I1
sVd2o6lxv
p688
I1
sVd559do8
p689
I1
sVd6ik7x3
p690
I1
sVdd8done
p691
I1
sVdd3je0q
p692
I1
sVdacvddx
p693
I1
sVdbuezgf
p694
I1
sVd24hdp0
p695
I1
sVd1waq4w
p696
I1
sVd4m182l
p697
I1
sVdjutpcp
p698
I1
sVd8ta6ov
p699
I1
sVd5vmjye
p700
I1
sVd2xj6cg
p701
I1
sVdhulsxx
p702
I2
sVdsh3nzo
p703
I2
sVd1taq3y
p704
I1
sVdrknabv
p705
I1
sVd49opx4
p706
I1
sVd45cwzf
p707
I1
sVdsfay03
p708
I1
sVdfnefp3
p709
I1
sVdcz0r3a
p710
I1
sVdqhy3g2
p711
I1
sVdds9yv4
p712
I1
sVdrfc1ie
p713
I1
sVdfiljn4
p714
I1
sVdrktqvh
p715
I1
sVdhwhcsg
p716
I1
sVd7z2o3w
p717
I1
sVdb9om39
p718
I2
sVd6bc847
p719
I1
sVdkdgt1y
p720
I1
sVdg8a5yh
p721
I1
sVd5boqki
p722
I2
sVd04jaht
p723
I1
sVd9thfzm
p724
I1
sVdcuhk55
p725
I1
sVd78r73m
p726
I1
sVdpiectv
p727
I1
sVdcj00zc
p728
I1
sVd1epkbo
p729
I1
sVdb27xzv
p730
I1
sVd8o9vwn
p731
I1
sVdj5uzol
p732
I1
sVdfoka3g
p733
I1
sVdhjbt6p
p734
I1
sVd9imrw9
p735
I1
sVdd636ea
p736
I1
sVd5dqzws
p737
I1
sVdf4jiw8
p738
I1
sVdeu2ud6
p739
I1
sVdhpteep
p740
I1
sVd0iegjf
p741
I1
sVd0ellmp
p742
I1
sVddpa7hh
p743
I1
sVcyv58q5
p744
I1
sVd0qrb3r
p745
I1
sVd5fq26g
p746
I1
sVdeh9cdt
p747
I1
sVdihchyd
p748
I1
sVdfngur5
p749
I1
sVczqcs4n
p750
I1
sVd727lmk
p751
I2
sVd3pcvr1
p752
I1
sVcyzwsg3
p753
I1
sVd1pft31
p754
I1
sVdqsyd2c
p755
I2
sVd8u7muc
p756
I1
sVdeim8xc
p757
I1
sVd3e48pc
p758
I1
sVcznc8h0
p759
I1
sVcyptk1l
p760
I1
sVdmrlgbq
p761
I1
sVd318ws5
p762
I1
sVdh0ownr
p763
I1
sVd4bb0oh
p764
I1
sVds9wkcc
p765
I2
sVded104x
p766
I2
sVcywes73
p767
I1
sVdid9da8
p768
I1
sVdk16fmp
p769
I1
sVcytsrms
p770
I1
sVd3uplod
p771
I1
sVdhvzhds
p772
I1
sVd2bx2a2
p773
I1
sVdkq68sv
p774
I1
sVdbt9anb
p775
I1
sVdkcv1tv
p776
I1
sVdf4i1bb
p777
I1
sVd17mjjl
p778
I1
sVd0naqqe
p779
I1
sVdoawljd
p780
I1
sVd3hxuvw
p781
I1
sVdeyuhcd
p782
I1
sVds0n8i3
p783
I2
sVdkntml7
p784
I1
sVd2omh76
p785
I1
sVczrp031
p786
I1
sVd3smr3h
p787
I1
sVdd4tua2
p788
I1
sVd8067le
p789
I2
sVdfj85xl
p790
I1
sVd7enoma
p791
I1
sVdakl8w7
p792
I1
sVddkh442
p793
I1
sVdfbtu10
p794
I1
sVdoe8ddd
p795
I1
sVd7j739u
p796
I1
sVczgdrbi
p797
I1
sVd4v6a23
p798
I1
sVd3su8xd
p799
I1
sVdbhczeh
p800
I1
sVdfvxxx4
p801
I1
sVczv1d2h
p802
I1
sVd35ce6s
p803
I1
sVd2wzmh8
p804
I1
sVd8ckxwb
p805
I1
sVd4pnyv3
p806
I1
sVdf5yxrb
p807
I1
sVd2nwr0h
p808
I1
sVd1n4dfw
p809
I1
sVdf2utkg
p810
I1
sVdcdh05r
p811
I1
sVd704kzw
p812
I2
sVdkmj7is
p813
I1
sVdj7txss
p814
I1
sVdqnh12m
p815
I1
sVdmeyitm
p816
I1
sVdc9kx2n
p817
I2
sVdhcm7wm
p818
I1
sVdhds8go
p819
I1
sVdfwgtj4
p820
I1
sVd3eloii
p821
I2
sVdiqxf65
p822
I1
sVd3rsbc7
p823
I1
sVd62jg2z
p824
I1
sVd12x7bn
p825
I1
sVd7z5dlw
p826
I1
sVcyw43jt
p827
I1
sVddnh3vj
p828
I1
sVd6px8go
p829
I1
sVd3rrlf8
p830
I1
sVd1ptkh6
p831
I1
sVdj1aswf
p832
I1
sVd3elxgr
p833
I1
sVdfgij23
p834
I1
sVdokntr2
p835
I1
sVd9mrjyi
p836
I1
sVcyldfpa
p837
I1
sVdbjzbk9
p838
I1
sVdd3ojqa
p839
I1
sVczbyhab
p840
I1
sVdk7qpeq
p841
I1
sVdef8eld
p842
I1
sVd4fb9ty
p843
I1
sVdiijbcq
p844
I1
sVdcoavcb
p845
I1
sVdepr090
p846
I1
sVdof6e60
p847
I1
sVd2ou0pd
p848
I1
sVdfqldat
p849
I1
sVdcemz3b
p850
I1
sVd26tyrn
p851
I1
sVczlf1o1
p852
I1
sVdcjxd4g
p853
I2
sVdp3zlbn
p854
I1
sVdf2u407
p855
I1
sVdkljewh
p856
I1
sVddwes0w
p857
I1
sVczy5n5s
p858
I1
sVdn3kiaz
p859
I1
sVd39gyma
p860
I1
sVd8o1hz3
p861
I1
sVdj0on74
p862
I1
sVdcjzcrc
p863
I1
sVdf46tae
p864
I1
sVdencvnq
p865
I1
sVdmqleth
p866
I1
sVczbnbj0
p867
I1
sVd1ybb83
p868
I1
sVdh3yjp8
p869
I1
sVddxswyd
p870
I1
sVdndwtro
p871
I1
sVdc64190
p872
I1
sVdd1uicf
p873
I1
sVd3w6nfk
p874
I1
sVd2i3lvf
p875
I1
sVdg2wc7a
p876
I1
sVd6t25d1
p877
I1
sVcywdiwj
p878
I1
sVdd20jrv
p879
I1
sVd3jq3ge
p880
I1
sVd6lnra0
p881
I1
sVcyib9ia
p882
I1
sVdbn8wtt
p883
I1
sVddcuwn4
p884
I1
sVd149bpz
p885
I1
sVdt0g0vy
p886
I1
sVd31t3l9
p887
I2
sVdhw8zas
p888
I1
sVd62twa8
p889
I1
sVd1jcobb
p890
I1
sVd3dzkf8
p891
I1
sVd3dzzvv
p892
I1
sVd0naok9
p893
I2
sVd0kz4eo
p894
I1
sVd5txw6f
p895
I1
sVdgwbkfn
p896
I1
sVd2aqeba
p897
I2
sVd1vqcou
p898
I2
sVd1gwsvn
p899
I1
sVdo1t9xo
p900
I1
sVdqirkfp
p901
I1
sVdrjl25i
p902
I1
sVczwxbpl
p903
I1
sVdh8q3fg
p904
I1
sVde0izcy
p905
I1
sVdav85hx
p906
I3
sVd0cjx26
p907
I1
sVddiuxej
p908
I1
sVdik0qav
p909
I1
sVdhr4bb5
p910
I1
sVd5x7tut
p911
I1
sVd5nijcy
p912
I2
sVdn8ngdx
p913
I4
sVd6szvea
p914
I1
sVdedbq2p
p915
I1
sVdex6ufw
p916
I1
sVdckwjxe
p917
I1
sVczzk4sf
p918
I1
sVdam02tc
p919
I1
sVd2swehw
p920
I1
sVdb5ndu3
p921
I1
sVdcxsx7p
p922
I1
sVd348vzd
p923
I1
sVdbo7ee6
p924
I1
sVczgt2m0
p925
I1
sVda6lhsz
p926
I1
sVd7748el
p927
I1
sVdqwn1zf
p928
I1
sVdk73brj
p929
I2
sVdkiqdk2
p930
I1
sVd19su9k
p931
I1
sVdjg2jn5
p932
I1
sVd8aoqqd
p933
I1
sVd4dfo17
p934
I1
sVcytossa
p935
I1
sVd6j5yry
p936
I1
sVdf26wph
p937
I1
sVdf1ybd9
p938
I1
sVczu9uwh
p939
I1
sVddmt5pc
p940
I1
sVdskbhzc
p941
I2
sVd23lyou
p942
I2
sVczia4es
p943
I1
sVd4nt6ng
p944
I1
sVdgyt5pw
p945
I1
sVd72voer
p946
I2
sVd4fgdkp
p947
I1
sVd9cr7du
p948
I1
sVd72912c
p949
I1
sVdcg9hxr
p950
I2
sVdd6zhp5
p951
I1
sVd309gda
p952
I1
sVd5h27hv
p953
I1
s.