(dp0
Vczeoe8w
p1
I1
s.(dp0
Vczeoe8w
p1
I1
sVd0rc49v
p2
I1
s.(dp0
Vczeoe8w
p1
I1
sVd14z86f
p2
I1
s.(dp0
Vczeoe8w
p1
I1
sVd16z2qo
p2
I1
s.(dp0
Vczeoe8w
p1
I1
sVd1c8q36
p2
I1
s.(dp0
Vd25tmbc
p1
I1
sVczeoe8w
p2
I1
s.(dp0
Vd3wrk5n
p1
I1
sVczeoe8w
p2
I1
s.(dp0
Vd45vk6m
p1
I1
sVczeoe8w
p2
I1
s.(dp0
Vd49elbg
p1
I1
sVczeoe8w
p2
I1
s.(dp0
Vd4mofw2
p1
I1
sVczeoe8w
p2
I1
s.(dp0
Vd5znybv
p1
I1
sVczeoe8w
p2
I1
s.(dp0
Vd866zgh
p1
I1
sVczeoe8w
p2
I1
s.(dp0
Vdamnp2e
p1
I1
sVczeoe8w
p2
I1
s.(dp0
Vddj7ejt
p1
I1
sVczeoe8w
p2
I1
s.(dp0
Vczeoe8w
p1
I1
sVddreq0z
p2
I1
s.(dp0
Vczeoe8w
p1
I1
sVde6wola
p2
I1
s.(dp0
Vczeoe8w
p1
I1
sVde6wola
p2
I1
s.(dp0
Vdgtr2ej
p1
I1
sVczeoe8w
p2
I1
s.(dp0
Vczeoe8w
p1
I1
sVdhizfot
p2
I1
s.(dp0
Vdkqkpjq
p1
I1
sVczeoe8w
p2
I1
s.