(dp0
Vcykdaw3
p1
I1
s.(dp0
Vcykdaw3
p1
I1
sVcyybgfw
p2
I1
s.(dp0
Vcyz3lx5
p1
I1
sVcykdaw3
p2
I1
s.(dp0
Vcz0ki99
p1
I1
sVcykdaw3
p2
I1
s.(dp0
Vczmren4
p1
I1
sVcykdaw3
p2
I1
s.(dp0
Vcykdaw3
p1
I1
sVcznw78u
p2
I1
s.(dp0
Vcykdaw3
p1
I1
sVczoast5
p2
I1
s.(dp0
Vcykdaw3
p1
I1
sVczoast5
p2
I1
s.(dp0
Vcykdaw3
p1
I1
sVczornf4
p2
I1
s.(dp0
Vd08nrha
p1
I1
sVcykdaw3
p2
I1
s.(dp0
Vcykdaw3
p1
I1
sVd0l1zgv
p2
I1
s.(dp0
Vd1c8vwl
p1
I1
sVcykdaw3
p2
I1
s.(dp0
Vcykdaw3
p1
I1
sVd1vntsl
p2
I1
s.(dp0
Vd2inmq5
p1
I1
sVcykdaw3
p2
I1
s.(dp0
Vd3ad7jz
p1
I1
sVcykdaw3
p2
I1
s.(dp0
Vd3mwt99
p1
I1
sVcykdaw3
p2
I1
s.(dp0
Vcykdaw3
p1
I1
sVd3pgp5l
p2
I1
s.(dp0
Vcykdaw3
p1
I1
sVd3pgp5l
p2
I1
s.(dp0
Vcykdaw3
p1
I1
sVd4nco5c
p2
I1
s.(dp0
Vd4p6cbn
p1
I1
sVcykdaw3
p2
I1
s.(dp0
Vd4xcl9t
p1
I1
sVcykdaw3
p2
I1
s.(dp0
Vcykdaw3
p1
I1
sVd524x8n
p2
I1
s.(dp0
Vd5ptb9d
p1
I1
sVcykdaw3
p2
I1
s.(dp0
Vd5ptb9d
p1
I1
sVcykdaw3
p2
I1
s.(dp0
Vd5pwifs
p1
I1
sVcykdaw3
p2
I1
s.(dp0
Vcykdaw3
p1
I1
sVd675jgf
p2
I1
s.(dp0
Vcykdaw3
p1
I1
sVd6h0pma
p2
I1
s.(dp0
Vd6hb65p
p1
I1
sVcykdaw3
p2
I1
s.(dp0
Vcykdaw3
p1
I1
sVd6iicmc
p2
I1
s.(dp0
Vcykdaw3
p1
I1
sVd78sky9
p2
I1
s.(dp0
Vd7cf4yb
p1
I1
sVcykdaw3
p2
I1
s.(dp0
Vd7e0j1u
p1
I1
sVcykdaw3
p2
I1
s.(dp0
Vd7m1o5p
p1
I1
sVcykdaw3
p2
I1
s.(dp0
Vcykdaw3
p1
I1
sVd7ts91i
p2
I1
s.(dp0
Vd7zcjir
p1
I1
sVcykdaw3
p2
I1
s.(dp0
Vcykdaw3
p1
I1
sVd861s3z
p2
I1
s.(dp0
Vd864276
p1
I1
sVcykdaw3
p2
I1
s.(dp0
Vcykdaw3
p1
I1
sVd8i52ho
p2
I1
s.(dp0
Vcykdaw3
p1
I1
sVd9151fd
p2
I1
s.(dp0
Vd93i8jk
p1
I1
sVcykdaw3
p2
I1
s.(dp0
Vd9ywwg8
p1
I1
sVcykdaw3
p2
I1
s.(dp0
Vda10fct
p1
I1
sVcykdaw3
p2
I1
s.(dp0
Vda3cz3o
p1
I1
sVcykdaw3
p2
I1
s.(dp0
Vdb5zr4v
p1
I1
sVcykdaw3
p2
I1
s.(dp0
Vdb6ong8
p1
I1
sVcykdaw3
p2
I1
s.(dp0
Vcykdaw3
p1
I1
sVdba2jo8
p2
I1
s.(dp0
Vcykdaw3
p1
I1
sVdbhlxcr
p2
I1
s.(dp0
Vcykdaw3
p1
I1
sVdc4e5ym
p2
I1
s.(dp0
Vdclijcr
p1
I1
sVcykdaw3
p2
I1
s.(dp0
Vcykdaw3
p1
I1
sVdcuspif
p2
I1
s.(dp0
Vcykdaw3
p1
I1
sVddhxxik
p2
I1
s.(dp0
Vddjnf2u
p1
I1
sVcykdaw3
p2
I1
s.(dp0
Vddkpm25
p1
I1
sVcykdaw3
p2
I1
s.(dp0
Vcykdaw3
p1
I1
sVddoyyq9
p2
I1
s.(dp0
Vcykdaw3
p1
I1
sVde9qls1
p2
I1
s.(dp0
Vdeijhpa
p1
I1
sVcykdaw3
p2
I1
s.(dp0
Vdeijhpa
p1
I1
sVcykdaw3
p2
I1
s.(dp0
Vcykdaw3
p1
I1
sVderdc2y
p2
I1
s.(dp0
Vderejh5
p1
I1
sVcykdaw3
p2
I1
s.(dp0
Vdf8lcn9
p1
I1
sVcykdaw3
p2
I1
s.(dp0
Vcykdaw3
p1
I1
sVdfgkegz
p2
I1
s.(dp0
Vcykdaw3
p1
I1
sVdfoyujy
p2
I1
s.(dp0
Vcykdaw3
p1
I1
sVdgbe6zt
p2
I1
s.(dp0
Vcykdaw3
p1
I1
sVdgbe6zt
p2
I1
s.(dp0
Vdgdqcjv
p1
I1
sVcykdaw3
p2
I1
s.(dp0
Vcykdaw3
p1
I1
sVdglkxr2
p2
I1
s.(dp0
Vdh5j5tw
p1
I1
sVcykdaw3
p2
I1
s.(dp0
Vcykdaw3
p1
I1
sVdhjuohx
p2
I1
s.(dp0
Vdhl2ccs
p1
I1
sVcykdaw3
p2
I1
s.(dp0
Vcykdaw3
p1
I1
sVdhwk0i2
p2
I1
s.(dp0
Vcykdaw3
p1
I1
sVdieut6j
p2
I1
s.(dp0
Vcykdaw3
p1
I1
sVdieut6j
p2
I1
s.(dp0
Vcykdaw3
p1
I1
sVdieut6j
p2
I1
s.(dp0
Vdilxifu
p1
I1
sVcykdaw3
p2
I1
s.(dp0
Vcykdaw3
p1
I1
sVdisq7vz
p2
I1
s.(dp0
Vcykdaw3
p1
I1
sVdiy1zq3
p2
I1
s.(dp0
Vcykdaw3
p1
I1
sVdj740pp
p2
I1
s.(dp0
Vdjhhtos
p1
I1
sVcykdaw3
p2
I1
s.(dp0
Vcykdaw3
p1
I1
sVdjom4nx
p2
I1
s.(dp0
Vcykdaw3
p1
I1
sVdjz2cp4
p2
I1
s.(dp0
Vcykdaw3
p1
I1
sVdjze1wd
p2
I1
s.(dp0
Vcykdaw3
p1
I1
sVdjze1wd
p2
I1
s.(dp0
Vcykdaw3
p1
I1
sVdk0lsea
p2
I1
s.(dp0
Vcykdaw3
p1
I1
sVdk7ophc
p2
I1
s.(dp0
Vcykdaw3
p1
I1
sVdmyyzyt
p2
I1
s.(dp0
Vcykdaw3
p1
I1
sVdn0jw4a
p2
I1
s.(dp0
Vcykdaw3
p1
I1
sVdn0jw4a
p2
I1
s.(dp0
Vdn6virg
p1
I1
sVcykdaw3
p2
I1
s.(dp0
Vcykdaw3
p1
I1
sVdnc7rei
p2
I1
s.(dp0
Vdph5j3n
p1
I1
sVcykdaw3
p2
I1
s.(dp0
Vdphffu9
p1
I1
sVcykdaw3
p2
I1
s.(dp0
Vcykdaw3
p1
I1
sVdpjeou0
p2
I1
s.(dp0
Vcykdaw3
p1
I1
sVdpwco8y
p2
I1
s.(dp0
Vdqddbw7
p1
I1
sVcykdaw3
p2
I1
s.(dp0
Vdqh5xep
p1
I1
sVcykdaw3
p2
I1
s.(dp0
Vdqp3msm
p1
I1
sVcykdaw3
p2
I1
s.(dp0
Vdqw6oi7
p1
I1
sVcykdaw3
p2
I1
s.(dp0
Vcykdaw3
p1
I1
sVdr3soq5
p2
I1
s.(dp0
Vdr5u0yt
p1
I1
sVcykdaw3
p2
I1
s.(dp0
Vcykdaw3
p1
I1
sVdrwgpzw
p2
I1
s.(dp0
Vcykdaw3
p1
I1
sVdsc98r0
p2
I1
s.(dp0
Vdsd086j
p1
I1
sVcykdaw3
p2
I1
s.(dp0
Vdsd086j
p1
I1
sVcykdaw3
p2
I1
s.(dp0
Vdsfkh7i
p1
I1
sVcykdaw3
p2
I1
s.(dp0
Vcykdaw3
p1
I1
sVdswuu8f
p2
I1
s.(dp0
Vcykdaw3
p1
I1
sVdt56gq6
p2
I1
s.