(dp0
Vdex6gdx
p1
I1
sVdg23fif
p2
I1
sVd1oh637
p3
I1
sVdnedpxg
p4
I1
sVd7m26lk
p5
I1
sVd0lmuzv
p6
I1
sVdf1x1ui
p7
I1
sVcz64h5c
p8
I1
sVd6wzcxn
p9
I1
sVdemsfqn
p10
I1
sVd7do145
p11
I1
sVd4hlkwp
p12
I1
sVd9pzq9s
p13
I1
sVdnnyze0
p14
I1
sVdbw723v
p15
I1
sVdgsl47s
p16
I1
s.