(dp0
Vczequd9
p1
I1
sVdfrtalz
p2
I1
sVczpc031
p3
I2
sVd16q1kt
p4
I1
sVdfxqtxe
p5
I1
sVdivdump
p6
I1
sVdeldlhq
p7
I1
sVd4bfxqy
p8
I1
sVcynt59j
p9
I2
sVdjxnxkx
p10
I1
sVd3a5n2q
p11
I1
sVczwgfsz
p12
I1
sVdach59c
p13
I1
sVdowc5rl
p14
I1
sVda3ocgu
p15
I1
sVd0qhrl2
p16
I1
sVdhopyzv
p17
I1
sVdfqgck5
p18
I1
sVd0n8abl
p19
I2
sVd2edkqx
p20
I1
sVds0s1y0
p21
I1
sVd0arxh6
p22
I1
sVdcmzaft
p23
I1
sVdso2cyn
p24
I1
sVd4h4ot6
p25
I1
sVd1zudki
p26
I1
sVdfvqpol
p27
I1
sVczn8jx1
p28
I1
sVd83g8l4
p29
I2
sVdtbrthe
p30
I1
sVd1o35lz
p31
I1
sVd1wlel9
p32
I1
sVd7pa5ib
p33
I1
sVdbgzt05
p34
I1
sVd7bkly8
p35
I1
sVd2ih6kp
p36
I1
sVdropmps
p37
I1
sVddk1rzm
p38
I1
sVd3xigu1
p39
I1
sVd9nflm1
p40
I1
sVd0a4bzs
p41
I1
sVdhf5dk9
p42
I1
sVd0h828z
p43
I1
sVdhaybae
p44
I1
sVdem0lk4
p45
I1
sVd00djbx
p46
I1
sVddmb8ez
p47
I1
sVdjnkra1
p48
I1
sVd82a47l
p49
I1
sVdav1zp6
p50
I1
sVd6ekq8p
p51
I1
sVdk6ap7a
p52
I1
sVdd8lgws
p53
I1
sVdnwrphg
p54
I1
sVday7std
p55
I1
sVcz46irm
p56
I1
sVdejfkm2
p57
I2
sVd0auqd0
p58
I1
sVd5arjpg
p59
I1
sVdomxpzr
p60
I1
sVd8urobn
p61
I1
sVdedd7ik
p62
I1
sVcyl67om
p63
I1
sVd37cv1q
p64
I1
sVdfxgufn
p65
I1
sVd4ax0y9
p66
I1
sVd8nu6ir
p67
I2
sVd55dtme
p68
I2
sVd1qz3bc
p69
I1
sVdmfc2hh
p70
I1
sVczksa4i
p71
I1
sVd0zsl65
p72
I1
sVdbesqw8
p73
I1
sVczka9be
p74
I1
sVdjtdwns
p75
I1
sVd21c4vn
p76
I1
sVd2n3q60
p77
I1
sVd6qfuwc
p78
I1
sVdkyg808
p79
I1
sVd5mi0yq
p80
I1
sVcyszqga
p81
I1
sVdcu8k4t
p82
I2
sVdfnht30
p83
I1
sVdq9ikzw
p84
I1
sVd3qmnpm
p85
I1
sVd7xn574
p86
I1
sVdrnpy4y
p87
I1
sVd3g3bxb
p88
I2
sVczsqd6t
p89
I1
sVdj9h966
p90
I1
sVdsxr4co
p91
I1
sVdr9wl8g
p92
I1
sVddpmot3
p93
I1
sVd7st8p7
p94
I1
sVcyngryg
p95
I1
sVd1epys8
p96
I1
sVdjf5dg1
p97
I1
sVdofy55y
p98
I1
sVdkcvf1c
p99
I1
sVdgiepwx
p100
I1
sVdjq7929
p101
I1
sVddktme0
p102
I1
sVcyin4az
p103
I1
sVd1thf49
p104
I1
sVdpvcv28
p105
I1
sVd2698ht
p106
I1
sVd4j1596
p107
I1
sVddrjvc0
p108
I1
sVd7g7uyp
p109
I1
sVd1yfa38
p110
I1
sVd3lwbfi
p111
I1
sVczaoqac
p112
I1
sVd1d88ld
p113
I1
sVdmv2qy7
p114
I1
sVd83w46h
p115
I1
sVcywz45u
p116
I1
sVdq3kh12
p117
I1
sVdpixqpy
p118
I1
sVdj8086u
p119
I1
sVd94jxf4
p120
I2
sVd1k30m9
p121
I1
sVddwiqfo
p122
I1
sVdajtbns
p123
I1
sVds7so24
p124
I3
sVdgvrs4t
p125
I1
sVd1tqmd2
p126
I1
sVcyi2odj
p127
I1
sVd0w4rdq
p128
I1
sVdh6ginw
p129
I1
sVdgm5yvc
p130
I1
sVd0vav22
p131
I1
sVd2i5mg6
p132
I1
sVdahqwv3
p133
I1
sVd1segbo
p134
I1
sVdrg9z2q
p135
I1
sVczj57x6
p136
I1
sVderigst
p137
I1
sVdhqbnvr
p138
I1
sVczeao1a
p139
I1
sVd5p4g7l
p140
I1
sVd9kn2mm
p141
I1
sVdb9gkt8
p142
I1
sVd0941kj
p143
I1
sVd6jmm2y
p144
I2
sVdmsgium
p145
I1
sVd2lecme
p146
I1
sVdmm2ksw
p147
I1
sVd0oo0c0
p148
I1
sVdhdji0b
p149
I1
sVd7v93t0
p150
I1
sVdihoy85
p151
I1
sVdenhyyk
p152
I1
sVddntmy7
p153
I1
sVdj6rmm2
p154
I1
sVdkq37ah
p155
I1
sVd8j64mk
p156
I1
sVdfq7gv4
p157
I1
sVd14xmut
p158
I1
sVdb6ii55
p159
I1
sVdmhqb0u
p160
I2
sVdg7g3ni
p161
I1
sVd6boa25
p162
I1
sVdgkkkyn
p163
I1
sVd87kv3n
p164
I1
sVdprswtp
p165
I1
sVcyj0ast
p166
I1
sVdqevfj9
p167
I1
sVdsewpja
p168
I1
sVd7n786c
p169
I1
sVd691jlb
p170
I1
sVddc2axv
p171
I1
sVdpjqnpc
p172
I1
sVd5w5k9p
p173
I1
sVdner75k
p174
I1
sVdpxi8x4
p175
I1
sVd5jp6gf
p176
I1
sVcz1ufs3
p177
I2
sVdjjhky0
p178
I1
sVdo6zpx5
p179
I1
sVdonjdze
p180
I1
sVd23o82j
p181
I1
sVd7s057h
p182
I1
sVd0dvc9y
p183
I1
sVd1q0qc0
p184
I1
sVdrwokpw
p185
I1
sVdprb3jk
p186
I1
sVdg4sjqf
p187
I1
sVdi9ce1g
p188
I1
sVdbzp6a6
p189
I1
sVdafuoof
p190
I1
sVdg8esvj
p191
I1
sVd64gp9n
p192
I2
sVdkv93co
p193
I1
sVdhpx950
p194
I1
sVds99ubj
p195
I1
sVdd5f1cc
p196
I1
sVdd7pxvw
p197
I2
sVcz6mja9
p198
I1
sVd1djdqz
p199
I1
sVdti6523
p200
I1
sVcz29yfm
p201
I1
sVdnspql5
p202
I1
sVdip0zhe
p203
I1
sVd27a5fb
p204
I1
sVdfwz664
p205
I1
sVdd6zovu
p206
I1
sVdiwe2fu
p207
I2
sVdds0g94
p208
I1
sVdejqmjy
p209
I1
sVd2d33ng
p210
I1
sVd8gfict
p211
I1
sVdo3fydu
p212
I1
sVdg330ay
p213
I1
sVdjzm7hz
p214
I2
sVdnwljkp
p215
I1
sVdbx000u
p216
I1
sVderrbmd
p217
I1
sVd1p4w3y
p218
I1
sVd4evzeh
p219
I1
sVd2w9qza
p220
I1
sVdplgg4m
p221
I1
sVdmneghx
p222
I1
sVdcbb74h
p223
I1
sVdaou6h5
p224
I1
sVd80an3e
p225
I1
sVd3urke3
p226
I1
sVdborib1
p227
I1
sVdaoosv7
p228
I1
sVd3hb6vw
p229
I1
sVd478e8f
p230
I1
sVd0srxiu
p231
I1
sVd081jyt
p232
I1
sVd9apd25
p233
I1
sVdevl0u2
p234
I1
sVcz4euq4
p235
I1
sVd9zp1q6
p236
I1
sVd2qxbb8
p237
I1
sVd482ztr
p238
I1
sVcyqpqwr
p239
I1
sVd20o5vr
p240
I1
sVdq3xsb0
p241
I1
sVd0uqlgg
p242
I1
sVd0jx4lw
p243
I1
sVd1lidvr
p244
I1
sVdr9p8vv
p245
I1
sVdmozpk3
p246
I1
sVcznrknd
p247
I3
sVdnekc0n
p248
I1
sVd0a49h1
p249
I1
sVd8zloh9
p250
I1
sVdos4lb5
p251
I1
sVde36m34
p252
I1
sVd4l5fav
p253
I1
sVd7z295v
p254
I1
sVdag3yto
p255
I1
sVd00e55l
p256
I2
sVdpcnll1
p257
I1
sVd0dsyl4
p258
I2
sVd71apqx
p259
I1
sVdtapyd3
p260
I1
sVd56ag3f
p261
I1
sVdq4wg46
p262
I1
sVdc7ys0m
p263
I1
sVd8t5wpm
p264
I1
sVcyp1nwy
p265
I1
sVczmx646
p266
I1
sVdejzqb7
p267
I1
sVd7wpat2
p268
I1
sVd0sbdq6
p269
I1
sVd7aha9m
p270
I1
sVdeh1cjz
p271
I1
sVdddk1mr
p272
I1
sVde63qg1
p273
I1
sVdefly62
p274
I1
sVd0745cn
p275
I2
sVdbc7mmn
p276
I3
sVdk0lg9r
p277
I1
sVd0frcsp
p278
I1
sVdhmzb9y
p279
I2
sVdrpy84b
p280
I1
sVd15eecq
p281
I1
sVczmb5kr
p282
I1
sVdjs5ak3
p283
I1
sVdp3qaf6
p284
I1
sVd739cvw
p285
I1
sVcz2z7fb
p286
I1
sVdkpqho0
p287
I1
sVd3o2fd7
p288
I1
sVdcqcqak
p289
I2
sVdihegha
p290
I2
sVd6nhbs9
p291
I1
sVd6qpf4e
p292
I1
sVdctx573
p293
I1
sVd2x227c
p294
I3
sVd83r5m9
p295
I2
sVcz4vka8
p296
I2
sVdik1g4n
p297
I3
sVdhtxw25
p298
I1
sVczozwtv
p299
I1
sVdhows4e
p300
I1
sVd4fm5b1
p301
I1
sVd6x2c68
p302
I1
sVczwxp1z
p303
I1
sVd48w02f
p304
I1
sVd6sh6he
p305
I1
sVdkqtoz0
p306
I1
sVd964b0k
p307
I1
sVdnxe0eq
p308
I1
sVdibaz7h
p309
I1
sVd718e5r
p310
I1
sVd1gbayw
p311
I1
sVd4a4q9j
p312
I2
sVdf56xxa
p313
I1
sVdql3ydb
p314
I1
sVd4wl3k6
p315
I2
sVd5r1ws1
p316
I1
sVdkebysb
p317
I1
sVddpzkta
p318
I1
sVd8c072a
p319
I1
sVd1j48rf
p320
I1
sVdse0g0g
p321
I1
sVd3r96sl
p322
I1
sVdfushqw
p323
I1
sVd867rri
p324
I1
sVd9f813p
p325
I1
sVd9z40xo
p326
I1
sVdtgx8k9
p327
I1
sVd12upsv
p328
I1
sVdfr7ru4
p329
I1
sVdhmsl93
p330
I1
sVdkfei99
p331
I1
sVdjuc1u6
p332
I1
sVdoxdk7h
p333
I1
sVdqykklf
p334
I2
sVdicu6qj
p335
I1
sVd9h98ok
p336
I1
sVdp6ubud
p337
I1
sVdj6ijb1
p338
I1
sVd5xbszk
p339
I1
sVd5viq9t
p340
I1
sVd3jgtey
p341
I1
sVd0pulqc
p342
I1
sVdejzq1v
p343
I1
sVdde0bsk
p344
I1
sVd0g5ync
p345
I1
sVd7vn2wm
p346
I1
sVd0xvbqs
p347
I1
sVdi5jgmw
p348
I1
sVdfgvjtv
p349
I1
sVd13ort1
p350
I2
sVd73bol2
p351
I1
sVczs9tlq
p352
I1
sVd3e7zot
p353
I1
sVda0re5f
p354
I1
sVddn9w9d
p355
I1
sVdgc8z9j
p356
I1
sVd23uq0c
p357
I1
sVd264i87
p358
I1
sVd8hkojq
p359
I1
sVdmve4q1
p360
I1
sVdmib24r
p361
I1
sVd740c50
p362
I1
sVdn8qbs5
p363
I1
sVd0qrbz5
p364
I1
sVd9kq3cz
p365
I1
sVdohmmyb
p366
I1
sVdesdgh0
p367
I2
sVd22yhmf
p368
I1
sVd9yuzv0
p369
I1
sVd8he14a
p370
I1
sVdjtpklw
p371
I1
sVdgusd05
p372
I1
sVd7f5a16
p373
I1
sVdaxn98v
p374
I1
sVd6qf713
p375
I1
sVdhbu30v
p376
I1
sVd88ip8i
p377
I2
sVd8h4mem
p378
I1
sVdf8crkz
p379
I1
sVdhchqme
p380
I1
sVd06t3om
p381
I1
sVczoou5a
p382
I1
sVd53x6qx
p383
I1
sVd7g24rj
p384
I1
sVdapi0wn
p385
I2
sVd259fjb
p386
I3
sVdizw3wb
p387
I1
sVd51wyep
p388
I1
sVdevs0w1
p389
I1
sVdd6osb6
p390
I1
sVczynbei
p391
I1
sVdjrsp8l
p392
I1
sVd0kzt2r
p393
I1
sVdiqfu2s
p394
I1
sVcysutgx
p395
I1
sVdbrm2h8
p396
I1
sVd99128s
p397
I1
sVdhahbzq
p398
I1
sVdprpt71
p399
I1
sVdeb1lmp
p400
I1
sVdho7n93
p401
I1
sVdqhpi9b
p402
I1
sVd1bxu1u
p403
I1
sVd8k5ip0
p404
I1
sVdadh2wl
p405
I1
sVdkou7yn
p406
I1
sVd2gwgw2
p407
I1
sVdcv5gvt
p408
I1
sVdcbe0h2
p409
I1
sVdh0wg53
p410
I1
sVd8chnkb
p411
I1
sVczkg1p4
p412
I1
sVdhsmlib
p413
I1
sVd46djrw
p414
I2
sVd17rgbc
p415
I1
sVd9eyez5
p416
I1
sVd1e9ltb
p417
I1
sVdf8989m
p418
I1
sVdfirr2h
p419
I1
sVczh5s8g
p420
I1
sVd9cgqcd
p421
I1
sVdsd4b97
p422
I1
sVde57pht
p423
I1
sVd379ym7
p424
I1
sVd7fmiqq
p425
I1
sVczrx96u
p426
I1
sVdon9sa8
p427
I1
sVd2o12d7
p428
I1
sVdn6zzl2
p429
I1
sVdaogakm
p430
I1
sVd0n3hsw
p431
I1
sVd4i5wdh
p432
I1
sVd2uajjx
p433
I1
sVdc8en7j
p434
I1
sVd8s0qke
p435
I2
sVd041rs9
p436
I1
sVd9i003w
p437
I1
sVd0ykosg
p438
I1
sVdn2rnn5
p439
I1
sVdbr7ix1
p440
I1
sVdhfz5wo
p441
I1
sVczott8d
p442
I1
sVdmg3w38
p443
I1
sVdt0wvyu
p444
I1
sVdd204fn
p445
I2
sVd0t1ijt
p446
I1
sVdic8ejn
p447
I1
sVda90n9w
p448
I1
sVd24zysm
p449
I1
sVczjha70
p450
I1
sVdi6yp8m
p451
I1
sVdaux8hg
p452
I1
sVczkzzng
p453
I1
sVd4rzxf8
p454
I1
sVd1qslv5
p455
I1
sVdfw0zij
p456
I1
sVdp57ryv
p457
I1
sVdb3cjfc
p458
I1
sVd4ntaxq
p459
I1
sVd08h6t6
p460
I1
sVdjhf2ty
p461
I1
sVdfdh3jy
p462
I1
sVdp8lids
p463
I2
sVcz6xpel
p464
I1
sVdaafjcp
p465
I2
sVdenomkf
p466
I1
sVddktxtk
p467
I1
sVdj1rr17
p468
I1
sVdf1j5i6
p469
I1
sVd8mctnc
p470
I1
sVd2i19e3
p471
I1
sVd5urkqx
p472
I1
sVd8y9h6w
p473
I1
sVczw8euo
p474
I1
sVdc7lgi2
p475
I1
sVd9rhnwq
p476
I1
sVdiheh19
p477
I2
sVczvp9i8
p478
I1
sVdbnea41
p479
I1
sVd62f3uv
p480
I1
sVd45yaae
p481
I1
sVd9fj412
p482
I1
sVdj2pk3s
p483
I1
sVd36wh1z
p484
I1
sVddv83fn
p485
I1
sVdf100y0
p486
I1
sVcz21op4
p487
I1
sVd0rvqou
p488
I1
sVdb3ctpy
p489
I1
sVd3o4vaw
p490
I1
sVczjgy8r
p491
I1
sVd7picd6
p492
I1
sVcz6ant2
p493
I1
sVcytk1l5
p494
I1
sVda3u57f
p495
I1
sVd7l8u2q
p496
I1
sVdf3hf6x
p497
I1
sVdsnss85
p498
I1
sVd511k2i
p499
I1
sVdfymkuv
p500
I2
sVds9za4w
p501
I1
sVdkonl11
p502
I1
sVdii9rpn
p503
I1
sVddia8dw
p504
I1
sVdbroax6
p505
I1
sVdg8zsfj
p506
I1
sVd3p592z
p507
I1
sVdd91lrr
p508
I1
sVd0urnix
p509
I1
sVd2c1bgi
p510
I1
sVdoxzpmm
p511
I1
sVd6cn6sm
p512
I1
sVd14r7go
p513
I1
sVdemexdr
p514
I1
sVdd5n6ht
p515
I1
sVcz141o6
p516
I1
sVdesphb7
p517
I1
sVd94bvgn
p518
I1
sVdakfve7
p519
I2
sVdbf3g9n
p520
I1
sVdh6j63g
p521
I1
sVdmutt49
p522
I1
sVdfdgt9d
p523
I1
sVdj2ds1g
p524
I2
sVd3gojn6
p525
I1
sVddhivuq
p526
I1
sVd2gqpk6
p527
I1
sVddc9774
p528
I1
sVd841ip5
p529
I1
sVdkgge8j
p530
I1
sVd0l82u6
p531
I1
sVd4du05z
p532
I1
sVd2xn2hn
p533
I1
sVdrwrqex
p534
I1
sVcypfbml
p535
I1
sVd85uhna
p536
I1
sVd5xcj73
p537
I1
sVd17c90a
p538
I1
sVdmewm8j
p539
I1
sVczeugf4
p540
I1
sVda7z5vs
p541
I1
sVd0w4guz
p542
I1
sVd4m219u
p543
I1
sVd60tr4d
p544
I2
sVdhyg3wi
p545
I1
sVczpthi4
p546
I2
sVddo0q12
p547
I1
sVdr7lgox
p548
I1
sVd2f87g4
p549
I1
sVd1vrqr4
p550
I1
sVdgyuv56
p551
I1
sVd0o68uk
p552
I1
sVdablr1f
p553
I1
sVd0w7jjl
p554
I1
sVcywxkyv
p555
I1
sVd09cl6m
p556
I1
sVd0wt0xk
p557
I1
sVd3ug0db
p558
I2
sVd2umknd
p559
I2
sVd2demg7
p560
I1
sVdjpb5qo
p561
I1
sVd2zvi43
p562
I1
sVdgeybme
p563
I1
sVcyp3p9l
p564
I1
sVd7qkpnd
p565
I1
sVdne68rl
p566
I1
sVd0225je
p567
I1
sVdeyig4x
p568
I1
sVd72743i
p569
I1
sVd05phcq
p570
I1
sVd1nqeh7
p571
I1
sVdbkkjix
p572
I1
sVd3u2uvr
p573
I1
sVddoiw20
p574
I1
sVd1oh8gt
p575
I2
sVd6ocbdb
p576
I1
sVd13v9m8
p577
I1
sVd0woucm
p578
I1
sVd00ud8r
p579
I1
sVdqutyo3
p580
I2
sVd8kq8z6
p581
I1
sVd0i7wgv
p582
I1
sVcz03h8d
p583
I1
sVdk702sn
p584
I1
sVdinnx9i
p585
I1
sVd27urci
p586
I1
sVd16xyfp
p587
I1
sVd2o94wy
p588
I1
sVd716z8d
p589
I1
sVd0olxjf
p590
I1
sVd0u0fy2
p591
I1
sVd7q7oey
p592
I1
sVdcgpoyd
p593
I1
sVdsfeag2
p594
I1
sVdk5yxuk
p595
I1
sVdeisyw3
p596
I1
sVd6s6ayw
p597
I1
sVd5fagi5
p598
I1
sVdewzadi
p599
I1
sVd6t8g9w
p600
I1
sVd8aauhs
p601
I1
sVdeppvus
p602
I1
sVdghcb1u
p603
I1
sVddbf4go
p604
I1
sVdc14ktt
p605
I1
sVdb02sla
p606
I1
sVddsrx7u
p607
I1
sVdt9k202
p608
I1
sVd65uyvj
p609
I1
sVd0xc0w0
p610
I1
sVd18bysj
p611
I1
sVdbt1kdo
p612
I1
sVczdgvov
p613
I2
sVd25kc7g
p614
I1
sVdiecdum
p615
I1
sVd6j0xhu
p616
I1
sVdh6mvdu
p617
I1
sVd2tuq8i
p618
I1
sVd36jd6r
p619
I1
sVd4xmzsx
p620
I1
sVd1bp5fi
p621
I1
sVdbgwjry
p622
I1
sVd2i9d6y
p623
I1
sVczolng2
p624
I1
sVdet2umv
p625
I1
sVcymnugh
p626
I1
sVd8pxgqf
p627
I1
sVdn7ni2c
p628
I1
sVdira28b
p629
I1
sVd95ckw0
p630
I1
sVdq7tbp4
p631
I1
sVdsfwxqm
p632
I2
sVd2jh9dn
p633
I1
sVdrkbrbk
p634
I1
sVd88wp2d
p635
I1
sVd861whf
p636
I1
sVde7i14q
p637
I1
sVd8wd43t
p638
I1
sVdivetkb
p639
I1
sVd9yu3m3
p640
I1
sVczh2hvb
p641
I1
sVdqmxbr0
p642
I2
sVd974yd8
p643
I1
sVczizmgl
p644
I1
sVd3bwa6r
p645
I1
sVdjloenq
p646
I1
sVdigmqxk
p647
I2
sVdcbf9oi
p648
I1
sVd070f0w
p649
I1
sVder0sro
p650
I1
sVdh6na4d
p651
I1
sVd5h57r1
p652
I2
sVd9vkkmz
p653
I1
sVd2l5vjs
p654
I1
sVczbb3cf
p655
I1
sVd1dxufm
p656
I1
sVdi7l30i
p657
I1
sVdhjglve
p658
I1
sVdpsx15r
p659
I1
sVd8p234f
p660
I1
sVdfm2cjt
p661
I1
sVd3srhjc
p662
I1
sVddhe4ne
p663
I1
sVd2zusk6
p664
I1
sVds233qg
p665
I1
sVdj0cni8
p666
I1
sVd6u0j3y
p667
I1
sVd8vabqn
p668
I1
sVd3cp7du
p669
I1
sVd2gx998
p670
I1
sVdff5a44
p671
I1
sVd5v27iv
p672
I1
sVdjugpfh
p673
I1
sVczsbupk
p674
I1
sVdg0kiaw
p675
I1
sVdim1cgg
p676
I1
sVdizf38i
p677
I1
sVd1gkjhn
p678
I1
sVdip788g
p679
I1
sVcyigdtr
p680
I1
sVdai5qlq
p681
I1
sVd8griw2
p682
I1
sVd34oyqn
p683
I1
sVcz13v5l
p684
I1
sVd363wm3
p685
I1
sVdbklxj9
p686
I1
sVdos20wt
p687
I1
sVcymgtzn
p688
I2
sVd27cam6
p689
I2
sVczzx8ti
p690
I2
sVdazt744
p691
I1
sVcyuw1vp
p692
I1
sVd9cw289
p693
I1
sVd5dud00
p694
I1
sVdr9ux81
p695
I1
sVd5pwaby
p696
I1
sVdf6whjx
p697
I1
sVd29hzfv
p698
I1
sVd1c4yyp
p699
I1
sVdbu7lq9
p700
I1
sVd652jaq
p701
I1
sVdaisvi2
p702
I1
sVdalqp5k
p703
I1
sVd76nkv9
p704
I1
sVcyv3r3x
p705
I1
sVd149w4d
p706
I1
sVd4w3pmo
p707
I1
sVdeygxdt
p708
I1
sVdc621vs
p709
I1
sVdoih40x
p710
I1
sVdk6bset
p711
I1
sVdeca0w2
p712
I2
sVdf00m15
p713
I1
sVdjwbfb8
p714
I2
sVdba4snx
p715
I1
sVczmdrwh
p716
I1
sVdizg8ii
p717
I2
sVdbit8p7
p718
I1
sVd0l7k4i
p719
I2
sVdjuseoi
p720
I1
sVd5dqxaz
p721
I1
sVcztivyt
p722
I1
sVd1kezki
p723
I1
sVde4vdbf
p724
I1
sVdjrhnzr
p725
I1
sVdg97uhm
p726
I1
sVdgq7o0a
p727
I1
sVdes9abt
p728
I1
sVdgjqqix
p729
I1
sVd7yedfp
p730
I1
sVdhf36bd
p731
I1
sVdhef61c
p732
I1
sVdaqyhix
p733
I1
sVd7n5tg5
p734
I1
sVd2n8eta
p735
I1
sVd6wwma5
p736
I1
sVdipestm
p737
I1
sVdia3ej5
p738
I1
sVdgcodlg
p739
I1
sVd4ujk51
p740
I1
sVdbq5mhy
p741
I1
sVdf3crzc
p742
I1
sVd5rdnin
p743
I1
sVdcx50ng
p744
I1
sVdid33dk
p745
I1
sVd4mb4t0
p746
I1
sVdt6b2zu
p747
I1
sVdaggwoj
p748
I1
sVd4egngy
p749
I1
sVdflvf6p
p750
I1
sVdf30jdf
p751
I1
sVd7tq59y
p752
I1
sVd3jf5hw
p753
I1
sVdqmwwjs
p754
I1
sVdn38pzw
p755
I1
sVdh6kayn
p756
I1
sVdjls66b
p757
I1
sVdbcvjui
p758
I1
sVdt0ayjc
p759
I1
sVds6kvxd
p760
I1
sVdmohrmo
p761
I1
sVd4gio1h
p762
I1
sVd701452
p763
I1
sVdemoxax
p764
I1
sVd77gki5
p765
I1
sVdi01o6x
p766
I1
sVdsq9ww2
p767
I1
sVdhgdy5v
p768
I1
sVd84amio
p769
I1
sVd081a51
p770
I2
sVddqi371
p771
I2
sVd6m5opa
p772
I2
sVczg3nin
p773
I1
sVdpfz9rp
p774
I1
sVcyp5bo6
p775
I1
sVdenvewz
p776
I1
sVd3s5mwn
p777
I3
sVdkj20fj
p778
I1
sVd3gjzxv
p779
I1
sVdaacsty
p780
I1
sVdfzjrr4
p781
I1
sVczr6mi3
p782
I1
sVdr9bt41
p783
I3
sVde7ffrr
p784
I1
sVd65qeja
p785
I1
sVdrgegqk
p786
I1
sVd6tbacm
p787
I1
sVd0yg0zv
p788
I1
sVd832wis
p789
I1
sVdiqasq0
p790
I1
sVdepbpzb
p791
I1
sVdbjvqo2
p792
I1
sVd8lzy79
p793
I1
sVd1j5fxv
p794
I2
sVdbumf82
p795
I1
sVd16gwi3
p796
I1
sVde66c5k
p797
I1
sVdcjuwxt
p798
I1
sVd5d4d9p
p799
I1
sVds1ifsx
p800
I1
sVd2ud2sl
p801
I1
sVd2id07t
p802
I3
sVdo2kcf2
p803
I1
sVd87iize
p804
I1
sVd44oc8n
p805
I1
sVd0m4cxi
p806
I1
sVd29pj4k
p807
I1
sVdo77qqm
p808
I1
sVd6cce7w
p809
I1
sVdru2uu5
p810
I1
sVd4fh9p8
p811
I1
sVdo6gktm
p812
I1
sVdolitq3
p813
I1
sVda1y75y
p814
I1
sVdfto98p
p815
I1
sVd4liyof
p816
I1
sVddby5k1
p817
I1
sVczfjaof
p818
I1
sVdd5d55m
p819
I1
sVczjnnvh
p820
I1
sVdgli7oa
p821
I1
sVdokv2oo
p822
I1
sVdj2kohe
p823
I1
sVdh2sk5s
p824
I1
sVdj18nvx
p825
I1
sVdkqy2br
p826
I1
sVdichhtv
p827
I1
sVdrkc5oc
p828
I1
sVdpb6i90
p829
I1
sVd9aes5s
p830
I1
sVd7m3ssn
p831
I1
sVdbbtz2t
p832
I1
sVd8b2m73
p833
I1
sVd1v5gj8
p834
I3
sVd477fnd
p835
I1
sVd9bqb7g
p836
I1
sVd7z6wux
p837
I1
sVdgttyd8
p838
I1
sVdbypamr
p839
I1
sVdh2gm2y
p840
I1
sVd36ekr2
p841
I1
sVds3j9vv
p842
I1
sVdixe8x0
p843
I1
sVd7w1tc1
p844
I1
sVddjhzvi
p845
I1
sVdfbf6bq
p846
I1
sVdeo3vaf
p847
I1
sVdeyjc51
p848
I2
sVdr2hjmy
p849
I1
sVd1nv9p0
p850
I1
sVdb23pzw
p851
I1
sVd0zdaib
p852
I1
sVdc6sl0o
p853
I1
sVdcngu49
p854
I1
sVd6u8hli
p855
I1
sVds1az51
p856
I1
sVcypfbow
p857
I1
sVdqxds6c
p858
I1
sVd2jp7h2
p859
I1
sVd8hfkia
p860
I3
sVdc4f31u
p861
I1
sVdq3z6ni
p862
I1
sVd3r3f9y
p863
I1
sVdiqyp35
p864
I1
sVd6hr5la
p865
I2
sVddxe4c2
p866
I1
sVdbsafuu
p867
I1
sVdimom1x
p868
I1
sVdall8yc
p869
I1
sVdd1wyh0
p870
I1
sVdedqx0g
p871
I1
sVd0hmzri
p872
I1
sVdgory1o
p873
I1
sVdeisdpy
p874
I1
sVd7t7z39
p875
I1
sVdpnfuy3
p876
I1
sVdftkbqc
p877
I1
sVdc0rb1e
p878
I1
sVdbig6bd
p879
I2
sVd8t4md9
p880
I1
sVdgqn4zs
p881
I1
sVdflw1s4
p882
I1
sVdnbzuy8
p883
I1
sVdsw5rq2
p884
I1
sVddyrfeg
p885
I1
sVdhm7egl
p886
I1
sVdo7b1jl
p887
I1
sVdd6t358
p888
I1
sVdn9odsq
p889
I1
sVdb40q1h
p890
I1
sVd89a8gk
p891
I1
sVdszt7dk
p892
I1
sVdbl3izm
p893
I1
sVdbniwo5
p894
I1
sVdau6upg
p895
I1
sVd0tuiz9
p896
I1
sVdazpr01
p897
I1
sVdbqhrvm
p898
I1
sVdcl87xg
p899
I1
sVdh7n7ig
p900
I1
sVd31ot4a
p901
I1
sVddqh8vs
p902
I1
sVdhcejpy
p903
I1
sVd85kgeh
p904
I1
sVdksa7k5
p905
I1
sVd032j8z
p906
I1
sVd3z0hu4
p907
I1
sVddun7dq
p908
I1
sVd4p0pug
p909
I1
sVd2neaol
p910
I1
sVdgo6vlb
p911
I1
sVdhnz4e6
p912
I1
sVd3tbld6
p913
I1
sVd66jlqo
p914
I1
sVd00srho
p915
I1
sVdaa8au5
p916
I1
sVdb563h6
p917
I1
sVd66xsvv
p918
I1
sVdpmsqp5
p919
I1
sVd25hmg6
p920
I1
sVdfp1z2d
p921
I1
sVd21wx7p
p922
I1
sVd41cr9t
p923
I1
sVd1egzcg
p924
I3
sVcz40co9
p925
I1
sVddv469j
p926
I1
sVd7yam60
p927
I2
sVd2c6i2c
p928
I1
sVd4czeyv
p929
I1
sVdre41jx
p930
I1
sVdd4zfk6
p931
I1
sVd0o32u3
p932
I1
sVde42diq
p933
I1
sVd06cgjd
p934
I1
sVdso529h
p935
I1
sVdeg9s18
p936
I1
sVcyljclh
p937
I1
sVdmrkvyk
p938
I1
sVd1h2ei6
p939
I1
sVdh2lc5a
p940
I1
sVd1gdney
p941
I1
sVcyt5gl7
p942
I1
sVdcxjkwz
p943
I1
sVddk2z93
p944
I1
sVd9s7tnr
p945
I1
sVddemi50
p946
I1
sVdr6ah9z
p947
I1
sVd046xww
p948
I2
sVd9v0bx5
p949
I1
sVdh6nch2
p950
I1
sVdctl48b
p951
I2
sVdajx6aq
p952
I1
sVddy0fug
p953
I2
sVd2gop8m
p954
I1
sVdhhff36
p955
I1
sVd1l8m5l
p956
I1
sVd36ml8h
p957
I1
sVd3myfvp
p958
I1
sVd4a0n46
p959
I1
sVd6q7d5h
p960
I1
sVdhcem3b
p961
I2
sVd3r2ozk
p962
I1
sVdg933gn
p963
I1
sVd1aa7yc
p964
I1
sVdtgdgqv
p965
I1
sVds14dx0
p966
I1
sVcz7s12s
p967
I1
sVdad28bw
p968
I1
sVdnsllm9
p969
I1
sVdhfsr5s
p970
I1
sVdnm00me
p971
I1
sVdnjbzh3
p972
I1
sVcyv58q5
p973
I1
sVdec4606
p974
I1
sVdhuo6wz
p975
I1
sVdkhl99r
p976
I1
sVdnj93et
p977
I1
sVdiwrtu4
p978
I2
sVdqi4u42
p979
I1
sVd9xkzzz
p980
I1
sVd04isb0
p981
I1
sVdfgwf3v
p982
I1
sVdhdu29v
p983
I1
sVdc5y8q2
p984
I1
sVd1txpyq
p985
I1
sVd2q1qi7
p986
I1
sVden1cbc
p987
I1
sVdej91m8
p988
I1
sVdbh1p1i
p989
I1
sVd09qwm7
p990
I1
sVd1fj2a4
p991
I1
sVd3qgpav
p992
I1
sVdb54p1f
p993
I1
sVd468tws
p994
I1
sVdg94hb8
p995
I1
sVd3q3xqk
p996
I1
sVd1x00u8
p997
I1
sVd9h4ca4
p998
I1
sVdpxdoeq
p999
I1
sVdos2y52
p1000
I1
sVdn82osb
p1001
I2
sVd7kppmb
p1002
I1
sVdpgr9qf
p1003
I2
sVd2da2lc
p1004
I1
sVdazbccn
p1005
I1
sVddt42xr
p1006
I1
sVdj2qzln
p1007
I1
sVdo1akei
p1008
I1
sVd3mddth
p1009
I1
sVdp03n06
p1010
I1
sVdcsrbng
p1011
I1
sVcynq6us
p1012
I1
sVdqx6ffh
p1013
I1
sVdge394g
p1014
I1
sVd70vtu4
p1015
I1
sVddqvcrk
p1016
I1
sVd7jzhdm
p1017
I1
sVdjgasc6
p1018
I1
sVdog6bf0
p1019
I1
sVdnjlot4
p1020
I2
sVd4bllz1
p1021
I1
sVd2zh0d8
p1022
I2
sVcyyos8b
p1023
I1
sVdmmcsld
p1024
I1
sVd7to9y1
p1025
I1
sVczmgohs
p1026
I1
sVd906bzm
p1027
I1
sVd3elxgr
p1028
I1
sVcyn1t78
p1029
I1
sVd87qk4z
p1030
I1
sVd3k6k2q
p1031
I1
sVdjykx19
p1032
I1
sVczk59h4
p1033
I1
sVd32od45
p1034
I1
sVd5a0jsv
p1035
I1
sVdfmvk2n
p1036
I1
sVd0zk10g
p1037
I1
sVdj2wgoj
p1038
I1
sVd5j8kdn
p1039
I1
sVd9a8d6n
p1040
I1
sVd3mdf3k
p1041
I1
sVd40ymod
p1042
I1
sVdcjearc
p1043
I1
sVcyswqoe
p1044
I1
sVdbjftjd
p1045
I1
sVdcb3z45
p1046
I1
sVdat3n93
p1047
I1
sVdbrbzv8
p1048
I1
sVdbubd4i
p1049
I1
sVdop89jw
p1050
I1
sVdq6vgkx
p1051
I1
sVd4gmzri
p1052
I1
sVd9r58zk
p1053
I1
sVd9uagfb
p1054
I1
sVdh4lrsg
p1055
I2
sVdngmwzf
p1056
I1
sVczvykv9
p1057
I1
sVdiort2w
p1058
I1
sVdnqz0ks
p1059
I1
sVdqxlak3
p1060
I1
sVd59scrp
p1061
I1
sVdcopku1
p1062
I1
sVdfl7q5s
p1063
I1
sVdeikq2m
p1064
I2
sVdfmto3e
p1065
I1
sVd1bl171
p1066
I1
sVd805knh
p1067
I2
sVdb69lb0
p1068
I1
sVdsyuhup
p1069
I1
sVd18n3ce
p1070
I1
sVdqm94kh
p1071
I1
sVdieme93
p1072
I1
sVdfb3sju
p1073
I1
sVdhafahx
p1074
I1
sVdso5nll
p1075
I1
sVdhfo5sf
p1076
I1
sVdmz5ur4
p1077
I1
sVdsk7s10
p1078
I1
sVdtf6xii
p1079
I1
sVd2qvpox
p1080
I1
sVdk1ja8u
p1081
I1
sVd9pgpj2
p1082
I1
sVd3zi9ev
p1083
I1
sVcyre7m8
p1084
I1
sVd323a6o
p1085
I1
sVdfxubwn
p1086
I1
sVczbpu3u
p1087
I1
sVd12wpo7
p1088
I1
sVdig2xuy
p1089
I1
sVdqbbo9y
p1090
I1
sVd1859oc
p1091
I1
sVdr4zb9b
p1092
I1
sVd8d9ot3
p1093
I2
sVd7v44mc
p1094
I1
sVd1p9ktr
p1095
I1
sVdg97r0o
p1096
I1
sVd15oksj
p1097
I1
sVdpw3edc
p1098
I1
sVd9glq1f
p1099
I1
sVd9kd0dw
p1100
I1
sVdt2cc59
p1101
I1
sVdo4lza0
p1102
I1
sVd10ecjd
p1103
I1
sVd4cv2xk
p1104
I1
sVd8o2du4
p1105
I1
sVd81lq7y
p1106
I1
sVd6xqx0j
p1107
I1
sVd59f4wh
p1108
I1
sVdryly2s
p1109
I1
sVddpfoy0
p1110
I1
sVdo9wkdq
p1111
I1
sVd58dwws
p1112
I1
sVdarezud
p1113
I1
sVdgghct1
p1114
I1
sVdifhbk5
p1115
I1
sVdbltxym
p1116
I1
sVdcsuy3k
p1117
I1
sVd4kkbhh
p1118
I1
sVdimerpc
p1119
I1
sVd5c6ge3
p1120
I1
sVdpyyl3k
p1121
I1
sVd9u4coo
p1122
I2
sVde8ddr2
p1123
I1
sVdig1cfk
p1124
I1
sVdqza5tc
p1125
I1
sVd7pebou
p1126
I1
sVd89sile
p1127
I1
sVdk5ojus
p1128
I1
sVd38zga8
p1129
I1
sVdghrx3s
p1130
I1
sVd8zvmib
p1131
I1
sVdqzogy7
p1132
I1
sVd1wnjcu
p1133
I1
sVd4gc65a
p1134
I1
sVde7fx5m
p1135
I1
sVczw3crq
p1136
I1
sVdberuzr
p1137
I2
sVdcpuhhy
p1138
I1
sVd1lwlpe
p1139
I2
sVdni3iox
p1140
I1
sVdnir5fy
p1141
I1
sVd2yzrts
p1142
I1
sVdfikqw9
p1143
I1
sVdik15hb
p1144
I1
sVd065uow
p1145
I1
sVdgrulgi
p1146
I1
sVd2lhnvc
p1147
I1
sVdhcqb4r
p1148
I1
sVd3sccr1
p1149
I1
sVdg13xw5
p1150
I1
sVdqsor75
p1151
I1
sVd2vxjti
p1152
I1
sVd3o8rn3
p1153
I1
sVdduwkpc
p1154
I1
sVcyzie0g
p1155
I1
sVczhp3nr
p1156
I1
sVd9n0iie
p1157
I1
sVdcv7zof
p1158
I1
sVdcdwi87
p1159
I1
sVdg4cxs0
p1160
I2
sVdmol7iy
p1161
I1
sVdgzhaft
p1162
I1
sVdanafny
p1163
I1
sVd32qkrn
p1164
I1
sVdrac638
p1165
I1
sVdj5oyyz
p1166
I1
sVdncc0ji
p1167
I1
sVdc924wr
p1168
I1
sVd6x9nk1
p1169
I2
sVd2clp7t
p1170
I1
sVds9wkcc
p1171
I1
sVczbwajx
p1172
I1
sVd8aiycp
p1173
I1
sVd6zwi4o
p1174
I1
sVd353zkd
p1175
I1
sVd26v8t2
p1176
I1
sVdqf369c
p1177
I1
sVd4274rs
p1178
I1
sVd7pn3s1
p1179
I1
sVd23vqf7
p1180
I1
sVdkdp9bt
p1181
I1
sVczg4gyc
p1182
I1
sVd0t7lng
p1183
I1
sVdfmi0bj
p1184
I1
sVd7os01y
p1185
I1
sVczm9i01
p1186
I1
sVcyosh9h
p1187
I1
sVdcqafo4
p1188
I1
sVdjo1bjj
p1189
I1
sVczjnv01
p1190
I1
sVd69s6uh
p1191
I1
sVd04lxw8
p1192
I1
sVd71302c
p1193
I1
sVd1l5nfa
p1194
I1
sVd1u2vsj
p1195
I1
sVdrrqx73
p1196
I1
sVd43tycw
p1197
I1
sVdglhsna
p1198
I1
sVd91f4s3
p1199
I1
sVczj3s0c
p1200
I1
sVdeiyots
p1201
I1
sVdgshpo2
p1202
I1
sVdbcflfj
p1203
I1
sVdejqs3o
p1204
I1
sVd94ezme
p1205
I1
sVdg7qdge
p1206
I1
sVdbghtaj
p1207
I1
sVd3gpedu
p1208
I1
sVcymptia
p1209
I1
sVd3q7dy1
p1210
I1
sVdi3tc9g
p1211
I1
sVdgkao11
p1212
I1
sVd3tm6nu
p1213
I1
sVdrv6kku
p1214
I2
sVd91wrtq
p1215
I1
sVdqvrsu6
p1216
I1
sVd3hf51w
p1217
I2
sVdk6zsni
p1218
I1
sVddt5w4y
p1219
I1
sVdfmuan3
p1220
I1
sVczhrt9i
p1221
I2
sVd6rg5xo
p1222
I1
sVdn9qr3j
p1223
I2
sVdad26mi
p1224
I1
sVd629chf
p1225
I1
sVdcgp6zc
p1226
I1
sVdh5sf0y
p1227
I1
sVdnivttg
p1228
I1
sVdic9b15
p1229
I1
sVd2fdxa0
p1230
I1
sVdt1rwo6
p1231
I1
sVczcphnj
p1232
I1
sVdhpfd1y
p1233
I1
sVd0hii9c
p1234
I1
sVd0svruy
p1235
I1
sVd75b987
p1236
I1
sVdjpwgxr
p1237
I1
sVczoy12j
p1238
I1
sVda2yv2b
p1239
I1
sVd5xr7ig
p1240
I1
sVcyjze93
p1241
I1
sVdnykweo
p1242
I1
sVd28kgj1
p1243
I1
sVd1q2mvw
p1244
I1
sVdde4szg
p1245
I1
sVd29wt32
p1246
I1
sVcyj52y3
p1247
I2
sVd6ml3qm
p1248
I1
sVd9lfz0b
p1249
I1
sVdcgb9pn
p1250
I1
sVdq4j4tc
p1251
I1
sVdemczj5
p1252
I1
sVczp0430
p1253
I1
sVd4ppouq
p1254
I1
sVdj6pajo
p1255
I1
sVd9re9lr
p1256
I1
sVdbs4g4n
p1257
I1
sVdo81nrq
p1258
I1
sVd2qbme0
p1259
I4
sVdftr6zl
p1260
I1
sVddc1bj4
p1261
I2
sVdr86qke
p1262
I1
sVcyzb73t
p1263
I1
sVcymoor7
p1264
I1
sVdivai22
p1265
I1
sVdn4oe2d
p1266
I1
sVd7nrf7i
p1267
I1
sVd21bcju
p1268
I1
sVdnp37gt
p1269
I1
sVd7ev990
p1270
I1
sVd993jjm
p1271
I2
sVczw5x8x
p1272
I1
sVczfs72w
p1273
I1
sVdfzdu1n
p1274
I1
sVd0lfqqb
p1275
I1
sVdrybxrj
p1276
I1
sVd0yyexd
p1277
I1
sVdpyby1f
p1278
I1
sVdjb33w6
p1279
I1
sVdh1312o
p1280
I1
sVd0r484q
p1281
I1
sVd9l1wx5
p1282
I1
sVdewi8ev
p1283
I1
sVcyu1x3d
p1284
I1
sVd6581pj
p1285
I1
sVcyv0n1u
p1286
I1
sVdi9a4zl
p1287
I1
sVd0kmssg
p1288
I1
sVdjnta0o
p1289
I1
sVdpx50f0
p1290
I1
sVd61tp18
p1291
I1
sVdnhc7pa
p1292
I1
sVdbbtnc8
p1293
I1
sVd27vv8h
p1294
I1
sVcyznh3g
p1295
I1
sVdgcd0o2
p1296
I1
sVd5utepe
p1297
I1
sVcyz0m6w
p1298
I1
sVd7542v2
p1299
I1
sVd5kuoa4
p1300
I1
sVd9e9qi9
p1301
I1
sVd33udb7
p1302
I1
sVd262fwq
p1303
I1
sVde7mcau
p1304
I2
sVd50y1xw
p1305
I1
sVd2t55g4
p1306
I1
sVdec3p3g
p1307
I1
sVdd9p9ez
p1308
I1
sVddkch4f
p1309
I2
sVd5k7ags
p1310
I1
sVd4zprvs
p1311
I3
sVd71i19k
p1312
I1
sVd15vzdu
p1313
I1
sVdhgehjk
p1314
I2
sVdprikgt
p1315
I1
sVdna9dtq
p1316
I1
sVdgjlv22
p1317
I1
sVdew1pc4
p1318
I1
sVdddmvuz
p1319
I1
sVdravdh6
p1320
I1
sVczdumma
p1321
I1
sVd2jzlf4
p1322
I2
sVdjo6nz4
p1323
I1
sVdq4ndm8
p1324
I2
sVdbc8l01
p1325
I1
sVd2cv72a
p1326
I1
sVdeu5wzx
p1327
I1
sVda6pbw1
p1328
I1
sVdb8ufzw
p1329
I1
sVdmi8ggw
p1330
I1
sVddthkox
p1331
I1
sVd7impd8
p1332
I1
sVd8yrxmq
p1333
I1
sVd0dkxp1
p1334
I1
sVcyxi97f
p1335
I1
sVd4hz7tg
p1336
I1
sVddepv9v
p1337
I1
sVd5iiph2
p1338
I1
sVd8yhyv8
p1339
I1
sVd9xjc8k
p1340
I1
sVdgh88b8
p1341
I1
sVdpwvvay
p1342
I1
sVd34qwai
p1343
I1
sVd1o9p7c
p1344
I1
sVdaym8zr
p1345
I1
sVd0tglmk
p1346
I1
sVdf7wswi
p1347
I1
sVd0zp9iz
p1348
I1
sVdfhho4s
p1349
I3
sVd8apquh
p1350
I1
sVcyjtq9l
p1351
I1
sVde1htle
p1352
I1
sVd6a4s3z
p1353
I1
sVd6sm5az
p1354
I1
sVdkc801v
p1355
I2
sVdctt8hd
p1356
I2
sVd3e2o3m
p1357
I1
sVd242a7d
p1358
I1
sVdj46uih
p1359
I1
sVdcwwzm0
p1360
I1
sVdgb8z2r
p1361
I1
sVds9ahkc
p1362
I1
sVd0661ah
p1363
I1
sVd5elbgz
p1364
I1
sVd1sfkld
p1365
I1
sVdodt7zh
p1366
I1
sVczf9cac
p1367
I1
sVdjy3hn8
p1368
I1
sVd498krg
p1369
I1
sVdr4rluj
p1370
I1
sVdh4c0r8
p1371
I1
sVdn4v8jj
p1372
I2
sVd2ga6up
p1373
I1
sVdmla2i7
p1374
I1
sVd7q0hwi
p1375
I1
sVd2xtsrd
p1376
I1
sVddunzil
p1377
I1
sVd7rxitq
p1378
I1
sVds529xz
p1379
I1
sVcz8prb1
p1380
I1
sVdj4n1sy
p1381
I1
sVd2me7gn
p1382
I2
sVd3j6npo
p1383
I1
sVda4f5b1
p1384
I1
sVdpy2rki
p1385
I1
sVdgej0re
p1386
I2
sVd43n26t
p1387
I1
sVd2b7tpe
p1388
I1
sVdmvoqp6
p1389
I1
sVd5pj9k4
p1390
I1
sVdruiifp
p1391
I1
sVdd3fx7e
p1392
I1
sVdsbfhet
p1393
I1
sVdiqsn0i
p1394
I1
sVdil77cw
p1395
I1
sVd4ksy0e
p1396
I1
sVd9ik5mb
p1397
I1
sVdnzldtf
p1398
I1
sVd72xl1m
p1399
I1
sVd33q564
p1400
I1
sVd7tkfu8
p1401
I1
sVdgkll1b
p1402
I2
sVdal3y5v
p1403
I1
sVd1hlnl5
p1404
I1
sVd4usn4d
p1405
I2
sVd2jtg5m
p1406
I1
sVdbu5gqg
p1407
I1
sVdf0szdx
p1408
I1
sVdb3cuec
p1409
I1
sVd2vcpd3
p1410
I1
sVdn83fms
p1411
I1
sVdb7d824
p1412
I1
sVdbggjm3
p1413
I1
sVdi1321t
p1414
I2
sVd34oorp
p1415
I1
sVd8424f2
p1416
I1
sVdbm81dq
p1417
I1
sVd712w3q
p1418
I1
sVcyt2mug
p1419
I1
sVdd0ss4x
p1420
I1
sVd0vuaf1
p1421
I1
sVd01j4hr
p1422
I1
sVczvx84d
p1423
I1
sVd3j3wsc
p1424
I1
sVdgopftf
p1425
I1
sVdmjqsgr
p1426
I1
sVdgbbcir
p1427
I5
sVd5eq4df
p1428
I1
sVdin9elc
p1429
I1
sVde76w9n
p1430
I1
sVd3byq2b
p1431
I1
sVd5pf2o4
p1432
I1
sVdkajnll
p1433
I1
sVdc3nwo4
p1434
I1
sVd64o94u
p1435
I1
sVdg0p2h1
p1436
I1
sVda5zm0x
p1437
I1
sVdia0gyc
p1438
I1
sVdfll0g3
p1439
I1
sVdaofcol
p1440
I1
sVdk4jdn4
p1441
I1
sVdo0t7r3
p1442
I1
sVczmffhn
p1443
I1
sVdd58dwi
p1444
I1
sVdb050su
p1445
I1
sVd5vr1vx
p1446
I1
sVd1ho716
p1447
I1
sVdmolhn5
p1448
I1
sVdqdqpu4
p1449
I1
sVd1yxl66
p1450
I1
sVd2l11ww
p1451
I1
sVd1ea8q4
p1452
I3
sVdksndjb
p1453
I1
sVda469sc
p1454
I1
sVd4kubw2
p1455
I1
sVd9i7rcx
p1456
I1
sVdaziq5m
p1457
I1
sVd8mkr75
p1458
I1
sVd342q1r
p1459
I1
sVd714ers
p1460
I1
sVd11vbxq
p1461
I1
sVdiy8qf5
p1462
I1
sVd7z72wz
p1463
I1
sVd4713tx
p1464
I1
sVdpbqdxv
p1465
I1
sVdrzvs5t
p1466
I1
sVd9unbln
p1467
I1
sVd4vw9f9
p1468
I1
sVdd8mpag
p1469
I1
sVdermiga
p1470
I1
sVdb7ef5s
p1471
I1
sVd54njoc
p1472
I1
sVd0caw8w
p1473
I1
sVdp7q258
p1474
I1
sVczw8b53
p1475
I1
sVdajwx3u
p1476
I1
sVdirfd1m
p1477
I1
sVd54bgrd
p1478
I2
sVdnyiapm
p1479
I1
sVd7092qt
p1480
I1
sVdo6gxgi
p1481
I1
sVd35grrr
p1482
I1
sVddf7r4h
p1483
I2
sVd358exz
p1484
I1
sVd1zjtdc
p1485
I1
sVd6matw5
p1486
I1
sVd37litj
p1487
I1
sVd7jco20
p1488
I1
sVdqxisbe
p1489
I1
sVcyz1pmo
p1490
I1
sVddsvxds
p1491
I1
sVcz5bbdo
p1492
I1
sVd5494sl
p1493
I1
sVdfy63v0
p1494
I2
sVd3sf369
p1495
I1
sVdnoreuc
p1496
I1
sVd5jmbgp
p1497
I1
sVcyvvut6
p1498
I1
sVd6k53vi
p1499
I1
sVdaeyg2g
p1500
I1
sVd6vwpac
p1501
I1
sVd6sx02t
p1502
I1
sVdd8avqm
p1503
I1
sVdd53d5q
p1504
I1
sVd8irr8t
p1505
I1
sVdg4e2g9
p1506
I2
sVdptn50r
p1507
I1
sVd5miy91
p1508
I1
sVcz4vmw6
p1509
I1
sVd61tszv
p1510
I1
sVdj24io7
p1511
I1
sVcysnthf
p1512
I1
sVdrhpus1
p1513
I1
sVda2zc2c
p1514
I1
sVd5jbhv3
p1515
I2
sVd1e7gqb
p1516
I2
sVd6genk1
p1517
I1
sVdfxjy1u
p1518
I1
sVddje0hk
p1519
I1
sVd56sb27
p1520
I1
sVdcawzuj
p1521
I1
sVdjlx7dx
p1522
I1
sVcyjv5pm
p1523
I1
sVdruikg2
p1524
I1
sVdmhsk4h
p1525
I1
sVdcsq1bv
p1526
I1
sVddnuxli
p1527
I1
sVdbhz35b
p1528
I1
sVdmxn0do
p1529
I1
sVd6ij9bd
p1530
I1
sVdkr68uw
p1531
I1
sVde1q9wu
p1532
I1
sVdad8aa7
p1533
I1
sVdkw2tej
p1534
I1
sVdekih1p
p1535
I1
sVdamqq3v
p1536
I1
sVdguu8se
p1537
I2
sVd1he0ub
p1538
I1
sVdhawnfg
p1539
I1
sVdk13akb
p1540
I1
sVd6m2v7x
p1541
I1
sVd1h1dn7
p1542
I1
sVdj2royd
p1543
I2
sVd444aq1
p1544
I1
sVddc4i8y
p1545
I1
sVdn9nz3n
p1546
I1
sVdca21xo
p1547
I1
sVdqkeree
p1548
I1
sVd47u0vb
p1549
I1
sVd2bflq2
p1550
I1
sVd0b2m25
p1551
I1
sVd0tozxn
p1552
I1
sVdd8ljio
p1553
I1
sVd0uc9hl
p1554
I1
sVd7dwwk3
p1555
I1
sVd8scers
p1556
I1
sVd88wu9s
p1557
I1
sVd3r1zsx
p1558
I1
sVd6xyv1s
p1559
I1
sVddafyvz
p1560
I1
sVd7xx0wn
p1561
I1
sVd4ash71
p1562
I1
sVd2zq97i
p1563
I1
sVdcmq31b
p1564
I1
sVd2d8hbg
p1565
I1
sVdbes36d
p1566
I1
sVd5c6rq2
p1567
I1
sVd7z81w3
p1568
I2
sVd6zxlkf
p1569
I1
sVd5h72p9
p1570
I1
sVd7fawtb
p1571
I1
sVdftyfq8
p1572
I1
sVd1vp4gj
p1573
I1
sVdi2ed56
p1574
I3
sVczathzt
p1575
I2
sVd35bpxz
p1576
I1
sVd15i9fw
p1577
I1
sVdi4g55v
p1578
I1
sVddr8bbh
p1579
I1
sVd1qcn5q
p1580
I1
sVdihc0v1
p1581
I1
sVd9nheyp
p1582
I1
sVcza9r9r
p1583
I1
sVdj6hhp5
p1584
I2
sVcywhfib
p1585
I1
sVd8x2kgi
p1586
I1
sVdg8m8sn
p1587
I1
sVdnkn7cn
p1588
I1
sVd93pmvw
p1589
I1
sVcyovgb6
p1590
I1
sVczmrtar
p1591
I1
sVdh67kuy
p1592
I1
sVdrc38xw
p1593
I1
sVd4kne6b
p1594
I1
sVdff4flg
p1595
I1
sVd59iv54
p1596
I1
sVcyswapw
p1597
I1
sVd5cuas0
p1598
I1
sVd7qsm4p
p1599
I1
sVd1h1eqq
p1600
I1
sVdtjanaq
p1601
I1
sVdeubg0k
p1602
I1
sVd5jk4pv
p1603
I1
sVczq0hxn
p1604
I1
sVdfvl24o
p1605
I1
sVdfm01qy
p1606
I1
sVdigc8xz
p1607
I1
sVdandm8j
p1608
I1
sVdcjczd5
p1609
I1
sVd4qqwr3
p1610
I1
sVdmeo8kt
p1611
I1
sVd64igh1
p1612
I1
sVd8ai5f6
p1613
I1
sVdkkipgb
p1614
I1
sVdbac0l7
p1615
I1
sVdi9rqfv
p1616
I1
sVd0ub50n
p1617
I1
sVdf62z9i
p1618
I1
sVdqs40vx
p1619
I2
sVddiiph7
p1620
I2
sVd77dw2i
p1621
I1
sVdj4frii
p1622
I1
sVd78f0t4
p1623
I1
sVd58eggh
p1624
I1
sVd65wvfa
p1625
I1
sVdhqnoos
p1626
I1
sVcywhj8u
p1627
I1
sVddmbif3
p1628
I1
sVd1fputc
p1629
I1
sVcz9fqkg
p1630
I1
sVdowban3
p1631
I1
sVdn3errx
p1632
I1
sVdp6luwy
p1633
I1
sVd4doy1m
p1634
I1
sVdc35i6j
p1635
I1
sVd1x7mge
p1636
I1
sVdaawvdc
p1637
I1
sVdb21pb4
p1638
I1
sVd3arxau
p1639
I1
sVd3rdtz6
p1640
I1
sVde2bpiz
p1641
I1
sVd5wi3rd
p1642
I1
sVczlccyh
p1643
I2
sVdrdxwqk
p1644
I1
sVcystnv0
p1645
I1
sVd97p400
p1646
I1
sVdkirevr
p1647
I1
sVdc6ygtn
p1648
I2
sVds8o09c
p1649
I1
sVd1meisg
p1650
I1
sVdirmmu0
p1651
I1
sVd73eh4e
p1652
I1
sVdj2j94m
p1653
I1
sVd14l95o
p1654
I1
sVdbv6m77
p1655
I1
sVcytetdj
p1656
I1
sVdh5jwq7
p1657
I1
sVdnyoc0j
p1658
I1
sVdbgqbkd
p1659
I1
sVddxdcjq
p1660
I1
sVdc0wd2z
p1661
I1
sVdav6bmp
p1662
I1
sVcz06kzq
p1663
I1
sVd60dgc6
p1664
I1
sVd220t2v
p1665
I1
sVdayepwh
p1666
I1
sVddg5u5q
p1667
I1
sVd3e0o1a
p1668
I1
sVdcue9ph
p1669
I1
sVdkqphd7
p1670
I1
sVdjonll2
p1671
I1
sVd0ytlxr
p1672
I1
sVdg1lhov
p1673
I1
sVdtettm2
p1674
I1
sVde70c1g
p1675
I1
sVd23rnxu
p1676
I1
sVd5jc565
p1677
I1
sVd7e5lri
p1678
I1
sVdefon50
p1679
I1
sVd2hoi0h
p1680
I1
sVda8jnm3
p1681
I1
sVdmi6qla
p1682
I1
sVdjehqll
p1683
I1
sVdg48x61
p1684
I1
sVdp6w33x
p1685
I1
sVda45tlt
p1686
I1
sVd7j9q2u
p1687
I1
sVd198kvo
p1688
I1
sVd4gs5tc
p1689
I1
sVdhad0fy
p1690
I1
sVd2nbg9w
p1691
I1
sVd43t1sg
p1692
I4
sVdd6me3p
p1693
I1
sVdcjqeha
p1694
I1
sVd8d95fy
p1695
I1
sVdhly2zw
p1696
I1
sVd2scdbs
p1697
I1
sVd19fe19
p1698
I1
sVcywrp5d
p1699
I1
sVd0i92h7
p1700
I1
sVdfafkcw
p1701
I1
sVd1v9r8z
p1702
I1
sVd4hf5tk
p1703
I1
sVd99sizw
p1704
I1
sVdjc0yw0
p1705
I1
sVd9ne4et
p1706
I1
sVdcv0olv
p1707
I1
sVd3719tu
p1708
I1
sVd93byt3
p1709
I3
sVdn1p5jk
p1710
I2
sVdnj0xdn
p1711
I1
sVdbmi45l
p1712
I1
sVdq9dvlz
p1713
I1
sVcyls1aw
p1714
I1
sVcyjqlv1
p1715
I1
sVdb0dv4y
p1716
I1
sVd0l0h9w
p1717
I1
sVdf907lu
p1718
I1
sVdct73ss
p1719
I1
sVdsnh1r7
p1720
I1
sVdd3crpi
p1721
I1
sVd84j6xx
p1722
I1
sVd2um1bg
p1723
I1
sVd73iijl
p1724
I1
sVdn563na
p1725
I1
sVdny01u9
p1726
I1
sVd27fnum
p1727
I1
sVd2uufe4
p1728
I1
sVdao30b1
p1729
I1
sVdjcbeae
p1730
I1
sVd5d5bnx
p1731
I1
sVd3smaab
p1732
I1
sVd35lpll
p1733
I1
sVdpoxqbg
p1734
I1
sVd4cjnyc
p1735
I1
sVdfp5ix1
p1736
I1
sVdo7gijv
p1737
I1
sVdqjpjlw
p1738
I1
sVdq4h9ch
p1739
I2
sVd8ia1gx
p1740
I1
sVdmpxuql
p1741
I1
sVdd76kqf
p1742
I1
sVd7o0660
p1743
I1
sVczg40kh
p1744
I1
sVdfkdd7q
p1745
I1
sVdejfmb4
p1746
I1
sVd4tuf0h
p1747
I1
sVd8timpm
p1748
I1
sVd3xptgf
p1749
I1
sVdav6iue
p1750
I1
sVdmikzcw
p1751
I1
sVdt2lyah
p1752
I1
sVdkqiuw9
p1753
I1
sVdqldevm
p1754
I1
sVd5a8pt5
p1755
I1
sVds53eid
p1756
I1
sVdeuzhy8
p1757
I1
sVd3g0weo
p1758
I1
sVdbro1lh
p1759
I1
sVd85z4xd
p1760
I1
sVdii9ztf
p1761
I1
sVdf74gwk
p1762
I1
sVddxogcm
p1763
I1
sVdk4gojo
p1764
I1
sVd6iapeb
p1765
I1
sVdgtyv6n
p1766
I1
sVd5gzsvh
p1767
I1
sVd5rxcac
p1768
I1
sVd3rewsv
p1769
I1
sVd29iyqe
p1770
I1
sVdgb65hz
p1771
I1
sVd1gpkh2
p1772
I1
sVd1yyd4a
p1773
I1
sVd8bj5ej
p1774
I1
sVd3cd13e
p1775
I1
sVdjrvytv
p1776
I1
sVdom0m7d
p1777
I1
sVdhyb2a7
p1778
I1
sVde3jbd2
p1779
I1
sVdjxe09o
p1780
I1
sVdjo8f59
p1781
I2
sVdn4dw27
p1782
I1
sVdrkb9vs
p1783
I1
sVdp99151
p1784
I1
sVdccbcd3
p1785
I1
sVdhe3p3i
p1786
I1
sVd64o2d3
p1787
I1
sVdabjoga
p1788
I1
sVdqnz54u
p1789
I1
sVd2cjmbp
p1790
I1
sVd5iwsdw
p1791
I2
sVdj6clbz
p1792
I1
sVd7myo2f
p1793
I1
sVdda0l00
p1794
I1
sVddxmu01
p1795
I1
sVd6oyhb1
p1796
I1
sVd2liu6q
p1797
I1
sVdhglqjt
p1798
I1
sVdkontqn
p1799
I1
sVdi3ji51
p1800
I1
sVdh8bun7
p1801
I1
sVdsvpsug
p1802
I1
sVdf8r6kc
p1803
I1
sVczjufcj
p1804
I1
sVdf62uh7
p1805
I1
sVd8d2i2v
p1806
I1
sVdctjo1u
p1807
I2
sVd3yx531
p1808
I1
sVdc6hdc8
p1809
I1
sVd9bxdom
p1810
I1
sVd32u7fn
p1811
I1
sVddccqm5
p1812
I1
sVczodq36
p1813
I1
sVdpp12hx
p1814
I1
sVdab0mfi
p1815
I1
sVcyvphu7
p1816
I1
sVdape0mb
p1817
I1
sVd2z2dqa
p1818
I2
sVde394hb
p1819
I1
sVddwi6po
p1820
I1
sVdd9ymgd
p1821
I1
sVd3jb2au
p1822
I1
sVdfvqvad
p1823
I1
sVdn0yphu
p1824
I2
sVd3r4h5g
p1825
I1
sVdf70w5w
p1826
I1
sVda6tzkn
p1827
I1
sVdnm960z
p1828
I1
sVd0v3nx9
p1829
I1
sVd3iwtjy
p1830
I1
sVdde9jla
p1831
I1
sVczv1qt5
p1832
I1
sVd6tshzw
p1833
I1
sVddowmgy
p1834
I1
sVdodo5x0
p1835
I1
sVd97e7mm
p1836
I1
sVczgsnwo
p1837
I1
sVdfiupqb
p1838
I1
sVdi86puv
p1839
I1
sVdcu7hbt
p1840
I1
sVdr6x26i
p1841
I1
sVd0c8xsx
p1842
I1
sVd6614vv
p1843
I1
sVdo4zy0b
p1844
I1
sVdepg64q
p1845
I1
sVd9n39bt
p1846
I2
sVd3ydtoh
p1847
I1
sVd79djc4
p1848
I1
sVd8lpbzj
p1849
I1
sVd2emgkp
p1850
I1
sVd9hg55g
p1851
I1
sVd7v3g8t
p1852
I1
sVd9sr1yl
p1853
I1
sVd8siznm
p1854
I1
sVdh74gt0
p1855
I1
sVdipp9do
p1856
I1
sVd6340d1
p1857
I1
sVda0gkzy
p1858
I1
sVdgyg8ju
p1859
I1
sVdb1lc66
p1860
I1
sVdf1z8ck
p1861
I1
sVd69coil
p1862
I1
sVdpvboiu
p1863
I1
sVd2evjhh
p1864
I1
sVd80qo50
p1865
I1
sVdb8acpx
p1866
I1
sVczov7z6
p1867
I1
sVdi7xtk0
p1868
I1
sVd4kyj07
p1869
I1
sVd57pkdy
p1870
I1
sVdds0ovy
p1871
I1
sVd7noik1
p1872
I1
sVd3w5z4u
p1873
I1
sVczox3uq
p1874
I1
sVdn5rg6n
p1875
I2
sVdbnpha6
p1876
I2
sVds8efnz
p1877
I1
sVd01pwbc
p1878
I1
sVddhijwr
p1879
I1
sVd9jklts
p1880
I1
sVd4n9l79
p1881
I1
sVda5e44e
p1882
I1
sVdgfm6pl
p1883
I1
sVd6f1xy3
p1884
I1
sVd19npjw
p1885
I1
sVdc6j9nh
p1886
I1
sVd2m0793
p1887
I1
sVdizmqgn
p1888
I1
sVd25wdk7
p1889
I1
sVd1c6xgk
p1890
I1
sVd0ffq5r
p1891
I1
sVdn7l4vx
p1892
I1
sVd7lchd4
p1893
I1
sVd3g5uy9
p1894
I1
sVdibfx0n
p1895
I1
sVdj8b5vt
p1896
I1
sVcyttk5a
p1897
I1
sVdgc40by
p1898
I1
sVd5583vb
p1899
I2
sVd9azw45
p1900
I1
sVdboul64
p1901
I1
sVdbitjzd
p1902
I1
sVdjgdf48
p1903
I1
sVd1rqyo8
p1904
I1
sVd5djgv6
p1905
I2
sVdkoleaj
p1906
I1
sVd4qxrcw
p1907
I1
sVd6uz0zg
p1908
I1
sVdemra9d
p1909
I1
sVd01bt99
p1910
I1
sVdt7puqm
p1911
I1
sVdtbajng
p1912
I1
sVd0j4pmg
p1913
I1
sVdjy2l7t
p1914
I1
sVd595ibo
p1915
I1
sVdfpxm2c
p1916
I1
sVdcastd2
p1917
I1
sVdjjtrko
p1918
I1
sVd4oyexa
p1919
I1
sVczzz9tb
p1920
I2
sVdaa6hdc
p1921
I1
sVdg3nwp7
p1922
I1
sVd8thwj9
p1923
I1
sVdjtothk
p1924
I1
sVd1fddn1
p1925
I1
sVd82u9lq
p1926
I2
sVd4zi8za
p1927
I1
sVd06p7q1
p1928
I1
sVdfcx69u
p1929
I1
sVdooj0yp
p1930
I1
sVdgrzm92
p1931
I1
sVdgh318e
p1932
I1
sVczp5gqi
p1933
I2
sVd43oj0h
p1934
I1
sVd4rlqn7
p1935
I1
sVdjtn7b2
p1936
I1
sVd7oipgd
p1937
I1
sVcysfpjt
p1938
I1
sVcyi2s6f
p1939
I1
sVdrp3eye
p1940
I1
sVdcu7lwh
p1941
I1
sVdbv4pkr
p1942
I1
sVdja6nin
p1943
I1
sVd52ow69
p1944
I1
sVdjiyfs2
p1945
I1
sVdf8nov2
p1946
I1
sVd96vtu2
p1947
I1
sVdgp0m2g
p1948
I1
sVd2en6db
p1949
I1
sVd7hxeqa
p1950
I1
sVd3lrotc
p1951
I1
sVdeijaqz
p1952
I1
sVd2hqba2
p1953
I1
sVdd7f9fw
p1954
I2
sVd5cpcpf
p1955
I1
sVd1cqftj
p1956
I1
sVdh3iug4
p1957
I2
sVd6f9i7n
p1958
I1
sVd8nnkoe
p1959
I1
sVd05wi6n
p1960
I1
sVd1efy89
p1961
I1
sVd7m1two
p1962
I1
sVdmgw552
p1963
I1
sVda6iqos
p1964
I1
sVd8aqdet
p1965
I1
sVdsuhwxa
p1966
I1
sVdhcqlhm
p1967
I1
sVdcj6922
p1968
I1
sVdnhqgdf
p1969
I1
sVd15n2lg
p1970
I1
sVdrqh75o
p1971
I1
sVd79n10a
p1972
I1
sVdbgrrpb
p1973
I1
sVdd3sxeh
p1974
I1
sVds06syf
p1975
I1
sVd52sz98
p1976
I1
sVd3jg95f
p1977
I2
sVd424d4b
p1978
I1
sVds1lkw8
p1979
I1
sVd4lteov
p1980
I1
sVddnw62n
p1981
I1
sVdnzsg64
p1982
I1
sVcz359c0
p1983
I1
sVd7zfcta
p1984
I1
sVdmin5lr
p1985
I1
sVd0sglah
p1986
I1
sVd574yvv
p1987
I1
sVde1mzzp
p1988
I1
sVcyzv231
p1989
I1
sVdod35a0
p1990
I2
sVdcs1bj3
p1991
I1
sVdjoho8s
p1992
I1
sVd1hfcps
p1993
I1
sVdr8mj50
p1994
I1
sVdsx8jn8
p1995
I1
sVd91usps
p1996
I1
sVdii7tfg
p1997
I1
sVd4igr0s
p1998
I1
sVdow1itt
p1999
I1
sVdqhyypq
p2000
I1
sVdjpzlfe
p2001
I1
sVd4v32vi
p2002
I1
sVdibpsya
p2003
I1
sVdmxo4pk
p2004
I1
sVdefd965
p2005
I1
sVd768p2s
p2006
I2
sVdj8rz9u
p2007
I1
sVdc2iqd2
p2008
I1
sVd30y77j
p2009
I1
sVdmsgbsk
p2010
I1
sVd3gd2q8
p2011
I1
sVddster2
p2012
I1
sVd12x90i
p2013
I1
sVd8t55zf
p2014
I1
sVddfc5a1
p2015
I1
sVdabskis
p2016
I1
sVczlizwq
p2017
I1
sVd984109
p2018
I1
sVdit0gpc
p2019
I1
sVdjlvfi8
p2020
I1
sVd6abatc
p2021
I1
sVdf7g5ji
p2022
I1
sVdgx7ld8
p2023
I1
sVd3bo3d9
p2024
I1
sVddd2l7a
p2025
I1
sVdpsbk5x
p2026
I2
sVd8sfc1n
p2027
I1
sVczav3zi
p2028
I1
sVdad59r6
p2029
I1
sVdigo0we
p2030
I1
sVd0udgnt
p2031
I1
sVdd0b1ie
p2032
I1
sVd5vvvm5
p2033
I1
sVdf5hu7u
p2034
I1
sVd0v1k8v
p2035
I1
sVdbznezz
p2036
I1
sVd8n2k7m
p2037
I2
sVd9cqwg7
p2038
I1
sVdbxrdbw
p2039
I1
sVdoyp8ez
p2040
I1
sVdegvysk
p2041
I1
sVdid0ccr
p2042
I2
sVdrvv1gb
p2043
I1
sVdhbytw9
p2044
I1
sVdfeichx
p2045
I1
sVd4odr36
p2046
I1
sVdp7m38j
p2047
I1
sVdsd2prk
p2048
I1
sVd3vtx28
p2049
I1
sVd0rqapl
p2050
I1
sVcylbvzl
p2051
I1
sVds2lrkr
p2052
I1
sVdixhta0
p2053
I1
sVd3gdy22
p2054
I1
sVczatlur
p2055
I1
sVd21rdc8
p2056
I1
sVd78cyuq
p2057
I1
sVdmn3huu
p2058
I1
sVdo08dw7
p2059
I2
sVdbtqs66
p2060
I1
sVdkqqeio
p2061
I1
sVd080shq
p2062
I1
sVd7dcm3u
p2063
I1
sVdc0t3ww
p2064
I1
sVdg45k2i
p2065
I1
sVd4tlpwq
p2066
I1
sVd7gjsjv
p2067
I1
sVd20zubu
p2068
I1
sVd38557l
p2069
I1
sVdkjqp6c
p2070
I1
sVcyxkiai
p2071
I1
sVcyv101b
p2072
I1
sVdcvdwkp
p2073
I2
sVd6ficow
p2074
I1
sVd2becjg
p2075
I1
sVdnvtdb1
p2076
I1
sVddcmqaw
p2077
I1
sVdrfdk50
p2078
I1
sVd5cxqnn
p2079
I2
sVddh57ee
p2080
I1
sVdc8bqzv
p2081
I1
sVdtfba8j
p2082
I1
sVd3q8upi
p2083
I1
sVdk79zdk
p2084
I1
sVd67teum
p2085
I1
sVdandw58
p2086
I1
sVcz4q3n4
p2087
I1
sVd97cndg
p2088
I1
sVdck39ni
p2089
I1
sVd8amyyb
p2090
I1
sVcz3dtfl
p2091
I1
sVds8nm2t
p2092
I2
sVcz68bqi
p2093
I1
sVdrqlgzl
p2094
I1
sVd8ecw3p
p2095
I1
sVdexhuxy
p2096
I1
sVdpd0kyg
p2097
I1
sVddbpz7w
p2098
I1
sVd05azn4
p2099
I1
sVcz6y28s
p2100
I1
sVd1vfg6n
p2101
I1
sVd7dr74n
p2102
I1
sVd6xijqn
p2103
I1
sVd8k0671
p2104
I1
sVdbg2w1h
p2105
I1
sVdcwpzd3
p2106
I1
sVd23syrn
p2107
I1
sVdhf1akq
p2108
I1
sVczwdnko
p2109
I1
sVdirqpmy
p2110
I1
sVdrpe6h1
p2111
I1
sVdimrpc7
p2112
I1
sVd5j5x7e
p2113
I1
sVdfqer5k
p2114
I1
sVd1n1qy9
p2115
I1
sVcyp8vws
p2116
I1
sVdauddsp
p2117
I1
sVd4npwzc
p2118
I1
sVd82xw3h
p2119
I2
sVdjtnyz4
p2120
I1
sVd96ufbs
p2121
I1
sVdj2g7tc
p2122
I1
sVdgdvvvs
p2123
I1
sVdgau7di
p2124
I1
sVddtvk0s
p2125
I1
sVdah3rzi
p2126
I1
sVd10tpvc
p2127
I1
sVdchz5eg
p2128
I1
sVdr8oh78
p2129
I3
sVdd8xsxg
p2130
I1
sVd0n5r5o
p2131
I1
sVdf1i5lr
p2132
I2
sVdf10qzi
p2133
I1
sVdgjmuxm
p2134
I1
sVczigyg2
p2135
I1
sVd6m30qt
p2136
I1
sVdp5ef4d
p2137
I1
sVdd1nysx
p2138
I1
sVdi7ooat
p2139
I1
sVdbeptnu
p2140
I1
sVdprp2qi
p2141
I1
sVd73gfva
p2142
I1
sVdj3lx7p
p2143
I4
sVdi88l06
p2144
I1
sVcyn2xrb
p2145
I1
sVd39lh9r
p2146
I1
sVd4zucrt
p2147
I1
sVdc49pq3
p2148
I1
sVdaqeuoj
p2149
I1
sVd1qdeye
p2150
I1
sVcz6zjo5
p2151
I1
sVdq9t2n9
p2152
I1
sVdfh1y93
p2153
I1
sVdjx2bl1
p2154
I1
sVd7zug4o
p2155
I1
sVdkc16d3
p2156
I1
sVd8pii1f
p2157
I1
sVd9yyk5b
p2158
I1
sVdc5pcsx
p2159
I1
sVd1jg825
p2160
I1
sVd7byfka
p2161
I1
sVdgwuybj
p2162
I1
sVdfl3eaj
p2163
I1
sVdooxytj
p2164
I1
sVd3xuees
p2165
I1
sVdetpo20
p2166
I2
sVd940be5
p2167
I1
sVd5m19cz
p2168
I1
sVczpgsaq
p2169
I2
sVd6aku9h
p2170
I1
sVdt4nyrr
p2171
I1
sVcyty9tc
p2172
I1
sVd7n9w6k
p2173
I1
sVdjegjcx
p2174
I1
sVdgtorqb
p2175
I1
sVdgncta1
p2176
I1
sVdewi66d
p2177
I1
sVcyumrrb
p2178
I1
sVdgqjmdp
p2179
I1
sVd3xhocr
p2180
I1
sVdei6v36
p2181
I1
sVd0ivuku
p2182
I1
sVdj1zit8
p2183
I1
sVd04dawn
p2184
I1
sVdi8feuh
p2185
I1
sVd1tcmrx
p2186
I1
sVd62lnb0
p2187
I1
sVd56jbvo
p2188
I1
sVdmgs3jq
p2189
I1
sVcymgmk3
p2190
I1
sVdibc9ek
p2191
I1
sVdhlmycj
p2192
I1
sVdano7mi
p2193
I1
sVdb87xsq
p2194
I1
sVds6cssk
p2195
I1
sVd4ej9do
p2196
I1
sVdf5g3qq
p2197
I1
sVd756tba
p2198
I1
sVd23inha
p2199
I1
sVdsevsuj
p2200
I1
sVd28op7l
p2201
I1
sVdmohr3b
p2202
I1
sVdt3t7pv
p2203
I1
sVdmzwv3w
p2204
I1
sVcyw89u3
p2205
I1
sVd03dwfb
p2206
I1
sVd0b1rag
p2207
I1
sVd2uv37w
p2208
I1
sVddq9lc4
p2209
I1
sVdiowh71
p2210
I1
sVdegib9d
p2211
I1
sVd2zvu9x
p2212
I1
sVd1joicw
p2213
I1
sVdg7dha7
p2214
I1
sVdeha3jp
p2215
I1
sVdqbbqz8
p2216
I1
sVdgnetgd
p2217
I1
sVczqdzfo
p2218
I1
sVd6wkxch
p2219
I1
sVd1fzv3t
p2220
I2
sVd3ehlnk
p2221
I1
sVcz4i1wf
p2222
I1
sVdc9l6oj
p2223
I1
sVcyk1i3b
p2224
I1
sVd6wy5dk
p2225
I1
sVdn00oko
p2226
I1
sVddwr0eu
p2227
I1
sVcyr3uit
p2228
I1
sVcz0io6i
p2229
I1
sVdidlgfh
p2230
I1
sVd89l2hn
p2231
I1
sVdqunhlx
p2232
I1
sVd2oy5k8
p2233
I5
sVd2wmhzf
p2234
I1
sVdcj4hna
p2235
I1
sVdht4xls
p2236
I1
sVdg7ujas
p2237
I1
sVddc0pnp
p2238
I1
sVdefxw0n
p2239
I2
sVdawwwro
p2240
I1
sVdrwl2at
p2241
I1
sVdivz0qs
p2242
I1
sVdittsj8
p2243
I1
sVdszjwzf
p2244
I1
sVdkl1wis
p2245
I1
sVd0h00jh
p2246
I1
sVd0o9fsj
p2247
I1
sVdj6a7sv
p2248
I1
sVdiui2ja
p2249
I1
sVd3eaghn
p2250
I1
sVd6gpjsq
p2251
I1
sVdev18nd
p2252
I1
sVdt08jv8
p2253
I1
sVdj40xin
p2254
I1
sVd5myxma
p2255
I1
sVdandzrh
p2256
I2
sVdexuga1
p2257
I1
sVd139muk
p2258
I1
sVd2kmv3j
p2259
I1
sVdnaycft
p2260
I1
sVdhlfq71
p2261
I1
sVdihiwit
p2262
I1
sVdb4chgz
p2263
I1
sVd44jys3
p2264
I1
sVd17gjh0
p2265
I1
sVd8ivzoh
p2266
I2
sVdikt0cr
p2267
I1
sVd7u8u8v
p2268
I1
sVd2x07ad
p2269
I1
sVdc2iwx7
p2270
I1
sVdba06v0
p2271
I1
sVdkvqei6
p2272
I1
sVczds0ft
p2273
I1
sVdqhkx06
p2274
I1
sVdfm1w33
p2275
I1
sVdd0yvml
p2276
I1
sVd80ral5
p2277
I1
sVdhrl2r7
p2278
I1
sVdgp8yuw
p2279
I1
sVda80vnz
p2280
I1
sVd9vtfki
p2281
I1
sVd39n07i
p2282
I1
sVda9e8sf
p2283
I2
sVdnrc4m3
p2284
I2
sVczimy01
p2285
I1
sVd89e782
p2286
I1
sVdcqhtla
p2287
I1
sVd1abial
p2288
I1
sVd4igdno
p2289
I1
sVdd9cxw1
p2290
I1
sVd36mbd4
p2291
I1
sVdghzrw8
p2292
I1
sVd1gxqu9
p2293
I1
sVd41z2pg
p2294
I1
sVdc051c5
p2295
I1
sVdkjpq0g
p2296
I1
sVd8j7sx4
p2297
I1
sVd7wqeel
p2298
I1
sVdgobz52
p2299
I1
sVcywkjd6
p2300
I1
sVdb42nh6
p2301
I1
sVdff1pzs
p2302
I1
sVdcxypth
p2303
I1
sVde9pwaa
p2304
I1
sVd8kaolu
p2305
I1
sVdms95ds
p2306
I1
sVd28vaz8
p2307
I1
sVdgu04bn
p2308
I1
sVd2de7x2
p2309
I1
sVd0gwiin
p2310
I1
sVdf9ttro
p2311
I1
sVdi4tytu
p2312
I1
sVd0ic3kc
p2313
I1
sVdou4esh
p2314
I2
sVd5di4ur
p2315
I1
sVczm21mw
p2316
I3
sVdenw2e0
p2317
I1
sVde63oss
p2318
I1
sVdeoafxq
p2319
I1
sVd382cf0
p2320
I1
sVde3y2is
p2321
I1
sVdgsd4ho
p2322
I1
sVdgxjjrw
p2323
I1
sVd7nkxy0
p2324
I1
sVdnhliqm
p2325
I1
sVd3gqg3j
p2326
I1
sVdhzedqk
p2327
I1
sVd2321wb
p2328
I1
sVd6qpvmb
p2329
I1
sVdrxjai5
p2330
I1
sVdreybv1
p2331
I1
sVdt0vj0d
p2332
I1
sVddhnxqn
p2333
I1
sVdabjkwd
p2334
I1
sVd3x44ax
p2335
I1
sVdayk9li
p2336
I1
sVddrmnxm
p2337
I1
sVdefqni2
p2338
I1
sVd9nmm3f
p2339
I1
sVcymrrgs
p2340
I1
sVczopp0g
p2341
I1
sVd2xlb7i
p2342
I1
sVdjw420e
p2343
I1
sVdhw8mjm
p2344
I2
sVdn82kr0
p2345
I1
sVdi0v2gt
p2346
I1
sVd2ntfwx
p2347
I1
sVd8izjgf
p2348
I1
sVddt5ax7
p2349
I1
sVdklwkd2
p2350
I1
sVdq5ldc5
p2351
I1
sVdfmhpgm
p2352
I1
sVdjnuodd
p2353
I1
sVdr0pvhy
p2354
I2
sVd0tlhh4
p2355
I1
sVd42q5mc
p2356
I1
sVd38xhhj
p2357
I1
sVd7vv78e
p2358
I2
sVd2rdkf3
p2359
I2
sVdtb4rqr
p2360
I1
sVdbf7egs
p2361
I1
sVd0x99h1
p2362
I2
sVd569obt
p2363
I1
sVd03xuat
p2364
I1
sVdc463aw
p2365
I1
sVd03izfy
p2366
I1
sVdifpk7x
p2367
I1
sVda0daqg
p2368
I1
sVdfvqraq
p2369
I1
sVd1d9jxe
p2370
I1
sVdbub7vn
p2371
I1
sVd66u3by
p2372
I1
sVdogpury
p2373
I1
sVd3qyr0b
p2374
I1
sVd47vb06
p2375
I7
sVcztwfhe
p2376
I1
sVdep7o5o
p2377
I1
sVddoqdp0
p2378
I1
sVdaxbwkx
p2379
I1
sVdgfmqai
p2380
I1
sVdjz2oau
p2381
I1
sVcyv4sle
p2382
I1
sVdarflu7
p2383
I2
sVdq9x99s
p2384
I1
sVd5pen77
p2385
I1
sVdqqi5hs
p2386
I1
sVddrwqac
p2387
I1
sVczz970r
p2388
I1
sVdeml3xa
p2389
I1
sVd72450y
p2390
I1
sVd5y7b82
p2391
I1
sVd2aqnt5
p2392
I1
sVd1kof6w
p2393
I1
sVdt2kcgy
p2394
I1
sVddngs8z
p2395
I1
sVczv2nsc
p2396
I2
sVdnn5pxo
p2397
I1
sVd5zoib1
p2398
I1
sVd00ivcu
p2399
I1
sVdeey8f5
p2400
I1
sVdeajtb6
p2401
I1
sVd6skq1m
p2402
I1
sVdtfn4kf
p2403
I1
sVdkf6i3m
p2404
I2
sVcyllqeu
p2405
I1
sVcys0xcs
p2406
I1
sVd1b8hbn
p2407
I1
sVdho8q90
p2408
I1
sVd1s49v9
p2409
I1
sVd35gu53
p2410
I1
sVd3sfbyr
p2411
I2
sVde7ncmr
p2412
I1
sVd079shy
p2413
I1
sVdfg1ppy
p2414
I1
sVdc4i5e5
p2415
I1
sVczmnf5u
p2416
I1
sVd8rrldo
p2417
I1
sVdk8dwwt
p2418
I1
sVdquy440
p2419
I1
sVczcuqkx
p2420
I1
sVdbb1xfu
p2421
I1
sVdmtqjji
p2422
I1
sVdnwojr8
p2423
I1
sVcypke92
p2424
I1
sVd3j4iqv
p2425
I1
sVd27iew8
p2426
I1
sVd4u7k7y
p2427
I1
sVd0o9epu
p2428
I1
sVd59ki1o
p2429
I1
sVcz3s1y8
p2430
I1
sVd63zax1
p2431
I1
sVd3rbvfu
p2432
I1
sVd918ip8
p2433
I1
sVdc66mlo
p2434
I1
sVd7yhyd6
p2435
I1
sVdkjfd7j
p2436
I1
sVd4xfe01
p2437
I1
sVdhg61r7
p2438
I1
sVcym9due
p2439
I1
sVd5z163o
p2440
I1
sVdr0e4fy
p2441
I1
sVd1wxr8b
p2442
I1
sVd58sipp
p2443
I1
sVd6nvdrm
p2444
I1
sVczzh8e7
p2445
I1
sVczzfhwa
p2446
I1
sVdbksejl
p2447
I1
sVd2r0f8w
p2448
I1
sVd10cf63
p2449
I1
sVdrqtxv1
p2450
I1
sVd6007np
p2451
I1
sVdmlxrnu
p2452
I1
sVdtcvepn
p2453
I1
sVd0qfcgp
p2454
I3
sVd8rdm60
p2455
I1
sVdair1l8
p2456
I1
sVddalrnz
p2457
I1
sVdmrlroo
p2458
I1
sVdke8f1t
p2459
I1
sVdglymcf
p2460
I1
sVdbbot74
p2461
I6
sVd6f927h
p2462
I1
sVdcsnmvo
p2463
I1
sVdrxb3i3
p2464
I1
sVdfvc8n4
p2465
I1
sVd6vaj6b
p2466
I1
sVd1isz05
p2467
I1
sVdddqq5e
p2468
I1
sVdswtrmo
p2469
I1
sVczq37o7
p2470
I1
sVdn2y8cl
p2471
I1
sVdruppo4
p2472
I1
sVdiha7cd
p2473
I1
sVdeice21
p2474
I1
sVdcsekod
p2475
I1
sVdqebsck
p2476
I1
sVdhp04h5
p2477
I1
sVdabjubv
p2478
I3
sVdjuiukg
p2479
I1
sVd81g00f
p2480
I1
sVdhzkt34
p2481
I1
sVd33cplt
p2482
I1
sVddhx4o1
p2483
I1
sVd5vy5ug
p2484
I1
sVd7smv28
p2485
I1
sVdhsn7d1
p2486
I1
sVd60podg
p2487
I1
sVdmmyd3m
p2488
I1
sVdbq6qg7
p2489
I1
sVczml96h
p2490
I1
sVdg6xavq
p2491
I1
sVddn0d2f
p2492
I1
sVdg156u3
p2493
I1
sVdp18tf7
p2494
I1
sVdomfhhl
p2495
I1
sVd8swqjt
p2496
I1
sVd8yvpkc
p2497
I1
sVd3xwqk9
p2498
I1
sVdglii4p
p2499
I1
sVczf9tkh
p2500
I1
sVd6eonag
p2501
I1
sVdijhf02
p2502
I1
sVds3kns6
p2503
I1
sVd4rhboo
p2504
I3
sVd6qbw50
p2505
I1
sVcztdb0v
p2506
I1
sVdmkd5e0
p2507
I2
sVczechn6
p2508
I1
sVd37wy0s
p2509
I1
sVdqp2bep
p2510
I1
sVdmqca0a
p2511
I1
sVczopo4a
p2512
I1
sVdh8h8z8
p2513
I1
sVcypnslm
p2514
I1
sVd9zim7x
p2515
I2
sVcyj34nv
p2516
I1
sVd3nsb6h
p2517
I1
sVcztjcnv
p2518
I2
sVdk3984t
p2519
I1
sVdsukhg4
p2520
I1
sVd8dgpch
p2521
I1
sVczqn92x
p2522
I1
sVd28664n
p2523
I2
sVd72hjji
p2524
I1
sVdr1ci6t
p2525
I1
sVdaft30t
p2526
I1
sVdbc576b
p2527
I1
sVdh0t82x
p2528
I1
sVdffc2s1
p2529
I2
sVd198m79
p2530
I1
sVcyw5sf4
p2531
I2
sVd1yimyw
p2532
I1
sVd0f3n6o
p2533
I1
sVd90q32j
p2534
I5
sVdij96s3
p2535
I1
sVcz5cl2q
p2536
I2
sVcyoyh0r
p2537
I1
sVd16gadm
p2538
I1
sVd7aj4kc
p2539
I1
sVdoawsxo
p2540
I1
sVdduyhfd
p2541
I1
sVcyru9mt
p2542
I1
sVd5blban
p2543
I1
sVdonkd50
p2544
I1
sVd4iqfce
p2545
I1
sVdi2ek68
p2546
I1
sVdily75y
p2547
I1
sVdic1kpe
p2548
I1
sVd24wk9f
p2549
I1
sVcz2vht7
p2550
I1
sVdc6f1bd
p2551
I1
sVdpuz0q1
p2552
I1
sVd217cx5
p2553
I1
sVdht09zw
p2554
I1
sVdbf45mm
p2555
I1
sVd8l5yiw
p2556
I1
sVdg7ojmj
p2557
I1
sVdfna9r7
p2558
I1
sVd1eohpy
p2559
I1
sVdhjgxv8
p2560
I1
sVdnn1ku3
p2561
I1
sVczwz6rz
p2562
I1
sVdpuskji
p2563
I1
sVdf15xjm
p2564
I1
sVdca5pee
p2565
I1
sVd94hxnz
p2566
I1
sVdh9q1f0
p2567
I1
sVd1jqahf
p2568
I1
sVd8zvcuz
p2569
I1
sVddeeuw8
p2570
I1
sVd8njett
p2571
I1
sVcyl2xxy
p2572
I1
sVd1zn2yq
p2573
I1
sVdd07lfy
p2574
I1
sVdi0ahea
p2575
I1
sVd3eps3e
p2576
I1
sVd0iel99
p2577
I1
sVd9dopkx
p2578
I1
sVd5vmrh6
p2579
I1
sVd0p6laz
p2580
I1
sVd7h7pi9
p2581
I1
sVd95pqoh
p2582
I2
sVds8lrr9
p2583
I1
sVdk2d3or
p2584
I1
sVd1pp23w
p2585
I1
sVcz6wyib
p2586
I2
sVdfq37ki
p2587
I1
sVcytxsm6
p2588
I2
sVddohrlg
p2589
I1
sVd50zm5i
p2590
I1
sVdsbjywo
p2591
I1
sVddcrs13
p2592
I1
sVdqjydq9
p2593
I1
sVdqk0kb1
p2594
I1
sVdrf72xd
p2595
I1
sVd90h6nq
p2596
I1
sVcz2w8ul
p2597
I1
sVd4fe4r2
p2598
I1
sVczzw9qi
p2599
I1
sVd76v6ov
p2600
I1
sVdp1gk05
p2601
I3
sVd06p2j9
p2602
I1
sVcz7cq3u
p2603
I1
sVd80hcvx
p2604
I1
sVdjy46ir
p2605
I1
sVdbjoii3
p2606
I1
sVdh4q0ul
p2607
I4
sVdcsmurj
p2608
I1
sVdtalb6b
p2609
I1
sVcyjt90u
p2610
I1
sVd2xmv1t
p2611
I1
sVd5x6sz7
p2612
I1
sVdn3ebxg
p2613
I1
sVdfsx307
p2614
I2
sVd0num11
p2615
I2
sVcz8s300
p2616
I1
sVdh85k33
p2617
I1
sVd7ofor0
p2618
I1
sVd4ojskd
p2619
I2
sVd60r4l8
p2620
I1
sVdeinc4q
p2621
I1
sVd4zlrkw
p2622
I1
sVdr2me8k
p2623
I1
sVd0x7nph
p2624
I1
sVdg60rok
p2625
I1
sVd03gdh3
p2626
I1
sVdgtv45w
p2627
I1
sVd13adq4
p2628
I1
sVdmuel71
p2629
I2
sVd3du13r
p2630
I1
sVd4mg5ws
p2631
I1
sVd6sluws
p2632
I1
sVdgf6xt8
p2633
I1
sVdqml8e1
p2634
I1
sVd7w7m9t
p2635
I1
sVd1yda0b
p2636
I1
sVd0rnmll
p2637
I1
sVdnperov
p2638
I1
sVd2xgnyw
p2639
I1
sVcz9ukb1
p2640
I1
sVdc2j0r4
p2641
I1
sVdifqzb8
p2642
I1
sVdopu7fs
p2643
I1
sVd6cuez2
p2644
I1
sVd7qwtf8
p2645
I1
sVd32jkqd
p2646
I1
sVdnz3x4e
p2647
I1
sVdde15qg
p2648
I1
sVdot316p
p2649
I1
sVd35gbj7
p2650
I1
sVd1qm6jq
p2651
I1
sVdgsh0g4
p2652
I1
sVdfwelg1
p2653
I1
sVd2w4xig
p2654
I1
sVdbr3mqh
p2655
I1
sVdb24p38
p2656
I1
sVcznezvj
p2657
I1
sVdco926z
p2658
I1
sVd2a7vgl
p2659
I1
sVdi2uebk
p2660
I1
sVdh1z8ea
p2661
I1
sVdgqnu7y
p2662
I1
sVczcgjgj
p2663
I1
sVdb3lo69
p2664
I1
sVd8esycj
p2665
I1
sVdefhb7y
p2666
I1
sVd3c0erh
p2667
I1
sVdi4lkjq
p2668
I1
sVd1l4uyl
p2669
I1
sVd3xuskk
p2670
I1
sVdin3xvr
p2671
I1
sVdojfxqm
p2672
I1
sVcyjheo8
p2673
I1
sVdgmuivl
p2674
I1
sVd5v90u1
p2675
I1
sVdb1cd2e
p2676
I1
sVdnra3cy
p2677
I1
sVd9d5pse
p2678
I1
sVdfwu8dm
p2679
I1
sVdj6k8t7
p2680
I1
sVd022boq
p2681
I1
sVcz6365z
p2682
I1
sVdbdggo8
p2683
I1
sVdar85cw
p2684
I1
sVdo1h8yk
p2685
I1
sVdhrl8vp
p2686
I1
sVddbdlnn
p2687
I1
sVd7ckucm
p2688
I1
sVdpdpx2a
p2689
I1
sVdhy7bf6
p2690
I1
sVd3ik04u
p2691
I1
sVd10ti1r
p2692
I1
sVdaz8m3g
p2693
I1
sVdn40gom
p2694
I1
sVdgilunc
p2695
I1
sVd8jf4hy
p2696
I1
sVd6w32yb
p2697
I1
sVd8s7mif
p2698
I1
sVd41x60w
p2699
I1
sVd0mu0cy
p2700
I1
sVd3erm67
p2701
I1
sVdd8z8fx
p2702
I1
sVd9vtath
p2703
I1
sVcym11t3
p2704
I1
sVdb01e3q
p2705
I1
sVdakqd92
p2706
I1
sVdkft57k
p2707
I1
sVd9o9i7t
p2708
I1
sVd7vuxe3
p2709
I1
sVdhy3iyi
p2710
I1
sVdan2fs0
p2711
I1
sVd90rpdq
p2712
I2
sVd6z2qki
p2713
I1
sVds1itl9
p2714
I1
sVdh9ohar
p2715
I1
sVdat27qq
p2716
I2
sVcz09913
p2717
I1
sVd22o87r
p2718
I1
sVdemb7no
p2719
I1
sVd5w777j
p2720
I1
sVd8ymm0d
p2721
I1
sVczrooyt
p2722
I1
sVd1i7s0t
p2723
I1
sVdjm2zar
p2724
I1
sVd4i3uur
p2725
I1
sVd1kjoyj
p2726
I1
sVczgngjw
p2727
I1
sVd26f7o1
p2728
I2
sVdcse0bk
p2729
I1
sVdf65cqm
p2730
I1
sVd16earv
p2731
I9
sVdgk80k2
p2732
I1
sVdfbnnyy
p2733
I1
sVd5ei99k
p2734
I1
sVdta1ght
p2735
I1
sVdrk4kts
p2736
I1
sVd02cwvh
p2737
I1
sVdgpb6wg
p2738
I2
sVdo2m0gk
p2739
I1
sVd00g5om
p2740
I5
sVdoyiqor
p2741
I1
sVd6jflo4
p2742
I1
sVczgla07
p2743
I1
sVd72uc5k
p2744
I1
sVdnsi508
p2745
I1
sVdo4x968
p2746
I1
sVd8cwlhm
p2747
I1
sVdc5i66o
p2748
I1
sVd57wm5z
p2749
I1
sVd0vg106
p2750
I1
sVdn49t95
p2751
I1
sVd3a6o6f
p2752
I1
sVczahdmo
p2753
I1
sVdime583
p2754
I1
sVd6od81w
p2755
I1
sVds81ln5
p2756
I1
sVddtgru3
p2757
I1
sVdii43qm
p2758
I2
sVdesshzy
p2759
I1
sVd2uw5u4
p2760
I1
sVdg24w95
p2761
I1
sVd5wx3qw
p2762
I1
sVd17rb6k
p2763
I1
sVdh3942z
p2764
I1
sVde0zmx9
p2765
I1
sVdaa8uu9
p2766
I1
sVdirbzko
p2767
I1
sVd2e9ls5
p2768
I1
sVdteopqp
p2769
I1
sVd5z23ev
p2770
I1
sVdb94s0l
p2771
I1
sVdirgpbq
p2772
I1
sVdawx1ap
p2773
I1
sVd36mj02
p2774
I1
sVd537tim
p2775
I1
sVdd4vugp
p2776
I3
sVd7pz1s1
p2777
I1
sVd2dn092
p2778
I1
sVdtecmp9
p2779
I1
sVdad6jjg
p2780
I3
sVd28rtl5
p2781
I1
sVd10qvu9
p2782
I2
sVd1k7u3b
p2783
I1
sVdszvuju
p2784
I1
sVd7amcui
p2785
I1
sVd1bqik6
p2786
I1
sVdk9hkvt
p2787
I1
sVdihc65q
p2788
I1
sVd1tbpve
p2789
I3
sVdnene7f
p2790
I1
sVd8hd72s
p2791
I1
sVdc8pw70
p2792
I5
sVcyqdwcw
p2793
I1
sVdfbmst3
p2794
I1
sVd0nw4a1
p2795
I1
sVdpfqmfn
p2796
I1
sVd4nt01e
p2797
I1
sVd255tqo
p2798
I1
sVcyq6ho7
p2799
I1
sVddt44zu
p2800
I1
sVdappv5s
p2801
I1
sVdpdidux
p2802
I1
sVd9r2072
p2803
I1
sVd8so2dl
p2804
I1
sVd3yk80g
p2805
I1
sVcz7da3w
p2806
I1
sVdnksnnh
p2807
I1
sVd3hxspm
p2808
I1
sVczqgcay
p2809
I1
sVdb32ghq
p2810
I1
sVdi20jhd
p2811
I1
sVdfjgzte
p2812
I1
sVdeogn3o
p2813
I2
sVd9v367x
p2814
I1
sVd2cse3f
p2815
I3
sVdksnllz
p2816
I1
sVd5vopwb
p2817
I1
sVdbykzt6
p2818
I1
sVcyn164q
p2819
I1
sVdf4lpnd
p2820
I1
sVdpr5dsi
p2821
I1
sVdhqiw9l
p2822
I1
sVd2oenzj
p2823
I1
sVczusyfg
p2824
I1
sVdnuvo4m
p2825
I1
sVcz05853
p2826
I1
sVd8krpcu
p2827
I1
sVddndkhf
p2828
I1
sVdd3ow5m
p2829
I1
sVdilbv0w
p2830
I1
sVdcezi72
p2831
I1
sVd3nzeqz
p2832
I1
sVd9on0pi
p2833
I1
sVdrx6xnl
p2834
I1
sVd3fh1bh
p2835
I1
sVder4nkm
p2836
I1
sVd9806ku
p2837
I1
sVdedjxyz
p2838
I1
sVczop5fr
p2839
I1
sVd38adyg
p2840
I1
sVdnbnhcf
p2841
I1
sVdd9a3af
p2842
I1
sVd1h5uzn
p2843
I1
sVdteirtp
p2844
I1
sVdo9ywgi
p2845
I1
sVdowtm1n
p2846
I1
sVd7pppqv
p2847
I1
sVd7kc0ay
p2848
I1
sVd2hrx13
p2849
I1
sVdbmhixt
p2850
I2
sVdgasymv
p2851
I1
sVd2r5cne
p2852
I1
sVdc3fgws
p2853
I1
sVd6bsgib
p2854
I1
sVd1qv4vt
p2855
I2
sVczhldb1
p2856
I1
sVdrvjxo1
p2857
I1
sVdsxphts
p2858
I1
sVd26zw1r
p2859
I1
sVcyrjzse
p2860
I1
sVd5jzpi3
p2861
I1
sVd65jhlo
p2862
I1
sVd2ykz8g
p2863
I2
sVdbeqy8s
p2864
I2
sVdohm1t8
p2865
I1
sVdtetxdj
p2866
I1
sVd959nr8
p2867
I1
sVdfqtsmr
p2868
I1
sVdnhd8yy
p2869
I1
sVd3ibvvm
p2870
I1
sVd2nw55b
p2871
I1
sVdhl8ct8
p2872
I1
sVdg2dbpj
p2873
I1
sVd1q90ms
p2874
I1
sVdqh9pu9
p2875
I1
sVczrw6ld
p2876
I1
sVds0uocj
p2877
I1
sVdnepagv
p2878
I1
sVdn6rt9h
p2879
I1
sVd8yjy95
p2880
I1
sVde1uzrf
p2881
I1
sVd92yky5
p2882
I2
sVcyzhn59
p2883
I1
sVd1r0j61
p2884
I1
sVd88nlzz
p2885
I1
sVdfulqo4
p2886
I1
sVdg46l4m
p2887
I1
sVdazj3ql
p2888
I1
sVd5x4jcv
p2889
I2
sVd16xvlm
p2890
I1
sVdjdqec9
p2891
I1
sVdhzuegv
p2892
I1
sVd1nqqdk
p2893
I1
sVdi3148q
p2894
I1
sVd3ehk0z
p2895
I1
sVdeush9x
p2896
I1
sVd67vqsu
p2897
I1
sVcze3ro6
p2898
I1
sVdpqjqav
p2899
I1
sVdhia0yr
p2900
I1
sVd5x1djo
p2901
I1
sVdp4uvvc
p2902
I1
sVd6dyj39
p2903
I1
sVd20hqfo
p2904
I1
sVd6iz24e
p2905
I1
sVdskh2d8
p2906
I1
sVdmrwkxa
p2907
I1
sVdchwxv2
p2908
I1
sVdgc34t0
p2909
I1
sVdhcu1xw
p2910
I1
sVd0i21fx
p2911
I1
sVdi5dqyh
p2912
I1
sVdcdjhvj
p2913
I1
sVd5emsu3
p2914
I1
sVd4asi51
p2915
I1
sVdodwixv
p2916
I1
sVd7eu1ws
p2917
I1
sVcyvhh60
p2918
I1
sVddwm510
p2919
I1
sVddgalqn
p2920
I1
sVdkve09c
p2921
I1
sVd2ua9md
p2922
I2
sVd1mbspw
p2923
I1
sVd58nyyu
p2924
I1
sVdj7kmje
p2925
I1
sVdbpfuya
p2926
I1
sVd92h5b9
p2927
I1
sVdsp51d5
p2928
I1
sVczm0rbc
p2929
I1
sVdfvqntp
p2930
I1
sVdfq4way
p2931
I1
sVdcv0gdv
p2932
I1
sVdgs1ia7
p2933
I1
sVd45jh2y
p2934
I1
sVddexeax
p2935
I1
sVdffk4x0
p2936
I1
sVcym3vhh
p2937
I1
sVdcx56le
p2938
I1
sVd3d8ckw
p2939
I1
sVdbimimq
p2940
I1
sVd35p19i
p2941
I1
sVdpxrpj9
p2942
I3
sVdd6o3qv
p2943
I1
sVde8ioaw
p2944
I1
sVde7dr1e
p2945
I1
sVd6jbd2q
p2946
I1
sVd5pyvia
p2947
I1
sVdj7d415
p2948
I1
sVdij27lq
p2949
I3
sVd5lzppa
p2950
I1
sVdo86ffe
p2951
I1
sVdqr2iwv
p2952
I1
sVd60v4dc
p2953
I1
sVdhltdae
p2954
I1
sVd8lumpd
p2955
I1
sVd93izes
p2956
I1
sVd8cpaz7
p2957
I1
sVdgc5xeg
p2958
I1
sVdcr3m4j
p2959
I1
sVd0c45fc
p2960
I1
sVd5otshv
p2961
I1
sVczwjrvf
p2962
I2
sVddtfe5y
p2963
I3
sVd6u61bc
p2964
I1
sVdta1zuh
p2965
I1
sVcyutw0p
p2966
I1
sVd16gccc
p2967
I1
sVdjgrrk3
p2968
I1
sVd3ezxnt
p2969
I1
sVdpbl08e
p2970
I1
sVd1twsn9
p2971
I1
sVd52ti48
p2972
I1
sVd3ycgcy
p2973
I2
sVd8du5n2
p2974
I1
sVda8bcdm
p2975
I1
sVcyz24xg
p2976
I1
sVczzut8s
p2977
I1
sVdp4acue
p2978
I1
sVd1buene
p2979
I1
sVdfxkbzd
p2980
I1
sVdarx26j
p2981
I1
sVd60o4em
p2982
I1
sVd7c2ixb
p2983
I1
sVd92v0do
p2984
I1
sVdal2hrr
p2985
I2
sVdfw4b2b
p2986
I1
sVd40goi1
p2987
I1
sVd69xg7q
p2988
I1
sVd5j4gbj
p2989
I1
sVd8223zw
p2990
I1
sVdepzu64
p2991
I2
sVd6a378i
p2992
I1
sVdmgr0iw
p2993
I1
sVdqpr92t
p2994
I2
sVdandy9f
p2995
I1
sVdr5211z
p2996
I1
sVdb641ct
p2997
I1
sVdmopjmc
p2998
I6
sVczr5ne4
p2999
I1
sVdaswwcg
p3000
I1
sVdizt7lx
p3001
I1
sVdbbp8gh
p3002
I1
sVd6d3qf6
p3003
I1
sVdd9hhva
p3004
I2
sVdagnsoi
p3005
I1
sVczyt69w
p3006
I2
sVdca9wj1
p3007
I1
sVde3isnd
p3008
I1
sVd5795ua
p3009
I1
sVdsyv9mk
p3010
I1
sVd55qbhz
p3011
I1
sVdhid4cn
p3012
I1
sVdgj2wba
p3013
I1
sVd3vlzdz
p3014
I1
sVd9l3mzk
p3015
I1
sVd3s4pzm
p3016
I1
sVdo2tn7w
p3017
I1
sVd9fnqp2
p3018
I1
sVd5mj8gn
p3019
I1
sVde4i8hi
p3020
I1
sVd9d6lr4
p3021
I1
sVdjxsn3b
p3022
I1
sVd73tzsf
p3023
I1
sVdt9c5ws
p3024
I1
sVd7b024w
p3025
I1
sVdofwb91
p3026
I1
sVdjkrbfn
p3027
I1
sVd3qamtl
p3028
I1
sVd97qlwo
p3029
I1
sVd6ub4ik
p3030
I1
sVdf1qn8u
p3031
I1
sVd9w54zx
p3032
I1
sVdsigt4o
p3033
I2
sVdjmi6g1
p3034
I1
sVdbx9iiw
p3035
I1
sVd9llkxo
p3036
I1
sVde28h5c
p3037
I1
sVd7cjvic
p3038
I2
sVdj800h7
p3039
I1
sVdjno1bn
p3040
I1
sVd42imwh
p3041
I1
sVdg7sdsp
p3042
I1
sVd5n7ck0
p3043
I2
sVdg9cmk7
p3044
I2
sVdn304rr
p3045
I2
sVd6743jf
p3046
I1
sVd7ij7mi
p3047
I1
sVd49ew2u
p3048
I1
sVdfr2wie
p3049
I1
sVd3i49qp
p3050
I1
sVdhse9xd
p3051
I1
sVcz5cawl
p3052
I1
sVczs5awo
p3053
I1
sVdnuz9xb
p3054
I1
sVdd7qqb5
p3055
I1
sVd1u4doe
p3056
I1
sVday1t0q
p3057
I1
sVdt8jukh
p3058
I1
sVdamlt7v
p3059
I1
sVd5sis6v
p3060
I1
sVd0yge40
p3061
I1
sVdr7hd7b
p3062
I1
sVd47sdxy
p3063
I1
sVdbeharc
p3064
I1
sVd4qqj8t
p3065
I1
sVd2vqrim
p3066
I1
sVd46ch50
p3067
I1
sVd034wn9
p3068
I1
sVd89mru5
p3069
I1
sVcypfep2
p3070
I1
sVdhwqfmq
p3071
I1
sVd8py2eu
p3072
I1
sVd6l4y4c
p3073
I1
sVdax1l91
p3074
I1
sVd6hzq4j
p3075
I1
sVdhykbtg
p3076
I1
sVd6hgfcs
p3077
I1
sVcz5dfvi
p3078
I1
sVd2nbn0q
p3079
I1
sVdol8kla
p3080
I1
sVd2j4t5h
p3081
I1
sVdi2tqf1
p3082
I1
sVczt114b
p3083
I1
sVdi24gzl
p3084
I2
sVdjcijxs
p3085
I2
sVczc0azi
p3086
I1
sVd2q5b2k
p3087
I1
sVd2m68wl
p3088
I1
sVdnp9wju
p3089
I1
sVd35bfy8
p3090
I1
sVd4p0ngy
p3091
I1
sVd8f4xky
p3092
I1
sVdgwu2lu
p3093
I1
sVdeg9amp
p3094
I1
sVdgj0okv
p3095
I1
sVdfoyepj
p3096
I1
sVdkfz07b
p3097
I1
sVdglgsql
p3098
I1
sVdgf3zfd
p3099
I1
sVddw9lht
p3100
I1
sVd523g6i
p3101
I1
sVdh2z2fw
p3102
I1
sVd2ovqkp
p3103
I1
sVd6u9etg
p3104
I2
sVdrb7ghd
p3105
I1
sVd9rfxf6
p3106
I1
sVdbe03db
p3107
I1
sVd4ycntl
p3108
I1
sVd5excbs
p3109
I1
sVd53atd5
p3110
I1
sVd168gv6
p3111
I1
sVd5fuepl
p3112
I1
sVda1u6ts
p3113
I1
sVddcofgk
p3114
I1
sVdbs23m0
p3115
I1
sVds39to0
p3116
I1
sVdaknwoe
p3117
I1
sVd74726n
p3118
I1
sVd02mlb7
p3119
I1
sVdehuvyo
p3120
I1
sVddaquws
p3121
I1
sVd7qgp9b
p3122
I1
sVdrq1d1g
p3123
I2
sVd720py2
p3124
I1
sVd1vi1cc
p3125
I1
sVdisymso
p3126
I1
sVdmzayrf
p3127
I1
sVdbsr5nb
p3128
I1
sVdminjza
p3129
I1
sVdt26sng
p3130
I1
sVddzdeiy
p3131
I1
sVdcvhblf
p3132
I1
sVd9boze8
p3133
I1
sVd3stsrw
p3134
I1
sVczpcqip
p3135
I1
sVdko8m6e
p3136
I1
sVd0ydkp1
p3137
I1
sVd1kyr1x
p3138
I1
sVd6baymk
p3139
I1
sVdspllod
p3140
I1
sVd7x021y
p3141
I1
sVd4pc1n0
p3142
I1
sVdr3bqt8
p3143
I1
sVd9cu6vg
p3144
I1
sVd4zc5dw
p3145
I1
sVczdvjck
p3146
I1
sVdt2lvpb
p3147
I1
sVd3pkeur
p3148
I1
sVd8yn4hy
p3149
I1
sVdcxgpe1
p3150
I1
sVdoeu08l
p3151
I3
sVdodfgjo
p3152
I1
sVddpib2d
p3153
I1
sVd69jc0j
p3154
I1
sVdcu4zsh
p3155
I1
sVdcw05l4
p3156
I1
sVd1ejy0s
p3157
I1
sVd1mz3l6
p3158
I1
sVd49ci5g
p3159
I1
sVd7p3jzg
p3160
I1
sVd6cbdfl
p3161
I1
sVdb056mn
p3162
I1
sVdhksqjn
p3163
I1
sVdj27uw9
p3164
I1
sVdnlme1k
p3165
I1
sVd0f1osv
p3166
I2
sVd5pdoz7
p3167
I1
sVde0g778
p3168
I1
sVdt7tisl
p3169
I1
sVd1xozho
p3170
I1
sVdbx3gx7
p3171
I1
sVdei7gbi
p3172
I1
sVd8fs2dn
p3173
I1
sVd6i3qt9
p3174
I1
sVdd9f6rg
p3175
I1
sVd9l2qz5
p3176
I1
sVder50x8
p3177
I1
sVd01awbj
p3178
I1
sVd4b9ujm
p3179
I1
sVd28m0q9
p3180
I1
sVd7m9se7
p3181
I1
sVdoax9cc
p3182
I1
sVd1691n4
p3183
I1
sVdcplti5
p3184
I1
sVdpy194l
p3185
I1
sVd0r942f
p3186
I1
sVdiw0lah
p3187
I1
sVdn2igek
p3188
I1
sVdb8f7mc
p3189
I1
sVd3dp796
p3190
I1
sVd4j1ou7
p3191
I1
sVdedhhle
p3192
I1
sVczsjowk
p3193
I1
sVdeidmkc
p3194
I1
sVd4h1ese
p3195
I1
sVcys8q0w
p3196
I1
sVd9f2fpq
p3197
I1
sVddmnnws
p3198
I1
sVdi70r3f
p3199
I1
sVdomnlam
p3200
I1
sVdeo4y1h
p3201
I1
sVdeo0eg7
p3202
I1
sVdaymlnf
p3203
I7
sVd3n6fgu
p3204
I1
sVdk8hac9
p3205
I1
sVd6ysbke
p3206
I4
sVdob9oth
p3207
I1
sVdabp8n6
p3208
I1
sVczh5x2p
p3209
I1
sVd9cwo1z
p3210
I1
sVd8zw5dl
p3211
I2
sVdjnmz0y
p3212
I1
sVdf3jy78
p3213
I1
sVdq4poxe
p3214
I1
sVd37lpks
p3215
I1
sVd3esvpk
p3216
I1
sVd475ut9
p3217
I1
sVd1mb0tw
p3218
I1
sVd5f8n3l
p3219
I1
sVd0blelz
p3220
I1
sVd5teqq4
p3221
I1
sVcyxfl3j
p3222
I1
sVdduz7j9
p3223
I1
sVdofchpe
p3224
I1
sVdazlndo
p3225
I1
sVd5bax0t
p3226
I1
sVdb01in9
p3227
I1
sVdbcwdmk
p3228
I1
sVdsxp0f7
p3229
I1
sVdb56nix
p3230
I1
sVdkwzp46
p3231
I1
sVdedr6fz
p3232
I1
sVdqc2dcg
p3233
I1
sVdd46zp9
p3234
I1
sVcynf8yu
p3235
I1
sVd919t0d
p3236
I1
sVd5oq2ol
p3237
I1
sVd1iw1r9
p3238
I2
sVdbqg03y
p3239
I1
sVd4hwdu3
p3240
I1
sVdco93hh
p3241
I2
sVd9hg1vf
p3242
I3
sVd05mxn3
p3243
I4
sVd7phxe2
p3244
I1
sVdp4n1gd
p3245
I1
sVdg7sa0y
p3246
I1
sVden3s59
p3247
I2
sVdgg7046
p3248
I1
sVd8ev4bw
p3249
I1
sVdnftaov
p3250
I1
sVdejifdj
p3251
I1
sVdfjc5fg
p3252
I1
sVd1gi322
p3253
I1
sVd6vjfxm
p3254
I1
sVd5nfcqj
p3255
I1
sVd8e8f4s
p3256
I1
sVdetdh1o
p3257
I1
sVd18yn6x
p3258
I1
sVd2bo87k
p3259
I1
sVdaoglmc
p3260
I1
sVdr0p9ap
p3261
I1
sVdntc5jy
p3262
I1
sVdblhitg
p3263
I1
sVdh056ii
p3264
I1
sVd1ok3pd
p3265
I1
sVdezsv2u
p3266
I1
sVdeptg53
p3267
I1
sVdcubdm8
p3268
I1
sVdgw08r8
p3269
I1
sVd7jhxn8
p3270
I1
sVdjw55ax
p3271
I1
sVd8bo4br
p3272
I1
sVdca2fol
p3273
I1
sVdc2aly1
p3274
I1
sVd82zke2
p3275
I1
sVd7eu7s3
p3276
I1
sVdfa402l
p3277
I1
sVd9sz74g
p3278
I2
sVdmz0hwn
p3279
I1
sVd4mw417
p3280
I1
sVdn78my2
p3281
I1
sVdcx4tpc
p3282
I1
sVdam2h3o
p3283
I1
sVd5aa6e9
p3284
I1
sVdcoz5b2
p3285
I1
sVdgtmvxv
p3286
I1
sVdrxrc9s
p3287
I1
sVdse4uqj
p3288
I2
sVd3bvvpx
p3289
I1
sVdo44ffv
p3290
I1
sVdjn4855
p3291
I1
sVd7gm88t
p3292
I1
sVdmrx8md
p3293
I1
sVdr9of1h
p3294
I1
sVd0przis
p3295
I2
sVdkk2bk1
p3296
I1
sVdc6f7ml
p3297
I1
sVdpzkuvy
p3298
I2
sVd54tacq
p3299
I1
sVd1mz5y2
p3300
I1
sVdq2ilq2
p3301
I1
sVd22vubf
p3302
I1
sVdjcib2g
p3303
I1
sVd9b8kl9
p3304
I1
sVd923opt
p3305
I1
sVdedxlac
p3306
I1
sVd5e79b4
p3307
I1
sVd972mpi
p3308
I1
sVdbu25nj
p3309
I2
sVdnnjds5
p3310
I1
sVdnnat9u
p3311
I1
sVd1aov74
p3312
I1
sVdmkug6n
p3313
I1
sVdobbn38
p3314
I2
sVdmfn1ox
p3315
I1
sVd3kd3ou
p3316
I1
sVd95tpxl
p3317
I1
sVd8vf6y1
p3318
I1
sVd0gzyfc
p3319
I1
sVdd4zjhh
p3320
I1
sVdhrbwc5
p3321
I1
sVczvsr0s
p3322
I1
sVde0jz7f
p3323
I1
sVd28ydjq
p3324
I1
sVdcflfoz
p3325
I1
sVdd41wel
p3326
I1
sVd3f0xey
p3327
I1
sVd9dzml9
p3328
I2
sVdddtmyv
p3329
I1
sVdnvm5pt
p3330
I1
sVdg7kp47
p3331
I1
sVdmm130v
p3332
I1
sVd29sxqh
p3333
I2
sVdiyv84r
p3334
I1
sVd0y2k97
p3335
I1
sVdd55bnw
p3336
I1
sVd6lkxrm
p3337
I1
sVdce495h
p3338
I2
sVdfr3l58
p3339
I1
sVdjv0pty
p3340
I1
sVddi0xp4
p3341
I1
sVdkt5c7x
p3342
I1
sVczs3p5a
p3343
I2
sVdmqcppw
p3344
I1
sVd7y9tvw
p3345
I1
sVdetr0tt
p3346
I1
sVddp353a
p3347
I1
sVd17lp74
p3348
I1
sVdhch5nt
p3349
I1
sVd161u16
p3350
I1
sVd0ty33y
p3351
I1
sVdbdfcje
p3352
I1
sVde5ztq7
p3353
I1
sVd10n0yc
p3354
I1
sVdb9v1d9
p3355
I1
sVczt76gh
p3356
I1
sVdksyzut
p3357
I1
sVd3kta3t
p3358
I1
sVdp3owdj
p3359
I1
sVd400bsa
p3360
I1
sVdgppfw9
p3361
I1
sVdj39vdv
p3362
I1
sVdca4ouf
p3363
I1
sVdonknew
p3364
I1
sVd26jsdu
p3365
I1
sVdaylf8z
p3366
I1
sVdau32lu
p3367
I1
sVdk6lwhw
p3368
I1
sVdj626qp
p3369
I1
sVd3om0hr
p3370
I1
sVdbyh49v
p3371
I1
sVd2dma6p
p3372
I1
sVd18ehi1
p3373
I2
sVdfj6dsp
p3374
I1
sVddpnkwa
p3375
I1
sVd90i99v
p3376
I1
sVdq6s4j4
p3377
I1
sVdbsi5rv
p3378
I2
sVd1se1kj
p3379
I1
sVd4xy1xc
p3380
I2
sVcyza3gx
p3381
I1
sVd6d8f6c
p3382
I1
sVdb7z77n
p3383
I1
sVdh4bmzk
p3384
I1
sVd40rc7w
p3385
I1
sVd1up7bv
p3386
I1
sVdh1i2fu
p3387
I1
sVd0dex28
p3388
I1
sVdprhb70
p3389
I1
sVd90453o
p3390
I1
sVd3m9rpq
p3391
I1
sVdqj28g9
p3392
I1
sVd4v1s95
p3393
I1
sVdbbmdyc
p3394
I1
sVdg7pa1x
p3395
I1
sVdrqb3hq
p3396
I1
sVcyihzjx
p3397
I2
sVczs86rv
p3398
I1
sVdai3k5w
p3399
I1
sVd5380ho
p3400
I1
sVdgf1qjc
p3401
I1
sVd9xmn2r
p3402
I1
sVd8qrjq5
p3403
I1
sVd45y215
p3404
I1
sVdey9s1j
p3405
I1
sVdq9dq1b
p3406
I1
sVdb9duba
p3407
I1
sVd9a5mze
p3408
I1
sVd7dom6j
p3409
I1
sVdbk0dlh
p3410
I1
sVcyige48
p3411
I1
sVdd841ai
p3412
I1
sVd29yaol
p3413
I1
sVdc9lem5
p3414
I1
sVd2f82jx
p3415
I2
sVd05vvr7
p3416
I1
sVdonsapr
p3417
I1
sVdi5kn8t
p3418
I1
sVd7t1b1h
p3419
I1
sVdaiws4j
p3420
I2
sVdifred1
p3421
I2
sVdaj7fnm
p3422
I1
sVdemxelp
p3423
I1
sVd0zeods
p3424
I1
sVdoj1qvj
p3425
I1
sVdes5lmc
p3426
I1
sVdfxfq3y
p3427
I1
sVdg9v6ur
p3428
I2
sVdhjgeu5
p3429
I1
sVdfk1jo8
p3430
I1
sVd33gwp3
p3431
I1
sVczh64em
p3432
I1
sVdgkw6dj
p3433
I1
sVd2j0zts
p3434
I3
sVdb8x88v
p3435
I1
sVdt2h4t1
p3436
I1
sVd2kmqda
p3437
I1
sVd6isnoq
p3438
I1
sVd288fp8
p3439
I1
sVdjnnzq8
p3440
I1
sVd5bgcm5
p3441
I1
sVd8dj1bq
p3442
I1
sVd9u97cn
p3443
I1
sVdbfy90x
p3444
I1
sVd6sf1ew
p3445
I1
sVdfassru
p3446
I1
sVcz7bxta
p3447
I1
sVd0jbfhz
p3448
I1
sVdjrb9s3
p3449
I1
sVcz7q8g4
p3450
I1
sVd1samsr
p3451
I1
sVd7zwm0c
p3452
I1
sVczzv5uy
p3453
I1
sVdoihel6
p3454
I1
sVd0elj0d
p3455
I1
sVd2kx5sw
p3456
I1
sVdt9v5od
p3457
I1
sVd76my54
p3458
I1
sVdodxzcn
p3459
I1
sVdektqqq
p3460
I1
sVdjxyyz6
p3461
I1
sVde3fsnm
p3462
I1
sVdh1k6h0
p3463
I1
sVdji5me5
p3464
I1
sVczpfral
p3465
I1
sVdf34007
p3466
I1
sVdbcozje
p3467
I1
sVdiyap5v
p3468
I1
sVdju1vdt
p3469
I1
sVdqrdqt6
p3470
I1
sVdbo03n8
p3471
I1
sVdjmt297
p3472
I1
sVd1raffv
p3473
I2
sVdhf6n83
p3474
I1
sVdo4ow73
p3475
I3
sVcz0mz2n
p3476
I1
sVd2b1xpw
p3477
I1
sVdgs1y4c
p3478
I1
sVdnb9csf
p3479
I1
sVdizh52o
p3480
I1
sVd3srrrj
p3481
I1
sVdc78bew
p3482
I1
sVd3acak2
p3483
I1
sVdaq1uvp
p3484
I1
sVd7hedt7
p3485
I1
sVdao08ln
p3486
I1
sVdadqg32
p3487
I2
sVdc7n2qe
p3488
I1
sVdbqr0xf
p3489
I1
sVddy4not
p3490
I1
sVd3w1i9f
p3491
I1
sVdbwjmqx
p3492
I1
sVdbccr2v
p3493
I1
sVdqkz8lh
p3494
I1
sVdr6cger
p3495
I1
sVdhswli6
p3496
I1
sVdomdon4
p3497
I1
sVd3wxy94
p3498
I1
sVczaaxmt
p3499
I1
sVdbio73c
p3500
I1
sVdpd5arm
p3501
I1
sVdb63e1a
p3502
I1
sVd0rvp1n
p3503
I1
sVdbyrsnh
p3504
I1
sVdgkglag
p3505
I1
sVdkg8l3w
p3506
I1
sVdaw8e19
p3507
I1
sVdimhsfo
p3508
I2
sVdonexvq
p3509
I1
sVdjjlej5
p3510
I1
sVd09a3kv
p3511
I1
sVd1wbths
p3512
I1
sVd7byjh5
p3513
I1
sVde4f09k
p3514
I1
sVczt9v8g
p3515
I1
sVcz993bl
p3516
I1
sVdnre7ol
p3517
I1
sVd43tdyt
p3518
I1
sVd8wsgxz
p3519
I1
sVd38m2qm
p3520
I1
sVdej0bgb
p3521
I1
sVdoezqcx
p3522
I1
sVczw032t
p3523
I1
sVdpsb9mr
p3524
I1
sVdny56eu
p3525
I1
sVd0vppj3
p3526
I1
sVdtieie8
p3527
I1
sVd02k5js
p3528
I1
sVdkclc75
p3529
I1
sVdeew45j
p3530
I1
sVdcq1qca
p3531
I1
sVcyqp35u
p3532
I1
sVda6jckg
p3533
I1
sVdtfyt8i
p3534
I1
sVczqd0h0
p3535
I1
sVdbqkjo3
p3536
I1
sVdk48rf5
p3537
I1
sVdbgobhr
p3538
I1
sVdmiknn7
p3539
I1
sVd0lbd49
p3540
I1
sVdpronto
p3541
I1
sVd19oah9
p3542
I1
sVdgy4vhw
p3543
I1
sVdpz3iz3
p3544
I1
sVddfu7uw
p3545
I1
sVd4zceam
p3546
I1
sVd1iqbcp
p3547
I1
sVcymrxy9
p3548
I1
sVd8iw6hm
p3549
I1
sVdelgh3b
p3550
I1
sVdelb52c
p3551
I1
sVdaep1u5
p3552
I2
sVd4u4mhk
p3553
I1
sVd2kn719
p3554
I1
sVd61emhv
p3555
I1
sVd0uyi3g
p3556
I1
sVdpnazwb
p3557
I1
sVd7iw0lp
p3558
I1
sVdef43gk
p3559
I1
sVdc3bsw5
p3560
I1
sVd1xy62o
p3561
I1
sVdnfbv96
p3562
I1
sVd55652s
p3563
I1
sVdbz3zoj
p3564
I1
sVd8sv8p6
p3565
I1
sVdc97y1z
p3566
I1
sVdp0u9ic
p3567
I1
sVcyolpzd
p3568
I1
sVdbg7ro3
p3569
I1
sVd45mtqz
p3570
I1
sVd9ncfr3
p3571
I2
sVcynae46
p3572
I1
sVczhia6d
p3573
I1
sVd6bceld
p3574
I1
sVdscqhsk
p3575
I1
sVd120cb5
p3576
I1
sVcz11uca
p3577
I1
sVd3hrkc0
p3578
I1
sVdilorq7
p3579
I3
sVd1cy94o
p3580
I1
sVda2oj7y
p3581
I1
sVdeuckm1
p3582
I1
sVd2tj6id
p3583
I2
sVdth4rod
p3584
I4
sVd0w0usq
p3585
I1
sVd3c5o6x
p3586
I1
sVcyys6bj
p3587
I1
sVddwpu7l
p3588
I1
sVd4vb1lh
p3589
I1
sVddys43z
p3590
I1
sVdbgiucu
p3591
I1
sVdfyiz3b
p3592
I1
sVdbl0327
p3593
I1
sVdkua22k
p3594
I1
sVdfd7aoi
p3595
I1
sVdpqjwkk
p3596
I1
sVdf7fmyd
p3597
I1
sVdbvb793
p3598
I1
sVdfkhhlw
p3599
I1
sVcz3bct8
p3600
I1
sVdqv0agg
p3601
I1
sVdspaxuu
p3602
I1
sVd2nhg8h
p3603
I1
sVdelrfnj
p3604
I2
sVdczu30p
p3605
I1
sVd2qpg8j
p3606
I1
sVd2i6mnj
p3607
I1
sVdeobniw
p3608
I1
sVda32ue2
p3609
I1
sVd19nyuy
p3610
I1
sVd4d98tm
p3611
I1
sVdka0a9a
p3612
I1
sVdbcazyo
p3613
I1
sVd51ikfx
p3614
I1
sVd0xvsmv
p3615
I1
sVd1rhmnl
p3616
I1
sVdaciqex
p3617
I1
sVcz4jzti
p3618
I1
sVdktsu07
p3619
I1
sVdiftpuq
p3620
I2
sVd7leo7g
p3621
I1
sVda0fqrq
p3622
I1
sVd3s2aed
p3623
I1
sVdb4wnuv
p3624
I2
sVd1sh4zm
p3625
I1
sVdja0puf
p3626
I1
sVdqe1wcy
p3627
I2
sVdnxll89
p3628
I1
sVd5wadbs
p3629
I1
sVde3sfex
p3630
I1
sVd11g8fl
p3631
I1
sVdggvet9
p3632
I1
sVdbn9d8h
p3633
I2
sVdgzcl72
p3634
I1
sVdgi3res
p3635
I1
sVd9lhnl7
p3636
I1
sVd2i6r1u
p3637
I1
sVd6uc00h
p3638
I1
sVd2e48z4
p3639
I1
sVd7qd36y
p3640
I1
sVdb892l5
p3641
I1
sVcyo1ne1
p3642
I1
sVd2zhnzf
p3643
I1
sVd6op1i9
p3644
I1
sVd314c6d
p3645
I1
sVd2r103c
p3646
I1
sVdiemjqi
p3647
I3
sVdaddcqi
p3648
I1
sVdgut69d
p3649
I1
sVdb57o6s
p3650
I1
sVdbqkv5s
p3651
I1
sVd0awnxo
p3652
I1
sVdeje3fq
p3653
I1
sVd0jrfn0
p3654
I1
sVdncr9ts
p3655
I1
sVd2i1zd3
p3656
I1
sVd3r4l5s
p3657
I1
sVdiua6pq
p3658
I1
sVdfa3s25
p3659
I1
sVdhtg1lt
p3660
I1
sVd7m4mc7
p3661
I1
sVd0hfq1u
p3662
I2
sVdcp4vm6
p3663
I1
sVdk93ccp
p3664
I1
sVddbgfvm
p3665
I1
sVczhiw1f
p3666
I1
sVd64m6kt
p3667
I1
sVdjmf7tb
p3668
I1
sVdbullzk
p3669
I1
sVczae1x3
p3670
I1
sVdhfhe8b
p3671
I1
sVdkdslp8
p3672
I1
sVdnsu9iu
p3673
I1
sVdfs8ye0
p3674
I2
sVdkshez8
p3675
I1
sVdbixp0a
p3676
I1
sVcz22o4u
p3677
I1
sVd05r5w3
p3678
I1
sVdj4p0mt
p3679
I1
sVdgliiy3
p3680
I1
sVd5x9kg0
p3681
I1
sVdimuonm
p3682
I1
sVd380eao
p3683
I1
sVd2euxyt
p3684
I1
sVd96wilx
p3685
I1
sVdp3xog2
p3686
I1
sVdjml9v3
p3687
I2
sVdpw7mnm
p3688
I1
sVd18mf7f
p3689
I1
sVdq29k54
p3690
I2
sVd08rcaz
p3691
I1
sVdaztla7
p3692
I2
sVdccysae
p3693
I1
sVdg98u6m
p3694
I1
sVd9kzhq0
p3695
I1
sVdj1bti3
p3696
I1
sVda5x8mm
p3697
I2
sVdmu2db7
p3698
I1
sVd10paqr
p3699
I1
sVd8enqbi
p3700
I1
sVd47p1hp
p3701
I1
sVdgyhayc
p3702
I1
sVd9elyb7
p3703
I1
sVdnh3a9j
p3704
I2
sVcynfluc
p3705
I1
sVdmk9et6
p3706
I5
sVd5hoc8c
p3707
I1
sVdsgmkfa
p3708
I1
sVd9b3xki
p3709
I1
sVd68rdjt
p3710
I2
sVdjkm4qz
p3711
I1
sVd26qic3
p3712
I1
sVdersadu
p3713
I1
sVd1oyeqc
p3714
I1
sVdfgj9bb
p3715
I1
sVdprl56s
p3716
I1
sVd711grg
p3717
I1
sVdb8qd7g
p3718
I1
sVd176v2u
p3719
I1
sVd0kriqg
p3720
I1
sVd3bejmz
p3721
I1
sVdhjh9bs
p3722
I1
sVdh0eelo
p3723
I1
sVdbhajnt
p3724
I1
sVd7k85zj
p3725
I1
sVd0sihod
p3726
I1
sVd4b9r2j
p3727
I1
sVd07e7rd
p3728
I1
sVdg9covu
p3729
I1
sVd8m62yj
p3730
I1
sVd67bx66
p3731
I1
sVcz35zwu
p3732
I1
sVdemj1ld
p3733
I1
sVd9vdshf
p3734
I1
sVdqei8zt
p3735
I1
sVd6lnu4s
p3736
I1
sVdgs66kh
p3737
I1
sVcz0abg9
p3738
I2
sVd156ua5
p3739
I1
sVd6t0p8n
p3740
I1
sVdekv0h3
p3741
I1
sVczk1mgk
p3742
I1
sVd462amc
p3743
I1
sVdipskrn
p3744
I1
sVd3t6nfz
p3745
I1
sVd71ouob
p3746
I1
sVd9o1wd8
p3747
I2
sVdmy2tuc
p3748
I1
sVd4r84po
p3749
I1
sVd2it0fk
p3750
I1
sVdamut4a
p3751
I1
sVd9d3rdf
p3752
I1
sVcyk5jtt
p3753
I1
sVdimdr5o
p3754
I1
sVdar95az
p3755
I4
sVdjl4ru2
p3756
I1
sVdflhl95
p3757
I1
sVcyt6rpl
p3758
I1
sVd2qi3oe
p3759
I1
sVcyp6acr
p3760
I1
sVd1xuhzx
p3761
I1
sVd5nr9kw
p3762
I1
sVdqmls84
p3763
I1
sVd3aoq5n
p3764
I1
sVdfos8q5
p3765
I1
sVdnxttgn
p3766
I1
sVcyv5gpu
p3767
I1
sVd1hm8iv
p3768
I1
sVdnwy1rp
p3769
I1
sVd5y4ikg
p3770
I2
sVd0q87c7
p3771
I1
sVd03c7ma
p3772
I1
sVdhhjgj3
p3773
I1
sVdir9azd
p3774
I1
sVdog55w9
p3775
I1
sVd7p5a4j
p3776
I1
sVdg3yy6d
p3777
I1
sVd0i1nf4
p3778
I1
sVd57m9t1
p3779
I1
sVcypg7ng
p3780
I1
sVdisbh07
p3781
I1
sVdjg4knx
p3782
I1
sVdhcvkj5
p3783
I3
sVddeeaki
p3784
I1
sVd3navrm
p3785
I1
sVd7te53l
p3786
I1
sVdk90lc7
p3787
I1
sVd03gyse
p3788
I1
sVd2kbz3f
p3789
I1
sVdduozkz
p3790
I1
sVd2036za
p3791
I1
sVdmk0qpg
p3792
I2
sVdoe3kgb
p3793
I1
sVd891q5x
p3794
I1
sVdci0db0
p3795
I1
sVdhtr87q
p3796
I1
sVdkdj9e3
p3797
I2
sVdhcynvi
p3798
I2
sVd07p9hi
p3799
I1
sVd4621pp
p3800
I1
sVd67qbg7
p3801
I1
sVddfksjg
p3802
I1
sVd9qracm
p3803
I1
sVd18xiug
p3804
I1
sVd82pc4s
p3805
I1
sVde19k0k
p3806
I1
sVczz9bxw
p3807
I1
sVdqdevfx
p3808
I1
sVdb9tb46
p3809
I1
sVd8npgbr
p3810
I1
sVdq33p9y
p3811
I2
sVdiekb7h
p3812
I1
sVd994l84
p3813
I1
sVdsmb9rg
p3814
I1
sVczrfvt1
p3815
I1
sVd2mgrpj
p3816
I1
sVczwpq9f
p3817
I1
sVd5rkse2
p3818
I1
sVcysnyu7
p3819
I1
sVczdnqrz
p3820
I1
sVd90sqhv
p3821
I2
sVdskf18c
p3822
I1
sVd6fnfam
p3823
I1
sVddq5ug8
p3824
I1
sVd6u6kif
p3825
I1
sVd2vs907
p3826
I1
sVdixv57a
p3827
I1
sVczbubmr
p3828
I2
sVczay738
p3829
I1
sVdf04tbv
p3830
I1
sVcywny4i
p3831
I1
sVdgdpqxx
p3832
I1
sVdd5qqf4
p3833
I1
sVdfs5tag
p3834
I1
sVdauxfxd
p3835
I3
sVcyk46g8
p3836
I3
sVdg810qs
p3837
I2
sVdi84h7v
p3838
I1
sVd3fzzvu
p3839
I1
sVcyv6ipp
p3840
I1
sVdb859tf
p3841
I1
sVd1smegv
p3842
I1
sVdidat3z
p3843
I1
sVdgn6f1l
p3844
I1
sVd18rvq8
p3845
I1
sVd4bk73b
p3846
I1
sVdot4cep
p3847
I1
sVd1df3kn
p3848
I1
sVdcno8qf
p3849
I1
sVdhef4s8
p3850
I1
sVdametit
p3851
I1
sVd0fm7ds
p3852
I2
sVd4w6zhj
p3853
I1
sVdr5ws3j
p3854
I1
sVd23xrbr
p3855
I1
sVd9gy6zw
p3856
I1
sVdcxty5d
p3857
I1
sVczwxuah
p3858
I2
sVdezcqw1
p3859
I1
sVdnveinf
p3860
I1
sVddhcau1
p3861
I1
sVdazeijf
p3862
I1
sVd34b31d
p3863
I1
sVczx66bc
p3864
I1
sVd3rftsr
p3865
I1
sVcyvyru0
p3866
I1
sVd5chm98
p3867
I1
sVdc4dxt1
p3868
I1
sVdhtslpj
p3869
I1
sVdfufyex
p3870
I1
sVdmkuqri
p3871
I1
sVd88fg73
p3872
I1
sVdms7644
p3873
I1
sVdo1gbfc
p3874
I1
sVdi9dhz1
p3875
I2
sVdgmldkm
p3876
I1
sVda0604f
p3877
I1
sVczn6956
p3878
I1
sVd1j0fb9
p3879
I2
sVdfhx2gl
p3880
I1
sVd6jy6se
p3881
I1
sVd55m8j1
p3882
I1
sVdds2xtf
p3883
I1
sVdnk5vit
p3884
I2
sVdof6e60
p3885
I1
sVdjsgi6j
p3886
I1
sVd7jecq9
p3887
I1
sVd4fvmhl
p3888
I1
sVczf2l2r
p3889
I1
sVddcpmpn
p3890
I1
sVdmpcxuk
p3891
I1
sVdd0k6tm
p3892
I1
sVdro86dn
p3893
I1
sVd86t55m
p3894
I1
sVd8odoe7
p3895
I3
sVdaxga8a
p3896
I1
sVdgs47ku
p3897
I1
sVdenfsl7
p3898
I1
sVdh5mbi2
p3899
I1
sVdra0cj8
p3900
I3
sVd8vpq4k
p3901
I1
sVd9mamqy
p3902
I1
sVd0zm5om
p3903
I1
sVdmpuwjv
p3904
I1
sVd6whvge
p3905
I1
sVdbpxmph
p3906
I2
sVd7p87w1
p3907
I2
sVd1785vy
p3908
I1
sVd4u4duo
p3909
I1
sVcz22205
p3910
I2
sVd7tde4i
p3911
I1
sVcz8md4z
p3912
I1
sVde4dvim
p3913
I1
sVdd8t7rm
p3914
I1
sVczi883h
p3915
I1
sVdqsogi9
p3916
I1
sVdjvgf49
p3917
I1
sVd8p1enx
p3918
I1
sVdthb4cc
p3919
I1
sVdtdx9zy
p3920
I2
sVdn9hx9n
p3921
I1
sVd1xjzjo
p3922
I1
sVds6d6pe
p3923
I1
sVd0b6tu4
p3924
I1
sVd9inb0t
p3925
I1
sVcz5w6o7
p3926
I1
sVdemh6gc
p3927
I1
sVdpdpput
p3928
I2
sVczgfaj8
p3929
I1
sVdebmffl
p3930
I1
sVdf69zel
p3931
I1
sVdeteuo3
p3932
I1
sVdfe1t50
p3933
I1
sVdksq4g8
p3934
I1
sVdjt33nk
p3935
I1
sVczlz6y5
p3936
I1
sVd126gg4
p3937
I1
sVdkn0tpd
p3938
I2
sVdny33ff
p3939
I1
sVdn2pffh
p3940
I1
sVdfl3yo0
p3941
I1
sVdpflzbh
p3942
I1
sVds46y24
p3943
I1
sVdfp69v0
p3944
I1
sVdi6eq5c
p3945
I1
sVd9f20n1
p3946
I1
sVdi2uumb
p3947
I1
sVdjngcyv
p3948
I1
sVd7rguy6
p3949
I1
sVczv2ri5
p3950
I1
sVd9zvj36
p3951
I1
sVdnl261u
p3952
I1
sVdft9mo9
p3953
I2
sVd1cs3xm
p3954
I1
sVdeludyg
p3955
I1
sVdrqoy87
p3956
I1
sVcz4ti1s
p3957
I1
sVcztsjox
p3958
I2
sVd3bk0yv
p3959
I1
sVd0bnsfn
p3960
I1
sVd9xacsi
p3961
I1
sVdaasjmc
p3962
I1
sVdntrzd9
p3963
I1
sVdd8wkn9
p3964
I1
sVdhj13zn
p3965
I1
sVdnvlo03
p3966
I1
sVdiz8lvu
p3967
I1
sVdn75z3d
p3968
I1
sVd5zdwm5
p3969
I1
sVdq7ykh9
p3970
I1
sVda36cnd
p3971
I1
sVdbrhbhd
p3972
I1
sVdddq56d
p3973
I1
sVd1xzyzx
p3974
I1
sVdf043wt
p3975
I1
sVdhsgcjz
p3976
I1
sVdexi934
p3977
I1
sVd9xwvml
p3978
I1
sVdg3jcxn
p3979
I1
sVd077bl4
p3980
I1
sVczz3bki
p3981
I1
sVd72f726
p3982
I1
sVdsyjoc3
p3983
I1
sVdf4r97n
p3984
I1
sVczhl0qo
p3985
I1
sVd0ubon2
p3986
I1
sVd5zpdt2
p3987
I1
sVd5my79f
p3988
I1
sVddn0wgy
p3989
I1
sVdaipo3d
p3990
I1
sVcykj6nb
p3991
I1
sVcypplxv
p3992
I1
sVdd3pk9n
p3993
I1
sVdny2v5w
p3994
I1
sVdcjxrz5
p3995
I1
sVdqkwxa4
p3996
I1
sVdjzac2s
p3997
I2
sVczrgt2l
p3998
I1
sVdcyo1k2
p3999
I1
sVdb5mcjd
p4000
I1
sVczwnfvu
p4001
I1
sVddpql08
p4002
I1
sVdi0cdk5
p4003
I1
sVdf3qhby
p4004
I1
sVde798cf
p4005
I1
sVd0z1btq
p4006
I1
sVd9riyie
p4007
I1
sVcz92i07
p4008
I1
sVcytpkuf
p4009
I1
sVdb8f7ol
p4010
I1
sVcyrmlla
p4011
I1
sVdb0diw9
p4012
I1
sVdbszswk
p4013
I1
sVd5qtm60
p4014
I1
sVdr0eygw
p4015
I1
sVdsdo1b0
p4016
I1
sVd66r72y
p4017
I1
sVd3xvimc
p4018
I1
sVd6hqdm2
p4019
I1
sVdduwxmh
p4020
I1
sVdbx5yq2
p4021
I1
sVdjgd5tw
p4022
I1
sVdars2x3
p4023
I1
sVd5eqd8q
p4024
I1
sVdc0m8od
p4025
I1
sVdaq4a82
p4026
I2
sVdapnbhh
p4027
I1
sVd8nmo7r
p4028
I1
sVddy0mun
p4029
I1
sVdecfxvt
p4030
I1
sVd63t64k
p4031
I1
sVdh8m7rg
p4032
I1
sVdejxj3j
p4033
I1
sVdaxbgzg
p4034
I1
sVdpb7c2t
p4035
I1
sVd9nf18y
p4036
I2
sVdi2kgn5
p4037
I1
sVdjceahk
p4038
I1
sVdjznux4
p4039
I1
sVdej2gt5
p4040
I1
sVd60bhuc
p4041
I1
sVd2kob87
p4042
I1
sVd881f7j
p4043
I2
sVdhcueec
p4044
I1
sVd2y1ehl
p4045
I1
sVdii92fp
p4046
I1
sVd95kpa0
p4047
I1
sVdf93za8
p4048
I1
sVd5ykkr2
p4049
I1
sVdagyzf2
p4050
I1
sVdi2wk9d
p4051
I1
sVda4l94y
p4052
I1
sVdghlx5o
p4053
I1
sVdgwf684
p4054
I1
sVd2doqe9
p4055
I1
sVdtg9j7n
p4056
I1
sVd0vw5k4
p4057
I1
sVdbgl5q9
p4058
I2
sVddz0f5m
p4059
I1
sVczgk4qh
p4060
I1
sVd4bqosq
p4061
I1
sVdht6582
p4062
I1
sVdcp8dqi
p4063
I1
sVd3qnmbg
p4064
I1
sVd7ji7yw
p4065
I1
sVdqe8grg
p4066
I2
sVd0r7hg1
p4067
I1
sVd5ppjo9
p4068
I1
sVd8573qq
p4069
I1
sVczeipiq
p4070
I2
sVd2rcu84
p4071
I1
sVdjq9lbt
p4072
I1
sVdb3m6ut
p4073
I1
sVdj20n97
p4074
I1
sVdrtn4q7
p4075
I1
sVd4mbyc2
p4076
I1
sVd6envtl
p4077
I1
sVdgq6n5a
p4078
I1
sVdreph7n
p4079
I1
sVdhlnoag
p4080
I1
sVdgjvwzl
p4081
I1
sVcykjrdp
p4082
I1
sVdsqu2gz
p4083
I1
sVds9qk89
p4084
I1
sVd0kslah
p4085
I1
sVddx2an1
p4086
I1
sVddn58n7
p4087
I1
sVd93m0j8
p4088
I3
sVd8iburz
p4089
I2
sVdjbalvo
p4090
I1
sVdgi9iey
p4091
I1
sVdbhjw84
p4092
I1
sVd1jugm8
p4093
I1
sVde7c6ai
p4094
I1
sVdho7z5h
p4095
I1
sVcyjzk83
p4096
I1
sVdbbwopw
p4097
I1
sVd0ild3d
p4098
I1
sVd9e8buu
p4099
I1
sVd5ty7f2
p4100
I1
sVdq5hpbr
p4101
I2
sVdg5l3bu
p4102
I1
sVdi75r84
p4103
I1
sVd1i64f2
p4104
I1
sVd8t4iwo
p4105
I1
sVdbj1f14
p4106
I1
sVd3c4yc4
p4107
I1
sVd6ru5xv
p4108
I1
sVdegcmm8
p4109
I1
sVd3tfg7q
p4110
I1
sVd0spals
p4111
I1
sVdq35dsu
p4112
I1
sVd4v2m61
p4113
I2
sVdkor8di
p4114
I1
sVdiejcab
p4115
I1
sVdqgmnpn
p4116
I1
sVcztvtqq
p4117
I1
sVd4bd1sh
p4118
I1
sVdfxt5wa
p4119
I1
sVd4kvla0
p4120
I1
sVd1j4tol
p4121
I1
sVd6ad7x7
p4122
I1
sVdtdv1ss
p4123
I2
sVd7sg9p1
p4124
I1
sVcz4wd9y
p4125
I1
sVd94aso3
p4126
I1
sVd3nliu6
p4127
I1
sVdcmw8y8
p4128
I1
sVdkgqhdi
p4129
I1
sVdcx2yt5
p4130
I1
sVd8b7a6p
p4131
I1
sVd0dwmrl
p4132
I1
sVd679ti8
p4133
I2
sVdgtkbsv
p4134
I1
sVdmzarm3
p4135
I1
sVcylz9df
p4136
I1
sVdgulpxx
p4137
I1
sVd1s2tbe
p4138
I1
sVd5ubykq
p4139
I1
sVdtgalxd
p4140
I1
sVdsh98qo
p4141
I1
sVcz2g4z0
p4142
I1
sVdk9jriv
p4143
I1
sVczjzijj
p4144
I1
sVd6qj2cc
p4145
I1
sVd8bn4fd
p4146
I1
sVdcvqug5
p4147
I1
sVd2mcdgw
p4148
I1
sVd9o4zhd
p4149
I1
sVcyjmpwq
p4150
I1
sVdefv6fd
p4151
I1
sVdk6qanr
p4152
I1
sVdc7mdt5
p4153
I1
sVdd7bfuz
p4154
I3
sVd3uapoz
p4155
I1
sVd0trk4r
p4156
I1
sVd2r1ctc
p4157
I1
sVdkmk13c
p4158
I1
sVd7nsxgy
p4159
I1
sVd1f816z
p4160
I1
sVdrk94i2
p4161
I1
sVcysfccc
p4162
I1
sVdd1wtij
p4163
I1
sVdmf3bul
p4164
I1
sVdhg7a8i
p4165
I1
sVdeu35cf
p4166
I1
sVdfb1fie
p4167
I1
sVd6f5qu5
p4168
I1
sVd7qpk40
p4169
I1
sVdin5a0h
p4170
I1
sVdstcslu
p4171
I1
sVd2ngzan
p4172
I1
sVd6fb85n
p4173
I1
sVdim6jbp
p4174
I1
sVdb0b936
p4175
I1
sVdrkyxjm
p4176
I1
sVdc7muop
p4177
I1
sVda4ccfc
p4178
I1
sVdjkz0av
p4179
I1
sVdrg7big
p4180
I1
sVd8f38bz
p4181
I1
sVdq053x5
p4182
I1
sVdeqiski
p4183
I1
sVczbtc9g
p4184
I1
sVdho92ir
p4185
I1
sVdsiv05g
p4186
I1
sVd27lroe
p4187
I1
sVdhlnika
p4188
I1
sVd201kqj
p4189
I1
sVd44xyuk
p4190
I1
sVdmfwfl8
p4191
I1
sVdn43a43
p4192
I1
sVddom4cj
p4193
I1
sVdf8q6zr
p4194
I1
sVd1zpxl0
p4195
I1
sVd4yusrr
p4196
I1
sVdp5ep8l
p4197
I1
sVczu7872
p4198
I2
sVdbxo3h4
p4199
I1
sVddr0yxr
p4200
I1
sVdd883wm
p4201
I1
sVdr2flx0
p4202
I1
sVdchrx1n
p4203
I1
sVdd5bezj
p4204
I1
sVd2heu3a
p4205
I1
sVd8uujli
p4206
I1
sVdj1oa9c
p4207
I1
sVczrj260
p4208
I1
sVdakk807
p4209
I1
sVd19q7h7
p4210
I1
sVddwngzh
p4211
I1
sVd6hiehy
p4212
I1
sVd81h20c
p4213
I1
sVd531k7f
p4214
I1
sVdo68qck
p4215
I1
sVdgse0i8
p4216
I1
sVd6ktna9
p4217
I1
sVd1ttqg9
p4218
I1
sVd008t3i
p4219
I1
sVd2dl38t
p4220
I1
sVdcoxm0k
p4221
I1
sVd5q6pqr
p4222
I1
sVd0j391z
p4223
I1
sVdcizsw2
p4224
I3
sVcyqh905
p4225
I2
sVd5a4j08
p4226
I1
sVdnigkpc
p4227
I1
sVd2r926x
p4228
I1
sVd6eu0rf
p4229
I1
sVdshayng
p4230
I1
sVcyvbfn4
p4231
I1
sVdevd1pr
p4232
I1
sVdetv57h
p4233
I1
sVdcq70k8
p4234
I1
sVdg734jz
p4235
I2
sVdevyuwm
p4236
I1
sVdcaqwls
p4237
I1
sVczy8dri
p4238
I1
sVdhde5pv
p4239
I1
sVd0eh06o
p4240
I1
sVd142u6r
p4241
I1
sVdmt8tx6
p4242
I1
sVd7bjxr0
p4243
I1
sVcyx2nbt
p4244
I1
sVcz8lqg9
p4245
I1
sVdikq6v2
p4246
I1
sVd5yjcsj
p4247
I1
sVdittemn
p4248
I1
sVd2t7whk
p4249
I1
sVdfd86ud
p4250
I1
sVdis53s4
p4251
I1
sVdgo85fk
p4252
I1
sVd4wy3yi
p4253
I5
sVd4lxayj
p4254
I1
sVddavr9n
p4255
I1
sVcyz7qox
p4256
I1
sVczbed7w
p4257
I1
sVdrr4rn2
p4258
I1
sVd0o0d18
p4259
I1
sVddeecug
p4260
I1
sVcz6bbo7
p4261
I1
sVddnxhr0
p4262
I1
sVdk84q0e
p4263
I1
sVd7a2nd1
p4264
I1
sVd8sy9i3
p4265
I1
sVd0am6pv
p4266
I1
sVdjmh2kk
p4267
I1
sVdhj7bx0
p4268
I1
sVdb8khl8
p4269
I1
sVdia14xo
p4270
I2
sVdoek91u
p4271
I1
sVd1v4snw
p4272
I1
sVd5zx34w
p4273
I1
sVd5r1c9j
p4274
I1
sVdi2bb5y
p4275
I1
sVd0pypxb
p4276
I1
sVcyu3062
p4277
I1
sVd2blbou
p4278
I1
sVdt3ny6l
p4279
I1
sVdcilgfx
p4280
I1
sVdf6k0pm
p4281
I1
sVdc75kzj
p4282
I1
sVd427htf
p4283
I1
sVcyi547i
p4284
I1
sVd0nt57h
p4285
I1
sVd472ecu
p4286
I1
sVdbnl2gp
p4287
I1
sVdn9s65a
p4288
I2
sVd0fhb44
p4289
I1
sVd8l3098
p4290
I1
sVdclequ9
p4291
I2
sVd28vuub
p4292
I1
sVdg5n75u
p4293
I1
sVdqrra2d
p4294
I1
sVdds79q2
p4295
I1
sVd53z2oy
p4296
I1
sVdra4abd
p4297
I1
sVczomf8p
p4298
I1
sVcyyky24
p4299
I1
sVd0e1sav
p4300
I1
sVd5gauz4
p4301
I1
sVdfe0agp
p4302
I1
sVd8axxmj
p4303
I1
sVdd9ueou
p4304
I1
sVdnak477
p4305
I1
sVdacsh3c
p4306
I1
sVd1lxpg4
p4307
I3
sVd17wgw6
p4308
I1
sVd7c30z6
p4309
I1
sVdqxfqv3
p4310
I1
sVdp91czm
p4311
I1
sVd044dh7
p4312
I1
sVda0fdlw
p4313
I1
sVdbhdjj8
p4314
I2
sVd87b752
p4315
I1
sVdf5w3ck
p4316
I1
sVd4gm8df
p4317
I1
sVdhvjgnl
p4318
I2
sVd6gqs5y
p4319
I1
sVd3f8csz
p4320
I1
sVdk6nv72
p4321
I1
sVd6p6yzs
p4322
I3
sVd67m12b
p4323
I1
sVdfh7ipo
p4324
I1
sVd9l3cko
p4325
I1
sVd6x9vmr
p4326
I1
sVdhlicm7
p4327
I1
sVdsx4zvb
p4328
I1
sVdhksh0k
p4329
I1
sVd2gefe6
p4330
I7
sVd17qvm0
p4331
I1
sVcyprd71
p4332
I1
sVdcjbnri
p4333
I1
sVdctxf2q
p4334
I1
sVdpzx3za
p4335
I1
sVdb5909a
p4336
I1
sVdi4tp4v
p4337
I1
sVd5tz4ye
p4338
I1
sVcz1lgvc
p4339
I1
sVddaocby
p4340
I1
sVd8yc7jh
p4341
I1
sVdsodmhe
p4342
I1
sVdc99xgy
p4343
I1
sVddw98kh
p4344
I1
sVdb6v6e8
p4345
I1
sVd0ptn0e
p4346
I1
sVdcwxktl
p4347
I1
sVcz6v3nv
p4348
I1
sVd9zfkwx
p4349
I1
sVdmoss6w
p4350
I1
sVdj27a6y
p4351
I1
sVd6eqsm8
p4352
I1
sVdtd0yrd
p4353
I1
sVd30f3pr
p4354
I1
sVdehxcrm
p4355
I1
sVd2f01vy
p4356
I1
sVd88uwh8
p4357
I2
sVde6x4dt
p4358
I1
sVdfqynwu
p4359
I1
sVdhzsfng
p4360
I1
sVdgncbei
p4361
I1
sVddi0p3u
p4362
I1
sVdr00jyp
p4363
I1
sVdtehqdi
p4364
I2
sVdh0opkd
p4365
I2
sVd29f9av
p4366
I1
sVdcb6t02
p4367
I1
sVdksx4by
p4368
I2
sVd2wkx29
p4369
I1
sVdfakfe2
p4370
I1
sVdog0xro
p4371
I1
sVdbojf1y
p4372
I1
sVd166qy5
p4373
I1
sVd8ggyg5
p4374
I1
sVd4mpbpq
p4375
I1
sVd71jwu9
p4376
I1
sVdg4uw66
p4377
I2
sVdbbk2q8
p4378
I1
sVd30jvyd
p4379
I1
sVdd7odih
p4380
I1
sVdjdhdss
p4381
I1
sVd4fttsj
p4382
I1
sVdb6v7ia
p4383
I1
sVd3i0b6f
p4384
I1
sVd8djd8t
p4385
I2
sVdfz02la
p4386
I1
sVddk0jmb
p4387
I1
sVd23sojk
p4388
I1
sVddt3zby
p4389
I1
sVd4rv81o
p4390
I1
sVdpb1x5t
p4391
I1
sVdhs26fq
p4392
I1
sVd5wxaim
p4393
I2
sVdejopwb
p4394
I1
sVdd8eex7
p4395
I1
sVdf1sbdf
p4396
I1
sVczwcp24
p4397
I1
sVdmi4vqq
p4398
I1
sVd45y91l
p4399
I1
sVd6i7gki
p4400
I2
sVd40ftqz
p4401
I2
sVdb46v82
p4402
I1
sVd82yqxa
p4403
I1
sVdf3c4v7
p4404
I1
sVdhnzyy6
p4405
I1
sVczo8sis
p4406
I1
sVdehkstt
p4407
I1
sVd6n6xkm
p4408
I1
sVd5wmx4h
p4409
I1
sVd1q1ml5
p4410
I1
sVd43lp72
p4411
I1
sVd5c9424
p4412
I1
sVdt2gwiw
p4413
I1
sVd4lshkb
p4414
I1
sVd12t86h
p4415
I1
sVd38ysdh
p4416
I1
sVdbx950d
p4417
I4
sVd0rfdhi
p4418
I1
sVdgd5fr6
p4419
I3
sVdeefe1t
p4420
I1
sVdrm1lbh
p4421
I1
sVdhfami6
p4422
I1
sVdc915bg
p4423
I1
sVd4b79lx
p4424
I1
sVcyszu40
p4425
I2
sVdk0lwpu
p4426
I1
sVd7ynzsx
p4427
I1
sVd8aennf
p4428
I1
sVd9gzdxx
p4429
I1
sVd2f5jb5
p4430
I1
sVdfie8th
p4431
I1
sVdd434wu
p4432
I1
sVdmi8xg3
p4433
I1
sVd8uzf6z
p4434
I1
sVd5xcuty
p4435
I3
sVdf8cf0x
p4436
I1
sVd2ao5hp
p4437
I1
sVdg1cj4d
p4438
I1
sVdbtc3pu
p4439
I1
sVdkf7405
p4440
I1
sVdetsvg8
p4441
I1
sVd2fkcrh
p4442
I1
sVd45pr67
p4443
I1
sVdkoxzp2
p4444
I1
sVd5ubu8k
p4445
I1
sVdk3jmda
p4446
I1
sVd766ytc
p4447
I1
sVcyxzicf
p4448
I1
sVdqeo19o
p4449
I1
sVd6cfx1i
p4450
I1
sVd570z1m
p4451
I1
sVdp5979g
p4452
I1
sVdq8e1z4
p4453
I1
sVdful8b9
p4454
I1
sVdn3och1
p4455
I1
sVdnrp80w
p4456
I1
sVdhlnul9
p4457
I1
sVcz5x5f2
p4458
I1
sVdabzvfk
p4459
I1
sVdihdsqi
p4460
I1
sVd4mbere
p4461
I1
sVdipvlv4
p4462
I1
sVddfk7s2
p4463
I1
sVdcb58rn
p4464
I1
sVd2hjq3d
p4465
I1
sVdbsljgq
p4466
I1
sVdbmyhyk
p4467
I1
sVdh9vcuo
p4468
I2
sVdss7kew
p4469
I1
sVd82egn2
p4470
I1
sVd9h808f
p4471
I1
sVd9e94l3
p4472
I1
sVd7sxrf1
p4473
I1
sVdek2ot8
p4474
I1
sVd4zf6tl
p4475
I1
sVcyn1la7
p4476
I1
sVd4z7tdl
p4477
I1
sVde5tor3
p4478
I2
sVd1l6urd
p4479
I1
sVdrajm11
p4480
I1
sVd3t9jld
p4481
I1
sVdcvqqyy
p4482
I1
sVdi4i6bi
p4483
I1
sVdpqgbr8
p4484
I1
sVdgmugt3
p4485
I1
sVd0zpgy3
p4486
I1
sVczni0rx
p4487
I1
sVd0knj98
p4488
I1
sVd5w5zen
p4489
I1
sVcyui2va
p4490
I3
sVdi9kqup
p4491
I1
sVdo6x29q
p4492
I1
sVdc786p3
p4493
I2
sVdk8l11w
p4494
I1
sVd24qi4j
p4495
I1
sVd2svlf6
p4496
I1
sVde95nu2
p4497
I1
sVczqg24v
p4498
I1
sVd1k7vk3
p4499
I1
sVd1y8dq5
p4500
I1
sVd0n6ilb
p4501
I1
sVd4k0c7f
p4502
I1
sVd9vlxi7
p4503
I1
sVd8cyxon
p4504
I1
sVd3x9366
p4505
I1
sVd3rjywa
p4506
I1
sVddr2bf9
p4507
I1
sVdfebi76
p4508
I1
sVdeijz2y
p4509
I1
sVdk467u8
p4510
I1
sVdqgzk36
p4511
I2
sVczl7rn7
p4512
I1
sVdczex55
p4513
I1
sVd7ouu58
p4514
I1
sVd5okdl3
p4515
I1
sVdn0eh9y
p4516
I2
sVd5gv42m
p4517
I1
sVdcail3f
p4518
I1
sVcyoaona
p4519
I2
sVda7erwk
p4520
I1
sVd3ka632
p4521
I1
sVdemeda7
p4522
I1
sVdak1srl
p4523
I1
sVd91derl
p4524
I1
sVd7eg6z0
p4525
I1
sVd6n6pln
p4526
I1
sVd8xcm28
p4527
I1
sVd7hcuyr
p4528
I1
sVdqumcno
p4529
I1
sVdhc5ezh
p4530
I1
sVdfefxfg
p4531
I1
sVddhsq7b
p4532
I1
sVdrtxn5u
p4533
I1
sVd3i77er
p4534
I1
sVdt344v7
p4535
I1
sVd19uegb
p4536
I1
sVdeb2qg2
p4537
I1
sVdj36g8f
p4538
I1
sVcyn4llh
p4539
I1
sVd4ne8qn
p4540
I1
sVds4pkqt
p4541
I1
sVdobfark
p4542
I1
sVd15c0mu
p4543
I1
sVd8zbh8j
p4544
I1
sVd35yrfx
p4545
I1
sVds56du9
p4546
I1
sVdf1vo7h
p4547
I1
sVcys3lki
p4548
I1
sVd1j1o2e
p4549
I2
sVd1hxn8g
p4550
I2
sVdievl05
p4551
I1
sVd7thkzx
p4552
I1
sVdedvb3k
p4553
I1
sVdflwds6
p4554
I1
sVdfajs23
p4555
I1
sVddbfnp8
p4556
I1
sVd40ohf9
p4557
I1
sVdawkyko
p4558
I1
sVd4qvv2g
p4559
I1
sVd3l6ei6
p4560
I1
sVd83xlmm
p4561
I1
sVczthmx7
p4562
I1
sVd33bird
p4563
I1
sVdby3pge
p4564
I1
sVdj57esc
p4565
I1
sVdi6pnro
p4566
I1
sVcynyy4d
p4567
I1
sVd21ls3z
p4568
I1
sVdgqir0g
p4569
I1
sVds901re
p4570
I1
sVd7o2oeq
p4571
I1
sVcz1nyel
p4572
I1
sVdfqi4n5
p4573
I1
sVd01r72t
p4574
I1
sVczfq164
p4575
I1
sVczdulez
p4576
I1
sVdd29jpx
p4577
I1
sVdpxt8mj
p4578
I1
sVcz48lq2
p4579
I1
sVd0wiggm
p4580
I1
sVdnbm6zs
p4581
I1
sVcyk6hgp
p4582
I1
sVd2gt1pc
p4583
I1
sVdowhbbp
p4584
I1
sVdj76m4e
p4585
I1
sVdil2l5z
p4586
I1
sVd646gcp
p4587
I1
sVd88ex0g
p4588
I1
sVdbfioj0
p4589
I1
sVd8o8ily
p4590
I1
sVdi47qzj
p4591
I1
sVd2ti9dg
p4592
I1
sVd8556ub
p4593
I1
sVdt4594a
p4594
I1
sVd01318l
p4595
I1
sVdnu6g6l
p4596
I1
sVdga2k70
p4597
I1
sVczbylai
p4598
I2
sVcyqsnz8
p4599
I1
sVd7c9dhx
p4600
I1
sVdhmyp4j
p4601
I1
sVdnrh30x
p4602
I1
sVddbxzd3
p4603
I1
sVdbrw0iu
p4604
I1
sVd98t429
p4605
I2
sVdgjj1oz
p4606
I1
sVdezue6l
p4607
I1
sVdgrftfw
p4608
I1
sVdc92evy
p4609
I1
sVd58ynwb
p4610
I1
sVdhkg2vw
p4611
I2
sVdtazicm
p4612
I1
sVd5wsrso
p4613
I1
sVdrsgzi1
p4614
I1
sVd2cstd3
p4615
I1
sVdkqfa2l
p4616
I1
sVcyu0jrk
p4617
I1
sVd6hc5hc
p4618
I1
sVd0v3fa5
p4619
I1
sVd3yg8tw
p4620
I1
sVd9twszo
p4621
I1
sVdmtahbv
p4622
I2
sVddv7ppv
p4623
I1
sVdp1gr5y
p4624
I1
sVdhk0ne6
p4625
I2
sVd5qjxrk
p4626
I1
sVcyxjwez
p4627
I1
sVd3st1ey
p4628
I1
sVd1kfgkw
p4629
I1
sVdcqrd1a
p4630
I1
sVd42lbtr
p4631
I1
sVd88z5oy
p4632
I1
sVdglxa2y
p4633
I1
sVd8ajzbi
p4634
I1
sVcyl31bh
p4635
I1
sVd8kkkfn
p4636
I2
sVd5bakrx
p4637
I1
sVd0db6dr
p4638
I1
sVdci9w9o
p4639
I1
sVd4pz9s1
p4640
I1
sVd01yt53
p4641
I1
sVd4rbrwk
p4642
I1
sVd2vaalc
p4643
I1
sVd86vvos
p4644
I1
sVdon3as3
p4645
I1
sVd3qa1p2
p4646
I2
sVda6m8iz
p4647
I1
sVd97geoc
p4648
I1
sVcz8p0tx
p4649
I1
sVdtevfg9
p4650
I1
sVdix01xi
p4651
I1
sVd0p8vd3
p4652
I1
sVd26tql5
p4653
I1
sVd9xurum
p4654
I1
sVd8g6bps
p4655
I1
sVdmh6e4m
p4656
I1
sVd6a7au6
p4657
I1
sVdkdstca
p4658
I1
sVdk1hhpl
p4659
I1
sVcz30y8c
p4660
I1
sVdkncuw5
p4661
I1
sVdh38bcb
p4662
I1
sVd77vb2c
p4663
I2
sVds6w0b6
p4664
I1
sVcz053fn
p4665
I1
sVdnrv3rw
p4666
I2
sVdb7uk3o
p4667
I1
sVd10fuj3
p4668
I1
sVdr2w6yz
p4669
I1
sVdeuj0ul
p4670
I1
sVcytsr4g
p4671
I1
sVdcepjrs
p4672
I1
sVczxmy59
p4673
I1
sVdeh8s6i
p4674
I1
sVdb7gyvj
p4675
I2
sVdkezg7t
p4676
I1
sVcykwhvf
p4677
I1
sVd67isvw
p4678
I1
sVdgpxi2v
p4679
I1
sVdbgwm3v
p4680
I1
sVd2d3rf1
p4681
I1
sVdhs8ewv
p4682
I1
sVdbsfbs8
p4683
I1
sVdjpw33p
p4684
I2
sVdfv76dk
p4685
I1
sVdr6sf1n
p4686
I1
sVdfhiuwo
p4687
I1
sVdfxfxfw
p4688
I1
sVdaubhqs
p4689
I1
sVd90r61y
p4690
I1
sVdf934fl
p4691
I2
sVdojn28d
p4692
I1
sVd1xw7ac
p4693
I1
sVd581t4j
p4694
I1
sVdmqb0aw
p4695
I1
sVds2iybq
p4696
I1
sVdsm224y
p4697
I1
sVd76edvw
p4698
I1
sVd22bnws
p4699
I1
sVdp5dkbt
p4700
I1
sVdclkuf9
p4701
I1
sVdifhw4c
p4702
I1
sVd4z1q7t
p4703
I2
sVd2xhs70
p4704
I1
sVdpdewtk
p4705
I1
sVdqr58vq
p4706
I1
sVczx4e9a
p4707
I1
sVd4igpyo
p4708
I1
sVd9lb95r
p4709
I1
sVdflbwx8
p4710
I1
sVddgrqv4
p4711
I1
sVdcxgjmx
p4712
I1
sVdfqt7pt
p4713
I2
sVd52eziw
p4714
I1
sVdn2nqjf
p4715
I4
sVdh27ip8
p4716
I2
sVdnhs8de
p4717
I1
sVczn956o
p4718
I1
sVd3ktkcr
p4719
I1
sVd6ug1lg
p4720
I1
sVd8n7c1w
p4721
I1
sVdee95g8
p4722
I1
sVdg2w7h3
p4723
I1
sVdc8q19u
p4724
I1
sVd6rhj13
p4725
I1
sVdrk8lb5
p4726
I1
sVd0j09jy
p4727
I1
sVdcbdamk
p4728
I1
sVd24kfaj
p4729
I1
sVdi5chib
p4730
I1
sVdk2gisb
p4731
I1
sVd2k0bv7
p4732
I1
sVdj9qoy3
p4733
I1
sVdc2bazt
p4734
I1
sVddx9x3z
p4735
I1
sVd4pm0ov
p4736
I1
sVdczt9oz
p4737
I1
sVcyzghi5
p4738
I1
sVdrefwd9
p4739
I1
sVdijnx0f
p4740
I1
sVd5jz2if
p4741
I1
sVd7d0p6j
p4742
I1
sVdeaznoc
p4743
I1
sVdfoj1cs
p4744
I1
sVd3hvehd
p4745
I1
sVdpu53ah
p4746
I1
sVd9zm4ow
p4747
I1
sVdeprpc1
p4748
I1
sVd24yje1
p4749
I1
sVdqzqx3s
p4750
I1
sVczrhrui
p4751
I1
sVd7e6faz
p4752
I1
sVdmncdak
p4753
I1
sVdalznnt
p4754
I1
sVd6jnje5
p4755
I1
sVdeohry0
p4756
I1
sVd3vrivb
p4757
I1
sVd8gsm3k
p4758
I1
sVdqfd8sv
p4759
I1
sVdoz6crq
p4760
I1
sVcz5wjch
p4761
I1
sVdb17320
p4762
I1
sVdmz9z9u
p4763
I1
sVdd9qdk7
p4764
I1
sVddhlyql
p4765
I1
sVd1v16ur
p4766
I1
sVd0850pg
p4767
I1
sVddwekcg
p4768
I1
sVdp9nflk
p4769
I1
sVdknazjk
p4770
I1
sVdgvhfct
p4771
I1
sVdf3dadm
p4772
I1
sVd2fgxwm
p4773
I1
sVd23wkn3
p4774
I1
sVdkwfov6
p4775
I1
sVdc9bi38
p4776
I1
sVd92nh8a
p4777
I1
sVd314w8l
p4778
I1
sVczxozjy
p4779
I1
sVd9qor9b
p4780
I2
sVdq5s5h4
p4781
I1
sVda3av5f
p4782
I1
sVd84gxjx
p4783
I1
sVdaj5j3h
p4784
I1
sVd1zd221
p4785
I1
sVd4il4dj
p4786
I1
sVd33g46i
p4787
I1
sVdcc6o1l
p4788
I1
sVdekh9z0
p4789
I1
sVcyk59wq
p4790
I1
sVda439o5
p4791
I1
sVczm0flt
p4792
I1
sVdayqst9
p4793
I1
sVd237agc
p4794
I1
sVd3kp1lq
p4795
I1
sVcyq4xic
p4796
I1
sVd8rhrzj
p4797
I1
sVdetdhcj
p4798
I1
sVdbzijcc
p4799
I1
sVdsg19af
p4800
I1
sVdbx8k0l
p4801
I1
sVdeo5sw9
p4802
I1
sVd1ui1x7
p4803
I1
sVdoto3f5
p4804
I1
sVdsu6kbg
p4805
I1
sVczinm5s
p4806
I1
sVdevvd41
p4807
I1
sVd1vnkt8
p4808
I1
sVd9vige5
p4809
I1
sVd31b8cf
p4810
I1
sVdcuk32k
p4811
I1
sVd1stpg3
p4812
I1
sVdc7z5nf
p4813
I1
sVd25raf2
p4814
I1
sVdry5swe
p4815
I1
sVdkf4uet
p4816
I1
sVd0e5t9j
p4817
I1
sVdd7ql4a
p4818
I1
sVdd18lxm
p4819
I1
sVdikvdhm
p4820
I1
sVddqp370
p4821
I1
sVdjrcn7v
p4822
I1
sVdj3tpq5
p4823
I1
sVdargjet
p4824
I1
sVd1ivknr
p4825
I1
sVdrim52v
p4826
I1
sVdmpd7qj
p4827
I1
sVdcuih83
p4828
I1
sVdagahp4
p4829
I1
sVdn31gdx
p4830
I1
sVdf8ofnw
p4831
I1
sVd314egc
p4832
I1
sVdijpo7i
p4833
I1
sVd50mti1
p4834
I1
sVd2o5et9
p4835
I1
sVczuggbm
p4836
I1
sVdmui2vi
p4837
I1
sVd8ecna9
p4838
I2
sVd3e37dj
p4839
I1
sVdbtlbe4
p4840
I1
sVd5p6xd1
p4841
I1
sVdekaos1
p4842
I1
sVdo1miya
p4843
I1
sVd425j1i
p4844
I1
sVdnetd1w
p4845
I1
sVd3uu2aj
p4846
I2
sVdkbxtca
p4847
I1
sVd0q8sw2
p4848
I1
sVd0fn91w
p4849
I1
sVdaokvwc
p4850
I1
sVd70o8vu
p4851
I1
sVdopd06s
p4852
I1
sVd4h2cp2
p4853
I1
sVdtckiyn
p4854
I1
sVczr0qvu
p4855
I1
sVd5ihdw9
p4856
I1
sVd8o44q3
p4857
I1
sVdqf0vl1
p4858
I1
sVdgb419q
p4859
I1
sVd46ismf
p4860
I1
sVdsklv88
p4861
I1
sVd7rzdxw
p4862
I1
sVdravysb
p4863
I1
sVdccpnt9
p4864
I1
sVdao55nj
p4865
I1
sVdolahfl
p4866
I1
sVd37an3t
p4867
I1
sVd3j6pqw
p4868
I1
sVd9tuq4q
p4869
I1
sVcymr3vr
p4870
I1
sVddh8qlt
p4871
I1
sVd63qnxz
p4872
I1
sVd234lp8
p4873
I2
sVdmopkzp
p4874
I1
sVd5fljuk
p4875
I1
sVczaywh6
p4876
I1
sVdgixxkl
p4877
I2
sVdtfl2xl
p4878
I1
sVdkkiaml
p4879
I2
sVd9xexn3
p4880
I1
sVdd6qikh
p4881
I1
sVddw8lp4
p4882
I1
sVdacvhsn
p4883
I1
sVd5unw22
p4884
I1
sVd2kufsx
p4885
I1
sVddum0ce
p4886
I1
sVczbvaqx
p4887
I1
sVdeh89mu
p4888
I1
sVd0q40fa
p4889
I1
sVd0bpai1
p4890
I1
sVd6c1kkd
p4891
I1
sVdqebjda
p4892
I1
sVd1xzyar
p4893
I1
sVd0da1kb
p4894
I1
sVdf5adxp
p4895
I1
sVd5o9sji
p4896
I1
sVd2p2den
p4897
I1
sVdg892wz
p4898
I1
sVd8jzd5f
p4899
I1
sVdpwajpc
p4900
I1
sVd2g0zz5
p4901
I1
sVd0rj4yy
p4902
I1
sVdskvi3x
p4903
I1
sVd66isvp
p4904
I1
sVddsaqow
p4905
I1
sVd62c8iw
p4906
I1
sVdd00qzt
p4907
I1
sVdgs2je0
p4908
I1
sVdcj1gho
p4909
I1
sVdr0oxdr
p4910
I1
sVdk065b3
p4911
I1
sVdbmjm1z
p4912
I2
sVdnr5no2
p4913
I1
sVdjhnapw
p4914
I1
sVdfjvere
p4915
I1
sVd0viqqe
p4916
I1
sVdquina1
p4917
I1
sVczy5r0q
p4918
I2
sVdakq92z
p4919
I1
sVd0wmzzh
p4920
I1
sVczw7vcn
p4921
I1
sVd8itpkd
p4922
I1
sVdhot1dh
p4923
I1
sVd1sz74v
p4924
I1
sVd7dgo8s
p4925
I1
sVdpv982m
p4926
I1
sVdnhfanz
p4927
I1
sVd062yye
p4928
I1
sVcyt0qh2
p4929
I1
sVdkfrhto
p4930
I1
sVdavmkzu
p4931
I2
sVdn0nyqe
p4932
I2
sVd73laob
p4933
I1
sVddrmcm9
p4934
I3
sVd8cnus8
p4935
I1
sVdg2kuqt
p4936
I1
sVcysj0h2
p4937
I1
sVdgv4upa
p4938
I1
sVd7e7dne
p4939
I1
sVd8gp35j
p4940
I1
sVdhchyw1
p4941
I1
sVd9ffbfp
p4942
I1
sVdd8n4i0
p4943
I1
sVdf1zjek
p4944
I1
sVde4ew6o
p4945
I1
sVdd53rep
p4946
I1
sVd1fki7g
p4947
I1
sVdetw2mo
p4948
I1
sVdcz54yq
p4949
I1
sVdcmm7he
p4950
I1
sVdinibjj
p4951
I1
sVcyv6qh5
p4952
I1
sVdebms3e
p4953
I1
sVd2i9cws
p4954
I1
sVddgk64i
p4955
I1
sVdf7oo66
p4956
I2
sVd3zty7g
p4957
I1
sVcyxdzne
p4958
I1
sVczc7cs7
p4959
I1
sVdklta05
p4960
I1
sVd336jwi
p4961
I1
sVdc6qxyo
p4962
I1
sVdfnfln6
p4963
I1
sVczjjjrg
p4964
I1
sVd07f71x
p4965
I1
sVdi85qgh
p4966
I1
sVdaewbqd
p4967
I1
sVdd3w9qk
p4968
I1
sVczs1gso
p4969
I1
sVddfm0gz
p4970
I1
sVdd8swyf
p4971
I1
sVd9z3qef
p4972
I1
sVdaorp17
p4973
I1
sVdo9aw72
p4974
I1
sVddiie9i
p4975
I1
sVd0lj8yc
p4976
I1
sVdit3hsq
p4977
I2
sVddt78yy
p4978
I1
sVd0rl813
p4979
I1
sVdfk5kwd
p4980
I2
sVcznt369
p4981
I1
sVd930l55
p4982
I1
sVd6erfix
p4983
I2
sVdcw7ix6
p4984
I1
sVdrqnvhn
p4985
I1
sVd1ipa00
p4986
I5
sVdiseft5
p4987
I1
sVd7xugjz
p4988
I1
sVd9pkxp0
p4989
I1
sVd50ghb2
p4990
I1
sVd5lsca3
p4991
I1
sVd1izcvy
p4992
I5
sVdfl2b5s
p4993
I1
sVdjbxvqz
p4994
I1
sVd412icf
p4995
I1
sVczth191
p4996
I1
sVcyu69mb
p4997
I1
sVcyvbod9
p4998
I1
sVd5vj3vr
p4999
I1
sVd2x97z5
p5000
I1
sVdeh6yoa
p5001
I1
sVd9hexpl
p5002
I1
sVdhi04kp
p5003
I1
sVddxouwr
p5004
I1
sVddb6j4x
p5005
I1
sVdb84dur
p5006
I1
sVdfv0vtn
p5007
I1
sVdezjhbo
p5008
I1
sVdr7z11u
p5009
I1
sVdndd5yz
p5010
I1
sVda2scrl
p5011
I1
sVd03crwm
p5012
I2
sVdcclhs2
p5013
I1
sVdarbcal
p5014
I1
sVczu8pkc
p5015
I1
sVczlm78h
p5016
I1
sVdgm0oej
p5017
I1
sVdiu93i9
p5018
I1
sVd6952qc
p5019
I1
sVdt9nkwm
p5020
I4
sVdo80ja6
p5021
I2
sVczl9tg5
p5022
I1
sVd76ukdy
p5023
I1
sVcyyzwil
p5024
I1
sVd4ypmox
p5025
I1
sVczwnkzp
p5026
I1
sVczvp0kw
p5027
I1
sVdbfvinu
p5028
I1
sVd10mjl5
p5029
I1
sVdafquv7
p5030
I1
sVdr8kzbi
p5031
I1
sVd5tp91t
p5032
I1
sVd210qlj
p5033
I1
sVd2662n4
p5034
I1
sVd14ghj4
p5035
I1
sVdel4dx4
p5036
I1
sVdkc36mh
p5037
I1
sVd2y3myy
p5038
I1
sVdcesnis
p5039
I1
sVdjd61lp
p5040
I1
sVdrya744
p5041
I1
sVd9k12kb
p5042
I1
sVd2t3byz
p5043
I2
sVd98v5sl
p5044
I2
sVdbqyiwi
p5045
I1
sVdf9f2xh
p5046
I2
sVdcghcwv
p5047
I1
sVczgrecu
p5048
I1
sVcykrpxm
p5049
I1
sVd6f6c7w
p5050
I1
sVddevntk
p5051
I1
sVdd9ximq
p5052
I1
sVd95tj9u
p5053
I1
sVdg6d0m8
p5054
I2
sVd7hz47f
p5055
I1
sVdihbpfd
p5056
I1
sVdczk8oe
p5057
I1
sVd4u073j
p5058
I1
sVdgio4ze
p5059
I1
sVd03exa4
p5060
I1
sVdbn0m4a
p5061
I1
sVd7odoac
p5062
I1
sVddwqpkm
p5063
I1
sVdeos6j6
p5064
I1
sVd38eg1o
p5065
I1
sVd56bdc9
p5066
I1
sVd13jrcd
p5067
I1
sVdgflgr5
p5068
I1
sVd2v4xw5
p5069
I1
sVd1wuos5
p5070
I1
sVd8n3hp6
p5071
I1
sVd3pu89a
p5072
I1
sVd7vxl48
p5073
I1
sVd0fp4wi
p5074
I1
sVdnuoe6x
p5075
I1
sVdhoq8k0
p5076
I1
sVdhlwaxq
p5077
I1
sVddkhzok
p5078
I1
sVd8cglg1
p5079
I1
sVdhdp3cv
p5080
I1
sVddjl5t7
p5081
I1
sVdba58ac
p5082
I2
sVdhqay9y
p5083
I1
sVdcdjlwo
p5084
I1
sVd2hy0rp
p5085
I1
sVdfow6hj
p5086
I4
sVd1fqys2
p5087
I1
sVdk579s2
p5088
I1
sVdii7mrx
p5089
I1
sVd028vir
p5090
I1
sVdg4bczy
p5091
I1
sVdt2k68t
p5092
I1
sVd9jwzif
p5093
I1
sVdqx6oxo
p5094
I1
sVdfh2k28
p5095
I1
sVd9icovl
p5096
I1
sVd00c45b
p5097
I1
sVd3qchex
p5098
I1
sVd0rrgbl
p5099
I1
sVd6c8thk
p5100
I1
sVdknxdxa
p5101
I1
sVdde4tvz
p5102
I1
sVd1490xn
p5103
I1
sVcyzvq8m
p5104
I2
sVd85zft3
p5105
I1
sVdelrxe9
p5106
I1
sVczvi84v
p5107
I1
sVd5pok48
p5108
I1
sVdkzn2fn
p5109
I1
sVd8hoevo
p5110
I1
sVdhrlxb1
p5111
I1
sVdeeuwqi
p5112
I1
sVdavaodd
p5113
I1
sVd2ig2qe
p5114
I1
sVdmiqv8e
p5115
I1
sVd6i8t64
p5116
I1
sVd1sn8t2
p5117
I1
sVd10b2ec
p5118
I1
sVd3bfru5
p5119
I1
sVd4fm28l
p5120
I1
sVd2tkhwk
p5121
I1
sVdg2uocp
p5122
I1
sVd1uizpk
p5123
I1
sVdhwkizi
p5124
I1
sVd9fmw7d
p5125
I1
sVd40ka5n
p5126
I1
sVdd6plza
p5127
I1
sVda04sm5
p5128
I1
sVdf1m6u5
p5129
I1
sVd6r6e26
p5130
I1
sVdrm57bh
p5131
I1
sVd24m8zu
p5132
I1
sVd7nzsqf
p5133
I1
sVcyw5dgo
p5134
I1
sVd8ti19i
p5135
I1
sVdpk88sp
p5136
I4
sVd5p2mqh
p5137
I1
sVcz0a4as
p5138
I1
sVd3vctvx
p5139
I1
sVdt3s4qp
p5140
I2
sVdbo08kh
p5141
I1
sVdrazfkx
p5142
I1
sVd73jw4a
p5143
I1
sVd97ydvc
p5144
I1
sVddi4hh5
p5145
I1
sVd7memxr
p5146
I1
sVdimhc95
p5147
I1
sVd6lmay9
p5148
I1
sVd6nxect
p5149
I1
sVcyllbk9
p5150
I1
sVd6cmmmg
p5151
I1
sVdic24q5
p5152
I1
sVd0x3tpb
p5153
I1
sVd4z86b7
p5154
I1
sVd9eanis
p5155
I1
sVd2a4w7o
p5156
I1
sVd0fqxe6
p5157
I1
sVden5584
p5158
I3
sVdak9cs3
p5159
I1
sVdmur17d
p5160
I1
sVd9ltu25
p5161
I1
sVd9d1ryk
p5162
I1
sVdf1x0qq
p5163
I1
sVd178wm3
p5164
I1
sVdms4m88
p5165
I1
sVd5uu8ps
p5166
I2
sVczfyqvx
p5167
I2
sVd818sp4
p5168
I1
sVd20fl06
p5169
I1
sVdqabl74
p5170
I1
sVdaxld87
p5171
I1
sVdfb8rv7
p5172
I1
sVd1g97e4
p5173
I2
sVdblbowh
p5174
I1
sVdjq5xr3
p5175
I1
sVd7n1r6n
p5176
I1
sVd346qi0
p5177
I1
sVd9w2me8
p5178
I1
sVdhxtqf5
p5179
I1
sVd4d9nsi
p5180
I1
sVdja557c
p5181
I2
sVdcrwen1
p5182
I1
sVd1y5xhb
p5183
I2
sVdsuuvy8
p5184
I1
sVdiyqb7b
p5185
I1
sVd9b7mlu
p5186
I1
sVcz806qo
p5187
I1
sVd36bmsg
p5188
I1
sVd9cgnk2
p5189
I2
sVdb8wbeu
p5190
I1
sVd7rqbc2
p5191
I1
sVdixt4zo
p5192
I1
sVczt1gqu
p5193
I1
sVd6egup5
p5194
I1
sVdeod6kf
p5195
I1
sVd56rfbx
p5196
I1
sVd0pjjiq
p5197
I1
sVdj84tgz
p5198
I1
sVdh0wind
p5199
I1
sVdt219zz
p5200
I1
sVd2mqma2
p5201
I1
sVczfniwu
p5202
I1
sVdj8ty9j
p5203
I1
sVd6m8gqj
p5204
I1
sVczv6jaz
p5205
I1
sVdfrociz
p5206
I1
sVdcmp5iv
p5207
I1
sVd7e6va8
p5208
I1
sVdq0knti
p5209
I1
sVd9boej7
p5210
I1
sVd5prk6i
p5211
I2
sVdh5x5j2
p5212
I3
sVcz8eas8
p5213
I1
sVcziucvs
p5214
I2
sVdpp6tgy
p5215
I1
sVdswuu8f
p5216
I1
sVd9xbyzb
p5217
I1
sVdehuans
p5218
I1
sVdezcflb
p5219
I1
sVd3pxxdx
p5220
I1
sVd14j8uq
p5221
I1
sVdi2f28d
p5222
I2
sVdrv48lq
p5223
I1
sVd6gftgb
p5224
I1
sVd8a5xz4
p5225
I1
sVdetwgff
p5226
I1
sVczatmpn
p5227
I1
sVdp4llaq
p5228
I1
sVdaqbg60
p5229
I1
sVda44s08
p5230
I1
sVdbdg5oi
p5231
I1
sVd6on61f
p5232
I1
sVd8trjef
p5233
I1
sVcyzo4pd
p5234
I1
sVd5ekwdb
p5235
I1
sVdsecvjz
p5236
I1
sVdhxdhti
p5237
I1
sVdr41vfb
p5238
I2
sVdr584h7
p5239
I1
sVdjsibmq
p5240
I2
sVdcd92em
p5241
I1
sVczj891x
p5242
I1
sVd6mqzxc
p5243
I1
sVdgi5qk3
p5244
I1
sVdkvojua
p5245
I1
sVdpmndtl
p5246
I1
sVdqu6785
p5247
I1
sVd2ihxj0
p5248
I1
sVd9gi2nk
p5249
I1
sVd2pe9cj
p5250
I1
sVdk8wnzy
p5251
I1
sVd9baesr
p5252
I1
sVdimelo8
p5253
I1
sVdatutc3
p5254
I1
sVdpluetp
p5255
I2
sVdc9welt
p5256
I1
sVd7wgueo
p5257
I2
sVdsgj4gs
p5258
I1
sVdkdw7ru
p5259
I1
sVcyvakhb
p5260
I2
sVdk9d27g
p5261
I1
sVd41dw36
p5262
I1
sVd8tnk4e
p5263
I1
sVczsr7t2
p5264
I1
sVd1dqw3n
p5265
I1
sVczsgqc6
p5266
I3
sVd058g55
p5267
I1
sVdkg18b0
p5268
I1
sVdkqhx5v
p5269
I1
sVdfbywsq
p5270
I1
sVdcgfo2r
p5271
I1
sVdh10aaw
p5272
I2
sVczc8e7h
p5273
I1
sVd7rre52
p5274
I1
sVczscil5
p5275
I1
sVdtdukgx
p5276
I1
sVdk4bdyt
p5277
I1
sVd3g0z7z
p5278
I1
sVda8v47b
p5279
I1
sVd3k0ev4
p5280
I1
sVdivt604
p5281
I1
sVczj9gs4
p5282
I1
sVczz9h7x
p5283
I2
sVd0qt9bo
p5284
I1
sVdfqwek1
p5285
I2
sVd4nki1i
p5286
I1
sVdj9qsr9
p5287
I1
sVd2cacpa
p5288
I1
sVd90mloq
p5289
I1
sVdifhafq
p5290
I1
sVczf1j0i
p5291
I1
sVd6gmvsg
p5292
I1
sVdbn79zs
p5293
I1
sVde0j4f9
p5294
I2
sVddvhkj8
p5295
I1
sVdrx2cny
p5296
I1
sVdb567uc
p5297
I1
sVcysmz03
p5298
I1
sVd05035o
p5299
I1
sVdjndcgw
p5300
I1
sVd37wfod
p5301
I1
sVd55qujh
p5302
I1
sVdi52wh5
p5303
I1
sVdf5eo8g
p5304
I1
sVd5pl0mt
p5305
I1
sVdkuqzfr
p5306
I1
sVdmsgga7
p5307
I1
sVd03axs3
p5308
I1
sVdi1junn
p5309
I2
sVdbcrwim
p5310
I1
sVd83am2l
p5311
I2
sVcznv8rg
p5312
I1
sVdkg1yjb
p5313
I1
sVdjxex31
p5314
I1
sVd00hyl1
p5315
I1
sVd3n6jic
p5316
I1
sVdalyond
p5317
I1
sVde6xnbo
p5318
I1
sVd12lvgv
p5319
I1
sVdpx9i09
p5320
I1
sVdmvrkbw
p5321
I1
sVd1rdb1k
p5322
I1
sVdasa672
p5323
I1
sVdc9833g
p5324
I1
sVdckfvpb
p5325
I1
sVd6tz9uy
p5326
I2
sVdmeqdfq
p5327
I1
sVdbti5g8
p5328
I1
sVde3ejgm
p5329
I1
sVczvwqeh
p5330
I1
sVd9l5xyi
p5331
I2
sVd5mxntl
p5332
I1
sVczxdg0d
p5333
I2
sVd7pp16p
p5334
I1
sVcyvkn4w
p5335
I1
sVd0ok9w6
p5336
I1
sVd2vxw6r
p5337
I1
sVdbh4f8q
p5338
I1
sVd26b2vu
p5339
I1
sVd62m97u
p5340
I1
sVcylfzfr
p5341
I1
sVdc9lx1h
p5342
I1
sVdff9y7e
p5343
I1
sVd2rb13v
p5344
I1
sVd11px3f
p5345
I1
sVczimll5
p5346
I1
sVd8rqhm6
p5347
I1
sVdsq7hat
p5348
I1
sVd87nbml
p5349
I1
sVdddjv3p
p5350
I1
sVczoxeya
p5351
I1
sVcymghi4
p5352
I1
sVd0ymfxd
p5353
I1
sVd3swdnv
p5354
I1
sVd5lf76k
p5355
I1
sVd5dragd
p5356
I1
sVd392xpz
p5357
I1
sVd9hs7sf
p5358
I1
sVdfntfxr
p5359
I1
sVd0ss1fc
p5360
I1
sVdccrrbo
p5361
I1
sVd3q5srr
p5362
I1
sVdoqu48b
p5363
I1
sVdbgtc2k
p5364
I1
sVd03a07b
p5365
I1
sVdg8fytw
p5366
I1
sVd76hjag
p5367
I1
sVd0ussxq
p5368
I1
sVd3hxdru
p5369
I1
sVd53tvqi
p5370
I1
sVd3v6xyy
p5371
I1
sVdkbnf2m
p5372
I1
sVd69fxjl
p5373
I1
sVd0jzr7e
p5374
I1
sVdo5jjhn
p5375
I1
sVddptwhs
p5376
I2
sVdbcaj5d
p5377
I1
sVd182bge
p5378
I1
sVdgq0ga5
p5379
I1
sVd6czsnp
p5380
I1
sVdb6qjf2
p5381
I1
sVd85sxdr
p5382
I1
sVdr640o1
p5383
I1
sVd9ig8at
p5384
I2
sVder52ob
p5385
I1
sVdq4blp9
p5386
I1
sVdd8hcyz
p5387
I1
sVcz5vzlw
p5388
I1
sVdpq3xu3
p5389
I1
sVdhyz6un
p5390
I2
sVd6qhpvn
p5391
I1
sVd82ucbs
p5392
I1
sVd9p0cst
p5393
I1
sVdirkleu
p5394
I1
sVd3jnys6
p5395
I1
sVdgnt97o
p5396
I1
sVcztpl66
p5397
I1
sVd4kxx4b
p5398
I1
sVdj1mqgl
p5399
I2
sVdfo8luq
p5400
I2
sVdk37wop
p5401
I1
sVd0qjl2u
p5402
I1
sVdtets8d
p5403
I1
sVdniyf1s
p5404
I1
sVd4ctdy1
p5405
I1
sVd1cbic9
p5406
I1
sVcz2ho2u
p5407
I1
sVd6hqck2
p5408
I1
sVdirxm4d
p5409
I1
sVdenxu8g
p5410
I1
sVd33aut3
p5411
I1
sVd8jiqnw
p5412
I1
sVczwy46x
p5413
I1
sVdgq71pq
p5414
I1
sVdahc969
p5415
I1
sVdh5n1ie
p5416
I1
sVcymi51q
p5417
I2
sVdk4ezrb
p5418
I1
sVdmof6id
p5419
I1
sVd3uko75
p5420
I1
sVcyxe3g5
p5421
I1
sVddcizyr
p5422
I1
sVd0niu81
p5423
I1
sVczetxup
p5424
I1
sVdfhybsx
p5425
I1
sVd730dfy
p5426
I1
sVcyv9w18
p5427
I1
sVdikkqg1
p5428
I1
sVd35it78
p5429
I3
sVdh53kpn
p5430
I1
sVd1pftqv
p5431
I1
sVdg0caws
p5432
I1
sVd4vn2ky
p5433
I1
sVdcpx0r3
p5434
I3
sVcz5b8jx
p5435
I1
sVd2jn4xt
p5436
I1
sVd5stfps
p5437
I1
sVd37ykh8
p5438
I1
sVdh1nk5t
p5439
I1
sVd660ug2
p5440
I1
sVdadm6y6
p5441
I1
sVddxoim8
p5442
I1
sVd2be0ex
p5443
I1
sVd2f98h9
p5444
I1
sVdedp3dl
p5445
I1
sVd0kc8ot
p5446
I1
sVd0eou02
p5447
I1
sVda4dm0s
p5448
I1
sVd60haks
p5449
I1
sVdopxyfv
p5450
I1
sVdi2erho
p5451
I1
sVd0x4egh
p5452
I1
sVdb1hozm
p5453
I1
sVd020opq
p5454
I1
sVdea6z5t
p5455
I1
sVdik0dln
p5456
I1
sVd8wkru1
p5457
I1
sVd1yfbej
p5458
I1
sVd0vf78z
p5459
I2
sVdqbd1k4
p5460
I1
sVdfyfow6
p5461
I1
sVd65t72z
p5462
I1
sVd2bctya
p5463
I1
sVdcrvvbk
p5464
I1
sVdarfm8g
p5465
I1
sVd8yv4id
p5466
I2
sVd5y1yqt
p5467
I1
sVd43b256
p5468
I1
sVdjsluqb
p5469
I1
sVd1si96j
p5470
I1
sVd9x1klx
p5471
I1
sVd2mrwny
p5472
I1
sVcymx7zd
p5473
I1
sVdr1440t
p5474
I1
sVd4tc0lx
p5475
I1
sVd1q90bf
p5476
I1
sVdci4kb4
p5477
I1
sVdc0urad
p5478
I1
sVcz0mnrs
p5479
I3
sVcyyv109
p5480
I1
sVdkyk0ez
p5481
I1
sVddi82qp
p5482
I2
sVczwaewg
p5483
I3
sVde61t4q
p5484
I1
sVdirwq0y
p5485
I1
sVd2dbhtb
p5486
I1
sVd7stiky
p5487
I1
sVdq3peh0
p5488
I2
sVd6zpmdu
p5489
I1
sVdi5futn
p5490
I1
sVde00jao
p5491
I1
sVd619vy9
p5492
I1
sVd640mze
p5493
I1
sVdk0w4dp
p5494
I1
sVdbmcs3g
p5495
I1
sVd8dd7ne
p5496
I1
sVd7a4a23
p5497
I1
sVdflc00f
p5498
I1
sVd8w9v4z
p5499
I1
sVd9va8kf
p5500
I1
sVd2ts93g
p5501
I1
sVczmz9li
p5502
I1
sVdbyl3lt
p5503
I4
sVddt00ov
p5504
I1
sVddpt0k3
p5505
I2
sVd6sxbek
p5506
I1
sVd1v6v68
p5507
I1
sVdi6pbpq
p5508
I1
sVd0ttaqe
p5509
I1
sVddxt15e
p5510
I1
sVdel4y6b
p5511
I1
sVd9mbl67
p5512
I2
sVdef9xl0
p5513
I1
sVdsugola
p5514
I1
sVdkoumjv
p5515
I1
sVda1drq8
p5516
I1
sVd6e2pgj
p5517
I1
sVdnl38r1
p5518
I1
sVd0ozoud
p5519
I1
sVdkjt3dl
p5520
I1
sVdix6az1
p5521
I1
sVd0ax0t4
p5522
I1
sVdb7d9sq
p5523
I1
sVczwxb2z
p5524
I1
sVd5eee3y
p5525
I1
sVdd6bv63
p5526
I1
sVdf51zdj
p5527
I1
sVczpy39p
p5528
I1
sVdtfaep5
p5529
I1
sVdel4aok
p5530
I1
sVda048wd
p5531
I1
sVde6o9lx
p5532
I1
sVdecudjh
p5533
I1
sVd5m7kql
p5534
I1
sVdfvg7qh
p5535
I1
sVd8imxfd
p5536
I1
sVdjppcp7
p5537
I1
sVd0475ns
p5538
I2
sVd2pvrga
p5539
I1
sVdpvpm2y
p5540
I1
sVd3hhhsb
p5541
I1
sVd7vv8mg
p5542
I1
sVdo2rkpb
p5543
I1
sVdqd2iez
p5544
I2
sVd5m7pxf
p5545
I3
sVd5gr3ta
p5546
I1
sVd6tzi9l
p5547
I1
sVdcpatyr
p5548
I1
sVdipq9j9
p5549
I1
sVdt2fzvy
p5550
I1
sVdn918k5
p5551
I1
sVd35h50o
p5552
I1
sVddpukop
p5553
I1
sVd4wkrcz
p5554
I1
sVdfkgj95
p5555
I1
sVdsiycj0
p5556
I1
sVdeq1o2x
p5557
I1
sVdmwrmhu
p5558
I1
sVdnshe0y
p5559
I1
sVd3mfzd0
p5560
I1
sVdoy3oqz
p5561
I1
sVdjmkdzb
p5562
I1
sVditvgdo
p5563
I1
sVdmi4h0s
p5564
I1
sVd2rpy6y
p5565
I1
sVdii2984
p5566
I1
sVdjsm6la
p5567
I1
sVdk9ozei
p5568
I1
sVddwp3si
p5569
I1
sVd4t0xga
p5570
I1
sVdk8s0gt
p5571
I1
sVdd54vkk
p5572
I1
sVd8cvzf3
p5573
I1
sVdb59sq6
p5574
I1
sVdf0zet0
p5575
I1
sVd1j01qi
p5576
I1
sVds60tqp
p5577
I1
sVdbx6oik
p5578
I1
sVd52kvnf
p5579
I1
sVd5isbq3
p5580
I1
sVdddufwl
p5581
I1
sVdht1edt
p5582
I1
sVdoheadi
p5583
I1
sVd7tl7tw
p5584
I1
sVddwvwok
p5585
I1
sVdhibobw
p5586
I1
sVd238ox9
p5587
I1
sVd4w84wq
p5588
I1
sVdcv9owt
p5589
I1
sVdh1wrev
p5590
I1
sVdjca6hp
p5591
I1
sVdos8gr8
p5592
I1
sVdmj1ehw
p5593
I1
sVde86a3l
p5594
I1
sVdn8coy8
p5595
I1
sVd34lujh
p5596
I1
sVczdrt69
p5597
I2
sVdh4jlrq
p5598
I1
sVdbbe6il
p5599
I1
sVdhkrd1x
p5600
I1
sVdgoyecy
p5601
I1
sVdb01cl9
p5602
I1
sVd6n355i
p5603
I1
sVd34eyza
p5604
I1
sVd85xvpd
p5605
I2
sVdqsv7rk
p5606
I1
sVd4cqs0y
p5607
I1
sVd3e5uey
p5608
I2
sVd2aetws
p5609
I1
sVdj1pfiq
p5610
I1
sVdgg4ke3
p5611
I1
sVd0vupd9
p5612
I1
sVd1usy2a
p5613
I1
sVdrtd78b
p5614
I1
sVdmgtfvo
p5615
I1
sVd44ugsx
p5616
I1
sVdmre9at
p5617
I1
sVdby3z6l
p5618
I1
sVdjl3c9e
p5619
I1
sVdapg2ed
p5620
I1
sVdqepe6p
p5621
I1
sVddcnta9
p5622
I1
sVdfghihf
p5623
I1
sVdg2571c
p5624
I1
sVdox325e
p5625
I1
sVdkokqvd
p5626
I1
sVdntysmn
p5627
I1
sVdb6guyz
p5628
I1
sVd09bb25
p5629
I1
sVdnm4i6k
p5630
I1
sVd1ggcle
p5631
I1
sVdduf1y3
p5632
I1
sVd09fvs9
p5633
I1
sVdk39rij
p5634
I2
sVd1hbhwa
p5635
I1
sVd5zj3sm
p5636
I1
sVdmrmthd
p5637
I1
sVd4uklo9
p5638
I1
sVd1qgffm
p5639
I1
sVdomqtkp
p5640
I1
sVczr4l0j
p5641
I1
sVd14nqlx
p5642
I1
sVdf4uv2b
p5643
I1
sVdfln3vg
p5644
I1
sVds92e14
p5645
I1
sVdgoh2d5
p5646
I1
sVdkbihoz
p5647
I2
sVdsblsol
p5648
I1
sVdfwyqek
p5649
I1
sVddofqj7
p5650
I1
sVd9nsbzj
p5651
I1
sVd2fru3o
p5652
I1
sVdqe52im
p5653
I1
sVde3scoz
p5654
I1
sVd8qkqpk
p5655
I1
sVdia8a48
p5656
I1
sVd73znbm
p5657
I1
sVd1zcjif
p5658
I1
sVdic18an
p5659
I1
sVdppc5mq
p5660
I1
sVdou5d88
p5661
I1
sVdbt035h
p5662
I1
sVdakt6r8
p5663
I1
sVd502mul
p5664
I1
sVddwcsco
p5665
I1
sVcyytr4t
p5666
I1
sVd4g1pdc
p5667
I2
sVdnr7hol
p5668
I1
sVd9yvcol
p5669
I1
sVddhrprn
p5670
I2
sVdbv4kb4
p5671
I1
sVdo53sbv
p5672
I1
sVczt0vgz
p5673
I1
sVder0wbm
p5674
I1
sVdqsyd2c
p5675
I1
sVdf1tw63
p5676
I1
sVdhwftlo
p5677
I1
sVd6r99gl
p5678
I1
sVd1ps9p4
p5679
I1
sVcynr2qh
p5680
I2
sVdhx5g8f
p5681
I1
sVdf32s0s
p5682
I1
sVd6k2wgy
p5683
I1
sVdpk7we1
p5684
I1
sVdc07nmf
p5685
I1
sVd8rmh57
p5686
I1
sVd2ueiqy
p5687
I1
sVdbguyur
p5688
I1
sVcz0rinp
p5689
I1
sVd9r5s26
p5690
I2
sVcz9d6ku
p5691
I1
sVde644w6
p5692
I1
sVddcqwxt
p5693
I1
sVdnxq9gb
p5694
I1
sVdpuza40
p5695
I1
sVdroq8of
p5696
I1
sVdox84kt
p5697
I1
sVdgk7vg7
p5698
I1
sVd5qd913
p5699
I1
sVd9nokoq
p5700
I1
sVd54e26y
p5701
I1
sVd1i4owg
p5702
I1
sVdqlint7
p5703
I1
sVdtc3ghx
p5704
I1
sVd045pyl
p5705
I1
sVcz8m7y4
p5706
I1
sVdieedw0
p5707
I1
sVcz99mr9
p5708
I1
sVczw6u4d
p5709
I1
sVdn9k4bn
p5710
I1
sVd6h0rh5
p5711
I1
sVd2dberw
p5712
I1
sVdil150b
p5713
I1
sVdiuv6xy
p5714
I1
sVd3xsa0p
p5715
I1
sVdp5nvvv
p5716
I1
sVdde2cdm
p5717
I1
sVd2g8li4
p5718
I1
sVd5k0f5r
p5719
I1
sVdn6gp21
p5720
I1
sVdeop4v6
p5721
I1
sVdid5vli
p5722
I1
sVd2hqh21
p5723
I1
sVdjodcv5
p5724
I1
sVdmuh5ji
p5725
I1
sVdq2jery
p5726
I1
sVdan3mcp
p5727
I1
sVczqeq43
p5728
I1
sVdqccdhr
p5729
I1
sVd05580v
p5730
I1
sVdfb2ri1
p5731
I2
sVdcnsmzp
p5732
I1
sVd77mun6
p5733
I1
sVdh5rwpr
p5734
I1
sVded3eko
p5735
I2
sVd3qrbvz
p5736
I1
sVdnl8kwo
p5737
I1
sVd3gosou
p5738
I1
sVdf0c8hq
p5739
I1
sVddwsegw
p5740
I1
sVdbcgq3l
p5741
I1
sVd436mmi
p5742
I1
sVdcx04en
p5743
I1
sVde6wqcc
p5744
I1
sVdpbqlv5
p5745
I1
sVdc9n762
p5746
I2
sVczp9wrt
p5747
I1
sVd0hbfn0
p5748
I1
sVddzlmw1
p5749
I1
sVd04iepd
p5750
I1
sVdcpkk8j
p5751
I1
sVdkyc5xl
p5752
I1
sVd232549
p5753
I1
sVdi865t6
p5754
I1
sVd8czm1k
p5755
I1
sVdhyt009
p5756
I1
sVdry3qog
p5757
I1
sVdam8r9l
p5758
I1
sVd3atr60
p5759
I1
sVdakyte8
p5760
I1
sVdd21kun
p5761
I1
sVdggyn0u
p5762
I1
sVd1iqprd
p5763
I3
sVd8fj1eo
p5764
I2
sVdhqkpkm
p5765
I1
sVcz53tvm
p5766
I1
sVdrulkok
p5767
I1
sVczth7qp
p5768
I1
sVds6f2ul
p5769
I1
sVdguguhi
p5770
I1
sVd4zpam5
p5771
I1
sVdkeb80y
p5772
I1
sVdhsfvz9
p5773
I1
sVdfjkw89
p5774
I1
sVdeogs0r
p5775
I1
sVd6fafof
p5776
I1
sVd1lekxk
p5777
I2
sVczxhfdk
p5778
I1
sVdimpj50
p5779
I1
sVd3mumho
p5780
I1
sVda9i1yg
p5781
I1
sVdaok3yw
p5782
I1
sVdtc3bpe
p5783
I1
sVdawcf1d
p5784
I1
sVd7y5ra4
p5785
I1
sVd3f82ba
p5786
I1
sVd2m2bof
p5787
I1
sVd1ttrpj
p5788
I1
sVda2uetz
p5789
I1
sVdazt92r
p5790
I1
sVdaax7ps
p5791
I1
sVd6dp9so
p5792
I1
sVdnhij8c
p5793
I2
sVd86s3oc
p5794
I1
sVczywig0
p5795
I1
sVd1gb3al
p5796
I1
sVd9jphrs
p5797
I1
sVdghow7a
p5798
I1
sVdaume9b
p5799
I1
sVd1o6fyk
p5800
I1
sVd56czre
p5801
I1
sVd0bpp4g
p5802
I1
sVdh8x3jv
p5803
I1
sVd13ptkq
p5804
I1
sVcz4yq18
p5805
I1
sVd0j2lgj
p5806
I1
sVdf4yxqx
p5807
I1
sVd0zueh8
p5808
I1
sVcyj4f4b
p5809
I1
sVd1dy3f9
p5810
I1
sVdiwekm9
p5811
I1
sVd1uq6kv
p5812
I1
sVd7mwib4
p5813
I1
sVdawe29g
p5814
I1
sVdhu7feg
p5815
I1
sVdgo4adv
p5816
I1
sVdsiq8zz
p5817
I1
sVdcl8j31
p5818
I1
sVd2yc3gv
p5819
I1
sVd5g9pv6
p5820
I1
sVdtjdwau
p5821
I1
sVdtcx4lt
p5822
I1
sVd30ikzo
p5823
I1
sVdo1dj68
p5824
I1
sVdjz3qke
p5825
I1
sVd2ki2fg
p5826
I1
sVd1ns46x
p5827
I1
sVdiguei0
p5828
I1
sVd7k8lnj
p5829
I1
sVd45yogz
p5830
I1
sVd5oz6c1
p5831
I1
sVdafhbdm
p5832
I1
sVdrcr8vd
p5833
I1
sVdew6dwr
p5834
I1
sVdgf24e1
p5835
I1
sVd3ld8xe
p5836
I1
sVdrp5yk0
p5837
I1
sVczh9cj2
p5838
I1
sVdgurj2t
p5839
I1
sVdaebq8l
p5840
I1
sVdjmo9su
p5841
I1
sVczrl412
p5842
I2
sVdeno4fw
p5843
I3
sVdfa5aum
p5844
I1
sVdffmc0a
p5845
I1
sVddpvvzv
p5846
I1
sVd3j89nk
p5847
I1
sVdqa2vjn
p5848
I1
sVd16grwc
p5849
I2
sVd9et6s0
p5850
I1
sVcztd9z0
p5851
I1
sVd1bvpt5
p5852
I1
sVdpby8fs
p5853
I1
sVd03evdp
p5854
I1
sVdsazlzi
p5855
I1
sVd9s7pmr
p5856
I1
sVd78pu25
p5857
I1
sVd0twp8i
p5858
I1
sVdjha7rm
p5859
I1
sVdtev6zg
p5860
I1
sVdbqrxsg
p5861
I1
sVdi55knc
p5862
I1
sVdqd0h0u
p5863
I1
sVdihfquk
p5864
I1
sVdcpuqtf
p5865
I3
sVdohpjfi
p5866
I1
sVdcko7k1
p5867
I1
sVd1gdcnj
p5868
I1
sVd5y5asy
p5869
I1
sVde1an3y
p5870
I1
sVd2nq4dq
p5871
I1
sVddyjoos
p5872
I1
sVdekln48
p5873
I1
sVdc9whcx
p5874
I1
sVdacn3yw
p5875
I1
sVd3uqqeg
p5876
I1
sVd03f953
p5877
I1
sVdcjbsw4
p5878
I1
sVdke20wu
p5879
I1
sVdeo5nh7
p5880
I4
sVd0spxd2
p5881
I1
sVd2ezhph
p5882
I1
sVd3a4yo6
p5883
I1
sVd6nwhh4
p5884
I1
sVdaet6o5
p5885
I1
sVdbww3ed
p5886
I1
sVdf6fq9c
p5887
I1
sVdaawxbb
p5888
I1
sVddmm9i9
p5889
I1
sVd5g0sdk
p5890
I1
sVd0crab7
p5891
I2
sVdpcbor3
p5892
I1
sVd04ghon
p5893
I1
sVczh5o6a
p5894
I2
sVdf7vhkr
p5895
I1
sVdink3r7
p5896
I1
sVdiodezj
p5897
I1
sVd2vr186
p5898
I1
sVd0iwyr9
p5899
I1
sVdcxvcqz
p5900
I1
sVdaogvvu
p5901
I1
sVd1kniw9
p5902
I1
sVdf9zv3k
p5903
I1
sVdsed7mp
p5904
I1
sVd77m8cn
p5905
I1
sVddwr14o
p5906
I1
sVcyj55t5
p5907
I1
sVd4tezcq
p5908
I1
sVdr5u0yt
p5909
I1
sVdqnyzxr
p5910
I1
sVdh0a4ae
p5911
I2
sVd5fygb5
p5912
I1
sVcz9xa0h
p5913
I1
sVczk20kz
p5914
I2
sVd7iudr6
p5915
I1
sVdfx0bmu
p5916
I1
sVd39aoje
p5917
I1
sVdc4c4o8
p5918
I1
sVd3nuh8y
p5919
I1
sVdnjtptz
p5920
I1
sVd05ends
p5921
I1
sVd5x5jmw
p5922
I2
sVdgmljuh
p5923
I1
sVcyjbadl
p5924
I1
sVda79ocq
p5925
I1
sVd0s7rk0
p5926
I1
sVcze7ic8
p5927
I1
sVdk7ophc
p5928
I1
sVdaainpa
p5929
I1
sVd0cakue
p5930
I1
sVd3sv411
p5931
I3
sVcyufwzz
p5932
I5
sVdrbw8uc
p5933
I1
sVd1bnyi1
p5934
I1
sVd0t4j7n
p5935
I1
sVdfhlios
p5936
I2
sVcyjn5lv
p5937
I1
sVczzas5w
p5938
I1
sVdgagch7
p5939
I1
sVd4scps7
p5940
I1
sVdeny5t3
p5941
I1
sVd2apxbd
p5942
I1
sVdrvnr2j
p5943
I2
sVdpodxcy
p5944
I1
sVd5h0xk3
p5945
I1
sVdcunm3i
p5946
I1
sVdd8z0xi
p5947
I1
sVcytaodx
p5948
I1
sVdjekz8m
p5949
I1
sVdgqck3f
p5950
I1
sVdr2cucw
p5951
I1
sVczh449x
p5952
I1
sVd94s2gu
p5953
I11
sVdo0d3nn
p5954
I1
sVd9ovmxs
p5955
I1
sVdh56wz7
p5956
I1
sVdgajd9c
p5957
I1
sVdcy4mw2
p5958
I3
sVdrqkati
p5959
I1
sVddvnk2e
p5960
I1
sVd52ecmj
p5961
I1
sVd7jobl1
p5962
I1
sVdj9kye7
p5963
I1
sVdifalz1
p5964
I1
sVdaqbn0b
p5965
I1
sVd7plrhv
p5966
I1
sVdb03c99
p5967
I1
sVddpyt5d
p5968
I2
sVd8yy5wd
p5969
I1
sVd56i8d6
p5970
I1
sVd9f7c0e
p5971
I1
sVddj1i0j
p5972
I2
sVd9k3ko4
p5973
I1
sVd0h7p9t
p5974
I1
sVd2cb9tv
p5975
I1
sVdmi5l75
p5976
I1
sVds0eh9w
p5977
I1
sVdra0anr
p5978
I1
sVdmiwjq6
p5979
I1
sVdb829ag
p5980
I1
sVcyqwtkc
p5981
I1
sVda7el8g
p5982
I2
sVd2r2sjh
p5983
I1
sVdnsnjnb
p5984
I1
sVd37tq94
p5985
I1
sVd6inho8
p5986
I1
sVdbnmfzm
p5987
I2
sVd4me08g
p5988
I1
sVdfih6ww
p5989
I1
sVdqjuhew
p5990
I1
sVdpv39yy
p5991
I1
sVdji5zmt
p5992
I1
sVdmx7twm
p5993
I1
sVde46f94
p5994
I1
sVdevbfs6
p5995
I1
sVcyr7uyl
p5996
I1
sVds5p5po
p5997
I1
sVd0tnmc4
p5998
I1
sVdmo1kx8
p5999
I1
sVd63qhep
p6000
I1
sVd5x8bu2
p6001
I1
sVddwhuk5
p6002
I1
sVddcq7ak
p6003
I1
sVd3kr5ab
p6004
I1
sVdfhm267
p6005
I1
sVdcd6k6f
p6006
I1
sVdjgmk1l
p6007
I1
sVdbrxds7
p6008
I1
sVd85o9k5
p6009
I1
sVcyzebfe
p6010
I1
sVde70npu
p6011
I1
sVddwjban
p6012
I1
sVdf14ioz
p6013
I1
sVdcbw8ni
p6014
I1
sVdsnrp2v
p6015
I1
sVd23w3l8
p6016
I1
sVdcerd6y
p6017
I1
sVddh59a2
p6018
I1
sVds8zhwr
p6019
I1
sVdccmtgo
p6020
I1
sVdt8nxhe
p6021
I1
sVd5oq7z9
p6022
I1
sVd0c1vyz
p6023
I1
sVdhtzbzc
p6024
I1
sVdh6uyat
p6025
I1
sVdmelewe
p6026
I1
sVde6vq29
p6027
I1
sVd0mrto7
p6028
I1
sVddzsoes
p6029
I1
sVd0zqnw4
p6030
I1
sVd5vs7bo
p6031
I1
sVcyknht0
p6032
I1
sVdp7ci4c
p6033
I2
sVd83yfef
p6034
I1
sVdecfsz7
p6035
I1
sVdg08w32
p6036
I1
sVd6oyym4
p6037
I1
sVd5qva9n
p6038
I1
sVd5zaxgr
p6039
I1
sVdcsemzf
p6040
I1
sVdqe3w7z
p6041
I1
sVd7bcm3l
p6042
I1
sVdo5gpch
p6043
I1
sVdfwzvp5
p6044
I1
sVd22rojg
p6045
I1
sVczi9gxo
p6046
I1
sVd71ohxm
p6047
I1
sVdcuvlx9
p6048
I1
sVd6g6nz5
p6049
I1
sVdt5hezr
p6050
I1
sVdelhkh5
p6051
I1
sVd4xmpij
p6052
I1
sVdnv7l3u
p6053
I1
sVdr4dyte
p6054
I1
sVd4ooi5m
p6055
I1
sVdg24ra6
p6056
I1
sVd0ra71z
p6057
I1
sVdhn7ia9
p6058
I1
sVczqv5ug
p6059
I1
sVdb0a03p
p6060
I1
sVdeppwm8
p6061
I1
sVdb4zc8j
p6062
I1
sVd9na0ei
p6063
I1
sVddrux7f
p6064
I1
sVdfm7kpf
p6065
I1
sVd8au7bo
p6066
I1
sVdq16egv
p6067
I1
sVdcarkan
p6068
I1
sVd1ibhjp
p6069
I1
sVdjt1hub
p6070
I2
sVd7wu9wk
p6071
I2
sVd0rz19z
p6072
I1
sVdfi60im
p6073
I1
sVda2sgsh
p6074
I1
sVd5lzaha
p6075
I2
sVdbd3sx3
p6076
I1
sVd9a8h8w
p6077
I1
sVd9fvip1
p6078
I1
sVd19cp45
p6079
I1
sVdjo6ak2
p6080
I1
sVczvwxvn
p6081
I1
sVd31byqo
p6082
I1
sVdijlx71
p6083
I1
sVd1x66ms
p6084
I1
sVdds9vdg
p6085
I1
sVd27c8kr
p6086
I1
sVd1am890
p6087
I1
sVdg4gqc5
p6088
I1
sVdiektcm
p6089
I1
sVd2rywo3
p6090
I1
sVdafow5s
p6091
I1
sVd4nzy57
p6092
I1
sVd1fftsb
p6093
I1
sVd2j2qh5
p6094
I1
sVczvfbfr
p6095
I1
sVdeg6epv
p6096
I1
sVczzaj1i
p6097
I1
sVd53u861
p6098
I1
sVdff7fzj
p6099
I1
sVdggol6c
p6100
I1
sVd5o8s9i
p6101
I1
sVd0qic3t
p6102
I1
sVdin3qjg
p6103
I1
sVdci7oh2
p6104
I1
sVczoci3g
p6105
I1
sVd3mbz04
p6106
I1
sVdjtftjg
p6107
I1
sVddl20rj
p6108
I1
sVdj3kfgk
p6109
I2
sVczjur2k
p6110
I2
sVd8spqii
p6111
I2
sVdho5lcx
p6112
I1
sVdmzkse0
p6113
I1
sVd7f4lcy
p6114
I1
sVdbzf1bp
p6115
I1
sVdkluiq4
p6116
I1
sVdee5gtb
p6117
I1
sVdj773zx
p6118
I3
sVd69514g
p6119
I1
sVdsvqmgl
p6120
I1
sVdp8i9ix
p6121
I1
sVd12f767
p6122
I1
sVdkx7j2b
p6123
I1
sVdetf9a6
p6124
I1
sVda01v44
p6125
I1
sVdkcb9ns
p6126
I1
sVdhc1e9e
p6127
I1
sVdmfkvvp
p6128
I1
sVdb1xopc
p6129
I1
sVdfbe2ud
p6130
I2
sVd1vzs80
p6131
I1
sVdin6371
p6132
I1
sVd9i76je
p6133
I1
sVd6w0id1
p6134
I1
sVdd92nw3
p6135
I1
sVddpsh1n
p6136
I1
sVd1l7az7
p6137
I2
sVddq0heg
p6138
I1
sVd9q7n0w
p6139
I1
sVd9houz0
p6140
I2
sVdgwbkfn
p6141
I2
sVd34kea6
p6142
I1
sVd660zbw
p6143
I1
sVdg0mews
p6144
I1
sVdkvu04f
p6145
I1
sVdbxu2ht
p6146
I1
sVcywclrt
p6147
I1
sVdq05v16
p6148
I1
sVd5cqldy
p6149
I1
sVd2fivz2
p6150
I1
sVd0rghx4
p6151
I1
sVd1evi38
p6152
I1
sVdobd6b4
p6153
I1
sVd8dbw25
p6154
I1
sVd94ucf8
p6155
I1
sVd1fuxxd
p6156
I1
sVdbc38d9
p6157
I1
sVd21hyq7
p6158
I1
sVdevfgwo
p6159
I1
sVdf3nl8k
p6160
I1
sVdi6yr7l
p6161
I1
sVd6c6u7i
p6162
I1
sVdny3ixp
p6163
I1
sVdncd0kh
p6164
I1
sVdc6m2ro
p6165
I1
sVd2ygryf
p6166
I1
sVdqdc5k7
p6167
I1
sVd04vr0x
p6168
I1
sVdqy8l54
p6169
I1
sVdh1npxb
p6170
I1
sVd0eoy3x
p6171
I1
sVddmmny8
p6172
I1
sVd9vp4e8
p6173
I1
sVde509rv
p6174
I1
sVd2415sa
p6175
I1
sVdb8f8kw
p6176
I1
sVdaw2uui
p6177
I1
sVddrlvra
p6178
I1
sVdfly7ou
p6179
I1
sVdggkpon
p6180
I1
sVd2t1a2w
p6181
I1
sVd2e49br
p6182
I1
sVdtizyom
p6183
I1
sVdt3ym85
p6184
I1
sVdih2zij
p6185
I1
sVdcx39te
p6186
I1
sVd468h1y
p6187
I1
sVdjnuk5u
p6188
I1
sVd96n6p1
p6189
I1
sVdan1kry
p6190
I1
sVd4bkbyl
p6191
I1
sVdf3xyyz
p6192
I1
sVdf78i5c
p6193
I1
sVdjtojjt
p6194
I1
sVd7bdfz2
p6195
I1
sVd000mbn
p6196
I1
sVdcviejc
p6197
I1
sVdhd8m4h
p6198
I1
sVd1t9pi2
p6199
I5
sVdh8bryt
p6200
I1
sVczdugcv
p6201
I1
sVdqdgbjz
p6202
I1
sVd91olfu
p6203
I1
sVde0w0p6
p6204
I1
sVd7nxujb
p6205
I1
sVd8yh0kv
p6206
I2
sVdq3h3w2
p6207
I1
sVd37bcay
p6208
I2
sVda7jc7o
p6209
I1
sVdk9ohfj
p6210
I1
sVd9wpsjp
p6211
I1
sVdp9hbkz
p6212
I1
sVd8xdku3
p6213
I1
sVd5kxy7y
p6214
I1
sVdddw6s9
p6215
I1
sVdoemfts
p6216
I1
sVd1e4i8d
p6217
I1
sVcywoqxw
p6218
I1
sVda8dged
p6219
I1
sVd0jaxg1
p6220
I1
sVdmpt73u
p6221
I1
sVds1d58w
p6222
I1
sVda0yjwt
p6223
I3
sVd4i16lu
p6224
I1
sVdbqraji
p6225
I1
sVd9arzvh
p6226
I1
sVdq4wlwx
p6227
I1
sVdaelwq8
p6228
I1
sVdcjjfpf
p6229
I1
sVdaxkxr7
p6230
I1
sVd0km30d
p6231
I1
sVd916ymr
p6232
I1
sVd62hp86
p6233
I1
sVd8xbagz
p6234
I1
sVd30uflb
p6235
I1
sVdaklr32
p6236
I1
sVdhjlmwe
p6237
I1
sVd309fby
p6238
I1
sVdokyd13
p6239
I2
sVczw5acc
p6240
I1
sVdgipkg9
p6241
I1
sVd9elqjo
p6242
I1
sVdbr8nbi
p6243
I2
sVczpv0yt
p6244
I2
sVd2nsm7w
p6245
I1
sVdmxuhnw
p6246
I1
sVdd6fzao
p6247
I2
sVd7vtat2
p6248
I1
sVcz4vzrz
p6249
I1
sVdgnr53q
p6250
I1
sVdal3o5r
p6251
I1
sVd5kqw6x
p6252
I1
sVd0m6vsa
p6253
I2
sVdh11bkn
p6254
I1
sVdjhkbbt
p6255
I1
sVdmf1c32
p6256
I1
sVd375qqm
p6257
I1
sVdor320q
p6258
I1
sVdaqju07
p6259
I1
sVcz8tr7i
p6260
I1
sVdf7z5gq
p6261
I1
sVdbks85a
p6262
I1
sVd0os745
p6263
I1
sVdagbmuh
p6264
I1
sVdqwv317
p6265
I1
sVdcuq0wm
p6266
I1
sVd3odx80
p6267
I1
sVdfzw5un
p6268
I1
sVd6cfbpp
p6269
I2
sVd31e740
p6270
I1
sVdb7ulkj
p6271
I2
sVd7ujecc
p6272
I1
sVd5pm0wn
p6273
I1
sVd6h3a43
p6274
I1
sVda6jxd5
p6275
I1
sVd1zsn2m
p6276
I1
sVdh2w1xn
p6277
I1
sVd65jbg4
p6278
I1
sVczuyzop
p6279
I1
sVdrd02ln
p6280
I1
sVd2jh478
p6281
I1
sVd701p7r
p6282
I1
sVd3mwtt9
p6283
I1
sVdo6juh1
p6284
I2
sVd9la3qf
p6285
I1
sVdfgs89z
p6286
I1
sVdmikgfk
p6287
I1
sVdni34mz
p6288
I1
sVd81lv4z
p6289
I1
sVd7yh0so
p6290
I1
sVdc6st4t
p6291
I1
sVd35gm4j
p6292
I1
sVd6f1wy3
p6293
I2
sVdbdbuz6
p6294
I1
sVdq9ij85
p6295
I1
sVdjkscye
p6296
I1
sVdinszjy
p6297
I1
sVdrdn67n
p6298
I1
sVdsdkqvg
p6299
I1
sVd3hnp25
p6300
I1
sVdd3wnen
p6301
I1
sVdbu2xhv
p6302
I1
sVd65qvgs
p6303
I1
sVd3amud6
p6304
I1
sVd6elsyo
p6305
I1
sVdqa1iba
p6306
I1
sVd40r5e8
p6307
I2
sVdn23ne4
p6308
I1
sVdj1slsb
p6309
I1
sVcz256wb
p6310
I2
sVd7ul0ki
p6311
I1
sVdngro75
p6312
I1
sVdjf7vlx
p6313
I1
sVdekpa1w
p6314
I1
sVdtie2h8
p6315
I1
sVdi5tt9h
p6316
I1
sVdaqm40x
p6317
I1
sVdorxzjm
p6318
I1
sVds58m83
p6319
I1
sVd0u3788
p6320
I1
sVd6effc2
p6321
I1
sVcyix59q
p6322
I1
sVd705jvf
p6323
I1
sVdbdnnw9
p6324
I1
sVd4f0elz
p6325
I2
sVdbfabob
p6326
I2
sVd2wtw32
p6327
I1
sVd2jivd8
p6328
I1
sVdimgcit
p6329
I1
sVdo9ktzd
p6330
I1
sVczhs40h
p6331
I1
sVdklwsqe
p6332
I1
sVdfoo0aq
p6333
I1
sVd7m3ars
p6334
I1
sVdab0cgr
p6335
I1
sVd0n3f3d
p6336
I1
sVczgy51a
p6337
I1
sVdil0etp
p6338
I1
sVdeiagol
p6339
I1
sVczquihv
p6340
I1
sVdsxhzt4
p6341
I1
sVd30xal0
p6342
I2
sVdqnola4
p6343
I1
sVd2xepnm
p6344
I1
sVdcovlv0
p6345
I1
sVdaqgzil
p6346
I1
sVddx4ssl
p6347
I1
sVd8hfxdc
p6348
I1
sVd87fkgh
p6349
I1
sVd181uro
p6350
I1
sVd2yrw9b
p6351
I1
sVdfgw8mh
p6352
I1
sVd0mr5kc
p6353
I1
sVdradb4a
p6354
I2
sVdil1ufi
p6355
I1
sVd4kt0su
p6356
I1
sVdbn20l0
p6357
I6
sVd2vwohp
p6358
I1
sVdsbqq4t
p6359
I1
sVczzntw4
p6360
I1
sVd3vkqdk
p6361
I1
sVdbax1w4
p6362
I1
sVdfbk7u2
p6363
I1
sVd4sl3fb
p6364
I3
sVdrvbzkb
p6365
I1
sVdg4qywl
p6366
I1
sVdruq70h
p6367
I1
sVdc93fq1
p6368
I1
sVde1nxq5
p6369
I1
sVdfdqnck
p6370
I1
sVdfx51cz
p6371
I1
sVdr32fff
p6372
I1
sVd31cn3u
p6373
I1
sVdnjixv0
p6374
I1
sVde4ez02
p6375
I1
sVdbcbnu0
p6376
I1
sVd332wdv
p6377
I1
sVddjvd52
p6378
I1
sVd9dhy0s
p6379
I2
sVd2uhb1o
p6380
I1
sVdihey38
p6381
I1
sVdazoc7h
p6382
I1
sVd224r65
p6383
I1
sVdd1rie1
p6384
I1
sVdganmb2
p6385
I1
sVdfvrep6
p6386
I1
sVdetk970
p6387
I1
sVdhz8kj0
p6388
I2
sVd9gd008
p6389
I1
sVdfxf9ul
p6390
I1
sVd11ixh6
p6391
I1
sVdo84n96
p6392
I1
sVczl15w7
p6393
I1
sVdqhfkhm
p6394
I1
sVdbn75vp
p6395
I1
sVd85wkeh
p6396
I1
sVd12kni2
p6397
I1
sVdkr23op
p6398
I2
sVdbcgs9p
p6399
I1
sVdfk9bu1
p6400
I1
sVdaskt40
p6401
I2
sVdt110x0
p6402
I1
sVd43rxra
p6403
I1
sVd4ndl1q
p6404
I2
sVdifpdf4
p6405
I1
sVd3p3qqn
p6406
I1
sVdpmpql6
p6407
I6
sVdfodgq4
p6408
I1
sVdnwdau4
p6409
I1
sVdbi8s5a
p6410
I1
sVdc8txhu
p6411
I1
sVd2p5uk2
p6412
I2
sVd6ub1ur
p6413
I1
sVdjf3ns3
p6414
I1
sVd1j5zzn
p6415
I1
sVdgtwfh5
p6416
I1
sVd82qavp
p6417
I1
sVd9vy0fa
p6418
I1
sVd55nu3t
p6419
I3
sVd7mfhaf
p6420
I1
sVdkeapdq
p6421
I1
sVd574jmj
p6422
I1
sVdkned01
p6423
I1
sVd9absxc
p6424
I1
sVd2e92xm
p6425
I1
sVddodbjr
p6426
I1
sVd43eiun
p6427
I2
sVdbn76pi
p6428
I1
sVd7z9hjs
p6429
I1
sVd6r1fuf
p6430
I2
sVd870oqe
p6431
I1
sVdcktypz
p6432
I1
sVd28t1tk
p6433
I1
sVdgyt7we
p6434
I1
sVd3wtfg8
p6435
I1
sVdguht9r
p6436
I1
sVdap87cy
p6437
I1
sVdbpr7s3
p6438
I1
sVd71xbkf
p6439
I1
sVd6qcp8t
p6440
I1
sVczmsxwy
p6441
I1
sVdi52l0h
p6442
I1
sVd4l28l1
p6443
I1
sVdap22uz
p6444
I1
sVdqqzeld
p6445
I1
sVczyoe1i
p6446
I1
sVdb4rbc8
p6447
I1
sVcyo8ghm
p6448
I1
sVdi31plk
p6449
I1
sVdq0scgf
p6450
I1
sVdfe9ql7
p6451
I1
sVdka5rmf
p6452
I1
sVdj0jbzk
p6453
I1
sVcz9yodj
p6454
I1
sVd28xho1
p6455
I1
sVdd60ui1
p6456
I1
sVdstorq6
p6457
I1
sVd8uj5bg
p6458
I1
sVdbnxgwv
p6459
I1
sVd0r5qog
p6460
I1
sVdhk7puh
p6461
I1
sVdmua1o9
p6462
I1
sVd28wzjd
p6463
I1
sVdqkzh1b
p6464
I1
sVdruiexo
p6465
I1
sVd5c152k
p6466
I1
sVdj8al0i
p6467
I2
sVd4y0vu1
p6468
I1
sVd7ho9f9
p6469
I3
sVd97c7py
p6470
I1
sVd8o01pq
p6471
I1
sVd7mi8kk
p6472
I1
sVd54vw4z
p6473
I1
sVdqq8fa9
p6474
I1
sVdox9992
p6475
I1
sVdehn75d
p6476
I1
sVd9zlx2v
p6477
I1
sVddcb7rz
p6478
I1
sVded4lld
p6479
I1
sVd16gmf1
p6480
I1
sVd3zpi8c
p6481
I1
sVdqf4x51
p6482
I1
sVdep2mvz
p6483
I1
sVdfq6iss
p6484
I1
sVd0190of
p6485
I1
sVd31ocwz
p6486
I1
sVddd8i7d
p6487
I1
sVdpgrqxq
p6488
I1
sVd2ki63j
p6489
I1
sVdcjzc3s
p6490
I1
sVdecz1gs
p6491
I1
sVd6p3eyi
p6492
I1
sVczwiice
p6493
I1
sVd7c7v8b
p6494
I1
sVd16hyer
p6495
I1
sVd0uc7yi
p6496
I1
sVdeiszf3
p6497
I1
sVd3bz7ik
p6498
I3
sVdgnuscf
p6499
I1
sVcylxq6p
p6500
I1
sVdiigeif
p6501
I1
sVdc8d5yn
p6502
I3
sVd4uz9x8
p6503
I1
sVd7or5aj
p6504
I1
sVdduw6qn
p6505
I3
sVd2brzsm
p6506
I1
sVdrumvld
p6507
I1
sVdjy64y2
p6508
I1
sVdbu0xwk
p6509
I2
sVdj2m5pe
p6510
I1
sVdfh7ryi
p6511
I1
sVcz4j5u3
p6512
I1
sVd5z0jrv
p6513
I1
sVdb9rw8h
p6514
I1
sVd3ukz47
p6515
I1
sVd2gaii3
p6516
I1
sVd0rfy9w
p6517
I1
sVdbvddln
p6518
I1
sVdcwxume
p6519
I1
sVdemdsjy
p6520
I2
sVdpak9s2
p6521
I1
sVd1681bi
p6522
I1
sVcyute5m
p6523
I1
sVdmjc2yp
p6524
I1
sVd5crnec
p6525
I1
sVczazfl0
p6526
I2
sVcztrpxp
p6527
I1
sVdqgzcxf
p6528
I1
sVdauxtsp
p6529
I1
sVdjvzov1
p6530
I1
sVdjjfmo5
p6531
I1
sVd3weilk
p6532
I1
sVdbutlia
p6533
I1
sVdho9uad
p6534
I1
sVd84nb40
p6535
I1
sVd4w9ow0
p6536
I1
sVd0wa86u
p6537
I1
sVddohnnl
p6538
I1
sVd37nasp
p6539
I1
sVcztke2l
p6540
I1
sVd9g3glt
p6541
I1
sVdhq3w1y
p6542
I1
sVdbdhuae
p6543
I1
sVddyfk94
p6544
I1
sVdt8trel
p6545
I1
sVd7bj7np
p6546
I1
sVczvfxj9
p6547
I1
sVdggxczy
p6548
I1
sVd9dl9a6
p6549
I1
sVd7vwmu9
p6550
I2
sVdjh5q8j
p6551
I1
sVdnpo8ny
p6552
I1
sVdd7rlpc
p6553
I1
sVdfbdcyo
p6554
I1
sVdexotdw
p6555
I1
sVdfpwfmi
p6556
I1
sVdgo8cxl
p6557
I1
sVdeb7fgl
p6558
I1
sVdfk01qq
p6559
I1
sVdkajp5t
p6560
I1
sVd0ptu8j
p6561
I1
sVd4zkkhv
p6562
I1
sVd9f07ed
p6563
I1
sVczmd9jg
p6564
I1
sVdf15gyw
p6565
I1
sVcz3bs5j
p6566
I1
sVd2omegl
p6567
I1
sVdhprsn4
p6568
I1
sVd71qnke
p6569
I1
sVdgnnp1h
p6570
I1
sVdihudp1
p6571
I1
sVd8pzzpq
p6572
I2
sVd25ktcx
p6573
I1
sVd24juij
p6574
I1
sVczlkaxy
p6575
I1
sVdf7pf88
p6576
I1
sVczpflch
p6577
I1
sVdkk7ov3
p6578
I1
sVdceg9on
p6579
I1
sVdfusdv6
p6580
I1
sVd3v5qag
p6581
I1
sVdc9job1
p6582
I1
sVdbgwoy0
p6583
I1
sVdc8ayzc
p6584
I2
sVd2n7piv
p6585
I1
sVd0jbkmp
p6586
I1
sVdpwg86c
p6587
I1
sVd73fm3p
p6588
I1
sVd0kuz1o
p6589
I1
sVdt6vm4w
p6590
I1
sVdd02gbl
p6591
I1
sVdowai6l
p6592
I2
sVdhny1h7
p6593
I1
sVdhs74yl
p6594
I1
sVd8p18ad
p6595
I1
sVd0igivr
p6596
I1
sVd1tkhby
p6597
I1
sVdj6njzu
p6598
I1
sVcyqvnd9
p6599
I1
sVdjb3197
p6600
I1
sVda2wybl
p6601
I1
sVdcv1m81
p6602
I1
sVd6c0lkz
p6603
I1
sVddlatem
p6604
I1
sVd2unh2e
p6605
I1
sVd1cu97g
p6606
I1
sVdk6s9yf
p6607
I1
sVd28ozbs
p6608
I1
sVd3g4deo
p6609
I1
sVd4qi503
p6610
I2
sVdiahhi3
p6611
I1
sVcz0hk94
p6612
I1
sVdhcuzza
p6613
I1
sVdkr0e0i
p6614
I1
sVddufdub
p6615
I1
sVd4gkw6j
p6616
I1
sVczceprn
p6617
I1
sVd2njn6z
p6618
I1
sVd9l86ap
p6619
I1
sVd3o91ah
p6620
I1
sVddbxlcj
p6621
I1
sVd0evncz
p6622
I1
sVdf4x7mb
p6623
I1
sVdcpy16w
p6624
I1
sVdhkuskv
p6625
I1
sVdifmevc
p6626
I1
sVd80rcy9
p6627
I1
sVd0tqnzr
p6628
I1
sVczbp3u0
p6629
I2
sVdd8j7yx
p6630
I1
sVdgd7g4v
p6631
I1
sVczmin00
p6632
I1
sVdpxzq16
p6633
I1
sVd61wo51
p6634
I1
sVd9cjvus
p6635
I1
sVcyo0j95
p6636
I1
sVd6ip3g1
p6637
I1
sVd8vf75j
p6638
I1
sVcysepjs
p6639
I1
sVd8t02g4
p6640
I1
sVd3bfefs
p6641
I1
sVdsljcdh
p6642
I1
sVd0d2na0
p6643
I1
sVdklxw63
p6644
I1
sVd1725x5
p6645
I1
sVd8xt9pm
p6646
I2
sVd3qpel7
p6647
I1
sVd81jmm9
p6648
I1
sVdgb4si2
p6649
I1
sVdcagukq
p6650
I1
sVd9ie8o3
p6651
I1
sVd1ru5yq
p6652
I1
sVd1sr97m
p6653
I1
sVdje0llp
p6654
I1
sVdc2du1x
p6655
I1
sVdnzrlkt
p6656
I1
sVd69m7gz
p6657
I1
sVd1h7q5j
p6658
I1
sVdjgrni7
p6659
I1
sVdg0ihc3
p6660
I1
sVdg19dis
p6661
I1
sVdpqubnu
p6662
I1
sVdmmcdj2
p6663
I1
sVdrhu1iu
p6664
I1
sVdc77l0z
p6665
I1
sVdkjofnd
p6666
I2
sVdd6my7b
p6667
I1
sVd1xaelp
p6668
I1
sVd1dng9d
p6669
I1
sVd45ekns
p6670
I1
sVdodns9t
p6671
I1
sVdan58cz
p6672
I1
sVdazkevl
p6673
I1
sVd2a3yqr
p6674
I1
sVcz2iukh
p6675
I1
sVdmnk1ju
p6676
I1
sVd7rpos5
p6677
I1
sVdena52k
p6678
I1
sVd0sx6e0
p6679
I1
sVd45qan6
p6680
I1
sVddsdpdj
p6681
I1
sVdk92jad
p6682
I1
sVdgaaa8h
p6683
I1
sVd8hhbsk
p6684
I1
sVdpn1hvd
p6685
I1
sVd74uy0c
p6686
I1
sVd7zgakm
p6687
I1
sVd2h7yw3
p6688
I1
sVd3aa3y0
p6689
I1
sVdj0kpvz
p6690
I1
sVcyn3mw3
p6691
I1
sVd38n6lr
p6692
I1
sVdgop9d6
p6693
I1
sVczgzhem
p6694
I1
sVd2g02uq
p6695
I1
sVczphzj6
p6696
I1
sVd2551l2
p6697
I1
sVdabqysh
p6698
I1
sVd5aug4s
p6699
I1
sVdjl5wxb
p6700
I1
sVcylr2jp
p6701
I2
sVcyn09k7
p6702
I1
sVd48b7pp
p6703
I1
sVdiatp8d
p6704
I1
sVczgkva9
p6705
I1
sVczplx4y
p6706
I1
sVcyv39sk
p6707
I1
sVdgdosw1
p6708
I1
sVdezjkis
p6709
I1
sVd8tq7n9
p6710
I1
sVddz8cwr
p6711
I1
sVdfyfyrs
p6712
I2
sVdrxde4v
p6713
I1
sVddjty0g
p6714
I1
sVd08vbm3
p6715
I2
sVd9tznu0
p6716
I1
sVdj1it1p
p6717
I1
sVdbkat2z
p6718
I1
sVdbg6h13
p6719
I1
sVdgxyvgo
p6720
I1
sVdejypr0
p6721
I1
sVdnx01mf
p6722
I1
sVdbgyw1g
p6723
I8
sVddgtrwi
p6724
I1
sVczmueiq
p6725
I1
sVczpo5ia
p6726
I1
sVdfb99au
p6727
I1
sVde5ujer
p6728
I1
sVd2rsz3x
p6729
I1
sVdio55te
p6730
I1
sVcyvol9e
p6731
I1
sVd9qyc1d
p6732
I1
sVdpzn1li
p6733
I1
sVdigja0p
p6734
I1
sVdh1nyvo
p6735
I1
sVdfq07ti
p6736
I1
sVdqjjju2
p6737
I1
sVd3w9v09
p6738
I2
sVdihigw2
p6739
I1
sVde0ky29
p6740
I1
sVdgn0tb7
p6741
I1
sVdnxjkvo
p6742
I1
sVd1aapyo
p6743
I1
sVd9cpzle
p6744
I1
sVczn982b
p6745
I1
sVd0njoc5
p6746
I1
sVczz2d5v
p6747
I1
sVddv8gbg
p6748
I1
sVdq8e75z
p6749
I1
sVdemcwqw
p6750
I1
sVd8hqzzx
p6751
I2
sVd5f2e5j
p6752
I2
sVd0t9706
p6753
I1
sVcz33bvr
p6754
I1
sVdqdauoy
p6755
I1
sVd6881nw
p6756
I1
sVddwsmel
p6757
I1
sVdmkowmb
p6758
I1
sVdci782h
p6759
I1
sVdo8suas
p6760
I2
sVdnup8da
p6761
I1
sVdauhoe1
p6762
I1
sVd10r2d0
p6763
I1
sVdqx2lur
p6764
I1
sVd6f2wr4
p6765
I1
sVd7ofy41
p6766
I5
sVdqir34i
p6767
I1
sVd5fq26g
p6768
I1
sVdd8wnju
p6769
I1
sVd5g49mq
p6770
I1
sVdsou937
p6771
I1
sVd0qrzhq
p6772
I2
sVdav8m2x
p6773
I1
sVdnx0khb
p6774
I2
sVdnt3vsy
p6775
I1
sVdbec12f
p6776
I1
sVdcf6p60
p6777
I1
sVdbytl4h
p6778
I1
sVdgi1zut
p6779
I1
sVd3tmtip
p6780
I1
sVd31maj5
p6781
I3
sVdmuao5r
p6782
I1
sVdpucjv5
p6783
I1
sVdb9ov3z
p6784
I1
sVczawmp6
p6785
I1
sVdenhhkp
p6786
I1
sVd53cske
p6787
I1
sVd7mww98
p6788
I1
sVd0p2ymu
p6789
I1
sVd7czhyw
p6790
I1
sVd15jcto
p6791
I1
sVdaas71u
p6792
I1
sVdd83fck
p6793
I1
sVd3l7h3m
p6794
I1
sVdf51b1k
p6795
I1
sVdkjna1p
p6796
I1
sVdbyn76x
p6797
I1
sVd9c2etw
p6798
I1
sVdsbgnqh
p6799
I1
sVdilz5ab
p6800
I1
sVd5vpiuo
p6801
I1
sVd7ur5fk
p6802
I2
sVczl0ewe
p6803
I1
sVdbia2tu
p6804
I1
sVdawkvw6
p6805
I1
sVdrgfpyl
p6806
I1
sVdegve6f
p6807
I2
sVdnnk3rv
p6808
I1
sVczswpt8
p6809
I2
sVdc09ngb
p6810
I1
sVd3bzwio
p6811
I2
sVcz4ls9m
p6812
I1
sVdrsoco3
p6813
I1
sVcyug3mq
p6814
I1
sVd4vmtq2
p6815
I1
sVddmxyhw
p6816
I1
sVcz3avsd
p6817
I1
sVd129qn8
p6818
I1
sVddl5yxf
p6819
I1
sVd8gcdsv
p6820
I1
sVdfg96lc
p6821
I1
sVdndwb6k
p6822
I2
sVd3u4zul
p6823
I1
sVd6zu4g1
p6824
I1
sVd3j0ox4
p6825
I1
sVdbgr1hl
p6826
I1
sVdhjwvkw
p6827
I1
sVd4qbhv0
p6828
I1
sVd2ic046
p6829
I1
sVdd55ae9
p6830
I1
sVdg4i1xd
p6831
I1
sVdcvkk4p
p6832
I1
sVd5imyra
p6833
I1
sVdnqcgge
p6834
I1
sVd1j8mgn
p6835
I1
sVcztraxf
p6836
I1
sVd49rhya
p6837
I1
sVdnqteww
p6838
I2
sVdbgl264
p6839
I1
sVdawwl4c
p6840
I1
sVdeway1b
p6841
I1
sVd03xarg
p6842
I2
sVdgzfcu0
p6843
I1
sVdtiegu2
p6844
I1
sVdsp17tj
p6845
I1
sVd3gr8az
p6846
I1
sVde1kcuw
p6847
I1
sVdavufeu
p6848
I1
sVcymf32o
p6849
I1
sVd9v4ras
p6850
I1
sVdrp1wdh
p6851
I1
sVd0bjmmy
p6852
I1
sVd0dbo1c
p6853
I1
sVcz71e0o
p6854
I1
sVdgksq9x
p6855
I1
sVd91ukhh
p6856
I3
sVd8cii3q
p6857
I1
sVdi92xlh
p6858
I1
sVd361ox0
p6859
I1
sVddt54m5
p6860
I1
sVdpiv9tr
p6861
I1
sVddrw8j2
p6862
I1
sVdkd980a
p6863
I1
sVdncb9po
p6864
I1
sVczwabji
p6865
I1
sVdjn6yfp
p6866
I1
sVdjvewhj
p6867
I1
sVd3ppunh
p6868
I1
sVdgf24rb
p6869
I2
sVdhqltv1
p6870
I1
sVd4wowwe
p6871
I1
sVd2v0iyt
p6872
I1
sVdiv2csd
p6873
I1
sVdku5hrj
p6874
I1
sVczqm4qo
p6875
I1
sVddxtdp7
p6876
I1
sVcz8w3gv
p6877
I1
sVdgflnn8
p6878
I1
sVdj45qk2
p6879
I1
sVd4ik6oy
p6880
I1
sVd2vf7ls
p6881
I1
sVdhrb0re
p6882
I5
sVczav57f
p6883
I1
sVczktzv3
p6884
I1
sVd1j43sc
p6885
I1
sVd0evp6s
p6886
I1
sVd0vzsit
p6887
I1
sVd5p2zmc
p6888
I1
sVdg5vfoi
p6889
I1
sVdinzca0
p6890
I1
sVdcqef66
p6891
I1
sVdcc7cdc
p6892
I1
sVde0jf93
p6893
I1
sVd0r2v3b
p6894
I1
sVd2n5y8e
p6895
I1
sVd4btrsf
p6896
I1
sVdgw2ctf
p6897
I1
sVde7wr0u
p6898
I1
sVdggnfwa
p6899
I1
sVdhdbk1u
p6900
I1
sVcz9kxhg
p6901
I1
sVd2xe7fy
p6902
I1
sVdt6mnu4
p6903
I1
sVd2kjhbw
p6904
I1
sVdqy1697
p6905
I1
sVdg7zfxn
p6906
I1
sVdf3i7su
p6907
I1
sVdn0ggk8
p6908
I2
sVda211h6
p6909
I1
sVdsvivnt
p6910
I1
sVd2lwlw3
p6911
I1
sVd4j0ewj
p6912
I1
sVd7sn28y
p6913
I1
sVdr1lclj
p6914
I1
sVd6ma116
p6915
I1
sVd9jtn5x
p6916
I1
sVdms4vu6
p6917
I1
sVdhqyq77
p6918
I1
sVdgjaomc
p6919
I1
sVd1w0p6o
p6920
I1
sVd0nh8k3
p6921
I1
sVdg2c34m
p6922
I1
sVd6ykilg
p6923
I2
sVcylltid
p6924
I1
sVd3mf38c
p6925
I1
sVda8outp
p6926
I1
sVcyxlk3d
p6927
I1
sVdqt5bbe
p6928
I2
sVcyv927n
p6929
I1
sVczwmsek
p6930
I1
sVd0mqs5j
p6931
I1
sVdh66lo8
p6932
I1
sVdgczyxm
p6933
I1
sVdoikp4j
p6934
I1
sVd5z9w43
p6935
I1
sVdiik0wn
p6936
I1
sVdfn34p2
p6937
I1
sVdogrutg
p6938
I2
sVd8ja4vv
p6939
I1
sVdbuhhta
p6940
I1
sVdimf5da
p6941
I2
sVdekzzdg
p6942
I1
sVdhdtz3a
p6943
I1
sVd3dz5tk
p6944
I1
sVde3s64t
p6945
I1
sVczz84pi
p6946
I1
sVdpcqafv
p6947
I1
sVcz42cfr
p6948
I1
sVdd4890j
p6949
I1
sVd26ahy2
p6950
I1
sVd344ue4
p6951
I1
sVdsszmut
p6952
I1
sVdtgfx36
p6953
I1
sVd9bjqsq
p6954
I1
sVd298w6o
p6955
I1
sVdoa45de
p6956
I1
sVdbbkin7
p6957
I1
sVd30m36x
p6958
I1
sVdhniaw1
p6959
I2
sVd0qb150
p6960
I1
sVd94qltt
p6961
I1
sVdhod0dc
p6962
I1
sVdoskoo0
p6963
I1
sVd0gbtfg
p6964
I1
sVcz8un8w
p6965
I2
sVdbsy40c
p6966
I1
sVdb94txm
p6967
I3
sVd3hyrmo
p6968
I2
sVdmfzn1r
p6969
I1
sVdnxh62e
p6970
I1
sVdas8u13
p6971
I1
sVdphlrwy
p6972
I2
sVd0qpt5o
p6973
I1
sVd5k9r9r
p6974
I2
sVd97jxmz
p6975
I1
sVdeje4hg
p6976
I1
sVddmpom9
p6977
I1
sVd0kow20
p6978
I2
sVdb1de3v
p6979
I1
sVdddtgob
p6980
I1
sVdclcmx6
p6981
I2
sVcyp7o3q
p6982
I1
sVdd698g9
p6983
I1
sVdnj6war
p6984
I1
sVd19rf5m
p6985
I2
sVdhzoovu
p6986
I1
sVczbot7i
p6987
I1
sVdtdl66i
p6988
I1
sVdc9suov
p6989
I1
sVdn65zto
p6990
I1
sVd2m1ejn
p6991
I2
sVdeb0ld5
p6992
I1
sVdar39kb
p6993
I1
sVd95y71w
p6994
I1
sVd3i39x0
p6995
I1
sVdgwizaj
p6996
I1
sVdkdb1it
p6997
I1
sVdh1yvq7
p6998
I1
sVd5kaues
p6999
I1
sVdrkr2lp
p7000
I1
sVdfdjjub
p7001
I1
sVdrx2tv7
p7002
I1
sVds9xwys
p7003
I2
sVdexlm3r
p7004
I1
sVdnwye94
p7005
I1
sVd1yfvwl
p7006
I1
sVd9vq368
p7007
I1
sVdhajt03
p7008
I1
sVdcjar6j
p7009
I1
sVd9ixjtq
p7010
I1
sVcyja6nz
p7011
I1
sVdattuvf
p7012
I1
sVd027puz
p7013
I1
sVczyfm6r
p7014
I1
sVczpf8up
p7015
I1
sVd9gr5pd
p7016
I1
sVd0m67ps
p7017
I1
sVd046nam
p7018
I1
sVdagt5h7
p7019
I1
sVdep4kda
p7020
I1
sVda09p9l
p7021
I1
sVd5afb0t
p7022
I1
sVdb55s4a
p7023
I1
sVdh06tpo
p7024
I1
sVd05oz7k
p7025
I1
sVdo2pzbr
p7026
I1
sVdfwy210
p7027
I1
sVdnkjie9
p7028
I1
sVdbvgs6j
p7029
I1
sVd8560fu
p7030
I1
sVcykhjm2
p7031
I1
sVd8ceixw
p7032
I1
sVczu5h0g
p7033
I1
sVd4h8fvv
p7034
I1
sVddunxu4
p7035
I1
sVcyjg1t3
p7036
I1
sVd0ycjrr
p7037
I1
sVd4en1to
p7038
I1
sVdcq1wp2
p7039
I1
sVdhl0gnc
p7040
I1
sVdo2r02m
p7041
I1
sVd757tr3
p7042
I1
sVd0311ix
p7043
I1
sVd9djbzc
p7044
I1
sVd0pwklp
p7045
I1
sVd17gnye
p7046
I2
sVdn6yi0y
p7047
I1
sVdbqwy31
p7048
I1
sVdrt6y3x
p7049
I1
sVd7w3wv0
p7050
I1
sVd16u1qp
p7051
I1
sVdjoqgvo
p7052
I1
sVd7mpxf0
p7053
I1
sVdj8kg1r
p7054
I1
sVd37ixce
p7055
I1
sVdku9ln6
p7056
I1
sVdbln513
p7057
I1
sVdr2gd8g
p7058
I1
sVd7qav0c
p7059
I1
sVd31ams7
p7060
I1
sVdgvbp7g
p7061
I1
sVdrx9x0x
p7062
I1
sVd3r8jru
p7063
I1
sVd8k4i3m
p7064
I1
sVd1zqalj
p7065
I1
sVd7c10h4
p7066
I1
sVd1ayfq2
p7067
I1
sVdjf6u4m
p7068
I1
sVd5g1qtj
p7069
I1
sVds8ow1g
p7070
I1
sVdfq78n9
p7071
I3
sVd24wjm6
p7072
I1
sVdrqzaib
p7073
I1
sVd1qriaf
p7074
I1
sVdcccomf
p7075
I1
sVdglgxir
p7076
I1
sVd63fgxs
p7077
I2
sVd9wil2k
p7078
I1
sVcyp07e5
p7079
I1
sVd5h6pch
p7080
I1
sVd3fdj4g
p7081
I1
sVd4zq9qp
p7082
I1
sVd9xoxcn
p7083
I1
sVcz7m1bf
p7084
I1
sVd57bwzd
p7085
I1
sVdkogqui
p7086
I1
sVdfsmncf
p7087
I1
sVdgkzk55
p7088
I1
sVdbmjqpa
p7089
I1
sVdgpln0b
p7090
I1
sVcyxvyl8
p7091
I1
sVd6pi7bp
p7092
I1
sVd3mb02u
p7093
I1
sVd1gjubh
p7094
I1
sVdi9z781
p7095
I1
sVdbdrx6u
p7096
I2
sVde5ijso
p7097
I1
sVdab7zxj
p7098
I1
sVd2pjq3j
p7099
I2
sVdbom6g8
p7100
I1
sVdrvslj4
p7101
I1
sVda21dq5
p7102
I1
sVdgmzmbn
p7103
I1
sVdijy9rb
p7104
I1
sVd8ujql4
p7105
I1
sVd2qbcny
p7106
I1
sVdi7ukuk
p7107
I1
sVd4oowbm
p7108
I1
sVdb4747y
p7109
I1
sVd1ztfti
p7110
I1
sVdcj35y8
p7111
I1
sVd4pok9s
p7112
I1
sVd9wee1l
p7113
I1
sVdd7v3aq
p7114
I1
sVdi4plod
p7115
I1
sVdq0t6ar
p7116
I2
sVcyr3i6h
p7117
I1
sVdkg0q16
p7118
I4
sVd3quc6n
p7119
I1
sVdix2dm3
p7120
I1
sVd3r5yjn
p7121
I1
sVd572gmt
p7122
I1
sVdduhqh4
p7123
I1
sVcysnnku
p7124
I1
sVdkvms73
p7125
I2
sVd95hqsr
p7126
I1
sVcywts9p
p7127
I1
sVd4opukz
p7128
I1
sVdavfsew
p7129
I2
sVd7kl9kp
p7130
I1
sVd249ffj
p7131
I1
sVczlak88
p7132
I1
sVd6ca859
p7133
I1
sVd3uefik
p7134
I2
sVdhwsvlu
p7135
I1
sVd2doelf
p7136
I1
sVdpuha6l
p7137
I1
sVdmq9o4z
p7138
I1
sVd1sodgk
p7139
I1
sVdosm74i
p7140
I1
sVd48h4fi
p7141
I1
sVd1u3fku
p7142
I1
sVd4vsdnj
p7143
I1
sVdtd3yzi
p7144
I1
sVdn5598v
p7145
I1
sVdflqckb
p7146
I1
sVdkfs7wc
p7147
I1
sVdszu9g3
p7148
I2
sVdcqswih
p7149
I1
sVdoracfs
p7150
I1
sVczmul99
p7151
I1
sVdjwqc4q
p7152
I1
sVdrnhik7
p7153
I1
sVdiv53yo
p7154
I1
sVdhf3upz
p7155
I1
sVdiwf2j2
p7156
I1
sVdjrrwpg
p7157
I1
sVdcbl0fz
p7158
I1
sVd9g4uga
p7159
I1
sVd55wv8h
p7160
I1
sVdcufsxm
p7161
I1
sVd206uyj
p7162
I1
sVd0mxibi
p7163
I1
sVdg1levr
p7164
I1
sVd79mcpp
p7165
I1
sVdr7ymci
p7166
I1
sVddhjc3d
p7167
I1
sVdj7qx72
p7168
I1
sVcyzmkbw
p7169
I1
sVd3hre0v
p7170
I1
sVdcugeh6
p7171
I1
sVdq57olj
p7172
I1
sVcz5i8xo
p7173
I1
sVdaeumvp
p7174
I1
sVdfvnpkz
p7175
I1
sVd3ygb6t
p7176
I1
sVd7fa8ue
p7177
I1
sVddvb6oh
p7178
I1
sVd5oe2cn
p7179
I1
sVd7kdjri
p7180
I1
sVd5a54xw
p7181
I1
sVdiu543u
p7182
I1
sVdq3rlse
p7183
I1
sVcypxu8a
p7184
I1
sVd1kojra
p7185
I1
sVd32hhzx
p7186
I1
sVd10prvr
p7187
I1
sVdog6j42
p7188
I1
sVdowaf1p
p7189
I2
sVdjbmjum
p7190
I2
sVd6jgfui
p7191
I2
sVd67kzf2
p7192
I1
sVcylkvlc
p7193
I1
sVde0zwsr
p7194
I1
sVdne931v
p7195
I1
sVdfhdbli
p7196
I1
sVd1d4xs3
p7197
I1
sVdrpiqri
p7198
I1
sVd7t9jd6
p7199
I2
sVdn8wwij
p7200
I2
sVdth4lyw
p7201
I3
sVd6jv5yr
p7202
I1
sVd0s82hs
p7203
I1
sVczor21q
p7204
I1
sVd5zq9v2
p7205
I1
sVd53pvm5
p7206
I1
sVd90n41o
p7207
I1
sVdab8w20
p7208
I1
sVczw0ebl
p7209
I1
sVdeul6ky
p7210
I1
sVdbpg0mg
p7211
I1
sVd0v4j0c
p7212
I1
sVd8kkqdu
p7213
I1
sVdj4qxhj
p7214
I1
sVdpgwkr4
p7215
I1
sVczrsbel
p7216
I1
sVdj2zjq1
p7217
I1
sVczxgqfp
p7218
I1
sVdfkl08r
p7219
I1
sVdojk82o
p7220
I1
sVd8eut4o
p7221
I1
sVd62gf06
p7222
I1
sVd463lg6
p7223
I1
sVd69e936
p7224
I1
sVdgtujmi
p7225
I1
sVdq5irsr
p7226
I1
sVd7ur3um
p7227
I1
sVcz2u754
p7228
I1
sVd0s2zty
p7229
I1
sVd8mhale
p7230
I1
sVd975q2j
p7231
I1
sVdn9kvmu
p7232
I1
sVdcpv01t
p7233
I2
sVddso3c3
p7234
I1
sVd5ha117
p7235
I1
sVcz30jap
p7236
I1
sVd0ulcj0
p7237
I1
sVdo5nbbw
p7238
I1
sVdb1box5
p7239
I1
sVdohcm00
p7240
I1
sVd5h8o7k
p7241
I1
sVd6t8vvr
p7242
I1
sVd0w3sjr
p7243
I1
sVdrdffvs
p7244
I1
sVd2sfqos
p7245
I1
sVczv6yf9
p7246
I1
sVdgus8vz
p7247
I3
sVd67qj5k
p7248
I1
sVd978t5l
p7249
I1
sVd8j50h3
p7250
I1
sVd5oqi8y
p7251
I2
sVdi8p73j
p7252
I1
sVdepygco
p7253
I1
sVd19w1r6
p7254
I1
sVd38mm61
p7255
I1
sVd31zcbg
p7256
I1
sVczc4opz
p7257
I1
sVdswec0s
p7258
I1
sVdrkjh8r
p7259
I1
sVdh3gvb2
p7260
I1
sVd73uj01
p7261
I1
sVdhetbmi
p7262
I1
sVd6z5pgq
p7263
I1
sVdph6crb
p7264
I3
sVdkm9sl7
p7265
I1
sVdeljxue
p7266
I1
sVdq4wyiy
p7267
I1
sVdpw7h2m
p7268
I1
sVdt2ut5a
p7269
I1
sVdojailk
p7270
I1
sVd7u1j89
p7271
I1
sVdg0xw5u
p7272
I1
sVd9rph08
p7273
I1
sVde7p4ih
p7274
I1
sVd4tlhqj
p7275
I1
sVdhulsxx
p7276
I1
sVd04epb9
p7277
I2
sVdadh7zs
p7278
I1
sVdqjchaz
p7279
I1
sVdd59oef
p7280
I1
sVdn87ykd
p7281
I1
sVd10ds1f
p7282
I1
sVdbk9fed
p7283
I2
sVd47wehw
p7284
I1
sVczid3up
p7285
I1
sVd5vxwgz
p7286
I1
sVd6mr9ve
p7287
I1
sVczpcnl4
p7288
I1
sVdoqbsm2
p7289
I1
sVdkwgh6o
p7290
I1
sVdnri0rk
p7291
I1
sVd19dttt
p7292
I1
sVd94fzz8
p7293
I1
sVd2yq8ya
p7294
I1
sVd1pu7pf
p7295
I1
sVdopzuvt
p7296
I2
sVdd02e0e
p7297
I4
sVd3fn9hi
p7298
I1
sVd13e8ln
p7299
I1
sVd85uj8d
p7300
I1
sVd4zl0vn
p7301
I1
sVd85jghh
p7302
I1
sVdmx0eht
p7303
I1
sVdoeszz4
p7304
I1
sVdjn8aba
p7305
I2
sVdh8q34w
p7306
I1
sVd6zubu6
p7307
I1
sVd8os9d8
p7308
I1
sVcywzzvp
p7309
I1
sVdmuf6ew
p7310
I1
sVdhjuurc
p7311
I1
sVczomqx6
p7312
I1
sVd5g6rhn
p7313
I1
sVdbjrujd
p7314
I1
sVdmuqu3o
p7315
I2
sVdnuc07n
p7316
I1
sVd710uct
p7317
I1
sVdeyltf3
p7318
I2
sVcymulbf
p7319
I3
sVdkt5aka
p7320
I1
sVddwvxmd
p7321
I1
sVdfwialt
p7322
I1
sVczjaysl
p7323
I1
sVd25xsfq
p7324
I1
sVdhrgf0z
p7325
I1
sVczzklg6
p7326
I1
sVdmseahm
p7327
I1
sVczyy24e
p7328
I1
sVdil10lj
p7329
I1
sVd2c49ui
p7330
I1
sVdo66r71
p7331
I1
sVddjpb2j
p7332
I1
sVd6k2a5o
p7333
I1
sVdpraoq0
p7334
I1
sVd867e48
p7335
I1
sVd6if20u
p7336
I1
sVcynx971
p7337
I1
sVd3yciig
p7338
I2
sVd8rpzzd
p7339
I1
sVd8ruk7j
p7340
I1
sVd4zcv6y
p7341
I1
sVd5ojz66
p7342
I1
sVdi5z7gp
p7343
I1
sVd4faxm5
p7344
I1
sVdemju7t
p7345
I1
sVd0jn6lw
p7346
I1
sVdbcr7ms
p7347
I1
sVde4hcbe
p7348
I1
sVd0jj0m5
p7349
I1
sVd9mszja
p7350
I1
sVdmv7l8v
p7351
I1
sVdjzcd1s
p7352
I1
sVdmvxipk
p7353
I1
sVdo32lfo
p7354
I1
sVd9xurc0
p7355
I1
sVdoxkbf8
p7356
I1
sVdhfq64d
p7357
I1
sVdoync0n
p7358
I1
sVddc3623
p7359
I2
sVdj2skx8
p7360
I1
sVdjsfvyh
p7361
I1
sVdoahsq1
p7362
I1
sVd3g7jeu
p7363
I1
sVdrqi3fg
p7364
I1
sVd196kbr
p7365
I1
sVddlzask
p7366
I1
sVdbda49c
p7367
I1
sVd2i8pn5
p7368
I2
sVdmrdnd0
p7369
I1
sVd17ayqg
p7370
I2
sVcz1opbp
p7371
I1
sVdqulpml
p7372
I1
sVdsaaf4p
p7373
I1
sVd3bhtrq
p7374
I1
sVd38ms7o
p7375
I1
sVddbhz42
p7376
I1
sVczqpjy9
p7377
I1
sVd6xn681
p7378
I1
sVdq73w6i
p7379
I1
sVdi2kg4f
p7380
I1
sVdp6buna
p7381
I1
sVdd3hm06
p7382
I1
sVd1k2t3k
p7383
I1
sVcyzx33f
p7384
I1
sVd1pknoj
p7385
I1
sVdatqn1y
p7386
I1
sVdbx8m1c
p7387
I1
sVdcijfrd
p7388
I1
sVdenvvjl
p7389
I1
sVd8djb6z
p7390
I1
sVdemdh2o
p7391
I1
sVd22w4ss
p7392
I1
sVdqqf2nm
p7393
I1
sVdhnajxc
p7394
I1
sVdatycrx
p7395
I1
sVdag0x13
p7396
I1
sVdn2chiu
p7397
I1
sVdfn0f5z
p7398
I1
sVd9b756o
p7399
I1
sVdn4ajfy
p7400
I1
sVd0q9v20
p7401
I1
sVd6j2mzd
p7402
I1
sVcz7so2b
p7403
I1
sVd05ptv5
p7404
I1
sVdhmo3fb
p7405
I1
sVdaedyq4
p7406
I1
sVd49s5kv
p7407
I1
sVd8vs1i4
p7408
I1
sVd1296bn
p7409
I3
sVdti3ww7
p7410
I1
sVdn00myb
p7411
I1
sVdi03wwy
p7412
I1
sVd0h96fg
p7413
I1
sVdowv5ut
p7414
I1
sVdhg5pib
p7415
I1
sVdkpo903
p7416
I2
sVd6xpho0
p7417
I1
sVdbdig9t
p7418
I1
sVdh3fp4i
p7419
I1
sVd75nkvx
p7420
I1
sVdde9juu
p7421
I1
sVdokwoz5
p7422
I1
sVdingszo
p7423
I1
sVd25uqt9
p7424
I1
sVdcft4o4
p7425
I1
sVdja7q5k
p7426
I1
sVddbea2p
p7427
I1
sVd08pqkg
p7428
I1
sVdsr8msu
p7429
I1
sVdno6hz3
p7430
I1
sVczzwt1e
p7431
I1
sVdmrz4zv
p7432
I1
sVd3yalzl
p7433
I1
sVdgp0sso
p7434
I1
sVdczm9tb
p7435
I1
sVcz5d0mq
p7436
I2
sVdqe1gft
p7437
I1
sVd3t0agv
p7438
I1
sVd80rlu0
p7439
I1
sVd71qojv
p7440
I1
sVd2smvv5
p7441
I1
sVd70vv90
p7442
I1
sVd6z0uli
p7443
I1
sVde5ql63
p7444
I1
sVdde9kyq
p7445
I1
sVd3ear5t
p7446
I1
sVd3lkthi
p7447
I1
sVdslsgim
p7448
I2
sVczrjlau
p7449
I1
sVdiciz14
p7450
I2
sVd7eojku
p7451
I1
sVdh0lbzb
p7452
I1
sVdmeqzri
p7453
I1
sVdbvt6sf
p7454
I1
sVdra0zj0
p7455
I1
sVdag1o64
p7456
I1
sVd8t8ldq
p7457
I1
sVdp34oo9
p7458
I1
sVdb0ltru
p7459
I2
sVdkurj5e
p7460
I1
sVd7lbaua
p7461
I1
sVdg8rion
p7462
I1
sVd2o4cju
p7463
I1
sVd30i8nf
p7464
I1
sVdcntk0f
p7465
I1
sVdcugfdf
p7466
I1
sVdalhw37
p7467
I1
sVd3b5is0
p7468
I1
sVczh5afb
p7469
I1
sVd5rgcsj
p7470
I1
sVd0h2arw
p7471
I1
sVdepvzo9
p7472
I1
sVdfkktxm
p7473
I1
sVd7xx5lc
p7474
I1
sVdia0jy6
p7475
I1
sVd9f1goo
p7476
I1
sVczlfcot
p7477
I1
sVdmllpav
p7478
I1
sVdiyb916
p7479
I1
sVd9yhe4x
p7480
I1
sVde7bin8
p7481
I1
sVda1ywu7
p7482
I1
sVcymlt6d
p7483
I1
sVdokxwy7
p7484
I1
sVda3s8oy
p7485
I1
sVd5dqbh6
p7486
I1
sVd8eva45
p7487
I1
sVdeivdi1
p7488
I1
sVd6plob5
p7489
I1
sVd0z3z99
p7490
I1
sVdrhrze8
p7491
I1
sVdd08jv7
p7492
I1
sVd5dbjp4
p7493
I1
sVdhfvwue
p7494
I1
sVd1en959
p7495
I1
sVds82q1c
p7496
I1
sVdr5s30v
p7497
I1
sVd41kx7k
p7498
I1
sVdcfe7ub
p7499
I1
sVd8er3gr
p7500
I1
sVdi6m1wa
p7501
I1
sVdhmza2c
p7502
I1
sVczfzlhf
p7503
I1
sVdjo7l89
p7504
I1
sVdcwk2a1
p7505
I1
sVda6wqgo
p7506
I1
sVdgzc4mx
p7507
I1
sVdee69e0
p7508
I1
sVd5hr9dw
p7509
I1
sVcz93d4d
p7510
I2
sVdg2xidf
p7511
I1
sVd32uv1s
p7512
I1
sVdjntz2e
p7513
I1
sVd741os9
p7514
I1
sVczf4p87
p7515
I1
sVd03f67u
p7516
I1
sVdaw937b
p7517
I5
sVde5s4z8
p7518
I1
sVdh53vnv
p7519
I1
sVdguemca
p7520
I1
sVd1yd5mo
p7521
I1
sVczig5nf
p7522
I1
sVd16logy
p7523
I2
sVcz06dt2
p7524
I1
sVd40wbel
p7525
I1
sVcz4m4bu
p7526
I1
sVd3e8cqr
p7527
I1
sVdgia6z0
p7528
I1
sVdg8u7nt
p7529
I1
sVd85577u
p7530
I1
sVdmqxbx2
p7531
I1
sVd5vp84i
p7532
I1
sVcyqhunh
p7533
I1
sVddrrimb
p7534
I1
sVdql3w6j
p7535
I1
sVd07axq0
p7536
I1
sVczz0gv4
p7537
I1
sVd5c217o
p7538
I1
sVddp6oq5
p7539
I1
sVdop63ak
p7540
I1
sVdrul9da
p7541
I1
sVd5sq79n
p7542
I1
sVd9wj59d
p7543
I1
sVddkciw7
p7544
I1
sVdnaqcum
p7545
I1
sVd5gdvr7
p7546
I1
sVdghdwl4
p7547
I1
sVdh35zx5
p7548
I1
sVd88yvzn
p7549
I1
sVdd52hlq
p7550
I1
sVd94hw4y
p7551
I1
sVdo4akm3
p7552
I1
sVd4hz3sq
p7553
I1
sVddj9sgk
p7554
I2
sVd53wlfe
p7555
I1
sVdmjlgwu
p7556
I1
sVd7bbszp
p7557
I1
sVdaho7t7
p7558
I1
sVd6t9qbq
p7559
I1
sVdrv2x1t
p7560
I1
sVdj6xuel
p7561
I1
sVdkrxj4l
p7562
I1
sVd1n56ca
p7563
I1
sVdkvkdms
p7564
I1
sVdk20c8e
p7565
I1
sVdmpoqr1
p7566
I1
sVcyqag9t
p7567
I1
sVdsekbu9
p7568
I1
sVd2qw0ll
p7569
I1
sVd3l4ulj
p7570
I1
sVdf96cfw
p7571
I1
sVczffigw
p7572
I1
sVczp65i6
p7573
I1
sVddoxh0p
p7574
I1
sVdkinyr5
p7575
I1
sVd9jq1rv
p7576
I1
sVdip2ejq
p7577
I1
sVd9s93j7
p7578
I2
sVcyww4iy
p7579
I1
sVdo7pg6x
p7580
I1
sVdjrfmyb
p7581
I1
sVdifqdq6
p7582
I1
sVdk05j7d
p7583
I1
sVdch9zfx
p7584
I1
sVdml2egv
p7585
I1
sVdadejsl
p7586
I1
sVczdnici
p7587
I1
sVdirnwev
p7588
I3
sVd0iykgh
p7589
I1
sVd7px9lw
p7590
I1
sVd83zkpf
p7591
I1
sVd86ap5d
p7592
I1
sVdgwhc44
p7593
I1
sVdkeabj0
p7594
I1
sVdd076xa
p7595
I1
sVdelvuzf
p7596
I1
sVdjnowl0
p7597
I1
sVd7zvm5u
p7598
I1
sVdr8n2d3
p7599
I2
sVd5j7b46
p7600
I1
sVdjmtb9p
p7601
I1
sVdmfteeo
p7602
I1
sVdj2iu2j
p7603
I1
sVcz1wkc5
p7604
I1
sVdba630y
p7605
I1
sVdbw9f5x
p7606
I1
sVdij1t4v
p7607
I1
sVd7z8mt9
p7608
I1
sVd8mc8q1
p7609
I1
sVdj8o30z
p7610
I1
sVdoyco7i
p7611
I1
sVd2ntc0p
p7612
I1
sVdi06425
p7613
I1
sVczeuigz
p7614
I1
sVcytcc1a
p7615
I1
sVdb8gomp
p7616
I1
sVd0rxwtu
p7617
I1
sVddqt6aw
p7618
I1
sVd7fijt4
p7619
I1
sVdbmvoaq
p7620
I1
sVdcf5s1c
p7621
I1
sVdprlhyx
p7622
I1
sVdoil290
p7623
I1
sVdibgyhf
p7624
I2
sVd76yqr0
p7625
I1
sVdokilb7
p7626
I1
sVdfxrr0m
p7627
I1
sVd9yu0rk
p7628
I1
sVdg358uj
p7629
I1
sVd8qqn43
p7630
I1
sVdmgv9mz
p7631
I1
sVd96sw2p
p7632
I1
sVd8s6j6z
p7633
I2
sVdjxhmyo
p7634
I4
sVd3p4nd8
p7635
I1
sVdibnte5
p7636
I1
sVd0mi1cj
p7637
I1
sVd3bc1xo
p7638
I1
sVd554n14
p7639
I1
sVd4d804y
p7640
I1
sVd3a4fb1
p7641
I1
sVd8vhz7h
p7642
I1
sVdhyki9q
p7643
I1
sVd8g56yy
p7644
I1
sVd50g7xo
p7645
I2
sVdodp0gm
p7646
I2
sVdg54hwi
p7647
I1
sVdpaoj0y
p7648
I1
sVdcwegu7
p7649
I1
sVd0r3x2h
p7650
I1
sVdkrxz2t
p7651
I2
sVd6pzurx
p7652
I1
sVd9lkebh
p7653
I1
sVd5ur8ew
p7654
I1
sVdelwuqc
p7655
I1
sVdqbnx7h
p7656
I1
sVdan7zw7
p7657
I1
sVddy8vch
p7658
I1
sVdok8nsk
p7659
I1
sVd19j0qc
p7660
I1
sVcz6fj6o
p7661
I1
sVd09mxa0
p7662
I1
sVdqu93qe
p7663
I2
sVdi2rlgy
p7664
I1
sVdh3cbm2
p7665
I1
sVczz9ki1
p7666
I1
sVd03pkaa
p7667
I1
sVdhvohdj
p7668
I1
sVdhnl1zf
p7669
I1
sVdp6wzum
p7670
I1
sVdde0paj
p7671
I1
sVdixqc9x
p7672
I1
sVdclejvh
p7673
I2
sVdbci6sc
p7674
I1
sVde23zab
p7675
I1
sVd0dz30a
p7676
I1
sVdfxocl2
p7677
I1
sVd7r8z4c
p7678
I1
sVd986cfh
p7679
I1
sVdfu9xf5
p7680
I1
sVdhs1lmk
p7681
I1
sVdk9kodu
p7682
I1
sVdficdix
p7683
I1
sVdiovbja
p7684
I1
sVdpqqkuj
p7685
I1
sVdnygcz9
p7686
I1
sVd7ayyxv
p7687
I1
sVd0mlacw
p7688
I1
sVczq635e
p7689
I1
sVd7a9edo
p7690
I1
sVcz83c0o
p7691
I1
sVd8zxs6a
p7692
I1
sVd1fm6o0
p7693
I1
sVd3hlfte
p7694
I2
sVd63vyg7
p7695
I1
sVdjdaw23
p7696
I1
sVd0o2lgr
p7697
I1
sVda8n6yj
p7698
I2
sVdhwt1pk
p7699
I1
sVd7of1w8
p7700
I1
sVd4of6ko
p7701
I1
sVdajbujp
p7702
I1
sVd9dwxq5
p7703
I1
sVdhdwfnm
p7704
I1
sVd83wb9z
p7705
I1
sVdhqjwtp
p7706
I1
sVdnosi0b
p7707
I1
sVdr1wfdg
p7708
I1
sVd4dy1lg
p7709
I1
sVdec75w1
p7710
I1
sVd14pp5o
p7711
I1
sVd10fn7v
p7712
I1
sVd6dvbxm
p7713
I2
sVdfgvqzv
p7714
I1
sVd16j6s7
p7715
I1
sVdgjw143
p7716
I1
sVdbwxiso
p7717
I1
sVdibwpgj
p7718
I1
sVdf98zbe
p7719
I1
sVdce28iv
p7720
I1
sVdax8ji7
p7721
I1
sVd0vz5mi
p7722
I1
sVdb1o5af
p7723
I1
sVds0i3y6
p7724
I1
sVdanctwg
p7725
I1
sVdevl47n
p7726
I1
sVdg5mwro
p7727
I1
sVd4qmrul
p7728
I1
sVd7hhs7u
p7729
I1
sVd1ukohr
p7730
I1
sVd04exdl
p7731
I1
sVd18e719
p7732
I1
sVd8gc4fv
p7733
I1
sVdcfc5jj
p7734
I1
sVd4prm7e
p7735
I2
sVdq0osft
p7736
I1
sVdhor3ho
p7737
I1
sVd2cppu8
p7738
I1
sVdcwxet2
p7739
I1
sVdhjxpr8
p7740
I1
sVd2j0gnk
p7741
I1
sVd57se45
p7742
I1
sVdndbjiv
p7743
I1
sVd9xu67z
p7744
I1
sVdflwmhi
p7745
I1
sVcyx7gin
p7746
I1
sVd0dvpwl
p7747
I2
sVdqkiu1x
p7748
I1
sVddha09v
p7749
I1
sVdmxairi
p7750
I1
sVddkfkcl
p7751
I1
sVddwec2g
p7752
I1
sVczgw4fj
p7753
I1
sVd3f0dw9
p7754
I3
sVcykhfh8
p7755
I1
sVd0ldx6v
p7756
I1
sVdmsv50q
p7757
I1
sVdcxsysp
p7758
I1
sVdfmy422
p7759
I1
sVdbrl9d6
p7760
I1
sVd86b5lb
p7761
I1
sVd6cccd6
p7762
I1
sVdff5u1n
p7763
I1
sVd6p6360
p7764
I1
sVdi67li8
p7765
I1
sVd9sqo1y
p7766
I1
sVdc9e42k
p7767
I1
sVd09k1vy
p7768
I1
sVd2rglrm
p7769
I1
sVd2gmatb
p7770
I1
sVdkrytcq
p7771
I1
sVdb3fita
p7772
I1
sVdh86qb4
p7773
I1
sVd2tt5yd
p7774
I1
sVddbz0y1
p7775
I1
sVdfos098
p7776
I1
sVdffkxf3
p7777
I1
sVd70ygs2
p7778
I1
sVd5cc9q3
p7779
I1
sVdav6989
p7780
I1
sVd1hks55
p7781
I1
sVdalcv7s
p7782
I1
sVdmjq9e2
p7783
I1
sVcz3s514
p7784
I1
sVd9d8uy7
p7785
I3
sVdfqbbsv
p7786
I2
sVdcvu5t4
p7787
I1
sVczroq5z
p7788
I1
sVd2vgozm
p7789
I1
sVd0c9h9y
p7790
I1
sVcyozy8q
p7791
I1
sVdkylghr
p7792
I1
sVd6za9h8
p7793
I1
sVd1bkwsm
p7794
I1
sVdh0pgte
p7795
I1
sVdi084c1
p7796
I1
sVdcjbwyh
p7797
I1
sVda3x8gu
p7798
I1
sVdi2ck3n
p7799
I1
sVd4dysz5
p7800
I1
sVd9xjehu
p7801
I1
sVdpmsz42
p7802
I1
sVdek18a6
p7803
I1
sVd4gqlae
p7804
I1
sVdn7p4nv
p7805
I1
sVdgwhbnl
p7806
I1
sVd46dms5
p7807
I1
sVd47y1sl
p7808
I1
sVd9t4lql
p7809
I1
sVdawpgl4
p7810
I1
sVd3vtk7r
p7811
I1
sVd5irdcz
p7812
I1
sVda4q8q6
p7813
I1
sVdmotxj4
p7814
I1
sVdci3ix5
p7815
I1
sVczsdimf
p7816
I1
sVd7qanor
p7817
I1
sVdhuiuby
p7818
I1
sVdn16nmm
p7819
I2
sVdrw8w1i
p7820
I1
sVd0evt00
p7821
I1
sVdh1kk3t
p7822
I2
sVddz67o4
p7823
I1
sVd7a87rz
p7824
I1
sVczuihv5
p7825
I1
sVdrn1sm3
p7826
I1
sVda5i4yo
p7827
I1
sVddwhdhs
p7828
I1
sVdfn5q3o
p7829
I1
sVdbyr5xr
p7830
I1
sVdqeu9fn
p7831
I1
sVde3xwkh
p7832
I1
sVdb8mvmc
p7833
I3
sVd2zxl8q
p7834
I1
sVd77ljje
p7835
I1
sVdpzno5f
p7836
I1
sVd8chrzo
p7837
I1
sVdagzeky
p7838
I1
sVd5bn4kx
p7839
I1
sVdgkbilp
p7840
I1
sVdptnxmp
p7841
I1
sVd8ve6gg
p7842
I1
sVd2nycfx
p7843
I1
sVdbcb5be
p7844
I1
sVdi0exw2
p7845
I1
sVd46uwh3
p7846
I1
sVdbn4uof
p7847
I1
sVddzkn27
p7848
I1
sVd2rnblo
p7849
I1
sVdjn6up2
p7850
I1
sVdi56xic
p7851
I1
sVd7svesp
p7852
I1
sVd82g1b2
p7853
I1
sVdd3jnkk
p7854
I1
sVd4qjpuf
p7855
I1
sVd05uhzm
p7856
I1
sVdcb8js1
p7857
I1
sVdk7g0ru
p7858
I1
sVd9kwt59
p7859
I1
sVdjb5d4y
p7860
I1
sVd0dmuo8
p7861
I1
sVdkdiznt
p7862
I1
sVdo248u1
p7863
I2
sVdguum1v
p7864
I1
sVdgak6v7
p7865
I1
sVd25welj
p7866
I1
sVczbj5er
p7867
I1
sVdami9nv
p7868
I1
sVdcaejfr
p7869
I1
sVd1k090m
p7870
I1
sVd3uj5ek
p7871
I1
sVd586kzs
p7872
I1
sVdizyfda
p7873
I1
sVd2oiv88
p7874
I1
sVd9rtkav
p7875
I1
sVdprpfxx
p7876
I1
sVdsowwd6
p7877
I1
sVdeybj38
p7878
I1
sVdnduqf7
p7879
I1
sVdaz32la
p7880
I1
sVd3kx1i1
p7881
I1
sVd50d6lv
p7882
I1
sVd419h9a
p7883
I1
sVdn0e481
p7884
I2
sVdd3iv2g
p7885
I1
sVcz58y47
p7886
I1
sVd3v0187
p7887
I1
sVczc1cj8
p7888
I1
sVd2kqgqg
p7889
I1
sVdkf6oln
p7890
I1
sVd2ynapx
p7891
I1
sVd00rn3t
p7892
I1
sVdo7th00
p7893
I1
sVdb3v01s
p7894
I1
sVd2ni2xc
p7895
I1
sVd0sqm6b
p7896
I1
sVdbm54tp
p7897
I1
sVdbvo52a
p7898
I2
sVd46k2n0
p7899
I1
sVd3osgub
p7900
I1
sVd81g51h
p7901
I1
sVda4xhq1
p7902
I1
sVd69jzq1
p7903
I1
sVd1bk4zj
p7904
I1
sVdfhjc1w
p7905
I1
sVd0s051n
p7906
I1
sVdr8t59b
p7907
I1
sVd05vupz
p7908
I1
sVd9y1jb8
p7909
I1
sVdho7nq5
p7910
I1
sVdcvb2pt
p7911
I3
sVdnpaxht
p7912
I1
sVdforhsz
p7913
I1
sVdodxfxv
p7914
I2
sVdffn8ku
p7915
I1
sVd1wtnz2
p7916
I1
sVd3577j9
p7917
I1
sVde1fbs7
p7918
I1
sVd11840q
p7919
I1
sVcz0l6n8
p7920
I2
sVd2keig0
p7921
I1
sVdihihqj
p7922
I1
sVdh62vpa
p7923
I1
sVd77qv9d
p7924
I1
sVd2sb61s
p7925
I1
sVdfe2nun
p7926
I1
sVdiwknve
p7927
I1
sVdmowqi1
p7928
I2
sVd78bqxu
p7929
I2
sVd61s68r
p7930
I1
sVd62twa8
p7931
I1
sVdbxd96a
p7932
I1
sVdqcvm3c
p7933
I1
sVdthlxdk
p7934
I2
sVdhdt35i
p7935
I1
sVdfu884a
p7936
I1
sVdgv3gkc
p7937
I1
sVd2lgkbd
p7938
I1
sVdj3itm4
p7939
I2
sVd57cjes
p7940
I1
sVdcnxbmd
p7941
I1
sVdgs7tgm
p7942
I1
sVdmfwruy
p7943
I1
sVdf1pgwf
p7944
I1
sVdqdafry
p7945
I1
sVdagnnqj
p7946
I1
sVdk2hazz
p7947
I1
sVd13zzea
p7948
I1
sVde301wg
p7949
I1
sVdqy0btr
p7950
I1
sVdn154k4
p7951
I2
sVd4e5akd
p7952
I1
sVd7b08c3
p7953
I1
sVd21lj01
p7954
I1
sVd3yln0r
p7955
I1
sVdcmlbuu
p7956
I1
sVd6x716o
p7957
I1
sVd1ppj7h
p7958
I1
sVda6hjoo
p7959
I1
sVdaechn6
p7960
I1
sVd9b17wm
p7961
I1
sVdeg9swo
p7962
I1
sVdglxzbo
p7963
I1
sVd79m4ul
p7964
I1
sVd2854ky
p7965
I1
sVdebylqf
p7966
I1
sVczvz5nc
p7967
I1
sVdcyn6u9
p7968
I1
sVczoee0e
p7969
I3
sVd8vlhdx
p7970
I1
sVd1311ow
p7971
I2
sVdcgqs00
p7972
I1
sVdgg92tj
p7973
I1
sVdel9yef
p7974
I1
sVdbjmatx
p7975
I1
sVddp35vk
p7976
I1
sVdkjx7bl
p7977
I1
sVddvc6ta
p7978
I1
sVd9frae7
p7979
I1
sVd9gq5zo
p7980
I1
sVde1l3pv
p7981
I1
sVd5ekzbv
p7982
I1
sVdsta2yq
p7983
I1
sVd6owcut
p7984
I1
sVczxa401
p7985
I1
sVdhcaqe3
p7986
I1
sVd3rejj3
p7987
I1
sVdeyezvk
p7988
I1
sVdfuagya
p7989
I1
sVczhbpz5
p7990
I1
sVdsn4k06
p7991
I1
sVd21hws2
p7992
I1
sVd932bb2
p7993
I1
sVdomy0l0
p7994
I1
sVd2wrk2z
p7995
I1
sVdq5id5u
p7996
I1
sVdem9grw
p7997
I1
sVdjtj87d
p7998
I1
sVcyz6bf9
p7999
I1
sVdaqk8ji
p8000
I1
sVd17suhn
p8001
I1
sVczgs71v
p8002
I1
sVdb5cnwv
p8003
I1
sVd97jdtr
p8004
I1
sVd8yh4z5
p8005
I1
sVcze1fsd
p8006
I1
sVdnerkby
p8007
I1
sVdo7ttb0
p8008
I1
sVd0xqaa6
p8009
I1
sVdpj6jhb
p8010
I1
sVdozv7lg
p8011
I1
sVd3ys4gt
p8012
I1
sVcyidh07
p8013
I1
sVd2xc5oj
p8014
I1
sVczb84hx
p8015
I1
sVd5y8phf
p8016
I1
sVd2l106u
p8017
I1
sVd3qeto9
p8018
I1
sVd3obmc8
p8019
I1
sVdoxjst9
p8020
I1
sVd02fr5z
p8021
I1
sVdh1xmu9
p8022
I2
sVd3hnca7
p8023
I1
sVdi7vp6v
p8024
I1
sVd01scdc
p8025
I2
sVcynibw9
p8026
I1
sVd3z7q9a
p8027
I1
sVd1h992u
p8028
I1
sVd45vdv8
p8029
I1
sVdkfw3su
p8030
I1
sVd2t7bue
p8031
I1
sVd2hv78s
p8032
I1
sVdi33tp6
p8033
I1
sVdbinaqj
p8034
I1
sVdcmhofm
p8035
I3
sVdbir1c9
p8036
I1
sVd60e1ck
p8037
I2
sVda9wr8m
p8038
I1
sVdt1zb42
p8039
I1
sVdkrwblc
p8040
I1
sVd7tad8w
p8041
I1
sVcyswz3y
p8042
I1
sVdmoywnd
p8043
I1
sVd9vfgpt
p8044
I1
sVdb0v8qr
p8045
I2
sVdpyjb75
p8046
I1
sVd6i0t1y
p8047
I1
sVdhz34ad
p8048
I1
sVdb86b3y
p8049
I1
sVdb8cizm
p8050
I1
sVdn4413m
p8051
I1
sVcz1f205
p8052
I1
sVdfbd5ph
p8053
I1
sVdq15qxc
p8054
I2
sVdp1pn1e
p8055
I1
sVdbjf8aa
p8056
I1
sVd5b0dj6
p8057
I1
sVd7e5toe
p8058
I1
sVdrwx7sk
p8059
I1
sVd5xhrtl
p8060
I1
sVdje3gvx
p8061
I1
sVdastr6h
p8062
I1
sVdjqeo84
p8063
I1
sVd1lrpo2
p8064
I1
sVcyjhlkn
p8065
I1
sVdmnvi0f
p8066
I1
sVdppsfwi
p8067
I1
sVdcmvwsg
p8068
I1
sVd643888
p8069
I1
sVdor7eio
p8070
I1
sVdncffck
p8071
I1
sVd9e32j9
p8072
I1
sVcyo23un
p8073
I1
sVdj5ug5g
p8074
I2
sVd1dj2jg
p8075
I1
sVde8tpqh
p8076
I1
sVdfh74cj
p8077
I1
sVdkpzp9f
p8078
I2
sVdaklflw
p8079
I1
sVddbh6ja
p8080
I1
sVd9zy27h
p8081
I1
sVcyk7s2k
p8082
I1
sVdbvajgc
p8083
I1
sVdbptc3u
p8084
I1
sVdg7148j
p8085
I1
sVdrhv3tq
p8086
I2
sVdjfhon8
p8087
I1
sVd1263s4
p8088
I1
sVdji0aoz
p8089
I1
sVd8ur5hk
p8090
I1
sVd4mjfdw
p8091
I1
sVdeutt2s
p8092
I1
sVdmkxk7e
p8093
I1
sVdfsstm1
p8094
I1
sVdbpy3zd
p8095
I1
sVd25s72t
p8096
I1
sVd3euoct
p8097
I1
sVdg4baqk
p8098
I1
sVd9aqnph
p8099
I2
sVd1jjodx
p8100
I1
sVd4rkcg2
p8101
I1
sVdo1c9xv
p8102
I2
sVdag3ml0
p8103
I1
sVd3djxg5
p8104
I1
sVdp5f8dw
p8105
I1
sVd6thwrj
p8106
I1
sVd3zr6p0
p8107
I1
sVdb0syn6
p8108
I1
sVd7v4j0d
p8109
I1
sVd18s3cl
p8110
I1
sVddoadl2
p8111
I1
sVdhgmdqe
p8112
I1
sVd2xja9q
p8113
I1
sVd0y4u23
p8114
I1
sVdscp0pq
p8115
I1
sVd8u1xj6
p8116
I1
sVd73g2lg
p8117
I5
sVdb7r0pb
p8118
I1
sVd6w259m
p8119
I1
sVdp8kebd
p8120
I2
sVdi0nca8
p8121
I1
sVcz2m6pl
p8122
I1
sVd84hvct
p8123
I1
sVdstw328
p8124
I2
sVd95yibc
p8125
I1
sVdozflb3
p8126
I1
sVd45ysqz
p8127
I1
sVdhfwscy
p8128
I1
sVdeuubqa
p8129
I1
sVd3hz1hx
p8130
I1
sVd3djiaj
p8131
I1
sVdho01fm
p8132
I1
sVd1k4hmg
p8133
I2
sVdki9zxu
p8134
I1
sVczrlefe
p8135
I1
sVdjpwuxr
p8136
I1
sVd5vv0ah
p8137
I1
sVczsqyun
p8138
I1
sVdioasyr
p8139
I1
sVd668j60
p8140
I1
sVd5636hp
p8141
I1
sVd11ks0i
p8142
I1
sVdhn6xh0
p8143
I1
sVd2qxir1
p8144
I1
sVdaj2ddt
p8145
I1
sVczoajfd
p8146
I1
sVd0rc49v
p8147
I2
sVd0gtmff
p8148
I1
sVdatnof7
p8149
I1
sVdqr1lek
p8150
I1
sVdj7ehx3
p8151
I1
sVdhs9jij
p8152
I1
sVdjzqpvb
p8153
I1
sVdomczcw
p8154
I1
sVd5nacgp
p8155
I1
sVdoe5ep5
p8156
I1
sVcywkqja
p8157
I1
sVd7nzjn5
p8158
I1
sVd222jcw
p8159
I1
sVdmyfks7
p8160
I1
sVdq8bp8x
p8161
I1
sVd81pna3
p8162
I1
sVddbmhvn
p8163
I1
sVd7ygqaq
p8164
I1
sVde9m6ob
p8165
I1
sVdspbt4w
p8166
I1
sVdmq4wqa
p8167
I1
sVdmpxaw6
p8168
I1
sVdjo136c
p8169
I1
sVd7rozzl
p8170
I1
sVczd5wy6
p8171
I1
sVd1ref5a
p8172
I1
sVdekvya5
p8173
I1
sVd3zho1w
p8174
I2
sVd3r2jo3
p8175
I1
sVde8z48d
p8176
I1
sVdae8y2v
p8177
I1
sVdeejs68
p8178
I1
sVdf25hg3
p8179
I1
sVdhbmnua
p8180
I1
sVdhu89rl
p8181
I1
sVdkz1clr
p8182
I1
sVd0vcwf9
p8183
I1
sVdf1112e
p8184
I1
sVcyxecr4
p8185
I1
sVde7cux5
p8186
I1
sVd4bt747
p8187
I1
sVd43avf5
p8188
I2
sVdb22vcr
p8189
I2
sVdoxy2d1
p8190
I1
sVdql1wcm
p8191
I1
sVdg5m4gk
p8192
I1
sVdjzskdk
p8193
I1
sVd7fulky
p8194
I1
sVd0b9dzc
p8195
I1
sVd5h8swn
p8196
I2
sVd8bbg9o
p8197
I1
sVdhyzgzy
p8198
I1
sVd0koagx
p8199
I1
sVdglw4o4
p8200
I2
sVdcwcdw2
p8201
I1
sVdpc117h
p8202
I1
sVde5fhw9
p8203
I1
sVdho3nts
p8204
I1
sVdnj8duf
p8205
I1
sVdj2xu70
p8206
I1
sVd39ec3b
p8207
I1
sVdrdhodp
p8208
I2
sVd09tc89
p8209
I1
sVdbqnq5t
p8210
I1
sVd3yyut8
p8211
I1
sVd8pery7
p8212
I1
sVdkub5x7
p8213
I1
sVd5qmlc7
p8214
I1
sVdazbvtq
p8215
I1
sVd423emh
p8216
I1
sVd55vm3o
p8217
I1
sVd2mgc5j
p8218
I1
sVdhir7h7
p8219
I1
sVd0dyd3c
p8220
I1
sVd4bp936
p8221
I1
sVd9n7olr
p8222
I1
sVd5x6yif
p8223
I1
sVdek7zw6
p8224
I1
sVdsvbsgx
p8225
I1
sVd96ss2r
p8226
I1
sVcz2tgaq
p8227
I1
sVdfqqysj
p8228
I1
sVd0rd65i
p8229
I1
sVdcky8f6
p8230
I1
sVdiuy21b
p8231
I1
sVd7fnx1u
p8232
I1
sVd5ft9ix
p8233
I1
sVczaiocc
p8234
I1
sVdqkox95
p8235
I1
sVd2o7141
p8236
I1
sVd146dzt
p8237
I1
sVd6ajai9
p8238
I1
sVdc2a13v
p8239
I1
sVd8hgf69
p8240
I1
sVdf3npmj
p8241
I1
sVd18yyci
p8242
I1
sVddn7y5y
p8243
I2
sVdid2np4
p8244
I1
sVddu4492
p8245
I1
sVd4mxkbo
p8246
I1
sVd0mn1vr
p8247
I1
sVdnsc111
p8248
I1
sVdcti57x
p8249
I1
sVd6bsfs0
p8250
I1
sVdefiiqe
p8251
I1
sVdscobb9
p8252
I1
sVdjibd9i
p8253
I1
sVd39xmzy
p8254
I1
sVd0y6yv7
p8255
I3
sVddjnan1
p8256
I1
sVdjzgzwl
p8257
I1
sVdchtgn3
p8258
I1
sVddzch1z
p8259
I1
sVdb8lk8v
p8260
I1
sVdkkqp0x
p8261
I1
sVcyyfwo6
p8262
I1
sVdnh5mi1
p8263
I1
sVdahb5po
p8264
I1
sVd86n004
p8265
I1
sVdh30k42
p8266
I1
sVcyi6oib
p8267
I1
sVd1r8ixb
p8268
I1
sVdq4uenc
p8269
I1
sVdh0ybkp
p8270
I1
sVd1ir7ki
p8271
I1
sVd45bqvw
p8272
I1
sVdi9xq59
p8273
I1
sVd0sjb46
p8274
I1
sVdbojjcm
p8275
I2
sVdnz2nv1
p8276
I1
sVcz5s22z
p8277
I1
sVdc2srm3
p8278
I1
sVd0il39e
p8279
I1
sVd3qtgtw
p8280
I1
sVdil74sa
p8281
I1
sVd9c52c9
p8282
I1
sVd05x8vo
p8283
I1
sVd3362td
p8284
I1
sVd8usmtt
p8285
I1
sVd356yt4
p8286
I1
sVd1qdlvf
p8287
I1
sVdceea7x
p8288
I1
sVdeb6krw
p8289
I1
sVd2mno5t
p8290
I1
sVdbe2bc2
p8291
I1
sVcyy0bwg
p8292
I1
sVcykx159
p8293
I1
sVde2fx01
p8294
I1
sVdcuh53g
p8295
I1
sVdt9ppyi
p8296
I4
sVd2a5opb
p8297
I2
sVd6iayxu
p8298
I1
sVdqg7i4c
p8299
I1
sVdi4rnyx
p8300
I1
sVdn13m40
p8301
I2
sVdir1x1u
p8302
I1
sVcyytkeb
p8303
I2
sVdi0glol
p8304
I1
sVdb5e9h3
p8305
I1
sVdn2wa9b
p8306
I1
sVd24ey1q
p8307
I1
sVdfr4wcv
p8308
I1
sVd7ac1av
p8309
I2
sVd1j3nna
p8310
I2
sVdfe9agk
p8311
I1
sVd7vwon5
p8312
I1
sVdmhms0v
p8313
I1
sVdej7zu0
p8314
I1
sVdb72sbq
p8315
I1
sVd0hw7od
p8316
I1
sVd2ktot4
p8317
I1
sVdsaz8td
p8318
I1
sVdjvfggr
p8319
I1
sVcylm2db
p8320
I1
sVd9fl7tz
p8321
I1
sVdjq9aq0
p8322
I1
sVdfe5vy5
p8323
I1
sVddkd5th
p8324
I1
sVd94xbwg
p8325
I1
sVd32r1iq
p8326
I1
sVdc7hpxi
p8327
I1
sVda197lb
p8328
I1
sVcyzgk21
p8329
I1
sVdr21guf
p8330
I1
sVd5zgg5g
p8331
I1
sVdmx91r2
p8332
I1
sVdfosu9e
p8333
I1
sVdgwwbwv
p8334
I1
sVdqkg2v5
p8335
I2
sVd725ws0
p8336
I2
sVdp969fu
p8337
I1
sVdddkxl5
p8338
I1
sVdd6o8qg
p8339
I1
sVdf4xnar
p8340
I1
sVd7lfzt4
p8341
I1
sVdi5xanm
p8342
I1
sVdi5ao9z
p8343
I1
sVdo2j6xd
p8344
I1
sVdck964x
p8345
I1
sVd63lxk8
p8346
I1
sVdf170m6
p8347
I1
sVd9gyel4
p8348
I1
sVdddpe41
p8349
I1
sVczw4fgb
p8350
I1
sVdnpexak
p8351
I2
sVd42dmwk
p8352
I1
sVdatpyei
p8353
I1
sVd3ox66k
p8354
I1
sVdc3dnu1
p8355
I1
sVd6g4tfp
p8356
I1
sVdam1gwi
p8357
I1
sVdjxzjvb
p8358
I1
sVcz4a643
p8359
I1
sVd0d3cxt
p8360
I1
sVdt2omlw
p8361
I1
sVdsqhcgr
p8362
I2
sVdntln8y
p8363
I1
sVdse1z97
p8364
I1
sVd4ckfjl
p8365
I1
sVczqvvxr
p8366
I1
sVd0y5qgg
p8367
I1
sVdq05mab
p8368
I2
sVdjlo70d
p8369
I2
sVdpj5fud
p8370
I1
sVd099e1c
p8371
I1
sVcz90o9y
p8372
I1
sVd6d1fcy
p8373
I1
sVdavm3bq
p8374
I2
sVd933fcf
p8375
I1
sVdf180oc
p8376
I1
sVdbecsqn
p8377
I1
sVdpzaffo
p8378
I1
sVd15ymfv
p8379
I1
sVdsiyohi
p8380
I1
sVd10kpuz
p8381
I1
sVdbqwtjq
p8382
I2
sVd0kjjh7
p8383
I1
sVdosrywt
p8384
I1
sVd6s1rdn
p8385
I1
sVd83fn7n
p8386
I1
sVdmfj6qa
p8387
I1
sVdh1d6wu
p8388
I1
sVd5cbva7
p8389
I1
sVdg8ycl6
p8390
I2
sVdcruscr
p8391
I1
sVdkg3y7b
p8392
I1
sVd8thp82
p8393
I1
sVdcexve4
p8394
I1
sVd1r4m9k
p8395
I1
sVcyy1d8u
p8396
I1
sVd7jtucr
p8397
I2
sVd3ntp0m
p8398
I1
sVd5uw4kg
p8399
I1
sVd0ndyyt
p8400
I1
sVdnt3hl7
p8401
I1
sVde5rrm0
p8402
I1
sVdt5u5zj
p8403
I1
sVdfx0fac
p8404
I1
sVd8fx5vu
p8405
I1
sVd16ihbj
p8406
I2
sVd2vl4sl
p8407
I1
sVdienc67
p8408
I4
sVd4ki2gg
p8409
I1
sVdctbweq
p8410
I1
sVdfksyjg
p8411
I1
sVdi2w82u
p8412
I1
sVdbf022r
p8413
I1
sVczc1km5
p8414
I1
sVd13drj8
p8415
I1
sVd3qaltx
p8416
I1
sVdbvudws
p8417
I1
sVczs14zb
p8418
I1
sVdgtt6f3
p8419
I1
sVdpusyvg
p8420
I1
sVd2seo3h
p8421
I1
sVd05nirc
p8422
I1
sVd95ltoq
p8423
I2
sVdc90pzb
p8424
I1
sVd81xgv6
p8425
I1
sVcyyyuy9
p8426
I1
sVdclzfim
p8427
I1
sVd28dn6n
p8428
I1
sVcyk9gwk
p8429
I1
sVdjtjgoj
p8430
I1
sVddol0wh
p8431
I1
sVda9ax94
p8432
I1
sVd35ey6k
p8433
I1
sVdbmp70v
p8434
I1
sVdb3bud0
p8435
I1
sVd29j9u7
p8436
I1
sVdc3pkea
p8437
I1
sVdeoet0j
p8438
I1
sVcypdx62
p8439
I1
sVddf91s9
p8440
I1
sVd5kdba6
p8441
I1
sVd849syj
p8442
I1
sVdp5ig34
p8443
I1
sVd8q8msj
p8444
I1
sVdfxbzt0
p8445
I1
sVd6mhwdt
p8446
I1
sVdg52han
p8447
I1
sVdf4xhxa
p8448
I1
sVd40duou
p8449
I1
sVdb34sna
p8450
I1
sVda5qwpw
p8451
I1
sVdel57eb
p8452
I1
sVcznwnon
p8453
I1
sVd3g96od
p8454
I1
sVdkitckj
p8455
I1
sVdk4vwxl
p8456
I1
sVd3aqpvj
p8457
I1
sVd61i49i
p8458
I1
sVdn3fo34
p8459
I1
sVdbue455
p8460
I2
sVd0dj85y
p8461
I1
sVd9iwxr2
p8462
I1
sVd6lldtm
p8463
I1
sVd5jpnt1
p8464
I1
sVd5wsc4o
p8465
I2
sVdrzz40p
p8466
I1
sVd1rxhj2
p8467
I1
sVd5umrzc
p8468
I1
sVd1ivz41
p8469
I6
sVd646r79
p8470
I1
sVdakzhh5
p8471
I1
sVdf23xq8
p8472
I1
sVdk15nqd
p8473
I1
sVd8d7y54
p8474
I1
sVddt19l8
p8475
I1
sVczmz6ma
p8476
I1
sVd4pyz5k
p8477
I1
sVddv5mhd
p8478
I1
sVdd519dm
p8479
I1
sVdoe7pzm
p8480
I2
sVd6k8yw4
p8481
I1
sVdi0yvfa
p8482
I1
sVdbi2a08
p8483
I1
s.