(dp0
Vd1bxu1u
p1
I1
sVd1b1eme
p2
I1
sVd53amuf
p3
I1
sVd6et5c7
p4
I1
sVd7lu8e3
p5
I1
sVdkylghr
p6
I2
sVczzuvgo
p7
I1
sVd4o1h9t
p8
I1
sVdkkoogl
p9
I1
sVdcpcn5s
p10
I1
sVd8ebhec
p11
I1
sVdbb81fn
p12
I1
sVd7zbqp6
p13
I2
sVden36tz
p14
I1
sVdk27rtc
p15
I1
sVd5q4sbe
p16
I2
sVcyuufmg
p17
I1
s.