(dp0
Vcyn814t
p1
I1
s.(dp0
Vcyn814t
p1
I1
sVcyt8nz7
p2
I1
s.(dp0
Vcyn814t
p1
I1
sVcywze9a
p2
I1
s.(dp0
Vcyn814t
p1
I1
sVcz0v7my
p2
I1
s.(dp0
Vcyn814t
p1
I1
sVcz3kzyr
p2
I1
s.(dp0
Vcyn814t
p1
I1
sVcz43j31
p2
I1
s.(dp0
Vcyn814t
p1
I1
sVcz4x9ql
p2
I1
s.(dp0
Vcyn814t
p1
I1
sVcz6hq7y
p2
I1
s.(dp0
Vcyn814t
p1
I1
sVcz6xdvv
p2
I1
s.(dp0
Vcyn814t
p1
I1
sVczcggpk
p2
I1
s.(dp0
Vcyn814t
p1
I1
sVczmmtq0
p2
I1
s.(dp0
Vcyn814t
p1
I1
sVczrltbl
p2
I1
s.(dp0
Vcyn814t
p1
I1
sVd015evk
p2
I1
s.(dp0
Vcyn814t
p1
I1
sVd01cplv
p2
I1
s.(dp0
Vcyn814t
p1
I1
sVd061ueg
p2
I1
s.(dp0
Vcyn814t
p1
I1
sVd0xzwip
p2
I1
s.(dp0
Vcyn814t
p1
I1
sVd168etl
p2
I1
s.(dp0
Vcyn814t
p1
I1
sVd1g8frg
p2
I1
s.(dp0
Vcyn814t
p1
I1
sVd1iyddq
p2
I1
s.(dp0
Vcyn814t
p1
I1
sVd1jp7lc
p2
I1
s.(dp0
Vcyn814t
p1
I1
sVd1p5825
p2
I1
s.(dp0
Vcyn814t
p1
I1
sVd287kre
p2
I1
s.(dp0
Vcyn814t
p1
I1
sVd2bejrd
p2
I1
s.(dp0
Vcyn814t
p1
I1
sVd2gssdk
p2
I1
s.(dp0
Vcyn814t
p1
I1
sVd2uzrbj
p2
I1
s.(dp0
Vcyn814t
p1
I1
sVd3g89bc
p2
I1
s.(dp0
Vcyn814t
p1
I1
sVd3hc8t0
p2
I1
s.(dp0
Vcyn814t
p1
I1
sVd3hc8t0
p2
I1
s.(dp0
Vcyn814t
p1
I1
sVd3huyt8
p2
I1
s.(dp0
Vcyn814t
p1
I1
sVd3yfdlf
p2
I1
s.(dp0
Vcyn814t
p1
I1
sVd4mfj1d
p2
I1
s.(dp0
Vcyn814t
p1
I1
sVd4qbj8r
p2
I1
s.(dp0
Vcyn814t
p1
I1
sVd5gmwhf
p2
I1
s.(dp0
Vcyn814t
p1
I1
sVd5ntuzy
p2
I1
s.(dp0
Vcyn814t
p1
I1
sVd5q1hen
p2
I1
s.(dp0
Vcyn814t
p1
I1
sVd5wuuxr
p2
I1
s.(dp0
Vcyn814t
p1
I1
sVd5xjalw
p2
I1
s.(dp0
Vcyn814t
p1
I1
sVd67v2wt
p2
I1
s.(dp0
Vcyn814t
p1
I1
sVd6g8bsx
p2
I1
s.(dp0
Vcyn814t
p1
I1
sVd6svuao
p2
I1
s.(dp0
Vcyn814t
p1
I1
sVd6yda1d
p2
I1
s.(dp0
Vcyn814t
p1
I1
sVd7thjgw
p2
I1
s.(dp0
Vcyn814t
p1
I1
sVd7thjgw
p2
I1
s.(dp0
Vcyn814t
p1
I1
sVd7xn6no
p2
I1
s.(dp0
Vcyn814t
p1
I1
sVd8vcoze
p2
I1
s.(dp0
Vcyn814t
p1
I1
sVd9kfgzt
p2
I1
s.(dp0
Vcyn814t
p1
I1
sVda2wxc5
p2
I1
s.(dp0
Vcyn814t
p1
I1
sVdabirl8
p2
I1
s.(dp0
Vcyn814t
p1
I1
sVdaqk9wg
p2
I1
s.(dp0
Vcyn814t
p1
I1
sVdb056mn
p2
I1
s.(dp0
Vcyn814t
p1
I1
sVdb86p32
p2
I1
s.(dp0
Vcyn814t
p1
I1
sVdbh9db8
p2
I1
s.(dp0
Vcyn814t
p1
I1
sVdc4vpnu
p2
I1
s.(dp0
Vcyn814t
p1
I1
sVdc9job1
p2
I1
s.(dp0
Vcyn814t
p1
I1
sVdcliwdc
p2
I1
s.(dp0
Vcyn814t
p1
I1
sVdctgbwp
p2
I1
s.(dp0
Vcyn814t
p1
I1
sVdd5f1cc
p2
I1
s.(dp0
Vcyn814t
p1
I1
sVdd7cieq
p2
I1
s.(dp0
Vcyn814t
p1
I1
sVddsh8i3
p2
I1
s.(dp0
Vcyn814t
p1
I1
sVddwzmtt
p2
I1
s.(dp0
Vcyn814t
p1
I1
sVddwzmtt
p2
I1
s.(dp0
Vcyn814t
p1
I1
sVde3l6yf
p2
I1
s.(dp0
Vcyn814t
p1
I1
sVdejk5bl
p2
I1
s.(dp0
Vcyn814t
p1
I1
sVdelcsli
p2
I1
s.(dp0
Vcyn814t
p1
I1
sVdemcids
p2
I1
s.(dp0
Vcyn814t
p1
I1
sVdenwxbr
p2
I1
s.(dp0
Vcyn814t
p1
I1
sVdfiozv9
p2
I1
s.(dp0
Vcyn814t
p1
I1
sVdfwqp2s
p2
I1
s.(dp0
Vcyn814t
p1
I1
sVdgnrzm4
p2
I1
s.(dp0
Vcyn814t
p1
I1
sVdgy76cz
p2
I1
s.(dp0
Vcyn814t
p1
I1
sVdhe8sjp
p2
I1
s.(dp0
Vcyn814t
p1
I1
sVdhe8sjp
p2
I1
s.(dp0
Vcyn814t
p1
I1
sVdhfslir
p2
I1
s.(dp0
Vcyn814t
p1
I1
sVdhluzcf
p2
I1
s.(dp0
Vcyn814t
p1
I1
sVdhtty62
p2
I1
s.(dp0
Vcyn814t
p1
I1
sVdhvp46l
p2
I1
s.(dp0
Vcyn814t
p1
I1
sVdisocpn
p2
I1
s.(dp0
Vcyn814t
p1
I1
sVdj1z5bw
p2
I1
s.(dp0
Vcyn814t
p1
I1
sVdj6btf8
p2
I1
s.(dp0
Vcyn814t
p1
I1
sVdjasbs3
p2
I1
s.(dp0
Vcyn814t
p1
I1
sVdjfu9vp
p2
I1
s.(dp0
Vcyn814t
p1
I1
sVdjl37xu
p2
I1
s.(dp0
Vcyn814t
p1
I1
sVdkhmilj
p2
I1
s.(dp0
Vcyn814t
p1
I1
sVdkihc2e
p2
I1
s.(dp0
Vcyn814t
p1
I1
sVdmngnf2
p2
I1
s.(dp0
Vcyn814t
p1
I1
sVdmyd7jq
p2
I1
s.(dp0
Vcyn814t
p1
I1
sVdnminv3
p2
I1
s.(dp0
Vcyn814t
p1
I1
sVdnwk31m
p2
I1
s.(dp0
Vcyn814t
p1
I1
sVdp9x2rz
p2
I1
s.(dp0
Vcyn814t
p1
I1
sVdq3oyqd
p2
I1
s.(dp0
Vcyn814t
p1
I1
sVdr4rluj
p2
I1
s.(dp0
Vcyn814t
p1
I1
sVdrixtn2
p2
I1
s.