(dp0
Vd4oovz1
p1
I1
sVdh0uhaf
p2
I1
sVd3tfg7q
p3
I1
sVd715lir
p4
I1
sVd0l73j7
p5
I1
sVdg2i7jg
p6
I1
sVdj8kg1r
p7
I2
sVdcvu21g
p8
I1
sVd3xungq
p9
I1
sVd26pfrv
p10
I1
sVcz3rjgq
p11
I1
sVd3w1h6p
p12
I1
sVdd21301
p13
I1
sVdateqqg
p14
I1
sVdpyfnbt
p15
I1
sVd65in28
p16
I1
sVdh3239n
p17
I1
sVd40r5e8
p18
I1
sVd312yvz
p19
I1
sVdijt1na
p20
I2
sVdpihqe4
p21
I1
sVd5zv4s2
p22
I1
sVd9ba8yv
p23
I1
sVd5u2y7g
p24
I1
sVdqplfrb
p25
I1
sVd1r0o8d
p26
I1
sVdfknp9d
p27
I1
sVdidon0k
p28
I1
sVdn4f3jr
p29
I1
sVczorwm1
p30
I1
s.