(dp0
Vczsskqn
p1
I1
s.(dp0
Vczsskqn
p1
I2
s.(dp0
Vd092lgg
p1
I1
sVczsskqn
p2
I1
s.(dp0
Vd3k5ljw
p1
I1
sVczsskqn
p2
I1
s.(dp0
Vd3k5ljw
p1
I1
sVczsskqn
p2
I1
s.(dp0
Vd4zhbtv
p1
I1
sVczsskqn
p2
I1
s.(dp0
Vd6xytjy
p1
I1
sVczsskqn
p2
I1
s.(dp0
Vd7cp8xe
p1
I1
sVczsskqn
p2
I1
s.(dp0
Vdczeer3
p1
I1
sVczsskqn
p2
I1
s.(dp0
Vdgtjxyn
p1
I1
sVczsskqn
p2
I1
s.(dp0
Vdgtjxyn
p1
I1
sVczsskqn
p2
I1
s.(dp0
Vczsskqn
p1
I1
sVdtgfpjs
p2
I1
s.