(dp0
Vcypxh00
p1
I1
s.(dp0
Vcypyr4z
p1
I1
sVcypxh00
p2
I1
s.(dp0
Vcyq2oew
p1
I1
sVcypxh00
p2
I1
s.(dp0
Vcyrz6io
p1
I1
sVcypxh00
p2
I1
s.(dp0
Vcys3v67
p1
I1
sVcypxh00
p2
I1
s.(dp0
Vcyuojsb
p1
I1
sVcypxh00
p2
I1
s.(dp0
Vcyxc746
p1
I1
sVcypxh00
p2
I1
s.(dp0
Vcyxkurd
p1
I1
sVcypxh00
p2
I1
s.(dp0
Vcyxkurd
p1
I1
sVcypxh00
p2
I1
s.(dp0
Vcz1nn0q
p1
I1
sVcypxh00
p2
I1
s.(dp0
Vcz2y0y7
p1
I1
sVcypxh00
p2
I1
s.(dp0
Vcz7adme
p1
I1
sVcypxh00
p2
I1
s.(dp0
Vczaajnk
p1
I1
sVcypxh00
p2
I1
s.(dp0
Vczbxspo
p1
I1
sVcypxh00
p2
I1
s.(dp0
Vczc3fp5
p1
I1
sVcypxh00
p2
I1
s.(dp0
Vczdnjt6
p1
I1
sVcypxh00
p2
I1
s.(dp0
Vczfd76l
p1
I1
sVcypxh00
p2
I1
s.(dp0
Vczfren7
p1
I1
sVcypxh00
p2
I1
s.(dp0
Vczg3kuj
p1
I1
sVcypxh00
p2
I1
s.(dp0
Vczh9aio
p1
I1
sVcypxh00
p2
I1
s.(dp0
Vczky9ew
p1
I1
sVcypxh00
p2
I1
s.(dp0
Vczmduez
p1
I1
sVcypxh00
p2
I1
s.(dp0
Vczsvxbm
p1
I1
sVcypxh00
p2
I1
s.(dp0
Vczsvxbm
p1
I1
sVcypxh00
p2
I1
s.(dp0
Vczu5otc
p1
I1
sVcypxh00
p2
I1
s.(dp0
Vczvvc69
p1
I1
sVcypxh00
p2
I1
s.(dp0
Vczxw4nm
p1
I1
sVcypxh00
p2
I1
s.(dp0
Vczy46hc
p1
I1
sVcypxh00
p2
I1
s.(dp0
Vczyljoa
p1
I1
sVcypxh00
p2
I1
s.(dp0
Vczzknnp
p1
I1
sVcypxh00
p2
I1
s.(dp0
Vd00bto9
p1
I1
sVcypxh00
p2
I1
s.(dp0
Vd01cfuz
p1
I1
sVcypxh00
p2
I1
s.(dp0
Vd03143c
p1
I1
sVcypxh00
p2
I1
s.(dp0
Vd079shy
p1
I1
sVcypxh00
p2
I1
s.(dp0
Vd07ovfv
p1
I1
sVcypxh00
p2
I1
s.(dp0
Vd09jhko
p1
I1
sVcypxh00
p2
I1
s.(dp0
Vd0fz6tv
p1
I1
sVcypxh00
p2
I1
s.(dp0
Vd0mrto7
p1
I1
sVcypxh00
p2
I1
s.(dp0
Vd0mzwdk
p1
I1
sVcypxh00
p2
I1
s.(dp0
Vd0nzxqi
p1
I1
sVcypxh00
p2
I1
s.(dp0
Vd0o0gvu
p1
I1
sVcypxh00
p2
I1
s.(dp0
Vd0o0lvq
p1
I1
sVcypxh00
p2
I1
s.(dp0
Vd0o0lvq
p1
I1
sVcypxh00
p2
I1
s.(dp0
Vd0o0lvq
p1
I1
sVcypxh00
p2
I1
s.(dp0
Vd0qelkg
p1
I1
sVcypxh00
p2
I1
s.(dp0
Vd0s7uh1
p1
I1
sVcypxh00
p2
I1
s.(dp0
Vd0tal20
p1
I1
sVcypxh00
p2
I1
s.(dp0
Vd0zd8oz
p1
I1
sVcypxh00
p2
I1
s.(dp0
Vd14yke0
p1
I1
sVcypxh00
p2
I1
s.(dp0
Vd1e1oxx
p1
I1
sVcypxh00
p2
I1
s.(dp0
Vd1fiykp
p1
I1
sVcypxh00
p2
I1
s.(dp0
Vd1m1hge
p1
I1
sVcypxh00
p2
I1
s.(dp0
Vd1qxxdg
p1
I1
sVcypxh00
p2
I1
s.(dp0
Vd1zrtty
p1
I1
sVcypxh00
p2
I1
s.(dp0
Vd2a84g3
p1
I1
sVcypxh00
p2
I1
s.(dp0
Vd2cmegg
p1
I1
sVcypxh00
p2
I1
s.(dp0
Vd2dd0xm
p1
I1
sVcypxh00
p2
I1
s.(dp0
Vd2f7qdf
p1
I1
sVcypxh00
p2
I1
s.(dp0
Vd2hqk7e
p1
I1
sVcypxh00
p2
I1
s.(dp0
Vd2kpkf5
p1
I1
sVcypxh00
p2
I1
s.(dp0
Vd2lz3th
p1
I1
sVcypxh00
p2
I1
s.(dp0
Vd2p38nv
p1
I1
sVcypxh00
p2
I1
s.(dp0
Vd2r36rl
p1
I1
sVcypxh00
p2
I1
s.(dp0
Vd2rrweo
p1
I1
sVcypxh00
p2
I1
s.(dp0
Vd2u26wl
p1
I1
sVcypxh00
p2
I1
s.(dp0
Vd2u7brd
p1
I1
sVcypxh00
p2
I1
s.(dp0
Vd2xtr0u
p1
I1
sVcypxh00
p2
I1
s.(dp0
Vd31kccl
p1
I1
sVcypxh00
p2
I1
s.(dp0
Vd31kccl
p1
I1
sVcypxh00
p2
I1
s.(dp0
Vd35i7sv
p1
I1
sVcypxh00
p2
I1
s.(dp0
Vd390eee
p1
I1
sVcypxh00
p2
I1
s.(dp0
Vd3ah1gi
p1
I1
sVcypxh00
p2
I1
s.(dp0
Vd3cdgkd
p1
I1
sVcypxh00
p2
I1
s.(dp0
Vd3cdgkd
p1
I1
sVcypxh00
p2
I1
s.(dp0
Vd3fr8an
p1
I1
sVcypxh00
p2
I1
s.(dp0
Vd3fwo5a
p1
I1
sVcypxh00
p2
I1
s.(dp0
Vd3pnj50
p1
I1
sVcypxh00
p2
I1
s.(dp0
Vd3uuggc
p1
I1
sVcypxh00
p2
I1
s.(dp0
Vd3zpmna
p1
I1
sVcypxh00
p2
I1
s.(dp0
Vd41hhve
p1
I1
sVcypxh00
p2
I1
s.(dp0
Vd43lq53
p1
I1
sVcypxh00
p2
I1
s.(dp0
Vd45mksu
p1
I1
sVcypxh00
p2
I1
s.(dp0
Vd45mksu
p1
I1
sVcypxh00
p2
I1
s.(dp0
Vd4k7m06
p1
I1
sVcypxh00
p2
I1
s.(dp0
Vd4rg2pm
p1
I1
sVcypxh00
p2
I1
s.(dp0
Vd4utqm5
p1
I1
sVcypxh00
p2
I1
s.(dp0
Vd4v7t8h
p1
I1
sVcypxh00
p2
I1
s.(dp0
Vd55qbhz
p1
I1
sVcypxh00
p2
I1
s.(dp0
Vd55qbhz
p1
I1
sVcypxh00
p2
I1
s.(dp0
Vd5ffrsu
p1
I1
sVcypxh00
p2
I1
s.(dp0
Vd5mkonn
p1
I1
sVcypxh00
p2
I1
s.(dp0
Vd5n4r4e
p1
I1
sVcypxh00
p2
I1
s.(dp0
Vd5o4ea8
p1
I1
sVcypxh00
p2
I1
s.(dp0
Vd5otiq6
p1
I1
sVcypxh00
p2
I1
s.(dp0
Vd5tjq4b
p1
I1
sVcypxh00
p2
I1
s.(dp0
Vd5ud92g
p1
I1
sVcypxh00
p2
I1
s.(dp0
Vd5zi27h
p1
I1
sVcypxh00
p2
I1
s.(dp0
Vd62a4zc
p1
I1
sVcypxh00
p2
I1
s.(dp0
Vd63mmeo
p1
I1
sVcypxh00
p2
I1
s.(dp0
Vd6aroqa
p1
I1
sVcypxh00
p2
I1
s.(dp0
Vd6bg6g8
p1
I1
sVcypxh00
p2
I1
s.(dp0
Vd6h7gmr
p1
I1
sVcypxh00
p2
I1
s.(dp0
Vd6ha0jo
p1
I1
sVcypxh00
p2
I1
s.(dp0
Vd6rlban
p1
I1
sVcypxh00
p2
I1
s.(dp0
Vd6y9fwc
p1
I1
sVcypxh00
p2
I1
s.(dp0
Vd6ydl5g
p1
I1
sVcypxh00
p2
I1
s.(dp0
Vd73fgjo
p1
I1
sVcypxh00
p2
I1
s.(dp0
Vd740xwr
p1
I1
sVcypxh00
p2
I1
s.(dp0
Vd7(dp0
Vdt35c02
p1
I1
sVcypxh00
p2
I1
s.