(dp0
Vcytsxms
p1
I1
s.(dp0
Vcytsxms
p1
I1
sVd0j30df
p2
I1
s.(dp0
Vcytsxms
p1
I1
sVdafjzfd
p2
I1
s.(dp0
Vcytsxms
p1
I1
sVdfvttf3
p2
I1
s.(dp0
Vcytsxms
p1
I1
sVdh158ja
p2
I1
s.(dp0
Vcytsxms
p1
I1
sVdhylw1u
p2
I1
s.(dp0
Vcytsxms
p1
I1
sVdq1bkre
p2
I1
s.