(dp0
Vdkpt9wk
p1
I1
sVdeo2kvz
p2
I1
sVd8bpt3h
p3
I1
sVd2pv4l5
p4
I1
sVdp7pj9g
p5
I2
sVd20x6oa
p6
I1
sVdbggpfu
p7
I1
sVd8br5rj
p8
I1
sVdn6zd3c
p9
I1
sVd2pv17w
p10
I1
sVd8pybxg
p11
I1
sVdfvttf3
p12
I1
sVdkpto99
p13
I1
sVd1s2tbe
p14
I1
sVd0hdjx9
p15
I1
sVd2fru3o
p16
I2
s.