(dp0
Vczq7uzp
p1
I1
sVd2dkw4l
p2
I1
sVds2u0t0
p3
I1
sVdjlgf1w
p4
I1
sVdg4jj3e
p5
I1
sVdflwds6
p6
I1
sVdkr33nl
p7
I1
sVd0g3enj
p8
I2
sVd12yo14
p9
I1
sVd9v9npl
p10
I2
sVdiqee9l
p11
I1
sVd0g7myt
p12
I1
sVddy4xx2
p13
I1
sVd4xotam
p14
I1
sVcytnuv1
p15
I1
sVdstp80j
p16
I1
sVd7jaokx
p17
I1
sVcz7yrk8
p18
I1
sVd1g2k89
p19
I1
sVde1zawq
p20
I1
sVdap8nnz
p21
I1
sVd3gt6pf
p22
I1
sVdaerjzb
p23
I1
sVde8mdbg
p24
I1
sVdbp3u6f
p25
I1
sVdjelen2
p26
I1
sVd0jgpww
p27
I1
sVdfyj9dh
p28
I1
sVczvq7p4
p29
I1
sVd9268if
p30
I1
sVdauc4b5
p31
I2
sVdpwkfm3
p32
I1
sVdnkelbq
p33
I1
sVdb8tgoq
p34
I1
sVd1bmzdf
p35
I1
sVdnumbmc
p36
I1
sVdjwnrwb
p37
I1
sVdjfwt8y
p38
I1
sVd7hp7f6
p39
I1
sVcz68p94
p40
I1
sVdfsyc18
p41
I1
sVd1hp2mc
p42
I1
sVd85ypb4
p43
I3
sVd1w56yu
p44
I1
sVczzetyi
p45
I1
sVdsx9ss1
p46
I1
sVdk15577
p47
I2
sVdn6x8y5
p48
I1
sVd2kuyql
p49
I1
sVd817bh7
p50
I1
sVdbxekfe
p51
I1
sVd0fj9a5
p52
I1
sVdc5p09r
p53
I1
sVdddkxl5
p54
I1
sVdcedx8v
p55
I1
sVczg2t2b
p56
I1
sVdh1iby6
p57
I1
sVd9n3wgj
p58
I1
sVdrnrpej
p59
I1
sVcyw2egs
p60
I1
sVd70pzxg
p61
I1
sVd4bzdnp
p62
I1
sVdmzqua8
p63
I1
sVdidu9pm
p64
I1
sVdjy9g7q
p65
I1
sVddp3424
p66
I1
sVdbe4lrn
p67
I1
sVd5626mj
p68
I1
sVd9427x0
p69
I1
sVd3apepd
p70
I1
sVdel764p
p71
I1
sVdit92sd
p72
I1
sVcyncxwh
p73
I1
sVcylkb59
p74
I1
sVdgzyuh9
p75
I1
sVddvumsj
p76
I1
sVd4xv0y7
p77
I1
sVczq7gqd
p78
I1
sVdfj2jnb
p79
I1
sVde8l8kn
p80
I1
sVdfgq0t4
p81
I1
sVdf5f892
p82
I1
sVddy2n7z
p83
I1
sVd6013cy
p84
I1
sVd5bbaxu
p85
I1
sVd623044
p86
I1
sVdk7g7mq
p87
I1
sVd4hry7o
p88
I1
sVdg79n0q
p89
I1
sVdefkjyf
p90
I1
sVd1jpnhe
p91
I2
sVd7z1hin
p92
I1
sVdrz8q0z
p93
I1
sVd0nrm47
p94
I1
sVddc9774
p95
I1
sVddwzmtt
p96
I1
sVddpyt5d
p97
I1
sVdbw84pl
p98
I2
sVde3tyfh
p99
I1
sVdd3j8hp
p100
I1
sVd6hzq4j
p101
I1
sVdmf7lee
p102
I1
sVdgaqsty
p103
I1
sVdi0rolz
p104
I1
sVdfynb08
p105
I1
sVdjrh3g3
p106
I1
sVczl22u8
p107
I1
sVdid4pwa
p108
I1
sVdg4g6i7
p109
I1
sVdhqhusm
p110
I1
sVd8f8c5i
p111
I1
sVdo4i36m
p112
I1
sVdggi0tm
p113
I1
sVd5a4n4y
p114
I1
sVd2xdw12
p115
I1
sVd9ogmlo
p116
I1
sVd6f7e64
p117
I1
sVd43oth9
p118
I1
sVdelawd7
p119
I1
sVdsswnsr
p120
I1
sVdch6vlf
p121
I1
sVdc3l425
p122
I1
sVd19flcu
p123
I1
sVd0yocbz
p124
I1
sVd11ks0i
p125
I1
sVdajfbah
p126
I1
sVd4bllz1
p127
I1
sVd89bi95
p128
I1
sVd95ltoq
p129
I2
sVdceilxz
p130
I1
sVdieatwp
p131
I1
sVdc0xxhq
p132
I1
sVddugbmr
p133
I1
sVds96eso
p134
I1
sVdc967cy
p135
I1
sVdkhcxz4
p136
I1
sVd74mp8b
p137
I1
sVcz6zwhy
p138
I1
sVdfprstm
p139
I1
sVdfl8xq3
p140
I1
sVdmepxto
p141
I1
sVdna9qyx
p142
I1
sVdb56k3q
p143
I1
sVdbmp266
p144
I1
sVd6qjelp
p145
I1
sVd3eoxgs
p146
I1
sVdmuji3r
p147
I1
sVd2c1sef
p148
I1
sVcze5czr
p149
I1
sVdd3able
p150
I1
sVd0vus97
p151
I1
sVd1vlbnn
p152
I2
sVd0u88g2
p153
I1
sVczxz0a1
p154
I1
sVd1603os
p155
I2
sVd54p6sl
p156
I1
sVcyuuyh0
p157
I1
sVd2149zn
p158
I1
sVdkjh4a5
p159
I2
sVdgbb3ue
p160
I1
sVddhf8bu
p161
I1
sVdqap8yi
p162
I1
sVczqcrf5
p163
I1
sVd3if2o6
p164
I1
sVd202yps
p165
I1
sVd9p2m22
p166
I1
sVd6zwsjp
p167
I1
sVd1pbzlp
p168
I1
sVd4s7a20
p169
I1
sVd2ptlm0
p170
I1
sVdg24vgw
p171
I1
sVde6xogk
p172
I1
sVd915cn0
p173
I1
sVd3dyk4b
p174
I1
sVd6hcx19
p175
I1
sVdoj9xo5
p176
I1
sVdmkwujq
p177
I1
sVdf3rztj
p178
I1
sVdpu08im
p179
I1
sVd628xbq
p180
I1
sVddc9l4q
p181
I1
sVd8j8fns
p182
I1
sVd33rqvg
p183
I5
sVd1p79ha
p184
I1
sVdezj43g
p185
I1
sVd2gxd1b
p186
I1
sVd77g09g
p187
I2
sVd2y8itt
p188
I1
sVd623rgo
p189
I2
sVd4nosf9
p190
I1
sVdnqpvh1
p191
I1
sVd1riode
p192
I1
sVdirkgfv
p193
I1
sVczao4of
p194
I1
sVdjyzjbx
p195
I1
sVddyafi7
p196
I1
sVd8rqjph
p197
I1
sVdcyaqjb
p198
I1
sVd2zl0g9
p199
I1
sVdczbh8z
p200
I1
sVd5vpmnd
p201
I1
sVdbs8moj
p202
I1
sVdmh06t6
p203
I2
sVd743uz4
p204
I1
sVd4imj4b
p205
I1
sVcyi9rur
p206
I1
sVd86mdn3
p207
I1
sVddu40k7
p208
I1
sVcyws2f7
p209
I1
sVdhuu3k4
p210
I1
sVdbspxch
p211
I2
sVdclz7rp
p212
I1
sVdgzd1sj
p213
I1
sVd3mcmzt
p214
I1
sVdae01mp
p215
I2
sVdf387vs
p216
I1
sVd9hao70
p217
I1
sVdnwhkdw
p218
I1
sVdmqd893
p219
I1
sVd8arf3l
p220
I1
sVdges7d0
p221
I1
sVd4bnkwb
p222
I1
sVdghfdwp
p223
I1
sVd5btpnh
p224
I1
sVczb25ol
p225
I2
sVdn4kn81
p226
I1
sVd1er6j6
p227
I1
sVd42xwdh
p228
I1
sVda5je0k
p229
I1
sVdi16pdn
p230
I2
sVdez5k6y
p231
I1
sVd0buxj4
p232
I1
sVd0j5u8r
p233
I1
sVdgqk5d4
p234
I1
sVdqflncn
p235
I1
sVcyjb2xa
p236
I1
sVcz0oypp
p237
I1
sVddg9kaf
p238
I1
sVd3l5r5h
p239
I1
sVcztdqi6
p240
I1
sVdjrssqa
p241
I1
sVdf1vie7
p242
I1
sVdmfu8da
p243
I1
sVd5nbinp
p244
I1
sVd7ypc7k
p245
I1
sVd5bds8q
p246
I1
sVd95csle
p247
I1
sVd0u20ts
p248
I1
sVd049q4m
p249
I1
sVczg8vbv
p250
I1
sVd9gge7c
p251
I1
sVd11cpwv
p252
I1
sVdnx7w3l
p253
I1
sVdmgyq10
p254
I1
sVdbbwc3a
p255
I1
sVd3i43pq
p256
I1
sVd7rilzo
p257
I1
sVdpt28f7
p258
I1
sVdi2z3dl
p259
I1
sVdgd14l2
p260
I1
sVd3hewcf
p261
I1
sVddz3yhr
p262
I1
sVd9kcvfi
p263
I1
sVdfxnm8b
p264
I1
sVd5d0so0
p265
I1
sVd8jhazm
p266
I1
sVdbs6f4r
p267
I1
sVdt2codc
p268
I2
sVdf64abb
p269
I1
sVczvykv9
p270
I1
sVddcy1ml
p271
I1
sVcz48f9r
p272
I1
sVddk4kpt
p273
I1
sVd45cwzf
p274
I1
sVd7ju7hd
p275
I1
sVda2uetz
p276
I1
sVd92y4f0
p277
I1
sVd9pxi7m
p278
I1
sVd0912zs
p279
I1
s.