(dp0
Vcykxxle
p1
I1
s.(dp0
Vcykxxle
p1
I1
sVcz9yp70
p2
I1
s.(dp0
Vcykxxle
p1
I1
sVd097e7y
p2
I1
s.(dp0
Vcykxxle
p1
I1
sVd0rcw70
p2
I1
s.(dp0
Vd1dk45w
p1
I1
sVcykxxle
p2
I1
s.(dp0
Vcykxxle
p1
I1
sVd1ius2p
p2
I1
s.(dp0
Vd28m0q9
p1
I1
sVcykxxle
p2
I1
s.(dp0
Vd2oa7pr
p1
I1
sVcykxxle
p2
I1
s.(dp0
Vcykxxle
p1
I1
sVd4esbip
p2
I1
s.(dp0
Vcykxxle
p1
I1
sVd5teqq4
p2
I1
s.(dp0
Vcykxxle
p1
I1
sVd5tog0h
p2
I1
s.(dp0
Vcykxxle
p1
I1
sVd66yffy
p2
I1
s.(dp0
Vd6994wx
p1
I1
sVcykxxle
p2
I1
s.(dp0
Vd6fvzra
p1
I1
sVcykxxle
p2
I1
s.(dp0
Vd6nt5hf
p1
I1
sVcykxxle
p2
I1
s.(dp0
Vd6o1f3r
p1
I1
sVcykxxle
p2
I1
s.(dp0
Vd6xz0b3
p1
I1
sVcykxxle
p2
I1
s.(dp0
Vd70vyyu
p1
I1
sVcykxxle
p2
I1
s.(dp0
Vd7fawtb
p1
I1
sVcykxxle
p2
I1
s.(dp0
Vcykxxle
p1
I1
sVd7s3lgs
p2
I1
s.(dp0
Vd88e1wf
p1
I1
sVcykxxle
p2
I1
s.(dp0
Vcykxxle
p1
I1
sVd8mxdu6
p2
I1
s.(dp0
Vd8rav9p
p1
I1
sVcykxxle
p2
I1
s.(dp0
Vd8rav9p
p1
I1
sVcykxxle
p2
I1
s.(dp0
Vcykxxle
p1
I1
sVd9br6ch
p2
I1
s.(dp0
Vcykxxle
p1
I1
sVd9br6ch
p2
I1
s.(dp0
Vd9zq8u7
p1
I1
sVcykxxle
p2
I1
s.(dp0
Vdas86qk
p1
I1
sVcykxxle
p2
I1
s.(dp0
Vdautv9f
p1
I1
sVcykxxle
p2
I1
s.(dp0
Vdb2ajt0
p1
I1
sVcykxxle
p2
I1
s.(dp0
Vdbc7tob
p1
I1
sVcykxxle
p2
I1
s.(dp0
Vdbfehc1
p1
I1
sVcykxxle
p2
I1
s.(dp0
Vcykxxle
p1
I1
sVdblo1pd
p2
I1
s.(dp0
Vdbm2iwu
p1
I1
sVcykxxle
p2
I1
s.(dp0
Vcykxxle
p1
I1
sVdc01j93
p2
I1
s.(dp0
Vdc5rly2
p1
I1
sVcykxxle
p2
I1
s.(dp0
Vddp04t3
p1
I1
sVcykxxle
p2
I1
s.(dp0
Vcykxxle
p1
I1
sVddx109i
p2
I1
s.(dp0
Vcykxxle
p1
I1
sVdfeiz15
p2
I1
s.(dp0
Vdg106k8
p1
I1
sVcykxxle
p2
I1
s.(dp0
Vdgezo5x
p1
I1
sVcykxxle
p2
I1
s.(dp0
Vdgezo5x
p1
I1
sVcykxxle
p2
I1
s.(dp0
Vdghrx3s
p1
I1
sVcykxxle
p2
I1
s.(dp0
Vcykxxle
p1
I1
sVdgtea87
p2
I1
s.(dp0
Vcykxxle
p1
I1
sVdhl0gnc
p2
I1
s.(dp0
Vdhzyzak
p1
I1
sVcykxxle
p2
I1
s.(dp0
Vdifnz0z
p1
I1
sVcykxxle
p2
I1
s.(dp0
Vcykxxle
p1
I1
sVdit68vb
p2
I1
s.(dp0
Vdivsaih
p1
I1
sVcykxxle
p2
I1
s.(dp0
Vdjlesni
p1
I1
sVcykxxle
p2
I1
s.(dp0
Vcykxxle
p1
I1
sVdkc23gz
p2
I1
s.(dp0
Vcykxxle
p1
I1
sVdklauj3
p2
I1
s.(dp0
Vdkypgmh
p1
I1
sVcykxxle
p2
I1
s.(dp0
Vdkz02jb
p1
I1
sVcykxxle
p2
I1
s.(dp0
Vdmx9gz2
p1
I1
sVcykxxle
p2
I1
s.(dp0
Vdn3mqw8
p1
I1
sVcykxxle
p2
I1
s.(dp0
Vdnepwys
p1
I1
sVcykxxle
p2
I1
s.(dp0
Vdnfvod7
p1
I1
sVcykxxle
p2
I1
s.(dp0
Vdnwpxfy
p1
I1
sVcykxxle
p2
I1
s.(dp0
Vcykxxle
p1
I1
sVdogy2gz
p2
I1
s.(dp0
Vcykxxle
p1
I1
sVdoknki1
p2
I1
s.(dp0
Vdp9j3df
p1
I1
sVcykxxle
p2
I1
s.(dp0
Vdqb53k1
p1
I1
sVcykxxle
p2
I1
s.(dp0
Vdqb53k1
p1
I1
sVcykxxle
p2
I1
s.(dp0
Vdqoprgv
p1
I1
sVcykxxle
p2
I1
s.(dp0
Vdrczmiv
p1
I1
sVcykxxle
p2
I1
s.(dp0
Vdt5mw98
p1
I1
sVcykxxle
p2
I1
s.(dp0
Vdtess3u
p1
I1
sVcykxxle
p2
I1
s.