(dp0
Vcyozkg1
p1
I1
sVdcu07ty
p2
I1
sVdqf4k9i
p3
I1
sVde6iibt
p4
I1
sVdcxty5d
p5
I2
sVd2cg257
p6
I2
sVdj4hpoa
p7
I1
sVd1hbhwa
p8
I1
sVd8qen39
p9
I2
sVd3askxa
p10
I1
sVdoj4mp3
p11
I1
sVdddopii
p12
I2
sVdg8i2ck
p13
I2
sVcynd5kg
p14
I1
sVddtbn9s
p15
I1
sVdcdjlwo
p16
I1
sVd6kill2
p17
I1
sVd64fnxq
p18
I1
sVd95manh
p19
I1
sVdknivlz
p20
I1
sVdfj40j1
p21
I1
sVd974ueb
p22
I1
sVd6aoec0
p23
I1
sVd0zqnw4
p24
I1
sVdbk9jub
p25
I1
sVdbs6b2o
p26
I1
sVd6xfx9y
p27
I1
sVd1ndex4
p28
I1
sVd5sln4e
p29
I1
sVdo2pvgb
p30
I3
sVdcxz3r6
p31
I1
sVd9ts30f
p32
I1
sVdrm3f6i
p33
I1
sVcys7jw1
p34
I2
sVdg8f939
p35
I1
sVdp5rfvz
p36
I2
sVdny44hy
p37
I1
sVdkko7fr
p38
I1
sVdbsfj24
p39
I1
sVdkkhfn0
p40
I1
sVcyzx33f
p41
I1
sVdjiwvkh
p42
I1
sVd03udiu
p43
I1
sVdkkjgn8
p44
I2
s.