(dp0
Vcz0z008
p1
I1
s.(dp0
Vcz48pyq
p1
I1
sVcz0z008
p2
I1
s.(dp0
Vcz0z008
p1
I1
sVcz4ej5k
p2
I1
s.(dp0
Vcz0z008
p1
I1
sVcz4slem
p2
I1
s.(dp0
Vcz0z008
p1
I1
sVcz63xu0
p2
I1
s.(dp0
Vcz0z008
p1
I1
sVcz9qjpq
p2
I1
s.(dp0
Vcz0z008
p1
I1
sVczqyds8
p2
I1
s.(dp0
Vcz0z008
p1
I1
sVczrn9ej
p2
I1
s.(dp0
Vczwxxcx
p1
I1
sVcz0z008
p2
I1
s.(dp0
Vd0fzszn
p1
I1
sVcz0z008
p2
I1
s.(dp0
Vcz0z008
p1
I1
sVd0gfupa
p2
I1
s.(dp0
Vd0kq1d2
p1
I1
sVcz0z008
p2
I1
s.(dp0
Vd0oc2fr
p1
I1
sVcz0z008
p2
I1
s.(dp0
Vcz0z008
p1
I1
sVd0vazk2
p2
I1
s.(dp0
Vcz0z008
p1
I1
sVd0vazk2
p2
I1
s.(dp0
Vcz0z008
p1
I1
sVd0w0usq
p2
I1
s.(dp0
Vcz0z008
p1
I1
sVd10prvr
p2
I1
s.(dp0
Vd13v62i
p1
I1
sVcz0z008
p2
I1
s.(dp0
Vd1aqvbf
p1
I1
sVcz0z008
p2
I1
s.(dp0
Vd1c9ls0
p1
I1
sVcz0z008
p2
I1
s.(dp0
Vcz0z008
p1
I1
sVd1dshgm
p2
I1
s.(dp0
Vd1fkc39
p1
I1
sVcz0z008
p2
I1
s.(dp0
Vcz0z008
p1
I1
sVd1hv3ps
p2
I1
s.(dp0
Vcz0z008
p1
I1
sVd1hwrgp
p2
I1
s.(dp0
Vd1tvus5
p1
I1
sVcz0z008
p2
I1
s.(dp0
Vd1tvus5
p1
I1
sVcz0z008
p2
I1
s.(dp0
Vcz0z008
p1
I1
sVd1xdo3o
p2
I1
s.(dp0
Vd20yt2h
p1
I1
sVcz0z008
p2
I1
s.(dp0
Vd2qb2qn
p1
I1
sVcz0z008
p2
I1
s.(dp0
Vd2sm0wo
p1
I1
sVcz0z008
p2
I1
s.(dp0
Vd3598f2
p1
I1
sVcz0z008
p2
I1
s.(dp0
Vd3dcn30
p1
I1
sVcz0z008
p2
I1
s.(dp0
Vd3djiaj
p1
I1
sVcz0z008
p2
I1
s.(dp0
Vcz0z008
p1
I1
sVd3dokrd
p2
I1
s.(dp0
Vd3edj6r
p1
I1
sVcz0z008
p2
I1
s.(dp0
Vcz0z008
p1
I1
sVd3edyt0
p2
I1
s.(dp0
Vd3oviws
p1
I1
sVcz0z008
p2
I1
s.(dp0
Vcz0z008
p1
I1
sVd44nf1b
p2
I1
s.(dp0
Vcz0z008
p1
I1
sVd44rmmj
p2
I1
s.(dp0
Vcz0z008
p1
I1
sVd492v5t
p2
I1
s.(dp0
Vd4b12zx
p1
I1
sVcz0z008
p2
I1
s.(dp0
Vd4ibe9w
p1
I1
sVcz0z008
p2
I1
s.(dp0
Vcz0z008
p1
I1
sVd4ohq5m
p2
I1
s.(dp0
Vcz0z008
p1
I1
sVd4sc5ih
p2
I1
s.(dp0
Vd5cmx7a
p1
I1
sVcz0z008
p2
I1
s.(dp0
Vd5iuqxe
p1
I1
sVcz0z008
p2
I1
s.(dp0
Vcz0z008
p1
I1
sVd5j7h7x
p2
I1
s.(dp0
Vd6bj86u
p1
I1
sVcz0z008
p2
I1
s.(dp0
Vcz0z008
p1
I1
sVd6rk5hz
p2
I1
s.(dp0
Vcz0z008
p1
I1
sVd715ve8
p2
I1
s.(dp0
Vcz0z008
p1
I1
sVd72v92j
p2
I1
s.(dp0
Vcz0z008
p1
I1
sVd72v92j
p2
I1
s.(dp0
Vcz0z008
p1
I1
sVd72v92j
p2
I1
s.(dp0
Vd7eurpe
p1
I1
sVcz0z008
p2
I1
s.(dp0
Vcz0z008
p1
I1
sVd7mt4s7
p2
I1
s.(dp0
Vd7qheba
p1
I1
sVcz0z008
p2
I1
s.(dp0
Vd7ukto3
p1
I1
sVcz0z008
p2
I1
s.(dp0
Vcz0z008
p1
I1
sVd7ygs4r
p2
I1
s.(dp0
Vd8347me
p1
I1
sVcz0z008
p2
I1
s.(dp0
Vcz0z008
p1
I1
sVd86mdn3
p2
I1
s.(dp0
Vd8c0mfm
p1
I1
sVcz0z008
p2
I1
s.(dp0
Vd8scers
p1
I1
sVcz0z008
p2
I1
s.(dp0
Vd92ylrw
p1
I1
sVcz0z008
p2
I1
s.(dp0
Vd95h1bt
p1
I1
sVcz0z008
p2
I1
s.(dp0
Vcz0z008
p1
I1
sVd9c2u0f
p2
I1
s.(dp0
Vd9dsvu4
p1
I1
sVcz0z008
p2
I1
s.(dp0
Vd9u0f5o
p1
I1
sVcz0z008
p2
I1
s.(dp0
Vd9yidur
p1
I1
sVcz0z008
p2
I1
s.(dp0
Vda0vt23
p1
I1
sVcz0z008
p2
I1
s.(dp0
Vda80vvs
p1
I1
sVcz0z008
p2
I1
s.(dp0
Vdavax0h
p1
I1
sVcz0z008
p2
I1
s.(dp0
Vdavax0h
p1
I1
sVcz0z008
p2
I1
s.(dp0
Vdavax0h
p1
I1
sVcz0z008
p2
I1
s.(dp0
Vdavax0h
p1
I1
sVcz0z008
p2
I1
s.(dp0
Vdavgvc9
p1
I1
sVcz0z008
p2
I1
s.(dp0
Vcz0z008
p1
I1
sVdawj4mx
p2
I1
s.(dp0
Vdb5x3fe
p1
I1
sVcz0z008
p2
I1
s.(dp0
Vcz0z008
p1
I1
sVdbbwqye
p2
I1
s.(dp0
Vdbq5k45
p1
I1
sVcz0z008
p2
I1
s.(dp0
Vdbz3luh
p1
I1
sVcz0z008
p2
I1
s.(dp0
Vcz0z008
p1
I1
sVdc0pi28
p2
I1
s.(dp0
Vdc0zd5o
p1
I1
sVcz0z008
p2
I1
s.(dp0
Vdc4af4o
p1
I1
sVcz0z008
p2
I1
s.(dp0
Vcz0z008
p1
I1
sVdc7utlq
p2
I1
s.(dp0
Vdc88kpi
p1
I1
sVcz0z008
p2
I1
s.(dp0
Vdc8uuk8
p1
I1
sVcz0z008
p2
I1
s.(dp0
Vdcj35y8
p1
I1
sVcz0z008
p2
I1
s.(dp0
Vcz0z008
p1
I1
sVdcu0xbw
p2
I1
s.(dp0
Vcz0z008
p1
I1
sVdcudlxp
p2
I1
s.(dp0
Vdd89cxe
p1
I1
sVcz0z008
p2
I1
s.(dp0
Vdd8ctd7
p1
I1
sVcz0z008
p2
I1
s.(dp0
Vde7zyd3
p1
I1
sVcz0z008
p2
I1
s.(dp0
Vde9dnp3
p1
I1
sVcz0z008
p2
I1
s.(dp0
Vdeaq0mh
p1
I1
sVcz0z008
p2
I1
s.(dp0
Vcz0z008
p1
I1
sVdef3dc8
p2
I1
s.(dp0
Vdempr4d
p1
I1
sVcz0z008
p2
I1
s.(dp0
Vdeq7zjp
p1
I1
sVcz0z008
p2
I1
s.(dp0
Vdf7oo66
p1
I1
sVcz0z008
p2
I1
s.(dp0
Vcz0z008
p1
I1
sVdfgszau
p2
I1
s.(dp0
Vcz0z008
p1
I1
sVdfnml0r
p2
I1
s.(dp0
Vcz0z008
p1
I1
sVdfuk80w
p2
I1
s.(dp0
Vcz0z008
p1
I1
sVdg2w8oy
p2
I1
s.(dp0
Vcz0z008
p1
I1
sVdg2w8oy
p2
I1
s.(dp0
Vcz0z008
p1
I1
sVdg5rvft
p2
I1
s.(dp0
Vdgyylom
p1
I1
sVcz0z008
p2
I1
s.(dp0
Vdgz5q7c
p1
I1
sVcz0z008
p2
I1
s.(dp0
Vdgziye7
p1
I1
sVcz0z008
p2
I1
s.(dp0
Vdgzszve
p1
I1
sVcz0z008
p2
I1
s.(dp0
Vdh(dp0
Vdslb17x
p1
I1
sVcz0z008
p2
I1
s.