(dp0
Vd9zfw6q
p1
I1
sVdim1i1j
p2
I1
sVdpodbhy
p3
I3
sVd14rhxz
p4
I1
sVd48iv7a
p5
I1
sVd9ysnla
p6
I1
sVdhlhmvt
p7
I1
sVd9yr7qw
p8
I1
sVdilxifu
p9
I1
sVdc18w32
p10
I3
sVdcx111v
p11
I1
sVdim1uia
p12
I1
sVd984fz5
p13
I1
sVczhl3tk
p14
I2
sVd01m4o4
p15
I1
sVd6tb0oz
p16
I1
sVdpoex1l
p17
I1
sVdiy6bb1
p18
I1
sVdim0pg2
p19
I1
sVd70ny5h
p20
I1
sVd9yiqgi
p21
I1
sVdsdsyc3
p22
I1
sVdilzk9l
p23
I1
sVdim1lev
p24
I1
sVd6hoorn
p25
I1
sVdhpteep
p26
I1
sVd14r9q0
p27
I2
sVd7t75ak
p28
I2
sVd6tcqrx
p29
I2
sVczcc3ih
p30
I1
sVdercdo5
p31
I1
sVdim3871
p32
I2
sVdhb7utf
p33
I3
sVd0sloh3
p34
I1
sVdix55c7
p35
I3
sVdfszgzb
p36
I2
sVdbji6r2
p37
I1
sVdb58gvs
p38
I1
sVdilvvxl
p39
I2
sVdiuyncc
p40
I2
sVdpoctde
p41
I2
sVditss9s
p42
I1
sVcztmg6q
p43
I1
sVd14r8wj
p44
I2
sVd3lh2v1
p45
I1
sVd0yrvpj
p46
I1
sVdj4v8at
p47
I1
sVd4ggy5r
p48
I1
sVdcn6upg
p49
I1
sVdei69po
p50
I1
sVd7keheg
p51
I1
sVdjccay6
p52
I2
sVd9b2419
p53
I1
sVd20g790
p54
I1
sVd6xe2mm
p55
I2
sVd57y3yo
p56
I1
sVda3vuxa
p57
I1
sVd6p0tv5
p58
I1
sVdrhoeoc
p59
I1
sVcz8gvag
p60
I1
sVdim10l1
p61
I10
sVd1t3gm4
p62
I1
sVd3k9vw2
p63
I1
sVdim3op3
p64
I8
sVd1w9jb1
p65
I4
sVd1l4p92
p66
I1
sVd3fic3j
p67
I1
sVdg89fbm
p68
I1
sVd8x3l1k
p69
I1
sVdaq4ru7
p70
I1
sVd1imt7k
p71
I2
sVd1y9836
p72
I1
sVddus25x
p73
I1
sVd3fbzo1
p74
I3
sVdq1oriy
p75
I1
sVd7qxy7b
p76
I1
sVdim29om
p77
I1
sVd30ssg5
p78
I1
sVcywqrlk
p79
I1
sVd47u0vb
p80
I2
sVda3igoc
p81
I1
sVdfyaflv
p82
I1
sVcyiuc1p
p83
I1
sVda9c4tg
p84
I1
sVdml5acr
p85
I1
sVdkf202a
p86
I1
sVdeoohgk
p87
I1
sVdc5lao9
p88
I1
sVd30qrxn
p89
I1
sVdml0a71
p90
I2
sVd9yta8n
p91
I1
sVcyrmfnz
p92
I1
sVdfgyfhb
p93
I2
sVdfi18yi
p94
I3
sVczjzijj
p95
I1
sVdk4z4hz
p96
I5
sVcyjhueb
p97
I1
sVdao2jma
p98
I2
sVda5ve7v
p99
I1
sVdil97wm
p100
I1
sVdim4a0m
p101
I2
sVd1gki7z
p102
I1
sVd47onpn
p103
I1
sVdhog4d8
p104
I1
sVdhgfih5
p105
I1
sVd5xs9cb
p106
I1
sVd38fk4b
p107
I2
sVdalgr5s
p108
I2
sVd8riy5e
p109
I1
sVde0warx
p110
I2
sVdjhd9ac
p111
I1
sVdiy650l
p112
I2
sVdidya1f
p113
I1
sVd9z6387
p114
I1
sVd2ljwhx
p115
I1
sVdsdt4ar
p116
I1
sVdjdz0ye
p117
I2
sVdg92udq
p118
I1
sVdhy4n37
p119
I1
sVd34kea6
p120
I1
sVdaa4tkm
p121
I3
sVdcy8yj5
p122
I2
sVd0ugp4i
p123
I1
sVd3s87an
p124
I1
sVczirqd5
p125
I1
sVd0ug2ae
p126
I3
sVdgdy75m
p127
I1
sVd9yjxle
p128
I1
sVd3ni31x
p129
I1
sVd0fsgux
p130
I3
sVd14rgeh
p131
I1
sVdik508a
p132
I1
sVd3k70ff
p133
I1
sVde394hb
p134
I3
sVdenl0ir
p135
I1
sVd3jdru1
p136
I1
sVd2gikdd
p137
I9
sVd9ywsvf
p138
I2
sVcyv0n1u
p139
I1
sVd9d94ol
p140
I3
sVdmnhztc
p141
I1
sVcypjkjh
p142
I1
sVd1c4an9
p143
I1
sVd14rcja
p144
I1
sVd11ofrw
p145
I1
sVdbk9hjy
p146
I1
sVdt3dyrg
p147
I1
sVd0lx190
p148
I1
sVddoty5i
p149
I1
sVdppsfwi
p150
I3
sVcz5misu
p151
I1
sVdiuzuza
p152
I1
sVd475xym
p153
I2
sVdfhumfy
p154
I1
sVdhtgzc5
p155
I3
sVdf6jrd5
p156
I2
sVdtent4e
p157
I1
sVd9zsxxy
p158
I1
sVd0rarwn
p159
I1
sVdb8t4xa
p160
I1
sVd14jrhc
p161
I1
sVd3k9o3l
p162
I2
sVdimqhjq
p163
I3
sVd486ykk
p164
I1
sVdsjg21s
p165
I2
sVd3j8yez
p166
I4
sVd0ug527
p167
I4
sVdml4efi
p168
I1
sVd1ffdnd
p169
I1
sVd9yzova
p170
I1
sVdn2i39p
p171
I1
sVd9p163y
p172
I1
sVd7jrpfd
p173
I1
sVdalfc22
p174
I1
sVd0pocrd
p175
I1
sVda3j6tu
p176
I1
sVdgfqjm6
p177
I1
sVd5wea0q
p178
I4
sVddwi553
p179
I1
sVd71iysu
p180
I1
sVd1impi7
p181
I1
sVd0rnftt
p182
I1
sVd3kc3qr
p183
I1
sVcyt3ta0
p184
I1
sVd79lyw5
p185
I1
sVd47p3mo
p186
I1
sVcztscky
p187
I1
sVdiqiozq
p188
I1
sVd1zptvh
p189
I1
sVczfxfn9
p190
I1
sVddrn1qs
p191
I1
sVd9zf55y
p192
I1
sVdi8bili
p193
I1
sVczzvqec
p194
I3
sVd8sqq02
p195
I1
sVd622pbb
p196
I1
sVdfhxz1l
p197
I1
sVd3jfojb
p198
I1
sVdn3nq06
p199
I1
sVd02azdp
p200
I1
sVdphffu9
p201
I1
sVdi22d1e
p202
I2
sVdiy7qtv
p203
I1
sVdccgzx4
p204
I1
sVdhpotyl
p205
I1
sVd9d5dt8
p206
I1
sVd3k9s8a
p207
I2
sVd8qvtif
p208
I1
sVd52ghut
p209
I1
sVd19xwqp
p210
I1
sVdeed70a
p211
I1
sVd8tha3b
p212
I1
sVdiprmvd
p213
I2
sVd1ajnoi
p214
I1
sVd031cq9
p215
I1
sVczmd9jg
p216
I1
sVdiy6do8
p217
I2
sVczn5txv
p218
I1
sVdml5xej
p219
I1
sVdilxulm
p220
I2
sVd9yhf2h
p221
I8
sVdj4xaq1
p222
I1
sVdfulqo4
p223
I1
sVd6aj5w7
p224
I1
sVdhb4s85
p225
I2
sVdbjc3tu
p226
I1
sVdilxz2b
p227
I1
sVdj9w1na
p228
I2
sVdqnbps5
p229
I2
sVdom606b
p230
I3
sVd1ffe9j
p231
I3
sVddw0ct3
p232
I1
sVd282sta
p233
I1
sVdeilavx
p234
I2
sVdhglx9d
p235
I1
sVdceilxz
p236
I1
sVd2h0ctf
p237
I1
sVd3812n0
p238
I1
sVd7h3rv8
p239
I1
sVd30tp8w
p240
I1
sVdk4p510
p241
I1
sVdi7zcqa
p242
I1
sVd1ty6rm
p243
I1
sVczx4e9a
p244
I1
sVcyolib3
p245
I3
sVd3n4wma
p246
I1
sVdi55jzu
p247
I5
sVd70o8vu
p248
I1
sVczzvvmu
p249
I1
sVdd70ybo
p250
I1
sVdtfwys6
p251
I1
sVdaejoax
p252
I2
sVdfnidk6
p253
I1
sVd00lfu6
p254
I1
sVdi635q3
p255
I4
sVdhgksar
p256
I5
sVdks2x6y
p257
I1
sVd30qvec
p258
I1
sVdi4rk0u
p259
I1
sVd9ywwg8
p260
I5
sVczb06i3
p261
I2
sVdb0to2m
p262
I1
sVd5eu30s
p263
I1
sVdj53m8t
p264
I4
sVd2wfha9
p265
I2
sVd7ruqyz
p266
I2
s.