(dp0
Vd1w5u4y
p1
I1
sVd59ztql
p2
I1
sVd18l5bm
p3
I1
sVd2tjdp8
p4
I1
sVcykacps
p5
I2
sVdd24jgf
p6
I1
sVd8mhaym
p7
I1
sVdj6n3vn
p8
I1
sVczropow
p9
I1
sVdb8g6yq
p10
I1
sVd1fy7fe
p11
I1
sVcynzut0
p12
I1
sVd6mkv2y
p13
I1
sVdkh2x53
p14
I1
sVdqdji54
p15
I2
sVdcby7qj
p16
I1
sVdgi2jst
p17
I1
sVdr6evjg
p18
I1
sVd8enzhc
p19
I1
sVczqzdmd
p20
I1
sVdgdj8tp
p21
I1
sVdeq6ogd
p22
I1
sVdfvkn51
p23
I1
sVd1603os
p24
I1
sVdaelyvr
p25
I1
sVd66ecxp
p26
I1
sVdjoq340
p27
I1
sVdfi18yi
p28
I1
sVd78q8xk
p29
I1
sVdsdv4kr
p30
I1
sVdo56gnk
p31
I1
sVd8zwhgh
p32
I1
sVdbroax6
p33
I1
sVdtastkt
p34
I1
sVd5f6nrw
p35
I1
sVd62brtj
p36
I1
sVd1qqyk4
p37
I1
sVddj14uf
p38
I2
sVdj688lc
p39
I1
sVd6c1bwd
p40
I1
sVd8zdusm
p41
I2
sVd104mbo
p42
I3
sVdoc2em5
p43
I1
sVd2vqee5
p44
I1
sVdc92gfd
p45
I2
sVdh7di4r
p46
I1
sVdtflkos
p47
I1
sVd8egkw0
p48
I1
sVdqe3s3h
p49
I1
sVd14uuqm
p50
I1
sVddokxfh
p51
I1
sVd2bm18a
p52
I1
sVdsza1hz
p53
I1
sVdbozzwt
p54
I1
sVdhnhfmy
p55
I1
sVd60tx7l
p56
I1
sVd8ic2ol
p57
I1
sVd5dskrc
p58
I1
sVdeteuo3
p59
I1
sVd7urgis
p60
I2
sVdbpmee4
p61
I1
sVdhevwj8
p62
I1
sVd08o8wa
p63
I1
sVdklbv7d
p64
I1
sVd7a87rz
p65
I1
sVd2kuwd0
p66
I1
sVd2cj8mk
p67
I1
sVd7m1vhu
p68
I1
sVd4ndwkg
p69
I1
s.