(dp0
Vdepxcmx
p1
I1
sVdhoyn0x
p2
I2
sVd7t528d
p3
I1
sVdg7ixzm
p4
I1
sVdge1z5h
p5
I1
sVd0rsqkd
p6
I1
sVd7bac70
p7
I1
sVd797m6r
p8
I1
sVd4i2mbw
p9
I1
sVdfl6osi
p10
I1
sVcziq4f0
p11
I1
sVd2j6rmu
p12
I1
s.