(dp0
Vd1q8kb0
p1
I1
sVdnb4bw7
p2
I1
sVdkyah27
p3
I1
sVdpgyz7j
p4
I2
sVd0mxzkf
p5
I1
sVdefyp8m
p6
I2
sVcyrwdw8
p7
I3
sVcza2nvj
p8
I2
sVdqeml39
p9
I1
sVdjsri3h
p10
I1
sVdi7a7gr
p11
I1
sVdefxzmb
p12
I1
sVdbaxntf
p13
I1
sVd2wu9fe
p14
I1
sVdk9dly9
p15
I1
sVd0kwjh1
p16
I1
sVd48z279
p17
I1
sVcz6amoi
p18
I1
sVd7mmltv
p19
I1
sVd5ggjyt
p20
I1
sVcz04x1v
p21
I1
sVd1ij9gs
p22
I1
sVds1suwb
p23
I1
sVd5i9k3w
p24
I3
sVcys9dz3
p25
I2
sVd80leh0
p26
I1
sVda3g8uc
p27
I2
sVdbrtwoe
p28
I1
sVdmjd0qw
p29
I1
sVd34n393
p30
I2
sVd4y5z2l
p31
I2
sVdkdazyf
p32
I1
sVdalqcv7
p33
I1
sVdn1zsud
p34
I1
sVd095dxh
p35
I1
sVdd83z96
p36
I1
sVd1xc0r7
p37
I3
sVczjupu9
p38
I1
sVdqhjfim
p39
I1
sVdjtsc6k
p40
I1
sVcyz9de5
p41
I1
sVd11sxqu
p42
I1
sVd0kxdn7
p43
I1
s.