(dp0
Vd22mcsr
p1
I1
sVdhnqrhb
p2
I1
sVdmkzsx1
p3
I1
sVdhs2v3e
p4
I1
sVdow7uix
p5
I1
sVdnikfzs
p6
I1
sVdji0zie
p7
I1
sVdh8ru6k
p8
I1
sVdkjgs6j
p9
I1
sVdjywtk3
p10
I1
sVdk6lwhw
p11
I1
sVdqh8ai6
p12
I1
sVddz40v8
p13
I1
sVd8yy5wd
p14
I2
sVdr49nhn
p15
I1
sVdrdmtp7
p16
I1
sVdqbsq3h
p17
I2
sVdg8ftw4
p18
I1
sVd415ola
p19
I1
sVd6abc7e
p20
I2
s.