(dp0
Vcz3fftr
p1
I1
s.(dp0
Vczwexb4
p1
I1
sVcz3fftr
p2
I1
s.(dp0
Vd1uzjwd
p1
I1
sVcz3fftr
p2
I1
s.(dp0
Vd4r9w9s
p1
I1
sVcz3fftr
p2
I1
s.(dp0
Vdbgyw1g
p1
I1
sVcz3fftr
p2
I1
s.(dp0
Vdbgyw1g
p1
I1
sVcz3fftr
p2
I1
s.(dp0
Vdfl7mvz
p1
I1
sVcz3fftr
p2
I1
s.