(dp0
Vdh1uj83
p1
I1
sVd6esfzx
p2
I1
sVdqamggo
p3
I1
sVd3weyh0
p4
I1
sVdewupej
p5
I1
sVdai0lk1
p6
I1
sVd7id961
p7
I1
sVd4f1j9c
p8
I1
sVdih4oa5
p9
I1
sVd0obwxn
p10
I1
sVd5ec25c
p11
I1
sVd4d6we1
p12
I1
sVd1lwh37
p13
I1
sVd7tbxqs
p14
I1
sVcztt73x
p15
I1
sVcz1fvf6
p16
I1
sVdcjfjux
p17
I1
sVd59f4wh
p18
I1
sVdmipj8n
p19
I1
sVdfkep28
p20
I1
sVdppuihe
p21
I1
sVdd0dxmw
p22
I1
sVd544y6x
p23
I1
sVcyxfyvi
p24
I2
sVdkosjy3
p25
I1
sVdb7rcsb
p26
I1
sVd1us3my
p27
I1
sVd4v9l4q
p28
I1
sVdkkgss1
p29
I1
sVd0qvtc0
p30
I1
sVd10gile
p31
I1
sVd6eopyq
p32
I1
sVda1vfsf
p33
I1
sVdaa36f6
p34
I1
sVdk4p38w
p35
I3
sVdj04a9w
p36
I1
sVddgvbia
p37
I1
sVd5gme2q
p38
I1
sVdfeayay
p39
I1
sVcz1vnxo
p40
I1
sVdey7013
p41
I1
sVd0z4auu
p42
I1
sVd0shm4n
p43
I1
sVdgejbrj
p44
I1
sVdcmcmgk
p45
I1
sVd9pgxxi
p46
I1
sVd89l1es
p47
I1
sVdei4pvo
p48
I1
sVd6yy8wk
p49
I1
sVdqyshd7
p50
I3
sVdhjbdz5
p51
I1
sVdn5xk9m
p52
I2
sVd5swvit
p53
I2
sVdq3ktv4
p54
I1
sVdc6ygtn
p55
I1
sVds2puzd
p56
I1
sVcylhqfe
p57
I1
sVd3i14kp
p58
I1
sVdbvzfhk
p59
I1
sVd0bmanu
p60
I1
sVd2k614c
p61
I1
sVdfzvnwq
p62
I1
sVd3jbi5r
p63
I1
sVd0ei6zf
p64
I1
sVd25m1hn
p65
I1
sVd1o6ole
p66
I1
sVd9zpwqw
p67
I3
sVd22mcsr
p68
I1
sVczxfr2k
p69
I1
sVd1u3su0
p70
I1
sVdbtixiu
p71
I1
sVddex64f
p72
I1
sVd52esrc
p73
I1
sVda6yovx
p74
I2
sVdndm9am
p75
I1
sVd7iqy06
p76
I1
sVdspfwp5
p77
I1
sVd061uzn
p78
I1
sVd18pjmq
p79
I1
sVd097ooh
p80
I1
sVd1xpqze
p81
I2
sVdatuey2
p82
I1
sVdb0nukg
p83
I1
sVd40rta5
p84
I1
sVdknb3s0
p85
I2
sVcytdv13
p86
I1
sVd7vnxxd
p87
I1
sVd4k01p1
p88
I1
sVczks72d
p89
I1
sVdbi56wz
p90
I1
sVd1v5ugp
p91
I1
sVd12j3b3
p92
I1
sVd24l7p3
p93
I1
sVczhzppn
p94
I1
sVd2bo87k
p95
I1
sVdi865t6
p96
I1
sVd2a84qv
p97
I1
sVd01csx7
p98
I1
sVd792xa6
p99
I1
sVdi7dd6k
p100
I1
sVdnydufk
p101
I1
sVdnro3nd
p102
I2
sVd0x9bkc
p103
I1
sVcyznlfl
p104
I2
sVdbdqv1k
p105
I1
sVdq5xfky
p106
I1
sVdhnyxoc
p107
I2
sVdami57t
p108
I1
sVd9r1sxo
p109
I1
sVd231jsf
p110
I3
sVd8ldgca
p111
I3
sVd1k27ra
p112
I1
sVd4r33jb
p113
I1
sVdfs9uox
p114
I1
sVdqgssfx
p115
I1
sVdje2a98
p116
I1
sVd891q5x
p117
I2
sVd5emsu3
p118
I1
sVd3at9zq
p119
I1
sVd0jyzq7
p120
I1
sVd2k43ek
p121
I1
sVdp8gfxu
p122
I1
sVdcsh09h
p123
I1
sVczh7nj0
p124
I1
sVdcbyx63
p125
I1
sVd9r20mh
p126
I1
sVdp8w0oa
p127
I1
sVdano30o
p128
I1
sVdjc0yw0
p129
I1
sVde0xv5z
p130
I1
sVd809u0n
p131
I1
sVd8qdrha
p132
I1
sVdpvcv28
p133
I1
sVd6tcr6j
p134
I1
sVdh4yrpi
p135
I1
sVdcbgsi7
p136
I1
sVdd7ohs7
p137
I2
sVde3sfex
p138
I2
sVd2oenzj
p139
I1
sVd7vo6fi
p140
I1
sVd6k8vg8
p141
I1
sVd3x4eee
p142
I1
sVdf4gq18
p143
I2
sVdd5uym3
p144
I1
sVd7ysiyq
p145
I1
sVdffbjvo
p146
I1
sVdaaz9rm
p147
I1
sVd1qacsi
p148
I1
sVd87575a
p149
I1
sVdn9mf5m
p150
I1
sVdcu9l6z
p151
I1
sVdg43cq5
p152
I1
sVds416wz
p153
I1
sVdmovvh0
p154
I1
sVczyxszu
p155
I1
sVdeq9jdp
p156
I1
sVcyiianv
p157
I1
sVcyjv2q8
p158
I1
sVdd6jmm2
p159
I1
sVdka12vk
p160
I1
sVdfojt9y
p161
I1
sVd3bc1xo
p162
I1
sVdhro92s
p163
I1
sVd0hy9mt
p164
I1
sVd31fvci
p165
I1
sVd8cllpx
p166
I1
sVd1c9v0h
p167
I1
sVdnvvq56
p168
I1
sVd5avlo6
p169
I1
sVd63ytn7
p170
I1
sVdet9y96
p171
I1
sVdeenhli
p172
I2
sVcyi6fsq
p173
I1
sVdso5f5v
p174
I1
sVd62pzfk
p175
I1
sVd5yhhg7
p176
I2
sVd5dmrdy
p177
I1
sVdfcgk5z
p178
I1
sVdkswd69
p179
I1
sVdognvw0
p180
I1
sVd78sky9
p181
I1
sVd4ys1ih
p182
I2
sVdmf88om
p183
I1
sVdj8iyrn
p184
I1
sVdpnkjr5
p185
I1
sVdclmtg7
p186
I1
sVcz7hdee
p187
I1
sVdc7nri7
p188
I1
sVcyid2tj
p189
I1
sVd8yy75b
p190
I1
sVd0hpwqz
p191
I1
sVczqvjx0
p192
I1
sVdbzzzgf
p193
I2
sVddi5w0x
p194
I1
sVdiyap5v
p195
I3
sVcz346e8
p196
I1
sVdgf3g73
p197
I1
sVdr6y2q6
p198
I1
sVdpyalbc
p199
I1
sVddm24fj
p200
I1
sVcyjnvec
p201
I1
sVdk96gly
p202
I1
sVdk4rfsw
p203
I1
sVdkpn3tp
p204
I1
sVd2p40p4
p205
I1
sVd3rz8cs
p206
I1
sVd7fijt4
p207
I2
sVdgtg621
p208
I2
sVd52mr72
p209
I1
sVcz310u0
p210
I1
sVdjz3qke
p211
I1
sVdha4zqz
p212
I1
sVdau8560
p213
I1
sVd17sj3n
p214
I1
sVdgr3rj7
p215
I1
sVdj523js
p216
I1
sVdczeer3
p217
I1
sVddtjq2x
p218
I1
sVddkpsbo
p219
I1
sVd54pxjj
p220
I2
sVd18n42x
p221
I1
sVd5w8d8u
p222
I1
sVdn45ncj
p223
I1
sVdproxnp
p224
I1
sVdqcjpcg
p225
I1
sVdh2d7rx
p226
I1
sVd3qvsh7
p227
I1
sVdji9c4o
p228
I1
sVdfl8yll
p229
I1
sVd3hiq0k
p230
I1
sVdiy5bs4
p231
I1
sVdosp2dj
p232
I1
sVd80ncll
p233
I1
sVdghtgi9
p234
I1
sVd36vt0r
p235
I1
sVd33vvit
p236
I1
sVd7crvjk
p237
I1
sVdd1ru7r
p238
I1
sVczktypc
p239
I1
sVdbh5ay1
p240
I1
sVdommda2
p241
I1
sVd85mqr6
p242
I1
sVdj8e3vc
p243
I1
sVd6he9pe
p244
I1
sVd70hgq5
p245
I1
sVd50g7xo
p246
I1
sVd1fey7j
p247
I1
sVd3weilk
p248
I1
sVd15p6l5
p249
I1
sVdcp1dz4
p250
I1
sVd4pt9ln
p251
I1
sVdku16j4
p252
I1
sVdb06v2x
p253
I1
sVd13zggk
p254
I1
sVddkqyo4
p255
I1
sVd19a3xy
p256
I1
sVcywwsfv
p257
I1
sVdfupf9j
p258
I1
sVdgqfe6s
p259
I1
sVdo5sdwi
p260
I1
sVdamo2qw
p261
I2
sVdnawgw0
p262
I1
sVdp7ci4c
p263
I1
sVd21wqwq
p264
I1
sVd1zptvh
p265
I1
sVcym4xqb
p266
I1
sVdgcsd4l
p267
I1
sVd7lgtcl
p268
I1
sVdacq726
p269
I1
sVcyq4144
p270
I1
sVd2c009g
p271
I1
sVdedsngv
p272
I1
sVdnm606d
p273
I1
sVd00jzgf
p274
I1
sVdhisitq
p275
I2
sVdrbak2m
p276
I1
sVdet2l79
p277
I1
sVdk00rm2
p278
I2
sVd6tzczn
p279
I1
sVdd5y5vv
p280
I1
sVdpvoc1o
p281
I1
sVdflz74d
p282
I2
sVd1gkbcl
p283
I1
sVdnv0dmx
p284
I1
sVdn6diqg
p285
I1
sVd1ofwbt
p286
I1
sVdex7r26
p287
I1
sVdmfmfbp
p288
I1
sVd478e8f
p289
I1
sVdkasrlj
p290
I2
sVd7bzkdb
p291
I1
sVczyykzn
p292
I1
sVdeqcb5q
p293
I1
sVdhdnhk4
p294
I1
sVdo4an8o
p295
I1
sVdqqmpd3
p296
I1
sVdj7d3iy
p297
I1
sVd8d596v
p298
I1
sVdg1t637
p299
I1
sVdcuc3ye
p300
I1
sVd8xhc3o
p301
I1
sVcykglk2
p302
I2
sVddhpr04
p303
I1
sVdhrk3oq
p304
I1
sVdhwvo45
p305
I1
sVdro48rs
p306
I1
sVd35fjhn
p307
I1
sVd6f1xy3
p308
I1
sVd8e8u8t
p309
I1
sVd14io23
p310
I1
sVdmfdfjw
p311
I1
sVdojekas
p312
I1
sVdju0wdt
p313
I1
sVd2aua51
p314
I2
sVdey9s1j
p315
I1
sVd4p4fxa
p316
I1
sVd1tmhnr
p317
I2
sVczwtk8r
p318
I1
sVddsc9la
p319
I1
sVdg2c5yg
p320
I1
sVdf9s645
p321
I1
sVd0821nt
p322
I1
sVd713rpr
p323
I1
sVdh59u3a
p324
I1
sVdex2fio
p325
I1
sVcz3fdva
p326
I1
sVczgymu8
p327
I1
sVd19ocos
p328
I1
sVd4xv8h3
p329
I1
sVd51thai
p330
I1
sVd8w4fop
p331
I1
sVd3jcphq
p332
I1
sVcyqpca4
p333
I1
sVd0nwii5
p334
I1
sVdc0eq24
p335
I1
sVdjpw3rv
p336
I1
sVd4cdo00
p337
I1
sVdffhixb
p338
I1
sVdbs8bu6
p339
I1
sVd477fnd
p340
I1
sVcyldthq
p341
I1
sVdck7151
p342
I1
sVd15zfyv
p343
I1
sVczcuqkx
p344
I1
sVd7igspx
p345
I1
sVdneroye
p346
I1
sVdr2rjat
p347
I1
sVczoaaoe
p348
I1
sVdrun0b4
p349
I1
sVdon12ql
p350
I1
sVdazhb47
p351
I1
sVdkg0q16
p352
I1
sVcyj9b2h
p353
I1
sVdmvqivy
p354
I1
sVd0ay6gc
p355
I1
sVd8t2057
p356
I1
sVdfxydzv
p357
I2
sVd603euc
p358
I1
sVd0hrs5s
p359
I1
sVdqx2rfc
p360
I1
sVd2bwek3
p361
I1
sVd0i5lg3
p362
I1
sVddg88uw
p363
I1
sVdsxrd50
p364
I1
sVdmvozpk
p365
I1
sVcyn5g1c
p366
I1
sVd48lx8d
p367
I1
sVd1pdvnv
p368
I1
sVd30iezv
p369
I1
sVdc8c4qa
p370
I1
sVdibmwff
p371
I1
sVd8ecrvd
p372
I1
sVdfyw0yw
p373
I1
sVdjwvdg3
p374
I1
sVdq263jd
p375
I1
sVdcw28eb
p376
I1
sVdbuynrr
p377
I2
sVdpb67yc
p378
I1
sVdrcgyfy
p379
I1
sVd1uyevs
p380
I1
sVd8aedb3
p381
I1
sVd5od0ny
p382
I1
sVdnay2aq
p383
I1
sVdr8lprz
p384
I1
sVdrpxgyt
p385
I1
sVd6plq2m
p386
I1
sVdkh8cxt
p387
I1
sVdei5ivd
p388
I1
sVd9fyii5
p389
I1
sVdfkaosp
p390
I1
sVdpaa4f5
p391
I1
sVdf5vudb
p392
I1
sVd8k2pkd
p393
I1
sVczk20kz
p394
I2
sVd17lpuy
p395
I1
sVdotekb2
p396
I1
sVd9dklrp
p397
I1
sVdr8wicv
p398
I1
sVdmzg571
p399
I1
sVd2otywd
p400
I1
sVdiy8b0d
p401
I1
sVd7w546x
p402
I1
sVd3x49h5
p403
I2
sVd1bg175
p404
I1
sVcyr6kd0
p405
I1
sVdcwm14y
p406
I1
sVddob0co
p407
I1
sVd8g3mji
p408
I1
sVcyutu68
p409
I1
sVd7s9i6j
p410
I1
sVdkf7rfy
p411
I1
sVd1yyrv7
p412
I1
sVdrkjabd
p413
I1
sVdml6t73
p414
I1
sVd7mctjq
p415
I1
sVdn4dgv6
p416
I1
sVdj72o5s
p417
I1
sVdf3mg8y
p418
I1
sVdj97v46
p419
I1
sVdd2eq6i
p420
I1
sVdkt8aew
p421
I1
sVczsmibc
p422
I1
sVds1lkw8
p423
I1
sVdd5wcdq
p424
I1
sVda3x8gu
p425
I1
sVdozf9im
p426
I1
sVda4ogz6
p427
I1
sVdt42h6a
p428
I1
sVdgm9izv
p429
I1
sVcyljclh
p430
I2
sVd01b4sx
p431
I1
sVd8u5pkj
p432
I1
sVdrw7i33
p433
I1
sVdes0yz9
p434
I1
sVd4rys59
p435
I1
sVd7c3knk
p436
I1
sVdb05c5n
p437
I1
sVdb0s9gb
p438
I1
sVde4mjvx
p439
I1
sVdmuel71
p440
I1
sVdbnaq28
p441
I1
sVd35szux
p442
I1
sVdi7z746
p443
I1
sVddeqcuc
p444
I1
sVd7tidlw
p445
I1
sVd5gx72m
p446
I1
sVde7p4ih
p447
I1
sVd9yv1t3
p448
I1
sVdav986n
p449
I1
sVd7a87rz
p450
I1
sVd0z1fw0
p451
I1
sVd27v0o7
p452
I1
sVdhx7ize
p453
I1
sVdgufdcy
p454
I1
sVd50ddbt
p455
I1
sVdap8aqr
p456
I3
sVdfvxywf
p457
I1
sVde71mgb
p458
I1
sVdppn5wd
p459
I1
sVd6ingaw
p460
I1
sVdakszxw
p461
I1
sVd8t5wpm
p462
I1
sVda1p4r6
p463
I1
sVdnvshu6
p464
I1
sVcyoh2ya
p465
I1
sVdgdw38b
p466
I1
sVdopzuvt
p467
I1
sVd099e1c
p468
I1
sVdp3s8ew
p469
I1
sVdobefsb
p470
I1
sVcymyq4l
p471
I2
sVdoomjdu
p472
I1
sVd4m7jgm
p473
I1
sVd3u8h05
p474
I1
sVd618h2y
p475
I1
sVdqqr3aq
p476
I1
sVdiolu7p
p477
I1
sVd7c40sh
p478
I1
sVdndasum
p479
I1
sVd2wj2pk
p480
I1
sVd9x2nfk
p481
I1
sVcz52fgl
p482
I1
sVdrz3t26
p483
I1
sVd5w1l8c
p484
I3
sVdeu9uxk
p485
I1
sVdbo4utu
p486
I1
sVd5tv5r6
p487
I1
sVd0ac0hw
p488
I1
sVdhpyrje
p489
I1
sVd6srw1h
p490
I1
sVd5yroyq
p491
I1
sVd6nqk9r
p492
I1
sVd2r66av
p493
I1
sVdq2g7bp
p494
I1
sVd2rax7x
p495
I1
sVdk91d6d
p496
I1
sVdh4uh9s
p497
I1
sVd7r6vgt
p498
I1
sVd6ppi7s
p499
I1
sVdhdaz3o
p500
I1
sVdd72aj7
p501
I2
sVdfvfibg
p502
I1
sVdkl8508
p503
I1
sVdp678jp
p504
I1
sVd2bbh1i
p505
I1
sVdcktujc
p506
I1
sVd1408a3
p507
I1
sVdafnea3
p508
I1
sVd4d8892
p509
I1
sVdb9uj2k
p510
I1
sVd1ogfz3
p511
I1
sVdp7irqm
p512
I1
sVdawiccy
p513
I1
sVdipi349
p514
I1
sVde6mhmp
p515
I1
sVdhpzzbn
p516
I1
sVd0bk5dp
p517
I1
sVdhtkcfz
p518
I1
sVd591g5x
p519
I1
sVd1jupml
p520
I1
sVdn3u2wv
p521
I1
sVdnyy598
p522
I1
sVdtdmyqj
p523
I1
sVd3qa1p2
p524
I1
sVd5hfit3
p525
I1
sVd2j1548
p526
I1
sVdiesu7c
p527
I1
sVd7ccwf4
p528
I1
sVcynra8u
p529
I1
sVcyjgpib
p530
I1
sVd8r0iwu
p531
I1
sVcyrlyyu
p532
I1
sVd3726l0
p533
I1
sVcztye7s
p534
I1
sVd1ga226
p535
I1
sVdo571gi
p536
I1
sVdj2tesj
p537
I1
sVdkriclp
p538
I2
sVdcx3dwi
p539
I1
sVd0zka26
p540
I1
sVcziyk29
p541
I1
sVddexdqe
p542
I1
sVdtfp0h2
p543
I1
sVdeenc1g
p544
I1
sVdmikgfk
p545
I1
sVczo4wb7
p546
I1
sVd5ekwdb
p547
I1
sVd81lv4z
p548
I1
sVd0urugw
p549
I1
sVdsp7ehj
p550
I1
sVdnqawi9
p551
I1
sVdpqtv5z
p552
I1
sVdri8e6j
p553
I1
sVd4xxrsv
p554
I1
sVdcazjgd
p555
I1
sVdsaaf4p
p556
I1
sVd9vauxp
p557
I1
sVdpnhyh3
p558
I3
sVd8tqmt1
p559
I1
sVd40zcs5
p560
I1
sVdta08pa
p561
I1
sVd6iun4e
p562
I1
sVd1xmyi8
p563
I1
sVdoika23
p564
I1
sVd4gjl8y
p565
I1
sVd4xtxxb
p566
I1
sVd0cpa7r
p567
I1
sVd1l4ljy
p568
I1
sVdex1n6t
p569
I1
sVd1n2e0h
p570
I1
sVdb3ohry
p571
I1
sVd8u183m
p572
I1
sVcyli2tc
p573
I1
sVddg7zav
p574
I2
sVdey8xbd
p575
I1
sVd8axl1t
p576
I1
sVd61w4az
p577
I1
sVd648iuy
p578
I1
sVd4liffv
p579
I1
sVdt0hc7u
p580
I1
sVd6kgpg3
p581
I1
sVd3cg1je
p582
I1
sVd9mwdod
p583
I1
sVdq0qkct
p584
I1
sVdpc6159
p585
I1
sVdhxqagk
p586
I1
sVdrmq3lr
p587
I1
sVd9vxont
p588
I1
sVczcn1g7
p589
I2
sVd1qcn5q
p590
I1
sVd70quqv
p591
I1
sVdpe6l3r
p592
I1
sVd3lkut2
p593
I1
sVdrduh70
p594
I1
sVdap1ajv
p595
I1
sVd9jbmc1
p596
I2
sVdkhn1k1
p597
I1
sVd3rtjw6
p598
I1
sVdeupkdh
p599
I1
sVdfnyloj
p600
I1
sVczekfbh
p601
I1
sVd3eqmue
p602
I3
sVd5cr3vi
p603
I1
s.