(dp0
Vd3wxm3n
p1
I2
sVdtd1mpp
p2
I1
sVd3wzeh9
p3
I2
sVd1f6g1u
p4
I2
sVddsb38i
p5
I1
sVd67kwnk
p6
I1
sVd75qd3w
p7
I1
sVdirtau6
p8
I1
sVczztbq4
p9
I1
sVd1f5szu
p10
I1
sVdaby08v
p11
I1
sVdes8ehx
p12
I1
sVd3ckn8e
p13
I1
sVd9viazj
p14
I2
sVdqk22gc
p15
I4
sVdrlf7f1
p16
I1
sVd3wysia
p17
I2
sVdjjelcy
p18
I1
sVd3wtx39
p19
I2
sVddavcsu
p20
I2
sVdk54e4v
p21
I1
sVd1f0674
p22
I6
sVd3wy8ns
p23
I1
sVd3wu3cl
p24
I3
sVd5nmh5f
p25
I1
sVczg2nt8
p26
I1
sVd3wxqsh
p27
I1
sVd0ay59e
p28
I1
sVdc0nma9
p29
I1
sVd75scc1
p30
I1
sVd2hjvmv
p31
I1
sVd3wxwm2
p32
I1
sVdrlofot
p33
I2
s.