(dp0
Vd4n5l90
p1
I1
sVdqlw1b2
p2
I1
sVd8ghbsx
p3
I1
sVdsdyt8w
p4
I2
sVd7ijr62
p5
I1
sVdir5nja
p6
I1
sVd2jwapp
p7
I2
sVd349z95
p8
I1
sVd3taeys
p9
I1
sVdhpjgk9
p10
I1
sVczmh349
p11
I1
sVd84iekd
p12
I1
sVczoy12j
p13
I1
sVd0qu94w
p14
I1
sVd95lfwt
p15
I1
sVdppuihe
p16
I1
sVd6a7uyv
p17
I1
sVd5vycd1
p18
I1
sVdrev7ch
p19
I2
sVdrb5v8t
p20
I1
sVd949da7
p21
I1
sVdi4lojc
p22
I1
sVdmr8y7t
p23
I1
sVczl6eaf
p24
I1
sVdel909k
p25
I1
sVddr4u2h
p26
I1
sVdka9as5
p27
I1
sVdgcosty
p28
I2
sVdsi8d6r
p29
I1
sVd5lyu8d
p30
I1
sVdhpjjkr
p31
I1
sVd39nvn8
p32
I1
sVd2zdmng
p33
I1
sVdhr2si4
p34
I1
sVd8e08qu
p35
I1
sVderrko4
p36
I1
sVczqf1t7
p37
I1
sVdthjvt6
p38
I1
sVd12qpmj
p39
I1
sVd5ae3m3
p40
I1
sVd6f5wso
p41
I1
sVdh2tjqw
p42
I1
sVdij40bi
p43
I1
sVdc3zxew
p44
I1
sVd71xw03
p45
I2
sVcz9h5ld
p46
I1
sVdggflyy
p47
I1
sVd7xns72
p48
I1
sVd7tkb5t
p49
I2
sVd0n6glp
p50
I1
sVdjujfem
p51
I1
sVd6j2psw
p52
I1
sVdqd0h0u
p53
I1
sVd013ylm
p54
I1
sVd334duf
p55
I1
sVd0mo5u3
p56
I1
sVdk1fagy
p57
I1
sVdfttm5p
p58
I1
sVdhdeww7
p59
I1
sVd7xn6no
p60
I1
sVd0n7ngg
p61
I1
sVd4gplnn
p62
I1
sVdjnwuax
p63
I1
sVd26vvtz
p64
I1
sVd9lm8di
p65
I2
sVdkivpim
p66
I1
sVd81se62
p67
I1
sVczge1ot
p68
I1
sVczvvsrh
p69
I1
sVdng4vgi
p70
I1
sVd8x5238
p71
I1
sVdp0fij0
p72
I1
sVd9xzdfq
p73
I1
sVdr74bwv
p74
I1
sVddrf756
p75
I1
sVdj8tuf5
p76
I1
sVdc47l5c
p77
I1
sVcz3axc1
p78
I1
sVd865kwh
p79
I1
sVd7ukphj
p80
I1
sVcztxjnf
p81
I1
sVdhciqby
p82
I1
sVdjz6w6n
p83
I1
sVdibj61q
p84
I1
sVd2pyk89
p85
I1
sVd5u885r
p86
I1
sVdcsoych
p87
I1
sVdqf9ug0
p88
I1
sVd1so35r
p89
I1
sVdtcvvgu
p90
I1
sVde950h4
p91
I1
sVdaaj19z
p92
I1
sVd1buug8
p93
I1
sVd1oxdtn
p94
I1
sVdqy699o
p95
I1
sVdjavexq
p96
I1
sVdr3xwre
p97
I1
sVdoy482m
p98
I1
sVd6yq64q
p99
I2
sVd853gus
p100
I1
sVdi8wjc0
p101
I1
sVd0mvyui
p102
I1
sVdolifd9
p103
I1
sVdkkj3vm
p104
I1
sVdsu0hyd
p105
I1
sVcz7e5rp
p106
I1
sVd4bc5sb
p107
I1
sVd35d7hl
p108
I1
sVdoiql00
p109
I1
sVd0mnnyz
p110
I1
sVd18ou6c
p111
I1
sVcyk2b8t
p112
I1
sVdnmv7uu
p113
I1
sVd2jvj2k
p114
I1
sVdrj0ofe
p115
I1
sVd3r9cpd
p116
I1
sVdhhhdeq
p117
I1
sVd82oo51
p118
I1
sVdonclk5
p119
I2
sVd9ba8yv
p120
I1
sVde7c6ai
p121
I1
sVdg27k2m
p122
I2
sVddcto1l
p123
I1
sVddlgve6
p124
I1
sVd0h13h0
p125
I1
sVd9tk47y
p126
I1
sVdak30i4
p127
I1
sVdg7ycnf
p128
I1
sVczi0exh
p129
I1
sVdiv15y2
p130
I2
sVde1gsnb
p131
I1
s.