(dp0
Vdgl39h1
p1
I1
sVd714kda
p2
I1
sVcz0mz2n
p3
I1
sVczyjg5t
p4
I1
sVdg933gn
p5
I1
sVdjein7w
p6
I1
sVcz5p9f3
p7
I1
sVd9xni4a
p8
I1
sVd1ynmu6
p9
I1
sVdjebe8k
p10
I1
sVdjdzpij
p11
I1
sVddhxea3
p12
I1
sVd6og3il
p13
I2
sVddp7rfl
p14
I1
sVd2kist5
p15
I1
sVdam1l7g
p16
I1
sVdg750pw
p17
I7
sVd9rptrz
p18
I1
sVdtdotfs
p19
I1
sVdje58z2
p20
I1
sVdgkn7sv
p21
I1
sVde7l9pz
p22
I1
sVd1vt3dp
p23
I1
sVdbbser5
p24
I1
sVd4ye33n
p25
I1
sVd2zbsl4
p26
I1
sVdnkh6b9
p27
I1
sVdarv05v
p28
I1
sVd9gzwuk
p29
I1
sVczyqima
p30
I1
sVdnnsiln
p31
I1
sVdch2f09
p32
I1
sVd464ei1
p33
I1
sVcz0hk94
p34
I1
sVd2m1mol
p35
I8
sVdgdijjb
p36
I1
sVdf3crzc
p37
I1
sVdrtb6zr
p38
I2
sVdnwhxrt
p39
I1
sVdhvhcke
p40
I1
sVd9coo2t
p41
I1
sVdefqx6p
p42
I1
sVdf1hxzk
p43
I2
sVdoh90wc
p44
I2
sVdei101n
p45
I1
sVddsh8i3
p46
I1
sVday4e5y
p47
I1
sVd051k6s
p48
I1
sVcyjuw6r
p49
I1
sVdfljrm5
p50
I1
sVdbsrp7i
p51
I1
sVd1g720u
p52
I1
sVde454n7
p53
I1
sVdhz24gc
p54
I1
sVdc49r7w
p55
I1
sVdkahz95
p56
I1
sVdf8ppy5
p57
I1
sVddwjulf
p58
I1
sVdohm4i9
p59
I2
sVd6rp07g
p60
I1
sVd5bgyr5
p61
I1
sVd0tg9hs
p62
I1
sVdb8bxow
p63
I1
sVdfw5a5h
p64
I2
sVdillbs6
p65
I1
sVdiu1pr5
p66
I1
sVds717ub
p67
I1
sVddi4xmc
p68
I1
sVdinzca0
p69
I2
sVdhq7jvb
p70
I1
s.