(dp0
Vczyc187
p1
I1
sVd8w6ugb
p2
I1
sVdfvks2a
p3
I1
sVdrq1ldz
p4
I1
sVdaxqlvl
p5
I1
sVd35p19i
p6
I1
sVd8jb9fi
p7
I1
sVdarlele
p8
I1
sVdkd83e5
p9
I1
sVczp5gqi
p10
I2
sVdj3dzk7
p11
I1
sVd134hsq
p12
I1
sVd19v9eq
p13
I1
sVd20lv2h
p14
I1
sVd99kbqb
p15
I1
sVdb3pf39
p16
I1
s.