(dp0
Vdhtnrmb
p1
I2
sVd9gtijs
p2
I1
sVdt9ek9e
p3
I1
sVd61z286
p4
I5
sVdexpa1b
p5
I4
sVdf68e0v
p6
I1
sVdn2kmp5
p7
I1
sVdqh9d3q
p8
I4
sVdj5vlca
p9
I3
sVde4usnt
p10
I1
sVd6k2a5o
p11
I1
sVdff14hh
p12
I1
sVd7yuj6f
p13
I1
sVcz7qre0
p14
I1
sVd0pzeeb
p15
I1
sVdjmjt3u
p16
I1
sVdh497vq
p17
I1
sVda0l4ed
p18
I1
sVcyo646f
p19
I1
sVd3lmats
p20
I1
sVdsw0ox5
p21
I1
sVd9mufh2
p22
I2
sVd60pfcx
p23
I1
sVd9n0i24
p24
I1
sVd7xr29c
p25
I2
sVdj8deux
p26
I2
sVd9ebi6p
p27
I1
sVdjjhm5t
p28
I1
sVdjr9n5o
p29
I1
sVdeho7a5
p30
I1
sVdb2m17i
p31
I1
sVd0ydbcj
p32
I2
sVdryccld
p33
I1
sVdd0qbaw
p34
I1
sVdjet9gw
p35
I5
sVd5trcj6
p36
I2
sVd97081f
p37
I1
sVd5yro9d
p38
I1
sVdelnnl0
p39
I1
sVd4x7j9u
p40
I1
sVdqevaju
p41
I2
sVdizuy8x
p42
I1
sVdig1ftw
p43
I1
sVdauc4b5
p44
I1
sVdd3dz7b
p45
I1
sVd5c2vrf
p46
I1
sVdslkc53
p47
I1
sVdt0curn
p48
I1
sVczrqjsv
p49
I1
sVd9to9dq
p50
I1
sVdiwymst
p51
I2
sVczoz1ob
p52
I1
sVd7hdzdn
p53
I1
sVd6c9h6e
p54
I8
sVd2m7aow
p55
I2
sVdtegv99
p56
I1
sVdqx4ozt
p57
I4
sVcysvuo1
p58
I1
sVdkhwnpg
p59
I2
sVdi20wir
p60
I3
sVd1iq9k7
p61
I1
sVd04la6v
p62
I1
sVczap6fh
p63
I6
sVdcq6npc
p64
I1
sVdgbcxsy
p65
I1
sVdepj6jl
p66
I1
sVdgk3zmi
p67
I2
sVds40uwv
p68
I1
sVd12ycac
p69
I1
sVd3f92tz
p70
I1
sVdqfu194
p71
I1
sVdfdyush
p72
I1
sVda18nt1
p73
I1
sVd9n21z8
p74
I3
sVd7do2ce
p75
I1
sVdt9uuau
p76
I2
sVd3adcza
p77
I1
sVd367m1b
p78
I2
sVd738ua7
p79
I1
sVdqbpgvi
p80
I3
sVdez8pii
p81
I1
sVd1kw1m0
p82
I1
sVdqezjes
p83
I2
sVd1i0ksy
p84
I1
sVd3zesgr
p85
I1
sVd1hwbho
p86
I1
sVczdpidh
p87
I1
sVczh1g11
p88
I1
sVdcxmrw7
p89
I3
sVcztehux
p90
I1
sVd37sls2
p91
I1
sVd2wxhpn
p92
I2
sVdnzop5e
p93
I3
sVdg98ajg
p94
I1
sVdd0omdr
p95
I1
sVd24ex71
p96
I1
sVd60zrar
p97
I1
sVczdj6kn
p98
I1
sVda18vjs
p99
I1
sVdr9m2oy
p100
I5
sVdolwxr9
p101
I3
sVd2dtnh2
p102
I1
sVd00vcyc
p103
I1
sVdelhfz3
p104
I1
sVdho3zz6
p105
I1
sVdh56e8o
p106
I1
sVd41dar1
p107
I1
sVdasr78n
p108
I1
sVczh0otp
p109
I1
sVdgv7a6o
p110
I1
sVd7bj1e7
p111
I1
sVd089i7j
p112
I1
sVdnji2ge
p113
I1
sVczdiiza
p114
I1
sVdj5audr
p115
I1
sVdnx5ati
p116
I1
sVd16evox
p117
I1
sVdgicjcs
p118
I1
sVdb29nn4
p119
I1
sVd37g22u
p120
I1
sVczstoyc
p121
I2
sVd6g49mk
p122
I1
sVdc0fmi4
p123
I2
sVda6n4tn
p124
I3
sVdh4yvln
p125
I1
sVd9tv3od
p126
I1
sVdc7myzo
p127
I2
sVddbu9rm
p128
I2
sVdciiiuu
p129
I1
sVd3fc6vl
p130
I3
sVdira81m
p131
I1
sVdeghxtl
p132
I3
sVd5qbcui
p133
I1
sVczao60c
p134
I1
sVd20yndi
p135
I1
sVdejcry9
p136
I2
sVdkyh66r
p137
I1
sVczbvd8s
p138
I1
sVd121ztm
p139
I1
sVdkwzp46
p140
I2
sVdc3zw9i
p141
I1
sVdavbw7j
p142
I1
sVd04fboe
p143
I1
sVd55pwai
p144
I3
sVd33g46i
p145
I2
sVd7hy6ps
p146
I2
sVczo9prq
p147
I2
sVdihc9ko
p148
I6
sVd5jbhv3
p149
I1
sVd0ghuoy
p150
I1
sVd5ns1tz
p151
I1
sVdfa830e
p152
I1
sVdnnzui8
p153
I2
sVdpmvdr4
p154
I1
sVd6vtsqx
p155
I1
sVczqfept
p156
I1
sVdpo5s9u
p157
I2
sVd15oqvi
p158
I1
sVd126kb6
p159
I1
sVd9v4u0e
p160
I2
sVdavrl9a
p161
I10
sVdg51is3
p162
I1
sVd3facta
p163
I5
sVd1o8wi0
p164
I1
sVdj9flja
p165
I2
sVd1kg237
p166
I1
sVd1s7tba
p167
I1
sVddklas0
p168
I4
sVdkisrgz
p169
I1
sVd1d8j3r
p170
I1
sVdjc1j4s
p171
I2
sVd8suw6i
p172
I1
sVd0ycd95
p173
I1
sVdkt5p7l
p174
I2
sVdh0rn4p
p175
I1
sVddk6rv3
p176
I1
sVd9ebg9n
p177
I2
sVdnzt839
p178
I1
sVdt8zcxe
p179
I2
sVdkkui5m
p180
I2
sVd1243uc
p181
I3
sVdo8pkfx
p182
I1
sVdesyvrg
p183
I1
sVdkk4sys
p184
I2
sVded5g4y
p185
I1
sVd0krux1
p186
I2
sVdiqbmeq
p187
I1
sVdqm6dvx
p188
I1
sVdf678ud
p189
I2
sVdgwkvnn
p190
I1
sVddu6u9u
p191
I1
sVd7x5yoq
p192
I1
sVdqr6m04
p193
I1
sVdcfyb3i
p194
I1
sVczko7p2
p195
I1
sVd4kb4xh
p196
I1
sVd1o8rhq
p197
I1
sVd6gfn0k
p198
I1
sVd7pb80q
p199
I1
sVcz6azld
p200
I1
sVdbbqa3r
p201
I1
sVdbyy718
p202
I1
sVdog2ota
p203
I1
sVdig6a37
p204
I1
sVdim33hd
p205
I1
sVd4dz0da
p206
I2
sVd7sxvge
p207
I1
sVczd11vv
p208
I2
sVdgx3et3
p209
I1
sVdf6kco4
p210
I1
sVdn2v3lu
p211
I1
sVdk2hkdb
p212
I1
sVd04n1pq
p213
I2
sVd3rncf9
p214
I1
sVdguscll
p215
I1
sVd0x9bkc
p216
I1
sVd340vrx
p217
I1
sVdkx5la6
p218
I2
sVd2tlkuc
p219
I4
sVcywi24j
p220
I1
sVdgxloxu
p221
I1
sVdkhx8yw
p222
I2
sVd1c2kx3
p223
I2
sVdguoggq
p224
I1
sVczv42f1
p225
I2
sVdadyix8
p226
I1
sVda9ev7b
p227
I1
sVd5tz4ye
p228
I1
sVd1756n6
p229
I1
sVczvf29h
p230
I1
sVdkgrevg
p231
I3
sVde6vdf8
p232
I1
sVdrgv0r5
p233
I2
sVcz2963u
p234
I1
sVczro2xo
p235
I1
sVd2vpkap
p236
I1
sVdrn2ix5
p237
I4
sVd2tpakh
p238
I1
sVd1d73s1
p239
I1
sVdafa1li
p240
I1
sVd6pxzxc
p241
I1
sVd1rhh9l
p242
I1
sVdd93uvn
p243
I1
sVdthhlze
p244
I3
sVczsupou
p245
I1
sVdmmirzc
p246
I1
sVdal37ah
p247
I5
sVd2za65s
p248
I1
sVdeh22ze
p249
I2
sVdehx5zh
p250
I2
sVdk59ciy
p251
I2
sVd95x4mj
p252
I1
sVdhrmjpa
p253
I1
sVcywo515
p254
I1
sVdjbxfx2
p255
I1
sVd1g3sx0
p256
I11
sVdqibf2w
p257
I1
sVdol0cvz
p258
I1
sVdgvdr4o
p259
I3
sVdg6pkak
p260
I3
sVd903p1o
p261
I4
sVdrn7k49
p262
I2
sVd2eanr2
p263
I2
sVd0qjl2u
p264
I1
sVdb8k25o
p265
I1
sVd9hfxr5
p266
I1
sVd306725
p267
I1
sVd4mlvz8
p268
I2
sVdarcwgj
p269
I2
sVczp0dwa
p270
I2
sVd21x9tn
p271
I1
sVdeq70mr
p272
I1
sVdi2kvd3
p273
I1
sVdb124bk
p274
I1
sVd39umeu
p275
I1
sVdjxhmyo
p276
I1
sVdipskrn
p277
I1
sVd5pvnfy
p278
I3
sVdeixhe2
p279
I1
sVdb7mh2m
p280
I3
sVdbushpz
p281
I1
sVd39fo6i
p282
I3
sVdt9vzi6
p283
I1
sVd0mrlyf
p284
I1
sVd04cob1
p285
I1
sVczh0wa7
p286
I2
sVdg715sk
p287
I1
sVd64rsa0
p288
I1
sVdezx3rk
p289
I5
sVdj7l5vu
p290
I2
sVdj5v5zc
p291
I2
sVdg85ope
p292
I1
sVd8mzj4b
p293
I1
sVcyij1z2
p294
I1
sVd1ho6b3
p295
I1
sVdolo1e4
p296
I1
sVdkxaq3g
p297
I1
sVdhd1y4g
p298
I4
sVded2nez
p299
I3
sVdigmqxk
p300
I1
sVczh2sna
p301
I1
sVddnxxyn
p302
I1
sVd0420tj
p303
I1
sVde724t8
p304
I1
sVd4dvkk0
p305
I1
sVd9dw6gb
p306
I1
sVdezrll2
p307
I1
sVcyvjdc5
p308
I3
sVd3fb2ci
p309
I1
sVd8jh7op
p310
I1
sVdgcp650
p311
I1
sVdqpai6r
p312
I1
sVd1i04wm
p313
I1
sVds0rx0c
p314
I1
sVd17w4cc
p315
I1
sVd12lr1q
p316
I3
sVdik4mns
p317
I1
sVdfxvqs3
p318
I1
sVdi1iwki
p319
I1
sVdjhcmry
p320
I1
sVdgun8ta
p321
I1
sVdes8ehx
p322
I1
sVd9myadx
p323
I1
sVdjbirtz
p324
I1
sVd7sz1pw
p325
I1
sVd504g7h
p326
I2
sVdaso5eo
p327
I1
sVd6rs50s
p328
I2
sVczsjl1i
p329
I1
sVd1gtq05
p330
I1
sVdeuvjg8
p331
I1
sVdj5le4w
p332
I1
sVd5e1esa
p333
I1
sVd25s72t
p334
I1
sVdatn4ek
p335
I1
sVd2rqvgh
p336
I1
sVdrmaei5
p337
I1
sVd7xhqra
p338
I1
sVczw8ct5
p339
I1
sVd7bj0wu
p340
I1
sVd5en3dh
p341
I1
sVdhs6gq3
p342
I1
sVdj5bu3s
p343
I1
sVdnxh62e
p344
I1
sVdo2rd9b
p345
I2
sVd1c6seb
p346
I1
sVdhnf7yw
p347
I1
sVdmisdef
p348
I2
sVd5d90jk
p349
I1
sVdjuaydw
p350
I2
sVdj5vp89
p351
I8
sVczi76se
p352
I1
sVd0kwzr0
p353
I1
sVd9n5hhz
p354
I1
sVd2451fq
p355
I1
sVdc8agmx
p356
I10
sVcz2l1or
p357
I1
sVdefv63v
p358
I1
sVd7nu34n
p359
I1
sVdcqck5m
p360
I1
sVcztdybh
p361
I2
sVdawg551
p362
I1
sVd04pg0e
p363
I1
sVdh56wz7
p364
I1
sVd0o069u
p365
I1
sVcze8l3g
p366
I2
sVd5np3tv
p367
I1
sVd8mfwde
p368
I1
sVdti6mzf
p369
I3
sVd2q696i
p370
I1
sVd2ehayg
p371
I1
sVd11ap9k
p372
I1
sVdn7hurv
p373
I3
sVd8g2vbv
p374
I1
sVdfmzd3v
p375
I2
sVdkwv9qt
p376
I5
sVdf1fi4s
p377
I1
sVdjsqd0k
p378
I1
sVdarjytu
p379
I4
sVd5ns6zp
p380
I1
sVdej7hqe
p381
I2
sVd162l93
p382
I1
sVd5au9mr
p383
I1
sVdeqh1bs
p384
I1
sVdejceet
p385
I1
sVd8stu19
p386
I2
sVdk3rwx1
p387
I3
sVdksz4we
p388
I1
sVd0ddzn6
p389
I1
sVdcylhiu
p390
I1
sVd9fiscy
p391
I1
sVdgvbr9d
p392
I1
sVd3qthbu
p393
I1
sVd81o0y6
p394
I1
sVdaeiqt4
p395
I2
sVdri4b91
p396
I1
sVczyp3rn
p397
I2
sVd083r0c
p398
I1
sVdrmeeqe
p399
I3
sVdoe9f7a
p400
I1
sVd4t71p1
p401
I2
sVd9hgtu1
p402
I3
sVcyqia79
p403
I2
sVdi5ao9z
p404
I1
sVddi5w0x
p405
I1
sVdb9usnm
p406
I1
sVd6boa25
p407
I2
sVdbmjjss
p408
I3
sVd1ljlzf
p409
I1
sVczrqwn1
p410
I1
sVczv1kqi
p411
I1
sVczzj7zl
p412
I1
sVdthis1q
p413
I1
sVdoa8o6x
p414
I1
sVd6a6u6f
p415
I1
sVd6hkc5a
p416
I1
sVdcxtj2f
p417
I1
sVd4yzn4u
p418
I1
sVdk156cd
p419
I2
sVdhmi3ye
p420
I1
sVd3j56e5
p421
I4
sVdt9fbjn
p422
I1
sVdb2f4t7
p423
I2
sVd79v2wf
p424
I2
sVd20hpph
p425
I1
sVd3zbgmc
p426
I1
sVdeu9pa9
p427
I1
sVdgxiuxg
p428
I1
sVdbkvuha
p429
I1
sVd0tbu19
p430
I1
sVdeaa5fk
p431
I1
sVdcb0z2p
p432
I1
sVd4igdno
p433
I2
sVd73o4il
p434
I1
sVdrmupdq
p435
I1
sVd4r8ke0
p436
I1
sVdgt2yn4
p437
I2
sVdf6jl4r
p438
I1
sVdbmh95h
p439
I1
sVdcdr1nd
p440
I1
sVdn034cl
p441
I2
sVdd2cjrq
p442
I1
sVdqyjm6n
p443
I1
sVdgibv35
p444
I2
sVczp0229
p445
I4
sVdpp7q2p
p446
I1
sVd3135bu
p447
I1
sVdc3r8vb
p448
I1
sVdaeilvp
p449
I2
sVd33m0s9
p450
I1
sVdo5ckap
p451
I1
sVdf9gbhv
p452
I2
sVd1gs216
p453
I1
sVdptrwji
p454
I1
sVdhjw5bu
p455
I1
sVdeg0f56
p456
I1
sVde7ef0b
p457
I1
sVdn3y9pp
p458
I1
sVdcr85um
p459
I1
sVd42bqh8
p460
I1
sVdqfn8mb
p461
I1
sVdt971e1
p462
I6
sVde4sked
p463
I1
sVdflecqx
p464
I3
sVd451s5a
p465
I2
sVd1i6yfq
p466
I2
sVd4s0306
p467
I1
sVcyqsvvb
p468
I1
sVd6tioyh
p469
I1
sVdhzg6sh
p470
I1
sVdbqnc8i
p471
I1
sVdfwe9e1
p472
I1
sVdj1bqk8
p473
I1
sVdfw5xq5
p474
I1
sVdeehw0v
p475
I1
sVdjrahmw
p476
I1
sVd0sinm0
p477
I1
sVd41krcn
p478
I3
sVdh9wump
p479
I3
sVd8grjtd
p480
I1
sVdaoh3jt
p481
I3
sVd9v339t
p482
I1
sVd3fbk3t
p483
I3
sVd7n3kn9
p484
I1
sVdfer1gk
p485
I1
sVd06kz4l
p486
I1
sVdh4w1hh
p487
I2
sVdr3d72n
p488
I1
sVdki67cr
p489
I1
sVczwq03q
p490
I1
sVd12ad86
p491
I1
sVczau20r
p492
I1
sVdej306y
p493
I1
sVdtb3vje
p494
I2
sVd23n5gg
p495
I2
sVd5grsas
p496
I1
sVdf1v9yk
p497
I1
sVdfzlbw5
p498
I1
sVd22zg2e
p499
I1
sVdh4xv4r
p500
I1
sVdf6adps
p501
I2
sVdj8e3vc
p502
I2
sVdehcozy
p503
I1
sVd76hbbf
p504
I1
sVd8kbvm3
p505
I2
sVd4ztson
p506
I5
sVdbmjqpa
p507
I3
sVdcdmpbg
p508
I2
sVdj9mmcw
p509
I1
sVdimhsbb
p510
I1
sVdib7j5b
p511
I1
sVd5043bs
p512
I3
sVdklhunk
p513
I1
sVdp08lgg
p514
I1
sVdibx4px
p515
I1
sVd9kx7uc
p516
I2
sVdh4yvg2
p517
I3
sVddg883x
p518
I1
sVdpbhfas
p519
I1
sVdk2et1r
p520
I6
sVd4q98pz
p521
I1
sVd0kqcgd
p522
I1
sVdgnsa6d
p523
I3
sVdg7vlos
p524
I1
sVd5cg6qn
p525
I2
sVd3f5zau
p526
I1
sVdj3jxq3
p527
I1
sVdajuaek
p528
I1
sVcza1ae7
p529
I1
sVdh7fmku
p530
I1
sVdh4v0nr
p531
I1
sVd9uxvim
p532
I2
sVd013ge4
p533
I2
sVdszr999
p534
I1
sVd7h9veb
p535
I3
sVdbi9kjw
p536
I1
sVdkmnfc7
p537
I1
sVdt9bosa
p538
I1
sVdj28559
p539
I1
sVdt9dg2x
p540
I1
sVddmuvax
p541
I1
sVdcw22cw
p542
I2
sVdfhfcuv
p543
I1
sVd1x6b77
p544
I1
sVdbt170j
p545
I1
sVczvngli
p546
I1
sVd384k65
p547
I1
sVcz2afbi
p548
I1
sVdodvnk5
p549
I1
sVd3wxqsh
p550
I1
sVd04nurh
p551
I2
sVd2m3ux3
p552
I3
sVdgtu3mi
p553
I1
sVdpinab6
p554
I1
sVczv125u
p555
I1
sVdjzan99
p556
I1
sVdbdnhe6
p557
I2
sVd7tl67u
p558
I1
sVd7q267p
p559
I1
sVdepcilv
p560
I1
sVd366pp9
p561
I2
sVd1io4ff
p562
I1
sVdip788g
p563
I3
sVd2p3p0o
p564
I1
sVdbmgv9t
p565
I2
sVdnepagv
p566
I2
sVczuxhmp
p567
I1
sVd3sujvt
p568
I1
sVdfsbkk3
p569
I1
sVdb1x03p
p570
I1
sVd8j73x5
p571
I3
sVd6c2q78
p572
I1
sVde0he6w
p573
I2
sVd96edpw
p574
I1
sVdhfslir
p575
I2
sVd6wfoqt
p576
I1
sVdd2jifv
p577
I1
sVdf679sx
p578
I1
sVd2c0ic5
p579
I1
sVdmvcmi7
p580
I2
sVd366b5p
p581
I2
sVdg6qp9h
p582
I1
sVddkvo6n
p583
I4
sVdb539g4
p584
I1
sVdhfeuw9
p585
I1
sVdmsm7x3
p586
I1
sVdboiq03
p587
I1
sVdfwatu7
p588
I1
sVcyj5aio
p589
I1
sVdp8wtqv
p590
I1
sVdns9xyt
p591
I2
sVddkgd86
p592
I2
sVdj2jsl7
p593
I1
sVd55xr1i
p594
I2
sVdmh3w4h
p595
I3
sVdfbb44n
p596
I1
sVdqq3cb3
p597
I2
sVdkniuht
p598
I1
sVdku1ksk
p599
I1
sVdmz8ztf
p600
I2
sVdgjtr9n
p601
I2
sVczssrr5
p602
I1
sVdp076cs
p603
I1
sVddhtzp2
p604
I2
sVd3l150e
p605
I1
sVd9bwra8
p606
I2
sVd9vd2u4
p607
I1
sVdroj8e2
p608
I1
sVdeegwur
p609
I1
sVdb2ilhv
p610
I1
sVdh26h3p
p611
I1
sVddod2t3
p612
I1
sVdhnaf8z
p613
I1
sVczadxfu
p614
I3
sVdeysdw0
p615
I1
sVdagkqrk
p616
I1
sVdqcgu9o
p617
I1
sVddlu6lk
p618
I1
sVd37t7o6
p619
I1
sVdh4osfk
p620
I3
sVdcue0j8
p621
I1
sVd1w0iun
p622
I1
sVd1lz6xe
p623
I1
sVdk1spe3
p624
I3
sVd97376c
p625
I1
sVczd1i52
p626
I1
sVdga1ipu
p627
I2
sVd84pz09
p628
I1
sVdgiwpgj
p629
I2
sVdeuvitc
p630
I1
sVczsth78
p631
I3
sVd61px0b
p632
I1
sVdcc9x3f
p633
I1
sVdetvcoh
p634
I2
sVd6qk9kl
p635
I3
sVczad2tb
p636
I1
sVdicrrpo
p637
I2
sVcyri07l
p638
I5
sVdotajqp
p639
I2
sVdn5vqv8
p640
I2
sVdfrecvm
p641
I1
sVdb2fltd
p642
I2
sVdcj8x8z
p643
I2
sVdszrfpa
p644
I3
sVdazc0ua
p645
I3
sVdgx3xle
p646
I1
sVd09hql8
p647
I3
sVdgx1wrx
p648
I1
sVd2z0sgw
p649
I1
sVd9n0tmr
p650
I3
sVdr8ox0p
p651
I1
sVdqeq06u
p652
I1
sVdb2mgmf
p653
I1
sVd709d7c
p654
I2
sVdejsgn7
p655
I1
sVdcczjvm
p656
I2
sVdeyk33n
p657
I3
sVd04mb18
p658
I1
sVczapup4
p659
I2
sVdf6ewp6
p660
I1
sVczlg9us
p661
I1
sVd5004jc
p662
I1
sVdt0b3x0
p663
I3
sVdjg8b3r
p664
I1
sVd8t0u4r
p665
I1
sVdb568fn
p666
I1
sVdh4zhp6
p667
I1
sVd9n8t0z
p668
I1
sVdoepfew
p669
I1
sVdkuwbme
p670
I1
sVdajo4bb
p671
I1
sVd00s9c2
p672
I1
sVdf6h75c
p673
I1
sVdgx5dcr
p674
I1
sVd5e76ej
p675
I1
sVdjhnr9z
p676
I1
sVd5nlplq
p677
I1
sVczvazhw
p678
I5
sVd50auaj
p679
I2
sVdnbyrfl
p680
I1
sVd20i64i
p681
I1
sVdmtjd72
p682
I1
sVd4striq
p683
I1
sVdka3ir0
p684
I1
sVd2c0jra
p685
I1
sVdg1siyj
p686
I1
sVdozrats
p687
I1
sVd0jalka
p688
I1
sVd0kz324
p689
I1
sVdrmism6
p690
I1
sVd6bfsdo
p691
I1
sVd4duwqj
p692
I1
sVdeyrypp
p693
I1
sVd32slls
p694
I1
sVdsrbny5
p695
I1
sVde75vlm
p696
I1
sVd64r614
p697
I5
sVcyrhwxc
p698
I2
sVd347zf9
p699
I1
sVdq1n1xu
p700
I1
sVdbcl8es
p701
I1
sVdgiarb2
p702
I1
sVd50r59o
p703
I4
sVcz259ql
p704
I1
sVd1sp7e0
p705
I1
sVdemur6p
p706
I1
sVd9d0ad6
p707
I2
sVd2aobgr
p708
I1
sVd598two
p709
I1
sVd5zkc8v
p710
I2
sVdecgupq
p711
I1
sVddrdcdq
p712
I1
sVd4e342z
p713
I2
sVdhhe2bi
p714
I1
sVdrt0kgm
p715
I2
sVdaevh31
p716
I1
sVd01q49t
p717
I1
sVda3u9a5
p718
I1
sVd1hapvd
p719
I1
sVd1c2059
p720
I1
sVdb25zw6
p721
I2
sVdgi7k0s
p722
I1
sVd3u12di
p723
I1
sVd8nky3p
p724
I1
sVdb26kld
p725
I1
sVdrggrmq
p726
I1
sVdn3pcxi
p727
I1
sVddoe7cl
p728
I1
sVde7h2fp
p729
I1
sVd177n51
p730
I1
sVcyufkuv
p731
I3
sVds3mxz5
p732
I1
sVd00fwj4
p733
I1
sVdgmy6ob
p734
I1
sVdjxujlb
p735
I1
sVd3wxm3n
p736
I1
sVdff96st
p737
I5
sVdg127gw
p738
I1
sVddedb69
p739
I1
sVd55e53h
p740
I5
sVd5bjhtg
p741
I1
sVdt9sylc
p742
I1
sVd5pge82
p743
I1
sVd2e7640
p744
I1
sVdgy76cz
p745
I1
sVdo86ffe
p746
I1
sVdpzimgx
p747
I1
sVdauecsg
p748
I1
sVd8e3if1
p749
I3
sVdelq8t4
p750
I1
sVde4tq70
p751
I5
sVd3iukcc
p752
I1
sVd597rx8
p753
I1
sVd74jgdd
p754
I1
sVd04nobb
p755
I1
sVdrapy4x
p756
I1
sVczp24ez
p757
I4
sVd7qapkw
p758
I1
sVdbamrw0
p759
I2
sVd5i97v6
p760
I1
sVdfs3ne4
p761
I1
sVd7bucfy
p762
I1
sVdbmlahd
p763
I1
sVdecqqfm
p764
I1
sVdeuyyef
p765
I1
sVd41hhve
p766
I1
sVd9531g8
p767
I1
sVd4stq80
p768
I1
sVde7nodp
p769
I2
sVdbxk6c4
p770
I1
sVdezwzx4
p771
I1
sVd11ka9g
p772
I1
sVdaiie99
p773
I2
sVd4gdheg
p774
I1
sVdeyrr6n
p775
I2
sVdrn55xd
p776
I1
sVd7a5bqz
p777
I2
sVczdm5pd
p778
I4
sVd83r5m9
p779
I1
sVd17w4ow
p780
I1
sVdt9h895
p781
I1
sVd5zi7qn
p782
I2
sVd9n2kkv
p783
I1
sVd3p5f8s
p784
I1
sVcz6b1jw
p785
I1
sVd13gxpz
p786
I1
sVdbmqo0a
p787
I4
sVdgonb43
p788
I1
sVdhex85x
p789
I1
sVd6pi9v4
p790
I1
sVd8stuuq
p791
I10
sVdgyjg12
p792
I1
sVdixnfdk
p793
I3
sVdp08evi
p794
I1
sVd045y1u
p795
I1
sVczoo6e9
p796
I1
sVdgwrnuw
p797
I1
sVczn9tvz
p798
I1
sVd00y05n
p799
I3
sVd1w0b5u
p800
I1
sVczhazlz
p801
I2
sVcyzb8xu
p802
I1
sVdbyrsnh
p803
I1
sVd86b5lb
p804
I5
sVdcimwgj
p805
I1
sVdba1qa3
p806
I1
sVdh4wy3t
p807
I1
sVdan9d2t
p808
I3
sVd9bmh94
p809
I1
sVdrwqr11
p810
I1
sVdk2d3or
p811
I2
sVd3ra6df
p812
I1
sVdj0hct2
p813
I1
sVcyux5nd
p814
I1
sVdenujte
p815
I1
sVd5brmzs
p816
I1
sVdo2sjpf
p817
I2
sVdbmo512
p818
I2
sVdmz9kjp
p819
I2
sVczd1u4f
p820
I1
sVdjiff6q
p821
I1
sVd00uf1a
p822
I1
sVddpw77i
p823
I1
sVdnfubta
p824
I1
sVdbps88y
p825
I2
sVd5zhdj0
p826
I2
sVd52wejf
p827
I2
sVd9nf8vb
p828
I4
sVdgunaaf
p829
I4
sVd88kvme
p830
I2
sVdrb4t6h
p831
I1
sVdivqzf9
p832
I1
sVd9v30o3
p833
I2
sVd1whcdn
p834
I2
sVde72976
p835
I1
sVd52yb18
p836
I1
sVd4dxrwq
p837
I3
sVdr6xvah
p838
I2
sVdko91l8
p839
I2
sVczaubjd
p840
I2
sVdcf6750
p841
I1
sVdsb0wko
p842
I2
sVd58vnif
p843
I1
sVde7tf5j
p844
I1
sVdil2vlo
p845
I3
sVd44eqw1
p846
I3
sVdt0v5fw
p847
I1
sVdd2a92u
p848
I1
sVcyuav1a
p849
I2
sVdp1iydz
p850
I2
sVda29qlb
p851
I1
sVdgh10u6
p852
I1
sVdbg1jpq
p853
I3
sVdsdrqq5
p854
I2
sVddnnso1
p855
I1
sVdicut07
p856
I1
sVd1zv472
p857
I1
sVdfes0uv
p858
I1
sVdsqdquc
p859
I1
sVd61n9ft
p860
I1
sVdtadu1d
p861
I1
sVdr1r4t1
p862
I2
sVczb3w8y
p863
I1
sVd8dbuke
p864
I3
sVdgx6uss
p865
I1
sVd613wy3
p866
I5
sVdspxpc4
p867
I1
sVcylrese
p868
I2
sVdrm8esi
p869
I1
sVdmzcejs
p870
I3
sVcytxmji
p871
I2
sVd6c6ha1
p872
I1
sVd8d4t20
p873
I2
sVd7y3jus
p874
I2
sVdeh26pr
p875
I1
sVd5t0efl
p876
I1
sVczd3q18
p877
I1
sVd3lf14s
p878
I1
sVd44eswp
p879
I1
sVd8tzznz
p880
I1
sVd0ykggx
p881
I1
sVd2jfgfj
p882
I1
sVdcxbf3p
p883
I1
sVd00tvtt
p884
I1
sVdjm6yas
p885
I1
sVdpq80wb
p886
I1
sVdgwz5tp
p887
I2
sVdf2zq5w
p888
I2
sVd2zipp5
p889
I2
sVd3ty0y4
p890
I1
sVd6186v3
p891
I2
sVdh9x53b
p892
I3
sVda049x2
p893
I1
sVd988fya
p894
I1
sVd06z6fn
p895
I1
sVdciuc4i
p896
I1
sVdsri9ed
p897
I1
sVdh4vgus
p898
I3
sVdcr5j0h
p899
I1
sVdg7pbpk
p900
I1
sVd05w0ev
p901
I1
sVd1iotga
p902
I1
sVd5k7jc8
p903
I1
sVd149vba
p904
I1
sVd3llq2l
p905
I1
sVd798uya
p906
I1
sVd0prg6x
p907
I1
sVdguvwfm
p908
I2
sVd4dj586
p909
I1
sVdfreh9p
p910
I2
sVdd8n96w
p911
I1
sVcysj6yj
p912
I3
sVd5cj6fw
p913
I1
sVdpx04kv
p914
I2
sVczgaw2b
p915
I2
sVd0kvieq
p916
I2
sVd9hityt
p917
I1
sVd8izva5
p918
I2
sVczgv9xa
p919
I1
sVd81lm6s
p920
I1
sVdmza9u4
p921
I4
sVder52ob
p922
I5
sVd310rbn
p923
I1
sVd81eqc4
p924
I1
sVd6scxwb
p925
I1
sVd1d599x
p926
I1
sVdqnukuw
p927
I1
sVd5ckpb5
p928
I9
sVd7zffjd
p929
I1
sVczv7a74
p930
I1
sVdd66r6t
p931
I4
sVczd0dlz
p932
I1
sVdoa69am
p933
I2
sVdff81he
p934
I2
sVdfsuwjx
p935
I1
sVd5zgj8a
p936
I2
sVdf2srbn
p937
I1
sVczavvzw
p938
I1
sVd29t7xd
p939
I1
sVdb3uvig
p940
I1
sVd9c6zg3
p941
I1
sVd2ecw40
p942
I3
sVd5zjtu7
p943
I1
sVdaxwjj7
p944
I1
sVd8le0zv
p945
I1
sVdbclerd
p946
I1
sVd0vtgp8
p947
I1
sVdba7m9h
p948
I2
sVds53ss0
p949
I2
sVd0l2nb8
p950
I1
sVd5pye22
p951
I1
sVdgys9x8
p952
I1
sVdrma6jo
p953
I1
sVd5ew59z
p954
I1
sVdbmijaw
p955
I1
sVdj5v0zv
p956
I1
sVdgulhus
p957
I1
sVd5zkva2
p958
I1
sVd1i3im3
p959
I1
sVd9ps5tj
p960
I1
sVdbf3fd2
p961
I1
sVd94j95y
p962
I1
sVd39iytr
p963
I1
sVdh9xpt8
p964
I2
sVd0axkrr
p965
I1
sVdcdnc83
p966
I1
sVd4nury2
p967
I1
sVde30hf7
p968
I1
sVczeyrm2
p969
I1
sVd2rlf78
p970
I1
sVdjtf7sg
p971
I5
sVd4kvu5w
p972
I1
sVdixdc2h
p973
I1
sVdp7h3xf
p974
I1
sVdoax5wb
p975
I1
sVdj9zcqi
p976
I1
sVdpl7aas
p977
I5
sVczknwkd
p978
I3
sVdc0g1zn
p979
I1
sVdn1cnh1
p980
I2
sVdjcabny
p981
I1
sVd1iy10e
p982
I1
sVdkcyr54
p983
I1
sVd2b6v4z
p984
I3
sVdamp3py
p985
I9
sVds54h32
p986
I1
sVd8uy03e
p987
I1
sVddu72d3
p988
I1
sVdkod6y7
p989
I4
sVd0dkwy2
p990
I1
sVdmsdjhl
p991
I1
sVdexl1gf
p992
I1
sVd8aehr6
p993
I5
sVdkbucqg
p994
I1
sVdkhwoz3
p995
I1
sVde55km6
p996
I7
sVdgycfiz
p997
I1
sVd0m03gz
p998
I1
sVdin9p9q
p999
I1
sVdskyhjm
p1000
I2
sVd1i262l
p1001
I2
sVdcvlbm5
p1002
I1
sVddrmnxm
p1003
I1
sVd1q1ftk
p1004
I1
sVd260a9e
p1005
I1
sVd02unnv
p1006
I2
sVdcj9hns
p1007
I7
sVdgxehn4
p1008
I1
sVd1j8tp9
p1009
I1
sVdc0q9m1
p1010
I1
sVdqezu12
p1011
I1
sVdixola6
p1012
I1
sVdg5kt14
p1013
I1
sVd2xyi5k
p1014
I2
sVdcqvx2k
p1015
I1
sVd5dzxqn
p1016
I1
sVd8a1gok
p1017
I1
sVd1hwanc
p1018
I1
sVdbycgt4
p1019
I1
sVdc3v1e6
p1020
I1
sVczxljbb
p1021
I1
sVddzqvmx
p1022
I1
sVd22u3o8
p1023
I1
sVd00s77z
p1024
I1
sVdshgkak
p1025
I1
sVdgv0z0s
p1026
I1
sVd2qjq75
p1027
I3
sVdbvqpkx
p1028
I2
sVd0p09ri
p1029
I1
sVdt941i1
p1030
I2
sVdo2oj1i
p1031
I2
sVdf1qhtz
p1032
I1
sVdszhren
p1033
I1
sVdtad6n6
p1034
I1
sVdk8nf8k
p1035
I1
sVdnz4v0t
p1036
I1
sVd84rajn
p1037
I1
sVddawbjj
p1038
I1
sVcz6dic8
p1039
I1
sVd59c1ni
p1040
I1
sVd0swaxc
p1041
I1
sVdc6op7y
p1042
I1
sVd91alik
p1043
I1
sVdgx87hi
p1044
I6
sVddk9mtw
p1045
I2
sVda3jy6k
p1046
I1
sVd1degmp
p1047
I3
sVczav3zi
p1048
I1
sVczlxf1q
p1049
I1
sVdjh3y2b
p1050
I3
sVdt9yrqh
p1051
I2
sVdqyqo3m
p1052
I1
sVdkgu4us
p1053
I1
sVdbffu87
p1054
I1
sVd7xrh9s
p1055
I3
sVdmgxql0
p1056
I2
sVd3atlce
p1057
I1
sVcymtjxp
p1058
I1
sVdasnpv0
p1059
I1
sVd9tw3a5
p1060
I2
sVdiotosv
p1061
I5
sVd32ksr4
p1062
I1
sVczhdxon
p1063
I2
sVd9vouqz
p1064
I1
sVczv2kxm
p1065
I5
sVdpx0fvj
p1066
I6
sVdgi7m1e
p1067
I1
sVdogf6ue
p1068
I1
sVczmycpq
p1069
I1
sVczsud7d
p1070
I2
sVd9xz63m
p1071
I2
sVcymfkb7
p1072
I2
sVdk64thy
p1073
I3
sVded0lor
p1074
I1
sVdhm9m4a
p1075
I1
sVdh0tbza
p1076
I1
sVd8oa56q
p1077
I1
sVd6qj2cc
p1078
I4
sVds3hl16
p1079
I1
sVd629jds
p1080
I1
sVd1689pa
p1081
I1
sVd1y62y9
p1082
I2
sVd7ghg42
p1083
I1
sVdjhwtvb
p1084
I1
sVdhxtqf5
p1085
I1
sVd6w0r91
p1086
I1
sVd040l6f
p1087
I1
sVdcchoi8
p1088
I4
sVdgrv6xp
p1089
I1
sVdkch2bw
p1090
I1
sVd57nee9
p1091
I1
sVd14947b
p1092
I1
sVdmrxcws
p1093
I1
sVcytwhue
p1094
I3
sVd5y3ljj
p1095
I2
sVczcdidx
p1096
I1
sVd06c3dj
p1097
I1
sVd5c4e8h
p1098
I3
sVdrxgsgr
p1099
I2
sVdgulbp4
p1100
I1
sVcyvyz5i
p1101
I1
sVd17woay
p1102
I1
sVdpbj7vy
p1103
I2
sVd2xessu
p1104
I1
sVdkkjbh4
p1105
I1
sVd1l0aay
p1106
I1
sVdcmrpty
p1107
I1
sVd3rdh3t
p1108
I1
sVd8irkj0
p1109
I1
sVdkjpivb
p1110
I2
sVdbmtrdp
p1111
I1
sVd1rhn9l
p1112
I1
sVcyim58t
p1113
I1
sVdemdi2y
p1114
I1
sVdrmq3lr
p1115
I1
sVd81ta0k
p1116
I1
sVdt9g1hv
p1117
I1
sVd1d4yy3
p1118
I2
sVdhvb4uv
p1119
I1
sVddn2wy6
p1120
I1
sVdmyzzde
p1121
I1
sVd03zf0p
p1122
I1
sVdmmsevw
p1123
I3
sVdba5du6
p1124
I1
sVda29ka8
p1125
I3
sVd76k4c5
p1126
I5
sVd0xqlg7
p1127
I5
sVdnjxo6y
p1128
I2
sVd50fmul
p1129
I7
sVdsyp7hf
p1130
I1
sVd1f816z
p1131
I1
sVd0txgqc
p1132
I2
sVd1e4bmu
p1133
I2
sVdrmu8qg
p1134
I1
sVdiixurm
p1135
I3
sVcyj9skh
p1136
I1
sVd0as2n5
p1137
I1
sVd7e4vxf
p1138
I1
sVd9na6wz
p1139
I2
sVd5dzrvm
p1140
I1
sVdrmdpsp
p1141
I1
sVdgx3nxv
p1142
I1
sVdgx404s
p1143
I3
sVdjh5q8j
p1144
I1
sVdfmxu2v
p1145
I1
sVdfo6e84
p1146
I1
sVd13m9su
p1147
I1
sVdboa197
p1148
I1
sVdnt2d4i
p1149
I1
sVdc9ftr9
p1150
I1
sVdqg7c73
p1151
I1
sVd6dtxz3
p1152
I2
sVd8v3eoa
p1153
I1
sVdbqg1ou
p1154
I1
sVd1c2vqy
p1155
I2
sVd81k130
p1156
I3
sVdjmd1gh
p1157
I1
sVdb580qt
p1158
I1
sVd2aa7ac
p1159
I2
sVdbsx8g2
p1160
I2
sVd2ebb5e
p1161
I1
sVdbe079s
p1162
I2
sVdayks6f
p1163
I1
sVde9bjqp
p1164
I1
sVdifqzb8
p1165
I2
sVd00gyrh
p1166
I2
sVdbch5de
p1167
I1
sVd1c500p
p1168
I1
sVdj9fpys
p1169
I1
sVdrmbb51
p1170
I3
sVd2tp7pq
p1171
I1
sVd1i7b0r
p1172
I2
sVczwxzvx
p1173
I1
sVdgul5ol
p1174
I5
sVdipo2nl
p1175
I2
sVdnislj7
p1176
I1
sVdi1mhoo
p1177
I1
sVdab3hon
p1178
I1
sVd0g80mh
p1179
I1
sVdnnzq0g
p1180
I1
sVdkxldjf
p1181
I1
sVdmiwett
p1182
I1
sVd4pnaa7
p1183
I1
sVdkez841
p1184
I2
sVddvnfcj
p1185
I1
sVd5kxatq
p1186
I1
sVdbvqluo
p1187
I1
sVd6r8d93
p1188
I1
sVd95yibc
p1189
I1
sVdgqjhnb
p1190
I1
sVd2zhnzf
p1191
I3
sVd4wao86
p1192
I1
sVd55gitj
p1193
I1
sVd0l2jid
p1194
I2
sVddl98p5
p1195
I1
sVdojfzmi
p1196
I1
sVd81xjxa
p1197
I1
sVdggy8vc
p1198
I1
sVday7e1v
p1199
I1
sVcyq2g28
p1200
I1
sVdidyetw
p1201
I2
sVdh4fxnw
p1202
I1
sVd78c0ui
p1203
I1
sVd1h1dn7
p1204
I1
sVdrmjknl
p1205
I2
sVdol0a7r
p1206
I3
sVdmzd2pe
p1207
I2
sVd5brygz
p1208
I1
sVdj9drqu
p1209
I1
sVdmtn8b4
p1210
I1
sVdf3ny0a
p1211
I3
sVde2sc8j
p1212
I1
sVd6uhmya
p1213
I4
sVdab3g5j
p1214
I1
sVdmnl97p
p1215
I2
sVdcmidpt
p1216
I2
sVdi3u3f1
p1217
I1
sVd1b70yi
p1218
I4
sVdhz2cvu
p1219
I2
sVd23nef0
p1220
I1
sVd2wwgi3
p1221
I1
sVcym2qfa
p1222
I1
sVd2syow0
p1223
I2
sVdb27fqr
p1224
I1
sVd0j2100
p1225
I1
sVczux1j1
p1226
I1
sVdakkq10
p1227
I1
sVdmin3fn
p1228
I1
sVdth77rp
p1229
I3
sVde7dbrs
p1230
I2
sVdh4vwnb
p1231
I2
sVdi9ph1c
p1232
I1
sVdab3ib8
p1233
I1
sVdbmogva
p1234
I1
sVdk8maar
p1235
I1
sVd8dlxvz
p1236
I2
sVd0yk3l8
p1237
I2
sVdndhe0u
p1238
I1
sVdi56ysv
p1239
I2
sVdhexry7
p1240
I1
sVd3ndraq
p1241
I1
sVd1i2dun
p1242
I6
sVdrminn0
p1243
I3
sVd66m0gd
p1244
I1
sVd37th8f
p1245
I1
sVdkvs8c4
p1246
I2
sVd5c97hi
p1247
I3
sVd9n0dhy
p1248
I1
sVdr1i3hi
p1249
I1
sVdgacy3x
p1250
I1
sVdco3a9v
p1251
I1
sVd5q0kmi
p1252
I3
sVd3fa2jx
p1253
I1
sVdhjo0lz
p1254
I1
sVd04iepd
p1255
I1
sVdbrle3r
p1256
I1
sVd6uhh97
p1257
I2
sVdd0maea
p1258
I1
sVd8a0shj
p1259
I4
sVd3lno47
p1260
I2
sVdnrc4m3
p1261
I1
sVczwabji
p1262
I1
sVczay1ty
p1263
I1
sVdh5nd44
p1264
I1
sVczux7gg
p1265
I1
sVczaialw
p1266
I2
sVdimlckt
p1267
I1
sVczxlomt
p1268
I1
sVd2w9c6c
p1269
I4
sVd00gz6f
p1270
I1
sVdffgh46
p1271
I1
sVd2rl9xu
p1272
I1
sVdr9a9pd
p1273
I1
sVd0vub7n
p1274
I8
sVd6bfrwz
p1275
I2
sVdqb5mj9
p1276
I1
sVd03z4s1
p1277
I1
sVd9lrbqj
p1278
I1
sVd90o05b
p1279
I1
sVd9ck5m0
p1280
I1
sVd1c5sht
p1281
I1
sVdaomjsn
p1282
I1
sVd1hvbuo
p1283
I2
sVdtfbux1
p1284
I1
sVd36a61r
p1285
I1
sVdfcqiqj
p1286
I1
sVdi2bl9h
p1287
I1
sVdh4x7rz
p1288
I3
sVdhikdiu
p1289
I1
sVdg6rlp3
p1290
I1
sVdgiapl4
p1291
I1
sVd0rtnwy
p1292
I1
sVdhseohh
p1293
I1
sVddwc142
p1294
I1
sVd4t77kk
p1295
I3
sVd9kxj12
p1296
I2
sVd36gaox
p1297
I1
sVd8a2xb2
p1298
I2
sVdd5o88n
p1299
I1
sVdhkn0mo
p1300
I1
sVdgsjk0c
p1301
I2
sVdqy0btr
p1302
I1
sVdmpizpp
p1303
I2
sVddzztry
p1304
I1
sVd2xg6a1
p1305
I1
sVdkfc5rd
p1306
I1
sVdo4wpba
p1307
I1
sVd3665w0
p1308
I1
sVd1hw2l0
p1309
I2
sVd3ase21
p1310
I2
sVdc74snx
p1311
I1
sVd1d4uoy
p1312
I3
sVd01miu9
p1313
I1
sVczolqbf
p1314
I1
sVdq1mj6g
p1315
I3
sVdcv1aba
p1316
I1
sVd37j0qe
p1317
I3
sVd5dilxp
p1318
I2
sVdpzhyy5
p1319
I4
sVdepojwc
p1320
I1
sVd368api
p1321
I1
sVd43ln7t
p1322
I1
sVdnddzvi
p1323
I1
sVdeuvihh
p1324
I1
sVd09h1nb
p1325
I3
sVdh0jup0
p1326
I1
sVdo649w1
p1327
I1
sVdiu6crp
p1328
I1
sVdg7oprs
p1329
I5
sVdho47th
p1330
I3
sVdj89row
p1331
I2
sVdk62xz2
p1332
I1
sVdgsh0g4
p1333
I1
sVdcjb0bi
p1334
I1
sVd9kq3cz
p1335
I1
sVdrg3938
p1336
I1
s.