(dp0
Vds6k4at
p1
I1
sVd9t4xmm
p2
I1
sVd9tyfea
p3
I1
sVd3anb3g
p4
I1
sVd9t74pv
p5
I1
sVdgbye50
p6
I1
sVdnwdp1a
p7
I1
sVd9tf24i
p8
I1
sVdej8aqd
p9
I1
sVd6rsdrv
p10
I2
sVdgs0sh5
p11
I1
sVdep21wz
p12
I1
sVd1wo9kl
p13
I1
sVd1wmz4v
p14
I1
sVde2p7a4
p15
I1
sVd6s4vts
p16
I1
sVdp2bphz
p17
I5
sVdq7pn9t
p18
I1
sVdgrxk3y
p19
I1
sVd9t7umg
p20
I1
sVdh3im4b
p21
I1
sVdecw5qy
p22
I2
sVd9tewhk
p23
I1
sVdhlht70
p24
I1
sVcyxil42
p25
I1
sVd5ejwqt
p26
I1
sVdjuaydw
p27
I1
sVdo2ru17
p28
I2
sVdgrwm8n
p29
I1
sVczc9h05
p30
I2
sVd9sv9is
p31
I5
sVd88eyfm
p32
I1
sVd6rx54m
p33
I2
sVd6rsgjs
p34
I2
sVdb125mm
p35
I1
sVdo2r880
p36
I2
sVdjrvub3
p37
I1
sVdk2lajs
p38
I1
sVd20ywkj
p39
I1
sVdp25slj
p40
I5
sVd59n5h6
p41
I1
sVdo3u7f6
p42
I3
sVdal2zk0
p43
I1
sVd59k07q
p44
I3
sVcyyd1qi
p45
I1
sVcypc6bn
p46
I1
sVd59p7yp
p47
I1
sVd9tmapb
p48
I3
sVdfi1ysi
p49
I1
sVdnej1uo
p50
I1
sVd6v8uij
p51
I1
sVdbf805l
p52
I1
sVddu04ut
p53
I1
sVd12jafd
p54
I1
sVddui03y
p55
I1
sVcyq0p3t
p56
I1
sVd6xptkm
p57
I1
sVdes28el
p58
I1
sVd66coq9
p59
I1
sVd9ts8j7
p60
I1
sVd7xdzbe
p61
I1
sVd6kkjd6
p62
I1
sVd3ao723
p63
I1
sVd9tllkl
p64
I1
sVdaol9qk
p65
I1
sVd59fp8h
p66
I1
sVda17zl6
p67
I1
sVdn35pp6
p68
I1
sVdhjeh7k
p69
I1
sVdiofzc3
p70
I1
sVdjg3g8f
p71
I1
sVd6ru5xv
p72
I2
s.