(dp0
Vdokppmq
p1
I1
sVdgfj9mk
p2
I2
sVcz8p4cz
p3
I1
sVdsku15n
p4
I1
sVdblpakn
p5
I1
sVdcak2k2
p6
I1
sVd20qaiz
p7
I1
sVdbjey8t
p8
I1
sVdbgwz2c
p9
I1
sVd0j09jy
p10
I1
sVdjfqr2e
p11
I1
sVdedar83
p12
I1
sVcyzl0x2
p13
I1
sVdhtd9zw
p14
I1
sVd8fyktf
p15
I1
sVd602q2a
p16
I1
sVczziswo
p17
I1
sVd2aj37q
p18
I1
sVd4cy5r9
p19
I1
sVd30px35
p20
I1
sVd791g1i
p21
I1
sVdfnb6al
p22
I1
sVdcjtlok
p23
I1
sVda95vgh
p24
I1
sVd1h10fz
p25
I1
sVdiemi7g
p26
I1
sVddfi5mf
p27
I1
sVdb8juuy
p28
I1
sVd7wuiq5
p29
I1
sVdf0qghy
p30
I2
sVd6snd33
p31
I1
sVdi9i6e2
p32
I1
sVdq28uwh
p33
I2
sVczvtexa
p34
I1
sVd5cti0a
p35
I1
sVd8p1v4n
p36
I1
sVd4mn363
p37
I1
sVds19aq4
p38
I1
sVdo0lxbh
p39
I1
sVd314w8l
p40
I1
sVdeg6sh3
p41
I1
sVcz4ops2
p42
I1
sVczomf8p
p43
I1
sVd2i8jis
p44
I1
sVdgeykqf
p45
I2
sVdjnolo5
p46
I1
sVdfvo0yr
p47
I1
sVd0i0u1l
p48
I2
sVd0u0fy2
p49
I2
sVdgvx30i
p50
I1
sVdmq72dm
p51
I1
sVd1hnght
p52
I1
sVdbtwz05
p53
I1
sVdsr6rz4
p54
I1
sVddggmkp
p55
I1
sVczf5jkd
p56
I4
sVdgpz22e
p57
I1
sVd9nrkhw
p58
I1
sVdgo9jrg
p59
I1
sVdcc55ip
p60
I1
sVd5yqbo0
p61
I1
sVd3monj5
p62
I1
sVdpuqc1c
p63
I1
sVdq6l06i
p64
I1
sVd2rcqsm
p65
I1
sVcyjso6h
p66
I1
sVd49eg8u
p67
I1
sVd1y4d2e
p68
I1
sVdhz7gxu
p69
I1
sVdnxzyty
p70
I1
sVd99s693
p71
I1
sVdink3r7
p72
I1
sVdc9bwvd
p73
I1
sVd6rtyj7
p74
I1
sVdirs1w3
p75
I1
sVdqqn01f
p76
I1
sVd9sz74g
p77
I1
sVdncromu
p78
I1
sVdemplu4
p79
I1
sVd5qpp2n
p80
I1
sVd71oeo3
p81
I1
sVd186er8
p82
I1
sVd2zhhb9
p83
I1
sVdb124bk
p84
I1
sVd25upf4
p85
I1
sVdgd3brj
p86
I1
sVd66lxfh
p87
I1
sVdepsdro
p88
I1
sVd9ekkok
p89
I1
sVd73o4il
p90
I1
sVdiwpj48
p91
I1
sVdg4a4u7
p92
I1
sVd2djzze
p93
I2
sVdenyiq6
p94
I1
sVde7rbz6
p95
I1
sVcz8038q
p96
I1
sVdshaprd
p97
I1
sVdhz857e
p98
I1
sVdfmuan3
p99
I1
sVd7nh8sr
p100
I1
sVdj9k9uw
p101
I1
sVdrpcbg1
p102
I1
sVdcl4ver
p103
I1
sVdiwy9ql
p104
I1
sVd5brcbp
p105
I1
sVcz2dk36
p106
I1
sVd792fhi
p107
I2
sVdfwbizg
p108
I1
sVd2ez10f
p109
I1
sVddkbfwg
p110
I1
sVdktiygp
p111
I1
sVczw6i8i
p112
I3
sVdmgr8s7
p113
I1
sVdk2ykb9
p114
I1
sVdr54hj9
p115
I1
sVd8veu2e
p116
I1
sVcz17gdj
p117
I1
sVd02ymow
p118
I1
sVczvn2ka
p119
I1
sVdhgqj13
p120
I1
sVd1lt5ta
p121
I1
sVdpgv818
p122
I1
sVddnp3zn
p123
I1
sVd9nreh1
p124
I1
sVdkw7kzo
p125
I1
sVds3o69n
p126
I1
sVd44lfw1
p127
I2
sVd6ai92b
p128
I1
sVdgf3wts
p129
I1
sVdbbx9p0
p130
I1
sVd8fwp8q
p131
I1
sVdh9z2qe
p132
I1
sVdsvmqzz
p133
I1
sVdc1uzmo
p134
I1
sVd4jcwhd
p135
I1
sVdcplrde
p136
I1
sVd0jy3di
p137
I1
sVd9nvhc7
p138
I1
sVdos1v4k
p139
I1
sVd1nlmms
p140
I1
sVdbcq70y
p141
I1
sVd0b4352
p142
I1
sVd7xns72
p143
I1
sVdjcsx7u
p144
I1
sVd2u9ruj
p145
I1
sVdccu71p
p146
I1
sVdbuoo06
p147
I1
sVdt11vm4
p148
I1
sVdcsit44
p149
I1
sVde15mls
p150
I1
sVdj18bls
p151
I1
sVd06zxx3
p152
I1
sVdfymgqy
p153
I1
sVdkmv1dx
p154
I1
sVcyn1a4j
p155
I1
sVdsnrp2v
p156
I1
sVd92h6vd
p157
I2
sVd1zaj07
p158
I1
sVd4opxcp
p159
I1
sVd4h3rco
p160
I1
sVd6vwi3z
p161
I1
sVdjtauft
p162
I1
sVd123j3e
p163
I1
sVcyth451
p164
I1
sVd2g1dsv
p165
I1
sVd2ykz8g
p166
I1
sVdg9bds8
p167
I1
sVdj7ilk9
p168
I1
sVd8h4q49
p169
I1
sVd5zjbx3
p170
I1
sVd8jlf19
p171
I1
sVdszmm44
p172
I1
sVdpq0bwp
p173
I1
sVdd7pa6p
p174
I1
sVdht1edt
p175
I1
sVd8jmu94
p176
I1
sVdhp7fw0
p177
I1
sVdnbm6zs
p178
I1
sVdb4ob6m
p179
I1
sVdeegptu
p180
I3
sVd24e30j
p181
I1
sVd3w2izi
p182
I1
sVd0fbd8x
p183
I1
sVd2zvidy
p184
I1
sVdbezw0l
p185
I1
sVczhz4ee
p186
I1
sVczadpm0
p187
I1
sVd2e41cu
p188
I1
sVd26ij36
p189
I1
sVczn78z9
p190
I2
sVdehina9
p191
I1
sVdf3u6gg
p192
I1
sVczgykra
p193
I1
sVd52eziw
p194
I1
sVczeoe8w
p195
I1
sVd3msekn
p196
I1
sVd9ifvnj
p197
I2
sVdcbsr3i
p198
I1
sVdpv453x
p199
I1
sVd5oqxpe
p200
I1
sVd8880av
p201
I1
sVdcj8yu5
p202
I2
sVd4c161n
p203
I1
sVdj8al0i
p204
I1
sVd12rc1o
p205
I1
sVd5gr3ta
p206
I1
sVd5mvf4o
p207
I1
sVd6kq8ff
p208
I1
sVd3vx5m0
p209
I1
sVdjdx9wh
p210
I1
sVd2ltrt0
p211
I1
sVdd9ykui
p212
I1
sVdgjzktg
p213
I1
sVd40p75m
p214
I1
sVdd6rytd
p215
I1
sVdmga97w
p216
I1
sVdfkozho
p217
I1
sVd1qe2p2
p218
I1
sVdcbja9x
p219
I1
sVd1qdhq8
p220
I1
sVd6a1oqd
p221
I1
sVdip1rkd
p222
I1
sVdejndwt
p223
I1
sVdpw8v53
p224
I1
sVdfb815u
p225
I1
sVczd2aof
p226
I3
sVdpodot8
p227
I1
sVdiqjg6j
p228
I1
sVd2wtnsy
p229
I1
sVdip3jae
p230
I1
sVd97hxh5
p231
I1
sVdnaxpbq
p232
I1
sVdazgtae
p233
I1
sVdr886nr
p234
I1
sVd8hbb8x
p235
I1
sVd9eqfqr
p236
I1
sVdtehsu5
p237
I1
sVczw25vf
p238
I1
sVdc74tbd
p239
I1
sVd3w38h2
p240
I1
sVd18fzuf
p241
I1
sVd53uch5
p242
I1
sVd0b4guy
p243
I1
sVdfttm5p
p244
I1
sVdmgzzu9
p245
I2
sVd1j1imk
p246
I1
sVd6x0tif
p247
I1
sVd95eiwv
p248
I1
sVcz0lqiv
p249
I1
sVd6c0wwd
p250
I1
sVcylc273
p251
I2
sVdo22wlo
p252
I1
sVd0eqpv5
p253
I1
sVd92l283
p254
I1
sVdgl30g4
p255
I1
sVd699zm2
p256
I1
sVday1dbe
p257
I1
sVd90m08u
p258
I1
sVd2ykuxk
p259
I1
sVd1xj6s9
p260
I1
sVd7z59t0
p261
I1
sVdenwuc3
p262
I1
sVdivp7qu
p263
I1
sVdbwogvj
p264
I1
sVdsqqb7z
p265
I1
sVdmodiqr
p266
I1
sVd52ciri
p267
I1
sVdgwgp7k
p268
I1
sVdejdyx3
p269
I1
sVdj0oy0q
p270
I1
sVd93m0j8
p271
I1
sVdfv4431
p272
I1
sVdi5ao9z
p273
I1
sVd1yw2oe
p274
I1
sVdjdswza
p275
I1
sVdmiobfi
p276
I1
sVdpws1q0
p277
I1
sVdip0zhe
p278
I1
sVddhrd66
p279
I1
sVd854xlu
p280
I1
sVdj4gb98
p281
I1
sVdfvs8mu
p282
I6
sVdgfq5a3
p283
I1
sVdix19kf
p284
I1
sVdk3984t
p285
I1
sVd4odjcn
p286
I1
sVdj317c8
p287
I1
sVdqzg211
p288
I1
sVd0taxpl
p289
I1
sVdebv1xa
p290
I2
sVdpf68pe
p291
I2
sVdhftm8t
p292
I1
sVd1rd4q8
p293
I1
sVcz3c62m
p294
I1
sVdonkd50
p295
I1
sVdejbdk3
p296
I1
sVczjbmcb
p297
I1
sVdflgfpg
p298
I1
sVd7eoqy7
p299
I1
sVd8zkdej
p300
I1
sVd1r50c5
p301
I1
sVd2ti9vh
p302
I1
sVdcajjbd
p303
I1
sVd2zdmng
p304
I3
sVdbkv2e3
p305
I1
sVdegnnua
p306
I2
sVdbc9buv
p307
I2
sVd7wxsme
p308
I1
sVczvsnbc
p309
I1
sVdqzvk0o
p310
I3
sVd2pvhav
p311
I1
sVdgezuna
p312
I2
sVd2r3qo3
p313
I1
sVd5shlot
p314
I1
sVds16id9
p315
I1
sVd74tr01
p316
I1
sVdr8onid
p317
I1
sVd6vkxus
p318
I1
sVdf5dqyd
p319
I1
sVdhlulj0
p320
I1
sVd5ne9y2
p321
I1
sVd3yptzi
p322
I1
sVddtpbym
p323
I1
sVd0h4h8a
p324
I1
sVdk90lc7
p325
I1
sVdi7habp
p326
I1
sVdsp30i5
p327
I1
sVd7splxj
p328
I1
sVdi69cz4
p329
I1
sVcylx3e8
p330
I1
sVd7k6ueq
p331
I2
sVdr29373
p332
I1
sVdgez0br
p333
I1
sVd4nvykx
p334
I2
sVdo4qnbl
p335
I1
sVdr2dvov
p336
I2
sVd8jseey
p337
I1
sVdjy7lc1
p338
I1
sVd7k5yx5
p339
I1
sVdocaiho
p340
I2
sVd0o2o23
p341
I1
sVdplqw0p
p342
I1
sVderb3be
p343
I1
sVcyl9mk9
p344
I1
sVde73ylk
p345
I1
sVczlvlww
p346
I1
sVdkv1hmi
p347
I1
sVdbp4v3x
p348
I1
sVcypzfo3
p349
I1
sVdeltd8j
p350
I2
sVdns99oq
p351
I1
sVcync4ub
p352
I1
sVd1o7dri
p353
I1
sVdeybzd3
p354
I1
sVdddo5s0
p355
I1
sVd9mquj5
p356
I1
sVd9eq7ed
p357
I1
sVd6dija7
p358
I1
sVdpfndbb
p359
I1
sVdiqctmu
p360
I1
sVd68sflo
p361
I1
sVdgey7za
p362
I1
sVd2eq6re
p363
I1
sVd4g5814
p364
I1
sVd70ulyd
p365
I1
sVdd1yji5
p366
I1
sVd55to4x
p367
I1
sVdrovdk2
p368
I1
sVdad0saa
p369
I2
sVdkql2hb
p370
I1
sVdbdig9t
p371
I1
sVdio8jby
p372
I1
sVdiaw9ht
p373
I1
sVdri72ky
p374
I1
s.