(dp0
Vcyqs8bq
p1
I1
s.(dp0
Vcyqs8bq
p1
I1
sVcyugx5y
p2
I1
s.(dp0
Vcyqs8bq
p1
I1
sVcz1t400
p2
I1
s.(dp0
Vcyqs8bq
p1
I1
sVcz66a75
p2
I1
s.(dp0
Vcyqs8bq
p1
I1
sVcz8b6us
p2
I1
s.(dp0
Vcyqs8bq
p1
I1
sVcznxaar
p2
I1
s.(dp0
Vcyqs8bq
p1
I1
sVczrqcn3
p2
I1
s.(dp0
Vcyqs8bq
p1
I1
sVczzfma2
p2
I1
s.(dp0
Vcyqs8bq
p1
I1
sVd08zgv7
p2
I1
s.(dp0
Vcyqs8bq
p1
I1
sVd0wk4xy
p2
I1
s.(dp0
Vcyqs8bq
p1
I1
sVd17yg6g
p2
I1
s.(dp0
Vcyqs8bq
p1
I1
sVd1vxec3
p2
I1
s.(dp0
Vcyqs8bq
p1
I1
sVd30uxzb
p2
I1
s.(dp0
Vcyqs8bq
p1
I1
sVd45459n
p2
I1
s.(dp0
Vcyqs8bq
p1
I1
sVd57ecma
p2
I1
s.(dp0
Vcyqs8bq
p1
I1
sVd58nrtf
p2
I1
s.(dp0
Vcyqs8bq
p1
I1
sVd5kz5xg
p2
I1
s.(dp0
Vcyqs8bq
p1
I1
sVd5xjalw
p2
I1
s.(dp0
Vcyqs8bq
p1
I1
sVd75nttd
p2
I1
s.(dp0
Vcyqs8bq
p1
I1
sVd76l1ct
p2
I1
s.(dp0
Vcyqs8bq
p1
I1
sVd7bs49e
p2
I1
s.(dp0
Vcyqs8bq
p1
I1
sVd7k6vaf
p2
I1
s.(dp0
Vcyqs8bq
p1
I1
sVd7k6vaf
p2
I1
s.(dp0
Vcyqs8bq
p1
I1
sVd7k6vaf
p2
I1
s.(dp0
Vcyqs8bq
p1
I1
sVd7k6vaf
p2
I1
s.(dp0
Vcyqs8bq
p1
I1
sVd7k6vaf
p2
I1
s.(dp0
Vcyqs8bq
p1
I1
sVd7k6vaf
p2
I1
s.(dp0
Vcyqs8bq
p1
I1
sVd8fyktf
p2
I1
s.(dp0
Vcyqs8bq
p1
I1
sVd8jnt5u
p2
I1
s.(dp0
Vcyqs8bq
p1
I1
sVd9eqfqr
p2
I1
s.(dp0
Vcyqs8bq
p1
I1
sVdadkxex
p2
I1
s.(dp0
Vcyqs8bq
p1
I1
sVdawgvsl
p2
I1
s.(dp0
Vcyqs8bq
p1
I1
sVdax758v
p2
I1
s.(dp0
Vcyqs8bq
p1
I1
sVdb6v7ia
p2
I1
s.(dp0
Vcyqs8bq
p1
I1
sVdbbx9p0
p2
I1
s.(dp0
Vcyqs8bq
p1
I1
sVdbosjfy
p2
I1
s.(dp0
Vcyqs8bq
p1
I1
sVdbt035h
p2
I1
s.(dp0
Vcyqs8bq
p1
I1
sVdceb1ca
p2
I1
s.(dp0
Vcyqs8bq
p1
I1
sVdckof7a
p2
I1
s.(dp0
Vcyqs8bq
p1
I1
sVdcmyrfc
p2
I1
s.(dp0
Vcyqs8bq
p1
I1
sVdd1i39r
p2
I1
s.(dp0
Vcyqs8bq
p1
I1
sVdddo5s0
p2
I1
s.(dp0
Vcyqs8bq
p1
I1
sVddu9cti
p2
I1
s.(dp0
Vcyqs8bq
p1
I1
sVdempbhr
p2
I1
s.(dp0
Vcyqs8bq
p1
I1
sVdenwr0d
p2
I1
s.(dp0
Vcyqs8bq
p1
I1
sVdenwuc3
p2
I1
s.(dp0
Vcyqs8bq
p1
I1
sVdenyiq6
p2
I1
s.(dp0
Vcyqs8bq
p1
I1
sVdet6zys
p2
I1
s.(dp0
Vcyqs8bq
p1
I1
sVdgrroqp
p2
I1
s.(dp0
Vcyqs8bq
p1
I1
sVdh2qlww
p2
I1
s.(dp0
Vcyqs8bq
p1
I1
sVdht1edt
p2
I1
s.(dp0
Vcyqs8bq
p1
I1
sVdhz857e
p2
I1
s.(dp0
Vcyqs8bq
p1
I1
sVdjd1evu
p2
I1
s.(dp0
Vcyqs8bq
p1
I1
sVdkll709
p2
I1
s.(dp0
Vcyqs8bq
p1
I1
sVdnwgx0r
p2
I1
s.(dp0
Vcyqs8bq
p1
I1
sVdro3azl
p2
I1
s.(dp0
Vcyqs8bq
p1
I1
sVds8zkrt
p2
I1
s.(dp0
Vcyqs8bq
p1
I1
sVdsdiwxn
p2
I1
s.(dp0
Vcyqs8bq
p1
I1
sVdsytj7h
p2
I1
s.(dp0
Vcyqs8bq
p1
I1
sVdt8b2dl
p2
I1
s.(dp0
Vcyqs8bq
p1
I1
sVdtamugc
p2
I1
s.