(dp0
Vcyr6njw
p1
I1
sVdq6thbn
p2
I1
sVd2qzh55
p3
I1
sVd73suv2
p4
I1
sVd6x2oc3
p5
I1
sVdcr6crb
p6
I1
sVdddyo9x
p7
I1
sVdcsccmx
p8
I1
sVcz4zizd
p9
I1
sVdjebybr
p10
I1
sVdrwwk9s
p11
I1
sVd4zq50g
p12
I1
sVds7ufx8
p13
I1
sVd1rhmnl
p14
I1
sVcykso7y
p15
I1
sVdfuvs8g
p16
I1
sVdgi6v05
p17
I1
sVdi8ws9a
p18
I1
sVd18sdrx
p19
I1
sVd8m11qw
p20
I3
sVdaqbstm
p21
I1
sVczfib6v
p22
I1
sVdstdo60
p23
I2
sVd2khmab
p24
I1
sVd9bw1jm
p25
I1
sVdae79az
p26
I1
sVd2ipxxu
p27
I1
sVdhtm90n
p28
I1
sVd737j96
p29
I1
sVd6zj7ze
p30
I1
sVdc5r865
p31
I1
sVdabguyj
p32
I1
sVd1zxuji
p33
I1
sVd5cxigm
p34
I1
sVcyw07fr
p35
I1
s.