(dp0
Vd04k8pe
p1
I1
s.(dp0
Vd04k8pe
p1
I1
sVd31xa3d
p2
I1
s.(dp0
Vd9mo2vc
p1
I1
sVd04k8pe
p2
I1
s.(dp0
Vd04k8pe
p1
I1
sVda8mhlt
p2
I1
s.(dp0
Vde3z1wx
p1
I1
sVd04k8pe
p2
I1
s.(dp0
Vdglflcf
p1
I1
sVd04k8pe
p2
I1
s.(dp0
Vdhfjfjc
p1
I1
sVd04k8pe
p2
I1
s.(dp0
Vdn58pyw
p1
I1
sVd04k8pe
p2
I1
s.(dp0
Vdnmdxnu
p1
I1
sVd04k8pe
p2
I1
s.