(dp0
Vcyjj1na
p1
I1
s.(dp0
Vcytfto7
p1
I1
sVcyjj1na
p2
I1
s.(dp0
Vcyytkeb
p1
I1
sVcyjj1na
p2
I1
s.(dp0
Vczi72bk
p1
I1
sVcyjj1na
p2
I1
s.(dp0
Vcyjj1na
p1
I1
sVd06h1ar
p2
I1
s.(dp0
Vcyjj1na
p1
I1
sVd09nxa9
p2
I1
s.(dp0
Vd0bs7ug
p1
I1
sVcyjj1na
p2
I1
s.(dp0
Vd0x3s7j
p1
I1
sVcyjj1na
p2
I1
s.(dp0
Vd133soz
p1
I1
sVcyjj1na
p2
I1
s.(dp0
Vcyjj1na
p1
I1
sVd159ybx
p2
I1
s.(dp0
Vd18vo2l
p1
I1
sVcyjj1na
p2
I1
s.(dp0
Vcyjj1na
p1
I1
sVd1s47ho
p2
I1
s.(dp0
Vcyjj1na
p1
I1
sVd1xcfbr
p2
I1
s.(dp0
Vcyjj1na
p1
I1
sVd2m4wie
p2
I1
s.(dp0
Vd2o8voe
p1
I1
sVcyjj1na
p2
I1
s.(dp0
Vd2og6c0
p1
I1
sVcyjj1na
p2
I1
s.(dp0
Vd2quzzk
p1
I1
sVcyjj1na
p2
I1
s.(dp0
Vd2rnlnj
p1
I1
sVcyjj1na
p2
I1
s.(dp0
Vcyjj1na
p1
I1
sVd3845uc
p2
I1
s.(dp0
Vd38pot1
p1
I1
sVcyjj1na
p2
I1
s.(dp0
Vd3hiatk
p1
I1
sVcyjj1na
p2
I1
s.(dp0
Vd3hiatk
p1
I1
sVcyjj1na
p2
I1
s.(dp0
Vcyjj1na
p1
I1
sVd40wrd3
p2
I1
s.(dp0
Vcyjj1na
p1
I1
sVd40wrd3
p2
I1
s.(dp0
Vcyjj1na
p1
I1
sVd47cvdx
p2
I1
s.(dp0
Vcyjj1na
p1
I1
sVd4c39y4
p2
I1
s.(dp0
Vd4ju5r1
p1
I1
sVcyjj1na
p2
I1
s.(dp0
Vd4wd1c3
p1
I1
sVcyjj1na
p2
I1
s.(dp0
Vd4xcy6i
p1
I1
sVcyjj1na
p2
I1
s.(dp0
Vcyjj1na
p1
I1
sVd5g6rhn
p2
I1
s.(dp0
Vd5xafr7
p1
I1
sVcyjj1na
p2
I1
s.(dp0
Vd6u9etg
p1
I1
sVcyjj1na
p2
I1
s.(dp0
Vcyjj1na
p1
I1
sVd717ayw
p2
I1
s.(dp0
Vcyjj1na
p1
I1
sVd7qetvu
p2
I1
s.(dp0
Vd7vgk1l
p1
I1
sVcyjj1na
p2
I1
s.(dp0
Vcyjj1na
p1
I1
sVd82owar
p2
I1
s.(dp0
Vcyjj1na
p1
I1
sVd8fphf0
p2
I1
s.(dp0
Vd8mo2tq
p1
I1
sVcyjj1na
p2
I1
s.(dp0
Vd9024ie
p1
I1
sVcyjj1na
p2
I1
s.(dp0
Vd904f4z
p1
I1
sVcyjj1na
p2
I1
s.(dp0
Vcyjj1na
p1
I1
sVd945rbi
p2
I1
s.(dp0
Vdabn7bd
p1
I1
sVcyjj1na
p2
I1
s.(dp0
Vcyjj1na
p1
I1
sVdakdomr
p2
I1
s.(dp0
Vcyjj1na
p1
I1
sVdakdomr
p2
I1
s.(dp0
Vcyjj1na
p1
I1
sVdakdomr
p2
I1
s.(dp0
Vcyjj1na
p1
I1
sVdakdomr
p2
I1
s.(dp0
Vdakqaar
p1
I1
sVcyjj1na
p2
I1
s.(dp0
Vdaqenck
p1
I1
sVcyjj1na
p2
I1
s.(dp0
Vdaqenck
p1
I1
sVcyjj1na
p2
I1
s.(dp0
Vcyjj1na
p1
I1
sVdboq1hb
p2
I1
s.(dp0
Vdbpkdfz
p1
I1
sVcyjj1na
p2
I1
s.(dp0
Vdbpklql
p1
I1
sVcyjj1na
p2
I1
s.(dp0
Vdbvq2kz
p1
I1
sVcyjj1na
p2
I1
s.(dp0
Vdbz4n6k
p1
I1
sVcyjj1na
p2
I1
s.(dp0
Vcyjj1na
p1
I1
sVdc1g0cy
p2
I1
s.(dp0
Vdcb0pqo
p1
I1
sVcyjj1na
p2
I1
s.(dp0
Vdcf9sc0
p1
I1
sVcyjj1na
p2
I1
s.(dp0
Vdcnblzq
p1
I1
sVcyjj1na
p2
I1
s.(dp0
Vdcnblzq
p1
I1
sVcyjj1na
p2
I1
s.(dp0
Vcyjj1na
p1
I1
sVdcw9d2s
p2
I1
s.(dp0
Vcyjj1na
p1
I1
sVdcw9d2s
p2
I1
s.(dp0
Vcyjj1na
p1
I1
sVdcw9d2s
p2
I1
s.(dp0
Vcyjj1na
p1
I1
sVdcw9d2s
p2
I1
s.(dp0
Vdd4xf01
p1
I1
sVcyjj1na
p2
I1
s.(dp0
Vddebble
p1
I1
sVcyjj1na
p2
I1
s.(dp0
Vde26bqv
p1
I1
sVcyjj1na
p2
I1
s.(dp0
Vdeh1kdr
p1
I1
sVcyjj1na
p2
I1
s.(dp0
Vcyjj1na
p1
I1
sVders4dz
p2
I1
s.(dp0
Vdf8coss
p1
I1
sVcyjj1na
p2
I1
s.(dp0
Vdfo6e84
p1
I1
sVcyjj1na
p2
I1
s.(dp0
Vdfvc4sz
p1
I1
sVcyjj1na
p2
I1
s.(dp0
Vdfxffak
p1
I1
sVcyjj1na
p2
I1
s.(dp0
Vdfzgsv4
p1
I1
sVcyjj1na
p2
I1
s.(dp0
Vdfzvx4y
p1
I1
sVcyjj1na
p2
I1
s.(dp0
Vcyjj1na
p1
I1
sVdg750pw
p2
I1
s.(dp0
Vdgc246o
p1
I1
sVcyjj1na
p2
I1
s.(dp0
Vdgqqsdg
p1
I1
sVcyjj1na
p2
I1
s.(dp0
Vdgwpqox
p1
I1
sVcyjj1na
p2
I1
s.(dp0
Vdh8dsu8
p1
I1
sVcyjj1na
p2
I1
s.(dp0
Vdh8im2q
p1
I1
sVcyjj1na
p2
I1
s.(dp0
Vdhizwb0
p1
I1
sVcyjj1na
p2
I1
s.(dp0
Vcyjj1na
p1
I1
sVdhkl39j
p2
I1
s.(dp0
Vcyjj1na
p1
I1
sVdhzrx0i
p2
I1
s.(dp0
Vcyjj1na
p1
I1
sVdi8urgc
p2
I1
s.(dp0
Vdih474n
p1
I1
sVcyjj1na
p2
I1
s.(dp0
Vcyjj1na
p1
I1
sVditgt64
p2
I1
s.(dp0
Vdixqqgk
p1
I1
sVcyjj1na
p2
I1
s.(dp0
Vdj5c3wp
p1
I1
sVcyjj1na
p2
I1
s.(dp0
Vdjhv0l1
p1
I1
sVcyjj1na
p2
I1
s.(dp0
Vdjjf7zb
p1
I1
sVcyjj1na
p2
I1
s.(dp0
Vdjreh03
p1
I1
sVcyjj1na
p2
I1
s.(dp0
Vdjufqcd
p1
I1
sVcyjj1na
p2
I1
s.(dp0
Vdkszdhi
p1
I1
sVcyjj1na
p2
I1
s.(dp0
Vdky1v87
p1
I1
sVcyjj1na
p2
I1
s.(dp0
Vcyjj1na
p1
I1
sVdmixzv0
p2
I1
s.(dp0
Vdmlol7h
p1
I1
sVcyjj1na
p2
I1
s.(dp0
Vdmr0ji5
p1
I1
sVcyjj1na
p2
I1
s.(dp0
Vdmr0ji5
p1
I1
sVcyjj1na
p2
I1
s.(dp0
Vcyjj1na
p1
I1
sVdn10g6s
p2
I1
s.(dp0
Vdn1gugy
p1
I1
sVcyjj1na
p2
I1
s.(dp0
Vcyjj1na
p1
I1
sVdn1o3sl
p2
I1
s.(dp0
Vcyjj1na
p1
I1
sVdn10g6s
p2
I1
s.(dp0
Vdn1gugy
p1
I1
sVcyjj1na
p2
I1
s.(dp0
Vcyjj1na
p1
I1
sVdn1o3sl
p2
I1
s.(dp0
Vcyjj1na
p1
I1
sVdobcsuv
p2
I1
s.(dp0
Vdoeo82o
p1
I1
sVcyjj1na
p2
I1
s.(dp0
Vcyjj1na
p1
I1
sVdp7rto1
p2
I1
s.(dp0
Vdpkv5vk
p1
I1
sVcyjj1na
p2
I1
s.(dp0
Vdp(dp0
Vdtes8tt
p1
I1
sVcyjj1na
p2
I1
s.