(dp0
Vdhwonap
p1
I1
sVd3facta
p2
I1
sVdd5pyjy
p3
I1
sVd4d3fmn
p4
I1
sVd19eqgx
p5
I1
sVddxpgox
p6
I1
sVdej7pmd
p7
I1
sVdh0wnsy
p8
I1
sVdh6we0c
p9
I1
sVd4bwyui
p10
I1
sVd1xk8t5
p11
I1
sVdf1v5vd
p12
I1
sVddia9hg
p13
I1
sVczkt8qv
p14
I1
sVd1kncps
p15
I1
sVdaxwxv9
p16
I1
sVdahcdg4
p17
I1
sVd1f8w3a
p18
I1
sVczmaao9
p19
I1
sVd1esqc5
p20
I1
sVdgpbxn4
p21
I1
sVdjanmdl
p22
I1
sVd86mxx6
p23
I1
sVdeaikdc
p24
I1
sVdgwkwx5
p25
I2
sVdkjyqkt
p26
I1
sVd1pzbwa
p27
I1
sVdgt62js
p28
I1
sVd2yn45i
p29
I1
sVd0zhlsm
p30
I1
sVczc7uvl
p31
I1
sVd5p0d4t
p32
I1
sVdczjf1f
p33
I1
sVde2omta
p34
I1
sVd1efy89
p35
I1
sVda1qwxi
p36
I1
sVdcfkvrk
p37
I1
sVd90zf06
p38
I2
sVdjbmzb3
p39
I1
sVd1fki7g
p40
I1
sVde60dql
p41
I1
sVdmsh64o
p42
I1
sVdco207k
p43
I1
sVd1v2hpd
p44
I1
sVdog99nl
p45
I1
sVdog9ppm
p46
I1
sVd1btxxz
p47
I1
sVde4r7bu
p48
I1
sVdovr7tn
p49
I1
sVd1t3p7l
p50
I2
sVdho8q90
p51
I1
sVcywxuub
p52
I1
sVd04vs6e
p53
I1
sVd5aqo82
p54
I1
sVd1iqy29
p55
I1
sVdj1u5yq
p56
I2
sVdp1iydz
p57
I2
sVd159ybx
p58
I1
sVdbvmr7j
p59
I1
sVd00c80q
p60
I1
sVd3vwglr
p61
I1
sVddlfdyb
p62
I1
sVdkk9j2m
p63
I2
sVdf9undi
p64
I1
sVd1urtsc
p65
I1
sVd4bhn4q
p66
I1
sVcyjergl
p67
I1
sVddy9145
p68
I1
sVczwnfvu
p69
I1
sVdcij1y0
p70
I1
sVdiqmbla
p71
I1
sVdjl71f9
p72
I1
sVdf1w4cp
p73
I1
sVd1s54yz
p74
I1
sVdatfyjg
p75
I1
sVdkkxcte
p76
I1
sVd0gl7o7
p77
I1
sVdqt853d
p78
I1
sVcz73xr1
p79
I1
sVdbk4mgn
p80
I1
sVdf0bep6
p81
I1
sVdbrle3r
p82
I1
sVdhv7ewe
p83
I1
s.