(dp0
Vczt1jm8
p1
I2
sVde6kwan
p2
I1
sVdnhk2b6
p3
I1
sVdh331y9
p4
I1
sVd0m6i5m
p5
I1
sVdb1kitl
p6
I1
sVczlosv1
p7
I1
sVdk9q5sm
p8
I5
sVddiw16v
p9
I2
sVd2iwg0t
p10
I1
sVd7eefz9
p11
I1
sVdh43dk1
p12
I3
sVd2zztwg
p13
I1
sVczhnygl
p14
I1
sVd244rw8
p15
I1
sVd0hpigl
p16
I1
sVd4fmd08
p17
I1
sVd8n7ivg
p18
I6
sVcylcm6w
p19
I1
sVd3cguya
p20
I5
sVd1oyeqc
p21
I2
sVd40ufdc
p22
I1
sVdgkcn3j
p23
I2
sVdmrbsu8
p24
I1
sVdck6m7z
p25
I1
sVdmqhsyi
p26
I1
sVd80rlu0
p27
I4
sVdhi6l4g
p28
I1
sVdj5j4r1
p29
I1
sVda74851
p30
I2
sVd2t4aol
p31
I4
sVdggsqaa
p32
I1
sVdk51lw1
p33
I4
sVdqipj0g
p34
I1
sVdq6mu6f
p35
I2
sVd0y0k0h
p36
I2
sVdgtw8c5
p37
I1
sVdj4xxn5
p38
I1
sVcztnaf8
p39
I1
sVdrol2r6
p40
I3
sVd1yn967
p41
I1
sVdbw9f5x
p42
I1
sVdfrq69p
p43
I1
sVdng8mp5
p44
I1
sVd0w7f53
p45
I1
sVd032r13
p46
I1
sVd44a339
p47
I1
sVdega51v
p48
I2
sVdcgchi1
p49
I2
sVd6pr5cj
p50
I1
sVdj1yg3l
p51
I1
sVd1aufdk
p52
I1
sVdrw14jo
p53
I1
sVd86t8wy
p54
I2
sVdomc93x
p55
I1
sVdpp42zk
p56
I1
sVdc2k443
p57
I2
sVd99t5re
p58
I1
sVd6wehp8
p59
I4
sVdk6gl8g
p60
I1
sVd8vfl5i
p61
I2
sVdjjeqpp
p62
I1
sVdb1rqde
p63
I2
sVds0deyy
p64
I1
sVdd2ihvx
p65
I1
sVdc5irdo
p66
I1
sVd2jjpwn
p67
I1
sVdhq7jvb
p68
I1
sVdnru3im
p69
I1
sVdryn86n
p70
I3
sVdel9jhn
p71
I1
sVd54121c
p72
I6
sVd2t483f
p73
I1
sVde708wc
p74
I5
sVd3caoi9
p75
I1
sVdogrutg
p76
I2
sVd9iw281
p77
I5
sVdir4nzf
p78
I11
sVde68c04
p79
I2
sVd0d59b4
p80
I1
sVdirwmg1
p81
I1
sVdfwp9ak
p82
I1
sVdk3zlyp
p83
I2
sVd05u2wi
p84
I1
sVd0nlw64
p85
I1
sVdtcvepn
p86
I1
sVdhwhy9j
p87
I3
sVdgo8is6
p88
I1
sVddtthia
p89
I1
sVdfx0qrq
p90
I2
sVdj5n392
p91
I1
sVdgut2cl
p92
I1
sVdjoioqf
p93
I3
sVds8tjpj
p94
I4
sVds1fuc4
p95
I1
sVczt24ki
p96
I1
sVdbpzkbc
p97
I1
sVdg5qmlb
p98
I1
sVd8pcfia
p99
I1
sVd93awoj
p100
I3
sVd7nxz9t
p101
I1
sVdaf90ch
p102
I1
sVdmm2r31
p103
I3
sVd9q1a3g
p104
I2
sVdesiiv8
p105
I1
sVdavz6n3
p106
I1
sVdo1tgsa
p107
I1
sVcyy1yji
p108
I2
sVczjp79f
p109
I1
sVcyjsk0r
p110
I1
sVcza4k82
p111
I2
sVd5x1879
p112
I11
sVdb8xoyy
p113
I1
sVd0apxc6
p114
I1
sVdn0e0t3
p115
I2
sVd2t4u5e
p116
I1
sVd0y2uaq
p117
I1
sVdi0s6ez
p118
I1
sVdjhk1s0
p119
I1
sVdj4ns3e
p120
I6
sVdai5yzv
p121
I1
sVdfmwwlb
p122
I1
sVd1vu6oh
p123
I1
sVdpw55z4
p124
I2
sVd9n5n3h
p125
I1
sVd57p20e
p126
I2
sVcyxir1w
p127
I1
sVd01csx7
p128
I3
sVdjm25av
p129
I1
sVd2aqln2
p130
I1
sVdbnzy33
p131
I2
sVdj2uqzc
p132
I2
sVdd6a58s
p133
I1
sVdcincv1
p134
I1
sVczjvfzw
p135
I2
sVd0y0kmi
p136
I1
sVd80qomz
p137
I1
sVdfb2jsx
p138
I1
sVdbbys0v
p139
I2
sVdsy6zs8
p140
I1
sVdrgv0r5
p141
I1
sVd9jpngx
p142
I2
sVdfx1v7p
p143
I2
sVczub663
p144
I1
sVd31twor
p145
I1
sVd9oup9w
p146
I1
sVdeqhtfa
p147
I1
sVdkdeess
p148
I1
sVdbr7ztc
p149
I1
sVd0jyzq7
p150
I4
sVdfwq3qn
p151
I2
sVdhp0e07
p152
I1
sVd7j8bcp
p153
I1
sVdsdnszp
p154
I4
sVdenhs3u
p155
I1
sVd0fi3lv
p156
I1
sVdh8bpl6
p157
I1
sVddx7xh0
p158
I1
sVdcge6d8
p159
I1
sVd7ut1c2
p160
I1
sVdk3ccoj
p161
I2
sVdgkhof5
p162
I2
sVdjpdqzo
p163
I1
sVd4v7qms
p164
I1
sVddhr6u3
p165
I2
sVd55gqqr
p166
I2
sVdr9ux81
p167
I3
sVd7h3qyw
p168
I1
sVdim89li
p169
I1
sVdciihpq
p170
I1
sVd1btwvq
p171
I1
sVdc0a3bx
p172
I1
sVdivf7ay
p173
I2
sVdkt9aif
p174
I1
sVd0107uw
p175
I1
sVdi396qb
p176
I7
sVdja9cvb
p177
I1
sVdjcu079
p178
I1
sVd7aojoe
p179
I2
sVdbw163e
p180
I2
sVdq6ugyf
p181
I1
sVd7htald
p182
I1
sVd1zw6wg
p183
I1
sVdja2f4t
p184
I1
sVdc3kqdt
p185
I1
sVd6tmhec
p186
I1
sVdptk67f
p187
I1
sVd1og6ch
p188
I1
sVcz5aoc3
p189
I1
sVdc15a2d
p190
I1
sVd95rgy0
p191
I1
sVdbiht88
p192
I9
sVdmhrheo
p193
I1
sVdelwpuy
p194
I1
sVda7063x
p195
I1
sVczq3sp8
p196
I1
sVdrm8esi
p197
I1
sVdfmyg6a
p198
I1
sVds50nos
p199
I1
sVd71jwu9
p200
I1
sVdn1filu
p201
I2
sVd2je0t5
p202
I1
sVddd6psq
p203
I1
sVd9q5yle
p204
I1
sVd1obbo2
p205
I1
sVczfwj4x
p206
I1
sVdrnb8zt
p207
I1
sVdrypor3
p208
I1
sVdg88m03
p209
I1
sVd4d7dvp
p210
I1
sVdipetlz
p211
I2
sVd3ktyq0
p212
I1
sVcz48zik
p213
I2
sVdfrk5ui
p214
I2
sVdj48goq
p215
I1
sVdawjl09
p216
I1
sVdf45nsc
p217
I1
sVd4277fq
p218
I2
sVdps5gv8
p219
I1
sVd1atqxm
p220
I1
sVdfwoxlm
p221
I1
sVdc74l7c
p222
I1
sVd2w6cud
p223
I1
sVdexokt1
p224
I2
sVdcsecxt
p225
I1
sVd0kkodv
p226
I1
sVdplhrt8
p227
I1
sVd2kf05u
p228
I2
sVdilkir5
p229
I1
sVd78sky9
p230
I1
sVdbux23t
p231
I1
sVdpbq8e3
p232
I1
sVdeh8nb4
p233
I1
sVd9c0fm5
p234
I1
sVdrzfw0v
p235
I1
sVd4j7q3i
p236
I1
sVdbil8jx
p237
I4
sVdohadq8
p238
I2
sVd0isvk5
p239
I1
sVdpp3yiv
p240
I1
sVdibpi5h
p241
I2
sVd7icpbu
p242
I4
sVddza1d4
p243
I2
sVdksjz7b
p244
I1
sVd7yvrbp
p245
I3
sVdop89jw
p246
I3
sVd3prfeb
p247
I1
sVd5js5ow
p248
I3
sVd6epalx
p249
I1
sVdd82ps0
p250
I1
sVd05bh89
p251
I1
sVd7bu8q1
p252
I1
sVd32smas
p253
I2
sVdfjop5w
p254
I2
sVdg4pszx
p255
I1
sVdfx4z2y
p256
I1
sVd4q7768
p257
I1
sVdjk4cmg
p258
I1
sVd2k6p0j
p259
I1
sVdoeoaah
p260
I2
sVdhcje1v
p261
I2
sVdfwy29q
p262
I5
sVdct1obl
p263
I1
sVdn2jssp
p264
I1
sVd6n8mk3
p265
I1
sVd74t7tn
p266
I1
sVdeg8w1b
p267
I2
sVd6v2ydz
p268
I1
sVdrvjrl4
p269
I3
sVdfytckg
p270
I2
sVd2071sh
p271
I1
sVdkhv0s0
p272
I1
sVdcsbef3
p273
I1
sVdntxfha
p274
I1
sVdkkeno3
p275
I2
sVd4wn4dw
p276
I1
sVczsoo9x
p277
I2
sVd7dvjgb
p278
I1
sVdc915bg
p279
I2
sVdhuvxmz
p280
I2
sVcze3k99
p281
I3
sVd2wsd4v
p282
I1
sVdqwqfbv
p283
I2
sVddiw4ei
p284
I2
sVdafh0hr
p285
I3
sVds8v8l5
p286
I1
sVdgeyt57
p287
I1
sVcyiz2gd
p288
I2
sVdf2m92h
p289
I2
sVdmg7f8d
p290
I2
sVd4bdyoo
p291
I3
sVdtgfrla
p292
I1
sVczbwgqm
p293
I1
sVd4fjgs4
p294
I3
sVddwmdvk
p295
I1
sVdazapgr
p296
I1
sVddpryfy
p297
I2
sVdsa1np4
p298
I2
sVdezpxaj
p299
I1
sVdgrp96z
p300
I1
sVdh3hzz5
p301
I1
sVdemzzt7
p302
I2
sVd3avkwu
p303
I1
sVdnu1seh
p304
I1
sVdexrd4b
p305
I4
sVdd0s5vs
p306
I1
sVd6wq24l
p307
I1
sVdcbqk4s
p308
I1
sVd0rpif4
p309
I4
sVdg6g59t
p310
I1
sVdjsulgt
p311
I1
sVdkvqszl
p312
I1
sVd377sb7
p313
I1
sVdpx18je
p314
I1
sVd110p35
p315
I1
sVdpx0ni8
p316
I1
sVd9jnp0g
p317
I1
sVcyz728b
p318
I1
sVd9b2k69
p319
I1
sVczav09c
p320
I1
sVd726jpj
p321
I2
sVdhyzkoy
p322
I4
sVdbfjux1
p323
I1
sVd4o90mi
p324
I2
sVdk4bqsv
p325
I4
sVdg9brqg
p326
I2
sVd0pzqh7
p327
I2
sVd5v98yz
p328
I3
sVd6ai8gs
p329
I1
sVd1ytcyw
p330
I1
sVd90olil
p331
I1
sVd8j1u6a
p332
I1
sVd1xlk4q
p333
I1
sVdfwzenf
p334
I1
sVd8237jj
p335
I1
sVdeb7fgl
p336
I1
sVdeyb6cu
p337
I1
sVdmz9kjp
p338
I1
sVd00pznh
p339
I2
sVd5o7xve
p340
I1
sVd0z3t5u
p341
I1
sVdgr2ztx
p342
I1
sVd0zqdp8
p343
I1
sVd1zk8gj
p344
I1
sVd7z3aub
p345
I2
sVdtf3z8q
p346
I1
sVd8l0bsa
p347
I1
sVdoakcgf
p348
I1
sVdkyvk5n
p349
I1
sVd4ww5w8
p350
I1
sVd1wc4rh
p351
I1
sVczto683
p352
I1
sVdqtzkni
p353
I1
sVdqnc5jh
p354
I3
sVd2amajr
p355
I1
sVdni271a
p356
I1
sVd80rj03
p357
I2
sVdrheqnk
p358
I1
sVd7vhhum
p359
I1
sVd1wdo04
p360
I1
sVd2jkh9h
p361
I1
sVd8hejz1
p362
I1
sVdsbbl2d
p363
I4
sVdqu2t1x
p364
I4
sVd9jpjx6
p365
I2
sVd271n1q
p366
I1
sVdcsckiv
p367
I5
sVd4vsvn7
p368
I1
sVdhqsdt6
p369
I1
sVczbw90c
p370
I1
sVdaqzdix
p371
I1
sVd0lbln5
p372
I1
sVdrccxpl
p373
I2
sVdik93ti
p374
I1
sVd9btfmg
p375
I2
sVddn6o5s
p376
I1
sVda3mkeb
p377
I3
sVd3otizf
p378
I1
sVd3aos1d
p379
I1
sVdghlmnt
p380
I2
sVddiph7s
p381
I1
sVdjw0y08
p382
I2
sVdabjkwd
p383
I1
sVd04c8cj
p384
I1
sVdmgq6jk
p385
I1
sVd4vkdn5
p386
I1
sVd04hcqr
p387
I2
sVd655lxy
p388
I2
sVd0rq0bd
p389
I1
sVd251hem
p390
I1
sVczt8cm8
p391
I1
sVd49x6ap
p392
I2
sVds0c1xt
p393
I3
sVd48vvuy
p394
I1
sVd27oqzd
p395
I2
sVd8tsij0
p396
I1
sVd9k5tj5
p397
I1
sVdi98ov3
p398
I2
sVd1jzyp5
p399
I2
sVd1vzzeh
p400
I1
sVdh07xmr
p401
I1
sVd8zfhzd
p402
I1
sVd39n64x
p403
I2
sVdsf01l0
p404
I8
sVdsa1vgz
p405
I2
sVd76rmgs
p406
I2
sVdjop4nz
p407
I1
sVdhehl9b
p408
I1
sVd4v6iuo
p409
I1
sVcztelnh
p410
I2
sVdni2i0h
p411
I3
sVdgegkhg
p412
I1
sVdhwng1b
p413
I1
sVdibi8wy
p414
I2
sVdcixrey
p415
I1
sVdkfppcy
p416
I1
sVd9apiiu
p417
I1
sVdemg4g2
p418
I1
sVd4s23qa
p419
I1
sVd2gz6nl
p420
I2
sVdcjtxee
p421
I1
sVdc4d67j
p422
I1
sVd1oxdis
p423
I3
sVd80u5ou
p424
I7
sVdk48bqt
p425
I1
sVcyiwsuk
p426
I4
sVdf546p6
p427
I1
sVczemjyx
p428
I1
sVdkjbv6v
p429
I1
sVdcmq31b
p430
I4
sVd962w5m
p431
I2
sVd50aqy3
p432
I2
sVd30pf2m
p433
I1
sVd3noxn9
p434
I1
sVdkgfi0s
p435
I3
sVd67llnk
p436
I1
sVdkbjwlh
p437
I3
sVdergrpf
p438
I1
sVdoe9f7a
p439
I1
sVcytsn8o
p440
I1
sVdiunjt7
p441
I1
sVczj261k
p442
I1
sVd9h33wz
p443
I1
sVdbwnek6
p444
I2
sVd01n58z
p445
I1
sVd02bcdg
p446
I2
sVd2t46gw
p447
I2
sVd7uu7cx
p448
I1
sVdjbv3mv
p449
I1
sVdbpegw6
p450
I6
sVdplht0c
p451
I2
sVdids443
p452
I1
sVdssm1hn
p453
I1
sVd1akzmk
p454
I3
sVdhzpjnh
p455
I1
sVd7ht1m4
p456
I1
sVdg8n1fy
p457
I1
sVddbfruq
p458
I1
sVd5pyvia
p459
I1
sVd3cie65
p460
I3
sVd81075y
p461
I1
sVd23z25l
p462
I1
sVdagzciw
p463
I1
sVd5o7zyr
p464
I1
sVdsep9sy
p465
I1
sVdjfjsu0
p466
I1
sVdsa8m6h
p467
I1
sVd47um1d
p468
I1
sVdnz6c8n
p469
I1
sVdhg6qv7
p470
I1
sVdgrlg3k
p471
I1
sVd0zowd3
p472
I1
sVdhyzm3k
p473
I1
sVd8x2j3x
p474
I1
sVdcs6r61
p475
I2
sVdtb0rnu
p476
I2
sVdew7gk5
p477
I2
sVdedwecr
p478
I1
sVd00zv4u
p479
I1
sVd1f6s8t
p480
I1
sVdhnfm1j
p481
I1
sVd1jzv87
p482
I1
sVddjx9o0
p483
I1
sVdbs8313
p484
I1
sVd80y81l
p485
I1
sVd1c5enz
p486
I2
sVd1u9xvk
p487
I1
sVdi7n4hc
p488
I3
sVdc2atrv
p489
I1
sVd582uo1
p490
I1
sVdo27gkj
p491
I2
sVdorox9h
p492
I2
sVd4jqt2w
p493
I1
sVdg4f1pi
p494
I2
sVdieuth4
p495
I1
sVdosbkqd
p496
I1
sVdn2uyi2
p497
I1
sVcyjz9kr
p498
I1
sVdqmtwo6
p499
I2
sVczo8p43
p500
I2
sVdcsiixy
p501
I1
sVd88esc1
p502
I1
sVd6bhu4z
p503
I1
sVd80rww3
p504
I1
sVd4za65l
p505
I1
sVdp2qe4j
p506
I2
sVdmj80kp
p507
I1
sVd7jovbb
p508
I1
sVdrgh31i
p509
I2
sVdnnhdsq
p510
I1
sVd6wi01b
p511
I4
sVd6pr282
p512
I1
sVdk9xcqs
p513
I1
sVczuw6g0
p514
I1
sVddiu0bl
p515
I1
sVd4h9vq9
p516
I8
sVd73j1ef
p517
I1
sVdnw33pm
p518
I2
sVdsf9ssk
p519
I3
sVd3qnvu6
p520
I1
sVd0wevs0
p521
I1
sVdburzgx
p522
I1
sVdnph8db
p523
I1
sVd9awwqn
p524
I1
sVdkubk0z
p525
I2
sVdaucqej
p526
I1
sVdnk6zoz
p527
I1
sVczghf98
p528
I1
sVcyta81h
p529
I1
sVdcsxxaz
p530
I2
sVcznxnt4
p531
I1
sVdrj3zm6
p532
I1
sVd8jg58p
p533
I2
sVd8233cq
p534
I1
sVdml6t73
p535
I1
sVdp9wd30
p536
I1
sVd8xi4a7
p537
I2
sVdjvw50r
p538
I1
sVdfwy8ey
p539
I1
sVd0fpgay
p540
I1
sVdc1rmr6
p541
I2
sVd8xan9j
p542
I3
sVd810az5
p543
I1
sVdsaac8k
p544
I1
sVdpsft30
p545
I1
sVdg3qcz5
p546
I3
sVdggu51k
p547
I1
sVd200bvq
p548
I1
sVdfpbswx
p549
I1
sVdki2e7h
p550
I1
sVdr69lmf
p551
I1
sVd5c02k8
p552
I1
sVdrk9wla
p553
I3
sVd2vd8je
p554
I1
sVd2x8hj6
p555
I1
sVczlby6u
p556
I1
sVdfmojxn
p557
I1
sVd93t47z
p558
I1
sVd3tp2mu
p559
I1
sVdmvstsa
p560
I1
sVdgxfrdg
p561
I1
sVd9uc9g3
p562
I3
sVd6nwkwf
p563
I1
sVdd7neo1
p564
I1
sVdhjzqha
p565
I2
sVdguj59s
p566
I1
sVdac418n
p567
I2
sVdmhpla7
p568
I1
sVd5kb8dx
p569
I1
sVd9f8jk7
p570
I1
sVdar3lsn
p571
I1
sVcykta5s
p572
I1
sVdntqocl
p573
I1
sVd2t3qaz
p574
I1
sVd51q11k
p575
I3
sVdnk7jsf
p576
I2
sVdadtple
p577
I1
sVczrcjks
p578
I2
sVdhyzb09
p579
I1
sVds8ixtg
p580
I1
sVd012xun
p581
I3
sVd73nkp9
p582
I2
sVdghvlf4
p583
I1
sVdgueu1n
p584
I1
sVdpcdop9
p585
I1
sVdoa9fov
p586
I1
sVdj011j1
p587
I2
sVdit6fzx
p588
I1
sVdryphgt
p589
I1
sVdp7h3xf
p590
I1
sVdseqsyh
p591
I2
sVd2wsbvs
p592
I1
sVd6oux8g
p593
I1
sVddfch2p
p594
I1
sVcztzee7
p595
I2
sVdfw3vcm
p596
I1
sVdq3h3w2
p597
I1
sVdg3qrwl
p598
I1
sVd1f7aaz
p599
I1
sVd98jhvb
p600
I1
sVd91b8yt
p601
I4
sVdo7w9na
p602
I1
sVdpjc142
p603
I2
sVd7yyi6c
p604
I1
sVdc3d059
p605
I1
sVdeg74c8
p606
I1
sVdmu0jrp
p607
I2
sVczh9fff
p608
I1
sVdazaeci
p609
I1
sVdcuyf9z
p610
I3
sVd07nc7i
p611
I1
sVdp5k3e8
p612
I2
sVd98zd7v
p613
I2
sVdjh2dzm
p614
I1
sVde5opue
p615
I1
sVd3cf854
p616
I1
sVd0kdzgy
p617
I1
sVde8eczi
p618
I1
sVde8ednk
p619
I1
sVdcskve0
p620
I1
sVdkhrzj3
p621
I2
sVdek2ot8
p622
I2
sVd28l9cu
p623
I1
sVdfb3lul
p624
I1
sVd9hfhnr
p625
I1
sVd1wwx7t
p626
I1
sVdko5x2f
p627
I1
sVdoo9b6e
p628
I2
sVd8nlcta
p629
I2
sVd1au55i
p630
I1
sVd3cpa1a
p631
I1
sVdfymd80
p632
I2
sVd0rr5xv
p633
I1
sVd2vx9jg
p634
I1
sVdjda099
p635
I2
sVcyscrw7
p636
I1
sVdb1kh9k
p637
I1
sVdcgeo2r
p638
I1
sVdpxs2am
p639
I3
sVd1w2nm8
p640
I4
sVd5k9xbg
p641
I1
sVd0pepe8
p642
I5
sVcyzmjop
p643
I2
sVd93te41
p644
I2
sVdhwa0bz
p645
I1
sVdhfgt3q
p646
I1
sVdp5i39b
p647
I1
sVd0qs58v
p648
I1
sVd5hoqu7
p649
I1
sVd9j5r4r
p650
I1
sVd423lsi
p651
I1
sVdgra9f1
p652
I1
sVdczo0t3
p653
I2
sVdfo8euq
p654
I1
sVdn7wz0y
p655
I1
sVd4jqdef
p656
I2
sVdpbqpud
p657
I3
sVd1c5dlo
p658
I1
sVd7r5qee
p659
I2
sVdcbkzxz
p660
I1
sVdfy63v0
p661
I2
sVds29rjf
p662
I7
sVcza7ew9
p663
I1
sVcz6vixp
p664
I1
sVd7yu8ct
p665
I1
sVdgan8nx
p666
I3
sVd2m571g
p667
I1
sVdopaodd
p668
I1
sVdopmenu
p669
I2
sVdfb57gc
p670
I1
sVcyql8z1
p671
I2
sVdovnozs
p672
I1
sVdj41nz5
p673
I1
sVd36qbf3
p674
I1
sVd33lcqg
p675
I2
sVdbywo0f
p676
I1
sVdfwrx6w
p677
I1
sVd92fb8x
p678
I3
sVd012xxw
p679
I1
sVd3nnm4q
p680
I1
sVdc43gmt
p681
I1
sVd5b19os
p682
I3
sVd303uly
p683
I3
sVdrow2u8
p684
I1
sVddls1ht
p685
I1
sVd0ghx6c
p686
I1
sVczt92vn
p687
I1
sVd4nw840
p688
I2
sVd6wfb18
p689
I2
sVdhtyrzd
p690
I1
sVddgtkn0
p691
I2
sVdnimg5i
p692
I1
sVcypljq9
p693
I4
sVddgt9ha
p694
I3
sVddzmet8
p695
I1
sVd65b3vg
p696
I1
sVdbvzqbb
p697
I1
sVdni2sxo
p698
I2
sVdq8ehl3
p699
I1
sVd01fbgs
p700
I2
sVdkkwdgo
p701
I4
sVdki29u8
p702
I1
sVdizwh7t
p703
I1
sVd0ino5d
p704
I1
sVd33mlfi
p705
I1
sVdcabwxi
p706
I1
sVdnflt7o
p707
I2
sVd5gjbz1
p708
I1
sVdmylzmz
p709
I2
sVdhtf4v9
p710
I6
sVczwonej
p711
I2
sVdqscmgs
p712
I2
sVdtbhu55
p713
I1
sVd47c466
p714
I1
sVd68lia5
p715
I1
sVdpt1vkg
p716
I1
sVczoyxlo
p717
I1
sVd00oa7z
p718
I1
sVddim2b1
p719
I1
sVdjqkuqm
p720
I4
sVd6qdvx9
p721
I1
sVdtel31l
p722
I1
sVdshifx4
p723
I4
sVdpu9qif
p724
I1
sVdodzk2j
p725
I1
sVcyju01q
p726
I1
sVd48scqh
p727
I1
sVdc9hm5p
p728
I1
sVd68w4em
p729
I1
sVdfg21hc
p730
I1
sVdret252
p731
I1
sVd9jvgck
p732
I1
sVdi5wn5c
p733
I1
sVd3gml9i
p734
I2
sVd4fm3cy
p735
I1
sVdnanuzt
p736
I1
sVdrqued4
p737
I2
sVd4f8vyv
p738
I1
sVdnf4m99
p739
I1
sVdhw1zv9
p740
I1
sVdqzo0bo
p741
I1
sVd9mc8ru
p742
I1
sVd5he8sz
p743
I1
sVd28y0ph
p744
I1
sVd8ekixb
p745
I3
sVd5a940n
p746
I3
sVdncae4s
p747
I1
sVdgtwo4g
p748
I5
sVdblryjp
p749
I1
sVd7js0lx
p750
I1
sVdcohieu
p751
I3
sVdjars60
p752
I2
sVdfzhbru
p753
I1
sVdag7ed0
p754
I1
sVdrynz0n
p755
I1
sVdrm4vxr
p756
I1
sVdcp54sn
p757
I5
sVdrxwhnk
p758
I2
sVdhwftlo
p759
I3
sVdfxelyh
p760
I2
sVd3d74vi
p761
I1
sVd5s2vld
p762
I1
sVd516rxv
p763
I1
sVd1tvp3c
p764
I1
sVdiigeif
p765
I1
sVd773xof
p766
I1
sVd8u0bp0
p767
I1
sVd1wdr1s
p768
I1
sVdir7olf
p769
I4
sVdghqltj
p770
I1
sVdftyxcm
p771
I2
sVd0ru6xs
p772
I1
sVdhw9uph
p773
I1
sVded40bb
p774
I1
sVdc69am8
p775
I1
sVd0pxhl8
p776
I1
sVd93uon9
p777
I1
sVd4jimed
p778
I2
sVd32ihvq
p779
I1
sVdbwnmw1
p780
I1
sVd7s4rht
p781
I2
sVd1m1oby
p782
I2
sVd02gowu
p783
I2
sVda35m33
p784
I1
sVczfpjsv
p785
I1
sVd2qjyhw
p786
I2
sVd81t32r
p787
I2
sVczjcxda
p788
I2
sVd37v9tt
p789
I1
sVdjpw3rv
p790
I1
sVd1ng1bo
p791
I1
sVdfauk0v
p792
I1
sVdh87ta2
p793
I2
sVd3q6bf9
p794
I1
sVcyptiz9
p795
I2
sVd7x5wv2
p796
I1
sVdb6maz3
p797
I2
sVdc4f0h9
p798
I1
sVdbwsodz
p799
I1
sVd3uv71k
p800
I2
sVdibptu1
p801
I2
sVd12wpo7
p802
I1
sVd2v88mw
p803
I1
sVdnr7adg
p804
I1
sVd1sdzfj
p805
I2
sVcz5iiof
p806
I2
sVdbzllr8
p807
I1
sVczpuvu0
p808
I1
sVdrcexon
p809
I1
sVdp5qac4
p810
I1
sVdd7825n
p811
I2
s.