(dp0
Vd13k1bm
p1
I1
sVd2chxhp
p2
I1
sVdic21h3
p3
I1
sVdnybger
p4
I1
sVd9bpfrp
p5
I1
sVd6glquk
p6
I1
sVddomtyo
p7
I1
sVdpv5602
p8
I1
sVdfmdc3l
p9
I1
sVdplyfgd
p10
I1
sVddyrlhl
p11
I1
sVd3cguya
p12
I1
sVd7fmmd6
p13
I1
sVd80u5ou
p14
I1
sVdh04bu7
p15
I1
sVddzkn27
p16
I1
sVd3n9yu2
p17
I1
sVdf593st
p18
I1
sVdtfzvah
p19
I1
sVd3oltjr
p20
I1
sVd2kf05u
p21
I1
sVdgchs0r
p22
I1
sVd8vpl8q
p23
I1
sVdffcn4e
p24
I1
sVdoprncq
p25
I1
sVdiqdvix
p26
I1
sVdry6x0a
p27
I1
sVd116wwi
p28
I1
sVd38y0k6
p29
I1
sVdd2qtmb
p30
I1
sVd07xtwn
p31
I2
sVd2ouvtc
p32
I1
sVczjut2s
p33
I1
sVd84jh3f
p34
I1
sVd1hdn5w
p35
I1
sVdjcq943
p36
I1
sVdt9p17l
p37
I1
sVd3vg3dm
p38
I1
sVdiqxkw6
p39
I1
sVd3bfgd2
p40
I1
sVdbzeurj
p41
I1
sVdp9vd8w
p42
I1
sVde15mls
p43
I1
sVdpd00wf
p44
I1
sVd42mq09
p45
I1
sVd7bbq6f
p46
I1
sVd0fi2bc
p47
I1
sVd53v7xh
p48
I1
sVdcx54mi
p49
I1
sVdnar2aa
p50
I1
sVd78ay23
p51
I1
sVdjgftkm
p52
I1
sVd3hfimq
p53
I1
sVdbpxmph
p54
I1
sVd0qsuyu
p55
I1
sVd7s3m25
p56
I1
sVdgc246o
p57
I1
sVdbx8drx
p58
I1
sVdf46u1j
p59
I1
sVdk9rlr7
p60
I1
sVddn9xp3
p61
I1
sVdctckaw
p62
I1
sVd9my8dz
p63
I1
sVdgizuqo
p64
I1
sVdhjex1f
p65
I1
sVds3gc4f
p66
I2
sVd5123qq
p67
I1
sVdg50cs7
p68
I1
sVd9rd5tl
p69
I1
sVdd851gg
p70
I1
sVcyphje6
p71
I1
sVdcxlene
p72
I1
sVdgtm3fm
p73
I1
sVdceb1ca
p74
I1
sVd8thkqc
p75
I1
sVdgrqjzj
p76
I1
sVd15j6rz
p77
I1
sVddzkncl
p78
I1
sVd936al5
p79
I1
sVdc7s6j0
p80
I1
sVdc6h7hc
p81
I1
sVdglhod3
p82
I1
sVd2ixmxh
p83
I1
sVdipk3zf
p84
I1
sVdirtvnb
p85
I1
sVdoj400j
p86
I1
sVcz2h9bb
p87
I1
sVdidvj6g
p88
I1
sVdk7fwr4
p89
I1
s.