(dp0
Vd1pxruh
p1
I1
s.(dp0
Vd1pxruh
p1
I1
sVd39umgb
p2
I1
s.(dp0
Vd1pxruh
p1
I1
sVd3vmtb7
p2
I1
s.(dp0
Vd1pxruh
p1
I1
sVd3vmtb7
p2
I1
s.(dp0
Vd1pxruh
p1
I1
sVd3vmtb7
p2
I1
s.(dp0
Vd1pxruh
p1
I1
sVd8akpqr
p2
I1
s.(dp0
Vd1pxruh
p1
I1
sVd9n0ugy
p2
I1
s.(dp0
Vd1pxruh
p1
I1
sVddqg8rs
p2
I1
s.(dp0
Vd1pxruh
p1
I1
sVddqg8rs
p2
I1
s.(dp0
Vd1pxruh
p1
I1
sVdgrmmmf
p2
I1
s.(dp0
Vd1pxruh
p1
I1
sVdgrmmmf
p2
I1
s.(dp0
Vd1pxruh
p1
I1
sVdgrmmmf
p2
I1
s.(dp0
Vd1pxruh
p1
I1
sVdgrmmmf
p2
I1
s.(dp0
Vd1pxruh
p1
I1
sVdgrmmmf
p2
I1
s.(dp0
Vd1pxruh
p1
I1
sVdgrmmmf
p2
I1
s.(dp0
Vd1pxruh
p1
I1
sVdgrmmmf
p2
I1
s.(dp0
Vd1pxruh
p1
I1
sVdgrmmmf
p2
I1
s.