(dp0
Vd13k1bm
p1
I1
sVd2ldae1
p2
I1
sVdi8i4n6
p3
I1
sVd1qadjt
p4
I1
sVd4ybldp
p5
I1
sVczpc031
p6
I1
sVcynvrnk
p7
I1
sVdb89nuz
p8
I2
sVd6zy9h3
p9
I1
sVd8ipk19
p10
I1
sVdh8a7ss
p11
I1
sVdc6nf92
p12
I1
sVdmrk3ue
p13
I2
sVdgghct1
p14
I1
sVd25wc5a
p15
I1
sVcyij6tw
p16
I1
sVczo84j8
p17
I2
sVd7id961
p18
I1
sVdc4cmmh
p19
I1
sVd5vpz53
p20
I1
sVdmsgbsk
p21
I2
sVd01nlvi
p22
I1
sVdgrge78
p23
I1
sVdfttb9o
p24
I1
sVdbyuwln
p25
I1
sVdcixtk8
p26
I1
sVcynfxsd
p27
I1
sVd2bh3wj
p28
I1
sVd8u6kw6
p29
I2
sVd3m7w5t
p30
I1
sVcz4qd82
p31
I1
sVd1qpd1n
p32
I1
sVd5anwxr
p33
I1
sVd6sgc37
p34
I1
sVdi4vtka
p35
I1
sVdd5x61p
p36
I1
sVdpc05uw
p37
I1
sVd5y4ikg
p38
I2
sVd3h0lb0
p39
I2
sVdc5yec1
p40
I1
sVdh2y2o5
p41
I1
sVd121ljg
p42
I1
sVczjw699
p43
I1
sVdhkl6qo
p44
I1
sVdaojrwk
p45
I6
sVdcmnf6d
p46
I1
sVd89inqh
p47
I1
sVdg2gg0j
p48
I1
sVd14vh9s
p49
I1
sVd97cy9c
p50
I1
sVdc8ydld
p51
I1
sVczkz3so
p52
I3
sVd3ut3m4
p53
I1
sVdeiz491
p54
I1
sVd0t214t
p55
I1
sVd2h4mn9
p56
I1
sVdc2gn76
p57
I1
sVd1brjpw
p58
I1
sVd07zuhy
p59
I1
sVdbex6yv
p60
I1
sVd5ak6xv
p61
I1
sVdjh9r0r
p62
I1
sVdkly5pw
p63
I1
sVdfsy1uf
p64
I1
sVd0zocxs
p65
I1
sVd3o8yo5
p66
I1
sVddq78g8
p67
I1
sVdqidzh9
p68
I1
sVd0kxuvg
p69
I1
sVczpmgbl
p70
I2
sVdjik9fa
p71
I1
sVd0kk9eh
p72
I1
sVczxt30d
p73
I1
sVddzwevm
p74
I1
sVdrqbi9t
p75
I1
sVdd8w4mi
p76
I2
sVdcdbffx
p77
I1
sVdd5m11n
p78
I1
sVcytt9sy
p79
I1
sVd9hgtu1
p80
I1
sVdjvzn83
p81
I1
sVd6ui6uh
p82
I2
sVdrak2k1
p83
I1
sVdnbyokb
p84
I1
sVdflrjq8
p85
I1
sVd49fq6u
p86
I3
sVd0yla20
p87
I1
sVdk7dkqm
p88
I1
sVd3eq8fq
p89
I1
sVdpxhuu9
p90
I1
sVd49c8ub
p91
I1
sVd386w1e
p92
I2
sVd1gzgnx
p93
I1
sVd05ckyw
p94
I1
sVd3npaqi
p95
I1
sVd047l7v
p96
I1
sVde45r6w
p97
I1
sVdsacwjj
p98
I1
sVczmpni8
p99
I1
sVdnyaztf
p100
I1
sVd0t6poq
p101
I1
sVdje956f
p102
I1
sVdaiojvl
p103
I1
sVd09rhb1
p104
I1
sVdip6ot9
p105
I1
sVd013rts
p106
I2
sVd125jio
p107
I1
sVdbnntsb
p108
I1
sVdim9wn0
p109
I1
sVd36qwkq
p110
I2
sVcyv66ag
p111
I1
sVd2tkb4j
p112
I1
sVdikekaf
p113
I1
sVd9myqfe
p114
I1
sVd7mtc19
p115
I1
sVd9n5xvd
p116
I1
sVdnab952
p117
I1
sVd95manh
p118
I1
sVdc2du1x
p119
I2
sVdfpss8b
p120
I2
sVdheys3u
p121
I1
sVd3ms1if
p122
I1
sVdnxw9nm
p123
I1
sVdt2qrsu
p124
I1
sVdjw12cv
p125
I1
sVdjyfbtv
p126
I1
sVdrcxx4a
p127
I1
sVd8fbmay
p128
I1
sVcznrlr2
p129
I2
sVdggocst
p130
I1
sVd4kxtux
p131
I1
sVd4cz0q1
p132
I1
sVdt87x0f
p133
I1
sVd1h4nj0
p134
I1
sVds6l2l2
p135
I1
sVdomxpzr
p136
I1
sVcynsuj7
p137
I1
sVdggjpye
p138
I1
sVdfhlthc
p139
I1
sVd5cxfs7
p140
I1
sVdko2fde
p141
I1
sVcznt9vj
p142
I1
sVd9z6v8p
p143
I1
sVd1o6ole
p144
I1
sVd1nwpkn
p145
I1
sVdd5jiqv
p146
I1
sVczfyzgk
p147
I1
sVd35bfy8
p148
I1
sVd9adajp
p149
I1
sVdbuplm8
p150
I1
sVdfz11fs
p151
I1
sVd624l7o
p152
I1
sVd2o3luj
p153
I1
sVd9n3gyo
p154
I1
sVd8du5n2
p155
I1
sVdkytyvs
p156
I2
sVd1t5e1u
p157
I1
sVd3puf11
p158
I1
sVd01zbpd
p159
I2
sVcyi6jo7
p160
I1
sVdn91yhc
p161
I1
sVdknzcqy
p162
I1
sVda59ky4
p163
I1
sVdgt54se
p164
I1
sVdhtd554
p165
I1
sVd9zdwdw
p166
I1
sVdc7rmqr
p167
I1
sVczn4f1h
p168
I1
sVdj0q5b9
p169
I2
sVdggnfwa
p170
I1
sVd9dcok7
p171
I1
sVd8ss807
p172
I1
sVd2523iv
p173
I4
sVdrdctlk
p174
I1
sVdd5c12n
p175
I1
sVd6iqx1l
p176
I5
sVd3a0qb9
p177
I3
sVd2g1dsv
p178
I2
sVcz89fp9
p179
I1
sVdn3evrn
p180
I4
sVd2t4mz2
p181
I1
sVddbfnp8
p182
I2
sVd9xuvxc
p183
I1
sVdmnchrv
p184
I1
sVdos31yj
p185
I1
sVd8z90y4
p186
I1
sVdai3k5w
p187
I2
sVd001kfa
p188
I1
sVddbv5kk
p189
I1
sVd496vui
p190
I2
sVcz4ovk2
p191
I2
sVczoks0h
p192
I2
sVdjf55yg
p193
I1
sVdjj8l4k
p194
I1
sVd8urf3d
p195
I1
sVd89az55
p196
I2
sVd7qlgwc
p197
I1
sVder52ob
p198
I1
sVdgptnl2
p199
I1
sVdnxzyty
p200
I1
sVday8r52
p201
I2
sVddbxi3w
p202
I1
sVdjbypzq
p203
I2
sVdeqx2vo
p204
I1
sVdjzei8o
p205
I1
sVd1o6b0b
p206
I1
sVd4czbg3
p207
I2
sVd1o0aqv
p208
I1
sVd0x6t9k
p209
I1
sVd72kqmm
p210
I2
sVd2781bf
p211
I1
sVdd5qgcv
p212
I1
sVd2q0yi4
p213
I1
sVdplii6m
p214
I1
sVdn94x16
p215
I1
sVd95wo9s
p216
I1
sVdrqu58s
p217
I1
sVczn7p77
p218
I1
sVd60v902
p219
I1
sVdgjsvsa
p220
I1
sVd65yeg3
p221
I1
sVdavaonm
p222
I1
sVdbytubp
p223
I1
sVdejhzuw
p224
I1
sVd4ib297
p225
I1
sVcz1jw3g
p226
I1
sVd8sagvk
p227
I1
sVdrzkwhr
p228
I1
sVd1zto0g
p229
I1
sVdfiobec
p230
I1
sVdkyg0lh
p231
I4
sVcz1dxwe
p232
I2
sVczxvkk8
p233
I1
sVdd62o15
p234
I1
sVdggnp1u
p235
I1
sVdhwdgbj
p236
I1
sVd6botov
p237
I1
sVd65hli1
p238
I1
sVd25zlks
p239
I1
sVcyj2g8a
p240
I1
sVd9mymr8
p241
I2
sVd0quton
p242
I1
sVd6eja9g
p243
I1
sVdggn9a9
p244
I1
sVdc8utw1
p245
I1
sVd7qmagw
p246
I1
sVd65jw0q
p247
I1
sVd17aad3
p248
I1
sVdbxhnld
p249
I2
sVdpo2nlx
p250
I5
sVd1w2ivs
p251
I1
sVdh4rp9u
p252
I1
sVd9nnxq3
p253
I1
sVczps0r8
p254
I2
sVd2ac5r5
p255
I1
sVczxy5jr
p256
I1
sVdnepbcy
p257
I1
sVdgde8qx
p258
I1
sVd2tnh5k
p259
I1
sVd0zo1s4
p260
I1
sVd2u1yr1
p261
I1
sVdsk4kns
p262
I1
sVdbijkpt
p263
I3
sVd358lr7
p264
I1
sVd3o0j9w
p265
I1
sVdi47qzj
p266
I1
sVdsjv20k
p267
I1
sVd57k0ec
p268
I2
sVczizl1h
p269
I1
sVd0e7y3x
p270
I1
sVcztwhsj
p271
I1
sVdbxc1ay
p272
I1
sVdc6novf
p273
I1
sVd8axxmj
p274
I3
sVd2gg0qs
p275
I1
sVd57sn9w
p276
I1
sVcywfcx9
p277
I3
sVczx7toh
p278
I1
sVcywhfib
p279
I2
sVd6p7wud
p280
I1
sVdi6ktna
p281
I1
sVdnpupx0
p282
I1
sVdol55ad
p283
I1
sVdd5ty36
p284
I2
sVcyttj3n
p285
I7
sVdfwnjgw
p286
I1
sVd6607fi
p287
I1
sVd359dp7
p288
I1
s.