(dp0
Vcyibubi
p1
I1
s.(dp0
Vcyqx16n
p1
I1
sVcyibubi
p2
I1
s.(dp0
Vcyibubi
p1
I1
sVcysum30
p2
I1
s.(dp0
Vcyw2ish
p1
I1
sVcyibubi
p2
I1
s.(dp0
Vcywddy1
p1
I1
sVcyibubi
p2
I1
s.(dp0
Vcywddy1
p1
I1
sVcyibubi
p2
I1
s.(dp0
Vcyzc2um
p1
I1
sVcyibubi
p2
I1
s.(dp0
Vcz52u0y
p1
I1
sVcyibubi
p2
I1
s.(dp0
Vcz726qv
p1
I1
sVcyibubi
p2
I1
s.(dp0
Vcz8ogia
p1
I1
sVcyibubi
p2
I1
s.(dp0
Vcyibubi
p1
I1
sVczd8v0c
p2
I1
s.(dp0
Vczgzjrr
p1
I1
sVcyibubi
p2
I1
s.(dp0
Vczi148b
p1
I1
sVcyibubi
p2
I1
s.(dp0
Vczkxlop
p1
I1
sVcyibubi
p2
I1
s.(dp0
Vczomu78
p1
I1
sVcyibubi
p2
I1
s.(dp0
Vczrn270
p1
I1
sVcyibubi
p2
I1
s.(dp0
Vczy5bnl
p1
I1
sVcyibubi
p2
I1
s.(dp0
Vczymb1i
p1
I1
sVcyibubi
p2
I1
s.(dp0
Vd05641a
p1
I1
sVcyibubi
p2
I1
s.(dp0
Vd08nq6o
p1
I1
sVcyibubi
p2
I1
s.(dp0
Vd0g966y
p1
I1
sVcyibubi
p2
I1
s.(dp0
Vcyibubi
p1
I1
sVd17utlo
p2
I1
s.(dp0
Vd1bshwf
p1
I1
sVcyibubi
p2
I1
s.(dp0
Vd1bvpt5
p1
I1
sVcyibubi
p2
I1
s.(dp0
Vd1l5kqn
p1
I1
sVcyibubi
p2
I1
s.(dp0
Vd1qqw0r
p1
I1
sVcyibubi
p2
I1
s.(dp0
Vd26d1n1
p1
I1
sVcyibubi
p2
I1
s.(dp0
Vd2cnbfx
p1
I1
sVcyibubi
p2
I1
s.(dp0
Vd2emgkp
p1
I1
sVcyibubi
p2
I1
s.(dp0
Vd2fz4dh
p1
I1
sVcyibubi
p2
I1
s.(dp0
Vd2srplr
p1
I1
sVcyibubi
p2
I1
s.(dp0
Vd2z2dqa
p1
I1
sVcyibubi
p2
I1
s.(dp0
Vd34xrll
p1
I1
sVcyibubi
p2
I1
s.(dp0
Vd35p19i
p1
I1
sVcyibubi
p2
I1
s.(dp0
Vd37wg9q
p1
I1
sVcyibubi
p2
I1
s.(dp0
Vd3b8gso
p1
I1
sVcyibubi
p2
I1
s.(dp0
Vd3hc1ma
p1
I1
sVcyibubi
p2
I1
s.(dp0
Vcyibubi
p1
I1
sVd3kxdxr
p2
I1
s.(dp0
Vd44ofw9
p1
I1
sVcyibubi
p2
I1
s.(dp0
Vcyibubi
p1
I1
sVd48ob4s
p2
I1
s.(dp0
Vd4eu7ug
p1
I1
sVcyibubi
p2
I1
s.(dp0
Vd4jlhmr
p1
I1
sVcyibubi
p2
I1
s.(dp0
Vd4qchrp
p1
I1
sVcyibubi
p2
I1
s.(dp0
Vd4zsktv
p1
I1
sVcyibubi
p2
I1
s.(dp0
Vd517q3i
p1
I1
sVcyibubi
p2
I1
s.(dp0
Vd556ti4
p1
I1
sVcyibubi
p2
I1
s.(dp0
Vcyibubi
p1
I1
sVd59u7ee
p2
I1
s.(dp0
Vd5anwxr
p1
I1
sVcyibubi
p2
I1
s.(dp0
Vd5bk2fz
p1
I1
sVcyibubi
p2
I1
s.(dp0
Vd5mu2ut
p1
I1
sVcyibubi
p2
I1
s.(dp0
Vd5mu2ut
p1
I1
sVcyibubi
p2
I1
s.(dp0
Vd7t9uqc
p1
I1
sVcyibubi
p2
I1
s.(dp0
Vd7tsj9m
p1
I1
sVcyibubi
p2
I1
s.(dp0
Vd7wnb49
p1
I1
sVcyibubi
p2
I1
s.(dp0
Vd8dydjx
p1
I1
sVcyibubi
p2
I1
s.(dp0
Vd8oaly4
p1
I1
sVcyibubi
p2
I1
s.(dp0
Vd8rej1q
p1
I1
sVcyibubi
p2
I1
s.(dp0
Vd951wmm
p1
I1
sVcyibubi
p2
I1
s.(dp0
Vd95o6hr
p1
I1
sVcyibubi
p2
I1
s.(dp0
Vd9am90w
p1
I1
sVcyibubi
p2
I1
s.(dp0
Vd9am90w
p1
I1
sVcyibubi
p2
I1
s.(dp0
Vd9kp7im
p1
I1
sVcyibubi
p2
I1
s.(dp0
Vd9yhe4x
p1
I1
sVcyibubi
p2
I1
s.(dp0
Vda1svjn
p1
I1
sVcyibubi
p2
I1
s.(dp0
Vcyibubi
p1
I1
sVda2u4uq
p2
I1
s.(dp0
Vdakq100
p1
I1
sVcyibubi
p2
I1
s.(dp0
Vdalm28o
p1
I1
sVcyibubi
p2
I1
s.(dp0
Vcyibubi
p1
I1
sVdamf7l3
p2
I1
s.(dp0
Vdampndc
p1
I1
sVcyibubi
p2
I1
s.(dp0
Vdampndc
p1
I1
sVcyibubi
p2
I1
s.(dp0
Vdavc9ac
p1
I1
sVcyibubi
p2
I1
s.(dp0
Vdaypzza
p1
I1
sVcyibubi
p2
I1
s.(dp0
Vdazzhtv
p1
I1
sVcyibubi
p2
I1
s.(dp0
Vdb2nfg3
p1
I1
sVcyibubi
p2
I1
s.(dp0
Vdbkmh4h
p1
I1
sVcyibubi
p2
I1
s.(dp0
Vdccf428
p1
I1
sVcyibubi
p2
I1
s.(dp0
Vdcggccd
p1
I1
sVcyibubi
p2
I1
s.(dp0
Vdcpanvc
p1
I1
sVcyibubi
p2
I1
s.(dp0
Vdcynrqn
p1
I1
sVcyibubi
p2
I1
s.(dp0
Vddko2p2
p1
I1
sVcyibubi
p2
I1
s.(dp0
Vddvcqxt
p1
I1
sVcyibubi
p2
I1
s.(dp0
Vde0ep7w
p1
I1
sVcyibubi
p2
I1
s.(dp0
Vde4s6wx
p1
I1
sVcyibubi
p2
I1
s.(dp0
Vcyibubi
p1
I1
sVdel689v
p2
I1
s.(dp0
Vdeldl9r
p1
I1
sVcyibubi
p2
I1
s.(dp0
Vdeyjaqp
p1
I1
sVcyibubi
p2
I1
s.(dp0
Vdf1z7be
p1
I1
sVcyibubi
p2
I1
s.(dp0
Vdfjd69x
p1
I1
sVcyibubi
p2
I1
s.(dp0
Vdg7jlhv
p1
I1
sVcyibubi
p2
I1
s.(dp0
Vdgi7e5p
p1
I1
sVcyibubi
p2
I1
s.(dp0
Vdgissjk
p1
I1
sVcyibubi
p2
I1
s.(dp0
Vdgt8hqa
p1
I1
sVcyibubi
p2
I1
s.(dp0
Vdhlolz9
p1
I1
sVcyibubi
p2
I1
s.(dp0
Vdhmqfoy
p1
I1
sVcyibubi
p2
I1
s.(dp0
Vcyibubi
p1
I1
sVdhovquc
p2
I1
s.(dp0
Vdhvdttw
p1
I1
sVcyibubi
p2
I1
s.(dp0
Vdhvzhds
p1
I1
sVcyibubi
p2
I1
s.(dp0
Vdi1aa87
p1
I1
sVcyibubi
p2
I1
s.(dp0
Vdi4lojc
p1
I1
sVcyibubi
p2
I1
s.(dp0
Vcyibubi
p1
I1
sVdi85u9b
p2
I1
s.(dp0
Vdiem9q8
p1
I1
sVcyibubi
p2
I1
s.(dp0
Vdiwm778
p1
I1
sVcyibubi
p2
I1
s.(dp0
Vdizi3pd
p1
I1
sVcyibubi
p2
I1
s.(dp0
Vdj3iojt
p1
I1
sVcyibubi
p2
I1
s.(dp0
Vdj6xyve
p1
I1
sVcyibubi
p2
I1
s.(dp0
Vdjjgoc1
p1
I1
sVcyibubi
p2
I1
s.(dp0
Vdjpsgt2
p1
I1
sVcyibubi
p2
I1
s.(dp0
Vdjq8gf0
p1
I1
sVcyibubi
p2
I1
s.(dp0
Vdj(dp0
Vdteizxr
p1
I1
sVcyibubi
p2
I1
s.