(dp0
Vcyhuk39
p1
I1
s.(dp0
Vcyikqoq
p1
I1
sVcyhuk39
p2
I1
s.(dp0
Vcyikqoq
p1
I1
sVcyhuk39
p2
I1
s.(dp0
Vcyhuk39
p1
I1
sVcyis407
p2
I1
s.(dp0
Vcyhuk39
p1
I1
sVcyis407
p2
I1
s.(dp0
Vcyk48ft
p1
I1
sVcyhuk39
p2
I1
s.(dp0
Vcykq24p
p1
I1
sVcyhuk39
p2
I1
s.(dp0
Vcyhuk39
p1
I1
sVcykqt5b
p2
I1
s.(dp0
Vcyhuk39
p1
I1
sVcylhvx0
p2
I1
s.(dp0
Vcyhuk39
p1
I1
sVcylhvx0
p2
I1
s.(dp0
Vcyhuk39
p1
I1
sVcylhvx0
p2
I1
s.(dp0
Vcylyn8u
p1
I1
sVcyhuk39
p2
I1
s.(dp0
Vcyn6b58
p1
I1
sVcyhuk39
p2
I1
s.(dp0
Vcyn6b58
p1
I1
sVcyhuk39
p2
I1
s.(dp0
Vcyhuk39
p1
I1
sVcynenjs
p2
I1
s.(dp0
Vcyhuk39
p1
I1
sVcynenjs
p2
I1
s.(dp0
Vcyhuk39
p1
I1
sVcynenjs
p2
I1
s.(dp0
Vcyhuk39
p1
I1
sVcynenjs
p2
I1
s.(dp0
Vcyhuk39
p1
I1
sVcynenjs
p2
I1
s.(dp0
Vcyhuk39
p1
I1
sVcynenjs
p2
I1
s.(dp0
Vcyos513
p1
I1
sVcyhuk39
p2
I1
s.(dp0
Vcyot6x8
p1
I1
sVcyhuk39
p2
I1
s.(dp0
Vcyhuk39
p1
I1
sVcyp8a3l
p2
I1
s.(dp0
Vcyq0meo
p1
I1
sVcyhuk39
p2
I1
s.(dp0
Vcyhuk39
p1
I1
sVcyq533x
p2
I1
s.(dp0
Vcyhuk39
p1
I1
sVcyqavii
p2
I1
s.(dp0
Vcyqkb6e
p1
I1
sVcyhuk39
p2
I1
s.(dp0
Vcyhuk39
p1
I1
sVcyqr1dr
p2
I1
s.(dp0
Vcyhuk39
p1
I1
sVcyr9b1n
p2
I1
s.(dp0
Vcyhuk39
p1
I1
sVcyr9b1n
p2
I1
s.(dp0
Vcyhuk39
p1
I1
sVcyr9b1n
p2
I1
s.(dp0
Vcyhuk39
p1
I1
sVcyr9b1n
p2
I1
s.(dp0
Vcyhuk39
p1
I1
sVcyr9b1n
p2
I1
s.(dp0
Vcyhuk39
p1
I1
sVcyr9b1n
p2
I1
s.(dp0
Vcyhuk39
p1
I1
sVcyr9b1n
p2
I1
s.(dp0
Vcyhuk39
p1
I1
sVcys9eq0
p2
I1
s.(dp0
Vcysm6ya
p1
I1
sVcyhuk39
p2
I1
s.(dp0
Vcyhuk39
p1
I1
sVcyt1mo7
p2
I1
s.(dp0
Vcytpkuf
p1
I1
sVcyhuk39
p2
I1
s.(dp0
Vcytpkuf
p1
I1
sVcyhuk39
p2
I1
s.(dp0
Vcytpkuf
p1
I1
sVcyhuk39
p2
I1
s.(dp0
Vcytpkuf
p1
I1
sVcyhuk39
p2
I1
s.(dp0
Vcyhuk39
p1
I1
sVcytpqqi
p2
I1
s.(dp0
Vcyhuk39
p1
I1
sVcytpqqi
p2
I1
s.(dp0
Vcyhuk39
p1
I1
sVcytpqqi
p2
I1
s.(dp0
Vcyhuk39
p1
I1
sVcytpqqi
p2
I1
s.(dp0
Vcyhuk39
p1
I1
sVcytpqqi
p2
I1
s.(dp0
Vcyhuk39
p1
I1
sVcytpqqi
p2
I1
s.(dp0
Vcyhuk39
p1
I1
sVcyttzub
p2
I1
s.(dp0
Vcyhuk39
p1
I1
sVcyu1x8n
p2
I1
s.(dp0
Vcyhuk39
p1
I1
sVcyu2zed
p2
I1
s.(dp0
Vcyhuk39
p1
I1
sVcyu8g6h
p2
I1
s.(dp0
Vcyv2ani
p1
I1
sVcyhuk39
p2
I1
s.(dp0
Vcyhuk39
p1
I1
sVcyw43jt
p2
I1
s.(dp0
Vcyhuk39
p1
I1
sVcyx2z6v
p2
I1
s.(dp0
Vcyxfyvi
p1
I1
sVcyhuk39
p2
I1
s.(dp0
Vcyxfyvi
p1
I1
sVcyhuk39
p2
I1
s.(dp0
Vcyxfyvi
p1
I1
sVcyhuk39
p2
I1
s.(dp0
Vcyy3af0
p1
I1
sVcyhuk39
p2
I1
s.(dp0
Vcyy3af0
p1
I1
sVcyhuk39
p2
I1
s.(dp0
Vcyhuk39
p1
I1
sVcyyykub
p2
I1
s.(dp0
Vcyhuk39
p1
I1
sVcz0lvhp
p2
I1
s.(dp0
Vcz0lz08
p1
I1
sVcyhuk39
p2
I1
s.(dp0
Vcyhuk39
p1
I1
sVcz1jz0t
p2
I1
s.(dp0
Vcyhuk39
p1
I1
sVcz27fbs
p2
I1
s.(dp0
Vcyhuk39
p1
I1
sVcz27fbs
p2
I1
s.(dp0
Vcz2mgn0
p1
I1
sVcyhuk39
p2
I1
s.(dp0
Vcz2mgn0
p1
I1
sVcyhuk39
p2
I1
s.(dp0
Vcz2mgn0
p1
I1
sVcyhuk39
p2
I1
s.(dp0
Vcz2qws5
p1
I1
sVcyhuk39
p2
I1
s.(dp0
Vcz310u0
p1
I1
sVcyhuk39
p2
I1
s.(dp0
Vcyhuk39
p1
I1
sVcz3d8gc
p2
I1
s.(dp0
Vcz4hmjz
p1
I1
sVcyhuk39
p2
I1
s.(dp0
Vcz4hmjz
p1
I1
sVcyhuk39
p2
I1
s.(dp0
Vcz4hmjz
p1
I1
sVcyhuk39
p2
I1
s.(dp0
Vcz4lkxg
p1
I1
sVcyhuk39
p2
I1
s.(dp0
Vcz4s4bh
p1
I1
sVcyhuk39
p2
I1
s.(dp0
Vcz4s4bh
p1
I1
sVcyhuk39
p2
I1
s.(dp0
Vcyhuk39
p1
I1
sVcz4t3wh
p2
I1
s.(dp0
Vcyhuk39
p1
I1
sVcz4t3wh
p2
I1
s.(dp0
Vcyhuk39
p1
I1
sVcz4t3wh
p2
I1
s.(dp0
Vcyhuk39
p1
I1
sVcz4t3wh
p2
I1
s.(dp0
Vcyhuk39
p1
I1
sVcz4t3wh
p2
I1
s.(dp0
Vcyhuk39
p1
I1
sVcz4t3wh
p2
I1
s.(dp0
Vcyhuk39
p1
I1
sVcz4t3wh
p2
I1
s.(dp0
Vcyhuk39
p1
I1
sVcz4t3wh
p2
I1
s.(dp0
Vcyhuk39
p1
I1
sVcz8j3jf
p2
I1
s.(dp0
Vcz8q0us
p1
I1
sVcyhuk39
p2
I1
s.(dp0
Vcz8q0us
p1
I1
sVcyhuk39
p2
I1
s.(dp0
Vcyhuk39
p1
I1
sVcz8u22j
p2
I1
s.(dp0
Vcz9217h
p1
I1
sVcyhuk39
p2
I1
s.(dp0
Vcyhuk39
p1
I1
sVczangw3
p2
I1
s.(dp0
Vcyhuk39
p1
I1
sVczangw3
p2
I1
s.(dp0
Vcyhuk39
p1
I1
sVczangw3
p2
I1
s.(dp0
Vcyhuk39
p1
I1
sVczangw3
p2
I1
s.(dp0
Vcyhuk39
p1
I1
sVczangw3
p2
I1
s.(dp0
Vcyhuk39
p1
I1
sVczangw3
p2
I1
s.(dp0
Vcyhuk39
p1
I1
sVczangw3
p2
I1
s.(dp0
Vcyhuk39
p1
I1
sVczangw3
p2
I1
s.(dp0
Vcyhuk39
p1
I1
sVczangw3
p2
I1
s.(dp0
Vczb77bi
p1
I1
sVcyhuk39
p2
I1
s.(dp0
Vczb77bi
p1
I1
sVcyhuk39
p2
I1
s.(dp0
Vczc9lwp
p1
I1
sVcyhuk39
p2
I1
s.(dp0
Vcyhuk39
p1
I1
sVczczxdc
p2
I1
s.(dp0
Vcyhuk39
p1
I1
sVczczxdc
p2
I1
s.(dp0
Vcyhuk39
p1
I1
sVczdv91y
p2
I1
s.(dp0
Vczeyu3b
p1
I1
sVcyhuk39
p2
I1
s.(dp0
Vczeyu3b
p1
I1
sVcyhuk39
p2
I1
s.(dp0
Vcz(dp0
Vdtjkbuc
p1
I1
sVcyhuk39
p2
I1
s.