(dp0
Vcyiu785
p1
I1
s.(dp0
Vcylx3e8
p1
I1
sVcyiu785
p2
I1
s.(dp0
Vcyt6n6a
p1
I1
sVcyiu785
p2
I1
s.(dp0
Vcyzd0gh
p1
I1
sVcyiu785
p2
I1
s.(dp0
Vcyzd0gh
p1
I1
sVcyiu785
p2
I1
s.(dp0
Vcz5aiux
p1
I1
sVcyiu785
p2
I1
s.(dp0
Vcz7lnxz
p1
I1
sVcyiu785
p2
I1
s.(dp0
Vczi2ed8
p1
I1
sVcyiu785
p2
I1
s.(dp0
Vd022boq
p1
I1
sVcyiu785
p2
I1
s.(dp0
Vd0rjsva
p1
I1
sVcyiu785
p2
I1
s.(dp0
Vd15i9fw
p1
I1
sVcyiu785
p2
I1
s.(dp0
Vd23xe7j
p1
I1
sVcyiu785
p2
I1
s.(dp0
Vd27jmiu
p1
I1
sVcyiu785
p2
I1
s.(dp0
Vd38m2qm
p1
I1
sVcyiu785
p2
I1
s.(dp0
Vd3i3u2c
p1
I1
sVcyiu785
p2
I1
s.(dp0
Vd3qm5yy
p1
I1
sVcyiu785
p2
I1
s.(dp0
Vd40rta5
p1
I1
sVcyiu785
p2
I1
s.(dp0
Vd4fui5b
p1
I1
sVcyiu785
p2
I1
s.(dp0
Vd4l487o
p1
I1
sVcyiu785
p2
I1
s.(dp0
Vd4m63zn
p1
I1
sVcyiu785
p2
I1
s.(dp0
Vd4u48ui
p1
I1
sVcyiu785
p2
I1
s.(dp0
Vd4u5qp4
p1
I1
sVcyiu785
p2
I1
s.(dp0
Vd4xe74b
p1
I1
sVcyiu785
p2
I1
s.(dp0
Vd817iw0
p1
I1
sVcyiu785
p2
I1
s.(dp0
Vd8hmek1
p1
I1
sVcyiu785
p2
I1
s.(dp0
Vdasrx08
p1
I1
sVcyiu785
p2
I1
s.(dp0
Vdcjzcrc
p1
I1
sVcyiu785
p2
I1
s.(dp0
Vdcqk8zv
p1
I1
sVcyiu785
p2
I1
s.(dp0
Vdcwpp2w
p1
I1
sVcyiu785
p2
I1
s.(dp0
Vdeccq8g
p1
I1
sVcyiu785
p2
I1
s.(dp0
Vdeli7g8
p1
I1
sVcyiu785
p2
I1
s.(dp0
Vdfe0eyg
p1
I1
sVcyiu785
p2
I1
s.(dp0
Vdfe0eyg
p1
I1
sVcyiu785
p2
I1
s.(dp0
Vdfe0eyg
p1
I1
sVcyiu785
p2
I1
s.(dp0
Vdg8dknt
p1
I1
sVcyiu785
p2
I1
s.(dp0
Vdhatfxh
p1
I1
sVcyiu785
p2
I1
s.(dp0
Vdhz6hrg
p1
I1
sVcyiu785
p2
I1
s.(dp0
Vdi3bzuy
p1
I1
sVcyiu785
p2
I1
s.(dp0
Vdifrwwr
p1
I1
sVcyiu785
p2
I1
s.(dp0
Vdiqahyy
p1
I1
sVcyiu785
p2
I1
s.(dp0
Vdjdgv60
p1
I1
sVcyiu785
p2
I1
s.(dp0
Vdjik9fa
p1
I1
sVcyiu785
p2
I1
s.(dp0
Vdjvdbg0
p1
I1
sVcyiu785
p2
I1
s.(dp0
Vdkdrfvp
p1
I1
sVcyiu785
p2
I1
s.(dp0
Vdkjyqkt
p1
I1
sVcyiu785
p2
I1
s.(dp0
Vdmv4cgg
p1
I1
sVcyiu785
p2
I1
s.(dp0
Vdnvgfr5
p1
I1
sVcyiu785
p2
I1
s.(dp0
Vdo8jvba
p1
I1
sVcyiu785
p2
I1
s.(dp0
Vdq3v5i8
p1
I1
sVcyiu785
p2
I1
s.(dp0
Vdr0i5oe
p1
I1
sVcyiu785
p2
I1
s.(dp0
Vdrbh9d0
p1
I1
sVcyiu785
p2
I1
s.(dp0
Vdrgr0cw
p1
I1
sVcyiu785
p2
I1
s.(dp0
Vdsyxk2a
p1
I1
sVcyiu785
p2
I1
s.