(dp0
Vczcwx5c
p1
I1
sVdk0d8a9
p2
I2
sVd1o4dpd
p3
I1
sVdh029g0
p4
I1
sVd9zwh8d
p5
I2
sVd1xk8t5
p6
I1
sVczfp7l1
p7
I1
sVdavaj3c
p8
I3
sVd9v9npl
p9
I1
sVd7k6qgu
p10
I1
sVdho9ofo
p11
I2
sVdjn3lfm
p12
I1
sVdfom9kx
p13
I1
sVdgpq6vh
p14
I3
sVd0ny5vj
p15
I1
sVdgpyc02
p16
I2
sVdh1zwx9
p17
I1
sVdb0n631
p18
I1
sVdgi05dh
p19
I2
sVd2760qh
p20
I1
sVdkkd3q3
p21
I1
sVczc7uvl
p22
I1
sVd15zvoo
p23
I1
sVdgpzlf8
p24
I1
sVdk29aqj
p25
I1
sVd0im2ja
p26
I1
sVdgkksk4
p27
I2
sVczcwez5
p28
I1
sVcyo4lb6
p29
I1
sVd9vafc1
p30
I2
sVdgqcz4z
p31
I1
sVdn2igek
p32
I1
sVdig0j0z
p33
I1
sVdghtbw8
p34
I1
sVdrate39
p35
I1
sVdkjacq4
p36
I1
sVd2lozag
p37
I2
sVdg9tp1n
p38
I1
sVdgpv2sn
p39
I1
sVd4unney
p40
I14
sVd07deke
p41
I1
sVd1aqul9
p42
I1
sVddsrh6y
p43
I1
sVdo02fr0
p44
I1
sVczc4e8p
p45
I2
sVddjm32q
p46
I1
sVda1egnh
p47
I2
sVdtamksc
p48
I1
sVd3ak3gs
p49
I2
sVd0nvrfk
p50
I4
sVdhf47lw
p51
I1
sVdkjamhy
p52
I1
sVd773djf
p53
I1
sVdratoy1
p54
I1
sVdr1zjg8
p55
I1
s.