(dp0
Vcz9v6gg
p1
I1
s.(dp0
Vcz9v6gg
p1
I2
s.(dp0
Vcz9v6gg
p1
I1
sVd1aigsr
p2
I1
s.(dp0
Vd1joicw
p1
I1
sVcz9v6gg
p2
I1
s.(dp0
Vcz9v6gg
p1
I1
sVd773djf
p2
I1
s.(dp0
Vcz9v6gg
p1
I1
sVd773djf
p2
I1
s.(dp0
Vcz9v6gg
p1
I1
sVd9h66zh
p2
I1
s.(dp0
Vcz9v6gg
p1
I1
sVday7x7h
p2
I1
s.(dp0
Vcz9v6gg
p1
I1
sVdcgrth6
p2
I1
s.(dp0
Vcz9v6gg
p1
I1
sVdd3ugkk
p2
I1
s.(dp0
Vcz9v6gg
p1
I1
sVdgh211c
p2
I1
s.(dp0
Vcz9v6gg
p1
I1
sVdghtbw8
p2
I1
s.(dp0
Vcz9v6gg
p1
I1
sVdghtbw8
p2
I1
s.(dp0
Vcz9v6gg
p1
I1
sVdgpzlf8
p2
I1
s.(dp0
Vcz9v6gg
p1
I1
sVdgpzlf8
p2
I1
s.(dp0
Vcz9v6gg
p1
I1
sVdh029g0
p2
I1
s.(dp0
Vcz9v6gg
p1
I1
sVdqkgewa
p2
I1
s.