(dp0
Vcyt755e
p1
I1
s.(dp0
Vcyt755e
p1
I1
sVczdswzu
p2
I1
s.(dp0
Vcyt755e
p1
I1
sVd04ttah
p2
I1
s.(dp0
Vcyt755e
p1
I1
sVd3r5yjn
p2
I1
s.(dp0
Vcyt755e
p1
I1
sVd5n8z41
p2
I1
s.(dp0
Vcyt755e
p1
I1
sVd5tn96h
p2
I1
s.(dp0
Vcyt755e
p1
I1
sVda55kl8
p2
I1
s.(dp0
Vcyt755e
p1
I1
sVdfh4mra
p2
I1
s.(dp0
Vcyt755e
p1
I1
sVdiheupx
p2
I1
s.