(dp0
Vcztc3o0
p1
I1
sVd8tyyxg
p2
I1
sVd8vixmj
p3
I1
sVdcrv31v
p4
I2
sVdsw3fb2
p5
I1
sVdglqxeb
p6
I1
sVd2xwi4n
p7
I1
sVd0nt6lg
p8
I1
sVd5d1r3n
p9
I1
sVdcrbdm9
p10
I1
sVd9kf9w3
p11
I1
sVdt9qku5
p12
I1
sVddpp7kv
p13
I1
sVczemq78
p14
I1
sVdpjjcft
p15
I1
sVd33t31o
p16
I1
sVcyrqzad
p17
I1
sVd07vfan
p18
I1
sVczwhp96
p19
I1
sVde62asl
p20
I1
sVdjkchai
p21
I1
sVd7sekny
p22
I1
sVd3jv3rk
p23
I1
sVdciwon7
p24
I1
sVd2ijru6
p25
I1
sVd8i27jg
p26
I1
sVdh14i67
p27
I1
sVdt6zeia
p28
I1
sVdaz4kvb
p29
I1
sVdg0kiaw
p30
I1
sVdhts603
p31
I2
sVdt6vnew
p32
I1
sVdasdzq4
p33
I1
sVda8w9cb
p34
I1
sVd4cvy0g
p35
I1
sVd6v9op9
p36
I1
sVdiazqow
p37
I2
sVd2ebpoi
p38
I1
sVdqgsooh
p39
I1
sVd35brem
p40
I1
sVdhz47e3
p41
I1
sVcz98t4y
p42
I1
sVdqqqdke
p43
I1
sVdq4v2ae
p44
I1
sVczm5ctx
p45
I1
sVd77wkua
p46
I3
sVczswmvu
p47
I1
sVdg79n0q
p48
I1
sVds7jrkq
p49
I1
sVd9i2uv7
p50
I1
sVdgpgeso
p51
I1
sVdbzl4r3
p52
I1
sVdb89o9j
p53
I1
sVcyic8x9
p54
I1
sVdglud88
p55
I1
sVdn9cso0
p56
I1
sVda6flg0
p57
I1
sVdb0lzja
p58
I1
sVd3hyz1h
p59
I1
sVdoa2f8b
p60
I2
sVdob83ae
p61
I1
sVde1tokw
p62
I2
sVd55cgza
p63
I1
sVd0icfmp
p64
I1
sVdgwmqwk
p65
I1
sVdk3zp7l
p66
I1
sVdghitzz
p67
I1
sVd3otrkn
p68
I2
sVdgudpa2
p69
I1
sVdkeh616
p70
I2
sVdbuyci8
p71
I1
sVd3124n6
p72
I1
sVd78rs9r
p73
I1
sVdk1qrhj
p74
I1
sVcyp4kle
p75
I2
sVd00dbsj
p76
I1
sVdn7oyly
p77
I1
sVd977m6e
p78
I1
sVdnkjb6w
p79
I1
sVddrxk9u
p80
I1
sVdgsajd9
p81
I1
sVdsmwekw
p82
I1
sVd95qgrk
p83
I1
sVdetq0d3
p84
I1
sVd93io01
p85
I1
sVdkft57k
p86
I1
sVd2e07af
p87
I1
sVd7he242
p88
I1
sVdmrt8he
p89
I1
sVdbv4v8u
p90
I1
sVcz6n2qu
p91
I1
sVdj1zntv
p92
I1
sVda9xg2w
p93
I1
sVd7z59t0
p94
I1
sVddikz7c
p95
I1
sVdcurpi5
p96
I1
sVdr5hmrt
p97
I1
sVdrpzz5v
p98
I1
sVdrqmg2n
p99
I2
sVd9icbrm
p100
I2
sVd234qen
p101
I1
sVdh0zkf6
p102
I1
sVdsmwdld
p103
I1
sVdpvaoui
p104
I3
sVd753myx
p105
I1
sVdrlwtul
p106
I1
sVd8ejd1z
p107
I1
sVdd4g447
p108
I1
sVd746eo7
p109
I1
sVdi1noxa
p110
I1
sVdb0hput
p111
I1
sVdecsgxe
p112
I1
sVds5123l
p113
I1
sVd3nesdb
p114
I1
sVdirhfbk
p115
I1
sVdflhjf8
p116
I1
sVdfs5tag
p117
I1
sVd5rr8yg
p118
I1
sVdd6gzfv
p119
I1
sVdt0vj0d
p120
I1
sVdg3e2me
p121
I1
sVdit93h0
p122
I1
sVdapsw1g
p123
I1
sVdb882a7
p124
I2
sVd6dikl9
p125
I1
sVdo592rr
p126
I1
sVdef1igf
p127
I1
sVd3x44ax
p128
I1
sVde9phpg
p129
I1
sVdo4itst
p130
I2
sVdmtceiz
p131
I1
sVdeo11an
p132
I1
sVd74726n
p133
I1
sVd8k9xeb
p134
I1
sVd05x6s3
p135
I1
sVd6movbt
p136
I1
sVdfmi0bj
p137
I1
sVcysyjhg
p138
I1
sVd8o6cn8
p139
I4
sVd4m5tl7
p140
I1
sVdfuqwna
p141
I1
sVdo4g7hg
p142
I1
sVdpq9zom
p143
I1
sVdik9wsz
p144
I1
sVdfqiknc
p145
I1
sVddoyw6q
p146
I1
sVczbtj3w
p147
I1
sVdbfq9i0
p148
I1
sVd7mcv3r
p149
I1
sVdfs8ye0
p150
I1
sVd3oyazl
p151
I1
sVdfe4bc9
p152
I2
sVd0mexek
p153
I1
sVd8xvdit
p154
I1
sVdry7g1r
p155
I2
sVd3xxlan
p156
I1
sVdgmzgpz
p157
I1
sVd5iwsdw
p158
I1
sVdb6knrl
p159
I1
sVd7fymat
p160
I1
sVdo6y91b
p161
I1
sVddwcsco
p162
I1
sVd38t6b0
p163
I1
sVdjnzv49
p164
I1
sVd3655my
p165
I1
sVd4guhue
p166
I1
sVddb2vp0
p167
I1
sVd8iburz
p168
I1
sVd2guhw2
p169
I1
sVd1fm0hf
p170
I1
sVd1zor96
p171
I1
sVdg8wlib
p172
I1
sVd3x4eee
p173
I1
sVdkayuyz
p174
I1
sVdijie1u
p175
I1
sVd3x5xi6
p176
I1
sVd99llc6
p177
I1
sVdc7wwsg
p178
I1
sVd1hadg5
p179
I1
sVd851eh4
p180
I1
sVdb3lo69
p181
I1
sVd5y2zjd
p182
I1
sVdnehmn7
p183
I1
sVd0ild3d
p184
I1
sVdfaps6e
p185
I1
sVdodu059
p186
I1
sVdj0pcey
p187
I1
sVdd6q0gy
p188
I1
sVd9ecjuc
p189
I1
sVczvy31f
p190
I1
sVdmx6aqv
p191
I1
sVd9i6cju
p192
I1
sVd0i2439
p193
I1
sVczrord9
p194
I1
sVcz8nh9g
p195
I1
s.