(dp0
Vdiskj19
p1
I1
sVd61mkl5
p2
I1
sVd6269h7
p3
I1
sVd627a6u
p4
I1
sVdo9e0mt
p5
I1
sVd626h7i
p6
I2
sVd62b0vy
p7
I1
sVd7ezqj1
p8
I1
sVd057izc
p9
I1
sVd621dp8
p10
I1
sVcz9ntdn
p11
I1
sVd627llq
p12
I2
sVd62brtj
p13
I2
sVczxm0ah
p14
I1
sVd628nih
p15
I4
sVdsm4ino
p16
I1
sVdb6s3nc
p17
I1
sVdfihlqe
p18
I1
sVdhy3iyi
p19
I1
sVd8lo32w
p20
I1
sVd623v3h
p21
I1
sVd38m095
p22
I1
sVd7ezqes
p23
I4
sVd62a1bh
p24
I1
sVdij0ydg
p25
I1
s.