(dp0
Vcyj6szo
p1
I1
s.(dp0
Vcyj6szo
p1
I1
sVcz4e04a
p2
I1
s.(dp0
Vcyj6szo
p1
I1
sVcz4iv8z
p2
I1
s.(dp0
Vcyj6szo
p1
I1
sVczemy10
p2
I1
s.(dp0
Vcyj6szo
p1
I1
sVczp4s1l
p2
I1
s.(dp0
Vcyj6szo
p1
I1
sVczp4s1l
p2
I1
s.(dp0
Vcyj6szo
p1
I1
sVczywf5e
p2
I1
s.(dp0
Vcyj6szo
p1
I1
sVd0aea0d
p2
I1
s.(dp0
Vcyj6szo
p1
I1
sVd0ibf0c
p2
I1
s.(dp0
Vcyj6szo
p1
I1
sVd1oelui
p2
I1
s.(dp0
Vcyj6szo
p1
I1
sVd24zysm
p2
I1
s.(dp0
Vcyj6szo
p1
I1
sVd2t0zjs
p2
I1
s.(dp0
Vcyj6szo
p1
I1
sVd37yox9
p2
I1
s.(dp0
Vcyj6szo
p1
I1
sVd39scli
p2
I1
s.(dp0
Vcyj6szo
p1
I1
sVd3dq6tv
p2
I1
s.(dp0
Vd3tmr0g
p1
I1
sVcyj6szo
p2
I1
s.(dp0
Vd3tmr0g
p1
I1
sVcyj6szo
p2
I1
s.(dp0
Vcyj6szo
p1
I1
sVd462c35
p2
I1
s.(dp0
Vcyj6szo
p1
I1
sVd4baaf5
p2
I1
s.(dp0
Vcyj6szo
p1
I1
sVd5j8tj1
p2
I1
s.(dp0
Vcyj6szo
p1
I1
sVd5j8tj1
p2
I1
s.(dp0
Vcyj6szo
p1
I1
sVd5k9bju
p2
I1
s.(dp0
Vcyj6szo
p1
I1
sVd5o160b
p2
I1
s.(dp0
Vcyj6szo
p1
I1
sVd5zewpp
p2
I1
s.(dp0
Vcyj6szo
p1
I1
sVd69yb9e
p2
I1
s.(dp0
Vcyj6szo
p1
I1
sVd69yb9e
p2
I1
s.(dp0
Vcyj6szo
p1
I1
sVd6ewis7
p2
I1
s.(dp0
Vcyj6szo
p1
I1
sVd6w5d6d
p2
I1
s.(dp0
Vcyj6szo
p1
I1
sVd74jgdd
p2
I1
s.(dp0
Vcyj6szo
p1
I1
sVd77viqf
p2
I1
s.(dp0
Vcyj6szo
p1
I1
sVd77viqf
p2
I1
s.(dp0
Vcyj6szo
p1
I1
sVd7k1h9p
p2
I1
s.(dp0
Vd7sa7no
p1
I1
sVcyj6szo
p2
I1
s.(dp0
Vcyj6szo
p1
I1
sVd8je8qj
p2
I1
s.(dp0
Vcyj6szo
p1
I1
sVd8je8qj
p2
I1
s.(dp0
Vcyj6szo
p1
I1
sVd8je8qj
p2
I1
s.(dp0
Vcyj6szo
p1
I1
sVd909lq5
p2
I1
s.(dp0
Vcyj6szo
p1
I1
sVd9f1icv
p2
I1
s.(dp0
Vcyj6szo
p1
I1
sVd9fufdj
p2
I1
s.(dp0
Vd9r0lum
p1
I1
sVcyj6szo
p2
I1
s.(dp0
Vcyj6szo
p1
I1
sVd9xec38
p2
I1
s.(dp0
Vcyj6szo
p1
I1
sVd9xu8x4
p2
I1
s.(dp0
Vcyj6szo
p1
I1
sVd9ycvkd
p2
I1
s.(dp0
Vcyj6szo
p1
I1
sVda2d0ax
p2
I1
s.(dp0
Vda68o0a
p1
I1
sVcyj6szo
p2
I1
s.(dp0
Vcyj6szo
p1
I1
sVdac2pwi
p2
I1
s.(dp0
Vcyj6szo
p1
I1
sVdax6g2l
p2
I1
s.(dp0
Vcyj6szo
p1
I1
sVdbqpx6e
p2
I1
s.(dp0
Vdbuvik6
p1
I1
sVcyj6szo
p2
I1
s.(dp0
Vcyj6szo
p1
I1
sVdbv1vig
p2
I1
s.(dp0
Vcyj6szo
p1
I1
sVdbvajgc
p2
I1
s.(dp0
Vcyj6szo
p1
I1
sVdbvajgc
p2
I1
s.(dp0
Vcyj6szo
p1
I1
sVdbvajgc
p2
I1
s.(dp0
Vcyj6szo
p1
I1
sVdc9d16j
p2
I1
s.(dp0
Vcyj6szo
p1
I1
sVdc9d16j
p2
I1
s.(dp0
Vcyj6szo
p1
I1
sVdcf9sc0
p2
I1
s.(dp0
Vcyj6szo
p1
I1
sVdcf9sc0
p2
I1
s.(dp0
Vcyj6szo
p1
I1
sVdcg6d57
p2
I1
s.(dp0
Vcyj6szo
p1
I1
sVdck3zh4
p2
I1
s.(dp0
Vcyj6szo
p1
I1
sVdcqbk4f
p2
I1
s.(dp0
Vcyj6szo
p1
I1
sVdcqs1zr
p2
I1
s.(dp0
Vdcut2hq
p1
I1
sVcyj6szo
p2
I1
s.(dp0
Vcyj6szo
p1
I1
sVdd97u9g
p2
I1
s.(dp0
Vcyj6szo
p1
I1
sVddjb38z
p2
I1
s.(dp0
Vcyj6szo
p1
I1
sVddk9zpg
p2
I1
s.(dp0
Vcyj6szo
p1
I1
sVdeosajs
p2
I1
s.(dp0
Vcyj6szo
p1
I1
sVdf4hp7u
p2
I1
s.(dp0
Vcyj6szo
p1
I1
sVdf6idef
p2
I1
s.(dp0
Vcyj6szo
p1
I1
sVdfth68i
p2
I1
s.(dp0
Vdgavp6o
p1
I1
sVcyj6szo
p2
I1
s.(dp0
Vcyj6szo
p1
I1
sVdgcepqf
p2
I1
s.(dp0
Vcyj6szo
p1
I1
sVdgldmlf
p2
I1
s.(dp0
Vcyj6szo
p1
I1
sVdgu93kc
p2
I1
s.(dp0
Vcyj6szo
p1
I1
sVdh2nbra
p2
I1
s.(dp0
Vcyj6szo
p1
I1
sVdh8x3jv
p2
I1
s.(dp0
Vdi2f3ex
p1
I1
sVcyj6szo
p2
I1
s.(dp0
Vdi2f3ex
p1
I1
sVcyj6szo
p2
I1
s.(dp0
Vdi2f3ex
p1
I1
sVcyj6szo
p2
I1
s.(dp0
Vcyj6szo
p1
I1
sVdi2ln07
p2
I1
s.(dp0
Vcyj6szo
p1
I1
sVdi8cjk4
p2
I1
s.(dp0
Vcyj6szo
p1
I1
sVdiqctmu
p2
I1
s.(dp0
Vcyj6szo
p1
I1
sVdiu21b7
p2
I1
s.(dp0
Vcyj6szo
p1
I1
sVdji5zmt
p2
I1
s.(dp0
Vcyj6szo
p1
I1
sVdji5zmt
p2
I1
s.(dp0
Vcyj6szo
p1
I1
sVdjm25av
p2
I1
s.(dp0
Vcyj6szo
p1
I1
sVdjm25av
p2
I1
s.(dp0
Vcyj6szo
p1
I1
sVdjmwbfv
p2
I1
s.(dp0
Vcyj6szo
p1
I1
sVdk68rht
p2
I1
s.(dp0
Vcyj6szo
p1
I1
sVdk68rht
p2
I1
s.(dp0
Vcyj6szo
p1
I1
sVdkk4dbr
p2
I1
s.(dp0
Vcyj6szo
p1
I1
sVdkk4dbr
p2
I1
s.(dp0
Vcyj6szo
p1
I1
sVdkk4dbr
p2
I1
s.(dp0
Vcyj6szo
p1
I1
sVdmg1bgm
p2
I1
s.(dp0
Vcyj6szo
p1
I1
sVdmrn55q
p2
I1
s.(dp0
Vcyj6szo
p1
I1
sVdo8m0wg
p2
I1
s.(dp0
Vcyj6szo
p1
I1
sVdpyjb75
p2
I1
s.(dp0
Vcyj6szo
p1
I1
sVdqwfux2
p2
I1
s.(dp0
Vcyj6szo
p1
I1
sVdrdijfp
p2
I1
s.(dp0
Vcyj6szo
p1
I1
sVdrvnsbb
p2
I1
s.(dp0
Vds03yrp
p1
I1
sVcyj6szo
p2
I1
s.(dp0
Vcyj6szo
p1
I1
sVds24y40
p2
I1
s.(dp0
Vcyj6szo
p1
I1
sVds24y40
p2
I1
s.(dp0
Vcyj6szo
p1
I1
sVds24y40
p2
I1
s.(dp0
Vcyj6szo
p1
I1
sVdt5raob
p2
I1
s.(dp0
Vdtc0pl0
p1
I1
sVcyj6szo
p2
I1
s.