(dp0
Vd44wte5
p1
I1
sVdqg8qc8
p2
I1
sVdgibjlw
p3
I1
sVd67phzf
p4
I1
sVdf7ot1k
p5
I1
sVdmiovsi
p6
I1
sVd5aao0i
p7
I1
sVdcv3dmo
p8
I1
sVd2quzzk
p9
I1
sVdepugtr
p10
I1
sVdc9kgan
p11
I1
sVdfn5kb2
p12
I1
sVdsuiqo2
p13
I1
sVd1pp4bl
p14
I1
sVdb7jrm2
p15
I4
sVdj8k1yg
p16
I1
sVcynmma0
p17
I1
sVdalb7a3
p18
I1
sVdil2w88
p19
I1
sVd7qhsp1
p20
I1
sVdk3eaf0
p21
I1
sVdbag1o8
p22
I1
sVdel969s
p23
I1
s.