(dp0
Vczev9db
p1
I1
s.(dp0
Vczm9gtk
p1
I1
sVczev9db
p2
I1
s.(dp0
Vczev9db
p1
I1
sVd18px9l
p2
I1
s.(dp0
Vd1oqzt9
p1
I1
sVczev9db
p2
I1
s.(dp0
Vd1qqyk4
p1
I1
sVczev9db
p2
I1
s.(dp0
Vd359vym
p1
I1
sVczev9db
p2
I1
s.(dp0
Vd37bwz6
p1
I1
sVczev9db
p2
I1
s.(dp0
Vdb6vop8
p1
I1
sVczev9db
p2
I1
s.(dp0
Vddbwhp4
p1
I1
sVczev9db
p2
I1
s.(dp0
Vddfq67t
p1
I1
sVczev9db
p2
I1
s.(dp0
Vdf1xcin
p1
I1
sVczev9db
p2
I1
s.(dp0
Vdf95nh2
p1
I1
sVczev9db
p2
I1
s.(dp0
Vdfo685r
p1
I1
sVczev9db
p2
I1
s.(dp0
Vdhprn0u
p1
I1
sVczev9db
p2
I1
s.(dp0
Vdi35uq8
p1
I1
sVczev9db
p2
I1
s.(dp0
Vdr96e51
p1
I1
sVczev9db
p2
I1
s.