(dp0
Vdk4r2qq
p1
I1
sVdg1y6mx
p2
I1
sVd3135bu
p3
I2
sVdk595el
p4
I1
sVdiuww5b
p5
I1
sVdpquowg
p6
I2
sVd4igr0s
p7
I1
sVdpqpttg
p8
I1
sVcym90tg
p9
I1
sVd2vf8a9
p10
I1
sVd1hqnmn
p11
I1
sVczrrnr3
p12
I1
sVd1uk0d0
p13
I1
sVd6oez33
p14
I1
sVd0wf398
p15
I1
sVdrm4vxr
p16
I1
sVd3ybtyu
p17
I1
sVdnrcs3p
p18
I1
sVd9zxzpj
p19
I1
s.