(dp0
Vd0dt03q
p1
I1
sVd5jgoe2
p2
I1
sVdb3p7ep
p3
I1
sVddh0c7h
p4
I1
sVdcad26q
p5
I1
sVdgpccv3
p6
I1
sVdb0z9a0
p7
I1
sVdbwbi9s
p8
I1
sVdczy7zx
p9
I1
sVcyl5mh1
p10
I2
sVde2jork
p11
I1
sVcykkwzb
p12
I1
sVdqtq0wg
p13
I1
sVd5zjtcm
p14
I1
sVczuoouy
p15
I1
sVd6h94mi
p16
I1
sVdg9p4ww
p17
I1
sVddhrkht
p18
I1
sVczyutjf
p19
I1
sVd615ff0
p20
I1
sVdsku15n
p21
I1
sVd6z2957
p22
I2
sVdd26cs8
p23
I1
sVd5etjir
p24
I1
sVdd3fitr
p25
I1
sVdceatf7
p26
I1
sVcyvd4fh
p27
I1
sVdgjaomc
p28
I1
sVd8aq57k
p29
I2
sVd1qu52z
p30
I1
sVd310joq
p31
I1
sVdamb7py
p32
I1
sVdac0i1k
p33
I1
sVdnd1fax
p34
I1
sVddhx5dx
p35
I1
sVd6zg5a8
p36
I1
sVczh9gpb
p37
I1
sVcyyy6zb
p38
I2
sVdid0iwr
p39
I1
sVd1kabua
p40
I1
sVd89fwjl
p41
I1
sVd2m8ero
p42
I1
sVdchnjxk
p43
I1
sVdh10wtc
p44
I1
sVdmrby2w
p45
I1
sVd9jli6l
p46
I1
sVczkg7o7
p47
I1
sVdk1aqnk
p48
I1
sVde1c7ye
p49
I2
sVde10ix8
p50
I1
sVds2dzmc
p51
I1
sVd5043sc
p52
I1
sVcyii4md
p53
I1
sVd64j2z4
p54
I1
sVd0l3hlf
p55
I1
sVd0lb60c
p56
I1
sVd7qh42b
p57
I1
sVdd4rwqn
p58
I1
sVd4xozb4
p59
I1
sVd49leve
p60
I1
sVd9z1dea
p61
I1
sVda5jfu3
p62
I2
sVd1k4hmg
p63
I1
sVdj3o0vi
p64
I1
sVd9f6w3y
p65
I1
sVd5hbyek
p66
I2
sVd82pej6
p67
I2
sVczm9ck2
p68
I1
sVdnr34s2
p69
I1
sVds3xw2s
p70
I1
sVd3h3pt3
p71
I1
sVcyku68u
p72
I1
sVd48pg7t
p73
I1
sVd55tm1u
p74
I1
sVd4flz7o
p75
I1
sVd9f6zgm
p76
I1
sVczlijcb
p77
I1
sVdb16e12
p78
I1
sVd5vp84i
p79
I1
sVdc5nqp2
p80
I1
sVdjun72y
p81
I1
sVd8y0xrw
p82
I1
sVdazv05u
p83
I1
sVczwznpn
p84
I1
sVd744lce
p85
I1
sVddu4xuf
p86
I1
sVd6kgpg3
p87
I1
sVczmaci4
p88
I1
sVdqhq3kb
p89
I1
sVd1yda0b
p90
I1
sVd310lal
p91
I1
sVczwu4j3
p92
I2
sVdn922w0
p93
I1
sVdhuiuby
p94
I2
sVdglbmmt
p95
I1
sVczs36e3
p96
I1
sVdco62aw
p97
I1
sVdn6njpo
p98
I1
sVd4gdq5z
p99
I5
sVd6jd790
p100
I2
sVcze3jhw
p101
I1
sVde0z1rb
p102
I1
sVd82pto0
p103
I3
sVd9vq2ye
p104
I1
sVddbkk3l
p105
I1
sVd91ezjv
p106
I1
s.