(dp0
Vdrrvyly
p1
I1
sVddi29ko
p2
I1
sVcz1jw3g
p3
I1
sVdn77z4q
p4
I1
sVdcs5udz
p5
I1
sVd7bbiti
p6
I1
sVd526x1n
p7
I1
sVd1hbhwa
p8
I2
sVdcd4iq1
p9
I3
sVd1h2ei6
p10
I1
sVd7ewrm8
p11
I1
sVd03q9pu
p12
I1
sVde2g1db
p13
I1
sVd8ftgem
p14
I1
sVdpa0bjf
p15
I1
sVd5bytqg
p16
I1
sVdjdkteo
p17
I1
sVd8j7cnk
p18
I1
sVdntjx3g
p19
I1
sVdcd6tl0
p20
I1
sVdjwxh2v
p21
I1
sVdivp7qu
p22
I1
s.