(dp0
Vcz4nytq
p1
I1
sVdfvr4j9
p2
I1
sVdbuku90
p3
I1
sVd3lr6op
p4
I1
sVdo1pg41
p5
I1
sVddi4hh5
p6
I2
sVdbhcyt1
p7
I1
sVczxiz60
p8
I2
sVd6qscrf
p9
I1
sVdcfpitr
p10
I1
sVd8vj5uj
p11
I1
sVd6f1dye
p12
I1
sVczm9o7p
p13
I2
sVdgz2i1l
p14
I1
sVdn5ku00
p15
I1
sVd0ffncq
p16
I1
sVd2xihfx
p17
I1
sVd47z1bh
p18
I1
sVdhnq6oi
p19
I1
sVd1says1
p20
I1
sVd5zv4s2
p21
I1
sVddx4pul
p22
I1
sVd4g9m5l
p23
I1
sVddih3q8
p24
I1
sVd0tk35l
p25
I1
sVd8nl6bz
p26
I1
sVd9e1lph
p27
I1
sVd0l7gjl
p28
I1
sVcywwaxh
p29
I1
sVd2h63pw
p30
I1
sVd3j34k1
p31
I1
sVd0y22km
p32
I1
sVd5jg2a9
p33
I1
sVd4j7q3i
p34
I1
sVdh4ok2j
p35
I1
sVd4p4x6g
p36
I1
sVd84bbzd
p37
I1
sVd7p825n
p38
I2
sVcyqt6hu
p39
I1
sVd3scc5v
p40
I1
sVdfvy6zo
p41
I1
sVd0sbkb7
p42
I1
sVdidzjv8
p43
I1
sVczgp7cd
p44
I1
sVdh0iocw
p45
I1
sVczqb99d
p46
I1
sVd093c2p
p47
I1
sVd3j36sk
p48
I1
sVd6rjpay
p49
I1
sVd8j8yhg
p50
I1
sVd9in4xw
p51
I1
sVd6a2ov4
p52
I1
sVdii4wqi
p53
I1
sVdg6lewu
p54
I2
sVdb7moip
p55
I1
sVdiepvgb
p56
I1
sVd2pw3xz
p57
I1
sVdax6hcq
p58
I1
sVdnegvqi
p59
I1
sVdh8islz
p60
I1
sVdfapcnf
p61
I1
sVd7jcwju
p62
I1
sVcyx0695
p63
I1
sVcz97sk1
p64
I1
sVd1fveau
p65
I1
sVd9iguqk
p66
I1
sVd4l2iyt
p67
I1
sVd4g0own
p68
I1
sVd5ybpch
p69
I2
sVdjym2wg
p70
I2
sVdniimsw
p71
I1
sVdc686wp
p72
I2
sVd4l0vox
p73
I1
sVd4a4q9j
p74
I1
sVdapnbhh
p75
I1
sVdivo329
p76
I1
sVd0vr2mn
p77
I1
sVddc7dnd
p78
I1
sVd1gi33w
p79
I1
sVd4g27yw
p80
I1
sVd4glc8h
p81
I1
sVd1pt3ta
p82
I1
sVd03jpnw
p83
I1
sVczs4m7c
p84
I1
sVczsasf5
p85
I2
sVd7l6r30
p86
I1
sVdd6q2p4
p87
I1
sVczywdys
p88
I1
sVddk4o00
p89
I1
sVdn3jn5h
p90
I1
sVd7p919h
p91
I1
sVd3ipkcj
p92
I1
sVd4l05kr
p93
I1
sVcz2eray
p94
I1
sVd94vhxr
p95
I1
sVd1vu6oh
p96
I1
sVd3hfimq
p97
I1
sVd7n3kn9
p98
I1
sVd4gq1xi
p99
I1
sVdnjrdou
p100
I1
sVd4vx020
p101
I5
sVdg6owr3
p102
I1
sVdfewf3n
p103
I1
sVddkjszc
p104
I1
sVdd3wnen
p105
I1
sVdcphm2m
p106
I1
sVd43avf5
p107
I1
sVdt48pkt
p108
I1
sVd34k9hf
p109
I1
sVd7lis78
p110
I2
sVdahr4da
p111
I1
sVczs4kfp
p112
I1
sVd60v902
p113
I1
sVd6w8ybm
p114
I1
sVdsob45m
p115
I1
sVd9kzgdx
p116
I1
sVdqb82b0
p117
I1
sVdhjj0cs
p118
I3
sVdfalwox
p119
I1
sVd9asnsz
p120
I1
sVd00k8yx
p121
I1
sVdfiy4g2
p122
I1
sVdj2dqmh
p123
I1
sVd711o9f
p124
I1
sVdok1rmw
p125
I1
sVcylhb6r
p126
I1
sVd3mvr3u
p127
I1
sVd4wohk8
p128
I1
sVd2s4jde
p129
I1
sVczov2fx
p130
I1
sVd8hejz1
p131
I1
sVczyfu2p
p132
I1
sVdftqkmy
p133
I2
sVd7sgeav
p134
I1
sVczd5wgr
p135
I1
sVdfv7a01
p136
I1
sVcyl1iy1
p137
I1
sVd74h4vt
p138
I1
sVdah29xk
p139
I1
sVd24hdp0
p140
I1
sVdi2igcm
p141
I1
sVde460jf
p142
I1
sVd7buazc
p143
I1
sVd0vqbz7
p144
I1
sVdaet6o5
p145
I1
sVcyp4anf
p146
I1
sVdi07h4b
p147
I1
sVdhf3y14
p148
I1
sVdczpg1y
p149
I1
sVdkeb1w7
p150
I1
sVd37r7o2
p151
I1
sVdd3lfq9
p152
I1
sVd4gdq5z
p153
I1
sVdj57jj2
p154
I1
s.