(dp0
Vcyl1iy1
p1
I1
s.(dp0
Vcylhb6r
p1
I1
sVcyl1iy1
p2
I1
s.(dp0
Vcyp4anf
p1
I1
sVcyl1iy1
p2
I1
s.(dp0
Vcyqt6hu
p1
I1
sVcyl1iy1
p2
I1
s.(dp0
Vcywwaxh
p1
I1
sVcyl1iy1
p2
I1
s.(dp0
Vcyx0695
p1
I1
sVcyl1iy1
p2
I1
s.(dp0
Vcz2eray
p1
I1
sVcyl1iy1
p2
I1
s.(dp0
Vcz4nytq
p1
I1
sVcyl1iy1
p2
I1
s.(dp0
Vcz97sk1
p1
I1
sVcyl1iy1
p2
I1
s.(dp0
Vczd5wgr
p1
I1
sVcyl1iy1
p2
I1
s.(dp0
Vczgp7cd
p1
I1
sVcyl1iy1
p2
I1
s.(dp0
Vczm9o7p
p1
I1
sVcyl1iy1
p2
I1
s.(dp0
Vczm9o7p
p1
I1
sVcyl1iy1
p2
I1
s.(dp0
Vczov2fx
p1
I1
sVcyl1iy1
p2
I1
s.(dp0
Vczqb99d
p1
I1
sVcyl1iy1
p2
I1
s.(dp0
Vczs4kfp
p1
I1
sVcyl1iy1
p2
I1
s.(dp0
Vczs4m7c
p1
I1
sVcyl1iy1
p2
I1
s.(dp0
Vczsasf5
p1
I1
sVcyl1iy1
p2
I1
s.(dp0
Vczsasf5
p1
I1
sVcyl1iy1
p2
I1
s.(dp0
Vczxiz60
p1
I1
sVcyl1iy1
p2
I1
s.(dp0
Vczxiz60
p1
I1
sVcyl1iy1
p2
I1
s.(dp0
Vczyfu2p
p1
I1
sVcyl1iy1
p2
I1
s.(dp0
Vczywdys
p1
I1
sVcyl1iy1
p2
I1
s.(dp0
Vd00k8yx
p1
I1
sVcyl1iy1
p2
I1
s.(dp0
Vd03jpnw
p1
I1
sVcyl1iy1
p2
I1
s.(dp0
Vd093c2p
p1
I1
sVcyl1iy1
p2
I1
s.(dp0
Vd0ffncq
p1
I1
sVcyl1iy1
p2
I1
s.(dp0
Vd0l7gjl
p1
I1
sVcyl1iy1
p2
I1
s.(dp0
Vd0sbkb7
p1
I1
sVcyl1iy1
p2
I1
s.(dp0
Vd0tk35l
p1
I1
sVcyl1iy1
p2
I1
s.(dp0
Vd0vqbz7
p1
I1
sVcyl1iy1
p2
I1
s.(dp0
Vd0vr2mn
p1
I1
sVcyl1iy1
p2
I1
s.(dp0
Vd0y22km
p1
I1
sVcyl1iy1
p2
I1
s.(dp0
Vd1fveau
p1
I1
sVcyl1iy1
p2
I1
s.(dp0
Vd1gi33w
p1
I1
sVcyl1iy1
p2
I1
s.(dp0
Vd1pt3ta
p1
I1
sVcyl1iy1
p2
I1
s.(dp0
Vd1says1
p1
I1
sVcyl1iy1
p2
I1
s.(dp0
Vd1vu6oh
p1
I1
sVcyl1iy1
p2
I1
s.(dp0
Vd24hdp0
p1
I1
sVcyl1iy1
p2
I1
s.(dp0
Vd2h63pw
p1
I1
sVcyl1iy1
p2
I1
s.(dp0
Vd2pw3xz
p1
I1
sVcyl1iy1
p2
I1
s.(dp0
Vd2s4jde
p1
I1
sVcyl1iy1
p2
I1
s.(dp0
Vd2xihfx
p1
I1
sVcyl1iy1
p2
I1
s.(dp0
Vd34k9hf
p1
I1
sVcyl1iy1
p2
I1
s.(dp0
Vd37r7o2
p1
I1
sVcyl1iy1
p2
I1
s.(dp0
Vd3hfimq
p1
I1
sVcyl1iy1
p2
I1
s.(dp0
Vd3ipkcj
p1
I1
sVcyl1iy1
p2
I1
s.(dp0
Vd3j34k1
p1
I1
sVcyl1iy1
p2
I1
s.(dp0
Vd3j36sk
p1
I1
sVcyl1iy1
p2
I1
s.(dp0
Vd3lr6op
p1
I1
sVcyl1iy1
p2
I1
s.(dp0
Vd3mvr3u
p1
I1
sVcyl1iy1
p2
I1
s.(dp0
Vd3scc5v
p1
I1
sVcyl1iy1
p2
I1
s.(dp0
Vd43avf5
p1
I1
sVcyl1iy1
p2
I1
s.(dp0
Vd47z1bh
p1
I1
sVcyl1iy1
p2
I1
s.(dp0
Vd4a4q9j
p1
I1
sVcyl1iy1
p2
I1
s.(dp0
Vd4g0own
p1
I1
sVcyl1iy1
p2
I1
s.(dp0
Vd4g27yw
p1
I1
sVcyl1iy1
p2
I1
s.(dp0
Vd4g9m5l
p1
I1
sVcyl1iy1
p2
I1
s.(dp0
Vd4gdq5z
p1
I1
sVcyl1iy1
p2
I1
s.(dp0
Vd4glc8h
p1
I1
sVcyl1iy1
p2
I1
s.(dp0
Vd4gq1xi
p1
I1
sVcyl1iy1
p2
I1
s.(dp0
Vd4j7q3i
p1
I1
sVcyl1iy1
p2
I1
s.(dp0
Vd4l05kr
p1
I1
sVcyl1iy1
p2
I1
s.(dp0
Vd4l0vox
p1
I1
sVcyl1iy1
p2
I1
s.(dp0
Vd4l2iyt
p1
I1
sVcyl1iy1
p2
I1
s.(dp0
Vd4p4x6g
p1
I1
sVcyl1iy1
p2
I1
s.(dp0
Vd4vx020
p1
I1
sVcyl1iy1
p2
I1
s.(dp0
Vd4vx020
p1
I1
sVcyl1iy1
p2
I1
s.(dp0
Vd4vx020
p1
I1
sVcyl1iy1
p2
I1
s.(dp0
Vd4vx020
p1
I1
sVcyl1iy1
p2
I1
s.(dp0
Vd4vx020
p1
I1
sVcyl1iy1
p2
I1
s.(dp0
Vd4wohk8
p1
I1
sVcyl1iy1
p2
I1
s.(dp0
Vd5jg2a9
p1
I1
sVcyl1iy1
p2
I1
s.(dp0
Vd5ybpch
p1
I1
sVcyl1iy1
p2
I1
s.(dp0
Vd5ybpch
p1
I1
sVcyl1iy1
p2
I1
s.(dp0
Vd5zv4s2
p1
I1
sVcyl1iy1
p2
I1
s.(dp0
Vd60v902
p1
I1
sVcyl1iy1
p2
I1
s.(dp0
Vd6a2ov4
p1
I1
sVcyl1iy1
p2
I1
s.(dp0
Vd6f1dye
p1
I1
sVcyl1iy1
p2
I1
s.(dp0
Vd6qscrf
p1
I1
sVcyl1iy1
p2
I1
s.(dp0
Vd6rjpay
p1
I1
sVcyl1iy1
p2
I1
s.(dp0
Vd6w8ybm
p1
I1
sVcyl1iy1
p2
I1
s.(dp0
Vd711o9f
p1
I1
sVcyl1iy1
p2
I1
s.(dp0
Vd74h4vt
p1
I1
sVcyl1iy1
p2
I1
s.(dp0
Vd7buazc
p1
I1
sVcyl1iy1
p2
I1
s.(dp0
Vd7jcwju
p1
I1
sVcyl1iy1
p2
I1
s.(dp0
Vd7l6r30
p1
I1
sVcyl1iy1
p2
I1
s.(dp0
Vd7lis78
p1
I1
sVcyl1iy1
p2
I1
s.(dp0
Vd7lis78
p1
I1
sVcyl1iy1
p2
I1
s.(dp0
Vd7n3kn9
p1
I1
sVcyl1iy1
p2
I1
s.(dp0
Vd7p825n
p1
I1
sVcyl1iy1
p2
I1
s.(dp0
Vd7p825n
p1
I1
sVcyl1iy1
p2
I1
s.(dp0
Vd7p919h
p1
I1
sVcyl1iy1
p2
I1
s.(dp0
Vd7sgeav
p1
I1
sVcyl1iy1
p2
I1
s.(dp0
Vd84bbzd
p1
I1
sVcyl1iy1
p2
I1
s.(dp0
Vd8hejz1
p1
I1
sVcyl1iy1
p2
I1
s.(dp0
Vd8j8yhg
p1
I1
sVcyl1iy1
p2
I1
s.(dp0
Vd8nl6bz
p1
I1
sVcyl1iy1
p2
I1
s.(dp0
Vd8vj5uj
p1
I1
sVcyl1iy1
p2
I1
s.(dp0
Vd94vhxr
p1
I1
sVcyl1iy1
p2
I1
s.(dp0
Vd9asnsz
p1
I1
sVcyl1iy1
p2
I1
s.(dp0
Vd9e1lph
p1
I1
sVcyl1iy1
p2
I1
s.(dp0
Vd9iguqk
p1
I1
sVcyl1iy1
p2
I1
s.(dp0
Vd9in4xw
p1
I1
sVcyl1iy1
p2
I1
s.(dp0
Vd9kzgdx
p1
I1
sVcyl1iy1
p2
I1
s.(dp0
Vdaet6o5
p1
I1
sVcyl1iy1
p2
I1
s.(dp0
Vdah29xk
p1
I1
sVcyl1iy1
p2
I1
s.(dp0
Vdahr4da
p1
I1
sVcyl1iy1
p2
I1
s.(dp0
Vda(dp0
Vdt48pkt
p1
I1
sVcyl1iy1
p2
I1
s.