(dp0
Vd5icivk
p1
I1
sVdel95st
p2
I1
sVd17c90a
p3
I1
sVd23gdcy
p4
I1
sVdjfoi5b
p5
I1
sVdoewj72
p6
I1
sVdc8sp6k
p7
I1
sVczy8h3l
p8
I1
sVdgadwdk
p9
I1
sVdge1sjf
p10
I1
sVdjzpxpi
p11
I1
sVdk4tvw5
p12
I2
sVd35645u
p13
I1
sVd0b0b8u
p14
I1
sVd4tau9m
p15
I1
s.