(dp0
Vczh3z30
p1
I1
s.(dp0
Vczh3z30
p1
I1
sVczwkku8
p2
I1
s.(dp0
Vczh3z30
p1
I1
sVd0jxqlf
p2
I1
s.(dp0
Vczh3z30
p1
I1
sVd0ol5o7
p2
I1
s.(dp0
Vczh3z30
p1
I1
sVd2lgbu2
p2
I1
s.(dp0
Vczh3z30
p1
I1
sVd2s1a3z
p2
I1
s.(dp0
Vczh3z30
p1
I1
sVd3apmxa
p2
I1
s.(dp0
Vczh3z30
p1
I1
sVd67tqkz
p2
I1
s.(dp0
Vczh3z30
p1
I1
sVd6e6vry
p2
I1
s.(dp0
Vczh3z30
p1
I1
sVd6eo9ax
p2
I1
s.(dp0
Vczh3z30
p1
I1
sVd7de048
p2
I1
s.(dp0
Vczh3z30
p1
I1
sVd7yb2c4
p2
I1
s.(dp0
Vczh3z30
p1
I1
sVd9ithtd
p2
I1
s.(dp0
Vczh3z30
p1
I1
sVdboxqp5
p2
I1
s.(dp0
Vczh3z30
p1
I1
sVdcphm2m
p2
I1
s.(dp0
Vczh3z30
p1
I1
sVdd7odih
p2
I1
s.(dp0
Vczh3z30
p1
I1
sVdecfkgs
p2
I1
s.(dp0
Vczh3z30
p1
I1
sVdfrn0ho
p2
I1
s.(dp0
Vczh3z30
p1
I1
sVdi4z1he
p2
I1
s.(dp0
Vczh3z30
p1
I1
sVdif0qbq
p2
I1
s.(dp0
Vczh3z30
p1
I1
sVdihpjb4
p2
I1
s.(dp0
Vczh3z30
p1
I1
sVdixa26m
p2
I1
s.(dp0
Vczh3z30
p1
I1
sVdn83fms
p2
I1
s.(dp0
Vczh3z30
p1
I1
sVdpgeyqu
p2
I1
s.(dp0
Vczh3z30
p1
I1
sVdqpixr4
p2
I1
s.(dp0
Vczh3z30
p1
I1
sVdtexf8m
p2
I1
s.