(dp0
Vdf7q6r8
p1
I1
sVdnzikd6
p2
I1
sVdaig3re
p3
I2
sVd5537dk
p4
I1
sVd4y0l48
p5
I1
sVd2852k6
p6
I1
sVd0y33oq
p7
I1
sVcz7bp83
p8
I1
sVdb234re
p9
I1
sVdo3a9y5
p10
I1
sVdhd59jn
p11
I2
sVdk3984t
p12
I1
sVdcf4qi1
p13
I2
sVczuvnto
p14
I1
sVdc9r5zo
p15
I1
sVczj3u3o
p16
I1
sVdb3cgtc
p17
I1
s.