(dp0
Vd75spyt
p1
I1
sVd969jjb
p2
I5
sVdayogep
p3
I1
sVd7fa2wz
p4
I3
sVdetqbmo
p5
I1
sVdnh1kzv
p6
I1
sVdbu4etd
p7
I3
sVd862yk9
p8
I1
sVd963h3e
p9
I1
sVdbu433j
p10
I3
sVd8htheu
p11
I1
sVd02baev
p12
I1
sVcyrjl1h
p13
I1
sVd09a3kv
p14
I3
sVd56ph7s
p15
I1
sVdid1nbr
p16
I1
sVd7bmb6e
p17
I2
sVd64dnsf
p18
I1
sVd3dak66
p19
I1
sVd0rtmq3
p20
I1
sVdo0g2cv
p21
I1
sVczipino
p22
I1
sVd7fa8ue
p23
I7
sVdcjd79d
p24
I1
sVdpi2jjc
p25
I4
sVd98a9ix
p26
I1
sVd7bmekq
p27
I4
sVcz7w88d
p28
I1
sVd0tyn5t
p29
I1
s.