(dp0
Vd7v7tqr
p1
I1
sVd2i50at
p2
I2
sVdfl29tp
p3
I1
sVdn1xho6
p4
I1
sVdfojjze
p5
I1
sVd896lvd
p6
I1
sVd9fulfg
p7
I1
sVdg74ke0
p8
I1
sVd8k3n1i
p9
I2
sVd0h3g2s
p10
I1
sVcyqm5ib
p11
I1
sVdry9lw4
p12
I1
sVd7z7k9z
p13
I1
sVdb7vzn7
p14
I1
sVdp70arx
p15
I3
sVdfgo4lm
p16
I1
sVd85us5z
p17
I1
sVd2i5i23
p18
I1
sVdbewhlm
p19
I1
sVdfcwlwo
p20
I1
sVdg10w9g
p21
I1
sVd2rv1cf
p22
I2
sVdeq1cqj
p23
I1
sVczpm87m
p24
I1
sVda0ey6w
p25
I2
sVcyx2c3c
p26
I1
sVd7e6ghb
p27
I1
sVd45w02o
p28
I1
sVdfmq0by
p29
I1
sVd3b9b1c
p30
I1
sVcyj0lbq
p31
I1
sVcyi4esn
p32
I1
sVdn0wevv
p33
I2
sVdpe6l3r
p34
I1
sVcyonx7d
p35
I1
sVd87iqdz
p36
I1
sVdhia0yr
p37
I1
sVdrtaluj
p38
I2
sVdbe5tcf
p39
I1
sVdo7a62z
p40
I1
sVczh0ij5
p41
I1
sVd1t5mc2
p42
I1
sVdbnpha6
p43
I1
sVdef06h5
p44
I1
sVd8a9sj6
p45
I2
sVdot316p
p46
I1
sVd2kuwd0
p47
I1
sVd944sxj
p48
I1
sVd3nj0ef
p49
I1
s.