(dp0
Vcznuonw
p1
I1
sVczr58p9
p2
I1
sVdjwzgpc
p3
I1
sVdnqqiku
p4
I1
sVdf2rz1c
p5
I1
sVd5uqfau
p6
I1
sVderdizk
p7
I1
sVdk6d4b2
p8
I1
sVdbmxauw
p9
I1
sVd00x3en
p10
I1
sVd6mwcik
p11
I1
sVd043ylo
p12
I2
sVd83qhu5
p13
I1
sVd5m4u5u
p14
I1
sVds4bt1j
p15
I1
sVd30x9q5
p16
I1
sVdkqkj0l
p17
I1
sVd0bff3v
p18
I1
sVd1jftv9
p19
I1
sVdhqej03
p20
I1
sVdhhp2o0
p21
I1
sVdb6drys
p22
I1
sVd0mflh2
p23
I1
sVd3qt6xv
p24
I1
sVd1l3ktn
p25
I1
sVd8vbtm9
p26
I1
sVddej049
p27
I1
s.