(dp0
Vczidtye
p1
I1
sVd2p5e4k
p2
I1
sVdevqdt9
p3
I5
sVd1yvkjo
p4
I1
sVd4lftpc
p5
I5
sVdrqinkh
p6
I1
sVczmfbdr
p7
I1
sVdq1zwmc
p8
I1
sVdnfx1x8
p9
I1
sVd08wyxf
p10
I1
sVd752q4r
p11
I1
sVczi76se
p12
I1
sVdgkgw8o
p13
I1
sVddiscxg
p14
I1
sVdai1jvj
p15
I1
sVddfarh9
p16
I6
sVczi9ddl
p17
I1
sVd7hk00c
p18
I1
sVd7m7ioo
p19
I2
sVdcjyftv
p20
I1
sVdjktng4
p21
I1
sVdg8y5ep
p22
I7
sVdmi5dk0
p23
I1
sVd08i0se
p24
I1
sVdg8ycl6
p25
I1
sVdgpyrp1
p26
I1
sVdoad7v7
p27
I2
sVdaad3r6
p28
I1
sVd3iuaay
p29
I1
sVdchstk8
p30
I1
sVczi49ys
p31
I2
sVdbnmxri
p32
I1
sVd1ici48
p33
I2
sVd06crd5
p34
I1
sVdbnph29
p35
I4
sVdsu9vef
p36
I1
sVdq5ldc5
p37
I2
sVd09l1fz
p38
I1
sVdoi4js7
p39
I1
sVd562luy
p40
I1
sVcyk6eov
p41
I1
sVd99mqsm
p42
I1
sVczi9mc5
p43
I1
sVdizn2g8
p44
I1
sVdeqi12y
p45
I1
sVdb6ke9b
p46
I1
sVdfhj918
p47
I1
sVdqavyhx
p48
I1
sVd6a6asp
p49
I1
sVdfidlf3
p50
I1
sVcyp3f1d
p51
I1
sVdhexhoi
p52
I1
sVczthyh0
p53
I2
sVd1y9be4
p54
I1
sVdgw8elr
p55
I1
sVdbnnkjs
p56
I1
sVd5umu2t
p57
I1
sVdh85a83
p58
I1
sVddfinfa
p59
I1
sVd0q0sou
p60
I1
sVdq5d3ny
p61
I4
sVczbs4ww
p62
I1
sVczyqtt1
p63
I1
sVdjv0tw5
p64
I3
sVczn2hj4
p65
I2
sVde70rdv
p66
I1
sVd5xjalw
p67
I1
sVdd6snd8
p68
I1
sVd25xjy7
p69
I1
sVdan8pl4
p70
I2
sVcyyv109
p71
I3
sVdd9n32d
p72
I1
sVdqoxnpw
p73
I1
sVdizn8zf
p74
I6
sVd6aj7og
p75
I3
sVdglbnpb
p76
I1
sVd6bhecg
p77
I3
sVczsy2ya
p78
I3
sVdnacs8e
p79
I1
sVd8m0mrx
p80
I1
sVd4hzlzu
p81
I1
sVczfc0qz
p82
I1
sVdgjrkt6
p83
I1
sVdrt9xbx
p84
I7
sVczrqx6p
p85
I2
sVdnaqcum
p86
I1
sVd7pozd9
p87
I1
sVddcou14
p88
I1
sVdiczrcz
p89
I1
sVdejcapv
p90
I1
sVdd4r5xi
p91
I4
sVcytwq0t
p92
I1
sVd8frz1p
p93
I1
sVd8zcpa7
p94
I3
sVczagd3u
p95
I1
sVcyvspxw
p96
I1
sVcylyk5m
p97
I2
sVd40tinw
p98
I1
sVdd4qiad
p99
I1
sVd5aycp1
p100
I3
sVd61op8x
p101
I1
sVd1onxlr
p102
I1
sVd4zbafq
p103
I1
sVd6aktsn
p104
I2
sVd385y5f
p105
I1
sVdg3cc6r
p106
I2
sVcyxredd
p107
I1
sVdkyg0lh
p108
I1
sVdbln9js
p109
I1
sVd44obl8
p110
I1
sVdjr60bz
p111
I1
sVd4sq43n
p112
I2
sVd5rjdj6
p113
I1
sVdj0vbob
p114
I2
sVd8tnk4e
p115
I1
sVden53gv
p116
I1
sVdrzuor6
p117
I1
sVd35uk7a
p118
I2
sVdq5k5l7
p119
I1
sVd477mmd
p120
I1
sVczieobp
p121
I1
sVdawnmv7
p122
I1
sVd6b67vs
p123
I2
sVcyj6gxj
p124
I3
sVd1a8kb4
p125
I1
sVdafcn9g
p126
I1
sVczt79x4
p127
I1
sVczu9uwh
p128
I1
sVd1a8lpe
p129
I3
sVcyiyowq
p130
I1
sVd1a9jyy
p131
I1
sVczt8pum
p132
I1
sVd58dxrp
p133
I1
sVczjcllu
p134
I2
sVddwzjga
p135
I1
sVd30t9xv
p136
I1
sVd6akz4x
p137
I1
sVdeutt2s
p138
I1
sVdjrrcf2
p139
I1
s.