(dp0
Vdbev5yx
p1
I1
sVdku6nee
p2
I1
sVdb9v0vg
p3
I3
sVd26eizo
p4
I1
sVdiq2jhk
p5
I1
sVd7q3a57
p6
I1
sVdgetz8e
p7
I1
sVdas3zen
p8
I1
sVd29q8op
p9
I1
sVd9bp5ik
p10
I1
sVdmpm4m4
p11
I1
sVde3htli
p12
I1
sVd97e7mm
p13
I2
sVdjom4nx
p14
I1
sVdeu14rb
p15
I1
sVdp35xcu
p16
I1
sVd0x4aj9
p17
I1
sVdf5p495
p18
I2
sVd6s9itg
p19
I1
sVda35kne
p20
I1
sVczc75xx
p21
I1
sVdeb7fgl
p22
I1
sVd0p5ecc
p23
I1
sVd1o7j92
p24
I1
sVd1iybnh
p25
I1
sVdfhumfy
p26
I1
sVcyp4t0z
p27
I1
sVczd5svt
p28
I1
sVdewpecv
p29
I1
sVd72lzqf
p30
I1
sVdstc77u
p31
I1
sVd8serwq
p32
I1
sVdd0t89o
p33
I1
sVdaqfe0w
p34
I1
sVd26mx8f
p35
I1
sVdimk6cp
p36
I1
sVd5oq4qx
p37
I1
sVdi8ts8e
p38
I1
sVd0fo93r
p39
I2
sVde2z07v
p40
I1
sVd3uunzn
p41
I1
sVd53l7dx
p42
I1
sVdfyi96t
p43
I4
sVdhk7ked
p44
I1
sVdkwsico
p45
I1
sVd8xaksf
p46
I1
sVd1e7zps
p47
I1
sVd7sxukr
p48
I1
sVdfydv9o
p49
I1
sVd6syacv
p50
I1
sVd5a4s3y
p51
I1
sVdr6kfg0
p52
I1
sVd6u138u
p53
I1
sVd5mdzjb
p54
I1
sVd9t71ph
p55
I1
sVddwkj1z
p56
I1
sVd7c4pya
p57
I5
sVd9s78xo
p58
I1
sVdcjpx3x
p59
I1
sVd9hxhal
p60
I1
sVd4cjpb4
p61
I2
sVd1iuuxv
p62
I1
sVczd5z9b
p63
I1
sVd4cj1a7
p64
I2
sVdazg1e1
p65
I1
sVd55zcr3
p66
I1
sVdgeljl7
p67
I1
sVdnkkt2w
p68
I1
sVdkuh55x
p69
I1
sVdime8co
p70
I1
sVdii6h7z
p71
I1
sVcz7es1h
p72
I2
sVdqr58vq
p73
I1
sVdb0diw9
p74
I1
sVdbvwinx
p75
I1
sVd27d0ez
p76
I1
sVdb5hjqu
p77
I1
sVdeclokx
p78
I2
sVdj4szo1
p79
I1
sVdimf5da
p80
I1
sVdaztgo4
p81
I1
sVderyzq6
p82
I1
sVda61j6n
p83
I1
s.