(dp0
Vd1n125g
p1
I1
sVd65fzqk
p2
I1
sVd0yemgy
p3
I1
sVd5zz867
p4
I1
sVdcz7w66
p5
I1
sVdjom7ag
p6
I1
sVd9wguki
p7
I1
sVddbhn7v
p8
I1
sVd41z2pg
p9
I1
sVdivs4q3
p10
I2
sVd7lko20
p11
I1
sVd2kvygw
p12
I1
s.