(dp0
Vdn2uc43
p1
I1
sVdjmy8jg
p2
I1
sVd0lszen
p3
I1
sVdd1f6wr
p4
I1
sVd5wzymq
p5
I1
sVczmapaw
p6
I1
sVdcckpst
p7
I1
sVds4x3ad
p8
I2
sVdhbww6j
p9
I1
sVdch47xl
p10
I1
sVd6yjhl3
p11
I1
sVdox58g7
p12
I1
sVd0nubiz
p13
I1
sVd3uxh0w
p14
I1
sVdqs146q
p15
I1
sVdn6fu04
p16
I1
sVdj662c0
p17
I1
sVdom9jex
p18
I1
sVd3143te
p19
I1
sVdrtnrud
p20
I1
sVdimavp4
p21
I2
sVd5rf6vs
p22
I1
sVdha4zqz
p23
I1
sVczh6a5z
p24
I1
sVdbwt3lc
p25
I1
sVd622ham
p26
I1
sVdne5654
p27
I1
sVd83aqlu
p28
I1
sVd9f45p1
p29
I1
sVd3x4jxd
p30
I2
sVdnxhnh4
p31
I1
sVd2t7whk
p32
I1
sVdis2nx6
p33
I1
sVcyr7mnc
p34
I1
sVd4fmtfs
p35
I1
sVd93ic4p
p36
I1
sVd93navz
p37
I1
sVdbdjx5u
p38
I1
sVd6nkntk
p39
I1
sVdiqex1v
p40
I1
sVd7xmeck
p41
I1
sVdju7oe5
p42
I1
sVdbt0l2u
p43
I1
sVdihf3cb
p44
I1
sVdkmexll
p45
I1
sVda3klb6
p46
I1
sVdgua4nx
p47
I1
sVdoaf5vc
p48
I1
sVd58cr4g
p49
I1
sVd988137
p50
I1
sVd21fiit
p51
I1
sVczoy0dw
p52
I1
sVdi5liof
p53
I1
sVdepv1hs
p54
I1
sVd2tfin2
p55
I1
sVdrw14jo
p56
I1
sVd1roka3
p57
I2
sVdjstug4
p58
I1
sVd3noyxd
p59
I1
sVdeymvsa
p60
I1
sVdtd4fck
p61
I1
sVdhaz24k
p62
I1
sVd7vn2wm
p63
I3
sVdf7ituv
p64
I1
sVczpgsaq
p65
I1
sVddelluj
p66
I1
sVd75o6t0
p67
I1
sVdmhzy6h
p68
I1
sVdkm89cr
p69
I1
sVdgmcin4
p70
I1
sVdnas74m
p71
I1
sVdhhuuk5
p72
I1
sVdcbevv6
p73
I1
sVdfws2os
p74
I1
sVdb8lj9q
p75
I1
sVdnp363x
p76
I2
sVdqk1cr4
p77
I2
sVdeu7mnr
p78
I1
sVdjhd9ac
p79
I1
sVd50g377
p80
I1
sVd9hxhal
p81
I1
sVd49vgsg
p82
I1
sVd970unx
p83
I1
sVczl7yfn
p84
I1
sVd5bl4gs
p85
I1
sVd1aojy4
p86
I1
sVdaglssi
p87
I1
sVd5gauz4
p88
I1
sVdiomvnx
p89
I1
sVdefhgif
p90
I1
sVd3zzybd
p91
I1
sVdpwdkav
p92
I1
sVczgh8vs
p93
I1
sVd618eky
p94
I1
sVd9x15ww
p95
I1
sVdjnbwat
p96
I1
sVdobn7zq
p97
I1
sVd3bvykb
p98
I1
sVdml4qug
p99
I1
sVdrakaz7
p100
I2
sVczwvnis
p101
I1
sVd2ys87n
p102
I1
sVdf1vqtv
p103
I1
sVdbqstyt
p104
I1
sVd8wjyac
p105
I1
sVd5dq7yu
p106
I1
sVdc30ilg
p107
I1
sVd1kz77a
p108
I1
sVdejfi46
p109
I1
sVdaisor5
p110
I1
sVd4xf6v3
p111
I1
sVczgxczs
p112
I1
sVdcz7ug0
p113
I2
sVd0fh0sq
p114
I1
sVdru1yzd
p115
I1
sVd8701rm
p116
I1
sVd7v6qis
p117
I1
sVdqykvzq
p118
I1
sVdq5va62
p119
I1
sVd3d9ez2
p120
I1
sVd6x9vmr
p121
I1
sVd9x4ini
p122
I1
sVd42h0pz
p123
I1
sVdiy3pr9
p124
I1
sVd12gfuk
p125
I1
sVd2a84qv
p126
I1
sVd6sk1z3
p127
I1
sVdmo3jfh
p128
I1
sVdqpi987
p129
I1
sVd9c0gdk
p130
I1
sVdqdb731
p131
I1
sVdo0aysq
p132
I2
sVdg60l1a
p133
I1
sVczkywnx
p134
I1
sVd364khy
p135
I1
sVd4izygp
p136
I1
sVdctkr14
p137
I1
sVdd86bhy
p138
I2
sVd48a845
p139
I1
sVdffmwae
p140
I1
sVdcy93nq
p141
I1
sVdj24wwz
p142
I2
sVdbxz3x0
p143
I1
sVd21c095
p144
I1
sVdj93a91
p145
I1
sVdq3ci16
p146
I1
sVcztnfe9
p147
I1
sVd0d2i87
p148
I1
sVczdff5a
p149
I1
sVd3wtfg8
p150
I1
sVdaxkekk
p151
I1
sVdg2kaoa
p152
I1
sVds1sais
p153
I1
sVd3fhnrq
p154
I1
sVd1x5air
p155
I1
sVdmjvzz0
p156
I1
sVd8j36ld
p157
I1
sVdj0vbob
p158
I1
sVd8cyd7e
p159
I1
sVdrm614s
p160
I1
sVd27cvzh
p161
I1
sVd7vasrm
p162
I1
sVdo5h0u5
p163
I1
sVdashnss
p164
I1
sVd17tk7m
p165
I1
sVd8y9jka
p166
I1
sVd9xq2xe
p167
I1
sVde4vdbf
p168
I1
sVd2t6l57
p169
I1
sVd3zzw9k
p170
I1
sVd357usz
p171
I1
sVczpjy3q
p172
I1
sVd6n5j3u
p173
I1
sVdhcicf1
p174
I1
sVczo01gh
p175
I1
sVd8rx0h5
p176
I1
sVd7c04b7
p177
I1
sVcyxq79x
p178
I1
sVd49lui9
p179
I1
sVdirgzuv
p180
I1
sVd0h00jh
p181
I1
sVdeo2lof
p182
I1
sVd51cmli
p183
I1
sVdiz3i5k
p184
I1
sVdj7igq6
p185
I1
sVdqbf81a
p186
I1
sVdbn8ics
p187
I1
sVdae2hfi
p188
I1
sVd014i9v
p189
I1
sVdijatxe
p190
I1
sVdn1o54k
p191
I2
sVd1ahh32
p192
I1
sVda0tah5
p193
I1
sVdds3odc
p194
I1
sVd4467mq
p195
I1
sVddijsci
p196
I1
sVdfzuago
p197
I1
sVdjkaewp
p198
I1
sVdmq15p1
p199
I1
sVdo36kat
p200
I2
sVdprmsfm
p201
I1
sVdq97alb
p202
I1
sVcyhtqdu
p203
I1
sVddkbfwg
p204
I1
sVdgmvhvt
p205
I1
sVd9oagbg
p206
I1
sVd4cocct
p207
I1
sVdantd5g
p208
I1
sVd2z3asw
p209
I1
sVd1ma0vf
p210
I1
sVd1bjwsb
p211
I1
sVdgq559c
p212
I1
sVdcaqs0s
p213
I1
sVdezm22e
p214
I1
sVdbuutes
p215
I1
sVdt8v8tw
p216
I1
sVd93wdun
p217
I1
sVd3n4rao
p218
I1
sVdbit2xw
p219
I1
sVdad28bw
p220
I1
sVd9xlqw1
p221
I1
sVd9hxn2s
p222
I1
sVdi39p44
p223
I1
sVdawdlwi
p224
I1
sVd0ddzn6
p225
I1
sVdau8z4m
p226
I1
sVdhh3g1p
p227
I1
sVdk089jp
p228
I1
sVdcz5ww2
p229
I1
sVdi1wvrp
p230
I1
sVd7gamlp
p231
I1
sVdrsrt48
p232
I1
sVdb6ii55
p233
I1
sVdi4a0j8
p234
I1
sVdbidf2v
p235
I2
sVd87132p
p236
I1
sVcyozq6a
p237
I1
sVdfurk59
p238
I1
sVds91srg
p239
I1
sVddm24fj
p240
I1
sVd2xs95c
p241
I1
sVd6q0g6v
p242
I1
sVdaql7ej
p243
I1
sVden4okz
p244
I1
sVdj37os8
p245
I1
sVd1abial
p246
I1
sVdjdmull
p247
I1
sVd8serwq
p248
I1
sVd10lwoy
p249
I1
sVd3gq1vc
p250
I1
sVdghzrw8
p251
I1
sVd4u12jm
p252
I1
sVd4p2n60
p253
I1
sVdmjj4eo
p254
I1
sVdhowwky
p255
I1
sVdisnu3z
p256
I1
sVd6tqxii
p257
I2
sVdfyds14
p258
I2
sVdmv3i2f
p259
I1
sVcymot7h
p260
I1
sVd3ukz47
p261
I1
sVdorl3yt
p262
I1
sVd950yb8
p263
I1
sVdj39x1s
p264
I1
sVdg1g7a3
p265
I1
sVd9m6k60
p266
I1
sVdqjxwxk
p267
I1
sVdq9bcze
p268
I1
sVdaf1bua
p269
I2
sVd2zy93v
p270
I1
sVdasch6c
p271
I1
sVdakhzh0
p272
I1
sVdsk7kx0
p273
I1
sVddep3pg
p274
I1
sVd8wajzf
p275
I1
sVdf6k9rq
p276
I1
sVd5tivmk
p277
I1
sVd53j4b2
p278
I1
sVdq6qug4
p279
I1
sVd6qfkt3
p280
I1
sVddtv98r
p281
I1
sVd81cwrp
p282
I1
sVd13zbma
p283
I1
sVdh7oj5o
p284
I2
sVdommda2
p285
I6
sVdjgia6u
p286
I1
sVdg1d00i
p287
I1
sVd35tn9q
p288
I1
sVdqojtt5
p289
I1
sVddej54i
p290
I1
sVdqb6cm3
p291
I1
sVdby6me7
p292
I1
sVdkt1961
p293
I1
sVdex7ash
p294
I1
sVdp64bgx
p295
I1
sVd31lyn1
p296
I1
sVd1flcw3
p297
I1
sVd2vcoes
p298
I1
sVd739fmd
p299
I1
sVdav8wqj
p300
I1
sVdfgu1ql
p301
I1
sVdbl0x3w
p302
I1
sVdjvvcdh
p303
I1
sVdfd1lnx
p304
I1
sVd3r1bui
p305
I1
sVd5intdk
p306
I1
sVdbyaoa6
p307
I1
sVd8re78t
p308
I1
sVdaidukv
p309
I1
sVd3x44ax
p310
I1
sVdixose7
p311
I1
sVdijx1ai
p312
I1
sVd0gr5bf
p313
I1
sVdihe7ow
p314
I1
sVdnh4sde
p315
I1
sVdf3xrp1
p316
I1
sVd9i9bam
p317
I1
sVcym4xqb
p318
I1
sVdms97bp
p319
I1
sVdi9h495
p320
I1
sVdhheer6
p321
I1
sVd7ru11s
p322
I1
sVda4r3od
p323
I1
sVdkbrzfd
p324
I1
sVdeeg3lr
p325
I1
sVd31cn3u
p326
I1
sVd50elkl
p327
I1
sVd37pwys
p328
I1
sVd3hay5r
p329
I1
sVdt1pcky
p330
I1
sVdk47f9i
p331
I1
sVdffn5zy
p332
I1
sVdetvg5z
p333
I1
sVd35oh0y
p334
I1
sVd1o3ywt
p335
I1
sVd44obl8
p336
I1
sVdnxubme
p337
I1
sVd1475ch
p338
I1
sVd3ynkah
p339
I1
sVd2hj8n3
p340
I1
sVd8jvz59
p341
I1
sVdece7ud
p342
I1
sVdmijmy4
p343
I1
sVdc71pgh
p344
I1
sVd3fm7an
p345
I2
sVdcb7256
p346
I1
sVd0srxiu
p347
I2
sVdra7umu
p348
I1
sVdhf1jov
p349
I1
sVda898ds
p350
I3
sVdptd3vm
p351
I1
sVdbqfco4
p352
I1
sVdb05tun
p353
I1
sVd31a3kr
p354
I1
sVdcanv4n
p355
I1
sVd9zp1q6
p356
I1
sVdehlge1
p357
I1
sVd3v5qag
p358
I1
sVdkbto02
p359
I1
sVd4z5vca
p360
I1
sVdc4ih6i
p361
I1
sVd70y7tz
p362
I1
sVd9sj8to
p363
I1
sVdehina9
p364
I1
sVd0h182p
p365
I1
sVdhny1h7
p366
I1
sVdfjf6wo
p367
I1
sVd00v3bx
p368
I1
sVd52zdyq
p369
I1
sVdsocx7j
p370
I1
sVd6s5f51
p371
I1
sVdnzconj
p372
I1
sVd2cmzhx
p373
I1
sVddq14od
p374
I1
sVd1utkio
p375
I1
sVdpxp9ax
p376
I1
sVd1wannj
p377
I1
sVd8y0cb8
p378
I1
sVdevhlm6
p379
I1
sVdpw72cj
p380
I1
sVdfn26m2
p381
I1
sVd56gglg
p382
I1
sVd0dsyl4
p383
I1
sVd3j4her
p384
I1
sVdriq1gn
p385
I1
sVd5i9y0b
p386
I2
sVd2do0dn
p387
I1
sVdiuqyjf
p388
I2
sVd7fhl7s
p389
I1
sVdgvfwtz
p390
I1
sVdkyhrdo
p391
I1
sVd2w8og5
p392
I1
sVd3ys9xp
p393
I1
sVd1nd6v8
p394
I1
sVd7etlkz
p395
I1
sVd66mb0q
p396
I1
sVd55wdq9
p397
I1
sVd6r4ufu
p398
I1
sVd3krclb
p399
I1
sVdecx6hf
p400
I1
sVd7qhwhu
p401
I1
sVdkseki1
p402
I1
sVd27pha4
p403
I1
sVd6hbg4v
p404
I1
sVd5e0g6d
p405
I1
sVdj9myi8
p406
I1
sVdexrqgu
p407
I1
sVdkt3mcg
p408
I1
sVd655um9
p409
I1
sVd48960r
p410
I1
sVd69kel6
p411
I1
sVd623lun
p412
I1
sVdcviv12
p413
I1
sVcyvs3g7
p414
I1
sVd05ta40
p415
I1
sVcywvae0
p416
I1
sVdc06vn5
p417
I1
sVdplau66
p418
I1
sVd9y12ii
p419
I1
sVdjto2qq
p420
I1
sVd5r0niq
p421
I1
sVd3uafv9
p422
I1
sVdp4z1n8
p423
I1
sVd9p5yis
p424
I1
sVcyoaona
p425
I1
sVdoe75yu
p426
I1
sVdg61yi4
p427
I2
sVdgair4m
p428
I1
sVd0p431o
p429
I1
sVdb4xwsj
p430
I1
sVdhqrxbf
p431
I1
sVdd6spqn
p432
I1
sVdd444t6
p433
I1
sVd2w97an
p434
I1
sVcytnazv
p435
I1
sVd5dr1uu
p436
I1
sVd6vr1iy
p437
I3
sVd9bxlwx
p438
I1
sVdeunxqe
p439
I1
sVczymvwl
p440
I1
sVdagkklz
p441
I1
sVdclh169
p442
I1
sVd4hy3ge
p443
I1
sVcyic2bb
p444
I1
sVd19bykm
p445
I1
sVd77qh7o
p446
I1
sVdip9y9y
p447
I1
sVd8doz64
p448
I1
sVdazxzop
p449
I1
sVdcz40lb
p450
I1
sVd09m4qf
p451
I1
sVdql3ydb
p452
I1
sVd3fqnf0
p453
I1
sVd10cf63
p454
I3
sVdau2emu
p455
I1
sVdbnqdgc
p456
I1
sVde1z7zn
p457
I1
sVdoedbzv
p458
I1
sVdhxck67
p459
I1
sVdi9zivv
p460
I1
sVdk0nwgy
p461
I1
sVdso8gby
p462
I1
sVd88fo8t
p463
I1
sVdbh8ysm
p464
I1
sVd299571
p465
I1
sVd0l32n2
p466
I1
sVd9h8fy8
p467
I1
sVd1hysxj
p468
I1
sVd3gkbu2
p469
I1
sVdky0ubh
p470
I1
sVd420p83
p471
I1
sVd77a32d
p472
I1
sVczjefop
p473
I1
sVdqsnpkr
p474
I3
sVdjdaaqj
p475
I1
sVdh48m10
p476
I1
sVd3vdlo3
p477
I1
sVdqhutgi
p478
I1
sVd6xsp3d
p479
I1
sVdbptsu1
p480
I1
sVdksanr7
p481
I1
sVd28t31d
p482
I2
sVdie3we7
p483
I1
sVdcqq98u
p484
I1
sVddz8cwr
p485
I1
sVdixpdex
p486
I1
sVd7sndba
p487
I1
sVdjlo64l
p488
I4
sVdczs3wl
p489
I1
sVd8zcpa7
p490
I1
sVd5shzja
p491
I1
sVd0g5ync
p492
I1
sVcypz69d
p493
I1
sVd94yrnv
p494
I1
sVcys2fht
p495
I1
sVd99fy9s
p496
I1
sVdochg3z
p497
I1
sVd1fjytz
p498
I1
sVdox0qgv
p499
I1
sVdc5bydp
p500
I1
sVdhh171b
p501
I1
sVdgc8z9j
p502
I1
sVd5haoqs
p503
I1
sVdrpvj2a
p504
I1
sVddtkvb3
p505
I3
sVd6a9rkj
p506
I1
sVd07ozlj
p507
I1
sVd2vsoxc
p508
I1
sVdq5basz
p509
I1
sVd4v3mvf
p510
I4
sVd9qyc1d
p511
I1
sVd07fhro
p512
I2
sVd8qqor8
p513
I1
sVcysxbgz
p514
I2
sVd1hi2w3
p515
I2
sVdo1hgeu
p516
I3
sVdbqqh4m
p517
I1
sVd7hyfzs
p518
I1
sVd7w33f8
p519
I1
sVdkzmi58
p520
I2
sVd34a09y
p521
I1
sVdk9eqyu
p522
I1
sVd9etw3p
p523
I1
sVdmhpdha
p524
I1
sVdhvegnp
p525
I1
sVczzbv0q
p526
I1
sVd7sxukr
p527
I1
sVd6ve8ws
p528
I1
sVdhn4dkr
p529
I1
sVd27cpj3
p530
I2
sVd4ca3to
p531
I1
sVdmf8u9l
p532
I1
sVd5hm311
p533
I1
sVdfy5dun
p534
I1
sVdc61iek
p535
I1
sVdfv6cwz
p536
I2
sVcymw92u
p537
I1
sVcyk0180
p538
I1
sVdhvbbbr
p539
I1
sVcz0j5vk
p540
I1
sVdpyomgn
p541
I1
sVd9xscqc
p542
I1
sVdsd1fqz
p543
I1
sVd0o9c72
p544
I2
sVdctw8gf
p545
I1
sVd8578vh
p546
I1
sVczqrts1
p547
I2
sVdb2extf
p548
I1
sVcz93m20
p549
I1
sVd5gh9xj
p550
I1
sVdk750yd
p551
I1
sVd8veh6v
p552
I1
sVd929x75
p553
I1
sVdje2dv3
p554
I1
sVddd98t1
p555
I1
sVdo1a7hc
p556
I1
sVdjks0hr
p557
I1
sVczbmpzp
p558
I1
sVd5meoob
p559
I1
sVcyt0us7
p560
I1
sVd1bxu1u
p561
I1
sVd50m1hq
p562
I1
sVdih0uob
p563
I2
sVd4vj808
p564
I1
sVd7lcizd
p565
I1
sVdbncv0u
p566
I1
sVd58ynwb
p567
I1
sVdj2b4ci
p568
I1
sVdfjktdw
p569
I1
sVdn4pkyg
p570
I1
sVd90q32j
p571
I1
sVd0buxj4
p572
I1
sVdsal0we
p573
I1
sVd3o6jx4
p574
I2
sVd8oje7l
p575
I1
sVdi02rkb
p576
I1
sVddayde6
p577
I1
sVd3quw8w
p578
I1
sVdcap8lk
p579
I1
sVdr6lays
p580
I1
sVddg1i6e
p581
I1
sVdql8o7e
p582
I1
sVdqkd9tl
p583
I1
sVda32omw
p584
I1
sVd5k6r5p
p585
I1
sVdpkmcmg
p586
I1
sVddkdpty
p587
I1
sVd2i9ezy
p588
I1
sVdi3h7v8
p589
I1
sVdndm9am
p590
I1
sVdozlmhr
p591
I1
sVdbch4vc
p592
I1
sVdr726cw
p593
I1
sVdioyxkh
p594
I1
sVd6gdyuw
p595
I1
sVd0uvaqx
p596
I1
sVdb5jblk
p597
I1
sVdbd1agj
p598
I1
sVdfh7v0j
p599
I1
sVdjopex0
p600
I1
sVdjaz3uf
p601
I1
sVdeneq7h
p602
I1
sVd91jea9
p603
I1
sVd1a3mz2
p604
I1
sVd1lsu91
p605
I1
sVcz6881s
p606
I1
sVdk62xz2
p607
I1
sVdo812ju
p608
I1
sVd0remet
p609
I1
sVdnm35sb
p610
I1
sVd8fq47d
p611
I1
sVdj0o316
p612
I1
sVdi4kml8
p613
I2
sVdpy73rd
p614
I1
sVdrontke
p615
I1
sVd0y77l6
p616
I1
sVd86vvos
p617
I1
sVd4fkwsj
p618
I1
sVddegph8
p619
I1
sVde50xjw
p620
I1
sVd7xus79
p621
I1
sVd9g48q5
p622
I1
sVd26bd5l
p623
I1
sVdnexlz9
p624
I1
sVdc1kqo1
p625
I1
sVdmt1to8
p626
I1
sVd72dbin
p627
I1
sVd8fakuq
p628
I1
sVd1h2m10
p629
I1
sVdo0on1g
p630
I1
sVd8lvl3u
p631
I1
sVd9vuagg
p632
I1
sVd6co03h
p633
I1
sVdi7dvvo
p634
I1
sVd00ucrk
p635
I2
sVd95pqoh
p636
I1
sVcyrlyyu
p637
I1
sVdmzcyz6
p638
I1
sVdelwxrt
p639
I2
sVdka7dn9
p640
I1
sVdk07y8x
p641
I1
sVdf61nfk
p642
I1
sVd3eglak
p643
I1
sVd9y1qrb
p644
I1
sVd3zd51c
p645
I1
sVd52xwdc
p646
I1
sVdh0yev6
p647
I1
sVddqiq6t
p648
I1
sVcyp261o
p649
I1
sVd7qffba
p650
I1
sVczoq1al
p651
I1
sVdh2z7lx
p652
I1
sVdfnhtes
p653
I1
sVdj61tgq
p654
I1
sVd63ycpl
p655
I1
sVczq8qu9
p656
I1
sVcz9s3at
p657
I1
sVdp0low4
p658
I1
sVdaai9ig
p659
I1
sVcyqfbg0
p660
I1
sVdmkwff7
p661
I1
sVd19cr5s
p662
I1
sVd3pj429
p663
I1
sVde4tln6
p664
I1
sVd1isive
p665
I1
sVdd57x6n
p666
I1
sVdf795mm
p667
I1
sVczzw9qi
p668
I1
sVd58mwee
p669
I1
sVdiwfsnx
p670
I1
sVd6us71r
p671
I1
sVdd50c05
p672
I1
sVcyu6bge
p673
I1
sVdnlph4v
p674
I1
sVd143xl7
p675
I1
sVdrc8icb
p676
I1
sVddhcja1
p677
I1
sVdhsugty
p678
I1
sVd0ifasj
p679
I1
sVd82or7d
p680
I1
sVdni4nbd
p681
I1
sVd07wmzs
p682
I1
sVdhflexn
p683
I1
sVdh0fvln
p684
I1
sVcyvs7cg
p685
I1
sVdh5w4dz
p686
I1
sVdibvlez
p687
I1
sVdgdt6gg
p688
I1
sVdc4en0z
p689
I1
sVdb011sz
p690
I2
sVdp55xw7
p691
I1
sVd4zw6gs
p692
I1
sVd73eexr
p693
I1
sVd5kavel
p694
I1
sVdgsbxjs
p695
I1
sVdddz1nr
p696
I1
sVdame0ul
p697
I2
sVczga99o
p698
I1
sVds5zo4e
p699
I1
sVd4gr4mw
p700
I1
sVdbr56xb
p701
I1
sVdin9z5d
p702
I1
sVdd3dwsl
p703
I1
sVd77ce34
p704
I1
sVdmuel71
p705
I1
sVd2ydfog
p706
I1
sVdbmyglm
p707
I1
sVds9za4w
p708
I2
sVdpfaq6w
p709
I1
sVd4xoul7
p710
I1
sVd380gd7
p711
I1
sVdj6or90
p712
I1
sVds6bde2
p713
I1
sVd7x3ygr
p714
I1
sVdbroax6
p715
I2
sVdo5wpot
p716
I1
sVdfnj44p
p717
I3
sVd5xyurd
p718
I1
sVd72o7ad
p719
I2
sVdey1y9j
p720
I1
sVdfmhuup
p721
I1
sVdg24l1d
p722
I1
sVdpxymor
p723
I1
sVd76id36
p724
I1
sVdafcn9g
p725
I1
sVd0o3ezd
p726
I1
sVdhb4jbj
p727
I1
sVd0r19h2
p728
I1
sVddfpbwn
p729
I1
sVd0d8e8k
p730
I1
sVd6h91ql
p731
I1
sVdmtfv9b
p732
I1
sVd2673gq
p733
I1
sVd1l3ktn
p734
I1
sVd1x4a54
p735
I1
sVd9utrvb
p736
I1
sVde96521
p737
I1
sVdnoivl9
p738
I1
sVd1kuzh0
p739
I1
sVd3a23vy
p740
I1
sVd8ts5eh
p741
I2
sVdemrgmz
p742
I1
sVdee95g8
p743
I1
sVdjcw9ks
p744
I1
sVczftann
p745
I1
sVd29bccb
p746
I1
sVd4ym743
p747
I1
sVd4a01cp
p748
I1
sVd0gzie8
p749
I2
sVdhuy02v
p750
I1
sVdenw33r
p751
I1
sVdkgwz28
p752
I1
sVd03vf5y
p753
I1
sVd9kkkh8
p754
I1
sVd884ycj
p755
I1
sVd2h68fl
p756
I1
sVd6h71xe
p757
I1
sVdi7axr3
p758
I1
sVdh09ctt
p759
I1
sVdq1oriy
p760
I1
sVdqmogsh
p761
I1
sVd07yonn
p762
I1
sVdnahict
p763
I1
sVdhztq6p
p764
I4
sVcyl4h88
p765
I1
sVczqwgf3
p766
I1
sVczaxih1
p767
I1
sVd0lisuh
p768
I1
sVdcdza0f
p769
I2
sVd0jejv9
p770
I1
sVdcb7cde
p771
I1
sVdhjvlaf
p772
I1
sVdafpu3l
p773
I2
sVdid6qmd
p774
I1
sVdhz8k0w
p775
I1
sVdhkvt9y
p776
I1
sVdbpii6o
p777
I1
sVdfuk80w
p778
I1
sVcz9908k
p779
I1
sVdgha907
p780
I1
sVd67uh34
p781
I2
sVdt48ssx
p782
I1
sVd4r8tix
p783
I1
sVdekxone
p784
I1
sVd6w3fff
p785
I2
sVdsms91c
p786
I1
sVdnxi4ej
p787
I1
sVd7sn28y
p788
I1
sVdqqsb4p
p789
I1
sVczxn6fl
p790
I1
sVd2ar4qk
p791
I1
sVd5ceatr
p792
I1
sVcz7i51r
p793
I2
sVd1g9y4m
p794
I1
sVdigeazp
p795
I1
sVdb3nfzd
p796
I1
sVd472npm
p797
I1
sVczcs07e
p798
I1
sVdt858bw
p799
I1
sVczbko5c
p800
I1
sVdap7ozs
p801
I1
sVd4jko0t
p802
I1
sVdfnmch6
p803
I1
sVdguvpk4
p804
I1
sVcykxa1k
p805
I1
sVdbkn4y4
p806
I1
sVdc0mw2z
p807
I1
sVd0buspi
p808
I1
sVdiy94a1
p809
I1
sVdtfqdgj
p810
I1
sVdawj1ym
p811
I1
sVdguc1iq
p812
I1
sVdf37xf5
p813
I1
sVdccwtv3
p814
I1
sVd3b93w3
p815
I1
sVdjdh88k
p816
I1
sVdcpj95j
p817
I1
sVd6nb9zh
p818
I1
sVdhg57ea
p819
I1
sVdetcg5o
p820
I1
sVdhixr0x
p821
I1
sVd6440oy
p822
I1
sVdetiahi
p823
I1
sVdcrn6kp
p824
I1
sVdkrkmii
p825
I1
sVdkqayny
p826
I1
sVd5inyhi
p827
I1
sVdazdt0q
p828
I1
sVdcqk0wb
p829
I1
sVdc3953e
p830
I1
sVcz0xqiz
p831
I1
sVd65mfsw
p832
I1
sVd7hyxin
p833
I1
sVds1itl9
p834
I1
sVdarl8qs
p835
I1
sVdi554sp
p836
I1
sVdi2o6xe
p837
I1
sVd7z59t0
p838
I1
sVd28glxs
p839
I1
sVdkhtlkg
p840
I1
sVdcxggfi
p841
I1
sVdbhbkde
p842
I1
sVczru1ao
p843
I1
sVdjtkiog
p844
I1
sVdcqqzpj
p845
I1
sVd0b97ay
p846
I1
sVddcbgwl
p847
I1
sVd72izzq
p848
I1
sVdrm146t
p849
I1
sVdsgwnit
p850
I1
sVdf9ajgy
p851
I2
sVd979y2a
p852
I1
sVd94qltt
p853
I1
sVd1y90kb
p854
I1
sVdioiitw
p855
I1
sVdf9ym1c
p856
I1
sVdofludp
p857
I2
sVcyyk1jl
p858
I1
sVd4wyf87
p859
I1
sVd3vng9z
p860
I1
sVdeisyw3
p861
I1
sVdgllpyv
p862
I1
sVczbcnfe
p863
I1
sVd5uq8g1
p864
I1
sVdmfzn1r
p865
I1
sVdri7h16
p866
I1
sVd8x70o4
p867
I2
sVddoemh0
p868
I1
sVd9no9uj
p869
I1
sVdr9w5c8
p870
I1
sVdaidoez
p871
I1
sVd029zyx
p872
I1
sVdj2g9sl
p873
I1
sVdcqgx74
p874
I1
sVdimhqss
p875
I1
sVd8s0gp4
p876
I1
sVdn9t90c
p877
I2
sVcyodmkv
p878
I1
sVdelh1w7
p879
I1
sVde6i5r7
p880
I1
sVd9afct4
p881
I1
sVcymx7p9
p882
I1
sVd67ycv1
p883
I1
sVd6pz6bn
p884
I1
sVd5r5yjt
p885
I1
sVd562vqr
p886
I1
sVdbi1vxa
p887
I1
sVdklyafm
p888
I1
sVdbnmla5
p889
I1
sVdh5wxx5
p890
I1
sVdbtjy25
p891
I1
sVdjg4knx
p892
I2
sVd127y6x
p893
I1
sVdbbyxs0
p894
I1
sVd3navrm
p895
I2
sVdoaa8vf
p896
I1
sVd3jo63p
p897
I1
sVddxdtey
p898
I1
sVdjzhekf
p899
I1
sVdrbywmz
p900
I1
sVd7i6nn0
p901
I1
sVcz4vne3
p902
I1
sVdf6g506
p903
I1
sVd08pjtn
p904
I1
sVdd294jr
p905
I1
sVd88wp2d
p906
I1
sVd6100i5
p907
I1
sVdh9h32k
p908
I1
sVczh2hvb
p909
I1
sVdt8o610
p910
I1
sVdicwm47
p911
I1
sVddamxj1
p912
I1
sVdkr23a0
p913
I1
sVdh5yq08
p914
I1
sVd97lmr7
p915
I1
sVd5kcisj
p916
I1
sVddwl1te
p917
I1
sVdpczpbw
p918
I1
sVdciepis
p919
I1
sVdggjfm6
p920
I1
sVcz6gblh
p921
I1
sVd1mm4ma
p922
I3
sVdfexaxk
p923
I1
sVdsoatkr
p924
I1
sVd78qvy4
p925
I1
sVdn9708e
p926
I1
sVdj6o05j
p927
I1
sVdknmw7d
p928
I1
sVd0aan2o
p929
I1
sVd2bxnzb
p930
I1
sVdnsv1c7
p931
I1
sVdhctos2
p932
I1
sVdgbgmar
p933
I1
sVd66gnud
p934
I1
sVd18mite
p935
I1
sVd3jdqkm
p936
I1
sVcz9jdjt
p937
I1
sVcyqqelz
p938
I2
sVd1qg63d
p939
I2
sVd9rqtug
p940
I1
sVdo91dm3
p941
I1
sVd2czfw5
p942
I1
sVdku1eyq
p943
I1
sVdmrxgs4
p944
I1
sVcyj87it
p945
I1
sVdtdbxji
p946
I1
sVd4twk0p
p947
I1
sVdqfyz6x
p948
I1
sVd9hhz33
p949
I1
sVcz7fjdr
p950
I1
sVd37sls2
p951
I1
sVd6w4xvs
p952
I1
sVd5vxpq7
p953
I1
sVdnksnnh
p954
I1
sVdsgfx5p
p955
I1
sVd2hk336
p956
I1
sVdb32ghq
p957
I1
sVdt516cq
p958
I1
sVdbe3vvq
p959
I1
sVdc03ox0
p960
I1
sVdft27zh
p961
I1
sVd6hokiv
p962
I1
sVd933xi5
p963
I1
sVdc3dvnp
p964
I2
sVd369jsr
p965
I1
sVdedyh6e
p966
I1
sVdb8fegb
p967
I1
sVd0b5p3l
p968
I1
sVdhyqm51
p969
I1
sVdrojxm8
p970
I1
sVcz9no0e
p971
I1
sVdex77xx
p972
I1
sVd4i1p46
p973
I1
sVdfi7jrp
p974
I1
sVd966sz2
p975
I1
sVdeqcwt3
p976
I1
sVdb5tb1b
p977
I1
sVdc2gofj
p978
I1
sVds1w7ca
p979
I2
sVczj6gvn
p980
I1
sVd8003xj
p981
I1
sVd33tykr
p982
I1
sVd1x812z
p983
I1
sVd00s5u6
p984
I1
sVdi2iohz
p985
I1
sVd2kreh0
p986
I1
sVdbj58zq
p987
I1
sVdthwkot
p988
I1
sVdn2htzc
p989
I1
sVdeq2cmt
p990
I1
sVdqr7yc2
p991
I1
sVd107xfx
p992
I1
sVdpliufg
p993
I1
sVddpyelm
p994
I1
sVdgiz40g
p995
I1
sVdgm7wvf
p996
I1
sVd78rs9r
p997
I2
sVdcwn2w3
p998
I1
sVczfnw8h
p999
I1
sVd3r5zwz
p1000
I1
sVdhg7xc5
p1001
I1
sVdhs6k92
p1002
I1
sVdtae2ob
p1003
I1
sVdgzii82
p1004
I1
sVdqlwft9
p1005
I1
sVddxcbyf
p1006
I1
sVd9esmmb
p1007
I1
sVdik1x24
p1008
I1
sVdr4ivc2
p1009
I2
sVczl46s5
p1010
I1
sVddbpfcz
p1011
I4
sVd0pjmpr
p1012
I1
sVdnd3tm0
p1013
I1
sVczrmja2
p1014
I1
sVdjwbfb8
p1015
I1
sVdakq92z
p1016
I1
sVd9noo2n
p1017
I1
sVdsstpvo
p1018
I1
sVdc5vplu
p1019
I1
sVdr92czf
p1020
I1
sVd3tpntj
p1021
I1
sVd35f721
p1022
I1
sVdgoq3zt
p1023
I2
sVd13hwib
p1024
I1
sVd18dn5k
p1025
I1
sVdeal0u6
p1026
I1
sVddmn0py
p1027
I1
sVd2lce18
p1028
I1
sVd0kntgp
p1029
I1
sVdcdz2zd
p1030
I1
sVdk9ia77
p1031
I1
sVcz5590q
p1032
I1
sVd15xrln
p1033
I1
sVd0h9l05
p1034
I1
sVd06kz4l
p1035
I1
sVdhkg998
p1036
I1
sVdjnre5s
p1037
I1
sVdadwssz
p1038
I2
sVdr8hs67
p1039
I1
sVdc8zxno
p1040
I1
sVd62uvhh
p1041
I1
sVd1wznna
p1042
I1
sVdg342da
p1043
I1
sVd14ci1t
p1044
I1
sVdja3hkl
p1045
I1
sVd0098l8
p1046
I1
sVd3igh2z
p1047
I1
sVd6dac44
p1048
I2
sVd1d5nrx
p1049
I1
sVd42bsmb
p1050
I1
sVdqb0o44
p1051
I1
sVd9l5yym
p1052
I1
sVdn6cxd1
p1053
I1
sVdk5hboa
p1054
I1
sVczr45pk
p1055
I1
sVd1qv4vt
p1056
I1
sVdcb0ob3
p1057
I1
sVd04shsk
p1058
I1
sVcz1gjin
p1059
I2
sVdcjl965
p1060
I1
sVdf3pktn
p1061
I1
sVd01sg5w
p1062
I1
sVdja0byg
p1063
I2
sVd3e2f5i
p1064
I1
sVdehq72d
p1065
I1
sVdd3wves
p1066
I1
sVdqjsrk4
p1067
I1
sVd202yps
p1068
I1
sVdetw2mo
p1069
I1
sVdtiaudu
p1070
I1
sVd7gpohe
p1071
I1
sVczzsnf8
p1072
I1
sVdqtqvvt
p1073
I1
sVdply0kp
p1074
I1
sVdn19f29
p1075
I2
sVdk03cjm
p1076
I1
sVd8olv94
p1077
I1
sVdi9kqup
p1078
I1
sVdgut69d
p1079
I1
sVdith6b5
p1080
I1
sVdq0lhhk
p1081
I1
sVdfriahj
p1082
I1
sVdavabym
p1083
I1
sVdgeljl7
p1084
I1
sVditp8zw
p1085
I1
sVcyxqnzd
p1086
I1
sVd3hkm8k
p1087
I1
sVd5jbb4l
p1088
I1
sVd04615s
p1089
I1
sVd11sxqu
p1090
I1
sVda64dq2
p1091
I1
sVcykc66p
p1092
I1
sVdg4v8q7
p1093
I1
sVd78sy90
p1094
I1
sVdp0lyq6
p1095
I1
sVdh66d7c
p1096
I1
sVd79qhe5
p1097
I1
sVddmvosb
p1098
I1
sVd6ixo26
p1099
I1
sVd3zp2x2
p1100
I1
sVdms7644
p1101
I1
sVdbciwfd
p1102
I1
sVdrzdnne
p1103
I1
sVd2d7u9v
p1104
I1
sVd7tbdvg
p1105
I1
sVd3d7ek0
p1106
I1
sVczarwdk
p1107
I2
sVd4dpcxj
p1108
I1
sVdhzuegv
p1109
I2
sVdcumw6h
p1110
I1
sVdokqmc8
p1111
I1
sVdmfnohs
p1112
I1
sVd07isr7
p1113
I1
sVdpn19lp
p1114
I1
sVdfihhhp
p1115
I1
sVdenvewz
p1116
I1
sVdpwkx84
p1117
I1
sVd02y6oz
p1118
I1
sVdhh1qq8
p1119
I1
sVdf8qbkq
p1120
I1
sVd5za8l9
p1121
I1
sVdn1s4sy
p1122
I1
sVd62ucja
p1123
I1
sVd3wpsis
p1124
I1
sVdbkllvl
p1125
I1
sVd9egdy7
p1126
I1
sVdb0wioa
p1127
I1
sVdb5gi0v
p1128
I1
sVdr6isro
p1129
I1
sVd0wthz1
p1130
I1
sVdpwq6gt
p1131
I1
sVdoszhkj
p1132
I2
sVd6kpi0j
p1133
I1
sVdgs4l65
p1134
I2
sVd7vz965
p1135
I1
sVd3nl3in
p1136
I1
sVd0ru01m
p1137
I3
sVdg44nhy
p1138
I1
sVd3p47g3
p1139
I1
sVdc9p0cn
p1140
I1
sVdf85zye
p1141
I2
sVdgny5pq
p1142
I1
sVd7atcra
p1143
I1
sVd9tq6m9
p1144
I1
sVdo1wkzt
p1145
I1
sVddxouwr
p1146
I1
sVdfuamrq
p1147
I1
sVdcghcwv
p1148
I1
sVdakxhy3
p1149
I1
sVdpqrwlw
p1150
I2
sVdha4e95
p1151
I1
sVcz1q7pm
p1152
I1
sVdq9tqov
p1153
I1
sVdn1otqv
p1154
I2
sVd19gkdy
p1155
I1
sVd2jscrc
p1156
I1
sVdbkkjix
p1157
I1
sVdbmmg3y
p1158
I1
sVdtji25y
p1159
I1
sVdnbopbz
p1160
I1
sVdkihc2e
p1161
I1
sVd4striq
p1162
I1
sVd5x6wnw
p1163
I1
sVdhc9uys
p1164
I1
sVd9cvy2y
p1165
I1
sVdr3bunp
p1166
I1
sVdjl5hye
p1167
I2
sVd0c1a4n
p1168
I1
sVdkefow5
p1169
I1
sVd9573dv
p1170
I1
sVd681eiv
p1171
I2
sVdaeumvp
p1172
I1
sVdihaw5p
p1173
I1
sVd5mkbpw
p1174
I1
sVd6d8m0r
p1175
I2
sVdbf3nvv
p1176
I1
sVd4h4uy6
p1177
I1
sVd1p09sk
p1178
I1
sVdce7406
p1179
I1
sVd8ufb9s
p1180
I1
sVd67klp2
p1181
I1
sVdjcdve8
p1182
I1
sVdo0tehh
p1183
I1
sVd5tp91t
p1184
I1
sVd1kq1eo
p1185
I1
sVczpqwuw
p1186
I1
sVdprwp7z
p1187
I1
sVd7djem2
p1188
I1
sVd630cpu
p1189
I1
sVdjw7wm2
p1190
I1
sVdbiluvg
p1191
I1
sVd7zl2v5
p1192
I1
sVdf052fm
p1193
I1
sVd8hmek1
p1194
I1
sVd6jgfui
p1195
I1
sVd5u431y
p1196
I1
sVczhbsau
p1197
I1
sVdf7zisr
p1198
I1
sVdizmdsq
p1199
I1
sVddijgvh
p1200
I2
sVdctf0ls
p1201
I1
sVdoeny9c
p1202
I1
sVdgzdpfd
p1203
I1
sVd0pref5
p1204
I2
sVdot7l7o
p1205
I1
sVdd5pa7p
p1206
I1
sVd4v2aw9
p1207
I1
sVd5fxdzy
p1208
I1
sVdqxds6c
p1209
I1
sVdsclixd
p1210
I1
sVd5cyfo4
p1211
I1
sVd926wa4
p1212
I1
sVdcgizr0
p1213
I1
sVczx14wt
p1214
I1
sVdr8w6xd
p1215
I1
sVd4uqlvk
p1216
I1
sVd5hma2o
p1217
I1
sVd0hxpzv
p1218
I1
sVd4boqll
p1219
I1
sVd0qri78
p1220
I2
sVd05e5di
p1221
I1
sVdawox7j
p1222
I1
sVd1x5f0o
p1223
I1
sVd3l3p97
p1224
I1
sVdn7jtsa
p1225
I1
sVdpgmw4l
p1226
I1
sVd7jyn9y
p1227
I1
sVdbxregc
p1228
I1
sVdgv0vsl
p1229
I3
sVdsb91vp
p1230
I1
sVdgs67bg
p1231
I1
sVdbr8jn0
p1232
I1
sVdpxcdpv
p1233
I1
sVd1v64cx
p1234
I1
sVdnnb712
p1235
I1
sVd86udw3
p1236
I1
sVd8hdh92
p1237
I1
sVdeclr48
p1238
I1
sVd0y31bk
p1239
I1
sVd3bjwk5
p1240
I1
sVdnv3h8w
p1241
I1
sVdnhl4je
p1242
I1
sVd7138iu
p1243
I1
sVdcuswoh
p1244
I1
sVd1g57ku
p1245
I1
sVczzut8s
p1246
I1
sVd60o4em
p1247
I1
sVd9wa56d
p1248
I1
sVd6nep9a
p1249
I1
sVdmjavjj
p1250
I1
sVd5ufmhb
p1251
I1
sVdpcci3l
p1252
I1
sVdihlktm
p1253
I1
sVdkqz2e0
p1254
I1
sVdnx136w
p1255
I1
sVd7c8ktq
p1256
I1
sVd06ao1b
p1257
I1
sVd64u4oy
p1258
I1
sVdiw9ptp
p1259
I1
sVd6h9k4x
p1260
I1
sVd3x49h5
p1261
I2
sVdp5ep8l
p1262
I1
sVd36hn1i
p1263
I1
sVdo8xpu0
p1264
I1
sVd9fmnpl
p1265
I1
sVdc11j14
p1266
I1
sVdd5kjbp
p1267
I1
sVdn6q5tu
p1268
I1
sVdn72ove
p1269
I1
sVdqxy5gp
p1270
I1
sVdre9tg2
p1271
I1
sVdibqk3d
p1272
I1
sVdgdov8w
p1273
I1
sVdnvwhwr
p1274
I1
sVd2sfqos
p1275
I2
sVdb7ekaa
p1276
I1
sVddwlr1g
p1277
I1
sVdkm3bkw
p1278
I1
sVd8hn9gv
p1279
I1
sVds8xzca
p1280
I1
sVdopzbzh
p1281
I1
sVd2eqvpb
p1282
I1
sVdsiv585
p1283
I1
sVczm70rz
p1284
I1
sVd1qcdrc
p1285
I1
sVcyjrcyq
p1286
I1
sVd2yyrn9
p1287
I1
sVds0077e
p1288
I1
sVdjh1uk7
p1289
I1
sVd6eepkq
p1290
I1
sVdiw5v6t
p1291
I1
sVd3int0l
p1292
I1
sVdihpbes
p1293
I1
sVdoqscqq
p1294
I1
sVdev38gq
p1295
I1
sVdmiqv8e
p1296
I1
sVdi1pjx0
p1297
I1
sVds85me9
p1298
I2
sVdcvtn1a
p1299
I1
sVd9h1x0q
p1300
I1
sVdc3hvwe
p1301
I1
sVdj3cy3f
p1302
I1
sVdpq2ztp
p1303
I1
sVdpb058d
p1304
I1
sVd6cv9zy
p1305
I1
sVd98asfu
p1306
I1
sVd2el2sc
p1307
I1
sVdj8nop5
p1308
I1
sVddf3n1z
p1309
I1
sVd5pye22
p1310
I2
sVd579q2j
p1311
I1
sVdggmhzv
p1312
I1
sVd3tznqd
p1313
I1
sVdphr96f
p1314
I1
sVd5zi27h
p1315
I1
sVdajk8pa
p1316
I1
sVdbc4btg
p1317
I1
sVds70qxq
p1318
I1
sVd2hvy4u
p1319
I1
sVd4ilprx
p1320
I1
sVd4k2oe9
p1321
I1
sVd8pw5po
p1322
I1
sVdsxw0ut
p1323
I1
sVdo48oxk
p1324
I1
sVd4rpibm
p1325
I1
sVd2ub3hl
p1326
I1
sVdgi87f0
p1327
I1
sVdnrhire
p1328
I1
sVd647mn7
p1329
I1
sVd8a8qj8
p1330
I1
sVd2ka4fa
p1331
I1
sVdczuvpu
p1332
I1
sVdn16kha
p1333
I4
sVd7nsjqx
p1334
I1
sVd0uwexp
p1335
I1
sVdewqhad
p1336
I1
sVd4khtr3
p1337
I1
sVdg05kmk
p1338
I1
sVd50is8k
p1339
I1
sVd1nlqef
p1340
I1
sVcz8kvjz
p1341
I1
sVddluzt7
p1342
I1
sVd97ay9o
p1343
I1
sVdg933gn
p1344
I1
sVd2uviua
p1345
I1
sVdb1onfg
p1346
I1
sVdnuo1vn
p1347
I1
sVd7hqm6x
p1348
I1
sVdgpwg94
p1349
I1
sVd7fybah
p1350
I1
sVd6cvoiw
p1351
I1
sVd3m7w5t
p1352
I1
sVda668yz
p1353
I1
sVdr3xr6z
p1354
I1
sVd7swb11
p1355
I1
sVdt800yf
p1356
I1
sVdiqpt0r
p1357
I1
sVd74pt8q
p1358
I1
sVdt2bavg
p1359
I1
sVd0fpnve
p1360
I1
sVd5xx2g3
p1361
I1
sVde9gi3i
p1362
I1
sVdbr316k
p1363
I3
sVd4dnaw6
p1364
I1
sVdmxj51s
p1365
I1
sVd0omzg9
p1366
I1
sVd76izov
p1367
I1
sVd3u5pna
p1368
I1
sVdipgh5n
p1369
I1
sVd6xz0b3
p1370
I1
sVd0kb7z0
p1371
I1
sVdghnqmu
p1372
I1
sVd8stoje
p1373
I1
sVd73posh
p1374
I1
sVdidlmfy
p1375
I1
sVddq1crs
p1376
I1
sVd2ahsp2
p1377
I1
sVdhcgj8u
p1378
I1
sVdrzsbgb
p1379
I1
sVd1w0z7u
p1380
I1
sVdcmemqh
p1381
I1
sVdhyffk1
p1382
I1
sVdmxgabu
p1383
I1
sVd3rqc60
p1384
I1
sVdng7dtd
p1385
I1
sVdf7mmir
p1386
I1
sVczpr8rj
p1387
I1
sVd8gxgso
p1388
I1
sVcz7joaa
p1389
I1
sVdeyp88a
p1390
I1
sVdpyjkt0
p1391
I1
sVd3rx9x3
p1392
I1
sVdasioy1
p1393
I1
sVddvh0vh
p1394
I1
sVdhaw35g
p1395
I2
sVd852xbs
p1396
I1
sVd26bfti
p1397
I1
sVcyk24of
p1398
I2
sVdbqrfse
p1399
I1
sVddi3u8m
p1400
I1
sVd1ij9gs
p1401
I1
sVd9qelzo
p1402
I1
sVd7jeryz
p1403
I1
sVczmetqe
p1404
I1
sVddjp16p
p1405
I2
sVdfa472i
p1406
I1
sVdfrc5cc
p1407
I1
sVda1ui16
p1408
I1
sVd3yciig
p1409
I1
sVd98lexa
p1410
I1
sVcz5p74o
p1411
I1
sVda76bwj
p1412
I1
sVd9fmfpx
p1413
I1
sVd4i0lvy
p1414
I1
sVdg1lhov
p1415
I1
sVdrbofiu
p1416
I1
sVd2wrrv1
p1417
I1
sVd9ly8to
p1418
I4
sVd5rrv2d
p1419
I1
sVdinjcn8
p1420
I2
sVd543d1k
p1421
I1
sVdibvsgb
p1422
I1
sVd9jemhv
p1423
I1
sVds6chhw
p1424
I1
sVddej049
p1425
I2
sVdamb15j
p1426
I5
sVdhcjv2s
p1427
I1
sVd712c1j
p1428
I1
sVd6m4mxi
p1429
I1
sVd9y1lqr
p1430
I1
sVdr5wjhx
p1431
I1
sVd9x9puk
p1432
I2
sVdekwv0u
p1433
I1
sVdrfzr7a
p1434
I1
sVd0021fo
p1435
I1
sVd8eqdd7
p1436
I1
sVde24bwh
p1437
I1
sVdbalgno
p1438
I1
sVdpe6l3r
p1439
I2
sVde2diny
p1440
I1
sVd050gnq
p1441
I1
sVd3aa0ru
p1442
I1
sVdb9eloj
p1443
I2
sVd9a8d6n
p1444
I1
sVd7n3myx
p1445
I1
sVczkbsly
p1446
I1
sVdd7ihgx
p1447
I1
sVcz3ehoj
p1448
I1
sVd5yenia
p1449
I1
sVd0qxq5x
p1450
I1
sVdimk1et
p1451
I1
sVd44ofw9
p1452
I1
sVd3zek9u
p1453
I1
sVd9cw42c
p1454
I1
sVdmfpcyv
p1455
I1
sVczor21q
p1456
I1
sVd7ll06b
p1457
I1
sVdew8hmc
p1458
I1
sVd9r58zk
p1459
I1
sVddkjhsl
p1460
I1
sVd9pewxx
p1461
I1
sVda2p8y6
p1462
I1
sVd7kc4ew
p1463
I1
sVd4s018h
p1464
I1
sVdpnjzue
p1465
I1
sVdposi93
p1466
I1
sVdh14b4s
p1467
I1
sVdcj5pz7
p1468
I1
sVd3qimim
p1469
I1
sVd8nej0m
p1470
I1
sVd41okmz
p1471
I1
sVdhrydjx
p1472
I1
sVcyib09v
p1473
I1
sVdhbtt02
p1474
I1
sVdgwbkfn
p1475
I1
sVd14xm4r
p1476
I1
sVdhijels
p1477
I1
sVdcqnu7c
p1478
I1
sVd208x2b
p1479
I1
sVd3n9rxe
p1480
I1
sVdnf192q
p1481
I1
sVd3jj15i
p1482
I1
sVdc9welt
p1483
I1
sVdq6j0x5
p1484
I1
sVd0jk0vc
p1485
I1
sVd5jnd06
p1486
I1
sVcyi7byj
p1487
I1
sVd08gmwk
p1488
I1
sVcz6zllb
p1489
I1
sVddpxdnd
p1490
I1
sVd3cdaw3
p1491
I1
sVdnsk64p
p1492
I1
sVdrp0ype
p1493
I1
sVd1rz249
p1494
I1
sVdazt92r
p1495
I1
sVdnh594q
p1496
I1
sVdaxokla
p1497
I1
sVcynd2ke
p1498
I1
sVd8kr1e1
p1499
I1
sVdalhsrf
p1500
I1
sVd6jg0c4
p1501
I1
sVdd7qj8d
p1502
I1
sVddm00b5
p1503
I1
sVd6lmgd7
p1504
I1
sVdbxphgr
p1505
I1
sVdcj11aj
p1506
I1
sVd6rpo9j
p1507
I1
sVdc7ef2w
p1508
I1
sVd51rajx
p1509
I1
sVdqn1rj3
p1510
I2
sVd6j03s7
p1511
I1
sVd304nc6
p1512
I1
sVdthcgzr
p1513
I2
sVdhwf9st
p1514
I1
sVdjra9jw
p1515
I1
sVdcw05l4
p1516
I1
sVdnffi49
p1517
I1
sVd07ykeh
p1518
I1
sVdggvbmf
p1519
I1
sVcykmpbu
p1520
I1
sVd7p3jzg
p1521
I1
sVdccc1o4
p1522
I1
sVd2hxt7a
p1523
I1
sVdcbzye7
p1524
I1
sVdmmx8w4
p1525
I1
sVdgnvfjm
p1526
I1
sVdrhz48v
p1527
I1
sVdkydqjm
p1528
I1
sVdi5g2ky
p1529
I1
sVdnkbhlg
p1530
I1
sVdihdki3
p1531
I1
sVdip16mh
p1532
I2
sVcz9yz1n
p1533
I2
sVd54qrzr
p1534
I1
sVdg3cdsd
p1535
I2
sVdhq5dar
p1536
I1
sVdorqpe9
p1537
I1
sVddmxfg7
p1538
I1
sVdfh931i
p1539
I1
sVdrm3gok
p1540
I1
sVdrjnwes
p1541
I1
sVdgk2k9h
p1542
I1
sVd1wfpoi
p1543
I1
sVdqni102
p1544
I1
sVd7ass6g
p1545
I1
sVdopszby
p1546
I1
sVdc623yo
p1547
I1
sVdsw11uv
p1548
I1
sVdgheza7
p1549
I1
sVdqxjf6d
p1550
I2
sVdo0t4hh
p1551
I1
sVdmukthr
p1552
I1
sVd5xjkur
p1553
I1
sVcyl65d1
p1554
I2
sVdk3gh20
p1555
I1
sVczhmxa9
p1556
I1
sVdf665pn
p1557
I1
sVd9yllnl
p1558
I1
sVdmxe5vp
p1559
I1
sVdj2iuzf
p1560
I1
sVd0pvb6g
p1561
I1
sVd9ftvdq
p1562
I1
sVd3wyvpv
p1563
I4
sVd1xocc8
p1564
I1
sVdb3kn05
p1565
I1
sVd2r1rqd
p1566
I1
sVd9n026l
p1567
I1
sVd0cxhl0
p1568
I1
sVd8fss70
p1569
I1
sVd18gybi
p1570
I1
sVddif02h
p1571
I1
sVdrs4vyl
p1572
I2
sVd8k6oqf
p1573
I1
sVd9vmw14
p1574
I1
sVdgiay9v
p1575
I1
sVdj57esc
p1576
I2
sVd2lt40t
p1577
I1
sVd1pxmnu
p1578
I1
sVd20c7do
p1579
I1
sVd6zp8i7
p1580
I1
sVd0nyo98
p1581
I1
sVdaznak3
p1582
I1
sVdgoluu6
p1583
I1
sVd4k4ota
p1584
I1
sVd13mnh9
p1585
I1
sVdiu5hwg
p1586
I1
sVd8syell
p1587
I1
sVd3lxgmb
p1588
I1
sVd1y8t09
p1589
I2
sVd2uxdh3
p1590
I1
sVd0almvy
p1591
I1
sVddculqw
p1592
I1
sVdjz0t8v
p1593
I1
sVd2jofvu
p1594
I2
sVdn5xk9m
p1595
I1
sVd001f6c
p1596
I1
sVdbu2ek0
p1597
I1
sVd4zv8q8
p1598
I1
sVdrdsiu8
p1599
I1
sVd6iog74
p1600
I1
sVdbstua5
p1601
I1
sVcyr5qsz
p1602
I1
sVdh8aqcn
p1603
I1
sVd25xynq
p1604
I1
sVdc4h3cc
p1605
I1
sVdkqhf7y
p1606
I2
sVdham879
p1607
I1
sVd422gjw
p1608
I1
sVd2h2n36
p1609
I1
sVdegczb5
p1610
I1
sVdogc4w9
p1611
I1
sVdqii130
p1612
I1
sVdav2anf
p1613
I1
sVdc4dx1v
p1614
I1
sVd4bi6v6
p1615
I3
sVdn7htkm
p1616
I1
sVd8ylbtz
p1617
I1
sVdfvko15
p1618
I1
sVde6f61i
p1619
I1
sVdeyfgd1
p1620
I1
sVd5b78bd
p1621
I1
sVd2vxllc
p1622
I1
sVdghaniu
p1623
I1
sVdpsllyt
p1624
I1
sVdcbo90l
p1625
I1
sVde5jrd3
p1626
I1
sVd0tbvzl
p1627
I1
sVd9imx6j
p1628
I1
sVdif4kog
p1629
I1
sVdg7jeid
p1630
I1
sVdg74dwr
p1631
I2
sVdnxk4m0
p1632
I1
sVd23cpqn
p1633
I1
sVdbsqoll
p1634
I1
sVd1qu22z
p1635
I1
sVd0ai512
p1636
I1
sVdg7zfxn
p1637
I1
sVdoj6h43
p1638
I2
sVdd1v8nh
p1639
I1
sVdpypjtu
p1640
I1
sVd6nzjh0
p1641
I1
sVd9gobti
p1642
I1
sVd7lydlj
p1643
I1
sVd13rku4
p1644
I1
sVddla50c
p1645
I1
sVdfm8ekb
p1646
I1
sVdhghibj
p1647
I1
sVdeatnlu
p1648
I2
sVd7nf84s
p1649
I1
sVdn8tow2
p1650
I1
sVd1zwn8d
p1651
I1
sVcz06dt2
p1652
I1
sVdire9h3
p1653
I1
sVd049kzl
p1654
I1
sVd5tzi5n
p1655
I1
sVd5yhp1x
p1656
I1
sVdhwg80n
p1657
I1
sVdo2r2m1
p1658
I1
sVdb3ims0
p1659
I1
sVczpz3dm
p1660
I1
sVdbeams6
p1661
I1
sVdhl2jb2
p1662
I2
sVdr1wjq0
p1663
I1
sVdfisjmu
p1664
I1
sVdqee0jg
p1665
I3
sVdp8xfi7
p1666
I1
sVdsujri8
p1667
I1
sVdqoy3w7
p1668
I4
sVdazg09l
p1669
I1
sVczln5az
p1670
I1
sVd55xgtk
p1671
I1
sVdr5slwj
p1672
I1
sVcztdqi6
p1673
I1
sVd5ucxv9
p1674
I1
sVd2macaw
p1675
I1
sVd7gnvje
p1676
I1
sVd91f4s3
p1677
I1
sVdi2pujl
p1678
I1
sVcznlbia
p1679
I1
sVd07k6kt
p1680
I1
sVddik637
p1681
I1
sVdmjtq4c
p1682
I1
sVd1p8ku9
p1683
I1
sVdo5edc8
p1684
I2
sVddglnqe
p1685
I1
sVdc3nf6s
p1686
I1
sVd0m9ifc
p1687
I1
sVdd7n5ri
p1688
I1
sVdr9m2oy
p1689
I1
sVd1wyzcv
p1690
I1
sVdku1tax
p1691
I1
sVdhyqrje
p1692
I1
sVd2qw0ll
p1693
I1
sVd7frb1a
p1694
I1
sVdk3amwt
p1695
I1
sVddhc0gb
p1696
I1
sVdfy6l91
p1697
I1
sVdqwn3fu
p1698
I1
sVd7zwsr2
p1699
I1
sVdbwiz0k
p1700
I1
sVcyqktdy
p1701
I1
sVd4pn13v
p1702
I1
sVday46zo
p1703
I1
sVdag0cp9
p1704
I1
sVdad26mi
p1705
I1
sVdgj0h1f
p1706
I1
sVdkkj58u
p1707
I1
sVdde7rlf
p1708
I1
sVdnwexgl
p1709
I1
sVdn9hp3r
p1710
I1
sVd05641a
p1711
I2
sVd82tyg5
p1712
I1
sVdiwhohq
p1713
I1
sVdb3pf39
p1714
I1
sVdac818g
p1715
I1
sVd1bfpzf
p1716
I1
sVdn2w7h8
p1717
I1
sVd0sii0q
p1718
I2
sVdjjj8ie
p1719
I1
sVdayutaq
p1720
I1
sVd3ua72y
p1721
I2
sVd3y0s0g
p1722
I1
sVdc8agmx
p1723
I1
sVd65wkjs
p1724
I1
sVd09vyen
p1725
I1
sVdgsgakj
p1726
I1
sVdjh6spy
p1727
I2
sVdbgzlr1
p1728
I1
sVdfuiwqr
p1729
I1
sVd3eebt5
p1730
I1
sVczbl4uv
p1731
I2
sVd5590dm
p1732
I1
sVdrs3o0q
p1733
I1
sVd1ko0vi
p1734
I1
sVd86ap5d
p1735
I1
sVdfwwei2
p1736
I1
sVcz9rvqo
p1737
I1
sVd3e7kmv
p1738
I1
sVdsusfmr
p1739
I1
sVdmixvbs
p1740
I1
sVd1kdybs
p1741
I1
sVdcq7iqo
p1742
I1
sVd0y3f05
p1743
I1
sVdmw9bxp
p1744
I1
sVdjj0ocn
p1745
I1
sVd4qe8m8
p1746
I1
sVd5gw2tk
p1747
I1
sVd2xspkc
p1748
I1
sVcz7oxs2
p1749
I4
sVdbxo6kk
p1750
I1
sVdcuuy6j
p1751
I1
sVd4nbr3d
p1752
I1
sVd8edold
p1753
I1
sVds8sdsj
p1754
I1
sVderjzbi
p1755
I1
sVdc16w8a
p1756
I1
sVd984j9k
p1757
I1
sVdgn3v88
p1758
I1
sVdiurgg3
p1759
I1
sVcz9lke0
p1760
I1
sVdcviejc
p1761
I1
sVd4olgmh
p1762
I1
sVd4hfk8h
p1763
I2
sVd3czt5k
p1764
I1
sVd2ctz89
p1765
I1
sVdnh36t1
p1766
I1
sVczufjjo
p1767
I1
sVd1db6iu
p1768
I1
sVd3ed5ph
p1769
I1
sVdn4oe2d
p1770
I1
sVd7tqje5
p1771
I1
sVdkeh616
p1772
I1
sVdbzm88k
p1773
I1
sVdb884nl
p1774
I1
sVdgch3i9
p1775
I1
sVdmka5se
p1776
I1
sVddqi560
p1777
I1
sVdj4gb98
p1778
I1
sVdagbp9w
p1779
I1
sVd68y03r
p1780
I1
sVdq2dqak
p1781
I1
sVdd9xpwv
p1782
I1
sVdirg4zw
p1783
I1
sVdibson1
p1784
I1
sVd7g0sx5
p1785
I1
sVdc3kd4m
p1786
I1
sVd9cwmor
p1787
I1
sVdr1440t
p1788
I1
sVdbgj4er
p1789
I1
sVd8bqpbq
p1790
I1
sVd2eoe1w
p1791
I1
sVd1pptt4
p1792
I3
sVd2f734c
p1793
I1
sVdjx7fiv
p1794
I1
sVd35vuqn
p1795
I1
sVdid4zp4
p1796
I1
sVdfwy4fe
p1797
I1
sVdesz3ts
p1798
I2
sVdkgu6vy
p1799
I1
sVd3p4nd8
p1800
I1
sVdig3zth
p1801
I1
sVdhrhdg2
p1802
I1
sVdb3daga
p1803
I1
sVdr1jsly
p1804
I1
sVdcv0cin
p1805
I1
sVczqd86b
p1806
I1
sVdf7tv3u
p1807
I1
sVdg5vj58
p1808
I1
sVcyt2hbf
p1809
I1
sVdnly6xq
p1810
I1
sVd2q7w68
p1811
I1
sVdjy64y2
p1812
I1
sVd0r3x2h
p1813
I1
sVd0h8zjp
p1814
I1
sVdscenrl
p1815
I1
sVd3vqspb
p1816
I1
sVdg8yljd
p1817
I1
sVd5k1mim
p1818
I1
sVcz8luq4
p1819
I2
sVd1ok3pd
p1820
I1
sVddbao2f
p1821
I1
sVdrqpsfj
p1822
I1
sVdco0qm0
p1823
I1
sVdpjv3cp
p1824
I1
sVddcou14
p1825
I1
sVdg8i2ck
p1826
I1
sVdg3i5h9
p1827
I1
sVdmzxwzg
p1828
I1
sVdtfyt8i
p1829
I3
sVdie1hyq
p1830
I2
sVdparngb
p1831
I1
sVd8byut1
p1832
I1
sVd64t4zl
p1833
I1
sVd2ehyvq
p1834
I1
sVd57dcij
p1835
I1
sVddkzroc
p1836
I2
sVd3bjc3f
p1837
I1
sVd7y7xuz
p1838
I1
sVdomenpo
p1839
I1
sVd5shj5w
p1840
I1
sVd6bbgec
p1841
I1
sVd09mxa0
p1842
I1
sVd4bcipl
p1843
I1
sVd9bm1mo
p1844
I1
sVd6f7e64
p1845
I1
sVczflq64
p1846
I2
sVd3iqwwu
p1847
I1
sVd7tjprg
p1848
I1
sVcyv6goc
p1849
I1
sVd2cv72a
p1850
I1
sVdo5k6v0
p1851
I2
sVdssowig
p1852
I1
sVdmxbl37
p1853
I1
sVd3j50uv
p1854
I1
sVdkelb9a
p1855
I1
sVdioykn5
p1856
I1
sVd7v1rvy
p1857
I1
sVdqcv4z5
p1858
I1
sVdhvtgq9
p1859
I1
sVdao4gkb
p1860
I1
sVdaxonav
p1861
I1
sVd1g8otx
p1862
I1
sVdddidlv
p1863
I1
sVdk8b4b1
p1864
I1
sVdprze5s
p1865
I1
sVdcsd5w1
p1866
I1
sVdkt4a2i
p1867
I1
sVd4hz7tg
p1868
I1
sVdmm4z1k
p1869
I1
sVd75tfsl
p1870
I1
sVdcbyemq
p1871
I1
sVd7u94mu
p1872
I1
sVd92ms8j
p1873
I1
sVdpmuh2x
p1874
I2
sVdboxqp5
p1875
I1
sVd1d30dt
p1876
I1
sVd1xv6l6
p1877
I1
sVdnhhav5
p1878
I1
sVdss6xgw
p1879
I2
sVdshs98t
p1880
I1
sVd34qwai
p1881
I2
sVd1nab4e
p1882
I2
sVdbct76k
p1883
I1
sVdcb1pk7
p1884
I1
sVd3uqwd6
p1885
I1
sVd3bhol4
p1886
I1
sVdrnoft0
p1887
I1
sVdramlwg
p1888
I1
sVdqnho4t
p1889
I2
sVdecq9tr
p1890
I1
sVdb956a6
p1891
I1
sVdi0u2it
p1892
I1
sVdd6b6lm
p1893
I2
sVd4lzalq
p1894
I1
sVd4ncpex
p1895
I2
sVd0unwml
p1896
I1
sVdel1rtw
p1897
I1
sVdfgcp8y
p1898
I1
sVd1kufk4
p1899
I1
sVdmugc3f
p1900
I1
sVdsblvse
p1901
I1
sVd0c184g
p1902
I1
sVdhe5m28
p1903
I1
sVd111ilh
p1904
I1
sVczslpf7
p1905
I1
sVdqnl4cs
p1906
I1
sVczbw4uf
p1907
I1
sVdho0dyz
p1908
I1
sVdn1gl2t
p1909
I1
sVd7cf4yb
p1910
I1
sVd0cvgmy
p1911
I1
sVczuzk28
p1912
I1
sVd4jvkkr
p1913
I1
sVczrmfuw
p1914
I2
sVd14r4fr
p1915
I1
sVdgmsl9u
p1916
I1
sVdn5wwce
p1917
I1
sVdc301qe
p1918
I1
sVdhvddhr
p1919
I1
sVd1lmfx3
p1920
I2
sVd3sfw2y
p1921
I1
sVd7gateq
p1922
I1
sVd0oefsr
p1923
I1
sVds5fq6i
p1924
I1
sVdje8x6q
p1925
I1
sVd5sfo5e
p1926
I1
sVdckjpgi
p1927
I1
sVczfz24p
p1928
I1
sVds4nd37
p1929
I1
sVdmunyn4
p1930
I1
sVdfpb1mz
p1931
I1
sVd5i0zu3
p1932
I2
sVczqvvxr
p1933
I1
sVd46wh5g
p1934
I1
sVdi53m37
p1935
I1
sVdphlk2z
p1936
I1
sVdssuvg8
p1937
I1
sVdt4c6rh
p1938
I1
sVcz7ih5d
p1939
I1
sVdhmohrt
p1940
I1
sVdpui8eq
p1941
I1
sVde5kecc
p1942
I1
sVdj10hm0
p1943
I1
sVd8f3ymo
p1944
I1
sVd44cx40
p1945
I1
sVd9ifjr1
p1946
I1
sVd8km3me
p1947
I1
sVd9yq524
p1948
I1
sVdcjoqb3
p1949
I2
sVd0rjems
p1950
I1
sVdihqhbf
p1951
I1
sVd0vuqbf
p1952
I1
sVdsrp3z4
p1953
I2
sVda1a2tz
p1954
I1
sVdkqoqmi
p1955
I1
sVdaouf2l
p1956
I1
sVde32104
p1957
I1
sVcyj9b2h
p1958
I1
sVdsdx379
p1959
I1
sVcyvobd2
p1960
I1
sVd0xvnuu
p1961
I1
sVd018ad9
p1962
I1
sVd1cqk66
p1963
I1
sVdi1ya1v
p1964
I1
sVd8np7q6
p1965
I1
sVdk30fcc
p1966
I1
sVdealf6k
p1967
I2
sVdf9lnqm
p1968
I1
sVdb8i5np
p1969
I1
sVdd9xbut
p1970
I1
sVdjn71q0
p1971
I1
sVcyz6qfs
p1972
I1
sVd3d45i2
p1973
I1
sVd1rp2nf
p1974
I1
sVd1e8l9q
p1975
I1
sVdkajp5t
p1976
I1
sVd11y7dk
p1977
I1
sVdr2q1dh
p1978
I1
sVd0p3j9v
p1979
I3
sVdbwa2gj
p1980
I1
sVdesqnls
p1981
I1
sVdftn2sj
p1982
I1
sVddwv3aa
p1983
I1
sVdguab3u
p1984
I2
sVdjtm9wl
p1985
I1
sVdpvaoui
p1986
I2
sVd1e0d9v
p1987
I1
sVd6159v9
p1988
I1
sVdr4s9by
p1989
I1
sVd2qnlqu
p1990
I1
sVcytl8vz
p1991
I1
sVd0z51kz
p1992
I1
sVddvn4lh
p1993
I1
sVcz993bl
p1994
I2
sVczf7lmw
p1995
I1
sVdqmvsx8
p1996
I1
sVdgmon14
p1997
I1
sVddi360x
p1998
I1
sVdhg5s87
p1999
I1
sVdt925xt
p2000
I1
sVdqk2yqe
p2001
I1
sVdj503u2
p2002
I1
sVdjovla6
p2003
I1
sVdaucqej
p2004
I1
sVdkegnf2
p2005
I1
sVddjrpmo
p2006
I1
sVdqfnqkk
p2007
I1
sVdkibhpa
p2008
I1
sVd0yrl9j
p2009
I1
sVdi31nvv
p2010
I1
sVdaz6yjf
p2011
I1
sVdmf14z4
p2012
I1
sVd2g7o0i
p2013
I1
sVdc7k24t
p2014
I1
sVd9kqdoh
p2015
I1
sVdgzckxt
p2016
I1
sVdjanrnf
p2017
I1
sVdeo5y9j
p2018
I1
sVdtbgo6k
p2019
I2
sVdkegmip
p2020
I1
sVdmx081b
p2021
I1
sVddk4zqn
p2022
I1
sVds6d8v0
p2023
I1
sVdmv1w3d
p2024
I1
sVd10kbi4
p2025
I1
sVdkajzyf
p2026
I1
sVdoiitc9
p2027
I1
sVdriyim0
p2028
I1
sVd0r2iaq
p2029
I1
sVdemjeoq
p2030
I1
sVdo893cd
p2031
I1
sVdi6j2y8
p2032
I1
sVd1qg9nu
p2033
I1
sVdt5zbq6
p2034
I1
sVdbf099i
p2035
I1
sVd6vilwg
p2036
I1
sVdnkdm2r
p2037
I1
sVcztv43d
p2038
I1
sVdjpww8h
p2039
I1
sVdos7r9e
p2040
I1
sVdb25f5x
p2041
I1
sVdfjq4x3
p2042
I1
sVd1mxp2s
p2043
I1
sVcz6cssv
p2044
I1
sVdduoq29
p2045
I2
sVdd4v526
p2046
I1
sVdijeiy7
p2047
I1
sVd0x84ne
p2048
I1
sVd057izc
p2049
I1
sVdbity2b
p2050
I1
sVdbfmmu2
p2051
I1
sVd56ibsd
p2052
I1
sVd5qn84e
p2053
I1
sVd4ifeem
p2054
I1
sVds1qay2
p2055
I1
sVdq7vcwz
p2056
I1
sVd1qryx5
p2057
I1
sVdepr4o3
p2058
I1
sVdpvl1zo
p2059
I1
sVdivxfkk
p2060
I2
sVdmsmppg
p2061
I1
sVd8sv8p6
p2062
I1
sVdraazai
p2063
I1
sVdeyn6mf
p2064
I1
sVdpjk49y
p2065
I1
sVdnjb80n
p2066
I1
sVczwvorf
p2067
I1
sVd854xlu
p2068
I1
sVdenx9ds
p2069
I1
sVdq4vxpd
p2070
I1
sVd1otut5
p2071
I1
sVd38zo3w
p2072
I1
sVd0c1stv
p2073
I1
sVd56fyuy
p2074
I1
sVd88u9vm
p2075
I1
sVczq5wsl
p2076
I1
sVdib9kgs
p2077
I1
sVdsu9xwy
p2078
I1
sVd98a6lz
p2079
I1
sVd5fuqey
p2080
I1
sVczinvsm
p2081
I1
sVd9ekl4a
p2082
I1
sVd2tjksb
p2083
I1
sVde2q9y6
p2084
I1
sVddc0lse
p2085
I1
sVdamu861
p2086
I1
sVdp7jotv
p2087
I1
sVd02611p
p2088
I1
sVd2zo2pg
p2089
I1
sVczn6vxp
p2090
I1
sVd9tkze0
p2091
I1
sVd7qjb63
p2092
I1
sVd20cud9
p2093
I1
sVczghbob
p2094
I1
sVd1toupu
p2095
I1
sVcymuo5r
p2096
I1
sVdcnoe2b
p2097
I1
sVd3e5zny
p2098
I1
sVdegdvqh
p2099
I1
sVdjx7pxk
p2100
I1
sVd2rhi2e
p2101
I1
sVdtebojw
p2102
I1
sVd6gv2sl
p2103
I1
sVd9bcujd
p2104
I2
sVd0wxlxy
p2105
I1
sVd088jso
p2106
I1
sVdbit130
p2107
I1
sVd2l09ct
p2108
I1
sVdrspn66
p2109
I1
sVdkxlbtq
p2110
I1
sVd6w8jeq
p2111
I1
sVd4w4b2o
p2112
I1
sVdrtr65l
p2113
I1
sVd8gfrpr
p2114
I1
sVd111ni8
p2115
I2
sVd2wrd2b
p2116
I1
sVd8ax39c
p2117
I2
sVdsmorwg
p2118
I1
sVcyttzmf
p2119
I2
sVd4xnvrm
p2120
I1
sVczc5fqq
p2121
I1
sVdh5rnqc
p2122
I1
sVcz0rinp
p2123
I1
sVds0v097
p2124
I1
sVd8xo8c3
p2125
I1
sVdo248u1
p2126
I2
sVd8p9fny
p2127
I1
sVdfjf2b0
p2128
I1
sVdh9wump
p2129
I1
sVdmk2eao
p2130
I1
sVd5q661s
p2131
I2
sVdjik9fa
p2132
I1
sVdk17dbj
p2133
I1
sVdb09cc4
p2134
I1
sVd1p8xrh
p2135
I1
sVd6rjpay
p2136
I1
sVd3otrkn
p2137
I1
sVd8m0s59
p2138
I1
sVddel164
p2139
I1
sVd5polb5
p2140
I1
sVdjokq5p
p2141
I1
sVd7rz4oa
p2142
I1
sVd5v26af
p2143
I1
sVd3zvyoz
p2144
I1
sVcypwfc8
p2145
I1
sVd177th4
p2146
I1
sVczli133
p2147
I1
sVcypk1o6
p2148
I1
sVd6wrhgb
p2149
I1
sVd0v03s6
p2150
I1
sVdpiwqpz
p2151
I1
sVd7ry93h
p2152
I1
sVcyjv5pm
p2153
I1
sVdn3kcu9
p2154
I1
sVd7p3zkr
p2155
I1
sVdtdsuhr
p2156
I1
sVd12s2zm
p2157
I1
sVdep2jn1
p2158
I1
sVdey7gyt
p2159
I1
sVdc2mdie
p2160
I1
sVd08e5ri
p2161
I1
sVd5kf3q0
p2162
I1
sVdi25386
p2163
I1
sVdq6r6t3
p2164
I1
sVd8jpbbt
p2165
I1
sVdc6an1v
p2166
I1
sVczazjgi
p2167
I1
sVdfm52l5
p2168
I1
sVd1c4yyp
p2169
I1
sVd20ma1v
p2170
I1
sVczmoh2f
p2171
I2
sVd4nvykx
p2172
I1
sVczwbyih
p2173
I1
sVd4y1jy9
p2174
I1
sVczuo66q
p2175
I1
sVdhug3ud
p2176
I1
sVd3b62x0
p2177
I1
sVded3eko
p2178
I1
sVde0nm9p
p2179
I1
sVdpcthfh
p2180
I1
sVd1n3wy5
p2181
I1
sVdf118ed
p2182
I1
sVd0e3tpa
p2183
I1
sVdtj280p
p2184
I1
sVds9k4ln
p2185
I1
sVd6ilyh5
p2186
I1
sVd7hvdxm
p2187
I1
sVcz7p01l
p2188
I1
sVd49ws41
p2189
I1
sVd8qglzp
p2190
I1
sVd8eiwx6
p2191
I1
sVdnyit2h
p2192
I1
sVd8krlrn
p2193
I1
sVdqu13xx
p2194
I1
sVd1b5w9v
p2195
I1
sVdfa3s25
p2196
I1
sVd00c80q
p2197
I1
sVdpz800a
p2198
I1
sVdd8ljio
p2199
I1
sVdjq5ue3
p2200
I1
sVczornf4
p2201
I1
sVdbhtm8v
p2202
I1
sVdndja4d
p2203
I1
sVd0luob6
p2204
I1
sVd00hwg5
p2205
I2
sVczgkhwd
p2206
I1
sVdpyb8j8
p2207
I1
sVdqvl3jd
p2208
I1
sVd76mvge
p2209
I1
sVd871b58
p2210
I1
sVd18jwvo
p2211
I1
sVd1tv38h
p2212
I1
sVd9qe5zm
p2213
I1
sVdowq1px
p2214
I1
sVdh0x24e
p2215
I1
sVdkdslp8
p2216
I1
sVd19s8te
p2217
I3
sVdmwwqlt
p2218
I1
sVdtcfbr5
p2219
I1
sVdf8mnck
p2220
I1
sVdi0g9p6
p2221
I1
sVde9qd67
p2222
I1
sVdavfdqu
p2223
I1
sVdiyyj9b
p2224
I1
sVderyqwz
p2225
I1
sVdbnr2hy
p2226
I1
sVd9dl7xw
p2227
I1
sVdhyiisk
p2228
I1
sVdj7x1ug
p2229
I1
sVd51v2ss
p2230
I2
sVd6j8buo
p2231
I1
sVd9cdgy5
p2232
I1
sVdri78eo
p2233
I1
sVdip8m4m
p2234
I1
sVdsfwh3z
p2235
I1
sVdggsdlk
p2236
I1
sVd6tstk3
p2237
I1
sVdofnqeo
p2238
I1
sVdcl51zw
p2239
I1
sVdefm19w
p2240
I1
sVdcg08ea
p2241
I1
sVd3pj5q3
p2242
I1
sVd3mix6h
p2243
I1
sVdom8wq3
p2244
I1
sVdrp2e6z
p2245
I1
sVdmpovmb
p2246
I1
sVdggqy3w
p2247
I1
sVdkx461o
p2248
I1
sVdku7bl7
p2249
I1
sVds4oamw
p2250
I1
sVdccysae
p2251
I1
sVdazyqj6
p2252
I1
sVd022lvp
p2253
I1
sVdg2wi9r
p2254
I1
sVd1a6gzz
p2255
I1
sVdptgf7c
p2256
I2
sVd25kjht
p2257
I1
sVd7hjgn7
p2258
I1
sVd1agvcc
p2259
I1
sVd2cuy10
p2260
I1
sVdbtv9xj
p2261
I1
sVdat638e
p2262
I1
sVd9aahwt
p2263
I1
sVdnxkjpt
p2264
I1
sVd36gnvo
p2265
I1
sVd56oxsa
p2266
I1
sVdo8hj5z
p2267
I1
sVd13ptkq
p2268
I1
sVd1kad3y
p2269
I1
sVd6yg17o
p2270
I1
sVdb3cgtc
p2271
I1
sVd9b62zz
p2272
I1
sVd5ec3i3
p2273
I1
sVdazd5v9
p2274
I1
sVdashqov
p2275
I1
sVdeubg0k
p2276
I1
sVd3liia6
p2277
I1
sVdslbi4y
p2278
I1
sVdjapzi1
p2279
I1
sVd60xskb
p2280
I1
sVdb2vzc1
p2281
I1
sVdft07be
p2282
I1
sVcz7895p
p2283
I1
sVd4qe84a
p2284
I1
sVdi0hyrz
p2285
I1
sVdkifm7p
p2286
I1
sVde1l3pv
p2287
I3
sVdggymsl
p2288
I4
sVdbspvjw
p2289
I1
sVcytd00q
p2290
I1
sVdab2rjz
p2291
I2
sVdqhz5ku
p2292
I1
sVdqwdm6l
p2293
I1
sVd10x1ed
p2294
I1
sVd9dfaek
p2295
I1
sVdo4xcd4
p2296
I2
sVdosfddl
p2297
I1
sVdsytj7h
p2298
I1
sVdf1ut1x
p2299
I1
sVdds3z56
p2300
I1
sVdeeh3ah
p2301
I1
sVdix9ns7
p2302
I1
sVd081llt
p2303
I1
sVdaunyug
p2304
I2
sVd807y56
p2305
I1
sVdrus0u7
p2306
I1
sVdifjsoy
p2307
I1
sVd6kr5ah
p2308
I1
sVd4fsdt2
p2309
I1
sVd85989n
p2310
I1
sVdhq4fv4
p2311
I1
sVds4n8s6
p2312
I1
sVdklyrmr
p2313
I2
sVdhcokxv
p2314
I1
sVd37ukfd
p2315
I1
sVd2d8iwf
p2316
I1
sVd5c1tiy
p2317
I1
sVdrhnqck
p2318
I1
sVd9qqonn
p2319
I1
sVdfk53lq
p2320
I1
sVddkxjaq
p2321
I1
sVdgypkt4
p2322
I1
sVdiq9hpe
p2323
I1
sVd4dy1lg
p2324
I1
sVdao4tbp
p2325
I1
sVd9v36v0
p2326
I1
sVdefqx6p
p2327
I1
sVdfv7p88
p2328
I1
sVddr3jq0
p2329
I1
sVdjxagmt
p2330
I1
sVd4ibrjl
p2331
I1
sVd6knwv8
p2332
I3
sVd3fn7mz
p2333
I1
sVd6qkry9
p2334
I1
sVdh65bon
p2335
I1
sVdc6ygtn
p2336
I1
sVd9lc07s
p2337
I1
sVdjujfem
p2338
I1
sVd9s7pmr
p2339
I1
sVdml5d7f
p2340
I1
sVcys43h6
p2341
I1
sVd8lf10b
p2342
I1
sVd3xa287
p2343
I1
sVd0t7x0s
p2344
I1
sVd7yn6mv
p2345
I1
sVdbgsj0y
p2346
I1
sVd9d3rdf
p2347
I3
sVdmhjr2a
p2348
I1
sVd3i2gr4
p2349
I1
sVdgmbn5k
p2350
I1
sVd5sm49e
p2351
I1
sVd9gh0h4
p2352
I1
sVd745e0h
p2353
I1
sVd5z80xx
p2354
I1
sVd29vkft
p2355
I1
sVdtais1j
p2356
I1
sVdq4tg5g
p2357
I1
sVdiict1y
p2358
I1
sVdksh0q5
p2359
I1
sVddtivrr
p2360
I1
sVd39p39t
p2361
I2
sVd35foe1
p2362
I1
sVd207ass
p2363
I1
sVdbuy0vg
p2364
I1
sVd2unh2e
p2365
I1
sVd0mtd41
p2366
I1
sVdtdb9d8
p2367
I1
sVczg6zcx
p2368
I1
sVd09jgyz
p2369
I1
sVd1vy6tj
p2370
I1
sVd3jq3ge
p2371
I1
sVdjwh1h5
p2372
I1
sVd365wra
p2373
I2
sVdgcq47k
p2374
I1
sVdegw9hm
p2375
I1
sVdmw8ocz
p2376
I1
sVd0qmvy8
p2377
I1
sVdf99q5o
p2378
I3
sVdg5onyy
p2379
I1
sVdb3cyk1
p2380
I1
sVdp50iad
p2381
I1
sVdhcynvi
p2382
I1
sVd3wmzom
p2383
I2
sVd0t3c0b
p2384
I1
sVdmeq6fr
p2385
I1
sVdcvq9n9
p2386
I1
sVdmtcquz
p2387
I1
sVdoxnfpe
p2388
I1
sVd29i861
p2389
I1
sVdk0nuyn
p2390
I1
sVdtfp05e
p2391
I1
sVdc36ghq
p2392
I1
sVdhnlhbq
p2393
I1
sVdira81m
p2394
I1
sVd1kniw9
p2395
I1
sVdffuq7w
p2396
I1
sVd2i0n4f
p2397
I1
sVcyxwab6
p2398
I1
sVczwadjl
p2399
I1
sVdbaotbj
p2400
I1
sVd5xzvgo
p2401
I1
sVd26zc3g
p2402
I1
sVdal37ah
p2403
I1
sVdgn3jjg
p2404
I1
sVdi521kj
p2405
I1
sVdik3ksg
p2406
I2
sVdferm4a
p2407
I1
sVdf9400g
p2408
I1
sVdbvpiee
p2409
I2
sVd03p80g
p2410
I1
sVdao6lnr
p2411
I1
sVd9mjy33
p2412
I1
sVddgel09
p2413
I1
sVdt2tppy
p2414
I1
sVd234yus
p2415
I1
sVdb11i0s
p2416
I1
sVd7hr0sw
p2417
I1
sVd9q2vgh
p2418
I2
sVczceprn
p2419
I1
sVdf1wfd3
p2420
I1
sVd6k8vg8
p2421
I1
sVdpg021u
p2422
I1
sVd2fmhbl
p2423
I1
sVcynwv81
p2424
I1
sVdb1xd40
p2425
I1
sVdeyzhps
p2426
I1
sVdq0444f
p2427
I1
sVd1w0npj
p2428
I1
sVdr38yze
p2429
I1
sVcytuo4p
p2430
I1
sVdob3n50
p2431
I1
sVde2wb1w
p2432
I1
sVdof2fla
p2433
I1
sVdsa7kdm
p2434
I1
sVd22vtk9
p2435
I1
sVdgi1cl4
p2436
I2
sVdq7u2zc
p2437
I1
sVd40rfga
p2438
I1
sVdf0vzlj
p2439
I1
sVd7vfl1m
p2440
I1
sVd8vixmj
p2441
I1
sVd9iij7n
p2442
I1
sVdo9du4f
p2443
I1
sVd6lup8c
p2444
I1
sVd00hkf0
p2445
I1
sVdht1gfq
p2446
I1
sVdsimb7x
p2447
I1
sVder3yny
p2448
I1
sVdhqy63v
p2449
I1
sVdhgeff5
p2450
I1
sVdad29j1
p2451
I1
sVd1w8zxl
p2452
I1
sVd5h0xk3
p2453
I1
sVcyrh8ft
p2454
I1
sVdot98pp
p2455
I1
sVdkig3qa
p2456
I1
sVd6a26z9
p2457
I1
sVddwmm8k
p2458
I1
sVdn2vbaj
p2459
I1
sVd0twnqa
p2460
I1
sVd77xkqz
p2461
I1
sVd77s72u
p2462
I1
sVdmh96t7
p2463
I1
sVd3gocgn
p2464
I3
sVd8valcv
p2465
I1
sVdrp7vff
p2466
I1
sVdbaw7fi
p2467
I1
sVcztnk7u
p2468
I1
sVdrh3fdv
p2469
I1
sVddjn0v6
p2470
I1
sVd8502ok
p2471
I1
sVcymnd8i
p2472
I1
sVdi6dwra
p2473
I1
sVd2ztejp
p2474
I1
sVdeo10n3
p2475
I1
sVdsryh7g
p2476
I1
sVcz6yk9h
p2477
I1
sVd7cekkl
p2478
I1
sVcyuefuo
p2479
I1
sVdbb7pjq
p2480
I1
sVdgk1uo0
p2481
I1
sVd5powvp
p2482
I1
sVdih9nl6
p2483
I1
sVda7k7jg
p2484
I1
sVdjskqs8
p2485
I1
sVd1gpkh2
p2486
I1
sVd858a4w
p2487
I1
sVdoek91u
p2488
I1
sVdeqmimf
p2489
I1
sVddl0cjc
p2490
I1
sVcz82ycj
p2491
I1
sVdis89gl
p2492
I1
sVdkydx9h
p2493
I2
sVd75lfdx
p2494
I1
sVdgmupyi
p2495
I1
sVdb87n7h
p2496
I1
sVdb8a4db
p2497
I1
sVdjo8f59
p2498
I1
sVd37pr1h
p2499
I1
sVdqldmm8
p2500
I1
sVdihejh2
p2501
I1
sVddbed69
p2502
I1
sVdt84nee
p2503
I1
sVd06ed90
p2504
I1
sVd0f2e8x
p2505
I1
sVde9o470
p2506
I1
sVd2hvk2d
p2507
I1
sVdo1h8yk
p2508
I1
sVdpa924z
p2509
I1
sVd4g0cbz
p2510
I1
sVd9hslur
p2511
I1
sVd9o1x9t
p2512
I1
sVded794h
p2513
I1
sVd7xn26i
p2514
I1
sVcymjlh2
p2515
I1
sVda52pus
p2516
I1
sVd6wt6lx
p2517
I1
sVdfjpgti
p2518
I1
sVdbf15c0
p2519
I1
sVdbn94eo
p2520
I1
sVde0efzn
p2521
I1
sVdnka8fi
p2522
I1
sVdihey38
p2523
I1
sVdb5bupr
p2524
I1
sVdka9k78
p2525
I1
sVds32on9
p2526
I1
sVczhz9iz
p2527
I1
sVd5w8d8u
p2528
I1
sVdapzcbt
p2529
I1
sVdo4zssv
p2530
I1
sVdb5e0iz
p2531
I1
sVd2qa5cp
p2532
I1
sVdc6n6ce
p2533
I1
sVdhn6xh0
p2534
I1
sVdizezc2
p2535
I1
sVcyqsvvb
p2536
I1
sVdkmaxux
p2537
I1
sVde2essb
p2538
I1
sVd48cob7
p2539
I1
sVdea4mce
p2540
I1
sVdnj406w
p2541
I1
sVdi9xf4p
p2542
I1
sVd715qxe
p2543
I1
sVdsv9vvx
p2544
I2
sVdivxomv
p2545
I1
sVd8tpajd
p2546
I1
sVd6fiprt
p2547
I1
sVddwjban
p2548
I1
sVczf2l2r
p2549
I1
sVd52mhz2
p2550
I1
sVd01n385
p2551
I1
sVdefg6eo
p2552
I1
sVd44h45m
p2553
I1
sVd01zbpd
p2554
I1
sVd7rrb3n
p2555
I1
sVdk49q24
p2556
I1
sVdogjmbi
p2557
I1
sVd0t8orw
p2558
I1
sVd0jbjqk
p2559
I1
sVdb4qx7y
p2560
I1
sVdepspm6
p2561
I1
sVd44cxlx
p2562
I1
sVd5dzrvm
p2563
I1
sVdfiupqb
p2564
I1
sVdnu15lo
p2565
I1
sVdp0ktzv
p2566
I2
sVd47sn0l
p2567
I1
sVde66umf
p2568
I3
sVdpoixif
p2569
I1
sVdpmfzeq
p2570
I1
sVdi4vfey
p2571
I1
sVd0km0dy
p2572
I1
sVdk0txxm
p2573
I1
sVd1bwvg7
p2574
I1
sVdburgmf
p2575
I2
sVd6ip3g1
p2576
I1
sVdjvgf49
p2577
I1
sVdi9ygy6
p2578
I1
sVd38eck2
p2579
I1
sVdi088ah
p2580
I1
sVdgka18u
p2581
I1
sVdhats67
p2582
I1
sVd5h57r1
p2583
I1
sVd0gucjw
p2584
I1
sVdt5mziw
p2585
I1
sVd457gbq
p2586
I2
sVddbmtw3
p2587
I1
sVd7e9ep8
p2588
I2
sVd5zmnbe
p2589
I1
sVdrvhsyj
p2590
I1
sVdceak0m
p2591
I1
sVd1hnp46
p2592
I1
sVd2emgkp
p2593
I1
sVd0lpgc3
p2594
I1
sVdcsemzf
p2595
I1
sVd1p00nz
p2596
I2
sVd0rifkj
p2597
I1
sVd7hbdh0
p2598
I1
sVcyrq48o
p2599
I1
sVdg0zads
p2600
I1
sVds296r2
p2601
I1
sVdrk520q
p2602
I1
sVdabexrq
p2603
I1
sVd455ry0
p2604
I1
sVd9wyz4c
p2605
I1
sVdc5h28w
p2606
I1
sVdatyrhg
p2607
I1
sVd06lkuf
p2608
I1
sVdb3q1l5
p2609
I1
sVd58hkt1
p2610
I1
sVd7yykcu
p2611
I1
sVd3zvsi6
p2612
I1
sVd01xfha
p2613
I1
sVd0qtzu0
p2614
I1
sVdf348x9
p2615
I1
sVdcmgbef
p2616
I1
sVdje4n9y
p2617
I1
sVdn812n5
p2618
I1
sVd80qo50
p2619
I1
sVdn83r9x
p2620
I1
sVcz76wwf
p2621
I1
sVdsaaf4p
p2622
I1
sVd9mm9xx
p2623
I1
sVdi7xtk0
p2624
I1
sVdf51mxm
p2625
I1
sVd2paqem
p2626
I1
sVdjg7c6r
p2627
I1
sVd1c2b3m
p2628
I1
sVdjboyer
p2629
I1
sVdbuevdr
p2630
I1
sVd2lii8v
p2631
I1
sVdr6j51q
p2632
I1
sVdoey0bt
p2633
I1
sVdbfb0so
p2634
I1
sVd3nbvnl
p2635
I1
sVczlqpv3
p2636
I1
sVd423emh
p2637
I1
sVdnboskh
p2638
I1
sVd3y86qo
p2639
I1
sVdfk55el
p2640
I1
sVd1k2oi4
p2641
I1
sVd578ty6
p2642
I1
sVdft9mo9
p2643
I1
sVdhh1h75
p2644
I1
sVdgb36ba
p2645
I1
sVdh8bu4t
p2646
I1
sVd6qgzoc
p2647
I1
sVddcofgk
p2648
I1
sVdb7vf33
p2649
I1
sVdb1gbg3
p2650
I1
sVd0a6ty9
p2651
I1
sVddza5tq
p2652
I1
sVdjgmk1l
p2653
I1
sVd5bgelv
p2654
I3
sVdk9hkvt
p2655
I1
sVd6n1ikf
p2656
I2
sVd36k9tu
p2657
I1
sVd70ypii
p2658
I1
sVdddv7pv
p2659
I1
sVdje07c3
p2660
I1
sVd5zdwm5
p2661
I1
sVdaodryc
p2662
I1
sVdhvu6oa
p2663
I1
sVdstc77u
p2664
I2
sVcz94c41
p2665
I1
sVdt7efo5
p2666
I1
sVd15g7wv
p2667
I1
sVd3bkg90
p2668
I2
sVd6syacv
p2669
I1
sVdin5i0o
p2670
I1
sVdctb8xi
p2671
I1
sVdbxgb0q
p2672
I1
sVdt3vsc6
p2673
I1
sVdbqwq6q
p2674
I1
sVd72f726
p2675
I1
sVd6l1jk3
p2676
I1
sVdc6ixmg
p2677
I1
sVd2casgt
p2678
I1
sVdd3ifel
p2679
I1
sVdf4xhxa
p2680
I1
sVdptqp5i
p2681
I1
sVd8w4fop
p2682
I1
sVde0a739
p2683
I1
sVdehuvyo
p2684
I1
sVdiqvian
p2685
I1
sVdps0m9w
p2686
I1
sVczlc4zq
p2687
I1
sVd9zrd8x
p2688
I2
sVd9cw5zr
p2689
I1
sVdalqr1j
p2690
I1
sVdj2hif1
p2691
I1
sVdd0kc49
p2692
I1
sVd5f5vp4
p2693
I1
sVdh009cf
p2694
I2
sVd70kw7q
p2695
I1
sVczudoxz
p2696
I1
sVdip6ot9
p2697
I1
sVdr9hxlu
p2698
I1
sVd5gpemr
p2699
I1
sVd46dolw
p2700
I1
sVda01v44
p2701
I1
sVd8bkt7r
p2702
I1
sVd82u9lq
p2703
I1
sVdbsfmcg
p2704
I2
sVd8osbw7
p2705
I1
sVd71558j
p2706
I1
sVdkevzjo
p2707
I1
sVd393999
p2708
I2
sVdeyxgfv
p2709
I1
sVdg54h9v
p2710
I2
sVczbdtxk
p2711
I1
sVdehaoco
p2712
I1
sVdoczpjt
p2713
I1
sVd70ny5h
p2714
I1
sVd8sc7aj
p2715
I1
sVdn74h9n
p2716
I1
sVddqw8cu
p2717
I1
sVdgyjr26
p2718
I1
sVd0d7h3w
p2719
I1
sVd8o681r
p2720
I4
sVd2g3u06
p2721
I1
sVdfynviq
p2722
I1
sVddftjke
p2723
I1
sVd9fmyhy
p2724
I1
sVd58elel
p2725
I1
sVczem8s7
p2726
I1
sVdfq3wn3
p2727
I1
sVdb3l2vz
p2728
I1
sVd53im9b
p2729
I1
sVdhjh4ry
p2730
I1
sVd1lmqku
p2731
I1
sVdeizu5u
p2732
I1
sVdrnsff2
p2733
I1
sVcz03rfl
p2734
I1
sVd33q3ej
p2735
I2
sVdhge7hf
p2736
I1
sVd6orldk
p2737
I1
sVd6ftn9z
p2738
I1
sVd03akmv
p2739
I1
sVdmshvbe
p2740
I1
sVddv2bfx
p2741
I1
sVcz0lqiv
p2742
I1
sVdsnz8xi
p2743
I1
sVdrq5n1c
p2744
I1
sVd6xzfju
p2745
I1
sVdmrzepz
p2746
I1
sVdd8w4mi
p2747
I1
sVd6hdjpc
p2748
I1
sVd3qy0ij
p2749
I1
sVdd8m1fq
p2750
I2
sVdcbia09
p2751
I1
sVd1i2c1b
p2752
I1
sVd2qvg46
p2753
I1
sVd512o5c
p2754
I1
sVdat4ifd
p2755
I1
sVd82rme5
p2756
I1
sVdqxfnbd
p2757
I1
sVdrthib7
p2758
I1
sVd2tecap
p2759
I1
sVd93ksv9
p2760
I3
sVdh67tvl
p2761
I1
sVd3blehx
p2762
I2
sVd1zsln8
p2763
I1
sVd0ylqor
p2764
I1
sVd3cdusr
p2765
I1
sVd0z4v7n
p2766
I1
sVdih7dri
p2767
I2
sVdpp6tgy
p2768
I1
sVddk7btt
p2769
I1
sVdf0w6xn
p2770
I1
sVdb63e1a
p2771
I1
sVdfwgxtt
p2772
I1
sVdpm10xf
p2773
I1
sVd0rsgub
p2774
I1
sVdg7ana3
p2775
I1
sVd8p5r7h
p2776
I1
sVdidiaye
p2777
I1
sVcyq3z6i
p2778
I1
sVdkqyn5b
p2779
I1
sVd03ko2z
p2780
I1
sVd0l11ga
p2781
I1
sVdd49ryp
p2782
I1
sVd33bcqf
p2783
I1
sVdg72y6b
p2784
I1
sVd2cg93o
p2785
I1
sVcz096ep
p2786
I1
sVdqcu8jg
p2787
I1
sVdajhw7f
p2788
I1
sVd86zukk
p2789
I1
sVds1e672
p2790
I1
sVczk8p7x
p2791
I1
sVd1e66t0
p2792
I1
sVd6vov9a
p2793
I1
sVd2qaunl
p2794
I1
sVdh8w8l2
p2795
I1
sVcytewxr
p2796
I1
sVd2zhyfj
p2797
I1
sVdbtr14i
p2798
I1
sVd26npsk
p2799
I1
sVd95fawk
p2800
I1
sVdt4qtlz
p2801
I1
sVd48iur8
p2802
I1
sVd82dek9
p2803
I2
sVcz0hgdp
p2804
I1
sVdghe13e
p2805
I1
sVdsz055g
p2806
I1
sVdf2f3qs
p2807
I1
sVdhn3b9z
p2808
I1
sVd1l63j4
p2809
I1
sVdkqpr5n
p2810
I1
sVd6njlx0
p2811
I1
sVdq5k5l7
p2812
I1
sVcyzz68e
p2813
I1
sVdnxkbc5
p2814
I1
sVd0zdhtr
p2815
I1
sVdhxzh6k
p2816
I1
sVd9z37ay
p2817
I1
sVdjohr3h
p2818
I1
sVdr4i1br
p2819
I1
sVd20i0fu
p2820
I1
sVd7ucq3n
p2821
I1
sVde2ezco
p2822
I1
sVd8cvwd6
p2823
I1
sVd5xshib
p2824
I1
sVdg934jy
p2825
I1
sVdn4nxy6
p2826
I1
sVd4qhrsm
p2827
I1
sVd8n43pd
p2828
I1
sVdij6743
p2829
I1
sVdcd7amv
p2830
I1
sVd7c2m1h
p2831
I1
sVd8s0ye0
p2832
I1
sVddxgj90
p2833
I1
sVd6wo7ll
p2834
I1
sVdemdmxj
p2835
I1
sVdnkxwk3
p2836
I1
sVd7sm9lo
p2837
I1
sVdf527si
p2838
I1
sVdmtbfze
p2839
I1
sVd6sdsi3
p2840
I1
sVd7rgf4e
p2841
I1
sVczn77mx
p2842
I1
sVd74sx2s
p2843
I1
sVdqgmnpn
p2844
I1
sVdcw2f90
p2845
I1
sVcz95gn0
p2846
I1
sVd5c7je0
p2847
I2
sVd7gmelr
p2848
I2
sVdagkm7s
p2849
I1
sVd4j64ar
p2850
I1
sVddos16y
p2851
I1
sVd9hpqas
p2852
I1
sVd5g8ydx
p2853
I1
sVdeqwugt
p2854
I1
sVcyvpidb
p2855
I1
sVdk7tvva
p2856
I1
sVd8g5mad
p2857
I1
sVdk4gojo
p2858
I1
sVdc1gb0f
p2859
I1
sVd66obio
p2860
I1
sVdovyce2
p2861
I1
sVdi617ec
p2862
I1
sVcz1no3n
p2863
I1
sVdp64dk4
p2864
I1
sVd1olxe6
p2865
I2
sVcyqva43
p2866
I1
sVdrkl67e
p2867
I1
sVdd3a8ne
p2868
I1
sVddf22ax
p2869
I1
sVd01lh8u
p2870
I1
sVdpcwe19
p2871
I1
sVdmv37ky
p2872
I1
sVd6bybt4
p2873
I1
sVdaquxcu
p2874
I1
sVcz2n2mj
p2875
I1
sVdpy09yq
p2876
I1
sVd1xku9w
p2877
I1
sVdmxuhnw
p2878
I1
sVd73qy7y
p2879
I2
sVd8dzaoa
p2880
I1
sVdqa86k7
p2881
I1
sVd4plix8
p2882
I2
sVdpy7rb0
p2883
I1
sVdh3jf6f
p2884
I1
sVdgpyrp1
p2885
I1
sVd7cwpcv
p2886
I1
sVdr3fho4
p2887
I1
sVdamh1tv
p2888
I1
sVdforhsz
p2889
I1
sVcywxfpr
p2890
I1
sVd3o8szy
p2891
I1
sVder4h45
p2892
I1
sVd23pulc
p2893
I1
sVdo3nfkb
p2894
I1
sVczkxy7z
p2895
I2
sVczo1jgf
p2896
I1
sVde5rrm0
p2897
I1
sVdnuu8kz
p2898
I1
sVd9a5hwm
p2899
I1
sVdhjt606
p2900
I2
sVd8j75b4
p2901
I1
sVd2r3qo3
p2902
I1
sVcznghmx
p2903
I1
sVdeipe0s
p2904
I2
sVdava4su
p2905
I1
sVd1sdb0s
p2906
I1
sVd1rqbua
p2907
I1
sVd7u0ev6
p2908
I1
sVdokvdd9
p2909
I1
sVdfvz0z5
p2910
I1
sVd1d4yy3
p2911
I1
sVdct5cyq
p2912
I1
sVd94kr93
p2913
I1
sVdemihf4
p2914
I1
sVd6wfb18
p2915
I1
sVdc33er9
p2916
I1
sVczx358c
p2917
I1
sVdo4z2k2
p2918
I1
sVdqavyhx
p2919
I1
sVdn38uj6
p2920
I1
sVdrsc8fv
p2921
I1
sVdcu54vg
p2922
I1
sVd2szeck
p2923
I1
sVd5omek7
p2924
I1
sVd8b8qts
p2925
I1
sVde0k0jo
p2926
I2
sVdmg77en
p2927
I1
sVdfxivla
p2928
I1
sVczui0nh
p2929
I1
sVd01ozuf
p2930
I1
sVd8obfxa
p2931
I1
sVd7x76au
p2932
I1
sVd1lu46e
p2933
I1
sVd07ewcp
p2934
I1
sVdmerf1m
p2935
I2
sVdema0jx
p2936
I2
sVds5lvb8
p2937
I1
sVd6rchwi
p2938
I1
sVd13znb5
p2939
I1
sVd29i6s5
p2940
I1
sVdd3f1qt
p2941
I1
sVd7uc1vi
p2942
I1
sVdjq75g5
p2943
I1
sVd7jx9iy
p2944
I1
sVd7uaoy1
p2945
I1
sVd73f8zg
p2946
I1
sVdho9ofo
p2947
I1
sVdrfdk50
p2948
I1
sVdmy2kmk
p2949
I1
sVdqhluul
p2950
I1
sVd53ar1y
p2951
I1
sVdc2lth1
p2952
I1
sVdjdrcar
p2953
I1
sVd16sfp8
p2954
I1
sVd6kt5du
p2955
I1
sVd22oq1m
p2956
I1
sVds2w02w
p2957
I1
sVd8r4osq
p2958
I1
sVczxeyc4
p2959
I1
sVddc37gl
p2960
I1
sVd7x6rfv
p2961
I1
sVdf5w5jq
p2962
I1
sVddlspa0
p2963
I1
sVdmi801t
p2964
I1
sVdc7muop
p2965
I1
sVd2vdrbw
p2966
I1
sVd77f2gm
p2967
I1
sVd26if01
p2968
I1
sVddwj10a
p2969
I1
sVdiyneio
p2970
I1
sVdksveno
p2971
I2
sVdky2xw4
p2972
I1
sVd10dw7l
p2973
I1
sVdbmfjpg
p2974
I1
sVdd4mbo7
p2975
I1
sVdgeftvb
p2976
I1
sVdfkcco0
p2977
I1
sVd5esdzf
p2978
I1
sVdi307jp
p2979
I1
sVda0zqc4
p2980
I1
sVd3u879z
p2981
I1
sVcyo3cmo
p2982
I1
sVd20s0jg
p2983
I1
sVdq15j8x
p2984
I1
sVdk0sn38
p2985
I1
sVd62pak1
p2986
I1
sVdog9asn
p2987
I1
sVd6aphrp
p2988
I1
sVd37kd62
p2989
I1
sVdfa0c0r
p2990
I1
sVdaqq16n
p2991
I2
sVd5xd4rr
p2992
I1
sVdab6iek
p2993
I1
sVd0h55p7
p2994
I1
sVdrrwhua
p2995
I1
sVdgdl0w9
p2996
I1
sVd3aqpvj
p2997
I1
sVd0epoel
p2998
I1
sVdek1ohl
p2999
I1
sVdke4ezw
p3000
I1
sVd29bh2i
p3001
I1
sVd6si1ne
p3002
I1
sVczcjatb
p3003
I1
sVd7bodhw
p3004
I1
sVdt71v9u
p3005
I1
sVdrnccjg
p3006
I1
sVd6xl47d
p3007
I1
sVd514wc8
p3008
I1
sVd69wv29
p3009
I1
sVdkjg8bm
p3010
I1
sVd8hk2m0
p3011
I1
sVdgk5jqg
p3012
I1
sVdcev5co
p3013
I1
sVdd5lyrz
p3014
I1
sVczbatpg
p3015
I1
sVdegss2h
p3016
I1
sVdoct9q3
p3017
I1
sVddwe7iv
p3018
I1
sVddy5vvy
p3019
I1
sVddvnp7m
p3020
I1
sVdbpxtds
p3021
I1
sVdsid5fu
p3022
I1
sVdh0ejvx
p3023
I1
sVdaanl2e
p3024
I1
sVd6sf7ie
p3025
I1
sVdi8blv3
p3026
I1
sVdn12fd9
p3027
I2
sVdbslqjk
p3028
I1
sVdbt5vms
p3029
I1
sVczmz6ma
p3030
I1
sVdt59390
p3031
I1
sVczqi9zc
p3032
I1
sVd7gec48
p3033
I1
sVd5o5a6o
p3034
I1
sVdh99yw4
p3035
I1
sVd0iu4cm
p3036
I1
sVdhbuthd
p3037
I1
sVdpw2hs4
p3038
I1
sVdnod8ee
p3039
I2
sVd6une0r
p3040
I2
s.