(dp0
Vdimei05
p1
I1
sVdimek7w
p2
I3
sVdmwmjen
p3
I1
sVdao78a5
p4
I1
sVdg8pfxy
p5
I1
sVdsu39bt
p6
I1
sVdmnkab8
p7
I1
sVczjqfux
p8
I1
sVde2g8ca
p9
I2
sVczk0kyf
p10
I1
sVdahwidl
p11
I1
sVd2hqh21
p12
I1
sVd19kmzl
p13
I1
sVd8my0lh
p14
I1
sVdau755r
p15
I1
sVczjza6v
p16
I1
sVd51fbwh
p17
I1
sVd0l0r4b
p18
I1
sVdftx09t
p19
I2
sVdni6di6
p20
I1
sVd0zi3vv
p21
I2
sVdhujuho
p22
I1
sVdqfmg83
p23
I1
sVdbii1p4
p24
I1
sVd51amoq
p25
I1
sVdis1qfo
p26
I1
sVdg9pbv5
p27
I1
sVczjouhr
p28
I1
sVdjoslp6
p29
I1
sVdbij4wd
p30
I3
sVdkmo3ml
p31
I1
sVdqt4o42
p32
I1
sVcyo9lxe
p33
I2
sVd3kr7rb
p34
I1
sVde2zltz
p35
I1
sVd1n6bym
p36
I2
sVdogbn0u
p37
I1
sVczjxnqy
p38
I3
sVdiddlwb
p39
I1
sVdfj41nx
p40
I1
sVdjnfn29
p41
I1
sVdacuaov
p42
I1
sVd1rufb2
p43
I2
sVdj6igdw
p44
I1
sVdfuvu0a
p45
I1
sVdbiixxq
p46
I1
sVdrt9xbx
p47
I3
sVd39t5td
p48
I1
sVd400q0z
p49
I1
sVczjrp58
p50
I1
sVdmfyg3n
p51
I1
sVd55r0z1
p52
I1
sVddsexk3
p53
I1
sVd3ep4vr
p54
I1
sVczjuo71
p55
I1
sVdt12vne
p56
I1
sVd39u7wu
p57
I1
s.