(dp0
Vczhrvgo
p1
I1
sVdfjgozb
p2
I1
sVdbk3ftm
p3
I1
sVdck5fmp
p4
I1
sVd2tozvr
p5
I1
sVcyi6jcj
p6
I1
sVczkudwc
p7
I2
sVczwubch
p8
I1
sVdokcht2
p9
I1
sVd0gsn26
p10
I1
sVdhrydjx
p11
I1
sVdjzq0c8
p12
I1
sVdofp0gj
p13
I1
sVd3oudh4
p14
I1
s.