(dp0
Vd3weyh0
p1
I1
sVd3akrr1
p2
I1
sVddaxcqu
p3
I2
sVdsgts13
p4
I1
sVdio4w3m
p5
I2
sVdp4mfhi
p6
I3
sVdp0k5hn
p7
I1
sVczplcfg
p8
I1
sVd1az9nq
p9
I1
sVdax2kgq
p10
I1
sVdaooq2c
p11
I1
sVcyxfyvi
p12
I1
sVczjpcov
p13
I1
sVdbkdse9
p14
I1
sVd098z5x
p15
I1
sVd9o4r28
p16
I1
sVd3doa6d
p17
I1
sVd2mz1wo
p18
I1
sVd6mm2gc
p19
I1
sVdg3r2ri
p20
I3
sVdndett9
p21
I1
sVda3klb6
p22
I1
sVcyll5yp
p23
I1
sVd58cr4g
p24
I1
sVd5ostxb
p25
I2
sVd8sy9i3
p26
I2
sVd5u5zos
p27
I1
sVddtylim
p28
I1
sVdrw14jo
p29
I2
sVds6d8v0
p30
I1
sVdd2cv2o
p31
I1
sVd7vzlrp
p32
I2
sVd02gi3r
p33
I1
sVd6ko6ey
p34
I2
sVd68o9vr
p35
I3
sVd0c0avv
p36
I1
sVd7n9w6k
p37
I1
sVd4xdlio
p38
I1
sVdpvg75x
p39
I1
sVcz3rw32
p40
I1
sVd2n3se9
p41
I1
sVdefu8gb
p42
I1
sVdgvx30i
p43
I1
sVdbpzwe5
p44
I1
sVdn3gyeb
p45
I2
sVd5vtctw
p46
I1
sVdbw1ro0
p47
I1
sVd8f3ogq
p48
I1
sVd717sfu
p49
I1
sVcyzyenb
p50
I2
sVd0ncb5i
p51
I1
sVdmq9va1
p52
I1
sVd6u3wiz
p53
I2
sVdmrrz1r
p54
I7
sVd32zyt9
p55
I1
sVddwo1kk
p56
I1
sVdk37f2r
p57
I1
sVd6m46c6
p58
I2
sVdd0dkcf
p59
I1
sVdfhm01v
p60
I1
sVdalhqrg
p61
I1
sVd00srmb
p62
I1
sVdq99oqw
p63
I1
sVd40hs3s
p64
I1
sVdg87vqm
p65
I1
sVd2e55sz
p66
I1
sVdcdldwe
p67
I1
sVda183j0
p68
I3
sVdml2wb1
p69
I4
sVdnlee8m
p70
I1
sVdgpa0lt
p71
I1
sVdqgyol9
p72
I1
sVdqr1lek
p73
I1
sVd6w5es7
p74
I1
sVd9ct6fv
p75
I1
sVdrvjttr
p76
I1
sVdiupxyo
p77
I3
sVdizx3my
p78
I1
sVd084ucd
p79
I1
sVdit4e52
p80
I1
sVdiresmv
p81
I1
sVdh5uo7g
p82
I1
sVd4tn6g6
p83
I1
sVczk8cul
p84
I2
sVd1d7ndz
p85
I1
sVd47o650
p86
I1
sVdmrfd90
p87
I1
sVdtbw8ao
p88
I2
sVd5fvin5
p89
I1
sVd9truj2
p90
I1
sVdq7ycyx
p91
I1
sVdjxzsrm
p92
I1
sVd5v0epo
p93
I1
sVdkxtoq2
p94
I1
sVdtgihpb
p95
I2
sVd2o4ubo
p96
I1
sVd0941kj
p97
I1
sVd7u8u8v
p98
I1
sVdrmupdq
p99
I1
sVdad28bw
p100
I1
sVczds0ft
p101
I1
sVdaxmi55
p102
I1
sVdeqfuky
p103
I1
sVd9uqa1a
p104
I1
sVdk9fg3k
p105
I2
sVd6xer6q
p106
I1
sVdel4n7e
p107
I1
sVdpc05uw
p108
I1
sVd1cpgdl
p109
I1
sVd8ku8wy
p110
I1
sVd9zttjn
p111
I1
sVdaqkbxo
p112
I1
sVdncfb69
p113
I1
sVdhcx7pj
p114
I1
sVd0u38s1
p115
I1
sVd75k21r
p116
I2
sVd99lwd5
p117
I1
sVcylkli7
p118
I1
sVcz6lmay
p119
I1
sVd6bg137
p120
I1
sVd2u9ruj
p121
I6
sVd139wyw
p122
I1
sVczblbs4
p123
I1
sVd1dc2mp
p124
I1
sVdj5n7tp
p125
I1
sVd1681bi
p126
I1
sVdrwokpw
p127
I1
sVd78amh7
p128
I1
sVd4h4iwk
p129
I2
sVd90ms4y
p130
I1
sVdiizu4b
p131
I2
sVczktypc
p132
I1
sVdedizz6
p133
I1
sVdrlj726
p134
I1
sVdf72j5g
p135
I1
sVd3zu6vg
p136
I1
sVd0rdoah
p137
I1
sVd7mwrzy
p138
I2
sVd79cz34
p139
I1
sVd9ubv5x
p140
I1
sVdqoprgv
p141
I1
sVddyjdwr
p142
I1
sVds0ghbt
p143
I1
sVcymzar5
p144
I4
sVd3q4qcs
p145
I1
sVdg4lgod
p146
I2
sVd84iwca
p147
I1
sVd3h3pt3
p148
I1
sVd7y48p2
p149
I1
sVdazsht1
p150
I1
sVd1bd6yc
p151
I1
sVcysd0y6
p152
I4
sVd2v1yvl
p153
I1
sVczsgak4
p154
I1
sVczl0tx3
p155
I1
sVd9ob7hh
p156
I1
sVd3zxlzf
p157
I1
sVd3sn1gf
p158
I1
sVd1p4w3y
p159
I4
sVdksl152
p160
I1
sVd6cs7vh
p161
I2
sVd969jjb
p162
I1
sVd0km5ra
p163
I1
sVd0t8ahk
p164
I1
sVdca8gos
p165
I1
sVd9a75hf
p166
I1
sVdiiipmv
p167
I1
sVd4f9dvm
p168
I1
sVd0pw6uu
p169
I1
sVded15j5
p170
I2
sVda898ds
p171
I1
sVdmnv1ob
p172
I1
sVdtatryk
p173
I1
sVdg2nbar
p174
I1
sVdoroklp
p175
I1
sVd1d4ejh
p176
I1
sVdj0b6c0
p177
I1
sVd4znel3
p178
I1
sVds2vxsb
p179
I1
sVd28elog
p180
I1
sVczuzg3j
p181
I1
sVdmulpam
p182
I1
sVdpbqdxv
p183
I1
sVczni0rx
p184
I1
sVd9aqf1p
p185
I1
sVdh5rm7t
p186
I3
sVd9c64v8
p187
I1
sVd9d0m93
p188
I1
sVdojekas
p189
I2
sVd055mjc
p190
I1
sVdkrdmgf
p191
I1
sVdkp05os
p192
I1
sVddyjoos
p193
I1
sVdjvb9n2
p194
I1
sVd5wfeyu
p195
I2
sVdccg7uu
p196
I1
sVdszmm44
p197
I1
sVd66mb0q
p198
I1
sVdbkguaa
p199
I1
sVddmj11j
p200
I1
sVd0nwii5
p201
I3
sVd7xx267
p202
I1
sVdb0fy7s
p203
I1
sVd0h0lvl
p204
I1
sVdcviv12
p205
I1
sVdp6g2u2
p206
I3
sVcypke92
p207
I1
sVd3jng7g
p208
I1
sVd7q57n6
p209
I1
sVd9vm9oh
p210
I1
sVd4vyx1w
p211
I1
sVdh11gxo
p212
I1
sVd0qxwg4
p213
I1
sVdez3d9i
p214
I1
sVdfijsn9
p215
I1
sVdhm311t
p216
I1
sVdepp5o6
p217
I1
sVdabdbqc
p218
I1
sVd3zlsvn
p219
I2
sVd38kd8q
p220
I1
sVd8lf7p2
p221
I1
sVdeunxqe
p222
I2
sVdsonle5
p223
I1
sVdd0tafe
p224
I1
sVcytw76v
p225
I1
sVd718e5r
p226
I1
sVdkq4s8t
p227
I1
sVdq6g1wm
p228
I1
sVdhcutyp
p229
I1
sVd62a3fs
p230
I1
sVcyxwcyk
p231
I1
sVcz2pso7
p232
I1
sVd7h5l3u
p233
I1
sVd0upnxr
p234
I1
sVd1q0rze
p235
I1
sVdbdi9r7
p236
I1
sVddfqnyc
p237
I1
sVd5q9k7i
p238
I2
sVdtick2r
p239
I1
sVd04v7pg
p240
I1
sVd1hxn8g
p241
I1
sVdj3otfv
p242
I1
sVd5j1eee
p243
I1
sVd7je5io
p244
I1
sVcyrmjo8
p245
I1
sVdh5aal5
p246
I1
sVdau440w
p247
I2
sVd2a8im5
p248
I1
sVd5aug4s
p249
I1
sVdgq8ccy
p250
I1
sVdeq15wv
p251
I3
sVdb901kw
p252
I1
sVdcxqp1n
p253
I1
sVcyzabjw
p254
I1
sVdjgabk2
p255
I1
sVd0bdz63
p256
I1
sVczbapnr
p257
I3
sVd7mz7dz
p258
I1
sVd1yx022
p259
I1
sVd337dfl
p260
I1
sVdmv8c0l
p261
I1
sVczro1tm
p262
I1
sVd5haoqs
p263
I1
sVdq5d3ny
p264
I1
sVcysv93j
p265
I1
sVd1otx9e
p266
I1
sVd2vsoxc
p267
I1
sVdio55te
p268
I1
sVd4latpt
p269
I1
sVdezo89r
p270
I2
sVd9vo0co
p271
I1
sVdq4jt1a
p272
I1
sVdnl49w6
p273
I1
sVdjkf4fc
p274
I1
sVcytqy2u
p275
I1
sVddntxn8
p276
I1
sVczhtepf
p277
I1
sVdilh0p7
p278
I1
sVdrhslvt
p279
I1
sVczn10a0
p280
I1
sVcymw92u
p281
I1
sVdkqu3sq
p282
I1
sVd25ncj3
p283
I3
sVd4bi6v6
p284
I2
sVdg90fmy
p285
I1
sVd7wkef0
p286
I1
sVdqqmc9s
p287
I1
sVcypk90p
p288
I1
sVczq0nba
p289
I1
sVcysutgx
p290
I1
sVd2gkxzr
p291
I1
sVdkw2fl5
p292
I1
sVd0cjwff
p293
I2
sVdkeh6wd
p294
I1
sVdbc892g
p295
I1
sVdtitv6g
p296
I1
sVd31maj5
p297
I1
sVdbxaah1
p298
I1
sVdra6toh
p299
I2
sVd8p8x9x
p300
I1
sVd38z7rw
p301
I1
sVdbytl4h
p302
I1
sVdti8tu1
p303
I1
sVdbffu87
p304
I1
sVdily75y
p305
I1
sVczb4ryk
p306
I1
sVdogd0wg
p307
I1
sVd7jfczp
p308
I2
sVczawmp6
p309
I1
sVdb5jblk
p310
I1
sVdmkfn9y
p311
I1
sVdg2ehzq
p312
I1
sVd8enrlh
p313
I1
sVdinhk3a
p314
I1
sVd9c2etw
p315
I1
sVdsf6va9
p316
I1
sVd4zc4nm
p317
I1
sVdf3zw36
p318
I1
sVczmddwp
p319
I1
sVdkr87xn
p320
I1
sVd6l0ru6
p321
I1
sVddkh442
p322
I1
sVd6buy9e
p323
I2
sVdaj97mt
p324
I1
sVcz8p0tx
p325
I1
sVd9knhhq
p326
I1
sVdc3y09p
p327
I1
sVd5vmrh6
p328
I1
sVd7ccwf4
p329
I1
sVdgnvt91
p330
I1
sVdaswoh7
p331
I1
sVd7ul4nh
p332
I1
sVdbnypp8
p333
I2
sVdhzjq55
p334
I1
sVdqjykob
p335
I1
sVdir3muo
p336
I1
sVd0belim
p337
I1
sVdk2ye3e
p338
I1
sVdhotwzt
p339
I2
sVdj05zxk
p340
I1
sVd6fyijy
p341
I1
sVdat5j1a
p342
I2
sVdb03hjn
p343
I1
sVdep2jn1
p344
I1
sVdrhzo87
p345
I1
sVdjts0dm
p346
I1
sVddjchx2
p347
I1
sVdpwntx2
p348
I2
sVd0c1zf5
p349
I1
sVdoe50c6
p350
I2
sVddzoh2v
p351
I1
sVcze9gav
p352
I1
sVd8ggseq
p353
I2
sVd3f9em6
p354
I1
sVd8j132c
p355
I1
sVdjbqi8p
p356
I1
sVdgsbxjs
p357
I2
sVd97ie08
p358
I1
sVcz6ant2
p359
I1
sVdg8xkaq
p360
I2
sVd798uya
p361
I2
sVd5dswtk
p362
I2
sVdal6em6
p363
I1
sVdq40fah
p364
I1
sVdp098qw
p365
I1
sVdrtltc8
p366
I1
sVd3xiaj0
p367
I1
sVd8sowmu
p368
I1
sVd1w86da
p369
I1
sVdhqltv1
p370
I1
sVd6zqf13
p371
I1
sVd3pphvx
p372
I1
sVdjadisr
p373
I2
sVdnayzsn
p374
I1
sVd7yimzr
p375
I1
sVdrduh70
p376
I1
sVczwr3wq
p377
I2
sVdin6l09
p378
I3
sVddi11vt
p379
I1
sVdakfve7
p380
I1
sVd38vpn2
p381
I1
sVdjw89c1
p382
I1
sVdgzxpa3
p383
I1
sVd407psm
p384
I1
sVd2wij9v
p385
I1
sVczskjjc
p386
I1
sVdfldmji
p387
I1
sVd3mxzl9
p388
I1
sVdhppiz1
p389
I3
sVdc2sh2p
p390
I1
sVdioy7d9
p391
I1
sVd37m360
p392
I1
sVd0tl8of
p393
I1
sVdk5nf0j
p394
I1
sVdpu2pk7
p395
I1
sVdqhwjy2
p396
I1
sVcyndvdh
p397
I1
sVdih4oa5
p398
I1
sVdg27dje
p399
I1
sVd2o21yb
p400
I1
sVdivuo96
p401
I1
sVd2vaalc
p402
I1
sVdguqu8a
p403
I1
sVdbiktyp
p404
I1
sVdfhkldb
p405
I2
sVd49vz72
p406
I1
sVdksoqod
p407
I1
sVd3zxyq1
p408
I1
sVd1pptt4
p409
I1
sVdt858bw
p410
I1
sVd9qjv07
p411
I3
sVdc7us1e
p412
I1
sVdfnekzg
p413
I1
sVdc6bkw2
p414
I1
sVdmi31ty
p415
I1
sVdo2oh35
p416
I1
sVd3esios
p417
I1
sVdf5yypi
p418
I1
sVdc5ekhj
p419
I1
sVdpaqt9a
p420
I1
sVdcpj95j
p421
I1
sVd7krs4q
p422
I1
sVd5rtcxw
p423
I1
sVdr6cger
p424
I4
sVdmv91x6
p425
I1
sVd7c4pya
p426
I1
sVdj7qr1z
p427
I1
sVdjm8kd6
p428
I1
sVdngrcw8
p429
I1
sVdbx8rek
p430
I2
sVd7gn1hr
p431
I1
sVd4pnz9u
p432
I1
sVdov4c1y
p433
I1
sVd22mcsr
p434
I1
sVdflkl4i
p435
I1
sVd0frfif
p436
I1
sVdhcfotx
p437
I1
sVdd6g4zi
p438
I1
sVd4xzil4
p439
I1
sVdrm146t
p440
I2
sVdjxu22k
p441
I1
sVds9lw07
p442
I1
sVczta2un
p443
I1
sVde1ozc8
p444
I1
sVdj6x9jl
p445
I1
sVd27y9hy
p446
I1
sVd43baom
p447
I1
sVd0ptp50
p448
I4
sVdcse0bk
p449
I1
sVdkbqicv
p450
I1
sVd84k4jf
p451
I1
sVdj5aihe
p452
I1
sVdob4d84
p453
I3
sVd0vat5q
p454
I1
sVd8c16x8
p455
I1
sVd12j3b3
p456
I1
sVd0o2p7k
p457
I1
sVdkvjrh6
p458
I1
sVd5agotp
p459
I5
sVd373q4d
p460
I1
sVd8837k9
p461
I1
sVdenzumd
p462
I1
sVdoq4z5h
p463
I1
sVdd64tl7
p464
I1
sVdcuby96
p465
I1
sVdgtl5ep
p466
I1
sVd1fmc73
p467
I1
sVd0jyzq7
p468
I1
sVd9dk1t6
p469
I1
sVd0np4cw
p470
I1
sVdevl2fc
p471
I1
sVdkpzp9f
p472
I1
sVd57e7kl
p473
I1
sVdd48b4z
p474
I1
sVdhjq6a9
p475
I1
sVde4yp4d
p476
I4
sVdnh5z9v
p477
I1
sVd1n461t
p478
I1
sVd9vq368
p479
I1
sVdj6xmkm
p480
I1
sVdop00xc
p481
I1
sVd70o8vu
p482
I1
sVd94r2zs
p483
I1
sVd6z13o8
p484
I1
sVdshaprd
p485
I1
sVd1mm4ma
p486
I1
sVdad6jjg
p487
I1
sVdpgmw4l
p488
I1
sVdcjt15s
p489
I2
sVdcpaglm
p490
I1
sVd4xv8h3
p491
I1
sVd7lfezh
p492
I1
sVdoe7oh4
p493
I1
sVd6k30bw
p494
I1
sVd2siwu9
p495
I1
sVd28tjtz
p496
I1
sVddkfxj7
p497
I1
sVd3j4r3s
p498
I1
sVdevo3z3
p499
I1
sVdhw6u8g
p500
I1
sVdell1c9
p501
I3
sVd4ieujk
p502
I1
sVcznwlhk
p503
I1
sVdkkiaml
p504
I1
sVdju18zx
p505
I1
sVd1j7qnd
p506
I1
sVdacij84
p507
I1
sVd7cbato
p508
I1
sVdaf7aq8
p509
I1
sVdsf9npy
p510
I1
sVdjmp5n8
p511
I2
sVdco74l7
p512
I1
sVdpxrpj9
p513
I1
sVdenf7ip
p514
I1
sVd2dxtnh
p515
I1
sVd856mx9
p516
I1
sVd9sxeox
p517
I1
sVd0rzt34
p518
I1
sVdd5xw9m
p519
I3
sVdeqqbtn
p520
I1
sVddczqge
p521
I2
sVd7pnnnv
p522
I1
sVd3esu58
p523
I1
sVddyeko1
p524
I1
sVd2sli5i
p525
I1
sVdk7mwgj
p526
I1
sVdbygo64
p527
I2
sVczgk7vp
p528
I1
sVds34d97
p529
I1
sVd9xi261
p530
I1
sVdjwbfb8
p531
I1
sVdef1igf
p532
I1
sVd6vopxd
p533
I2
sVczqquif
p534
I1
sVd7zqnr5
p535
I1
sVd6culg7
p536
I1
sVd14u80k
p537
I1
sVd5dqxaz
p538
I1
sVd80p7wv
p539
I1
sVd1pht59
p540
I2
sVd7rxq1a
p541
I1
sVdnvvq56
p542
I1
sVd4zq9qp
p543
I1
sVd3u7uqf
p544
I1
sVdp213c1
p545
I1
sVdbpklql
p546
I1
sVdmnkab8
p547
I1
sVd4h3pmz
p548
I3
sVdav6i51
p549
I1
sVdbqrm4p
p550
I1
sVdfmkaor
p551
I1
sVd19a3xy
p552
I1
sVd4a3hab
p553
I1
sVd3n4xkr
p554
I3
sVdqpffrv
p555
I1
sVd9l6pw4
p556
I1
sVd7pnhj2
p557
I1
sVd5cbrkx
p558
I2
sVdclwq74
p559
I1
sVdb7vllc
p560
I1
sVd718ohy
p561
I3
sVdelch9m
p562
I1
sVd2887tk
p563
I1
sVd009gzg
p564
I2
sVdh3jqmj
p565
I1
sVdrqr4zf
p566
I2
sVd4twc3f
p567
I1
sVdhq2x6v
p568
I1
sVdim0tq0
p569
I2
sVdaorp17
p570
I1
sVd2vlxr2
p571
I1
sVdgm29pp
p572
I1
sVdd4jkc0
p573
I1
sVczha9qo
p574
I1
sVdcqrd1a
p575
I1
sVdprqezv
p576
I1
sVcz8ug6d
p577
I1
sVdcw7ix6
p578
I1
sVdb0n83g
p579
I1
sVd37tqkm
p580
I1
sVdourhya
p581
I1
sVdoszhkj
p582
I1
sVdevpkuw
p583
I1
sVdbm5f9h
p584
I1
sVdorvnra
p585
I1
sVde3jkx8
p586
I5
sVdgmuquh
p587
I1
sVd259rsi
p588
I3
sVd9g4uga
p589
I1
sVdd0vmjj
p590
I1
sVdosmrzr
p591
I1
sVdd54w9z
p592
I1
sVd3x242q
p593
I3
sVcz7jgq0
p594
I2
sVd8y2u8y
p595
I1
sVdf7w6b2
p596
I1
sVddrijms
p597
I1
sVdfmqydi
p598
I1
sVd5dsupr
p599
I1
sVd2kfv26
p600
I1
sVdr8kzbi
p601
I1
sVd05x5lt
p602
I1
sVd7bu8q1
p603
I1
sVd169gcs
p604
I1
sVdfhdn70
p605
I7
sVcynp57z
p606
I1
sVdd4rwqn
p607
I1
sVd0z5wbt
p608
I1
sVd3md3s5
p609
I1
sVd20j12m
p610
I1
sVd9dc19u
p611
I1
sVda6rzfw
p612
I1
sVdfj8fyk
p613
I1
sVd52xhrd
p614
I1
sVdo9rgsr
p615
I1
sVd7oqhx2
p616
I1
sVdcghcwv
p617
I1
sVdab8w20
p618
I3
sVdgsulee
p619
I3
sVdsfx4vv
p620
I1
sVdmodvy4
p621
I1
sVdedqx0g
p622
I1
sVcz28r6p
p623
I1
sVd4nvocz
p624
I1
sVdhhx314
p625
I1
sVd7jyk2j
p626
I1
sVdjys4be
p627
I2
sVdi33270
p628
I1
sVdn4czfd
p629
I1
sVd3ezxnt
p630
I3
sVd8vj5uj
p631
I1
sVdjtuwk8
p632
I1
sVczbtwbk
p633
I1
sVdsydphb
p634
I1
sVd6qdt8c
p635
I1
sVdnx136w
p636
I1
sVd2d1036
p637
I1
sVdkog3zr
p638
I1
sVdcdjlwo
p639
I1
sVd3g0obq
p640
I1
sVd3x49h5
p641
I1
sVdfkcco0
p642
I1
sVd7awpoh
p643
I1
sVd5f2t71
p644
I1
sVdhyc6c0
p645
I1
sVdd4t2qf
p646
I1
sVd8fz95j
p647
I1
sVd3x6vjt
p648
I2
sVd41cr9t
p649
I1
sVczbgsm5
p650
I4
sVd6s2029
p651
I1
sVdamo9wd
p652
I2
sVd46on3l
p653
I1
sVdiw5v6t
p654
I2
sVd7jghju
p655
I1
sVd0pl9zf
p656
I2
sVd72w6zi
p657
I1
sVdjk5ozp
p658
I1
sVdjzyv6e
p659
I1
sVda33n3r
p660
I1
sVddsoq96
p661
I1
sVdcex26l
p662
I1
sVddxzf0p
p663
I1
sVdctfckg
p664
I1
sVdgq521l
p665
I1
sVdfoicao
p666
I1
sVdso18c6
p667
I1
sVdim8akv
p668
I3
sVcyr5rxl
p669
I1
sVd3eug4j
p670
I2
sVd8i16jy
p671
I1
sVd9fnqp2
p672
I1
sVd88uqwb
p673
I1
sVda04sm5
p674
I1
sVdrb7c50
p675
I1
sVdtfjdga
p676
I1
sVdt3y5ue
p677
I1
sVdrop5tl
p678
I1
sVdt2k9lm
p679
I1
sVdr4oh4u
p680
I1
sVd2eq6re
p681
I1
sVdc3v1e6
p682
I1
sVdobefsb
p683
I2
sVdfu1avs
p684
I1
sVdim255i
p685
I1
sVdrzc311
p686
I1
sVdgpfqto
p687
I1
sVdadzmp0
p688
I1
sVdo596uh
p689
I1
sVd6a3teo
p690
I1
sVdc9uhss
p691
I1
sVddxp52c
p692
I1
sVd5cazd6
p693
I2
sVds1e4ry
p694
I1
sVd3hxl22
p695
I1
sVdc4w45q
p696
I1
sVdotltnt
p697
I1
sVd0w4lgm
p698
I1
sVdezdhwm
p699
I1
sVd84vwhd
p700
I1
sVdc054f4
p701
I1
sVdiy98hx
p702
I3
sVdb762cp
p703
I1
sVdavgvc9
p704
I1
sVczhnasy
p705
I1
sVd7fz6z9
p706
I1
sVczahegl
p707
I1
sVd4szh2k
p708
I1
sVdn4xusu
p709
I1
sVcz8hq1y
p710
I2
sVd66dpr3
p711
I1
sVd3e7pw7
p712
I1
sVcz8tum8
p713
I1
sVdawiccy
p714
I1
sVd3nnm4q
p715
I1
sVd2agh4m
p716
I1
sVd0pjjiq
p717
I1
sVdd4ytzd
p718
I2
sVdq29zfu
p719
I1
sVdikqfig
p720
I2
sVdc1twzi
p721
I1
sVdghq2r0
p722
I1
sVdoczpjt
p723
I1
sVd5rrv2d
p724
I2
sVd0su2e4
p725
I1
sVd2of3zz
p726
I1
sVd3juyfu
p727
I1
sVd56uwrl
p728
I1
sVczatmpn
p729
I1
sVdrt2m1x
p730
I1
sVdrjdd1k
p731
I1
sVdctrmg3
p732
I1
sVdkutl1v
p733
I4
sVdfosuxj
p734
I1
sVdb0xcdr
p735
I1
sVdnta1ms
p736
I1
sVd8g6pqp
p737
I1
sVd3bhtrq
p738
I1
sVdt9colb
p739
I2
sVdpl37bx
p740
I1
sVdfiekeu
p741
I1
sVd1yb91s
p742
I1
sVd8sqq02
p743
I1
sVdkue1yg
p744
I1
sVddgvr15
p745
I1
sVddf75tq
p746
I1
sVd2ihxj0
p747
I1
sVdboyl6j
p748
I1
sVd7nar4i
p749
I1
sVdd3xfkc
p750
I1
sVdim4k0s
p751
I1
sVcz3negl
p752
I1
sVd1g5ngo
p753
I1
sVd3n9rxe
p754
I3
sVdcc8j5o
p755
I3
sVdhcvv2c
p756
I1
sVd2accok
p757
I2
sVczzwjk8
p758
I1
sVd2wpoge
p759
I1
sVdav2ejv
p760
I1
sVdcwj8xq
p761
I1
sVdn75msv
p762
I1
sVd0ba4ts
p763
I1
sVdpz5hg0
p764
I1
sVd05ptv5
p765
I1
sVdhkn0mo
p766
I1
sVdc4zl1i
p767
I1
sVdokl2mw
p768
I1
sVdcxt91a
p769
I1
sVdiy0tdn
p770
I1
sVdf8c9h6
p771
I1
sVdn9zbhu
p772
I1
sVd1r1qkn
p773
I1
sVd2bztbs
p774
I1
sVd3lkut2
p775
I3
sVdefnyid
p776
I1
sVddkjb76
p777
I1
sVdjj3vr9
p778
I1
sVcyy2m6n
p779
I1
sVczf05d8
p780
I2
sVd05tqhe
p781
I1
sVd19nl8m
p782
I1
sVdge7hoz
p783
I1
sVd0se36b
p784
I1
sVdss4fm0
p785
I2
sVdarqctm
p786
I1
sVd6b5967
p787
I1
sVdpdg8dw
p788
I1
sVdoigmh3
p789
I1
sVcz1fvf6
p790
I1
sVddk84bs
p791
I1
sVd68rtj7
p792
I1
sVdpg9tn4
p793
I1
sVdkpto99
p794
I1
sVdb7ekaa
p795
I1
sVdnvmk7r
p796
I1
sVcz6402l
p797
I1
sVd626och
p798
I2
sVd5drj10
p799
I1
sVd8hv6pr
p800
I1
sVd1xz6bd
p801
I1
sVda1vfsf
p802
I1
sVdp4ibh5
p803
I2
sVd5poxal
p804
I1
sVd02guzi
p805
I1
sVd3b5is0
p806
I1
sVdfqtlwx
p807
I1
sVdhe6cu1
p808
I1
sVdpftw89
p809
I3
sVddi0bg1
p810
I2
sVczjan0p
p811
I2
sVd7krnwt
p812
I1
sVd8itmci
p813
I4
sVd1jtudp
p814
I1
sVcylfzfr
p815
I1
sVd8jdy5o
p816
I1
sVd1bvsee
p817
I1
sVd996eff
p818
I1
sVdmrlwdr
p819
I1
sVd1j0a9t
p820
I1
sVd36nwiq
p821
I2
sVczj77cs
p822
I1
sVdgezdc9
p823
I2
sVdijb4ps
p824
I1
sVd0gv2t4
p825
I1
sVd63ouic
p826
I1
sVdgh89i0
p827
I1
sVd94gtxg
p828
I1
sVdp4n1gd
p829
I1
sVczu7367
p830
I1
sVd23o82j
p831
I1
sVd49djcx
p832
I1
sVd6teaa3
p833
I1
sVd0iziwr
p834
I1
sVdnynktp
p835
I2
sVdef3zku
p836
I1
sVd1v5ugp
p837
I1
sVd4nj3g3
p838
I1
sVczeyo93
p839
I1
sVd4zju3c
p840
I1
sVdmzuz13
p841
I1
sVd30fd4l
p842
I1
sVczw9686
p843
I2
sVdq6tkce
p844
I1
sVdpdcw0v
p845
I1
sVd8p6f2e
p846
I1
sVdbu22xf
p847
I1
sVdasad21
p848
I1
sVd846l16
p849
I3
sVd91sara
p850
I4
sVdofludp
p851
I4
sVdidzlk5
p852
I1
sVd8jx61e
p853
I1
sVdbzleri
p854
I1
sVczs3tft
p855
I2
sVd2ud99h
p856
I1
sVdcoz5b2
p857
I1
sVd5bmu5j
p858
I3
sVdhn4yv4
p859
I1
sVd3bgobi
p860
I2
sVd57pbzx
p861
I1
sVdgkhof5
p862
I1
sVda1rlwy
p863
I2
sVd2g6g54
p864
I1
sVdcmjow6
p865
I1
sVd45mdsc
p866
I1
sVd91ryh9
p867
I1
sVd52y6ho
p868
I1
sVd8vtja6
p869
I1
sVd4104lz
p870
I1
sVd98oxds
p871
I1
sVdibwr32
p872
I1
sVdjg5ci6
p873
I1
sVd4of3wd
p874
I1
sVdo25ekl
p875
I7
sVde1tua9
p876
I1
sVcz811jy
p877
I2
sVd4ntpbl
p878
I1
sVdk52x51
p879
I2
sVdi9z4kh
p880
I1
sVdommda2
p881
I1
sVcypjp31
p882
I1
sVd2wkr3z
p883
I1
sVdfcgk5z
p884
I1
sVdgjys5h
p885
I1
sVdj7w0lh
p886
I2
sVd3hreef
p887
I1
sVdgcr51h
p888
I1
sVddpygux
p889
I2
sVdbxo6kk
p890
I1
sVdf6jbxt
p891
I1
sVdjdy2ab
p892
I4
sVd1pmaav
p893
I5
sVdbzzzgf
p894
I6
sVdppfa2k
p895
I1
sVd0qyvef
p896
I2
sVdiijlvd
p897
I1
sVdkktv0z
p898
I1
sVddc1bj4
p899
I1
sVdngjhpf
p900
I1
sVd8lvife
p901
I1
sVd7fijt4
p902
I8
sVdicmp7h
p903
I1
sVdcpjbas
p904
I1
sVdkeh616
p905
I2
sVd65t72z
p906
I1
sVdb884nl
p907
I1
sVdnebamz
p908
I1
sVd81v5sa
p909
I2
sVd5eswwg
p910
I1
sVdjsluqb
p911
I2
sVdnlnlod
p912
I1
sVd5deqz0
p913
I3
sVdq9vmr2
p914
I1
sVdsgl6jv
p915
I1
sVcz1jp6j
p916
I1
sVd1o51dg
p917
I1
sVd8uwivr
p918
I1
sVczzkra6
p919
I1
sVdo5n489
p920
I1
sVd1jr9ae
p921
I1
sVdk9v6j6
p922
I1
sVdo7d3rn
p923
I1
sVddolpsd
p924
I1
sVdgdre5y
p925
I1
sVddnixtr
p926
I1
sVd1m0gf9
p927
I1
sVcyn1a4j
p928
I2
sVd1ubzvo
p929
I1
sVda3dscf
p930
I1
sVddt6fob
p931
I1
sVdar7okq
p932
I1
sVdrb3u5e
p933
I1
sVd0cj2nt
p934
I1
sVd32v2x8
p935
I2
sVdq7l0t1
p936
I1
sVd0yhqu1
p937
I1
sVdh0kx54
p938
I1
sVdcgzii4
p939
I1
sVdkj2qwl
p940
I1
sVdiocb9e
p941
I1
sVdg3i5h9
p942
I1
sVd4yd9vv
p943
I1
sVd4499c2
p944
I1
sVddwry8u
p945
I1
sVdsr7drt
p946
I1
sVdh3cbm2
p947
I1
sVd03pkaa
p948
I1
sVd0nudc9
p949
I1
sVd0nr8mm
p950
I1
sVdi3azx0
p951
I1
sVdh3eyiz
p952
I1
sVddvd83s
p953
I1
sVdrblxoz
p954
I1
sVd1bhuhf
p955
I1
sVd6usnf1
p956
I1
sVd58guek
p957
I1
sVddq1aoo
p958
I1
sVd2mn7nt
p959
I1
sVdd6d6mv
p960
I6
sVdfiauzw
p961
I1
sVdayo6vt
p962
I5
sVcz236ww
p963
I1
sVdemi62u
p964
I1
sVdcvb2pt
p965
I2
sVd0gs22c
p966
I1
sVdsqb8lv
p967
I1
sVdk96bhn
p968
I1
sVdje72bv
p969
I1
sVd7ay85v
p970
I1
sVczafxao
p971
I1
sVd3hhhsb
p972
I1
sVd53j6gx
p973
I1
sVd8my0lh
p974
I1
sVd9acdbu
p975
I1
sVd4ny3i9
p976
I1
sVdo2rkpb
p977
I1
sVdt4xqw7
p978
I1
sVdawqptp
p979
I1
sVddk71wa
p980
I1
sVddsc9la
p981
I1
sVdkh4qnl
p982
I1
sVdf9p9f7
p983
I1
sVd1lmfx3
p984
I2
sVd3necak
p985
I1
sVd9i417n
p986
I2
sVdiae71l
p987
I1
sVdifw913
p988
I1
sVdi32l5c
p989
I1
sVdqun1j9
p990
I1
sVdbmkq5d
p991
I1
sVd4kj5ul
p992
I1
sVd1raffv
p993
I2
sVdqvvblu
p994
I2
sVdi1693d
p995
I1
sVdpslklu
p996
I2
sVdpw8v53
p997
I1
sVdffm4dd
p998
I1
sVd4ksy0e
p999
I1
sVcz6q32w
p1000
I1
sVd1y4ydf
p1001
I1
sVdcwavyo
p1002
I1
sVd2nk6pj
p1003
I1
sVd15feyr
p1004
I1
sVd92878l
p1005
I1
sVdgst2s0
p1006
I12
sVdas87ne
p1007
I1
sVdhjd6fo
p1008
I1
sVd1tvndw
p1009
I1
sVdbtkbmw
p1010
I1
sVd3wiiso
p1011
I1
sVdpdqu3n
p1012
I1
sVddykij8
p1013
I1
sVdo3jto6
p1014
I1
sVd1v7jen
p1015
I1
sVdjzm8p6
p1016
I1
sVdj3i52x
p1017
I1
sVddoyw6q
p1018
I1
sVdha6qiy
p1019
I1
sVd1mpsav
p1020
I1
sVd6rxa5i
p1021
I1
sVdkpt9wk
p1022
I1
sVd62kbqv
p1023
I1
sVczjy2a4
p1024
I1
sVd7hc1jc
p1025
I3
sVd13oegw
p1026
I1
sVd50yxpl
p1027
I2
sVdhyr9bo
p1028
I1
sVdgm6wlf
p1029
I1
sVdrj0wfj
p1030
I1
sVdeh8e8q
p1031
I1
sVdcwm14y
p1032
I1
sVdo09jk1
p1033
I1
sVd7p1wt4
p1034
I1
sVdc7k24t
p1035
I1
sVdbqkjo3
p1036
I3
sVdqepe6p
p1037
I1
sVcyyxqe2
p1038
I1
sVdeu5wzx
p1039
I1
sVd44u6na
p1040
I3
sVd0a1fj6
p1041
I1
sVdfr7h11
p1042
I1
sVdbwr5xz
p1043
I2
sVdmpfwou
p1044
I1
sVd9r5yuk
p1045
I1
sVdpnazwb
p1046
I1
sVds5vv6j
p1047
I1
sVd6b4xip
p1048
I1
sVdgrqo4r
p1049
I1
sVd4duz4m
p1050
I1
sVdi6uxjv
p1051
I1
sVcypccz6
p1052
I1
sVdba3byh
p1053
I2
sVd718k1k
p1054
I1
sVd3esfsb
p1055
I1
sVd50ddbt
p1056
I2
sVd9xrjmf
p1057
I1
sVd57zxt6
p1058
I1
sVde55km6
p1059
I2
sVd5sorro
p1060
I1
sVdfau4gn
p1061
I1
sVd0669qz
p1062
I2
sVdjqg7so
p1063
I1
sVd69kqcw
p1064
I1
sVd2y9wyl
p1065
I2
sVddr7nme
p1066
I3
sVd3mvmod
p1067
I2
sVdf1gspt
p1068
I2
sVd1xzpwc
p1069
I1
sVczhjzcb
p1070
I1
sVd4uvio5
p1071
I3
sVdq5ew5m
p1072
I4
sVcz68p94
p1073
I1
sVdam8x4n
p1074
I1
sVdqn5k6p
p1075
I1
sVdd4u9qu
p1076
I1
sVddafxrk
p1077
I1
sVd4w4b2o
p1078
I1
sVd5bc3gc
p1079
I1
sVd7skh40
p1080
I1
sVdnlhzvs
p1081
I2
sVcyttzmf
p1082
I3
sVdc6uxd3
p1083
I1
sVd7ij6m0
p1084
I1
sVd3zk70j
p1085
I1
sVd3z9jxz
p1086
I1
sVd4o2k7l
p1087
I2
sVd38uco1
p1088
I1
sVdoplzds
p1089
I1
sVdk0gfhc
p1090
I1
sVd0wmkgb
p1091
I2
sVd590rb5
p1092
I1
sVdb09cc4
p1093
I2
sVd09f038
p1094
I1
sVczsnl5a
p1095
I1
sVd12wp7s
p1096
I1
sVd1k11ca
p1097
I1
sVddn5tw6
p1098
I1
sVddw05am
p1099
I1
sVd5v26af
p1100
I1
sVd2tw2sq
p1101
I1
sVcz9rkfq
p1102
I1
sVdh6l45i
p1103
I1
sVdqwa4vv
p1104
I1
sVdg8n5g3
p1105
I1
sVd3wp97t
p1106
I1
sVd81cb9t
p1107
I2
sVdg6ef9m
p1108
I4
sVde5b6od
p1109
I1
sVczzxh4g
p1110
I2
sVd7d1wpi
p1111
I1
sVd3juins
p1112
I1
sVdjavkda
p1113
I1
sVd1cfg6g
p1114
I1
sVd0uaevn
p1115
I1
sVdfsm8ah
p1116
I2
sVd0t99gc
p1117
I1
sVde3w3mc
p1118
I3
sVd1nr3de
p1119
I1
sVd57rlwh
p1120
I1
sVd089r4z
p1121
I2
sVd5piay9
p1122
I1
sVd1jcck3
p1123
I1
sVcyvafil
p1124
I1
sVd0ntxro
p1125
I1
sVdkrxz2t
p1126
I1
sVd0nl8cn
p1127
I1
sVd2d0x4p
p1128
I2
sVd32gsag
p1129
I1
sVdo4vm8g
p1130
I1
sVdbyy642
p1131
I1
sVcyugh3w
p1132
I1
sVd8agzg3
p1133
I2
sVdh8evog
p1134
I1
sVd9wllx3
p1135
I1
sVdkshez8
p1136
I1
sVd83bon0
p1137
I1
sVd6jwbn0
p1138
I1
sVd33z2hs
p1139
I1
sVddv80uw
p1140
I1
sVczy5vyh
p1141
I1
sVd2a9num
p1142
I1
sVdisnadv
p1143
I2
sVd0yipx0
p1144
I1
sVd28b0e6
p1145
I1
sVddgh56w
p1146
I1
sVd2klyfr
p1147
I1
sVdkvev9g
p1148
I1
sVd065b0z
p1149
I1
sVdfyqsfw
p1150
I1
sVddwp9lv
p1151
I1
sVcyjsv22
p1152
I1
sVdryt2qt
p1153
I1
sVd87am3q
p1154
I3
sVdo592rr
p1155
I2
sVd3zpz2o
p1156
I1
sVd281346
p1157
I1
sVd86s3oc
p1158
I1
sVd7197rk
p1159
I1
sVd0sbrno
p1160
I1
sVd6p4gr3
p1161
I1
sVdi7x46z
p1162
I1
sVd8syell
p1163
I1
sVd6ezqrr
p1164
I1
sVczqnpq5
p1165
I1
sVd1p573m
p1166
I1
sVdknb3s0
p1167
I1
sVd27cdmi
p1168
I2
sVddrs0pj
p1169
I1
sVdj999md
p1170
I2
sVdqivlvs
p1171
I1
sVdi40tts
p1172
I1
sVd4767k5
p1173
I1
sVdauk6nk
p1174
I3
sVdg1sjbk
p1175
I1
sVdbwnqt9
p1176
I2
sVd8leyid
p1177
I1
sVd78xm6s
p1178
I1
sVdkyfk2f
p1179
I4
sVdrwv7qq
p1180
I1
sVd36kec2
p1181
I1
sVd8iwuik
p1182
I1
sVdj743zy
p1183
I1
sVdc49yfm
p1184
I1
sVd3mn7n0
p1185
I2
sVdb6lo8m
p1186
I1
sVdk2l585
p1187
I1
sVd9lp2qc
p1188
I1
sVdaa9cb7
p1189
I1
sVd9mttjw
p1190
I1
sVd448g3y
p1191
I1
sVdb7l65v
p1192
I2
sVd3oxv92
p1193
I1
sVdry3qog
p1194
I1
sVdabthvg
p1195
I1
sVd0t31di
p1196
I1
sVd575r6v
p1197
I2
sVdbaf2nv
p1198
I1
sVdaz9c8d
p1199
I1
sVd3n7gqx
p1200
I1
sVdfg7j2f
p1201
I1
sVdqa2vjn
p1202
I1
sVdh54mv2
p1203
I3
sVdhpjo54
p1204
I2
sVdhln0ia
p1205
I1
sVdmffyvc
p1206
I1
sVd1buurp
p1207
I1
sVdh7yju0
p1208
I1
sVd6aifos
p1209
I1
sVddzkj9v
p1210
I1
sVdi6ktna
p1211
I1
sVdh11tdw
p1212
I1
sVd09mr8i
p1213
I1
sVdh4ceto
p1214
I2
sVd2vdvtd
p1215
I1
sVdoe4deu
p1216
I1
sVd0iy6oo
p1217
I1
sVdo1fcsc
p1218
I1
sVd125mb8
p1219
I1
sVda3iddy
p1220
I2
sVd1hm8iv
p1221
I1
sVd6h0m5r
p1222
I1
sVd8hxqv6
p1223
I2
sVd3z6wc4
p1224
I1
sVd3jq3ge
p1225
I1
sVdo2idpf
p1226
I2
sVd2qll1b
p1227
I1
sVdbes36d
p1228
I1
sVczr13au
p1229
I1
sVddmm9i9
p1230
I1
sVd62sjih
p1231
I1
sVdjlgf1w
p1232
I1
sVdhjlkmc
p1233
I1
sVde2vojy
p1234
I1
sVdjhvrlh
p1235
I1
sVczh9gpb
p1236
I1
sVdk69z3v
p1237
I4
sVd66p803
p1238
I1
sVd2d50l3
p1239
I1
sVdao6lnr
p1240
I1
sVdtc7q0x
p1241
I1
sVczkxa2x
p1242
I1
sVd4280g3
p1243
I3
sVdg750pw
p1244
I1
sVdevtz6j
p1245
I1
sVd30642k
p1246
I2
sVd6vbn3l
p1247
I1
sVd1yxt2s
p1248
I1
sVdg4qnoc
p1249
I1
sVdmzv8rj
p1250
I1
sVd8kv6l5
p1251
I2
sVdh155zt
p1252
I1
sVdc1z58h
p1253
I1
sVd091a87
p1254
I1
sVdjkybgs
p1255
I1
sVdglito2
p1256
I1
sVd9c34pm
p1257
I1
sVd1duthn
p1258
I1
sVdj8gu1b
p1259
I3
sVdgkkio2
p1260
I1
sVczay738
p1261
I3
sVdinzqol
p1262
I1
sVdnrvy7i
p1263
I1
sVcynzdkz
p1264
I1
sVcyy5gy0
p1265
I1
sVcyyd1qi
p1266
I1
sVdflxac5
p1267
I1
sVdp0a2rx
p1268
I1
sVd7cekkl
p1269
I1
sVdhaxd23
p1270
I1
sVczqwnmo
p1271
I2
sVd37l6sr
p1272
I1
sVdknwq0x
p1273
I1
sVd20g1lw
p1274
I1
sVd39hooi
p1275
I1
sVd6qt2qf
p1276
I1
sVddmllx3
p1277
I1
sVd23w7vm
p1278
I1
sVdb1t7qa
p1279
I1
sVdcxty5d
p1280
I1
sVd4e4xvd
p1281
I2
sVdjnzv49
p1282
I1
sVcyklz8r
p1283
I1
sVd2zzwnc
p1284
I1
sVd9zhghq
p1285
I1
sVdcovlv0
p1286
I1
sVdegvozp
p1287
I1
sVd02tfno
p1288
I1
sVd3zesgr
p1289
I1
sVd3bn1ct
p1290
I1
sVdbhs00y
p1291
I1
sVd5w8d8u
p1292
I4
sVdt0qr07
p1293
I2
sVd94xtjh
p1294
I1
sVdgb69ba
p1295
I1
sVd9r83zb
p1296
I1
sVd8o4nt3
p1297
I1
sVd3wpdit
p1298
I1
sVddt89b6
p1299
I1
sVd4cwfp2
p1300
I1
sVdj78g71
p1301
I1
sVdbt66va
p1302
I1
sVcyiw680
p1303
I2
sVd3r40k4
p1304
I1
sVcyplles
p1305
I1
sVdfjkrw7
p1306
I1
sVd3q1jp8
p1307
I1
sVd5d830u
p1308
I1
sVd4vcmlr
p1309
I2
sVdfyhlmj
p1310
I1
sVdb40ryj
p1311
I1
sVdohn3x5
p1312
I1
sVdajzass
p1313
I2
sVd5n9vt6
p1314
I1
sVd8hde8k
p1315
I1
sVdcr7lmu
p1316
I1
sVdag07k8
p1317
I1
sVd2efscj
p1318
I1
sVcz088ns
p1319
I1
sVdalr6ok
p1320
I1
sVd0n51hq
p1321
I2
sVd0lpgc3
p1322
I1
sVdnx1mvs
p1323
I1
sVdrk0tuw
p1324
I1
sVd35gm4j
p1325
I1
sVcyjjgmh
p1326
I1
sVczi9gxo
p1327
I2
sVdp75ck8
p1328
I2
sVd6qieq5
p1329
I1
sVcynw827
p1330
I1
sVddcor8e
p1331
I2
sVdb7d1cu
p1332
I1
sVdfjs6y6
p1333
I1
sVddp5gus
p1334
I1
sVdddkbb4
p1335
I1
sVdf1z8ck
p1336
I1
sVddaouvg
p1337
I1
sVd8oil98
p1338
I1
sVdnu496f
p1339
I1
sVdcsckiv
p1340
I2
sVd0pks9j
p1341
I1
sVdd2hizl
p1342
I1
sVdfk55el
p1343
I1
sVd97sn91
p1344
I1
sVdc5pc6s
p1345
I1
sVcz365b7
p1346
I1
sVd07jz8g
p1347
I1
sVdcrv31v
p1348
I1
sVdjdq0qx
p1349
I3
sVd6p1dq5
p1350
I2
sVdrwakal
p1351
I2
sVcyzp2he
p1352
I1
sVdbmfjpg
p1353
I1
sVderypkx
p1354
I3
sVd2dwl9g
p1355
I1
sVdgc9jvw
p1356
I1
sVd65lony
p1357
I2
sVdncm9uq
p1358
I1
sVdeg6epv
p1359
I1
sVd7lchd4
p1360
I1
sVde68cq9
p1361
I1
sVdc2a13v
p1362
I1
sVd85ubuf
p1363
I1
sVdn9aaa5
p1364
I1
sVczpkyn6
p1365
I2
sVdilht6q
p1366
I1
sVdde6va4
p1367
I1
sVd22gdes
p1368
I1
sVd008ft6
p1369
I1
sVda0zqc4
p1370
I1
sVdd30dag
p1371
I1
sVd0b32o3
p1372
I1
sVdposi93
p1373
I1
sVdpnewnj
p1374
I1
sVdcf9qmo
p1375
I1
sVdib57fs
p1376
I1
sVd0qtusg
p1377
I1
sVdg82b53
p1378
I1
sVdcbckae
p1379
I1
sVd7c8h4w
p1380
I1
sVczg5p6g
p1381
I2
sVd66x0wd
p1382
I1
sVdj9j82z
p1383
I1
sVdi4xanp
p1384
I1
sVcz5s22z
p1385
I2
sVdrrtkqi
p1386
I1
sVdf9d75l
p1387
I1
sVd8ygofd
p1388
I2
sVdil74sa
p1389
I1
sVd4rlqn7
p1390
I1
sVd6n2p09
p1391
I1
sVd922kwz
p1392
I1
sVd4xdcyo
p1393
I1
sVd24c5mz
p1394
I1
sVdht7yvx
p1395
I1
sVdp1tajo
p1396
I1
sVdfr8c3b
p1397
I1
sVczkxbdy
p1398
I1
sVdgkeuzh
p1399
I1
sVd7jjrep
p1400
I1
sVd5h0xk3
p1401
I1
sVdg5bliq
p1402
I1
sVdf1r4db
p1403
I1
sVd32hz97
p1404
I1
sVdav3fzz
p1405
I1
sVdgqkpcc
p1406
I4
sVdb7dqyo
p1407
I4
sVd1y50nq
p1408
I1
sVd0qputo
p1409
I1
sVd1kxotv
p1410
I1
sVdawpcer
p1411
I1
sVdbloezq
p1412
I1
sVdgfv3k0
p1413
I2
sVdd1f8z9
p1414
I2
sVdczrax8
p1415
I1
sVd8njczr
p1416
I2
sVdceyw9d
p1417
I1
sVdk5k1zo
p1418
I2
sVdmncizf
p1419
I1
sVd62tsxt
p1420
I5
sVd6d1p6s
p1421
I1
sVd2ocqju
p1422
I1
sVdq4av8q
p1423
I2
sVd48fqe1
p1424
I1
sVdrsfl2k
p1425
I1
sVd3960xk
p1426
I1
sVdry8ys2
p1427
I1
sVdfwy2sd
p1428
I1
sVdr5ttjj
p1429
I1
sVcyzz68e
p1430
I1
sVdcbv016
p1431
I1
sVd0ddr0f
p1432
I3
sVd3x5xi6
p1433
I2
sVdi350nz
p1434
I1
sVdkkjl1q
p1435
I1
sVdbcp3qi
p1436
I1
sVczwdov2
p1437
I1
sVd0ltimi
p1438
I1
sVd8ulwpt
p1439
I1
sVd3lzrud
p1440
I1
sVd6p5fvi
p1441
I1
sVdh9o8fm
p1442
I1
sVdt4dzr2
p1443
I1
sVd4z7w82
p1444
I1
sVd1y5kqe
p1445
I1
sVdgtz5bc
p1446
I1
sVdh9y456
p1447
I1
sVd4jmkhc
p1448
I1
sVd0kkvt8
p1449
I1
sVd808dsd
p1450
I1
sVda1p4r6
p1451
I2
sVdiohwgn
p1452
I1
sVd1xzflu
p1453
I1
sVdqhjpqm
p1454
I1
sVd090sqv
p1455
I1
sVdbt8ra9
p1456
I1
sVdddlb9b
p1457
I1
sVdbr2dnc
p1458
I3
sVd727iln
p1459
I1
sVd26s4wq
p1460
I1
sVdh9y05c
p1461
I1
sVdndasum
p1462
I1
sVd3hvtyy
p1463
I1
sVd5oyend
p1464
I1
sVdepv46i
p1465
I2
sVd1k5wyb
p1466
I3
sVdn3nroh
p1467
I1
sVdfn7ov9
p1468
I1
sVd1olxe6
p1469
I2
sVddivcch
p1470
I1
sVd508i6x
p1471
I1
sVd45mir2
p1472
I1
sVd1pf7hc
p1473
I1
sVdo2z1mt
p1474
I1
sVd7lsdgq
p1475
I2
sVdpfaq6w
p1476
I3
sVd4tvldt
p1477
I1
sVdpy09yq
p1478
I1
sVcyw6pgz
p1479
I1
sVd2uhcnc
p1480
I1
sVdh3mci2
p1481
I1
sVda0nm2l
p1482
I1
sVcz60g9p
p1483
I1
sVdjyj3h0
p1484
I1
sVdgwhj75
p1485
I1
sVdbcja2t
p1486
I2
sVdtgqksl
p1487
I1
sVd6ka6fu
p1488
I1
sVcyvcx28
p1489
I1
sVd14s5w2
p1490
I1
sVd7wp8dl
p1491
I1
sVdp8oz11
p1492
I2
sVdapcya9
p1493
I1
sVczatlur
p1494
I1
sVdn2dumc
p1495
I1
sVd9egbi1
p1496
I1
sVddv1kkz
p1497
I1
sVdej00vk
p1498
I1
sVd62qwcy
p1499
I3
sVczwu8b0
p1500
I1
sVdti7ku0
p1501
I1
sVdr56w2t
p1502
I1
sVd06xqo5
p1503
I1
sVdhqsw7l
p1504
I1
sVdncn9bc
p1505
I1
sVd6nxzuo
p1506
I1
sVdij9sh2
p1507
I1
sVd1zsn2m
p1508
I2
sVdii2tzr
p1509
I1
sVded7so6
p1510
I1
sVdcl5fga
p1511
I2
sVd2fc6wf
p1512
I1
sVdfq41ev
p1513
I1
sVdtj685u
p1514
I2
sVd1zlyms
p1515
I3
sVd6013cy
p1516
I1
sVdkps3b4
p1517
I1
sVd8ddjc0
p1518
I1
sVdihdipj
p1519
I1
sVdgfbnnq
p1520
I1
sVd3mmuih
p1521
I1
sVddpoh48
p1522
I1
sVdn0ld2h
p1523
I2
sVdb5x3fe
p1524
I1
sVd6rfz3o
p1525
I1
sVdmn8jhp
p1526
I1
sVdsste28
p1527
I1
sVd66yffy
p1528
I1
sVd5og016
p1529
I2
sVdogjbh5
p1530
I1
sVcz1olt1
p1531
I1
sVdb3ohry
p1532
I1
sVdbku4t3
p1533
I2
sVd04wcya
p1534
I1
sVczi6bmx
p1535
I1
sVdt8jmin
p1536
I1
sVdgdkk45
p1537
I1
sVdcutssl
p1538
I1
sVd1jaw5g
p1539
I1
sVda113x0
p1540
I1
sVdt0i2bz
p1541
I1
sVd5jhlht
p1542
I1
sVd8m3ws2
p1543
I1
sVd0u3788
p1544
I1
sVd01ssqq
p1545
I1
sVd0787nk
p1546
I1
sVd3v7p9k
p1547
I1
sVdn7htkm
p1548
I1
sVdk8rjvw
p1549
I1
sVdohlg60
p1550
I1
sVde68b7i
p1551
I1
sVd2q86v3
p1552
I1
sVcywqo86
p1553
I1
sVd3ex1r2
p1554
I1
sVcz3waz2
p1555
I1
sVdqugf11
p1556
I1
sVd7vpul2
p1557
I1
sVdpmwimt
p1558
I1
s.