(dp0
Vcynhw8y
p1
I1
s.(dp0
Vczm1ubl
p1
I1
sVcynhw8y
p2
I1
s.(dp0
Vczo1hom
p1
I1
sVcynhw8y
p2
I1
s.(dp0
Vd1ddy8j
p1
I1
sVcynhw8y
p2
I1
s.(dp0
Vd1kyis0
p1
I1
sVcynhw8y
p2
I1
s.(dp0
Vd1u7lld
p1
I1
sVcynhw8y
p2
I1
s.(dp0
Vd219zcg
p1
I1
sVcynhw8y
p2
I1
s.(dp0
Vd3aewgz
p1
I1
sVcynhw8y
p2
I1
s.(dp0
Vd3aewgz
p1
I1
sVcynhw8y
p2
I1
s.(dp0
Vd3jfojb
p1
I1
sVcynhw8y
p2
I1
s.(dp0
Vd3orjnl
p1
I1
sVcynhw8y
p2
I1
s.(dp0
Vd3qgyne
p1
I1
sVcynhw8y
p2
I1
s.(dp0
Vd3qgyne
p1
I1
sVcynhw8y
p2
I1
s.(dp0
Vd4ysb1o
p1
I1
sVcynhw8y
p2
I1
s.(dp0
Vd5awsvw
p1
I1
sVcynhw8y
p2
I1
s.(dp0
Vdairblz
p1
I1
sVcynhw8y
p2
I1
s.(dp0
Vdaj24qt
p1
I1
sVcynhw8y
p2
I1
s.(dp0
Vdavd14v
p1
I1
sVcynhw8y
p2
I1
s.(dp0
Vdb45zoh
p1
I1
sVcynhw8y
p2
I1
s.(dp0
Vdc66c54
p1
I1
sVcynhw8y
p2
I1
s.(dp0
Vde5z4zi
p1
I1
sVcynhw8y
p2
I1
s.(dp0
Vdefjbo8
p1
I1
sVcynhw8y
p2
I1
s.(dp0
Vdewpnq7
p1
I1
sVcynhw8y
p2
I1
s.(dp0
Vdf5dqbe
p1
I1
sVcynhw8y
p2
I1
s.(dp0
Vdg8ab07
p1
I1
sVcynhw8y
p2
I1
s.(dp0
Vdghe9kq
p1
I1
sVcynhw8y
p2
I1
s.(dp0
Vdgqklhq
p1
I1
sVcynhw8y
p2
I1
s.(dp0
Vdh4aeaw
p1
I1
sVcynhw8y
p2
I1
s.(dp0
Vdhvi3vf
p1
I1
sVcynhw8y
p2
I1
s.(dp0
Vdi3lyhw
p1
I1
sVcynhw8y
p2
I1
s.(dp0
Vdid4ute
p1
I1
sVcynhw8y
p2
I1
s.(dp0
Vdiozt0j
p1
I1
sVcynhw8y
p2
I1
s.(dp0
Vdiucw5e
p1
I1
sVcynhw8y
p2
I1
s.(dp0
Vdjzwefh
p1
I1
sVcynhw8y
p2
I1
s.(dp0
Vdkr21od
p1
I1
sVcynhw8y
p2
I1
s.(dp0
Vdmye4ba
p1
I1
sVcynhw8y
p2
I1
s.(dp0
Vdog7ji3
p1
I1
sVcynhw8y
p2
I1
s.(dp0
Vdoj97u5
p1
I1
sVcynhw8y
p2
I1
s.