(dp0
Vd0iljhk
p1
I1
s.(dp0
Vd290x89
p1
I1
sVd0iljhk
p2
I1
s.(dp0
Vd3capxw
p1
I1
sVd0iljhk
p2
I1
s.(dp0
Vd3fexif
p1
I1
sVd0iljhk
p2
I1
s.(dp0
Vd5kuq29
p1
I1
sVd0iljhk
p2
I1
s.(dp0
Vd5pqm2c
p1
I1
sVd0iljhk
p2
I1
s.(dp0
Vd6bbgec
p1
I1
sVd0iljhk
p2
I1
s.(dp0
Vd8o3omk
p1
I1
sVd0iljhk
p2
I1
s.(dp0
Vdevl2fc
p1
I1
sVd0iljhk
p2
I1
s.(dp0
Vdg6tsgp
p1
I1
sVd0iljhk
p2
I1
s.(dp0
Vdhnu7r6
p1
I1
sVd0iljhk
p2
I1
s.