(dp0
Vd1eqggq
p1
I1
sVdj66pi4
p2
I1
sVdsnebxy
p3
I1
sVd8aaj86
p4
I1
sVdpsw4v1
p5
I1
sVdfloran
p6
I1
sVd0f2r1i
p7
I1
sVdfdsedu
p8
I1
sVde92xxs
p9
I1
sVd41fdz1
p10
I1
sVcytboo6
p11
I1
sVdjifgg7
p12
I1
sVd2etm4q
p13
I1
sVd2azok1
p14
I1
sVd8fzny2
p15
I1
sVde5kmwd
p16
I2
sVdgsulee
p17
I1
sVd074ac9
p18
I1
sVdpqr21b
p19
I1
sVdqxgxiu
p20
I1
sVdn1byy5
p21
I2
sVd045wew
p22
I1
sVdho3nts
p23
I1
sVcz504yn
p24
I1
sVd9jnp0g
p25
I1
sVdav309p
p26
I1
sVd2ihaw4
p27
I2
sVd4c53pa
p28
I1
sVd0a0fza
p29
I1
sVd2fosi3
p30
I1
sVd8vwyzi
p31
I1
sVdbobsf5
p32
I1
sVd773hxs
p33
I1
sVdrqnlxq
p34
I1
sVdt0g8uu
p35
I1
sVd78qk4i
p36
I1
sVd9t44d9
p37
I1
sVd9jpngx
p38
I1
sVdj84y6r
p39
I1
sVddz9y53
p40
I1
s.