(dp0
Vcyp7h4q
p1
I1
s.(dp0
Vcytrzf1
p1
I1
sVcyp7h4q
p2
I1
s.(dp0
Vczedqn2
p1
I1
sVcyp7h4q
p2
I1
s.(dp0
Vd08xcwg
p1
I1
sVcyp7h4q
p2
I1
s.(dp0
Vd1atwil
p1
I1
sVcyp7h4q
p2
I1
s.(dp0
Vd2smust
p1
I1
sVcyp7h4q
p2
I1
s.(dp0
Vd3611rz
p1
I1
sVcyp7h4q
p2
I1
s.(dp0
Vd3k2nnx
p1
I1
sVcyp7h4q
p2
I1
s.(dp0
Vd40liwq
p1
I1
sVcyp7h4q
p2
I1
s.(dp0
Vd5zuweq
p1
I1
sVcyp7h4q
p2
I1
s.(dp0
Vd6lyxyg
p1
I1
sVcyp7h4q
p2
I1
s.(dp0
Vd73069e
p1
I1
sVcyp7h4q
p2
I1
s.(dp0
Vd7ky6ny
p1
I1
sVcyp7h4q
p2
I1
s.(dp0
Vd8yt4ly
p1
I1
sVcyp7h4q
p2
I1
s.(dp0
Vd96f4om
p1
I1
sVcyp7h4q
p2
I1
s.(dp0
Vdb5erwy
p1
I1
sVcyp7h4q
p2
I1
s.(dp0
Vdd60vbt
p1
I1
sVcyp7h4q
p2
I1
s.(dp0
Vdd72n7c
p1
I1
sVcyp7h4q
p2
I1
s.(dp0
Vddjty0g
p1
I1
sVcyp7h4q
p2
I1
s.(dp0
Vdh2olvb
p1
I1
sVcyp7h4q
p2
I1
s.(dp0
Vdhpgz84
p1
I1
sVcyp7h4q
p2
I1
s.