(dp0
Vd1c5e4m
p1
I1
sVd1k9br0
p2
I1
sVd6798fa
p3
I1
sVd2bq47z
p4
I1
sVdi0hewh
p5
I1
sVcz4datu
p6
I1
sVdi4jv9g
p7
I1
sVd1jzmhn
p8
I1
sVdhx9va4
p9
I1
sVdi2b2yf
p10
I1
sVdd70ybo
p11
I1
sVdhef0w2
p12
I1
sVdcu4nx0
p13
I1
sVd3hbxnx
p14
I1
sVdfcklmx
p15
I1
sVd45l25h
p16
I1
sVdo4my9n
p17
I1
sVdhaxa64
p18
I3
s.