(dp0
Vd090nq5
p1
I1
sVdfuamrq
p2
I1
sVdj5le4w
p3
I2
sVdg1mmbh
p4
I2
sVd6dhzdt
p5
I1
sVd9w2ic8
p6
I1
sVddb2obo
p7
I1
sVdjo6ak2
p8
I1
sVd43lao5
p9
I2
sVdqsj8m5
p10
I1
sVdj7d415
p11
I3
sVd63qnxz
p12
I2
sVdss4fm0
p13
I1
sVd7qdfbq
p14
I2
sVd0g3qd9
p15
I1
sVdetxzi3
p16
I1
sVd9ajcj3
p17
I1
sVdf6zxxq
p18
I1
sVdfl6xlc
p19
I1
sVdoigzqk
p20
I1
sVd4eyd67
p21
I1
sVdsk15s7
p22
I1
sVd5a4zch
p23
I1
sVd0lxlbf
p24
I1
sVd38hgnk
p25
I1
sVdbjbp8o
p26
I1
sVdk4jm1y
p27
I1
sVdd9almr
p28
I2
sVcyyhm8e
p29
I1
sVdaeohl5
p30
I1
sVd3uqwd6
p31
I1
sVd0wkcp9
p32
I1
sVdhjlmwe
p33
I2
sVd2ebpoi
p34
I1
sVdknun31
p35
I1
sVdexfn8t
p36
I4
sVd2i0cxu
p37
I1
sVd3acfn1
p38
I1
sVd8wtnph
p39
I1
sVd15ikb1
p40
I9
sVczfau9x
p41
I1
sVdcegidg
p42
I2
sVd83xu0g
p43
I1
sVdkjuorn
p44
I1
sVdmvcxk8
p45
I1
sVdhsfsor
p46
I1
sVcz3poy4
p47
I1
sVdfuhd6t
p48
I2
sVdt5ymdb
p49
I1
sVd1qju5v
p50
I1
sVdsjm52t
p51
I1
sVdgn0a2q
p52
I1
sVd0x5q4v
p53
I1
sVd9vuknw
p54
I2
sVd3ld4g7
p55
I1
sVdag2fue
p56
I1
sVddq0ts2
p57
I1
sVd6tsdcj
p58
I1
sVdgvxa1p
p59
I1
sVd3ns53h
p60
I2
sVdj9ab8d
p61
I1
sVd52rj1l
p62
I1
sVczn06xn
p63
I1
sVds5u0bk
p64
I1
sVd512xvt
p65
I1
sVd31ejpa
p66
I1
sVd194zmi
p67
I1
sVdcx04m2
p68
I1
sVdby02e0
p69
I1
sVd3nnm4q
p70
I1
sVcz6b26r
p71
I1
sVdtg540b
p72
I1
sVd8ocacq
p73
I1
sVdosae3y
p74
I1
sVdbjcuvv
p75
I1
sVd177th4
p76
I1
sVd9aypqb
p77
I2
sVd0mwc74
p78
I1
sVd8k3xpz
p79
I1
sVczxchok
p80
I1
sVdfujsh7
p81
I1
sVd82xs8i
p82
I1
sVdjmifqv
p83
I1
sVd3hzaz8
p84
I1
sVd08vf38
p85
I1
sVczarcjw
p86
I1
sVd840wyb
p87
I1
sVdps75bl
p88
I1
sVdk09s5z
p89
I1
sVdpn5466
p90
I1
sVd9d720r
p91
I3
sVd3uyzwq
p92
I1
sVdclbgci
p93
I1
sVdgrgrqx
p94
I1
sVd0p3j9v
p95
I1
sVdobl03l
p96
I1
sVddxfi6f
p97
I1
sVd3scz7w
p98
I1
sVdmn3ptz
p99
I1
sVdr7w89t
p100
I1
sVdo2oq76
p101
I1
sVd3ouatu
p102
I1
sVczp2evt
p103
I1
sVdjdt9ur
p104
I3
sVcz03h8d
p105
I1
sVd34zdo6
p106
I3
sVdekyrq9
p107
I1
sVd497jjn
p108
I2
sVdhc78ew
p109
I1
sVditli5k
p110
I1
sVd1fse15
p111
I1
sVd2u3chg
p112
I1
sVczwaewg
p113
I1
sVdk7kbxz
p114
I1
sVd1tyuns
p115
I1
sVda7ilx9
p116
I1
sVdp3ofxh
p117
I1
sVd0t8qd5
p118
I2
sVdqo5k9g
p119
I1
sVdhxjq08
p120
I1
sVditlci1
p121
I1
sVd3rvzea
p122
I1
sVdkt3t04
p123
I1
sVdssmkn5
p124
I1
sVd9zzuv0
p125
I2
sVd0yhqu1
p126
I1
sVd0wkj1o
p127
I3
sVdg0lg7t
p128
I1
sVd93ksv9
p129
I2
sVddyoswj
p130
I1
sVcz1hdie
p131
I1
sVdhty8w4
p132
I1
sVdqx4so1
p133
I2
sVditll1i
p134
I2
sVdpfueq1
p135
I1
sVd0ujwab
p136
I1
sVcz18k22
p137
I1
sVczt05a6
p138
I6
sVd9j0i1s
p139
I1
sVdi560ck
p140
I1
sVd3lltm4
p141
I1
sVdc63zjh
p142
I1
sVczi01s1
p143
I1
sVdiww71p
p144
I1
sVdodvdvc
p145
I1
sVdcer8sz
p146
I1
sVddyeaoz
p147
I1
sVdcbwmu1
p148
I1
sVddc7exs
p149
I1
sVdrsnyt1
p150
I1
sVd1z136c
p151
I1
sVdazf6vb
p152
I1
sVd9zli5i
p153
I1
sVdkotuss
p154
I1
sVdaz16l4
p155
I1
sVcymill9
p156
I1
sVdevl0u2
p157
I1
sVd82xvub
p158
I1
sVdqd65ku
p159
I8
sVdbsgghr
p160
I1
sVdenve9o
p161
I1
sVd363paz
p162
I1
sVd0d9cb0
p163
I1
sVd8t0btc
p164
I1
sVczw0vdh
p165
I1
sVczi9gxo
p166
I4
sVda2w4yr
p167
I1
sVdn3fo34
p168
I1
sVdryr8ub
p169
I1
sVczb2ycm
p170
I1
sVd7zffjd
p171
I1
sVdks0cty
p172
I1
sVdhleqhl
p173
I1
sVd8guv4v
p174
I3
sVdanuwae
p175
I1
sVdnscmt9
p176
I1
sVd63w91j
p177
I2
sVd4qxvv0
p178
I1
sVdj7odhl
p179
I1
sVczv76wq
p180
I2
sVd9ys1ft
p181
I1
sVddt78yy
p182
I1
sVds68z3u
p183
I1
sVd55r78l
p184
I2
sVdegjphp
p185
I1
sVdc1g0cy
p186
I1
sVd45u32w
p187
I1
sVd5pye22
p188
I1
sVd2xwggh
p189
I2
sVdpqr21b
p190
I1
sVdh96gh2
p191
I1
sVdnxkbc5
p192
I1
sVd4que2i
p193
I2
sVdja5abd
p194
I1
sVd1dppxz
p195
I2
sVczk6tdi
p196
I1
sVd2ox8t9
p197
I1
sVczr5ct4
p198
I1
sVdpqs9gn
p199
I1
sVdivf7ay
p200
I1
sVd2nccs2
p201
I1
sVdrw9f1x
p202
I2
sVdhb859e
p203
I1
sVdfzdvei
p204
I1
sVdifqzb8
p205
I5
sVdn38306
p206
I1
sVd84i489
p207
I1
sVd0wkbbw
p208
I1
sVczci7nd
p209
I1
sVd0brgaw
p210
I1
sVdabqqn7
p211
I1
sVd2mxh3r
p212
I1
sVd7ifctk
p213
I1
sVd8gy1he
p214
I1
sVdnpkrbh
p215
I1
sVdrh1mvh
p216
I1
sVdfaylvi
p217
I1
sVd14pbd5
p218
I1
sVd18x31i
p219
I1
sVd6p88do
p220
I1
sVdfueo8w
p221
I1
sVcze7y6a
p222
I1
sVd655lxy
p223
I1
sVdqqckzh
p224
I1
sVd66rivu
p225
I1
sVddrgt5b
p226
I1
s.