(dp0
Vdksdm20
p1
I1
sVdeobbvy
p2
I1
sVd3qhhhh
p3
I1
sVdczxkve
p4
I1
sVd2hk0k8
p5
I1
sVdagt5h7
p6
I1
sVdh4oaxz
p7
I1
sVdocy0bw
p8
I1
sVd71sr22
p9
I1
sVdk55c2x
p10
I1
sVd0nsmzu
p11
I1
sVd4h61sv
p12
I1
sVdfxc7lv
p13
I1
sVd069n9s
p14
I1
sVde7b7kr
p15
I1
sVdaz5ro4
p16
I1
sVd46248j
p17
I1
sVd2lr7l6
p18
I1
sVdfl2295
p19
I2
sVczne7fr
p20
I1
sVczomu78
p21
I1
sVd9ywqwd
p22
I1
sVdo5isd5
p23
I1
sVd2tnh5k
p24
I1
sVdbqi8k9
p25
I1
sVd0qmj5d
p26
I1
sVdd0vsgr
p27
I1
sVdqfke7s
p28
I3
sVdqrxr8i
p29
I1
sVd9piv5m
p30
I1
sVdbelw21
p31
I1
sVcz3k6cr
p32
I1
sVd0s9pbb
p33
I1
sVdkagtr1
p34
I1
sVd9dzkl3
p35
I1
sVd3x9bkb
p36
I1
sVday1dbe
p37
I1
sVcz3efal
p38
I1
sVdcrbdm9
p39
I1
sVcymaxyh
p40
I1
sVd5c6178
p41
I2
sVd2zn3cn
p42
I1
sVdtinjj3
p43
I1
sVd1i1h1w
p44
I3
sVdqfkd1n
p45
I1
sVdhdr0qa
p46
I1
sVdjsamce
p47
I1
sVdb7ilhe
p48
I1
sVddux4c0
p49
I1
sVdgk4rny
p50
I1
sVdmy6rlc
p51
I1
sVcyoybl1
p52
I1
sVdg8kk8j
p53
I1
sVderoujr
p54
I1
sVdelmps7
p55
I1
sVd1gdfsx
p56
I1
sVdizqw6n
p57
I1
sVd3amud6
p58
I1
sVd7wwtic
p59
I1
sVd8sstzx
p60
I1
sVdpklr3o
p61
I1
sVd8pqjdb
p62
I1
sVddwe10d
p63
I1
sVdp2lmoa
p64
I1
sVd9z6v8p
p65
I1
sVdqrumcf
p66
I2
sVdqro3lr
p67
I1
sVdb1a06z
p68
I1
s.