(dp0
Vdcoasd5
p1
I1
sVdalei5m
p2
I1
sVddouvln
p3
I1
sVczyykzn
p4
I3
sVdb26486
p5
I1
sVd2mwvxc
p6
I1
sVd1n3la0
p7
I1
sVds7tuj4
p8
I1
sVd49fble
p9
I1
sVdpnu0wm
p10
I1
sVds1uvn3
p11
I1
sVdjtq5y9
p12
I1
sVcyiblkq
p13
I1
sVdeor43b
p14
I1
s.