(dp0
Vcz25ls2
p1
I1
s.(dp0
Vcz25ls2
p1
I2
s.(dp0
Vcz277m9
p1
I1
sVcz25ls2
p2
I1
s.(dp0
Vcz2dzv4
p1
I1
sVcz25ls2
p2
I1
s.(dp0
Vcz2dzv4
p1
I1
sVcz25ls2
p2
I1
s.(dp0
Vd1gjxg8
p1
I1
sVcz25ls2
p2
I1
s.(dp0
Vd3719tu
p1
I1
sVcz25ls2
p2
I1
s.(dp0
Vd3719tu
p1
I1
sVcz25ls2
p2
I1
s.(dp0
Vd3l929q
p1
I1
sVcz25ls2
p2
I1
s.(dp0
Vd3l929q
p1
I1
sVcz25ls2
p2
I1
s.(dp0
Vd4vqz40
p1
I1
sVcz25ls2
p2
I1
s.(dp0
Vd50wxsa
p1
I1
sVcz25ls2
p2
I1
s.(dp0
Vd50wxsa
p1
I1
sVcz25ls2
p2
I1
s.(dp0
Vd50wxsa
p1
I1
sVcz25ls2
p2
I1
s.(dp0
Vcz25ls2
p1
I1
sVd6540qv
p2
I1
s.(dp0
Vd6bu12h
p1
I1
sVcz25ls2
p2
I1
s.(dp0
Vd7zt2wo
p1
I1
sVcz25ls2
p2
I1
s.(dp0
Vd8yr1j4
p1
I1
sVcz25ls2
p2
I1
s.(dp0
Vda60jd8
p1
I1
sVcz25ls2
p2
I1
s.(dp0
Vda60jd8
p1
I1
sVcz25ls2
p2
I1
s.(dp0
Vdal5s4e
p1
I1
sVcz25ls2
p2
I1
s.(dp0
Vdcauvr8
p1
I1
sVcz25ls2
p2
I1
s.(dp0
Vdd2jjs0
p1
I1
sVcz25ls2
p2
I1
s.(dp0
Vddh7guo
p1
I1
sVcz25ls2
p2
I1
s.(dp0
Vdffxd2t
p1
I1
sVcz25ls2
p2
I1
s.(dp0
Vcz25ls2
p1
I1
sVdgm5wt8
p2
I1
s.(dp0
Vdgq521l
p1
I1
sVcz25ls2
p2
I1
s.(dp0
Vcz25ls2
p1
I1
sVdhlsg54
p2
I1
s.(dp0
Vcz25ls2
p1
I1
sVdhlsg54
p2
I1
s.(dp0
Vdhzq7js
p1
I1
sVcz25ls2
p2
I1
s.(dp0
Vdikdgc5
p1
I1
sVcz25ls2
p2
I1
s.(dp0
Vdikdgc5
p1
I1
sVcz25ls2
p2
I1
s.(dp0
Vdikdgc5
p1
I1
sVcz25ls2
p2
I1
s.(dp0
Vdikdgc5
p1
I1
sVcz25ls2
p2
I1
s.(dp0
Vdikdgc5
p1
I1
sVcz25ls2
p2
I1
s.(dp0
Vdikdgc5
p1
I1
sVcz25ls2
p2
I1
s.(dp0
Vdiurw7f
p1
I1
sVcz25ls2
p2
I1
s.(dp0
Vdknxdxa
p1
I1
sVcz25ls2
p2
I1
s.(dp0
Vdpkxdwv
p1
I1
sVcz25ls2
p2
I1
s.(dp0
Vdpl0kt4
p1
I1
sVcz25ls2
p2
I1
s.(dp0
Vdpl89sv
p1
I1
sVcz25ls2
p2
I1
s.(dp0
Vcz25ls2
p1
I1
sVdsy8c4y
p2
I1
s.(dp0
Vdsya2q6
p1
I1
sVcz25ls2
p2
I1
s.(dp0
Vdsya2q6
p1
I1
sVcz25ls2
p2
I1
s.