(dp0
Vdk4f722
p1
I1
sVdoqm1oz
p2
I1
sVd3ke745
p3
I1
sVdcncbwk
p4
I1
sVd67a1ui
p5
I1
sVd1706zx
p6
I1
sVczdnqrz
p7
I1
sVdqhu5c6
p8
I1
sVdg13otb
p9
I1
sVdhjcfk7
p10
I1
sVdi04l4y
p11
I1
sVdggzpfr
p12
I1
sVddjqtko
p13
I1
sVcyrvbl8
p14
I1
sVdsku15n
p15
I1
sVdkjncph
p16
I1
sVcz4vqdw
p17
I1
sVdcsfs76
p18
I1
sVdh5uo7g
p19
I2
sVdcb194q
p20
I1
sVd034klg
p21
I1
sVdf584yv
p22
I1
sVd77opcg
p23
I1
sVddne61l
p24
I1
sVdjwbfb8
p25
I1
sVdejc3df
p26
I1
sVd711o9f
p27
I3
sVd2y0psi
p28
I1
sVd54ptez
p29
I1
sVdh2yblj
p30
I2
sVdsq1qii
p31
I1
sVddp4c3g
p32
I1
sVde19k0k
p33
I3
sVd37lbbs
p34
I1
sVdarsm5b
p35
I1
sVd0hpigl
p36
I1
sVdc031wv
p37
I1
sVdir7hcc
p38
I1
sVd6k5p9x
p39
I1
sVdb27cxh
p40
I1
sVdcbk8z6
p41
I1
sVddx3f09
p42
I1
sVdpqwnlg
p43
I1
sVdiurw7f
p44
I1
sVd7wwl0p
p45
I1
sVdfp87u8
p46
I1
sVczewv25
p47
I1
sVdnj5a2m
p48
I1
sVdmifp2i
p49
I1
sVdasajg4
p50
I2
sVcylf18g
p51
I1
sVdoqas3l
p52
I1
sVdcb7cde
p53
I1
sVd9ujzg4
p54
I1
sVd290i25
p55
I1
sVdbl7hc4
p56
I1
sVdrsnfln
p57
I1
sVd0j1pae
p58
I3
sVd8d3k7y
p59
I1
sVd90550k
p60
I1
sVd3l9mv2
p61
I1
sVddih3q8
p62
I4
sVdiasrmh
p63
I1
sVdh1vbl5
p64
I1
sVd23mhcu
p65
I1
sVd2n72i7
p66
I1
sVcyn4s0w
p67
I1
sVdj6h7sz
p68
I1
sVddswv43
p69
I3
sVdmsa8xb
p70
I1
sVd3kxa1b
p71
I1
sVdikdgc5
p72
I1
sVdd6ch7t
p73
I1
sVd4v9l4q
p74
I1
sVdh37v0s
p75
I1
sVddrvkn0
p76
I1
sVdnj2qpt
p77
I1
sVddbyfhv
p78
I1
sVdn4v3ok
p79
I1
sVdbv646p
p80
I3
sVdfykdal
p81
I1
sVczmgvv1
p82
I1
sVd6z7y1q
p83
I1
sVdswvjgt
p84
I1
sVdnbv694
p85
I1
sVdfrssfs
p86
I1
sVd35tn9q
p87
I1
sVd8a7h1x
p88
I2
sVd2hbs63
p89
I1
sVd4jsxhv
p90
I1
sVdbu1y8m
p91
I1
sVczpuypu
p92
I1
sVd125aeu
p93
I1
sVd13zwx9
p94
I2
sVdpmwo0n
p95
I1
sVd3ueqf6
p96
I1
sVd1oqc3v
p97
I1
sVcyjcwmd
p98
I1
sVdgb5u4w
p99
I1
sVdiuqyjf
p100
I1
sVdmvaayl
p101
I1
sVdf6rebd
p102
I1
sVdeotnx2
p103
I1
sVd55cgza
p104
I1
sVdq00dyq
p105
I2
sVd78ol2g
p106
I1
sVd97gvbl
p107
I1
sVd233c9y
p108
I2
sVd4ylzc9
p109
I1
sVdfz7txh
p110
I1
sVdau5ibj
p111
I1
sVd671kxn
p112
I1
sVdi41wgs
p113
I1
sVd60vri6
p114
I1
sVcztcl70
p115
I1
sVd35bkkx
p116
I1
sVd6jlm2a
p117
I1
sVczu6qyy
p118
I1
sVd2w9pwc
p119
I1
sVd50wdzs
p120
I1
sVd6si7zz
p121
I1
sVdqxbnpw
p122
I1
sVdeqc714
p123
I1
sVdft5mu5
p124
I1
sVdbesuuk
p125
I1
sVd5isbq3
p126
I1
sVdhueql7
p127
I1
sVdixlf4q
p128
I1
sVd33qmj4
p129
I1
sVd3b0igj
p130
I1
sVd0uk1iz
p131
I1
sVdautp64
p132
I1
sVcyvu5bq
p133
I1
sVd5syv4g
p134
I1
sVdqj3jt6
p135
I1
sVcyjaxya
p136
I1
sVdp1bnvr
p137
I1
sVde81eg0
p138
I1
sVd5zqeca
p139
I1
sVd78z69l
p140
I1
sVdj71jk9
p141
I1
sVdauqgif
p142
I1
sVdfk33bh
p143
I1
sVder19ol
p144
I1
sVd1gezjj
p145
I1
sVd32bfux
p146
I1
sVdc04uye
p147
I1
sVd6sbuql
p148
I1
sVdd94bir
p149
I1
sVcyktnni
p150
I1
sVd8dg0sa
p151
I1
sVdjyj423
p152
I1
sVd1k59oh
p153
I1
sVdddpc95
p154
I1
sVczrid7a
p155
I1
sVd6tjvpm
p156
I2
sVd628yey
p157
I1
sVd0x0n9x
p158
I1
sVditv8e2
p159
I1
sVd47k1wy
p160
I1
sVdqm5jok
p161
I1
sVdivxys2
p162
I1
sVdkjn2h7
p163
I1
sVdosj5wg
p164
I1
sVd4d6pqr
p165
I2
sVd0f8wor
p166
I1
sVdgvca2s
p167
I1
sVdglhb6x
p168
I1
sVcz2mgn0
p169
I2
sVdmjavjj
p170
I1
sVdj7r4u2
p171
I1
sVdcmet8y
p172
I1
sVd0il7b0
p173
I1
sVdg5ifmd
p174
I1
sVdc0cmr6
p175
I4
sVdi1ozx6
p176
I1
sVd2nbilm
p177
I1
sVcyi01xy
p178
I1
sVd1gonlo
p179
I1
sVdalujz7
p180
I1
sVd9zl3v5
p181
I1
sVd1saqf0
p182
I1
sVd2gyt2c
p183
I1
sVdng9mzd
p184
I1
sVdfl02ut
p185
I2
sVd0zvky4
p186
I1
sVd2x5613
p187
I1
sVd8k6207
p188
I1
sVdg1uqbk
p189
I1
sVda8j0zm
p190
I1
sVd10nqh8
p191
I1
sVdihwauf
p192
I1
sVd9doybl
p193
I1
sVddl304e
p194
I1
sVdnrdd2i
p195
I1
sVdi6vkla
p196
I1
sVd4zp2ew
p197
I1
sVd8t6yru
p198
I1
sVdaz7t2u
p199
I1
sVd8dqjka
p200
I1
sVdporx9p
p201
I1
sVdk13akb
p202
I1
sVd7zedin
p203
I1
sVczhes3x
p204
I1
sVdnrp80w
p205
I1
sVdc5yo3o
p206
I1
sVcz96txi
p207
I1
sVdou0qkq
p208
I1
sVdtc0r3s
p209
I1
sVd8axl1t
p210
I1
sVds0mdyg
p211
I1
sVcz6gw5j
p212
I1
sVdc0knj5
p213
I1
sVdmgktp4
p214
I1
sVd0j2yv3
p215
I3
sVd8ekixb
p216
I1
sVd8k2pkd
p217
I1
sVcyjvmsa
p218
I1
sVd0jktwr
p219
I1
sVdgwy3p1
p220
I1
sVczyyybn
p221
I1
sVda60jd8
p222
I1
sVdpu7jnx
p223
I1
sVdh5z0ut
p224
I1
sVd1j70mn
p225
I2
sVd3yexf5
p226
I1
sVddwhhdt
p227
I1
sVcynt59j
p228
I1
sVda9ox0s
p229
I1
sVczqlgsd
p230
I2
sVd561120
p231
I1
sVdre4w4t
p232
I1
sVditvyxk
p233
I1
sVd8m5m7p
p234
I1
sVcyupd8u
p235
I1
sVd001t5c
p236
I2
sVdbfqr0q
p237
I2
sVcys2fht
p238
I1
sVd8mdfjy
p239
I1
sVcyyebxn
p240
I1
sVdbglcj9
p241
I1
sVdhrgzhu
p242
I1
sVdf641a7
p243
I1
sVdixzocg
p244
I1
sVdexqpxw
p245
I1
sVd8exjdr
p246
I1
sVda7zqto
p247
I1
sVdjkclkf
p248
I1
sVd0bxxmm
p249
I1
sVdhypewb
p250
I1
sVczux5oj
p251
I1
sVd7vwg7v
p252
I1
sVd5clbrq
p253
I1
sVd9asg2z
p254
I2
sVdkl3imx
p255
I1
sVd7p8bc8
p256
I1
sVdd9vlvx
p257
I1
sVd3bvdfh
p258
I1
sVd862tq1
p259
I2
sVd18m7gw
p260
I1
sVddkr1f1
p261
I1
sVd4vqz40
p262
I1
sVdoqegln
p263
I1
sVd5igv7e
p264
I1
sVcyvgr1z
p265
I1
sVdn95ssq
p266
I1
sVd30e1w0
p267
I1
sVdfum3z8
p268
I1
sVd3l5fkf
p269
I1
sVd0j5u8r
p270
I2
sVd6rw2xz
p271
I2
sVddicng7
p272
I1
sVdr09cx9
p273
I4
sVd0alej7
p274
I1
sVdfkep28
p275
I1
sVd6jdauo
p276
I2
sVd2yjihp
p277
I1
sVd4jdten
p278
I1
sVddz0qif
p279
I2
sVczmh7cs
p280
I1
sVdmqtnje
p281
I1
sVdotfzzu
p282
I1
sVdrnw2fi
p283
I1
sVdmmgmwk
p284
I1
sVd5arko9
p285
I7
sVd0xqe7u
p286
I1
sVczmhxkm
p287
I1
sVdf4ix69
p288
I1
sVdkj20fj
p289
I1
sVd1j6ubx
p290
I2
sVdarwjrk
p291
I1
sVd50wxsa
p292
I2
sVdeiyots
p293
I3
sVd7qwf87
p294
I1
sVdhxuigt
p295
I1
sVdco4qzl
p296
I1
sVd6c22ja
p297
I1
sVdcauvr8
p298
I1
sVdcap8lk
p299
I1
sVdt14afx
p300
I1
sVdht4xls
p301
I1
sVdfcww1v
p302
I1
sVd4hue9l
p303
I1
sVdah29xk
p304
I1
sVd32srfl
p305
I1
sVd14oe4g
p306
I1
sVd9dez97
p307
I1
sVdcah8o8
p308
I1
sVdscmqkh
p309
I1
sVdpv72f1
p310
I1
sVdbrar8w
p311
I1
sVd7lis78
p312
I1
sVdq55ns9
p313
I1
sVd7uzwbm
p314
I1
sVd17nswm
p315
I1
sVcyjdxjp
p316
I2
sVddi9fne
p317
I2
sVd458lst
p318
I5
sVd27br9h
p319
I1
sVdp7xal5
p320
I1
sVdn3cozn
p321
I2
sVd8c0a6b
p322
I3
sVd44jwr2
p323
I1
sVd6g3fzl
p324
I1
sVdcpv2ja
p325
I1
sVcze3jhw
p326
I1
sVd9p25x7
p327
I1
sVdb8lgnk
p328
I1
sVd2esedh
p329
I1
sVd1grizw
p330
I2
sVczytf5a
p331
I1
sVd6rw4t6
p332
I1
sVdht0wwc
p333
I1
sVdbtu0tr
p334
I1
sVdhk7z7r
p335
I1
sVdruai8o
p336
I1
s.