(dp0
Vd0old9k
p1
I1
s.(dp0
Vd0old9k
p1
I1
sVd4xc9ou
p2
I1
s.(dp0
Vd0old9k
p1
I1
sVd4xc9ou
p2
I1
s.(dp0
Vd0old9k
p1
I1
sVd4xc9ou
p2
I1
s.(dp0
Vd0old9k
p1
I1
sVd80a418
p2
I1
s.(dp0
Vd0old9k
p1
I1
sVd80a418
p2
I1
s.(dp0
Vd0old9k
p1
I1
sVd80a418
p2
I1
s.(dp0
Vd0old9k
p1
I1
sVd80a418
p2
I1
s.(dp0
Vd8yw1wp
p1
I1
sVd0old9k
p2
I1
s.(dp0
Vd8yw1wp
p1
I1
sVd0old9k
p2
I1
s.(dp0
Vd8yw1wp
p1
I1
sVd0old9k
p2
I1
s.(dp0
Vd8yw1wp
p1
I1
sVd0old9k
p2
I1
s.(dp0
Vd8yw1wp
p1
I1
sVd0old9k
p2
I1
s.(dp0
Vd0old9k
p1
I1
sVdeu38k7
p2
I1
s.