(dp0
Vddx3f09
p1
I1
sVd9667hq
p2
I2
sVdbpxtds
p3
I1
sVd244560
p4
I1
sVd5mhi45
p5
I1
sVdcdi9oi
p6
I1
sVczzhesm
p7
I1
sVdfqub0f
p8
I1
sVdelmps7
p9
I1
sVdot7l7o
p10
I1
sVd3lvoz8
p11
I1
sVdsp79az
p12
I1
sVd4l80or
p13
I1
sVd1ndalj
p14
I1
sVddr6xvl
p15
I1
sVd4nwzwf
p16
I1
sVdh7b7rf
p17
I1
sVcz9z24y
p18
I1
sVd7mwib4
p19
I1
s.