(dp0
Vd99380i
p1
I1
s.(dp0
Vddc52gs
p1
I1
sVd99380i
p2
I1
s.(dp0
Vddcbgwl
p1
I1
sVd99380i
p2
I1
s.(dp0
Vdeutt2s
p1
I1
sVd99380i
p2
I1
s.(dp0
Vdfwkppd
p1
I1
sVd99380i
p2
I1
s.(dp0
Vdgf8jcr
p1
I1
sVd99380i
p2
I1
s.(dp0
Vdhcjex5
p1
I1
sVd99380i
p2
I1
s.(dp0
Vd99380i
p1
I1
sVdioerfq
p2
I1
s.