(dp0
Vd3w2wvj
p1
I1
sVdbzw8rz
p2
I1
sVdaqq16n
p3
I1
sVd8ta18a
p4
I1
sVdieuukd
p5
I1
sVdhkf93w
p6
I2
sVd14kzsx
p7
I1
sVd7671dh
p8
I1
sVd5oywqq
p9
I2
sVds1sjmj
p10
I1
sVdha4zqz
p11
I2
sVddc35kr
p12
I2
sVdghkd06
p13
I1
sVd1wejbv
p14
I1
sVcyib09v
p15
I1
sVd86vvos
p16
I1
sVd5ozh3j
p17
I1
sVdemjeoq
p18
I1
sVdgi1cl4
p19
I1
s.