(dp0
Vcyi7a4l
p1
I1
s.(dp0
Vcyi7a4l
p1
I1
sVcyjgz3p
p2
I1
s.(dp0
Vcyi7a4l
p1
I1
sVcyl2h2d
p2
I1
s.(dp0
Vcyi7a4l
p1
I1
sVcyleyui
p2
I1
s.(dp0
Vcyi7a4l
p1
I1
sVcymyvas
p2
I1
s.(dp0
Vcyi7a4l
p1
I1
sVcymyvas
p2
I1
s.(dp0
Vcyi7a4l
p1
I1
sVcyn54av
p2
I1
s.(dp0
Vcyi7a4l
p1
I1
sVcyn6b58
p2
I1
s.(dp0
Vcyi7a4l
p1
I1
sVcyncycf
p2
I1
s.(dp0
Vcyozkg1
p1
I1
sVcyi7a4l
p2
I1
s.(dp0
Vcyi7a4l
p1
I1
sVcyqjqeq
p2
I1
s.(dp0
Vcyi7a4l
p1
I1
sVcyqkpjb
p2
I1
s.(dp0
Vcyi7a4l
p1
I1
sVcyqkpjb
p2
I1
s.(dp0
Vcyqw1rq
p1
I1
sVcyi7a4l
p2
I1
s.(dp0
Vcyrq8u8
p1
I1
sVcyi7a4l
p2
I1
s.(dp0
Vcyi7a4l
p1
I1
sVcystqd8
p2
I1
s.(dp0
Vcyi7a4l
p1
I1
sVcyw6o1k
p2
I1
s.(dp0
Vcyi7a4l
p1
I1
sVcywjls8
p2
I1
s.(dp0
Vcyi7a4l
p1
I1
sVcz6emu6
p2
I1
s.(dp0
Vcz6idb8
p1
I1
sVcyi7a4l
p2
I1
s.(dp0
Vcyi7a4l
p1
I1
sVcz7hdee
p2
I1
s.(dp0
Vczcd6y5
p1
I1
sVcyi7a4l
p2
I1
s.(dp0
Vcyi7a4l
p1
I1
sVczgylpy
p2
I1
s.(dp0
Vczm7k0t
p1
I1
sVcyi7a4l
p2
I1
s.(dp0
Vcyi7a4l
p1
I1
sVcznngno
p2
I1
s.(dp0
Vcyi7a4l
p1
I1
sVczokfxt
p2
I1
s.(dp0
Vcyi7a4l
p1
I1
sVczowruf
p2
I1
s.(dp0
Vczqo9yq
p1
I1
sVcyi7a4l
p2
I1
s.(dp0
Vcyi7a4l
p1
I1
sVczwa6lv
p2
I1
s.(dp0
Vcyi7a4l
p1
I1
sVczxnwan
p2
I1
s.(dp0
Vd036de9
p1
I1
sVcyi7a4l
p2
I1
s.(dp0
Vd03gyse
p1
I1
sVcyi7a4l
p2
I1
s.(dp0
Vcyi7a4l
p1
I1
sVd045tcv
p2
I1
s.(dp0
Vd048byz
p1
I1
sVcyi7a4l
p2
I1
s.(dp0
Vd04ll95
p1
I1
sVcyi7a4l
p2
I1
s.(dp0
Vcyi7a4l
p1
I1
sVd055vlk
p2
I1
s.(dp0
Vcyi7a4l
p1
I1
sVd07pkrv
p2
I1
s.(dp0
Vcyi7a4l
p1
I1
sVd09wnog
p2
I1
s.(dp0
Vcyi7a4l
p1
I1
sVd0a772v
p2
I1
s.(dp0
Vcyi7a4l
p1
I1
sVd0hd2ao
p2
I1
s.(dp0
Vd0i92h7
p1
I1
sVcyi7a4l
p2
I1
s.(dp0
Vcyi7a4l
p1
I1
sVd0kmssg
p2
I1
s.(dp0
Vcyi7a4l
p1
I1
sVd0l5oq3
p2
I1
s.(dp0
Vcyi7a4l
p1
I1
sVd0mcb9l
p2
I1
s.(dp0
Vcyi7a4l
p1
I1
sVd0p82va
p2
I1
s.(dp0
Vcyi7a4l
p1
I1
sVd0rd37w
p2
I1
s.(dp0
Vcyi7a4l
p1
I1
sVd0tjaip
p2
I1
s.(dp0
Vcyi7a4l
p1
I1
sVd0v9mjs
p2
I1
s.(dp0
Vcyi7a4l
p1
I1
sVd0y1a7x
p2
I1
s.(dp0
Vd124oqf
p1
I1
sVcyi7a4l
p2
I1
s.(dp0
Vcyi7a4l
p1
I1
sVd169nsa
p2
I1
s.(dp0
Vcyi7a4l
p1
I1
sVd16ya6e
p2
I1
s.(dp0
Vcyi7a4l
p1
I1
sVd1721pf
p2
I1
s.(dp0
Vcyi7a4l
p1
I1
sVd175hwk
p2
I1
s.(dp0
Vcyi7a4l
p1
I1
sVd175hwk
p2
I1
s.(dp0
Vcyi7a4l
p1
I1
sVd176zn0
p2
I1
s.(dp0
Vd17anf5
p1
I1
sVcyi7a4l
p2
I1
s.(dp0
Vcyi7a4l
p1
I1
sVd17c90a
p2
I1
s.(dp0
Vcyi7a4l
p1
I1
sVd183zig
p2
I1
s.(dp0
Vcyi7a4l
p1
I1
sVd1adaoc
p2
I1
s.(dp0
Vcyi7a4l
p1
I1
sVd1adaoc
p2
I1
s.(dp0
Vcyi7a4l
p1
I1
sVd1adaoc
p2
I1
s.(dp0
Vcyi7a4l
p1
I1
sVd1adaoc
p2
I1
s.(dp0
Vcyi7a4l
p1
I1
sVd1adaoc
p2
I1
s.(dp0
Vd1dizm7
p1
I1
sVcyi7a4l
p2
I1
s.(dp0
Vcyi7a4l
p1
I1
sVd1gn2ul
p2
I1
s.(dp0
Vcyi7a4l
p1
I1
sVd1grq3a
p2
I1
s.(dp0
Vcyi7a4l
p1
I1
sVd1irdbf
p2
I1
s.(dp0
Vcyi7a4l
p1
I1
sVd1jszfn
p2
I1
s.(dp0
Vd1kvzpb
p1
I1
sVcyi7a4l
p2
I1
s.(dp0
Vcyi7a4l
p1
I1
sVd1mr47q
p2
I1
s.(dp0
Vcyi7a4l
p1
I1
sVd1say5u
p2
I1
s.(dp0
Vd1t3gm4
p1
I1
sVcyi7a4l
p2
I1
s.(dp0
Vcyi7a4l
p1
I1
sVd1tinpc
p2
I1
s.(dp0
Vcyi7a4l
p1
I1
sVd1w9jb1
p2
I1
s.(dp0
Vcyi7a4l
p1
I1
sVd1z87sd
p2
I1
s.(dp0
Vd21ova1
p1
I1
sVcyi7a4l
p2
I1
s.(dp0
Vd268t2h
p1
I1
sVcyi7a4l
p2
I1
s.(dp0
Vcyi7a4l
p1
I1
sVd27cvhp
p2
I1
s.(dp0
Vcyi7a4l
p1
I1
sVd28whun
p2
I1
s.(dp0
Vcyi7a4l
p1
I1
sVd2ajeup
p2
I1
s.(dp0
Vcyi7a4l
p1
I1
sVd2c55uq
p2
I1
s.(dp0
Vcyi7a4l
p1
I1
sVd2g8jbn
p2
I1
s.(dp0
Vcyi7a4l
p1
I1
sVd2ixf6i
p2
I1
s.(dp0
Vcyi7a4l
p1
I1
sVd2jiizq
p2
I1
s.(dp0
Vd2krqyz
p1
I1
sVcyi7a4l
p2
I1
s.(dp0
Vcyi7a4l
p1
I1
sVd2liypu
p2
I1
s.(dp0
Vcyi7a4l
p1
I1
sVd2pc4gw
p2
I1
s.(dp0
Vcyi7a4l
p1
I1
sVd2pc4gw
p2
I1
s.(dp0
Vcyi7a4l
p1
I1
sVd2t3byz
p2
I1
s.(dp0
Vcyi7a4l
p1
I1
sVd2urdj3
p2
I1
s.(dp0
Vcyi7a4l
p1
I1
sVd2vf9bv
p2
I1
s.(dp0
Vcyi7a4l
p1
I1
sVd2w1z3j
p2
I1
s.(dp0
Vcyi7a4l
p1
I1
sVd2ww0o0
p2
I1
s.(dp0
Vcyi7a4l
p1
I1
sVd2z6ajs
p2
I1
s.(dp0
Vd3i0fa2
p1
I1
sVcyi7a4l
p2
I1
s.(dp0
Vcyi7a4l
p1
I1
sVd3r5344
p2
I1
s.(dp0
Vcyi7a4l
p1
I1
sVd3rkyha
p2
I1
s.(dp0
Vcyi7a4l
p1
I1
sVd3tmph2
p2
I1
s.(dp0
Vcyi7a4l
p1
I1
sVd3v15y8
p2
I1
s.(dp0
Vcyi7a4l
p1
I1
sVd3yr58t
p2
I1
s.(dp0
Vcyi7a4l
p1
I1
sVd41cr9t
p2
I1
s.(dp0
Vcyi7a4l
p1
I1
sVd41cr9t
p2
I1
s.(dp0
Vcyi7a4l
p1
I1
sVd475ut9
p2
I1
s.(dp0
Vcyi7a4l
p1
I1
sVd48dqqn
p2
I1
s.(dp0
Vcyi7a4l
p1
I1
sVd49h5p4
p2
I1
s.(dp0
Vd4dh2af
p1
I1
sVcyi7a4l
p2
I1
s.(dp0
Vcyi7a4l
p1
I1
sVd4gl7xf
p2
I1
s.(dp0
Vcy(dp0
Vdtb6z38
p1
I1
sVcyi7a4l
p2
I1
s.