(dp0
Vd4fbdv6
p1
I1
sVd2wc0mo
p2
I1
sVdfnmro2
p3
I1
sVdcapn8z
p4
I1
sVdr0twjh
p5
I1
sVdb247j3
p6
I1
sVdopwqqs
p7
I1
sVdigshkc
p8
I1
sVdk33rad
p9
I1
sVd4rkkm0
p10
I1
sVdjk9nf0
p11
I1
sVdo5q4q9
p12
I1
sVd02yaek
p13
I1
sVdi73pme
p14
I1
sVdk6tbh0
p15
I1
sVd5dhduo
p16
I1
sVda5iso1
p17
I1
sVd1x57dw
p18
I1
sVd5wcjvj
p19
I1
sVdhlo1l2
p20
I1
sVczzf142
p21
I1
sVdjmuzok
p22
I1
sVd4zv67a
p23
I1
sVdhz81xv
p24
I1
s.