(dp0
Vcykx159
p1
I1
s.(dp0
Vcymot7h
p1
I1
sVcykx159
p2
I1
s.(dp0
Vcymot7h
p1
I1
sVcykx159
p2
I1
s.(dp0
Vcz0lqiv
p1
I1
sVcykx159
p2
I1
s.(dp0
Vcz7sgk1
p1
I1
sVcykx159
p2
I1
s.(dp0
Vczaur4t
p1
I1
sVcykx159
p2
I1
s.(dp0
Vczaur4t
p1
I1
sVcykx159
p2
I1
s.(dp0
Vczaur4t
p1
I1
sVcykx159
p2
I1
s.(dp0
Vczaur4t
p1
I1
sVcykx159
p2
I1
s.(dp0
Vd0efaca
p1
I1
sVcykx159
p2
I1
s.(dp0
Vd0faj7p
p1
I1
sVcykx159
p2
I1
s.(dp0
Vd0faj7p
p1
I1
sVcykx159
p2
I1
s.(dp0
Vd0faj7p
p1
I1
sVcykx159
p2
I1
s.(dp0
Vd0faj7p
p1
I1
sVcykx159
p2
I1
s.(dp0
Vd0ffkwn
p1
I1
sVcykx159
p2
I1
s.(dp0
Vd0fhqf8
p1
I1
sVcykx159
p2
I1
s.(dp0
Vd0fi2bc
p1
I1
sVcykx159
p2
I1
s.(dp0
Vd0fju2h
p1
I1
sVcykx159
p2
I1
s.(dp0
Vd0flbkw
p1
I1
sVcykx159
p2
I1
s.(dp0
Vd0fm8p3
p1
I1
sVcykx159
p2
I1
s.(dp0
Vd0fmvzp
p1
I1
sVcykx159
p2
I1
s.(dp0
Vd0fmvzp
p1
I1
sVcykx159
p2
I1
s.(dp0
Vd0fq2zs
p1
I1
sVcykx159
p2
I1
s.(dp0
Vd0fqltv
p1
I1
sVcykx159
p2
I1
s.(dp0
Vd0lfqqb
p1
I1
sVcykx159
p2
I1
s.(dp0
Vd0wkbwr
p1
I1
sVcykx159
p2
I1
s.(dp0
Vd10n8va
p1
I1
sVcykx159
p2
I1
s.(dp0
Vd1d39x4
p1
I1
sVcykx159
p2
I1
s.(dp0
Vd1d3i81
p1
I1
sVcykx159
p2
I1
s.(dp0
Vd1m7wku
p1
I1
sVcykx159
p2
I1
s.(dp0
Vd1md6f9
p1
I1
sVcykx159
p2
I1
s.(dp0
Vd1md6f9
p1
I1
sVcykx159
p2
I1
s.(dp0
Vd2kuixj
p1
I1
sVcykx159
p2
I1
s.(dp0
Vd2npzus
p1
I1
sVcykx159
p2
I1
s.(dp0
Vd2xu4y7
p1
I1
sVcykx159
p2
I1
s.(dp0
Vd63cpcg
p1
I1
sVcykx159
p2
I1
s.(dp0
Vd63cpcg
p1
I1
sVcykx159
p2
I1
s.(dp0
Vd66o2cw
p1
I1
sVcykx159
p2
I1
s.(dp0
Vd6iyed7
p1
I1
sVcykx159
p2
I1
s.(dp0
Vd6iyed7
p1
I1
sVcykx159
p2
I1
s.(dp0
Vd73pep8
p1
I1
sVcykx159
p2
I1
s.(dp0
Vd8csm66
p1
I1
sVcykx159
p2
I1
s.(dp0
Vd8imxfd
p1
I1
sVcykx159
p2
I1
s.(dp0
Vd8pk3ww
p1
I1
sVcykx159
p2
I1
s.(dp0
Vd97czr7
p1
I1
sVcykx159
p2
I1
s.(dp0
Vd9r58zk
p1
I1
sVcykx159
p2
I1
s.(dp0
Vd9r58zk
p1
I1
sVcykx159
p2
I1
s.(dp0
Vd9r58zk
p1
I1
sVcykx159
p2
I1
s.(dp0
Vd9raczd
p1
I1
sVcykx159
p2
I1
s.(dp0
Vd9xq2xe
p1
I1
sVcykx159
p2
I1
s.(dp0
Vdb9h3iv
p1
I1
sVcykx159
p2
I1
s.(dp0
Vdbej0af
p1
I1
sVcykx159
p2
I1
s.(dp0
Vdbenhpa
p1
I1
sVcykx159
p2
I1
s.(dp0
Vdbep9yw
p1
I1
sVcykx159
p2
I1
s.(dp0
Vdbep9yw
p1
I1
sVcykx159
p2
I1
s.(dp0
Vdbw5aov
p1
I1
sVcykx159
p2
I1
s.(dp0
Vdc2lrm5
p1
I1
sVcykx159
p2
I1
s.(dp0
Vdd3yvdo
p1
I1
sVcykx159
p2
I1
s.(dp0
Vdd3yvdo
p1
I1
sVcykx159
p2
I1
s.(dp0
Vdd3yvdo
p1
I1
sVcykx159
p2
I1
s.(dp0
Vdd3yvdo
p1
I1
sVcykx159
p2
I1
s.(dp0
Vdd3yvdo
p1
I1
sVcykx159
p2
I1
s.(dp0
Vdd3yvdo
p1
I1
sVcykx159
p2
I1
s.(dp0
Vdd5bl26
p1
I1
sVcykx159
p2
I1
s.(dp0
Vdddvzuj
p1
I1
sVcykx159
p2
I1
s.(dp0
Vddi4xmc
p1
I1
sVcykx159
p2
I1
s.(dp0
Vddjaz51
p1
I1
sVcykx159
p2
I1
s.(dp0
Vddjffyg
p1
I1
sVcykx159
p2
I1
s.(dp0
Vddjffyg
p1
I1
sVcykx159
p2
I1
s.(dp0
Vddjffyg
p1
I1
sVcykx159
p2
I1
s.(dp0
Vddjm81x
p1
I1
sVcykx159
p2
I1
s.(dp0
Vddjqur1
p1
I1
sVcykx159
p2
I1
s.(dp0
Vddjtjk3
p1
I1
sVcykx159
p2
I1
s.(dp0
Vddvniz9
p1
I1
sVcykx159
p2
I1
s.(dp0
Vddxhg53
p1
I1
sVcykx159
p2
I1
s.(dp0
Vdf308hv
p1
I1
sVcykx159
p2
I1
s.(dp0
Vdfc51oj
p1
I1
sVcykx159
p2
I1
s.(dp0
Vdfdwe45
p1
I1
sVcykx159
p2
I1
s.(dp0
Vdgetnrf
p1
I1
sVcykx159
p2
I1
s.(dp0
Vdgq7o0a
p1
I1
sVcykx159
p2
I1
s.(dp0
Vdgqplmv
p1
I1
sVcykx159
p2
I1
s.(dp0
Vdi3wgrh
p1
I1
sVcykx159
p2
I1
s.(dp0
Vdimoeow
p1
I1
sVcykx159
p2
I1
s.(dp0
Vdinykvg
p1
I1
sVcykx159
p2
I1
s.(dp0
Vdinzm24
p1
I1
sVcykx159
p2
I1
s.(dp0
Vdinzm24
p1
I1
sVcykx159
p2
I1
s.(dp0
Vdio22w1
p1
I1
sVcykx159
p2
I1
s.(dp0
Vdiuirzm
p1
I1
sVcykx159
p2
I1
s.(dp0
Vdjhdid6
p1
I1
sVcykx159
p2
I1
s.(dp0
Vdjhfvxs
p1
I1
sVcykx159
p2
I1
s.(dp0
Vdjhfvxs
p1
I1
sVcykx159
p2
I1
s.(dp0
Vdjhg1cs
p1
I1
sVcykx159
p2
I1
s.(dp0
Vdjhg1cs
p1
I1
sVcykx159
p2
I1
s.(dp0
Vdjhg1cs
p1
I1
sVcykx159
p2
I1
s.(dp0
Vdjhg1cs
p1
I1
sVcykx159
p2
I1
s.(dp0
Vdn3mqw8
p1
I1
sVcykx159
p2
I1
s.(dp0
Vdn3mqw8
p1
I1
sVcykx159
p2
I1
s.(dp0
Vdn3mqw8
p1
I1
sVcykx159
p2
I1
s.(dp0
Vdn3mqw8
p1
I1
sVcykx159
p2
I1
s.(dp0
Vdrfh0ng
p1
I1
sVcykx159
p2
I1
s.(dp0
Vdsu0hyd
p1
I1
sVcykx159
p2
I1
s.(dp0
Vdswiqbt
p1
I1
sVcykx159
p2
I1
s.