(dp0
Vdinzm24
p1
I1
sVdstyrux
p2
I1
sVdio22w1
p3
I1
sVde4q1vd
p4
I1
sVd0fi2bc
p5
I1
sVdsujri8
p6
I1
sVcyisqip
p7
I1
sVd0th8ku
p8
I1
sVdhie596
p9
I1
sVdrfdk50
p10
I2
sVdp4llaq
p11
I1
sVd7oho22
p12
I1
sVdcmfd5g
p13
I1
sVdjhfvxs
p14
I3
sVd8k6207
p15
I1
sVdrfh0ng
p16
I1
sVd4v8x37
p17
I1
sVde5s2ec
p18
I1
sVdfdwe45
p19
I1
sVczeaex6
p20
I1
sVd1d39x4
p21
I15
sVd0faj7p
p22
I4
sVdt7xnke
p23
I1
sVdc5a9tj
p24
I1
sVdog69la
p25
I1
sVczaur4t
p26
I6
sVdhoc2b6
p27
I1
sVdrviq30
p28
I1
sVd0lfqqb
p29
I1
sVcymot7h
p30
I1
sVdd3z7zx
p31
I1
sVdociygv
p32
I1
sVczfow7w
p33
I1
sVd0fjbh4
p34
I1
sVdd3yvdo
p35
I2
sVd5lyppu
p36
I1
sVd3ldjbr
p37
I1
sVd2npzus
p38
I1
sVdecty8a
p39
I1
sVdg93lvy
p40
I1
sVdio2m20
p41
I3
sVdbep9yw
p42
I1
sVd0fhqf8
p43
I2
sVd6i2mb5
p44
I1
sVd3a1tte
p45
I1
sVds19iwt
p46
I1
sVd63cpcg
p47
I1
sVd690pkc
p48
I1
sVd1mfbfh
p49
I2
sVdp7p1ju
p50
I1
sVd0fmvzp
p51
I1
sVd0ffkwn
p52
I1
sVd0fju2h
p53
I1
sVd1upj2g
p54
I2
sVdiiz1bs
p55
I1
s.