(dp0
Vd3tfg7q
p1
I2
sVd0yf4z2
p2
I1
sVdcn797t
p3
I1
sVdcdtvay
p4
I1
sVdkn1xf5
p5
I1
sVd5zpcdz
p6
I1
sVdbhcyt1
p7
I1
sVd3qsyq0
p8
I1
sVd7lid6y
p9
I1
sVd7llmkx
p10
I2
sVdc2t7ct
p11
I1
sVdc9fni7
p12
I2
sVd6htjn8
p13
I1
sVcyqq0kb
p14
I1
sVd5zp7vp
p15
I1
sVd1nmt2s
p16
I1
sVd5ihk7n
p17
I1
sVdc463aw
p18
I1
sVd2svipp
p19
I1
sVdmmfon0
p20
I1
sVd0043t4
p21
I1
sVd5odjpq
p22
I1
sVd44p8zp
p23
I1
sVd31y6dt
p24
I1
sVdb09xqr
p25
I1
sVd5odjir
p26
I1
sVd015evk
p27
I1
sVdjj403x
p28
I1
sVd9f45p1
p29
I1
sVd8vfk3y
p30
I1
sVd81mson
p31
I1
sVd04ra9a
p32
I1
sVd1e68rz
p33
I1
sVcyskz5p
p34
I1
sVdf3q8g2
p35
I1
sVd0x8prk
p36
I1
sVded8ifc
p37
I1
sVczzpzwo
p38
I1
sVd3x5zyv
p39
I1
sVd3p67mf
p40
I1
sVd01k9os
p41
I1
sVddu099g
p42
I1
sVdk262n1
p43
I3
sVd768ryy
p44
I1
sVdg2etk4
p45
I1
sVd2js3z5
p46
I1
sVdh6qzbx
p47
I1
sVdbj2vw9
p48
I1
s.