(dp0
Vcz0b3c8
p1
I1
s.(dp0
Vcz0b3c8
p1
I1
sVcz3diyt
p2
I1
s.(dp0
Vcz0b3c8
p1
I1
sVczduff2
p2
I1
s.(dp0
Vczrp031
p1
I1
sVcz0b3c8
p2
I1
s.(dp0
Vd0kw6g2
p1
I1
sVcz0b3c8
p2
I1
s.(dp0
Vcz0b3c8
p1
I1
sVd0rdv48
p2
I1
s.(dp0
Vd0xzwip
p1
I1
sVcz0b3c8
p2
I1
s.(dp0
Vd0yd2f6
p1
I1
sVcz0b3c8
p2
I1
s.(dp0
Vd16bk4k
p1
I1
sVcz0b3c8
p2
I1
s.(dp0
Vd2obylk
p1
I1
sVcz0b3c8
p2
I1
s.(dp0
Vd2wc5z9
p1
I1
sVcz0b3c8
p2
I1
s.(dp0
Vd2wc5z9
p1
I1
sVcz0b3c8
p2
I1
s.(dp0
Vd3ghiak
p1
I1
sVcz0b3c8
p2
I1
s.(dp0
Vd5oxvvi
p1
I1
sVcz0b3c8
p2
I1
s.(dp0
Vd69s6uh
p1
I1
sVcz0b3c8
p2
I1
s.(dp0
Vd69s6uh
p1
I1
sVcz0b3c8
p2
I1
s.(dp0
Vd69s6uh
p1
I1
sVcz0b3c8
p2
I1
s.(dp0
Vd69yqug
p1
I1
sVcz0b3c8
p2
I1
s.(dp0
Vd6op1i9
p1
I1
sVcz0b3c8
p2
I1
s.(dp0
Vd6opl7y
p1
I1
sVcz0b3c8
p2
I1
s.(dp0
Vd6ug8z8
p1
I1
sVcz0b3c8
p2
I1
s.(dp0
Vd7ibydl
p1
I1
sVcz0b3c8
p2
I1
s.(dp0
Vd8n6owh
p1
I1
sVcz0b3c8
p2
I1
s.(dp0
Vd9o77s3
p1
I1
sVcz0b3c8
p2
I1
s.(dp0
Vd9q1a3g
p1
I1
sVcz0b3c8
p2
I1
s.(dp0
Vd9vxt16
p1
I1
sVcz0b3c8
p2
I1
s.(dp0
Vd9ysliq
p1
I1
sVcz0b3c8
p2
I1
s.(dp0
Vdb574lh
p1
I1
sVcz0b3c8
p2
I1
s.(dp0
Vdb574lh
p1
I1
sVcz0b3c8
p2
I1
s.(dp0
Vdbv9zy7
p1
I1
sVcz0b3c8
p2
I1
s.(dp0
Vdc4dx1v
p1
I1
sVcz0b3c8
p2
I1
s.(dp0
Vddgfnss
p1
I1
sVcz0b3c8
p2
I1
s.(dp0
Vddgfnss
p1
I1
sVcz0b3c8
p2
I1
s.(dp0
Vddu60op
p1
I1
sVcz0b3c8
p2
I1
s.(dp0
Vddxum3e
p1
I1
sVcz0b3c8
p2
I1
s.(dp0
Vdeg8511
p1
I1
sVcz0b3c8
p2
I1
s.(dp0
Vdeg8511
p1
I1
sVcz0b3c8
p2
I1
s.(dp0
Vdeg8511
p1
I1
sVcz0b3c8
p2
I1
s.(dp0
Vdeg8d7k
p1
I1
sVcz0b3c8
p2
I1
s.(dp0
Vdej9rhv
p1
I1
sVcz0b3c8
p2
I1
s.(dp0
Vderlu2x
p1
I1
sVcz0b3c8
p2
I1
s.(dp0
Vcz0b3c8
p1
I1
sVdik5u4b
p2
I1
s.(dp0
Vditbfej
p1
I1
sVcz0b3c8
p2
I1
s.(dp0
Vdjh6qqa
p1
I1
sVcz0b3c8
p2
I1
s.(dp0
Vdjh6qqa
p1
I1
sVcz0b3c8
p2
I1
s.(dp0
Vdjq481c
p1
I1
sVcz0b3c8
p2
I1
s.(dp0
Vdkei15l
p1
I1
sVcz0b3c8
p2
I1
s.(dp0
Vdn3g3de
p1
I1
sVcz0b3c8
p2
I1
s.(dp0
Vdnm459f
p1
I1
sVcz0b3c8
p2
I1
s.(dp0
Vdo28cb0
p1
I1
sVcz0b3c8
p2
I1
s.(dp0
Vdoawxzs
p1
I1
sVcz0b3c8
p2
I1
s.(dp0
Vdoawxzs
p1
I1
sVcz0b3c8
p2
I1
s.(dp0
Vdoi0qt2
p1
I1
sVcz0b3c8
p2
I1
s.(dp0
Vdovmdaq
p1
I1
sVcz0b3c8
p2
I1
s.(dp0
Vdovmdaq
p1
I1
sVcz0b3c8
p2
I1
s.(dp0
Vdovmdaq
p1
I1
sVcz0b3c8
p2
I1
s.(dp0
Vdovmn69
p1
I1
sVcz0b3c8
p2
I1
s.(dp0
Vdswu9n1
p1
I1
sVcz0b3c8
p2
I1
s.