(dp0
Vdfidbmh
p1
I1
sVdbb8wux
p2
I2
sVcz5hg0n
p3
I1
sVd3bibg3
p4
I1
sVd4vppeo
p5
I1
sVdhprya6
p6
I6
sVd86yav1
p7
I1
sVcypw9hx
p8
I1
sVdg7pi74
p9
I1
sVd5desji
p10
I1
sVd49w9cb
p11
I1
sVd83v108
p12
I1
sVd0kriqg
p13
I1
sVd6xp36c
p14
I1
sVd69e936
p15
I5
sVd68xkgd
p16
I1
sVdo4vw2q
p17
I1
sVdekiqu3
p18
I1
s.