(dp0
Vd3wqeet
p1
I2
sVdggypm5
p2
I1
sVd225oyn
p3
I1
sVd8eeehc
p4
I1
sVd9tuq4q
p5
I2
sVd2hjxo4
p6
I1
sVdic0qmn
p7
I1
sVd5xa5p6
p8
I1
sVd2ej5t1
p9
I1
sVdiocyzb
p10
I1
sVdejnbbq
p11
I1
sVdi1d8oy
p12
I1
sVd5x8vys
p13
I1
sVddxg6qg
p14
I1
sVdodo5x0
p15
I1
sVddcn1i2
p16
I1
sVd6awxi7
p17
I1
sVd5x8u3f
p18
I1
sVd5x94m6
p19
I1
sVd59vg0l
p20
I1
sVdh71ote
p21
I2
sVdpryb60
p22
I1
sVd0gy7yx
p23
I1
sVdfh4skb
p24
I1
sVde06ytv
p25
I1
sVd0zl4h5
p26
I1
sVd4l487o
p27
I1
sVdcyu374
p28
I1
sVdswai7g
p29
I1
sVd9pp42q
p30
I1
sVd9a4mh8
p31
I1
sVd3e4q1t
p32
I1
sVdgoo0ge
p33
I1
sVdjwr45c
p34
I1
sVd3iuaay
p35
I1
sVded4805
p36
I1
sVdk7geze
p37
I1
sVdpy4pxu
p38
I1
sVd85td3c
p39
I1
sVdksieoc
p40
I1
s.