(dp0
Vd93jkrv
p1
I1
sVdehm85i
p2
I1
sVd4zm112
p3
I1
sVdk63f7b
p4
I1
sVdoi5p34
p5
I1
sVdimqnpx
p6
I1
sVd95drlb
p7
I1
sVdg67nyv
p8
I1
sVda2jl0q
p9
I2
sVdj3u14s
p10
I1
sVdgn9234
p11
I2
sVdtei26f
p12
I1
sVdbvom3m
p13
I1
s.