(dp0
Vd3ne18b
p1
I1
sVd7rklrb
p2
I1
sVcz9m7ij
p3
I1
sVdinu4ss
p4
I1
sVd4lm745
p5
I1
sVd92r26c
p6
I2
sVdipkdc9
p7
I1
sVd4zab44
p8
I1
sVd6lzfjb
p9
I1
sVdkatxzz
p10
I1
sVdcf3pky
p11
I1
sVd21wzhp
p12
I1
sVd2kygbd
p13
I2
sVddp8awb
p14
I1
sVdbyp3la
p15
I1
sVdk8l1s2
p16
I1
sVddrfzxn
p17
I3
sVddrj123
p18
I1
sVdeoz2mp
p19
I1
sVd0hxv07
p20
I1
sVd0i99e4
p21
I1
sVd9n4spi
p22
I1
sVdbsuicc
p23
I1
sVd9tkze0
p24
I1
sVdau6upg
p25
I1
sVd2fmy9e
p26
I2
sVd1vzp4y
p27
I1
sVd0jvyge
p28
I1
sVddrgj56
p29
I1
sVdfox3ig
p30
I1
sVdaz4kvb
p31
I1
sVd8s1fdf
p32
I1
sVdce92e1
p33
I1
sVd1cqcmz
p34
I3
sVd4qqwr3
p35
I1
sVdr2mpb8
p36
I1
sVd6ke2rg
p37
I1
sVczarskp
p38
I1
sVdi54zxn
p39
I1
sVdgwtfnk
p40
I1
sVdairblz
p41
I1
sVdq3iej5
p42
I1
sVd1e3w77
p43
I1
sVdctzu0p
p44
I1
sVddpxqdq
p45
I1
sVdepygco
p46
I1
sVcz561ly
p47
I1
sVd7dxwdw
p48
I1
sVddxeub4
p49
I1
sVdb7o5vs
p50
I1
sVd9yi1fo
p51
I1
sVddmth2f
p52
I1
sVd725uhx
p53
I1
sVdq1uh9u
p54
I1
sVd7e7zca
p55
I1
sVd4kou1n
p56
I1
sVdn0jbos
p57
I2
sVdcam03x
p58
I1
sVdszz8ws
p59
I1
sVd4awv0x
p60
I1
sVd98edp3
p61
I1
sVd7nd1lp
p62
I1
sVd5krp93
p63
I1
sVd5eolbp
p64
I2
sVda462vq
p65
I1
sVd3b62x0
p66
I1
sVdtgfx36
p67
I1
sVdgkc8sa
p68
I1
sVd0dj30q
p69
I1
sVdc98yy0
p70
I1
sVdft8rw0
p71
I1
sVdh9rilv
p72
I2
sVd485jer
p73
I3
sVd4awz3q
p74
I2
sVd0g2c69
p75
I1
sVd1x9015
p76
I2
sVd1cqf2d
p77
I2
sVd2tl0f6
p78
I1
sVdf4y1ij
p79
I1
sVd4xtg3r
p80
I1
sVdo86ffe
p81
I3
sVdp03047
p82
I1
sVd6hsrdz
p83
I1
sVd51bitb
p84
I1
sVdbssg9f
p85
I1
sVdca3tuj
p86
I1
sVdbk3ht7
p87
I1
sVdcg9gtd
p88
I1
sVdnh1kzv
p89
I2
sVdhcz372
p90
I1
sVdae1v8n
p91
I1
sVczv9ly1
p92
I1
sVd2k9lsf
p93
I1
sVd1j1d5m
p94
I1
sVd4bh14r
p95
I1
sVd4u12jm
p96
I1
sVdhb49vd
p97
I1
sVdhvro4m
p98
I1
sVdn21k4m
p99
I1
sVd86vvos
p100
I1
sVd9nf7kb
p101
I1
sVczzdz3u
p102
I1
sVddls1ht
p103
I1
sVcz6k337
p104
I1
sVdnokjip
p105
I1
sVcz5upjm
p106
I2
sVd4c89yn
p107
I1
sVcyn2kkw
p108
I1
sVczgzkt3
p109
I1
sVd5t4fd2
p110
I1
sVcz7xy85
p111
I1
sVdn2hn4n
p112
I1
sVdafwc13
p113
I3
sVd3iul8a
p114
I1
sVdojcph2
p115
I1
sVd3zarza
p116
I3
sVdqnuh7s
p117
I1
sVdj8k1yg
p118
I3
sVdctq00d
p119
I1
sVdeuy1e3
p120
I2
sVczd8k41
p121
I1
sVcyx2r8t
p122
I2
sVdnh9su7
p123
I1
sVd8eauck
p124
I2
sVd2seo3h
p125
I1
sVd92casw
p126
I1
sVdq3fngp
p127
I1
sVddsmopz
p128
I1
sVcza4dyl
p129
I2
sVdji6pe1
p130
I1
sVd30k2u6
p131
I1
sVdkhf4gd
p132
I1
sVdgpxpwy
p133
I1
sVd21rqdj
p134
I1
sVdb8i84m
p135
I1
sVdfoyaqi
p136
I1
sVdqfci4e
p137
I1
sVdeh4c8y
p138
I1
sVdsc7qyr
p139
I1
sVddl3bhc
p140
I1
sVdtdt06l
p141
I3
sVd2gaef4
p142
I1
sVddplg0o
p143
I1
sVczgii2l
p144
I1
sVdf9szvb
p145
I2
sVdd61v1h
p146
I1
sVdpm2crv
p147
I2
sVd9tqegk
p148
I1
sVd1oxn90
p149
I1
sVd4glrwk
p150
I2
sVdqt0ohj
p151
I1
sVdb541kz
p152
I3
sVd5h9vu1
p153
I1
sVd3n3r2l
p154
I1
sVdfk0wve
p155
I1
sVdogd0wg
p156
I3
sVd5eguc4
p157
I1
sVdivrb32
p158
I1
sVd47g40s
p159
I1
sVdi1jshy
p160
I1
sVd5praea
p161
I1
sVcyw05ct
p162
I1
sVdcdqkyb
p163
I1
sVczfpman
p164
I1
sVd4th5ib
p165
I1
sVd8dtk6z
p166
I2
sVdh2awvt
p167
I1
sVd78x76c
p168
I1
sVd3g0obq
p169
I1
sVd06w2ti
p170
I2
sVd4z3gbm
p171
I1
sVdah3dwf
p172
I1
sVd9h71g6
p173
I1
sVdhrbpfg
p174
I2
sVddrfwex
p175
I2
sVd7discf
p176
I1
sVda13cg0
p177
I1
sVdiy8qf5
p178
I1
sVdbvu8g1
p179
I1
sVdi8x2vu
p180
I1
sVd3vveik
p181
I1
sVdazwvzw
p182
I1
sVd084f6b
p183
I1
sVd7m4mc7
p184
I1
sVd8psr7l
p185
I1
sVdgdov8w
p186
I1
sVdefqni2
p187
I1
sVd4ze698
p188
I2
sVd6286ae
p189
I2
sVcyq4r66
p190
I1
sVdotiyu9
p191
I1
sVd51qerb
p192
I1
sVdcaojvo
p193
I2
sVczsfh2c
p194
I1
sVcynrcdp
p195
I2
sVdhvvqr9
p196
I1
sVdf4i4d6
p197
I1
sVcyniz5h
p198
I1
sVd8st4xb
p199
I1
sVd6rcylq
p200
I1
sVd4bget9
p201
I2
sVd4mk8zp
p202
I1
sVdau4zfv
p203
I1
sVdfbczrb
p204
I1
sVd0mrdg0
p205
I1
sVdfka8xq
p206
I1
sVd4lw02y
p207
I1
sVd177tsh
p208
I1
sVdhlydjb
p209
I1
sVdc3zm7o
p210
I1
sVd1czgq9
p211
I2
sVd5prb46
p212
I1
sVd1wejbv
p213
I1
sVd9h6dso
p214
I1
sVdj4hpoa
p215
I1
sVdcztutr
p216
I1
sVczvfwr4
p217
I1
sVd0brf31
p218
I1
sVd6igtkq
p219
I2
sVcz39jse
p220
I2
sVdhrc0hf
p221
I1
sVd9u65vk
p222
I1
sVdh8a7ss
p223
I1
sVddt6orb
p224
I1
sVdayn51i
p225
I1
sVd48gu20
p226
I1
sVd2o33rq
p227
I1
sVddshtka
p228
I2
sVczh8r91
p229
I3
sVd6kill2
p230
I1
sVdgocqr3
p231
I1
sVcz8ov9p
p232
I1
sVda72sfh
p233
I1
sVdhqe6zq
p234
I1
sVdf51mxm
p235
I1
sVd0oxktc
p236
I1
sVdmirmzm
p237
I1
sVd70j0bb
p238
I1
sVd4cd1bb
p239
I3
sVdduwni0
p240
I1
sVddtfu24
p241
I1
sVd86gydb
p242
I1
sVd9nxu15
p243
I1
sVczdg5d0
p244
I1
sVd49xdb7
p245
I1
sVd785uzj
p246
I2
sVd7buazc
p247
I1
sVd9jmwf7
p248
I1
sVcz0vech
p249
I1
sVd2vbbvw
p250
I1
sVdi180zt
p251
I1
sVd0qdyz5
p252
I2
sVddmlfz7
p253
I1
sVcyl39gh
p254
I1
sVd9q0zl0
p255
I1
sVdcbtf30
p256
I1
sVd1o78va
p257
I1
sVd0uwexp
p258
I1
sVd9zhtvw
p259
I1
sVd2j0k8d
p260
I1
sVd9l3zhy
p261
I1
sVddor7em
p262
I1
sVd4u0rp0
p263
I1
sVczv56df
p264
I1
sVcz2e2pd
p265
I1
s.