(dp0
Vd0dj30q
p1
I1
sVdsioevp
p2
I1
sVd4r1pj7
p3
I1
sVd00r92z
p4
I2
sVcyihwz6
p5
I2
sVdpucbds
p6
I1
sVd0g9mrk
p7
I1
sVdg0h364
p8
I1
sVd3m9rpq
p9
I2
sVdscpeod
p10
I1
sVd1bqwr2
p11
I1
sVd5ervl8
p12
I1
sVdn89yoe
p13
I1
s.