(dp0
Vdf6idef
p1
I1
sVdmo6tr9
p2
I1
sVd9c0fm5
p3
I1
sVd1e41m9
p4
I1
sVdj5le4w
p5
I1
sVd3stsrw
p6
I1
sVdof00tt
p7
I1
sVdbvwrp6
p8
I1
sVd2p1zxc
p9
I1
sVd4hb70z
p10
I1
sVd0w9kus
p11
I1
sVdfuhflo
p12
I1
sVdqyjm6n
p13
I1
sVd2t37jf
p14
I1
sVdj5bu3s
p15
I1
sVdcf6750
p16
I1
sVdo42thl
p17
I1
sVdck06vt
p18
I1
sVdejcry9
p19
I1
sVdfxy0sb
p20
I1
sVddb1eaz
p21
I1
sVdmrwcc1
p22
I1
sVdhpfd1y
p23
I1
sVdrqdyik
p24
I1
sVd22ct1n
p25
I1
sVdhdapwc
p26
I1
sVd099o8n
p27
I1
sVd8aravl
p28
I1
sVdheib0b
p29
I1
sVd7bbszp
p30
I1
sVdecmr8o
p31
I1
sVdf1v3qn
p32
I1
sVdn0272b
p33
I1
sVd2shd5w
p34
I1
sVdruc7fn
p35
I2
sVdipxotp
p36
I1
sVd099opw
p37
I1
sVdomoucf
p38
I2
sVdms5jz2
p39
I2
sVd6vsmk1
p40
I1
sVdfcvuu2
p41
I1
sVd62l7xv
p42
I1
s.