(dp0
Vczvp9i8
p1
I1
s.(dp0
Vd5o9tq3
p1
I1
sVczvp9i8
p2
I1
s.(dp0
Vdckkrdv
p1
I1
sVczvp9i8
p2
I1
s.(dp0
Vddxfi6f
p1
I1
sVczvp9i8
p2
I1
s.(dp0
Vdfui6it
p1
I1
sVczvp9i8
p2
I1
s.(dp0
Vdkhdk6d
p1
I1
sVczvp9i8
p2
I1
s.(dp0
Vdn0bske
p1
I1
sVczvp9i8
p2
I1
s.(dp0
Vdn0bske
p1
I1
sVczvp9i8
p2
I1
s.(dp0
Vdojncml
p1
I1
sVczvp9i8
p2
I1
s.(dp0
Vdskflyn
p1
I1
sVczvp9i8
p2
I1
s.(dp0
Vdsu6kbg
p1
I1
sVczvp9i8
p2
I1
s.