(dp0
Vcyi7ozf
p1
I1
s.(dp0
Vcyi7ozf
p1
I2
s.(dp0
Vcyi7ozf
p1
I1
sVcyij2e8
p2
I1
s.(dp0
Vcyi7ozf
p1
I1
sVcyij2e8
p2
I1
s.(dp0
Vcyi7ozf
p1
I1
sVcyij2e8
p2
I1
s.(dp0
Vcyi7ozf
p1
I1
sVcyij4hw
p2
I1
s.(dp0
Vcyi7ozf
p1
I1
sVcyiun9v
p2
I1
s.(dp0
Vcyi7ozf
p1
I1
sVcyiun9v
p2
I1
s.(dp0
Vcyi7ozf
p1
I1
sVcyj0seo
p2
I1
s.(dp0
Vcyi7ozf
p1
I1
sVcyj9skh
p2
I1
s.(dp0
Vcyi7ozf
p1
I1
sVcyj9skh
p2
I1
s.(dp0
Vcyi7ozf
p1
I1
sVcyj9skh
p2
I1
s.(dp0
Vcyi7ozf
p1
I1
sVcyjv4zq
p2
I1
s.(dp0
Vcyi7ozf
p1
I1
sVcyjv4zq
p2
I1
s.(dp0
Vcyi7ozf
p1
I1
sVcyjvjvq
p2
I1
s.(dp0
Vcyi7ozf
p1
I1
sVcyjvqxk
p2
I1
s.(dp0
Vcyi7ozf
p1
I1
sVcykb7mz
p2
I1
s.(dp0
Vcyi7ozf
p1
I1
sVcykj6nb
p2
I1
s.(dp0
Vcyi7ozf
p1
I1
sVcyktywf
p2
I1
s.(dp0
Vcyi7ozf
p1
I1
sVcykw1s1
p2
I1
s.(dp0
Vcyi7ozf
p1
I1
sVcyl0jxb
p2
I1
s.(dp0
Vcyi7ozf
p1
I1
sVcylcecj
p2
I1
s.(dp0
Vcyi7ozf
p1
I1
sVcylcecj
p2
I1
s.(dp0
Vcyi7ozf
p1
I1
sVcylcecj
p2
I1
s.(dp0
Vcyi7ozf
p1
I1
sVcylqx9r
p2
I1
s.(dp0
Vcyi7ozf
p1
I1
sVcym90tg
p2
I1
s.(dp0
Vcyi7ozf
p1
I1
sVcymj83k
p2
I1
s.(dp0
Vcyi7ozf
p1
I1
sVcymj83k
p2
I1
s.(dp0
Vcyi7ozf
p1
I1
sVcymj83k
p2
I1
s.(dp0
Vcyi7ozf
p1
I1
sVcynnrcq
p2
I1
s.(dp0
Vcyi7ozf
p1
I1
sVcynxp2k
p2
I1
s.(dp0
Vcyi7ozf
p1
I1
sVcyoap0s
p2
I1
s.(dp0
Vcyi7ozf
p1
I1
sVcyoap0s
p2
I1
s.(dp0
Vcyi7ozf
p1
I1
sVcyobcpg
p2
I1
s.(dp0
Vcyi7ozf
p1
I1
sVcyobcpg
p2
I1
s.(dp0
Vcyi7ozf
p1
I1
sVcyopj5x
p2
I1
s.(dp0
Vcyi7ozf
p1
I1
sVcyplzms
p2
I1
s.(dp0
Vcyi7ozf
p1
I1
sVcypqcgc
p2
I1
s.(dp0
Vcyi7ozf
p1
I1
sVcypqcgc
p2
I1
s.(dp0
Vcyi7ozf
p1
I1
sVcyql8z1
p2
I1
s.(dp0
Vcyi7ozf
p1
I1
sVcyql8z1
p2
I1
s.(dp0
Vcyi7ozf
p1
I1
sVcyql8z1
p2
I1
s.(dp0
Vcyi7ozf
p1
I1
sVcyql8z1
p2
I1
s.(dp0
Vcyi7ozf
p1
I1
sVcyql8z1
p2
I1
s.(dp0
Vcyi7ozf
p1
I1
sVcyra6l4
p2
I1
s.(dp0
Vcyi7ozf
p1
I1
sVcyra6l4
p2
I1
s.(dp0
Vcyi7ozf
p1
I1
sVcyroya1
p2
I1
s.(dp0
Vcyi7ozf
p1
I1
sVcyroya1
p2
I1
s.(dp0
Vcyi7ozf
p1
I1
sVcyrpagx
p2
I1
s.(dp0
Vcyi7ozf
p1
I1
sVcyrpagx
p2
I1
s.(dp0
Vcyi7ozf
p1
I1
sVcyrpita
p2
I1
s.(dp0
Vcyi7ozf
p1
I1
sVcys0fv4
p2
I1
s.(dp0
Vcyi7ozf
p1
I1
sVcys0fv4
p2
I1
s.(dp0
Vcyi7ozf
p1
I1
sVcys0fv4
p2
I1
s.(dp0
Vcyi7ozf
p1
I1
sVcys0fv4
p2
I1
s.(dp0
Vcyi7ozf
p1
I1
sVcys0fv4
p2
I1
s.(dp0
Vcyi7ozf
p1
I1
sVcys0fv4
p2
I1
s.(dp0
Vcyi7ozf
p1
I1
sVcys0fv4
p2
I1
s.(dp0
Vcyi7ozf
p1
I1
sVcys0fv4
p2
I1
s.(dp0
Vcyi7ozf
p1
I1
sVcys1bsi
p2
I1
s.(dp0
Vcyi7ozf
p1
I1
sVcys1qme
p2
I1
s.(dp0
Vcyi7ozf
p1
I1
sVcys1qme
p2
I1
s.(dp0
Vcyi7ozf
p1
I1
sVcys1qme
p2
I1
s.(dp0
Vcyi7ozf
p1
I1
sVcysm82j
p2
I1
s.(dp0
Vcyi7ozf
p1
I1
sVcysmk7n
p2
I1
s.(dp0
Vcyi7ozf
p1
I1
sVcysumwu
p2
I1
s.(dp0
Vcyi7ozf
p1
I1
sVcyu29c9
p2
I1
s.(dp0
Vcyi7ozf
p1
I1
sVcyu3fdr
p2
I1
s.(dp0
Vcyi7ozf
p1
I1
sVcyu3fdr
p2
I1
s.(dp0
Vcyi7ozf
p1
I1
sVcyu58f6
p2
I1
s.(dp0
Vcyi7ozf
p1
I1
sVcyuaij4
p2
I1
s.(dp0
Vcyi7ozf
p1
I1
sVcyv7fxx
p2
I1
s.(dp0
Vcyi7ozf
p1
I1
sVcywlo96
p2
I1
s.(dp0
Vcyi7ozf
p1
I1
sVcywy1rn
p2
I1
s.(dp0
Vcyi7ozf
p1
I1
sVcywyo6g
p2
I1
s.(dp0
Vcyi7ozf
p1
I1
sVcywzz7x
p2
I1
s.(dp0
Vcyi7ozf
p1
I1
sVcywzz7x
p2
I1
s.(dp0
Vcyi7ozf
p1
I1
sVcyx0as5
p2
I1
s.(dp0
Vcyi7ozf
p1
I1
sVcyx0as5
p2
I1
s.(dp0
Vcyi7ozf
p1
I1
sVcyxb6x6
p2
I1
s.(dp0
Vcyi7ozf
p1
I1
sVcyxb6x6
p2
I1
s.(dp0
Vcyi7ozf
p1
I1
sVcyxykzd
p2
I1
s.(dp0
Vcyi7ozf
p1
I1
sVcyyq2wm
p2
I1
s.(dp0
Vcyi7ozf
p1
I1
sVcyyq2wm
p2
I1
s.(dp0
Vcyi7ozf
p1
I1
sVcyz3o38
p2
I1
s.(dp0
Vcyi7ozf
p1
I1
sVcyz6m6o
p2
I1
s.(dp0
Vcyi7ozf
p1
I1
sVcyz8f6g
p2
I1
s.(dp0
Vcyi7ozf
p1
I1
sVcyzabjw
p2
I1
s.(dp0
Vcyi7ozf
p1
I1
sVcyzep41
p2
I1
s.(dp0
Vcyi7ozf
p1
I1
sVcyzep41
p2
I1
s.(dp0
Vcyi7ozf
p1
I1
sVcyzep41
p2
I1
s.(dp0
Vcyi7ozf
p1
I1
sVcyzep41
p2
I1
s.(dp0
Vcyi7ozf
p1
I1
sVcyzlrec
p2
I1
s.(dp0
Vcyi7ozf
p1
I1
sVcyzlrec
p2
I1
s.(dp0
Vcyi7ozf
p1
I1
sVcyzlwr6
p2
I1
s.(dp0
Vcyi7ozf
p1
I1
sVcyzmfcs
p2
I1
s.(dp0
Vcyi7ozf
p1
I1
sVcz01fia
p2
I1
s.(dp0
Vcyi7ozf
p1
I1
sVcz09ohc
p2
I1
s.(dp0
Vcyi7ozf
p1
I1
sVcz0bi8e
p2
I1
s.(dp0
Vcyi7ozf
p1
I1
sVcz0bi8e
p2
I1
s.(dp0
Vcyi7ozf
p1
I1
sVcz0te2k
p2
I1
s.(dp0
Vcyi7ozf
p1
I1
sVcz11x51
p2
I1
s.(dp0
Vcyi7ozf
p1
I1
sVcz11x51
p2
I1
s.(dp0
Vcyi7ozf
p1
I1
sVcz1el2a
p2
I1
s.(dp0
Vcyi7ozf
p1
I1
sVcz22spm
p2
I1
s.(dp0
Vcyi7ozf
p1
I1
sVcz2688z
p2
I1
s.(dp0
Vcyi7ozf
p1
I1
sVcz28phh
p2
I1
s.(dp0
Vcyi7ozf
p1
I1
sVcz2lxwg
p2
I1
s.(dp0
Vcyi7ozf
p1
I1
sVcz(dp0
Vcyi7ozf
p1
I1
sVdti8o1x
p2
I1
s.