(dp0
Vczqnei3
p1
I1
sVd1t6ok2
p2
I1
sVdmfha8h
p3
I1
sVcz61dm5
p4
I1
sVd6ixkif
p5
I1
sVdjcklqw
p6
I1
sVdf7tw6f
p7
I3
sVczwde9q
p8
I1
sVd6gq891
p9
I1
sVdeyiqo9
p10
I1
sVdd8dvcx
p11
I1
sVdqamggo
p12
I1
sVd3lspel
p13
I1
sVdfwy2sd
p14
I1
sVdjmjt3u
p15
I5
sVdcak2k2
p16
I1
sVdetjce6
p17
I1
sVd0ur3ll
p18
I1
sVd77usyz
p19
I1
sVczd2okg
p20
I1
sVd70ny5h
p21
I1
sVddwjwog
p22
I1
sVdjkaewp
p23
I1
sVd9wbssv
p24
I1
sVdmr8sxj
p25
I1
sVdqd2iez
p26
I1
sVdiehpfx
p27
I1
sVd3vns7r
p28
I1
sVczihycx
p29
I4
sVdb6ny4d
p30
I1
sVd56g3dq
p31
I1
sVdgdlrz4
p32
I1
sVcyvsmh5
p33
I1
sVdcl38x2
p34
I3
sVdgvzg28
p35
I1
sVd56f32h
p36
I1
sVdaftdl0
p37
I1
sVdg9brqg
p38
I1
sVdr27x7s
p39
I1
sVd6rm3mv
p40
I1
sVd1d8mj8
p41
I1
sVdbe1603
p42
I1
sVdfq4b6c
p43
I1
sVd9ujn7c
p44
I1
sVdaqgqdu
p45
I1
sVdjpfo1z
p46
I2
sVcyy5gy0
p47
I1
sVdniubfp
p48
I1
sVdafc0lp
p49
I1
sVdhkvt9y
p50
I1
sVdbwajhx
p51
I1
sVdmzm8d0
p52
I1
sVd1ybge7
p53
I1
sVdexb8hw
p54
I1
sVdnh2474
p55
I1
sVdbewqqx
p56
I1
sVdnj6k3e
p57
I1
sVdayio3i
p58
I1
sVd9h9epk
p59
I1
sVdclpanu
p60
I1
sVd7smr3z
p61
I1
sVd23g1me
p62
I1
sVdfhkldb
p63
I1
sVdekktkz
p64
I1
sVdkcvof1
p65
I1
sVd8sed6l
p66
I1
sVd3kta3t
p67
I1
sVdge9kq0
p68
I1
sVd2wooi2
p69
I1
sVdbwfrgy
p70
I1
sVd3dy4jp
p71
I1
sVd9oysqi
p72
I1
sVdc50grl
p73
I3
sVdg2e03m
p74
I1
sVd9keikm
p75
I1
sVdf1wa1a
p76
I1
sVdej34d5
p77
I1
sVdky9g3r
p78
I1
sVd7cpv5l
p79
I1
sVdqzthuw
p80
I1
sVd0vsaco
p81
I1
sVddcdh5m
p82
I1
sVdct13k5
p83
I1
sVdh2mq6x
p84
I1
sVd3md3s5
p85
I1
sVdb2lub5
p86
I1
sVdihd0ud
p87
I2
sVdspkli9
p88
I1
sVd9cr1wr
p89
I1
sVd6uzsda
p90
I1
sVdbca4qh
p91
I1
sVdgtc2am
p92
I1
sVdmhd8gr
p93
I1
sVdrk73i7
p94
I1
sVdsacwjj
p95
I1
sVd07zuhy
p96
I1
sVdfci7bs
p97
I1
sVdakeg5l
p98
I1
sVdfaq7b0
p99
I1
sVdiz0ks5
p100
I1
sVd0kz9kc
p101
I1
sVcz8b6us
p102
I1
sVd7zh6xv
p103
I1
sVddbyfhv
p104
I1
sVd3ade56
p105
I1
sVdbqdy5c
p106
I1
sVdoij399
p107
I1
sVdkuciv6
p108
I1
sVd3uvuog
p109
I1
sVcyudsee
p110
I1
sVcz2uqr2
p111
I1
sVdemlfjp
p112
I1
sVd4bcipl
p113
I1
sVdmx2j9w
p114
I1
sVd6sdbm2
p115
I1
sVd4v6a23
p116
I2
sVdpd140n
p117
I1
sVdgi25r9
p118
I1
sVdk4bunu
p119
I1
sVd1zg6j4
p120
I1
sVd0yvpbj
p121
I1
sVdhpx950
p122
I1
sVd8sc7aj
p123
I1
sVcyj57ub
p124
I1
sVdbn9epe
p125
I1
sVd15lvmj
p126
I1
sVd0d59b4
p127
I1
sVdmffyvc
p128
I1
sVd80wfea
p129
I1
sVdbjah4n
p130
I1
sVdhgvw5h
p131
I1
sVdkhepze
p132
I1
sVdfii2j0
p133
I1
sVdqhh9wt
p134
I1
sVczmftwv
p135
I1
sVd4wlzzz
p136
I1
sVda60m7v
p137
I1
sVczozcz7
p138
I1
sVdt4htf7
p139
I1
sVdoa79wu
p140
I1
sVdms3j9q
p141
I1
sVd07z07e
p142
I1
sVdpd1cv4
p143
I1
sVd7ji7yw
p144
I1
sVd5vue0g
p145
I1
sVd23jrt0
p146
I1
sVdhp6phv
p147
I2
sVdswjhdd
p148
I1
sVdbu98gb
p149
I1
sVd6e6kjr
p150
I1
sVdn39lsa
p151
I1
sVdbx5ppn
p152
I1
sVdqpcnzi
p153
I1
sVd10cf63
p154
I1
sVd2jltqo
p155
I1
sVd1rmpg5
p156
I1
sVdglabul
p157
I1
sVdt1s3dm
p158
I1
sVd296pgg
p159
I1
sVdj4ukui
p160
I1
sVczs2adb
p161
I1
sVdd621on
p162
I1
sVdsve3ne
p163
I1
sVddrk87f
p164
I1
sVd82rme5
p165
I1
sVdo899r9
p166
I1
sVd3gkcek
p167
I1
sVdb1tr76
p168
I1
sVdfeyz7w
p169
I1
sVdooxytj
p170
I1
sVdp5slww
p171
I1
sVd1beus9
p172
I1
sVd7e6jmn
p173
I1
sVd57nbio
p174
I1
sVczkyluy
p175
I1
sVdjfwjq4
p176
I1
sVd6ygsxm
p177
I1
sVdqabxby
p178
I1
sVda5dnyd
p179
I1
sVczavb85
p180
I1
sVd2ap7l4
p181
I1
sVdh6hq70
p182
I1
sVd9tbs53
p183
I1
sVdccq2n4
p184
I1
sVdp9vd8w
p185
I1
sVd6i73ri
p186
I1
sVd94igxb
p187
I1
sVdi6bkwu
p188
I1
sVd3gml9i
p189
I1
sVd1csn3g
p190
I1
sVd05mwzp
p191
I1
sVdmutrql
p192
I1
sVd59gh15
p193
I2
sVdd15565
p194
I1
sVda36drg
p195
I1
sVddc2ntk
p196
I1
sVd36bbsx
p197
I1
sVd2quzzk
p198
I1
sVdedqd6z
p199
I1
sVd68samj
p200
I1
sVdjodo37
p201
I1
sVczgqy13
p202
I1
sVd373q4d
p203
I1
sVdjeghi2
p204
I1
sVd0w1xik
p205
I1
sVd3bm528
p206
I1
sVcyvgq2f
p207
I1
sVdt776mr
p208
I1
sVcyjipg1
p209
I1
sVd035voo
p210
I1
sVda8im1p
p211
I1
sVddjhmd6
p212
I1
sVdgjd26g
p213
I1
sVdsvrces
p214
I1
sVdi018n4
p215
I1
sVd60oxdm
p216
I1
sVdf0w6xn
p217
I1
sVdmmblz1
p218
I2
sVd8st9lt
p219
I1
sVdbv32jg
p220
I1
sVd1wooeq
p221
I1
sVdmwch3b
p222
I1
sVczcxhls
p223
I1
sVdnw4eny
p224
I1
sVdei4l1n
p225
I1
sVd72e9yk
p226
I1
sVdebmju6
p227
I1
sVdgggt10
p228
I1
sVdicrtp9
p229
I1
sVd8dosaw
p230
I1
sVdmgxj3t
p231
I1
sVdhtgwb9
p232
I1
sVd1kxe64
p233
I1
sVd9148yw
p234
I1
sVd0adb0r
p235
I1
sVdg991gr
p236
I1
sVd4q86kd
p237
I1
sVczrw6ld
p238
I1
sVd10r1m0
p239
I1
sVcywhxsh
p240
I1
sVdox6cwy
p241
I1
sVd4n7yyn
p242
I1
sVdgzxzov
p243
I2
sVd0efe9x
p244
I1
sVdojmt1s
p245
I1
sVczp097f
p246
I1
sVdnwcq9c
p247
I1
sVddq6pnx
p248
I1
sVdd2la4b
p249
I1
sVdb7cd95
p250
I1
sVdcic5br
p251
I1
sVdrbiiup
p252
I1
sVdtigpvh
p253
I1
sVd85e2fz
p254
I1
sVdrc2n54
p255
I1
sVcz100r0
p256
I1
sVds4me4e
p257
I1
sVd2ckwv3
p258
I1
sVdfkk1xt
p259
I1
sVdpmr6gf
p260
I1
sVcytpqqi
p261
I1
sVczgxqli
p262
I1
sVdjoczd3
p263
I1
sVdt98p1y
p264
I1
sVdf7u3fo
p265
I1
sVdmiovsi
p266
I1
sVd5y1gfi
p267
I1
sVd2wuthr
p268
I2
sVdrpe6h1
p269
I1
sVdktwn0w
p270
I1
sVdrchnca
p271
I1
sVcyjgvny
p272
I1
sVdhflxkc
p273
I1
sVd0g770z
p274
I1
sVdjsds3m
p275
I1
sVdrqmio8
p276
I1
sVd4v7bbl
p277
I1
sVd2l9cb4
p278
I1
sVd4lw02y
p279
I1
sVd14bv61
p280
I1
sVdd37nww
p281
I1
sVddjvgqc
p282
I1
sVd43oome
p283
I1
sVddowcwj
p284
I1
sVd8unuvi
p285
I1
sVdqpi987
p286
I1
sVd8jgzva
p287
I1
sVdruht9l
p288
I1
sVd08fy36
p289
I1
sVczv94ii
p290
I1
sVd59g2ig
p291
I3
sVd35gbj7
p292
I1
sVdin3l4b
p293
I1
sVdazv6n2
p294
I1
sVczvmap6
p295
I1
sVd015evk
p296
I1
sVd2zgegh
p297
I1
sVdi1yqvc
p298
I1
sVdhgf2mc
p299
I1
sVd3uglrj
p300
I1
sVdkungj0
p301
I1
sVdd6tfn8
p302
I1
sVdgqno9f
p303
I1
sVd89l1j5
p304
I1
sVd7yimzr
p305
I1
sVd5zdmx1
p306
I1
sVcz4ute6
p307
I1
sVdqfug39
p308
I1
sVd4zb37f
p309
I1
sVdbttazf
p310
I1
sVdhzslan
p311
I1
sVd36lv9g
p312
I1
sVd15o2ex
p313
I1
sVdodtidy
p314
I1
sVde9zl5k
p315
I1
sVcz8038q
p316
I2
sVddc1hf8
p317
I1
sVczto1xh
p318
I1
sVdh2wc7j
p319
I1
sVdpegd64
p320
I1
sVd1mgtx2
p321
I1
sVdgc17rd
p322
I1
sVd2ivhg1
p323
I1
sVd35r0z8
p324
I1
sVd43moky
p325
I1
sVdroayeq
p326
I1
sVd0abbi0
p327
I6
sVdjxwdef
p328
I1
sVcylgevy
p329
I1
sVd7bkv8v
p330
I2
sVd26dbh6
p331
I1
sVdc38rf4
p332
I1
sVdo1x569
p333
I1
sVdfk36bd
p334
I1
s.