(dp0
Vd97tcdu
p1
I1
sVdak9ef3
p2
I2
sVdig3whu
p3
I1
sVdertg2r
p4
I1
sVd1nlotw
p5
I2
sVdry3qog
p6
I1
sVdosvyfo
p7
I3
sVd0d3rci
p8
I1
sVd1zy7z4
p9
I1
sVdkk0ihz
p10
I1
sVd4nhaiu
p11
I1
sVdf17x2b
p12
I1
s.