(dp0
Vdqc8gs2
p1
I1
sVdiiozar
p2
I1
sVd08ntyx
p3
I1
sVd6r1fuf
p4
I1
sVd8sojf5
p5
I1
sVdbwklsa
p6
I1
sVd70ny5h
p7
I1
sVde6l0gx
p8
I1
sVczooidk
p9
I1
sVdbsfdr1
p10
I1
sVddi1sup
p11
I1
sVdrk0npo
p12
I1
sVddlxa3d
p13
I1
sVdadq50x
p14
I1
sVd4wzrsj
p15
I1
sVdgjm8kz
p16
I1
sVdjaxt98
p17
I1
sVddwidpu
p18
I1
sVdardkn0
p19
I1
sVd11kdkd
p20
I1
sVdci5zfa
p21
I1
sVdcgb58m
p22
I1
sVdbwkqo8
p23
I1
sVde0r6u0
p24
I1
sVdd9zp3k
p25
I1
sVdkwh81a
p26
I1
sVdfq7gv4
p27
I1
sVdkdp909
p28
I1
sVdc605nt
p29
I1
sVd1fjytz
p30
I1
sVczgxfue
p31
I1
sVd8dc61q
p32
I1
s.