(dp0
Vcyv1v85
p1
I1
s.(dp0
Vcz490pv
p1
I1
sVcyv1v85
p2
I1
s.(dp0
Vcyv1v85
p1
I1
sVczt648g
p2
I1
s.(dp0
Vcztchld
p1
I1
sVcyv1v85
p2
I1
s.(dp0
Vcztchld
p1
I1
sVcyv1v85
p2
I1
s.(dp0
Vcztibeh
p1
I1
sVcyv1v85
p2
I1
s.(dp0
Vczuadpp
p1
I1
sVcyv1v85
p2
I1
s.(dp0
Vczxlomt
p1
I1
sVcyv1v85
p2
I1
s.(dp0
Vcyv1v85
p1
I1
sVd095roh
p2
I1
s.(dp0
Vcyv1v85
p1
I1
sVd095roh
p2
I1
s.(dp0
Vd0d75lx
p1
I1
sVcyv1v85
p2
I1
s.(dp0
Vd0d75lx
p1
I1
sVcyv1v85
p2
I1
s.(dp0
Vd0d75lx
p1
I1
sVcyv1v85
p2
I1
s.(dp0
Vd0gg2ly
p1
I1
sVcyv1v85
p2
I1
s.(dp0
Vd0lcnl5
p1
I1
sVcyv1v85
p2
I1
s.(dp0
Vcyv1v85
p1
I1
sVd1fpq8q
p2
I1
s.(dp0
Vcyv1v85
p1
I1
sVd1tlqds
p2
I1
s.(dp0
Vd1xgijj
p1
I1
sVcyv1v85
p2
I1
s.(dp0
Vd1zu84q
p1
I1
sVcyv1v85
p2
I1
s.(dp0
Vcyv1v85
p1
I1
sVd20l789
p2
I1
s.(dp0
Vd20obcm
p1
I1
sVcyv1v85
p2
I1
s.(dp0
Vd2413bw
p1
I1
sVcyv1v85
p2
I1
s.(dp0
Vd2mzj4v
p1
I1
sVcyv1v85
p2
I1
s.(dp0
Vcyv1v85
p1
I1
sVd2sr8ve
p2
I1
s.(dp0
Vd3c4h2g
p1
I1
sVcyv1v85
p2
I1
s.(dp0
Vd3c4h2g
p1
I1
sVcyv1v85
p2
I1
s.(dp0
Vcyv1v85
p1
I1
sVd484e4g
p2
I1
s.(dp0
Vcyv1v85
p1
I1
sVd48itkb
p2
I1
s.(dp0
Vd4h9by0
p1
I1
sVcyv1v85
p2
I1
s.(dp0
Vd4hgzkn
p1
I1
sVcyv1v85
p2
I1
s.(dp0
Vd4hgzkn
p1
I1
sVcyv1v85
p2
I1
s.(dp0
Vcyv1v85
p1
I1
sVd5e775u
p2
I1
s.(dp0
Vd5nk2kn
p1
I1
sVcyv1v85
p2
I1
s.(dp0
Vd5t3max
p1
I1
sVcyv1v85
p2
I1
s.(dp0
Vd5t3max
p1
I1
sVcyv1v85
p2
I1
s.(dp0
Vd5umrzc
p1
I1
sVcyv1v85
p2
I1
s.(dp0
Vd6bc22q
p1
I1
sVcyv1v85
p2
I1
s.(dp0
Vd6bc22q
p1
I1
sVcyv1v85
p2
I1
s.(dp0
Vd6d1fcy
p1
I1
sVcyv1v85
p2
I1
s.(dp0
Vd6h5hn4
p1
I1
sVcyv1v85
p2
I1
s.(dp0
Vd6h71xe
p1
I1
sVcyv1v85
p2
I1
s.(dp0
Vd6h71xe
p1
I1
sVcyv1v85
p2
I1
s.(dp0
Vd6h71xe
p1
I1
sVcyv1v85
p2
I1
s.(dp0
Vd6htzlw
p1
I1
sVcyv1v85
p2
I1
s.(dp0
Vcyv1v85
p1
I1
sVd6r1rud
p2
I1
s.(dp0
Vcyv1v85
p1
I1
sVd6r1rud
p2
I1
s.(dp0
Vd7oq6n6
p1
I1
sVcyv1v85
p2
I1
s.(dp0
Vd8svzxm
p1
I1
sVcyv1v85
p2
I1
s.(dp0
Vd8svzxm
p1
I1
sVcyv1v85
p2
I1
s.(dp0
Vd8svzxm
p1
I1
sVcyv1v85
p2
I1
s.(dp0
Vcyv1v85
p1
I1
sVd9kgnym
p2
I1
s.(dp0
Vcyv1v85
p1
I1
sVdabexrq
p2
I1
s.(dp0
Vcyv1v85
p1
I1
sVdabexrq
p2
I1
s.(dp0
Vcyv1v85
p1
I1
sVdahuc91
p2
I1
s.(dp0
Vdaoo5sf
p1
I1
sVcyv1v85
p2
I1
s.(dp0
Vdavapn7
p1
I1
sVcyv1v85
p2
I1
s.(dp0
Vdby9823
p1
I1
sVcyv1v85
p2
I1
s.(dp0
Vdcyqytv
p1
I1
sVcyv1v85
p2
I1
s.(dp0
Vddgq9zc
p1
I1
sVcyv1v85
p2
I1
s.(dp0
Vcyv1v85
p1
I1
sVddgsp3o
p2
I1
s.(dp0
Vcyv1v85
p1
I1
sVddgsp3o
p2
I1
s.(dp0
Vddhetqf
p1
I1
sVcyv1v85
p2
I1
s.(dp0
Vddhetqf
p1
I1
sVcyv1v85
p2
I1
s.(dp0
Vddhetqf
p1
I1
sVcyv1v85
p2
I1
s.(dp0
Vcyv1v85
p1
I1
sVddhflft
p2
I1
s.(dp0
Vcyv1v85
p1
I1
sVddvb5ds
p2
I1
s.(dp0
Vddvfmvs
p1
I1
sVcyv1v85
p2
I1
s.(dp0
Vde815s7
p1
I1
sVcyv1v85
p2
I1
s.(dp0
Vdek2eyd
p1
I1
sVcyv1v85
p2
I1
s.(dp0
Vdek2eyd
p1
I1
sVcyv1v85
p2
I1
s.(dp0
Vdek2eyd
p1
I1
sVcyv1v85
p2
I1
s.(dp0
Vdemvhbu
p1
I1
sVcyv1v85
p2
I1
s.(dp0
Vdemw509
p1
I1
sVcyv1v85
p2
I1
s.(dp0
Vcyv1v85
p1
I1
sVdfgipzy
p2
I1
s.(dp0
Vdfhfl5r
p1
I1
sVcyv1v85
p2
I1
s.(dp0
Vdfhfl5r
p1
I1
sVcyv1v85
p2
I1
s.(dp0
Vdfhg7k5
p1
I1
sVcyv1v85
p2
I1
s.(dp0
Vdfq9y44
p1
I1
sVcyv1v85
p2
I1
s.(dp0
Vdg9vp20
p1
I1
sVcyv1v85
p2
I1
s.(dp0
Vcyv1v85
p1
I1
sVdgonb43
p2
I1
s.(dp0
Vcyv1v85
p1
I1
sVdgs31nn
p2
I1
s.(dp0
Vcyv1v85
p1
I1
sVdgz5tll
p2
I1
s.(dp0
Vcyv1v85
p1
I1
sVdgz5tll
p2
I1
s.(dp0
Vcyv1v85
p1
I1
sVdhfmyt6
p2
I1
s.(dp0
Vcyv1v85
p1
I1
sVdhfn585
p2
I1
s.(dp0
Vcyv1v85
p1
I1
sVdhfoebz
p2
I1
s.(dp0
Vdhg5pib
p1
I1
sVcyv1v85
p2
I1
s.(dp0
Vdhg5pib
p1
I1
sVcyv1v85
p2
I1
s.(dp0
Vdhg5pib
p1
I1
sVcyv1v85
p2
I1
s.(dp0
Vdhnf7yw
p1
I1
sVcyv1v85
p2
I1
s.(dp0
Vdi2yqhd
p1
I1
sVcyv1v85
p2
I1
s.(dp0
Vdi2yqhd
p1
I1
sVcyv1v85
p2
I1
s.(dp0
Vcyv1v85
p1
I1
sVdi794yf
p2
I1
s.(dp0
Vcyv1v85
p1
I1
sVdi794yf
p2
I1
s.(dp0
Vdi79apn
p1
I1
sVcyv1v85
p2
I1
s.(dp0
Vdickonw
p1
I1
sVcyv1v85
p2
I1
s.(dp0
Vdizja0k
p1
I1
sVcyv1v85
p2
I1
s.(dp0
Vdjasunz
p1
I1
sVcyv1v85
p2
I1
s.(dp0
Vdjkqgce
p1
I1
sVcyv1v85
p2
I1
s.(dp0
Vdjkqgce
p1
I1
sVcyv1v85
p2
I1
s.(dp0
Vcyv1v85
p1
I1
sVdk0w4dp
p2
I1
s.(dp0
Vcyv1v85
p1
I1
sVdk3aey7
p2
I1
s.(dp0
Vdkj08qi
p1
I1
sVcyv1v85
p2
I1
s.(dp0
Vcyv1v85
p1
I1
sVdkx1g0o
p2
I1
s.(dp0
Vdmhlyxz
p1
I1
sVcyv1v85
p2
I1
s.(dp0
Vdmrjhvc
p1
I1
sVcyv1v85
p2
I1
s.(dp0
Vcyv1v85
p1
I1
sVdn8fxrb
p2
I1
s.(dp0
Vcyv1v85
p1
I1
sVdn8fxrb
p2
I1
s.(dp0
Vdn(dp0
Vdtes8tt
p1
I1
sVcyv1v85
p2
I1
s.