(dp0
Vcyhzyvi
p1
I1
s.(dp0
Vcyhzyvi
p1
I2
s.(dp0
Vcyi5koz
p1
I1
sVcyhzyvi
p2
I1
s.(dp0
Vcyiiat9
p1
I1
sVcyhzyvi
p2
I1
s.(dp0
Vcyiiat9
p1
I1
sVcyhzyvi
p2
I1
s.(dp0
Vcyj3q4l
p1
I1
sVcyhzyvi
p2
I1
s.(dp0
Vcyjhteb
p1
I1
sVcyhzyvi
p2
I1
s.(dp0
Vcyjq3a7
p1
I1
sVcyhzyvi
p2
I1
s.(dp0
Vcyjurpx
p1
I1
sVcyhzyvi
p2
I1
s.(dp0
Vcyjurpx
p1
I1
sVcyhzyvi
p2
I1
s.(dp0
Vcyjurpx
p1
I1
sVcyhzyvi
p2
I1
s.(dp0
Vcyk25yc
p1
I1
sVcyhzyvi
p2
I1
s.(dp0
Vcyk2dpg
p1
I1
sVcyhzyvi
p2
I1
s.(dp0
Vcykl3g4
p1
I1
sVcyhzyvi
p2
I1
s.(dp0
Vcyl6364
p1
I1
sVcyhzyvi
p2
I1
s.(dp0
Vcylbvzl
p1
I1
sVcyhzyvi
p2
I1
s.(dp0
Vcym7rs1
p1
I1
sVcyhzyvi
p2
I1
s.(dp0
Vcymddxs
p1
I1
sVcyhzyvi
p2
I1
s.(dp0
Vcymddxs
p1
I1
sVcyhzyvi
p2
I1
s.(dp0
Vcymicdo
p1
I1
sVcyhzyvi
p2
I1
s.(dp0
Vcymicdo
p1
I1
sVcyhzyvi
p2
I1
s.(dp0
Vcymmsdn
p1
I1
sVcyhzyvi
p2
I1
s.(dp0
Vcyneslc
p1
I1
sVcyhzyvi
p2
I1
s.(dp0
Vcynet3t
p1
I1
sVcyhzyvi
p2
I1
s.(dp0
Vcynet3t
p1
I1
sVcyhzyvi
p2
I1
s.(dp0
Vcynf8yu
p1
I1
sVcyhzyvi
p2
I1
s.(dp0
Vcynf8yu
p1
I1
sVcyhzyvi
p2
I1
s.(dp0
Vcynf8yu
p1
I1
sVcyhzyvi
p2
I1
s.(dp0
Vcynf8yu
p1
I1
sVcyhzyvi
p2
I1
s.(dp0
Vcynf8yu
p1
I1
sVcyhzyvi
p2
I1
s.(dp0
Vcynf8yu
p1
I1
sVcyhzyvi
p2
I1
s.(dp0
Vcynswun
p1
I1
sVcyhzyvi
p2
I1
s.(dp0
Vcyojnxi
p1
I1
sVcyhzyvi
p2
I1
s.(dp0
Vcyom6yf
p1
I1
sVcyhzyvi
p2
I1
s.(dp0
Vcyom6yf
p1
I1
sVcyhzyvi
p2
I1
s.(dp0
Vcyom6yf
p1
I1
sVcyhzyvi
p2
I1
s.(dp0
Vcyom6yf
p1
I1
sVcyhzyvi
p2
I1
s.(dp0
Vcyom6yf
p1
I1
sVcyhzyvi
p2
I1
s.(dp0
Vcyozgk3
p1
I1
sVcyhzyvi
p2
I1
s.(dp0
Vcyp2uil
p1
I1
sVcyhzyvi
p2
I1
s.(dp0
Vcypgfn5
p1
I1
sVcyhzyvi
p2
I1
s.(dp0
Vcypgm3r
p1
I1
sVcyhzyvi
p2
I1
s.(dp0
Vcyphje6
p1
I1
sVcyhzyvi
p2
I1
s.(dp0
Vcyphje6
p1
I1
sVcyhzyvi
p2
I1
s.(dp0
Vcypkfit
p1
I1
sVcyhzyvi
p2
I1
s.(dp0
Vcyprxct
p1
I1
sVcyhzyvi
p2
I1
s.(dp0
Vcyptj8a
p1
I1
sVcyhzyvi
p2
I1
s.(dp0
Vcyptzcv
p1
I1
sVcyhzyvi
p2
I1
s.(dp0
Vcyq4mhc
p1
I1
sVcyhzyvi
p2
I1
s.(dp0
Vcyqv8eh
p1
I1
sVcyhzyvi
p2
I1
s.(dp0
Vcyrspgd
p1
I1
sVcyhzyvi
p2
I1
s.(dp0
Vcyrspgd
p1
I1
sVcyhzyvi
p2
I1
s.(dp0
Vcys9omk
p1
I1
sVcyhzyvi
p2
I1
s.(dp0
Vcysd0y6
p1
I1
sVcyhzyvi
p2
I1
s.(dp0
Vcysepjs
p1
I1
sVcyhzyvi
p2
I1
s.(dp0
Vcysfpjt
p1
I1
sVcyhzyvi
p2
I1
s.(dp0
Vcyslwod
p1
I1
sVcyhzyvi
p2
I1
s.(dp0
Vcyszu40
p1
I1
sVcyhzyvi
p2
I1
s.(dp0
Vcyszu40
p1
I1
sVcyhzyvi
p2
I1
s.(dp0
Vcytb4zz
p1
I1
sVcyhzyvi
p2
I1
s.(dp0
Vcytb4zz
p1
I1
sVcyhzyvi
p2
I1
s.(dp0
Vcytb4zz
p1
I1
sVcyhzyvi
p2
I1
s.(dp0
Vcytb4zz
p1
I1
sVcyhzyvi
p2
I1
s.(dp0
Vcytblo4
p1
I1
sVcyhzyvi
p2
I1
s.(dp0
Vcytcjiu
p1
I1
sVcyhzyvi
p2
I1
s.(dp0
Vcytcjiu
p1
I1
sVcyhzyvi
p2
I1
s.(dp0
Vcytdnn8
p1
I1
sVcyhzyvi
p2
I1
s.(dp0
Vcytdnn8
p1
I1
sVcyhzyvi
p2
I1
s.(dp0
Vcytdnn8
p1
I1
sVcyhzyvi
p2
I1
s.(dp0
Vcytdnn8
p1
I1
sVcyhzyvi
p2
I1
s.(dp0
Vcytdnn8
p1
I1
sVcyhzyvi
p2
I1
s.(dp0
Vcytdnn8
p1
I1
sVcyhzyvi
p2
I1
s.(dp0
Vcytdnn8
p1
I1
sVcyhzyvi
p2
I1
s.(dp0
Vcytdnn8
p1
I1
sVcyhzyvi
p2
I1
s.(dp0
Vcytdnn8
p1
I1
sVcyhzyvi
p2
I1
s.(dp0
Vcytdnn8
p1
I1
sVcyhzyvi
p2
I1
s.(dp0
Vcytp0w7
p1
I1
sVcyhzyvi
p2
I1
s.(dp0
Vcytqm67
p1
I1
sVcyhzyvi
p2
I1
s.(dp0
Vcytz2yk
p1
I1
sVcyhzyvi
p2
I1
s.(dp0
Vcyukf9l
p1
I1
sVcyhzyvi
p2
I1
s.(dp0
Vcyun0qr
p1
I1
sVcyhzyvi
p2
I1
s.(dp0
Vcyun0qr
p1
I1
sVcyhzyvi
p2
I1
s.(dp0
Vcyuzoqa
p1
I1
sVcyhzyvi
p2
I1
s.(dp0
Vcyuzoqa
p1
I1
sVcyhzyvi
p2
I1
s.(dp0
Vcyv9sep
p1
I1
sVcyhzyvi
p2
I1
s.(dp0
Vcyv9sep
p1
I1
sVcyhzyvi
p2
I1
s.(dp0
Vcyv9sep
p1
I1
sVcyhzyvi
p2
I1
s.(dp0
Vcyv9sep
p1
I1
sVcyhzyvi
p2
I1
s.(dp0
Vcyvcq0x
p1
I1
sVcyhzyvi
p2
I1
s.(dp0
Vcyvcq0x
p1
I1
sVcyhzyvi
p2
I1
s.(dp0
Vcyvltei
p1
I1
sVcyhzyvi
p2
I1
s.(dp0
Vcyw2v55
p1
I1
sVcyhzyvi
p2
I1
s.(dp0
Vcyw4qwd
p1
I1
sVcyhzyvi
p2
I1
s.(dp0
Vcyw4qwd
p1
I1
sVcyhzyvi
p2
I1
s.(dp0
Vcyw4qwd
p1
I1
sVcyhzyvi
p2
I1
s.(dp0
Vcyw4qwd
p1
I1
sVcyhzyvi
p2
I1
s.(dp0
Vcyw4qwd
p1
I1
sVcyhzyvi
p2
I1
s.(dp0
Vcywfghg
p1
I1
sVcyhzyvi
p2
I1
s.(dp0
Vcywgeab
p1
I1
sVcyhzyvi
p2
I1
s.(dp0
Vcywgpeb
p1
I1
sVcyhzyvi
p2
I1
s.(dp0
Vcywha8p
p1
I1
sVcyhzyvi
p2
I1
s.(dp0
Vcywha8p
p1
I1
sVcyhzyvi
p2
I1
s.(dp0
Vcywhet6
p1
I1
sVcyhzyvi
p2
I1
s.(dp0
Vcywhet6
p1
I1
sVcyhzyvi
p2
I1
s.(dp0
Vcywhet6
p1
I1
sVcyhzyvi
p2
I1
s.(dp0
Vcywip7w
p1
I1
sVcyhzyvi
p2
I1
s.(dp0
Vcywip7w
p1
I1
sVcyhzyvi
p2
I1
s.(dp0
Vcywjw2a
p1
I1
sVcyhzyvi
p2
I1
s.(dp0
Vcywntfr
p1
I1
sVcy(dp0
Vdtj6vkn
p1
I1
sVcyhzyvi
p2
I1
s.