(dp0
Vdnzkdxw
p1
I1
sVdau339j
p2
I1
sVd076kvp
p3
I1
sVda65e1v
p4
I1
sVdiukan2
p5
I1
sVdh257lp
p6
I1
sVdeu06vo
p7
I1
sVddiuv1i
p8
I1
sVdebz98l
p9
I1
sVdd8b7oh
p10
I1
sVd1a3ap3
p11
I1
sVda66mlq
p12
I1
sVd7ldmuv
p13
I1
sVdh1wx6v
p14
I1
sVdi66oqa
p15
I1
sVdnp5aye
p16
I1
sVdn2dpdq
p17
I1
sVda63uzi
p18
I1
sVdd8zyih
p19
I1
sVd1lveqs
p20
I1
sVdd3x3q4
p21
I1
sVd9fs1st
p22
I1
sVdd86q88
p23
I1
sVda63roq
p24
I1
sVdrau8dp
p25
I1
sVdau32lu
p26
I1
sVdcl8s56
p27
I1
sVdeaht0m
p28
I1
sVda5o59a
p29
I1
sVdd6yb8n
p30
I1
s.