(dp0
Vdaa6209
p1
I1
sVdhucqk6
p2
I1
sVd2rdlfo
p3
I1
sVd62noof
p4
I1
sVdskq0lc
p5
I1
sVdfe5qg5
p6
I1
sVdkepsm5
p7
I1
sVdsie87n
p8
I1
sVdmf9hpy
p9
I1
sVd0xoh4s
p10
I1
sVd16rccf
p11
I1
sVdbnv5uu
p12
I1
sVd9pa6j3
p13
I1
sVdsmbq6o
p14
I1
sVd2xepnm
p15
I1
sVd3xl4k5
p16
I1
sVd0wwfsu
p17
I1
sVdcq5wfb
p18
I1
sVdeh48c1
p19
I1
sVdnu81v7
p20
I1
sVdjje3f9
p21
I1
sVd01toyu
p22
I2
sVd9olsrn
p23
I1
sVds7qikp
p24
I1
sVd29m3ov
p25
I1
sVdc931cj
p26
I1
sVd4wzgtj
p27
I1
sVdbcu8ao
p28
I1
sVdh3mgei
p29
I1
sVdjxqlyz
p30
I1
sVdiasl68
p31
I1
sVdb6217e
p32
I1
sVdrha3x6
p33
I1
sVd2ug41k
p34
I2
sVd4orp45
p35
I1
sVdb556ka
p36
I1
sVd1kgdfy
p37
I1
sVdk6g52e
p38
I1
sVd52pkdi
p39
I1
sVd65u1av
p40
I1
sVdr33ltk
p41
I1
sVdga9ulg
p42
I1
sVd9fowws
p43
I1
sVdqlr76j
p44
I1
sVd6zfvv7
p45
I1
sVcz4ymqn
p46
I1
sVdcgrth6
p47
I1
sVdb97tjt
p48
I1
sVdqo6wtz
p49
I1
sVdbsxt2p
p50
I1
sVd63tkp6
p51
I1
sVdhxfe2w
p52
I1
sVd8su4kc
p53
I1
sVdel0hga
p54
I1
sVd2zdyyp
p55
I1
sVd2vszu3
p56
I1
sVdfmq0by
p57
I1
sVdg6912b
p58
I1
sVcykgo3l
p59
I1
sVd78pu25
p60
I1
sVd168wcn
p61
I1
sVdkqi9oo
p62
I1
sVcz12b3o
p63
I1
sVdicnfol
p64
I1
sVdehn5fa
p65
I2
sVdkrp07r
p66
I1
sVdetvcpz
p67
I1
sVd2krsvd
p68
I1
sVdezo89r
p69
I1
sVd7j2qmv
p70
I1
sVcywh6tc
p71
I1
sVd7v4nbk
p72
I1
sVd75ma2s
p73
I1
sVdc8vo8a
p74
I2
sVd9v6lxc
p75
I1
sVdko4o7n
p76
I1
sVdfzansg
p77
I1
sVdg5uuug
p78
I1
sVcz4carz
p79
I1
sVdhl7sk9
p80
I1
sVdhvjgnl
p81
I1
sVd65mudy
p82
I1
sVd0dkjmn
p83
I1
sVdedohob
p84
I1
sVd0flb1r
p85
I1
sVdqitb3x
p86
I1
sVdhgrkks
p87
I1
sVd3zmddb
p88
I1
sVdc35kf3
p89
I1
sVds0hiaj
p90
I1
sVdchcds1
p91
I1
sVdacq4tc
p92
I1
sVdo9tai7
p93
I1
sVd27ciqr
p94
I1
sVd8zyz76
p95
I1
sVdjfy02n
p96
I1
sVdr377tq
p97
I1
sVdsn2l4b
p98
I1
sVdhb6ern
p99
I1
sVdoj142z
p100
I1
sVd5u7vod
p101
I1
sVdix4tc1
p102
I1
sVd47177m
p103
I1
sVdh75stw
p104
I1
sVdrebwop
p105
I1
sVd07v3q3
p106
I1
sVdjdgtb8
p107
I1
sVczbcnfe
p108
I1
sVdajosvh
p109
I1
sVd0y4aww
p110
I1
sVd1zfacx
p111
I1
sVdct5gvu
p112
I1
sVd5907qo
p113
I1
sVdg1lmur
p114
I1
sVdendsyf
p115
I1
sVdmticxa
p116
I1
sVdny17nj
p117
I1
sVczd9ur6
p118
I1
sVd4prr4j
p119
I1
sVdppyj8c
p120
I1
sVd7vasrm
p121
I1
sVd8zqwq9
p122
I1
sVczh2hvb
p123
I1
sVdejhfde
p124
I1
sVdryn8mz
p125
I1
sVdirbzko
p126
I1
sVd7h3qyw
p127
I1
sVd88gt72
p128
I1
sVd30z5l7
p129
I1
sVdjxwkvl
p130
I1
sVd6zb7bj
p131
I2
sVdtg2afr
p132
I1
sVdh2imux
p133
I1
sVdeztlyk
p134
I1
sVdj7odhl
p135
I1
sVdhst3qn
p136
I1
sVdf07g9o
p137
I1
sVd04es7z
p138
I1
sVd2aq8kr
p139
I1
sVd2sog0q
p140
I1
sVd6q4eop
p141
I1
sVdctzhdt
p142
I1
sVd00hkf0
p143
I1
sVdmhbh9x
p144
I1
sVd2dk6ek
p145
I1
sVdqgqe19
p146
I1
sVdtc5ruc
p147
I1
sVde0mrwf
p148
I1
sVdg2czx4
p149
I1
sVd26k5or
p150
I1
sVdj23wxw
p151
I1
sVda9ga33
p152
I2
sVd9qmj8g
p153
I1
sVdd56inw
p154
I1
sVd9mrqpc
p155
I1
sVdq1cqwf
p156
I1
sVd6p6hew
p157
I1
sVdaz7r82
p158
I1
sVdk0e9vp
p159
I1
sVdrg6elb
p160
I1
sVd8i1c19
p161
I1
sVd5xcgd9
p162
I1
sVcyl71w2
p163
I1
sVdakm4s6
p164
I1
sVd0culkv
p165
I2
sVdhzqiw1
p166
I1
sVd5ptb9d
p167
I1
sVdbvts2z
p168
I1
sVd8h0q13
p169
I1
sVdqs40vx
p170
I1
sVddc52gs
p171
I3
sVdnveb1s
p172
I1
sVcyi949q
p173
I1
sVd4pvzip
p174
I1
sVd7i6vq5
p175
I1
sVd1yyd4a
p176
I1
sVd7c7v8b
p177
I1
sVdj51fh0
p178
I1
sVd6i7gki
p179
I1
sVczyp3rn
p180
I1
sVdrkaswu
p181
I1
sVcz1wwjt
p182
I1
sVd6xer6q
p183
I1
sVd04xw6m
p184
I1
sVdd2r92y
p185
I1
sVdkv4hs9
p186
I1
sVdqevfj9
p187
I1
sVdmiwjq6
p188
I1
sVd95d42j
p189
I1
sVd748klj
p190
I1
sVd0neh4j
p191
I1
sVdgdps7t
p192
I1
sVdf104pj
p193
I1
sVd2t1nn9
p194
I2
sVd3waavk
p195
I1
sVd4hw3ia
p196
I1
sVd0pda3b
p197
I1
sVd1h93f8
p198
I1
sVd8jghy3
p199
I1
sVdsnlr2k
p200
I1
sVdn52ezp
p201
I1
sVdn766pv
p202
I2
sVdag4cqa
p203
I2
sVdedt4p6
p204
I1
sVdhswjdf
p205
I1
sVdh18fr0
p206
I1
sVdavmt3c
p207
I1
sVdcsnm3u
p208
I1
sVdac2x0q
p209
I1
sVdfb5bo9
p210
I1
sVd5mid9i
p211
I1
sVd1912pq
p212
I1
sVczh7vip
p213
I1
sVcz3u62d
p214
I1
sVdpig3zt
p215
I1
sVd6o0rxg
p216
I1
sVdbavbk0
p217
I1
sVd7j8bcp
p218
I1
sVd91vq0f
p219
I1
sVddc8qz4
p220
I1
sVdgpqyrl
p221
I2
sVd93asa4
p222
I1
sVdjcoczx
p223
I1
sVcynpx23
p224
I1
sVdoc1t4a
p225
I1
sVdd4yh6b
p226
I1
sVdqze2qf
p227
I1
sVdjeij7d
p228
I1
sVd9nyvn8
p229
I1
sVd3dzugf
p230
I1
sVd26klna
p231
I1
sVcyjojzh
p232
I1
sVcz0mk6b
p233
I1
sVd6nedya
p234
I1
sVdkyhmkf
p235
I1
sVdnmumlh
p236
I1
sVdh4x2yi
p237
I1
sVdcthkjb
p238
I1
sVczkvurn
p239
I1
sVdb72fiz
p240
I1
sVdcphm2m
p241
I1
sVdkr059t
p242
I1
sVd19ctzz
p243
I1
sVdr597ta
p244
I1
sVd8bsvs9
p245
I1
sVdcbmw7c
p246
I1
sVczc3bqx
p247
I1
sVd0rsryo
p248
I1
sVdbci6sc
p249
I1
sVd86qgu8
p250
I1
sVdq44q2b
p251
I1
sVd2vsrvw
p252
I1
sVddxr9dw
p253
I1
sVd5os05b
p254
I1
sVdfdzutr
p255
I1
sVdet4dt1
p256
I1
sVdgn5x3l
p257
I1
sVdnvc2wa
p258
I1
sVdh5zi0q
p259
I1
sVd8pery7
p260
I1
sVdfuwbh0
p261
I1
sVd5sln4e
p262
I1
sVdb8q46m
p263
I1
sVdhyltg0
p264
I1
sVdbqu1sp
p265
I1
sVczthfva
p266
I1
sVdopq038
p267
I1
sVdknn8eu
p268
I1
sVdrd6nrf
p269
I1
sVd832wis
p270
I1
sVdicdyir
p271
I1
sVdn3ztzs
p272
I1
sVdf5p6x8
p273
I1
sVdfp0heb
p274
I1
sVdguh3fe
p275
I1
sVd8y3vdm
p276
I1
sVdk0miro
p277
I1
sVd2dhmvj
p278
I1
sVdk0y1dl
p279
I2
sVd66ec5q
p280
I1
sVd8hownm
p281
I1
sVd0l7eb7
p282
I1
sVdf99tgq
p283
I1
sVdnp1ktt
p284
I1
sVd1tnpin
p285
I1
sVde3sppr
p286
I1
sVdjsibmq
p287
I2
sVd11ka9g
p288
I1
sVd9dqctr
p289
I1
sVd27mzw5
p290
I1
sVdbyi1bc
p291
I1
sVd6qs33f
p292
I1
sVdk0ispj
p293
I1
sVd2aqcdn
p294
I1
sVdkzjkfe
p295
I1
sVdkvhp49
p296
I1
sVd0eo5dn
p297
I1
sVczdocn5
p298
I1
sVcynv8j8
p299
I1
sVd1rz5o2
p300
I1
sVdhik4qk
p301
I1
sVd1hapvd
p302
I1
sVds341ya
p303
I1
sVdjn82lz
p304
I1
sVd7zbq9n
p305
I2
sVczwio6p
p306
I1
sVd6inuhw
p307
I1
sVdc6r1n4
p308
I1
sVd9kes9q
p309
I1
sVdk9tm9e
p310
I1
sVdh0vaa0
p311
I1
sVdh2to09
p312
I1
sVde8cgzl
p313
I1
sVdiseusx
p314
I1
sVd0rd37w
p315
I1
sVdfnfxfb
p316
I1
sVdt09has
p317
I1
sVdb69cey
p318
I1
sVd0wpwvk
p319
I1
sVd6o2j8q
p320
I1
sVd6cab9o
p321
I1
sVd4gtg8f
p322
I1
sVdkhl99r
p323
I1
sVdi287q3
p324
I1
sVczzfd2b
p325
I1
sVd3mitja
p326
I1
sVdd8aeb2
p327
I1
sVdbhliz3
p328
I1
sVcz7xy85
p329
I1
sVdjuxslf
p330
I1
sVd09ww86
p331
I1
sVdecfkgs
p332
I1
sVdi84unj
p333
I1
sVd6aeenr
p334
I1
sVdot98pp
p335
I1
sVdaddrly
p336
I1
sVcz1g53n
p337
I1
sVdr54zid
p338
I1
sVd2iqfo6
p339
I1
sVd97g2m6
p340
I1
sVd1hy1u9
p341
I1
sVcys0y2u
p342
I1
sVddd9q4e
p343
I1
sVcyti9dt
p344
I1
sVcyzc2um
p345
I1
sVdqm7gbs
p346
I1
sVddu0c3l
p347
I1
sVd44s897
p348
I1
sVcz0qehg
p349
I1
sVdo3p5es
p350
I1
sVd1wv9dw
p351
I1
sVd0ohfft
p352
I2
sVd212h34
p353
I1
sVdbt7vj9
p354
I1
sVdcxh0ak
p355
I1
sVdiu8wui
p356
I1
sVd0fj1nx
p357
I1
sVdcf6750
p358
I1
sVd1b8mxv
p359
I1
sVdqdcn2r
p360
I1
sVd0b1830
p361
I1
sVcym94r5
p362
I1
sVdhm0w6x
p363
I1
sVdj3pda8
p364
I1
sVd14dih0
p365
I2
sVd45o4id
p366
I1
sVdfl6osi
p367
I1
sVdbw0pq4
p368
I1
sVdbgn5cr
p369
I1
sVdsf8m3c
p370
I1
sVd5czbbt
p371
I1
sVd4ce2h8
p372
I1
sVdh175kq
p373
I2
sVd80fnxh
p374
I1
sVcz3ftx1
p375
I1
sVdaqkzsd
p376
I1
sVd2pf4ts
p377
I1
sVd84gmmj
p378
I1
sVdb633gf
p379
I1
sVdkcj6v3
p380
I1
sVdhownen
p381
I1
sVd1i4mr8
p382
I1
sVd2zswxz
p383
I1
sVddbnkku
p384
I1
sVd2w91qc
p385
I1
sVdg7d3t7
p386
I1
sVdd2fxzb
p387
I1
sVdd7huo8
p388
I1
sVda6xflv
p389
I1
sVdnarhwd
p390
I1
sVdpn5ll3
p391
I1
sVdbqg03y
p392
I1
sVd45ibrt
p393
I1
sVdqrty5k
p394
I1
sVdhatdgs
p395
I1
sVd5ryswh
p396
I1
sVd27c8uh
p397
I1
sVdsaobf6
p398
I1
sVdfvt2y9
p399
I1
sVdiae9k3
p400
I1
sVdbt5azo
p401
I1
sVd2vxrmc
p402
I1
sVdc46skx
p403
I1
sVdf7t0pn
p404
I1
sVdhhq1n2
p405
I1
sVdhe0tdu
p406
I1
sVdafw01w
p407
I1
sVdmx21sg
p408
I1
sVd1mfthw
p409
I1
sVdgonq40
p410
I1
sVd97diz6
p411
I1
sVd9nsifj
p412
I1
sVdqubdhw
p413
I1
sVd3tfg7q
p414
I1
sVdi4rrzg
p415
I1
sVcz0uzja
p416
I1
sVd3mh3kc
p417
I1
sVdcuyf9z
p418
I1
sVderr1w2
p419
I1
sVd757g1e
p420
I1
sVd143d58
p421
I1
sVcz7lfwf
p422
I1
sVdodvnk5
p423
I1
sVd2760qh
p424
I1
sVd1decp6
p425
I1
sVcyr4y87
p426
I1
sVdifyc95
p427
I1
sVd6nzqab
p428
I1
sVd55kjg7
p429
I1
sVdfcytvk
p430
I1
sVd0dngtd
p431
I1
sVd8ou4fz
p432
I1
sVd4c78r2
p433
I1
sVdpp8ygz
p434
I1
sVdaxkq9f
p435
I1
sVdd59sr4
p436
I1
sVdn3nroh
p437
I1
sVcynqegv
p438
I1
sVdh19i3x
p439
I3
sVdnyiyf3
p440
I1
sVdfa2a1k
p441
I1
sVd2z8963
p442
I1
sVdcrlpns
p443
I1
sVcyrz6io
p444
I1
sVdgcm92a
p445
I1
sVcz3rb0h
p446
I1
sVd99yyvw
p447
I1
sVd2zevj5
p448
I1
sVd7lrzlj
p449
I1
sVczvz2rz
p450
I1
sVd1bndbo
p451
I1
sVd6w0r91
p452
I1
sVd5snazb
p453
I1
sVd84uv9w
p454
I1
sVd7cpw9j
p455
I1
sVcz1j7qe
p456
I1
sVdea8vd9
p457
I1
sVdikruut
p458
I1
sVdg275ub
p459
I1
sVdgqackq
p460
I1
sVdd0n7fp
p461
I1
sVd2hdetk
p462
I1
sVd125vhs
p463
I1
sVdbwozxs
p464
I1
sVdjn3s4c
p465
I1
sVd9kakq3
p466
I1
sVdawb90m
p467
I1
sVda97owj
p468
I1
sVd1x71uv
p469
I1
sVdnf9is2
p470
I1
sVd50fmul
p471
I1
sVd1229c1
p472
I1
sVdn38uj6
p473
I1
sVd4ov771
p474
I1
sVdic87l4
p475
I1
sVdsq24as
p476
I1
sVdn0e0t3
p477
I2
sVd055q7l
p478
I1
sVcymcgl6
p479
I1
sVdjcnfy7
p480
I1
sVd8gn2we
p481
I1
sVdbgr1hl
p482
I1
sVd91ledr
p483
I1
sVd16wx1p
p484
I1
sVd8r7itk
p485
I1
sVdnqndf4
p486
I1
sVdpq5dlx
p487
I1
sVdqn69jh
p488
I1
sVdnl2h5f
p489
I1
sVdiap4m8
p490
I1
sVdp9ma2l
p491
I1
sVdi72ilk
p492
I1
sVddcmcff
p493
I1
sVd39sf96
p494
I1
sVd2sv5ip
p495
I1
sVdj2c2vc
p496
I1
sVd2r103c
p497
I1
sVd03alyd
p498
I1
sVdrguty0
p499
I1
sVds24y40
p500
I1
sVczehrho
p501
I1
sVd0878s8
p502
I1
sVdnet8vb
p503
I1
sVdfm9ts0
p504
I1
sVdgl9v1b
p505
I1
sVd3badbu
p506
I1
sVd680lnv
p507
I1
sVdholkzt
p508
I1
sVd6dija7
p509
I1
sVd4vbj03
p510
I1
sVd49tbsa
p511
I1
sVdg6bgxj
p512
I1
sVdj7l5vu
p513
I1
sVdhi1t42
p514
I1
sVdegkk0a
p515
I1
sVd5pnwr1
p516
I1
sVde49mp4
p517
I2
sVdjgfbz8
p518
I1
sVdfsi6pj
p519
I1
sVdrwxhal
p520
I1
sVdboa1os
p521
I1
sVdax583q
p522
I1
sVd3pkwsv
p523
I1
sVdhgrodc
p524
I1
sVd650988
p525
I4
sVd4wjbd4
p526
I1
sVd0i16yy
p527
I1
sVdkj2lbf
p528
I1
sVdkht7op
p529
I1
sVczanpo5
p530
I1
sVczogfdm
p531
I1
sVd0sgunj
p532
I1
sVde5gujh
p533
I2
sVdfxubwn
p534
I1
sVdahgb6a
p535
I1
sVdfi6rv6
p536
I1
s.