(dp0
Vdcczjvm
p1
I1
sVd7s4545
p2
I1
sVd5e1esa
p3
I1
sVdcavmo2
p4
I1
sVdrbyqgr
p5
I1
sVd1ng90i
p6
I1
sVd1p4cjy
p7
I1
sVdikdnyt
p8
I1
sVd5byu6i
p9
I1
sVd6x4udb
p10
I1
sVdhm8yxv
p11
I2
sVde5zjg4
p12
I1
sVcz0juzt
p13
I1
sVdeohcjs
p14
I1
sVdj7cmp2
p15
I1
sVd4cwupb
p16
I2
sVd3d9yvk
p17
I1
sVd2ac0u2
p18
I1
sVdfygpkn
p19
I1
sVdtf6nqq
p20
I1
sVd1h4jtv
p21
I2
sVdpqw5xe
p22
I1
sVdbmek2v
p23
I1
sVd6ft8ha
p24
I1
sVdqjhbkf
p25
I1
sVd0rh4a3
p26
I1
sVdn4qhvz
p27
I1
sVdaojw5d
p28
I1
sVdp17r2h
p29
I1
sVd9fzabj
p30
I1
sVd1ddjyy
p31
I1
sVdhtrqj9
p32
I1
sVdjrm26l
p33
I1
sVdoj6uh7
p34
I1
sVcyl3rpk
p35
I1
sVcyigf45
p36
I1
sVdcsexun
p37
I1
sVczwa6lv
p38
I1
sVdp4129g
p39
I2
sVdbk0x01
p40
I2
sVd84h7xq
p41
I1
sVcyto6ag
p42
I1
sVdtjh9ia
p43
I1
sVd9am90w
p44
I1
sVdawj1ym
p45
I1
sVd4u18zl
p46
I1
sVdg7xsbt
p47
I1
sVda2i7r1
p48
I1
sVdg8dh96
p49
I1
sVd1duagg
p50
I1
sVd1kzbv7
p51
I1
sVd2umr1i
p52
I1
sVd8rsrte
p53
I1
sVczm9gtk
p54
I1
sVdsx5wkt
p55
I1
sVd7leo7g
p56
I3
sVdd9xftc
p57
I1
sVd5jbq8o
p58
I1
sVdnu7v31
p59
I1
sVd7rgsdl
p60
I1
sVdejfkm2
p61
I2
sVd3ba7nu
p62
I1
sVdenkzl6
p63
I1
sVd9yxuhr
p64
I1
sVdi0uslp
p65
I1
sVdf0lny1
p66
I1
sVdcrdt3y
p67
I1
sVd3r7blj
p68
I1
sVczsp55i
p69
I2
sVd5x2e0k
p70
I1
sVdbqzltb
p71
I1
sVdecncjy
p72
I2
sVd9qvqct
p73
I1
sVd4h1y60
p74
I1
sVd3bxb0a
p75
I4
sVdju43oo
p76
I1
sVczrs5vf
p77
I1
sVdh3haz9
p78
I1
sVdbnv7vo
p79
I1
sVd1o7j92
p80
I1
sVddrf756
p81
I1
sVcyzsd3f
p82
I1
sVd9dcok7
p83
I1
sVd2jiizq
p84
I1
sVdg6c958
p85
I1
sVd2d1ai5
p86
I1
sVczksrq7
p87
I2
sVd0i77pi
p88
I1
sVdakrvaf
p89
I1
sVdmgy2j7
p90
I1
sVdcqhy4f
p91
I1
sVd6v84wj
p92
I1
sVdnu62c8
p93
I1
sVdbkp508
p94
I3
sVdavysgv
p95
I1
sVd1hhol9
p96
I1
sVdfa2dnu
p97
I1
sVdfnjvc7
p98
I1
sVdsw48hr
p99
I1
sVczsla7s
p100
I1
sVdi8iq89
p101
I1
sVdiah8a2
p102
I1
sVdavrbpy
p103
I1
sVdom2yb1
p104
I1
sVdigbgis
p105
I1
sVdg7i1mi
p106
I1
sVd0pabqy
p107
I1
sVdhxdkj1
p108
I1
sVcymh7kx
p109
I1
sVd7tincs
p110
I1
sVd2naxia
p111
I1
sVdi8i4n6
p112
I2
sVdfystsi
p113
I1
sVd9fzyth
p114
I1
sVd4h2mci
p115
I1
sVdi83ijr
p116
I1
sVdmhimip
p117
I1
sVdq8zv1i
p118
I1
sVdogs01j
p119
I1
sVd2xpr5z
p120
I2
sVd8j18wn
p121
I1
sVdhn0oao
p122
I1
sVd098fjj
p123
I1
sVd4h1kyt
p124
I1
sVdhts8sv
p125
I1
sVd75nkvx
p126
I1
sVdo9ktzd
p127
I1
s.