(dp0
Vcyhvyur
p1
I1
s.(dp0
Vcyhvyur
p1
I1
sVcyittir
p2
I1
s.(dp0
Vcyhvyur
p1
I1
sVcylh4cs
p2
I1
s.(dp0
Vcyhvyur
p1
I1
sVcynqmdt
p2
I1
s.(dp0
Vcypevs7
p1
I1
sVcyhvyur
p2
I1
s.(dp0
Vcyhvyur
p1
I1
sVcyujtwo
p2
I1
s.(dp0
Vcyhvyur
p1
I1
sVcyw6h2m
p2
I1
s.(dp0
Vcyhvyur
p1
I1
sVcyxj9ud
p2
I1
s.(dp0
Vcyhvyur
p1
I1
sVcyxxdj2
p2
I1
s.(dp0
Vcyhvyur
p1
I1
sVcz0ajdi
p2
I1
s.(dp0
Vcz50d21
p1
I1
sVcyhvyur
p2
I1
s.(dp0
Vcyhvyur
p1
I1
sVcz5j9ko
p2
I1
s.(dp0
Vcyhvyur
p1
I1
sVcz5vr1v
p2
I1
s.(dp0
Vcyhvyur
p1
I1
sVcz5yv18
p2
I1
s.(dp0
Vcyhvyur
p1
I1
sVcz5yxsj
p2
I1
s.(dp0
Vcyhvyur
p1
I1
sVczj4lai
p2
I1
s.(dp0
Vcyhvyur
p1
I1
sVczlcnls
p2
I1
s.(dp0
Vcyhvyur
p1
I1
sVczle432
p2
I1
s.(dp0
Vcyhvyur
p1
I1
sVcztbb72
p2
I1
s.(dp0
Vcyhvyur
p1
I1
sVd01ruoq
p2
I1
s.(dp0
Vcyhvyur
p1
I1
sVd02d9vl
p2
I1
s.(dp0
Vcyhvyur
p1
I1
sVd03axs3
p2
I1
s.(dp0
Vcyhvyur
p1
I1
sVd0iavpq
p2
I1
s.(dp0
Vcyhvyur
p1
I1
sVd0iz1p2
p2
I1
s.(dp0
Vcyhvyur
p1
I1
sVd0mupuy
p2
I1
s.(dp0
Vcyhvyur
p1
I1
sVd0og6r6
p2
I1
s.(dp0
Vcyhvyur
p1
I1
sVd0xt8jw
p2
I1
s.(dp0
Vd11dfze
p1
I1
sVcyhvyur
p2
I1
s.(dp0
Vcyhvyur
p1
I1
sVd16ic2a
p2
I1
s.(dp0
Vcyhvyur
p1
I1
sVd18syr3
p2
I1
s.(dp0
Vcyhvyur
p1
I1
sVd18syr3
p2
I1
s.(dp0
Vcyhvyur
p1
I1
sVd1anxi1
p2
I1
s.(dp0
Vcyhvyur
p1
I1
sVd1etz22
p2
I1
s.(dp0
Vcyhvyur
p1
I1
sVd1q90bf
p2
I1
s.(dp0
Vcyhvyur
p1
I1
sVd220e90
p2
I1
s.(dp0
Vcyhvyur
p1
I1
sVd25f7h0
p2
I1
s.(dp0
Vcyhvyur
p1
I1
sVd28dce8
p2
I1
s.(dp0
Vcyhvyur
p1
I1
sVd28t8r5
p2
I1
s.(dp0
Vcyhvyur
p1
I1
sVd2cm0ba
p2
I1
s.(dp0
Vcyhvyur
p1
I1
sVd2dg2mt
p2
I1
s.(dp0
Vcyhvyur
p1
I1
sVd2ziep5
p2
I1
s.(dp0
Vd30m4r3
p1
I1
sVcyhvyur
p2
I1
s.(dp0
Vcyhvyur
p1
I1
sVd3791bj
p2
I1
s.(dp0
Vd39yvue
p1
I1
sVcyhvyur
p2
I1
s.(dp0
Vcyhvyur
p1
I1
sVd3bdcs3
p2
I1
s.(dp0
Vd3c3ele
p1
I1
sVcyhvyur
p2
I1
s.(dp0
Vcyhvyur
p1
I1
sVd3lljxe
p2
I1
s.(dp0
Vcyhvyur
p1
I1
sVd3p5rzk
p2
I1
s.(dp0
Vcyhvyur
p1
I1
sVd3xzc74
p2
I1
s.(dp0
Vcyhvyur
p1
I1
sVd3z9dyg
p2
I1
s.(dp0
Vcyhvyur
p1
I1
sVd45jh2y
p2
I1
s.(dp0
Vcyhvyur
p1
I1
sVd45jh2y
p2
I1
s.(dp0
Vcyhvyur
p1
I1
sVd45r8de
p2
I1
s.(dp0
Vd4k65v5
p1
I1
sVcyhvyur
p2
I1
s.(dp0
Vcyhvyur
p1
I1
sVd4ls7pb
p2
I1
s.(dp0
Vd4nwx7y
p1
I1
sVcyhvyur
p2
I1
s.(dp0
Vcyhvyur
p1
I1
sVd4o034u
p2
I1
s.(dp0
Vcyhvyur
p1
I1
sVd4pdzxt
p2
I1
s.(dp0
Vcyhvyur
p1
I1
sVd546wfh
p2
I1
s.(dp0
Vcyhvyur
p1
I1
sVd5cyza6
p2
I1
s.(dp0
Vcyhvyur
p1
I1
sVd5e7ncd
p2
I1
s.(dp0
Vcyhvyur
p1
I1
sVd5e7ncd
p2
I1
s.(dp0
Vcyhvyur
p1
I1
sVd5fvin5
p2
I1
s.(dp0
Vcyhvyur
p1
I1
sVd5glvgy
p2
I1
s.(dp0
Vcyhvyur
p1
I1
sVd5jn31i
p2
I1
s.(dp0
Vcyhvyur
p1
I1
sVd5kimh3
p2
I1
s.(dp0
Vd5oozqg
p1
I1
sVcyhvyur
p2
I1
s.(dp0
Vcyhvyur
p1
I1
sVd5p95yl
p2
I1
s.(dp0
Vd6bhecg
p1
I1
sVcyhvyur
p2
I1
s.(dp0
Vcyhvyur
p1
I1
sVd6cso7h
p2
I1
s.(dp0
Vcyhvyur
p1
I1
sVd6lqfdi
p2
I1
s.(dp0
Vcyhvyur
p1
I1
sVd6lzvks
p2
I1
s.(dp0
Vcyhvyur
p1
I1
sVd6m1vmn
p2
I1
s.(dp0
Vcyhvyur
p1
I1
sVd7ca462
p2
I1
s.(dp0
Vcyhvyur
p1
I1
sVd7fawtb
p2
I1
s.(dp0
Vd7hyxin
p1
I1
sVcyhvyur
p2
I1
s.(dp0
Vcyhvyur
p1
I1
sVd7tco3x
p2
I1
s.(dp0
Vcyhvyur
p1
I1
sVd7tco3x
p2
I1
s.(dp0
Vcyhvyur
p1
I1
sVd7te6kt
p2
I1
s.(dp0
Vcyhvyur
p1
I1
sVd7tlzow
p2
I1
s.(dp0
Vcyhvyur
p1
I1
sVd7uttdp
p2
I1
s.(dp0
Vd7ybenz
p1
I1
sVcyhvyur
p2
I1
s.(dp0
Vcyhvyur
p1
I1
sVd8099qy
p2
I1
s.(dp0
Vcyhvyur
p1
I1
sVd80a418
p2
I1
s.(dp0
Vcyhvyur
p1
I1
sVd8507ag
p2
I1
s.(dp0
Vcyhvyur
p1
I1
sVd862ir4
p2
I1
s.(dp0
Vcyhvyur
p1
I1
sVd8kvbel
p2
I1
s.(dp0
Vd8v9sgh
p1
I1
sVcyhvyur
p2
I1
s.(dp0
Vcyhvyur
p1
I1
sVd8ywb1a
p2
I1
s.(dp0
Vd8zcpa7
p1
I1
sVcyhvyur
p2
I1
s.(dp0
Vd903kh6
p1
I1
sVcyhvyur
p2
I1
s.(dp0
Vcyhvyur
p1
I1
sVd906bzm
p2
I1
s.(dp0
Vd933xi5
p1
I1
sVcyhvyur
p2
I1
s.(dp0
Vcyhvyur
p1
I1
sVd93jenh
p2
I1
s.(dp0
Vcyhvyur
p1
I1
sVd95i2a5
p2
I1
s.(dp0
Vcyhvyur
p1
I1
sVd9aph7g
p2
I1
s.(dp0
Vcyhvyur
p1
I1
sVd9co07f
p2
I1
s.(dp0
Vcyhvyur
p1
I1
sVd9gwwjt
p2
I1
s.(dp0
Vd9gxgh0
p1
I1
sVcyhvyur
p2
I1
s.(dp0
Vd9gxidj
p1
I1
sVcyhvyur
p2
I1
s.(dp0
Vd9gxidj
p1
I1
sVcyhvyur
p2
I1
s.(dp0
Vcyhvyur
p1
I1
sVd9mqm0a
p2
I1
s.(dp0
Vcyhvyur
p1
I1
sVd9ptloj
p2
I1
s.(dp0
Vcyhvyur
p1
I1
sVd9yygia
p2
I1
s.(dp0
Vcyhvyur
p1
I1
sVd9z0jzq
p2
I1
s.(dp0
Vcyhvyur
p1
I1
sVda0zcgb
p2
I1
s.(dp0
Vcyhvyur
p1
I1
sVda9apcq
p2
I1
s.(dp0
Vcyhvyur
p1
I1
sVdaazvt3
p2
I1
s.(dp0
Vcy(dp0
Vdtadu1d
p1
I1
sVcyhvyur
p2
I1
s.