(dp0
Vd1dbnhx
p1
I1
sVdk1fagy
p2
I2
sVdg2pi6l
p3
I1
sVdgc9qwz
p4
I1
sVdmticxa
p5
I1
sVdhmsjhl
p6
I1
sVd5gklni
p7
I1
sVczt2e1m
p8
I1
sVdgvh2ik
p9
I1
sVdjaz3uf
p10
I1
sVdr5qnfv
p11
I1
sVdnm3aef
p12
I1
sVdruphe8
p13
I1
sVdalwcrm
p14
I1
sVd90k8dp
p15
I1
sVdeguaqx
p16
I1
sVdo16c3s
p17
I1
sVdf26lj7
p18
I2
s.