(dp0
Vcyu6ixe
p1
I1
s.(dp0
Vcyu6ixe
p1
I1
sVcz2q1mg
p2
I1
s.(dp0
Vcyu6ixe
p1
I1
sVcz6mddo
p2
I1
s.(dp0
Vcyu6ixe
p1
I1
sVcz6mddo
p2
I1
s.(dp0
Vcyu6ixe
p1
I1
sVcz6mddo
p2
I1
s.(dp0
Vcyu6ixe
p1
I1
sVcz9crmy
p2
I1
s.(dp0
Vcyu6ixe
p1
I1
sVczdshx0
p2
I1
s.(dp0
Vcyu6ixe
p1
I1
sVczkbanw
p2
I1
s.(dp0
Vcyu6ixe
p1
I1
sVczkblve
p2
I1
s.(dp0
Vcyu6ixe
p1
I1
sVczkblve
p2
I1
s.(dp0
Vcyu6ixe
p1
I1
sVczkblve
p2
I1
s.(dp0
Vcyu6ixe
p1
I1
sVczkblve
p2
I1
s.(dp0
Vcyu6ixe
p1
I1
sVczkblve
p2
I1
s.(dp0
Vcyu6ixe
p1
I1
sVczvgvmk
p2
I1
s.(dp0
Vcyu6ixe
p1
I1
sVd0451io
p2
I1
s.(dp0
Vcyu6ixe
p1
I1
sVd05qpe1
p2
I1
s.(dp0
Vcyu6ixe
p1
I1
sVd0d5ygm
p2
I1
s.(dp0
Vcyu6ixe
p1
I1
sVd0ddr0f
p2
I1
s.(dp0
Vcyu6ixe
p1
I1
sVd0ddr0f
p2
I1
s.(dp0
Vcyu6ixe
p1
I1
sVd0xoh4s
p2
I1
s.(dp0
Vcyu6ixe
p1
I1
sVd0xoh4s
p2
I1
s.(dp0
Vcyu6ixe
p1
I1
sVd0xoh4s
p2
I1
s.(dp0
Vcyu6ixe
p1
I1
sVd13zefh
p2
I1
s.(dp0
Vcyu6ixe
p1
I1
sVd16jumm
p2
I1
s.(dp0
Vcyu6ixe
p1
I1
sVd16k8kc
p2
I1
s.(dp0
Vcyu6ixe
p1
I1
sVd16k8kc
p2
I1
s.(dp0
Vcyu6ixe
p1
I1
sVd19orzn
p2
I1
s.(dp0
Vcyu6ixe
p1
I1
sVd19orzn
p2
I1
s.(dp0
Vcyu6ixe
p1
I1
sVd1ebsca
p2
I1
s.(dp0
Vcyu6ixe
p1
I1
sVd1mqcyh
p2
I1
s.(dp0
Vcyu6ixe
p1
I1
sVd1o97p5
p2
I1
s.(dp0
Vcyu6ixe
p1
I1
sVd1olxe6
p2
I1
s.(dp0
Vcyu6ixe
p1
I1
sVd1qolsr
p2
I1
s.(dp0
Vcyu6ixe
p1
I1
sVd1t5mc2
p2
I1
s.(dp0
Vcyu6ixe
p1
I1
sVd23dnzj
p2
I1
s.(dp0
Vcyu6ixe
p1
I1
sVd2ietvj
p2
I1
s.(dp0
Vcyu6ixe
p1
I1
sVd2m39el
p2
I1
s.(dp0
Vcyu6ixe
p1
I1
sVd2orld2
p2
I1
s.(dp0
Vcyu6ixe
p1
I1
sVd2orld2
p2
I1
s.(dp0
Vcyu6ixe
p1
I1
sVd2orld2
p2
I1
s.(dp0
Vcyu6ixe
p1
I1
sVd2osvke
p2
I1
s.(dp0
Vcyu6ixe
p1
I1
sVd2oy5k8
p2
I1
s.(dp0
Vcyu6ixe
p1
I1
sVd2oy5k8
p2
I1
s.(dp0
Vcyu6ixe
p1
I1
sVd3138f2
p2
I1
s.(dp0
Vcyu6ixe
p1
I1
sVd35gm4j
p2
I1
s.(dp0
Vcyu6ixe
p1
I1
sVd35gm4j
p2
I1
s.(dp0
Vcyu6ixe
p1
I1
sVd35gm4j
p2
I1
s.(dp0
Vcyu6ixe
p1
I1
sVd35gm4j
p2
I1
s.(dp0
Vcyu6ixe
p1
I1
sVd35tn9q
p2
I1
s.(dp0
Vcyu6ixe
p1
I1
sVd35tn9q
p2
I1
s.(dp0
Vcyu6ixe
p1
I1
sVd36gg6a
p2
I1
s.(dp0
Vcyu6ixe
p1
I1
sVd37757v
p2
I1
s.(dp0
Vcyu6ixe
p1
I1
sVd3ewf8z
p2
I1
s.(dp0
Vcyu6ixe
p1
I1
sVd3fdxoq
p2
I1
s.(dp0
Vcyu6ixe
p1
I1
sVd3g2oq3
p2
I1
s.(dp0
Vcyu6ixe
p1
I1
sVd3g2oq3
p2
I1
s.(dp0
Vcyu6ixe
p1
I1
sVd3h1ksx
p2
I1
s.(dp0
Vcyu6ixe
p1
I1
sVd3x7mqv
p2
I1
s.(dp0
Vcyu6ixe
p1
I1
sVd41oncx
p2
I1
s.(dp0
Vcyu6ixe
p1
I1
sVd41wycv
p2
I1
s.(dp0
Vcyu6ixe
p1
I1
sVd41xece
p2
I1
s.(dp0
Vcyu6ixe
p1
I1
sVd48e8tv
p2
I1
s.(dp0
Vcyu6ixe
p1
I1
sVd49t9iw
p2
I1
s.(dp0
Vcyu6ixe
p1
I1
sVd4oyexa
p2
I1
s.(dp0
Vcyu6ixe
p1
I1
sVd5929tj
p2
I1
s.(dp0
Vcyu6ixe
p1
I1
sVd5h6pch
p2
I1
s.(dp0
Vcyu6ixe
p1
I1
sVd5z88c4
p2
I1
s.(dp0
Vcyu6ixe
p1
I1
sVd5z88c4
p2
I1
s.(dp0
Vcyu6ixe
p1
I1
sVd62r71a
p2
I1
s.(dp0
Vcyu6ixe
p1
I1
sVd64vg7q
p2
I1
s.(dp0
Vcyu6ixe
p1
I1
sVd6jfpyo
p2
I1
s.(dp0
Vcyu6ixe
p1
I1
sVd6ktytm
p2
I1
s.(dp0
Vcyu6ixe
p1
I1
sVd6rlban
p2
I1
s.(dp0
Vcyu6ixe
p1
I1
sVd7azd9q
p2
I1
s.(dp0
Vcyu6ixe
p1
I1
sVd7e32l9
p2
I1
s.(dp0
Vcyu6ixe
p1
I1
sVd7fe2v0
p2
I1
s.(dp0
Vcyu6ixe
p1
I1
sVd7nxo8d
p2
I1
s.(dp0
Vcyu6ixe
p1
I1
sVd7ozxzh
p2
I1
s.(dp0
Vcyu6ixe
p1
I1
sVd7slxm7
p2
I1
s.(dp0
Vcyu6ixe
p1
I1
sVd7zzph5
p2
I1
s.(dp0
Vcyu6ixe
p1
I1
sVd80u5ou
p2
I1
s.(dp0
Vcyu6ixe
p1
I1
sVd85xvpd
p2
I1
s.(dp0
Vcyu6ixe
p1
I1
sVd89sile
p2
I1
s.(dp0
Vcyu6ixe
p1
I1
sVd8gn10j
p2
I1
s.(dp0
Vcyu6ixe
p1
I1
sVd8w2to9
p2
I1
s.(dp0
Vcyu6ixe
p1
I1
sVd91xxpe
p2
I1
s.(dp0
Vcyu6ixe
p1
I1
sVd94m55j
p2
I1
s.(dp0
Vcyu6ixe
p1
I1
sVd99yqhw
p2
I1
s.(dp0
Vcyu6ixe
p1
I1
sVd9ddtas
p2
I1
s.(dp0
Vcyu6ixe
p1
I1
sVd9dp8yv
p2
I1
s.(dp0
Vcyu6ixe
p1
I1
sVd9hwpzk
p2
I1
s.(dp0
Vcyu6ixe
p1
I1
sVd9kdwfn
p2
I1
s.(dp0
Vcyu6ixe
p1
I1
sVda6r45b
p2
I1
s.(dp0
Vcyu6ixe
p1
I1
sVdafw91k
p2
I1
s.(dp0
Vcyu6ixe
p1
I1
sVdafw91k
p2
I1
s.(dp0
Vcyu6ixe
p1
I1
sVdaqi9sg
p2
I1
s.(dp0
Vcyu6ixe
p1
I1
sVdaxqf2h
p2
I1
s.(dp0
Vcyu6ixe
p1
I1
sVdb3zmms
p2
I1
s.(dp0
Vcyu6ixe
p1
I1
sVdb3zmms
p2
I1
s.(dp0
Vcyu6ixe
p1
I1
sVdb43vm1
p2
I1
s.(dp0
Vcyu6ixe
p1
I1
sVdb7ekaa
p2
I1
s.(dp0
Vcyu6ixe
p1
I1
sVdb7ekaa
p2
I1
s.(dp0
Vcyu6ixe
p1
I1
sVdbbo2za
p2
I1
s.(dp0
Vcyu6ixe
p1
I1
sVdbkhqwz
p2
I1
s.(dp0
Vcyu6ixe
p1
I1
sVdbkhqwz
p2
I1
s.(dp0
Vcyu6ixe
p1
I1
sVdbkhqwz
p2
I1
s.(dp0
Vcyu6ixe
p1
I1
sVdbm5f9h
p2
I1
s.(dp0
Vcyu6ixe
p1
I1
sVdbmh02z
p2
I1
s.(dp0
Vcy(dp0
Vcyu6ixe
p1
I1
sVdt1thc6
p2
I1
s.