(dp0
Vczxawxe
p1
I1
s.(dp0
Vczxawxe
p1
I1
sVczz0pf4
p2
I1
s.(dp0
Vczxawxe
p1
I1
sVd2ifrjl
p2
I1
s.(dp0
Vczxawxe
p1
I1
sVd2ifrjl
p2
I1
s.(dp0
Vd4zv67a
p1
I1
sVczxawxe
p2
I1
s.(dp0
Vczxawxe
p1
I1
sVd5hwe4o
p2
I1
s.(dp0
Vd7aslg4
p1
I1
sVczxawxe
p2
I1
s.(dp0
Vczxawxe
p1
I1
sVd7b7cdg
p2
I1
s.(dp0
Vczxawxe
p1
I1
sVd7fybah
p2
I1
s.(dp0
Vczxawxe
p1
I1
sVd8go16m
p2
I1
s.(dp0
Vczxawxe
p1
I1
sVd8goz0h
p2
I1
s.(dp0
Vczxawxe
p1
I1
sVd8kqi1x
p2
I1
s.(dp0
Vczxawxe
p1
I1
sVd8pzq7j
p2
I1
s.(dp0
Vczxawxe
p1
I1
sVd9331qw
p2
I1
s.(dp0
Vd9bpvov
p1
I1
sVczxawxe
p2
I1
s.(dp0
Vd9bpvov
p1
I1
sVczxawxe
p2
I1
s.(dp0
Vd9zqi7o
p1
I1
sVczxawxe
p2
I1
s.(dp0
Vd9zqi7o
p1
I1
sVczxawxe
p2
I1
s.(dp0
Vd9zqi7o
p1
I1
sVczxawxe
p2
I1
s.(dp0
Vdatlye2
p1
I1
sVczxawxe
p2
I1
s.(dp0
Vdatlye2
p1
I1
sVczxawxe
p2
I1
s.(dp0
Vdb63ev4
p1
I1
sVczxawxe
p2
I1
s.(dp0
Vdbsltfz
p1
I1
sVczxawxe
p2
I1
s.(dp0
Vczxawxe
p1
I1
sVdcztc6j
p2
I1
s.(dp0
Vddj35od
p1
I1
sVczxawxe
p2
I1
s.(dp0
Vczxawxe
p1
I1
sVddlv1cq
p2
I1
s.(dp0
Vczxawxe
p1
I1
sVddq91to
p2
I1
s.(dp0
Vczxawxe
p1
I1
sVde5resn
p2
I1
s.(dp0
Vczxawxe
p1
I1
sVdepg014
p2
I1
s.(dp0
Vderxpf1
p1
I1
sVczxawxe
p2
I1
s.(dp0
Vczxawxe
p1
I1
sVdfbbco6
p2
I1
s.(dp0
Vdfd8gu8
p1
I1
sVczxawxe
p2
I1
s.(dp0
Vdfd8gu8
p1
I1
sVczxawxe
p2
I1
s.(dp0
Vdfd8gu8
p1
I1
sVczxawxe
p2
I1
s.(dp0
Vdgkmjao
p1
I1
sVczxawxe
p2
I1
s.(dp0
Vdgkmjao
p1
I1
sVczxawxe
p2
I1
s.(dp0
Vdi04v77
p1
I1
sVczxawxe
p2
I1
s.(dp0
Vdil7pw4
p1
I1
sVczxawxe
p2
I1
s.(dp0
Vdil7pw4
p1
I1
sVczxawxe
p2
I1
s.(dp0
Vdiz8xcr
p1
I1
sVczxawxe
p2
I1
s.(dp0
Vdiz8xcr
p1
I1
sVczxawxe
p2
I1
s.(dp0
Vdiz8xcr
p1
I1
sVczxawxe
p2
I1
s.(dp0
Vdizaybg
p1
I1
sVczxawxe
p2
I1
s.(dp0
Vdizaybg
p1
I1
sVczxawxe
p2
I1
s.(dp0
Vczxawxe
p1
I1
sVdizjepy
p2
I1
s.(dp0
Vczxawxe
p1
I1
sVdizkli3
p2
I1
s.(dp0
Vczxawxe
p1
I1
sVdk0lwpu
p2
I1
s.(dp0
Vczxawxe
p1
I1
sVdk0miro
p2
I1
s.(dp0
Vczxawxe
p1
I1
sVdk0miro
p2
I1
s.(dp0
Vczxawxe
p1
I1
sVdk0miro
p2
I1
s.