(dp0
Vcyjoc5q
p1
I1
s.(dp0
Vcyjoc5q
p1
I1
sVcykmlpq
p2
I1
s.(dp0
Vcyjoc5q
p1
I1
sVcykmlpq
p2
I1
s.(dp0
Vcyjoc5q
p1
I1
sVcykmlpq
p2
I1
s.(dp0
Vcyjoc5q
p1
I1
sVcykmlpq
p2
I1
s.(dp0
Vcyjoc5q
p1
I1
sVcykmlpq
p2
I1
s.(dp0
Vcyjoc5q
p1
I1
sVcyqaodp
p2
I1
s.(dp0
Vcyqs8bq
p1
I1
sVcyjoc5q
p2
I1
s.(dp0
Vcysw82k
p1
I1
sVcyjoc5q
p2
I1
s.(dp0
Vcysw82k
p1
I1
sVcyjoc5q
p2
I1
s.(dp0
Vcyjoc5q
p1
I1
sVcyus526
p2
I1
s.(dp0
Vcyjoc5q
p1
I1
sVcyuufmg
p2
I1
s.(dp0
Vcyjoc5q
p1
I1
sVcyv5w9f
p2
I1
s.(dp0
Vcyjoc5q
p1
I1
sVcz3rm1o
p2
I1
s.(dp0
Vcyjoc5q
p1
I1
sVcz5ynj9
p2
I1
s.(dp0
Vcyjoc5q
p1
I1
sVcz6k9hs
p2
I1
s.(dp0
Vcyjoc5q
p1
I1
sVcz6k9hs
p2
I1
s.(dp0
Vcyjoc5q
p1
I1
sVczavw9n
p2
I1
s.(dp0
Vcyjoc5q
p1
I1
sVczg5xr6
p2
I1
s.(dp0
Vcyjoc5q
p1
I1
sVczhcb80
p2
I1
s.(dp0
Vcyjoc5q
p1
I1
sVczhcb80
p2
I1
s.(dp0
Vcyjoc5q
p1
I1
sVczhujaq
p2
I1
s.(dp0
Vczmrg5i
p1
I1
sVcyjoc5q
p2
I1
s.(dp0
Vcyjoc5q
p1
I1
sVczryfzm
p2
I1
s.(dp0
Vcyjoc5q
p1
I1
sVczsgdv4
p2
I1
s.(dp0
Vcyjoc5q
p1
I1
sVczy5r7j
p2
I1
s.(dp0
Vcyjoc5q
p1
I1
sVd00hzy1
p2
I1
s.(dp0
Vcyjoc5q
p1
I1
sVd029o3c
p2
I1
s.(dp0
Vcyjoc5q
p1
I1
sVd04ff9z
p2
I1
s.(dp0
Vcyjoc5q
p1
I1
sVd0720sk
p2
I1
s.(dp0
Vcyjoc5q
p1
I1
sVd07yj47
p2
I1
s.(dp0
Vcyjoc5q
p1
I1
sVd0gnhhs
p2
I1
s.(dp0
Vcyjoc5q
p1
I1
sVd0iav4t
p2
I1
s.(dp0
Vcyjoc5q
p1
I1
sVd0jp94p
p2
I1
s.(dp0
Vcyjoc5q
p1
I1
sVd0jx0gg
p2
I1
s.(dp0
Vcyjoc5q
p1
I1
sVd0lr28e
p2
I1
s.(dp0
Vcyjoc5q
p1
I1
sVd0nt57h
p2
I1
s.(dp0
Vcyjoc5q
p1
I1
sVd0nt57h
p2
I1
s.(dp0
Vcyjoc5q
p1
I1
sVd0nt57h
p2
I1
s.(dp0
Vcyjoc5q
p1
I1
sVd0pjjiq
p2
I1
s.(dp0
Vcyjoc5q
p1
I1
sVd0s0p9h
p2
I1
s.(dp0
Vcyjoc5q
p1
I1
sVd0slogt
p2
I1
s.(dp0
Vcyjoc5q
p1
I1
sVd0suj7b
p2
I1
s.(dp0
Vd0zq8mu
p1
I1
sVcyjoc5q
p2
I1
s.(dp0
Vcyjoc5q
p1
I1
sVd10dw7l
p2
I1
s.(dp0
Vcyjoc5q
p1
I1
sVd124ndy
p2
I1
s.(dp0
Vcyjoc5q
p1
I1
sVd15i4cd
p2
I1
s.(dp0
Vcyjoc5q
p1
I1
sVd19rjx0
p2
I1
s.(dp0
Vcyjoc5q
p1
I1
sVd1caup0
p2
I1
s.(dp0
Vcyjoc5q
p1
I1
sVd1ggeu7
p2
I1
s.(dp0
Vcyjoc5q
p1
I1
sVd1gic19
p2
I1
s.(dp0
Vcyjoc5q
p1
I1
sVd1l9x2x
p2
I1
s.(dp0
Vcyjoc5q
p1
I1
sVd1szmhy
p2
I1
s.(dp0
Vcyjoc5q
p1
I1
sVd20cr3r
p2
I1
s.(dp0
Vd2agwxr
p1
I1
sVcyjoc5q
p2
I1
s.(dp0
Vcyjoc5q
p1
I1
sVd2bg3mv
p2
I1
s.(dp0
Vcyjoc5q
p1
I1
sVd2tzo1y
p2
I1
s.(dp0
Vcyjoc5q
p1
I1
sVd337dzd
p2
I1
s.(dp0
Vcyjoc5q
p1
I1
sVd33syh6
p2
I1
s.(dp0
Vd35crek
p1
I1
sVcyjoc5q
p2
I1
s.(dp0
Vd35crek
p1
I1
sVcyjoc5q
p2
I1
s.(dp0
Vd35d90j
p1
I1
sVcyjoc5q
p2
I1
s.(dp0
Vcyjoc5q
p1
I1
sVd35fc8k
p2
I1
s.(dp0
Vcyjoc5q
p1
I1
sVd3fjhp3
p2
I1
s.(dp0
Vcyjoc5q
p1
I1
sVd3moas9
p2
I1
s.(dp0
Vd3vuxmt
p1
I1
sVcyjoc5q
p2
I1
s.(dp0
Vd3w4mhd
p1
I1
sVcyjoc5q
p2
I1
s.(dp0
Vcyjoc5q
p1
I1
sVd3w5duj
p2
I1
s.(dp0
Vcyjoc5q
p1
I1
sVd3w5o06
p2
I1
s.(dp0
Vcyjoc5q
p1
I1
sVd3w89fl
p2
I1
s.(dp0
Vcyjoc5q
p1
I1
sVd4hnrjk
p2
I1
s.(dp0
Vcyjoc5q
p1
I1
sVd50g7xo
p2
I1
s.(dp0
Vcyjoc5q
p1
I1
sVd59u2mq
p2
I1
s.(dp0
Vcyjoc5q
p1
I1
sVd5bbf9n
p2
I1
s.(dp0
Vcyjoc5q
p1
I1
sVd5ekr6u
p2
I1
s.(dp0
Vcyjoc5q
p1
I1
sVd5ivwws
p2
I1
s.(dp0
Vcyjoc5q
p1
I1
sVd5ivwws
p2
I1
s.(dp0
Vcyjoc5q
p1
I1
sVd5jnd06
p2
I1
s.(dp0
Vcyjoc5q
p1
I1
sVd5l626g
p2
I1
s.(dp0
Vcyjoc5q
p1
I1
sVd5sm49e
p2
I1
s.(dp0
Vcyjoc5q
p1
I1
sVd5w0wqx
p2
I1
s.(dp0
Vcyjoc5q
p1
I1
sVd5zjb0a
p2
I1
s.(dp0
Vcyjoc5q
p1
I1
sVd64fjgv
p2
I1
s.(dp0
Vcyjoc5q
p1
I1
sVd6bv61q
p2
I1
s.(dp0
Vd6ebpy1
p1
I1
sVcyjoc5q
p2
I1
s.(dp0
Vcyjoc5q
p1
I1
sVd6gu7yp
p2
I1
s.(dp0
Vcyjoc5q
p1
I1
sVd6gu7yp
p2
I1
s.(dp0
Vcyjoc5q
p1
I1
sVd6gu7yp
p2
I1
s.(dp0
Vcyjoc5q
p1
I1
sVd6ldxhr
p2
I1
s.(dp0
Vcyjoc5q
p1
I1
sVd6trocf
p2
I1
s.(dp0
Vcyjoc5q
p1
I1
sVd73a7d0
p2
I1
s.(dp0
Vcyjoc5q
p1
I1
sVd75eo1t
p2
I1
s.(dp0
Vcyjoc5q
p1
I1
sVd75eo1t
p2
I1
s.(dp0
Vcyjoc5q
p1
I1
sVd78cffp
p2
I1
s.(dp0
Vcyjoc5q
p1
I1
sVd78cffp
p2
I1
s.(dp0
Vcyjoc5q
p1
I1
sVd78d7zl
p2
I1
s.(dp0
Vd78daju
p1
I1
sVcyjoc5q
p2
I1
s.(dp0
Vcyjoc5q
p1
I1
sVd7b8bxk
p2
I1
s.(dp0
Vd7bjoxi
p1
I1
sVcyjoc5q
p2
I1
s.(dp0
Vcyjoc5q
p1
I1
sVd7comn0
p2
I1
s.(dp0
Vcyjoc5q
p1
I1
sVd7ip9p5
p2
I1
s.(dp0
Vcyjoc5q
p1
I1
sVd88x9fp
p2
I1
s.(dp0
Vcyjoc5q
p1
I1
sVd8rs909
p2
I1
s.(dp0
Vcyjoc5q
p1
I1
sVd8yr1j4
p2
I1
s.(dp0
Vcyjoc5q
p1
I1
sVd8yr1j4
p2
I1
s.(dp0
Vd97b9eo
p1
I1
sVcyjoc5q
p2
I1
s.(dp0
Vd9ayw3d
p1
I1
sVcyjoc5q
p2
I1
s.(dp0
Vcyjoc5q
p1
I1
sVd9bjtgl
p2
I1
s.(dp0
Vcy(dp0
Vcyjoc5q
p1
I1
sVdtfk5yz
p2
I1
s.