(dp0
Vdjcuedg
p1
I1
sVdhkc3z8
p2
I1
sVdnh9943
p3
I2
sVdb6kynk
p4
I1
sVd3moas9
p5
I1
sVdeh8exu
p6
I1
sVcz6k9hs
p7
I2
sVdo8hj5z
p8
I1
sVddsvzkw
p9
I1
sVd2bg3mv
p10
I1
sVdkp8cyp
p11
I1
sVd2tzo1y
p12
I1
sVdn4hgo4
p13
I1
sVdbfngqh
p14
I1
sVd64fjgv
p15
I1
sVdknl2qy
p16
I1
sVd3fjhp3
p17
I1
sVcyjoc5q
p18
I1
sVddu3bs7
p19
I1
sVd88x9fp
p20
I1
sVczhujaq
p21
I1
sVddbv1bs
p22
I1
sVd75eo1t
p23
I2
sVcz3rm1o
p24
I1
sVczryfzm
p25
I1
sVddgwg20
p26
I1
sVd0pjjiq
p27
I1
sVdt3hk2r
p28
I1
sVd4hnrjk
p29
I1
sVd8rs909
p30
I1
sVdms7oxh
p31
I1
sVd04ff9z
p32
I1
sVdeiiy0d
p33
I1
sVdidwwmi
p34
I1
sVdt5hezr
p35
I1
sVd7ip9p5
p36
I1
sVd0720sk
p37
I1
sVdimc8j4
p38
I1
sVdjn8aba
p39
I1
sVd00hzy1
p40
I1
sVd78daju
p41
I1
sVd33syh6
p42
I1
sVdseq0ic
p43
I1
sVde3x3fh
p44
I1
sVczy5r7j
p45
I1
sVddbyfhv
p46
I1
sVd9zrd8x
p47
I1
sVd6gu7yp
p48
I3
sVd0suj7b
p49
I1
sVd3w5o06
p50
I1
sVddbqj57
p51
I1
sVdb3uvig
p52
I2
sVd35d90j
p53
I1
sVdtfk5yz
p54
I1
sVd5ivwws
p55
I2
sVd7comn0
p56
I1
sVdqmwwjs
p57
I1
sVdt4if17
p58
I1
sVd6trocf
p59
I1
sVczmrg5i
p60
I1
sVd0gnhhs
p61
I1
sVdmi1fpn
p62
I1
sVd029o3c
p63
I1
sVdowe3x9
p64
I1
sVd6ebpy1
p65
I1
sVdea2b9t
p66
I1
sVdgyb7f6
p67
I1
sVd5zjb0a
p68
I1
sVdmejw4w
p69
I1
sVdkmohus
p70
I1
sVd0jx0gg
p71
I1
sVd97b9eo
p72
I1
sVdr48dgg
p73
I1
sVd07yj47
p74
I1
sVdiae71l
p75
I1
sVdj0n4iw
p76
I1
sVdjwz8ux
p77
I1
sVd0nt57h
p78
I3
sVd2agwxr
p79
I1
sVdcxhyeu
p80
I1
sVczhcb80
p81
I2
sVd6ldxhr
p82
I1
sVdeasrak
p83
I1
sVd9bjtgl
p84
I1
sVd35crek
p85
I2
sVd19rjx0
p86
I1
sVdnd3tm0
p87
I1
sVdrkcq7o
p88
I1
sVd35fc8k
p89
I1
sVd9ayw3d
p90
I1
sVdi2tqf1
p91
I1
sVd7b8bxk
p92
I1
sVcyus526
p93
I1
sVdkmocy2
p94
I1
sVdjqzagl
p95
I1
sVdbn9a2w
p96
I1
sVdq8ennv
p97
I1
sVdqbpfis
p98
I1
sVdjvvwov
p99
I1
sVd3w4mhd
p100
I1
sVd78cffp
p101
I2
sVd0jp94p
p102
I1
sVdkw7kzo
p103
I1
sVdbzmi8w
p104
I1
sVd5sm49e
p105
I1
sVcyuufmg
p106
I1
sVdnd742e
p107
I1
sVdq2b0kp
p108
I1
sVdsywlic
p109
I1
sVdomkqdt
p110
I1
sVdcyhvik
p111
I1
sVdbftsvw
p112
I1
sVd1szmhy
p113
I1
sVcyv5w9f
p114
I1
sVd50g7xo
p115
I1
sVcykmlpq
p116
I5
sVd6bv61q
p117
I1
sVd7bjoxi
p118
I1
sVd3vuxmt
p119
I1
sVd78d7zl
p120
I1
sVdp6g2u2
p121
I1
sVdkkpefo
p122
I1
sVd1ggeu7
p123
I1
sVcysw82k
p124
I2
sVczavw9n
p125
I1
sVdndkklk
p126
I2
sVd124ndy
p127
I1
sVczg5xr6
p128
I1
sVdh6uyat
p129
I1
sVdgut69d
p130
I1
sVdgvl106
p131
I1
sVcz5ynj9
p132
I1
sVdmq4tjm
p133
I2
sVdjo9jg2
p134
I1
sVd59u2mq
p135
I1
sVd3w5duj
p136
I1
sVdi7fpf8
p137
I1
sVd1l9x2x
p138
I1
sVd0zq8mu
p139
I1
sVd1caup0
p140
I1
sVdaxf9bq
p141
I1
sVd10dw7l
p142
I1
sVd8yr1j4
p143
I2
sVd3w89fl
p144
I1
sVdi86puv
p145
I1
sVdc1e6s4
p146
I1
sVddc817t
p147
I2
sVdgqk91v
p148
I1
sVdp9xlqj
p149
I1
sVdkbvqfu
p150
I1
sVdjvmawf
p151
I1
sVdnj6k3e
p152
I1
sVd9hqg8s
p153
I1
sVdempdti
p154
I1
sVdpen21n
p155
I1
sVd5l626g
p156
I1
sVdn3vukr
p157
I1
sVda0r0do
p158
I1
sVdsixka3
p159
I1
sVd5w0wqx
p160
I1
sVdedt7xq
p161
I1
sVd1gic19
p162
I1
sVd9q1q1s
p163
I1
sVd0iav4t
p164
I1
sVdfs8ye0
p165
I1
sVdhcvv2c
p166
I1
sVd0slogt
p167
I1
sVdeye834
p168
I1
sVdi9nz84
p169
I1
sVdndja4d
p170
I3
sVd5jnd06
p171
I1
sVd15i4cd
p172
I1
sVdcwpma6
p173
I1
sVdip4w0d
p174
I1
sVd20cr3r
p175
I1
sVd0s0p9h
p176
I1
sVdikjyq3
p177
I1
sVdpapw3m
p178
I1
sVdk9orl1
p179
I1
sVd337dzd
p180
I1
sVdnswogf
p181
I1
sVdaupqc4
p182
I1
sVdaj7fnm
p183
I1
sVdnd7b6g
p184
I2
sVd5ekr6u
p185
I1
sVdml2xb3
p186
I1
sVdj9jlsn
p187
I1
sVdpw8v53
p188
I2
sVdnldz96
p189
I1
sVdov4c1y
p190
I1
sVd0lr28e
p191
I1
sVcyqaodp
p192
I1
sVdt3hc4k
p193
I1
sVd5bbf9n
p194
I1
sVdndh978
p195
I1
sVdnd9k9k
p196
I1
sVdr8otqo
p197
I1
sVdpczpbw
p198
I1
sVczsgdv4
p199
I1
sVddol021
p200
I1
sVd73a7d0
p201
I1
sVdsfemoa
p202
I1
sVdtcb4pq
p203
I1
sVdho4y9j
p204
I1
sVcyqs8bq
p205
I1
sVdej0lot
p206
I1
s.