(dp0
Vdsdncy0
p1
I1
sVd9vofce
p2
I1
sVd16q1kt
p3
I1
sVd25wc5a
p4
I1
sVdfd43z8
p5
I1
sVczy3ca0
p6
I1
sVdofp4tl
p7
I2
sVcz4vfkd
p8
I1
sVd0x6eku
p9
I1
sVd7e2q5n
p10
I1
sVd2w2tsy
p11
I1
sVdquy0hc
p12
I1
sVd2o4k88
p13
I1
sVd4kemvn
p14
I1
sVczxin80
p15
I1
sVdhr3toi
p16
I1
sVdceiu36
p17
I1
sVdgyir3q
p18
I1
sVdq92xts
p19
I1
sVd1sgids
p20
I1
sVdd2jgww
p21
I1
sVd4irk0k
p22
I1
sVd4o5o63
p23
I2
sVd1r5ypp
p24
I1
sVd2edkqx
p25
I1
sVdfqmclx
p26
I1
sVd4l9zpa
p27
I1
sVd5x7d1j
p28
I1
sVda0izg5
p29
I1
sVd7ekjog
p30
I1
sVd51m31p
p31
I1
sVddzee75
p32
I1
sVd7xjskj
p33
I1
sVdc65sly
p34
I1
sVdc2s7mf
p35
I1
sVcz8o963
p36
I1
sVd6ma4k6
p37
I1
sVd8dx561
p38
I1
sVdauh6dh
p39
I1
sVdtbl01v
p40
I1
sVdf0k9x6
p41
I1
sVd2n85ry
p42
I1
sVdhwrg7k
p43
I1
sVdcetpgh
p44
I1
sVdbeu165
p45
I1
sVda0lz0l
p46
I1
sVdo4392o
p47
I1
sVda1uq9z
p48
I2
sVdkz0y6i
p49
I3
sVdqplpkw
p50
I1
sVdndrh5i
p51
I1
sVdiygxt4
p52
I1
sVdgnj8fa
p53
I2
sVdfvjjcn
p54
I1
sVd1jmvds
p55
I1
sVdqv1sic
p56
I1
sVdhkaly8
p57
I1
sVcz46irm
p58
I1
sVdkt2enw
p59
I1
sVdiq7knr
p60
I1
sVdgml86j
p61
I1
sVd2q3385
p62
I1
sVdj6572m
p63
I1
sVd38w5uz
p64
I1
sVdjebsxd
p65
I1
sVdd8gt0k
p66
I1
sVd6jf01w
p67
I1
sVd2zh666
p68
I1
sVdep66uk
p69
I1
sVde70kwz
p70
I1
sVd1qz3bc
p71
I2
sVdbjcuvv
p72
I1
sVdh9d8lz
p73
I1
sVd9gezoo
p74
I1
sVcywopku
p75
I1
sVdtdzsoj
p76
I1
sVd4djllw
p77
I1
sVd6c8z8w
p78
I1
sVd5mi0yq
p79
I1
sVd0svp3v
p80
I1
sVdmkpmax
p81
I1
sVdk48et9
p82
I1
sVdhutpy1
p83
I1
sVddcyhqw
p84
I2
sVcz23pk4
p85
I1
sVdcmgdff
p86
I1
sVdd2jvqk
p87
I1
sVdjn1g1z
p88
I1
sVd2tg5es
p89
I1
sVdjtdlz9
p90
I1
sVdj3q8kt
p91
I1
sVcywoa3h
p92
I1
sVczcg0ie
p93
I1
sVdt088qy
p94
I1
sVdfblghb
p95
I1
sVdaqcgw9
p96
I1
sVd71oeo3
p97
I1
sVd9nzkqv
p98
I1
sVdfp7o0t
p99
I2
sVdofz824
p100
I1
sVd5n5xca
p101
I1
sVdcaf3k1
p102
I2
sVdplkcde
p103
I1
sVddroxhh
p104
I2
sVdn2nw4t
p105
I1
sVd1w32go
p106
I1
sVdc4bkgy
p107
I1
sVdi85wmk
p108
I2
sVd46nu39
p109
I1
sVdetoak0
p110
I1
sVcyphpxu
p111
I1
sVdp4ls2v
p112
I1
sVd01ra90
p113
I1
sVd83w46h
p114
I1
sVd3gi374
p115
I1
sVd1ho716
p116
I1
sVd71ymua
p117
I1
sVdpnfalj
p118
I1
sVd1agr5k
p119
I1
sVdggmke1
p120
I1
sVd084ucd
p121
I1
sVdeqi20q
p122
I1
sVd4fydgg
p123
I1
sVd9xmljm
p124
I1
sVdbh0i0h
p125
I1
sVdi5e01q
p126
I1
sVd88g3n4
p127
I2
sVd0vav22
p128
I1
sVdhv3k2r
p129
I1
sVd05v33k
p130
I1
sVda32fax
p131
I1
sVd0ponqz
p132
I1
sVd5fvin5
p133
I1
sVdb7n0bb
p134
I1
sVdao3xfd
p135
I1
sVdb3tz3s
p136
I1
sVd6lj96n
p137
I1
sVdhby67d
p138
I2
sVd0v3rk6
p139
I1
sVdcnnbhf
p140
I1
sVdeuuw0j
p141
I3
sVd2py0sn
p142
I1
sVd1r2t4e
p143
I1
sVdgyzu2a
p144
I1
sVdg8epj0
p145
I1
sVdffpmbd
p146
I1
sVd49fq6u
p147
I1
sVd9qqugj
p148
I1
sVddfx71p
p149
I1
sVdsewpja
p150
I1
sVdgfbi80
p151
I1
sVdc5j7m6
p152
I2
sVd35hbhp
p153
I1
sVd2jy26u
p154
I1
sVdjqupwl
p155
I1
sVd1k81dj
p156
I1
sVdjt2mdn
p157
I1
sVd9d761w
p158
I1
sVd8y7n2o
p159
I1
sVd0cj63k
p160
I1
sVdonjdze
p161
I1
sVdo9qzkp
p162
I2
sVd0i9pro
p163
I1
sVdhuvxmz
p164
I1
sVdgiitmo
p165
I1
sVdkeb9cl
p166
I1
sVdfzjgm3
p167
I1
sVdt6b9ay
p168
I1
sVdcatsfd
p169
I1
sVddvk3n2
p170
I3
sVdc9q7qu
p171
I2
sVcz5nbtu
p172
I1
sVdaj4rb9
p173
I1
sVda5eles
p174
I1
sVd3fbk3t
p175
I1
sVdgryd4r
p176
I1
sVds4z8xb
p177
I1
sVd62oezu
p178
I1
sVczv8rlp
p179
I1
sVdeauigl
p180
I1
sVd1lf1xc
p181
I1
sVdt30bnj
p182
I1
sVd3znsk3
p183
I1
sVdbrdth8
p184
I1
sVd1gus77
p185
I1
sVdg8efd9
p186
I1
sVdgt9w32
p187
I1
sVd22ob4g
p188
I1
sVcymzar5
p189
I1
sVdedfbxf
p190
I1
sVdc2t69k
p191
I1
sVcz9v9yx
p192
I1
sVdmhizxu
p193
I1
sVd4nfkm3
p194
I1
sVdkn3nyd
p195
I1
sVd00bto9
p196
I1
sVdhpwwrr
p197
I1
sVd5qt7br
p198
I1
sVdf5f892
p199
I1
sVdfvkdin
p200
I1
sVd69qg7p
p201
I1
sVdo8eahm
p202
I1
sVdmq42o0
p203
I1
sVd4au2it
p204
I1
sVdrnpuru
p205
I1
sVd4nejqg
p206
I2
sVda2t5r7
p207
I1
sVd0w7a80
p208
I1
sVdcmkl3u
p209
I1
sVd6uh87b
p210
I1
sVdj84i1s
p211
I1
sVczh8r91
p212
I1
sVdedb5el
p213
I1
sVd8ykve8
p214
I1
sVdivrjll
p215
I1
sVd5e628p
p216
I1
sVdcwafcn
p217
I2
sVdecfpdl
p218
I1
sVcyyolkl
p219
I3
sVd6rid3b
p220
I1
sVd1isgi1
p221
I1
sVd9sj8to
p222
I1
sVd1tpt5a
p223
I1
sVdidp564
p224
I1
sVd2h6i8n
p225
I1
sVd5lfyzk
p226
I1
sVdfqqhwm
p227
I1
sVd6wfoqt
p228
I1
sVd0i0feb
p229
I1
sVdkctab3
p230
I2
sVdbhpg7t
p231
I1
sVdppsop0
p232
I1
sVdbbocaz
p233
I1
sVd51k19h
p234
I1
sVd121ljg
p235
I1
sVd8dk2gg
p236
I1
sVd89o9hh
p237
I1
sVdddk1mr
p238
I1
sVcz3f1ij
p239
I1
sVdbwjcw9
p240
I1
sVd1n5qmb
p241
I1
sVd1mj468
p242
I1
sVd6iapeb
p243
I1
sVd4rr4db
p244
I1
sVdj054e1
p245
I1
sVd4xyi77
p246
I1
sVd5irclb
p247
I1
sVdimh1m2
p248
I1
sVd11f4r1
p249
I1
sVd2a2wn1
p250
I1
sVdi560ck
p251
I1
sVdnp64nk
p252
I2
sVd3kzh2h
p253
I1
sVcyqg827
p254
I2
sVdgzme2g
p255
I1
sVdit4yfn
p256
I1
sVdid1odj
p257
I1
sVd6fdoy8
p258
I1
sVd5t9iwe
p259
I1
sVdqiykyq
p260
I1
sVdms3dp4
p261
I1
sVdc3n8iv
p262
I1
sVd39iibt
p263
I1
sVd8o0y5v
p264
I1
sVd20p4ml
p265
I2
sVdgs8wt8
p266
I1
sVdpjpho7
p267
I1
sVdq6g1wm
p268
I1
sVczjjkuc
p269
I1
sVdnbhvud
p270
I1
sVd8tdpbt
p271
I1
sVd0h9zl0
p272
I1
sVcz6gru8
p273
I1
sVd1iizw3
p274
I1
sVd50022k
p275
I1
sVd38ok63
p276
I1
sVdfw1kaf
p277
I1
sVd1mzura
p278
I1
sVcznun9n
p279
I1
sVd0lovnv
p280
I1
sVd01qlbl
p281
I1
sVddoty5i
p282
I1
sVdan1za1
p283
I1
sVcz27u02
p284
I1
sVdtf2mtl
p285
I1
sVdhliaao
p286
I1
sVdbcfon8
p287
I1
sVd8g3mji
p288
I1
sVd8c7g0o
p289
I1
sVd7ua8i8
p290
I1
sVdrn5hfi
p291
I1
sVdsj14ln
p292
I1
sVd99fy9s
p293
I1
sVd0y85mo
p294
I1
sVcyyoqwm
p295
I1
sVd462n9m
p296
I1
sVdmeysif
p297
I1
sVdfreh9p
p298
I1
sVdc7oe3t
p299
I1
sVdhratay
p300
I1
sVd1wpnl3
p301
I1
sVd5i065d
p302
I1
sVd7bcvk2
p303
I1
sVdi6maoz
p304
I1
sVcyndbyv
p305
I1
sVd61ecqq
p306
I2
sVdsxppwf
p307
I1
sVdjtv81h
p308
I1
sVdg89ycd
p309
I1
sVdi5cjpm
p310
I2
sVd81ihuk
p311
I1
sVdr43y70
p312
I1
sVd8q69kb
p313
I1
sVd2f48nu
p314
I1
sVd06t3om
p315
I1
sVdhrpt5z
p316
I1
sVd39t9v6
p317
I1
sVddrrk9d
p318
I1
sVd1af7sa
p319
I1
sVd05aff3
p320
I1
sVd3aipwl
p321
I1
sVd2fdkbq
p322
I1
sVcyz4za0
p323
I1
sVd9o46pe
p324
I1
sVdbil1cm
p325
I1
sVd1aqgmk
p326
I1
sVd0etwdo
p327
I1
sVdan01kf
p328
I1
sVd11xwhl
p329
I1
sVd3i4rvk
p330
I1
sVd5uh39r
p331
I1
sVdjvevey
p332
I1
sVdi3cnay
p333
I1
sVd89pbxw
p334
I1
sVd4fxkvd
p335
I1
sVdk4go7y
p336
I1
sVdfqydkh
p337
I1
sVdh587w8
p338
I1
sVczkbr6y
p339
I1
sVd7a03rn
p340
I1
sVd2xlmt5
p341
I1
sVdrpxlcp
p342
I1
sVczcevuv
p343
I1
sVd56dpq3
p344
I1
sVd6xfx9y
p345
I1
sVd10j0q3
p346
I1
sVdh327t6
p347
I1
sVcynf4nh
p348
I1
sVdfv5tgz
p349
I1
sVd41q532
p350
I1
sVdapou05
p351
I1
sVdb9gcz0
p352
I1
sVd3i43pq
p353
I1
sVd409nv4
p354
I1
sVdg4pvrx
p355
I1
sVdaogakm
p356
I2
sVd2k5th3
p357
I1
sVdhp53vn
p358
I1
sVdmpbtv3
p359
I1
sVd3am4b9
p360
I1
sVdorvxw6
p361
I1
sVdnmbyhd
p362
I1
sVczmddwp
p363
I1
sVdf7ytcb
p364
I1
sVd64pcyr
p365
I1
sVd25le3a
p366
I1
sVdnlid16
p367
I2
sVdpatqnt
p368
I1
sVdebbxf8
p369
I1
sVdfmfdj3
p370
I1
sVdf65cqm
p371
I1
sVdqfc0yl
p372
I1
sVd195pn9
p373
I1
sVd5h0njf
p374
I2
sVds7wgvq
p375
I1
sVdk78e89
p376
I1
sVdigdlqr
p377
I1
sVdagkm3a
p378
I1
sVcz7yo4a
p379
I1
sVdgncp57
p380
I2
sVdao2r77
p381
I1
sVdf121ws
p382
I1
sVdhz5kuu
p383
I1
sVdbph5kf
p384
I1
sVdgignrz
p385
I1
sVdpjeou0
p386
I1
sVdas9qfq
p387
I1
sVdbdipkm
p388
I1
sVdfzb4iu
p389
I1
sVdaw9xfu
p390
I1
sVd6v2uop
p391
I1
sVd2aihzx
p392
I1
sVd1zbcnj
p393
I1
sVdgv3efj
p394
I1
sVd8vn80g
p395
I1
sVd384k65
p396
I1
sVda16avx
p397
I1
sVdpuryps
p398
I1
sVddgm56e
p399
I1
sVdcrb2a1
p400
I1
sVdj4632s
p401
I1
sVczgn9nm
p402
I1
sVdixl7qs
p403
I1
sVdnv1fdr
p404
I1
sVd0rvqou
p405
I1
sVd7jvcid
p406
I1
sVd0ifzm7
p407
I1
sVdal6em6
p408
I1
sVd3v6ezs
p409
I1
sVdgfeffk
p410
I1
sVcynjjg7
p411
I1
sVd93i0hr
p412
I1
sVd4kaqlq
p413
I1
sVdpr91qp
p414
I1
sVdfxo6b1
p415
I1
sVd2g5l4a
p416
I1
sVdg8zsfj
p417
I1
sVd1jxpaf
p418
I1
sVdptiek1
p419
I1
sVczv1qim
p420
I1
sVczslh72
p421
I2
sVd8uuwq6
p422
I1
sVdgd6p0x
p423
I1
sVd7fy2n2
p424
I1
sVd9vj995
p425
I1
sVdsmr8o0
p426
I1
sVdk1g7qr
p427
I1
sVdklro34
p428
I1
sVds4ixwe
p429
I1
sVdjg3gn2
p430
I1
sVd42v2db
p431
I1
sVd0o9pwi
p432
I1
sVd1w34v2
p433
I1
sVd04hd9h
p434
I1
sVd7qh3bd
p435
I1
sVd64empp
p436
I1
sVdp35r5a
p437
I1
sVd1wmopn
p438
I1
sVdbwctv7
p439
I1
sVdn3tp7t
p440
I1
sVdklpe7b
p441
I1
sVde98b46
p442
I1
sVdida448
p443
I1
sVdnx2rvt
p444
I1
sVdg3we87
p445
I2
sVdonftqj
p446
I1
sVd0jvyge
p447
I1
sVdd28xtj
p448
I1
sVdoq4ewu
p449
I1
sVdhqmqkr
p450
I1
sVdo6lel4
p451
I1
sVd8fyktf
p452
I1
sVdroe95h
p453
I1
sVd0lisuh
p454
I1
sVd9q3a0o
p455
I1
sVdt966sj
p456
I1
sVczo9qj6
p457
I1
sVd264b40
p458
I1
sVd9k54mq
p459
I1
sVdddadiu
p460
I4
sVdaxwasv
p461
I1
sVczj4d82
p462
I1
sVd27g9fg
p463
I1
sVdjeb9dv
p464
I1
sVd8fvgvm
p465
I2
sVcz4to6g
p466
I1
sVd19av8m
p467
I1
sVdiv4xgz
p468
I1
sVd6wmq9q
p469
I1
sVczyeskr
p470
I1
sVd6mdd0e
p471
I1
sVd3ib7io
p472
I1
sVddw4tg8
p473
I1
sVdfnekzg
p474
I1
sVdb0h1it
p475
I1
sVdq9qwqx
p476
I1
sVd253sre
p477
I2
sVdb0lzja
p478
I1
sVdk19thl
p479
I1
sVd9onw33
p480
I1
sVd1p0cii
p481
I1
sVd70lrrd
p482
I1
sVd3hpwpl
p483
I1
sVdihmfzb
p484
I1
sVdb4uoe6
p485
I1
sVd49tmey
p486
I1
sVdiqwy0s
p487
I1
sVd8jha47
p488
I1
sVd95ww05
p489
I1
sVdi63lap
p490
I1
sVdcjs6sh
p491
I1
sVd7xrlwg
p492
I1
sVdbgkptv
p493
I1
sVdaqsn7k
p494
I1
sVdt3ctu0
p495
I1
sVdis1c76
p496
I1
sVdko2fde
p497
I1
sVd162llc
p498
I1
sVdkbbov4
p499
I1
sVdkjksn2
p500
I1
sVdcb84me
p501
I1
sVdcgbii5
p502
I2
sVd03fg9a
p503
I2
sVdd3aiel
p504
I1
sVd1j9091
p505
I1
sVd3hj88t
p506
I1
sVdfscusz
p507
I1
sVd2gm9iu
p508
I1
sVdg3cets
p509
I1
sVcynz810
p510
I2
sVd41tr9q
p511
I1
sVd58byva
p512
I1
sVdqlq2zp
p513
I1
sVdd2xsu1
p514
I1
sVdmknlrq
p515
I1
sVd26gnei
p516
I1
sVd7e6x52
p517
I1
sVd1smnxx
p518
I2
sVd7bn86a
p519
I1
sVd0ewqza
p520
I1
sVdcgiud2
p521
I1
sVdaepqju
p522
I1
sVdmt2rpm
p523
I1
sVde40lkt
p524
I1
sVd3ocm8x
p525
I1
sVdh6mvdu
p526
I1
sVdn2qsoc
p527
I1
sVd3t1cze
p528
I1
sVd7shmsg
p529
I1
sVda1ygda
p530
I1
sVd8104ep
p531
I1
sVdejd3r5
p532
I1
sVcytr9xx
p533
I1
sVcz2nuds
p534
I1
sVdh3sb3t
p535
I1
sVd2u58wd
p536
I1
sVd0j051j
p537
I1
sVczh2hvb
p538
I1
sVdcg60oa
p539
I1
sVdi92e1d
p540
I1
sVdbyjqzp
p541
I1
sVde3jdsm
p542
I2
sVdhhgvpy
p543
I1
sVd380ue5
p544
I1
sVd2a9loq
p545
I1
sVdrc7m7a
p546
I1
sVdplwxen
p547
I1
sVd90v8oo
p548
I2
sVd87bgd0
p549
I1
sVdafdmqj
p550
I1
sVdshf8t3
p551
I1
sVdbh0hxo
p552
I1
sVdnz2nv1
p553
I2
sVd15uw2g
p554
I1
sVcz3o9vn
p555
I1
sVd6p6hew
p556
I1
sVdpua0ni
p557
I1
sVdjc05cd
p558
I1
sVdfjk64q
p559
I1
sVd03mddt
p560
I1
sVdg5zzw2
p561
I1
sVdckm9ou
p562
I1
sVdcyga8a
p563
I2
sVdbklxj9
p564
I1
sVdo03s1c
p565
I1
sVd3ao2o3
p566
I1
sVdfovwgs
p567
I1
sVdaks8su
p568
I1
sVd1tkel7
p569
I1
sVdrygbzm
p570
I1
sVczmbr3r
p571
I2
sVdhzjyqf
p572
I2
sVdnhde7u
p573
I1
sVdbu7lq9
p574
I1
sVdbeashm
p575
I1
sVd7nu0zw
p576
I1
sVdij55q0
p577
I1
sVd5mmaol
p578
I1
sVd8ox9v0
p579
I1
sVd8ugmkf
p580
I1
sVd09mgv4
p581
I1
sVd9zf2s0
p582
I1
sVdixdasl
p583
I1
sVdkud35f
p584
I1
sVd08940s
p585
I1
sVd022ctr
p586
I1
sVcz4738p
p587
I1
sVddwo1kk
p588
I1
sVd5bgyr5
p589
I1
sVd5uza9x
p590
I1
sVd1kezki
p591
I1
sVcyn5tq4
p592
I2
sVdeormje
p593
I1
sVdd1ru7r
p594
I1
sVdj2t96i
p595
I1
sVd3vvd8p
p596
I2
sVd1gj4p3
p597
I1
sVdcarshy
p598
I1
sVd8fozsz
p599
I1
sVd8fqp4h
p600
I1
sVdo2cscs
p601
I1
sVdsqq8nr
p602
I1
sVdsujxu7
p603
I1
sVd5gqe14
p604
I1
sVczxb2vy
p605
I1
sVd45v7w4
p606
I1
sVdr7yt7g
p607
I1
sVd97e08z
p608
I1
sVdbhfvuc
p609
I1
sVdgkgm7l
p610
I1
sVdd4i0pv
p611
I2
sVd0r3lgc
p612
I1
sVd1ptuwd
p613
I1
sVdbn4n8g
p614
I1
sVdposehm
p615
I1
sVdblq6qn
p616
I1
sVdqmwwjs
p617
I3
sVd6o4sdz
p618
I1
sVcyndenl
p619
I1
sVdkzdcht
p620
I1
sVd3gk6jq
p621
I2
sVdskuvr0
p622
I1
sVdacr51d
p623
I1
sVdh6irop
p624
I1
sVd03oiep
p625
I1
sVcyibugh
p626
I1
sVdfdqj7x
p627
I1
sVdgn3ruk
p628
I3
sVdh0ubsn
p629
I1
sVd6m5opa
p630
I1
sVdajv3u3
p631
I1
sVd3shmau
p632
I1
sVdan4ujt
p633
I1
sVddllbxv
p634
I1
sVdsclnef
p635
I1
sVdabp4zg
p636
I1
sVd6hk0er
p637
I1
sVdc6r3r8
p638
I1
sVde9aien
p639
I1
sVdg8t9ah
p640
I1
sVczwq9qv
p641
I1
sVdgd3rbg
p642
I1
sVdaerq3f
p643
I1
sVdj3qn49
p644
I1
sVd9kwicz
p645
I2
sVdi60ebp
p646
I1
sVdc7dva9
p647
I1
sVdkiegs6
p648
I1
sVcyqwukh
p649
I2
sVdmye4ba
p650
I1
sVd76hosn
p651
I1
sVdhm0gus
p652
I1
sVd7yh8wt
p653
I2
sVcymjh8h
p654
I1
sVdmui2vi
p655
I2
sVd09n6hl
p656
I1
sVddby5k1
p657
I1
sVdbhom5h
p658
I1
sVdcd8o0j
p659
I1
sVdrnjd0m
p660
I1
sVcyqgliq
p661
I1
sVdswbeob
p662
I1
sVdct9q82
p663
I1
sVdfwvl5h
p664
I1
sVd229a1x
p665
I1
sVd9aes5s
p666
I2
sVd7m3ssn
p667
I1
sVd7gy7zr
p668
I1
sVdc88kpi
p669
I1
sVd5ftng0
p670
I1
sVdtejr26
p671
I1
sVd6y1bnb
p672
I1
sVd310vdu
p673
I1
sVdhkj83n
p674
I2
sVdeua1dd
p675
I1
sVdai99h6
p676
I1
sVd3a2fyx
p677
I1
sVdprlvfp
p678
I1
sVdj0swrb
p679
I1
sVdc2betn
p680
I1
sVd53xy7a
p681
I1
sVdbpgffr
p682
I1
sVdj2gb21
p683
I1
sVdfdtvxq
p684
I2
sVcz2t71s
p685
I1
sVd2l8a0a
p686
I1
sVd5c9oyc
p687
I1
sVd4mazeo
p688
I1
sVd0x77rs
p689
I2
sVdaysxp1
p690
I1
sVd8dlc6v
p691
I1
sVdbig6bd
p692
I1
sVdawjgrz
p693
I1
sVdcvtn1a
p694
I1
sVdocyw06
p695
I1
sVde6ymvw
p696
I1
sVdacxx65
p697
I1
sVdiqi74b
p698
I1
sVdalj95g
p699
I1
sVds9zfbb
p700
I1
sVd3kr3iw
p701
I1
sVd5dfk1i
p702
I1
sVd53jira
p703
I1
sVd4glrwk
p704
I1
sVdo8pzyc
p705
I1
sVd88d36j
p706
I1
sVd7b3hij
p707
I1
sVd4p0pug
p708
I1
sVdmruo83
p709
I1
sVd00srho
p710
I1
sVdhrbpfg
p711
I1
sVda78kyu
p712
I1
sVdelodgy
p713
I1
sVczi56wu
p714
I1
sVdmsizjd
p715
I2
sVdnolap8
p716
I2
sVdi206hj
p717
I1
sVd868fyy
p718
I2
sVd0jbpi7
p719
I1
sVcyqt1uk
p720
I1
sVcztm867
p721
I1
sVd6j5vhg
p722
I2
sVd4e0aju
p723
I1
sVdrmhrgc
p724
I1
sVdi7f3q9
p725
I1
sVdog47zw
p726
I1
sVd5kkisz
p727
I1
sVdbg94a8
p728
I2
sVczspu0c
p729
I1
sVd3tivxk
p730
I1
sVdcmcddx
p731
I1
sVd1qrjlv
p732
I1
sVdk7v6s5
p733
I1
sVcz7e1rc
p734
I1
sVddre6zv
p735
I1
sVdpwizla
p736
I1
sVdnvwvf1
p737
I1
sVcz7hj5q
p738
I1
sVd5zv850
p739
I2
sVd7sp87x
p740
I1
sVdqclj5a
p741
I1
sVdnupuo2
p742
I1
sVdfvs8mu
p743
I1
sVdoed91j
p744
I1
sVd2kyxwf
p745
I1
sVdh53cb8
p746
I1
sVdn5qy0v
p747
I1
sVdnodfps
p748
I1
sVd07cc4w
p749
I1
sVdbr316k
p750
I1
sVd6vgknk
p751
I1
sVd2z8aik
p752
I1
sVdhircmv
p753
I1
sVdodh0i8
p754
I1
sVdc4q8ml
p755
I1
sVdgrjk5g
p756
I1
sVdb8amjc
p757
I1
sVd0f6n7c
p758
I1
sVd1yvz3r
p759
I1
sVdqkc03t
p760
I1
sVd3udp7k
p761
I1
sVdq2ulsm
p762
I1
sVcz3wbb1
p763
I1
sVddz34lo
p764
I1
sVdb54p1f
p765
I1
sVdfzf8ve
p766
I1
sVd479waa
p767
I1
sVdhvbupm
p768
I1
sVdn82osb
p769
I1
sVd05do11
p770
I1
sVdk09re6
p771
I1
sVdrc0es9
p772
I1
sVd7slw98
p773
I1
sVdho3vul
p774
I1
sVcz218ew
p775
I1
sVdoz9de0
p776
I2
sVd7jzhdm
p777
I1
sVdoe4deu
p778
I1
sVd6tlj8o
p779
I1
sVdj7geoo
p780
I1
sVd39ag0u
p781
I1
sVd83tn1z
p782
I1
sVd6nqtyk
p783
I1
sVdsetbyg
p784
I1
sVd0xob7o
p785
I1
sVddi1ugk
p786
I1
sVdn2ru7a
p787
I1
sVdo4my9n
p788
I1
sVdend508
p789
I1
sVcztkntv
p790
I1
sVdr9uao1
p791
I1
sVczk59h4
p792
I1
sVd3wkykq
p793
I1
sVdmq7dhu
p794
I1
sVd5a0jsv
p795
I2
sVd19ypxz
p796
I1
sVdkqum31
p797
I1
sVd76nmrb
p798
I1
sVcylst1k
p799
I1
sVd6bqizt
p800
I1
sVdgb1y4l
p801
I1
sVcz9ydx8
p802
I2
sVcz02v7q
p803
I1
sVcyswqoe
p804
I1
sVd7rnj0s
p805
I1
sVd2srn1i
p806
I1
sVdh2uyod
p807
I1
sVd2cvofp
p808
I1
sVdtaqevv
p809
I1
sVdrkicae
p810
I1
sVdn2tm6e
p811
I2
sVdan6jhu
p812
I1
sVdcopku1
p813
I1
sVd596h0y
p814
I1
sVddgycpq
p815
I1
sVd2uu8c5
p816
I1
sVdhjf7tt
p817
I1
sVd7095ec
p818
I1
sVd9r61f5
p819
I1
sVdfiobec
p820
I1
sVdbw42xf
p821
I1
sVdgezkut
p822
I1
sVd4mparn
p823
I1
sVcyxwur6
p824
I1
sVd2c4bl2
p825
I2
sVd2rk02t
p826
I1
sVdo7v734
p827
I1
sVd1vz0wm
p828
I1
sVd9pgpj2
p829
I1
sVd3r4wnw
p830
I1
sVdjeeu8m
p831
I1
sVdskbhzc
p832
I1
sVdthcgzr
p833
I1
sVdbngbia
p834
I1
sVdp58t7g
p835
I1
sVdfbo5zn
p836
I2
sVdd0k6d0
p837
I1
sVdf4t9c5
p838
I1
sVdosja5b
p839
I1
sVdhjd7rx
p840
I1
sVd0bmrmk
p841
I1
sVd1p9ktr
p842
I1
sVdk0qkh5
p843
I1
sVd2p5e4k
p844
I1
sVd20jpho
p845
I1
sVczhqrto
p846
I1
sVd3h4udz
p847
I1
sVcz4srt9
p848
I1
sVdhflv0p
p849
I1
sVdkvo8i3
p850
I1
sVd1jurnj
p851
I1
sVdsgtw22
p852
I1
sVcyp4shj
p853
I1
sVd894u6b
p854
I1
sVd5oq8pt
p855
I1
sVdfoy82a
p856
I1
sVddwggaq
p857
I1
sVdgn43yx
p858
I1
sVd0ffcgp
p859
I1
sVcz4ubl9
p860
I1
sVd4cdt06
p861
I1
sVd051orx
p862
I1
sVdjdbpk8
p863
I1
sVd583s3m
p864
I1
sVd6xw6gn
p865
I1
sVdfgdmkc
p866
I2
sVdg3znut
p867
I2
sVdsty8l6
p868
I1
sVd0b13rw
p869
I2
sVd4nl2a6
p870
I1
sVde6trqi
p871
I1
sVdpyyl3k
p872
I1
sVdhzvq7v
p873
I1
sVdgmi3is
p874
I1
sVd36cphu
p875
I1
sVdmn3nao
p876
I1
sVd89sile
p877
I1
sVdfyaflv
p878
I1
sVd16khjs
p879
I1
sVd1k5he4
p880
I2
sVdb0n1vj
p881
I1
sVdetqbmo
p882
I1
sVd4oiaoe
p883
I1
sVdf50up9
p884
I1
sVd6dxnp5
p885
I1
sVdnir5fy
p886
I1
sVdanun9u
p887
I1
sVd14j6v2
p888
I1
sVdrm0k0z
p889
I1
sVdmsz46d
p890
I1
sVdef1tci
p891
I1
sVd08vbm3
p892
I1
sVd0ei6zf
p893
I1
sVd8ylbtz
p894
I1
sVdggm16r
p895
I1
sVd72u095
p896
I1
sVd19puf5
p897
I1
sVdbkyvpq
p898
I1
sVdcmwtov
p899
I1
sVdjb88kw
p900
I1
sVd68vxah
p901
I1
sVd5fn20l
p902
I1
sVdsd0kqu
p903
I1
sVd1v5ugp
p904
I5
sVdo5vfxz
p905
I1
sVdkt3e9b
p906
I1
sVd654pcd
p907
I1
sVdovh493
p908
I1
sVd4bdftb
p909
I1
sVds9wkcc
p910
I1
sVdksb5dg
p911
I1
sVd30fd4l
p912
I1
sVdkfctqv
p913
I1
sVdsevi8k
p914
I1
sVd077epq
p915
I1
sVd1kk5vy
p916
I1
sVd1eu3l4
p917
I2
sVdipvhx5
p918
I1
sVcynhyi7
p919
I1
sVdoiag1p
p920
I1
sVd0rpctw
p921
I1
sVdn15zpk
p922
I4
sVdcmg7cy
p923
I1
sVdkvhdiz
p924
I1
sVdqcbhho
p925
I1
sVde7ydy9
p926
I1
sVd21s1xe
p927
I1
sVd8g5638
p928
I1
sVdjppigx
p929
I1
sVdqoy3w7
p930
I1
sVdavxf01
p931
I1
sVd9vg28d
p932
I3
sVd9dsm7d
p933
I1
sVdf6eqes
p934
I1
sVd01rpku
p935
I1
sVd5hctzf
p936
I1
sVdiryz1k
p937
I1
sVd1u7rfd
p938
I1
sVderikta
p939
I2
sVdopmyc9
p940
I1
sVdejafxc
p941
I1
sVdgk9qo0
p942
I1
sVdijjr16
p943
I1
sVddwjulf
p944
I1
sVcyq9alo
p945
I1
sVdq5crmg
p946
I1
sVdb1ysb3
p947
I1
sVdfihx1r
p948
I1
sVdnkegwh
p949
I1
sVdczdjhk
p950
I1
sVd4g6lz6
p951
I1
sVdfmuan3
p952
I1
sVdamism6
p953
I1
sVdj7qx72
p954
I1
sVd1qluwx
p955
I1
sVd0kk9eh
p956
I1
sVd52remk
p957
I2
sVdta6gyw
p958
I1
sVdcm13zi
p959
I1
sVd8nv41b
p960
I1
sVd17uj89
p961
I1
sVcytc30i
p962
I1
sVdhpodpx
p963
I1
sVd7ohe0o
p964
I1
sVd85lkej
p965
I1
sVd6rzaoo
p966
I1
sVd1evf7l
p967
I1
sVd5590dm
p968
I1
sVd6nu9so
p969
I1
sVd2aeyri
p970
I1
sVds8leib
p971
I1
sVczmc7yq
p972
I1
sVd3kw1lq
p973
I1
sVdmiskda
p974
I1
sVd1dhdc2
p975
I1
sVdbw97sb
p976
I1
sVd005rwy
p977
I1
sVd5w0224
p978
I1
sVdcam03x
p979
I1
sVdioh81s
p980
I1
sVddo9450
p981
I1
sVcyqkn5i
p982
I1
sVdqc2ztf
p983
I1
sVdg3mz4v
p984
I1
sVd4a5w59
p985
I1
sVdhn7lyv
p986
I2
sVdbkubfn
p987
I1
sVd3w8upb
p988
I1
sVdnp37gt
p989
I1
sVdgvk04p
p990
I1
sVdnebamz
p991
I1
sVd340p3y
p992
I1
sVdhf0y4j
p993
I1
sVdbx9z9x
p994
I1
sVdeumhh4
p995
I1
sVdhxycwm
p996
I1
sVd1a6e3s
p997
I2
sVd7b8bxk
p998
I1
sVczqb694
p999
I1
sVdi4fv5k
p1000
I1
sVdmnic3q
p1001
I1
sVdiknbnq
p1002
I1
sVd4vf58n
p1003
I1
sVde70rdv
p1004
I1
sVdimet24
p1005
I1
sVdsx0e95
p1006
I1
sVdsa1np4
p1007
I1
sVcyoz45w
p1008
I1
sVddujdb5
p1009
I1
sVdan8s4r
p1010
I1
sVdo08gg6
p1011
I1
sVd5cogat
p1012
I1
sVdscenrl
p1013
I1
sVd9c008l
p1014
I1
sVdtimx6w
p1015
I2
sVd3nesdb
p1016
I1
sVd8jetr4
p1017
I1
sVd8eun3i
p1018
I3
sVd68kira
p1019
I1
sVdcq45o8
p1020
I1
sVdec3p3g
p1021
I3
sVdsrohf0
p1022
I1
sVd2r3jri
p1023
I1
sVdejcapv
p1024
I1
sVd2t3kx5
p1025
I1
sVcyion75
p1026
I1
sVdcz2u7t
p1027
I1
sVdavjw6k
p1028
I1
sVdj5jzbw
p1029
I1
sVd2ngvdo
p1030
I1
sVdi0fx2a
p1031
I1
sVdcu2usk
p1032
I1
sVd0iav4t
p1033
I1
sVdd8m2jt
p1034
I1
sVdp7x4nx
p1035
I1
sVdn0o375
p1036
I2
sVd2h3aep
p1037
I1
sVd7vvs8g
p1038
I1
sVdeeo4zr
p1039
I1
sVdhofeks
p1040
I1
sVd3ajatx
p1041
I1
sVd036vui
p1042
I1
sVdeenszz
p1043
I1
sVd4hz7tg
p1044
I1
sVdfdf7q1
p1045
I1
sVdcp5sk8
p1046
I1
sVdn4jf6f
p1047
I1
sVdhocln8
p1048
I1
sVczbvu8u
p1049
I2
sVdqptek0
p1050
I1
sVd00r92z
p1051
I1
sVda2xx2v
p1052
I1
sVdfk55el
p1053
I1
sVdeoau9x
p1054
I1
sVddyqkin
p1055
I1
sVdi0tmlz
p1056
I1
sVdigcns6
p1057
I1
sVdaklejv
p1058
I1
sVd242a7d
p1059
I1
sVd6zmike
p1060
I1
sVdnnbkj4
p1061
I1
sVd053eew
p1062
I1
sVcz992pr
p1063
I1
sVd97lag1
p1064
I1
sVdn4v8jj
p1065
I2
sVda5zaqq
p1066
I1
sVd3i8yrp
p1067
I1
sVdf05gjr
p1068
I1
sVd9790lb
p1069
I1
sVdt50idi
p1070
I1
sVcyraj0b
p1071
I1
sVd12y8iq
p1072
I1
sVd901581
p1073
I1
sVdavwlg9
p1074
I1
sVdom6s4a
p1075
I1
sVdixtspf
p1076
I1
sVd2amxwl
p1077
I1
sVd6sjzk7
p1078
I1
sVczdjeoy
p1079
I1
sVdan9a99
p1080
I1
sVd95nwt8
p1081
I2
sVdc3ode8
p1082
I1
sVd0v3c36
p1083
I1
sVdbawmq8
p1084
I1
sVdd7ahb9
p1085
I1
sVdkmauu5
p1086
I1
sVd4ksy0e
p1087
I1
sVd3h0aji
p1088
I1
sVdbku3pg
p1089
I1
sVcz8b6us
p1090
I1
sVd7l2gdg
p1091
I1
sVdjme5gh
p1092
I1
sVdju4pld
p1093
I1
sVdcnah19
p1094
I1
sVde8v3ke
p1095
I2
sVdmyd7jq
p1096
I1
sVd1izyy9
p1097
I1
sVd0sqcr7
p1098
I1
sVd0665he
p1099
I1
sVdpoy6kk
p1100
I1
sVdta7q97
p1101
I1
sVdajfbah
p1102
I1
sVd1vdbos
p1103
I1
sVddidkoc
p1104
I1
sVdaj9r9t
p1105
I1
sVd1t7n7u
p1106
I1
sVdcau60r
p1107
I1
sVd0v1k8v
p1108
I1
sVdfkaosp
p1109
I1
sVczbnoeh
p1110
I1
sVdbi6gt0
p1111
I1
sVd7hk59i
p1112
I1
sVczdk2yf
p1113
I1
sVd693e4g
p1114
I1
sVd6yn3sm
p1115
I1
sVd2r0br4
p1116
I1
sVd110fxd
p1117
I1
sVd729auf
p1118
I1
sVdam8fyt
p1119
I1
sVcyppdsu
p1120
I1
sVdkx80u1
p1121
I1
sVd7iuvqp
p1122
I1
sVd1h4sjs
p1123
I1
sVdefv17l
p1124
I1
sVdey3wey
p1125
I1
sVdcd8zts
p1126
I1
sVdsf8m3c
p1127
I1
sVcynttoa
p1128
I1
sVd3hg5n1
p1129
I1
sVd10ihs3
p1130
I1
sVdbqewss
p1131
I1
sVdnmydsh
p1132
I1
sVd62kbge
p1133
I1
sVdf1jgwq
p1134
I2
sVd0a1fj6
p1135
I1
sVd9woqvf
p1136
I1
sVd2ghmie
p1137
I1
sVdbh66gs
p1138
I1
sVdecdzbx
p1139
I1
sVd0y7n7x
p1140
I1
sVd65jaur
p1141
I1
sVdq3uxly
p1142
I1
sVd2q6u75
p1143
I1
sVd75fbhy
p1144
I1
sVdc0lfvr
p1145
I1
sVdg9jjz0
p1146
I1
sVd0pommt
p1147
I1
sVczdwqhe
p1148
I1
sVdgyu9lh
p1149
I1
sVd5ew59z
p1150
I2
sVd9ps5tj
p1151
I1
sVd4sb0dv
p1152
I2
sVd3gao0t
p1153
I1
sVd17v4nu
p1154
I1
sVdcpwsv2
p1155
I1
sVdrkurq5
p1156
I2
sVdf1mars
p1157
I1
sVdnz2hqt
p1158
I1
sVde3zgxl
p1159
I1
sVd2hu537
p1160
I1
sVd2922y1
p1161
I1
sVdh70asp
p1162
I2
sVdrm57bh
p1163
I1
sVd2eshp1
p1164
I1
sVddwpq9h
p1165
I1
sVd54njoc
p1166
I1
sVdisz7cs
p1167
I2
sVd4b7azg
p1168
I1
sVd9tkze0
p1169
I1
sVd84apzv
p1170
I3
sVd8ylddz
p1171
I1
sVczbgu6e
p1172
I1
sVd4uvio5
p1173
I1
sVda6t479
p1174
I1
sVd0r2pn9
p1175
I1
sVcz7ufkl
p1176
I1
sVd6gv2sl
p1177
I1
sVcz0rp0o
p1178
I1
sVdc54k8u
p1179
I1
sVdghrmel
p1180
I2
sVd7w4f8t
p1181
I1
sVd4ojjcu
p1182
I1
sVd7ks7dl
p1183
I1
sVdt0l47f
p1184
I1
sVdi0svam
p1185
I1
sVdj10r3v
p1186
I1
sVdc98yy0
p1187
I1
sVdelxty6
p1188
I1
sVdnhyxhm
p1189
I1
sVdjz5x4n
p1190
I1
sVdd9mwqi
p1191
I1
sVdsufsil
p1192
I1
sVdtf7e3x
p1193
I1
sVdddpsb9
p1194
I2
sVcz8vxmb
p1195
I1
sVd0sboya
p1196
I1
sVdbgf9rd
p1197
I1
sVdoe8ddd
p1198
I1
sVd7hwntv
p1199
I1
sVcysnthf
p1200
I2
sVd4sgzx5
p1201
I1
sVdqo4alk
p1202
I1
sVczli133
p1203
I1
sVdkgkihi
p1204
I1
sVdal0wdm
p1205
I1
sVdauc25g
p1206
I2
sVd0s2fzp
p1207
I1
sVdg34k29
p1208
I1
sVdmv91x6
p1209
I1
sVdmhsk4h
p1210
I1
sVcz7ywvt
p1211
I1
sVcyktnni
p1212
I1
sVd97yr1l
p1213
I1
sVdh28v6u
p1214
I1
sVd224op5
p1215
I1
sVdiyi4n2
p1216
I1
sVdfzk2e0
p1217
I1
sVczffrqe
p1218
I1
sVcyi6isw
p1219
I1
sVcyjo2gw
p1220
I1
sVddcs1hm
p1221
I2
sVd5t468m
p1222
I2
sVd2zot2q
p1223
I1
sVczn4f1h
p1224
I1
sVdfyo6qf
p1225
I1
sVdszfkwh
p1226
I1
sVdi2z6dr
p1227
I1
sVd1he0ub
p1228
I1
sVdefmvpx
p1229
I2
sVdcxi2e9
p1230
I1
sVdn07qpw
p1231
I4
sVdc9ckp3
p1232
I1
sVczuzg3j
p1233
I1
sVd8jfjjg
p1234
I1
sVd7bxhu7
p1235
I1
sVdaqdhp2
p1236
I1
sVd27e8m2
p1237
I1
sVdsd469v
p1238
I1
sVcyurdhj
p1239
I1
sVdsz1sb6
p1240
I1
sVdddil8o
p1241
I1
sVdehjfd8
p1242
I1
sVd7l6ymw
p1243
I1
sVdqi5357
p1244
I1
sVd73msg6
p1245
I1
sVd7hyfbr
p1246
I1
sVd4lw02y
p1247
I1
sVd64wdz2
p1248
I1
sVd2c9n95
p1249
I1
sVdh7oajr
p1250
I1
sVd6tkus7
p1251
I1
sVdh2c4u7
p1252
I1
sVd2l1ulp
p1253
I1
sVdhqniqw
p1254
I1
sVdfs4kce
p1255
I1
sVd8a2xb2
p1256
I3
sVd1e54pv
p1257
I1
sVdae5vtk
p1258
I1
sVdjsfs9h
p1259
I1
sVdbikj72
p1260
I1
sVddpmy7y
p1261
I1
sVdegnmy9
p1262
I1
sVda56rsp
p1263
I1
sVdnda16m
p1264
I1
sVdq7036f
p1265
I1
sVdtfhsp7
p1266
I1
sVdfyqsfw
p1267
I1
sVdium0v4
p1268
I1
sVdppe1es
p1269
I1
sVd5j04y7
p1270
I1
sVcywhfib
p1271
I2
sVdgrarv1
p1272
I1
sVdbrvzba
p1273
I1
sVdfgsf7q
p1274
I1
sVdctea8j
p1275
I1
sVd73em90
p1276
I1
sVdghw82y
p1277
I1
sVdcwjutv
p1278
I1
sVdf9ogwn
p1279
I1
sVdff4flg
p1280
I1
sVdh6a9me
p1281
I1
sVd3jsun5
p1282
I1
sVd0gea4x
p1283
I2
sVd1zxrzd
p1284
I1
sVd0ileqn
p1285
I1
sVdixkoq5
p1286
I1
sVdcm7wa7
p1287
I1
sVdqaa5ii
p1288
I1
sVd8jk2nz
p1289
I1
sVd4jmwgf
p1290
I1
sVdd4li8i
p1291
I1
sVcyv9jif
p1292
I1
sVdab1sc5
p1293
I1
sVdst5p85
p1294
I1
sVdgzns7r
p1295
I1
sVdor7u6j
p1296
I1
sVd1us3my
p1297
I1
sVdg1wtgb
p1298
I2
sVd0axvzt
p1299
I1
sVd4m7bat
p1300
I1
sVdhvet63
p1301
I1
sVdifjsoy
p1302
I1
sVcz9fqkg
p1303
I1
sVd3cbod8
p1304
I1
sVdga5imz
p1305
I1
sVd8g75c0
p1306
I2
sVddwz35x
p1307
I1
sVd9ntam5
p1308
I1
sVcyknwo1
p1309
I2
sVdmndave
p1310
I1
sVd05x4f5
p1311
I1
sVdfqtxgo
p1312
I2
sVdapdp0o
p1313
I1
sVdgoujcc
p1314
I1
sVdirs1w3
p1315
I1
sVdk6w73g
p1316
I1
sVdgj0vja
p1317
I1
sVdq76wzf
p1318
I2
sVdfii2j0
p1319
I1
sVd2qb26c
p1320
I1
sVdbly7wg
p1321
I1
sVdh65dou
p1322
I1
sVd6t9oa9
p1323
I1
sVdksaspi
p1324
I1
sVd6aifos
p1325
I1
sVdhn8e44
p1326
I2
sVdsteb0c
p1327
I1
sVd81laso
p1328
I1
sVdgtn9p6
p1329
I2
sVdanlrcu
p1330
I1
sVcyzs57g
p1331
I1
sVdazn3kc
p1332
I1
sVd3zbhqf
p1333
I1
sVd7e98gu
p1334
I1
sVd7pm2um
p1335
I1
sVdccalrf
p1336
I1
sVdebos3r
p1337
I1
sVd680bvy
p1338
I2
sVdbc7exs
p1339
I2
sVdt63njp
p1340
I1
sVdeu4wbz
p1341
I1
sVdgyine6
p1342
I1
sVczcqlcw
p1343
I2
sVdeldc9l
p1344
I1
sVdkvcuxg
p1345
I1
sVd7kj1gy
p1346
I1
sVdjgoh9c
p1347
I1
sVd14x3jc
p1348
I1
sVczaqno9
p1349
I1
sVdohzcr9
p1350
I1
sVdh6f0ct
p1351
I1
sVdd6e5wp
p1352
I1
sVdoxnfpe
p1353
I1
sVczgeiyx
p1354
I2
sVdmjo8cx
p1355
I1
sVd4sk8c0
p1356
I1
sVd3r2cw9
p1357
I1
sVdhgh6cp
p1358
I1
sVdhthxxw
p1359
I1
sVdhs16tj
p1360
I1
sVcyiomj9
p1361
I1
sVd7rdc3r
p1362
I1
sVdd59c5p
p1363
I1
sVdshkfeu
p1364
I1
sVd0wdgv1
p1365
I1
sVdnww2lr
p1366
I2
sVdrh1361
p1367
I1
sVditss9s
p1368
I1
sVd2tc4vp
p1369
I1
sVczlwqzv
p1370
I1
sVdt7avf3
p1371
I1
sVdn621iv
p1372
I1
sVdd4g0f9
p1373
I1
sVdq1nyiw
p1374
I1
sVdcbyk3o
p1375
I1
sVdcksu8g
p1376
I1
sVd8t2vnj
p1377
I1
sVd1z3fe5
p1378
I1
sVdiicql7
p1379
I1
sVd9f8owo
p1380
I1
sVd4cu7fj
p1381
I1
sVdo85itr
p1382
I1
sVd7u7o40
p1383
I1
sVdcghd9b
p1384
I1
sVczolx9c
p1385
I1
sVddm14ps
p1386
I1
sVd0txwwu
p1387
I1
sVd16v0zq
p1388
I1
sVd72v58y
p1389
I1
sVd93zjji
p1390
I1
sVdp18rus
p1391
I1
sVcyz3lx5
p1392
I1
sVd9e09wg
p1393
I1
sVd5o160b
p1394
I1
sVcyx2z6v
p1395
I1
sVczbbjkq
p1396
I1
sVcz4ufta
p1397
I1
sVdgjl3vt
p1398
I1
sVd96iv67
p1399
I1
sVdj0obvd
p1400
I1
sVdfremr8
p1401
I1
sVd1d8qjh
p1402
I1
sVdktiygp
p1403
I1
sVdqldevm
p1404
I1
sVd1fgnvm
p1405
I1
sVcyy5gy0
p1406
I1
sVd736jrc
p1407
I1
sVd2vo123
p1408
I1
sVddk92k5
p1409
I1
sVdoavcqi
p1410
I1
sVdmtf7dx
p1411
I3
sVdhnuy0p
p1412
I1
sVd65fkdq
p1413
I2
sVd3bv8xr
p1414
I1
sVd09pojt
p1415
I1
sVdd5vwzs
p1416
I1
sVdazje36
p1417
I1
sVdc4vbqh
p1418
I1
sVd071yy1
p1419
I1
sVdf0g3vp
p1420
I1
sVd05cq3m
p1421
I1
sVd57ntaz
p1422
I1
sVd3fj7y2
p1423
I4
sVd00ggza
p1424
I1
sVdcr5juj
p1425
I1
sVdkwaxue
p1426
I1
sVd8oskrw
p1427
I2
sVd9mzejp
p1428
I1
sVdn1h1ec
p1429
I2
sVczcutsd
p1430
I1
sVd0f5uvx
p1431
I1
sVd27yy8p
p1432
I1
sVd12a2z4
p1433
I1
sVd0h92cu
p1434
I1
sVdizezc2
p1435
I1
sVdggissq
p1436
I1
sVdev077s
p1437
I1
sVd1ojrq8
p1438
I1
sVd1bn1sy
p1439
I1
sVdkgl37f
p1440
I1
sVdip7nrl
p1441
I1
sVdk14bs0
p1442
I1
sVdgix477
p1443
I1
sVdh8965h
p1444
I1
sVdqvw3j0
p1445
I1
sVdmoe411
p1446
I1
sVd53zql6
p1447
I1
sVdguhkto
p1448
I1
sVd23oaj5
p1449
I1
sVdn39zok
p1450
I2
sVcyz728b
p1451
I1
sVcysidl5
p1452
I2
sVddy6dyj
p1453
I1
sVdfx5h9z
p1454
I1
sVd36d560
p1455
I1
sVczw78ac
p1456
I1
sVd9mwube
p1457
I1
sVcz088ns
p1458
I1
sVd02l3s7
p1459
I1
sVdhdwjyi
p1460
I1
sVd8x7952
p1461
I1
sVd8ic2ol
p1462
I1
sVda2vrmz
p1463
I1
sVd18rd2o
p1464
I1
sVd7rfzc1
p1465
I1
sVdhggwvk
p1466
I1
sVdjixga0
p1467
I2
sVdayg04j
p1468
I1
sVd1w9xor
p1469
I1
sVd5pyscz
p1470
I1
sVdcazjgd
p1471
I1
sVd94eu2j
p1472
I1
sVdqhf98m
p1473
I3
sVd51ueo3
p1474
I1
sVd69coil
p1475
I1
sVd85tmb2
p1476
I1
sVdpfj0by
p1477
I1
sVd0shmuh
p1478
I1
sVcyzhi5q
p1479
I1
sVdbftqc5
p1480
I2
sVd4u3l3j
p1481
I1
sVdikjzw3
p1482
I1
sVddbx38g
p1483
I1
sVdgiidrd
p1484
I1
sVdkhcxz4
p1485
I2
sVd9p9tms
p1486
I1
sVdmqd893
p1487
I1
sVdcbu5hk
p1488
I1
sVdbks4sl
p1489
I1
sVcz925pt
p1490
I1
sVdju112r
p1491
I1
sVd0129ci
p1492
I1
sVdn903n8
p1493
I1
sVd0g4d89
p1494
I1
sVd4apuop
p1495
I1
sVdqjsbp8
p1496
I1
sVddzw751
p1497
I2
sVd1hwzb3
p1498
I1
sVd951wmm
p1499
I1
sVdmz6ps3
p1500
I1
sVd2bfwb2
p1501
I1
sVd4m8mgv
p1502
I1
sVdaisj4l
p1503
I1
sVd2rfnq2
p1504
I1
sVdav6zgp
p1505
I1
sVd3g5uy9
p1506
I1
sVd9foj8r
p1507
I1
sVdifg9ze
p1508
I1
sVczi9ddl
p1509
I1
sVcz5a4id
p1510
I1
sVdfuck85
p1511
I1
sVdd6yiag
p1512
I1
sVczj2owd
p1513
I1
sVcyltn6e
p1514
I1
sVd9e69w7
p1515
I1
sVdf4x1zz
p1516
I1
sVdjutddq
p1517
I1
sVdb06v2x
p1518
I1
sVd02ocv3
p1519
I1
sVd595ibo
p1520
I2
sVczzz9tb
p1521
I1
sVd2c57mb
p1522
I1
sVd29rqo4
p1523
I1
sVd1vbjdr
p1524
I1
sVdipojw2
p1525
I1
sVdf6uvhb
p1526
I1
sVd5rai2u
p1527
I1
sVcz9gyar
p1528
I1
sVdccemnv
p1529
I1
sVd0wc54d
p1530
I1
sVdhzpjnh
p1531
I1
sVczqg8t2
p1532
I1
sVdfa6xhk
p1533
I1
sVd48rs2j
p1534
I1
sVdq1t9it
p1535
I1
sVdffyu2p
p1536
I1
sVd2c9vfm
p1537
I1
sVdhv2zua
p1538
I2
sVdiwufi4
p1539
I1
sVdebryie
p1540
I1
sVdfise5f
p1541
I1
sVdkymq3i
p1542
I1
sVczcg6gk
p1543
I1
sVcywpxvs
p1544
I1
sVdpuow81
p1545
I1
sVdgp0m2g
p1546
I1
sVd47qvnp
p1547
I1
sVd2en6db
p1548
I1
sVd3t47zd
p1549
I1
sVdgdxsdc
p1550
I1
sVdrd0uec
p1551
I1
sVdmu0dtl
p1552
I1
sVds87o81
p1553
I1
sVd9nokhm
p1554
I1
sVdb7ucrh
p1555
I1
sVddc2zvo
p1556
I1
sVd4f6p1j
p1557
I1
sVdjed84h
p1558
I1
sVd7j9xi8
p1559
I1
sVd1i2c1b
p1560
I2
sVd1cqftj
p1561
I1
sVd31vyfm
p1562
I1
sVddus0pt
p1563
I1
sVd8nnkoe
p1564
I2
sVczh1m3c
p1565
I1
sVd83h0g0
p1566
I1
sVdnrb3g3
p1567
I1
sVd66clv3
p1568
I1
sVd61l1qj
p1569
I1
sVd8arr09
p1570
I1
sVdrj7p3b
p1571
I1
sVdb5gqgy
p1572
I1
sVczz12x0
p1573
I1
sVdo91yv8
p1574
I1
sVdbfrw8h
p1575
I1
sVd2463sk
p1576
I1
sVdd3sxeh
p1577
I1
sVdbfvd0v
p1578
I1
sVdiv9y4g
p1579
I1
sVd1gkftb
p1580
I1
sVd2t8z1g
p1581
I1
sVdsgwgb9
p1582
I1
sVd00r1ee
p1583
I1
sVdbiiuru
p1584
I1
sVdgtmvxv
p1585
I1
sVd3sv30w
p1586
I1
sVd3uqmzk
p1587
I1
sVd168cen
p1588
I1
sVde4dk0t
p1589
I1
sVdj68rs8
p1590
I1
sVd6njlx0
p1591
I1
sVcyzz68e
p1592
I1
sVdcuu4nq
p1593
I1
sVdjin5jy
p1594
I1
sVde5hxxk
p1595
I1
sVd31af20
p1596
I1
sVdi4tc7z
p1597
I1
sVcykgsbi
p1598
I1
sVd8h6rln
p1599
I1
sVdjeer9f
p1600
I1
sVddas77t
p1601
I3
sVdow1itt
p1602
I1
sVdq0td5y
p1603
I1
sVd58nm2p
p1604
I1
sVd9hzy6y
p1605
I2
sVdatycrx
p1606
I1
sVd01nmce
p1607
I1
sVdc2iqd2
p1608
I1
sVdh1k6h0
p1609
I3
sVdg3colc
p1610
I1
sVdhwkmoq
p1611
I3
sVdtbwazg
p1612
I1
sVcyiiihc
p1613
I1
sVdgms2m3
p1614
I3
sVd8jqlsl
p1615
I1
sVdaq3y6f
p1616
I1
sVdn3se48
p1617
I1
sVd25vzpk
p1618
I1
sVdt9x52s
p1619
I1
sVczo15fe
p1620
I1
sVczav3zi
p1621
I2
sVd2l913q
p1622
I1
sVd11kdkd
p1623
I1
sVd5at418
p1624
I2
sVd1olxe6
p1625
I1
sVd0udgnt
p1626
I2
sVdhv4l5b
p1627
I1
sVdi276m4
p1628
I1
sVdhdzldm
p1629
I1
sVczfi4bn
p1630
I2
sVdmh8wxd
p1631
I1
sVdbxrdbw
p1632
I1
sVd6d5ucs
p1633
I1
sVdoz1x0o
p1634
I1
sVdoyp8ez
p1635
I1
sVdfhjxuz
p1636
I1
sVdiydg3h
p1637
I1
sVczh62dx
p1638
I1
sVczb8lek
p1639
I1
sVdb378u6
p1640
I1
sVd4hwl02
p1641
I2
sVd4ojwph
p1642
I1
sVd0mlbo9
p1643
I1
sVdfu3mbe
p1644
I1
sVd23lxi8
p1645
I1
sVdb1fg61
p1646
I1
sVd2fe8hv
p1647
I1
sVd7g1lml
p1648
I1
sVdadcqgm
p1649
I1
sVdsj3f2k
p1650
I1
sVdn4il1v
p1651
I1
sVd3jksgz
p1652
I1
sVdfvz0z5
p1653
I2
sVdk5m9py
p1654
I1
sVdgxvlhm
p1655
I1
sVd4glcxi
p1656
I1
sVdjg97wf
p1657
I1
sVdgo9lts
p1658
I1
sVd3atye5
p1659
I1
sVdtgx8k9
p1660
I1
sVd34ypwd
p1661
I1
sVdirbwtb
p1662
I1
sVddtmt1w
p1663
I1
sVd3xfjx7
p1664
I1
sVdage82c
p1665
I1
sVd5sqpx7
p1666
I1
sVdgdrl71
p1667
I1
sVdfpw3q5
p1668
I1
sVdqfeq4f
p1669
I1
sVdqrka9u
p1670
I1
sVdge39tf
p1671
I1
sVdoja5mw
p1672
I1
sVdd5zyyk
p1673
I1
sVdb8bxow
p1674
I1
sVdrfdk50
p1675
I1
sVcykozob
p1676
I2
sVdacx2e8
p1677
I1
sVd5ju6ss
p1678
I1
sVd1sgpjw
p1679
I1
sVdh4dwa3
p1680
I1
sVdkg9oye
p1681
I1
sVd6013cy
p1682
I1
sVd0sy2ud
p1683
I1
sVdmz6aq9
p1684
I2
sVdmytgo3
p1685
I1
sVdnji2ge
p1686
I1
sVdb8cdux
p1687
I1
sVd8tqmt1
p1688
I1
sVd6g8vld
p1689
I1
sVdhjkac4
p1690
I1
sVd8ecw3p
p1691
I1
sVdiolluq
p1692
I1
sVdgs3tq3
p1693
I1
sVdj584qi
p1694
I2
sVd8p8rwv
p1695
I1
sVczlbar7
p1696
I1
sVdb3qmql
p1697
I1
sVdei4p9r
p1698
I1
sVd0acpdv
p1699
I1
sVdbg2w1h
p1700
I1
sVdc4ly5h
p1701
I1
sVd06k5vg
p1702
I1
sVdftmvlj
p1703
I1
sVdj6clbz
p1704
I1
sVdsr1kma
p1705
I1
sVdasrhwc
p1706
I1
sVd81hl0h
p1707
I1
sVd64veyw
p1708
I1
sVdk8rjvw
p1709
I1
sVd7a8p12
p1710
I1
sVdaejoax
p1711
I1
sVdjhx9m1
p1712
I1
sVd9xhgp4
p1713
I1
sVdbwkfr5
p1714
I1
sVdeh2qch
p1715
I1
sVd0skn7q
p1716
I1
sVdofvomv
p1717
I1
sVdsy91pr
p1718
I1
sVcykd666
p1719
I2
sVdeujevt
p1720
I1
sVdel3nxi
p1721
I1
sVd40xmt2
p1722
I1
sVd5ozqxz
p1723
I1
sVd2bt42n
p1724
I1
sVdjsl6au
p1725
I1
sVdbmxauw
p1726
I1
sVd7yl360
p1727
I1
sVcz2ewgj
p1728
I1
sVdsmehev
p1729
I2
sVczjz3vx
p1730
I1
sVdpwhyqc
p1731
I1
sVdewk0st
p1732
I1
sVdc3ly62
p1733
I2
sVd8fbd02
p1734
I1
sVd0wrmap
p1735
I1
sVddqs4b9
p1736
I1
sVdenx9w0
p1737
I1
sVdprcghh
p1738
I1
sVdepg4ib
p1739
I1
sVdfrssfs
p1740
I1
sVd9ni30i
p1741
I1
sVdffcn4e
p1742
I1
sVd48yg8d
p1743
I1
sVd1n4prh
p1744
I1
sVd0tf34s
p1745
I1
sVd00seq2
p1746
I1
sVdbz7x9x
p1747
I1
sVd78cb5a
p1748
I1
sVd0676p0
p1749
I1
sVdbewzk1
p1750
I1
sVdrjl6zo
p1751
I1
sVcypsvn3
p1752
I1
sVd6wkswm
p1753
I1
sVdac80a3
p1754
I1
sVd5m19cz
p1755
I1
sVdq37eh1
p1756
I1
sVd7seusy
p1757
I1
sVdsv580e
p1758
I1
sVdstawdc
p1759
I1
sVdbv4ou7
p1760
I1
sVdnddpzt
p1761
I1
sVd048guh
p1762
I1
sVdjzp2ri
p1763
I1
sVd29pfag
p1764
I1
sVd2tnin7
p1765
I2
sVdqvtnzh
p1766
I1
sVd4kh6xm
p1767
I1
sVdcyvve1
p1768
I1
sVd2qmeew
p1769
I1
sVd2508lb
p1770
I1
sVd7bv38m
p1771
I1
sVdcar603
p1772
I1
sVdfvs8ex
p1773
I1
sVdodz93p
p1774
I1
sVdbeubd4
p1775
I1
sVdrr4ahr
p1776
I2
sVd3e7oht
p1777
I1
sVd71s3w7
p1778
I1
sVdrd5w1f
p1779
I1
sVdiqduea
p1780
I1
sVdk3gir1
p1781
I1
sVdo9vdi7
p1782
I1
sVdhxsn2d
p1783
I1
sVddui8y3
p1784
I1
sVd00ookv
p1785
I1
sVdivvq4i
p1786
I1
sVd1say5u
p1787
I1
sVda5zy17
p1788
I1
sVd1zc9r3
p1789
I1
sVdagranq
p1790
I1
sVdgmz71y
p1791
I1
sVczqrh30
p1792
I1
sVdoo3o78
p1793
I1
sVdckntwe
p1794
I1
sVd1fzv3t
p1795
I1
sVdcc2n9w
p1796
I1
sVdpumq6g
p1797
I1
sVd3fhnrq
p1798
I3
sVd2ja8nh
p1799
I1
sVdgod7d9
p1800
I1
sVd6omdsf
p1801
I1
sVcz0he6r
p1802
I1
sVdcofhln
p1803
I1
sVd8js63k
p1804
I1
sVdnrcnqd
p1805
I1
sVdp4oe7t
p1806
I1
sVde18fas
p1807
I1
sVcyx199v
p1808
I1
sVdf4gq18
p1809
I1
sVdrwl2at
p1810
I1
sVdilkd9z
p1811
I1
sVd9e3n92
p1812
I1
sVd9yuzv0
p1813
I2
sVdi9oilz
p1814
I1
sVdeplzpd
p1815
I1
sVd3hicn7
p1816
I1
sVdeuveex
p1817
I1
sVd2p1007
p1818
I1
sVdco8gti
p1819
I1
sVd86qa2j
p1820
I1
sVdihm0gz
p1821
I1
sVdhz5dly
p1822
I1
sVdhatac3
p1823
I1
sVdcn53v4
p1824
I1
sVdp4bx4r
p1825
I1
sVdgkfqdi
p1826
I1
sVdhnf7yw
p1827
I1
sVd2kmv3j
p1828
I2
sVcymzbf3
p1829
I1
sVd8hv8dq
p1830
I1
sVdkm80qb
p1831
I1
sVde5jmab
p1832
I2
sVddbv5kk
p1833
I1
sVdf927ah
p1834
I1
sVdnqacb6
p1835
I1
sVdob9cct
p1836
I1
sVdj3dzk7
p1837
I1
sVdd7ce17
p1838
I1
sVddh25hs
p1839
I1
sVdt8v8tw
p1840
I1
sVd8mupm1
p1841
I1
sVdd2nbgm
p1842
I1
sVczb4e0w
p1843
I1
sVd15fv8l
p1844
I1
sVdsq65hl
p1845
I1
sVdd5zmaq
p1846
I1
sVd4b5sd1
p1847
I1
sVd01zbpd
p1848
I1
sVdnrex4h
p1849
I1
sVdei53oo
p1850
I1
sVd8hv6pr
p1851
I1
sVczxndye
p1852
I2
sVd3w2hoz
p1853
I1
sVdjs1ecx
p1854
I1
sVdbmwbbg
p1855
I1
sVdgtc01c
p1856
I1
sVdi3cxrp
p1857
I1
sVd0c11rz
p1858
I1
sVd581k7g
p1859
I1
sVcz5b4y6
p1860
I1
sVds8zhwr
p1861
I1
sVd308fxk
p1862
I1
sVcysfwul
p1863
I1
sVdhl29sz
p1864
I1
sVd2quqhb
p1865
I1
sVda36xhc
p1866
I1
sVcyuhbjz
p1867
I1
sVdor8wit
p1868
I1
sVd9rwb26
p1869
I1
sVdc2x3r6
p1870
I1
sVd5y26lq
p1871
I1
sVd4aphzr
p1872
I1
sVdmzrakd
p1873
I1
sVdgsd4ho
p1874
I1
sVdg3u8a4
p1875
I1
sVd2b1ilh
p1876
I1
sVd71gahr
p1877
I1
sVczyxtyj
p1878
I1
sVd2ta8k0
p1879
I1
sVdkkh45e
p1880
I1
sVdaqoenb
p1881
I1
sVd4mmony
p1882
I1
sVdahbv7p
p1883
I1
sVdf1biah
p1884
I1
sVdqhivra
p1885
I1
sVdfsrhuf
p1886
I1
sVd2z01he
p1887
I1
sVdsd1fqz
p1888
I1
sVd7905lw
p1889
I1
sVdg8gmj4
p1890
I1
sVdf142ka
p1891
I1
sVdpjdhlc
p1892
I2
sVd9xxwo6
p1893
I1
sVcz0ulca
p1894
I1
sVd5oih9u
p1895
I1
sVdmzz4m8
p1896
I1
sVdgghfei
p1897
I1
sVd28x02y
p1898
I1
sVdrkehkw
p1899
I1
sVd38xhhj
p1900
I1
sVd2obbcp
p1901
I2
sVd1n7756
p1902
I1
sVd1epuxf
p1903
I3
sVdektcub
p1904
I1
sVd2ts83i
p1905
I1
sVcz3dz8y
p1906
I1
sVdidyu8y
p1907
I1
sVd3812n0
p1908
I1
sVd6t8y25
p1909
I1
sVdnac5e9
p1910
I1
sVd9sovln
p1911
I2
sVcyqa4hz
p1912
I1
sVd2xck2p
p1913
I1
sVcz26npf
p1914
I1
sVddeh8jq
p1915
I1
sVd5xpuip
p1916
I2
sVdj8pp2u
p1917
I1
sVdb584fo
p1918
I1
sVdd4rumn
p1919
I1
sVd8rh9vu
p1920
I1
sVdijwyk5
p1921
I1
sVcysg7x1
p1922
I1
sVd5fax9o
p1923
I1
sVdoyoch1
p1924
I1
sVd6ygk39
p1925
I1
sVdh3jas0
p1926
I1
sVd9anin9
p1927
I1
sVdriq1gn
p1928
I1
sVdetjacb
p1929
I1
sVd7hxfhb
p1930
I1
sVd68mp90
p1931
I1
sVd1pcc0p
p1932
I1
sVd2ydd3a
p1933
I1
sVd4px1ch
p1934
I1
sVd76sbzi
p1935
I1
sVdbmcwlk
p1936
I4
sVddks7si
p1937
I1
sVdgyhnxf
p1938
I1
sVd29jhm5
p1939
I1
sVd0jdtpu
p1940
I1
sVddwhzq3
p1941
I1
sVdpnawdi
p1942
I1
sVd769ftv
p1943
I1
sVdrwqcv0
p1944
I1
sVd76v46k
p1945
I1
sVd3k9vw2
p1946
I1
sVdjn3i2a
p1947
I1
sVd3rwh90
p1948
I1
sVdo5nsow
p1949
I1
sVd0vd1ht
p1950
I1
sVcz1ofn2
p1951
I1
sVd1na5x8
p1952
I1
sVd83ons3
p1953
I1
sVdc75o98
p1954
I1
sVdoxu4hu
p1955
I1
sVcytlqfe
p1956
I1
sVd6a5uic
p1957
I1
sVdmula69
p1958
I1
sVczztfzt
p1959
I1
sVd0pwkrz
p1960
I2
sVdfzvt2y
p1961
I2
sVd2tozvr
p1962
I1
sVd2t2hkw
p1963
I1
sVd4cw5we
p1964
I2
sVd3rbvfu
p1965
I1
sVd14yta9
p1966
I2
sVcyqrqqx
p1967
I1
sVd2advhc
p1968
I1
sVd5c674n
p1969
I1
sVcyv907j
p1970
I1
sVcznv4ug
p1971
I1
sVd4rwc7l
p1972
I1
sVdd8xzjx
p1973
I1
sVcyn23jh
p1974
I1
sVd0pkq9h
p1975
I1
sVd1i6x4u
p1976
I1
sVdj8dg0u
p1977
I1
sVdge6trf
p1978
I1
sVdmrjhvc
p1979
I1
sVd747a46
p1980
I1
sVdgn3fo2
p1981
I1
sVd58do9r
p1982
I1
sVdeav75x
p1983
I1
sVd1jpmqp
p1984
I1
sVdc629uc
p1985
I1
sVdf0nvbw
p1986
I1
sVcyxwcyk
p1987
I1
sVd2a68l0
p1988
I1
sVd20iotc
p1989
I1
sVdc7kgob
p1990
I1
sVd18s2r2
p1991
I1
sVcyil0pv
p1992
I1
sVdi9zivv
p1993
I1
sVd1q0rze
p1994
I1
sVda0wuyb
p1995
I1
sVdbzxbzm
p1996
I2
sVd83aixx
p1997
I1
sVdel4efc
p1998
I1
sVdhn8mzn
p1999
I1
sVdsyl345
p2000
I1
sVcyojvem
p2001
I1
sVdbbot74
p2002
I1
sVdejo32r
p2003
I1
sVd1bg175
p2004
I1
sVdefb4t4
p2005
I1
sVdrbelcb
p2006
I1
sVdn2y8cl
p2007
I1
sVd3zj9nb
p2008
I1
sVd0d4nmk
p2009
I1
sVd2bqt1c
p2010
I1
sVd162kjd
p2011
I2
sVdbi52rj
p2012
I1
sVdeyaqxu
p2013
I1
sVcyoyld1
p2014
I1
sVd50e1vo
p2015
I1
sVd214t3q
p2016
I1
sVdah02s0
p2017
I1
sVda2jphc
p2018
I1
sVczam84y
p2019
I1
sVdrpcts0
p2020
I1
sVd7p8dzk
p2021
I1
sVd19mopv
p2022
I1
sVdqjv7ff
p2023
I1
sVdczsh8e
p2024
I1
sVdhtqhfw
p2025
I1
sVczngq6e
p2026
I1
sVd2tbyu4
p2027
I1
sVczn8apm
p2028
I1
sVd6o3cpl
p2029
I1
sVdfv95xx
p2030
I1
sVddn93e4
p2031
I1
sVddkkskp
p2032
I1
sVdp7xal5
p2033
I1
sVcypk90p
p2034
I1
sVdhv17ow
p2035
I1
sVdj9f70c
p2036
I1
sVdqdj6e8
p2037
I1
sVdcbazrt
p2038
I1
sVczrosrb
p2039
I1
sVdea37k5
p2040
I1
sVdhw5iey
p2041
I1
sVdiqpkqi
p2042
I2
sVdag6k7e
p2043
I1
sVdfnah8t
p2044
I1
sVdptefkk
p2045
I1
sVda3phz6
p2046
I1
sVd2x1fj2
p2047
I2
sVdb5m66u
p2048
I2
sVd8p8x9x
p2049
I1
sVdeksbng
p2050
I1
sVdf9b3qo
p2051
I1
sVdgxvmw6
p2052
I1
sVdo7x8s5
p2053
I1
sVdjbe564
p2054
I1
sVdkwfe0k
p2055
I1
sVdgdg1v2
p2056
I1
sVd376ush
p2057
I1
sVd67inou
p2058
I1
sVd9vwrbx
p2059
I1
sVd52lfyc
p2060
I1
sVdht09zw
p2061
I1
sVdntaqqs
p2062
I1
sVd9dh0mf
p2063
I1
sVczwz6rz
p2064
I2
sVd6zmxe5
p2065
I1
sVd3qpbg3
p2066
I1
sVdau37uj
p2067
I1
sVdojtl54
p2068
I1
sVd01s4t3
p2069
I1
sVddl3bhc
p2070
I1
sVdk4c08s
p2071
I1
sVdarau7f
p2072
I1
sVdd51fzt
p2073
I1
sVdf869vj
p2074
I1
sVd6925s6
p2075
I1
sVd5vmrh6
p2076
I1
sVdcf744b
p2077
I1
sVd3gqhrh
p2078
I1
sVdc9ftr9
p2079
I1
sVd2gc7ai
p2080
I1
sVd7h7pi9
p2081
I2
sVd95pqoh
p2082
I1
sVdjb7ll2
p2083
I1
sVd3aemxh
p2084
I1
sVd8azacy
p2085
I1
sVdek9pjh
p2086
I1
sVd1szmhy
p2087
I1
sVdn5091p
p2088
I1
sVczqk5d3
p2089
I1
sVd7mpxf0
p2090
I1
sVd1eio9q
p2091
I1
sVdavh48s
p2092
I1
sVddcrs13
p2093
I1
sVd6p8e2h
p2094
I1
sVd117bea
p2095
I1
sVdida83t
p2096
I1
sVdhiti91
p2097
I1
sVd834g2b
p2098
I1
sVde8387g
p2099
I1
sVd14wu7b
p2100
I1
sVdpnhyh3
p2101
I1
sVdga2gip
p2102
I1
sVdh30tye
p2103
I1
sVd4n9qvv
p2104
I1
sVde40by3
p2105
I1
sVdp3qumv
p2106
I1
sVd06wx8k
p2107
I1
sVdpj1qzw
p2108
I1
sVd1ni8pn
p2109
I1
sVcz8s300
p2110
I1
sVdbj7thi
p2111
I1
sVdqcln65
p2112
I1
sVdt29xye
p2113
I1
sVcyo5lsf
p2114
I1
sVd3rytsi
p2115
I1
sVcz91gf8
p2116
I1
sVd1ob2xg
p2117
I1
sVdaq3hzq
p2118
I1
sVd31zcbg
p2119
I1
sVd61o028
p2120
I1
sVd3ewkgm
p2121
I1
sVdpkz91r
p2122
I1
sVddshtka
p2123
I1
sVd3kz559
p2124
I1
sVdj8p0i5
p2125
I1
sVdfwt00y
p2126
I1
sVd1d8e0m
p2127
I1
sVd2ilgf7
p2128
I1
sVdmmvuen
p2129
I1
sVd40z4ki
p2130
I1
sVd21677j
p2131
I1
sVd1kuzh0
p2132
I1
sVd3a23vy
p2133
I1
sVd8umhe2
p2134
I1
sVdoij8c1
p2135
I1
sVdc18w32
p2136
I1
sVd0gzie8
p2137
I1
sVczh91sk
p2138
I1
sVd9iq042
p2139
I1
sVd4mly9g
p2140
I1
sVdefhb7y
p2141
I1
sVcypji73
p2142
I1
sVdjbkb0s
p2143
I1
sVd5ho7mr
p2144
I1
sVdnahict
p2145
I1
sVdf2cbi9
p2146
I1
sVdf3ds3v
p2147
I1
sVd64qy93
p2148
I1
sVde0jb50
p2149
I1
sVdeko4sk
p2150
I1
sVdmfyic7
p2151
I1
sVd5mmvyw
p2152
I1
sVder2fmk
p2153
I1
sVcyo3ywa
p2154
I1
sVd6hlcb2
p2155
I2
sVd07ot4c
p2156
I3
sVd7azsme
p2157
I1
sVdik9o0k
p2158
I1
sVd9x5y46
p2159
I2
sVdaxcywn
p2160
I1
sVcyjq05m
p2161
I1
sVd8jf4hy
p2162
I4
sVd0xcy2d
p2163
I1
sVdhzq1i1
p2164
I3
sVdn96imj
p2165
I1
sVdc8xpev
p2166
I1
sVd5bc1ca
p2167
I1
sVdg8gs18
p2168
I1
sVdel14zd
p2169
I1
sVd1ah6m2
p2170
I1
sVcynj6as
p2171
I1
sVd22p6mi
p2172
I1
sVd11bwuz
p2173
I2
sVd5a9cwg
p2174
I3
sVdmf14z4
p2175
I2
sVcz7am23
p2176
I1
sVd9i72iv
p2177
I1
sVdi6p4eu
p2178
I1
sVczrooyt
p2179
I1
sVdcw1whx
p2180
I1
sVdcse0bk
p2181
I1
sVdfbnnyy
p2182
I4
sVd5ca8t6
p2183
I1
sVd68y1as
p2184
I1
sVdriwqu1
p2185
I1
sVcyz3xyw
p2186
I1
sVd0ef7em
p2187
I1
sVdrk4kts
p2188
I1
sVczi6xmz
p2189
I1
sVd08kbe6
p2190
I1
sVdee4isz
p2191
I1
sVd85cvdm
p2192
I1
sVd84fh6d
p2193
I1
sVd1wemvd
p2194
I1
sVdn95nt1
p2195
I1
sVdpq730s
p2196
I1
sVdc81avx
p2197
I1
sVcz3sa5i
p2198
I1
sVdc9huqx
p2199
I1
sVcziylkz
p2200
I1
sVcyp0x59
p2201
I1
sVczngp82
p2202
I1
sVd1vi0mo
p2203
I1
sVdhmdvo4
p2204
I1
sVdg24w95
p2205
I1
sVdk35mta
p2206
I1
sVd37cnma
p2207
I1
sVd8a7chz
p2208
I1
sVd5racs3
p2209
I2
sVdhr8ob7
p2210
I1
sVdgd3brj
p2211
I1
sVdrqld4n
p2212
I1
sVd50wxsa
p2213
I1
sVd4jzj6d
p2214
I1
sVde53www
p2215
I1
sVdcr1em7
p2216
I1
sVd21ecbq
p2217
I1
sVdd191k3
p2218
I1
sVdcfmdor
p2219
I1
sVcz1i56l
p2220
I1
sVdbjralv
p2221
I1
sVdficlj3
p2222
I1
sVdahyjhp
p2223
I1
sVdfhawwc
p2224
I1
sVcz483mf
p2225
I1
sVdd6xfoc
p2226
I1
sVd9h3v3p
p2227
I1
sVcz2hqni
p2228
I1
sVd3kiq9t
p2229
I1
sVd1jbv4z
p2230
I1
sVcztbybs
p2231
I1
sVd374yqp
p2232
I1
sVd414abz
p2233
I1
sVdj9p149
p2234
I1
sVd1cm2v1
p2235
I1
sVd2bhtgz
p2236
I2
sVd6j33cr
p2237
I5
sVdg8ycl6
p2238
I2
sVdcwudu3
p2239
I1
sVd4j7q3i
p2240
I1
sVdknh0q3
p2241
I1
sVds7ih4b
p2242
I2
sVdc2dsb1
p2243
I1
sVd88pjd4
p2244
I1
sVd7qxe90
p2245
I1
sVd5ie9wf
p2246
I1
sVd95d42j
p2247
I1
sVdpyzyk4
p2248
I1
sVdj1n00w
p2249
I2
sVd00d09k
p2250
I1
sVdk40swk
p2251
I2
sVdha4zqz
p2252
I1
sVd43dqiy
p2253
I1
sVdjpr0fj
p2254
I1
sVdfc4awc
p2255
I1
sVdge136z
p2256
I1
sVdamqh35
p2257
I1
sVd10ugrz
p2258
I1
sVczfoc0e
p2259
I1
sVdcckx0u
p2260
I1
sVdj4959s
p2261
I1
sVcz3xffu
p2262
I1
sVd7i99hh
p2263
I1
sVcyqyepz
p2264
I1
sVdecb4ki
p2265
I2
sVdp28hvg
p2266
I1
sVdimhsbb
p2267
I1
sVd3teo3b
p2268
I1
sVdny3y9b
p2269
I1
sVd3e3xyh
p2270
I1
sVdq49udh
p2271
I1
sVczor8bf
p2272
I1
sVdh59pcf
p2273
I1
sVcyshh8y
p2274
I1
sVd3z84ay
p2275
I1
sVd4rbvw0
p2276
I2
sVd6qj4ik
p2277
I1
sVd3nng7v
p2278
I1
sVdohm1t8
p2279
I1
sVd9q1nq7
p2280
I1
sVd38gffr
p2281
I2
sVd00wiam
p2282
I5
sVdkzfbrb
p2283
I1
sVdpp5mk9
p2284
I1
sVdhjhyf4
p2285
I1
sVd7094hn
p2286
I1
sVcziq4f0
p2287
I1
sVdakp9tu
p2288
I1
sVd6209d0
p2289
I1
sVdb99qem
p2290
I2
sVdmqmr3y
p2291
I2
sVdoxz5aw
p2292
I1
sVdabljxt
p2293
I1
sVdeg7qie
p2294
I1
sVczk158m
p2295
I1
sVdpz3c7x
p2296
I1
sVdj773zx
p2297
I1
sVdomt4ct
p2298
I1
sVd1v29cs
p2299
I1
sVd5561sg
p2300
I1
sVd7lopdf
p2301
I1
sVddbf7s7
p2302
I1
sVd1gbyd1
p2303
I2
sVdmrmjd5
p2304
I1
sVd3hg6pn
p2305
I1
sVdb0wioa
p2306
I1
sVdk9lokj
p2307
I1
sVdoszhkj
p2308
I3
sVd34v552
p2309
I1
sVd96yl1a
p2310
I1
sVdn4kn81
p2311
I1
sVd6dl809
p2312
I1
sVcyjkmh9
p2313
I1
sVdt7trrj
p2314
I1
sVdfwnjgw
p2315
I2
sVdg1f9e9
p2316
I1
sVdem4qpq
p2317
I1
sVd94pvm1
p2318
I1
sVdndxgei
p2319
I1
sVdhb6m7i
p2320
I1
sVdn1otqv
p2321
I2
sVd60y50h
p2322
I1
sVcyjdvmp
p2323
I1
sVd270632
p2324
I1
sVdkdkz41
p2325
I3
sVd3y6h0p
p2326
I1
sVcys8rtz
p2327
I1
sVcz2cyxq
p2328
I1
sVdbfxb4e
p2329
I2
sVdsfwxqm
p2330
I1
sVdiljyid
p2331
I1
sVd01q7cb
p2332
I1
sVd581y0i
p2333
I1
sVd14fusf
p2334
I1
sVdbjfee6
p2335
I1
sVd2ytmlx
p2336
I1
sVdr82haj
p2337
I2
sVdjy99i5
p2338
I1
sVcypqsuj
p2339
I1
sVcymu2to
p2340
I1
sVdppp6du
p2341
I1
sVcz3uxn2
p2342
I1
sVdfhdn70
p2343
I1
sVczapr04
p2344
I1
sVdneyw6b
p2345
I1
sVdq5j1vf
p2346
I1
sVd8bdmg2
p2347
I1
sVdo86ffe
p2348
I1
sVdr5le07
p2349
I1
sVdqyx9o8
p2350
I1
sVdg07r2n
p2351
I1
sVd213idn
p2352
I1
sVd2ijmrk
p2353
I1
sVd8hys29
p2354
I1
sVcyrspgd
p2355
I1
sVd9hggdl
p2356
I1
sVdftrggz
p2357
I1
sVd4ogprb
p2358
I1
sVdawvvgk
p2359
I1
sVde8uxek
p2360
I1
sVd3i2lj7
p2361
I1
sVd3396kf
p2362
I1
sVd73ouqb
p2363
I1
sVcyzp3gv
p2364
I1
sVd0772s1
p2365
I1
sVdsl487l
p2366
I1
sVd6989f9
p2367
I1
sVd2at2mj
p2368
I1
sVcymml47
p2369
I1
sVdqka3em
p2370
I1
sVd035bni
p2371
I1
sVd247en5
p2372
I1
sVd7clg08
p2373
I1
sVdrvu7y3
p2374
I1
sVdexofct
p2375
I1
sVda8bcdm
p2376
I2
sVd9yknjv
p2377
I1
sVdh5u6hu
p2378
I2
sVd00f9kf
p2379
I1
sVdg5yjv3
p2380
I1
sVdcl6i2z
p2381
I1
sVd5q4nwz
p2382
I1
sVdfxxs29
p2383
I1
sVdhtvgky
p2384
I1
sVd4ax72r
p2385
I1
sVd00sf90
p2386
I1
sVdgh8bc2
p2387
I1
sVdsytq7f
p2388
I1
sVdefdlf7
p2389
I1
sVd4c2cx8
p2390
I1
sVdbfw1p0
p2391
I1
sVd343tss
p2392
I1
sVdoct1nv
p2393
I1
sVdbbp8gh
p2394
I1
sVd33my5o
p2395
I1
sVd39ycd3
p2396
I1
sVd6lorzu
p2397
I1
sVd6aqy9u
p2398
I1
sVdbuwnsz
p2399
I1
sVdt0fygj
p2400
I1
sVd0h49ht
p2401
I1
sVd1jzdw6
p2402
I1
sVd1iqwd1
p2403
I1
sVd3s4pzm
p2404
I1
sVdeumrwj
p2405
I1
sVd4kdcrr
p2406
I1
sVdawhebx
p2407
I1
sVdeopydm
p2408
I1
sVdfvblm0
p2409
I1
sVd1ct1ly
p2410
I1
sVdpnbjjf
p2411
I1
sVd5xtku6
p2412
I1
sVdnikobp
p2413
I1
sVd5yzmsn
p2414
I1
sVd4xaref
p2415
I1
sVcz9hpuy
p2416
I1
sVdoi6h7c
p2417
I1
sVdd6rgnr
p2418
I2
sVdt8ktll
p2419
I1
sVdor95xy
p2420
I1
sVdqd4637
p2421
I2
sVdjsshwi
p2422
I1
sVd1exuc2
p2423
I1
sVdiog8xg
p2424
I1
sVdbycgt4
p2425
I1
sVdbx9iiw
p2426
I1
sVdafbm71
p2427
I1
sVdgrxuew
p2428
I1
sVdjmb6s8
p2429
I1
sVdio846j
p2430
I1
sVdca9nm9
p2431
I1
sVdjoubnl
p2432
I1
sVdhzdfo1
p2433
I1
sVd7c40sh
p2434
I1
sVdhle5ba
p2435
I2
sVdsrpvk6
p2436
I2
sVcz9crmy
p2437
I1
sVd2ri67c
p2438
I1
sVdc6fs53
p2439
I2
sVdr7wba7
p2440
I1
sVd025j0w
p2441
I1
sVd8t6n10
p2442
I1
sVd10xtev
p2443
I1
sVd50ahz9
p2444
I1
sVd4u9igd
p2445
I1
sVdrdijfp
p2446
I1
sVd2vn37e
p2447
I1
sVdh6mm2c
p2448
I1
sVdiy98hx
p2449
I1
sVd5ju3zp
p2450
I1
sVd4qqj8t
p2451
I1
sVdc1pjos
p2452
I1
sVdboh5y8
p2453
I1
sVdi35ogu
p2454
I1
sVdd7f9fw
p2455
I1
sVdeqrueg
p2456
I1
sVddso5xl
p2457
I1
sVdkjjtxh
p2458
I1
sVdeei65r
p2459
I1
sVd0sjlu7
p2460
I1
sVczfp053
p2461
I1
sVdo79vn7
p2462
I1
sVd4xy0jj
p2463
I1
sVd42ioeh
p2464
I1
sVd0sjc77
p2465
I1
sVdgqxvtg
p2466
I1
sVd6uhyqi
p2467
I1
sVddwolek
p2468
I1
sVdgk5z1g
p2469
I1
sVd2pjwg2
p2470
I1
sVdd8fbb8
p2471
I1
sVd9c1iym
p2472
I1
sVd9x4wv5
p2473
I1
sVd834bd7
p2474
I1
sVcyuoijz
p2475
I1
sVd0isvk5
p2476
I1
sVdbsx8g2
p2477
I1
sVd7u9i1e
p2478
I2
sVdflo720
p2479
I1
sVcyir9yb
p2480
I1
sVd9lqmvc
p2481
I2
sVcyneiyi
p2482
I1
sVdgmx2u7
p2483
I3
sVdojs5qa
p2484
I1
sVd45fc2f
p2485
I2
sVddl98p5
p2486
I1
sVd2z2pfu
p2487
I1
sVczkmkuy
p2488
I1
sVczf5lto
p2489
I1
sVdml4z3v
p2490
I2
sVcz18wi5
p2491
I1
sVdgjy303
p2492
I1
sVdfosuxj
p2493
I1
sVdjsg1g1
p2494
I2
sVd6clc22
p2495
I1
sVdbn1l4c
p2496
I2
sVd1ndlzc
p2497
I1
sVd7rfjif
p2498
I1
sVdh7cl69
p2499
I1
sVdsw0ox5
p2500
I1
sVdbs23m0
p2501
I1
sVd74t2n7
p2502
I1
sVdn1f52r
p2503
I2
sVd6ctbyn
p2504
I1
sVdhsffkj
p2505
I1
sVd9b3k96
p2506
I1
sVdql16z4
p2507
I1
sVd0nr0ly
p2508
I2
sVd14xm4r
p2509
I1
sVdp6gsfe
p2510
I1
sVd3r4o7u
p2511
I1
sVdhod8tw
p2512
I1
sVdav4abs
p2513
I1
sVd8dopxv
p2514
I1
sVds1lkw8
p2515
I1
sVdsvcxy8
p2516
I1
sVd4vr1nc
p2517
I1
sVder6uuj
p2518
I1
sVd1vnsu5
p2519
I1
sVdav42kv
p2520
I1
sVdagsxxf
p2521
I1
sVd3rawlk
p2522
I1
sVd1l7qi3
p2523
I1
sVdnhs8de
p2524
I1
sVd61jrkm
p2525
I1
sVdbulo9a
p2526
I1
sVd4uihkr
p2527
I1
sVdsklks9
p2528
I1
sVdigjqvj
p2529
I1
sVd3565cx
p2530
I1
sVdcelr7x
p2531
I1
sVd9tbks1
p2532
I1
sVd39dq0l
p2533
I1
sVd4h4c51
p2534
I1
sVd4kxsgc
p2535
I1
sVdhg6q7p
p2536
I1
sVd7e1jab
p2537
I1
sVdoeu08l
p2538
I1
sVddk5v21
p2539
I1
sVde5gujh
p2540
I1
sVd4hdcw7
p2541
I2
sVcz0kesc
p2542
I1
sVd1607jf
p2543
I1
sVddkjb76
p2544
I1
sVdbmjstu
p2545
I1
sVddp517s
p2546
I1
sVdfk0khf
p2547
I1
sVd936kbk
p2548
I1
sVdggvbmf
p2549
I1
sVcyzh66o
p2550
I1
sVdnggpls
p2551
I1
sVdqb300i
p2552
I1
sVdh2xvbo
p2553
I1
sVcytp0w7
p2554
I1
sVdcxom5b
p2555
I1
sVdd6zl8g
p2556
I2
sVdbt1t7x
p2557
I2
sVd07chim
p2558
I1
sVdgm070z
p2559
I1
sVd71o5vf
p2560
I1
sVd0wf7ao
p2561
I1
sVdi52kee
p2562
I1
sVczd963a
p2563
I1
sVd9vupmy
p2564
I1
sVd9jz44p
p2565
I1
sVdgq02q8
p2566
I3
sVcyzlrus
p2567
I1
sVdpy194l
p2568
I1
sVdpg9tn4
p2569
I1
sVd9leaau
p2570
I1
sVddhllw1
p2571
I1
sVde1d9wx
p2572
I2
sVd6g45jo
p2573
I1
sVd357a5d
p2574
I1
sVdeytmlb
p2575
I1
sVczs3gft
p2576
I1
sVdda3ltg
p2577
I1
sVd8u4huc
p2578
I1
sVczuw9t6
p2579
I1
sVddhwbtz
p2580
I1
sVd0b5a7l
p2581
I1
sVcywip7w
p2582
I1
sVdmwqxm2
p2583
I1
sVd6874lj
p2584
I1
sVdrk9vqw
p2585
I1
sVd21jwmz
p2586
I1
sVd1cpvmb
p2587
I1
sVdkcjrpz
p2588
I1
sVd5fz5aj
p2589
I1
sVdkehkel
p2590
I1
sVd6lznnw
p2591
I1
sVdi7lvx3
p2592
I2
sVd4zf86d
p2593
I2
sVdj9zcqi
p2594
I2
sVd2uxdh3
p2595
I1
sVd3mllhl
p2596
I1
sVdn15gfd
p2597
I2
sVd47aweh
p2598
I1
sVd22x9zf
p2599
I1
sVdt3xx22
p2600
I1
sVdqc2dcg
p2601
I1
sVddoxusf
p2602
I1
sVd55pwai
p2603
I1
sVd1lio2q
p2604
I1
sVdday87w
p2605
I1
sVd0mg44c
p2606
I1
sVdeewu18
p2607
I1
sVd78mwk0
p2608
I1
sVd96p2ur
p2609
I1
sVdajz9xd
p2610
I1
sVd3jbi5r
p2611
I1
sVdbn0d7i
p2612
I1
sVd206joi
p2613
I1
sVdipezoy
p2614
I2
sVd0etart
p2615
I2
sVdel2k0u
p2616
I1
sVdavgdbd
p2617
I1
sVdkd4gdj
p2618
I1
sVdaxobl0
p2619
I1
sVdd9d3zr
p2620
I1
sVdf9g47d
p2621
I1
sVd97dfa3
p2622
I1
sVdcryco2
p2623
I1
sVdcjwq1l
p2624
I1
sVd05vdnx
p2625
I1
sVdd3q2wf
p2626
I1
sVde4l0id
p2627
I1
sVcyn6k3k
p2628
I1
sVd5mcxjq
p2629
I1
sVdcjughj
p2630
I1
sVdnetemk
p2631
I1
sVczq40er
p2632
I1
sVdeomld7
p2633
I1
sVd095roh
p2634
I1
sVdhb6ern
p2635
I2
sVcymtgng
p2636
I1
sVd61lrx6
p2637
I1
sVd91sara
p2638
I2
sVdoza1kh
p2639
I1
sVdhcxv6p
p2640
I1
sVdth0756
p2641
I4
sVdd7dfpa
p2642
I1
sVd4vfjkl
p2643
I1
sVd27scnd
p2644
I1
sVdoo9x2w
p2645
I1
sVdq1k3yj
p2646
I1
sVdfnka4h
p2647
I1
sVdckof7a
p2648
I1
sVdd0l4sj
p2649
I1
sVdjwv6s8
p2650
I1
sVdcjhxn4
p2651
I1
sVdcqdgdx
p2652
I1
sVdcmni12
p2653
I1
sVd13fr9x
p2654
I1
sVdi2igcm
p2655
I1
sVd5aql9q
p2656
I1
sVd04pirq
p2657
I1
sVd4jbsaq
p2658
I1
sVdauh9cz
p2659
I1
sVd2kofae
p2660
I1
sVd9ywaig
p2661
I1
sVd5g1eo3
p2662
I1
sVde4mnot
p2663
I1
sVddqxe2a
p2664
I1
sVcz1prys
p2665
I1
sVcyp7h4q
p2666
I1
sVdan2d4l
p2667
I1
sVdfxc7lv
p2668
I1
sVd26brij
p2669
I1
sVdiwhohq
p2670
I2
sVd95tpxl
p2671
I1
sVd6m479l
p2672
I1
sVdfth68i
p2673
I1
sVd3a4fb1
p2674
I1
sVd5yi7ql
p2675
I1
sVd4ntpbl
p2676
I1
sVdjgrrk3
p2677
I1
sVdeg2ncn
p2678
I1
sVdr8xo40
p2679
I1
sVdauyuex
p2680
I1
sVdjd6l34
p2681
I1
sVczqsvnc
p2682
I1
sVdemid34
p2683
I1
sVd4hxziw
p2684
I1
sVdf28qyk
p2685
I2
sVdsuf4s6
p2686
I1
sVde92anp
p2687
I1
sVdh5p4ey
p2688
I1
sVdft8v38
p2689
I1
sVd1koc9n
p2690
I1
sVdd6nqbp
p2691
I1
sVdhixt8m
p2692
I1
sVd6c3xsu
p2693
I1
sVd357c0y
p2694
I2
sVd5ivt8o
p2695
I1
sVd4io6w9
p2696
I1
sVcyz708s
p2697
I1
sVcywhs39
p2698
I2
sVd4jsxhv
p2699
I1
sVd99mpu8
p2700
I1
sVdf1ihk9
p2701
I5
sVdg7bcmf
p2702
I1
sVdf8kfmo
p2703
I1
sVd6bonfi
p2704
I2
sVdahdpvg
p2705
I2
sVd2pxdn8
p2706
I1
sVd5nlsqr
p2707
I1
sVdslzk8q
p2708
I1
sVdbx3gx7
p2709
I3
sVd2cpjnn
p2710
I1
sVdibuuiq
p2711
I1
sVd1fliyr
p2712
I1
sVd3kta3t
p2713
I1
sVcyr017f
p2714
I1
sVd37py5o
p2715
I2
sVddg5n0a
p2716
I1
sVdkgk96q
p2717
I1
sVdau32lu
p2718
I1
sVdclca1v
p2719
I1
sVdsliifv
p2720
I2
sVd45rf8r
p2721
I1
sVdbkp8am
p2722
I1
sVdjna76b
p2723
I1
sVdixkgew
p2724
I1
sVdcl4tha
p2725
I1
sVdfzwpvy
p2726
I1
sVd8w3c2i
p2727
I1
sVdi6z6ub
p2728
I1
sVdnyaxb8
p2729
I1
sVd6ghbk8
p2730
I1
sVd4pxafl
p2731
I2
sVd1zaj07
p2732
I1
sVcz6wcfy
p2733
I2
sVd90sp81
p2734
I1
sVdfyr8tj
p2735
I1
sVdera3uw
p2736
I2
sVdjgo4ir
p2737
I1
sVdmuzpp4
p2738
I1
sVd3u28fx
p2739
I1
sVd1irsmu
p2740
I1
sVd2fh8bs
p2741
I1
sVd1gj8ag
p2742
I1
sVd2bka6g
p2743
I1
sVdtfyt8i
p2744
I1
sVdawgvsl
p2745
I1
sVdb8khvq
p2746
I1
sVczzrvd0
p2747
I1
sVdf0lf4x
p2748
I1
sVd1znoa9
p2749
I1
sVd692vxv
p2750
I2
sVdfrn6lw
p2751
I1
sVd9dsnvt
p2752
I1
sVdf3zsxe
p2753
I1
sVd75l2hy
p2754
I1
sVd1p5ht5
p2755
I1
sVd6cwgwv
p2756
I2
sVd9nuocp
p2757
I1
sVd64vyhi
p2758
I1
sVdmsh64o
p2759
I1
sVdk07q2h
p2760
I2
sVdp3e1ag
p2761
I1
sVd8c9e4b
p2762
I1
sVdmi31ty
p2763
I1
sVd8uoccn
p2764
I2
sVdco48rf
p2765
I1
sVdex3snw
p2766
I1
sVdiywza0
p2767
I1
sVczxebod
p2768
I1
sVdes5lmc
p2769
I1
sVd03z122
p2770
I1
sVd5basz0
p2771
I1
sVd2qdlh6
p2772
I1
sVd33gwp3
p2773
I1
sVdbaf2nv
p2774
I1
sVczpwe84
p2775
I1
sVdd4asf9
p2776
I3
sVcyp4anf
p2777
I1
sVdnfy0m8
p2778
I2
sVddclaff
p2779
I1
sVdikgcm2
p2780
I1
sVdgio3aj
p2781
I2
sVdilzk9l
p2782
I1
sVdj6984s
p2783
I1
sVd1ttyqg
p2784
I1
sVd018yy4
p2785
I1
sVd53j6gx
p2786
I1
sVdbpk2yh
p2787
I1
sVdnjbuef
p2788
I1
sVdaa9voh
p2789
I1
sVdgmsl9u
p2790
I1
sVdnea3sd
p2791
I1
sVdc9ufjl
p2792
I1
sVd10ldxe
p2793
I1
sVdjxninh
p2794
I1
sVdjxyyz6
p2795
I1
sVd2oym75
p2796
I1
sVdkmdb0n
p2797
I1
sVdi2hgik
p2798
I1
sVd9h12p0
p2799
I1
sVdpibto0
p2800
I1
sVd1nar4t
p2801
I1
sVdffrilh
p2802
I1
sVd3hdd5r
p2803
I1
sVdhqjc1s
p2804
I1
sVddr4u2h
p2805
I1
sVdpp5qk0
p2806
I1
sVd1m1p4u
p2807
I1
sVdsf9w1d
p2808
I1
sVd0pss2c
p2809
I1
sVdfgl9m1
p2810
I1
sVdnr759g
p2811
I1
sVdqw2s1l
p2812
I1
sVd7mjn92
p2813
I1
sVcz89hii
p2814
I1
sVd2l9is7
p2815
I1
sVdj12vjj
p2816
I1
sVdi588pk
p2817
I1
sVd01miat
p2818
I1
sVdd2qdob
p2819
I1
sVdjsi9f5
p2820
I1
sVddx7h0x
p2821
I1
sVdctacr6
p2822
I1
sVdc3goom
p2823
I2
sVd2pp8qs
p2824
I2
sVd63oyc2
p2825
I1
sVd0tk03a
p2826
I1
sVdi9nn2k
p2827
I1
sVdd52ap5
p2828
I1
sVdktzq2a
p2829
I1
sVdo9da52
p2830
I1
sVdrd6pyp
p2831
I1
sVda42p1x
p2832
I1
sVd71u8zu
p2833
I1
sVdg5swmk
p2834
I1
sVdaml8ct
p2835
I1
sVdmw3p8f
p2836
I1
sVd2q4l1l
p2837
I4
sVd036de9
p2838
I1
sVdnycuy4
p2839
I1
sVd4uoclg
p2840
I1
sVd3ckaku
p2841
I1
sVdkbap93
p2842
I1
sVdcujl8i
p2843
I1
sVcyslzrg
p2844
I1
sVd4gcv6p
p2845
I1
sVdjuf8nr
p2846
I1
sVdp90mv8
p2847
I1
sVdmh7csn
p2848
I1
sVczw032t
p2849
I1
sVd3s2jfg
p2850
I1
sVd3amth4
p2851
I1
sVd3h8b98
p2852
I1
sVdgfqjm6
p2853
I1
sVdrk7v7x
p2854
I1
sVdfruei0
p2855
I1
sVdqi24bl
p2856
I1
sVdj72o5s
p2857
I1
sVddzvc3m
p2858
I1
sVd1l464m
p2859
I1
sVd19oah9
p2860
I2
sVd477xno
p2861
I1
sVdbcgsd3
p2862
I2
sVdfixyv3
p2863
I1
sVd6dsbru
p2864
I1
sVd6w5d6d
p2865
I1
sVdr0dbzv
p2866
I2
sVcziri8i
p2867
I1
sVdcijg1u
p2868
I1
sVd703nyp
p2869
I1
sVd1ivulj
p2870
I1
sVd0uyi3g
p2871
I1
sVdnfpvco
p2872
I1
sVd1hwlvo
p2873
I1
sVdorl3yt
p2874
I1
sVdje5fcr
p2875
I2
sVdequkbc
p2876
I1
sVdc97y1z
p2877
I1
sVdrzdnne
p2878
I1
sVdba3byh
p2879
I1
sVdi359dz
p2880
I1
sVd1lvor4
p2881
I1
sVdakryhd
p2882
I1
sVd08ufki
p2883
I1
sVd2tebfr
p2884
I1
sVd0e2k73
p2885
I1
sVds0ji6p
p2886
I1
sVd5zly6f
p2887
I1
sVczbxvhz
p2888
I1
sVd47rcaq
p2889
I1
sVd203d3r
p2890
I1
sVd10m8ut
p2891
I1
sVd3gbrcy
p2892
I1
sVd5vzemg
p2893
I2
sVdeajm4a
p2894
I1
sVd59qzk3
p2895
I1
sVdj8k4a2
p2896
I1
sVcz9gmc0
p2897
I1
sVddwi2u3
p2898
I1
sVd222wrg
p2899
I1
sVd69pwsz
p2900
I1
sVd71zzgu
p2901
I1
sVdfyyx2q
p2902
I1
sVd1n01le
p2903
I1
sVdcxep5e
p2904
I1
sVdoncycb
p2905
I1
sVdco8f50
p2906
I1
sVdcunfrs
p2907
I1
sVdql8o7e
p2908
I1
sVcze4lm8
p2909
I1
sVd03g079
p2910
I1
sVczie49g
p2911
I1
sVczdxvih
p2912
I1
sVd3dmtix
p2913
I1
sVdiu32y6
p2914
I1
sVddxzjsd
p2915
I1
sVd7ij6m0
p2916
I1
sVd6xcl2x
p2917
I1
sVdejpsi1
p2918
I1
sVczmp9ni
p2919
I2
sVcykicog
p2920
I1
sVd7cxusc
p2921
I1
sVdprbw0y
p2922
I1
sVdb7yfcs
p2923
I1
sVd8hrbgm
p2924
I1
sVd4cl7b5
p2925
I1
sVcykkrxi
p2926
I1
sVd897kfy
p2927
I1
sVd4jn89z
p2928
I2
sVdbmaao2
p2929
I1
sVdtfaji4
p2930
I1
sVd1x71uv
p2931
I1
sVddhkrmg
p2932
I1
sVds6a317
p2933
I1
sVd8ybouv
p2934
I1
sVdppjxrt
p2935
I1
sVcyvdyrr
p2936
I2
sVdhwt29s
p2937
I1
sVczgr8zv
p2938
I1
sVdiykxt5
p2939
I1
sVda2z4y9
p2940
I1
sVdbirc4f
p2941
I1
sVd9gzs1u
p2942
I1
sVd0147dq
p2943
I1
sVdf89kmi
p2944
I1
sVdh56k8k
p2945
I1
sVdhhmlgp
p2946
I1
sVdbpgxnx
p2947
I1
sVdfx08wq
p2948
I1
sVdjchlct
p2949
I1
sVd1jjkoq
p2950
I1
sVd0piug7
p2951
I1
sVd1o2ttx
p2952
I1
sVd1d76l8
p2953
I1
sVdayalbb
p2954
I1
sVda323kg
p2955
I1
sVdrd6s81
p2956
I2
sVdce2dqr
p2957
I1
sVdnf5bpg
p2958
I1
sVde43jce
p2959
I1
sVd0hfq1u
p2960
I1
sVd5zn6og
p2961
I1
sVd5952c6
p2962
I1
sVd75r0wm
p2963
I1
sVd3kud40
p2964
I1
sVda5zibv
p2965
I1
sVdkop75f
p2966
I1
sVdp8klzt
p2967
I1
sVd12h2d3
p2968
I1
sVdcin0ex
p2969
I1
sVdg4bczy
p2970
I1
sVcypn2dq
p2971
I2
sVd9dl7xw
p2972
I1
sVcyknaoo
p2973
I1
sVd05r5w3
p2974
I1
sVd51v2ss
p2975
I3
sVdhsswfq
p2976
I1
sVdgb5sc1
p2977
I1
sVdazz7sy
p2978
I1
sVd73czsc
p2979
I1
sVde8adjp
p2980
I1
sVdep82ya
p2981
I1
sVdpqt8y5
p2982
I1
sVcyonqow
p2983
I1
sVddx5539
p2984
I1
sVdhtnrmb
p2985
I1
sVdmw63bd
p2986
I1
sVcyisqip
p2987
I1
sVd15au4l
p2988
I1
sVczk5fd9
p2989
I1
sVd7jdcdu
p2990
I1
sVdeud0nd
p2991
I1
sVd57v9fg
p2992
I1
sVd9b3xki
p2993
I1
sVd4pnjjm
p2994
I1
sVd6xhybm
p2995
I1
sVd4qsrjs
p2996
I1
sVds42n14
p2997
I1
sVcz15yvc
p2998
I1
sVd08x3vm
p2999
I1
sVd5wtdx3
p3000
I1
sVd5mglrm
p3001
I1
sVdn9ycuc
p3002
I1
sVdggymsl
p3003
I1
sVd3kr7rb
p3004
I1
sVdab2rjz
p3005
I2
sVd3r6560
p3006
I1
sVdkyfk2f
p3007
I1
sVdhjh9bs
p3008
I1
sVd38jjh4
p3009
I1
sVd57y3yo
p3010
I1
sVdhjepju
p3011
I1
sVczhitgs
p3012
I1
sVdh0p47m
p3013
I1
sVd1201aj
p3014
I1
sVd17vrlv
p3015
I1
sVdivece0
p3016
I1
sVd3oxv92
p3017
I1
sVdjil56m
p3018
I1
sVdd2rymw
p3019
I1
sVd4hry7o
p3020
I1
sVd2aines
p3021
I1
sVd098m9r
p3022
I1
sVd05z12i
p3023
I1
sVdkrty0f
p3024
I1
sVd6lw77w
p3025
I1
sVdj0leat
p3026
I1
sVdmv6g1c
p3027
I1
sVd0vpc67
p3028
I1
sVdis6rtd
p3029
I1
sVdkr8hzg
p3030
I1
sVd9uc0gd
p3031
I1
sVd5lykht
p3032
I1
sVdbcq6z4
p3033
I1
sVd3ubx35
p3034
I1
sVdenl0ir
p3035
I1
sVdc4j929
p3036
I1
sVd3i424a
p3037
I2
sVdge4qja
p3038
I1
sVddwv6ax
p3039
I1
sVdnhx6c8
p3040
I1
sVd2a0r8z
p3041
I1
sVdakuv6n
p3042
I1
sVd3jny7q
p3043
I1
sVd8ve0tm
p3044
I2
sVd74yt1n
p3045
I1
sVdjfodff
p3046
I1
sVdg404mb
p3047
I1
sVd31puma
p3048
I1
sVd8c1f7o
p3049
I2
sVdhn5z7a
p3050
I2
sVda9hbhx
p3051
I1
sVdf6trpu
p3052
I1
sVddsjniz
p3053
I1
sVcyjks9k
p3054
I1
sVd3gp8ac
p3055
I1
sVdsy6zs8
p3056
I1
sVdk69z3v
p3057
I1
sVdq7rwqh
p3058
I1
sVdiwrmno
p3059
I1
sVdprkbcq
p3060
I1
sVdmuddsa
p3061
I1
sVdn01a1m
p3062
I1
sVdejkjkk
p3063
I1
sVd1neo9b
p3064
I1
sVdmssl6f
p3065
I1
sVd3cqc1l
p3066
I1
sVd07p9hi
p3067
I1
sVdd5kemz
p3068
I1
sVdcy31n3
p3069
I1
sVdkm9cny
p3070
I1
sVddgel09
p3071
I1
sVdku2qyq
p3072
I2
sVdsws1jy
p3073
I1
sVdeypiks
p3074
I1
sVd7y7dd7
p3075
I1
sVcytvaa1
p3076
I1
sVdqvylsl
p3077
I1
sVdrkrx2a
p3078
I1
sVdfqlqj6
p3079
I1
sVczwpq9f
p3080
I1
sVdfzwukc
p3081
I1
sVd4wkahv
p3082
I2
sVd0fvp22
p3083
I1
sVdb3lv96
p3084
I1
sVd27omc6
p3085
I1
sVdn2vbaj
p3086
I1
sVd0bonwp
p3087
I1
sVdhb7utf
p3088
I1
sVd9eg7yn
p3089
I1
sVd72jvny
p3090
I1
sVdgzatgh
p3091
I1
sVd5i0zu3
p3092
I1
sVd04kmtl
p3093
I1
sVd6nmnkr
p3094
I1
sVd3499jb
p3095
I1
sVczqwnmo
p3096
I1
sVdhgqj13
p3097
I1
sVd1li243
p3098
I1
sVd0f8j1c
p3099
I1
sVd8aj1el
p3100
I2
sVcz4x7s5
p3101
I1
sVdfc8w1a
p3102
I1
sVd4e4xvd
p3103
I1
sVdo1h8yk
p3104
I2
sVdh9209r
p3105
I1
sVd50r33u
p3106
I2
sVd1lfe64
p3107
I1
sVd62b9fu
p3108
I1
sVd6n8mk3
p3109
I1
sVdfufyex
p3110
I1
sVdo4jgff
p3111
I1
sVdcq16cz
p3112
I1
sVd3swjwn
p3113
I1
sVd1j0fb9
p3114
I1
sVd30xj3u
p3115
I1
sVdajf9ar
p3116
I1
sVdayuc7k
p3117
I1
sVd55m8j1
p3118
I1
sVd2az1xy
p3119
I1
sVd1ohef4
p3120
I1
sVdo08y5r
p3121
I1
sVdn83fms
p3122
I1
sVdimwfgt
p3123
I1
sVd00remw
p3124
I1
sVczbkfqy
p3125
I1
sVczf2l2r
p3126
I2
sVdb01lxa
p3127
I1
sVd61sljg
p3128
I2
sVd2yiqyu
p3129
I2
sVd2hmxad
p3130
I1
sVd9rduzb
p3131
I2
sVdbl7w7k
p3132
I1
sVdg34opt
p3133
I1
sVdnglkmm
p3134
I1
sVdgn6y1x
p3135
I1
sVd4jfth3
p3136
I1
sVd40t2ve
p3137
I1
sVdcmohgg
p3138
I1
sVd9dm8gq
p3139
I1
sVd1bxi2q
p3140
I2
sVd5g6xc3
p3141
I1
sVd1vtv0f
p3142
I1
sVdshaprd
p3143
I2
sVd8fn5yz
p3144
I1
sVd6omt7p
p3145
I1
sVdph9xio
p3146
I1
sVdemh6gc
p3147
I1
sVd5aycp1
p3148
I1
sVdauzyqt
p3149
I1
sVdebmffl
p3150
I1
sVczs87ft
p3151
I1
sVd2sz8zo
p3152
I1
sVdnc4ouf
p3153
I1
sVdjt33nk
p3154
I1
sVcywjxsd
p3155
I1
sVde8woes
p3156
I1
sVd8aj03n
p3157
I1
sVdnw8giu
p3158
I1
sVdmkwff7
p3159
I1
sVdh0tx1j
p3160
I2
sVd94ce63
p3161
I1
sVd08txy0
p3162
I1
sVddwvgd0
p3163
I1
sVd9de3pz
p3164
I2
sVd0o8z0s
p3165
I1
sVd1a1c79
p3166
I1
sVdees6u5
p3167
I1
sVd5nw51s
p3168
I1
sVdf5hoc0
p3169
I1
sVdft9mo9
p3170
I1
sVdi8hkgp
p3171
I1
sVd77zqp2
p3172
I1
sVd59i4ik
p3173
I1
sVdgh8o45
p3174
I1
sVdavofoh
p3175
I1
sVd98gy1x
p3176
I1
sVdntrzd9
p3177
I1
sVd623s45
p3178
I1
sVdowsvtn
p3179
I1
sVd4au6za
p3180
I1
sVdc1rv28
p3181
I3
sVd6xyrpq
p3182
I1
sVd8xxvqo
p3183
I1
sVdcu0xbw
p3184
I2
sVdc7u7hy
p3185
I1
sVdergrpf
p3186
I1
sVczaoiaq
p3187
I1
sVdjzac2s
p3188
I1
sVd0b32o3
p3189
I1
sVdn296d9
p3190
I1
sVdgvnof6
p3191
I1
sVczlc4zq
p3192
I1
sVcywnkaq
p3193
I1
sVd0qtusg
p3194
I1
sVd85o3j4
p3195
I1
sVdmv1ife
p3196
I1
sVd9riyie
p3197
I1
sVdcy3t7g
p3198
I1
sVdplmy9y
p3199
I1
sVdgng8kn
p3200
I1
sVd1txkx4
p3201
I1
sVdimra8m
p3202
I1
sVda2et6d
p3203
I1
sVdi3dyo7
p3204
I1
sVd537x0u
p3205
I1
sVd0c6ksx
p3206
I1
sVczy92g0
p3207
I1
sVd2bwek3
p3208
I1
sVdmpzr2l
p3209
I1
sVd695hss
p3210
I1
sVdnvfvl1
p3211
I1
sVdiuirzm
p3212
I1
sVcyjj0jp
p3213
I1
sVd8mu0sw
p3214
I1
sVd7jbpsn
p3215
I1
sVdjaousv
p3216
I1
sVdg864kz
p3217
I1
sVdtdkadz
p3218
I1
sVd7fohan
p3219
I1
sVd8gy2pk
p3220
I1
sVddq8kdf
p3221
I1
sVdgk4m06
p3222
I1
sVd0hry50
p3223
I1
sVdgtemmd
p3224
I1
sVdfjj75o
p3225
I1
sVdftks7y
p3226
I1
sVdr50ig8
p3227
I1
sVd9ytvfh
p3228
I1
sVddxsq0m
p3229
I1
sVdfg0bo6
p3230
I1
sVd5lt0pj
p3231
I1
sVd0zenbq
p3232
I1
sVd1kx87r
p3233
I1
sVddtnqd6
p3234
I1
sVdjzm8p6
p3235
I1
sVd4czuff
p3236
I1
sVdd7z4ps
p3237
I2
sVdawqxh2
p3238
I1
sVdercxil
p3239
I1
sVdnb0dt9
p3240
I1
sVd2clzug
p3241
I1
sVdgwf684
p3242
I1
sVd4bzrw2
p3243
I1
sVd94mqr4
p3244
I1
sVd9iscit
p3245
I1
sVcz94lf8
p3246
I1
sVd83k3lt
p3247
I1
sVd95wtsx
p3248
I1
sVd0nc7hm
p3249
I1
sVd133bz4
p3250
I1
sVdmjqegj
p3251
I1
sVd9ydh2t
p3252
I1
sVda00s9s
p3253
I1
sVdrsnyt1
p3254
I1
sVd3z1bmt
p3255
I1
sVd7558gt
p3256
I1
sVdjq9lbt
p3257
I1
sVd7bmpxf
p3258
I1
sVd01atx9
p3259
I1
sVczarvl7
p3260
I1
sVd1q422m
p3261
I1
sVdf2f3qs
p3262
I1
sVdj9zwdl
p3263
I1
sVddwd85q
p3264
I1
sVdeet1v5
p3265
I1
sVd52trs6
p3266
I1
sVd43bepe
p3267
I2
sVdaobuxo
p3268
I1
sVdqfi1uc
p3269
I1
sVdmrfywi
p3270
I1
sVcz2oynh
p3271
I1
sVd416p0c
p3272
I1
sVd82xzxd
p3273
I1
sVdt9ppyi
p3274
I2
sVd0jgv8o
p3275
I1
sVdfwydlf
p3276
I1
sVdt2m94i
p3277
I1
sVdg67wpy
p3278
I1
sVdfwn96f
p3279
I1
sVd0qd74u
p3280
I1
sVdf6g0fg
p3281
I1
sVczmv22s
p3282
I1
sVczg116p
p3283
I1
sVdfb4c4a
p3284
I1
sVd35f1oy
p3285
I1
sVdh3bxpd
p3286
I1
sVd1o9wb2
p3287
I1
sVde88mfv
p3288
I1
sVd2t0ho8
p3289
I1
sVdfbxxjt
p3290
I3
sVcz7mthj
p3291
I1
sVd7e32l9
p3292
I1
sVd3qhm0w
p3293
I1
sVcz1no3n
p3294
I1
sVczqjah7
p3295
I1
sVd6nqk9r
p3296
I1
sVdayse5g
p3297
I1
sVd0aeqr9
p3298
I1
sVd2uymfb
p3299
I1
sVczvfzdc
p3300
I1
sVcyqzgla
p3301
I1
sVdgfg2bm
p3302
I1
sVcyz5ph4
p3303
I1
sVcyigf45
p3304
I1
sVd040l6f
p3305
I1
sVdc7mdt5
p3306
I1
sVdimfiuc
p3307
I2
sVdcatjop
p3308
I1
sVd6dii18
p3309
I2
sVdn6jzyk
p3310
I1
sVdb9uj2k
p3311
I1
sVd6vq5r5
p3312
I1
sVd1rqbua
p3313
I1
sVdi05g80
p3314
I1
sVcywwvlh
p3315
I1
sVd35emmp
p3316
I1
sVd90tv8m
p3317
I1
sVd9egbi1
p3318
I1
sVdbh4f0r
p3319
I1
sVdcidxbv
p3320
I1
sVd5zkqs5
p3321
I1
sVd1k69lo
p3322
I1
sVd1o41s6
p3323
I1
sVdoarl8k
p3324
I1
sVd0in5r2
p3325
I1
sVdhvhzq2
p3326
I1
sVdcrhypn
p3327
I3
sVczs10rz
p3328
I1
sVd0hx36j
p3329
I1
sVdjek6zx
p3330
I1
sVd2v779c
p3331
I1
sVd56dyzk
p3332
I1
sVczb3lpf
p3333
I1
sVdpe6uqb
p3334
I1
sVd5n3g81
p3335
I1
sVdihh2d1
p3336
I1
sVdbtco7l
p3337
I1
sVd0p5q2s
p3338
I1
sVdin5a0h
p3339
I1
sVde10e0v
p3340
I1
sVdrum98u
p3341
I1
sVdmgqw5s
p3342
I1
sVd287kre
p3343
I2
sVdf8pi4a
p3344
I1
sVdq053x5
p3345
I1
sVdf13lhm
p3346
I1
sVdbtk3ql
p3347
I1
sVdrvdaa8
p3348
I1
sVd43zbq4
p3349
I1
sVdizzvn5
p3350
I1
sVdgygcmb
p3351
I2
sVdrt9xbx
p3352
I1
sVd2kpzf4
p3353
I1
sVd62pak1
p3354
I1
sVdbur7gi
p3355
I1
sVdfu7kz0
p3356
I1
sVdhne5rb
p3357
I1
sVdeza7ah
p3358
I1
sVd00zok8
p3359
I1
sVdscg45l
p3360
I1
sVd8546zf
p3361
I1
sVdfrraw9
p3362
I1
sVdhfc822
p3363
I1
sVd8e92bx
p3364
I2
sVdbrhzfh
p3365
I1
sVdf1ddcf
p3366
I1
sVd1g15jt
p3367
I1
sVdp1sccv
p3368
I1
sVdct36hu
p3369
I1
sVdfay579
p3370
I1
sVdiv3igg
p3371
I1
sVd8ai05i
p3372
I1
sVd6eyvno
p3373
I1
sVd57mon8
p3374
I1
sVd0igpqo
p3375
I1
sVd740xwr
p3376
I1
sVddsn98j
p3377
I1
sVdr8i9ro
p3378
I1
sVdix15gv
p3379
I1
sVd78peva
p3380
I1
sVd02tx29
p3381
I1
sVczh56ps
p3382
I1
sVdf1buv5
p3383
I2
sVd31d2hp
p3384
I1
sVde8tbt1
p3385
I1
sVdi6gj2u
p3386
I1
sVd7qumow
p3387
I1
sVd7rj2rs
p3388
I2
sVdgjb66s
p3389
I1
sVdh43zei
p3390
I1
sVd5mkg7u
p3391
I1
sVd2yx65a
p3392
I1
sVd5wzymq
p3393
I1
sVde47x52
p3394
I1
sVdfx8v4w
p3395
I1
sVdac4lvv
p3396
I1
sVczoog7b
p3397
I1
sVdi5722o
p3398
I1
sVczkarg0
p3399
I1
sVdmve9tk
p3400
I1
sVd0uktc2
p3401
I2
sVddy768y
p3402
I1
sVczzhv45
p3403
I1
sVdaxj5do
p3404
I1
sVczsftns
p3405
I1
sVdt9gh8t
p3406
I1
sVd1dzyz9
p3407
I1
sVdebha0z
p3408
I1
sVdcb4b38
p3409
I1
sVd1znfe8
p3410
I1
sVd0ibk6s
p3411
I1
sVd22j77v
p3412
I2
sVde1bbj1
p3413
I1
sVd367m1b
p3414
I2
sVdjc2new
p3415
I1
sVdnfkbu0
p3416
I1
sVd0tn3lu
p3417
I1
sVdned1bn
p3418
I2
sVd21s424
p3419
I1
sVdn87j6c
p3420
I1
sVdhfdx7g
p3421
I2
sVd0nr6zy
p3422
I1
sVd4t29tw
p3423
I1
sVdq5algt
p3424
I1
sVd2et58i
p3425
I1
sVd08w087
p3426
I1
sVdqjm8u8
p3427
I1
sVdaqq4vk
p3428
I1
sVczpm87m
p3429
I1
sVd54rt1c
p3430
I1
sVdkpqxjh
p3431
I1
sVdg5yo4w
p3432
I1
sVdhtc63t
p3433
I1
sVd4ly4o9
p3434
I2
sVd3daaim
p3435
I2
sVdi74myh
p3436
I1
sVcyt01ox
p3437
I1
sVd83nmqq
p3438
I1
sVcz9m924
p3439
I1
sVd08t6ka
p3440
I1
sVdfufvzo
p3441
I1
sVdh41765
p3442
I1
sVdcjck0q
p3443
I1
sVdd9ueou
p3444
I1
sVdmqdejc
p3445
I1
sVd1lxpg4
p3446
I1
sVdcf256w
p3447
I1
sVcz9wdco
p3448
I1
sVdbk7zyw
p3449
I1
sVdf6php3
p3450
I1
sVd10jl17
p3451
I1
sVdjtanyk
p3452
I1
sVd1y2liq
p3453
I1
sVcz4carz
p3454
I1
sVdbr9t3x
p3455
I1
sVdnef9gf
p3456
I1
sVcyw8sq3
p3457
I1
sVd33po1g
p3458
I1
sVdfinni3
p3459
I1
sVd9l3cko
p3460
I1
sVd84s5vr
p3461
I1
sVd2k4yt8
p3462
I1
sVd17qvm0
p3463
I1
sVd4ahrjq
p3464
I1
sVdpmhtvb
p3465
I1
sVdk37f2r
p3466
I1
sVdic26cj
p3467
I1
sVd10hzl7
p3468
I1
sVds57fkg
p3469
I2
sVdox7wuk
p3470
I1
sVd4gj963
p3471
I1
sVd1qo1c7
p3472
I1
sVdf1tmmb
p3473
I1
sVdjpqwhx
p3474
I1
sVdonumws
p3475
I1
sVda56ewj
p3476
I1
sVcziqhro
p3477
I2
sVdjpkibo
p3478
I1
sVd06yk4t
p3479
I1
sVd08fy36
p3480
I2
sVdkma9xk
p3481
I1
sVdkbwsqt
p3482
I1
sVdp0rups
p3483
I1
sVczcjsdt
p3484
I1
sVdsedbxd
p3485
I1
sVd1039t8
p3486
I1
sVdd1dypp
p3487
I1
sVd4i2ofw
p3488
I1
sVdihalmy
p3489
I1
sVd35qw75
p3490
I1
sVczy8h3l
p3491
I1
sVd92vt4w
p3492
I1
sVdijefp8
p3493
I1
sVdfxvqs3
p3494
I1
sVdhwerac
p3495
I1
sVdq0q8uv
p3496
I1
sVdd1gv4s
p3497
I1
sVd1tp4cv
p3498
I4
sVdjaupqn
p3499
I1
sVd0bd6nr
p3500
I2
sVd92z5p0
p3501
I1
sVdjpwoqh
p3502
I1
sVd1ma0vf
p3503
I1
sVdqinbdz
p3504
I1
sVde8spo5
p3505
I1
sVdehswfb
p3506
I1
sVds4xa68
p3507
I1
sVdjkg2xp
p3508
I1
sVd2949cf
p3509
I1
sVdmks5g3
p3510
I1
sVd3izo9k
p3511
I1
sVd3t3f0q
p3512
I3
sVdge9w2p
p3513
I1
sVd0pu1q1
p3514
I1
sVdsxfgco
p3515
I1
sVd8stf4p
p3516
I1
sVd928cl6
p3517
I1
sVd0xn3xn
p3518
I1
sVdkyh66r
p3519
I1
sVdehjlcv
p3520
I1
sVd82yqxa
p3521
I1
sVd6mdhf7
p3522
I1
sVd35d5pf
p3523
I1
sVd1pmgh3
p3524
I1
sVdaav645
p3525
I1
sVczijzi0
p3526
I1
sVczulgzq
p3527
I1
sVd3b7x41
p3528
I1
sVdhfmphx
p3529
I1
sVdg2lo3i
p3530
I1
sVdcuo5kh
p3531
I1
sVd5ly3wa
p3532
I1
sVde2ifq1
p3533
I1
sVdew1lnc
p3534
I2
sVd1byncg
p3535
I1
sVd8xdd0m
p3536
I1
sVdk1drqb
p3537
I1
sVcyzc41c
p3538
I1
sVdgntytl
p3539
I1
sVd0rfdhi
p3540
I1
sVdthbgvw
p3541
I1
sVdjo1ckr
p3542
I1
sVdge4ibt
p3543
I2
sVczi5hh9
p3544
I1
sVd8aennf
p3545
I1
sVd945rbi
p3546
I1
sVdgxe1t4
p3547
I1
sVd8vh18z
p3548
I2
sVdghkmc8
p3549
I1
sVdo85e33
p3550
I1
sVdcw1k8f
p3551
I1
sVdbyepcz
p3552
I1
sVdetwxyd
p3553
I1
sVd07o9jh
p3554
I1
sVdfozqd2
p3555
I1
sVdqykqq0
p3556
I1
sVdgj31cd
p3557
I1
sVdj8vhms
p3558
I1
sVddrr00n
p3559
I1
sVd6g62ro
p3560
I1
sVdh53c2r
p3561
I1
sVdh95k8c
p3562
I1
sVdd4jq29
p3563
I1
sVd1pcoh2
p3564
I1
sVdabzvfk
p3565
I2
sVdfp0ea9
p3566
I1
sVdcq8ukn
p3567
I1
sVd9kf820
p3568
I1
sVdr733ne
p3569
I1
sVdky2g5y
p3570
I1
sVczsjrtd
p3571
I1
sVdp3xopd
p3572
I1
sVd7hsfwl
p3573
I1
sVczhqdly
p3574
I1
sVd6y58se
p3575
I1
sVcykxi14
p3576
I1
sVd1k6sw8
p3577
I1
sVdppkcqc
p3578
I1
sVdk2h6jh
p3579
I1
sVd7bypp1
p3580
I1
sVdq3yoeg
p3581
I1
sVd5bvohk
p3582
I2
sVd93zvx2
p3583
I1
sVdch6ulf
p3584
I2
sVdgn9ffy
p3585
I2
sVd7q10ae
p3586
I1
sVdcilome
p3587
I1
sVd624u4b
p3588
I1
sVde2pyeh
p3589
I1
sVdhrbkkq
p3590
I1
sVd07g5he
p3591
I1
sVcysmgoo
p3592
I1
sVdgejbrj
p3593
I1
sVczehnmj
p3594
I2
sVd1opcxk
p3595
I1
sVd9o49ye
p3596
I1
sVdbv911d
p3597
I1
sVdfqpy6t
p3598
I1
sVczzhfz2
p3599
I1
sVdf6yx4f
p3600
I1
sVd8y7jr4
p3601
I1
sVdj02zcg
p3602
I1
sVd7fhl7s
p3603
I1
sVcziyh4y
p3604
I1
sVcyllebw
p3605
I1
sVd79mfu0
p3606
I1
sVcyv2idm
p3607
I1
sVd47ig8f
p3608
I1
sVd8stuuq
p3609
I1
sVddgr1oj
p3610
I1
sVd9ydxvq
p3611
I1
sVdt8d0cg
p3612
I1
sVdmlxd7d
p3613
I1
sVdorgqu6
p3614
I1
sVdjw6t5f
p3615
I1
sVdtdn77y
p3616
I1
sVdcf9sc0
p3617
I1
sVdfjtlsa
p3618
I1
sVdb700zv
p3619
I1
sVd4vyx1w
p3620
I1
sVdn5wlaf
p3621
I1
sVda91yez
p3622
I1
sVd1vqqih
p3623
I1
sVdgn8qlt
p3624
I1
sVd83dxts
p3625
I1
sVdswzw6u
p3626
I1
sVd0kf8yh
p3627
I1
sVcz53eiq
p3628
I1
sVcz4p117
p3629
I1
sVdr6evjg
p3630
I2
sVdan2ta5
p3631
I1
sVdnat6ir
p3632
I1
sVd0t12jf
p3633
I1
sVd02611p
p3634
I1
sVd53amuf
p3635
I1
sVd19uegb
p3636
I2
sVd2bwo8d
p3637
I1
sVdeb83k3
p3638
I1
sVd8lm6jp
p3639
I1
sVd7fd4ca
p3640
I1
sVczupk5b
p3641
I1
sVdbz9e8v
p3642
I1
sVdd5ksf5
p3643
I1
sVdoesvo9
p3644
I1
sVds4pkqt
p3645
I1
sVddd9q4e
p3646
I1
sVdkh8cxt
p3647
I1
sVddc7ozf
p3648
I1
sVd2jtxsa
p3649
I1
sVd88fo8t
p3650
I5
sVczh0elh
p3651
I1
sVdd9m24h
p3652
I1
sVd043bh2
p3653
I1
sVcyjck4u
p3654
I1
sVd8whscs
p3655
I1
sVd532hz0
p3656
I1
sVddpbx52
p3657
I1
sVdhgzsm0
p3658
I1
sVdfjw7yo
p3659
I1
sVdpna1dm
p3660
I1
sVdgort1t
p3661
I1
sVdae5yli
p3662
I1
sVds6bntg
p3663
I1
sVd7994p7
p3664
I1
sVczmbi93
p3665
I1
sVdio4w3m
p3666
I1
sVdptxuvb
p3667
I1
sVdi3m6j7
p3668
I1
sVds2lvbz
p3669
I1
sVdq3o5ld
p3670
I1
sVdgp5hdw
p3671
I1
sVd03r1mq
p3672
I1
sVd1k5sdm
p3673
I1
sVdotonjf
p3674
I1
sVdfxnrmd
p3675
I1
sVcywjls8
p3676
I1
sVd4zbafq
p3677
I1
sVd2ckond
p3678
I1
sVddtkvb3
p3679
I1
sVdjq6jn2
p3680
I1
sVd90qhac
p3681
I1
sVd0rqgpt
p3682
I1
sVczscbyw
p3683
I1
sVd580ccc
p3684
I1
sVdcglwqv
p3685
I1
sVdgqjsis
p3686
I1
sVd6dt62h
p3687
I1
sVd28ksyz
p3688
I2
sVdkvqei6
p3689
I1
sVd1wqzds
p3690
I1
sVdeof4ib
p3691
I1
sVd5qekh7
p3692
I1
sVd5m3k3q
p3693
I1
sVdg5ahic
p3694
I1
sVd1952bp
p3695
I1
sVd2ti9dg
p3696
I1
sVdhb66ye
p3697
I1
sVd9xscqc
p3698
I1
sVdhwj42v
p3699
I1
sVdeyr3ud
p3700
I1
sVcynvv99
p3701
I1
sVdcz0r3a
p3702
I1
sVdiv1kju
p3703
I1
sVdczll9u
p3704
I1
sVdhmyp4j
p3705
I1
sVcz5hawg
p3706
I1
sVczzd4zd
p3707
I1
sVddddvwd
p3708
I1
sVd1os9sh
p3709
I1
sVcz5t3cv
p3710
I1
sVdc7ox8o
p3711
I1
sVdj8lc3w
p3712
I1
sVd7ea2qy
p3713
I1
sVcyon6nr
p3714
I1
sVd147y5s
p3715
I1
sVd1mqcyh
p3716
I1
sVdrrll20
p3717
I1
sVd2nkjvx
p3718
I1
sVd8nwa09
p3719
I1
sVdmt0eg7
p3720
I1
sVd8ox6d1
p3721
I1
sVdbylymm
p3722
I2
sVdmtahbv
p3723
I1
sVdgukd2h
p3724
I1
sVd3crq0x
p3725
I1
sVdhk0ne6
p3726
I1
sVd6tjldf
p3727
I1
sVda9p8y6
p3728
I1
sVd9vvrc3
p3729
I1
sVdmsqtl4
p3730
I1
sVd5jajm1
p3731
I1
sVde5lr2p
p3732
I3
sVd3yj14s
p3733
I2
sVd1anh89
p3734
I1
sVd4pz9s1
p3735
I1
sVdd1wl51
p3736
I1
sVdh1qxwi
p3737
I1
sVd5kuq29
p3738
I1
sVdkoq5vb
p3739
I1
sVdmm9btj
p3740
I1
sVdhdk4qf
p3741
I1
sVdhs0z8m
p3742
I1
sVdnal501
p3743
I1
sVd2alm2z
p3744
I1
sVdanw2jr
p3745
I1
sVde172ag
p3746
I1
sVd6inn8v
p3747
I1
sVd6a7au6
p3748
I1
sVd3a8xzs
p3749
I1
sVcyjad7k
p3750
I1
sVd9fjez6
p3751
I1
sVdoj3y6u
p3752
I1
sVdghs3px
p3753
I1
sVdcx3bw8
p3754
I1
sVd2al6oq
p3755
I1
sVcym3ok7
p3756
I1
sVdkz6wwq
p3757
I1
sVd33wzpk
p3758
I1
sVd9wteu5
p3759
I1
sVcyvpfrc
p3760
I1
sVdqdnswc
p3761
I1
sVcyrs9tk
p3762
I1
sVd8o1hz3
p3763
I1
sVdi2lx4g
p3764
I1
sVcyll3xr
p3765
I1
sVdc765pj
p3766
I1
sVdrhjq7t
p3767
I1
sVd6gn64j
p3768
I1
sVdiejlhg
p3769
I1
sVd386h3y
p3770
I1
sVdmv5gfs
p3771
I1
sVdeyattu
p3772
I1
sVda01zwp
p3773
I1
sVdkdhdt2
p3774
I1
sVd83t9p4
p3775
I1
sVdgaxv8c
p3776
I1
sVczga99o
p3777
I1
sVd8zk3ii
p3778
I1
sVdax7ogt
p3779
I1
sVdkjuts1
p3780
I1
sVdcxq16f
p3781
I1
sVd5dswtk
p3782
I1
sVd5gsoo6
p3783
I1
sVdnud7qp
p3784
I1
sVdf1a0qf
p3785
I1
sVd7h10r7
p3786
I1
sVdfzwbl2
p3787
I1
sVd1hzhnc
p3788
I2
sVdg6iqs7
p3789
I1
sVdmi9l2y
p3790
I2
sVd5jkewp
p3791
I1
sVdk42srn
p3792
I1
sVdau3h6d
p3793
I1
sVd3zqu89
p3794
I1
sVd36e6qs
p3795
I1
sVcyo65aa
p3796
I1
sVdijxlp1
p3797
I1
sVdo5c7i5
p3798
I1
sVd1a2nvb
p3799
I1
sVdap1ajv
p3800
I2
sVdso096o
p3801
I1
sVdgqjouk
p3802
I1
sVd7hst5y
p3803
I1
sVdptbm4i
p3804
I1
sVd9rajm6
p3805
I1
sVdf48e8i
p3806
I1
sVd0merpk
p3807
I1
sVcyqaa1n
p3808
I1
sVdfefom9
p3809
I1
sVdaflfda
p3810
I1
sVd1691n4
p3811
I1
sVd9i8i39
p3812
I1
sVd4ym743
p3813
I1
sVcz7qre0
p3814
I1
sVcystqd8
p3815
I1
sVdflct4y
p3816
I1
sVdi5chib
p3817
I1
sVdgmx6x0
p3818
I1
sVdsknjns
p3819
I1
sVd055fo7
p3820
I1
sVdbobyaj
p3821
I1
sVdhwj98y
p3822
I1
sVd9iwsbq
p3823
I1
sVd4pm0ov
p3824
I1
sVdggjj9k
p3825
I1
sVdiifu3j
p3826
I1
sVdcm7x7q
p3827
I1
sVd0sx0mg
p3828
I1
sVdb3ooyw
p3829
I1
sVd5wo48f
p3830
I1
sVdkfna87
p3831
I1
sVdiuoffh
p3832
I1
sVd17yjxi
p3833
I1
sVd18m8ts
p3834
I1
sVczrhrui
p3835
I1
sVd7k2792
p3836
I1
sVd15qpzy
p3837
I1
sVcyt2a7c
p3838
I1
sVdcj9khr
p3839
I1
sVdtfzppl
p3840
I1
sVd92t7qs
p3841
I2
sVdq0o1ym
p3842
I1
sVczonajf
p3843
I1
sVdcpj95j
p3844
I1
sVdbssy5l
p3845
I1
sVdc9bi38
p3846
I1
sVd6zqkgg
p3847
I1
sVda2uc9u
p3848
I1
sVdcjaixn
p3849
I1
sVddtee5o
p3850
I1
sVd5jctx4
p3851
I1
sVd01dm3a
p3852
I1
sVd9nw830
p3853
I1
sVdeh5a3o
p3854
I1
sVd0wvoyt
p3855
I1
sVdflkl4i
p3856
I1
sVdfnr8ch
p3857
I1
sVdknl8g3
p3858
I2
sVdfkhhlw
p3859
I1
sVdjfiu09
p3860
I1
sVd7llyuu
p3861
I1
sVdkbqicv
p3862
I1
sVdn19ukq
p3863
I2
sVd1azd1w
p3864
I1
sVdb3d0wu
p3865
I1
sVdsgj368
p3866
I1
sVdfo7cox
p3867
I1
sVdftsa9z
p3868
I1
sVdr6qx07
p3869
I1
sVdir9t3x
p3870
I1
sVddtkfir
p3871
I1
sVd25kjht
p3872
I3
sVdd8pgd3
p3873
I1
sVdjrolfv
p3874
I2
sVd9kglsk
p3875
I1
sVdoersed
p3876
I1
sVdqabei0
p3877
I1
sVd77m2x3
p3878
I1
sVd08ghhw
p3879
I1
sVdpv27id
p3880
I1
sVd2ra2zw
p3881
I2
sVd0np4cw
p3882
I1
sVd0zb1mg
p3883
I1
sVd4cn3wq
p3884
I1
sVczfnwsy
p3885
I1
sVd2pc4gw
p3886
I1
sVdnhgkr9
p3887
I1
sVdh4wnn8
p3888
I1
sVd74pna1
p3889
I1
sVdnz30e8
p3890
I1
sVdcytt10
p3891
I1
sVdbyi1bc
p3892
I1
sVdb21ak7
p3893
I1
sVd9pcxqc
p3894
I2
sVd05x27k
p3895
I1
sVd1tc5se
p3896
I1
sVd6rgwn1
p3897
I1
sVdi56ayz
p3898
I2
sVd77mlv6
p3899
I1
sVd54owae
p3900
I1
sVdc3zz9l
p3901
I1
sVdbeokgh
p3902
I1
sVdepjjw7
p3903
I1
sVdkqw02z
p3904
I1
sVdq1tpti
p3905
I1
sVczeii2c
p3906
I1
sVdpgnqu9
p3907
I1
sVdg25pa7
p3908
I1
sVdivo679
p3909
I2
sVdpvcgxg
p3910
I1
sVdb932ox
p3911
I1
sVd2bxnzb
p3912
I2
sVdkovogd
p3913
I1
sVd28tjtz
p3914
I1
sVd1jqwoe
p3915
I1
sVd9rqtug
p3916
I1
sVd43pxhj
p3917
I1
sVd7lanws
p3918
I1
sVd1dok1a
p3919
I1
sVdilz0cf
p3920
I1
sVddfpmlb
p3921
I1
sVd17x5fw
p3922
I1
sVczca2pi
p3923
I1
sVdarnk6s
p3924
I1
sVd8vul13
p3925
I1
sVdnkjy9w
p3926
I1
sVcyizlsu
p3927
I1
sVd6j865e
p3928
I1
sVdq1507i
p3929
I1
sVdnnwtxu
p3930
I1
sVcyvb4z2
p3931
I1
sVd1bnf06
p3932
I1
sVdd076xa
p3933
I1
sVdkgtqy2
p3934
I1
sVdizmdhv
p3935
I1
sVdkuaebg
p3936
I1
sVd5n55jf
p3937
I1
sVddf8xr9
p3938
I1
sVdgismpr
p3939
I1
sVdemtzju
p3940
I1
sVdbdkbc1
p3941
I1
sVdeugckl
p3942
I1
sVdqy6ymf
p3943
I1
sVd0zwy87
p3944
I1
sVdb410qk
p3945
I1
sVdquina1
p3946
I1
sVd1g3xaa
p3947
I3
sVdb3udqd
p3948
I1
sVd0sdrrq
p3949
I1
sVdnva6r8
p3950
I1
sVdh3aqii
p3951
I1
sVcza44tu
p3952
I1
sVd0aeq0s
p3953
I1
sVdcmu70i
p3954
I1
sVdc4mybt
p3955
I1
sVd1nudzx
p3956
I1
sVdms5rdc
p3957
I1
sVd9kdsd0
p3958
I1
sVdj901s2
p3959
I1
sVdqorcqi
p3960
I1
sVdip8y66
p3961
I1
sVcz9xkhr
p3962
I2
sVdg5psds
p3963
I1
sVdj4dr5q
p3964
I1
sVd65op9b
p3965
I1
sVd8pzgpz
p3966
I1
sVdgpuy09
p3967
I1
sVds06w69
p3968
I1
sVdjv9uus
p3969
I1
sVde91mys
p3970
I1
sVd3mjy7i
p3971
I1
sVdeb2n6u
p3972
I1
sVdecmwwd
p3973
I1
sVdbazbwr
p3974
I1
sVdetw2mo
p3975
I1
sVdhs5a8y
p3976
I1
sVczdn2oe
p3977
I1
sVddbynfg
p3978
I1
sVdd4nqb1
p3979
I1
sVd9xmedk
p3980
I2
sVd19rkz6
p3981
I1
sVd2ymnx3
p3982
I1
sVddj0buz
p3983
I1
sVd42qq1k
p3984
I1
sVded8sns
p3985
I1
sVdj3eo2w
p3986
I1
sVdfnfln6
p3987
I1
sVda3yidz
p3988
I1
sVcz2y0y7
p3989
I1
sVd6ejgya
p3990
I1
sVddhn5ak
p3991
I1
sVd625im4
p3992
I1
sVdeuesk9
p3993
I1
sVd10hwp9
p3994
I1
sVdcagz8t
p3995
I1
sVdaueq0e
p3996
I3
sVcyretg2
p3997
I1
sVd3zpn5j
p3998
I1
sVdjaygzz
p3999
I1
sVdigj51g
p4000
I1
sVdqigs2t
p4001
I1
sVdkbio99
p4002
I1
sVdf8b24f
p4003
I1
sVd0jd0g5
p4004
I1
sVdest6c9
p4005
I1
sVdhx24n0
p4006
I1
sVdhi1jmg
p4007
I1
sVczdn1ge
p4008
I1
sVdsg7cwp
p4009
I1
sVd79k7uy
p4010
I1
sVd6mvalg
p4011
I1
sVdfl2b5s
p4012
I1
sVddmn5e1
p4013
I1
sVcyvbod9
p4014
I2
sVdgegkzu
p4015
I1
sVdp3tu2n
p4016
I1
sVd25kfwx
p4017
I1
sVcyy73ff
p4018
I1
sVd0hg0ht
p4019
I1
sVdjqmo3b
p4020
I1
sVdfnfs9w
p4021
I1
sVd73eshz
p4022
I1
sVddwkczk
p4023
I1
sVczy2mr6
p4024
I1
sVd2bhmi6
p4025
I1
sVd04jk80
p4026
I1
sVdt9nkwm
p4027
I3
sVdcmclf4
p4028
I1
sVd0d1wnx
p4029
I1
sVdfincnu
p4030
I1
sVd0iw0xq
p4031
I1
sVd185gyt
p4032
I1
sVd3fsgo4
p4033
I1
sVdeq3qaq
p4034
I1
sVd228crs
p4035
I1
sVdcq4u8t
p4036
I1
sVdafoq2i
p4037
I1
sVd6g4l6u
p4038
I1
sVcym4kmh
p4039
I1
sVd95tj9u
p4040
I1
sVdgjn204
p4041
I1
sVd9dsvu4
p4042
I1
sVdjpyjn3
p4043
I1
sVdmeqgni
p4044
I1
sVdmklbcf
p4045
I1
sVd3lasz3
p4046
I1
sVd5u431y
p4047
I1
sVdkgjscv
p4048
I1
sVdjvdsby
p4049
I1
sVd42qs4e
p4050
I1
sVd2t3byz
p4051
I1
sVdhzj21p
p4052
I1
sVderlki0
p4053
I1
sVdfxq320
p4054
I1
sVdhchgwb
p4055
I1
sVd7vhmq0
p4056
I1
sVdkv5wtb
p4057
I1
sVdbvex5u
p4058
I1
sVddh7guo
p4059
I1
sVczh05l2
p4060
I1
sVd51g3qb
p4061
I1
sVcylvasw
p4062
I1
sVdi56y7h
p4063
I1
sVdf3cxrf
p4064
I3
sVczmoc8j
p4065
I3
sVdnbbm0x
p4066
I1
sVdgrsv40
p4067
I1
sVdqox07y
p4068
I1
sVd9sdhgy
p4069
I1
sVdi4lbri
p4070
I1
sVdpmqwne
p4071
I1
sVczuylud
p4072
I1
sVd2jlctg
p4073
I1
sVd21tzl7
p4074
I1
sVdbbi4ms
p4075
I1
sVd8n3hp6
p4076
I1
sVd1l8vcx
p4077
I1
sVd5e56rj
p4078
I1
sVdpae789
p4079
I1
sVdba58ac
p4080
I1
sVdpvscq5
p4081
I2
sVd2d1036
p4082
I1
sVdo9qumn
p4083
I1
sVdawpi3k
p4084
I1
sVdjfwg67
p4085
I1
sVd5yobne
p4086
I1
sVdhoysxk
p4087
I1
sVd04w6dv
p4088
I1
sVdehxxjq
p4089
I1
sVdfs8ye0
p4090
I1
sVdo4fvg5
p4091
I1
sVd4he6xl
p4092
I1
sVdjhn26p
p4093
I1
sVdk5ogtb
p4094
I1
sVdbn3x0d
p4095
I1
sVdk6d1pp
p4096
I1
sVcz2e9s9
p4097
I1
sVcz7utx3
p4098
I1
sVd7cp8xe
p4099
I1
sVdhl2jb2
p4100
I2
sVcyp03fr
p4101
I1
sVdbkroep
p4102
I1
sVd2kxfnt
p4103
I1
sVcyl1m55
p4104
I1
sVddc9mls
p4105
I1
sVdkx9zw0
p4106
I1
sVd18s94g
p4107
I1
sVd2rc69z
p4108
I1
sVdenxqo5
p4109
I1
sVd9f6qj3
p4110
I1
sVczshkmx
p4111
I1
sVdnenxvu
p4112
I1
sVd2q7b0z
p4113
I1
sVdewqhad
p4114
I1
sVdi9m37p
p4115
I1
sVd5lazbb
p4116
I1
sVd3esgc2
p4117
I1
sVdctyrn8
p4118
I1
sVd38nfw1
p4119
I1
sVddwexcm
p4120
I1
sVd07d2l9
p4121
I1
sVd6zy9h3
p4122
I1
sVd2ksl5g
p4123
I1
sVd87klou
p4124
I1
sVdqxqywk
p4125
I1
sVcykitxg
p4126
I2
sVdh1js09
p4127
I1
sVdjoq340
p4128
I1
sVd1decp6
p4129
I1
sVdgs1y4c
p4130
I1
sVdgxr90h
p4131
I1
sVdflzwja
p4132
I1
sVczs91hn
p4133
I1
sVdb5e4ne
p4134
I1
sVdggo2f3
p4135
I2
sVd7z9u1g
p4136
I1
sVdbpyoqo
p4137
I2
sVdj8bpvk
p4138
I1
sVd5x75c7
p4139
I1
sVdmwwigq
p4140
I2
sVd02cfaq
p4141
I1
sVd3f8b5l
p4142
I1
sVdgekfcq
p4143
I2
sVdfe5x6x
p4144
I1
sVd6fzgq4
p4145
I1
sVd2x3g1e
p4146
I2
sVdbcn2dd
p4147
I1
sVd0xfh95
p4148
I1
sVd00s3wa
p4149
I1
sVdez3ejo
p4150
I1
sVdtcv3uy
p4151
I1
sVd8gxgso
p4152
I1
sVdcw9ryh
p4153
I1
sVdr38tq0
p4154
I1
sVd1lvlmr
p4155
I1
sVcyxc8h3
p4156
I1
sVd4p6cbn
p4157
I1
sVd0emh4y
p4158
I1
sVddzlym9
p4159
I1
sVde6vxdb
p4160
I1
sVd22ixne
p4161
I1
sVd1bpsvt
p4162
I1
sVd5ucbv8
p4163
I1
sVdsqyolq
p4164
I1
sVdbwhb7b
p4165
I1
sVd1mqfgl
p4166
I1
sVd0714nc
p4167
I1
sVdhui48b
p4168
I1
sVdbbke3c
p4169
I1
sVd43cla9
p4170
I1
sVd8pdng9
p4171
I1
sVddz9y53
p4172
I1
sVdpzm1ze
p4173
I1
sVdhfqv7t
p4174
I1
sVd14j8uq
p4175
I1
sVd3juyfu
p4176
I1
sVdbn4hws
p4177
I1
sVdqxxp48
p4178
I1
sVd4yr103
p4179
I1
sVd2blx3a
p4180
I1
sVd5ekwdb
p4181
I2
sVdsus3jf
p4182
I1
sVdobo01d
p4183
I2
sVda4yi4j
p4184
I1
sVdpsa5rz
p4185
I1
sVdaqi66y
p4186
I1
sVd153hdh
p4187
I1
sVdn1hj1g
p4188
I2
sVd6m6ezd
p4189
I1
sVczbxyc4
p4190
I1
sVd845d4q
p4191
I1
sVdk35rms
p4192
I1
sVdgqk91v
p4193
I1
sVdsxce6s
p4194
I1
sVd8u9vx2
p4195
I1
sVd4r8f6g
p4196
I1
sVd8pua6t
p4197
I1
sVd1xo40a
p4198
I1
sVd3ah1gi
p4199
I1
sVd7s3t87
p4200
I3
sVddzl87t
p4201
I1
sVdh0wx6i
p4202
I1
sVcykqzwk
p4203
I1
sVd0szerh
p4204
I1
sVd3otxrm
p4205
I1
sVdd3fiih
p4206
I1
sVd4qqah2
p4207
I1
sVcz6zllb
p4208
I2
sVdcxdtmb
p4209
I1
sVd71afrt
p4210
I1
sVdb5b38m
p4211
I1
sVd5fj3ra
p4212
I1
sVdcu73ui
p4213
I1
sVd1p3wj5
p4214
I1
sVdhsgvef
p4215
I1
sVdd5ty36
p4216
I1
sVd97czr7
p4217
I1
sVd3jglo8
p4218
I1
sVd0lfmma
p4219
I1
sVdf8c9h6
p4220
I1
sVdfgpzd3
p4221
I1
sVd4vn26p
p4222
I1
sVdr6fgw3
p4223
I1
sVdjtjotm
p4224
I1
sVdb44iw0
p4225
I1
sVdc31ezs
p4226
I1
sVd2u1w1o
p4227
I2
sVd4qu1pb
p4228
I1
sVdqwx95s
p4229
I1
sVd35f1wl
p4230
I1
sVcze01vj
p4231
I1
sVcyskz0d
p4232
I1
sVd1zp947
p4233
I1
sVdhn8ged
p4234
I1
sVdbaffqa
p4235
I1
sVdbzh0su
p4236
I2
sVd9ea2uv
p4237
I1
sVdhjhhny
p4238
I2
sVd37wfod
p4239
I1
sVd98xnd7
p4240
I1
sVdevxaa6
p4241
I1
sVdnvshu6
p4242
I1
sVddr79ae
p4243
I1
sVdgu17u1
p4244
I1
sVdf2orzn
p4245
I1
sVd9mtud9
p4246
I1
sVdbmcgu9
p4247
I1
sVd1em738
p4248
I1
sVd45wpzx
p4249
I1
sVdbmfez2
p4250
I1
sVdcz6at1
p4251
I1
sVd39fs2c
p4252
I1
sVd8fa1lw
p4253
I2
sVdkab542
p4254
I1
sVcz2843o
p4255
I1
sVd90pgfi
p4256
I1
sVd6tz9uy
p4257
I2
sVddc86ad
p4258
I1
sVdb5uk5p
p4259
I1
sVdmfdd3g
p4260
I1
sVd9r7t62
p4261
I2
sVd8o6500
p4262
I3
sVd0ztkvo
p4263
I1
sVdabutb7
p4264
I1
sVcyut0nx
p4265
I1
sVdobd7sq
p4266
I1
sVdigyieu
p4267
I1
sVdaw88l7
p4268
I1
sVd0l57k1
p4269
I1
sVd7w1b79
p4270
I1
sVddcdh5m
p4271
I1
sVdry7g1r
p4272
I1
sVdc1rbsf
p4273
I1
sVdq5d3ny
p4274
I2
sVcz19qnv
p4275
I1
sVda4jtvq
p4276
I1
sVdgpogd9
p4277
I1
sVd3zpsa6
p4278
I1
sVdpce88x
p4279
I1
sVd5p37yn
p4280
I1
sVd3aumcg
p4281
I2
sVd2tjymj
p4282
I1
sVd8xw2z9
p4283
I1
sVdgxol5v
p4284
I1
sVdboypdl
p4285
I1
sVd72he00
p4286
I1
sVd6civ2a
p4287
I1
sVdkph8ud
p4288
I1
sVd8a4jzi
p4289
I1
sVdokn27c
p4290
I1
sVcyi2cg2
p4291
I1
sVdcs8a1g
p4292
I1
sVdna5hia
p4293
I1
sVd0mfdkq
p4294
I1
sVdr037hj
p4295
I1
sVdsievf3
p4296
I1
sVda1e6z5
p4297
I1
sVd7b5tdu
p4298
I1
sVcyt9vz4
p4299
I1
sVd8jb1e7
p4300
I1
sVdasad21
p4301
I1
sVd25qtn1
p4302
I2
sVd9m7abv
p4303
I2
sVdc6oyia
p4304
I1
sVd3mlnxb
p4305
I1
sVdboqr86
p4306
I1
sVd3nq95p
p4307
I1
sVd04ysby
p4308
I1
sVddwl1te
p4309
I1
sVd2x82p1
p4310
I1
sVdn6oshp
p4311
I2
sVdjuvsxs
p4312
I1
sVdrkqvwh
p4313
I1
sVd0jdrj0
p4314
I1
sVd15ww19
p4315
I1
sVd0p23o6
p4316
I1
sVd2i96gz
p4317
I1
sVdnvew79
p4318
I1
sVdnxihfc
p4319
I1
sVd86o878
p4320
I1
sVdew2eil
p4321
I2
sVd7kq0kc
p4322
I1
sVdtekv8n
p4323
I1
sVd8p0myp
p4324
I1
sVda6fofn
p4325
I1
sVcysl6nz
p4326
I1
sVd00q4iw
p4327
I1
sVdergn84
p4328
I1
sVdbwiz0k
p4329
I1
sVd13k1bm
p4330
I1
sVd23ruil
p4331
I1
sVdqp84e8
p4332
I1
sVd95mrvg
p4333
I1
sVd9dn1je
p4334
I2
sVdcktw00
p4335
I1
sVd9ole1j
p4336
I1
sVdsrrgp1
p4337
I1
sVd3injyr
p4338
I2
sVdakt4vo
p4339
I1
sVd48dxhe
p4340
I1
sVd1w6tda
p4341
I1
sVdb72zcf
p4342
I1
sVdiqdk1a
p4343
I2
sVd445mok
p4344
I1
sVd3znyh3
p4345
I1
sVd7m7ioo
p4346
I1
sVdnvbl21
p4347
I1
sVdiasrmh
p4348
I1
sVdc3xob3
p4349
I1
sVd0bsaj7
p4350
I1
sVd8gj0nj
p4351
I1
sVd7uwqv5
p4352
I1
sVdh60qff
p4353
I1
sVd8yy75b
p4354
I1
sVczuzivu
p4355
I1
sVd19s1nf
p4356
I2
sVd97dfgb
p4357
I2
sVdgifhex
p4358
I1
sVd0x4egh
p4359
I1
sVdfi7wxn
p4360
I1
sVcyqtawd
p4361
I1
sVdig5tts
p4362
I1
sVd5opjij
p4363
I1
sVd4hfk8h
p4364
I1
sVd6c6wa7
p4365
I1
sVdc09kpd
p4366
I1
sVdku8px2
p4367
I1
sVdp4rcbq
p4368
I1
sVdeyh3db
p4369
I1
sVdc79sq7
p4370
I1
sVdc3454w
p4371
I1
sVd5qoaf1
p4372
I1
sVdhu7feg
p4373
I1
sVdqtutwx
p4374
I1
sVdet75ws
p4375
I1
sVdevsro9
p4376
I1
sVddexuvi
p4377
I1
sVdfecmtr
p4378
I1
sVda0m9fv
p4379
I1
sVdpk60t7
p4380
I1
sVdbs2xbw
p4381
I1
sVd364jnv
p4382
I1
sVczsivd3
p4383
I1
sVd8bqpbq
p4384
I1
sVdb8b6qg
p4385
I1
sVdc0urad
p4386
I1
sVd2kuwd0
p4387
I1
sVdhaythv
p4388
I1
sVdqdp5te
p4389
I1
sVczx4t7r
p4390
I1
sVd2i8s53
p4391
I1
sVdaxgmuv
p4392
I1
sVczgondn
p4393
I1
sVdam087u
p4394
I1
sVd1pbi8a
p4395
I1
sVd86u30m
p4396
I1
sVdgmiy9s
p4397
I2
sVdj5c3wp
p4398
I1
sVd7efx66
p4399
I1
sVdcaa3qz
p4400
I1
sVdavn1mb
p4401
I1
sVd7bjqau
p4402
I1
sVdkrzykx
p4403
I1
sVdhvkyf4
p4404
I1
sVd8yt4ly
p4405
I1
sVdih8x80
p4406
I1
sVdmni6tj
p4407
I1
sVdhfr3o9
p4408
I1
sVdoeadoh
p4409
I1
sVdcz5q6t
p4410
I1
sVdbi0axx
p4411
I2
sVdeo5y9j
p4412
I1
sVd6hjg3h
p4413
I1
sVd4r12ow
p4414
I2
sVdf42yln
p4415
I1
sVdgtv75t
p4416
I1
sVcykf74b
p4417
I1
sVd9dhdze
p4418
I1
sVd1dqsiu
p4419
I1
sVdd6raoj
p4420
I1
sVd1g9da0
p4421
I1
sVd3h6dzz
p4422
I1
sVd5eee3y
p4423
I2
sVd3ut6iz
p4424
I1
sVdg2grcs
p4425
I1
sVdb5nt5v
p4426
I1
sVdekd4q3
p4427
I1
sVdhwvo45
p4428
I1
sVdjqbbg3
p4429
I1
sVd2oarrx
p4430
I1
sVd2rg0go
p4431
I1
sVcyk86sc
p4432
I1
sVdges7d0
p4433
I1
sVd0yeepv
p4434
I1
sVdk3ofkt
p4435
I1
sVdouutvc
p4436
I1
sVdh8k04x
p4437
I1
sVdr20eml
p4438
I1
sVd3ah9v8
p4439
I1
sVdqt8jyc
p4440
I1
sVd0a7j6t
p4441
I1
sVdperth8
p4442
I1
sVd040lpj
p4443
I2
sVd67fz7h
p4444
I1
sVdo2ryiy
p4445
I1
sVd0cgnkg
p4446
I1
sVd8e3fep
p4447
I1
sVdezo6m6
p4448
I1
sVd68e4ep
p4449
I1
sVd3yjx66
p4450
I1
sVdgknysq
p4451
I1
sVdaax0ld
p4452
I1
sVdezueko
p4453
I1
sVd928hna
p4454
I1
sVcykgi97
p4455
I1
sVcyiihrv
p4456
I1
sVd0d7nm2
p4457
I1
sVdh5ui1y
p4458
I1
sVcypt1ox
p4459
I1
sVd8alhsg
p4460
I1
sVddwz66d
p4461
I1
sVd1hf802
p4462
I1
sVdkn8d3u
p4463
I1
sVd0vx8hq
p4464
I1
sVcz6q32w
p4465
I1
sVde3uwqu
p4466
I2
sVdgzh9sb
p4467
I1
sVd8np7q6
p4468
I1
sVd37t8r7
p4469
I1
sVdsmbm49
p4470
I1
sVde0kceb
p4471
I1
sVd38lcce
p4472
I1
sVdf0zet0
p4473
I1
sVczvvvb8
p4474
I1
sVdas87ne
p4475
I1
sVdam8r9l
p4476
I2
sVcywjv3u
p4477
I2
sVdcpxrmq
p4478
I1
sVdaqbcch
p4479
I1
sVd4ughht
p4480
I1
sVd0nodec
p4481
I1
sVdoheadi
p4482
I1
sVd7tl7tw
p4483
I1
sVd6a844x
p4484
I1
sVczw25vf
p4485
I1
sVd4w84wq
p4486
I1
sVd19um84
p4487
I1
sVd4k0sa3
p4488
I1
sVdk3iqzy
p4489
I1
sVd8w1w81
p4490
I1
sVd5hif36
p4491
I1
sVdcxbwwx
p4492
I2
sVdfvxub1
p4493
I1
sVd557zvf
p4494
I1
sVdadj2x8
p4495
I1
sVd121ztm
p4496
I1
sVdfk5979
p4497
I1
sVdfzrkdx
p4498
I1
sVdgoyecy
p4499
I1
sVdguwwjb
p4500
I1
sVd48dst3
p4501
I1
sVd11n4yi
p4502
I2
sVd67sr03
p4503
I1
sVcyrhd8h
p4504
I1
sVd7hwxqd
p4505
I1
sVd3uuptj
p4506
I1
sVd0wym92
p4507
I1
sVdaucqej
p4508
I2
sVdbfnou6
p4509
I1
sVd0s3psu
p4510
I1
sVd98vs7t
p4511
I1
sVdc7k24t
p4512
I2
sVd5dgzy8
p4513
I1
sVd1j0vsl
p4514
I2
sVd1acx0h
p4515
I1
sVdezs3eq
p4516
I1
sVd44u6na
p4517
I2
sVd9jqjnt
p4518
I1
sVd7kfg5u
p4519
I1
sVd4ldef6
p4520
I1
sVdfkq1dn
p4521
I1
sVdmk78qd
p4522
I1
sVd52ciri
p4523
I1
sVdcb2ech
p4524
I1
sVd56cvtl
p4525
I1
sVde6getl
p4526
I1
sVddgd7iq
p4527
I1
sVdshrdtt
p4528
I1
sVdrv72nb
p4529
I1
sVd62tfh9
p4530
I1
sVdq4cf3d
p4531
I1
sVdgaoujr
p4532
I1
sVczrm7pb
p4533
I1
sVd4vizph
p4534
I1
sVdgzth4a
p4535
I1
sVd2br38m
p4536
I1
sVd3vosed
p4537
I1
sVd718k1k
p4538
I1
sVd0cguri
p4539
I1
sVd11y5vi
p4540
I1
sVdfwe0eg
p4541
I1
sVdq25x57
p4542
I1
sVcylmapw
p4543
I1
sVdbhmkpm
p4544
I1
sVcyi83uc
p4545
I1
sVd3coubt
p4546
I1
sVd5boqki
p4547
I1
sVdkw2omu
p4548
I1
sVd96w407
p4549
I1
sVdqyp41h
p4550
I1
sVdqdhqsm
p4551
I1
sVda4dmep
p4552
I1
sVd21wzhp
p4553
I1
sVdbfdz0x
p4554
I1
sVd40mm9r
p4555
I1
sVdi5w2h6
p4556
I1
sVd25clk1
p4557
I1
sVdgzxnly
p4558
I1
sVdadtple
p4559
I1
sVczzuvgo
p4560
I1
sVd9sw0q5
p4561
I1
sVdmve8t0
p4562
I1
sVd9519ag
p4563
I1
sVd1riode
p4564
I1
sVd4br6x0
p4565
I1
sVczz4f90
p4566
I1
sVdfv9yi2
p4567
I2
sVdd958vn
p4568
I1
sVdmpzkmc
p4569
I1
sVdcja52p
p4570
I1
sVdirbbgf
p4571
I1
sVd7j1ckh
p4572
I1
sVdhw44r7
p4573
I1
sVddnlslr
p4574
I1
sVd0b6h2l
p4575
I1
sVd273qqk
p4576
I1
sVdqftp4e
p4577
I1
sVdj0sgiz
p4578
I1
sVczyc187
p4579
I1
sVdt8o610
p4580
I1
sVdd3vypl
p4581
I3
sVd5qd913
p4582
I1
sVda5cnnk
p4583
I1
sVdfos0ss
p4584
I1
sVdfb0u5c
p4585
I1
sVd125600
p4586
I1
sVczxrubw
p4587
I1
sVd4l3c6b
p4588
I1
sVcyxuyui
p4589
I1
sVd98wbl4
p4590
I1
sVdaxozd3
p4591
I1
sVd3sxj9v
p4592
I1
sVd7e4vxf
p4593
I1
sVdfy4qpo
p4594
I1
sVd3bzfa2
p4595
I1
sVd37qmqu
p4596
I1
sVdazeroj
p4597
I1
sVczutle2
p4598
I1
sVd8e6677
p4599
I1
sVdp0txcs
p4600
I1
sVdbdvlm9
p4601
I1
sVdedb5qn
p4602
I1
sVd0c3inq
p4603
I1
sVd1k0s94
p4604
I1
sVd5o9tq3
p4605
I1
sVd7q3a57
p4606
I1
sVcyzwjx2
p4607
I1
sVdmmo09p
p4608
I1
sVcynqjwy
p4609
I1
sVdr5vqzw
p4610
I1
sVd0yfvfj
p4611
I1
sVdese3e7
p4612
I1
sVdrmofjm
p4613
I1
sVdtdxvr6
p4614
I1
sVd86b8s9
p4615
I1
sVdnl8kwo
p4616
I1
sVd7iunaf
p4617
I1
sVdfzueph
p4618
I2
sVdrgb7on
p4619
I1
sVcyqlas1
p4620
I1
sVd236d7g
p4621
I2
sVdaqsy92
p4622
I2
sVdmwqcqz
p4623
I1
sVdq4tbny
p4624
I1
sVd4xe9xw
p4625
I1
sVd0hbfn0
p4626
I1
sVcyn0je9
p4627
I1
sVd1jt4o7
p4628
I1
sVdcpkk8j
p4629
I1
sVdjzzwty
p4630
I1
sVcypdu48
p4631
I1
sVczg38lf
p4632
I1
sVdbuuya8
p4633
I1
sVd47clix
p4634
I1
sVd6hg1l7
p4635
I1
sVd2ja700
p4636
I2
sVdarev1i
p4637
I1
sVdjsc9rb
p4638
I1
sVd2ys5s0
p4639
I1
sVdahqug1
p4640
I1
sVczs1f3j
p4641
I1
sVd8fj1eo
p4642
I1
sVdn4v4t1
p4643
I2
sVd5xqctu
p4644
I1
sVdg18zra
p4645
I1
sVd4322ik
p4646
I2
sVdp6vsxr
p4647
I1
sVcznpwft
p4648
I1
sVd9tsuzu
p4649
I1
sVdegyst3
p4650
I1
sVd6n96w4
p4651
I1
sVd9pxi7m
p4652
I1
sVd0pvne0
p4653
I1
sVd03aaue
p4654
I1
sVdhc3e5t
p4655
I1
sVddb2obo
p4656
I1
sVdn8ooib
p4657
I1
sVdnasfeu
p4658
I1
sVd4klljg
p4659
I1
sVdeos150
p4660
I1
sVd017hjn
p4661
I1
sVdakvhxj
p4662
I1
sVdb2aa3k
p4663
I1
sVd23s58f
p4664
I2
sVd54j1l7
p4665
I1
sVdao4zr9
p4666
I1
sVdo1dj68
p4667
I1
sVd6wk5ku
p4668
I1
sVdp8yvg8
p4669
I1
sVdo0p22a
p4670
I1
sVdba5qxb
p4671
I1
sVdj43zn7
p4672
I1
sVd9mttjw
p4673
I1
sVdkuavax
p4674
I1
sVd0xt8jw
p4675
I2
sVdabthvg
p4676
I1
sVdk0jf42
p4677
I1
sVdngie7w
p4678
I1
sVd33z42u
p4679
I1
sVd27jaya
p4680
I1
sVdgpq6vh
p4681
I1
sVdfa5aum
p4682
I1
sVd28ibrc
p4683
I1
sVdsbhsa7
p4684
I1
sVd99yppj
p4685
I1
sVdgph4d3
p4686
I1
sVdc0tup2
p4687
I1
sVd48oojr
p4688
I2
sVdrfxktd
p4689
I2
sVdfl94nu
p4690
I1
sVdi3c4pf
p4691
I1
sVdrcchit
p4692
I2
sVdqmpxtb
p4693
I1
sVd80064a
p4694
I1
sVcyql8z1
p4695
I1
sVd3kkha2
p4696
I1
sVdhau6xh
p4697
I1
sVd3u5lfx
p4698
I1
sVdddsqwz
p4699
I1
sVd6qr37n
p4700
I1
sVd9fqao2
p4701
I2
sVd045dao
p4702
I1
sVd5gmme8
p4703
I1
sVddewiwl
p4704
I1
sVddmm9i9
p4705
I1
sVd62sjih
p4706
I1
sVdhrtm5r
p4707
I2
sVdeub0jr
p4708
I1
sVczug6yz
p4709
I1
sVdd5qgcv
p4710
I1
sVdhyufxm
p4711
I1
sVd5end6q
p4712
I1
sVd9aph7g
p4713
I1
sVdq6f4ez
p4714
I1
sVdjy9kah
p4715
I1
sVczovo1s
p4716
I1
sVdf5hw7s
p4717
I1
sVddesa8k
p4718
I1
sVdklfvx4
p4719
I2
sVd8nkiim
p4720
I2
sVd84rdpi
p4721
I1
sVd1guggb
p4722
I1
sVdg92lvu
p4723
I1
sVdfzdq3u
p4724
I1
sVd96sefd
p4725
I1
sVd39aoje
p4726
I1
sVd5ip1rq
p4727
I1
sVd03ccf2
p4728
I1
sVd9ltw1x
p4729
I1
sVdcxuf11
p4730
I1
sVcyjbadl
p4731
I1
sVdch6vlf
p4732
I2
sVd72tmir
p4733
I1
sVdglpafz
p4734
I1
sVdt8yq1w
p4735
I1
sVdivqht2
p4736
I1
sVd04z9em
p4737
I2
sVdmo0bdh
p4738
I1
sVdruqnjj
p4739
I1
sVdrt466u
p4740
I1
sVd0ek4ta
p4741
I1
sVd7lbd8e
p4742
I1
sVdohimar
p4743
I1
sVdcl0z3n
p4744
I1
sVdn9rb20
p4745
I1
sVdc3xh56
p4746
I2
sVdgha907
p4747
I1
sVd5en2hj
p4748
I1
sVd7jye27
p4749
I1
sVd2s3m96
p4750
I2
sVdnsqowh
p4751
I1
sVcz5b683
p4752
I1
sVdczl29j
p4753
I1
sVcywyu7g
p4754
I1
sVd193ip5
p4755
I1
sVd636uwi
p4756
I1
sVdcwj2c9
p4757
I1
sVdg9liiz
p4758
I2
sVda0y34x
p4759
I1
sVd73j2b9
p4760
I1
sVd8ndn8p
p4761
I1
sVdet3o64
p4762
I1
sVdexrqgu
p4763
I1
sVd0ciurq
p4764
I1
sVdabtrxb
p4765
I1
sVd10q1tq
p4766
I1
sVd3oqklc
p4767
I1
sVcyy7kqy
p4768
I1
sVdpeqpck
p4769
I1
sVdd24jgf
p4770
I1
sVdgn8kpr
p4771
I4
sVdmzoxk1
p4772
I1
sVdepgb9r
p4773
I1
sVdiyy0l0
p4774
I4
sVdd8670j
p4775
I1
sVd80rcy9
p4776
I1
sVd6bh8bg
p4777
I1
sVdn62iim
p4778
I1
sVdj4d63b
p4779
I1
sVdcl6wno
p4780
I1
sVd0u7hv6
p4781
I1
sVdgjhdud
p4782
I1
sVdd5qbtf
p4783
I1
sVd3zesgr
p4784
I1
sVd5vl4l8
p4785
I1
sVdsk258d
p4786
I1
sVdks8bdp
p4787
I1
sVdb7oxbx
p4788
I1
sVd63qhep
p4789
I1
sVdccu71p
p4790
I1
sVdbswm7n
p4791
I1
sVd6e6vry
p4792
I1
sVdf5g3qq
p4793
I1
sVdedd1jm
p4794
I1
sVdb24y0h
p4795
I1
sVdqc6mfc
p4796
I1
sVdog9z1p
p4797
I1
sVdk1cwdx
p4798
I1
sVdbt66va
p4799
I1
sVdh9nys2
p4800
I1
sVd1keujy
p4801
I1
sVde5i1q6
p4802
I1
sVdjfhon8
p4803
I1
sVd3xlth9
p4804
I2
sVdt6c3pj
p4805
I1
sVdd3ecop
p4806
I1
sVdbfevmf
p4807
I3
sVd8zbu53
p4808
I1
sVdmycfth
p4809
I1
sVdjdicl2
p4810
I1
sVd2tqzbl
p4811
I1
sVd6z3otl
p4812
I1
sVczv2eil
p4813
I1
sVdemgnfd
p4814
I1
sVdo2uujw
p4815
I1
sVd08galm
p4816
I1
sVd7u2cn7
p4817
I1
sVdjxvidb
p4818
I1
sVdqp7sej
p4819
I1
sVdn8rr5a
p4820
I1
sVd1kdi3g
p4821
I1
sVczi9gxo
p4822
I1
sVdjk33x1
p4823
I1
sVd50l0z8
p4824
I1
sVd6qieq5
p4825
I1
sVdi2pv3i
p4826
I1
sVd03wclm
p4827
I1
sVddcmhtn
p4828
I1
sVder9uts
p4829
I1
sVdhebqfi
p4830
I1
sVd8oil98
p4831
I1
sVdb0a03p
p4832
I1
sVcytd0ih
p4833
I2
sVdn27dut
p4834
I1
sVczn1ows
p4835
I1
sVd84650l
p4836
I1
sVdtf7z41
p4837
I1
sVd7xhr2f
p4838
I1
sVdd27x4q
p4839
I1
sVdehribl
p4840
I1
sVcyxsv9t
p4841
I1
sVdhr3tcd
p4842
I1
sVd7vl3al
p4843
I1
sVd1spgjm
p4844
I1
sVd9n0tmr
p4845
I1
sVdcrv31v
p4846
I1
sVd5wksjk
p4847
I1
sVdjo6ak2
p4848
I1
sVdhgfez7
p4849
I1
sVdhw4htf
p4850
I1
sVd9ui671
p4851
I1
sVdgnqz8c
p4852
I2
sVd2q3vw1
p4853
I1
sVdmkz8lr
p4854
I1
sVde68cq9
p4855
I2
sVdmktcj9
p4856
I1
sVdawrm7c
p4857
I2
sVd0h4s8n
p4858
I1
sVd801jn8
p4859
I1
sVd5btw48
p4860
I1
sVd56e5jz
p4861
I1
sVd19ocos
p4862
I1
sVdd444t6
p4863
I1
sVd2pvh50
p4864
I1
sVczqw0cb
p4865
I1
sVdb6vdzi
p4866
I1
sVd0ba46b
p4867
I1
sVd32m62p
p4868
I1
sVdffhixb
p4869
I1
sVd29vt2l
p4870
I1
sVdoikkzx
p4871
I1
sVdpff44f
p4872
I1
sVddu1uhx
p4873
I1
sVd175hwk
p4874
I1
sVdjb5aeh
p4875
I1
sVd1keist
p4876
I2
sVddfj0g8
p4877
I2
sVd69j6h8
p4878
I1
sVdrrskgy
p4879
I1
sVczwgec0
p4880
I1
sVd29msmj
p4881
I1
sVdac0i1k
p4882
I1
sVdtfqzg4
p4883
I1
sVcz5op5s
p4884
I1
sVdn60m1l
p4885
I1
sVd08kqvn
p4886
I1
sVd5146vn
p4887
I1
sVdeax44q
p4888
I1
sVdhc1e9e
p4889
I1
sVd6s51ne
p4890
I1
sVdt9mrjg
p4891
I1
sVd1vzs80
p4892
I1
sVdirb197
p4893
I1
sVcyr7j84
p4894
I1
sVd7p458n
p4895
I1
sVddq0heg
p4896
I1
sVd8o681r
p4897
I2
sVd7nwb0n
p4898
I1
sVdmet2iv
p4899
I1
sVd8nos0b
p4900
I1
sVd15wf71
p4901
I1
sVdo4pnnu
p4902
I1
sVdi3wrol
p4903
I1
sVdb36ze2
p4904
I1
sVd3nxn9e
p4905
I1
sVdho0fqd
p4906
I1
sVd5vumzt
p4907
I1
sVdf8f9fy
p4908
I2
sVdei5ivd
p4909
I2
sVd06jl8m
p4910
I1
sVd6xzfju
p4911
I1
sVd1hzkqs
p4912
I1
sVdg5bliq
p4913
I1
sVdiu4s0r
p4914
I1
sVdp9xsv0
p4915
I1
sVd6gf2sw
p4916
I1
sVd5n9gna
p4917
I1
sVdt8emcs
p4918
I1
sVcz0i8gq
p4919
I1
sVcz3grev
p4920
I1
sVd2g6sar
p4921
I1
sVdgbcu5y
p4922
I1
sVdab705x
p4923
I1
sVdaumg1n
p4924
I1
sVdbloezq
p4925
I1
sVd1h6ecm
p4926
I1
sVd6wkh8n
p4927
I1
sVd4dx84e
p4928
I1
sVdmf6pp4
p4929
I1
sVdb5aue1
p4930
I1
sVdd4vlgb
p4931
I1
sVcypec2y
p4932
I1
sVdbfox7s
p4933
I1
sVd2cg93o
p4934
I1
sVd02a57y
p4935
I1
sVdf3vhes
p4936
I1
sVde0ia4s
p4937
I1
sVd8b3em5
p4938
I1
sVdenu37n
p4939
I1
sVd59fwgk
p4940
I1
sVd0v4hwa
p4941
I1
sVdq4rn8k
p4942
I1
sVdgi6kco
p4943
I2
sVddm5uvh
p4944
I1
sVd626ss3
p4945
I2
sVdaoay7q
p4946
I1
sVdhn3b9z
p4947
I1
sVd0yhhkq
p4948
I1
sVd43nh1q
p4949
I3
sVd8ockre
p4950
I1
sVdg1bw0h
p4951
I1
sVd5x7lym
p4952
I1
sVdh8bryt
p4953
I1
sVda4t4c5
p4954
I1
sVcyisrx1
p4955
I1
sVdr4i1br
p4956
I1
sVdg8bd8p
p4957
I1
sVd91olfu
p4958
I1
sVd8cvwd6
p4959
I1
sVdnjfu1x
p4960
I1
sVdjvpo96
p4961
I1
sVdgg4jen
p4962
I1
sVdnkzky6
p4963
I1
sVd9c2eh9
p4964
I1
sVd7xpibi
p4965
I1
sVd7z9s4k
p4966
I1
sVda98kjv
p4967
I1
sVdgkfkt6
p4968
I1
sVcztf3rk
p4969
I1
sVcyro99i
p4970
I2
sVd5ltnzg
p4971
I1
sVdhl9gmf
p4972
I1
sVdtdicve
p4973
I1
sVcyluo8b
p4974
I1
sVdgd2lcb
p4975
I1
sVd75eo1t
p4976
I1
sVd4i16lu
p4977
I1
sVcylvfn7
p4978
I1
sVd8pczi4
p4979
I1
sVdhudgzj
p4980
I1
sVdgd1cm7
p4981
I1
sVd1pft31
p4982
I1
sVdbg7ro3
p4983
I1
sVdt1x1db
p4984
I1
sVd38lyxq
p4985
I1
sVd4nfp1o
p4986
I1
sVd70a0va
p4987
I1
sVdedojbx
p4988
I1
sVdc92gfd
p4989
I1
sVd1pf7hc
p4990
I1
sVdbr8nbi
p4991
I1
sVd029o3c
p4992
I1
sVcz1jkeu
p4993
I1
sVd06e8sl
p4994
I1
sVcz02cob
p4995
I1
sVdbssmto
p4996
I1
sVdt2s6qw
p4997
I1
sVd7sugvo
p4998
I1
sVd7wp8dl
p4999
I1
sVdg3wicg
p5000
I1
sVcz8tr7i
p5001
I1
sVdhyyp3c
p5002
I3
sVd2gjf2l
p5003
I2
sVdmqa13a
p5004
I1
sVdqa8z9f
p5005
I1
sVdf3pa1e
p5006
I1
sVd2azy1w
p5007
I1
sVdgl3fap
p5008
I1
sVd9mjdwc
p5009
I1
sVdcig6fg
p5010
I1
sVdeqqchj
p5011
I1
sVdbg0dyd
p5012
I2
sVdqish5l
p5013
I1
sVd00mh1f
p5014
I1
sVd5q8tdg
p5015
I1
sVdt822sk
p5016
I1
sVdjanxmk
p5017
I1
sVcykd38t
p5018
I1
sVdetlxpo
p5019
I1
sVdrd02ln
p5020
I1
sVdpebw9l
p5021
I1
sVdk55x1s
p5022
I1
sVdkns2ai
p5023
I1
sVdof7tgc
p5024
I1
sVdri6ocl
p5025
I1
sVdogix2c
p5026
I1
sVd250xo0
p5027
I1
sVd6hn76o
p5028
I1
sVdb3mtfm
p5029
I1
sVdp1eery
p5030
I1
sVdeiq6fs
p5031
I1
sVdrguty0
p5032
I1
sVdjkchai
p5033
I1
sVdofovnb
p5034
I1
sVd35gm4j
p5035
I1
sVdfwtipu
p5036
I1
sVd8uio83
p5037
I2
sVdjlb4gk
p5038
I1
sVd71jnr9
p5039
I1
sVd6p3u36
p5040
I2
sVd16ja15
p5041
I1
sVd5og016
p5042
I1
sVdfu5g4s
p5043
I1
sVdbwjnym
p5044
I1
sVdgfb67m
p5045
I1
sVd8eypc2
p5046
I1
sVd1ajnoi
p5047
I2
sVd9uy4i5
p5048
I1
sVde4d30p
p5049
I1
sVczdkghg
p5050
I1
sVdg66mjr
p5051
I1
sVdhie596
p5052
I1
sVdehj0io
p5053
I1
sVdk2y46w
p5054
I1
sVdjf7vlx
p5055
I1
sVdo1osl6
p5056
I1
sVczgl5wd
p5057
I2
sVd0u3788
p5058
I1
sVded8erf
p5059
I1
sVdq4tgqb
p5060
I2
sVdbdnnw9
p5061
I1
sVd7vyc70
p5062
I1
sVd0pgcll
p5063
I1
sVd0skoi3
p5064
I1
sVdh8gp4z
p5065
I1
sVda9mv58
p5066
I1
sVdibptu1
p5067
I1
sVdbmv63h
p5068
I1
sVdeag8oi
p5069
I1
sVcz9udnp
p5070
I1
sVdrnccjg
p5071
I1
sVdp5ep8l
p5072
I1
sVd7m3ars
p5073
I1
sVd072l2w
p5074
I1
sVdjtetl0
p5075
I1
sVd2n16vd
p5076
I1
sVd6tzwg5
p5077
I3
sVd0t0sbe
p5078
I1
sVd9jlpvd
p5079
I1
sVd9o35wd
p5080
I1
sVd6hvfez
p5081
I1
sVd7rjzrh
p5082
I1
sVd4quapu
p5083
I1
sVd0yihs1
p5084
I1
sVd7r4wzq
p5085
I2
sVdd48pqr
p5086
I1
sVdni48iq
p5087
I1
sVdqecsnu
p5088
I1
sVd0l9fl5
p5089
I1
sVdt9orub
p5090
I1
sVcyxfyvi
p5091
I1
sVd5dhduo
p5092
I1
sVd8t12qf
p5093
I1
sVddqmy62
p5094
I1
sVd8m4483
p5095
I2
sVcyqrn3l
p5096
I1
sVdoys1xy
p5097
I1
sVd7z75jz
p5098
I1
sVdrlow51
p5099
I1
sVda3klb6
p5100
I1
sVda4yd0l
p5101
I1
sVdguoijw
p5102
I1
sVdcbji04
p5103
I1
sVd0b64fy
p5104
I1
sVd1fekdr
p5105
I1
sVd0wopkj
p5106
I1
sVd3fgfy5
p5107
I1
sVdn8t6rf
p5108
I2
sVd9mudg1
p5109
I1
sVddmx2ol
p5110
I1
sVdoqow46
p5111
I1
sVd2x3ne6
p5112
I2
sVdnsqrh3
p5113
I1
sVdr4nneh
p5114
I2
sVd04tn8d
p5115
I1
sVdimh6c1
p5116
I1
sVdhxx4ij
p5117
I1
sVd33u0ul
p5118
I1
sVddk96gw
p5119
I1
sVdel135f
p5120
I1
sVdgkp1m8
p5121
I1
sVdav7zfx
p5122
I1
sVd9x15ww
p5123
I1
sVdh40e94
p5124
I1
sVdffra2p
p5125
I1
sVd46qvin
p5126
I1
sVdh7f4ew
p5127
I1
sVdgd7mo3
p5128
I1
sVdnwdau4
p5129
I1
sVdib0795
p5130
I1
sVd9gvyad
p5131
I2
sVdthhs3u
p5132
I1
sVdjnpjqf
p5133
I1
sVde3ry3x
p5134
I1
sVd8och87
p5135
I1
sVd0cm9ch
p5136
I1
sVd1madw3
p5137
I1
sVd35k070
p5138
I1
sVdpiq6da
p5139
I1
sVd3polua
p5140
I1
sVdc2izsz
p5141
I1
sVdjk84ke
p5142
I1
sVdo2vulj
p5143
I1
sVdqeev7d
p5144
I1
sVdhslbby
p5145
I1
sVdqdb731
p5146
I1
sVdggjwxw
p5147
I1
sVdgvmw7m
p5148
I2
sVde023b5
p5149
I1
sVdce0dgx
p5150
I1
sVddwkf51
p5151
I2
sVda9kdmo
p5152
I1
sVdgtthq9
p5153
I2
sVdd740jw
p5154
I1
sVcyxyuky
p5155
I1
sVd7z9hjs
p5156
I1
sVczbiek6
p5157
I1
sVd4u67fs
p5158
I1
sVczahzdd
p5159
I1
sVd5zrlho
p5160
I1
sVcyypcdh
p5161
I1
sVd8qdrha
p5162
I1
sVd7hmi05
p5163
I1
sVdri5fdt
p5164
I1
sVderv6p7
p5165
I2
sVdj2mh1l
p5166
I1
sVd3c2p3g
p5167
I1
sVd8v5bea
p5168
I1
sVd1fkc39
p5169
I1
sVdbc2v32
p5170
I2
sVd34czwh
p5171
I1
sVczxm3vh
p5172
I1
sVdjjp675
p5173
I1
sVd6n5j3u
p5174
I1
sVd2m1ck8
p5175
I1
sVdkxlcgh
p5176
I1
sVczgvtc1
p5177
I1
sVdblo8rj
p5178
I1
sVdg4cmh9
p5179
I1
sVds0jy9v
p5180
I1
sVdcffsdx
p5181
I1
sVdk9ypj0
p5182
I1
sVd75hssx
p5183
I3
sVdc1gwpw
p5184
I1
sVd8320n7
p5185
I1
sVdh8cx6q
p5186
I1
sVd4s7a20
p5187
I2
sVcz4hqh3
p5188
I1
sVdmkp82u
p5189
I1
sVd39afuc
p5190
I1
sVd2r9ec8
p5191
I1
sVdn0hcgx
p5192
I2
sVd055xur
p5193
I1
sVdaxld87
p5194
I1
sVd0spbvy
p5195
I2
sVczjipu7
p5196
I1
sVdsoc7pm
p5197
I1
sVdab0nsl
p5198
I1
sVd2e8jvz
p5199
I1
sVdav6vab
p5200
I1
sVd3oaue8
p5201
I1
sVd2bc9v6
p5202
I1
sVcz6n5xl
p5203
I1
sVd6rdm5r
p5204
I1
sVdkwftbd
p5205
I1
sVdg3jgct
p5206
I1
sVdmtmkbh
p5207
I1
sVddhiuk0
p5208
I1
sVdat1iaa
p5209
I1
sVdjnkhyk
p5210
I1
sVczs1165
p5211
I1
sVd2z0yjo
p5212
I2
sVdcw68h3
p5213
I1
sVd3p3crk
p5214
I1
sVcyso1je
p5215
I1
sVdkqhnrm
p5216
I1
sVdp04egp
p5217
I1
sVd1tokie
p5218
I1
sVd7vjpq9
p5219
I1
sVdinrz1d
p5220
I1
sVd49oxmt
p5221
I1
sVdeqhtfa
p5222
I1
sVde8huc4
p5223
I1
sVd8gq5vd
p5224
I1
sVd8j93i3
p5225
I1
sVd1fox9n
p5226
I2
sVd3i3tsp
p5227
I1
sVdixyfj3
p5228
I1
sVdgj0h1f
p5229
I1
sVd2bgwoa
p5230
I2
sVd05kmeo
p5231
I1
sVd0xt5dk
p5232
I1
sVd9x0oy8
p5233
I1
sVd8kbvm3
p5234
I1
sVdf68tgo
p5235
I2
sVd8j5aou
p5236
I1
sVd4ky5ls
p5237
I1
sVdgm7c5i
p5238
I1
sVdgbk02s
p5239
I1
sVdg4pehq
p5240
I1
sVdho9uad
p5241
I1
sVdb64w6p
p5242
I1
sVdtc4aro
p5243
I1
sVdhq3w1y
p5244
I1
sVdjo9jg2
p5245
I1
sVdezy8nj
p5246
I1
sVd83ztlv
p5247
I1
sVd9lhsff
p5248
I1
sVd4rk1t5
p5249
I1
sVdfq4kzw
p5250
I1
sVdq1at0k
p5251
I1
sVd14pl28
p5252
I1
sVdd3w550
p5253
I1
sVd4uy8ld
p5254
I1
sVdbv2s4q
p5255
I1
sVd0wcm6q
p5256
I1
sVd2uy1pk
p5257
I1
sVds9uwg1
p5258
I1
sVdc87wh8
p5259
I1
sVddnig1u
p5260
I1
sVd4515ek
p5261
I1
sVd5ifomx
p5262
I1
sVd4gish9
p5263
I1
sVd2fscd7
p5264
I1
sVczla22h
p5265
I1
sVd3ctc6r
p5266
I1
sVd4d6jur
p5267
I4
sVdiofl9v
p5268
I3
sVdaarpj2
p5269
I1
sVdol0caj
p5270
I1
sVd6gh1ld
p5271
I1
sVcz304vc
p5272
I1
sVdnqbfq9
p5273
I1
sVd0fgc8x
p5274
I1
sVderph3w
p5275
I1
sVd1m1hge
p5276
I1
sVdct4xpv
p5277
I1
sVdbng1y2
p5278
I1
sVdnm3te4
p5279
I1
sVd2n7piv
p5280
I1
sVded761s
p5281
I1
sVcysqegr
p5282
I2
sVdk0bw9a
p5283
I1
sVdq9494v
p5284
I1
sVdb66a56
p5285
I1
sVd8dm8gr
p5286
I1
sVdkrdmgf
p5287
I1
sVd9yt9ot
p5288
I1
sVcysxyno
p5289
I1
sVdg3rpvb
p5290
I1
sVd0pzza8
p5291
I1
sVd74vmwm
p5292
I1
sVdeq966r
p5293
I1
sVd4w07vx
p5294
I1
sVde8mdbg
p5295
I2
sVd3lggkf
p5296
I1
sVd5i9y0b
p5297
I1
sVd7jzqa6
p5298
I1
sVdfjrxah
p5299
I1
sVd28egpb
p5300
I1
sVd1sp7e0
p5301
I1
sVdk3984t
p5302
I1
sVd07k0wo
p5303
I1
sVd6r4ufu
p5304
I1
sVd50aqy3
p5305
I1
sVd0nwii5
p5306
I2
sVdkokpja
p5307
I1
sVdak56cg
p5308
I1
sVdcpy16w
p5309
I1
sVdimlz70
p5310
I1
sVd0h0lvl
p5311
I1
sVdjy2pr1
p5312
I1
sVcyj2m8p
p5313
I1
sVdqzw89k
p5314
I1
sVczm0vpe
p5315
I1
sVdcviv12
p5316
I1
sVdgonrzq
p5317
I1
sVczbp3u0
p5318
I1
sVdgd7g4v
p5319
I1
sVd5rq6mw
p5320
I1
sVd1tq93e
p5321
I1
sVd3pbraa
p5322
I1
sVd1qe2p2
p5323
I1
sVdho91cl
p5324
I1
sVdfaa9nq
p5325
I1
sVd1w7cbo
p5326
I1
sVdqpz689
p5327
I1
sVd4rg728
p5328
I1
sVdq00dyq
p5329
I1
sVd1725x5
p5330
I1
sVdqnic8g
p5331
I1
sVdglnv70
p5332
I1
sVdcl90oh
p5333
I1
sVdhnt3a9
p5334
I1
sVczxs5hg
p5335
I1
sVdiwncyx
p5336
I1
sVdihacem
p5337
I1
sVdk3abjy
p5338
I1
sVdc02sog
p5339
I1
sVd16u68z
p5340
I1
sVdrxipmu
p5341
I1
sVd8kx6y4
p5342
I1
sVd980dtf
p5343
I3
sVczl0qer
p5344
I1
sVdgm0r3d
p5345
I1
sVdthauuk
p5346
I1
sVdg34ui9
p5347
I1
sVczrxf3n
p5348
I1
sVd5wwn3c
p5349
I1
sVd0c796i
p5350
I1
sVd0il7b0
p5351
I1
sVd5n86ef
p5352
I1
sVddf5pym
p5353
I1
sVdnzzpah
p5354
I1
sVdkw7aal
p5355
I1
sVdbrnxu0
p5356
I1
sVdpp09s8
p5357
I1
sVd9f8wxi
p5358
I1
sVdoh9aq7
p5359
I1
sVdh48m10
p5360
I1
sVd5emqte
p5361
I1
sVddc2f7q
p5362
I2
sVd140jn9
p5363
I1
sVd1fk6ox
p5364
I1
sVcz3e2fn
p5365
I3
sVdoh53b1
p5366
I1
sVcz100r0
p5367
I1
sVdkvfv9m
p5368
I1
sVdfexjdq
p5369
I1
sVd9qyc1d
p5370
I1
sVdc6b7fc
p5371
I1
sVd3uaooh
p5372
I1
sVdgk4k8y
p5373
I1
sVd3w9v09
p5374
I1
sVdkyxhfn
p5375
I1
sVcyrqb5c
p5376
I1
sVda7lkro
p5377
I1
sVd2vqee5
p5378
I1
sVdrhslvt
p5379
I1
sVd1aapyo
p5380
I1
sVdpz08r2
p5381
I1
sVdc1qlzu
p5382
I1
sVdj0p62c
p5383
I1
sVddxeggu
p5384
I1
sVdfycy04
p5385
I1
sVd03d4sk
p5386
I1
sVd65htnv
p5387
I1
sVdixola6
p5388
I1
sVd4j77kd
p5389
I1
sVcyqiwxr
p5390
I1
sVd0sfdc9
p5391
I1
sVd5mpxco
p5392
I1
sVcz8wkx5
p5393
I1
sVczgm0bx
p5394
I1
sVd9lukoy
p5395
I1
sVdpp8ygz
p5396
I1
sVdnxufln
p5397
I1
sVd9d5ftv
p5398
I1
sVd6ruamt
p5399
I1
sVcyqramx
p5400
I1
sVczr1zql
p5401
I1
sVd9jaqmi
p5402
I1
sVd42h6hd
p5403
I1
sVdd29a73
p5404
I1
sVde37tf8
p5405
I1
sVdnunpz7
p5406
I1
sVd0dgn30
p5407
I1
sVd4kc3ns
p5408
I1
sVd9am90w
p5409
I1
sVd2wjyxl
p5410
I1
sVde6mhmp
p5411
I1
sVdcsckiv
p5412
I1
sVdcb3o9v
p5413
I1
sVd358p9u
p5414
I1
sVd22g2gv
p5415
I3
sVd9knhhq
p5416
I1
sVd5b1zhn
p5417
I1
sVd3j0ox4
p5418
I1
sVdn6gr49
p5419
I1
sVd6oi7qv
p5420
I1
sVd00ucrk
p5421
I1
sVdd8lwfl
p5422
I2
sVd8dj654
p5423
I1
sVd2pdrbx
p5424
I1
sVd4b0qw4
p5425
I1
sVde11v2j
p5426
I1
sVdj5vp89
p5427
I1
sVd0qe5fy
p5428
I1
sVdehehox
p5429
I1
sVdn70s85
p5430
I1
sVdd3y419
p5431
I1
sVdf887kd
p5432
I1
sVdnd9pzg
p5433
I1
sVd6b1raq
p5434
I1
sVd1mvs7z
p5435
I1
sVd319sxb
p5436
I1
sVcyp604z
p5437
I1
sVd4kyxjo
p5438
I1
sVdbue7em
p5439
I1
sVdnodtk1
p5440
I1
sVdg76za9
p5441
I1
sVdmna1ht
p5442
I1
sVdiwrb6a
p5443
I2
sVd45cbw8
p5444
I1
sVd9xcdfb
p5445
I1
sVdpjys1a
p5446
I1
sVdewer02
p5447
I1
sVczwabji
p5448
I1
sVdo0sf3e
p5449
I1
sVd547n90
p5450
I1
sVd2k0jth
p5451
I1
sVdi44uoe
p5452
I1
sVdebqkuo
p5453
I1
sVd41co31
p5454
I1
sVdc8rm24
p5455
I1
sVd0h4iwg
p5456
I1
sVd88fgp0
p5457
I1
sVcyst8x5
p5458
I1
sVdjadisr
p5459
I1
sVdnayzsn
p5460
I1
sVd0ip7lz
p5461
I1
sVd85vph5
p5462
I1
sVczad5w0
p5463
I2
sVd2d1put
p5464
I1
sVd4gbyl2
p5465
I4
sVdhrb0re
p5466
I1
sVddulfog
p5467
I1
sVdndrrjw
p5468
I1
sVdacjz51
p5469
I1
sVd29fm9i
p5470
I1
sVd8zd15e
p5471
I1
sVd67phzf
p5472
I1
sVd9p3kq5
p5473
I1
sVda301jo
p5474
I1
sVdt7wnmj
p5475
I1
sVcz3feeb
p5476
I1
sVdnd2c2b
p5477
I1
sVddh65ec
p5478
I1
sVd7pb80q
p5479
I1
sVdd0r1cu
p5480
I1
sVdgb2azg
p5481
I1
sVdhkvt9y
p5482
I1
sVdon9dc5
p5483
I1
sVd791g1i
p5484
I1
sVdc69zih
p5485
I1
sVd2br9cv
p5486
I1
sVdfhkldb
p5487
I1
sVdfe8pnb
p5488
I1
sVd0w2r7t
p5489
I1
sVcyy9ppz
p5490
I2
sVd7sn28y
p5491
I1
sVdcewq2x
p5492
I1
sVdh13e17
p5493
I1
sVdndz0t2
p5494
I1
sVd92k59i
p5495
I1
sVd5tjxa4
p5496
I1
sVd4oudfc
p5497
I1
sVd011xzo
p5498
I1
sVdd71feu
p5499
I2
sVdie124q
p5500
I1
sVdr4zev2
p5501
I1
sVddbtf3t
p5502
I1
sVdeoo8ny
p5503
I1
sVd7mgw9g
p5504
I1
sVda3nnjz
p5505
I1
sVdt4qq42
p5506
I1
sVd2gmvwy
p5507
I1
sVd9ke8ku
p5508
I1
sVdtfqdgj
p5509
I1
sVdpnkihc
p5510
I1
sVdjgmqcn
p5511
I1
sVda2xhai
p5512
I1
sVd3bhygh
p5513
I1
sVdbx395s
p5514
I1
sVczir999
p5515
I1
sVdewy6sc
p5516
I1
sVd5qa6dm
p5517
I1
sVdc7gsib
p5518
I1
sVdn1bnlg
p5519
I2
sVddtuwqh
p5520
I1
sVd754rkr
p5521
I1
sVdfn34p2
p5522
I1
sVdco194a
p5523
I1
sVd8gvtgz
p5524
I1
sVd6pt6od
p5525
I2
sVd5iftj2
p5526
I1
sVdbzvbgz
p5527
I1
sVdh9f58x
p5528
I1
sVdd72xyy
p5529
I2
sVczz84pi
p5530
I1
sVd15tnf0
p5531
I1
sVdqglj7w
p5532
I1
sVd8lyhds
p5533
I1
sVdgmp40z
p5534
I1
sVdg5w9sp
p5535
I1
sVd149c63
p5536
I1
sVd1353rl
p5537
I1
sVdj5aihe
p5538
I2
sVd9swovp
p5539
I1
sVdt8qrtf
p5540
I1
sVdgusck3
p5541
I1
sVd0m6s64
p5542
I1
sVdoyr7jr
p5543
I1
sVdca2b37
p5544
I1
sVcyz1g0c
p5545
I1
sVd8j8fns
p5546
I1
sVd9pmc8j
p5547
I1
sVd3fkb61
p5548
I1
sVdje2nav
p5549
I1
sVd0o6pxe
p5550
I1
sVdgojiym
p5551
I1
sVdejg0hl
p5552
I1
sVdikpimy
p5553
I3
sVd9vmsrv
p5554
I1
sVd3btztq
p5555
I1
sVd4ppmmt
p5556
I1
sVd7i0l49
p5557
I1
sVdimtryd
p5558
I1
sVdd7923l
p5559
I1
sVd3bprou
p5560
I1
sVdobfd84
p5561
I1
sVd72f726
p5562
I3
sVdti42cw
p5563
I1
sVd4jpgis
p5564
I1
sVdiugn1e
p5565
I2
sVd9xrk6v
p5566
I1
sVd6pzvr6
p5567
I1
sVdowwwcv
p5568
I1
sVdoa7s35
p5569
I1
sVd0oal1v
p5570
I1
sVd7tjxcp
p5571
I2
sVdivu208
p5572
I1
sVd1udacl
p5573
I1
sVdqicnjc
p5574
I1
sVdkswsia
p5575
I1
sVdotn20a
p5576
I1
sVd2qdx3d
p5577
I1
sVdt6jji3
p5578
I1
sVdajxspa
p5579
I1
sVds1fsny
p5580
I1
sVd19jtff
p5581
I2
sVd3adgod
p5582
I1
sVdqvbusk
p5583
I1
sVdegmvuc
p5584
I3
sVdsxz7w9
p5585
I1
sVd5j5qf3
p5586
I1
sVcykhjm2
p5587
I1
sVd4nwrgw
p5588
I1
sVd9iil0h
p5589
I1
sVdo8boyn
p5590
I2
sVd8zjb4m
p5591
I1
sVdb0esr2
p5592
I1
sVd2c55uq
p5593
I1
sVdhwcy0q
p5594
I1
sVd6hokiv
p5595
I1
sVcz8ghsk
p5596
I1
sVdcab5oc
p5597
I1
sVd2luctr
p5598
I1
sVd7f67t3
p5599
I1
sVdku4fae
p5600
I1
sVd7qtkpn
p5601
I1
sVdhljbu3
p5602
I1
sVd2m7yiw
p5603
I1
sVdc62n7g
p5604
I1
sVczm0ag8
p5605
I2
sVd7w3wv0
p5606
I1
sVdf29ks5
p5607
I1
sVde6g8tb
p5608
I1
sVdng1rwd
p5609
I1
sVdjoqgvo
p5610
I1
sVdhaxa64
p5611
I1
sVdnqqeml
p5612
I1
sVdbcf1h7
p5613
I1
sVdd5xw9m
p5614
I2
sVdhfixju
p5615
I1
sVdg1psu4
p5616
I1
sVdsg49av
p5617
I1
sVd0b4352
p5618
I1
sVdqwa4vv
p5619
I1
sVd0tm2pf
p5620
I1
sVd0a6xk1
p5621
I1
sVdhjtbwg
p5622
I1
sVdq8cdum
p5623
I1
sVdbobsf5
p5624
I1
sVdpkc6bh
p5625
I1
sVdo1mvsn
p5626
I1
sVd9azo3s
p5627
I1
sVdnhvkqj
p5628
I2
sVd1k5xmo
p5629
I1
sVd4zqeya
p5630
I1
sVd0h9l05
p5631
I1
sVdadwssz
p5632
I1
sVd92qs7a
p5633
I1
sVde7ta2i
p5634
I1
sVd21eo2g
p5635
I1
sVd2vl9ty
p5636
I1
sVd9ex9ku
p5637
I1
sVd61sk1r
p5638
I1
sVd3q7dy1
p5639
I1
sVdcz2r02
p5640
I1
sVd7jvlav
p5641
I1
sVcytzqx5
p5642
I1
sVdnm47z5
p5643
I1
sVd1gjubh
p5644
I1
sVdfxj1rt
p5645
I1
sVd0jlvp8
p5646
I2
sVcyvjcy1
p5647
I1
sVd5rm1ig
p5648
I1
sVderdt7r
p5649
I1
sVdowcbh4
p5650
I1
sVd0s6x7q
p5651
I2
sVczumbzo
p5652
I1
sVd5qvgsb
p5653
I1
sVdrvslj4
p5654
I1
sVdh79nzt
p5655
I1
sVdo3nhuq
p5656
I1
sVcyk9gwk
p5657
I1
sVdpbpiqs
p5658
I1
sVdihh3wg
p5659
I1
sVdn6c9b4
p5660
I1
sVd0nrk5h
p5661
I2
sVd83gg11
p5662
I1
sVdgx1now
p5663
I1
sVde4tln6
p5664
I1
sVd36v3cf
p5665
I2
sVd9fmwqt
p5666
I1
sVd031cq9
p5667
I1
sVd94rm2f
p5668
I1
sVdgzfcu0
p5669
I1
sVdbhmcu1
p5670
I1
sVd3ex09x
p5671
I1
sVdhv6zsr
p5672
I1
sVd3nv94a
p5673
I1
sVd6hm606
p5674
I1
sVd0avg9k
p5675
I1
sVd62m75k
p5676
I1
sVdq2y45r
p5677
I1
sVd9oaxxq
p5678
I1
sVdgk9agi
p5679
I1
sVd5ygrs7
p5680
I1
sVdedxe2a
p5681
I1
sVdoinit3
p5682
I1
sVdhwsvlu
p5683
I1
sVdbdh2c2
p5684
I1
sVd1sodgk
p5685
I1
sVdd5rjuv
p5686
I1
sVdh8dsu8
p5687
I1
sVdhygodv
p5688
I1
sVd010t9j
p5689
I1
sVd5i9z4i
p5690
I1
sVdpbe1zp
p5691
I1
sVd88bfqa
p5692
I1
sVd6w4rq3
p5693
I1
sVd4e3n4c
p5694
I1
sVd7e0j1u
p5695
I1
sVd5bq11u
p5696
I1
sVd2bg3mv
p5697
I1
sVdo1ve4s
p5698
I1
sVdt15wdq
p5699
I1
sVda15xfv
p5700
I1
sVd4hj88z
p5701
I1
sVczc6z5i
p5702
I1
sVdd2o4a1
p5703
I1
sVd8aauhs
p5704
I1
sVd3kkkx5
p5705
I1
sVddawr2y
p5706
I1
sVdel95st
p5707
I1
sVd7slmaj
p5708
I1
sVdbf3nvv
p5709
I1
sVdbwu2ml
p5710
I1
sVd5iv8bp
p5711
I1
sVde92emh
p5712
I1
sVdb0xyt7
p5713
I1
sVdn2ju79
p5714
I1
sVday6atg
p5715
I1
sVd5xectf
p5716
I2
sVd3ujai0
p5717
I1
sVd1vphho
p5718
I1
sVdhzbukf
p5719
I1
sVdhqnr0i
p5720
I1
sVdhmwvx3
p5721
I1
sVdi9efb1
p5722
I1
sVd38t87n
p5723
I1
sVdif1xcf
p5724
I1
sVdqh8ai6
p5725
I1
sVczoxsjn
p5726
I1
sVdsctiha
p5727
I1
sVd6jv5yr
p5728
I2
sVdhd70ck
p5729
I1
sVcyij09u
p5730
I1
sVd90n41o
p5731
I2
sVdb0g81n
p5732
I1
sVdcr18g6
p5733
I1
sVd3hwycm
p5734
I1
sVd26jaif
p5735
I1
sVd5mmzs5
p5736
I1
sVddod92o
p5737
I1
sVdkadcyc
p5738
I1
sVd7yx6hv
p5739
I1
sVd09jpbb
p5740
I1
sVd31o2r2
p5741
I2
sVdos42c4
p5742
I1
sVd69e936
p5743
I1
sVdku06gc
p5744
I1
sVdo60h0n
p5745
I1
sVde3acdl
p5746
I1
sVdkwq07u
p5747
I1
sVdimnh2j
p5748
I1
sVd09i690
p5749
I2
sVd70mwrz
p5750
I2
sVddiuqaj
p5751
I1
sVdcmei1x
p5752
I1
sVdrn3rr5
p5753
I1
sVd5o0h5t
p5754
I1
sVd20ex2y
p5755
I1
sVd9fkbv0
p5756
I2
sVdnx136w
p5757
I1
sVd8xbvjl
p5758
I1
sVd0ulcj0
p5759
I1
sVd9b55fe
p5760
I1
sVd6h9k4x
p5761
I1
sVdfq7lyy
p5762
I1
sVdohcm00
p5763
I1
sVdg2l9ha
p5764
I1
sVddxab7v
p5765
I1
sVczx4fme
p5766
I1
sVdhkjwq3
p5767
I1
sVdgtgggg
p5768
I1
sVd0sj4bl
p5769
I1
sVcyjcvxa
p5770
I1
sVd37us0y
p5771
I1
sVdmk51wk
p5772
I1
sVcz4tiru
p5773
I1
sVdenpuk6
p5774
I2
sVdj54dk9
p5775
I2
sVd2qdk4n
p5776
I2
sVczriz63
p5777
I1
sVdavfypm
p5778
I1
sVdhpcs7i
p5779
I1
sVdflemaf
p5780
I1
sVde1uxst
p5781
I1
sVder5ife
p5782
I1
sVdfltgse
p5783
I1
sVd75md2a
p5784
I1
sVdkm9sl7
p5785
I1
sVdfnm5vj
p5786
I1
sVdctiq9s
p5787
I1
sVd07orus
p5788
I1
sVcyzb3pc
p5789
I1
sVdbtqhk8
p5790
I1
sVdtihg00
p5791
I1
sVdhapxv9
p5792
I1
sVd9mhpb6
p5793
I3
sVd00qj15
p5794
I1
sVdcs4kae
p5795
I2
sVdb7n8gu
p5796
I1
sVdap8aqr
p5797
I1
sVdjo9pbz
p5798
I1
sVd7jnwsf
p5799
I1
sVd5zhjhg
p5800
I4
sVd93x789
p5801
I1
sVd6s793o
p5802
I1
sVdhgjfbc
p5803
I1
sVdp4zrvb
p5804
I1
sVddup3s0
p5805
I1
sVcyrp11n
p5806
I1
sVdbskso1
p5807
I1
sVdivv6ys
p5808
I1
sVd4au4jh
p5809
I1
sVdkn5g84
p5810
I1
sVdgtize9
p5811
I1
sVd0j84l5
p5812
I2
sVdjtx3b9
p5813
I1
sVd0cfczb
p5814
I1
sVdid9da8
p5815
I1
sVdcbfvwe
p5816
I1
sVdb4a696
p5817
I1
sVd2lapld
p5818
I1
sVdbl3ofy
p5819
I1
sVdow36r2
p5820
I1
sVdavgvc9
p5821
I1
sVdb55nex
p5822
I1
sVdap8uqu
p5823
I1
sVcyu94ff
p5824
I1
sVd5dc8vw
p5825
I1
sVdgh5a6z
p5826
I1
sVdft96zz
p5827
I1
sVczits9j
p5828
I1
sVdq5eccu
p5829
I1
sVd1y6y0e
p5830
I1
sVd1rvhhh
p5831
I1
sVcywap05
p5832
I1
sVdsfbomx
p5833
I1
sVd4xcvyg
p5834
I1
sVd6j19w3
p5835
I1
sVd1brtnf
p5836
I1
sVddjp16p
p5837
I1
sVdj6pajo
p5838
I1
sVdmmgq12
p5839
I1
sVcz2adxv
p5840
I1
sVd64m7u8
p5841
I1
sVdjpoo0k
p5842
I1
sVczx0mln
p5843
I1
sVd0f42ru
p5844
I1
sVcz6jjha
p5845
I1
sVd8w7rtw
p5846
I1
sVdpyuh54
p5847
I1
sVdsuh7pw
p5848
I1
sVd07e0v9
p5849
I1
sVdftgquw
p5850
I2
sVd3zt825
p5851
I1
sVd4cztcg
p5852
I1
sVd5rrv2d
p5853
I1
sVdi8i7yj
p5854
I1
sVcyp0muo
p5855
I2
sVds31au0
p5856
I1
sVds9iyz0
p5857
I1
sVdoeb6yr
p5858
I1
sVcyklo9j
p5859
I1
sVdbgx40a
p5860
I1
sVdow3iod
p5861
I1
sVd2snuzd
p5862
I1
sVd5lyb4v
p5863
I1
sVd00q6fi
p5864
I2
sVdtfp0h2
p5865
I2
sVd9hv69s
p5866
I1
sVds00se5
p5867
I1
sVd5juk16
p5868
I1
sVd2mnpa9
p5869
I1
sVd060sbm
p5870
I1
sVd9n5d30
p5871
I1
sVdf30qwc
p5872
I1
sVdevstk8
p5873
I1
sVdqnj68u
p5874
I1
sVdjzyrn9
p5875
I1
sVde28bba
p5876
I1
sVd7gp7c7
p5877
I1
sVd5sezr9
p5878
I1
sVd6uit96
p5879
I1
sVd7qp5il
p5880
I1
sVd56ypk3
p5881
I1
sVd85xlw0
p5882
I1
sVcyzihph
p5883
I1
sVdc6nu7d
p5884
I1
sVdb5b0cv
p5885
I2
sVczyq298
p5886
I1
sVd0mssg7
p5887
I1
sVd0kfhla
p5888
I1
sVdkv4hs9
p5889
I1
sVd69tb5k
p5890
I1
sVd9c1e94
p5891
I1
sVcz2znsl
p5892
I1
sVd1i0nua
p5893
I1
sVd1fbiag
p5894
I1
sVd2osvke
p5895
I1
sVd7moeip
p5896
I1
sVczzwjk8
p5897
I1
sVd4tapw8
p5898
I1
sVdsab93v
p5899
I1
sVdkirw4j
p5900
I1
sVd5gsjnp
p5901
I2
sVdjalvhx
p5902
I1
sVd77tmnv
p5903
I1
sVd15wgor
p5904
I2
sVczxbkp1
p5905
I1
sVdoypblk
p5906
I1
sVdbgv6re
p5907
I1
sVd1fd2cb
p5908
I1
sVcyjli9b
p5909
I2
sVd49qead
p5910
I1
sVd533ukr
p5911
I1
sVdhg5pib
p5912
I1
sVdanj66g
p5913
I1
sVd75nkvx
p5914
I2
sVddhvya6
p5915
I1
sVdnswjqf
p5916
I1
sVdgn2e2w
p5917
I1
sVd9xqdbk
p5918
I1
sVddss72r
p5919
I1
sVd8anq99
p5920
I1
sVd4r0jlm
p5921
I1
sVdqdtgqc
p5922
I1
sVdj3v1rw
p5923
I1
sVd0wyujw
p5924
I1
sVcz0prkm
p5925
I1
sVdb5khx4
p5926
I1
sVdfvkf72
p5927
I1
sVd6j5ge4
p5928
I1
sVdt43cx0
p5929
I1
sVd7nut6p
p5930
I1
sVdneg50g
p5931
I1
sVdbfpxaj
p5932
I1
sVd2bt4dz
p5933
I1
sVd2uje9i
p5934
I1
sVcz8o802
p5935
I2
sVdinsrdl
p5936
I1
sVdbrs2qv
p5937
I1
sVdg3usiq
p5938
I1
sVddga1t2
p5939
I1
sVdkhr3rs
p5940
I1
sVd8h5jb3
p5941
I1
sVdbrtwgd
p5942
I1
sVd88vdlm
p5943
I1
sVd31f8du
p5944
I1
sVdqpyr6y
p5945
I1
sVd6x0p0s
p5946
I1
sVd1qgz3e
p5947
I1
sVdf3o3n4
p5948
I1
sVdk3sokk
p5949
I2
sVdp8t76k
p5950
I1
sVdhda754
p5951
I1
sVdsorsp1
p5952
I1
sVczzpyz0
p5953
I1
sVdaul7k0
p5954
I1
sVdcucw8p
p5955
I1
sVdgh89i0
p5956
I1
sVda1d3fp
p5957
I1
sVddyvuqj
p5958
I1
sVd9kleb4
p5959
I1
sVcz5m9x1
p5960
I1
sVdjcfz9u
p5961
I1
sVdbr5c99
p5962
I1
sVdoj7efe
p5963
I2
sVd3p13ma
p5964
I1
sVdqm0fo6
p5965
I2
sVczgzxkm
p5966
I1
sVd20cdgx
p5967
I1
sVdbgj4er
p5968
I3
sVd5eca0s
p5969
I1
sVdh824tb
p5970
I1
sVd86ys7x
p5971
I1
sVdfknp9d
p5972
I1
sVdguemca
p5973
I1
sVdpdcw0v
p5974
I1
sVcyz6ubh
p5975
I1
sVd7oxo15
p5976
I1
sVd72racp
p5977
I2
sVd5yhp1x
p5978
I1
sVd5c217o
p5979
I1
sVdan3osr
p5980
I1
sVd2mid95
p5981
I1
sVd0ez7pg
p5982
I1
sVd9ag01u
p5983
I1
sVd7ehjhi
p5984
I2
sVdnxhd7g
p5985
I1
sVdghdwl4
p5986
I1
sVd3xnia4
p5987
I1
sVdjpwjf2
p5988
I1
sVdne20in
p5989
I1
sVdjzxwmf
p5990
I1
sVddj9sgk
p5991
I2
sVd03m7pi
p5992
I3
sVd1eacmw
p5993
I1
sVd4gzz8g
p5994
I2
sVdalq5y3
p5995
I1
sVdcuizrs
p5996
I1
sVdgsfnku
p5997
I1
sVdbq35n9
p5998
I2
sVdsonx4n
p5999
I1
sVdnz6h9y
p6000
I1
sVdpxhprf
p6001
I1
sVdn7vn0s
p6002
I1
sVd4lktg9
p6003
I1
sVdoesd07
p6004
I1
sVd504g7h
p6005
I1
sVd3avw7n
p6006
I2
sVczp65i6
p6007
I1
sVdah5ext
p6008
I1
sVdde7rlf
p6009
I2
sVd9p588m
p6010
I1
sVd4rza3r
p6011
I1
sVdfcfmed
p6012
I1
sVd1bfpzf
p6013
I1
sVdh1v9li
p6014
I2
sVdh0nd6v
p6015
I1
sVdfvj854
p6016
I1
sVd3j8yez
p6017
I1
sVdozech8
p6018
I1
sVd00k8yx
p6019
I1
sVd5okhdx
p6020
I1
sVcyx2c3c
p6021
I1
sVd2hse9y
p6022
I1
sVdeh0ej5
p6023
I1
sVdboxmy7
p6024
I1
sVdbihx26
p6025
I1
sVdd40acf
p6026
I4
sVddpkhgd
p6027
I1
sVdotns9q
p6028
I1
sVd4m22k8
p6029
I1
sVd4apzuh
p6030
I2
sVd7owadh
p6031
I1
sVd30nmgf
p6032
I1
sVd4gestl
p6033
I2
sVd0icfmp
p6034
I1
sVdau0610
p6035
I1
sVd640f6g
p6036
I1
sVd7fijt4
p6037
I1
sVd1utyhb
p6038
I1
sVd2ww39p
p6039
I2
sVdb71xuk
p6040
I1
sVdjsqxqx
p6041
I1
sVdgt2yn4
p6042
I3
sVdii6k5v
p6043
I2
sVdd9qnzb
p6044
I1
sVddlidhx
p6045
I1
sVd5iidwv
p6046
I1
sVdeqh416
p6047
I1
sVd8tqxvs
p6048
I1
sVdazki7l
p6049
I1
sVd1rulrl
p6050
I1
sVdhja9y5
p6051
I1
sVd9yu0rk
p6052
I1
sVdc9g72e
p6053
I1
sVdcy8pm0
p6054
I3
sVda8jfff
p6055
I1
sVdi6nm8r
p6056
I1
sVdjli0l1
p6057
I2
sVdjdf0oc
p6058
I1
sVd3nhlxr
p6059
I2
sVd6h8zjn
p6060
I1
sVdpykm03
p6061
I1
sVdhttfkv
p6062
I1
sVd04gznb
p6063
I1
sVdn64ifq
p6064
I1
sVdsm6zi9
p6065
I1
sVdmhd8gr
p6066
I1
sVd3bdz0u
p6067
I1
sVdpuekw0
p6068
I1
sVczhsweo
p6069
I1
sVcz176xu
p6070
I1
sVddzofmc
p6071
I1
sVd2wirih
p6072
I1
sVdhy7bf6
p6073
I1
sVds7pnc0
p6074
I1
sVdelwuqc
p6075
I1
sVdqn57m7
p6076
I1
sVd89bv68
p6077
I1
sVcyt12af
p6078
I1
sVdqu93qe
p6079
I1
sVde2gbmi
p6080
I1
sVdqsmbqw
p6081
I3
sVdobt55g
p6082
I1
sVcztqvup
p6083
I1
sVdol2v0i
p6084
I2
sVd8o25ic
p6085
I1
sVdde3e4w
p6086
I1
sVdn1vmdt
p6087
I1
sVd2rnsh7
p6088
I1
sVdhymofh
p6089
I1
sVd8y1a5r
p6090
I1
sVd5hc2g3
p6091
I1
sVd9btfmg
p6092
I2
sVd19fh16
p6093
I1
sVde20284
p6094
I1
sVd8k5u93
p6095
I1
sVd27oqzd
p6096
I1
sVdio6fgc
p6097
I1
sVdcyclmu
p6098
I1
sVde5jy40
p6099
I1
sVdfyv61r
p6100
I1
sVdq9w9f6
p6101
I1
sVd1ys3kp
p6102
I1
sVdeunaa1
p6103
I1
sVde6aem8
p6104
I1
sVddklas0
p6105
I1
sVdk6gfbg
p6106
I1
sVdjwkfdf
p6107
I1
sVddxbz6p
p6108
I1
sVdn63fdn
p6109
I1
sVczpp7zw
p6110
I1
sVds8xqia
p6111
I1
sVd5gjj93
p6112
I1
sVd0eoq9g
p6113
I2
sVdduq4cc
p6114
I1
sVdc8ydld
p6115
I1
sVdoyzb1e
p6116
I1
sVddm5x0s
p6117
I1
sVdpyxunv
p6118
I1
sVdq1y9nx
p6119
I1
sVcytci6j
p6120
I1
sVdbcu74k
p6121
I1
sVdetxxbd
p6122
I1
sVd8ol2ad
p6123
I1
sVdjm37x9
p6124
I1
sVdbfwpu9
p6125
I2
sVdggsp99
p6126
I1
sVcymq8nk
p6127
I1
sVdehwn30
p6128
I2
sVdk0ftwk
p6129
I1
sVdahxiah
p6130
I1
sVdaw2j9x
p6131
I1
sVd5w4udg
p6132
I1
sVdettuyy
p6133
I2
sVdoexms3
p6134
I1
sVd02u2af
p6135
I1
sVddo9fpj
p6136
I1
sVdbaszmy
p6137
I1
sVdgujq5o
p6138
I1
sVdeu5z8m
p6139
I1
sVd0tc4t6
p6140
I1
sVdndspnt
p6141
I1
sVd1n7ydo
p6142
I2
sVd7sb2jr
p6143
I1
sVddkfkcl
p6144
I1
sVd4uf56b
p6145
I1
sVdsmc28b
p6146
I1
sVd30idcn
p6147
I1
sVd5motbr
p6148
I1
sVdc4a9mu
p6149
I1
sVdimy7oi
p6150
I1
sVdhs3he0
p6151
I1
sVd4kzw4f
p6152
I1
sVczjqgzy
p6153
I1
sVdrnciuh
p6154
I1
sVdb99uq4
p6155
I2
sVd7j9utd
p6156
I1
sVdo3wip9
p6157
I1
sVdizk6hx
p6158
I1
sVd79i4s6
p6159
I1
sVdt42djn
p6160
I1
sVd70m54r
p6161
I1
sVd3trkfj
p6162
I1
sVdq049zn
p6163
I1
sVdhna9no
p6164
I1
sVdflptp4
p6165
I1
sVdfxilem
p6166
I1
sVd5r1myj
p6167
I1
sVda1kde1
p6168
I1
sVdh6oapd
p6169
I1
sVd84qhon
p6170
I1
sVdspalux
p6171
I1
sVd75isw8
p6172
I1
sVd12c5c0
p6173
I3
sVd3pbje3
p6174
I2
sVds4u5cp
p6175
I1
sVdcbqc5e
p6176
I1
sVcyv12f6
p6177
I2
sVdcdn5px
p6178
I1
sVdakir0s
p6179
I1
sVd0dxg9p
p6180
I1
sVd48cij5
p6181
I1
sVdbfehc1
p6182
I1
sVd01hqk7
p6183
I1
sVddrs7rl
p6184
I1
sVdgpxf9m
p6185
I1
sVcyx3av8
p6186
I1
sVd413rtx
p6187
I1
sVd4dquz8
p6188
I1
sVdifxpcj
p6189
I1
sVda0r0do
p6190
I1
sVdii6vfa
p6191
I1
sVddczkbp
p6192
I1
sVdeye834
p6193
I2
sVd276bjz
p6194
I1
sVddwpf81
p6195
I1
sVdo5qgw2
p6196
I1
sVdgwipvs
p6197
I1
sVd9aznge
p6198
I1
sVdeerjf4
p6199
I1
sVdq1hmho
p6200
I1
sVdbity2b
p6201
I1
sVczyxxix
p6202
I1
sVd5ys38u
p6203
I1
sVdeumy3x
p6204
I1
sVddjg6ik
p6205
I1
sVd40ic05
p6206
I1
sVdn3nroh
p6207
I1
sVd00q4yq
p6208
I2
sVd7qanor
p6209
I2
sVd11m4nl
p6210
I1
sVdp3771y
p6211
I1
sVd3gskzq
p6212
I1
sVdmrr1rp
p6213
I1
sVdbvfurp
p6214
I1
sVd8skxy5
p6215
I1
sVdjbycca
p6216
I1
sVd20x6oa
p6217
I1
sVdst3ajs
p6218
I1
sVdgao7v3
p6219
I1
sVd9fr336
p6220
I1
sVczq5wsl
p6221
I1
sVcyzqlst
p6222
I1
sVd159ezw
p6223
I1
sVd1w47tv
p6224
I2
sVd0df8ib
p6225
I1
sVd10xym1
p6226
I1
sVd0h9b9x
p6227
I1
sVdc0jqj0
p6228
I1
sVdgkbilp
p6229
I1
sVdhc2mhe
p6230
I2
sVd1j1eri
p6231
I1
sVde9587c
p6232
I1
sVdau2ko5
p6233
I1
sVd657bk3
p6234
I1
sVdavfuhb
p6235
I1
sVd14ofu3
p6236
I1
sVd7svesp
p6237
I1
sVd05uhzm
p6238
I1
sVdhpk5nb
p6239
I1
sVdc09pli
p6240
I1
sVd6p27aj
p6241
I1
sVd3aofyy
p6242
I1
sVd7oufcj
p6243
I1
sVcz7nusc
p6244
I1
sVdogdmk3
p6245
I1
sVcyjipg1
p6246
I1
sVdk91d6d
p6247
I1
sVd698phk
p6248
I1
sVd6qitjo
p6249
I1
sVd25welj
p6250
I1
sVdmzj12f
p6251
I1
sVdh0nlkn
p6252
I1
sVcyii6cj
p6253
I1
sVd5q661s
p6254
I1
sVdpg0ye2
p6255
I1
sVdpvufg7
p6256
I1
sVdcaejfr
p6257
I1
sVdt0d1a3
p6258
I1
sVdb6vop8
p6259
I1
sVd2dkm09
p6260
I1
sVd8vfi83
p6261
I1
sVdf5ehod
p6262
I1
sVd06d5bz
p6263
I1
sVd4v72s5
p6264
I1
sVdr9p55r
p6265
I1
sVdhk0zcl
p6266
I1
sVdpy7rb0
p6267
I1
sVd8njsol
p6268
I1
sVd6ljgy0
p6269
I1
sVdd42lrg
p6270
I1
sVdctrnz2
p6271
I1
sVdeewnh3
p6272
I1
sVd6yi1hl
p6273
I1
sVddl32j6
p6274
I1
sVdj6hkl9
p6275
I1
sVczxp38c
p6276
I1
sVd7d1wpi
p6277
I2
sVcz7keh6
p6278
I1
sVcytb69d
p6279
I2
sVdorlfdi
p6280
I1
sVd92jt6z
p6281
I1
sVdcylhiu
p6282
I1
sVd46tfid
p6283
I1
sVdknzcqy
p6284
I1
sVcz57wd1
p6285
I1
sVdh4zs66
p6286
I1
sVdg6iami
p6287
I1
sVcyn7a2d
p6288
I1
sVdqti89t
p6289
I1
sVddovnn6
p6290
I1
sVdagv4iu
p6291
I1
sVd5flrih
p6292
I1
sVd2t2uto
p6293
I1
sVd01onut
p6294
I1
sVczpkm87
p6295
I1
sVd4nkpl4
p6296
I1
sVdimm77q
p6297
I1
sVd1wobeb
p6298
I1
sVd8ruozs
p6299
I1
sVd0zr6ke
p6300
I1
sVd0pywt8
p6301
I1
sVdkigilm
p6302
I1
sVd6iqqfb
p6303
I1
sVd0qv4h3
p6304
I1
sVd4g00t1
p6305
I2
sVd1fi8ee
p6306
I1
sVdjh040v
p6307
I1
sVd4k2oe9
p6308
I2
sVd5wudlh
p6309
I1
sVcyt9zqx
p6310
I1
sVcyi9s9l
p6311
I1
sVd1v00vm
p6312
I1
sVdjoplk5
p6313
I1
sVd0rf0yf
p6314
I1
sVd1avyps
p6315
I1
sVdew4ibd
p6316
I1
sVdfy686i
p6317
I1
sVd00to8b
p6318
I1
sVd5zkool
p6319
I1
sVddx8pe5
p6320
I1
sVdg4thrj
p6321
I1
sVd0sxzn5
p6322
I1
sVdjaxaep
p6323
I1
sVdsotgrx
p6324
I1
sVdopt4sr
p6325
I1
sVd8lp0ag
p6326
I1
sVds9sz7t
p6327
I2
sVdqdf1oc
p6328
I1
sVdkuexqq
p6329
I1
sVdn629cl
p6330
I1
sVdkpddy2
p6331
I1
sVd6ljde7
p6332
I1
sVdg1vil3
p6333
I1
sVd4by4bo
p6334
I3
sVdmyqlgb
p6335
I1
sVd5ntwxe
p6336
I2
sVd17n5ji
p6337
I1
sVd5lqe6l
p6338
I1
sVdkpynnt
p6339
I1
sVdd4ofe8
p6340
I1
sVdeq7b7p
p6341
I1
sVcyzuor1
p6342
I1
sVdfga4cp
p6343
I1
sVdfyjbdn
p6344
I1
sVd08kivr
p6345
I1
sVdcfzsnz
p6346
I1
sVdnvtfo3
p6347
I1
sVd8g5g6h
p6348
I1
sVd4flqy9
p6349
I1
sVddi4xmc
p6350
I1
sVd89gg25
p6351
I1
sVdfghof2
p6352
I1
sVd6d272t
p6353
I1
sVd4152jk
p6354
I1
sVdo7ttb0
p6355
I3
sVdhdu7jk
p6356
I1
sVd5cti0a
p6357
I1
sVdbwz7c8
p6358
I1
sVdb2iria
p6359
I1
sVczq5c24
p6360
I1
sVdrvczzh
p6361
I1
sVdnlrd9k
p6362
I1
sVd5uwwtf
p6363
I1
sVdkd6j2n
p6364
I1
sVdeqy7ct
p6365
I1
sVda8uni8
p6366
I1
sVd74c2fo
p6367
I1
sVdo8wqk4
p6368
I1
sVdb0xdmw
p6369
I1
sVcyo0ib0
p6370
I1
sVdo6mwws
p6371
I1
sVdhnzkoe
p6372
I1
sVdrp01p1
p6373
I1
sVdbjah4n
p6374
I1
sVdg9fk6b
p6375
I2
sVdh1xmu9
p6376
I1
sVdgo8is6
p6377
I3
sVdahqwv3
p6378
I1
sVdfbnfp5
p6379
I1
sVddzkj9v
p6380
I2
sVdf9ajgy
p6381
I1
sVdimd1ya
p6382
I1
sVd1hvbbu
p6383
I1
sVd1h992u
p6384
I1
sVd52tf23
p6385
I1
sVd29vkft
p6386
I1
sVdpqrar7
p6387
I1
sVdcba381
p6388
I1
sVdhsh9ke
p6389
I1
sVdi3f5v1
p6390
I1
sVd055twu
p6391
I1
sVd3buebl
p6392
I1
sVd5pgbrj
p6393
I1
sVd1cj82l
p6394
I1
sVdpc46cf
p6395
I1
sVcyilw51
p6396
I1
sVd9vq53o
p6397
I2
sVczvv0lh
p6398
I1
sVcywbvk4
p6399
I1
sVd055q7l
p6400
I1
sVd6kv90a
p6401
I2
sVdpxfg53
p6402
I1
sVd8hy66t
p6403
I1
sVd83ch1x
p6404
I1
sVd36u1qy
p6405
I2
sVcysglxq
p6406
I2
sVd4xjbmp
p6407
I1
sVdazwso5
p6408
I1
sVd6mruhx
p6409
I1
sVczh9gpb
p6410
I1
sVdqyxmr6
p6411
I2
sVdrefwd9
p6412
I1
sVd5ax88h
p6413
I1
sVd7qihja
p6414
I1
sVdam36qd
p6415
I1
sVdc1pj0h
p6416
I1
sVdjcvcuc
p6417
I1
sVd14hga6
p6418
I1
sVd741idi
p6419
I1
sVd13e4hp
p6420
I1
sVd3c72s9
p6421
I1
sVd0fi3lv
p6422
I1
sVdpjr90c
p6423
I1
sVd12i9sa
p6424
I1
sVczjx8qv
p6425
I1
sVdj2lf3m
p6426
I1
sVd5blc1x
p6427
I2
sVcyk7s2k
p6428
I1
sVdg9svmn
p6429
I1
sVd4qhog0
p6430
I1
sVdkxcalj
p6431
I1
sVdgj868p
p6432
I1
sVdryqeim
p6433
I2
sVdckfl8o
p6434
I1
sVd1263s4
p6435
I2
sVdovdq20
p6436
I1
sVdkqyof6
p6437
I1
sVd4e17h8
p6438
I1
sVdj55g3n
p6439
I1
sVds0hy47
p6440
I1
sVdbpy3zd
p6441
I1
sVdcnwdev
p6442
I1
sVdpt2ha4
p6443
I2
sVd1zd2uz
p6444
I1
sVd6osm01
p6445
I1
sVd369quk
p6446
I1
sVd1jjodx
p6447
I1
sVdd6ke8c
p6448
I1
sVddop7sg
p6449
I1
sVd075j0s
p6450
I1
sVdav56ob
p6451
I1
sVddwmm8k
p6452
I1
sVdnelv5n
p6453
I1
sVd2l8y8g
p6454
I1
sVdb0syn6
p6455
I1
sVd2l5fhz
p6456
I1
sVdcjw6px
p6457
I1
sVd04wrkf
p6458
I2
sVda2rjci
p6459
I1
sVd5qb6ye
p6460
I1
sVdrg0pzl
p6461
I1
sVd0y4u23
p6462
I1
sVcyt6nx7
p6463
I1
sVdcblj6z
p6464
I1
sVdfwqp2s
p6465
I1
sVd4ie8ke
p6466
I1
sVdtiwfhk
p6467
I1
sVd0xn6ge
p6468
I1
sVdj21djn
p6469
I1
sVczdnuj0
p6470
I1
sVd4geovt
p6471
I1
sVdhseswy
p6472
I1
sVdi0nca8
p6473
I1
sVd26i1st
p6474
I1
sVderuibm
p6475
I1
sVdeqh7ww
p6476
I3
sVd2n941l
p6477
I1
sVdafn7z5
p6478
I1
sVczvsjjd
p6479
I1
sVdn9gx6i
p6480
I1
sVdquluwr
p6481
I1
sVdca6cxp
p6482
I1
sVd2n809g
p6483
I2
sVcykduwu
p6484
I1
sVdduvyhn
p6485
I1
sVd688kt8
p6486
I1
sVd8ykf37
p6487
I1
sVdc566xn
p6488
I1
sVd9zgf19
p6489
I2
sVd8o834k
p6490
I1
sVdjebybr
p6491
I1
sVdcjbfas
p6492
I1
sVd9cq4t8
p6493
I1
sVddaol7z
p6494
I1
sVcztg2im
p6495
I3
sVczb4od5
p6496
I1
sVd5vkmm1
p6497
I1
sVd4vfeg3
p6498
I1
sVdtcyufh
p6499
I1
sVczzsqn2
p6500
I1
sVd48cob7
p6501
I1
sVdpktkdj
p6502
I1
sVdbkrdmi
p6503
I1
sVdhn48p1
p6504
I1
sVcz5r944
p6505
I1
sVda1gzmq
p6506
I1
sVd4cwfp2
p6507
I1
sVd0ema4b
p6508
I1
sVd4ysb1o
p6509
I1
sVdriih9f
p6510
I1
sVdmhjard
p6511
I1
sVd1upsvp
p6512
I2
sVcz7cklm
p6513
I1
sVderdny8
p6514
I1
sVd3davfx
p6515
I2
sVdjdtxon
p6516
I1
sVd8dk8m1
p6517
I1
sVdtczx0t
p6518
I1
sVdccb24h
p6519
I1
sVdpyrtqa
p6520
I1
sVda51mx3
p6521
I1
sVd0zs04m
p6522
I1
sVdcdsc5l
p6523
I2
sVczk7lsu
p6524
I1
sVd9yugg8
p6525
I1
sVd2pjw22
p6526
I1
sVdfj5z5p
p6527
I1
sVdbczl9b
p6528
I1
sVdh1c2a9
p6529
I1
sVdbcl8es
p6530
I3
sVd2uuk9t
p6531
I1
sVcys0zo6
p6532
I2
sVdqj20wu
p6533
I1
sVdnh1kzv
p6534
I1
sVdb5b7nx
p6535
I1
sVd19prfd
p6536
I1
sVdj0nbl7
p6537
I1
sVd0o9bj3
p6538
I1
sVde3w090
p6539
I1
sVdi2gqx3
p6540
I1
sVdrpv85l
p6541
I2
sVd408741
p6542
I1
sVde7sn2h
p6543
I1
sVcyls3zg
p6544
I1
sVdopn2be
p6545
I1
sVdeeki4v
p6546
I1
sVde5fhw9
p6547
I2
sVdcuggap
p6548
I1
sVd5nlnr9
p6549
I1
sVdi3dxbt
p6550
I1
sVd3655my
p6551
I1
sVdgfwo50
p6552
I1
sVd0ixef9
p6553
I1
sVczlotew
p6554
I1
sVd80jpxj
p6555
I1
sVdazbvtq
p6556
I1
sVdil2w88
p6557
I1
sVd2mgc5j
p6558
I1
sVcz5v8mv
p6559
I1
sVdemqexk
p6560
I1
sVd4ybpa1
p6561
I1
sVdg5fprm
p6562
I1
sVd2jl1bs
p6563
I1
sVd1fgu0g
p6564
I1
sVd60uu6w
p6565
I2
sVdhtthaj
p6566
I1
sVdk2uhux
p6567
I1
sVdiuy21b
p6568
I1
sVczx0ptv
p6569
I1
sVd6uetwk
p6570
I1
sVdqgk4bb
p6571
I1
sVd2dwl9g
p6572
I1
sVdatdblw
p6573
I1
sVdaft0cb
p6574
I1
sVdbapmur
p6575
I1
sVdta42on
p6576
I1
sVdcnl0xl
p6577
I1
sVd18yyci
p6578
I2
sVdmnbuf3
p6579
I1
sVdtcfufa
p6580
I1
sVdkeg2fv
p6581
I1
sVd8gx1q0
p6582
I1
sVdf46ihh
p6583
I1
sVdn4e2s3
p6584
I1
sVd1qsie3
p6585
I1
sVd4o7ziv
p6586
I1
sVdjzgzwl
p6587
I1
sVd3venu1
p6588
I1
sVdaitfqy
p6589
I1
sVd6rsvir
p6590
I1
sVd7rizv5
p6591
I1
sVdsgqeh0
p6592
I1
sVd1ghq60
p6593
I1
sVczh13id
p6594
I1
sVdfp6iwa
p6595
I1
sVdkc0ao1
p6596
I1
sVdkdse6c
p6597
I1
sVdqmdwin
p6598
I1
sVds1dtvp
p6599
I1
sVd57ojj9
p6600
I1
sVdjfn5hp
p6601
I1
sVdmlinbu
p6602
I1
sVd3kja25
p6603
I1
sVd2wxayz
p6604
I1
sVd4pqswf
p6605
I1
sVd4b816g
p6606
I1
sVddyn1es
p6607
I1
sVdnaxpbq
p6608
I1
sVdef91sm
p6609
I1
sVczweh07
p6610
I1
sVd0o9uby
p6611
I1
sVdi9wcrn
p6612
I1
sVd0uowe4
p6613
I2
sVdn8954k
p6614
I1
sVczzgyhd
p6615
I1
sVcyvhcqv
p6616
I1
sVczsi0be
p6617
I1
sVd42mq09
p6618
I1
sVd9qvqct
p6619
I1
sVd9hcp8j
p6620
I1
sVd9xqvst
p6621
I1
sVdhgo524
p6622
I1
sVd32hz97
p6623
I1
sVd6w3mwk
p6624
I1
sVdekguy3
p6625
I1
sVcyljxjx
p6626
I1
sVdbggbbv
p6627
I1
sVd8d7gs1
p6628
I1
sVdfn0f5z
p6629
I1
sVdfny3fw
p6630
I1
sVd7vwon5
p6631
I1
sVd33beas
p6632
I1
sVda2chsp
p6633
I1
sVdaf3tvl
p6634
I2
sVdbxz8gv
p6635
I2
sVd859ojz
p6636
I1
sVdr7yvr7
p6637
I1
sVd0h30or
p6638
I1
sVdbw5wk8
p6639
I1
sVd10o8hf
p6640
I1
sVdfnc3zu
p6641
I1
sVd96gioh
p6642
I1
sVdc8yoey
p6643
I1
sVd2a48ce
p6644
I1
sVdnehhgp
p6645
I1
sVddp5cfu
p6646
I1
sVd7nrxma
p6647
I1
sVdcdlxle
p6648
I1
sVd6vov9a
p6649
I1
sVd1zygmr
p6650
I1
sVdh8fzoa
p6651
I1
sVdgwwbwv
p6652
I1
sVdtfbaqw
p6653
I1
sVd531goq
p6654
I1
sVd0hhn5h
p6655
I1
sVd08p81o
p6656
I1
sVdagc50j
p6657
I1
sVd8ir9dh
p6658
I1
sVcz9eznb
p6659
I1
sVcyjpflv
p6660
I1
sVd7jz77p
p6661
I1
sVdfoncc4
p6662
I1
sVdqg2xi1
p6663
I1
sVdpq3xu3
p6664
I1
sVdrv5zqc
p6665
I1
sVd8r7ops
p6666
I1
sVd9phiq0
p6667
I1
sVczmppm5
p6668
I1
sVdfwuh1o
p6669
I2
sVd26a3ku
p6670
I1
sVd4rnjr7
p6671
I3
sVdckajdf
p6672
I1
sVdkbpd51
p6673
I1
sVd3wedbk
p6674
I2
sVd8a0shj
p6675
I1
sVd0ajjnr
p6676
I1
sVd0ohklk
p6677
I1
sVcz6625g
p6678
I1
sVdbzqztf
p6679
I1
sVdh9y05c
p6680
I1
sVdooi0qx
p6681
I1
sVd7c3knk
p6682
I2
sVd8suvnp
p6683
I1
sVdfn7ov9
p6684
I1
sVda8hgzi
p6685
I1
sVdsncaxg
p6686
I1
sVdqmn7gz
p6687
I1
sVdorm0js
p6688
I1
sVdjik9fa
p6689
I1
sVdmhzo75
p6690
I2
sVdex10tk
p6691
I1
sVd7e3qch
p6692
I1
sVd1b8bzz
p6693
I1
sVdcexve4
p6694
I1
sVd3v6txo
p6695
I1
sVdqahuxf
p6696
I1
sVdh5zbcx
p6697
I1
sVdg9t7iq
p6698
I1
sVd0ndyyt
p6699
I1
sVdjfw9g6
p6700
I1
sVdg7smgp
p6701
I1
sVdjskbjo
p6702
I1
sVddbxvmr
p6703
I1
sVd82otx6
p6704
I1
sVda8jgwd
p6705
I1
sVdsq2we3
p6706
I1
sVd7r9vg8
p6707
I1
sVdh49oca
p6708
I1
sVdjb1est
p6709
I2
sVditjyu2
p6710
I1
sVdab087y
p6711
I1
sVdq35fq8
p6712
I1
sVdhhc923
p6713
I1
sVdedvvqz
p6714
I1
sVdbvvq7u
p6715
I1
sVdp93kdw
p6716
I1
sVd97ruvd
p6717
I1
sVdti7ku0
p6718
I2
sVd95ltoq
p6719
I1
sVdjuyu2j
p6720
I1
sVdsdmpxn
p6721
I1
sVd92w7da
p6722
I1
sVd3g968p
p6723
I1
sVdr6qg66
p6724
I2
sVd8o86zl
p6725
I2
sVdg3ad32
p6726
I2
sVdbuk9yu
p6727
I1
sVcz5fdk7
p6728
I1
sVdbmp70v
p6729
I1
sVcz595vm
p6730
I1
sVd1k4hmg
p6731
I1
sVd1jmjk0
p6732
I1
sVdb0hput
p6733
I1
sVdbepd2v
p6734
I1
sVdn75acx
p6735
I1
sVdc9sm2c
p6736
I1
sVd6tqu2c
p6737
I1
sVd9e72yj
p6738
I1
sVczgga2j
p6739
I1
sVdh4khlc
p6740
I1
sVddljhzf
p6741
I1
sVd5a4fc6
p6742
I1
sVd82d4ae
p6743
I2
sVd05x6s3
p6744
I1
sVdjyi74f
p6745
I1
sVd0knt9q
p6746
I1
sVd1zvpis
p6747
I1
sVcznwnon
p6748
I1
sVczgqtx1
p6749
I1
sVd61i49i
p6750
I1
sVczrn4kw
p6751
I1
sVd1ptakq
p6752
I1
sVdj33wsm
p6753
I1
sVdk4mmqr
p6754
I1
sVda0i4h4
p6755
I1
sVd1jaw5g
p6756
I1
sVdq08w77
p6757
I2
sVcyvd6xl
p6758
I1
sVd5wsc4o
p6759
I1
sVd4kp9er
p6760
I1
sVdindp66
p6761
I1
sVd553gcy
p6762
I1
sVd73ep98
p6763
I1
sVd4u2beu
p6764
I1
sVdmqsery
p6765
I1
sVd8mfifu
p6766
I1
sVdi58i59
p6767
I1
sVcyxsdt0
p6768
I1
sVd16jb0q
p6769
I1
sVd151xi4
p6770
I1
sVd4kkm4e
p6771
I1
sVd2x4ft3
p6772
I1
s.