(dp0
Vdjiq5xe
p1
I1
sVdjllh42
p2
I1
sVczpc031
p3
I1
sVczyeskr
p4
I1
sVczvcc1p
p5
I1
sVdji98kq
p6
I1
sVdje4yw3
p7
I1
sVdawhw1s
p8
I1
sVd3r0f87
p9
I1
sVdeu5wzx
p10
I1
sVddetfgm
p11
I1
sVddh0c7h
p12
I1
sVdbm3vdi
p13
I1
sVczcd7aq
p14
I1
sVd731h9g
p15
I1
sVdg2i7jg
p16
I1
sVd6mn3cj
p17
I1
sVdffft6c
p18
I1
sVdi24lhs
p19
I1
sVd5dnyti
p20
I1
sVd3td7fl
p21
I1
sVddzgy0y
p22
I1
sVdms3j9q
p23
I1
sVde33rcx
p24
I2
sVdj0lodk
p25
I1
sVdgvxgmz
p26
I1
sVd6ukwdm
p27
I1
sVd7m26lk
p28
I1
sVd7mmltv
p29
I1
sVdp30lcw
p30
I1
sVd5fljuk
p31
I1
sVd0l7q98
p32
I1
sVcz3n51o
p33
I1
sVd07e7eg
p34
I1
sVd518a7h
p35
I1
sVd6gkbat
p36
I1
sVde6mrem
p37
I1
sVcyk2bas
p38
I1
sVdfgkys5
p39
I1
sVdpem8qe
p40
I1
sVd6h24mi
p41
I1
sVd8iwfgo
p42
I1
sVdahb5po
p43
I1
sVdbulo9a
p44
I1
sVdkfq2jm
p45
I1
sVd1wkrhp
p46
I1
sVdizipyo
p47
I1
sVdgeln8y
p48
I1
sVdijt1na
p49
I1
sVdbd5kw2
p50
I1
sVdgw1kmd
p51
I2
sVd3f39z0
p52
I1
sVdfoqksu
p53
I1
sVdq2sevg
p54
I2
sVdg2nel3
p55
I1
sVdcauumk
p56
I1
sVd6rg88d
p57
I1
sVd06dpn5
p58
I1
sVdj6rf77
p59
I1
sVdmyzg9d
p60
I1
sVd098fjj
p61
I1
sVczz9h7x
p62
I1
sVdbioqx0
p63
I1
sVd03p1gu
p64
I2
sVdhay75y
p65
I1
sVdtczx0t
p66
I1
sVd0z5qmu
p67
I1
sVd3pi5gc
p68
I1
sVddr4a6t
p69
I1
sVd93fzpz
p70
I1
sVd036vd8
p71
I1
sVd83g8l4
p72
I1
sVcyyzwue
p73
I1
sVdkmimc0
p74
I1
sVd1rufb2
p75
I2
sVd4lah5s
p76
I1
sVdboiv8q
p77
I1
sVdmyx5dz
p78
I1
sVdetwa9n
p79
I1
s.