(dp0
Vczwa98t
p1
I1
sVczmaxp7
p2
I1
sVd0c2ej1
p3
I1
sVd72qu5h
p4
I1
sVdhxq3wh
p5
I1
sVdazvoq7
p6
I1
sVdnvmk7r
p7
I1
sVdnkrxuv
p8
I1
sVd7bwp8w
p9
I1
sVdrc0es9
p10
I1
sVd72my9a
p11
I1
sVdg73t3k
p12
I1
sVdh2zjhr
p13
I1
sVdnkrn6g
p14
I1
sVd6xejlh
p15
I1
sVdn79r5i
p16
I1
sVd056dwk
p17
I1
s.