(dp0
Vdd87zvu
p1
I1
sVd3xay9d
p2
I1
sVdp7ut8f
p3
I1
sVcywx6yq
p4
I1
sVd0lhbeg
p5
I1
sVdh58ftw
p6
I1
sVdpa5xcx
p7
I1
sVd382q1r
p8
I1
sVdktijhj
p9
I1
sVd2ki1za
p10
I2
sVd36yv2a
p11
I1
sVdfbci1a
p12
I1
sVdkzk6qn
p13
I1
sVd49zdlm
p14
I1
sVd3q2rjv
p15
I1
sVd0zos0w
p16
I1
sVd0tju3o
p17
I1
sVd2k7ljf
p18
I1
s.