(dp0
Vcyj8qp4
p1
I1
s.(dp0
Vcyj8qp4
p1
I1
sVcyjbf5g
p2
I1
s.(dp0
Vcyj8qp4
p1
I1
sVcykrtii
p2
I1
s.(dp0
Vcyj8qp4
p1
I1
sVcykrtii
p2
I1
s.(dp0
Vcyj8qp4
p1
I1
sVcymoor7
p2
I1
s.(dp0
Vcyj8qp4
p1
I1
sVcyp25ui
p2
I1
s.(dp0
Vcyj8qp4
p1
I1
sVcysl0ol
p2
I1
s.(dp0
Vcyj8qp4
p1
I1
sVcz03kwf
p2
I1
s.(dp0
Vcyj8qp4
p1
I1
sVcz2v1xf
p2
I1
s.(dp0
Vcyj8qp4
p1
I1
sVcz5dfss
p2
I1
s.(dp0
Vcyj8qp4
p1
I1
sVcz71rzs
p2
I1
s.(dp0
Vcyj8qp4
p1
I1
sVcza0qj0
p2
I1
s.(dp0
Vcyj8qp4
p1
I1
sVczbk6po
p2
I1
s.(dp0
Vcyj8qp4
p1
I1
sVczc3to7
p2
I1
s.(dp0
Vcyj8qp4
p1
I1
sVczc3to7
p2
I1
s.(dp0
Vcyj8qp4
p1
I1
sVczcdn1u
p2
I1
s.(dp0
Vcyj8qp4
p1
I1
sVczfa0zr
p2
I1
s.(dp0
Vcyj8qp4
p1
I1
sVczfi4bn
p2
I1
s.(dp0
Vcyj8qp4
p1
I1
sVczgq7ob
p2
I1
s.(dp0
Vcyj8qp4
p1
I1
sVczh2tx4
p2
I1
s.(dp0
Vcyj8qp4
p1
I1
sVczh3z30
p2
I1
s.(dp0
Vcyj8qp4
p1
I1
sVczh634z
p2
I1
s.(dp0
Vcyj8qp4
p1
I1
sVczhf9wx
p2
I1
s.(dp0
Vcyj8qp4
p1
I1
sVczj31yc
p2
I1
s.(dp0
Vcyj8qp4
p1
I1
sVczjwenx
p2
I1
s.(dp0
Vcyj8qp4
p1
I1
sVczk7yqv
p2
I1
s.(dp0
Vcyj8qp4
p1
I1
sVczk8nha
p2
I1
s.(dp0
Vcyj8qp4
p1
I1
sVczkt8qv
p2
I1
s.(dp0
Vcyj8qp4
p1
I1
sVczm3rlh
p2
I1
s.(dp0
Vcyj8qp4
p1
I1
sVczpn9q4
p2
I1
s.(dp0
Vcyj8qp4
p1
I1
sVczr3ckz
p2
I1
s.(dp0
Vcyj8qp4
p1
I1
sVczrhhpx
p2
I1
s.(dp0
Vcyj8qp4
p1
I1
sVczs4z8l
p2
I1
s.(dp0
Vcyj8qp4
p1
I1
sVczs4z8l
p2
I1
s.(dp0
Vcyj8qp4
p1
I1
sVcztxljm
p2
I1
s.(dp0
Vcyj8qp4
p1
I1
sVczur8ac
p2
I1
s.(dp0
Vcyj8qp4
p1
I1
sVczvsjfu
p2
I1
s.(dp0
Vcyj8qp4
p1
I1
sVczx9l4k
p2
I1
s.(dp0
Vcyj8qp4
p1
I1
sVczz80zj
p2
I1
s.(dp0
Vcyj8qp4
p1
I1
sVd00hpxn
p2
I1
s.(dp0
Vcyj8qp4
p1
I1
sVd01atx9
p2
I1
s.(dp0
Vcyj8qp4
p1
I1
sVd037019
p2
I1
s.(dp0
Vcyj8qp4
p1
I1
sVd05saol
p2
I1
s.(dp0
Vcyj8qp4
p1
I1
sVd074v35
p2
I1
s.(dp0
Vcyj8qp4
p1
I1
sVd09r2p2
p2
I1
s.(dp0
Vcyj8qp4
p1
I1
sVd0d8sdi
p2
I1
s.(dp0
Vcyj8qp4
p1
I1
sVd0d8sdi
p2
I1
s.(dp0
Vcyj8qp4
p1
I1
sVd0gl7o7
p2
I1
s.(dp0
Vcyj8qp4
p1
I1
sVd0i0dun
p2
I1
s.(dp0
Vcyj8qp4
p1
I1
sVd0iva15
p2
I1
s.(dp0
Vcyj8qp4
p1
I1
sVd0jdgjf
p2
I1
s.(dp0
Vcyj8qp4
p1
I1
sVd0jdgjf
p2
I1
s.(dp0
Vcyj8qp4
p1
I1
sVd0jdgjf
p2
I1
s.(dp0
Vcyj8qp4
p1
I1
sVd0qt9bo
p2
I1
s.(dp0
Vcyj8qp4
p1
I1
sVd0spals
p2
I1
s.(dp0
Vcyj8qp4
p1
I1
sVd0tqoh5
p2
I1
s.(dp0
Vcyj8qp4
p1
I1
sVd0vgusu
p2
I1
s.(dp0
Vcyj8qp4
p1
I1
sVd0wfels
p2
I1
s.(dp0
Vcyj8qp4
p1
I1
sVd0wyc7u
p2
I1
s.(dp0
Vcyj8qp4
p1
I1
sVd1952bp
p2
I1
s.(dp0
Vcyj8qp4
p1
I1
sVd1bou5j
p2
I1
s.(dp0
Vcyj8qp4
p1
I1
sVd1e320a
p2
I1
s.(dp0
Vcyj8qp4
p1
I1
sVd1e4w13
p2
I1
s.(dp0
Vcyj8qp4
p1
I1
sVd1e53d5
p2
I1
s.(dp0
Vcyj8qp4
p1
I1
sVd1e53d5
p2
I1
s.(dp0
Vcyj8qp4
p1
I1
sVd1e6z28
p2
I1
s.(dp0
Vcyj8qp4
p1
I1
sVd1fox9n
p2
I1
s.(dp0
Vcyj8qp4
p1
I1
sVd1k9x9b
p2
I1
s.(dp0
Vcyj8qp4
p1
I1
sVd1kw5hu
p2
I1
s.(dp0
Vcyj8qp4
p1
I1
sVd1p8x1c
p2
I1
s.(dp0
Vcyj8qp4
p1
I1
sVd1peuyu
p2
I1
s.(dp0
Vcyj8qp4
p1
I1
sVd1ph6qd
p2
I1
s.(dp0
Vcyj8qp4
p1
I1
sVd1ph6qd
p2
I1
s.(dp0
Vcyj8qp4
p1
I1
sVd1qjg1e
p2
I1
s.(dp0
Vcyj8qp4
p1
I1
sVd1rula3
p2
I1
s.(dp0
Vcyj8qp4
p1
I1
sVd1us3my
p2
I1
s.(dp0
Vcyj8qp4
p1
I1
sVd1utyhb
p2
I1
s.(dp0
Vcyj8qp4
p1
I1
sVd1utyhb
p2
I1
s.(dp0
Vcyj8qp4
p1
I1
sVd1utyhb
p2
I1
s.(dp0
Vcyj8qp4
p1
I1
sVd1uxwhg
p2
I1
s.(dp0
Vcyj8qp4
p1
I1
sVd1yt6il
p2
I1
s.(dp0
Vcyj8qp4
p1
I1
sVd20ms6i
p2
I1
s.(dp0
Vcyj8qp4
p1
I1
sVd23t0bq
p2
I1
s.(dp0
Vcyj8qp4
p1
I1
sVd256t9d
p2
I1
s.(dp0
Vcyj8qp4
p1
I1
sVd26svz0
p2
I1
s.(dp0
Vcyj8qp4
p1
I1
sVd2a4sxx
p2
I1
s.(dp0
Vcyj8qp4
p1
I1
sVd2bxcgj
p2
I1
s.(dp0
Vcyj8qp4
p1
I1
sVd2ec7oo
p2
I1
s.(dp0
Vcyj8qp4
p1
I1
sVd2fqf4r
p2
I1
s.(dp0
Vcyj8qp4
p1
I1
sVd2gmvwy
p2
I1
s.(dp0
Vcyj8qp4
p1
I1
sVd2gmvwy
p2
I1
s.(dp0
Vcyj8qp4
p1
I1
sVd2l5vjs
p2
I1
s.(dp0
Vcyj8qp4
p1
I1
sVd2qzii0
p2
I1
s.(dp0
Vcyj8qp4
p1
I1
sVd2s7c8j
p2
I1
s.(dp0
Vcyj8qp4
p1
I1
sVd2z0yjo
p2
I1
s.(dp0
Vcyj8qp4
p1
I1
sVd2z0yjo
p2
I1
s.(dp0
Vcyj8qp4
p1
I1
sVd2z0yjo
p2
I1
s.(dp0
Vcyj8qp4
p1
I1
sVd2z862y
p2
I1
s.(dp0
Vcyj8qp4
p1
I1
sVd2zh0d8
p2
I1
s.(dp0
Vcyj8qp4
p1
I1
sVd2zh0d8
p2
I1
s.(dp0
Vcyj8qp4
p1
I1
sVd3112py
p2
I1
s.(dp0
Vcyj8qp4
p1
I1
sVd3994cw
p2
I1
s.(dp0
Vcyj8qp4
p1
I1
sVd3994cw
p2
I1
s.(dp0
Vcyj8qp4
p1
I1
sVd3bo6s3
p2
I1
s.(dp0
Vcyj8qp4
p1
I1
sVd3dtmi7
p2
I1
s.(dp0
Vcyj8qp4
p1
I1
sVd3gdgpc
p2
I1
s.(dp0
Vcyj8qp4
p1
I1
sVd3p3ghn
p2
I1
s.(dp0
Vcyj8qp4
p1
I1
sVd3p3ghn
p2
I1
s.(dp0
Vcy(dp0
Vcyj8qp4
p1
I1
sVdtcyzu1
p2
I1
s.