(dp0
Vdcspgvs
p1
I1
sVdh4hqke
p2
I1
sVdb5g4fr
p3
I1
sVdfbskh2
p4
I1
sVdofp4tl
p5
I1
sVdbmxauw
p6
I2
sVd49dp53
p7
I1
sVdnklr7a
p8
I1
sVdfh8xt7
p9
I1
sVdppqadj
p10
I1
sVd9ixfnl
p11
I1
sVdt4187a
p12
I1
sVdeqjzd0
p13
I1
sVdjc9gk1
p14
I2
sVd27hccf
p15
I1
sVcz22icc
p16
I1
sVdphdwxg
p17
I1
sVdpqu9m6
p18
I1
sVdrsfuef
p19
I1
sVddzk0h7
p20
I1
sVdbgzt05
p21
I1
sVdrz048e
p22
I1
sVd7a2nd1
p23
I1
sVdi27y46
p24
I1
sVdealkxx
p25
I4
sVd00khd0
p26
I2
sVddt62b9
p27
I2
sVd18a0ui
p28
I1
sVd68u0hz
p29
I1
sVdk59i2a
p30
I1
sVdiiipmv
p31
I2
sVdjpt3zy
p32
I1
sVdf95mtw
p33
I1
sVdrm2jao
p34
I1
sVdhivftq
p35
I1
sVdejkuea
p36
I1
sVczztd1n
p37
I1
sVd0asxjh
p38
I1
sVdrgm7ud
p39
I1
sVcyyemn8
p40
I1
sVd6kk2hs
p41
I1
sVdrh8yq8
p42
I1
sVd0butva
p43
I1
sVd1473ub
p44
I1
sVdnkgf3p
p45
I1
sVdo1xlsh
p46
I1
sVcz430n9
p47
I1
sVd08t6ka
p48
I1
sVd11y5ab
p49
I2
sVd01ksgz
p50
I1
sVczwkzi4
p51
I1
sVdfygub1
p52
I1
sVdninykl
p53
I1
sVdtflyzk
p54
I1
sVdgxhe54
p55
I1
sVdq1vyc8
p56
I1
sVd0p4yq2
p57
I1
sVdkjnair
p58
I1
sVdeakn6o
p59
I1
sVdrradtt
p60
I1
sVd6l0ru6
p61
I1
sVd6ajzoa
p62
I1
sVdbtujba
p63
I1
sVdj1ukcy
p64
I1
sVdk0ituu
p65
I1
sVdqd6245
p66
I1
sVddrkuk4
p67
I1
sVdcvcmlb
p68
I1
sVcyxab05
p69
I1
sVd2jzshk
p70
I1
sVdohpkf4
p71
I1
sVd4v1ylg
p72
I1
sVd24pthh
p73
I1
sVdjdhib7
p74
I1
sVd61yit7
p75
I1
sVczgzvrp
p76
I1
sVdjnm5eq
p77
I1
sVd231jsf
p78
I1
sVd4euicl
p79
I1
sVdqxpdys
p80
I2
sVddsq08q
p81
I1
sVdg1e1s3
p82
I1
sVcywsh09
p83
I1
sVdagavsd
p84
I1
sVdqxluh0
p85
I2
sVd0f9fkv
p86
I1
sVd200qt8
p87
I1
sVdkcts4d
p88
I1
sVdgibmqx
p89
I1
sVdsml37l
p90
I2
sVd0f8nwv
p91
I1
sVdcr3oxd
p92
I1
sVdjqnilg
p93
I1
sVd62da2j
p94
I1
sVczb9ztb
p95
I1
sVdh168fz
p96
I1
sVdjvp23z
p97
I1
sVdgadb6l
p98
I4
sVdrsklha
p99
I1
sVdihrg08
p100
I1
sVdkdybki
p101
I1
sVdhsw5hg
p102
I1
sVd4q3zg4
p103
I1
sVddyl6ze
p104
I1
sVd4gmkeu
p105
I3
sVd4a0cj9
p106
I1
sVdo1x569
p107
I1
sVdkws9ur
p108
I2
sVd97akxl
p109
I1
sVdjyghp9
p110
I1
sVczzsb78
p111
I1
sVdi3dnxj
p112
I2
sVd2zklru
p113
I2
sVdhwi8it
p114
I2
sVdnrtabg
p115
I1
sVdejv499
p116
I1
sVd3jhhfz
p117
I1
sVd72etw9
p118
I1
sVdejfi46
p119
I1
sVdax24bc
p120
I1
sVdthw5yq
p121
I1
sVdt8v8tw
p122
I1
sVcz1d0oc
p123
I1
sVdoh4us9
p124
I2
sVd21a3to
p125
I1
sVd0hbu93
p126
I1
sVdi4eeyw
p127
I1
sVdjxsliv
p128
I2
sVd6pv6me
p129
I1
sVd8fggpm
p130
I2
sVdnuqxf2
p131
I2
sVd3mo8e1
p132
I1
sVcykxxle
p133
I1
sVd3dz6oi
p134
I1
sVd1e48cx
p135
I1
sVcyslusf
p136
I4
sVdgqaue5
p137
I1
sVddulciv
p138
I1
sVcz3vk1p
p139
I1
sVd1i35g2
p140
I1
sVdsx6r29
p141
I1
sVdgb8zsi
p142
I1
sVd1wqzds
p143
I1
sVd7p9ssq
p144
I1
sVd3ubuwh
p145
I1
sVdiwb3fd
p146
I1
sVdfubvkf
p147
I1
sVd8xdd0m
p148
I1
sVd9d95w9
p149
I1
sVd58zzjm
p150
I1
sVd0t72pn
p151
I1
sVd0i0hvf
p152
I1
sVd0r4juv
p153
I1
sVcypsbqn
p154
I1
sVdnaf6kz
p155
I1
sVdkcf47k
p156
I1
sVd6rlv82
p157
I1
sVd1vy1ox
p158
I1
sVdi3b9c3
p159
I1
sVdkkkt2c
p160
I1
sVdg1d00i
p161
I2
sVd732pbt
p162
I1
sVd9ymn8l
p163
I1
sVd00r8ou
p164
I1
sVd3a3fwf
p165
I2
sVd78x1ls
p166
I1
sVdnlkln9
p167
I1
sVdj1nkkq
p168
I1
sVdf7cy9p
p169
I2
sVd2ep0fe
p170
I1
sVd3ecbwo
p171
I1
sVd1boaoh
p172
I1
sVd7qlgwc
p173
I1
sVdocfw9x
p174
I1
sVd0we9cm
p175
I1
sVdhhunge
p176
I1
sVcyp5kaf
p177
I1
sVdjry8g6
p178
I1
sVd796ytr
p179
I1
sVd2s10vo
p180
I1
sVd8n1iqj
p181
I1
sVd5lb1ls
p182
I1
sVd9no3j6
p183
I1
sVd0srxiu
p184
I1
sVdra7umu
p185
I1
sVdaarpj2
p186
I1
sVdb23jww
p187
I1
sVdmeojka
p188
I1
sVd35h2bn
p189
I1
sVd43qq9p
p190
I1
sVd325oj6
p191
I1
sVd67tn9i
p192
I1
sVd2e8kym
p193
I1
sVdrbv8kv
p194
I1
sVdogpury
p195
I1
sVd8g8o4v
p196
I1
sVdb8h0a6
p197
I1
sVd011l52
p198
I2
sVdqazjzo
p199
I1
sVczslsyz
p200
I1
sVdj8pp2u
p201
I1
sVdi2ehc8
p202
I2
sVdb5ioxs
p203
I1
sVddxd4qm
p204
I1
sVdcggt2n
p205
I2
sVdgal1lx
p206
I1
sVd5tzpnm
p207
I1
sVcyu7y58
p208
I1
sVdqj7f2p
p209
I1
sVd00p8jp
p210
I3
sVdaw715s
p211
I1
sVdhkbbxg
p212
I1
sVd538abb
p213
I1
sVd2qhtfz
p214
I1
sVd0t3jan
p215
I1
sVdb0fy7s
p216
I1
sVd4uwx6t
p217
I1
sVd655um9
p218
I1
sVdcbw3hu
p219
I1
sVczils73
p220
I2
sVdq2j1gk
p221
I4
sVdjckoj8
p222
I1
sVczq852n
p223
I1
sVd5oq6vw
p224
I1
sVcz39sr6
p225
I1
sVdin265z
p226
I1
sVd0ioo97
p227
I1
sVdd3b795
p228
I1
sVdreiqm4
p229
I1
sVdkkv67j
p230
I1
sVd2ifoas
p231
I1
sVdce92e1
p232
I1
sVd2advhc
p233
I1
sVdglu06m
p234
I1
sVd7yhyd6
p235
I1
sVdmmcdj2
p236
I1
sVddblvmn
p237
I1
sVdb5cdy1
p238
I2
sVdejffwp
p239
I1
sVczi9zym
p240
I1
sVd84j0lx
p241
I2
sVdhfexe6
p242
I1
sVd2yc8wu
p243
I1
sVdejckjf
p244
I1
sVd5j7ji2
p245
I1
sVd5bv9wy
p246
I1
sVd6h1rtr
p247
I1
sVdhwvott
p248
I1
sVdgfh222
p249
I2
sVd4ei0zn
p250
I1
sVdhfpy8g
p251
I3
sVddyfxvc
p252
I1
sVd2zpdx3
p253
I1
sVdgepsqh
p254
I1
sVdfzxaiy
p255
I1
sVdjk05ar
p256
I1
sVd8yyi4a
p257
I1
sVdg58omh
p258
I1
sVd9n0xg3
p259
I1
sVda3y7vv
p260
I1
sVd940be5
p261
I2
sVdsdpabb
p262
I1
sVd1nygdu
p263
I1
sVdd6wbub
p264
I2
sVd4v5acn
p265
I1
sVd408741
p266
I1
sVd6tudt5
p267
I1
sVd9ak2q9
p268
I1
sVd3x40nt
p269
I1
sVd2qg3do
p270
I5
sVd01b4sx
p271
I1
sVd20knlx
p272
I1
sVdacgl5y
p273
I1
sVdkmi9ix
p274
I1
sVd3z85iq
p275
I1
sVdfcvkyh
p276
I1
sVd0rn6yj
p277
I1
sVdiyroih
p278
I1
sVdob9cct
p279
I1
sVdkvqei6
p280
I1
sVdfzxn53
p281
I1
sVdfvs8ex
p282
I1
sVd7hbjt0
p283
I1
sVdagktu0
p284
I1
sVczoou5a
p285
I1
sVcz29au5
p286
I1
sVd05co43
p287
I1
sVdkqu3sq
p288
I1
sVczed5jy
p289
I1
sVd97po7c
p290
I1
sVd5gh9xj
p291
I1
sVdt97rws
p292
I1
sVdtgj3wr
p293
I1
sVd7xc8tu
p294
I1
sVdtgjxdo
p295
I1
sVd5mpxco
p296
I1
sVd4m243z
p297
I1
sVdoemp7k
p298
I1
sVdobudi5
p299
I1
sVdjchp1c
p300
I3
sVdjvf8c3
p301
I2
sVdktbo32
p302
I1
sVd884gxj
p303
I1
sVd7tcmdi
p304
I1
sVdmhqy1o
p305
I1
sVd65y6g9
p306
I1
sVd244fj8
p307
I2
sVdnyarb8
p308
I1
sVdfu31zy
p309
I1
sVdoliq65
p310
I1
sVdkhksn5
p311
I3
sVdja4x4z
p312
I1
sVddd6dqj
p313
I1
sVdci9w9o
p314
I1
sVd7tkvvb
p315
I1
sVd2ilvyu
p316
I1
sVdbfah03
p317
I1
sVdndz0t2
p318
I2
sVdaue8h9
p319
I4
sVd7zir4y
p320
I1
sVdduixuh
p321
I1
sVd0st512
p322
I2
sVdoqccs0
p323
I1
sVdqm9srg
p324
I1
sVczslfmd
p325
I5
sVdgt7ok7
p326
I1
sVd1frnee
p327
I1
sVd2qj4m4
p328
I1
sVdb8gzor
p329
I1
sVdbi8o7c
p330
I1
sVd8vwi40
p331
I1
sVdczxdo0
p332
I1
sVdghobrv
p333
I1
sVd29htf5
p334
I1
sVdfoev86
p335
I1
sVdfk9zd2
p336
I1
sVd6hfzip
p337
I1
sVd0l5ftx
p338
I1
sVd4v7ahb
p339
I1
sVdfi5jnu
p340
I1
sVdfkqr8c
p341
I1
sVddsj1vc
p342
I1
sVd0sjfbi
p343
I1
sVd4tdqty
p344
I2
sVd4y1034
p345
I1
sVde2g948
p346
I2
sVdb3jo7b
p347
I1
sVd49rhya
p348
I1
sVd2r9f8q
p349
I2
sVd5laobo
p350
I1
sVd51w0ne
p351
I1
sVdt8gzkd
p352
I2
sVdmgh33o
p353
I1
sVdh0x2j2
p354
I1
sVddnh6wy
p355
I2
sVdifsoti
p356
I2
sVd3egn6e
p357
I1
sVdt6scwr
p358
I1
sVdhflexn
p359
I2
sVdqu2nhs
p360
I1
sVdp94r6q
p361
I1
sVd2tzjj2
p362
I1
sVd52qwpl
p363
I2
sVdkkd4dq
p364
I1
sVdrnnzdc
p365
I2
sVdcg854b
p366
I1
sVdgxcm1e
p367
I1
sVcz6ant2
p368
I1
sVdeaxmd1
p369
I1
sVd6s2029
p370
I1
sVdbdhpo6
p371
I1
sVdcjq5wd
p372
I1
sVddc2vyn
p373
I1
sVczsg8ob
p374
I1
sVd1aaevx
p375
I1
sVdaxc44w
p376
I2
sVd1bpyiw
p377
I2
sVdqkja30
p378
I2
sVd3p47g3
p379
I1
sVdchszuc
p380
I2
sVdfah9o2
p381
I1
sVddh7xs2
p382
I1
sVczcgq77
p383
I2
sVd94f9m3
p384
I1
sVczslh72
p385
I2
sVdcdiw7h
p386
I1
sVdr6w0co
p387
I1
sVd9ib7t8
p388
I1
sVddbdmwc
p389
I2
sVdqvbk90
p390
I1
sVd73fic4
p391
I1
sVdcmoifd
p392
I1
sVdbijjql
p393
I2
sVd1mxjj4
p394
I1
sVdciepis
p395
I1
sVd2p8sp3
p396
I1
sVd2ln9ln
p397
I1
sVd1wff8r
p398
I1
sVd17fbxe
p399
I1
sVda94cog
p400
I1
sVd884ycj
p401
I1
sVd2nfu7j
p402
I1
sVd62ux1c
p403
I1
sVd1mvxe6
p404
I1
sVdgrn47c
p405
I1
sVd047irf
p406
I1
sVdgsie81
p407
I1
sVd9vbs5w
p408
I1
sVd34furt
p409
I1
sVdnra3cy
p410
I4
sVddbzy4l
p411
I1
sVd7qjqns
p412
I1
sVd3klkw9
p413
I1
sVd941bpr
p414
I1
sVd0kxuvg
p415
I1
sVdni9pqu
p416
I1
sVdgtdy9j
p417
I1
sVd3tqvbv
p418
I1
sVdpi2jjc
p419
I1
sVd1dshgm
p420
I1
sVdcvnhlx
p421
I1
sVczyeskr
p422
I1
sVdhby6ir
p423
I1
sVdcjm3jl
p424
I1
sVdpv894v
p425
I2
sVdf37xf5
p426
I1
sVdel1rtw
p427
I1
sVdknxxc7
p428
I1
sVd6ra4p4
p429
I1
sVdellek0
p430
I1
sVdkrkmii
p431
I1
sVd1q13of
p432
I1
sVdkft57k
p433
I1
sVczfxsjl
p434
I1
sVdhy3iyi
p435
I1
sVd7xrlwg
p436
I1
sVd693vl7
p437
I1
sVd8wbuj8
p438
I1
sVdekh9z0
p439
I1
sVdq1pbi9
p440
I1
sVdhr8eit
p441
I1
sVd15b4ad
p442
I1
sVcywfcx9
p443
I2
sVdqcl88y
p444
I1
sVdcllcqv
p445
I1
sVdnvj8h6
p446
I1
sVcyozjg1
p447
I1
sVd93cmo7
p448
I1
sVd6rourz
p449
I1
sVd6s6ayw
p450
I1
sVdadyzwh
p451
I3
sVdkvjrh6
p452
I3
sVdqxy5gp
p453
I1
sVddcovvn
p454
I1
sVdsyw8i6
p455
I10
sVd00g5om
p456
I1
sVcyozwze
p457
I1
sVdpxkkgw
p458
I1
sVd0m12hv
p459
I1
sVdiesht9
p460
I1
sVd3jf6g1
p461
I1
sVdb58sdh
p462
I1
sVds23g2m
p463
I1
sVdtdzwwp
p464
I1
sVdsu0hyd
p465
I1
sVczlrzn9
p466
I1
sVdoqxwnr
p467
I2
sVdimdot0
p468
I1
sVdaia97f
p469
I1
sVdhmdvo4
p470
I1
sVd687oqm
p471
I1
sVd815nyx
p472
I1
sVdnmksp4
p473
I1
sVd8x22v7
p474
I1
sVd9g8iz5
p475
I2
sVd7yjji2
p476
I1
sVdd5kohx
p477
I1
sVdf62smp
p478
I1
sVdgadfza
p479
I1
sVdafjzfd
p480
I1
sVd5b2uvc
p481
I1
sVdhlr0mn
p482
I1
sVdn7sc1y
p483
I1
sVdadgtdl
p484
I1
sVd0ay2k3
p485
I1
sVd0c20q0
p486
I1
sVdry9nd6
p487
I1
sVd9hefrk
p488
I1
sVdmskg4k
p489
I1
sVdjfqf67
p490
I1
sVdskv5sg
p491
I2
sVdfq96nb
p492
I1
sVdg7spya
p493
I1
sVd9dgnc8
p494
I1
sVdff5a44
p495
I1
sVdiz8g2y
p496
I1
sVd8vughr
p497
I2
sVd116orj
p498
I1
sVdqrp5en
p499
I1
sVd14bx4y
p500
I1
sVdi6pnro
p501
I2
sVd2de27o
p502
I1
sVd0qzbvl
p503
I1
sVd1aya91
p504
I1
sVd3hmzya
p505
I1
sVdrqbl0c
p506
I1
sVd05n3w8
p507
I1
sVd08u044
p508
I1
sVd9e0z38
p509
I1
sVdbju0ad
p510
I1
sVdgkkid9
p511
I2
sVdaf7aq8
p512
I1
sVdfcnmm4
p513
I1
sVcyy6h8h
p514
I1
sVdiz0ks5
p515
I2
sVd6heqnb
p516
I1
sVd4brs26
p517
I1
sVdr57sfn
p518
I1
sVdawbauj
p519
I1
sVdh0b8z3
p520
I1
sVcyww23e
p521
I1
sVdg763o5
p522
I1
sVdj3pzoo
p523
I1
sVdpq4os7
p524
I1
sVd470y6m
p525
I1
sVd6tkmyi
p526
I1
sVdt8ersl
p527
I2
sVdbz5uqb
p528
I1
sVd9boils
p529
I1
sVd0i2uw3
p530
I2
sVde0d0t7
p531
I1
sVd8rgtiz
p532
I1
sVdakq92z
p533
I2
sVdi4ca73
p534
I3
sVdgo1w3a
p535
I2
sVdjvnr3m
p536
I1
sVdt1hm5u
p537
I1
sVd1boe34
p538
I1
sVdsfd073
p539
I1
sVd32rli5
p540
I1
sVczvpphn
p541
I1
sVd6tbdeh
p542
I1
sVd676dod
p543
I1
sVcyp07e5
p544
I1
sVd7rxq1a
p545
I1
sVcys55td
p546
I1
sVdfodfmb
p547
I1
sVdrzpy34
p548
I1
sVd3k8a6z
p549
I2
sVdrlxx1p
p550
I1
sVdfwj7rr
p551
I1
sVcze7tb6
p552
I1
sVdqxjwfq
p553
I2
sVdhn7wuq
p554
I1
sVd6i73ri
p555
I2
sVd23eaic
p556
I1
sVd6pi7bp
p557
I1
sVdi062n0
p558
I1
sVdbisqvp
p559
I1
sVd26zw1r
p560
I1
sVd97e08z
p561
I1
sVcyjfv5f
p562
I1
sVdqnkfde
p563
I2
sVd0nzdmy
p564
I1
sVd8vg8tv
p565
I1
sVdnqux59
p566
I1
sVdo4whux
p567
I1
sVcz9nl98
p568
I1
sVd3rv36z
p569
I1
sVd1akc29
p570
I1
sVczrw6ld
p571
I1
sVdf17x2b
p572
I1
sVd4mrw8f
p573
I1
sVd9szbul
p574
I1
sVcz7mh36
p575
I1
sVdc4ovoj
p576
I2
sVdmzrq82
p577
I2
sVdetwa9n
p578
I3
sVdazj3ql
p579
I1
sVd2vlxr2
p580
I1
sVd6m5opa
p581
I1
sVdeg8bht
p582
I1
sVd0gwrry
p583
I1
sVd3e7nru
p584
I1
sVdhwr33f
p585
I1
sVdadmk99
p586
I1
sVd0ej8dk
p587
I1
sVdqb1g3f
p588
I2
sVdaolrpm
p589
I1
sVdfa0870
p590
I2
sVdfw13yw
p591
I1
sVdboyarx
p592
I1
sVd9e5l7s
p593
I1
sVczzvvmu
p594
I2
sVd37tqkm
p595
I1
sVdr66ozn
p596
I1
sVd8prna4
p597
I1
sVcyxdocs
p598
I1
sVd0gkmon
p599
I1
sVd9n79nl
p600
I1
sVdnm8oxa
p601
I1
sVd2tr1d6
p602
I1
sVd9tq6m9
p603
I1
sVdfwmrxz
p604
I1
sVdnh9943
p605
I2
sVd5d4d9p
p606
I1
sVd55wv8h
p607
I1
sVdia7ht3
p608
I1
sVcz1q7pm
p609
I1
sVd3tffks
p610
I1
sVd25kfwx
p611
I1
sVdaxct5x
p612
I1
sVdt0th0b
p613
I1
sVd1umh6l
p614
I1
sVcymwpzo
p615
I1
sVcyor9z1
p616
I1
sVdesabhw
p617
I1
sVdatwppv
p618
I2
sVd38yvfe
p619
I1
sVd2n5xih
p620
I1
sVdoata0i
p621
I1
sVd6q8uzm
p622
I1
sVdc2k9xd
p623
I1
sVczg02gb
p624
I1
sVde0cfqd
p625
I1
sVd6ri6cq
p626
I2
sVdg4aosz
p627
I3
sVdqzn2dl
p628
I3
sVdehmac2
p629
I1
sVddwl9fq
p630
I1
sVdjxuwt7
p631
I3
sVd86x54s
p632
I1
sVdh6uoko
p633
I1
sVdbiaygv
p634
I1
sVdk4wthq
p635
I1
sVcywpf7d
p636
I1
sVd2qfz7b
p637
I1
sVdmpjw93
p638
I1
sVde1aalt
p639
I1
sVd22xc3u
p640
I1
sVdi0ni09
p641
I1
sVdo4zn1y
p642
I1
sVd30du7o
p643
I1
sVd1boo2h
p644
I1
sVdeecds8
p645
I2
sVdskrunl
p646
I1
sVd6s96vj
p647
I1
sVdehev0u
p648
I1
sVddfbxg7
p649
I1
sVd1q2zc9
p650
I1
sVdd3zk2h
p651
I1
sVd5zu43t
p652
I1
sVdojk82o
p653
I1
sVdmvjmld
p654
I3
sVdejg8xk
p655
I1
sVdi9e5so
p656
I1
sVczotjeh
p657
I1
sVdiiriwz
p658
I1
sVcyun5xs
p659
I1
sVd1a8kdz
p660
I1
sVdb6rtb0
p661
I1
sVd7qlb9k
p662
I1
sVd0zf9hu
p663
I1
sVdjqjq3f
p664
I1
sVczoz7p5
p665
I1
sVdiy8b0d
p666
I1
sVd2bf1w0
p667
I1
sVdfk9u0g
p668
I1
sVdabfqxe
p669
I1
sVddxrjpy
p670
I1
sVdh4a726
p671
I1
sVd694ktk
p672
I1
sVdeu14rb
p673
I2
sVdicnuug
p674
I1
sVd9fmyhy
p675
I3
sVd8op7p8
p676
I1
sVds17jtl
p677
I1
sVdbpiya3
p678
I1
sVczmcz48
p679
I1
sVcyzvq8m
p680
I1
sVdeb9bip
p681
I1
sVdom2yb1
p682
I1
sVcyxim1v
p683
I1
sVd38mm61
p684
I1
sVcyp03fr
p685
I1
sVdcnlth6
p686
I1
sVd1y8fa4
p687
I1
sVdf90rsb
p688
I1
sVdfc8fkt
p689
I1
sVd722kn5
p690
I2
sVdsyv9mk
p691
I1
sVdt0fygj
p692
I1
sVdjvn61d
p693
I1
sVdtdaii2
p694
I1
sVdeihypi
p695
I2
sVdgo1rbk
p696
I6
sVde5iuc4
p697
I1
sVcyo1ki1
p698
I1
sVd24wnrs
p699
I1
sVd24m8zu
p700
I1
sVd1xk9d0
p701
I1
sVdnen5e5
p702
I1
sVdoouw7w
p703
I1
sVd2q83v6
p704
I1
sVd2pwi6k
p705
I1
sVdpfmk90
p706
I1
sVdh53cb8
p707
I1
sVd2kthe0
p708
I1
sVdmh1vpe
p709
I1
sVd034fe4
p710
I1
sVdnsyj7l
p711
I1
sVd9csebo
p712
I1
sVdmljs64
p713
I1
sVdihr0kh
p714
I1
sVdn123gm
p715
I2
sVdnshnzp
p716
I1
sVd935ynp
p717
I1
sVd3rw28l
p718
I1
sVczosnll
p719
I3
sVds83ytc
p720
I1
sVdno0ack
p721
I1
sVd3ewkgm
p722
I1
sVd4dw80d
p723
I1
sVdao4iw1
p724
I1
sVdohs9aa
p725
I1
sVdrjamzs
p726
I1
sVdpw793q
p727
I1
sVd09q80v
p728
I1
sVdhkdac1
p729
I1
sVd8rpzzd
p730
I1
sVdhlf4n7
p731
I3
sVczcjbw5
p732
I1
sVd1sfvgp
p733
I1
sVdrtcwby
p734
I1
sVd1h4cvs
p735
I1
sVd00frh2
p736
I1
sVdscpogi
p737
I1
sVd07yve1
p738
I1
sVdei1c1i
p739
I1
sVd1nnzpu
p740
I1
sVdd5jiqv
p741
I1
sVd6ahvkc
p742
I1
sVdg9liiz
p743
I1
sVdck6w4r
p744
I2
sVdk9m2gm
p745
I1
sVdpkdfw6
p746
I1
sVdhyeq3i
p747
I1
sVd4fdtd1
p748
I1
sVd3aa0ru
p749
I2
sVcz7l79u
p750
I1
sVdojb1f7
p751
I1
sVd5t8bi8
p752
I1
sVdjj4b0a
p753
I1
sVde2evcc
p754
I1
sVd0dfmcq
p755
I1
sVd4s018h
p756
I1
sVdposi93
p757
I1
sVdetnd1u
p758
I1
sVcyiwa9d
p759
I1
sVd3u836x
p760
I1
sVd41okmz
p761
I1
sVdoenbzu
p762
I1
sVd01rjns
p763
I1
sVdbmfj0z
p764
I1
sVd6h1qa0
p765
I1
sVdeikq2m
p766
I1
sVcz6zllb
p767
I1
sVdg3colc
p768
I1
sVd6zkd2a
p769
I1
sVdopyyuy
p770
I1
sVdaxokla
p771
I1
sVd2e8zqw
p772
I2
sVd2edit6
p773
I1
sVd2ec7oo
p774
I1
sVd8hl4dl
p775
I1
sVd88mkn1
p776
I2
sVd3klu2q
p777
I1
sVdavc2tw
p778
I1
sVdhgksar
p779
I2
sVdjgi1dy
p780
I1
sVddp517s
p781
I1
sVdfcr6us
p782
I2
sVdgvuv0t
p783
I1
sVdcxom5b
p784
I1
sVdjuztb9
p785
I1
sVdosz0q2
p786
I2
sVdnlme1k
p787
I1
sVddufl8m
p788
I1
sVd5wm564
p789
I1
sVds9b7jh
p790
I1
sVdidwseb
p791
I1
sVd0441x7
p792
I1
sVd01awbj
p793
I1
sVdeetfcg
p794
I1
sVdirbnp9
p795
I1
sVdd7z7kh
p796
I2
sVd7ri8qv
p797
I1
sVd0m2lka
p798
I1
sVd376s6a
p799
I1
sVdk4puu0
p800
I1
sVdgkzzew
p801
I1
sVdotdav0
p802
I1
sVdi2uebk
p803
I2
sVd3946t4
p804
I1
sVddw0ff7
p805
I1
sVd8ydqfy
p806
I1
sVd9it02m
p807
I1
sVdj2eiuu
p808
I1
sVd92f7my
p809
I1
sVdhau2dh
p810
I1
sVdh1arxm
p811
I1
sVd0197gl
p812
I2
sVczmqlum
p813
I1
sVd4fc3n2
p814
I1
sVde1tokw
p815
I1
sVdeu34kx
p816
I2
sVd454532
p817
I1
sVd3jco5e
p818
I1
sVdsocx7j
p819
I1
sVcyr9b1n
p820
I1
sVdgfl4it
p821
I5
sVd88vdlm
p822
I1
sVd2qcavk
p823
I1
sVdt3hse3
p824
I1
sVd0isyi3
p825
I1
sVd358rvz
p826
I3
sVcz7qg4g
p827
I1
sVdry7g1r
p828
I1
sVd9zmv0k
p829
I1
sVdokilb7
p830
I1
sVde0jcyo
p831
I1
sVd6hdjpc
p832
I4
sVdklgwte
p833
I1
sVdes15wv
p834
I1
sVd9frr7z
p835
I1
sVded4uu1
p836
I1
sVdfvvnlh
p837
I2
sVd2xteka
p838
I1
sVd0kioic
p839
I1
sVd3vfh7r
p840
I1
sVdi2kc1b
p841
I3
sVdb0ozo5
p842
I1
sVczjwh4p
p843
I1
sVd9v1sy4
p844
I1
sVd018y1b
p845
I1
sVd5q0yuc
p846
I1
sVdkxhqp8
p847
I1
sVd0gr9th
p848
I2
sVddg3ryk
p849
I1
sVddiy7bh
p850
I1
sVczbwajx
p851
I1
sVd3kbnb4
p852
I1
sVdho2945
p853
I1
sVczzorfb
p854
I1
sVdgp3gj5
p855
I6
sVdkyql60
p856
I1
sVdca2fol
p857
I1
sVdnxzyty
p858
I2
sVdi6dwra
p859
I1
sVdnangb2
p860
I1
sVd1b38hm
p861
I1
sVdi4d586
p862
I2
sVd2qha08
p863
I1
sVd46kqpm
p864
I1
sVdjppigx
p865
I1
sVdth0756
p866
I1
sVdqoy3w7
p867
I1
sVd5ifhic
p868
I1
sVd07lve5
p869
I1
sVczlz515
p870
I1
sVdhn4yv4
p871
I1
sVd01rpku
p872
I1
sVd1b34bx
p873
I1
sVda4zu1f
p874
I1
sVdnqeb16
p875
I1
sVd91f4s3
p876
I1
sVd2kuwd0
p877
I1
sVddm8jym
p878
I1
sVdszzirs
p879
I1
sVd1m6xlc
p880
I1
sVdbazqn9
p881
I1
sVdno9yhh
p882
I1
sVdqixnzd
p883
I2
sVd7bo37m
p884
I1
sVdh0lqih
p885
I1
sVdrogv1j
p886
I1
sVddcizyr
p887
I1
sVd42o90d
p888
I1
sVd10nc16
p889
I1
sVdjyj2ef
p890
I2
sVd7t4m9y
p891
I1
sVcz0m9p9
p892
I1
sVdhid6xl
p893
I1
sVdsvm97i
p894
I1
sVdb57vt1
p895
I3
sVdi2gblq
p896
I1
sVd3e0pth
p897
I2
sVdj4dn0e
p898
I1
sVdk5ac3z
p899
I1
sVd97kv0y
p900
I1
sVd0ul1sx
p901
I2
sVczdskk3
p902
I1
sVd3h3662
p903
I1
sVczzcsit
p904
I1
sVd2boauf
p905
I1
sVd78sky9
p906
I1
sVd0tk35l
p907
I1
sVcywsw8s
p908
I2
sVdmhd8gr
p909
I1
sVd2xspkc
p910
I1
sVdhtgwb9
p911
I1
sVdi24gzl
p912
I1
sVd4ehq14
p913
I1
sVczexcd4
p914
I1
sVdbpfeiy
p915
I1
sVd65692c
p916
I1
sVd0icfmp
p917
I1
sVdt3956t
p918
I1
sVd0h6ev8
p919
I1
sVd5nlsqr
p920
I1
sVdjv3qq1
p921
I1
sVd10n0yc
p922
I1
sVd8ep23d
p923
I1
sVdf9z54c
p924
I1
sVda8k5dw
p925
I2
sVd2bbdb8
p926
I1
sVd91iszj
p927
I1
sVdqas9mx
p928
I1
sVdmlewqt
p929
I1
sVd58u2ab
p930
I1
sVd1q6n1l
p931
I1
sVd16ztwh
p932
I1
sVddghtw3
p933
I2
sVdqdp5te
p934
I1
sVd4zcvse
p935
I1
sVd0qqrvm
p936
I1
sVdh0k535
p937
I1
sVd3hm7nw
p938
I1
sVdddv2f4
p939
I1
sVdodp0gm
p940
I3
sVdscenrl
p941
I1
sVczmsqg0
p942
I2
sVdosvyfo
p943
I2
sVdpwqq2r
p944
I2
sVd5nwwn8
p945
I1
sVd1qc5ty
p946
I1
sVdec3p3g
p947
I1
sVd26kchr
p948
I1
sVdetvw2q
p949
I1
sVdjcu660
p950
I1
sVdsf043d
p951
I1
sVd0rkhpo
p952
I3
sVdrte15l
p953
I1
sVd8vc746
p954
I2
sVdcgn08x
p955
I1
sVd7lvyjv
p956
I1
sVdje618a
p957
I1
sVd0nr8mm
p958
I1
sVdi3azx0
p959
I1
sVdol2v0i
p960
I2
sVcz6fa13
p961
I1
sVdfmddce
p962
I1
sVdqsbgn2
p963
I1
sVd46t6aw
p964
I2
sVd2mn7nt
p965
I1
sVdqe926y
p966
I1
sVdnrekcn
p967
I1
sVdaor8o1
p968
I1
sVd84iwca
p969
I1
sVdbr0niq
p970
I1
sVddvisf2
p971
I1
sVdaghukm
p972
I1
sVdc4udx0
p973
I2
sVda8votk
p974
I1
sVdbct76k
p975
I2
sVdd32yi6
p976
I1
sVddvalvx
p977
I1
sVdd4brqy
p978
I1
sVdn2p9un
p979
I1
sVdh961wq
p980
I1
sVd2df9gu
p981
I1
sVdn1gl2t
p982
I1
sVd6hdixw
p983
I1
sVd3n7gqx
p984
I1
sVd2pdprx
p985
I1
sVdeekrw3
p986
I1
sVd4gdenr
p987
I1
sVd2r28w9
p988
I1
sVczzv5uy
p989
I1
sVdgbdqcz
p990
I1
sVdt9v5od
p991
I1
sVczzw3ab
p992
I7
sVdp1wxue
p993
I1
sVdi2d436
p994
I3
sVcz3fdva
p995
I1
sVdjy7cbw
p996
I1
sVd8bi40u
p997
I1
sVcz2pksn
p998
I1
sVd61sa9o
p999
I1
sVdeprbin
p1000
I1
sVdg11z3i
p1001
I1
sVcyv091l
p1002
I1
sVdhcje1v
p1003
I1
sVd9d0q63
p1004
I2
sVcz6ifal
p1005
I1
sVd9ymltm
p1006
I1
sVd3n3cte
p1007
I1
sVd50q7q7
p1008
I1
sVdodf712
p1009
I2
sVdh0u56a
p1010
I1
sVdbsbefv
p1011
I1
sVd1g0mep
p1012
I1
sVdnrd8jr
p1013
I2
sVd1d7hna
p1014
I1
sVd5hx2ew
p1015
I1
sVdb8f7ol
p1016
I3
sVdt652tu
p1017
I1
sVd59va9b
p1018
I1
sVdcv0ivp
p1019
I1
sVd4u1a1o
p1020
I1
sVd477sd8
p1021
I1
sVd7zoz5w
p1022
I1
sVdjlwisj
p1023
I4
sVdi6f2rq
p1024
I1
sVdn9bjeo
p1025
I1
sVdbikexs
p1026
I1
sVdohakk1
p1027
I1
sVdfa5qat
p1028
I1
sVdjcs7zx
p1029
I1
sVd2n8d0z
p1030
I3
sVd03c6gp
p1031
I1
sVd0oie9t
p1032
I1
sVcyjlozn
p1033
I1
sVdqa0m4x
p1034
I1
sVd0i7psu
p1035
I1
sVdb5d0a6
p1036
I1
sVd77tuw4
p1037
I1
sVdbbync3
p1038
I4
sVdc98e82
p1039
I2
sVdeeq1i1
p1040
I2
sVdgg4ke3
p1041
I1
sVczaayiu
p1042
I1
sVd8djevs
p1043
I2
sVcze4re4
p1044
I1
sVdcsyb4v
p1045
I1
sVd0x3xv6
p1046
I1
sVd9wjhuy
p1047
I1
sVdfv6je0
p1048
I1
sVd4fgsdr
p1049
I1
sVdpv6juh
p1050
I1
sVcyozy8q
p1051
I1
sVdki8vum
p1052
I1
sVcz9xjvs
p1053
I1
sVd45hjag
p1054
I1
sVd467p16
p1055
I1
sVd5mh0a8
p1056
I1
sVdhrqi5q
p1057
I1
sVdkvl4h6
p1058
I1
sVczvp8me
p1059
I1
sVdgffi3b
p1060
I1
sVdhl5s0t
p1061
I1
sVdnfp9k2
p1062
I1
sVdbgkwp2
p1063
I1
sVdbfmmu2
p1064
I1
sVdppil0x
p1065
I1
sVdpm15qx
p1066
I1
sVd3any72
p1067
I1
sVd6b4xip
p1068
I1
sVd0tyx18
p1069
I1
sVdnmkbbm
p1070
I1
sVdk0wccj
p1071
I1
sVd94huop
p1072
I1
sVda8ej5z
p1073
I1
sVdceu7js
p1074
I1
sVdgta2eq
p1075
I2
sVd00lfu6
p1076
I1
sVdi5hgqh
p1077
I1
sVddjzlpx
p1078
I2
sVdgrtwor
p1079
I1
sVd20x6oa
p1080
I1
sVdn1d28x
p1081
I2
sVddel3qu
p1082
I1
sVcylmapw
p1083
I1
sVd0yzg2z
p1084
I1
sVd2qgpua
p1085
I4
sVdnnwge6
p1086
I1
sVd4ptdvv
p1087
I1
sVdszh4eu
p1088
I1
sVdf9847a
p1089
I2
sVd1zcjif
p1090
I2
sVdqyp41h
p1091
I1
sVdggcny8
p1092
I1
sVd0qzf25
p1093
I2
sVdgskes6
p1094
I1
sVdcvylas
p1095
I2
sVd1gyknx
p1096
I1
sVdf597h0
p1097
I1
sVd9tkze0
p1098
I1
sVd9i7c2k
p1099
I2
sVd2jn0bq
p1100
I1
sVdaruq2s
p1101
I1
sVdq772qp
p1102
I1
sVdssv0oy
p1103
I1
sVd51g107
p1104
I1
sVdam70z4
p1105
I2
sVd4rly8g
p1106
I1
sVdadpgyl
p1107
I1
sVd0n9v84
p1108
I1
sVdoehyyu
p1109
I1
sVd9voqp8
p1110
I1
sVdthqyn4
p1111
I1
sVdcil7jf
p1112
I1
sVdq3aeko
p1113
I2
sVdo0m7kz
p1114
I1
sVcypwfc8
p1115
I1
sVdj4wbeh
p1116
I1
sVdeaxweg
p1117
I1
sVdie8lw1
p1118
I1
sVdo59n1c
p1119
I1
sVcyjv5pm
p1120
I1
sVd07deke
p1121
I1
sVd8v8e0p
p1122
I1
sVdrk1kn1
p1123
I1
sVczzxh4g
p1124
I1
sVdgg3wud
p1125
I1
sVd529w80
p1126
I1
sVdsbkiyx
p1127
I2
sVdo7j5g3
p1128
I1
sVdnm749y
p1129
I2
sVdd3ojqa
p1130
I1
sVdbxs2l2
p1131
I1
sVd3cnnhq
p1132
I1
sVdfsm8ah
p1133
I1
sVdc2d9u6
p1134
I1
sVcz485ve
p1135
I1
sVdejqki3
p1136
I1
sVdj43h4z
p1137
I1
sVd37rlk9
p1138
I1
sVdorku1m
p1139
I1
sVdh0a0lk
p1140
I1
sVd78bqxu
p1141
I1
sVcym55bc
p1142
I1
sVdtc7c61
p1143
I1
sVdg25sm8
p1144
I2
sVdj1o9ku
p1145
I1
sVczg38lf
p1146
I1
sVdca351p
p1147
I1
sVd793et7
p1148
I1
sVder7xgz
p1149
I1
sVd0g770z
p1150
I1
sVd5t94ld
p1151
I1
sVdq3f50e
p1152
I1
sVdkkscud
p1153
I1
sVdhqniqw
p1154
I1
sVd53y7dv
p1155
I1
sVdffmwae
p1156
I1
sVd70y1kx
p1157
I1
sVddgh56w
p1158
I1
sVdkvev9g
p1159
I1
sVdk7sd4f
p1160
I1
sVd0fknk5
p1161
I1
sVderctx9
p1162
I1
sVd5km994
p1163
I2
sVdoi2hb4
p1164
I1
sVdg53qm1
p1165
I1
sVdb5c57n
p1166
I2
sVd9cr7du
p1167
I2
sVd22mu5p
p1168
I1
sVd68gjsd
p1169
I1
sVd9kp0zj
p1170
I1
sVczhpmyw
p1171
I1
sVdgaxxk6
p1172
I1
sVdixc670
p1173
I1
sVd11xfb4
p1174
I1
sVczzmsn0
p1175
I2
sVdnqvxrd
p1176
I1
sVd0u7qq6
p1177
I1
sVd1d9sed
p1178
I1
sVd28jy97
p1179
I1
sVdsog5qu
p1180
I1
sVd68t8vs
p1181
I1
sVdi7bv14
p1182
I1
sVdo4c53z
p1183
I1
sVddurdb6
p1184
I1
sVd4767k5
p1185
I2
sVd6ftbje
p1186
I1
sVd141rlv
p1187
I1
sVd00irdp
p1188
I1
sVcyio46m
p1189
I1
sVd5vma1b
p1190
I1
sVdeknzav
p1191
I1
sVdpo7enu
p1192
I1
sVdphonz1
p1193
I1
sVddh67rh
p1194
I1
sVd23s58f
p1195
I2
sVdh0eelo
p1196
I1
sVd79cs89
p1197
I1
sVdftdq4j
p1198
I2
sVcyizkmv
p1199
I1
sVd45yogz
p1200
I1
sVd8vqlqy
p1201
I1
sVd1aabw4
p1202
I1
sVd9as7po
p1203
I1
sVd18tsbb
p1204
I1
sVdo7ttb0
p1205
I1
sVdmmf0pw
p1206
I1
sVds9w2i0
p1207
I2
sVd0hogx5
p1208
I1
sVdc65nx8
p1209
I1
sVdhgfih5
p1210
I1
sVd0tq7vc
p1211
I1
sVd7ke59k
p1212
I1
sVd3i58vk
p1213
I1
sVdqiy2fo
p1214
I1
sVdgggznt
p1215
I1
sVdaxqrbs
p1216
I1
sVdq0ganu
p1217
I1
sVd5t4a46
p1218
I1
sVd7ibgqw
p1219
I1
sVdogppp2
p1220
I1
sVdhrxid0
p1221
I1
sVczh08k9
p1222
I1
sVd7z4mls
p1223
I1
sVdt0652a
p1224
I1
sVda9wr8m
p1225
I1
sVdj6u1h5
p1226
I1
sVddxeyfj
p1227
I2
sVd2h64c9
p1228
I1
sVdnp9hkc
p1229
I1
sVd4qghmt
p1230
I4
sVdgfkt6z
p1231
I2
sVdobalmw
p1232
I1
sVdb0erwb
p1233
I1
sVd5yruyb
p1234
I1
sVdgyine6
p1235
I1
sVdhi21nm
p1236
I1
sVd9jlo6d
p1237
I1
sVd6hdp05
p1238
I1
sVcyljp66
p1239
I1
sVddewiwl
p1240
I1
sVdf9obt3
p1241
I2
sVd14x3jc
p1242
I1
sVdqlmywv
p1243
I1
sVde7t2cl
p1244
I1
sVdfriqds
p1245
I1
sVdhcokxv
p1246
I2
sVd8hbi6y
p1247
I1
sVdq7rwqh
p1248
I1
sVdf973b1
p1249
I2
sVd3fmv22
p1250
I1
sVddt68pc
p1251
I5
sVdi2f1qi
p1252
I1
sVd9y12tt
p1253
I1
sVd13qnay
p1254
I1
sVdemk9fe
p1255
I1
sVczyivnx
p1256
I1
sVda0keho
p1257
I1
sVd282sta
p1258
I1
sVd1o12ox
p1259
I1
sVdpw9975
p1260
I1
sVcyls1aw
p1261
I2
sVcytxz63
p1262
I1
sVd9ltw1x
p1263
I2
sVd5ftzlu
p1264
I1
sVdpo4ejj
p1265
I1
sVdp5a5ys
p1266
I1
sVdb06soh
p1267
I1
sVdqjs5yi
p1268
I2
sVd4io2uy
p1269
I1
sVd087ilm
p1270
I1
sVdpmfzeq
p1271
I1
sVd0vp9j7
p1272
I1
sVdcr7lmu
p1273
I1
sVd9ak6rt
p1274
I1
sVd79vx3n
p1275
I1
sVd5lhvge
p1276
I1
sVd4b9kej
p1277
I2
sVcytvgw1
p1278
I1
sVdfozvp5
p1279
I1
sVdglhpcb
p1280
I1
sVdtdy65v
p1281
I1
sVczccf37
p1282
I1
sVd8ia1gx
p1283
I1
sVdelgf7o
p1284
I1
sVd0x4aj9
p1285
I1
sVd6kjyms
p1286
I1
sVdtdu7c0
p1287
I1
sVdad29j1
p1288
I1
sVd5h0xk3
p1289
I1
sVd052bnt
p1290
I1
sVczz30i6
p1291
I1
sVcyy8uu8
p1292
I1
sVczebcmg
p1293
I1
sVd522q11
p1294
I1
sVdgha907
p1295
I2
sVdfak8l2
p1296
I1
sVdsumbcm
p1297
I1
sVcyrjcid
p1298
I1
sVd15alss
p1299
I1
sVdkgnuf5
p1300
I1
sVd8w0qqk
p1301
I1
sVdnrc8m0
p1302
I2
sVd2vo123
p1303
I1
sVd5jq8ap
p1304
I2
sVdhjgikk
p1305
I1
sVd2qf6we
p1306
I1
sVda6swtj
p1307
I2
sVd64zk8o
p1308
I1
sVdk4gojo
p1309
I1
sVcz5qlg9
p1310
I1
sVdpig05p
p1311
I1
sVdhgmqjj
p1312
I1
sVdiqlj1o
p1313
I1
sVdg7gmk4
p1314
I1
sVd1ifmih
p1315
I1
sVdsn7pw5
p1316
I1
sVdh1pofe
p1317
I1
sVcywplf6
p1318
I1
sVd68p2ye
p1319
I1
sVd3ssedm
p1320
I1
sVd6l0nde
p1321
I1
sVd15v7qe
p1322
I1
sVdbada5o
p1323
I1
sVcz5wsye
p1324
I3
sVddk1h5g
p1325
I1
sVdfpfybg
p1326
I2
sVdbf3j6m
p1327
I1
sVdgzqgzn
p1328
I1
sVcykduwu
p1329
I1
sVdosv13e
p1330
I1
sVdaw4io5
p1331
I1
sVd0nu46b
p1332
I1
sVdr0f6fa
p1333
I1
sVd41jfk3
p1334
I1
sVd88fg73
p1335
I1
sVdjwhdlx
p1336
I1
sVdaf1chg
p1337
I1
sVdrajkz4
p1338
I1
sVdaateew
p1339
I1
sVd1i3i2y
p1340
I2
sVdsfrxiz
p1341
I1
sVd9bxdom
p1342
I1
sVd2qa5cp
p1343
I3
sVd9hsxc1
p1344
I1
sVdd6tlmw
p1345
I1
sVczmrvrx
p1346
I2
sVd8nf9x9
p1347
I1
sVda280b1
p1348
I1
sVcz1ci0r
p1349
I2
sVd0v3nx9
p1350
I1
sVdnv8jtb
p1351
I1
sVdejq689
p1352
I1
sVdpnrlnr
p1353
I1
sVdodo5x0
p1354
I1
sVdf2ajaa
p1355
I1
sVd4q6s3i
p1356
I2
sVdbmrg2r
p1357
I1
sVdihphc9
p1358
I1
sVdfk26oq
p1359
I1
sVdhytona
p1360
I1
sVdi2c9fw
p1361
I4
sVdce6z3c
p1362
I2
sVde1qro2
p1363
I1
sVdcjx82s
p1364
I2
sVd9bfodj
p1365
I1
sVd3wxqsh
p1366
I1
sVdfzwabs
p1367
I1
sVddq78g8
p1368
I1
sVd2rnks7
p1369
I1
sVdgafs6m
p1370
I1
sVcz4g8wl
p1371
I3
sVd8g6vd7
p1372
I1
sVd2emgkp
p1373
I1
sVd1lqw68
p1374
I1
sVdcdpsj8
p1375
I1
sVd8nx4ga
p1376
I1
sVd1bombm
p1377
I1
sVczhidfg
p1378
I2
sVdcztgqr
p1379
I1
sVd0qw7y8
p1380
I2
sVd8v7qnj
p1381
I1
sVdhxt3uc
p1382
I1
sVd1t02m5
p1383
I1
sVdfk55el
p1384
I1
sVd3fcgql
p1385
I1
sVd5p32p9
p1386
I1
sVd60c2mn
p1387
I1
sVd1nl4g5
p1388
I1
sVdr2nsqq
p1389
I1
sVdct1vlz
p1390
I1
sVdd6q8we
p1391
I1
sVdcxzurz
p1392
I1
sVde4mzz0
p1393
I1
sVdog8wez
p1394
I1
sVczmt6f1
p1395
I2
sVcyqy5vz
p1396
I1
sVdsibtgp
p1397
I1
sVdf7hcpg
p1398
I1
sVdbe048i
p1399
I1
sVdn4e2s3
p1400
I1
sVdjadtgn
p1401
I1
sVd48jqmq
p1402
I1
sVdiflzeh
p1403
I1
sVdimim1x
p1404
I2
sVd67pese
p1405
I2
sVd0of2mn
p1406
I1
sVded2hod
p1407
I1
sVdozu2mb
p1408
I1
sVdr5shcv
p1409
I1
sVdcdihnt
p1410
I1
sVdi2f28d
p1411
I1
sVdd61osj
p1412
I1
sVdfy85yr
p1413
I1
sVdhs28id
p1414
I1
sVde3iym6
p1415
I1
sVczl52wr
p1416
I1
sVd1ustgf
p1417
I1
sVdhr7p0x
p1418
I1
sVdac0wc2
p1419
I3
sVdh0vhq2
p1420
I1
sVd60av8h
p1421
I1
sVd6ylxvx
p1422
I1
sVd4rlqn7
p1423
I2
sVd77l41k
p1424
I1
sVdfo115r
p1425
I1
sVd3p79rz
p1426
I1
sVdk1aqnk
p1427
I1
sVd47ppj1
p1428
I1
sVd9ycdy9
p1429
I1
sVd6ifkf6
p1430
I1
sVd6orldk
p1431
I1
sVd34tban
p1432
I1
sVdok0yzh
p1433
I1
sVcymulbf
p1434
I1
sVd5jii4b
p1435
I1
sVd8yehkg
p1436
I2
sVdhgo524
p1437
I1
sVdiu4s0r
p1438
I1
sVd0c77og
p1439
I1
sVd519yjx
p1440
I1
sVdazokz9
p1441
I1
sVd4y26x8
p1442
I1
sVd2iohj6
p1443
I1
sVd55ean1
p1444
I1
sVdjpug4s
p1445
I2
sVd09nxa9
p1446
I5
sVdc85rx9
p1447
I1
sVdaumg1n
p1448
I1
sVd2doqe9
p1449
I1
sVdbyf5w2
p1450
I1
sVd2463sk
p1451
I1
sVd52xtau
p1452
I1
sVdfo1410
p1453
I1
sVdf0eyn7
p1454
I1
sVda39fan
p1455
I1
sVdtdfp0d
p1456
I1
sVdgv8few
p1457
I1
sVd5oerx0
p1458
I1
sVdprkzut
p1459
I1
sVdd1e8he
p1460
I1
sVdsg85qr
p1461
I1
sVddk1uug
p1462
I1
sVdbr6vbr
p1463
I1
sVd7i52r8
p1464
I1
sVdfax8zs
p1465
I1
sVdc6tha1
p1466
I1
sVd1ho2am
p1467
I2
sVdbjh1xf
p1468
I2
sVdb5y4dx
p1469
I2
sVcyzz68e
p1470
I1
sVdekutw1
p1471
I1
sVd1iud26
p1472
I1
sVdio6rzw
p1473
I1
sVdacvddx
p1474
I1
sVd1as5p5
p1475
I1
sVd09u58a
p1476
I1
sVczmqkgj
p1477
I1
sVd0z1fw0
p1478
I2
sVd8k57ia
p1479
I1
sVde0hrpc
p1480
I1
sVdjhbuwm
p1481
I1
sVd0ild3d
p1482
I1
sVdhrhmbr
p1483
I1
sVcyxht5a
p1484
I1
sVd8t4iwo
p1485
I1
sVcyses9o
p1486
I1
sVd0tethr
p1487
I1
sVdqt853d
p1488
I1
sVdkfpygb
p1489
I1
sVdbniqck
p1490
I1
sVd67oy72
p1491
I1
sVd75l28j
p1492
I1
sVdt0zrv0
p1493
I1
sVdgl5oh7
p1494
I1
sVdrrvcbv
p1495
I1
sVd5zf550
p1496
I1
sVdcjhf99
p1497
I1
sVd0emkv8
p1498
I1
sVdmp1l48
p1499
I1
sVdsavhfo
p1500
I1
sVdtdbxji
p1501
I2
sVd3iskum
p1502
I1
sVdfeu4qz
p1503
I1
sVdig0j0z
p1504
I1
sVdexfruo
p1505
I1
sVdmtm033
p1506
I1
sVcyptk1l
p1507
I1
sVddfz72f
p1508
I1
sVd9cs1cg
p1509
I2
sVdhtkcfz
p1510
I1
sVd81tjk0
p1511
I1
sVd3uiekn
p1512
I1
sVd7seahd
p1513
I2
sVd44xxm4
p1514
I1
sVd0imoaa
p1515
I1
sVdtgqksl
p1516
I1
sVddwe10d
p1517
I4
sVdoelwxc
p1518
I1
sVd0h0gj5
p1519
I1
sVdj7blmj
p1520
I1
sVd5nkmss
p1521
I1
sVd8dfb5e
p1522
I1
sVczsko4f
p1523
I1
sVdaxqf2h
p1524
I1
sVd6he6ay
p1525
I2
sVd3atye5
p1526
I1
sVdidwoky
p1527
I1
sVcz5gz88
p1528
I4
sVdd5izvh
p1529
I1
sVdjlgt4p
p1530
I1
sVd8hy66t
p1531
I1
sVdnlo3q2
p1532
I1
sVdhs9y0m
p1533
I1
sVddq77p4
p1534
I1
sVd2cot2d
p1535
I1
sVdh3im4b
p1536
I2
sVdt8bgad
p1537
I1
sVddzpo2n
p1538
I1
sVdstggtw
p1539
I1
sVcyxkiai
p1540
I1
sVdqrka9u
p1541
I2
sVd7am1n9
p1542
I2
sVdq3pgad
p1543
I1
sVddeghpc
p1544
I1
sVd48iqfn
p1545
I1
sVdg8lxlq
p1546
I1
sVd0xhk7s
p1547
I1
sVd4ykh97
p1548
I1
sVdn9zdgz
p1549
I3
sVdcl5fga
p1550
I5
sVdimcbh9
p1551
I2
sVd5hmhup
p1552
I1
sVd4izgpe
p1553
I1
sVd9mlkcc
p1554
I1
sVdghgfd2
p1555
I1
sVd5z382o
p1556
I1
sVczf81g7
p1557
I1
sVdcyqj2q
p1558
I1
sVd6qr7hg
p1559
I1
sVdek2y9s
p1560
I1
sVd0rf8fb
p1561
I1
sVczds8i5
p1562
I1
sVdc53dxu
p1563
I1
sVdsf4wjm
p1564
I2
sVda3rncx
p1565
I1
sVd6aphrp
p1566
I1
sVdk0y4ar
p1567
I1
sVdcaoorp
p1568
I1
sVdohmfp6
p1569
I2
sVd3sg2o9
p1570
I1
sVdqkutls
p1571
I1
sVdk776rl
p1572
I1
sVd6xl47d
p1573
I1
sVd36oufs
p1574
I2
sVdd5ok0v
p1575
I1
sVdozemf0
p1576
I1
sVdfjqtkg
p1577
I1
sVda4eze1
p1578
I1
sVddbr51x
p1579
I1
sVde4twwe
p1580
I1
sVdfxib0r
p1581
I1
sVd9ulgd8
p1582
I1
sVd21fjg4
p1583
I1
sVdj6iujh
p1584
I1
sVd6si1ne
p1585
I5
sVczmgrne
p1586
I2
sVd1nbnpp
p1587
I1
s.