(dp0
Vcym94r5
p1
I1
s.(dp0
Vcym94r5
p1
I1
sVcyrqrxs
p2
I1
s.(dp0
Vd0yt3q3
p1
I1
sVcym94r5
p2
I1
s.(dp0
Vd2kiurf
p1
I1
sVcym94r5
p2
I1
s.(dp0
Vcym94r5
p1
I1
sVd2nsm7w
p2
I1
s.(dp0
Vcym94r5
p1
I1
sVd3oxu8g
p2
I1
s.(dp0
Vcym94r5
p1
I1
sVd4hnrjk
p2
I1
s.(dp0
Vcym94r5
p1
I1
sVd4hnrjk
p2
I1
s.(dp0
Vcym94r5
p1
I1
sVd6lrv34
p2
I1
s.(dp0
Vd6mc08i
p1
I1
sVcym94r5
p2
I1
s.(dp0
Vd8vwrs7
p1
I1
sVcym94r5
p2
I1
s.(dp0
Vcym94r5
p1
I1
sVdazp0zn
p2
I1
s.(dp0
Vdd09vlg
p1
I1
sVcym94r5
p2
I1
s.(dp0
Vcym94r5
p1
I1
sVddc3623
p2
I1
s.(dp0
Vcym94r5
p1
I1
sVddlspa0
p2
I1
s.(dp0
Vdhfxsfh
p1
I1
sVcym94r5
p2
I1
s.(dp0
Vdhfxsfh
p1
I1
sVcym94r5
p2
I1
s.(dp0
Vcym94r5
p1
I1
sVdkalkgx
p2
I1
s.(dp0
Vdkbf3t1
p1
I1
sVcym94r5
p2
I1
s.(dp0
Vcym94r5
p1
I1
sVdkkygcj
p2
I1
s.(dp0
Vdrd0uec
p1
I1
sVcym94r5
p2
I1
s.(dp0
Vcym94r5
p1
I1
sVds6nr0l
p2
I1
s.(dp0
Vcym94r5
p1
I1
sVds6nr0l
p2
I1
s.