(dp0
Vcz728kb
p1
I2
sVd0o9pwi
p2
I1
sVd41cvri
p3
I1
sVdoi6ax3
p4
I1
sVdoudwmf
p5
I1
sVdr24aka
p6
I1
sVdfp2vsi
p7
I1
sVd0xoh4s
p8
I1
sVd1f5szu
p9
I1
sVd7tf5lj
p10
I1
sVd5hoc8c
p11
I2
sVdnwlto1
p12
I1
sVdplxohw
p13
I1
sVdhefn0f
p14
I1
sVcykszgj
p15
I1
sVdep2vs4
p16
I1
sVd9nza6u
p17
I1
sVdaa0q5i
p18
I1
sVddetnje
p19
I1
sVdd8srnh
p20
I2
sVdq63w1o
p21
I1
sVdbnsxtp
p22
I1
sVd12gtlu
p23
I1
sVdboha3a
p24
I1
sVdkgaluo
p25
I1
sVdb9i2y4
p26
I1
sVdha1v76
p27
I1
sVd2ljvo9
p28
I1
sVd3946t4
p29
I1
sVd990s00
p30
I1
sVdemwsh8
p31
I1
sVdn539jd
p32
I1
sVdidu83y
p33
I1
sVdk7vzkd
p34
I1
sVdahaf2u
p35
I1
sVd0r6jh9
p36
I1
sVd2f0t4f
p37
I1
sVd2181kl
p38
I1
sVdoiatkh
p39
I2
sVd05q4po
p40
I1
sVd06w2ti
p41
I1
sVd3pbjgn
p42
I1
sVdhn2b88
p43
I1
sVcyow7ea
p44
I1
sVdf07mvq
p45
I2
sVd9nrj2p
p46
I1
sVd8qmyjt
p47
I1
sVdmvbfsv
p48
I1
sVdq8diw1
p49
I1
sVd5g4u60
p50
I1
sVd3e3z1j
p51
I1
sVdax6hcq
p52
I1
sVd5m730t
p53
I1
sVd1v2hpd
p54
I1
sVdc69soh
p55
I2
sVdjpkqgn
p56
I1
sVd9nmt4n
p57
I1
sVd3g1m7g
p58
I1
sVd9xe2rm
p59
I1
sVdseugap
p60
I1
sVd398f3h
p61
I1
sVd2plhy4
p62
I1
sVdihtd9l
p63
I1
sVd8akq9y
p64
I1
sVd5jctx4
p65
I1
sVdc3fya6
p66
I2
sVdh50z84
p67
I1
sVcza204d
p68
I1
sVdqvqxid
p69
I1
sVdo2rkpb
p70
I1
sVds5omrh
p71
I1
sVd5zj4vs
p72
I1
sVdklp716
p73
I1
sVd5wxjnw
p74
I1
sVcyxdux6
p75
I2
sVdnbn81g
p76
I2
sVd1wsb6p
p77
I1
sVdtdmfdo
p78
I1
sVdbia2tu
p79
I1
sVd8mx8ng
p80
I1
sVdpqno1v
p81
I1
sVd72zi6u
p82
I1
sVde1copk
p83
I1
sVczzmcwb
p84
I1
sVd1ebsca
p85
I1
sVdss26o2
p86
I1
sVd1l06f2
p87
I1
sVd6u7mcm
p88
I1
sVda2pzkx
p89
I1
sVcz04j6x
p90
I2
sVdftsa9z
p91
I1
sVd4cy2f8
p92
I1
sVdsfe41s
p93
I1
sVd4jy7ng
p94
I1
sVdil2u2w
p95
I1
sVdopbcdq
p96
I1
sVdo8umk6
p97
I2
sVcynhyi7
p98
I1
sVdbd5s26
p99
I2
sVczvpl61
p100
I1
sVde7t2cl
p101
I1
sVdonika6
p102
I1
sVdpu1xtz
p103
I3
sVdgop48l
p104
I1
sVd4zfh67
p105
I1
sVdh9o2ay
p106
I1
sVdec5sst
p107
I1
sVdc9bwvd
p108
I1
sVdokigs2
p109
I1
sVd0xsos3
p110
I1
sVd14wirq
p111
I1
sVdbj2pui
p112
I1
sVd2cla2p
p113
I1
sVdisw4oq
p114
I1
sVdn60h1i
p115
I1
sVd8v9kxa
p116
I1
sVd2017d8
p117
I1
sVd2bfvrs
p118
I1
sVcz7g260
p119
I1
sVde23joa
p120
I1
sVczzkq2q
p121
I1
sVdc8wn2c
p122
I1
sVdmvojg9
p123
I1
sVdnx52x4
p124
I1
sVd719xsf
p125
I2
sVdpcc8cq
p126
I1
sVd5wvvd9
p127
I1
sVdkr6hfo
p128
I1
sVdnkjach
p129
I1
sVdesy2xl
p130
I1
sVdjx3r73
p131
I1
sVd4wgq43
p132
I4
sVdna3kcn
p133
I1
sVdk35mta
p134
I1
sVdt7avf3
p135
I1
sVd5blc1x
p136
I1
sVd7kwata
p137
I1
sVdfbecwi
p138
I1
sVczk0gux
p139
I1
sVd8ls92b
p140
I1
sVdspjdk7
p141
I1
sVdqewy5p
p142
I1
sVd0vk8tu
p143
I1
sVd5wzssa
p144
I1
sVdt2f6tp
p145
I1
sVdos7cja
p146
I1
sVdj10x85
p147
I1
sVdfl6hzu
p148
I1
sVcz4xa98
p149
I1
sVd1oc78v
p150
I1
sVd7kq0kc
p151
I1
sVd4vwwpd
p152
I1
sVd1271jo
p153
I1
sVd86qvtf
p154
I1
sVdmovvh0
p155
I1
sVcyklo9j
p156
I1
sVdht6ukb
p157
I5
sVd5dr5ax
p158
I1
sVdf85zye
p159
I1
sVd2o1dpm
p160
I1
sVd0btsvd
p161
I1
sVds4pel5
p162
I1
sVcyismi6
p163
I1
sVd18g6zw
p164
I1
sVdodlaua
p165
I1
sVdfvmljc
p166
I1
sVdeh7hvh
p167
I1
sVcywlgro
p168
I3
sVd05oz7k
p169
I1
sVd6iqx1l
p170
I1
sVdrk56gt
p171
I1
sVddk0jmb
p172
I1
sVdfhhgyr
p173
I1
sVdp7qwjt
p174
I1
sVdt9hteu
p175
I1
sVd7gjf7j
p176
I1
sVdj2o24r
p177
I1
sVd64xf8v
p178
I1
sVdeh5128
p179
I1
sVd4wbwuq
p180
I1
sVdihs1dz
p181
I2
sVdd9ktmg
p182
I2
sVd6j97en
p183
I1
sVdipl9dy
p184
I1
sVd2a1gmc
p185
I1
sVd8a82bw
p186
I1
sVdhx7uqp
p187
I1
sVdbntdev
p188
I1
sVdmq1e11
p189
I1
sVd3siio2
p190
I1
sVdoeh86z
p191
I1
sVdg8obqh
p192
I1
sVdazvgp7
p193
I3
sVdr9cpq3
p194
I2
sVdekuius
p195
I1
sVdicntyz
p196
I4
sVdiiilzj
p197
I2
sVdpo3h9p
p198
I1
sVd93jvv7
p199
I1
sVd45x4be
p200
I1
sVdg8mt3x
p201
I1
sVdey5a6c
p202
I2
sVdauf5vs
p203
I1
sVd1gk3ij
p204
I1
sVdgxzvyu
p205
I1
sVdgpkmt4
p206
I1
sVdebl2bf
p207
I1
sVd9nazgi
p208
I1
sVd034rf2
p209
I1
sVdgdmx5f
p210
I2
sVd6gmvsg
p211
I1
sVd7isnmi
p212
I1
sVcyi8e4h
p213
I1
sVd9uc6fl
p214
I1
sVd0mmrt4
p215
I1
sVdib3gh4
p216
I1
sVd9x1klx
p217
I1
sVdfypvza
p218
I1
sVdi821bj
p219
I1
sVd9ia0mi
p220
I1
sVdgzvt69
p221
I1
sVdfkouvo
p222
I1
sVdhqa5yw
p223
I1
sVdb3lm92
p224
I1
sVdohkgef
p225
I2
sVd73swwa
p226
I1
sVdb3xgdq
p227
I1
sVd0m7slb
p228
I1
sVdf076n2
p229
I1
sVdcn1xf3
p230
I1
sVd2ennhw
p231
I2
sVd4fvmhl
p232
I1
sVd6j0kmt
p233
I2
sVddh6bdq
p234
I1
sVd6x0rjx
p235
I1
sVcyied0y
p236
I1
sVd0lct32
p237
I1
sVdsnrp2v
p238
I1
sVdb5le7l
p239
I1
sVd2nbilm
p240
I1
sVcyt7ivg
p241
I1
sVd8xbazl
p242
I1
sVd1x5yqa
p243
I1
sVd2km27i
p244
I1
sVd1vz53y
p245
I1
sVda9t7h3
p246
I1
sVcytyv8c
p247
I1
sVczb0gyv
p248
I1
sVdbs46km
p249
I1
sVdd85h4i
p250
I1
sVdofhao7
p251
I1
sVdn4iqkn
p252
I1
sVdibf9us
p253
I1
sVdrq1ldz
p254
I1
sVczmsnkq
p255
I1
sVdivju7k
p256
I1
sVdmqkt4e
p257
I1
sVdjqqa6z
p258
I1
sVdb3vbp6
p259
I1
sVd54jv0a
p260
I1
sVdidk31e
p261
I1
sVdpq0bwp
p262
I1
sVd8r9hh9
p263
I1
sVdhxx2jb
p264
I2
sVd0fvlr3
p265
I1
sVd2ddz7z
p266
I1
sVd110gt9
p267
I1
sVdk0i52n
p268
I1
sVdh66d7c
p269
I1
sVdhclap8
p270
I1
sVdej4awp
p271
I1
sVdcel2vy
p272
I1
sVd4oztkw
p273
I1
sVday3lmn
p274
I2
sVdmsiujy
p275
I1
sVd03qdjg
p276
I1
sVd5190z0
p277
I1
sVdeh2j7y
p278
I1
sVddbo7i9
p279
I1
sVdd0s2ev
p280
I1
sVd2p3r55
p281
I1
sVdd5s7wx
p282
I1
sVd5anwxr
p283
I2
sVdg8ww9d
p284
I1
sVd0egcuk
p285
I1
sVd1ztxup
p286
I1
sVd3gisnk
p287
I1
sVdene1rq
p288
I1
sVdtb61dg
p289
I1
sVdc9oj0c
p290
I1
sVd7ex1j0
p291
I2
sVczi85bi
p292
I1
sVdikdx1v
p293
I1
sVdmrb205
p294
I1
sVdaa90ea
p295
I1
sVdhjjkoh
p296
I1
sVdgwhuna
p297
I1
sVd2zvidy
p298
I1
sVd15hoxq
p299
I1
sVd235jwt
p300
I1
sVdj56b5z
p301
I1
sVdoxshql
p302
I1
sVdd43swh
p303
I1
sVd4b71cy
p304
I1
sVd4i5j05
p305
I1
sVdbi3sdp
p306
I2
sVdmeui46
p307
I2
sVddxuavx
p308
I1
sVd0p8l0y
p309
I1
sVdmqmlvf
p310
I1
sVdkcqs6z
p311
I1
sVdf7tkwo
p312
I1
sVd980xop
p313
I1
sVdt2e9qf
p314
I1
sVdo8uee4
p315
I1
sVd8bl5cd
p316
I1
sVdmvouap
p317
I1
sVdalrvb4
p318
I1
sVcyksaa8
p319
I1
sVd3hxdkh
p320
I1
sVd0l7eb7
p321
I1
sVdi2k2kx
p322
I2
sVd49elbg
p323
I1
sVdctb8xi
p324
I1
sVd9m61lv
p325
I1
sVd4u5v3d
p326
I1
sVdjxyyz6
p327
I1
sVdqo7qmp
p328
I1
sVdonrysl
p329
I1
sVdpvlqg6
p330
I1
sVdelwfae
p331
I1
sVcyttk5a
p332
I1
sVcykj6nb
p333
I1
sVdeb9lt2
p334
I1
sVdbxr68e
p335
I1
sVddfzmwv
p336
I1
sVdjiwh6e
p337
I1
sVdgjzktg
p338
I1
sVdjgkzxd
p339
I2
sVdksjqum
p340
I1
sVczzdz3u
p341
I1
sVd61ztf0
p342
I1
sVd8rsrte
p343
I1
sVdktnnof
p344
I2
sVdfvl8cu
p345
I1
sVdtflfpc
p346
I1
sVdn4vdp3
p347
I1
sVd97d0om
p348
I1
sVd8xnahf
p349
I1
sVd1hh54p
p350
I1
sVdq9b1y6
p351
I1
sVd0b6yyi
p352
I2
sVd8841ul
p353
I1
sVdq4uenc
p354
I1
sVd60i8jj
p355
I1
sVd3oli3m
p356
I2
sVd4ksy0e
p357
I1
sVd1vhdvr
p358
I1
sVd3yr6vr
p359
I1
sVde7joir
p360
I1
sVdekie79
p361
I2
sVde1a81v
p362
I1
sVd4yktza
p363
I1
sVd2ydrbf
p364
I1
sVd9k3o3o
p365
I1
sVdq3z6ni
p366
I1
sVd64fs4c
p367
I1
sVd5rizq7
p368
I1
sVdegr49f
p369
I1
sVdef2cyt
p370
I2
sVdibmir4
p371
I1
sVcz0bvn2
p372
I1
sVd2g61pj
p373
I1
sVdiqzmvt
p374
I1
sVd05qczj
p375
I1
sVd133bz4
p376
I1
sVd7g8ii4
p377
I1
sVdqnv7a8
p378
I2
sVd103q1e
p379
I1
sVd013ylm
p380
I1
sVdi0bz4h
p381
I1
sVcywhw3s
p382
I1
sVcz1hkxm
p383
I1
sVd2jelvy
p384
I1
sVdaa2pxk
p385
I2
sVd42mq09
p386
I1
sVd5x2e0k
p387
I5
sVczgb73s
p388
I1
sVdguxtc3
p389
I1
sVd1irx8d
p390
I1
sVd05s60j
p391
I1
sVd34tban
p392
I3
sVd3gv93v
p393
I1
sVdikly9i
p394
I2
sVdbiw6qb
p395
I1
sVd9cxv69
p396
I1
sVd0s14fh
p397
I1
sVd2g0yt5
p398
I1
sVdc0qbhj
p399
I1
sVdo22wlo
p400
I2
sVd0snybb
p401
I1
sVd5wt68e
p402
I1
sVd2gdd8x
p403
I1
sVcykimro
p404
I1
sVd136hvw
p405
I1
sVcyzbght
p406
I1
sVdohhg7j
p407
I1
sVdfq7lyy
p408
I1
sVczj94a6
p409
I1
sVd5c5q9z
p410
I1
sVdg80nup
p411
I1
sVda0zcgb
p412
I1
sVde3kl0y
p413
I1
sVddc2f7q
p414
I1
sVda6jckg
p415
I1
sVdfioucz
p416
I2
sVdncofy8
p417
I1
sVdkdeb58
p418
I1
sVdqqfi9t
p419
I1
sVcz47e9w
p420
I1
sVd0qv6vg
p421
I1
sVdijfd67
p422
I2
sVd1q4kv8
p423
I1
sVcywe1iu
p424
I1
sVdt8jcor
p425
I1
sVd5vro87
p426
I1
sVda0r0do
p427
I1
sVdtd1mpp
p428
I1
sVd9vbq38
p429
I1
sVdh8mtyi
p430
I1
sVd2bp6vp
p431
I1
sVdknbcy7
p432
I1
sVd8ghlno
p433
I1
sVd9pzq9s
p434
I1
sVd0ukn1b
p435
I1
sVd8izs4g
p436
I1
sVd63ugiz
p437
I2
sVd632s5k
p438
I1
sVdskjb4i
p439
I2
sVd7pkk4q
p440
I1
sVcysnief
p441
I1
sVcyk2b8t
p442
I1
sVda6v4fx
p443
I1
sVd53680y
p444
I1
sVdq7vkz1
p445
I1
sVdq22bej
p446
I1
sVdmuxauj
p447
I1
sVdi6chsh
p448
I1
sVd1gh7c5
p449
I2
sVd3r4qd4
p450
I1
sVd5hm311
p451
I1
sVdeds6w8
p452
I1
sVd9uju5w
p453
I1
sVd784511
p454
I1
sVdbwhb3h
p455
I1
sVd6se9kt
p456
I1
sVdmqgdb1
p457
I1
sVdqfyz6x
p458
I1
sVdafw01w
p459
I1
sVdomo2g5
p460
I1
sVddtr6j3
p461
I1
sVdiv324v
p462
I1
sVdssr6bo
p463
I1
sVd7rf5tw
p464
I1
sVdsni2s8
p465
I1
sVd5vxyiu
p466
I1
sVd0iew8n
p467
I1
sVd1vfatd
p468
I1
sVdedrfcg
p469
I1
sVdqw3zb4
p470
I1
sVd4u8doh
p471
I1
sVdb03f60
p472
I2
sVd02qare
p473
I1
sVdbg3xjv
p474
I1
sVd35grrr
p475
I1
sVd7bvccp
p476
I1
sVdpkepkv
p477
I1
sVd5at418
p478
I1
sVczbysls
p479
I2
sVczkwocd
p480
I1
sVcykow5f
p481
I1
sVdg1hy0r
p482
I2
sVd237huk
p483
I1
sVd48y41q
p484
I1
sVd0ha2ze
p485
I1
sVd9bs0xx
p486
I1
sVd7ij6m0
p487
I1
sVdmm2ew1
p488
I1
sVdcfm7mr
p489
I1
sVdbzwkzj
p490
I1
sVdo9zays
p491
I2
sVdoinit3
p492
I1
sVdc5tego
p493
I1
sVd2bbh1i
p494
I1
sVdjndxbs
p495
I1
sVd6fxuqi
p496
I1
sVd8kcv9r
p497
I1
sVd3xuo9e
p498
I1
sVdqvfofx
p499
I1
sVdfpomm3
p500
I1
sVdhyyp3c
p501
I1
sVditjroi
p502
I1
sVdhbjzlc
p503
I1
sVdap8s05
p504
I1
sVd23901r
p505
I1
sVd7hpeto
p506
I1
sVdst3tmk
p507
I1
sVdmw1i3t
p508
I2
sVdgy6xb2
p509
I4
sVdeuza77
p510
I1
sVd6uqgr3
p511
I2
sVdi891sp
p512
I1
sVdkks9co
p513
I2
sVdc9ftr9
p514
I1
sVdda91bq
p515
I1
sVdobvl00
p516
I1
sVdajr1op
p517
I1
sVd7qhmr9
p518
I1
sVd35p1cu
p519
I1
sVdi69cz4
p520
I1
sVd08e5ri
p521
I1
sVdr1wo5u
p522
I1
sVd1dvkpj
p523
I1
sVdkpwkee
p524
I1
sVdjze1wd
p525
I5
sVdjq75g5
p526
I1
sVdi1mhoo
p527
I4
sVdeii0si
p528
I1
sVdmv9oik
p529
I1
sVdk7qpeq
p530
I1
sVdam2emi
p531
I2
sVdon1ywc
p532
I2
sVd2zhnzf
p533
I1
sVdg2zuvl
p534
I1
sVd9wteu5
p535
I1
sVdozx6rz
p536
I1
sVdghgfd2
p537
I1
sVcz0b5bj
p538
I1
sVd2815id
p539
I1
sVdd3hnmz
p540
I1
sVd7y3hrp
p541
I1
sVd0l9f4t
p542
I1
sVd5nbpgr
p543
I1
sVd1t2a02
p544
I1
sVcz0hvtv
p545
I2
sVdhhqoxj
p546
I1
sVdgtnv7q
p547
I1
sVd05r084
p548
I2
sVdcx04en
p549
I2
sVd7tgia9
p550
I1
sVdfkozho
p551
I1
sVdmxea9a
p552
I1
sVddw3ukz
p553
I1
sVdehg0ng
p554
I1
sVd3zdu95
p555
I1
sVd0hwhxb
p556
I1
sVd4xdgr8
p557
I1
sVd1l4ljy
p558
I1
sVdef0rmw
p559
I1
sVd1n1nz4
p560
I1
sVd44oshm
p561
I1
sVddub3r5
p562
I1
sVdas8nwv
p563
I1
sVd3u7lgn
p564
I1
sVd058uyp
p565
I1
sVd53i51w
p566
I1
sVdb57ruz
p567
I1
sVdgthaft
p568
I1
sVd5x0kkx
p569
I2
sVd7yz3gy
p570
I1
sVdnqqeml
p571
I1
sVd5vcusd
p572
I1
sVdf2f3qs
p573
I1
sVd2xfkol
p574
I1
sVd0gja32
p575
I1
sVd41dw36
p576
I1
sVde4idjv
p577
I1
sVdjdmd4c
p578
I1
sVddsz0zk
p579
I1
sVd5fj3ra
p580
I1
sVd0emkv8
p581
I3
sVcznj40c
p582
I1
sVd55fnl8
p583
I1
sVczb79xw
p584
I1
sVdewhovc
p585
I1
sVd9wsj9l
p586
I1
sVdn8uwiu
p587
I1
sVcz4szvd
p588
I1
sVd19mf4r
p589
I1
sVd5bjp4k
p590
I1
sVd9hljnr
p591
I1
sVd054fo0
p592
I1
sVd0hveuu
p593
I1
sVdr6fgw3
p594
I1
sVdsbswg0
p595
I1
sVddzbslf
p596
I3
sVdetsae4
p597
I1
sVd5wwcef
p598
I1
sVdcdk2xh
p599
I1
sVdigt4mf
p600
I2
sVdchy6cb
p601
I1
sVdgrqbkt
p602
I1
s.