(dp0
Vczr23e0
p1
I1
sVd8t64um
p2
I1
sVd36433j
p3
I1
sVczmduez
p4
I1
sVdgsck3g
p5
I1
sVds4x3ad
p6
I1
sVd7d8bru
p7
I2
sVdeujevt
p8
I1
sVd2cpas7
p9
I1
sVd3d6yr5
p10
I1
sVd8fhst9
p11
I1
sVcz5yvue
p12
I1
sVdfg2xti
p13
I1
sVcz1pypu
p14
I1
sVczy8dri
p15
I1
sVdedc0a7
p16
I1
sVdjnnifv
p17
I1
sVdceiu36
p18
I1
sVdmi3sti
p19
I1
sVdpqt466
p20
I1
sVdd5avkm
p21
I1
sVdcx8k87
p22
I1
sVd99ifac
p23
I1
sVd77dbtp
p24
I1
sVdauhktd
p25
I1
sVd4l58ba
p26
I1
sVdrthdc1
p27
I1
sVdop2d5r
p28
I1
sVd8nj3k8
p29
I1
sVdpv6vc3
p30
I1
sVdfs9ae3
p31
I1
sVd1r51fb
p32
I1
sVdnwc6xe
p33
I1
sVd2agwxr
p34
I1
sVdisa6f5
p35
I1
sVda69wuj
p36
I1
sVdidv8w7
p37
I1
sVd5ua2gu
p38
I1
sVdfjfl1u
p39
I1
sVd3mmn2t
p40
I1
sVdk59i2a
p41
I1
sVd4voykw
p42
I1
sVd017dne
p43
I1
sVde3wu16
p44
I1
sVdgzvado
p45
I1
sVddopvhx
p46
I1
sVdksg5wm
p47
I1
sVd0nr6zy
p48
I1
sVd4t29tw
p49
I2
sVda1uq9z
p50
I1
sVdq5qi7m
p51
I1
sVd80zedz
p52
I1
sVdhj7hq2
p53
I1
sVd10sgu9
p54
I1
sVdgmfw53
p55
I1
sVd2nkder
p56
I1
sVd5y1fwd
p57
I1
sVd6wsex0
p58
I1
sVd8enn41
p59
I1
sVd6bqhpm
p60
I1
sVdau34z0
p61
I1
sVdn0w7w3
p62
I2
sVd2q40hr
p63
I1
sVdim70j0
p64
I1
sVd5vzp57
p65
I1
sVd2gkn7o
p66
I1
sVd2r4unt
p67
I1
sVdk5ttm0
p68
I1
sVdclotax
p69
I1
sVdh2fsck
p70
I1
sVdcar603
p71
I1
sVds5omrh
p72
I1
sVd31t4eo
p73
I1
sVd5zj4vs
p74
I1
sVdnypwg8
p75
I1
sVczv61hf
p76
I1
sVdol5820
p77
I1
sVdjhk1s0
p78
I1
sVdmt0eg7
p79
I1
sVdjszdol
p80
I1
sVd3dhcne
p81
I1
sVdbi7pg9
p82
I1
sVdqn41g8
p83
I1
sVczassgs
p84
I1
sVdbavjuk
p85
I1
sVd3nu996
p86
I1
sVdoyqxf9
p87
I2
sVdh75aww
p88
I1
sVdhc4sc6
p89
I1
sVda66hrp
p90
I1
sVdbn5d4i
p91
I1
sVdi3zyey
p92
I1
sVddrkuk4
p93
I1
sVdjtiv46
p94
I1
sVczqgj5x
p95
I1
sVdakpgbj
p96
I1
sVd6qfuwc
p97
I1
sVddbsp2d
p98
I1
sVdb85sy9
p99
I1
sVd6wy3ze
p100
I1
sVdpi00nz
p101
I1
sVdqzepx4
p102
I1
sVdajyj2d
p103
I1
sVdckwjxe
p104
I1
sVddzek48
p105
I1
sVd1arpau
p106
I1
sVdch2hbh
p107
I1
sVdcxd9me
p108
I1
sVdks30aw
p109
I1
sVczpo5ia
p110
I1
sVd09ojon
p111
I1
sVd2az1xy
p112
I1
sVdpzyxjz
p113
I1
sVdb0sakm
p114
I1
sVd1kh26c
p115
I1
sVczxrl4w
p116
I1
sVdmzvcjj
p117
I1
sVdptljoe
p118
I1
sVd090xc5
p119
I1
sVdqef57z
p120
I1
sVdbyxzs6
p121
I1
sVdooiw7u
p122
I1
sVdjfvjiy
p123
I1
sVd8waqt0
p124
I1
sVda0h4yd
p125
I1
sVd0i8v0r
p126
I1
sVdsvv0j0
p127
I1
sVd7z9hjs
p128
I1
sVdg7g4q0
p129
I1
sVd0tkbcw
p130
I1
sVd20lmry
p131
I1
sVdh6vccy
p132
I1
sVd24mk97
p133
I1
sVdn0r6um
p134
I1
sVdirjoxl
p135
I1
sVd4db9z3
p136
I1
sVdrrsw1x
p137
I1
sVddagjpc
p138
I1
sVdkx5el5
p139
I1
sVds50q23
p140
I1
sVd8m81fu
p141
I1
sVd7hmi05
p142
I1
sVdcynrqn
p143
I1
sVdkn65wt
p144
I1
sVdoi2zmf
p145
I1
sVd5yus4i
p146
I2
sVd80t0f0
p147
I1
sVddmk1m3
p148
I1
sVd5gurrx
p149
I1
sVd03ee24
p150
I1
sVde0eyqx
p151
I1
sVd9ykub3
p152
I1
sVd7c2qpo
p153
I1
sVda0fpmk
p154
I1
sVdfk5bax
p155
I1
sVczmyafa
p156
I1
sVdj87hwn
p157
I1
sVd17yo1u
p158
I1
sVdjwr0sx
p159
I1
sVd835cnz
p160
I1
sVd7t1a05
p161
I2
sVd0kj2gt
p162
I1
sVdt4g6fd
p163
I1
sVdobsrrv
p164
I1
sVd0v4mw4
p165
I1
sVd2mkvum
p166
I1
sVdjcib2g
p167
I1
sVd27krpg
p168
I1
sVdei27vv
p169
I1
sVdghrbss
p170
I1
sVdqocz8a
p171
I1
sVdcnzd3r
p172
I2
sVd5okwnw
p173
I1
sVd7njzko
p174
I1
sVdhlfq71
p175
I1
sVdjht1aq
p176
I1
sVd6tcqrx
p177
I1
sVd9kdsd0
p178
I1
sVdgukajf
p179
I1
sVdai1jvj
p180
I1
sVd0gdt9l
p181
I1
sVd7yedfp
p182
I1
sVdktidil
p183
I1
sVdgzfmg1
p184
I1
sVdr1mp57
p185
I1
sVcz4ipmb
p186
I1
sVd0o0bsz
p187
I1
sVdnnxpg6
p188
I1
sVd9qurz8
p189
I1
sVd1h8q3f
p190
I1
sVdkgw039
p191
I1
sVdcwamxn
p192
I1
sVd8s92w3
p193
I1
sVdbq8cz5
p194
I1
sVdkv5o5a
p195
I1
sVczct9q0
p196
I1
sVde4c4p6
p197
I1
sVdgmr8qi
p198
I1
sVdde5ven
p199
I1
sVczso0ni
p200
I1
sVczujmgl
p201
I1
sVdf1s1x2
p202
I1
sVdd48shp
p203
I1
sVdegq935
p204
I1
sVd3gv8ku
p205
I1
sVdgf3wts
p206
I1
sVdmhwy64
p207
I2
sVcyv2ayf
p208
I1
sVd6mdhf7
p209
I1
sVd84x2dc
p210
I1
sVdfglglz
p211
I1
sVd6v6qw1
p212
I1
sVddgt4z4
p213
I1
sVczwg9em
p214
I1
sVdbi9ql2
p215
I1
sVcyt4ikc
p216
I1
sVd4kwy9j
p217
I1
sVdn892w5
p218
I2
sVdg2kuqt
p219
I1
sVd70sfic
p220
I1
sVdfgpdyr
p221
I1
sVd5klzqj
p222
I1
sVdgbnjp1
p223
I1
sVdbawc42
p224
I1
sVd59f9gf
p225
I1
sVd94o831
p226
I1
sVd05odop
p227
I1
sVd7mq8f5
p228
I1
sVd9lqnxw
p229
I1
sVcz5b9pt
p230
I1
sVd14h31o
p231
I1
sVdk1drqb
p232
I1
sVdthbgvw
p233
I1
sVdg5uru5
p234
I1
sVdbata94
p235
I1
sVdfgq4jh
p236
I1
sVd0rz09m
p237
I1
sVdhsnkwj
p238
I1
sVdg4sjqf
p239
I1
sVcyzz2il
p240
I1
sVd8xr6z4
p241
I1
sVcz82zgj
p242
I1
sVd2b2una
p243
I1
sVcyqnboy
p244
I1
sVdgj0h1f
p245
I1
sVdkzmm4x
p246
I1
sVd0fdhvd
p247
I1
sVdommda2
p248
I1
sVdrsk6jb
p249
I1
sVd3dooox
p250
I2
sVdqhkx06
p251
I1
sVdgydh27
p252
I1
sVdkd2ghx
p253
I2
sVdg4tdu0
p254
I1
sVdhzg2bb
p255
I1
sVd6ugzxi
p256
I1
sVdd2dd7t
p257
I1
sVd985g9o
p258
I1
sVdnlhggr
p259
I1
sVd8x4zob
p260
I1
sVd7d0t2t
p261
I1
sVdip0zhe
p262
I2
sVd50iskv
p263
I1
sVddrr00n
p264
I1
sVdqk1onc
p265
I1
sVdo6dyt2
p266
I1
sVdctuvhv
p267
I1
sVd7haw66
p268
I1
sVdpw6dyh
p269
I1
sVd6dv3fi
p270
I1
sVdmquc4g
p271
I1
sVdfp9a5x
p272
I1
sVdmelewe
p273
I1
sVdmqvoq8
p274
I1
sVdc3vihg
p275
I1
sVdmoloni
p276
I2
sVd2pym3g
p277
I1
sVd0we9cm
p278
I1
sVdh16zh6
p279
I1
sVdkajp5t
p280
I1
sVdd60qf6
p281
I1
sVd19xwqp
p282
I1
sVdrsmwx4
p283
I1
sVdfk5zss
p284
I1
sVdcb58rn
p285
I1
sVddnbo3l
p286
I1
sVdde054k
p287
I1
sVd9yz12h
p288
I1
sVdivcx0o
p289
I1
sVdjpvck5
p290
I1
sVdbaasmz
p291
I1
sVded9vf6
p292
I1
sVd3ijplc
p293
I1
sVdf2585v
p294
I1
sVdgiciqq
p295
I1
sVdd1o3kk
p296
I1
sVdfl1oa8
p297
I1
sVd7p8702
p298
I1
sVdjegjor
p299
I1
sVd9r5ti3
p300
I1
sVddqxqms
p301
I1
sVd3yu4fk
p302
I1
sVd8shmik
p303
I1
sVddrwbj2
p304
I1
sVd97bpd6
p305
I1
sVdmiedbi
p306
I1
sVdb0t4qt
p307
I2
sVdnfqoha
p308
I1
sVdhyxzjy
p309
I1
sVdq6dzws
p310
I1
sVd93z9yl
p311
I1
sVd8ee4ic
p312
I1
sVd3bmsp2
p313
I1
sVd35f2ye
p314
I1
sVd07bs6i
p315
I1
sVdjxe6w1
p316
I1
sVdrzduyb
p317
I1
sVd2dh82v
p318
I1
sVd7a0ce9
p319
I1
sVd12h8rr
p320
I1
sVdgtjh0f
p321
I1
sVcykrnpk
p322
I1
sVd5krvzo
p323
I1
sVd33wwhx
p324
I1
sVdmnd93v
p325
I1
sVcyumqzi
p326
I1
sVd6kfqrv
p327
I1
sVd3bgvft
p328
I1
sVdiebhi4
p329
I1
sVd7fovdv
p330
I1
sVdqfbv28
p331
I1
sVd2bwc06
p332
I1
sVdipm08g
p333
I1
sVd7kcg5j
p334
I1
sVczi5nf3
p335
I1
sVdgy40c7
p336
I1
sVdasxfsa
p337
I2
sVdihn9kt
p338
I1
sVdfshcwv
p339
I1
sVdnae57e
p340
I1
sVdgrgymv
p341
I1
sVdj99nnk
p342
I1
sVdmvbpv7
p343
I1
sVd2d7vnq
p344
I1
sVdjezhrf
p345
I1
sVdmf1yax
p346
I1
sVcz48gno
p347
I1
sVdgs4lvx
p348
I1
sVdjwu22x
p349
I1
sVd1gaj1g
p350
I1
sVd0wvyfi
p351
I1
sVdbpijv4
p352
I1
sVdhv5471
p353
I1
sVd459c9b
p354
I1
sVd9qnt9p
p355
I1
sVd0c1vyz
p356
I1
sVczh3ntq
p357
I3
sVd1w7cbo
p358
I1
sVdbdt708
p359
I1
sVdez3d9i
p360
I1
sVdrv7xfn
p361
I1
sVd2sa0f4
p362
I2
sVdhna25o
p363
I1
sVdb0d1lm
p364
I1
sVd63gpk2
p365
I1
sVcz9l9as
p366
I1
sVd6egkft
p367
I1
sVcywm5tl
p368
I1
sVcyzcy8t
p369
I1
sVdk5hmwt
p370
I1
sVdjcgq82
p371
I1
sVdkmahf5
p372
I1
sVd275sd6
p373
I2
sVdc77l0z
p374
I1
sVdpyzk5p
p375
I1
sVdj2vi13
p376
I1
sVdsbyl0l
p377
I1
sVdcxl0zz
p378
I1
sVdgfj19s
p379
I2
sVd97pnw3
p380
I1
sVcyytr4t
p381
I1
sVd4ei3is
p382
I1
sVcyznt3m
p383
I1
sVd57udqp
p384
I1
sVd2zjecq
p385
I1
sVd67ysxa
p386
I1
sVd14q5bi
p387
I1
sVddp3424
p388
I1
sVdhcfst6
p389
I1
sVd483mn9
p390
I1
sVd8932yf
p391
I1
sVd2fdf6r
p392
I1
sVdjcdhqw
p393
I1
sVd0eybgq
p394
I1
sVdhn8mzn
p395
I1
sVd2sgw2n
p396
I1
sVd4lm5aq
p397
I1
sVd3n5vg4
p398
I1
sVczdg3gc
p399
I1
sVd0wzoyg
p400
I1
sVda1t638
p401
I1
sVd5t1rbs
p402
I2
sVdb5ojfh
p403
I1
sVd847g9r
p404
I1
sVd1ytw0c
p405
I1
sVdg4a7vv
p406
I1
sVddjty0g
p407
I1
sVdn34cfm
p408
I1
sVd7vy89p
p409
I1
sVd7ln67v
p410
I1
sVd5hk78u
p411
I2
sVdewze34
p412
I1
sVdimkzgl
p413
I1
sVdknl9we
p414
I1
sVdo7306b
p415
I1
sVds7p2rh
p416
I1
sVd82njb5
p417
I1
sVd40r0iz
p418
I1
sVdiu4dlt
p419
I2
sVd47npgy
p420
I1
sVdf7ot1k
p421
I1
sVdemzj2v
p422
I1
sVcyz2tux
p423
I2
sVd2vsoxc
p424
I1
sVdd27vgp
p425
I1
sVdb8lux3
p426
I1
sVd2si2o2
p427
I1
sVdj14apl
p428
I1
sVd9amdka
p429
I1
sVczmhxkm
p430
I1
sVd25wxif
p431
I1
sVd1egrss
p432
I1
sVdfjw6iw
p433
I1
sVdi0nmzp
p434
I1
sVd24bz47
p435
I1
sVd7k99r2
p436
I1
sVcywbujc
p437
I1
sVd669zh5
p438
I1
sVdg156u3
p439
I1
sVd6e7iv2
p440
I1
sVd1so3ug
p441
I1
sVd0itz43
p442
I1
sVdhg1w51
p443
I1
sVda6v4fx
p444
I1
sVd45wmte
p445
I1
sVdnrcs3p
p446
I1
sVd03ql7t
p447
I1
sVdft1tv6
p448
I1
sVd4z2y0m
p449
I1
sVd7r99uo
p450
I1
sVddve5m4
p451
I1
sVde7l9pz
p452
I1
sVd1wm6gg
p453
I1
sVdgcb721
p454
I1
sVd16m5ou
p455
I1
sVdctxr28
p456
I1
sVdcc8jfx
p457
I1
sVczz955e
p458
I1
sVd9a81hm
p459
I1
sVdgyoidj
p460
I1
sVd834o0a
p461
I1
sVdblp5nv
p462
I1
sVdau54nz
p463
I1
sVde3lwc6
p464
I1
sVdffl4qv
p465
I2
sVd0huf62
p466
I1
sVd9brwje
p467
I1
sVd70pmso
p468
I1
sVdi3o15p
p469
I1
sVd0qelkg
p470
I1
sVdo1ysjl
p471
I1
sVd7a923k
p472
I1
sVdo1t395
p473
I1
sVdj3ylso
p474
I2
sVczcffxy
p475
I1
sVdjg3gn2
p476
I1
sVd1anjkf
p477
I1
sVdbk4fgn
p478
I1
sVdd7mqsc
p479
I2
sVdc62gyr
p480
I1
sVdikdpfv
p481
I1
sVd7qvzks
p482
I2
sVdbon4cw
p483
I1
sVd2zufpu
p484
I1
sVd3s18rz
p485
I1
sVczl3u54
p486
I1
sVcz9g82t
p487
I1
sVddkcy19
p488
I1
sVdswmr09
p489
I1
sVd4f1njs
p490
I1
sVdnn14so
p491
I1
sVdr0uj4m
p492
I2
sVd9tgt90
p493
I1
sVd0pb6hj
p494
I1
sVd18p6f2
p495
I1
sVdg2w270
p496
I2
sVd1qe11a
p497
I1
sVcz2n5da
p498
I1
sVd4nun8p
p499
I1
sVdd73m9a
p500
I1
sVdax3by2
p501
I1
sVdil7pi5
p502
I1
sVd84uuxr
p503
I1
sVda6rl09
p504
I1
sVdhoehw5
p505
I1
sVdnywfx9
p506
I1
sVd23ibp2
p507
I1
sVdo3zpt4
p508
I1
sVd57v1ix
p509
I1
sVdpdl6px
p510
I1
sVdruvwih
p511
I1
sVdeac8lt
p512
I1
sVd6m5ipv
p513
I1
sVde0masv
p514
I1
sVd1xaaka
p515
I1
sVdiqeit8
p516
I1
sVcyogevo
p517
I1
sVd45v3e6
p518
I2
sVdfqod3w
p519
I1
sVdigxvc5
p520
I1
sVd1rzv05
p521
I1
sVcyqt0f7
p522
I1
sVdt9g1hv
p523
I1
sVcyn2kkw
p524
I1
sVd01s4t3
p525
I1
sVdihxovo
p526
I1
sVd82bs8b
p527
I2
sVds1w6h9
p528
I2
sVdmrby2w
p529
I1
sVdctdi9m
p530
I1
sVcz6r5ux
p531
I1
sVdj8k1yg
p532
I1
sVd10066s
p533
I1
sVd1an3hf
p534
I1
sVd2ifcnq
p535
I2
sVd65ozh1
p536
I1
sVdgp3mri
p537
I1
sVdctg473
p538
I1
sVd0vphqg
p539
I1
sVd69encr
p540
I1
sVczwsgga
p541
I1
sVdnrq8pp
p542
I1
sVd2okb72
p543
I1
sVdqarnzt
p544
I1
sVd27pafc
p545
I1
sVd0j4xyw
p546
I1
sVdjhf2ty
p547
I1
sVd0m69yv
p548
I1
sVcz6ly06
p549
I1
sVdfg8o7l
p550
I1
sVdikxctw
p551
I1
sVdrzunsq
p552
I1
sVdtihrl0
p553
I1
sVd7l64nj
p554
I1
sVdc765pj
p555
I1
sVd01chx6
p556
I1
sVdepwmvt
p557
I1
sVdip0w4o
p558
I1
sVd65rl7w
p559
I2
sVd28u65v
p560
I1
sVczmh02x
p561
I1
sVde1wv1e
p562
I1
sVdbpuh6x
p563
I1
sVd2yydpn
p564
I1
sVdmwwqlt
p565
I2
sVdrec1kl
p566
I1
sVd0fnac7
p567
I1
sVd7v2lmn
p568
I1
sVd9fnwia
p569
I1
sVdacnwij
p570
I1
sVdgfet28
p571
I1
sVdahkajx
p572
I2
sVd76edvw
p573
I1
sVd57jd2p
p574
I1
sVdsdm1pz
p575
I1
sVd50c71k
p576
I1
sVdsob45m
p577
I1
sVdq2ucm8
p578
I1
sVd67bpcc
p579
I1
sVd3tqljt
p580
I1
sVdcaejfr
p581
I2
sVdkgqv7s
p582
I1
sVdj20qan
p583
I1
sVd7u16o3
p584
I1
sVd27897d
p585
I1
sVdatxrqr
p586
I2
sVddmikyw
p587
I1
sVcys39mg
p588
I2
sVdcdoboe
p589
I1
sVdg2ctvk
p590
I1
sVdap1ajv
p591
I1
sVd81mson
p592
I1
sVd3genrk
p593
I1
sVd7nzttp
p594
I1
sVd1qgybi
p595
I1
sVdercr7v
p596
I1
sVd9vx96j
p597
I1
sVd7b3x2g
p598
I1
sVdbijjql
p599
I1
sVd0abrxi
p600
I1
sVdgi5hnm
p601
I1
sVdrzlqi9
p602
I1
sVdeounhf
p603
I1
sVdrt65jz
p604
I1
sVd3zg1a3
p605
I1
sVdqb1rdd
p606
I1
sVd9mzw9u
p607
I1
sVd5a25d1
p608
I1
sVd5y3cbl
p609
I1
sVdbb20tf
p610
I1
sVd1il8j7
p611
I1
sVd0lisuh
p612
I1
sVcyw32iv
p613
I1
sVd2519sp
p614
I1
sVdkx0946
p615
I1
sVdqnrrg6
p616
I1
sVdfwu8dm
p617
I1
sVcz7s95s
p618
I1
sVdiknich
p619
I1
sVde935uf
p620
I1
sVczm6bou
p621
I1
sVcz5l3r9
p622
I1
sVd39yvue
p623
I1
sVd3sqxn1
p624
I1
sVdk04rtz
p625
I1
sVddn9ae3
p626
I1
sVdeatxgf
p627
I1
sVdhr9l95
p628
I1
sVdfoj1cs
p629
I1
sVd1ha7ng
p630
I1
sVd8ex18q
p631
I1
sVdn6ka4j
p632
I1
sVdh11shs
p633
I1
sVd8i07d9
p634
I2
sVddgnx9m
p635
I1
sVdatpj2f
p636
I1
sVdn4o5m2
p637
I1
sVddtfjdi
p638
I1
sVdes457k
p639
I1
sVd23o5i5
p640
I1
sVdn1j99m
p641
I1
sVd1p0cii
p642
I1
sVdndd5yz
p643
I1
sVdcql1t2
p644
I1
sVddgwu4n
p645
I1
sVdb4uoe6
p646
I1
sVd1yu5v0
p647
I1
sVd6ra4p4
p648
I1
sVczvdyrz
p649
I1
sVdeo1lr1
p650
I1
sVdmhzwwo
p651
I1
sVd13mp07
p652
I1
sVdjrmgjt
p653
I1
sVcyjjm43
p654
I1
sVd1tiooo
p655
I1
sVdhv421q
p656
I1
sVczi93ux
p657
I1
sVdprfcwv
p658
I1
sVdefjbzv
p659
I1
sVd72vbbz
p660
I1
sVdc5jfqu
p661
I1
sVdf6ymdi
p662
I1
sVdfjrkjz
p663
I1
sVd7b1p4j
p664
I1
sVdg3oaza
p665
I1
sVd9vumuk
p666
I1
sVdat27qq
p667
I1
sVdjv1o02
p668
I1
sVd5q7zae
p669
I1
sVdhn6a0p
p670
I1
sVdms6ptf
p671
I1
sVcym8a1e
p672
I1
sVdc0upwf
p673
I1
sVd8pwxxv
p674
I1
sVddgp9a3
p675
I1
sVdg5w9sp
p676
I1
sVdgzw2wk
p677
I1
sVd0ptiwp
p678
I1
sVd30m36x
p679
I1
sVd6ocwpz
p680
I1
sVd0f6ego
p681
I1
sVdmw1i3t
p682
I1
sVdg2i6hs
p683
I1
sVd5gbn04
p684
I1
sVdcmgidv
p685
I1
sVdjtlyze
p686
I1
sVdi8q2nm
p687
I1
sVd02hi5v
p688
I1
sVczah1sl
p689
I1
sVd1d8wbo
p690
I1
sVcz6ut6o
p691
I1
sVd0lls7v
p692
I1
sVczb438r
p693
I1
sVdiga5lw
p694
I1
sVd0o2o23
p695
I1
sVd4ksbum
p696
I1
sVdqitb3x
p697
I1
sVdolm374
p698
I1
sVdsyw8i6
p699
I1
sVd0qepm8
p700
I1
sVdt82cue
p701
I1
sVd1hdz7y
p702
I1
sVdqsgmxp
p703
I1
sVcyz9lci
p704
I1
sVdnmf60u
p705
I1
sVd8g2oxe
p706
I1
sVdgaxz1r
p707
I1
sVd8zctoh
p708
I1
sVczzirsn
p709
I1
sVd08ghhw
p710
I1
sVd4v1jze
p711
I1
sVdhzoovu
p712
I1
sVczeig4q
p713
I1
sVdbspc2t
p714
I1
sVdc8pnyj
p715
I1
sVd9tdofk
p716
I1
sVd1fmc73
p717
I1
sVd00e9wq
p718
I1
sVdfzx7lf
p719
I1
sVdinmrtt
p720
I1
sVdp8gfxu
p721
I1
sVdrox4x9
p722
I1
sVdk22y93
p723
I1
sVdrm35qe
p724
I1
sVd5kaues
p725
I1
sVdml3ukw
p726
I1
sVdhgp8on
p727
I1
sVdhb8qh4
p728
I1
sVdcu0xbw
p729
I1
sVd623gym
p730
I1
sVdtbe8et
p731
I1
sVdc4e0d7
p732
I1
sVdj2jrey
p733
I1
sVd65mwsx
p734
I1
sVd01cen5
p735
I1
sVdaj4ze5
p736
I1
sVd6lggn6
p737
I1
sVd3e8hf4
p738
I1
sVd0adeix
p739
I1
sVd50wxsa
p740
I1
sVd7hojnx
p741
I1
sVdetr0tt
p742
I1
sVdb8y1ck
p743
I1
sVd16qq5j
p744
I1
sVdjnsxmt
p745
I1
sVd0m3jms
p746
I1
sVdfpbq2a
p747
I1
sVd0m3sdf
p748
I1
sVd8o60fq
p749
I1
sVd053wd5
p750
I1
sVdo05ksh
p751
I1
sVdhqyrgg
p752
I1
sVdqwscc0
p753
I1
sVdp4ic7o
p754
I1
sVd4okq3h
p755
I1
sVdaz8voc
p756
I1
sVd6rs50s
p757
I1
sVdon37zs
p758
I1
sVdgoz9ym
p759
I1
sVdsd2zuz
p760
I1
sVd5prcu7
p761
I1
sVd1vise3
p762
I1
sVd5kjlqf
p763
I1
sVdame0jk
p764
I1
sVdpeorsx
p765
I1
sVdo2rd9b
p766
I1
sVd5qabv6
p767
I1
sVdea4p8q
p768
I1
sVcyqqelz
p769
I1
sVd1yl80h
p770
I2
sVdcm4ptf
p771
I1
sVd2tv08r
p772
I1
sVczi76se
p773
I1
sVdevv3xb
p774
I1
sVd6vpijn
p775
I1
sVdishefm
p776
I1
sVdg5tlzw
p777
I1
sVd2k2vse
p778
I1
sVczdy1zo
p779
I1
sVdkqaany
p780
I1
sVd3ut3m4
p781
I1
sVd9z0xgr
p782
I1
sVdh36aho
p783
I2
sVdc6ce8j
p784
I1
sVdpbryi5
p785
I1
sVdoq8jdi
p786
I1
sVdaxpjv7
p787
I1
sVd9d4xv7
p788
I1
sVdgpyrp1
p789
I1
sVd05m8wc
p790
I1
sVd71xwyf
p791
I1
sVczn3gbp
p792
I1
sVdnb62hf
p793
I1
sVd0za7zt
p794
I1
sVd4evr58
p795
I1
sVdrzlzji
p796
I2
sVd4te4ln
p797
I1
sVddq5ha4
p798
I1
sVd83wcov
p799
I1
sVdcsyr1k
p800
I1
sVdel1neq
p801
I1
sVdkn5tyk
p802
I1
sVd39uyf6
p803
I2
sVd0lrm4s
p804
I1
sVdch26qx
p805
I1
sVcz98na4
p806
I1
sVd6mcilw
p807
I1
sVdgiccw5
p808
I1
sVdqnavz2
p809
I1
sVdd8loa3
p810
I1
sVd8dxh8w
p811
I1
sVd1og6gn
p812
I1
sVdeygxdt
p813
I2
sVdj4izjd
p814
I2
sVczci0m2
p815
I1
sVdc7qnuw
p816
I2
sVdi0hyrz
p817
I1
sVdbb3ldp
p818
I1
sVdjrbiu0
p819
I1
sVd65v7zt
p820
I1
sVczphwf0
p821
I1
sVdeny8j7
p822
I1
sVdjuseoi
p823
I1
sVd18d5n5
p824
I1
sVd0gwlss
p825
I1
sVcz3xffu
p826
I1
sVd3bx8u7
p827
I1
sVd676dod
p828
I1
sVdt8isxe
p829
I1
sVd4zq9qp
p830
I1
sVdfs4h7b
p831
I1
sVdbmrx4t
p832
I1
sVcyqxdmz
p833
I1
sVdpjccva
p834
I1
sVdbm0rry
p835
I1
sVcyv904a
p836
I1
sVcz9xkhr
p837
I1
sVdg5psds
p838
I1
sVdg3dc3g
p839
I1
sVd4h4ta7
p840
I1
sVdo9iajs
p841
I1
sVcz57ti1
p842
I1
sVdi8zp36
p843
I1
sVd63r7lz
p844
I1
sVdfth8w9
p845
I1
sVdao9ey0
p846
I1
sVddgc8p2
p847
I1
sVdokv1ql
p848
I1
sVdecmwwd
p849
I1
sVdjhbtqd
p850
I1
sVd57d2ox
p851
I1
sVcyue85w
p852
I1
sVd1q5xo5
p853
I1
sVdewlwcf
p854
I1
sVdorajh9
p855
I1
sVdid33dk
p856
I1
sVdd9inx0
p857
I1
sVd8zwwr9
p858
I2
sVdply0kp
p859
I1
sVdaggwoj
p860
I1
sVd4bo1ok
p861
I1
sVczajfx6
p862
I1
sVd21wqwq
p863
I1
sVdk29t67
p864
I1
sVdfkjnb1
p865
I1
sVd65tuyj
p866
I1
sVd5jbb4l
p867
I1
sVd8sstzx
p868
I1
sVd76yc97
p869
I1
sVd2887tk
p870
I1
sVdfcdtoh
p871
I1
sVd6an1e9
p872
I1
sVczyjsbr
p873
I1
sVdqbkvhx
p874
I1
sVdj68bt3
p875
I1
sVd8t1dar
p876
I1
sVd8bsvs9
p877
I1
sVczlil60
p878
I1
sVd625im4
p879
I1
sVd7np9az
p880
I1
sVdhrs6en
p881
I1
sVdgr2ztx
p882
I1
sVd2x8e0r
p883
I1
sVd8micqp
p884
I1
sVdaghf9x
p885
I1
sVd5yr6os
p886
I1
sVd84amio
p887
I1
sVdjc0s6p
p888
I1
sVczi22lu
p889
I1
sVcyx1jkj
p890
I1
sVd3hxmef
p891
I1
sVd4eg2wc
p892
I1
sVcyzlh8j
p893
I1
sVdckrhhe
p894
I1
sVczelegs
p895
I2
sVdq898l2
p896
I1
sVd9b7s9p
p897
I1
sVdf7e930
p898
I1
sVd9d32nq
p899
I1
sVd1inrdl
p900
I1
sVdil2gia
p901
I1
sVd48y5ys
p902
I1
sVd6d8aaa
p903
I1
sVdapga5h
p904
I1
sVdq4qxzi
p905
I1
sVd6zul9b
p906
I1
sVd4vsdnj
p907
I1
sVd01i9a0
p908
I1
sVdqgbgiw
p909
I1
sVdhji3z1
p910
I1
sVcyqavii
p911
I1
sVdre382c
p912
I1
sVd6kpi0j
p913
I1
sVcz1umcz
p914
I1
sVdktrrmp
p915
I1
sVd5qxflw
p916
I1
sVds6vcwo
p917
I1
sVd0jo7ux
p918
I1
sVd1p6gfx
p919
I1
sVd7e0j1u
p920
I1
sVdsiysce
p921
I1
sVdh7h8ze
p922
I1
sVdixe4vu
p923
I1
sVd9f9jgn
p924
I1
sVdfv0vtn
p925
I1
sVd1l5782
p926
I1
sVd4ry1d6
p927
I1
sVdo8h761
p928
I1
sVdj2t6gq
p929
I1
sVd3vhg05
p930
I1
sVdkzl0kn
p931
I1
sVd8ce9os
p932
I1
sVdppvpa7
p933
I1
sVd06g8km
p934
I1
sVd6lykh7
p935
I1
sVd0p96tx
p936
I1
sVdbriw6e
p937
I1
sVdj5le4w
p938
I1
sVd3pvswt
p939
I1
sVd3lrxsg
p940
I1
sVd6qs33f
p941
I1
sVd0tf3vr
p942
I1
sVd1kw990
p943
I1
sVd4rx6xf
p944
I1
sVdnxlsws
p945
I1
sVd5iv8bp
p946
I2
sVcyl0jxb
p947
I1
sVdg96rch
p948
I1
sVd2i1nbx
p949
I1
sVd94jqvt
p950
I1
sVd2hqwww
p951
I1
sVdov3djc
p952
I1
sVd46gk5a
p953
I1
sVd48xjuh
p954
I1
sVcz7qdly
p955
I1
sVdc1oxn0
p956
I1
sVda6ecbo
p957
I1
sVczkgnhh
p958
I1
sVdc88kpi
p959
I1
sVd4cesnl
p960
I1
sVdc6henx
p961
I1
sVcz1beby
p962
I1
sVdh35utd
p963
I1
sVd9dsvu4
p964
I1
sVd2f287b
p965
I1
sVdd7j9bj
p966
I2
sVd2irq6v
p967
I1
sVdel4dx4
p968
I1
sVd8539iq
p969
I1
sVdmrsgry
p970
I2
sVdgaydfj
p971
I1
sVddwl9fq
p972
I1
sVdnv3caj
p973
I1
sVdsqnsj1
p974
I3
sVd4munk0
p975
I1
sVdjvdsby
p976
I1
sVdddsdtk
p977
I1
sVdbn6ndp
p978
I1
sVdhfsw3m
p979
I1
sVdfdtvxq
p980
I1
sVd9cphy0
p981
I1
sVdhs62y4
p982
I1
sVd3ugats
p983
I1
sVdsq3sqk
p984
I1
sVd2wh2yr
p985
I1
sVdi20e78
p986
I1
sVd157ct4
p987
I1
sVd5qzkfn
p988
I1
sVczwjrvf
p989
I1
sVd63qtbu
p990
I1
sVd5vs19k
p991
I1
sVda0ey6w
p992
I1
sVdaz5ro4
p993
I1
sVd080vnz
p994
I1
sVd3i2lj7
p995
I2
sVdgqwjg0
p996
I1
sVdi84unj
p997
I1
sVd9k9w8j
p998
I1
sVcztbcig
p999
I1
sVddfvkrr
p1000
I1
sVd31n59f
p1001
I1
sVdeq5c4f
p1002
I1
sVdakrf6x
p1003
I1
sVd51q11k
p1004
I1
sVdneqkms
p1005
I1
sVd9wakpk
p1006
I1
sVdgtujmi
p1007
I1
sVd3vctvx
p1008
I1
sVd0oaciw
p1009
I1
sVdd8k5m6
p1010
I1
sVdnxmqdl
p1011
I1
sVcz0qb0d
p1012
I1
sVd2ft5vn
p1013
I1
sVd4k8w7e
p1014
I2
sVdos6e35
p1015
I1
sVds9oeme
p1016
I1
sVd1nau68
p1017
I1
sVdio66iw
p1018
I1
sVd06xt0w
p1019
I1
sVd27bvei
p1020
I1
sVdgz4x6w
p1021
I1
sVd7f8ir4
p1022
I1
sVcyj7z1o
p1023
I1
sVdigkdff
p1024
I1
sVd2l2syd
p1025
I1
sVd8qthho
p1026
I2
sVdo9wyr8
p1027
I1
sVczqppbk
p1028
I1
sVdkkryst
p1029
I1
sVd0qf1rg
p1030
I1
sVd6uex7p
p1031
I1
sVdc4d67j
p1032
I1
sVdcychbz
p1033
I1
sVdg7hdu9
p1034
I1
sVdntwo0i
p1035
I1
sVdg0hnnm
p1036
I1
sVd19u9nx
p1037
I1
sVd02j64q
p1038
I1
sVdatqm5d
p1039
I1
sVdgtgggg
p1040
I1
sVd1jm2r0
p1041
I1
sVd2auwkn
p1042
I1
sVdfkk4xn
p1043
I1
sVd21c9nt
p1044
I1
sVd1339vn
p1045
I1
sVdn63vlx
p1046
I1
sVd7tbf39
p1047
I1
sVddj83vx
p1048
I1
sVcyqt1uk
p1049
I1
sVdk3r36u
p1050
I1
sVdbji8r6
p1051
I1
sVdkqs32l
p1052
I1
sVdcmqgz2
p1053
I1
sVd660zbw
p1054
I1
sVd1jjrz2
p1055
I1
sVcys7z6v
p1056
I1
sVdc93rzk
p1057
I1
sVczc4opz
p1058
I1
sVcyndwz8
p1059
I1
sVdi9qow4
p1060
I1
sVd0175rf
p1061
I1
sVd2qr9br
p1062
I1
sVczwxt5j
p1063
I1
sVd245010
p1064
I1
sVcyvz80o
p1065
I1
sVdrm1sir
p1066
I1
sVdhtg99t
p1067
I1
sVdg7q96x
p1068
I1
sVd8syiev
p1069
I1
sVdpw7h2m
p1070
I1
sVd9v6hes
p1071
I1
sVdgpkb9p
p1072
I1
sVde8spo5
p1073
I1
sVd7nxdcp
p1074
I1
sVd6xg0qx
p1075
I1
sVdjv4a4w
p1076
I1
sVd1mt88i
p1077
I1
sVdmvk87t
p1078
I1
sVdad4nge
p1079
I1
sVd7oe3bp
p1080
I1
sVdjdmt8w
p1081
I1
sVdfkxzjx
p1082
I1
sVd4k0fjp
p1083
I1
sVdez9ppj
p1084
I1
sVd80mrx0
p1085
I1
sVd9mr8q6
p1086
I1
sVcz4l6pd
p1087
I1
sVcyt8ikf
p1088
I1
sVdfh7ipo
p1089
I1
sVdpgulh3
p1090
I1
sVdtgnar8
p1091
I1
sVdhjm21x
p1092
I1
sVd5lhzo0
p1093
I1
sVcyqufkc
p1094
I1
sVdslmfk9
p1095
I1
sVd9zkqid
p1096
I2
sVczfhn8i
p1097
I1
sVd4g5igw
p1098
I1
sVddof6s7
p1099
I1
sVdafbm71
p1100
I1
sVders5zl
p1101
I1
sVd5vph6v
p1102
I1
sVcyvm3op
p1103
I1
sVdo596uh
p1104
I1
sVdi7bbb0
p1105
I1
sVdq1doat
p1106
I1
sVdjb3zk6
p1107
I2
sVdb558jq
p1108
I1
sVd3202e0
p1109
I1
sVdkgbcra
p1110
I1
sVcywzzvp
p1111
I1
sVdbwokjw
p1112
I1
sVdclze5x
p1113
I1
sVd2s0pyy
p1114
I1
sVczu106w
p1115
I1
sVdimfun0
p1116
I1
sVdc5y8q2
p1117
I1
sVdf90qmj
p1118
I1
sVdc4w45q
p1119
I1
sVd02cfaq
p1120
I1
sVdeh4t4n
p1121
I1
sVd4lsk8y
p1122
I2
sVdmoewaj
p1123
I1
sVdonm6l6
p1124
I1
sVdhcv13i
p1125
I1
sVczf8xqb
p1126
I1
sVde2wyfn
p1127
I1
sVcznsicj
p1128
I1
sVd3qgpav
p1129
I1
sVdc2ndx2
p1130
I1
sVd66dpr3
p1131
I1
sVd10wq92
p1132
I1
sVdq93e1s
p1133
I1
sVcz0e79t
p1134
I1
sVd3md99k
p1135
I1
sVcz3he09
p1136
I1
sVdn7auiu
p1137
I1
sVdadex3a
p1138
I1
sVd2agh4m
p1139
I2
sVddrl362
p1140
I1
sVd4m00rn
p1141
I1
sVdnrhmfo
p1142
I1
sVd3qs6di
p1143
I1
sVdfjig3l
p1144
I1
sVdo614yg
p1145
I1
sVdh4xh2k
p1146
I1
sVd4z8kqr
p1147
I1
sVdgfknu3
p1148
I1
sVdr5t5ev
p1149
I1
sVd9n6dkr
p1150
I1
sVcyojler
p1151
I1
sVd5syv4g
p1152
I1
sVd90afg7
p1153
I1
sVdfu17hd
p1154
I1
sVdhjiqdm
p1155
I1
sVdb8xbz9
p1156
I1
sVdgmc7o8
p1157
I1
sVdh09ctt
p1158
I1
sVdighy61
p1159
I1
sVd2wrrv1
p1160
I1
sVdemxc5v
p1161
I1
sVd9tr1va
p1162
I1
sVd0uy8th
p1163
I1
sVdmi3kn6
p1164
I1
sVdi31urb
p1165
I1
sVd4uvzry
p1166
I1
sVdbb9313
p1167
I1
sVcyyos8b
p1168
I1
sVdfoili1
p1169
I1
sVcyv2cbx
p1170
I1
sVddpciz4
p1171
I1
sVdihdsxn
p1172
I1
sVd12wge4
p1173
I1
sVdizxaq7
p1174
I1
sVdbkiybx
p1175
I1
sVd0pf7bl
p1176
I1
sVcyqf1hv
p1177
I1
sVdpor6cw
p1178
I1
sVdnn96nf
p1179
I1
sVdkiodsw
p1180
I1
sVd31c1av
p1181
I1
sVdkx13ok
p1182
I1
sVd2riwbt
p1183
I1
sVd6emrar
p1184
I1
sVd984j9k
p1185
I1
sVd7iw39a
p1186
I1
sVd2rj5t2
p1187
I1
sVd7fp821
p1188
I1
sVd2bhzao
p1189
I1
sVcz1fhze
p1190
I1
sVd2i8xo6
p1191
I1
sVd7bn7er
p1192
I2
sVd8502zc
p1193
I3
sVde28bba
p1194
I1
sVdbb81fn
p1195
I1
sVdgv8q17
p1196
I1
sVdqclyf0
p1197
I1
sVd17te90
p1198
I2
sVdal017w
p1199
I1
sVdkazsqw
p1200
I1
sVdb7h2qt
p1201
I1
sVdd9szh7
p1202
I1
sVd5dxb1z
p1203
I1
sVd47dwsb
p1204
I1
sVdjjjdc2
p1205
I1
sVdgvirfu
p1206
I1
sVd19j972
p1207
I1
sVdepvaz3
p1208
I1
sVd3mhqsm
p1209
I1
sVdknwrql
p1210
I1
sVd1qujoc
p1211
I1
sVdcw3l4k
p1212
I1
sVd7zafta
p1213
I1
sVczat2nd
p1214
I1
sVd9g1los
p1215
I1
sVcz6zllb
p1216
I1
sVdneookr
p1217
I1
sVd2sgplc
p1218
I1
sVdf73je8
p1219
I1
sVd1inlhf
p1220
I1
sVd95o0jb
p1221
I1
sVdevm9uz
p1222
I1
sVdflx3kw
p1223
I1
sVdcnhne8
p1224
I1
sVczp8w6x
p1225
I1
sVdgme8r3
p1226
I1
sVd5b6wbp
p1227
I1
sVdojcjg4
p1228
I1
sVddweg4w
p1229
I1
sVd3yrjwt
p1230
I1
sVd30gqf1
p1231
I1
sVdgelqik
p1232
I1
sVcyw52fe
p1233
I1
sVd7bky2i
p1234
I1
sVdoeu08l
p1235
I1
sVdafqcf3
p1236
I1
sVczz9h7x
p1237
I1
sVdj8pdtx
p1238
I1
sVdml2xb3
p1239
I1
sVdevjdvp
p1240
I1
sVdaua91o
p1241
I1
sVd3zfq4n
p1242
I1
sVczc8i7q
p1243
I1
sVd0c66oy
p1244
I1
sVd8k9di7
p1245
I1
sVd9ep8wh
p1246
I1
sVdenb8u0
p1247
I1
sVd5iuqxe
p1248
I1
sVd7csupw
p1249
I1
sVd0n6hql
p1250
I1
sVd20qaiz
p1251
I1
sVd5oeomt
p1252
I1
sVdf571y7
p1253
I1
sVcysmz03
p1254
I1
sVdqg6ogf
p1255
I1
sVdoqi6sk
p1256
I1
sVdpdg8dw
p1257
I1
sVcyyqfum
p1258
I1
sVdd721d7
p1259
I1
sVd5cocdt
p1260
I1
sVdk2bk9m
p1261
I1
sVdfbnc2n
p1262
I1
sVd37svte
p1263
I1
sVczbpqmc
p1264
I1
sVdgkwjfx
p1265
I1
sVd3opmyj
p1266
I1
sVdpore3n
p1267
I1
sVd0jzb7r
p1268
I1
sVd6ynoef
p1269
I1
sVcyvar6q
p1270
I1
sVdhg65iv
p1271
I1
sVd988hm8
p1272
I1
sVcyy0ca3
p1273
I1
sVdcz6at1
p1274
I1
sVdr81zc5
p1275
I1
sVd0ouv8o
p1276
I1
sVdkril60
p1277
I1
sVdj2zpet
p1278
I1
sVdgki41q
p1279
I1
sVdag1o64
p1280
I1
sVd0iueob
p1281
I1
sVd3z6jj6
p1282
I1
sVd9jw96y
p1283
I1
sVdi0309d
p1284
I1
sVd6rkp9u
p1285
I1
sVcz6p9m9
p1286
I1
sVd2kygbd
p1287
I1
sVda18vjs
p1288
I1
sVcyrloyw
p1289
I1
sVd32ay8s
p1290
I1
sVczxvkk8
p1291
I1
sVdnckxu9
p1292
I1
sVd7rpw32
p1293
I1
sVdqwl1eo
p1294
I1
sVd73mutw
p1295
I1
sVd6w70zo
p1296
I1
sVdrosre9
p1297
I1
sVd8t3dwb
p1298
I1
sVdks0bje
p1299
I1
sVdcdejoi
p1300
I1
sVd3td93o
p1301
I2
sVdr8zsv6
p1302
I1
sVdatzw0e
p1303
I1
sVdfttkt9
p1304
I1
sVdfk5bnj
p1305
I1
sVdezp2rx
p1306
I1
sVdk07ucw
p1307
I1
sVdfikqw9
p1308
I1
sVdgrulgi
p1309
I2
sVd4ppw1w
p1310
I1
sVdgywakm
p1311
I1
sVdr2ud0t
p1312
I1
sVdhfoi5j
p1313
I1
sVczeg23q
p1314
I1
sVdketxqx
p1315
I1
sVdtii0al
p1316
I1
sVdbl1xvc
p1317
I1
sVdhs2i85
p1318
I1
sVd05x3np
p1319
I1
sVd0qfqdx
p1320
I1
sVczhp3nr
p1321
I1
sVcziofg3
p1322
I1
sVdgpwlyp
p1323
I1
sVdmqala4
p1324
I1
sVdp1f34a
p1325
I1
sVdcufi98
p1326
I1
sVd14kfoz
p1327
I2
sVczooyq7
p1328
I1
sVdcwk2a1
p1329
I1
sVdedna07
p1330
I1
sVd1gi322
p1331
I1
sVdfkhc13
p1332
I1
sVdie03yr
p1333
I1
sVd80qqvy
p1334
I1
sVd02qhbv
p1335
I2
sVderdp2k
p1336
I1
sVdqihbvm
p1337
I1
sVdcuk01c
p1338
I1
sVdgnhc87
p1339
I1
sVd20cdgx
p1340
I2
sVczbwajx
p1341
I1
sVd7wfpih
p1342
I1
sVd3p22sr
p1343
I1
sVd86ys7x
p1344
I1
sVcyrx2os
p1345
I1
sVd5u4rl9
p1346
I1
sVdndbked
p1347
I1
sVdmx5r1s
p1348
I1
sVd05wk8k
p1349
I1
sVd5cdqar
p1350
I1
sVdg6gpod
p1351
I1
sVdh5bzxp
p1352
I1
sVd0248h4
p1353
I1
sVdauhnp5
p1354
I1
sVdeck3qc
p1355
I1
sVd9ov1ok
p1356
I1
sVd6wn4ml
p1357
I1
sVczh7jn3
p1358
I1
sVdrokw7a
p1359
I1
sVd24f5nw
p1360
I1
sVd8g5638
p1361
I1
sVddhgsku
p1362
I1
sVdgh3095
p1363
I1
sVcyoipya
p1364
I1
sVdi1ft3d
p1365
I1
sVd1u25qd
p1366
I1
sVd6qfa9b
p1367
I1
sVdo71a49
p1368
I1
sVddu4xuf
p1369
I1
sVdh8e4ro
p1370
I1
sVdgi05dh
p1371
I1
sVcytjekb
p1372
I3
sVdaqgqdu
p1373
I1
sVdbkx877
p1374
I1
sVd8ejrne
p1375
I1
sVdekvkf6
p1376
I1
sVdf519m2
p1377
I1
sVd2m6iq0
p1378
I1
sVdhec16j
p1379
I1
sVd3ybb48
p1380
I1
sVd5cjmlz
p1381
I1
sVdd0dxmw
p1382
I1
sVd30euue
p1383
I1
sVdiyh2dj
p1384
I1
sVda8qoya
p1385
I1
sVdinxd8d
p1386
I1
sVdtig8y3
p1387
I1
sVczqg2gx
p1388
I1
sVdhtf8kr
p1389
I1
sVd9k48fv
p1390
I2
sVd6oemz6
p1391
I1
sVd4mrw8f
p1392
I1
sVd3b9m4e
p1393
I1
sVdhmgd1n
p1394
I1
sVczzeff2
p1395
I1
sVd9a1iqk
p1396
I1
sVdbwiz0k
p1397
I1
sVd5avq1d
p1398
I1
sVd0lr9u7
p1399
I1
sVdjc59he
p1400
I1
sVd0rzdf2
p1401
I1
sVdghwyc1
p1402
I1
sVdsrrgp1
p1403
I1
sVdosw6bh
p1404
I1
sVd8cs29f
p1405
I1
sVdipm9y4
p1406
I1
sVdar2qhn
p1407
I1
sVdqyx9o8
p1408
I1
sVd29g67s
p1409
I1
sVdgah9fv
p1410
I1
sVdhatfxh
p1411
I1
sVd32cpis
p1412
I1
sVd9jlwhe
p1413
I1
sVd0hii9c
p1414
I1
sVd4gcar1
p1415
I1
sVd5b68p2
p1416
I1
sVdclc4j6
p1417
I1
sVczx27ei
p1418
I1
sVdbgkvt4
p1419
I1
sVczo5ivq
p1420
I1
sVdhksqjn
p1421
I1
sVdnel0l1
p1422
I2
sVd2q696i
p1423
I1
sVdpbzwn2
p1424
I1
sVd4hxziw
p1425
I1
sVdq8og18
p1426
I2
sVd4izu4x
p1427
I1
sVdbn7um3
p1428
I1
sVdn814r8
p1429
I1
sVdd6o4r4
p1430
I1
sVddpkhgd
p1431
I1
sVdq0vwfs
p1432
I1
sVd5u7you
p1433
I1
sVdnchikh
p1434
I1
sVd70pzxg
p1435
I1
sVdccox26
p1436
I1
sVd1e55z7
p1437
I1
sVd3zt825
p1438
I1
sVd9ly8to
p1439
I2
sVd705vmj
p1440
I1
sVdbswcy3
p1441
I1
sVd46go8t
p1442
I1
sVdsn7lah
p1443
I1
sVczpajjs
p1444
I1
sVdml5mjo
p1445
I1
sVd7pq5pf
p1446
I1
sVdrp522m
p1447
I1
sVdjqglsi
p1448
I1
sVdi73oqh
p1449
I1
sVd8arsqg
p1450
I1
sVcyqtawd
p1451
I1
sVd891ykv
p1452
I1
sVdb8sk8c
p1453
I1
sVde7hp6b
p1454
I1
sVcyzb73t
p1455
I1
sVd928sue
p1456
I1
sVd2w56fw
p1457
I1
sVdaoiag3
p1458
I1
sVd2v6xeb
p1459
I2
sVd4v7f1z
p1460
I2
sVd1zlcg4
p1461
I1
sVcz81ll0
p1462
I1
sVdoiuaw2
p1463
I1
sVcyjlx5r
p1464
I1
sVdp0z5ob
p1465
I1
sVd2qlzvx
p1466
I1
sVddl8327
p1467
I1
sVdkrxnnf
p1468
I1
sVdbyjyks
p1469
I1
sVddwf0uu
p1470
I1
sVdiuy6zj
p1471
I1
sVd81v5sa
p1472
I1
sVd0cic6i
p1473
I1
sVczj4dik
p1474
I1
sVcz8toa4
p1475
I1
sVdqd9bcg
p1476
I1
sVddfaapr
p1477
I1
sVdgnxuwj
p1478
I1
sVdtd6j32
p1479
I1
sVd2afpre
p1480
I1
sVdtafcnw
p1481
I1
sVd4ddmm7
p1482
I1
sVdo7d3rn
p1483
I1
sVda1mtir
p1484
I1
sVdc0urad
p1485
I1
sVd7qez43
p1486
I1
sVd9ggsyw
p1487
I1
sVdcdlswb
p1488
I1
sVd6k39hv
p1489
I1
sVd18ehi1
p1490
I1
sVddgk1w2
p1491
I1
sVd7cf7gx
p1492
I1
sVd1e3w77
p1493
I1
sVdo30zuv
p1494
I1
sVdndbwet
p1495
I1
sVdb19usi
p1496
I1
sVdrl7z6o
p1497
I1
sVdiyneio
p1498
I1
sVdehfxnr
p1499
I1
sVd24a64n
p1500
I1
sVd9lg8vk
p1501
I2
sVdfsirko
p1502
I1
sVdgvbl12
p1503
I1
sVdgsb18r
p1504
I1
sVd3poiwa
p1505
I1
sVdmw2bqs
p1506
I1
sVd9e7ya5
p1507
I1
sVdk040y2
p1508
I1
sVd9e9qi9
p1509
I1
sVdiy9vxb
p1510
I1
sVdr9qy4t
p1511
I1
sVd580qie
p1512
I1
sVdk550ls
p1513
I2
sVd86tywo
p1514
I1
sVd5fmw95
p1515
I1
sVdb2gg53
p1516
I1
sVdo2ab12
p1517
I1
sVdd5elfr
p1518
I2
sVdt00zu0
p1519
I1
sVdg64pwx
p1520
I1
sVd6dz6of
p1521
I5
sVd9naeai
p1522
I1
sVd4h27wc
p1523
I1
sVcyrq6oo
p1524
I1
sVds5ic1p
p1525
I1
sVdmna30h
p1526
I1
sVcztciy0
p1527
I1
sVddqtchx
p1528
I1
sVdmm3di4
p1529
I1
sVdc4lij5
p1530
I1
sVd2i1hcx
p1531
I1
sVdju4ef9
p1532
I1
sVdfl7afw
p1533
I1
sVdq88333
p1534
I1
sVdd5obra
p1535
I1
sVda6pbw1
p1536
I1
sVdq40jl1
p1537
I1
sVd8w0dyn
p1538
I1
sVdmeq51i
p1539
I1
sVden4jje
p1540
I1
sVd9y0rkg
p1541
I1
sVczpaugb
p1542
I1
sVdhawo4r
p1543
I1
sVdpq1rej
p1544
I1
sVdiweik9
p1545
I1
sVdfx6omt
p1546
I1
sVdfj2ye0
p1547
I1
sVdjvnon3
p1548
I1
sVd82l8mr
p1549
I1
sVd2sifd4
p1550
I1
sVd0d2xdo
p1551
I1
sVd36umuf
p1552
I1
sVd3ifzd6
p1553
I1
sVdcwgfg7
p1554
I1
sVd6btue8
p1555
I1
sVdcu87vl
p1556
I1
sVdk09flo
p1557
I1
sVdo9brsv
p1558
I1
sVd07264i
p1559
I1
sVcyme235
p1560
I2
sVd7nsdrz
p1561
I1
sVd6ktiws
p1562
I1
sVd59uuxy
p1563
I1
sVdmno5b3
p1564
I1
sVdgwh5un
p1565
I1
sVd2kz8mk
p1566
I1
sVdfhho4s
p1567
I1
sVd6o2dyq
p1568
I1
sVdj37hzb
p1569
I1
sVddbv80n
p1570
I2
sVdajhk1z
p1571
I1
sVd700c77
p1572
I1
sVdauod0m
p1573
I1
sVd33jj2f
p1574
I1
sVdfgm54l
p1575
I1
sVd1p0mx2
p1576
I1
sVdo54ent
p1577
I1
sVds7jkwh
p1578
I1
sVcyyf3bv
p1579
I1
sVdfkbbva
p1580
I1
sVd0o0lvq
p1581
I1
sVd5d5ybe
p1582
I1
sVdpyxunv
p1583
I1
sVd7xj2tt
p1584
I2
sVd2qipau
p1585
I1
sVd4yyi28
p1586
I1
sVdbcu74k
p1587
I1
sVdd9xre2
p1588
I1
sVdpmkc2q
p1589
I1
sVdan46k4
p1590
I1
sVd13nolp
p1591
I1
sVdfn5kb2
p1592
I1
sVd95nwt8
p1593
I1
sVdf31rta
p1594
I1
sVdd5dgg5
p1595
I1
sVd3hhcmx
p1596
I1
sVdkx69lg
p1597
I1
sVdnet8gx
p1598
I1
sVcyxf4y6
p1599
I1
sVdf31dms
p1600
I1
sVd18smy9
p1601
I1
sVdjzm7hz
p1602
I1
sVdbwhx4g
p1603
I2
sVczymjno
p1604
I1
sVdjuk6gx
p1605
I1
sVdirejn1
p1606
I1
sVcyv5cz6
p1607
I1
sVd10neuf
p1608
I1
sVd009bko
p1609
I1
sVdd2ombp
p1610
I1
sVd4kshzy
p1611
I1
sVd8doeg3
p1612
I1
sVd84iu85
p1613
I1
sVdi5e0zq
p1614
I1
sVdhyik70
p1615
I1
sVdd8o1aa
p1616
I1
sVczu6qyy
p1617
I1
sVdil1jnd
p1618
I1
sVdg8u9ec
p1619
I1
sVdmwmjen
p1620
I1
sVdbccr2v
p1621
I1
sVdc2wu1q
p1622
I1
sVdnbm0dz
p1623
I1
sVczto7sf
p1624
I1
sVd0alj88
p1625
I1
sVdkc91ue
p1626
I1
sVd3wbhbc
p1627
I1
sVdb3u1qf
p1628
I1
sVd6cccd6
p1629
I1
sVd1e68dt
p1630
I2
sVd0rhfau
p1631
I1
sVd15aow7
p1632
I1
sVdd601if
p1633
I1
sVcz0se8u
p1634
I1
sVds176og
p1635
I1
sVdh4ickn
p1636
I1
sVdjvi0h3
p1637
I1
sVdqa0m4x
p1638
I1
sVd3iuaay
p1639
I1
sVd0xaunr
p1640
I1
sVdfkhdec
p1641
I1
sVd95mk56
p1642
I1
sVdb1gkap
p1643
I1
sVd69krnj
p1644
I1
sVdmovdf1
p1645
I1
sVdglen0v
p1646
I1
sVdhvaomk
p1647
I1
sVd46q2o5
p1648
I1
sVd0us5d4
p1649
I1
sVczf3w6w
p1650
I1
sVd3ct9zz
p1651
I1
sVdg2833p
p1652
I1
sVd8alzfk
p1653
I1
sVdcmlhb5
p1654
I1
sVd68xywu
p1655
I1
sVds7t23n
p1656
I1
sVdfvirdf
p1657
I1
sVdf26zx1
p1658
I1
sVd1tfmjc
p1659
I1
sVde7qjug
p1660
I1
sVd1lme0q
p1661
I1
sVdfm60bd
p1662
I1
sVcypmg0l
p1663
I1
sVdfgfvup
p1664
I1
sVdc971qa
p1665
I1
sVdcl8s56
p1666
I1
sVdomzlfi
p1667
I1
sVdo2perj
p1668
I1
sVd8o6cn8
p1669
I1
sVdjvl29k
p1670
I1
sVd87idtn
p1671
I1
sVd2nzi73
p1672
I1
sVd1pb9a1
p1673
I1
sVd1jbu44
p1674
I1
sVd4tszwy
p1675
I1
sVd4c1asv
p1676
I1
sVdg8pj4s
p1677
I1
sVdd5cf0m
p1678
I1
sVdkjll17
p1679
I1
sVdclhvl1
p1680
I1
sVd7pkgjt
p1681
I1
sVczh2yzr
p1682
I1
sVdp4zi0p
p1683
I1
sVdj7hf63
p1684
I1
sVd2xoemy
p1685
I1
sVdfgsh80
p1686
I1
sVdq7vcwz
p1687
I1
sVd1w261u
p1688
I1
sVdgnz7jy
p1689
I1
sVdb0w48c
p1690
I1
sVdorl3yt
p1691
I1
sVd3mw2j4
p1692
I1
sVd37kgrw
p1693
I1
sVdcms20q
p1694
I1
sVddnwxdq
p1695
I1
sVdjiker1
p1696
I1
sVdpr3x4v
p1697
I1
sVd6c1sr3
p1698
I1
sVd1hdb9z
p1699
I2
sVdfrouel
p1700
I1
sVdfau4gn
p1701
I1
sVdhrtsjg
p1702
I1
sVdi8mm5s
p1703
I1
sVdp0tfjp
p1704
I1
sVd77ljje
p1705
I1
sVdkm5rac
p1706
I1
sVd9w8ofw
p1707
I1
sVdenl0ir
p1708
I1
sVditzn8d
p1709
I2
sVd8sxfs1
p1710
I1
sVdmo3oud
p1711
I1
sVd4zqepb
p1712
I1
sVdc8bl4n
p1713
I1
sVd40mm9r
p1714
I1
sVd0owu1r
p1715
I1
sVdibfne3
p1716
I1
sVdcjoj9o
p1717
I1
sVdminb63
p1718
I1
sVd37dqj9
p1719
I1
sVdf9vz2f
p1720
I1
sVdg7ehre
p1721
I1
sVd0er7qm
p1722
I1
sVdov0u3j
p1723
I2
sVd0j1pae
p1724
I1
sVdjdk2w6
p1725
I1
sVdc8e2da
p1726
I1
sVczn9qb9
p1727
I1
sVdtibjtq
p1728
I1
sVd5h1142
p1729
I1
sVd8gs0wr
p1730
I1
sVd11vnn1
p1731
I2
sVdjkak10
p1732
I1
sVdhnyvny
p1733
I1
sVd62n8t3
p1734
I1
sVdqjxufw
p1735
I1
sVd4zz6rj
p1736
I1
sVd6rgzjm
p1737
I1
sVdkde0py
p1738
I1
sVd80oiph
p1739
I1
sVd1pc6kt
p1740
I1
sVd49eta7
p1741
I1
sVdjzwajp
p1742
I1
sVd2dhcd4
p1743
I1
sVdg2drft
p1744
I1
sVdau4f7i
p1745
I1
sVdrv99c0
p1746
I1
sVd90g24y
p1747
I1
sVdhy4g68
p1748
I1
sVd3mg3i0
p1749
I1
sVcyqflzg
p1750
I1
sVcz3n5mz
p1751
I1
sVd2ar4qk
p1752
I1
sVd6f4651
p1753
I1
sVd5slb7r
p1754
I1
sVdcmwr9x
p1755
I1
sVczstm7h
p1756
I1
sVdez12oi
p1757
I1
sVd3npmag
p1758
I1
sVddhkrmg
p1759
I1
sVd1hm8iv
p1760
I1
sVdnoqega
p1761
I1
sVd5vnz7x
p1762
I1
sVd08yxvo
p1763
I1
sVd56sb27
p1764
I1
sVdn15mu8
p1765
I2
sVdb0rs7z
p1766
I1
sVdcg0bjl
p1767
I2
sVdqqtq48
p1768
I1
sVdj3sbtb
p1769
I1
sVd7je2by
p1770
I1
sVdh7ewvi
p1771
I1
sVdnvwnss
p1772
I1
sVd4ty70i
p1773
I1
sVd72goz7
p1774
I1
sVd88f0j3
p1775
I1
sVdcm1mge
p1776
I1
sVd92n1zr
p1777
I1
sVdnfi2vw
p1778
I1
sVd009bj8
p1779
I1
sVdi4g13r
p1780
I1
sVd6y2uv9
p1781
I1
sVd630z7d
p1782
I1
sVd2bosg6
p1783
I1
sVd6obu5o
p1784
I2
sVdawqhki
p1785
I2
sVdgnt7ys
p1786
I1
sVdmwh020
p1787
I1
sVdntzjrv
p1788
I1
sVdgllpyv
p1789
I1
sVdd2124c
p1790
I1
sVd3pc3os
p1791
I1
sVdsxl79f
p1792
I1
sVd9ez9xl
p1793
I1
sVdk51ml8
p1794
I1
sVdgcodlg
p1795
I1
sVdn5wfg0
p1796
I1
sVdiemjqi
p1797
I1
sVdbjw8ek
p1798
I1
sVde97tyx
p1799
I1
sVd2hibrt
p1800
I2
sVd2s2uni
p1801
I1
sVdctkw4f
p1802
I1
sVdbfc80d
p1803
I1
sVdtg0y1s
p1804
I1
sVd89j65u
p1805
I1
sVczy9pua
p1806
I1
sVdkl708w
p1807
I1
sVdj9ljnt
p1808
I1
sVd9t3v5a
p1809
I1
sVdn6kq2j
p1810
I1
sVd0hnm3o
p1811
I2
sVdajxcdt
p1812
I1
sVd6enjod
p1813
I2
sVd1p1xh4
p1814
I1
sVd2zszd5
p1815
I1
sVd2c1hjy
p1816
I1
sVdarj2xm
p1817
I1
sVd6rlx7q
p1818
I1
sVdgbjwgv
p1819
I1
sVdj5gjcc
p1820
I1
sVddwiyk3
p1821
I1
sVd3c099j
p1822
I1
sVd2c9rj9
p1823
I1
sVdc63dce
p1824
I2
sVd392gx8
p1825
I1
sVdo5q01w
p1826
I1
sVd9sj8to
p1827
I1
sVd8wn72d
p1828
I1
sVdhk9e4h
p1829
I1
sVczxa91a
p1830
I1
sVdj30gk7
p1831
I1
sVdjrhihb
p1832
I1
sVdifj2qw
p1833
I1
sVdc98jiq
p1834
I1
sVdgs7tgm
p1835
I1
sVd9tnk9h
p1836
I1
sVdfchgpl
p1837
I1
sVczxxjpz
p1838
I1
sVd0k6iuw
p1839
I1
sVdbmek2v
p1840
I1
sVczf6ho8
p1841
I1
sVdn154k4
p1842
I2
sVd1lg7ec
p1843
I1
sVd6yghpe
p1844
I1
sVdjedm7r
p1845
I1
sVdbck01d
p1846
I1
sVde238lv
p1847
I1
sVddhb1gg
p1848
I1
sVdg6dq0l
p1849
I2
sVdmgrjjr
p1850
I1
sVdad0saa
p1851
I1
sVd065b0z
p1852
I1
sVdgoba57
p1853
I2
sVd9f08ta
p1854
I1
sVdgi4vgz
p1855
I2
sVdaphgz8
p1856
I1
sVdo796zg
p1857
I1
sVdb5ytc1
p1858
I1
sVdi5zbdi
p1859
I1
sVdt2oesi
p1860
I1
sVd76rtla
p1861
I1
sVdatwlm4
p1862
I1
sVdkrwhm1
p1863
I1
sVd0wyc7u
p1864
I1
sVczsi3dn
p1865
I1
sVdbkqd1o
p1866
I1
sVdjazgro
p1867
I1
sVdmnitch
p1868
I1
sVd8hzgn1
p1869
I1
sVdbvebey
p1870
I1
sVcynyom6
p1871
I1
sVd2rbu3l
p1872
I1
sVdrc3w7j
p1873
I1
sVcz7mv1v
p1874
I2
sVczvzi0d
p1875
I1
sVd0yg1nf
p1876
I1
sVdo2mcv8
p1877
I1
sVdgfrawa
p1878
I1
sVd50yafh
p1879
I1
sVd61h08w
p1880
I1
sVdcl8j31
p1881
I1
sVd20ni5i
p1882
I1
sVdbex6yv
p1883
I1
sVdd12abz
p1884
I1
sVderrvbr
p1885
I2
sVd1jgep7
p1886
I1
sVdfga4cp
p1887
I1
sVdeh1kdr
p1888
I1
sVdau7abs
p1889
I1
sVdmp42th
p1890
I1
sVdc8hgzc
p1891
I1
sVd7rpjco
p1892
I1
sVdeea479
p1893
I1
sVd2wrk2z
p1894
I1
sVd1x4muf
p1895
I1
sVcyrl5yp
p1896
I1
sVd025fdp
p1897
I1
sVdoclopv
p1898
I2
sVdesg373
p1899
I1
sVdcjwjok
p1900
I1
sVdf1p284
p1901
I1
sVd76etiq
p1902
I1
sVdix6az1
p1903
I1
sVdpxxvzi
p1904
I1
sVdhjtxn0
p1905
I1
sVdcuc4o8
p1906
I2
sVdkbvqfu
p1907
I1
sVdclmvra
p1908
I2
sVd05x7nf
p1909
I1
sVd26mp8y
p1910
I1
sVd6lw77w
p1911
I1
sVd9pc0xg
p1912
I1
sVczxfh2v
p1913
I1
sVdo5dm19
p1914
I1
sVdd4xx1i
p1915
I1
sVdevxrft
p1916
I1
sVd5ougyd
p1917
I1
sVdccodv5
p1918
I1
sVdbly7wg
p1919
I1
sVdfp9bo7
p1920
I1
sVdd4pp1t
p1921
I1
sVdj94vgn
p1922
I1
sVd94hjxx
p1923
I1
sVddnyk3f
p1924
I1
sVde4mhax
p1925
I1
sVdtbbp7l
p1926
I1
sVdbxl6xw
p1927
I1
sVde4dvim
p1928
I1
sVcyq5ucv
p1929
I1
sVdhn7o84
p1930
I1
sVdhg0t9j
p1931
I1
sVdaws95e
p1932
I1
sVd0kivvp
p1933
I1
sVd1499qh
p1934
I1
sVd3zonl5
p1935
I1
sVcyrgv4q
p1936
I1
sVd60e1ck
p1937
I1
sVczojm1w
p1938
I1
sVddc3bf6
p1939
I1
sVdqc2ztf
p1940
I1
sVdtfqctq
p1941
I1
sVd0qjcqz
p1942
I1
sVdiwh480
p1943
I1
sVd0mtd41
p1944
I1
sVdbootu0
p1945
I1
sVd0a66po
p1946
I1
sVdjorku8
p1947
I1
sVczm9nel
p1948
I1
sVczka86x
p1949
I1
sVd4w64et
p1950
I1
sVdps3gei
p1951
I1
sVdb86b3y
p1952
I1
sVdip4luq
p1953
I1
sVdifui09
p1954
I1
sVdc8yae8
p1955
I1
sVd7kj1gy
p1956
I1
sVdib49sq
p1957
I1
sVcz48p9n
p1958
I1
sVdakwah3
p1959
I1
sVd5uqev0
p1960
I1
sVdptz6yo
p1961
I1
sVdinqr3g
p1962
I1
sVd51uwop
p1963
I1
sVdsmbw29
p1964
I1
sVd1bfbi5
p1965
I1
sVd7e6z83
p1966
I1
sVd1p4bku
p1967
I1
sVdejgvin
p1968
I1
sVdb2kz0q
p1969
I1
sVdjaztea
p1970
I1
sVddgmeh0
p1971
I1
sVd3m16vi
p1972
I1
sVd1i6yfq
p1973
I1
sVdhthxxw
p1974
I1
sVczqnhbr
p1975
I1
sVdkjn2h7
p1976
I1
sVd2scdbs
p1977
I1
sVd9m2l42
p1978
I1
sVdr2k11v
p1979
I1
sVd6plvvr
p1980
I1
sVdo5a9z0
p1981
I1
sVdqibf2w
p1982
I1
sVczujtj7
p1983
I1
sVd10hjq3
p1984
I1
sVdadh78g
p1985
I1
sVdsxaz24
p1986
I1
sVdfwxtfv
p1987
I1
sVd01gan1
p1988
I1
sVd92zoyt
p1989
I1
sVdss2qv3
p1990
I1
sVd78n6al
p1991
I1
sVdbsujcy
p1992
I1
sVd4mujke
p1993
I1
sVdmzl4ew
p1994
I1
sVd9twxad
p1995
I1
sVdmzv8rj
p1996
I1
sVd0q2zxn
p1997
I1
sVd3ugct4
p1998
I1
sVdkzkxwf
p1999
I1
sVd5rztp5
p2000
I1
sVdkpugr9
p2001
I1
sVd5ap8q2
p2002
I1
sVd8jda9f
p2003
I1
sVd8nfiz7
p2004
I1
sVd0edxze
p2005
I1
sVdcxqjbp
p2006
I1
sVdo24fr4
p2007
I1
sVczolx9c
p2008
I1
sVd1h39ni
p2009
I1
sVd7c6n2b
p2010
I1
sVdfhguo4
p2011
I1
sVdr590vc
p2012
I1
sVdtb9xre
p2013
I1
sVdbwi8rm
p2014
I1
sVdk3xzpd
p2015
I1
sVd4e09fh
p2016
I1
sVdd42jz9
p2017
I1
sVdqgzqut
p2018
I1
sVdjwv9rk
p2019
I1
sVdqjpjlw
p2020
I1
sVd5orjpc
p2021
I1
sVd1r7dxe
p2022
I1
sVdcbk96n
p2023
I1
sVdhcjnnw
p2024
I1
sVdcjqbz8
p2025
I1
sVdfz4aje
p2026
I1
sVd18g6zw
p2027
I1
sVd9agry2
p2028
I1
sVd7wr66b
p2029
I1
sVdi85chn
p2030
I1
sVd1jjodx
p2031
I1
sVd2vs907
p2032
I1
sVd5b7wv0
p2033
I1
sVd0isir5
p2034
I1
sVdinzqol
p2035
I1
sVcywny4i
p2036
I1
sVd14r9q0
p2037
I1
sVdb99h26
p2038
I1
sVd56t0md
p2039
I1
sVdmuvnqa
p2040
I1
sVcykaequ
p2041
I1
sVdi94xul
p2042
I1
sVdeb5ku7
p2043
I1
sVd3yuren
p2044
I1
sVd27nqct
p2045
I1
sVd2xo9v2
p2046
I1
sVd50blsj
p2047
I1
sVd9wab2q
p2048
I1
sVd02oked
p2049
I2
sVdf0xe0m
p2050
I1
sVdcoc4jd
p2051
I1
sVd0rngxw
p2052
I1
sVdk2ys3q
p2053
I1
sVcz5kw9t
p2054
I1
sVdevufdb
p2055
I1
sVdby3ux6
p2056
I1
sVd78qmeh
p2057
I1
sVd8hjlug
p2058
I1
sVdbv5x2q
p2059
I1
sVdijssmn
p2060
I1
sVd6m4lil
p2061
I1
sVd5064un
p2062
I1
sVcyy1hi3
p2063
I1
sVdemi3n0
p2064
I1
sVdbiajza
p2065
I1
sVczu344y
p2066
I1
sVdeqbgxk
p2067
I1
sVdfe9uza
p2068
I1
sVdemegsq
p2069
I1
sVd093c2p
p2070
I1
sVd7ydajw
p2071
I1
sVdidy03l
p2072
I1
sVd6oyirs
p2073
I1
sVdcvu6u2
p2074
I1
sVdbdkymm
p2075
I1
sVdqshmdv
p2076
I1
sVdnd1fax
p2077
I1
sVdclmj0v
p2078
I1
sVd0rj1l8
p2079
I1
sVd37tq94
p2080
I1
sVd10gf01
p2081
I1
sVdbsdu1u
p2082
I1
sVdncsrq4
p2083
I1
sVdq2bn1z
p2084
I1
sVdc3r8vb
p2085
I1
sVdg6a00f
p2086
I1
sVd7f7uci
p2087
I1
sVdqkbad2
p2088
I1
sVd15aj0u
p2089
I1
sVcyp0e9c
p2090
I1
sVcymqdgr
p2091
I1
sVczhxbjs
p2092
I1
sVdggvtfo
p2093
I1
sVczwinhv
p2094
I1
sVde6sdbr
p2095
I1
sVdjp3ti1
p2096
I1
sVdb1chd2
p2097
I1
sVd1xyogi
p2098
I2
sVd3gzivc
p2099
I1
sVdo7x6l2
p2100
I1
sVd3yju8c
p2101
I1
sVd55qfom
p2102
I1
sVdg3qqxr
p2103
I1
sVd2hmxad
p2104
I1
sVczxykqh
p2105
I1
sVd66fmpl
p2106
I1
sVd9bvfj3
p2107
I1
sVdjoux57
p2108
I1
sVd4tcy3r
p2109
I1
sVczghlip
p2110
I1
sVdi3j762
p2111
I1
sVd7slxm7
p2112
I1
sVdt9tijj
p2113
I1
sVcz85nmo
p2114
I1
sVda39ltd
p2115
I1
sVddxil2u
p2116
I1
sVczsygs4
p2117
I1
sVd45yifu
p2118
I1
sVczyzcka
p2119
I1
sVd9mg9b7
p2120
I1
sVd55u6fj
p2121
I1
sVd73m9ws
p2122
I1
sVdt28tnz
p2123
I1
sVdol825z
p2124
I1
sVdg7swbc
p2125
I1
sVd27ug24
p2126
I1
sVczxvh3f
p2127
I1
sVdkjrbi5
p2128
I1
sVdjt5cpk
p2129
I2
sVd1n4jpc
p2130
I2
sVdot3phi
p2131
I1
sVcyn98ut
p2132
I1
sVdg08w32
p2133
I1
sVcyl2n5u
p2134
I1
sVdc07iuf
p2135
I1
sVdqj20wu
p2136
I1
sVdb0g5t3
p2137
I1
sVdn6fb1f
p2138
I1
sVdb22vcr
p2139
I2
sVd6dkcfg
p2140
I1
sVd098ay7
p2141
I1
sVdhrhvn4
p2142
I1
sVdeej957
p2143
I1
sVdkm5vh0
p2144
I1
sVd1qk3z9
p2145
I1
sVddm44w3
p2146
I1
sVd0ccpkb
p2147
I1
sVczw6ycs
p2148
I1
sVdd4mdfc
p2149
I1
sVdahk1fw
p2150
I1
sVdnvjj5f
p2151
I1
sVd2f0hc5
p2152
I1
sVdbnblus
p2153
I1
sVdcl4inz
p2154
I1
sVcz22osp
p2155
I1
sVd717co9
p2156
I1
sVd1km65p
p2157
I1
sVdpvboiu
p2158
I1
sVd2evjhh
p2159
I1
sVd7nh4v7
p2160
I1
sVd0nwvvs
p2161
I1
sVd1ttd6t
p2162
I1
sVd8npn9b
p2163
I1
sVdeag0eh
p2164
I1
sVd2tbmm4
p2165
I1
sVdizu537
p2166
I1
sVd57pkdy
p2167
I1
sVdduwni0
p2168
I1
sVd8gwyml
p2169
I1
sVcyyx4pc
p2170
I1
sVcyl1r66
p2171
I1
sVdhyltg0
p2172
I1
sVdt2b1ja
p2173
I1
sVdpqer3x
p2174
I1
sVdoj4lk3
p2175
I2
sVd4i3m26
p2176
I1
sVdnpkrbh
p2177
I1
sVd6dwtaf
p2178
I1
sVdgiqjzz
p2179
I1
sVd7qd2xi
p2180
I1
sVd0m94u4
p2181
I1
sVddn2r5r
p2182
I1
sVdgg7vfm
p2183
I1
sVdmzpo0w
p2184
I1
sVd01pwbc
p2185
I1
sVdo1rtm9
p2186
I1
sVczyuwfc
p2187
I1
sVd2rz6wp
p2188
I1
sVd1ybb83
p2189
I1
sVdaasjmc
p2190
I1
sVd4pdiw0
p2191
I1
sVd1me4sk
p2192
I1
sVdhgwfal
p2193
I1
sVd465lc4
p2194
I1
sVdddv7pv
p2195
I1
sVdhqfh5q
p2196
I1
sVdd5poiy
p2197
I1
sVd6n5g1p
p2198
I1
sVdielnyw
p2199
I1
sVd393yq4
p2200
I1
sVd0qjzor
p2201
I1
sVdgr327u
p2202
I1
sVd0es0yp
p2203
I1
sVdb4p1nc
p2204
I1
sVd0uu815
p2205
I1
sVd45i1ro
p2206
I1
sVd73xw5d
p2207
I1
sVdgghapl
p2208
I1
sVdfbwkp8
p2209
I1
sVcynl7fr
p2210
I1
sVd51yfps
p2211
I1
sVdg54ay2
p2212
I1
sVdg3yi7r
p2213
I1
sVcz7kaje
p2214
I1
sVd9khktu
p2215
I1
sVdkouf1u
p2216
I1
sVdilht6q
p2217
I2
sVd8xxb62
p2218
I1
sVcykj6nb
p2219
I1
sVdqph5uf
p2220
I1
sVdaevh31
p2221
I1
sVczqtlb9
p2222
I1
sVdphgi6d
p2223
I1
sVd6da5pk
p2224
I1
sVd1qgu5p
p2225
I1
sVczj5mwy
p2226
I1
sVdj3kfgk
p2227
I2
sVdbl2jyr
p2228
I1
sVdiiwzu5
p2229
I1
sVde7g3q5
p2230
I1
sVdtaicr5
p2231
I1
sVdsdghib
p2232
I1
sVd3qwg44
p2233
I1
sVd9ud8cy
p2234
I1
sVdffpppn
p2235
I1
sVd7uk1tk
p2236
I1
sVd7egh1o
p2237
I1
sVd5gpemr
p2238
I1
sVdd76kqf
p2239
I1
sVcz61h5n
p2240
I1
sVdbojjcm
p2241
I1
sVczjidyg
p2242
I1
sVdcqqdx8
p2243
I1
sVd5gazht
p2244
I1
sVd198j2l
p2245
I1
sVd1wm03e
p2246
I1
sVdn8p3dk
p2247
I1
sVcyr7j84
p2248
I1
sVdf1v3qn
p2249
I1
sVd0rok6c
p2250
I1
sVdfa1fp4
p2251
I1
sVdcs7j12
p2252
I1
sVdte5t4h
p2253
I1
sVdfo115r
p2254
I1
sVdmjbf62
p2255
I1
sVdiox3o4
p2256
I1
sVczr3k9f
p2257
I1
sVdapnbhh
p2258
I1
sVd9wsh31
p2259
I1
sVdnicbfl
p2260
I1
sVd19ehor
p2261
I1
sVdah68eg
p2262
I1
sVdi1qw19
p2263
I1
sVd6eaon0
p2264
I1
sVdb2zf4k
p2265
I2
sVd6dpuz3
p2266
I1
sVdim4k0s
p2267
I1
sVdg6cjmb
p2268
I1
sVd3pkwsv
p2269
I1
sVczw1ej4
p2270
I1
sVdmwe2is
p2271
I1
sVd1wv1bh
p2272
I1
sVdo8g1gx
p2273
I1
sVd881f7j
p2274
I1
sVd04d6rp
p2275
I1
sVczoxg0c
p2276
I1
sVczyp18q
p2277
I1
sVczm8fw7
p2278
I1
sVdg6dwxz
p2279
I1
sVd6j64o6
p2280
I2
sVdg22xc0
p2281
I1
sVdba0j9g
p2282
I1
sVdfb4gmx
p2283
I1
sVdc8tklm
p2284
I1
sVdb03p3u
p2285
I1
sVd0vmvy0
p2286
I1
sVd7a2fva
p2287
I1
sVddhxyco
p2288
I1
sVdiphlm2
p2289
I1
sVdfny3fw
p2290
I1
sVdcla954
p2291
I2
sVdawpcer
p2292
I1
sVdp3u307
p2293
I1
sVdmpd1ze
p2294
I1
sVds8cal5
p2295
I1
sVdcv9owt
p2296
I1
sVdau0wlo
p2297
I1
sVd02fn11
p2298
I1
sVdaf3tvl
p2299
I1
sVd2iei8c
p2300
I2
sVdqgb3xn
p2301
I1
sVd3dddk9
p2302
I1
sVdbx17ea
p2303
I1
sVczo2iiw
p2304
I1
sVd3lpwab
p2305
I1
sVczmahdv
p2306
I1
sVdc8xia8
p2307
I2
sVdml1o8i
p2308
I1
sVdi6qszj
p2309
I2
sVdgu07ut
p2310
I1
sVdqldevm
p2311
I1
sVcylgrfc
p2312
I1
sVdmne8oi
p2313
I1
sVddh9z4u
p2314
I1
sVdcxv2ko
p2315
I1
sVdcojtmn
p2316
I1
sVd0lb3r8
p2317
I1
sVdd799rq
p2318
I1
sVdn9ag3k
p2319
I1
sVd5vqgm6
p2320
I1
sVd1zhyyh
p2321
I1
sVdi8iktl
p2322
I1
sVdcuaimw
p2323
I1
sVdjd143q
p2324
I1
sVdfe3e89
p2325
I1
sVd233keh
p2326
I1
sVdgl438i
p2327
I1
sVd0kkt9w
p2328
I1
sVdknbusy
p2329
I1
sVd36tb0u
p2330
I1
sVdelt26q
p2331
I1
sVd1sguu0
p2332
I2
sVdq5hpbr
p2333
I1
sVdd2a0js
p2334
I1
sVd9rv828
p2335
I1
sVdt0bidm
p2336
I1
sVdas944q
p2337
I1
sVczvzf00
p2338
I1
sVdki6q9n
p2339
I1
sVd2b670c
p2340
I1
sVdfssnoh
p2341
I1
sVdo2y8oo
p2342
I1
sVdiernyt
p2343
I1
sVdczcj57
p2344
I1
sVd7t0tix
p2345
I1
sVdnvshu6
p2346
I1
sVd8nhhuz
p2347
I1
sVd9dpeug
p2348
I1
sVd74sx2s
p2349
I1
sVdj8zvym
p2350
I1
sVcztxl8f
p2351
I1
sVdpce1aa
p2352
I1
sVdj62cp4
p2353
I1
sVdjo0dxv
p2354
I1
sVd6efelu
p2355
I1
sVd6mjuhz
p2356
I1
sVcyzmgpw
p2357
I1
sVd2v3g7m
p2358
I1
sVd8ff50x
p2359
I1
sVdt9x52s
p2360
I1
sVd4zlnrn
p2361
I1
sVde8yrbj
p2362
I1
sVdaroioh
p2363
I1
sVdduoq29
p2364
I1
sVddn8flk
p2365
I1
sVd1x9szp
p2366
I1
sVd1jiq9z
p2367
I1
sVd8gdozn
p2368
I1
sVd00famk
p2369
I1
sVdid4vcl
p2370
I1
sVdf9wx9k
p2371
I1
sVd0q70uw
p2372
I1
sVdd7lhis
p2373
I1
sVdnybwor
p2374
I2
sVd6771xv
p2375
I1
sVd1w1sqa
p2376
I1
sVd267boj
p2377
I1
sVdaajgqj
p2378
I1
sVd2c1r00
p2379
I1
sVdgz29u6
p2380
I1
sVdka5b6x
p2381
I1
sVdsqp5pl
p2382
I1
sVd3448kj
p2383
I1
sVdkp2yoz
p2384
I1
sVd9a6z7v
p2385
I1
sVd2agryk
p2386
I1
sVdcyqa1j
p2387
I1
sVd9ezn26
p2388
I1
sVd0tr2iv
p2389
I1
sVdezcwqd
p2390
I1
sVd2lz3th
p2391
I1
sVd2bcsjp
p2392
I1
sVd1tlxbw
p2393
I1
sVd8lzhcc
p2394
I1
sVd2vl4sl
p2395
I1
sVd32kudf
p2396
I1
sVd8nry19
p2397
I1
sVd2vccwo
p2398
I1
sVdpto7s2
p2399
I1
sVd48dst3
p2400
I1
sVd0yrokv
p2401
I2
sVd0wzali
p2402
I2
sVdb5xw0l
p2403
I1
sVdhgtgyp
p2404
I1
sVdsfea3n
p2405
I2
sVd0jyhod
p2406
I1
sVd1sb3lz
p2407
I1
sVdho43rf
p2408
I1
sVd0hlw04
p2409
I1
sVd8t3xxg
p2410
I1
sVdj9g1p6
p2411
I1
sVddu1scx
p2412
I1
sVdmqkyke
p2413
I1
sVd3edds6
p2414
I1
sVd4ycsvq
p2415
I1
sVd8r0iwu
p2416
I1
sVdbrrykz
p2417
I1
sVdd223hy
p2418
I1
sVdjgdnrt
p2419
I1
sVd008dmh
p2420
I1
sVde9wpq4
p2421
I1
sVdogikfa
p2422
I1
sVdc7e35f
p2423
I1
sVcz50k8z
p2424
I1
sVcyv101b
p2425
I1
sVdjo8f59
p2426
I1
sVdi1mhoo
p2427
I1
sVdmolzxi
p2428
I1
sVd1imlvw
p2429
I1
sVd4hseii
p2430
I1
sVdd5hy9s
p2431
I1
sVd1z0umv
p2432
I1
sVddruo2f
p2433
I1
sVd4bk0gh
p2434
I1
sVdfsk89i
p2435
I1
sVd09um7a
p2436
I1
sVd564dh0
p2437
I1
sVdfx7vs4
p2438
I1
sVd5ogzio
p2439
I1
sVczka4sf
p2440
I1
sVdc1f2az
p2441
I1
sVd2sl40c
p2442
I1
sVdpovff0
p2443
I1
sVd7443rk
p2444
I1
sVd3daphp
p2445
I1
sVd0i3nm5
p2446
I1
sVdg031md
p2447
I1
sVd5pai3y
p2448
I1
sVdfs483n
p2449
I1
sVcynxeto
p2450
I1
sVcyv0sxv
p2451
I1
sVd8j1p3v
p2452
I1
sVdef227j
p2453
I1
sVd3uaeer
p2454
I1
sVdpi2b4e
p2455
I1
sVdcukrnz
p2456
I1
sVdnuddrd
p2457
I1
sVdf5lb3x
p2458
I1
sVdcude14
p2459
I1
sVd3q4c9f
p2460
I1
sVdf7sypk
p2461
I1
sVdgp1zdr
p2462
I1
sVda8eojm
p2463
I1
sVd3zhqxx
p2464
I1
sVd3ui348
p2465
I1
sVd6lldtm
p2466
I1
sVdar831a
p2467
I1
sVdcev5co
p2468
I1
sVd5svavk
p2469
I1
sVd0gc5hn
p2470
I1
sVd05jwm8
p2471
I1
sVdr3b6k2
p2472
I1
sVdng0446
p2473
I1
sVd2v9lx5
p2474
I1
sVdjbdzba
p2475
I1
sVdclmzky
p2476
I1
sVdcg9hxr
p2477
I2
sVd4xe5no
p2478
I1
sVdp55mo8
p2479
I1
sVdmvktm5
p2480
I1
sVdrwatht
p2481
I1
sVdbslqjk
p2482
I2
sVdk0d3m2
p2483
I1
sVdiwwgfu
p2484
I1
sVd3ggh2k
p2485
I1
sVd1xwlup
p2486
I1
sVddqwznk
p2487
I1
sVdfoo0aq
p2488
I1
sVdd519dm
p2489
I2
sVd2io57g
p2490
I1
sVdcij587
p2491
I1
sVd31ybxj
p2492
I1
sVdbi3wds
p2493
I1
sVdefeb92
p2494
I1
sVdpw2hs4
p2495
I1
s.