(dp0
Vd59eppg
p1
I1
sVd2uyozm
p2
I1
sVdq6d9x2
p3
I1
sVd3ghotb
p4
I1
sVdpp1evl
p5
I2
sVdrbf7u9
p6
I1
sVd7x2tsh
p7
I1
sVdivcx0o
p8
I3
sVdhx018n
p9
I2
sVdbj33zj
p10
I1
sVdc1lj2y
p11
I1
sVdr323q9
p12
I1
sVdo0oucx
p13
I1
sVdhy8bqr
p14
I4
sVdipumjr
p15
I1
sVdr9aykn
p16
I1
sVdiru556
p17
I1
sVdcafgyt
p18
I2
sVd6rj450
p19
I2
sVd5xtyvh
p20
I1
sVczd3tmq
p21
I1
sVdrta8g8
p22
I3
sVdhepzvo
p23
I1
sVd9xmedk
p24
I1
sVcyvdjjq
p25
I1
sVd18ngwv
p26
I1
sVd8ym6qb
p27
I1
sVcyvdafm
p28
I1
sVdab0mfi
p29
I1
sVdexdre9
p30
I2
sVdk5d6xr
p31
I1
sVd2pgbyy
p32
I1
sVd48qoa4
p33
I2
sVdgsd9w4
p34
I1
s.