(dp0
Vd58cr4g
p1
I1
sVddi2b22
p2
I3
sVdcy5bm2
p3
I1
sVdcp39a1
p4
I1
sVdfpb3f9
p5
I1
sVdcy56o3
p6
I1
sVdcy57zp
p7
I3
sVddgei1c
p8
I1
sVdcz32hz
p9
I3
sVdjy9uv2
p10
I1
sVdcz30r3
p11
I1
sVd4c34cs
p12
I1
sVcz8p5k5
p13
I2
s.