(dp0
Vdbmdajs
p1
I2
sVdjcsyje
p2
I3
sVd8deddb
p3
I1
sVdarugdo
p4
I1
sVddwilh9
p5
I1
sVd0lwuky
p6
I1
sVd1ajnoi
p7
I1
sVdfv95xx
p8
I1
sVdhxtqf5
p9
I1
sVd7tka0s
p10
I2
sVdd0syan
p11
I2
sVd13iosj
p12
I2
sVd3nq95p
p13
I1
sVdbm9fkw
p14
I1
sVdgne2pu
p15
I1
sVd634q9m
p16
I1
sVdrbofiu
p17
I1
sVd3u487u
p18
I1
sVdcpa164
p19
I1
sVde8ez39
p20
I6
sVdcmv570
p21
I1
sVd2k4feq
p22
I2
sVd3nbkvt
p23
I1
sVd510rp9
p24
I1
sVcyie1j1
p25
I1
sVdp258sj
p26
I1
sVd03embq
p27
I1
sVdtimjhv
p28
I1
sVddifdia
p29
I1
sVd52id2f
p30
I1
sVdnx01mf
p31
I2
sVdq38cpr
p32
I1
sVddq1aoo
p33
I1
sVd8f8bsh
p34
I1
sVczhnd9n
p35
I1
sVda9rrjc
p36
I1
sVd09ml4x
p37
I1
sVdaw353i
p38
I1
sVdna33ka
p39
I1
sVdia4dv6
p40
I1
sVdas23jd
p41
I1
sVdht1edt
p42
I1
sVdealkxx
p43
I1
sVdcg60oa
p44
I1
sVd8fbd02
p45
I1
sVdfyu2sv
p46
I1
sVdbytqxe
p47
I1
sVdk8mq8w
p48
I1
sVdgwhuna
p49
I1
sVd9yu666
p50
I1
sVd1dmwbc
p51
I1
sVdb0jhd1
p52
I2
sVcyycvr0
p53
I2
sVd2o364q
p54
I1
sVd1f4yo5
p55
I1
sVdhnqbx4
p56
I1
sVdna50xi
p57
I1
sVdar1ri3
p58
I1
sVdqn0tjl
p59
I1
sVdhgsc6y
p60
I1
sVdgtnvj3
p61
I1
sVdt6jji3
p62
I1
sVd2j1548
p63
I1
sVd74j9q7
p64
I1
sVd02kfsy
p65
I1
sVd2czub4
p66
I1
sVddunuwt
p67
I1
sVczeoyui
p68
I1
sVdaoefin
p69
I4
sVd660zbw
p70
I3
sVdnmuyij
p71
I1
sVdczbf3h
p72
I1
sVd1k2vv8
p73
I1
sVdsve2qt
p74
I1
sVdb70p8q
p75
I1
sVd6g1fhp
p76
I1
sVd48ilgi
p77
I1
sVdg4aosz
p78
I1
sVdovf0tx
p79
I1
sVd2h59su
p80
I1
sVd09w7c9
p81
I2
sVd5bg2jq
p82
I3
sVdh0srrn
p83
I1
s.