(dp0
Vd512bq4
p1
I1
sVczs34zb
p2
I1
sVdibp9mb
p3
I1
sVdd57rtd
p4
I1
sVdc1kqo1
p5
I1
sVd0mupuy
p6
I3
sVd1ecg4r
p7
I1
sVd22nd5v
p8
I1
sVdh895br
p9
I1
sVddrgj56
p10
I1
sVdivs4q3
p11
I1
sVd03q9pu
p12
I1
sVdkyiqoq
p13
I1
sVdkmk8i1
p14
I1
sVdimc8j4
p15
I1
sVcz7svxu
p16
I1
sVdksekx0
p17
I1
sVdgjys5h
p18
I1
sVdmrzrwk
p19
I1
sVdnsjmet
p20
I4
sVd7xmeck
p21
I1
sVdjfyyi2
p22
I2
sVdbe5b6j
p23
I1
sVd6mdii4
p24
I1
sVdmow8jl
p25
I1
sVd8aq57k
p26
I1
sVdf98yfd
p27
I1
sVcz3xxi2
p28
I1
sVdfo3l4d
p29
I1
sVda1ae4o
p30
I1
sVd9k12kb
p31
I1
sVd493fk7
p32
I1
sVdgng8kn
p33
I1
sVd8p1v4n
p34
I1
sVd3ls57d
p35
I1
sVd0nrm47
p36
I3
sVdfwq24d
p37
I1
sVddmwzeq
p38
I1
sVdauj9wj
p39
I1
sVd6lflmx
p40
I1
sVde3w7wi
p41
I1
sVd14726k
p42
I1
sVdivo329
p43
I1
sVd6nkg61
p44
I2
sVcyo6rbh
p45
I1
sVdk90xk7
p46
I1
sVcypb664
p47
I1
sVd75um0g
p48
I1
sVdcf744b
p49
I1
sVdhcutyp
p50
I2
sVdgjwe2f
p51
I1
sVdd6t358
p52
I2
sVd45vdv8
p53
I1
sVd87f2p0
p54
I1
sVde70rdv
p55
I1
sVdcg71xt
p56
I1
sVd724xsr
p57
I1
sVdknjq9w
p58
I1
sVd0zstyt
p59
I1
sVdmj1zix
p60
I1
sVda1evef
p61
I1
sVcz77njc
p62
I1
sVdgr7g6s
p63
I1
sVd0k8br7
p64
I1
sVcysw82k
p65
I1
sVdeukmkp
p66
I1
sVdn0jbos
p67
I2
sVczzxwov
p68
I2
sVda5ljjn
p69
I1
sVdflwds6
p70
I1
sVdc04rpb
p71
I1
sVddl7wes
p72
I1
sVd14wu7b
p73
I1
sVd8p5eun
p74
I1
sVdijctc3
p75
I1
sVd2vzasp
p76
I1
sVczz12x0
p77
I1
sVdaueoxq
p78
I1
sVd623rgo
p79
I1
sVdbcl8es
p80
I1
sVdcxz3r6
p81
I1
sVdgjxr66
p82
I3
sVdq72gem
p83
I1
sVdteph92
p84
I1
sVd8r2nv9
p85
I1
sVdbooh6z
p86
I1
sVcz8s300
p87
I1
sVd8bsvs9
p88
I1
sVdd42f04
p89
I1
sVd494t4s
p90
I1
sVdoj6qzh
p91
I1
sVcykeqp4
p92
I1
sVd58ga39
p93
I1
sVd5q6i3l
p94
I1
sVddkrmco
p95
I1
sVdf2f3qs
p96
I1
sVcyl1q7a
p97
I1
sVdk5xmh0
p98
I1
sVdfaq310
p99
I2
sVd0mcb9l
p100
I1
sVdn9py2b
p101
I1
sVdj8h8m9
p102
I1
sVdexfm1u
p103
I1
sVdg7humo
p104
I1
sVdkbz8hp
p105
I1
sVddq2js5
p106
I1
sVdb1g08u
p107
I1
sVdbn4rm7
p108
I1
sVdfcw62k
p109
I1
sVd1aapyo
p110
I2
sVd41rzkp
p111
I1
sVdjhbtqd
p112
I1
sVdfwykkg
p113
I1
sVdg3piws
p114
I1
sVdsqp8aq
p115
I2
sVdf1nvi6
p116
I1
sVd259t2w
p117
I1
sVcyp5odn
p118
I1
sVdkjamhy
p119
I1
sVczi7hhc
p120
I1
s.