(dp0
Vdms4m88
p1
I1
sVd8j8hrb
p2
I1
sVczon4ep
p3
I1
sVdi7l554
p4
I1
sVdgybycr
p5
I1
sVdc9apal
p6
I1
sVdmgk1oz
p7
I1
sVdigek6o
p8
I1
sVdd5je7d
p9
I1
sVd13w8p5
p10
I1
sVd1uh8fc
p11
I1
sVdi7l4fx
p12
I1
sVcykeqp4
p13
I1
sVdb0t7h7
p14
I1
sVd2s987y
p15
I1
sVd7i5jm2
p16
I1
sVdjv2bnc
p17
I1
sVd2673gq
p18
I1
sVdry3nnr
p19
I1
s.