(dp0
Vdfv50c3
p1
I2
sVdaaq9t8
p2
I1
sVdot27vq
p3
I1
sVdgvokk7
p4
I1
sVcyx6kv4
p5
I1
sVdklx21x
p6
I1
sVcz51xw0
p7
I1
sVdf7t1c0
p8
I1
sVdguyvzg
p9
I1
sVdfle80k
p10
I1
sVdin9p9q
p11
I1
sVcz1jxo1
p12
I1
sVda8f1y1
p13
I1
sVd9e5zag
p14
I1
sVdc7353z
p15
I1
sVd0j09jy
p16
I1
sVd5nl2uo
p17
I1
sVdtihnia
p18
I1
sVd13e8ln
p19
I1
sVd8mglmw
p20
I1
sVdds1b0r
p21
I1
sVdafj1ox
p22
I1
sVdinbk8i
p23
I1
sVczlfke9
p24
I1
sVdh45cw4
p25
I1
sVd4snx4e
p26
I1
sVd6rwmwb
p27
I1
sVdfanj1i
p28
I1
sVdp66374
p29
I2
sVdh94jjz
p30
I1
sVdbe03db
p31
I2
sVdf7h205
p32
I1
sVdo426nk
p33
I1
sVdfalpjj
p34
I1
sVdi5fj8m
p35
I2
sVczs8tn5
p36
I1
sVcyswqoe
p37
I1
sVddir6l7
p38
I1
sVdd33o81
p39
I1
sVdav6i51
p40
I1
sVd54s8z6
p41
I1
sVda9let3
p42
I1
sVczj0wmf
p43
I1
sVdmzu52g
p44
I1
sVde5tsiq
p45
I1
sVdczbe7p
p46
I2
sVcyl207p
p47
I1
sVdphepyp
p48
I1
sVd1xzyar
p49
I1
sVdaj2p3v
p50
I2
sVd7xq214
p51
I1
sVcynoc3o
p52
I3
sVczyq298
p53
I1
sVd53ley2
p54
I1
sVddrwbj2
p55
I2
sVd0r1lkp
p56
I1
sVdomtiv0
p57
I1
sVd3pihnb
p58
I1
sVdo0pmuw
p59
I1
sVd059ac2
p60
I1
s.