(dp0
Vd3gvj6v
p1
I1
sVd865t77
p2
I1
sVdnxkp0u
p3
I1
sVdmuf9xv
p4
I2
sVd12cf8f
p5
I1
sVdmtrl8d
p6
I1
sVczmahu0
p7
I1
sVd0sou8l
p8
I1
sVdacfhor
p9
I1
sVczm9b5b
p10
I1
sVd8oil98
p11
I1
sVd1lrbov
p12
I1
sVdmu3kfq
p13
I1
sVdduxh9h
p14
I1
sVdbvel87
p15
I1
sVd8oemdi
p16
I1
sVd3oo3nq
p17
I1
sVdmvai6c
p18
I1
sVd314ev1
p19
I2
sVdmtol5c
p20
I1
sVd4i01nq
p21
I1
sVd3mjkgj
p22
I2
sVd51gxet
p23
I1
sVdmumohr
p24
I1
sVd8nnykt
p25
I1
sVd8o4jck
p26
I1
sVd30zfdt
p27
I1
sVd30zjzy
p28
I1
sVczy4jjd
p29
I1
s.