(dp0
Vd1iw8a3
p1
I1
sVdowc5rl
p2
I1
sVdsa7fl2
p3
I1
sVddwhhst
p4
I1
sVcysekte
p5
I1
sVd50cyai
p6
I1
sVdkez18g
p7
I1
sVdh2qzw8
p8
I1
sVd00khd0
p9
I1
sVd0sz17a
p10
I1
sVd2rhmwt
p11
I1
sVdndwvz6
p12
I1
sVdh7o7ac
p13
I1
sVdcxh7az
p14
I1
sVdr7eqni
p15
I1
sVdkkqli0
p16
I1
sVdjssx2f
p17
I3
sVcyrmlla
p18
I1
sVd0i10x4
p19
I1
sVd0nk510
p20
I1
sVd96ltjb
p21
I3
sVcz4wa1q
p22
I1
sVd3s26vq
p23
I1
sVdadex3a
p24
I1
sVd09p0ah
p25
I9
sVdh7q642
p26
I1
sVd0hvdog
p27
I4
sVdfw13yw
p28
I1
sVd7a4yb0
p29
I1
sVdd53s7o
p30
I1
sVdny6xt3
p31
I1
sVd7afx4c
p32
I1
sVdogyhl1
p33
I1
sVd7sml7e
p34
I1
sVdaaxuqb
p35
I2
sVdhiqcxe
p36
I1
sVd0odppp
p37
I1
sVdkv7cjm
p38
I1
sVd43hfr5
p39
I1
sVd3mphsh
p40
I1
sVdebkyb3
p41
I1
sVd849b4q
p42
I1
sVdq2oexu
p43
I4
sVdixp2ex
p44
I1
s.