(dp0
Vdds6zjf
p1
I6
sVd2clgp0
p2
I5
sVdphj4nm
p3
I1
sVd4tepux
p4
I2
sVdklywu5
p5
I1
sVd50enek
p6
I1
sVcyihj0p
p7
I1
sVdhxudta
p8
I4
sVd8dru7j
p9
I1
sVd7vz8bv
p10
I1
sVcyjifcc
p11
I2
sVdgy91yv
p12
I1
sVdnmawz2
p13
I1
sVdpksm89
p14
I1
sVd2iz7t6
p15
I1
sVdmuwwvs
p16
I1
sVddbteao
p17
I1
sVddyoomo
p18
I1
sVdmvccot
p19
I1
sVda6ge0x
p20
I1
sVdmtmkbh
p21
I1
sVd7lk2fj
p22
I1
sVd3h3vny
p23
I1
sVcz97prw
p24
I1
sVdbgpl6x
p25
I1
sVd3gi4oy
p26
I1
sVd44db7f
p27
I1
sVd7bjdtj
p28
I1
sVd51r94w
p29
I1
sVdfmmzsu
p30
I1
sVdfndd7i
p31
I1
sVdoj5htp
p32
I1
sVdh4e6cc
p33
I1
sVdcbjv01
p34
I1
sVd7jokeg
p35
I1
sVczor2mc
p36
I1
sVdnc8tmz
p37
I1
sVd88jo2p
p38
I3
sVdejndwt
p39
I1
sVd9ny2cl
p40
I3
sVd3gazki
p41
I3
sVcytkg0p
p42
I2
sVczorjpt
p43
I3
sVd4gttn4
p44
I1
sVcz60qrh
p45
I1
sVczficy8
p46
I3
sVd089odt
p47
I1
sVd9xc0l1
p48
I1
sVd53inkx
p49
I1
sVd2j04i8
p50
I2
sVdiw7qyq
p51
I1
sVd5bdifk
p52
I1
sVd81v5sa
p53
I3
sVcyw5ba5
p54
I1
sVd8dsjow
p55
I3
sVdhf89kh
p56
I1
sVcyjifup
p57
I1
sVddqvcrk
p58
I1
sVd2neou6
p59
I1
sVdaej4vi
p60
I1
sVd12l3h4
p61
I1
sVdhd1eco
p62
I1
sVcziwmo7
p63
I1
sVdctxjkj
p64
I1
sVd3b2amw
p65
I1
sVdfn5cmu
p66
I1
sVdi6c9z1
p67
I1
sVcyyameu
p68
I2
sVd2coj71
p69
I2
sVdfz0yhp
p70
I1
sVd3gf8hd
p71
I2
sVdixyfj3
p72
I1
sVda0c75k
p73
I1
sVdhd5bgi
p74
I2
sVddlff2q
p75
I1
sVd83og67
p76
I2
sVdd75kwo
p77
I1
sVdfyr801
p78
I1
sVd7lc0wj
p79
I1
sVd087uli
p80
I1
sVdfs8pwo
p81
I1
sVd53jira
p82
I1
sVdixq6xj
p83
I2
sVd12l1t3
p84
I1
sVd0kusft
p85
I2
sVd1sb51h
p86
I1
sVd1gt7bj
p87
I1
sVd1irsmu
p88
I1
sVdj4jzx3
p89
I2
sVdimandx
p90
I2
sVdg4n2ae
p91
I1
sVd2bhzao
p92
I1
sVd4k0yla
p93
I1
sVd8nfwle
p94
I1
sVdbgwh2c
p95
I1
sVdaftryx
p96
I1
sVd53mq61
p97
I1
sVddrk159
p98
I1
sVde0x45k
p99
I1
sVddz1ewy
p100
I1
sVdieq43w
p101
I1
sVd9tr08w
p102
I1
sVd3hg5n1
p103
I1
sVd84fhk5
p104
I1
sVddo1l6b
p105
I1
sVdhxujdh
p106
I1
sVdif4sqw
p107
I1
sVdt4t523
p108
I1
sVd55ka1g
p109
I1
sVcyt09c0
p110
I1
sVd53j7vl
p111
I1
sVd0h55p7
p112
I1
sVdf8ofnw
p113
I1
sVd3gttbs
p114
I1
sVd41in52
p115
I1
sVdom2yb1
p116
I1
sVdhwoqy2
p117
I1
sVd0wf6u5
p118
I1
sVd0wf18c
p119
I2
sVd2nef89
p120
I2
sVdonootd
p121
I1
sVd7ttwoy
p122
I1
sVd49nwkl
p123
I1
sVd51ueo3
p124
I4
sVcz60unq
p125
I2
sVdfnezuf
p126
I2
sVdmwc6gg
p127
I1
sVd5i2uux
p128
I1
sVd6uq9hp
p129
I1
sVd5z9vld
p130
I2
sVd7x8ze8
p131
I2
sVd01i9a0
p132
I1
sVddg142d
p133
I1
sVcytsoqp
p134
I1
sVd8n5rit
p135
I1
sVd4sitr3
p136
I2
sVdaw6fgg
p137
I1
sVd1wnagx
p138
I1
sVd5ov2v1
p139
I2
sVd0fvp22
p140
I1
sVdg06hwu
p141
I1
sVd3gr21g
p142
I2
sVd3gdj25
p143
I2
s.