(dp0
Vcz5xcyx
p1
I1
s.(dp0
Vd0fw877
p1
I1
sVcz5xcyx
p2
I1
s.(dp0
Vd0fw877
p1
I1
sVcz5xcyx
p2
I1
s.(dp0
Vcz5xcyx
p1
I1
sVd2cftp3
p2
I1
s.(dp0
Vd3osgub
p1
I1
sVcz5xcyx
p2
I1
s.(dp0
Vcz5xcyx
p1
I1
sVd3pnj50
p2
I1
s.(dp0
Vd49gega
p1
I1
sVcz5xcyx
p2
I1
s.(dp0
Vd4s05x0
p1
I1
sVcz5xcyx
p2
I1
s.(dp0
Vd59eppg
p1
I1
sVcz5xcyx
p2
I1
s.(dp0
Vd59xdse
p1
I1
sVcz5xcyx
p2
I1
s.(dp0
Vd5gpq1d
p1
I1
sVcz5xcyx
p2
I1
s.(dp0
Vd5zpg72
p1
I1
sVcz5xcyx
p2
I1
s.(dp0
Vcz5xcyx
p1
I1
sVd6bqhpm
p2
I1
s.(dp0
Vd6dlgce
p1
I1
sVcz5xcyx
p2
I1
s.(dp0
Vcz5xcyx
p1
I1
sVd78ahks
p2
I1
s.(dp0
Vd8tqxvs
p1
I1
sVcz5xcyx
p2
I1
s.(dp0
Vcz5xcyx
p1
I1
sVd9vxont
p2
I1
s.(dp0
Vcz5xcyx
p1
I1
sVd9x0oy8
p2
I1
s.(dp0
Vcz5xcyx
p1
I1
sVd9x0oy8
p2
I1
s.(dp0
Vcz5xcyx
p1
I1
sVd9x0oy8
p2
I1
s.(dp0
Vcz5xcyx
p1
I1
sVd9x0oy8
p2
I1
s.(dp0
Vcz5xcyx
p1
I1
sVd9x0oy8
p2
I1
s.(dp0
Vcz5xcyx
p1
I1
sVdaubl7y
p2
I1
s.(dp0
Vcz5xcyx
p1
I1
sVdbd3zge
p2
I1
s.(dp0
Vcz5xcyx
p1
I1
sVdc152x3
p2
I1
s.(dp0
Vcz5xcyx
p1
I1
sVdc2hlqc
p2
I1
s.(dp0
Vcz5xcyx
p1
I1
sVde7wk0x
p2
I1
s.(dp0
Vcz5xcyx
p1
I1
sVdeh6paj
p2
I1
s.(dp0
Vcz5xcyx
p1
I1
sVdf1hqxl
p2
I1
s.(dp0
Vcz5xcyx
p1
I1
sVdf7pt9k
p2
I1
s.(dp0
Vdfun8wn
p1
I1
sVcz5xcyx
p2
I1
s.(dp0
Vcz5xcyx
p1
I1
sVdggmhzv
p2
I1
s.(dp0
Vdgmedl4
p1
I1
sVcz5xcyx
p2
I1
s.(dp0
Vcz5xcyx
p1
I1
sVdgse1vz
p2
I1
s.(dp0
Vcz5xcyx
p1
I1
sVdgse1vz
p2
I1
s.(dp0
Vcz5xcyx
p1
I1
sVdgse1vz
p2
I1
s.(dp0
Vdhxv289
p1
I1
sVcz5xcyx
p2
I1
s.(dp0
Vcz5xcyx
p1
I1
sVdi7ukuk
p2
I1
s.(dp0
Vcz5xcyx
p1
I1
sVdi7ukuk
p2
I1
s.(dp0
Vcz5xcyx
p1
I1
sVdi7ukuk
p2
I1
s.(dp0
Vdibwpgj
p1
I1
sVcz5xcyx
p2
I1
s.(dp0
Vdibwpgj
p1
I1
sVcz5xcyx
p2
I1
s.(dp0
Vdibwpgj
p1
I1
sVcz5xcyx
p2
I1
s.(dp0
Vdibwpgj
p1
I1
sVcz5xcyx
p2
I1
s.(dp0
Vcz5xcyx
p1
I1
sVdj4gs6t
p2
I1
s.(dp0
Vcz5xcyx
p1
I1
sVdqxkgue
p2
I1
s.(dp0
Vdrdn67n
p1
I1
sVcz5xcyx
p2
I1
s.