(dp0
Vdbpyy7n
p1
I1
sVdcspgvs
p2
I1
sVdn6e1j1
p3
I1
sVdocggb3
p4
I1
sVd16q1kt
p5
I1
sVd83af8i
p6
I1
sVcyv5o6z
p7
I2
sVd594q2u
p8
I1
sVd6lakza
p9
I1
sVd1lfe64
p10
I1
sVdf0glrl
p11
I1
sVdcm1gmo
p12
I1
sVdn981lx
p13
I1
sVd468kdn
p14
I5
sVd03xeql
p15
I1
sVd1zlrp3
p16
I3
sVdkecvhq
p17
I1
sVd9ihzt2
p18
I1
sVd86l8s3
p19
I1
sVd0ibk6s
p20
I3
sVcz5swc3
p21
I1
sVdk5bac5
p22
I1
sVd0071hn
p23
I1
sVdiz1e0c
p24
I3
sVdpw6bfb
p25
I1
sVdaotkfq
p26
I12
sVdn0bjwd
p27
I4
sVdb1olqe
p28
I1
sVdcyjevr
p29
I1
sVd8sy9i3
p30
I1
sVdb8khl8
p31
I1
sVdmori4w
p32
I1
sVdjfte73
p33
I1
sVdbkzshq
p34
I1
sVd1hc709
p35
I1
sVdojkzug
p36
I1
sVcyocqzx
p37
I2
sVddb3kjm
p38
I1
sVd1d70hf
p39
I1
sVd31306h
p40
I1
sVd3qh3yh
p41
I1
sVd1v2hpd
p42
I1
sVdkpkduc
p43
I1
sVcyp0s81
p44
I1
sVd8s74be
p45
I1
sVd4z6enh
p46
I1
sVdigdtp9
p47
I2
sVd73qbgb
p48
I2
sVdsry4s2
p49
I1
sVd2ajsf0
p50
I1
sVd622x9q
p51
I1
sVdof5x5d
p52
I1
sVcynh5ip
p53
I1
sVdt2u203
p54
I1
sVdko76cr
p55
I2
sVdmnxt9k
p56
I1
sVdr5fq9x
p57
I1
sVd1mlvu0
p58
I1
sVd0dyxw2
p59
I1
sVdipgftu
p60
I1
sVd87b752
p61
I3
sVd1y2liq
p62
I1
sVd2x6rb4
p63
I1
sVdpwd296
p64
I5
sVd688u72
p65
I1
sVcyzsd3f
p66
I1
sVd7kx6sz
p67
I1
sVczj3vdd
p68
I1
sVd670tk2
p69
I2
sVd6znr7j
p70
I1
sVdiywj4e
p71
I4
sVd37ygvc
p72
I1
sVdmq9va1
p73
I3
sVd7w0m7o
p74
I1
sVd2gefe6
p75
I1
sVd990pc7
p76
I1
sVdow8l52
p77
I1
sVddutra0
p78
I1
sVd2uupm4
p79
I1
sVdbwkyav
p80
I1
sVczzq081
p81
I2
sVdpi2jjc
p82
I1
sVd437xwr
p83
I1
sVdbuyci8
p84
I1
sVdco6ct6
p85
I1
sVd4j714h
p86
I1
sVczs0yu8
p87
I1
sVd445svt
p88
I1
sVd8nxcs8
p89
I1
sVd0tkbcw
p90
I2
sVcz7klmh
p91
I1
sVd2r0tet
p92
I1
sVd71oeo3
p93
I1
sVdcb5bob
p94
I2
sVdbcjndg
p95
I1
sVd7mg37a
p96
I1
sVdo357uq
p97
I1
sVd7lob9v
p98
I1
sVd6wy5dk
p99
I1
sVd28g5um
p100
I1
sVd3lpzxt
p101
I3
sVdg2dy8b
p102
I2
sVdpvcv28
p103
I4
sVd8nmkvu
p104
I1
sVdhbw4fu
p105
I1
sVdo60j7w
p106
I1
sVd9xq2xe
p107
I2
sVd86evli
p108
I1
sVdht4xls
p109
I4
sVdgp16pi
p110
I1
sVd37ilv5
p111
I1
sVdjoqclb
p112
I1
sVd344k5i
p113
I1
sVdtgdgqv
p114
I1
sVdirgzuv
p115
I1
sVczn6q9s
p116
I1
sVdjr189v
p117
I1
sVdeuveex
p118
I3
sVdshhsdu
p119
I1
sVdjxn97h
p120
I1
sVd8erooo
p121
I1
sVdsi0bg1
p122
I2
sVdch9s8v
p123
I1
sVdt52vf4
p124
I1
sVdhwi8it
p125
I1
sVd83a8mq
p126
I6
sVd1bfh78
p127
I1
sVd2h0y6d
p128
I1
sVcys74wx
p129
I2
sVdshdeef
p130
I1
sVd7hs39t
p131
I1
sVdhzjq55
p132
I2
sVd44u49m
p133
I1
sVd488u7u
p134
I1
sVd4m407x
p135
I1
sVdtgu2p9
p136
I1
sVd9kn2mm
p137
I1
sVd1wyhzt
p138
I1
sVcyxphd0
p139
I1
sVcyzgmem
p140
I1
sVdhfrmsl
p141
I1
sVd0komvg
p142
I1
sVdco3wio
p143
I1
sVd3zk8it
p144
I1
sVdakqyvt
p145
I1
sVdi15rpd
p146
I1
sVdb823zw
p147
I1
sVczxxgpd
p148
I1
sVd8q5g5o
p149
I1
sVd5mjosn
p150
I1
sVd40ftqz
p151
I1
sVdhhg7y5
p152
I1
sVdq6a6i4
p153
I4
sVd8634gp
p154
I1
sVd849b4q
p155
I1
sVd1omacj
p156
I1
sVcyz10rm
p157
I4
sVcz594a9
p158
I1
sVdaqkbxo
p159
I1
sVdmi2021
p160
I2
sVd97t6dz
p161
I1
sVdebwan8
p162
I1
sVd1jrz18
p163
I4
sVcyn981u
p164
I1
sVdhmn5kk
p165
I1
sVdhw9mtz
p166
I1
sVdpv3syo
p167
I1
sVdkl4yqp
p168
I1
sVd2p2b7l
p169
I3
sVdghnqmu
p170
I1
sVdcgtfim
p171
I1
sVdpyhy8z
p172
I1
sVd035ans
p173
I2
sVdaqcgw9
p174
I1
sVdeefe1t
p175
I1
sVd0t8orw
p176
I1
sVdap113z
p177
I6
sVdao7vmt
p178
I1
sVd2bgwoa
p179
I1
sVczyyq3z
p180
I1
sVd3zc6kn
p181
I2
sVdg6oy7r
p182
I1
sVdgf9qgu
p183
I1
sVdj0gmjx
p184
I1
sVd03wa21
p185
I1
sVd3s5bvb
p186
I3
sVd5rlpi3
p187
I4
sVdhfic1g
p188
I1
sVdojr0ck
p189
I1
sVczhay3a
p190
I1
sVd15we0n
p191
I1
sVd1yu8tu
p192
I1
sVdi8teky
p193
I5
sVdqgcpix
p194
I4
sVd9pgjhy
p195
I2
sVd3ecbwo
p196
I1
sVczhyj4g
p197
I1
sVdicubw7
p198
I1
sVd56h4se
p199
I1
sVd7qlgwc
p200
I3
sVd73h3q6
p201
I1
sVdbk3322
p202
I2
sVdegg70g
p203
I1
sVdsd52zn
p204
I1
sVd1pl9ca
p205
I1
sVd05pd5i
p206
I2
sVd7n7omv
p207
I1
sVd8pqj1a
p208
I1
sVdpuin9q
p209
I1
sVd3av5yi
p210
I1
sVdt7cofz
p211
I3
sVd37ik4e
p212
I1
sVdnzno5k
p213
I1
sVdjyuuci
p214
I1
sVdhe6cu1
p215
I1
sVdenhhaa
p216
I1
sVdf1s8h8
p217
I1
sVcyue3fr
p218
I1
sVdhr0y3b
p219
I1
sVdt83uh8
p220
I1
sVdnu9ym9
p221
I1
sVdbng1y2
p222
I1
sVdelawd7
p223
I1
sVd49mltv
p224
I1
sVdfe0loy
p225
I1
sVdqfgjo9
p226
I1
sVd47vb06
p227
I1
sVd6rid3b
p228
I2
sVczzr7wt
p229
I1
sVdcj0ptb
p230
I1
sVdjz2oau
p231
I1
sVdfc6k10
p232
I1
sVdefp4bi
p233
I2
sVdtbv5tm
p234
I11
sVdn3ztzs
p235
I1
sVd0sjjd2
p236
I1
sVdei6nnr
p237
I1
sVd33ye99
p238
I3
sVdglwd1z
p239
I1
sVdd4x189
p240
I5
sVdeq966r
p241
I1
sVd84nm0z
p242
I2
sVd6oxia1
p243
I1
sVdb98iwl
p244
I1
sVd0htna3
p245
I1
sVcytb3wk
p246
I1
sVcyp1nwy
p247
I1
sVd65d6gp
p248
I1
sVcyjsoww
p249
I1
sVd1rppfi
p250
I3
sVdecfsz7
p251
I1
sVdaotacw
p252
I1
sVd7395uu
p253
I1
sVd2exw8l
p254
I2
sVdb0fy7s
p255
I3
sVd4cdo00
p256
I1
sVdcoqr49
p257
I1
sVdifp4xf
p258
I1
sVdilq2jv
p259
I4
sVdcj0lt2
p260
I1
sVdd61v1h
p261
I1
sVd4hnvk7
p262
I1
sVdcnzk7t
p263
I2
sVdatyrhg
p264
I1
sVd0d2na0
p265
I1
sVczqw7wn
p266
I1
sVdbiwhwb
p267
I1
sVdgair4m
p268
I1
sVd7x9lwt
p269
I1
sVdca11se
p270
I2
sVddhgd2y
p271
I1
sVd9gcg4z
p272
I1
sVdcj0bvw
p273
I1
sVd5ioouz
p274
I3
sVdfdly6m
p275
I1
sVdb8enmp
p276
I1
sVd05xjzv
p277
I3
sVcyic2bb
p278
I1
sVd0brja3
p279
I1
sVcz57l28
p280
I2
sVcytw76v
p281
I1
sVdcxva19
p282
I2
sVczwexb4
p283
I1
sVd795ovj
p284
I1
sVdkfv4l9
p285
I1
sVd09m4qf
p286
I1
sVdbx8glt
p287
I1
sVdql3ydb
p288
I4
sVd857fyh
p289
I1
sVdp2lbzz
p290
I1
sVcyn4llh
p291
I2
sVd45vzhx
p292
I3
sVd8dzql7
p293
I1
sVdfg6rlr
p294
I3
sVdd5px2o
p295
I1
sVd2t50sw
p296
I1
sVcymtmua
p297
I1
sVd4c2udw
p298
I1
sVdgaaa8h
p299
I5
sVda2hfwz
p300
I1
sVd7shmg8
p301
I1
sVdeo99o2
p302
I1
sVd5ltoi4
p303
I1
sVdfcph3p
p304
I1
sVd0b9dzc
p305
I2
sVdhsydky
p306
I1
sVdofvomv
p307
I1
sVdf10qzi
p308
I1
sVcz8zcf2
p309
I2
sVd9fjgaa
p310
I1
sVd61of2g
p311
I1
sVdd7zrv7
p312
I1
sVd05uc4r
p313
I1
sVd9i7c2k
p314
I1
sVcyic3fl
p315
I1
sVd4kzq29
p316
I2
sVdblsz2f
p317
I4
sVdb881nj
p318
I1
sVd3msc9c
p319
I1
sVd4yupq1
p320
I2
sVd06yc48
p321
I1
sVd2s9u9q
p322
I1
sVd87m3yj
p323
I2
sVds0acy6
p324
I1
sVdf842ov
p325
I1
sVd2enn8m
p326
I1
sVd7qp015
p327
I2
sVd515y9c
p328
I2
sVcyzzf5w
p329
I1
sVdkcq8kz
p330
I11
sVd1dp6er
p331
I1
sVczzo4yr
p332
I1
sVd7td1sy
p333
I1
sVcyp5evs
p334
I1
sVdozggwf
p335
I1
sVcyuu9x3
p336
I1
sVdqv0rqp
p337
I1
sVdj39x1s
p338
I1
sVdt3r7mo
p339
I1
sVdgohop7
p340
I3
sVdky3ztb
p341
I1
sVdc00j2h
p342
I2
sVdcc8jfx
p343
I1
sVdco85qd
p344
I1
sVdq6d9x2
p345
I1
sVdh5p38v
p346
I1
sVd72t9he
p347
I1
sVd4vays0
p348
I2
sVd9y48y9
p349
I3
sVdc0hx10
p350
I1
sVdskz8p5
p351
I1
sVdea37k5
p352
I1
sVd9ny19t
p353
I1
sVd1bxu1u
p354
I2
sVdr1ci6t
p355
I1
sVd6f2wr4
p356
I1
sVczkbr6y
p357
I1
sVdo0u3q6
p358
I2
sVdjy32wf
p359
I1
sVd1ie65j
p360
I1
sVdd8wnju
p361
I1
sVdt3t7pv
p362
I1
sVde6n0bu
p363
I1
sVdeoax4p
p364
I1
sVdoztt72
p365
I1
sVd7rrizu
p366
I3
sVdjwvdg3
p367
I1
sVdbnkuv0
p368
I1
sVdajkdv3
p369
I1
sVd84k7k3
p370
I1
sVd1y2yg4
p371
I1
sVdp0a80e
p372
I1
sVdpfx7lp
p373
I1
sVdg79n0q
p374
I1
sVdb8fcy5
p375
I1
sVd1tjh4t
p376
I1
sVd89wbnn
p377
I1
sVczxnwan
p378
I1
sVdekq2br
p379
I1
sVdkcv1tv
p380
I1
sVd0dkyzn
p381
I1
sVd8yegq9
p382
I1
sVdgeqn6c
p383
I1
sVdrof2r9
p384
I2
sVd0z1zlx
p385
I1
sVdjgs9fi
p386
I2
sVd2a0gfy
p387
I1
sVd42d77e
p388
I2
sVdilz5ab
p389
I1
sVd3st1ey
p390
I2
sVczdaszj
p391
I1
sVdrontke
p392
I1
sVdbr7ix1
p393
I2
sVd0ritwt
p394
I2
sVdhfz5wo
p395
I1
sVdj2lp9u
p396
I1
sVdesxwlb
p397
I1
sVdhysd0w
p398
I1
sVd6403hv
p399
I1
sVd2x0qqt
p400
I1
sVdnufzu0
p401
I2
sVdj8k1yg
p402
I1
sVd8fakuq
p403
I1
sVdgbkm8h
p404
I1
sVdfxk3pe
p405
I1
sVd270pui
p406
I6
sVd6jbtv7
p407
I1
sVdr6fviz
p408
I1
sVds8lrr9
p409
I1
sVdjo6ihx
p410
I1
sVd8wjiam
p411
I1
sVdjb5d4y
p412
I1
sVd1d34ai
p413
I1
sVdb7uk3o
p414
I1
sVczetzjs
p415
I2
sVdbph5kf
p416
I1
sVd7qffba
p417
I10
sVd6bwosq
p418
I1
sVd9nfmrh
p419
I1
sVdfuimw6
p420
I1
sVdjrlq0m
p421
I1
sVczq8qu9
p422
I2
sVdgr7yp1
p423
I1
sVd49rhya
p424
I1
sVdbnz258
p425
I1
sVd09cdkc
p426
I2
sVd9rhbab
p427
I1
sVdcus4fv
p428
I1
sVdgep0z1
p429
I1
sVd0ehkn2
p430
I2
sVdcgqovn
p431
I1
sVcyz01vu
p432
I3
sVd5iukz0
p433
I2
sVd3yra3y
p434
I1
sVd3vegfn
p435
I3
sVd1588nb
p436
I2
sVd4ujxk1
p437
I1
sVddqo4rs
p438
I2
sVdkob3zx
p439
I2
sVd2v0qym
p440
I1
sVd04ml4i
p441
I3
sVd6s2029
p442
I2
sVdknzp0o
p443
I1
sVdmuel71
p444
I1
sVd2q9xmy
p445
I2
sVdboswgc
p446
I1
sVdj39r6u
p447
I1
sVddhag71
p448
I1
sVdb8gz68
p449
I1
sVdkx0uj2
p450
I1
sVcz4qa6k
p451
I1
sVd74f02h
p452
I1
sVd09q80v
p453
I1
sVd1ka92t
p454
I1
sVcys39mg
p455
I1
sVdi8qan7
p456
I3
sVdnpzyr8
p457
I1
sVdpoknxm
p458
I1
sVd4j79l7
p459
I1
sVdmkdkkl
p460
I1
sVd45a0im
p461
I2
sVd35gbj7
p462
I1
sVd8mnrm6
p463
I1
sVczs2tra
p464
I1
sVdiwehbh
p465
I1
sVd6875c3
p466
I1
sVdmkrwh6
p467
I1
sVdfwcqeg
p468
I1
sVdc3rr8y
p469
I1
sVdpqta5z
p470
I1
sVd2uvbhc
p471
I1
sVdch05xx
p472
I1
sVddyx16b
p473
I1
sVdb8edcq
p474
I1
sVd6wd31k
p475
I1
sVd4wab1f
p476
I4
sVd4rkkm0
p477
I1
sVd3cjai5
p478
I1
sVd8f4g19
p479
I1
sVdt8x2ij
p480
I1
sVd2519sp
p481
I3
sVd9g4r3h
p482
I1
sVd1ovemc
p483
I1
sVdpvv2ad
p484
I1
sVde8v6xp
p485
I2
sVdj6wu2x
p486
I2
sVd6cmo4x
p487
I1
sVczq6ixf
p488
I1
sVczqtea5
p489
I1
sVds8jlfg
p490
I1
sVd29m45f
p491
I1
sVcz5sq7q
p492
I2
sVdc0zd5o
p493
I2
sVd9gwdnk
p494
I1
sVd0cyxxt
p495
I1
sVd9pdy55
p496
I1
sVcypg9u8
p497
I3
sVdko07ff
p498
I1
sVd22uydd
p499
I1
sVd07zuhy
p500
I3
sVd7taxm1
p501
I1
sVddpzm51
p502
I2
sVd2zvi43
p503
I1
sVczccmt5
p504
I1
sVczr9nxh
p505
I1
sVde6lc1x
p506
I1
sVczeb05r
p507
I1
sVdcnv690
p508
I1
sVda8ko6w
p509
I3
sVdco0zin
p510
I1
sVdhox0lc
p511
I2
sVczxozjy
p512
I3
sVddm65o1
p513
I1
sVd2p0f6i
p514
I1
sVdb41lpg
p515
I1
sVd1zd221
p516
I1
sVd0it7au
p517
I1
sVddl72w8
p518
I1
sVd4lg88h
p519
I1
sVczay7rf
p520
I1
sVdkuu9gd
p521
I2
sVdfa3868
p522
I1
sVd5aw6n8
p523
I2
sVde29xh6
p524
I1
sVd67gfov
p525
I1
sVdnkelbq
p526
I1
sVd54vgp1
p527
I1
sVcylez7p
p528
I1
sVddih8cq
p529
I1
sVdg22blw
p530
I1
sVdq365fa
p531
I1
sVdf27qq6
p532
I1
sVd23g4rv
p533
I3
sVd9ftmyr
p534
I2
sVddqps6w
p535
I1
sVd19zzu9
p536
I2
sVdphvy3m
p537
I1
sVd7vqoeb
p538
I4
sVdjstopi
p539
I3
sVd9qgt5i
p540
I1
sVczadewp
p541
I1
sVdmj7kx5
p542
I4
sVdjz1rot
p543
I1
sVdj6kqdj
p544
I1
sVcz4hv7c
p545
I1
sVdg198d9
p546
I1
sVczvq6hb
p547
I1
sVde6i5r7
p548
I1
sVdseugap
p549
I3
sVd31hlrs
p550
I1
sVd1njxw9
p551
I1
sVd5rl2va
p552
I1
sVdc69yos
p553
I2
sVdeg054k
p554
I2
sVdfwp0hd
p555
I1
sVdexubb9
p556
I1
sVd2ut3u0
p557
I1
sVd53hlb9
p558
I1
sVdbrtqje
p559
I1
sVdk161vw
p560
I1
sVdhf6v90
p561
I1
sVds81ln5
p562
I1
sVd8vayzr
p563
I1
sVdgwizaj
p564
I1
sVd2gdqqc
p565
I1
sVd6i0gyg
p566
I1
sVd4bm1wz
p567
I3
sVd2gduyg
p568
I1
sVcypz3ej
p569
I1
sVczh2hvb
p570
I1
sVd0ubon2
p571
I1
sVd19ov3k
p572
I1
sVd2wnxoz
p573
I1
sVdb7zvru
p574
I1
sVdqs5h3j
p575
I2
sVdmkyo20
p576
I1
sVde65g22
p577
I1
sVddxq3ep
p578
I4
sVd537tim
p579
I1
sVdnpvdkq
p580
I2
sVdhrcwst
p581
I1
sVdcbp7h6
p582
I1
sVdeteuo3
p583
I1
sVdi2c2q8
p584
I1
sVdofkqe0
p585
I1
sVdcfmdor
p586
I1
sVdqttz4g
p587
I1
sVd4a2qte
p588
I3
sVdbettgt
p589
I1
sVdnabg0z
p590
I1
sVdnbck55
p591
I1
sVdhbgisd
p592
I1
sVdsm3j0b
p593
I3
sVczvuxnr
p594
I2
sVdccbgmd
p595
I1
sVdgrdd8r
p596
I1
sVd3i8qhg
p597
I1
sVcz4zizd
p598
I1
sVdbpgu7t
p599
I2
sVd234lp8
p600
I1
sVd7lanws
p601
I1
sVd4ieujk
p602
I1
sVcztbybs
p603
I1
sVdd9qg70
p604
I1
sVd7rnmk2
p605
I1
sVdjnqleb
p606
I1
sVd34afui
p607
I1
sVd1xe1y0
p608
I1
sVdawn051
p609
I3
sVdhlinix
p610
I1
sVd1qos9g
p611
I1
sVddn66n3
p612
I1
sVd1rrb5h
p613
I1
sVd2h7yci
p614
I1
sVcz8gvag
p615
I1
sVcyhx7k2
p616
I1
sVcyy6h8h
p617
I1
sVdkafyes
p618
I2
sVdnufnc2
p619
I1
sVcyoyt19
p620
I2
sVcyz4hh8
p621
I2
sVdbf1qdh
p622
I4
sVd1h9ja7
p623
I1
sVdcsyr1k
p624
I1
sVcykyor3
p625
I1
sVdcbx5wn
p626
I3
sVdbjhkkb
p627
I1
sVd9cvpdl
p628
I1
sVdbj58zq
p629
I4
sVdfu9dtk
p630
I1
sVdgdxdbz
p631
I1
sVdelyac6
p632
I2
sVdil3a8y
p633
I4
sVdcmrkqw
p634
I1
sVdgrqyd6
p635
I3
sVczzrx5c
p636
I1
sVdnkpo3p
p637
I1
sVdee8u24
p638
I1
sVdha4zqz
p639
I1
sVdphhqmw
p640
I1
sVdh4qzck
p641
I1
sVd0ljp6z
p642
I1
sVdk7mwgj
p643
I2
sVdoegn4b
p644
I1
sVd9fz265
p645
I1
sVdgj2xdc
p646
I3
sVd28nlvj
p647
I1
sVdqy00yv
p648
I1
sVdjwbfb8
p649
I1
sVdsswnsr
p650
I1
sVd3xr78f
p651
I1
sVd4agwpg
p652
I1
sVdofar5n
p653
I2
sVd32rli5
p654
I1
sVdpv982m
p655
I1
sVds8goic
p656
I1
sVdc0cycd
p657
I2
sVd03ovd4
p658
I1
sVd2gac2x
p659
I2
sVczhquxw
p660
I1
sVd1qzud2
p661
I1
sVdqqj4ni
p662
I1
sVdpudk9l
p663
I1
sVcyvnp8s
p664
I2
sVdc8jny0
p665
I1
sVd18c761
p666
I1
sVddt8eha
p667
I3
sVd46u208
p668
I2
sVdawqdnj
p669
I1
sVcyp2nlu
p670
I2
sVdopx6al
p671
I1
sVd0nzdmy
p672
I1
sVd3ucg0i
p673
I1
sVd62g1i5
p674
I1
sVdg8k20w
p675
I5
sVdia52eu
p676
I2
sVcyxqnzd
p677
I1
sVd2887tk
p678
I1
sVd5573go
p679
I1
sVd2kjw5b
p680
I1
sVdd3odw9
p681
I1
sVd0hgpxa
p682
I1
sVdawr44s
p683
I1
sVdb372s7
p684
I1
sVd57fqnn
p685
I1
sVd400n3m
p686
I1
sVd0mgm0l
p687
I1
sVd194tb4
p688
I1
sVde25hwa
p689
I1
sVd6lq5rh
p690
I2
sVdt6g6uy
p691
I1
sVdccpu23
p692
I2
sVdh59pqo
p693
I1
sVdhmec3c
p694
I2
sVd2c4mvs
p695
I2
sVdpuha6l
p696
I2
sVdg4cmh9
p697
I1
sVdige9ic
p698
I2
sVd5x1djo
p699
I1
sVdpv72f1
p700
I1
sVdb8mzxr
p701
I1
sVdgmg6as
p702
I1
sVd6vwo8n
p703
I3
sVczq8bkd
p704
I1
sVd8zgoar
p705
I1
sVddt6tor
p706
I1
sVdh7pqfe
p707
I1
sVdin28if
p708
I1
sVd52eziw
p709
I1
sVd0l9h3a
p710
I2
sVdmhapoc
p711
I1
sVdo2qahc
p712
I1
sVdof54tm
p713
I1
sVd62fx8c
p714
I1
sVdrkakzc
p715
I1
sVcyr4h1p
p716
I1
sVdsfqo0h
p717
I1
sVcyyi1kr
p718
I1
sVdepsvn0
p719
I1
sVd3bzv4v
p720
I4
sVddwl11x
p721
I1
sVdigeixm
p722
I2
sVddf6ceb
p723
I1
sVdhmz010
p724
I2
sVd3lp8k6
p725
I3
sVdouwvms
p726
I1
sVdbyi1bc
p727
I2
sVdbf3nvv
p728
I1
sVd48u8oo
p729
I1
sVcz020n2
p730
I1
sVd4w7whc
p731
I2
sVdd6o3qv
p732
I1
sVd90rlf8
p733
I1
sVdrwwpmp
p734
I1
sVdi43gdq
p735
I1
sVdejfhlp
p736
I1
sVd54aaqy
p737
I2
sVdramhz8
p738
I1
sVdgpz7y0
p739
I1
sVda13cl0
p740
I2
sVdcahgr2
p741
I1
sVdfkoxlr
p742
I1
sVcyloqv5
p743
I1
sVd97d6q3
p744
I1
sVd9nb45t
p745
I1
sVday0gbh
p746
I1
sVcyukh4z
p747
I2
sVd1vk4vs
p748
I1
sVdiwg28t
p749
I1
sVdku3hq1
p750
I1
sVd1uk5w2
p751
I2
sVd5lxx19
p752
I1
sVd9wxv1c
p753
I1
sVdi0lz5r
p754
I8
sVd1hetxa
p755
I3
sVdbsafuu
p756
I2
sVd8wdvdl
p757
I1
sVd88cvbu
p758
I1
sVdadycok
p759
I2
sVdbzzoew
p760
I1
sVdftkbqc
p761
I2
sVdhwlqx9
p762
I1
sVcziwnvp
p763
I1
sVd7q7as3
p764
I1
sVcynemn7
p765
I1
sVdj4ju5l
p766
I1
sVd560hmx
p767
I1
sVdmufr60
p768
I1
sVdbr8jn0
p769
I1
sVdk4mxwz
p770
I1
sVdkqhft2
p771
I4
sVdb19ppx
p772
I2
sVde40kwx
p773
I2
sVdkqbm0v
p774
I2
sVdhbepub
p775
I1
sVdb6rtb0
p776
I1
sVddi2ipa
p777
I1
sVdc2wrn6
p778
I1
sVd6tntrx
p779
I2
sVdrrlms1
p780
I1
sVd38frb1
p781
I1
sVdiy8b0d
p782
I1
sVday8dij
p783
I1
sVdhrbpfg
p784
I1
sVcz0qd6c
p785
I1
sVd8ta0te
p786
I1
sVdfh2k28
p787
I1
sVcziowq3
p788
I1
sVdgpz2u1
p789
I1
sVdbpvspz
p790
I1
sVdopzhfr
p791
I1
sVd9houz0
p792
I8
sVd19zeuh
p793
I1
sVdccfx7q
p794
I1
sVd3gn1x1
p795
I1
sVczemepp
p796
I2
sVdbkcphs
p797
I2
sVd3zs89o
p798
I2
sVdc5g44d
p799
I1
sVdsysg6p
p800
I1
sVdab57jd
p801
I1
sVdkxx63t
p802
I1
sVd7fwlm9
p803
I1
sVdirnwev
p804
I1
sVd3nwyqq
p805
I2
sVd2d8hbg
p806
I1
sVdeq20ry
p807
I1
sVdhjj0cs
p808
I1
sVd3i1r9m
p809
I1
sVdgeo4rq
p810
I1
sVczjza6v
p811
I1
sVddzmdoy
p812
I1
sVdg4liw3
p813
I1
sVdgq71pq
p814
I1
sVddq3rw8
p815
I3
sVcz7f88f
p816
I1
sVdach8jb
p817
I1
sVdc7xryq
p818
I3
sVdb569v2
p819
I2
sVd463flf
p820
I1
sVdhevl61
p821
I1
sVd7qtssb
p822
I1
sVcywq6kh
p823
I1
sVdrgqob2
p824
I1
sVd3dgh75
p825
I1
sVcz8f47d
p826
I1
sVd2kmy7n
p827
I2
sVda562w2
p828
I1
sVd18s94g
p829
I1
sVdip2o0j
p830
I1
sVdnrhire
p831
I4
sVds5ahll
p832
I1
sVd20kg92
p833
I1
sVdmllthi
p834
I1
sVd8izpgb
p835
I1
sVd0dkwy2
p836
I1
sVdnonyy0
p837
I1
sVdqtxkew
p838
I1
sVdemivrw
p839
I1
sVcyn77tl
p840
I1
sVd1k0dl0
p841
I1
sVd57qhzy
p842
I1
sVdimq3mr
p843
I1
sVdopzuvt
p844
I4
sVdktyc5q
p845
I1
sVdrhmb9d
p846
I1
sVd08js1o
p847
I1
sVdhh58l0
p848
I1
sVd2a4w7o
p849
I1
sVd63vcfc
p850
I1
sVcyl8hqa
p851
I1
sVddx109i
p852
I1
sVd5rd9op
p853
I2
sVd9xkzzz
p854
I1
sVd9guti3
p855
I1
sVd6ojhqh
p856
I2
sVdheqbo3
p857
I2
sVdae79az
p858
I1
sVd87r91s
p859
I1
sVdj107me
p860
I8
sVdk34y2t
p861
I2
sVdkcvof1
p862
I1
sVd60xlfb
p863
I1
sVd3toyc0
p864
I1
sVd8zkdej
p865
I1
sVdchkfna
p866
I2
sVdcxl2b7
p867
I1
sVdkx9kj6
p868
I4
sVd72cx5i
p869
I1
sVdemje7z
p870
I1
sVd673aaw
p871
I1
sVd7r6vgt
p872
I1
sVd7sh1hi
p873
I1
sVd09qwm7
p874
I1
sVd5a7drb
p875
I1
sVdjh5iga
p876
I2
sVd7cpw9j
p877
I3
sVd8d8zu4
p878
I2
sVddy2dsv
p879
I1
sVd468tws
p880
I1
sVd7qf2db
p881
I1
sVd7kz8a5
p882
I1
sVdbopl7e
p883
I1
sVd867e48
p884
I4
sVd4ikofx
p885
I1
sVdky2yhe
p886
I1
sVdjkneg6
p887
I1
sVdrk6p16
p888
I1
sVczzdq33
p889
I1
sVd9pifms
p890
I1
sVdd7hjg0
p891
I1
sVd8upiko
p892
I1
sVd90afg7
p893
I3
sVd65dljh
p894
I1
sVd98nlaz
p895
I1
sVczk7eiw
p896
I1
sVde9q2l9
p897
I1
sVdjcijxs
p898
I5
sVdceg350
p899
I1
sVdq06728
p900
I1
sVd0ug2ae
p901
I1
sVdcz4yi6
p902
I1
sVdo4my9n
p903
I1
sVd1nnzpu
p904
I1
sVdt9igf5
p905
I2
sVd48jaaj
p906
I1
sVd0bgp0j
p907
I1
sVdd2rqpd
p908
I1
sVdiy3pr9
p909
I1
sVdb97q6o
p910
I4
sVdfa30mq
p911
I1
sVdargq61
p912
I1
sVdertjfx
p913
I2
sVd5eguc4
p914
I1
sVdsczxhi
p915
I2
sVd6sy83y
p916
I2
sVdelektd
p917
I1
sVdgdjweu
p918
I2
sVcznbnju
p919
I1
sVd4p8sat
p920
I1
sVdqgeog9
p921
I1
sVd76lhg0
p922
I1
sVdc6vb7p
p923
I3
sVdhf689h
p924
I1
sVd4n9a26
p925
I2
sVd9dygl8
p926
I1
sVdjl923o
p927
I1
sVdnh3s9g
p928
I1
sVdido3wf
p929
I1
sVczeumk8
p930
I1
sVdfs6xg5
p931
I1
sVdj90pgh
p932
I1
sVdio3oao
p933
I1
sVdkp80vv
p934
I1
sVczwhtlf
p935
I1
sVd37gymf
p936
I2
sVd6am32u
p937
I1
sVczzo2e4
p938
I1
sVdclpjel
p939
I1
sVdcca1lq
p940
I1
sVd7z1pbb
p941
I1
sVd9fpmrs
p942
I1
sVdn80kje
p943
I1
sVczeo2kd
p944
I2
sVd4wbfbm
p945
I1
sVd97jh5p
p946
I1
sVd3lkut2
p947
I1
sVcynul2i
p948
I3
sVd8ynpyn
p949
I1
sVdfvfaql
p950
I1
sVd9krbiy
p951
I1
sVd97pojv
p952
I1
sVdccc1o4
p953
I3
sVdg845d0
p954
I1
sVdec086q
p955
I1
sVd1r03k4
p956
I1
sVdfhs0kr
p957
I1
sVdfbbco6
p958
I1
sVdprro1n
p959
I1
sVdplgdo9
p960
I1
sVd4zwr5q
p961
I1
sVdjf68gi
p962
I1
sVcyv23cd
p963
I1
sVdo968n9
p964
I1
sVdief6l7
p965
I1
sVds3ltfo
p966
I1
sVdhmgjli
p967
I1
sVd4w9i89
p968
I4
sVdemuzk8
p969
I1
sVdbnsxtp
p970
I2
sVdfkep28
p971
I1
sVda9yv40
p972
I1
sVd7ib2sm
p973
I1
sVd9c4ki9
p974
I1
sVd9ivzqa
p975
I3
sVde2rla8
p976
I1
sVcz6k7kp
p977
I1
sVd02guzi
p978
I1
sVdo1onc0
p979
I1
sVdqfjjze
p980
I1
sVdambpqz
p981
I1
sVd09qzne
p982
I1
sVd26rjb1
p983
I1
sVdslxyw4
p984
I1
sVdn4o3j7
p985
I1
sVdblrk2b
p986
I1
sVczm1a39
p987
I2
sVdk5n7rw
p988
I1
sVdjx2qel
p989
I1
sVdk16oz6
p990
I2
sVd0ti4cp
p991
I1
sVdfcx81n
p992
I1
sVd3z9dyg
p993
I1
sVdtbwtzm
p994
I1
sVd9cs2cu
p995
I1
sVd473jin
p996
I1
sVd5chzai
p997
I1
sVczfib6v
p998
I1
sVdfl29tp
p999
I1
sVd5d4bzs
p1000
I1
sVddsirgu
p1001
I1
sVdtekhng
p1002
I2
sVdnr128d
p1003
I4
sVd25xynq
p1004
I1
sVdiha7cd
p1005
I1
sVczx1msl
p1006
I1
sVdhzj989
p1007
I1
sVd9y91de
p1008
I5
sVd03ql7t
p1009
I1
sVd5cvgpu
p1010
I1
sVd2op8ps
p1011
I2
sVcyth9zs
p1012
I2
sVdmx2v1d
p1013
I1
sVd85x3he
p1014
I1
sVdokkfg6
p1015
I1
sVddl6pc4
p1016
I2
sVdew13tg
p1017
I1
sVd6p9np9
p1018
I1
sVdhyp7l9
p1019
I1
sVdbnlip8
p1020
I2
sVdbiwia0
p1021
I1
sVd9whnkt
p1022
I1
sVdcoew9l
p1023
I1
sVdblhitg
p1024
I1
sVddla50c
p1025
I1
sVd0dvelq
p1026
I1
sVdar7wh9
p1027
I1
sVczydi0t
p1028
I1
sVdo9igto
p1029
I1
sVdf169a5
p1030
I1
sVdgv9yky
p1031
I1
sVdk1yh46
p1032
I1
sVdptjfkf
p1033
I1
sVdpxcen7
p1034
I1
sVcymtgng
p1035
I1
sVdn07bf9
p1036
I2
sVd0q4z1e
p1037
I1
sVdite608
p1038
I1
sVdccv49z
p1039
I1
sVdi2dx0c
p1040
I3
sVdf932no
p1041
I1
sVd44jqzs
p1042
I1
sVdpdmj5g
p1043
I1
sVdr9qgho
p1044
I1
sVdqoy3w7
p1045
I1
sVda1d0lg
p1046
I1
sVd6eg4b0
p1047
I3
sVd87lsvq
p1048
I2
sVd0w5n39
p1049
I1
sVd4a68pm
p1050
I1
sVczm23gm
p1051
I3
sVdazzl1x
p1052
I1
sVdjxdq0k
p1053
I1
sVd53k7gq
p1054
I2
sVd41e7s7
p1055
I1
sVdg6be71
p1056
I1
sVdbtlpw4
p1057
I1
sVd14d34n
p1058
I1
sVdjtnzf7
p1059
I1
sVd9nafj7
p1060
I1
sVd4v1oj8
p1061
I1
sVd0qqrvm
p1062
I2
sVde5oh31
p1063
I1
sVdtji25y
p1064
I2
sVd9fivcv
p1065
I1
sVcz57gsu
p1066
I3
sVd3kkkx5
p1067
I5
sVd27i2gd
p1068
I1
sVd5ryi5o
p1069
I1
sVcyn2eoz
p1070
I2
sVczanjr5
p1071
I1
sVd4wiwvb
p1072
I1
sVcykg2gc
p1073
I1
sVd91pelh
p1074
I1
sVcyme153
p1075
I1
sVdpzee3c
p1076
I2
sVczu5xa0
p1077
I2
sVddrrimb
p1078
I2
sVdh8mc1f
p1079
I3
sVd817iw0
p1080
I1
sVd8ez32w
p1081
I1
sVd0dhpap
p1082
I1
sVdkx1jz3
p1083
I1
sVd2boauf
p1084
I1
sVdkx50pe
p1085
I1
sVd1aclf5
p1086
I1
sVdbnogs9
p1087
I1
sVd591g5x
p1088
I1
sVcyjgpib
p1089
I1
sVczw16e7
p1090
I1
sVdmfteeo
p1091
I2
sVdi2erho
p1092
I1
sVdc0arbw
p1093
I4
sVdkcjhmf
p1094
I1
sVdsarqzx
p1095
I1
sVd1569wg
p1096
I2
sVd9pauys
p1097
I1
sVdn4oe2d
p1098
I1
sVd2dlaa3
p1099
I1
sVd1r33bw
p1100
I1
sVd6acsoz
p1101
I1
sVd38o7zh
p1102
I1
sVdjf9c9c
p1103
I3
sVd671481
p1104
I1
sVdh3ubnp
p1105
I1
sVdeemv44
p1106
I1
sVd9d3pgh
p1107
I1
sVdgnn2d9
p1108
I1
sVd5mdd32
p1109
I2
sVcyuvhch
p1110
I1
sVde6l0gx
p1111
I1
sVdg6aa3n
p1112
I1
sVd1dav0c
p1113
I1
sVd4225lv
p1114
I2
sVczgygt9
p1115
I1
sVdpipby5
p1116
I2
sVdbta0ha
p1117
I1
sVdcy8pm0
p1118
I2
sVd2jmevk
p1119
I1
sVd7crznn
p1120
I1
sVd0jf1v4
p1121
I1
sVd5xjalw
p1122
I1
sVdsze9u0
p1123
I3
sVd1w48q0
p1124
I1
sVdhrba7e
p1125
I2
sVd1ha5qy
p1126
I1
sVd98sz6c
p1127
I1
sVdkm9ukw
p1128
I1
sVd27do2y
p1129
I1
sVdpf25iz
p1130
I2
sVdav5kmr
p1131
I1
sVd7qgnqn
p1132
I1
sVd33jecm
p1133
I1
sVddp6j1f
p1134
I2
sVdh5a9w2
p1135
I1
sVdtd2hu1
p1136
I2
sVdavn1mb
p1137
I2
sVd0kl6cz
p1138
I1
sVdbbmdyc
p1139
I1
sVdpv1bax
p1140
I1
sVdn38115
p1141
I1
sVd2bgd13
p1142
I1
sVd87nnlc
p1143
I1
sVdfz5hq6
p1144
I1
sVdocwz2l
p1145
I1
sVd45y215
p1146
I3
sVdpfldfr
p1147
I2
sVcynu7f5
p1148
I1
sVcyoimfm
p1149
I1
sVdj5zcis
p1150
I1
sVcyrv9wa
p1151
I1
sVcyng12c
p1152
I1
sVd0iav4t
p1153
I1
sVczwaiy2
p1154
I1
sVdheimof
p1155
I1
sVdaowpy2
p1156
I3
sVdeeo4zr
p1157
I1
sVdb54wyu
p1158
I1
sVdoso1ex
p1159
I1
sVddz4tvx
p1160
I1
sVdr82m5e
p1161
I1
sVcyuehpc
p1162
I1
sVdgxccz2
p1163
I1
sVd4swu68
p1164
I1
sVd4t042r
p1165
I1
sVd9l0bq6
p1166
I1
sVd9b2vm3
p1167
I1
sVdr34amk
p1168
I1
sVd1v3j9v
p1169
I1
sVdgh4pef
p1170
I2
sVd7a9lxh
p1171
I1
sVd3aybjq
p1172
I1
sVdr8otqo
p1173
I1
sVdderoo5
p1174
I1
sVdicvmou
p1175
I1
sVdpphwpc
p1176
I1
sVdhvowra
p1177
I2
sVdk2fiq6
p1178
I2
sVd7j6g92
p1179
I3
sVdcyqv71
p1180
I3
sVdf5z4cx
p1181
I2
sVdg7vnve
p1182
I1
sVczxlhah
p1183
I3
sVd6hye1v
p1184
I1
sVd6sm5az
p1185
I1
sVd7nxp0q
p1186
I1
sVd522jh5
p1187
I1
sVd3e2o3m
p1188
I1
sVdh3ojq7
p1189
I3
sVcyvl984
p1190
I2
sVczooidk
p1191
I3
sVdii37w7
p1192
I1
sVdcc1zji
p1193
I2
sVdgbiah6
p1194
I1
sVd1samsr
p1195
I1
sVdcup9dv
p1196
I1
sVd19zm5v
p1197
I3
sVd66o4jd
p1198
I2
sVdmray6i
p1199
I3
sVdf47qbm
p1200
I1
sVdheoi62
p1201
I3
sVdflame2
p1202
I1
sVd1nsfv8
p1203
I1
sVdns9w9c
p1204
I1
sVd48gk8c
p1205
I2
sVd9790lb
p1206
I1
sVda5n1r6
p1207
I1
sVczlqshp
p1208
I1
sVcz4l8y4
p1209
I1
sVdh4nyja
p1210
I2
sVdnshe0y
p1211
I1
sVda0ro26
p1212
I1
sVd0he3qk
p1213
I1
sVdj1avhe
p1214
I1
sVd4tc6cb
p1215
I1
sVdqvcq2j
p1216
I1
sVd0vuqbf
p1217
I2
sVd8xvtl1
p1218
I1
sVds7w43i
p1219
I1
sVd86mwr9
p1220
I1
sVczqb99d
p1221
I1
sVczsynmn
p1222
I1
sVcynvg5s
p1223
I1
sVdd4xseu
p1224
I1
sVd115o49
p1225
I1
sVdei8o83
p1226
I1
sVd0hcdig
p1227
I1
sVd1n7ydo
p1228
I1
sVczgpd3s
p1229
I1
sVddplrff
p1230
I1
sVdruouhs
p1231
I1
sVczto7sf
p1232
I1
sVdgnd48i
p1233
I1
sVdft09zw
p1234
I1
sVcyzqacp
p1235
I1
sVd16n0gw
p1236
I1
sVcywq7ka
p1237
I1
sVd1wbths
p1238
I1
sVdj3zyry
p1239
I1
sVd0nnnte
p1240
I1
sVd7hk59i
p1241
I3
sVd42cbeg
p1242
I1
sVd69krnj
p1243
I1
sVdjvlqax
p1244
I1
sVdr6qg66
p1245
I1
sVd9lzlkd
p1246
I3
sVd7ne14j
p1247
I1
sVdq6t3g0
p1248
I1
sVczn6ern
p1249
I1
sVd21rcoq
p1250
I1
sVd0jgpww
p1251
I2
sVd4zu4lz
p1252
I1
sVdd65uyn
p1253
I1
sVdgfqjm6
p1254
I5
sVdde1fvt
p1255
I1
sVd70aovr
p1256
I1
sVcyqp35u
p1257
I3
sVda5bvkz
p1258
I2
sVdh4v5fb
p1259
I1
sVdqvkhaq
p1260
I1
sVd6dz1jv
p1261
I4
sVd81fx4b
p1262
I1
sVczxss61
p1263
I1
sVdk2oq41
p1264
I1
sVdqepe6p
p1265
I1
sVdars4h5
p1266
I1
sVdj400kc
p1267
I1
sVdg67nyv
p1268
I2
sVd50dm9i
p1269
I1
sVda9apcq
p1270
I2
sVd0xz88t
p1271
I1
sVd52ciri
p1272
I2
sVdexoa02
p1273
I2
sVd0ew12u
p1274
I1
sVddxxn59
p1275
I1
sVdingdpo
p1276
I1
sVd0iqxcj
p1277
I1
sVd5r6q5m
p1278
I1
sVd51fro2
p1279
I3
sVdru74s8
p1280
I1
sVd3m4h7y
p1281
I1
sVd1yoafr
p1282
I1
sVd2gwq0y
p1283
I1
sVcynun2r
p1284
I4
sVd3p5x82
p1285
I1
sVddmlfz7
p1286
I1
sVd3lpv1n
p1287
I2
sVda341rs
p1288
I1
sVds06to2
p1289
I1
sVdh5s3g6
p1290
I3
sVdd7u18k
p1291
I1
sVd1otut5
p1292
I1
sVd7sj8ab
p1293
I1
sVdrktqvh
p1294
I1
sVdpovcr4
p1295
I1
sVd3db6xr
p1296
I1
sVd7ibn69
p1297
I1
sVd1zcjif
p1298
I1
sVdeq5d3p
p1299
I1
sVdcm5gcr
p1300
I1
sVdcouxn6
p1301
I1
sVczxtevx
p1302
I1
sVd022qzc
p1303
I1
sVdb88oc1
p1304
I1
sVd9lrqh1
p1305
I1
sVd14ofu3
p1306
I1
sVd1e83ze
p1307
I1
sVd538erv
p1308
I1
sVdb5q660
p1309
I1
sVcyt5uy0
p1310
I1
sVdh28b4m
p1311
I1
sVdpgc7ge
p1312
I1
sVdk1j7yr
p1313
I2
sVdepsv80
p1314
I1
sVd6tf47b
p1315
I1
sVdh5rnqc
p1316
I1
sVd55w18h
p1317
I3
sVde6ztn0
p1318
I1
sVd25idq9
p1319
I4
sVd4owq68
p1320
I3
sVdagc4mn
p1321
I1
sVdbasrr2
p1322
I1
sVd7qmjh9
p1323
I1
sVd8xr2yp
p1324
I1
sVde03yn6
p1325
I3
sVdaty88n
p1326
I1
sVcyxdrs8
p1327
I1
sVdif5qvl
p1328
I1
sVd5vq78f
p1329
I1
sVcz3wumz
p1330
I1
sVd56izh5
p1331
I2
sVczhohox
p1332
I1
sVdnhb5vj
p1333
I1
sVdco70iq
p1334
I1
sVd0bk5dp
p1335
I2
sVdgdx59c
p1336
I1
sVcypwfc8
p1337
I1
sVd2tw2sq
p1338
I1
sVdq01dvn
p1339
I2
sVd8vfi83
p1340
I1
sVczdba5a
p1341
I1
sVd93io01
p1342
I1
sVdcomqf6
p1343
I2
sVczowk2t
p1344
I8
sVdopxisk
p1345
I2
sVd2neou6
p1346
I1
sVdd5e1d8
p1347
I1
sVcyjv5pm
p1348
I2
sVd1tphw7
p1349
I1
sVd20876b
p1350
I1
sVd7mn5xi
p1351
I1
sVd0h9z7m
p1352
I2
sVdhk55cd
p1353
I2
sVd0cj1bi
p1354
I1
sVd6wfnsr
p1355
I2
sVdsxusna
p1356
I1
sVdd59ccn
p1357
I1
sVdou40pu
p1358
I1
sVdaufvew
p1359
I1
sVdbouyxl
p1360
I1
sVd6ht7s1
p1361
I1
sVd44l3x9
p1362
I2
sVd14fz4a
p1363
I1
sVd8phfdc
p1364
I1
sVdc9rjre
p1365
I1
sVdas8pcw
p1366
I1
sVdbxjdac
p1367
I1
sVded3eko
p1368
I1
sVd36hbzh
p1369
I1
sVd2hibrt
p1370
I1
sVdqeecxs
p1371
I1
sVdc9m838
p1372
I1
sVd55izn9
p1373
I1
sVdnzrfkn
p1374
I1
sVdpp6drm
p1375
I1
sVd39iucp
p1376
I1
sVd6wm9yy
p1377
I1
sVd0hfq1u
p1378
I1
sVd8k8ioz
p1379
I1
sVczhiw1f
p1380
I2
sVd4rk1t5
p1381
I1
sVdaku86s
p1382
I1
sVdh7ksw2
p1383
I1
sVd0ysh05
p1384
I1
sVde40aiq
p1385
I1
sVd62ucja
p1386
I2
sVd6rlx7q
p1387
I3
sVcz0rgop
p1388
I1
sVddbf4go
p1389
I1
sVdq067i9
p1390
I1
sVdo0l75s
p1391
I1
sVd2q4q55
p1392
I2
sVdd5m7sh
p1393
I1
sVd5th0br
p1394
I1
sVd2kjvtp
p1395
I2
sVdrteqmo
p1396
I1
sVcypb1w4
p1397
I1
sVcyuao26
p1398
I1
sVd390xhr
p1399
I1
sVddryp1m
p1400
I1
sVdb89gfg
p1401
I2
sVdbubkm8
p1402
I2
sVdi2qlz2
p1403
I1
sVdo2h621
p1404
I1
sVd28b0e6
p1405
I1
sVd2ejvbp
p1406
I2
sVdibbh7h
p1407
I1
sVd11efel
p1408
I1
sVd7pah09
p1409
I1
sVddfjzmx
p1410
I1
sVd4ppv1u
p1411
I1
sVd6tvhmv
p1412
I1
sVdjz1ttv
p1413
I1
sVda44s08
p1414
I5
sVdj33v7u
p1415
I2
sVd2dl5xq
p1416
I2
sVd90eqb7
p1417
I1
sVd5zdoo2
p1418
I3
sVd0iv3c9
p1419
I1
sVdigt4mf
p1420
I2
sVd858y1m
p1421
I2
sVdduw985
p1422
I6
sVds40spk
p1423
I1
sVd1kf5f5
p1424
I1
sVddlbg02
p1425
I1
sVdopz437
p1426
I2
sVdqamggo
p1427
I1
sVddkwe18
p1428
I1
sVdaiy1xk
p1429
I1
sVd1mnbjp
p1430
I3
sVd16rccf
p1431
I1
sVdh2h0wu
p1432
I1
sVddo6blu
p1433
I1
sVdq8a2d8
p1434
I1
sVd02witz
p1435
I1
sVd14chbw
p1436
I1
sVdn1yr07
p1437
I1
sVd4qqwr3
p1438
I2
sVd1e1oq8
p1439
I1
sVdosvi1u
p1440
I1
sVd5d6k5q
p1441
I1
sVdaqgqdu
p1442
I1
sVdgo4adv
p1443
I4
sVdjmr2gt
p1444
I1
sVdhc4tmr
p1445
I1
sVdsn4k06
p1446
I1
sVd807y56
p1447
I2
sVd3y4jdn
p1448
I1
sVdoiu21t
p1449
I2
sVcyp4fn5
p1450
I1
sVczuivep
p1451
I1
sVczev53b
p1452
I1
sVd2r0wgx
p1453
I1
sVdb9goza
p1454
I1
sVdiy1s9x
p1455
I1
sVd28riot
p1456
I1
sVdejz9bs
p1457
I1
sVdaotsum
p1458
I4
sVd18tsbb
p1459
I1
sVdpj6jhb
p1460
I1
sVdh7d53j
p1461
I1
sVd17tgto
p1462
I1
sVd5k6dwf
p1463
I1
sVdhf98ve
p1464
I1
sVdpmljul
p1465
I1
sVd164p0p
p1466
I2
sVds037nu
p1467
I2
sVdd5c8wl
p1468
I1
sVcz6iaa9
p1469
I1
sVdpql59p
p1470
I1
sVdc6ygtn
p1471
I1
sVd45u7ym
p1472
I4
sVday7kdr
p1473
I1
sVcyitqh5
p1474
I1
sVd9t8ii2
p1475
I1
sVdfgpex2
p1476
I1
sVd428687
p1477
I1
sVdjwp6pu
p1478
I1
sVdpz9zkg
p1479
I2
sVdghotxl
p1480
I1
sVdf8jc3g
p1481
I1
sVd21y8s7
p1482
I1
sVdg6ouyu
p1483
I1
sVd5z80xx
p1484
I1
sVdge04rn
p1485
I1
sVd0pw80g
p1486
I1
sVcywgzcq
p1487
I1
sVd4b0gll
p1488
I4
sVd2ava6t
p1489
I1
sVd3i5s0a
p1490
I3
sVdscy9i3
p1491
I6
sVdi1qhn5
p1492
I1
sVd82s13f
p1493
I5
sVdaon9lp
p1494
I2
sVdkbt0sl
p1495
I1
sVd9pb3gv
p1496
I1
sVd8sh9mb
p1497
I1
sVd0jpjay
p1498
I1
sVd1gezjj
p1499
I1
sVd5zccn5
p1500
I1
sVdabql9n
p1501
I1
sVdepswjy
p1502
I1
sVd9uh4wv
p1503
I1
sVdpi4oxv
p1504
I2
sVd3vl03v
p1505
I1
sVdf023cd
p1506
I1
sVdcxvcqz
p1507
I1
sVdbu1h5l
p1508
I3
sVdcf8toq
p1509
I1
sVdg4w8mf
p1510
I1
sVd6wpss2
p1511
I3
sVdoj04iv
p1512
I1
sVd8m6ym2
p1513
I3
sVd34f7rd
p1514
I1
sVdifsq00
p1515
I1
sVdg25zpn
p1516
I1
sVd2tlojh
p1517
I2
sVd2g1wvb
p1518
I1
sVdi7hwsj
p1519
I2
sVdmt2hkp
p1520
I1
sVdt5aug4
p1521
I1
sVdab56dw
p1522
I1
sVd9pj3j5
p1523
I1
sVd807h9b
p1524
I2
sVd1hiuf0
p1525
I1
sVcyljyhe
p1526
I2
sVdgmljuh
p1527
I1
sVd6o9wej
p1528
I2
sVdab2k4w
p1529
I2
sVd6emsns
p1530
I1
sVdign42n
p1531
I1
sVdhpuest
p1532
I1
sVdkqyof6
p1533
I1
sVd7cjkod
p1534
I1
sVcz7nv94
p1535
I1
sVddwhq4t
p1536
I4
sVdd6c7ar
p1537
I2
sVd14apb2
p1538
I1
sVd8dp6p8
p1539
I1
sVdkmfk4i
p1540
I1
sVd2oor3k
p1541
I1
sVd29yp6p
p1542
I3
sVdn4hgo4
p1543
I1
sVd6qsxly
p1544
I1
sVdjbpt55
p1545
I1
sVdd5qqf4
p1546
I1
sVd3rsjxo
p1547
I1
sVd2kjnby
p1548
I2
sVdfk8gie
p1549
I2
sVdhfj9ll
p1550
I2
sVdaotp4x
p1551
I1
sVdmrmb3x
p1552
I1
sVd0oxu4l
p1553
I1
sVd2xja9q
p1554
I1
sVdk4gojo
p1555
I2
sVd8z5c62
p1556
I1
sVddt0czu
p1557
I1
sVdrzk54s
p1558
I1
sVdgb65hz
p1559
I1
sVd9x4k4u
p1560
I1
sVd07o16c
p1561
I1
sVd6qm8ds
p1562
I3
sVdkqcdf5
p1563
I4
sVd5kkbqi
p1564
I1
sVdiugcxp
p1565
I1
sVdfblvqn
p1566
I5
sVcyr1yng
p1567
I1
sVdeiq03g
p1568
I1
sVddkgv4b
p1569
I1
sVd9c7lpm
p1570
I1
sVd7a1dg2
p1571
I1
sVdbwldc4
p1572
I1
sVdk5y65h
p1573
I2
sVd5veyv8
p1574
I1
sVdhg6mpb
p1575
I1
sVd5qa8ba
p1576
I2
sVdpsvm63
p1577
I1
sVdnlclg9
p1578
I1
sVczj0wmf
p1579
I1
sVd5wdmif
p1580
I1
sVd11ks0i
p1581
I1
sVd44qpc5
p1582
I1
sVd66ooxr
p1583
I1
sVd6yuf2j
p1584
I1
sVd8m1mg4
p1585
I1
sVdctuc62
p1586
I1
sVdnxczns
p1587
I1
sVd3zie9o
p1588
I1
sVd52mhz2
p1589
I1
sVdj0zqdj
p1590
I1
sVdjruklt
p1591
I1
sVd2jafvi
p1592
I1
sVde5i1q6
p1593
I1
sVcz5b9pt
p1594
I1
sVd0ji758
p1595
I1
sVds8zhwr
p1596
I1
sVd9mamqy
p1597
I1
sVd39nzr2
p1598
I3
sVd0e116d
p1599
I1
sVdmhul1d
p1600
I4
sVd39kwrx
p1601
I1
sVdp82yn1
p1602
I1
sVdaarfty
p1603
I1
sVdiq87hf
p1604
I1
sVddka17f
p1605
I4
sVcywakn0
p1606
I2
sVd8ezdwl
p1607
I1
sVd468f6f
p1608
I1
sVddmjeu1
p1609
I1
sVdq6mdsb
p1610
I4
sVdo2uujw
p1611
I1
sVd8ny5ay
p1612
I1
sVdnqwqrt
p1613
I1
sVdgalvth
p1614
I1
sVcywg63u
p1615
I2
sVczcny0z
p1616
I1
sVd2e3yja
p1617
I2
sVds9ca8c
p1618
I1
sVdpvoc1o
p1619
I1
sVd04zxh6
p1620
I1
sVd4neu2j
p1621
I1
sVddob8cb
p1622
I1
sVdnaehz3
p1623
I1
sVdgoy8ef
p1624
I2
sVdhlit4a
p1625
I1
sVdbfb0so
p1626
I2
sVdatwwqn
p1627
I1
sVdkrk48w
p1628
I1
sVdgiqjzz
p1629
I1
sVddciw8u
p1630
I3
sVd39o6ey
p1631
I3
sVd6qgzoc
p1632
I3
sVdek0jje
p1633
I1
sVdf91sm7
p1634
I1
sVdklyu41
p1635
I2
sVd5lzaha
p1636
I2
sVdj67rbv
p1637
I1
sVdcm039m
p1638
I1
sVd5m0lgn
p1639
I1
sVdhvu6oa
p1640
I1
sVd1zcyv0
p1641
I1
sVd9aa6f3
p1642
I1
sVd735hqr
p1643
I1
sVdby2v7h
p1644
I1
sVd2jufah
p1645
I3
sVddo7jqc
p1646
I1
sVdiba4ka
p1647
I1
sVd1w56yu
p1648
I1
sVd1d1s0c
p1649
I1
sVdf7hcpg
p1650
I1
sVcyle13f
p1651
I1
sVd2btj9n
p1652
I1
sVdci7oh2
p1653
I3
sVdjzt2rp
p1654
I1
sVde5fcmg
p1655
I1
sVd22tyfx
p1656
I1
sVdshf8t3
p1657
I1
sVddcqaeb
p1658
I1
sVcyotti1
p1659
I1
sVdhaudfj
p1660
I2
sVd86n004
p1661
I2
sVd4z50t6
p1662
I1
sVczn0pkb
p1663
I1
sVd8j3gk9
p1664
I1
sVdmyd7jq
p1665
I1
sVd45bqvw
p1666
I2
sVczwa55z
p1667
I3
sVdb8tc6c
p1668
I1
sVdftkj2d
p1669
I5
sVdhz8lrj
p1670
I2
sVd2lld2l
p1671
I1
sVd8diuap
p1672
I2
sVczr0te7
p1673
I1
sVd9k528l
p1674
I1
sVd7crgxj
p1675
I2
sVd3szsvp
p1676
I1
sVd7uvsh1
p1677
I1
sVd6lorzu
p1678
I1
sVdnqwp6k
p1679
I1
sVd0sjdmb
p1680
I1
sVd234qen
p1681
I4
sVdhx6bn4
p1682
I4
sVdjugmlh
p1683
I1
sVd90rk3b
p1684
I1
sVd2h26vt
p1685
I3
sVdfq33ea
p1686
I1
sVdak1myw
p1687
I1
sVds31xf5
p1688
I1
sVdabo4vy
p1689
I1
sVczhzxn0
p1690
I1
sVdav3fzz
p1691
I1
sVd5iojf2
p1692
I1
sVd2wvsce
p1693
I1
sVdipw4vj
p1694
I5
sVd1efy89
p1695
I5
sVdru7ncj
p1696
I1
sVdadk9jd
p1697
I1
sVdmhms0v
p1698
I4
sVdflgugl
p1699
I1
sVd51ur1v
p1700
I1
sVddr0car
p1701
I2
sVddg7xff
p1702
I1
sVda43tjd
p1703
I1
sVdsros55
p1704
I1
sVdkrdwgk
p1705
I4
sVd5vv4nu
p1706
I2
sVdcecnq7
p1707
I1
sVcz3vzl8
p1708
I2
sVd1vq7al
p1709
I6
sVdo3icuo
p1710
I2
sVd8w1w81
p1711
I1
sVdpqinc2
p1712
I1
sVdgympma
p1713
I1
sVdqkg2v5
p1714
I1
sVdmz925s
p1715
I1
sVd6tbour
p1716
I1
sVdg6q3zh
p1717
I1
sVcyif6yw
p1718
I2
sVd4xmf5l
p1719
I1
sVd233keh
p1720
I1
sVd6gtn02
p1721
I1
sVd2goy67
p1722
I1
sVd95l07a
p1723
I1
sVdscy4k9
p1724
I2
sVd9cepo8
p1725
I4
sVdddyvw9
p1726
I1
sVczmwgfh
p1727
I2
sVd4qr659
p1728
I2
sVd2gzcw4
p1729
I1
sVd13b1pb
p1730
I1
sVd0kkvt8
p1731
I1
sVdr022zg
p1732
I1
sVd768p2s
p1733
I1
sVdn15i3u
p1734
I2
sVdbi7clo
p1735
I1
sVd099e1c
p1736
I1
sVd2ayqxg
p1737
I1
sVdib8fcz
p1738
I1
sVd9cj9xf
p1739
I1
sVdakyjwr
p1740
I1
sVd727iln
p1741
I2
sVd1qe1mm
p1742
I1
sVd48latf
p1743
I2
sVdnq29fp
p1744
I3
sVd1bqbjr
p1745
I1
sVdd7np64
p1746
I1
sVcyirn2u
p1747
I1
sVdn5t9ua
p1748
I1
sVd6iuio6
p1749
I1
sVde1nxnk
p1750
I1
sVdigpn0c
p1751
I1
sVdk8a9pb
p1752
I1
sVcz7c4ga
p1753
I3
sVdbqwtjq
p1754
I1
sVd6not23
p1755
I1
sVdnnjtjg
p1756
I1
sVd1qira1
p1757
I3
sVcz1jkeu
p1758
I1
sVdjygppc
p1759
I1
sVdkfuhgd
p1760
I1
sVdmhhv3j
p1761
I3
sVd3lrpkr
p1762
I2
sVdkd9zdz
p1763
I1
sVdqlrjts
p1764
I1
sVdmj83x0
p1765
I2
sVdngu0c4
p1766
I1
sVdava4su
p1767
I1
sVd6te5th
p1768
I2
sVdrt4ys6
p1769
I2
sVdefuhzi
p1770
I1
sVd2joxrs
p1771
I1
sVd00vjyp
p1772
I1
sVd91tdou
p1773
I2
sVdonlcmv
p1774
I2
sVdiba5j5
p1775
I1
sVdk9egnw
p1776
I2
sVdftyz0j
p1777
I2
sVd5w4g3w
p1778
I4
sVd4a1fv0
p1779
I1
sVditqac7
p1780
I2
sVd0d2jd3
p1781
I1
sVcywwczm
p1782
I1
sVdbslax2
p1783
I2
sVd0p5j11
p1784
I1
sVd28dn6n
p1785
I2
sVds20rts
p1786
I2
sVdc01k0z
p1787
I1
sVd3zutzd
p1788
I1
sVd1yv49x
p1789
I1
sVdd05eoi
p1790
I1
sVdcllsob
p1791
I1
sVd1lnokj
p1792
I1
sVdn9zdgz
p1793
I1
sVd41e5o5
p1794
I1
sVd28g3q8
p1795
I1
sVd0fqsa2
p1796
I4
sVd0277j1
p1797
I1
sVdad1xjx
p1798
I1
sVderreb9
p1799
I1
sVd3q8upi
p1800
I1
sVdbpghny
p1801
I1
sVd0jh3gv
p1802
I1
sVd46wbi9
p1803
I1
sVdrgq4yk
p1804
I1
sVdhpnc9g
p1805
I1
sVdcu5li4
p1806
I1
sVdc02hjf
p1807
I2
sVdmtk46c
p1808
I1
sVdmwq1yr
p1809
I1
sVdizguc7
p1810
I1
sVdhn6u7x
p1811
I1
sVd0jg2gh
p1812
I6
sVdn5acgv
p1813
I1
sVdjd8irn
p1814
I1
sVdgni049
p1815
I2
sVdel1ld8
p1816
I2
sVd0nymuf
p1817
I1
sVdcy88gd
p1818
I1
sVdt7ya8n
p1819
I1
sVd3hkhe9
p1820
I1
sVdk5p5pm
p1821
I1
sVdskvi3x
p1822
I2
sVdt0hc7u
p1823
I1
sVd52n3ng
p1824
I1
sVd061668
p1825
I2
sVcz17hqh
p1826
I1
sVdbid4t7
p1827
I1
sVdrbsci0
p1828
I1
sVdcg7cs5
p1829
I1
sVdbqe7tn
p1830
I2
sVd6pmyyi
p1831
I1
sVd212355
p1832
I1
sVdcggqn1
p1833
I1
sVd5d4649
p1834
I1
sVdej2ewt
p1835
I1
sVczojo9l
p1836
I1
sVcywqo86
p1837
I1
sVdah3rzi
p1838
I1
sVd3l7lkz
p1839
I1
sVdhvdttw
p1840
I1
sVdar1kef
p1841
I1
sVdeh2qch
p1842
I1
sVdj6sel3
p1843
I1
sVd7o0imc
p1844
I1
s.