(dp0
Vdqbppk8
p1
I1
sVdnm0jhc
p2
I1
sVdspas0o
p3
I1
sVdb4ae0j
p4
I1
sVdafra3b
p5
I2
sVditspw4
p6
I1
sVd7sc2fz
p7
I1
sVdaqcgw9
p8
I1
sVdaf5zk6
p9
I1
sVczojmll
p10
I1
sVdfpvxhp
p11
I1
sVd4zxiyc
p12
I1
sVd4gofb7
p13
I1
sVd1imh4q
p14
I1
sVd2a6csh
p15
I1
sVdq3zdkl
p16
I2
sVd5hp59o
p17
I1
sVcz6byoe
p18
I1
sVd0fwqps
p19
I1
sVdj9t3hd
p20
I1
sVd4o49gt
p21
I1
sVdajd7d7
p22
I1
sVdetzxfx
p23
I1
sVdduldix
p24
I1
sVdrxzc8m
p25
I1
sVd0di5wo
p26
I1
sVdowpmyo
p27
I1
sVd0u7qq6
p28
I1
sVd6xkm9b
p29
I1
sVdtc0iv5
p30
I1
sVd4xnnot
p31
I1
sVdmt1fdz
p32
I1
sVdfxf9ul
p33
I1
sVdaqgqdu
p34
I1
sVd152ol2
p35
I1
sVdac8tjz
p36
I1
sVd8exl61
p37
I1
sVdtc3ghx
p38
I1
sVczsgp7z
p39
I1
sVdag7f7m
p40
I1
sVdhik4qk
p41
I1
sVd7zwgqi
p42
I1
sVda5v2hk
p43
I1
sVdq2a4u3
p44
I1
sVdab8131
p45
I4
sVczqibju
p46
I1
sVdhuiuby
p47
I1
sVdkp6y5p
p48
I1
sVdaejoax
p49
I1
sVdrsq922
p50
I1
sVdcicids
p51
I1
sVdac8vvz
p52
I1
sVd2ww3o2
p53
I1
sVdab7ex1
p54
I1
sVd7aq9bo
p55
I1
sVdaichdb
p56
I1
sVdaalj81
p57
I1
sVdephrwl
p58
I1
sVd8nej0m
p59
I2
sVderkxzk
p60
I1
sVd8nuhji
p61
I1
sVdic6a3r
p62
I1
sVd1na5x8
p63
I1
sVdabzvfk
p64
I1
sVdax8sdj
p65
I1
sVd298ubi
p66
I1
sVdj9myi8
p67
I1
s.