(dp0
Vdbe07q0
p1
I1
sVdprbskj
p2
I1
sVd2wy04u
p3
I1
sVd2ag79x
p4
I1
sVd41qltc
p5
I1
sVdpa7c7a
p6
I1
sVdejz9bs
p7
I1
sVdr7wnkn
p8
I1
sVdenblng
p9
I1
sVde0u4c2
p10
I1
sVd2z6n0m
p11
I1
sVd2o23q8
p12
I1
sVcymgf9i
p13
I1
sVdel95st
p14
I1
sVd2q7f0u
p15
I1
sVdoua63s
p16
I1
sVcz18k22
p17
I1
sVd94u9ml
p18
I1
sVdpqmwve
p19
I1
sVd35cawa
p20
I1
sVd7ne6v5
p21
I1
sVdbb3p5h
p22
I1
sVdsi28vx
p23
I1
sVdktnrc9
p24
I1
sVdnd18ec
p25
I1
sVde5hwd6
p26
I1
sVdmm9jrs
p27
I1
sVdc01sqg
p28
I1
sVddq5jpn
p29
I1
sVdp5vb8p
p30
I1
sVdidzx09
p31
I1
s.