(dp0
Vd1y6si3
p1
I2
sVdt9asz5
p2
I1
sVd3tfg7q
p3
I1
sVd1pw5dt
p4
I2
sVdbpogjp
p5
I1
sVdeq52j8
p6
I1
sVd5aahx5
p7
I1
sVd1p2bqw
p8
I1
sVdhc9uys
p9
I1
sVdcuhk55
p10
I1
sVd0fr52c
p11
I1
sVdgqnu7y
p12
I1
sVdo8hj5z
p13
I1
sVdd7a9eb
p14
I1
sVdjwdl94
p15
I2
sVdmu3ywe
p16
I1
sVdc5o0ea
p17
I1
sVd5rseyy
p18
I1
sVd5fo45n
p19
I1
sVdi49ud7
p20
I1
sVdezzf18
p21
I1
sVd44bmgg
p22
I1
sVd5iicya
p23
I1
sVd1vmzjh
p24
I1
sVdmrrz1r
p25
I1
sVds15si9
p26
I1
sVd234lp8
p27
I1
sVd5erhoc
p28
I1
sVddflp1u
p29
I1
sVdg0h7jr
p30
I1
sVd0u06pb
p31
I1
sVd0k6egh
p32
I1
sVd0uq99f
p33
I1
sVd0tel5c
p34
I3
sVdixa2sm
p35
I1
sVdgziye7
p36
I2
sVd32y13h
p37
I1
sVdsl5fxh
p38
I1
sVd0kyo2n
p39
I4
sVdaftdl0
p40
I1
sVczduh5a
p41
I1
sVdqvx4dl
p42
I1
sVcz5cl2q
p43
I1
sVdmqnyk1
p44
I1
sVcz3jywp
p45
I2
sVdt5mimt
p46
I1
sVdhd4p8k
p47
I1
sVdpqnq19
p48
I1
sVdk7tvva
p49
I1
sVddt5t1o
p50
I1
sVd40ddu9
p51
I1
sVd3ai80x
p52
I1
sVdhp7qfa
p53
I1
sVd86bv90
p54
I1
sVd8suvnp
p55
I1
sVdiph8th
p56
I1
sVd1nwtqy
p57
I1
sVdgzatgh
p58
I2
sVd151d7t
p59
I1
sVdfihp4l
p60
I1
sVdbt73zg
p61
I1
sVdaiwusk
p62
I1
sVd5wdge3
p63
I1
sVdj3o4ni
p64
I2
sVdt43cx0
p65
I1
sVddx4pul
p66
I1
sVdj2s9bx
p67
I1
sVd9790lb
p68
I1
sVdf5309z
p69
I1
sVd1g720u
p70
I1
sVd3y5t68
p71
I1
sVd0nwii5
p72
I1
sVdnvnk99
p73
I1
sVdnwhao8
p74
I4
sVd3zzc3o
p75
I1
sVd4bb0oh
p76
I1
sVcyujcy6
p77
I8
sVd737j96
p78
I2
sVdrrx18z
p79
I1
sVdk1kik1
p80
I1
sVdrl44ds
p81
I1
sVdsd5li9
p82
I1
sVd6urr8s
p83
I1
sVd8gc4fv
p84
I1
sVdkeyv0q
p85
I2
sVdim3op3
p86
I1
sVdn1oeno
p87
I1
sVd2flkco
p88
I1
sVd7l6ztc
p89
I2
sVdh78pmx
p90
I1
sVd1nlkb3
p91
I1
sVdaq4ru7
p92
I1
sVcz3k390
p93
I1
sVd26gthx
p94
I2
sVdhcre79
p95
I1
sVdcjkykd
p96
I1
sVdb5jblk
p97
I1
sVdntle26
p98
I1
sVdns7dv6
p99
I1
sVd9x5y46
p100
I2
sVdeyu7ag
p101
I1
sVdtdofs8
p102
I1
sVdgzcht5
p103
I1
sVdrgx8ot
p104
I1
sVdnxzmcj
p105
I1
sVcz92i07
p106
I1
sVd8gdtxt
p107
I1
sVdrhpab5
p108
I1
sVdku56tc
p109
I1
sVczpr8rj
p110
I1
sVdeomdvd
p111
I1
sVdicrt87
p112
I2
sVdbubkm8
p113
I1
sVdk6shtu
p114
I2
sVdaq1uvp
p115
I1
sVdqrw4za
p116
I1
sVdaizl23
p117
I2
sVdktlb4j
p118
I1
sVd38grfh
p119
I1
sVdc7nodt
p120
I1
sVd0fqfs3
p121
I2
sVdegjdwg
p122
I1
sVdqjgb4m
p123
I1
sVd6gmvsg
p124
I1
sVd4uhuzn
p125
I1
sVd1rc71o
p126
I1
sVcz310u0
p127
I1
sVczb0unq
p128
I1
sVddpj6rb
p129
I1
sVd71skmb
p130
I1
sVdmsgbsk
p131
I1
sVd46iiol
p132
I1
sVd0xvsmv
p133
I1
sVd0emh4y
p134
I1
sVd25agkx
p135
I1
sVdjvhh2y
p136
I1
sVdsfctls
p137
I1
sVd1wak89
p138
I1
sVd3gby7g
p139
I1
sVdrs3o0q
p140
I1
sVd5odjpq
p141
I1
sVd8nhz1q
p142
I1
sVd58dh8o
p143
I1
sVczcq7fg
p144
I1
sVdalgr5s
p145
I2
sVdbvls7y
p146
I2
sVdgmwu15
p147
I1
sVdiyrrn0
p148
I2
sVd1pp1w2
p149
I1
sVd27aixo
p150
I1
sVdb91kbb
p151
I1
sVczx5ree
p152
I1
sVd2zxq8i
p153
I1
sVdiuz95n
p154
I1
sVdow4215
p155
I1
sVdn2fxz5
p156
I1
sVdhn825o
p157
I1
sVdfye3ok
p158
I1
sVd4go004
p159
I1
sVdbguqdt
p160
I1
sVdr96e51
p161
I1
sVd0pai60
p162
I1
sVd71g024
p163
I1
sVdf4x67s
p164
I1
sVd71pxvk
p165
I1
sVd1wxr8b
p166
I1
sVdo7zoi7
p167
I1
sVdktj588
p168
I1
sVcykusi1
p169
I1
sVd58zwwl
p170
I1
sVd9yxuhr
p171
I1
sVd19ivle
p172
I1
sVdjeya9f
p173
I2
sVd25rovs
p174
I1
sVdg2cpc9
p175
I1
sVd690pkc
p176
I1
sVd668gk5
p177
I2
sVdbv5x2q
p178
I1
sVdjecn3t
p179
I1
sVd8l2rdo
p180
I1
sVdaz8ioq
p181
I1
sVcynv73y
p182
I1
sVd8wjiam
p183
I1
sVdas9f7a
p184
I1
sVd1o8wi0
p185
I1
sVdt8ersl
p186
I1
sVdbvzkvq
p187
I1
sVd841y8v
p188
I2
sVdkilgom
p189
I1
sVdcvdwkp
p190
I1
sVd48oi5q
p191
I1
sVcyu1peg
p192
I1
sVd1se1kj
p193
I1
sVd25fwn7
p194
I1
sVdi2eeyi
p195
I1
sVd0r72zy
p196
I1
sVd7xs22y
p197
I1
sVdb0nukg
p198
I1
sVdokkfg6
p199
I1
sVdpx8nhk
p200
I1
sVderdny8
p201
I1
sVd5do61f
p202
I1
sVd1d9m8y
p203
I1
sVd245ng8
p204
I1
sVdazdc50
p205
I1
sVdiprsi9
p206
I1
sVd3z7spc
p207
I1
sVdmg9ltg
p208
I1
sVcz892ey
p209
I1
sVd1595pq
p210
I1
sVdn339hn
p211
I1
sVd6j64o6
p212
I1
sVcz3r11x
p213
I1
sVdqc2dcg
p214
I1
sVddt8eha
p215
I1
sVdhngj99
p216
I1
sVcz2w8ul
p217
I1
sVcyxp6pr
p218
I1
sVcznzvgh
p219
I2
sVd4j5jz0
p220
I1
sVda6kwy4
p221
I1
sVdksyzut
p222
I1
sVd3g0obq
p223
I1
sVd1wn3v3
p224
I1
sVd0d3ni7
p225
I1
sVdqt8jyc
p226
I1
sVdqgcpix
p227
I1
sVdfot0y1
p228
I1
sVczbekv5
p229
I1
sVd9fy49y
p230
I2
sVdk6w3ww
p231
I1
sVdo12s04
p232
I1
sVd9h7t8e
p233
I1
sVd12v8bd
p234
I1
sVd879th0
p235
I3
sVd3r276k
p236
I1
sVdaom1kr
p237
I1
sVd6zzpd8
p238
I1
sVdreq9gx
p239
I1
sVdig0l8p
p240
I1
sVdaopgdp
p241
I1
sVdbd30f8
p242
I1
sVdg9brqg
p243
I1
sVd6218ga
p244
I1
sVd0rpctw
p245
I1
sVdkiikh0
p246
I1
sVd049kzl
p247
I1
sVdqeyqug
p248
I1
sVdc7fugk
p249
I1
sVd0yhkvd
p250
I1
sVdhevwj8
p251
I1
sVdhnkp7c
p252
I1
sVd4v8khy
p253
I1
sVdd9vx97
p254
I1
sVdpiq6da
p255
I1
sVdfvttf3
p256
I1
sVd8pk3ww
p257
I1
sVd3x40nt
p258
I1
sVczk41cn
p259
I1
sVdpe65x0
p260
I2
sVcz1vb7k
p261
I1
sVd9am90w
p262
I1
sVd4zbafq
p263
I1
sVd1e8kp8
p264
I1
sVd0kvdtq
p265
I1
sVddp6oq5
p266
I1
sVddkghcq
p267
I1
sVd1vdu4q
p268
I1
sVdif5qvl
p269
I1
sVd82po7v
p270
I1
sVcz85in9
p271
I2
sVczcsxfr
p272
I1
sVd1memjx
p273
I1
sVda3d484
p274
I1
sVdhviy87
p275
I1
sVda341rs
p276
I1
sVd0ptszz
p277
I1
sVdr2gu1w
p278
I1
sVd0mduea
p279
I1
sVcz3jaqv
p280
I1
sVdh2lc5a
p281
I1
sVdcamaxa
p282
I1
sVdhflxkc
p283
I1
sVdjwm8yf
p284
I1
sVd3ng0d5
p285
I1
sVdktjvs1
p286
I1
sVd48iur8
p287
I1
sVdfowoy8
p288
I1
sVd475x6u
p289
I1
sVdjpt17i
p290
I1
sVd4berk3
p291
I1
sVdnu6g6l
p292
I1
sVd1xi36r
p293
I1
sVdbgkvt4
p294
I1
sVda1rlwy
p295
I4
sVddugbmr
p296
I1
sVdha0rze
p297
I1
sVdkirw4j
p298
I1
sVdqbppk8
p299
I1
sVd49z5zr
p300
I1
sVd0nlud6
p301
I1
sVd92wv7o
p302
I1
sVdk8u643
p303
I1
sVdkm57of
p304
I1
sVdh07zg0
p305
I1
sVde9nsah
p306
I1
sVdtc5tdk
p307
I1
sVd572bno
p308
I1
sVdfzdvei
p309
I1
sVd2q86v3
p310
I3
sVd3qzs99
p311
I1
sVd4bij7p
p312
I1
sVdcu8rwn
p313
I2
sVdole06o
p314
I1
sVdjhwcw7
p315
I1
sVdb93inx
p316
I1
sVdsoev4u
p317
I1
sVdcvb2pt
p318
I5
sVd5igbix
p319
I1
sVdnhy84g
p320
I1
sVd624u4b
p321
I1
sVdmou70u
p322
I1
sVd7z59t0
p323
I1
sVdi3hw63
p324
I1
sVditdj88
p325
I1
sVdrcumo7
p326
I1
sVd8lll24
p327
I1
sVdctnlzo
p328
I1
sVdaz1ztp
p329
I1
sVdekh9z0
p330
I1
sVd4qr659
p331
I1
sVdre73wd
p332
I1
sVd6une0r
p333
I1
sVdcix90c
p334
I1
s.