(dp0
Vd9de3pz
p1
I1
s.(dp0
Vd9de3pz
p1
I2
s.(dp0
Vd9de3pz
p1
I2
s.(dp0
Vd9de3pz
p1
I2
s.(dp0
Vd9de3pz
p1
I2
s.(dp0
Vd9de3pz
p1
I2
s.(dp0
Vd9de3pz
p1
I1
sVdaxonav
p2
I1
s.(dp0
Vd9de3pz
p1
I1
sVdcmlbuu
p2
I1
s.