(dp0
Vd17r1i3
p1
I1
sVd7hojnx
p2
I1
sVd1i30eb
p3
I1
sVd9elyb7
p4
I2
sVd17gffh
p5
I2
sVczm8fpy
p6
I1
sVdc8nk6h
p7
I1
sVd2n5y8e
p8
I1
sVds5ia90
p9
I1
sVdikdnyt
p10
I1
sVdg8dxj0
p11
I1
sVdb3lz09
p12
I1
sVdc729b8
p13
I1
sVdados4x
p14
I1
sVdfhif5n
p15
I1
sVd37hftt
p16
I1
sVdbwt3lc
p17
I1
sVdp1woaq
p18
I1
sVddwzmtt
p19
I1
sVdk9q5sm
p20
I1
sVdcacacj
p21
I1
sVcynit03
p22
I1
sVdqksg5v
p23
I1
sVdh12dst
p24
I1
sVdde337s
p25
I1
sVd7v1ykp
p26
I1
sVd7echwq
p27
I1
sVd5df0fe
p28
I1
sVd8uww6z
p29
I1
sVdd40g14
p30
I1
sVczrulzm
p31
I1
sVdfgyah5
p32
I1
sVd3cfcxl
p33
I1
sVd1p69vu
p34
I1
sVdhh1dq6
p35
I1
sVdh6ofan
p36
I1
sVdqskd4v
p37
I1
sVdbz4qyh
p38
I1
sVd6dks7x
p39
I2
sVdie124q
p40
I1
sVdgvhinh
p41
I1
sVcylltid
p42
I1
sVd16c2n9
p43
I1
sVczmrg5i
p44
I1
sVcyolz4p
p45
I1
sVd33bzv6
p46
I1
sVd2go52c
p47
I1
sVczbq05e
p48
I1
sVdeibvtv
p49
I1
sVczb84hx
p50
I1
sVdalqvbb
p51
I1
sVddkhrio
p52
I1
sVdratrxj
p53
I1
sVczfhbe6
p54
I1
sVda1zvay
p55
I1
sVdcu1inm
p56
I1
sVds4n56l
p57
I1
sVcyi3u4r
p58
I1
sVd1vttp3
p59
I1
sVd2yy866
p60
I1
sVd0078rv
p61
I1
sVde2zgeq
p62
I1
sVdihzfvz
p63
I1
sVd7zqaao
p64
I1
sVd8ybkbw
p65
I1
sVddnk3wi
p66
I1
sVd8qc0f7
p67
I1
sVd566sxw
p68
I1
sVd2u94hz
p69
I1
sVdoqu48b
p70
I1
sVdhhdvqa
p71
I1
sVda6wqgo
p72
I1
sVd2yf4ub
p73
I1
sVd8bqfpm
p74
I1
sVdoce52z
p75
I1
sVd4xma7r
p76
I1
sVd1p2cj4
p77
I1
sVdpnjlxk
p78
I1
sVdbx8k0l
p79
I1
sVdhdh0rd
p80
I1
sVd8drren
p81
I1
sVdh1jza1
p82
I1
sVd8sh9mb
p83
I1
sVcyrfgnx
p84
I1
sVdrbw0ak
p85
I1
sVdfn6dzt
p86
I1
sVd4n1fvh
p87
I4
sVdic98n5
p88
I1
sVcz3q2gi
p89
I1
sVd6eyvku
p90
I1
sVdn0h6oj
p91
I2
sVdc97qqo
p92
I1
sVdsbd246
p93
I1
sVd5xhrtl
p94
I1
sVde46hya
p95
I1
sVd90t4j6
p96
I1
sVdpmw8op
p97
I1
sVd0g2uni
p98
I1
sVdbe8654
p99
I1
sVd0owkr2
p100
I1
sVdo4pqyx
p101
I1
sVdmurlks
p102
I1
sVdf0268i
p103
I1
sVdo39s4i
p104
I1
sVd967n1g
p105
I2
sVdjlr60x
p106
I1
sVczg71ph
p107
I1
sVdbpr7s3
p108
I2
sVd0ipxq8
p109
I1
sVdkag5qn
p110
I1
sVdfieluv
p111
I1
sVd658vw0
p112
I1
sVczwk8ou
p113
I1
sVd6e6lh7
p114
I1
sVd7nhw4o
p115
I1
sVczyoe1i
p116
I2
sVdh4ajfo
p117
I1
sVd7l6me1
p118
I1
sVdehxcrm
p119
I1
sVdh0vhb8
p120
I1
sVcyjbadl
p121
I1
sVdcuwx5b
p122
I1
sVdqr9z8d
p123
I2
sVdi8q4n1
p124
I1
sVd3v5srl
p125
I1
sVd6973wv
p126
I1
sVd84ccy0
p127
I2
sVdcyu374
p128
I1
sVdshaprd
p129
I1
sVd0rqt2t
p130
I1
sVd69x7j2
p131
I1
sVda8oh31
p132
I1
sVdifh5r7
p133
I1
sVd53ydwk
p134
I1
sVd8sta9i
p135
I1
sVd9pp5c7
p136
I1
sVd6rkhx0
p137
I1
sVd210dtw
p138
I1
sVdjyhzym
p139
I1
sVd1lqu52
p140
I1
sVd0rmkv4
p141
I1
sVdaltey2
p142
I1
sVd2jorb6
p143
I1
sVda2s7rx
p144
I1
sVddbef07
p145
I1
sVdfiu83g
p146
I2
sVdiyynjn
p147
I1
sVcysfh4g
p148
I1
sVd083h00
p149
I1
sVdslsgim
p150
I2
sVd8qb3cu
p151
I1
sVde1ddyo
p152
I1
sVcyl99z9
p153
I1
sVd2jp25q
p154
I1
sVdb4h6f5
p155
I1
sVd39afuc
p156
I1
sVdrzuor6
p157
I1
sVdggu6jb
p158
I1
sVdju18zx
p159
I1
sVd42avfr
p160
I1
sVdiqagre
p161
I1
sVdhewsom
p162
I1
sVdppsb16
p163
I1
sVczqy133
p164
I1
sVdehac68
p165
I1
sVdet3o64
p166
I1
sVdbc77rm
p167
I1
sVd2sawbm
p168
I1
sVd6ip7mp
p169
I1
sVd1l09v5
p170
I1
sVdnm6bdh
p171
I1
sVdey2iqo
p172
I1
sVd40ebiq
p173
I2
sVd5lo6ee
p174
I1
sVdho9qbo
p175
I1
sVdkx3ujd
p176
I1
sVdokyoo5
p177
I1
sVdbjawlk
p178
I1
sVdpuliea
p179
I1
sVdn4ajfy
p180
I1
sVcz7g83m
p181
I1
sVde0r5qu
p182
I1
sVcze05ex
p183
I1
sVd4ttt7q
p184
I1
sVd0yyw1g
p185
I1
sVd21pwv4
p186
I1
sVd9mg24b
p187
I1
sVdib7zwn
p188
I1
sVd22x7q0
p189
I1
sVdfl9i6u
p190
I1
sVda2rzsc
p191
I1
sVd22wot3
p192
I1
sVdg9am8f
p193
I1
sVdqdwacq
p194
I1
sVd3te0ma
p195
I1
sVd0jjqnf
p196
I1
sVda42om5
p197
I1
sVd2xdosw
p198
I1
sVdfegnqr
p199
I2
sVdmic77n
p200
I1
sVd1rkj0q
p201
I1
sVcyu1x3d
p202
I1
sVdbt8zlm
p203
I1
sVdc49cax
p204
I1
sVdc0cycd
p205
I1
sVdkqgcqh
p206
I2
sVdkpto99
p207
I1
sVdc0aqhg
p208
I1
sVd9ex9ku
p209
I2
sVd5jb4rd
p210
I2
sVcyzktq0
p211
I1
sVdt7mihe
p212
I1
sVdcb7yfc
p213
I1
sVd61tp18
p214
I1
sVd6ccntd
p215
I1
sVde00jao
p216
I1
sVd7bjqau
p217
I1
sVdjray6s
p218
I2
sVd036ewk
p219
I1
sVd6qj4ik
p220
I1
sVdsxmvzz
p221
I2
sVda51mx3
p222
I2
sVcz3z01b
p223
I1
sVd8bttos
p224
I2
sVd2x5by0
p225
I1
sVd8bx5wt
p226
I1
sVdsradub
p227
I1
sVd0xdzz9
p228
I1
sVdhd4ulk
p229
I1
sVdo4qgs6
p230
I1
sVd3994cw
p231
I1
sVd9svdwm
p232
I1
sVd6f7e64
p233
I1
sVdaho9gs
p234
I1
sVdkqh05y
p235
I1
sVdmznln9
p236
I1
sVdspeqyu
p237
I1
sVdmgh33o
p238
I1
sVdringro
p239
I1
sVdd5obra
p240
I1
sVdp75ck8
p241
I1
sVdogyeff
p242
I1
sVdqfdbp0
p243
I1
sVd84amio
p244
I1
sVd2fupox
p245
I1
sVdnyzxw7
p246
I1
sVdp7dhog
p247
I1
sVd8sp46r
p248
I1
sVdifrxxs
p249
I1
sVde7ni9n
p250
I1
sVd69coil
p251
I1
sVcz4zp5t
p252
I1
sVda0c23g
p253
I1
sVd2dzz4u
p254
I1
sVd0bvd7x
p255
I1
sVdo6oyy0
p256
I1
sVdiff71p
p257
I1
sVdfibst4
p258
I1
sVdagffov
p259
I1
sVd2yii66
p260
I3
sVczef2hh
p261
I1
sVd4zzbs6
p262
I1
sVdjqv5a8
p263
I1
sVdbks4sl
p264
I1
sVd86sgnl
p265
I1
sVd38xh1k
p266
I1
sVdfami7c
p267
I1
sVd0gyh0m
p268
I1
sVdihucxw
p269
I1
sVdpkvigm
p270
I1
sVdkdid6f
p271
I1
sVcyjumjg
p272
I1
sVdizmqgn
p273
I1
sVd2k2qvb
p274
I1
sVcz7q8g4
p275
I1
sVdekqsp6
p276
I4
sVd2yfmum
p277
I1
sVdrolda2
p278
I1
sVd4essb4
p279
I1
sVd3hdo1y
p280
I1
sVdbibi3g
p281
I1
sVcyl9jdg
p282
I1
sVd6eywtp
p283
I1
sVdp4tsa3
p284
I1
sVd7xj2tt
p285
I1
sVd7ngnzi
p286
I2
sVdhly2rm
p287
I1
sVd6b17na
p288
I1
sVdbzfws2
p289
I1
sVdoxcpdx
p290
I1
sVdmzms06
p291
I1
sVd2dyjj6
p292
I1
sVdpqym8b
p293
I2
sVd4nf4yo
p294
I1
sVd9riyie
p295
I3
sVdi46mtk
p296
I1
sVd5ap62b
p297
I1
sVd7mjn92
p298
I1
sVdihegha
p299
I2
sVd0pref5
p300
I1
sVd8460p5
p301
I1
sVdi1ya1v
p302
I1
sVd9yidur
p303
I1
sVdorlj7k
p304
I1
sVd8bkt7r
p305
I1
sVd8exu7i
p306
I1
sVdg2czx4
p307
I1
sVd95tj9u
p308
I1
sVd5hvvsn
p309
I1
sVdeaoqj7
p310
I1
sVdabtxbd
p311
I1
sVd8fjwph
p312
I1
sVd4t4nrb
p313
I1
sVd3iul8a
p314
I1
sVdol2zfs
p315
I1
sVdn62mne
p316
I1
sVdqg9ck2
p317
I1
sVdgzm9gg
p318
I1
sVdnwftuy
p319
I1
sVde6fqpv
p320
I1
sVdauc2x0
p321
I1
sVd9z3via
p322
I1
sVddsvib9
p323
I1
sVd1sc1y2
p324
I2
sVddojtds
p325
I1
sVd4uyeus
p326
I1
sVdkpt9wk
p327
I1
sVdr6nmwh
p328
I1
sVdcyickp
p329
I1
sVd8rgubu
p330
I1
sVdirv22t
p331
I1
sVd3b68al
p332
I1
sVd4km8d1
p333
I1
sVd26vcgp
p334
I2
sVdniopib
p335
I1
sVdbciwfd
p336
I1
sVdhvaomk
p337
I1
sVdhibxhm
p338
I1
sVd2fpa7a
p339
I1
sVd9xe4ee
p340
I1
sVd0o3ytc
p341
I1
sVdfzxaiy
p342
I1
sVdf9ub6r
p343
I1
sVdambx1j
p344
I1
sVdoz53xs
p345
I1
sVd0xoh4s
p346
I1
sVdr0i9bf
p347
I1
sVd032pxd
p348
I1
sVdabze2t
p349
I1
sVd49f59z
p350
I1
sVd3qchex
p351
I1
sVcyokr1i
p352
I1
sVdc7l3iv
p353
I1
sVd0gl7o7
p354
I1
sVde7tklf
p355
I1
sVd9o9mgr
p356
I1
sVdax24bc
p357
I1
sVcztie0l
p358
I2
sVcyxcrcx
p359
I1
sVdi5c4wl
p360
I1
sVd686gy6
p361
I1
sVd67b8yy
p362
I1
sVd0odb7q
p363
I1
sVdqzpqrr
p364
I1
sVdb050su
p365
I1
sVd6px19u
p366
I1
sVdkgx15b
p367
I1
sVcyzv231
p368
I1
sVcyp7u8l
p369
I1
sVdef43gk
p370
I1
sVd0sktcv
p371
I1
sVdnvrofs
p372
I1
sVd4z2y0m
p373
I1
sVda469sc
p374
I1
sVdrgqob2
p375
I1
sVd9eyap8
p376
I1
sVdbr316k
p377
I1
sVdjh242g
p378
I2
sVde9b2wz
p379
I1
sVd2qg1fh
p380
I1
sVde4gh3p
p381
I1
sVdb7vu2k
p382
I1
sVdomo2g5
p383
I1
sVcztj543
p384
I1
sVd74rlje
p385
I1
sVd61epwb
p386
I1
sVdh0uzt8
p387
I1
sVd2jqt1d
p388
I1
sVd4nn6hl
p389
I1
sVd38p983
p390
I1
sVdamy4ge
p391
I1
sVdkv409l
p392
I1
sVdk0e0k7
p393
I1
sVdhciwgr
p394
I1
sVd2ef0mt
p395
I1
sVd959gxv
p396
I1
sVd1bxu1u
p397
I1
sVdd9hsq6
p398
I1
sVdf09dm8
p399
I3
sVdne3uka
p400
I1
sVczlizwq
p401
I1
sVdddlb9b
p402
I1
sVd7vq1vr
p403
I1
sVcyp6u6e
p404
I1
sVd9enx6w
p405
I1
sVdiyprxa
p406
I1
sVd4uvio5
p407
I1
sVdbk9jub
p408
I1
sVd96jdnw
p409
I1
sVdet2jay
p410
I1
sVcz4hyop
p411
I1
sVd2knotj
p412
I1
sVd56jk88
p413
I1
sVdsryh7g
p414
I1
sVd71fpgo
p415
I1
sVdmzukbx
p416
I1
sVd9ncfr3
p417
I1
sVdp2mihu
p418
I1
sVdcbfvwe
p419
I1
sVdeucttr
p420
I1
sVdjr65s2
p421
I1
sVdc7mdt5
p422
I2
sVdfygbpr
p423
I1
sVd8cl2pl
p424
I1
sVdg7ojmj
p425
I1
sVdcc3513
p426
I1
sVd9a6z7v
p427
I1
sVdf0bep6
p428
I1
sVdnm476v
p429
I1
sVdmxtw8j
p430
I1
sVdq3zhev
p431
I1
sVd1r0c9e
p432
I2
sVd2wjyxl
p433
I2
sVdajd3hd
p434
I1
sVd3g3u9h
p435
I1
sVd867e48
p436
I1
sVdekr84y
p437
I1
sVd2vt4wm
p438
I1
sVd2joxrs
p439
I1
sVdfgeq5o
p440
I1
sVds9nv5a
p441
I1
sVd2x0qqt
p442
I1
sVdd7o54l
p443
I1
sVdfiir99
p444
I1
sVcz6g677
p445
I1
sVd9vq53o
p446
I1
sVdb60bkd
p447
I1
sVd53i9q9
p448
I1
sVd8hy66t
p449
I1
sVdedv9zx
p450
I1
sVd8lhb65
p451
I1
sVd0twy7e
p452
I1
sVdh3im4b
p453
I1
sVd00frh2
p454
I1
sVd74g4tc
p455
I2
sVdkf6oln
p456
I1
sVd1pp23w
p457
I2
sVdbpa01k
p458
I1
sVddgmcwf
p459
I1
sVd630z7d
p460
I1
sVcynfvom
p461
I1
sVdemvbfa
p462
I1
sVddpyt5d
p463
I1
sVdg1ouut
p464
I1
sVdju520q
p465
I1
sVd91dpzy
p466
I1
sVd70n0ki
p467
I1
sVdh9wump
p468
I1
sVd4gl7xf
p469
I1
sVd00nyaa
p470
I1
sVdgdcjnu
p471
I1
sVdqedh86
p472
I1
sVdbelw21
p473
I1
sVdamx0se
p474
I1
sVd4htt6s
p475
I1
sVcz0kesc
p476
I2
sVdeyg3pe
p477
I1
sVd1vf8o8
p478
I1
sVd8cnl65
p479
I1
sVdc41nj2
p480
I1
sVdekt5qe
p481
I1
sVdih8lpd
p482
I1
sVdq053x5
p483
I1
sVdn61jkt
p484
I1
sVdt9dpjz
p485
I1
sVdc6t2ki
p486
I1
sVd0km1mm
p487
I1
sVdimg6ms
p488
I1
sVdohe1lk
p489
I1
sVdc7m4e5
p490
I1
sVd316bpq
p491
I1
sVd0zr9oi
p492
I1
sVds6o28b
p493
I1
sVd9nbh7u
p494
I1
sVd2g805b
p495
I1
sVdnyu5hg
p496
I1
sVdks9vm3
p497
I1
sVd4eluv7
p498
I1
sVdoptut3
p499
I1
sVdbg2w1h
p500
I1
sVdeu7dwu
p501
I1
sVdnl1rek
p502
I1
sVdi18dn0
p503
I2
sVd55qbhz
p504
I1
sVdnsk64p
p505
I1
sVdcyncc8
p506
I1
sVd99stty
p507
I1
sVd48b2vx
p508
I2
sVda2lkqa
p509
I1
sVd69n33p
p510
I1
sVd34culh
p511
I1
sVdpz5hg0
p512
I1
sVd31akp7
p513
I1
sVdn9fdr6
p514
I1
sVd8p0yi3
p515
I1
sVd93cqbe
p516
I2
sVd5ths7q
p517
I1
sVdep9n78
p518
I1
sVd09almv
p519
I1
sVdn6cg11
p520
I1
sVczkvt9s
p521
I1
sVdk5r1rn
p522
I1
sVd42jx96
p523
I1
sVd73czsc
p524
I1
sVcyvz0jp
p525
I1
sVcz14xhu
p526
I1
sVd8oscun
p527
I1
sVd4675ho
p528
I1
sVdaklala
p529
I1
sVdt4fh7w
p530
I1
sVdabiphq
p531
I1
s.