(dp0
Vdnme5kd
p1
I1
sVdb4v5tt
p2
I1
sVdsvbdkx
p3
I1
sVdqdnzou
p4
I1
sVdn1em61
p5
I2
sVdc0xoo4
p6
I1
sVdb4tlux
p7
I1
sVdnmcazd
p8
I1
sVd98ie1n
p9
I1
sVd3a21uc
p10
I1
sVdj9oec8
p11
I1
sVdr57cbp
p12
I1
sVdsiutaa
p13
I1
sVdblv0su
p14
I1
sVdb53dna
p15
I1
sVda9ou5k
p16
I1
sVd0msz3f
p17
I1
sVdr525pq
p18
I1
sVdgy364r
p19
I1
sVdc0rb1e
p20
I1
sVd17v3bu
p21
I1
sVdosd73s
p22
I2
sVdcamqzd
p23
I1
sVdcmsd39
p24
I1
sVdc0t8s4
p25
I1
sVd9vssw3
p26
I1
sVdmmrf33
p27
I1
s.