(dp0
Vcymx7zd
p1
I1
s.(dp0
Vcyswapw
p1
I1
sVcymx7zd
p2
I1
s.(dp0
Vcyyzwue
p1
I1
sVcymx7zd
p2
I1
s.(dp0
Vczyjc61
p1
I1
sVcymx7zd
p2
I1
s.(dp0
Vczyskrx
p1
I1
sVcymx7zd
p2
I1
s.(dp0
Vd0gfge8
p1
I1
sVcymx7zd
p2
I1
s.(dp0
Vd0po13i
p1
I1
sVcymx7zd
p2
I1
s.(dp0
Vd1a6gzz
p1
I1
sVcymx7zd
p2
I1
s.(dp0
Vd1bvvcr
p1
I1
sVcymx7zd
p2
I1
s.(dp0
Vd1gchw9
p1
I1
sVcymx7zd
p2
I1
s.(dp0
Vd1mmau4
p1
I1
sVcymx7zd
p2
I1
s.(dp0
Vd1xcwcz
p1
I1
sVcymx7zd
p2
I1
s.(dp0
Vd1ymiwz
p1
I1
sVcymx7zd
p2
I1
s.(dp0
Vd2br2q6
p1
I1
sVcymx7zd
p2
I1
s.(dp0
Vd3118eh
p1
I1
sVcymx7zd
p2
I1
s.(dp0
Vd3g2oq3
p1
I1
sVcymx7zd
p2
I1
s.(dp0
Vd3nhlxr
p1
I1
sVcymx7zd
p2
I1
s.(dp0
Vd48ds16
p1
I1
sVcymx7zd
p2
I1
s.(dp0
Vd4n32xy
p1
I1
sVcymx7zd
p2
I1
s.(dp0
Vd5e7ncd
p1
I1
sVcymx7zd
p2
I1
s.(dp0
Vd5e7ncd
p1
I1
sVcymx7zd
p2
I1
s.(dp0
Vd5oseur
p1
I1
sVcymx7zd
p2
I1
s.(dp0
Vd6ehw9w
p1
I1
sVcymx7zd
p2
I1
s.(dp0
Vd6vo6u2
p1
I1
sVcymx7zd
p2
I1
s.(dp0
Vd73ms4k
p1
I1
sVcymx7zd
p2
I1
s.(dp0
Vd7e4vxf
p1
I1
sVcymx7zd
p2
I1
s.(dp0
Vd7ewli8
p1
I1
sVcymx7zd
p2
I1
s.(dp0
Vd7ewli8
p1
I1
sVcymx7zd
p2
I1
s.(dp0
Vd7lc0wj
p1
I1
sVcymx7zd
p2
I1
s.(dp0
Vd7ukto3
p1
I1
sVcymx7zd
p2
I1
s.(dp0
Vd88v9nl
p1
I1
sVcymx7zd
p2
I1
s.(dp0
Vd8ciwcd
p1
I1
sVcymx7zd
p2
I1
s.(dp0
Vd8w4fop
p1
I1
sVcymx7zd
p2
I1
s.(dp0
Vd8xcm28
p1
I1
sVcymx7zd
p2
I1
s.(dp0
Vd8xo8c3
p1
I1
sVcymx7zd
p2
I1
s.(dp0
Vd9ga7vd
p1
I1
sVcymx7zd
p2
I1
s.(dp0
Vda4y4jt
p1
I1
sVcymx7zd
p2
I1
s.(dp0
Vda98kjv
p1
I1
sVcymx7zd
p2
I1
s.(dp0
Vdac2bd7
p1
I1
sVcymx7zd
p2
I1
s.(dp0
Vdb01in9
p1
I1
sVcymx7zd
p2
I1
s.(dp0
Vdbgqpfm
p1
I1
sVcymx7zd
p2
I1
s.(dp0
Vdbqvt7g
p1
I1
sVcymx7zd
p2
I1
s.(dp0
Vdbs6foz
p1
I1
sVcymx7zd
p2
I1
s.(dp0
Vdcehigs
p1
I1
sVcymx7zd
p2
I1
s.(dp0
Vdcy57zp
p1
I1
sVcymx7zd
p2
I1
s.(dp0
Vddzc26f
p1
I1
sVcymx7zd
p2
I1
s.(dp0
Vde7l6h2
p1
I1
sVcymx7zd
p2
I1
s.(dp0
Vdex7j7f
p1
I1
sVcymx7zd
p2
I1
s.(dp0
Vdeyzfek
p1
I1
sVcymx7zd
p2
I1
s.(dp0
Vdffdk0y
p1
I1
sVcymx7zd
p2
I1
s.(dp0
Vdfq2a7c
p1
I1
sVcymx7zd
p2
I1
s.(dp0
Vdgco5tz
p1
I1
sVcymx7zd
p2
I1
s.(dp0
Vdggvc3k
p1
I1
sVcymx7zd
p2
I1
s.(dp0
Vdghmu04
p1
I1
sVcymx7zd
p2
I1
s.(dp0
Vdh94jjz
p1
I1
sVcymx7zd
p2
I1
s.(dp0
Vdh94jjz
p1
I1
sVcymx7zd
p2
I1
s.(dp0
Vdhcjtqq
p1
I1
sVcymx7zd
p2
I1
s.(dp0
Vdhfjcwb
p1
I1
sVcymx7zd
p2
I1
s.(dp0
Vdhg57ea
p1
I1
sVcymx7zd
p2
I1
s.(dp0
Vdhrhvn4
p1
I1
sVcymx7zd
p2
I1
s.(dp0
Vdhy8hqv
p1
I1
sVcymx7zd
p2
I1
s.(dp0
Vdi0cke9
p1
I1
sVcymx7zd
p2
I1
s.(dp0
Vdineb7g
p1
I1
sVcymx7zd
p2
I1
s.(dp0
Vdixd8dl
p1
I1
sVcymx7zd
p2
I1
s.(dp0
Vdj9l8pj
p1
I1
sVcymx7zd
p2
I1
s.(dp0
Vdkj2cgw
p1
I1
sVcymx7zd
p2
I1
s.(dp0
Vdmro1lo
p1
I1
sVcymx7zd
p2
I1
s.(dp0
Vdnac5e9
p1
I1
sVcymx7zd
p2
I1
s.(dp0
Vdoivnu6
p1
I1
sVcymx7zd
p2
I1
s.(dp0
Vdqaykx9
p1
I1
sVcymx7zd
p2
I1
s.(dp0
Vdqll7p0
p1
I1
sVcymx7zd
p2
I1
s.(dp0
Vdqu0n3x
p1
I1
sVcymx7zd
p2
I1
s.(dp0
Vdreeugd
p1
I1
sVcymx7zd
p2
I1
s.(dp0
Vds1w7ca
p1
I1
sVcymx7zd
p2
I1
s.(dp0
Vdsasj35
p1
I1
sVcymx7zd
p2
I1
s.