(dp0
Vcyi2nxe
p1
I1
s.(dp0
Vcyp6acr
p1
I1
sVcyi2nxe
p2
I1
s.(dp0
Vcyyltmp
p1
I1
sVcyi2nxe
p2
I1
s.(dp0
Vcz5d9cy
p1
I1
sVcyi2nxe
p2
I1
s.(dp0
Vczfrpw9
p1
I1
sVcyi2nxe
p2
I1
s.(dp0
Vczkm80c
p1
I1
sVcyi2nxe
p2
I1
s.(dp0
Vd00ppxl
p1
I1
sVcyi2nxe
p2
I1
s.(dp0
Vd04d46s
p1
I1
sVcyi2nxe
p2
I1
s.(dp0
Vd0j2kx3
p1
I1
sVcyi2nxe
p2
I1
s.(dp0
Vd1llbkh
p1
I1
sVcyi2nxe
p2
I1
s.(dp0
Vd1zyxzb
p1
I1
sVcyi2nxe
p2
I1
s.(dp0
Vd26l1xl
p1
I1
sVcyi2nxe
p2
I1
s.(dp0
Vd2efscj
p1
I1
sVcyi2nxe
p2
I1
s.(dp0
Vd3bc1xo
p1
I1
sVcyi2nxe
p2
I1
s.(dp0
Vd57qs2z
p1
I1
sVcyi2nxe
p2
I1
s.(dp0
Vd59dtdc
p1
I1
sVcyi2nxe
p2
I1
s.(dp0
Vd5ujf0e
p1
I1
sVcyi2nxe
p2
I1
s.(dp0
Vd6idtuq
p1
I1
sVcyi2nxe
p2
I1
s.(dp0
Vd6kiaox
p1
I1
sVcyi2nxe
p2
I1
s.(dp0
Vd7vshjy
p1
I1
sVcyi2nxe
p2
I1
s.(dp0
Vd94pd88
p1
I1
sVcyi2nxe
p2
I1
s.(dp0
Vd9jyh8c
p1
I1
sVcyi2nxe
p2
I1
s.(dp0
Vd9oe32o
p1
I1
sVcyi2nxe
p2
I1
s.(dp0
Vd9rizmy
p1
I1
sVcyi2nxe
p2
I1
s.(dp0
Vdab7tju
p1
I1
sVcyi2nxe
p2
I1
s.(dp0
Vdasf8c8
p1
I1
sVcyi2nxe
p2
I1
s.(dp0
Vdble5a1
p1
I1
sVcyi2nxe
p2
I1
s.(dp0
Vdc90kye
p1
I1
sVcyi2nxe
p2
I1
s.(dp0
Vdc90pzb
p1
I1
sVcyi2nxe
p2
I1
s.(dp0
Vdd6t358
p1
I1
sVcyi2nxe
p2
I1
s.(dp0
Vdde7epi
p1
I1
sVcyi2nxe
p2
I1
s.(dp0
Vde0dujl
p1
I1
sVcyi2nxe
p2
I1
s.(dp0
Vde4lhmi
p1
I1
sVcyi2nxe
p2
I1
s.(dp0
Vdexfwtx
p1
I1
sVcyi2nxe
p2
I1
s.(dp0
Vdfp3qj8
p1
I1
sVcyi2nxe
p2
I1
s.(dp0
Vdgadb6l
p1
I1
sVcyi2nxe
p2
I1
s.(dp0
Vdgi9xe0
p1
I1
sVcyi2nxe
p2
I1
s.(dp0
Vdhbuz9t
p1
I1
sVcyi2nxe
p2
I1
s.(dp0
Vdhw2jpp
p1
I1
sVcyi2nxe
p2
I1
s.(dp0
Vdhw2jpp
p1
I1
sVcyi2nxe
p2
I1
s.(dp0
Vdhw2jpp
p1
I1
sVcyi2nxe
p2
I1
s.(dp0
Vdhw2n5c
p1
I1
sVcyi2nxe
p2
I1
s.(dp0
Vdhw2n5c
p1
I1
sVcyi2nxe
p2
I1
s.(dp0
Vdhw6w0x
p1
I1
sVcyi2nxe
p2
I1
s.(dp0
Vdhw96tp
p1
I1
sVcyi2nxe
p2
I1
s.(dp0
Vdhw96tp
p1
I1
sVcyi2nxe
p2
I1
s.(dp0
Vdkqg5xy
p1
I1
sVcyi2nxe
p2
I1
s.(dp0
Vdn1fqte
p1
I1
sVcyi2nxe
p2
I1
s.(dp0
Vdn1fqte
p1
I1
sVcyi2nxe
p2
I1
s.(dp0
Vdp5w4jr
p1
I1
sVcyi2nxe
p2
I1
s.(dp0
Vdp67siy
p1
I1
sVcyi2nxe
p2
I1
s.(dp0
Vdp94r6q
p1
I1
sVcyi2nxe
p2
I1
s.(dp0
Vds00bz2
p1
I1
sVcyi2nxe
p2
I1
s.(dp0
Vdsicbhs
p1
I1
sVcyi2nxe
p2
I1
s.(dp0
Vdtimx6w
p1
I1
sVcyi2nxe
p2
I1
s.