(dp0
Vdbxchb3
p1
I1
sVdjyrio9
p2
I2
sVdn1xcbk
p3
I1
sVdg1348l
p4
I1
sVdcdj8cj
p5
I1
sVdh2i0zi
p6
I1
sVd15owzs
p7
I1
sVdg1corz
p8
I1
sVcyvgaw0
p9
I1
sVddgv0ag
p10
I1
sVdh84qej
p11
I1
sVd4gqlae
p12
I1
sVdp098qw
p13
I1
sVczgzyhs
p14
I1
sVdpx5n4t
p15
I2
sVd2vkyoz
p16
I1
sVd0vbmdw
p17
I2
sVd626ctp
p18
I1
sVczjofmc
p19
I1
sVdc8e7ob
p20
I4
sVdjyrxis
p21
I1
sVd3a3fwf
p22
I1
sVdsvfgbd
p23
I1
sVd3liia6
p24
I2
sVd4eqbsp
p25
I1
sVd2fudtk
p26
I1
sVdhj8bmu
p27
I3
sVdpvgicj
p28
I1
sVdml64vs
p29
I1
sVczgdhr7
p30
I1
sVdidi2q4
p31
I1
sVdh6t6bl
p32
I1
sVd19ov3k
p33
I1
sVd1flhpm
p34
I1
sVdhdfsi5
p35
I1
sVd5chzai
p36
I1
sVdjk5kzr
p37
I1
sVcz6hm6a
p38
I2
sVd2h5k02
p39
I1
sVczjxnqy
p40
I1
sVd4wqxpv
p41
I1
sVdhfixju
p42
I2
sVdhfhi7u
p43
I1
sVd43vi3q
p44
I2
sVdhj89s3
p45
I2
sVd9j1zhh
p46
I1
sVdsq6h01
p47
I1
sVdbg5ti6
p48
I1
sVd7qxc9h
p49
I1
sVd392i7f
p50
I1
sVd3barqb
p51
I1
sVd8ii8d4
p52
I2
sVdclqrlh
p53
I1
sVd9iusb4
p54
I1
sVdiknich
p55
I2
sVcyns06w
p56
I1
sVd7ra2ch
p57
I4
sVcyvg9uk
p58
I1
sVdcuj3yi
p59
I2
sVd627s8x
p60
I1
s.