(dp0
Vd6260v8
p1
I1
sVd99fy9s
p2
I1
sVd7ebwv3
p3
I1
sVdptrs02
p4
I1
sVd4hfloq
p5
I1
sVd69hh90
p6
I1
sVdfrtg1v
p7
I1
sVdh890ye
p8
I1
sVczhpmyw
p9
I1
sVdkpl8ya
p10
I1
sVdk41kqf
p11
I1
sVda4i2f3
p12
I1
sVczxenb2
p13
I1
sVd2cpas7
p14
I1
sVdpmsz42
p15
I1
sVdcs0fm3
p16
I2
sVdgr8mn7
p17
I1
sVdbnncut
p18
I1
sVda6xisl
p19
I1
sVdkfm0tp
p20
I1
sVcyqolye
p21
I1
sVdmxmfxt
p22
I2
sVdbq3kiw
p23
I1
sVd6wqzlr
p24
I1
sVdafe98j
p25
I2
sVcyoekpp
p26
I2
sVd966xgc
p27
I1
sVdog94k1
p28
I1
sVdqaz1qp
p29
I1
sVd9ume0d
p30
I1
sVdpc05uw
p31
I1
sVdev0os3
p32
I1
sVdelnnl0
p33
I1
sVd67v8yn
p34
I1
sVd9k13t1
p35
I1
sVd0rn8ix
p36
I1
sVdszok2i
p37
I1
sVd3v71zp
p38
I1
sVd5c7mph
p39
I1
sVd3m56lr
p40
I2
sVd84m0un
p41
I1
sVda0bqzn
p42
I3
sVd75cx4c
p43
I1
sVdn0ggk8
p44
I2
sVd33vlvz
p45
I1
sVd3ai80x
p46
I1
sVdg4pkhe
p47
I1
sVdkw2e4p
p48
I1
sVdg1psu4
p49
I1
sVd2mwvxc
p50
I2
sVcypq2sx
p51
I1
sVdh63xsm
p52
I1
sVd0edl9p
p53
I1
sVdkf4z9y
p54
I1
sVds4x3ad
p55
I1
sVd4h4ot6
p56
I4
sVd1mqpzh
p57
I1
sVdmjqp19
p58
I1
sVdnvmk7r
p59
I1
sVdeynij2
p60
I1
sVd2an6x3
p61
I1
sVdcpd8d3
p62
I1
sVdnzk60o
p63
I1
sVd9dstkt
p64
I1
sVcyt9jrf
p65
I1
sVde8xq5w
p66
I1
sVczhmxa9
p67
I1
sVd2sp5t2
p68
I1
sVde7tjf1
p69
I1
sVd4ssd9u
p70
I1
sVd3n6jic
p71
I1
sVd4h1ese
p72
I1
sVd566sbc
p73
I1
sVd6eopyq
p74
I1
sVdaefn3x
p75
I2
sVd1lgymd
p76
I1
sVdcr9hjj
p77
I1
sVdaa9axv
p78
I3
sVdb8r7up
p79
I1
sVd200gg9
p80
I1
sVd6540qv
p81
I1
sVddmbif3
p82
I1
sVd5m4e56
p83
I1
sVdncbzit
p84
I1
sVdhbinqh
p85
I1
sVddfv90w
p86
I1
sVdo4jxv1
p87
I1
sVd6wdyi1
p88
I1
sVd79pz3r
p89
I1
sVcyj56ry
p90
I1
sVcz8w3r6
p91
I1
sVd4nb2ab
p92
I1
sVdmq6nv6
p93
I1
sVd7q1f45
p94
I1
sVd018t15
p95
I1
sVdnhnms9
p96
I1
sVdfm6ftg
p97
I2
sVczh5afb
p98
I1
sVd651lsx
p99
I1
sVde3ovri
p100
I1
sVdeissws
p101
I1
sVd9n7c1l
p102
I1
sVd33bzv6
p103
I1
sVdgcxar5
p104
I1
sVdd6gbh6
p105
I1
sVd2g6sar
p106
I1
sVd0ztkvo
p107
I1
sVd9onw33
p108
I1
sVd0ux5dt
p109
I1
sVde5rhna
p110
I1
sVd8t3dwb
p111
I1
sVd9uu2ye
p112
I1
sVd78rs9r
p113
I1
sVddw8tsa
p114
I1
sVdgh8bc2
p115
I1
sVd3lh969
p116
I1
sVdcw2or0
p117
I1
sVdfle8zq
p118
I1
sVdn7g4nd
p119
I1
sVd0n3nce
p120
I2
sVd8pugy3
p121
I1
sVd85xbfg
p122
I4
sVd0689ea
p123
I1
sVds65dm4
p124
I1
sVdko1ckp
p125
I1
sVd6pc16y
p126
I1
sVdphp33c
p127
I1
sVd1cgycq
p128
I1
sVd8dzcu1
p129
I1
sVd5zxego
p130
I1
sVdgs6ldv
p131
I1
sVd0ku8a3
p132
I1
sVdh7xtes
p133
I1
sVdou68i3
p134
I1
sVddia9hg
p135
I1
sVd5eors5
p136
I1
sVddkalzt
p137
I1
sVdcevy0i
p138
I1
sVd2ktvh7
p139
I1
sVdgmwd2f
p140
I1
sVd7p9440
p141
I1
sVd4cftds
p142
I1
sVd887wj5
p143
I1
sVd0cqwo0
p144
I1
sVd296r6h
p145
I1
sVcyw03qw
p146
I1
sVdimo1im
p147
I1
sVd7m4v9w
p148
I1
sVdeiypnn
p149
I1
sVd33g46i
p150
I1
sVdgal1lx
p151
I1
sVdcbaqww
p152
I1
sVd1eb8ss
p153
I1
sVcztmiz0
p154
I1
sVdtcikqm
p155
I1
sVd8e5gfx
p156
I1
sVdnllf68
p157
I1
sVdkrdoxm
p158
I1
sVcykblj7
p159
I1
sVdcez606
p160
I1
sVdhyxe1v
p161
I1
sVdbt5krx
p162
I1
sVddctgpi
p163
I1
sVddc4h7h
p164
I1
sVd5rskvb
p165
I2
sVd072d0q
p166
I1
sVd0dvlib
p167
I1
sVdjjy5ci
p168
I1
sVdcug7w2
p169
I1
sVd84xazy
p170
I1
sVddwky8y
p171
I1
sVd7ld4vq
p172
I1
sVdms9zd4
p173
I1
sVdcquejf
p174
I1
sVdmhxkxx
p175
I1
sVd0idhg7
p176
I3
sVd72u095
p177
I1
sVd0o93wk
p178
I1
sVdhniaw1
p179
I1
sVdkie51s
p180
I1
sVd8hi2h8
p181
I2
sVdqmls84
p182
I1
sVd5pv7mp
p183
I1
sVd5pgbrj
p184
I1
sVdhtjjza
p185
I1
sVdfk33bh
p186
I1
sVda7gbz4
p187
I1
sVd4035c5
p188
I1
sVdjk4mbq
p189
I1
sVdg8c2o6
p190
I1
sVdq365fa
p191
I1
sVd6oxjrk
p192
I1
sVdfkhtu2
p193
I1
sVd3iwe5e
p194
I1
sVcz93d4d
p195
I1
sVd2y29nn
p196
I2
sVd5w1rnb
p197
I1
sVd3ynng5
p198
I1
sVd0tes61
p199
I1
sVdbr5c99
p200
I2
sVdbc138h
p201
I1
sVcymrbxi
p202
I1
sVd2w67oy
p203
I1
sVde8istx
p204
I1
sVdbgwjry
p205
I1
sVczri0yz
p206
I1
sVd86ckph
p207
I1
sVdo43nvj
p208
I1
sVdahsepg
p209
I1
sVd6vphr8
p210
I1
sVd8f47b0
p211
I4
sVdifia5r
p212
I2
sVd1g5lr9
p213
I1
sVdjtzq0v
p214
I1
sVd9qfe8g
p215
I1
sVd0qz2uc
p216
I1
sVdgjuj5q
p217
I1
sVdjtilzt
p218
I1
sVddkfjf8
p219
I1
sVd9a137s
p220
I1
sVd8fsax1
p221
I1
sVdg5f215
p222
I1
sVdozukml
p223
I1
sVczt13kr
p224
I1
sVdhffux4
p225
I1
sVdizpv1b
p226
I1
sVd8zctoh
p227
I1
sVdkucwdf
p228
I1
sVdsudhyc
p229
I1
sVdgxuu6p
p230
I1
sVd2r9i6x
p231
I1
sVd29unvf
p232
I1
sVd8azy8j
p233
I2
sVdqsdt2w
p234
I1
sVdc4e1n4
p235
I1
sVcz1tb6d
p236
I1
sVd7hbuxa
p237
I1
sVdczbf3h
p238
I1
sVcyrod2x
p239
I1
sVdkzn0gz
p240
I1
sVdirs1w3
p241
I1
sVd7dm8fv
p242
I1
sVdora7qt
p243
I1
sVd3apmxa
p244
I1
sVdiuzir4
p245
I1
sVd032ky4
p246
I1
sVdclkm5b
p247
I1
sVcyieo7r
p248
I1
sVdd6me3p
p249
I1
sVdkuiqfr
p250
I1
sVdsimj9f
p251
I2
sVd5df0fe
p252
I1
sVd82m5oh
p253
I1
sVdetuccn
p254
I1
sVd6ai4pj
p255
I1
sVde8nl8x
p256
I1
sVdpwyjf4
p257
I1
sVd5pq148
p258
I1
sVdk3bnbx
p259
I1
sVd95vk7a
p260
I2
sVd0epe0v
p261
I1
sVdo9pauk
p262
I1
sVd91twmk
p263
I1
sVddn9lfw
p264
I1
sVd0empan
p265
I1
sVdekqe21
p266
I1
sVdbo93af
p267
I1
sVdszxn3e
p268
I1
sVdggqvmx
p269
I2
sVddevbx8
p270
I3
sVd2ffzpd
p271
I1
sVd6njbb5
p272
I1
sVd7unrlu
p273
I1
sVd1os31g
p274
I2
sVdelvjgl
p275
I1
sVdk2k7pg
p276
I1
sVd9p07ye
p277
I1
sVde0dujl
p278
I1
sVd1wu9g4
p279
I1
sVd0gsye9
p280
I1
sVdn1th3d
p281
I1
sVdcw808e
p282
I1
sVd1t849w
p283
I1
sVdcmnf6d
p284
I2
sVd7hr0sw
p285
I1
sVd6uxllk
p286
I1
sVd1pml7n
p287
I1
sVdhf2s5k
p288
I1
sVdjjgml4
p289
I1
sVd12ur2k
p290
I1
sVd8sajr0
p291
I1
sVd50wxsa
p292
I1
sVdicnmuu
p293
I1
sVdp8yvg8
p294
I1
sVdpas7e7
p295
I1
sVd3gylj3
p296
I1
sVds6z4ym
p297
I1
sVdi6ywtn
p298
I2
sVd1btwvq
p299
I1
sVdcj4hna
p300
I1
sVd1u7rfd
p301
I1
sVdjkjoqg
p302
I1
sVds6ceiw
p303
I1
sVdntsavk
p304
I1
sVd358lr7
p305
I1
sVdb3607t
p306
I1
sVd6r3heg
p307
I1
sVd41mztt
p308
I1
sVd2htpyn
p309
I1
sVd5lnaur
p310
I1
sVd2aryic
p311
I1
sVdmzcyz6
p312
I1
sVdadmc3x
p313
I2
sVdcnzeva
p314
I1
sVda4g2bj
p315
I1
sVcyufwzz
p316
I1
sVdamophm
p317
I3
sVd6i4bxq
p318
I1
sVd1qyo2b
p319
I2
sVdenezbs
p320
I1
sVdgasymv
p321
I1
sVcyj9bx6
p322
I5
sVded4805
p323
I1
sVd7ri2yp
p324
I1
sVde3qlqn
p325
I1
sVd8axo6w
p326
I1
sVd7qkhfo
p327
I1
sVd150gde
p328
I1
sVdnmaetr
p329
I1
sVd78brfe
p330
I1
sVdbso7rh
p331
I1
sVcz4ebtc
p332
I1
sVdr0eygw
p333
I1
sVdbvteyr
p334
I1
sVdkyu8a3
p335
I1
sVd1i1h1w
p336
I1
sVd6hd7cc
p337
I1
sVdg2gkme
p338
I1
sVczas3g7
p339
I1
sVd5jwfgh
p340
I1
sVd16745n
p341
I1
sVczpve2l
p342
I1
sVd4p1fcm
p343
I1
sVd07vfan
p344
I1
sVd3k9bqc
p345
I1
sVdetlgcr
p346
I1
sVd332mv3
p347
I1
sVdkclc75
p348
I1
sVddpkq3d
p349
I1
sVd02ypqb
p350
I1
sVdb3hgcx
p351
I1
sVdtev52k
p352
I1
sVdf1i7aq
p353
I1
sVde8hgz4
p354
I1
sVd2xof7o
p355
I1
sVdmwi1k7
p356
I1
sVd1hif4n
p357
I1
sVd1l2d69
p358
I2
sVd9bqnxm
p359
I1
sVd2qq6qa
p360
I1
sVdf6zxxq
p361
I1
sVdfbnjfh
p362
I2
sVd40pixd
p363
I2
sVdfe0jmv
p364
I1
sVdq6l06i
p365
I2
sVdb2d0og
p366
I1
sVd45ys8c
p367
I1
sVd3uwcs2
p368
I1
sVdicvrdj
p369
I1
sVd5xr7ig
p370
I1
sVdi3swwy
p371
I1
sVdhz24gc
p372
I1
sVdci1wzm
p373
I1
sVdni2i0h
p374
I1
sVdd9oik2
p375
I1
sVd0pyzqz
p376
I1
sVdnh4sde
p377
I1
sVd4kelzl
p378
I1
sVdbstev3
p379
I1
sVdcgm2cn
p380
I1
sVd341wv2
p381
I1
sVd5i0zu3
p382
I1
sVdii9ztf
p383
I1
sVd79q150
p384
I1
sVdaxn98v
p385
I1
sVd7u8u8v
p386
I1
sVdafz4vl
p387
I1
sVczv39fp
p388
I1
sVdb3daga
p389
I4
sVdba06v0
p390
I1
sVdpb6i90
p391
I1
sVd8onvkq
p392
I1
sVdqzvw12
p393
I1
sVd7ie2gl
p394
I1
sVcz70wuy
p395
I1
sVdnveb1s
p396
I1
sVdoemv68
p397
I1
sVczec7th
p398
I1
sVd9wr5h6
p399
I1
sVd0ru7y1
p400
I3
sVd1gylp4
p401
I1
sVdbz5aoz
p402
I1
sVdi9yws6
p403
I1
sVczwgbc0
p404
I1
sVcztyakw
p405
I1
sVd5eolbp
p406
I1
sVdqqih38
p407
I1
sVd2gxc26
p408
I1
sVd6rhvai
p409
I1
sVd2j0sdl
p410
I1
sVdju4xua
p411
I1
sVdem5hh9
p412
I1
sVdtcgzf2
p413
I1
sVdks2kfp
p414
I1
sVdii6m1r
p415
I1
sVd69eah0
p416
I1
sVdeis7b8
p417
I1
sVd5qz6fg
p418
I1
sVdamp09n
p419
I2
sVd26tdu7
p420
I1
sVdd8jelb
p421
I1
sVdezc6yv
p422
I1
sVdge0bvv
p423
I2
sVdano7mi
p424
I2
sVdoxehre
p425
I3
sVd3w5747
p426
I1
sVdmujtll
p427
I1
sVdj2tijl
p428
I1
sVdf1crly
p429
I1
sVdr6ncf1
p430
I1
sVcz5q8q1
p431
I1
sVd0tb6i7
p432
I1
sVd7ur82f
p433
I1
sVdk2llwa
p434
I1
sVdjhn26p
p435
I1
sVcyro7nz
p436
I1
sVdc5lao9
p437
I1
sVd1yfdbf
p438
I1
sVd2zzwnc
p439
I1
sVdc7hkdx
p440
I1
sVdort07w
p441
I1
sVdqe1l3r
p442
I1
sVd8ofkt5
p443
I1
sVd9ozcw5
p444
I1
sVdms9ces
p445
I1
sVdigbtif
p446
I1
sVd11ldxt
p447
I1
sVd4h1xcw
p448
I3
sVd9yygia
p449
I1
sVdhp5zd6
p450
I1
sVdcn68sl
p451
I1
sVd2jtc82
p452
I1
sVdsz61q3
p453
I2
sVd149w4d
p454
I1
sVdp9vwg6
p455
I1
sVdhminy9
p456
I1
sVdsn5fge
p457
I1
sVdsokoqd
p458
I1
sVd82da52
p459
I2
sVd2d8wo9
p460
I1
sVd016ddw
p461
I1
sVd0rfdhi
p462
I1
sVdififj2
p463
I1
sVdfapny1
p464
I1
sVd6mg77v
p465
I1
sVd5xzwm1
p466
I1
sVdg3kaph
p467
I2
sVd1uwfts
p468
I1
sVdk5eq8x
p469
I1
sVd1fay56
p470
I1
sVd9dempt
p471
I1
sVde47rwu
p472
I1
sVdn44ciy
p473
I1
sVd4va6p2
p474
I1
sVd2zy93v
p475
I1
sVdkr0ksw
p476
I1
sVd5jbq8o
p477
I1
sVd8t8qov
p478
I1
sVcz9iiva
p479
I1
sVdizezc2
p480
I1
sVd3f0wor
p481
I1
sVdaznzdo
p482
I1
sVdcdd9cd
p483
I1
sVddvk3n2
p484
I1
sVd03uepj
p485
I1
sVd6cyf8r
p486
I1
sVd73ygj1
p487
I2
sVd26ur8b
p488
I1
sVddrf756
p489
I2
sVda5g4x8
p490
I1
sVdhtjywb
p491
I5
sVdht4xls
p492
I1
sVddc8qz4
p493
I1
sVcysli6k
p494
I1
sVdmz7sev
p495
I1
sVdsxqjtf
p496
I1
sVdakt4vo
p497
I1
sVcywkqja
p498
I1
sVddn29qq
p499
I1
sVd7n2nw4
p500
I1
sVdjabzna
p501
I1
sVd0kmssg
p502
I1
sVd13pzpf
p503
I1
sVd4h2cp2
p504
I2
sVdd18y3z
p505
I1
sVcyib8mx
p506
I1
sVd2afumf
p507
I1
sVd9o3go1
p508
I1
sVd2gx6jo
p509
I1
sVd4vcmlr
p510
I1
sVdky2bvn
p511
I1
sVd253bq1
p512
I1
sVd1z0zal
p513
I1
sVd7yr96r
p514
I1
sVdtd7aef
p515
I1
sVdehvgia
p516
I1
sVczbx4kq
p517
I1
sVd3n7n0u
p518
I1
sVdg0z7h2
p519
I1
sVdc8jny0
p520
I1
sVdsmfuxb
p521
I2
sVds1wcni
p522
I1
sVd3tsf2p
p523
I1
sVd3qmvq5
p524
I1
sVdeh4yzv
p525
I1
sVczadbep
p526
I1
sVd9uwq09
p527
I1
sVdbaplof
p528
I1
sVdd0dmj0
p529
I1
sVdp1ay62
p530
I1
sVdcu2w9j
p531
I1
sVdhtkpmk
p532
I1
sVdi6twgs
p533
I2
sVd23oaj5
p534
I1
sVdcep0du
p535
I1
sVd4p1d3t
p536
I1
sVd8oi0mw
p537
I4
sVcyukitz
p538
I3
sVdn5quen
p539
I1
sVdo1t7tt
p540
I2
sVdgmuldf
p541
I1
sVd8h0cib
p542
I1
sVde0w0p6
p543
I1
sVdbz501w
p544
I1
sVdbl2aji
p545
I1
sVdi1uirk
p546
I1
sVd04d1bo
p547
I1
sVdmq2usw
p548
I2
sVd45y215
p549
I1
sVd0r3lgc
p550
I2
sVd1d0fmr
p551
I1
sVdmsg868
p552
I1
sVdilua7b
p553
I1
sVd6tf6ov
p554
I1
sVd1xa0dp
p555
I1
sVd3zyzuj
p556
I1
sVdecfsz7
p557
I1
sVdj9knxz
p558
I1
sVdbsp2ta
p559
I1
sVdb0045s
p560
I1
sVd9vextz
p561
I1
sVd8ul7hq
p562
I1
sVdk4fqll
p563
I1
sVd2fhjd3
p564
I1
sVd4oowbm
p565
I2
sVd2jbgab
p566
I1
sVd80xucs
p567
I1
sVd1i4wfa
p568
I1
sVdn02b4w
p569
I2
sVcz5lrhr
p570
I1
sVd0o9bj3
p571
I1
sVd6f7e64
p572
I1
sVcz2blrj
p573
I1
sVdcsql3g
p574
I1
sVd28fr6c
p575
I1
sVd2aia4m
p576
I1
sVdfka8xq
p577
I2
sVdftt4dp
p578
I1
sVd6q1bsj
p579
I1
sVdcdin9l
p580
I1
sVdi3azx0
p581
I1
sVdh74gt0
p582
I1
sVdfomshp
p583
I1
sVcz2h084
p584
I1
sVdtgkav1
p585
I1
sVdo36kat
p586
I1
sVdf65kv4
p587
I1
sVd0ckjux
p588
I1
sVdowg9e3
p589
I1
sVdixh4ev
p590
I1
sVd544a5q
p591
I1
sVd9fsyrm
p592
I1
sVdf03s6z
p593
I3
sVd5oqn0z
p594
I2
sVd2uyw0y
p595
I1
sVdaj7fnm
p596
I1
sVdbfuzn7
p597
I1
sVdk37tfr
p598
I2
sVdsfvbyu
p599
I1
sVdkqq8rq
p600
I1
sVd7juao6
p601
I1
sVdoiw47z
p602
I1
sVd2rzqzf
p603
I1
sVddbz3n1
p604
I1
sVdb37h35
p605
I1
sVdredr16
p606
I1
sVdhy327x
p607
I1
sVczs234u
p608
I2
sVd2yqyjo
p609
I1
sVd48hsmv
p610
I1
sVd2jx3p2
p611
I1
sVddcmq21
p612
I1
sVd76hdce
p613
I1
sVdcl8jm9
p614
I2
sVd7ngjys
p615
I1
sVdjkl8n1
p616
I1
sVd2g65md
p617
I1
sVd22g2gv
p618
I1
sVdq9t2n9
p619
I2
sVd5x1djo
p620
I1
sVdnae49l
p621
I1
sVdhyqid6
p622
I1
sVd7c2m1h
p623
I2
sVdaxme8n
p624
I1
sVdcc4e3p
p625
I1
sVdp80xdz
p626
I1
sVdn17cgo
p627
I2
sVd72in8w
p628
I1
sVdbpkn9x
p629
I1
sVdcvozs6
p630
I1
sVdjsaela
p631
I1
sVdglnv70
p632
I1
sVdbt73h7
p633
I1
sVdb6pm3z
p634
I1
sVdnbsdbr
p635
I1
sVdamttp0
p636
I1
sVdbjjbx3
p637
I1
sVdc5llkw
p638
I1
sVdao03w6
p639
I1
sVd2crl2f
p640
I1
sVd8hfu12
p641
I1
sVde6ztn0
p642
I1
sVdad6poh
p643
I1
sVdnxskg1
p644
I1
sVdreo2l3
p645
I1
sVd95p1r1
p646
I1
sVd1v60tp
p647
I1
sVdj1qmik
p648
I1
sVddxg0ij
p649
I1
sVdijagbr
p650
I3
sVdbynpdi
p651
I1
sVd7t4328
p652
I1
sVdgio3aj
p653
I3
sVdfwmrxz
p654
I1
sVdtc5icu
p655
I1
sVdj12egd
p656
I1
sVdn55v7n
p657
I2
sVd00kg6p
p658
I1
sVd1jeskg
p659
I1
sVd09qtht
p660
I1
sVd700a0a
p661
I2
sVdmk9kcw
p662
I1
sVdk48d99
p663
I1
sVd3tfg7q
p664
I1
sVd563ss8
p665
I1
sVdnpb81r
p666
I2
sVd87iize
p667
I1
sVcyii1ez
p668
I1
sVd19hxk4
p669
I2
sVdoya84u
p670
I2
sVd3jzubk
p671
I1
sVda4dbn1
p672
I1
sVd1wq3dl
p673
I1
sVd03go89
p674
I4
sVd1ataio
p675
I1
sVdevrpyr
p676
I2
sVdi6p4eu
p677
I1
sVdndwtro
p678
I1
sVd5i9y0b
p679
I1
sVd8aauhs
p680
I1
sVd26ardk
p681
I1
sVdgn32ph
p682
I1
sVdst68s9
p683
I1
sVczez7s1
p684
I1
sVd1cdt04
p685
I1
sVdsxlrjj
p686
I1
sVd3iviwo
p687
I1
sVd0pvwsp
p688
I1
sVd6vvj6u
p689
I1
sVd8tq0ca
p690
I1
sVde6977t
p691
I1
sVdoqas3l
p692
I1
sVd2k516q
p693
I1
sVdg9zrx7
p694
I1
sVd1215gt
p695
I1
sVd01r7nx
p696
I1
sVd7xj2tt
p697
I1
sVd9600e2
p698
I1
sVdetogia
p699
I1
sVczp8skq
p700
I1
sVd09ic5v
p701
I1
sVdi1vln9
p702
I1
sVd90n41o
p703
I1
sVdbwjcw9
p704
I1
sVd6ae1va
p705
I1
sVdflzyqw
p706
I1
sVczm50s2
p707
I1
sVcys8swf
p708
I1
sVdmwrmhu
p709
I1
sVdft27zh
p710
I1
sVdd998h0
p711
I1
sVd2kfv26
p712
I1
sVdjz1xpg
p713
I1
sVcyj56fr
p714
I1
sVdepgb9r
p715
I1
sVd8ogx82
p716
I1
sVd1c4imn
p717
I1
sVddixco6
p718
I2
sVdrkt5lh
p719
I1
sVd20lv2h
p720
I1
sVd3a9820
p721
I1
sVd96vf24
p722
I1
sVdftirt6
p723
I1
sVdnc9gle
p724
I1
sVd8a7h1x
p725
I1
sVd1x3mgd
p726
I1
sVdt85dy4
p727
I1
sVdibns0s
p728
I2
sVdi4k9p5
p729
I1
sVdknmogh
p730
I1
sVdfwbvdn
p731
I1
sVd9jq1rv
p732
I3
sVd5ivwws
p733
I1
sVdgbq3je
p734
I1
sVday0gbh
p735
I2
sVd1j4rhb
p736
I1
sVdqyx9o8
p737
I1
sVd6ewfny
p738
I1
sVczfrlnz
p739
I1
sVd20pcc4
p740
I1
sVdc50f8a
p741
I1
sVd5ftf32
p742
I1
sVddi9ygq
p743
I1
sVdf8r2zs
p744
I1
sVdbe72iu
p745
I1
sVd9v94k3
p746
I1
sVcyhyyvw
p747
I1
sVd6sf53x
p748
I1
sVczv28fv
p749
I1
sVd50t39g
p750
I1
sVcyi371n
p751
I1
sVdj39wri
p752
I2
sVdhzcw0l
p753
I1
sVdhd70ck
p754
I1
sVd1dc3zq
p755
I1
sVdspyokw
p756
I1
sVdhnt3a9
p757
I1
sVdi6nnki
p758
I1
sVd5a0dks
p759
I1
sVd0asx76
p760
I3
sVcymdcm4
p761
I1
sVd53atql
p762
I1
sVczyr03y
p763
I1
sVd34sndu
p764
I2
sVdaq8utk
p765
I1
sVd37nbfp
p766
I1
sVd93882r
p767
I1
sVdhxbxx7
p768
I1
sVd8237jj
p769
I1
sVddd6xfq
p770
I1
sVd6qjdv7
p771
I1
sVddi0p3u
p772
I1
sVd6x2c68
p773
I1
sVd48b8wc
p774
I1
sVdjgd5tw
p775
I1
sVddgvwxp
p776
I1
sVd4uijgx
p777
I1
sVdamb0t2
p778
I1
sVdghe2x9
p779
I1
sVdfow6hj
p780
I1
sVd4d620s
p781
I1
sVdhv6dqa
p782
I1
sVdhcjtqq
p783
I1
sVcyqj4hl
p784
I1
sVdfh0d3m
p785
I1
sVdjbd40y
p786
I1
sVd3ba7nu
p787
I1
sVdfhqo2f
p788
I1
sVddcrjjg
p789
I1
sVd0txc4r
p790
I1
sVd82ucr4
p791
I1
sVdt0g8uu
p792
I4
sVddcj3tc
p793
I1
sVdjiyfs2
p794
I1
sVd98qhbp
p795
I1
sVdjnjcjt
p796
I1
sVd5oicqp
p797
I1
sVdiki8ok
p798
I2
sVcymztkd
p799
I1
sVdd8done
p800
I1
sVd69e936
p801
I1
sVdr82456
p802
I1
sVd4ne8qn
p803
I1
sVd6culqf
p804
I1
sVdk7zo6l
p805
I1
sVd89a8gk
p806
I3
sVd3dmo9m
p807
I1
sVd1twsn9
p808
I1
sVdj309vg
p809
I1
sVdk52x51
p810
I1
sVcyzc2um
p811
I2
sVd9xxa2b
p812
I1
sVddmmi6g
p813
I1
sVd44s897
p814
I1
sVdjbk7tb
p815
I1
sVd2kn6i4
p816
I1
sVd331y8w
p817
I2
sVcywkojj
p818
I2
sVddarndu
p819
I1
sVddp3424
p820
I1
sVdkjt6xo
p821
I1
sVdhna9no
p822
I1
sVd5y7elj
p823
I1
sVd5zs9qq
p824
I1
sVd253hf3
p825
I1
sVdn9xhva
p826
I1
sVczrs5vf
p827
I1
sVdienc67
p828
I1
sVd8fbd02
p829
I1
sVdir1x1u
p830
I1
sVd2muhfl
p831
I1
sVcyjkzek
p832
I1
sVdjssg6x
p833
I1
sVddjgnwb
p834
I1
sVcys0gyv
p835
I1
sVdgjm7er
p836
I1
sVd0qq49v
p837
I1
sVd40es44
p838
I2
sVddso3c3
p839
I1
sVd4psr28
p840
I1
sVcz9cn8o
p841
I1
sVdnu8a7z
p842
I1
sVd90kkwb
p843
I1
sVdh3qt9o
p844
I1
sVd1qes4p
p845
I1
sVdda67ra
p846
I1
sVdeinc4q
p847
I1
sVd2ajfmg
p848
I1
sVdd31in3
p849
I1
sVdcwii0t
p850
I1
sVdp9tfzn
p851
I1
sVcysq8uv
p852
I1
sVdgfmi7n
p853
I1
sVd5hbscz
p854
I1
sVd40r5e8
p855
I1
sVdinc6z9
p856
I1
sVd0f0x69
p857
I1
sVdp8nlt6
p858
I1
sVdik8z49
p859
I1
sVdj1hn10
p860
I1
sVdfqbbsv
p861
I1
sVdn7f7ok
p862
I1
sVdh6568p
p863
I1
sVcyutu68
p864
I1
sVdrndvgb
p865
I1
sVdn7qhl7
p866
I1
sVdmxn0do
p867
I2
sVd8jg58p
p868
I1
sVd2a5o9a
p869
I1
sVdcpv6r7
p870
I1
sVdmu7h2z
p871
I1
sVdp3xu5j
p872
I2
sVdcf9zuz
p873
I1
sVd07naf5
p874
I1
sVd580x10
p875
I1
sVdhhp2o0
p876
I1
sVday6s7q
p877
I1
sVcz3e2fn
p878
I1
sVdha7mjw
p879
I1
sVdmpl6bp
p880
I1
sVdamallp
p881
I1
sVd1la1pu
p882
I1
sVdh2hwks
p883
I1
sVd3dddk9
p884
I1
sVdhjqivx
p885
I1
sVddcnta9
p886
I1
sVd3guvjk
p887
I1
sVd01t99w
p888
I1
sVdgum2pj
p889
I1
sVd26gflr
p890
I2
sVdiox3o4
p891
I1
sVd1bhkqn
p892
I2
sVd4py8d1
p893
I1
sVdkyhrdo
p894
I1
sVd7nx65j
p895
I1
sVd76ofbu
p896
I1
sVd0ojru9
p897
I1
sVddzflo8
p898
I1
sVd2f6fu8
p899
I1
sVdptsjiv
p900
I1
sVcyi9ryz
p901
I1
sVd33w2xa
p902
I1
sVd8dkcyv
p903
I1
sVdb2t7r3
p904
I1
sVdfng2yu
p905
I3
sVdktiygp
p906
I1
sVd8wn72d
p907
I1
sVd1kucqy
p908
I1
sVdj4ju5l
p909
I1
sVdfx0bmu
p910
I1
sVdauyk37
p911
I1
sVdftua88
p912
I1
sVd6bjwy5
p913
I1
sVdrzace3
p914
I1
sVdjxxfev
p915
I1
sVd623aew
p916
I1
sVdfi6ndt
p917
I1
sVdagy2zt
p918
I1
sVczomu78
p919
I1
sVd1mixjc
p920
I1
sVdesdgh0
p921
I1
sVczdkxly
p922
I1
sVcz9oyo9
p923
I1
sVdgi6kco
p924
I1
sVd1weevv
p925
I1
sVdarbn79
p926
I1
sVd382ore
p927
I1
sVd9u4wk9
p928
I2
sVdn7217t
p929
I2
sVddayde6
p930
I2
sVdbjlu84
p931
I4
sVdchve1e
p932
I1
sVdab3v6c
p933
I1
sVdcdk5sf
p934
I1
sVdinszjy
p935
I2
sVdkbbov4
p936
I1
sVd4iyeew
p937
I1
sVd5y2vbz
p938
I1
sVdb5y4dx
p939
I1
sVd3naozv
p940
I1
sVd5ryw1l
p941
I2
sVdf1r4db
p942
I1
sVdqh3cnx
p943
I1
sVdgw6k5r
p944
I1
sVdjdmull
p945
I3
sVd06t3om
p946
I1
sVd1a4syr
p947
I1
sVd0pvbby
p948
I1
sVdos5an0
p949
I1
sVd1t9pi2
p950
I1
sVds7wgvq
p951
I1
sVdnurimq
p952
I1
sVda53b13
p953
I1
sVcz2igqz
p954
I2
sVd31yn13
p955
I2
sVdi56xic
p956
I1
sVdop63ak
p957
I2
sVdmxqwuj
p958
I1
sVd36usvh
p959
I1
sVdd89oud
p960
I1
sVcz024mg
p961
I1
sVd7loeja
p962
I3
sVd37hyv1
p963
I1
sVdau88pq
p964
I1
sVdmn34nc
p965
I1
sVd5wkx7i
p966
I1
sVdmuf6ew
p967
I1
sVdp7m38j
p968
I1
sVdbjk27j
p969
I1
sVdj9h966
p970
I1
sVdfoncc4
p971
I1
sVd0uorq1
p972
I1
sVd5xadml
p973
I2
sVd6gakgl
p974
I1
sVdacevg0
p975
I1
sVd1pbakk
p976
I1
sVd3m8pw0
p977
I1
sVdhih2pw
p978
I1
sVd1kmueg
p979
I1
sVd80a418
p980
I1
sVd2rioru
p981
I1
sVdeek70s
p982
I3
sVdi3mikb
p983
I1
sVd2ydn9b
p984
I1
sVd13opdl
p985
I1
sVdj6w120
p986
I1
sVdmio7q9
p987
I1
sVd5zhjhg
p988
I1
sVd4v2m61
p989
I2
sVdoeqkd8
p990
I1
sVdas5jvx
p991
I1
sVd0c1ohe
p992
I1
sVdqsqczc
p993
I1
sVdhjlkw2
p994
I1
sVd5jf5b9
p995
I1
sVdex7r26
p996
I2
sVd4mf6gz
p997
I1
sVcywoqxw
p998
I1
sVczvkj3v
p999
I1
sVdhf91zd
p1000
I1
sVd0rpcnf
p1001
I1
sVdi6lqmg
p1002
I1
sVdk580qj
p1003
I1
sVdcr1qre
p1004
I1
sVdaavc35
p1005
I2
sVcys4yt7
p1006
I1
sVd88uqwb
p1007
I1
sVd3wjniw
p1008
I1
sVda3hplo
p1009
I1
sVdbfjvgq
p1010
I1
sVdezue6l
p1011
I1
sVdevwmlk
p1012
I1
sVdf1gspt
p1013
I1
sVdnoaab2
p1014
I1
sVdcrneka
p1015
I1
sVd7c40sh
p1016
I1
sVczt84ra
p1017
I1
sVd6yflpd
p1018
I1
sVdr0ksbt
p1019
I1
sVdcooegr
p1020
I1
sVd7n2q6b
p1021
I2
sVd1wrxgd
p1022
I1
sVdduoq29
p1023
I1
sVdct8tpd
p1024
I1
sVd480z37
p1025
I1
sVd5xx2g3
p1026
I1
sVd9j3ffm
p1027
I2
sVdehlwkr
p1028
I1
sVddh7w33
p1029
I1
sVd9k8qdp
p1030
I1
sVd19lajq
p1031
I1
sVdhqqnhv
p1032
I1
sVd5wdo9y
p1033
I1
sVd0t6c0m
p1034
I1
sVdfh28y1
p1035
I1
sVd0amvfl
p1036
I1
sVdbx917v
p1037
I1
sVdbwokjw
p1038
I1
sVdtb6jx4
p1039
I1
sVdhu5yrd
p1040
I1
sVdpu9t6o
p1041
I1
sVd37dis4
p1042
I3
sVd2eqrid
p1043
I1
sVd9vouqz
p1044
I1
sVd7a1iop
p1045
I1
sVd6a2lh3
p1046
I1
sVd0d18by
p1047
I1
sVd6b54vr
p1048
I1
sVczjv3n1
p1049
I1
sVdfjuyuu
p1050
I2
sVd824bkb
p1051
I1
sVd5gpa5o
p1052
I1
sVczmc027
p1053
I1
sVczl6eaf
p1054
I1
sVd2nhg8h
p1055
I1
sVdfdjh41
p1056
I4
sVd5rxcac
p1057
I3
sVdd6ru6j
p1058
I1
sVczowk2t
p1059
I1
sVdj1fpfo
p1060
I1
sVd8upz09
p1061
I1
sVd2fmhbl
p1062
I1
sVd2chvpa
p1063
I1
sVd5lxyat
p1064
I1
sVd8za610
p1065
I1
sVd9r5s26
p1066
I2
sVdgxdlt3
p1067
I1
sVd9iwwig
p1068
I1
sVdjyj3h0
p1069
I1
sVd0h9x5o
p1070
I1
sVd1mp1hm
p1071
I3
sVd1lm4uj
p1072
I1
sVd7qmjh9
p1073
I2
sVcylfdwp
p1074
I1
sVd62pqoa
p1075
I1
sVdhyt009
p1076
I1
sVd3q8s13
p1077
I1
sVdqzunnz
p1078
I1
sVd1408a3
p1079
I1
sVdn429ik
p1080
I1
sVcynkgl5
p1081
I1
sVde4eo2y
p1082
I1
sVczilh9f
p1083
I1
sVd32rrdt
p1084
I1
sVdpzou3l
p1085
I1
sVd562luy
p1086
I1
sVd2o2ub0
p1087
I1
sVdko1q5x
p1088
I1
sVd4thmpf
p1089
I1
sVddq043k
p1090
I1
sVcz9zbew
p1091
I1
sVda5bvyl
p1092
I1
sVdpr3o5b
p1093
I1
sVdky2yhe
p1094
I2
sVdfop0ow
p1095
I2
sVdjvzaq5
p1096
I1
sVdaxwasv
p1097
I1
sVdrkvyqb
p1098
I1
sVcynxhs2
p1099
I1
sVd67q7hq
p1100
I1
sVd1ij9gs
p1101
I3
sVdc6r3r8
p1102
I1
sVczidfiv
p1103
I1
sVdjy7kkv
p1104
I1
sVdihd7f1
p1105
I1
sVdg3jw4m
p1106
I1
sVd3kx1i1
p1107
I1
sVczqyds8
p1108
I1
sVdgk824l
p1109
I1
sVdbcnla8
p1110
I1
sVd100pmc
p1111
I1
sVd3mk74b
p1112
I1
sVdgcol93
p1113
I1
sVdj2krni
p1114
I1
sVdfjp1fr
p1115
I1
sVd16ff4u
p1116
I1
sVdazeroj
p1117
I1
sVdeh9sqz
p1118
I2
sVdehm2px
p1119
I1
sVd0162v8
p1120
I1
sVd5u07c3
p1121
I1
sVdc9ftr9
p1122
I1
sVdeh7mul
p1123
I1
sVdj03ygt
p1124
I1
sVdprl10z
p1125
I1
sVdba4n3h
p1126
I1
sVd6zqxxx
p1127
I1
sVd8qu908
p1128
I1
sVdjbfa4p
p1129
I1
sVdj3cjwk
p1130
I1
sVcz64otw
p1131
I2
sVdhwfduf
p1132
I1
sVcyyos8b
p1133
I1
sVddbpey0
p1134
I1
sVd9td9ze
p1135
I1
sVdpehi9r
p1136
I1
sVd89rijh
p1137
I1
sVdhwjr84
p1138
I1
sVdbc7t6t
p1139
I1
sVdn631n7
p1140
I1
sVcyoggmf
p1141
I1
sVdij9sh2
p1142
I3
sVd0a09g1
p1143
I1
sVdeigb0g
p1144
I1
sVd9d94ol
p1145
I1
sVddgmcwf
p1146
I1
sVd8uwu0c
p1147
I1
sVddxxxyr
p1148
I1
sVdg9liiz
p1149
I1
sVd5zd79x
p1150
I1
sVd59npbj
p1151
I1
sVdevton6
p1152
I1
sVdq6ldc8
p1153
I1
sVd5fou6l
p1154
I1
sVdia1i06
p1155
I1
sVd7odu5u
p1156
I1
sVcz164e5
p1157
I2
sVd5kmqf7
p1158
I1
sVdgar58i
p1159
I1
sVd8at0hp
p1160
I1
sVd1k4hmg
p1161
I1
sVdbon37r
p1162
I1
sVdkj7x5s
p1163
I1
sVdfjvbxa
p1164
I1
sVdpskgj4
p1165
I1
sVd3i26wk
p1166
I1
sVdhyvqyk
p1167
I1
sVdktuly6
p1168
I1
sVd8y9tld
p1169
I1
sVd7ecm85
p1170
I1
sVdix50lh
p1171
I1
sVd5eguc4
p1172
I1
sVdeo3onm
p1173
I1
sVd5juk16
p1174
I1
sVd9kfhoa
p1175
I1
sVdkmmpjg
p1176
I1
sVd7osg5p
p1177
I1
sVd1d76l8
p1178
I3
sVdj897yc
p1179
I1
sVdot3phi
p1180
I3
sVdhruz7l
p1181
I1
sVdf2u407
p1182
I1
sVdq8zv1i
p1183
I1
sVd1rkcr1
p1184
I1
sVdijahwb
p1185
I6
sVdswrkbl
p1186
I1
sVd6timbx
p1187
I3
sVdp9annp
p1188
I3
sVddjr4u9
p1189
I2
sVcz6prl9
p1190
I1
sVcyic2v3
p1191
I1
sVd1j4fk8
p1192
I2
sVdmrwvni
p1193
I1
sVdtj3huh
p1194
I1
sVdfn7104
p1195
I1
sVdmsdgr6
p1196
I1
sVd08az44
p1197
I1
sVcz3dtfl
p1198
I1
sVd0tzbe2
p1199
I1
sVdbh7gjv
p1200
I1
sVd8hv9dn
p1201
I1
sVde0jm8n
p1202
I1
sVddux4c0
p1203
I1
sVd3m8yhf
p1204
I1
sVd1ywq4e
p1205
I1
sVdhzt3fc
p1206
I1
sVdbaoun8
p1207
I1
sVds5ks6r
p1208
I1
sVdgcw3pf
p1209
I1
sVdqnv215
p1210
I1
sVd6epv6e
p1211
I1
sVdagyzyh
p1212
I1
sVd1nfwvy
p1213
I1
sVd8ylfbx
p1214
I1
sVdggob6r
p1215
I1
sVd2zl0g9
p1216
I1
sVddf75tq
p1217
I1
sVdrileyj
p1218
I1
sVcynmp9g
p1219
I1
sVdri72ky
p1220
I2
sVdnv1fdr
p1221
I1
sVdbh14s1
p1222
I1
sVcz8zrzz
p1223
I1
sVcyujb7c
p1224
I2
sVd9657nv
p1225
I1
sVd000smt
p1226
I1
sVdcs7gfi
p1227
I1
sVd7fbpl3
p1228
I2
sVdn6zzl2
p1229
I1
sVd5rp340
p1230
I1
sVd9ytpq4
p1231
I1
sVczcwac6
p1232
I2
sVdfkep28
p1233
I3
sVdd0k6d0
p1234
I1
sVdgdl0w9
p1235
I1
sVdddh56s
p1236
I1
sVdc39vtr
p1237
I1
sVdjf5moq
p1238
I1
sVcz4mmnr
p1239
I4
sVdb37eep
p1240
I1
sVdjw141z
p1241
I1
sVdiywj4e
p1242
I1
sVd1ob2xg
p1243
I1
sVdteilel
p1244
I1
sVd4h7r7g
p1245
I1
sVcyo07g5
p1246
I1
sVdo1xlsh
p1247
I1
sVd9g1los
p1248
I1
sVdgma81a
p1249
I1
sVd0p9fs0
p1250
I1
sVd7yomds
p1251
I1
sVdq79np8
p1252
I1
sVdkic01i
p1253
I1
sVd7ijvlu
p1254
I1
sVddft6dq
p1255
I1
sVd6aypig
p1256
I1
sVdr2yl1o
p1257
I1
sVd250ftx
p1258
I1
sVdd60o7p
p1259
I1
sVczy1ifq
p1260
I1
sVcysfvsn
p1261
I1
sVd5z1xwp
p1262
I4
sVdhyzgzy
p1263
I1
sVd9dp1qa
p1264
I1
sVdb0j5yd
p1265
I1
sVdca2b37
p1266
I1
sVd1quml2
p1267
I1
sVdc5t90y
p1268
I2
sVd6727oj
p1269
I1
sVdahj9k7
p1270
I1
sVd2ld5ow
p1271
I1
sVdnu5zbv
p1272
I1
sVde0i45t
p1273
I1
sVd4tvvw3
p1274
I1
sVdnwkqv3
p1275
I1
sVdnv688p
p1276
I1
sVdggjj9k
p1277
I1
sVdewbhs7
p1278
I1
sVd065id3
p1279
I1
sVcynahc6
p1280
I1
sVd6kmjlu
p1281
I1
sVd3yyeyi
p1282
I1
sVdalcdu2
p1283
I1
sVdj1n00w
p1284
I1
sVdmk9a3v
p1285
I1
sVd4n3wbr
p1286
I1
sVddsp3dp
p1287
I1
sVd39tnbf
p1288
I1
sVdnp9o7t
p1289
I1
sVdn4hb0b
p1290
I1
sVcz18f19
p1291
I1
sVd7ylzh1
p1292
I2
sVd26v8t2
p1293
I1
sVd8xgn52
p1294
I1
sVd7r0qwi
p1295
I1
sVczn3exa
p1296
I1
sVda86ek0
p1297
I1
sVd38pqoe
p1298
I2
sVd55sbp2
p1299
I1
sVdez8spc
p1300
I3
sVdmsqohz
p1301
I1
sVdflflx2
p1302
I1
sVdqobkkd
p1303
I1
sVd7314xz
p1304
I1
sVczjcllu
p1305
I1
sVd7uddnd
p1306
I1
sVd06opq9
p1307
I1
sVcyjayna
p1308
I1
sVde88aod
p1309
I1
sVd1v07kv
p1310
I1
sVcys0xcs
p1311
I1
sVd9kgf9m
p1312
I1
sVdi67qkz
p1313
I1
sVdh6j63g
p1314
I1
sVd92spxk
p1315
I1
sVdh0rx6f
p1316
I1
sVdb9cibx
p1317
I1
sVczzw187
p1318
I1
sVd626l9n
p1319
I2
sVdekriw4
p1320
I1
sVd2wfha9
p1321
I1
sVdacf77p
p1322
I1
s.