(dp0
Vdh0y0xr
p1
I1
sVdpjfppx
p2
I1
sVd52sogf
p3
I1
sVd3nimhe
p4
I1
sVdcuyf9z
p5
I1
sVdat81mf
p6
I1
sVd0v1pi6
p7
I1
sVdgz4ufk
p8
I1
sVdc7sr1j
p9
I1
sVdf8p53b
p10
I1
sVddeeuw8
p11
I1
sVdpgz61c
p12
I1
sVdg6nr9x
p13
I1
sVdjkmnr0
p14
I1
sVdhpk3z1
p15
I1
sVdrrsems
p16
I1
sVdgo1u1n
p17
I1
sVdea08op
p18
I1
sVdn58pyw
p19
I1
sVd3sc6g2
p20
I1
sVd01sadi
p21
I1
sVd16h0iu
p22
I1
sVcywm19l
p23
I1
sVd01j4hr
p24
I1
sVdc3ypxa
p25
I1
sVdjqgwjr
p26
I1
sVddhauaz
p27
I1
sVdcmjfn0
p28
I1
sVd7jcwx1
p29
I1
sVdfdza4f
p30
I1
sVdr2h5le
p31
I1
sVdf4e7tk
p32
I1
sVd0tnmc4
p33
I1
sVdmt9l3i
p34
I1
sVd9gyfck
p35
I1
sVdhwhplt
p36
I1
sVdgghct1
p37
I1
sVd0h44y6
p38
I1
sVd9q2dml
p39
I1
sVdof9bgu
p40
I1
sVdpt6i11
p41
I1
sVdjsywlu
p42
I1
sVdiym1gr
p43
I1
sVdeqwt9f
p44
I1
sVdiaz3ug
p45
I1
sVdf1jgwq
p46
I1
sVdhf19d2
p47
I1
sVd9m5acm
p48
I1
sVd5kg0ny
p49
I2
sVd7t68ry
p50
I1
s.