(dp0
Vdoiqxak
p1
I1
sVczbuzcb
p2
I1
sVda45zxf
p3
I1
sVd9d4l0e
p4
I1
sVdeoycij
p5
I1
sVdhslbby
p6
I1
sVdce5696
p7
I1
sVdg3ujzn
p8
I1
sVdh4dctu
p9
I1
sVd4xqena
p10
I1
sVdczfs5e
p11
I1
sVdeoyqip
p12
I1
sVdetuccn
p13
I1
sVd4c6ehc
p14
I1
sVczznm2s
p15
I1
sVd8tx6kb
p16
I1
sVddgg1lq
p17
I1
sVdgjydqx
p18
I1
sVdfmdc3l
p19
I1
sVdg3myfl
p20
I1
sVdftl9ha
p21
I1
sVddzmoqo
p22
I1
sVdid2wvt
p23
I1
sVd96suy1
p24
I1
sVd4myq6g
p25
I1
sVdahnwtp
p26
I1
sVdfxhwwc
p27
I1
sVdfxs5xx
p28
I1
sVdn2vbaj
p29
I1
sVdmf30n2
p30
I1
sVd2g02uq
p31
I1
sVddrkuk4
p32
I1
sVd2ouu8u
p33
I1
sVddctn9s
p34
I1
sVd2o3sfr
p35
I1
sVdgw8t07
p36
I1
sVddcvnu5
p37
I1
sVdau1ru8
p38
I1
sVdbgyrxa
p39
I1
sVd3xvimc
p40
I1
sVd9n0962
p41
I1
sVd0d1wnx
p42
I1
sVcz3z01b
p43
I1
sVd15nn1u
p44
I1
sVdpuij2h
p45
I1
sVcz51zoi
p46
I1
sVd4zri1m
p47
I1
sVdko0fb4
p48
I1
sVdibbh7h
p49
I1
sVdc439f6
p50
I1
sVcz5nuvu
p51
I1
sVd2aobgr
p52
I1
sVdjtscm9
p53
I1
sVd0n2eth
p54
I1
sVczmb6j7
p55
I1
sVdaypk49
p56
I1
sVdcoc1m2
p57
I1
sVd64881x
p58
I1
sVda3yxx4
p59
I1
sVd6zmmxg
p60
I1
sVd4bflqv
p61
I1
sVddj8nru
p62
I1
sVd7svguk
p63
I1
sVd9rd5tl
p64
I1
sVdemgnfd
p65
I1
sVd19530g
p66
I6
sVddvk3n2
p67
I1
sVdhz54gu
p68
I1
sVd8xb3mg
p69
I1
sVd3fx0un
p70
I1
sVd71p858
p71
I1
sVddw48c0
p72
I1
sVcyvixik
p73
I1
sVd62z2g1
p74
I2
sVdfzvbjg
p75
I1
sVd8jng2h
p76
I1
sVdq5ldc5
p77
I1
s.