(dp0
Vcywjit9
p1
I1
s.(dp0
Vcyxc8h3
p1
I1
sVcywjit9
p2
I1
s.(dp0
Vcz9bty7
p1
I1
sVcywjit9
p2
I1
s.(dp0
Vczrk8at
p1
I1
sVcywjit9
p2
I1
s.(dp0
Vczxdds6
p1
I1
sVcywjit9
p2
I1
s.(dp0
Vcywjit9
p1
I1
sVd0e86c2
p2
I1
s.(dp0
Vd1kylzh
p1
I1
sVcywjit9
p2
I1
s.(dp0
Vd1o1jst
p1
I1
sVcywjit9
p2
I1
s.(dp0
Vd1pu5h1
p1
I1
sVcywjit9
p2
I1
s.(dp0
Vd25wc5a
p1
I1
sVcywjit9
p2
I1
s.(dp0
Vd29mvvf
p1
I1
sVcywjit9
p2
I1
s.(dp0
Vd2i800g
p1
I1
sVcywjit9
p2
I1
s.(dp0
Vd4adqu6
p1
I1
sVcywjit9
p2
I1
s.(dp0
Vd4xkvpz
p1
I1
sVcywjit9
p2
I1
s.(dp0
Vd6l496r
p1
I1
sVcywjit9
p2
I1
s.(dp0
Vd7j4xvb
p1
I1
sVcywjit9
p2
I1
s.(dp0
Vd7u9i9g
p1
I1
sVcywjit9
p2
I1
s.(dp0
Vd98p7y9
p1
I1
sVcywjit9
p2
I1
s.(dp0
Vd9hqv7x
p1
I1
sVcywjit9
p2
I1
s.(dp0
Vd9xam7v
p1
I1
sVcywjit9
p2
I1
s.(dp0
Vcywjit9
p1
I1
sVda1hprx
p2
I1
s.(dp0
Vdberf2s
p1
I1
sVcywjit9
p2
I1
s.(dp0
Vdbwr5jz
p1
I1
sVcywjit9
p2
I1
s.(dp0
Vdcdv73n
p1
I1
sVcywjit9
p2
I1
s.(dp0
Vdcin7yh
p1
I1
sVcywjit9
p2
I1
s.(dp0
Vdcxzk6i
p1
I1
sVcywjit9
p2
I1
s.(dp0
Vdczzk3y
p1
I1
sVcywjit9
p2
I1
s.(dp0
Vde7jln0
p1
I1
sVcywjit9
p2
I1
s.(dp0
Vdepizca
p1
I1
sVcywjit9
p2
I1
s.(dp0
Vcywjit9
p1
I1
sVdeuccs9
p2
I1
s.(dp0
Vdflrysb
p1
I1
sVcywjit9
p2
I1
s.(dp0
Vdfzomfs
p1
I1
sVcywjit9
p2
I1
s.(dp0
Vcywjit9
p1
I1
sVdh4vves
p2
I1
s.(dp0
Vdj584qi
p1
I1
sVcywjit9
p2
I1
s.(dp0
Vcywjit9
p1
I1
sVdjt211f
p2
I1
s.(dp0
Vdjy4c2m
p1
I1
sVcywjit9
p2
I1
s.(dp0
Vdkkdibw
p1
I1
sVcywjit9
p2
I1
s.(dp0
Vdkrpa9g
p1
I1
sVcywjit9
p2
I1
s.(dp0
Vdmu4829
p1
I1
sVcywjit9
p2
I1
s.(dp0
Vdpbesj2
p1
I1
sVcywjit9
p2
I1
s.(dp0
Vds1ox8v
p1
I1
sVcywjit9
p2
I1
s.(dp0
Vdskauam
p1
I1
sVcywjit9
p2
I1
s.