(dp0
Vd3hifs9
p1
I1
sVdrdf7ba
p2
I1
sVcyz5o4t
p3
I1
sVd0h24ym
p4
I1
sVd4eqq4n
p5
I1
sVd1g81yn
p6
I1
sVdt8ogj0
p7
I1
sVd1nszn0
p8
I1
sVde48t0p
p9
I1
sVczef37j
p10
I1
sVdfzzqu5
p11
I1
sVdkpnxrp
p12
I1
sVd2p8rlb
p13
I1
sVd68rtj7
p14
I2
sVd4hnrjk
p15
I1
sVdmpb83t
p16
I1
sVd13ghxc
p17
I1
sVdnh9su7
p18
I1
sVd25ixq2
p19
I1
sVdjfxpw3
p20
I1
sVdkyfk2f
p21
I1
sVd68l6y0
p22
I1
sVdiguei0
p23
I1
sVd3m9wo1
p24
I1
sVd68u0hz
p25
I2
sVd0pkhdg
p26
I1
sVdoagbs7
p27
I1
sVdeissws
p28
I1
sVd762i26
p29
I2
sVdd6gbh6
p30
I1
sVd78fk23
p31
I1
sVd5ptw1d
p32
I1
sVds92vpq
p33
I1
sVdmmlmsa
p34
I1
sVd6r6y52
p35
I1
sVd670o0h
p36
I1
sVdh0nlze
p37
I1
sVd83673s
p38
I2
sVddori0a
p39
I1
sVdjjqdc6
p40
I1
sVd2lbfjr
p41
I1
sVd91etq3
p42
I1
sVd1xcbvn
p43
I1
sVdbdyz7v
p44
I1
sVd0ky1f9
p45
I1
sVd5bytqg
p46
I1
sVddgaj78
p47
I1
sVdsqq7u9
p48
I1
sVd70uybb
p49
I1
sVdh90ytb
p50
I1
sVcyj92qx
p51
I1
sVd73e8c0
p52
I1
sVd6rghrt
p53
I1
sVdbq6qg7
p54
I1
sVd0y9j2w
p55
I1
sVd0o2oqp
p56
I1
sVd1ij2ap
p57
I1
sVdg4cxs0
p58
I1
sVdmi3ofj
p59
I1
sVdgbil0f
p60
I1
sVdgkn7sv
p61
I1
sVczfn3fj
p62
I1
sVdh97irn
p63
I1
sVdduqrz4
p64
I1
sVdisom18
p65
I1
sVdgop3ld
p66
I1
sVd9fgjwn
p67
I1
sVdop7zqq
p68
I1
sVd045shm
p69
I1
sVd1sl8xl
p70
I4
sVd2jp7jm
p71
I1
sVdepfu4i
p72
I2
sVd691ujc
p73
I1
sVdgqxpua
p74
I1
sVd68oyzi
p75
I1
sVdnb9eok
p76
I1
sVd08nr1o
p77
I1
sVd458ux7
p78
I1
sVdkm9cny
p79
I1
sVdasop5k
p80
I1
sVd2zhhb9
p81
I1
sVd53r026
p82
I1
sVdd7h1o6
p83
I1
sVdj27a6y
p84
I1
sVd5pdhht
p85
I1
sVdhfp8u1
p86
I1
sVdrdcdil
p87
I1
sVdgpu58m
p88
I1
sVd37ilv5
p89
I1
sVd1zws3m
p90
I1
sVczovhk9
p91
I1
sVdryaz6k
p92
I1
sVdd8wh8e
p93
I1
sVd68fjsd
p94
I1
sVd69fc6w
p95
I1
sVd0r5qog
p96
I1
sVdsgro86
p97
I1
sVdcbh096
p98
I1
sVdsdhy8y
p99
I1
sVdnq70zp
p100
I1
sVdrwwpmp
p101
I1
sVdj28fru
p102
I1
sVcyp8wso
p103
I1
sVd6iqx1l
p104
I1
sVdn2vbaj
p105
I1
sVd1pftqv
p106
I1
sVdfyj2tr
p107
I1
sVcz0fhhf
p108
I1
sVd5yhhg7
p109
I1
sVd8aveso
p110
I1
sVdhacsjl
p111
I1
sVde8q7qt
p112
I1
sVczv39fp
p113
I1
sVd69as4e
p114
I2
sVd40snd0
p115
I1
sVd543d1k
p116
I1
sVdkw7kzo
p117
I1
sVd1cb84n
p118
I1
sVdkxpzbx
p119
I1
sVdps9ne2
p120
I1
sVd7gp5vs
p121
I1
sVdgw8t07
p122
I1
sVd0fn7us
p123
I1
sVdmtmkbh
p124
I1
sVcz8521g
p125
I1
sVcyugwtv
p126
I1
sVcyli4o2
p127
I1
sVd8sxv8f
p128
I1
sVdhlzras
p129
I1
sVd8e1sjb
p130
I1
sVdi569c4
p131
I2
sVdt59ht7
p132
I1
sVdh46i5k
p133
I1
sVd9dc37d
p134
I1
sVdtets8d
p135
I1
sVdh3wcut
p136
I1
sVd0kwjh1
p137
I1
sVd4vjokd
p138
I1
sVdel78di
p139
I1
sVdhi8yx5
p140
I1
sVdgmiy9s
p141
I1
sVdspbt4w
p142
I1
sVdhr7ilw
p143
I1
sVdo1v3fs
p144
I1
sVd3ewf8z
p145
I1
sVdk6dsyq
p146
I1
sVdt9gece
p147
I1
sVde8z48d
p148
I1
sVczl7kb5
p149
I1
sVd0zs04m
p150
I1
sVd4zt3qg
p151
I2
sVde2f8oo
p152
I1
sVdnwtflh
p153
I1
sVd550a1t
p154
I1
sVdbfjux1
p155
I1
sVdiannyd
p156
I1
sVdp1dpu6
p157
I1
sVdbk3322
p158
I1
sVddc817t
p159
I2
sVdcznw5i
p160
I2
sVczfw9x4
p161
I1
sVd7fg0hl
p162
I1
sVcz6dmbn
p163
I1
sVcyt7pve
p164
I1
sVdftv8jf
p165
I1
sVdi29ldc
p166
I1
sVd5hxlcr
p167
I1
sVdieh835
p168
I1
sVd0kpq2z
p169
I1
sVdanlk90
p170
I1
sVdcanv4n
p171
I1
sVdbwc9b0
p172
I1
sVd38dqk5
p173
I2
sVd7m3eha
p174
I1
sVdhyltg0
p175
I1
sVde2pyeh
p176
I1
sVd1wdpld
p177
I1
sVd9nbfbm
p178
I1
sVdeo7gst
p179
I1
sVdcgstt2
p180
I1
sVdklyu41
p181
I1
sVdihyo4i
p182
I1
sVd35ul5e
p183
I1
sVd4hj88z
p184
I1
sVds3ibf7
p185
I1
sVdmq72dm
p186
I1
sVddxbz6p
p187
I1
sVd3bkg90
p188
I1
sVd5n775d
p189
I1
sVd6dnd7k
p190
I1
sVdan3ppp
p191
I1
sVd88malm
p192
I1
sVdaev084
p193
I2
sVdn0sllq
p194
I2
sVd7b16c4
p195
I2
sVd0463n1
p196
I1
sVd68vg8x
p197
I2
sVdexjeap
p198
I1
sVcysj517
p199
I1
sVd8nu28r
p200
I1
sVdckxoti
p201
I1
sVd9jq07x
p202
I1
sVd01crmo
p203
I1
sVddoyw6q
p204
I1
sVdrmhrgc
p205
I1
sVd4gmydd
p206
I3
sVdjkr33d
p207
I1
sVd0s8aae
p208
I1
sVdqnz2hz
p209
I1
sVdnnf695
p210
I1
sVde4cth7
p211
I1
sVd0lrkzj
p212
I3
sVd1g57ku
p213
I1
sVd57oucw
p214
I1
sVdkqa9uj
p215
I1
sVds91o5u
p216
I2
sVd0w5nlr
p217
I1
sVd2acnxo
p218
I1
sVdasy57q
p219
I1
sVd04w6dv
p220
I1
sVdhcqlhm
p221
I1
sVdnyjyis
p222
I1
sVd17f5xw
p223
I1
sVd5uf52n
p224
I1
sVcznc6hw
p225
I1
sVd84j0lx
p226
I2
sVdrj578r
p227
I1
sVdamut4a
p228
I1
sVdmto37y
p229
I1
sVd99fy9s
p230
I1
sVdbu98zo
p231
I1
sVdarg6fn
p232
I1
sVdh67asc
p233
I1
sVdp32z1v
p234
I1
sVd0xz88t
p235
I1
sVdqrl9la
p236
I2
sVdj1sxrk
p237
I1
sVd4v3mvf
p238
I1
sVdf4gq18
p239
I1
sVdclb4hq
p240
I1
sVdk8jdof
p241
I1
sVdqtjkym
p242
I1
sVdhf20nt
p243
I1
sVd80zifj
p244
I1
sVd9by86s
p245
I1
sVdq06v20
p246
I1
sVczrc7rx
p247
I1
sVd1c4cpy
p248
I1
sVcyjdxjp
p249
I1
sVdbh9337
p250
I1
sVd45zh79
p251
I1
sVd37moi7
p252
I1
sVczjbvt7
p253
I1
sVd30uxzb
p254
I1
sVdan7875
p255
I1
sVdixbw08
p256
I2
sVdsc80pa
p257
I1
sVdd61q6t
p258
I1
sVd8zks6k
p259
I1
sVdq05mab
p260
I1
sVdakt6r8
p261
I1
sVdf34e5f
p262
I1
sVdjl3y9y
p263
I1
sVdcio3au
p264
I1
sVd64ras2
p265
I1
sVd4tgw7h
p266
I1
sVczgtudw
p267
I1
sVd83k9o1
p268
I2
sVczt84ra
p269
I1
sVd2rn9c2
p270
I1
sVd2niqgv
p271
I1
sVd28d8tj
p272
I1
sVdcap8lk
p273
I1
sVd0j1pae
p274
I1
sVd8qm0kq
p275
I1
sVd725uhx
p276
I1
sVd2v3s3u
p277
I1
sVdiict1y
p278
I1
sVdolhlva
p279
I1
sVd2oiv88
p280
I1
sVcyxo3qe
p281
I1
sVd6gu7yp
p282
I1
sVd01qcs0
p283
I1
sVd1ywq4e
p284
I1
sVddj9gp7
p285
I1
sVczz8xmg
p286
I1
sVdn82osb
p287
I1
sVd56pli3
p288
I1
sVdbpcr2s
p289
I1
sVd688r6u
p290
I1
sVdte2xur
p291
I1
sVdac6j11
p292
I2
sVdcrinwy
p293
I1
sVdnlo3q2
p294
I1
sVdc1ofnk
p295
I1
sVd68p2ye
p296
I1
sVd7h5yi7
p297
I1
sVd47dh4d
p298
I1
sVczch81r
p299
I1
sVdc7ns0e
p300
I1
sVd8kd4v4
p301
I1
sVdncn9bc
p302
I1
sVcyu0c9o
p303
I2
sVd18ikk9
p304
I1
sVd8skfyo
p305
I1
sVdsakci6
p306
I1
sVdinvhdm
p307
I1
sVdc5mg23
p308
I1
sVd3qa4gs
p309
I1
sVd3v4xyt
p310
I1
sVcykmlpq
p311
I1
sVdo4qnbl
p312
I1
sVd62k8s9
p313
I1
sVdb51y3x
p314
I1
sVdmnys7r
p315
I1
sVdaxu6te
p316
I1
sVd2ltkrg
p317
I1
sVdkg9oye
p318
I1
sVdazn75z
p319
I2
sVczoj1w2
p320
I1
sVds90q4m
p321
I5
sVcznwnon
p322
I1
sVd9lpez8
p323
I1
sVddpyfp1
p324
I1
sVdbdtwnx
p325
I1
sVd1k1a4x
p326
I1
sVde9qd67
p327
I1
sVd9vhild
p328
I1
sVczhhhd2
p329
I1
sVcz6zllb
p330
I1
sVdnnsiln
p331
I1
sVdncge5w
p332
I1
sVdq6rb3x
p333
I1
sVdg7p289
p334
I1
sVdi52emw
p335
I1
sVd1kuh6o
p336
I1
sVcysphrd
p337
I1
sVddiirrf
p338
I1
sVd0ny8mj
p339
I1
sVdrq1d1g
p340
I2
sVd9d3p33
p341
I1
sVd6q84fo
p342
I1
sVczx1wbu
p343
I1
sVd75htno
p344
I1
s.