(dp0
Vdemrgmz
p1
I1
sVd9tz1sw
p2
I1
sVdcdlglm
p3
I1
sVd9nx0x3
p4
I1
sVdmugc3f
p5
I1
sVdhy3zf1
p6
I1
sVdktmneu
p7
I1
sVddghqwy
p8
I1
sVdeg9swo
p9
I1
sVdcud3as
p10
I1
sVd9yynoc
p11
I1
sVdfiljn4
p12
I1
sVd1i8r9m
p13
I1
sVdhbghri
p14
I2
sVdaxj5do
p15
I1
sVd8gn9kj
p16
I1
sVdihwwi4
p17
I1
sVdelts1t
p18
I1
sVd7zrnc3
p19
I1
sVd6qajdj
p20
I2
sVdcezjzd
p21
I1
sVdd9089l
p22
I1
sVczyeskr
p23
I1
sVd2g38xa
p24
I1
sVdhh6lha
p25
I1
sVdeyoo9g
p26
I1
sVdb96gwk
p27
I1
sVdb3cwa9
p28
I1
sVd9ke8ku
p29
I1
sVcyknwo1
p30
I1
sVdny3tiv
p31
I1
sVd31pkz0
p32
I1
sVdkqg5xy
p33
I1
sVdcpuhhy
p34
I1
sVdc5bqi1
p35
I2
sVdhg57ea
p36
I1
sVdf27myk
p37
I1
sVdhtc63t
p38
I1
sVdb56nix
p39
I1
sVdo6yfr5
p40
I1
sVdnaavh2
p41
I1
sVdml5d7f
p42
I1
sVdcuhxp6
p43
I1
sVdo59y2a
p44
I1
sVdivnwt0
p45
I1
sVda6icsw
p46
I1
sVd905s38
p47
I1
sVd4kgz6o
p48
I1
sVd6hdjpc
p49
I1
sVd550jke
p50
I1
sVdav6bmp
p51
I1
sVdd0xmej
p52
I2
sVd14kfoz
p53
I1
sVdhja9y5
p54
I1
sVd9dmugq
p55
I1
sVdcza1xj
p56
I1
sVdf7q6r8
p57
I1
sVcyzzbni
p58
I1
sVdd2usqq
p59
I1
sVdgsn3v6
p60
I1
sVd6uj6jp
p61
I1
sVdpm2crv
p62
I1
sVd54gmcj
p63
I1
sVd3v6xyy
p64
I1
sVd00xzfm
p65
I1
sVde3paq3
p66
I1
sVdczw1n6
p67
I1
sVcz865n4
p68
I1
sVdt45hye
p69
I1
sVda3g8uc
p70
I1
sVdc7n5bh
p71
I1
sVd5uqev0
p72
I1
sVde6i5r7
p73
I1
sVdt7dqzd
p74
I1
sVdnxzyty
p75
I1
sVd7cf5ql
p76
I1
sVdeb34b6
p77
I1
sVdobzzc5
p78
I1
sVde74xdd
p79
I1
sVcyweuv6
p80
I1
sVcza6otf
p81
I1
sVdkt0gbn
p82
I1
sVdan1y6f
p83
I1
sVddchpeq
p84
I1
sVd9vix6d
p85
I1
sVd3pqotq
p86
I1
sVda3d484
p87
I2
sVdbpr7s3
p88
I1
sVdedm5wq
p89
I1
sVd9wzhvq
p90
I1
sVd1agof0
p91
I1
sVdiyz62x
p92
I1
sVd88wp2d
p93
I8
sVdmky0tu
p94
I1
sVddcex1q
p95
I1
sVcz4ehjc
p96
I1
sVddwmtqj
p97
I1
sVdacfesq
p98
I1
sVd87f2p0
p99
I1
sVdifui09
p100
I1
sVd6w1azx
p101
I1
sVdefgu54
p102
I1
sVdadwym5
p103
I1
sVdrc5sha
p104
I1
sVdmxjue4
p105
I2
sVd1vgzx8
p106
I1
sVdqjjtiy
p107
I1
sVdni1jhn
p108
I1
sVddeucpg
p109
I1
sVdhd00i0
p110
I2
sVd0fktqi
p111
I1
sVdhdrjtu
p112
I1
sVdd1tukv
p113
I1
sVd9ywhuu
p114
I1
sVd4e3b5s
p115
I1
sVd9vkdes
p116
I2
sVd47th6i
p117
I1
sVdnfbjt0
p118
I1
sVd0eo5dn
p119
I1
sVddy4g8v
p120
I1
sVd2jaqo0
p121
I1
sVdau6upg
p122
I1
sVderpl8t
p123
I1
sVdkqfht7
p124
I1
sVdirnwev
p125
I1
sVd01czgw
p126
I1
sVdj21u80
p127
I1
sVdernwoi
p128
I1
sVd66951c
p129
I1
sVde06ytv
p130
I1
sVd9axc79
p131
I1
sVczwx7si
p132
I2
sVd8ndn8p
p133
I1
sVdcab5oc
p134
I1
sVd9v6sm9
p135
I1
sVd1aclf5
p136
I1
sVdrb040b
p137
I1
sVd5yhkvp
p138
I1
sVd1wk73j
p139
I1
sVd1ndiqp
p140
I1
sVddruw8m
p141
I1
sVd50wxsa
p142
I1
sVdefgxr1
p143
I1
sVd0izbka
p144
I1
sVddc6xp1
p145
I1
sVd9k0bw0
p146
I1
sVdgdxdbz
p147
I1
sVd496fj4
p148
I2
sVd3j36sk
p149
I1
sVcyindf0
p150
I1
sVdf1ci20
p151
I1
sVdh666sm
p152
I2
sVdd3e8u5
p153
I1
sVd6ygmsc
p154
I1
sVdie427f
p155
I2
sVdaujhaz
p156
I1
sVdefg5vf
p157
I2
sVd5qvucw
p158
I1
sVd0yp97z
p159
I1
sVdcxypth
p160
I1
sVdi1noxa
p161
I1
sVdr1440t
p162
I2
sVd1i3sh6
p163
I1
sVdrvqej0
p164
I4
sVd8jng2h
p165
I1
sVddc8qz4
p166
I1
sVdb3mlzg
p167
I1
sVd7i9bau
p168
I1
sVd0pdimz
p169
I1
sVdmrixdy
p170
I1
sVdf1v9yk
p171
I1
sVd49tqty
p172
I1
sVdfurk59
p173
I1
sVdjox47j
p174
I1
sVda8qxcb
p175
I1
sVdpu0l51
p176
I1
sVdivn9e9
p177
I1
sVd1yg5yg
p178
I1
sVd3ucol3
p179
I1
sVcyrjzse
p180
I1
sVd6qwgq2
p181
I1
sVd1rs10d
p182
I2
sVd5cgckq
p183
I2
sVdcl5n5s
p184
I1
sVd312yvz
p185
I2
sVd0zqkds
p186
I1
sVde6a39v
p187
I1
sVd9d54gh
p188
I1
sVd2xlb7i
p189
I1
sVd86yav1
p190
I1
sVdf9o4sy
p191
I1
sVdd5rjot
p192
I1
sVd84uxj7
p193
I1
sVdas63og
p194
I1
sVcyxfqqt
p195
I1
sVczhpeec
p196
I1
sVd99380i
p197
I1
sVdg4yb7b
p198
I1
sVd9x50be
p199
I1
sVdh0ubsn
p200
I1
sVdjvt5mg
p201
I1
sVcyvgr1z
p202
I1
sVdabljxt
p203
I1
sVdefi6hb
p204
I1
sVdhzuegv
p205
I1
sVd6m5opa
p206
I1
sVdbil918
p207
I1
sVdbmq0g0
p208
I1
sVdmx6l0y
p209
I1
sVd5f81xb
p210
I1
sVd88kz2n
p211
I2
sVddhqcnx
p212
I2
sVdap6o24
p213
I1
sVd2q97w0
p214
I1
sVd0ic9yo
p215
I1
sVdqclj5a
p216
I1
sVd0qz5xd
p217
I1
sVd1u3fku
p218
I1
sVde5tor3
p219
I1
sVczwxb2z
p220
I1
sVczgv30c
p221
I1
sVdgiy1yu
p222
I2
sVddyn776
p223
I1
sVd6c30u1
p224
I1
sVdces68w
p225
I1
sVd2dizbj
p226
I1
sVd591yyg
p227
I1
sVdhdrazj
p228
I1
sVd2v32l8
p229
I1
sVdilzk9l
p230
I1
sVd2b2rzc
p231
I1
sVd6e7ojo
p232
I1
sVdeet3un
p233
I1
sVdpiuwc9
p234
I1
sVd40w3rq
p235
I1
sVd48k2jq
p236
I1
sVcyucclb
p237
I1
sVdhozvep
p238
I1
sVdeb463d
p239
I1
sVd6w5rgb
p240
I1
sVdfpz4jk
p241
I1
sVd2xoone
p242
I1
sVdel95st
p243
I1
sVd8xxvqo
p244
I1
sVd9zbe47
p245
I1
sVdihaw5p
p246
I1
sVd2aobgr
p247
I2
sVczogt5w
p248
I1
sVd4yhidg
p249
I1
sVdid2z6s
p250
I1
sVdiefnje
p251
I2
sVdb3p7ep
p252
I1
sVddf15b5
p253
I1
sVdckyj0a
p254
I1
sVd46d3hv
p255
I1
sVd295xnu
p256
I1
sVdid3kz5
p257
I1
sVdqyx9o8
p258
I1
sVdclxgat
p259
I1
sVd3kidrk
p260
I1
sVdmyd7jq
p261
I1
sVdgng8kn
p262
I1
sVd0pwyxa
p263
I1
sVcyla1zy
p264
I1
sVddihxo4
p265
I1
sVdk0cadv
p266
I1
sVd2ifoas
p267
I1
sVcyucfq1
p268
I1
sVd3jx32i
p269
I1
sVdozxua0
p270
I1
sVdbptq8w
p271
I3
sVcyo1dxq
p272
I1
sVd286eo2
p273
I1
sVd9d69oa
p274
I1
sVdcmc1tb
p275
I1
sVd48pyos
p276
I1
sVd1unj20
p277
I1
sVd8322gf
p278
I1
sVd5gtv2f
p279
I1
sVdoe4wip
p280
I1
sVdhmphkh
p281
I1
sVdc9nint
p282
I1
sVd9rd5tl
p283
I1
sVd7k5utf
p284
I1
sVdih1d17
p285
I1
sVdq6sndz
p286
I1
sVdkmo9z5
p287
I1
sVdc9ncpc
p288
I1
sVd5kwnw5
p289
I1
sVdr6xvah
p290
I1
sVdd4tqbt
p291
I1
sVd1bou5j
p292
I1
sVdgqrdo8
p293
I1
sVd9wa56d
p294
I1
sVdgckax6
p295
I1
sVd48s4yy
p296
I1
sVdel8rqh
p297
I1
sVd3qia0y
p298
I1
sVdcbrkja
p299
I1
sVdi4tl85
p300
I1
sVdhczxby
p301
I2
sVd2ue112
p302
I1
sVdjyzruc
p303
I1
sVdjr3h9l
p304
I1
sVcyz6vk3
p305
I1
sVdemj4wg
p306
I1
sVdc0dv0y
p307
I1
sVdfalwox
p308
I1
sVd2hebsi
p309
I1
sVd1nxolf
p310
I1
sVdhgnc9r
p311
I1
sVdaq9zww
p312
I2
sVdob9cct
p313
I1
sVd5z6dii
p314
I1
sVdf1vie7
p315
I1
sVd2br38m
p316
I1
sVdqek1pn
p317
I1
sVd1q90bf
p318
I1
sVdexlpp4
p319
I1
sVd0rqedr
p320
I1
sVd24o3c4
p321
I2
sVdrblxoz
p322
I1
sVdqia457
p323
I1
sVdel969s
p324
I1
sVdap8aqr
p325
I1
sVd9ed0ht
p326
I1
sVdau54nz
p327
I1
sVd0bh5pc
p328
I1
sVdqqmc9s
p329
I1
sVdsc4pv0
p330
I1
sVdinaf22
p331
I1
sVdcf3pky
p332
I1
sVdmvixk2
p333
I1
sVdaym6hh
p334
I1
sVdadpxr8
p335
I1
sVd2boka7
p336
I1
sVdalw9il
p337
I1
sVdjz5zxo
p338
I1
sVd8pa1e3
p339
I1
sVcyq8kwk
p340
I1
sVcyv58q5
p341
I1
sVdejzq1v
p342
I1
sVdibgokh
p343
I1
sVd3b7txk
p344
I1
sVdef8eld
p345
I1
sVdi5c4wl
p346
I1
sVd7hk00c
p347
I1
sVd0r4pjw
p348
I1
sVdgwy5i1
p349
I1
sVd65dpk5
p350
I1
sVdrqtjm0
p351
I1
sVd9vouqz
p352
I2
sVcylgy7j
p353
I1
sVd1qzybj
p354
I1
sVd2yxe11
p355
I1
sVd5e8pmo
p356
I2
sVd346qi0
p357
I1
sVcz37etp
p358
I1
sVd12wyzs
p359
I1
sVd23uls6
p360
I1
sVd2heu3a
p361
I1
sVd1a3mz2
p362
I1
sVd2l2s19
p363
I1
sVdgwpfyf
p364
I1
sVdniysdb
p365
I1
sVd0m5q4t
p366
I1
sVdb17rm3
p367
I1
sVdoron14
p368
I1
sVdcn7k14
p369
I1
sVd6c7nrc
p370
I1
sVdfwvnr6
p371
I1
sVdg4odra
p372
I2
sVcymchjv
p373
I1
sVd61gxrc
p374
I1
sVdeudajf
p375
I1
sVdefhwic
p376
I1
sVdgt5fur
p377
I1
sVdqnh12m
p378
I1
sVde7xcjo
p379
I1
sVd8nfs8s
p380
I1
sVdfn01q3
p381
I1
sVd3zpmna
p382
I1
sVd7f78pq
p383
I1
sVdbuxo0k
p384
I1
sVdir2640
p385
I1
sVdbpa01k
p386
I1
sVd1th44t
p387
I1
sVdckw5r0
p388
I1
sVd4reedw
p389
I1
sVdd1vzky
p390
I1
sVdphp33c
p391
I1
sVdd5liu2
p392
I1
sVdhczxvq
p393
I1
sVdihqygq
p394
I1
sVdoe7a7y
p395
I1
sVd7fp4g0
p396
I1
sVddcrs13
p397
I1
sVdnvt3h5
p398
I1
sVd2o3apu
p399
I1
sVczyjfxc
p400
I1
sVddm03b4
p401
I1
sVd5b3gqb
p402
I1
sVdeje3fq
p403
I1
sVdbjftjd
p404
I1
sVczgwe3w
p405
I1
sVd1t2a02
p406
I1
sVd48ru4v
p407
I2
sVcyucikc
p408
I1
sVdq33ytm
p409
I1
sVddjs6z3
p410
I1
sVdot7l7o
p411
I1
sVdi4c81d
p412
I1
sVdfyswup
p413
I1
sVdf0ybsz
p414
I1
sVdhyraij
p415
I1
sVdcdaexr
p416
I1
sVd8gkkg7
p417
I1
sVd0acpdv
p418
I1
sVdctkm68
p419
I2
sVcyws5jw
p420
I1
sVdfgm037
p421
I1
sVdap5cep
p422
I1
sVdacoht7
p423
I1
sVcymf3ri
p424
I1
sVd5nijcy
p425
I1
sVdfrjpi2
p426
I1
sVdh9cf3i
p427
I1
sVd5wsc4o
p428
I2
sVdfv72ij
p429
I1
sVcz2yeh1
p430
I2
sVd2q2vq0
p431
I1
sVcyv6g1r
p432
I1
sVdkg5ryu
p433
I1
sVddh7xs2
p434
I2
sVd2f7gbt
p435
I1
sVdelagbb
p436
I1
sVdrv5xiq
p437
I1
sVd74veul
p438
I1
sVdkk4qg9
p439
I1
sVd7vch00
p440
I1
sVcyvdjjq
p441
I1
sVczv079n
p442
I1
sVdhd5o5c
p443
I1
sVdn1f52r
p444
I2
sVd2yziov
p445
I1
sVdf4t9c5
p446
I1
sVddt50tb
p447
I2
sVd3etyub
p448
I1
s.