(dp0
Vdtegzct
p1
I1
sVdhgyfm5
p2
I1
sVd4n4g51
p3
I1
sVcyri454
p4
I1
sVdoslb85
p5
I1
sVdhxqagk
p6
I1
sVdmf9hpy
p7
I1
sVd3n6rtj
p8
I1
sVd3a3x6n
p9
I1
sVd74qykx
p10
I1
sVd1xw7ac
p11
I1
sVdd54w05
p12
I1
sVd20jz7r
p13
I1
sVdcgz9bo
p14
I1
s.