(dp0
Vdgnyy3r
p1
I1
sVdgmldkm
p2
I1
sVcyzi7ew
p3
I1
sVdq3iej5
p4
I1
sVdki6art
p5
I1
sVddwg3t0
p6
I1
sVdjo6ak2
p7
I1
sVdb8ht3z
p8
I1
sVdglhsch
p9
I1
sVd1lkc0y
p10
I1
sVdon9694
p11
I1
sVd4tcy3r
p12
I1
sVczglssf
p13
I1
sVdqde21h
p14
I1
sVd8mglmw
p15
I1
sVd5tebvv
p16
I1
sVdk55ygs
p17
I1
sVdiv3igg
p18
I1
sVdbcyow6
p19
I1
sVd9kakq3
p20
I1
sVd7ian1q
p21
I1
sVdfro7g6
p22
I1
sVd77uepf
p23
I1
sVcz6zfy3
p24
I1
sVdgtbdxb
p25
I1
sVdg9hpcw
p26
I1
sVd0fn12f
p27
I1
sVd8zyi5k
p28
I1
sVdmngjx9
p29
I1
sVd17o78h
p30
I1
sVdohmtax
p31
I1
sVdige9ic
p32
I1
sVczggez6
p33
I1
sVd55wdq9
p34
I1
sVczmx4zh
p35
I1
sVczj0wmf
p36
I1
sVdgyvflt
p37
I1
sVdd0a7tg
p38
I1
sVdq810b6
p39
I1
sVdh4v5fb
p40
I1
sVdfd06tr
p41
I1
sVd83hgod
p42
I1
sVdapi0wn
p43
I1
sVd2zujby
p44
I1
sVdf4tg3d
p45
I1
sVdhf3upz
p46
I1
sVdghucmv
p47
I1
sVdhafahx
p48
I1
sVdg09g2e
p49
I1
sVdctibyc
p50
I1
sVdouaqs0
p51
I1
s.