(dp0
Vd8n7c1w
p1
I1
sVd88xnwt
p2
I1
sVdbcixjp
p3
I1
sVdac818g
p4
I1
sVcysxn4n
p5
I1
sVdotl8ma
p6
I1
sVd2fc6wf
p7
I1
sVdgfl4it
p8
I1
sVdhwt5pi
p9
I1
sVcz8tr7i
p10
I1
sVdo5wpot
p11
I1
sVdd7lt83
p12
I1
sVdobjryl
p13
I2
sVddhug85
p14
I1
sVdhjfv6i
p15
I1
sVdj8k1yg
p16
I1
sVdkl19jw
p17
I1
sVdk79zdk
p18
I1
sVdiwrtu4
p19
I1
sVdjn1g1z
p20
I1
sVde15mls
p21
I1
sVcztai5e
p22
I1
sVde0x1cu
p23
I1
sVdntsavk
p24
I1
sVcz1bfw1
p25
I1
s.