(dp0
Vdsdncy0
p1
I1
sVdkmf89h
p2
I1
sVd7frk60
p3
I2
sVd14rhxz
p4
I1
sVdbmwso1
p5
I2
sVczfum0b
p6
I1
sVczu19ph
p7
I1
sVczdqnnc
p8
I1
sVdnjwe7u
p9
I1
sVd8ntl3l
p10
I1
sVdb5g4fr
p11
I1
sVdjrk5bp
p12
I1
sVddc2f7q
p13
I2
sVdi4ralf
p14
I1
sVd42lwtg
p15
I1
sVd7uhnjz
p16
I1
sVd843mda
p17
I1
sVda2gtds
p18
I1
sVdgr5in2
p19
I1
sVdcud1gq
p20
I1
sVdcbdwi6
p21
I1
sVd26wj7n
p22
I1
sVdg34uwi
p23
I1
sVdh331y9
p24
I1
sVdd3oa26
p25
I1
sVdcqq98u
p26
I1
sVd96jvld
p27
I1
sVd2zztwg
p28
I1
sVdfx2673
p29
I2
sVdcl9rx4
p30
I1
sVdt2omlw
p31
I1
sVd6aj4nt
p32
I1
sVdijnjlw
p33
I1
sVdg4iwby
p34
I1
sVdg2bqx7
p35
I1
sVdpr75xq
p36
I1
sVd19qh9k
p37
I2
sVdsdvqxe
p38
I1
sVd0t8vc1
p39
I1
sVd9r7eha
p40
I1
sVczq9w7f
p41
I1
sVdmui2vi
p42
I2
sVddn9lfw
p43
I1
sVd3qy4fk
p44
I1
sVd1r5ypp
p45
I1
sVdax2kgq
p46
I1
sVdne5654
p47
I1
sVda32omw
p48
I1
sVdpipwus
p49
I1
sVd7orvb0
p50
I1
sVda6s31o
p51
I1
sVdnn1zuf
p52
I1
sVcz2gr5k
p53
I1
sVd30gevb
p54
I1
sVdjlaafs
p55
I1
sVdj5l5c0
p56
I2
sVdj4q2al
p57
I1
sVd537jaq
p58
I1
sVdew9ok0
p59
I1
sVd8t12qf
p60
I1
sVdk5n6bu
p61
I1
sVd5firmi
p62
I1
sVdqgyvec
p63
I1
sVdrwj366
p64
I1
sVdf3r0g4
p65
I1
sVde76w9n
p66
I1
sVd5l1x2a
p67
I1
sVdi9jqv2
p68
I1
sVd125tps
p69
I1
sVde6p3x7
p70
I2
sVd6tzmy8
p71
I1
sVdsfuuyb
p72
I1
sVd6v0u4z
p73
I1
sVdj2goiu
p74
I1
sVddxy6nz
p75
I1
sVdhfmd9u
p76
I1
sVdcezjzd
p77
I1
sVdr9lju3
p78
I1
sVd5wuuxr
p79
I1
sVd6ma4k6
p80
I1
sVd7gqf6k
p81
I1
sVdc9f5a3
p82
I1
sVdmqtdxs
p83
I1
sVdi01egk
p84
I1
sVddbqj57
p85
I1
sVdbmuff0
p86
I1
sVdg1cj4d
p87
I1
sVdbz7x9x
p88
I2
sVcylsicd
p89
I2
sVcz0zxj1
p90
I1
sVdo0llxv
p91
I1
sVdned1bn
p92
I1
sVcypl21t
p93
I1
sVd77m0n7
p94
I1
sVdcnm5nd
p95
I1
sVdjwhdlx
p96
I1
sVd23asbv
p97
I1
sVd3l0rsn
p98
I1
sVdazedl9
p99
I1
sVd5pjtb1
p100
I2
sVdcft4o4
p101
I1
sVd95wc21
p102
I6
sVdc0cu9x
p103
I1
sVdgevjic
p104
I1
sVdr9px9l
p105
I1
sVdjb88kw
p106
I1
sVdeqbkud
p107
I1
sVd2it0fk
p108
I1
sVdnka8fi
p109
I1
sVdfxj1rt
p110
I1
sVdi07h4b
p111
I1
sVd12a39x
p112
I1
sVdks8bdp
p113
I1
sVd2gegyi
p114
I1
sVd5oqu9n
p115
I1
sVd0asxjh
p116
I2
sVdmrwgap
p117
I1
sVddjczlv
p118
I1
sVd3n054g
p119
I1
sVdnddpzt
p120
I1
sVd8xct15
p121
I1
sVdayplus
p122
I1
sVdr21ch8
p123
I1
sVcz2oisi
p124
I1
sVdhanx5r
p125
I1
sVdc3ya19
p126
I1
sVdbegk8u
p127
I4
sVcylj13x
p128
I1
sVd7lts8r
p129
I1
sVdhvncyh
p130
I1
sVdhxx4ij
p131
I1
sVdg6a00f
p132
I1
sVdjztmtr
p133
I2
sVdgiwimg
p134
I1
sVcyku4i1
p135
I3
sVd7bnazs
p136
I1
sVdhzte12
p137
I1
sVd7iz9b3
p138
I1
sVczug8pt
p139
I1
sVd1qe7ns
p140
I2
sVd57poss
p141
I1
sVd58k8nu
p142
I1
sVcyi45ri
p143
I1
sVdhsxq5t
p144
I1
sVdii2984
p145
I1
sVd56vcv1
p146
I1
sVd1aojy4
p147
I1
sVdklpfzq
p148
I1
sVd5ipp0g
p149
I2
sVdixzb4r
p150
I1
sVcz4gmib
p151
I1
sVdcar603
p152
I1
sVd8urobn
p153
I1
sVd3hys7n
p154
I1
sVdfbsiw6
p155
I1
sVd8eufac
p156
I1
sVd2g4jj2
p157
I1
sVdetqskh
p158
I1
sVd6if3t9
p159
I1
sVdhmm64f
p160
I1
sVddiqa0j
p161
I1
sVd5eq7u1
p162
I1
sVd1ibg62
p163
I2
sVd2xf57i
p164
I2
sVd1txfns
p165
I1
sVdcgf4kr
p166
I1
sVdel8b7v
p167
I1
sVddwine9
p168
I2
sVd8kxtox
p169
I1
sVddgs8e0
p170
I1
sVd6j6mfe
p171
I1
sVdrvkyx9
p172
I2
sVd0p4yq2
p173
I2
sVd3l62pf
p174
I1
sVdgmvqmz
p175
I1
sVd8gcjgh
p176
I1
sVczb3ha1
p177
I1
sVcyqomwz
p178
I1
sVd9d1dis
p179
I1
sVdiqduea
p180
I1
sVdivjhbq
p181
I1
sVd0z3m9g
p182
I1
sVd2z3kjp
p183
I1
sVdbn5d4i
p184
I1
sVd06lg2k
p185
I1
sVdbobsf5
p186
I2
sVdo05xls
p187
I2
sVd0nxc8x
p188
I1
sVcyzsd3f
p189
I1
sVday7kva
p190
I1
sVdo9vdi7
p191
I2
sVcykpkt0
p192
I1
sVd5npadi
p193
I1
sVdq0jhzg
p194
I2
sVdjk7ex7
p195
I1
sVd1li1o2
p196
I1
sVdga4rss
p197
I1
sVdbi7tue
p198
I2
sVcyva4ea
p199
I1
sVdpqn2t0
p200
I1
sVd7gznc0
p201
I2
sVdda3kgh
p202
I1
sVdgta1fu
p203
I1
sVd4qw8n5
p204
I1
sVdggvtfo
p205
I1
sVdbi52rj
p206
I1
sVdin0hrz
p207
I2
sVdhyt4yg
p208
I1
sVd085cbr
p209
I1
sVdflst82
p210
I1
sVd6zizm8
p211
I1
sVcyju54w
p212
I1
sVd9i7v5l
p213
I1
sVd2v24ka
p214
I1
sVd2fvp2h
p215
I1
sVdkmvsmf
p216
I1
sVdihgd3l
p217
I1
sVd9uw8fo
p218
I1
sVdj1csjj
p219
I1
sVde270z2
p220
I1
sVdao340f
p221
I1
sVd15pe7l
p222
I1
sVdgq8acq
p223
I1
sVd5fm3qx
p224
I1
sVd1joicw
p225
I1
sVd349mtp
p226
I1
sVd2m7e0i
p227
I1
sVdav5bon
p228
I1
sVdjj8fn9
p229
I1
sVczwis6s
p230
I1
sVd85ozjr
p231
I1
sVdhkrjo1
p232
I1
sVcz4eqhb
p233
I1
sVdckntwe
p234
I1
sVczzuosi
p235
I1
sVdf7i3u2
p236
I1
sVd058b8n
p237
I1
sVdrslbn1
p238
I1
sVd95vk7a
p239
I1
sVdg7a0c0
p240
I1
sVdnpxw8f
p241
I1
sVdf1tmmb
p242
I1
sVdho3lj8
p243
I1
sVczbmiic
p244
I1
sVd01btao
p245
I1
sVd80nzj6
p246
I1
sVdd40bxd
p247
I3
sVcyp4gxz
p248
I1
sVd9wh1ya
p249
I1
sVcyzau5i
p250
I1
sVdcaf3k1
p251
I1
sVd782x61
p252
I1
sVdk75exo
p253
I1
sVdn4229s
p254
I1
sVd5v7msk
p255
I1
sVd3ai80x
p256
I1
sVddb6ek1
p257
I2
sVdjhihmz
p258
I1
sVdtd0yrd
p259
I1
sVd8onl2j
p260
I1
sVcyvo7mw
p261
I2
sVd0cnoi7
p262
I1
sVd8nmkvu
p263
I2
sVczzgo8y
p264
I1
sVdbn08bi
p265
I2
sVd3y2kbj
p266
I1
sVdeyra8j
p267
I1
sVdrma6jo
p268
I1
sVdgwgt76
p269
I1
sVdj83j55
p270
I1
sVdfw47yg
p271
I1
sVddqs4b9
p272
I1
sVdeujhoi
p273
I1
sVdfyj2tr
p274
I1
sVdeb2hxu
p275
I1
sVd7ngta8
p276
I1
sVdf93ya3
p277
I1
sVd6npenc
p278
I1
sVdc9l5ea
p279
I1
sVd29623d
p280
I1
sVdag437s
p281
I1
sVd3bhwbr
p282
I1
sVdj9e1c9
p283
I1
sVd28xho1
p284
I1
sVd4unney
p285
I3
sVdgmvzi0
p286
I1
sVd5cimkv
p287
I1
sVda4g2bj
p288
I1
sVdbwt2bw
p289
I1
sVd9xmedk
p290
I1
sVdsiv05g
p291
I2
sVd83w46h
p292
I1
sVd0r5qog
p293
I1
sVd37e91v
p294
I1
sVcysit44
p295
I1
sVdbpjzrz
p296
I2
sVdratoy1
p297
I1
sVdpyx1yx
p298
I1
sVddpxqdq
p299
I1
sVd9hjlim
p300
I1
sVdnh2kxa
p301
I1
sVdeplzpd
p302
I1
sVdejl531
p303
I3
sVd40ml34
p304
I1
sVd3n621v
p305
I1
sVd1o5xq3
p306
I1
sVdp8cg9h
p307
I1
sVczzsb78
p308
I1
sVd023lq4
p309
I1
sVdg4zpb6
p310
I1
sVd1inzl7
p311
I1
sVczqbhdn
p312
I2
sVd1p2kwl
p313
I1
sVdcpmrbk
p314
I1
sVdi1iwki
p315
I1
sVdqb3xqp
p316
I1
sVdfymbu4
p317
I1
sVdenaqot
p318
I1
sVd85p05m
p319
I1
sVdo957je
p320
I1
sVdandzrh
p321
I1
sVd77usyz
p322
I1
sVdfs58o6
p323
I1
sVd1tt0eh
p324
I1
sVd11l3me
p325
I1
sVd4vohtu
p326
I2
sVdqx8zuj
p327
I1
sVd3tctj8
p328
I1
sVdf69jkg
p329
I1
sVd9bynpt
p330
I1
sVdf4hjq4
p331
I1
sVde6ymvw
p332
I1
sVd52wr2m
p333
I1
sVdjaupqn
p334
I2
sVdhxiix6
p335
I1
sVd9mrqpc
p336
I1
sVd8fh6d5
p337
I4
sVd7vl1hf
p338
I1
sVdcsva1k
p339
I1
sVd1wtbwx
p340
I1
sVdfrk5ui
p341
I1
sVdcyijzr
p342
I1
sVdd1y4n0
p343
I1
sVdnqacb6
p344
I2
sVdaw0qo9
p345
I1
sVdsxbgjy
p346
I1
sVcyou59b
p347
I1
sVd0p1759
p348
I1
sVcze5918
p349
I1
sVdi6xjxr
p350
I1
sVdex4084
p351
I1
sVd5k1lge
p352
I1
sVd1wmpz1
p353
I1
sVdjapezj
p354
I1
sVdt8v8tw
p355
I1
sVdjghfv5
p356
I3
sVd4oas6n
p357
I1
sVdivp5pp
p358
I1
sVd8a3ava
p359
I1
sVd30lsu9
p360
I1
sVd390uso
p361
I1
sVdd0migg
p362
I1
sVcyxall0
p363
I1
sVdc9wjgo
p364
I1
sVdiey8fi
p365
I1
sVd6qgu4h
p366
I1
sVd38fb5f
p367
I1
sVdb823zw
p368
I1
sVdd24rn1
p369
I1
sVdd7tzox
p370
I1
sVdgkzk55
p371
I1
sVd9p9tms
p372
I1
sVd83pxfw
p373
I1
sVdpq7ln3
p374
I1
sVd23c6zt
p375
I1
sVdcukw49
p376
I1
sVdgckn1o
p377
I1
sVdbgmndc
p378
I1
sVdczvka6
p379
I1
sVdpjd04c
p380
I1
sVdd9j2e2
p381
I1
sVd00nlgp
p382
I1
sVdn76ia4
p383
I1
sVdiwg9hn
p384
I1
sVd8vowo1
p385
I1
sVd9tcxj7
p386
I2
sVdo4wcec
p387
I1
sVdel4n7e
p388
I1
sVd0a24dv
p389
I1
sVdinmiji
p390
I1
sVd8ox6d1
p391
I1
sVcylxq6p
p392
I1
sVd1g0lws
p393
I1
sVdf8ckm6
p394
I1
sVdmnkab8
p395
I1
sVdfo3l4d
p396
I1
sVdad38hm
p397
I1
sVdb2j2c4
p398
I1
sVd0tjbyv
p399
I1
sVdhi3k09
p400
I1
sVd02ndts
p401
I1
sVd3fglr4
p402
I1
sVcyt4ikc
p403
I1
sVd10zgs0
p404
I2
sVdmtmkbh
p405
I2
sVdhx445q
p406
I1
sVd12xq1a
p407
I1
sVdrz5keh
p408
I1
sVd3ry5al
p409
I1
sVdrfh0ng
p410
I2
sVddi6qvr
p411
I1
sVd8mh0bl
p412
I1
sVdipfizm
p413
I1
sVd4igdno
p414
I1
sVd3m6rt0
p415
I1
sVd4t0f47
p416
I1
sVdii1w4e
p417
I1
sVdb28ndo
p418
I1
sVdcsvb4f
p419
I1
sVd7q34aa
p420
I2
sVdj2pmyx
p421
I4
sVdibq71d
p422
I1
sVdrec1kl
p423
I1
sVd41z2pg
p424
I1
sVd4r19ou
p425
I1
sVdbpd8h8
p426
I1
sVdnv37kk
p427
I1
sVd1gki7z
p428
I1
sVdmki199
p429
I2
sVdgi0zb9
p430
I1
sVdkjpq0g
p431
I1
sVd9d761w
p432
I1
sVcyjy9wf
p433
I1
sVd581k7g
p434
I1
sVdgrxotk
p435
I1
sVd950yb8
p436
I1
sVddtir6q
p437
I1
sVd36bxxv
p438
I1
sVd4i58zi
p439
I1
sVd0l8w4w
p440
I1
sVds7rgz8
p441
I2
sVd77dsd8
p442
I1
sVdiy6xqk
p443
I1
sVd0gvp90
p444
I1
sVddlnorm
p445
I1
sVdaewjmv
p446
I1
sVd1q0qc0
p447
I1
sVd9a6bpg
p448
I1
sVdibuhcw
p449
I1
sVd3c1q5b
p450
I1
sVd8go4b4
p451
I1
sVdjub99p
p452
I1
sVd34yltw
p453
I2
sVcyzi1cu
p454
I1
sVd6tjvpm
p455
I1
sVdk2o7pd
p456
I1
sVdr6zabm
p457
I1
sVdc5czyk
p458
I1
sVd2te5vh
p459
I1
sVddcijgm
p460
I1
sVdp060fj
p461
I1
sVd6cfhv8
p462
I1
sVdfie8th
p463
I1
sVdh8ct2s
p464
I1
sVdt7iofp
p465
I1
sVd8vh18z
p466
I1
sVd4xrvb0
p467
I1
sVdbt8zlm
p468
I1
sVd9e3wbe
p469
I2
sVd2bgwoa
p470
I1
sVdgn6rqc
p471
I1
sVd9cyynr
p472
I1
sVddsw82y
p473
I1
sVd3intrp
p474
I2
sVd4v4ihh
p475
I1
sVd6k09an
p476
I1
sVdbr55f6
p477
I1
sVdqg40bq
p478
I1
sVdjcx27y
p479
I1
sVdd4w5yf
p480
I1
sVdf92z6n
p481
I1
sVd8diovh
p482
I1
sVd3cku6w
p483
I2
sVcz7jojo
p484
I1
sVdby6me7
p485
I2
sVdiflhj7
p486
I1
sVdn55k99
p487
I1
sVde1rd4s
p488
I1
sVd303hhp
p489
I1
sVddbqab7
p490
I1
sVd3dzsay
p491
I3
sVd1b7sc0
p492
I1
sVd9tgy2m
p493
I1
sVd2vcoes
p494
I1
sVd4qrdym
p495
I1
sVd5e9pcx
p496
I1
sVczgj3ro
p497
I1
sVdbtsvao
p498
I1
sVdt0qr07
p499
I1
sVcz028xh
p500
I1
sVdqhf8l5
p501
I1
sVd4xusej
p502
I1
sVd50iskv
p503
I2
sVdoj1an9
p504
I1
sVdnlt56g
p505
I1
sVd5ydbfo
p506
I1
sVdimwfgt
p507
I2
sVdqeo19o
p508
I1
sVdac30t1
p509
I1
sVcysi3t0
p510
I1
sVd5ekja8
p511
I1
sVd513qjl
p512
I1
sVdquh4ay
p513
I1
sVdctuvhv
p514
I1
sVdiwe2fu
p515
I1
sVdepmz5e
p516
I1
sVdds0g94
p517
I1
sVdrw14jo
p518
I1
sVdelvdcy
p519
I1
sVczdc9s0
p520
I2
sVd2wefme
p521
I1
sVd8gfict
p522
I1
sVd152lo2
p523
I1
sVd2838xi
p524
I1
sVdnac5e9
p525
I1
sVd4uy8ld
p526
I1
sVdbrl8b3
p527
I1
sVdsl4l8c
p528
I1
sVdbsqkd4
p529
I1
sVdjbqtk9
p530
I1
sVdgpd6u5
p531
I1
sVdeb7fgl
p532
I1
sVdtfme28
p533
I1
sVds1a0rq
p534
I1
sVd7xkcgc
p535
I1
sVd0d71ih
p536
I1
sVd3hay5r
p537
I1
sVd4wod8o
p538
I1
sVd44vvxz
p539
I1
sVdbmd359
p540
I1
sVd32dc7p
p541
I1
sVdkf9wz1
p542
I1
sVdeinesw
p543
I1
sVdnaqcum
p544
I1
sVdb1lm59
p545
I1
sVczcj649
p546
I1
sVdi2bb5y
p547
I1
sVcz6bmjk
p548
I1
sVd48uxcf
p549
I1
sVdfq5pue
p550
I1
sVdd7azhh
p551
I1
sVdafyh5v
p552
I1
sVd1rnqa8
p553
I1
sVdcvlltt
p554
I1
sVcz1noh7
p555
I1
sVddobd75
p556
I1
sVdh9vcuo
p557
I1
sVdmgdwbh
p558
I1
sVdaba4ea
p559
I1
sVdg174e0
p560
I1
sVdmqptv5
p561
I1
sVde9c8op
p562
I1
sVdiw9nqh
p563
I1
sVd05pjon
p564
I1
sVdiml1h5
p565
I1
sVdhv5g37
p566
I1
sVd4mou5q
p567
I1
sVczlcnls
p568
I1
sVdf1s8h8
p569
I1
sVdjyjim1
p570
I1
sVdf7pf88
p571
I1
sVd9w44b7
p572
I1
sVde4pf94
p573
I1
sVdkhfg95
p574
I1
sVd1e7q25
p575
I1
sVdj071h2
p576
I1
sVd15v5ss
p577
I1
sVdjrfxaz
p578
I1
sVdb23jww
p579
I1
sVd7at62x
p580
I1
sVd69vsc4
p581
I1
sVd1cplkx
p582
I1
sVdk4icvr
p583
I1
sVdd7srzi
p584
I2
sVczls9uh
p585
I1
sVda61ue4
p586
I1
sVdjjjdc2
p587
I1
sVdp4xgwd
p588
I1
sVd0ielnw
p589
I1
sVd5xvas3
p590
I1
sVdhg58v3
p591
I1
sVdniu6fw
p592
I1
sVcyqpqwr
p593
I1
sVd20o5vr
p594
I1
sVdhndzdl
p595
I1
sVcyo16o1
p596
I1
sVcysrcbd
p597
I1
sVd1a8lpe
p598
I1
sVdgzusff
p599
I1
sVdguhaf6
p600
I1
sVd4dx5he
p601
I1
sVdi4i6bi
p602
I1
sVd9k4ds4
p603
I1
sVdj6pkpq
p604
I1
sVdc9usdz
p605
I1
sVdhajopu
p606
I1
sVd9l7fae
p607
I1
sVdf3ckpi
p608
I1
sVdiygw5e
p609
I1
sVd49wgfd
p610
I1
sVddo2sxb
p611
I1
sVd8tg335
p612
I1
sVdint1l6
p613
I1
sVdqbebbi
p614
I1
sVdi9jh7o
p615
I1
sVdjmsf8j
p616
I1
sVd5d58e9
p617
I1
sVd52zdyq
p618
I1
sVd0d66qs
p619
I1
sVd1ttu7p
p620
I1
sVd8i40yn
p621
I1
sVdbem24h
p622
I1
sVd59sfyk
p623
I2
sVd1jeskg
p624
I1
sVd700a0a
p625
I1
sVd2cmzhx
p626
I1
sVd7ua6ek
p627
I1
sVdhxbyvl
p628
I1
sVdc1kqo1
p629
I1
sVcyq7gao
p630
I1
sVd9brwje
p631
I1
sVdeomdvd
p632
I1
sVcz48r0k
p633
I1
sVd5fax9o
p634
I1
sVdejnhwg
p635
I1
sVdfvg25p
p636
I1
sVd9zd0vi
p637
I1
sVd4cuxi8
p638
I1
sVdd8ya8w
p639
I1
sVdei4pvo
p640
I1
sVda171ri
p641
I1
sVd0dsyl4
p642
I1
sVd1sb6a0
p643
I1
sVdel3ama
p644
I1
sVdflrjq8
p645
I1
sVdj03pe0
p646
I1
sVdenn2ko
p647
I1
sVd6peozp
p648
I1
sVd3h0lb0
p649
I1
sVd5wkfr8
p650
I1
sVd8no6kk
p651
I1
sVdc9oe87
p652
I1
sVd7hxfhb
p653
I1
sVdcwc4u8
p654
I2
sVd5axfdh
p655
I1
sVd3iviwo
p656
I1
sVdnpb28x
p657
I1
sVdb5cwhl
p658
I1
sVd1y8dq5
p659
I1
sVdp67pec
p660
I1
sVczpsdhx
p661
I1
sVdgibr46
p662
I1
sVd8v9kxa
p663
I1
sVdmvdhau
p664
I1
sVdsxjguu
p665
I2
sVd051k6s
p666
I1
sVdt4h973
p667
I1
sVdc4af4o
p668
I1
sVd1e1oxx
p669
I1
sVdavbnpm
p670
I1
sVdiqe7zi
p671
I1
sVdk3rree
p672
I1
sVd7xx267
p673
I1
sVcys8whc
p674
I1
sVdnc2swj
p675
I1
sVdbifdgt
p676
I1
sVd013j9b
p677
I1
sVde3x3fh
p678
I1
sVd3pmrfo
p679
I1
sVd76v46k
p680
I1
sVd8owy0l
p681
I1
sVddc817t
p682
I1
sVdabvcjb
p683
I1
sVdfvkj0h
p684
I1
sVda90t7h
p685
I1
sVd4u7y1s
p686
I1
sVds6djg1
p687
I1
sVdrdh940
p688
I1
sVden8lit
p689
I2
sVd4xlq3s
p690
I1
sVd1v2hpd
p691
I2
sVd3xu8ib
p692
I1
sVdh7rq8r
p693
I1
sVdcukkzu
p694
I2
sVczmb5kr
p695
I1
sVdox7wuk
p696
I2
sVde50qqo
p697
I1
sVdgxvsvc
p698
I1
sVdqxryoe
p699
I1
sVdd21301
p700
I1
sVdi7u55s
p701
I1
sVdf17x2b
p702
I1
sVdchhwkm
p703
I1
sVczs3hzr
p704
I1
sVd1eqpyt
p705
I1
sVdazlndo
p706
I1
sVd1vuml0
p707
I2
sVdatz3n7
p708
I1
sVdhv9ie6
p709
I1
sVd5is68t
p710
I1
sVcyoaona
p711
I1
sVd4bact0
p712
I1
sVd5vooje
p713
I3
sVczmv2v1
p714
I1
sVdez3d9i
p715
I2
sVdhtrbd2
p716
I1
sVdew3thr
p717
I1
sVczbodh4
p718
I1
sVdhna25o
p719
I2
sVcz3kttr
p720
I1
sVd6kau0l
p721
I1
sVd65o8qz
p722
I1
sVdkkv67j
p723
I1
sVd0enqa1
p724
I1
sVdcl90oh
p725
I1
sVd5v4544
p726
I1
sVdhqrxbf
p727
I1
sVdfc59wn
p728
I1
sVd91f4s3
p729
I1
sVd7eg6z0
p730
I1
sVdo8hc2x
p731
I3
sVd9ed31y
p732
I1
sVd248gbj
p733
I1
sVdbguj8v
p734
I1
sVd23ynh7
p735
I1
sVd3b9n6v
p736
I1
sVcyijt8r
p737
I2
sVd1ciqso
p738
I1
sVd2v2wo3
p739
I1
sVdpsen4z
p740
I1
sVdhlq5ma
p741
I1
sVcyt79ol
p742
I1
sVdew1pc4
p743
I1
sVcyic2bb
p744
I1
sVdtfmtb6
p745
I1
sVd6hzzwg
p746
I1
sVdiq4hdu
p747
I1
sVd5znyll
p748
I1
sVcz57l28
p749
I1
sVd6l4a9j
p750
I1
sVd9nemz8
p751
I1
sVd8kx6y4
p752
I1
sVdb5cdy1
p753
I1
sVczkz1y5
p754
I1
sVd9cs2cu
p755
I1
sVd879th0
p756
I1
sVd9igsf5
p757
I1
sVdb3hgcx
p758
I1
sVd19uegb
p759
I1
sVdbjb3wv
p760
I1
sVd0ojru9
p761
I2
sVdil2o14
p762
I1
sVd0rf5f5
p763
I1
sVd3npdld
p764
I1
sVdh7s1mw
p765
I1
sVd06lqz1
p766
I1
sVdj5e6gl
p767
I1
sVdfoeo8l
p768
I1
sVd69l9dv
p769
I1
sVd31mnwf
p770
I1
sVdnwxu94
p771
I1
sVdfmp0kd
p772
I1
sVdjecl9p
p773
I1
sVd0ucvxv
p774
I1
sVd24rvfr
p775
I3
sVdgo45ii
p776
I1
sVdjhbna9
p777
I1
sVd8u4nbp
p778
I1
sVd69tri6
p779
I1
sVdanoyxl
p780
I2
sVd8shgtu
p781
I1
sVdeivdi1
p782
I1
sVd0g1jz9
p783
I1
sVdbwajhx
p784
I1
sVd1wb67n
p785
I1
sVd50p0cv
p786
I1
sVdftodkm
p787
I1
sVdaoz7nq
p788
I1
sVdhfpy8g
p789
I2
sVdifj6yc
p790
I1
sVdc25h3f
p791
I1
sVd8akq9y
p792
I1
sVdqbctus
p793
I1
sVdam8r9l
p794
I1
sVd6ficow
p795
I1
sVd0xzwip
p796
I2
sVdbpd6t2
p797
I1
sVdoiu72o
p798
I1
sVd3avut4
p799
I1
sVdg3yn02
p800
I1
sVd1si0cj
p801
I1
sVdqtutwx
p802
I1
sVcyv56yn
p803
I1
sVdkf692v
p804
I1
sVdsfcnox
p805
I1
sVden4hnx
p806
I2
sVdh5aal5
p807
I1
sVdo7a62z
p808
I1
sVd40r5e8
p809
I1
sVd56e3nb
p810
I1
sVdbzd4fu
p811
I1
sVd33wkj4
p812
I1
sVd1ukztd
p813
I1
sVdicu6qj
p814
I1
sVd2u120o
p815
I1
sVd2bc7u2
p816
I2
sVd6jmamd
p817
I1
sVdhyozsu
p818
I2
sVd2tawro
p819
I1
sVdqo6dyj
p820
I2
sVd088kx3
p821
I1
sVd6av42q
p822
I2
sVdilr33e
p823
I1
sVdag7f7m
p824
I1
sVcyzr0l6
p825
I1
sVdiyd55d
p826
I1
sVdo2lvd4
p827
I1
sVdi8bili
p828
I1
sVd1ha1st
p829
I1
sVd0un4ls
p830
I1
sVd73ms4k
p831
I1
sVdp9xlqj
p832
I1
sVdejetyd
p833
I1
sVdgp5hdw
p834
I1
sVdn4hgo4
p835
I2
sVdc0ju3k
p836
I1
sVda1c7zk
p837
I1
sVd7o2oeq
p838
I2
sVdkgz02z
p839
I1
sVd60937t
p840
I1
sVd1vcdkk
p841
I1
sVd1h9ol2
p842
I1
sVd3v8kud
p843
I1
sVdduv9g1
p844
I1
sVcywjls8
p845
I1
sVdnd9bmf
p846
I2
sVdbgyw1g
p847
I1
sVcynsale
p848
I1
sVdp32z1v
p849
I1
sVd1e8kp8
p850
I1
sVdqmng19
p851
I1
sVdiyu7wn
p852
I1
sVdq5mh9v
p853
I1
sVdk8tn1w
p854
I1
sVdbe9e4w
p855
I1
sVdeyaqxu
p856
I1
sVd1ksu0x
p857
I1
sVdjb622z
p858
I1
sVdb9y22j
p859
I1
sVd0l20ok
p860
I1
sVd8sabr3
p861
I1
sVd1otx9e
p862
I1
sVdmx1ok0
p863
I1
sVdbjl6rs
p864
I1
sVdbrnon5
p865
I1
sVd5e7ncd
p866
I2
sVd7bcvk2
p867
I1
sVd5ttbd7
p868
I1
sVd9qyc1d
p869
I2
sVdggv7a7
p870
I1
sVdspbqyu
p871
I1
sVdji0zie
p872
I1
sVd0brf31
p873
I1
sVdf1u896
p874
I1
sVd7cwqlb
p875
I1
sVdqznk2m
p876
I1
sVd2qf8ns
p877
I1
sVdim29om
p878
I1
sVd6dfpnf
p879
I1
sVdn11kvk
p880
I2
sVcyk2b8t
p881
I1
sVd8yty73
p882
I1
sVd0xvetz
p883
I1
sVd0kmdug
p884
I1
sVd0jaal9
p885
I1
sVdh46b3h
p886
I1
sVczps0r8
p887
I1
sVdinvhvb
p888
I1
sVd9zfaqq
p889
I1
sVdnae9il
p890
I1
sVdfxibp9
p891
I1
sVd213o88
p892
I1
sVd1wqzds
p893
I1
sVd23aj84
p894
I2
sVd9qe60u
p895
I1
sVd2vqee5
p896
I1
sVdi47qzj
p897
I1
sVdc61iek
p898
I1
sVdrrht54
p899
I1
sVdj3v58l
p900
I1
sVd1952bp
p901
I1
sVdoap4ga
p902
I1
sVd1aapyo
p903
I1
sVd2l8z84
p904
I1
sVdera0gr
p905
I1
sVd2heoe1
p906
I1
sVdhhqd1n
p907
I1
sVd503pzj
p908
I1
sVdkqu3sq
p909
I1
sVd65fzqk
p910
I1
sVcyxredd
p911
I1
sVdnwcq9c
p912
I1
sVdc1rbxx
p913
I1
sVdf1u5gz
p914
I1
sVd8tgvw6
p915
I1
sVd05ty3l
p916
I1
sVd8lkli4
p917
I1
sVdpt96qo
p918
I1
sVd5f2e5j
p919
I1
sVdtiwiac
p920
I1
sVddyl0bg
p921
I1
sVd19eehu
p922
I1
sVdajv3u3
p923
I1
sVd72t9he
p924
I2
sVd67rqej
p925
I1
sVd3mitja
p926
I1
sVdkmwi68
p927
I1
sVdpnv1he
p928
I1
sVczzd4zd
p929
I1
sVd3mdxxp
p930
I1
sVdaijsxf
p931
I1
sVd7fpx7n
p932
I1
sVdb55lih
p933
I1
sVdmm7s5j
p934
I1
sVd75t8kd
p935
I1
sVdb027u0
p936
I1
sVd3uhu68
p937
I1
sVd07t6ov
p938
I1
sVd4j77kd
p939
I1
sVdagcfxa
p940
I1
sVdegczb5
p941
I1
sVdihhui3
p942
I1
sVdhw6w0x
p943
I1
sVdh63dkk
p944
I1
sVd17t8bi
p945
I1
sVdhj0v2g
p946
I1
sVd0tze3y
p947
I1
sVd1r06mj
p948
I1
sVczve2qm
p949
I1
sVcysmm76
p950
I1
sVdb5dzzm
p951
I1
sVdavfsew
p952
I1
sVd2k1pvn
p953
I1
sVdghaniu
p954
I1
sVd2h97rh
p955
I1
sVdcxgkvt
p956
I1
sVde44bey
p957
I1
sVdaei6c1
p958
I1
sVddjzuh4
p959
I1
sVd3ug2gz
p960
I1
sVd43n6zz
p961
I1
sVd7mpc7l
p962
I1
sVczgsafy
p963
I1
sVd4l1gik
p964
I1
sVdeatbfk
p965
I1
sVd38armc
p966
I1
sVdd3d09f
p967
I1
sVdjiux5q
p968
I1
sVdf9b3qo
p969
I1
sVdgjshx2
p970
I1
sVcyzmjop
p971
I2
sVd5f1yme
p972
I1
sVdqebdd4
p973
I1
sVda5iso1
p974
I1
sVd8if9jh
p975
I1
sVd32dt3f
p976
I1
sVdcobeqh
p977
I1
sVczoaxtx
p978
I1
sVd7ks7dl
p979
I1
sVdg6b99o
p980
I2
sVd6tjldf
p981
I1
sVd0ekwnc
p982
I1
sVd55pukj
p983
I1
sVdhwkvkz
p984
I1
sVdkpdzzs
p985
I1
sVd9r247s
p986
I1
sVd5ozq21
p987
I1
sVde9fvwl
p988
I1
sVd8q19hs
p989
I1
sVdb13vzd
p990
I1
sVd5lxyat
p991
I1
sVdgayogm
p992
I1
sVd5987dx
p993
I1
sVcys5noc
p994
I1
sVdnugn2e
p995
I1
sVdikmdk1
p996
I1
sVds6dqf8
p997
I1
sVdoxdtoa
p998
I1
sVddsvxds
p999
I2
sVdo3zpt4
p1000
I1
sVd80nrep
p1001
I1
sVdkhsuji
p1002
I1
sVd2kvodr
p1003
I1
sVdb8ir4u
p1004
I1
sVd7yuh8b
p1005
I1
sVcz2nl3x
p1006
I1
sVddo8yn5
p1007
I1
sVd4xgd8i
p1008
I1
sVd9aa6f3
p1009
I1
sVd24wxjp
p1010
I1
sVdgb2092
p1011
I1
sVd2b0z3n
p1012
I1
sVdsf6va9
p1013
I1
sVdmz13w6
p1014
I1
sVd8lhhxd
p1015
I1
sVd1q10cr
p1016
I1
sVd5gr9ay
p1017
I1
sVdjgdyza
p1018
I1
sVdhgizk3
p1019
I1
sVdd3153g
p1020
I1
sVdeivpiz
p1021
I1
sVd2t4eho
p1022
I1
sVdd59ccn
p1023
I1
sVdel5x77
p1024
I1
sVd586nkb
p1025
I1
sVd9moce0
p1026
I2
sVd64pcyr
p1027
I1
sVdgpyrp1
p1028
I1
sVdon9sa8
p1029
I1
sVdcql1t2
p1030
I2
sVd3yeyt8
p1031
I1
sVdhvhcke
p1032
I1
sVd5gm164
p1033
I1
sVd92673v
p1034
I1
sVd1qv8t1
p1035
I1
sVdbtltht
p1036
I1
sVd5vrxi3
p1037
I1
sVd2gds7n
p1038
I1
sVdbgt82w
p1039
I2
sVd897bbh
p1040
I1
sVd1u4j42
p1041
I1
sVdst3tmk
p1042
I1
sVd76omgt
p1043
I1
sVdd204fn
p1044
I1
sVdj131dl
p1045
I1
sVd5wycge
p1046
I1
sVdb1amq1
p1047
I1
sVd2qj4m4
p1048
I2
sVdfat6ln
p1049
I1
sVd8g6bps
p1050
I1
sVdk7yua1
p1051
I1
sVd7h7pi9
p1052
I1
sVddieoyo
p1053
I1
sVddcmqlz
p1054
I2
sVdf99kej
p1055
I1
sVczw2ia6
p1056
I1
sVdpjldw1
p1057
I1
sVdexqnd1
p1058
I1
sVdbdqhph
p1059
I1
sVd0dg0tf
p1060
I2
sVczm96z5
p1061
I1
sVd7c6nz6
p1062
I2
sVd2plcl7
p1063
I1
sVd04odae
p1064
I1
sVdhj5gar
p1065
I1
sVd1r12mi
p1066
I1
sVdgqz9ao
p1067
I1
sVd5yrf8c
p1068
I1
sVczetzjs
p1069
I2
sVdh3p8sd
p1070
I1
sVdclkb88
p1071
I1
sVdc98yy0
p1072
I1
sVdq3zdkl
p1073
I1
sVd5ztbt5
p1074
I1
sVdc59yig
p1075
I2
sVdrgvsb9
p1076
I1
sVdimmgau
p1077
I2
sVdfr19b1
p1078
I1
sVdck5evg
p1079
I1
sVd1zbcnj
p1080
I1
sVd1txb9o
p1081
I1
sVdqb2iiq
p1082
I1
sVd6tspaj
p1083
I3
sVdip16mh
p1084
I1
sVdbfubuj
p1085
I1
sVdgzfcu0
p1086
I1
sVdaupnfr
p1087
I1
sVdcubjrh
p1088
I1
sVd0wap7m
p1089
I1
sVdpusthg
p1090
I1
sVd0nqotq
p1091
I1
sVdgc2qp3
p1092
I1
sVd3583jr
p1093
I1
sVd1hbq8d
p1094
I3
sVd3dn9mq
p1095
I1
sVcz9vijx
p1096
I1
sVdazfaos
p1097
I1
sVd2d3rf1
p1098
I1
sVd7j8y0g
p1099
I1
sVdisigbm
p1100
I1
sVdfebgos
p1101
I1
sVd08o2vl
p1102
I1
sVd6en15n
p1103
I1
sVdjojae8
p1104
I1
sVczhrfpm
p1105
I1
sVd4m4gjq
p1106
I1
sVd8uo48v
p1107
I1
sVdj3frus
p1108
I1
sVd7l86ad
p1109
I1
sVd0d2tv3
p1110
I2
sVdks2pqk
p1111
I1
sVd12fma7
p1112
I1
sVd3512ef
p1113
I1
sVcz8s300
p1114
I1
sVd912tbd
p1115
I1
sVd0nedn1
p1116
I1
sVd0evw1o
p1117
I1
sVdq1h6y0
p1118
I1
sVd0rslj7
p1119
I1
sVd0obnm9
p1120
I1
sVdmrx07j
p1121
I1
sVd86ru0f
p1122
I1
sVdk040y2
p1123
I1
sVd0wfpa2
p1124
I1
sVcytrp61
p1125
I1
sVdk32b6c
p1126
I1
sVd08wx2a
p1127
I1
sVd4v4kt4
p1128
I1
sVdbk8xxw
p1129
I1
sVd32ihvq
p1130
I1
sVdneukmm
p1131
I2
sVd8qihie
p1132
I1
sVd195wyn
p1133
I1
sVd581t4j
p1134
I2
sVd61o028
p1135
I1
sVcynunt0
p1136
I1
sVdmuel71
p1137
I2
sVddk57at
p1138
I1
sVdadev03
p1139
I1
sVdahkajx
p1140
I1
sVd16w7f5
p1141
I1
sVdd5bz88
p1142
I1
sVdsfemoa
p1143
I2
sVd1hzhnc
p1144
I1
sVddz0qif
p1145
I1
sVdige9ic
p1146
I1
sVddhag71
p1147
I1
sVd8geewg
p1148
I1
sVddgl8vx
p1149
I1
sVcylwu8x
p1150
I1
sVd7bi4o2
p1151
I1
sVddhgwj1
p1152
I1
sVd1f26ov
p1153
I1
sVd3fzb5p
p1154
I1
sVd8x0siu
p1155
I1
sVdk4p510
p1156
I1
sVd8y8zc4
p1157
I1
sVdfny28d
p1158
I1
sVd39fjc6
p1159
I1
sVd4gzg97
p1160
I1
sVd6uooar
p1161
I1
sVd3hyc1y
p1162
I1
sVds3r4sa
p1163
I1
sVd14r7go
p1164
I1
sVdehmf75
p1165
I1
sVdc7t3ll
p1166
I1
sVdehzmnn
p1167
I1
sVczpqsul
p1168
I1
sVd3380bi
p1169
I1
sVddba0xq
p1170
I1
sVczwr3wq
p1171
I2
sVdjr6f11
p1172
I1
sVdb4xmda
p1173
I1
sVdde15qg
p1174
I1
sVdeeqv5y
p1175
I2
sVczx6jti
p1176
I1
sVdetz3kp
p1177
I1
sVd1x4a54
p1178
I1
sVdhnuoo3
p1179
I1
sVd3ea91v
p1180
I1
sVdiqemqh
p1181
I2
sVdbfxgty
p1182
I1
sVd42v2db
p1183
I2
sVd4nt135
p1184
I1
sVdctx8ka
p1185
I1
sVdbncn1p
p1186
I1
sVdb24p38
p1187
I1
sVd97iask
p1188
I1
sVddscibm
p1189
I1
sVddwihf3
p1190
I1
sVd0v7xoa
p1191
I1
sVd2wy9ko
p1192
I1
sVd04bdy7
p1193
I1
sVd4rxoft
p1194
I1
sVd12yo14
p1195
I1
sVd0cknhy
p1196
I1
sVdct5fpr
p1197
I1
sVde9oqon
p1198
I1
sVd1qqipk
p1199
I1
sVd82km6n
p1200
I2
sVdgymn9w
p1201
I1
sVdimqdhm
p1202
I2
sVdghltwj
p1203
I1
sVd8wjmgm
p1204
I1
sVczgi8jx
p1205
I1
sVdggnfwa
p1206
I2
sVd7dk8wp
p1207
I2
sVdd1tera
p1208
I1
sVd2nefy5
p1209
I1
sVdgmz71y
p1210
I1
sVcz2un3c
p1211
I1
sVd40sro8
p1212
I2
sVd8zyzj9
p1213
I1
sVd4rkkm0
p1214
I1
sVd8xvr85
p1215
I1
sVd21s2t8
p1216
I1
sVdc2bazt
p1217
I1
sVd01a451
p1218
I1
sVd0n3ged
p1219
I1
sVd1yt4ba
p1220
I1
sVdatr6uk
p1221
I2
sVdgqxpua
p1222
I1
sVd65ctfe
p1223
I1
sVdrbz99p
p1224
I1
sVdeiok6c
p1225
I1
sVd27asna
p1226
I1
sVds9r4kh
p1227
I1
sVd4hnrjk
p1228
I1
sVddik637
p1229
I1
sVd3sk70m
p1230
I1
sVdrvnvy4
p1231
I2
sVdggjj9k
p1232
I2
sVd2qgf16
p1233
I1
sVd9d5pse
p1234
I1
sVdr31nyd
p1235
I1
sVdddadiu
p1236
I1
sVdcvxmuy
p1237
I1
sVd2lwlw3
p1238
I1
sVdbc8842
p1239
I1
sVd247n90
p1240
I1
sVdhcnv6d
p1241
I1
sVd6w3fff
p1242
I1
sVd3da78h
p1243
I1
sVdb6mpyn
p1244
I1
sVdn72cr4
p1245
I1
sVdglhr0j
p1246
I1
sVd0h48b2
p1247
I1
sVdajnyi8
p1248
I1
sVd7xupbw
p1249
I1
sVdi16w3i
p1250
I2
sVd8mv728
p1251
I1
sVdexr9ec
p1252
I1
sVdetiuut
p1253
I3
sVdosrk5f
p1254
I2
sVd07ot4c
p1255
I1
sVcz3ovqj
p1256
I1
sVd04lxy8
p1257
I2
sVdqx8u9m
p1258
I1
sVd773djf
p1259
I1
sVd5tzi5n
p1260
I1
sVddq727f
p1261
I1
sVdc7dva9
p1262
I1
sVd5x1urx
p1263
I2
sVd9t0fms
p1264
I1
sVdgc9qwz
p1265
I1
sVdrbyqgr
p1266
I2
sVd6dks7x
p1267
I1
sVd09cl6m
p1268
I1
sVdhy7bf6
p1269
I1
sVdk36m0t
p1270
I1
sVdhqx51k
p1271
I1
sVdfnmch6
p1272
I1
sVd6snd33
p1273
I1
sVdqe207n
p1274
I1
sVdobjf9q
p1275
I1
sVd6ldxhr
p1276
I1
sVd0zb9au
p1277
I1
sVdp2yd9p
p1278
I2
sVde7b7kr
p1279
I1
sVd07zuhy
p1280
I1
sVcysp4gu
p1281
I1
sVd3r4r13
p1282
I1
sVdmw539z
p1283
I1
sVd8mexau
p1284
I2
sVdkj0wse
p1285
I1
sVdd90wdk
p1286
I1
sVdawj1ym
p1287
I2
sVdpvwcwp
p1288
I1
sVczku12b
p1289
I2
sVd3erm67
p1290
I2
sVcztltu7
p1291
I1
sVdf8k2kw
p1292
I1
sVdn5sl4w
p1293
I1
sVdgsas5u
p1294
I1
sVdb4uoe6
p1295
I1
sVd3w4is8
p1296
I1
sVd2j6rmu
p1297
I1
sVd0agsvq
p1298
I1
sVcza25j2
p1299
I1
sVdgyp0ln
p1300
I1
sVdfzziwb
p1301
I1
sVdrx9x0x
p1302
I1
sVdcwuhjm
p1303
I1
sVda5xquf
p1304
I1
sVd112qy7
p1305
I1
sVdb3u1qf
p1306
I1
sVdhlx5dp
p1307
I1
sVd24vjl2
p1308
I2
sVd6whe8k
p1309
I1
sVdsn209b
p1310
I1
sVd6qm6h7
p1311
I1
sVd868ae3
p1312
I1
sVd4jomcf
p1313
I1
sVd6jyycw
p1314
I1
sVd01k7lt
p1315
I1
sVczpnyn6
p1316
I2
sVd8q5y0v
p1317
I1
sVdeg2ncn
p1318
I1
sVd1nkg62
p1319
I1
sVd00ud8r
p1320
I1
sVdclmtg7
p1321
I1
sVd74f6ko
p1322
I1
sVddn921n
p1323
I1
sVd7x2c75
p1324
I1
sVdf6drcg
p1325
I1
sVczqfept
p1326
I1
sVdafr5d3
p1327
I2
sVdgkeq2f
p1328
I1
sVd9jo5cx
p1329
I1
sVdeh5a3o
p1330
I1
sVd06p8g6
p1331
I1
sVd9z950g
p1332
I1
sVdiqhdsc
p1333
I1
sVd3rz2ly
p1334
I1
sVdqu2ari
p1335
I1
sVdfl6xlc
p1336
I1
sVd4bprw1
p1337
I1
sVd71ug0c
p1338
I1
sVda8ptam
p1339
I1
sVd2chrbq
p1340
I1
sVcz6o25m
p1341
I1
sVd4y21yx
p1342
I1
sVdqgkuqg
p1343
I1
sVdo9r2pv
p1344
I1
sVd6w9i5i
p1345
I1
sVdd1tphc
p1346
I1
sVd3v54ww
p1347
I1
sVd0cacqm
p1348
I1
sVdka1ir0
p1349
I1
sVdcse0bk
p1350
I1
sVddsxsz5
p1351
I1
sVdexho62
p1352
I1
sVde13l9d
p1353
I2
sVdduqrz4
p1354
I1
sVd9dcok7
p1355
I1
sVd46kqpm
p1356
I1
sVdb3kgy1
p1357
I1
sVd54gmcj
p1358
I1
sVd5slqo8
p1359
I1
sVd4ql6nk
p1360
I1
sVdeppvus
p1361
I1
sVd7z9hjs
p1362
I1
sVd16he8d
p1363
I1
sVd6sq2rq
p1364
I1
sVdp9b85q
p1365
I1
sVd8f9amo
p1366
I1
sVczinm5s
p1367
I1
sVczfgh43
p1368
I1
sVd2ckwv3
p1369
I1
sVdf3kcha
p1370
I1
sVdbn0uam
p1371
I1
sVd8hde0o
p1372
I1
sVd9ksirs
p1373
I1
sVdiu3fh9
p1374
I1
sVd1hdz7y
p1375
I1
sVcyiidqq
p1376
I1
sVdhkaly8
p1377
I1
sVda0z2wp
p1378
I1
sVcz1k4ex
p1379
I1
sVdorsq8h
p1380
I1
sVd8g1e7r
p1381
I1
sVdoencjn
p1382
I1
sVd1emmp4
p1383
I1
sVdmm7uzz
p1384
I1
sVdebzq47
p1385
I1
sVd0yuwd5
p1386
I2
sVdgtp68k
p1387
I1
sVdmu4829
p1388
I1
sVd0ol5o7
p1389
I1
sVd29v9sv
p1390
I1
sVddhqduu
p1391
I1
sVdedmrv9
p1392
I2
sVdk3nz7c
p1393
I1
sVd6f8z3h
p1394
I1
sVd8gokes
p1395
I1
sVdedd7ik
p1396
I1
sVd8vwhek
p1397
I1
sVd562vqr
p1398
I1
sVczlt17n
p1399
I1
sVd15nxia
p1400
I1
sVd0d5x4j
p1401
I1
sVde9wcnb
p1402
I1
sVd8e0eix
p1403
I1
sVcz0jjyp
p1404
I1
sVcypct2j
p1405
I1
sVdoxnmxf
p1406
I1
sVcyl7pie
p1407
I1
sVd1zaurw
p1408
I1
sVd9t419x
p1409
I1
sVdftfxkw
p1410
I1
sVd3jkwrd
p1411
I1
sVdo7w9na
p1412
I2
sVd4qsvtb
p1413
I1
sVddnbuwo
p1414
I1
sVcywo515
p1415
I1
sVd1hju4x
p1416
I1
sVd38rjdk
p1417
I1
sVdhp69ha
p1418
I1
sVd0gun07
p1419
I1
sVd74aiq4
p1420
I1
sVdaia97f
p1421
I1
sVdira28b
p1422
I1
sVdd461nx
p1423
I1
sVdft5161
p1424
I1
sVdpc0ozq
p1425
I1
sVdetbcyv
p1426
I1
sVddo27si
p1427
I1
sVd0waxeb
p1428
I1
sVdj2rnvz
p1429
I1
sVdihr7d3
p1430
I1
sVd9vg28d
p1431
I3
sVdcbtljj
p1432
I1
sVd9pcxqc
p1433
I1
sVdbt1efm
p1434
I1
sVdcmnf6d
p1435
I1
sVdinqr3g
p1436
I1
sVd9kdbcg
p1437
I1
sVcz6rxl6
p1438
I1
sVdgnvt91
p1439
I1
sVdepk48a
p1440
I1
sVd9406cx
p1441
I1
sVd3kk1zv
p1442
I1
sVdrqld4n
p1443
I1
sVczh2hvb
p1444
I1
sVdkzls4p
p1445
I1
sVdk7p9wv
p1446
I1
sVdqw4o86
p1447
I1
sVd4pn2qq
p1448
I1
sVd04gldl
p1449
I1
sVd07pe1q
p1450
I1
sVdjsjga0
p1451
I1
sVd7nk2tg
p1452
I1
sVd035p3e
p1453
I1
sVdpbp92a
p1454
I1
sVd2r3pxv
p1455
I1
sVcz64otw
p1456
I1
sVdp1d9ta
p1457
I1
sVdb6ki1y
p1458
I2
sVd7bxcyw
p1459
I1
sVdnaxpbq
p1460
I4
sVdmxw87y
p1461
I1
sVdioiitw
p1462
I1
sVd54e5l5
p1463
I1
sVdav8d37
p1464
I1
sVd2gt5h6
p1465
I1
sVdh39sih
p1466
I1
sVdmv4rj6
p1467
I1
sVd0weq6p
p1468
I1
sVdck3rdo
p1469
I1
sVdb6u459
p1470
I1
sVd42vk6u
p1471
I1
sVd3wibb2
p1472
I1
sVdfxiy1t
p1473
I1
sVddrqfcr
p1474
I1
sVd04axkw
p1475
I1
sVdpvcgxg
p1476
I1
sVdbu1p86
p1477
I1
sVdrukjf4
p1478
I1
sVdoylz0s
p1479
I1
sVd04gues
p1480
I2
sVdnabg0z
p1481
I2
sVdka9k78
p1482
I1
sVd2qdx3d
p1483
I1
sVdha43ud
p1484
I1
sVdbs7soj
p1485
I1
sVdtbqjky
p1486
I1
sVd4veaa9
p1487
I1
sVdmlz2p4
p1488
I1
sVdihc65q
p1489
I2
sVcyln1jr
p1490
I1
sVdbmw0xz
p1491
I1
sVdmx6aqv
p1492
I1
sVd4ii1sj
p1493
I1
sVdk4p4lb
p1494
I1
sVd6k30bw
p1495
I1
sVdhutrqo
p1496
I1
sVdgknxv7
p1497
I1
sVd8469qa
p1498
I1
sVdq2gpor
p1499
I1
sVddpkq3d
p1500
I1
sVdp3yf44
p1501
I1
sVdhwjyrh
p1502
I1
sVdhsy87o
p1503
I1
sVdh8k04x
p1504
I1
sVd1ec08s
p1505
I1
sVczi76se
p1506
I2
sVdber6q8
p1507
I1
sVdi2hogg
p1508
I1
sVd2twxzv
p1509
I1
sVdpf5ibn
p1510
I1
sVdggy8vc
p1511
I1
sVdj1muqd
p1512
I1
sVd6rlhje
p1513
I1
sVdcugceu
p1514
I1
sVd0wgua3
p1515
I1
sVcyn615x
p1516
I1
sVd5xp8rr
p1517
I1
sVde6ffkl
p1518
I1
sVdj9p149
p1519
I1
sVd1o2voe
p1520
I1
sVdf62n1d
p1521
I1
sVd19r1jo
p1522
I1
sVddog6ia
p1523
I1
sVcz2jv2l
p1524
I4
sVd15wso6
p1525
I1
sVdikqcyf
p1526
I1
sVczvhe5w
p1527
I1
sVd89h4up
p1528
I1
sVdckm9ou
p1529
I1
sVdnhe2mk
p1530
I1
sVcz1z2lj
p1531
I1
sVdskq0lc
p1532
I1
sVd67dylh
p1533
I1
sVcznr6yg
p1534
I1
sVdqp5ljo
p1535
I1
sVdcvebzc
p1536
I1
sVdgth923
p1537
I2
sVczuywso
p1538
I2
sVdg8ycl6
p1539
I1
sVczec7th
p1540
I1
sVcz4epxc
p1541
I1
sVd6tgrqr
p1542
I1
sVd4qc3uw
p1543
I1
sVdc7nri7
p1544
I1
sVd04zkvb
p1545
I1
sVcyhx7k2
p1546
I1
sVd5p5k4l
p1547
I1
sVd1nltik
p1548
I1
sVdao9k4p
p1549
I2
sVczc16cu
p1550
I1
sVd9zb9yp
p1551
I1
sVdgw8xow
p1552
I1
sVdfovwgs
p1553
I1
sVd3qk61z
p1554
I1
sVdabjdtx
p1555
I1
sVd5qll5g
p1556
I1
sVd715s56
p1557
I1
sVdhng6ak
p1558
I2
sVdggqnlm
p1559
I1
sVdeqcwt3
p1560
I1
sVddv0ljo
p1561
I1
sVdaik5ws
p1562
I1
sVdha8un5
p1563
I1
sVd17anf5
p1564
I1
sVd33tykr
p1565
I1
sVdddunfr
p1566
I1
sVdgdvcmh
p1567
I1
sVd9k0bw0
p1568
I1
sVd9cvpdl
p1569
I1
sVdi6fo0c
p1570
I1
sVdd5xw9m
p1571
I1
sVd1gk3ij
p1572
I2
sVd4ohlvs
p1573
I1
sVd6ai7a4
p1574
I1
sVdf1ybd9
p1575
I1
sVdcf5o2j
p1576
I1
sVd9l1amd
p1577
I1
sVdfwyh6f
p1578
I1
sVd17rytf
p1579
I1
sVd895sce
p1580
I1
sVd0hzeem
p1581
I1
sVd3b2mtu
p1582
I1
sVdaisvi2
p1583
I1
sVczvj7qr
p1584
I1
sVd2mt6bs
p1585
I1
sVd3r8jru
p1586
I1
sVd78rs9r
p1587
I1
sVde9yq0l
p1588
I1
sVd5r3tmt
p1589
I3
sVcyup45w
p1590
I2
sVdmy7qo9
p1591
I1
sVd1gr843
p1592
I1
sVdcqttfv
p1593
I1
sVdcw7jyh
p1594
I1
sVd2tv55f
p1595
I1
sVdc4b75r
p1596
I1
sVdjjn53t
p1597
I2
sVdca5yc9
p1598
I1
sVdfzb7i7
p1599
I2
sVcylnrne
p1600
I1
sVdoxsuls
p1601
I1
sVczfrbem
p1602
I1
sVcyz4s3m
p1603
I1
sVdd0b04z
p1604
I1
sVd7wjbzn
p1605
I1
sVde47rwu
p1606
I1
sVd960wvd
p1607
I1
sVdel9iix
p1608
I1
sVdt858bw
p1609
I2
sVd0cg1y2
p1610
I1
sVdfvg7qh
p1611
I1
sVdag04t7
p1612
I1
sVdkmmpjg
p1613
I2
sVd0tc4l1
p1614
I1
sVdnva6r8
p1615
I1
sVdnkjl1p
p1616
I1
sVde71gmd
p1617
I1
sVd13olfr
p1618
I1
sVd5dpmb2
p1619
I1
sVdf6ymdi
p1620
I1
sVdfkkkr7
p1621
I1
sVd7ra2ch
p1622
I1
sVdj0jbzk
p1623
I1
sVdgq7o0a
p1624
I1
sVd9i5twa
p1625
I1
sVdrcppc8
p1626
I1
sVd0h9l05
p1627
I1
sVdsyr4hc
p1628
I1
sVd2pxngz
p1629
I1
sVcys55td
p1630
I1
sVcyozti0
p1631
I1
sVd7yedfp
p1632
I1
sVd57bwzd
p1633
I1
sVdh2imux
p1634
I1
sVd04egvc
p1635
I1
sVd17utlo
p1636
I2
sVd3lftdz
p1637
I1
sVd3eoxgs
p1638
I1
sVdg2wz2o
p1639
I1
sVdc6l18n
p1640
I1
sVdi170gy
p1641
I3
sVdk42azy
p1642
I1
sVdmgrcb3
p1643
I1
sVdkdslp8
p1644
I1
sVdtgqksl
p1645
I1
sVdgy6w4a
p1646
I1
sVd8ovdp6
p1647
I1
sVdk4z1iv
p1648
I1
sVd9y3az5
p1649
I1
sVd9p5amb
p1650
I1
sVd4vkyun
p1651
I2
sVd4apeai
p1652
I1
sVd0z5wbt
p1653
I1
sVd2b416a
p1654
I1
sVd7a1p9i
p1655
I1
sVdnel78j
p1656
I1
sVd3fkquo
p1657
I1
sVdguf4os
p1658
I1
sVd0r6ui3
p1659
I1
sVd6rn4ue
p1660
I1
sVd9o73pu
p1661
I1
sVdjie6lg
p1662
I1
sVddkqyo4
p1663
I1
sVczt323t
p1664
I1
sVcyrjzse
p1665
I1
sVdephl6d
p1666
I1
sVd1vjxs5
p1667
I1
sVd65jhlo
p1668
I1
sVdbq5mhy
p1669
I1
sVd1jllgv
p1670
I1
sVd2ykz8g
p1671
I1
sVcyze5q5
p1672
I1
sVdn3xdun
p1673
I1
sVdczchxm
p1674
I1
sVdbeqy8s
p1675
I1
sVdp3xazi
p1676
I1
sVczbitld
p1677
I1
sVdcxuya6
p1678
I1
sVdnumbmc
p1679
I1
sVd8qenu0
p1680
I2
sVdjbp5p9
p1681
I1
sVdiyp5uk
p1682
I1
sVdi6d4d2
p1683
I1
sVcyhvg8p
p1684
I1
sVdn0w7w3
p1685
I2
sVd91hqbs
p1686
I1
sVd3wk004
p1687
I1
sVd68sjy6
p1688
I1
sVd19rkz6
p1689
I1
sVd3e2p00
p1690
I1
sVdr74ic4
p1691
I1
sVdewfh68
p1692
I1
sVdr1wfdg
p1693
I1
sVd94yx1v
p1694
I1
sVd7t8cix
p1695
I1
sVd5kl8gn
p1696
I2
sVd87w80o
p1697
I1
sVd1scoi9
p1698
I1
sVd55ka1g
p1699
I1
sVdn3unxv
p1700
I1
sVd5573go
p1701
I1
sVdebdz9o
p1702
I1
sVdcj35y8
p1703
I1
sVd2tmzw6
p1704
I1
sVdjdgsuo
p1705
I1
sVd36v3cf
p1706
I1
sVdd7v3aq
p1707
I1
sVczc4ydo
p1708
I1
sVd6bip16
p1709
I1
sVd1qz5ys
p1710
I1
sVdaygpib
p1711
I1
sVd6komzb
p1712
I3
sVd3blo2a
p1713
I1
sVds1cmte
p1714
I2
sVdcr9ily
p1715
I1
sVdffvt2v
p1716
I1
sVdkrqisx
p1717
I1
sVdd76tpf
p1718
I1
sVcyx3zco
p1719
I1
sVdak02eu
p1720
I2
sVdevc8ar
p1721
I1
sVcyretg2
p1722
I1
sVdsbjbfb
p1723
I1
sVd5urkqx
p1724
I1
sVds5amqb
p1725
I1
sVdewe1iw
p1726
I1
sVdehroyn
p1727
I1
sVdbekap4
p1728
I1
sVd7zzat8
p1729
I1
sVd7rots0
p1730
I1
sVd35b6h2
p1731
I1
sVd12d6qc
p1732
I1
sVd0jd0g5
p1733
I1
sVd2wdoci
p1734
I1
sVczup4v2
p1735
I1
sVd3uefik
p1736
I1
sVdp52u46
p1737
I1
sVd3i1u17
p1738
I1
sVd4g2916
p1739
I1
sVd63a262
p1740
I1
sVd2q25yz
p1741
I1
sVdoq5g5c
p1742
I1
sVd5y2f4t
p1743
I1
sVdboyarx
p1744
I1
sVcyj6gxj
p1745
I1
sVdgzkoar
p1746
I1
sVdcbvn0t
p1747
I1
sVd5pps8j
p1748
I2
sVd01i9a0
p1749
I1
sVd7patt9
p1750
I1
sVde2umty
p1751
I1
sVdq3xq6k
p1752
I1
sVd05nfss
p1753
I1
sVdcz9gp9
p1754
I1
sVdijg1w2
p1755
I1
sVdmnab9u
p1756
I1
sVd17i6jn
p1757
I1
sVdsnss85
p1758
I1
sVdb0diw9
p1759
I1
sVdf3pa1e
p1760
I1
sVdk3g53s
p1761
I1
sVdaw57h3
p1762
I1
sVd12euuc
p1763
I1
sVdagfc4k
p1764
I1
sVd55ugjd
p1765
I1
sVdfp0heb
p1766
I1
sVdf2055l
p1767
I1
sVdkcy2b9
p1768
I1
sVdfwmrxz
p1769
I1
sVdj4cdrc
p1770
I1
sVd8cjcm2
p1771
I1
sVd9kgzqx
p1772
I1
sVdaub4gm
p1773
I1
sVd0t2gbx
p1774
I1
sVdspijno
p1775
I1
sVd1eud35
p1776
I1
sVdk9mxds
p1777
I1
sVdb5gh4m
p1778
I1
sVd7o0de4
p1779
I1
sVdbzb3wz
p1780
I1
sVd2iyq81
p1781
I2
sVcypjpe3
p1782
I1
sVd4i3bx6
p1783
I1
sVdomzlfi
p1784
I1
sVdrhzo87
p1785
I1
sVdgxq6yp
p1786
I1
sVd2k2qvb
p1787
I1
sVczb1p7u
p1788
I1
sVddumlth
p1789
I1
sVd5fqndl
p1790
I1
sVdjovla6
p1791
I1
sVdhhxnhl
p1792
I1
sVd7vwgt0
p1793
I1
sVd1hc8xn
p1794
I1
sVdi919gp
p1795
I1
sVcyp4yn1
p1796
I1
sVd31wtkt
p1797
I1
sVcys8rtz
p1798
I1
sVd50o64n
p1799
I1
sVczez7s1
p1800
I1
sVde0r6u0
p1801
I1
sVd40qpnf
p1802
I1
sVd5vw5ke
p1803
I1
sVd0pvwsp
p1804
I1
sVd0erovq
p1805
I1
sVdbibi3g
p1806
I1
sVd166qy5
p1807
I1
sVdoqxwnr
p1808
I1
sVd903p1o
p1809
I1
sVdbyi1bc
p1810
I1
sVd0tf3vr
p1811
I1
sVdcntrh9
p1812
I1
sVd4rx6xf
p1813
I1
sVdp6di69
p1814
I1
sVdmxqcbu
p1815
I1
sVdawo3we
p1816
I1
sVd6u38jm
p1817
I1
sVd0iablx
p1818
I1
sVda8hi5x
p1819
I1
sVdce7406
p1820
I1
sVd3toqbj
p1821
I1
sVczgvqpi
p1822
I1
sVdkcuqvu
p1823
I1
sVd372kgq
p1824
I1
sVd06afjw
p1825
I1
sVdpxrpj9
p1826
I1
sVdn1q57h
p1827
I2
sVdbocitr
p1828
I1
sVdgs1km5
p1829
I1
sVd66coq9
p1830
I1
sVdc88kpi
p1831
I1
sVczb1mep
p1832
I1
sVd4cesnl
p1833
I1
sVd055ni4
p1834
I1
sVdh35utd
p1835
I1
sVd52x7z3
p1836
I1
sVd1dymij
p1837
I2
sVd15haus
p1838
I1
sVdai99h6
p1839
I1
sVd7w1tc1
p1840
I1
sVdh0fvln
p1841
I1
sVd9xmljm
p1842
I1
sVd8gzaq7
p1843
I2
sVczlcldw
p1844
I2
sVdjpw33p
p1845
I1
sVddx9f9j
p1846
I1
sVd5d8hk5
p1847
I1
sVd6zz6iq
p1848
I1
sVd2t3byz
p1849
I1
sVd0rd37w
p1850
I1
sVdhk4faw
p1851
I1
sVderlki0
p1852
I1
sVd09l1fz
p1853
I1
sVd27w3hf
p1854
I1
sVdmkb0ci
p1855
I1
sVdmeu1hv
p1856
I1
sVdg8fytw
p1857
I1
sVd2bcurj
p1858
I1
sVdrfxktd
p1859
I1
sVdjhnr9z
p1860
I1
sVdds5zp3
p1861
I1
sVd926wa4
p1862
I2
sVdsq3sqk
p1863
I1
sVdiuobtu
p1864
I1
sVdsaxqya
p1865
I2
sVd0c9gkk
p1866
I1
sVd9piv5m
p1867
I1
sVcz5azlc
p1868
I1
sVcyo1dxq
p1869
I1
sVdgcdf5g
p1870
I1
sVczcioyb
p1871
I1
sVdg2qffs
p1872
I1
sVdbsafuu
p1873
I1
sVdalm28o
p1874
I1
sVd3ghng9
p1875
I1
sVdhxbxx7
p1876
I1
sVczf1s65
p1877
I1
sVdsjcb2m
p1878
I1
sVdpitwg2
p1879
I1
sVdbjs87u
p1880
I1
sVczvid36
p1881
I1
sVddfbxg7
p1882
I1
sVd07snk1
p1883
I1
sVczzs7tc
p1884
I1
sVdo4d1yx
p1885
I1
sVd69e0uv
p1886
I1
sVdg4fc9a
p1887
I2
sVd7le4f7
p1888
I3
sVdbh61fh
p1889
I1
sVddai80b
p1890
I1
sVdc5p09r
p1891
I1
sVd2t3zyq
p1892
I1
sVdd7yd7f
p1893
I1
sVdb0d0vy
p1894
I1
sVd23lxan
p1895
I1
sVd95ljj1
p1896
I1
sVdab8m1n
p1897
I1
sVd53uch5
p1898
I1
sVd0a12nz
p1899
I1
sVdcvtn1a
p1900
I1
sVczu7mbi
p1901
I1
sVdd6t358
p1902
I1
sVcytqihf
p1903
I1
sVdau58j8
p1904
I2
sVdoa3z04
p1905
I1
sVd87d98u
p1906
I1
sVd7njzko
p1907
I2
sVder4nkm
p1908
I2
sVdc1f9kt
p1909
I1
sVd4lxzvj
p1910
I1
sVdfwgb0r
p1911
I1
sVdg7xt3u
p1912
I1
sVd9a1om4
p1913
I1
sVdaolign
p1914
I1
sVdab7tju
p1915
I2
sVcypyhkh
p1916
I1
sVdrpt3dd
p1917
I1
sVdftgtoz
p1918
I1
sVd4i3s2z
p1919
I1
sVd2kn6i4
p1920
I1
sVd3fmgpl
p1921
I1
sVcz4t8ts
p1922
I1
sVd70mwrz
p1923
I1
sVd3o4vaw
p1924
I1
sVdhufbxv
p1925
I1
sVdhei4yb
p1926
I1
sVdh84rxo
p1927
I1
sVd1g57ku
p1928
I1
sVdg94jyg
p1929
I1
sVd8d4uuz
p1930
I1
sVd1pczqm
p1931
I1
sVdfu9tza
p1932
I1
sVd1d7vxx
p1933
I1
sVdpl5026
p1934
I1
sVdh7n7ig
p1935
I1
sVdawx8gt
p1936
I1
sVdf6q3g3
p1937
I1
sVddw1p86
p1938
I1
sVdksa7k5
p1939
I2
sVd9mvete
p1940
I1
sVd68k8fk
p1941
I1
sVdaaogaj
p1942
I1
sVd4en5i8
p1943
I1
sVd27ewp9
p1944
I1
sVd06ao1b
p1945
I1
sVcza5w2j
p1946
I1
sVdf6mj32
p1947
I1
sVd0h3oo9
p1948
I1
sVdch9zfx
p1949
I1
sVd24a8dj
p1950
I1
sVdmg2cda
p1951
I1
sVd2bf1w0
p1952
I1
sVdgxsgvy
p1953
I1
sVdefibdo
p1954
I1
sVdd4iv1l
p1955
I1
sVd874nxh
p1956
I1
sVd2hn3wx
p1957
I1
sVczbmbeb
p1958
I1
sVdoz53xs
p1959
I1
sVdd263bx
p1960
I2
sVdjhn26p
p1961
I1
sVd5j38dk
p1962
I1
sVcziowq3
p1963
I1
sVcz0zbfr
p1964
I1
sVd4w6e43
p1965
I1
sVd6jlfgg
p1966
I1
sVd9f4hbq
p1967
I1
sVd8op7p8
p1968
I1
sVdt7g4a5
p1969
I1
sVd5g4jq2
p1970
I1
sVdq7ycyx
p1971
I1
sVczg5nw3
p1972
I3
sVdgv76hb
p1973
I1
sVdhopyzv
p1974
I1
sVd03ru98
p1975
I1
sVd1yvu7n
p1976
I2
sVdjsbuyn
p1977
I1
sVdkxkbpx
p1978
I1
sVd1gd04m
p1979
I1
sVdhqv180
p1980
I1
sVczn7p77
p1981
I1
sVdn0byu4
p1982
I2
sVdfwqiuv
p1983
I1
sVdb641ct
p1984
I2
sVczu5otc
p1985
I1
sVdbpltgw
p1986
I1
sVd9k0dei
p1987
I1
sVdeb9bip
p1988
I1
sVd19kfxk
p1989
I1
sVd09j432
p1990
I1
sVd9gpn7d
p1991
I1
sVd3tn5ga
p1992
I1
sVdfw2hnl
p1993
I1
sVdjjbmj3
p1994
I1
sVde42diq
p1995
I1
sVd100nwi
p1996
I1
sVd0j985f
p1997
I1
sVd7t6gs6
p1998
I1
sVd1w88pr
p1999
I2
sVdb5fabg
p2000
I1
sVdjcbnzw
p2001
I1
sVdi7cgj7
p2002
I2
sVdmiqv8e
p2003
I1
sVdfnhngw
p2004
I1
sVdd5c385
p2005
I1
sVd0vpnd8
p2006
I1
sVdg4liw3
p2007
I1
sVczomu78
p2008
I1
sVdc9xs21
p2009
I1
sVd3wwxo2
p2010
I1
sVd9pdo1h
p2011
I1
sVdhr4bb5
p2012
I1
sVdpyv3vu
p2013
I1
sVd4fm28l
p2014
I1
sVd4elfw3
p2015
I1
sVd298lvh
p2016
I1
sVdb569v2
p2017
I1
sVdcxjt40
p2018
I1
sVdjzcp2j
p2019
I1
sVdk2zz5a
p2020
I1
sVd3zmrdn
p2021
I2
sVdbhfp4s
p2022
I1
sVd31o2r2
p2023
I2
sVdr22ilf
p2024
I1
sVd5ryw1l
p2025
I1
sVdajz257
p2026
I2
sVdkx3ij8
p2027
I1
sVd933ttp
p2028
I1
sVd4rv81o
p2029
I1
sVdffdgnv
p2030
I1
sVdpw7h2m
p2031
I1
sVd9bqg1j
p2032
I1
sVdb0p4y6
p2033
I1
sVd6ik7x3
p2034
I1
sVcylqpc7
p2035
I1
sVd9fmw7d
p2036
I1
sVdr7btcd
p2037
I1
sVd2uqtzf
p2038
I1
sVdtihg00
p2039
I1
sVd2w8xig
p2040
I1
sVdj30gk7
p2041
I2
sVd8i6itt
p2042
I1
sVd3i1ouw
p2043
I1
sVd2qq7zs
p2044
I1
sVdo7ukkt
p2045
I1
sVcyqlyug
p2046
I1
sVd23hdr4
p2047
I1
sVdn6u51g
p2048
I1
sVdj2yi75
p2049
I1
sVdpn7aty
p2050
I2
sVd0e3ith
p2051
I1
sVdnnkzys
p2052
I3
sVdfr3t53
p2053
I1
sVdcf3qag
p2054
I1
sVdjpr3td
p2055
I1
sVdju0pab
p2056
I1
sVdibuagk
p2057
I1
sVdql16z4
p2058
I1
sVd3ue2ml
p2059
I1
sVd0uwexp
p2060
I1
sVd0edthy
p2061
I1
sVczch2tk
p2062
I1
sVdbyaic5
p2063
I1
sVdn8h76n
p2064
I1
sVd50is8k
p2065
I2
sVdiziz9l
p2066
I1
sVd68oe4j
p2067
I1
sVdkvvotl
p2068
I1
sVdf8vzeq
p2069
I2
sVd8fn5yz
p2070
I1
sVd3m2nob
p2071
I1
sVd7e5s8f
p2072
I1
sVd478791
p2073
I1
sVczgxsta
p2074
I1
sVdhay75y
p2075
I2
sVd59z5va
p2076
I1
sVd6he24c
p2077
I1
sVdp0zrud
p2078
I1
sVdauksxv
p2079
I1
sVd21o7gx
p2080
I1
sVcyxb0rn
p2081
I1
sVd9ngeox
p2082
I1
sVdje7spn
p2083
I2
sVdf155vr
p2084
I1
sVd7q7jdk
p2085
I1
sVdcjhjqm
p2086
I2
sVdfbvov9
p2087
I1
sVddfuawc
p2088
I1
sVdi3yer6
p2089
I1
sVddnxkp9
p2090
I1
sVdkupstv
p2091
I1
sVd4hg9t1
p2092
I1
sVdmze1va
p2093
I1
sVdmuv9js
p2094
I1
sVd0vy642
p2095
I1
sVd21yjgc
p2096
I1
sVdi848jn
p2097
I1
sVd5pgeq8
p2098
I2
sVdgi14mp
p2099
I1
sVcyvm3op
p2100
I1
sVdkkscud
p2101
I1
sVdj97cl0
p2102
I1
sVdj44e29
p2103
I1
sVdo596uh
p2104
I1
sVdffhx6c
p2105
I1
sVd4au4jh
p2106
I1
sVd727lmk
p2107
I1
sVd9mzucu
p2108
I1
sVdbab97y
p2109
I2
sVczu5d86
p2110
I1
sVd2kyzuk
p2111
I1
sVd4xvw1u
p2112
I1
sVdr0gdnb
p2113
I1
sVdnpjs6a
p2114
I2
sVdk04asc
p2115
I1
sVdms4m88
p2116
I2
sVdjf4u3v
p2117
I1
sVdkh8mw7
p2118
I1
sVd5cazd6
p2119
I1
sVd6vgknk
p2120
I1
sVd8wyvs8
p2121
I1
sVds1e4ry
p2122
I1
sVd74npse
p2123
I1
sVdsbknv1
p2124
I1
sVdnjt5it
p2125
I1
sVcz5bwvn
p2126
I1
sVd911gxj
p2127
I1
sVdbcxqh6
p2128
I1
sVda3ooj4
p2129
I1
sVcyqw1rq
p2130
I1
sVd6rtj7p
p2131
I1
sVd24umhb
p2132
I1
sVdigek6o
p2133
I1
sVd3121p3
p2134
I1
sVd1k7477
p2135
I1
sVdfxzcgw
p2136
I1
sVddf8ac6
p2137
I1
sVd54e26y
p2138
I1
sVd86p7s2
p2139
I1
sVde2wyfn
p2140
I1
sVd8m8jid
p2141
I1
sVd1qkx38
p2142
I1
sVd345wjs
p2143
I1
sVd6xmh36
p2144
I1
sVdgnygxz
p2145
I1
sVd9d55rd
p2146
I1
sVdosv31k
p2147
I1
sVdhgj594
p2148
I1
sVd151hmw
p2149
I1
sVdf3zshd
p2150
I1
sVdo6jyyp
p2151
I1
sVdndja4d
p2152
I1
sVcyujb7c
p2153
I1
sVdevxz3c
p2154
I1
sVdrq1ldz
p2155
I1
sVdn111xu
p2156
I1
sVcyibx4m
p2157
I1
sVd3j982z
p2158
I1
sVdb8wbeu
p2159
I1
sVcyq3km2
p2160
I1
sVdeqrueg
p2161
I1
sVdn86vv4
p2162
I1
sVd6g2a36
p2163
I2
sVd5p0f1z
p2164
I1
sVdhfvukk
p2165
I1
sVdh0kwik
p2166
I1
sVdsgir7j
p2167
I2
sVdgn3ruk
p2168
I2
sVdasioy1
p2169
I1
sVd0hb9om
p2170
I2
sVdkuksxe
p2171
I1
sVdb8c9cg
p2172
I1
sVdkcfqqa
p2173
I1
sVd9kpyyx
p2174
I1
sVdf2v1t0
p2175
I1
sVcz0e6ap
p2176
I1
sVdrjyoj1
p2177
I1
sVd57kd12
p2178
I1
sVdp09asv
p2179
I1
sVd3nmkfq
p2180
I1
sVdf4qi7v
p2181
I1
sVdgemp7o
p2182
I1
sVd4z8kqr
p2183
I1
sVd0u6gkj
p2184
I1
sVcz5778t
p2185
I1
sVczqif75
p2186
I1
sVde4s9et
p2187
I1
sVdq6ddu6
p2188
I1
sVdpjg63y
p2189
I1
sVdabtzpy
p2190
I1
sVdoutq11
p2191
I1
sVd1e4bmu
p2192
I1
sVda9hqtg
p2193
I1
sVdb52tg6
p2194
I1
sVd7jzhdm
p2195
I2
sVdrcchit
p2196
I1
sVdchiiu2
p2197
I1
sVdbzcrnp
p2198
I2
sVdf0h36y
p2199
I1
sVdnjlot4
p2200
I1
sVd9cyfx7
p2201
I1
sVdefon50
p2202
I1
sVd2zlqzl
p2203
I1
sVdmlk373
p2204
I1
sVd7yr96r
p2205
I1
sVdepo15g
p2206
I1
sVcyp0muo
p2207
I2
sVd1w85w7
p2208
I1
sVdeba8dt
p2209
I1
sVdba7m9h
p2210
I1
sVd5ixxxi
p2211
I1
sVdfkp722
p2212
I1
sVdq588cp
p2213
I1
sVdbsx8g2
p2214
I1
sVded95s5
p2215
I1
sVd7u9i1e
p2216
I2
sVdcjjr7c
p2217
I1
sVd4fui5b
p2218
I1
sVdgeyuco
p2219
I1
sVd1bhmd3
p2220
I2
sVdt6018r
p2221
I1
sVdcb4e2l
p2222
I1
sVd3elxgr
p2223
I1
sVdabnkdv
p2224
I1
sVdpedehx
p2225
I1
sVdbdyo4r
p2226
I1
sVdql57ct
p2227
I1
sVda4cd3r
p2228
I1
sVd8gxyp7
p2229
I1
sVdawcyw5
p2230
I1
sVdrxym8g
p2231
I1
sVd6aj7og
p2232
I1
sVdek4nyg
p2233
I1
sVdd7if0m
p2234
I1
sVdr2f3ze
p2235
I1
sVd70xw50
p2236
I1
sVdmm29bo
p2237
I1
sVd2w7kmw
p2238
I1
sVd3ngy9r
p2239
I1
sVdertjfx
p2240
I1
sVdr06u3j
p2241
I1
sVdcmklqy
p2242
I1
sVdf8z3b2
p2243
I2
sVddkn494
p2244
I1
sVdpbm6gx
p2245
I1
sVd65i567
p2246
I1
sVczuy38e
p2247
I1
sVd5t5aao
p2248
I3
sVd1ehzl4
p2249
I1
sVdjhwkep
p2250
I1
sVd6r2jok
p2251
I1
sVcylst1k
p2252
I1
sVdg6s7ub
p2253
I1
sVd0atmpg
p2254
I1
sVd0bm87b
p2255
I3
sVd1hx45t
p2256
I1
sVdmenake
p2257
I2
sVd07i892
p2258
I1
sVd57rer5
p2259
I1
sVdczh6lv
p2260
I1
sVd1djxqa
p2261
I2
sVd0wevs0
p2262
I1
sVddhx5sn
p2263
I1
sVd6iun4e
p2264
I1
sVdhe0gzf
p2265
I1
sVdn2cjaq
p2266
I1
sVczbxyc4
p2267
I1
sVd7ac1av
p2268
I1
sVdj8vay9
p2269
I1
sVd65hje4
p2270
I1
sVd97d4p5
p2271
I1
sVdcxmw12
p2272
I1
sVd74t2n7
p2273
I1
sVczob3oc
p2274
I1
sVczqp0uh
p2275
I1
sVd66m0gd
p2276
I1
sVdsg38cb
p2277
I1
sVddbyjf2
p2278
I1
sVdawqxh2
p2279
I1
sVdbwo8om
p2280
I1
sVdir0jbc
p2281
I1
sVcyvixik
p2282
I1
sVdiyj5wv
p2283
I1
sVdew55j2
p2284
I1
sVd0nr0ly
p2285
I1
sVd14xm4r
p2286
I1
sVdnkf4o9
p2287
I1
sVcza2esq
p2288
I1
sVdd3ikmy
p2289
I1
sVcz3negl
p2290
I1
sVd1b8tym
p2291
I1
sVdb0hi8j
p2292
I1
sVdgth1wb
p2293
I1
sVde32k77
p2294
I1
sVdd3vzer
p2295
I2
sVds6fgdz
p2296
I1
sVda3ambo
p2297
I1
sVdb7s9oy
p2298
I1
sVde8adjp
p2299
I1
sVdrtq4st
p2300
I1
sVcyyztqm
p2301
I1
sVdsg1zz4
p2302
I1
sVd1y8zzd
p2303
I1
sVdomvnly
p2304
I1
sVd08gmwk
p2305
I2
sVd29fkc4
p2306
I1
sVd02yt8s
p2307
I1
sVde8tr44
p2308
I1
sVd7k0zwa
p2309
I1
sVd6jeonu
p2310
I1
sVd2aomie
p2311
I1
sVcz97qyo
p2312
I1
sVddsqesk
p2313
I2
sVdb5b38m
p2314
I1
sVd6shc8j
p2315
I1
sVdnj93et
p2316
I1
sVdeww814
p2317
I1
sVd4u0z8k
p2318
I1
sVdndekuu
p2319
I1
sVd26hlb7
p2320
I1
sVde9cw50
p2321
I1
sVcztjgdi
p2322
I1
sVddct29i
p2323
I1
sVd8e0kfz
p2324
I1
sVd6kmjlu
p2325
I1
sVd7qwr4x
p2326
I1
sVd78ggyi
p2327
I1
sVddxab7v
p2328
I1
sVd3nlnue
p2329
I2
sVd5qkz7l
p2330
I1
sVd88mkn1
p2331
I2
sVdg4t9hi
p2332
I1
sVdfwku6w
p2333
I1
sVddjmm3n
p2334
I1
sVdclkhjl
p2335
I1
sVdaumg1n
p2336
I1
sVd7t3nna
p2337
I1
sVdnebamz
p2338
I1
sVd8c0a6b
p2339
I1
sVdorilp4
p2340
I1
sVczka9tj
p2341
I1
sVd35r0z8
p2342
I1
sVdcsjn0k
p2343
I1
sVd7erxxz
p2344
I1
sVczgzoh0
p2345
I1
sVdboz8h5
p2346
I1
sVdt8xwji
p2347
I2
sVdbmwbbg
p2348
I1
sVdhep2m3
p2349
I1
sVd3sk20q
p2350
I1
sVde2jn0p
p2351
I1
sVdfy0naj
p2352
I1
sVdhmn5kk
p2353
I1
sVd3u9104
p2354
I1
sVdi2angf
p2355
I1
sVd0rvz71
p2356
I1
sVd4gp4lc
p2357
I1
sVdb8tvmr
p2358
I1
sVd4eqq4n
p2359
I2
sVcyskz0d
p2360
I1
sVd5vmrh6
p2361
I1
sVdo01npc
p2362
I1
sVd30q9vd
p2363
I1
sVdhkjwq3
p2364
I1
sVd298806
p2365
I1
sVd0rocxq
p2366
I1
sVdgrfa88
p2367
I1
sVd872gda
p2368
I1
sVdh6bi7m
p2369
I1
sVd4r0jlm
p2370
I1
sVdf43wu8
p2371
I1
sVddps1m3
p2372
I1
sVddcdmkv
p2373
I1
sVcyozkwx
p2374
I1
sVd5ymz6j
p2375
I1
sVd37wfod
p2376
I1
sVdnu81v7
p2377
I1
sVdpymkfz
p2378
I1
sVczrdkiq
p2379
I1
sVd0agbmd
p2380
I1
sVd4up6wa
p2381
I1
sVdgmw65r
p2382
I1
sVd1hkpwd
p2383
I1
sVd68rtj7
p2384
I1
sVdh0xb0e
p2385
I1
sVczchhxc
p2386
I1
sVdcfbwaw
p2387
I1
sVdoq57ob
p2388
I1
sVd5uq08j
p2389
I1
sVd262zvv
p2390
I1
sVcyy2dki
p2391
I1
sVdbbwc3a
p2392
I1
sVd7vlqe2
p2393
I1
sVd8si8k0
p2394
I1
sVds2lrkr
p2395
I1
sVd05qnue
p2396
I1
sVdiasl68
p2397
I2
sVdqeacuj
p2398
I1
sVd3ear5t
p2399
I1
sVd3ezn4i
p2400
I2
sVd8vzt04
p2401
I1
sVd4jdsbm
p2402
I1
sVddfq67t
p2403
I1
sVdbz7nwt
p2404
I1
sVcz6402l
p2405
I2
sVd7mq8f5
p2406
I1
sVdkqvcfa
p2407
I1
sVdim4fmu
p2408
I1
sVdjvu0v4
p2409
I1
sVdda3ltg
p2410
I1
sVdagv7by
p2411
I1
sVd13gc2w
p2412
I1
sVd0ruokf
p2413
I1
sVd7cktd1
p2414
I1
sVddbyfhv
p2415
I1
sVd1lxryt
p2416
I1
sVdi70r3f
p2417
I1
sVd0o5o6y
p2418
I1
sVdi57r4g
p2419
I1
sVdiuyd01
p2420
I1
sVdgt54se
p2421
I2
sVd1o5d8b
p2422
I1
sVd0watgi
p2423
I1
sVdfi4cd2
p2424
I1
sVdoato8t
p2425
I1
sVdclr5f7
p2426
I1
sVdf1v5vd
p2427
I1
sVd7pebou
p2428
I1
sVd9z5spc
p2429
I1
sVdbfckux
p2430
I1
sVddou1tq
p2431
I1
sVd0yddix
p2432
I1
sVdevxx4a
p2433
I1
sVdpbxwgg
p2434
I1
sVdmnchrv
p2435
I1
sVd68llvp
p2436
I2
sVd9ziray
p2437
I1
sVd0kp9z9
p2438
I1
sVdfouosn
p2439
I1
sVdalkr47
p2440
I1
sVd2g6fyf
p2441
I1
sVd47bg6k
p2442
I1
sVdiy4t07
p2443
I1
sVd8h5jb3
p2444
I1
sVczf6ced
p2445
I1
sVdfosymr
p2446
I1
sVd9azowe
p2447
I1
sVd2k9lsf
p2448
I1
sVdf4yxqx
p2449
I1
sVd3qxyeq
p2450
I1
sVd8rt0mv
p2451
I1
sVdikekaf
p2452
I1
sVdac2bd7
p2453
I4
sVdhswjdf
p2454
I2
sVda3oi8g
p2455
I1
sVdj72zi6
p2456
I1
sVd88vdlm
p2457
I1
sVd5hygrv
p2458
I1
sVd3pgd5o
p2459
I1
sVd91vq0f
p2460
I1
sVdpwvojz
p2461
I1
sVdf3q8g2
p2462
I1
sVdbxq8qj
p2463
I2
sVd8f493u
p2464
I3
sVczm5vby
p2465
I1
sVd0juraa
p2466
I2
sVd30icwp
p2467
I1
sVczbvd8s
p2468
I1
sVd9xe2rm
p2469
I1
sVd3vczkc
p2470
I1
sVd199jzt
p2471
I1
sVd9znf1r
p2472
I1
sVcyr5qsz
p2473
I1
sVczgzhem
p2474
I1
sVdikn2pc
p2475
I1
sVd28390q
p2476
I1
sVd53430j
p2477
I1
sVdo8gwss
p2478
I1
sVcyi37si
p2479
I1
sVd3xl4k5
p2480
I1
sVdjftjad
p2481
I1
sVdry7g1r
p2482
I1
sVd6d5ho3
p2483
I1
sVdhb4c56
p2484
I1
sVdjn6y3h
p2485
I1
sVd7t7ks4
p2486
I1
sVdg8dxj0
p2487
I2
sVd0ei6zf
p2488
I1
sVddnxxyn
p2489
I1
sVd97x4ai
p2490
I1
sVds2lzoz
p2491
I1
sVcyrmmkv
p2492
I1
sVcz358ag
p2493
I1
sVd92yf8c
p2494
I1
sVd8ylbtz
p2495
I1
sVd3dhbmh
p2496
I1
sVd81w60e
p2497
I1
sVd22u3o8
p2498
I1
sVczdapg3
p2499
I1
sVd4w7k51
p2500
I1
sVd7enb46
p2501
I1
sVdmpgc56
p2502
I1
sVden3s59
p2503
I1
sVdtdzl66
p2504
I1
sVd8zfvs1
p2505
I1
sVd03tsp4
p2506
I1
sVd1ph6qd
p2507
I2
sVdd6q2p4
p2508
I1
sVdi2kc1b
p2509
I1
sVd2pqyha
p2510
I1
sVdffebgz
p2511
I1
sVd305ugp
p2512
I1
sVd4mlev1
p2513
I1
sVdkyrzzs
p2514
I1
sVd8ojrzu
p2515
I1
sVde7uuzx
p2516
I2
sVdr0ddlk
p2517
I1
sVdbttm47
p2518
I1
sVddo67kw
p2519
I1
sVd8fmem0
p2520
I1
sVdj1snnp
p2521
I1
sVdhxv289
p2522
I4
sVdtdrm9v
p2523
I1
sVd03vt3s
p2524
I2
sVddh65ec
p2525
I1
sVdovh493
p2526
I1
sVd69fxjl
p2527
I1
sVd3mxur9
p2528
I1
sVdms9zd4
p2529
I1
sVdgd5s6o
p2530
I1
sVddwrkta
p2531
I1
sVd2a3y5i
p2532
I1
sVd5ih73m
p2533
I1
sVddl7wes
p2534
I1
sVd76zk8q
p2535
I2
sVda5hftz
p2536
I1
sVd5re9rj
p2537
I1
sVdn16ukj
p2538
I2
sVddy8n01
p2539
I1
sVdfznj7a
p2540
I2
sVdaieo8n
p2541
I1
sVd5v3r5p
p2542
I1
sVdn8tow2
p2543
I1
sVd9ig8at
p2544
I2
sVddfydvt
p2545
I1
sVd0rpctw
p2546
I2
sVdeuhvv7
p2547
I1
sVda8eimn
p2548
I1
sVd5rorla
p2549
I2
sVd26rz92
p2550
I1
sVd2jp7jm
p2551
I1
sVd64ri0z
p2552
I1
sVd1il8j7
p2553
I1
sVd0u0ily
p2554
I1
sVdbik5ok
p2555
I1
sVd3ijmeb
p2556
I1
sVdq4otju
p2557
I1
sVdpuala2
p2558
I1
sVdcu03bl
p2559
I1
sVd2faome
p2560
I1
sVdauhnp5
p2561
I1
sVdgmsfs1
p2562
I1
sVdbt3xh0
p2563
I1
sVdh2xzik
p2564
I1
sVdo5ou0y
p2565
I1
sVd3dyxrq
p2566
I1
sVdggpe27
p2567
I1
sVcz9k4cq
p2568
I1
sVdi4d586
p2569
I1
sVdbrmojo
p2570
I1
sVdjp2a7a
p2571
I1
sVddhi1th
p2572
I1
sVd2c69nc
p2573
I1
sVdo5ul06
p2574
I1
sVde0oybq
p2575
I1
sVd23iuux
p2576
I2
sVdjppigx
p2577
I1
sVdhcxv6p
p2578
I1
sVd2js5c0
p2579
I1
sVd46a0h5
p2580
I1
sVd1ub4et
p2581
I1
sVdrjv4xo
p2582
I1
sVdii6cqd
p2583
I1
sVd54r2ug
p2584
I1
sVdcb8cba
p2585
I1
sVd27scnd
p2586
I1
sVd7aj6jz
p2587
I1
sVdgtgxof
p2588
I1
sVd1u25qd
p2589
I2
sVdqhpkz8
p2590
I1
sVdjdhj3j
p2591
I1
sVd6bsye5
p2592
I1
sVdamampc
p2593
I1
sVd3hwinu
p2594
I1
sVdc3vbvl
p2595
I1
sVdhjtwza
p2596
I1
sVd0pyhp1
p2597
I1
sVdbmfjpg
p2598
I1
sVdikc0b3
p2599
I1
sVd3iu2pj
p2600
I1
sVd3bgobi
p2601
I2
sVdincqd1
p2602
I1
sVdqjs0v6
p2603
I1
sVcz6tm34
p2604
I1
sVd1dy88f
p2605
I1
sVddthmz6
p2606
I1
sVd9oergt
p2607
I1
sVd8e4rgm
p2608
I1
sVd0e53rc
p2609
I1
sVddbfcs9
p2610
I1
sVdghvang
p2611
I1
sVd4hz3sq
p2612
I1
sVd6hdqs3
p2613
I1
sVczzgn6w
p2614
I1
sVdekuius
p2615
I1
sVdh4v6l4
p2616
I2
sVdb67dw3
p2617
I1
sVdfvx2td
p2618
I1
sVd30euue
p2619
I1
sVcytewxr
p2620
I1
sVdjivi5u
p2621
I1
sVdjhg1cs
p2622
I1
sVd88gt72
p2623
I1
sVdh65cvi
p2624
I1
sVd1jqhei
p2625
I1
sVd8oqvp9
p2626
I1
sVd17npug
p2627
I1
sVdahc969
p2628
I1
sVdb9i2y4
p2629
I2
sVcztt1bs
p2630
I1
sVd00qylh
p2631
I1
sVdknku70
p2632
I1
sVd5vqy4x
p2633
I1
sVd7y7nx6
p2634
I1
sVd2mtxkz
p2635
I1
sVd5xjalw
p2636
I2
sVd44jwr2
p2637
I1
sVdjbtbc7
p2638
I1
sVd57xthc
p2639
I1
sVdruevqx
p2640
I1
sVdcm039m
p2641
I1
sVdeb3btj
p2642
I1
sVdgar5nf
p2643
I1
sVdqbnfmo
p2644
I2
sVd8fj5fw
p2645
I1
sVcysumwu
p2646
I1
sVd5rlohn
p2647
I1
sVdptj4wa
p2648
I1
sVd14pylh
p2649
I1
sVdbdh5d4
p2650
I1
sVczid9wi
p2651
I2
sVdee3d2r
p2652
I1
sVcyp0miq
p2653
I1
sVd3iknjl
p2654
I1
sVdikfufe
p2655
I1
sVdhcrdt7
p2656
I1
sVdhs8p2d
p2657
I1
sVdiiujc0
p2658
I1
sVddoxh0p
p2659
I1
sVdg4kotx
p2660
I1
sVd0kk9eh
p2661
I1
sVdmep581
p2662
I1
sVdrjyqen
p2663
I1
sVdnimbzb
p2664
I1
sVd2sqok3
p2665
I1
sVdeq0qp9
p2666
I1
sVdblnurc
p2667
I1
sVd2icgj6
p2668
I1
sVdhy07jz
p2669
I1
sVdniozyj
p2670
I1
sVdbcz7b1
p2671
I1
sVd0psn6z
p2672
I1
sVd40r2v3
p2673
I2
sVd967eda
p2674
I1
sVdb9o5rw
p2675
I1
sVcyzli4i
p2676
I1
sVdknmqhe
p2677
I1
sVdhbybnb
p2678
I1
sVd07ebga
p2679
I1
sVdghgwky
p2680
I2
sVdpi1np6
p2681
I1
sVdkf1bir
p2682
I1
sVd1zw6b6
p2683
I1
sVcz11gnj
p2684
I1
sVdgi5ev3
p2685
I1
sVd5ufa9p
p2686
I1
sVd9dzml9
p2687
I1
sVd3kdmpg
p2688
I1
sVdbwi61f
p2689
I1
sVdimsywa
p2690
I1
sVd0ul1sx
p2691
I1
sVdijnx0f
p2692
I1
sVd83zkpf
p2693
I1
sVd0u4b8r
p2694
I1
sVdd4rok0
p2695
I1
sVd00vmet
p2696
I1
sVd2ozocp
p2697
I1
sVdihoajm
p2698
I1
sVd2dpx89
p2699
I1
sVdft8v38
p2700
I2
sVd7xqqtj
p2701
I1
sVdrya0cp
p2702
I1
sVd5yv03f
p2703
I1
sVdmljzq4
p2704
I1
sVdbada5o
p2705
I1
sVdf7qfaa
p2706
I1
sVdd1x21t
p2707
I1
sVddpygux
p2708
I1
sVdo5tg0v
p2709
I2
sVdav8wqj
p2710
I1
sVd35db9n
p2711
I1
sVdh1cmul
p2712
I1
sVd2u9ruj
p2713
I1
sVdk04rtz
p2714
I3
sVdte9qyp
p2715
I1
sVdspzagf
p2716
I1
sVd6ai92b
p2717
I1
sVdbyqp3p
p2718
I1
sVczi49ys
p2719
I1
sVd7tro3b
p2720
I1
sVd30xwhl
p2721
I1
sVdoxdx88
p2722
I1
sVd5cpt3i
p2723
I1
sVds39to0
p2724
I1
sVd9fvl0w
p2725
I1
sVdqzdkp1
p2726
I1
sVdfoj00s
p2727
I1
sVddwhw5h
p2728
I1
sVdr86qke
p2729
I1
sVczgzzt2
p2730
I1
sVdqtlkxf
p2731
I1
sVddwjotv
p2732
I1
sVd4tts7m
p2733
I1
sVdqaghkm
p2734
I1
sVdoyqxf9
p2735
I1
sVdgwpfht
p2736
I1
sVdbkvuha
p2737
I1
sVdk0zdaf
p2738
I1
sVdmtrl8d
p2739
I1
sVd021jn9
p2740
I1
sVdfxewn8
p2741
I1
sVdaxc1ey
p2742
I1
sVd68rehr
p2743
I1
sVdenf9cp
p2744
I1
sVd0w75f4
p2745
I1
sVdin6ygl
p2746
I1
sVd0ny9lz
p2747
I1
sVd59xdse
p2748
I1
sVd69re7z
p2749
I2
sVdgarfeb
p2750
I1
sVdj0gmjx
p2751
I1
sVd4yx8q7
p2752
I1
sVdcuhq74
p2753
I1
sVdihzcx3
p2754
I1
sVd0ztf0h
p2755
I1
sVd5odjpq
p2756
I2
sVddzwevm
p2757
I1
sVddq0ftc
p2758
I1
sVdgw5ozl
p2759
I1
sVcywo55c
p2760
I1
sVd8tqxvs
p2761
I1
sVd66081o
p2762
I1
sVd4z8g1h
p2763
I1
sVdj7zyel
p2764
I2
sVd0w2qoe
p2765
I1
sVdccgmd9
p2766
I1
sVdeldqlx
p2767
I1
sVd1p4hgg
p2768
I1
sVd05kugt
p2769
I2
sVd0etart
p2770
I1
sVdd6gtn8
p2771
I1
sVd34u8fl
p2772
I1
sVd7b8bxk
p2773
I1
sVdb4u8zg
p2774
I2
sVd9uuhg2
p2775
I1
sVdtd5nzj
p2776
I1
sVdnfytav
p2777
I1
sVde6gp4m
p2778
I1
sVdclca1v
p2779
I1
sVd0whkg2
p2780
I1
sVcz2ti0x
p2781
I2
sVdh1z8ea
p2782
I1
sVdky4e2k
p2783
I1
sVcyi1wmg
p2784
I1
sVdazieb5
p2785
I1
sVdekolvp
p2786
I2
sVdhnfosh
p2787
I1
sVd6cr58g
p2788
I1
sVdnb133v
p2789
I1
sVdms4qgb
p2790
I1
sVdkop1u0
p2791
I1
sVd3a9wkn
p2792
I1
sVd89gg25
p2793
I1
sVd0i03zc
p2794
I1
sVdd6snd8
p2795
I1
sVddgk1w2
p2796
I1
sVd79su7g
p2797
I1
sVd5qybob
p2798
I1
sVdbjgdxn
p2799
I1
sVde9hfi7
p2800
I1
sVdfe5x6x
p2801
I1
sVdfyc5c8
p2802
I1
sVd6ghbk8
p2803
I1
sVdi4p003
p2804
I1
sVd1c0wa9
p2805
I1
sVddwnfcz
p2806
I1
sVd6kzzk3
p2807
I1
sVd9teb6h
p2808
I1
sVdfoxbf6
p2809
I1
sVdg0zsy7
p2810
I1
sVd87w66b
p2811
I1
sVdfap8yn
p2812
I1
sVcyjp5in
p2813
I1
sVdmz4gio
p2814
I1
sVdh1i2fu
p2815
I2
sVdfnb3aq
p2816
I1
sVdqxr72n
p2817
I1
sVd8sq2m4
p2818
I1
sVcz4wa1q
p2819
I1
sVdeh4yzv
p2820
I1
sVd4r749x
p2821
I1
sVdbiwgzt
p2822
I1
sVda3uuf4
p2823
I1
sVde3pu6l
p2824
I1
sVdcdoo44
p2825
I1
sVd24k3j2
p2826
I1
sVczrqx6p
p2827
I1
sVdb5e2cu
p2828
I1
sVdobt55g
p2829
I1
sVda63txi
p2830
I1
sVd1bwxea
p2831
I1
sVdkbgrw1
p2832
I1
sVdgeytk5
p2833
I1
sVdj3m32a
p2834
I1
sVda4mdr9
p2835
I1
sVczkimu9
p2836
I1
sVd04k8pe
p2837
I1
sVdiwoif8
p2838
I1
sVcyjrfco
p2839
I1
sVdspdaqa
p2840
I1
sVd2kdiuo
p2841
I2
sVd3hiw11
p2842
I1
sVdbrmr40
p2843
I1
sVdfu9vwh
p2844
I1
sVd69e7em
p2845
I2
sVdckjpgi
p2846
I1
sVd7b605e
p2847
I1
sVdgvc7bh
p2848
I1
sVdjl7flv
p2849
I1
sVd0pm42h
p2850
I1
sVd01san8
p2851
I1
sVd5opyw8
p2852
I1
sVd5vorsa
p2853
I1
sVdjrfz2j
p2854
I1
sVd7c4vjw
p2855
I1
sVd7nxujb
p2856
I1
sVdbtky0y
p2857
I1
sVdjnx627
p2858
I1
sVd6u5wuw
p2859
I1
sVd7lvyjv
p2860
I1
sVcyu5qid
p2861
I1
sVd08f1ox
p2862
I1
sVdkgv3uo
p2863
I1
sVd0utzny
p2864
I1
sVdei9d5e
p2865
I2
sVd0iav4t
p2866
I1
sVd28ag09
p2867
I1
sVdqnfwa9
p2868
I1
sVdifrm1p
p2869
I1
sVd7t1xec
p2870
I1
sVdb0x9yo
p2871
I1
sVd9p6wce
p2872
I1
sVczojmll
p2873
I1
sVddijsk8
p2874
I1
sVdf42yln
p2875
I1
sVdhfh6rc
p2876
I1
sVd2h3aep
p2877
I1
sVdeqlspa
p2878
I1
sVdadgyo0
p2879
I2
sVd3plnhr
p2880
I2
sVd0r2md0
p2881
I1
sVdmujh2m
p2882
I1
sVd7tyelm
p2883
I1
sVd0co86o
p2884
I1
sVd68r73s
p2885
I1
sVd8j1z1u
p2886
I1
sVczs8xhy
p2887
I1
sVdaxonav
p2888
I1
sVdg6966l
p2889
I1
sVd6k97n9
p2890
I2
sVdeissws
p2891
I1
sVd3ajatx
p2892
I1
sVdokso6f
p2893
I1
sVdeizmek
p2894
I1
sVdah0pid
p2895
I1
sVddstjq5
p2896
I1
sVdf165v6
p2897
I1
sVd97ju2j
p2898
I1
sVd05y14c
p2899
I1
sVcz0tnhg
p2900
I1
sVcymok43
p2901
I1
sVdcyinft
p2902
I1
sVdc4w45q
p2903
I1
sVddo1l6b
p2904
I1
sVdg22xc0
p2905
I1
sVdbqhixm
p2906
I1
sVdc4udx0
p2907
I1
sVddwikia
p2908
I1
sVdk1llcf
p2909
I3
sVcz82889
p2910
I1
sVd1fm6o0
p2911
I1
sVd077nq9
p2912
I1
sVdo7x8s5
p2913
I1
sVd8o2iav
p2914
I1
sVdccqyih
p2915
I1
sVcztmowv
p2916
I1
sVddscjcr
p2917
I1
sVddugjn6
p2918
I1
sVd71plac
p2919
I1
sVd2h7umn
p2920
I1
sVdaok57j
p2921
I1
sVde5x8fd
p2922
I1
sVd5gso6x
p2923
I1
sVd23pj9f
p2924
I1
sVdbevisx
p2925
I1
sVcyme235
p2926
I1
sVda1nma8
p2927
I1
sVczg6fg7
p2928
I1
sVdnzwtu5
p2929
I1
sVdby6r6q
p2930
I1
sVdajbujp
p2931
I1
sVdfgcp8y
p2932
I1
sVd2b1e2m
p2933
I1
sVdgio3aj
p2934
I1
sVdebzjxj
p2935
I1
sVdilzk9l
p2936
I1
sVd4z21p5
p2937
I1
sVd702axe
p2938
I1
sVde5jy40
p2939
I1
sVdcuzaps
p2940
I1
sVdcnjojc
p2941
I1
sVd6lubvp
p2942
I1
sVdry77up
p2943
I1
sVdb7cd95
p2944
I1
sVdguu46e
p2945
I1
sVdge4ibt
p2946
I1
sVd2wz15g
p2947
I1
sVdnftftq
p2948
I1
sVdagcxqn
p2949
I1
sVdirju4m
p2950
I1
sVd802ltc
p2951
I1
sVd0bq36z
p2952
I1
sVdkdb9fm
p2953
I1
sVd3zvfwr
p2954
I1
sVd6jij42
p2955
I1
sVd81ufx9
p2956
I1
sVd65ns89
p2957
I1
sVdaylw65
p2958
I1
sVcz4qd82
p2959
I1
sVdsasuhl
p2960
I1
sVd5y4ikg
p2961
I1
sVdcm62g1
p2962
I1
sVd8pe0t4
p2963
I1
sVdimgcit
p2964
I2
sVddy8squ
p2965
I1
sVdssw5vr
p2966
I1
sVcz8gr5v
p2967
I1
sVdo5jjhn
p2968
I1
sVdkwfpdc
p2969
I1
sVcz992pr
p2970
I1
sVdg6i5o6
p2971
I1
sVcykwkrj
p2972
I1
sVdde8laf
p2973
I1
sVd2bxj9h
p2974
I1
sVdmiuboy
p2975
I1
sVdc7c0nh
p2976
I1
sVdix19kf
p2977
I1
sVd88m2fj
p2978
I1
sVd6d2mzp
p2979
I2
sVd9xuxaj
p2980
I1
sVd7rxitq
p2981
I1
sVdfcwlwo
p2982
I1
sVdoe05uw
p2983
I1
sVd4l3lw0
p2984
I1
sVdcwa5kk
p2985
I1
sVcylh3du
p2986
I1
sVdi6vwql
p2987
I1
sVcz0hb7v
p2988
I1
sVdd27x4q
p2989
I1
sVd901581
p2990
I1
sVd9qns71
p2991
I1
sVdbzl693
p2992
I1
sVdg9i6mm
p2993
I1
sVde1b3ro
p2994
I1
sVdmvuh2g
p2995
I1
sVdhmohrt
p2996
I1
sVd3zeqrf
p2997
I1
sVd83p3m7
p2998
I1
sVdb23x0r
p2999
I1
sVd8krmia
p3000
I1
sVddr4u2h
p3001
I1
sVdb0045s
p3002
I1
sVdr0xcre
p3003
I1
sVd4ptbg2
p3004
I1
sVdfvdnoy
p3005
I1
sVczxqctx
p3006
I1
sVcyxxtm6
p3007
I1
sVdiy7mgq
p3008
I1
sVde3keep
p3009
I1
sVd0d38fr
p3010
I1
sVd0b3lge
p3011
I1
sVdrlxx1p
p3012
I1
sVd11na6s
p3013
I1
sVd8pshe1
p3014
I1
sVd37vt33
p3015
I1
sVd5tss6c
p3016
I2
sVd3v25bc
p3017
I1
sVdtf977i
p3018
I1
sVdaaem2a
p3019
I1
sVd5nl1zu
p3020
I1
sVd5ysb6o
p3021
I1
sVd4ksy0e
p3022
I1
sVd1w0xas
p3023
I1
sVdqebkx0
p3024
I1
sVdemeprq
p3025
I1
sVd9xu67z
p3026
I1
sVcyvobd2
p3027
I1
sVcz6q32w
p3028
I1
sVdgnn6ei
p3029
I1
sVddoavug
p3030
I1
sVdcdmoqm
p3031
I1
sVdmv4m95
p3032
I1
sVd012mft
p3033
I1
sVdfoxdm3
p3034
I1
sVda5o6i3
p3035
I1
sVdirgz4d
p3036
I1
sVdemuy18
p3037
I1
sVdgx4xtw
p3038
I1
sVdrlhcu2
p3039
I1
sVdjxhd0t
p3040
I1
sVd88lwz3
p3041
I1
sVd1ou2rn
p3042
I1
sVdc1p4g5
p3043
I1
sVd2hz5yy
p3044
I2
sVd96pi6l
p3045
I2
sVdh1iby6
p3046
I1
sVdmyd7jq
p3047
I2
sVd0rbi0p
p3048
I1
sVds4tsj6
p3049
I1
sVdj5y76b
p3050
I1
sVdiyr5qt
p3051
I1
sVd1zg6j4
p3052
I1
sVd48v871
p3053
I1
sVd6y5qff
p3054
I2
sVd0fo4bu
p3055
I1
sVdskz8p5
p3056
I1
sVddouvln
p3057
I1
sVdbj8vd3
p3058
I1
sVdel6bnl
p3059
I3
sVd0665he
p3060
I1
sVdoheadi
p3061
I2
sVdqvq1vf
p3062
I1
sVdhs3he0
p3063
I1
sVdfmy422
p3064
I3
sVd08oeqp
p3065
I1
sVczw25vf
p3066
I1
sVdktfwpt
p3067
I1
sVd98tzzq
p3068
I2
sVdih9nl6
p3069
I2
sVd1w9p7y
p3070
I1
sVdc6ygtn
p3071
I2
sVd050j3v
p3072
I1
sVdhu79c5
p3073
I1
sVd2yd1o3
p3074
I3
sVcyv8bgh
p3075
I1
sVdjv0tw5
p3076
I1
sVdrd6pyp
p3077
I1
sVdt2r4yv
p3078
I1
sVcz5btqr
p3079
I1
sVdazzd11
p3080
I1
sVd4o5r05
p3081
I1
sVdo43nvj
p3082
I1
sVdi7ggmu
p3083
I1
sVdcq8ukn
p3084
I1
sVdat5edz
p3085
I1
sVd8k1g5x
p3086
I1
sVczdrt69
p3087
I1
sVdasnenf
p3088
I1
sVd5kwnw5
p3089
I1
sVczqwtf1
p3090
I1
sVdaruwo1
p3091
I1
sVd1w6w8g
p3092
I1
sVdsr0ue8
p3093
I1
sVd95mk56
p3094
I1
sVdfu69oo
p3095
I1
sVd4zkkhv
p3096
I1
sVd3tzede
p3097
I1
sVdb5d0a6
p3098
I1
sVdgtm85x
p3099
I1
sVdg4fczb
p3100
I1
sVcyyf4bb
p3101
I1
sVdj31j8f
p3102
I1
sVdh7xrmb
p3103
I1
sVdasmby1
p3104
I1
sVdhx63xs
p3105
I2
sVdav6yq9
p3106
I1
sVd8p58z8
p3107
I1
sVdhg5s87
p3108
I1
sVd5i08gl
p3109
I1
sVdefmvpx
p3110
I2
sVdjmkh5s
p3111
I1
sVd3vsqbr
p3112
I1
sVdq6t3g0
p3113
I1
sVdkmklpa
p3114
I1
sVd01j4hr
p3115
I1
sVczxnt65
p3116
I1
sVdcukrnz
p3117
I1
sVdb9laox
p3118
I1
sVdbiwlyu
p3119
I1
sVd9nd444
p3120
I1
sVd2hr8wn
p3121
I1
sVdik8z49
p3122
I1
sVd3pbje3
p3123
I1
sVd0o9wud
p3124
I1
sVdbwt0c3
p3125
I1
sVdcsyb4v
p3126
I1
sVdotl35s
p3127
I1
sVdfls03u
p3128
I1
sVd0x3xv6
p3129
I1
sVd8eq9ax
p3130
I1
sVd57gaqx
p3131
I1
sVdedbq2p
p3132
I1
sVd1va0wn
p3133
I1
sVd33rqvg
p3134
I1
sVd5e2rgd
p3135
I1
sVd38yfvm
p3136
I1
sVd9hvtan
p3137
I1
sVd7jijiv
p3138
I1
sVdsxr4co
p3139
I1
sVd68l9wz
p3140
I1
sVd18dcyq
p3141
I1
sVd5dgzy8
p3142
I1
sVczko78s
p3143
I1
sVd97h4wi
p3144
I1
sVd01hqk7
p3145
I1
sVdbifv6u
p3146
I1
sVd8xahyq
p3147
I1
sVd7qmh37
p3148
I1
sVd1wa60a
p3149
I1
sVdmzi39g
p3150
I1
sVdkt8aew
p3151
I1
sVds4ug8j
p3152
I1
sVdhz1eay
p3153
I2
sVd2781bf
p3154
I1
sVczxqx3t
p3155
I1
sVd63cpcg
p3156
I1
sVdt8a5pw
p3157
I1
sVd0evz5p
p3158
I1
sVd5vro87
p3159
I4
sVd1kl7j8
p3160
I1
sVddlrybp
p3161
I1
sVdjy183q
p3162
I1
sVdhle5ba
p3163
I1
sVd877mg7
p3164
I1
sVd3ca9mw
p3165
I1
sVdny5wbe
p3166
I1
sVdimj1t5
p3167
I1
sVd6scxwb
p3168
I1
sVdcncehy
p3169
I1
sVd7nn8kh
p3170
I1
sVd0y7n7x
p3171
I1
sVdcko1tl
p3172
I1
sVczc8176
p3173
I1
sVdn86eei
p3174
I1
sVd94z37n
p3175
I1
sVczl1ag5
p3176
I1
sVdctpstr
p3177
I1
sVdoeszz4
p3178
I1
sVdkm7i7a
p3179
I1
sVdk87rgl
p3180
I1
sVdiyzakk
p3181
I1
sVd4uklo9
p3182
I1
sVd68tbxc
p3183
I1
sVd1qgffm
p3184
I1
sVdbci6sc
p3185
I2
sVd9kx02e
p3186
I1
sVd1zyhik
p3187
I1
sVd5e628p
p3188
I1
sVd2flsyl
p3189
I1
sVdgk1xac
p3190
I1
sVdcqsbh6
p3191
I1
sVdt8jbv8
p3192
I1
sVdjhwb2d
p3193
I1
sVd3vtk7r
p3194
I1
sVcywjqzg
p3195
I1
sVddxfvek
p3196
I1
sVdnr0iwj
p3197
I1
sVd13o03q
p3198
I1
sVdr1qyav
p3199
I1
sVd7g1z3i
p3200
I2
sVd17a3sl
p3201
I2
sVdber0fg
p3202
I1
sVd6b4xip
p3203
I1
sVd4i1u23
p3204
I1
sVczh86b5
p3205
I1
sVdb6an91
p3206
I1
sVd0d5hi8
p3207
I1
sVcyl8468
p3208
I1
sVdgcxty6
p3209
I1
sVd9um0ee
p3210
I1
sVdg3x809
p3211
I1
sVda6sqr7
p3212
I1
sVdemaft9
p3213
I1
sVczadlsp
p3214
I1
sVdcf6aow
p3215
I1
sVdhmzgbq
p3216
I1
sVdqnbps5
p3217
I1
sVd0tvrs4
p3218
I1
sVcypccz6
p3219
I1
sVd46yrco
p3220
I1
sVczgofyn
p3221
I1
sVd5x05l6
p3222
I1
sVdt2ibf9
p3223
I2
sVd04nk17
p3224
I1
sVdjr5nbe
p3225
I1
sVd46vtmy
p3226
I1
sVd0a5del
p3227
I1
sVdd3e8u5
p3228
I1
sVdqrepwb
p3229
I1
sVdhjqubw
p3230
I1
sVdmgqwjm
p3231
I1
sVd9j0x7a
p3232
I1
sVdn16534
p3233
I2
sVd1otut5
p3234
I1
sVd25di57
p3235
I1
sVde90eje
p3236
I1
sVdeqm6u3
p3237
I1
sVdnq15oq
p3238
I1
sVdf1uvts
p3239
I1
sVdt60fid
p3240
I1
sVd4q0f7p
p3241
I1
sVdqeu9fn
p3242
I1
sVdti1p9z
p3243
I3
sVd9unbln
p3244
I1
sVddktjn1
p3245
I2
sVd5zly6f
p3246
I1
sVdsk258d
p3247
I1
sVdjf2x7u
p3248
I1
sVd8n7spq
p3249
I1
sVdnb4hnz
p3250
I1
sVdnumlr8
p3251
I1
sVcz8zj8h
p3252
I1
sVdec693h
p3253
I1
sVdimet24
p3254
I1
sVdinlg93
p3255
I1
sVcyytr4t
p3256
I1
sVdaivbhr
p3257
I1
sVd1jdt9p
p3258
I1
sVczd3gwk
p3259
I1
sVd8ql566
p3260
I1
sVd40zvkp
p3261
I1
sVd5kydxo
p3262
I1
sVddhrprn
p3263
I1
sVdcuftgk
p3264
I2
sVd8yxcl9
p3265
I1
sVd29pilf
p3266
I1
sVdi5c4wl
p3267
I1
sVdgdq3gx
p3268
I1
sVdnvepvr
p3269
I1
sVdc6op7y
p3270
I1
sVd5jr7s2
p3271
I1
sVd14r8wj
p3272
I1
sVd1b3udh
p3273
I1
sVd918rsq
p3274
I1
sVdcxep5e
p3275
I1
sVd9d0r86
p3276
I1
sVd010iy9
p3277
I1
sVd25k2a7
p3278
I1
sVdn6x8y5
p3279
I2
sVdam8x4n
p3280
I1
sVd36ltav
p3281
I1
sVd6j19n0
p3282
I1
sVcyrg6mm
p3283
I1
sVd77mlv6
p3284
I1
sVdpx0fvj
p3285
I5
sVdi3e39g
p3286
I1
sVdkxlbtq
p3287
I1
sVd7y0xxm
p3288
I2
sVd5851pn
p3289
I3
sVd10yz7f
p3290
I1
sVd3hvdkt
p3291
I1
sVd92qxnm
p3292
I1
sVdqov80n
p3293
I1
sVdcja52p
p3294
I1
sVd7no9b8
p3295
I1
sVd147oku
p3296
I1
sVdi1b6p6
p3297
I1
sVdeygxdt
p3298
I1
sVd1jjy96
p3299
I1
sVdeovbxv
p3300
I1
sVd8v0zd2
p3301
I1
sVddpn860
p3302
I1
sVd1tk8zp
p3303
I1
sVdot7l7o
p3304
I1
sVd55w18h
p3305
I1
sVdr7b9dv
p3306
I1
sVdbh96sg
p3307
I1
sVd8fcwvr
p3308
I1
sVd25welj
p3309
I1
sVczw8euo
p3310
I1
sVdhoib7v
p3311
I1
sVd4bsax7
p3312
I1
sVd3y8mcg
p3313
I1
sVdj5spo9
p3314
I1
sVd1r3p9j
p3315
I1
sVddvua6j
p3316
I1
sVdce8iei
p3317
I1
sVd49eta7
p3318
I1
sVd7qeyhv
p3319
I1
sVd0g90ku
p3320
I1
sVdn31s5x
p3321
I1
sVdf90qmj
p3322
I2
sVdiahkqi
p3323
I1
sVdf7ivyb
p3324
I1
sVcz7r9f7
p3325
I1
sVdiazqow
p3326
I1
sVdih7fw0
p3327
I1
sVdj02l22
p3328
I1
sVd71skmb
p3329
I1
sVd51cxua
p3330
I1
sVd0h01ij
p3331
I1
sVdh0xi08
p3332
I1
sVdqd1oxo
p3333
I1
sVd8ktmak
p3334
I1
sVd67q7hq
p3335
I1
sVdnh1kzv
p3336
I1
sVd0rj0xs
p3337
I1
sVdchkfna
p3338
I1
sVd2oyvp5
p3339
I1
sVdh6l45i
p3340
I1
sVd1aqebm
p3341
I2
sVdj9x5be
p3342
I1
sVd7qf30u
p3343
I1
sVdbeaago
p3344
I1
sVcz72in1
p3345
I1
sVd1az7ry
p3346
I1
sVde9h3tn
p3347
I1
sVde7e34d
p3348
I1
sVd3embp4
p3349
I1
sVd2blz2o
p3350
I2
sVd3s2aed
p3351
I1
sVd1vcls9
p3352
I1
sVczir3bl
p3353
I1
sVdhk0zcl
p3354
I1
sVd0i8a90
p3355
I1
sVd30yc0f
p3356
I1
sVdahmztk
p3357
I1
sVddq1crs
p3358
I1
sVdd42lrg
p3359
I1
sVd1t3ay0
p3360
I1
sVd5wadbs
p3361
I1
sVczryp7t
p3362
I1
sVdc5iw66
p3363
I1
sVd4tcp0z
p3364
I1
sVdmxaz2m
p3365
I2
sVded0fn2
p3366
I1
sVddl32j6
p3367
I1
sVd0ntvp9
p3368
I1
sVd2aa7ac
p3369
I1
sVd0j7l85
p3370
I1
sVdmn28zp
p3371
I1
sVd08e5ri
p3372
I2
sVd1vw6ok
p3373
I1
sVdop4sgk
p3374
I1
sVdi25386
p3375
I1
sVczm65el
p3376
I1
sVdjuji4q
p3377
I1
sVdh64jxt
p3378
I1
sVd3x5qmg
p3379
I1
sVd3jpr5i
p3380
I1
sVdfgfdvi
p3381
I1
sVdh5xnrt
p3382
I1
sVdh04xey
p3383
I1
sVdgyb7f6
p3384
I1
sVdbkgs5e
p3385
I1
sVdggqoj3
p3386
I1
sVdmov58j
p3387
I1
sVd4hwbrr
p3388
I1
sVdesl6ow
p3389
I1
sVcyxba5k
p3390
I3
sVczn4f1h
p3391
I1
sVdnhrvke
p3392
I1
sVd7rsdc9
p3393
I1
sVd0s94rk
p3394
I1
sVdemuj90
p3395
I1
sVdizxnew
p3396
I1
sVdecxg7c
p3397
I1
sVdcnsmzp
p3398
I1
sVd0hzi4m
p3399
I1
sVcze2ac9
p3400
I1
sVdbyt5qc
p3401
I1
sVdgtbjrz
p3402
I2
sVcym3ml9
p3403
I1
sVd0uaevn
p3404
I1
sVcyhzya6
p3405
I1
sVd7p4e7u
p3406
I1
sVdjymyzx
p3407
I1
sVd1h1dn7
p3408
I2
sVd8sgmzq
p3409
I1
sVdnl8kwo
p3410
I1
sVd8jsyh0
p3411
I1
sVdcrnw59
p3412
I1
sVd22kd7a
p3413
I1
sVdkoqent
p3414
I2
sVdardvfv
p3415
I1
sVdig3zth
p3416
I1
sVdgyine6
p3417
I1
sVdncr9ts
p3418
I2
sVd2o4qg3
p3419
I1
sVczplozy
p3420
I1
sVd06pse6
p3421
I1
sVd8dwc3j
p3422
I1
sVd72hnzh
p3423
I1
sVdimugxx
p3424
I2
sVdc6t2ki
p3425
I1
sVdaqsy92
p3426
I1
sVd377om0
p3427
I1
sVdaf2v36
p3428
I1
sVd3jq3ge
p3429
I1
sVdkqjv6c
p3430
I1
sVdfmzfsv
p3431
I1
sVdtcdyvj
p3432
I1
sVdjz2fvo
p3433
I1
sVd5meqwr
p3434
I1
sVdal0vb5
p3435
I1
sVdkop75f
p3436
I1
sVdi9zolp
p3437
I1
sVcyktywf
p3438
I1
sVd1qp0st
p3439
I1
sVd5lww9x
p3440
I1
sVdpxzq16
p3441
I1
sVd8a0shj
p3442
I1
sVdbdtwnx
p3443
I1
sVczf8t4m
p3444
I1
sVdk65ngo
p3445
I1
sVdmwwqlt
p3446
I1
sVdml1qsy
p3447
I1
sVdenxpn3
p3448
I2
sVd33acv5
p3449
I1
sVd30k887
p3450
I1
sVdn2r3g6
p3451
I1
sVczk3o4m
p3452
I1
sVd9dl7xw
p3453
I1
sVdggxlhk
p3454
I1
sVd4xz5tg
p3455
I1
sVdh2dv5t
p3456
I1
sVdhovvpx
p3457
I1
sVdfppy74
p3458
I1
sVdivetkb
p3459
I1
sVd0zrviv
p3460
I2
sVdoyikym
p3461
I1
sVd2gnwqd
p3462
I1
sVdag6vji
p3463
I1
sVcz8hq1y
p3464
I1
sVd084qf9
p3465
I1
sVd13a1os
p3466
I1
sVd4bcr8v
p3467
I1
sVd49jxx2
p3468
I1
sVd2q1vue
p3469
I1
sVdffmwae
p3470
I1
sVdoaxtz3
p3471
I1
sVdr6s57n
p3472
I1
sVdn3ztzs
p3473
I1
sVd7qwf87
p3474
I1
sVddbnrq7
p3475
I1
sVd00sqq9
p3476
I1
sVddgh56w
p3477
I1
sVdn1r3ld
p3478
I2
sVdhbwnxk
p3479
I1
sVddxddiz
p3480
I1
sVd3ntaaq
p3481
I1
sVdn6jzyk
p3482
I1
sVdmx8a5p
p3483
I1
sVd15vnar
p3484
I1
sVdi4ca73
p3485
I2
sVdhomt8l
p3486
I1
sVd1uekmz
p3487
I1
sVddcbs9o
p3488
I1
sVde9gmej
p3489
I1
sVczn3exa
p3490
I1
sVdpd6ml0
p3491
I1
sVcz14xhu
p3492
I1
sVdf04ie4
p3493
I1
sVdeibffw
p3494
I1
sVd4z7e9l
p3495
I1
sVdmhrrp3
p3496
I1
sVd74cmkz
p3497
I1
sVdgfcr8q
p3498
I1
sVdjzofa7
p3499
I1
sVdee4isz
p3500
I1
sVdf0b8lw
p3501
I1
sVd6fdcer
p3502
I1
sVd71nzvc
p3503
I1
sVdhi6aye
p3504
I1
sVdi8y1vv
p3505
I1
sVd1agvcc
p3506
I1
sVd9mo643
p3507
I1
sVd1lzmv0
p3508
I1
sVcywp6rh
p3509
I2
sVdijjhgt
p3510
I1
sVd0rbeoq
p3511
I1
sVdex1wmv
p3512
I1
sVdg7crqm
p3513
I1
sVd5lfyzk
p3514
I1
sVdr0ptf3
p3515
I2
sVdn629cl
p3516
I1
sVddt73u4
p3517
I1
sVdh7fhvq
p3518
I1
sVdkyynle
p3519
I1
sVd16jt6r
p3520
I1
sVdjt8qoz
p3521
I1
sVdefwi4w
p3522
I1
sVcz6zxfk
p3523
I1
sVd6l4k2s
p3524
I1
sVdruoh8w
p3525
I1
sVd21wlqp
p3526
I1
sVd5zas1g
p3527
I3
sVcz973wp
p3528
I1
sVdh0p87l
p3529
I1
sVd9b3xki
p3530
I1
sVd6twigh
p3531
I1
sVd3liia6
p3532
I1
sVd0k6egh
p3533
I2
sVdd740xa
p3534
I1
sVdfm49mu
p3535
I1
sVddabv3h
p3536
I2
sVd5vrt0q
p3537
I1
sVcz4ji5l
p3538
I1
sVdqaa5ii
p3539
I1
sVcytb4zz
p3540
I1
sVd83xzwn
p3541
I1
sVdmsa8xb
p3542
I1
sVd6xaaip
p3543
I2
sVdgh1fkk
p3544
I1
sVdj8al0i
p3545
I1
sVd9qx5v6
p3546
I1
sVcz4kfls
p3547
I1
sVd0asovi
p3548
I1
sVdejqs3o
p3549
I1
sVcznpja3
p3550
I1
sVdazpq68
p3551
I1
sVde3zkpq
p3552
I1
sVczvfm6d
p3553
I1
sVdmequgo
p3554
I1
sVd2urdj3
p3555
I1
sVczo36a5
p3556
I1
sVd3r6560
p3557
I1
sVd7xbgxi
p3558
I1
sVdassi7y
p3559
I1
sVdfyn9ww
p3560
I1
sVcyzuor1
p3561
I1
sVdjfqqlr
p3562
I1
sVde2dvom
p3563
I1
sVd7a0ono
p3564
I1
sVdgjys5h
p3565
I1
sVd48dzo4
p3566
I1
sVdjtlyze
p3567
I1
sVd11p5ip
p3568
I1
sVd0wn8t6
p3569
I1
sVdb1cmow
p3570
I2
sVdr3b18h
p3571
I1
sVdi0vlc6
p3572
I1
sVd4fdv19
p3573
I1
sVcyp4fn5
p3574
I1
sVczuivep
p3575
I1
sVdfepf2f
p3576
I1
sVd1hodws
p3577
I1
sVd8oruf3
p3578
I1
sVd5l3t1q
p3579
I1
sVd45yogz
p3580
I1
sVcynmwf0
p3581
I1
sVcywkzcf
p3582
I1
sVcyidhp6
p3583
I1
sVdqn1l24
p3584
I1
sVdpokri7
p3585
I1
sVd2d9yg1
p3586
I1
sVdrhnqck
p3587
I1
sVdck7qao
p3588
I1
sVd1kv153
p3589
I1
sVddwmz0a
p3590
I2
sVd8zxs6a
p3591
I1
sVdtip9p7
p3592
I1
sVdn4jf6f
p3593
I1
sVdpypbq0
p3594
I1
sVd2g6sar
p3595
I1
sVdmndave
p3596
I1
sVd5nq0cy
p3597
I1
sVdgbaha1
p3598
I1
sVdf63m8x
p3599
I1
sVd8k7g4o
p3600
I1
sVd14t58o
p3601
I2
sVddr3jq0
p3602
I1
sVdjkevok
p3603
I1
sVdffcpxo
p3604
I1
sVd5d6bzv
p3605
I1
sVd9lacbd
p3606
I1
sVdjfwjq4
p3607
I2
sVdq7cc6g
p3608
I1
sVdohnqcf
p3609
I1
sVdsdx379
p3610
I1
sVdbjylwg
p3611
I1
sVdr16gv6
p3612
I1
sVcyv2cbx
p3613
I1
sVdgpkg21
p3614
I1
sVdq3ktv4
p3615
I1
sVdgba1xr
p3616
I1
sVdcrha6l
p3617
I1
sVdoi52c3
p3618
I1
sVd3v7cas
p3619
I1
sVd01qhii
p3620
I1
sVde3yefu
p3621
I1
sVcyitqh5
p3622
I1
sVdniuquj
p3623
I1
sVd9t8ii2
p3624
I1
sVdgzokjh
p3625
I1
sVdbkqg0r
p3626
I1
sVdad7ypq
p3627
I1
sVd26lupb
p3628
I1
sVdai52mw
p3629
I1
sVdnh6qa6
p3630
I1
sVdksaspi
p3631
I1
sVd2aw178
p3632
I1
sVd5vrvwt
p3633
I1
sVdimjxtd
p3634
I1
sVd16zyeb
p3635
I1
sVczm8v0p
p3636
I1
sVdo7qlei
p3637
I1
sVdqdvz05
p3638
I1
sVd1h992u
p3639
I1
sVczu9k40
p3640
I2
sVczjbu5t
p3641
I1
sVdc8dv1n
p3642
I1
sVdao9rk4
p3643
I2
sVd0hytoy
p3644
I1
sVcz1g22d
p3645
I2
sVd56fyuy
p3646
I1
sVd1ttqg9
p3647
I1
sVdgnlavu
p3648
I1
sVcywgzcq
p3649
I1
sVdhx12fz
p3650
I1
sVd8vsjcm
p3651
I1
sVdjmq6dp
p3652
I1
sVdhsh9ke
p3653
I1
sVd4o0z7h
p3654
I1
sVd0g3peg
p3655
I1
sVd0uvbuo
p3656
I1
sVddvc3gu
p3657
I1
sVdpy64zz
p3658
I1
sVd1w1qq0
p3659
I2
sVdkwr6ce
p3660
I1
sVddwofep
p3661
I1
sVd60e1ck
p3662
I1
sVddon7tx
p3663
I1
sVd125mb8
p3664
I1
sVd1cj82l
p3665
I1
sVdcl596d
p3666
I1
sVdivgllk
p3667
I1
sVdco7bar
p3668
I2
sVddk0aoh
p3669
I1
sVd1gd0jd
p3670
I1
sVd78wjxv
p3671
I1
sVczevntn
p3672
I1
sVdeq8h7q
p3673
I1
sVd7mmltv
p3674
I1
sVdj02zcg
p3675
I1
sVdmgla5j
p3676
I1
sVd1isnjm
p3677
I1
sVd0byzm4
p3678
I2
sVdqh84iv
p3679
I1
sVcymutpi
p3680
I1
sVdks26z0
p3681
I1
sVd10z7h5
p3682
I1
sVczvv0lh
p3683
I1
sVde38xjw
p3684
I1
sVdaet6o5
p3685
I1
sVdew692v
p3686
I1
sVd0gy7yx
p3687
I1
sVdiq5i21
p3688
I1
sVddxljuf
p3689
I1
sVd8ve0tm
p3690
I1
sVdiz6csg
p3691
I1
sVd3kk4kf
p3692
I1
sVdf3chkf
p3693
I1
sVdd1p8uk
p3694
I1
sVd7fe2v0
p3695
I1
sVdigqha7
p3696
I1
sVd5dnt2s
p3697
I1
sVd57vsgs
p3698
I1
sVd0dzb06
p3699
I1
sVdsxia9x
p3700
I2
sVd3603yl
p3701
I2
sVdia02jm
p3702
I1
sVdftgsul
p3703
I1
sVddeeaki
p3704
I1
sVd41y813
p3705
I1
sVd120qw4
p3706
I1
sVdclisbg
p3707
I1
sVd20gtjr
p3708
I4
sVd9njkw3
p3709
I1
sVdb5x3fe
p3710
I1
sVdndv1vf
p3711
I1
sVdalrfqu
p3712
I1
sVd7k9at5
p3713
I1
sVd5b9fyw
p3714
I1
sVd7f6kyz
p3715
I1
sVcyieo7r
p3716
I2
sVdcjqeha
p3717
I1
sVdje2a98
p3718
I2
sVd891q5x
p3719
I1
sVd3x7cg2
p3720
I1
sVdklv71m
p3721
I1
sVdclc6k0
p3722
I1
sVdf5hw7s
p3723
I1
sVdfxivla
p3724
I1
sVd5sngxm
p3725
I1
sVdqibf2w
p3726
I1
sVd4fas65
p3727
I1
sVd3p9za2
p3728
I1
sVdkqiawg
p3729
I1
sVdb0eqob
p3730
I1
sVd15i4cd
p3731
I1
sVd9y12tt
p3732
I1
sVdbji5ay
p3733
I1
sVd62y2yu
p3734
I1
sVcz3x8n6
p3735
I1
sVczwbt45
p3736
I1
sVdbb2nbj
p3737
I1
sVd9ne4et
p3738
I1
sVdt5bi3e
p3739
I1
sVd3598vz
p3740
I1
sVda1akmo
p3741
I1
sVczns0lc
p3742
I1
sVd1sow8j
p3743
I1
sVcz4ebtc
p3744
I1
sVd2oft6i
p3745
I1
sVd7klb2m
p3746
I2
sVd3eycpv
p3747
I1
sVdedk5a8
p3748
I1
sVdp58t7g
p3749
I1
sVdjjqyzu
p3750
I1
sVdk4tvw5
p3751
I1
sVd30642k
p3752
I2
sVd1t5zd7
p3753
I1
sVd0og6r6
p3754
I1
sVd3tby2a
p3755
I1
sVdnpb81r
p3756
I1
sVd4vsnts
p3757
I1
sVddzpo2n
p3758
I1
sVdd7jrvi
p3759
I1
sVdfvc8n4
p3760
I2
sVdg979pw
p3761
I1
sVdfl2295
p3762
I1
sVdabp036
p3763
I1
sVczwrgoo
p3764
I1
sVdie6ghx
p3765
I1
sVdpl7z01
p3766
I2
sVddi9pog
p3767
I1
sVdcqi255
p3768
I1
sVd9fl4y7
p3769
I1
sVdrn7k49
p3770
I1
sVdpmfzeq
p3771
I1
sVdb5dloy
p3772
I1
sVd1263s4
p3773
I2
sVd9wwt4f
p3774
I1
sVdkn5g84
p3775
I1
sVdg98366
p3776
I1
sVd7c6n2b
p3777
I1
sVddej049
p3778
I1
sVd1bnyi1
p3779
I1
sVd0pomsn
p3780
I1
sVd0h581r
p3781
I1
sVd9xbq8r
p3782
I1
sVdjrs34r
p3783
I1
sVd14apb2
p3784
I1
sVdh0srrn
p3785
I1
sVd33d2wg
p3786
I2
sVd0jsrx0
p3787
I1
sVdnroimp
p3788
I1
sVdd5jiqv
p3789
I1
sVd4rypx0
p3790
I1
sVd148cdq
p3791
I1
sVdrz1vht
p3792
I1
sVdgvtw8n
p3793
I1
sVdhjaoyn
p3794
I1
sVd1jjodx
p3795
I2
sVddzf4e0
p3796
I1
sVcytx6qw
p3797
I1
sVdfqz85w
p3798
I1
sVd0c3ql9
p3799
I1
sVdehkpnq
p3800
I1
sVd02ypqb
p3801
I1
sVd0vvizp
p3802
I1
sVcyy095u
p3803
I1
sVcyr671m
p3804
I1
sVdag3ml0
p3805
I1
sVddgr1oj
p3806
I2
sVdf2e3pm
p3807
I1
sVdc3xh56
p3808
I1
sVdgjl3vt
p3809
I1
sVd7qhwhu
p3810
I2
sVdo4cjpa
p3811
I1
sVdgn983r
p3812
I1
sVdiuxlrj
p3813
I1
sVdjom6ah
p3814
I1
sVdeany3z
p3815
I1
sVd3e2yrt
p3816
I1
sVdg0k5uy
p3817
I1
sVd9ytxmg
p3818
I1
sVdgy76cz
p3819
I1
sVd8gx6sz
p3820
I2
sVdaw1e45
p3821
I1
sVd0oiilo
p3822
I1
sVcyuldux
p3823
I1
sVdc8rn9k
p3824
I1
sVdfe3e89
p3825
I1
sVd8502ok
p3826
I1
sVd4a739b
p3827
I1
sVd1364og
p3828
I1
sVczai9w8
p3829
I1
sVdsupqx1
p3830
I1
sVdepvoag
p3831
I1
sVdgip7gc
p3832
I1
sVdbd30qf
p3833
I1
sVdfr4myj
p3834
I1
sVd5jzpi3
p3835
I1
sVd9swvg0
p3836
I1
sVdi2j0pb
p3837
I1
sVd7i6vq5
p3838
I1
sVdt8boaw
p3839
I1
sVdp7s7kh
p3840
I1
sVd9nw9kj
p3841
I1
sVdi0nca8
p3842
I1
sVdoek91u
p3843
I1
sVdohadq8
p3844
I1
sVd7uaoy1
p3845
I1
sVdd6iwzg
p3846
I1
sVd3dnfo9
p3847
I1
sVdfkreww
p3848
I1
sVddq7w4e
p3849
I1
sVdfr0fcg
p3850
I2
sVd3i9ea3
p3851
I1
sVdp99151
p3852
I1
sVdf6grl3
p3853
I2
sVd4fu644
p3854
I1
sVdimpi23
p3855
I1
sVdf3bqeb
p3856
I1
sVd21jp1u
p3857
I1
sVd1piygr
p3858
I1
sVdfsxmbf
p3859
I1
sVdel55t9
p3860
I1
sVd3pvb05
p3861
I1
sVd696ot9
p3862
I1
sVdfecmtr
p3863
I1
sVdi5qt4t
p3864
I2
sVdelax9m
p3865
I1
sVdaeefsm
p3866
I1
sVdhbxs45
p3867
I1
sVdf1qwzv
p3868
I1
sVd7mojj0
p3869
I1
sVd9zhghq
p3870
I1
sVdii6a6y
p3871
I1
sVd9zt8cr
p3872
I1
sVdnns1fu
p3873
I1
sVdms9ces
p3874
I1
sVd2ircxi
p3875
I2
sVd1a49f5
p3876
I1
sVdhyvkmv
p3877
I1
sVczugjqu
p3878
I1
sVdepm65q
p3879
I1
sVdfle8zq
p3880
I1
sVd08nxu2
p3881
I1
sVdb72tsc
p3882
I1
sVdtgjy1q
p3883
I1
sVd14726k
p3884
I1
sVdihey38
p3885
I1
sVda60o64
p3886
I1
sVdqe6a6u
p3887
I1
sVdsu9vef
p3888
I1
sVd87270k
p3889
I1
sVdd3jqk8
p3890
I1
sVdg4qnoc
p3891
I1
sVczhz9iz
p3892
I1
sVddsyvzv
p3893
I1
sVdnacs8e
p3894
I1
sVdhx3xxg
p3895
I1
sVde1shf1
p3896
I2
sVdb9goza
p3897
I1
sVd4hpsrm
p3898
I1
sVdotrh6t
p3899
I1
sVczb4od5
p3900
I1
sVd23y9ej
p3901
I3
sVddcq7ak
p3902
I1
sVd6tihon
p3903
I1
sVdd75bra
p3904
I1
sVcznne7u
p3905
I1
sVdkw7o9f
p3906
I1
sVd5uhjkk
p3907
I1
sVd1ohef4
p3908
I1
sVcyzviyp
p3909
I1
sVd94xtjh
p3910
I1
sVdimlckt
p3911
I1
sVdab0mfi
p3912
I1
sVdcekrls
p3913
I1
sVdpinuys
p3914
I1
sVdei97o9
p3915
I1
sVd8326tj
p3916
I1
sVdj7647j
p3917
I1
sVd1bu2eq
p3918
I1
sVdp2fivd
p3919
I1
sVd4pr3lm
p3920
I1
sVd4x6l5v
p3921
I1
sVdda6z22
p3922
I1
sVd7slssd
p3923
I1
sVdk1v249
p3924
I1
sVdbwkn6l
p3925
I1
sVczegm8n
p3926
I1
sVd21ei35
p3927
I1
sVdnijnjw
p3928
I1
sVd38jgls
p3929
I1
sVdt9lipi
p3930
I2
sVdr73p35
p3931
I1
sVdemajx8
p3932
I1
sVd2hmxad
p3933
I1
sVd1wgtnn
p3934
I1
sVd04maiy
p3935
I1
sVdgtqwdi
p3936
I1
sVdmgu9av
p3937
I1
sVd5e56ju
p3938
I1
sVdb268af
p3939
I1
sVdbdjdtv
p3940
I1
sVdcerd6y
p3941
I1
sVd20wrvw
p3942
I1
sVdhhpdsj
p3943
I1
sVdnp4c6c
p3944
I1
sVdbwx378
p3945
I1
sVd8bfhq6
p3946
I1
sVdplau66
p3947
I1
sVdfwo7af
p3948
I1
sVdjkcncf
p3949
I1
sVdeizxi0
p3950
I1
sVd245ng8
p3951
I1
sVdah66xc
p3952
I1
sVd71jo8o
p3953
I1
sVdb4qx7y
p3954
I2
sVd4xsgqz
p3955
I1
sVd3dooox
p3956
I1
sVd5fg01j
p3957
I1
sVcyzexte
p3958
I1
sVd4hw9ki
p3959
I1
sVdkma8ug
p3960
I1
sVdfiupqb
p3961
I1
sVd1qtt19
p3962
I1
sVdb40ryj
p3963
I1
sVdi86puv
p3964
I3
sVd6zshk7
p3965
I1
sVdaby8ad
p3966
I1
sVddwdpeu
p3967
I1
sVd998lhh
p3968
I1
sVd024na9
p3969
I1
sVdaf0h7j
p3970
I1
sVd39kwrx
p3971
I1
sVd58u4w6
p3972
I1
sVdqmwwjs
p3973
I1
sVd312yvz
p3974
I2
sVdf1zyne
p3975
I2
sVd5q7h1x
p3976
I1
sVdmpkan4
p3977
I1
sVderc7b8
p3978
I1
sVda1fljw
p3979
I1
sVd68oocf
p3980
I1
sVd1681m1
p3981
I1
sVdktb0sm
p3982
I1
sVcz5caco
p3983
I1
sVdd7yuno
p3984
I2
sVd59wd1s
p3985
I1
sVdgghfei
p3986
I1
sVd9fzelp
p3987
I1
sVddu40k7
p3988
I1
sVdcnzk7t
p3989
I2
sVdqoigm2
p3990
I1
sVdn14c4h
p3991
I2
sVcyhvqem
p3992
I1
sVdjqnr32
p3993
I1
sVd9n39bt
p3994
I1
sVd5pvgcd
p3995
I1
sVdddvs2l
p3996
I1
sVdkywujz
p3997
I1
sVdaovapz
p3998
I2
sVczkbsly
p3999
I2
sVcz6idb8
p4000
I1
sVdk059sw
p4001
I1
sVdin265z
p4002
I1
sVdneoy2i
p4003
I2
sVd3r6eyu
p4004
I1
sVd2thr85
p4005
I1
sVd08ecgr
p4006
I2
sVddhr0dv
p4007
I1
sVdhjokd3
p4008
I1
sVddke257
p4009
I1
sVdaijoor
p4010
I1
sVdp6ciay
p4011
I1
sVd4y81fm
p4012
I1
sVd0kmmuk
p4013
I1
sVddwvihl
p4014
I1
sVd1e53d5
p4015
I1
sVda3vuxa
p4016
I1
sVcz1jw3g
p4017
I1
sVdfvccry
p4018
I1
sVdh74gt0
p4019
I4
sVdjuoh3a
p4020
I1
sVd150cnv
p4021
I1
sVdgdqns6
p4022
I1
sVd5eluhn
p4023
I1
sVd5mreog
p4024
I4
sVd0gvdg0
p4025
I1
sVdnsyr1p
p4026
I1
sVczol61m
p4027
I1
sVd6t5hcx
p4028
I1
sVd1qo7db
p4029
I1
sVddeldkq
p4030
I1
sVczgn01s
p4031
I1
sVd9dakw9
p4032
I1
sVcytlqfe
p4033
I1
sVdf4rtf5
p4034
I2
sVdkfx40k
p4035
I1
sVdi0whef
p4036
I1
sVdq4z85d
p4037
I1
sVczo8q36
p4038
I1
sVd8v7qnj
p4039
I1
sVd1cmyfq
p4040
I1
sVdp4ic7o
p4041
I1
sVd4ldjd1
p4042
I1
sVdemh58o
p4043
I2
sVddx9xcm
p4044
I1
sVdaigqew
p4045
I1
sVd0m0cps
p4046
I1
sVds27eej
p4047
I1
sVdpwzup3
p4048
I1
sVdss3beq
p4049
I1
sVczxnhdw
p4050
I1
sVdbfytie
p4051
I1
sVdpvetbv
p4052
I1
sVdcr4s9p
p4053
I1
sVdjbvfhn
p4054
I1
sVdoat19l
p4055
I1
sVddbcacr
p4056
I1
sVdaxme8n
p4057
I1
sVdid43pj
p4058
I1
sVdbe4w32
p4059
I1
sVd5igbix
p4060
I1
sVdmwj0nj
p4061
I1
sVcz1061q
p4062
I1
sVdhr3tcd
p4063
I1
sVd0avjty
p4064
I1
sVdeq4cq9
p4065
I1
sVd64ir1v
p4066
I1
sVdq998t3
p4067
I1
sVdkxvpog
p4068
I1
sVd06kbdu
p4069
I1
sVcyu5pij
p4070
I1
sVddvh6sy
p4071
I1
sVd0ny6vr
p4072
I1
sVdiu8a5i
p4073
I1
sVd7sojre
p4074
I1
sVdgf4rgy
p4075
I1
sVdn8oua9
p4076
I1
sVdavofoh
p4077
I1
sVdcncbwk
p4078
I1
sVd0hk6z1
p4079
I1
sVdruk3kw
p4080
I1
sVdh1vstb
p4081
I1
sVd2kdx5m
p4082
I1
sVdh066in
p4083
I1
sVddhgd2y
p4084
I1
sVdr2nsqq
p4085
I1
sVdfnlwjv
p4086
I1
sVd39n64x
p4087
I1
sVd2qzii0
p4088
I1
sVd1d6d75
p4089
I1
sVdg3kaph
p4090
I1
sVd40zpxc
p4091
I1
sVddbe7qq
p4092
I1
sVd0odglu
p4093
I1
sVde1ja9m
p4094
I1
sVczu0o8e
p4095
I1
sVdaggpao
p4096
I1
sVd6mhwdt
p4097
I1
sVda1yapb
p4098
I1
sVd0857f0
p4099
I1
sVd17zfyn
p4100
I1
sVdau3wpc
p4101
I1
sVd477ruy
p4102
I1
sVd15g7wv
p4103
I1
sVdrjcajr
p4104
I1
sVdggl5z6
p4105
I1
sVd5fv5e4
p4106
I1
sVdilxifu
p4107
I1
sVdmpibdd
p4108
I1
sVdbsxjdq
p4109
I2
sVd1z0p2b
p4110
I2
sVdpjfppx
p4111
I1
sVd0ukx1r
p4112
I1
sVd845d4q
p4113
I1
sVdns99oq
p4114
I1
sVd62gmit
p4115
I1
sVdcpp31c
p4116
I1
sVdenffjp
p4117
I1
sVd1q7a4o
p4118
I1
sVdtcfufa
p4119
I1
sVd19ocos
p4120
I1
sVd221ui8
p4121
I1
sVdc8ogpa
p4122
I1
sVd6bsfs0
p4123
I1
sVd8w4fop
p4124
I1
sVdf1usuw
p4125
I2
sVdemcids
p4126
I1
sVd9sximl
p4127
I1
sVdh7tjmc
p4128
I1
sVdmzcejs
p4129
I1
sVd1qsie3
p4130
I2
sVd0bh2jk
p4131
I1
sVczg5wdq
p4132
I1
sVdi8jygc
p4133
I1
sVdmsbbo5
p4134
I1
sVd67pese
p4135
I1
sVdchtgn3
p4136
I1
sVd3euvij
p4137
I2
sVdpttmnd
p4138
I1
sVcz5kemo
p4139
I2
sVd1xh4ck
p4140
I1
sVdqrhqeg
p4141
I1
sVdazu3eu
p4142
I2
sVdg82b53
p4143
I1
sVdd373c7
p4144
I1
sVda8vilz
p4145
I1
sVd8o2g2d
p4146
I1
sVdi395jd
p4147
I1
sVd7c8h4w
p4148
I1
sVd6hrrmq
p4149
I1
sVd1wwo0e
p4150
I1
sVd8y8xh6
p4151
I1
sVd1855i0
p4152
I1
sVd2flb3p
p4153
I1
sVcyk9gwk
p4154
I1
sVd0ph25y
p4155
I1
sVdq2jnmy
p4156
I1
sVd67r5om
p4157
I1
sVdj23b9f
p4158
I1
sVcz4s2bp
p4159
I1
sVdd6q0uy
p4160
I1
sVd87jkae
p4161
I1
sVd306f4g
p4162
I1
sVdgng8kn
p4163
I1
sVdc1hpt4
p4164
I1
sVdkz9v9g
p4165
I1
sVd1vbjdr
p4166
I1
sVdgqih54
p4167
I1
sVds2ug6x
p4168
I1
sVdhl9s2f
p4169
I1
sVd9fsyrm
p4170
I2
sVdjpuioi
p4171
I1
sVd9xc0l1
p4172
I1
sVdbvxplc
p4173
I1
sVd3n1dae
p4174
I1
sVd1p3sn7
p4175
I1
sVd2650ix
p4176
I1
sVcyk7i5h
p4177
I1
sVczi2ioe
p4178
I1
sVd2k84d3
p4179
I2
sVcyml17k
p4180
I1
sVd4ho4c5
p4181
I1
sVdn649b0
p4182
I1
sVdbxcbl8
p4183
I1
sVd9wqmth
p4184
I1
sVd9i76je
p4185
I1
sVd2jurv6
p4186
I1
sVd5xgedx
p4187
I1
sVd0w0rxk
p4188
I1
sVd0pmeba
p4189
I1
sVd0jhn5g
p4190
I1
sVd1l7az7
p4191
I1
sVd0zpckl
p4192
I1
sVd4z6zin
p4193
I1
sVdgh0fdi
p4194
I1
sVcypvorf
p4195
I1
sVd7fohan
p4196
I1
sVdfv7f8o
p4197
I1
sVdd4y9hd
p4198
I2
sVcyxz99z
p4199
I1
sVdcaijxf
p4200
I1
sVcyuawuj
p4201
I1
sVdd5juc5
p4202
I1
sVd5ucnpu
p4203
I1
sVdj2ur6k
p4204
I1
sVd6b63jy
p4205
I1
sVd47ryvk
p4206
I1
sVddif02h
p4207
I1
sVdi0wcpg
p4208
I1
sVdrj6zvr
p4209
I1
sVdklvh17
p4210
I1
sVd651ts0
p4211
I1
sVd4miw70
p4212
I1
sVdf8o9k3
p4213
I1
sVd2en6db
p4214
I1
sVd1dxnhj
p4215
I1
sVdo59zao
p4216
I1
sVd058pmh
p4217
I1
sVd1evi38
p4218
I1
sVdez6qn8
p4219
I1
sVd8t7rfz
p4220
I1
sVd3yaqh2
p4221
I1
sVdhssczh
p4222
I1
sVd1fuxxd
p4223
I1
sVdgcxsy3
p4224
I1
sVdfz0kmt
p4225
I1
sVdd8w4mi
p4226
I1
sVdrlsl59
p4227
I1
sVdap8uqu
p4228
I1
sVdoaxfid
p4229
I1
sVd50ovgt
p4230
I1
sVdgha907
p4231
I2
sVdt2l4ut
p4232
I1
sVd4u6r7t
p4233
I1
sVdruewke
p4234
I2
sVd5cpcpf
p4235
I1
sVd17lpuy
p4236
I1
sVd8j6xuk
p4237
I1
sVd9rf9d3
p4238
I1
sVdr6lx2z
p4239
I2
sVdhcikzf
p4240
I1
sVdiyoi2a
p4241
I1
sVd5eh2t0
p4242
I1
sVdh7ux4w
p4243
I1
sVdo3n7gr
p4244
I1
sVdakec60
p4245
I1
sVd0oph5c
p4246
I1
sVd481rzh
p4247
I1
sVd3mn1bt
p4248
I1
sVdcrb58x
p4249
I1
sVdflhjf8
p4250
I1
sVd1ffdnd
p4251
I1
sVdfx77nj
p4252
I1
sVd196grf
p4253
I1
sVd1btxxz
p4254
I1
sVd0cf3vy
p4255
I1
sVd31y6dt
p4256
I1
sVdfpe59x
p4257
I1
sVcyzdeu0
p4258
I1
sVd7gdi3c
p4259
I1
sVd4aww6d
p4260
I1
sVd05skxl
p4261
I1
sVdf3prba
p4262
I1
sVdbgl5q9
p4263
I1
sVda9c4tg
p4264
I2
sVd623rgo
p4265
I1
sVdtb4tmj
p4266
I1
sVdp51ntt
p4267
I1
sVdcz6fxi
p4268
I1
sVd0wmlg0
p4269
I1
sVd1aenlu
p4270
I1
sVd80syqn
p4271
I1
sVdj2eiuu
p4272
I1
sVdhn745a
p4273
I1
sVd2cm0ba
p4274
I1
sVdfhaiit
p4275
I1
sVdim1i1j
p4276
I1
sVdf90357
p4277
I1
sVdsb2flw
p4278
I1
sVdijxlp1
p4279
I1
sVddi35fe
p4280
I2
sVdjjru9c
p4281
I1
sVd7sk6o9
p4282
I2
sVd7j2qmv
p4283
I1
sVdgguz50
p4284
I4
sVd0r7hg1
p4285
I1
sVdi4bfyr
p4286
I1
sVdrsnyt1
p4287
I2
sVdohxxve
p4288
I1
sVdeo18ls
p4289
I1
sVd0z8y4e
p4290
I1
sVdqftjt7
p4291
I1
sVdhk5trq
p4292
I1
sVdjir91j
p4293
I1
sVds1e672
p4294
I1
sVdpi1rpz
p4295
I1
sVdq8fgeb
p4296
I1
sVd04jki3
p4297
I1
sVczfyvmw
p4298
I1
sVdkur517
p4299
I1
sVd4xsqjz
p4300
I1
sVd1obzc5
p4301
I1
sVd3y5hsh
p4302
I1
sVd9itwc1
p4303
I1
sVd1202y8
p4304
I1
sVd1h4n1i
p4305
I1
sVd2p9s1k
p4306
I2
sVd8k54p4
p4307
I1
sVd0azgj9
p4308
I1
sVdgt3ll0
p4309
I1
sVdopcp11
p4310
I1
sVdadoenh
p4311
I1
sVdfosu9e
p4312
I1
sVdhyp8t4
p4313
I1
sVd6upicc
p4314
I1
sVdt29s17
p4315
I1
sVdfx0tbm
p4316
I2
sVdq5k5l7
p4317
I1
sVczcoie7
p4318
I1
sVd0qvdv4
p4319
I1
sVd1cdbs6
p4320
I1
sVd5gteww
p4321
I1
sVcyy3ut7
p4322
I1
sVdtevngq
p4323
I1
sVd0upupt
p4324
I1
sVd1wbqh6
p4325
I1
sVdg7zsxm
p4326
I2
sVd3r8vpt
p4327
I2
sVdsy9xsf
p4328
I1
sVdb5g7iu
p4329
I1
sVdqyp0gh
p4330
I1
sVd1oqxdi
p4331
I1
sVd8p4o8r
p4332
I1
sVd233keh
p4333
I1
sVdms81b1
p4334
I1
sVddhmt02
p4335
I1
sVd0xphm1
p4336
I1
sVd7nvjz4
p4337
I1
sVdo15j1v
p4338
I1
sVdd41941
p4339
I1
sVd727hf1
p4340
I1
sVdaiq3bl
p4341
I1
sVd7jz77p
p4342
I1
sVcz03828
p4343
I1
sVd42nxhm
p4344
I1
sVdcqo9hp
p4345
I1
sVdjo8yu0
p4346
I1
sVddas77t
p4347
I1
sVd93008a
p4348
I1
sVd7zat5o
p4349
I1
sVd8gxgso
p4350
I1
sVd8t4iwo
p4351
I1
sVd0jgv8o
p4352
I1
sVdjrn854
p4353
I1
sVd0y5nag
p4354
I1
sVd9phiq0
p4355
I1
sVdee5sje
p4356
I1
sVdqg54nb
p4357
I1
sVczqgxuh
p4358
I2
sVd2gzcw4
p4359
I1
sVd3tfg7q
p4360
I1
sVdp1fhd5
p4361
I1
sVdgg69ay
p4362
I1
sVdoczwao
p4363
I1
sVdhr32i3
p4364
I1
sVcyxdmoe
p4365
I1
sVddnrk9o
p4366
I1
sVdn72xt9
p4367
I1
sVdq3iqqt
p4368
I1
sVd4rnjr7
p4369
I1
sVdjcnfy7
p4370
I1
sVdhuw0b5
p4371
I1
sVd01nmce
p4372
I1
sVdjlo70d
p4373
I1
sVdh1k6h0
p4374
I2
sVdczt6hs
p4375
I1
sVdod31u3
p4376
I1
sVd25958i
p4377
I1
sVdffsxe5
p4378
I1
sVdn5pwuh
p4379
I1
sVdkkb7t6
p4380
I1
sVd6z3k2k
p4381
I1
sVda4ic11
p4382
I1
sVdbaigfy
p4383
I1
sVdfxevt0
p4384
I1
sVd1gd9tg
p4385
I1
sVddos16y
p4386
I1
sVddb445b
p4387
I1
sVdcxg45q
p4388
I1
sVczis2iv
p4389
I1
sVdpuqo9j
p4390
I1
sVd5gu41v
p4391
I1
sVdggu51k
p4392
I1
sVd4s9b3p
p4393
I1
sVd3qtpp2
p4394
I1
sVcyjd2qp
p4395
I1
sVdkyx8r9
p4396
I1
sVcztrith
p4397
I1
sVd9glz88
p4398
I1
sVd5at418
p4399
I2
sVdia0xsn
p4400
I1
sVde6kh3y
p4401
I1
sVdk30opl
p4402
I1
sVdg3hb05
p4403
I1
sVdkuavax
p4404
I1
sVdni34mz
p4405
I2
sVdfe9ll3
p4406
I1
sVczttrgp
p4407
I1
sVd0r7rvc
p4408
I1
sVcz6hg14
p4409
I1
sVdpoicnc
p4410
I1
sVcytxda7
p4411
I2
sVd01b8l9
p4412
I2
sVd29lodd
p4413
I1
sVd21ko3w
p4414
I1
sVdhq1ofi
p4415
I1
sVd69mq9t
p4416
I1
sVdibrtm5
p4417
I1
sVdhyj4tq
p4418
I1
sVdcab5oc
p4419
I1
sVdfmxk9q
p4420
I1
sVczvm1wj
p4421
I1
sVdhqwec5
p4422
I1
sVdcibq5g
p4423
I1
sVdi5s9bu
p4424
I1
sVdenxp9k
p4425
I1
sVd25v6ha
p4426
I1
sVdcg7cs5
p4427
I1
sVd7f67t3
p4428
I1
sVdgn1duv
p4429
I1
sVd4doqka
p4430
I1
sVd2ulhl8
p4431
I1
sVdjtnyz4
p4432
I1
sVczipro7
p4433
I1
sVd3n3lfk
p4434
I1
sVddwht56
p4435
I1
sVddcglt8
p4436
I1
sVd9v0sd1
p4437
I1
sVdcx3f2z
p4438
I1
sVdiffcvb
p4439
I1
sVdmj83x0
p4440
I1
sVdb1fg61
p4441
I2
sVd140o18
p4442
I1
sVdbcy03x
p4443
I1
sVd9o0c7o
p4444
I1
sVczx3338
p4445
I1
sVdfl8lpr
p4446
I1
sVd8nry19
p4447
I1
sVdg1nx14
p4448
I1
sVczsgnct
p4449
I1
sVddi0n88
p4450
I1
sVde2hjvy
p4451
I1
sVdjvhh2y
p4452
I1
sVditjroi
p4453
I1
sVdgqplmv
p4454
I1
sVdj3fjik
p4455
I1
sVdeck3qc
p4456
I3
sVdej4j7z
p4457
I1
sVd3om631
p4458
I1
sVd1bd2a9
p4459
I1
sVdsjhkdf
p4460
I1
sVd7j6yfi
p4461
I1
sVd76k4c5
p4462
I1
sVczx0jfp
p4463
I1
sVd3qivvf
p4464
I1
sVdjt5k5n
p4465
I1
sVd7593ov
p4466
I1
sVdcur5kz
p4467
I2
sVddiihql
p4468
I2
sVd298de2
p4469
I1
sVd9nxg07
p4470
I1
sVd312v04
p4471
I1
sVd8t3xxg
p4472
I3
sVdohlg60
p4473
I1
sVdcr982q
p4474
I2
sVdb3cuec
p4475
I1
sVd3l7zrw
p4476
I1
sVd3m7do2
p4477
I1
sVd07z07e
p4478
I1
sVd136u3k
p4479
I1
sVczzd8w2
p4480
I1
sVd17fqmf
p4481
I1
sVdgwx7ou
p4482
I1
sVcywul2u
p4483
I1
sVd8se8gc
p4484
I1
sVd4tywzl
p4485
I1
sVd04jj70
p4486
I1
sVdp2ddx0
p4487
I1
sVd8nz5um
p4488
I1
sVdfyzcql
p4489
I1
sVdgyh8zj
p4490
I1
sVd21kux0
p4491
I1
sVdd1scxb
p4492
I1
sVdhwjr84
p4493
I1
sVdf9z7h4
p4494
I1
sVdo6fheo
p4495
I1
sVdektxu7
p4496
I1
sVdry40g5
p4497
I2
sVcykdi3r
p4498
I1
sVdb58tvu
p4499
I2
sVd3ojwt8
p4500
I1
sVd2c8jl2
p4501
I1
sVd94q6pc
p4502
I1
sVcykhcqr
p4503
I1
sVdh74n74
p4504
I1
sVdrrjsyw
p4505
I2
sVd6v1fg5
p4506
I1
sVd6y9dvf
p4507
I1
sVdmolzxi
p4508
I1
sVd7gyics
p4509
I1
sVdhn2etw
p4510
I1
sVd3v4xyt
p4511
I1
sVd4jlhmr
p4512
I2
sVdt2pvr9
p4513
I2
sVd2jsov6
p4514
I2
sVd1k4hmg
p4515
I3
sVdf2zsyd
p4516
I2
sVd9wtbub
p4517
I1
sVd9xl9wg
p4518
I1
sVden3jgq
p4519
I1
sVd6l0y2f
p4520
I1
sVdqj68rg
p4521
I1
sVdb0hput
p4522
I1
sVds1gufz
p4523
I1
sVd0lgazs
p4524
I1
sVd25297i
p4525
I1
sVdiohyeb
p4526
I1
sVdhtpqtb
p4527
I1
sVdkfei99
p4528
I1
sVdk79zdk
p4529
I1
sVd2niys8
p4530
I1
sVdjkchai
p4531
I1
sVdh0y396
p4532
I1
sVd90ivso
p4533
I1
sVd19ilt6
p4534
I2
sVd9cm7iq
p4535
I1
sVczum6dj
p4536
I1
sVder8lak
p4537
I1
sVdq9ij85
p4538
I1
sVdf1un7b
p4539
I1
sVd3hfimq
p4540
I2
sVdn4v29d
p4541
I1
sVd1dxpus
p4542
I1
sVd82d4ae
p4543
I1
sVdhh0xep
p4544
I1
sVd9at8ke
p4545
I1
sVd5i175y
p4546
I1
sVcyruqhl
p4547
I1
sVd6ei12c
p4548
I1
sVd920y25
p4549
I1
sVd8tk8ix
p4550
I1
sVd1d9sfx
p4551
I1
sVdmfiqmx
p4552
I1
sVdgo6lje
p4553
I1
sVdbc2etk
p4554
I1
sVd84h7xq
p4555
I1
sVcz11fbp
p4556
I1
sVd0h57hq
p4557
I1
sVdh4jr7m
p4558
I2
sVd4y7fo8
p4559
I1
sVdq2ww4q
p4560
I1
sVcyiafxx
p4561
I1
sVda9kx39
p4562
I1
sVdia1lsx
p4563
I1
sVd3e1tfb
p4564
I1
sVd0csjbw
p4565
I1
sVd4n7yyn
p4566
I1
sVd5aw94e
p4567
I1
sVd1qsjk6
p4568
I1
sVdc3lzgw
p4569
I1
sVd380bgv
p4570
I1
sVcyjn51l
p4571
I1
sVd3nkhtn
p4572
I2
sVdei4p9r
p4573
I1
sVd12lesk
p4574
I1
sVd9uy4i5
p4575
I2
sVczwcj3h
p4576
I3
sVdtab57s
p4577
I1
sVdmx1jmv
p4578
I1
sVdoj6qzh
p4579
I1
sVdqsdtyo
p4580
I1
sVd10kkrx
p4581
I1
sVdjxfhbq
p4582
I1
sVd9iwxr2
p4583
I1
sVdh9cf3i
p4584
I1
sVdik95sd
p4585
I1
sVd36oufs
p4586
I1
sVd57qu3x
p4587
I1
sVd9qtuca
p4588
I1
sVd8ai05i
p4589
I1
sVczbf61m
p4590
I2
sVd3md9gl
p4591
I1
sVddasqbh
p4592
I1
sVdikwc7m
p4593
I1
sVdfkvwxi
p4594
I1
sVd1ljt89
p4595
I1
sVdb376ed
p4596
I1
sVcyr3e1d
p4597
I1
sVdc5qaaz
p4598
I1
sVdjmred1
p4599
I1
sVd2heu3a
p4600
I1
sVdf074r2
p4601
I1
sVdbpxtds
p4602
I1
sVdbxrdbw
p4603
I1
sVcyvrcjg
p4604
I1
sVdbc6iod
p4605
I1
sVdindp66
p4606
I2
sVddq2js5
p4607
I1
sVd48b7pp
p4608
I1
sVdndq7mn
p4609
I1
sVdkgh5v2
p4610
I1
sVdnv9ptb
p4611
I1
sVdfxbqb8
p4612
I1
sVdf1qcod
p4613
I1
sVdaejoax
p4614
I1
sVdj68k57
p4615
I1
sVczmz6ma
p4616
I1
sVd0hveuu
p4617
I1
sVd3jln1e
p4618
I1
sVdggfs9r
p4619
I1
sVd3i3u2c
p4620
I1
sVczjcllu
p4621
I1
sVcztjr6q
p4622
I1
sVddss2db
p4623
I1
sVdji9tq0
p4624
I1
sVd82pto0
p4625
I1
sVdaq4mje
p4626
I1
sVdj6sel3
p4627
I1
sVdcizsw2
p4628
I1
sVd0n5r5o
p4629
I1
sVdhxr0xo
p4630
I1
sVcyso5gn
p4631
I1
s.