(dp0
Vczc75g2
p1
I1
s.(dp0
Vczcxkfa
p1
I1
sVczc75g2
p2
I1
s.(dp0
Vczcxkfa
p1
I1
sVczc75g2
p2
I1
s.(dp0
Vczc75g2
p1
I1
sVd01r72t
p2
I1
s.(dp0
Vczc75g2
p1
I1
sVd3htw3w
p2
I1
s.(dp0
Vczc75g2
p1
I1
sVd4jqykd
p2
I1
s.(dp0
Vczc75g2
p1
I1
sVd58ynwb
p2
I1
s.(dp0
Vczc75g2
p1
I1
sVd5iuarf
p2
I1
s.(dp0
Vczc75g2
p1
I1
sVd7i35hi
p2
I1
s.(dp0
Vczc75g2
p1
I1
sVd9qs03l
p2
I1
s.(dp0
Vczc75g2
p1
I1
sVdck0zmg
p2
I1
s.(dp0
Vczc75g2
p1
I1
sVdck0zmg
p2
I1
s.(dp0
Vczc75g2
p1
I1
sVdf1uw7o
p2
I1
s.(dp0
Vczc75g2
p1
I1
sVdh3jqmj
p2
I1
s.(dp0
Vczc75g2
p1
I1
sVdok8ma6
p2
I1
s.(dp0
Vczc75g2
p1
I1
sVdpqaw1b
p2
I1
s.