(dp0
Vcyzbko8
p1
I1
s.(dp0
Vcyzbko8
p1
I1
sVcz16r9p
p2
I1
s.(dp0
Vcyzbko8
p1
I1
sVcz1xyxt
p2
I1
s.(dp0
Vcyzbko8
p1
I1
sVczp0anb
p2
I1
s.(dp0
Vcyzbko8
p1
I1
sVd09ncjb
p2
I1
s.(dp0
Vcyzbko8
p1
I1
sVd0zo0j9
p2
I1
s.(dp0
Vcyzbko8
p1
I1
sVd0zo0j9
p2
I1
s.(dp0
Vd0zoiej
p1
I1
sVcyzbko8
p2
I1
s.(dp0
Vcyzbko8
p1
I1
sVd12fma7
p2
I1
s.(dp0
Vd12wcsq
p1
I1
sVcyzbko8
p2
I1
s.(dp0
Vcyzbko8
p1
I1
sVd1atnhf
p2
I1
s.(dp0
Vd1yw0j2
p1
I1
sVcyzbko8
p2
I1
s.(dp0
Vcyzbko8
p1
I1
sVd1zqlvt
p2
I1
s.(dp0
Vcyzbko8
p1
I1
sVd2ou0pd
p2
I1
s.(dp0
Vcyzbko8
p1
I1
sVd2sawbm
p2
I1
s.(dp0
Vcyzbko8
p1
I1
sVd3dmoh1
p2
I1
s.(dp0
Vcyzbko8
p1
I1
sVd3dmoh1
p2
I1
s.(dp0
Vcyzbko8
p1
I1
sVd3dmoh1
p2
I1
s.(dp0
Vcyzbko8
p1
I1
sVd3dmoh1
p2
I1
s.(dp0
Vcyzbko8
p1
I1
sVd721fnu
p2
I1
s.(dp0
Vcyzbko8
p1
I1
sVd7zfvz5
p2
I1
s.(dp0
Vcyzbko8
p1
I1
sVd89djw0
p2
I1
s.(dp0
Vcyzbko8
p1
I1
sVd955ick
p2
I1
s.(dp0
Vcyzbko8
p1
I1
sVdbjb3wv
p2
I1
s.(dp0
Vcyzbko8
p1
I1
sVdccnaj1
p2
I1
s.(dp0
Vcyzbko8
p1
I1
sVddiirrf
p2
I1
s.(dp0
Vcyzbko8
p1
I1
sVddiirrf
p2
I1
s.(dp0
Vcyzbko8
p1
I1
sVddiirrf
p2
I1
s.(dp0
Vddja6tp
p1
I1
sVcyzbko8
p2
I1
s.(dp0
Vddja6tp
p1
I1
sVcyzbko8
p2
I1
s.(dp0
Vcyzbko8
p1
I1
sVdenuugp
p2
I1
s.(dp0
Vcyzbko8
p1
I1
sVdenuugp
p2
I1
s.(dp0
Vcyzbko8
p1
I1
sVdi0jjbi
p2
I1
s.(dp0
Vcyzbko8
p1
I1
sVdjvw1s8
p2
I1
s.(dp0
Vcyzbko8
p1
I1
sVdk928gy
p2
I1
s.(dp0
Vcyzbko8
p1
I1
sVdkncv0t
p2
I1
s.(dp0
Vcyzbko8
p1
I1
sVdmhfe02
p2
I1
s.(dp0
Vcyzbko8
p1
I1
sVdmir68i
p2
I1
s.(dp0
Vdo9rsnl
p1
I1
sVcyzbko8
p2
I1
s.(dp0
Vcyzbko8
p1
I1
sVdp2lbzz
p2
I1
s.(dp0
Vcyzbko8
p1
I1
sVdqqpe2w
p2
I1
s.(dp0
Vcyzbko8
p1
I1
sVdri97om
p2
I1
s.(dp0
Vcyzbko8
p1
I1
sVdsvllfg
p2
I1
s.