(dp0
Vd96xpny
p1
I1
s.(dp0
Vd96xpny
p1
I2
s.(dp0
Vd96xpny
p1
I2
s.(dp0
Vd96xpny
p1
I2
s.(dp0
Vd96xpny
p1
I1
sVdb7oxr8
p2
I1
s.(dp0
Vd96xpny
p1
I1
sVdb7oxr8
p2
I1
s.(dp0
Vd96xpny
p1
I1
sVdrvomst
p2
I1
s.