(dp0
Vcyndi4m
p1
I1
s.(dp0
Vcyndi4m
p1
I1
sVd16xdp4
p2
I1
s.(dp0
Vd1v002f
p1
I1
sVcyndi4m
p2
I1
s.(dp0
Vd2snawt
p1
I1
sVcyndi4m
p2
I1
s.(dp0
Vcyndi4m
p1
I1
sVd46563t
p2
I1
s.(dp0
Vd467cs1
p1
I1
sVcyndi4m
p2
I1
s.(dp0
Vcyndi4m
p1
I1
sVd5lr94a
p2
I1
s.(dp0
Vcyndi4m
p1
I1
sVd5u7vod
p2
I1
s.(dp0
Vd7wldyg
p1
I1
sVcyndi4m
p2
I1
s.(dp0
Vd8vited
p1
I1
sVcyndi4m
p2
I1
s.(dp0
Vd96xpny
p1
I1
sVcyndi4m
p2
I1
s.(dp0
Vcyndi4m
p1
I1
sVd9xb23r
p2
I1
s.(dp0
Vcyndi4m
p1
I1
sVdazomjg
p2
I1
s.(dp0
Vcyndi4m
p1
I1
sVdazomjg
p2
I1
s.(dp0
Vcyndi4m
p1
I1
sVdbndj5q
p2
I1
s.(dp0
Vdcxtj2f
p1
I1
sVcyndi4m
p2
I1
s.(dp0
Vdcxtj2f
p1
I1
sVcyndi4m
p2
I1
s.(dp0
Vdcxtj2f
p1
I1
sVcyndi4m
p2
I1
s.(dp0
Vdifio6c
p1
I1
sVcyndi4m
p2
I1
s.(dp0
Vdmiga3b
p1
I1
sVcyndi4m
p2
I1
s.(dp0
Vdmiga3b
p1
I1
sVcyndi4m
p2
I1
s.(dp0
Vdnku9o3
p1
I1
sVcyndi4m
p2
I1
s.(dp0
Vcyndi4m
p1
I1
sVdnzy5ek
p2
I1
s.(dp0
Vdrvl95y
p1
I1
sVcyndi4m
p2
I1
s.(dp0
Vcyndi4m
p1
I1
sVdtenpt7
p2
I1
s.