(dp0
Vcz8pqvo
p1
I1
sVd46jnfv
p2
I1
sVcyve8i7
p3
I1
sVdomgaxx
p4
I1
sVdbqlaab
p5
I1
sVd5m064i
p6
I2
sVd1fhlv6
p7
I1
sVdro3azl
p8
I1
sVdhc4f4k
p9
I1
sVdait9nw
p10
I1
sVdhhlnwj
p11
I1
sVd1k64ie
p12
I1
sVdro37e9
p13
I2
sVd06q9o3
p14
I2
sVd5ll0mt
p15
I1
sVd0ezvmp
p16
I1
sVd1feq06
p17
I1
sVde1na2h
p18
I2
sVd4w7d17
p19
I1
sVddao129
p20
I1
sVdkx10yc
p21
I1
sVcz8dmcr
p22
I1
sVdijnjlw
p23
I1
sVdn5yv7n
p24
I1
sVd7c4sg8
p25
I1
sVdat57pd
p26
I1
sVd30jbrj
p27
I1
sVdo5rg5f
p28
I1
sVdq708r3
p29
I1
sVdpflzbh
p30
I1
sVd7wanyp
p31
I1
sVddnm4vt
p32
I1
sVdhhnz8o
p33
I1
sVd001f6c
p34
I1
sVd2ri67c
p35
I1
sVd7y3my2
p36
I1
sVd91tdou
p37
I8
sVd7wbh3g
p38
I7
sVd46m5pt
p39
I1
sVd1fg1d8
p40
I1
sVdfu3ff2
p41
I2
sVdhhunge
p42
I1
sVd59u7ee
p43
I1
sVdae79az
p44
I2
sVd0ezxxu
p45
I1
sVd3visz4
p46
I1
sVd4rqxi6
p47
I1
sVdou1w33
p48
I1
sVcz8dscr
p49
I2
sVd0r4zxm
p50
I2
sVdfkf3cm
p51
I1
sVdblbowh
p52
I2
sVdhk15yb
p53
I1
sVd1fgnz9
p54
I1
sVdfk36bd
p55
I3
sVddnhd21
p56
I7
sVd6kaiyi
p57
I1
sVcz83310
p58
I1
s.