(dp0
Vczs3p5a
p1
I1
s.(dp0
Vczs3p5a
p1
I2
s.(dp0
Vd331opp
p1
I1
sVczs3p5a
p2
I1
s.(dp0
Vd3e4ktb
p1
I1
sVczs3p5a
p2
I1
s.(dp0
Vczs3p5a
p1
I1
sVd4n9mlx
p2
I1
s.(dp0
Vd4nn6hl
p1
I1
sVczs3p5a
p2
I1
s.(dp0
Vd5np3tv
p1
I1
sVczs3p5a
p2
I1
s.(dp0
Vd5np3tv
p1
I1
sVczs3p5a
p2
I1
s.(dp0
Vd6ffuqc
p1
I1
sVczs3p5a
p2
I1
s.(dp0
Vd6ffuqc
p1
I1
sVczs3p5a
p2
I1
s.(dp0
Vd6ffuqc
p1
I1
sVczs3p5a
p2
I1
s.(dp0
Vd6ffuqc
p1
I1
sVczs3p5a
p2
I1
s.(dp0
Vd6fingn
p1
I1
sVczs3p5a
p2
I1
s.(dp0
Vd6fingn
p1
I1
sVczs3p5a
p2
I1
s.(dp0
Vd6fingn
p1
I1
sVczs3p5a
p2
I1
s.(dp0
Vd6fingn
p1
I1
sVczs3p5a
p2
I1
s.(dp0
Vd6fingn
p1
I1
sVczs3p5a
p2
I1
s.(dp0
Vd7bmpxf
p1
I1
sVczs3p5a
p2
I1
s.(dp0
Vd7bmpxf
p1
I1
sVczs3p5a
p2
I1
s.(dp0
Vdbstua5
p1
I1
sVczs3p5a
p2
I1
s.(dp0
Vddakhzo
p1
I1
sVczs3p5a
p2
I1
s.(dp0
Vczs3p5a
p1
I1
sVdgs4lvx
p2
I1
s.(dp0
Vdkf5ret
p1
I1
sVczs3p5a
p2
I1
s.(dp0
Vdqkyj6g
p1
I1
sVczs3p5a
p2
I1
s.(dp0
Vds4x3ad
p1
I1
sVczs3p5a
p2
I1
s.