(dp0
Vdcls244
p1
I1
sVczxdwa5
p2
I1
sVcza545z
p3
I1
sVdcbw8ni
p4
I1
sVdmg2cda
p5
I1
sVdfzvntc
p6
I1
sVdedzmct
p7
I1
sVdbrkm2e
p8
I1
sVdr9b8r7
p9
I1
sVcysnnku
p10
I1
sVdpzkuvy
p11
I1
sVdexb48v
p12
I1
sVdd8ule4
p13
I1
sVd00r8ou
p14
I1
sVdfzvt2y
p15
I1
sVd37m3cw
p16
I1
sVd5gkbbz
p17
I1
sVdki1cwo
p18
I1
sVczzsnn5
p19
I1
sVdj364qh
p20
I1
sVder75ww
p21
I1
sVd91f4s3
p22
I1
sVdiw8uyg
p23
I1
sVd08ircw
p24
I1
sVd62jb8q
p25
I1
sVd1bxque
p26
I1
sVczzt5zy
p27
I1
sVdcntrh9
p28
I1
sVdr7os2k
p29
I1
sVd3tqwii
p30
I1
sVdqr4dn0
p31
I1
sVd682v7r
p32
I1
sVdffoqyg
p33
I1
sVdsyxpc7
p34
I1
sVd03v6eg
p35
I1
sVd333ckt
p36
I1
sVdj5keh2
p37
I1
sVdiay10i
p38
I1
sVdncr2kq
p39
I1
sVd2lksdm
p40
I1
s.