(dp0
Vdk2czyu
p1
I1
sVd731nae
p2
I1
sVd306kec
p3
I1
sVd45cxw3
p4
I1
sVdggkfrs
p5
I1
sVd8iakve
p6
I1
sVd6dlgce
p7
I1
sVd1x0nun
p8
I1
sVdg1nh5z
p9
I1
sVde0j4f9
p10
I1
sVdf9c05y
p11
I1
sVcyi990h
p12
I1
sVdff3cod
p13
I1
sVdrti3sl
p14
I1
sVdsl11bo
p15
I1
sVdifqjei
p16
I1
sVdgknryx
p17
I1
sVd2tcl18
p18
I1
sVcz7c657
p19
I1
sVd40ptcj
p20
I1
sVd6hfpzr
p21
I1
sVd0q3r8h
p22
I1
sVdd8wnju
p23
I1
sVcyrmjo8
p24
I1
sVd4h27wc
p25
I1
sVd3ccgkw
p26
I1
sVdfomn6g
p27
I1
sVd8llc55
p28
I1
sVczze7al
p29
I1
sVd36mihk
p30
I1
sVd0p4vte
p31
I1
sVdfxbn96
p32
I1
sVdibl8gn
p33
I1
sVcym5ri6
p34
I1
sVd61h08w
p35
I1
sVczizez6
p36
I1
sVdc608yk
p37
I1
sVdkkgong
p38
I1
sVcysi820
p39
I1
sVdsfx370
p40
I1
sVdbrw48u
p41
I1
sVd7w4f8t
p42
I1
sVd40pfz6
p43
I1
sVdiay4ld
p44
I1
sVdeujtc9
p45
I1
sVdbgq8jo
p46
I1
sVd0pdap3
p47
I1
sVcywjuk9
p48
I1
sVdi3nrsn
p49
I3
sVda24wv0
p50
I1
sVdklp2e1
p51
I1
sVdhbytw9
p52
I1
sVd3zuvuj
p53
I1
sVczqhhmz
p54
I1
sVd96xzu0
p55
I1
sVdcdatc4
p56
I1
sVdnufnc2
p57
I1
sVdi2d436
p58
I1
sVdfs8lcu
p59
I1
sVdgmvbcq
p60
I1
sVd7088wk
p61
I1
sVd3cadav
p62
I1
sVdq2qy8x
p63
I1
sVd9i8j5b
p64
I1
sVdpwofvv
p65
I1
sVddplyhj
p66
I1
sVdfve8ri
p67
I1
sVd2ytvsb
p68
I1
sVdbohf4w
p69
I1
sVdp1ay62
p70
I1
sVd72n4hb
p71
I1
sVdixhmgw
p72
I1
sVd2hmzug
p73
I1
sVddd8vx2
p74
I1
sVczay04p
p75
I1
sVd17erab
p76
I1
sVcynt07a
p77
I1
sVdqzpiih
p78
I1
sVdpwksub
p79
I1
sVd47v19o
p80
I1
sVd18972j
p81
I1
sVdn7ddkv
p82
I1
sVd1liuha
p83
I1
sVd88vdlm
p84
I1
sVddq6f1l
p85
I1
sVcyjrmrm
p86
I1
sVd0uhjtz
p87
I1
sVd51s1yb
p88
I1
sVdqqsw00
p89
I1
sVdqf029y
p90
I1
sVd3qfb6n
p91
I1
sVcyxjefv
p92
I3
sVdfzb7i7
p93
I1
sVd314w8l
p94
I1
sVdc9j5n3
p95
I1
sVd8jb97h
p96
I1
sVdh4teon
p97
I1
sVcyi960h
p98
I1
sVd1inwg5
p99
I1
sVd1gbayw
p100
I1
sVd14l95o
p101
I1
sVdmmxrlo
p102
I1
sVdclei1t
p103
I1
sVddl72w8
p104
I1
sVdex28a3
p105
I1
sVdgkne05
p106
I1
sVd200cmg
p107
I1
sVdfibxy9
p108
I1
sVdeds6w8
p109
I1
sVda49ih8
p110
I1
sVd3eit06
p111
I1
sVd0xpn4p
p112
I1
sVdhyqge3
p113
I1
sVde2wb1w
p114
I1
sVd13b36h
p115
I1
sVdfceymh
p116
I2
sVd50g7xo
p117
I1
sVdaq58c9
p118
I1
sVdjd16bq
p119
I1
sVdhtl1nk
p120
I1
sVdkmto5a
p121
I1
sVdektxu7
p122
I1
sVd2akym3
p123
I2
sVdspv3hr
p124
I1
sVdc5trao
p125
I1
sVd6ib10v
p126
I1
sVdqichq9
p127
I1
sVd8olpkm
p128
I1
sVd6q299t
p129
I1
sVdihpdiu
p130
I1
sVd97a3g5
p131
I1
sVdfibsc6
p132
I1
sVcyo7bky
p133
I1
sVd052eds
p134
I1
sVd5urkqx
p135
I1
sVcz8az47
p136
I1
sVd8aiycp
p137
I1
sVdbn1l4c
p138
I1
sVd49ws41
p139
I1
sVd3wnv7g
p140
I1
sVdbpxmph
p141
I1
sVd6kq03t
p142
I1
sVdc6k4lw
p143
I1
sVd3c9txv
p144
I1
sVd2hnp24
p145
I1
sVd3flace
p146
I1
sVczzvafw
p147
I1
sVd1wc671
p148
I1
sVdczfyzr
p149
I1
sVdd7rlpc
p150
I1
sVdbzu4qq
p151
I1
sVda6ekgd
p152
I1
sVdjsbuyn
p153
I1
sVdd464xd
p154
I1
sVdceak0m
p155
I1
sVdjt1cyl
p156
I1
sVczs00zz
p157
I1
sVd0kvdtq
p158
I1
sVdgdl0w9
p159
I1
sVdigdncw
p160
I1
sVdbyw661
p161
I1
sVddwi655
p162
I1
sVdmqwm2q
p163
I1
sVddiubbz
p164
I1
sVdgxzkrx
p165
I1
sVdn9ian4
p166
I1
sVdhxlpsg
p167
I1
sVd3qfh9d
p168
I1
sVdkyg0lh
p169
I1
sVd75mbms
p170
I1
sVd97iask
p171
I1
sVd6j3plb
p172
I1
sVdaaibj9
p173
I1
sVd17nkr8
p174
I1
sVd4mfdt1
p175
I1
sVd9ds9qm
p176
I1
sVdhz38tp
p177
I1
sVdgv0vsl
p178
I1
sVdk44sb2
p179
I1
sVdh36aho
p180
I1
sVdfceirq
p181
I1
sVd4mqnmh
p182
I2
sVd3hlszu
p183
I1
sVdhjo799
p184
I1
sVd2m2tl8
p185
I1
sVd36svon
p186
I1
sVdnxl2mu
p187
I1
sVd1jw1jd
p188
I1
sVczxqb53
p189
I1
sVd07m26p
p190
I1
sVd2ckye9
p191
I1
sVd38z7rw
p192
I1
sVd9my16w
p193
I1
sVdnpbxvd
p194
I1
sVdddyi49
p195
I1
sVd5ikrjw
p196
I1
sVd60qvmc
p197
I2
sVd7nx8j5
p198
I1
sVd0alffw
p199
I1
sVdfxbz1h
p200
I1
sVd43ln7t
p201
I1
sVdmf1n7n
p202
I1
sVd2dizbj
p203
I1
sVdh27ip8
p204
I1
sVd24fwdd
p205
I1
sVd702vav
p206
I1
sVdhit0f6
p207
I1
s.