(dp0
Vd0cmvuh
p1
I1
s.(dp0
Vd0cmvuh
p1
I1
sVd7n3wc4
p2
I1
s.(dp0
Vdgm9n4z
p1
I1
sVd0cmvuh
p2
I1
s.(dp0
Vdhf7w3j
p1
I1
sVd0cmvuh
p2
I1
s.(dp0
Vd0cmvuh
p1
I1
sVdrcyl8j
p2
I1
s.(dp0
Vdrdejxy
p1
I1
sVd0cmvuh
p2
I1
s.(dp0
Vd0cmvuh
p1
I1
sVdrdg8n2
p2
I1
s.(dp0
Vd0cmvuh
p1
I1
sVdrdsd1h
p2
I1
s.