(dp0
Vdbeizwy
p1
I1
sVdenmzgg
p2
I1
sVdqi3ymg
p3
I1
sVd11adh2
p4
I1
sVdb4150o
p5
I1
sVds2kl36
p6
I1
sVddebuhn
p7
I1
sVd99pult
p8
I1
sVddoxh0p
p9
I1
sVdthhyn6
p10
I1
sVdg9ca4l
p11
I1
sVd08puhg
p12
I1
sVdcj8oke
p13
I1
sVd9fh0ow
p14
I1
sVdhwghmc
p15
I1
sVczxbt3z
p16
I1
sVd2hotlu
p17
I1
sVdfpvjkv
p18
I1
sVdglqugb
p19
I1
sVdfe7peh
p20
I1
sVdmopkzp
p21
I1
sVdmpgi84
p22
I1
sVdb08wl6
p23
I1
sVd59vokg
p24
I1
sVdd8wnju
p25
I1
sVdrzsnta
p26
I1
sVde4uzqd
p27
I1
sVd8bhjoa
p28
I1
sVddhmf89
p29
I1
sVdsdyt8w
p30
I1
sVdrg3ukx
p31
I1
sVdi55ghz
p32
I1
sVdachoso
p33
I1
sVd80l7kr
p34
I1
sVdaqgqdu
p35
I1
sVd1vvkwo
p36
I1
sVcynqnpz
p37
I1
sVde2rvgu
p38
I1
sVdaypsvg
p39
I1
sVd2a8jhb
p40
I1
sVd9d5pse
p41
I1
sVdd5c53w
p42
I1
sVd7ps767
p43
I1
sVd7xr5s7
p44
I1
sVdjsfp27
p45
I1
sVd5gxlhx
p46
I1
sVdhyrpgb
p47
I1
sVdap5lh0
p48
I1
sVdjuryhj
p49
I1
sVdbi0v8d
p50
I1
sVd7yfljp
p51
I1
sVddhrezn
p52
I1
sVd2pi1qr
p53
I1
sVdqr2djm
p54
I1
sVd4u09ql
p55
I1
sVdkuee6i
p56
I1
sVd98q4dy
p57
I1
sVdk4f722
p58
I1
sVdmoz4el
p59
I1
sVde6jaq1
p60
I1
sVdfnqfye
p61
I2
sVdqdo9w6
p62
I1
sVdkvfrrz
p63
I1
sVdpi8kjj
p64
I1
sVd0qyvef
p65
I1
sVd1lm4uj
p66
I1
sVdn0xr84
p67
I2
sVd1tryw7
p68
I1
sVd92ult6
p69
I2
sVdhbt6v4
p70
I2
sVds88f4x
p71
I1
sVdfofjof
p72
I1
sVdqmkjqu
p73
I1
sVdja3ejj
p74
I1
sVddihq5r
p75
I1
sVdentpf4
p76
I1
sVcztgg5k
p77
I1
sVd24cn5k
p78
I1
sVd1sjqod
p79
I1
sVd38l3ue
p80
I1
sVdsa2e2g
p81
I1
sVdj3fjik
p82
I1
sVd3j89nk
p83
I1
sVd6pp8az
p84
I1
sVdbc3e8x
p85
I1
sVdhf3onc
p86
I1
sVdbv51si
p87
I1
sVdcq6zuh
p88
I1
sVddml4oq
p89
I1
sVdcrha6l
p90
I1
sVdbmhh4l
p91
I1
sVd9y9k1y
p92
I1
sVcywujyf
p93
I1
sVd7j72pa
p94
I1
sVd5573go
p95
I1
sVdgb4si2
p96
I1
sVd2a7bmk
p97
I1
sVdfi94o4
p98
I1
sVdeos6j6
p99
I1
sVdef1ivs
p100
I1
sVczkm7uv
p101
I1
sVdjj9172
p102
I1
sVd7kofg9
p103
I1
sVdinjcn8
p104
I1
sVdcin14d
p105
I1
sVd6ncx8u
p106
I1
sVdkuji6x
p107
I1
sVdnkhw68
p108
I1
sVcysc40t
p109
I1
sVd3p4nd8
p110
I2
sVd6r0hko
p111
I1
sVdijznxf
p112
I1
sVdigz9so
p113
I1
sVcz2rzql
p114
I1
sVd556rgl
p115
I1
sVd9nxg07
p116
I1
sVd3a4fb1
p117
I1
sVd1y2tkp
p118
I1
sVdcgh982
p119
I1
sVdqbalks
p120
I1
sVd59doxl
p121
I1
sVcykdaw3
p122
I1
sVd3buebl
p123
I1
sVdir646f
p124
I1
sVdarpcyg
p125
I1
sVd134rb8
p126
I1
sVdeahmom
p127
I1
sVd614618
p128
I2
sVdmov58j
p129
I1
sVdhpzzbn
p130
I1
sVd95mzpl
p131
I1
sVd0s2l2o
p132
I1
sVcyjebuw
p133
I1
sVdqc5lu2
p134
I2
sVdec9xec
p135
I1
sVd8781rz
p136
I1
sVdektxu7
p137
I1
sVdne1285
p138
I1
sVdb6kyyj
p139
I1
sVd9u9lfu
p140
I1
sVddq6lby
p141
I1
sVda7fwoo
p142
I2
sVd95m3d0
p143
I1
sVdihfb3k
p144
I1
sVdda7j90
p145
I1
sVd9dm8gq
p146
I1
sVd3bdrel
p147
I1
sVd1pze1u
p148
I1
sVdb52ydd
p149
I1
sVdaqbstm
p150
I1
sVdnlrd9k
p151
I1
sVdbdd3fx
p152
I2
sVd68fyya
p153
I1
sVdt6zevu
p154
I1
sVcyv0z68
p155
I1
sVd6dv3fi
p156
I1
sVd5vw0ll
p157
I1
sVczsntk4
p158
I1
sVdqdji54
p159
I1
sVd1mzgd3
p160
I1
sVd1rsoo1
p161
I1
sVdhnlcry
p162
I1
sVd7jz77p
p163
I1
sVdpsuus1
p164
I1
sVdb93c5r
p165
I1
sVdftp7y5
p166
I1
sVd6f7e64
p167
I1
sVdj8eeib
p168
I1
sVdf0ybsz
p169
I1
sVdnzd0v0
p170
I1
sVd0v7eer
p171
I1
sVd5cvv5f
p172
I1
sVdifk1j8
p173
I1
sVdfosn86
p174
I1
sVd8vkonw
p175
I1
sVd7td83d
p176
I1
sVd9s2gd5
p177
I1
sVdjwi55c
p178
I1
sVdjf9c9c
p179
I1
sVd7f0bkk
p180
I1
sVd7wawes
p181
I1
sVdazj3ql
p182
I1
sVdc5n5pu
p183
I1
sVdfcrnc7
p184
I1
sVd8oahfv
p185
I1
sVdi3wvuz
p186
I1
sVd26rmrp
p187
I1
sVd2phyn6
p188
I1
sVdmn1nx6
p189
I1
sVdhks5ld
p190
I1
sVdplt7m3
p191
I1
sVd6ptchg
p192
I1
sVdmikp7s
p193
I1
sVd4gmtcd
p194
I1
sVdbt5krx
p195
I1
sVdj94i20
p196
I1
sVdd52r0i
p197
I1
sVdt7o270
p198
I1
sVdicyyaj
p199
I2
sVdeyezg3
p200
I1
sVczbwhk9
p201
I1
sVdfnpm7n
p202
I1
sVd613xy0
p203
I1
sVd1g7vju
p204
I1
sVdkilvkh
p205
I2
sVdb8ab4f
p206
I1
sVd3doh2x
p207
I1
sVd6hol5l
p208
I1
sVd100tnr
p209
I1
sVdbqzltb
p210
I2
sVcz9udnp
p211
I1
sVdb9nrgm
p212
I1
sVdo88qno
p213
I1
sVdjyijjn
p214
I1
sVd7syv4h
p215
I1
sVdggwz5k
p216
I1
sVcysz7f0
p217
I1
sVcz76591
p218
I1
sVdsyumxs
p219
I1
sVdfk36bd
p220
I1
s.