(dp0
Vcyi5koz
p1
I1
s.(dp0
Vcyi5koz
p1
I1
sVcyi6xe9
p2
I1
s.(dp0
Vcyi5koz
p1
I1
sVcyid713
p2
I1
s.(dp0
Vcyi5koz
p1
I1
sVcyikros
p2
I1
s.(dp0
Vcyi5koz
p1
I1
sVcyjipg1
p2
I1
s.(dp0
Vcyi5koz
p1
I1
sVcyjj7v6
p2
I1
s.(dp0
Vcyjr2uj
p1
I1
sVcyi5koz
p2
I1
s.(dp0
Vcyi5koz
p1
I1
sVcyjv7sl
p2
I1
s.(dp0
Vcyl1gxg
p1
I1
sVcyi5koz
p2
I1
s.(dp0
Vcyi5koz
p1
I1
sVcylccr1
p2
I1
s.(dp0
Vcyi5koz
p1
I1
sVcylid8a
p2
I1
s.(dp0
Vcyi5koz
p1
I1
sVcymd74n
p2
I1
s.(dp0
Vcyi5koz
p1
I1
sVcymt1pt
p2
I1
s.(dp0
Vcymt98o
p1
I1
sVcyi5koz
p2
I1
s.(dp0
Vcyi5koz
p1
I1
sVcyo15m1
p2
I1
s.(dp0
Vcyi5koz
p1
I1
sVcype5wg
p2
I1
s.(dp0
Vcyi5koz
p1
I1
sVcyqi215
p2
I1
s.(dp0
Vcyi5koz
p1
I1
sVcyqkl9m
p2
I1
s.(dp0
Vcyi5koz
p1
I1
sVcyqkl9m
p2
I1
s.(dp0
Vcyi5koz
p1
I1
sVcyr32qx
p2
I1
s.(dp0
Vcyi5koz
p1
I1
sVcyrod2x
p2
I1
s.(dp0
Vcyi5koz
p1
I1
sVcyrwyv2
p2
I1
s.(dp0
Vcyi5koz
p1
I1
sVcys3167
p2
I1
s.(dp0
Vcysif8i
p1
I1
sVcyi5koz
p2
I1
s.(dp0
Vcyvmi18
p1
I1
sVcyi5koz
p2
I1
s.(dp0
Vcyi5koz
p1
I1
sVcyvnb3b
p2
I1
s.(dp0
Vcyi5koz
p1
I1
sVcywjuiv
p2
I1
s.(dp0
Vcyi5koz
p1
I1
sVcyxo7tm
p2
I1
s.(dp0
Vcyi5koz
p1
I1
sVcyybls1
p2
I1
s.(dp0
Vcyi5koz
p1
I1
sVcz02tb9
p2
I1
s.(dp0
Vcyi5koz
p1
I1
sVcz0u59w
p2
I1
s.(dp0
Vcyi5koz
p1
I1
sVcz10iln
p2
I1
s.(dp0
Vcyi5koz
p1
I1
sVcz25gm9
p2
I1
s.(dp0
Vcyi5koz
p1
I1
sVcz2e1he
p2
I1
s.(dp0
Vcyi5koz
p1
I1
sVcz2rfx2
p2
I1
s.(dp0
Vcyi5koz
p1
I1
sVcz2rfx2
p2
I1
s.(dp0
Vcyi5koz
p1
I1
sVcz2rfx2
p2
I1
s.(dp0
Vcyi5koz
p1
I1
sVcz3kwbx
p2
I1
s.(dp0
Vcyi5koz
p1
I1
sVcz5gz88
p2
I1
s.(dp0
Vcz67pn3
p1
I1
sVcyi5koz
p2
I1
s.(dp0
Vcyi5koz
p1
I1
sVcz73u8w
p2
I1
s.(dp0
Vcz8kzod
p1
I1
sVcyi5koz
p2
I1
s.(dp0
Vcyi5koz
p1
I1
sVcz8p5k5
p2
I1
s.(dp0
Vcyi5koz
p1
I1
sVcz9lnwk
p2
I1
s.(dp0
Vcyi5koz
p1
I1
sVczaxih1
p2
I1
s.(dp0
Vcyi5koz
p1
I1
sVczaxih1
p2
I1
s.(dp0
Vczbhxvb
p1
I1
sVcyi5koz
p2
I1
s.(dp0
Vcyi5koz
p1
I1
sVczc3b4o
p2
I1
s.(dp0
Vcyi5koz
p1
I1
sVczcq602
p2
I1
s.(dp0
Vcyi5koz
p1
I1
sVczcyy8o
p2
I1
s.(dp0
Vcyi5koz
p1
I1
sVczcyy8o
p2
I1
s.(dp0
Vcyi5koz
p1
I1
sVczdccvc
p2
I1
s.(dp0
Vcyi5koz
p1
I1
sVczehuf5
p2
I1
s.(dp0
Vcyi5koz
p1
I1
sVczf2l2r
p2
I1
s.(dp0
Vcyi5koz
p1
I1
sVczg6j56
p2
I1
s.(dp0
Vcyi5koz
p1
I1
sVczhkx1x
p2
I1
s.(dp0
Vcyi5koz
p1
I1
sVczi4d2o
p2
I1
s.(dp0
Vcyi5koz
p1
I1
sVczi76se
p2
I1
s.(dp0
Vczigjg1
p1
I1
sVcyi5koz
p2
I1
s.(dp0
Vcyi5koz
p1
I1
sVczjg9ak
p2
I1
s.(dp0
Vcyi5koz
p1
I1
sVczjjn8w
p2
I1
s.(dp0
Vcyi5koz
p1
I1
sVczjs486
p2
I1
s.(dp0
Vcyi5koz
p1
I1
sVczkqzco
p2
I1
s.(dp0
Vcyi5koz
p1
I1
sVczl86ol
p2
I1
s.(dp0
Vcyi5koz
p1
I1
sVczlh1k3
p2
I1
s.(dp0
Vczlp7sx
p1
I1
sVcyi5koz
p2
I1
s.(dp0
Vcznun9n
p1
I1
sVcyi5koz
p2
I1
s.(dp0
Vcyi5koz
p1
I1
sVcznv3kn
p2
I1
s.(dp0
Vcyi5koz
p1
I1
sVczowk2t
p2
I1
s.(dp0
Vcyi5koz
p1
I1
sVczowk2t
p2
I1
s.(dp0
Vcyi5koz
p1
I1
sVczt5qjk
p2
I1
s.(dp0
Vcyi5koz
p1
I1
sVcztjr6q
p2
I1
s.(dp0
Vcyi5koz
p1
I1
sVcztwhsj
p2
I1
s.(dp0
Vcyi5koz
p1
I1
sVcztzb92
p2
I1
s.(dp0
Vcyi5koz
p1
I1
sVczuqu98
p2
I1
s.(dp0
Vcyi5koz
p1
I1
sVczuyvoi
p2
I1
s.(dp0
Vcyi5koz
p1
I1
sVczuyvoi
p2
I1
s.(dp0
Vcyi5koz
p1
I1
sVczv8lwk
p2
I1
s.(dp0
Vcyi5koz
p1
I1
sVczv8rlp
p2
I1
s.(dp0
Vcyi5koz
p1
I1
sVczxdsgt
p2
I1
s.(dp0
Vcyi5koz
p1
I1
sVczybckg
p2
I1
s.(dp0
Vcyi5koz
p1
I1
sVd00xzfm
p2
I1
s.(dp0
Vcyi5koz
p1
I1
sVd01mojk
p2
I1
s.(dp0
Vcyi5koz
p1
I1
sVd0217n0
p2
I1
s.(dp0
Vcyi5koz
p1
I1
sVd0217n0
p2
I1
s.(dp0
Vcyi5koz
p1
I1
sVd03b5c9
p2
I1
s.(dp0
Vcyi5koz
p1
I1
sVd060wny
p2
I1
s.(dp0
Vcyi5koz
p1
I1
sVd0695a6
p2
I1
s.(dp0
Vcyi5koz
p1
I1
sVd06ed90
p2
I1
s.(dp0
Vcyi5koz
p1
I1
sVd07ykwf
p2
I1
s.(dp0
Vcyi5koz
p1
I1
sVd081cm3
p2
I1
s.(dp0
Vcyi5koz
p1
I1
sVd081lzk
p2
I1
s.(dp0
Vcyi5koz
p1
I1
sVd08mepr
p2
I1
s.(dp0
Vcyi5koz
p1
I1
sVd08mepr
p2
I1
s.(dp0
Vcyi5koz
p1
I1
sVd08mepr
p2
I1
s.(dp0
Vcyi5koz
p1
I1
sVd09s8qi
p2
I1
s.(dp0
Vd0a4r97
p1
I1
sVcyi5koz
p2
I1
s.(dp0
Vcyi5koz
p1
I1
sVd0b9ua9
p2
I1
s.(dp0
Vcyi5koz
p1
I1
sVd0bls75
p2
I1
s.(dp0
Vcyi5koz
p1
I1
sVd0brdej
p2
I1
s.(dp0
Vcyi5koz
p1
I1
sVd0brdej
p2
I1
s.(dp0
Vcyi5koz
p1
I1
sVd0bsyuz
p2
I1
s.(dp0
Vcyi5koz
p1
I1
sVd0c9txa
p2
I1
s.(dp0
Vcyi5koz
p1
I1
sVd0cjwff
p2
I1
s.(dp0
Vcyi5koz
p1
I1
sVd0cssym
p2
I1
s.(dp0
Vcyi5koz
p1
I1
sVd0cssym
p2
I1
s.(dp0
Vcyi5koz
p1
I1
sVd0dvl8k
p2
I1
s.(dp0
Vcyi5koz
p1
I1
sVd0ebx2h
p2
I1
s.(dp0
Vcy(dp0
Vcyi5koz
p1
I1
sVdtjmjkr
p2
I1
s.