(dp0
Vdhjg3re
p1
I2
sVdsdrxzm
p2
I1
sVd29htx9
p3
I1
sVdnkvy99
p4
I1
sVd7r3op0
p5
I5
sVdc52bsm
p6
I1
sVdhjd7rx
p7
I1
sVdjxhd0t
p8
I1
sVdhjlkw2
p9
I5
sVd5ewl3y
p10
I1
sVd5bzhzo
p11
I1
sVd5c0v2s
p12
I2
s.