(dp0
Vd7mrcrd
p1
I1
sVd7trs9x
p2
I1
sVd8jyost
p3
I1
sVdi14bxk
p4
I1
sVdot19zf
p5
I1
sVdfwb7x2
p6
I1
sVdtanwqh
p7
I2
sVd3w604v
p8
I1
sVdj33e40
p9
I2
sVdgjcxtr
p10
I1
sVdf1d1l1
p11
I2
sVd2fbkf3
p12
I1
sVdjjprru
p13
I1
sVd0rg82m
p14
I1
sVd0eqje6
p15
I1
sVdg8b43n
p16
I1
sVdcy16ir
p17
I1
sVd9lqnxw
p18
I1
sVdeukc9l
p19
I1
sVdssowig
p20
I1
sVdq63w1o
p21
I2
sVdeh498b
p22
I1
sVd9rx3hv
p23
I1
sVd5wuwkx
p24
I1
sVddsxjjb
p25
I1
sVd90rpdq
p26
I1
sVdcdmuq9
p27
I1
sVdtftl18
p28
I4
sVd3wpui2
p29
I1
sVdg1lmur
p30
I1
sVdkv7flq
p31
I1
s.