(dp0
Vd2qyush
p1
I2
sVd6f1xy3
p2
I1
sVd6ywuwx
p3
I1
sVd5a0wk5
p4
I1
sVd7v4rvb
p5
I1
sVczzi863
p6
I1
sVd3mh6mr
p7
I1
sVdrjdd1k
p8
I1
sVdem9kpw
p9
I1
sVdivcuf7
p10
I1
sVdf98yfd
p11
I1
sVdcexmjy
p12
I2
sVdbx80k6
p13
I2
sVdkbyy98
p14
I1
sVdmixivr
p15
I1
sVd5a0vfr
p16
I1
sVdje8r1y
p17
I1
sVdk3kacu
p18
I1
sVdkj0v1p
p19
I1
sVdhi8sxa
p20
I1
sVd9pt24q
p21
I1
sVdqnr4j1
p22
I1
sVd03l3sc
p23
I2
sVd9vupmy
p24
I1
sVcyuomzi
p25
I1
sVd1qyhuw
p26
I1
sVdjgxkee
p27
I1
sVdnnbkj4
p28
I2
sVddgr30s
p29
I1
sVdhq4uip
p30
I1
sVd7sx4v1
p31
I1
sVdfnj03x
p32
I1
sVd2aj37q
p33
I2
sVd8khzyg
p34
I1
sVdgmvrw8
p35
I1
sVd004ipo
p36
I2
sVdb6bg97
p37
I1
sVdd17fdr
p38
I1
sVdjc9gk1
p39
I3
sVd5kttxp
p40
I1
sVdpnmwp8
p41
I1
sVder0e88
p42
I1
sVdfvd0q4
p43
I1
sVd5ftekr
p44
I2
sVd4yferx
p45
I1
sVd6757s4
p46
I1
sVdqnp4nt
p47
I1
sVd63x5dk
p48
I2
sVd4mj2sx
p49
I1
sVd2ct8qh
p50
I2
sVdcsdiqi
p51
I1
sVdkjkby4
p52
I1
sVdk0lowq
p53
I1
sVd8n49ao
p54
I2
sVdk9e4xe
p55
I2
sVdbe2vxm
p56
I1
sVd4qnla4
p57
I3
sVdbs4g4n
p58
I1
sVd03kwy4
p59
I1
sVdjaz0t1
p60
I1
sVds16lbn
p61
I1
sVdcvq9j4
p62
I1
sVdd519kz
p63
I1
sVdcbw6c2
p64
I1
sVd0ew867
p65
I2
sVd4qjthv
p66
I1
sVd28kyz0
p67
I3
sVdcevweh
p68
I1
sVcyv3u9s
p69
I1
sVd03nfbb
p70
I1
sVd2rbt0y
p71
I1
sVdgwmqwk
p72
I2
sVdfvd37g
p73
I1
sVdsufnhs
p74
I1
sVdeza3jr
p75
I5
sVd4ybmqa
p76
I2
sVdpqoy3c
p77
I1
sVdglichs
p78
I1
sVd9ovsl7
p79
I1
sVdieswi8
p80
I1
sVd6yvk7s
p81
I1
sVcz7ylaa
p82
I1
sVd72743i
p83
I1
sVdcuct93
p84
I1
sVd1hvgsv
p85
I1
sVddbty7b
p86
I1
sVdcqk0wb
p87
I3
sVczaxba4
p88
I1
sVd015sxv
p89
I2
sVczdby0c
p90
I1
sVdc15l7j
p91
I2
sVcyhtumq
p92
I1
sVd9ba11t
p93
I1
sVcypainf
p94
I1
sVdcpuqtf
p95
I1
sVdcff1dh
p96
I1
sVdis69ws
p97
I1
sVdnnf0mk
p98
I1
sVdg4i1xd
p99
I1
sVdc2j9mm
p100
I1
sVd00j8jx
p101
I2
sVd2ussf4
p102
I5
sVd76adh1
p103
I1
sVdnnbb9q
p104
I1
sVdd2t5ye
p105
I1
sVd2uq0l6
p106
I1
sVd6xzfju
p107
I1
sVd988137
p108
I1
sVdiqvahg
p109
I1
sVdsjl479
p110
I1
sVd975q2j
p111
I1
sVd6i5dle
p112
I1
sVd43858w
p113
I1
sVd73lvzf
p114
I1
sVdsjl0zj
p115
I1
sVdf9ooth
p116
I1
sVdht7yvx
p117
I1
sVd6obu5o
p118
I1
sVd1vq3dh
p119
I1
sVdpbhfas
p120
I1
sVddq0qgv
p121
I1
sVd95m3d0
p122
I2
sVd5sqaag
p123
I1
sVdbdowfm
p124
I1
sVdqdltdj
p125
I1
sVd19gtqx
p126
I1
sVd1k6sxz
p127
I1
sVd0tj5hq
p128
I1
sVd6pfjnu
p129
I1
sVd10cu5g
p130
I2
sVdbrbzv8
p131
I3
sVdoesaz7
p132
I2
sVcysb0mn
p133
I1
sVdf0c8hq
p134
I1
sVdihdipj
p135
I1
sVd7ine7h
p136
I1
sVdrhjq7t
p137
I1
sVdi12pcp
p138
I1
sVd7hqqeo
p139
I1
sVdjaz3uf
p140
I2
sVds16r13
p141
I1
sVdjdrqsp
p142
I1
sVdrzzi2y
p143
I1
sVd4qbmxg
p144
I3
sVd10kbi4
p145
I1
sVd6dkcfg
p146
I1
sVd13vg1d
p147
I1
sVd6aoqx0
p148
I1
sVdbw4z5c
p149
I1
sVdnpsaey
p150
I2
sVdfbczrb
p151
I1
sVd0xz88t
p152
I2
sVdoelt40
p153
I1
sVdhlle55
p154
I1
sVdflab1z
p155
I1
sVd6gwekj
p156
I1
sVde48kj3
p157
I1
sVd6rwjzg
p158
I2
sVd2upvzs
p159
I1
sVd4fjv00
p160
I1
sVd65hli1
p161
I2
sVd7hktlp
p162
I1
sVd6rzgyu
p163
I1
sVd2upwu1
p164
I1
sVdn0l4iu
p165
I2
sVdtftdk9
p166
I1
sVdgvbzl5
p167
I1
sVddi0vqv
p168
I1
sVd7vasrm
p169
I4
sVdi7rhbd
p170
I1
sVdpc6159
p171
I2
sVdrkqagk
p172
I1
sVd4ar2pf
p173
I1
sVdc4gbfz
p174
I1
sVdem8pql
p175
I1
sVd7c1n0g
p176
I1
sVcyu7i81
p177
I1
sVdrzuqdm
p178
I1
sVdoypblk
p179
I1
sVdn1pfi4
p180
I4
sVdqnogie
p181
I1
sVdrzuwyx
p182
I1
sVdd4xu24
p183
I1
sVcyy9j3g
p184
I1
sVd58dwws
p185
I1
sVdi0v2gt
p186
I2
sVd9ct1mw
p187
I2
sVdgs3nkt
p188
I1
sVd73lxx7
p189
I1
sVd5d5bnx
p190
I1
sVdi8a17d
p191
I1
sVdrj2kqw
p192
I1
sVddi29b0
p193
I2
sVdo1smks
p194
I2
sVczf42v8
p195
I1
sVd99dpki
p196
I2
sVddgoc5c
p197
I1
sVdckkrdv
p198
I1
sVcz2bqm5
p199
I1
sVdhwtrqk
p200
I1
s.