(dp0
Vcz9vwo7
p1
I1
sVdf34e5f
p2
I2
sVd0y57qr
p3
I1
sVdo7gm9i
p4
I2
sVd17zvco
p5
I1
sVd9iwi8b
p6
I1
sVd6cpcwd
p7
I1
sVd2p5xec
p8
I1
sVdgn0tb7
p9
I1
sVd258752
p10
I1
sVd8ku8wy
p11
I1
sVdb1wluy
p12
I1
sVdsvcabz
p13
I2
sVd7rddl2
p14
I3
sVd0hvvkj
p15
I1
s.