(dp0
Vd4ls1y1
p1
I2
sVdjcnrod
p2
I1
sVdb08wl6
p3
I1
sVdqel9mo
p4
I1
sVczoelq8
p5
I1
sVd8jzayb
p6
I1
sVdjidc5s
p7
I1
sVd20b4qo
p8
I1
sVdgglmf1
p9
I3
sVczkcp08
p10
I1
sVd6ado4o
p11
I2
sVdikbodu
p12
I1
sVd2a3y5i
p13
I2
sVd5apxu1
p14
I1
sVd71q8q2
p15
I1
sVd8rwvqx
p16
I1
sVd9gmhqf
p17
I1
sVdgheza7
p18
I1
sVdekrdbq
p19
I1
sVd2a8afy
p20
I1
sVdp15rsz
p21
I1
sVdkn8x0e
p22
I3
sVd49vz72
p23
I2
sVdra0zj0
p24
I4
sVdh1cc1v
p25
I1
sVd56vixm
p26
I1
sVddylqem
p27
I1
sVdfg6x1s
p28
I4
sVdh337l5
p29
I1
sVdiok78o
p30
I1
sVdqkgxi0
p31
I2
sVd83w1n5
p32
I1
sVd1oqc3v
p33
I1
sVdmzsyip
p34
I1
sVdcwqph0
p35
I2
sVd1y4911
p36
I1
sVd6k0bsv
p37
I1
sVdils201
p38
I1
sVd4zf77q
p39
I2
sVd0c0avv
p40
I1
sVdh965um
p41
I1
sVdb5cbdz
p42
I2
sVdfvg25p
p43
I1
sVdsqjyvw
p44
I2
sVdmm1s9z
p45
I2
sVd6pp8az
p46
I1
sVd1jtudp
p47
I3
sVd8dzcu1
p48
I2
sVdsq5b9u
p49
I1
sVda37ahu
p50
I4
sVdfw5cbg
p51
I1
sVd0ezohj
p52
I1
sVd7ds0bn
p53
I1
sVdt9ks9j
p54
I1
sVdcc6819
p55
I2
sVd3hnca7
p56
I2
sVd1blb66
p57
I1
sVdj3ef7o
p58
I1
sVcz294mg
p59
I1
sVczqjuv7
p60
I1
sVdannakv
p61
I2
sVdruwiht
p62
I1
sVd4xztep
p63
I2
sVdnhi6yc
p64
I1
sVd2kvike
p65
I1
sVdf0of3t
p66
I1
sVdfhsjtw
p67
I1
sVdhbnuaw
p68
I2
sVdtaxv23
p69
I1
sVdfkhc13
p70
I1
sVdkb8xup
p71
I1
sVdkr54ih
p72
I1
sVd8xw2z9
p73
I1
sVd8ma8b3
p74
I2
sVdb3kgy1
p75
I1
sVdcc3pkz
p76
I1
sVd1xjjqt
p77
I1
sVd8jc0a7
p78
I1
sVdkse2q9
p79
I1
sVdcc55ip
p80
I2
sVd1xo0kz
p81
I1
sVdi7fpf8
p82
I1
sVdq7nmh8
p83
I2
sVd3zntd5
p84
I1
sVddp0qa0
p85
I5
sVd72tgj1
p86
I1
sVczufvu2
p87
I1
sVdq08hqs
p88
I1
sVd39zf6j
p89
I1
sVd2kq6gg
p90
I2
sVdiqrkk9
p91
I2
sVcyqhds8
p92
I1
sVdt5uxr6
p93
I1
sVd85xbfg
p94
I1
sVdibk6dg
p95
I1
sVdaco4xv
p96
I1
sVdtazicm
p97
I2
sVdnhgyh3
p98
I1
sVd6k52ex
p99
I1
sVdflp63t
p100
I1
sVdhot1dh
p101
I1
sVddun8h6
p102
I2
sVd2a55yf
p103
I1
sVd0o6xdu
p104
I1
sVdiiklgm
p105
I1
sVcz1jgzg
p106
I2
sVdf2ozkc
p107
I1
sVdk2jc9b
p108
I1
sVdnz2nv1
p109
I1
sVdigm0di
p110
I1
sVd9kvpus
p111
I1
sVderifwk
p112
I2
sVd08fy36
p113
I1
sVd6n4jy4
p114
I1
sVd7vo6fi
p115
I1
sVdb6ylh9
p116
I1
sVdhtg7vi
p117
I1
sVddoolqz
p118
I2
sVdqkeeav
p119
I5
sVdg4dedb
p120
I2
sVdbaoatj
p121
I1
sVd1mmau4
p122
I2
sVd03zu1y
p123
I2
sVd5aql9q
p124
I1
sVdbziofc
p125
I1
sVd2tqzbl
p126
I3
sVd8sx5l4
p127
I1
sVcypp7rt
p128
I3
sVdkns99a
p129
I1
sVdgc3c06
p130
I2
sVczq0ilk
p131
I1
sVd5ud396
p132
I1
sVddstnah
p133
I1
sVcz4oq3e
p134
I1
sVd1667w1
p135
I1
sVdbwiz0k
p136
I2
sVdrmwmgd
p137
I1
sVdfvxxx4
p138
I2
sVdh5nyic
p139
I1
sVdtj40vy
p140
I1
sVdqical0
p141
I1
sVdqzg8u9
p142
I4
sVd166qy5
p143
I2
sVdhcrdt7
p144
I3
sVd2qo4i1
p145
I1
sVd3gwe0y
p146
I1
sVdsjtyz9
p147
I2
sVdc4l31v
p148
I1
sVd6jxm99
p149
I1
sVdht00xl
p150
I1
sVdbmr80f
p151
I2
sVcynfxsd
p152
I1
sVd5avlo6
p153
I1
sVda92evx
p154
I1
sVdg1c4fi
p155
I1
sVdfwashi
p156
I1
sVd7mx9ee
p157
I1
sVdhbwnxk
p158
I1
sVd3e2yrt
p159
I1
sVd8xlrn8
p160
I1
sVdgjd8r8
p161
I1
sVd6rztki
p162
I2
sVdf0z715
p163
I1
sVd6ybpmt
p164
I1
sVd8jabsq
p165
I1
sVdblow9k
p166
I1
sVd7ue11f
p167
I5
sVddog6ia
p168
I1
sVd62c1ct
p169
I1
sVd2r0vqe
p170
I1
sVdjkf4fc
p171
I1
sVdkyulib
p172
I6
sVdcyga8a
p173
I1
sVdijssmn
p174
I1
sVdbil8jx
p175
I2
sVd7t0c97
p176
I2
sVd71hs3j
p177
I1
sVd5o5l16
p178
I1
sVd9aub8f
p179
I2
sVdt8b9p9
p180
I1
sVdecxd2k
p181
I1
sVdtdmyqj
p182
I1
sVdpyalbc
p183
I1
sVd0xd9m8
p184
I1
sVdsqv7o3
p185
I1
sVcziphkl
p186
I1
sVdo18yeh
p187
I1
sVd2l5tqe
p188
I2
sVdmzbo9u
p189
I1
sVdkrxmbm
p190
I3
sVd9aud4u
p191
I2
sVdt68mqw
p192
I2
sVd1fq7op
p193
I1
sVdojbh7g
p194
I2
sVd67fhkp
p195
I1
sVd58nq47
p196
I1
sVd05qw18
p197
I1
sVds6z4ym
p198
I1
sVdkx4scc
p199
I1
sVdeit1vj
p200
I1
sVdj2pmyx
p201
I1
sVdgar261
p202
I1
sVd7yqebp
p203
I1
sVd4atirq
p204
I1
sVd13yxz2
p205
I1
sVd0y18yl
p206
I1
sVd308fxk
p207
I1
sVd559hm4
p208
I1
sVd2a4q5p
p209
I2
sVdkmulzx
p210
I1
sVdiermkq
p211
I1
sVdtj0taf
p212
I1
sVd4cszxa
p213
I1
sVd7t3hrm
p214
I1
sVdc4mybt
p215
I1
sVdsv9vvx
p216
I1
sVddlr1h1
p217
I1
sVdpdeqya
p218
I1
sVdkdlyum
p219
I1
sVdrx3e0j
p220
I1
sVdn1p8wh
p221
I2
sVdoh3td4
p222
I1
sVdk21dhz
p223
I2
sVdkqm8p2
p224
I1
sVdjnm8f9
p225
I1
sVdsn7lah
p226
I3
sVdb59akt
p227
I1
sVczzxgdt
p228
I1
sVd18tlqh
p229
I2
sVd7piyn6
p230
I1
sVd4vqomp
p231
I1
sVda4ilfu
p232
I1
sVdec9xec
p233
I3
sVdq3yis8
p234
I1
sVde2k86b
p235
I1
sVdieo2o6
p236
I1
sVdcb0fca
p237
I1
sVdjwyzti
p238
I2
sVdcgsciu
p239
I1
sVdh9sl4h
p240
I1
sVdn93gd8
p241
I1
sVdk8n82p
p242
I1
sVdiq4f6v
p243
I1
sVcyxwyxg
p244
I2
sVd5380ho
p245
I1
sVdti40hz
p246
I1
sVd74e4sz
p247
I1
sVd5obl5l
p248
I1
sVd2a5btm
p249
I1
sVdjogooy
p250
I1
sVd8m5m7p
p251
I1
sVdgyak79
p252
I2
sVcze18v0
p253
I1
sVd1p17va
p254
I3
sVdgr88pp
p255
I1
sVdokj0y4
p256
I2
sVdsqc48w
p257
I1
sVd0uzkp3
p258
I1
sVd03oiep
p259
I1
sVd0z9puc
p260
I1
sVde2nxvx
p261
I1
sVdqvlqjd
p262
I2
sVd43znb0
p263
I1
sVd3jrvre
p264
I2
sVd8556ub
p265
I3
sVdihky47
p266
I1
sVde9c8op
p267
I1
sVddp5gus
p268
I2
sVd7swt8l
p269
I1
sVdhawo4r
p270
I1
sVdj8ag0a
p271
I1
sVdccpu23
p272
I1
sVd73ek42
p273
I1
sVdh9epbf
p274
I1
sVd9ngtp5
p275
I3
sVcyy5g86
p276
I1
sVdol3c1v
p277
I1
sVd7zy1jj
p278
I1
sVde5a1xp
p279
I1
sVd9r70m9
p280
I2
sVd0a4iye
p281
I2
sVdjkll75
p282
I1
sVdjwqc4q
p283
I3
sVd7ebi1s
p284
I1
sVdmzpo0w
p285
I1
sVdberu8w
p286
I2
sVd5l1ykh
p287
I1
sVdqt900b
p288
I1
sVdi8ghg7
p289
I1
sVczcczm6
p290
I1
sVd7n06iu
p291
I1
sVd7t4328
p292
I1
sVd7t4n1f
p293
I1
sVdnu9ym9
p294
I1
sVdk20g7g
p295
I1
sVd737wsk
p296
I1
sVd8jh9sc
p297
I1
sVdhffh2i
p298
I1
sVdbi43tu
p299
I1
sVd7yncpa
p300
I1
sVd5kyt9o
p301
I1
sVdaeaev3
p302
I2
sVdfgm54l
p303
I1
sVdo77qqm
p304
I1
sVd8bhjoa
p305
I1
sVczpp7zw
p306
I1
sVd028dl8
p307
I1
sVdcq5ln4
p308
I1
sVdexi934
p309
I1
sVdstaksm
p310
I1
sVdd1r4tj
p311
I5
sVdivllp7
p312
I2
sVd5umuja
p313
I1
sVdjb6an5
p314
I1
sVdpyxunv
p315
I1
sVds2x0mi
p316
I1
sVdbluccr
p317
I1
sVcz887ss
p318
I2
sVd1gt4qw
p319
I1
sVd0x8hl3
p320
I1
sVddlxa3d
p321
I6
sVdra0anr
p322
I1
sVdkp94h6
p323
I2
sVdid15nw
p324
I1
sVdfvkj0h
p325
I1
sVd2dyjj6
p326
I1
sVd4vqspo
p327
I1
sVdhzbukf
p328
I2
sVdgf4z7p
p329
I1
sVd5jn0ge
p330
I1
sVd35gb2c
p331
I1
sVdmklbcf
p332
I1
sVd83wvzz
p333
I4
sVd37vt33
p334
I1
sVdhl1gr9
p335
I1
sVd6a6qyz
p336
I1
sVdkn8d3u
p337
I1
sVd3kzh2h
p338
I1
sVd20pcc4
p339
I1
sVdi9yx51
p340
I1
sVd92j9y1
p341
I1
sVd0rbi0p
p342
I1
sVdid1odj
p343
I3
sVdfws2os
p344
I1
sVczdxfrl
p345
I1
sVddwzzv1
p346
I1
sVd3kja25
p347
I1
sVdtb0rnu
p348
I2
sVd1vhfok
p349
I1
sVd37icax
p350
I1
sVdqmbbpr
p351
I1
sVdposysu
p352
I1
sVd2a7bmk
p353
I1
sVdg2zy5w
p354
I1
sVdd6zrel
p355
I1
sVczqiv42
p356
I1
sVdovpq32
p357
I1
sVds41m6a
p358
I2
sVdc09a44
p359
I1
sVdszrtao
p360
I3
sVdcin14d
p361
I1
sVcz67ndz
p362
I1
sVdd5y0lb
p363
I2
sVda0wewy
p364
I1
sVdn1mod1
p365
I2
sVd9670vd
p366
I1
sVdddl9ao
p367
I1
sVdhtc9qo
p368
I1
sVdj78arx
p369
I1
sVd0hbsen
p370
I1
sVczqiyrp
p371
I1
sVdih7bb8
p372
I1
sVdo9zays
p373
I1
sVczjlru5
p374
I2
sVdrz0h1w
p375
I1
sVd5tuj9h
p376
I3
sVd1ln7ig
p377
I5
sVdcnxo34
p378
I1
sVd3ipkcj
p379
I1
sVd4lorrf
p380
I1
sVd4qbanm
p381
I1
sVdi3yer6
p382
I1
sVdnaedkq
p383
I1
sVd1pckqm
p384
I1
sVdd9vsr1
p385
I1
sVczbtttb
p386
I1
sVdnedi81
p387
I1
sVd13x1ur
p388
I2
sVda9xxg4
p389
I1
sVdkn8gmz
p390
I2
sVdbzefc9
p391
I1
sVdap9mw4
p392
I1
sVd1thpq6
p393
I1
sVcytonum
p394
I1
sVdj2oj2e
p395
I1
sVdcy2ukt
p396
I1
sVdhe1gsc
p397
I1
sVdexe7pa
p398
I1
sVdizgx2r
p399
I1
sVd42g9zg
p400
I1
sVd23cg90
p401
I1
sVdornae0
p402
I1
sVdid77m4
p403
I1
sVdbznm4s
p404
I1
sVd1pb9a1
p405
I1
sVdt0cxqk
p406
I1
sVdn1odzu
p407
I1
sVcylm6pc
p408
I1
sVd7geela
p409
I1
sVdjn0r51
p410
I1
sVdhtg01i
p411
I1
sVdpvt0zb
p412
I2
sVdq8p4ln
p413
I1
sVdjn7n6l
p414
I1
sVdc5t8di
p415
I1
sVdri43ld
p416
I1
sVdbgkvt4
p417
I1
sVd35i2n9
p418
I1
sVdr22ilf
p419
I4
sVd8i16jy
p420
I2
sVd9x4dmg
p421
I1
sVd31af20
p422
I2
sVd3wljng
p423
I1
sVddogeyx
p424
I5
sVd22oi2p
p425
I1
sVd7m1sfm
p426
I1
sVdomy7ch
p427
I2
sVd99c5dd
p428
I1
sVd05tyrv
p429
I1
sVdmil906
p430
I1
sVd02aryf
p431
I1
sVdf7zaqm
p432
I1
sVd4rnryx
p433
I6
sVcyuvd3t
p434
I1
sVd2l2f2o
p435
I2
sVd0jgv8o
p436
I1
sVddyl0bg
p437
I2
sVddwexcm
p438
I2
sVd8ovh8e
p439
I1
sVd2jfbs2
p440
I1
sVdc3b3rd
p441
I2
sVd1ob8yh
p442
I2
sVdpmjno0
p443
I1
sVd1pp6gp
p444
I1
sVdg9ca4l
p445
I2
sVdekqv8p
p446
I1
sVd2aa85c
p447
I1
sVd9n9r1p
p448
I1
sVd7eiifa
p449
I3
sVdk2fucb
p450
I1
sVdeu89my
p451
I1
sVd7afrsy
p452
I1
sVdbv4kb4
p453
I1
sVd4jtwtb
p454
I1
sVdomvhyd
p455
I1
sVcz9idgo
p456
I1
sVdr1l4p0
p457
I3
sVcyteo7k
p458
I1
sVdrqn2hm
p459
I1
sVd1cp6s9
p460
I1
sVd42uovv
p461
I1
sVd8g3b1h
p462
I1
sVd2zj3bt
p463
I1
sVdd9g2qx
p464
I2
sVdmos0u8
p465
I1
sVdhbwh0e
p466
I1
sVcyua34q
p467
I1
sVd01wuvy
p468
I2
sVdcnxk6h
p469
I3
sVdrl92ai
p470
I1
sVdkxjmg4
p471
I1
sVdjamjjf
p472
I1
sVczjpxui
p473
I1
sVd3udp7k
p474
I1
sVdagjrhg
p475
I1
sVcz7iyyw
p476
I1
sVdn8l7h0
p477
I1
sVdkn43yu
p478
I1
sVdev0o4a
p479
I1
sVdcgwem9
p480
I2
sVdbkrudg
p481
I1
sVdjo9pbz
p482
I1
sVdf2qghc
p483
I1
sVdrffzxz
p484
I3
sVd1anh89
p485
I2
sVdg2sycn
p486
I1
sVdko1q5x
p487
I1
sVdfozxyy
p488
I1
sVdp6fjvp
p489
I1
sVdkwx8ac
p490
I1
sVd0c3hh0
p491
I6
sVd37tdn0
p492
I1
sVdbw63s0
p493
I2
sVdi0v68t
p494
I1
sVd8aeyoh
p495
I1
sVdgltl1g
p496
I1
sVcznqlrm
p497
I1
sVdcrwp58
p498
I1
sVdfcww1v
p499
I3
sVdc5k215
p500
I1
sVdkvgaq9
p501
I1
sVdj3grnl
p502
I2
sVddageeh
p503
I1
sVd4y1doc
p504
I2
sVdspjp81
p505
I2
sVd95jj94
p506
I1
sVdorn0hi
p507
I2
sVdhcalnm
p508
I1
sVdkn0rxa
p509
I1
sVd7mn5xi
p510
I1
sVd65k52x
p511
I1
sVdb78p63
p512
I1
sVd7f78pq
p513
I2
sVd9r769y
p514
I1
sVd73duer
p515
I1
sVcz7yo4a
p516
I1
sVdfpw3q5
p517
I1
sVdi8jiq6
p518
I1
sVdfq37ki
p519
I1
sVdojqj2p
p520
I1
sVd5pzxkq
p521
I1
sVd1bzwwg
p522
I1
sVczlae7z
p523
I2
sVdspv3hr
p524
I3
sVd6ypr8t
p525
I1
sVdqk0kb1
p526
I1
sVdtj685u
p527
I2
sVd319sxb
p528
I1
sVd42gf1h
p529
I1
sVdtb6z38
p530
I4
sVd7dvf4l
p531
I1
sVdhoehw5
p532
I1
sVdkkz11f
p533
I1
sVdqmkzbx
p534
I1
sVdeep5bg
p535
I1
sVdc7fosh
p536
I1
sVd1xnpq9
p537
I1
sVdihdipj
p538
I1
sVd1l1n1n
p539
I1
sVdge1z5h
p540
I2
sVdj4ej2g
p541
I4
sVd4c00bx
p542
I1
sVd2b9kfl
p543
I1
sVde6wqcc
p544
I1
sVdkue1yg
p545
I2
sVds48tvc
p546
I1
sVd6064q5
p547
I1
sVd4nc3k4
p548
I3
sVd7gcbz9
p549
I1
sVdmttqjj
p550
I1
sVdsdbhv6
p551
I1
sVdkive3v
p552
I1
sVd83t9p4
p553
I1
sVd7edq3l
p554
I1
sVdizjpsx
p555
I1
sVdmwwqlt
p556
I1
sVd9yo69c
p557
I1
sVd59sbs7
p558
I3
sVdc63dce
p559
I2
sVd023nf5
p560
I1
sVdjxv1d4
p561
I1
sVddom4cj
p562
I1
sVdjnq283
p563
I1
sVd67ejgi
p564
I1
sVdecwdax
p565
I1
sVd0sc8lb
p566
I1
sVdao9s5a
p567
I1
sVd99stty
p568
I1
sVdj9dem2
p569
I1
sVd9kg9y1
p570
I1
sVddivcch
p571
I1
sVdqn3jv0
p572
I2
sVdng0446
p573
I2
sVdan3flh
p574
I1
sVdpxrq5s
p575
I1
sVdioofjr
p576
I1
sVd8r6d39
p577
I2
sVcytqm67
p578
I1
sVdf8ss18
p579
I1
sVd2joeum
p580
I1
sVdmiio79
p581
I1
sVd7y96tg
p582
I1
sVda9nr9x
p583
I2
sVd0z5mx8
p584
I1
sVd8dkxz5
p585
I1
sVd1oim90
p586
I1
sVd3tnur3
p587
I1
sVdercr7v
p588
I1
sVdd50k2e
p589
I1
s.