(dp0
Vd9zfw6q
p1
I1
sVdnydk7l
p2
I1
sVd731nae
p3
I1
sVczku12b
p4
I1
sVddym6tq
p5
I1
sVde32hia
p6
I2
sVdstsaa5
p7
I1
sVd0fq0uc
p8
I1
sVdrlkcst
p9
I1
sVd3upeg8
p10
I1
sVdctw32b
p11
I1
sVd7nxp0q
p12
I1
sVd1bj6ic
p13
I1
sVdevqlzd
p14
I1
sVd2fz4dh
p15
I1
sVdcky8f6
p16
I1
sVdc2mmfc
p17
I1
sVd08flfv
p18
I1
sVd4x0922
p19
I1
sVd1xgr0d
p20
I1
sVdpp8ygz
p21
I1
sVcz6gujg
p22
I1
sVd5ax0yy
p23
I1
sVcywvilf
p24
I1
sVd7gpgds
p25
I1
sVdkygndf
p26
I1
sVdd3jclu
p27
I1
sVd2ijru6
p28
I1
sVdmwt8mp
p29
I4
sVdqfenjl
p30
I1
sVd64fwf5
p31
I1
sVd1r5vir
p32
I1
sVdc2bazt
p33
I4
sVdsvmq6v
p34
I1
sVd7phijj
p35
I1
sVd9j3v27
p36
I1
sVd5ek2ex
p37
I1
sVcyv9nq2
p38
I2
sVd6592ns
p39
I1
sVd135p02
p40
I3
sVdd53hdi
p41
I1
sVdhwy0ve
p42
I3
sVdho8q90
p43
I2
sVds1uvn3
p44
I1
sVcyteo7k
p45
I1
sVd1jmc1k
p46
I1
sVdj1360w
p47
I1
sVd94rds8
p48
I1
sVdel748h
p49
I1
sVd7xj2tt
p50
I1
sVdh07iuo
p51
I1
sVd1zudki
p52
I2
sVdgf34wu
p53
I1
sVdeabcpx
p54
I1
sVdidu83y
p55
I1
sVdrwvpia
p56
I2
sVd19hbqa
p57
I1
sVdo1zvom
p58
I1
sVdjo2vbp
p59
I1
sVd0zkgcg
p60
I1
sVdb7eg09
p61
I1
sVdi1l73l
p62
I1
sVdpjyo6l
p63
I1
sVdsnkbfa
p64
I1
sVdj1uo2y
p65
I1
sVd7rh0tx
p66
I1
sVdhccgg2
p67
I1
sVdcubx88
p68
I1
sVcyicat8
p69
I1
sVdjm7z77
p70
I2
sVdqu93qe
p71
I1
sVczmp9ni
p72
I1
sVd80nuxk
p73
I1
sVd886i5n
p74
I1
sVdbawmq8
p75
I1
sVd1xvl2f
p76
I1
sVd7g5cxt
p77
I1
sVdk95568
p78
I1
sVdhj01j9
p79
I1
sVddi280p
p80
I1
sVdeloczv
p81
I1
sVd6vtlj7
p82
I2
sVczg65w2
p83
I1
sVdh0a0lk
p84
I3
sVdobv3g6
p85
I2
sVdkez18g
p86
I1
sVd19nyuy
p87
I1
sVdp7pc8f
p88
I1
sVd1j6lxz
p89
I1
sVdbfe98c
p90
I1
sVdglnv70
p91
I1
sVd1wvkab
p92
I1
sVdcmnlpm
p93
I1
sVcyob5h9
p94
I1
sVd219l8t
p95
I1
sVd492rds
p96
I3
sVd3bknwj
p97
I1
sVdnk47zb
p98
I1
sVdnk6p18
p99
I1
sVdhj79jf
p100
I2
sVdpxyxws
p101
I1
sVdq4x3qo
p102
I1
sVd620tqq
p103
I1
sVd1oy8zh
p104
I1
sVdki9zxu
p105
I2
sVdgv6rca
p106
I1
sVdhj1of9
p107
I2
sVd3arr10
p108
I1
sVdb00ssz
p109
I1
sVd1oqsmi
p110
I1
sVd4cg4lw
p111
I1
sVdodw6cy
p112
I1
sVdn62mne
p113
I1
sVdsok1id
p114
I1
sVdkin6ig
p115
I1
sVdakdomr
p116
I1
sVd04iwap
p117
I1
sVd0naeqf
p118
I1
sVcyi3u4r
p119
I1
sVdgz1dop
p120
I1
sVda74tay
p121
I1
sVdef66l3
p122
I1
sVcyjayna
p123
I4
sVcyszu40
p124
I1
sVd68xvw0
p125
I1
sVdo0jcdd
p126
I1
sVdn4v3ok
p127
I1
sVdbswzb0
p128
I1
sVdk7wd5g
p129
I1
sVd03fy4i
p130
I2
sVdhjl4g4
p131
I2
sVdgkeq2f
p132
I1
sVdn83fms
p133
I5
sVd1pp23w
p134
I2
sVdctrmg3
p135
I1
sVd8sspjv
p136
I1
sVd5c8ymx
p137
I2
sVdfh3q57
p138
I1
sVd14q5bi
p139
I1
sVd7remaz
p140
I2
sVddugm5d
p141
I1
sVd7eta2u
p142
I1
sVdmn28zp
p143
I1
sVdd5f1cc
p144
I1
sVd7dcm3u
p145
I1
sVd4a44ri
p146
I2
sVd3rrowe
p147
I1
sVdfgdr6d
p148
I1
sVds56du9
p149
I1
sVdk9blve
p150
I1
sVdb9lv6h
p151
I1
sVdmzvtvs
p152
I1
sVd0nmwsw
p153
I2
sVdtev52k
p154
I1
sVd7cxy4m
p155
I1
sVd1azd1w
p156
I1
sVcyueh1o
p157
I2
sVddtbn9s
p158
I1
sVczxzu75
p159
I1
sVd3rt6cl
p160
I1
sVddgam4t
p161
I1
sVd38frb1
p162
I3
sVdcx2756
p163
I1
sVd8d7gs1
p164
I1
sVd6fyijy
p165
I1
sVcyibhtc
p166
I3
sVd03g579
p167
I2
sVdd20iu6
p168
I1
sVd1bg175
p169
I1
sVd76v6ov
p170
I1
sVd885mt9
p171
I1
sVd49z7pq
p172
I1
sVd141xav
p173
I1
sVdbm5r9d
p174
I1
sVd0iuux5
p175
I1
sVd9lrvax
p176
I1
sVdf45j2h
p177
I1
sVdavr3iy
p178
I2
sVczzeyfb
p179
I1
sVdb01sjq
p180
I1
sVd1vtv0f
p181
I1
sVddm544v
p182
I2
sVd0t656c
p183
I1
sVdeq7fud
p184
I1
sVd7rdp5u
p185
I1
sVd0yuwd5
p186
I1
sVdj6wgxa
p187
I1
sVcyjai5e
p188
I1
sVd8nqf4b
p189
I2
sVd9nwd8k
p190
I1
sVd437xwr
p191
I1
sVd4rrmov
p192
I1
sVcz1lgvc
p193
I1
sVd9ry8rs
p194
I1
sVd4gqy16
p195
I3
sVd9ithtd
p196
I1
sVcz7pwve
p197
I1
sVd0nb59n
p198
I1
sVdjiub63
p199
I2
sVd0v7eer
p200
I2
sVdawgzrk
p201
I1
sVd0mmhch
p202
I2
sVd9vhild
p203
I1
sVczd26m9
p204
I1
sVdaz6yjf
p205
I1
sVczktrk7
p206
I4
sVd7x39rb
p207
I2
sVcz1tgzi
p208
I1
sVd5pcpef
p209
I1
sVdnes41u
p210
I1
sVdtbw8ao
p211
I1
sVdcd1jvd
p212
I1
sVdneecrw
p213
I1
sVd60twxj
p214
I1
sVd10nd3b
p215
I5
sVdhj8te2
p216
I1
sVdnenkac
p217
I1
sVdeez4rd
p218
I1
sVdihr7d3
p219
I1
sVd6x7qne
p220
I4
sVdgjzn5c
p221
I1
sVdk3q72o
p222
I1
sVd348vzd
p223
I1
sVdamdqs5
p224
I1
sVdsn4r0p
p225
I1
sVdo8y6vf
p226
I1
sVdkv01ro
p227
I1
sVczc5kwf
p228
I1
sVd2mc4bw
p229
I1
sVd2etrk6
p230
I1
sVdmkhxoa
p231
I1
sVdcc1lg5
p232
I1
sVda72ocn
p233
I2
sVdfh3oo2
p234
I1
sVdn8bf0c
p235
I1
sVds0eq10
p236
I1
sVdasg0xt
p237
I1
sVdp0rups
p238
I1
sVd6r85nh
p239
I1
sVdn46yui
p240
I1
sVcz1mnof
p241
I1
sVd2v3f2a
p242
I1
sVd0rpl38
p243
I1
sVd7fsk54
p244
I1
sVddypqqf
p245
I1
sVdgkevaa
p246
I4
sVdb20ak6
p247
I1
sVd55mxhx
p248
I1
sVdf4tzn7
p249
I1
sVd6gnxa2
p250
I1
sVdmek6h0
p251
I1
sVdofz30j
p252
I1
sVd0mm8aj
p253
I1
sVdhj0roo
p254
I1
sVdb5c6mh
p255
I1
sVdshn305
p256
I1
sVczt9z62
p257
I1
sVd4umlc0
p258
I1
sVdgigbpz
p259
I1
sVdgrxotk
p260
I1
sVd4kkm4e
p261
I1
sVd7rfzpf
p262
I1
sVdqh5af5
p263
I1
s.