(dp0
Vd4ax9lr
p1
I1
sVdkg3wbz
p2
I1
sVcz4evnx
p3
I1
sVczzyhef
p4
I1
sVd04xg36
p5
I1
sVcyujny1
p6
I1
sVdj23t5j
p7
I2
sVd0rd37w
p8
I1
sVdbgu9of
p9
I1
sVd1603os
p10
I1
sVczeraca
p11
I1
sVdtfhuxh
p12
I1
sVdjrm26l
p13
I1
sVdigulct
p14
I1
sVd7xzjm2
p15
I1
sVd34761h
p16
I1
sVdrq4e0b
p17
I1
sVdrsza63
p18
I1
sVd1ldrru
p19
I1
sVdkmaxux
p20
I1
sVd7keheg
p21
I1
sVdnh4sde
p22
I1
sVdg0oby7
p23
I1
sVd3p2dnx
p24
I1
sVdbz9ran
p25
I1
sVczmul99
p26
I1
sVd4wahuo
p27
I1
sVdawoudj
p28
I2
sVdodqjt9
p29
I1
sVdbhlrng
p30
I1
s.