(dp0
Vde6tyco
p1
I1
sVdqe6bx8
p2
I1
sVdammf55
p3
I2
sVdf0nwzm
p4
I1
sVd7wwtic
p5
I8
sVdfu0mip
p6
I1
sVdmq74vj
p7
I1
sVd7wu9wk
p8
I1
sVdeyv0wu
p9
I1
sVdi3i7rh
p10
I1
sVdfu1pky
p11
I2
sVd850odq
p12
I1
sVd7wuiq5
p13
I3
sVdami9nv
p14
I1
s.