(dp0
Vcyi47bu
p1
I1
s.(dp0
Vcyjim5u
p1
I1
sVcyi47bu
p2
I1
s.(dp0
Vcykos24
p1
I1
sVcyi47bu
p2
I1
s.(dp0
Vcynmb09
p1
I1
sVcyi47bu
p2
I1
s.(dp0
Vcynxhs2
p1
I1
sVcyi47bu
p2
I1
s.(dp0
Vcyovss4
p1
I1
sVcyi47bu
p2
I1
s.(dp0
Vcywpxvs
p1
I1
sVcyi47bu
p2
I1
s.(dp0
Vcyi47bu
p1
I1
sVcyymo9j
p2
I1
s.(dp0
Vcz4to0c
p1
I1
sVcyi47bu
p2
I1
s.(dp0
Vczc4opz
p1
I1
sVcyi47bu
p2
I1
s.(dp0
Vczc4opz
p1
I1
sVcyi47bu
p2
I1
s.(dp0
Vczkw841
p1
I1
sVcyi47bu
p2
I1
s.(dp0
Vczlciq0
p1
I1
sVcyi47bu
p2
I1
s.(dp0
Vczmv5fo
p1
I1
sVcyi47bu
p2
I1
s.(dp0
Vczo6utv
p1
I1
sVcyi47bu
p2
I1
s.(dp0
Vczpkgr2
p1
I1
sVcyi47bu
p2
I1
s.(dp0
Vczv6qal
p1
I1
sVcyi47bu
p2
I1
s.(dp0
Vczvk1tf
p1
I1
sVcyi47bu
p2
I1
s.(dp0
Vczvxx4e
p1
I1
sVcyi47bu
p2
I1
s.(dp0
Vczvxx4e
p1
I1
sVcyi47bu
p2
I1
s.(dp0
Vczvxx4e
p1
I1
sVcyi47bu
p2
I1
s.(dp0
Vczysf51
p1
I1
sVcyi47bu
p2
I1
s.(dp0
Vd03ar0b
p1
I1
sVcyi47bu
p2
I1
s.(dp0
Vd04615s
p1
I1
sVcyi47bu
p2
I1
s.(dp0
Vd0foqfd
p1
I1
sVcyi47bu
p2
I1
s.(dp0
Vd0o2ogd
p1
I1
sVcyi47bu
p2
I1
s.(dp0
Vd0tb2nl
p1
I1
sVcyi47bu
p2
I1
s.(dp0
Vd0umu72
p1
I1
sVcyi47bu
p2
I1
s.(dp0
Vcyi47bu
p1
I1
sVd0upupt
p2
I1
s.(dp0
Vcyi47bu
p1
I1
sVd0upupt
p2
I1
s.(dp0
Vcyi47bu
p1
I1
sVd0xvsmv
p2
I1
s.(dp0
Vd14kfoz
p1
I1
sVcyi47bu
p2
I1
s.(dp0
Vd15veo4
p1
I1
sVcyi47bu
p2
I1
s.(dp0
Vcyi47bu
p1
I1
sVd198u8c
p2
I1
s.(dp0
Vd1aapyo
p1
I1
sVcyi47bu
p2
I1
s.(dp0
Vd1buxu0
p1
I1
sVcyi47bu
p2
I1
s.(dp0
Vd1d845t
p1
I1
sVcyi47bu
p2
I1
s.(dp0
Vd1d8ysj
p1
I1
sVcyi47bu
p2
I1
s.(dp0
Vd1rpmz1
p1
I1
sVcyi47bu
p2
I1
s.(dp0
Vd1rxr73
p1
I1
sVcyi47bu
p2
I1
s.(dp0
Vd1rxr73
p1
I1
sVcyi47bu
p2
I1
s.(dp0
Vd1uyi6l
p1
I1
sVcyi47bu
p2
I1
s.(dp0
Vd1y2tkp
p1
I1
sVcyi47bu
p2
I1
s.(dp0
Vd1y2tkp
p1
I1
sVcyi47bu
p2
I1
s.(dp0
Vd237agc
p1
I1
sVcyi47bu
p2
I1
s.(dp0
Vcyi47bu
p1
I1
sVd26e3e7
p2
I1
s.(dp0
Vd28ag09
p1
I1
sVcyi47bu
p2
I1
s.(dp0
Vd2n6ky8
p1
I1
sVcyi47bu
p2
I1
s.(dp0
Vd2o7141
p1
I1
sVcyi47bu
p2
I1
s.(dp0
Vd2o7141
p1
I1
sVcyi47bu
p2
I1
s.(dp0
Vd2o7141
p1
I1
sVcyi47bu
p2
I1
s.(dp0
Vd2o7141
p1
I1
sVcyi47bu
p2
I1
s.(dp0
Vd2xmtdn
p1
I1
sVcyi47bu
p2
I1
s.(dp0
Vd3b81e1
p1
I1
sVcyi47bu
p2
I1
s.(dp0
Vcyi47bu
p1
I1
sVd3ba9xu
p2
I1
s.(dp0
Vcyi47bu
p1
I1
sVd3ckn8e
p2
I1
s.(dp0
Vd3km6oo
p1
I1
sVcyi47bu
p2
I1
s.(dp0
Vd3km6oo
p1
I1
sVcyi47bu
p2
I1
s.(dp0
Vd3km6oo
p1
I1
sVcyi47bu
p2
I1
s.(dp0
Vd3km6oo
p1
I1
sVcyi47bu
p2
I1
s.(dp0
Vd3mawfy
p1
I1
sVcyi47bu
p2
I1
s.(dp0
Vd3wqeet
p1
I1
sVcyi47bu
p2
I1
s.(dp0
Vd3xbci0
p1
I1
sVcyi47bu
p2
I1
s.(dp0
Vd44n9xk
p1
I1
sVcyi47bu
p2
I1
s.(dp0
Vd4bks9p
p1
I1
sVcyi47bu
p2
I1
s.(dp0
Vcyi47bu
p1
I1
sVd4gxyxn
p2
I1
s.(dp0
Vd4i5giv
p1
I1
sVcyi47bu
p2
I1
s.(dp0
Vd4ofl7m
p1
I1
sVcyi47bu
p2
I1
s.(dp0
Vd4xruh9
p1
I1
sVcyi47bu
p2
I1
s.(dp0
Vd4xrvb0
p1
I1
sVcyi47bu
p2
I1
s.(dp0
Vd56mvn4
p1
I1
sVcyi47bu
p2
I1
s.(dp0
Vd59wvq8
p1
I1
sVcyi47bu
p2
I1
s.(dp0
Vd5jspmp
p1
I1
sVcyi47bu
p2
I1
s.(dp0
Vd5k7sl1
p1
I1
sVcyi47bu
p2
I1
s.(dp0
Vd5nd1vn
p1
I1
sVcyi47bu
p2
I1
s.(dp0
Vd5ybpch
p1
I1
sVcyi47bu
p2
I1
s.(dp0
Vd5ybpch
p1
I1
sVcyi47bu
p2
I1
s.(dp0
Vd6il0fk
p1
I1
sVcyi47bu
p2
I1
s.(dp0
Vd6ogvb5
p1
I1
sVcyi47bu
p2
I1
s.(dp0
Vd6ogvb5
p1
I1
sVcyi47bu
p2
I1
s.(dp0
Vd6t8vvr
p1
I1
sVcyi47bu
p2
I1
s.(dp0
Vd703f9s
p1
I1
sVcyi47bu
p2
I1
s.(dp0
Vd7dulhe
p1
I1
sVcyi47bu
p2
I1
s.(dp0
Vd7gjsjv
p1
I1
sVcyi47bu
p2
I1
s.(dp0
Vd7pjzd8
p1
I1
sVcyi47bu
p2
I1
s.(dp0
Vd7zat5o
p1
I1
sVcyi47bu
p2
I1
s.(dp0
Vd808gsi
p1
I1
sVcyi47bu
p2
I1
s.(dp0
Vcyi47bu
p1
I1
sVd83umsl
p2
I1
s.(dp0
Vcyi47bu
p1
I1
sVd83umsl
p2
I1
s.(dp0
Vd882seo
p1
I1
sVcyi47bu
p2
I1
s.(dp0
Vd8jv1n2
p1
I1
sVcyi47bu
p2
I1
s.(dp0
Vd8mcobn
p1
I1
sVcyi47bu
p2
I1
s.(dp0
Vd8mk3xd
p1
I1
sVcyi47bu
p2
I1
s.(dp0
Vcyi47bu
p1
I1
sVd8ntci2
p2
I1
s.(dp0
Vd8sn5nc
p1
I1
sVcyi47bu
p2
I1
s.(dp0
Vd8y8q60
p1
I1
sVcyi47bu
p2
I1
s.(dp0
Vd9d4l0e
p1
I1
sVcyi47bu
p2
I1
s.(dp0
Vd9d8b72
p1
I1
sVcyi47bu
p2
I1
s.(dp0
Vd9dmugq
p1
I1
sVcyi47bu
p2
I1
s.(dp0
Vd9kdk95
p1
I1
sVcyi47bu
p2
I1
s.(dp0
Vd9ke8ku
p1
I1
sVcyi47bu
p2
I1
s.(dp0
Vd9n5xvd
p1
I1
sVcyi47bu
p2
I1
s.(dp0
Vd9yea32
p1
I1
sVcyi47bu
p2
I1
s.(dp0
Vda0lebz
p1
I1
sVcyi47bu
p2
I1
s.(dp0
Vda7pq5a
p1
I1
sVcyi47bu
p2
I1
s.(dp0
Vda82yo5
p1
I1
sVcyi47bu
p2
I1
s.(dp0
Vdafl8gl
p1
I1
sVcyi47bu
p2
I1
s.(dp0
Vcyi47bu
p1
I1
sVdaicp2q
p2
I1
s.(dp0
Vda(dp0
Vdtasp7q
p1
I1
sVcyi47bu
p2
I1
s.