(dp0
Vcypg0lc
p1
I1
s.(dp0
Vcypg0lc
p1
I2
s.(dp0
Vcyqpqwr
p1
I1
sVcypg0lc
p2
I1
s.(dp0
Vcz7xlwl
p1
I1
sVcypg0lc
p2
I1
s.(dp0
Vcypg0lc
p1
I1
sVd08es1i
p2
I1
s.(dp0
Vcypg0lc
p1
I1
sVd0wdrkl
p2
I1
s.(dp0
Vcypg0lc
p1
I1
sVd0xvhip
p2
I1
s.(dp0
Vd0zi82t
p1
I1
sVcypg0lc
p2
I1
s.(dp0
Vcypg0lc
p1
I1
sVd1kufk4
p2
I1
s.(dp0
Vcypg0lc
p1
I1
sVd1kufk4
p2
I1
s.(dp0
Vcypg0lc
p1
I1
sVd1l6unz
p2
I1
s.(dp0
Vcypg0lc
p1
I1
sVd1l6unz
p2
I1
s.(dp0
Vcypg0lc
p1
I1
sVd1l6unz
p2
I1
s.(dp0
Vcypg0lc
p1
I1
sVd2nrpru
p2
I1
s.(dp0
Vd2ood9t
p1
I1
sVcypg0lc
p2
I1
s.(dp0
Vd39rmfm
p1
I1
sVcypg0lc
p2
I1
s.(dp0
Vd3akw6d
p1
I1
sVcypg0lc
p2
I1
s.(dp0
Vcypg0lc
p1
I1
sVd3mrt6j
p2
I1
s.(dp0
Vd3pvor9
p1
I1
sVcypg0lc
p2
I1
s.(dp0
Vd5a01lj
p1
I1
sVcypg0lc
p2
I1
s.(dp0
Vd5ggjyt
p1
I1
sVcypg0lc
p2
I1
s.(dp0
Vd7u8u8v
p1
I1
sVcypg0lc
p2
I1
s.(dp0
Vd84lcyr
p1
I1
sVcypg0lc
p2
I1
s.(dp0
Vcypg0lc
p1
I1
sVd86xadf
p2
I1
s.(dp0
Vd9jwdut
p1
I1
sVcypg0lc
p2
I1
s.(dp0
Vda4007o
p1
I1
sVcypg0lc
p2
I1
s.(dp0
Vda77wm7
p1
I1
sVcypg0lc
p2
I1
s.(dp0
Vda7pq5a
p1
I1
sVcypg0lc
p2
I1
s.(dp0
Vdb7bn9i
p1
I1
sVcypg0lc
p2
I1
s.(dp0
Vdc86ed4
p1
I1
sVcypg0lc
p2
I1
s.(dp0
Vcypg0lc
p1
I1
sVdcdk1zs
p2
I1
s.(dp0
Vcypg0lc
p1
I1
sVddl98p5
p2
I1
s.(dp0
Vddo0q12
p1
I1
sVcypg0lc
p2
I1
s.(dp0
Vcypg0lc
p1
I1
sVdduwni0
p2
I1
s.(dp0
Vdez0cxv
p1
I1
sVcypg0lc
p2
I1
s.(dp0
Vdg0jh4l
p1
I1
sVcypg0lc
p2
I1
s.(dp0
Vdg8a1cq
p1
I1
sVcypg0lc
p2
I1
s.(dp0
Vdg903fk
p1
I1
sVcypg0lc
p2
I1
s.(dp0
Vcypg0lc
p1
I1
sVdig9gmy
p2
I1
s.(dp0
Vdimm4td
p1
I1
sVcypg0lc
p2
I1
s.(dp0
Vdiv3ib4
p1
I1
sVcypg0lc
p2
I1
s.(dp0
Vdmh4nua
p1
I1
sVcypg0lc
p2
I1
s.(dp0
Vdmn0a3s
p1
I1
sVcypg0lc
p2
I1
s.(dp0
Vcypg0lc
p1
I1
sVdn3errx
p2
I1
s.(dp0
Vcypg0lc
p1
I1
sVdn899pr
p2
I1
s.(dp0
Vdo4zy0b
p1
I1
sVcypg0lc
p2
I1
s.(dp0
Vdp5ocb2
p1
I1
sVcypg0lc
p2
I1
s.(dp0
Vdpb2o0d
p1
I1
sVcypg0lc
p2
I1
s.(dp0
Vcypg0lc
p1
I1
sVdq6rhs7
p2
I1
s.(dp0
Vcypg0lc
p1
I1
sVdqn4ctc
p2
I1
s.(dp0
Vdrht7j7
p1
I1
sVcypg0lc
p2
I1
s.(dp0
Vdrv5d5d
p1
I1
sVcypg0lc
p2
I1
s.(dp0
Vcypg0lc
p1
I1
sVdsnedyr
p2
I1
s.(dp0
Vdt9h895
p1
I1
sVcypg0lc
p2
I1
s.