(dp0
Vd05o8vu
p1
I1
s.(dp0
Vd5uri36
p1
I1
sVd05o8vu
p2
I1
s.(dp0
Vd6lw9xd
p1
I1
sVd05o8vu
p2
I1
s.(dp0
Vd05o8vu
p1
I1
sVd85nvbs
p2
I1
s.(dp0
Vd9unqhf
p1
I1
sVd05o8vu
p2
I1
s.(dp0
Vd05o8vu
p1
I1
sVdbazhb2
p2
I1
s.(dp0
Vd05o8vu
p1
I1
sVdbazhb2
p2
I1
s.(dp0
Vd05o8vu
p1
I1
sVdbazhb2
p2
I1
s.(dp0
Vd05o8vu
p1
I1
sVdbazhb2
p2
I1
s.(dp0
Vd05o8vu
p1
I1
sVdbprw8c
p2
I1
s.(dp0
Vd05o8vu
p1
I1
sVdct13k5
p2
I1
s.(dp0
Vdsix8fh
p1
I1
sVd05o8vu
p2
I1
s.