(dp0
Vdmz9k3k
p1
I1
sVddpxqdq
p2
I1
sVczgvqpi
p3
I1
sVd38hgnk
p4
I1
sVczks2e4
p5
I1
sVd4n9a26
p6
I1
sVd2hxfwv
p7
I1
sVdkfna87
p8
I1
sVdgn1xwt
p9
I1
sVdggxq3q
p10
I1
sVcz3d13b
p11
I1
sVczjan0p
p12
I1
sVdc5mov7
p13
I1
sVd4u64qh
p14
I1
sVdhdzhht
p15
I1
sVdf79z3k
p16
I1
sVdd6fzao
p17
I1
s.