(dp0
Vcynv8j8
p1
I1
s.(dp0
Vcynv8j8
p1
I1
sVcynxeto
p2
I1
s.(dp0
Vcynv8j8
p1
I1
sVcznef0n
p2
I1
s.(dp0
Vd00yuel
p1
I1
sVcynv8j8
p2
I1
s.(dp0
Vd00yuel
p1
I1
sVcynv8j8
p2
I1
s.(dp0
Vcynv8j8
p1
I1
sVd0qnguk
p2
I1
s.(dp0
Vd17f9mi
p1
I1
sVcynv8j8
p2
I1
s.(dp0
Vd17f9mi
p1
I1
sVcynv8j8
p2
I1
s.(dp0
Vd2qw14t
p1
I1
sVcynv8j8
p2
I1
s.(dp0
Vd2qw14t
p1
I1
sVcynv8j8
p2
I1
s.(dp0
Vd2qw14t
p1
I1
sVcynv8j8
p2
I1
s.(dp0
Vd5064un
p1
I1
sVcynv8j8
p2
I1
s.(dp0
Vd5064un
p1
I1
sVcynv8j8
p2
I1
s.(dp0
Vd5ckw2g
p1
I1
sVcynv8j8
p2
I1
s.(dp0
Vcynv8j8
p1
I1
sVd6xn6qu
p2
I1
s.(dp0
Vd776yio
p1
I1
sVcynv8j8
p2
I1
s.(dp0
Vcynv8j8
p1
I1
sVd89lg4j
p2
I1
s.(dp0
Vd9vuimh
p1
I1
sVcynv8j8
p2
I1
s.(dp0
Vd9vuimh
p1
I1
sVcynv8j8
p2
I1
s.(dp0
Vcynv8j8
p1
I1
sVd9vv83s
p2
I1
s.(dp0
Vdai4vuv
p1
I1
sVcynv8j8
p2
I1
s.(dp0
Vdaqbn0b
p1
I1
sVcynv8j8
p2
I1
s.(dp0
Vdaqbn0b
p1
I1
sVcynv8j8
p2
I1
s.(dp0
Vdbmb98r
p1
I1
sVcynv8j8
p2
I1
s.(dp0
Vcynv8j8
p1
I1
sVdbqx9j4
p2
I1
s.(dp0
Vdcww46z
p1
I1
sVcynv8j8
p2
I1
s.(dp0
Vde0ttsm
p1
I1
sVcynv8j8
p2
I1
s.(dp0
Vde0ttsm
p1
I1
sVcynv8j8
p2
I1
s.(dp0
Vdeij92x
p1
I1
sVcynv8j8
p2
I1
s.(dp0
Vcynv8j8
p1
I1
sVdeijaqz
p2
I1
s.(dp0
Vdewwrhu
p1
I1
sVcynv8j8
p2
I1
s.(dp0
Vcynv8j8
p1
I1
sVdewwxqw
p2
I1
s.(dp0
Vcynv8j8
p1
I1
sVdewwxqw
p2
I1
s.(dp0
Vdfxtg45
p1
I1
sVcynv8j8
p2
I1
s.(dp0
Vdfxtg45
p1
I1
sVcynv8j8
p2
I1
s.(dp0
Vdfxtg45
p1
I1
sVcynv8j8
p2
I1
s.(dp0
Vdg4vr28
p1
I1
sVcynv8j8
p2
I1
s.(dp0
Vdgjl99z
p1
I1
sVcynv8j8
p2
I1
s.(dp0
Vdgjl99z
p1
I1
sVcynv8j8
p2
I1
s.(dp0
Vdgjl99z
p1
I1
sVcynv8j8
p2
I1
s.(dp0
Vcynv8j8
p1
I1
sVdgtnv7q
p2
I1
s.(dp0
Vcynv8j8
p1
I1
sVdgtnv7q
p2
I1
s.(dp0
Vcynv8j8
p1
I1
sVdgtnv7q
p2
I1
s.(dp0
Vdh44ddz
p1
I1
sVcynv8j8
p2
I1
s.(dp0
Vdh88hax
p1
I1
sVcynv8j8
p2
I1
s.(dp0
Vdibj61q
p1
I1
sVcynv8j8
p2
I1
s.(dp0
Vdij02xt
p1
I1
sVcynv8j8
p2
I1
s.(dp0
Vcynv8j8
p1
I1
sVdikfufe
p2
I1
s.(dp0
Vdngu9sj
p1
I1
sVcynv8j8
p2
I1
s.(dp0
Vdngu9sj
p1
I1
sVcynv8j8
p2
I1
s.(dp0
Vdngu9sj
p1
I1
sVcynv8j8
p2
I1
s.(dp0
Vdngu9sj
p1
I1
sVcynv8j8
p2
I1
s.(dp0
Vdngu9sj
p1
I1
sVcynv8j8
p2
I1
s.(dp0
Vcynv8j8
p1
I1
sVdoxcect
p2
I1
s.(dp0
Vcynv8j8
p1
I1
sVdphp1dp
p2
I1
s.(dp0
Vcynv8j8
p1
I1
sVdq48wjc
p2
I1
s.(dp0
Vcynv8j8
p1
I1
sVdq48wjc
p2
I1
s.(dp0
Vdq4926n
p1
I1
sVcynv8j8
p2
I1
s.(dp0
Vdq4926n
p1
I1
sVcynv8j8
p2
I1
s.(dp0
Vdq4926n
p1
I1
sVcynv8j8
p2
I1
s.(dp0
Vdq4926n
p1
I1
sVcynv8j8
p2
I1
s.(dp0
Vdq4926n
p1
I1
sVcynv8j8
p2
I1
s.(dp0
Vcynv8j8
p1
I1
sVdr214mp
p2
I1
s.(dp0
Vcynv8j8
p1
I1
sVdr214mp
p2
I1
s.(dp0
Vdr22x5r
p1
I1
sVcynv8j8
p2
I1
s.(dp0
Vdrp8rqx
p1
I1
sVcynv8j8
p2
I1
s.(dp0
Vds3hr6s
p1
I1
sVcynv8j8
p2
I1
s.(dp0
Vds3hr6s
p1
I1
sVcynv8j8
p2
I1
s.(dp0
Vds3hr6s
p1
I1
sVcynv8j8
p2
I1
s.(dp0
Vds3hr6s
p1
I1
sVcynv8j8
p2
I1
s.(dp0
Vcynv8j8
p1
I1
sVdspmzn4
p2
I1
s.