(dp0
Vcyq6ho7
p1
I1
s.(dp0
Vcyvszvx
p1
I1
sVcyq6ho7
p2
I1
s.(dp0
Vcz5ei0w
p1
I1
sVcyq6ho7
p2
I1
s.(dp0
Vcz5ei0w
p1
I1
sVcyq6ho7
p2
I1
s.(dp0
Vcz69o2c
p1
I1
sVcyq6ho7
p2
I1
s.(dp0
Vcz81ll0
p1
I1
sVcyq6ho7
p2
I1
s.(dp0
Vczh4a39
p1
I1
sVcyq6ho7
p2
I1
s.(dp0
Vczkwemi
p1
I1
sVcyq6ho7
p2
I1
s.(dp0
Vczlamq9
p1
I1
sVcyq6ho7
p2
I1
s.(dp0
Vczxs5hg
p1
I1
sVcyq6ho7
p2
I1
s.(dp0
Vczzrv8y
p1
I1
sVcyq6ho7
p2
I1
s.(dp0
Vd07vl51
p1
I1
sVcyq6ho7
p2
I1
s.(dp0
Vd09jgyz
p1
I1
sVcyq6ho7
p2
I1
s.(dp0
Vd0h9z7m
p1
I1
sVcyq6ho7
p2
I1
s.(dp0
Vd0hqks4
p1
I1
sVcyq6ho7
p2
I1
s.(dp0
Vcyq6ho7
p1
I1
sVd0qwxmg
p2
I1
s.(dp0
Vcyq6ho7
p1
I1
sVd0ylyw5
p2
I1
s.(dp0
Vd183tv6
p1
I1
sVcyq6ho7
p2
I1
s.(dp0
Vd1e8em7
p1
I1
sVcyq6ho7
p2
I1
s.(dp0
Vd1izmlg
p1
I1
sVcyq6ho7
p2
I1
s.(dp0
Vd1pp6gp
p1
I1
sVcyq6ho7
p2
I1
s.(dp0
Vd1sbrxr
p1
I1
sVcyq6ho7
p2
I1
s.(dp0
Vd1tktna
p1
I1
sVcyq6ho7
p2
I1
s.(dp0
Vd23lipf
p1
I1
sVcyq6ho7
p2
I1
s.(dp0
Vd2al42h
p1
I1
sVcyq6ho7
p2
I1
s.(dp0
Vd2al42h
p1
I1
sVcyq6ho7
p2
I1
s.(dp0
Vd2g7mcc
p1
I1
sVcyq6ho7
p2
I1
s.(dp0
Vd2hwbc9
p1
I1
sVcyq6ho7
p2
I1
s.(dp0
Vd2ncjww
p1
I1
sVcyq6ho7
p2
I1
s.(dp0
Vd2rb5t0
p1
I1
sVcyq6ho7
p2
I1
s.(dp0
Vd2ueiqy
p1
I1
sVcyq6ho7
p2
I1
s.(dp0
Vd3uplod
p1
I1
sVcyq6ho7
p2
I1
s.(dp0
Vd41ae7x
p1
I1
sVcyq6ho7
p2
I1
s.(dp0
Vd44ehkb
p1
I1
sVcyq6ho7
p2
I1
s.(dp0
Vd48oi5q
p1
I1
sVcyq6ho7
p2
I1
s.(dp0
Vd4cap8t
p1
I1
sVcyq6ho7
p2
I1
s.(dp0
Vd5ei3cn
p1
I1
sVcyq6ho7
p2
I1
s.(dp0
Vd5ylona
p1
I1
sVcyq6ho7
p2
I1
s.(dp0
Vd60bhuc
p1
I1
sVcyq6ho7
p2
I1
s.(dp0
Vd6b43d3
p1
I1
sVcyq6ho7
p2
I1
s.(dp0
Vcyq6ho7
p1
I1
sVd6bc02g
p2
I1
s.(dp0
Vd6h9j56
p1
I1
sVcyq6ho7
p2
I1
s.(dp0
Vd78czwy
p1
I1
sVcyq6ho7
p2
I1
s.(dp0
Vcyq6ho7
p1
I1
sVd78j2hy
p2
I1
s.(dp0
Vd7x7opd
p1
I1
sVcyq6ho7
p2
I1
s.(dp0
Vd7xg5q7
p1
I1
sVcyq6ho7
p2
I1
s.(dp0
Vd81hw7w
p1
I1
sVcyq6ho7
p2
I1
s.(dp0
Vcyq6ho7
p1
I1
sVd8j22hr
p2
I1
s.(dp0
Vd8rhp8e
p1
I1
sVcyq6ho7
p2
I1
s.(dp0
Vd99uv52
p1
I1
sVcyq6ho7
p2
I1
s.(dp0
Vd9cb3zy
p1
I1
sVcyq6ho7
p2
I1
s.(dp0
Vd9z1ln5
p1
I1
sVcyq6ho7
p2
I1
s.(dp0
Vdajjthv
p1
I1
sVcyq6ho7
p2
I1
s.(dp0
Vdale1y4
p1
I1
sVcyq6ho7
p2
I1
s.(dp0
Vdav8wqj
p1
I1
sVcyq6ho7
p2
I1
s.(dp0
Vdawspz8
p1
I1
sVcyq6ho7
p2
I1
s.(dp0
Vdbe7462
p1
I1
sVcyq6ho7
p2
I1
s.(dp0
Vcyq6ho7
p1
I1
sVdc9n8ck
p2
I1
s.(dp0
Vdc9oxge
p1
I1
sVcyq6ho7
p2
I1
s.(dp0
Vdcamaxa
p1
I1
sVcyq6ho7
p2
I1
s.(dp0
Vdcamaxa
p1
I1
sVcyq6ho7
p2
I1
s.(dp0
Vcyq6ho7
p1
I1
sVddcmadq
p2
I1
s.(dp0
Vdde9koc
p1
I1
sVcyq6ho7
p2
I1
s.(dp0
Vddrdqyi
p1
I1
sVcyq6ho7
p2
I1
s.(dp0
Vddzubw3
p1
I1
sVcyq6ho7
p2
I1
s.(dp0
Vde01zrg
p1
I1
sVcyq6ho7
p2
I1
s.(dp0
Vdei93gm
p1
I1
sVcyq6ho7
p2
I1
s.(dp0
Vdf5ceoo
p1
I1
sVcyq6ho7
p2
I1
s.(dp0
Vdf5chgt
p1
I1
sVcyq6ho7
p2
I1
s.(dp0
Vdfaqu26
p1
I1
sVcyq6ho7
p2
I1
s.(dp0
Vdfbbwe3
p1
I1
sVcyq6ho7
p2
I1
s.(dp0
Vdfguv8q
p1
I1
sVcyq6ho7
p2
I1
s.(dp0
Vdfguv8q
p1
I1
sVcyq6ho7
p2
I1
s.(dp0
Vdfj4iel
p1
I1
sVcyq6ho7
p2
I1
s.(dp0
Vdgits8p
p1
I1
sVcyq6ho7
p2
I1
s.(dp0
Vdgo9kf2
p1
I1
sVcyq6ho7
p2
I1
s.(dp0
Vdgvbhle
p1
I1
sVcyq6ho7
p2
I1
s.(dp0
Vdh1s56a
p1
I1
sVcyq6ho7
p2
I1
s.(dp0
Vcyq6ho7
p1
I1
sVdh4xk8k
p2
I1
s.(dp0
Vdhiqevn
p1
I1
sVcyq6ho7
p2
I1
s.(dp0
Vdhoj800
p1
I1
sVcyq6ho7
p2
I1
s.(dp0
Vdhp5oyd
p1
I1
sVcyq6ho7
p2
I1
s.(dp0
Vdipispf
p1
I1
sVcyq6ho7
p2
I1
s.(dp0
Vdipjapb
p1
I1
sVcyq6ho7
p2
I1
s.(dp0
Vdipktb5
p1
I1
sVcyq6ho7
p2
I1
s.(dp0
Vdipkug1
p1
I1
sVcyq6ho7
p2
I1
s.(dp0
Vdippy9s
p1
I1
sVcyq6ho7
p2
I1
s.(dp0
Vdipsxaa
p1
I1
sVcyq6ho7
p2
I1
s.(dp0
Vdiptapu
p1
I1
sVcyq6ho7
p2
I1
s.(dp0
Vdiptapu
p1
I1
sVcyq6ho7
p2
I1
s.(dp0
Vdiptapu
p1
I1
sVcyq6ho7
p2
I1
s.(dp0
Vdiq8tiq
p1
I1
sVcyq6ho7
p2
I1
s.(dp0
Vdj9p149
p1
I1
sVcyq6ho7
p2
I1
s.(dp0
Vdjrvytv
p1
I1
sVcyq6ho7
p2
I1
s.(dp0
Vcyq6ho7
p1
I1
sVdk417kp
p2
I1
s.(dp0
Vdk9g6ug
p1
I1
sVcyq6ho7
p2
I1
s.(dp0
Vcyq6ho7
p1
I1
sVdkewajb
p2
I1
s.(dp0
Vdkgw5pp
p1
I1
sVcyq6ho7
p2
I1
s.(dp0
Vdmu9i66
p1
I1
sVcyq6ho7
p2
I1
s.(dp0
Vdnqpyua
p1
I1
sVcyq6ho7
p2
I1
s.(dp0
Vdnqpyua
p1
I1
sVcyq6ho7
p2
I1
s.(dp0
Vdntafdr
p1
I1
sVcyq6ho7
p2
I1
s.(dp0
Vdo5s5xf
p1
I1
sVcyq6ho7
p2
I1
s.(dp0
Vdo5s5xf
p1
I1
sVcyq6ho7
p2
I1
s.(dp0
Vdo9tai7
p1
I1
sVcyq6ho7
p2
I1
s.(dp0
Vdo9tai7
p1
I1
sVcyq6ho7
p2
I1
s.(dp0
Vdocp1b6
p1
I1
sVcyq6ho7
p2
I1
s.(dp0
Vdp1bqk2
p1
I1
sVcyq6ho7
p2
I1
s.(dp0
Vcy(dp0
Vdtehqdi
p1
I1
sVcyq6ho7
p2
I1
s.