(dp0
Vddjypym
p1
I1
sVd0ozbu2
p2
I1
sVd3pbea8
p3
I1
sVdbso7rh
p4
I1
sVd05h7xa
p5
I1
sVd4awavf
p6
I1
sVdc7h0qu
p7
I1
sVdnk2o1h
p8
I1
sVdigz73h
p9
I2
sVd07ozlj
p10
I1
sVdhnni26
p11
I1
sVdnqpyua
p12
I1
sVdameczt
p13
I2
sVdo5s5xf
p14
I7
sVd249hma
p15
I1
sVdk91rob
p16
I1
sVdd20928
p17
I1
sVd0hke50
p18
I1
sVddpkq3d
p19
I1
sVdq14akr
p20
I4
sVd0lv2na
p21
I1
sVcyun3jo
p22
I1
sVd0dsyl4
p23
I1
sVcyijqx1
p24
I1
sVdos3b3m
p25
I1
sVdp1ddrm
p26
I1
sVdnkpo3p
p27
I1
sVdbsfb4e
p28
I2
sVdavb8e3
p29
I1
sVd4rrtx3
p30
I1
sVdek73qn
p31
I1
sVddpjs44
p32
I1
sVdht4nao
p33
I2
sVdawspz8
p34
I1
sVdd0witb
p35
I1
sVdofr4ad
p36
I1
sVd0t214t
p37
I2
sVdrjcyy4
p38
I1
sVdnnpkmr
p39
I1
sVd9dempt
p40
I1
sVd81hw7w
p41
I5
sVdippy9s
p42
I1
sVdr96e51
p43
I1
sVd83o3kw
p44
I1
sVdi8kkc5
p45
I1
sVd0hqks4
p46
I1
sVdny76qs
p47
I1
sVd85577u
p48
I1
sVd04udcb
p49
I1
sVdipispf
p50
I2
sVd67sbik
p51
I1
sVdo5v9j8
p52
I2
sVdkab542
p53
I1
s.