(dp0
Vcykous8
p1
I1
s.(dp0
Vcykous8
p1
I1
sVcykp8q2
p2
I1
s.(dp0
Vcykous8
p1
I1
sVcykp8q2
p2
I1
s.(dp0
Vcyl0q6v
p1
I1
sVcykous8
p2
I1
s.(dp0
Vcyljwhv
p1
I1
sVcykous8
p2
I1
s.(dp0
Vcym3pwr
p1
I1
sVcykous8
p2
I1
s.(dp0
Vcym3pwr
p1
I1
sVcykous8
p2
I1
s.(dp0
Vcynoh9q
p1
I1
sVcykous8
p2
I1
s.(dp0
Vcykous8
p1
I1
sVcynuck3
p2
I1
s.(dp0
Vcyos3gg
p1
I1
sVcykous8
p2
I1
s.(dp0
Vcyovgb6
p1
I1
sVcykous8
p2
I1
s.(dp0
Vcyovgb6
p1
I1
sVcykous8
p2
I1
s.(dp0
Vcykous8
p1
I1
sVcyq0u7a
p2
I1
s.(dp0
Vcykous8
p1
I1
sVcyq4j1n
p2
I1
s.(dp0
Vcyqw1rq
p1
I1
sVcykous8
p2
I1
s.(dp0
Vcykous8
p1
I1
sVcyrchp5
p2
I1
s.(dp0
Vcysmti5
p1
I1
sVcykous8
p2
I1
s.(dp0
Vcykous8
p1
I1
sVcyvp6p1
p2
I1
s.(dp0
Vcykous8
p1
I1
sVcyvpndf
p2
I1
s.(dp0
Vcykous8
p1
I1
sVcyvpndf
p2
I1
s.(dp0
Vcyvxc91
p1
I1
sVcykous8
p2
I1
s.(dp0
Vcywlqsp
p1
I1
sVcykous8
p2
I1
s.(dp0
Vcywnkaq
p1
I1
sVcykous8
p2
I1
s.(dp0
Vcywnkaq
p1
I1
sVcykous8
p2
I1
s.(dp0
Vcywnkaq
p1
I1
sVcykous8
p2
I1
s.(dp0
Vcywnkaq
p1
I1
sVcykous8
p2
I1
s.(dp0
Vcywnkaq
p1
I1
sVcykous8
p2
I1
s.(dp0
Vcywnkaq
p1
I1
sVcykous8
p2
I1
s.(dp0
Vcyx2mit
p1
I1
sVcykous8
p2
I1
s.(dp0
Vcyx2mit
p1
I1
sVcykous8
p2
I1
s.(dp0
Vcyxecr4
p1
I1
sVcykous8
p2
I1
s.(dp0
Vcyxlk8b
p1
I1
sVcykous8
p2
I1
s.(dp0
Vcyy1pnr
p1
I1
sVcykous8
p2
I1
s.(dp0
Vcyy1pnr
p1
I1
sVcykous8
p2
I1
s.(dp0
Vcykous8
p1
I1
sVcyzop8i
p2
I1
s.(dp0
Vcykous8
p1
I1
sVcyzop8i
p2
I1
s.(dp0
Vcykous8
p1
I1
sVcyzop8i
p2
I1
s.(dp0
Vcyzv832
p1
I1
sVcykous8
p2
I1
s.(dp0
Vcz0i20p
p1
I1
sVcykous8
p2
I1
s.(dp0
Vcz1bfw1
p1
I1
sVcykous8
p2
I1
s.(dp0
Vcz1bfw1
p1
I1
sVcykous8
p2
I1
s.(dp0
Vcz2qywo
p1
I1
sVcykous8
p2
I1
s.(dp0
Vcz4nytq
p1
I1
sVcykous8
p2
I1
s.(dp0
Vcz4t7v1
p1
I1
sVcykous8
p2
I1
s.(dp0
Vcz58omw
p1
I1
sVcykous8
p2
I1
s.(dp0
Vcz59u8v
p1
I1
sVcykous8
p2
I1
s.(dp0
Vcz5bzni
p1
I1
sVcykous8
p2
I1
s.(dp0
Vcykous8
p1
I1
sVcz5geiw
p2
I1
s.(dp0
Vcykous8
p1
I1
sVcz5p74o
p2
I1
s.(dp0
Vcz76gk9
p1
I1
sVcykous8
p2
I1
s.(dp0
Vcz811jy
p1
I1
sVcykous8
p2
I1
s.(dp0
Vcz83mgn
p1
I1
sVcykous8
p2
I1
s.(dp0
Vcz98ltf
p1
I1
sVcykous8
p2
I1
s.(dp0
Vczaod4a
p1
I1
sVcykous8
p2
I1
s.(dp0
Vcykous8
p1
I1
sVczat8xn
p2
I1
s.(dp0
Vcykous8
p1
I1
sVczcwac6
p2
I1
s.(dp0
Vcykous8
p1
I1
sVczcwac6
p2
I1
s.(dp0
Vcykous8
p1
I1
sVczcwac6
p2
I1
s.(dp0
Vcykous8
p1
I1
sVczen6om
p2
I1
s.(dp0
Vcykous8
p1
I1
sVczen6om
p2
I1
s.(dp0
Vcykous8
p1
I1
sVczen6om
p2
I1
s.(dp0
Vcykous8
p1
I1
sVczen6om
p2
I1
s.(dp0
Vcykous8
p1
I1
sVczen6om
p2
I1
s.(dp0
Vcykous8
p1
I1
sVczen6om
p2
I1
s.(dp0
Vcykous8
p1
I1
sVczen6om
p2
I1
s.(dp0
Vcykous8
p1
I1
sVczen6om
p2
I1
s.(dp0
Vcykous8
p1
I1
sVczen6om
p2
I1
s.(dp0
Vczgirnk
p1
I1
sVcykous8
p2
I1
s.(dp0
Vczgiw6a
p1
I1
sVcykous8
p2
I1
s.(dp0
Vczgmunl
p1
I1
sVcykous8
p2
I1
s.(dp0
Vczite5i
p1
I1
sVcykous8
p2
I1
s.(dp0
Vcykous8
p1
I1
sVczj8njn
p2
I1
s.(dp0
Vcykous8
p1
I1
sVczjbzh1
p2
I1
s.(dp0
Vcykous8
p1
I1
sVczjbzh1
p2
I1
s.(dp0
Vczkblve
p1
I1
sVcykous8
p2
I1
s.(dp0
Vczki1ip
p1
I1
sVcykous8
p2
I1
s.(dp0
Vczku7hx
p1
I1
sVcykous8
p2
I1
s.(dp0
Vczku7hx
p1
I1
sVcykous8
p2
I1
s.(dp0
Vczku7hx
p1
I1
sVcykous8
p2
I1
s.(dp0
Vczku7hx
p1
I1
sVcykous8
p2
I1
s.(dp0
Vczku7hx
p1
I1
sVcykous8
p2
I1
s.(dp0
Vcykous8
p1
I1
sVczl1543
p2
I1
s.(dp0
Vczl7gbh
p1
I1
sVcykous8
p2
I1
s.(dp0
Vcykous8
p1
I1
sVczldas3
p2
I1
s.(dp0
Vczm0xhp
p1
I1
sVcykous8
p2
I1
s.(dp0
Vczm0xhp
p1
I1
sVcykous8
p2
I1
s.(dp0
Vcykous8
p1
I1
sVczmh349
p2
I1
s.(dp0
Vczmsy3h
p1
I1
sVcykous8
p2
I1
s.(dp0
Vczmsy3h
p1
I1
sVcykous8
p2
I1
s.(dp0
Vcykous8
p1
I1
sVcznkhb4
p2
I1
s.(dp0
Vcykous8
p1
I1
sVczo64dm
p2
I1
s.(dp0
Vcykous8
p1
I1
sVczo64dm
p2
I1
s.(dp0
Vczo81gk
p1
I1
sVcykous8
p2
I1
s.(dp0
Vczoseb3
p1
I1
sVcykous8
p2
I1
s.(dp0
Vczpa4aq
p1
I1
sVcykous8
p2
I1
s.(dp0
Vczpa4aq
p1
I1
sVcykous8
p2
I1
s.(dp0
Vczpa4aq
p1
I1
sVcykous8
p2
I1
s.(dp0
Vczpa4aq
p1
I1
sVcykous8
p2
I1
s.(dp0
Vcykous8
p1
I1
sVczr360q
p2
I1
s.(dp0
Vczr9nxh
p1
I1
sVcykous8
p2
I1
s.(dp0
Vcykous8
p1
I1
sVczro2q3
p2
I1
s.(dp0
Vcykous8
p1
I1
sVczsdujq
p2
I1
s.(dp0
Vczsvxbm
p1
I1
sVcykous8
p2
I1
s.(dp0
Vczt1o83
p1
I1
sVcykous8
p2
I1
s.(dp0
Vcztrk7e
p1
I1
sVcykous8
p2
I1
s.(dp0
Vcykous8
p1
I1
sVczv1i7h
p2
I1
s.(dp0
Vczw6i8i
p1
I1
sVcykous8
p2
I1
s.(dp0
Vczxk3ep
p1
I1
sVcykous8
p2
I1
s.(dp0
Vcz(dp0
Vdtinth5
p1
I1
sVcykous8
p2
I1
s.