(dp0
Vdfm51y5
p1
I1
sVdd2ea73
p2
I1
sVdft79pn
p3
I1
sVdehc2nl
p4
I1
sVdcwrrdb
p5
I1
sVd858ojf
p6
I2
sVd2w47vy
p7
I1
sVd3fkeg9
p8
I3
sVd04cdfi
p9
I2
sVd3d58ri
p10
I1
sVdcxfy0f
p11
I1
sVdflgbog
p12
I1
sVd42lwtg
p13
I1
sVd0594bt
p14
I4
sVd3flvl3
p15
I1
sVcz72odn
p16
I1
sVdd3aaol
p17
I7
sVd9wdgw0
p18
I4
sVdh694zy
p19
I1
sVd5oeomt
p20
I1
sVczoumtb
p21
I1
sVdfq42nn
p22
I1
sVd1311ow
p23
I1
sVd2xe7fy
p24
I1
sVdhcr0pi
p25
I1
sVdf64hga
p26
I2
sVd2sibvi
p27
I1
sVd0q3r8h
p28
I3
sVd4b9ujm
p29
I2
sVdr6e296
p30
I1
sVdizewaq
p31
I1
sVdeg9swo
p32
I2
sVdef60ac
p33
I1
sVd1bvi5s
p34
I3
sVd2lyjpz
p35
I1
sVda6tlwl
p36
I1
sVd65qsoe
p37
I1
sVd1yudic
p38
I1
sVdcoo9x9
p39
I1
sVd0usnbi
p40
I2
sVd5q4tbk
p41
I1
sVd5uq08j
p42
I2
sVd0je19z
p43
I2
sVdco3t0c
p44
I1
sVd9b8jok
p45
I1
sVd2a97ie
p46
I1
sVdczmqdw
p47
I1
sVdj64fnz
p48
I1
sVdev8c5h
p49
I1
sVd7xhcxq
p50
I1
sVd07wios
p51
I1
sVdciufow
p52
I1
sVdg8o6kw
p53
I1
sVd9zq8u7
p54
I1
sVdd5ilit
p55
I1
sVd96walk
p56
I1
sVd76cfd9
p57
I2
sVd0kfjta
p58
I1
sVczz6189
p59
I1
sVd39vttd
p60
I3
sVd9o2b69
p61
I1
sVdh4gbtd
p62
I1
sVd82pr63
p63
I1
sVd5337xj
p64
I2
sVdcvpdnx
p65
I2
sVdhchx4a
p66
I1
sVdfinbzn
p67
I1
sVdfbbco6
p68
I1
sVdkm9ppy
p69
I1
sVdeaht0m
p70
I2
sVd9azv4o
p71
I2
sVda7z2x8
p72
I1
sVd6mf40z
p73
I1
sVd3fgfy5
p74
I2
sVdfwtgiz
p75
I1
sVd8fuq98
p76
I1
sVd693b4n
p77
I1
sVd9sw0bu
p78
I1
sVdebr9ki
p79
I1
sVd1cfj57
p80
I1
sVd3d6yr5
p81
I2
sVddcbt3e
p82
I1
sVdrbvfny
p83
I1
sVd0zjjky
p84
I2
sVdeerfyl
p85
I1
sVdpj6jhb
p86
I3
sVdmqx0r7
p87
I2
sVdhc5jhk
p88
I2
sVdiwr89q
p89
I2
sVdefkjyf
p90
I2
sVd7ldmuv
p91
I3
sVde01s3e
p92
I1
sVd8p2ge4
p93
I2
sVdcsczua
p94
I2
sVdejnusm
p95
I2
sVddkhrio
p96
I1
sVdh66axy
p97
I1
sVdc5bqi1
p98
I1
sVdc4cka2
p99
I2
sVdha7xfc
p100
I1
sVdid3dbn
p101
I1
sVdcuehtn
p102
I1
sVd95rf4w
p103
I1
sVd9vonso
p104
I1
sVdcvj7x1
p105
I1
sVd2jvx1w
p106
I2
sVdbe940r
p107
I1
sVdcqmd9u
p108
I1
sVddia9hg
p109
I1
sVd67ryts
p110
I1
sVdaitbd0
p111
I1
sVdataj4d
p112
I2
sVdhd5bgi
p113
I7
sVd9s7pmr
p114
I4
sVdd1tera
p115
I1
sVdcuhxp6
p116
I1
sVdhpc6h1
p117
I1
sVd2a455w
p118
I2
sVd8utnu1
p119
I1
sVdddm2v4
p120
I2
sVd03xzzg
p121
I1
sVdfs50nz
p122
I1
sVdr9sg1f
p123
I1
sVd3df8i0
p124
I3
sVd14l95o
p125
I1
sVdfa830e
p126
I2
sVdcphyce
p127
I1
sVdhcubki
p128
I8
sVd6mont5
p129
I1
sVdk37f2r
p130
I2
sVdctgbwp
p131
I1
sVd6zkl0l
p132
I1
sVd67l8wh
p133
I1
sVdtgj09h
p134
I1
sVd5o1w1w
p135
I1
sVdd50f3m
p136
I7
sVddaouvg
p137
I1
sVdcquejf
p138
I3
sVd11u3g4
p139
I1
sVdb10otz
p140
I1
sVdho5blb
p141
I1
sVddvc3gu
p142
I1
sVd605nlx
p143
I3
sVd1oy5xk
p144
I1
sVdefbvy5
p145
I1
sVd1y90kb
p146
I2
sVczshxrj
p147
I1
sVdedna07
p148
I1
sVd0d4men
p149
I1
sVd2pm56n
p150
I1
sVd8pbpyj
p151
I1
sVdcse0bk
p152
I1
sVdcxffu5
p153
I2
sVdjtdwns
p154
I2
sVddlv1cq
p155
I3
sVdgpds06
p156
I2
sVdi226by
p157
I2
sVczqgj5x
p158
I2
sVdeqbqyt
p159
I1
sVd5uq8g1
p160
I1
sVdbk34fj
p161
I4
sVd9s4zw5
p162
I1
sVd9t3v5a
p163
I1
sVdk2h6jh
p164
I2
sVddve5m4
p165
I1
sVdcgo6nq
p166
I1
sVdczw1n6
p167
I1
sVd4eixi8
p168
I2
sVd9nbv8a
p169
I1
sVd9sesjm
p170
I1
sVdfxbzt0
p171
I1
sVdbhu4di
p172
I1
sVd5uukej
p173
I1
sVd46aedf
p174
I1
sVdg5onyy
p175
I1
sVcz7i6hs
p176
I1
sVd0bwelm
p177
I1
sVd38wzm8
p178
I2
sVd8zxrkz
p179
I3
sVd9qfe8g
p180
I1
sVdadlo99
p181
I1
sVd5uqev0
p182
I1
sVdkwmwc8
p183
I1
sVd8g1e7r
p184
I3
sVdhu3o80
p185
I1
sVd1j8ov5
p186
I3
sVdgx0dia
p187
I1
sVdcrjwm3
p188
I1
sVdb5gsgq
p189
I1
sVdebs03q
p190
I1
sVcymbkov
p191
I1
sVda4nv5o
p192
I1
sVd0xczgw
p193
I1
sVd7te6kt
p194
I1
sVdkdfzy6
p195
I1
sVdccvnuh
p196
I1
sVd6ggis2
p197
I1
sVdmnvi0f
p198
I1
sVdepo0k5
p199
I1
sVdivs4q3
p200
I2
sVdd93uvn
p201
I1
sVda16nm2
p202
I1
sVdbk11g4
p203
I1
sVdfspiw3
p204
I3
sVczalk32
p205
I4
sVd0y4mkk
p206
I2
sVdcy1s2f
p207
I1
sVdcy3jl3
p208
I1
sVdc935t1
p209
I1
sVd7w0o06
p210
I1
sVdq7skge
p211
I1
sVdgz7s4w
p212
I1
sVdqk2rpa
p213
I1
sVdfiljn4
p214
I5
sVd73nn6a
p215
I1
sVd9gsd07
p216
I1
sVdfk36bd
p217
I1
sVdg8ztou
p218
I1
sVd9td664
p219
I1
sVdd53hdi
p220
I1
sVdcwxktl
p221
I2
sVd9xdflw
p222
I1
sVd0mcb9l
p223
I1
sVdd69e0y
p224
I1
sVd4nzntp
p225
I2
sVdjjqyzu
p226
I2
sVdfyr8tj
p227
I1
sVd476qmj
p228
I1
sVd0itmu7
p229
I2
sVdh9h32k
p230
I1
sVdgyuicf
p231
I1
sVde33bot
p232
I1
sVd54owae
p233
I1
sVdd7jrvi
p234
I2
sVd8lnu4d
p235
I2
sVdd4pvbd
p236
I1
sVd5dhixu
p237
I1
sVde8l6z9
p238
I1
sVdhd00i0
p239
I2
sVdfwz3n2
p240
I2
sVd0prikk
p241
I1
sVd115b5d
p242
I2
sVd0qavns
p243
I2
sVdggur6a
p244
I1
sVdcwqg4u
p245
I1
sVd9svik8
p246
I1
sVczj6uhy
p247
I2
sVdb5jxet
p248
I3
sVd1lyzyz
p249
I2
sVdfmpjor
p250
I1
sVd39wt5j
p251
I1
sVdb5ewsh
p252
I1
sVdax7md8
p253
I1
sVddfup39
p254
I1
sVdesglal
p255
I2
sVd6g6ppw
p256
I1
sVd90ti8m
p257
I1
sVdergn84
p258
I1
sVdg5qw49
p259
I1
sVd9j52oi
p260
I1
sVd5n7hxx
p261
I1
sVdaxj5do
p262
I1
sVczhrt9i
p263
I1
sVdamism6
p264
I1
sVddkta72
p265
I1
sVdfbldvo
p266
I1
sVdd3w2ni
p267
I1
sVddactdg
p268
I1
sVdgt471r
p269
I3
sVd8fqmav
p270
I1
sVdd3q9wq
p271
I1
sVd1dxufm
p272
I1
sVdjwa80s
p273
I1
sVdo59zao
p274
I1
sVdhczxby
p275
I2
sVd2qo4i1
p276
I1
sVddepys2
p277
I2
sVdhs9f7d
p278
I2
sVddzuthi
p279
I1
sVdcqwjw8
p280
I1
sVdeudajf
p281
I2
sVd0y6z5p
p282
I1
sVd9rloc9
p283
I2
sVdcw7o83
p284
I1
sVd2tv08r
p285
I1
sVdhd30oy
p286
I2
sVdabserh
p287
I2
sVdq0ed20
p288
I1
sVd82mbd4
p289
I1
sVdejm1ez
p290
I3
sVd37jwkm
p291
I1
sVdch9zfx
p292
I1
sVd5j5qf3
p293
I3
sVd9ovmxs
p294
I2
sVd30f3pr
p295
I1
sVdisoc12
p296
I1
sVdc4babc
p297
I1
sVczsa3yx
p298
I1
sVdrteqo7
p299
I1
sVdcxjt40
p300
I1
sVd8cv6no
p301
I2
sVdefgxr1
p302
I1
sVdineb7g
p303
I1
sVddf4jpu
p304
I1
sVd8502ok
p305
I3
sVddt460v
p306
I3
sVd86ap5d
p307
I1
sVd129qee
p308
I4
sVdidklb7
p309
I1
sVd44yyc5
p310
I1
sVdeh89mu
p311
I1
sVcyzxgci
p312
I1
sVd0nxwdi
p313
I1
sVdeet3un
p314
I8
sVd2d7sjd
p315
I1
sVddgkxog
p316
I1
sVd3fgxup
p317
I2
sVdcxt5dg
p318
I1
sVd470u4h
p319
I1
sVd369jsr
p320
I1
sVdd60vbt
p321
I2
sVd0r668h
p322
I1
sVdibvki4
p323
I2
sVdcpu73v
p324
I1
sVdfbjp8a
p325
I1
sVdo5tg0v
p326
I1
sVd83r4y7
p327
I1
sVdc9ab34
p328
I1
sVczxndlq
p329
I3
sVdhnl5ua
p330
I4
sVdhy0c3c
p331
I1
sVdaifhj8
p332
I1
sVdezvfws
p333
I1
sVd68tf99
p334
I1
sVdk10pk1
p335
I1
sVczgwg2t
p336
I1
sVdhuoyc2
p337
I1
sVczkwas0
p338
I2
sVdcyayse
p339
I2
sVd9shc50
p340
I2
sVd8ftuoq
p341
I3
sVd9vxjr8
p342
I1
sVd6eymyj
p343
I1
sVddcmc1x
p344
I1
sVd5mmpb9
p345
I2
sVd05132g
p346
I2
sVddn9rzf
p347
I1
sVdhy7iv6
p348
I1
sVdhbjb18
p349
I5
sVd8mrjlm
p350
I2
sVd2wp7x1
p351
I2
sVd14897b
p352
I1
sVdau0610
p353
I1
sVd9sfc3w
p354
I1
sVdat3jqe
p355
I1
sVdi7qgu2
p356
I5
sVdeajvjz
p357
I6
sVdfn5cmu
p358
I2
sVdha18vk
p359
I2
sVd0l7hqa
p360
I4
sVda4b9yk
p361
I1
sVdh24y65
p362
I1
sVdczwjfy
p363
I2
sVdgap0br
p364
I1
sVdhczxvq
p365
I1
sVdgljo8g
p366
I3
sVdd1z9w0
p367
I1
sVd84zzpj
p368
I1
sVdfurdcy
p369
I2
sVdd4wv2y
p370
I1
sVdnn3aiy
p371
I1
sVds4vjka
p372
I1
sVdfthtqr
p373
I1
sVd5qvucw
p374
I3
sVdbakjuq
p375
I1
sVd29b0bz
p376
I1
sVd2w30ml
p377
I2
sVdmjx3ws
p378
I2
sVdhbugmm
p379
I1
sVdgkrxfg
p380
I1
sVdau5tf2
p381
I3
sVdbk0x01
p382
I1
sVdau32lu
p383
I1
sVdgpmpzm
p384
I2
sVd9t1v5c
p385
I3
sVdjvlgbj
p386
I1
sVd310vdu
p387
I1
sVd9sdauo
p388
I1
sVd47dspd
p389
I1
sVdeziw15
p390
I3
sVdi5v7da
p391
I1
sVdelph59
p392
I1
sVdi6nm8r
p393
I1
sVdau2emu
p394
I1
sVd8p4m38
p395
I2
sVddyatcl
p396
I1
sVd0kntgp
p397
I6
sVdcqoqpo
p398
I1
sVd9ppj68
p399
I2
sVd1aa1b3
p400
I1
sVdgz8zwd
p401
I1
sVdj2t96i
p402
I2
sVda914wy
p403
I2
sVdd1y2i5
p404
I1
sVd5vxw84
p405
I1
sVd7ldd75
p406
I1
sVdesyi08
p407
I1
sVdrrko59
p408
I1
sVd0fz6tv
p409
I4
sVd76wvsw
p410
I2
sVdesx7qa
p411
I2
sVd2023a7
p412
I1
sVd1hdmge
p413
I1
sVdcscs1s
p414
I1
sVdfwooch
p415
I2
sVd30ccqu
p416
I2
sVd15a16a
p417
I1
sVd5je1cp
p418
I1
sVdanp3fz
p419
I1
sVdin94je
p420
I3
sVd0reomc
p421
I1
sVdfdzhcj
p422
I1
sVdcvtd60
p423
I1
sVd9tgy2m
p424
I1
sVdc4e3ma
p425
I1
sVd9xberg
p426
I1
sVd8kirtr
p427
I1
sVd7k09om
p428
I1
sVd90ouhm
p429
I1
sVdd53rep
p430
I2
sVdcw366c
p431
I1
sVcyzxrrm
p432
I1
sVdfyj9o3
p433
I2
sVdfth487
p434
I7
sVd29k3pu
p435
I2
sVdd2ipei
p436
I1
sVd1jllgv
p437
I1
sVczlhu84
p438
I1
sVd21cd1g
p439
I1
sVdcl5n5s
p440
I2
sVdaudksg
p441
I1
sVd2gzznf
p442
I1
sVd9smrwh
p443
I1
sVdf1v5vd
p444
I1
sVdeqd3ie
p445
I2
sVdctuvhv
p446
I1
sVdego1tm
p447
I1
sVddey350
p448
I2
sVdftkoqm
p449
I4
sVdf6nmn2
p450
I2
sVdevgwk7
p451
I3
sVd7t4o18
p452
I1
sVdgrmmmf
p453
I2
sVd5uqhks
p454
I1
sVde3zch7
p455
I1
sVddpypud
p456
I1
sVdddo0dn
p457
I1
sVd39jvs6
p458
I2
sVdfk7h9s
p459
I1
sVd0zqarq
p460
I2
sVde43tcm
p461
I1
sVd9x3p5i
p462
I1
sVdeqwmg1
p463
I2
sVcz29tjf
p464
I1
sVdbk1i97
p465
I2
sVdatkg0s
p466
I2
sVd1g6m33
p467
I1
sVczl8x10
p468
I1
sVdti8wx6
p469
I1
sVddwhwlk
p470
I1
sVdcujeuq
p471
I1
sVddjrh6j
p472
I2
sVdhgh318
p473
I2
sVd1u0vfo
p474
I1
sVd625im4
p475
I2
sVd9sr1yl
p476
I1
sVdd61v7l
p477
I1
sVd11c6e4
p478
I2
sVd2afwto
p479
I1
sVddu6w9w
p480
I1
sVd9rasvi
p481
I1
sVdelij93
p482
I1
sVd9ztjny
p483
I1
sVd5scab7
p484
I1
sVcynuck3
p485
I1
sVdgofy06
p486
I1
sVdqqapqc
p487
I3
sVdcw7mk2
p488
I1
sVd8pyg3q
p489
I1
sVdaxgoo3
p490
I1
sVd6095pi
p491
I1
sVdrw8w1i
p492
I1
sVdhbfiu8
p493
I1
sVdfwtipu
p494
I1
sVd5qv225
p495
I1
sVdeccu42
p496
I1
sVdcy1zjm
p497
I5
sVcznkapf
p498
I1
sVdcy1w2r
p499
I1
sVdddu9qn
p500
I9
sVdc463aw
p501
I8
sVd9r5ti3
p502
I2
sVdcqjoxh
p503
I6
sVdb8c2wh
p504
I1
sVd2rzqzf
p505
I1
sVdi4vfey
p506
I1
sVdnac5e9
p507
I4
sVddsgwzg
p508
I2
sVd9srjmx
p509
I1
sVd2lozag
p510
I1
sVczy2xvw
p511
I1
sVdau54nz
p512
I1
sVdhcunwn
p513
I2
sVd4nz8ld
p514
I1
sVdfpf1zw
p515
I3
sVd0mlacw
p516
I5
sVd7wfjy8
p517
I1
sVd2sifd4
p518
I1
sVdd6tfn8
p519
I1
sVdb8tgoq
p520
I1
sVds26qv3
p521
I1
sVdj3iojt
p522
I1
sVdgo0b23
p523
I4
sVdccoqwz
p524
I1
sVdflixy9
p525
I1
sVdccgosg
p526
I3
sVd7q68i0
p527
I1
sVd2mgc5j
p528
I1
sVdhcnw6g
p529
I1
sVdbspmgy
p530
I1
sVd68zg1d
p531
I1
sVd9n1nf7
p532
I1
sVd0tu73k
p533
I1
sVdf3eshj
p534
I1
sVdi9yx88
p535
I1
sVddhijwr
p536
I2
sVd78voty
p537
I1
sVd3q9tg6
p538
I1
sVd35ep1a
p539
I1
sVd0zz09s
p540
I1
sVdejsgn7
p541
I1
sVderd6ws
p542
I6
sVd0x9p33
p543
I1
sVd6911tw
p544
I1
sVdd5xjxz
p545
I1
sVdcy3vys
p546
I1
sVd9sfqhb
p547
I1
sVd39ng7u
p548
I1
sVd6xxunw
p549
I1
sVd8d4b9u
p550
I2
sVdq3n69a
p551
I3
sVdaqj7xo
p552
I1
sVdaurnrc
p553
I3
sVd202nvf
p554
I1
sVdcm039m
p555
I1
sVdsb9pxx
p556
I5
sVd9s625p
p557
I1
sVdhbbrtf
p558
I2
sVdf8y7wx
p559
I1
sVdov3djc
p560
I1
sVczn7syg
p561
I1
sVczyzq6b
p562
I1
sVdeeveyo
p563
I2
sVda7swcs
p564
I1
sVda8d7yh
p565
I3
sVd9t9rom
p566
I1
sVdfq4kzw
p567
I1
sVds6xnst
p568
I1
sVdjvmyvj
p569
I2
sVd83iead
p570
I1
sVczxqc0e
p571
I1
sVd11xl99
p572
I2
sVdcxj3sv
p573
I2
sVd4499c2
p574
I1
sVczudvho
p575
I2
sVd1ye6sv
p576
I1
sVd14bube
p577
I1
sVdcte6ts
p578
I1
sVd0jxqlf
p579
I1
sVd5n775d
p580
I1
sVd25o1qe
p581
I1
sVdfwv9v6
p582
I1
sVd8ahbjc
p583
I1
sVdel95st
p584
I3
sVdfmhben
p585
I1
sVdihihqj
p586
I1
sVdgfscxh
p587
I1
sVdcvl99q
p588
I2
sVdhl00b5
p589
I1
sVd8fxj82
p590
I1
sVdgyhnxf
p591
I1
sVdf1x504
p592
I1
sVd5b7wv0
p593
I1
sVd980nkc
p594
I1
sVd1e1oxx
p595
I2
sVd8q10up
p596
I3
sVczjwn3e
p597
I1
sVd22mjei
p598
I1
sVddoxh0p
p599
I1
sVdam5e7t
p600
I1
sVddcnev9
p601
I1
sVdfm2rrc
p602
I1
sVdd27x4q
p603
I2
sVd0xh0lp
p604
I2
sVd4eb0nw
p605
I2
sVddigmg0
p606
I2
sVd1j8xfc
p607
I11
sVdcvuv9e
p608
I1
sVdf1tgug
p609
I1
sVddj8tam
p610
I1
sVd0nx87p
p611
I1
sVdd2zo0s
p612
I1
sVd9nb1gd
p613
I1
sVda1psbb
p614
I2
sVdds923u
p615
I2
sVd2tjdp8
p616
I1
sVd84tqek
p617
I1
sVddwjxsw
p618
I1
sVdsn4k06
p619
I1
sVdgqeijo
p620
I2
sVdhgpsox
p621
I1
sVdkdid6f
p622
I1
sVdi8eugx
p623
I2
sVdclxgat
p624
I4
sVcysm91r
p625
I1
sVdqnho4t
p626
I1
sVd8p2jct
p627
I1
sVd8iowe4
p628
I1
sVd1p16s4
p629
I1
sVd9hc4ts
p630
I1
sVd9vo2fj
p631
I3
sVdcpu91h
p632
I1
sVdfn8kzb
p633
I10
sVd5v150e
p634
I1
sVdohimar
p635
I1
sVdhxhrri
p636
I1
sVd7mnhp4
p637
I1
sVdc8z71z
p638
I2
sVda6ld3u
p639
I1
sVd9tr2xp
p640
I1
sVd5rizq7
p641
I2
sVd864tev
p642
I1
sVd83r5m9
p643
I1
sVd23u14j
p644
I1
sVd1paev5
p645
I1
sVdj9knxz
p646
I8
sVdeaa2pg
p647
I1
sVdkm9srf
p648
I3
sVd86i90g
p649
I2
sVddjarlq
p650
I2
sVda47q15
p651
I1
sVda5xl02
p652
I1
sVdhblmf8
p653
I1
sVd9ppqgn
p654
I3
sVddhwvk8
p655
I1
sVdd3zk2h
p656
I1
sVd94f3bk
p657
I1
sVdctacr6
p658
I1
sVde1qnsv
p659
I1
sVd4gudc2
p660
I1
sVdbig6bd
p661
I6
sVdfzzo2z
p662
I1
sVdcv9owt
p663
I1
sVd8fskyf
p664
I4
sVdcy8lwe
p665
I1
sVdb571ic
p666
I1
sVd2ccry5
p667
I1
sVdf9acr7
p668
I1
sVdhqob7l
p669
I1
sVd9txavw
p670
I4
sVd42epug
p671
I1
sVd4gkozw
p672
I1
sVdks8vqd
p673
I1
sVd10cf63
p674
I1
sVd8rrcj9
p675
I1
sVdbicvmd
p676
I1
sVdhcyejz
p677
I1
sVdazr87n
p678
I1
sVdeni581
p679
I1
sVdcvq7gc
p680
I1
sVdjhbna9
p681
I2
sVdcuh53g
p682
I1
sVdcu07ty
p683
I1
sVd07bs9l
p684
I1
sVdr50ig8
p685
I3
sVd7b0oiq
p686
I1
sVdktksbd
p687
I13
sVdcpvwhl
p688
I1
sVd0ltcin
p689
I2
sVdcvp8os
p690
I1
sVdfxbnjz
p691
I1
sVd1yvex7
p692
I1
sVdh6dh6x
p693
I3
sVddsbboy
p694
I1
sVdnxd6s4
p695
I1
sVcz8pvo6
p696
I1
sVdd2n99y
p697
I2
sVd4q6hrp
p698
I1
sVd7x2hix
p699
I2
sVd3jo1hu
p700
I1
sVdhpzzbn
p701
I3
sVd35yrfx
p702
I1
sVd7m0mix
p703
I1
sVdd7jdop
p704
I3
sVddn2mfr
p705
I1
sVdk3buzj
p706
I3
sVdjivi5u
p707
I1
sVd2g02uq
p708
I9
sVd3j8yez
p709
I1
sVdfuys59
p710
I2
sVd0o760o
p711
I2
sVdd7z4ps
p712
I4
sVdbbot74
p713
I4
sVd9gl07n
p714
I2
sVdaiwozs
p715
I1
sVd3mhn8z
p716
I1
sVdapa3f2
p717
I1
sVddga530
p718
I1
sVd9t41gk
p719
I1
sVd0lkk48
p720
I1
sVddi9fne
p721
I1
sVd31f552
p722
I2
sVdemy6y1
p723
I2
sVd1yyrv7
p724
I4
sVdh952i8
p725
I1
sVdh6bi7m
p726
I2
sVddj25wh
p727
I1
sVdatqm5d
p728
I2
sVdgvpnpq
p729
I1
sVdabn52u
p730
I2
sVd7eoc1y
p731
I1
sVdelpmkv
p732
I2
sVddjty0g
p733
I1
sVdgf01te
p734
I1
sVd3ugd33
p735
I1
sVdfmmzsu
p736
I2
sVcyl5wy9
p737
I1
sVdic73h7
p738
I1
sVdjwl2p2
p739
I1
sVd12ybcy
p740
I1
sVd0t6ndg
p741
I1
sVd52i70o
p742
I2
sVdjtfmvc
p743
I1
sVd2serjg
p744
I4
sVdo01ryf
p745
I1
sVdcy3cxp
p746
I1
sVd08mw76
p747
I1
sVdcw21xk
p748
I2
sVdcwfmkq
p749
I1
sVd9vf0va
p750
I3
sVd25xsfq
p751
I4
sVdd5je7d
p752
I3
sVdbjl6rs
p753
I1
sVd9nb2z6
p754
I1
sVd30q71r
p755
I1
sVdahfj9o
p756
I4
sVd64011v
p757
I1
sVdb3tz3s
p758
I1
sVdccguvm
p759
I1
sVd9pzq0o
p760
I1
sVdgf2c1s
p761
I1
sVd9s7tnr
p762
I1
sVdjttnog
p763
I1
sVdflygqb
p764
I5
sVdhoe880
p765
I1
sVdcxulwz
p766
I1
sVdcvfvee
p767
I1
sVd0lnwy2
p768
I1
sVdda2umz
p769
I1
sVd3io1cl
p770
I1
sVd9x2yld
p771
I2
sVdeijju6
p772
I1
sVdegdpja
p773
I2
sVdcwhstb
p774
I2
sVdfrjpi2
p775
I2
sVdijdzju
p776
I3
sVddbo7i9
p777
I1
sVd1istdu
p778
I1
sVdn5wsx5
p779
I2
sVdc6t105
p780
I1
sVde846d0
p781
I1
sVczug8d1
p782
I1
sVdd62u6j
p783
I3
sVd0471tg
p784
I1
sVdf5euwi
p785
I1
sVd84kp78
p786
I1
sVddre6zv
p787
I3
sVd56x1u9
p788
I1
sVd225b0d
p789
I1
sVddcw47i
p790
I1
sVdtjgapd
p791
I2
sVd5o7lp4
p792
I2
sVde8c0vb
p793
I3
sVda4r3od
p794
I1
sVd5j5npr
p795
I2
sVdd7gn9v
p796
I1
sVdap8aqr
p797
I1
sVde99u01
p798
I2
sVd9ksc0u
p799
I1
sVdfyxc03
p800
I5
sVd9as5h7
p801
I1
sVd92ly33
p802
I1
sVde083g3
p803
I1
sVdqfci4e
p804
I1
sVdnqx6yu
p805
I1
sVddz0qif
p806
I1
sVdgrjcrq
p807
I1
sVd65ziao
p808
I6
sVd5ceyl0
p809
I1
sVdi35uq8
p810
I1
sVdd5genl
p811
I1
sVdfkneld
p812
I1
sVdhjkdk9
p813
I2
sVd0kl9aw
p814
I3
sVdb5a3lc
p815
I2
sVddjqtko
p816
I1
sVd07lo4h
p817
I2
sVdeudm84
p818
I1
sVdcf3pky
p819
I1
sVd2xyi5k
p820
I2
sVd359cnt
p821
I1
sVd1isk6i
p822
I1
sVdozxua0
p823
I2
sVddwg3ea
p824
I1
sVd30j1h8
p825
I1
sVczoxa02
p826
I1
sVd5mpxco
p827
I13
sVd8t55zf
p828
I2
sVddpyj39
p829
I1
sVd7lubzb
p830
I1
sVcztel41
p831
I1
sVdeab5eo
p832
I1
sVdd3jclu
p833
I1
sVd2qc87m
p834
I1
sVdcwduxb
p835
I1
sVd4glrwk
p836
I2
sVdfxevt0
p837
I3
sVdbn6pw1
p838
I1
sVdd5okql
p839
I3
sVd4ehtbh
p840
I1
sVdfzu8ue
p841
I1
sVdkbwqfi
p842
I1
sVd7z2b3x
p843
I2
sVdi62lv5
p844
I1
sVczuho79
p845
I1
sVdowe6o2
p846
I2
sVd9t03fu
p847
I1
sVdmh9ew6
p848
I1
sVcyz7zyl
p849
I1
sVdgjtb3m
p850
I1
sVddd7fdt
p851
I2
sVdd3m6gc
p852
I1
sVdmsgc7d
p853
I1
sVdd26qky
p854
I1
sVd6q4acm
p855
I1
sVd1yqf3t
p856
I2
sVdib57fs
p857
I1
sVd0k5mak
p858
I1
sVdhyxts3
p859
I1
sVddrlcs9
p860
I1
sVdk0nwgy
p861
I1
sVdgre2ro
p862
I3
sVdhf6dw2
p863
I2
sVd9vouqz
p864
I1
sVdc9f4rw
p865
I2
sVd1a44ew
p866
I1
sVdbr8nbi
p867
I7
sVd23tg8d
p868
I1
sVdea32vd
p869
I4
sVdddtj7q
p870
I1
sVdef4me3
p871
I1
sVd9sedsd
p872
I2
sVd47r9x9
p873
I1
sVd9vjwz6
p874
I2
sVd2agba0
p875
I1
sVdi9gxlj
p876
I1
sVdhy327x
p877
I3
sVd70wwtz
p878
I2
sVdb4b68b
p879
I3
sVd1j9xf9
p880
I2
sVd0it5f9
p881
I1
sVd9hc40k
p882
I1
sVd1dsvpq
p883
I4
sVd1ywq4e
p884
I7
sVda88i26
p885
I1
sVd4uz4ie
p886
I1
sVda1ckgo
p887
I1
sVdd5v0gz
p888
I1
sVdngpqb3
p889
I2
sVdnuu8kz
p890
I1
sVdepii4p
p891
I2
sVdeli7g8
p892
I2
sVdcy650r
p893
I1
sVdh93o8s
p894
I1
sVddbkzmx
p895
I1
sVd8xljlz
p896
I1
sVdhceklu
p897
I1
sVd48kqnb
p898
I1
sVdhdxil3
p899
I2
sVdajr89w
p900
I3
sVd9swfhm
p901
I1
sVd2wpcfl
p902
I2
sVdcvf3tz
p903
I1
sVd8o09p9
p904
I1
sVdnaavh2
p905
I1
sVd2d23q7
p906
I1
sVdd4zgcm
p907
I1
sVd9vafc1
p908
I2
sVd9vmnhj
p909
I2
sVczli133
p910
I1
sVdhljbu3
p911
I1
sVdgn21m0
p912
I1
sVd9umg5g
p913
I3
sVde3yefu
p914
I1
sVdqx1v97
p915
I1
sVdauk4xd
p916
I2
sVdfzw8vq
p917
I1
sVddpxe8a
p918
I1
sVdhebe2z
p919
I1
sVdnp9wju
p920
I1
sVdd26cs8
p921
I1
sVczoc4ar
p922
I1
sVczc92gn
p923
I1
sVdfrociz
p924
I1
sVdd204fn
p925
I1
sVdatwqi1
p926
I2
sVdcxuy1k
p927
I4
sVd9t19vb
p928
I3
sVd7xh64o
p929
I1
sVdn4nxy6
p930
I1
sVdefme1p
p931
I1
sVdhqnrhg
p932
I1
sVd9l5uyr
p933
I1
sVd07biul
p934
I1
sVdb2q2fm
p935
I1
sVdcxbht3
p936
I1
sVdjz4agz
p937
I3
sVd0ug2ae
p938
I1
sVd8vcoze
p939
I7
sVdr9i6kv
p940
I1
sVdd34p8o
p941
I1
sVddtjux1
p942
I1
sVddtx3qr
p943
I1
sVddej049
p944
I1
sVdg1yqz5
p945
I1
sVd0ezdsr
p946
I1
sVde7s7dq
p947
I2
sVdij7dc3
p948
I1
sVddc119z
p949
I1
sVdo4hw90
p950
I4
sVd5ymnu9
p951
I1
sVd1hhd4a
p952
I1
sVdd1vzky
p953
I1
sVd6gg3d8
p954
I1
sVd557dvt
p955
I1
sVdcf8466
p956
I1
sVczw3klr
p957
I1
sVdd5liu2
p958
I1
sVdbwcsry
p959
I1
sVd52e0fj
p960
I1
sVdr55qwk
p961
I1
sVd2a9dxz
p962
I1
sVd7wqki0
p963
I4
sVd5xm8c6
p964
I1
sVdhq1c0q
p965
I3
sVd9la3qf
p966
I1
sVd9rybuv
p967
I1
sVdftia6n
p968
I2
sVd1gg051
p969
I2
sVdimtgra
p970
I1
sVd4nqsg6
p971
I1
sVdbkm709
p972
I1
sVd1ju0th
p973
I1
sVdn9vcv9
p974
I1
sVdelp8q6
p975
I1
sVdfnq2e5
p976
I1
sVd0cwjk2
p977
I1
sVdctdtjp
p978
I2
sVdd8go1l
p979
I3
sVdfn08g0
p980
I3
sVdd2ais0
p981
I2
sVd3eosbw
p982
I1
sVd9sxeox
p983
I1
sVd8c8b4z
p984
I1
sVdek1iy7
p985
I1
sVdd6cl2d
p986
I2
sVcylo8mb
p987
I1
sVdd6axyy
p988
I1
sVdcpdjqs
p989
I1
sVdfr4ghl
p990
I1
sVdd4pjbe
p991
I5
sVdck39ni
p992
I1
sVdcj5hom
p993
I1
sVd9wcu68
p994
I1
sVd25v4sa
p995
I1
sVdhcpli9
p996
I5
sVd1hbq8d
p997
I1
sVd10m0ym
p998
I1
sVds5nlmg
p999
I1
sVd00c80q
p1000
I1
sVdarbcal
p1001
I1
sVdhr8qqk
p1002
I1
sVddjp8ov
p1003
I3
sVd3hnp25
p1004
I2
sVdf1zeps
p1005
I2
sVd9sximl
p1006
I3
sVdcvihnk
p1007
I2
sVdmkfn9y
p1008
I2
sVddf9zky
p1009
I1
sVdelde1r
p1010
I3
sVdd21mut
p1011
I3
sVd5qb1v2
p1012
I2
sVd956wz2
p1013
I1
sVdeft2qv
p1014
I2
sVdd770xm
p1015
I4
sVdgt3pd2
p1016
I2
sVdqg9a5t
p1017
I1
sVd8f53qg
p1018
I1
sVdi4v7ps
p1019
I1
sVdfxewn8
p1020
I3
sVd1v564p
p1021
I1
sVd9e90jh
p1022
I2
sVdcw3l4k
p1023
I1
sVd634df0
p1024
I2
sVczfcco3
p1025
I1
sVdiatik5
p1026
I5
sVd0m690s
p1027
I1
sVdasveak
p1028
I1
sVdeu0sgw
p1029
I2
sVdqfdycy
p1030
I1
sVdik95sd
p1031
I2
sVd6xwhhf
p1032
I1
sVd29wypc
p1033
I1
sVdfaa9nq
p1034
I1
sVd9voj09
p1035
I1
sVdbkm3bo
p1036
I1
sVdcp5xvw
p1037
I1
sVdcwgvs8
p1038
I1
sVdg94jyg
p1039
I2
sVd8vhz7h
p1040
I1
sVdeldmye
p1041
I4
sVd5mlomm
p1042
I1
sVd36gaox
p1043
I1
sVdk94l4h
p1044
I2
sVdcr5ggo
p1045
I3
sVcz0bl2u
p1046
I1
sVdqxzmae
p1047
I1
sVd3ss0kb
p1048
I1
sVdbn4itn
p1049
I2
sVdeqrueg
p1050
I1
sVdfmj16c
p1051
I4
sVdaek6uz
p1052
I1
sVdhgvotm
p1053
I7
sVd29uz2z
p1054
I1
sVdaupce2
p1055
I1
sVdcy85dr
p1056
I1
sVdjvz3au
p1057
I2
sVd7yhgez
p1058
I1
sVddcqns3
p1059
I2
sVdd0rwah
p1060
I1
sVd0ov3m9
p1061
I1
sVdd4y6nd
p1062
I1
sVd2c9vr6
p1063
I1
sVcz9tovb
p1064
I1
sVdd3k7wj
p1065
I2
sVdcu0dx9
p1066
I1
sVdgmw3pa
p1067
I2
sVd4ekbt8
p1068
I1
sVczmxy0e
p1069
I1
sVdcucjrn
p1070
I2
sVdd3bkmw
p1071
I1
sVddt50tb
p1072
I3
sVd2xfd5x
p1073
I1
sVdhy8bqr
p1074
I1
sVd9rb52j
p1075
I1
sVd241e9r
p1076
I1
sVd0ssjpp
p1077
I1
sVdca10u2
p1078
I1
sVd6hvwu5
p1079
I1
sVd8pvsxw
p1080
I1
s.