(dp0
Vd9wyx3a
p1
I1
sVdk4ztm4
p2
I1
sVds176og
p3
I1
sVd2r0ovy
p4
I1
sVdbh7b10
p5
I1
sVd60xxqq
p6
I3
sVde0u4c2
p7
I1
sVd4ft43i
p8
I1
sVd63a6y4
p9
I1
sVdc2fpv2
p10
I1
sVddap7wc
p11
I1
sVcyzbxf4
p12
I1
sVd8cbfao
p13
I1
sVd8r6pup
p14
I1
sVdhysqqr
p15
I1
sVdaa5lrf
p16
I1
sVdpcy6w8
p17
I1
sVddni8iq
p18
I1
sVdj26q83
p19
I1
sVdk067po
p20
I1
sVdfgbl0d
p21
I2
sVd6g33hc
p22
I1
sVdfgbqzl
p23
I1
sVdglsc00
p24
I1
sVde5cvol
p25
I1
s.