(dp0
Vd0qa7k3
p1
I1
sVdbxt6zx
p2
I1
sVdmontsq
p3
I1
sVde6980c
p4
I2
sVd3zo0iy
p5
I2
sVde69hx3
p6
I1
sVd264i87
p7
I1
sVdp3x0sn
p8
I1
sVd2mwp7f
p9
I3
sVds5ty7h
p10
I1
sVdtcehm4
p11
I1
sVd16s3i5
p12
I1
sVczk59vf
p13
I1
sVdp3z0vr
p14
I1
sVd16oxtp
p15
I1
sVdoaqfyt
p16
I1
sVd8c27za
p17
I1
sVdcvszg1
p18
I1
sVd3437jh
p19
I1
sVdhfl1hn
p20
I2
sVd5x5jmw
p21
I1
sVdth58yc
p22
I1
sVdekmz8y
p23
I1
sVdf0wp9g
p24
I1
sVcz6u24l
p25
I1
sVdr1kkvz
p26
I1
sVd2hyhid
p27
I1
sVcz825u8
p28
I1
sVd16qg9u
p29
I1
sVdc334ta
p30
I1
sVdel5c4z
p31
I1
sVddhe4ne
p32
I1
sVd3xr7zy
p33
I1
sVdhvzfjc
p34
I1
sVdbowcim
p35
I1
sVdizg8ii
p36
I3
sVcyys6bj
p37
I1
sVdk6w73g
p38
I1
sVd05bqfi
p39
I1
sVd3xc2wg
p40
I8
sVd7kic7k
p41
I1
sVdrvkjdw
p42
I1
sVczdbov0
p43
I1
sVd2aomie
p44
I2
sVd50t39g
p45
I1
sVd7remaz
p46
I1
sVdkn4bho
p47
I1
sVd5oss0g
p48
I1
sVdhck09u
p49
I2
sVdd3kvc8
p50
I1
sVczkg1p4
p51
I1
sVdjcwxs4
p52
I1
sVdczopz9
p53
I1
sVd13x5gj
p54
I1
sVd2hye4y
p55
I1
sVd39rrjj
p56
I1
sVdh883uc
p57
I1
sVds3cuet
p58
I1
sVd29wt32
p59
I1
sVdf1and4
p60
I2
sVdcflpqy
p61
I1
sVdk94ogj
p62
I1
sVdsedxo6
p63
I1
sVdczuepl
p64
I2
sVd1udpcb
p65
I1
sVdazzhtv
p66
I1
sVd5pnwr1
p67
I1
sVd23rjf7
p68
I2
sVd1duoqf
p69
I1
sVcynbds1
p70
I1
sVdh7c89d
p71
I1
sVdf9w2wp
p72
I2
sVd28hzyk
p73
I2
sVdoxvksn
p74
I1
sVd2bfwb2
p75
I1
sVde19vmu
p76
I1
sVd4n58l9
p77
I2
s.