(dp0
Vde37k5s
p1
I1
sVd544z26
p2
I1
sVdn3t3m5
p3
I1
sVdf3wpsz
p4
I1
sVdj2royd
p5
I1
sVdadqg9s
p6
I1
sVdazemew
p7
I1
sVdmu1p99
p8
I1
sVdsb7j7l
p9
I1
sVdbpbae6
p10
I1
sVdmnco0p
p11
I1
sVcyuz2f9
p12
I1
sVd7gn9n2
p13
I1
sVd8ccjwr
p14
I1
sVd9pdz5g
p15
I1
sVdchu4tr
p16
I1
sVcyj8yzc
p17
I1
sVd9fkvpw
p18
I1
sVd7t0g4c
p19
I1
sVdhbceot
p20
I1
sVczrhx7r
p21
I1
sVd66o2cw
p22
I1
sVd7x5a8y
p23
I2
sVdi0y0yi
p24
I1
sVdbz9dcd
p25
I1
sVdc31sgh
p26
I1
sVdhndpqe
p27
I1
sVdeousia
p28
I1
sVd2deixk
p29
I1
sVdbeq2yg
p30
I1
sVdpedbwf
p31
I1
sVdg5xao6
p32
I1
sVd9peldb
p33
I2
sVdrv5d5d
p34
I1
sVd9epuc5
p35
I1
sVdiyw0zg
p36
I1
sVdjlzlv0
p37
I1
sVdnce8wn
p38
I1
sVdf604il
p39
I1
sVdg5ui9d
p40
I1
sVdftq1z0
p41
I1
sVd0tf34s
p42
I1
sVd63cpcg
p43
I1
sVd48h4fi
p44
I1
sVd545a20
p45
I3
sVd2ol21j
p46
I1
s.