(dp0
Vdj3ygit
p1
I1
sVdsf8m3c
p2
I1
sVcyoyqkb
p3
I1
sVdnq8gjz
p4
I1
sVd83af8i
p5
I1
sVd93fz97
p6
I1
sVd45vilj
p7
I2
sVdcud1gq
p8
I3
sVd17j9i3
p9
I1
sVdhy3zf1
p10
I1
sVd2eyysj
p11
I1
sVdjn4k54
p12
I1
sVczeozdz
p13
I1
sVdebtdqs
p14
I1
sVdgp4frx
p15
I1
sVdmfc6w1
p16
I1
sVd4rq2td
p17
I2
sVd3r9wck
p18
I5
sVcyzlo81
p19
I1
sVdittemn
p20
I3
sVdqm3i7u
p21
I1
sVd4h4ot6
p22
I1
sVcyup45w
p23
I1
sVd8t12qf
p24
I2
sVde1bbj1
p25
I1
sVda5gd6l
p26
I1
sVdgf0hy9
p27
I2
sVd4odqhv
p28
I1
sVcz3x3pu
p29
I1
sVdksxjbc
p30
I1
sVczup8k9
p31
I1
sVdcnm5nd
p32
I1
sVd9z7xo9
p33
I1
sVdp8lx94
p34
I2
sVcyt4n4h
p35
I1
sVd62b0vy
p36
I1
sVczm6izy
p37
I1
sVd7091z7
p38
I1
sVd4a1gmr
p39
I1
sVdaps4sx
p40
I1
sVdij40bi
p41
I1
sVd90mdvy
p42
I1
sVdkqg5xy
p43
I1
sVdb5zidd
p44
I7
sVd2u9ina
p45
I1
sVd9msgy2
p46
I1
sVd9e9nnc
p47
I1
sVdi7a0l4
p48
I1
sVd3n054g
p49
I1
sVdmwj7f1
p50
I1
sVdiks9qn
p51
I1
sVd68esa6
p52
I1
sVddxmgwk
p53
I1
sVdhkdvs9
p54
I1
sVd18gaz9
p55
I1
sVdjilqtw
p56
I1
sVdkldgyb
p57
I2
sVd8um5hq
p58
I1
sVcz5346f
p59
I2
sVd67rajc
p60
I1
sVd0jj4ea
p61
I1
sVcz1hu7g
p62
I1
sVdtaafo4
p63
I2
sVd11y5ab
p64
I2
sVcynwqc2
p65
I1
sVd3a5n2q
p66
I1
sVdoenx5f
p67
I1
sVd4kgz6o
p68
I8
sVdc9qjfy
p69
I1
sVd972ugp
p70
I1
sVd1vkswf
p71
I7
sVdiof2ii
p72
I1
sVd95bfet
p73
I1
sVd1wfxku
p74
I1
sVdhmdvo4
p75
I1
sVd8vsis2
p76
I2
sVd40rta5
p77
I1
sVdcpn4m3
p78
I1
sVdd7p63q
p79
I1
sVd3umao2
p80
I1
sVczv7dhl
p81
I3
sVcz29sy3
p82
I1
sVd1q9nhy
p83
I2
sVdcarcij
p84
I1
sVdb54064
p85
I1
sVd1k7nvv
p86
I1
sVdgobqaw
p87
I1
sVd7szkfc
p88
I1
sVdcnblzq
p89
I2
sVdno0r6i
p90
I1
sVda35m33
p91
I1
sVdbj672i
p92
I1
sVczocfq7
p93
I2
sVd6dhr7y
p94
I2
sVdbwc0ev
p95
I7
sVd1zc9r3
p96
I11
sVdno3pt7
p97
I1
sVd1gwmk1
p98
I2
sVd8q0f3n
p99
I1
sVdo7b7lm
p100
I1
sVdc9wq32
p101
I1
sVdgmzk8h
p102
I1
sVda9kdmo
p103
I1
sVd51qbdd
p104
I1
sVdbqqqoa
p105
I1
sVd1t9je1
p106
I4
sVdhm9lqx
p107
I1
sVd4lvssp
p108
I2
sVd8nknjz
p109
I3
sVdfq3y7x
p110
I1
sVdjdhop8
p111
I1
sVdf3hytg
p112
I1
sVczmvoyb
p113
I1
sVd8k970q
p114
I1
sVd5hpw2t
p115
I1
sVdab5fj3
p116
I1
sVdaacist
p117
I1
sVdixyzac
p118
I1
sVd91bxdb
p119
I1
sVdd6jmm2
p120
I1
sVcz938iu
p121
I1
sVd8m81fu
p122
I1
sVd3nuni3
p123
I1
sVdd6zqji
p124
I1
sVczugruq
p125
I1
sVdjiuefe
p126
I1
sVdj01tt2
p127
I1
sVczhoa83
p128
I1
sVd7oibhn
p129
I2
sVd31zfqm
p130
I1
sVdem6fpw
p131
I2
sVd1vrvqv
p132
I1
sVd84gw8x
p133
I2
sVdde9foh
p134
I4
sVd05qutc
p135
I1
sVdmkwba5
p136
I1
sVd47axu5
p137
I1
sVd9xmedk
p138
I1
sVd4mr5y1
p139
I1
sVd1qyo2b
p140
I1
sVd083by0
p141
I3
sVdhnl95q
p142
I2
sVdppdlr4
p143
I1
sVd1jqmdp
p144
I1
sVd6otbmq
p145
I2
sVcz83lax
p146
I1
sVd04a3jk
p147
I1
sVd6p9erf
p148
I1
sVdcjzmmv
p149
I1
sVd8dvyim
p150
I1
sVdkkgh2y
p151
I1
sVd7w19pr
p152
I1
sVdhxc49a
p153
I1
sVdh1ek25
p154
I1
sVd1rqe7y
p155
I1
sVd31i7bt
p156
I1
sVdd3zfhq
p157
I1
sVd5h7n2f
p158
I1
sVdk22ntp
p159
I1
sVczrib1c
p160
I1
sVd2i4cup
p161
I4
sVd21fdkr
p162
I1
sVdqw6e06
p163
I1
sVdt42u7t
p164
I1
sVd8u6im2
p165
I1
sVdf7xh26
p166
I3
sVdep2mvz
p167
I1
sVcz4wg3c
p168
I1
sVdaureoq
p169
I1
sVd6lrpw1
p170
I1
sVd9fnrwv
p171
I1
sVdcj6kf2
p172
I1
sVdmsgium
p173
I2
sVd9qurz8
p174
I2
sVdoijxbh
p175
I2
sVd1hibva
p176
I1
sVdi0jjbi
p177
I1
sVd4mperm
p178
I1
sVd1u55x4
p179
I1
sVdo02fr0
p180
I1
sVdbh4p2l
p181
I1
sVd1gx2o8
p182
I1
sVcyw2egs
p183
I1
sVd9c32fj
p184
I1
sVdav5g1x
p185
I1
sVdhvzjvg
p186
I1
sVdhtcp94
p187
I4
sVdnflt7o
p188
I1
sVdqw6u0x
p189
I1
sVd6boa25
p190
I1
sVczuu749
p191
I1
sVdfurk59
p192
I1
sVd9x0t9k
p193
I1
sVdio31pf
p194
I1
sVd6wgnf7
p195
I1
sVdogb3ld
p196
I1
sVd4i1u23
p197
I1
sVdizaybg
p198
I2
sVcyq0kxk
p199
I1
sVdizwgls
p200
I2
sVdjz3tv0
p201
I4
sVdire6o8
p202
I1
sVd4ts8lv
p203
I1
sVdkbrdij
p204
I1
sVdj2pmyx
p205
I1
sVdid2z6s
p206
I2
sVdafcn5b
p207
I1
sVczs1nae
p208
I1
sVdipcq7o
p209
I1
sVdpbxwgg
p210
I2
sVd1ewfkm
p211
I1
sVdhynxz1
p212
I1
sVdndtn0e
p213
I2
sVd1bl6k9
p214
I1
sVd308fxk
p215
I6
sVd5ein2i
p216
I1
sVd6ekj2s
p217
I1
sVdridxj7
p218
I1
sVcz4rw31
p219
I1
sVd8a74e7
p220
I3
sVdhw1fvb
p221
I1
sVd0orlue
p222
I1
sVd3iz9a1
p223
I1
sVd9yd6ku
p224
I1
sVd14c7z9
p225
I1
sVcywmv43
p226
I2
sVd1hm57z
p227
I1
sVd38orqr
p228
I2
sVdbwk0dy
p229
I1
sVd4mqe0g
p230
I2
sVdmxvnb2
p231
I1
sVdbnmpvg
p232
I1
sVd1yg5yg
p233
I12
sVcyrpuxb
p234
I3
sVdhqxt4o
p235
I1
sVd2ao5hp
p236
I1
sVdf3it76
p237
I1
sVd4zyupn
p238
I4
sVdizj5x1
p239
I1
sVdbkl6sp
p240
I4
sVd3jpjbg
p241
I1
sVd657rfl
p242
I1
sVd4lxmv2
p243
I1
sVd9q0lpz
p244
I1
sVczla36k
p245
I1
sVdmik8of
p246
I1
sVd8h0cib
p247
I1
sVdd7467u
p248
I1
sVd24fwdd
p249
I1
sVd0huwe4
p250
I1
sVd8t0jdj
p251
I2
sVd031gwz
p252
I1
sVdefqni2
p253
I1
sVd0wm1q1
p254
I1
sVddqan1e
p255
I1
sVdh827tg
p256
I1
sVd5x3olp
p257
I2
sVdebbe05
p258
I1
sVdexotdw
p259
I1
sVdfujyof
p260
I2
sVddjirlr
p261
I1
sVd67s479
p262
I1
sVd2ddz7z
p263
I1
sVdkykp2r
p264
I1
sVdhstnmm
p265
I1
sVdbgqkra
p266
I1
sVd37pwys
p267
I1
sVdbwoaln
p268
I1
sVd6zlorg
p269
I1
sVd969jjb
p270
I1
sVd6f4ilv
p271
I2
sVd7moqo9
p272
I3
sVd1ax82o
p273
I2
sVd4lt6v9
p274
I1
sVd2xnj3v
p275
I1
sVd44obl8
p276
I1
sVda4hfzk
p277
I5
sVd9u3thr
p278
I1
sVd3ong1y
p279
I1
sVdhqgqv6
p280
I1
sVd3jcmgy
p281
I1
sVd4ykye4
p282
I1
sVdd3ivcn
p283
I1
sVd7p8702
p284
I2
sVczzf1m9
p285
I1
sVd58jzom
p286
I1
sVdmscnfw
p287
I1
sVddmth2f
p288
I1
sVdimjpjp
p289
I7
sVd9b3i4v
p290
I5
sVdelxty6
p291
I1
sVcylcx5c
p292
I2
sVd0yeydd
p293
I1
sVdnu9ym9
p294
I1
sVdclei1t
p295
I1
sVd3t9jld
p296
I4
sVdcqrz0b
p297
I1
sVdpbwn2d
p298
I1
sVdazn4gy
p299
I1
sVd4b888s
p300
I1
sVd87b6f1
p301
I1
sVd1kwhfa
p302
I1
sVdexxxg2
p303
I1
sVcz845mm
p304
I4
sVdar2i5m
p305
I1
sVdef7cpu
p306
I2
sVdc6mpcq
p307
I1
sVd2bkvms
p308
I1
sVd3e57qb
p309
I6
sVdmsas4z
p310
I1
sVd4tvr4v
p311
I1
sVd8dmo65
p312
I1
sVdn73crd
p313
I1
sVd79d8ll
p314
I1
sVd3h1ewp
p315
I3
sVd475kar
p316
I1
sVdf4p3mp
p317
I1
sVdmquk01
p318
I1
sVd56gglg
p319
I2
sVd5x4nld
p320
I1
sVd0x7qnb
p321
I2
sVczaf9lp
p322
I1
sVd3qkcy2
p323
I2
sVdenn2ko
p324
I1
sVd8ghyvv
p325
I1
sVd8anqeu
p326
I1
sVdn6mj8s
p327
I2
sVdgaix8a
p328
I2
sVd0hwegm
p329
I1
sVcz544oj
p330
I1
sVcz3vf23
p331
I1
sVdfb7a5k
p332
I1
sVdrvhev6
p333
I1
sVds2ngh4
p334
I1
sVdf7oths
p335
I2
sVdq34gsg
p336
I1
sVds0077e
p337
I1
sVde0kvix
p338
I2
sVd8rrldo
p339
I1
sVd2301uz
p340
I1
sVds0qiik
p341
I1
sVdibdvi2
p342
I1
sVczx71hp
p343
I1
sVd7vwdq9
p344
I1
sVd9tkknh
p345
I1
sVdkfxvo2
p346
I1
sVd4ce606
p347
I1
sVde7gydn
p348
I1
sVdi8eugx
p349
I1
sVdo4xx28
p350
I1
sVdgp31k5
p351
I1
sVcz5y1qm
p352
I2
sVdrrtene
p353
I1
sVd1yzssa
p354
I1
sVdfm710n
p355
I3
sVddhkucf
p356
I2
sVd5jfnbv
p357
I1
sVddwhd60
p358
I3
sVd1j47dh
p359
I2
sVdc8ogpa
p360
I3
sVczbu4f2
p361
I1
sVdjh7bj6
p362
I1
sVd9w9d0k
p363
I2
sVcz5b8ph
p364
I1
sVdg0ihc3
p365
I1
sVdcayep8
p366
I1
sVcyt79ol
p367
I2
sVdcu599m
p368
I1
sVcz2ov6z
p369
I4
sVdhgklcg
p370
I1
sVd3i77er
p371
I7
sVd1uydax
p372
I3
sVdaqfg8d
p373
I1
sVd6nvdrm
p374
I1
sVd4m9gjg
p375
I1
sVcyxzjzi
p376
I1
sVdj22hzo
p377
I1
sVd8djkkb
p378
I1
sVd842wg1
p379
I2
sVdf3oye6
p380
I1
sVcz0a9y7
p381
I1
sVd1pt3ta
p382
I1
sVd2yl29a
p383
I1
sVd07b7xf
p384
I1
sVd38ok63
p385
I2
sVd483mn9
p386
I1
sVddt9sow
p387
I1
sVdn8n66d
p388
I1
sVdc47u34
p389
I1
sVd342w7z
p390
I1
sVd1ie65j
p391
I1
sVd01qlbl
p392
I1
sVd0ut13t
p393
I1
sVdt4yfqb
p394
I1
sVdbe6uek
p395
I1
sVdg3nzgo
p396
I1
sVdio8003
p397
I5
sVd7jx3dn
p398
I1
sVdbbot74
p399
I1
sVd1q8scf
p400
I1
sVd81x3uj
p401
I1
sVdcox09j
p402
I2
sVdio4w3m
p403
I1
sVdjftjad
p404
I1
sVd4d9hm1
p405
I1
sVda3y7vv
p406
I1
sVdnofmc2
p407
I1
sVd6pc16y
p408
I1
sVd6unab2
p409
I1
sVd07dn6y
p410
I2
sVdh54p3e
p411
I1
sVdgljo8g
p412
I2
sVdbavjuk
p413
I1
sVcys2wdc
p414
I1
sVdghhwwg
p415
I1
sVd3lu2f9
p416
I1
sVdcu9a4q
p417
I1
sVddj4ixm
p418
I1
sVd1ttzyj
p419
I1
sVczr1454
p420
I1
sVd9xvt6x
p421
I2
sVdb0tqd1
p422
I1
sVdbttl5p
p423
I1
sVd941zub
p424
I1
sVd4x9zma
p425
I1
sVd0f8gkm
p426
I1
sVd1hgh26
p427
I1
sVd2tlms9
p428
I1
sVd0wc34i
p429
I1
sVd4n74xf
p430
I1
sVdga9q7s
p431
I1
sVdhi90qx
p432
I2
sVdcz90gx
p433
I1
sVd5354q0
p434
I1
sVczps0r8
p435
I1
sVd465g8q
p436
I5
sVddplz6l
p437
I1
sVdbt93g4
p438
I1
sVd11ofys
p439
I1
sVd38b3iv
p440
I1
sVd4l6j47
p441
I1
sVdjrc8e7
p442
I1
sVd4rhboo
p443
I3
sVd24o3c4
p444
I2
sVcymtsff
p445
I1
sVcznf1k4
p446
I3
sVdiquaio
p447
I2
sVdgcb721
p448
I1
sVczi0exh
p449
I1
sVdj4dolk
p450
I1
sVdmiyf5s
p451
I1
sVdnu6g6l
p452
I1
sVd82izx0
p453
I1
sVdcz0r3a
p454
I2
sVdg21b5m
p455
I1
sVczo8wjg
p456
I1
sVdarnrfm
p457
I6
sVd47e8m9
p458
I1
sVd5g2t4n
p459
I1
sVd100xjd
p460
I1
sVdkxtgqw
p461
I1
sVd1xjuav
p462
I1
sVdb3zrmn
p463
I1
sVdeudm84
p464
I1
sVdggi7nj
p465
I1
sVdd20257
p466
I1
sVczzbig7
p467
I1
sVd5as9ke
p468
I1
sVczhj9y9
p469
I2
sVdcnvljx
p470
I1
sVdfm72q9
p471
I6
sVd9lukoy
p472
I1
sVdkgxrae
p473
I2
sVdi6lnir
p474
I1
sVdsal0we
p475
I1
sVd8puyib
p476
I3
sVd4mkg6c
p477
I2
sVda3lju3
p478
I1
sVdhbxfrf
p479
I1
sVdh8jitr
p480
I1
sVd7aj4kc
p481
I1
sVcz9g82t
p482
I2
sVdjszdol
p483
I1
sVczmno1y
p484
I1
sVdscoy0s
p485
I1
sVddzz1cv
p486
I1
sVdsgp2ha
p487
I1
sVda5iso1
p488
I1
sVdgopq31
p489
I4
sVdizn8zf
p490
I1
sVdggnyq8
p491
I2
sVdj9qr3q
p492
I1
sVdnmb2cl
p493
I1
sVdg480qu
p494
I1
sVd06e5c4
p495
I2
sVd7m707j
p496
I1
sVczzcojq
p497
I1
sVcym1olv
p498
I1
sVdpt96qo
p499
I2
sVd11fhiz
p500
I2
sVdfwqiuv
p501
I2
sVczw9ljv
p502
I1
sVdcurnzx
p503
I1
sVdfmd2o1
p504
I1
sVdbjg37r
p505
I1
sVd4u90w1
p506
I1
sVcywgr7v
p507
I4
sVd9ckzzi
p508
I1
sVd2ergrg
p509
I1
sVdkwfe0k
p510
I1
sVd5vp71j
p511
I1
sVd562luy
p512
I1
sVdmzucva
p513
I1
sVdhgizk3
p514
I1
sVdmfa4wt
p515
I1
sVd52jc62
p516
I1
sVddu6hwl
p517
I1
sVd02jokf
p518
I1
sVd8ufpsw
p519
I1
sVdhz2w79
p520
I1
sVd8icmy7
p521
I1
sVczv1d2h
p522
I1
sVd01lzgp
p523
I2
sVd82bs8b
p524
I3
sVdige9ic
p525
I1
sVdd51fzt
p526
I1
sVcyug3mq
p527
I1
sVdbmaja7
p528
I1
sVd55952q
p529
I1
sVd8yj8bn
p530
I1
sVdazqnzm
p531
I1
sVdf62cpp
p532
I4
sVd195pn9
p533
I1
sVdj2hif1
p534
I1
sVd5v73mp
p535
I2
sVd3wpsis
p536
I1
sVdsnkcjl
p537
I1
sVdh5rlvy
p538
I1
sVdbgvr2l
p539
I2
sVdokqrmf
p540
I1
sVdcbnjs6
p541
I1
sVcyy1xa5
p542
I1
sVd7yul2z
p543
I2
sVd9fjez6
p544
I4
sVdppdo5z
p545
I1
sVdb3cjfc
p546
I3
sVd4mhtff
p547
I1
sVd2ktkot
p548
I1
sVcz8dy1f
p549
I2
sVdtae2ob
p550
I1
sVdi5tufg
p551
I1
sVddcrs13
p552
I1
sVd3gml9i
p553
I1
sVderd8pt
p554
I1
sVd4lwtk9
p555
I1
sVdd9g729
p556
I1
sVd4pukvx
p557
I1
sVdqxz37b
p558
I1
sVd7yici2
p559
I1
sVd6wfvzc
p560
I1
sVd5b3gqb
p561
I1
sVdrzunsq
p562
I2
sVd891asf
p563
I1
sVczaan3n
p564
I1
sVdhjofsh
p565
I3
sVdkku57t
p566
I1
sVdh193kq
p567
I4
sVd0zmeca
p568
I1
sVdq3t54j
p569
I1
sVd30mo6a
p570
I1
sVda5k41e
p571
I1
sVd9p7yue
p572
I1
sVd8ln9cm
p573
I1
sVd0qkj1w
p574
I1
sVd8d8d2r
p575
I2
sVdkme2mq
p576
I1
sVditz934
p577
I2
sVdoc95xc
p578
I1
sVddxjpqz
p579
I1
sVdhv62ek
p580
I2
sVd8kb5ir
p581
I1
sVdkq4zsy
p582
I3
sVd2rhmwt
p583
I2
sVdk32b6c
p584
I1
sVd0iqfeq
p585
I1
sVcyw43gb
p586
I1
sVdmxks0v
p587
I1
sVd8t5d4v
p588
I1
sVcz6hne2
p589
I2
sVdcdw9hr
p590
I1
sVd6mro9d
p591
I1
sVdaeavpk
p592
I1
sVdaciyvm
p593
I1
sVdmunoza
p594
I1
sVdft654d
p595
I1
sVd4a30qa
p596
I1
sVdg84tzc
p597
I1
sVddwqa1g
p598
I1
sVdmjm9ho
p599
I1
sVd8ydmf4
p600
I3
sVdf26wph
p601
I3
sVdjrrwpg
p602
I3
sVdna5bde
p603
I1
sVdbwo9bk
p604
I1
sVd47uzdi
p605
I1
sVdjp9g7e
p606
I6
sVd2igy9y
p607
I1
sVczx6jti
p608
I1
sVdil7pw4
p609
I1
sVd07h3bi
p610
I2
sVdh9fq5t
p611
I1
sVdfasfp8
p612
I1
sVdgfj9mk
p613
I1
sVdd5hovt
p614
I1
sVdkntwg2
p615
I2
sVdepl74y
p616
I3
sVdeootzc
p617
I1
sVdnanpct
p618
I1
sVdggmipt
p619
I1
sVdd3p869
p620
I2
sVd2i9tmh
p621
I1
sVd5b2ysb
p622
I1
sVd4ukw41
p623
I1
sVdjs95ls
p624
I1
sVddghqwy
p625
I3
sVd0nc5ah
p626
I1
sVdav548t
p627
I1
sVdgp2uyd
p628
I2
sVda1nbzl
p629
I1
sVddh65ec
p630
I1
sVdc97rzw
p631
I1
sVcyk6lq6
p632
I1
sVd1pvzd3
p633
I1
sVdrbbkyp
p634
I2
sVd5v90u1
p635
I1
sVd35fu0z
p636
I1
sVdevw3yy
p637
I2
sVd6jx6ed
p638
I3
sVd3p14ea
p639
I1
sVd1usd3u
p640
I3
sVdevs344
p641
I1
sVcyj938r
p642
I1
sVddhi2ky
p643
I1
sVd3klkw9
p644
I1
sVdbe81cv
p645
I1
sVd2tk2s5
p646
I1
sVdktr6zc
p647
I3
sVddx5w3s
p648
I1
sVdmo460w
p649
I1
sVdbbvpie
p650
I3
sVdh757hv
p651
I2
sVd472npm
p652
I8
sVd4lwz8o
p653
I1
sVdoepm7n
p654
I1
sVcz4yrk9
p655
I1
sVdhy7bf6
p656
I1
sVdie124q
p657
I1
sVd3vottb
p658
I4
sVcyq711p
p659
I2
sVdd3u0r2
p660
I1
sVd3k78wy
p661
I1
sVdok41sn
p662
I1
sVd27cy8w
p663
I1
sVdci1y0x
p664
I1
sVddxfw14
p665
I1
sVd1pjpt2
p666
I1
sVdjdh88k
p667
I1
sVdizj1g3
p668
I1
sVdaa9k7e
p669
I1
sVd7t28hw
p670
I1
sVcym11t3
p671
I1
sVd1j4bi7
p672
I2
sVczfcley
p673
I1
sVdabnemi
p674
I1
sVdf84do6
p675
I1
sVd6gog6l
p676
I1
sVdeidci4
p677
I1
sVd4klefc
p678
I1
sVd9uangr
p679
I1
sVd4tuihs
p680
I3
sVdpqxvj7
p681
I2
sVcz6w61t
p682
I1
sVd2ctbzn
p683
I2
sVdegwh2v
p684
I1
sVd9bpvov
p685
I1
sVd4m7re5
p686
I1
sVdaxiqqq
p687
I1
sVdage2u6
p688
I2
sVd0u0fy2
p689
I1
sVdk17dbj
p690
I3
sVd8rhrzj
p691
I3
sVcyp5yu2
p692
I1
sVdd2usqq
p693
I1
sVdbr5n33
p694
I1
sVdk4kr4w
p695
I1
sVdgj52de
p696
I1
sVdk10hbv
p697
I2
sVdiz8xcr
p698
I3
sVdganw4u
p699
I1
sVde23cg9
p700
I1
sVczoo7ai
p701
I1
sVdaiwyd2
p702
I1
sVdq0z26f
p703
I1
sVcyp5qkb
p704
I1
sVd7momxk
p705
I1
sVdevb7bp
p706
I1
sVd9qgt5i
p707
I4
sVdnb1qa5
p708
I1
sVd0g7jk4
p709
I1
sVd2m5637
p710
I1
sVd3yn9eo
p711
I1
sVdjwiy0w
p712
I3
sVcytblo4
p713
I2
sVdg2c1cx
p714
I1
sVd0yuwd5
p715
I3
sVczl2me0
p716
I1
sVd08amjr
p717
I2
sVd07k0ki
p718
I1
sVde6bcym
p719
I1
sVdokxb2w
p720
I1
sVde9wcnb
p721
I5
sVdaas7i0
p722
I1
sVdfrj9ze
p723
I2
sVdcoasd5
p724
I1
sVdmliv5n
p725
I1
sVdjf97uk
p726
I1
sVd4lxkmb
p727
I1
sVdi4ljce
p728
I1
sVd9jwob3
p729
I2
sVdekiqcd
p730
I1
sVdjmj85g
p731
I1
sVcz92ouu
p732
I4
sVd7141n0
p733
I1
sVd14h83l
p734
I1
sVdh30yoh
p735
I2
sVd8m0wxs
p736
I3
sVdon3eft
p737
I1
sVdh9h32k
p738
I3
sVdrt1nrj
p739
I1
sVd79tgie
p740
I1
sVczhxayo
p741
I1
sVd4ayntf
p742
I1
sVd21hesw
p743
I3
sVdny44hy
p744
I1
sVdhul18m
p745
I1
sVdfwwdbv
p746
I1
sVczvx94i
p747
I1
sVd78u6l2
p748
I1
sVcyjalsi
p749
I1
sVdj42p0x
p750
I1
sVdhemdur
p751
I2
sVczvdz4g
p752
I1
sVd2ewwqp
p753
I2
sVd2qrlkt
p754
I1
sVd83vmq8
p755
I3
sVd1vgzx8
p756
I1
sVdf07g9o
p757
I1
sVd9k25vq
p758
I1
sVd2572fk
p759
I1
sVdbhpqa2
p760
I1
sVd9y2npw
p761
I1
sVdhqsizx
p762
I1
sVdgcgqhv
p763
I1
sVdh5nyic
p764
I4
sVdffs8np
p765
I1
sVd7s5bn0
p766
I1
sVd9hefrk
p767
I3
sVdfhe1ib
p768
I2
sVds11unt
p769
I3
sVd1vise3
p770
I3
sVdiiugkd
p771
I1
sVd0klec8
p772
I3
sVcyk7j27
p773
I1
sVd4m1irb
p774
I2
sVdf7rps7
p775
I17
sVd8rhfbp
p776
I1
sVd5avlo6
p777
I1
sVdee8qo2
p778
I1
sVd0scg8n
p779
I1
sVdiz8g2y
p780
I1
sVdpdidux
p781
I2
sVd36zmgf
p782
I2
sVd1paoz4
p783
I1
sVds8vku9
p784
I1
sVdipl04q
p785
I1
sVd355f9k
p786
I1
sVd8ih304
p787
I3
sVdfmyq54
p788
I1
sVds19p0a
p789
I1
sVd44pq9a
p790
I1
sVdiaeibx
p791
I1
sVdnuml36
p792
I1
sVd0kngdd
p793
I1
sVdjm9njy
p794
I1
sVdnhe2mk
p795
I3
sVdjsdda1
p796
I1
sVdd0njyf
p797
I1
sVddzco8i
p798
I1
sVdabx70x
p799
I2
sVdijbagv
p800
I1
sVdku4fae
p801
I1
sVd8ypj0h
p802
I1
sVd94pmqt
p803
I3
sVczvqu50
p804
I2
sVdh0u8q0
p805
I1
sVd2yrtk3
p806
I1
sVd45vz0l
p807
I1
sVdgfl8qd
p808
I1
sVddx130i
p809
I1
sVd0da1kb
p810
I1
sVdfgtiph
p811
I1
sVczktjae
p812
I1
sVd077rqq
p813
I2
sVdjqzqzp
p814
I2
sVd33tykr
p815
I1
sVd8u6fh3
p816
I1
sVdhbnauh
p817
I1
sVdh3ju8c
p818
I1
sVd3a09x7
p819
I1
sVd88bnps
p820
I1
sVd3lzky1
p821
I2
sVdjub99p
p822
I1
sVd0ondmf
p823
I1
sVd3jdygf
p824
I5
sVd0zbbnl
p825
I1
sVd84dh2q
p826
I1
sVd15rqw9
p827
I1
sVdc9qc1d
p828
I2
sVdet5l5s
p829
I1
sVdgty8yp
p830
I3
sVd8repfr
p831
I1
sVczi1oqp
p832
I1
sVdicio23
p833
I1
sVde71gmd
p834
I1
sVd5uza9x
p835
I1
sVderohgd
p836
I1
sVcyjja7d
p837
I1
sVd1kezki
p838
I2
sVdhsz4ie
p839
I1
sVd1fd3v1
p840
I1
sVd3bx8u7
p841
I1
sVdcwcqr6
p842
I1
sVdivjddp
p843
I1
sVd7m8o3y
p844
I1
sVdc6iw47
p845
I1
sVdk1lj3p
p846
I1
sVdc93528
p847
I2
sVd4sergw
p848
I1
sVdipcwc3
p849
I2
sVdi43j3q
p850
I1
sVdfwii82
p851
I1
sVdi07oyb
p852
I1
sVddgmfzr
p853
I1
sVdgy6w4a
p854
I1
sVd25begz
p855
I1
sVd3sunf0
p856
I1
sVdoqfrf0
p857
I2
sVczqarxl
p858
I1
sVd9f3yr1
p859
I9
sVd061gla
p860
I1
sVd55428n
p861
I3
sVdijrim8
p862
I1
sVdph3int
p863
I1
sVdf94tex
p864
I6
sVdd6mnio
p865
I1
sVdcnzeva
p866
I1
sVdmrsgry
p867
I1
sVdtiaudu
p868
I1
sVd2vrerz
p869
I1
sVd26abji
p870
I1
sVd0zqkds
p871
I2
sVd4mb4t0
p872
I1
sVdgiq29s
p873
I1
sVczz0pf4
p874
I2
sVdazhxqj
p875
I3
sVd5vyu97
p876
I1
sVdcf5nfi
p877
I1
sVd1r7rne
p878
I1
sVd0i9jqw
p879
I1
sVd77uc5f
p880
I1
sVd9z1u08
p881
I1
sVdevoz3s
p882
I1
sVd919qje
p883
I1
sVd1hrfeu
p884
I1
sVd80sajj
p885
I1
sVd4kqk81
p886
I2
sVd2x8e0r
p887
I1
sVd8huew7
p888
I1
sVdh0ubsn
p889
I1
sVd478a7o
p890
I1
sVczmz8az
p891
I1
sVd2naxia
p892
I1
sVd51bddl
p893
I1
sVdf4cqlq
p894
I1
sVd7qmagw
p895
I1
sVd4mujwk
p896
I1
sVdmfvbox
p897
I1
sVdbie7ew
p898
I1
sVcz9m5ng
p899
I1
sVdb0mtwn
p900
I1
sVdcqkwqh
p901
I1
sVd7wfjy8
p902
I1
sVddhqqyg
p903
I2
sVdra8ve1
p904
I1
sVcyj6gxj
p905
I1
sVczc6kwi
p906
I2
sVcyt94x4
p907
I2
sVd0gsqtl
p908
I1
sVd3we5om
p909
I1
sVdfwqy5c
p910
I1
sVd7ebi1s
p911
I1
sVdkruwbl
p912
I1
sVczvjjjz
p913
I1
sVcyq5vgo
p914
I1
sVd5htqhs
p915
I3
sVdh4tw61
p916
I1
sVdms5q9k
p917
I2
sVcz6pzei
p918
I1
sVd2qvvi5
p919
I1
sVd5ej8ad
p920
I1
sVd1e7733
p921
I1
sVdffyzar
p922
I1
sVdinixif
p923
I1
sVdbkkjix
p924
I1
sVd533en8
p925
I1
sVd6es6vj
p926
I1
sVd3q6elh
p927
I1
sVdf06865
p928
I1
sVdj2kg8r
p929
I1
sVdg4i6t2
p930
I1
sVdgob808
p931
I1
sVdp4tsa3
p932
I1
sVdgv79km
p933
I1
sVd1sak8p
p934
I1
sVd8u5luz
p935
I1
sVcz52zqe
p936
I1
sVd4mruqh
p937
I1
sVd75dg9f
p938
I1
sVdhukfi9
p939
I1
sVd2gk8va
p940
I2
sVdk5ox6i
p941
I2
sVdfwivr8
p942
I1
sVcywolkz
p943
I3
sVd2f287b
p944
I1
sVdfjwldl
p945
I3
sVdfvqhsq
p946
I2
sVd15k84u
p947
I1
sVdh1xsye
p948
I1
sVdqmu2ij
p949
I1
sVday0gbh
p950
I1
sVdmp8dl5
p951
I1
sVdfvmard
p952
I1
sVd3pozjs
p953
I1
sVczhwqwe
p954
I1
sVdcsvzmg
p955
I1
sVczvg6p8
p956
I1
sVd4m3nk8
p957
I1
sVcypqtqx
p958
I1
sVddruxez
p959
I1
sVdam1jq2
p960
I1
sVd22xc3u
p961
I3
sVdbhw6pz
p962
I1
sVdgmnqza
p963
I1
sVd1yqor6
p964
I5
sVdh7vwsr
p965
I1
sVdpo5cs6
p966
I1
sVczvid36
p967
I2
sVdetqskh
p968
I1
sVd3voj5a
p969
I2
sVdce05uk
p970
I1
sVdgwrnuw
p971
I1
sVdfow6hj
p972
I1
sVczd725l
p973
I1
sVd8t4md9
p974
I1
sVcyiayfx
p975
I1
sVd0655si
p976
I1
sVd3d3roi
p977
I1
sVd94q4q5
p978
I6
sVdfyxyn4
p979
I1
sVdgflgr5
p980
I1
sVd0ggxk3
p981
I1
sVdd6t358
p982
I1
sVdpz665h
p983
I2
sVdj2q89v
p984
I1
sVdo60h0n
p985
I1
sVd1xs550
p986
I1
sVd4lxzvj
p987
I1
sVdno7auk
p988
I1
sVdgglwy6
p989
I1
sVdfccgo8
p990
I1
sVd8iou9c
p991
I1
sVdae1gfo
p992
I1
sVd4xov0y
p993
I1
sVd4lrowp
p994
I1
sVdd5c0tu
p995
I1
sVd8kqmev
p996
I1
sVd16ww3d
p997
I1
sVd4m3sam
p998
I2
sVdkfliph
p999
I1
sVcyz0ala
p1000
I1
sVcyvjzlj
p1001
I2
sVdcagpbq
p1002
I4
sVd61n74m
p1003
I1
sVczng1n1
p1004
I1
sVdbsfx4d
p1005
I1
sVdbcudf9
p1006
I1
sVdgkmjao
p1007
I1
sVd3tbld6
p1008
I1
sVdr4rr5r
p1009
I3
sVdhamycm
p1010
I1
sVdhrbpfg
p1011
I1
sVcz0ejes
p1012
I1
sVdfk9u0g
p1013
I2
sVdh4a726
p1014
I2
sVdsslqdb
p1015
I1
sVd4htaw1
p1016
I1
sVd88ow2b
p1017
I1
sVd3mawfy
p1018
I1
sVd83w8dt
p1019
I2
sVdn34azr
p1020
I1
sVdgnigmj
p1021
I1
sVd8ow7b3
p1022
I4
sVd7g1in1
p1023
I1
sVczu273s
p1024
I1
sVd52l8to
p1025
I3
sVd9i5zoc
p1026
I3
sVdfw4dfc
p1027
I1
sVcz51upx
p1028
I1
sVd4kjics
p1029
I1
sVds19gj6
p1030
I1
sVdguxxed
p1031
I1
sVdjfoi5b
p1032
I1
sVcyrdawn
p1033
I1
sVd8jep5y
p1034
I1
sVde17ktz
p1035
I1
sVddcxnyg
p1036
I1
sVdhbmoyv
p1037
I1
sVdekfq9i
p1038
I1
sVdc93rzk
p1039
I1
sVd591daj
p1040
I2
sVd6s9ddp
p1041
I3
sVd6i8t64
p1042
I1
sVd1sn8t2
p1043
I3
sVdf3r78e
p1044
I1
sVdayh66f
p1045
I1
sVdk0viox
p1046
I1
sVd57qwn9
p1047
I1
sVcyiiat9
p1048
I2
sVdna0dpa
p1049
I1
sVd5z6dii
p1050
I1
sVdehbcqe
p1051
I1
sVd9zuieo
p1052
I2
sVdrl4yme
p1053
I1
sVd1sj5f5
p1054
I1
sVcz4feas
p1055
I3
sVddy0fug
p1056
I1
sVdqfak9w
p1057
I2
sVdpi9q5v
p1058
I1
sVd3n0uv3
p1059
I1
sVczm8sek
p1060
I1
sVdafgws0
p1061
I1
sVdjdmt8w
p1062
I3
sVdod3tdy
p1063
I1
sVd4l2fth
p1064
I2
sVdgp3ab5
p1065
I1
sVdq5n860
p1066
I1
sVcyjbcik
p1067
I2
sVdk0qamh
p1068
I1
sVd4k0djs
p1069
I1
sVcykaty1
p1070
I1
sVd627y9w
p1071
I1
sVdix19kf
p1072
I3
sVd3tn9el
p1073
I17
sVd7fihpk
p1074
I2
sVd074zxm
p1075
I1
sVd1grqla
p1076
I1
sVd2j6ooq
p1077
I1
sVdi0xtom
p1078
I1
sVdr9ev1q
p1079
I1
sVdrv31gp
p1080
I1
sVdra7yr7
p1081
I1
sVdjdgsuo
p1082
I4
sVd10iib0
p1083
I1
sVdnguyhx
p1084
I1
sVd8rseil
p1085
I1
sVd91alik
p1086
I1
sVczkd4eb
p1087
I1
sVd53egq6
p1088
I2
sVdj2esy2
p1089
I1
sVdi7f99d
p1090
I1
sVdiqdxhy
p1091
I1
sVcz0qb0d
p1092
I2
sVddhrkht
p1093
I1
sVd3jecza
p1094
I2
sVd75jknl
p1095
I1
sVd5oto4c
p1096
I1
sVdigek6o
p1097
I1
sVd4fcc88
p1098
I1
sVdnecl8v
p1099
I1
sVdccc3np
p1100
I1
sVdkamlx2
p1101
I1
sVdrpwf43
p1102
I1
sVdcmemqh
p1103
I1
sVdev5bf8
p1104
I2
sVcyujb7c
p1105
I1
sVd2l2s19
p1106
I1
sVd546cc1
p1107
I1
sVdmi1fpn
p1108
I1
sVdrrthth
p1109
I2
sVczw4ivk
p1110
I1
sVczkzukl
p1111
I1
sVd12o40g
p1112
I1
sVdinovqz
p1113
I1
sVd3p22sr
p1114
I6
sVd30if74
p1115
I1
sVdfyn30u
p1116
I1
sVdb0fbc6
p1117
I1
sVdfv7a01
p1118
I1
sVd75eg49
p1119
I1
sVd2iap0o
p1120
I1
sVd0frmac
p1121
I1
sVd0zkzty
p1122
I1
sVd9ib4o7
p1123
I3
sVdfa472i
p1124
I1
sVddlxz4p
p1125
I1
sVd5rggx4
p1126
I1
sVd3emd30
p1127
I1
sVd5s51qm
p1128
I1
sVd9yoysi
p1129
I1
sVd1sfvgp
p1130
I1
sVddna7lh
p1131
I1
sVd11ilkc
p1132
I1
sVd68an40
p1133
I1
sVdbsx8g2
p1134
I1
sVcyv2cbx
p1135
I1
sVdrl58dk
p1136
I1
sVd7to9y1
p1137
I1
sVddc119z
p1138
I1
sVdaskfxs
p1139
I1
sVd0ipdz2
p1140
I1
sVd1rnawd
p1141
I1
sVd6zu2gj
p1142
I1
sVdc5h4do
p1143
I1
sVdj3kccf
p1144
I1
sVczoveau
p1145
I1
sVdku0e6e
p1146
I1
sVczhvwju
p1147
I1
sVd2fylij
p1148
I1
sVd7iw39a
p1149
I1
sVddmvmyv
p1150
I1
sVd2bhzao
p1151
I1
sVd4uf2af
p1152
I1
sVd7xd2wa
p1153
I1
sVdbjftjd
p1154
I2
sVd8a3i9k
p1155
I1
sVddpafiu
p1156
I1
sVdp2nemn
p1157
I1
sVdeaekrv
p1158
I1
sVd95adh2
p1159
I1
sVdbk304d
p1160
I1
sVd3197u8
p1161
I2
sVdqrjkks
p1162
I1
sVde4dum6
p1163
I1
sVd1xfb5z
p1164
I2
sVdf3ag7t
p1165
I4
sVd9fl1xu
p1166
I1
sVcyoz50g
p1167
I1
sVd7xairc
p1168
I3
sVda49fps
p1169
I1
sVdfyae9b
p1170
I1
sVdc9q3k6
p1171
I1
sVdo2ld2x
p1172
I1
sVd0zr9oi
p1173
I5
sVd1fjpcm
p1174
I1
sVd2m0wza
p1175
I1
sVdcmgplj
p1176
I2
sVd8gkkg7
p1177
I1
sVd9dp8yv
p1178
I1
sVdc65fye
p1179
I1
sVdibyra7
p1180
I1
sVdi2bm5l
p1181
I1
sVd3r3hp1
p1182
I1
sVcz6ezei
p1183
I1
sVcyi5koz
p1184
I4
sVd075qp7
p1185
I1
sVdcw2dfu
p1186
I2
sVddfssrh
p1187
I1
sVd0g52b3
p1188
I3
sVd7qwoyg
p1189
I2
sVd8om31k
p1190
I2
sVd2xfd5x
p1191
I1
sVd56faw8
p1192
I1
sVdcufe4n
p1193
I1
sVd58g5x3
p1194
I1
sVdiwb2fd
p1195
I2
sVd8qe9rm
p1196
I1
sVd77tmnv
p1197
I1
sVdiq4miz
p1198
I1
sVdgqplmv
p1199
I1
sVd1uczc8
p1200
I2
sVd3npa9o
p1201
I1
sVd78ggyi
p1202
I1
sVdgeb5sb
p1203
I1
sVdba29fd
p1204
I1
sVd46ea9s
p1205
I1
sVd2m553g
p1206
I3
sVd1qfxwl
p1207
I1
sVdfgpzd3
p1208
I1
sVd104wvd
p1209
I2
sVd27a3mo
p1210
I2
sVdthcgzr
p1211
I1
sVd4m3yr0
p1212
I1
sVd3koq9d
p1213
I1
sVczijk04
p1214
I1
sVdfk0khf
p1215
I13
sVd20fg9l
p1216
I2
sVdegniil
p1217
I1
sVd2zqj7o
p1218
I1
sVdbat8n3
p1219
I1
sVd00tqgd
p1220
I1
sVdb5g8yf
p1221
I1
sVdodi73w
p1222
I1
sVdb0wql2
p1223
I1
sVdg1kohd
p1224
I1
sVczzv38i
p1225
I4
sVda6vxhy
p1226
I1
sVd34phgh
p1227
I1
sVda0jf31
p1228
I2
sVd5x2we3
p1229
I1
sVdjb3tbz
p1230
I1
sVdgb1qee
p1231
I1
sVdarqctm
p1232
I2
sVdia3o93
p1233
I1
sVdcmkop9
p1234
I1
sVd7837y6
p1235
I2
sVcz92pwg
p1236
I1
sVdnhw2zh
p1237
I1
sVdkqt6l6
p1238
I1
sVd4lmdly
p1239
I1
sVdebscsi
p1240
I1
sVd7l94wz
p1241
I1
sVdjbmzb3
p1242
I1
sVd3nx57d
p1243
I1
sVdobqydo
p1244
I1
sVdcplti5
p1245
I1
sVdhjg6g6
p1246
I1
sVdkulpdn
p1247
I1
sVd36s9su
p1248
I1
sVdaypsvg
p1249
I1
sVdiq3jr0
p1250
I2
sVd8vzt04
p1251
I1
sVd1nnyhy
p1252
I1
sVdcz6at1
p1253
I1
sVd9za21e
p1254
I1
sVdaqfax5
p1255
I3
sVdbvt6sf
p1256
I1
sVcz3fpcq
p1257
I1
sVd47ofup
p1258
I2
sVdjxxht0
p1259
I1
sVdeo0eg7
p1260
I1
sVd2kdzgi
p1261
I1
sVdaa6v8e
p1262
I2
sVddwd85q
p1263
I1
sVdmurjmm
p1264
I1
sVd7gb54j
p1265
I1
sVditebl2
p1266
I1
sVd36cphu
p1267
I1
sVd4n2sp2
p1268
I1
sVd56ylmk
p1269
I1
sVd14aj4s
p1270
I1
sVdge3bkf
p1271
I1
sVdhbjwgu
p1272
I1
sVcz4ymqn
p1273
I1
sVd05ofg3
p1274
I3
sVda6uuzr
p1275
I1
sVde7ni9n
p1276
I2
sVdrzz2yu
p1277
I1
sVd47bg6k
p1278
I3
sVdgyw4hw
p1279
I1
sVdioexmu
p1280
I1
sVdikekaf
p1281
I1
sVdekwscb
p1282
I1
sVd9dlzaj
p1283
I1
sVdaaaw75
p1284
I2
sVdh6ovaz
p1285
I1
sVd3mb82g
p1286
I1
sVdqmh22z
p1287
I1
sVczfy6kf
p1288
I1
sVd2a2doo
p1289
I1
sVd473jin
p1290
I1
sVdizox69
p1291
I3
sVd6000md
p1292
I1
sVd2j5x8i
p1293
I1
sVdmihfzd
p1294
I1
sVdixj9yk
p1295
I1
sVcynf8yu
p1296
I1
sVd3o8rn3
p1297
I1
sVczv13j7
p1298
I2
sVd5bov1d
p1299
I2
sVczyqtt1
p1300
I3
sVcz2m0va
p1301
I1
sVdcucw8p
p1302
I3
sVd22u3o8
p1303
I1
sVd4ihg7o
p1304
I1
sVd4kk246
p1305
I1
sVdmv4psj
p1306
I1
sVd35ish0
p1307
I1
sVd14kfoz
p1308
I1
sVdoqu48b
p1309
I2
sVd2x87d9
p1310
I2
sVd3gzxo6
p1311
I1
sVdeoif9k
p1312
I4
sVcz94qb6
p1313
I2
sVdhui6ll
p1314
I1
sVd9k53ep
p1315
I1
sVd44pt1h
p1316
I1
sVd1n40w0
p1317
I1
sVczuqry6
p1318
I1
sVdbj9o86
p1319
I1
sVd25kyee
p1320
I2
sVdn9hp3r
p1321
I1
sVdoygljd
p1322
I1
sVd6pbjlk
p1323
I1
sVdkqxip4
p1324
I1
sVdf4y3qr
p1325
I1
sVddiy7bh
p1326
I1
sVdhohc2t
p1327
I1
sVdhuv80w
p1328
I1
sVdh0kmz2
p1329
I1
sVd38jokv
p1330
I1
sVcyrx2os
p1331
I2
sVd7sxwd6
p1332
I2
sVdmsiov0
p1333
I1
sVd5v3r5p
p1334
I1
sVd6rz3z1
p1335
I1
sVd0ipmtu
p1336
I1
sVd4m1iwd
p1337
I7
sVd0m3vs7
p1338
I4
sVdegtkjk
p1339
I1
sVd8vqj1y
p1340
I1
sVd21ze5i
p1341
I1
sVd7h4aih
p1342
I3
sVcza6otf
p1343
I1
sVdabf2xj
p1344
I2
sVcys360i
p1345
I4
sVdg47rsh
p1346
I1
sVdcju6bl
p1347
I5
sVd6fx0sb
p1348
I1
sVdknos7r
p1349
I2
sVd46a0h5
p1350
I1
sVdk0ynst
p1351
I1
sVcywjcbp
p1352
I4
sVdse4uqj
p1353
I1
sVdjdhj3j
p1354
I1
sVd9dsm7d
p1355
I1
sVczm4443
p1356
I1
sVd2aybmh
p1357
I2
sVd3ptkcp
p1358
I1
sVdbia00x
p1359
I2
sVdd52hlq
p1360
I1
sVdh0je5n
p1361
I1
sVdgt4wqf
p1362
I1
sVczvwga2
p1363
I1
sVd4hnrjk
p1364
I1
sVdbt5krx
p1365
I1
sVddojgew
p1366
I1
sVcyvsra4
p1367
I1
sVd0tk57m
p1368
I1
sVd3pq44h
p1369
I1
sVdi2igcm
p1370
I2
sVd5x1xx8
p1371
I1
sVd5p7733
p1372
I1
sVd0wfy47
p1373
I11
sVd3dt3y7
p1374
I1
sVdj2i9ns
p1375
I1
sVdf18d0t
p1376
I1
sVde7up02
p1377
I1
sVdazusht
p1378
I3
sVdbnkcef
p1379
I2
sVdeq9jdp
p1380
I3
sVdju0a1t
p1381
I1
sVdde7rlf
p1382
I1
sVdep4ss3
p1383
I1
sVdc93v1q
p1384
I3
sVcywmo0v
p1385
I1
sVcynob8u
p1386
I1
sVdip2ejq
p1387
I1
sVds0cfub
p1388
I1
sVczyxju8
p1389
I1
sVdkku9dh
p1390
I4
sVd0h4z3z
p1391
I1
sVd0hii9c
p1392
I1
sVdcmkziy
p1393
I2
sVd8idb49
p1394
I2
sVdbrsd12
p1395
I1
sVdgzwhnm
p1396
I2
sVd4lxgmp
p1397
I1
sVd1kxamf
p1398
I1
sVd8o21bx
p1399
I1
sVda36juw
p1400
I1
sVd8l49rb
p1401
I1
sVdjshyld
p1402
I1
sVd58dl6c
p1403
I2
sVdfoowks
p1404
I1
sVdccul3i
p1405
I2
sVdhwd9p6
p1406
I1
sVczzcsit
p1407
I3
sVdjn8aba
p1408
I2
sVdk0xcmx
p1409
I1
sVd03sk58
p1410
I1
sVdeymw71
p1411
I1
sVd36jyoy
p1412
I1
sVczu2ck2
p1413
I1
sVd5ur0ol
p1414
I1
sVdgcr51h
p1415
I1
sVdhy3ism
p1416
I1
sVd8yy75b
p1417
I1
sVdflngts
p1418
I1
sVd2fy0c5
p1419
I1
sVczvxx4e
p1420
I1
sVdj2iu2j
p1421
I1
sVdgcz1rx
p1422
I2
sVdg1kpv2
p1423
I1
sVdoad7v7
p1424
I1
sVdefpb34
p1425
I2
sVd4qjthv
p1426
I1
sVcykfs4r
p1427
I3
sVd51adxv
p1428
I5
sVd00iwcx
p1429
I1
sVd4q11kd
p1430
I1
sVdfayg0w
p1431
I1
sVd71lsnb
p1432
I2
sVdimeq3s
p1433
I1
sVdeg9v0f
p1434
I4
sVd885se2
p1435
I1
sVd0336jz
p1436
I1
sVd4jg59e
p1437
I4
sVd814g7t
p1438
I1
sVd024bem
p1439
I2
sVdqqdjz7
p1440
I1
sVdns4uod
p1441
I1
sVd9mg24b
p1442
I1
sVdaflzq8
p1443
I1
sVd1m4vrh
p1444
I1
sVdbnclmf
p1445
I3
sVdam7485
p1446
I1
sVdbjk13a
p1447
I3
sVde07qr7
p1448
I2
sVdj3ylso
p1449
I1
sVdcse41b
p1450
I1
sVdjujox7
p1451
I3
sVczha0vt
p1452
I1
sVdfqinih
p1453
I2
sVd2afpre
p1454
I1
sVd0865n4
p1455
I1
sVd315iq2
p1456
I1
sVd3y2qof
p1457
I3
sVczs50xw
p1458
I3
sVcyvzknp
p1459
I2
sVd2d6zwu
p1460
I1
sVd8z7xtb
p1461
I1
sVdkml7us
p1462
I1
sVdav5oaz
p1463
I2
sVdf1o99j
p1464
I1
sVdf6f3iy
p1465
I1
sVd4ttl89
p1466
I1
sVd5jttro
p1467
I1
sVcznf1ar
p1468
I1
sVdd75u6t
p1469
I2
sVd023hd9
p1470
I1
sVd85rc7y
p1471
I1
sVdft630z
p1472
I1
sVdh7ea1m
p1473
I1
sVd1wgi2q
p1474
I1
sVdg227se
p1475
I1
sVd3k6ll8
p1476
I1
sVdanp3fz
p1477
I1
sVdknchqh
p1478
I1
sVcz4wa1q
p1479
I1
sVd6gbswl
p1480
I1
sVda7fbz1
p1481
I1
sVdk040y2
p1482
I2
sVdcgsciu
p1483
I4
sVd8eun3i
p1484
I1
sVd19hcs4
p1485
I4
sVd2bgd13
p1486
I1
sVdic838w
p1487
I1
sVczymwwa
p1488
I3
sVd66rl5j
p1489
I2
sVczqg1h6
p1490
I1
sVdgp20dg
p1491
I1
sVdaueoxq
p1492
I1
sVdjcu660
p1493
I1
sVddvvgmg
p1494
I1
sVd4m55l7
p1495
I1
sVddf15b5
p1496
I1
sVdgebrhw
p1497
I1
sVd5vorsa
p1498
I1
sVdjptdvt
p1499
I1
sVd9nh199
p1500
I1
sVd0tfvkd
p1501
I1
sVdh3cbm2
p1502
I1
sVdqjchaz
p1503
I1
sVd2a57ey
p1504
I1
sVdizhmes
p1505
I1
sVd9q1q1s
p1506
I1
sVd7zxc27
p1507
I1
sVdd74hw2
p1508
I3
sVda1mazm
p1509
I1
sVd7pc89e
p1510
I1
sVdbxp2rf
p1511
I1
sVd94exx2
p1512
I1
sVczhdw5t
p1513
I1
sVd18y6ey
p1514
I3
sVcyvk33j
p1515
I1
sVddai80b
p1516
I1
sVdid6yd8
p1517
I2
sVd3acmoq
p1518
I1
sVd0sneq4
p1519
I1
sVd7xmxly
p1520
I1
sVdj2glpl
p1521
I1
sVd4mqvui
p1522
I2
sVczrbpys
p1523
I1
sVcyxzicf
p1524
I1
sVd42f7wl
p1525
I1
sVd3pfkxa
p1526
I2
sVdinirzw
p1527
I1
sVd21ddj7
p1528
I3
sVdb3lz09
p1529
I2
sVd5ew16p
p1530
I1
sVdc4fifc
p1531
I2
sVd311l4c
p1532
I4
sVdat467m
p1533
I3
sVczcmna2
p1534
I1
sVdem9kpw
p1535
I2
sVdd9qdk7
p1536
I1
sVdirju4m
p1537
I1
sVd4ofl7m
p1538
I1
sVdbdip0a
p1539
I1
sVd4lzalq
p1540
I2
sVd6olo5d
p1541
I1
sVd0wdy4v
p1542
I2
sVdf4qi7v
p1543
I1
sVdk6ssvy
p1544
I4
sVdms0t9v
p1545
I1
sVdizjepy
p1546
I1
sVd9k7jq4
p1547
I1
sVdio6fgc
p1548
I5
sVdav5r27
p1549
I1
sVdcuponw
p1550
I2
sVdggqt4f
p1551
I1
sVdeeddrs
p1552
I2
sVdhgj3iv
p1553
I1
sVd39ng7u
p1554
I1
sVdef1ned
p1555
I1
sVd7nuta0
p1556
I1
sVdbusqbl
p1557
I2
sVdc8wk81
p1558
I1
sVd6wh4z7
p1559
I2
sVdmppo1z
p1560
I2
sVdpypbq0
p1561
I2
sVd3j4tm3
p1562
I1
sVd8ng6xi
p1563
I1
sVd9irmwl
p1564
I2
sVd2gicnd
p1565
I3
sVd39uv2f
p1566
I2
sVd5gr3ta
p1567
I9
sVd401shr
p1568
I2
sVdi4k3o3
p1569
I2
sVd1lmfx3
p1570
I1
sVd90gz8p
p1571
I1
sVdd7if0m
p1572
I1
sVd1tb41a
p1573
I1
sVdh7xuu7
p1574
I1
sVd7lnrf1
p1575
I1
sVdeskt5e
p1576
I1
sVd5chu04
p1577
I1
sVdtcojjy
p1578
I1
sVdfknded
p1579
I1
sVcyro7ct
p1580
I1
sVdf57h1m
p1581
I1
sVdgknysq
p1582
I2
sVdp71myj
p1583
I1
sVdrte15l
p1584
I1
sVd8umzdq
p1585
I2
sVda2g2lr
p1586
I1
sVdacru2l
p1587
I2
sVd3f3emr
p1588
I1
sVcypd5l0
p1589
I1
sVd0wnvfl
p1590
I1
sVdc3c3s1
p1591
I1
sVdj42p5b
p1592
I3
sVdht4wz5
p1593
I2
sVdjsm6la
p1594
I1
sVd37vt33
p1595
I1
sVdevjm21
p1596
I1
sVd108nx1
p1597
I2
sVdmvbpv7
p1598
I1
sVdip1rkd
p1599
I1
sVddhkkkv
p1600
I1
sVcypr10m
p1601
I1
sVdgroe5a
p1602
I1
sVd0fmmzj
p1603
I1
sVd12ne3l
p1604
I1
sVd0qvptg
p1605
I1
sVdmf3p2m
p1606
I1
sVcz8jw31
p1607
I1
sVd0dvpwl
p1608
I1
sVd5m27g8
p1609
I1
sVdcqhkqy
p1610
I2
sVdh1zm0p
p1611
I1
sVddgbae1
p1612
I2
sVdc2wu1q
p1613
I2
sVdhjd87u
p1614
I1
sVdcmc1tb
p1615
I1
sVddouvln
p1616
I1
sVdgokusn
p1617
I1
sVdhniop8
p1618
I2
sVda2uyhq
p1619
I1
sVd3kwrcm
p1620
I1
sVd8s1r5z
p1621
I1
sVd1ao5h6
p1622
I1
sVdjn3ote
p1623
I1
sVdmsfoqw
p1624
I2
sVd776n3k
p1625
I1
sVd4p48jy
p1626
I1
sVczgb0ft
p1627
I1
sVdcdfiuw
p1628
I2
sVdklvxmd
p1629
I1
sVdh4ickn
p1630
I1
sVd55j5sc
p1631
I1
sVd52tayq
p1632
I2
sVdgu7ign
p1633
I5
sVdeboc1f
p1634
I1
sVd3ggumd
p1635
I1
sVdb1gkap
p1636
I1
sVd9ee3rp
p1637
I1
sVdb3fita
p1638
I2
sVdbwozxs
p1639
I1
sVdj5k6kc
p1640
I1
sVdfktjbs
p1641
I1
sVdspalux
p1642
I1
sVddrgj56
p1643
I1
sVdf4odvj
p1644
I1
sVdgzurom
p1645
I2
sVdo1vwsl
p1646
I2
sVd2onsy4
p1647
I1
sVdcmecxh
p1648
I2
sVdcbrkja
p1649
I1
sVd1hks55
p1650
I2
sVczxr9n6
p1651
I2
sVdhexjyt
p1652
I1
sVd5zefr8
p1653
I2
sVd6d23sm
p1654
I1
sVdog4sgx
p1655
I1
sVd158poy
p1656
I1
sVd8v0rye
p1657
I2
sVd0x3xv6
p1658
I1
sVd4afiv0
p1659
I2
sVd91u7lf
p1660
I1
sVdhbtf0r
p1661
I1
sVdfk2xs0
p1662
I2
sVddixngi
p1663
I1
sVd48q6fg
p1664
I1
sVd3pfh9b
p1665
I1
sVdirmxx8
p1666
I1
sVd7wehxr
p1667
I1
sVczi2asa
p1668
I1
sVdiga1wy
p1669
I3
sVdio4kem
p1670
I2
sVd4tszwy
p1671
I16
sVdhhj5yr
p1672
I1
sVdetwdyd
p1673
I1
sVdgmtmbx
p1674
I2
sVd45b9c5
p1675
I1
sVdgs9s1d
p1676
I1
sVdar3lsn
p1677
I1
sVd4p7i0i
p1678
I1
sVd8giubt
p1679
I2
sVcyt6scu
p1680
I1
sVdcl8dvl
p1681
I1
sVdcqtwqm
p1682
I2
sVd2gfl0u
p1683
I2
sVdch4pm2
p1684
I1
sVd2rguj2
p1685
I1
sVd88cxv8
p1686
I1
sVd8u6h6s
p1687
I1
sVd19fadl
p1688
I1
sVd4lxtfq
p1689
I1
sVdh9xpt8
p1690
I4
sVd4wty3m
p1691
I2
sVdip0zhe
p1692
I3
sVdgta2eq
p1693
I1
sVd6v4a4o
p1694
I1
sVdiqd1lm
p1695
I1
sVda5i4yo
p1696
I1
sVddb2vp0
p1697
I3
sVd5130cx
p1698
I2
sVd8djof0
p1699
I1
sVd6po6g1
p1700
I2
sVd12b31c
p1701
I1
sVd48j8dq
p1702
I1
sVdjrq3bj
p1703
I2
sVd4k0c7f
p1704
I1
sVdnjsa0q
p1705
I1
sVd54cobk
p1706
I1
sVd078740
p1707
I1
sVdj3odqv
p1708
I1
sVdcvylas
p1709
I1
sVd13020e
p1710
I1
sVd3r8722
p1711
I2
sVddj902f
p1712
I2
sVdjcdhqw
p1713
I1
sVdi0oeo6
p1714
I2
sVdjigbgg
p1715
I1
sVdmwrhqu
p1716
I2
sVdal1o1z
p1717
I1
sVdktm6t8
p1718
I1
sVdn0miib
p1719
I2
sVd3jfr6l
p1720
I2
sVd4b2431
p1721
I1
sVd0fqykk
p1722
I1
sVdizy78g
p1723
I1
sVddd7fdt
p1724
I1
sVdmhnry4
p1725
I1
sVd9i9mj2
p1726
I1
sVd010iy9
p1727
I1
sVdbjtydr
p1728
I1
sVdj2szai
p1729
I1
sVdcsvu5b
p1730
I1
sVdgp2avn
p1731
I2
sVcz4q9jw
p1732
I1
sVd296f97
p1733
I1
sVdr0epcn
p1734
I1
sVdmf5bq4
p1735
I1
sVdajv3u3
p1736
I1
sVdf7poug
p1737
I3
sVd5efes0
p1738
I1
sVd6sasyw
p1739
I2
sVdetx1vb
p1740
I1
sVd9z55p6
p1741
I1
sVdgfnrqt
p1742
I1
sVdqwgyry
p1743
I1
sVdd53d5q
p1744
I1
sVdha1kti
p1745
I1
sVdgezuna
p1746
I2
sVdryne6p
p1747
I1
sVd6ac2wu
p1748
I1
sVdhy4g68
p1749
I1
sVdj4d6hl
p1750
I2
sVdbe6vux
p1751
I2
sVczj6oju
p1752
I1
sVda1n53a
p1753
I1
sVdcjfsp4
p1754
I1
sVd413yrx
p1755
I5
sVdcabgyh
p1756
I1
sVdnu647w
p1757
I1
sVcz520f1
p1758
I1
sVdmvgywb
p1759
I1
sVdc3uh4y
p1760
I1
sVd8gtqv3
p1761
I1
sVdbdvlm9
p1762
I1
sVdb94txm
p1763
I3
sVdjzaib1
p1764
I2
sVd4nzyxk
p1765
I1
sVcymcydb
p1766
I1
sVd9kavoj
p1767
I2
sVddgmcwf
p1768
I1
sVd591o5e
p1769
I1
sVdh99sy6
p1770
I1
sVdo7th00
p1771
I1
sVdn9vzk5
p1772
I2
sVd5m77mh
p1773
I1
sVd6dj6ph
p1774
I1
sVdbjciq2
p1775
I2
sVd9i5twa
p1776
I5
sVdo1pg41
p1777
I3
sVd0muc0f
p1778
I1
sVd2r103c
p1779
I1
sVczyjfxc
p1780
I1
sVdiemjqi
p1781
I3
sVdefmvpx
p1782
I6
sVde97tyx
p1783
I1
sVdiofl9v
p1784
I6
sVd8jsyh0
p1785
I3
sVdh46b3h
p1786
I2
sVdjxc61y
p1787
I1
sVd9a3ee7
p1788
I1
sVdf7mnsm
p1789
I2
sVdfljxqj
p1790
I1
sVdiipet3
p1791
I1
sVd4m3c6k
p1792
I3
sVd0784kk
p1793
I1
sVd86sx0h
p1794
I1
sVdq33ytm
p1795
I1
sVd5zn6og
p1796
I5
sVdb41fry
p1797
I1
sVdpit5w3
p1798
I1
sVd7b3yga
p1799
I1
sVd5vpmnd
p1800
I2
sVdjz2fvo
p1801
I1
sVd0qu9mi
p1802
I1
sVczua981
p1803
I1
sVd9ecbqf
p1804
I2
sVd0klguc
p1805
I1
sVdec95f0
p1806
I1
sVdj2wu98
p1807
I1
sVdjmvf6x
p1808
I1
sVd4jdedg
p1809
I1
sVd3jqsfm
p1810
I1
sVcz22o4u
p1811
I1
sVd01t3wg
p1812
I2
sVdfvs3co
p1813
I1
sVdj30gk7
p1814
I1
sVdik1x24
p1815
I1
sVdh0r7ix
p1816
I1
sVd0qmalb
p1817
I5
sVd0275ib
p1818
I1
sVdfbv238
p1819
I4
sVdkfel8d
p1820
I1
sVd6wglsp
p1821
I1
sVcz1lxm3
p1822
I5
sVd3kjpra
p1823
I1
sVdi7weui
p1824
I1
sVda364g7
p1825
I1
sVdeeo47y
p1826
I1
sVd1nbqxk
p1827
I1
sVd49zsd2
p1828
I1
sVde1tn2d
p1829
I1
sVd04t163
p1830
I1
sVdibbh7h
p1831
I1
sVddww32y
p1832
I2
sVdimaxok
p1833
I1
sVd5pw2um
p1834
I1
sVd78360p
p1835
I2
sVdoymlud
p1836
I1
sVdoxj9yt
p1837
I1
sVdcupsar
p1838
I1
sVd2z6x6k
p1839
I1
sVd25f7h0
p1840
I2
sVdcu73ui
p1841
I1
sVd67pcej
p1842
I1
sVd467mu3
p1843
I2
sVd34y8l2
p1844
I1
sVd8nq5b9
p1845
I1
sVdoz6np7
p1846
I1
sVdfgsf7q
p1847
I1
sVd7jgn93
p1848
I1
sVdj4d3z4
p1849
I1
sVd8g2ws5
p1850
I3
sVd5c3zib
p1851
I1
sVdfx9moh
p1852
I1
sVdh95gk7
p1853
I1
sVdimhq3t
p1854
I1
sVcznyqrg
p1855
I1
sVd2r0r4v
p1856
I1
sVd0gea4x
p1857
I2
sVdnirx43
p1858
I1
sVdbwvins
p1859
I1
sVdazd5v9
p1860
I1
sVdhcr0pi
p1861
I1
sVdfq9gpw
p1862
I1
sVd0cziwr
p1863
I1
sVdknd807
p1864
I1
sVd0u2oei
p1865
I1
sVd7eenzg
p1866
I1
sVcyrh307
p1867
I1
sVd5mglrm
p1868
I1
sVd4cvy0g
p1869
I1
sVdgo4adv
p1870
I1
sVdghcwk7
p1871
I2
sVdbed51b
p1872
I1
sVdigpupl
p1873
I1
sVddqdqle
p1874
I3
sVd0umeyd
p1875
I1
sVdod769l
p1876
I1
sVdjn65fj
p1877
I1
sVd7seew9
p1878
I1
sVdjmgge2
p1879
I1
sVdh87zon
p1880
I1
sVd8ffis3
p1881
I2
sVd2oo2fq
p1882
I1
sVdd2q1cb
p1883
I1
sVcztnshw
p1884
I2
sVdagdsf4
p1885
I1
sVdcjwjok
p1886
I4
sVd1keae0
p1887
I1
sVd54rb87
p1888
I1
sVd0yige9
p1889
I1
sVczuzk28
p1890
I3
sVd3dp2qe
p1891
I8
sVd2c20qi
p1892
I1
sVde4a1s0
p1893
I2
sVddr3jq0
p1894
I1
sVcynadyc
p1895
I1
sVdmn3huu
p1896
I7
sVd2bmc6m
p1897
I2
sVd3yp550
p1898
I2
sVd0ydass
p1899
I1
sVdi85kfa
p1900
I1
sVdob1yui
p1901
I1
sVda34ezf
p1902
I1
sVdhueql7
p1903
I3
sVdndryib
p1904
I1
sVd3knx47
p1905
I1
sVd3v7cas
p1906
I1
sVcymt1pt
p1907
I1
sVdhdhrpy
p1908
I1
sVdfk33bh
p1909
I1
sVddsxjjb
p1910
I1
sVd3j3wsc
p1911
I1
sVdgpchda
p1912
I1
sVdi55knc
p1913
I4
sVdfow5ff
p1914
I1
sVcyonbfn
p1915
I1
sVcz20lpm
p1916
I4
sVcywircd
p1917
I1
sVd2aosy2
p1918
I1
sVd590ayq
p1919
I1
sVdgy4wzi
p1920
I1
sVd7v0oax
p1921
I1
sVd0x7iho
p1922
I1
sVdi6vhow
p1923
I1
sVd0t9xnh
p1924
I1
sVddfup39
p1925
I1
sVdkk95ff
p1926
I1
sVdfk3tt7
p1927
I1
sVddxr04h
p1928
I1
sVdh93o8s
p1929
I2
sVd05k8ea
p1930
I1
sVdhn1oa0
p1931
I1
sVd51insl
p1932
I1
sVdtih6vn
p1933
I1
sVcz5bo75
p1934
I1
sVczpt9ik
p1935
I7
sVcz6qp4z
p1936
I1
sVd64fnxq
p1937
I1
sVdfp2y0w
p1938
I1
sVdgopm4q
p1939
I1
sVd32ri5a
p1940
I1
sVd6nwhh4
p1941
I1
sVd9ka3ff
p1942
I2
sVd3gxcpz
p1943
I1
sVdbprbdp
p1944
I1
sVdft5fe6
p1945
I2
sVcyzl65p
p1946
I1
sVdgks34u
p1947
I1
sVd8wbfep
p1948
I3
sVdbh649i
p1949
I2
sVd8j2ja8
p1950
I7
sVd04denm
p1951
I2
sVczw3bg6
p1952
I1
sVdrnn13u
p1953
I1
sVd4mfbsn
p1954
I1
sVdink3r7
p1955
I4
sVczvww3d
p1956
I1
sVd0wchge
p1957
I1
sVdhawynv
p1958
I1
sVd5emgap
p1959
I1
sVd1atoh0
p1960
I1
sVdf395ra
p1961
I1
sVd2mz92a
p1962
I1
sVczm91h1
p1963
I4
sVdj2dyfm
p1964
I1
sVdeu8zl7
p1965
I1
sVdpr0mk0
p1966
I1
sVd1n41eh
p1967
I1
sVdeh4v94
p1968
I1
sVd5wz0fp
p1969
I1
sVd7jqwth
p1970
I7
sVdrbw0ak
p1971
I1
sVcz3x8n6
p1972
I1
sVddufr6l
p1973
I1
sVd18xiug
p1974
I5
sVdgzf5o0
p1975
I1
sVdd611ae
p1976
I1
sVdkmfy8u
p1977
I1
sVdtj4tlg
p1978
I1
sVd5hacnb
p1979
I1
sVczp427d
p1980
I3
sVdjrvytv
p1981
I5
sVdthuwfx
p1982
I2
sVdd5blwz
p1983
I2
sVdg5eper
p1984
I1
sVd1m3ftx
p1985
I1
sVda131w8
p1986
I1
sVde8l6z9
p1987
I1
sVd1wjlit
p1988
I1
sVdqsl2tn
p1989
I1
sVdmzv8rj
p1990
I3
sVder2mvh
p1991
I1
sVd0aejed
p1992
I2
sVd7k2oda
p1993
I1
sVd06dyqy
p1994
I2
sVd1ogjor
p1995
I1
sVd4xwx1f
p1996
I1
sVdir44rm
p1997
I2
sVcyufwzz
p1998
I1
sVd84bubu
p1999
I1
sVdh4fhvf
p2000
I5
sVdeul9hn
p2001
I1
sVd1lm1lv
p2002
I1
sVdjft1in
p2003
I1
sVdeutt2s
p2004
I1
sVcyy2lhn
p2005
I1
sVdcjkfzr
p2006
I2
sVdir1rq4
p2007
I1
sVcyz7bqc
p2008
I1
sVd07g19t
p2009
I3
sVd14c5wj
p2010
I1
sVdizecvd
p2011
I1
sVdpt1uhd
p2012
I1
sVdh8t1ky
p2013
I1
sVd4mymi3
p2014
I1
sVdn4hgo4
p2015
I1
sVdd76kqf
p2016
I14
sVd2amvse
p2017
I1
sVd315epn
p2018
I2
sVd296frl
p2019
I1
sVd96k475
p2020
I3
sVdinzqol
p2021
I5
sVdmqlgua
p2022
I1
sVdic162m
p2023
I1
sVd3aan9l
p2024
I1
sVdau7abs
p2025
I2
sVdf0773g
p2026
I1
sVd908tdt
p2027
I1
sVczd7m54
p2028
I1
sVdeo9yzi
p2029
I1
sVd037kyz
p2030
I1
sVd2ledje
p2031
I2
sVdghe13e
p2032
I3
sVdbev1k0
p2033
I1
sVditcj0s
p2034
I1
sVcytwvos
p2035
I1
sVcyta2e2
p2036
I1
sVd3tav43
p2037
I1
sVdjaqdqb
p2038
I1
sVdee0tep
p2039
I1
sVdhud3iv
p2040
I1
sVd9n3wgj
p2041
I1
sVdb17rm3
p2042
I1
sVdfuue4n
p2043
I1
sVdd1zcz0
p2044
I1
sVdirb197
p2045
I1
sVd7p825n
p2046
I2
sVdaa8rv1
p2047
I3
sVdtb3d7t
p2048
I1
sVditd9nx
p2049
I1
sVczrbgj4
p2050
I1
sVd0krxq4
p2051
I1
sVdizkli3
p2052
I2
sVde76swo
p2053
I1
sVdh0nojj
p2054
I1
sVdhwvl2h
p2055
I1
sVd8s3cp0
p2056
I1
sVdh20v3s
p2057
I1
sVdiqd30a
p2058
I2
sVdjwduup
p2059
I1
sVdd5iotc
p2060
I1
sVd0741q5
p2061
I1
sVd2ifrjl
p2062
I2
sVd04n32m
p2063
I1
sVczjufcj
p2064
I1
sVd8gd6h9
p2065
I3
sVdfq3qoe
p2066
I1
sVd5vpxzy
p2067
I3
sVd9z2o2c
p2068
I2
sVcyvsxid
p2069
I1
sVdi1a2x3
p2070
I1
sVds5i5xw
p2071
I1
sVdidsh6p
p2072
I1
sVde86pod
p2073
I1
sVdgd7g4v
p2074
I2
sVd5t56r0
p2075
I1
sVd1mu4wo
p2076
I1
sVdcjzk2f
p2077
I1
sVda63nad
p2078
I3
sVd49cpdh
p2079
I1
sVdabqq7a
p2080
I1
sVdkndwhr
p2081
I1
sVd2a5pht
p2082
I1
sVdarnof8
p2083
I1
sVd88qawv
p2084
I1
sVdnb1lwg
p2085
I1
sVdmir2bt
p2086
I1
sVdbeamw5
p2087
I1
sVd1o7z3l
p2088
I1
sVd6bkcxk
p2089
I1
sVd0da3z7
p2090
I1
sVd7slssd
p2091
I1
sVd30vx9n
p2092
I2
sVczf2l2r
p2093
I1
sVd1r1rve
p2094
I1
sVd01n385
p2095
I1
sVd5x1uhd
p2096
I1
sVdb3qzwp
p2097
I1
sVdiy010r
p2098
I1
sVd92e3n7
p2099
I1
sVdjznux4
p2100
I1
sVd8w0xi2
p2101
I4
sVd0zl4h5
p2102
I1
sVd04topp
p2103
I1
sVd2dfkur
p2104
I2
sVd7mh25c
p2105
I2
sVd9k4vgr
p2106
I1
sVddxil2u
p2107
I1
sVdc3igb3
p2108
I1
sVd3l3wh5
p2109
I1
sVdjrsifu
p2110
I1
sVdn39zok
p2111
I1
sVd1n4jpc
p2112
I1
sVd4o90mi
p2113
I3
sVdaaaywc
p2114
I1
sVdbzvv16
p2115
I1
sVczhpm19
p2116
I1
sVd0gucjw
p2117
I1
sVd42crfc
p2118
I1
sVd3kt1jl
p2119
I1
sVdaclmq2
p2120
I1
sVd29bh2i
p2121
I1
sVdeqwmg1
p2122
I1
sVdgoqxm9
p2123
I1
sVdb3thph
p2124
I2
sVdbd6wqd
p2125
I1
sVcypzi51
p2126
I1
sVddki7yk
p2127
I1
sVdgl11ol
p2128
I2
sVdfgndzb
p2129
I2
sVdfuta33
p2130
I3
sVdfm6sof
p2131
I1
sVczh4eww
p2132
I1
sVd1379xf
p2133
I3
sVd5vbuos
p2134
I1
sVd1j4sdr
p2135
I4
sVde1nf7v
p2136
I1
sVdgrbkow
p2137
I1
sVczvhuub
p2138
I1
sVd4wlro6
p2139
I1
sVd7i45ec
p2140
I1
sVdb91acd
p2141
I2
sVdcgj22n
p2142
I1
sVd4v5dey
p2143
I1
sVczv869h
p2144
I1
sVdgb419q
p2145
I1
sVdgjtsgz
p2146
I1
sVd423emh
p2147
I1
sVdbn05yv
p2148
I1
sVd7s1xaf
p2149
I1
sVd2m65gi
p2150
I9
sVdhjdfhg
p2151
I3
sVdcjt15s
p2152
I6
sVdberu8w
p2153
I1
sVd1qgybi
p2154
I2
sVczbk6po
p2155
I1
sVdj2251k
p2156
I1
sVdfq42nn
p2157
I1
sVd1gogfv
p2158
I1
sVdam1f6n
p2159
I2
sVdqut5jr
p2160
I1
sVd40zpxc
p2161
I2
sVdk0y1dl
p2162
I2
sVd0mupuy
p2163
I1
sVd0wqnvk
p2164
I1
sVd4hrqyg
p2165
I1
sVdaqpp2b
p2166
I1
sVd5epmge
p2167
I1
sVdek1iy7
p2168
I1
sVddsxtqv
p2169
I2
sVdpyp9eb
p2170
I1
sVczms1kp
p2171
I1
sVd9qx4l5
p2172
I2
sVdq6cpo7
p2173
I1
sVdd444t6
p2174
I1
sVdhd5na1
p2175
I2
sVd6bsfs0
p2176
I1
sVdcqyq1e
p2177
I1
sVdjozkwb
p2178
I2
sVdj2yvjp
p2179
I1
sVd9pwj4n
p2180
I1
sVd2fls5i
p2181
I1
sVdecerhd
p2182
I2
sVd0ady4h
p2183
I1
sVddqs69r
p2184
I1
sVd4ausbn
p2185
I1
sVdazkure
p2186
I1
sVd30qp1f
p2187
I1
sVd1ybfja
p2188
I1
sVd0777j8
p2189
I9
sVdglixzb
p2190
I1
sVd6b2ot8
p2191
I1
sVdfsfaz4
p2192
I1
sVd31iim9
p2193
I1
sVd2rarqk
p2194
I1
sVdju1e46
p2195
I3
sVdemkwh3
p2196
I1
sVddfwxbf
p2197
I1
sVd3awdrs
p2198
I1
sVdbeaspt
p2199
I1
sVcyz1q0e
p2200
I1
sVd2b06t0
p2201
I1
sVd0zowd3
p2202
I2
sVd5ti0xb
p2203
I1
sVdksydqc
p2204
I1
sVd1441e4
p2205
I1
sVdh3239n
p2206
I1
sVdsgqigw
p2207
I1
sVd0d4pbf
p2208
I1
sVcywtvoq
p2209
I1
sVd8k3xpz
p2210
I1
sVd0jj0ea
p2211
I1
sVddwi07e
p2212
I1
sVdns5462
p2213
I1
sVdfkkmlh
p2214
I4
sVdizn33c
p2215
I1
sVd06h1ar
p2216
I4
sVd57jn3a
p2217
I1
sVdjtqo3i
p2218
I2
sVdn96zp7
p2219
I1
sVdarxrwy
p2220
I1
sVdb5kbm9
p2221
I2
sVd1ryfv3
p2222
I1
sVdd13nty
p2223
I5
sVd474ino
p2224
I1
sVdbb1arr
p2225
I1
sVdhkt4nb
p2226
I1
sVd0ytjdv
p2227
I1
sVdhv64r9
p2228
I1
sVdn0224o
p2229
I1
sVdmwe2is
p2230
I2
sVdehe9j6
p2231
I2
sVdmp97u5
p2232
I4
sVdn7ixv1
p2233
I1
sVdkpznmq
p2234
I1
sVdcbal5p
p2235
I1
sVd4l9n6y
p2236
I1
sVdgbja44
p2237
I1
sVd1p7phb
p2238
I2
sVdgy2yjt
p2239
I1
sVdisipd4
p2240
I1
sVd7d5nez
p2241
I1
sVderj582
p2242
I1
sVdhjf7tt
p2243
I3
sVddwgzdu
p2244
I1
sVd20am0e
p2245
I1
sVd679p8a
p2246
I3
sVdknbel5
p2247
I1
sVdcqzesa
p2248
I1
sVd9khm0n
p2249
I1
sVdj2s6zc
p2250
I1
sVd6ecryn
p2251
I1
sVdcw8t33
p2252
I1
sVdgf01te
p2253
I2
sVczzmkex
p2254
I3
sVdd74dow
p2255
I1
sVdcjit2m
p2256
I1
sVdiwfesw
p2257
I3
sVd195qd8
p2258
I2
sVd1o7ukv
p2259
I1
sVd4lteov
p2260
I2
sVdflha69
p2261
I1
sVdcdlxle
p2262
I1
sVd14aupt
p2263
I1
sVd6rek1t
p2264
I1
sVd36idio
p2265
I1
sVdjn7n6l
p2266
I1
sVdj5cvx0
p2267
I1
sVdfk0dd3
p2268
I2
sVdcukw6h
p2269
I1
sVdopcp11
p2270
I1
sVdinokpa
p2271
I1
sVd72pxtu
p2272
I1
sVd2bwe17
p2273
I1
sVd8rp61q
p2274
I1
sVdjoho8s
p2275
I1
sVd0xb9a8
p2276
I1
sVdgf8kbu
p2277
I2
sVdb6soh7
p2278
I1
sVd4qqehp
p2279
I1
sVddr1ier
p2280
I1
sVdhh0s93
p2281
I1
sVds3ol5i
p2282
I1
sVd77ruyi
p2283
I3
sVd87jkae
p2284
I1
sVddamqtr
p2285
I1
sVd9yab1d
p2286
I2
sVdevyc86
p2287
I1
sVd79jpm3
p2288
I1
sVdaacgqs
p2289
I1
sVdcgktmw
p2290
I1
sVdam1gwi
p2291
I3
sVdet3e14
p2292
I1
sVdrxdgfp
p2293
I1
sVd8j15k6
p2294
I1
sVd9mozwj
p2295
I1
sVda9wh60
p2296
I1
sVd24rvfr
p2297
I1
sVcyhzuz7
p2298
I1
sVdceaflm
p2299
I1
sVdpf4j4t
p2300
I1
sVdaym6hh
p2301
I3
sVdbly46c
p2302
I1
sVd132bxl
p2303
I1
sVdhwkmoq
p2304
I1
sVd7gmelr
p2305
I1
sVdr3a40s
p2306
I1
sVdjznw47
p2307
I1
sVd5vrimi
p2308
I2
sVdjovla6
p2309
I1
sVdkr0r20
p2310
I1
sVdkgqhdi
p2311
I1
sVdgkpwr1
p2312
I1
sVdn8cr1r
p2313
I1
sVdn3e4pw
p2314
I2
sVdkxyk00
p2315
I3
sVd2ci3id
p2316
I1
sVdcjjfpf
p2317
I3
sVdnfhwin
p2318
I1
sVdjvnigq
p2319
I1
sVd1oqzt9
p2320
I1
sVcyteo7k
p2321
I1
sVdbrn5br
p2322
I1
sVdb23xl5
p2323
I1
sVd6h94mi
p2324
I2
sVd5ubykq
p2325
I1
sVd14534b
p2326
I1
sVdcbzi6v
p2327
I1
sVd69g9b2
p2328
I1
sVd50gjd9
p2329
I1
sVdjs3ooe
p2330
I1
sVdbbdifb
p2331
I3
sVdj7ct3w
p2332
I1
sVd8kcac3
p2333
I1
sVdguzo24
p2334
I1
sVcz37etp
p2335
I3
sVdffr7q7
p2336
I1
sVd4cleyq
p2337
I2
sVdfkhdec
p2338
I4
sVczuowze
p2339
I2
sVcyw16xu
p2340
I3
sVdfn9yg5
p2341
I1
sVd1fhlv6
p2342
I1
sVdgwhj75
p2343
I2
sVd6kzwpi
p2344
I1
sVdniysdb
p2345
I1
sVdmqbqc4
p2346
I1
sVd0imoaa
p2347
I1
sVcym0yx2
p2348
I1
sVdcjzqsv
p2349
I1
sVd5kkpm8
p2350
I1
sVdg21t8v
p2351
I1
sVd4fhyhs
p2352
I2
sVdft9wlt
p2353
I1
sVd5624ra
p2354
I3
sVd4mtozt
p2355
I1
sVcz4q0df
p2356
I1
sVd0db6dr
p2357
I1
sVdeadeg9
p2358
I1
sVd0yrokv
p2359
I1
sVd76k4c5
p2360
I1
sVdfwvnr6
p2361
I1
sVdhljbu3
p2362
I1
sVdqa8z9f
p2363
I4
sVczxbkp1
p2364
I6
sVdrwlpha
p2365
I1
sVdkq9xms
p2366
I3
sVdhhc923
p2367
I1
sVdkt162x
p2368
I1
sVd32kud7
p2369
I1
sVd0tgbqj
p2370
I1
sVdf7lsfa
p2371
I1
sVd83wwpy
p2372
I3
sVd4vsnts
p2373
I1
sVdio5owe
p2374
I7
sVdifdta3
p2375
I1
sVd2v779c
p2376
I1
sVdaettcv
p2377
I1
sVd2ikk1j
p2378
I1
sVdjnwuax
p2379
I1
sVd7e9lkg
p2380
I1
sVdepm49p
p2381
I1
sVczgp61q
p2382
I2
sVdhiabqs
p2383
I3
sVd56fuhz
p2384
I1
sVdcvkzws
p2385
I1
sVdfaafjh
p2386
I2
sVdbiu77a
p2387
I1
sVdepvoag
p2388
I1
sVdpow8nh
p2389
I1
sVd18yds6
p2390
I1
sVde6tyco
p2391
I1
sVd09f3yx
p2392
I2
sVd4lxj62
p2393
I1
sVczp9v8s
p2394
I1
sVddh7ypf
p2395
I1
sVd465ml2
p2396
I1
sVd3sc6g2
p2397
I3
sVd3q8upi
p2398
I2
sVd6qg45h
p2399
I1
sVd19gtqx
p2400
I1
sVddqcpdi
p2401
I1
sVd8nngnc
p2402
I1
sVdb3d964
p2403
I1
sVdd3av4v
p2404
I2
sVd2qy8v6
p2405
I2
sVdkqa302
p2406
I1
sVdbt5cdd
p2407
I1
sVd4y7fo8
p2408
I1
sVdsrihbp
p2409
I1
sVdgtis3t
p2410
I1
sVd6ag38o
p2411
I3
sVd6llmlo
p2412
I1
sVd3fa2jx
p2413
I1
sVddrvo72
p2414
I1
sVdckklbf
p2415
I1
sVdc9pwkp
p2416
I1
sVdgdl0w9
p2417
I1
sVd51aa6z
p2418
I3
sVdhxmyni
p2419
I3
sVdjvfggr
p2420
I1
sVd9efti5
p2421
I1
sVd58ga39
p2422
I1
sVdggvlxr
p2423
I1
sVds2iu3q
p2424
I1
sVdb5evvb
p2425
I1
sVdgu97nv
p2426
I1
sVd9jw96y
p2427
I1
sVdfv72ij
p2428
I1
sVcz17hqh
p2429
I1
sVdetridp
p2430
I1
sVdjtnyz4
p2431
I5
sVdj1jv9j
p2432
I2
sVd8uujli
p2433
I1
sVdcm1gc1
p2434
I1
sVdapx6ap
p2435
I2
sVdgqft9w
p2436
I2
sVdnh3d63
p2437
I1
sVd3dxwlr
p2438
I1
sVdatevy0
p2439
I1
sVdag6vji
p2440
I1
sVdeefyst
p2441
I1
sVdg427qp
p2442
I1
sVcyio0z8
p2443
I1
sVdjpux2b
p2444
I1
sVd01unhh
p2445
I1
sVd03l1j3
p2446
I1
sVdijxf03
p2447
I1
sVdpmwimt
p2448
I1
sVdbi2a08
p2449
I1
s.