(dp0
Vczidtye
p1
I1
sVda268x2
p2
I1
sVd91q08f
p3
I2
sVdhproq4
p4
I1
sVdeaeali
p5
I1
sVdbhiqsy
p6
I1
sVd8kry7z
p7
I1
sVd047fnh
p8
I1
sVdq073kd
p9
I1
sVdn2vwck
p10
I1
sVdaf6h16
p11
I1
sVdresskt
p12
I1
sVdfgw8mh
p13
I1
sVdfrssfs
p14
I1
sVd27hccf
p15
I1
sVd83g8l4
p16
I1
sVdoys1xy
p17
I1
sVdkiennb
p18
I1
sVd01wk6o
p19
I1
sVdczg6xg
p20
I1
sVdf8r6kc
p21
I1
sVd0wopkj
p22
I1
sVdaelgqy
p23
I1
sVdiiipmv
p24
I1
sVd4a3v31
p25
I1
sVd1h62sy
p26
I1
sVd9dhy0s
p27
I1
sVd125jio
p28
I1
sVd29m7rd
p29
I1
sVd82a47l
p30
I1
sVd5wpymd
p31
I1
sVd3na3be
p32
I1
sVd2xw73p
p33
I1
sVdf7x4g2
p34
I1
sVd048guh
p35
I3
sVdr4i1br
p36
I1
sVddjarlq
p37
I1
sVdc02pez
p38
I1
sVd1iswe2
p39
I1
sVd15meaz
p40
I1
sVd2ccosa
p41
I1
sVcz9135i
p42
I1
sVdbzeurj
p43
I1
sVdhpi7zb
p44
I1
sVd85okdu
p45
I1
sVdezo89r
p46
I1
sVdefl7jz
p47
I1
sVdfx1ao5
p48
I1
sVdgqny2k
p49
I2
sVd1tcmrx
p50
I1
sVdpgidfi
p51
I1
sVd4emoby
p52
I1
sVdixybqp
p53
I1
sVdmvg42o
p54
I1
sVdeo8oq4
p55
I1
sVd6e69ym
p56
I1
sVd48d2g0
p57
I1
sVcyw8sq3
p58
I1
sVd4flb6a
p59
I1
sVdbw1ro0
p60
I1
sVdh4n0ao
p61
I1
sVd8j132c
p62
I1
sVd7qzvod
p63
I1
sVdchu1xn
p64
I1
sVcyvixac
p65
I1
sVcypjsr3
p66
I2
sVd1aktr4
p67
I1
sVd2ts2vn
p68
I1
sVdqg42um
p69
I1
sVdgy6yzp
p70
I1
sVd8wiigt
p71
I1
sVdk6e2wh
p72
I1
sVdakisk4
p73
I1
sVd4fjcxm
p74
I1
sVda2mujl
p75
I1
sVd397yug
p76
I1
sVdolm374
p77
I1
sVd6v7yab
p78
I1
sVcz7klmh
p79
I1
sVd1100k3
p80
I1
sVczahzdd
p81
I1
sVds008zc
p82
I1
sVd1ur7en
p83
I1
sVdea08op
p84
I1
sVd8qdrha
p85
I1
sVd18mite
p86
I1
sVd7l4ock
p87
I1
sVdsd7zre
p88
I1
sVd24ldsj
p89
I1
sVdhfp8u1
p90
I1
sVd22wgx5
p91
I1
sVdbjzla5
p92
I1
sVdc13mtz
p93
I1
sVdetoak0
p94
I1
sVdi3pssc
p95
I1
sVd20rg72
p96
I1
sVdfe8kux
p97
I1
sVdeziq3h
p98
I1
sVdp7lhyx
p99
I1
sVd4unney
p100
I2
sVd9efnrc
p101
I1
sVdhit0f6
p102
I1
sVczg432s
p103
I1
sVdndo4p5
p104
I2
sVd9yb223
p105
I1
sVd2a44c8
p106
I1
sVdi123ea
p107
I1
sVd1p2kwl
p108
I1
sVdeeweoo
p109
I1
sVda9xria
p110
I1
sVdcbcdnj
p111
I1
sVd3nyggu
p112
I2
sVd6uaxso
p113
I1
sVd8s6fag
p114
I2
sVdrionbx
p115
I1
sVd1ip60l
p116
I1
sVd1czc9a
p117
I1
sVdc3erwp
p118
I1
sVd69l2fk
p119
I3
sVd59r7cm
p120
I1
sVd69fi8p
p121
I1
sVd1xqlu2
p122
I2
sVd2m321m
p123
I1
sVd2n7648
p124
I2
sVdjbjrbt
p125
I1
sVdhx6uqe
p126
I1
sVddbzty1
p127
I1
sVd0tskgb
p128
I1
sVdjr9q9f
p129
I1
sVdmwhidl
p130
I1
sVd8dyaa9
p131
I3
sVdqltzzt
p132
I1
sVd49b892
p133
I2
sVdfqp90i
p134
I1
sVdn9t6v1
p135
I1
sVczh4y07
p136
I1
sVczdx1k7
p137
I1
sVdhkfu2k
p138
I1
sVdeuaj0a
p139
I1
sVdcwgepm
p140
I1
sVdkrvri2
p141
I1
sVd83umsl
p142
I1
sVd6a874b
p143
I1
sVdey2iqo
p144
I1
sVdefdc9i
p145
I1
sVcykxxle
p146
I1
sVdizwyc3
p147
I1
sVdbbtd0o
p148
I1
sVdb5b38m
p149
I1
sVdp1fg3b
p150
I1
sVd58gify
p151
I1
sVd2hx2kk
p152
I1
sVd04zr6m
p153
I2
sVd7ffpcq
p154
I1
sVd41z2pg
p155
I1
sVdnx3q8i
p156
I1
sVdqlck85
p157
I1
sVcylqx9r
p158
I1
sVdayo8a7
p159
I1
sVd9d95w9
p160
I1
sVdd5f8u9
p161
I1
sVd0l8w4w
p162
I1
sVdjznux4
p163
I1
sVd70i8ad
p164
I1
sVdaf1bua
p165
I1
sVdgiitmo
p166
I2
sVda5ppa0
p167
I1
sVdiwvm84
p168
I1
sVdt59ht7
p169
I1
sVdeksvsa
p170
I1
sVdhsnkwj
p171
I1
sVdsbkzah
p172
I1
sVd6hpwfn
p173
I3
sVd8v22fw
p174
I1
sVdmi8xg3
p175
I1
sVdq3yis8
p176
I2
sVd4y7iuc
p177
I1
sVdbfvsq1
p178
I1
sVdb59akt
p179
I1
sVdowq7f3
p180
I1
sVd55se4w
p181
I1
sVdqtwtuf
p182
I1
sVd57nwes
p183
I1
sVdjdadt7
p184
I1
sVdb3ncen
p185
I1
sVdjn3dfs
p186
I1
sVda9ydcg
p187
I1
sVd1flcw3
p188
I1
sVdf3t9b5
p189
I1
sVdblghof
p190
I1
sVcznlpt9
p191
I1
sVdiv7ad4
p192
I1
sVdn4npln
p193
I1
sVd9end18
p194
I1
sVd0l6shm
p195
I1
sVdctuvhv
p196
I1
sVd9bjzvh
p197
I1
sVdfq4kzw
p198
I1
sVd01yllj
p199
I1
sVdqldarn
p200
I1
sVcynt7am
p201
I1
sVdkqu3sq
p202
I2
sVdfoxdm3
p203
I1
sVdmq4tjm
p204
I1
sVczu6fs6
p205
I1
sVd430ici
p206
I1
sVd8pyd60
p207
I1
sVdmneghx
p208
I1
sVd1z4e9h
p209
I1
sVd00tt8h
p210
I1
sVdrfzs5d
p211
I1
sVde1eas3
p212
I1
sVdhjr11g
p213
I1
sVd17iawj
p214
I1
sVd478e8f
p215
I1
sVdj071h2
p216
I1
sVcyn1la7
p217
I1
sVdavfb1q
p218
I1
sVd0ydloa
p219
I1
sVcyva5xz
p220
I1
sVdchpuyo
p221
I1
sVd6ptbpq
p222
I1
sVddfqlly
p223
I1
sVd6lukli
p224
I1
sVdf4n9vk
p225
I1
sVd9l7fae
p226
I1
sVczw75dn
p227
I1
sVcz26npf
p228
I1
sVdapfki9
p229
I1
sVd5f0762
p230
I1
sVd8kj0tv
p231
I1
sVdtjcljd
p232
I1
sVdicaywf
p233
I1
sVd5krvzo
p234
I1
sVdgnb2kn
p235
I1
sVd5n4mg0
p236
I1
sVdd52k4p
p237
I1
sVcz8lafb
p238
I1
sVczv2nsc
p239
I1
sVdcdnpm9
p240
I1
sVczfm13q
p241
I1
sVd7tmk4n
p242
I1
sVd5wkfr8
p243
I1
sVd1cy94o
p244
I1
sVd8j4xfq
p245
I1
sVdbx0wb0
p246
I1
sVd8gr9cm
p247
I1
sVdcpycii
p248
I1
sVd5n07qs
p249
I1
sVd1fo2dz
p250
I1
sVddon2sb
p251
I1
sVdblxt1f
p252
I1
sVd4rbvjb
p253
I1
sVdda3fwc
p254
I2
sVdcviv12
p255
I2
sVcyqxe83
p256
I1
sVd0mi0kg
p257
I1
sVdsp0t64
p258
I1
sVdngpol0
p259
I1
sVdfqo1cv
p260
I1
sVd0zovnn
p261
I1
sVdg56okc
p262
I1
sVd0b56st
p263
I2
sVd3ahsyq
p264
I1
sVdkubv10
p265
I1
sVdd42jz9
p266
I1
sVd2uj22k
p267
I1
sVda0of7g
p268
I1
sVddcv0hp
p269
I1
sVd00mepn
p270
I1
sVdb7i50b
p271
I1
sVd1h7q5j
p272
I1
sVdjbj7a0
p273
I1
sVdfzvo1z
p274
I1
sVd9x0i3i
p275
I1
sVdkmahf5
p276
I2
sVd66bn39
p277
I1
sVdruc7fn
p278
I1
sVczr32bm
p279
I1
sVd03uljo
p280
I1
sVdfgy712
p281
I1
sVdhkyvp1
p282
I1
sVdn40y6d
p283
I1
sVdnmkodi
p284
I1
sVdorox9h
p285
I1
sVd5601lt
p286
I1
sVd1bp62x
p287
I1
sVd0lb60c
p288
I1
sVdhwvott
p289
I1
sVd24rvfr
p290
I1
sVdfnhj1a
p291
I1
sVdq8bjzm
p292
I1
sVdagcopk
p293
I1
sVdjhei1w
p294
I1
sVddjaz51
p295
I1
sVczg9fy4
p296
I1
sVda0wuyb
p297
I1
sVdbwnaaa
p298
I1
sVd7jbocz
p299
I1
sVd8bjnq9
p300
I1
sVd22b37g
p301
I1
sVdf1vo7h
p302
I1
sVdj6imfm
p303
I1
sVdi4fzt2
p304
I1
sVdepr090
p305
I1
sVdbrnxu0
p306
I1
sVd8olpkm
p307
I1
sVd8c66ft
p308
I1
sVdby5mtw
p309
I1
sVdbbot74
p310
I1
sVdhr37ah
p311
I1
sVd40r5e8
p312
I1
sVddnj5nq
p313
I1
sVdf37a6z
p314
I1
sVd2apq6i
p315
I2
sVczthmx7
p316
I1
sVd97t6s1
p317
I1
sVdkqq924
p318
I1
sVd266hfz
p319
I2
sVd0g5ync
p320
I2
sVdehr923
p321
I1
sVd0mjtod
p322
I1
sVdfrr59r
p323
I1
sVd2hz4pa
p324
I1
sVd7s43zp
p325
I1
sVcyvt7ni
p326
I1
sVdflst82
p327
I1
sVdcu9a4q
p328
I1
sVdiskm7a
p329
I1
sVdaaom0d
p330
I1
sVddbxix0
p331
I2
sVczmhxkm
p332
I1
sVdqo6al0
p333
I1
sVddicng7
p334
I1
sVd4gabzv
p335
I1
sVdgk4k8y
p336
I2
sVd25n813
p337
I1
sVd082k7z
p338
I1
sVda6v4fx
p339
I1
sVdh0wc7i
p340
I1
sVdq1196u
p341
I2
sVdkgbkpz
p342
I1
sVdmhxnpy
p343
I1
sVdft1tv6
p344
I1
sVd014dgc
p345
I1
sVd9vpmln
p346
I1
sVd6d7ew3
p347
I1
sVdndecjn
p348
I1
sVday9wxw
p349
I1
sVd7y42u9
p350
I1
sVdqowqe9
p351
I1
sVdovncfa
p352
I1
sVd1af7sa
p353
I1
sVd010iy9
p354
I1
sVd1dgeo9
p355
I1
sVd0h6ng1
p356
I1
sVcz57jce
p357
I1
sVdgyoidj
p358
I2
sVcyi1chj
p359
I1
sVd2e2dck
p360
I1
sVd2sm32b
p361
I1
sVczgtny0
p362
I1
sVdc91n8b
p363
I1
sVdmq9lph
p364
I1
sVdg6xue7
p365
I1
sVdcwaz0b
p366
I1
sVdo9os7t
p367
I1
sVdcbv4li
p368
I1
sVdfajiig
p369
I1
sVcyw5sf4
p370
I1
sVde1z7zn
p371
I1
sVdgpzlf8
p372
I1
sVdjfdk9l
p373
I1
sVd0t24ua
p374
I1
sVdcap8lk
p375
I1
sVdgi1zut
p376
I1
sVdppp7xa
p377
I1
sVd9i3dpn
p378
I1
sVd6a2x7v
p379
I1
sVddut6rf
p380
I1
sVd9vouqz
p381
I1
sVczv2kxm
p382
I1
sVdeq2zqm
p383
I1
sVde9coyt
p384
I1
sVdtctz88
p385
I1
sVd84uuxr
p386
I1
sVd88z5oy
p387
I2
sVd6b1raq
p388
I1
sVczknwqe
p389
I1
sVdiyivso
p390
I1
sVd0jgpzh
p391
I1
sVdihocoq
p392
I1
sVddhmdmi
p393
I1
sVd53irs2
p394
I1
sVd69r1d9
p395
I2
sVdsjx83e
p396
I1
sVdbk8xxw
p397
I1
sVd5xvvcj
p398
I1
sVdafy00d
p399
I1
sVdcdueu1
p400
I1
sVdt0gqt6
p401
I1
sVdgl8nis
p402
I1
sVdai1bvc
p403
I1
sVdisjgmc
p404
I1
sVdi8hq9q
p405
I1
sVczwfd3s
p406
I1
sVd3h20zj
p407
I1
sVdnwye94
p408
I1
sVdefc761
p409
I1
sVde6mhmp
p410
I1
sVdhrvbqq
p411
I1
sVcyxy9aw
p412
I1
sVczs6tki
p413
I1
sVd0g98tt
p414
I1
sVd5n93mw
p415
I1
sVdhotywj
p416
I1
sVd5y5nim
p417
I1
sVd5vmrh6
p418
I1
sVd4y5gw9
p419
I1
sVd6d74ys
p420
I1
sVddd4c1c
p421
I1
sVdswuehy
p422
I1
sVd6co03h
p423
I3
sVdespg8y
p424
I1
sVdq16gjq
p425
I1
sVdb6ytjf
p426
I1
sVds0qv6f
p427
I1
sVdi4s76j
p428
I1
sVdffv1eo
p429
I1
sVdmmsh19
p430
I1
sVdsx17o7
p431
I1
sVdbqcgi8
p432
I1
sVd0bf9gq
p433
I1
sVdov0hv7
p434
I1
sVd6hk2sm
p435
I1
sVd1dcser
p436
I1
sVdivppxd
p437
I1
sVdppd1mv
p438
I1
sVdaxhv94
p439
I1
sVd60618d
p440
I1
sVd4sm1ck
p441
I1
sVczomelq
p442
I1
sVd5i49yw
p443
I1
sVd5a940n
p444
I1
sVda3jy6k
p445
I1
sVd2xxkiq
p446
I1
sVcyxif5c
p447
I1
sVdgjcfpk
p448
I1
sVd7019pr
p449
I1
sVdhsx3vi
p450
I1
sVd1hhol9
p451
I1
sVd88pztm
p452
I1
sVczhjr18
p453
I1
sVd2vej0t
p454
I1
sVd60xa75
p455
I1
sVd1q6ism
p456
I1
sVd95qjaz
p457
I1
sVcz6ant2
p458
I1
sVddxjpqz
p459
I1
sVd0iomcx
p460
I1
sVdda3kgh
p461
I2
sVdalgh6a
p462
I1
sVdbo6g21
p463
I1
sVd2jtu9g
p464
I1
sVdh2q0k3
p465
I2
sVddjmhse
p466
I1
sVd2rd2q0
p467
I1
sVdb2a108
p468
I1
sVd6sk1z3
p469
I1
sVd31akp7
p470
I1
sVd19su9k
p471
I1
sVd1ed4jk
p472
I1
sVdk54glz
p473
I1
sVdpy6kg7
p474
I1
sVd4gzg97
p475
I1
sVd1ttyzo
p476
I1
sVdmntp6t
p477
I1
sVdafcn9g
p478
I1
sVd32jkqd
p479
I1
sVd2i4rpi
p480
I1
sVdhrb0re
p481
I1
sVdkkxcte
p482
I1
sVdjuuswy
p483
I1
sVd5p2zmc
p484
I1
sVdmutt49
p485
I1
sVdhtm83x
p486
I1
sVdmx5r1s
p487
I2
sVd0fw877
p488
I2
sVd2a7vgl
p489
I1
sVd3tch2z
p490
I1
sVcyksgks
p491
I1
sVda5vv3g
p492
I1
sVdiso1l6
p493
I1
sVd96wvnx
p494
I1
sVdefd9ep
p495
I1
sVd2h68fl
p496
I1
sVcz3feeb
p497
I1
sVdpmkmvp
p498
I1
sVd1rodln
p499
I1
sVd6fd4da
p500
I1
sVd2hvbr6
p501
I1
sVdb78eef
p502
I1
sVdspxvcd
p503
I1
sVd22a038
p504
I1
sVddo8eq1
p505
I1
sVdpr3o5b
p506
I1
sVdj5nd75
p507
I1
sVd2ncv3i
p508
I1
sVd5cvi13
p509
I1
sVdpgb36u
p510
I1
sVcynj35x
p511
I1
sVd8h4cjf
p512
I1
sVd0snkxw
p513
I1
sVd0r1lkp
p514
I1
sVd3n2i9z
p515
I1
sVd382696
p516
I1
sVd8sidsg
p517
I1
sVd0og6g7
p518
I2
sVdblhh2o
p519
I1
sVd00u82m
p520
I1
sVddx5tuq
p521
I1
sVdoawg8v
p522
I1
sVd8gsm3k
p523
I1
sVd0tr5oi
p524
I1
sVd5d97y1
p525
I1
sVdb8q02r
p526
I2
sVdsju9tn
p527
I2
sVdawj1ym
p528
I1
sVd38grfh
p529
I2
sVcyxfj0o
p530
I1
sVd41hgx8
p531
I1
sVdhy8y0r
p532
I1
sVd2go52c
p533
I1
sVdedn6nb
p534
I2
sVcyp3p9l
p535
I1
sVdc8xpev
p536
I1
sVdh66lo8
p537
I1
sVd1jm4v8
p538
I1
sVd83p1v3
p539
I1
sVdq3929a
p540
I1
sVd5bc1ca
p541
I1
sVdnzikd6
p542
I2
sVdbpltgw
p543
I1
sVd05i89k
p544
I1
sVdbjxbze
p545
I1
sVd9qor9b
p546
I1
sVdb9ium2
p547
I1
sVd89ect8
p548
I1
sVd24vjl2
p549
I1
sVdfc0dwu
p550
I1
sVd90rpdq
p551
I1
sVd35f6y6
p552
I1
sVdjkoixg
p553
I1
sVdfiomvm
p554
I1
sVcztdkfm
p555
I1
sVd9ce5z4
p556
I1
sVd52p5fe
p557
I1
sVdi6lv37
p558
I1
sVdf63yby
p559
I1
sVdqp55v0
p560
I1
sVczhip61
p561
I1
sVde418j4
p562
I1
sVd1sn2d2
p563
I1
sVcymow94
p564
I1
sVddkk1ub
p565
I1
sVdeyvxhq
p566
I1
sVdj5aihe
p567
I1
sVd47v3w1
p568
I1
sVd4qqqj6
p569
I1
sVdeavn38
p570
I1
sVd1dts34
p571
I1
sVdcsg3fy
p572
I1
sVd9p163y
p573
I1
sVdt9k202
p574
I1
sVdpqug60
p575
I1
sVd0kblp5
p576
I1
sVdcg5wrk
p577
I1
sVdgw8d10
p578
I1
sVdif6kk5
p579
I1
sVd0lalsd
p580
I1
sVczyvzxq
p581
I1
sVd75jnj5
p582
I1
sVd0tdv5j
p583
I1
sVdjr9u2h
p584
I2
sVd562vqr
p585
I1
sVdqj5lvc
p586
I1
sVdksxxcr
p587
I1
sVdrylhyt
p588
I1
sVcyljfpd
p589
I1
sVddsjniz
p590
I1
sVdg6ezpi
p591
I1
sVd6ulbh7
p592
I1
sVd8pxgqf
p593
I1
sVdppe1es
p594
I1
sVd3minu5
p595
I1
sVdc35b4q
p596
I1
sVd9e5zag
p597
I1
sVd55c15r
p598
I1
sVczh65we
p599
I1
sVd0mcb9l
p600
I1
sVdfbecwi
p601
I1
sVczh2hvb
p602
I1
sVdgguee3
p603
I1
sVd1fv3vj
p604
I1
sVdkr23a0
p605
I1
sVde1a30f
p606
I1
sVd63qyyv
p607
I1
sVd7ynlvo
p608
I1
sVcyuschc
p609
I1
sVdjeqq0p
p610
I1
sVd6m2w4n
p611
I1
sVd2f6w7o
p612
I1
sVdi6uzmi
p613
I1
sVd3j6pqw
p614
I1
sVd2qtn4b
p615
I1
sVd5prcu7
p616
I1
sVdnsh4z3
p617
I1
sVdnvfcy0
p618
I1
sVcz2p4ze
p619
I1
sVd80sff7
p620
I1
sVdmm59vw
p621
I2
sVd5no80j
p622
I1
sVd15uw2g
p623
I1
sVd1ec08s
p624
I1
sVdkqpqql
p625
I2
sVd0kzuvw
p626
I1
sVd94613y
p627
I2
sVcyy3sc5
p628
I1
sVd250wlv
p629
I1
sVdppdb74
p630
I1
sVd8459sg
p631
I1
sVd0wgua3
p632
I1
sVdha09zm
p633
I1
sVdaaatfg
p634
I1
sVdtexz6c
p635
I2
sVd1j7qnd
p636
I2
sVdtie98z
p637
I1
sVdeoccbv
p638
I1
sVd4zipbj
p639
I1
sVd3ao2o3
p640
I1
sVd60m112
p641
I1
sVd8hzveh
p642
I1
sVd31i84a
p643
I1
sVd3qf700
p644
I2
sVdpf709x
p645
I1
sVdreboug
p646
I1
sVdk180hd
p647
I1
sVd3z7wr7
p648
I1
sVdhaxa64
p649
I1
sVdnqqeml
p650
I1
sVd0dxyg1
p651
I2
sVdf1ybd9
p652
I3
sVczvakkp
p653
I1
sVdnz62hl
p654
I1
sVczf0fel
p655
I1
sVd5lfaov
p656
I1
sVdnixbla
p657
I1
sVd0u8zav
p658
I1
sVczgk7vp
p659
I2
sVdb0b655
p660
I1
sVd6znzg0
p661
I1
sVdd8dvf5
p662
I1
sVde537d8
p663
I1
sVd5uza9x
p664
I1
sVdfty91k
p665
I1
sVdnberrd
p666
I1
sVd0n9q21
p667
I1
sVd3q5u4k
p668
I1
sVd9kdsd0
p669
I1
sVd7i99hh
p670
I1
sVdgasymv
p671
I1
sVd17tzxc
p672
I1
sVd9h0v78
p673
I2
sVdqco23t
p674
I1
sVdhxoxjw
p675
I1
sVdc72pxj
p676
I1
sVd13zggk
p677
I1
sVd3z84ay
p678
I1
sVd3n4xkr
p679
I1
sVdp0wkl8
p680
I1
sVdidtevs
p681
I1
sVdecmwwd
p682
I1
sVdczi8ni
p683
I1
sVdic5van
p684
I1
sVd2rcy6k
p685
I1
sVd1q5xo5
p686
I1
sVd19hr01
p687
I1
sVdj4zlae
p688
I1
sVd3e57qb
p689
I1
sVdiyopcb
p690
I1
sVdj6xj5z
p691
I1
sVd8xwmhm
p692
I1
sVdrg6ahr
p693
I1
sVdoj5kap
p694
I1
sVczgpnnx
p695
I1
sVcyyiruk
p696
I1
sVddc817t
p697
I1
sVdb5xmm3
p698
I1
sVd0la04n
p699
I1
sVd2dtsm5
p700
I1
sVcyo9inf
p701
I1
sVd2aia4m
p702
I3
sVdeuwc7k
p703
I1
sVdnwmiih
p704
I1
sVd4dpcxj
p705
I1
sVd60i1l3
p706
I1
sVdjhqjm2
p707
I2
sVdtaou6n
p708
I1
sVdaayind
p709
I1
sVd61s63z
p710
I1
sVd8iowe4
p711
I1
sVd9bfxgc
p712
I1
sVdb1g08u
p713
I1
sVd89wb5g
p714
I1
sVdeq9jdp
p715
I1
sVdjwqc4q
p716
I1
sVdax7ntg
p717
I1
sVd4nxxjb
p718
I1
sVdonyd44
p719
I1
sVd0l25uc
p720
I1
sVdkm8djy
p721
I1
sVdb2dovc
p722
I1
sVd1hbq8d
p723
I1
sVd6bop9w
p724
I1
sVdc25nyk
p725
I1
sVd8ce9os
p726
I1
sVdnj4so7
p727
I1
sVd8f49qj
p728
I1
sVdn4dw27
p729
I1
sVcys8rtz
p730
I1
sVdfb5y0a
p731
I1
sVdja5612
p732
I1
sVdbibi3g
p733
I1
sVdsrrgp1
p734
I1
sVdnv55oh
p735
I1
sVdjftvy3
p736
I1
sVd2n5xih
p737
I2
sVdghtbw8
p738
I1
sVd90v8oo
p739
I1
sVd5iv8bp
p740
I1
sVdad0h8t
p741
I1
sVd0qhntl
p742
I1
sVd5asq71
p743
I1
sVdbocitr
p744
I2
sVd1kojra
p745
I1
sVd2gk8va
p746
I1
sVd4cesnl
p747
I1
sVddc1sr5
p748
I2
sVdkk40ds
p749
I1
sVd0bvm0y
p750
I1
sVd2snpwp
p751
I1
sVdehmac2
p752
I1
sVd6511jg
p753
I1
sVdibns0s
p754
I1
sVd8bdmg2
p755
I1
sVda4mh73
p756
I1
sVdjvdsby
p757
I1
sVdfj8fyk
p758
I1
sVd2k84d3
p759
I1
sVd98zm8o
p760
I1
sVdcpi5js
p761
I1
sVczzybgv
p762
I1
sVdjfjsu0
p763
I1
sVczc6cw7
p764
I1
sVdfg2upv
p765
I1
sVdjhnr9z
p766
I1
sVdj2gb21
p767
I1
sVd8hfkia
p768
I1
sVdi7nqtk
p769
I1
sVd5oa1wd
p770
I1
sVd3i1uk2
p771
I1
sVdeaoqj7
p772
I1
sVczbmngt
p773
I1
sVdd1teb9
p774
I1
sVd4mazeo
p775
I1
sVd0vav22
p776
I1
sVd13jrcd
p777
I1
sVdgs67bg
p778
I1
sVd89a8gk
p779
I1
sVcyzaii9
p780
I1
sVdnxmqdl
p781
I1
sVdbkyj6m
p782
I1
sVddkcioh
p783
I1
sVdpwk8pu
p784
I1
sVd9e2n6e
p785
I1
sVd8voco1
p786
I1
sVcykneny
p787
I1
sVdr53ssi
p788
I1
sVcyz24xg
p789
I1
sVd3hie2k
p790
I1
sVd4km8d1
p791
I1
sVd0hke50
p792
I1
sVdk9ye13
p793
I1
sVcz0nnaw
p794
I1
sVd2gmjru
p795
I1
sVd46on3l
p796
I1
sVdcdjlwo
p797
I1
sVdn2c28r
p798
I1
sVd613wy3
p799
I1
sVdo598ei
p800
I1
sVdjegshn
p801
I1
sVdb6ao2l
p802
I1
sVdqx6oxo
p803
I1
sVd8ymr1o
p804
I1
sVd7945xu
p805
I1
sVd5f2t71
p806
I1
sVdsiv585
p807
I1
sVdcdyq0d
p808
I1
sVcyuufmg
p809
I1
sVcynvdt9
p810
I1
sVdblg4gg
p811
I1
sVdelk5uj
p812
I1
sVdjk5ozp
p813
I1
sVdjc3vxr
p814
I1
sVdfm792g
p815
I1
sVdbe185w
p816
I1
sVdbv03h1
p817
I1
sVdoztvhh
p818
I1
sVdnepw44
p819
I1
sVdaphllt
p820
I1
sVdc102ll
p821
I1
sVdcy7f2x
p822
I1
sVd14ohk7
p823
I1
sVd933ttp
p824
I1
sVd6zk6h0
p825
I1
sVdpw7h2m
p826
I2
sVcz4feas
p827
I1
sVd2nccs2
p828
I1
sVdb6av6p
p829
I2
sVdkmupx4
p830
I1
sVdeljviz
p831
I1
sVd9l1xyh
p832
I1
sVd7wwtic
p833
I1
sVcz6evai
p834
I1
sVdo2qgc7
p835
I1
sVdaow46e
p836
I1
sVdgk7pcy
p837
I1
sVcyt4epy
p838
I1
sVd7qveho
p839
I1
sVdig7sav
p840
I1
sVdq6eah7
p841
I1
sVcz09ifc
p842
I1
sVd9nt53l
p843
I1
sVdd3fitr
p844
I1
sVdgh5umo
p845
I1
sVdbfnszi
p846
I1
sVdjme5gh
p847
I1
sVdhk359x
p848
I1
sVdt57mjd
p849
I1
sVd1ig5ot
p850
I1
sVdgm3bqe
p851
I1
sVd7x2hix
p852
I1
sVdh9g4xv
p853
I1
sVdis54yi
p854
I1
sVdnnqxok
p855
I1
sVd3zp1wk
p856
I1
sVdms4m88
p857
I2
sVdmzbr4p
p858
I1
sVcz815r7
p859
I1
sVdhct8cn
p860
I1
sVds8r5dk
p861
I1
sVdex643b
p862
I1
sVdsve2qt
p863
I1
sVdchkfna
p864
I1
sVd3tgn5a
p865
I1
sVdcmhucs
p866
I1
sVd0opa8f
p867
I1
sVd66nhdf
p868
I1
sVd7v45s4
p869
I1
sVd51l9hx
p870
I1
sVdgn13xn
p871
I1
sVd0n80oc
p872
I1
sVd7jwc4j
p873
I1
sVd468tws
p874
I1
sVdski9tw
p875
I1
sVdngpqb3
p876
I1
sVdhq1ofi
p877
I1
sVdduqyc3
p878
I1
sVd17rd2n
p879
I1
sVdd5qjk9
p880
I1
sVd3p22sr
p881
I1
sVdo4qvm4
p882
I1
sVd316r0f
p883
I1
sVcz0e6ap
p884
I1
sVd6hzq4j
p885
I1
sVdbycdjz
p886
I1
sVd92rvft
p887
I2
sVd98lexa
p888
I1
sVd7yfi94
p889
I1
sVdtbozsj
p890
I1
sVd4zcv6y
p891
I1
sVd17gfiv
p892
I1
sVd19ox7s
p893
I1
sVdsvjbha
p894
I1
sVde1epch
p895
I1
sVd5yvw1k
p896
I1
sVd7l08hx
p897
I1
sVdbb9313
p898
I1
sVd5v3vk2
p899
I1
sVdh72paf
p900
I1
sVd3c5b6h
p901
I1
sVd79i2vg
p902
I1
sVd47nha4
p903
I1
sVd8ikubo
p904
I1
sVd3qyt5v
p905
I1
sVdmfteeo
p906
I1
sVdhymqx9
p907
I1
sVdjzh3nh
p908
I1
sVdgm9b7d
p909
I1
sVcz77njc
p910
I1
sVd5a0jsv
p911
I1
sVd6w815i
p912
I1
sVdfstc0w
p913
I1
sVd98ioy8
p914
I1
sVdgjhy6h
p915
I1
sVd3nnc6k
p916
I1
sVdgn3v88
p917
I1
sVd7w98hh
p918
I1
sVd2i8xo6
p919
I1
sVd6dcn3j
p920
I1
sVcyjhs5k
p921
I1
sVd1g0lws
p922
I1
sVd19nsj3
p923
I1
sVdbhkaaa
p924
I1
sVdb5azjd
p925
I1
sVdehuvyo
p926
I1
sVd5m01os
p927
I1
sVd2hbg2e
p928
I1
sVdqn21vr
p929
I1
sVdf8r2zs
p930
I1
sVdg9avnm
p931
I1
sVd6nbav4
p932
I1
sVdb5gvmi
p933
I1
sVdadtgeq
p934
I1
sVdopcxt4
p935
I1
sVdj40jqy
p936
I1
sVdjvxf41
p937
I1
sVdk9xjrd
p938
I1
sVde80jvc
p939
I1
sVdi8i4n6
p940
I1
sVd7dwq27
p941
I1
sVdn4ajfy
p942
I1
sVdbpx2ml
p943
I1
sVd8kr1e1
p944
I1
sVdbxrdbw
p945
I1
sVdf37r6t
p946
I1
sVdf0bep6
p947
I1
sVd8e0kfz
p948
I1
sVdt2s6qw
p949
I1
sVd77tmnv
p950
I1
sVd1c0dwz
p951
I1
sVdgtscko
p952
I1
sVdo2oq76
p953
I1
sVczizl1h
p954
I1
sVd4bzvpe
p955
I1
sVd9hjcta
p956
I1
sVdhj2qga
p957
I1
sVd16jumm
p958
I1
sVdqkq44i
p959
I1
sVdfvfaql
p960
I1
sVdinpki6
p961
I1
sVd3un8l1
p962
I1
sVdnffi49
p963
I1
sVdtat37l
p964
I1
sVdcxrtkz
p965
I1
sVd20jpho
p966
I1
sVd1h2dlo
p967
I1
sVd7mfr96
p968
I1
sVdbnaw3y
p969
I1
sVdrjvz3f
p970
I1
sVdpl0kt4
p971
I1
sVdjd3ggg
p972
I1
sVdjyrfec
p973
I1
sVdit7r6t
p974
I1
sVdhxvv79
p975
I1
sVddi01ze
p976
I1
sVczzn7tj
p977
I1
sVdgm0p2x
p978
I1
sVdf2orzn
p979
I2
sVd69nkyp
p980
I1
sVdndxtqr
p981
I1
sVdnt0q6p
p982
I1
sVd2kj61x
p983
I1
sVd2fu8ae
p984
I1
sVddtzf6w
p985
I1
sVd938k23
p986
I1
sVd8vzt04
p987
I3
sVd62pzfk
p988
I1
sVdiciz14
p989
I1
sVczx09be
p990
I1
sVdo8hj5z
p991
I1
sVdbfpxaj
p992
I1
sVdnh2woo
p993
I1
sVdaq4ru7
p994
I2
sVdfhmwh4
p995
I1
sVdjnm8f9
p996
I1
sVd8usbom
p997
I1
sVd1geh5y
p998
I1
sVdj6b221
p999
I1
sVdp8llfk
p1000
I1
sVdr3kgn6
p1001
I1
sVdiuqyjf
p1002
I1
sVdabixmj
p1003
I1
sVdikoq5e
p1004
I1
sVdhoii2k
p1005
I2
sVd13ixa3
p1006
I1
sVda5x469
p1007
I1
sVd03crgf
p1008
I1
sVdkb3zh1
p1009
I1
sVdrgi44i
p1010
I1
sVd6iog74
p1011
I1
sVdkdivoi
p1012
I1
sVd72kpao
p1013
I1
sVdn1gkt6
p1014
I2
sVdj7t7ol
p1015
I1
sVd86z3nr
p1016
I1
sVdp36g4n
p1017
I1
sVczyqtt1
p1018
I1
sVcz6mymm
p1019
I1
sVczrltbl
p1020
I1
sVdbwbzjb
p1021
I1
sVdg8vgmn
p1022
I1
sVda4jtvq
p1023
I1
sVd8ln52r
p1024
I1
sVd4twofd
p1025
I1
sVdie03yr
p1026
I1
sVd6ro77d
p1027
I2
sVd72he00
p1028
I1
sVdjho021
p1029
I1
sVd3tfrlp
p1030
I1
sVczqq1bv
p1031
I1
sVd9cxvg6
p1032
I1
sVcyjso6h
p1033
I1
sVdfis0qk
p1034
I2
sVdbvon90
p1035
I1
sVd3138f2
p1036
I1
sVd316jwr
p1037
I1
sVdnejl5e
p1038
I1
sVd7eu7s3
p1039
I1
sVdfa402l
p1040
I2
sVdsd0m0u
p1041
I1
sVd54pm4l
p1042
I1
sVdrr7j0g
p1043
I1
sVczo8kl9
p1044
I1
sVd4v6xso
p1045
I1
sVdamampc
p1046
I1
sVczc2hap
p1047
I1
sVd6p94un
p1048
I1
sVd0d7sam
p1049
I1
sVdsr19k2
p1050
I1
sVd1a2h64
p1051
I1
sVdakq0ec
p1052
I1
sVd91f4s3
p1053
I1
sVdi7bmq9
p1054
I1
sVd0p23o6
p1055
I1
sVd38ytnu
p1056
I1
sVdou0ibx
p1057
I1
sVd1mahls
p1058
I1
sVdh6lhov
p1059
I1
sVdf32bk3
p1060
I1
sVd3nng7v
p1061
I1
sVd9p92hd
p1062
I1
sVdkobj0n
p1063
I1
sVdfm9mqm
p1064
I1
sVddnyn97
p1065
I1
sVd9nbfbm
p1066
I1
sVdbp90m3
p1067
I1
sVd508v8v
p1068
I1
sVd4mgddc
p1069
I1
sVd9kt4bm
p1070
I1
sVdmhh6aw
p1071
I1
sVdhuggs5
p1072
I1
sVdappq9t
p1073
I1
sVd5b68p2
p1074
I1
sVdfwashi
p1075
I1
sVd9grq05
p1076
I1
sVdcmkziy
p1077
I1
sVddrrimb
p1078
I2
sVd28xpf3
p1079
I1
sVdt30bnj
p1080
I1
sVczo5ivq
p1081
I1
sVdf1uu6n
p1082
I1
sVdggu6jb
p1083
I1
sVd8t1owi
p1084
I1
sVdt3kljc
p1085
I1
sVcym0066
p1086
I1
sVd1dhdc2
p1087
I1
sVdce495h
p1088
I1
sVdirdlge
p1089
I1
sVddb7jxz
p1090
I1
sVdqni102
p1091
I1
sVdhnhwi4
p1092
I1
sVdbhajnt
p1093
I1
sVd9wudbg
p1094
I1
sVd65tmrx
p1095
I1
sVd0x4egh
p1096
I1
sVd02pnuk
p1097
I1
sVdiurgg3
p1098
I1
sVdhrklwv
p1099
I1
sVdewrbhk
p1100
I2
sVd1of7kk
p1101
I1
sVdeu336f
p1102
I1
sVcz6344b
p1103
I1
sVd10pjt3
p1104
I1
sVdbck0h9
p1105
I1
sVd16dn4o
p1106
I1
sVd2v6xeb
p1107
I1
sVdhopnq1
p1108
I1
sVdkr0ksw
p1109
I1
sVd60cq48
p1110
I1
sVd59xdse
p1111
I1
sVd3soynz
p1112
I1
sVdnmajq0
p1113
I2
sVd68otis
p1114
I1
sVdjj76fa
p1115
I1
sVd8kbbdy
p1116
I1
sVdr1440t
p1117
I1
sVd9c8ret
p1118
I1
sVdi4fv5k
p1119
I1
sVdeziw15
p1120
I1
sVdnnpkmr
p1121
I2
sVdf5cdm8
p1122
I2
sVd3qmqx3
p1123
I1
sVdnn8amf
p1124
I1
sVd3vwqtm
p1125
I1
sVdhk8zd6
p1126
I2
sVdipmix3
p1127
I1
sVcz4wa1q
p1128
I1
sVdkqx7w7
p1129
I1
sVdh3bdi5
p1130
I1
sVdn5fu1u
p1131
I1
sVdbyka7i
p1132
I1
sVdr640o1
p1133
I1
sVdtaqgvn
p1134
I1
sVd65in28
p1135
I1
sVdeghoar
p1136
I1
sVdfjqlix
p1137
I1
sVdnnpj4i
p1138
I1
sVda7fwoo
p1139
I1
sVd49rtok
p1140
I1
sVdjj5e58
p1141
I1
sVd9ed16r
p1142
I1
sVd21wvic
p1143
I1
sVd1k35dk
p1144
I1
sVdf4bwu1
p1145
I1
sVdd8b0yu
p1146
I1
sVd1znoa9
p1147
I1
sVd3zrova
p1148
I1
sVd3pzt9b
p1149
I1
sVd6muikl
p1150
I1
sVd33snsp
p1151
I2
sVdboe9h6
p1152
I2
sVdap8aqr
p1153
I1
sVdr9pl8n
p1154
I1
sVd2muc6e
p1155
I1
sVdnd18ec
p1156
I1
sVdf9epfn
p1157
I1
sVd6ag81t
p1158
I1
sVcyimqpr
p1159
I1
sVdiqkhaw
p1160
I1
sVd9mbl67
p1161
I1
sVd1qkf7r
p1162
I1
sVd984fz5
p1163
I1
sVdcm2ukp
p1164
I1
sVdeikkaj
p1165
I1
sVdst9f79
p1166
I1
sVdfdjh41
p1167
I1
sVd6w7hzl
p1168
I1
sVcynxms6
p1169
I1
sVd0d2xdo
p1170
I1
sVd0jgv8o
p1171
I1
sVd5m4qgr
p1172
I1
sVd0cqtvo
p1173
I1
sVcym9621
p1174
I1
sVde2lmb8
p1175
I1
sVdjaaux4
p1176
I1
sVdnd5hmk
p1177
I1
sVd1dvui3
p1178
I1
sVdcjnjci
p1179
I1
sVd49o4tb
p1180
I1
sVdeaikdc
p1181
I1
sVdjko1by
p1182
I1
sVdpptet5
p1183
I1
sVdggqt4f
p1184
I1
sVd1y0fbz
p1185
I1
sVd018yy4
p1186
I1
sVdcqv1yf
p1187
I1
sVdd5r0h0
p1188
I1
sVd53j6gx
p1189
I1
sVcz7q8g4
p1190
I1
sVdqmqc02
p1191
I1
sVd0j9q4a
p1192
I1
sVdnxtdjs
p1193
I1
sVd3rb3ge
p1194
I2
sVd9w9oer
p1195
I1
sVdggr38x
p1196
I1
sVd3tarrh
p1197
I1
sVd4u5v3d
p1198
I1
sVdibvcfi
p1199
I1
sVddxa3ym
p1200
I1
sVd1r7dxe
p1201
I1
sVdjltdik
p1202
I1
sVcym268u
p1203
I1
sVdcd9yns
p1204
I1
sVdg3t9w6
p1205
I1
sVd4l28bw
p1206
I1
sVdi269mp
p1207
I1
sVdhe7mao
p1208
I1
sVdcwq5nb
p1209
I1
sVdnvwfw5
p1210
I1
sVd64vg7q
p1211
I1
sVdd01be7
p1212
I1
sVdf46meu
p1213
I1
sVd6jwubr
p1214
I1
sVdoafrgy
p1215
I1
sVd6b19u6
p1216
I1
sVd20jjr9
p1217
I1
sVdt7wwd5
p1218
I1
sVdceomf5
p1219
I1
sVdswhwnb
p1220
I1
sVde55icb
p1221
I1
sVdro48rs
p1222
I1
sVdaq8utk
p1223
I1
sVdppjcqp
p1224
I1
sVdf3d5rr
p1225
I1
sVdrzucto
p1226
I1
sVdjl3y9y
p1227
I1
sVd8iy5eb
p1228
I1
sVdr9aego
p1229
I1
sVczzrk66
p1230
I1
sVd0z8x5e
p1231
I1
sVdb571ic
p1232
I1
sVd8lzbs8
p1233
I2
sVd79i13s
p1234
I1
sVd6ih583
p1235
I1
sVddcu65y
p1236
I1
sVdqfu6g5
p1237
I1
sVd64hnl5
p1238
I1
sVd4ilp6f
p1239
I1
sVddhgr3m
p1240
I1
sVdfq83mu
p1241
I1
sVdj5dnd0
p1242
I1
sVd40gyw1
p1243
I1
sVd9e6njs
p1244
I1
sVdd51eot
p1245
I1
sVdh86qb4
p1246
I1
sVd1cukwp
p1247
I1
sVcz5o1um
p1248
I1
sVd73lcww
p1249
I1
sVd500431
p1250
I1
sVd4r84po
p1251
I1
sVd7thjgw
p1252
I1
sVdo8450b
p1253
I1
sVdc5q32i
p1254
I1
sVd7fn1cx
p1255
I1
sVd70aovr
p1256
I1
sVddn30l2
p1257
I1
sVdbol7bt
p1258
I1
sVdmgtfvo
p1259
I1
sVde7qjug
p1260
I1
sVdqk8gdf
p1261
I1
sVdc5iuog
p1262
I1
sVdfo8v8y
p1263
I1
sVd04icse
p1264
I1
sVdt9x52s
p1265
I1
sVd2yysya
p1266
I2
sVd79iuck
p1267
I1
sVdc9xiai
p1268
I1
sVdg17uko
p1269
I1
sVd4qu62h
p1270
I1
sVdj8k19l
p1271
I1
sVd3f1ihg
p1272
I1
sVd3nbkvt
p1273
I1
sVd1fjc2n
p1274
I1
sVczbjbih
p1275
I1
sVd6xgpa2
p1276
I1
sVdgcvgac
p1277
I1
sVd3mq0s0
p1278
I1
sVdq1hmho
p1279
I1
sVddda3l0
p1280
I1
sVdouvqmo
p1281
I1
sVcz9v6gg
p1282
I1
sVdosm493
p1283
I1
sVdi2zkuq
p1284
I1
sVdb6an91
p1285
I1
sVd2qqnnp
p1286
I1
sVd4sb0dv
p1287
I1
sVdj9klc5
p1288
I1
sVd73dqvq
p1289
I1
sVczomatr
p1290
I1
sVdarima2
p1291
I1
sVd8d4b9u
p1292
I1
sVdc658ir
p1293
I1
sVcyl86qa
p1294
I1
sVd7oitvl
p1295
I1
sVd6ktiws
p1296
I1
sVdprro1n
p1297
I1
sVdc65da2
p1298
I1
sVdalw9il
p1299
I1
sVdhekfmb
p1300
I1
sVdqvzwvk
p1301
I1
sVdaivbhr
p1302
I1
sVdkp9b6w
p1303
I1
sVd924r8u
p1304
I1
sVd5f3xdd
p1305
I1
sVd9aucwt
p1306
I1
sVd6hewwc
p1307
I1
sVd1hs2nd
p1308
I1
sVdjeehif
p1309
I1
sVd7svesp
p1310
I1
sVczyjc61
p1311
I1
sVd8i3gs2
p1312
I1
sVdb3r8ev
p1313
I1
sVd7ee4n8
p1314
I1
sVdhdaxra
p1315
I1
sVd8ax39c
p1316
I1
sVd7eoqy7
p1317
I1
sVd2ueiqy
p1318
I1
sVdenyiah
p1319
I1
sVd2fslgf
p1320
I1
sVdf1t2qo
p1321
I1
sVdq0rzpx
p1322
I1
sVd6pfc12
p1323
I1
sVdpst7xe
p1324
I1
sVdfvcx05
p1325
I1
sVd0oqp28
p1326
I1
sVczinti5
p1327
I1
sVdc7ay3b
p1328
I1
sVd0wouun
p1329
I1
sVcyugk8k
p1330
I1
sVdhdxil3
p1331
I1
sVddpwnbu
p1332
I1
sVd9rtkav
p1333
I1
sVd0yy52l
p1334
I1
sVd1u1m6l
p1335
I1
sVdmve6jd
p1336
I1
sVdqt7dop
p1337
I1
sVd12qpmj
p1338
I1
sVd7ry93h
p1339
I1
sVd2blz2o
p1340
I1
sVcylwunt
p1341
I1
sVdpxnhw4
p1342
I1
sVdb2q2fm
p1343
I1
sVd6vgboh
p1344
I1
sVdanjgru
p1345
I1
sVd1k1paj
p1346
I1
sVd1per3b
p1347
I1
sVd4nzyxk
p1348
I1
sVd1iw8a3
p1349
I2
sVddt5k84
p1350
I1
sVd0x8yii
p1351
I1
sVdjeydnu
p1352
I1
sVdk4vt2q
p1353
I1
sVczji64a
p1354
I1
sVdbud5h6
p1355
I2
sVd40djq9
p1356
I1
sVdb557dm
p1357
I1
sVdazfmzt
p1358
I1
sVdh77lc8
p1359
I1
sVcz6bsnm
p1360
I1
sVdprzzai
p1361
I1
sVd4jfben
p1362
I2
sVd1nr3de
p1363
I1
sVd6lq5rh
p1364
I4
sVd2snlju
p1365
I1
sVdmjegcu
p1366
I1
sVdo49y58
p1367
I1
sVdcn516s
p1368
I1
sVdp8klzt
p1369
I1
sVdr0gr4c
p1370
I1
sVdflw1s4
p1371
I1
sVd3fe9t7
p1372
I1
sVd232549
p1373
I1
sVdmwwqlt
p1374
I1
sVdml1qsy
p1375
I1
sVdeob8gt
p1376
I1
sVczb2ycm
p1377
I1
sVd49rk0e
p1378
I1
sVdqzup9z
p1379
I1
sVd8qen39
p1380
I1
sVdmww6zz
p1381
I1
sVcz847nm
p1382
I1
sVd5x9kg0
p1383
I1
sVdbivm1m
p1384
I1
sVd2qjyhw
p1385
I1
sVd0ahifw
p1386
I1
sVcz1lxm3
p1387
I1
sVdat6wxe
p1388
I1
sVd47h5ie
p1389
I1
sVdgb5sc1
p1390
I1
sVdpfhmqb
p1391
I1
sVdavjhfr
p1392
I1
sVd7dlp6z
p1393
I1
sVd2tn72u
p1394
I1
sVdj33v7u
p1395
I1
sVd5m3avh
p1396
I1
sVdam7q0m
p1397
I1
sVddp1b6u
p1398
I1
sVd1ypbx5
p1399
I2
sVd474jav
p1400
I1
sVd7y5ra4
p1401
I1
sVdj6t52f
p1402
I1
sVdftrnlo
p1403
I1
sVd99fb2v
p1404
I1
sVd7ndcb1
p1405
I1
sVd1mk8a1
p1406
I1
sVdca7h1n
p1407
I1
sVded42qe
p1408
I1
sVd038knd
p1409
I1
sVdc63hkz
p1410
I1
sVdd0z8kp
p1411
I1
sVdn629cl
p1412
I1
sVdjbc8qb
p1413
I1
sVd13ptkq
p1414
I1
sVdo2s0l6
p1415
I1
sVd1311ow
p1416
I1
sVdt56gq6
p1417
I1
sVdcljs5s
p1418
I1
sVcyif314
p1419
I1
sVdber17g
p1420
I1
sVd1p5825
p1421
I1
sVdgh1fkk
p1422
I1
sVdiiaw87
p1423
I2
sVddurdb6
p1424
I1
sVcz9elav
p1425
I1
sVdf1x9g2
p1426
I1
sVd8zyi5k
p1427
I1
sVdi3tc9g
p1428
I2
sVd38xh1k
p1429
I1
sVd7npnlz
p1430
I1
sVd23s58f
p1431
I1
sVd0axvzt
p1432
I1
sVdo1skf2
p1433
I1
sVd7echwq
p1434
I1
sVdfbyjqv
p1435
I1
sVdggxlhk
p1436
I2
sVdo4jd3m
p1437
I1
sVd0uof6l
p1438
I1
sVd2l1o3j
p1439
I1
sVcynmwf0
p1440
I1
sVd8g75c0
p1441
I1
sVdcza3jt
p1442
I1
sVd5zqgj8
p1443
I1
sVd0t31di
p1444
I1
sVdmlv3vu
p1445
I1
sVd4hry7o
p1446
I1
sVd3dp2qe
p1447
I1
sVd0os745
p1448
I1
sVd9evnf7
p1449
I1
sVd5y6bj2
p1450
I1
sVddr3jq0
p1451
I1
sVdg1mpwv
p1452
I1
sVdk6w73g
p1453
I1
sVd22z087
p1454
I1
sVd4nvfqi
p1455
I1
sVdc65nx8
p1456
I1
sVdcfjrrn
p1457
I1
sVd94hoc7
p1458
I1
sVd3knx47
p1459
I1
sVdh1wr65
p1460
I1
sVddb4zxs
p1461
I1
sVd07sq2t
p1462
I1
sVdg962jp
p1463
I1
sVd6cwt00
p1464
I1
sVd3g3n5x
p1465
I1
sVdahh04z
p1466
I1
sVd7s9sfo
p1467
I1
sVdef06h5
p1468
I1
sVdo8syxj
p1469
I1
sVd9jg3q1
p1470
I1
sVdemjgiw
p1471
I1
sVdp9k512
p1472
I1
sVd6egscp
p1473
I1
sVd35foe1
p1474
I1
sVcyql8z1
p1475
I1
sVd5m0m90
p1476
I1
sVddf3a30
p1477
I1
sVd6h0m5r
p1478
I1
sVd16rlpp
p1479
I1
sVd98emkb
p1480
I1
sVd0qn3oz
p1481
I1
sVdcgzkj8
p1482
I1
sVd37av0b
p1483
I1
sVd1uvjmh
p1484
I1
sVdgfpq0q
p1485
I1
sVdpn76zk
p1486
I1
sVdjupout
p1487
I1
sVds6rvw1
p1488
I1
sVdcblvbk
p1489
I1
sVczr0rgv
p1490
I1
sVd258ben
p1491
I1
sVd120qw4
p1492
I1
sVdgnh0uq
p1493
I1
sVd8ctdmg
p1494
I1
sVdhhhqke
p1495
I1
sVd744xjt
p1496
I1
sVddyt5pb
p1497
I1
sVd5oygl8
p1498
I1
sVdhp69ha
p1499
I1
sVcyjdtkz
p1500
I1
sVcz8n9zj
p1501
I1
sVd11ja2r
p1502
I1
sVdabwz3g
p1503
I1
sVd17aad3
p1504
I1
sVdgkaa8t
p1505
I1
sVczp427d
p1506
I1
sVcyhylo3
p1507
I1
sVddm978a
p1508
I1
sVdn34vt0
p1509
I1
sVda88oiy
p1510
I1
sVd5xcayw
p1511
I1
sVde5o58t
p1512
I1
sVdqvylsl
p1513
I1
sVcze7ic8
p1514
I2
sVdryqeim
p1515
I1
sVd32sxw6
p1516
I1
sVdc758v1
p1517
I1
sVdeul9hn
p1518
I1
sVde0ufsi
p1519
I1
sVdphjc5g
p1520
I1
sVdn9nhkt
p1521
I1
sVd2kwnuc
p1522
I1
sVczlxga3
p1523
I1
sVds4pel5
p1524
I1
sVd0lbwsq
p1525
I2
sVd4ourqj
p1526
I1
sVd0ncet0
p1527
I1
sVd0vrj05
p1528
I1
sVdinzqol
p1529
I1
sVcytaodx
p1530
I1
sVdeongb8
p1531
I1
sVdgjl3vt
p1532
I1
sVdczjf1f
p1533
I1
sVcz4y2x8
p1534
I1
sVd7dd5qp
p1535
I1
sVd71pkxu
p1536
I1
sVdci2nom
p1537
I1
sVdfwlj57
p1538
I2
sVd79eh68
p1539
I1
sVd6m2h0g
p1540
I1
sVd71wu0a
p1541
I1
sVd8bj5ej
p1542
I1
sVd7fogvf
p1543
I1
sVd224ji6
p1544
I1
sVdics2un
p1545
I1
sVd110n1g
p1546
I1
sVd4t0f47
p1547
I1
sVd5zbfy4
p1548
I1
sVd18rdhm
p1549
I1
sVd15v0ci
p1550
I1
sVd4wrrb5
p1551
I1
sVd0nznzv
p1552
I1
sVd7c0r75
p1553
I1
sVd63n4r0
p1554
I1
sVd3xrb9i
p1555
I1
sVdfm93ag
p1556
I1
sVd9zhghq
p1557
I1
sVd74frgf
p1558
I2
sVd4h1xcw
p1559
I1
sVdhtgfib
p1560
I1
sVdcn43yg
p1561
I1
sVdr3fva4
p1562
I1
sVdfqmv5h
p1563
I1
sVdkg8463
p1564
I1
sVdqkbad2
p1565
I1
sVcyxz3lb
p1566
I1
sVdknwh5w
p1567
I1
sVda63nad
p1568
I1
sVdblc7r2
p1569
I1
sVd0l5m05
p1570
I1
sVdfe9ql7
p1571
I1
sVddpw1an
p1572
I2
sVd4gxyxn
p1573
I1
sVd30o1ts
p1574
I1
sVd2sxv2i
p1575
I1
sVdswinyk
p1576
I1
sVdg3qqxr
p1577
I1
sVdnhl4je
p1578
I1
sVdip7nrl
p1579
I1
sVd43y5p1
p1580
I1
sVd8daxku
p1581
I1
sVdgw46nd
p1582
I1
sVd3iwtjy
p1583
I2
sVd8q7f25
p1584
I1
sVd2aytup
p1585
I1
sVdeehw0v
p1586
I1
sVdb4qx7y
p1587
I5
sVdhzh4rd
p1588
I1
sVdhj7coj
p1589
I1
sVd8w0xi2
p1590
I1
sVd9vqmxt
p1591
I1
sVdbpxmph
p1592
I2
sVdjcd8be
p1593
I1
sVdnze09i
p1594
I1
sVd9fdyz5
p1595
I1
sVd49wzud
p1596
I1
sVd312yvz
p1597
I1
sVd9i8bux
p1598
I1
sVdo0g2cv
p1599
I1
sVd4iqc96
p1600
I1
sVd5ailvy
p1601
I1
sVdgma81a
p1602
I1
sVd5tgudf
p1603
I1
sVd031qno
p1604
I1
sVdq6mdsb
p1605
I1
sVd0d69a7
p1606
I1
sVd425p54
p1607
I1
sVd9h5hbj
p1608
I1
sVd5k133j
p1609
I1
sVdd7e8um
p1610
I1
sVd18rd2o
p1611
I1
sVdjk8ejz
p1612
I1
sVczsq9de
p1613
I1
sVdfx2673
p1614
I2
sVczd2q8m
p1615
I1
sVdbiqlhf
p1616
I1
sVcyt2n7h
p1617
I1
sVddx7t35
p1618
I1
sVdceo2et
p1619
I1
sVd5scab7
p1620
I1
sVdckxutb
p1621
I1
sVdam7thl
p1622
I2
sVd7w46ok
p1623
I1
sVd94eu2j
p1624
I1
sVdhonhnq
p1625
I1
sVdphg73b
p1626
I1
sVd0i394v
p1627
I1
sVddaouvg
p1628
I1
sVd916nvt
p1629
I1
sVd8npn9b
p1630
I1
sVd4nz8ld
p1631
I1
sVdeqcb5q
p1632
I1
sVczd253b
p1633
I1
sVd1voiro
p1634
I1
sVd9de9au
p1635
I1
sVd340k0m
p1636
I1
sVdehribl
p1637
I1
sVdab15vy
p1638
I1
sVdberu8w
p1639
I1
sVd0wjqm9
p1640
I1
sVczi23py
p1641
I1
sVcztsjox
p1642
I2
sVdhgsq59
p1643
I1
sVd7yexex
p1644
I1
sVd86ybm4
p1645
I1
sVd6n1ikf
p1646
I1
sVde8lasw
p1647
I1
sVdjpwlsn
p1648
I1
sVdhpc6h1
p1649
I1
sVd2f3rjp
p1650
I1
sVdan2skq
p1651
I1
sVd2n9vfp
p1652
I1
sVdbk18yl
p1653
I1
sVdh4fz0t
p1654
I1
sVdd9cg40
p1655
I1
sVczvfbfr
p1656
I1
sVd0rjmj2
p1657
I1
sVdc026gx
p1658
I1
sVd05dj2h
p1659
I1
sVd3q1173
p1660
I1
sVd135ddy
p1661
I1
sVd57di1c
p1662
I1
sVd0jz30w
p1663
I1
sVds416wz
p1664
I1
sVdggol6c
p1665
I1
sVd7soqla
p1666
I1
sVdcxnubu
p1667
I1
sVdergrpf
p1668
I1
sVd7omn43
p1669
I1
sVcz3poy4
p1670
I1
sVczqhhmz
p1671
I1
sVdfto93v
p1672
I1
sVdk9ia77
p1673
I1
sVd8o2g2d
p1674
I1
sVd8xl28a
p1675
I1
sVdgtt3c7
p1676
I1
sVcztgq5d
p1677
I1
sVdqeq06u
p1678
I1
sVdil5e61
p1679
I1
sVdac0i1k
p1680
I1
sVdgng8kn
p1681
I2
sVdc8mzj6
p1682
I1
sVd3na71g
p1683
I2
sVd1vbjdr
p1684
I1
sVdbnd7r7
p1685
I2
sVdddbmar
p1686
I1
sVda6ld3u
p1687
I1
sVd0xzh26
p1688
I1
sVdjyefq5
p1689
I1
sVd4hoggm
p1690
I1
sVd3pgyhl
p1691
I1
sVdnaxpbq
p1692
I1
sVd0fr0hv
p1693
I2
sVczhmqye
p1694
I1
sVd9i76je
p1695
I1
sVddrxsso
p1696
I1
sVd8i059p
p1697
I1
sVdjqbbg3
p1698
I1
sVddcrjjg
p1699
I1
sVddm69s3
p1700
I1
sVczzgyhd
p1701
I1
sVd29sckr
p1702
I1
sVdfz0yhp
p1703
I1
sVdee6h9l
p1704
I1
sVd54jglr
p1705
I1
sVdcuh53g
p1706
I1
sVd01o551
p1707
I1
sVd2ieja4
p1708
I1
sVcyi2qq5
p1709
I1
sVdg3tq7c
p1710
I1
sVd1bxjgz
p1711
I1
sVd576k19
p1712
I1
sVd0faij3
p1713
I1
sVdr0qob4
p1714
I1
sVdapzikb
p1715
I1
sVd32hz97
p1716
I1
sVdi18q84
p1717
I1
sVd1cqftj
p1718
I1
sVd8nnkoe
p1719
I1
sVdj1pxol
p1720
I1
sVdmwxl3f
p1721
I1
sVdfjgd8k
p1722
I1
sVd4w9xs7
p1723
I1
sVd4ts65l
p1724
I1
sVdmosdv8
p1725
I1
sVd7xxdqn
p1726
I1
sVd2eax2t
p1727
I1
sVde6ctj6
p1728
I1
sVdhqnfxe
p1729
I1
sVdqphjnj
p1730
I1
sVd49q6qn
p1731
I1
sVdnh83hy
p1732
I1
sVd2js3z5
p1733
I1
sVd50mbu1
p1734
I1
sVdihe7ow
p1735
I2
sVd8rpi3c
p1736
I1
sVd4834bg
p1737
I1
sVdcj8b4j
p1738
I2
sVd1n7v0x
p1739
I1
sVd6cbap6
p1740
I1
sVdthq6rf
p1741
I1
sVd07ouxg
p1742
I1
sVdaubx30
p1743
I1
sVd13bdea
p1744
I1
sVd1vq7al
p1745
I1
sVd9vf0va
p1746
I2
sVdsvqbl9
p1747
I1
sVdnd86xk
p1748
I1
sVd4xsqjz
p1749
I1
sVdjz9ugi
p1750
I1
sVd0ruhol
p1751
I1
sVdk3qih2
p1752
I1
sVdg8qcp3
p1753
I1
sVddrxh8v
p1754
I1
sVdkekqxp
p1755
I1
sVd6njlx0
p1756
I2
sVdij7duk
p1757
I1
sVcyzz68e
p1758
I1
sVd1yw2oe
p1759
I1
sVd5wwn3c
p1760
I2
sVdrx7555
p1761
I1
sVd77zlbt
p1762
I1
sVcyycvr0
p1763
I1
sVddg5n0a
p1764
I1
sVdsyuhup
p1765
I2
sVd18chmy
p1766
I1
sVdpw9pma
p1767
I1
sVd7hsv9j
p1768
I1
sVdb9nsxu
p1769
I1
sVd4ee35r
p1770
I1
sVdmn6t7v
p1771
I1
sVd9c2eh9
p1772
I1
sVdk9ohfj
p1773
I1
sVdcoy9xe
p1774
I1
sVd3cjudy
p1775
I1
sVdj5rzvt
p1776
I1
sVdsqhcgr
p1777
I1
sVd497jjn
p1778
I1
sVd7t0tix
p1779
I1
sVdcmgjww
p1780
I1
sVdcavmo2
p1781
I1
sVd772ori
p1782
I1
sVddgb9s4
p1783
I1
sVdeptl3n
p1784
I1
sVdb5e2wp
p1785
I1
sVdcvx9vt
p1786
I1
sVdhwkmoq
p1787
I1
sVd3rupgo
p1788
I1
sVczxmqfo
p1789
I1
sVdmf51m9
p1790
I1
sVd9qgri5
p1791
I1
sVd64ras2
p1792
I2
sVdbsn3zx
p1793
I1
sVd33otmo
p1794
I1
sVdcx2yt5
p1795
I2
sVdpiq6da
p1796
I1
sVdndasum
p1797
I1
sVd45459n
p1798
I1
sVdmzarm3
p1799
I1
sVdbmprav
p1800
I1
sVd8eiiye
p1801
I1
sVdgh8id4
p1802
I3
sVdk4e1tp
p1803
I1
sVdj3pzoo
p1804
I1
sVd4snyt3
p1805
I1
sVcysl0ol
p1806
I1
sVdey9o04
p1807
I1
sVdbqmwic
p1808
I1
sVd69kfja
p1809
I1
sVdp678jp
p1810
I1
sVdn7ybwy
p1811
I1
sVdbssmto
p1812
I1
sVcz25xv6
p1813
I1
sVd2bcsjp
p1814
I1
sVdb1fg61
p1815
I1
sVd0i9j3w
p1816
I1
sVdhnb1vo
p1817
I1
sVdivrahw
p1818
I1
sVd3o2sr9
p1819
I1
sVdilvcof
p1820
I1
sVdh1eh2v
p1821
I1
sVdd06r9m
p1822
I1
sVdb6sfzu
p1823
I1
sVdbdl0md
p1824
I1
sVd61h6xi
p1825
I1
sVdcur5kz
p1826
I1
sVczudlsv
p1827
I1
sVdbo6zbc
p1828
I1
sVd7dcm3u
p1829
I1
sVcza0c7e
p1830
I1
sVdrzmljw
p1831
I1
sVdoypblk
p1832
I1
sVdds2bir
p1833
I1
sVdmhnry4
p1834
I1
sVdborkh1
p1835
I1
sVddeghpc
p1836
I1
sVd8swx11
p1837
I1
sVczwiipd
p1838
I1
sVdr37brx
p1839
I1
sVd6ai123
p1840
I1
sVd00zvqi
p1841
I3
sVd7trgtl
p1842
I1
sVd8oi0mw
p1843
I1
sVd06ifvz
p1844
I1
sVdqwbk4j
p1845
I1
sVdp7zcby
p1846
I1
sVdemg0uc
p1847
I1
sVdnqvzg3
p1848
I1
sVd5xyevh
p1849
I1
sVds5mlk6
p1850
I1
sVdnc9r9m
p1851
I1
sVdd3av4v
p1852
I1
sVdgv0504
p1853
I1
sVdsdkqvg
p1854
I1
sVd2qao1s
p1855
I1
sVd5q6l07
p1856
I1
sVdcvihnk
p1857
I1
sVdd306xi
p1858
I1
sVd9148yw
p1859
I2
sVdj7rieh
p1860
I1
sVdogjbh5
p1861
I1
sVd63v4za
p1862
I1
sVdevwmlk
p1863
I1
sVczjom5n
p1864
I1
sVdd1cz2i
p1865
I1
sVdel1ld8
p1866
I1
sVcz2pcig
p1867
I1
sVcywntfr
p1868
I1
sVd6rzmuw
p1869
I1
sVds96g75
p1870
I1
sVdn5fenp
p1871
I1
sVczmxy0e
p1872
I1
sVczm1gw8
p1873
I1
sVd7c7hnu
p1874
I1
sVd5jpnt1
p1875
I1
sVdhgr382
p1876
I1
sVd8jvn9b
p1877
I1
sVd1udc03
p1878
I1
sVd3g1czi
p1879
I1
sVd086lsb
p1880
I1
sVcz17hqh
p1881
I1
sVdsr1kma
p1882
I1
sVdn19yi5
p1883
I2
sVd0m01oh
p1884
I1
sVdja0vuu
p1885
I1
sVdbpxtds
p1886
I1
sVdng0446
p1887
I1
sVczp9fcg
p1888
I1
sVdaanl2e
p1889
I1
sVdf1x1ui
p1890
I1
sVd09almv
p1891
I1
sVdochwfw
p1892
I1
sVd4pkaif
p1893
I1
sVdedi0bz
p1894
I1
sVddx9g0k
p1895
I1
sVd8xrkq0
p1896
I1
sVcyr70k7
p1897
I1
s.