(dp0
Vdcghflf
p1
I2
sVdagdsf4
p2
I1
sVdfq68yb
p3
I1
sVd4mb18m
p4
I1
sVdgegwaz
p5
I1
sVcyo58vb
p6
I1
sVdk47f9i
p7
I1
sVd6dygwh
p8
I2
sVdaov7fv
p9
I1
sVddcsok8
p10
I1
sVczrf9lo
p11
I5
sVdkxtgqw
p12
I1
sVczgych7
p13
I1
sVdc6l6tw
p14
I1
sVdcghk1o
p15
I3
sVdb0d1lm
p16
I1
sVdnp6uzu
p17
I1
sVdfssnoh
p18
I1
sVdr10kwn
p19
I1
sVd4vz2rw
p20
I1
sVdq1k3yj
p21
I1
sVczos3jy
p22
I1
sVdpgay75
p23
I1
sVdsxgqsu
p24
I1
sVdi7axr3
p25
I2
sVd5jghuj
p26
I3
sVdhy3oti
p27
I1
sVda98ty6
p28
I1
sVcyskw2n
p29
I1
sVdor78kj
p30
I1
sVdfr7ru4
p31
I1
sVd0rxoyq
p32
I1
sVdpp018p
p33
I1
sVd19r8g6
p34
I1
sVdbr0eyh
p35
I2
sVd1w43dj
p36
I1
sVdi3nyru
p37
I1
sVd1fqwju
p38
I1
sVdi4n7fs
p39
I1
sVd2g3uhs
p40
I1
sVdb6p2bo
p41
I1
sVd0ezrg2
p42
I1
sVd8q8msj
p43
I1
sVdp8mjq7
p44
I1
sVcz3oah5
p45
I4
sVdp9lbdi
p46
I1
sVdnopip3
p47
I1
sVdqh45lx
p48
I1
sVdkx9xxs
p49
I1
sVdc8oqb4
p50
I1
sVd7dxo3d
p51
I1
sVdh6lf4m
p52
I1
sVdqqfkfy
p53
I2
sVdimn2gl
p54
I1
sVd4ynz2d
p55
I1
sVcyiqhdz
p56
I1
sVcz3npxo
p57
I3
sVd7p6imn
p58
I1
sVdimlz70
p59
I1
sVd3brny0
p60
I1
sVczpl3v3
p61
I2
sVdt2f6jy
p62
I1
sVczsplvg
p63
I1
sVdddt2fz
p64
I1
sVd8ogx82
p65
I1
sVd7yg93k
p66
I1
sVd33z7us
p67
I1
sVd97qlwo
p68
I2
sVdks130k
p69
I1
sVd1o9f5n
p70
I1
sVd97gy0g
p71
I1
sVdimfmqq
p72
I1
sVdppmxfh
p73
I3
sVczyoj2l
p74
I1
sVdjbw1uy
p75
I1
s.