(dp0
Vczwj9yp
p1
I1
sVczwb93t
p2
I1
sVdbrcs6b
p3
I1
sVd4q0f7p
p4
I1
sVdbwp6wu
p5
I4
sVdjars60
p6
I1
sVdkgx2dl
p7
I1
sVcyjao3j
p8
I1
sVdigyh3w
p9
I1
sVdre0oz9
p10
I1
sVd10m8ut
p11
I1
sVd7uxj9l
p12
I1
sVdenz32p
p13
I1
sVd3fn9hi
p14
I1
sVdptnxmp
p15
I1
sVd0aj0ad
p16
I1
sVd0i88zd
p17
I1
sVd2tt7az
p18
I1
sVczhgbnj
p19
I1
sVd1m8709
p20
I1
sVdpczgul
p21
I1
sVcz6l1fj
p22
I1
sVcyqve61
p23
I1
sVdfrnc7d
p24
I1
sVdg17css
p25
I1
sVdhlnvkw
p26
I1
sVda35hy7
p27
I1
sVd8m5xki
p28
I1
sVczzcsit
p29
I1
sVd1vfg6n
p30
I1
sVdsiycj0
p31
I1
sVdh17bpd
p32
I1
sVcz2r7cz
p33
I1
sVczdnuj0
p34
I1
sVdephcsd
p35
I1
sVdhg7xc5
p36
I1
sVdchtah5
p37
I1
sVd7g48qe
p38
I1
sVcyicw7w
p39
I1
sVczcwx5c
p40
I3
sVd498p0m
p41
I1
sVczlxwsr
p42
I1
sVd1eiqw1
p43
I1
sVdegyzs8
p44
I1
sVd9hy5uq
p45
I1
sVdaebo9w
p46
I1
sVds4ug8j
p47
I1
sVdq5qwxe
p48
I1
sVd8jb11l
p49
I1
sVcz3fftr
p50
I1
sVdeezsmk
p51
I1
sVdci52f3
p52
I1
sVd0o0tzo
p53
I1
sVdp4bx4r
p54
I1
sVd29ukzm
p55
I1
sVczcwez5
p56
I3
sVdkllxy6
p57
I1
sVdnlwn5r
p58
I1
sVdp6r0uy
p59
I2
sVcyvn2pn
p60
I1
sVdeh0n20
p61
I3
sVd30fwah
p62
I1
sVda2i4i4
p63
I1
sVd4c7c4z
p64
I1
sVcz6jziq
p65
I1
sVdja79qc
p66
I1
sVd23je86
p67
I1
sVd0pzy4i
p68
I1
sVd0dlzq4
p69
I1
sVd3ba7nu
p70
I1
sVcz6k5un
p71
I1
sVdeaa2pg
p72
I1
sVdjwpuw8
p73
I1
sVd7xmauc
p74
I1
sVd1i7h2n
p75
I1
sVczwk4xe
p76
I1
sVdhbjitr
p77
I1
sVd0ykaih
p78
I1
sVdnjjcb2
p79
I2
sVd4tzq7s
p80
I1
sVda5i3lr
p81
I1
sVdtess3u
p82
I1
sVdjx2j4q
p83
I1
sVd3z84hx
p84
I1
sVd87qk4z
p85
I1
sVd43y5p1
p86
I1
sVd1q6blb
p87
I1
sVdj0sej2
p88
I2
sVdbgxz1d
p89
I1
sVd8upt9i
p90
I1
sVdhp7rea
p91
I1
sVd1a8lhr
p92
I1
sVd2lzr24
p93
I1
sVd3fiq5t
p94
I1
sVdbmw373
p95
I1
sVdkh8zt9
p96
I1
sVdfzw9x1
p97
I1
sVdkq4r0j
p98
I1
sVdg5p8dl
p99
I1
sVd0ho0hl
p100
I1
sVdqjsrk4
p101
I1
sVdeco9aj
p102
I3
sVd7826pg
p103
I2
sVdbn1l4c
p104
I1
sVdjn0au3
p105
I1
sVd7ifqky
p106
I1
sVd67l4vi
p107
I1
sVddmdwd2
p108
I1
sVd7qp5il
p109
I1
sVd5uf52n
p110
I1
sVdk0jxtj
p111
I1
sVd2v26a2
p112
I1
sVd1jrj3w
p113
I1
sVd1a8hji
p114
I1
sVdi0jyh4
p115
I1
sVd0gdz1i
p116
I1
sVcyn4t04
p117
I1
sVd0c9txa
p118
I1
sVdfha554
p119
I1
sVdeey4m7
p120
I1
sVd0btvum
p121
I1
sVddi35fe
p122
I1
sVd6dtc20
p123
I1
sVd5p9f6b
p124
I1
sVd0e7u7p
p125
I1
sVd3gpjk3
p126
I1
sVde663ka
p127
I1
sVczygp29
p128
I1
sVdb6np9y
p129
I1
sVdatu8wc
p130
I1
sVd1wemvd
p131
I1
sVczdnjt6
p132
I1
sVd8lge1a
p133
I1
sVcyvbqo4
p134
I1
sVdfzvdqr
p135
I1
sVdeaonan
p136
I2
sVd8e4ezq
p137
I1
sVdptj6xb
p138
I1
sVd7fzirg
p139
I1
sVd0keuh1
p140
I1
sVdd7h1o6
p141
I1
sVd01se82
p142
I1
sVdf1vie7
p143
I1
sVdg9wa87
p144
I1
sVdkk9j2m
p145
I1
sVd2et1eh
p146
I1
sVdejhfde
p147
I1
sVdkb9eg5
p148
I2
sVdnmkbbm
p149
I1
sVdet3e14
p150
I1
sVd4vs8zm
p151
I1
sVdiq7nl5
p152
I1
sVdfsc0u8
p153
I1
sVdeyyize
p154
I2
sVdhvbdd9
p155
I1
sVczd3t7k
p156
I1
sVdipkjsw
p157
I1
sVdb13zec
p158
I1
s.