(dp0
Vczlarg8
p1
I1
s.(dp0
Vczlarg8
p1
I1
sVd047fnh
p2
I1
s.(dp0
Vczlarg8
p1
I1
sVd2n85ry
p2
I1
s.(dp0
Vczlarg8
p1
I1
sVd380ue5
p2
I1
s.(dp0
Vczlarg8
p1
I1
sVd3ea91v
p2
I1
s.(dp0
Vczlarg8
p1
I1
sVd3f9zi7
p2
I1
s.(dp0
Vczlarg8
p1
I1
sVd4538ga
p2
I1
s.(dp0
Vczlarg8
p1
I1
sVd58u4w6
p2
I1
s.(dp0
Vczlarg8
p1
I1
sVd5lqlav
p2
I1
s.(dp0
Vczlarg8
p1
I1
sVd5re8g2
p2
I1
s.(dp0
Vd5svavk
p1
I1
sVczlarg8
p2
I1
s.(dp0
Vczlarg8
p1
I1
sVd6o7fu2
p2
I1
s.(dp0
Vd6v2jva
p1
I1
sVczlarg8
p2
I1
s.(dp0
Vczlarg8
p1
I1
sVd7xgp4d
p2
I1
s.(dp0
Vczlarg8
p1
I1
sVd8a15ki
p2
I1
s.(dp0
Vczlarg8
p1
I1
sVd9egdy7
p2
I1
s.(dp0
Vczlarg8
p1
I1
sVd9tbs53
p2
I1
s.(dp0
Vczlarg8
p1
I1
sVd9tct0b
p2
I1
s.(dp0
Vdbks85a
p1
I1
sVczlarg8
p2
I1
s.(dp0
Vczlarg8
p1
I1
sVdco74l7
p2
I1
s.(dp0
Vczlarg8
p1
I1
sVdd2zzjb
p2
I1
s.(dp0
Vczlarg8
p1
I1
sVddzqdkh
p2
I1
s.(dp0
Vczlarg8
p1
I1
sVdeauigl
p2
I1
s.(dp0
Vczlarg8
p1
I1
sVdehcqsj
p2
I1
s.(dp0
Vczlarg8
p1
I1
sVdetn5lx
p2
I1
s.(dp0
Vdffgtf0
p1
I1
sVczlarg8
p2
I1
s.(dp0
Vczlarg8
p1
I1
sVdfic932
p2
I1
s.(dp0
Vdgj2xdc
p1
I1
sVczlarg8
p2
I1
s.(dp0
Vdgxqhhi
p1
I1
sVczlarg8
p2
I1
s.(dp0
Vdhwelu1
p1
I1
sVczlarg8
p2
I1
s.(dp0
Vczlarg8
p1
I1
sVdi9lmnm
p2
I1
s.(dp0
Vczlarg8
p1
I1
sVdpj0vzc
p2
I1
s.(dp0
Vczlarg8
p1
I1
sVdrdd37f
p2
I1
s.(dp0
Vczlarg8
p1
I1
sVdsozlha
p2
I1
s.