(dp0
Vdmzt1sa
p1
I1
sVdnk116m
p2
I1
sVd2lc2dj
p3
I1
sVd5g2t4n
p4
I1
sVdf5eqlx
p5
I1
sVdfimo4f
p6
I1
sVdixd8dl
p7
I1
sVd2uxq00
p8
I1
sVd21j5yr
p9
I1
sVczsudzd
p10
I1
sVdepmp6g
p11
I1
sVddmwzeq
p12
I1
sVd9dazhg
p13
I1
sVd4jld5p
p14
I1
sVdrfxktd
p15
I1
sVd0xkhyo
p16
I1
sVdfeb4cd
p17
I1
sVd9e2b2f
p18
I1
sVczqua1w
p19
I1
sVd6r21vd
p20
I1
sVdgzfmg1
p21
I1
sVd09n6hl
p22
I1
sVdjk2dqt
p23
I1
sVd1y76bm
p24
I1
sVd64ytuy
p25
I1
sVdbxl1s8
p26
I2
sVd69ieyf
p27
I1
sVdd8b0yu
p28
I1
sVd88malm
p29
I1
sVdilfh0o
p30
I1
sVdbewyh6
p31
I1
sVdp0tfjp
p32
I1
sVd4wkcri
p33
I1
sVd2be0ex
p34
I1
sVcz3y4wz
p35
I1
sVdmicqeg
p36
I1
sVd6oyjd8
p37
I1
sVddixzyu
p38
I1
sVd5b1bld
p39
I1
sVd35qtcc
p40
I1
sVda5gd6l
p41
I1
sVdhvswv0
p42
I1
sVd346qi0
p43
I1
sVdixola6
p44
I1
sVdcdl6qd
p45
I1
sVd08pdk3
p46
I1
sVd8obbv4
p47
I1
sVcz8277i
p48
I1
sVd2o592q
p49
I1
sVd097e7y
p50
I1
sVd4o7iuh
p51
I1
sVd0bw611
p52
I1
sVd0izbka
p53
I1
sVddromd6
p54
I1
sVdc05j5e
p55
I1
sVd82f10x
p56
I1
sVdai2e0w
p57
I1
sVdgymfam
p58
I1
sVdta8yxb
p59
I1
sVdmvdpjb
p60
I1
sVd6e96tn
p61
I1
sVddxg6qg
p62
I1
sVd9sak6c
p63
I1
sVczo18iv
p64
I1
sVdrof2r9
p65
I1
sVd2hengs
p66
I1
sVcz693z1
p67
I1
sVd0bjs5o
p68
I1
sVdglxz76
p69
I1
sVd5cboz6
p70
I1
sVdmu0nxh
p71
I1
sVda8tz1l
p72
I1
sVdmm1v4o
p73
I1
sVd5gmwhf
p74
I1
sVcyli4o2
p75
I1
sVd6bh27s
p76
I1
sVd0vjco9
p77
I1
sVdpcuvtn
p78
I1
sVdfamwqw
p79
I1
sVcytfj37
p80
I1
sVdf4krvj
p81
I1
sVdgpob1t
p82
I1
sVd1k98m6
p83
I1
sVdezuual
p84
I1
sVdi11la2
p85
I1
sVdjwsqn5
p86
I1
sVdhzj79i
p87
I1
sVdiydzk8
p88
I1
sVdftvrfp
p89
I1
sVd6ty3mj
p90
I1
sVdfzwpvy
p91
I1
sVd12wge4
p92
I1
sVd14kfoz
p93
I1
sVcznowl3
p94
I1
sVd2vxqiv
p95
I1
sVdnyrt0m
p96
I1
sVdp8yece
p97
I1
sVdtgcau9
p98
I1
sVdfgiq9p
p99
I1
sVd5iffi3
p100
I1
sVdf36h7d
p101
I1
sVdcuikdt
p102
I1
sVd69inpa
p103
I1
sVdbpjccp
p104
I1
sVd8s6om2
p105
I1
sVdnuj17b
p106
I1
sVdcjxd4g
p107
I1
sVd03vt3s
p108
I1
sVdd53rep
p109
I1
sVd6zm9mt
p110
I1
sVdh0041s
p111
I1
sVdr1440t
p112
I1
sVczvv0lh
p113
I1
sVd7sxxim
p114
I2
sVd9yvg40
p115
I1
sVdfxbzt0
p116
I1
sVdgdis3u
p117
I1
sVdfsa46d
p118
I1
sVdjj4b0a
p119
I1
sVd60bkdr
p120
I1
sVd5t1rbs
p121
I1
sVdcxbf3p
p122
I1
sVd8km3me
p123
I1
sVdfiqswh
p124
I1
sVd0uc9hl
p125
I1
sVd5kic35
p126
I1
sVd5rtuf9
p127
I1
sVd0yuwd5
p128
I1
sVd9n0xg3
p129
I1
sVdg3ji5h
p130
I1
sVd7odfsx
p131
I1
sVdhsxcom
p132
I1
sVdt2aasl
p133
I1
sVdrbvfny
p134
I1
sVdpwhyqc
p135
I1
sVd1gkftb
p136
I1
sVdhf7aly
p137
I1
sVczzrv8y
p138
I1
sVdeej957
p139
I1
sVd13jynq
p140
I1
sVdc0ry3h
p141
I1
sVd15kwyc
p142
I1
sVd08m2lc
p143
I1
sVd0h55p7
p144
I1
sVd6qjxd9
p145
I1
sVdel4efc
p146
I1
sVdsucjd5
p147
I1
sVd2ud99h
p148
I1
sVdbl6wxe
p149
I1
sVdbr33b3
p150
I1
sVd6bny01
p151
I1
sVdkm466m
p152
I1
sVdaw1e45
p153
I1
sVddp04t3
p154
I1
sVdokyerx
p155
I1
sVd2zhhb9
p156
I1
sVdn9hyi1
p157
I2
sVczzk4sf
p158
I1
sVdnz2nv1
p159
I1
sVd6ueofo
p160
I1
sVd92qgnr
p161
I1
sVd17mwh7
p162
I1
sVd1hcfnr
p163
I1
sVd1av2r1
p164
I1
sVczgcxgb
p165
I1
sVd1v29cs
p166
I1
sVd05ghcn
p167
I1
sVd2tnh5k
p168
I1
sVd1ah41c
p169
I1
sVd5nmjmv
p170
I1
sVdbw2ovn
p171
I1
sVdkr23a0
p172
I1
sVd0wbnbz
p173
I1
sVdav87t7
p174
I1
sVdbwipiq
p175
I1
sVdkn2flq
p176
I1
sVczxse8o
p177
I1
sVd5lnpms
p178
I1
sVddtvk0s
p179
I1
sVdcxx223
p180
I1
sVdhlo5yw
p181
I2
sVd1urtsc
p182
I1
sVdcnwnv4
p183
I1
sVd03fom7
p184
I1
sVdbd0nji
p185
I1
sVde8ul7r
p186
I1
sVd4pxz10
p187
I1
sVd7t6706
p188
I2
sVdixd09r
p189
I1
s.