(dp0
Vcyyim6x
p1
I1
s.(dp0
Vd44i2ex
p1
I1
sVcyyim6x
p2
I1
s.(dp0
Vcyyim6x
p1
I1
sVd8du5n2
p2
I1
s.(dp0
Vcyyim6x
p1
I1
sVd9z6fxe
p2
I1
s.(dp0
Vdcu84y0
p1
I1
sVcyyim6x
p2
I1
s.(dp0
Vcyyim6x
p1
I1
sVdd1qhhf
p2
I1
s.(dp0
Vcyyim6x
p1
I1
sVddhu2zg
p2
I1
s.(dp0
Vcyyim6x
p1
I1
sVddn58n7
p2
I1
s.(dp0
Vcyyim6x
p1
I1
sVdiq1lis
p2
I1
s.