(dp0
Vd1p9sb0
p1
I1
sVdodvto4
p2
I1
sVd2ui3z6
p3
I1
sVdnpwo99
p4
I1
sVdmfbnxr
p5
I1
sVdgvjuhj
p6
I1
sVdb53e1n
p7
I1
sVdfddmr5
p8
I1
sVdg25pza
p9
I1
sVdj2s9bx
p10
I1
sVdg91oov
p11
I1
sVd02pbu5
p12
I1
sVd5v5ta9
p13
I1
sVdcdbffx
p14
I2
sVd652uhn
p15
I1
sVd19kmow
p16
I1
s.