(dp0
Vdkwrwfy
p1
I1
sVdcr5c2j
p2
I1
sVd7wftfk
p3
I1
sVdbddru1
p4
I1
sVd2i0ntn
p5
I1
sVcym40ap
p6
I1
sVds3rsys
p7
I1
sVds51q2n
p8
I1
sVdc62r4f
p9
I1
sVdi6p4eu
p10
I1
sVdnn7w5g
p11
I1
sVd7vnze8
p12
I1
sVdrf94g8
p13
I1
sVcz4x3jq
p14
I1
sVdd8cxry
p15
I1
sVdgadxli
p16
I1
sVdmpwf09
p17
I1
sVd0i4stj
p18
I1
sVd4opxcp
p19
I1
sVdaytlx2
p20
I1
sVd8hys29
p21
I1
sVd45bofj
p22
I1
sVd4v0hkn
p23
I1
sVcyozdr0
p24
I1
sVdmr8r7x
p25
I1
sVd0upzd7
p26
I1
sVd0fjyc2
p27
I1
sVczi4u7h
p28
I1
sVde23cg9
p29
I1
sVdhm32rf
p30
I1
sVd295ycj
p31
I1
sVczxfh2v
p32
I1
sVd213o88
p33
I1
sVd3dt2ex
p34
I1
sVd24n5bu
p35
I1
sVddwi07e
p36
I1
sVdrnjd0m
p37
I1
sVdgi6g0l
p38
I1
sVd7lsruz
p39
I1
sVdhfjafq
p40
I1
sVd6x2c68
p41
I1
sVdeadikc
p42
I1
sVd7iagn0
p43
I1
sVdqhym6b
p44
I1
sVd6mhwdt
p45
I1
sVdmos7xp
p46
I1
sVd24wca5
p47
I1
sVd0c6eeq
p48
I1
sVdnwjneh
p49
I1
sVdh5k96y
p50
I1
sVdazv7jo
p51
I1
sVdgcluvi
p52
I1
sVdeil3bv
p53
I1
sVd7nyv02
p54
I1
sVd9jnpyb
p55
I1
sVdcsn9l6
p56
I1
sVdmtw9jk
p57
I1
sVds9mq9v
p58
I1
sVdgqjst0
p59
I1
s.