(dp0
Vd0yih2d
p1
I1
s.(dp0
Vd2ocd3n
p1
I1
sVd0yih2d
p2
I1
s.(dp0
Vd2oct8m
p1
I1
sVd0yih2d
p2
I1
s.(dp0
Vd8w0o46
p1
I1
sVd0yih2d
p2
I1
s.(dp0
Vdbbxwgg
p1
I1
sVd0yih2d
p2
I1
s.(dp0
Vdgxsppx
p1
I1
sVd0yih2d
p2
I1
s.(dp0
Vdrq56mo
p1
I1
sVd0yih2d
p2
I1
s.