(dp0
Vcytz8yz
p1
I1
s.(dp0
Vcytz8yz
p1
I1
sVd0aj9nb
p2
I1
s.(dp0
Vcytz8yz
p1
I1
sVd350njv
p2
I1
s.(dp0
Vcytz8yz
p1
I1
sVd350njv
p2
I1
s.(dp0
Vcytz8yz
p1
I1
sVd5ahvgd
p2
I1
s.(dp0
Vcytz8yz
p1
I1
sVd5si44h
p2
I1
s.(dp0
Vcytz8yz
p1
I1
sVd7mic8h
p2
I1
s.(dp0
Vcytz8yz
p1
I1
sVd7ratm8
p2
I1
s.(dp0
Vcytz8yz
p1
I1
sVd87j2yo
p2
I1
s.(dp0
Vcytz8yz
p1
I1
sVdbds0kp
p2
I1
s.(dp0
Vcytz8yz
p1
I1
sVdbyojmt
p2
I1
s.(dp0
Vcytz8yz
p1
I1
sVdbyojmt
p2
I1
s.(dp0
Vcytz8yz
p1
I1
sVdgsauny
p2
I1
s.(dp0
Vcytz8yz
p1
I1
sVdij02xt
p2
I1
s.(dp0
Vcytz8yz
p1
I1
sVdj4632s
p2
I1
s.(dp0
Vcytz8yz
p1
I1
sVdjle2r9
p2
I1
s.(dp0
Vcytz8yz
p1
I1
sVdmliv5n
p2
I1
s.(dp0
Vcytz8yz
p1
I1
sVdpa4q9n
p2
I1
s.