(dp0
Vdkia8n6
p1
I1
sVd8tha3b
p2
I2
sVdhhhzml
p3
I1
sVd17vdav
p4
I1
sVdi9w2jl
p5
I1
sVd26ofam
p6
I1
sVd6yb4m3
p7
I2
sVd35f8qb
p8
I1
sVdgsd4ho
p9
I1
sVdew98k6
p10
I1
sVdoso1ex
p11
I1
sVdktb6my
p12
I1
sVdeq4ims
p13
I1
sVcykezeo
p14
I1
sVdb8qx7y
p15
I1
sVd7bwp8w
p16
I1
sVdrc0es9
p17
I1
sVdrrv9dd
p18
I1
sVdiwbca0
p19
I1
sVdh2g4h2
p20
I1
sVdj662c0
p21
I1
sVd53kp2y
p22
I1
sVdgshpo2
p23
I1
sVdj4offz
p24
I1
sVd5t8hy1
p25
I1
sVdmkc68t
p26
I1
sVd6qbw50
p27
I1
sVdbfz7sx
p28
I1
sVdr7tbfe
p29
I1
sVd3u879z
p30
I1
sVd4moziy
p31
I1
sVdpfbu2o
p32
I2
sVdema1hr
p33
I1
sVdj2m1pi
p34
I3
sVd211xdh
p35
I4
sVdgb6m0y
p36
I1
s.