(dp0
Vd166bkn
p1
I1
s.(dp0
Vd6ht7s1
p1
I1
sVd166bkn
p2
I1
s.(dp0
Vd166bkn
p1
I1
sVd9j37s6
p2
I1
s.(dp0
Vdahlv82
p1
I1
sVd166bkn
p2
I1
s.(dp0
Vdbpmee4
p1
I1
sVd166bkn
p2
I1
s.(dp0
Vd166bkn
p1
I1
sVde3htli
p2
I1
s.(dp0
Vd166bkn
p1
I1
sVdfxpzbr
p2
I1
s.(dp0
Vdh9r1tw
p1
I1
sVd166bkn
p2
I1
s.(dp0
Vd166bkn
p1
I1
sVdhyvkmv
p2
I1
s.(dp0
Vdj2g7hg
p1
I1
sVd166bkn
p2
I1
s.(dp0
Vd166bkn
p1
I1
sVdjoubnl
p2
I1
s.