(dp0
Vcyqnu5x
p1
I1
s.(dp0
Vd03xs2c
p1
I1
sVcyqnu5x
p2
I1
s.(dp0
Vd0ursd7
p1
I1
sVcyqnu5x
p2
I1
s.(dp0
Vd251oyb
p1
I1
sVcyqnu5x
p2
I1
s.(dp0
Vd2577un
p1
I1
sVcyqnu5x
p2
I1
s.(dp0
Vdb7rdyq
p1
I1
sVcyqnu5x
p2
I1
s.(dp0
Vdbk4lgi
p1
I1
sVcyqnu5x
p2
I1
s.(dp0
Vdep7o5o
p1
I1
sVcyqnu5x
p2
I1
s.(dp0
Vdfq96nb
p1
I1
sVcyqnu5x
p2
I1
s.(dp0
Vdfxq5yp
p1
I1
sVcyqnu5x
p2
I1
s.