(dp0
Vd9rm3lf
p1
I1
sVd16xvlm
p2
I1
sVdqhjpqm
p3
I1
sVdb8kgfa
p4
I1
sVdpjjwnw
p5
I1
sVdsypm55
p6
I1
sVdr2tywn
p7
I1
sVd2exf2r
p8
I1
sVd8c2b3i
p9
I1
sVdj5tao2
p10
I1
sVdmhkf9c
p11
I1
sVd4pqr0o
p12
I1
sVd6r8x1r
p13
I1
sVd2es8zx
p14
I1
sVdhqbnvr
p15
I1
sVd3gltpk
p16
I1
sVdh3flbg
p17
I1
s.