(dp0
Vdcobunh
p1
I1
sVdire1n8
p2
I1
sVd24vc9t
p3
I1
sVdequi77
p4
I1
sVd208ua1
p5
I1
sVd0pk9m7
p6
I1
sVdhgedzg
p7
I1
sVczyqo9y
p8
I1
sVd052bnt
p9
I1
sVczfncoa
p10
I1
sVd1n7teb
p11
I1
sVdh366gf
p12
I1
sVdmwc6gg
p13
I1
sVdczjf1f
p14
I2
sVczuzban
p15
I1
sVd02ql2d
p16
I1
sVdqo4alk
p17
I1
sVdhhmlgp
p18
I1
sVdj2xbcd
p19
I1
sVd9d5flj
p20
I1
sVdj024eq
p21
I1
sVcyplu53
p22
I1
sVdghh6ho
p23
I1
sVd5ibkfr
p24
I1
sVczi5g3h
p25
I1
sVd1cxn8n
p26
I1
sVd0njlrd
p27
I1
sVd8bi40u
p28
I1
sVd1q2mvw
p29
I1
sVdmsqlp4
p30
I1
sVdem6u0o
p31
I1
sVd03q43y
p32
I1
sVdfxn0h9
p33
I1
sVd3iuaay
p34
I1
sVdgkksk4
p35
I2
sVd99cmdk
p36
I1
sVdd8rc9h
p37
I1
sVd5x9jmg
p38
I1
sVd624sww
p39
I1
sVd5ewoxi
p40
I1
sVdhgs07w
p41
I1
sVdipqw47
p42
I1
sVd273qqk
p43
I1
sVdd1hrm3
p44
I1
sVdhr4dex
p45
I1
sVdquluwr
p46
I1
sVdggzbgr
p47
I1
sVd48uckt
p48
I1
sVdf1ybd9
p49
I1
sVd2cmegg
p50
I1
sVdhh1n4r
p51
I1
sVdc8z9ad
p52
I1
sVczc92xw
p53
I1
sVdh9iu6r
p54
I1
sVdhcje1v
p55
I1
sVd3arxau
p56
I1
sVdf43wu8
p57
I1
sVdd93laj
p58
I1
sVd06efcy
p59
I1
sVcyxd82s
p60
I1
sVdco3t0c
p61
I1
sVdnebamz
p62
I1
sVd45sefn
p63
I1
sVd14726k
p64
I1
sVdb587ll
p65
I1
sVd5zxego
p66
I1
sVd2hk8x3
p67
I1
sVdjtjyy5
p68
I2
sVd94u9ml
p69
I1
sVdfctlzu
p70
I1
sVdhgfiog
p71
I2
sVczi75oy
p72
I1
sVd4y15ib
p73
I1
sVdfwpx2t
p74
I1
sVdhmn44y
p75
I1
sVczgo2d0
p76
I1
sVdi1d8oy
p77
I1
sVdspjp81
p78
I1
sVdbpi28b
p79
I1
sVdisgkqv
p80
I1
sVczyvzxq
p81
I1
sVdd7ga6a
p82
I1
sVdgs6bru
p83
I1
sVd4u4e1u
p84
I1
sVdnb6dhj
p85
I2
sVdat4cgt
p86
I1
sVdcur5kz
p87
I1
sVds7m3uy
p88
I1
sVd5f12nc
p89
I1
sVd4lxzvj
p90
I1
sVd06kz4l
p91
I2
sVdhgrupp
p92
I1
sVdjv0ya1
p93
I1
sVdbtqkn0
p94
I1
sVdfnmzid
p95
I1
sVdf6jrd5
p96
I1
sVdsi74ed
p97
I1
sVdmm6omp
p98
I1
sVd8gcjgh
p99
I1
sVd54lhcq
p100
I1
sVd6s41a8
p101
I1
sVdbjciq2
p102
I1
sVd0jxm26
p103
I1
sVdhhdw94
p104
I1
sVdeomqgv
p105
I3
sVd0upzd7
p106
I1
sVdhi04kp
p107
I1
sVdhgs506
p108
I1
sVcyrs9tk
p109
I1
sVd5eic15
p110
I1
sVdfx2673
p111
I1
sVddwi6fy
p112
I1
sVdi4vfey
p113
I1
sVd74yt1n
p114
I1
sVd9bmged
p115
I2
sVd0wb3x1
p116
I1
sVdhgtap9
p117
I1
sVd6he5ey
p118
I1
sVd5uqhks
p119
I1
sVd9sximl
p120
I1
sVcz7u2x2
p121
I1
sVddd006l
p122
I1
sVd7i5jm2
p123
I1
sVd0vg106
p124
I1
sVczxxtq9
p125
I2
sVddcqlly
p126
I1
sVd0dvt5x
p127
I1
sVdal8tip
p128
I1
sVd0y4aww
p129
I1
sVd3eqoby
p130
I1
sVdb57h9n
p131
I1
sVdhgrz5q
p132
I1
sVdfni5fu
p133
I1
sVdhgnc9r
p134
I1
sVdhgwpa0
p135
I1
sVdbmek2v
p136
I1
sVdf4yi0r
p137
I1
sVd4ks1xu
p138
I1
sVczi50x6
p139
I1
sVd62brtj
p140
I4
sVdgu750a
p141
I1
sVd8a77ge
p142
I1
sVczhiovp
p143
I1
sVcyj4n9g
p144
I1
sVddvbdox
p145
I1
sVdbbvup1
p146
I1
sVd16rl9y
p147
I1
sVd4cx12k
p148
I1
sVd18g55a
p149
I1
sVdhhaiyc
p150
I1
sVdayp7cq
p151
I1
sVcyku68u
p152
I1
sVdijww5y
p153
I1
sVdnhizg7
p154
I1
sVd9p9tms
p155
I1
sVdi00mo9
p156
I1
sVdgg9flx
p157
I1
sVdnh2kxa
p158
I1
sVdt7kc9c
p159
I1
s.