(dp0
Vdb7yqff
p1
I1
sVdtf2t3d
p2
I1
sVdhupkkn
p3
I1
sVd5mxntl
p4
I1
sVd00wu3r
p5
I1
sVcza0wc4
p6
I1
sVdklzxc6
p7
I1
sVd8usawd
p8
I1
sVdqoy3df
p9
I1
sVcytfxvt
p10
I1
sVdfzspk7
p11
I1
sVdglgxir
p12
I1
sVd5z7uvg
p13
I1
sVd4v1oj8
p14
I1
sVdhsxq5t
p15
I1
sVd15l2th
p16
I1
s.