(dp0
Vdi0exw2
p1
I1
sVdt4up9c
p2
I1
sVddoqo20
p3
I2
sVdfoz8li
p4
I1
sVd625kk6
p5
I1
sVdkwk4ei
p6
I1
sVdcy57zp
p7
I2
sVd1qlo9g
p8
I1
sVcz28itb
p9
I1
sVdo912va
p10
I1
sVcymipab
p11
I1
sVdkvr854
p12
I1
sVd5vmjye
p13
I1
sVdq2ouj7
p14
I1
sVd5vufov
p15
I1
sVdhtp9nu
p16
I2
sVczo1gle
p17
I1
sVda3qile
p18
I1
sVdmeuv55
p19
I1
sVdmin6sn
p20
I1
sVd9rhda5
p21
I1
sVczns0lc
p22
I1
sVdedc0a7
p23
I1
sVd21fakl
p24
I1
sVczetb68
p25
I1
sVdo1k5va
p26
I1
sVd91z2pm
p27
I1
sVdnepw44
p28
I1
sVd3kfr8t
p29
I1
sVdcy6xqy
p30
I1
sVdcepjrs
p31
I1
sVdhtq3pu
p32
I1
sVdirqpmy
p33
I1
sVdf1ya43
p34
I1
sVdq1xylr
p35
I1
sVd43o1nu
p36
I1
sVdas23jd
p37
I1
sVdce2fqm
p38
I2
sVd5vpghx
p39
I1
sVd01czgw
p40
I1
sVdcy56o3
p41
I1
sVd203znf
p42
I1
sVdoto3f5
p43
I1
sVd1dvd4f
p44
I1
sVdj9klc5
p45
I1
sVdd4zbaq
p46
I1
sVdi4rz1o
p47
I1
sVd0btvum
p48
I1
sVd8kx31b
p49
I1
sVd0y5wrg
p50
I1
sVd9t71ph
p51
I1
sVcywl1vy
p52
I1
sVdduv9g1
p53
I1
sVcyju54w
p54
I1
sVdqxz37b
p55
I2
sVdgwhc44
p56
I1
sVdgqno9f
p57
I1
sVd2gox1x
p58
I1
sVd290x89
p59
I1
sVd1ni4v9
p60
I1
sVczugsjk
p61
I1
sVdedtgpm
p62
I1
sVd6tlkix
p63
I1
sVd9n0xg3
p64
I4
sVdclkw4e
p65
I1
sVd08qy1d
p66
I1
sVdd5gnsk
p67
I2
sVdjo8yu0
p68
I1
sVddgei1c
p69
I1
sVdcy756d
p70
I1
sVd8fbmay
p71
I1
sVd5vorsa
p72
I1
sVd2fdo65
p73
I1
sVdhet7nj
p74
I1
sVd4i9oa4
p75
I1
sVd4jjobx
p76
I1
sVdcjyvdx
p77
I1
sVdbed51b
p78
I1
sVczz4vo9
p79
I1
sVdr1y967
p80
I1
sVd1yut4v
p81
I1
sVd5vo179
p82
I1
sVdhh59fi
p83
I1
sVdejhcpj
p84
I1
s.