(dp0
Vcykzv4a
p1
I1
s.(dp0
Vcykzv4a
p1
I1
sVd7y2gxc
p2
I1
s.(dp0
Vd8vhsqz
p1
I1
sVcykzv4a
p2
I1
s.(dp0
Vdc4bsq7
p1
I1
sVcykzv4a
p2
I1
s.(dp0
Vdelb9vu
p1
I1
sVcykzv4a
p2
I1
s.(dp0
Vdfaq310
p1
I1
sVcykzv4a
p2
I1
s.(dp0
Vdgng8kn
p1
I1
sVcykzv4a
p2
I1
s.(dp0
Vcykzv4a
p1
I1
sVdihtd9l
p2
I1
s.(dp0
Vcykzv4a
p1
I1
sVdjjes23
p2
I1
s.