(dp0
Vd1labtq
p1
I1
s.(dp0
Vd1labtq
p1
I1
sVd2dtsm5
p2
I1
s.(dp0
Vd1labtq
p1
I1
sVd98q4dy
p2
I1
s.(dp0
Vd1labtq
p1
I1
sVdawb68e
p2
I1
s.(dp0
Vd1labtq
p1
I1
sVdawb68e
p2
I1
s.(dp0
Vd1labtq
p1
I1
sVdbapns9
p2
I1
s.(dp0
Vd1labtq
p1
I1
sVdhlf6au
p2
I1
s.