(dp0
Vd0du9es
p1
I1
sVddscibm
p2
I1
sVcz3vf23
p3
I1
sVdmf12zd
p4
I1
sVd9abk4d
p5
I1
sVd3aex1l
p6
I1
sVczauwd5
p7
I1
sVdhu81iq
p8
I1
sVdhllut1
p9
I1
sVczacg2c
p10
I1
sVdecyaq4
p11
I2
sVdfgejkl
p12
I1
sVdauz9kt
p13
I1
sVde9asz3
p14
I1
sVd8qdrha
p15
I1
sVd2gd9so
p16
I1
sVd2hengs
p17
I1
sVd15ms44
p18
I1
sVd902lai
p19
I1
sVdi1irqh
p20
I1
sVdie10tj
p21
I1
sVd4xnmh8
p22
I1
sVdawpcer
p23
I1
sVdhrhvn4
p24
I1
sVdaa8mxa
p25
I1
sVd1h49gd
p26
I1
sVd380ue5
p27
I1
sVd92tp7r
p28
I1
sVdotoa94
p29
I1
sVd2a4qaa
p30
I1
sVdbsx8g2
p31
I1
s.