(dp0
Vdsxmpnb
p1
I1
sVd8qgv7z
p2
I1
sVddktbs8
p3
I1
sVd5xss54
p4
I1
sVczbyqq1
p5
I1
sVd59hq5r
p6
I1
sVde0tnjw
p7
I1
sVdnd1r63
p8
I1
sVd7qkgs0
p9
I1
sVd8as1jg
p10
I1
sVdn1oho9
p11
I2
sVczitbiu
p12
I1
sVcz84evy
p13
I1
sVdmp4g02
p14
I1
sVd1ybgd7
p15
I1
sVd0elrv1
p16
I1
sVd1r06mj
p17
I1
sVd8jb6v0
p18
I1
sVdkbrzfd
p19
I4
sVdsxnwbx
p20
I1
sVdozemuu
p21
I1
sVd30t5wl
p22
I1
sVde130iv
p23
I1
sVd62gu8e
p24
I3
sVdb3pt7f
p25
I1
sVdg6dmlk
p26
I1
sVdpq9g8w
p27
I1
sVdir7vw9
p28
I1
sVcyrlyyu
p29
I1
sVcz9kcvp
p30
I1
sVd5974op
p31
I1
sVdkvev9g
p32
I1
sVd7nvjz4
p33
I2
sVdkkq3zl
p34
I1
sVczs28ed
p35
I1
sVdp4uvvc
p36
I1
sVcyr1f7f
p37
I1
sVd38eck2
p38
I1
sVd59jwyu
p39
I1
sVdhl9v1c
p40
I1
sVddoa3a7
p41
I1
sVdgwuz2l
p42
I1
sVderdwv1
p43
I1
sVdas86qk
p44
I5
sVdhljvz3
p45
I1
sVd1r3rqx
p46
I1
sVdsxmcff
p47
I1
sVde19220
p48
I1
sVczhj1kt
p49
I1
s.