(dp0
Vcypx4tg
p1
I1
sVd0izqv0
p2
I1
sVdk3ragb
p3
I1
sVdhxyh7x
p4
I1
sVdos0e6a
p5
I2
sVd3qftc2
p6
I1
sVd4sghox
p7
I1
sVdela2n6
p8
I1
sVde8rali
p9
I1
sVczhpmyw
p10
I4
sVd8346z0
p11
I2
sVdaf2z6q
p12
I1
sVd67phzf
p13
I1
sVdah7dur
p14
I1
sVdiqujeu
p15
I1
sVczxenb2
p16
I1
sVd8yvcgc
p17
I1
sVdjmc6lt
p18
I2
sVd8iwr3z
p19
I1
sVd3efov2
p20
I1
sVd36tyns
p21
I1
sVcz8ay3o
p22
I1
sVddps1m3
p23
I1
sVd7mgqjn
p24
I1
sVd0tj502
p25
I1
sVdhifmez
p26
I1
sVd9bgem8
p27
I1
sVdi0t0mh
p28
I1
sVd3ckn8e
p29
I1
sVcz13bsy
p30
I1
sVczimnwb
p31
I1
sVd07w8p6
p32
I1
sVdqm86lf
p33
I1
sVd0eh06o
p34
I1
sVdg69t2i
p35
I1
sVdbvc2hy
p36
I1
sVd28jy97
p37
I1
sVd0qt2gr
p38
I1
sVdnwbwmx
p39
I1
sVczuaith
p40
I2
sVdeey4m7
p41
I1
sVdokw3j4
p42
I1
sVdbknhum
p43
I1
sVd2bv50s
p44
I1
sVd8p1zq8
p45
I1
sVd042no4
p46
I1
sVczoqaos
p47
I1
sVddwggaq
p48
I1
sVddj7tdm
p49
I1
sVdtd5nzj
p50
I1
sVcziash3
p51
I1
sVd7e66b9
p52
I1
sVdmp3kvd
p53
I1
sVdj6gtpx
p54
I1
sVd2kv40q
p55
I2
sVd6idtuq
p56
I1
sVd9d5pse
p57
I1
sVdh3mhfi
p58
I1
sVdf907lu
p59
I1
sVd00tkf1
p60
I1
sVd4cv3hd
p61
I1
sVd19veao
p62
I1
sVdcilo63
p63
I1
sVdditrrb
p64
I1
sVcz6402l
p65
I1
sVd2bbmkr
p66
I4
sVdkdgt1y
p67
I1
sVd59ibjj
p68
I1
sVd5setqv
p69
I1
sVd9zqxga
p70
I1
sVd0y762l
p71
I1
sVdrtdu0r
p72
I1
sVd125tps
p73
I2
sVd6af2tp
p74
I1
sVd5gvp2o
p75
I1
sVd06byoe
p76
I2
sVddregmy
p77
I1
sVdgowszz
p78
I2
sVd275vij
p79
I1
sVd24d6je
p80
I1
sVdcs3svt
p81
I1
sVde6heb5
p82
I1
sVdeprpc1
p83
I1
sVdhk7puh
p84
I1
sVdqrjpsv
p85
I1
sVd8yeju7
p86
I1
sVdiik0wn
p87
I1
sVd2w9axz
p88
I1
sVd0lyfn3
p89
I1
sVddkcoju
p90
I1
sVdt7qquc
p91
I1
sVd6mf40z
p92
I1
sVd7e8g4w
p93
I3
sVd548poa
p94
I2
sVdg7p4k1
p95
I1
sVd5ji5gf
p96
I1
sVdel76ep
p97
I1
sVd0jlpn6
p98
I1
sVd14t0fd
p99
I1
sVdam0igp
p100
I3
sVdicrt87
p101
I3
sVd8c31uo
p102
I1
sVdn1rbxf
p103
I2
sVd4hry7o
p104
I1
sVd7v3w27
p105
I1
sVdkoq5ig
p106
I1
sVdf80cyl
p107
I1
sVdn3ab1j
p108
I1
sVd798s5h
p109
I1
sVdkg2mmc
p110
I1
sVdiuqyjf
p111
I1
sVdctjb6l
p112
I1
sVd0odudw
p113
I1
sVd2usint
p114
I1
sVczh9gpb
p115
I1
sVda5n1r6
p116
I1
sVd3bf5qk
p117
I1
sVd5yvrkl
p118
I1
sVdaa9gj2
p119
I1
sVderatws
p120
I1
sVdr84xsv
p121
I1
sVdeyig4x
p122
I1
sVdd0avy7
p123
I1
sVdbiet6v
p124
I1
sVd627svt
p125
I1
sVdryf52o
p126
I1
sVdb6r1qh
p127
I2
sVdt89qt3
p128
I1
sVd95ne55
p129
I1
sVdbels9q
p130
I2
sVdan5qe5
p131
I1
sVd19hcmn
p132
I1
sVd8n3xnv
p133
I1
sVd3ybcrn
p134
I1
sVd7aq3th
p135
I1
sVddydzms
p136
I1
sVdbed9r5
p137
I1
sVd1iswe2
p138
I1
sVdfty91k
p139
I1
sVda2uc9u
p140
I2
sVd9fz5ez
p141
I1
sVdcy9tmi
p142
I1
sVd0a5oee
p143
I2
sVdberzwc
p144
I1
sVd7ke59k
p145
I1
sVdim5rvd
p146
I1
sVde8v5r0
p147
I3
sVdfbnfp5
p148
I1
sVdfvkv3p
p149
I1
sVdklruzq
p150
I1
sVdi2ujhs
p151
I1
sVdidzx63
p152
I1
sVdde4tvz
p153
I1
sVdco93hh
p154
I1
sVcyo5aeu
p155
I1
sVczrltbl
p156
I1
sVd05saol
p157
I2
sVdiciz14
p158
I1
sVd256t9d
p159
I1
sVdctia2p
p160
I1
sVcyzm4qf
p161
I1
sVcyrpcfl
p162
I1
sVd3q6i1f
p163
I2
sVd2lzcg2
p164
I1
sVd4xzil4
p165
I1
sVdrpbfky
p166
I1
sVd6ip3a3
p167
I1
sVd27bkd3
p168
I1
sVdfhsjtw
p169
I1
sVdi560ck
p170
I3
sVd257llv
p171
I2
sVd37wg9q
p172
I1
sVd4kx4ws
p173
I1
sVd49oo7a
p174
I1
sVdi1qhn5
p175
I6
sVd3nq9u3
p176
I2
sVd5hvlq6
p177
I1
sVd0lyl8r
p178
I1
sVdawzuhg
p179
I2
sVdgvycw1
p180
I1
sVdi03clb
p181
I1
sVcyqt4km
p182
I1
sVd6v45fk
p183
I1
sVdjzdzb6
p184
I1
sVdinjir3
p185
I1
sVdeggrdy
p186
I1
sVd6hd589
p187
I1
sVdeisyw3
p188
I1
sVd3409dn
p189
I1
sVde06l0h
p190
I1
sVddok9gr
p191
I2
sVd6m2pdb
p192
I1
sVdtcikqm
p193
I1
sVd812pix
p194
I1
sVd4pjf61
p195
I1
sVd0yb8qn
p196
I3
sVde8ut39
p197
I1
sVd0trgdz
p198
I1
sVde1clhv
p199
I1
sVdh5x5j2
p200
I3
sVd3jq3ge
p201
I1
sVd0ncb5i
p202
I1
sVd0povjb
p203
I1
sVd5k9r9r
p204
I1
sVdkesju7
p205
I1
sVdrtiiab
p206
I1
sVd40gd0g
p207
I1
sVd3sjrcp
p208
I2
sVde9brfd
p209
I1
sVd2k4yt8
p210
I1
sVdapqii5
p211
I1
sVd7z4o49
p212
I1
sVdkrcfld
p213
I1
sVdo2waut
p214
I1
sVd83ch1x
p215
I2
sVcyqqhv8
p216
I1
sVdo5urjp
p217
I1
sVd1leylq
p218
I1
sVd2i73ho
p219
I2
sVdbn968k
p220
I1
sVdh40t7h
p221
I1
sVddp85rg
p222
I1
sVd7e6z83
p223
I1
sVd69hnvi
p224
I1
sVdcin2xa
p225
I2
sVd9rj80l
p226
I1
sVd0shipd
p227
I1
sVdpy6eko
p228
I1
sVd00gdbt
p229
I1
sVdejg771
p230
I1
sVd82ta42
p231
I1
sVcypni3c
p232
I1
sVdigrtiq
p233
I1
sVd0ozbu2
p234
I1
sVdbeqa10
p235
I2
sVd4cwbdo
p236
I1
sVd7yxkaa
p237
I1
sVd4vb59j
p238
I1
sVdkxcxu0
p239
I1
sVd8f9amo
p240
I4
sVd4e6cix
p241
I1
sVdebi4n7
p242
I1
sVdn4g5sk
p243
I2
sVdaia97f
p244
I1
sVdaslvii
p245
I1
sVd85plcj
p246
I1
sVdbje4c0
p247
I1
sVda33n3r
p248
I1
sVdamampc
p249
I1
sVdakv5uu
p250
I1
sVdeuzmkb
p251
I1
sVddagjpc
p252
I1
sVdqxswjg
p253
I1
sVdb9b1hs
p254
I1
sVdhceh8o
p255
I1
sVde3bwqf
p256
I1
sVdg8hz4h
p257
I1
sVdarhytt
p258
I2
sVdoxa0zi
p259
I1
sVdon3eft
p260
I1
sVdfrq4xs
p261
I1
sVd9m5acm
p262
I1
sVd85l4i7
p263
I1
sVdfo8luq
p264
I1
sVd79tgie
p265
I1
sVd4kfj4g
p266
I1
sVd3vfjuz
p267
I1
sVdn4elst
p268
I2
sVczescx9
p269
I1
sVd9wzglr
p270
I1
sVd3g689o
p271
I1
sVd1x6ji9
p272
I1
sVd1v8fqs
p273
I1
sVdkm9cny
p274
I1
sVdfqawsv
p275
I1
sVdfyxul3
p276
I1
sVd2uufe4
p277
I1
sVdd9z0rk
p278
I1
sVdo7xgx6
p279
I1
sVdk4w78w
p280
I1
sVd07up14
p281
I2
sVdam3cjs
p282
I1
sVddiwlzb
p283
I1
sVdmoei1c
p284
I1
sVcyp8hkl
p285
I2
sVdhdfkq0
p286
I1
sVd0fy5aq
p287
I2
sVddfq729
p288
I1
sVdb1ysb3
p289
I1
sVd342hr6
p290
I1
sVdsyx7bh
p291
I1
sVdai4dgc
p292
I1
sVd2aay08
p293
I1
sVczhrt9i
p294
I1
sVdi64z61
p295
I1
sVd9hcz63
p296
I1
sVdfqu3hy
p297
I1
sVd5j469g
p298
I1
sVd9bppki
p299
I1
sVdf6uvhb
p300
I1
sVdeipe0s
p301
I1
sVczxvjfk
p302
I1
sVdfj766w
p303
I1
sVd8dvyim
p304
I1
sVdon37zs
p305
I1
sVdaeeqap
p306
I1
sVdndvhn8
p307
I1
sVdbly7k1
p308
I1
sVdk4nk63
p309
I1
sVd5esjed
p310
I1
sVdi6jgpm
p311
I2
sVd49sy24
p312
I1
sVdacv33o
p313
I1
sVd390aer
p314
I1
sVczuxkr4
p315
I1
sVd54vw4z
p316
I1
sVd5icivk
p317
I1
sVd3wwg33
p318
I1
sVdbdeloa
p319
I1
sVd2oucha
p320
I2
sVd1c5lc3
p321
I2
sVcynrmwy
p322
I2
sVdiwrc3q
p323
I1
sVdq4klvt
p324
I1
sVd60a5mj
p325
I1
sVd3y0s0g
p326
I1
sVd1dqmdf
p327
I1
sVdio61om
p328
I1
sVd0eewdb
p329
I1
sVddkghhh
p330
I1
sVd5sew7e
p331
I1
sVd68yd5v
p332
I2
sVd9b9649
p333
I1
sVdbgzlr1
p334
I1
sVddsliuz
p335
I2
sVd09id0m
p336
I1
sVdbffvmu
p337
I1
sVdi4jv9g
p338
I1
sVd13y5x2
p339
I1
sVdmxi4gw
p340
I1
sVd0190of
p341
I1
sVdeldtpt
p342
I1
sVd3je6vt
p343
I1
sVd42avfr
p344
I1
sVd17mwh7
p345
I1
sVd0u4b8r
p346
I4
sVdjeya9f
p347
I6
sVdd4ym81
p348
I1
sVd99z1rr
p349
I1
sVdfwlj57
p350
I2
sVd5j0czf
p351
I1
sVcz13v5l
p352
I1
sVdha0e76
p353
I1
sVdrkqvwh
p354
I1
sVd3y5t68
p355
I2
sVd9lhtvq
p356
I1
sVd9ugg1f
p357
I1
sVddyeakp
p358
I1
sVd2gi4xs
p359
I2
sVdih9nl6
p360
I1
sVdruo1pv
p361
I1
sVd1c5pvh
p362
I2
sVcz9fyaj
p363
I1
sVd0okkwa
p364
I1
sVczqswfd
p365
I1
sVd4srtv5
p366
I1
sVd73fgjo
p367
I2
sVd2oiie2
p368
I1
sVd3qpw1m
p369
I1
sVd3k8u44
p370
I2
sVd3qf700
p371
I1
sVdazko74
p372
I2
sVdpfcwpt
p373
I1
sVczoua1t
p374
I1
sVddq5ha4
p375
I1
sVcz9vurj
p376
I1
sVderdp2k
p377
I1
sVczwzoxc
p378
I1
sVde7r9rl
p379
I1
sVddhm4pc
p380
I1
sVdsfvkq6
p381
I1
sVd7echwq
p382
I15
sVdt6xlr4
p383
I1
sVdh5lmke
p384
I1
sVd2xbsqx
p385
I2
sVdh9a0vb
p386
I1
sVczj30qh
p387
I1
sVd7fe12a
p388
I2
sVdi10dxe
p389
I1
sVcz8on93
p390
I1
sVdgelqik
p391
I1
sVd8y16dc
p392
I1
sVd39wsz6
p393
I1
sVdgrisb2
p394
I1
sVde95zyq
p395
I1
sVdf4o7n2
p396
I1
sVd5d5hr8
p397
I1
sVd1kw03e
p398
I1
sVd0lns9b
p399
I1
sVdkr0ksw
p400
I1
sVdoti9oa
p401
I1
sVd90sze9
p402
I1
sVd8xd3w3
p403
I1
sVdmtqh07
p404
I1
sVd8tk3ix
p405
I1
sVczzv7oo
p406
I1
sVd7j8fko
p407
I1
sVdpjr6rb
p408
I2
sVczd5hag
p409
I1
sVddzbyc7
p410
I1
sVdbievlo
p411
I1
sVdh4nmcr
p412
I1
sVdbsed9m
p413
I1
sVdkxjk27
p414
I1
sVd950yb8
p415
I1
sVd1ga5gw
p416
I1
sVd76yqr0
p417
I1
sVd5a4n4y
p418
I2
sVd05kugt
p419
I3
sVddy19cy
p420
I1
sVdfwrr2r
p421
I1
sVd80o9l5
p422
I1
sVdjuoh3a
p423
I1
sVd3391kn
p424
I1
sVda2p8y6
p425
I1
sVdrt1nrj
p426
I1
sVd6ccoz8
p427
I2
sVdfqynwu
p428
I1
sVd4m0oc0
p429
I1
sVdnh9su7
p430
I1
sVcz1xyxt
p431
I1
sVcz7pobo
p432
I1
sVdbqw6gj
p433
I1
sVdbkx2y8
p434
I1
sVd48jywa
p435
I1
sVd6xnken
p436
I2
sVd42g26s
p437
I2
sVd6xfr8t
p438
I1
sVdbzmi8w
p439
I1
sVd01cr0f
p440
I1
sVdrpfs24
p441
I1
sVd9i7fcu
p442
I2
sVd1fox9n
p443
I1
sVcynv73y
p444
I1
sVd074v35
p445
I1
sVd95hgfx
p446
I1
sVdol5jfi
p447
I1
sVdja7q5k
p448
I1
sVdnh5125
p449
I1
sVcyyv109
p450
I1
sVdjd65tq
p451
I1
sVd01n385
p452
I2
sVdh5ljqh
p453
I2
sVd4v4ihh
p454
I1
sVd1eeki4
p455
I1
sVda9bmcn
p456
I1
sVd5vxw84
p457
I4
sVdjnm8f9
p458
I1
sVdsm3na7
p459
I1
sVdesyi08
p460
I1
sVdmt6c6y
p461
I1
sVd8nf9x9
p462
I1
sVdp0cns0
p463
I1
sVdcmpevf
p464
I1
sVdnnu9h3
p465
I1
sVdfq1wxt
p466
I3
sVd8ek67h
p467
I1
sVdjznux4
p468
I1
sVd4f8mwp
p469
I1
sVd51ud8z
p470
I1
sVdjfz8s1
p471
I1
sVdbr5cdg
p472
I1
sVd5zb603
p473
I1
sVd04topp
p474
I4
sVd7efx66
p475
I1
sVd5jh9ds
p476
I1
sVdbpghyv
p477
I1
sVd59i75t
p478
I1
sVd400jqq
p479
I1
sVdheufe0
p480
I1
sVd3xb78i
p481
I4
sVdcst3vg
p482
I3
sVczj31yc
p483
I2
sVd5g8hyy
p484
I1
sVcyj9dvb
p485
I1
sVda5ljjn
p486
I1
sVddjeaq3
p487
I1
sVd2a3gvx
p488
I1
sVdqnkfde
p489
I1
sVde00jao
p490
I1
sVdb7m52i
p491
I1
sVddwhhwi
p492
I1
sVd9x5y46
p493
I1
sVd7tagpu
p494
I1
sVd7u5trg
p495
I1
sVdasbeql
p496
I1
sVdc29xsz
p497
I1
sVdays9cy
p498
I1
sVd9i7ufl
p499
I1
sVdidaghd
p500
I1
sVcyz6xxy
p501
I1
sVdj32otp
p502
I1
sVdojoa3v
p503
I1
sVd1n4jpc
p504
I1
sVd3hiw11
p505
I1
sVd95eshw
p506
I1
sVdcrv31v
p507
I1
sVd8a8qj8
p508
I1
sVdnv3caj
p509
I1
sVde8u6a0
p510
I1
sVde5gu9i
p511
I1
sVdjsozve
p512
I1
sVdag8196
p513
I1
sVdkkdynz
p514
I1
sVdb0045s
p515
I1
sVdqw6g9o
p516
I1
sVdt9rh6e
p517
I1
sVdc7fugk
p518
I1
sVdn1674p
p519
I2
sVddl4fvl
p520
I1
sVdbfu2qa
p521
I1
sVditcb8z
p522
I1
sVdfoxdm3
p523
I1
sVdazlucy
p524
I2
sVdffzeyq
p525
I1
sVday0gbh
p526
I2
sVd2auorm
p527
I1
sVd4nqihb
p528
I1
sVdmsbn0p
p529
I2
sVd0yyy4p
p530
I1
sVd15q7ab
p531
I1
sVdakp9tu
p532
I1
sVd013aw9
p533
I1
sVdgzul9g
p534
I1
sVd1fl03w
p535
I1
sVdrks168
p536
I2
sVdejny0d
p537
I1
sVd2cv72a
p538
I1
sVd7pc89e
p539
I2
sVdekgr8d
p540
I1
sVd7e6zux
p541
I1
sVdfq5pue
p542
I1
sVdaghf9x
p543
I1
sVdfan5wg
p544
I1
sVdfp3hpu
p545
I1
sVd2pvtnc
p546
I1
sVd0r9526
p547
I1
sVcynw827
p548
I1
sVd9z3qef
p549
I1
sVd8bkqda
p550
I1
sVdfycy04
p551
I1
sVd7e89b6
p552
I1
sVdqgs3vs
p553
I1
sVd5yyozy
p554
I1
sVddx5no8
p555
I1
sVd5igtek
p556
I1
sVdcmkl3u
p557
I1
sVdskuou2
p558
I2
sVd0px1qv
p559
I1
sVd0ag6qr
p560
I1
sVdk5nakl
p561
I1
sVd4zf6tl
p562
I1
sVdcel4yy
p563
I1
sVd0tepcc
p564
I2
sVde0o9hk
p565
I1
sVczi85bi
p566
I1
sVda6mb4u
p567
I1
sVd48hsmv
p568
I1
sVddpl2yx
p569
I1
sVda2texz
p570
I3
sVd0a364i
p571
I2
sVdfw13yw
p572
I1
sVd1iah0a
p573
I1
sVdol3c1v
p574
I1
sVczrhyjm
p575
I1
sVcyj6gxj
p576
I1
sVdenw3j5
p577
I1
sVdqdxaez
p578
I1
sVddojkzj
p579
I1
sVcyzggiw
p580
I1
sVdjopsp2
p581
I1
sVdb5gi0v
p582
I1
sVdda0e2p
p583
I1
sVdhxhz3d
p584
I1
sVda17af2
p585
I1
sVdfvttf3
p586
I1
sVd7s1xaf
p587
I1
sVd8qq6n4
p588
I1
sVde40by3
p589
I1
sVczl9k01
p590
I1
sVd6kpi0j
p591
I1
sVda3zu7j
p592
I1
sVdd4rwu7
p593
I1
sVdhumwnr
p594
I1
sVdberu8w
p595
I1
sVde9leoo
p596
I2
sVd2ig4ma
p597
I1
sVdg53vrh
p598
I1
sVdpawxtc
p599
I3
sVdnczjlj
p600
I1
sVd0euha5
p601
I1
sVdh5viyr
p602
I2
sVds92vpq
p603
I1
sVd3y0xoy
p604
I1
sVdjyz1yl
p605
I1
sVdg1bw0h
p606
I1
sVdn7o3xa
p607
I1
sVd1ttu7p
p608
I1
sVd7uzsk9
p609
I1
sVdilzk9l
p610
I2
sVdggqt4f
p611
I1
sVdqo4lyc
p612
I1
sVdajnyi8
p613
I2
sVd5se0et
p614
I1
sVdjl5ftm
p615
I1
sVdiy2dng
p616
I3
sVd07uxs5
p617
I4
sVcylnctg
p618
I1
sVd4wf8oa
p619
I1
sVdd3mlg5
p620
I1
sVd9i5f2j
p621
I1
sVd97idpf
p622
I1
sVdr0wn9l
p623
I1
sVczh1tc9
p624
I1
sVdik9so2
p625
I1
sVd2jq186
p626
I1
sVdi9bj8q
p627
I1
sVdd2vlo8
p628
I1
sVdbp0bgc
p629
I1
sVdedhuul
p630
I1
sVdhpflsw
p631
I1
sVd1lxpg4
p632
I1
sVddavi31
p633
I1
sVd8769o8
p634
I1
sVdncbjvr
p635
I1
sVd0a6wdv
p636
I1
sVd3ys6mp
p637
I1
sVd72s3vq
p638
I1
sVd757f33
p639
I1
sVd9llled
p640
I1
sVdgz2i1l
p641
I1
sVcyrozmt
p642
I1
sVdf7actd
p643
I1
sVdqcbf8x
p644
I1
sVdi68id0
p645
I2
sVdjsibmq
p646
I1
sVdjuotn9
p647
I1
sVcyhvj7m
p648
I2
sVd27mzw5
p649
I1
sVd91derl
p650
I3
sVdart8cy
p651
I1
sVd5mxyg9
p652
I2
sVdchqebs
p653
I1
sVdhnkaxr
p654
I1
sVdao9fni
p655
I3
sVd7njba5
p656
I1
sVdam7c3y
p657
I1
sVdetwf1h
p658
I1
sVd7uls3l
p659
I1
sVd0nm710
p660
I1
sVdh5lmaz
p661
I1
sVdb3b0mz
p662
I2
sVd00dly3
p663
I1
sVdp6j39e
p664
I1
sVdam5e7t
p665
I3
sVddwyk90
p666
I1
sVd6hm86h
p667
I1
sVdk2stvn
p668
I1
sVd4o7ziv
p669
I1
sVdmyhg3j
p670
I4
sVd2bxn1m
p671
I4
sVd3tym1z
p672
I1
sVd7e5n57
p673
I1
sVd3xehum
p674
I2
sVdf09uhq
p675
I2
sVcz7kx58
p676
I1
sVdfwgq03
p677
I4
sVd8hlcek
p678
I1
sVdd8j7yx
p679
I2
sVdh35utd
p680
I1
sVda386w7
p681
I1
sVd5m01os
p682
I1
sVczesqg8
p683
I1
sVd02jak7
p684
I1
sVdgn13xn
p685
I2
sVd4f6mu9
p686
I1
sVdkv5o5a
p687
I1
sVd6hrrmq
p688
I1
sVdomtrg0
p689
I1
sVdbuz8ig
p690
I1
sVdao5dx6
p691
I4
sVdaex1wx
p692
I1
sVdehlogs
p693
I1
sVd1x3p7o
p694
I1
sVd3je3xp
p695
I1
sVd5lygi2
p696
I2
sVderivx9
p697
I1
sVdbdt708
p698
I1
sVd6sqbkm
p699
I1
sVdfyg3qa
p700
I1
sVd0l095h
p701
I1
sVdeoo7qh
p702
I1
sVdfxf9ul
p703
I1
sVd8lumpd
p704
I1
sVdho3w5k
p705
I1
sVd2ig68w
p706
I3
sVdhss6d2
p707
I1
sVdeafsqq
p708
I1
sVd6pk33y
p709
I1
sVdqxpl03
p710
I1
sVd38jiem
p711
I1
sVd7n39gm
p712
I1
sVcypqtqx
p713
I1
sVd1numom
p714
I1
sVd7e6pry
p715
I2
sVdo5tqy0
p716
I1
sVd11v4nn
p717
I1
sVcz2r6nr
p718
I2
sVdeyne26
p719
I3
sVcypojho
p720
I1
sVddg88uw
p721
I1
sVd1xcwcz
p722
I1
sVd0t1axo
p723
I1
sVdf75mky
p724
I1
sVd14i2zu
p725
I1
sVd4o88u9
p726
I2
sVd7tq0un
p727
I1
sVdbn4lf0
p728
I1
sVdds8k2s
p729
I1
sVdbrikqq
p730
I1
sVd9i76je
p731
I1
sVdbx8fi2
p732
I1
sVdca29g8
p733
I3
sVdeachrc
p734
I1
sVczp171c
p735
I1
sVddia9hg
p736
I1
sVdctacr6
p737
I1
sVd8o845h
p738
I1
sVda2uyhq
p739
I1
sVdr1v3v0
p740
I1
sVd8q0vk4
p741
I1
sVdkmxf70
p742
I1
sVd5oezj6
p743
I1
sVd013ylm
p744
I1
sVd2psbz5
p745
I1
sVdql3ydb
p746
I2
sVddcu65y
p747
I1
sVdennmu5
p748
I1
sVd6xu480
p749
I1
sVddf2xb8
p750
I1
sVd0ualxn
p751
I1
sVcz5btqr
p752
I1
sVdgqwsd8
p753
I1
sVdjn94y9
p754
I1
sVcz9sth5
p755
I1
sVdd7ccwc
p756
I1
sVczm4ivj
p757
I1
sVdf2tlwe
p758
I1
sVdcl596d
p759
I1
sVd276ck0
p760
I1
sVcylihz5
p761
I1
sVdo2q2im
p762
I1
sVdmvcu3z
p763
I1
sVd33qjx1
p764
I2
sVcz0qb0d
p765
I1
sVd14q5bi
p766
I2
sVdbhcneg
p767
I1
sVd15pjkm
p768
I1
sVd0lpxrt
p769
I2
sVd0sjsit
p770
I1
sVdgmw8z7
p771
I1
sVd5pwsql
p772
I1
sVd7e8q35
p773
I1
sVd5lx34o
p774
I1
sVczkqzco
p775
I2
sVdbvg1n5
p776
I1
sVd0atf6k
p777
I1
sVd0b1830
p778
I1
sVdenutgk
p779
I1
sVd73lcww
p780
I2
sVd591yay
p781
I2
sVd6pf467
p782
I1
sVczophx2
p783
I1
sVdeht8ch
p784
I1
sVdam1kq8
p785
I2
sVdk41kbl
p786
I1
sVdbgzdww
p787
I1
sVdam8fyt
p788
I1
sVd6hgf63
p789
I1
sVd5pcpef
p790
I1
sVdcpteq2
p791
I1
sVd62vid0
p792
I1
sVdbcfon8
p793
I1
sVdokvdd9
p794
I2
sVd4ncnr9
p795
I1
sVdambx1j
p796
I5
sVd3j8zf7
p797
I1
sVd06wmzs
p798
I1
sVczdvzmc
p799
I1
sVdfofqr8
p800
I1
sVdemh6gc
p801
I2
sVdrqeqou
p802
I1
sVdp7gecq
p803
I1
sVdd4z8ra
p804
I1
sVdmjs7nw
p805
I2
sVd96zkj4
p806
I1
sVdff4r3f
p807
I1
sVczongrr
p808
I1
sVdb5n8ep
p809
I1
sVdien02o
p810
I1
sVdf3mg8y
p811
I1
sVd39xswa
p812
I1
sVczi7784
p813
I1
sVdomzlfi
p814
I1
sVd4c4aeq
p815
I1
sVdi9bnj5
p816
I1
sVdja3ejj
p817
I3
sVd8zbfjp
p818
I1
sVddwgk05
p819
I1
sVdaqkzsd
p820
I2
sVdhotf88
p821
I1
sVdk0tjg2
p822
I2
sVd38ugc6
p823
I1
sVd8yr8vl
p824
I1
sVdaeyqmg
p825
I1
sVdtbv5tm
p826
I1
sVcywwqqf
p827
I1
sVd05koym
p828
I1
sVd3x81lh
p829
I2
sVcz13rd1
p830
I1
sVd9rlcss
p831
I1
sVdqyp0gh
p832
I1
sVczwp2xf
p833
I1
sVdqutwdt
p834
I1
sVdcafcvu
p835
I1
sVdqrk2ky
p836
I4
sVd80tqxx
p837
I1
sVd07ozlj
p838
I1
sVdo668k5
p839
I1
sVd7g1qpk
p840
I1
sVcyuhvcl
p841
I1
sVdht1nat
p842
I1
sVdgxqwnl
p843
I1
sVd2kfx98
p844
I1
sVde2p7a4
p845
I1
sVd2wuthr
p846
I1
sVddtwy85
p847
I1
sVdrx9x0x
p848
I1
sVdho4tmj
p849
I1
sVd4dk6tl
p850
I1
sVdjewp0g
p851
I1
sVd574yvv
p852
I1
sVds8nm2t
p853
I1
sVdp0d545
p854
I1
sVdb5lqn3
p855
I1
sVd5284xz
p856
I1
sVd0mf7jg
p857
I4
sVdkfuydc
p858
I1
sVd1iqn6f
p859
I1
sVdscoh7b
p860
I1
sVdffsl5w
p861
I1
sVddesxq9
p862
I1
sVd367obp
p863
I1
sVdrm1sir
p864
I1
sVd20z7t5
p865
I1
sVdn60jkf
p866
I1
sVdgm4b2a
p867
I2
sVd2x1mi6
p868
I1
sVd44f5lk
p869
I1
sVd7enj3d
p870
I1
sVdo47ipg
p871
I1
sVdhwuuoj
p872
I1
sVd11ofys
p873
I3
sVdjajmpe
p874
I1
sVczct6my
p875
I1
sVd3n802t
p876
I1
sVd4giq0a
p877
I1
sVd1kr8rv
p878
I1
sVdn9vgr1
p879
I1
sVd7qg7hz
p880
I1
sVdj3iojt
p881
I1
sVd68oydd
p882
I1
sVddwhini
p883
I1
sVdk7mz8s
p884
I1
sVd1y6w6g
p885
I1
sVdct9d3v
p886
I1
sVdam8a65
p887
I1
sVd226lg8
p888
I1
sVddq7drp
p889
I1
sVd2jltqo
p890
I1
sVd40lo0j
p891
I1
sVd3oodex
p892
I1
sVdee6h9l
p893
I1
sVd5vp9il
p894
I1
sVcyxht5a
p895
I1
sVcz5u2nn
p896
I1
sVd2arzul
p897
I1
sVdamb7py
p898
I2
sVdqxhxka
p899
I1
sVdpz94yn
p900
I1
sVdka0ooy
p901
I1
sVd49oozq
p902
I1
sVdds9yv4
p903
I1
sVd2qgpua
p904
I1
sVdokvux8
p905
I1
sVdf1v2u3
p906
I1
sVdpej135
p907
I1
sVdj9jqtp
p908
I1
sVcyw8ois
p909
I2
sVd38p983
p910
I1
sVdbobw8u
p911
I1
sVdd6yyuu
p912
I1
sVdq94yak
p913
I1
sVdfqer5k
p914
I2
sVd14ssgg
p915
I1
sVdighy61
p916
I1
sVde3x3fh
p917
I1
sVdasvhie
p918
I1
sVdjqw429
p919
I1
sVdeptl3n
p920
I2
sVdnvwfw5
p921
I1
sVdb39n9m
p922
I1
sVdsfwyhf
p923
I1
sVdkpf5x6
p924
I1
sVdsc1wz2
p925
I1
sVd4zm5pm
p926
I3
sVdhbt6v4
p927
I1
sVd9imrw9
p928
I1
sVd9cn6gu
p929
I1
sVcz6z2ai
p930
I1
sVdpb4ja0
p931
I1
sVdkx4ztu
p932
I1
sVd9zjx5q
p933
I1
sVdiq9nru
p934
I1
sVd6dqrse
p935
I1
sVdjhh3f7
p936
I1
sVczkbr6y
p937
I1
sVd7oiyeo
p938
I1
sVdqfbce4
p939
I1
sVdkfeyda
p940
I1
sVdb3pptq
p941
I1
sVcztb3nx
p942
I1
sVdmeyitm
p943
I1
sVdmjrox1
p944
I1
sVd61pikp
p945
I1
sVdigd65a
p946
I2
sVd0w3hnn
p947
I1
sVde99t63
p948
I1
sVdb01sjq
p949
I1
sVd6i3g6z
p950
I1
sVdfegnqr
p951
I1
sVdol03kn
p952
I1
sVdeogn3o
p953
I1
sVdo39mh9
p954
I2
sVdbggjm3
p955
I1
sVde1s1bw
p956
I1
sVdaammei
p957
I1
sVd2h988d
p958
I1
sVcyzti9k
p959
I1
sVd4sc5ih
p960
I1
sVddtcjgh
p961
I2
sVddjq3gb
p962
I1
sVd7ol3bp
p963
I1
sVdd4s1me
p964
I1
sVdihoj4e
p965
I1
sVdh4wwt2
p966
I1
sVdqzqx3s
p967
I1
sVd68e6h6
p968
I1
sVd7mypvm
p969
I1
sVdqp07xe
p970
I1
sVdtickrk
p971
I1
sVdczi33s
p972
I1
sVd3uplod
p973
I1
sVd8uyr9s
p974
I1
sVd1eib3p
p975
I1
sVd5u096q
p976
I1
sVdejo6qa
p977
I1
sVcz3j03f
p978
I1
sVd36s5z8
p979
I1
sVcyvcs13
p980
I1
sVd8nby2y
p981
I1
sVdcaerm0
p982
I1
sVd3ie8um
p983
I1
sVdgb65hz
p984
I1
sVd9kwhgg
p985
I1
sVd3hcqpo
p986
I1
sVd0a3ggw
p987
I1
sVdhzhuqx
p988
I1
sVczhoyb5
p989
I1
sVd59lf9a
p990
I3
sVd1abskq
p991
I1
sVd6rs1s8
p992
I1
sVdka0a9a
p993
I1
sVczsnl5a
p994
I1
sVczaxi3i
p995
I1
sVdntr990
p996
I1
sVd73e4jy
p997
I1
sVdt56e58
p998
I1
sVddgegba
p999
I1
sVdjdczpl
p1000
I1
sVdrm5cyw
p1001
I1
sVdenu1m6
p1002
I1
sVdhgizk3
p1003
I1
sVd4ikofx
p1004
I1
sVdadusy4
p1005
I1
sVcyv5dvp
p1006
I1
sVdmrrz1r
p1007
I1
sVd41a3uo
p1008
I1
sVczc1km5
p1009
I1
sVd6hzq4j
p1010
I1
sVd7xny1j
p1011
I4
sVd5negzq
p1012
I1
sVdjlb4gk
p1013
I1
sVdh34wff
p1014
I2
sVddhkrmg
p1015
I1
sVdayl6ly
p1016
I1
sVdtggmi8
p1017
I1
sVd1jd8c5
p1018
I1
sVczfmrm3
p1019
I1
sVd8ux62s
p1020
I1
sVdetv6rj
p1021
I1
sVd3dmz64
p1022
I2
sVdb12xam
p1023
I1
sVd4on5kh
p1024
I1
sVd6wcacz
p1025
I1
sVcz41qiw
p1026
I1
sVcz57a2y
p1027
I1
sVd7eqn9c
p1028
I1
sVczl9pdb
p1029
I1
sVdfh0d3m
p1030
I1
sVdjcijxs
p1031
I1
sVd3vr3d5
p1032
I1
sVdbm2u79
p1033
I1
sVdjew7s0
p1034
I5
sVd0izsv6
p1035
I1
sVddolbai
p1036
I1
sVdcxvqi3
p1037
I1
sVd934c0o
p1038
I1
sVd5h6ym3
p1039
I2
sVd7e6o60
p1040
I1
sVd5v3vk2
p1041
I1
sVdam6k1d
p1042
I1
sVdi336h9
p1043
I1
sVd994oeo
p1044
I1
sVdb9wuvy
p1045
I1
sVdmrijmd
p1046
I3
sVdbepqs1
p1047
I1
sVczetmhi
p1048
I2
sVd7o5n57
p1049
I1
sVd0qw92a
p1050
I1
sVd3jbz4j
p1051
I1
sVdh56k8k
p1052
I1
sVdbkzj5o
p1053
I1
sVd0v9mfj
p1054
I1
sVdhy1f2e
p1055
I5
sVd1idkhd
p1056
I1
sVdjahxy7
p1057
I1
sVd8czxwm
p1058
I1
sVd6aj7og
p1059
I1
sVd85zdq7
p1060
I1
sVdd2124c
p1061
I2
sVd6ht7s1
p1062
I5
sVdih96jp
p1063
I1
sVd2ciqmz
p1064
I1
sVd9otuwb
p1065
I1
sVdh9wump
p1066
I1
sVcz84ty3
p1067
I1
sVd77w0ov
p1068
I1
sVdgdug04
p1069
I1
sVdboz5cc
p1070
I1
sVdj7vsod
p1071
I1
sVd17qmqq
p1072
I1
sVd4o7xfk
p1073
I1
sVdam4qox
p1074
I2
sVczp5dzm
p1075
I1
sVdfcvev6
p1076
I1
sVdcvnl66
p1077
I1
sVcz822g4
p1078
I1
sVdrhi8w6
p1079
I1
sVdbepjc9
p1080
I1
sVd0ruhyn
p1081
I1
sVdbrnxu0
p1082
I1
sVdfwtipu
p1083
I1
sVd147bca
p1084
I1
sVdjy64y2
p1085
I1
sVdkq49lf
p1086
I1
sVdg8e9ab
p1087
I1
sVdigqj2v
p1088
I1
sVd0qiiz3
p1089
I3
sVd4dtz3w
p1090
I1
sVdafflk9
p1091
I1
sVdcsyl2j
p1092
I1
sVd00c80q
p1093
I1
sVd10yqkg
p1094
I1
sVdibqh29
p1095
I1
sVdc64190
p1096
I1
sVdn5rg6n
p1097
I1
sVdicp1ad
p1098
I1
sVddve5m4
p1099
I1
sVczyohes
p1100
I2
sVd1ukru2
p1101
I1
sVd0ntmrz
p1102
I1
sVddcuwn4
p1103
I1
sVdokuy2g
p1104
I1
sVdc3yzy4
p1105
I1
sVdijt1na
p1106
I1
sVd2vu507
p1107
I1
sVdkernj8
p1108
I1
sVddt0c17
p1109
I1
sVdin7bl4
p1110
I1
sVdtibx1l
p1111
I1
sVd4fscvs
p1112
I1
sVd97x8pz
p1113
I1
sVcyswew8
p1114
I1
sVd0oy6pk
p1115
I1
sVd74vsdg
p1116
I1
sVd47adjh
p1117
I2
sVd1i0nua
p1118
I1
sVdh67tvl
p1119
I1
sVd3nitca
p1120
I1
sVcynnrcq
p1121
I1
sVd19qyzq
p1122
I1
sVdcxfoat
p1123
I1
sVdpe65x0
p1124
I4
sVdjes5kt
p1125
I1
sVd0ny7n6
p1126
I1
sVdbm9tst
p1127
I1
sVd0wnxdr
p1128
I1
sVdryuvsb
p1129
I1
sVdo83gq4
p1130
I1
sVdc053zx
p1131
I1
sVcz0gfmt
p1132
I2
sVd0lntqk
p1133
I1
sVczwzzo2
p1134
I2
sVdfcpi3w
p1135
I1
sVd1z67qx
p1136
I2
sVd8ydznw
p1137
I1
sVdam9ok5
p1138
I1
sVd0275ib
p1139
I1
sVd0f6eym
p1140
I1
sVd0a07hf
p1141
I1
sVd2niqgv
p1142
I1
sVd0emxis
p1143
I1
sVcylkkva
p1144
I1
sVd7h39aj
p1145
I3
sVdhnaiwt
p1146
I2
sVd7jnvbo
p1147
I1
sVd05oyvf
p1148
I1
sVd0ebgxn
p1149
I1
sVdn7htkm
p1150
I1
sVdj22r5k
p1151
I1
sVdgqfhpe
p1152
I1
sVdq7g98z
p1153
I1
sVd8uujli
p1154
I1
sVddwru4m
p1155
I1
sVd8fvvba
p1156
I1
sVd0wbnbz
p1157
I1
sVcz0al0v
p1158
I1
sVdgr7g6s
p1159
I1
sVd7e1jab
p1160
I2
sVddc3vzb
p1161
I1
sVd3lkut2
p1162
I1
sVdol5820
p1163
I2
sVdh4fz0t
p1164
I4
sVdc6usmu
p1165
I1
sVd0ov3m9
p1166
I1
sVdf81cb6
p1167
I1
sVd0sjy4i
p1168
I1
sVdebo8bl
p1169
I1
sVd7vcot6
p1170
I1
sVdn3vqkq
p1171
I1
sVd02olfi
p1172
I1
sVczka9tj
p1173
I1
sVd2p5xec
p1174
I1
sVdoahntb
p1175
I1
sVddqwznk
p1176
I1
sVczvc8v6
p1177
I1
sVdaet13f
p1178
I1
sVdmz50ge
p1179
I1
sVd51i19l
p1180
I1
sVd7gv2iu
p1181
I1
sVdinzca0
p1182
I1
sVczb3pm4
p1183
I1
sVdj43tex
p1184
I1
s.