(dp0
Vdklw8ct
p1
I1
sVdevfewo
p2
I1
sVd30cs7n
p3
I1
sVdhiqnah
p4
I1
sVd8yvcgc
p5
I1
sVda1bbzo
p6
I1
sVdiskaua
p7
I1
sVdjeh162
p8
I1
sVdk8jk7t
p9
I1
sVdonftqj
p10
I1
sVd0irpzf
p11
I1
sVdrp3s87
p12
I1
sVd6mc2j8
p13
I1
sVd2bv50s
p14
I1
sVdhca0b1
p15
I1
sVd54l3h1
p16
I1
sVdpqw5xe
p17
I1
sVcz5vnnf
p18
I1
sVdheo3xl
p19
I1
sVdp6r0uy
p20
I1
sVd3ta33o
p21
I1
sVdrg4r91
p22
I1
sVd6m4igb
p23
I1
sVdc6ugdr
p24
I1
sVd0i7yag
p25
I1
sVdhww9of
p26
I1
sVdh4xk8k
p27
I1
sVd2kzyns
p28
I1
sVddzl3ae
p29
I1
sVd33lp17
p30
I1
sVdilyklf
p31
I1
sVd1bw2ft
p32
I1
sVcz5i7ho
p33
I1
sVdj2aaz2
p34
I1
sVd8yf41x
p35
I1
sVd5uwwtf
p36
I1
sVd64ujo2
p37
I1
sVd3uuimc
p38
I1
sVd5lxsj6
p39
I1
sVdbw84pl
p40
I1
sVddlu3sz
p41
I1
sVd9ei99e
p42
I1
sVdemezle
p43
I1
sVd9pc0xg
p44
I1
sVd03zjkt
p45
I1
sVdgx2c11
p46
I1
sVcz5d3ec
p47
I1
sVd2kogu5
p48
I1
sVdbgagbn
p49
I1
sVdcyvve1
p50
I1
sVdmxk5ux
p51
I1
sVd01yise
p52
I1
sVdflj7e9
p53
I1
sVd2m3w9t
p54
I1
sVcz2owj2
p55
I1
sVcz06kzq
p56
I1
sVdjge4x5
p57
I1
sVdpvqh0z
p58
I1
sVdcwk2a1
p59
I1
sVd3nq9u3
p60
I1
sVd9ygn9g
p61
I1
sVd0gynut
p62
I1
sVdcu54vg
p63
I1
sVd812pix
p64
I1
sVcyodvuc
p65
I1
sVdj6lfbq
p66
I1
sVdazrzto
p67
I1
sVdd2kg2d
p68
I1
sVdmkc68t
p69
I1
sVdqg8qc8
p70
I1
sVd0tr7fq
p71
I1
sVdgaxz1r
p72
I1
sVd3y7uj4
p73
I1
sVdbyrc33
p74
I1
sVd0nivh1
p75
I1
sVdcxvcqz
p76
I1
sVddngjmz
p77
I1
sVdesglal
p78
I1
sVd3a7cwc
p79
I1
sVdf64h19
p80
I1
sVdeo9k07
p81
I1
sVdaacntn
p82
I1
sVdhjo4kg
p83
I1
sVd87lsvq
p84
I1
sVdiyjur5
p85
I1
sVd54i506
p86
I1
sVd8csm66
p87
I1
sVdrkqvwh
p88
I1
sVdhe5dvh
p89
I1
sVdgshpo2
p90
I1
sVd297tl9
p91
I1
sVd0rtmq3
p92
I1
sVde5o58t
p93
I1
sVd9fiixf
p94
I1
sVdc70p2f
p95
I1
sVdaoyw5u
p96
I1
sVdi4rk0u
p97
I1
sVdn577wp
p98
I1
sVd78jamh
p99
I1
sVd48iv7a
p100
I1
sVd62djgv
p101
I1
sVcyi2odj
p102
I1
sVda7k4le
p103
I1
sVczv3okw
p104
I1
sVd3gcm5u
p105
I1
sVdhjkby9
p106
I1
sVdb2d0og
p107
I1
sVdfwn3sy
p108
I1
sVd5t32rt
p109
I1
sVdal042l
p110
I1
sVdht2kji
p111
I1
sVdbz19hq
p112
I1
sVdbp28da
p113
I1
sVd6nynj9
p114
I1
sVd8wope5
p115
I2
sVdfc0msl
p116
I1
sVd3g52tk
p117
I1
sVdhcm7wm
p118
I1
sVd0qz3jm
p119
I1
sVd0ojq26
p120
I1
sVd9x9puk
p121
I1
sVdbbcv1p
p122
I1
sVdtd78mq
p123
I1
sVd8wkru1
p124
I1
sVdnmcp0c
p125
I2
sVdd9ie2t
p126
I1
sVd747l1m
p127
I1
sVdc9p75b
p128
I2
sVd521cef
p129
I1
sVd174du9
p130
I1
sVd2e9y61
p131
I1
sVd950yb8
p132
I1
sVdo9qzkp
p133
I1
sVdr5kik1
p134
I1
sVd40gd0g
p135
I1
sVd315iq2
p136
I1
sVdo44ffv
p137
I1
sVdfty91k
p138
I1
sVdp7xqto
p139
I1
sVd62ujea
p140
I1
sVd8x0byp
p141
I1
sVddn29qq
p142
I1
sVd92h72z
p143
I1
sVdipmix3
p144
I1
sVdcnmphb
p145
I1
sVd6i73ri
p146
I1
sVdi9hzic
p147
I1
sVdi5007q
p148
I1
sVdjrjx7x
p149
I1
sVde00jao
p150
I1
sVdbxwsee
p151
I1
sVczgxwau
p152
I1
sVd1d4nua
p153
I1
sVdctuvhv
p154
I1
sVczd4iy5
p155
I1
sVd0qx6nx
p156
I1
sVd4bks9p
p157
I1
sVd8wr6kr
p158
I2
sVd36tb0u
p159
I1
sVdc7fugk
p160
I2
sVdffzeyq
p161
I1
sVdj4r53y
p162
I1
sVdgrtei5
p163
I1
sVdd7v3aq
p164
I1
sVd077kkc
p165
I1
sVd2h3aep
p166
I1
sVczobp64
p167
I1
sVdc8qf9v
p168
I1
sVcznkapf
p169
I1
sVdp1zarv
p170
I1
sVdhwng1b
p171
I1
sVdbnu3s3
p172
I1
sVd6trb21
p173
I1
sVdgzdpfd
p174
I1
sVdanqflx
p175
I1
sVdjvkb4a
p176
I1
sVcz9mu1m
p177
I1
sVdsyz4fi
p178
I1
sVdfbgx7x
p179
I1
sVda3zu7j
p180
I1
sVdfbq9gf
p181
I1
sVczg6fg7
p182
I1
sVczu5nzy
p183
I1
sVd3no328
p184
I1
sVd0bv0nd
p185
I1
sVd0i6q83
p186
I1
sVdk2qeku
p187
I1
sVd3um9uw
p188
I1
sVdjcu660
p189
I1
sVdffka5x
p190
I1
sVczcoc8r
p191
I1
sVdiv8ibo
p192
I1
sVd4k91y6
p193
I2
sVd4925r7
p194
I1
sVdawpif5
p195
I1
sVd5upr59
p196
I1
sVd0j9q4a
p197
I2
sVd1wxv0o
p198
I1
sVdguzv6s
p199
I1
sVcz4g156
p200
I1
sVd5y4te5
p201
I1
sVd2shd5w
p202
I1
sVddwyk90
p203
I1
sVd0745cn
p204
I1
sVd6gvmd8
p205
I1
sVddr2704
p206
I1
sVdcqkh5u
p207
I1
sVd76v46k
p208
I1
sVdgfhzg7
p209
I1
sVdhkj83n
p210
I1
sVdjckoj8
p211
I1
sVd3thl1i
p212
I1
sVd485jer
p213
I1
sVd79xph2
p214
I1
sVdn8p3dk
p215
I1
sVda6hbh4
p216
I1
sVd0k4n4d
p217
I1
sVd3rnxd2
p218
I1
sVdhwr0ry
p219
I1
sVd7imxbi
p220
I1
sVdccizxd
p221
I1
sVd2k84d3
p222
I1
sVczm9gtk
p223
I1
sVdbzhecb
p224
I1
sVd05fqqk
p225
I1
sVddlvcw4
p226
I1
sVd2isu4o
p227
I1
sVczfbgm4
p228
I1
sVdiaedxj
p229
I1
sVd1tbgcq
p230
I1
sVdi7n4hc
p231
I1
sVd4wthuv
p232
I1
sVd3yezia
p233
I1
sVddf2xb8
p234
I1
sVdee6h9l
p235
I1
sVdpvaoui
p236
I1
sVdbosmvv
p237
I1
sVcyote8f
p238
I1
sVds8r6h4
p239
I2
sVd7qw30g
p240
I1
sVdc2r5nt
p241
I1
sVdp1w8ds
p242
I1
sVddcbjoq
p243
I1
sVd43rj8v
p244
I1
sVdbz3luh
p245
I1
sVdnzv3wu
p246
I1
sVd1ri068
p247
I1
sVd8hoqy1
p248
I1
sVcyqj4hl
p249
I1
sVcziokzk
p250
I1
sVdbgobhr
p251
I1
sVd0xp6t1
p252
I1
sVcyr39mo
p253
I1
sVddf7jd6
p254
I1
sVds3flfd
p255
I1
sVdg67nyv
p256
I1
sVdfzuzmy
p257
I1
sVd8wosv7
p258
I1
sVdc7oe3t
p259
I1
sVd4730k9
p260
I1
sVde2p7a4
p261
I1
sVd7l4ock
p262
I1
sVd6zz1y5
p263
I1
sVd3q52tf
p264
I1
sVd8xh84u
p265
I1
sVd4n74xf
p266
I1
sVdn3g3de
p267
I1
sVdg9dw8n
p268
I1
sVdgo1rbk
p269
I1
sVd5i1whm
p270
I1
sVdioqo1y
p271
I1
sVdj3iojt
p272
I1
sVd9gyel4
p273
I1
sVddwhini
p274
I1
sVd24wnrs
p275
I1
sVcz484d8
p276
I1
sVd4n2ti8
p277
I1
sVd3cbjlq
p278
I1
sVdd7gn9v
p279
I1
sVczxrqyt
p280
I1
sVdgpdxhh
p281
I1
sVdaz1ztp
p282
I1
sVd0tglmk
p283
I1
sVdczcj57
p284
I1
sVd3iyl73
p285
I1
sVcyzti9k
p286
I1
sVdc6l6tw
p287
I1
sVd3udzwg
p288
I1
sVdd2z8zm
p289
I1
sVdomwyh1
p290
I1
sVd41qx5o
p291
I1
sVcz13pf6
p292
I1
sVd3y5t68
p293
I1
sVd9uijgo
p294
I1
sVd5guntt
p295
I1
sVdatv0jt
p296
I1
sVd0hbetr
p297
I1
sVdapkvg1
p298
I1
sVd9kdwfn
p299
I1
sVdt7evkf
p300
I1
sVcz1y7of
p301
I1
sVdb5e68z
p302
I1
sVdozvaxm
p303
I1
sVdn67tii
p304
I1
sVd7qeyhv
p305
I1
sVdhtepqh
p306
I1
sVdtgtddj
p307
I1
sVd1iss1b
p308
I1
sVda5bnlv
p309
I1
sVd1s6zyi
p310
I1
sVd45c4xc
p311
I1
sVdpjr6rb
p312
I1
sVdrfk6zl
p313
I1
sVd4p1fcm
p314
I1
sVd2v2zzw
p315
I1
sVdau4f7i
p316
I1
sVd2vl4sl
p317
I1
sVczghcsl
p318
I1
sVdoj6oy8
p319
I1
sVdcn7k14
p320
I1
sVdteim2d
p321
I1
sVd2ranv2
p322
I1
sVczstm7h
p323
I1
sVd8srcih
p324
I1
sVdehbj9g
p325
I1
sVd20yt2h
p326
I1
sVd3qpw1m
p327
I1
sVdav6vab
p328
I1
sVczl2410
p329
I1
sVd5ttfw5
p330
I1
sVd6jbtv7
p331
I1
sVdam4o9g
p332
I1
sVdmfu4b3
p333
I1
sVd2txcae
p334
I1
sVdnu3vn0
p335
I1
sVd6htngi
p336
I1
sVd3samav
p337
I1
sVd3lnrun
p338
I1
sVcz2tmwi
p339
I1
sVdpm6oh5
p340
I1
sVd6ub63i
p341
I1
sVdd41dwk
p342
I1
sVczw9bze
p343
I1
sVd9a3ee7
p344
I1
sVdjzo6ow
p345
I1
sVde7ffrr
p346
I1
sVd3y8zug
p347
I1
sVd0s5ubm
p348
I1
sVdbe786d
p349
I1
sVd1ukru2
p350
I1
sVdmeyitm
p351
I1
sVdkv5wtb
p352
I1
sVdcbogbt
p353
I1
sVdejnyqn
p354
I1
sVczozql2
p355
I1
sVd7hj2o6
p356
I1
sVd0l0fu3
p357
I1
sVdom2yb1
p358
I1
sVd61m28g
p359
I1
sVd5238p8
p360
I1
sVd4liffv
p361
I1
sVdhxl4ds
p362
I1
sVdezkort
p363
I1
sVd3e48pc
p364
I1
sVdezos5m
p365
I1
sVdpz5hg0
p366
I2
sVdebvx6w
p367
I1
sVczrc90e
p368
I1
sVd1f0674
p369
I2
sVd13d758
p370
I1
sVczur83s
p371
I1
sVdi5fiq8
p372
I1
sVczz9h7x
p373
I1
sVdev51s2
p374
I1
sVcz6sim5
p375
I1
sVcymf73u
p376
I1
sVd0exr6q
p377
I1
sVd7re6us
p378
I2
sVdqh5af5
p379
I1
s.