(dp0
Vcz7hlrc
p1
I1
sVcyxgx17
p2
I2
sVd0lj5gw
p3
I1
sVd032zr8
p4
I1
sVdc0kjpw
p5
I1
sVdro5w93
p6
I1
sVd5ploe4
p7
I1
sVdblv54l
p8
I1
sVd033ozx
p9
I1
sVd72xvo8
p10
I5
sVd2k2qvb
p11
I1
sVd319eah
p12
I1
sVdsbdwqd
p13
I1
sVdg9ge8i
p14
I1
sVd6xb69y
p15
I1
sVdiywxjs
p16
I1
sVddwn495
p17
I2
sVdbyab4b
p18
I1
sVd1chqum
p19
I1
sVdbfoqqy
p20
I2
sVd3pfg4n
p21
I1
sVd6ws9jh
p22
I1
sVcylhsmj
p23
I1
sVdk51d2e
p24
I1
sVdco6dkj
p25
I3
sVcz6gn1n
p26
I1
sVdkdpfx4
p27
I2
sVdql9ntg
p28
I1
sVdrfsgvi
p29
I1
sVd6c623g
p30
I1
sVd003owu
p31
I1
sVd2ztejp
p32
I1
sVdbfzuox
p33
I1
sVd318ws5
p34
I2
sVd2f8wsc
p35
I1
sVd0795ku
p36
I1
sVd7ngnzi
p37
I1
sVd4qsmi4
p38
I3
sVd5eg9at
p39
I1
sVdql8o7e
p40
I1
sVcyv8sdh
p41
I1
sVcylgy7j
p42
I1
sVd1kp4me
p43
I1
sVd1kojra
p44
I2
sVd9bh1ru
p45
I1
sVditoeb2
p46
I2
sVdkh53sf
p47
I1
sVd00poh8
p48
I1
sVd2dyjj6
p49
I1
sVdh9pilz
p50
I2
sVdehac68
p51
I3
sVdaq4ru7
p52
I1
sVdjqidnj
p53
I1
sVdha7lrh
p54
I1
sVcyi1g32
p55
I1
sVd2f2xnx
p56
I3
sVdhr8qqk
p57
I2
sVdehb0ed
p58
I2
sVdj0f1d6
p59
I1
sVd382cf0
p60
I1
sVd0n3xi7
p61
I1
sVdaq1uvp
p62
I2
sVdb7ylko
p63
I1
sVdmsxt2a
p64
I2
sVdhbxlyj
p65
I1
sVd1kw03e
p66
I1
sVd64etvw
p67
I1
sVdeze6ep
p68
I1
sVdej8pby
p69
I3
sVdjzzj71
p70
I2
sVdg19dis
p71
I1
sVd2vaalc
p72
I5
sVdglxz76
p73
I2
sVd1kzbv7
p74
I2
sVd9dj11h
p75
I1
sVdh9oiwn
p76
I7
sVd3svcse
p77
I1
sVd80vjyx
p78
I1
sVd8bngl1
p79
I1
sVd434866
p80
I2
sVd6kaex1
p81
I1
sVd6c5fn7
p82
I1
sVczv5e9q
p83
I2
sVdghn4c1
p84
I1
sVdglvxro
p85
I2
sVddkdqs6
p86
I1
sVdbfy9md
p87
I1
sVdc0968z
p88
I1
sVd6znuxh
p89
I1
sVdcu54vg
p90
I1
sVd7vqr8d
p91
I1
sVd2bgm1u
p92
I1
sVda6o1h1
p93
I1
sVdhlmosc
p94
I1
sVdbtm4k5
p95
I1
sVdcocnvp
p96
I1
sVczzde8t
p97
I1
sVd34qajn
p98
I1
sVd7lp44o
p99
I1
sVdi0fx2a
p100
I1
sVdd37jh4
p101
I1
sVd6ewonn
p102
I1
sVdf6q3g3
p103
I1
sVd1l0bys
p104
I1
sVdjavntz
p105
I2
sVd02pvls
p106
I1
sVcyornea
p107
I1
sVd3mpsjz
p108
I1
sVdewb7oq
p109
I1
sVd5wz4xg
p110
I1
sVd7nfo5c
p111
I3
sVczvkib2
p112
I5
sVd0lct32
p113
I1
sVdbt7vj9
p114
I2
sVdfnd0fy
p115
I1
sVd6cq9xe
p116
I1
sVd8eofhy
p117
I3
sVd6c0wwd
p118
I1
sVd4xmu2z
p119
I1
sVdisjgmc
p120
I1
sVd7nemp3
p121
I1
sVd4xma7r
p122
I1
sVdjr9653
p123
I1
sVd02qhbv
p124
I6
sVd40a70o
p125
I1
sVd40j5ha
p126
I2
sVdgv8kcp
p127
I1
sVdco67ii
p128
I4
sVdmmfbvw
p129
I1
sVdjaw2gk
p130
I1
sVdjp2xsx
p131
I1
sVd1yf8o7
p132
I1
sVd4u5v3d
p133
I1
sVdjdczpl
p134
I1
sVdglowwv
p135
I3
sVd2k213h
p136
I1
sVd032pxd
p137
I3
sVdjauzio
p138
I1
sVd7b56xq
p139
I1
sVdgj87hy
p140
I1
sVd9t67zh
p141
I1
sVd1rvpph
p142
I1
sVd5aaxe4
p143
I1
sVdjp3n1o
p144
I2
sVd6kuu3n
p145
I1
sVd0npqlp
p146
I1
sVdd8jelb
p147
I10
sVdmppq2w
p148
I1
sVd2ihxj0
p149
I5
sVczgpvv5
p150
I1
sVcyo6h8t
p151
I1
sVd1r8cq5
p152
I1
sVd5qtxf6
p153
I2
sVdfa7qf9
p154
I1
sVdfv93k6
p155
I2
sVd9m2l42
p156
I1
sVdezevy5
p157
I2
sVdfu5db4
p158
I1
sVdsufhhm
p159
I2
sVdh48cle
p160
I1
sVd90xguu
p161
I2
sVdabljxt
p162
I2
sVd0092co
p163
I1
sVd3yw9q9
p164
I1
sVd6j0olz
p165
I1
sVdofihxz
p166
I1
sVd6ql8ak
p167
I1
sVdezxkva
p168
I1
sVdecprnw
p169
I1
sVdqkcnm1
p170
I1
sVdjlxphw
p171
I1
sVczv671v
p172
I2
sVczceprn
p173
I1
sVd6j2mzd
p174
I2
sVdmsyfmk
p175
I2
sVd5grmfb
p176
I2
sVddwqpw1
p177
I1
sVdmurlks
p178
I1
sVd4iomy2
p179
I1
sVd1hyjfm
p180
I1
sVd319cb9
p181
I4
sVczjiz4g
p182
I1
sVd3xpx5a
p183
I1
sVdg19y8q
p184
I2
sVczzwoip
p185
I1
sVd3vtx28
p186
I1
s.