(dp0
Vdd1r8fi
p1
I1
sVdqskd4v
p2
I1
sVdd4rfjp
p3
I1
sVd0nymuf
p4
I1
sVdgpds06
p5
I1
sVdbb47qw
p6
I1
sVdk51d2e
p7
I1
sVcyog3md
p8
I1
sVd8d1de1
p9
I1
sVdb9sk1b
p10
I1
sVdmpd1ze
p11
I1
sVdoe9k2k
p12
I1
sVdbj7yke
p13
I1
sVdpry734
p14
I1
sVd23nkvz
p15
I1
sVdfeu18l
p16
I1
sVd719lhv
p17
I1
sVd5xs9cb
p18
I1
sVd718gao
p19
I1
sVd38tlak
p20
I1
sVd5cc9q3
p21
I1
sVd71a99q
p22
I1
sVcyzeaol
p23
I1
sVdq00shd
p24
I1
sVd4xnmh8
p25
I1
sVdhvk8yj
p26
I1
sVd3bje84
p27
I1
sVd9r2bxw
p28
I1
sVd71828z
p29
I1
sVd5plms0
p30
I1
sVdbjj5me
p31
I1
sVczy64tb
p32
I1
sVd3zupo3
p33
I1
sVdgdv7bo
p34
I1
sVdczl9ui
p35
I1
sVdowe9xv
p36
I1
sVdom5rg2
p37
I1
sVdfif80y
p38
I1
sVdirldae
p39
I1
sVd70quqv
p40
I1
sVdf3d0ht
p41
I1
sVdcr85um
p42
I1
sVd0o6hfj
p43
I2
sVd24h8j7
p44
I1
sVdoz53xs
p45
I1
sVdizzg7l
p46
I1
sVczuxx1q
p47
I1
sVdee3775
p48
I1
sVczdgdp2
p49
I1
sVd717y50
p50
I2
sVde7tklf
p51
I1
sVczgk6f5
p52
I1
sVczagii2
p53
I1
sVdggs7o8
p54
I1
sVd1k0s94
p55
I2
s.