(dp0
Vd010838
p1
I1
sVd6l7mcz
p2
I2
sVd0o0lvq
p3
I1
sVdicntyz
p4
I1
sVd3406jc
p5
I1
sVcz7glts
p6
I2
sVd03xugx
p7
I1
sVdivece0
p8
I1
sVds96drl
p9
I1
sVcz7s5q7
p10
I1
sVdk8fw89
p11
I1
sVdsmk5oe
p12
I1
sVd12cfrn
p13
I1
sVd3qhm0w
p14
I1
sVd53u861
p15
I1
sVd61ot6f
p16
I1
sVdeppt1w
p17
I1
sVd83veuf
p18
I1
sVdmowqi1
p19
I1
s.