(dp0
Vcywfghg
p1
I1
s.(dp0
Vd13howg
p1
I1
sVcywfghg
p2
I1
s.(dp0
Vd4kvykd
p1
I1
sVcywfghg
p2
I1
s.(dp0
Vd5t9ycf
p1
I1
sVcywfghg
p2
I1
s.(dp0
Vdb549um
p1
I1
sVcywfghg
p2
I1
s.(dp0
Vdb5aue1
p1
I1
sVcywfghg
p2
I1
s.(dp0
Vdbfupxa
p1
I1
sVcywfghg
p2
I1
s.(dp0
Vdclrn6p
p1
I1
sVcywfghg
p2
I1
s.(dp0
Vdd52r0i
p1
I1
sVcywfghg
p2
I1
s.(dp0
Vdepq84q
p1
I1
sVcywfghg
p2
I1
s.(dp0
Vdgoqhcu
p1
I1
sVcywfghg
p2
I1
s.(dp0
Vdh13jwp
p1
I1
sVcywfghg
p2
I1
s.(dp0
Vdi7e5bq
p1
I1
sVcywfghg
p2
I1
s.(dp0
Vdk96bhn
p1
I1
sVcywfghg
p2
I1
s.(dp0
Vdkb7kx9
p1
I1
sVcywfghg
p2
I1
s.(dp0
Vcywfghg
p1
I1
sVdn4tz9g
p2
I1
s.(dp0
Vdrlkcst
p1
I1
sVcywfghg
p2
I1
s.(dp0
Vdsmo2zc
p1
I1
sVcywfghg
p2
I1
s.