(dp0
Vdpdur6d
p1
I1
sVdkg3wbz
p2
I1
sVdefx7fy
p3
I1
sVd5bpfk4
p4
I1
sVd5u5zos
p5
I1
sVdcbhbde
p6
I1
sVdhjcfk7
p7
I1
sVdfdqnck
p8
I1
sVdb24w73
p9
I1
sVdqdiqs8
p10
I1
sVdqtnerq
p11
I1
sVdixa8i6
p12
I2
sVdhn6u7x
p13
I1
sVd0m8hah
p14
I1
sVdk24we7
p15
I1
sVdex715z
p16
I1
sVd0b2024
p17
I1
sVd1v8ksv
p18
I1
sVd9t4mnh
p19
I1
sVdpj75rc
p20
I1
sVd5nq0cy
p21
I1
sVd3lep09
p22
I1
sVcynx73u
p23
I1
sVd3bapm7
p24
I2
sVdff6xgq
p25
I1
sVdibi3tg
p26
I1
sVdi4nkzq
p27
I1
sVda8rej3
p28
I1
sVd62bnc6
p29
I1
sVdsjlzra
p30
I2
sVd2scawm
p31
I1
sVd9bnqp2
p32
I1
sVddyc1r6
p33
I1
sVdon4pql
p34
I1
sVdcktypz
p35
I1
sVd23s58f
p36
I1
sVdkllwh3
p37
I2
sVdf2cr2m
p38
I1
sVdarbki0
p39
I2
sVd57zgco
p40
I1
sVdjrcs5q
p41
I1
sVdaxmi55
p42
I2
sVddavr9n
p43
I1
sVddcuwn4
p44
I1
sVde8281h
p45
I1
sVdn19o8h
p46
I2
sVdin6pm1
p47
I1
sVdmg4d6i
p48
I1
sVdk7umx6
p49
I1
sVd76k9i8
p50
I1
s.