(dp0
Vcyj9pcj
p1
I1
s.(dp0
Vcyj9pcj
p1
I1
sVcyjatml
p2
I1
s.(dp0
Vcyj9pcj
p1
I1
sVcyjb2m9
p2
I1
s.(dp0
Vcyj9pcj
p1
I1
sVcymgynb
p2
I1
s.(dp0
Vcyj9pcj
p1
I1
sVcys9eq0
p2
I1
s.(dp0
Vcyj9pcj
p1
I1
sVcyshhhr
p2
I1
s.(dp0
Vcyj9pcj
p1
I1
sVcyshhhr
p2
I1
s.(dp0
Vcyt3xam
p1
I1
sVcyj9pcj
p2
I1
s.(dp0
Vcyj9pcj
p1
I1
sVcz1sgao
p2
I1
s.(dp0
Vcyj9pcj
p1
I1
sVczawy4c
p2
I1
s.(dp0
Vcyj9pcj
p1
I1
sVczbnomo
p2
I1
s.(dp0
Vcyj9pcj
p1
I1
sVczcz9ac
p2
I1
s.(dp0
Vcyj9pcj
p1
I1
sVczld154
p2
I1
s.(dp0
Vcyj9pcj
p1
I1
sVczntvw8
p2
I1
s.(dp0
Vcyj9pcj
p1
I1
sVczntz4e
p2
I1
s.(dp0
Vcyj9pcj
p1
I1
sVczwgs9f
p2
I1
s.(dp0
Vcyj9pcj
p1
I1
sVczx9h3n
p2
I1
s.(dp0
Vcyj9pcj
p1
I1
sVczzuqya
p2
I1
s.(dp0
Vd03z26v
p1
I1
sVcyj9pcj
p2
I1
s.(dp0
Vcyj9pcj
p1
I1
sVd09f038
p2
I1
s.(dp0
Vcyj9pcj
p1
I1
sVd09f038
p2
I1
s.(dp0
Vcyj9pcj
p1
I1
sVd0d2xdo
p2
I1
s.(dp0
Vcyj9pcj
p1
I1
sVd0dnksl
p2
I1
s.(dp0
Vcyj9pcj
p1
I1
sVd0eihk9
p2
I1
s.(dp0
Vcyj9pcj
p1
I1
sVd0jcskc
p2
I1
s.(dp0
Vcyj9pcj
p1
I1
sVd0oznxg
p2
I1
s.(dp0
Vcyj9pcj
p1
I1
sVd0t8ciy
p2
I1
s.(dp0
Vcyj9pcj
p1
I1
sVd0t91cg
p2
I1
s.(dp0
Vd14chbw
p1
I1
sVcyj9pcj
p2
I1
s.(dp0
Vcyj9pcj
p1
I1
sVd1irvpo
p2
I1
s.(dp0
Vcyj9pcj
p1
I1
sVd27tepd
p2
I1
s.(dp0
Vcyj9pcj
p1
I1
sVd27u2fm
p2
I1
s.(dp0
Vcyj9pcj
p1
I1
sVd27u2fm
p2
I1
s.(dp0
Vcyj9pcj
p1
I1
sVd2cwly9
p2
I1
s.(dp0
Vcyj9pcj
p1
I1
sVd2cy3q3
p2
I1
s.(dp0
Vcyj9pcj
p1
I1
sVd2cy3q3
p2
I1
s.(dp0
Vcyj9pcj
p1
I1
sVd2d218q
p2
I1
s.(dp0
Vcyj9pcj
p1
I1
sVd2d218q
p2
I1
s.(dp0
Vcyj9pcj
p1
I1
sVd2d3rf1
p2
I1
s.(dp0
Vcyj9pcj
p1
I1
sVd2dp932
p2
I1
s.(dp0
Vd2gj83e
p1
I1
sVcyj9pcj
p2
I1
s.(dp0
Vd2gj83e
p1
I1
sVcyj9pcj
p2
I1
s.(dp0
Vd2jojo1
p1
I1
sVcyj9pcj
p2
I1
s.(dp0
Vcyj9pcj
p1
I1
sVd2l88mh
p2
I1
s.(dp0
Vcyj9pcj
p1
I1
sVd2q08o0
p2
I1
s.(dp0
Vcyj9pcj
p1
I1
sVd2q08o0
p2
I1
s.(dp0
Vd2q25dg
p1
I1
sVcyj9pcj
p2
I1
s.(dp0
Vcyj9pcj
p1
I1
sVd2q9xmy
p2
I1
s.(dp0
Vcyj9pcj
p1
I1
sVd2rsz3x
p2
I1
s.(dp0
Vcyj9pcj
p1
I1
sVd3bk89g
p2
I1
s.(dp0
Vcyj9pcj
p1
I1
sVd3f0quz
p2
I1
s.(dp0
Vcyj9pcj
p1
I1
sVd3gifuq
p2
I1
s.(dp0
Vcyj9pcj
p1
I1
sVd3kwg5j
p2
I1
s.(dp0
Vcyj9pcj
p1
I1
sVd3l40ip
p2
I1
s.(dp0
Vcyj9pcj
p1
I1
sVd3onbbd
p2
I1
s.(dp0
Vcyj9pcj
p1
I1
sVd3pbdzs
p2
I1
s.(dp0
Vcyj9pcj
p1
I1
sVd3pbdzs
p2
I1
s.(dp0
Vd3v8ewx
p1
I1
sVcyj9pcj
p2
I1
s.(dp0
Vcyj9pcj
p1
I1
sVd3vntxw
p2
I1
s.(dp0
Vcyj9pcj
p1
I1
sVd41kjw1
p2
I1
s.(dp0
Vcyj9pcj
p1
I1
sVd437axh
p2
I1
s.(dp0
Vcyj9pcj
p1
I1
sVd47jnov
p2
I1
s.(dp0
Vcyj9pcj
p1
I1
sVd4qn2h4
p2
I1
s.(dp0
Vcyj9pcj
p1
I1
sVd4qrai0
p2
I1
s.(dp0
Vcyj9pcj
p1
I1
sVd4rl75f
p2
I1
s.(dp0
Vcyj9pcj
p1
I1
sVd59jveu
p2
I1
s.(dp0
Vd5aqpj0
p1
I1
sVcyj9pcj
p2
I1
s.(dp0
Vcyj9pcj
p1
I1
sVd628nih
p2
I1
s.(dp0
Vcyj9pcj
p1
I1
sVd6ww0xz
p2
I1
s.(dp0
Vcyj9pcj
p1
I1
sVd76sj49
p2
I1
s.(dp0
Vcyj9pcj
p1
I1
sVd7q4cib
p2
I1
s.(dp0
Vcyj9pcj
p1
I1
sVd862qmh
p2
I1
s.(dp0
Vcyj9pcj
p1
I1
sVd862qmh
p2
I1
s.(dp0
Vcyj9pcj
p1
I1
sVd8c54tb
p2
I1
s.(dp0
Vcyj9pcj
p1
I1
sVd9e7ya5
p2
I1
s.(dp0
Vcyj9pcj
p1
I1
sVd9fl1xu
p2
I1
s.(dp0
Vcyj9pcj
p1
I1
sVd9ozjs0
p2
I1
s.(dp0
Vcyj9pcj
p1
I1
sVd9ty3j4
p2
I1
s.(dp0
Vcyj9pcj
p1
I1
sVd9zyay6
p2
I1
s.(dp0
Vcyj9pcj
p1
I1
sVdaodil5
p2
I1
s.(dp0
Vcyj9pcj
p1
I1
sVdars4h5
p2
I1
s.(dp0
Vcyj9pcj
p1
I1
sVdb5hef8
p2
I1
s.(dp0
Vcyj9pcj
p1
I1
sVdbga2l2
p2
I1
s.(dp0
Vcyj9pcj
p1
I1
sVdbga2l2
p2
I1
s.(dp0
Vcyj9pcj
p1
I1
sVdbrhzfh
p2
I1
s.(dp0
Vcyj9pcj
p1
I1
sVdd3mlg5
p2
I1
s.(dp0
Vcyj9pcj
p1
I1
sVdd6cep0
p2
I1
s.(dp0
Vcyj9pcj
p1
I1
sVdd94bir
p2
I1
s.(dp0
Vcyj9pcj
p1
I1
sVdd9n4d9
p2
I1
s.(dp0
Vcyj9pcj
p1
I1
sVdd9q2f5
p2
I1
s.(dp0
Vcyj9pcj
p1
I1
sVdd9szh7
p2
I1
s.(dp0
Vcyj9pcj
p1
I1
sVdd9vodq
p2
I1
s.(dp0
Vcyj9pcj
p1
I1
sVddpvvzv
p2
I1
s.(dp0
Vcyj9pcj
p1
I1
sVddpvvzv
p2
I1
s.(dp0
Vcyj9pcj
p1
I1
sVddux4c0
p2
I1
s.(dp0
Vddy9dmf
p1
I1
sVcyj9pcj
p2
I1
s.(dp0
Vcyj9pcj
p1
I1
sVde6tyco
p2
I1
s.(dp0
Vcyj9pcj
p1
I1
sVde78el6
p2
I1
s.(dp0
Vcyj9pcj
p1
I1
sVde795v3
p2
I1
s.(dp0
Vcyj9pcj
p1
I1
sVdeg054k
p2
I1
s.(dp0
Vcyj9pcj
p1
I1
sVdeicmgv
p2
I1
s.(dp0
Vcyj9pcj
p1
I1
sVdek45ie
p2
I1
s.(dp0
Vcyj9pcj
p1
I1
sVdekq96u
p2
I1
s.(dp0
Vcyj9pcj
p1
I1
sVdencvnq
p2
I1
s.(dp0
Vcyj9pcj
p1
I1
sVdencvnq
p2
I1
s.(dp0
Vcyj9pcj
p1
I1
sVdencvnq
p2
I1
s.(dp0
Vcyj9pcj
p1
I1
sVdepl2o5
p2
I1
s.(dp0
Vcyj9pcj
p1
I1
sVdfk5n8n
p2
I1
s.(dp0
Vcy(dp0
Vdthltts
p1
I1
sVcyj9pcj
p2
I1
s.