(dp0
Vdgg5mhm
p1
I1
sVd15rwt3
p2
I1
sVd3ecf2b
p3
I1
sVdao4tbp
p4
I1
sVcywtvoq
p5
I1
sVd9sj53k
p6
I1
sVdjbtuxo
p7
I1
sVd8uxw59
p8
I1
sVdh4wds8
p9
I1
sVczjxinv
p10
I1
sVdhsgvef
p11
I1
sVd3qa5mi
p12
I1
sVd806ib5
p13
I1
sVdrks42k
p14
I1
sVd9d6lr4
p15
I1
sVdfwz3n2
p16
I1
sVd1tz8ek
p17
I1
sVdnnkzys
p18
I1
sVd1y9nz3
p19
I1
sVcyj75ou
p20
I1
sVddojexa
p21
I1
sVd1nudzx
p22
I1
s.