(dp0
Vcyzii9r
p1
I1
sVcyyz4bd
p2
I1
sVdq5osqt
p3
I1
sVd44s897
p4
I1
sVd6q2jfs
p5
I1
sVd5039f8
p6
I1
sVdhos2ah
p7
I1
sVdhorodo
p8
I1
sVcyyztqm
p9
I1
sVcykeffh
p10
I1
sVcykenuv
p11
I1
sVddf2kbj
p12
I2
sVdhffylp
p13
I1
s.