(dp0
Vdef8v2j
p1
I1
sVd2qdk4n
p2
I1
sVd1p9i5u
p3
I1
sVdc7jhiq
p4
I1
sVd20ul2s
p5
I2
sVd73i79n
p6
I3
sVd9y85ob
p7
I1
sVdbg6h13
p8
I1
sVdknbcy7
p9
I1
sVd9oqycw
p10
I2
sVdhmf9kx
p11
I1
sVd43hc6t
p12
I1
sVdc7hz8z
p13
I1
sVdk72mn1
p14
I1
sVd3i3y0a
p15
I1
sVd2z2kd8
p16
I1
sVdcolp4z
p17
I1
sVdn63g8m
p18
I1
sVd8jlntc
p19
I1
sVd00h3bw
p20
I1
sVda14tez
p21
I1
sVd47v19o
p22
I1
sVcyq2g28
p23
I1
sVd69wogy
p24
I2
sVdsn2l4b
p25
I4
sVd2cdyf4
p26
I2
sVd9vbzmb
p27
I1
sVd2i7t4i
p28
I2
sVdnvxfup
p29
I1
sVcyza0rp
p30
I1
sVdk54e4v
p31
I1
sVcz23v9f
p32
I1
sVdfkv02o
p33
I2
sVdad4dic
p34
I1
sVdjbdzba
p35
I1
sVd44rpug
p36
I1
sVdg7a0c0
p37
I1
sVdfwqp2s
p38
I1
sVd9k9w8j
p39
I4
sVd44rlho
p40
I2
sVdc20ilj
p41
I1
sVd9nwn1c
p42
I1
sVdktykr2
p43
I1
sVd19fee1
p44
I2
sVdewk0st
p45
I1
sVd2b3txi
p46
I4
sVdksm6ng
p47
I1
sVd6m2h0g
p48
I3
sVdmx21sg
p49
I3
sVdmwe9kj
p50
I1
sVd2ineuc
p51
I1
sVd2awqve
p52
I2
s.