(dp0
Vdalmjy8
p1
I1
sVczqov4j
p2
I1
sVczzo631
p3
I1
sVdky303o
p4
I2
sVd9y55vu
p5
I1
sVdgy42qx
p6
I1
sVd0vxqb7
p7
I1
sVdnque56
p8
I1
sVdcusxaw
p9
I3
sVdec4s5c
p10
I1
sVd9hn4nq
p11
I1
sVdk4llmz
p12
I1
sVd9r2072
p13
I1
sVcyyu0zr
p14
I1
sVdfcgk5z
p15
I1
sVdqwfux2
p16
I1
sVdci8eeu
p17
I1
sVdnmojqm
p18
I1
sVd2n3rmm
p19
I1
sVd209e47
p20
I1
sVd3j1mkg
p21
I1
sVd6jmfsz
p22
I1
sVdci181x
p23
I1
sVcztxyob
p24
I1
sVd325j2j
p25
I5
sVdt3nwds
p26
I1
sVdcau74n
p27
I1
sVdhjcog5
p28
I1
sVdt2wt1g
p29
I1
sVd0t3di5
p30
I1
sVdg7vlos
p31
I1
sVd20ul2s
p32
I1
sVdgmubxp
p33
I1
sVdkkqmhz
p34
I1
sVdj425g5
p35
I1
sVdc2dasa
p36
I1
sVcyuol9r
p37
I1
sVdinnhe9
p38
I1
sVdbkvr21
p39
I2
sVd7ldmuv
p40
I1
sVdi3k4ay
p41
I1
sVddmzjcp
p42
I1
sVdbrjt47
p43
I1
sVd9biiek
p44
I1
sVdkmpt68
p45
I1
sVdky6kos
p46
I1
sVdng8mp5
p47
I1
sVd8gq43k
p48
I1
sVd5y79up
p49
I1
sVde54ro1
p50
I5
sVdelf6qu
p51
I1
sVd9d8wjw
p52
I2
sVdg8a1cq
p53
I1
sVczultki
p54
I1
sVcyjas25
p55
I1
sVd959w6x
p56
I2
sVd24zysm
p57
I1
sVdamvyn3
p58
I1
sVd81mad4
p59
I2
sVczayy7b
p60
I1
sVdt53zxv
p61
I1
sVditcu7r
p62
I1
sVddxzsy8
p63
I1
sVdejkizu
p64
I1
sVd4lx5p6
p65
I1
sVdrl1jx4
p66
I2
sVd2zsirr
p67
I1
sVdemqded
p68
I1
sVd0wp86t
p69
I1
sVdmo0xpl
p70
I1
sVdc2dcds
p71
I1
sVdb9341a
p72
I1
sVde1fbs7
p73
I1
sVdcg2x98
p74
I1
sVdc3xnav
p75
I1
sVd1clfm7
p76
I1
sVdgkexwg
p77
I1
sVdb17b07
p78
I1
sVdqtta5t
p79
I1
sVd4qllac
p80
I1
sVcyoopwv
p81
I1
sVdmqcsuk
p82
I1
sVdn2qn7c
p83
I1
sVdiurj7v
p84
I1
sVdhd92nx
p85
I1
sVdsj44i9
p86
I3
sVdnnefpy
p87
I1
sVdqn5tun
p88
I1
sVdp09w9q
p89
I1
sVd2qd3vx
p90
I1
sVd4yqnbu
p91
I1
sVczswax8
p92
I1
sVdhjzqha
p93
I1
sVdjd8o5a
p94
I1
sVd3jchjn
p95
I1
sVd1qgffm
p96
I1
sVd33vq9x
p97
I1
sVd4tiqp9
p98
I1
sVdn0djku
p99
I2
sVd8x4f32
p100
I1
sVdanyo52
p101
I3
sVdivtega
p102
I1
sVd1du1bw
p103
I3
sVczqfrab
p104
I1
sVd2ew1qb
p105
I1
sVd8c3vz9
p106
I1
sVdbeowxa
p107
I1
sVdki9g1x
p108
I1
sVdkz2wsm
p109
I3
sVcztffyk
p110
I1
sVd5jy9z5
p111
I1
sVd4h74fk
p112
I1
sVdi4fx20
p113
I1
sVcyj7rg9
p114
I1
sVd8vacho
p115
I1
s.