(dp0
Vcyi3z8d
p1
I1
s.(dp0
Vcyi3z8d
p1
I1
sVcyid6lr
p2
I1
s.(dp0
Vcyi3z8d
p1
I1
sVcyijzk0
p2
I1
s.(dp0
Vcyi3z8d
p1
I1
sVcyisaf1
p2
I1
s.(dp0
Vcyi3z8d
p1
I1
sVcyiwod2
p2
I1
s.(dp0
Vcyi3z8d
p1
I1
sVcyiz0p3
p2
I1
s.(dp0
Vcyi3z8d
p1
I1
sVcyj8p62
p2
I1
s.(dp0
Vcyi3z8d
p1
I1
sVcyja59y
p2
I1
s.(dp0
Vcyi3z8d
p1
I1
sVcyjiwjt
p2
I1
s.(dp0
Vcyi3z8d
p1
I1
sVcyjlqa6
p2
I1
s.(dp0
Vcyi3z8d
p1
I1
sVcyjlqa6
p2
I1
s.(dp0
Vcyi3z8d
p1
I1
sVcyjmv6o
p2
I1
s.(dp0
Vcyi3z8d
p1
I1
sVcyjmv6o
p2
I1
s.(dp0
Vcyjsi9f
p1
I1
sVcyi3z8d
p2
I1
s.(dp0
Vcyjsi9f
p1
I1
sVcyi3z8d
p2
I1
s.(dp0
Vcyi3z8d
p1
I1
sVcyjtusm
p2
I1
s.(dp0
Vcyi3z8d
p1
I1
sVcykcl7h
p2
I1
s.(dp0
Vcyi3z8d
p1
I1
sVcykdn04
p2
I1
s.(dp0
Vcyi3z8d
p1
I1
sVcyksaa8
p2
I1
s.(dp0
Vcyi3z8d
p1
I1
sVcyksaa8
p2
I1
s.(dp0
Vcyktquj
p1
I1
sVcyi3z8d
p2
I1
s.(dp0
Vcyi3z8d
p1
I1
sVcym642k
p2
I1
s.(dp0
Vcymptia
p1
I1
sVcyi3z8d
p2
I1
s.(dp0
Vcyi3z8d
p1
I1
sVcymr9rh
p2
I1
s.(dp0
Vcyi3z8d
p1
I1
sVcymx9gw
p2
I1
s.(dp0
Vcyi3z8d
p1
I1
sVcymyq4l
p2
I1
s.(dp0
Vcyi3z8d
p1
I1
sVcymyymg
p2
I1
s.(dp0
Vcyi3z8d
p1
I1
sVcyn1a4j
p2
I1
s.(dp0
Vcyi3z8d
p1
I1
sVcyn1a4j
p2
I1
s.(dp0
Vcyi3z8d
p1
I1
sVcyn4dy0
p2
I1
s.(dp0
Vcyi3z8d
p1
I1
sVcynbb3v
p2
I1
s.(dp0
Vcynbjg4
p1
I1
sVcyi3z8d
p2
I1
s.(dp0
Vcyi3z8d
p1
I1
sVcynonz7
p2
I1
s.(dp0
Vcyi3z8d
p1
I1
sVcynonz7
p2
I1
s.(dp0
Vcyi3z8d
p1
I1
sVcynonz7
p2
I1
s.(dp0
Vcyi3z8d
p1
I1
sVcynonz7
p2
I1
s.(dp0
Vcyi3z8d
p1
I1
sVcynymlq
p2
I1
s.(dp0
Vcyi3z8d
p1
I1
sVcynymlq
p2
I1
s.(dp0
Vcyi3z8d
p1
I1
sVcynymlq
p2
I1
s.(dp0
Vcyi3z8d
p1
I1
sVcynz398
p2
I1
s.(dp0
Vcyi3z8d
p1
I1
sVcyo974v
p2
I1
s.(dp0
Vcyi3z8d
p1
I1
sVcyo974v
p2
I1
s.(dp0
Vcyi3z8d
p1
I1
sVcyo9a38
p2
I1
s.(dp0
Vcyi3z8d
p1
I1
sVcyo9a38
p2
I1
s.(dp0
Vcyi3z8d
p1
I1
sVcyo9a38
p2
I1
s.(dp0
Vcyi3z8d
p1
I1
sVcyofvym
p2
I1
s.(dp0
Vcyi3z8d
p1
I1
sVcyp261o
p2
I1
s.(dp0
Vcyi3z8d
p1
I1
sVcyp2n20
p2
I1
s.(dp0
Vcyi3z8d
p1
I1
sVcyp7c3m
p2
I1
s.(dp0
Vcyi3z8d
p1
I1
sVcypxqmn
p2
I1
s.(dp0
Vcyqnqha
p1
I1
sVcyi3z8d
p2
I1
s.(dp0
Vcyi3z8d
p1
I1
sVcyqzgla
p2
I1
s.(dp0
Vcyi3z8d
p1
I1
sVcyruoju
p2
I1
s.(dp0
Vcyi3z8d
p1
I1
sVcyruoju
p2
I1
s.(dp0
Vcyi3z8d
p1
I1
sVcysalwc
p2
I1
s.(dp0
Vcyi3z8d
p1
I1
sVcyt744d
p2
I1
s.(dp0
Vcyt7fyk
p1
I1
sVcyi3z8d
p2
I1
s.(dp0
Vcyi3z8d
p1
I1
sVcyteo7k
p2
I1
s.(dp0
Vcyi3z8d
p1
I1
sVcytsrz5
p2
I1
s.(dp0
Vcyi3z8d
p1
I1
sVcytxda7
p2
I1
s.(dp0
Vcyi3z8d
p1
I1
sVcyuao26
p2
I1
s.(dp0
Vcyi3z8d
p1
I1
sVcyuao26
p2
I1
s.(dp0
Vcyi3z8d
p1
I1
sVcyuiq95
p2
I1
s.(dp0
Vcyi3z8d
p1
I1
sVcyujcy6
p2
I1
s.(dp0
Vcyi3z8d
p1
I1
sVcyunsfa
p2
I1
s.(dp0
Vcyi3z8d
p1
I1
sVcyuqnmi
p2
I1
s.(dp0
Vcyi3z8d
p1
I1
sVcyut9j0
p2
I1
s.(dp0
Vcyi3z8d
p1
I1
sVcyv4305
p2
I1
s.(dp0
Vcyi3z8d
p1
I1
sVcyv4305
p2
I1
s.(dp0
Vcyi3z8d
p1
I1
sVcyvb4z2
p2
I1
s.(dp0
Vcyw69n5
p1
I1
sVcyi3z8d
p2
I1
s.(dp0
Vcyi3z8d
p1
I1
sVcywes73
p2
I1
s.(dp0
Vcyi3z8d
p1
I1
sVcywqo86
p2
I1
s.(dp0
Vcyi3z8d
p1
I1
sVcywqo86
p2
I1
s.(dp0
Vcyi3z8d
p1
I1
sVcywqo86
p2
I1
s.(dp0
Vcyi3z8d
p1
I1
sVcywqo86
p2
I1
s.(dp0
Vcyi3z8d
p1
I1
sVcyx2r8t
p2
I1
s.(dp0
Vcyi3z8d
p1
I1
sVcyx2r8t
p2
I1
s.(dp0
Vcyi3z8d
p1
I1
sVcyxqb0q
p2
I1
s.(dp0
Vcyi3z8d
p1
I1
sVcyy3iga
p2
I1
s.(dp0
Vcyi3z8d
p1
I1
sVcyybbqx
p2
I1
s.(dp0
Vcyi3z8d
p1
I1
sVcyyf97b
p2
I1
s.(dp0
Vcyi3z8d
p1
I1
sVcyyhqtn
p2
I1
s.(dp0
Vcyi3z8d
p1
I1
sVcyywc48
p2
I1
s.(dp0
Vcyi3z8d
p1
I1
sVcyywc48
p2
I1
s.(dp0
Vcyi3z8d
p1
I1
sVcyz7bqc
p2
I1
s.(dp0
Vcyi3z8d
p1
I1
sVcyze2y8
p2
I1
s.(dp0
Vcyi3z8d
p1
I1
sVcyzf72v
p2
I1
s.(dp0
Vcyi3z8d
p1
I1
sVcz0al0v
p2
I1
s.(dp0
Vcyi3z8d
p1
I1
sVcz218ew
p2
I1
s.(dp0
Vcyi3z8d
p1
I1
sVcz227oe
p2
I1
s.(dp0
Vcyi3z8d
p1
I1
sVcz227oe
p2
I1
s.(dp0
Vcz2b32k
p1
I1
sVcyi3z8d
p2
I1
s.(dp0
Vcyi3z8d
p1
I1
sVcz2v3hk
p2
I1
s.(dp0
Vcyi3z8d
p1
I1
sVcz2zvto
p2
I1
s.(dp0
Vcyi3z8d
p1
I1
sVcz34b1o
p2
I1
s.(dp0
Vcyi3z8d
p1
I1
sVcz3wvj9
p2
I1
s.(dp0
Vcyi3z8d
p1
I1
sVcz4371i
p2
I1
s.(dp0
Vcyi3z8d
p1
I1
sVcz4kldu
p2
I1
s.(dp0
Vcyi3z8d
p1
I1
sVcz4osz3
p2
I1
s.(dp0
Vcyi3z8d
p1
I1
sVcz4qa6k
p2
I1
s.(dp0
Vcyi3z8d
p1
I1
sVcz4qd82
p2
I1
s.(dp0
Vcyi3z8d
p1
I1
sVcz4qd82
p2
I1
s.(dp0
Vcyi3z8d
p1
I1
sVcz5018x
p2
I1
s.(dp0
Vcyi3z8d
p1
I1
sVcz5018x
p2
I1
s.(dp0
Vcyi3z8d
p1
I1
sVcz553s2
p2
I1
s.(dp0
Vcyi3z8d
p1
I1
sVcz5aiux
p2
I1
s.(dp0
Vcyi3z8d
p1
I1
sVcz5caco
p2
I1
s.(dp0
Vcy(dp0
Vcyi3z8d
p1
I1
sVdtixpj0
p2
I1
s.