(dp0
Vdguxk9j
p1
I1
sVd73suv2
p2
I1
sVdehttgl
p3
I2
sVcz6q62m
p4
I1
sVdbfh811
p5
I2
sVdho8m3a
p6
I1
sVcz4vfkd
p7
I1
sVd2w2tsy
p8
I2
sVd1rhdfv
p9
I1
sVczjz3vx
p10
I1
sVdkgz3bj
p11
I2
sVd9ij39r
p12
I4
sVd1sgids
p13
I1
sVd1ra361
p14
I1
sVd8jdw43
p15
I1
sVdb8k73w
p16
I1
sVczl4aan
p17
I1
sVd806ib5
p18
I1
sVdfqmclx
p19
I1
sVd1n76ix
p20
I1
sVddpxqdq
p21
I3
sVd5lfj76
p22
I1
sVd80ou20
p23
I1
sVd9mingc
p24
I1
sVczu6bnn
p25
I1
sVcz5swc3
p26
I3
sVdsku15n
p27
I2
sVd5yugc2
p28
I1
sVd66pe34
p29
I1
sVd2o4vg3
p30
I1
sVd5c9iem
p31
I1
sVd3cfcxl
p32
I1
sVd3oey6x
p33
I1
sVd2hkult
p34
I2
sVd5es539
p35
I1
sVd9h7dak
p36
I1
sVd5u5zos
p37
I1
sVdnlw7dk
p38
I1
sVd8kblp4
p39
I1
sVdbr7jzj
p40
I2
sVda4y4jt
p41
I2
sVdguz9w7
p42
I1
sVdc1iwcx
p43
I1
sVdeldlhq
p44
I1
sVdgiciqq
p45
I1
sVd6ahf6d
p46
I2
sVdda6j1s
p47
I1
sVdi07h4b
p48
I1
sVdpez3l6
p49
I2
sVdbzyp54
p50
I1
sVdb721jd
p51
I1
sVdq9v5o8
p52
I1
sVderatws
p53
I2
sVdr2h5le
p54
I2
sVd2tm5ze
p55
I1
sVd5g1zab
p56
I1
sVd73qbgb
p57
I2
sVd60p9s6
p58
I1
sVdd2eyxc
p59
I1
sVdhrcgfp
p60
I2
sVczjgzi6
p61
I1
sVdbztbex
p62
I1
sVdtei26f
p63
I1
sVd3xwacs
p64
I1
sVdfn2mia
p65
I1
sVcyxdux6
p66
I1
sVds7p2rh
p67
I1
sVdcgf4kr
p68
I4
sVd1mcq8d
p69
I1
sVdnnebw1
p70
I1
sVdmqp9mu
p71
I1
sVdqo7mh4
p72
I1
sVd3xgvn1
p73
I2
sVd2x6rb4
p74
I1
sVd6ajzoa
p75
I1
sVd3lx43b
p76
I1
sVd1p4ge9
p77
I1
sVd2gmp9f
p78
I1
sVd8upeuf
p79
I2
sVd5lac02
p80
I2
sVd1qyyzb
p81
I1
sVdc05p5c
p82
I3
sVd4u8yro
p83
I2
sVdnoie4h
p84
I1
sVd757ibn
p85
I1
sVdmfjzvp
p86
I1
sVd4u0jb8
p87
I1
sVd9i1zel
p88
I1
sVdijr96b
p89
I1
sVd2dg72c
p90
I1
sVd7q9e5i
p91
I1
sVd2jtje9
p92
I1
sVd2onbas
p93
I1
sVd0gm9v5
p94
I1
sVd9njc2d
p95
I5
sVd8lnbgj
p96
I1
sVczhot11
p97
I1
sVczqdzfo
p98
I1
sVd2hsoh0
p99
I2
sVcykmjqv
p100
I1
sVd25aexq
p101
I1
sVd1f47u7
p102
I1
sVd68677t
p103
I1
sVdmqanc9
p104
I1
sVddksws5
p105
I1
sVdrfckeh
p106
I2
sVda8oaus
p107
I1
sVdc13mtz
p108
I1
sVdda75nn
p109
I1
sVcyj1773
p110
I1
sVdi6fc2g
p111
I1
sVdr00jyp
p112
I7
sVd7y3my2
p113
I2
sVd0sinye
p114
I1
sVdfd1h6o
p115
I2
sVdog6yzj
p116
I1
sVdmy5cjw
p117
I3
sVcyo2xw9
p118
I1
sVd09967v
p119
I1
sVcyjwdan
p120
I1
sVdd1audw
p121
I2
sVdgx4vl6
p122
I1
sVdaqfyp4
p123
I1
sVcyk81gs
p124
I1
sVd0ll6ip
p125
I1
sVd0cvw2l
p126
I1
sVde4byrh
p127
I1
sVd8yc6f1
p128
I1
sVdczwqrc
p129
I2
sVdnbmp63
p130
I2
sVdjzxjd4
p131
I1
sVd8zhbrz
p132
I1
sVdjwy3gz
p133
I1
sVdhcm1xn
p134
I1
sVdbyz8ja
p135
I1
sVcyjmb2q
p136
I1
sVdbit2xw
p137
I1
sVd1wsm7y
p138
I1
sVd5z2pd3
p139
I1
sVdgqebfp
p140
I1
sVd0ddzn6
p141
I4
sVdcgmx4m
p142
I1
sVdky0ck4
p143
I1
sVdfbjp8a
p144
I2
sVdkr2ojs
p145
I1
sVdbkryvf
p146
I1
sVd9ryrb2
p147
I1
sVdc2t54a
p148
I4
sVdezcflb
p149
I1
sVdgkkkyn
p150
I1
sVd1vbp96
p151
I1
sVdn1oho9
p152
I8
sVdi85w6v
p153
I1
sVd4kwy9j
p154
I1
sVczxt4nc
p155
I1
sVdc051c5
p156
I1
sVd5usnif
p157
I1
sVd5c8ij1
p158
I1
sVdk54jet
p159
I1
sVd1i9h2b
p160
I1
sVd2a1mdw
p161
I1
sVd77dsd8
p162
I1
sVdspkj8v
p163
I1
sVd4ndwkg
p164
I1
sVddn92lb
p165
I1
sVdsqngx3
p166
I1
sVdnkx0e5
p167
I1
sVd4ayek7
p168
I1
sVdp060fj
p169
I1
sVdj2i3b6
p170
I1
sVdd7lenr
p171
I1
sVd6to7j3
p172
I2
sVcyib8mx
p173
I1
sVd4hzw9h
p174
I2
sVdp4w56o
p175
I2
sVdbza9yl
p176
I1
sVdja1ca3
p177
I3
sVdpipby5
p178
I2
sVdijmi92
p179
I1
sVdfoyaqi
p180
I3
sVd6rl4j1
p181
I1
sVd9r94dc
p182
I1
sVd8ybbhc
p183
I1
sVdsc7hhz
p184
I2
sVdcb0fca
p185
I1
sVdbet003
p186
I1
sVdbhip2p
p187
I1
sVdepwxw3
p188
I1
sVd5vd5la
p189
I1
sVdjp4b2g
p190
I1
sVdcxnuwc
p191
I2
sVdb1qe6b
p192
I1
sVd3ecbwo
p193
I2
sVd8ez6d1
p194
I1
sVd2hx5ll
p195
I1
sVd638h2j
p196
I2
sVdicubw7
p197
I2
sVdjn45qo
p198
I1
sVdidarrf
p199
I1
sVdn1ywkp
p200
I1
sVdd4jq29
p201
I1
sVd8czfek
p202
I1
sVd1pl9ca
p203
I1
sVdp47nmy
p204
I1
sVdnos2dr
p205
I2
sVd7xkcgc
p206
I1
sVd0xitcj
p207
I2
sVczm525h
p208
I1
sVddf3pmi
p209
I1
sVd33ie03
p210
I1
sVd32dc7p
p211
I2
sVdnp2ime
p212
I1
sVd5oih9u
p213
I1
sVdfknm44
p214
I2
sVdsm27ny
p215
I1
sVdhyrgah
p216
I1
sVdsjsd8k
p217
I6
sVdskqgnh
p218
I2
sVdhipvnq
p219
I1
sVd35jcue
p220
I1
sVdew734g
p221
I2
sVdjz0kgm
p222
I2
sVcywcfux
p223
I1
sVdeze96z
p224
I1
sVd47vb06
p225
I1
sVdtia0dp
p226
I1
sVdfnozxb
p227
I1
sVdaklbdp
p228
I1
sVd0m4qp1
p229
I1
sVdo0g2cv
p230
I1
sVcz93m20
p231
I1
sVd4h9lu7
p232
I1
sVdhh2itq
p233
I1
sVdtbv5tm
p234
I1
sVd49wgfd
p235
I2
sVd36njkg
p236
I1
sVcznol5p
p237
I1
sVd85azy7
p238
I2
sVd9mtp01
p239
I1
sVdgj6erq
p240
I1
sVczrjxsk
p241
I1
sVdhdkc38
p242
I1
sVd9awsi8
p243
I1
sVdfn26m2
p244
I1
sVcz9gdo5
p245
I1
sVd99psin
p246
I1
sVdeey8f5
p247
I1
sVd69yqug
p248
I1
sVd7fchlp
p249
I1
sVdmw43bt
p250
I2
sVde5qz3s
p251
I1
sVdd5s4ir
p252
I1
sVd2xt68d
p253
I1
sVdeceloc
p254
I1
sVde5st08
p255
I1
sVd9x5821
p256
I1
sVd47ig8f
p257
I3
sVdk7vds7
p258
I1
sVdiqe7zi
p259
I1
sVdgpltwr
p260
I1
sVdmq2usw
p261
I1
sVd03wq2p
p262
I1
sVdieatwp
p263
I1
sVdcviv12
p264
I1
sVdfqo1cv
p265
I4
sVd4p8fak
p266
I1
sVd6d976q
p267
I2
sVd69jhqz
p268
I1
sVcypke92
p269
I1
sVdejndwt
p270
I1
sVd00uikz
p271
I2
sVdcfgnfn
p272
I2
sVd7rl9yf
p273
I1
sVdksvpca
p274
I1
sVcywm1dg
p275
I1
sVd5i8eu0
p276
I2
sVdbk2pv9
p277
I1
sVd6hd425
p278
I2
sVd3z9dyg
p279
I2
sVday7p6z
p280
I1
sVdjcgq82
p281
I3
sVd8j51ra
p282
I1
sVd1hq7lt
p283
I1
sVcyuipxe
p284
I1
sVdii75i2
p285
I1
sVd09m4qf
p286
I3
sVdknu13e
p287
I1
sVdbj9hk2
p288
I1
sVd45vzhx
p289
I1
sVd4aem8g
p290
I1
sVd20iotc
p291
I1
sVdmxrker
p292
I1
sVcyu6xdn
p293
I2
sVd6vejv8
p294
I1
sVd9p9cf8
p295
I1
sVdbtww58
p296
I2
sVd20alhj
p297
I1
sVcywal4v
p298
I1
sVd5tuj9h
p299
I1
sVdf834ao
p300
I1
sVd3m1sy3
p301
I1
sVdaxn8dg
p302
I1
sVd7vlcaz
p303
I1
sVd1tkcv4
p304
I1
sVd16zsk4
p305
I2
sVd7ldyuc
p306
I1
sVdejoy19
p307
I1
sVdpml09x
p308
I2
sVdg3zar6
p309
I1
sVd4jsxhv
p310
I1
sVd4t4s7i
p311
I2
sVdfcp3dd
p312
I3
sVd4i8lvl
p313
I17
sVdjw82i1
p314
I1
sVddneox2
p315
I1
sVczs9tlq
p316
I1
sVdfrr59r
p317
I2
sVdgwgp7k
p318
I1
sVd8xvdit
p319
I1
sVdnh3jaw
p320
I2
sVd7bcvk2
p321
I1
sVd03z45b
p322
I1
sVd2j9by3
p323
I1
sVdgd31in
p324
I1
sVdivt3x6
p325
I2
sVcznz0fm
p326
I1
sVdbnd1nj
p327
I1
sVd2tc042
p328
I1
sVd546npe
p329
I2
sVd2dzbf1
p330
I4
sVd37t6fj
p331
I1
sVdac9rou
p332
I1
sVdc7vgfj
p333
I1
sVdgum1v5
p334
I1
sVdhah3jo
p335
I1
sVd09d5w1
p336
I1
sVde36tx1
p337
I1
sVd1ejdzs
p338
I1
sVczz2d5v
p339
I1
sVdiu5736
p340
I2
sVd63pnxh
p341
I1
sVdrt2txv
p342
I1
sVddleyw8
p343
I1
sVd7rufbq
p344
I1
sVczltoov
p345
I4
sVd2x72d2
p346
I1
sVdk8qtad
p347
I1
sVdj9f70c
p348
I1
sVdc91n8b
p349
I2
sVd9ms2zp
p350
I1
sVdc031wv
p351
I1
sVdskz8p5
p352
I4
sVddp8awb
p353
I1
sVd4zm5pm
p354
I2
sVcyux19k
p355
I1
sVdpyhzeo
p356
I1
sVd1r06mj
p357
I1
sVda2tlyr
p358
I1
sVdk6262b
p359
I1
sVd58ynwb
p360
I1
sVd28q9bv
p361
I1
sVddhmjhy
p362
I1
sVdbnta7u
p363
I1
sVde6n0bu
p364
I1
sVcz5cl2q
p365
I1
sVdkhqm0e
p366
I1
sVd0nknwr
p367
I1
sVdjwvdg3
p368
I1
sVdpmalgv
p369
I1
sVddkhjx0
p370
I1
sVczs28ed
p371
I1
sVd4vays0
p372
I1
sVdar2m2c
p373
I1
sVdftg0qe
p374
I2
sVcyujcy6
p375
I1
sVcyqsx21
p376
I1
sVdi8q4n1
p377
I2
sVdjcpd92
p378
I1
sVdib1xev
p379
I1
sVd1avq8r
p380
I1
sVdgdg1v2
p381
I1
sVd340ecq
p382
I2
sVdmpk2os
p383
I1
sVdi0kdmd
p384
I4
sVczp5ok4
p385
I1
sVddx7yft
p386
I1
sVdkcv1tv
p387
I2
sVdh3us7i
p388
I1
sVd8yegq9
p389
I1
sVdf38duh
p390
I1
sVdhebuu6
p391
I1
sVdmzvfdx
p392
I1
sVd6nbfey
p393
I1
sVdhy8bqr
p394
I1
sVcyz7dc5
p395
I1
sVd3jl0lr
p396
I1
sVd1miebn
p397
I1
sVdcb3o9v
p398
I1
sVde6udsm
p399
I1
sVdfskhab
p400
I1
sVd2ve05o
p401
I1
sVdafwc13
p402
I1
sVdd4lrxa
p403
I1
sVdqo7uaq
p404
I2
sVddztldb
p405
I1
sVd3dmptn
p406
I1
sVdkjysfm
p407
I1
sVdbjzagq
p408
I1
sVde6fp9l
p409
I1
sVczyueqw
p410
I1
sVddsmopz
p411
I2
sVditv8e2
p412
I1
sVd92opcc
p413
I1
sVdkm62rb
p414
I3
sVdam7tu0
p415
I1
sVcyu0c9o
p416
I1
sVdjz01ti
p417
I1
sVd838f67
p418
I1
sVdh38bcb
p419
I1
sVd3eglak
p420
I1
sVcyyhd8d
p421
I1
sVcyldfpa
p422
I2
sVdey0pv6
p423
I2
sVdrelyxo
p424
I1
sVdi3ktkh
p425
I1
sVdt6m9sq
p426
I2
sVdbxvylu
p427
I1
sVcyjd6k6
p428
I1
sVdgk2010
p429
I1
sVd2koimw
p430
I2
sVde3mwpz
p431
I1
sVd4acvo2
p432
I1
sVdd52r0i
p433
I1
sVdr8nj0f
p434
I1
sVdrlpjrl
p435
I1
sVd8qrzxd
p436
I1
sVcyo974v
p437
I1
sVdip0w4o
p438
I4
sVdjwwnwm
p439
I1
sVd84492n
p440
I1
sVd1ktguo
p441
I1
sVde76lg5
p442
I2
sVd0e3g75
p443
I3
sVd5xpi6i
p444
I1
sVczg6xc1
p445
I1
sVd8ggseq
p446
I1
sVdehv1t2
p447
I2
sVd054wjr
p448
I2
sVdho1z04
p449
I1
sVdj5w4hu
p450
I3
sVdidg6ib
p451
I1
sVd2tkwq2
p452
I1
sVd6s2029
p453
I2
sVd4v4kt4
p454
I2
sVdin9z5d
p455
I1
sVd7cmt3j
p456
I2
sVdb467dm
p457
I1
sVdj9rmhk
p458
I1
sVd862yk9
p459
I1
sVcynjjg7
p460
I1
sVdev43ey
p461
I1
sVd1yda0b
p462
I1
sVd19su9k
p463
I2
sVd1utbh1
p464
I2
sVdq9s1g0
p465
I2
sVdpohajt
p466
I1
sVdi5fiq8
p467
I2
sVd8tcacq
p468
I1
sVdb5eo2m
p469
I1
sVdjqg4uj
p470
I1
sVd2116vc
p471
I1
sVd6w31n9
p472
I1
sVd3ea91v
p473
I1
sVd6iyu0v
p474
I1
sVdclvl9f
p475
I3
sVdh15w40
p476
I2
sVdcqef66
p477
I4
sVdh6i6xv
p478
I1
sVdgocqr3
p479
I1
sVdjzwefh
p480
I1
sVdgcxar5
p481
I13
sVd89t83c
p482
I2
sVd2actyg
p483
I1
sVdigc4ye
p484
I4
sVdnrulwr
p485
I1
sVd7dk8wp
p486
I1
sVd5t1okr
p487
I1
sVda1k1cm
p488
I4
sVd4ph413
p489
I1
sVdnw4ay1
p490
I1
sVdf2cbi9
p491
I1
sVdmhg1r6
p492
I1
sVd4ccjod
p493
I1
sVdmoz4el
p494
I1
sVd34wyp5
p495
I1
sVdk964a0
p496
I1
sVdchrqi9
p497
I1
sVd8wm2hi
p498
I2
sVdnh9su7
p499
I3
sVdf3d0ht
p500
I1
sVdr7lgox
p501
I2
sVdf1xn86
p502
I1
sVdj4gb98
p503
I1
sVczcs07e
p504
I4
sVd5537dk
p505
I1
sVd3ur4k5
p506
I2
sVd3ilmgy
p507
I1
sVdro3azl
p508
I1
sVd3yqnfu
p509
I1
sVd10ti1r
p510
I1
sVd73sw3e
p511
I1
sVd5muj8m
p512
I3
sVd2tlfde
p513
I2
sVd4rxw2p
p514
I1
sVd74f1g9
p515
I1
sVd54eqqs
p516
I1
sVdiedqyu
p517
I1
sVdeq1un4
p518
I1
sVdfku8jm
p519
I1
sVczfcley
p520
I2
sVdbjxbze
p521
I5
sVdjqm9i4
p522
I1
sVdmtintm
p523
I1
sVd4i4vqj
p524
I1
sVday9m5p
p525
I2
sVdgq4w1a
p526
I2
sVcyl6ad2
p527
I2
sVdtgfx36
p528
I1
sVddol83v
p529
I1
sVd8lyhds
p530
I1
sVcyjjakg
p531
I2
sVdemb7no
p532
I3
sVd3i7b9d
p533
I1
sVdjfiu09
p534
I1
sVdqfnkps
p535
I1
sVcztyce7
p536
I1
sVdic0f19
p537
I1
sVd4v8x37
p538
I1
sVdhx9o4w
p539
I1
sVdkyr8zs
p540
I1
sVd27b9o9
p541
I1
sVdkkfph1
p542
I1
sVd7jxa1g
p543
I1
sVd8lcfid
p544
I1
sVdkc59fq
p545
I2
sVdqdltdj
p546
I1
sVdbyy718
p547
I1
sVdicxb4k
p548
I3
sVdnbj23o
p549
I6
sVdgdhvua
p550
I1
sVd0w2uau
p551
I2
sVd02squu
p552
I1
sVd99n08z
p553
I1
sVd5vwa8u
p554
I1
sVdcrjwm3
p555
I9
sVdkf4uet
p556
I1
sVdi8rfs8
p557
I1
sVdcvet1a
p558
I1
sVd8e0eix
p559
I2
sVddt91iu
p560
I1
sVd2jxrgz
p561
I1
sVd5b9uyo
p562
I3
sVd0oyz21
p563
I1
sVd2g8aom
p564
I1
sVdh3iiyx
p565
I1
sVdq7skge
p566
I3
sVdffdla9
p567
I1
sVd3r97ig
p568
I1
sVd74pna1
p569
I1
sVdehsli9
p570
I1
sVdi6exp1
p571
I2
sVds03v9w
p572
I1
sVd7t0nra
p573
I1
sVd4g6ahf
p574
I1
sVdaw4jr6
p575
I4
sVdkc0yz0
p576
I1
sVde4yp4d
p577
I1
sVdheufe0
p578
I2
sVd0w68vq
p579
I1
sVd6fsn49
p580
I1
sVdgpsqpm
p581
I1
sVdhe0b4t
p582
I1
sVdhi4nnx
p583
I2
sVdegaksf
p584
I1
sVd1r3bpe
p585
I2
sVd4iqc96
p586
I1
sVdehah4p
p587
I1
sVdhod34r
p588
I1
sVdda9x5h
p589
I1
sVdbqlawl
p590
I2
sVd19ro8w
p591
I1
sVd22xcjr
p592
I1
sVdi8hkgp
p593
I1
sVdbs7soj
p594
I1
sVdhbgisd
p595
I2
sVd3dfdhm
p596
I2
sVdflvloj
p597
I1
sVd927ufm
p598
I2
sVddh1kow
p599
I1
sVdame0jk
p600
I3
sVdteqio2
p601
I1
sVd2hhr3e
p602
I3
sVdc0c1uv
p603
I1
sVdmopkzp
p604
I1
sVd7lanws
p605
I1
sVd4ieujk
p606
I3
sVdhjyukq
p607
I1
sVcz8dmcr
p608
I1
sVdppdb74
p609
I1
sVddrpsfz
p610
I1
sVdi8q1fz
p611
I1
sVd3sjvlm
p612
I4
sVdg5tlzw
p613
I1
sVde4vt8f
p614
I1
sVdbo71ql
p615
I2
sVdkl7ya3
p616
I1
sVd1crf0l
p617
I1
sVd0pifw7
p618
I1
sVdj8h111
p619
I1
sVd8cupj5
p620
I1
sVdhtm90n
p621
I2
sVcyz5dxe
p622
I1
sVd7jbvqz
p623
I1
sVd3d8epy
p624
I1
sVczzx8ti
p625
I1
sVdcb294y
p626
I1
sVcyvb4z2
p627
I1
sVd7q4cib
p628
I1
sVdrb88hl
p629
I1
sVd266wg4
p630
I1
sVczlqj8i
p631
I1
sVdbfmhgv
p632
I1
sVd7b6fnf
p633
I2
sVd39aggc
p634
I1
sVd0cjqpy
p635
I1
sVd6dhzdt
p636
I1
sVd7nqbld
p637
I3
sVdskvi3x
p638
I1
sVdrulimn
p639
I2
sVd13xiv1
p640
I1
sVd120804
p641
I1
sVdevwjk9
p642
I2
sVdi7gpff
p643
I2
sVd7yoxii
p644
I2
sVdk7mwgj
p645
I1
sVcyunsfa
p646
I1
sVd08xtj5
p647
I1
sVd2pedv1
p648
I1
sVddml4oq
p649
I1
sVd1ga5gw
p650
I1
sVdgp16pi
p651
I1
sVd44ravo
p652
I1
sVdsnonxt
p653
I1
sVd0eyvid
p654
I1
sVdcccomf
p655
I1
sVd278c5s
p656
I1
sVdt7puqm
p657
I1
sVdpok5nd
p658
I1
sVczzuqya
p659
I1
sVdj9ljnt
p660
I1
sVdghfgcs
p661
I1
sVdovot1r
p662
I2
sVdi99hgr
p663
I1
sVdn9cwg5
p664
I2
sVcyjyske
p665
I1
sVdimhsbb
p666
I1
sVd2apfs1
p667
I1
sVdeqnah5
p668
I1
sVdilqqxy
p669
I1
sVde799u5
p670
I2
sVd5900ui
p671
I3
sVczlf1o1
p672
I3
sVcyzho28
p673
I1
sVdfubar8
p674
I2
sVd0v93kf
p675
I1
sVd1635t5
p676
I1
sVd094vqz
p677
I2
sVcyjg645
p678
I1
sVdeale98
p679
I1
sVczz0pf4
p680
I1
sVd1l1rus
p681
I1
sVd1jly7u
p682
I2
sVdk29t67
p683
I1
sVdhr741y
p684
I1
sVdpjg6dz
p685
I1
sVdcznw5i
p686
I1
sVd16k2ws
p687
I1
sVczobfgh
p688
I1
sVdkzdcht
p689
I1
sVd2887tk
p690
I1
sVd78i7nx
p691
I1
sVd8w5hky
p692
I1
sVdh3jqmj
p693
I1
sVdbev5yx
p694
I2
sVd8q44r9
p695
I1
sVd16x9vn
p696
I1
sVddmvosb
p697
I2
sVd88o1w3
p698
I1
sVdo7vgmg
p699
I1
sVdi6naki
p700
I1
sVdhc3n7i
p701
I1
sVd39s6gb
p702
I1
sVdjv0f23
p703
I1
sVdi39ygo
p704
I1
sVdmprb53
p705
I1
sVd9xnjh2
p706
I1
sVdb7q7cf
p707
I1
sVd93bhvi
p708
I2
sVcylsus3
p709
I1
sVcyk80w6
p710
I1
sVcysm95l
p711
I1
sVd0rsda2
p712
I1
sVd819xnb
p713
I1
sVd42d77e
p714
I1
sVczkngs5
p715
I1
sVd3svivm
p716
I2
sVdogh1lq
p717
I1
sVd4k6orm
p718
I1
sVd4yzm4t
p719
I1
sVd1vs5o2
p720
I1
sVczu7juz
p721
I1
sVdekh1h3
p722
I1
sVdb8mzxr
p723
I1
sVdcz9gp9
p724
I3
sVd4i5j05
p725
I3
sVd6rkjl1
p726
I1
sVddt6tor
p727
I2
sVd0gkmon
p728
I2
sVd6gr5gt
p729
I1
sVd3dbf5w
p730
I1
sVdfk36bd
p731
I1
sVdb3pt7f
p732
I5
sVdc1gpn2
p733
I1
sVdn5mr4j
p734
I1
sVczzwex9
p735
I1
sVcyid6lr
p736
I1
sVdg3o15z
p737
I1
sVdotv3s3
p738
I1
sVdkpln18
p739
I1
sVd5a4gmn
p740
I1
sVd3sisa6
p741
I3
sVd9amfza
p742
I1
sVdrue49p
p743
I1
sVdmoip6x
p744
I2
sVd496sh8
p745
I1
sVdnma755
p746
I1
sVdrvgztt
p747
I1
sVd49g2mg
p748
I1
sVd2inb5q
p749
I1
sVd3fsgo4
p750
I2
sVd7fa8ue
p751
I1
sVdb553qm
p752
I2
sVd1xhlw2
p753
I2
sVdh7kah4
p754
I1
sVdeq3qaq
p755
I1
sVdgcwcat
p756
I2
sVd7yfljp
p757
I1
sVd0hzeem
p758
I1
sVcyp2n20
p759
I1
sVd65gypz
p760
I1
sVd47hkh8
p761
I1
sVdcgdsp7
p762
I1
sVdi9efb1
p763
I1
sVd01mw9u
p764
I1
sVd68s8ob
p765
I3
sVdgjh47y
p766
I1
sVd5lzppa
p767
I1
sVcznnh64
p768
I3
sVd94ampx
p769
I2
sVdi3xzzz
p770
I2
sVdehii9o
p771
I2
sVcyuiq95
p772
I2
sVd0821nt
p773
I1
sVd9kuvl1
p774
I1
sVd9e1pex
p775
I2
sVd6g1ndn
p776
I1
sVdmx2j9w
p777
I1
sVd5tli31
p778
I1
sVd4bzwdz
p779
I1
sVd470an0
p780
I1
sVdbsafuu
p781
I1
sVd34slxl
p782
I1
sVdbfriil
p783
I3
sVddbuif9
p784
I2
sVdr8lprz
p785
I1
sVczkm7uv
p786
I4
sVdgq9jb2
p787
I1
sVdbfcb3m
p788
I1
sVd4zn4ak
p789
I3
sVde4xsua
p790
I1
sVcyqnqha
p791
I1
sVd04bm9j
p792
I1
sVdi8seye
p793
I1
sVd1e69sn
p794
I1
sVdh1wq6c
p795
I1
sVd5mxli5
p796
I1
sVd16tz9h
p797
I1
sVd7gn4tl
p798
I2
sVds3t4bw
p799
I1
sVd623ujr
p800
I2
sVd5zm79q
p801
I1
sVd90kkwb
p802
I1
sVd5mmf28
p803
I2
sVczght8j
p804
I1
sVd95m3d0
p805
I4
sVdhk278f
p806
I1
sVdc2lb2e
p807
I1
sVdo8xpu0
p808
I1
sVd71irtm
p809
I1
sVd23d47i
p810
I1
sVdj8qp29
p811
I1
sVdkv2unj
p812
I1
sVdfh2k28
p813
I1
sVd2yr855
p814
I2
sVdd4z8ra
p815
I1
sVd5hw2c4
p816
I1
sVd468cr4
p817
I2
sVd0krz48
p818
I1
sVd0vpgtk
p819
I1
sVd2sochk
p820
I1
sVdilza6i
p821
I1
sVdarg6fn
p822
I2
sVd6kaiyi
p823
I1
sVdt8b9p9
p824
I1
sVdkm4vu1
p825
I1
sVdjskzwl
p826
I1
sVd5dmsid
p827
I1
sVdmvk7hi
p828
I1
sVdksd1qh
p829
I2
sVdjzyv6e
p830
I1
sVdgu8u1f
p831
I1
sVdbwjssg
p832
I1
sVd6eoo37
p833
I1
sVddao129
p834
I1
sVdh2ij9u
p835
I1
sVdctfckg
p836
I1
sVd1lu5n0
p837
I2
sVd30tp8w
p838
I1
sVdgj2wba
p839
I1
sVd0u20ts
p840
I1
sVd9dp5bc
p841
I1
sVdrmm59x
p842
I1
sVcz5431a
p843
I2
sVd45qzhd
p844
I1
sVd6r6e26
p845
I1
sVd9kw3hz
p846
I1
sVdhzigb0
p847
I1
sVda1spsd
p848
I3
sVdir7mjp
p849
I1
sVd0ktqzp
p850
I1
sVdekqnls
p851
I1
sVczw8hfs
p852
I1
sVdeq52j8
p853
I1
sVdro37e9
p854
I2
sVd1k0dl0
p855
I2
sVd5rmd66
p856
I1
sVdpmjno0
p857
I1
sVda8b8gk
p858
I1
sVd2iboel
p859
I4
sVddj96qd
p860
I2
sVdgdsjuo
p861
I1
sVdd9qils
p862
I1
sVdjdgsuo
p863
I1
sVdb1nhed
p864
I1
sVd6eb47o
p865
I1
sVdipte5u
p866
I1
sVczm9pou
p867
I1
sVd0rgcun
p868
I4
sVd4dco7c
p869
I2
sVd6ojhqh
p870
I2
sVdr6chli
p871
I1
sVdftliqh
p872
I1
sVcywes73
p873
I2
sVdarvhvy
p874
I1
sVdkxwox5
p875
I1
sVd6teg1n
p876
I1
sVdeqyd3i
p877
I3
sVd1bpzn4
p878
I2
sVddhejmr
p879
I2
sVdgkpps1
p880
I1
sVd1r49pu
p881
I2
sVd6bxuo1
p882
I2
sVdg2hf7f
p883
I1
sVddnnt3t
p884
I1
sVd9mu79r
p885
I1
sVd1byhhq
p886
I1
sVd8k4ahw
p887
I1
sVd19rjx0
p888
I1
sVd7bhbyn
p889
I1
sVd5drgdc
p890
I1
sVdkqms4w
p891
I1
sVd5vggav
p892
I1
sVdh5x5j2
p893
I1
sVdgcq47k
p894
I2
sVd51hkvs
p895
I1
sVdi8i7yj
p896
I1
sVd1w85w7
p897
I1
sVdthtqdf
p898
I1
sVd2m68wl
p899
I1
sVd72paiy
p900
I1
sVdmjavjj
p901
I1
sVd4zn5ls
p902
I1
sVdi1824w
p903
I1
sVdo4a4kp
p904
I1
sVd1i464j
p905
I1
sVdjeea66
p906
I1
sVdis2r2h
p907
I1
sVdrtibzv
p908
I2
sVd07vjrc
p909
I1
sVdgn465d
p910
I1
sVdertjfx
p911
I7
sVdj2wgoj
p912
I1
sVd428phb
p913
I1
sVdf33g54
p914
I1
sVd3hq1c8
p915
I1
sVdcn1wzy
p916
I1
sVd4czwl3
p917
I1
sVdb41reb
p918
I1
sVdriyim0
p919
I1
sVdqcyup2
p920
I1
sVd4ivqwq
p921
I1
sVd9sximl
p922
I1
sVd5yctmk
p923
I1
sVd5m01os
p924
I1
sVdo87ce3
p925
I3
sVdczasnp
p926
I1
sVd8a9sj6
p927
I1
sVd4gqy16
p928
I1
sVdgq0id3
p929
I2
sVd8rz7yz
p930
I1
sVd2t0jbp
p931
I1
sVdjhbfen
p932
I1
sVddji847
p933
I1
sVd0obdag
p934
I1
sVdejq4dr
p935
I1
sVd5vv4nu
p936
I1
sVd8c7r6f
p937
I1
sVd2accok
p938
I1
sVd0n8u8p
p939
I1
sVdf7i3u2
p940
I1
sVd7x021y
p941
I2
sVcyjb2xa
p942
I1
sVdgy92uo
p943
I1
sVdatycrx
p944
I1
sVd1qecdw
p945
I1
sVdhgrodc
p946
I2
sVd0ugvxq
p947
I1
sVdfb3sju
p948
I1
sVdikuc7h
p949
I1
sVd3es8vi
p950
I1
sVdc4zl1i
p951
I1
sVd7zdr77
p952
I2
sVdkbnczb
p953
I1
sVdeigf56
p954
I2
sVcyy7stj
p955
I1
sVdk79zdk
p956
I1
sVd8ynpyn
p957
I1
sVd8ii8d4
p958
I1
sVd1taspd
p959
I1
sVd6qls2b
p960
I1
sVdk8kcsa
p961
I2
sVd9htwty
p962
I1
sVd92spxk
p963
I1
sVdn2zuen
p964
I1
sVd0rsgi7
p965
I1
sVd3sg9uk
p966
I1
sVdks4lwc
p967
I1
sVdhkh7tp
p968
I1
sVdimapc1
p969
I1
sVdqiwza0
p970
I1
sVd7fa2wz
p971
I1
sVdn1laex
p972
I2
sVdkvo8i3
p973
I3
sVdief6l7
p974
I1
sVdfg174i
p975
I1
sVdrx1fp8
p976
I1
sVdfbnc2n
p977
I2
sVd9jz44p
p978
I2
sVd7l94wz
p979
I1
sVd2t14ex
p980
I1
sVcylf18g
p981
I2
sVd9mtud9
p982
I1
sVdg6g9ut
p983
I2
sVd03axs7
p984
I1
sVd5u0y9q
p985
I2
sVd4l7iet
p986
I1
sVdhe4q2c
p987
I1
sVdd94bir
p988
I1
sVdgsnpn7
p989
I1
sVd03qh5i
p990
I1
sVdas4avy
p991
I1
sVdalyond
p992
I2
sVdhk15yb
p993
I1
sVd1xocc8
p994
I2
sVczstd3s
p995
I1
sVddomqvd
p996
I1
sVd0o2rcw
p997
I1
sVd6rkp9u
p998
I1
sVd4zmnuv
p999
I1
sVdjgs3nj
p1000
I1
sVd546elu
p1001
I1
sVdjwze2p
p1002
I1
sVdhx018n
p1003
I1
sVdnckhgx
p1004
I1
sVd37lpks
p1005
I1
sVdrks42k
p1006
I1
sVdih4oa5
p1007
I1
sVd03pqct
p1008
I1
sVdk4q4rg
p1009
I2
sVd2uxdh3
p1010
I1
sVd3oi7dn
p1011
I1
sVdbfk9qh
p1012
I1
sVd0hd37v
p1013
I1
sVdgqq7z9
p1014
I1
sVdq6af19
p1015
I1
sVczm5vby
p1016
I1
sVd0isyi3
p1017
I1
sVdb8ky7h
p1018
I1
sVdcl262v
p1019
I1
sVd08gx5r
p1020
I1
sVdfong2h
p1021
I1
sVdmh8wxd
p1022
I1
sVdf61hl7
p1023
I1
sVd3aurge
p1024
I1
sVdqii130
p1025
I1
sVdnlorag
p1026
I1
sVd0ivhxv
p1027
I1
sVdewxn1a
p1028
I1
sVdri3g2q
p1029
I1
sVdimsa91
p1030
I1
sVd91dzk6
p1031
I1
sVdfgdr6d
p1032
I1
sVczfn3fj
p1033
I1
sVd0krux1
p1034
I3
sVdo0oucx
p1035
I1
sVd0ai512
p1036
I1
sVdam1qhy
p1037
I1
sVddetlf7
p1038
I1
sVd5lwsoy
p1039
I1
sVdsirtfj
p1040
I1
sVd57xw82
p1041
I2
sVdcafgyt
p1042
I1
sVdbnlip8
p1043
I2
sVd6o44ov
p1044
I2
sVdahsepg
p1045
I1
sVd8aiycp
p1046
I1
sVdjz6mth
p1047
I4
sVd3xpr3r
p1048
I1
sVdqu6yj7
p1049
I1
sVde5xsa9
p1050
I1
sVd3nbtoq
p1051
I3
sVdf7k0hg
p1052
I1
sVdej9wxs
p1053
I1
sVcykh0av
p1054
I1
sVd6f7mpz
p1055
I1
sVdc21hyc
p1056
I1
sVcyxtkfs
p1057
I1
sVd82ucbs
p1058
I1
sVdjedm7r
p1059
I6
sVd1ev9re
p1060
I1
sVd4td9y7
p1061
I1
sVd7wawes
p1062
I2
sVd1mcjhw
p1063
I1
sVdcarpe8
p1064
I3
sVd6eg4b0
p1065
I1
sVd41baid
p1066
I1
sVddistku
p1067
I1
sVd3f23w1
p1068
I1
sVdbt5krx
p1069
I1
sVd1tx4ql
p1070
I1
sVdnypxwp
p1071
I1
sVdq02tv5
p1072
I1
sVd928n8t
p1073
I1
sVd9fqu0u
p1074
I1
sVd01a7a1
p1075
I1
sVd5fzuaj
p1076
I1
sVd46g3jw
p1077
I1
sVdfmuan3
p1078
I1
sVdosdwzn
p1079
I1
sVde3nuji
p1080
I1
sVdp14fv4
p1081
I1
sVcyp7h4q
p1082
I2
sVd4m5bcd
p1083
I3
sVd4of3wd
p1084
I1
sVdfsd2oa
p1085
I1
sVdeq0qp9
p1086
I1
sVcz811jy
p1087
I1
sVdjcezzw
p1088
I1
sVdb8tx8i
p1089
I1
sVdc1b2pl
p1090
I2
sVdjvm8fp
p1091
I1
sVdi3bbfc
p1092
I1
sVdknmqhe
p1093
I2
sVd7rl77b
p1094
I2
sVd67tdwi
p1095
I1
sVdc2hvcs
p1096
I1
sVcypjp31
p1097
I1
sVd5yhhg7
p1098
I1
sVdeo38y2
p1099
I1
sVdskn9ir
p1100
I2
sVd77an3w
p1101
I1
sVczhol8h
p1102
I5
sVcz58omw
p1103
I1
sVd6wm47e
p1104
I1
sVd272z4y
p1105
I1
sVdptygca
p1106
I1
sVdjtq0uk
p1107
I1
sVczvc4u1
p1108
I1
sVdhsnf26
p1109
I1
sVdam1qtz
p1110
I1
sVd9rstob
p1111
I1
sVd46go8t
p1112
I1
sVd4w2n4v
p1113
I1
sVczfma52
p1114
I1
sVd0qyvef
p1115
I1
sVd6g52sx
p1116
I2
sVdtfghl1
p1117
I1
sVczottzt
p1118
I1
sVdqf0vl1
p1119
I1
sVdc79sq7
p1120
I2
sVd6en701
p1121
I1
sVdnfv8xv
p1122
I1
sVd5w4i2i
p1123
I1
sVd8ohf6k
p1124
I2
sVd8yno2x
p1125
I1
sVdn7ylo3
p1126
I1
sVd5gvv10
p1127
I1
sVdkcq8kz
p1128
I2
sVdkvukn0
p1129
I1
sVdayb43f
p1130
I1
sVd9ed950
p1131
I1
sVd1yg242
p1132
I1
sVd3ur9i0
p1133
I1
sVczgygt9
p1134
I2
sVd3st4mj
p1135
I1
sVd6k39hv
p1136
I1
sVd5iot35
p1137
I1
sVd7stiky
p1138
I1
sVdhb4qca
p1139
I1
sVdjvw0gj
p1140
I2
sVdsv7nbq
p1141
I1
sVd4f8mwp
p1142
I1
sVdhtl1nk
p1143
I1
sVdrb3u5e
p1144
I1
sVdgcrud6
p1145
I2
sVd9n54el
p1146
I1
sVdkjf1br
p1147
I1
sVczkudwc
p1148
I1
sVdbnue5l
p1149
I1
sVd9e7ya5
p1150
I1
sVdthltts
p1151
I2
sVdc044yt
p1152
I1
sVd45mad1
p1153
I1
sVd5bly82
p1154
I1
sVd7jx50z
p1155
I3
sVd429bh0
p1156
I1
sVdkkh45e
p1157
I1
sVdhz5e9k
p1158
I1
sVdc7fugk
p1159
I1
sVdizh52o
p1160
I1
sVd6f7e64
p1161
I1
sVcz25ls2
p1162
I1
sVdmz9kjp
p1163
I2
sVdk8mb5e
p1164
I3
sVcyo9a38
p1165
I2
sVd1qziz6
p1166
I1
sVcyrp2c2
p1167
I1
sVdbfehc1
p1168
I2
sVd92usms
p1169
I1
sVczcp13d
p1170
I1
sVd08p6p4
p1171
I1
sVdcjx5r6
p1172
I1
sVdhy3fgg
p1173
I1
sVdbil918
p1174
I1
sVd8eret5
p1175
I1
sVcz227oe
p1176
I1
sVd2pz39y
p1177
I1
sVd6e2pgj
p1178
I1
sVd6s7zv5
p1179
I2
sVdi8rmpb
p1180
I2
sVdbp2cy2
p1181
I2
sVddn2ml5
p1182
I1
sVdc9c3b4
p1183
I1
sVd0d2xdo
p1184
I1
sVdqhy3g2
p1185
I2
sVd083tee
p1186
I2
sVdho3obg
p1187
I1
sVd6g02gw
p1188
I1
sVdc4s81o
p1189
I1
sVd6sjtpa
p1190
I1
sVdf1x4ob
p1191
I1
sVdi2hfpu
p1192
I1
sVd2epp7d
p1193
I1
sVdjtficd
p1194
I1
sVd59a70m
p1195
I2
sVd251hem
p1196
I1
sVdr8ox0p
p1197
I1
sVd9mpr4z
p1198
I1
sVd1lc4o8
p1199
I1
sVd7nuta0
p1200
I1
sVdp5h9sk
p1201
I1
sVd8mhngn
p1202
I1
sVdcdidba
p1203
I1
sVd9v7zxz
p1204
I1
sVd2nyhs3
p1205
I3
sVdsyqw13
p1206
I1
sVd247vis
p1207
I1
sVdipkdc9
p1208
I2
sVddp3lrj
p1209
I1
sVd4vgevt
p1210
I2
sVdgpccv3
p1211
I1
sVdd1dtt4
p1212
I1
sVdtem1pr
p1213
I1
sVcz4l8y4
p1214
I1
sVdaw4io5
p1215
I1
sVdgmldkm
p1216
I1
sVd8j8zkz
p1217
I1
sVda13ld0
p1218
I1
sVd0he3qk
p1219
I1
sVdjng0yc
p1220
I1
sVd8km3me
p1221
I1
sVd485jer
p1222
I1
sVd5w4udg
p1223
I1
sVdrglidq
p1224
I1
sVdhlfdsa
p1225
I1
sVdkm5vh0
p1226
I1
sVd6gracy
p1227
I1
sVd543m9y
p1228
I1
sVdenxwjb
p1229
I1
sVdd4xseu
p1230
I1
sVdkk7t9t
p1231
I1
sVdeu5z8m
p1232
I1
sVder329f
p1233
I1
sVdkd7ucp
p1234
I1
sVdgdsot8
p1235
I3
sVdawsayg
p1236
I1
sVd82lxy1
p1237
I1
sVd4b4auz
p1238
I1
sVd2ta9kd
p1239
I1
sVdf9ca4k
p1240
I1
sVd0a41ls
p1241
I1
sVdf7ter8
p1242
I1
sVd223683
p1243
I1
sVdkf55nt
p1244
I1
sVd09a3kv
p1245
I1
sVd3xxyx8
p1246
I1
sVd8k2pkd
p1247
I1
sVdmovdf1
p1248
I1
sVdfvjqaw
p1249
I1
sVdjo6rfx
p1250
I1
sVd5oib4f
p1251
I2
sVdsmtkpb
p1252
I1
sVdn2qn7c
p1253
I1
sVd4zwkgs
p1254
I1
sVdfxib0r
p1255
I1
sVdgcs03i
p1256
I1
sVd2sjrf0
p1257
I2
sVd0b46ls
p1258
I1
sVdg33208
p1259
I1
sVczx6r3w
p1260
I1
sVd0807jr
p1261
I1
sVdautfw5
p1262
I1
sVd4ies0w
p1263
I1
sVdgcfwlp
p1264
I2
sVd7vwg7v
p1265
I2
sVdkbnsyy
p1266
I1
sVdrfzs5d
p1267
I1
sVd0djo9p
p1268
I1
sVdikxvhy
p1269
I1
sVd774oq5
p1270
I1
sVd711o9f
p1271
I1
sVd7k3330
p1272
I1
sVczzir3c
p1273
I1
sVd1eupfo
p1274
I1
sVd8kjqb1
p1275
I1
sVd8646ki
p1276
I1
sVdq7t1ll
p1277
I1
sVd3any72
p1278
I3
sVdfk445q
p1279
I1
sVdidmd3r
p1280
I1
sVd4cd1bb
p1281
I1
sVdovyce2
p1282
I2
sVdomu1e7
p1283
I1
sVd9iycz5
p1284
I2
sVd3czggf
p1285
I1
sVdkayuyz
p1286
I1
sVd6o4jki
p1287
I1
sVczybulg
p1288
I3
sVd8nid73
p1289
I2
sVdhyqfqp
p1290
I1
sVdf643de
p1291
I1
sVd4s40rn
p1292
I1
sVd48he57
p1293
I1
sVda36bgy
p1294
I1
sVcyja59y
p1295
I1
sVd6k97n9
p1296
I1
sVd51yufv
p1297
I1
sVdjb04qd
p1298
I1
sVd022qzc
p1299
I1
sVdb7q99j
p1300
I1
sVdbzx2gk
p1301
I1
sVd3z9eq8
p1302
I1
sVdcn193v
p1303
I2
sVdklqxcw
p1304
I1
sVd7f0650
p1305
I1
sVd0eu4ur
p1306
I1
sVd2rekxo
p1307
I1
sVd01lsb1
p1308
I3
sVd46m5pt
p1309
I1
sVd6k1ln6
p1310
I1
sVd3s2o89
p1311
I1
sVd3hobpo
p1312
I1
sVd9ty3j4
p1313
I1
sVd4qr8ku
p1314
I1
sVdjzs1y0
p1315
I1
sVd3p4oxx
p1316
I1
sVdol9kzq
p1317
I1
sVd8672if
p1318
I1
sVd4970z6
p1319
I1
sVd8n49ao
p1320
I1
sVde6ztn0
p1321
I1
sVd25idq9
p1322
I1
sVd7gcaup
p1323
I1
sVde0kg39
p1324
I2
sVdaty88n
p1325
I1
sVd7ksacl
p1326
I1
sVd6j4mg3
p1327
I1
sVdoi94kk
p1328
I1
sVddpwnbu
p1329
I3
sVdho43rf
p1330
I2
sVd0bk5dp
p1331
I2
sVdgwx0tr
p1332
I1
sVd1kabua
p1333
I1
sVd1qe4ns
p1334
I1
sVd9onmpt
p1335
I1
sVdfzw8vq
p1336
I1
sVd3wp97t
p1337
I1
sVd3x2kab
p1338
I1
sVd1n1ldk
p1339
I1
sVdb8tgoq
p1340
I1
sVdjwsqn5
p1341
I2
sVdf2g3e2
p1342
I1
sVd7mn5xi
p1343
I1
sVd51xbcv
p1344
I1
sVda34hks
p1345
I1
sVdsbzmdk
p1346
I1
sVdkuwku7
p1347
I1
sVdkpsl88
p1348
I1
sVdf3l1yl
p1349
I4
sVd5xovnc
p1350
I1
sVdj0v5jr
p1351
I1
sVdmoqaji
p1352
I1
sVdk1s6kf
p1353
I1
sVdn0j0bi
p1354
I2
sVd44l3x9
p1355
I1
sVd01qal7
p1356
I1
sVd69jzq1
p1357
I1
sVdgrgtak
p1358
I1
sVd306p6i
p1359
I5
sVd31py7w
p1360
I1
sVdnl8kwo
p1361
I1
sVdkkg139
p1362
I1
sVd308q5u
p1363
I1
sVdbov7vh
p1364
I1
sVdgcf2xb
p1365
I1
sVcztsesx
p1366
I3
sVdgmxajb
p1367
I1
sVdr9m2oy
p1368
I1
sVcyuyo1b
p1369
I1
sVdikdehv
p1370
I1
sVczhiw1f
p1371
I1
sVdr0t97s
p1372
I1
sVd7n44a7
p1373
I1
sVdks26z0
p1374
I1
sVd3rtavz
p1375
I1
sVd8u183m
p1376
I1
sVdhhdgsc
p1377
I1
sVczcsxfr
p1378
I1
sVdmjj9to
p1379
I1
sVd7ggd1u
p1380
I1
sVdkjer9f
p1381
I1
sVdc98jiq
p1382
I1
sVd8d0iwv
p1383
I1
sVd7wr54i
p1384
I3
sVd2db37n
p1385
I1
sVdew5m1g
p1386
I1
sVd9jp383
p1387
I1
sVde238lv
p1388
I1
sVdgjhy6h
p1389
I1
sVd3rdip5
p1390
I1
sVdhyvkmv
p1391
I1
sVd7y5ra4
p1392
I2
sVcyjayna
p1393
I1
sVdijug8g
p1394
I1
sVd2s8yhh
p1395
I1
sVdhc3e5t
p1396
I2
sVdirrrea
p1397
I1
sVd7uc4k5
p1398
I1
sVd4yohup
p1399
I1
sVd1dutyd
p1400
I2
sVdksty9k
p1401
I1
sVdnqkt2a
p1402
I1
sVdfc69i0
p1403
I1
sVd7ysc4y
p1404
I2
sVd6zjgbm
p1405
I4
sVddcv9wl
p1406
I2
sVd3tykh7
p1407
I1
sVdaqgqdu
p1408
I1
sVddj7tdm
p1409
I2
sVd2t0qko
p1410
I1
sVdcb1af8
p1411
I1
sVcyrhgq2
p1412
I2
sVdpn1hvd
p1413
I2
sVd1iq9k7
p1414
I1
sVdnh2474
p1415
I1
sVd0wx4ty
p1416
I1
sVd2sdw0p
p1417
I1
sVdix9ns7
p1418
I1
sVd7qqua3
p1419
I1
sVd9nqutp
p1420
I1
sVd9p220s
p1421
I2
sVdc9btnn
p1422
I1
sVd4szept
p1423
I2
sVdb9goza
p1424
I1
sVd548poa
p1425
I3
sVdel9z7e
p1426
I1
sVdbd519h
p1427
I1
sVd18mipd
p1428
I1
sVdgurj2t
p1429
I1
sVd098m9r
p1430
I1
sVcztcl70
p1431
I1
sVd28mw7b
p1432
I1
sVdb7c42e
p1433
I1
sVd3sde20
p1434
I2
sVczwypod
p1435
I1
sVczh4ymz
p1436
I1
sVd0mzk49
p1437
I1
sVczgzkt3
p1438
I1
sVd5yv7z7
p1439
I1
sVd8n3xnv
p1440
I1
sVdkiflyq
p1441
I1
sVdniuquj
p1442
I1
sVd7g980i
p1443
I1
sVdkinc75
p1444
I1
sVd0244ef
p1445
I1
sVdoxehre
p1446
I1
sVd2gldtj
p1447
I1
sVd4fdik1
p1448
I1
sVd65tusf
p1449
I1
sVd85j1tu
p1450
I2
sVdbq9xez
p1451
I1
sVd0ctfw1
p1452
I1
sVd3a524o
p1453
I2
sVd5m0m90
p1454
I1
sVd680bvy
p1455
I2
sVd0s2l2o
p1456
I1
sVd3jsdty
p1457
I1
sVd14jrhc
p1458
I1
sVd2a98yy
p1459
I2
sVcz6rzqq
p1460
I2
sVd1144ik
p1461
I1
sVdenmmip
p1462
I1
sVdmz13w6
p1463
I1
sVczhp5xa
p1464
I1
sVdi7fpf8
p1465
I1
sVdgur4k6
p1466
I2
sVdn073wj
p1467
I4
sVds46sk8
p1468
I1
sVdcd6x33
p1469
I1
sVd3603yl
p1470
I1
sVdg48rlk
p1471
I1
sVdb66plb
p1472
I1
sVdijnglu
p1473
I1
sVdam7dry
p1474
I1
sVdcarnh6
p1475
I1
sVdhk3390
p1476
I1
sVcysalwc
p1477
I1
sVdk5zcxs
p1478
I2
sVdoj04iv
p1479
I2
sVdd35kuy
p1480
I2
sVdb13cuy
p1481
I3
sVd8izok2
p1482
I2
sVd2wq1py
p1483
I2
sVdrmvxqy
p1484
I1
sVd8kebta
p1485
I1
sVdedb62l
p1486
I1
sVdpw9975
p1487
I1
sVd1mi8j9
p1488
I1
sVdeq21gq
p1489
I3
sVddm978a
p1490
I1
sVdbiujmj
p1491
I1
sVddxx9uy
p1492
I1
sVdar5jfd
p1493
I1
sVdoxoyzh
p1494
I1
sVdhu0jil
p1495
I1
sVd1l3eev
p1496
I1
sVdfl9x7e
p1497
I1
sVd2mimcc
p1498
I1
sVdag07k8
p1499
I1
sVdhbsx04
p1500
I2
sVd3pgqnw
p1501
I2
sVd069cpw
p1502
I1
sVdbffpf6
p1503
I1
sVd61gj5s
p1504
I2
sVd8dp6p8
p1505
I1
sVdfwy00u
p1506
I1
sVds6xnst
p1507
I2
sVczzlin9
p1508
I1
sVd9iij7n
p1509
I1
sVcza2u1k
p1510
I1
sVd626j3s
p1511
I1
sVdht00xl
p1512
I2
sVcyvwbkw
p1513
I1
sVczv2iuf
p1514
I1
sVd6es8iu
p1515
I1
sVdn1p5jk
p1516
I2
sVd8d4odi
p1517
I2
sVcymr5aa
p1518
I1
sVd0kwzr0
p1519
I1
sVdbznux7
p1520
I2
sVda1qgns
p1521
I1
sVd4tuf0h
p1522
I1
sVdhqfqht
p1523
I1
sVdbgfdwz
p1524
I1
sVd9mr3e2
p1525
I1
sVd2hx1hr
p1526
I1
sVd3y7j4w
p1527
I1
sVd18s3cl
p1528
I1
sVdat8stb
p1529
I1
sVdhgmdqe
p1530
I2
sVdamlxs4
p1531
I1
sVdbglb6a
p1532
I2
sVd7w3m6o
p1533
I1
sVd4hz6jf
p1534
I3
sVd8z5c62
p1535
I1
sVdi2j0pb
p1536
I1
sVdg8eir8
p1537
I1
sVdgd3brj
p1538
I11
sVdrrqeej
p1539
I1
sVdb9zxev
p1540
I1
sVd5krp93
p1541
I1
sVdbra69e
p1542
I1
sVd2a5iup
p1543
I1
sVczzyz6b
p1544
I1
sVd0ug0x6
p1545
I1
sVd4qw88q
p1546
I3
sVd0woew2
p1547
I1
sVd30jgsz
p1548
I2
sVd7trgtl
p1549
I2
sVdby3l2g
p1550
I1
sVdhngulu
p1551
I1
sVd2sd75t
p1552
I4
sVd0nznzv
p1553
I1
sVczrq8a0
p1554
I1
sVdcq11ul
p1555
I2
sVd0efwr0
p1556
I1
sVdb393g5
p1557
I1
sVdjwduup
p1558
I1
sVd4umukg
p1559
I1
sVde1a4du
p1560
I2
sVd0czcz7
p1561
I1
sVdhzzmfm
p1562
I1
sVdke396f
p1563
I1
sVdryvt3i
p1564
I1
sVd74c50v
p1565
I4
sVd4ghphb
p1566
I1
sVdo2v248
p1567
I1
sVddv1m0i
p1568
I2
sVdabipsy
p1569
I1
sVdfiq6vw
p1570
I2
sVd7k2v54
p1571
I1
sVdeumps8
p1572
I2
sVd4prm7e
p1573
I1
sVdkfv5d1
p1574
I2
sVcypxkit
p1575
I1
sVd28r8u9
p1576
I1
sVczj0wmf
p1577
I1
sVd231rr8
p1578
I1
sVdgqt6hp
p1579
I1
sVdfmhdee
p1580
I2
sVdg3wuyx
p1581
I3
sVd1to8xz
p1582
I1
sVdjhihmz
p1583
I1
sVd1k4miy
p1584
I2
sVdbxbdah
p1585
I7
sVd7lhxa8
p1586
I1
sVd2wtreo
p1587
I1
sVd0hx7j8
p1588
I1
sVd3z84hx
p1589
I1
sVdsjfuxl
p1590
I1
sVdmzs9fi
p1591
I1
sVd1ijiaz
p1592
I1
sVd1cdmfj
p1593
I2
sVdfrxogx
p1594
I2
sVdccmtgo
p1595
I1
sVcyu1vb3
p1596
I1
sVd3hyjdn
p1597
I1
sVdd07jy7
p1598
I1
sVdbkmlii
p1599
I1
sVd0zs04m
p1600
I1
sVd312yvz
p1601
I1
sVd8tcwrm
p1602
I1
sVdp4xgwd
p1603
I1
sVdfm15j1
p1604
I2
sVcysidl5
p1605
I1
sVdj5t9hv
p1606
I1
sVdmlvkx1
p1607
I3
sVd2nuaos
p1608
I4
sVd8tmupu
p1609
I2
sVdir9l9d
p1610
I2
sVd4q1r1k
p1611
I1
sVda6ex7h
p1612
I1
sVdneroye
p1613
I1
sVd9mpt7d
p1614
I1
sVdow4acu
p1615
I1
sVd3azax1
p1616
I2
sVczsf7z4
p1617
I1
sVd5ce0fr
p1618
I1
sVdiiqdp0
p1619
I1
sVd5scab7
p1620
I3
sVde0tnjw
p1621
I1
sVdiysook
p1622
I1
sVd99coov
p1623
I2
sVdije9wf
p1624
I1
sVd7fzirg
p1625
I1
sVdbpb0po
p1626
I1
sVdf1z8ck
p1627
I3
sVdeg9cb5
p1628
I1
sVd3l150e
p1629
I3
sVd7cnqmj
p1630
I1
sVd3l0rmv
p1631
I3
sVd2si5aw
p1632
I1
sVdie3uyy
p1633
I1
sVdhyqid6
p1634
I6
sVd613xy0
p1635
I2
sVdbgl264
p1636
I1
sVddnhd21
p1637
I6
sVda6ue97
p1638
I1
sVdcarkan
p1639
I1
sVd4p2ioy
p1640
I1
sVdbffvco
p1641
I1
sVdd7tj7i
p1642
I1
sVdfk2quv
p1643
I1
sVd7ha8qw
p1644
I1
sVdocemnv
p1645
I1
sVd3y0xoy
p1646
I7
sVd5lzaha
p1647
I4
sVd6k170h
p1648
I2
sVd5wksjk
p1649
I1
sVdqwcvre
p1650
I1
sVcyjao3j
p1651
I1
sVdgtpslv
p1652
I1
sVd5m0lgn
p1653
I6
sVdjshmk1
p1654
I1
sVdbzvem9
p1655
I1
sVdgpipmt
p1656
I1
sVd5l2erk
p1657
I2
sVd51yfps
p1658
I1
sVd7yoqdc
p1659
I1
sVd4j2bsr
p1660
I1
sVdiba4ka
p1661
I2
sVczh24j2
p1662
I3
sVd1rbrt8
p1663
I11
sVddpegjv
p1664
I1
sVdhlcrjs
p1665
I1
sVd5prcu7
p1666
I2
sVde5fcmg
p1667
I4
sVd28y645
p1668
I2
sVdn4yfl0
p1669
I1
sVd6mgwdl
p1670
I4
sVdn296d9
p1671
I2
sVdirawq4
p1672
I1
sVds3eluz
p1673
I1
sVd0qdd2u
p1674
I1
sVd4iglol
p1675
I1
sVdk60zoj
p1676
I1
sVd8j3gk9
p1677
I1
sVddgo3w3
p1678
I1
sVd5dxf3f
p1679
I1
sVdbojjcm
p1680
I1
sVd1dc3zq
p1681
I1
sVdde7epi
p1682
I4
sVdhqr4up
p1683
I1
sVd8k0t4d
p1684
I2
sVd52jf7p
p1685
I1
sVdruefgr
p1686
I7
sVd0fr0hv
p1687
I1
sVd5sg1vf
p1688
I1
sVd0o9uby
p1689
I1
sVdiu8fgt
p1690
I1
sVdd92nw3
p1691
I1
sVd31ewa0
p1692
I2
sVd07wya6
p1693
I2
sVd9w2o93
p1694
I1
sVdivxys2
p1695
I1
sVd46ayyj
p1696
I1
sVd8uh0zk
p1697
I6
sVdev72yh
p1698
I1
sVcysc40t
p1699
I2
sVdhn5kpj
p1700
I1
sVd47rqwj
p1701
I1
sVd0u4dlb
p1702
I1
sVdjyne6g
p1703
I2
sVdj9k3tq
p1704
I1
sVds87o81
p1705
I2
sVda3d0c1
p1706
I1
sVdst8y4s
p1707
I1
sVd4sml52
p1708
I1
sVdqc5lu2
p1709
I1
sVd7g61ej
p1710
I1
sVda97a1z
p1711
I1
sVcz3tyxw
p1712
I2
sVdj402aq
p1713
I1
sVdhcqlhm
p1714
I2
sVdeh9vgc
p1715
I1
sVdgd0am4
p1716
I1
sVddsnx7e
p1717
I2
sVd6186v3
p1718
I1
sVd6286ae
p1719
I1
sVdi9l83g
p1720
I1
sVd211j92
p1721
I1
sVdbaebxd
p1722
I1
sVdjpv64s
p1723
I2
sVdd1e8he
p1724
I1
sVd6gl7oa
p1725
I1
sVd62tsxt
p1726
I2
sVdhc4f4k
p1727
I1
sVd398p5b
p1728
I1
sVdcr502b
p1729
I1
sVdbk3jze
p1730
I1
sVdi54zxn
p1731
I1
sVdmi32ux
p1732
I1
sVd48fqe1
p1733
I1
sVcyruoju
p1734
I2
sVd6eq3vg
p1735
I1
sVdfwbrhq
p1736
I2
sVdjr8bsc
p1737
I1
sVdbz9e8v
p1738
I1
sVdn44ciy
p1739
I1
sVdgb0gqv
p1740
I1
sVde5fo07
p1741
I1
sVdskrct4
p1742
I1
sVdabsnn0
p1743
I1
sVdevecjg
p1744
I1
sVdmtzgkd
p1745
I1
sVd0d84fr
p1746
I1
sVd7xrb7i
p1747
I2
sVczga2bz
p1748
I1
sVdcoy9xe
p1749
I2
sVd6febie
p1750
I1
sVdglquws
p1751
I1
sVd0spals
p1752
I1
sVd92vj3h
p1753
I1
sVdmguzz6
p1754
I1
sVd1s8q9u
p1755
I2
sVdngw6mo
p1756
I1
sVd9hpqas
p1757
I1
sVd9lhbtk
p1758
I2
sVdd59oz3
p1759
I2
sVda9yju9
p1760
I2
sVcyteo7k
p1761
I1
sVd3mng64
p1762
I1
sVd5hg9ic
p1763
I1
sVd7h0zxu
p1764
I1
sVd58y8r3
p1765
I2
sVde7aaql
p1766
I1
sVdtcjie4
p1767
I3
sVcytxda7
p1768
I4
sVd5ad5ha
p1769
I1
sVde6qvcu
p1770
I1
sVddko2p2
p1771
I2
sVdo42ck2
p1772
I2
sVcyqzgla
p1773
I1
sVdfcarlv
p1774
I1
sVd1yadz5
p1775
I1
sVd1cqf2d
p1776
I2
sVd7seahd
p1777
I1
sVdcuytdn
p1778
I1
sVd325j2j
p1779
I1
sVdfdri2a
p1780
I1
sVdglpej7
p1781
I1
sVdkdgyea
p1782
I1
sVdszidk7
p1783
I1
sVdc2j8i9
p1784
I1
sVdejor3k
p1785
I1
sVddv1kkz
p1786
I1
sVdhjln5e
p1787
I1
sVdk2t3iq
p1788
I1
sVczwu8b0
p1789
I1
sVd1gezjj
p1790
I1
sVdthuaum
p1791
I1
sVdow77sg
p1792
I1
sVczpp8qq
p1793
I1
sVd670oao
p1794
I2
sVd2i5rrt
p1795
I1
sVd0spb9g
p1796
I1
sVd59hq5r
p1797
I1
sVdk4y5zl
p1798
I1
sVdjq75g5
p1799
I1
sVd5g8ps8
p1800
I1
sVd400gqc
p1801
I1
sVd59npbj
p1802
I1
sVd5yjlq9
p1803
I1
sVd8x5238
p1804
I1
sVda3zm08
p1805
I1
sVd37pr1h
p1806
I1
sVddexdqe
p1807
I2
sVd89z0jo
p1808
I1
sVde6zst7
p1809
I1
sVde6tyco
p1810
I1
sVdfcjkk9
p1811
I1
sVd8o2qzq
p1812
I1
sVdb0hput
p1813
I1
sVdgt42qm
p1814
I1
sVdfwv1l9
p1815
I1
sVdn16r97
p1816
I2
sVdbvhfqm
p1817
I1
sVd35gm4j
p1818
I3
sVd5xyevh
p1819
I1
sVd59rss5
p1820
I2
sVdhpnc9g
p1821
I1
sVdj3t4sh
p1822
I1
sVdayjqrh
p1823
I1
sVdj4ej2g
p1824
I1
sVdsmbgrt
p1825
I1
sVdc53dxu
p1826
I1
sVdjyi74f
p1827
I1
sVd422yhz
p1828
I6
sVdbtx02f
p1829
I1
sVde7dmyn
p1830
I1
sVcz51kvc
p1831
I2
sVczun7x2
p1832
I1
sVd9mt14a
p1833
I1
sVdab6iek
p1834
I1
sVd9cvpdl
p1835
I3
sVddnjs84
p1836
I1
sVde8ssx6
p1837
I1
sVd5v7mbv
p1838
I1
sVdk2oe5k
p1839
I2
sVd5ao1jl
p1840
I1
sVcz7puh9
p1841
I1
sVd9ccrrk
p1842
I1
sVd5arko9
p1843
I1
sVd2r1b26
p1844
I1
sVd79jp6j
p1845
I1
sVda1n6kr
p1846
I1
sVdhehj3o
p1847
I1
sVdgx3nxv
p1848
I1
sVde68b7i
p1849
I1
sVdavmorx
p1850
I1
sVd8qrc62
p1851
I1
sVczcqqh6
p1852
I1
sVd35lk2u
p1853
I1
sVd2dm6z6
p1854
I2
sVdtajt5y
p1855
I1
sVdidh8ri
p1856
I1
sVcywqo86
p1857
I5
sVdimgcit
p1858
I1
sVd02e5dq
p1859
I1
sVddisr6r
p1860
I1
sVd5yyuj7
p1861
I2
sVdkf7rfy
p1862
I1
sVda9znmm
p1863
I1
s.