(dp0
Vdcceji0
p1
I3
sVdnwojr8
p2
I1
sVdn0sdm1
p3
I2
sVdi99x49
p4
I1
sVdcwk2a1
p5
I2
sVd1se4km
p6
I1
sVdqyx9o8
p7
I1
sVdq8i4pt
p8
I1
sVdi794yf
p9
I1
sVdgmsdfn
p10
I2
sVdjfzoay
p11
I1
sVd9ey9a3
p12
I1
sVd2vl4sl
p13
I2
sVds8o72s
p14
I1
sVdbbz6tx
p15
I1
sVd8pzo1u
p16
I1
sVd1e94i8
p17
I1
sVdcq9d7a
p18
I3
sVcyunhyp
p19
I1
sVdh849yk
p20
I1
sVdcts5ju
p21
I1
sVdgz5tll
p22
I3
sVdi33e9r
p23
I1
sVd8z9947
p24
I4
sVdctxf2q
p25
I4
sVdfjw4zt
p26
I2
sVdhg5pib
p27
I2
sVd4elixc
p28
I4
sVd5g6rhn
p29
I1
sVdrk1u0r
p30
I1
sVdiz68d0
p31
I2
sVdjn2ory
p32
I1
sVd4d2mm3
p33
I1
sVd6h5hn4
p34
I1
sVd3uyydc
p35
I1
sVdf6p0a7
p36
I2
sVdeeye4k
p37
I1
sVdj1sdgr
p38
I1
s.