(dp0
Vdfiufao
p1
I1
sVdks4lwc
p2
I1
sVd0izbka
p3
I1
sVd8zltyr
p4
I1
sVdcy8yj5
p5
I1
sVd21jwmz
p6
I1
sVd2cu7c9
p7
I1
sVddwkixo
p8
I1
sVd3buebl
p9
I1
sVcyy216g
p10
I1
sVcz4qsj6
p11
I1
sVdf3phop
p12
I1
sVdjdbobj
p13
I2
sVdbe3bn6
p14
I1
sVd00rnwb
p15
I1
sVd2jr4rn
p16
I1
sVd008b7g
p17
I1
sVd1023zw
p18
I1
sVdodo5x0
p19
I1
sVdd6wcki
p20
I2
sVd8e1i63
p21
I1
sVdcm4ptf
p22
I1
sVdjrfz2j
p23
I1
sVdf795mm
p24
I1
sVd2p86ny
p25
I1
sVcyq73v7
p26
I1
sVdisqw98
p27
I1
sVde6btkm
p28
I1
sVdmuvi1h
p29
I1
sVdk10cvx
p30
I1
sVdifrxxs
p31
I1
sVdcrvexr
p32
I1
sVdedm2eb
p33
I1
sVd2eqrid
p34
I1
sVczxylq5
p35
I1
sVd1p298j
p36
I1
sVd2ac679
p37
I1
sVd1kvv4v
p38
I1
sVdftayyf
p39
I1
sVdb8bhaq
p40
I1
sVcypj7vb
p41
I1
sVd0cdcdl
p42
I1
sVd17jp9t
p43
I1
sVcyz9qcm
p44
I1
sVdbv2u1y
p45
I1
sVdi6wr1a
p46
I1
sVdd6yb8n
p47
I1
sVcyivxmt
p48
I1
sVcz49gqc
p49
I1
sVd9d9glc
p50
I1
sVd06gyk1
p51
I1
sVdn2nqjf
p52
I1
sVdcuhllu
p53
I1
sVd73tbvg
p54
I1
s.