(dp0
Vdmzdysi
p1
I1
sVd2qo1zj
p2
I1
sVds40uwv
p3
I1
sVd4deut6
p4
I1
sVd1dk4fa
p5
I1
sVd3hm4x0
p6
I3
sVdmza9u4
p7
I9
sVd1ppwcy
p8
I1
sVdmz6up8
p9
I1
sVde72976
p10
I1
sVdmkp82u
p11
I1
sVcyl4ehx
p12
I3
sVd3yfpk6
p13
I2
sVd4e342z
p14
I2
sVdmzdfm6
p15
I1
sVczqdpo8
p16
I1
sVdmzcejs
p17
I1
sVda3u9a5
p18
I2
sVdkxmwjx
p19
I1
sVdmzabv1
p20
I8
sVdmz13w6
p21
I1
sVcyn9w14
p22
I1
sVds3hl16
p23
I4
sVd3oey6x
p24
I1
sVdffzy1m
p25
I4
sVdbmjjss
p26
I3
sVdpxe8qf
p27
I2
sVdbqwj64
p28
I1
sVdguvpk4
p29
I4
sVdnrc4m3
p30
I1
sVd02lnzm
p31
I1
sVczw41yt
p32
I1
sVczo1hom
p33
I1
sVdarixs0
p34
I2
sVd25wfve
p35
I1
sVdmzbc07
p36
I3
sVdkb7d2q
p37
I1
sVdf678ud
p38
I1
sVdmz9kjp
p39
I6
sVdpp7q2p
p40
I4
sVd20yndi
p41
I2
sVdmzd2pe
p42
I3
sVd5sziov
p43
I1
sVd1w0akg
p44
I1
sVd4daqvo
p45
I1
sVdh4wy3t
p46
I1
sVd2d9cd7
p47
I1
sVdmz7sev
p48
I3
sVdmz95ow
p49
I6
sVd2qjq75
p50
I2
sVcz4k2to
p51
I1
sVdgul5ol
p52
I1
sVd1i9ymf
p53
I3
sVdmz7gdj
p54
I5
sVdt35b7k
p55
I1
sVdky168g
p56
I2
sVczux1j1
p57
I2
sVdt32t78
p58
I1
sVdbbqa3r
p59
I2
sVdrm1yir
p60
I1
sVd37zeuc
p61
I3
sVd0o0k54
p62
I2
sVczok2b3
p63
I1
sVd8dlxvz
p64
I1
sVczvgsw1
p65
I1
sVczuwqtd
p66
I1
sVd1ic7r9
p67
I1
sVdmzayrf
p68
I1
sVdgacy3x
p69
I1
sVd5uuq9x
p70
I1
sVd4dj586
p71
I2
sVdje2a98
p72
I2
sVd6bv61q
p73
I4
sVdig6a37
p74
I1
sVd5lza02
p75
I5
sVdaspfgf
p76
I1
sVcymc293
p77
I1
sVdky1aoh
p78
I1
sVdmzcpws
p79
I1
sVd87agzw
p80
I1
sVd6bsye5
p81
I1
sVd8wzg8k
p82
I1
sVcz4k8m7
p83
I2
sVd5zgj8a
p84
I1
sVdmz8ztf
p85
I5
sVda10bld
p86
I1
sVdbqhssx
p87
I1
sVd1w0iun
p88
I1
sVczh1pci
p89
I1
sVdga1ipu
p90
I1
sVd37wy0s
p91
I2
sVde55km6
p92
I11
sVdj89row
p93
I1
s.