(dp0
Vd2fsfod
p1
I1
sVd0x5q4v
p2
I1
sVdb21c2q
p3
I1
sVdeh22ze
p4
I1
sVdbjf7kf
p5
I1
sVd68sflo
p6
I1
sVdfyt6z0
p7
I1
sVd27a8i8
p8
I1
sVdmvxfjb
p9
I1
sVdonid6o
p10
I1
sVdfh00cd
p11
I1
sVdegmvuc
p12
I1
sVdhwhvsg
p13
I1
sVdbmc7d9
p14
I1
sVds67plx
p15
I1
sVdf2r5qh
p16
I2
sVdbb73yv
p17
I1
sVdg74szf
p18
I1
sVdf1htmx
p19
I1
sVdgw6k5r
p20
I1
sVdcx04m2
p21
I1
sVddceqhf
p22
I1
sVd436e21
p23
I1
sVcz3g0tz
p24
I1
sVddmuwj6
p25
I1
sVd8mo2tq
p26
I1
sVdt9sylc
p27
I1
sVd3bwlb2
p28
I1
sVd10pqcb
p29
I1
sVd6omt7p
p30
I1
sVd650gsk
p31
I1
sVd82pm1v
p32
I1
sVd10q5sp
p33
I1
s.