(dp0
Vdml4efi
p1
I1
sVd2aqcdn
p2
I1
sVd00wxp6
p3
I1
sVd2j527v
p4
I1
sVd00xaio
p5
I3
sVdp94r6q
p6
I1
sVd3a7lt8
p7
I5
sVd00x1wa
p8
I3
sVd59fwgk
p9
I2
sVdftutjd
p10
I1
sVd30z6ja
p11
I2
sVdg5vpip
p12
I2
sVdhzng9w
p13
I5
sVdffe2gn
p14
I1
sVdemzf82
p15
I1
sVdi5b6uh
p16
I2
sVdi5chib
p17
I2
sVdhq2f3u
p18
I2
sVdgir7ua
p19
I1
sVdikekaf
p20
I1
sVd4t0f47
p21
I1
sVd0u1xd0
p22
I2
sVd312yvz
p23
I1
sVdfzmr84
p24
I1
sVdmr3v0g
p25
I1
sVd3a50lo
p26
I1
sVdoiw47z
p27
I1
sVdf10v7a
p28
I1
sVdixzg6t
p29
I1
sVdgvfufm
p30
I1
sVdr02o2t
p31
I1
sVdan3ly7
p32
I1
sVdgfpq0q
p33
I1
sVdi56y7h
p34
I1
sVd68xywu
p35
I1
sVd4xgmqz
p36
I1
sVdkxyfnn
p37
I3
sVd1aqebm
p38
I1
sVd00xgv8
p39
I1
sVdg64pwx
p40
I1
sVdce6i9z
p41
I3
sVdgkzbez
p42
I1
sVcze4688
p43
I1
sVd1j7qnd
p44
I1
sVd7rxitq
p45
I2
sVd0u4yzw
p46
I1
sVde5x31x
p47
I1
sVdhi3wjo
p48
I1
sVde8u6a0
p49
I2
sVdo4hx74
p50
I1
sVdimfun0
p51
I1
sVd1tswon
p52
I1
sVdozv8n2
p53
I1
sVdhn2ukr
p54
I1
sVd6idich
p55
I1
sVdiw0tei
p56
I1
sVd1v07kv
p57
I1
sVdg8bxb2
p58
I1
sVdhfmd9u
p59
I1
sVdg5tqy8
p60
I2
sVdb9cibx
p61
I2
sVd2ikk1j
p62
I1
s.