(dp0
Vd3434xp
p1
I1
sVdrbz99p
p2
I1
sVdkn51g8
p3
I2
sVd97ggyr
p4
I1
sVczt5qjk
p5
I2
sVcyvwbkw
p6
I1
sVd2fgyc9
p7
I2
sVd5er781
p8
I4
sVd07xi6s
p9
I1
sVdezue6l
p10
I1
sVdmf69b1
p11
I2
sVdfwn20o
p12
I1
sVdqa8tqu
p13
I1
sVdqu13xx
p14
I1
sVdivgu5o
p15
I1
sVd5a4gmn
p16
I1
sVd8jabsq
p17
I1
sVddw548b
p18
I1
sVddn7y5y
p19
I1
sVdao9fni
p20
I2
sVcymq7mn
p21
I1
sVdavgfy2
p22
I1
sVdgay4sn
p23
I1
sVdtep6tw
p24
I1
sVder5wzd
p25
I1
sVdgu1m1n
p26
I2
sVd60c099
p27
I1
sVdcqgvsl
p28
I1
sVda62gmn
p29
I1
sVde84o2d
p30
I1
sVdkp94h6
p31
I1
sVd7z0w6z
p32
I1
sVdra0zj0
p33
I3
sVdh2hyt7
p34
I1
sVdkn4838
p35
I1
sVd5kkbqi
p36
I1
sVdcphm2m
p37
I1
sVd8vz871
p38
I1
sVdgakmzj
p39
I2
sVd80064a
p40
I1
sVdbq0kjb
p41
I1
sVdkjy490
p42
I1
sVczuq54a
p43
I1
sVdrqn368
p44
I1
sVd1w02ao
p45
I1
sVd3zlab3
p46
I2
sVd1res53
p47
I1
sVdj3zlkx
p48
I1
sVdd8ozvv
p49
I1
sVd12ilep
p50
I1
sVdnrn3aj
p51
I3
sVd1q0os3
p52
I1
sVdf9q0j3
p53
I2
sVd6n355i
p54
I1
sVdbfitx5
p55
I1
sVd0y78y7
p56
I1
sVd5mh4ha
p57
I1
sVdr8zsv6
p58
I1
sVde6mhmp
p59
I1
sVd7gg0x3
p60
I1
sVdibvjag
p61
I1
sVd8yv4id
p62
I1
sVd0w2cli
p63
I1
sVd8yrzu2
p64
I1
sVdf0c5x6
p65
I1
sVdsxa0cs
p66
I1
sVdb12ko5
p67
I1
sVd7r9x9n
p68
I1
sVd8pccv0
p69
I2
sVczv9cbt
p70
I1
sVd5jlgeg
p71
I1
sVd7r97bp
p72
I1
sVdnimg5i
p73
I1
sVd0665he
p74
I2
sVdewvia7
p75
I2
sVdbuevdr
p76
I1
sVde2yqai
p77
I2
sVdbiqg6r
p78
I1
sVdpg5bho
p79
I1
sVd0ew848
p80
I1
sVdcd1g86
p81
I1
sVcztchmm
p82
I1
sVdcin14d
p83
I1
sVd4qv1ib
p84
I1
sVddolpsd
p85
I5
sVd7enj3d
p86
I1
sVd8d0726
p87
I1
sVdsquksi
p88
I1
sVd8k30cy
p89
I1
sVdmq3v4x
p90
I4
sVczg3ale
p91
I1
sVdhyqid6
p92
I1
sVd5ev59o
p93
I1
sVdsbzmdk
p94
I1
sVdbw6cvr
p95
I1
sVdogigki
p96
I1
sVdjlx3an
p97
I1
sVdipezoy
p98
I1
sVd42gw22
p99
I2
sVd4auq3y
p100
I1
sVdohxhin
p101
I1
sVcz43emh
p102
I1
sVdembh4x
p103
I1
sVdbzijcc
p104
I1
sVdqco23t
p105
I4
sVdnb8j2p
p106
I1
sVdhx9o4w
p107
I1
sVd2kmkql
p108
I1
sVdcjmyl5
p109
I1
sVd45qi1u
p110
I1
sVdcbzd05
p111
I1
sVd38igpq
p112
I1
sVczhfm26
p113
I1
sVdmwr6pt
p114
I2
sVcz9ydx8
p115
I2
sVd0rg5c2
p116
I1
sVdk95k92
p117
I2
sVd51bddl
p118
I2
sVd6gfype
p119
I1
sVdkiqdk2
p120
I1
sVdpnhyh3
p121
I1
sVd5fc7t8
p122
I1
sVd444uxc
p123
I1
sVdd7467u
p124
I2
sVd7uuuym
p125
I1
sVdcl1dhf
p126
I1
sVdiqi8gw
p127
I2
sVdnh4sde
p128
I2
sVd21vz2k
p129
I1
sVd5pfc1l
p130
I1
sVd1pdgdl
p131
I1
sVd7kc4ew
p132
I1
sVdbsp2ta
p133
I2
sVdb7cqlj
p134
I1
sVdi8k2mh
p135
I2
sVdcg6s8d
p136
I1
sVcztciy0
p137
I1
sVdc1lzw2
p138
I1
sVdkne6pu
p139
I2
sVdhw4lq6
p140
I1
sVd728pvz
p141
I1
sVcyqw0re
p142
I1
sVdgfslg3
p143
I1
sVdamt469
p144
I1
sVd2sotqp
p145
I2
sVd4u82kk
p146
I1
sVd4ap8o3
p147
I1
sVcyre1qx
p148
I1
sVd34f7rd
p149
I1
sVdknz402
p150
I2
sVdkn0tpd
p151
I2
sVd2pj216
p152
I1
sVczyyi70
p153
I1
sVdaiws4j
p154
I1
sVd6mcywf
p155
I1
sVdk2jc9b
p156
I1
sVda9ncbt
p157
I2
sVddx2an1
p158
I1
sVd7hrjy2
p159
I1
sVdhw4u1d
p160
I1
sVdhd4k5z
p161
I1
sVdgzn0s8
p162
I1
sVdkd9zdz
p163
I1
sVde4s6wx
p164
I2
sVdpyyzjp
p165
I1
sVd9zp1q6
p166
I1
sVd1f53it
p167
I2
sVdf67s8r
p168
I1
sVdc3ex6x
p169
I1
sVdaiwg12
p170
I1
sVdikxbfd
p171
I1
sVczkzahj
p172
I1
sVd1lidvr
p173
I1
sVdhqva5o
p174
I1
sVd9cpcmo
p175
I3
sVdgqujso
p176
I1
sVdmq39lj
p177
I1
sVd5piwea
p178
I2
sVdgvrju1
p179
I1
s.