(dp0
Vd975xm7
p1
I1
sVd1d47lp
p2
I1
sVdcxr1ib
p3
I1
sVdilzk9l
p4
I1
sVd87bsew
p5
I1
sVdr9of1h
p6
I1
sVdqd2iez
p7
I1
sVd6mg77v
p8
I1
sVdbzh0su
p9
I1
sVda6xbnk
p10
I1
sVdigcns6
p11
I1
sVdajkkcs
p12
I1
s.