(dp0
Vd01pwbc
p1
I1
s.(dp0
Vd01pwbc
p1
I2
s.(dp0
Vd01pwbc
p1
I1
sVd34mlnx
p2
I1
s.(dp0
Vd01pwbc
p1
I1
sVd3dt2ex
p2
I1
s.(dp0
Vd01pwbc
p1
I1
sVdbi469q
p2
I1
s.(dp0
Vd01pwbc
p1
I1
sVdbi9wqf
p2
I1
s.(dp0
Vd01pwbc
p1
I1
sVdf4p3mp
p2
I1
s.(dp0
Vd01pwbc
p1
I1
sVdf4p3mp
p2
I1
s.(dp0
Vd01pwbc
p1
I1
sVdj4mttn
p2
I1
s.(dp0
Vd01pwbc
p1
I1
sVdmyd7jq
p2
I1
s.(dp0
Vd01pwbc
p1
I1
sVdpqt466
p2
I1
s.(dp0
Vd01pwbc
p1
I1
sVdpqt466
p2
I1
s.(dp0
Vd01pwbc
p1
I1
sVdq9n3f5
p2
I1
s.(dp0
Vd01pwbc
p1
I1
sVdq9n3f5
p2
I1
s.(dp0
Vd01pwbc
p1
I1
sVdt75bn7
p2
I1
s.