(dp0
Vdfki9vp
p1
I1
sVd1m4h9b
p2
I1
sVda9e43x
p3
I1
sVdeozcy5
p4
I1
sVdaztj77
p5
I1
sVdtef91q
p6
I1
sVd1k508i
p7
I1
sVdb1ocoe
p8
I1
sVdgamkd7
p9
I1
sVczt9v8g
p10
I1
sVdjiljxn
p11
I1
sVdefb1xj
p12
I1
sVdb4z9nt
p13
I1
sVd7o0660
p14
I1
sVdspeth8
p15
I1
sVdk5yxuk
p16
I1
sVd6efkbh
p17
I1
sVd0m5q4t
p18
I1
sVdjcdhqw
p19
I1
sVd2hdhei
p20
I1
sVd1y7ejf
p21
I2
sVdjlphio
p22
I1
sVd993jjm
p23
I1
sVdsj875h
p24
I1
sVdeqykbr
p25
I1
sVd4mj21k
p26
I1
sVd2p47mp
p27
I1
sVddu40k7
p28
I1
sVd13zzea
p29
I1
sVdd7ce17
p30
I1
sVd8e693m
p31
I1
sVdi6z9ff
p32
I1
sVdt92fg2
p33
I1
sVdg7rvqv
p34
I1
sVdi9zivv
p35
I1
sVda40rwu
p36
I1
sVd45y215
p37
I1
sVddowmgy
p38
I1
sVd5491dc
p39
I1
sVdtgdgqv
p40
I1
sVd055q7l
p41
I1
sVd0cqa8m
p42
I1
sVdtibyf6
p43
I1
sVd3af8u0
p44
I1
sVddupkie
p45
I1
sVd05nirc
p46
I1
sVdh13e17
p47
I1
sVdac3rm7
p48
I1
sVdal0vb5
p49
I2
sVd5vro87
p50
I1
s.