(dp0
Vdf9dcfe
p1
I2
sVcyzk40v
p2
I1
sVdpp0d2l
p3
I1
sVdd2eyxc
p4
I1
sVd10z4yt
p5
I1
sVcz1xyxt
p6
I3
sVdrt17f7
p7
I1
sVcyteo7k
p8
I2
sVdk42m2q
p9
I1
sVd45cog0
p10
I1
sVd37l50x
p11
I2
sVdc63gmz
p12
I1
sVdd50c05
p13
I1
s.