(dp0
Vczarwpq
p1
I1
s.(dp0
Vd11q3g2
p1
I1
sVczarwpq
p2
I1
s.(dp0
Vd1cu4m9
p1
I1
sVczarwpq
p2
I1
s.(dp0
Vd36bbsx
p1
I1
sVczarwpq
p2
I1
s.(dp0
Vd3h65y0
p1
I1
sVczarwpq
p2
I1
s.(dp0
Vd3h65y0
p1
I1
sVczarwpq
p2
I1
s.(dp0
Vd4713ib
p1
I1
sVczarwpq
p2
I1
s.(dp0
Vd4oa3kw
p1
I1
sVczarwpq
p2
I1
s.(dp0
Vd6oh5ky
p1
I1
sVczarwpq
p2
I1
s.(dp0
Vd76l1ct
p1
I1
sVczarwpq
p2
I1
s.(dp0
Vd76n64v
p1
I1
sVczarwpq
p2
I1
s.(dp0
Vdbujlry
p1
I1
sVczarwpq
p2
I1
s.(dp0
Vdg7sreq
p1
I1
sVczarwpq
p2
I1
s.(dp0
Vdmfouxl
p1
I1
sVczarwpq
p2
I1
s.