(dp0
Vd0dz30a
p1
I1
s.(dp0
Vd0dz30a
p1
I2
s.(dp0
Vd0dz30a
p1
I2
s.(dp0
Vd0dz30a
p1
I1
sVdqz8g9d
p2
I1
s.(dp0
Vd0dz30a
p1
I1
sVdruppo4
p2
I1
s.(dp0
Vd0dz30a
p1
I1
sVdruppo4
p2
I1
s.(dp0
Vd0dz30a
p1
I1
sVdruppo4
p2
I1
s.(dp0
Vd0dz30a
p1
I1
sVdruppo4
p2
I1
s.