(dp0
Vdn0osju
p1
I2
sVd0878mn
p2
I1
sVdfcc7jh
p3
I1
sVd29hzfv
p4
I1
sVddajsr8
p5
I1
sVcyshs3o
p6
I1
sVdi8wma8
p7
I1
sVd08rb9f
p8
I1
sVdd5ixve
p9
I1
sVd0lmpve
p10
I3
sVczucg2a
p11
I1
sVdf1v3qn
p12
I1
sVdpvl1zo
p13
I1
sVdjsluqb
p14
I1
sVdresskt
p15
I1
sVdrga2pq
p16
I1
sVd7g24rj
p17
I1
sVd82lqzf
p18
I1
sVdcawzuj
p19
I1
sVd88ui1x
p20
I1
sVd2gqrcm
p21
I1
sVd7g1s5v
p22
I1
sVcztsjox
p23
I1
s.