(dp0
Vcznwm9r
p1
I1
s.(dp0
Vcznwm9r
p1
I1
sVczo4h8b
p2
I1
s.(dp0
Vcznwm9r
p1
I1
sVczve2qm
p2
I1
s.(dp0
Vd0yrokv
p1
I1
sVcznwm9r
p2
I1
s.(dp0
Vcznwm9r
p1
I1
sVd13e8ln
p2
I1
s.(dp0
Vd3gcoif
p1
I1
sVcznwm9r
p2
I1
s.(dp0
Vd776qzk
p1
I1
sVcznwm9r
p2
I1
s.(dp0
Vdazqnzm
p1
I1
sVcznwm9r
p2
I1
s.(dp0
Vdbkm3bo
p1
I1
sVcznwm9r
p2
I1
s.(dp0
Vdbkm709
p1
I1
sVcznwm9r
p2
I1
s.(dp0
Vdmm5vcx
p1
I1
sVcznwm9r
p2
I1
s.