(dp0
Vdfx6uge
p1
I2
sVdi0qsaa
p2
I1
sVdekq63t
p3
I1
sVdbeharc
p4
I1
sVdfx9moh
p5
I2
sVd0tmxcr
p6
I1
sVd6aopjo
p7
I1
sVd565igk
p8
I1
sVddpyt5d
p9
I1
sVdefbvy5
p10
I1
sVdmudto0
p11
I2
sVd7g3gqw
p12
I2
sVdip1rkd
p13
I1
sVd2bdc2k
p14
I1
sVdef4me3
p15
I1
sVdiebi43
p16
I1
sVd7mbsi4
p17
I1
sVd7t28hw
p18
I1
sVdbezfnr
p19
I1
sVdfx6i5j
p20
I1
sVd1wdww0
p21
I1
sVdojz9qs
p22
I1
sVdp098qw
p23
I1
sVdfxzcgw
p24
I1
sVcyywmt7
p25
I1
sVdad1oeg
p26
I1
sVdeh4yzv
p27
I1
sVdbsz11p
p28
I1
sVdbsfb4e
p29
I1
sVd37bhob
p30
I1
sVd5er0ev
p31
I2
sVcypep3z
p32
I2
sVddlylfr
p33
I1
sVdqmn7gz
p34
I1
sVdqcpf32
p35
I1
sVdfx77nj
p36
I2
sVd0yrokv
p37
I1
sVdfwqiuv
p38
I3
sVd2g74jg
p39
I1
sVczfoleb
p40
I1
sVdfxf9ul
p41
I1
sVd91alik
p42
I1
sVd7r9x9n
p43
I1
sVdbew9tz
p44
I2
sVdfx95se
p45
I2
sVdiwfesw
p46
I1
sVdfxj1rt
p47
I1
sVdfwvl5h
p48
I1
sVd8d3k7y
p49
I1
sVdfwz4j3
p50
I1
sVdfxjed7
p51
I1
sVdifu7m7
p52
I1
sVdfz7gpl
p53
I2
sVdfx51cz
p54
I3
sVdbgu9of
p55
I1
sVdhsx3vi
p56
I1
sVde9fjwu
p57
I1
sVd0j383c
p58
I2
sVdc665qy
p59
I1
sVdbevisx
p60
I2
sVd679drv
p61
I1
sVddxt0zl
p62
I1
sVdayg6h4
p63
I1
sVdfy3o61
p64
I1
sVdrjnwes
p65
I1
sVdqema3u
p66
I1
sVd3d6q2z
p67
I1
sVdofrxeh
p68
I1
s.