(dp0
Vdh15w40
p1
I1
sVd25uqt9
p2
I1
sVd9cex7a
p3
I1
sVd62noof
p4
I1
sVdfx9moh
p5
I1
sVdhn2cn3
p6
I1
sVd8ihccd
p7
I1
sVdh952i8
p8
I1
sVdajzsyk
p9
I2
sVdo1s2dt
p10
I1
sVdbnaw3y
p11
I1
sVczror1u
p12
I2
sVd0wacbc
p13
I1
sVdkr33nl
p14
I1
sVd82gpw3
p15
I1
sVd7kbi9x
p16
I2
sVdgzbziv
p17
I3
sVcz1ca85
p18
I1
sVd22abbg
p19
I1
sVdc253xc
p20
I1
sVdht7alr
p21
I1
sVd5jizqi
p22
I1
sVds93gri
p23
I1
sVcymgg7n
p24
I1
sVdd5xjxz
p25
I1
sVd3t7m12
p26
I1
sVd290vew
p27
I1
sVdfkep28
p28
I3
sVdeovs4w
p29
I2
sVdshgwho
p30
I1
sVdfvsrk0
p31
I1
sVdeky9bz
p32
I4
sVdfng6na
p33
I1
sVcyxag4c
p34
I1
sVdsr1kma
p35
I1
sVd1kmjn9
p36
I1
sVd88ffr2
p37
I1
sVd2hnr1e
p38
I1
sVczs3gft
p39
I1
sVddil7ti
p40
I1
sVde09fpo
p41
I1
sVdmljzq4
p42
I1
sVczm53nm
p43
I1
sVd6286ae
p44
I1
sVd39vttd
p45
I2
sVdbcxvik
p46
I1
sVdgf01te
p47
I1
sVdbm6vq1
p48
I1
sVdg6hc49
p49
I1
sVd24d6je
p50
I1
sVd9ftvdq
p51
I1
sVd9jew7h
p52
I1
sVd1acuzq
p53
I1
sVddwsoj8
p54
I1
sVd6hzq4j
p55
I1
sVdgxcy6s
p56
I1
sVczcs07e
p57
I1
sVdgcpr9p
p58
I1
sVd5rhfr0
p59
I1
sVdn1gl2t
p60
I3
sVdfx51cz
p61
I1
sVdh0iocw
p62
I2
sVd5826hs
p63
I1
sVd8zw5dl
p64
I1
sVda1gjyr
p65
I1
sVd14yz6g
p66
I1
sVdebr9ki
p67
I2
sVd2ph42j
p68
I2
sVdd2t2o6
p69
I1
sVdb8q02r
p70
I1
sVczm6izy
p71
I1
sVd8p1v4n
p72
I1
sVdahkqu5
p73
I1
sVdf3eshj
p74
I2
sVdhx7ize
p75
I2
sVdrb3u5e
p76
I1
sVczmazs4
p77
I1
sVdfzvotr
p78
I1
sVdcte6ts
p79
I1
sVdbo2g38
p80
I1
sVcz0fvmz
p81
I1
sVd8stee2
p82
I1
sVd1me06r
p83
I1
sVdrmtzt0
p84
I1
sVd7pp16p
p85
I1
sVdpneptm
p86
I1
sVdfk0dd3
p87
I1
sVd3xfi3j
p88
I2
sVd0kpnza
p89
I5
sVd048guh
p90
I1
sVd03zjkt
p91
I1
sVddu319w
p92
I1
sVdfw5cbg
p93
I1
sVcz6iaa9
p94
I1
sVdf9z6gk
p95
I1
sVczz4rxr
p96
I1
sVdfb8qjk
p97
I1
sVd125xl8
p98
I2
sVdnrqyvy
p99
I1
sVdgqx4sy
p100
I1
sVde15rld
p101
I1
sVdjm3ydj
p102
I1
sVdefx1m2
p103
I1
sVdjtyuaw
p104
I1
sVd0t7x0s
p105
I1
sVd1wkwmh
p106
I1
sVd4i8kp9
p107
I1
sVdnhy84g
p108
I1
sVd1zes7y
p109
I1
sVdd55zps
p110
I1
sVdhlrzm5
p111
I1
sVcz9m924
p112
I3
sVdc2hjtj
p113
I1
sVdduv9g1
p114
I3
sVd48cgz6
p115
I1
sVd9mf6fi
p116
I1
sVczyqtt1
p117
I1
sVd911j37
p118
I1
sVd5tdx7d
p119
I1
sVd0e52yx
p120
I1
sVd0wicqu
p121
I1
sVdh31g9j
p122
I2
sVdrdeu3f
p123
I2
sVd26khs8
p124
I1
sVdbz5mt4
p125
I1
sVd52i70o
p126
I4
sVddfi25r
p127
I1
sVdbia2tu
p128
I4
sVdq9r33c
p129
I1
sVd605nlx
p130
I1
sVdijchj9
p131
I1
sVdie3dvo
p132
I1
sVd0vdp2a
p133
I1
sVdh0enw0
p134
I1
sVdg30erm
p135
I1
sVd16xou7
p136
I3
sVdcvf3tz
p137
I1
sVdcpggga
p138
I1
sVd7wa34c
p139
I2
sVd1353rl
p140
I1
sVd9p45fu
p141
I1
sVdoew2pu
p142
I1
sVd0xxbqt
p143
I1
sVd23g4rv
p144
I2
sVcz29sy3
p145
I1
sVdcpws02
p146
I1
sVd0s7351
p147
I1
sVdmfzn1r
p148
I1
sVd3kfr8t
p149
I1
sVd2hczwy
p150
I3
sVcza545z
p151
I1
sVd01adiv
p152
I1
sVd910ch3
p153
I1
sVddf8xc0
p154
I1
sVd0spjwr
p155
I1
sVd67t4iq
p156
I1
sVdb1ltil
p157
I1
sVddyr97y
p158
I1
sVdc1p11r
p159
I1
sVdb8gaya
p160
I1
sVdajkdv3
p161
I1
sVdmgqwjm
p162
I4
sVd7vtg85
p163
I1
sVd5aqo82
p164
I1
sVdjfodff
p165
I1
sVd7m6hbl
p166
I2
sVdjtr4xs
p167
I1
sVdmnaw88
p168
I1
sVd0d7kee
p169
I1
sVdouud5m
p170
I1
sVdcrjwm3
p171
I2
sVdd4v13r
p172
I2
sVcymbkov
p173
I1
sVdi588pk
p174
I1
sVdegr6r7
p175
I1
sVd0m3vs7
p176
I1
sVd9rj80l
p177
I1
sVd60quq2
p178
I1
sVd62v3sm
p179
I1
sVdinpi6e
p180
I1
sVddoc5w0
p181
I1
sVcz90uyw
p182
I2
sVdn95nt1
p183
I2
sVdiof2ii
p184
I1
sVdfk33bh
p185
I2
sVdq1nl5k
p186
I1
sVdjbgmui
p187
I1
sVd59u909
p188
I4
sVdimlixo
p189
I1
sVdfk6p51
p190
I3
sVdd93uvn
p191
I1
sVd4nhp1e
p192
I1
sVdqbfcns
p193
I1
sVd2sbcwm
p194
I1
sVd2o7fbg
p195
I1
sVdas6oum
p196
I1
sVd28u500
p197
I3
sVdef60ac
p198
I1
sVd3wtfg8
p199
I1
sVdfrnc7d
p200
I2
sVd1wqn2p
p201
I1
sVdf6y6hx
p202
I1
sVd3minu5
p203
I1
sVd2pbfn6
p204
I1
sVd3i40fc
p205
I3
sVdg170cf
p206
I1
sVdcb4spo
p207
I1
sVdinpki6
p208
I1
sVd1aq77x
p209
I1
sVdhj77t8
p210
I1
sVdnj406w
p211
I1
sVdinbk8i
p212
I1
sVd3qyhql
p213
I1
sVd68677t
p214
I2
sVdeen9ds
p215
I1
sVdd2uvhv
p216
I1
sVcytxz63
p217
I1
sVd4zxluh
p218
I1
sVcyljyhe
p219
I1
sVd1wn161
p220
I1
sVdd8f5gt
p221
I1
sVcyyrooy
p222
I1
sVd4greu9
p223
I1
sVd8bpw2v
p224
I2
sVdgh0v0s
p225
I1
sVd4il45q
p226
I1
sVdacds2s
p227
I3
sVd9t1v5c
p228
I1
sVdg4am6h
p229
I1
sVddxq3ep
p230
I4
sVdiypp14
p231
I1
sVdqcv8j7
p232
I1
sVddlxq1j
p233
I1
sVdjhbtqd
p234
I1
sVcz8tvzo
p235
I1
sVd7u9i1e
p236
I1
sVd8ezvhv
p237
I1
sVd9ppj68
p238
I1
sVd44jwr2
p239
I1
sVd8k54p4
p240
I1
sVd3nevr5
p241
I1
sVdi336h9
p242
I1
sVcz2ui64
p243
I1
sVdg5qw49
p244
I1
sVdculn2o
p245
I1
sVdbv03h1
p246
I3
sVdeo4i07
p247
I1
sVd1jp7lc
p248
I1
sVd8chuvd
p249
I1
sVd11f2zw
p250
I1
sVcyjem91
p251
I1
sVd86venn
p252
I1
sVdjyhzym
p253
I1
sVdco8gti
p254
I1
sVd3mvvru
p255
I1
sVdbha90p
p256
I1
sVd9anlpk
p257
I1
sVd5eh9jr
p258
I1
sVdeznbgl
p259
I1
sVczpve2l
p260
I1
sVd01y2za
p261
I1
sVczv2iuf
p262
I3
sVdbpbae6
p263
I1
sVdd9wy2n
p264
I1
sVd1jqwoe
p265
I1
sVdbzge3e
p266
I1
sVd2tv08r
p267
I1
sVdbxsikf
p268
I1
sVd0hii9c
p269
I1
sVd2m6o7v
p270
I3
sVdqmu7y7
p271
I2
sVdnepw44
p272
I1
sVddvn8j1
p273
I1
sVdk0a5qb
p274
I1
sVddqxiz5
p275
I3
sVdgpz22e
p276
I1
sVdj9dt69
p277
I1
sVd27cvhp
p278
I1
sVczc6rvh
p279
I1
sVczx9h3n
p280
I1
sVcyxphd0
p281
I1
sVdc99w99
p282
I2
sVdjk8371
p283
I1
sVd5ylt2b
p284
I1
sVd07mprv
p285
I1
sVdjtyz6d
p286
I1
sVczqre7b
p287
I1
sVdg5qr1w
p288
I2
sVdovojqv
p289
I1
sVdkdgt1y
p290
I1
sVdbd30qf
p291
I1
sVd6lswh0
p292
I1
sVd9mqvcp
p293
I1
sVdhcixc0
p294
I1
sVd0d0qxt
p295
I1
sVdknmvyg
p296
I1
sVd94clai
p297
I1
sVdgvmuf1
p298
I1
sVd5eolbp
p299
I2
sVdamdxl4
p300
I1
sVdip1rkd
p301
I1
sVdk8rskv
p302
I1
sVdo5nip5
p303
I1
sVd4yxtt9
p304
I1
sVdjtyjm2
p305
I2
sVdrza25f
p306
I1
sVdbiajza
p307
I1
sVdar3gql
p308
I1
sVd2na3ex
p309
I1
sVd94pts2
p310
I2
sVd196kbr
p311
I1
sVd7i252b
p312
I1
sVd0zs502
p313
I1
sVd231sn0
p314
I2
sVd15adqq
p315
I1
sVd7jo3p1
p316
I1
sVd223vwq
p317
I1
sVd11um52
p318
I1
sVd18zuzh
p319
I1
sVd5xoseq
p320
I2
sVdfg3ark
p321
I1
sVd5ykzc1
p322
I1
sVdpkzjkn
p323
I2
sVddlyk0y
p324
I1
sVd18erlo
p325
I1
sVd3xeygq
p326
I1
sVd9defeg
p327
I1
sVdos86b6
p328
I1
sVdhcdc54
p329
I1
sVdas5sue
p330
I1
sVdbiicln
p331
I2
sVd5deqz0
p332
I1
sVdfp3ido
p333
I1
sVd984830
p334
I1
sVdrkwzhb
p335
I1
sVczt7f5v
p336
I1
sVdcezjzd
p337
I1
sVdewvia7
p338
I1
sVdnutz8q
p339
I1
sVdd2vpe5
p340
I1
sVczb2yvu
p341
I1
sVdfmhdee
p342
I1
sVde5xe76
p343
I1
sVd24cx80
p344
I1
sVd03uglj
p345
I1
sVdnxk5es
p346
I1
sVdgz7kx6
p347
I1
sVd1ni3k1
p348
I1
sVdmvp8ak
p349
I1
sVdfjwdtx
p350
I1
sVd08233h
p351
I5
sVd0eyvid
p352
I1
sVd917ufv
p353
I1
sVczv7qxz
p354
I1
sVd67r8tu
p355
I1
sVda5j6jz
p356
I1
sVdc8zqfd
p357
I1
sVdpcyq5p
p358
I1
sVd1k5xmo
p359
I1
sVczleqtv
p360
I1
sVczod1g3
p361
I1
sVddgk1w2
p362
I1
sVd57x4ey
p363
I1
sVdbqgtys
p364
I1
sVdc9420j
p365
I1
sVd0c73p3
p366
I1
sVd9hfo2l
p367
I1
sVdenwgbv
p368
I1
sVdiexhe6
p369
I1
sVdkkkt2c
p370
I1
sVdbd4nbo
p371
I1
sVddd6ija
p372
I1
sVd1ubzvo
p373
I1
sVdgakmzj
p374
I1
sVd7ygqaq
p375
I1
sVdcwy9cx
p376
I1
sVdj2lqpq
p377
I1
sVdfrxogx
p378
I4
sVddl0dte
p379
I2
sVdq222gr
p380
I1
sVde29bqp
p381
I1
sVd4m9jdq
p382
I1
sVda4ilfu
p383
I1
sVd4iglol
p384
I1
sVd1tau33
p385
I3
sVczmbfum
p386
I1
sVcznxzn6
p387
I1
sVd01p0jl
p388
I1
sVdfyigun
p389
I1
sVd8alhsg
p390
I2
sVd4h8ria
p391
I2
sVd036ewk
p392
I1
sVdfxj1rt
p393
I1
sVd3a02bu
p394
I1
sVczmqmhz
p395
I1
sVd6bwda8
p396
I1
sVdfth487
p397
I1
sVdcdw8bz
p398
I1
sVcze3inj
p399
I1
sVd6p0q63
p400
I1
sVd67rwd0
p401
I1
sVcz0v7my
p402
I3
sVds93moe
p403
I1
sVdddyvw9
p404
I1
sVd04w3o3
p405
I1
sVd65rbar
p406
I1
sVdexza5s
p407
I1
sVdgflvu9
p408
I1
sVd5xshib
p409
I1
sVd5egsd5
p410
I2
sVd47p3mo
p411
I2
sVd5vyu97
p412
I2
sVdikh0e5
p413
I1
sVd4gs937
p414
I1
sVda1auf1
p415
I1
sVde8u6a0
p416
I1
sVd2fihfr
p417
I3
sVd476cmo
p418
I1
sVd5tu094
p419
I1
sVd6i5g4u
p420
I1
sVczv0s1m
p421
I1
sVd2ghbae
p422
I1
sVdikpkaj
p423
I1
sVd6kyubi
p424
I1
sVd6ce2az
p425
I1
sVd0d71ih
p426
I1
sVd03fobe
p427
I1
sVd0xitcj
p428
I6
sVdiypkqq
p429
I1
sVd0wnsa8
p430
I1
sVdh24edq
p431
I1
sVd625im4
p432
I1
sVdc8th12
p433
I5
sVd86bg5o
p434
I2
sVda65e1v
p435
I1
sVd1ets1c
p436
I3
sVdawnghw
p437
I1
sVdcuvlx9
p438
I1
sVdd5mxvs
p439
I1
sVdedkpw6
p440
I1
sVd2gah19
p441
I1
sVd35dt0c
p442
I1
sVdhzsaga
p443
I1
sVd3vavcr
p444
I1
sVdfvcn6q
p445
I1
sVd188huo
p446
I1
sVd08p6p4
p447
I2
sVd19kmzl
p448
I1
sVdhrkiqw
p449
I1
sVdawntv6
p450
I1
sVdiqkhaw
p451
I1
sVd5gzpqk
p452
I1
sVczjqny5
p453
I1
sVd1taq3y
p454
I2
sVczpthi4
p455
I1
sVd738yhn
p456
I4
sVd0iirbb
p457
I1
sVd984fz5
p458
I1
sVdig88bw
p459
I1
sVdihbdri
p460
I1
sVdd9vn5w
p461
I1
sVdfngur5
p462
I1
sVddnexzy
p463
I1
sVd9gsd07
p464
I1
sVcza5tf3
p465
I1
sVd4hz7tg
p466
I1
sVd4y1md7
p467
I1
sVczxh30t
p468
I2
sVd1g9da0
p469
I1
sVczy2xvw
p470
I1
sVcyz7dc5
p471
I1
sVdb63zxr
p472
I1
sVdrguty0
p473
I1
sVd22ook5
p474
I1
sVd2bci2w
p475
I1
sVdah29xk
p476
I1
sVczayvfd
p477
I1
sVczz3mua
p478
I1
sVdq14akr
p479
I1
sVd7noik1
p480
I1
sVd4ykw80
p481
I1
sVczn6wfg
p482
I2
sVdgz8g75
p483
I2
sVd13she5
p484
I1
sVdkl9ttk
p485
I1
sVddy42j4
p486
I1
sVd9rl13n
p487
I1
sVd0akdo0
p488
I1
sVd3udon9
p489
I1
sVdqeae3z
p490
I1
sVdhhpu5c
p491
I1
sVd0gx1uh
p492
I1
sVdisigbm
p493
I1
sVd63vyg7
p494
I1
sVdhcgmv8
p495
I1
sVcyietzv
p496
I1
sVd0h182p
p497
I1
sVd8huuau
p498
I1
sVdf6etnf
p499
I1
sVdhs74yl
p500
I1
sVd8tni4h
p501
I1
sVcyjg8dy
p502
I1
sVd53riv3
p503
I1
sVdftfdqf
p504
I1
sVd0h1sjb
p505
I1
sVd9mtp01
p506
I1
sVdgp3ism
p507
I1
sVd39vegp
p508
I1
sVdcgkqcz
p509
I1
sVdcg7y1c
p510
I1
sVdiv7ztu
p511
I1
sVd7k1mnw
p512
I1
sVd2cw440
p513
I1
sVdg2ojjg
p514
I1
sVdgwmkby
p515
I1
sVdqgubx7
p516
I2
sVdf3m3rj
p517
I1
sVdcwgvs8
p518
I1
sVdk0miro
p519
I1
sVd3j9b3b
p520
I1
sVd2iyq81
p521
I1
sVd202nvf
p522
I1
sVd0cx847
p523
I1
sVdb0z9a0
p524
I2
sVdml4zrt
p525
I1
sVdd3ugkk
p526
I1
sVdhz98dz
p527
I1
sVd4gu7l1
p528
I1
sVddarhr0
p529
I1
sVdd8ule4
p530
I1
sVda8d7yh
p531
I1
sVczne6p8
p532
I1
sVds6xnst
p533
I2
sVddhmx26
p534
I1
sVddan6kj
p535
I1
sVdhcs05v
p536
I1
sVd8q8trn
p537
I1
sVd2lvliz
p538
I1
sVdaq3qev
p539
I1
sVdg61tov
p540
I1
sVdai41pn
p541
I2
sVdbveim5
p542
I1
sVdjj0yxz
p543
I1
sVd4c0xca
p544
I2
sVddiaihy
p545
I1
sVdel95st
p546
I1
sVdc8z71z
p547
I2
sVdd60413
p548
I1
sVd3xvdj8
p549
I1
sVdbso6cw
p550
I2
sVd1srdi3
p551
I5
sVdggol6c
p552
I4
sVd519hle
p553
I1
sVd5wdt3n
p554
I1
sVd2vx4b9
p555
I2
sVd8w4fop
p556
I1
sVd54eqqs
p557
I1
sVcyxt381
p558
I1
sVd2qs30y
p559
I1
sVdeqb072
p560
I1
sVdg6hlzf
p561
I1
sVdrb040b
p562
I1
sVddigmg0
p563
I1
sVd22oy6m
p564
I1
sVdhsge60
p565
I2
sVdmlxd7d
p566
I1
sVdbjtg0w
p567
I2
sVdfbwdvl
p568
I1
sVd4lbhvm
p569
I1
sVd1q10wh
p570
I1
sVdgwml91
p571
I1
sVczpcqip
p572
I1
sVcyojwfv
p573
I1
sVdk09vfm
p574
I1
sVd0tp2zu
p575
I1
sVd0d4stt
p576
I3
sVdix24lp
p577
I1
sVdfk4teb
p578
I3
sVdq5o6n1
p579
I1
sVczowu2l
p580
I1
sVd9djult
p581
I1
sVcznnh64
p582
I2
sVderh2j0
p583
I1
sVdq19j3f
p584
I1
sVd0fx2ex
p585
I1
sVd6709ke
p586
I1
sVczaarb0
p587
I3
sVd5ysed4
p588
I1
sVczzhdow
p589
I1
sVczgwpif
p590
I1
sVdfk0wve
p591
I1
sVdgng8kn
p592
I1
sVdc93da2
p593
I3
sVd4ackwy
p594
I2
sVdit4yfn
p595
I1
sVdegl6p0
p596
I1
sVdc8z9ad
p597
I1
sVda0lhq4
p598
I1
sVdpjcsn8
p599
I1
sVd9cvy2y
p600
I2
sVdou6fw6
p601
I1
sVdeo3g1t
p602
I1
sVd0821nt
p603
I1
sVd4mnmoa
p604
I1
sVddz69nf
p605
I1
sVdc8ogpa
p606
I1
sVcz0mwf6
p607
I1
sVdq0dso1
p608
I3
sVdgsjp1l
p609
I1
sVd7uf5op
p610
I2
sVcypojho
p611
I1
sVd7n1a3r
p612
I2
sVdcrhx9a
p613
I2
sVcz4abrb
p614
I1
sVdiz1j0q
p615
I1
sVcyi2nxe
p616
I1
sVdfk7e3g
p617
I3
sVdnznmen
p618
I1
sVd3wwkg0
p619
I1
sVdejbyy1
p620
I1
sVd1elx57
p621
I2
sVd48lias
p622
I1
sVdfk8svp
p623
I1
sVd464ubf
p624
I1
sVd5i3ajm
p625
I1
sVdhibobw
p626
I1
sVd9vk4rx
p627
I2
sVd15p3a2
p628
I1
sVdc91gka
p629
I3
sVd13jrcd
p630
I1
sVdgt3pd2
p631
I1
sVd51af6r
p632
I1
sVdfknrjn
p633
I1
sVdnz36us
p634
I1
sVcymky8l
p635
I1
sVdj4z8jp
p636
I2
sVdneqkms
p637
I1
sVd6culqf
p638
I1
sVd8n3hp6
p639
I1
sVde3acdl
p640
I1
sVdn4hgo4
p641
I1
sVdgk2quy
p642
I1
sVdj309vg
p643
I1
sVd06xh1q
p644
I1
sVd4v1sdu
p645
I1
sVdkupstv
p646
I1
sVd5cw4a2
p647
I2
sVdnz4m8v
p648
I2
sVd3h63g5
p649
I1
sVd57yjj0
p650
I1
sVcznowl3
p651
I1
sVdem7pmm
p652
I1
sVd4q6hrp
p653
I1
sVcze5czr
p654
I1
sVdaa6v8e
p655
I1
sVd2h7yw3
p656
I1
sVd2x5613
p657
I1
sVd2bzlcb
p658
I1
sVdmvqe4w
p659
I1
sVcymo861
p660
I1
sVd2o0lc6
p661
I1
sVd7jug3x
p662
I1
sVd8fexav
p663
I2
sVd2j4vb1
p664
I2
sVdj6kqdj
p665
I1
sVdhk0pi2
p666
I1
sVd7ldyuc
p667
I1
sVd0oj5it
p668
I1
sVczzfvtu
p669
I1
sVd2p3j66
p670
I1
sVdfx2673
p671
I2
sVdphhf5j
p672
I1
sVddkl3us
p673
I1
sVdc6kwms
p674
I1
sVd58f12d
p675
I1
sVdfka8xq
p676
I13
sVdknmqhe
p677
I4
sVd3rhc0v
p678
I1
sVdgdron8
p679
I1
sVdb3u0xe
p680
I1
sVddr1832
p681
I1
sVd976f8a
p682
I1
sVdivo5dy
p683
I1
sVczw1uat
p684
I1
sVd3py4fv
p685
I1
sVdc930ik
p686
I1
sVddhrprn
p687
I1
sVd319pl4
p688
I1
sVdnyx2pr
p689
I1
sVd0774ud
p690
I1
sVd0zsu9q
p691
I1
sVd3haxwu
p692
I1
sVdfk1myk
p693
I1
sVd6knjdy
p694
I1
sVdb3cquk
p695
I3
sVd2pnoyz
p696
I1
sVd1grwlr
p697
I2
sVdidx927
p698
I2
sVdg33208
p699
I1
sVdee3775
p700
I1
sVdaxl54y
p701
I1
sVd43hfr5
p702
I1
sVcyzhpvi
p703
I1
sVd2a1lud
p704
I1
sVczm5f2z
p705
I1
sVdk5go9q
p706
I1
sVcyqk4f5
p707
I4
sVddojdid
p708
I1
sVdojylyi
p709
I1
sVd3ehxls
p710
I1
sVdffj5eg
p711
I1
sVdfkah1h
p712
I1
sVd82jcun
p713
I1
sVdfxty8y
p714
I1
sVd0t6ndg
p715
I1
sVd2l8dou
p716
I1
sVdpegqn4
p717
I1
sVd7bajcl
p718
I2
sVdg2vk0w
p719
I1
sVdmow40d
p720
I2
sVd08mw76
p721
I1
sVczcc35u
p722
I1
sVdhgarbl
p723
I1
sVd5ol13j
p724
I2
sVd4ukg10
p725
I2
sVdkzbky6
p726
I1
sVd0qkl0o
p727
I1
sVd5zvnar
p728
I1
sVdgjssia
p729
I1
sVd7wrhkh
p730
I2
sVdoihrsw
p731
I1
sVd5w9dwe
p732
I1
sVde1t4kf
p733
I2
sVdnypxwp
p734
I1
sVdh5xs5v
p735
I2
sVd7v1xlo
p736
I1
sVdb7jhl1
p737
I1
sVd4rk2vb
p738
I1
sVczs407w
p739
I1
sVd0yx082
p740
I1
sVd2tqjdq
p741
I1
sVd8xh84u
p742
I1
sVdgk4k8y
p743
I1
sVd1iejag
p744
I1
sVczxl60t
p745
I1
sVcyypgtf
p746
I1
sVdilyxmo
p747
I1
sVdbvytvq
p748
I3
sVdrrx18z
p749
I1
sVd6t6ft7
p750
I1
sVdqb4ypq
p751
I1
sVd08p81o
p752
I1
sVdd064lg
p753
I1
sVde0l2yt
p754
I1
sVdfk5z01
p755
I1
sVd0u20ts
p756
I1
sVdco4qzl
p757
I1
sVdrzsbgb
p758
I1
sVd2e3zes
p759
I1
sVcz0eu8v
p760
I1
sVdhiuaol
p761
I1
sVddg5n0a
p762
I1
sVdgomlp5
p763
I1
sVdexlpp4
p764
I1
sVd4moce6
p765
I1
sVd7zzcou
p766
I1
sVdo9rsnl
p767
I2
sVdhh8598
p768
I1
sVdottszt
p769
I1
sVdkjw8e8
p770
I2
sVd227kme
p771
I1
sVd45mtqz
p772
I1
sVd08x62z
p773
I1
sVdh2ej8r
p774
I1
sVd16m5ou
p775
I2
sVdmlq6v1
p776
I1
sVdd4zeqe
p777
I1
sVd9blss9
p778
I1
sVd2id1fs
p779
I1
sVd5yfcjw
p780
I1
sVczayt28
p781
I1
sVcz48f9r
p782
I1
sVda5o59a
p783
I1
sVderc7ku
p784
I1
sVd9bc93a
p785
I1
sVd74rlje
p786
I1
sVdb5z0d2
p787
I1
sVd22pw8n
p788
I1
sVcz1lyj0
p789
I1
sVdk0vyhb
p790
I1
sVd4lah5s
p791
I1
sVd0tglmk
p792
I1
sVdk8r5hz
p793
I1
sVdqt853d
p794
I2
sVdc6oqhw
p795
I2
sVd039o1r
p796
I1
sVdii3ipp
p797
I2
sVdaz3sde
p798
I1
sVdgy107b
p799
I1
sVd2p0kgg
p800
I1
sVdesb4g1
p801
I1
sVcze58fp
p802
I1
sVcz6is65
p803
I1
sVdmzniel
p804
I1
sVdewmwuc
p805
I1
sVdkwrs32
p806
I1
sVd10m8ut
p807
I1
sVd2yxt1u
p808
I1
sVczaffuu
p809
I2
sVd3fn9hi
p810
I1
sVdbk6wgy
p811
I1
sVdsdsyc3
p812
I1
sVd3fkt26
p813
I1
sVdeaa2pg
p814
I1
sVdq1rbl1
p815
I1
sVdea4jue
p816
I1
sVdejbqyw
p817
I1
sVdfxevt0
p818
I2
sVcz4wd9y
p819
I1
sVdqd3rpe
p820
I2
sVd1xo446
p821
I1
sVcyq44jt
p822
I1
sVd09ml4x
p823
I1
sVd0h1l07
p824
I1
sVd0bsyuz
p825
I1
sVd5yobne
p826
I1
sVda0vgyq
p827
I1
sVd8pejco
p828
I2
sVdeaa7hw
p829
I1
sVdhn1n7n
p830
I1
sVdhncwuf
p831
I1
sVdeg7bpu
p832
I1
sVdefstdo
p833
I1
sVd4qs6vi
p834
I1
sVdmny7xm
p835
I1
sVdoe4wip
p836
I1
sVd9zqv7o
p837
I1
sVdpf7txb
p838
I1
sVd1asz3i
p839
I1
sVd7jsm06
p840
I1
sVdd3bopx
p841
I1
sVdnzctku
p842
I1
sVd2gox1x
p843
I1
sVd2vizq5
p844
I1
sVdc9f4rw
p845
I1
sVdfuvu0a
p846
I1
sVdcva84r
p847
I4
sVdbjrujd
p848
I2
sVdbju0ad
p849
I1
sVdhl9lbk
p850
I1
sVdqzunnz
p851
I1
sVdkbyi29
p852
I1
sVdge9w2p
p853
I2
sVczkp56v
p854
I1
sVczowk2t
p855
I1
sVdqnq20t
p856
I1
sVd1nlkb3
p857
I2
sVczh634z
p858
I1
sVdcht4tv
p859
I1
sVdn3aqpu
p860
I1
sVdhbugmm
p861
I1
sVdbebrj4
p862
I1
sVd0vgusu
p863
I1
sVdhjfc8a
p864
I1
sVdmor8to
p865
I2
sVd69c7zt
p866
I1
sVd1gopjm
p867
I1
sVdd9xyik
p868
I1
sVdf2rz1c
p869
I1
sVdkujkba
p870
I1
sVdfvcx05
p871
I1
sVd57vlkn
p872
I1
sVdfxewn8
p873
I2
sVcyoclej
p874
I1
sVdfom9kx
p875
I2
sVdgrl9os
p876
I1
sVddaduae
p877
I1
sVddjl1uc
p878
I1
sVdqjzrnj
p879
I1
sVd0whoqx
p880
I1
sVdd53d5q
p881
I1
sVdc8zbrz
p882
I5
sVd6zpnwy
p883
I1
sVdgw4bob
p884
I1
sVczx5gzq
p885
I1
sVd3vtx28
p886
I1
sVdhnb1vo
p887
I1
sVd7k34jc
p888
I1
sVd0iihxb
p889
I1
sVd85huhr
p890
I1
sVdajr89w
p891
I1
sVddkh442
p892
I1
sVcz6w8g0
p893
I1
sVddctx8m
p894
I1
sVd1ij9gs
p895
I1
sVdqb5fsy
p896
I1
sVd21rdc8
p897
I2
sVd25le3a
p898
I1
sVdf03x9e
p899
I1
sVdfk5jhp
p900
I1
sVd9umg5g
p901
I1
sVd98z1d9
p902
I2
sVdqx1v97
p903
I1
sVd4sg0sz
p904
I1
sVd12qpmj
p905
I1
sVd08yxvo
p906
I1
sVdam60hs
p907
I1
sVddkg3xt
p908
I1
sVdd8om7y
p909
I1
sVd4f3eaz
p910
I1
sVd7q7s3i
p911
I1
sVd0s2fzp
p912
I3
sVd9tbs53
p913
I1
sVcz2dx8p
p914
I1
sVd4mpl37
p915
I1
sVda6o1h1
p916
I1
sVdjqzagl
p917
I1
sVd0b8vrn
p918
I2
sVdhcz372
p919
I3
sVdfwgtj4
p920
I1
sVd9v8ckw
p921
I1
sVda66m9j
p922
I1
sVd9jemhv
p923
I1
sVdbqp1pf
p924
I1
sVdc2bm42
p925
I1
sVd5z1whm
p926
I1
sVd0grglw
p927
I1
sVdfur15d
p928
I1
sVd5ymnu9
p929
I2
sVdbee8ka
p930
I1
sVdmt8lqj
p931
I1
sVddwmaj1
p932
I2
sVdg9liiz
p933
I1
sVdcb3nul
p934
I1
sVd2hf781
p935
I1
sVd2becjg
p936
I1
sVdad6fs5
p937
I1
sVdnr4vra
p938
I1
sVcyu46l5
p939
I1
sVdfnw6js
p940
I1
sVdc5h4do
p941
I1
sVd067c64
p942
I1
sVdoe7a7y
p943
I1
sVcynf5fo
p944
I1
sVdco6axc
p945
I1
sVdehcqsj
p946
I1
sVdbx5wib
p947
I1
sVd1aa1b3
p948
I1
sVdfr0fcg
p949
I1
sVd5eguc4
p950
I7
sVdpumt1k
p951
I1
sVdg2wz2o
p952
I1
sVdfv21yj
p953
I1
sVdmuwthi
p954
I1
sVdj1u5yq
p955
I1
sVdf6awn0
p956
I1
sVdgs4aqq
p957
I2
sVdoh8erq
p958
I1
sVd5ywifo
p959
I3
sVdqv6itg
p960
I1
sVcyqniim
p961
I1
sVdnywam2
p962
I1
sVdd9q2f5
p963
I1
sVd9vtj50
p964
I1
sVd02lnjh
p965
I1
sVdcw2uao
p966
I1
sVdnzlmpe
p967
I2
sVdrxv756
p968
I2
sVda64y27
p969
I1
sVde42qx0
p970
I1
sVcza0qj0
p971
I1
sVddiax18
p972
I1
sVd1hbq8d
p973
I1
sVdonbb2r
p974
I1
sVd8srv16
p975
I2
sVcyoj30r
p976
I1
sVdjypsg4
p977
I2
sVcyzcykl
p978
I1
sVd1wkch1
p979
I2
sVdnh9ejp
p980
I1
sVcyleu7u
p981
I6
sVd0ymrax
p982
I1
sVd0mybj7
p983
I1
sVczg4gh9
p984
I2
sVd5dbn5g
p985
I1
sVcyj8p62
p986
I1
sVdfnh3nj
p987
I1
sVdbf01xb
p988
I1
sVd0nfan2
p989
I1
sVdepcy2q
p990
I1
sVcz9p54k
p991
I1
sVdfs7lqv
p992
I2
sVddu40k7
p993
I1
sVdjkk1wy
p994
I1
sVdas9659
p995
I1
sVd66q9hx
p996
I1
sVdhod0dc
p997
I1
sVd9p6e4w
p998
I1
sVd94tskc
p999
I1
sVd2y3tbi
p1000
I1
sVd2xegoc
p1001
I1
sVdatutc3
p1002
I1
sVdb7s9oy
p1003
I1
sVcztakya
p1004
I1
sVd4htz09
p1005
I1
sVd057ojk
p1006
I1
sVd71lnf9
p1007
I1
sVdfnhefn
p1008
I1
sVczza54f
p1009
I1
sVczmxy0e
p1010
I1
sVd8gkr72
p1011
I1
sVdr9zr0j
p1012
I1
sVdhjl6kk
p1013
I1
sVdeqkblm
p1014
I2
sVd2ydfog
p1015
I1
sVd5jpnt1
p1016
I1
sVdhzigb0
p1017
I1
sVczksu3x
p1018
I1
sVdmzvr1t
p1019
I3
sVdcrzb63
p1020
I1
sVdc8twqq
p1021
I2
sVdosimwj
p1022
I1
sVdo2z1mt
p1023
I1
sVd9t9rom
p1024
I1
sVd1yda0b
p1025
I1
sVd2hlywf
p1026
I1
sVd248wxn
p1027
I1
sVdidi2q4
p1028
I1
sVdsm4ejk
p1029
I1
sVd1ja2mr
p1030
I1
sVdr3hp2w
p1031
I1
sVdcy2q71
p1032
I2
sVdk1gxom
p1033
I1
sVdohzvax
p1034
I5
sVds3nv1r
p1035
I1
sVdobewta
p1036
I1
sVd1v24dv
p1037
I1
sVd78ggyi
p1038
I1
sVd3lo22h
p1039
I1
sVdg62m64
p1040
I1
sVda7ntvg
p1041
I2
sVdfktgy3
p1042
I2
sVddeh8jq
p1043
I2
sVd5w3no8
p1044
I2
sVd0e8ciq
p1045
I1
sVdho9ofo
p1046
I1
sVdjkxr0z
p1047
I1
sVdjyzruc
p1048
I1
sVdnu708t
p1049
I1
sVd0ov3m9
p1050
I1
sVd2srn1i
p1051
I1
sVd0qt9bo
p1052
I1
sVdhk5trq
p1053
I1
sVdp361a6
p1054
I1
sVczjcllu
p1055
I1
sVdocrgys
p1056
I1
sVdc5n33y
p1057
I1
sVd3pkntv
p1058
I2
sVd9ec1bw
p1059
I1
sVd9ube2u
p1060
I1
sVdjn4g15
p1061
I1
sVdexqtwx
p1062
I1
sVdbur14p
p1063
I1
sVcymlcjh
p1064
I1
sVczm3rlh
p1065
I1
sVd99pjx9
p1066
I2
sVde2ibub
p1067
I2
s.