(dp0
Vd9mjd7v
p1
I1
sVd4sdw0v
p2
I1
sVdi3jump
p3
I1
sVdceqmy9
p4
I1
sVd9d6p94
p5
I1
sVddy4xx2
p6
I1
sVdg24pjz
p7
I1
sVdceezqg
p8
I1
sVd09q4s7
p9
I1
sVdidi6zq
p10
I1
sVddnayb6
p11
I1
sVdfvko15
p12
I1
sVdi1og2w
p13
I1
sVd0k6egh
p14
I1
sVd2p86ny
p15
I1
sVd7ttrnk
p16
I1
sVdire9h3
p17
I1
sVd290vew
p18
I1
sVd6hdqs3
p19
I1
sVddw8ql9
p20
I2
sVdrb6adu
p21
I1
sVd4l17mp
p22
I1
sVd3asjob
p23
I1
sVdeko4sk
p24
I1
sVdn4lnvp
p25
I1
sVdafn2h4
p26
I1
sVdiuxufw
p27
I1
sVd3lkthi
p28
I1
sVdsou5l2
p29
I1
sVcz6402l
p30
I1
sVd853kq9
p31
I1
sVdjvu0v4
p32
I1
sVdb9zqeq
p33
I1
sVdg1p3m2
p34
I1
sVd85mb1x
p35
I1
sVd7echwq
p36
I1
sVd9ics07
p37
I1
sVdetmapm
p38
I1
sVd58eggh
p39
I3
sVdcuejjw
p40
I2
sVdmywwkg
p41
I1
sVczikosc
p42
I1
sVcypgv4q
p43
I1
sVd8akpqr
p44
I1
sVd15b9wz
p45
I1
sVd0lyfn3
p46
I1
sVcyqrq48
p47
I1
sVdfryc2g
p48
I1
sVdaudksg
p49
I1
sVda1gjyr
p50
I1
sVd9vmw14
p51
I2
sVdgpbxn4
p52
I1
sVczzc1vt
p53
I1
sVczmazs4
p54
I2
sVdml4zrt
p55
I1
sVdac2bd7
p56
I1
sVdeu7hs4
p57
I1
sVddpvvzv
p58
I1
sVds2e44c
p59
I2
sVd87t8gl
p60
I1
sVd2j6rmu
p61
I1
sVdermye3
p62
I1
sVd472ecu
p63
I1
sVdc65nx8
p64
I1
sVd1g6ahs
p65
I1
sVdjtjyy5
p66
I1
sVdijtoy9
p67
I1
sVdj1g99e
p68
I1
sVd4tba8z
p69
I1
sVd26iwky
p70
I1
sVdjqm9i4
p71
I1
sVdk7pw9g
p72
I1
sVdaeuhc4
p73
I1
sVd7gqlml
p74
I1
sVdk3sokk
p75
I1
sVdd7ga6a
p76
I1
sVd1nkg62
p77
I1
sVd8c705w
p78
I1
sVd2n3pht
p79
I1
sVd187eh3
p80
I1
sVdhzuxwv
p81
I1
sVdiyroih
p82
I1
sVdgfqzqg
p83
I1
sVdi220ue
p84
I1
sVdfwwvzc
p85
I1
sVddbhmrh
p86
I1
sVd1vc3du
p87
I1
sVdpmuvc4
p88
I1
sVd24acwv
p89
I1
sVd5jnymm
p90
I1
sVd1et8m2
p91
I1
sVd6w9i5i
p92
I1
sVd944l3x
p93
I1
sVd9g40yz
p94
I1
sVdkew4vu
p95
I1
sVd1azd1w
p96
I1
sVdaxlj18
p97
I2
sVd8k07qe
p98
I1
sVd3jq3ge
p99
I1
sVdj03vlh
p100
I1
sVd1wae3z
p101
I1
sVda40rwu
p102
I1
sVd2ocd3n
p103
I1
sVcyst3hm
p104
I2
sVd8avifb
p105
I1
sVd2nkcm4
p106
I1
sVd5b13f5
p107
I1
sVd2i8gz0
p108
I1
sVcyozwze
p109
I1
sVcz0iudy
p110
I1
sVdproh6z
p111
I1
sVd0qt2gr
p112
I1
sVdr037hj
p113
I1
sVdse9bn6
p114
I1
sVcymbkov
p115
I1
sVds9m28k
p116
I1
sVd97xasf
p117
I1
sVd3geq0u
p118
I1
sVd96ty7s
p119
I1
sVdhmga1q
p120
I1
sVd0yuigs
p121
I1
sVd3k9s8a
p122
I1
sVd5jcv2u
p123
I1
sVd1o4dpd
p124
I1
sVde4r7bu
p125
I1
sVdsob45m
p126
I1
sVd18dc1x
p127
I1
sVdgo7eny
p128
I1
sVdho3lj8
p129
I1
sVcysusxe
p130
I1
sVd5043sc
p131
I1
sVd3bkf31
p132
I1
sVdinbk8i
p133
I3
sVdtihrl0
p134
I1
sVdfzwtux
p135
I1
sVdg3xy3j
p136
I1
sVd30642k
p137
I1
sVd3qxb6j
p138
I1
sVd91f4s3
p139
I1
sVdjvp23z
p140
I1
sVdg8qgah
p141
I1
sVdibnxt2
p142
I1
sVdave7y6
p143
I1
sVczlg9us
p144
I1
sVdnxz6no
p145
I1
sVd6vf75j
p146
I1
sVd1pxffe
p147
I1
sVdd6usys
p148
I1
sVd45hw3q
p149
I1
sVdihagip
p150
I1
sVd72zo2t
p151
I1
sVdbvss2v
p152
I1
sVd0i6q83
p153
I1
sVd5d5bnx
p154
I1
sVd9c34pm
p155
I1
sVd9l5zhe
p156
I1
sVcywcmrm
p157
I1
sVdkl9ttk
p158
I1
sVdc54go8
p159
I1
sVd9mtapv
p160
I1
sVdccpnt9
p161
I1
sVcypne4o
p162
I1
sVd2eij5f
p163
I1
sVd48iv7a
p164
I1
sVdco8gti
p165
I1
sVdki02it
p166
I1
sVdgpn73r
p167
I1
sVde6u4sz
p168
I1
sVd2qo4i1
p169
I1
sVdhldo8m
p170
I1
sVdc1gwpw
p171
I1
sVd0qonow
p172
I1
sVcyyyaev
p173
I1
sVdejftma
p174
I1
sVczeklmy
p175
I1
sVdefjec3
p176
I4
sVde0syav
p177
I1
sVdqmdmjh
p178
I1
sVdpiboi8
p179
I1
sVd26duix
p180
I1
sVdhprbvv
p181
I1
sVdkme9ap
p182
I1
sVdfq18es
p183
I1
sVdekiq5x
p184
I1
sVdq6zx8t
p185
I1
sVdfk7cu9
p186
I1
sVdegigr2
p187
I1
sVd6m4u4f
p188
I2
sVdd2nbgm
p189
I1
sVdg9tp1n
p190
I1
sVd2sxxk0
p191
I1
sVdbn8h8m
p192
I2
sVd1jm9cp
p193
I1
sVd470u4h
p194
I1
sVd8jbuam
p195
I1
sVdek7u4j
p196
I1
sVdao9k4p
p197
I2
sVcym7o4v
p198
I1
sVdaa8rv1
p199
I1
sVd8oy637
p200
I1
sVd37pr1h
p201
I2
sVdb8t2jc
p202
I1
sVdgx4xtw
p203
I1
sVdblxt1f
p204
I1
sVdbnph29
p205
I1
sVcypj3sv
p206
I1
sVd0uss5a
p207
I1
sVd0ga4w6
p208
I1
sVdgt64qh
p209
I1
sVd73fmyc
p210
I1
sVd6af2tp
p211
I1
sVdhdpd6c
p212
I1
sVdcjv8up
p213
I1
sVd7kq9d7
p214
I1
sVd04zr6m
p215
I1
sVdqic674
p216
I1
sVdpok27z
p217
I1
sVd8v1ui1
p218
I1
sVdgckw3o
p219
I2
sVdprcghh
p220
I1
sVdmu3ag7
p221
I1
sVdbigpv9
p222
I1
sVczigjg1
p223
I1
sVds5i5xw
p224
I1
sVd7f7uci
p225
I1
sVds6vryf
p226
I1
sVd8q3jjh
p227
I1
sVczht9q8
p228
I1
sVczgygt9
p229
I1
sVdjlef0b
p230
I1
sVdg3q06k
p231
I1
sVd3c1q5b
p232
I1
sVdeiwskd
p233
I1
sVcz5fggs
p234
I1
sVdarec3e
p235
I1
sVd3y2kt0
p236
I1
sVcysm6ya
p237
I1
sVdgo921q
p238
I1
sVd44knae
p239
I1
sVdfoddih
p240
I1
sVdii1x13
p241
I1
sVdd4w5yf
p242
I1
sVdgakmzj
p243
I1
sVdjqzh4s
p244
I1
sVdewvia7
p245
I2
sVcytyv8c
p246
I1
sVd38vw1f
p247
I1
sVd4zmnuv
p248
I2
sVda7fwoo
p249
I1
sVdk3jmda
p250
I1
sVdk5hmwt
p251
I1
sVd1qukjy
p252
I1
sVd0b70a3
p253
I1
sVdi6iuyu
p254
I1
sVd3594ud
p255
I1
sVdcocl5g
p256
I1
sVdg9yo7w
p257
I1
sVd3tqwii
p258
I1
sVd7isq4a
p259
I1
sVddst9z8
p260
I1
sVd4lakxz
p261
I1
sVdie8hlk
p262
I1
sVdjo12cb
p263
I1
sVdjiax5m
p264
I1
sVdnznzdd
p265
I1
sVczwvorf
p266
I1
sVd99z3bx
p267
I1
sVdewnph9
p268
I1
sVdjxvidb
p269
I1
sVd5nvapj
p270
I1
sVd2jo89m
p271
I1
sVdhiqu2p
p272
I1
sVdmwksjf
p273
I1
sVczcsjia
p274
I1
sVd1vgwlp
p275
I1
sVcysj854
p276
I1
sVdituf91
p277
I1
sVdj85p46
p278
I1
sVd1q8il9
p279
I1
sVdmm6zja
p280
I1
sVd3ufkaz
p281
I1
sVcylvvft
p282
I1
sVder9uts
p283
I1
sVd1xi36r
p284
I1
sVdhieug1
p285
I1
sVdkpww4j
p286
I1
sVdil2gia
p287
I1
sVdjuc9p3
p288
I1
sVdbuevdr
p289
I1
sVcyzxjh4
p290
I1
sVdg9ce9l
p291
I1
sVd1em66y
p292
I1
sVd4ykw80
p293
I1
sVdew1n6q
p294
I1
sVdje2l5w
p295
I1
sVd20r5up
p296
I1
sVdcu54vg
p297
I1
sVdkj29ka
p298
I1
sVdcarkan
p299
I1
sVd1kwhfa
p300
I1
sVdf4f21p
p301
I1
sVddeucpg
p302
I1
sVdnu708t
p303
I1
sVdettdz6
p304
I1
sVcysqegr
p305
I1
sVddeh8jq
p306
I1
sVcz90s33
p307
I1
sVdfvvxw9
p308
I1
sVdbtu0tr
p309
I1
sVd1tpt5a
p310
I1
sVddhaa3h
p311
I1
sVddzubw3
p312
I1
sVd4kcqj5
p313
I1
sVd0w0bpl
p314
I1
sVczse3l6
p315
I2
sVdr2nsqq
p316
I1
sVdcy7qal
p317
I1
sVdti8wx6
p318
I1
sVdgd47w5
p319
I1
sVdaamoq1
p320
I1
sVdecl9np
p321
I1
sVczkih3d
p322
I1
sVd862ir4
p323
I1
sVdgh3x46
p324
I1
sVd56rtj8
p325
I1
sVdivgllk
p326
I1
sVd74pfty
p327
I1
sVdpct4y1
p328
I2
sVd1iwos3
p329
I1
sVdjv3arb
p330
I1
sVczzaufx
p331
I1
sVdbvrhxe
p332
I1
sVd2o49x6
p333
I1
sVd0dn0v9
p334
I1
sVde1oiq0
p335
I1
sVd2ga6up
p336
I1
sVd32qrx4
p337
I1
sVczobkj7
p338
I2
sVdbluccr
p339
I1
sVcytuql8
p340
I1
sVdjswgjj
p341
I1
sVd19brfq
p342
I1
sVdeayq1a
p343
I1
sVdcx82ln
p344
I1
sVd082q33
p345
I1
sVcyj56fr
p346
I1
sVdmmhl00
p347
I1
sVd3k9vw2
p348
I1
sVdorgqu6
p349
I1
sVdacru2l
p350
I1
sVd67sdk1
p351
I1
sVdku2y4q
p352
I1
sVdmi4h0s
p353
I1
sVd89c0a3
p354
I1
sVdcnuy7r
p355
I1
sVd2kuqpk
p356
I2
sVdgpq6vh
p357
I1
sVddwz66d
p358
I1
sVdc26dni
p359
I1
sVday0gbh
p360
I1
sVd81aich
p361
I1
sVczxpme3
p362
I1
sVdhn9qjl
p363
I1
sVczg5p6g
p364
I1
sVcymzfkz
p365
I1
sVd3qhxht
p366
I1
sVczgv1nx
p367
I1
sVcz7mc4h
p368
I1
sVcz3fftr
p369
I1
sVd1rp2nf
p370
I1
sVd0ymoj8
p371
I1
sVdftrggz
p372
I2
sVd2gt9is
p373
I1
sVdchstk8
p374
I1
sVd173auq
p375
I1
sVddxe4c2
p376
I1
sVdhgmogq
p377
I1
sVdjls66b
p378
I1
sVczrcuya
p379
I1
sVcyizvdn
p380
I1
sVdjdlb27
p381
I1
sVdb0p2nw
p382
I1
sVcz4dned
p383
I1
sVd6zddop
p384
I1
sVd3nyggu
p385
I1
sVdizn33c
p386
I1
sVd8f8elr
p387
I1
sVdoksubl
p388
I1
sVdmosdv8
p389
I1
sVdna8h06
p390
I1
sVdd9qils
p391
I1
sVdiu564h
p392
I1
sVda2i4i4
p393
I1
sVdd5fol1
p394
I1
sVdb5285j
p395
I1
sVd651ts0
p396
I1
sVdkghzo4
p397
I1
sVd6d0ts9
p398
I1
sVdpkixof
p399
I2
sVdc5xh98
p400
I1
sVd9ytvfh
p401
I1
sVdhc5vzt
p402
I1
sVdd3tkj3
p403
I1
sVd4umx3l
p404
I1
sVde1qq07
p405
I1
sVd01wpxi
p406
I1
sVdtbqoik
p407
I2
sVdh7n7ig
p408
I1
sVcz41a5a
p409
I1
sVddq6lby
p410
I1
sVdejoy19
p411
I1
sVd5yobne
p412
I1
sVdf4v88q
p413
I1
sVdh7brjc
p414
I1
sVd4zwkgs
p415
I1
sVdnzv3wu
p416
I1
sVdde1fvt
p417
I1
sVcyy8iav
p418
I1
sVd2g3xcm
p419
I2
sVd7uhnjz
p420
I1
sVd5zl9i2
p421
I1
sVdg8qpfu
p422
I1
sVdjomni8
p423
I1
sVdilyxmo
p424
I1
sVd60fss3
p425
I1
sVda54a81
p426
I1
sVdg3s0t6
p427
I1
sVdfddmr5
p428
I2
sVdhesatn
p429
I1
sVd2cwjx6
p430
I2
sVdduv9g1
p431
I2
sVdn07gmh
p432
I2
sVd2lkael
p433
I1
sVd3deu9g
p434
I1
sVdk0sd3l
p435
I1
sVd6w2o8d
p436
I1
sVd61okik
p437
I2
sVdb6np9y
p438
I1
sVczs7ddv
p439
I1
sVdcrk7tz
p440
I1
sVd08sgoc
p441
I1
sVdjcfw0z
p442
I2
sVd93ze5y
p443
I1
sVda7mxxq
p444
I1
sVd0mbyxr
p445
I1
sVdqe1xq4
p446
I1
sVcznykio
p447
I1
sVd8fnso2
p448
I1
sVd2pnoyz
p449
I1
sVdi9a848
p450
I1
sVd3dgh75
p451
I1
sVcz4feas
p452
I1
sVdim42wx
p453
I1
sVd61m3ai
p454
I1
sVdjra2lk
p455
I2
sVdk07q2h
p456
I1
sVd33vo8g
p457
I1
sVdiy0d54
p458
I1
sVdkzk6qn
p459
I1
sVd1gkbcl
p460
I1
sVdeikde0
p461
I1
sVd9x3s3r
p462
I1
sVdapi0wn
p463
I1
sVdrxgh44
p464
I1
sVdjr4uzv
p465
I1
sVd0zs7zc
p466
I1
sVdmijiyd
p467
I1
sVdddyvw9
p468
I1
sVd3esgc2
p469
I1
sVd2xuefi
p470
I2
sVd0d3cxt
p471
I1
sVdhh6blz
p472
I1
sVdkdgt1y
p473
I1
sVddf0vm1
p474
I1
sVd7aii1r
p475
I1
sVd7ttvff
p476
I1
sVd0qzbqp
p477
I1
sVddi0c5g
p478
I1
sVd5mpxco
p479
I1
sVd0vbmdw
p480
I1
sVd0t84oq
p481
I1
sVdhnf86t
p482
I1
sVdg9vtpc
p483
I1
sVdilff6i
p484
I1
sVdg3vg6b
p485
I1
sVd3ht0xw
p486
I1
sVd6fzxde
p487
I1
sVde6n0bu
p488
I1
sVdiuyncc
p489
I1
sVdenvp32
p490
I1
sVcyx4ski
p491
I1
sVdnx3ef6
p492
I1
sVdi3unpj
p493
I1
sVd2hlywf
p494
I1
sVd1hp2mc
p495
I1
sVd84ec29
p496
I1
sVczyjc61
p497
I1
sVdg44xq6
p498
I3
sVdsi0561
p499
I1
sVd7jco20
p500
I2
sVdbvv8b0
p501
I1
sVd8pejco
p502
I1
sVd911gxj
p503
I1
sVdo77zdx
p504
I1
sVdas3yej
p505
I1
sVdpususb
p506
I1
sVdg196w9
p507
I1
sVd5jd4tv
p508
I1
sVddymcbm
p509
I1
sVdc8xtmk
p510
I1
sVdiuqm1h
p511
I1
sVdc6t4sl
p512
I1
sVdfz0fal
p513
I1
sVcyt2972
p514
I1
sVdoiw47z
p515
I1
sVdfu31zy
p516
I1
sVd38l6vs
p517
I1
sVdmet96t
p518
I1
sVdngnfbs
p519
I1
sVd49eta7
p520
I4
sVd057cet
p521
I2
sVd7pb03d
p522
I1
sVd033oim
p523
I1
sVd5vw640
p524
I1
sVddkh442
p525
I1
sVdcbfvwe
p526
I1
sVd2a2gye
p527
I1
sVdcue321
p528
I1
sVd8ufpsw
p529
I1
sVd8yw1wp
p530
I1
sVdc7rqxj
p531
I1
sVdc8s1so
p532
I1
sVdikqfig
p533
I1
sVdtj40vy
p534
I1
sVd7q7s3i
p535
I3
sVdii1lob
p536
I2
sVczskojy
p537
I1
sVd6idich
p538
I1
sVdiwqjj5
p539
I1
sVd41kjw1
p540
I1
sVd049uph
p541
I1
sVd9owzfq
p542
I1
sVdec5dmb
p543
I1
sVcz2rzql
p544
I1
sVd6hfzip
p545
I1
sVdey9o04
p546
I1
sVdcgicjg
p547
I1
sVdjcu4zs
p548
I1
sVd09xfjd
p549
I1
sVdho9ofo
p550
I1
sVdon1ywc
p551
I1
sVdc5h4do
p552
I1
sVdf6ns5s
p553
I1
sVdgwkwx5
p554
I1
sVdohdsx1
p555
I1
sVdo38hsg
p556
I2
sVdcemz3b
p557
I1
sVdqk0kb1
p558
I1
sVdeukmkp
p559
I1
sVdhfqbm2
p560
I2
sVd3q8upi
p561
I1
sVd39j7il
p562
I1
sVdhfsiay
p563
I1
sVd1ycc9o
p564
I1
sVd041fn4
p565
I1
sVdc6q4wc
p566
I1
sVdmqxbx2
p567
I1
sVd0a17c3
p568
I1
sVdprqezv
p569
I1
sVd84650l
p570
I1
sVd6m4zq0
p571
I1
sVdh193kq
p572
I1
sVdd2tls2
p573
I1
sVdcu91s7
p574
I1
sVdq6ytiv
p575
I1
sVd05x6s3
p576
I1
sVddd9jos
p577
I1
sVdatlz0h
p578
I1
sVdohugg1
p579
I1
sVd3jx4oh
p580
I1
sVdefnz57
p581
I1
sVd4ujxk1
p582
I1
sVdrt30xy
p583
I3
sVderm0py
p584
I1
sVd3xjrzx
p585
I1
sVdbskeo2
p586
I1
sVd32moa4
p587
I2
sVd0ty409
p588
I1
sVdhlhr1v
p589
I1
sVdfbhd1z
p590
I1
sVdmzvr1t
p591
I1
sVd2q1vue
p592
I1
sVdn19yi5
p593
I2
sVdqz1e97
p594
I1
sVdk96bhn
p595
I1
sVdgqplmv
p596
I1
sVd6jnmkt
p597
I1
sVd6a7g1v
p598
I2
sVd4hiney
p599
I1
sVd14ayrf
p600
I1
sVd5qkz7l
p601
I1
sVd8853lr
p602
I1
sVd838ulw
p603
I1
sVdkwsq53
p604
I1
sVd310ndz
p605
I1
sVd4st47k
p606
I1
sVdkjtade
p607
I1
sVd24dpnz
p608
I3
s.