(dp0
Vd0ocn1o
p1
I1
sVd0bq36z
p2
I1
sVcz0uzja
p3
I1
sVd15eg29
p4
I1
sVdb7wwa3
p5
I5
sVcyii1ez
p6
I2
sVdj1u3xe
p7
I2
sVd4fxkvd
p8
I1
sVczay738
p9
I1
sVdiqpkqi
p10
I1
sVdhtjrzk
p11
I1
sVdjbd98z
p12
I1
sVdsihfk5
p13
I2
sVd7jye27
p14
I1
sVdbf20un
p15
I1
sVd0occk8
p16
I1
sVd655qe6
p17
I3
sVcynpt6u
p18
I1
sVde6rnvd
p19
I1
sVdbssgnv
p20
I1
sVcyxfyvi
p21
I2
sVd0ofor5
p22
I1
sVdol7iqi
p23
I1
sVdmpm8w6
p24
I1
sVdnm9cge
p25
I1
sVd4j7q3i
p26
I3
sVdhtby8s
p27
I1
sVdhtkcfz
p28
I1
sVczawmp6
p29
I2
sVdgn7vps
p30
I1
sVdr4t5wt
p31
I1
sVdh5rnqc
p32
I1
sVdbdwcfj
p33
I1
sVd1fr4mz
p34
I3
sVdf5ordk
p35
I1
sVd37gjlf
p36
I2
sVdhtdg7l
p37
I1
sVd2fhgow
p38
I1
sVdjvdsby
p39
I7
sVdd5uu8l
p40
I1
sVdoc1w76
p41
I1
sVddmjn4n
p42
I1
sVcyihmht
p43
I3
sVderutk4
p44
I3
sVcz0u94a
p45
I1
sVda1wnxe
p46
I2
sVdncklr9
p47
I1
sVd3ae0xe
p48
I3
sVdixle8l
p49
I2
sVdd4u53u
p50
I2
sVdnj6war
p51
I1
sVdhub8ue
p52
I7
sVdcx1nb5
p53
I1
sVcyq533x
p54
I2
sVdqgmc6p
p55
I1
sVd0l080l
p56
I1
sVds9nv5a
p57
I1
sVd9w6rzz
p58
I4
sVd6lblof
p59
I1
sVdg5iohm
p60
I1
sVdqmmx36
p61
I1
sVdpseuov
p62
I4
sVdoav8fx
p63
I2
sVcyvajen
p64
I1
sVd1twrcv
p65
I1
sVdskk1y4
p66
I1
sVdqfpqx8
p67
I1
sVdj1yf5z
p68
I1
sVd2f5jb5
p69
I1
sVd2dgpmt
p70
I1
sVd9vzbhz
p71
I2
sVd0364o2
p72
I1
sVcyq8kwk
p73
I1
sVdez0sw7
p74
I3
sVddfup39
p75
I1
sVdbltcct
p76
I1
sVczul7m3
p77
I1
sVdoi4nlg
p78
I1
sVdad0qv9
p79
I1
sVd2rje2q
p80
I3
sVdkzgrj4
p81
I1
sVdcx2c43
p82
I1
sVdcokvyf
p83
I1
sVcyikqoq
p84
I1
sVdpm2n2t
p85
I4
sVd2rnqrc
p86
I1
sVd66ottj
p87
I1
sVd6555ji
p88
I1
sVdmo0bdh
p89
I2
sVd2x98yt
p90
I1
sVdol0ghg
p91
I1
sVd1p2ccw
p92
I3
sVdnwpyg4
p93
I1
sVd2rirnw
p94
I5
sVd2ezhph
p95
I1
sVcz3tm9x
p96
I1
sVden4hnx
p97
I2
sVd038obh
p98
I2
sVdkmr3c8
p99
I1
sVd248jas
p100
I2
sVdbqwfht
p101
I1
sVd6dpwry
p102
I4
sVdccgcjf
p103
I3
sVd1ozldm
p104
I2
sVdphrdra
p105
I1
sVd1zd7io
p106
I4
sVdmnzltq
p107
I1
sVddm75wl
p108
I2
sVd11840q
p109
I1
sVcyq5vw8
p110
I1
sVdhyyuow
p111
I1
sVd13crro
p112
I1
sVdb0nhvd
p113
I3
sVd1jtl01
p114
I1
sVd0t95d3
p115
I1
sVdblt9kj
p116
I1
sVdbkczbw
p117
I1
sVdq4jp5k
p118
I1
sVdjc0q6i
p119
I1
sVdn0altt
p120
I4
sVdq053x5
p121
I3
sVdkcj6v3
p122
I1
sVdq4ndm8
p123
I1
sVd13cq3z
p124
I2
sVd7lvgy3
p125
I1
sVdcpruvc
p126
I2
sVd4zlrkw
p127
I1
sVd6q1bsj
p128
I2
sVdbss2pm
p129
I1
sVd1627lt
p130
I1
sVd1ob2xg
p131
I1
sVdol0kc7
p132
I1
sVde6ar83
p133
I2
sVdhwue9j
p134
I1
sVd9zc6np
p135
I1
sVczg7yg7
p136
I1
sVdjdi0kg
p137
I1
sVderum04
p138
I1
sVd116c8o
p139
I5
sVdhyz6un
p140
I2
sVdccdr89
p141
I1
sVdauddsp
p142
I2
sVded15j5
p143
I5
sVdc8bb43
p144
I1
sVd1zhyyh
p145
I5
sVd2u8gzp
p146
I1
sVddmdd0h
p147
I9
sVdigt4mf
p148
I1
sVd38aiut
p149
I1
sVd5wnx0x
p150
I1
sVdpwm7d2
p151
I1
sVdc4offd
p152
I1
sVdplzpdh
p153
I1
sVd0p46j8
p154
I1
sVd3jkv6p
p155
I1
sVddm76v0
p156
I2
sVdbdck10
p157
I1
sVczs21f9
p158
I2
sVdgsogm4
p159
I3
sVd07pjaa
p160
I1
sVdhrk3oq
p161
I2
sVdnc9r9m
p162
I1
sVd85td3c
p163
I1
sVdmvr61r
p164
I1
sVd1ivoyz
p165
I2
sVd5zz42l
p166
I1
sVddm4u1w
p167
I1
sVd3ec1j2
p168
I1
sVcyiit0j
p169
I1
s.