(dp0
Vd4jieiw
p1
I1
sVdet6hmq
p2
I1
sVdkjs1mv
p3
I2
sVd6r4j6x
p4
I1
sVdf7vhkr
p5
I1
sVd38yvfe
p6
I1
sVd4jioxr
p7
I1
sVdqbdw0b
p8
I2
sVdgs67bg
p9
I4
sVdt2zqof
p10
I1
sVds0fc0s
p11
I1
sVd248gbj
p12
I1
s.