(dp0
Vd5sp79i
p1
I1
sVd5u2wih
p2
I1
sVdge1k4c
p3
I1
sVd3rct6e
p4
I1
sVdnipc9l
p5
I1
sVdjnq37e
p6
I1
sVd97ham2
p7
I1
sVdnjb80n
p8
I1
sVdcb7256
p9
I2
sVcyv8pkw
p10
I1
sVdcnglk8
p11
I1
sVdrbpynf
p12
I1
sVd9ggio6
p13
I1
sVd4kukfo
p14
I1
s.