(dp0
Vd4swyyo
p1
I1
sVczc3to7
p2
I1
sVd9jtbkg
p3
I1
sVd0rfbr8
p4
I1
sVdjh5iga
p5
I1
sVczwkku8
p6
I1
sVddgkr4q
p7
I1
sVdffm4dd
p8
I1
sVdi635q3
p9
I1
sVd8ey39u
p10
I1
sVd0ym679
p11
I2
sVd7e6pry
p12
I1
sVczjoksh
p13
I1
sVdf7actd
p14
I1
sVd5rizq7
p15
I2
sVd15q7ab
p16
I1
sVd5ycan9
p17
I1
sVdnkvbtw
p18
I1
sVd2wrp4c
p19
I1
sVd48hrwx
p20
I1
sVdi550pd
p21
I2
sVd33r3db
p22
I1
sVddorz7x
p23
I2
sVcytg5hy
p24
I1
sVdaubl7y
p25
I1
sVd58eggh
p26
I1
sVdi70r3f
p27
I1
sVd7l6ztc
p28
I1
sVdnjjcb2
p29
I1
s.