(dp0
Vd4fs7c9
p1
I1
sVdb6qqyj
p2
I1
sVdcv6mln
p3
I1
sVdf5sisk
p4
I1
sVd2ynywq
p5
I6
sVdca7h1n
p6
I2
sVdi7k2su
p7
I1
sVdnea3sd
p8
I1
sVdb78eef
p9
I1
sVdhjhc6n
p10
I1
sVd4cv2xk
p11
I1
sVds3bnjy
p12
I1
s.