(dp0
Vdeh3x6k
p1
I2
sVcznezof
p2
I1
sVd0dt03q
p3
I1
sVd0dxrb7
p4
I1
sVda3ju7g
p5
I1
sVdgrnwk7
p6
I8
sVdqzg8u9
p7
I1
sVdczjvhd
p8
I1
sVd07g19t
p9
I2
sVd2wy04u
p10
I1
sVd2rz6wp
p11
I6
sVdf5b1vs
p12
I1
sVd0pownj
p13
I1
sVdhu3fk6
p14
I1
sVcyku6vl
p15
I9
sVddh0c7h
p16
I1
sVdftktz9
p17
I1
sVdcwt9ru
p18
I1
sVd8jg1a2
p19
I2
sVdohsgmc
p20
I1
sVdd20or4
p21
I1
sVda3i5ls
p22
I1
sVdipkyv4
p23
I1
sVdj7q0is
p24
I1
sVd32ja7z
p25
I1
sVd97ke9g
p26
I1
sVdg1c4fi
p27
I2
sVdcwduxb
p28
I1
sVcykt977
p29
I1
sVd35qzko
p30
I2
sVd94lslo
p31
I1
sVcyn2xrb
p32
I2
sVdi8jygc
p33
I1
sVd2o01b3
p34
I1
sVdtazicm
p35
I1
sVd29fhbz
p36
I2
sVczbgu6e
p37
I1
sVdfpz4jk
p38
I2
sVdd3pyuf
p39
I4
sVcyo25yv
p40
I1
sVd7bn8ub
p41
I1
sVcyo23un
p42
I5
sVd5ufa9p
p43
I6
sVcykwkrj
p44
I2
sVd29dqcc
p45
I1
sVd1r5ypp
p46
I2
sVdfbzbbe
p47
I2
sVcyn6w14
p48
I3
sVda0fd4r
p49
I1
sVdd62u6j
p50
I1
sVdfzcdgk
p51
I2
sVd0mobn8
p52
I2
sVdizvmwa
p53
I2
sVcyr9cpa
p54
I1
sVdb56yg3
p55
I2
sVd13a8y7
p56
I1
sVda1vprx
p57
I2
sVd83mots
p58
I1
sVdhniop8
p59
I1
sVd615ff0
p60
I8
sVdsrrblp
p61
I2
sVd77blf7
p62
I2
sVd0hj4vb
p63
I2
sVd6crfb5
p64
I1
sVd32gpkn
p65
I2
sVdj2eiuu
p66
I1
sVda4dowv
p67
I1
sVd4s64i4
p68
I2
sVdnivg8z
p69
I6
sVd1tr1t8
p70
I2
sVdncuejn
p71
I1
sVczwytyn
p72
I1
sVd0777j8
p73
I1
sVd5ufoi6
p74
I3
sVcz2xskt
p75
I2
sVd357waq
p76
I1
sVdgx6wtg
p77
I1
sVd5etjir
p78
I1
sVdh0x83g
p79
I1
sVdd0rvh7
p80
I2
sVdegq935
p81
I2
sVd3c6ile
p82
I1
sVdja8h3t
p83
I1
sVd18g85t
p84
I1
sVd0axpnc
p85
I2
sVd6a388u
p86
I1
sVd7qopwn
p87
I1
sVdouaqs0
p88
I1
sVdht4wz5
p89
I2
sVd7q2qci
p90
I1
sVdb3d964
p91
I1
sVde17899
p92
I2
sVdeg9peu
p93
I1
sVd018t15
p94
I1
sVdff0eom
p95
I2
sVd0z0kqk
p96
I1
sVd2bpa69
p97
I2
sVdqkeeav
p98
I2
sVdohssjw
p99
I1
sVd32ft6f
p100
I3
sVd1bw2ft
p101
I1
sVdbghdm9
p102
I2
sVd9n2fdx
p103
I1
sVcyzcy8t
p104
I1
sVdd16tfz
p105
I1
sVdg3015r
p106
I2
sVd9z1dea
p107
I2
sVddvs0zw
p108
I1
sVdf101ki
p109
I1
sVdgvxgmz
p110
I2
sVdf69djt
p111
I2
sVdd3aaol
p112
I6
sVd7bkj3b
p113
I2
sVdb0wb6q
p114
I1
sVdha98ui
p115
I2
sVdiu6hfl
p116
I1
sVd7eg6z0
p117
I4
sVd1cj82l
p118
I3
sVdsqjyvw
p119
I1
sVdgf7tmi
p120
I8
sVdbipmiv
p121
I2
sVddha09v
p122
I1
sVd1uczc8
p123
I1
sVdf3mtc4
p124
I1
sVcz8lgqo
p125
I2
sVczl2me0
p126
I1
sVda8727y
p127
I1
sVdomy7ch
p128
I1
sVd357usz
p129
I1
sVd18gaz9
p130
I4
sVd0yyexd
p131
I2
sVdrnjdz1
p132
I1
sVdbjk13a
p133
I2
sVddexw85
p134
I1
sVdmrby2w
p135
I3
sVd17uel6
p136
I1
sVd20wiuv
p137
I1
sVdh8klxt
p138
I2
sVdb12pta
p139
I1
sVcyknbe3
p140
I1
sVd4vqspo
p141
I3
sVdf5g3qq
p142
I1
sVd6nelw2
p143
I1
sVdhznnj9
p144
I1
sVd699c9p
p145
I1
sVdf5c4hy
p146
I1
sVdhlhyd1
p147
I1
sVdfarcet
p148
I1
sVdaunfx8
p149
I2
sVd2bkphd
p150
I3
sVdoiabcl
p151
I2
sVdh1i12p
p152
I1
sVczcdnqk
p153
I1
sVdape0mb
p154
I1
sVd0l3hlf
p155
I1
sVd5x7rk0
p156
I1
sVdn09aam
p157
I2
sVdb78p63
p158
I1
sVcyt3uho
p159
I1
sVdioofjr
p160
I1
sVd32gw79
p161
I1
sVd4gmi53
p162
I2
sVd88bi2i
p163
I1
sVd3dmo9m
p164
I1
sVdromaw3
p165
I1
sVd7yul2z
p166
I5
sVdaaxacx
p167
I6
sVczse3at
p168
I1
sVd7qh42b
p169
I3
sVda3i69v
p170
I1
sVcykneny
p171
I1
sVdse4uqj
p172
I1
sVdkfcwha
p173
I1
sVd7wdoqu
p174
I7
sVdf1u2v7
p175
I1
sVdegph9j
p176
I1
sVdqe9dun
p177
I1
sVdd32rsy
p178
I1
sVdibjq6m
p179
I7
sVcyn3or4
p180
I3
sVd5etbl1
p181
I1
sVd4082r4
p182
I1
sVdeglyup
p183
I3
sVda5jfu3
p184
I2
sVcz2zugy
p185
I5
sVdkr54ih
p186
I1
sVddkuh1p
p187
I1
sVdkly0az
p188
I1
sVdte6782
p189
I1
sVdfbyg38
p190
I1
sVdtbtp3n
p191
I1
sVdha9hog
p192
I1
sVcyjkb0n
p193
I1
sVd15ac8d
p194
I1
sVdau1nue
p195
I3
sVd1cnsuf
p196
I1
sVd45v7w4
p197
I1
sVda1nbzl
p198
I1
sVd28r11q
p199
I2
sVd3l3wh5
p200
I1
sVdcbzd05
p201
I1
sVdmespgb
p202
I1
sVd4fusch
p203
I2
sVdbixehc
p204
I1
sVdqgmdg0
p205
I1
sVdcwi9xm
p206
I3
sVdd2ipei
p207
I4
sVd8c8b4z
p208
I2
sVdcswb0l
p209
I1
sVdi7fpf8
p210
I1
sVd0pwuah
p211
I5
sVdcxbdbz
p212
I1
sVczocfq7
p213
I1
sVdivv5ad
p214
I1
sVcyxwyxg
p215
I1
sVdscj19d
p216
I1
sVdpp8ygz
p217
I1
sVdau0wlo
p218
I1
sVcyku68u
p219
I2
sVd799a4c
p220
I1
sVd5ybxcy
p221
I1
sVdh20eqi
p222
I2
sVcyknht0
p223
I2
sVdqo4lyc
p224
I1
sVd5s02ab
p225
I1
sVdqqr91m
p226
I1
sVd87h5pr
p227
I1
sVdicmgfk
p228
I2
sVd0cs02u
p229
I1
sVdif6kk5
p230
I1
sVdgbhsuh
p231
I1
sVdam538n
p232
I1
sVdicyels
p233
I1
sVdftl0yo
p234
I1
sVd7sv0bp
p235
I1
sVd2wovmt
p236
I1
sVd4m55l7
p237
I1
sVd3m6liv
p238
I3
sVcywivic
p239
I1
sVd3m6bxt
p240
I1
sVdac0i1k
p241
I1
sVd7e9qvr
p242
I1
sVcyn2rqy
p243
I3
sVd0rmcen
p244
I1
sVda1p3nq
p245
I1
sVd0dxshk
p246
I2
sVdnptqqe
p247
I1
sVcz4388b
p248
I2
sVczfmm2r
p249
I1
sVd13jynq
p250
I1
sVdjsry03
p251
I2
sVdbwcyg5
p252
I2
sVdd1bk81
p253
I2
sVdrqn2hm
p254
I1
sVdpuvfia
p255
I2
sVd7xskcm
p256
I3
sVdi9nn2k
p257
I1
sVd0ipizj
p258
I2
sVd6h94mi
p259
I3
sVdb7vwwo
p260
I1
sVdb7w81h
p261
I4
sVd9yynoc
p262
I1
sVd0yyrq2
p263
I3
sVd7xrl1t
p264
I1
sVda1mazm
p265
I6
sVdddbf3p
p266
I2
sVdau25sl
p267
I1
sVdizwm37
p268
I4
sVdoidsn5
p269
I1
sVdh1i8hb
p270
I1
sVdtbtjuw
p271
I1
sVcykrl4m
p272
I1
sVddfxhot
p273
I1
sVd2yywc8
p274
I1
sVddbau01
p275
I4
sVdd20iu6
p276
I1
sVdiiwzu5
p277
I2
sVd4vr1nc
p278
I2
sVdcaa5rw
p279
I1
sVde95zyq
p280
I2
sVcyndwz8
p281
I1
sVd304zjg
p282
I1
sVdibo9hm
p283
I1
sVd7swt8l
p284
I2
sVd5mxyg9
p285
I1
sVdkh6vtt
p286
I1
sVdn6njpo
p287
I1
sVd6ybpmt
p288
I2
sVdiy424q
p289
I1
sVdh168fz
p290
I1
sVd7y5u22
p291
I4
sVdixjtxd
p292
I1
sVcz2yeh1
p293
I4
sVd2rzqzf
p294
I1
sVdn042iq
p295
I2
sVdf250k4
p296
I3
sVd3581zo
p297
I1
sVd82jpw9
p298
I1
sVd32oxbj
p299
I1
sVd39d92k
p300
I1
sVdqbx509
p301
I1
sVd0z2204
p302
I1
sVd21hesw
p303
I1
sVd31af20
p304
I1
sVdqt989k
p305
I1
sVdf4jxfk
p306
I1
sVcykfo7o
p307
I1
sVdgtfbil
p308
I1
sVd8ja3fi
p309
I1
sVdfwxy6b
p310
I1
sVcz5en0z
p311
I2
sVdhfis3m
p312
I3
sVd5rztp5
p313
I1
sVd8gpdp6
p314
I4
sVd9re3f3
p315
I1
sVd1qdzlk
p316
I1
sVdcvza1d
p317
I1
sVdniladw
p318
I1
sVddw48c0
p319
I1
sVd969jjb
p320
I2
sVd2nx98z
p321
I1
sVdb4zuvu
p322
I1
sVd4n2ztc
p323
I1
sVdsq5b9u
p324
I1
sVd3tnur3
p325
I3
sVd2eziha
p326
I1
sVd5l1ykh
p327
I1
sVd4m9qic
p328
I7
sVdtbsmq4
p329
I1
sVdegc23s
p330
I1
sVddvh6sy
p331
I2
sVde918n4
p332
I1
sVdt0cxqk
p333
I1
sVd2572fk
p334
I1
sVdbwiz0k
p335
I1
sVdcjt15s
p336
I1
s.