(dp0
Vcyhvg8p
p1
I1
s.(dp0
Vcyhzuz7
p1
I1
sVcyhvg8p
p2
I1
s.(dp0
Vcyhvg8p
p1
I1
sVcyi6t4k
p2
I1
s.(dp0
Vcyhvg8p
p1
I1
sVcyi6t4k
p2
I1
s.(dp0
Vcyiebat
p1
I1
sVcyhvg8p
p2
I1
s.(dp0
Vcyiebat
p1
I1
sVcyhvg8p
p2
I1
s.(dp0
Vcyhvg8p
p1
I1
sVcyilcl7
p2
I1
s.(dp0
Vcyhvg8p
p1
I1
sVcyivrhd
p2
I1
s.(dp0
Vcyixu2l
p1
I1
sVcyhvg8p
p2
I1
s.(dp0
Vcyhvg8p
p1
I1
sVcyixww4
p2
I1
s.(dp0
Vcyhvg8p
p1
I1
sVcyixww4
p2
I1
s.(dp0
Vcyhvg8p
p1
I1
sVcyj9d6b
p2
I1
s.(dp0
Vcyhvg8p
p1
I1
sVcyjs9c3
p2
I1
s.(dp0
Vcyhvg8p
p1
I1
sVcyjs9c3
p2
I1
s.(dp0
Vcykd3iq
p1
I1
sVcyhvg8p
p2
I1
s.(dp0
Vcyhvg8p
p1
I1
sVcykl8a6
p2
I1
s.(dp0
Vcyhvg8p
p1
I1
sVcykl8a6
p2
I1
s.(dp0
Vcyhvg8p
p1
I1
sVcyl02qk
p2
I1
s.(dp0
Vcyhvg8p
p1
I1
sVcyl0ocz
p2
I1
s.(dp0
Vcyhvg8p
p1
I1
sVcylbgkq
p2
I1
s.(dp0
Vcyhvg8p
p1
I1
sVcylbix1
p2
I1
s.(dp0
Vcyhvg8p
p1
I1
sVcylbix1
p2
I1
s.(dp0
Vcyhvg8p
p1
I1
sVcylbix1
p2
I1
s.(dp0
Vcylgevy
p1
I1
sVcyhvg8p
p2
I1
s.(dp0
Vcylknaf
p1
I1
sVcyhvg8p
p2
I1
s.(dp0
Vcyhvg8p
p1
I1
sVcyltn6e
p2
I1
s.(dp0
Vcyhvg8p
p1
I1
sVcyltn6e
p2
I1
s.(dp0
Vcyhvg8p
p1
I1
sVcyltn6e
p2
I1
s.(dp0
Vcyhvg8p
p1
I1
sVcyltn6e
p2
I1
s.(dp0
Vcyhvg8p
p1
I1
sVcyltya3
p2
I1
s.(dp0
Vcym642k
p1
I1
sVcyhvg8p
p2
I1
s.(dp0
Vcym642k
p1
I1
sVcyhvg8p
p2
I1
s.(dp0
Vcyhvg8p
p1
I1
sVcym66yi
p2
I1
s.(dp0
Vcyhvg8p
p1
I1
sVcym66yi
p2
I1
s.(dp0
Vcyhvg8p
p1
I1
sVcymyr8a
p2
I1
s.(dp0
Vcyhvg8p
p1
I1
sVcymyr8a
p2
I1
s.(dp0
Vcyhvg8p
p1
I1
sVcymyr8a
p2
I1
s.(dp0
Vcyhvg8p
p1
I1
sVcymyr8a
p2
I1
s.(dp0
Vcyhvg8p
p1
I1
sVcymyr8a
p2
I1
s.(dp0
Vcyn1xy9
p1
I1
sVcyhvg8p
p2
I1
s.(dp0
Vcyhvg8p
p1
I1
sVcyoe1rk
p2
I1
s.(dp0
Vcyhvg8p
p1
I1
sVcyomsoh
p2
I1
s.(dp0
Vcyhvg8p
p1
I1
sVcyow6a9
p2
I1
s.(dp0
Vcypad2j
p1
I1
sVcyhvg8p
p2
I1
s.(dp0
Vcyhvg8p
p1
I1
sVcypdpv7
p2
I1
s.(dp0
Vcyhvg8p
p1
I1
sVcyq4xic
p2
I1
s.(dp0
Vcyhvg8p
p1
I1
sVcyq5gt2
p2
I1
s.(dp0
Vcyhvg8p
p1
I1
sVcyqaams
p2
I1
s.(dp0
Vcyhvg8p
p1
I1
sVcyqswbx
p2
I1
s.(dp0
Vcyhvg8p
p1
I1
sVcyqswbx
p2
I1
s.(dp0
Vcyhvg8p
p1
I1
sVcyqswbx
p2
I1
s.(dp0
Vcyhvg8p
p1
I1
sVcyrunnh
p2
I1
s.(dp0
Vcyhvg8p
p1
I1
sVcys0gyv
p2
I1
s.(dp0
Vcys3umk
p1
I1
sVcyhvg8p
p2
I1
s.(dp0
Vcyhvg8p
p1
I1
sVcys629f
p2
I1
s.(dp0
Vcyhvg8p
p1
I1
sVcysf1qk
p2
I1
s.(dp0
Vcyhvg8p
p1
I1
sVcysfd1l
p2
I1
s.(dp0
Vcyss3o6
p1
I1
sVcyhvg8p
p2
I1
s.(dp0
Vcysv93j
p1
I1
sVcyhvg8p
p2
I1
s.(dp0
Vcysv93j
p1
I1
sVcyhvg8p
p2
I1
s.(dp0
Vcyhvg8p
p1
I1
sVcyt7beg
p2
I1
s.(dp0
Vcyhvg8p
p1
I1
sVcyt7szo
p2
I1
s.(dp0
Vcyhvg8p
p1
I1
sVcyti6s4
p2
I1
s.(dp0
Vcytiotj
p1
I1
sVcyhvg8p
p2
I1
s.(dp0
Vcyhvg8p
p1
I1
sVcyttz0b
p2
I1
s.(dp0
Vcyhvg8p
p1
I1
sVcytvaa1
p2
I1
s.(dp0
Vcyhvg8p
p1
I1
sVcytvaa1
p2
I1
s.(dp0
Vcyhvg8p
p1
I1
sVcytvaa1
p2
I1
s.(dp0
Vcyhvg8p
p1
I1
sVcytzyv8
p2
I1
s.(dp0
Vcyhvg8p
p1
I1
sVcytzyv8
p2
I1
s.(dp0
Vcyhvg8p
p1
I1
sVcyutkkt
p2
I1
s.(dp0
Vcyhvg8p
p1
I1
sVcyvtcca
p2
I1
s.(dp0
Vcyhvg8p
p1
I1
sVcyvtcca
p2
I1
s.(dp0
Vcyhvg8p
p1
I1
sVcywfcx9
p2
I1
s.(dp0
Vcyhvg8p
p1
I1
sVcywluvy
p2
I1
s.(dp0
Vcyhvg8p
p1
I1
sVcywts9p
p2
I1
s.(dp0
Vcyhvg8p
p1
I1
sVcywwr8d
p2
I1
s.(dp0
Vcyhvg8p
p1
I1
sVcyxjzak
p2
I1
s.(dp0
Vcyhvg8p
p1
I1
sVcyylplu
p2
I1
s.(dp0
Vcyyps6w
p1
I1
sVcyhvg8p
p2
I1
s.(dp0
Vcyyps6w
p1
I1
sVcyhvg8p
p2
I1
s.(dp0
Vcyyps6w
p1
I1
sVcyhvg8p
p2
I1
s.(dp0
Vcyhvg8p
p1
I1
sVcyyv9a3
p2
I1
s.(dp0
Vcyhvg8p
p1
I1
sVcyzwbvr
p2
I1
s.(dp0
Vcyhvg8p
p1
I1
sVcyzwrw6
p2
I1
s.(dp0
Vcyhvg8p
p1
I1
sVcyzwrw6
p2
I1
s.(dp0
Vcyhvg8p
p1
I1
sVcyzwrw6
p2
I1
s.(dp0
Vcyhvg8p
p1
I1
sVcyzwrw6
p2
I1
s.(dp0
Vcyhvg8p
p1
I1
sVcyzwrw6
p2
I1
s.(dp0
Vcyhvg8p
p1
I1
sVcz0d677
p2
I1
s.(dp0
Vcyhvg8p
p1
I1
sVcz1gltu
p2
I1
s.(dp0
Vcz28x5b
p1
I1
sVcyhvg8p
p2
I1
s.(dp0
Vcz28x5b
p1
I1
sVcyhvg8p
p2
I1
s.(dp0
Vcz28x5b
p1
I1
sVcyhvg8p
p2
I1
s.(dp0
Vcyhvg8p
p1
I1
sVcz2dwxm
p2
I1
s.(dp0
Vcyhvg8p
p1
I1
sVcz4x9ql
p2
I1
s.(dp0
Vcz53qhz
p1
I1
sVcyhvg8p
p2
I1
s.(dp0
Vcz53qhz
p1
I1
sVcyhvg8p
p2
I1
s.(dp0
Vcz5apgy
p1
I1
sVcyhvg8p
p2
I1
s.(dp0
Vcyhvg8p
p1
I1
sVcz69o2c
p2
I1
s.(dp0
Vcyhvg8p
p1
I1
sVcz6gzv2
p2
I1
s.(dp0
Vcz6j0eq
p1
I1
sVcyhvg8p
p2
I1
s.(dp0
Vcyhvg8p
p1
I1
sVcz6w6x8
p2
I1
s.(dp0
Vcz6w8g0
p1
I1
sVcyhvg8p
p2
I1
s.(dp0
Vcz6w8g0
p1
I1
sVcyhvg8p
p2
I1
s.(dp0
Vcyhvg8p
p1
I1
sVcz7epp5
p2
I1
s.(dp0
Vcz9riwa
p1
I1
sVcyhvg8p
p2
I1
s.(dp0
Vcyhvg8p
p1
I1
sVczadpm0
p2
I1
s.(dp0
Vcy(dp0
Vcyhvg8p
p1
I1
sVdtigut0
p2
I1
s.