(dp0
Vddizo0f
p1
I1
sVcypyhkh
p2
I1
sVd1tp7zc
p3
I1
sVdd8ush5
p4
I1
sVd0r4aba
p5
I1
sVdaxc44w
p6
I1
sVd1ajk4n
p7
I1
sVdgx8a3d
p8
I1
sVd2c0isl
p9
I1
sVdq1196u
p10
I1
sVdnngl0m
p11
I1
sVdt45hye
p12
I1
sVdid6qmd
p13
I1
sVdr1wzm9
p14
I1
sVdrxoj0x
p15
I1
sVdftyz0j
p16
I1
sVd3o7niv
p17
I1
sVdr1lp83
p18
I1
sVdgzo36d
p19
I1
sVdg01qmv
p20
I1
sVcyiahw2
p21
I1
sVd2emgkp
p22
I1
sVd0zz09s
p23
I1
s.