(dp0
Vcylvpi2
p1
I1
s.(dp0
Vcyqt4km
p1
I1
sVcylvpi2
p2
I1
s.(dp0
Vcyz9t6i
p1
I1
sVcylvpi2
p2
I1
s.(dp0
Vcylvpi2
p1
I1
sVcyzbomd
p2
I1
s.(dp0
Vcylvpi2
p1
I1
sVczc1cj8
p2
I1
s.(dp0
Vczgmpjd
p1
I1
sVcylvpi2
p2
I1
s.(dp0
Vczre3wr
p1
I1
sVcylvpi2
p2
I1
s.(dp0
Vczx3alr
p1
I1
sVcylvpi2
p2
I1
s.(dp0
Vcylvpi2
p1
I1
sVczx6m4o
p2
I1
s.(dp0
Vd04kmtl
p1
I1
sVcylvpi2
p2
I1
s.(dp0
Vcylvpi2
p1
I1
sVd0jn60x
p2
I1
s.(dp0
Vcylvpi2
p1
I1
sVd0rfdhi
p2
I1
s.(dp0
Vd19d3zp
p1
I1
sVcylvpi2
p2
I1
s.(dp0
Vd1li8pn
p1
I1
sVcylvpi2
p2
I1
s.(dp0
Vd202yps
p1
I1
sVcylvpi2
p2
I1
s.(dp0
Vcylvpi2
p1
I1
sVd2a8odq
p2
I1
s.(dp0
Vd3gh8o6
p1
I1
sVcylvpi2
p2
I1
s.(dp0
Vd3gh8o6
p1
I1
sVcylvpi2
p2
I1
s.(dp0
Vd3gh8o6
p1
I1
sVcylvpi2
p2
I1
s.(dp0
Vd3gh8o6
p1
I1
sVcylvpi2
p2
I1
s.(dp0
Vd3gh8o6
p1
I1
sVcylvpi2
p2
I1
s.(dp0
Vd3gh8o6
p1
I1
sVcylvpi2
p2
I1
s.(dp0
Vd3gh8o6
p1
I1
sVcylvpi2
p2
I1
s.(dp0
Vd3gh8o6
p1
I1
sVcylvpi2
p2
I1
s.(dp0
Vd3qeto9
p1
I1
sVcylvpi2
p2
I1
s.(dp0
Vd3vsz62
p1
I1
sVcylvpi2
p2
I1
s.(dp0
Vd4lxloh
p1
I1
sVcylvpi2
p2
I1
s.(dp0
Vcylvpi2
p1
I1
sVd4mqe0g
p2
I1
s.(dp0
Vcylvpi2
p1
I1
sVd4vn6al
p2
I1
s.(dp0
Vcylvpi2
p1
I1
sVd4vn6al
p2
I1
s.(dp0
Vcylvpi2
p1
I1
sVd4vn6al
p2
I1
s.(dp0
Vcylvpi2
p1
I1
sVd4vn6al
p2
I1
s.(dp0
Vcylvpi2
p1
I1
sVd4vn6al
p2
I1
s.(dp0
Vcylvpi2
p1
I1
sVd4vn6al
p2
I1
s.(dp0
Vcylvpi2
p1
I1
sVd4vn6al
p2
I1
s.(dp0
Vd656lkw
p1
I1
sVcylvpi2
p2
I1
s.(dp0
Vd71vz7a
p1
I1
sVcylvpi2
p2
I1
s.(dp0
Vd7hqwlq
p1
I1
sVcylvpi2
p2
I1
s.(dp0
Vcylvpi2
p1
I1
sVd7u2p5y
p2
I1
s.(dp0
Vcylvpi2
p1
I1
sVd7zy1jj
p2
I1
s.(dp0
Vdbgkptv
p1
I1
sVcylvpi2
p2
I1
s.(dp0
Vcylvpi2
p1
I1
sVdbr0404
p2
I1
s.(dp0
Vdc7qnuw
p1
I1
sVcylvpi2
p2
I1
s.(dp0
Vcylvpi2
p1
I1
sVdd5o92z
p2
I1
s.(dp0
Vddok8cx
p1
I1
sVcylvpi2
p2
I1
s.(dp0
Vcylvpi2
p1
I1
sVdeav75x
p2
I1
s.(dp0
Vcylvpi2
p1
I1
sVdeav75x
p2
I1
s.(dp0
Vdejfay6
p1
I1
sVcylvpi2
p2
I1
s.(dp0
Vdf5vf5p
p1
I1
sVcylvpi2
p2
I1
s.(dp0
Vdf5vf5p
p1
I1
sVcylvpi2
p2
I1
s.(dp0
Vdg6155g
p1
I1
sVcylvpi2
p2
I1
s.(dp0
Vdgjx483
p1
I1
sVcylvpi2
p2
I1
s.(dp0
Vcylvpi2
p1
I1
sVdgmiy9s
p2
I1
s.(dp0
Vcylvpi2
p1
I1
sVdi2pyfg
p2
I1
s.(dp0
Vdi4rwgt
p1
I1
sVcylvpi2
p2
I1
s.(dp0
Vdii3f99
p1
I1
sVcylvpi2
p2
I1
s.(dp0
Vdipq9j9
p1
I1
sVcylvpi2
p2
I1
s.(dp0
Vdiy8wlh
p1
I1
sVcylvpi2
p2
I1
s.(dp0
Vdjhygjs
p1
I1
sVcylvpi2
p2
I1
s.(dp0
Vdjo6jnr
p1
I1
sVcylvpi2
p2
I1
s.(dp0
Vdmhatmv
p1
I1
sVcylvpi2
p2
I1
s.(dp0
Vdn1ylcd
p1
I1
sVcylvpi2
p2
I1
s.(dp0
Vdn26kmu
p1
I1
sVcylvpi2
p2
I1
s.(dp0
Vdn6agii
p1
I1
sVcylvpi2
p2
I1
s.(dp0
Vdn6ka4j
p1
I1
sVcylvpi2
p2
I1
s.(dp0
Vdn6ka4j
p1
I1
sVcylvpi2
p2
I1
s.(dp0
Vdphvirn
p1
I1
sVcylvpi2
p2
I1
s.(dp0
Vdphvirn
p1
I1
sVcylvpi2
p2
I1
s.(dp0
Vdq4qxzi
p1
I1
sVcylvpi2
p2
I1
s.(dp0
Vcylvpi2
p1
I1
sVdqfzp3f
p2
I1
s.(dp0
Vdqh6esv
p1
I1
sVcylvpi2
p2
I1
s.(dp0
Vdr44bnq
p1
I1
sVcylvpi2
p2
I1
s.(dp0
Vdr44bnq
p1
I1
sVcylvpi2
p2
I1
s.(dp0
Vcylvpi2
p1
I1
sVdr4ojpl
p2
I1
s.(dp0
Vdrffzxz
p1
I1
sVcylvpi2
p2
I1
s.(dp0
Vdrmp4wo
p1
I1
sVcylvpi2
p2
I1
s.(dp0
Vdrtd78b
p1
I1
sVcylvpi2
p2
I1
s.(dp0
Vdtj40vy
p1
I1
sVcylvpi2
p2
I1
s.