(dp0
Vcym74lv
p1
I1
s.(dp0
Vcym74lv
p1
I1
sVcym8cw3
p2
I1
s.(dp0
Vcym74lv
p1
I1
sVczlijcb
p2
I1
s.(dp0
Vcym74lv
p1
I1
sVd0obpuv
p2
I1
s.(dp0
Vcym74lv
p1
I1
sVd0ofimv
p2
I1
s.(dp0
Vcym74lv
p1
I1
sVd0og540
p2
I1
s.(dp0
Vd0oiszn
p1
I1
sVcym74lv
p2
I1
s.(dp0
Vcym74lv
p1
I1
sVd0ojlme
p2
I1
s.(dp0
Vcym74lv
p1
I1
sVd0ojt4p
p2
I1
s.(dp0
Vcym74lv
p1
I1
sVd0ojt4p
p2
I1
s.(dp0
Vcym74lv
p1
I1
sVd0ok9w6
p2
I1
s.(dp0
Vcym74lv
p1
I1
sVd0ol5o7
p2
I1
s.(dp0
Vcym74lv
p1
I1
sVd0oloh3
p2
I1
s.(dp0
Vcym74lv
p1
I1
sVd0olxjf
p2
I1
s.(dp0
Vcym74lv
p1
I1
sVd18own4
p2
I1
s.(dp0
Vcym74lv
p1
I1
sVd1tbgpo
p2
I1
s.(dp0
Vd3r3khn
p1
I1
sVcym74lv
p2
I1
s.(dp0
Vcym74lv
p1
I1
sVd3y6km8
p2
I1
s.(dp0
Vcym74lv
p1
I1
sVd46bruy
p2
I1
s.(dp0
Vcym74lv
p1
I1
sVd4q00y4
p2
I1
s.(dp0
Vcym74lv
p1
I1
sVd5ztbt5
p2
I1
s.(dp0
Vcym74lv
p1
I1
sVd63hpqr
p2
I1
s.(dp0
Vcym74lv
p1
I1
sVd9judal
p2
I1
s.(dp0
Vcym74lv
p1
I1
sVdey9s1j
p2
I1
s.(dp0
Vdf85roy
p1
I1
sVcym74lv
p2
I1
s.(dp0
Vcym74lv
p1
I1
sVdfg6pt2
p2
I1
s.(dp0
Vcym74lv
p1
I1
sVdfw89l4
p2
I1
s.(dp0
Vcym74lv
p1
I1
sVdhriwyi
p2
I1
s.(dp0
Vcym74lv
p1
I1
sVdj0l5y1
p2
I1
s.