(dp0
Vd7a923k
p1
I1
sVd5i8kll
p2
I1
sVdb4tlux
p3
I1
sVcyux2io
p4
I2
sVdir0nxq
p5
I1
sVdqnwqn5
p6
I1
sVd0sqovl
p7
I2
sVdfb5y0a
p8
I1
sVdg4ywnz
p9
I1
sVdf5clwt
p10
I1
sVczbx8ra
p11
I1
sVdqnk7yh
p12
I1
sVdqnwlmn
p13
I2
sVdqnvw5j
p14
I1
sVdfr4abz
p15
I1
sVd7fjb2h
p16
I2
sVdqnsk4n
p17
I1
sVdmmrf33
p18
I1
sVd2npu2m
p19
I1
sVd2nyews
p20
I2
sVddqtl8l
p21
I1
sVd92glco
p22
I2
sVdn1em61
p23
I2
sVdglichs
p24
I1
sVd1dorgp
p25
I9
sVdc0ujzk
p26
I4
sVdf4oy11
p27
I1
sVdnl310o
p28
I1
sVdqnpw1q
p29
I1
sVcze3asi
p30
I1
sVd9i76je
p31
I1
sVdc0yrd1
p32
I1
sVdqnvfdw
p33
I4
sVcykgo3l
p34
I1
sVdc30ilg
p35
I1
sVd1eg999
p36
I1
sVdc0vg8u
p37
I1
sVd1e60qz
p38
I2
sVdf5t8w8
p39
I2
sVdqnz2hz
p40
I3
sVdhwjr84
p41
I1
sVd3qpid2
p42
I1
sVdeslgw3
p43
I1
sVd4jknys
p44
I1
sVcz7w9vk
p45
I1
sVd512o5c
p46
I1
sVd3nvmye
p47
I1
sVd8trjef
p48
I1
sVdqo3mnb
p49
I1
sVdmq74vj
p50
I1
sVdqns9so
p51
I3
sVcyjocv5
p52
I1
sVd1eclph
p53
I1
sVd54s8z6
p54
I2
sVdaq0i23
p55
I2
sVd3m8yhf
p56
I2
sVdc0xpto
p57
I1
sVd83ioio
p58
I1
sVdgjzn5c
p59
I1
sVdqnom9c
p60
I1
sVdir0jbc
p61
I3
sVd7ffao8
p62
I2
sVd3dhadn
p63
I1
sVd39tdxv
p64
I1
sVdaw0vne
p65
I1
sVdc0xoo4
p66
I2
sVdn0byu4
p67
I4
sVdqo078f
p68
I1
sVd3a21uc
p69
I3
sVdobxb6v
p70
I1
sVd7g1z3i
p71
I1
sVd1wn161
p72
I1
sVdap4vmw
p73
I1
sVde32hia
p74
I1
sVcz7w8ln
p75
I1
sVdqnsf4n
p76
I1
sVdk09a9n
p77
I1
sVde3hx8y
p78
I1
sVdj67ngk
p79
I1
sVcyv7zyp
p80
I1
sVd281frq
p81
I1
sVczwvorf
p82
I1
sVd0i21fx
p83
I2
sVczit9pd
p84
I1
sVdqo2k4d
p85
I2
sVdqaox6p
p86
I1
sVdf5uzs8
p87
I1
s.