(dp0
Vd17r1i3
p1
I2
sVdsdncy0
p2
I1
sVdedau1t
p3
I1
sVd9zi1ln
p4
I1
sVczpc031
p5
I1
sVdg8pfxy
p6
I1
sVd240uov
p7
I1
sVdpf3wnx
p8
I1
sVd54idb7
p9
I1
sVda4e1ni
p10
I1
sVdekhb9a
p11
I1
sVdel3nxi
p12
I1
sVd2ukkhr
p13
I3
sVdkyjn10
p14
I3
sVddv0a1r
p15
I1
sVdhh3whf
p16
I1
sVdpfzsgd
p17
I2
sVd1afuoc
p18
I1
sVd1nuylc
p19
I1
sVdoucads
p20
I1
sVdjlxphw
p21
I2
sVd6p2orr
p22
I1
sVczwzb7v
p23
I1
sVdcxw7f5
p24
I1
sVdo9gw73
p25
I1
sVdp5kbww
p26
I1
sVdbo8njg
p27
I1
sVd102ff8
p28
I1
sVd75o183
p29
I1
sVcyi3kuv
p30
I2
sVdms4lj0
p31
I2
sVdifd8n3
p32
I1
sVd2aryic
p33
I2
sVdj64fnz
p34
I1
sVdgzfpr4
p35
I1
sVdc66nyq
p36
I1
sVcz5bc4k
p37
I1
sVdq5oj1i
p38
I1
sVdfxqtxe
p39
I2
sVdctvw2p
p40
I1
sVdfrkdye
p41
I1
sVdexxxg2
p42
I1
sVdjnis31
p43
I1
sVd1edcnx
p44
I4
sVdge0bvv
p45
I2
sVdfaemyk
p46
I4
sVdmlyyrm
p47
I1
sVdgfp16w
p48
I1
sVd3pfn08
p49
I1
sVdj11d1e
p50
I1
sVdesyus4
p51
I1
sVddk1rzm
p52
I1
sVdewde29
p53
I1
sVd68u0hz
p54
I1
sVd6bfx8x
p55
I1
sVcz7jtgm
p56
I1
sVdd9gaya
p57
I1
sVdthpz4d
p58
I1
sVdb8uezc
p59
I4
sVdhlojv1
p60
I1
sVdt60fid
p61
I1
sVdczn6ed
p62
I1
sVd4a1gmr
p63
I1
sVdnez3fs
p64
I1
sVdq37eh1
p65
I1
sVdoqow46
p66
I1
sVczbq05e
p67
I1
sVdkg2mmc
p68
I1
sVdkqg5xy
p69
I3
sVdkuu0o6
p70
I1
sVcz95blo
p71
I1
sVd1r55h2
p72
I1
sVdr7mkfy
p73
I1
sVdntts3c
p74
I1
sVddj6rb9
p75
I1
sVd0kpnza
p76
I1
sVd048guh
p77
I1
sVdclequ9
p78
I1
sVd4lnt0x
p79
I1
sVczywype
p80
I1
sVd40elmp
p81
I1
sVd1iswe2
p82
I3
sVdj8n447
p83
I1
sVdh44uwf
p84
I2
sVczh7jn3
p85
I1
sVczr23sb
p86
I2
sVd41bdxg
p87
I1
sVddw3r50
p88
I1
sVdcaruml
p89
I1
sVdh514se
p90
I1
sVd5363c9
p91
I1
sVdij7jd9
p92
I1
sVdbtkl91
p93
I1
sVd7gbi2a
p94
I1
sVdehr272
p95
I1
sVd2t624u
p96
I1
sVdbxbxmf
p97
I1
sVd1vkswf
p98
I1
sVd43v98d
p99
I2
sVdnnebw1
p100
I1
sVdb0hl7m
p101
I1
sVdd73m9a
p102
I4
sVdrt0v18
p103
I1
sVda23dvs
p104
I1
sVdnwdau4
p105
I1
sVd6qaz7k
p106
I1
sVd1u1w7a
p107
I1
sVd513qzz
p108
I1
sVdropjvd
p109
I1
sVd01o7z1
p110
I1
sVdf0glrl
p111
I1
sVd7o4jm0
p112
I1
sVdgp1dqq
p113
I1
sVdssuzam
p114
I1
sVd9n5n3h
p115
I2
sVdnri00o
p116
I1
sVdeuu8ap
p117
I1
sVd67t4iq
p118
I1
sVdpqn2t0
p119
I1
sVdiywj4e
p120
I1
sVd1bue5c
p121
I1
sVdjn0au3
p122
I1
sVd5ouuqi
p123
I1
sVd1kxyvv
p124
I1
sVddxegw9
p125
I1
sVd2p0gkv
p126
I2
sVdow8l52
p127
I1
sVddutra0
p128
I1
sVd4n1fvh
p129
I1
sVcyibra6
p130
I1
sVd3clxd1
p131
I1
sVd61cclx
p132
I1
sVdao340f
p133
I1
sVd1zw3pa
p134
I1
sVdk6e2wh
p135
I1
sVd6m46c6
p136
I1
sVddw98kh
p137
I1
sVdbpqchm
p138
I1
sVd7st8p7
p139
I1
sVdgm9gk4
p140
I1
sVcyxyuky
p141
I1
sVd0s7351
p142
I1
sVd6r1fuf
p143
I1
sVdk1xfxh
p144
I1
sVd2ch91j
p145
I1
sVd2ypcig
p146
I1
sVdfxnita
p147
I1
sVderabq8
p148
I1
sVddywaep
p149
I2
sVd0a1be2
p150
I1
sVdfb1i2b
p151
I1
sVczwft1n
p152
I1
sVd2sxc45
p153
I1
sVd2zudb3
p154
I1
sVd2ts93g
p155
I2
sVdckl83j
p156
I1
sVczoeu4n
p157
I2
sVd8js63k
p158
I1
sVd8try9z
p159
I1
sVd8nmkvu
p160
I1
sVd1bzk9f
p161
I1
sVdib1bxn
p162
I1
sVdcghxwo
p163
I1
sVdb9l6am
p164
I1
sVdas6nvp
p165
I1
sVd0tbu19
p166
I1
sVdmpfwou
p167
I1
sVd1ktubx
p168
I1
sVdjubeu2
p169
I1
sVddei6gb
p170
I1
sVdk3ofkt
p171
I1
sVdocgiri
p172
I1
sVdpmvscn
p173
I1
sVd2bhj1r
p174
I1
sVd8x3wi8
p175
I1
sVd7urjjr
p176
I2
sVddhw1u0
p177
I1
sVdmzc40i
p178
I2
sVczgy9o2
p179
I1
sVds8bvz6
p180
I1
sVdftbnvd
p181
I1
sVd9qh5vx
p182
I1
sVdpgay75
p183
I1
sVdbipiui
p184
I1
sVd3p3dum
p185
I1
sVdc15a2d
p186
I1
sVd1o5xq3
p187
I1
sVcymx9gw
p188
I1
sVcymyobb
p189
I1
sVdf3ou86
p190
I1
sVd1inzl7
p191
I1
sVd097dgz
p192
I1
sVdk262n1
p193
I2
sVdch9s8v
p194
I1
sVdre0bfd
p195
I1
sVcypd1v7
p196
I1
sVd9ffyus
p197
I1
sVcz21hpt
p198
I1
sVdgtqsjy
p199
I1
sVdnivnxv
p200
I1
sVd47tzx7
p201
I2
sVczks0f5
p202
I1
sVd1l9c2j
p203
I1
sVdscgd2f
p204
I1
sVd43uw5g
p205
I1
sVdhockpe
p206
I1
sVds5rc65
p207
I1
sVdejboqs
p208
I1
sVdav0m7j
p209
I1
sVdihn9kt
p210
I1
sVdjpwoqh
p211
I1
sVd1bjwsb
p212
I1
sVd1owp83
p213
I1
sVdc0upfa
p214
I1
sVd0ze6ev
p215
I1
sVdr0ppk8
p216
I1
sVd6izptz
p217
I1
sVd4xrfep
p218
I1
sVd15viud
p219
I1
sVdczxbti
p220
I1
sVdprjz33
p221
I1
sVdgmfmpt
p222
I1
sVd3af7wy
p223
I1
sVdj5sgnq
p224
I1
sVd7e304g
p225
I1
sVdhao5bd
p226
I1
sVd5dubuh
p227
I1
sVdfy6h8b
p228
I2
sVdgcxx30
p229
I2
sVditc189
p230
I1
sVdd9hmmf
p231
I1
sVdeppzbq
p232
I2
sVd5iwztt
p233
I1
sVd7icpbu
p234
I1
sVcyz3hr9
p235
I1
sVd50ymel
p236
I1
sVd1zch31
p237
I1
sVd08q3sn
p238
I2
sVd90mhwg
p239
I1
sVdfljgto
p240
I1
sVd3g4xn3
p241
I2
sVd7kcnm4
p242
I1
sVd8ku8wy
p243
I1
sVdad38hm
p244
I1
sVczfekkw
p245
I1
sVcz2upi8
p246
I2
sVd6fnjke
p247
I1
sVd1w02ao
p248
I3
sVdgenxgo
p249
I1
sVd4rfbr2
p250
I1
sVdtf9dhy
p251
I1
sVdp1jbih
p252
I2
sVczqr4rj
p253
I1
sVdozhb8l
p254
I2
sVdpd9ew2
p255
I1
sVdj5zlcz
p256
I1
sVdcpaglm
p257
I3
sVdpm8qf5
p258
I1
sVd1i35g2
p259
I1
sVd2e094x
p260
I1
sVczbf7l2
p261
I1
sVd8kgiht
p262
I1
sVdoe8pp7
p263
I1
sVcyx6fm4
p264
I1
sVdgwp6r8
p265
I1
sVd2gaii3
p266
I1
sVd9e8q4m
p267
I1
sVdcwo5jq
p268
I1
sVdh51lm3
p269
I1
sVd8yivtx
p270
I1
sVd3b63fn
p271
I1
sVd21ihxe
p272
I1
sVd83hpmi
p273
I1
sVd7i482z
p274
I1
sVcys7g8k
p275
I1
sVddpyyof
p276
I1
sVdsbsfdd
p277
I1
sVd6rclam
p278
I1
sVdh4pcwt
p279
I1
sVd9rd7cg
p280
I1
sVd1rzwt1
p281
I1
sVd0r69lm
p282
I1
sVd436q0g
p283
I1
sVddl2wke
p284
I1
sVdgunysj
p285
I1
sVdn7075u
p286
I1
sVd0qubpf
p287
I1
sVcywmv43
p288
I1
sVdbp99ip
p289
I1
sVdcg71xt
p290
I1
sVd14rd8q
p291
I2
sVdelpruu
p292
I1
sVdr6ir84
p293
I2
sVd7pmtfz
p294
I1
sVd3uunzn
p295
I1
sVddp8oux
p296
I2
sVd41gx1d
p297
I1
sVd2mpejd
p298
I1
sVd09vfey
p299
I1
sVdkkkt2c
p300
I2
sVdg1d00i
p301
I1
sVdgf6lx7
p302
I1
sVdknzzi9
p303
I1
sVdq8hv37
p304
I1
sVd4hzw9h
p305
I1
sVdna277h
p306
I1
sVd7mwrzy
p307
I1
sVdke2nit
p308
I1
sVdgsd4ho
p309
I1
sVdifeaw1
p310
I1
sVdd7rmlv
p311
I3
sVcyj8qp4
p312
I1
sVddtg858
p313
I1
sVdtbc167
p314
I1
sVd1b7sc0
p315
I1
sVd2ieene
p316
I1
sVd6iynlg
p317
I1
sVdnqbcuu
p318
I1
sVd123j3e
p319
I1
sVd0wyf6a
p320
I1
sVd7xah75
p321
I1
sVczwx7si
p322
I1
sVd8py4ps
p323
I1
sVdf4p0fy
p324
I1
sVdbfsvqs
p325
I1
sVd42kx6t
p326
I3
sVczh3io4
p327
I1
sVd570z1m
p328
I1
sVdsk7b4z
p329
I2
sVd1h9k8u
p330
I1
sVd1q4y9x
p331
I1
sVdjou4j4
p332
I1
sVd3uwqms
p333
I1
sVdcvls9c
p334
I1
sVdms97bp
p335
I1
sVdc0t7ul
p336
I1
sVd7ilp1b
p337
I1
sVd3yqkbn
p338
I2
sVd47hpz2
p339
I1
sVdmi2iyh
p340
I1
sVcyw7tqd
p341
I1
sVd1vkktw
p342
I1
sVd2ddz7z
p343
I2
sVd47e474
p344
I1
sVdnw8yvb
p345
I3
sVd1mpg6x
p346
I1
sVdfaqall
p347
I1
sVd44vvxz
p348
I1
sVd1pnwg0
p349
I1
sVd19rlib
p350
I1
sVd00tt8h
p351
I1
sVcz3bs5j
p352
I1
sVdb10ug8
p353
I7
sVd5oih9u
p354
I1
sVdqd6k4t
p355
I1
sVde1wr4u
p356
I1
sVd19ivsm
p357
I2
sVdolftbk
p358
I3
sVd9vnq83
p359
I2
sVd0qnguk
p360
I1
sVd1q021h
p361
I1
sVdsm27ny
p362
I1
sVd1uuhz7
p363
I1
sVdaoosv7
p364
I2
sVd9u1hxo
p365
I1
sVd4up4a0
p366
I3
sVd3ccj53
p367
I1
sVczn9qb9
p368
I1
sVd9yp421
p369
I1
sVdq3yoeg
p370
I1
sVdjpzslq
p371
I1
sVd8aailc
p372
I1
sVcyqaodp
p373
I1
sVdewxfqx
p374
I1
sVdt7oag1
p375
I1
sVdq6dzws
p376
I1
sVd3t9jld
p377
I1
sVd60b9k1
p378
I1
sVdpbp57n
p379
I1
sVd6c30u1
p380
I1
sVd8k0jpa
p381
I1
sVdb9nrgm
p382
I1
sVdechn9s
p383
I1
sVdd4rwu7
p384
I1
sVdeiimla
p385
I1
sVd5arfwg
p386
I1
sVd3oytma
p387
I1
sVd8mi45c
p388
I1
sVdeu7jc2
p389
I1
sVdo9iljn
p390
I1
sVd97ljuy
p391
I1
sVczslsyz
p392
I1
sVd0gqyd6
p393
I1
sVdd5xjxz
p394
I1
sVdbir22x
p395
I1
sVdpimxj2
p396
I4
sVcyu878n
p397
I1
sVd9z1wit
p398
I1
sVcyj42ve
p399
I1
sVdkx8fpz
p400
I1
sVdtdicve
p401
I1
sVdk8dvah
p402
I1
sVdfbiedv
p403
I2
sVczxdl9z
p404
I1
sVdjdnodf
p405
I1
sVdc1g495
p406
I1
sVdpvro1m
p407
I1
sVd2sk2j7
p408
I1
sVdgia9hj
p409
I1
sVdf0keab
p410
I1
sVcytjfiz
p411
I1
sVdn6inwi
p412
I1
sVdbay0fj
p413
I1
sVdn034cl
p414
I2
sVdontwgr
p415
I1
sVdonrysl
p416
I1
sVd6bn71j
p417
I1
sVd5wdt3n
p418
I1
sVd9dpolf
p419
I1
sVda13wb4
p420
I1
sVd2314p7
p421
I1
sVd76evvw
p422
I1
sVd0ut9ou
p423
I2
sVczl6yzw
p424
I1
sVdexj06u
p425
I1
sVdo8gn9l
p426
I1
sVd4px2u0
p427
I1
sVdikn4pz
p428
I1
sVdeuzl60
p429
I1
sVdbpqwqy
p430
I1
sVdgc3z7x
p431
I2
sVdeku6ds
p432
I1
sVdphps5b
p433
I1
sVczcuqkx
p434
I1
sVd7fjnjo
p435
I1
sVdg84ykp
p436
I1
sVdbec6h6
p437
I1
sVd1akzmk
p438
I1
sVdmffkgy
p439
I1
sVdc00mof
p440
I1
sVd1wci5a
p441
I8
sVd17dhbw
p442
I1
sVdn2bf2i
p443
I3
sVdedbk3k
p444
I1
sVdqk6hek
p445
I1
sVdi5irjo
p446
I1
sVcyp8az8
p447
I1
sVdgi25r9
p448
I3
sVdkrwews
p449
I1
sVdprro1n
p450
I1
sVdrgf1jr
p451
I2
sVd47cuat
p452
I1
sVdob0w7n
p453
I1
sVde4yd06
p454
I1
sVdi5x7nn
p455
I2
sVdckxoti
p456
I1
sVdq5kw9i
p457
I1
sVdjt246y
p458
I1
sVdffgq1i
p459
I3
sVd8rij9r
p460
I2
sVda927un
p461
I1
sVd1uhtz6
p462
I1
sVdn9ak28
p463
I1
sVdk10pk1
p464
I2
sVdbv1vpa
p465
I1
sVdgn7g5u
p466
I1
sVd6tfta4
p467
I1
sVd2ackrw
p468
I1
sVdbsncb5
p469
I1
sVdmrijmd
p470
I1
sVdatdtsr
p471
I2
sVd3hujxb
p472
I2
sVd4luin5
p473
I1
sVdgs34ue
p474
I1
sVd1cgpl8
p475
I1
sVd8enn41
p476
I1
sVd1fx828
p477
I1
sVd53kp2y
p478
I1
sVd1d8arb
p479
I1
sVdkrzbtv
p480
I2
sVd9q040b
p481
I1
sVd1ho90o
p482
I1
sVdam6ga0
p483
I1
sVdfrckxg
p484
I1
sVdpg2ufe
p485
I1
sVd3o5nla
p486
I1
sVdcg769p
p487
I1
sVd80hu85
p488
I1
sVdel8mcv
p489
I2
sVd7e6jmn
p490
I1
sVd9h8fy8
p491
I2
sVdnzzpah
p492
I1
sVd1bou5j
p493
I1
sVd4l11zy
p494
I1
sVdav3xiu
p495
I1
sVd7fbspi
p496
I1
sVddoty5i
p497
I1
sVcyueh1o
p498
I1
sVd2v7zcj
p499
I1
sVdgmw0dd
p500
I1
sVdb9ibvp
p501
I1
sVdeddnxv
p502
I2
sVdtcpycj
p503
I1
sVdi41u06
p504
I1
sVd7kzfzf
p505
I4
sVdn63gmq
p506
I1
sVdatizy1
p507
I1
sVd2bd0m3
p508
I3
sVdh1ha8k
p509
I1
sVd6sf7ie
p510
I1
sVda65e1v
p511
I1
sVd79hj2g
p512
I1
sVd62uluz
p513
I1
sVddc2f7q
p514
I1
sVdihl5kk
p515
I1
sVdn10tca
p516
I4
sVdnqpp3y
p517
I1
sVdfmwf40
p518
I1
sVdkg6lfh
p519
I1
sVdahj16n
p520
I1
sVd3e3eop
p521
I1
sVd4lox8i
p522
I1
sVdk3l9of
p523
I1
sVd0be7g3
p524
I1
sVd8eyvie
p525
I1
sVd4dj586
p526
I1
sVd7jdhuh
p527
I1
sVdrot3us
p528
I1
sVcz30c6d
p529
I1
sVd4zbafq
p530
I2
sVd2lkael
p531
I1
sVdmve4q1
p532
I1
sVdhipicx
p533
I1
sVd9ks1kb
p534
I1
sVdcw28t4
p535
I1
sVdi9yprp
p536
I1
sVd50fjz8
p537
I1
sVde0kug6
p538
I1
sVdbt035h
p539
I1
sVdsepc0q
p540
I1
sVd57qjld
p541
I1
sVd20yzyw
p542
I1
sVdgqjsis
p543
I1
sVdhde5pv
p544
I1
sVdcwjj2c
p545
I2
sVdfwtlqk
p546
I1
sVdcklxiw
p547
I1
sVd5xfwux
p548
I1
sVdrvjf4h
p549
I1
sVddfeguv
p550
I1
sVdj53s1r
p551
I1
sVdjdmull
p552
I4
sVdffog2c
p553
I1
sVd1jq0km
p554
I1
sVdj011j1
p555
I1
sVdar1ri3
p556
I1
sVdkf18vj
p557
I1
sVd6m5opa
p558
I2
sVd13os84
p559
I1
sVdoyzsq7
p560
I1
sVd4gv9s2
p561
I1
sVdoeuwuy
p562
I1
sVdqkzcig
p563
I1
sVdask78z
p564
I1
sVd31ft1o
p565
I1
sVdhs74yl
p566
I1
sVdeitnc6
p567
I1
sVdbrw7et
p568
I1
sVd2e2dck
p569
I1
sVcz3usln
p570
I1
sVd6iy4cv
p571
I2
sVdg8a5yh
p572
I1
sVd0b2itp
p573
I1
sVd2gkxzr
p574
I1
sVdea37k5
p575
I2
sVdeb1lmp
p576
I1
sVdo6gj22
p577
I2
sVdtbf4qz
p578
I1
sVcze20eq
p579
I1
sVd9rzq7j
p580
I1
sVdgrftfw
p581
I1
sVdc8y5la
p582
I1
sVcyw5sf4
p583
I1
sVd69lnt4
p584
I1
sVd9v1ptn
p585
I1
sVd12g42l
p586
I1
sVdnoaab2
p587
I1
sVddzrn0i
p588
I2
sVdkjec4e
p589
I2
sVd2ob70h
p590
I1
sVczvkbuj
p591
I2
sVd7n2q6b
p592
I1
sVdqfke7s
p593
I1
sVdocui0w
p594
I1
sVdiph8th
p595
I1
sVdqb0t4x
p596
I1
sVcznwyv9
p597
I1
sVd6ruamt
p598
I1
sVddwhhdt
p599
I1
sVdb4am5p
p600
I1
sVdg8zv5m
p601
I1
sVddzw4si
p602
I1
sVcyjh8xj
p603
I1
sVdgkpl2f
p604
I1
sVcyzvca5
p605
I1
sVd9vouqz
p606
I1
sVd3hxhop
p607
I1
sVdfv5tgz
p608
I1
sVd4ysnp5
p609
I2
sVd8jpu58
p610
I1
sVdh6dxwf
p611
I1
sVdequi77
p612
I1
sVd8rjxhv
p613
I2
sVd1waxq5
p614
I1
sVdbwee6y
p615
I1
sVd1g7ozo
p616
I1
sVdqtlkxf
p617
I1
sVd2dsns5
p618
I2
sVdc6f1bd
p619
I1
sVd5ntuzy
p620
I1
sVdggrn80
p621
I1
sVdeq2zqm
p622
I1
sVdisfh8e
p623
I1
sVdel3pm0
p624
I2
sVdna5yyv
p625
I1
sVdpqljz4
p626
I1
sVd379ym7
p627
I1
sVd5djx3w
p628
I1
sVd1cuvwz
p629
I1
sVdcc3513
p630
I1
sVdfwm4vl
p631
I1
sVdb10731
p632
I1
sVd8oge2t
p633
I1
sVdnlgtvc
p634
I1
sVd060olf
p635
I1
sVd2pvhav
p636
I1
sVdc8en7j
p637
I1
sVd89oqie
p638
I1
sVd1av886
p639
I1
sVde9cjpj
p640
I1
sVdb919ki
p641
I1
sVd2jb3fe
p642
I1
sVdab79zf
p643
I1
sVd3gn78n
p644
I5
sVczcp0u9
p645
I1
sVdi4g2jj
p646
I1
sVd10ul2k
p647
I1
sVdh4rbb7
p648
I1
sVdnufzu0
p649
I1
sVdqn7f0n
p650
I1
sVdoztvhh
p651
I1
sVd4e4edh
p652
I1
sVdqc2vcb
p653
I1
sVd04ned4
p654
I1
sVdhvzhds
p655
I1
sVdkgrdp5
p656
I4
sVdbftqc5
p657
I1
sVdest7ok
p658
I1
sVd2qzzgf
p659
I1
sVdhyrmcd
p660
I1
sVddg3uq6
p661
I2
sVdd2iuab
p662
I1
sVdh5rlvy
p663
I1
sVd8ez5ld
p664
I1
sVdf3vzfj
p665
I1
sVdkng9k2
p666
I1
sVd8nchys
p667
I1
sVdc38hx9
p668
I1
sVd3eglak
p669
I1
sVdghs3px
p670
I1
sVcz954xc
p671
I1
sVds497bz
p672
I1
sVdo0eqg6
p673
I1
sVd4jxk4g
p674
I1
sVd8gxseh
p675
I1
sVd3ci6yg
p676
I1
sVd120k6d
p677
I1
sVd0c77og
p678
I1
sVdi211a6
p679
I2
sVd66p803
p680
I1
sVd25abz2
p681
I1
sVdrit8o1
p682
I1
sVdd12p0d
p683
I1
sVd64rs0y
p684
I1
sVdjv3kfy
p685
I1
sVdepncf7
p686
I1
sVdteopqp
p687
I2
sVddc4fxs
p688
I1
sVd6ahiyx
p689
I2
sVdb0ai58
p690
I1
sVdrbwuwj
p691
I1
sVdesetda
p692
I1
sVdeyg3pe
p693
I1
sVdpu1iby
p694
I1
sVdklxr00
p695
I1
sVd8gl7am
p696
I2
sVczomelq
p697
I1
sVdkvjmo5
p698
I4
sVdbg5sg2
p699
I1
sVdkj932x
p700
I1
sVcz7cq3u
p701
I2
sVd070dlr
p702
I1
sVdhqkd26
p703
I2
sVdbe786d
p704
I2
sVd2d3rf1
p705
I1
sVdfqfhxi
p706
I1
sVdt6scwr
p707
I1
sVdh5iqek
p708
I1
sVdcqf9fh
p709
I1
sVd76n64v
p710
I1
sVda8kwjk
p711
I1
sVddpzd01
p712
I1
sVdbh14s1
p713
I1
sVdflv5z4
p714
I1
sVdfhjw91
p715
I1
sVdb7cd95
p716
I1
sVdipjn9l
p717
I2
sVdfovowg
p718
I1
sVdd3s1e1
p719
I1
sVd45bksm
p720
I1
sVd7lre5m
p721
I2
sVcz90tgi
p722
I1
sVdbl489h
p723
I3
sVdi1ouxo
p724
I1
sVdp29oeu
p725
I2
sVd3du13r
p726
I1
sVd0org9v
p727
I3
sVd80glp0
p728
I1
sVd2x78yd
p729
I1
sVdt50idi
p730
I1
sVdh26h3p
p731
I1
sVd2l0j9p
p732
I1
sVdq7ovdl
p733
I1
sVdfnr2j0
p734
I1
sVdtirbmd
p735
I1
sVddgl8vx
p736
I2
sVdb5gaiw
p737
I1
sVdg10yov
p738
I1
sVdehv0rv
p739
I1
sVcyt7j3c
p740
I1
sVdhwbnb7
p741
I1
sVczffpj5
p742
I2
sVdjklbbp
p743
I1
sVddo1go2
p744
I1
sVd9acg6a
p745
I1
sVd09ouri
p746
I1
sVdgro65n
p747
I2
sVd825yb9
p748
I1
sVdpymevg
p749
I1
sVdnyiyf3
p750
I1
sVd7vch00
p751
I1
sVdmuc10k
p752
I1
sVdedqd6z
p753
I1
sVdks60qh
p754
I1
sVd2i4rpi
p755
I1
sVdj0pr76
p756
I1
sVdpuzmdc
p757
I2
sVd4xnvrm
p758
I1
sVd40z4ki
p759
I1
sVdmm5ly2
p760
I1
sVdg19y8q
p761
I2
sVd21677j
p762
I1
sVddd6dqj
p763
I1
sVdk3n9k1
p764
I1
sVd67u5b9
p765
I1
sVd0ugvxq
p766
I3
sVdgsh0g4
p767
I1
sVdbfxgty
p768
I1
sVd2zykgi
p769
I1
sVdp1nfax
p770
I1
sVdr8f2wa
p771
I1
sVd586kzs
p772
I1
sVdmimnds
p773
I1
sVcyksgks
p774
I1
sVd1453xm
p775
I1
sVddhivuq
p776
I1
sVdepl74y
p777
I2
sVd2uvbhc
p778
I1
sVda5g745
p779
I1
sVdfbbwe3
p780
I1
sVd3efov2
p781
I1
sVdcz1w9p
p782
I1
sVda6n14q
p783
I1
sVd6t7ho3
p784
I1
sVd03j3dg
p785
I1
sVdq1oriy
p786
I1
sVd5e775u
p787
I1
sVd0a9bjg
p788
I1
sVdbmessy
p789
I1
sVd0q3r8h
p790
I1
sVd6fkfx6
p791
I1
sVd1vgkie
p792
I1
sVd8s1fdf
p793
I1
sVdhl6iuc
p794
I1
sVdig1ftw
p795
I1
sVdat3cll
p796
I2
sVdbgfm4b
p797
I1
sVd3v71zp
p798
I1
sVcyqvjdr
p799
I3
sVdem1aww
p800
I1
sVd9a1kso
p801
I1
sVd4l17mp
p802
I2
sVdg138u8
p803
I1
sVdcsbu57
p804
I2
sVcyveqr6
p805
I1
sVdfwu8dm
p806
I1
sVdh7xpmy
p807
I1
sVdixlwcm
p808
I1
sVd3njdh8
p809
I2
sVd9hmj7c
p810
I1
sVd69bchq
p811
I2
sVd5b1bld
p812
I1
sVdjo6ak2
p813
I1
sVd2dqych
p814
I1
sVdeaznoc
p815
I1
sVdnpy8bz
p816
I1
sVdmh1j98
p817
I1
sVdj4wjl4
p818
I1
sVd90c4dy
p819
I1
sVdi2rdix
p820
I1
sVdq4m9fe
p821
I1
sVd3657k2
p822
I1
sVd1b4qhb
p823
I1
sVdi16c5h
p824
I1
sVd4mpik3
p825
I1
sVdmsgppx
p826
I1
sVddbyfep
p827
I1
sVdej0ges
p828
I1
sVczc8pzz
p829
I1
sVcz9iqiy
p830
I1
sVdkcamih
p831
I1
sVd1akb6t
p832
I1
sVczm6naq
p833
I3
sVd1a3ap3
p834
I2
sVdb1ga35
p835
I1
sVdqzoboc
p836
I1
sVdbj145i
p837
I1
sVd1438b6
p838
I1
sVd13q0c1
p839
I3
sVd5rtcxw
p840
I1
sVczb0wx7
p841
I1
sVd25bhk4
p842
I1
sVcz2ffkq
p843
I1
sVddeeu1i
p844
I1
sVdfwq9ir
p845
I1
sVczvorbu
p846
I1
sVd8f2cbx
p847
I1
sVd7nj58q
p848
I1
sVdkitaos
p849
I1
sVd8gvtgz
p850
I2
sVdt068bh
p851
I1
sVdhlulj0
p852
I3
sVd6gb9lr
p853
I1
sVd8wd6d6
p854
I1
sVda6zf2i
p855
I1
sVdbwbwg8
p856
I1
sVddt5t1o
p857
I1
sVd34gutg
p858
I1
sVd48b043
p859
I2
sVd04el5t
p860
I1
sVdfl0aqc
p861
I1
sVd3gj0sx
p862
I1
sVdexrdrk
p863
I1
sVdh9ohar
p864
I1
sVd90ly92
p865
I1
sVd1j7h2j
p866
I2
sVdn82kr0
p867
I1
sVd4lg88h
p868
I1
sVd55652s
p869
I1
sVd15b4ad
p870
I1
sVd7nxz9t
p871
I2
sVde12aod
p872
I1
sVdq4mabl
p873
I1
sVdcb84me
p874
I1
sVd4xzil4
p875
I2
sVdb3tglk
p876
I1
sVdcghxhb
p877
I1
sVd623kqk
p878
I1
sVde8tx9v
p879
I1
sVd716z8d
p880
I1
sVd73hguh
p881
I1
sVdqllg3s
p882
I1
sVddzi73u
p883
I2
sVde1copk
p884
I1
sVd02hi5v
p885
I1
sVdb5pxu7
p886
I1
sVdi0s6ez
p887
I1
sVdjoej8u
p888
I1
sVcz1fzqg
p889
I1
sVd00xzfm
p890
I1
sVd30dy6b
p891
I1
sVd4ql6nk
p892
I1
sVdbqadgi
p893
I3
sVdququai
p894
I1
sVd6z8ot0
p895
I1
sVd038obh
p896
I1
sVdgnt97o
p897
I1
sVdq7q6ht
p898
I2
sVdohl6id
p899
I1
sVdt9k202
p900
I1
sVdhu89fg
p901
I1
sVd8s0gp4
p902
I1
sVd8vp861
p903
I1
sVdgomlp5
p904
I2
sVd3pnj50
p905
I1
sVd20a05s
p906
I1
sVdj3w1nb
p907
I1
sVdi9at7n
p908
I1
sVdrxeqv2
p909
I1
sVd08amjr
p910
I1
sVdfnmion
p911
I1
sVdkpjofb
p912
I1
sVdjxkone
p913
I1
sVd00x5jn
p914
I1
sVdrgd6gs
p915
I1
sVdduhkb7
p916
I1
sVdql4n57
p917
I1
sVd1zaurw
p918
I1
sVd2i5in6
p919
I2
sVd9raz5w
p920
I1
sVdh87mz3
p921
I1
sVd0u8oqv
p922
I1
sVd4njiwi
p923
I1
sVdmh4nua
p924
I1
sVdb7ywyx
p925
I2
sVdd6nrrg
p926
I1
sVdkyg0lh
p927
I1
sVd05at1o
p928
I2
sVdh8fy7q
p929
I1
sVdehsli9
p930
I1
sVd5xvh2t
p931
I1
sVdb03dxb
p932
I1
sVdoys6ir
p933
I1
sVdg3a95w
p934
I1
sVcyk2e7m
p935
I1
sVdqqwqk2
p936
I1
sVd19ov3k
p937
I1
sVdczwjfy
p938
I1
sVd2e9ls5
p939
I1
sVdegaksf
p940
I2
sVdcqa3ha
p941
I1
sVd31kccl
p942
I1
sVd0r59e5
p943
I1
sVdnhhk3h
p944
I2
sVddodnni
p945
I2
sVd99yu2t
p946
I1
sVdgoq266
p947
I1
sVd4gozja
p948
I1
sVdegms9i
p949
I1
sVddos86c
p950
I1
sVdaj9c5o
p951
I1
sVd7l20td
p952
I1
sVdbk5l04
p953
I1
sVdpmyqrg
p954
I1
sVd1897we
p955
I1
sVde85b7y
p956
I1
sVcyngdit
p957
I1
sVdj13xi1
p958
I1
sVd4vszrz
p959
I1
sVd5prcu7
p960
I4
sVd706llk
p961
I1
sVd0w470c
p962
I1
sVddca2gr
p963
I1
sVdteqq21
p964
I2
sVdeddh8l
p965
I4
sVdojc1h2
p966
I5
sVdba0ai5
p967
I1
sVdk35gvz
p968
I1
sVd8469qa
p969
I1
sVda0pkzj
p970
I1
sVd792us2
p971
I2
sVdn6oshp
p972
I1
sVd080d59
p973
I1
sVd7gleeu
p974
I1
sVdqmlc1l
p975
I1
sVd90v3by
p976
I1
sVdih8x29
p977
I1
sVdbpcemo
p978
I1
sVd3dr7wv
p979
I1
sVd6z9n2m
p980
I1
sVd1wlwcs
p981
I1
sVdfr0fcg
p982
I1
sVdeucms9
p983
I2
sVcz7xlwl
p984
I3
sVdetwh5s
p985
I3
sVczeipiq
p986
I1
sVdj9zwdl
p987
I1
sVdeo10wz
p988
I1
sVdi821bj
p989
I1
sVczvc31f
p990
I1
sVdnc7d2w
p991
I1
sVdbt9mlt
p992
I1
sVdcgk2ys
p993
I1
sVdjm9njy
p994
I1
sVdkklr40
p995
I1
sVdnlfxkk
p996
I1
sVdcf8466
p997
I1
sVdipestm
p998
I2
sVd41ewxl
p999
I1
sVd9v367x
p1000
I1
sVdsb5g4u
p1001
I1
sVdpuhdz6
p1002
I1
sVdb45zoh
p1003
I1
sVd7mhqlz
p1004
I1
sVdcb294y
p1005
I2
sVdhljbu3
p1006
I2
sVd3a7o6s
p1007
I1
sVcz7307j
p1008
I1
sVd0da1kb
p1009
I2
sVdqo51kg
p1010
I2
sVdhcu01m
p1011
I2
sVdobkaur
p1012
I1
sVdpr5dsi
p1013
I1
sVd2abyb2
p1014
I1
sVdisa5tm
p1015
I1
sVd00s5u6
p1016
I1
sVdi2g461
p1017
I2
sVdj83j55
p1018
I1
sVd3u487u
p1019
I4
sVdq04ejf
p1020
I1
sVdbc941r
p1021
I1
sVdf1ybd9
p1022
I1
sVdgdjweu
p1023
I1
sVd2my2ee
p1024
I1
sVd4uf7aj
p1025
I1
sVd0yk2yx
p1026
I1
sVdrk9eet
p1027
I1
sVd88ludf
p1028
I1
sVd7uyz7g
p1029
I1
sVd72w59h
p1030
I1
sVdcfhnoc
p1031
I1
sVdrtscs3
p1032
I1
sVdcwn2w3
p1033
I1
sVd0qz1bg
p1034
I1
sVd79sbe8
p1035
I1
sVd5wwvky
p1036
I1
sVd5avcir
p1037
I1
sVdax680h
p1038
I1
sVdf9u25j
p1039
I1
sVdtejr26
p1040
I1
sVdseziwx
p1041
I2
sVdr5f3xz
p1042
I1
sVd4q4t7o
p1043
I1
sVddy5t6j
p1044
I1
sVd4mrfq6
p1045
I1
sVde95bvh
p1046
I1
sVd7uu7cx
p1047
I1
sVd1nh95w
p1048
I1
sVdj5fg1d
p1049
I1
sVdb5c45a
p1050
I1
sVd3tpntj
p1051
I1
sVdicio23
p1052
I1
sVd3l843n
p1053
I1
sVd13olfr
p1054
I1
sVdiotosv
p1055
I2
sVdhpl1j0
p1056
I1
sVdf36p0z
p1057
I1
sVdik12x9
p1058
I1
sVd1k5xmo
p1059
I1
sVd0knrgh
p1060
I1
sVdoweui0
p1061
I2
sVdn3l9ko
p1062
I4
sVd1ppbek
p1063
I1
sVdp963r2
p1064
I1
sVddd8sxd
p1065
I2
sVdb64wdr
p1066
I2
sVdslmfk9
p1067
I1
sVdag437s
p1068
I1
sVd0d8sdi
p1069
I1
sVddhjqos
p1070
I1
sVd50g0b8
p1071
I1
sVdojg292
p1072
I1
sVd81xjxa
p1073
I2
sVdnec3bo
p1074
I1
sVdh0bkyv
p1075
I2
sVdrz07pu
p1076
I1
sVd1xeidr
p1077
I1
sVd4su7pu
p1078
I1
sVd82guuz
p1079
I1
sVd18c761
p1080
I1
sVd55428n
p1081
I2
sVdehq72d
p1082
I1
sVd0br839
p1083
I1
sVddj35od
p1084
I1
sVdgzgqi5
p1085
I1
sVdsxmvzz
p1086
I3
sVczvlycd
p1087
I1
sVdgdqi2n
p1088
I1
sVddbu7ki
p1089
I1
sVdhx9va4
p1090
I1
sVd4lqivm
p1091
I1
sVd0zpgy3
p1092
I1
sVd496vui
p1093
I1
sVdqn60ea
p1094
I1
sVd7tp9a9
p1095
I1
sVdd4nqb1
p1096
I2
sVd1rf6ct
p1097
I2
sVdbnno7b
p1098
I1
sVdclwq74
p1099
I1
sVdcpoak1
p1100
I1
sVcz8al5o
p1101
I2
sVdj3t2ew
p1102
I1
sVd2brb1n
p1103
I2
sVczh8r91
p1104
I1
sVd2a3cfd
p1105
I1
sVdrew5tb
p1106
I1
sVdiur6oa
p1107
I2
sVdetmj1u
p1108
I2
sVd6fccpu
p1109
I1
sVdfka59z
p1110
I1
sVds02iw4
p1111
I1
sVdmgh33o
p1112
I1
sVcz079bh
p1113
I1
sVdrvbr3n
p1114
I1
sVdcdh6zq
p1115
I1
sVdffvt2v
p1116
I1
sVcyzakfq
p1117
I2
sVd60twxj
p1118
I2
sVcyhyih4
p1119
I1
sVd8wzg8k
p1120
I1
sVd4cbzfo
p1121
I1
sVdfxbx6k
p1122
I1
sVdjpxf4v
p1123
I2
sVdqdwjdb
p1124
I1
sVdbgtw4w
p1125
I1
sVd7rw064
p1126
I1
sVdguyd7b
p1127
I1
sVdkl1wis
p1128
I2
sVcz75x49
p1129
I1
sVd518a7h
p1130
I1
sVdd4jkc0
p1131
I3
sVd20g2n5
p1132
I1
sVdd5x7q5
p1133
I1
sVcyzh5ga
p1134
I1
sVdmfvbox
p1135
I1
sVd5561sg
p1136
I1
sVdhh1qq8
p1137
I1
sVdqdamol
p1138
I2
sVdj6wlto
p1139
I1
sVdijefp8
p1140
I1
sVdmrmjd5
p1141
I1
sVdofxosc
p1142
I1
sVd7116nu
p1143
I1
sVdh8dsu8
p1144
I1
sVd9q6diz
p1145
I1
sVdmoa1jn
p1146
I1
sVdsg7cwp
p1147
I1
sVdo4mgw8
p1148
I2
sVcz2b4x7
p1149
I1
sVdb94buw
p1150
I1
sVdgt1yes
p1151
I1
sVd37p938
p1152
I1
sVcyr0w91
p1153
I1
sVdexpg5f
p1154
I1
sVd7p4c23
p1155
I2
sVda5njxh
p1156
I1
sVdgn9hga
p1157
I1
sVdd8ypyg
p1158
I1
sVd5ybft6
p1159
I1
sVd3um9uw
p1160
I1
sVdbqnc8i
p1161
I1
sVd73lbaq
p1162
I1
sVd71k9kl
p1163
I4
sVd9w7s7p
p1164
I1
sVdbhbtuh
p1165
I1
sVdfk9zzs
p1166
I1
sVdg4edp8
p1167
I1
sVdkw8hqj
p1168
I4
sVd87iize
p1169
I1
sVd61fd1m
p1170
I1
sVdhzral8
p1171
I1
sVdi0mzl2
p1172
I1
sVdd55j6i
p1173
I1
sVdcez1ei
p1174
I1
sVdaaykwo
p1175
I2
sVdrzyawd
p1176
I1
sVd1rrst6
p1177
I1
sVda296uq
p1178
I1
sVd36qlwq
p1179
I1
sVdnkv3r1
p1180
I1
sVdo7w9na
p1181
I4
sVddby5k1
p1182
I3
sVd0x39jq
p1183
I1
sVd1kw990
p1184
I1
sVd0zjtrc
p1185
I1
sVd4kv5su
p1186
I1
sVd198u8c
p1187
I1
sVdbnsaol
p1188
I1
sVd0j4omz
p1189
I1
sVdeq3qaq
p1190
I1
sVdg9e7gq
p1191
I1
sVddwlq06
p1192
I1
sVdafoq2i
p1193
I1
sVd2a933z
p1194
I1
sVdnsz382
p1195
I1
sVd1zu3if
p1196
I7
sVdq713lv
p1197
I1
sVd6ri6cq
p1198
I1
sVd00rzvl
p1199
I1
sVdawpw8k
p1200
I1
sVd214l2z
p1201
I1
sVddt52s4
p1202
I1
sVddwkrf1
p1203
I1
sVdg6xavq
p1204
I1
sVd2bfmvo
p1205
I1
sVdesho8g
p1206
I1
sVd7nnoh5
p1207
I1
sVdnu364n
p1208
I1
sVdhip1r4
p1209
I1
sVd00yend
p1210
I1
sVdnapaul
p1211
I1
sVddijgvh
p1212
I1
sVdhcygea
p1213
I1
sVd6kpmsu
p1214
I1
sVdmfj7u0
p1215
I1
sVcz2ferz
p1216
I1
sVdn2hzef
p1217
I1
sVdcsvzmg
p1218
I1
sVd8gb026
p1219
I1
sVdfwlonp
p1220
I2
sVczc6cw7
p1221
I1
sVdhd70ck
p1222
I1
sVdj2xbcd
p1223
I1
sVdbr87u1
p1224
I1
sVdcljewx
p1225
I1
sVdam1jq2
p1226
I1
sVd5otshv
p1227
I1
sVdi0lz5r
p1228
I1
sVd9nb1gd
p1229
I2
sVd5jg95x
p1230
I1
sVd2lycks
p1231
I1
sVdbb0p9a
p1232
I2
sVdalm28o
p1233
I2
sVd3ghng9
p1234
I1
sVd0zoiej
p1235
I1
sVcz383e9
p1236
I2
sVdbit5d3
p1237
I1
sVdftkbqc
p1238
I1
sVd26jaif
p1239
I1
sVdjgri2v
p1240
I1
sVd6m702x
p1241
I1
sVdfq6e29
p1242
I1
sVdgwrnuw
p1243
I1
sVd3l0dvk
p1244
I1
sVdcy15k2
p1245
I1
sVd8t4md9
p1246
I1
sVdelpmkv
p1247
I1
sVd9i76je
p1248
I2
sVdjkg9us
p1249
I3
sVd0pd2ze
p1250
I1
sVdgs921r
p1251
I1
sVdkx2lzf
p1252
I1
sVd0rd97c
p1253
I1
sVd463lg6
p1254
I1
sVcyqnqha
p1255
I1
sVd5rlxvj
p1256
I1
sVd5vzea2
p1257
I1
sVdfjeulf
p1258
I1
sVdjtfkrf
p1259
I2
sVdj4kyn9
p1260
I1
sVczxb54c
p1261
I1
sVdr9m2oy
p1262
I1
sVdi2yqhd
p1263
I2
sVd77aok2
p1264
I1
sVdd4s1me
p1265
I1
sVd053ur6
p1266
I1
sVdbs8313
p1267
I1
sVda31bpc
p1268
I1
sVd4km8d1
p1269
I1
sVda1v05u
p1270
I1
sVdjkikbn
p1271
I1
sVcz4dthr
p1272
I1
sVd04dlvl
p1273
I1
sVderd37w
p1274
I1
sVder9tfx
p1275
I1
sVde2tq48
p1276
I1
sVczcl91v
p1277
I1
sVcyjkn1f
p1278
I1
sVdkityn1
p1279
I1
sVd40goi1
p1280
I1
sVd4czp3h
p1281
I1
sVd208x2b
p1282
I1
sVdjzdlgh
p1283
I1
sVd36hn1i
p1284
I1
sVd5dtq2v
p1285
I1
sVdaitsvf
p1286
I1
sVdrce9ra
p1287
I1
sVd3dc9oi
p1288
I1
sVdjyefq5
p1289
I1
sVd78hxgd
p1290
I1
sVd80h81z
p1291
I1
sVdbcuvvb
p1292
I1
sVdd72dpb
p1293
I1
sVd9txzjy
p1294
I1
sVdfh2k28
p1295
I2
sVd830an4
p1296
I1
sVdam8qc6
p1297
I1
sVd07naf5
p1298
I1
sVdctcjx0
p1299
I1
sVdi8jaku
p1300
I1
sVd4l0ara
p1301
I1
sVdamp0lg
p1302
I1
sVd50pjf4
p1303
I1
sVdilyxmo
p1304
I1
sVddwetr9
p1305
I3
sVdf4tg3d
p1306
I1
sVdaypeeu
p1307
I1
sVd3kdm9z
p1308
I1
sVd3oe8ia
p1309
I1
sVdb1ywu5
p1310
I1
sVd0t6ndg
p1311
I1
sVdqstqfa
p1312
I2
sVdobk6nb
p1313
I1
sVd7zqmc1
p1314
I1
sVdcau6i9
p1315
I1
sVdd1q57j
p1316
I3
sVcyytafp
p1317
I1
sVd1us57x
p1318
I1
sVde1uxst
p1319
I1
sVdbgrubm
p1320
I1
sVd1kuet4
p1321
I1
sVda5y5ed
p1322
I1
sVdi33270
p1323
I1
sVdhcstu2
p1324
I1
sVdbrnb86
p1325
I1
sVd0q3i7w
p1326
I1
sVdhevl61
p1327
I3
sVd7mj4f7
p1328
I1
sVd3cei71
p1329
I1
sVd046xww
p1330
I1
sVde9lmym
p1331
I1
sVd0xzrzc
p1332
I1
sVd1g9vsx
p1333
I1
sVdpw7h2m
p1334
I1
sVdil97wm
p1335
I1
sVdp3xgh4
p1336
I1
sVd0tn5jn
p1337
I1
sVd8gm5yd
p1338
I1
sVdcdnc83
p1339
I2
sVddeqisb
p1340
I2
sVd9by86s
p1341
I1
sVdmtjin4
p1342
I1
sVd4m0729
p1343
I1
sVdnvmzhq
p1344
I1
sVczrc7rx
p1345
I4
sVdhwtsxf
p1346
I1
sVdbpmam1
p1347
I1
sVdbsfdr1
p1348
I1
sVdpz94yn
p1349
I1
sVdo4zv75
p1350
I2
sVd37lepj
p1351
I3
sVd0tglmk
p1352
I2
sVd66tesc
p1353
I1
sVdkrul8v
p1354
I1
sVd0dg87a
p1355
I1
sVd2g8pjw
p1356
I1
sVd8rnnjk
p1357
I1
sVd13pe2n
p1358
I1
sVdhjm21x
p1359
I1
sVd07dpfb
p1360
I1
sVd3tn9el
p1361
I1
sVdg086r3
p1362
I1
sVd28h8cj
p1363
I1
sVdscs47j
p1364
I2
sVczkvqp8
p1365
I1
sVdri3ksq
p1366
I1
sVd6l5dnr
p1367
I1
sVds0kkin
p1368
I1
sVdgfk19m
p1369
I1
sVdid4fnm
p1370
I1
sVdem6mkh
p1371
I1
sVdajarip
p1372
I1
sVd3dpr29
p1373
I1
sVdc3vpih
p1374
I1
sVd1n24vn
p1375
I1
sVdj2z1za
p1376
I1
sVd4c0u3p
p1377
I1
sVdd6p6kw
p1378
I1
sVdf38nti
p1379
I1
sVdnnsiln
p1380
I1
sVczkz3so
p1381
I1
sVd3e7b2a
p1382
I1
sVdms4m88
p1383
I3
sVdr7icxt
p1384
I2
sVd0rrtun
p1385
I2
sVd7ij7mi
p1386
I1
sVd2z8963
p1387
I1
sVd6bb9zt
p1388
I1
sVd1k7477
p1389
I1
sVd75g49d
p1390
I2
sVdb01dg4
p1391
I1
sVdg9cwaw
p1392
I3
sVdatpq6d
p1393
I1
sVdc1no6i
p1394
I1
sVd4mc2zo
p1395
I1
sVd58256x
p1396
I1
sVcz7xxx5
p1397
I1
sVdog99nl
p1398
I1
sVdcsexun
p1399
I1
sVdf6tcwi
p1400
I1
sVd1w0z7u
p1401
I1
sVdmfsf6p
p1402
I1
sVd9uofgc
p1403
I1
sVd7jea1f
p1404
I1
sVd5vufov
p1405
I6
sVdmp6cxu
p1406
I1
sVdeli7g8
p1407
I1
sVd6j2bot
p1408
I1
sVd9dasax
p1409
I1
sVczkmo27
p1410
I1
sVd99fb2v
p1411
I1
sVd1r49pu
p1412
I1
sVdes1wpp
p1413
I1
sVdpraoq0
p1414
I1
sVdhqct4v
p1415
I1
sVdp32pxx
p1416
I2
sVd1jupml
p1417
I1
sVdtazldr
p1418
I1
sVd5j27sk
p1419
I1
sVde5pab9
p1420
I1
sVdcxfqcv
p1421
I1
sVd8a87st
p1422
I1
sVdd0pw0k
p1423
I1
sVd5284xz
p1424
I1
sVdb112lh
p1425
I1
sVdetgl07
p1426
I1
sVd2wrrv1
p1427
I1
sVdfx1v7p
p1428
I2
sVd9c1iym
p1429
I1
sVdkn4838
p1430
I1
sVd580oum
p1431
I1
sVdg35eis
p1432
I1
sVd8vcoze
p1433
I1
sVd8cf4a3
p1434
I1
sVd9kko9d
p1435
I1
sVdc5364s
p1436
I1
sVd7u9i1e
p1437
I2
sVdpfkkm9
p1438
I1
sVczbr3is
p1439
I1
sVdmrmziy
p1440
I1
sVdg6szsp
p1441
I1
sVdi09moa
p1442
I1
sVddnc7da
p1443
I1
sVdg9rnz9
p1444
I1
sVdruojkx
p1445
I3
sVcyzxvzv
p1446
I1
sVdj05faf
p1447
I1
sVdfyyrbq
p1448
I1
sVdt9tijj
p1449
I1
sVczatmpn
p1450
I1
sVdekwv0u
p1451
I1
sVd6n1bcj
p1452
I2
sVdd7if0m
p1453
I2
sVdan7vyk
p1454
I1
sVd23y9ej
p1455
I1
sVdstm3xn
p1456
I1
sVd7uj2js
p1457
I1
sVds51mfg
p1458
I1
sVdio1x6r
p1459
I1
sVdcz2ahc
p1460
I1
sVdnn96nf
p1461
I1
sVczp49hh
p1462
I1
sVd9rfxf6
p1463
I1
sVdeabioj
p1464
I1
sVdi9gq94
p1465
I1
sVdgjhy6h
p1466
I1
sVdnpqws0
p1467
I1
sVd17ayqg
p1468
I1
sVd8yem0c
p1469
I1
sVd9o957p
p1470
I1
sVd7w98hh
p1471
I1
sVdfua6i8
p1472
I1
sVdeezsmk
p1473
I1
sVdg35bk5
p1474
I1
sVd0zq8mu
p1475
I1
sVdj5vqcw
p1476
I2
sVd5cv9hf
p1477
I1
sVdgtwo4g
p1478
I1
sVd7rfjif
p1479
I1
sVdsw0ox5
p1480
I1
sVds1dk0l
p1481
I1
sVdt4qq42
p1482
I1
sVdg7pc5f
p1483
I1
sVd74726n
p1484
I2
sVded92gk
p1485
I1
sVdikw45e
p1486
I1
sVdamqrjl
p1487
I1
sVd4w97kx
p1488
I1
sVda49fps
p1489
I1
sVd9j9z9x
p1490
I1
sVdpuvxq9
p1491
I2
sVd0puvcy
p1492
I3
sVdh6qdyr
p1493
I2
sVdb0hi8j
p1494
I1
sVd2kmeyl
p1495
I2
sVddgybyy
p1496
I2
sVda5mma2
p1497
I1
sVddfbdlt
p1498
I1
sVdqkgewa
p1499
I1
sVd659fif
p1500
I1
sVdru9amt
p1501
I1
sVdepjp3s
p1502
I1
sVd38xcca
p1503
I1
sVdn2fu11
p1504
I1
sVd8a1xzs
p1505
I1
sVd4kydnj
p1506
I2
sVd7ukoaw
p1507
I1
sVd2m321m
p1508
I1
sVdh27ip8
p1509
I2
sVczqjnbq
p1510
I1
sVd2h2ka6
p1511
I1
sVd7nyzdz
p1512
I1
sVcz5hpk2
p1513
I1
sVdodm1o2
p1514
I1
sVd31dr72
p1515
I1
sVdg0mo4r
p1516
I1
sVd1bgivb
p1517
I1
sVd6nf8wg
p1518
I1
sVdt5w8hy
p1519
I2
sVdt2lvpb
p1520
I1
sVdc4gpcr
p1521
I2
sVd076lmt
p1522
I1
sVd4h4c51
p1523
I1
sVdk8ebm7
p1524
I2
sVdfr8ddm
p1525
I2
sVd0e7y3x
p1526
I1
sVd5g6343
p1527
I2
sVd1lhqh3
p1528
I1
sVdrileyj
p1529
I1
sVdpwk34o
p1530
I1
sVdpk82rb
p1531
I1
sVd09h1nb
p1532
I1
sVdeq3ylv
p1533
I1
sVd0jl1r3
p1534
I2
sVdduh386
p1535
I1
sVdflbdti
p1536
I1
sVd97pojv
p1537
I1
sVdpjte2z
p1538
I1
sVdamw3rl
p1539
I1
sVdec086q
p1540
I1
sVdgg4s8s
p1541
I1
sVdgnvfjm
p1542
I1
sVdi2angf
p1543
I1
sVczs4gjn
p1544
I2
sVd197qkm
p1545
I2
sVd8l1tiq
p1546
I1
sVd174u2e
p1547
I1
sVdb3crdr
p1548
I1
sVd5i9mxc
p1549
I1
sVdduoxaz
p1550
I1
sVd4aioo4
p1551
I1
sVddjavsy
p1552
I1
sVdok5od0
p1553
I1
sVdkwgdoa
p1554
I1
sVddqfn54
p1555
I1
sVdetex2z
p1556
I1
sVd29j8cz
p1557
I1
sVdafeqem
p1558
I2
sVdi76hw9
p1559
I1
sVdhefn0f
p1560
I1
sVdik9kww
p1561
I1
sVdj5f3hz
p1562
I2
sVdkj7gh1
p1563
I2
sVd7qqhxy
p1564
I3
sVdbnsxtp
p1565
I1
sVdfdzt1t
p1566
I1
sVd80rlu0
p1567
I2
sVdfak2z2
p1568
I2
sVdqgzzua
p1569
I1
sVczl3jyn
p1570
I1
sVcznv8rg
p1571
I1
sVd26ausf
p1572
I1
sVdjg35sp
p1573
I1
sVdeah0i2
p1574
I1
sVd3ezn4i
p1575
I2
sVczo6utv
p1576
I1
sVd4cv3hd
p1577
I1
sVd5cjwfv
p1578
I1
sVdc68q7l
p1579
I1
sVczongic
p1580
I1
sVdf7bedk
p1581
I1
sVdgtiulw
p1582
I1
sVdpqqszh
p1583
I1
sVdk3bvvy
p1584
I1
sVdhtjl61
p1585
I1
sVdsbsrge
p1586
I1
sVd9ics07
p1587
I1
sVd5eun95
p1588
I1
sVdf9opx2
p1589
I1
sVde6xnbo
p1590
I1
sVcyxw3re
p1591
I1
sVdckme9i
p1592
I1
sVdaq4ru7
p1593
I1
sVd9uf4lm
p1594
I1
sVdjzcard
p1595
I1
sVdhqnehg
p1596
I1
sVd4yq0zd
p1597
I1
sVcytf214
p1598
I2
sVdmq0h9l
p1599
I2
sVdo4xk8h
p1600
I1
sVcywpdrm
p1601
I1
sVdkj8c9d
p1602
I1
sVdbti5g8
p1603
I1
sVcyug6dt
p1604
I2
sVdo4qdfv
p1605
I1
sVd73mutw
p1606
I1
sVd4rmo80
p1607
I1
sVdhm28h0
p1608
I1
sVdnxw9ip
p1609
I1
sVd3d0995
p1610
I1
sVdd0rnuv
p1611
I1
sVdi7lvx3
p1612
I1
sVddnu3kk
p1613
I2
sVd13ixa3
p1614
I1
sVdh611bj
p1615
I1
sVd1wgm7g
p1616
I1
sVdhhkyo9
p1617
I1
sVdbkg64j
p1618
I1
sVdkouf1u
p1619
I1
sVd4y2tt5
p1620
I1
sVd906e50
p1621
I1
sVd9cs2cu
p1622
I4
sVdcmfrhn
p1623
I1
sVdqjy4dh
p1624
I1
sVd3t0826
p1625
I1
sVdoaq0v9
p1626
I1
sVdruar6f
p1627
I2
sVd2qqpot
p1628
I1
sVd55pwai
p1629
I1
sVd0klr2s
p1630
I2
sVcztie0l
p1631
I1
sVdqpkt3i
p1632
I1
sVddgrfef
p1633
I1
sVdjwqsbb
p1634
I1
sVd3lhtdv
p1635
I1
sVdcvub5k
p1636
I1
sVd6tiw1p
p1637
I1
sVdg3po6s
p1638
I1
sVd0yk3cm
p1639
I1
sVdrs2eq3
p1640
I1
sVdr91qy1
p1641
I5
sVdf4ogl5
p1642
I1
sVd4vj808
p1643
I2
sVdcdmi26
p1644
I1
sVd6txqaf
p1645
I1
sVdi9gia4
p1646
I1
sVdeaaiz2
p1647
I2
sVd0zxfx3
p1648
I1
sVdctixs2
p1649
I2
sVdnf8mbo
p1650
I1
sVd14kfoz
p1651
I1
sVdjxxpri
p1652
I1
sVdddyt74
p1653
I2
sVde5rfe7
p1654
I1
sVcyyhbco
p1655
I1
sVdnxk4m0
p1656
I2
sVd4lpjcm
p1657
I1
sVdcww31f
p1658
I1
sVdixy59n
p1659
I1
sVdetdh1o
p1660
I1
sVdbklqaf
p1661
I1
sVdkt3e9b
p1662
I1
sVd55c0jo
p1663
I1
sVdnsdyo6
p1664
I1
sVdbjoii3
p1665
I1
sVd2v5rzp
p1666
I1
sVdfywyam
p1667
I2
sVd20zief
p1668
I1
sVdbku5ef
p1669
I1
sVdfzzqu5
p1670
I1
sVdmsvrye
p1671
I2
sVdgyl7sj
p1672
I1
sVdjz6mth
p1673
I1
sVdmoc4c4
p1674
I1
sVdpsddgt
p1675
I1
sVdaxf9bq
p1676
I1
sVd1qpmv8
p1677
I1
sVdrmtwgz
p1678
I1
sVdj6fr8l
p1679
I1
sVd27v3jy
p1680
I1
sVdc3xxhp
p1681
I1
sVdc5a9tj
p1682
I1
sVdrmredo
p1683
I1
sVd89bxc8
p1684
I1
sVdn15zpk
p1685
I2
sVda84o9a
p1686
I1
sVd1173jw
p1687
I1
sVd7eh14u
p1688
I1
sVdfa8v53
p1689
I2
sVdh1f9z8
p1690
I1
sVdb9un2v
p1691
I1
sVd4m6gju
p1692
I1
sVdqztu9p
p1693
I1
sVddprxnx
p1694
I1
sVd1o1e5q
p1695
I1
sVcz7dq4d
p1696
I1
sVd46a0h5
p1697
I1
sVdrvm684
p1698
I1
sVczcod7v
p1699
I2
sVd84gfk1
p1700
I1
sVdeoa24l
p1701
I1
sVdf3wq0a
p1702
I1
sVd0x8g8e
p1703
I1
sVd5apf92
p1704
I1
sVd1zws3m
p1705
I1
sVd5vuf7h
p1706
I1
sVdmjc2yp
p1707
I1
sVda4zu1f
p1708
I1
sVd0ds2zi
p1709
I1
sVcyk0138
p1710
I1
sVdfyswid
p1711
I1
sVddzmdoy
p1712
I1
sVd2nf83j
p1713
I1
sVdggqnlm
p1714
I1
sVd32nblh
p1715
I1
sVdcuwx5b
p1716
I2
sVd114z43
p1717
I3
sVdpa0bjf
p1718
I1
sVdh2t6bs
p1719
I1
sVd4xrfzr
p1720
I1
sVddzs4yu
p1721
I1
sVdb5jxet
p1722
I1
sVd7t327l
p1723
I1
sVd54bdlw
p1724
I1
sVdhmyuvd
p1725
I1
sVdn93z84
p1726
I1
sVdhdtf07
p1727
I1
sVd9rfafi
p1728
I1
sVd0wn0yj
p1729
I1
sVd527zeb
p1730
I1
sVd5nrugv
p1731
I1
sVd0180jk
p1732
I1
sVd2594ef
p1733
I1
sVdf1x18h
p1734
I2
sVd53ydwk
p1735
I1
sVdeq9jdp
p1736
I1
sVdgukc2y
p1737
I1
sVd8kg2ce
p1738
I1
sVd4aonzb
p1739
I2
sVdboxx5c
p1740
I2
sVddqxe2a
p1741
I1
sVcyhwdl5
p1742
I1
sVdam9mji
p1743
I1
sVdi0k6ef
p1744
I1
sVd0c3pvk
p1745
I1
sVdfpj9u9
p1746
I1
sVdbqxv1t
p1747
I1
sVd3y55q2
p1748
I1
sVdhkdlk3
p1749
I1
sVcyvj9xq
p1750
I1
sVdn0c67f
p1751
I2
sVd32cpis
p1752
I2
sVd6nlcby
p1753
I1
sVdsvm97i
p1754
I1
sVd1m7wku
p1755
I1
sVdgn61il
p1756
I1
sVdihgl5s
p1757
I1
sVd0c0vwu
p1758
I1
sVdknmqhe
p1759
I1
sVd0s5vek
p1760
I1
sVdivs4q3
p1761
I1
sVdc2fco2
p1762
I1
sVczw6i8i
p1763
I1
sVd00k8yx
p1764
I1
sVdqrvk6d
p1765
I1
sVdddtmyv
p1766
I1
sVd91jsqs
p1767
I1
sVdbsrda0
p1768
I1
sVd9d9rh0
p1769
I1
sVdoe4wip
p1770
I1
sVdqazul2
p1771
I1
sVdadpoiu
p1772
I2
sVddec3b5
p1773
I1
sVdeg7bpu
p1774
I1
sVdd2zu66
p1775
I7
sVd036zro
p1776
I1
sVddltm67
p1777
I2
sVdjo4q0c
p1778
I1
sVdczlev3
p1779
I1
sVdgh5eyr
p1780
I1
sVdbil8jx
p1781
I1
sVczwgbc0
p1782
I1
sVd16akkt
p1783
I2
sVdamdxl4
p1784
I2
sVdkhe9i0
p1785
I1
sVdo5nip5
p1786
I1
sVdgo11u4
p1787
I2
sVd19s1nf
p1788
I2
sVddus25x
p1789
I1
sVdd6rg2y
p1790
I1
sVdqkk00f
p1791
I2
sVd4jsxhv
p1792
I1
sVd2lxp4e
p1793
I1
sVdas3zen
p1794
I1
sVd231sn0
p1795
I1
sVd2gbysi
p1796
I1
sVd1a6g5z
p1797
I1
sVdai52dn
p1798
I1
sVdds6bcs
p1799
I1
sVdh0zubb
p1800
I5
sVd09ln6l
p1801
I1
sVdrmg41h
p1802
I1
sVdmqala4
p1803
I3
sVd3nthm9
p1804
I1
sVd84l9r1
p1805
I1
sVd1569wg
p1806
I2
sVdcjv8up
p1807
I1
sVdbkwd5v
p1808
I1
sVd6fzyz9
p1809
I1
sVdj0j713
p1810
I2
sVdbx3gx7
p1811
I1
sVdifjsoy
p1812
I1
sVddlidhx
p1813
I1
sVdbp0sjl
p1814
I3
sVdnmajq0
p1815
I1
sVd34ackx
p1816
I1
sVdei93gm
p1817
I1
sVcz2ddgu
p1818
I1
sVdjlesni
p1819
I1
sVd9v6hes
p1820
I1
sVd5y1yqt
p1821
I1
sVdgx2c11
p1822
I1
sVd9cqhlb
p1823
I1
sVddatycx
p1824
I1
sVd6wha5s
p1825
I1
sVd5udigh
p1826
I3
sVczsqdus
p1827
I1
sVdkixd9s
p1828
I1
sVdqk6u05
p1829
I2
sVdkmzi88
p1830
I1
sVd03uglj
p1831
I1
sVd1p1z5k
p1832
I1
sVcz1xyxt
p1833
I4
sVd38jkpx
p1834
I1
sVdc54g11
p1835
I1
sVd27h154
p1836
I1
sVd2vuljj
p1837
I1
sVdeopydm
p1838
I1
sVdgdre5y
p1839
I1
sVddxqx68
p1840
I1
sVd2i3sya
p1841
I1
sVdhkmtkg
p1842
I1
sVdd9wl08
p1843
I1
sVdezoxo7
p1844
I1
sVdjrdcuj
p1845
I1
sVdgzwhnm
p1846
I3
sVdeyz3av
p1847
I1
sVd7982l0
p1848
I1
sVdkf5l00
p1849
I1
sVdp1iydz
p1850
I1
sVd50g7xo
p1851
I3
sVd03w7k1
p1852
I1
sVcytb163
p1853
I1
sVd6v4l2k
p1854
I1
sVdgtr2ej
p1855
I1
sVd1wgi2q
p1856
I1
sVdrjbjnl
p1857
I3
sVd2k2c29
p1858
I1
sVdkkd3q3
p1859
I1
sVd7evm5d
p1860
I2
sVd01p0jl
p1861
I1
sVdcqnsb6
p1862
I1
sVda04m06
p1863
I1
sVdt8xilo
p1864
I1
sVdcnoq3d
p1865
I2
sVd4g0yh9
p1866
I1
sVd3f6dtr
p1867
I1
sVdh8ub70
p1868
I1
sVdalfc22
p1869
I1
sVda1m0fr
p1870
I1
sVdnak477
p1871
I1
sVdhgba5b
p1872
I1
sVdaa6jhg
p1873
I1
sVdai3k5w
p1874
I1
sVcz47jnw
p1875
I1
sVdsqp8aq
p1876
I1
sVda3pea2
p1877
I1
sVcyjrfco
p1878
I2
sVdaueoxq
p1879
I1
sVczuu1c3
p1880
I1
sVdkjaol5
p1881
I1
sVd22qqt9
p1882
I1
sVdp6kbtf
p1883
I1
sVd3cd9tt
p1884
I1
sVd57z3yt
p1885
I2
sVdothw2r
p1886
I1
sVd622pbb
p1887
I2
sVd20d9cx
p1888
I1
sVd2321wb
p1889
I1
sVd3txm2k
p1890
I2
sVdbzvh9u
p1891
I1
sVdjsbuyn
p1892
I1
sVd515rad
p1893
I1
sVczwq4rl
p1894
I1
sVdgm50yj
p1895
I1
sVd7t2w0u
p1896
I1
sVde2gbmi
p1897
I2
sVd7ugkvz
p1898
I1
sVdi8t0hj
p1899
I1
sVcz48f9r
p1900
I1
sVdclejvh
p1901
I1
sVd2ljts4
p1902
I1
sVdb57h9n
p1903
I1
sVd43znb0
p1904
I2
sVdrgeqyq
p1905
I1
sVdmsh64o
p1906
I1
sVdg3015r
p1907
I1
sVdc6oqhw
p1908
I2
sVd1r1dsp
p1909
I1
sVd40kjko
p1910
I1
sVdb2pdlp
p1911
I1
sVd8yrxmq
p1912
I1
sVdj8ibjb
p1913
I1
sVdsl4e42
p1914
I1
sVdfzrkdx
p1915
I1
sVd046rta
p1916
I1
sVddif6wc
p1917
I1
sVderutk4
p1918
I1
sVd3tv59i
p1919
I1
sVd15q250
p1920
I1
sVdjomadu
p1921
I1
sVdqfk98l
p1922
I1
sVdsyg74n
p1923
I1
sVdb0a2md
p1924
I1
sVdjuoh3a
p1925
I1
sVda8votk
p1926
I2
sVdqztw9z
p1927
I1
sVdd3vzer
p1928
I4
sVdo12jey
p1929
I1
sVddscjcr
p1930
I1
sVdsix8fh
p1931
I1
sVdfthcfn
p1932
I1
sVdprddt2
p1933
I1
sVdhjupuc
p1934
I1
sVd0h943u
p1935
I2
sVcz7es1h
p1936
I1
sVdcc9x3f
p1937
I1
sVd2ig4ma
p1938
I1
sVdtftl18
p1939
I1
sVdbvo03o
p1940
I2
sVd6eo6np
p1941
I1
sVdd55owi
p1942
I1
sVdajbujp
p1943
I1
sVdavukpj
p1944
I1
sVd3kijax
p1945
I2
sVd8f2fgv
p1946
I1
sVdb36kr1
p1947
I1
sVdnuqqld
p1948
I1
sVdrjc1bu
p1949
I1
sVde5jy40
p1950
I1
sVcz7gezx
p1951
I1
sVd7sc2fz
p1952
I1
sVczskiwj
p1953
I1
sVd1y0fbz
p1954
I1
sVdj194a6
p1955
I1
sVd1mntcl
p1956
I1
sVdk3zlko
p1957
I2
sVd3ijo6p
p1958
I1
sVd4dy1lg
p1959
I1
sVd4oray3
p1960
I1
sVdh8k04x
p1961
I1
sVdd2dbqx
p1962
I1
sVd4ln5tc
p1963
I1
sVd78q8xk
p1964
I1
sVd8wnqxw
p1965
I1
sVdsi28vx
p1966
I4
sVdce28iv
p1967
I2
sVddirdnt
p1968
I1
sVd9i417n
p1969
I1
sVdb1o5af
p1970
I1
sVdbtq3hz
p1971
I1
sVd247vis
p1972
I1
sVd0y33oq
p1973
I1
sVd9ayhu6
p1974
I1
sVdkjbv6v
p1975
I2
sVdfe31p6
p1976
I1
sVcyvemou
p1977
I1
sVdbh2s3a
p1978
I1
sVcz98t4y
p1979
I1
sVd6vbc8u
p1980
I1
sVd1r1bsw
p1981
I1
sVdjltdik
p1982
I1
sVdf232vv
p1983
I1
sVdk6w73g
p1984
I1
sVd1yl246
p1985
I1
sVdbgvcha
p1986
I1
sVdb5wo2m
p1987
I1
sVcynmoja
p1988
I1
sVd8f3ymo
p1989
I2
sVd0he3qk
p1990
I1
sVd7hqpkt
p1991
I1
sVd11kykq
p1992
I1
sVdbe5h1r
p1993
I1
sVdiu7d5f
p1994
I1
sVdhaem9b
p1995
I3
sVdexp7y1
p1996
I1
sVd1k22m3
p1997
I2
sVd31q3mj
p1998
I1
sVcynvg5s
p1999
I1
sVd75x10a
p2000
I1
sVd16tfop
p2001
I1
sVdgroe5a
p2002
I3
sVdcpu91h
p2003
I1
sVdgx7v7y
p2004
I2
sVd3927vd
p2005
I1
sVdohuxjz
p2006
I1
sVdmylncd
p2007
I1
sVd81jx0s
p2008
I1
sVdb8i5np
p2009
I2
sVdnwtskx
p2010
I1
sVd0zewga
p2011
I1
sVdrwl2at
p2012
I1
sVdbwfbht
p2013
I1
sVdh7mche
p2014
I1
sVdhf3onc
p2015
I1
sVd9n2kkv
p2016
I1
sVdtf9sul
p2017
I2
sVdd372p0
p2018
I1
sVd9prj5z
p2019
I1
sVd5wcoj4
p2020
I1
sVdgoz4mm
p2021
I1
sVdinc1s6
p2022
I1
sVd1wvzzc
p2023
I1
sVdbbtqxa
p2024
I1
sVcyjaxya
p2025
I1
sVd9ppqgn
p2026
I1
sVdtbjvzs
p2027
I3
sVdkc91ue
p2028
I1
sVdhzdzcv
p2029
I1
sVd6axuzi
p2030
I1
sVdimcqam
p2031
I1
sVd19um84
p2032
I1
sVd1w9p7y
p2033
I1
sVddi0f24
p2034
I1
sVde9rk4d
p2035
I1
sVd7z9aw2
p2036
I1
sVdohakk1
p2037
I1
sVd0zegh0
p2038
I1
sVd6xu480
p2039
I1
sVdbty3bt
p2040
I1
sVdtaibzo
p2041
I1
sVd0f812r
p2042
I1
sVcyy8d18
p2043
I1
sVdflud7p
p2044
I1
sVczqw2vn
p2045
I1
sVd0r7j0v
p2046
I1
sVdpo3q4v
p2047
I1
sVd38y9dv
p2048
I1
sVd0gw9rk
p2049
I2
sVdsu1rpu
p2050
I1
sVdgde8qx
p2051
I1
sVd0343ur
p2052
I1
sVdjh7po2
p2053
I1
sVd07vj6c
p2054
I1
sVddbz0y1
p2055
I3
sVd61upc2
p2056
I1
sVde1dnxj
p2057
I1
sVdh33z4b
p2058
I1
sVd38lo49
p2059
I1
sVd0029v5
p2060
I2
sVd12u1zb
p2061
I1
sVd729auf
p2062
I1
sVd5mcajd
p2063
I2
sVdpr2ocu
p2064
I3
sVd8alzfk
p2065
I1
sVdd2hjoy
p2066
I1
sVdewwekf
p2067
I1
sVdr0pvhy
p2068
I1
sVdcbrkja
p2069
I1
sVdnqqqf1
p2070
I1
sVd5aqpj0
p2071
I1
sVd2qshjp
p2072
I1
sVdcwm14y
p2073
I1
sVd2am8ad
p2074
I1
sVdoxgw33
p2075
I1
sVdcsyb4v
p2076
I1
sVdg7npb0
p2077
I1
sVdmpkan4
p2078
I1
sVd6vgsrl
p2079
I1
sVdc930ik
p2080
I1
sVdcctkvq
p2081
I2
sVd3lcdte
p2082
I1
sVd0dxg9p
p2083
I1
sVd9uwf35
p2084
I1
sVddtthia
p2085
I1
sVd1ujxe4
p2086
I1
sVdbv3t13
p2087
I1
sVdkhloyj
p2088
I2
sVcywobam
p2089
I1
sVd0sj91w
p2090
I1
sVczt99c4
p2091
I1
sVdcnx4u4
p2092
I1
sVcz68jhv
p2093
I1
sVd32mdc4
p2094
I1
sVdsve98m
p2095
I1
sVd3i7hpf
p2096
I1
sVddfu7uw
p2097
I1
sVdd2b578
p2098
I1
sVd9grtn1
p2099
I1
sVde69cp1
p2100
I1
sVd3hedv7
p2101
I1
sVd2silyi
p2102
I2
sVd8a1kof
p2103
I1
sVd3ca9mw
p2104
I1
sVdcsrx8w
p2105
I1
sVd7v1rvy
p2106
I1
sVdbwr5xz
p2107
I1
sVdasewnh
p2108
I1
sVdgvbrwg
p2109
I1
sVdcuylym
p2110
I1
sVdqk4qhe
p2111
I1
sVd437m8c
p2112
I1
sVd8giubt
p2113
I1
sVd1qgffm
p2114
I1
sVdcxj3bf
p2115
I2
sVdeyuhcd
p2116
I1
sVczpvrq4
p2117
I1
sVd41ut3f
p2118
I1
sVdr3c1nv
p2119
I1
sVdoud9zo
p2120
I1
sVdndyd9v
p2121
I1
sVdjox0kz
p2122
I1
sVd0oiy7g
p2123
I1
sVda8x1ur
p2124
I1
sVd33mi0x
p2125
I1
sVdnl6384
p2126
I1
sVd81ndss
p2127
I1
sVdqvrod6
p2128
I3
sVd0uh3jt
p2129
I1
sVdpqy1jw
p2130
I1
sVdexa8xh
p2131
I1
sVdj2gn06
p2132
I1
sVd8lx4iw
p2133
I1
sVd299l24
p2134
I1
sVd62vqkn
p2135
I2
sVdizyop6
p2136
I1
sVdib9kgs
p2137
I1
sVdmio7q9
p2138
I1
sVd22eu66
p2139
I1
sVcyptk1l
p2140
I1
sVdh2pi73
p2141
I1
sVdd5li5q
p2142
I1
sVd8r5ge4
p2143
I1
sVd72gmhc
p2144
I1
sVdcm5gcr
p2145
I1
sVd8f5ge6
p2146
I2
sVd1isk6i
p2147
I2
sVdd5z7y1
p2148
I1
sVde46zvb
p2149
I1
sVd231pdl
p2150
I1
sVdeajm4a
p2151
I1
sVd54njoc
p2152
I1
sVdgrpx6r
p2153
I1
sVd9okfsl
p2154
I1
sVd9tkze0
p2155
I1
sVdki38p1
p2156
I1
sVd1tie2a
p2157
I1
sVd7yj62c
p2158
I1
sVd1y51e0
p2159
I1
sVdfnczue
p2160
I1
sVd1evp9d
p2161
I1
sVdg2oaae
p2162
I1
sVd0tvta3
p2163
I1
sVd6qr8jz
p2164
I1
sVdfyyx2q
p2165
I1
sVd7yjcn1
p2166
I2
sVdhiioya
p2167
I1
sVdfyiz3b
p2168
I1
sVd134hsq
p2169
I2
sVd8q70x2
p2170
I1
sVdfsp0ia
p2171
I1
sVdhdocsi
p2172
I1
sVdaw5hnd
p2173
I1
sVdai3nha
p2174
I2
sVcyyeke2
p2175
I1
sVd1ksxwk
p2176
I2
sVdbguyur
p2177
I1
sVd0b6h2l
p2178
I1
sVd4owq68
p2179
I1
sVdf0cq9u
p2180
I1
sVd2kr4ls
p2181
I1
sVd0wmkgb
p2182
I1
sVdflltse
p2183
I1
sVdnw9kxi
p2184
I1
sVdas6oum
p2185
I1
sVdfao6w8
p2186
I1
sVd0sc47c
p2187
I1
sVdj9bwcr
p2188
I1
sVdd53d5q
p2189
I1
sVda1edyz
p2190
I1
sVd6ib1qd
p2191
I1
sVdh1zwx9
p2192
I2
sVdozdgj8
p2193
I1
sVdkewa4w
p2194
I1
sVd1q0os3
p2195
I1
sVd4ux1y0
p2196
I1
sVdq0dhej
p2197
I1
sVd0c3hh0
p2198
I1
sVd97zlrt
p2199
I1
sVd1rhmnl
p2200
I1
sVd0nlk7m
p2201
I1
sVdf3z9r2
p2202
I1
sVcypwfc8
p2203
I1
sVd779fqi
p2204
I1
sVdqszwb4
p2205
I1
sVcz22mms
p2206
I1
sVd3yreo9
p2207
I2
sVdfujsh7
p2208
I1
sVd9uf3xp
p2209
I2
sVdtgj09h
p2210
I1
sVdav986n
p2211
I1
sVd1e7gqb
p2212
I1
sVczb12zt
p2213
I1
sVdh6y543
p2214
I1
sVdfpnj8c
p2215
I1
sVczasam0
p2216
I1
sVdeky0vy
p2217
I1
sVczpm5jo
p2218
I1
sVd35nhxs
p2219
I1
sVdko8x8b
p2220
I1
sVdnx5z3z
p2221
I1
sVd8s02k6
p2222
I1
sVdefq9oe
p2223
I1
sVd124xqj
p2224
I1
sVdjddjae
p2225
I1
sVd1zxqoc
p2226
I1
sVd4nk5td
p2227
I2
sVdiqdlw2
p2228
I2
sVd2g8li4
p2229
I1
sVd9lgsh0
p2230
I2
sVdbyornm
p2231
I2
sVdkj1zm4
p2232
I1
sVdfl2tnq
p2233
I1
sVd8u1dum
p2234
I1
sVd6079b3
p2235
I1
sVczgwv75
p2236
I1
sVd1zs2al
p2237
I1
sVddwraax
p2238
I2
sVd43lq53
p2239
I1
sVd1zwm7d
p2240
I1
sVdamqq3v
p2241
I1
sVdakpk68
p2242
I1
sVdfyo6qf
p2243
I1
sVd05a8ek
p2244
I1
sVdcrz4pl
p2245
I1
sVd3d5238
p2246
I1
sVdam5k9e
p2247
I1
sVdi5tcvq
p2248
I1
sVdrf3n18
p2249
I1
sVd45wpzx
p2250
I1
sVd22kd7a
p2251
I2
sVdepoj3y
p2252
I1
sVd8jfjjg
p2253
I1
sVd2snlju
p2254
I1
sVdb1l5n0
p2255
I1
sVd7qraac
p2256
I1
sVd3658ax
p2257
I1
sVdbm2iwu
p2258
I1
sVdryj9qy
p2259
I2
sVczj29iz
p2260
I2
sVd62o65b
p2261
I1
sVd877fih
p2262
I1
sVcz94puu
p2263
I1
sVd9j95r4
p2264
I1
sVczka86x
p2265
I1
sVd7h0mmg
p2266
I1
sVdibinlj
p2267
I1
sVdr0t97s
p2268
I1
sVd6273bp
p2269
I1
sVdry2ndz
p2270
I1
sVdqzh924
p2271
I1
sVd45vk6m
p2272
I6
sVddiedts
p2273
I1
sVd1mwa5a
p2274
I1
sVd8u183m
p2275
I1
sVdn2c28r
p2276
I1
sVd4lw02y
p2277
I1
sVdi8pgux
p2278
I1
sVd1is968
p2279
I1
sVda4rmte
p2280
I1
sVd8jtlg5
p2281
I1
sVdbes36d
p2282
I2
sVd34yswv
p2283
I1
sVdgc5xeg
p2284
I1
sVdeq7fud
p2285
I1
sVd7z81w3
p2286
I1
sVd51v2ss
p2287
I1
sVd3qmqx3
p2288
I1
sVd6tkus7
p2289
I3
sVdr6ngdc
p2290
I1
sVda0mlc6
p2291
I2
sVd7wr54i
p2292
I1
sVczbep5e
p2293
I1
sVd48tpdd
p2294
I1
sVdkswxeq
p2295
I2
sVd26gywh
p2296
I1
sVdfs4kce
p2297
I1
sVdk8wlu1
p2298
I1
sVd2ouvtc
p2299
I1
sVdjpd3fq
p2300
I1
sVd38bzmn
p2301
I1
sVd2klyfr
p2302
I1
sVdgt73z8
p2303
I1
sVdfrsnfj
p2304
I2
sVd37luh1
p2305
I1
sVczf6ror
p2306
I1
sVdqgymzu
p2307
I2
sVdhc816h
p2308
I1
sVdrltglt
p2309
I4
sVczh10lr
p2310
I1
sVda0ukww
p2311
I1
sVdf5m96b
p2312
I1
sVdtgpgw4
p2313
I1
sVdnddzvi
p2314
I2
sVd7g6n6i
p2315
I1
sVd39izmc
p2316
I1
sVd4g5sp7
p2317
I1
sVdb62dva
p2318
I4
sVdog2g5p
p2319
I1
sVdpmc0bw
p2320
I1
sVdg2pi6l
p2321
I1
sVd1xmdr1
p2322
I1
sVdkfts7h
p2323
I1
sVd1n395e
p2324
I1
sVd3p9tyj
p2325
I1
sVd6abc7e
p2326
I1
sVd20b4qo
p2327
I1
sVd7xbmn2
p2328
I1
sVdnklvvx
p2329
I1
sVddjd4fd
p2330
I1
sVd2si9rr
p2331
I1
sVd4by4bo
p2332
I1
sVcywlox7
p2333
I1
sVdbdqyyi
p2334
I1
sVdrc3w7j
p2335
I1
sVdd56omx
p2336
I1
sVdn1yr07
p2337
I1
sVd33mwjz
p2338
I1
sVd0g28r2
p2339
I1
sVd84m0un
p2340
I1
sVcysh61o
p2341
I1
sVddhvqa4
p2342
I1
sVd8cwauz
p2343
I1
sVdce33vn
p2344
I1
sVdggymsl
p2345
I4
sVdke7h8r
p2346
I1
sVddyjjnb
p2347
I1
sVd3asjob
p2348
I2
sVdqlba2d
p2349
I1
sVdje6lfu
p2350
I1
sVcyv9jif
p2351
I1
sVd58yjag
p2352
I3
sVdh8bhy5
p2353
I1
sVd224h91
p2354
I1
sVdhgz87a
p2355
I1
sVdgu1m1n
p2356
I1
sVd9ps7u4
p2357
I1
sVddiiph7
p2358
I1
sVd7seew9
p2359
I1
sVdojif8p
p2360
I1
sVdqjb8b0
p2361
I1
sVdiyg7v4
p2362
I1
sVdfc5c4e
p2363
I1
sVd9k8v8p
p2364
I4
sVd6qajdj
p2365
I1
sVd0n2inw
p2366
I1
sVdn8jouj
p2367
I1
sVddmbif3
p2368
I1
sVd1v22xw
p2369
I1
sVd0lyfn3
p2370
I1
sVdp62qtv
p2371
I1
sVd83w1n5
p2372
I1
sVd47ixep
p2373
I1
sVd4dadrn
p2374
I1
sVdjpj7jo
p2375
I2
sVd9b19n3
p2376
I1
sVdrmr6ge
p2377
I1
sVdev633e
p2378
I1
sVdihbdri
p2379
I1
sVd6v5xac
p2380
I1
sVd9ntam5
p2381
I2
sVdau7nea
p2382
I1
sVd1pcduw
p2383
I1
sVdb5nt5v
p2384
I1
sVdckr08v
p2385
I1
sVdhj5ujm
p2386
I1
sVdcvg27g
p2387
I1
sVcyse12y
p2388
I1
sVdjxagmt
p2389
I2
sVdedbdhr
p2390
I1
sVd86t23w
p2391
I1
sVd1zxcey
p2392
I3
sVd3rcw57
p2393
I1
sVdkkkeet
p2394
I1
sVd253x1j
p2395
I1
sVczfq1uv
p2396
I1
sVdn7z40z
p2397
I1
sVd8aolmp
p2398
I1
sVd9goc57
p2399
I1
sVdfwp9ak
p2400
I1
sVdelo74s
p2401
I2
sVd1oowra
p2402
I1
sVde1c5rg
p2403
I1
sVdf9k2di
p2404
I1
sVdbapr10
p2405
I1
sVd1meisg
p2406
I1
sVdbwvoxq
p2407
I1
sVdi5lm0p
p2408
I1
sVd2it0fk
p2409
I1
sVdfwt12d
p2410
I3
sVdkpjtnr
p2411
I1
sVdfbnfp5
p2412
I1
sVdox325e
p2413
I1
sVdgtiqlm
p2414
I1
sVdh6npdm
p2415
I1
sVd770yjz
p2416
I1
sVdix6cbz
p2417
I1
sVdhv9shg
p2418
I1
sVdi5nayv
p2419
I2
sVd29qxjk
p2420
I1
sVcyzs57g
p2421
I1
sVcz0awhj
p2422
I1
sVdh51jco
p2423
I1
sVdqtmyww
p2424
I1
sVdcii1zm
p2425
I1
sVddcg3pe
p2426
I1
sVdaws95e
p2427
I1
sVdqrhete
p2428
I1
sVdiict1y
p2429
I2
sVd4rxm59
p2430
I2
sVd747uba
p2431
I1
sVdgpqkcv
p2432
I2
sVddvkpk4
p2433
I1
sVdrgjjto
p2434
I2
sVdjyfbtv
p2435
I1
sVdp85v28
p2436
I1
sVdpgai05
p2437
I1
sVdi1qhn5
p2438
I2
sVd30gor4
p2439
I1
sVd12d47o
p2440
I1
sVdal37ah
p2441
I1
sVczwtk8r
p2442
I2
sVd7jafiz
p2443
I1
sVczwq6ft
p2444
I2
sVdfal6d9
p2445
I1
sVczcqlcw
p2446
I1
sVdi865t6
p2447
I4
sVd1ei8oe
p2448
I1
sVcypb9tx
p2449
I1
sVd1bqv8e
p2450
I1
sVdqk4z4h
p2451
I1
sVdkqw590
p2452
I1
sVczdbwsm
p2453
I1
sVczybckg
p2454
I1
sVdgfl4wp
p2455
I1
sVdes05nr
p2456
I1
sVdd59c5p
p2457
I1
sVdp83djl
p2458
I1
sVdh0tkcs
p2459
I1
sVd36x482
p2460
I1
sVdhn5z7a
p2461
I1
sVd3waqng
p2462
I1
sVdechmd1
p2463
I1
sVddnbuwo
p2464
I1
sVdi9f7kl
p2465
I1
sVdp5g1t2
p2466
I1
sVda2607w
p2467
I1
sVd5w9abe
p2468
I1
sVd3m16vi
p2469
I1
sVd1fijav
p2470
I1
sVczvj5gk
p2471
I1
sVcyjhlkn
p2472
I1
sVd2gdalk
p2473
I1
sVdqtlylg
p2474
I3
sVdawqm48
p2475
I1
sVdojawz0
p2476
I1
sVd9s4zw5
p2477
I1
sVdjv3pzz
p2478
I1
sVd1imt2f
p2479
I1
sVdh8hcn0
p2480
I1
sVd8w70iu
p2481
I1
sVdbhof65
p2482
I1
sVd35fkym
p2483
I2
sVd13wqrg
p2484
I1
sVdeznxzo
p2485
I1
sVdshu2j2
p2486
I1
sVczwbt45
p2487
I1
sVdnqgb39
p2488
I1
sVd6kjxam
p2489
I1
sVczlh7e9
p2490
I1
sVddthqpb
p2491
I2
sVdgzdjrp
p2492
I1
sVdejasia
p2493
I1
sVdn621iv
p2494
I1
sVd2rv1cf
p2495
I1
sVde50052
p2496
I1
sVdjrvytv
p2497
I3
sVdhe1u7e
p2498
I1
sVdprfblf
p2499
I1
sVczmtc6d
p2500
I1
sVdak0sae
p2501
I1
sVdj758oh
p2502
I1
sVd0fnjyp
p2503
I1
sVd4il45q
p2504
I1
sVd16yt1x
p2505
I1
sVdab2k4w
p2506
I1
sVd2um1bg
p2507
I1
sVdp1d3ca
p2508
I2
sVdfl9x7e
p2509
I1
sVdfxaa1s
p2510
I1
sVdgjd26g
p2511
I1
sVd085ntj
p2512
I1
sVdk6dcaf
p2513
I1
sVcz6jslz
p2514
I1
sVd6a0zpe
p2515
I1
sVd0txwwu
p2516
I2
sVdhpuest
p2517
I1
sVd1ft19i
p2518
I1
sVdcvxmuy
p2519
I1
sVczyugk6
p2520
I1
sVd2rdf94
p2521
I1
sVd0ia4mi
p2522
I1
sVdgmom64
p2523
I1
sVdr29373
p2524
I1
sVddt8a0b
p2525
I1
sVd27xtrw
p2526
I1
sVd0cce6p
p2527
I1
sVd5w574m
p2528
I1
sVdedoo6c
p2529
I2
sVd9bhn4v
p2530
I1
sVdb5zz8o
p2531
I1
sVd1jjodx
p2532
I3
sVcyli12x
p2533
I1
sVcyyyaev
p2534
I1
sVd5h0xk3
p2535
I1
sVdmq29m7
p2536
I1
sVdia0rpw
p2537
I1
sVd972wz8
p2538
I1
sVde16v9u
p2539
I1
sVd2quzzk
p2540
I1
sVczvstwn
p2541
I1
sVdrcf35j
p2542
I1
sVcym3lmw
p2543
I1
sVd1pm3i6
p2544
I1
sVdmixo1o
p2545
I1
sVdbc7dxq
p2546
I1
sVdhfj9ll
p2547
I1
sVdqf2u5a
p2548
I2
sVd2k7ym4
p2549
I1
sVdfrnaqb
p2550
I1
sVdqzj000
p2551
I1
sVd2o3iba
p2552
I1
sVdeuzhy8
p2553
I1
sVdi7y6ni
p2554
I1
sVd8502ok
p2555
I1
sVd73p36g
p2556
I1
sVd8h6rln
p2557
I1
sVdpyo8yg
p2558
I1
sVd9oii99
p2559
I1
sVcz5kw9t
p2560
I1
sVdexb8hw
p2561
I3
sVcytwvos
p2562
I3
sVd5rmpi4
p2563
I1
sVdjok8mc
p2564
I2
sVd4bk73b
p2565
I1
sVd6fyo6y
p2566
I1
sVd6d5ucs
p2567
I1
sVdr5k6xp
p2568
I1
sVdr4c54p
p2569
I1
sVda0dpo4
p2570
I1
sVdfeul7p
p2571
I1
sVd036vd8
p2572
I1
sVdjdqze4
p2573
I1
sVdj5qgff
p2574
I1
sVdh1pofe
p2575
I1
sVdfb8wap
p2576
I2
sVd331bi7
p2577
I1
sVd7trgtl
p2578
I1
sVd05cq3m
p2579
I1
sVdjvekro
p2580
I1
sVd0txckt
p2581
I1
sVd07egsg
p2582
I1
sVdgia0x3
p2583
I2
sVd6g8vld
p2584
I1
sVdmvhnqf
p2585
I1
sVdfc7bkt
p2586
I1
sVdqx3z56
p2587
I1
sVdc7o5dc
p2588
I1
sVdfsxmbf
p2589
I1
sVdd5kohx
p2590
I1
sVdfb52mg
p2591
I1
sVdixhmgw
p2592
I1
sVd3hr11c
p2593
I1
sVd7myo2f
p2594
I1
sVdi04ebo
p2595
I1
sVdfxirnv
p2596
I1
sVd3k6sqt
p2597
I1
sVd9hslur
p2598
I1
sVdpbzz9a
p2599
I3
sVdcha2b5
p2600
I1
sVczv0srp
p2601
I1
sVd9mcg5m
p2602
I1
sVdb68red
p2603
I2
sVdhtslpj
p2604
I1
sVdh8bun7
p2605
I2
sVdnla95q
p2606
I1
sVdnxtdjs
p2607
I1
sVdbpp9lh
p2608
I1
sVd675n9i
p2609
I1
sVdealkxx
p2610
I1
sVd7j90vk
p2611
I1
sVdg26cms
p2612
I1
sVd8sxv8f
p2613
I1
sVd5xcayw
p2614
I1
sVd12h1y7
p2615
I1
sVd0tnmc4
p2616
I2
sVdih96jp
p2617
I1
sVdf7b6yy
p2618
I1
sVdoob55p
p2619
I1
sVdcct5w5
p2620
I1
sVddwhuk5
p2621
I1
sVdj0lv0b
p2622
I1
sVd5uixmm
p2623
I1
sVdal63d6
p2624
I1
sVd7jzqa6
p2625
I1
sVcz9ey2q
p2626
I1
sVdepksa2
p2627
I3
sVdhsdd9s
p2628
I1
sVdfegnqr
p2629
I1
sVd5udg77
p2630
I3
sVd7tincs
p2631
I1
sVdeivj35
p2632
I1
sVdgwu2k4
p2633
I2
sVdq3qvjg
p2634
I1
sVdaillbe
p2635
I1
sVd7xntia
p2636
I1
sVdkia8n6
p2637
I1
sVd4axkjb
p2638
I2
sVdix50lh
p2639
I1
sVd2h6k00
p2640
I1
sVdiuxlrj
p2641
I1
sVdq3zmnd
p2642
I1
sVdpqp6ir
p2643
I1
sVd8i1wnb
p2644
I1
sVd22oq1m
p2645
I1
sVdgapypw
p2646
I1
sVdiwxdsx
p2647
I1
sVdnlmzpx
p2648
I1
sVd75qemc
p2649
I1
sVd01zbpd
p2650
I1
sVdof77o3
p2651
I1
sVdhvy6eo
p2652
I1
sVdrocl6x
p2653
I1
sVdsfsj95
p2654
I1
sVdkdb7fz
p2655
I1
sVdcvsbdc
p2656
I1
sVd5ogipk
p2657
I1
sVd9wt76g
p2658
I1
sVd349wwd
p2659
I2
sVdfwdtdh
p2660
I2
sVdn6dgr7
p2661
I1
sVd8i57fk
p2662
I1
sVdhjn0i5
p2663
I2
sVdnpbysq
p2664
I1
sVdaacadn
p2665
I1
sVd5rr8yg
p2666
I4
sVd2g1dsv
p2667
I1
sVd15ue31
p2668
I1
sVd1wlyqp
p2669
I1
sVcz5e0nj
p2670
I1
sVdiohyeb
p2671
I2
sVdegsgl8
p2672
I1
sVdd7yuno
p2673
I1
sVdc9d6ur
p2674
I1
sVd4x573m
p2675
I1
sVd1uhaoq
p2676
I1
sVdbynpdi
p2677
I1
sVda6ex7h
p2678
I1
sVdg7wo6d
p2679
I2
sVdsfjhwz
p2680
I1
sVdt34tph
p2681
I1
sVczjqeis
p2682
I1
sVcyuf7fn
p2683
I1
sVdo2uujw
p2684
I2
sVdip788g
p2685
I1
sVdgiinr0
p2686
I1
sVd13jynq
p2687
I1
sVdbwg4vu
p2688
I1
sVd0moea4
p2689
I1
sVd0hb860
p2690
I1
sVd5vgc5b
p2691
I1
sVdfbbjfv
p2692
I1
sVd0zd8oz
p2693
I1
sVcyirn3z
p2694
I1
sVd9awwqn
p2695
I1
sVd52hqdn
p2696
I1
sVdexgbcx
p2697
I1
sVde8wxvf
p2698
I1
sVddkn5cl
p2699
I1
sVd3z7ufn
p2700
I1
sVdp75ck8
p2701
I1
sVcyopdf2
p2702
I1
sVdbhfsv3
p2703
I1
sVcyy9l8k
p2704
I1
sVd5upx5r
p2705
I1
sVd2thj82
p2706
I1
sVdpsa5rz
p2707
I1
sVd5vbuos
p2708
I1
sVd09wkue
p2709
I1
sVdk6lt8v
p2710
I1
sVdf8lcn9
p2711
I1
sVddvo0pr
p2712
I1
sVd7ad15e
p2713
I1
sVd39sydj
p2714
I1
sVdke1wzm
p2715
I1
sVdfkicl0
p2716
I1
sVd0uoswm
p2717
I1
sVd118bq5
p2718
I1
sVdplhfct
p2719
I1
sVdjkoar8
p2720
I1
sVd39fq7k
p2721
I1
sVddsz7hm
p2722
I1
sVcz72giy
p2723
I1
sVdh51tct
p2724
I1
sVd47om8j
p2725
I1
sVd9rixzz
p2726
I1
sVdsi2m34
p2727
I1
sVdi84vr9
p2728
I1
sVcz8u1ez
p2729
I1
sVd1s7m5n
p2730
I1
sVdmqd893
p2731
I1
sVd4p2ioy
p2732
I1
sVdql1wcm
p2733
I2
sVdgf3gwm
p2734
I1
sVddu2yr4
p2735
I1
sVdf6etnf
p2736
I1
sVdfbldvo
p2737
I1
sVdew616u
p2738
I1
sVdf91sm7
p2739
I1
sVdeym8ho
p2740
I1
sVd9cz82i
p2741
I1
sVdf3yca0
p2742
I1
sVdcqalps
p2743
I1
sVd05noqn
p2744
I1
sVcysnyu7
p2745
I1
sVdcky8f6
p2746
I1
sVde5psov
p2747
I1
sVdakrrwn
p2748
I1
sVddxpff6
p2749
I1
sVd0mupuy
p2750
I4
sVdc9kdii
p2751
I1
sVd3rcxdu
p2752
I1
sVdaqpp2b
p2753
I1
sVddpxai3
p2754
I3
sVd484e4g
p2755
I1
sVd1pyi03
p2756
I1
sVdft10z3
p2757
I1
sVd7hazu8
p2758
I1
sVdjf68ys
p2759
I2
sVd3fe1py
p2760
I1
sVdb3bvq8
p2761
I1
sVdhy7iv6
p2762
I1
sVcyy2tpo
p2763
I3
sVczatqog
p2764
I1
sVdjo2l8w
p2765
I1
sVd4npcxc
p2766
I1
sVd1gv9jh
p2767
I1
sVdku7rk3
p2768
I1
sVdbksx34
p2769
I1
sVd9iusb4
p2770
I1
sVcykj6nb
p2771
I1
sVdgf0hy9
p2772
I1
sVde81tii
p2773
I1
sVcyviioj
p2774
I1
sVdb99aqj
p2775
I1
sVd0fmii9
p2776
I2
sVdph3s2f
p2777
I1
sVd16hhvc
p2778
I1
sVdrne4mq
p2779
I1
sVdi2iwkj
p2780
I1
sVczsq2bq
p2781
I1
sVddqs69r
p2782
I1
sVdiofix3
p2783
I1
sVdsl5nef
p2784
I1
sVd14z1t6
p2785
I1
sVd7zbq9n
p2786
I1
sVdawk73z
p2787
I1
sVde9zxcu
p2788
I1
sVd5epqjk
p2789
I1
sVdgy5hko
p2790
I1
sVdsmk5oe
p2791
I1
sVdmn94hu
p2792
I1
sVd2p1zxc
p2793
I1
sVd67py54
p2794
I1
sVday8r52
p2795
I1
sVd44t0yj
p2796
I1
sVdfin8ta
p2797
I1
sVdh91373
p2798
I1
sVddn921n
p2799
I1
sVd7uk1tk
p2800
I1
sVczsf8lt
p2801
I1
sVdrth7je
p2802
I1
sVdkfyt4u
p2803
I1
sVd82i3yi
p2804
I1
sVdn06sli
p2805
I1
sVdkeqngh
p2806
I1
sVda2i7r1
p2807
I2
sVdmz9lzi
p2808
I1
sVd8bkt7r
p2809
I1
sVd2ks3x0
p2810
I3
sVd0il39e
p2811
I1
sVdhn9mra
p2812
I1
sVd51s1yb
p2813
I1
sVd286eo2
p2814
I2
sVdg0n6vt
p2815
I1
sVdcrrbua
p2816
I1
sVcyxhalu
p2817
I1
sVde711t0
p2818
I1
sVd3iul8a
p2819
I1
sVd4kocme
p2820
I1
sVdecty8a
p2821
I1
sVdbu8dnu
p2822
I1
sVd384rpl
p2823
I1
sVd4i8zrz
p2824
I1
sVd84hd2e
p2825
I2
sVdb6drys
p2826
I1
sVdafz4vl
p2827
I1
sVd9qyhen
p2828
I1
sVdhe3asb
p2829
I1
sVd989gvt
p2830
I1
sVdqx34jw
p2831
I1
sVdr7wj0j
p2832
I1
sVd0ld65r
p2833
I1
sVd3t47zd
p2834
I1
sVdq9yvtl
p2835
I1
sVd6dpuz3
p2836
I1
sVdcpzlva
p2837
I1
sVd7zyo2t
p2838
I1
sVd010yga
p2839
I1
sVd3pb8mw
p2840
I1
sVdd8yb6i
p2841
I1
sVda01vo9
p2842
I1
sVdk6pikn
p2843
I1
sVdqmyru4
p2844
I1
sVdjczjhm
p2845
I1
sVd4fps48
p2846
I2
sVdbu2rq4
p2847
I1
sVdhey7ry
p2848
I1
sVdjatckq
p2849
I3
sVdn13m40
p2850
I2
sVczsxgt8
p2851
I1
sVd5cpcpf
p2852
I1
sVd8v4o0j
p2853
I1
sVd3jo8vm
p2854
I1
sVczp3xst
p2855
I2
sVddjausx
p2856
I1
sVdmwbgxy
p2857
I1
sVdipw4vj
p2858
I2
sVdphv5lo
p2859
I1
sVdki1odr
p2860
I1
sVdi0jxt4
p2861
I2
sVdo648rh
p2862
I2
sVdmi1ldr
p2863
I1
sVdn0qtkd
p2864
I2
sVd1nva71
p2865
I2
sVdfny3fw
p2866
I1
sVdb7f2a6
p2867
I1
sVd47ntw8
p2868
I1
sVd0ynug3
p2869
I1
sVczsco19
p2870
I1
sVdgvm8ua
p2871
I2
sVdnvleg6
p2872
I2
sVdbemlmf
p2873
I1
sVda9t52q
p2874
I1
sVd3rfpjs
p2875
I1
sVdb58nv9
p2876
I1
sVd3td6r6
p2877
I1
sVcz47n4g
p2878
I1
sVdgt8sl6
p2879
I1
sVcz8vyz1
p2880
I1
sVd48erix
p2881
I1
sVdo33zvl
p2882
I1
sVd4py8d1
p2883
I1
sVd5dbjp4
p2884
I1
sVdp6r3u2
p2885
I3
sVde9rftj
p2886
I1
sVddkf6mg
p2887
I1
sVd9vf0va
p2888
I2
sVd6wjegk
p2889
I2
sVdjnuk5u
p2890
I1
sVdqtqyd4
p2891
I1
sVd86csz2
p2892
I1
sVd8sryzp
p2893
I2
sVdcsvulg
p2894
I4
sVdk8i79r
p2895
I1
sVd0v4hwa
p2896
I1
sVd8lo85l
p2897
I1
sVd5zgj8a
p2898
I5
sVdn5hecs
p2899
I1
sVd1sc1y2
p2900
I1
sVd99gw2v
p2901
I1
sVd8r65ap
p2902
I1
sVdb3tmjz
p2903
I3
sVd3jr173
p2904
I1
sVdqy7phf
p2905
I1
sVddx2an1
p2906
I1
sVdoljxyk
p2907
I1
sVd8kpc55
p2908
I1
sVdkdc6ti
p2909
I1
sVd3tqzi5
p2910
I1
sVd1uzhjc
p2911
I1
sVdgf8kbu
p2912
I1
sVdrzvi6p
p2913
I1
sVdcviejc
p2914
I1
sVdmerx7l
p2915
I1
sVd2zgegh
p2916
I1
sVdbos33y
p2917
I1
sVd7m781q
p2918
I1
sVdeduqw1
p2919
I1
sVdinpo9x
p2920
I1
sVdteptg4
p2921
I1
sVczw4fgb
p2922
I3
sVcz8aom8
p2923
I1
sVd5h1abn
p2924
I1
sVd4w89am
p2925
I1
sVd598qtm
p2926
I5
sVdb2gcde
p2927
I1
sVdgbinhj
p2928
I1
sVdgma4oq
p2929
I1
sVd15dwby
p2930
I1
sVdnq5ifr
p2931
I1
sVd7w8j29
p2932
I1
sVdk4ybk2
p2933
I1
sVdb0h68a
p2934
I1
sVdpjc142
p2935
I1
sVd03fom7
p2936
I1
sVdrpr7kq
p2937
I1
sVd0y4u23
p2938
I2
sVd7t0tix
p2939
I1
sVdf3oye6
p2940
I1
sVdan4j96
p2941
I1
sVd68ogxw
p2942
I1
sVdk4ngjd
p2943
I1
sVdfiuj7r
p2944
I1
sVdowckdj
p2945
I1
sVdoe75yu
p2946
I1
sVd2p0ump
p2947
I1
sVdiujwo5
p2948
I1
sVd7sg9p1
p2949
I1
sVd1j2m1o
p2950
I1
sVcz83hw4
p2951
I1
sVd3rkxr3
p2952
I1
sVd0ohklk
p2953
I1
sVd1p9ens
p2954
I2
sVdc3sqr5
p2955
I1
sVd6rftk7
p2956
I1
sVdfmqw73
p2957
I1
sVd5exnpt
p2958
I1
sVd8279zi
p2959
I1
sVdotjgzy
p2960
I1
sVdaa1oiw
p2961
I1
sVd0dwmrl
p2962
I1
sVd0i6lks
p2963
I2
sVd7j6lz3
p2964
I1
sVd4pkyfm
p2965
I1
sVdiyps9l
p2966
I1
sVd45459n
p2967
I1
sVd44tiok
p2968
I1
sVdjr5nbe
p2969
I2
sVdi2xdeh
p2970
I1
sVd4nfp1o
p2971
I1
sVd27c4rp
p2972
I1
sVd6wa2sx
p2973
I1
sVd2kuyql
p2974
I1
sVdfa7l5s
p2975
I1
sVd3o8dr1
p2976
I1
sVdbvezrz
p2977
I5
sVd0r7rvc
p2978
I1
sVd59e2jz
p2979
I1
sVdsx7cci
p2980
I1
sVd4p28hu
p2981
I1
sVd1ynydx
p2982
I1
sVd4ob2r7
p2983
I1
sVd2lx5p3
p2984
I1
sVd9w2poq
p2985
I1
sVd7hyfzs
p2986
I2
sVdjs96sh
p2987
I1
sVdey9o04
p2988
I1
sVdb5aue1
p2989
I1
sVdcexve4
p2990
I1
sVdig6mlm
p2991
I1
sVcyjdabr
p2992
I2
sVd0m0vey
p2993
I1
sVdbxsbe3
p2994
I2
sVd4gelhh
p2995
I1
sVd897w80
p2996
I1
sVd2e5jlr
p2997
I4
sVd98qjd8
p2998
I1
sVcz25xv6
p2999
I2
sVd6uq4i8
p3000
I1
sVd01l4lt
p3001
I1
sVdsd2prk
p3002
I1
sVdq5sosh
p3003
I1
sVcyxdqaa
p3004
I1
sVdj3r8xc
p3005
I1
sVd0x6ntc
p3006
I1
sVdcjcwcb
p3007
I1
sVdo3292j
p3008
I1
sVdfnaowv
p3009
I1
sVd04ickw
p3010
I2
sVdb219ns
p3011
I1
sVczm7kje
p3012
I1
sVdmjjo6a
p3013
I1
sVczatlur
p3014
I1
sVd3qulms
p3015
I1
sVdpplx2h
p3016
I1
sVdgsn0dh
p3017
I1
sVczhjtvj
p3018
I1
sVdadhn2u
p3019
I1
sVd5ddvsu
p3020
I2
sVdekuhwp
p3021
I1
sVdcahuxt
p3022
I1
sVcysu1xt
p3023
I1
sVd3yyyaz
p3024
I1
sVdc0t3ww
p3025
I1
sVdja79qc
p3026
I1
sVd33cjuv
p3027
I1
sVd39yf9y
p3028
I1
sVd6svr8m
p3029
I4
sVcynhw8y
p3030
I1
sVd9m25jl
p3031
I1
sVd345knv
p3032
I1
sVdbbze9n
p3033
I1
sVd6dnmx5
p3034
I1
sVd2vn2au
p3035
I1
sVd2e1lij
p3036
I1
sVcz7kzvo
p3037
I1
sVdf9zthl
p3038
I1
sVd5ymnu9
p3039
I1
sVd7b5k0d
p3040
I1
sVdihmlgs
p3041
I1
sVddcofxu
p3042
I2
sVdho9ofo
p3043
I1
sVdswn53l
p3044
I1
sVde5gujh
p3045
I4
sVd0b8k42
p3046
I1
sVd68wcf6
p3047
I1
sVd8hbzal
p3048
I1
sVdgxk550
p3049
I1
sVd3guhb7
p3050
I1
sVd4l05kr
p3051
I1
sVcynnze2
p3052
I1
sVdn71hbl
p3053
I1
sVdptisef
p3054
I3
sVdgcuzah
p3055
I1
sVdszajso
p3056
I1
sVd6qg45h
p3057
I1
sVd33xkrw
p3058
I1
sVde6pnqw
p3059
I1
sVd6013cy
p3060
I1
sVd54al96
p3061
I1
sVdgeuv0v
p3062
I1
sVczf81g7
p3063
I1
sVdqwkyim
p3064
I1
sVd4jystw
p3065
I1
sVdeqtfbn
p3066
I1
sVdnzvt3e
p3067
I1
sVdnkich1
p3068
I1
sVdfv5xtm
p3069
I1
sVd29rrf8
p3070
I1
sVd2l67mx
p3071
I2
sVd8zjsu7
p3072
I1
sVdp6nebe
p3073
I2
sVdf51tpv
p3074
I1
sVdojlitu
p3075
I1
sVdizqqnx
p3076
I1
sVcyoj30r
p3077
I3
sVdf4xhxa
p3078
I2
sVd40duou
p3079
I1
sVdrt7283
p3080
I2
sVdjgw36k
p3081
I1
sVdrgs4qf
p3082
I3
sVdsf4wjm
p3083
I1
sVdd2zf7s
p3084
I1
sVcypufvi
p3085
I3
sVdfu5g4s
p3086
I1
sVdbe4qil
p3087
I1
sVda5f040
p3088
I2
sVdfxcxjn
p3089
I1
sVdjy2r8g
p3090
I1
sVd2aknsp
p3091
I1
sVdf7sypk
p3092
I1
sVdcghylh
p3093
I1
sVde49mp4
p3094
I1
sVcyn0gst
p3095
I1
sVdt887f9
p3096
I1
sVd7b0jqe
p3097
I1
sVdi1aa87
p3098
I1
sVd1c7yl2
p3099
I1
sVd1ivz41
p3100
I1
sVd246ice
p3101
I1
sVdh75x17
p3102
I1
sVdda19eq
p3103
I1
sVd18v6wg
p3104
I1
sVdadhexp
p3105
I2
sVde7gbmh
p3106
I1
sVd1hw2l0
p3107
I1
sVd79kah4
p3108
I1
sVd2glx77
p3109
I1
sVdgdvvvs
p3110
I1
sVczw1ig6
p3111
I1
sVd747c91
p3112
I1
sVd37s5ix
p3113
I1
sVd0jfmnm
p3114
I1
sVd626l9n
p3115
I1
sVd4odoyk
p3116
I1
sVd7eih34
p3117
I1
sVdifwmvn
p3118
I1
sVdjo0dxv
p3119
I1
sVdar1kef
p3120
I1
sVd9q9wch
p3121
I2
sVcyr70k7
p3122
I1
sVd7o0imc
p3123
I1
sVd7lmq7d
p3124
I1
sVd4pw15k
p3125
I1
s.