(dp0
Vd23zm66
p1
I1
sVdaflfda
p2
I2
sVd6d9ezs
p3
I1
sVcyrasl3
p4
I1
sVdfbbco6
p5
I2
sVdfwzm2x
p6
I1
sVd3au787
p7
I2
sVdctuxc7
p8
I1
sVdsfvbyu
p9
I1
sVdco93hh
p10
I1
sVded9osb
p11
I1
sVdjlxphw
p12
I2
sVdho198r
p13
I1
sVd0z1b9q
p14
I1
sVdk2rihd
p15
I1
sVdauc4b5
p16
I1
sVdeddppz
p17
I1
sVczlsxrq
p18
I1
sVddqs4b9
p19
I1
sVd473fhs
p20
I3
sVdri2no2
p21
I1
sVd9vmpfc
p22
I1
sVcyulbqm
p23
I1
sVdepenhh
p24
I1
sVded773r
p25
I2
sVczy5r7j
p26
I1
sVdmyd7jq
p27
I1
sVdql84cr
p28
I1
sVd9gwdnk
p29
I1
sVdgl4sfg
p30
I1
sVdqp7f5j
p31
I1
sVd0ht1ol
p32
I1
sVdg23yr0
p33
I1
sVd86cfdo
p34
I1
sVd861iix
p35
I1
sVdedbdhr
p36
I2
sVd2xns4f
p37
I1
sVdbdurp0
p38
I1
sVd7uggz3
p39
I1
sVczi1r1l
p40
I1
sVdpgp3fm
p41
I3
sVd7ds0bn
p42
I1
sVdedk181
p43
I2
sVd21otld
p44
I2
sVdcywua2
p45
I1
sVd2isgxx
p46
I1
sVdi7vp6v
p47
I2
sVd2l9lh0
p48
I1
sVdkrp07r
p49
I1
sVddt8lgf
p50
I2
sVdgzmgy3
p51
I1
sVcyzfx7o
p52
I1
sVdhmza2c
p53
I1
sVdo5hemp
p54
I1
sVd4wfecu
p55
I1
sVd0yx64h
p56
I1
sVd28qgsi
p57
I2
sVds4px6n
p58
I3
sVd6v45fk
p59
I2
sVdsfeag2
p60
I2
sVd5nmuj6
p61
I1
sVcyy8cg2
p62
I1
sVd5nr41r
p63
I1
sVdsfhbkp
p64
I3
sVdmtpk3g
p65
I1
sVd5nxrq5
p66
I1
sVddkfjf8
p67
I1
sVdj886lg
p68
I1
sVczfkk4n
p69
I1
sVcztbb72
p70
I1
sVcyvahgw
p71
I1
sVdr921jh
p72
I1
sVdmk5xs4
p73
I1
sVdo5712t
p74
I1
sVd0fn12f
p75
I1
sVd0m0ywk
p76
I1
sVd5szr4l
p77
I1
sVdjyduxa
p78
I1
sVd0tm68p
p79
I1
sVdh7mk0f
p80
I2
sVdj9lfrx
p81
I1
sVdjg4knx
p82
I1
sVd7nuv1b
p83
I4
sVd5cisva
p84
I1
sVdedb139
p85
I1
sVdjmmdto
p86
I1
sVdt7tm8m
p87
I1
sVd1u2vsj
p88
I1
sVd3i02co
p89
I1
sVdedk5a8
p90
I1
sVdhbac0x
p91
I1
sVd6ptquh
p92
I3
sVdeypiks
p93
I2
sVdjlclvv
p94
I2
sVd08id9m
p95
I2
sVd3m6bbj
p96
I1
sVd9re3f3
p97
I1
sVdh0g8mj
p98
I1
sVdt5s69l
p99
I3
sVdfkl18h
p100
I1
sVdgn1yl1
p101
I1
sVddwof0n
p102
I1
sVded7bpp
p103
I1
sVdkg78lr
p104
I1
sVdj8gu1b
p105
I5
sVd5gso6x
p106
I2
sVd40r9qw
p107
I1
sVddbadrs
p108
I1
sVdgfpnxd
p109
I1
sVd71jwu9
p110
I1
sVdg2czx4
p111
I2
sVd8nv41b
p112
I1
sVd16qbed
p113
I1
sVczt6e1w
p114
I1
sVdji8y8v
p115
I1
sVdfvj854
p116
I1
sVdff5a44
p117
I1
sVd1syrpq
p118
I1
sVdav0m7j
p119
I1
sVd0thiuw
p120
I1
sVd1agz5z
p121
I1
sVdeda9bm
p122
I3
sVdifq67l
p123
I1
sVdrvxu7p
p124
I1
sVdju18zx
p125
I1
sVd4rqayo
p126
I1
sVdbl66ug
p127
I1
sVdfwlj57
p128
I1
sVdg1vvbv
p129
I1
sVddsb4g5
p130
I1
sVdox4igz
p131
I1
sVcz3cg8x
p132
I1
sVd04zkvb
p133
I1
sVdhe2oqq
p134
I1
sVd5ucz85
p135
I2
sVcz8k620
p136
I1
sVdjk02x4
p137
I1
sVdguyd7b
p138
I8
sVde35921
p139
I1
sVd4hfk8h
p140
I1
sVdnuvo4m
p141
I1
sVczc56rw
p142
I1
sVd3zlab3
p143
I1
sVddq91z8
p144
I3
sVd0bi3sy
p145
I1
sVd7mblfj
p146
I1
sVded794h
p147
I2
sVdbrj36l
p148
I1
sVd6lvjbv
p149
I1
sVdedapsb
p150
I1
sVd5avcir
p151
I1
sVczokfxt
p152
I2
sVdk7mwgj
p153
I1
sVd7j90vk
p154
I1
sVdcy56o3
p155
I1
sVdcwo5jq
p156
I1
sVd3a93og
p157
I1
sVdmpkg5i
p158
I2
sVd1eo020
p159
I1
sVdotw7eb
p160
I1
sVdpyderf
p161
I1
sVd4agwpg
p162
I1
sVd5udg77
p163
I1
sVdfqcuj7
p164
I2
sVdp2lmoa
p165
I1
sVcyu3kmi
p166
I2
sVd09u58a
p167
I1
sVd0u16s5
p168
I1
sVd2gwzeq
p169
I2
sVd0v3nx9
p170
I1
sVd9geqt5
p171
I1
sVczcjlf3
p172
I1
sVdb4qx7y
p173
I1
sVde0m24k
p174
I2
sVd2y1qwb
p175
I1
sVdahpjkg
p176
I2
sVdf3t9b5
p177
I1
sVdqvhvth
p178
I1
sVdgvu7o6
p179
I2
sVdj24te0
p180
I1
sVd5xmdjv
p181
I1
sVdstsq7p
p182
I2
sVdctuvhv
p183
I1
sVdj8uwp5
p184
I5
sVdddpv07
p185
I1
sVdb72fiz
p186
I1
sVd9nddgy
p187
I1
sVdct00wn
p188
I1
sVd07697a
p189
I1
sVdg46tla
p190
I2
sVcyibugh
p191
I1
sVdedh8v9
p192
I1
sVdj4qrai
p193
I1
sVd7t3fyo
p194
I1
sVd66q26v
p195
I1
sVdrwokpw
p196
I1
sVd3tqx00
p197
I1
sVczmh7cs
p198
I1
sVdeddme7
p199
I1
sVcyr6lrc
p200
I1
sVdk21dzv
p201
I1
sVd9r5ti3
p202
I1
sVdbt9u33
p203
I1
sVdi7xtk0
p204
I1
sVcynxdy1
p205
I1
sVdeq59ny
p206
I1
sVdq7tbp4
p207
I1
sVdpxv1zz
p208
I1
sVdi6zj3t
p209
I3
sVdbmxssl
p210
I1
sVcznrknd
p211
I1
sVdsppzpu
p212
I3
sVdazrcr3
p213
I1
sVdfgnwvj
p214
I2
sVd5hkfy7
p215
I1
sVds4mxyh
p216
I1
sVdbympia
p217
I1
sVdedskcc
p218
I1
sVdnjhzjq
p219
I1
sVd393stt
p220
I1
sVdo4jd3m
p221
I5
sVd0kxj9f
p222
I2
sVdi35uq8
p223
I1
sVczwatwt
p224
I1
sVdfwqz7b
p225
I1
sVd2kc5re
p226
I1
sVdnq8mk4
p227
I4
sVd68mp90
p228
I1
sVd34ks79
p229
I1
sVd1xcfbr
p230
I1
sVczaubn9
p231
I1
sVd0y33oq
p232
I1
sVd6xrl0x
p233
I1
sVd8r0297
p234
I2
sVdjy8kgn
p235
I1
sVd6b17na
p236
I1
sVdc4i5e5
p237
I1
sVdh1mmrx
p238
I2
sVdom6s4a
p239
I3
sVd1p951p
p240
I1
sVd9wmtqi
p241
I1
sVcys3ywx
p242
I1
sVd1btwvq
p243
I1
sVdcisvpw
p244
I1
sVczabulf
p245
I2
sVdpno1mn
p246
I1
sVdr0bk1p
p247
I1
sVdnfvod7
p248
I1
sVdedbk3k
p249
I3
sVdihegha
p250
I2
sVd88xd4y
p251
I2
sVdfbnzql
p252
I1
sVdjjnwgo
p253
I1
sVd7zqn85
p254
I1
sVdftrggz
p255
I1
sVdgst2s0
p256
I4
sVdh2mq6x
p257
I1
sVd709lvu
p258
I1
sVd9r93k2
p259
I2
sVdbxqjvl
p260
I1
sVdedygtz
p261
I1
sVdccd14f
p262
I1
sVd2y1z5a
p263
I1
sVd0vjco9
p264
I1
sVdjqi3nq
p265
I1
sVdq13l59
p266
I1
sVd2isu4o
p267
I1
sVddhwvk8
p268
I1
sVd6us8ue
p269
I1
sVdfamwqw
p270
I1
sVdco6esh
p271
I3
sVd18fzuf
p272
I9
sVd5n0b44
p273
I1
sVddwbs2k
p274
I1
sVdhiz8z6
p275
I1
sVdo4zv75
p276
I5
sVdcvq7gc
p277
I2
sVd50agec
p278
I1
sVd1ng9jv
p279
I1
sVd4fps48
p280
I2
sVdiwxnao
p281
I2
sVdtadif7
p282
I1
sVdb5awx0
p283
I1
sVdazokz9
p284
I1
sVd3wpgql
p285
I1
sVdgws604
p286
I2
sVdgbnjp1
p287
I6
sVd1wn3v3
p288
I1
sVdt48bsm
p289
I1
sVdey86s3
p290
I1
sVdae3h7c
p291
I7
sVdar1kef
p292
I1
sVdagwa4y
p293
I1
sVd6b4mka
p294
I1
sVd6gted7
p295
I1
sVd61du7e
p296
I2
sVdflemaf
p297
I4
sVd6i8t64
p298
I4
sVdhxru6c
p299
I1
sVd80ua2k
p300
I1
sVdh2lc5a
p301
I1
sVd8w1w81
p302
I1
sVded8fqu
p303
I1
sVd5r8tbq
p304
I3
sVd59i444
p305
I2
sVczw16e7
p306
I3
sVdgbiy2g
p307
I1
sVdd2bsyo
p308
I1
sVd7uq7ks
p309
I1
sVdft8k8e
p310
I1
sVdf808e8
p311
I3
sVdhfslir
p312
I1
sVdjor5hd
p313
I1
sVd6xtv28
p314
I1
sVcyntynd
p315
I1
sVd0trl9e
p316
I1
sVdhay75y
p317
I1
sVd7gspij
p318
I1
sVd2ia9id
p319
I1
sVdct08z4
p320
I4
sVcyiuyk3
p321
I1
sVdppqgnj
p322
I1
sVdee3d2r
p323
I1
sVdire2wo
p324
I1
sVd34lxq7
p325
I2
sVddfk2rp
p326
I1
sVdgdnpq7
p327
I1
sVdckljyu
p328
I1
sVdhtcp94
p329
I2
sVdalmdlz
p330
I1
sVd5kxg5l
p331
I1
sVd4d1jzg
p332
I6
sVdcfik3k
p333
I1
sVdbl7m9b
p334
I3
sVdehgz92
p335
I1
sVd50j8u2
p336
I1
sVdo6gxgi
p337
I2
sVcymtjxp
p338
I1
sVd5yroyq
p339
I2
sVcymt98o
p340
I1
sVdhtkcfz
p341
I1
sVdamh1tv
p342
I4
sVd1kk4op
p343
I1
sVdeyuhcd
p344
I1
sVddb1eaz
p345
I1
sVd53tqlg
p346
I1
sVdfgejkl
p347
I1
sVdede3kd
p348
I1
sVdi7fyew
p349
I1
sVd0hb9om
p350
I1
sVd10k20n
p351
I1
sVdctaue9
p352
I1
sVdevnq3v
p353
I1
sVdgxsylm
p354
I1
sVdh7xpmy
p355
I2
sVdt1ieul
p356
I2
sVde6aem8
p357
I1
sVd7usbqm
p358
I1
sVd72dbin
p359
I1
sVd3b17me
p360
I1
sVdjntc0n
p361
I1
sVdf8vzeq
p362
I1
sVd82y30k
p363
I1
sVd31oju1
p364
I1
sVd3ouxox
p365
I1
sVdjczwlr
p366
I1
sVddqxbq9
p367
I1
sVdeelyy7
p368
I1
sVdo5ue37
p369
I2
sVdqyzij3
p370
I1
sVczpp8qq
p371
I1
sVdpjldw1
p372
I2
sVd6dnmx5
p373
I1
sVd1t0mij
p374
I1
sVd2tekuo
p375
I1
sVddgw29r
p376
I1
sVd6hfzip
p377
I1
sVde8069e
p378
I2
sVd1nl470
p379
I1
sVczhk5z9
p380
I1
sVdcp8yzo
p381
I1
sVdfa30mq
p382
I1
sVdb24ig2
p383
I1
sVdp1r44a
p384
I1
sVdgvn0f2
p385
I1
sVd2sgbh2
p386
I1
sVd3w0zfj
p387
I2
sVdbrboq1
p388
I1
sVdgjy303
p389
I1
sVddcgbif
p390
I1
sVd0atmpg
p391
I1
sVd3ufj2e
p392
I1
sVd0dudgu
p393
I1
sVd5inedu
p394
I1
sVddzj6yb
p395
I2
sVdn4g3us
p396
I1
sVdpuwatc
p397
I2
sVdgvlbbn
p398
I1
sVd70zcxa
p399
I1
sVd4y1vzp
p400
I2
sVdplmy9y
p401
I3
sVd4iyvsf
p402
I1
sVd3r1zsx
p403
I1
sVd3uaeer
p404
I4
sVdsq2t2m
p405
I1
sVd0nr0ly
p406
I1
sVdrt30xy
p407
I1
sVczfk9je
p408
I1
sVd0ny7n6
p409
I1
sVd4w8dx0
p410
I1
sVdb5evvb
p411
I1
sVd6hg1l7
p412
I2
sVd490ey9
p413
I1
sVd0ciq98
p414
I5
sVdfipsdt
p415
I1
sVd5r4gu6
p416
I1
sVdptw7sj
p417
I1
sVdee2b3g
p418
I1
sVd2g6rhf
p419
I1
sVde32635
p420
I1
sVd5fmb40
p421
I1
sVd8d7y54
p422
I2
sVdsl9qbs
p423
I2
sVdnfn597
p424
I1
sVddcbs9o
p425
I1
sVd412rnh
p426
I1
sVdkyyejp
p427
I1
sVdjp9g7e
p428
I1
sVdrpyk24
p429
I1
sVdd0k6d0
p430
I1
sVdh3sgxt
p431
I1
sVdaphgz8
p432
I1
sVd39izmc
p433
I1
sVdqky25p
p434
I1
sVdbfxgty
p435
I1
s.