(dp0
Vcyqt6hu
p1
I1
s.(dp0
Vcyqt6hu
p1
I1
sVcysdkbw
p2
I1
s.(dp0
Vcyqt6hu
p1
I1
sVcyywmt7
p2
I1
s.(dp0
Vcyqt6hu
p1
I1
sVd0afpf5
p2
I1
s.(dp0
Vcyqt6hu
p1
I1
sVd0er7qm
p2
I1
s.(dp0
Vcyqt6hu
p1
I1
sVd0er7qm
p2
I1
s.(dp0
Vcyqt6hu
p1
I1
sVd17gbrt
p2
I1
s.(dp0
Vcyqt6hu
p1
I1
sVd1epuxf
p2
I1
s.(dp0
Vcyqt6hu
p1
I1
sVd1qsx23
p2
I1
s.(dp0
Vcyqt6hu
p1
I1
sVd3tarrh
p2
I1
s.(dp0
Vcyqt6hu
p1
I1
sVd51q97z
p2
I1
s.(dp0
Vd6043yy
p1
I1
sVcyqt6hu
p2
I1
s.(dp0
Vcyqt6hu
p1
I1
sVd6n8sce
p2
I1
s.(dp0
Vcyqt6hu
p1
I1
sVd7echwq
p2
I1
s.(dp0
Vcyqt6hu
p1
I1
sVd7r8rrn
p2
I1
s.(dp0
Vcyqt6hu
p1
I1
sVd9781p3
p2
I1
s.(dp0
Vcyqt6hu
p1
I1
sVd97cpwq
p2
I1
s.(dp0
Vcyqt6hu
p1
I1
sVdd3aaol
p2
I1
s.(dp0
Vdeh3x6k
p1
I1
sVcyqt6hu
p2
I1
s.(dp0
Vdeh3x6k
p1
I1
sVcyqt6hu
p2
I1
s.(dp0
Vcyqt6hu
p1
I1
sVdh58ftw
p2
I1
s.(dp0
Vcyqt6hu
p1
I1
sVdkz8v39
p2
I1
s.(dp0
Vcyqt6hu
p1
I1
sVdkz8v39
p2
I1
s.(dp0
Vcyqt6hu
p1
I1
sVdmf8q0z
p2
I1
s.(dp0
Vcyqt6hu
p1
I1
sVdmf8q0z
p2
I1
s.(dp0
Vcyqt6hu
p1
I1
sVdmf8q0z
p2
I1
s.(dp0
Vcyqt6hu
p1
I1
sVdmf8q0z
p2
I1
s.(dp0
Vcyqt6hu
p1
I1
sVdmf8q0z
p2
I1
s.(dp0
Vcyqt6hu
p1
I1
sVdmfc88e
p2
I1
s.(dp0
Vcyqt6hu
p1
I1
sVdqiwen2
p2
I1
s.(dp0
Vcyqt6hu
p1
I1
sVdqiwen2
p2
I1
s.(dp0
Vds55ioh
p1
I1
sVcyqt6hu
p2
I1
s.