(dp0
Vdfebgos
p1
I1
sVda2gtds
p2
I1
sVd6khj2o
p3
I1
sVdcl4x04
p4
I1
sVd91kocu
p5
I1
sVd7eek9d
p6
I1
sVdi5h17u
p7
I1
sVczdqnnc
p8
I1
sVczmduez
p9
I1
sVdjlclvv
p10
I1
sVdh9kadp
p11
I1
sVdj1n00w
p12
I1
sVdqinris
p13
I1
sVd5hcpde
p14
I1
sVdh4v6l4
p15
I1
sVd99qyg2
p16
I3
sVddth0gb
p17
I1
sVd0q8lca
p18
I1
sVdkfp1xc
p19
I1
sVdcadkv5
p20
I1
sVdc86mk4
p21
I1
sVddibk82
p22
I1
sVd8lmduc
p23
I2
sVczuhfhn
p24
I4
sVde87syd
p25
I1
sVd2eyysj
p26
I3
sVdajd7d7
p27
I1
sVd05xoln
p28
I1
sVdfx2673
p29
I4
sVd1nd9b0
p30
I1
sVdbqvpd4
p31
I1
sVdfh8xt7
p32
I1
sVdfyk3qj
p33
I1
sVd4z3qno
p34
I1
sVdhdyww0
p35
I1
sVdh0je5n
p36
I1
sVdqjs0v6
p37
I1
sVdayqgj5
p38
I1
sVd0g2bwa
p39
I1
sVd9fq6g4
p40
I1
sVd28q7un
p41
I2
sVdqer4rk
p42
I1
sVdk16b58
p43
I1
sVd2yrw9b
p44
I1
sVczibwfm
p45
I2
sVd0glv7e
p46
I1
sVd97hzqm
p47
I1
sVd0jecuc
p48
I2
sVd22sx4p
p49
I1
sVdbqewss
p50
I1
sVdg3n2ze
p51
I1
sVdggur6a
p52
I1
sVd0m292z
p53
I1
sVdcgipfo
p54
I1
sVd4eqq4n
p55
I1
sVdcwa2by
p56
I1
sVddi4dm9
p57
I1
sVdbdjx5u
p58
I1
sVdgd2zoy
p59
I1
sVdkk6to3
p60
I1
sVdnz6mu7
p61
I1
sVdt8zdhx
p62
I1
sVde1bbj1
p63
I1
sVdj1wavo
p64
I1
sVd1n4prh
p65
I1
sVd36tzfm
p66
I1
sVd34gr6y
p67
I1
sVcyvazhw
p68
I1
sVdjcouhs
p69
I1
sVd3vkqdk
p70
I2
sVd1z0kmj
p71
I1
sVd003bxq
p72
I1
sVd1xkoek
p73
I1
sVd4odqhv
p74
I1
sVdk2jaby
p75
I1
sVd9muhf5
p76
I2
sVdamckxr
p77
I1
sVdepj4fy
p78
I1
sVdc10e9v
p79
I1
sVdepeiuk
p80
I1
sVczf1hys
p81
I1
sVdsi7mzp
p82
I1
sVd29y1j9
p83
I1
sVd3n0q7z
p84
I1
sVdbx744s
p85
I1
sVdi3hbcb
p86
I1
sVd4gi55v
p87
I1
sVcyjq3a7
p88
I1
sVdcqpp4u
p89
I1
sVdae4pzp
p90
I1
sVd3l5n65
p91
I1
sVdml0w56
p92
I1
sVda1gjyr
p93
I1
sVd67hz1g
p94
I1
sVd9va66g
p95
I2
sVd2amd6i
p96
I1
sVcyp7e91
p97
I2
sVdca6nqs
p98
I1
sVdp7pc8f
p99
I1
sVdi8iw7v
p100
I2
sVcyiznix
p101
I1
sVd9dhy0s
p102
I1
sVdge158u
p103
I1
sVdh6717e
p104
I1
sVde77wv4
p105
I1
sVddw7w4q
p106
I1
sVdkg2mmc
p107
I1
sVdrke32u
p108
I1
sVdc7c58x
p109
I1
sVd884laz
p110
I1
sVd5y586t
p111
I1
sVdh63cw8
p112
I1
sVdbgmhgh
p113
I1
sVd3zoizi
p114
I1
sVdbfngqh
p115
I1
sVd8z3oon
p116
I1
sVdienluh
p117
I1
sVd3z3qdk
p118
I1
sVdg6a00f
p119
I2
sVdg5n75u
p120
I1
sVd96rosx
p121
I1
sVd73qbgb
p122
I2
sVd8uafpk
p123
I1
sVdnb0mud
p124
I1
sVd3fv55a
p125
I1
sVd55ybgo
p126
I1
sVdcqzbvp
p127
I1
sVd4kh6xm
p128
I1
sVdhwhy9j
p129
I1
sVdbyaqvq
p130
I1
sVdc3l425
p131
I1
sVdk4e709
p132
I1
sVd7k8yvw
p133
I1
sVd6ruozl
p134
I1
sVd01aw3z
p135
I1
sVd39j0dh
p136
I1
sVdn61n80
p137
I1
sVds37b7t
p138
I1
sVdghc93i
p139
I1
sVddd0k71
p140
I1
sVd11t7yt
p141
I1
sVd91fw9t
p142
I3
sVdc1kpgr
p143
I1
sVdb3lz09
p144
I1
sVd7pbb8n
p145
I1
sVd2xz7ae
p146
I1
sVdpucli1
p147
I1
sVdfiryri
p148
I1
sVdih0pya
p149
I1
sVdc8xxzp
p150
I1
sVd2bqt1c
p151
I1
sVdbxbxmf
p152
I1
sVd3ytcdk
p153
I1
sVd9b0n8y
p154
I1
sVdcgf4kr
p155
I1
sVd8q3jjh
p156
I2
sVd11l4uv
p157
I1
sVd9xtdod
p158
I1
sVdd3a3i9
p159
I2
sVdnh2opg
p160
I1
sVdhrkl4l
p161
I1
sVdndm9am
p162
I1
sVd7remaz
p163
I1
sVdbi7pg9
p164
I1
sVdfs3i6d
p165
I1
sVd2kvodr
p166
I2
sVd9dk02d
p167
I1
sVd0dmtjp
p168
I2
sVd7z47cv
p169
I1
sVdihxovo
p170
I1
sVda35ef0
p171
I1
sVd3cccd7
p172
I1
sVd4gm8df
p173
I1
sVdojelmi
p174
I1
sVdd37aei
p175
I1
sVdgc9zf2
p176
I1
sVdghjetk
p177
I1
sVd2e8z0e
p178
I1
sVczd9qsq
p179
I1
sVde4vmvi
p180
I1
sVdbocp96
p181
I1
sVdnjakhp
p182
I1
sVd1k7nvv
p183
I1
sVd2d7w28
p184
I1
sVdfrth4i
p185
I1
sVd9vbzmb
p186
I1
sVd9e1wt8
p187
I1
sVdohlg60
p188
I1
sVd792xa6
p189
I1
sVcypjsr3
p190
I1
sVdqeev7d
p191
I1
sVd3g3bxb
p192
I2
sVdr3aoro
p193
I1
sVdb8l280
p194
I1
sVdehga8i
p195
I1
sVdphrdra
p196
I1
sVdsfsbmq
p197
I1
sVd0av0n3
p198
I4
sVd1sl8xl
p199
I1
sVd4n1fvh
p200
I1
sVdqfvssk
p201
I1
sVcyhy2e4
p202
I1
sVd2onbas
p203
I1
sVdj6wu2x
p204
I1
sVddbklu5
p205
I1
sVd37xwgx
p206
I3
sVd3clxd1
p207
I3
sVdbqfun4
p208
I2
sVdfe32rg
p209
I1
sVdfdnx3z
p210
I2
sVdgq8acq
p211
I1
sVd2y8uf4
p212
I1
sVd1joicw
p213
I1
sVdexfzvo
p214
I1
sVd7witx0
p215
I1
sVd0w8bwx
p216
I1
sVd2m7e0i
p217
I1
sVdq4jp5k
p218
I1
sVdeioh8l
p219
I1
sVdn6wz57
p220
I2
sVdgxe4dg
p221
I1
sVd50z3ia
p222
I1
sVczwis6s
p223
I1
sVddt3q8v
p224
I1
sVd7st8p7
p225
I1
sVdggboxw
p226
I3
sVddp5bnf
p227
I1
sVdd0xdam
p228
I1
sVdfdyush
p229
I1
sVda85llp
p230
I1
sVd6aktsn
p231
I2
sVczkd5qx
p232
I1
sVd11nbm8
p233
I2
sVdnul7se
p234
I1
sVd3z8poo
p235
I1
sVdon83mo
p236
I1
sVd0adxa2
p237
I1
sVd2aj37q
p238
I1
sVd0f8nwv
p239
I1
sVdqs5h3j
p240
I1
sVdnzkdxw
p241
I3
sVdeq6ogd
p242
I1
sVd57wljn
p243
I1
sVdtbtsw0
p244
I1
sVd6r603h
p245
I1
sVd5yiuvg
p246
I1
sVdq6vxpo
p247
I1
sVd6m9aqm
p248
I1
sVd6k99x1
p249
I1
sVda00fa6
p250
I2
sVd9leaau
p251
I1
sVdpsusuq
p252
I1
sVd8w8zca
p253
I1
sVd2ywhx5
p254
I2
sVd95n6od
p255
I1
sVd0wver5
p256
I2
sVd6k9seo
p257
I1
sVczjru85
p258
I1
sVd9i7qa3
p259
I1
sVd5yus4i
p260
I1
sVdaewy1k
p261
I1
sVda72hw2
p262
I1
sVd7r4f41
p263
I1
sVdn7vn0s
p264
I1
sVd43dcvf
p265
I1
sVd8haaw0
p266
I1
sVd357usz
p267
I2
sVdp6xxs5
p268
I1
sVd13xmbe
p269
I1
sVcyse4t9
p270
I1
sVdefxw0n
p271
I1
sVdj0jbzk
p272
I1
sVdi4bfyr
p273
I1
sVdi6fc2g
p274
I1
sVd3bhwbr
p275
I1
sVdip5yy3
p276
I1
sVd4unney
p277
I1
sVda4g2bj
p278
I1
sVcz8038q
p279
I1
sVdcuylym
p280
I2
sVd4i2ofw
p281
I1
sVdegnby0
p282
I1
sVdna4okk
p283
I1
sVdpqqkuj
p284
I1
sVd49lui9
p285
I1
sVd0zmf11
p286
I1
sVdhgi9w4
p287
I1
sVdgkrxfg
p288
I1
sVdjby4gn
p289
I1
sVdnm7igg
p290
I1
sVcyt0d11
p291
I1
sVdeo2lof
p292
I1
sVd3gozmo
p293
I2
sVde70x65
p294
I1
sVd57qjld
p295
I1
sVd2m7jzs
p296
I1
sVczby6iq
p297
I1
sVcyiianv
p298
I1
sVdjgglfx
p299
I1
sVd2qvvi5
p300
I1
sVdgk4k8y
p301
I1
sVd7ln9vb
p302
I1
sVdsxlytv
p303
I1
sVdd6qptc
p304
I1
sVdqznk2m
p305
I1
sVd4urq5h
p306
I1
sVdh4d29n
p307
I1
sVdk52xzo
p308
I1
sVd71jwu9
p309
I1
sVdpm1ko5
p310
I1
sVdihd0ud
p311
I1
sVdqhv9i7
p312
I1
sVddjbyaq
p313
I1
sVdo1xhv9
p314
I2
sVdfngysl
p315
I1
sVd8dru7j
p316
I1
sVd7rj7yo
p317
I3
sVdnrtabg
p318
I1
sVdd7jrvi
p319
I1
sVd7uouqy
p320
I1
sVdfoga4f
p321
I1
sVdcfqw9j
p322
I1
sVd5ug6ir
p323
I1
sVdda0jds
p324
I1
sVd3i0b6f
p325
I1
sVd4svoym
p326
I1
sVdbqz7hk
p327
I1
sVd7vl1hf
p328
I1
sVdhdhei1
p329
I1
sVdbet003
p330
I1
sVcyj24pa
p331
I1
sVdai1jvj
p332
I2
sVd0xi47y
p333
I1
sVd1o1nj2
p334
I1
sVd6er9v9
p335
I1
sVd43sy7d
p336
I1
sVdkxhjve
p337
I2
sVddwmndf
p338
I1
sVddi780i
p339
I1
sVd27cvhp
p340
I1
sVdjewp0g
p341
I1
sVddf6i49
p342
I1
sVd5shj5w
p343
I2
sVd2yiqyu
p344
I1
sVd2n7648
p345
I1
sVd4gqsbl
p346
I1
sVcz2b32k
p347
I1
sVdhfrmsl
p348
I1
sVdadlh40
p349
I1
sVdb5erwy
p350
I1
sVd0b7k0u
p351
I1
sVd30lsu9
p352
I1
sVd9mvcg5
p353
I1
sVcyltfld
p354
I1
sVdrmupdq
p355
I1
sVd6ifeq3
p356
I1
sVd1q0iw4
p357
I2
sVdmqooda
p358
I2
sVdstblag
p359
I1
sVd0ddzn6
p360
I1
sVdfoddih
p361
I1
sVddqm9sj
p362
I1
sVd3peyqm
p363
I1
sVder5ekz
p364
I1
sVdge9kq0
p365
I1
sVdky0ck4
p366
I1
sVdi9yws6
p367
I1
sVddqrwr6
p368
I1
sVdkpnx6f
p369
I1
sVdc9ab34
p370
I1
sVd5yhkvp
p371
I2
sVdhbu30v
p372
I2
sVd3uaad4
p373
I1
sVdethmrq
p374
I1
sVderc9ze
p375
I1
sVd3nn67h
p376
I2
sVddr6exl
p377
I1
sVdap3tuj
p378
I1
sVdhbepub
p379
I1
sVd9cwwzb
p380
I1
sVdtam2sl
p381
I2
sVdp2xv1k
p382
I1
sVd1dkex6
p383
I1
sVdesi30h
p384
I1
sVcyi30od
p385
I2
sVdda7bwo
p386
I1
sVd5b22kk
p387
I1
sVdrot3us
p388
I1
sVdk91jyj
p389
I1
sVd3gazki
p390
I1
sVd8u1g66
p391
I1
sVd0yfol9
p392
I1
sVdrr4rn2
p393
I1
sVdfim9l6
p394
I2
sVd7sxukr
p395
I1
sVd04zr6m
p396
I1
sVda5gd6l
p397
I1
sVdg7gnom
p398
I2
sVd1cl7c5
p399
I1
sVdeht9pk
p400
I1
sVczxt4nc
p401
I1
sVdigbtif
p402
I2
sVdb6i8se
p403
I1
sVd43c2gz
p404
I1
sVdos4i63
p405
I1
sVdjn9t2g
p406
I1
sVd0197gl
p407
I1
sVcz1ufs3
p408
I4
sVdmqrrfu
p409
I2
sVdhynxz1
p410
I1
sVd8rt0mv
p411
I1
sVd1vnxjh
p412
I1
sVdbdythg
p413
I1
sVd950yb8
p414
I2
sVdihtd9l
p415
I2
sVd28390q
p416
I1
sVdqjxwxk
p417
I1
sVd3dtvot
p418
I1
sVdbata94
p419
I1
sVd000qzc
p420
I1
sVdelw5h8
p421
I3
sVcz8ozt0
p422
I1
sVddhk4jv
p423
I1
sVdenu91t
p424
I1
sVd0dvc9y
p425
I1
sVdfans2b
p426
I1
sVdkkiv5t
p427
I1
sVd28vaz8
p428
I1
sVdojg292
p429
I1
sVd0aupon
p430
I1
sVd1681bi
p431
I1
sVczlz515
p432
I1
sVd1rzwt1
p433
I1
sVde7t16k
p434
I1
sVd4ayek7
p435
I1
sVd79k2a0
p436
I1
sVd5cvwy4
p437
I1
sVdgwlwnw
p438
I1
sVd03udiu
p439
I1
sVd1iqacj
p440
I1
sVd2bgwoa
p441
I1
sVd05kmeo
p442
I2
sVdpjmpow
p443
I1
sVcz8ctiq
p444
I1
sVdkesmr7
p445
I1
sVdjmz3fy
p446
I1
sVdcjyep0
p447
I1
sVdrrht54
p448
I1
sVdgdyd2d
p449
I1
sVd6qjnt6
p450
I1
sVd653nji
p451
I1
sVd5etfdx
p452
I1
sVdb57wbx
p453
I1
sVd1rcsav
p454
I1
sVd4z88wz
p455
I1
sVd1fey7j
p456
I1
sVd1agu6o
p457
I2
sVdqykqq0
p458
I1
sVd22ob4g
p459
I1
sVd0b0xl3
p460
I1
sVdccb24h
p461
I1
sVdhchqme
p462
I1
sVd0fi2bc
p463
I1
sVdjff7dg
p464
I1
sVd1c9p0n
p465
I1
sVdbkl6sp
p466
I1
sVdg6unzt
p467
I1
sVd0zr0dv
p468
I1
sVd4r1pj7
p469
I1
sVd3gqg3j
p470
I1
sVd09d5w1
p471
I2
sVdc1ebn0
p472
I1
sVd3cxccb
p473
I1
sVcz04z55
p474
I1
sVd4ng4s2
p475
I1
sVd8ngni9
p476
I1
sVdmfx331
p477
I1
sVd67rwd0
p478
I1
sVdd39lpz
p479
I1
sVcyhz9s7
p480
I1
sVczla36k
p481
I1
sVd7rcm7k
p482
I1
sVdgybpg0
p483
I1
sVdbpxmph
p484
I1
sVdd85fkt
p485
I1
sVdcrp6dw
p486
I2
sVd1q4y9x
p487
I1
sVd4rk1t5
p488
I1
sVdb0fy7s
p489
I2
sVdgy579v
p490
I1
sVdftkoqm
p491
I1
sVd0pn63r
p492
I1
sVd7qlgwc
p493
I2
sVd19n41s
p494
I1
sVd1lh337
p495
I1
sVdoavlf9
p496
I1
sVdn2rqjj
p497
I1
sVcyz73os
p498
I1
sVdjagv0f
p499
I1
sVd2gtpw8
p500
I1
sVdizpjqg
p501
I2
sVd0jcskc
p502
I1
sVdcbtrav
p503
I2
sVdbewzk1
p504
I1
sVdbxx4v7
p505
I1
sVdkzfxag
p506
I1
sVczh2c62
p507
I1
sVddq06om
p508
I1
sVd5n9eo3
p509
I1
sVd6cmxbh
p510
I1
sVd01ots7
p511
I1
sVd7xkcgc
p512
I2
sVdnet5pz
p513
I1
sVczxaz27
p514
I1
sVd4zkkhv
p515
I3
sVd4l1scm
p516
I1
sVdbwjm1r
p517
I1
sVdg87lo4
p518
I1
sVdbn28gn
p519
I1
sVd8pqj1a
p520
I1
sVd3l4hsf
p521
I2
sVdfoi2g3
p522
I1
sVdb1h7aj
p523
I1
sVdrdwq0i
p524
I1
sVd44t1li
p525
I1
sVdkcwwu7
p526
I1
sVdmikgfk
p527
I1
sVdsuo1sd
p528
I1
sVd3urke3
p529
I2
sVd02psyn
p530
I1
sVd7hsfwl
p531
I1
sVcz1noh7
p532
I1
sVdklekdw
p533
I1
sVcyixgez
p534
I1
sVdpuizjw
p535
I1
sVd1zx8j3
p536
I1
sVcznp2u5
p537
I1
sVd6tkaok
p538
I1
sVdcyap1c
p539
I1
sVd3150a2
p540
I1
sVddygyeh
p541
I1
sVd3i4won
p542
I2
sVdh52zja
p543
I2
sVd73zwks
p544
I1
sVd30ly18
p545
I1
sVdd39l9q
p546
I1
sVdc463aw
p547
I1
sVdf7pf88
p548
I1
sVcyretg2
p549
I2
sVdfckyaj
p550
I1
sVd0okwv3
p551
I2
sVd9dwynj
p552
I1
sVd454532
p553
I1
sVdoiuisb
p554
I1
sVdovdz5s
p555
I1
sVdaziq5m
p556
I1
sVcyspvvm
p557
I1
sVdtgq971
p558
I1
sVcz81f0l
p559
I1
sVd5dl73g
p560
I1
sVdfgqryo
p561
I1
sVdp8lcm4
p562
I2
sVd1r3kew
p563
I1
sVcz1u0hs
p564
I1
sVdh53yd6
p565
I1
sVdt47zkq
p566
I1
sVcyyxtnv
p567
I1
sVd5cb8ww
p568
I1
sVcyve721
p569
I1
sVd70y7tz
p570
I1
sVd7q68i0
p571
I1
sVddoj8ej
p572
I1
sVdetvcoh
p573
I1
sVd0yfwgp
p574
I1
sVcz58lbp
p575
I1
sVd475ut9
p576
I1
sVdechn9s
p577
I1
sVd9sj8to
p578
I2
sVdj1qaaf
p579
I1
sVddznflz
p580
I1
sVdjz1xpg
p581
I1
sVda1jr2v
p582
I1
sVddst68x
p583
I1
sVd299buv
p584
I1
sVdg6dq0l
p585
I1
sVdhg34of
p586
I1
sVd0xpa4u
p587
I1
sVd3no328
p588
I1
sVddf4ur7
p589
I1
sVdgge2sp
p590
I1
sVd94ebkd
p591
I1
sVdeyedm8
p592
I1
sVd5lfyzk
p593
I2
sVdfjxfxv
p594
I1
sVczac07o
p595
I1
sVd24g5rc
p596
I1
sVd4yv3kp
p597
I1
sVd1zl557
p598
I2
sVd2fnhc8
p599
I1
sVcz9xtbh
p600
I1
sVd5ausxd
p601
I1
sVd0elni8
p602
I1
sVdisx9im
p603
I1
sVd6vxogx
p604
I1
sVdaunyug
p605
I1
sVd40n5yw
p606
I1
sVdc8yya2
p607
I1
sVda42tmg
p608
I2
sVdevhlm6
p609
I1
sVd437a88
p610
I1
sVd6o5eej
p611
I1
sVdmihj5e
p612
I1
sVd9awsi8
p613
I1
sVdp6ag5a
p614
I1
sVdmfk49c
p615
I1
sVd51k19h
p616
I1
sVd0x7qnb
p617
I1
sVd111f93
p618
I1
sVdmfbnxr
p619
I1
sVd9yiirn
p620
I1
sVdfgkrf8
p621
I1
sVczollmu
p622
I1
sVdivmung
p623
I1
sVdcdejoi
p624
I1
sVdf99q5o
p625
I1
sVdkbyi29
p626
I1
sVd8lge1a
p627
I1
sVd19gjiv
p628
I1
sVd00p8jp
p629
I1
sVd8vyc5h
p630
I1
sVdetk970
p631
I1
sVde1ctgm
p632
I1
sVdb010le
p633
I1
sVdiovi0b
p634
I1
sVd9zbe47
p635
I1
sVdrkt0h5
p636
I1
sVdgbdet8
p637
I2
sVd1aafli
p638
I1
sVdgfscxh
p639
I1
sVdk1mark
p640
I2
sVdmolpxt
p641
I1
sVdjkrrxj
p642
I1
sVd1guk62
p643
I1
sVd1ah10n
p644
I1
sVdfkjnb1
p645
I1
sVddr2bf9
p646
I1
sVdtjh2yp
p647
I1
sVdexrqgu
p648
I2
sVd5ckw2g
p649
I1
sVd93ng54
p650
I1
sVd1g2llz
p651
I1
sVdn2ld4o
p652
I1
sVd1xe424
p653
I1
sVcz7kx58
p654
I1
sVd45yazc
p655
I1
sVdgy7vtt
p656
I1
sVd6ir1t7
p657
I1
sVczjrvbf
p658
I1
sVd1juep7
p659
I1
sVd9tkknh
p660
I2
sVd1emjzx
p661
I1
sVdsvghqx
p662
I1
sVdneroye
p663
I1
sVdftx2kc
p664
I1
sVdr3nf98
p665
I1
sVcyp03bi
p666
I1
sVdcnzk7t
p667
I1
sVdfrj828
p668
I1
sVd8t02g4
p669
I1
sVdqftrny
p670
I1
sVd1ayylf
p671
I1
sVdkxe1kq
p672
I1
sVdepl2o5
p673
I1
sVdn7jfch
p674
I2
sVdn72cr4
p675
I1
sVdhna25o
p676
I1
sVd10m8ut
p677
I1
sVd80gggm
p678
I1
sVd42ho2f
p679
I2
sVd7ip0vm
p680
I1
sVd0n9n0e
p681
I1
sVdhz5f6m
p682
I1
sVd5k133j
p683
I1
sVdemcids
p684
I1
sVd2w97an
p685
I1
sVdd2vvzk
p686
I1
sVdn3w7ns
p687
I2
sVdohhhng
p688
I1
sVdctnpzr
p689
I1
sVd83r5m9
p690
I1
sVczuxixh
p691
I1
sVdbr4guh
p692
I2
sVdqij8oc
p693
I1
sVcyp3f1d
p694
I1
sVd6fajp6
p695
I1
sVdgo379j
p696
I1
sVdihdni6
p697
I1
sVd8fjwph
p698
I1
sVd9x0i3i
p699
I3
sVcyt79ol
p700
I1
sVdhw96tp
p701
I1
sVdgv6143
p702
I1
sVcz4hsms
p703
I1
sVdhxqks0
p704
I1
sVcz56lz8
p705
I1
sVdnat6ir
p706
I1
sVdiyrrn0
p707
I1
sVdfjzaw0
p708
I1
sVd30p0rp
p709
I2
sVdcxva19
p710
I1
sVdknsen4
p711
I1
sVdnrrhn8
p712
I2
sVdecul39
p713
I1
sVdbuynrr
p714
I1
sVd9czct8
p715
I1
sVd4mt74h
p716
I1
sVd1l734r
p717
I1
sVdjwau29
p718
I1
sVdj5e6gl
p719
I1
sVd5qkimc
p720
I1
sVd20iotc
p721
I1
sVdqvzwvk
p722
I1
sVd8un85x
p723
I2
sVdjhbna9
p724
I4
sVdjtm9he
p725
I1
sVdq8bjzm
p726
I1
sVdhvbapr
p727
I1
sVdegrcva
p728
I2
sVdee4isz
p729
I1
sVdde8zms
p730
I1
sVdkgy9ko
p731
I1
sVdb1c1f1
p732
I1
sVd6ffj59
p733
I1
sVd8shgtu
p734
I3
sVd9jxcsm
p735
I1
sVdj6rqhx
p736
I1
sVczicicc
p737
I2
sVd97a3xw
p738
I1
sVdct02de
p739
I1
sVdml77mh
p740
I1
sVd342w7z
p741
I1
sVdohadq8
p742
I1
sVdngbfbr
p743
I1
sVd8nfs8s
p744
I1
sVd54s44f
p745
I1
sVdoi36mj
p746
I1
sVd1kxv2e
p747
I1
sVderb926
p748
I1
sVdklzy2s
p749
I1
sVdcxcs7s
p750
I1
sVdalr1hd
p751
I2
sVd0oeexk
p752
I1
sVdbrnxu0
p753
I5
sVdgalvth
p754
I1
sVczzxwov
p755
I1
sVdcj9mbo
p756
I1
sVdgw35ti
p757
I1
sVcyojvem
p758
I1
sVdjb1lzw
p759
I1
sVden4hnx
p760
I1
sVdt5kckf
p761
I3
sVd40r5e8
p762
I3
sVdfzxaiy
p763
I2
sVdh48m10
p764
I1
sVcztzb92
p765
I2
sVddbfnp8
p766
I2
sVd6vaj6b
p767
I1
sVdklxbvy
p768
I1
sVdjgkh66
p769
I1
sVdi6naki
p770
I1
sVdbptsu1
p771
I1
sVd79hj2g
p772
I1
sVd1yyrv7
p773
I1
sVd2c9ka3
p774
I1
sVddi54jl
p775
I1
sVdd6yagu
p776
I2
sVdn10tca
p777
I2
sVd03lvsp
p778
I1
sVdfbo4gz
p779
I1
sVdesyvrg
p780
I1
sVd7y1a1s
p781
I1
sVd7m9mlz
p782
I1
sVdb5g6xz
p783
I1
sVdjszsij
p784
I1
sVd9h72dm
p785
I1
sVdawida7
p786
I1
sVd6p8d00
p787
I1
sVd1rrb1d
p788
I1
sVdjztmtr
p789
I1
sVdd1oviv
p790
I1
sVd0qcdl9
p791
I1
sVdahr4da
p792
I1
sVdmjptyi
p793
I1
sVd37qlmp
p794
I1
sVdg7yp86
p795
I2
sVd5pej7g
p796
I1
sVd22775v
p797
I1
sVcz13rd1
p798
I1
sVdbgyw1g
p799
I2
sVdkapqd5
p800
I1
sVd4zbafq
p801
I1
sVd98b4br
p802
I1
sVd9ak2q9
p803
I1
sVdrpvj2a
p804
I1
sVdbpv2yn
p805
I1
sVdomvhyd
p806
I1
sVd8vyj8f
p807
I1
sVd3ba9xu
p808
I1
sVdcu9a4q
p809
I1
sVczjwqsp
p810
I1
sVdgzoo18
p811
I1
sVddweygr
p812
I1
sVdctmi42
p813
I2
sVd5e7ncd
p814
I1
sVdaczjel
p815
I1
sVd08fqa4
p816
I1
sVdf42twr
p817
I1
sVdjg94n2
p818
I1
sVde0kug6
p819
I1
sVdpaguyi
p820
I1
sVd580ccc
p821
I1
sVd85okdu
p822
I1
sVdq0vpt2
p823
I1
sVdqfcq3k
p824
I1
sVd0flzef
p825
I1
sVdcjyftv
p826
I3
sVdb3uvig
p827
I1
sVdggqx2i
p828
I1
sVd0f8gkm
p829
I1
sVdi5cjpm
p830
I1
sVdf6c96e
p831
I1
sVdiyroih
p832
I1
sVcznykio
p833
I1
sVd0wc34i
p834
I1
sVd1l3e17
p835
I1
sVd8yty73
p836
I2
sVddkta72
p837
I1
sVdpc9m6k
p838
I1
sVd5j0czf
p839
I1
sVd1byabh
p840
I1
sVdamrnah
p841
I1
sVczps0r8
p842
I1
sVd7hbjt0
p843
I1
sVd465g8q
p844
I1
sVdco4qzl
p845
I1
sVd1pj8s2
p846
I1
sVdhxmepy
p847
I1
sVdb7moip
p848
I1
sVdot3phi
p849
I1
sVdnkq9nv
p850
I1
sVddfl23a
p851
I1
sVdsxusna
p852
I1
sVdekdi28
p853
I1
sVdc61iek
p854
I1
sVdg5ahic
p855
I1
sVdt3y8o0
p856
I1
sVd487k8z
p857
I1
sVdklsyr8
p858
I1
sVdjnolo5
p859
I1
sVd1aapyo
p860
I1
sVd227kme
p861
I1
sVd9uaqyq
p862
I1
sVd503pzj
p863
I2
sVdf3li8o
p864
I2
sVdml44iq
p865
I1
sVdayqdxo
p866
I1
sVdih3rhq
p867
I1
sVd2arzul
p868
I1
sVcyz4za0
p869
I1
sVdgx3x8n
p870
I1
sVcz548li
p871
I1
sVddv8gbg
p872
I1
sVdteyho9
p873
I1
sVczb06i3
p874
I1
sVd2z3x7l
p875
I1
sVd1o62zy
p876
I1
sVdk8ihf1
p877
I1
sVdamh10b
p878
I1
sVd95p1r1
p879
I1
sVdefl2fk
p880
I1
sVd19eehu
p881
I1
sVdg1im2l
p882
I2
sVdbxtipt
p883
I1
sVd5b64te
p884
I1
sVd3zo0iy
p885
I1
sVdd5genl
p886
I1
sVd6881nw
p887
I1
sVdmeqz9l
p888
I1
sVdcq0ubp
p889
I1
sVd5vxyiu
p890
I1
sVd3a0nl4
p891
I1
sVd2ktsif
p892
I1
sVdskz8p5
p893
I1
sVd07lo4h
p894
I1
sVd6s8r4h
p895
I1
sVdai7bz1
p896
I1
sVd28664n
p897
I2
sVdo6azt5
p898
I1
sVdsb7779
p899
I1
sVd1bxu1u
p900
I3
sVd2i8t4v
p901
I1
sVd3zmvmj
p902
I1
sVdbwokjw
p903
I2
sVczzbig7
p904
I1
sVdfnhwsc
p905
I1
sVdd99lyu
p906
I1
sVdb6ny4d
p907
I1
sVd1abd0b
p908
I1
sVczu2udp
p909
I1
sVdd3jnkk
p910
I1
sVdgpzlf8
p911
I3
sVdgemp7o
p912
I1
sVdiwv5ct
p913
I1
sVd399u2x
p914
I1
sVdijpcyr
p915
I3
sVd1u5g55
p916
I1
sVdabr42t
p917
I4
sVcyz7zyl
p918
I1
sVdcrlpns
p919
I1
sVdcmi8v2
p920
I1
sVd3bvykb
p921
I1
sVdnis7wz
p922
I1
sVd03f220
p923
I1
sVd4f1njs
p924
I1
sVdhsmlib
p925
I1
sVdcksf0t
p926
I1
sVdbylymm
p927
I1
sVdamx4ws
p928
I1
sVdbmrjca
p929
I1
sVdfe1bnz
p930
I1
sVcz6mjzk
p931
I1
sVcyujys5
p932
I1
sVd8mvgk7
p933
I1
sVd0tjzd7
p934
I1
sVdfirr2h
p935
I1
sVd67smf7
p936
I2
sVdgvpod7
p937
I1
sVdbh29qm
p938
I1
sVd63x5dk
p939
I1
sVdbqmwic
p940
I1
sVd11ofrw
p941
I1
sVdh4i5c1
p942
I1
sVdefb74t
p943
I1
sVd2j35xj
p944
I1
sVd67vj0i
p945
I3
sVdsp2f4f
p946
I1
sVd1eib3p
p947
I1
sVdg6biko
p948
I1
sVd40tuqp
p949
I1
sVd45c4xc
p950
I1
sVdikmdk1
p951
I1
sVd6n2gg6
p952
I1
sVddwine9
p953
I1
sVdq3vlai
p954
I1
sVd8cl2pl
p955
I1
sVdeq09mx
p956
I1
sVdbeg2mi
p957
I1
sVdkmo9z5
p958
I1
sVdfwm4vl
p959
I1
sVddy9dmf
p960
I1
sVd12l8v4
p961
I2
sVd97dq6q
p962
I1
sVd974ehc
p963
I1
sVd1lv499
p964
I1
sVd2pvhav
p965
I2
sVdj7ai8w
p966
I1
sVd2jx3p2
p967
I1
sVd38vtxc
p968
I1
sVdfzwuwz
p969
I1
sVd9n3yup
p970
I1
sVcyw2o1d
p971
I1
sVdi8hq9q
p972
I1
sVdkwzw18
p973
I1
sVdihrdfd
p974
I1
sVdh01nns
p975
I1
sVd9de3pz
p976
I1
sVdaue8h9
p977
I1
sVda2rnpf
p978
I1
sVd8oemdi
p979
I1
sVd5gmwhf
p980
I1
sVd358p9u
p981
I1
sVdoj5htp
p982
I1
sVdbdsuw9
p983
I1
sVd1qv8t1
p984
I1
sVdqm9srg
p985
I1
sVdb5i63q
p986
I1
sVcz8p0tx
p987
I1
sVdh1qu4g
p988
I1
sVdj8k1yg
p989
I1
sVdbuevdr
p990
I1
sVd3stapy
p991
I1
sVdbk8trn
p992
I1
sVd6wh6fs
p993
I1
sVd3y3bgi
p994
I1
sVdt4htf7
p995
I1
sVd5wycge
p996
I1
sVd8x3ui0
p997
I1
sVd195pn9
p998
I1
sVdp92hsc
p999
I1
sVdejr388
p1000
I1
sVdfwajrt
p1001
I1
sVdc9ftr9
p1002
I1
sVcyimsh6
p1003
I1
sVd8vwi40
p1004
I1
sVd8a2crp
p1005
I1
sVda3osu0
p1006
I1
sVdjuq35f
p1007
I1
sVdnjo9l1
p1008
I1
sVd4bw8s5
p1009
I2
sVczeje32
p1010
I1
sVd0p7hzu
p1011
I1
sVdtbhu55
p1012
I1
sVdftrciv
p1013
I1
sVdb2vvco
p1014
I1
sVd9fjez6
p1015
I1
sVd37jram
p1016
I2
sVd7ujs0r
p1017
I1
sVd3zr9di
p1018
I1
sVd78x6hw
p1019
I1
sVcytxsm6
p1020
I1
sVd4xqena
p1021
I1
sVd3zhbxa
p1022
I1
sVde2j5e4
p1023
I1
sVd14i55n
p1024
I1
sVdctlh4v
p1025
I1
sVdd1unqi
p1026
I1
sVdqxa6qi
p1027
I1
sVd9xhru4
p1028
I1
sVdeinlt1
p1029
I1
sVd0gfl3r
p1030
I1
sVdo432op
p1031
I1
sVdhprbvv
p1032
I1
sVd6tt3it
p1033
I1
sVdi05xj2
p1034
I1
sVdeu4fgr
p1035
I1
sVdkppevp
p1036
I1
sVd21kn0u
p1037
I2
sVd2gm4n4
p1038
I1
sVdau3qc8
p1039
I1
sVdnb1njy
p1040
I1
sVd4pukvx
p1041
I2
sVdmrlppy
p1042
I1
sVdnh36t1
p1043
I1
sVcznzvgh
p1044
I1
sVd19cr5s
p1045
I2
sVd2rahjq
p1046
I1
sVdccnkd7
p1047
I1
sVdaub04s
p1048
I1
sVdqnwqn5
p1049
I1
sVczzw9qi
p1050
I2
sVdil2w88
p1051
I1
sVdr0w5w8
p1052
I1
sVczomelq
p1053
I1
sVd2qkm6f
p1054
I1
sVcyiyowq
p1055
I1
sVczzsv75
p1056
I1
sVdda3vc4
p1057
I1
sVdd50c05
p1058
I1
sVczvp9i8
p1059
I1
sVd910ch3
p1060
I1
sVdbnea41
p1061
I1
sVczi16dm
p1062
I1
sVdmua2ox
p1063
I1
sVdjey4xo
p1064
I1
sVczsgdv4
p1065
I1
sVcyoycq7
p1066
I1
sVdsbsuqf
p1067
I1
sVdjf2iay
p1068
I1
sVdtf3q1k
p1069
I1
sVd1ktguo
p1070
I1
sVdb6obon
p1071
I1
sVdjxlznu
p1072
I1
sVd8o465x
p1073
I1
sVd6vlxsd
p1074
I1
sVczogn3f
p1075
I2
sVd0a51pb
p1076
I1
sVdjhg1cs
p1077
I2
sVd7i5jm2
p1078
I1
sVdc0ry3h
p1079
I1
sVdjjf7ga
p1080
I1
sVdgela5p
p1081
I1
sVdn9bhgt
p1082
I1
sVd948vyl
p1083
I1
sVdd7tmdd
p1084
I1
sVcyyfufo
p1085
I1
sVd97ie08
p1086
I1
sVde88w5f
p1087
I1
sVd04ckrw
p1088
I1
sVdcbvpsz
p1089
I1
sVd65ahjn
p1090
I1
sVd7l8um9
p1091
I1
sVd0ifzm7
p1092
I1
sVdn62g8e
p1093
I1
sVd08wx2a
p1094
I1
sVcz5jyr0
p1095
I1
sVdq1pmie
p1096
I1
sVdgoorde
p1097
I2
sVdh0jhvb
p1098
I1
sVd3c3ele
p1099
I1
sVdhjl6kk
p1100
I1
sVde6kh3y
p1101
I1
sVdnwjdr9
p1102
I1
sVdargzyn
p1103
I1
sVd51p2fx
p1104
I1
sVdahkajx
p1105
I1
sVd2gfaj4
p1106
I1
sVd0org9v
p1107
I1
sVd9am90w
p1108
I3
sVd8oc6jj
p1109
I1
sVdkp4kyn
p1110
I1
sVdcj8x8z
p1111
I1
sVcynru85
p1112
I1
sVd9voj09
p1113
I1
sVdg03yjv
p1114
I1
sVdfyq5cl
p1115
I1
sVcz3j9mu
p1116
I1
sVdnhiw4x
p1117
I3
sVdjeqp9f
p1118
I1
sVd46v6u7
p1119
I1
sVdsw66gz
p1120
I1
sVdqq1pb0
p1121
I1
sVdkcjj64
p1122
I1
sVdmifruw
p1123
I1
sVdbtetha
p1124
I1
sVddzkncl
p1125
I1
sVd31akp7
p1126
I1
sVd2c1bgi
p1127
I1
sVdjpj7jo
p1128
I1
sVdfauk0v
p1129
I1
sVdn1s5gb
p1130
I1
sVd1d8e0m
p1131
I2
sVddycqu8
p1132
I1
sVdht6aay
p1133
I1
sVdh0ntfe
p1134
I1
sVdnayzsn
p1135
I1
sVdr29pq2
p1136
I1
sVd4a8vsy
p1137
I1
sVd1vwfwy
p1138
I1
sVdbdyo4r
p1139
I1
sVd2fqf4r
p1140
I1
sVd56eq78
p1141
I1
sVdnq2jz8
p1142
I1
sVczad5w0
p1143
I1
sVdgflnn8
p1144
I1
sVdht0wwc
p1145
I1
sVdcxgjmx
p1146
I1
sVd0alffw
p1147
I1
sVd2avpng
p1148
I1
sVd0o94w9
p1149
I1
sVdiqgx4s
p1150
I1
sVdcxygoy
p1151
I3
sVdj949r4
p1152
I1
sVdnved3a
p1153
I1
sVd5qj2yy
p1154
I1
sVdc3dwvd
p1155
I1
sVdcppzws
p1156
I1
sVdmjx3ws
p1157
I1
sVdgrxotk
p1158
I1
sVd4774d4
p1159
I1
sVczd9kw9
p1160
I1
sVdfasfp8
p1161
I1
sVdjge3rg
p1162
I1
sVd6d1zzs
p1163
I3
sVd8rku7r
p1164
I1
sVd32rwx9
p1165
I2
sVd4zsqxl
p1166
I1
sVd3gojn6
p1167
I1
sVdbso9gb
p1168
I1
sVd44oqm0
p1169
I1
sVdc4vulk
p1170
I1
sVczropow
p1171
I1
sVdizyfda
p1172
I1
sVd2ubsja
p1173
I1
sVdggmipt
p1174
I1
sVd2ln9ln
p1175
I1
sVdob49my
p1176
I1
sVde9oqon
p1177
I1
sVd4mly9g
p1178
I1
sVd1qqipk
p1179
I1
sVdor8i35
p1180
I1
sVddmwzeq
p1181
I1
sVdofchpe
p1182
I1
sVdao4bjm
p1183
I1
sVd6tkexv
p1184
I1
sVdouvqmo
p1185
I1
sVdi5chib
p1186
I2
sVd2xe7fy
p1187
I1
sVd3dhbmh
p1188
I1
sVd8nzv0y
p1189
I1
sVdd8m9nr
p1190
I1
sVdq6ie31
p1191
I1
sVdtef91q
p1192
I1
sVdd0r1cu
p1193
I1
sVdcq4cau
p1194
I1
sVczaxih1
p1195
I1
sVd6sfuoq
p1196
I1
sVd92dkww
p1197
I1
sVd6nrq0m
p1198
I1
sVdotsg30
p1199
I1
sVcyx7rvn
p1200
I1
sVd5x9pcu
p1201
I1
sVdjnj2gx
p1202
I1
sVdggjj9k
p1203
I2
sVda24w50
p1204
I1
sVdexfzml
p1205
I1
sVd9azgu3
p1206
I1
sVdr5i940
p1207
I1
sVd2ncv3i
p1208
I1
sVdiy0v0s
p1209
I1
sVddbzy4l
p1210
I1
sVd67uh34
p1211
I5
sVdrny3p6
p1212
I1
sVd4rhjrh
p1213
I2
sVd8l49rb
p1214
I1
sVd2bbmkr
p1215
I1
sVddo0q12
p1216
I1
sVdn3ml9d
p1217
I1
sVd4zn6wg
p1218
I2
sVd51vura
p1219
I1
sVd1p30y0
p1220
I1
sVd95l7du
p1221
I1
sVd1r0td6
p1222
I1
sVd3b4vwz
p1223
I1
sVdh13e17
p1224
I1
sVd8ktmak
p1225
I1
sVd2pnevm
p1226
I1
sVd4j3eeu
p1227
I1
sVd0tknzv
p1228
I1
sVd773djf
p1229
I5
sVd19av8m
p1230
I1
sVd85rc7y
p1231
I1
sVddgnx9m
p1232
I1
sVdmg9ltg
p1233
I1
sVd6pipq1
p1234
I1
sVdhy7bf6
p1235
I4
sVd1p6gsg
p1236
I2
sVd0f6gk1
p1237
I1
sVd3ur4k5
p1238
I1
sVd24ex71
p1239
I1
sVd0yn0ti
p1240
I1
sVd4gtfjr
p1241
I1
sVdgtc2am
p1242
I2
sVcylltid
p1243
I1
sVd0hta6m
p1244
I1
sVdsoljke
p1245
I1
sVdnbd60u
p1246
I1
sVda9f637
p1247
I1
sVczs8xhy
p1248
I1
sVdjpiy7x
p1249
I1
sVd8a0uic
p1250
I1
sVd23o5i5
p1251
I1
sVd4sho73
p1252
I1
sVdqmkvrj
p1253
I1
sVdqth4o1
p1254
I1
sVdgae59d
p1255
I1
sVdgq4edu
p1256
I1
sVddw8tsa
p1257
I1
sVd1438b6
p1258
I1
sVdnn3aiy
p1259
I1
sVcyxexm4
p1260
I1
sVddkfb6q
p1261
I1
sVd4bzvpe
p1262
I2
sVd52lhtt
p1263
I1
sVd3bf5qk
p1264
I1
sVdmz0u4r
p1265
I1
sVdggsp99
p1266
I1
sVdj7hebn
p1267
I1
sVdeag2f0
p1268
I1
sVd59jouo
p1269
I1
sVdq1jsgs
p1270
I1
sVd3qm5yy
p1271
I1
sVdjrfags
p1272
I1
sVdoz6crq
p1273
I1
sVcyxpt0v
p1274
I2
sVdbio73c
p1275
I2
sVczfxsjl
p1276
I1
sVdcqk0wb
p1277
I1
sVddi7934
p1278
I1
sVddbvxap
p1279
I1
sVdhyr1lp
p1280
I2
sVdav9qy9
p1281
I1
sVd6jyycw
p1282
I1
sVdn0pwnf
p1283
I2
sVdcqtsas
p1284
I1
sVdgl8f5a
p1285
I1
sVdawlsql
p1286
I1
sVdkhtlkg
p1287
I1
sVd0tdd78
p1288
I1
sVdijmpc6
p1289
I1
sVdqutyo3
p1290
I1
sVdftcth7
p1291
I1
sVd56vcv1
p1292
I1
sVd4huumk
p1293
I1
sVcza8v1v
p1294
I1
sVd9i72iv
p1295
I1
sVdmzo6v2
p1296
I1
sVcyporzx
p1297
I1
sVdhxiix6
p1298
I1
sVdcecof3
p1299
I3
sVd0d7lvq
p1300
I1
sVd19u85j
p1301
I1
sVdn1rbxf
p1302
I2
sVdtho007
p1303
I1
sVday2l1a
p1304
I1
sVd1kaz5a
p1305
I1
sVdbxrwn6
p1306
I1
sVdku7pzb
p1307
I1
sVd0816uf
p1308
I1
sVdbia2tu
p1309
I2
sVdc62r4f
p1310
I1
sVd5i0trg
p1311
I1
sVdk1pne4
p1312
I1
sVdsdxkdb
p1313
I1
sVdobshcb
p1314
I2
sVczgr8fc
p1315
I1
sVczwalsc
p1316
I1
sVd9go8jz
p1317
I1
sVd1243uc
p1318
I1
sVdjtb3s7
p1319
I1
sVd8rhrzj
p1320
I2
sVds744fn
p1321
I1
sVd5209f8
p1322
I1
sVd1l69kl
p1323
I2
sVde6tb5l
p1324
I1
sVd8u26z8
p1325
I1
sVdqq3mmi
p1326
I1
sVd5s8yhr
p1327
I1
sVdhc9uys
p1328
I1
sVd9ftmyr
p1329
I1
sVd5urfdi
p1330
I1
sVdjp8qur
p1331
I1
sVdcvqk6u
p1332
I1
sVdec54lu
p1333
I1
sVczlbst4
p1334
I1
sVd509m1q
p1335
I1
sVd0231x0
p1336
I1
sVd2kc5re
p1337
I1
sVd9knhhq
p1338
I1
sVdhyq4np
p1339
I1
sVdpyp9eb
p1340
I1
sVdammmzs
p1341
I1
sVcyob4bg
p1342
I1
sVdeuldkq
p1343
I1
sVdg2jbg7
p1344
I1
sVd5f9g67
p1345
I4
sVdg79whq
p1346
I1
sVd1stpg3
p1347
I1
sVdfn6dzt
p1348
I1
sVd0qm7v5
p1349
I1
sVddvc6ta
p1350
I1
sVcyuoijz
p1351
I1
sVd1j8ov5
p1352
I1
sVd1a949l
p1353
I1
sVd1i0of3
p1354
I1
sVd3vff0q
p1355
I2
sVdncc655
p1356
I1
sVd2rh7gc
p1357
I1
sVd3zuhx4
p1358
I1
sVd9kju8d
p1359
I1
sVd62p873
p1360
I1
sVd462amc
p1361
I1
sVcz0ekk8
p1362
I1
sVd7b8jvx
p1363
I1
sVd04a7mn
p1364
I1
sVdpj6g07
p1365
I1
sVdfd7lc1
p1366
I1
sVdqeb2hy
p1367
I1
sVd1fmc73
p1368
I1
sVczevboo
p1369
I1
sVd0vg106
p1370
I1
sVdbnmla5
p1371
I1
sVd6s7h8l
p1372
I2
sVdce2fqm
p1373
I1
sVd0dvt5x
p1374
I1
sVd5w90do
p1375
I2
sVd0skwqi
p1376
I1
sVd0ucota
p1377
I1
sVd691asd
p1378
I1
sVd2o5et9
p1379
I1
sVd38rjdk
p1380
I1
sVd7tsk1z
p1381
I1
sVd3r97ig
p1382
I1
sVd46b6ie
p1383
I1
sVcz63b51
p1384
I1
sVd237zh3
p1385
I1
sVd00prpd
p1386
I1
sVdcxvqi3
p1387
I1
sVd306725
p1388
I1
sVczmn4t8
p1389
I1
sVdcbtljj
p1390
I4
sVd3s0yh1
p1391
I1
sVd7ugp35
p1392
I1
sVdfbj99b
p1393
I1
sVdesabhw
p1394
I1
sVdc3i76l
p1395
I2
sVd9yd2hs
p1396
I1
sVde08z6u
p1397
I1
sVdbmukkl
p1398
I1
sVczh2hvb
p1399
I1
sVdh8xlvk
p1400
I1
sVdcvt7s3
p1401
I1
sVdh2j169
p1402
I1
sVdb2202w
p1403
I3
sVdb8y1ck
p1404
I1
sVdbp0l5h
p1405
I2
sVdi4ralf
p1406
I2
sVd9pzxxe
p1407
I2
sVdfyxzvv
p1408
I1
sVdhj20g6
p1409
I1
sVd9om6mu
p1410
I1
sVd4tvvmj
p1411
I1
sVdb06nsx
p1412
I1
sVdmqhpz6
p1413
I1
sVczugsjk
p1414
I1
sVdef54d0
p1415
I2
sVdibqii9
p1416
I1
sVdghtbw8
p1417
I3
sVd0jfzxv
p1418
I1
sVdhzuxwv
p1419
I1
sVdd3kow7
p1420
I1
sVcz60uy6
p1421
I1
sVdjd08u7
p1422
I1
sVdfexaxk
p1423
I1
sVdcu8q67
p1424
I1
sVd4k3y9a
p1425
I1
sVdrec1kl
p1426
I2
sVd3w31wl
p1427
I1
sVdfa3z6q
p1428
I1
sVd53ugdr
p1429
I1
sVd1s4gb3
p1430
I1
sVd5cty9v
p1431
I1
sVd5g2po0
p1432
I1
sVdcjt15s
p1433
I1
sVdnabg0z
p1434
I1
sVdc0g9nx
p1435
I1
sVczck72h
p1436
I2
sVd3hmvt9
p1437
I1
sVcz4hmjz
p1438
I1
sVd581cuo
p1439
I1
sVd8jsyh0
p1440
I1
sVd5698cy
p1441
I1
sVdhbgisd
p1442
I1
sVdd0l4sj
p1443
I1
sVdr7gk24
p1444
I1
sVdtboaeu
p1445
I1
sVdb5fjgi
p1446
I1
sVdeyiqo9
p1447
I1
sVddoo2ru
p1448
I1
sVczdtqi5
p1449
I1
sVddhuxla
p1450
I1
sVd1qalkh
p1451
I2
sVd5jmd8i
p1452
I1
sVdqejjpc
p1453
I1
sVdd4tr95
p1454
I2
sVdifmkus
p1455
I1
sVd6jxm99
p1456
I1
sVcyuxoug
p1457
I1
sVczyuyre
p1458
I1
sVdhgyiwx
p1459
I1
sVd536z38
p1460
I1
sVdf7rps7
p1461
I2
sVd7llsei
p1462
I1
sVdbnatok
p1463
I1
sVczi76se
p1464
I1
sVdfe3fef
p1465
I1
sVd0r3ali
p1466
I1
sVd1syrpq
p1467
I1
sVdbhstj3
p1468
I1
sVdg0kiaw
p1469
I1
sVdpdidux
p1470
I1
sVd36zmgf
p1471
I1
sVdgw8f5o
p1472
I2
sVdk082yo
p1473
I1
sVd35a7l0
p1474
I2
sVdsu8u9t
p1475
I1
sVdcx3dwi
p1476
I1
sVd8kx1ut
p1477
I1
sVd1tomnw
p1478
I1
sVcyuvb13
p1479
I1
sVd1qe3vp
p1480
I1
sVd84usda
p1481
I1
sVd1hl257
p1482
I1
sVdg8y5ep
p1483
I3
sVd89h4up
p1484
I1
sVdsx9ss1
p1485
I1
sVd3nys21
p1486
I1
sVcyizlsu
p1487
I2
sVczsop8n
p1488
I1
sVcz13v5l
p1489
I1
sVdfkgv3b
p1490
I1
sVd67dylh
p1491
I1
sVdpqwm2p
p1492
I1
sVda5rh11
p1493
I1
sVd96ku6o
p1494
I1
sVd7oba28
p1495
I1
sVde62ylx
p1496
I1
sVd3ao2o3
p1497
I1
sVcz8ghsk
p1498
I1
sVczec7th
p1499
I1
sVcyw08q0
p1500
I1
sVdr92rxf
p1501
I1
sVd04zkvb
p1502
I1
sVdd3r023
p1503
I1
sVcz6qcs0
p1504
I1
sVd9vfnxl
p1505
I1
sVdjvp23z
p1506
I1
sVd3mgxbn
p1507
I1
sVdfbcx65
p1508
I1
sVd2pvciu
p1509
I1
sVdnufnc2
p1510
I1
sVdjiwh6e
p1511
I1
sVds2cykn
p1512
I1
sVd11qfmf
p1513
I1
sVd0l8c6h
p1514
I2
sVdbfvinu
p1515
I1
sVdg194jd
p1516
I2
sVdrfk6zl
p1517
I1
sVdox6cwy
p1518
I1
sVd192nkf
p1519
I2
sVd9q95oq
p1520
I1
sVdtilep3
p1521
I1
sVd5uxq15
p1522
I1
sVdeewoql
p1523
I1
sVd39aggc
p1524
I1
sVdcw32jz
p1525
I1
sVd33tykr
p1526
I1
sVdhgnu9m
p1527
I1
sVdew526a
p1528
I1
sVdjkdq3i
p1529
I1
sVd44zyv6
p1530
I1
sVdj3rqcv
p1531
I1
sVdg21t8v
p1532
I1
sVd1gk3ij
p1533
I1
sVcyr6o9j
p1534
I1
sVd7t2rvh
p1535
I1
sVdez8spc
p1536
I1
sVd9l1amd
p1537
I1
sVd7bk60p
p1538
I1
sVdb43nhn
p1539
I1
sVd13xiv1
p1540
I1
sVdfnw6js
p1541
I1
sVczvj7qr
p1542
I1
sVdhbnuaw
p1543
I1
sVdn2k4li
p1544
I1
sVdo04gqa
p1545
I1
sVddwzmtt
p1546
I1
sVd72vypk
p1547
I1
sVdcezi72
p1548
I1
sVddwojo5
p1549
I1
sVd493174
p1550
I1
sVd88uyg4
p1551
I1
sVd8ep0d5
p1552
I2
sVdht4xls
p1553
I1
sVdfzb7i7
p1554
I2
sVdj11nau
p1555
I1
sVder4nkm
p1556
I2
sVd0mmrt4
p1557
I1
sVdc1buyc
p1558
I1
sVd1aw796
p1559
I1
sVd67ss8v
p1560
I1
sVdg6ja1k
p1561
I1
sVdih8140
p1562
I1
sVd43v98d
p1563
I1
sVcyovss4
p1564
I2
sVdk174px
p1565
I1
sVd6fexn0
p1566
I1
sVdet5l5s
p1567
I1
sVdczps4t
p1568
I1
sVd87tx8d
p1569
I1
sVdfytrds
p1570
I1
sVczi1oqp
p1571
I1
sVd7jmg5i
p1572
I1
sVd1q0x9e
p1573
I1
sVdid0w4c
p1574
I2
sVdevqmtq
p1575
I1
sVd5dpmb2
p1576
I1
sVd6wsazw
p1577
I1
sVd0jp94p
p1578
I1
sVdh1q35p
p1579
I1
sVdkma9xk
p1580
I1
sVd618dsi
p1581
I1
sVdnnuhef
p1582
I1
sVd7718sz
p1583
I1
sVdrsddb6
p1584
I1
sVd57x4ey
p1585
I2
sVd06kz4l
p1586
I1
sVdemuj90
p1587
I1
sVdfxkxxa
p1588
I1
sVdc0cycd
p1589
I1
sVczmgwyn
p1590
I1
sVd5q1zaq
p1591
I1
sVdqs96y6
p1592
I1
sVd6htzlw
p1593
I1
sVdjx5kgn
p1594
I1
sVd0ko14u
p1595
I2
sVdff0eom
p1596
I1
sVcz02tb9
p1597
I1
sVdbovmr2
p1598
I2
sVdgasymv
p1599
I1
sVdmxec7j
p1600
I1
sVdfe1wnz
p1601
I1
sVda9qp0k
p1602
I3
sVdi6p47m
p1603
I1
sVd780njw
p1604
I1
sVda7k0yo
p1605
I1
sVcyvnp8s
p1606
I1
sVdi9ce1g
p1607
I2
sVdcqd0wn
p1608
I1
sVde3wf2c
p1609
I1
sVcysw82k
p1610
I1
sVd4igk56
p1611
I1
sVd19jzzh
p1612
I1
sVde6n0bu
p1613
I1
sVdbdvv17
p1614
I1
sVd0m9kga
p1615
I1
sVd3n4xkr
p1616
I1
sVdn09fk0
p1617
I2
sVdgtinxf
p1618
I1
sVd27giwx
p1619
I1
sVd1bw8pk
p1620
I1
sVdkj6oug
p1621
I2
sVd9k4ds4
p1622
I1
sVcyzho28
p1623
I1
sVdgkgm7l
p1624
I1
sVdf8uwux
p1625
I2
sVdbeqy8s
p1626
I1
sVdbuppvr
p1627
I1
sVddip22c
p1628
I1
sVdbo40k1
p1629
I2
sVcyv6qh5
p1630
I1
sVd6dpwry
p1631
I1
sVdpytbzt
p1632
I1
sVd3e57qb
p1633
I1
sVdi51emq
p1634
I1
sVdda6wtc
p1635
I1
sVdhpz2b6
p1636
I1
sVd21wqwq
p1637
I1
sVdfqlr9y
p1638
I1
sVdj4o1wj
p1639
I1
sVd29f9av
p1640
I1
sVd68sjy6
p1641
I1
sVdpjg6dz
p1642
I1
sVddjv6dg
p1643
I1
sVd1q90ms
p1644
I1
sVd6z22vm
p1645
I1
sVd6n3kw6
p1646
I1
sVczrw6ld
p1647
I1
sVd8pn69p
p1648
I1
sVd6z2sh0
p1649
I1
sVdkf19gd
p1650
I2
sVdpdr6ms
p1651
I2
sVd2a3cfd
p1652
I1
sVdew1c01
p1653
I2
sVdhiywp5
p1654
I1
sVczf53x1
p1655
I1
sVdpyb5jp
p1656
I1
sVd3i7qzy
p1657
I1
sVdii238g
p1658
I1
sVdgko8fv
p1659
I1
sVd6ejgya
p1660
I1
sVcyibugh
p1661
I1
sVdbab97y
p1662
I1
sVdp1fhd5
p1663
I1
sVdgdron8
p1664
I1
sVdo608ne
p1665
I1
sVdd4k95s
p1666
I1
sVdmqmr3y
p1667
I1
sVdedkpw6
p1668
I2
sVdjxjsyh
p1669
I1
sVdkm64s8
p1670
I1
sVd5piwea
p1671
I1
sVdqgkuqg
p1672
I1
sVdervw38
p1673
I2
sVd40ms88
p1674
I1
sVddwj2lp
p1675
I1
sVd60twxj
p1676
I1
sVd481b1p
p1677
I2
sVdi2m0fp
p1678
I1
sVczill1h
p1679
I1
sVcz9evdo
p1680
I1
sVd6timro
p1681
I1
sVdjsz1ta
p1682
I1
sVdfyg3qa
p1683
I1
sVdbgtw4w
p1684
I1
sVd12i1ld
p1685
I1
sVd9qtlzb
p1686
I3
sVd3iardh
p1687
I1
sVdepstpt
p1688
I1
sVd3e7nru
p1689
I1
sVd2mqs3h
p1690
I1
sVd16renu
p1691
I1
sVdfzvgfh
p1692
I1
sVd0jd0g5
p1693
I1
sVdcqrd1a
p1694
I1
sVczieobp
p1695
I1
sVdd8madf
p1696
I1
sVczffvr7
p1697
I2
sVd06fjnq
p1698
I1
sVd63a262
p1699
I1
sVdfa0870
p1700
I1
sVdfw13yw
p1701
I1
sVd2viq1u
p1702
I1
sVd2x7o1d
p1703
I1
sVdaxrzuy
p1704
I2
sVdq7eekk
p1705
I1
sVd1vs5o2
p1706
I1
sVd1em66y
p1707
I1
sVd45bqvw
p1708
I1
sVdb8mzxr
p1709
I1
sVd2a8tre
p1710
I1
sVd0wthz1
p1711
I1
sVdcspm0e
p1712
I3
sVcz1q0cg
p1713
I1
sVdtdvfp6
p1714
I1
sVd7xdbzz
p1715
I1
sVdklo4i8
p1716
I1
sVdbwziy4
p1717
I1
sVdd4olys
p1718
I1
sVdey8xbd
p1719
I1
sVd3xmzof
p1720
I1
sVd9qfozg
p1721
I1
sVdatfyjg
p1722
I1
sVdexqnd1
p1723
I2
sVd7t4qe6
p1724
I1
sVd3dbf5w
p1725
I1
sVcz8s5op
p1726
I1
sVdmezdgj
p1727
I1
sVdhky09w
p1728
I1
sVd7vhmq0
p1729
I1
sVdeg7cym
p1730
I1
sVdbmdajs
p1731
I1
sVde66c5k
p1732
I1
sVdq52sxn
p1733
I1
sVda7qxcv
p1734
I1
sVd5zetju
p1735
I1
sVdrbz99p
p1736
I1
sVdk5d5wl
p1737
I1
sVcyz1q0e
p1738
I1
sVddfruf2
p1739
I1
sVddqqong
p1740
I1
sVd9pfghs
p1741
I1
sVdgd41p8
p1742
I1
sVde6c6ox
p1743
I1
sVddxnpms
p1744
I1
sVdt1m6yf
p1745
I1
sVdn4pkyg
p1746
I1
sVdb90lx0
p1747
I1
sVdgsogm4
p1748
I1
sVcz1m8tg
p1749
I1
sVczrhcsr
p1750
I1
sVdi8xo4l
p1751
I1
sVdcez1ei
p1752
I1
sVdhgfnbv
p1753
I1
sVd7uhnn6
p1754
I1
sVdbsuicc
p1755
I1
sVdh9ue98
p1756
I5
sVdmonn84
p1757
I1
sVdes32x6
p1758
I2
sVdbn7zbz
p1759
I1
sVd4hsulj
p1760
I1
sVd1ye6sv
p1761
I1
sVd14bube
p1762
I1
sVd9nr59o
p1763
I1
sVdfb5y0a
p1764
I1
sVd1swsgq
p1765
I1
sVdbqlojc
p1766
I1
sVd358ptn
p1767
I1
sVdrsk4z5
p1768
I1
sVczzhesm
p1769
I1
sVdihaw5p
p1770
I1
sVd4rx6xf
p1771
I1
sVdcbe0h2
p1772
I1
sVd2l1ffg
p1773
I1
sVd0sze91
p1774
I1
sVdh651sh
p1775
I2
sVdeh246d
p1776
I1
sVdohcaz5
p1777
I1
sVdhv53um
p1778
I1
sVdeh4t4n
p1779
I1
sVd86fu0m
p1780
I1
sVdpbryi5
p1781
I1
sVdcgb6d0
p1782
I1
sVdgo8oxw
p1783
I1
sVd2kfv26
p1784
I1
sVda6ecbo
p1785
I1
sVd66gt7e
p1786
I1
sVdef3dc8
p1787
I1
sVd0ycfqb
p1788
I1
sVd29ftdy
p1789
I1
sVcz4trv6
p1790
I1
sVdefuwff
p1791
I1
sVcynrw6a
p1792
I1
sVd45w8sn
p1793
I1
sVd1vphho
p1794
I2
sVdh2hyt7
p1795
I1
sVdorku1m
p1796
I1
sVdol5g64
p1797
I2
sVcytl9tx
p1798
I1
sVdmjibki
p1799
I1
sVd4wmxcs
p1800
I2
sVd4ijk87
p1801
I1
sVdsz1sb6
p1802
I1
sVdmklbcf
p1803
I1
sVdfk4teb
p1804
I1
sVczh159u
p1805
I1
sVdgmnqza
p1806
I1
sVd5hygrv
p1807
I1
sVdqr2iwv
p1808
I1
sVd6hsrdz
p1809
I1
sVd1nv9p0
p1810
I1
sVdh9c1ep
p1811
I1
sVdegng56
p1812
I1
sVds2mwda
p1813
I2
sVdouswcx
p1814
I1
sVdt40uoo
p1815
I1
sVdc164pp
p1816
I1
sVd29wlk5
p1817
I1
sVd4k5ivn
p1818
I1
sVdjn9it1
p1819
I1
sVdq67rqx
p1820
I1
sVdddopii
p1821
I1
sVdinixif
p1822
I1
sVdskrunl
p1823
I1
sVdila9cu
p1824
I1
sVdagf7bk
p1825
I1
sVdfcfmed
p1826
I1
sVdio54gc
p1827
I2
sVdnqt8cy
p1828
I1
sVda8hi5x
p1829
I2
sVdo2uhli
p1830
I1
sVdgsulee
p1831
I1
sVd6x4pxy
p1832
I1
sVczzfd2b
p1833
I1
sVde2h11w
p1834
I1
sVd8rpi3c
p1835
I1
sVdf4ap5p
p1836
I1
sVczbmngt
p1837
I1
sVd19jbee
p1838
I1
sVdsjcb2m
p1839
I1
sVd3m0rxc
p1840
I1
sVd4l2mpw
p1841
I1
sVcyn9p0f
p1842
I1
sVczgjyv4
p1843
I1
sVd69gv9r
p1844
I1
sVdftkbqc
p1845
I1
sVd8v9moe
p1846
I1
sVddsjm8k
p1847
I1
sVdd3zk2h
p1848
I3
sVddhr497
p1849
I1
sVde6p3x7
p1850
I1
sVdd9xyik
p1851
I1
sVd8dlc6v
p1852
I1
sVd7le4f7
p1853
I1
sVdckh07b
p1854
I1
sVdr06a5y
p1855
I1
sVd5m5lu8
p1856
I1
sVdkpkduc
p1857
I1
sVd47hxfy
p1858
I1
sVdkeh9qi
p1859
I1
sVd1azk0f
p1860
I1
sVda6vhp2
p1861
I1
sVd5xrdpt
p1862
I1
sVddujuf8
p1863
I1
sVdn73o0x
p1864
I1
sVdf8lvi2
p1865
I1
sVddkxyb0
p1866
I2
sVcyzk5hq
p1867
I2
sVd1r3rqx
p1868
I1
sVd1v64cx
p1869
I1
sVd8agzg3
p1870
I1
sVdacxx65
p1871
I1
sVdijbs45
p1872
I1
sVd6vorgd
p1873
I1
sVdmg041t
p1874
I1
sVdefvbvx
p1875
I1
sVdd8k5m6
p1876
I1
sVd0y31bk
p1877
I1
sVdcgbce1
p1878
I1
sVczjgpsf
p1879
I1
sVd2ej6sq
p1880
I1
sVdihvysg
p1881
I1
sVdhwg80n
p1882
I1
sVcykneny
p1883
I1
sVdc7sdhy
p1884
I1
sVdn8t54d
p1885
I1
sVd2vvvox
p1886
I1
sVczh6zy6
p1887
I2
sVd691wl4
p1888
I1
sVd9bqnxm
p1889
I1
sVd6pbkdy
p1890
I1
sVd1g57ku
p1891
I2
sVd9xk5xe
p1892
I1
sVdt9q35r
p1893
I1
sVd3vsqbr
p1894
I1
sVdcaocrx
p1895
I1
sVd2eftua
p1896
I1
sVd26htcw
p1897
I1
sVds70hkk
p1898
I1
sVdaubrod
p1899
I1
sVdel748h
p1900
I1
sVd52oyj7
p1901
I1
sVd61n74m
p1902
I1
sVd8l2j7o
p1903
I1
sVd01cd2b
p1904
I1
sVddwqnau
p1905
I1
sVd0exdeo
p1906
I1
sVd4judz7
p1907
I1
sVdf4utbi
p1908
I1
sVdjk22gk
p1909
I1
sVde6hy5c
p1910
I1
sVd38vuy2
p1911
I1
sVd1krihy
p1912
I1
sVdc2lb2e
p1913
I1
sVczqppbk
p1914
I1
sVd9ynrqe
p1915
I1
sVd0p6np3
p1916
I2
sVd5vpghx
p1917
I1
sVd0w1xik
p1918
I1
sVdrbbwpj
p1919
I1
sVdktvvrw
p1920
I1
sVd728t14
p1921
I1
sVds9uqs2
p1922
I1
sVdetl6jv
p1923
I1
sVczbmbeb
p1924
I2
sVdgnujbs
p1925
I1
sVdnlhggr
p1926
I1
sVczcbhf5
p1927
I1
sVdaggy4e
p1928
I1
sVd8uqec4
p1929
I1
sVd4efidr
p1930
I1
sVczjs6vq
p1931
I1
sVd77cw4r
p1932
I1
sVdn2r3g6
p1933
I1
sVd9urrer
p1934
I1
sVdejcg0m
p1935
I2
sVdhuok6m
p1936
I1
sVd7kj0r1
p1937
I1
sVdgnyvfk
p1938
I1
sVdsfehww
p1939
I1
sVdn245go
p1940
I3
sVd70en07
p1941
I1
sVd5vr73q
p1942
I1
sVd8nqlb0
p1943
I1
sVdhps8f6
p1944
I2
sVda9v9nb
p1945
I4
sVd8j50h3
p1946
I1
sVdrkdmli
p1947
I2
sVdgh8bc2
p1948
I1
sVd6twk74
p1949
I1
sVd2mxl03
p1950
I1
sVdjxwbs7
p1951
I1
sVd7yam60
p1952
I1
sVcztm867
p1953
I1
sVd19wen1
p1954
I1
sVczn7p77
p1955
I1
sVde0hf6g
p1956
I1
sVd85zft3
p1957
I1
sVdavrbpy
p1958
I1
sVd5bodt6
p1959
I2
sVdrk9wla
p1960
I1
sVdh8mc1f
p1961
I1
sVdqfci4e
p1962
I1
sVdixmotl
p1963
I1
sVdgcm3ep
p1964
I1
sVdfalwox
p1965
I2
sVdd1i39r
p1966
I1
sVd2ywti6
p1967
I1
sVdhhtofz
p1968
I1
sVdbm9tst
p1969
I2
sVczv0hs3
p1970
I1
sVd40rq2o
p1971
I1
sVdfnfmun
p1972
I1
sVd66a3zc
p1973
I1
sVdbly8v3
p1974
I1
sVdmxdntm
p1975
I1
sVd8jgryh
p1976
I1
sVdrkjh8r
p1977
I2
sVdhqc7av
p1978
I1
sVdj3cy3f
p1979
I2
sVdpt67eo
p1980
I1
sVdfc8fkt
p1981
I1
sVd19luym
p1982
I1
sVdrla01f
p1983
I1
sVd2pwc4c
p1984
I1
sVdppd9t3
p1985
I1
sVddj8lrs
p1986
I1
sVd76fpfy
p1987
I1
sVd30tp8w
p1988
I1
sVddwie7y
p1989
I1
sVd48cqfa
p1990
I1
sVd5ryw1l
p1991
I1
sVd7qtssb
p1992
I1
sVdfyxc03
p1993
I1
sVdq7vkz1
p1994
I1
sVdtdaii2
p1995
I1
sVd142b20
p1996
I1
sVdnhjgqm
p1997
I1
sVd64dnsf
p1998
I1
sVd5c43gm
p1999
I1
sVdnbjm1i
p2000
I1
sVdbeu4xh
p2001
I1
sVczb1dhf
p2002
I1
sVdpmqgh0
p2003
I1
sVd99us4z
p2004
I1
sVd1q90bf
p2005
I1
sVd8pw5po
p2006
I1
sVdh7nlzr
p2007
I1
sVd923wpm
p2008
I1
sVcyqlyug
p2009
I1
sVddre6zv
p2010
I3
sVdct9d3v
p2011
I1
sVdhsswfq
p2012
I1
sVdr4pevb
p2013
I1
sVdav1xnk
p2014
I1
sVdggm268
p2015
I1
sVd647mn7
p2016
I1
sVdj5aofm
p2017
I1
sVdjrql1e
p2018
I1
sVdmllthi
p2019
I1
sVd3ue2ml
p2020
I1
sVdrige5o
p2021
I1
sVcynrcdp
p2022
I1
sVd3ca5m1
p2023
I1
sVd1bshwf
p2024
I4
sVdfzjm9p
p2025
I1
sVd0s35l1
p2026
I1
sVcyp8az8
p2027
I1
sVdsk7cc3
p2028
I1
sVdjhm6ma
p2029
I1
sVd0y0b5f
p2030
I1
sVdapeucx
p2031
I1
sVd3ijo6p
p2032
I1
sVd1ea233
p2033
I1
sVdd4go6l
p2034
I1
sVdki3gj2
p2035
I1
sVdhay75y
p2036
I2
sVd2q83v6
p2037
I1
sVd774rss
p2038
I1
sVd056a32
p2039
I1
sVd4hprbd
p2040
I1
sVdnyeeep
p2041
I1
sVd0usf4v
p2042
I1
sVdauh8te
p2043
I1
sVczubc72
p2044
I1
sVd6965j7
p2045
I1
sVdirgz4d
p2046
I1
sVdsd5dq9
p2047
I1
sVd1wolwz
p2048
I1
sVd4go390
p2049
I1
sVddbbkwo
p2050
I1
sVdnsllm9
p2051
I1
sVdf18vbf
p2052
I1
sVd2f6y72
p2053
I2
sVd7msm76
p2054
I1
sVdst328g
p2055
I1
sVdtj1o1p
p2056
I1
sVdd076xa
p2057
I2
sVd7jzdhz
p2058
I1
sVdkfel8d
p2059
I1
sVd7xja5z
p2060
I1
sVdaqbu8g
p2061
I1
sVdqhq1xf
p2062
I1
sVd7agyp4
p2063
I1
sVdpaz3zq
p2064
I1
sVdffhx6c
p2065
I1
sVdn43wyk
p2066
I1
sVdmvliz8
p2067
I1
sVdqnell6
p2068
I1
sVd0xk590
p2069
I1
sVdg34tcn
p2070
I1
sVd65fzqk
p2071
I3
sVczqvvgw
p2072
I1
sVd0m6fty
p2073
I1
sVd61mqt2
p2074
I3
sVdmuf6ew
p2075
I1
sVdianknv
p2076
I1
sVdp7ko2e
p2077
I1
sVdtgjy1q
p2078
I2
sVd2knotj
p2079
I1
sVdf4f8u2
p2080
I1
sVdnq2veh
p2081
I1
sVcz5e1jo
p2082
I1
sVd8pejco
p2083
I3
sVdch3882
p2084
I1
sVdijpa1j
p2085
I1
sVdk2jx7t
p2086
I1
sVdakq3m8
p2087
I1
sVdgfdxs4
p2088
I1
sVdccmuwe
p2089
I1
sVdf90qmj
p2090
I1
sVdfj3sgl
p2091
I1
sVczc5fqq
p2092
I2
sVd3pui4p
p2093
I1
sVdaupw5g
p2094
I1
sVdqt0jez
p2095
I1
sVd4i1v6g
p2096
I1
sVddsdno0
p2097
I1
sVd54e26y
p2098
I2
sVdbqxq3l
p2099
I1
sVdoh9umk
p2100
I1
sVdigtvsq
p2101
I1
sVddq1crs
p2102
I1
sVczhn3dc
p2103
I1
sVdns3wmf
p2104
I1
sVdp81le3
p2105
I1
sVdopc675
p2106
I1
sVdpuwatc
p2107
I1
sVd5fuzrm
p2108
I1
sVd4mq9ld
p2109
I1
sVdcmemqh
p2110
I1
sVdha8ih0
p2111
I2
sVd79wuhk
p2112
I1
sVdcbg5bc
p2113
I1
sVd5q0kmi
p2114
I2
sVd4mkrja
p2115
I1
sVd3hc2il
p2116
I1
sVd0csp53
p2117
I2
sVda2rxdi
p2118
I1
sVds7jtrm
p2119
I1
sVdrp2e6z
p2120
I1
sVdcbuzd4
p2121
I1
sVdhfvukk
p2122
I1
sVd1d5w8c
p2123
I2
sVcz88c09
p2124
I1
sVdne7kac
p2125
I1
sVd00fmtp
p2126
I1
sVdn2dpdq
p2127
I1
sVd2a9xvq
p2128
I1
sVdet4mtz
p2129
I1
sVd0rf6s7
p2130
I1
sVcz0e6ap
p2131
I1
sVdpy5cs7
p2132
I1
sVda5dg62
p2133
I3
sVdskpu7j
p2134
I1
sVdn19ghk
p2135
I2
sVd4l191w
p2136
I1
sVd0frmac
p2137
I2
sVdd3j9x4
p2138
I1
sVd0u6gkj
p2139
I1
sVd963u4x
p2140
I1
sVdno9dbj
p2141
I1
sVdh962xf
p2142
I2
sVczs2q6u
p2143
I1
sVd9ehkb7
p2144
I1
sVdh9wyiu
p2145
I1
sVdhc3j7v
p2146
I1
sVcyleyui
p2147
I1
sVczt3a0b
p2148
I2
sVd1e4bmu
p2149
I1
sVdmn406r
p2150
I1
sVd1515wa
p2151
I2
sVdc7jegg
p2152
I1
sVd3bdcs3
p2153
I3
sVd65dljh
p2154
I1
sVd9ud8uu
p2155
I1
sVdr2cgtk
p2156
I1
sVcyyc16i
p2157
I1
sVdtacnsh
p2158
I1
sVdimeb87
p2159
I1
sVdep94sl
p2160
I1
sVd9cyfx7
p2161
I1
sVd02hvo0
p2162
I1
sVcyq20ts
p2163
I1
sVde9q2l9
p2164
I1
sVd6nqtyk
p2165
I1
sVdinz037
p2166
I1
sVd9x4wv5
p2167
I1
sVd624ijf
p2168
I1
sVd01sgl6
p2169
I1
sVd3ocu7s
p2170
I1
sVd52mnbm
p2171
I2
sVd32g1z0
p2172
I1
sVdiu42xz
p2173
I1
sVdhd4k5z
p2174
I1
sVdpxwf0w
p2175
I1
sVdb97bmq
p2176
I1
sVd6m1rkp
p2177
I1
sVd3v61pw
p2178
I1
sVczd9iva
p2179
I1
sVcyw43jt
p2180
I1
sVdi8lmb9
p2181
I1
sVd0a5rtb
p2182
I1
sVd1bhmd3
p2183
I1
sVczmgohs
p2184
I1
sVd3elxgr
p2185
I1
sVdg6szsp
p2186
I1
sVdmou8yn
p2187
I1
sVdkpznmq
p2188
I1
sVdavftmh
p2189
I1
sVds53eid
p2190
I1
sVddpyt5d
p2191
I1
sVd2lvp1l
p2192
I1
sVd6j0u3b
p2193
I1
sVczlxumv
p2194
I1
sVdck6w4r
p2195
I1
sVdjq5dju
p2196
I1
sVddr2w6q
p2197
I1
sVdo81zo0
p2198
I1
sVdabo2as
p2199
I2
sVczoveau
p2200
I1
sVd59hwg6
p2201
I1
sVd6ub63i
p2202
I1
sVde87l2i
p2203
I1
sVd811ahr
p2204
I1
sVddhzn6b
p2205
I1
sVd0998i2
p2206
I2
sVcz6mm7m
p2207
I1
sVdatr6uk
p2208
I1
sVd0bm87b
p2209
I2
sVdp1jbih
p2210
I1
sVdgdjweu
p2211
I1
sVddmvmyv
p2212
I1
sVd0qyrws
p2213
I1
sVdfgkuae
p2214
I1
sVd0o1w33
p2215
I1
sVd3n4jdg
p2216
I1
sVdbgvewo
p2217
I1
sVd53ptdz
p2218
I1
sVdcy3r9e
p2219
I1
sVdqlz5wk
p2220
I1
sVcyzl8qf
p2221
I1
sVd7rnj0s
p2222
I1
sVd7rfjif
p2223
I1
sVdt9colb
p2224
I1
sVczmdxi7
p2225
I1
sVdci011c
p2226
I1
sVdelz11x
p2227
I3
sVd78ojt5
p2228
I1
sVdbjd7n8
p2229
I1
sVdsui86a
p2230
I1
sVdngmwzf
p2231
I3
sVdnla41c
p2232
I1
sVddchjbx
p2233
I2
sVdd3fqzm
p2234
I1
sVdg7wpx5
p2235
I1
sVdczasnp
p2236
I1
sVcyzx33f
p2237
I1
sVdeih11p
p2238
I1
sVd9x5s3p
p2239
I3
sVd8rz7yz
p2240
I1
sVdpwmjws
p2241
I1
sVczeumk8
p2242
I1
sVddnee3o
p2243
I1
sVdd3ikmy
p2244
I1
sVdcmgplj
p2245
I1
sVdj90pgh
p2246
I1
sVdbaocaa
p2247
I1
sVdkp80vv
p2248
I1
sVdb7s9oy
p2249
I1
sVdb27vtw
p2250
I1
sVd23j527
p2251
I1
sVd5vv4nu
p2252
I1
sVdafz9bo
p2253
I1
sVd6zkrmi
p2254
I1
sVdmupf3w
p2255
I1
sVdsibnni
p2256
I1
sVcyqq8hx
p2257
I1
sVd2accok
p2258
I1
sVdbe7hn2
p2259
I1
sVdi2bm5l
p2260
I1
sVdd56nmj
p2261
I1
sVd2sgplc
p2262
I1
sVd0dfq04
p2263
I1
sVd1inlhf
p2264
I1
sVdr1zjg8
p2265
I3
sVd5rjdj6
p2266
I1
sVd5zf09v
p2267
I1
sVczlwqzv
p2268
I1
sVd0i7hnt
p2269
I1
sVdc35yqr
p2270
I1
sVd2d4bsu
p2271
I1
sVd280jx1
p2272
I2
sVdollkdh
p2273
I1
sVd2aqxae
p2274
I1
sVdn4ajfy
p2275
I1
sVcyxtyjl
p2276
I1
sVd650988
p2277
I1
sVdbxrdbw
p2278
I1
sVdfic87t
p2279
I1
sVd15veo4
p2280
I1
sVd38aujf
p2281
I1
sVda12qdd
p2282
I1
sVdenj8e0
p2283
I1
sVd9jwzif
p2284
I1
sVd355op4
p2285
I1
sVdabopo8
p2286
I1
sVd5qkz7l
p2287
I1
sVd3m4orb
p2288
I1
sVdqkzscq
p2289
I1
sVdn4ackt
p2290
I1
sVdfypft3
p2291
I1
sVd4v1dqf
p2292
I1
sVd6rpo9j
p2293
I1
sVd7nx8j5
p2294
I1
sVd9al5gq
p2295
I1
sVd4u02rp
p2296
I1
sVdbbfyy1
p2297
I1
sVdg7vzgu
p2298
I1
sVdebo8bl
p2299
I3
sVdjtjotm
p2300
I1
sVd4n2ztc
p2301
I2
sVczkzkom
p2302
I1
sVdjoudz8
p2303
I1
sVd908qpg
p2304
I1
sVdcugwdd
p2305
I1
sVdj9pe52
p2306
I1
sVd0dfp30
p2307
I1
sVdboz8h5
p2308
I1
sVcylz2m4
p2309
I1
sVd298ubi
p2310
I1
sVdb2ygas
p2311
I2
sVdklw8ct
p2312
I1
sVdskq0lc
p2313
I1
sVdgibbkc
p2314
I1
sVd9v87mu
p2315
I1
sVcyrzdd7
p2316
I1
sVddhwalz
p2317
I1
sVcze01vj
p2318
I1
sVdqebzzl
p2319
I1
sVdi3d0e8
p2320
I1
sVd12tskt
p2321
I1
sVd3w604v
p2322
I1
sVdmy6t8u
p2323
I1
sVdfdu97r
p2324
I2
sVd5odhi6
p2325
I2
sVd71o5vf
p2326
I1
sVdcpzlb2
p2327
I1
sVdduoxaz
p2328
I1
sVdajry64
p2329
I1
sVdja7q5k
p2330
I2
sVd6joqi4
p2331
I1
sVdjb3tbz
p2332
I1
sVdbzh0su
p2333
I1
sVdejq96c
p2334
I1
sVczmylr0
p2335
I1
sVd0jh4t8
p2336
I1
sVd9l7kec
p2337
I1
sVd29j8cz
p2338
I2
sVdegephy
p2339
I1
sVdbvzje9
p2340
I1
sVdbcim6a
p2341
I1
sVd3k96rf
p2342
I1
sVdc3cx3l
p2343
I2
sVdendonc
p2344
I1
sVd7ri8qv
p2345
I2
sVd3cguya
p2346
I1
sVdn5ku00
p2347
I1
sVd1hft9x
p2348
I1
sVd2bv50s
p2349
I1
sVd2gh5hs
p2350
I1
sVd0rucsq
p2351
I1
sVd7ass6g
p2352
I2
sVdecxscs
p2353
I1
sVdfvkf72
p2354
I1
sVdbbwc3a
p2355
I1
sVdmkzb95
p2356
I1
sVdiasl68
p2357
I1
sVdethxkt
p2358
I1
sVdd5c53w
p2359
I1
sVd24420e
p2360
I2
sVddhyzxy
p2361
I1
sVditss9s
p2362
I1
sVdqtutwx
p2363
I2
sVddlos7e
p2364
I1
sVdd5ilit
p2365
I1
sVd9en0y8
p2366
I1
sVdid2mqe
p2367
I1
sVdrd7lgi
p2368
I1
sVddmscjp
p2369
I1
sVd1zqdau
p2370
I1
sVdkbaep4
p2371
I1
sVdr4j8xg
p2372
I1
sVdfpwkyq
p2373
I1
sVddbyfhv
p2374
I1
sVd4m10u5
p2375
I1
sVd14d804
p2376
I1
sVdbc3xlv
p2377
I1
sVdar31g9
p2378
I1
sVd4mf3zv
p2379
I1
sVdbncto2
p2380
I2
sVd3wyvpv
p2381
I1
sVdpxi5db
p2382
I1
sVd38orqr
p2383
I1
sVddgz26e
p2384
I1
sVdq2iezz
p2385
I1
sVdfxqf1e
p2386
I2
sVd59l9rk
p2387
I1
sVddiirrf
p2388
I1
sVdtf9ruf
p2389
I1
sVdojfous
p2390
I1
sVdcjys5g
p2391
I1
sVdatb1lr
p2392
I1
sVddif02h
p2393
I1
sVcynviz3
p2394
I2
sVd9r735i
p2395
I1
sVczw41yt
p2396
I1
sVd8fnfuw
p2397
I1
sVczi9ype
p2398
I1
sVd05dsh7
p2399
I1
sVdg3usiq
p2400
I1
sVd20c7do
p2401
I1
sVd4gc65a
p2402
I1
sVdc758v1
p2403
I1
sVczvwqeh
p2404
I1
sVd2uu4n5
p2405
I1
sVdfu4gdd
p2406
I1
sVd043ylo
p2407
I1
sVd7ua6ek
p2408
I1
sVdberuzr
p2409
I1
sVdac2bd7
p2410
I3
sVdk04rtz
p2411
I1
sVdfyqb0n
p2412
I1
sVd0almvy
p2413
I1
sVcyvkn4w
p2414
I1
sVd892rzn
p2415
I1
sVd35kbyy
p2416
I1
sVdckjpgi
p2417
I1
sVdbfk9qh
p2418
I1
sVdpwvojz
p2419
I1
sVd9d4tie
p2420
I1
sVd537l4y
p2421
I1
sVdf5iw9v
p2422
I1
sVdbq3teq
p2423
I1
sVd2zgw3h
p2424
I1
sVdfighva
p2425
I1
sVddk061f
p2426
I4
sVdipu3ai
p2427
I1
sVd6g2o84
p2428
I1
sVd69ff5v
p2429
I1
sVd9znf1r
p2430
I1
sVdef1tci
p2431
I1
sVdje69wr
p2432
I1
sVdj2p1hd
p2433
I1
sVczwxxcx
p2434
I1
sVdixc670
p2435
I2
sVdevsro9
p2436
I1
sVddwmlen
p2437
I1
sVczx1msl
p2438
I1
sVdhg0iaf
p2439
I1
sVd5d9ksj
p2440
I1
sVdedjxyz
p2441
I1
sVczh017h
p2442
I1
sVd7lko20
p2443
I1
sVdcgqs00
p2444
I1
sVcyo5aeu
p2445
I1
sVdhujxsx
p2446
I1
sVdgpz8lr
p2447
I1
sVd7slpye
p2448
I1
sVdk8jk7t
p2449
I1
sVdj39vdv
p2450
I1
sVdnblas7
p2451
I1
sVdaijsxf
p2452
I1
sVdgagr7b
p2453
I1
sVd22u3o8
p2454
I1
sVdi7byd5
p2455
I1
sVczcz9ac
p2456
I1
sVd14kfoz
p2457
I1
sVd67l42e
p2458
I4
sVd1l68qw
p2459
I1
sVczhp8mn
p2460
I2
sVdpu08im
p2461
I1
sVd30qnjt
p2462
I1
sVd3licvl
p2463
I1
sVdrsnyt1
p2464
I1
sVdbpo05y
p2465
I1
sVdgxsgvy
p2466
I3
sVd77vb7j
p2467
I1
sVdavdk7n
p2468
I1
sVczi699p
p2469
I1
sVd086qbb
p2470
I1
sVd44pt1h
p2471
I2
sVd0krux1
p2472
I1
sVd4gpz94
p2473
I1
sVdmxca6t
p2474
I1
sVdd12l50
p2475
I1
sVdefwtyy
p2476
I1
sVd0u7qq6
p2477
I1
sVde0bxjy
p2478
I1
sVd2w67oy
p2479
I1
sVd4y5bwj
p2480
I1
sVdbgph6o
p2481
I1
sVddht1oe
p2482
I1
sVd7lydlj
p2483
I1
sVd69fxjl
p2484
I1
sVdi2iz4p
p2485
I1
sVdi8uk66
p2486
I2
sVcyx3qm5
p2487
I1
sVddla50c
p2488
I2
sVdhuv80w
p2489
I1
sVdh9qdwz
p2490
I1
sVd0fjbh4
p2491
I1
sVdespjtq
p2492
I1
sVd077epq
p2493
I1
sVdomtcw1
p2494
I1
sVdjj833a
p2495
I1
sVd37c8z9
p2496
I1
sVd4bwpx1
p2497
I1
sVdc3xxhp
p2498
I1
sVdbh8rvo
p2499
I2
sVdfz39na
p2500
I1
sVdilbikz
p2501
I1
sVdrzphxq
p2502
I1
sVd8khz0t
p2503
I1
sVd5ypk9y
p2504
I1
sVdcufu74
p2505
I1
sVdsq5qfi
p2506
I1
sVd75uagq
p2507
I1
sVdj63j2r
p2508
I1
sVdernmk8
p2509
I1
sVdh1xjkn
p2510
I1
sVd2663xv
p2511
I1
sVdccv49z
p2512
I1
sVdiq97fd
p2513
I1
sVd6mg0aq
p2514
I1
sVd25qtn1
p2515
I1
sVdmz0hwn
p2516
I1
sVd3dyxrq
p2517
I1
sVdsst7zp
p2518
I1
sVd0ek051
p2519
I1
sVdn0y5x8
p2520
I2
sVcylgp7g
p2521
I1
sVcyjb4ks
p2522
I1
sVd7bodhw
p2523
I1
sVdf2zag2
p2524
I2
sVdjskw9l
p2525
I1
sVd2js5c0
p2526
I1
sVdg5qrk8
p2527
I1
sVdo7xgx6
p2528
I1
sVdrcb7d1
p2529
I1
sVdfrikyg
p2530
I1
sVd3jjzgx
p2531
I2
sVd9tkgjk
p2532
I1
sVdqd9m2h
p2533
I1
sVd8wvhd1
p2534
I1
sVd67lcao
p2535
I4
sVd2aiz9n
p2536
I1
sVdqk0gd2
p2537
I1
sVd2aybmh
p2538
I1
sVdc0onvy
p2539
I1
sVd1b34bx
p2540
I1
sVdbjralv
p2541
I1
sVd3iu2pj
p2542
I1
sVdg2c8xd
p2543
I2
sVdoub8va
p2544
I1
sVd1dy88f
p2545
I3
sVdr6zabm
p2546
I1
sVczrkx04
p2547
I1
sVdhujnfm
p2548
I2
sVdijodo7
p2549
I2
sVdpyhbho
p2550
I1
sVddwj7gs
p2551
I1
sVd26mdrv
p2552
I1
sVdaty8oo
p2553
I1
sVcz5mcuo
p2554
I1
sVcyt5exq
p2555
I2
sVdcb7cde
p2556
I1
sVd0svdrn
p2557
I1
sVd7czm0a
p2558
I1
sVdnu0uef
p2559
I1
sVdhtvie8
p2560
I1
sVdb3pg2u
p2561
I1
sVd2lvkcz
p2562
I2
sVd2a0c4h
p2563
I1
sVczehg45
p2564
I1
sVde7652o
p2565
I1
sVd5aql9q
p2566
I1
sVcyih01p
p2567
I1
sVd94sth7
p2568
I1
sVczttb4w
p2569
I1
sVdhciqby
p2570
I1
sVddwnclr
p2571
I1
sVcylksm6
p2572
I1
sVdrdijfp
p2573
I1
sVdidilb4
p2574
I1
sVdimet24
p2575
I1
sVddpa4ws
p2576
I1
sVd5e79b4
p2577
I2
sVdet6wr8
p2578
I1
sVdfwv2t4
p2579
I1
sVd0y3u1w
p2580
I1
sVd1afzbh
p2581
I1
sVczf2xkk
p2582
I2
sVdipy691
p2583
I1
sVd4104lz
p2584
I1
sVczr0ch8
p2585
I1
sVdqtnkxy
p2586
I1
sVd6dztnh
p2587
I1
sVdrkw0td
p2588
I2
sVdrw2kg2
p2589
I1
sVddu46vp
p2590
I1
sVd8jzni1
p2591
I1
sVde30kj8
p2592
I1
sVcywl1lq
p2593
I1
sVd3as6yo
p2594
I1
sVdpxhhkd
p2595
I1
sVd038jl0
p2596
I1
sVdgwti3k
p2597
I1
sVdta6gyw
p2598
I1
sVdswbm5s
p2599
I1
sVd8oioam
p2600
I1
sVd9zukwp
p2601
I3
sVd6m479l
p2602
I1
sVd6zdv6f
p2603
I1
sVdbewqqx
p2604
I1
sVdj9ojkw
p2605
I1
sVd7ugn5i
p2606
I1
sVcyps2t0
p2607
I1
sVd6vcmmv
p2608
I1
sVdtgjxdo
p2609
I1
sVd9y1jb8
p2610
I1
sVd3kljuv
p2611
I1
sVd0psn6z
p2612
I1
sVdj54kgk
p2613
I1
sVdf3azzo
p2614
I1
sVdp82ln8
p2615
I3
sVdh6r8wj
p2616
I1
sVd1k0y1x
p2617
I1
sVcyszv8o
p2618
I1
sVdd5lg1v
p2619
I1
sVdk5k1zo
p2620
I1
sVddi3f81
p2621
I1
sVdc902t4
p2622
I1
sVdsawens
p2623
I1
sVddpwllt
p2624
I1
sVczw4h3i
p2625
I1
sVd9zqi7o
p2626
I1
sVdmxhoxx
p2627
I1
sVd3znyh3
p2628
I1
sVd3kdmpg
p2629
I1
sVd28kgj1
p2630
I1
sVdr0e80j
p2631
I1
sVdcgb9pn
p2632
I1
sVdabq7ev
p2633
I1
sVdccgr4j
p2634
I1
sVdbrho64
p2635
I1
sVcyjd8l3
p2636
I1
sVdrsk6jb
p2637
I1
sVd0ui6kn
p2638
I1
sVd1ko0vi
p2639
I1
sVd4bcuix
p2640
I1
sVdtg2afr
p2641
I1
sVcznf1ar
p2642
I1
sVdgq521l
p2643
I1
sVcym0066
p2644
I1
sVdbbo2za
p2645
I1
sVdadpoiu
p2646
I2
sVd5fnwqg
p2647
I1
sVdh5p4ey
p2648
I1
sVdb6tlem
p2649
I1
sVdknbgwd
p2650
I1
sVdtc3kpw
p2651
I2
sVd7nwkn2
p2652
I1
sVded104x
p2653
I1
sVdg0wnea
p2654
I1
sVcz283r5
p2655
I1
sVd0d25q5
p2656
I1
sVdgu7r9l
p2657
I1
sVd14jtiq
p2658
I1
sVdifqt6r
p2659
I2
sVdfrioqr
p2660
I1
sVdk1rl3g
p2661
I1
sVddtabf3
p2662
I1
sVdhmz480
p2663
I1
sVddfrqar
p2664
I1
sVddjar6t
p2665
I2
sVdg0ihc3
p2666
I1
sVdb9a3lo
p2667
I2
sVdi6k67y
p2668
I2
sVddc92po
p2669
I1
sVdsn7lah
p2670
I1
sVd8n5z18
p2671
I1
sVdba630y
p2672
I1
sVdd0wfod
p2673
I1
sVd984j9k
p2674
I1
sVd8mc8q1
p2675
I1
sVd5x1vrb
p2676
I1
sVd4chz4r
p2677
I1
sVcyv1id9
p2678
I1
sVd6yqale
p2679
I1
sVdn4r6l4
p2680
I1
sVd7a57q6
p2681
I1
sVdd53l5t
p2682
I1
sVd1o1vda
p2683
I1
sVd4tts7m
p2684
I1
sVczubtdg
p2685
I1
sVdgxiuxg
p2686
I1
sVdhemdur
p2687
I1
sVcz2bhjy
p2688
I2
sVd5nlsqr
p2689
I2
sVdqb300i
p2690
I1
sVdjgs7m7
p2691
I1
sVd9x4dmg
p2692
I1
sVd2hengs
p2693
I1
sVdfbyjqv
p2694
I1
sVdhmnmlo
p2695
I1
sVdtaafo4
p2696
I1
sVd0c3t9n
p2697
I2
sVd993jjm
p2698
I1
sVdftharl
p2699
I1
sVdgwapbc
p2700
I1
sVdgv1sxf
p2701
I1
sVdmrftvy
p2702
I1
sVdqjwnkj
p2703
I1
sVddbsjl6
p2704
I1
sVd81v5sa
p2705
I1
sVdbcj4ir
p2706
I1
sVd6vok5c
p2707
I1
sVdgktfmb
p2708
I1
sVdd3dbkn
p2709
I4
sVd29b0bz
p2710
I1
sVd0w2qoe
p2711
I1
sVdeldqlx
p2712
I1
sVcz8ay5m
p2713
I1
sVd0fn24z
p2714
I1
sVdkqr78n
p2715
I1
sVczggez6
p2716
I1
sVd8qtoj3
p2717
I1
sVdg870ay
p2718
I1
sVds538wk
p2719
I1
sVd149c63
p2720
I1
sVd4i0nxj
p2721
I1
sVdeh6cp2
p2722
I1
sVdei26ro
p2723
I1
sVdomxhnq
p2724
I2
sVdbgj4er
p2725
I1
sVd7l693v
p2726
I1
sVd9c8ret
p2727
I1
sVdsmdx71
p2728
I1
sVd315iq2
p2729
I1
sVdcc8y23
p2730
I1
sVd9e8ih7
p2731
I1
sVdiqja6i
p2732
I1
sVdid4zp4
p2733
I1
sVczt19sn
p2734
I1
sVdbyh49v
p2735
I1
sVcz9217h
p2736
I1
sVd9by86s
p2737
I1
sVczahnmh
p2738
I1
sVdhtjywb
p2739
I2
sVdfff8mj
p2740
I1
sVdc0en27
p2741
I1
sVcyma52c
p2742
I1
sVdrsafmz
p2743
I1
sVd1rlvpc
p2744
I1
sVd69nrmp
p2745
I1
sVd498rp0
p2746
I2
sVddhpy3b
p2747
I1
sVczurlsb
p2748
I1
sVdes0r5i
p2749
I1
sVdjg96l5
p2750
I1
sVdc2uikf
p2751
I1
sVds0b9f1
p2752
I1
sVdnawmyh
p2753
I1
sVdo895m4
p2754
I1
sVdnrhire
p2755
I1
sVdmf5zvc
p2756
I1
sVdba5izg
p2757
I1
sVd70ot5x
p2758
I1
sVd0wrki1
p2759
I1
sVdtfn4kf
p2760
I1
sVdqoigm2
p2761
I2
sVdmsddkf
p2762
I1
sVczz4f90
p2763
I1
sVd5cwmmj
p2764
I1
sVdo0j87a
p2765
I1
sVd9t9w76
p2766
I1
sVd46712g
p2767
I1
sVd4tgift
p2768
I1
sVd4r749x
p2769
I2
sVdheufe0
p2770
I2
sVd28z7tg
p2771
I1
sVdavn1mb
p2772
I2
sVd6w72qw
p2773
I1
sVdkuaebg
p2774
I1
sVdgvl106
p2775
I1
sVdqfzjwv
p2776
I1
sVdk689el
p2777
I1
sVdj24te0
p2778
I1
sVdb5o8lt
p2779
I1
sVdhfe4rl
p2780
I1
sVd97kbac
p2781
I1
sVddq7drp
p2782
I1
sVd2bka6g
p2783
I1
sVd8aokat
p2784
I1
sVdjvlgbj
p2785
I1
sVd67z1lw
p2786
I1
sVdai3k5w
p2787
I1
sVdi7tdr5
p2788
I1
sVdnl4l22
p2789
I1
sVderd6ws
p2790
I1
sVcyjrfco
p2791
I1
sVddtx7j7
p2792
I2
sVddpv043
p2793
I1
sVd39rrjj
p2794
I1
sVd4ccnrd
p2795
I1
sVd131nw2
p2796
I1
sVdp7dhog
p2797
I1
sVcylkpmb
p2798
I1
sVd9cog07
p2799
I1
sVd4m55l7
p2800
I1
sVdhxjuhi
p2801
I1
sVcyo6n9w
p2802
I1
sVd40vscb
p2803
I1
sVd1d8lwy
p2804
I2
sVdqu93qe
p2805
I1
sVczh0234
p2806
I1
sVd9mrp76
p2807
I1
sVdh3cbm2
p2808
I1
sVd1m21qa
p2809
I1
sVddu5v6z
p2810
I1
sVd8v2dok
p2811
I1
sVdboe9h6
p2812
I1
sVd56ilpv
p2813
I1
sVd0psmid
p2814
I1
sVdelub9c
p2815
I1
sVddhsget
p2816
I2
sVd6zj7ze
p2817
I1
sVdeo5y9j
p2818
I1
sVd92usms
p2819
I1
sVd2wa6qf
p2820
I1
sVd0slfd9
p2821
I1
sVdf42yln
p2822
I1
sVd7u7a7k
p2823
I1
sVd4wdlzp
p2824
I1
sVd8fdpaz
p2825
I1
sVdkd9xk1
p2826
I1
sVdpzee3c
p2827
I1
sVde0ktlq
p2828
I1
sVdnnog9g
p2829
I1
sVd4i5giv
p2830
I1
sVdc9jisu
p2831
I1
sVdaiws4j
p2832
I1
sVdbil918
p2833
I1
sVdamfi16
p2834
I1
sVd7r8z4c
p2835
I1
sVd0nmou8
p2836
I1
sVdjxgghq
p2837
I1
sVdaj7fnm
p2838
I1
sVcyuehpc
p2839
I1
sVd8uoccn
p2840
I1
sVd5tggpx
p2841
I1
sVd9kdwfn
p2842
I1
sVcysgq9f
p2843
I1
sVd0x4nsf
p2844
I1
sVd9n7c1l
p2845
I1
sVd0ohqtt
p2846
I1
sVddpej6z
p2847
I1
sVdfxfq3y
p2848
I1
sVdcco8ja
p2849
I1
sVd3ugsqr
p2850
I1
sVd445a72
p2851
I1
sVdfad7h3
p2852
I1
sVd849sby
p2853
I1
sVd2u1yr1
p2854
I1
sVdj4qkkj
p2855
I1
sVd8s6t3d
p2856
I2
sVd82l8mr
p2857
I1
sVd89u0qd
p2858
I1
sVd7a9lxh
p2859
I1
sVcz05hip
p2860
I1
sVdgnhj2r
p2861
I1
sVdd3vzer
p2862
I1
sVd27vr6g
p2863
I1
sVd9btfmg
p2864
I1
sVdkv2gdp
p2865
I2
sVd7v8vn5
p2866
I1
sVcze8wwk
p2867
I1
sVdprddt2
p2868
I1
sVd0wfels
p2869
I3
sVdnb6dhj
p2870
I1
sVczhvrng
p2871
I1
sVdan9ozj
p2872
I1
sVcz7es1h
p2873
I1
sVdcvszg1
p2874
I1
sVddla5ty
p2875
I1
sVd9wv59y
p2876
I1
sVd1tomth
p2877
I1
sVd5jo9zu
p2878
I1
sVdi0u2it
p2879
I2
sVdruo9px
p2880
I1
sVd50txar
p2881
I1
sVdeaikdc
p2882
I1
sVdgn3ruk
p2883
I1
sVdbba16o
p2884
I1
sVdf63m8x
p2885
I1
sVdj31j8f
p2886
I2
sVdnzvt3e
p2887
I1
sVd1fedjn
p2888
I1
sVdbw8zjc
p2889
I1
sVd64t4zl
p2890
I1
sVdcrbdm9
p2891
I1
sVczafxao
p2892
I1
sVd2b2rzc
p2893
I1
sVds22ips
p2894
I1
sVdb7vja1
p2895
I1
sVdbusqbl
p2896
I2
sVdntc2d6
p2897
I1
sVdgxohoy
p2898
I2
sVd1wrr1t
p2899
I1
sVdgobqs0
p2900
I1
sVczqr72a
p2901
I1
sVdhrox1t
p2902
I1
sVdp7x42t
p2903
I2
sVdeq52j8
p2904
I2
sVd3pz7le
p2905
I1
sVdcbph8p
p2906
I1
sVd8cb6o0
p2907
I2
sVdgziye7
p2908
I1
sVd0a7j6t
p2909
I1
sVcylrkg7
p2910
I1
sVdn23d1o
p2911
I1
sVdd1fh4k
p2912
I1
sVdibwpgj
p2913
I1
sVdhw7n1q
p2914
I1
sVdgaf32n
p2915
I1
sVdsi28vx
p2916
I1
sVdmkvvuw
p2917
I1
sVd7k96e1
p2918
I1
sVcz992pr
p2919
I1
sVcykwkrj
p2920
I1
sVdmv54yu
p2921
I1
sVdfxxkx8
p2922
I1
sVdairblz
p2923
I1
sVde7sfij
p2924
I1
sVdcvl99q
p2925
I2
sVdb4uoe6
p2926
I1
sVcyta89h
p2927
I1
sVdj2hif1
p2928
I1
sVdctiasz
p2929
I1
sVd9v3qz9
p2930
I1
sVd8q10up
p2931
I1
sVdjfmnq6
p2932
I1
sVdtf850x
p2933
I1
sVdbcu74k
p2934
I1
sVd96hbtn
p2935
I1
sVd2ah5st
p2936
I1
sVd9j1zhh
p2937
I1
sVdk1uosg
p2938
I1
sVd9mxdh2
p2939
I1
sVddr4u2h
p2940
I2
sVddaol7z
p2941
I2
sVdbj0s06
p2942
I1
sVd95nwt8
p2943
I1
sVdbxgcog
p2944
I1
sVdbsltfz
p2945
I1
sVdmigg81
p2946
I1
sVdb5kpf4
p2947
I1
sVd7g80jr
p2948
I1
sVd8km3me
p2949
I1
sVd01san8
p2950
I1
sVdo60joz
p2951
I1
sVd1edjao
p2952
I1
sVdf1zyne
p2953
I1
sVdq5o6n1
p2954
I1
sVd8vc746
p2955
I1
sVdix3lvc
p2956
I1
sVdcp1nv3
p2957
I1
sVcz1evtq
p2958
I1
sVdnb9csf
p2959
I1
sVd47vlj6
p2960
I1
sVdbh5qic
p2961
I1
sVdhg99nq
p2962
I2
sVd10neuf
p2963
I1
sVddy2n7z
p2964
I1
sVczv4aoj
p2965
I1
sVcysm91r
p2966
I1
sVd932vly
p2967
I1
sVd9xu67z
p2968
I1
sVdcxlv1t
p2969
I1
sVd7gn9b2
p2970
I1
sVd012mft
p2971
I1
sVdnkdday
p2972
I1
sVdhjuohx
p2973
I1
sVdh1k6h0
p2974
I1
sVdsmbm49
p2975
I1
sVdk0ffus
p2976
I1
sVdtfu8zk
p2977
I1
sVdb59sq6
p2978
I1
sVd3fjspr
p2979
I1
sVd847wff
p2980
I1
sVdgph0di
p2981
I1
sVdkrkmii
p2982
I1
sVd4bcipl
p2983
I1
sVdahb5po
p2984
I1
sVddwi4lj
p2985
I1
sVd1hlnl5
p2986
I1
sVd5naqvv
p2987
I1
sVdr73wyi
p2988
I1
sVddkfkcl
p2989
I1
sVdcmc1tb
p2990
I2
sVdp473i5
p2991
I1
sVd1y85mq
p2992
I1
sVd8lo25i
p2993
I1
sVd9arppf
p2994
I1
sVczts6d2
p2995
I2
sVd3w1h6p
p2996
I1
sVdgh2xiz
p2997
I1
sVd84kp78
p2998
I1
sVdboye2b
p2999
I1
sVdpd5arm
p3000
I1
sVd32mpww
p3001
I1
sVd6c06bp
p3002
I1
sVd539j9v
p3003
I1
sVdi9nn2k
p3004
I1
sVdry294s
p3005
I2
sVd2ta9kd
p3006
I1
sVdofhgl0
p3007
I1
sVd6ih583
p3008
I1
sVd8h9z1p
p3009
I1
sVd6vft61
p3010
I1
sVd2vcpd3
p3011
I1
sVcyv8bgh
p3012
I1
sVd6ln0zv
p3013
I1
sVdewem35
p3014
I1
sVdcxbwwx
p3015
I1
sVd7ecvid
p3016
I1
sVd4bc4no
p3017
I1
sVd1r93x9
p3018
I1
sVdckkg1z
p3019
I1
sVd0fur88
p3020
I1
sVdkkv67j
p3021
I1
sVdcixtk8
p3022
I1
sVddfrefu
p3023
I2
sVd3j4rco
p3024
I1
sVdb0nkgy
p3025
I1
sVcyjqe49
p3026
I1
sVdggv7a7
p3027
I1
sVdjxvz91
p3028
I1
sVd30wx5o
p3029
I1
sVd0xaunr
p3030
I1
sVdc7xzmp
p3031
I1
sVd26nwa0
p3032
I1
sVdjh7po2
p3033
I1
sVdd51eot
p3034
I1
sVdbwozxs
p3035
I1
sVdkqxip4
p3036
I1
sVdfnn8mg
p3037
I1
sVd3f7yss
p3038
I1
sVdg9uhdw
p3039
I1
sVd1ln7ig
p3040
I1
sVddfckvc
p3041
I1
sVdeivuu1
p3042
I1
sVdhx63xs
p3043
I1
sVd2bvsq2
p3044
I1
sVd2kmkql
p3045
I1
sVd67sr03
p3046
I1
sVd03lm01
p3047
I1
sVdfu8ulm
p3048
I1
sVd1rvxv8
p3049
I1
sVdn71hbl
p3050
I1
sVd45o4id
p3051
I1
sVd4cqs0y
p3052
I1
sVd8pl944
p3053
I1
sVd3e5uey
p3054
I1
sVdkuke3e
p3055
I1
sVda6kwy4
p3056
I2
sVdchnpnj
p3057
I1
sVdgfavlu
p3058
I1
sVdfyepyj
p3059
I1
sVdeinesw
p3060
I1
sVczd3q18
p3061
I1
sVdcsyb4v
p3062
I1
sVd6zlorg
p3063
I1
sVddlas3k
p3064
I1
sVdgjb66s
p3065
I2
sVd07452m
p3066
I1
sVdc2f8zs
p3067
I1
sVd3e8n2e
p3068
I1
sVd80rdlt
p3069
I1
sVd5yv739
p3070
I2
sVdopfqjw
p3071
I1
sVde1bv3g
p3072
I1
sVdtbk7dc
p3073
I2
sVda5bvkz
p3074
I1
sVdgb8i4r
p3075
I1
sVdke3ksp
p3076
I1
sVcyt6q6z
p3077
I1
sVdbk497r
p3078
I1
sVd5vrvwt
p3079
I1
sVdj773zx
p3080
I1
sVdsoz9rg
p3081
I1
sVds4ug8j
p3082
I1
sVcysv2zs
p3083
I1
sVdgw5ozl
p3084
I1
sVd63cpcg
p3085
I1
sVd2fiq5k
p3086
I1
sVdelexag
p3087
I1
sVd5gxvi7
p3088
I3
sVdmmi5vf
p3089
I1
sVd8qlt2c
p3090
I2
sVd12jn3s
p3091
I1
sVd7onvzn
p3092
I2
sVd3z4sgd
p3093
I1
sVd1pb9a1
p3094
I1
sVdkvapti
p3095
I1
sVd1gfc4u
p3096
I1
sVde8qcwi
p3097
I1
sVd8f9n33
p3098
I1
sVd0je2lj
p3099
I1
sVdtfm68o
p3100
I1
sVdfd5gop
p3101
I1
sVd3lihr6
p3102
I1
sVdsvnb1a
p3103
I1
sVdtfw2uz
p3104
I1
sVdi4p324
p3105
I1
sVd61okik
p3106
I1
sVd0l0eev
p3107
I1
sVd1mxp2s
p3108
I1
sVczc6to2
p3109
I1
sVdawrl29
p3110
I1
sVd44u2rx
p3111
I1
sVddut9o0
p3112
I1
sVd8d2so1
p3113
I1
sVd1d7kfk
p3114
I1
sVd126o0w
p3115
I1
sVdaqiep5
p3116
I1
sVd2q6u75
p3117
I1
sVdn0wzdn
p3118
I2
sVd35b7cv
p3119
I1
sVd0xb5ft
p3120
I1
sVd8giubt
p3121
I1
sVd97ld8e
p3122
I2
sVd62tfh9
p3123
I1
sVcz9v6gg
p3124
I1
sVd6wypal
p3125
I1
sVd3bwbmx
p3126
I1
sVdgtrb1z
p3127
I1
sVczh2yzr
p3128
I1
sVd0fu7w8
p3129
I1
sVd00h92y
p3130
I1
sVd0iqxcj
p3131
I1
sVd5hu6lg
p3132
I1
sVd65hg4b
p3133
I1
sVd1p1efc
p3134
I1
sVdcaqxok
p3135
I1
sVdnpjs6a
p3136
I1
sVd65tusf
p3137
I1
sVd70mrkh
p3138
I1
sVdctr4wq
p3139
I1
sVdh9zu1s
p3140
I1
sVd0d5hi8
p3141
I1
sVdepr4o3
p3142
I1
sVd3wljng
p3143
I1
sVdjs1j1x
p3144
I1
sVdctgbwp
p3145
I3
sVd0i8axp
p3146
I2
sVdekxr9f
p3147
I1
sVdde58y4
p3148
I1
sVcynzj6i
p3149
I1
sVd2gwq0y
p3150
I1
sVdefobme
p3151
I1
sVd0lw9cw
p3152
I1
sVczybulg
p3153
I1
sVd9uyw4q
p3154
I1
sVczgd6cp
p3155
I1
sVd402mph
p3156
I1
sVdfoufjc
p3157
I1
sVdixzxim
p3158
I1
sVdcq1z89
p3159
I1
sVd34pkk5
p3160
I1
sVddjkpfl
p3161
I1
sVdgjke58
p3162
I1
sVdfqhtac
p3163
I1
sVdcvjyib
p3164
I1
sVdn90hdu
p3165
I1
sVd120cb5
p3166
I1
sVdr96e51
p3167
I1
sVdklrprd
p3168
I1
sVdha3ynz
p3169
I1
sVdr7bff5
p3170
I1
sVd53apyi
p3171
I1
sVdclnu5i
p3172
I2
sVdewsmtx
p3173
I1
sVdsyl345
p3174
I1
sVd1yy31f
p3175
I1
sVds2x0mi
p3176
I1
sVd1icyin
p3177
I2
sVczbdre7
p3178
I1
sVd74mhsu
p3179
I1
sVd1isk6i
p3180
I2
sVd9zc7dn
p3181
I1
sVdc0jqj0
p3182
I1
sVd37ir3d
p3183
I1
sVd3l1pr4
p3184
I1
sVdknfaev
p3185
I1
sVdb3jf34
p3186
I1
sVdeh9rts
p3187
I1
sVd0nh3fg
p3188
I1
sVd9dd5i2
p3189
I2
sVd4xzil4
p3190
I1
sVdjcdhqw
p3191
I2
sVcyrmjo8
p3192
I1
sVdgkzr26
p3193
I2
sVddwi2u3
p3194
I1
sVcymuo5r
p3195
I1
sVddcuqks
p3196
I1
sVd1q08j5
p3197
I1
sVd19miwm
p3198
I1
sVdg6dwsn
p3199
I1
sVd4v2r0k
p3200
I1
sVczl2egc
p3201
I1
sVde45tna
p3202
I1
sVdj68nhj
p3203
I1
sVderj582
p3204
I1
sVd3vupfn
p3205
I1
sVcz6vf6o
p3206
I1
sVd38owqi
p3207
I1
sVdmiu3m5
p3208
I4
sVdbjtydr
p3209
I1
sVczyjc61
p3210
I1
sVd36ltav
p3211
I1
sVdbo4utu
p3212
I1
sVd0vw9ft
p3213
I1
sVdfyz4j8
p3214
I2
sVcyt5uy0
p3215
I1
sVdpx0fvj
p3216
I1
sVd5e45hi
p3217
I1
sVd9o3b32
p3218
I1
sVdb3r8ev
p3219
I1
sVdihultp
p3220
I2
sVd9w9uyr
p3221
I1
sVczyt8kx
p3222
I1
sVdhmyclh
p3223
I1
sVd4ks1xu
p3224
I1
sVd07iltg
p3225
I1
sVdcbkttd
p3226
I1
sVdspaxuu
p3227
I1
sVd2ze07l
p3228
I1
sVdq6z3px
p3229
I1
sVd2ueiqy
p3230
I1
sVd2bjol8
p3231
I2
sVdoun3if
p3232
I2
sVdcyisen
p3233
I1
sVdh5rnqc
p3234
I1
sVd8f2ja7
p3235
I1
sVdjt3llk
p3236
I2
sVczf1g7q
p3237
I1
sVd7504st
p3238
I1
sVd80oiph
p3239
I1
sVdbd569c
p3240
I1
sVd2j081a
p3241
I1
sVd0h9x5o
p3242
I3
sVd1r3p9j
p3243
I2
sVd2quhex
p3244
I1
sVd5gpa5o
p3245
I1
sVczg8vbv
p3246
I1
sVd05jji1
p3247
I1
sVddyfmhw
p3248
I1
sVdaiv43b
p3249
I1
sVdks8bdp
p3250
I1
sVdry4ys1
p3251
I1
sVd6h0rh5
p3252
I1
sVd3npjea
p3253
I1
sVd6i9eof
p3254
I1
sVdhp8t6r
p3255
I1
sVd5nwasv
p3256
I1
sVdkjwp0n
p3257
I1
sVd0nrm47
p3258
I1
sVd1qzfpw
p3259
I1
sVd5fnis8
p3260
I1
sVdhrklr9
p3261
I1
sVd8q8drx
p3262
I1
sVd2k2tkz
p3263
I2
sVd31dwpe
p3264
I1
sVdb6vop8
p3265
I1
sVd9gp1ia
p3266
I1
sVdrtb5c9
p3267
I1
sVd339gn9
p3268
I1
sVd5opl9w
p3269
I1
sVdj4s52r
p3270
I1
sVczxzo0u
p3271
I1
sVd8920it
p3272
I1
sVczbzujl
p3273
I3
sVd7qf30u
p3274
I2
sVdd917j0
p3275
I1
sVd028j6t
p3276
I1
sVddw3hae
p3277
I1
sVdco7bar
p3278
I1
sVd4v72s5
p3279
I2
sVdhm3ogf
p3280
I1
sVcyvdyrr
p3281
I1
sVcyrf2y4
p3282
I3
sVdtc3ghx
p3283
I1
sVdpy7rb0
p3284
I1
sVdhk27vn
p3285
I1
sVd8njsol
p3286
I1
sVdgujyqa
p3287
I1
sVdnjfh11
p3288
I1
sVd05fixe
p3289
I1
sVdg3slma
p3290
I1
sVdew6ej2
p3291
I1
sVd4o1h9t
p3292
I1
sVd962jwt
p3293
I1
sVddgc3dk
p3294
I1
sVdanqflx
p3295
I1
sVd12x7bn
p3296
I1
sVdca8hif
p3297
I1
sVd58ylxk
p3298
I1
sVd44rz0d
p3299
I1
sVdbu9nmz
p3300
I1
sVdc2oiwd
p3301
I1
sVd5vooje
p3302
I1
sVd10nuaa
p3303
I1
sVd6v66bw
p3304
I1
sVd4q3ati
p3305
I1
sVd1v3skg
p3306
I1
sVdd6y6uh
p3307
I2
sVdbpcemo
p3308
I1
sVd8uwwqu
p3309
I1
sVczoyxlo
p3310
I1
sVdggmdhx
p3311
I1
sVdmoxb1s
p3312
I1
sVdpynplr
p3313
I1
sVdmmked6
p3314
I1
sVdnrihq8
p3315
I2
sVd6dtav1
p3316
I1
sVd7nqa3w
p3317
I1
sVd4wj7h8
p3318
I1
sVddla2mz
p3319
I1
sVd2j0zts
p3320
I1
sVd3osgub
p3321
I1
sVdhvhefm
p3322
I1
sVdosj3j3
p3323
I1
sVdkxiadd
p3324
I1
sVdi30u7y
p3325
I2
sVdbkm709
p3326
I1
sVdfh5zwk
p3327
I1
sVd65op9b
p3328
I1
sVd65io3d
p3329
I1
sVd6biu99
p3330
I1
sVd5vnlar
p3331
I1
sVdbjw8ek
p3332
I1
sVd4bh9wh
p3333
I1
sVd2hibrt
p3334
I1
sVd77hmoj
p3335
I1
sVd8ee1aw
p3336
I1
sVdforhsz
p3337
I1
sVd5e09bv
p3338
I1
sVd5kkr7k
p3339
I1
sVdpq6hr7
p3340
I1
sVdodxfxv
p3341
I1
sVdfh55n6
p3342
I1
sVdrgb7on
p3343
I1
sVdguhaf6
p3344
I2
sVd2o4qg3
p3345
I1
sVczplozy
p3346
I1
sVdgm5yvc
p3347
I1
sVd8ftepz
p3348
I1
sVdcpqin2
p3349
I1
sVdkovu11
p3350
I2
sVd2ac679
p3351
I2
sVd72cqsb
p3352
I2
sVde6wqcc
p3353
I1
sVd4sitr3
p3354
I1
sVd9j95r4
p3355
I1
sVde23cg9
p3356
I2
sVdjhi1nk
p3357
I1
sVdph5qo1
p3358
I1
sVczhiw1f
p3359
I1
sVdn3a4ox
p3360
I1
sVdjz2fvo
p3361
I4
sVdbqw0uj
p3362
I1
sVd8g5rqp
p3363
I2
sVdbh6elw
p3364
I1
sVdp8klzt
p3365
I1
sVd0klguc
p3366
I1
sVcyz9j9k
p3367
I1
sVdgfu4lv
p3368
I1
sVdiduskw
p3369
I1
sVczwm9qs
p3370
I1
sVdbdtwnx
p3371
I1
sVdbyxat4
p3372
I1
sVddiedts
p3373
I1
sVdmwwqlt
p3374
I1
sVddvalvx
p3375
I1
sVde4f37n
p3376
I1
sVcyzxhdr
p3377
I1
sVdcef7du
p3378
I1
sVdmkvy7c
p3379
I1
sVd83bon0
p3380
I2
sVd2pnoyz
p3381
I3
sVdi5czv6
p3382
I1
sVd01t3wg
p3383
I1
sVds8qqkm
p3384
I1
sVd6gwekj
p3385
I1
sVdoymq18
p3386
I1
sVd3satft
p3387
I1
sVd2jmr8x
p3388
I1
sVdd00vhz
p3389
I1
sVdmi1fpn
p3390
I1
sVd3gf153
p3391
I1
sVcyo1h5t
p3392
I1
sVd6hg1l7
p3393
I1
sVdfysujy
p3394
I1
sVdc04rpb
p3395
I1
sVd3apfxs
p3396
I1
sVczewecz
p3397
I1
sVdop7zqq
p3398
I3
sVda0mlc6
p3399
I1
sVdhq1ofi
p3400
I1
sVd084qf9
p3401
I1
sVdfbv238
p3402
I1
sVdgs3vti
p3403
I1
sVdi2qlz2
p3404
I1
sVd04h09r
p3405
I1
sVdnzwtu5
p3406
I3
sVddd8vx2
p3407
I1
sVczclkbt
p3408
I2
sVdnw33pm
p3409
I1
sVd0yhmxq
p3410
I1
sVdde68rq
p3411
I2
sVcza1zxg
p3412
I1
sVder89x4
p3413
I1
sVd1jeeh1
p3414
I2
sVd2ejvbp
p3415
I1
sVd7l3qxm
p3416
I1
sVdky2yhe
p3417
I1
sVdh1x38k
p3418
I1
sVdgu27kx
p3419
I1
sVd62e7tb
p3420
I1
sVd078nl8
p3421
I1
sVdgx3et3
p3422
I1
sVd03m588
p3423
I1
sVd4ie492
p3424
I1
sVdjktdzz
p3425
I1
sVdab3hon
p3426
I1
sVdns1v3m
p3427
I1
sVdi2bb5y
p3428
I2
sVcynp81r
p3429
I1
sVdbs5wi3
p3430
I1
sVdq5eccu
p3431
I1
sVdjurvyg
p3432
I1
sVdiim95i
p3433
I1
sVdflx32j
p3434
I2
sVd1s1myj
p3435
I1
sVd2gl4sz
p3436
I1
sVdmhxwvk
p3437
I1
sVdh5n9aa
p3438
I2
sVd9dag22
p3439
I2
sVdjnfudh
p3440
I1
sVddp2e32
p3441
I1
sVdfgcp8y
p3442
I3
sVd71nzvc
p3443
I1
sVd68gjsd
p3444
I1
sVd7ndcb1
p3445
I3
sVd50t5m7
p3446
I1
sVdt3tjso
p3447
I1
sVdo016rw
p3448
I1
sVddqapjb
p3449
I1
sVdc1f9kt
p3450
I1
sVczn6jsz
p3451
I1
sVdf47eih
p3452
I2
sVdfhho4s
p3453
I1
sVd6p4gr3
p3454
I1
sVdqbct6i
p3455
I1
sVdaph7go
p3456
I5
sVdrmyjlh
p3457
I1
sVde8zutd
p3458
I1
sVdo8hj5z
p3459
I1
sVdii20qv
p3460
I1
sVdpl7z01
p3461
I1
sVdrt3q81
p3462
I1
sVde7ujj7
p3463
I1
sVd8z1sx3
p3464
I1
sVdnasfeu
p3465
I1
sVczj6q6y
p3466
I1
sVdrnoft0
p3467
I1
sVdfu8oh1
p3468
I1
sVczrwtve
p3469
I1
sVd3uco42
p3470
I1
sVdgaxxk6
p3471
I1
sVda8jgwd
p3472
I1
sVczju6iy
p3473
I1
sVd235wgs
p3474
I1
sVd5hoc8c
p3475
I1
sVd0icb5l
p3476
I1
sVd5ec3i3
p3477
I1
sVdc8e7ob
p3478
I1
sVdk2en4g
p3479
I1
sVczui2ee
p3480
I1
sVd9vblvs
p3481
I1
sVdc794ob
p3482
I1
sVdfvl24o
p3483
I1
sVcz741rm
p3484
I1
sVd0aaxsa
p3485
I1
sVdns1pz9
p3486
I1
sVdbt4xn0
p3487
I1
sVd3ijmeb
p3488
I2
sVczvrfwk
p3489
I1
sVd83xzwn
p3490
I1
sVd30n5ei
p3491
I1
sVdbhirrb
p3492
I1
sVdel5hih
p3493
I1
sVdj4mj0r
p3494
I1
sVdf4r6uy
p3495
I1
sVd5lqe6l
p3496
I2
sVdj9w1na
p3497
I1
sVd2a97ie
p3498
I1
sVd55yfub
p3499
I1
sVcz1frdc
p3500
I1
sVd2yc3gv
p3501
I1
sVdigkj89
p3502
I1
sVd5syqy4
p3503
I1
sVd7z9pqu
p3504
I1
sVd5gt6aq
p3505
I1
sVdpom17u
p3506
I1
sVd0ejowh
p3507
I1
sVdjfqqlr
p3508
I1
sVcznbfsy
p3509
I1
sVdjny95k
p3510
I1
sVdgjys5h
p3511
I2
sVd7n3eui
p3512
I1
sVd0axvzt
p3513
I1
sVdpq7cnd
p3514
I1
sVcyp4fn5
p3515
I1
sVd7r88vq
p3516
I1
sVdrmwmgd
p3517
I2
sVd22qe3k
p3518
I1
sVde653kr
p3519
I1
sVdoqeuo6
p3520
I2
sVdd3apkm
p3521
I1
sVdifax5k
p3522
I1
sVdfiebvb
p3523
I1
sVdcs9hdr
p3524
I1
sVd2oewrh
p3525
I1
sVcztirkh
p3526
I1
sVdqv5ycp
p3527
I1
sVd0ic8ev
p3528
I1
sVdt3zwvq
p3529
I1
sVddbwhp4
p3530
I1
sVd4htkrs
p3531
I1
sVczpuozl
p3532
I1
sVdbbzr2t
p3533
I1
sVdq6a6i4
p3534
I1
sVdoagbs7
p3535
I1
sVd1tplfe
p3536
I1
sVdd8ar5i
p3537
I1
sVd59wkdm
p3538
I1
sVdb0n0bn
p3539
I1
sVderutk4
p3540
I1
sVdaegq0t
p3541
I1
sVd18mipd
p3542
I1
sVdmqx0r7
p3543
I1
sVd3zb6q9
p3544
I1
sVd4zfvm2
p3545
I1
sVdh2wc7j
p3546
I1
sVd9j74zz
p3547
I1
sVdfl02ut
p3548
I1
sVd9s8ia7
p3549
I1
sVd9jreru
p3550
I1
sVd0u10uo
p3551
I1
sVcyp5g7j
p3552
I1
sVdq5aibv
p3553
I1
sVdq8diw1
p3554
I1
sVdafnb79
p3555
I1
sVdh66axy
p3556
I1
sVdoob38l
p3557
I1
sVdfsbqvy
p3558
I1
sVd8pugy3
p3559
I1
sVcyxxn4a
p3560
I1
sVda8tz1l
p3561
I2
sVdftfxkw
p3562
I1
sVcyq533x
p3563
I1
sVdsxm8nz
p3564
I1
sVd16grwc
p3565
I1
sVcypm7lw
p3566
I1
sVdsrmjf5
p3567
I1
sVdi7faoc
p3568
I1
sVdqur1j0
p3569
I1
sVdf93b9n
p3570
I1
sVd121ztm
p3571
I1
sVdniuquj
p3572
I1
sVd15snai
p3573
I1
sVcymt1pt
p3574
I1
sVdbd5hbl
p3575
I1
sVdqo1g28
p3576
I1
sVdd4wtfz
p3577
I1
sVdhj23bi
p3578
I1
sVdcjo5aw
p3579
I1
sVdh1xmu9
p3580
I1
sVdeiypnn
p3581
I1
sVd1d845t
p3582
I1
sVdb25ypm
p3583
I1
sVd9hinx3
p3584
I1
sVd28olbu
p3585
I1
sVd2m1onk
p3586
I1
sVd7kfg5u
p3587
I1
sVcz2e9nx
p3588
I1
sVd14l95o
p3589
I1
sVdpi2cwc
p3590
I1
sVdco5bs1
p3591
I1
sVd1fd1k3
p3592
I1
sVdg0q2ge
p3593
I1
sVdb1amq1
p3594
I1
sVd5jq9l2
p3595
I1
sVd21y8s7
p3596
I1
sVdn9otj9
p3597
I1
sVdi4fd49
p3598
I1
sVd745e0h
p3599
I1
sVd9k4jxp
p3600
I1
sVdrcu4bi
p3601
I1
sVdi4jv9g
p3602
I1
sVd2kvike
p3603
I1
sVdoa74u6
p3604
I1
sVd17tzpm
p3605
I1
sVde8bawm
p3606
I1
sVdicx3o9
p3607
I1
sVd3buebl
p3608
I1
sVdcxi7yc
p3609
I1
sVd06xker
p3610
I1
sVd05ckyw
p3611
I1
sVcyql8z1
p3612
I1
sVdd5ss5u
p3613
I1
sVd08bjbf
p3614
I1
sVdiloqjn
p3615
I1
sVd6kz5pn
p3616
I1
sVdflcy7m
p3617
I1
sVdmoywnd
p3618
I1
sVdkew4vu
p3619
I1
sVd1nlx4p
p3620
I1
sVd14jrhc
p3621
I1
sVd0c4uyw
p3622
I1
sVd1d6hn6
p3623
I2
sVd5gr3ta
p3624
I3
sVcz6qp4z
p3625
I1
sVdqeecxs
p3626
I1
sVdr7eve1
p3627
I1
sVdfp2y0w
p3628
I1
sVczfczpl
p3629
I1
sVcziaa2w
p3630
I1
sVczd51xz
p3631
I1
sVd7gu4h7
p3632
I1
sVdkarjnf
p3633
I1
sVdggyn0u
p3634
I1
sVcyxir1w
p3635
I1
sVdi7fpf8
p3636
I1
sVd7szrgq
p3637
I1
sVd50mzc7
p3638
I1
sVddbwvgx
p3639
I1
sVdipwrau
p3640
I1
sVdf960hv
p3641
I1
sVdal3803
p3642
I1
sVdd1p8uk
p3643
I1
sVdggu51k
p3644
I1
sVdat65sl
p3645
I2
sVd064w49
p3646
I1
sVd36u1qy
p3647
I1
sVcyr32qx
p3648
I1
sVcyq1zcm
p3649
I1
sVdgits8p
p3650
I1
sVd7qiyel
p3651
I1
sVd9zf55y
p3652
I1
sVdgqrc43
p3653
I1
sVd7e6z83
p3654
I1
sVdd9n4d9
p3655
I2
sVdq83tuw
p3656
I1
sVdqtq0wg
p3657
I1
sVdtc3pei
p3658
I1
sVdhrlj8p
p3659
I1
sVd2yogqv
p3660
I1
sVczhpej1
p3661
I1
sVd1nowr3
p3662
I1
sVczm91h1
p3663
I1
sVd5vrcyq
p3664
I1
sVdgiafs9
p3665
I1
sVdf4rtf5
p3666
I1
sVd9plkip
p3667
I1
sVd6jdwdy
p3668
I1
sVdgvp7j2
p3669
I1
sVdcitjbb
p3670
I1
sVdctmh6d
p3671
I1
sVd3cqc1l
p3672
I1
sVdq4c7ii
p3673
I1
sVd2pilu8
p3674
I1
sVdge7ofd
p3675
I1
sVd4mvewt
p3676
I1
sVd3c72s9
p3677
I2
sVd5ju3c8
p3678
I1
sVd7jqwth
p3679
I1
sVd2xw0lu
p3680
I1
sVdc4c4o8
p3681
I1
sVdkku4kz
p3682
I1
sVddps1m3
p3683
I1
sVdg2v4mh
p3684
I1
sVd7xs5z6
p3685
I1
sVd8se8gc
p3686
I1
sVdmjbiys
p3687
I1
sVdgzf5o0
p3688
I1
sVd85wl1w
p3689
I1
sVd0sslml
p3690
I1
sVdabwz3g
p3691
I1
sVcyn1c9h
p3692
I1
sVdkop75f
p3693
I1
sVddl986j
p3694
I2
sVdjy3jtr
p3695
I1
sVd0aoobl
p3696
I1
sVd7kwata
p3697
I2
sVd65a24h
p3698
I1
sVdgtize9
p3699
I1
sVdcloa1f
p3700
I1
sVdnpb81r
p3701
I1
sVd8n3t6m
p3702
I1
sVd5ykqtu
p3703
I1
sVdbi2fx7
p3704
I1
sVcyhylo3
p3705
I3
sVdc4bsq7
p3706
I1
sVdf8x2zx
p3707
I2
sVd7xmq1x
p3708
I2
sVdobkne0
p3709
I1
sVdjxwu4w
p3710
I1
sVd9owzfq
p3711
I1
sVdg3z87b
p3712
I1
sVddi6v47
p3713
I1
sVddxzwgm
p3714
I2
sVd8nz5um
p3715
I1
sVd4cszxa
p3716
I1
sVdsqyc7r
p3717
I1
sVdb06soh
p3718
I1
sVd1arkoj
p3719
I1
sVdo01npc
p3720
I1
sVdel1fjt
p3721
I1
sVd13s1qx
p3722
I1
sVdgchuaq
p3723
I1
sVd0rphdn
p3724
I2
sVdfjqc1t
p3725
I1
sVdao30b1
p3726
I1
sVcyujomf
p3727
I1
sVdb6tjk0
p3728
I1
sVdtibyf6
p3729
I1
sVdiyugbl
p3730
I1
sVd167bn7
p3731
I1
sVdf0gt4n
p3732
I1
sVd5kkmel
p3733
I1
sVcytvgw1
p3734
I1
sVdc3t401
p3735
I1
sVdd1scxb
p3736
I1
sVdduuddk
p3737
I1
sVdh5psdz
p3738
I1
sVd0g7cat
p3739
I1
sVd75i1ah
p3740
I1
sVd1w6t3u
p3741
I1
sVdo9ffvk
p3742
I2
sVdihgl5s
p3743
I1
sVdgnhy6q
p3744
I1
sVdflsdin
p3745
I2
sVd03trdn
p3746
I1
sVd6lup8c
p3747
I1
sVdkucwdf
p3748
I1
sVdgkkio2
p3749
I1
sVdsctiha
p3750
I1
sVdtdj7oa
p3751
I1
sVddjdbjr
p3752
I1
sVdij70dx
p3753
I1
sVd1hq4cc
p3754
I1
sVd1dx88b
p3755
I1
sVdpy32r4
p3756
I1
sVdjg5uzr
p3757
I1
sVd8j4z9r
p3758
I1
sVd20hmx0
p3759
I1
sVdnwg4p4
p3760
I4
sVcz29jq0
p3761
I1
sVdb2c41c
p3762
I1
sVdkxuiol
p3763
I1
sVdmuvnqa
p3764
I1
sVd7z9iix
p3765
I1
sVdjtjgoj
p3766
I2
sVd94q4q5
p3767
I1
sVdachoso
p3768
I1
sVdaotp4x
p3769
I1
sVczzdjdb
p3770
I1
sVd8502ok
p3771
I1
sVd29eaoh
p3772
I1
sVddjttff
p3773
I1
sVd76re2s
p3774
I1
sVd2xja9q
p3775
I1
sVdrqkati
p3776
I1
sVd8k6kf5
p3777
I1
sVdhiabqs
p3778
I1
sVcynvq7c
p3779
I2
sVda3sqb8
p3780
I1
sVdnvqlmf
p3781
I4
sVddiyjak
p3782
I1
sVdb2awtx
p3783
I2
sVd4zt6sk
p3784
I1
sVcyuxkf2
p3785
I1
sVcywwaxh
p3786
I2
sVczfblel
p3787
I1
sVdgoc9zy
p3788
I1
sVdk8nkkq
p3789
I1
sVdka5mdi
p3790
I1
sVd5p0xsi
p3791
I1
sVd2ct8qh
p3792
I1
sVdabtrxb
p3793
I1
sVcyldgzm
p3794
I2
sVdcdlswb
p3795
I1
sVdoj5qhm
p3796
I1
sVczu9166
p3797
I1
sVd5ze8vo
p3798
I1
sVdj2skx8
p3799
I1
sVd6z9yhy
p3800
I1
sVd3oqklc
p3801
I1
sVd0o8q3g
p3802
I1
sVdcyayse
p3803
I1
sVd2pbhjn
p3804
I1
sVdith6b5
p3805
I1
sVd19ms2w
p3806
I1
sVd735l4r
p3807
I1
sVd9mt14a
p3808
I2
sVd31gepg
p3809
I1
sVdidy03l
p3810
I1
sVd0mryru
p3811
I1
sVdirchcz
p3812
I1
sVd504994
p3813
I1
sVden6l1x
p3814
I1
sVd8s3cp0
p3815
I1
sVdaw9pmh
p3816
I1
sVd17cosj
p3817
I1
sVdrgrq8n
p3818
I1
sVcyz30ll
p3819
I1
sVdoxcpdx
p3820
I1
sVd9u4iwe
p3821
I1
sVdmfc6w1
p3822
I1
sVdhtslpj
p3823
I2
sVdh8bun7
p3824
I1
sVd7wnb49
p3825
I1
sVdfle8zq
p3826
I1
sVd2ttvof
p3827
I1
sVd8gdhdd
p3828
I1
sVczjufcj
p3829
I1
sVd2b8v0d
p3830
I1
sVd33nq04
p3831
I1
sVd5vv0ah
p3832
I1
sVdphwcpa
p3833
I1
sVcyx0695
p3834
I1
sVdf3b5on
p3835
I1
sVd2yofvt
p3836
I1
sVd0mszvv
p3837
I1
sVdih96jp
p3838
I1
sVd65evit
p3839
I2
sVcztg2im
p3840
I1
sVd0f5uvx
p3841
I1
sVd9jy05c
p3842
I2
sVdb2z97w
p3843
I1
sVcywgpeb
p3844
I1
sVd3d8wke
p3845
I1
sVd0atclz
p3846
I1
sVdmfc88e
p3847
I1
sVdseth3y
p3848
I1
sVdftfqrb
p3849
I2
sVdcwc4u8
p3850
I1
sVdbk5c0o
p3851
I1
sVdhla5mq
p3852
I1
sVd5vprwu
p3853
I1
sVd1dbta3
p3854
I7
sVdbgrubm
p3855
I1
sVdk15l43
p3856
I1
sVdp2fivd
p3857
I1
sVdhlr0mn
p3858
I1
sVcz3wpyu
p3859
I1
sVcz5r944
p3860
I2
sVdjnenzj
p3861
I1
sVd2bjfc0
p3862
I2
sVd00remw
p3863
I1
sVd8m1mg4
p3864
I1
sVdh0iqbu
p3865
I1
sVd5pdb16
p3866
I1
sVdan8pl4
p3867
I1
sVd7n7jek
p3868
I2
sVdn1j99m
p3869
I1
sVdc9t9bh
p3870
I1
sVd44knae
p3871
I2
sVd6ubmi3
p3872
I1
sVcyur2mm
p3873
I1
sVcyiw680
p3874
I1
sVdmvdhau
p3875
I1
sVdbwr9j0
p3876
I1
sVcz1r54h
p3877
I1
sVd0rf7ls
p3878
I1
sVdkvev9g
p3879
I1
sVdc0i92c
p3880
I1
sVda4i5vz
p3881
I1
sVdf8jc3g
p3882
I1
sVddcmf30
p3883
I1
sVde5i1q6
p3884
I1
sVdgw518d
p3885
I1
sVd4m9jdq
p3886
I1
sVd6sy83y
p3887
I1
sVd5uratr
p3888
I1
sVdnd0pha
p3889
I1
sVdjdtxon
p3890
I1
sVd3dmoh1
p3891
I1
sVd5h24e5
p3892
I1
sVd5d830u
p3893
I1
sVd3ufy0c
p3894
I1
sVd4jc4g5
p3895
I1
sVd2b1ilh
p3896
I2
sVd495594
p3897
I1
sVd3op8qr
p3898
I1
sVd3aocca
p3899
I1
sVcz06l5a
p3900
I1
sVdje34wv
p3901
I1
sVd1785vy
p3902
I1
sVcytkk5u
p3903
I1
sVd4liuir
p3904
I1
sVdeivzxa
p3905
I1
sVdj2wgoj
p3906
I1
sVdrq86ox
p3907
I1
sVdch8yhx
p3908
I1
sVd5qlhu7
p3909
I1
sVdfttb9o
p3910
I2
sVdjyihej
p3911
I1
sVd04m1cw
p3912
I1
sVcz5caco
p3913
I5
sVd1ooum7
p3914
I1
sVdnp37gt
p3915
I1
sVdb0s1kv
p3916
I1
sVdilj2et
p3917
I1
sVdgs4aqq
p3918
I1
sVdhq4uip
p3919
I1
sVdsyz4fi
p3920
I1
sVdcxl3vj
p3921
I1
sVdnkritc
p3922
I1
sVdkpu7hi
p3923
I1
sVd02l3s7
p3924
I1
sVd5xhvso
p3925
I1
sVdci5pap
p3926
I1
sVd1rsoo1
p3927
I1
sVdnh1kzv
p3928
I1
sVd04fh1k
p3929
I1
sVd3kt1jl
p3930
I1
sVd59v2o8
p3931
I1
sVd1innaw
p3932
I1
sVdkm9srf
p3933
I1
sVd49zdlm
p3934
I1
sVdk2hazz
p3935
I1
sVd0kjx4q
p3936
I1
sVd0226ty
p3937
I1
sVd2thr85
p3938
I1
sVd5aycp1
p3939
I2
sVczsg7tc
p3940
I1
sVdhx5mts
p3941
I1
sVdgd86ue
p3942
I1
sVdb9iq6t
p3943
I1
sVd6nncmo
p3944
I2
sVd35194z
p3945
I1
sVdfvc8n4
p3946
I1
sVdaoa2av
p3947
I1
sVdg4yb7b
p3948
I1
sVdd42jz9
p3949
I1
sVdaljrke
p3950
I1
sVdq9x3yk
p3951
I1
sVd150cnv
p3952
I1
sVds8zkrt
p3953
I1
sVd7f0bkk
p3954
I1
sVd0r9526
p3955
I1
sVdof7kso
p3956
I1
sVdj0ryn9
p3957
I1
sVd2ju8at
p3958
I1
sVd0udgnt
p3959
I2
sVdpvoc1o
p3960
I1
sVdkdy3o9
p3961
I1
sVd8s1n5g
p3962
I1
sVddp5gus
p3963
I1
sVdbpb0po
p3964
I1
sVd358re3
p3965
I1
sVd6ctw22
p3966
I1
sVd35f92f
p3967
I1
sVd69coil
p3968
I1
sVd5anwxr
p3969
I1
sVd3rbzzo
p3970
I1
sVcznfvsz
p3971
I1
sVdb8acpx
p3972
I1
sVddgw29r
p3973
I1
sVd1w0xas
p3974
I1
sVdmo0bdh
p3975
I1
sVcyivi8a
p3976
I1
sVdr1zlqt
p3977
I2
sVde3ql55
p3978
I1
sVdtamksc
p3979
I4
sVd4nz8ld
p3980
I3
sVdqllx58
p3981
I1
sVd7dy938
p3982
I1
sVd4kyj07
p3983
I3
sVdq7fex2
p3984
I1
sVd64f7g7
p3985
I1
sVd57f138
p3986
I1
sVdgoy8ef
p3987
I1
sVddaaas9
p3988
I1
sVdgpbl9e
p3989
I1
sVdg4em8a
p3990
I1
sVd2p08y2
p3991
I1
sVdipmmnu
p3992
I1
sVddfvnem
p3993
I1
sVd1meaha
p3994
I1
sVd2t30rq
p3995
I1
sVdcrv1dz
p3996
I1
sVd3f66ow
p3997
I2
sVdhj6rfp
p3998
I1
sVd6rk9q4
p3999
I2
sVdk16fmp
p4000
I1
sVczmqe23
p4001
I1
sVdcl57z4
p4002
I1
sVdryfwbo
p4003
I1
sVdaicosw
p4004
I1
sVdsrx4vq
p4005
I1
sVczyhue5
p4006
I1
sVdc5ioe2
p4007
I1
sVd0odl8s
p4008
I1
sVdd752a3
p4009
I1
sVcylmrew
p4010
I1
sVdc1avct
p4011
I1
sVdaasocx
p4012
I1
sVcz365b7
p4013
I1
sVdb1gbg3
p4014
I1
sVdhhkd00
p4015
I1
sVdqbctus
p4016
I2
sVdkjzmkh
p4017
I1
sVdgjj43i
p4018
I1
sVd79e62v
p4019
I1
sVdjcu660
p4020
I1
sVdb0ajxp
p4021
I1
sVczynemv
p4022
I1
sVd0dtzgk
p4023
I1
sVdejxcyt
p4024
I1
sVdatnkks
p4025
I1
sVdjmpykr
p4026
I1
sVd2dfdmi
p4027
I1
sVczdx8fw
p4028
I1
sVdd4uffq
p4029
I1
sVdkbkted
p4030
I1
sVdj1u3xe
p4031
I1
sVd85t0lv
p4032
I1
sVd3dyr89
p4033
I1
sVd2yj1hd
p4034
I1
sVd0qjzor
p4035
I1
sVdpxgbf4
p4036
I1
sVdafocng
p4037
I1
sVd17zfyn
p4038
I3
sVdbijw2x
p4039
I1
sVd5vpra2
p4040
I1
sVdqmng19
p4041
I1
sVcze2p50
p4042
I2
sVdevzkdb
p4043
I2
sVdogbhrw
p4044
I1
sVd8m7o6m
p4045
I1
sVczvfbfr
p4046
I1
sVdby2v7h
p4047
I1
sVdhsgcjz
p4048
I1
sVdin5i0o
p4049
I1
sVde8uxek
p4050
I1
sVdbzp294
p4051
I1
sVd6y5j7l
p4052
I1
sVdbu2glp
p4053
I1
sVd00xg0g
p4054
I1
sVdpo5jxv
p4055
I1
sVd0ats7b
p4056
I1
sVd86bv90
p4057
I1
sVdd5zhxp
p4058
I1
sVd5at6dq
p4059
I1
sVd9g4wlg
p4060
I2
sVdggol6c
p4061
I1
sVd1q7a4o
p4062
I1
sVdhhsqds
p4063
I1
sVdmjk9b8
p4064
I1
sVdc8ogpa
p4065
I1
sVd6xpcp3
p4066
I1
sVd8w4fop
p4067
I1
sVd8hu6xg
p4068
I1
sVczi9ddl
p4069
I1
sVds60tqp
p4070
I1
sVdh9cf3i
p4071
I2
sVdiuthfb
p4072
I1
sVczg5wdq
p4073
I1
sVd21sggq
p4074
I1
sVd50ek17
p4075
I1
sVd3mbz04
p4076
I1
sVdt2codc
p4077
I1
sVdb4wdog
p4078
I1
sVdcx58yu
p4079
I1
sVd7ev3p5
p4080
I1
sVd6jfgn7
p4081
I1
sVddd182h
p4082
I1
sVdi8b4te
p4083
I1
sVd1iwoe0
p4084
I1
sVdcw6fgc
p4085
I1
sVdcc3pkz
p4086
I1
sVd4f73uf
p4087
I1
sVd25des7
p4088
I1
sVdb56qpk
p4089
I1
sVdjb33w6
p4090
I1
sVdggkcnj
p4091
I1
sVdrrj1rb
p4092
I1
sVd1r8ixb
p4093
I1
sVd0ph25y
p4094
I1
sVdjjpcew
p4095
I1
sVdgm3guk
p4096
I1
sVcytpkuf
p4097
I1
sVcyjs3u7
p4098
I1
sVd10aitz
p4099
I1
sVdac0i1k
p4100
I1
sVdpo0bj5
p4101
I1
sVczudoxz
p4102
I2
sVdiyr0so
p4103
I1
sVd4gqvin
p4104
I1
sVddl9zdw
p4105
I2
sVcyph3zp
p4106
I1
sVdazupwq
p4107
I1
sVd9meul4
p4108
I1
sVcyob5h9
p4109
I1
sVdjcgq82
p4110
I1
sVd3dx4yo
p4111
I1
sVd9cvy2y
p4112
I1
sVczz7e6r
p4113
I1
sVd00q4iw
p4114
I1
sVdkt6pn8
p4115
I1
sVd5a0dks
p4116
I1
sVd9xc0l1
p4117
I1
sVd198j2l
p4118
I1
sVd2ahed6
p4119
I1
sVd29gn1p
p4120
I2
sVd5lik6g
p4121
I1
sVd32hmy9
p4122
I1
sVdn8p3dk
p4123
I2
sVcywtvoq
p4124
I1
sVcyi2nxe
p4125
I1
sVd569iwu
p4126
I1
sVd2b59v8
p4127
I1
sVd5gwh1m
p4128
I1
sVdt6018r
p4129
I1
sVdggno1w
p4130
I1
sVd02r1li
p4131
I1
sVdd92nw3
p4132
I1
sVd1qdlvf
p4133
I2
sVd2jw1mr
p4134
I1
sVdco9zsm
p4135
I1
sVdtbbmw7
p4136
I1
sVdhu79c5
p4137
I1
sVd5wgmjf
p4138
I1
sVdcamaxa
p4139
I1
sVdihc4et
p4140
I1
sVd0uowe4
p4141
I2
sVd1h4nj0
p4142
I1
sVdgp1xpe
p4143
I1
sVdafz4vl
p4144
I1
sVd9qyhen
p4145
I1
sVd2psbz5
p4146
I1
sVd46ayyj
p4147
I1
sVdk0nwgy
p4148
I1
sVd6d5jv3
p4149
I1
sVd6hzzwg
p4150
I1
sVdgd3k16
p4151
I1
sVdn2uyi2
p4152
I1
sVczzuvth
p4153
I1
sVd234qen
p4154
I1
sVd3hxrz1
p4155
I1
sVdn39kdw
p4156
I1
sVdn4hgo4
p4157
I1
sVd6dpuz3
p4158
I1
sVd06xh1q
p4159
I1
sVdeity9o
p4160
I2
sVdt99cua
p4161
I1
sVdqm7gbs
p4162
I2
sVd3cmwrc
p4163
I5
sVd7l2fn1
p4164
I1
sVdji73bb
p4165
I1
sVdhssczh
p4166
I1
sVdii7cy2
p4167
I1
sVdk1mvdx
p4168
I1
sVdsnz8xi
p4169
I1
sVdgwhmt0
p4170
I1
sVd3bk36y
p4171
I1
sVdjaf520
p4172
I1
sVdchk37l
p4173
I1
sVd1otibn
p4174
I1
sVds0uocj
p4175
I1
sVd15w1bs
p4176
I1
sVd3qy0ij
p4177
I2
sVd0swwd6
p4178
I1
sVds9uwg1
p4179
I1
sVdapzikb
p4180
I1
sVd6k44h3
p4181
I2
sVdcu9nmj
p4182
I1
sVczdsf2d
p4183
I1
sVdg2etk4
p4184
I1
sVczf2xto
p4185
I1
sVdqnsxdq
p4186
I1
sVdb7dqyo
p4187
I1
sVdb7w7hl
p4188
I1
sVd0k8br7
p4189
I1
sVdbd633d
p4190
I1
sVdctacr6
p4191
I1
sVd7mu9id
p4192
I1
sVdep6sow
p4193
I2
sVdgafy97
p4194
I2
sVdh1jz5j
p4195
I1
sVd89hppz
p4196
I1
sVdeyu7ag
p4197
I1
sVdeld7en
p4198
I1
sVdenxfm0
p4199
I1
sVd5inhl7
p4200
I1
sVdrhyv8k
p4201
I1
sVdagyzf2
p4202
I1
sVdikrzsr
p4203
I1
sVdh6el25
p4204
I1
sVdfupl2z
p4205
I2
sVd2kyt9c
p4206
I1
sVdisvuq1
p4207
I1
sVdi02pox
p4208
I1
sVde4d30p
p4209
I1
sVd1p69pz
p4210
I1
sVdds3kx4
p4211
I1
sVd63oyc2
p4212
I1
sVdg0rqcx
p4213
I1
sVd2l3sr0
p4214
I1
sVdgf01te
p4215
I1
sVdmudto0
p4216
I1
sVddupkie
p4217
I1
sVdaxl54y
p4218
I1
sVd9n2bj1
p4219
I2
sVd859ojz
p4220
I2
sVdb7dfbu
p4221
I1
sVd7uxv56
p4222
I1
sVd2ecboc
p4223
I1
sVd8p5r7h
p4224
I1
sVdhesatn
p4225
I2
sVd48erix
p4226
I1
sVd2t1a2w
p4227
I1
sVddi35fe
p4228
I1
sVdinzm24
p4229
I1
sVdsoypjo
p4230
I1
sVdfrn4mt
p4231
I1
sVd2mf2xb
p4232
I1
sVd5vhby1
p4233
I1
sVdq3pgad
p4234
I1
sVcz3vzl8
p4235
I1
sVdnp9eep
p4236
I1
sVdf3gcsm
p4237
I1
sVddc02nw
p4238
I1
sVddts8of
p4239
I1
sVda8eojm
p4240
I1
sVddoomgq
p4241
I1
sVd9vf0va
p4242
I3
sVd0fpnc3
p4243
I1
sVd5a98dz
p4244
I1
sVdc9whcx
p4245
I1
sVdtc0c2x
p4246
I1
sVd7szxsx
p4247
I1
sVdiorkdq
p4248
I1
sVd07r2ou
p4249
I1
sVdghbb7s
p4250
I1
sVddl75dk
p4251
I1
sVdhlsn3c
p4252
I1
sVd9e3ep3
p4253
I1
sVdgi6kco
p4254
I1
sVdfk0dd3
p4255
I1
sVd1ho2am
p4256
I1
sVdadoenh
p4257
I1
sVdkrok5f
p4258
I2
sVczv6yo2
p4259
I1
sVdgdg1v2
p4260
I1
sVcyqie2p
p4261
I1
sVdkxk1ow
p4262
I1
sVd0slmv7
p4263
I1
sVdeh8w8u
p4264
I1
sVd4lmq1y
p4265
I1
sVdexfm1u
p4266
I1
sVdeuzhy8
p4267
I2
sVd7z295v
p4268
I1
sVdhgf2mc
p4269
I1
sVdkq68sv
p4270
I1
sVd0abcp3
p4271
I1
sVd2vehmr
p4272
I1
sVd0ikc4f
p4273
I1
sVdc2iupr
p4274
I1
sVd3lk2dn
p4275
I1
sVdj3iojt
p4276
I1
sVda2pvwz
p4277
I1
sVczw4fgb
p4278
I1
sVcyyhauj
p4279
I1
sVd8crgps
p4280
I1
sVd87jkae
p4281
I2
sVdiejnjq
p4282
I1
sVdpjytsh
p4283
I2
sVda1sm8d
p4284
I1
sVcysr6ye
p4285
I1
sVdejny0d
p4286
I1
sVd0nje1v
p4287
I1
sVdoakiln
p4288
I1
sVd001mls
p4289
I2
sVcz4cfzx
p4290
I1
sVdcgktmw
p4291
I1
sVdcc5lad
p4292
I1
sVd7ttwoy
p4293
I1
sVd9yffvs
p4294
I1
sVdemdmxj
p4295
I1
sVd26328p
p4296
I1
sVczqgxuh
p4297
I1
sVd2gzcw4
p4298
I1
sVd65ziao
p4299
I1
sVdnx7gel
p4300
I1
sVdmydaot
p4301
I1
sVdt8jbv8
p4302
I2
sVde6aem8
p4303
I1
sVczk1dsn
p4304
I1
sVdezmki5
p4305
I1
sVdhx8lmn
p4306
I1
sVdo1cdc1
p4307
I1
sVdnqjpcl
p4308
I1
sVd3udzwg
p4309
I2
sVd8q772j
p4310
I1
sVd3gzpum
p4311
I1
sVdrrvcbv
p4312
I1
sVd3zqgbr
p4313
I1
sVdgwvg3p
p4314
I1
sVdmsgbsk
p4315
I1
sVddi0c5g
p4316
I2
sVdeh89mu
p4317
I3
sVd3hepj3
p4318
I1
sVdinflp6
p4319
I1
sVdgwxmfl
p4320
I1
sVd03b5c9
p4321
I1
sVczghzv8
p4322
I1
sVdbpnhvf
p4323
I1
sVd2lfzk0
p4324
I1
sVd085mba
p4325
I1
sVdif4sqw
p4326
I1
sVdfxevt0
p4327
I1
sVdceuo4k
p4328
I1
sVd4u8doh
p4329
I1
sVdi8jygc
p4330
I1
sVdik0vuw
p4331
I1
sVddy5e6v
p4332
I1
sVd8bfd6m
p4333
I1
sVdap30bd
p4334
I1
sVd0bsyuz
p4335
I1
sVdktksbd
p4336
I1
sVdpiq6da
p4337
I1
sVd587200
p4338
I1
sVd5i75i4
p4339
I1
sVdbquv6j
p4340
I1
sVd7vyz9i
p4341
I1
sVcyjd2qp
p4342
I1
sVczav3zi
p4343
I1
sVd5erc5t
p4344
I1
sVd30uflb
p4345
I1
sVd966bzm
p4346
I1
sVd07lbvm
p4347
I1
sVd0zw1z0
p4348
I1
sVdfyf39o
p4349
I1
sVdhgblbe
p4350
I1
sVd0y3vev
p4351
I1
sVczzt9m3
p4352
I1
sVdfe9ll3
p4353
I1
sVd006h40
p4354
I1
sVdq5byuh
p4355
I1
sVd7k45gy
p4356
I1
sVd2on4um
p4357
I1
sVd761gja
p4358
I1
sVd9cs1cg
p4359
I1
sVd1qira1
p4360
I1
sVdjik9fa
p4361
I1
sVd21ko3w
p4362
I1
sVczmca6p
p4363
I2
sVdfx4abn
p4364
I1
sVdedd8vy
p4365
I1
sVd80itcq
p4366
I1
sVd8c1f7o
p4367
I1
sVd1dlzqa
p4368
I1
sVd7la8tw
p4369
I2
sVdiwehbh
p4370
I1
sVdsiu7z6
p4371
I1
sVd46tfid
p4372
I1
sVdbpudre
p4373
I1
sVdkf2rnd
p4374
I1
sVdhv6t79
p4375
I1
sVdr1y967
p4376
I1
sVdp3zlbn
p4377
I1
sVd8w98w9
p4378
I1
sVd2slh9q
p4379
I1
sVd1gn606
p4380
I2
sVd3133tk
p4381
I1
sVdq00163
p4382
I1
sVdedphc4
p4383
I1
sVd5j1qhb
p4384
I1
sVdj0swrb
p4385
I1
sVd5uw4kg
p4386
I1
sVdfxewn8
p4387
I1
sVdf0bep6
p4388
I2
sVdtj280p
p4389
I1
sVd7exw43
p4390
I1
sVd25i1p7
p4391
I1
sVd0imoaa
p4392
I1
sVdb1fg61
p4393
I1
sVde8wgry
p4394
I1
sVdfsja0k
p4395
I1
sVdg2sycn
p4396
I1
sVdngu0c4
p4397
I1
sVdixle8l
p4398
I1
sVcz0gxfo
p4399
I1
sVd81wvq3
p4400
I1
sVczzew6z
p4401
I1
sVd1rqbua
p4402
I1
sVdcb37uc
p4403
I1
sVd69zgun
p4404
I1
sVd3ubpyx
p4405
I1
sVdcv3cps
p4406
I1
sVcyrdhqn
p4407
I1
sVdih9311
p4408
I1
sVd8ls26i
p4409
I1
sVdi0vlc6
p4410
I1
sVd5jw1sz
p4411
I1
sVd0tjo6c
p4412
I1
sVdd5vwzs
p4413
I1
sVcyz6jdw
p4414
I1
sVd3f1996
p4415
I1
sVd3qaltx
p4416
I1
sVdf03x9e
p4417
I1
sVdhexhoi
p4418
I1
sVdhljbu3
p4419
I1
sVdgtm85x
p4420
I2
sVd3qivvf
p4421
I2
sVdo6t2n5
p4422
I1
sVdgt9hc1
p4423
I1
sVds81aay
p4424
I1
sVd3nftfj
p4425
I1
sVdd6x932
p4426
I1
sVdci9i1c
p4427
I1
sVd6yn3sm
p4428
I2
sVczgukfk
p4429
I1
sVdgsqjdo
p4430
I1
sVdgq9c30
p4431
I1
sVdkop1u0
p4432
I1
sVde78el6
p4433
I1
sVcyigb4x
p4434
I1
sVd2an49o
p4435
I1
sVcywchmq
p4436
I1
sVd1owxn5
p4437
I2
sVdcdw9hr
p4438
I1
sVdnbti8b
p4439
I1
sVdk5m48u
p4440
I1
sVddzpo2n
p4441
I1
sVd03fry8
p4442
I1
sVd48e4rf
p4443
I4
sVd88mkn1
p4444
I1
sVds3o69n
p4445
I1
sVd6bil3o
p4446
I2
sVd40es44
p4447
I1
sVd5ie6vc
p4448
I1
sVdhxhrri
p4449
I1
sVd5qll5g
p4450
I1
sVd25mq8n
p4451
I1
sVde01rnn
p4452
I1
sVd88fd7n
p4453
I1
sVdgxhe54
p4454
I1
sVd2obngn
p4455
I1
sVczw3klr
p4456
I1
sVd6v1fg5
p4457
I3
sVd6y9dvf
p4458
I1
sVdmolzxi
p4459
I1
sVdg0l6eq
p4460
I1
sVdk40swk
p4461
I1
sVdn65vur
p4462
I1
sVdk3dp0o
p4463
I1
sVczsbs6s
p4464
I2
sVdbwrvbb
p4465
I1
sVd63xhyz
p4466
I1
sVcyklx6v
p4467
I1
sVdfdv304
p4468
I1
sVd9nhe2i
p4469
I1
sVd0gvgx3
p4470
I3
sVdckcrvb
p4471
I1
sVdsubeou
p4472
I1
sVdb0hput
p4473
I2
sVd7q3mnv
p4474
I1
sVd8xgn52
p4475
I1
sVcyixtjp
p4476
I1
sVdq4nebv
p4477
I2
sVd8bsd0v
p4478
I1
sVd8oi0mw
p4479
I1
sVdb4ilt2
p4480
I1
sVd8f8uk7
p4481
I1
sVd56fq7h
p4482
I1
sVd4knsa4
p4483
I1
sVczxzu75
p4484
I1
sVd08ecgr
p4485
I1
sVdd3xkek
p4486
I1
sVczlvlww
p4487
I1
sVdnaex6l
p4488
I1
sVd97jxu6
p4489
I1
sVd6j03s7
p4490
I1
sVdn4v29d
p4491
I1
sVdajde6i
p4492
I1
sVcz7bscs
p4493
I1
sVdjvohp0
p4494
I1
sVdejjbdl
p4495
I1
sVdcrgb7f
p4496
I1
sVd6dfl9b
p4497
I1
sVdst6j6o
p4498
I1
sVdc02hjf
p4499
I1
sVd08smck
p4500
I1
sVdfn9llb
p4501
I2
sVdmtk46c
p4502
I1
sVdip3e12
p4503
I1
sVcykylc8
p4504
I1
sVdiihz0x
p4505
I1
sVczjbptk
p4506
I1
sVcyo3cmo
p4507
I1
sVczduq15
p4508
I1
sVd0mybj7
p4509
I1
sVd2naubx
p4510
I1
sVd960756
p4511
I1
sVcztruu8
p4512
I1
sVdal5s4e
p4513
I2
sVdt9lsv8
p4514
I1
sVdmu8eqh
p4515
I1
sVdf570wn
p4516
I1
sVczvwnjf
p4517
I1
sVdr8hgr8
p4518
I1
sVdhr37ah
p4519
I1
sVd3jz1de
p4520
I1
sVd0h55p7
p4521
I1
sVda9e43x
p4522
I1
sVdhfc822
p4523
I1
sVdiiex6h
p4524
I1
sVd1yhkjj
p4525
I1
sVd9g01rg
p4526
I1
sVdbykr4b
p4527
I1
sVd0i6pps
p4528
I4
sVdnak30t
p4529
I1
sVdfoipdi
p4530
I1
sVdf7sypk
p4531
I1
sVd125cev
p4532
I1
sVd58ga39
p4533
I1
sVdoqzp5k
p4534
I1
sVczxqjaf
p4535
I1
sVddhus9p
p4536
I1
sVdtb0x62
p4537
I3
sVdrchnca
p4538
I1
sVdddscx8
p4539
I1
sVd21p5jf
p4540
I1
sVdhsy32m
p4541
I1
sVdpnm04h
p4542
I1
sVdftmvlj
p4543
I2
sVd4ed0eb
p4544
I1
sVd0ztocc
p4545
I1
sVdhw52dz
p4546
I1
sVdcev5co
p4547
I1
sVdfp8n3n
p4548
I1
sVdg3hb05
p4549
I1
sVczgnf42
p4550
I1
sVdcpteq2
p4551
I1
sVdggzt0z
p4552
I1
sVd2heu3a
p4553
I1
sVd4olg2a
p4554
I1
sVd28km97
p4555
I1
sVdbpxtds
p4556
I1
sVdiwan0s
p4557
I1
sVdbdnnw9
p4558
I1
sVd1e4t9g
p4559
I1
sVczskojy
p4560
I1
sVdgr7g6s
p4561
I1
sVdo4ed6o
p4562
I1
sVdpk64r5
p4563
I1
sVd02tx29
p4564
I1
sVdew77ln
p4565
I1
sVdaejoax
p4566
I1
sVd23lyou
p4567
I1
sVdjj78t2
p4568
I1
sVd242vhw
p4569
I2
sVda33lp9
p4570
I1
sVd1jnwlf
p4571
I1
sVczptrbp
p4572
I1
sVdf8kilr
p4573
I1
sVdqugf11
p4574
I1
sVd8frt4r
p4575
I2
sVcz04ido
p4576
I1
sVdbnkjvw
p4577
I1
sVdg43892
p4578
I1
sVd703fsg
p4579
I1
sVd1p9ktr
p4580
I1
sVd1198fv
p4581
I1
sVdbigc2k
p4582
I1
sVd6une0r
p4583
I1
sVdkjnwnv
p4584
I1
s.