(dp0
Vczi2ioe
p1
I1
s.(dp0
Vd33rqqc
p1
I1
sVczi2ioe
p2
I1
s.(dp0
Vd3qxyeq
p1
I1
sVczi2ioe
p2
I1
s.(dp0
Vd3xmzof
p1
I1
sVczi2ioe
p2
I1
s.(dp0
Vd468f6f
p1
I1
sVczi2ioe
p2
I1
s.(dp0
Vczi2ioe
p1
I1
sVd4zkkhv
p2
I1
s.(dp0
Vczi2ioe
p1
I1
sVd5p0vsf
p2
I1
s.(dp0
Vdchtah5
p1
I1
sVczi2ioe
p2
I1
s.(dp0
Vczi2ioe
p1
I1
sVdh9oiwn
p2
I1
s.(dp0
Vdidfcdn
p1
I1
sVczi2ioe
p2
I1
s.(dp0
Vczi2ioe
p1
I1
sVdiufmdk
p2
I1
s.(dp0
Vdmoss6w
p1
I1
sVczi2ioe
p2
I1
s.