(dp0
Vd1t6ok2
p1
I1
sVdoudwmf
p2
I1
sVd011wnv
p3
I1
sVd4eqq4n
p4
I1
sVdirrrea
p5
I1
sVczoelq8
p6
I3
sVd0hmse7
p7
I1
sVcyqi8ni
p8
I1
sVdi408gj
p9
I1
sVdor8i35
p10
I1
sVdixnny2
p11
I1
sVdf3joes
p12
I1
sVdclwgoy
p13
I1
sVd0rzdwi
p14
I1
sVd0cfj49
p15
I1
sVd97ncub
p16
I1
sVdbwza48
p17
I1
sVdb6pxjr
p18
I1
sVdgo2tje
p19
I1
sVdjq2r2l
p20
I1
sVd9idbze
p21
I1
sVd9meict
p22
I1
sVdocbdca
p23
I1
sVd68rtj7
p24
I1
sVdfdzt1t
p25
I1
sVcyyx8g2
p26
I1
sVd4hnrjk
p27
I1
sVd23duwf
p28
I1
sVczl3jyn
p29
I1
sVdggjj9k
p30
I1
sVdiq3jr0
p31
I3
sVda0o7zq
p32
I1
sVd0kriqg
p33
I1
sVdca7w9b
p34
I1
sVd7ms95u
p35
I2
sVdrg3jqj
p36
I1
sVdpv6vc3
p37
I2
sVd6wk5ku
p38
I1
sVdc2bchl
p39
I1
sVd00z959
p40
I2
sVdftoref
p41
I2
sVdazr2dk
p42
I1
sVczi4wrx
p43
I1
sVd1jkf7f
p44
I1
sVczgib0o
p45
I1
sVdhxe1su
p46
I1
sVdibqsa7
p47
I1
sVdsjrkc0
p48
I1
sVd49n2ml
p49
I1
sVdngar6l
p50
I2
sVdkdid6f
p51
I1
sVdht3b88
p52
I1
sVd99tpxc
p53
I1
sVde45r6w
p54
I1
sVd5hz92p
p55
I2
sVd342blp
p56
I1
sVczfuszs
p57
I1
sVdphffu9
p58
I1
sVdo5s5xf
p59
I1
sVdmmlmsa
p60
I2
sVd0fxw3d
p61
I1
sVdkc2lgn
p62
I2
sVdh66lo8
p63
I1
sVdhgjwxl
p64
I1
sVde5st08
p65
I1
sVdjgczs0
p66
I2
sVdn6h68k
p67
I2
sVdfwa3w8
p68
I1
sVd1v5yzg
p69
I1
sVdfwmjh4
p70
I1
sVdc1xv6n
p71
I1
sVd7sj1s3
p72
I1
sVd2lj39w
p73
I1
sVdqjds9k
p74
I1
sVdkf1env
p75
I1
sVd73m8z7
p76
I1
sVdf3oiu0
p77
I2
sVczb92lw
p78
I1
sVd31yggj
p79
I2
sVdn6nt4t
p80
I1
sVdgy7oi0
p81
I1
sVd9vnp6d
p82
I1
sVdqh0w9h
p83
I1
sVdbs79et
p84
I1
sVd81mad4
p85
I1
sVcz69ltq
p86
I1
sVdkhfynl
p87
I2
sVdjon17s
p88
I1
sVdcpmtfg
p89
I1
sVdes6mce
p90
I1
sVd0cnv8s
p91
I1
sVdfju8r3
p92
I2
sVd7enb46
p93
I1
sVdc71kex
p94
I1
sVddsns5f
p95
I1
sVd9xtdod
p96
I1
sVd52esrc
p97
I1
sVdeick8n
p98
I1
sVdna93xh
p99
I1
sVd4kx4ws
p100
I1
sVd2e1ymz
p101
I1
sVd7g30ai
p102
I1
sVd76omgt
p103
I1
sVdg7jeid
p104
I1
sVd0r3mql
p105
I1
sVd1o54xi
p106
I1
sVd3cdjwl
p107
I1
sVdg172fa
p108
I1
sVd2w1tmj
p109
I1
sVdgrvich
p110
I1
sVdryo3lq
p111
I1
sVd6iz5gn
p112
I2
sVdddopii
p113
I1
sVd240vh9
p114
I1
sVdkg21wl
p115
I1
sVddym2yg
p116
I1
sVda3jy6k
p117
I1
sVde1frjw
p118
I1
sVdfwqzvt
p119
I1
sVdcdbidd
p120
I1
sVd2bfi61
p121
I1
sVdkydbnx
p122
I1
sVdifyr6q
p123
I1
sVd7rewlt
p124
I1
sVdjnoppp
p125
I1
sVd4hahwu
p126
I1
sVcyprd71
p127
I1
sVdtix8tr
p128
I1
sVdspoc52
p129
I3
sVd5dnt2s
p130
I1
sVd36u1qy
p131
I1
sVdj6wu2x
p132
I1
sVd0yuwd5
p133
I1
sVcymbkov
p134
I1
sVd6m46c6
p135
I1
sVdjfqmz9
p136
I1
sVd0bgf97
p137
I1
sVdivhgfz
p138
I2
sVdams0a1
p139
I1
sVd1w5u4y
p140
I1
sVdjedm7r
p141
I1
sVdfv50c3
p142
I1
sVd4hpy9j
p143
I1
sVdiqebmw
p144
I1
sVdekqe21
p145
I1
sVderc9ze
p146
I2
sVdrk6slt
p147
I1
sVdkij7c4
p148
I1
sVdmjbiys
p149
I1
sVd7uwcbx
p150
I1
sVda56ewj
p151
I1
sVdk3sow9
p152
I2
sVd2e4zbm
p153
I1
sVdckof7a
p154
I1
sVcyz5i24
p155
I1
sVdk2qj8w
p156
I1
sVdna3kcn
p157
I1
sVdb3qe6q
p158
I1
sVd0vpdnf
p159
I1
sVd592yvj
p160
I1
sVdp3sxwk
p161
I1
sVdgljuw0
p162
I1
sVd4bfzwx
p163
I1
sVdcy97bb
p164
I1
sVdi3nrsn
p165
I1
sVdgkfxln
p166
I1
sVdjk4dsp
p167
I1
sVddwjr0h
p168
I1
sVd6zc8wl
p169
I1
sVdjkf0yu
p170
I2
sVd4rv6iw
p171
I1
sVdb94s0l
p172
I1
sVcykosdj
p173
I1
sVdo1p6v6
p174
I1
sVdc0lpr0
p175
I1
sVdhummhb
p176
I1
sVd3ybtyu
p177
I1
sVdbokplp
p178
I1
sVda4g2bj
p179
I1
sVd1bhyf5
p180
I1
sVcz72cnl
p181
I1
sVd7kdrhh
p182
I1
sVd167bn7
p183
I1
sVdq9x3yk
p184
I1
sVdbdqhph
p185
I1
sVczb4yip
p186
I1
sVd55xgtk
p187
I1
sVdi180zt
p188
I1
sVd33jptu
p189
I1
sVd59cwfb
p190
I1
sVd4w7lsh
p191
I1
sVd1gza9h
p192
I1
sVdhd00i0
p193
I1
sVdatkg0s
p194
I1
sVdam9mji
p195
I1
sVd09qk2m
p196
I1
sVdhnni26
p197
I1
sVd6z4jzv
p198
I1
sVdb3pf39
p199
I1
sVd5vrsei
p200
I1
sVd0vav22
p201
I1
sVd55jl8f
p202
I1
sVdp2sf40
p203
I1
sVdg8f6xa
p204
I1
sVdkhl6iy
p205
I2
sVd6iqx1l
p206
I1
sVd0m5hf9
p207
I1
sVdioi2e2
p208
I1
sVczygjv7
p209
I1
sVd9r2072
p210
I1
sVdqab7mc
p211
I2
sVcypjp31
p212
I1
sVddxbsmn
p213
I1
sVdbh9db8
p214
I1
sVda3jq37
p215
I1
sVcyl6pj0
p216
I1
sVd1hl257
p217
I1
sVd2xja9q
p218
I1
sVdgq521l
p219
I1
sVd02kuur
p220
I1
sVdmrfm57
p221
I1
sVd0n8ikv
p222
I1
sVdprlmtj
p223
I1
sVdegbi4y
p224
I1
sVdfwaiwe
p225
I1
sVd9fj7cr
p226
I1
sVdk4j9zo
p227
I1
sVd89o6ws
p228
I1
sVd4awv0x
p229
I1
sVdog9mo0
p230
I1
sVdes7ez2
p231
I1
sVd4ppouq
p232
I1
sVd7gamlp
p233
I1
sVdatquef
p234
I1
sVdtbdxdj
p235
I2
sVd07xdm7
p236
I1
sVdp9eiy5
p237
I3
sVdn04r7b
p238
I2
sVdgn8kpr
p239
I1
sVdqmh9by
p240
I2
sVcza15y5
p241
I1
sVdbtco7l
p242
I1
sVdd5xw9m
p243
I1
sVdd674y7
p244
I1
sVd0lv2na
p245
I1
sVdaf0c0q
p246
I2
sVd7mfr96
p247
I1
sVdd3aaol
p248
I1
sVd2h9y1p
p249
I1
sVdqg6ogf
p250
I1
sVd9r08wp
p251
I1
sVd5r3tmt
p252
I1
sVdtarzup
p253
I1
sVdg5k40m
p254
I1
sVd9lupnw
p255
I2
sVd8jcuh3
p256
I1
sVd2lioda
p257
I1
sVdmsjrmc
p258
I1
sVd308fxk
p259
I2
sVd1uip20
p260
I1
sVcz0fial
p261
I1
sVdrmvz7r
p262
I1
sVd5p1x9k
p263
I1
sVd28dce8
p264
I1
sVdggyrks
p265
I1
sVd4njnty
p266
I1
sVd6vx4y7
p267
I2
sVcyug8uk
p268
I5
sVd5ujf0e
p269
I1
sVdeig4nn
p270
I1
sVdofp0gj
p271
I1
sVd7wcw39
p272
I1
sVd75qxjv
p273
I1
sVdfboqp0
p274
I1
sVdj901s2
p275
I1
sVdbjobe4
p276
I1
sVd2ag79x
p277
I1
sVdmlspa4
p278
I1
sVd2q4ktp
p279
I1
sVdipl9dy
p280
I2
sVderceer
p281
I2
sVcz8gt5e
p282
I1
sVdgncbei
p283
I1
sVdngog3q
p284
I1
sVdn73fju
p285
I1
sVdi1e5tx
p286
I1
sVd9qi93t
p287
I1
sVdf1xjup
p288
I1
sVd39xs04
p289
I1
sVdfol7se
p290
I1
sVdjmfe0r
p291
I1
sVdfyn9cy
p292
I1
sVd972aj2
p293
I2
sVds1sais
p294
I1
sVdd53rep
p295
I1
sVdbpd3md
p296
I1
sVdjo9jg2
p297
I1
sVdbartmc
p298
I1
sVddzha22
p299
I2
sVdh6zb3z
p300
I1
sVdpuqnv5
p301
I1
sVdcco8ja
p302
I1
sVdcafr5q
p303
I1
sVd1681m1
p304
I1
sVdfu98bc
p305
I1
sVd496vui
p306
I1
sVdbag25m
p307
I1
sVd3bgvft
p308
I1
sVd7rd2pp
p309
I1
sVdse4r9z
p310
I1
sVdazj2vq
p311
I1
sVd0ifvv2
p312
I1
sVdpj6l88
p313
I1
sVd200ek7
p314
I1
sVd20p78n
p315
I1
sVd177xni
p316
I2
sVdhxjuhi
p317
I1
sVd4ne3to
p318
I1
sVdjomyzv
p319
I1
sVd8sstzx
p320
I1
sVd224tq4
p321
I1
sVdbe5pr8
p322
I1
sVd1laweb
p323
I1
sVd41yne8
p324
I1
sVd16o79z
p325
I2
sVdfmawv9
p326
I2
sVdjyxtar
p327
I3
sVdisjt48
p328
I1
sVd7yz0of
p329
I1
sVd6lm7ad
p330
I1
sVd913yhs
p331
I1
sVd311lsh
p332
I1
sVcyvd1tw
p333
I1
sVderq6k5
p334
I1
sVdrkv622
p335
I1
sVdfw5099
p336
I1
sVd9h808f
p337
I1
sVdfxdod2
p338
I1
sVdacqurq
p339
I1
sVda904rh
p340
I1
sVdj9dem2
p341
I1
sVd2uyw0y
p342
I1
sVd0ru2ic
p343
I1
sVdnbtqk4
p344
I1
sVddnukg6
p345
I1
sVdh4o5hg
p346
I1
sVdo8o838
p347
I1
sVdequi77
p348
I1
sVd64baey
p349
I1
sVd0bvd7x
p350
I1
sVd6yg4tb
p351
I1
sVd3l0rmv
p352
I1
sVd4t3wci
p353
I1
sVdpqs9gn
p354
I1
sVdah29xk
p355
I1
sVd3jkv6p
p356
I1
sVd07tea6
p357
I1
sVd6cd7yx
p358
I1
sVd97376c
p359
I1
sVd8245n3
p360
I1
sVdoso1ex
p361
I1
sVd15blgx
p362
I1
sVdcy0qho
p363
I4
sVdcpxnua
p364
I1
sVd49o4tb
p365
I1
sVd1a6gzz
p366
I1
sVd0ymd8e
p367
I1
sVd7e0j1u
p368
I1
sVdmjesiu
p369
I1
sVdj6tjvr
p370
I1
sVd4q0f7p
p371
I1
sVdkwtrta
p372
I2
sVd8t2fw5
p373
I1
sVdaunyug
p374
I1
sVdf6uamy
p375
I1
sVdh9gek7
p376
I1
sVdkctab3
p377
I1
sVcypjpe3
p378
I1
sVd0qh7mz
p379
I1
sVdek8kfz
p380
I2
sVd0v90ur
p381
I1
sVdcmn3hk
p382
I1
sVd6kmoe7
p383
I1
sVdrqh3sj
p384
I2
sVd49n6ps
p385
I1
sVdoz297i
p386
I4
sVczw53a2
p387
I1
sVd3jz7ch
p388
I1
sVd75xzyx
p389
I1
sVdnd5wlw
p390
I1
sVdo1miya
p391
I1
sVdn91e5n
p392
I1
sVd21824t
p393
I1
sVdejfd2v
p394
I1
sVdkm5rac
p395
I1
sVdiky26c
p396
I1
sVdpy32r4
p397
I1
sVd9d0qdm
p398
I1
sVd0vmgoo
p399
I1
sVdfzu8ue
p400
I1
sVdhakjxw
p401
I1
sVdnyqeqm
p402
I1
sVd1c2059
p403
I1
sVdc6wbzi
p404
I1
sVd53ley2
p405
I1
sVdpzufed
p406
I1
sVdhkjxk6
p407
I1
sVdgej0re
p408
I1
sVdgn2ork
p409
I1
sVdhoj5a4
p410
I1
sVd49pzm6
p411
I2
sVd5oq6vw
p412
I1
sVdspo5l4
p413
I2
sVdegyzs8
p414
I1
sVd2j3j6n
p415
I1
sVdgcwtam
p416
I1
sVd6hsrdz
p417
I1
sVdgy5qwq
p418
I1
sVd7czzxn
p419
I1
sVd77qksd
p420
I1
sVdhog4d8
p421
I1
sVdjg3zf3
p422
I2
sVd1y3wyp
p423
I1
sVdgng8kn
p424
I1
sVdrv7xfn
p425
I1
sVddcagq6
p426
I1
sVd9r3s32
p427
I1
sVd5axn09
p428
I1
sVcze7dyd
p429
I1
sVd0il39e
p430
I1
sVd1jyru1
p431
I1
sVdgmnqza
p432
I1
sVd695hss
p433
I1
sVdmm8qzm
p434
I1
sVd1k0chc
p435
I1
sVd0fo4bu
p436
I1
sVdb2muic
p437
I1
sVdcn5fbn
p438
I1
sVdjgd5tw
p439
I1
sVd95yojr
p440
I1
sVd9m61j3
p441
I1
sVdhczxby
p442
I1
sVd1gbayw
p443
I1
sVd84j0lx
p444
I1
sVd007ztp
p445
I2
sVdesqf18
p446
I1
sVcyurmaw
p447
I1
sVdejb6np
p448
I1
sVddwe10d
p449
I1
sVdi67li8
p450
I1
sVd77ow5q
p451
I1
sVdh1wq6c
p452
I1
sVdhb3kh3
p453
I4
sVdk0nwgy
p454
I1
sVdaje45z
p455
I1
sVczrnlb2
p456
I1
sVd13oxyn
p457
I1
sVdegdpja
p458
I1
sVdmlqvew
p459
I1
sVcykp7rw
p460
I1
sVd975q2j
p461
I1
sVd3athep
p462
I1
sVd6w3dli
p463
I1
sVdf2iezp
p464
I1
sVd85xvpd
p465
I1
sVdqw4v1o
p466
I1
sVczuixo8
p467
I1
sVdqsnpkr
p468
I3
sVdg8lmd1
p469
I1
sVdsqdquc
p470
I1
sVd2523iv
p471
I1
sVd7cuxp4
p472
I1
sVd8o681r
p473
I1
sVd6uwjl6
p474
I1
sVdo8xpu0
p475
I1
sVd2hr8wn
p476
I1
sVdfzsmfi
p477
I1
sVdc0r181
p478
I1
sVd0c89ku
p479
I3
sVdnaiuoq
p480
I1
sVdhlprok
p481
I1
sVd5oozqg
p482
I1
sVd9fv36u
p483
I1
sVdglmz4i
p484
I1
sVdgsha73
p485
I1
sVdprcv4g
p486
I1
sVdisx717
p487
I1
sVcz46qr0
p488
I1
sVdf3um79
p489
I1
sVdazpnaz
p490
I1
sVdhseqnu
p491
I1
sVcyjgf89
p492
I1
sVd7v5v5w
p493
I2
sVdkam5cs
p494
I1
sVdo4wfse
p495
I1
sVd9rna60
p496
I1
sVdebxlov
p497
I1
sVdgmexc3
p498
I2
sVdjkd6qd
p499
I1
sVd4mk8zp
p500
I1
sVddo0m8j
p501
I1
sVd0e243m
p502
I1
sVds1p5ud
p503
I1
sVdb25rpq
p504
I1
sVdacu7r9
p505
I1
sVdshgrcm
p506
I1
sVdrjuqur
p507
I1
sVdjiux5q
p508
I3
sVd7nn8kh
p509
I2
sVd1ggcle
p510
I1
sVd6bny01
p511
I1
sVdqlh04g
p512
I1
sVd4ahb57
p513
I1
sVczd0dlz
p514
I1
sVdsl8mia
p515
I1
sVdkldckf
p516
I1
sVd126o0w
p517
I1
sVd0rt6zb
p518
I1
sVdhlnoag
p519
I1
sVdjk658l
p520
I1
sVdjr3nta
p521
I1
sVdot2svw
p522
I1
sVd4oas6n
p523
I1
sVd8yty73
p524
I2
sVczht5z5
p525
I1
sVd3tivxk
p526
I1
sVd9x4dmg
p527
I1
sVdawspz8
p528
I1
sVd727qz9
p529
I1
sVcyk8h2v
p530
I2
sVdeg3j3c
p531
I1
sVd2ip0mu
p532
I1
sVd91usps
p533
I1
sVd6mhurx
p534
I1
sVd0itaw4
p535
I1
sVd1epuxf
p536
I1
sVd0zluxj
p537
I1
sVd9ct6v0
p538
I1
sVcymc293
p539
I1
sVddoagrp
p540
I1
sVczz2d5v
p541
I2
sVczvwt9w
p542
I1
sVdj4offz
p543
I1
sVd7ca462
p544
I1
sVdppmxfh
p545
I1
sVdjfoawe
p546
I2
sVd41tjha
p547
I1
sVd4vw9f9
p548
I1
sVdb2vcjj
p549
I1
sVdpepsg3
p550
I4
sVd8xdku3
p551
I1
sVd2yf10s
p552
I1
sVczqn92x
p553
I1
sVdn76k1i
p554
I2
sVddpwbc6
p555
I1
sVdqzsrez
p556
I1
sVdiq0ynt
p557
I2
sVdeegl8t
p558
I1
sVdd3jclu
p559
I1
sVd1mgke6
p560
I1
sVd5bk2fz
p561
I2
sVdjqj2s3
p562
I1
sVdhlpdk4
p563
I1
sVdg73bzu
p564
I1
sVd9lukoy
p565
I1
sVd80s00t
p566
I1
sVdh5pwc5
p567
I1
sVdo899r9
p568
I1
sVds5jlxa
p569
I1
sVd65fzqk
p570
I1
sVdr6lays
p571
I1
sVd5dscmz
p572
I1
sVde1s1bw
p573
I1
sVdkg9yk8
p574
I1
sVdbvpccv
p575
I2
sVd6v9m0d
p576
I1
sVdku8rmn
p577
I1
sVdi4lojc
p578
I1
sVdgdlyyx
p579
I1
sVd58p786
p580
I1
sVd56g78k
p581
I3
sVd0hqks4
p582
I1
sVdhpfdlf
p583
I1
sVdfmb1lq
p584
I2
sVdjaggeb
p585
I1
sVczgcxgb
p586
I1
sVdoogkf5
p587
I1
sVd4xis1i
p588
I1
sVdjj0jil
p589
I5
sVdkcv1tv
p590
I1
sVderjmxv
p591
I1
sVdgmhcn9
p592
I1
sVdc5n16h
p593
I1
sVdaquxcu
p594
I1
sVd2sy3gu
p595
I1
sVdf6g2t6
p596
I1
sVd9eudnj
p597
I1
sVd8n1hhz
p598
I1
sVcz4m8u0
p599
I1
sVdc86sq9
p600
I1
sVdn82osb
p601
I1
sVd8lhhxd
p602
I1
sVddhuxla
p603
I1
sVd4yw8bi
p604
I1
sVdn2wkbe
p605
I1
sVds1bwnr
p606
I1
sVdnizy99
p607
I1
sVd5cboz6
p608
I1
sVd96z0a2
p609
I2
sVd9buofr
p610
I1
sVdhlnvvf
p611
I2
sVdawb68e
p612
I1
sVda1ui16
p613
I1
sVdiuc6by
p614
I1
sVdmn3obx
p615
I1
sVd64m7u8
p616
I1
sVd0at9dz
p617
I1
sVd1k69lo
p618
I1
sVdg3dmk5
p619
I1
sVd5vvege
p620
I2
sVcyrf2y4
p621
I1
sVdbvvq7u
p622
I1
sVdgq9c30
p623
I1
sVd4d0736
p624
I2
sVdgnbg5n
p625
I2
sVd2gc7ai
p626
I1
sVdcowxml
p627
I1
sVdbqg1ou
p628
I1
sVdbn2gx2
p629
I1
sVd24zysm
p630
I1
sVdcuflmi
p631
I1
sVd1hg5wa
p632
I1
sVd90k8dp
p633
I1
sVd5ukc30
p634
I1
sVdsquksi
p635
I1
sVd4p0ngy
p636
I1
sVdmx6jvc
p637
I1
sVd1v3skg
p638
I1
sVdorlfdi
p639
I1
sVdiu8i84
p640
I1
sVdhyeyom
p641
I1
sVdi1log0
p642
I1
sVd4fb8d2
p643
I1
sVcyvpdcr
p644
I1
sVdclxkvt
p645
I1
sVdsq7jqb
p646
I1
sVd0bf9gq
p647
I1
sVd1k4hmg
p648
I1
sVd3z55mr
p649
I1
sVdn6u51g
p650
I1
sVdehz5u9
p651
I1
sVd7emxpe
p652
I1
sVddye7jz
p653
I1
sVd4rbvw0
p654
I2
sVdgtmvnx
p655
I1
sVcym4dyj
p656
I1
sVd392nid
p657
I1
sVd308q5u
p658
I2
sVd7cpkvs
p659
I1
sVd1hcv86
p660
I1
sVd2rkek7
p661
I1
sVd121e6h
p662
I1
sVd0i77pi
p663
I2
sVd7rnj0s
p664
I1
sVd9evcjs
p665
I1
sVd6cha8o
p666
I3
sVcyo974v
p667
I1
sVdnbwcmf
p668
I1
sVd7y11v9
p669
I1
sVdi3i0pt
p670
I1
sVdpw30sv
p671
I1
sVdmt8jrc
p672
I1
sVdef227j
p673
I2
sVd8ebhec
p674
I1
sVdqvpq5q
p675
I1
sVderefm7
p676
I1
sVdqi5357
p677
I1
sVcz8pqvo
p678
I2
sVd2h25on
p679
I1
sVdhqssqe
p680
I1
sVd5t3i75
p681
I1
sVdcedlaq
p682
I2
sVdhr81jz
p683
I1
sVczznpyv
p684
I1
sVdrnf4o3
p685
I1
sVdby0vdt
p686
I2
sVdc5n5pu
p687
I2
sVdf2f3qs
p688
I1
sVdhsswfq
p689
I1
sVd51x4yf
p690
I1
sVdg2buv5
p691
I1
sVd96e98k
p692
I1
sVdilnlnh
p693
I1
sVdqw48io
p694
I1
sVd1lg7ec
p695
I1
sVd7grl7e
p696
I1
sVdcsddsq
p697
I1
sVd6cc01y
p698
I1
sVd03krw2
p699
I2
sVd78o93j
p700
I1
sVdilr71n
p701
I1
sVd3mumho
p702
I1
sVd21v42u
p703
I1
sVd6fdcer
p704
I1
sVdnp452u
p705
I2
sVd0j391z
p706
I1
sVddha6k2
p707
I1
sVddeadh4
p708
I1
sVdjqzkid
p709
I1
sVd0rsk3s
p710
I1
s.