(dp0
Vcz5m06f
p1
I1
sVdi52e31
p2
I1
sVd8t4tp0
p3
I1
sVdr0gi25
p4
I1
sVczhpmyw
p5
I1
sVd16s3i5
p6
I1
sVdsdxkdb
p7
I1
sVd9aoptx
p8
I1
sVd1arnz2
p9
I1
sVdgw87bj
p10
I1
sVd16oxtp
p11
I1
sVdg70edt
p12
I1
sVd0fi3lv
p13
I1
sVd0j9zrc
p14
I1
sVdhlkqor
p15
I1
sVd5vo179
p16
I2
sVd7e06yf
p17
I1
sVdh6q7fb
p18
I1
sVdmvy3lz
p19
I1
sVd08iy3m
p20
I1
sVd78lzn7
p21
I1
sVczkdwpf
p22
I1
sVdateqqg
p23
I1
sVdtcbqxb
p24
I1
sVdna5t8i
p25
I1
sVdex0xai
p26
I1
sVd27qahc
p27
I1
sVd03wtsa
p28
I1
sVdehaoco
p29
I1
sVdak7558
p30
I1
sVdabfqxe
p31
I1
sVdc1k8vx
p32
I1
sVdf1zeps
p33
I1
sVdcwqg4u
p34
I1
sVdd3jkp0
p35
I1
sVd5z2pd3
p36
I1
sVczwg8o5
p37
I1
sVdk5a9jm
p38
I1
sVd1a9jyy
p39
I1
sVd6oyjd8
p40
I1
sVdgzkyii
p41
I1
sVd7g8ii4
p42
I1
sVczyn9m6
p43
I1
sVdiglmp3
p44
I1
sVdojb1f7
p45
I1
sVdbjkyue
p46
I1
sVd2m68wl
p47
I1
sVdgyy4yw
p48
I1
sVdooyor5
p49
I1
sVd3x4v49
p50
I1
sVd7ur21b
p51
I1
s.