(dp0
Vd63as7j
p1
I1
sVd8trmvb
p2
I1
sVdj28kgo
p3
I1
sVdsxz98w
p4
I1
sVdhn39ub
p5
I1
sVd397ns6
p6
I1
sVczk0v14
p7
I1
sVdbeptnu
p8
I8
sVd6m2eqh
p9
I1
sVde95n01
p10
I1
sVd42btly
p11
I1
sVdhtboma
p12
I1
sVdddy2h9
p13
I2
sVdbvvptg
p14
I1
sVd9emrga
p15
I1
sVd96n4yj
p16
I1
sVdeced0d
p17
I1
sVdau35g7
p18
I1
sVdf5y3mx
p19
I1
sVd7gwp8k
p20
I2
sVd8z8dql
p21
I1
sVdbkdse9
p22
I1
sVdca7w9b
p23
I1
sVdfo6oyq
p24
I6
sVdt9gh8t
p25
I3
sVczwhzss
p26
I1
sVdg9f72o
p27
I2
sVdms2p0y
p28
I1
sVdfo4xot
p29
I3
sVd26ecpd
p30
I2
sVdkjll17
p31
I1
sVdbn9epe
p32
I4
sVdhq7jvb
p33
I2
sVdguoijw
p34
I1
sVcyo48t3
p35
I1
sVczoy0dw
p36
I1
sVdehuzi8
p37
I1
sVd6es4mt
p38
I1
sVd2yalk6
p39
I1
sVde0uhxs
p40
I1
sVdivdtac
p41
I1
sVdk24we7
p42
I2
sVdj7r4u2
p43
I1
sVdq0lhhk
p44
I1
sVdfiq6vw
p45
I1
sVd2rbkrc
p46
I1
sVdshhlw7
p47
I1
sVd649zqj
p48
I1
sVdrdotp1
p49
I1
sVdpodjpl
p50
I1
sVd7ahnlz
p51
I1
sVdpkpop3
p52
I1
sVcyumrrb
p53
I1
sVddx4etn
p54
I1
sVdh71rt9
p55
I2
sVd9jlpvd
p56
I1
sVdqcf7nt
p57
I4
sVd02fjrm
p58
I1
sVdfkg82e
p59
I1
sVdiqq1ks
p60
I2
sVd3y7gk6
p61
I1
sVdiq7knr
p62
I1
sVd678dzn
p63
I1
sVdhyy85v
p64
I1
sVd3gfxav
p65
I1
sVdn1pt6u
p66
I4
sVcz0pwpe
p67
I1
sVdmkkvi6
p68
I1
sVd83uvsc
p69
I2
sVdcj89ks
p70
I1
sVdh590q9
p71
I1
sVd4kx4ws
p72
I3
sVdkz1w4d
p73
I2
sVdpu3moz
p74
I1
sVd061uzn
p75
I5
sVd6qaz7k
p76
I1
sVd5hbv8l
p77
I4
sVd2x6rb4
p78
I1
sVdgq4g3p
p79
I2
sVdcfzt02
p80
I9
sVd2x98yt
p81
I2
sVd0zib8x
p82
I1
sVdcfvv7z
p83
I2
sVda3jy6k
p84
I1
sVczhzppn
p85
I1
sVdkln4u0
p86
I1
sVd6fsonw
p87
I2
sVdghxp7t
p88
I1
sVd8hiw23
p89
I4
sVdpc5u04
p90
I2
sVd8qx6cp
p91
I3
sVcz2t49l
p92
I1
sVd57bdgm
p93
I2
sVdtdh1h4
p94
I2
sVd0ygk4a
p95
I2
sVd1h0un5
p96
I1
sVd8bgdb0
p97
I1
sVddm1l3n
p98
I1
sVcykyexa
p99
I2
sVd2hvdg7
p100
I1
sVdimldpi
p101
I1
sVd1epys8
p102
I2
sVd2ypcig
p103
I1
sVd4vlpox
p104
I1
sVd4m14jq
p105
I1
sVdeuf1da
p106
I1
sVdepe1rq
p107
I1
sVcyvbt4n
p108
I1
sVd80nzj6
p109
I1
sVdh2t8mr
p110
I1
sVdhbij9r
p111
I1
sVdb8k25o
p112
I1
sVdj24ts4
p113
I3
sVdbed9fv
p114
I1
sVd76kft5
p115
I4
sVczyoe1i
p116
I2
sVdd6m8dy
p117
I2
sVd1v8u3c
p118
I2
sVdfgsvb4
p119
I1
sVdj2mh1l
p120
I4
sVdcn43tm
p121
I1
sVd079u2u
p122
I2
sVdc7oqg2
p123
I1
sVd2ctl4x
p124
I1
sVde5z21u
p125
I1
sVdijie1u
p126
I5
sVd3bzf10
p127
I1
sVdhca8aa
p128
I2
sVddw5yck
p129
I1
sVd7594vb
p130
I2
sVdgfo1ml
p131
I1
sVdgq5wut
p132
I1
sVczg432s
p133
I3
sVd1o5xq3
p134
I2
sVdh8i1io
p135
I2
sVdan1fje
p136
I3
sVdj8al0i
p137
I1
sVd923g2e
p138
I1
sVd8omklr
p139
I2
sVd9mrcrk
p140
I1
sVdcdgsji
p141
I2
sVdkyu8a3
p142
I5
sVd5su9kr
p143
I2
sVcz21hpt
p144
I2
sVdbpifwr
p145
I2
sVd2hotlu
p146
I1
sVdf89ot5
p147
I1
sVd2stmkj
p148
I1
sVczixus4
p149
I4
sVd7c8ktq
p150
I1
sVdcg6xop
p151
I1
sVds44b7v
p152
I2
sVdg3e7x3
p153
I1
sVd1vjv8y
p154
I8
sVdb9gkt8
p155
I4
sVd3wq4im
p156
I1
sVd3qwqtm
p157
I1
sVczx3a7y
p158
I1
sVcywzml0
p159
I2
sVditvyxk
p160
I1
sVdtjbfy6
p161
I2
sVde78c3j
p162
I2
sVdtiy2s4
p163
I2
sVd031f9x
p164
I1
sVdd7tzox
p165
I1
sVddea7s7
p166
I10
sVdj51fh0
p167
I5
sVdcsdiqi
p168
I1
sVdc3a3tk
p169
I1
sVdsp1025
p170
I2
sVde3ngcb
p171
I1
sVdfz0cqx
p172
I3
sVd6eghnb
p173
I1
sVd3julcr
p174
I1
sVdgayopa
p175
I1
sVd0cg4jg
p176
I1
sVd9g920k
p177
I1
sVd0yo68g
p178
I1
sVdsc9xlc
p179
I1
sVdcaarfi
p180
I1
sVczd11gi
p181
I2
sVdfde6ur
p182
I1
sVdi502ad
p183
I1
sVd7wpcgv
p184
I1
sVd83spfd
p185
I1
sVd69pda9
p186
I1
sVcyn9c56
p187
I1
sVd36mbd4
p188
I1
sVdc0t8s4
p189
I2
sVdcye6tz
p190
I2
sVdn89yoe
p191
I2
sVd26fnvs
p192
I2
sVd2x8fp4
p193
I3
sVd7dwwfd
p194
I1
sVdgmlrsi
p195
I2
sVd950yb8
p196
I1
sVdsok1id
p197
I3
sVczs3g5b
p198
I1
sVd0gvp90
p199
I1
sVdii32no
p200
I1
sVdoav8fx
p201
I1
sVdo5ou0y
p202
I2
sVd35ontt
p203
I2
sVdgnv2hl
p204
I1
sVd3sb7i9
p205
I1
sVczx3vtm
p206
I1
sVdfs7j5h
p207
I1
sVdr7mmvj
p208
I1
sVd91c2o9
p209
I2
sVd5m3k3q
p210
I1
sVd18r3ee
p211
I1
sVdfs7bly
p212
I2
sVdfu9c1l
p213
I3
sVd7w2lnd
p214
I1
sVd3bh5yl
p215
I1
sVdj2e9wh
p216
I2
sVdml2k79
p217
I1
sVdqvc9l1
p218
I10
sVd71gahr
p219
I3
sVddxnd3b
p220
I1
sVczw63vx
p221
I1
sVdhllogo
p222
I1
sVdb5qnzp
p223
I2
sVd90uxai
p224
I1
sVdgj31cd
p225
I3
sVdbuc59y
p226
I1
sVd3c7bmh
p227
I1
sVdjp4b2g
p228
I1
sVczw19he
p229
I11
sVd0dznpd
p230
I1
sVd4g1ta2
p231
I1
sVd3irsdr
p232
I2
sVdks2x6y
p233
I7
sVdik3uuz
p234
I1
sVd1sxvck
p235
I1
sVdr7tspr
p236
I1
sVdms97bp
p237
I1
sVdpq1q1q
p238
I4
sVdfd61uz
p239
I2
sVd8yw18w
p240
I1
sVczgq74o
p241
I1
sVdh53c2r
p242
I2
sVddx8iau
p243
I1
sVdks4jqy
p244
I3
sVd1uqoeo
p245
I3
sVdp1ctyf
p246
I1
sVd64x922
p247
I1
sVdmneghx
p248
I4
sVdakvtz7
p249
I2
sVdav31wb
p250
I1
sVd0fcwvg
p251
I2
sVdsi5zbt
p252
I1
sVd0le1z6
p253
I2
sVdf30f00
p254
I2
sVdpaxapy
p255
I5
sVdc0m9px
p256
I1
sVdncq4ue
p257
I1
sVdk7p9wv
p258
I2
sVda9ygcx
p259
I1
sVd6btc7k
p260
I1
sVdfwe0eg
p261
I1
sVdc4uk1j
p262
I1
sVd3dzxzz
p263
I5
sVdr3s5v9
p264
I1
sVd516uis
p265
I1
sVd0pw6uu
p266
I1
sVda8c6f2
p267
I1
sVcyue3fr
p268
I1
sVdnpi7rc
p269
I4
sVczibyt6
p270
I1
sVdbqvt7g
p271
I8
sVdnvyiyl
p272
I2
sVdel7nle
p273
I1
sVdiap3qz
p274
I1
sVdfl2zuk
p275
I6
sVd7p539o
p276
I1
sVczwq2gz
p277
I6
sVd1l05x9
p278
I2
sVd9ubxxf
p279
I2
sVdd316j7
p280
I4
sVd1xqkrq
p281
I1
sVddzzie9
p282
I1
sVd1c7mnt
p283
I1
sVd8dm8gr
p284
I1
sVd6bsr0q
p285
I1
sVd84nm0z
p286
I1
sVdea3hny
p287
I1
sVdepab6o
p288
I2
sVd6kb51o
p289
I1
sVdcp04h8
p290
I2
sVdd13ous
p291
I1
sVd2rbql1
p292
I2
sVdb6t2b3
p293
I1
sVdjwnrwb
p294
I12
sVder1991
p295
I1
sVdcy6bx8
p296
I2
sVd64eav8
p297
I4
sVdeew3li
p298
I1
sVczuadpp
p299
I1
sVd3n3ao4
p300
I3
sVdnwu2a6
p301
I1
sVd0wvyfi
p302
I1
sVcywseiv
p303
I4
sVdmjj95o
p304
I2
sVdmg7cbe
p305
I1
sVcylmvcd
p306
I5
sVd70gcob
p307
I1
sVdnwojr8
p308
I2
sVd8tu63n
p309
I2
sVdkaazhf
p310
I1
sVd1w7cbo
p311
I2
sVdgf4p2z
p312
I1
sVd7718sz
p313
I12
sVdg14j1j
p314
I1
sVd29ll3c
p315
I1
sVd4h3y2a
p316
I1
sVd63zax1
p317
I1
sVd1ivs5e
p318
I1
sVd1ciqso
p319
I1
sVcz4vka8
p320
I1
sVd3xdhd2
p321
I2
sVdrn106w
p322
I2
sVczonkig
p323
I3
sVdc02sog
p324
I2
sVczwxp1z
p325
I1
sVd41tcih
p326
I6
sVdd8y409
p327
I2
sVczaq4y7
p328
I1
sVd1eer4p
p329
I3
sVd9pi1i4
p330
I1
sVddloaqg
p331
I1
sVd7rpos5
p332
I1
sVczozf6a
p333
I1
sVczymb1i
p334
I2
sVdhta5la
p335
I2
sVcyxmbha
p336
I1
sVdmvy8uz
p337
I1
sVdockn8f
p338
I1
sVdn45a0z
p339
I4
sVd95eiwv
p340
I2
sVdogbah3
p341
I6
sVdii88lp
p342
I1
sVdhllctw
p343
I3
sVd51liot
p344
I1
sVd67bza0
p345
I1
sVdcx2c43
p346
I2
sVdop4zh0
p347
I3
sVd8qs8da
p348
I1
sVdbi182g
p349
I2
sVd75baxa
p350
I4
sVdmx9v2g
p351
I4
sVd3x1jen
p352
I1
sVdhoxk9c
p353
I1
sVdjfwgod
p354
I1
sVdn6ogqp
p355
I1
sVd4zpdyu
p356
I1
sVd02075s
p357
I3
sVd16wmay
p358
I2
sVdqr4q2x
p359
I1
sVdeq15wv
p360
I1
sVdgat4k1
p361
I1
sVd5lvcs0
p362
I1
sVd4avv4j
p363
I1
sVcyurxxo
p364
I3
sVdq3lqw1
p365
I3
sVd73lu7x
p366
I1
sVdfz636d
p367
I3
sVd0gvres
p368
I2
sVddpvco0
p369
I1
sVdtd7u06
p370
I1
sVdatyzd7
p371
I1
sVdh5nnb5
p372
I1
sVdodynjq
p373
I1
sVde5x5iq
p374
I2
sVd7ahfp3
p375
I1
sVdi0r0vq
p376
I2
sVcyxm3x2
p377
I3
sVdt6j3jm
p378
I1
sVd0mrdg0
p379
I1
sVd1e3hne
p380
I1
sVdgzgt40
p381
I2
sVdn6x1zs
p382
I1
sVdo4xgpl
p383
I1
sVdr7c98p
p384
I1
sVd79wxvx
p385
I1
sVdi5uv0m
p386
I5
sVdg9kym6
p387
I1
sVdjdi0kg
p388
I2
sVd6h490x
p389
I1
sVdrxg8lb
p390
I1
sVd6e7iv2
p391
I1
sVdam3307
p392
I2
sVdfcrq6b
p393
I1
sVdminr90
p394
I5
sVdb3dbuz
p395
I4
sVd9rx3hv
p396
I8
sVddqjzqc
p397
I1
sVdeud2ri
p398
I1
sVd0afd5k
p399
I1
sVdkrlt5x
p400
I11
sVdk6f21o
p401
I1
sVd834o0a
p402
I2
sVdfzjaru
p403
I1
sVd1ose07
p404
I1
sVdjmhyys
p405
I1
sVdgs3mad
p406
I1
sVdrpfvem
p407
I3
sVd5bmu5j
p408
I1
sVdgs3pxr
p409
I1
sVdmstybl
p410
I1
sVdk4mebo
p411
I3
sVd3zo0iy
p412
I1
sVd7a923k
p413
I1
sVdtdh5dz
p414
I1
sVdnes81g
p415
I4
sVd7xc8tu
p416
I1
sVdbfkeb6
p417
I1
sVdbc0lr9
p418
I2
sVcywzu3s
p419
I4
sVd21kxay
p420
I2
sVdfnah8t
p421
I1
sVdjra6en
p422
I1
sVd3g5t9h
p423
I3
sVcznoo37
p424
I1
sVdezxmhg
p425
I2
sVdepn0pj
p426
I1
sVdp5i39b
p427
I1
sVd8ou4fz
p428
I1
sVdde18qk
p429
I1
sVd5lyivq
p430
I2
sVddc98xn
p431
I4
sVdquj1hz
p432
I2
sVdoliayh
p433
I3
sVdinakgw
p434
I1
sVd1vgn8e
p435
I1
sVdim07i6
p436
I2
sVdsa0qd1
p437
I1
sVd0e405u
p438
I2
sVdp1gr5y
p439
I1
sVd5hzpkv
p440
I4
sVdanau8g
p441
I2
sVd108tng
p442
I1
sVddauedq
p443
I1
sVd077v7a
p444
I1
sVdaksu88
p445
I2
sVd7qt9fm
p446
I1
sVdoehk59
p447
I1
sVdd5smp7
p448
I1
sVdfkl6dg
p449
I1
sVd21m6oq
p450
I5
sVd7mgkmv
p451
I1
sVd21cs8s
p452
I1
sVd5rl6u0
p453
I4
sVd4p1fcm
p454
I3
sVd8ns8el
p455
I1
sVd0d5lz2
p456
I2
sVdglichs
p457
I1
sVd281mcg
p458
I2
sVdjsg7ur
p459
I1
sVd629oci
p460
I1
sVd6c15pe
p461
I1
sVdeuk1gn
p462
I2
sVd38fk4b
p463
I1
sVd2x0qqt
p464
I5
sVds56mny
p465
I1
sVd4vmtq2
p466
I1
sVczzum4l
p467
I1
sVdcm8rpf
p468
I6
sVdijudll
p469
I1
sVdmutd44
p470
I2
sVd6x9921
p471
I2
sVdb87r9r
p472
I1
sVd77zyoq
p473
I3
sVdnydk7l
p474
I1
sVd451hjh
p475
I3
sVcyu0c9o
p476
I1
sVd653lf3
p477
I2
sVd47k4q9
p478
I1
sVd9o8ynk
p479
I1
sVdcf5o2j
p480
I1
sVds45sne
p481
I1
sVdcxjlt1
p482
I3
sVdte1fsb
p483
I1
sVd6x5i2y
p484
I1
sVdii53rf
p485
I2
sVd7pte8j
p486
I2
sVd8y9tld
p487
I2
sVd3rs24h
p488
I1
sVczddaar
p489
I2
sVdss84y5
p490
I1
sVd4in9qw
p491
I3
sVd27fgg2
p492
I2
sVd0bezcx
p493
I5
sVczxmlw5
p494
I12
sVd4fe4r2
p495
I1
sVcyuvjzl
p496
I1
sVd8aya7f
p497
I6
sVdj0oiui
p498
I1
sVd0g9mrk
p499
I1
sVdjfy4oh
p500
I1
sVdp9c6ai
p501
I1
sVda7quhq
p502
I1
sVdavbaip
p503
I1
sVdseyvbg
p504
I1
sVd82i2uf
p505
I3
sVddmmtq2
p506
I1
sVdi1ppyo
p507
I1
sVdi22d1e
p508
I1
sVdn1hxio
p509
I2
sVddd6oqc
p510
I3
sVdewer02
p511
I1
sVdpjdklo
p512
I2
sVdsjmr5b
p513
I1
sVdabodr1
p514
I1
sVd9gskqj
p515
I1
sVddogay7
p516
I1
sVdb4axri
p517
I1
sVder1nt2
p518
I1
sVczza54f
p519
I2
sVd5igv7e
p520
I1
sVd67ek5y
p521
I1
sVd1g401v
p522
I1
sVdg4d9p7
p523
I1
sVd38t6b0
p524
I9
sVd5bfeyy
p525
I3
sVdap70s1
p526
I1
sVdq4v599
p527
I2
sVdnperov
p528
I2
sVdd178it
p529
I1
sVd59lf9a
p530
I1
sVdg8wlib
p531
I1
sVd0inf9t
p532
I1
sVd3op2vn
p533
I1
sVdrmbfst
p534
I1
sVd9p11di
p535
I2
sVdbb1hvx
p536
I1
sVczo7zb3
p537
I1
sVdbnqi85
p538
I2
sVddhw289
p539
I1
sVdbwpxit
p540
I2
sVd7fow7x
p541
I1
sVd33ze4c
p542
I1
sVd9vj995
p543
I4
sVcyvrorr
p544
I1
sVdb7tk7x
p545
I1
sVd24j5ih
p546
I1
sVd1ap46y
p547
I6
sVd3spi9q
p548
I2
sVd0apb07
p549
I2
sVdst6mda
p550
I1
sVddia62x
p551
I3
sVdc18w32
p552
I9
sVdmj1tvw
p553
I1
sVde259jm
p554
I1
sVczxenb2
p555
I1
sVdct5fpr
p556
I1
sVdi0s1ks
p557
I2
sVcz7lkkc
p558
I1
sVczy46hc
p559
I6
sVd1jpplb
p560
I1
sVd6wd31k
p561
I1
sVd52ivad
p562
I1
sVdi11z84
p563
I1
sVdqy1697
p564
I2
sVd6ggfz5
p565
I4
sVddj3a23
p566
I2
sVdt6vnew
p567
I3
sVdcgxtow
p568
I1
sVdppuihe
p569
I1
sVd6spa8g
p570
I1
sVd4vpip2
p571
I1
sVdd7v46p
p572
I1
sVd7ms95u
p573
I5
sVdi9x311
p574
I1
sVdkfp78y
p575
I4
sVdddniju
p576
I1
sVd92k59i
p577
I2
sVdbdggo8
p578
I4
sVczedraf
p579
I1
sVdheqwee
p580
I1
sVd93o2zt
p581
I2
sVde3v1gp
p582
I1
sVd64jbnj
p583
I1
sVd24s8iu
p584
I1
sVde6i8jy
p585
I1
sVdcgay22
p586
I1
sVdoqhju6
p587
I2
sVdb0h1it
p588
I4
sVdgod97y
p589
I1
sVdn8woyq
p590
I2
sVd4fbzdw
p591
I1
sVdkk49wq
p592
I2
sVdbfilsl
p593
I6
sVcz4cjgg
p594
I3
sVd6isnoq
p595
I1
sVdjzufw2
p596
I2
sVd6078h2
p597
I3
sVd0nt6lg
p598
I1
sVdcspbdx
p599
I1
sVczx15ek
p600
I1
sVd4dzlqe
p601
I1
sVdaeg18m
p602
I2
sVdqtiqu4
p603
I1
sVdah66xc
p604
I5
sVd241k4c
p605
I3
sVdrxoh8k
p606
I1
sVd038nz6
p607
I1
sVdh0oohb
p608
I1
sVdskvkxe
p609
I1
sVczh215v
p610
I1
sVd9vyjqa
p611
I1
sVdqa1p0d
p612
I2
sVd43legs
p613
I1
sVdgxdwgv
p614
I1
sVd1czids
p615
I2
sVd1tajy8
p616
I1
sVdp6lqor
p617
I5
sVdby9los
p618
I1
sVcz03h8d
p619
I2
sVdmkd2rz
p620
I2
sVda911ef
p621
I1
sVdgkbilp
p622
I1
sVdskqch2
p623
I3
sVdn0cfaa
p624
I2
sVcz49o56
p625
I1
sVdkkg62d
p626
I1
sVdgidbkm
p627
I1
sVd9o7glz
p628
I2
sVdoj0zk4
p629
I1
sVcyi3gc3
p630
I1
sVdj50pz0
p631
I1
sVdbo9c20
p632
I1
sVd3vng9z
p633
I3
sVdgxqjgi
p634
I3
sVdsemvtm
p635
I1
sVdg2cv0v
p636
I3
sVdmsfsv2
p637
I1
sVdququai
p638
I1
sVda8rej3
p639
I1
sVdekpxkh
p640
I1
sVdpu8h96
p641
I4
sVd1k6sxz
p642
I1
sVd2dc9v7
p643
I2
sVczypact
p644
I1
sVdilyqzw
p645
I11
sVcyznlfl
p646
I1
sVdc7z5nf
p647
I2
sVdoersed
p648
I2
sVdjl8a03
p649
I2
sVdb19bac
p650
I3
sVd9cevjy
p651
I1
sVd8gokes
p652
I1
sVde8vvl9
p653
I1
sVd4438h4
p654
I22
sVdcyhdwz
p655
I1
sVd3jny7q
p656
I1
sVdipjdsz
p657
I3
sVdfzgz1w
p658
I1
sVczcd6y5
p659
I4
sVdc6n0vh
p660
I1
sVdkpzp9f
p661
I1
sVd0slm0b
p662
I1
sVd277cms
p663
I2
sVdc4e0d7
p664
I4
sVd1tvztk
p665
I1
sVddea0la
p666
I1
sVddcmpmv
p667
I1
sVdfojduz
p668
I1
sVdaj4ze5
p669
I1
sVdf3wq0a
p670
I1
sVd77f547
p671
I4
sVcz2yk4n
p672
I2
sVdmzo33h
p673
I1
sVd1tx98r
p674
I3
sVdk3o09j
p675
I3
sVds21oy5
p676
I1
sVd2djzze
p677
I1
sVdd6n4bo
p678
I1
sVd7tp1a0
p679
I1
sVdgd1slx
p680
I6
sVdoh5hp6
p681
I3
sVd86mm4c
p682
I1
sVd6xxmuv
p683
I1
sVdo7xgx6
p684
I1
sVdj9im5z
p685
I3
sVdsku83n
p686
I2
sVdofnyk1
p687
I1
sVdh71mjh
p688
I1
sVdc1tlmv
p689
I1
sVczavo7q
p690
I2
sVdb6vvzn
p691
I1
sVd9nfss8
p692
I1
sVdrev7ch
p693
I1
sVczbp908
p694
I5
sVd017avt
p695
I6
sVdben81y
p696
I4
sVdte06kh
p697
I4
sVd2orld2
p698
I3
sVd3gg0br
p699
I2
sVddzvycq
p700
I4
sVd8e5w8z
p701
I1
sVdheqfhb
p702
I1
sVd2wz6r3
p703
I1
sVd9y0u1q
p704
I1
sVcyvs2q1
p705
I6
sVczziapi
p706
I1
sVd9j3v27
p707
I1
sVd5s8d85
p708
I2
sVdtiq2yx
p709
I2
sVczmsy3h
p710
I1
sVd5jmlqm
p711
I1
sVd5u7va9
p712
I1
sVdgghp21
p713
I1
sVdhnifqc
p714
I1
sVd3vo0bv
p715
I1
sVdcr6q8f
p716
I7
sVcz13v5l
p717
I1
sVdgsgnhg
p718
I1
sVd4cqq9o
p719
I2
sVdgd14l2
p720
I1
sVd5l313d
p721
I1
sVczw0s6w
p722
I2
sVdnb62hf
p723
I1
sVd1tqa1a
p724
I2
sVdadjv3w
p725
I5
sVdn8ww35
p726
I4
sVdjnlsoc
p727
I1
sVdbze43u
p728
I1
sVdbtmfpi
p729
I1
sVdml2wb1
p730
I1
sVdrz5yx7
p731
I1
sVd2vawbi
p732
I2
sVdmxhrrc
p733
I1
sVd4a4ys5
p734
I1
sVdrulimn
p735
I1
sVddsaqow
p736
I3
sVdcoz29a
p737
I1
sVdcqfpm0
p738
I5
sVdbm7ue8
p739
I1
sVdnsjyws
p740
I3
sVd05jcbd
p741
I1
sVd2agwxr
p742
I3
sVdqgv4n0
p743
I3
sVd088e8o
p744
I4
sVdizsu1l
p745
I1
sVdc9qc1d
p746
I1
sVczjppyx
p747
I2
sVdohg1ek
p748
I1
sVdpkc6bh
p749
I8
sVd4ff3xu
p750
I2
sVdfg3oga
p751
I1
sVd3fb5b6
p752
I1
sVdqvrcrg
p753
I1
sVczw7m11
p754
I1
sVdfpbuo2
p755
I5
sVdddpc95
p756
I7
sVd8pmiel
p757
I2
sVdcdlwmc
p758
I1
sVdf36p0z
p759
I1
sVd2rupvi
p760
I4
sVd17ju1n
p761
I1
sVdho2y0c
p762
I1
sVd0h9l05
p763
I1
sVd00j8jx
p764
I1
sVdplxohw
p765
I1
sVdberivj
p766
I1
sVdaz30ct
p767
I1
sVd67ci72
p768
I1
sVd4h3pmz
p769
I1
sVd9g3tca
p770
I1
sVdfib9t4
p771
I2
sVd73lvzf
p772
I2
sVdb7ypmb
p773
I2
sVdkjyyrm
p774
I2
sVdnnpkzg
p775
I2
sVdkazndw
p776
I1
sVdf90zhh
p777
I3
sVczq1yxm
p778
I1
sVdcq8ese
p779
I2
sVdidmehu
p780
I3
sVdsouqoj
p781
I1
sVdq3j5r2
p782
I2
sVd71b8a7
p783
I1
sVds3fwhw
p784
I1
sVdiqz50n
p785
I2
sVdezz9d4
p786
I3
sVd0lrenm
p787
I1
sVd3e2p00
p788
I5
sVd3vvm5k
p789
I4
sVdocu8yf
p790
I1
sVdso7m2w
p791
I1
sVdq8dtw0
p792
I1
sVd5iel9z
p793
I1
sVdbv4b0e
p794
I1
sVcz2y0y7
p795
I1
sVdi29ldc
p796
I2
sVcyv7g15
p797
I1
sVd0d9f0x
p798
I1
sVdjvdsby
p799
I1
sVdks39b1
p800
I1
sVdkm64s8
p801
I1
sVcz59flb
p802
I2
sVd9lg6yi
p803
I3
sVd081a51
p804
I1
sVd7ygtp9
p805
I1
sVdgpmgno
p806
I1
sVdhyd7b3
p807
I1
sVd5i8zen
p808
I2
sVd33ovgq
p809
I1
sVdh3d25k
p810
I1
sVd12slrq
p811
I1
sVczazscc
p812
I1
sVdest6c9
p813
I1
sVd5cjaee
p814
I1
sVd306f4g
p815
I1
sVd46dyzr
p816
I3
sVd8xkl4w
p817
I3
sVd6kar62
p818
I1
sVd1apvb3
p819
I1
sVdkpc850
p820
I1
sVdpjuecx
p821
I2
sVdkktis1
p822
I1
sVd2xw4t8
p823
I1
sVda2tk7c
p824
I2
sVd89wb5g
p825
I1
sVd079fpu
p826
I2
sVd1dzcqo
p827
I1
sVczl9k01
p828
I1
sVd0i21fx
p829
I1
sVdhf3upz
p830
I6
sVdcfzto6
p831
I3
sVdkm605u
p832
I4
sVdjw96pw
p833
I1
sVdarr4nw
p834
I3
sVd31cefr
p835
I1
sVcynyfvi
p836
I1
sVdnwthn9
p837
I1
sVdfp0heb
p838
I1
sVd3317vk
p839
I1
sVdr76h0o
p840
I2
sVd0o0w5x
p841
I4
sVdb5mdcp
p842
I1
sVd0jlblh
p843
I1
sVd8y3vdm
p844
I1
sVczq6ixf
p845
I3
sVdtanwqh
p846
I11
sVd05hkbe
p847
I1
sVdej0ges
p848
I1
sVdjb5hvp
p849
I2
sVd8m3dp6
p850
I1
sVddc624b
p851
I3
sVd0m4cxi
p852
I2
sVd29pj4k
p853
I7
sVdkkpcr8
p854
I1
sVd58nyyu
p855
I1
sVddpq3pf
p856
I1
sVd5rnkb2
p857
I1
sVczrzzek
p858
I1
sVd29sbdw
p859
I1
sVdhz3r2w
p860
I1
sVd4fibum
p861
I1
sVd0k9y7g
p862
I4
sVdpuswlv
p863
I7
sVd09ic5v
p864
I1
sVdc2hlqc
p865
I1
sVdqqlosc
p866
I1
sVdhly2rm
p867
I4
sVdmguzz6
p868
I1
sVczy7j03
p869
I2
sVdrv2yzc
p870
I2
sVdcy6cnk
p871
I1
sVd3ufb2f
p872
I1
sVd887eyx
p873
I1
sVdeeweoo
p874
I2
sVddhdaa0
p875
I1
sVd0w8qh0
p876
I3
sVdr427j7
p877
I1
sVd5xy8lh
p878
I1
sVdr2rjat
p879
I1
sVd9wdo3d
p880
I3
sVdc7zmn6
p881
I1
sVdgs3nvt
p882
I1
sVdc0pyq6
p883
I2
sVd0ifsak
p884
I1
sVdanuw88
p885
I1
sVdiwhohq
p886
I1
sVdhordi8
p887
I1
sVd6jv5yr
p888
I3
sVcyij09u
p889
I1
sVdbzupg1
p890
I1
sVdf3xifs
p891
I1
sVddzx9jp
p892
I1
sVd157ct4
p893
I1
sVd6si7zz
p894
I1
sVd6a34df
p895
I1
sVd33oyth
p896
I1
sVd4pwn3m
p897
I2
sVdr7g7sr
p898
I4
sVczq9z13
p899
I3
sVczfhpw2
p900
I1
sVdrlk9cl
p901
I1
sVdq263jd
p902
I2
sVdb6ycpu
p903
I3
sVd8sj7yr
p904
I2
sVd013ylm
p905
I2
sVda6zhun
p906
I1
sVdavaodd
p907
I1
sVd66egsh
p908
I2
sVdhhbk56
p909
I1
sVd3mamse
p910
I1
sVda0jknh
p911
I1
sVdqnz2hz
p912
I1
sVdovu5ly
p913
I1
sVd7psw3u
p914
I2
sVdrorvh3
p915
I4
sVd05s60j
p916
I1
sVdpe10d8
p917
I2
sVdbx6wad
p918
I8
sVdd285z6
p919
I1
sVdi4nmtv
p920
I3
sVdg28o4t
p921
I1
sVczw8io9
p922
I2
sVczfegr0
p923
I2
sVdkx4cg0
p924
I1
sVd888o53
p925
I4
sVdqdg7by
p926
I16
sVd5c2fh5
p927
I1
sVdihiwit
p928
I2
sVdanehke
p929
I2
sVd4p0pug
p930
I1
sVd865wym
p931
I1
sVdaitsvf
p932
I1
sVdt5gqks
p933
I1
sVdrqh83g
p934
I2
sVd2uk5j7
p935
I1
sVd106eye
p936
I1
sVdq5zjnl
p937
I1
sVd18ralu
p938
I1
sVd5sfdjg
p939
I1
sVdte1nov
p940
I2
sVdkx7l3q
p941
I1
sVczv6yf9
p942
I1
sVdrbmrp4
p943
I1
sVd38i65g
p944
I3
sVdhv32p6
p945
I9
sVdbtk1ec
p946
I1
sVdg6pr8n
p947
I2
sVd8yr8vl
p948
I1
sVdattz96
p949
I2
sVdde4tvz
p950
I1
sVdfyxck6
p951
I2
sVdelrxe9
p952
I1
sVd1vjsl2
p953
I1
sVdhyz6un
p954
I2
sVdaoi11l
p955
I2
sVdk7hose
p956
I1
sVdii2ino
p957
I7
sVdtdimqp
p958
I1
sVd6d3qf6
p959
I1
sVdfea0cq
p960
I1
sVczo3baq
p961
I2
sVd5a7o3h
p962
I1
sVdach8jb
p963
I1
sVd3l2wt6
p964
I1
sVde1tweo
p965
I1
sVdpntrrb
p966
I2
sVdo26nfz
p967
I1
sVdjp306j
p968
I3
sVdmxfolu
p969
I1
sVdpw7h2m
p970
I1
sVcz4292n
p971
I1
sVd38hf0v
p972
I4
sVd8djak3
p973
I1
sVdr6a78o
p974
I1
sVd9kkmlh
p975
I1
sVdgxuytm
p976
I1
sVdpn7aty
p977
I4
sVd6q8jtw
p978
I1
sVcyksppr
p979
I1
sVdhrffc0
p980
I2
sVdef2j14
p981
I1
sVd8ehcjq
p982
I1
sVdaxjsnq
p983
I1
sVd1o5lp1
p984
I1
sVd9y9220
p985
I1
sVd1fedjn
p986
I2
sVdg4bcb9
p987
I1
sVd4y9s2t
p988
I2
sVd7m36z1
p989
I1
sVd1amba0
p990
I1
sVd2wpy42
p991
I4
sVd4zrone
p992
I2
sVdc7tkfe
p993
I1
sVdq3gthc
p994
I3
sVdavdc4p
p995
I1
sVdcmt4bn
p996
I1
sVd95bd95
p997
I1
sVdat23i0
p998
I1
sVd8bdu2t
p999
I1
sVdnodfps
p1000
I1
sVdtfnzl5
p1001
I1
sVdpw4clk
p1002
I1
sVd729r6h
p1003
I1
sVd31cmkn
p1004
I5
sVd6743jf
p1005
I2
sVd65fzqk
p1006
I1
sVcyqzqje
p1007
I1
sVdom5rg2
p1008
I4
sVdsw3ac3
p1009
I1
sVd1b94ni
p1010
I1
sVdipkg9c
p1011
I1
sVcz500ls
p1012
I1
sVd31u2uk
p1013
I1
sVdd1cnzn
p1014
I1
sVd22b02m
p1015
I1
sVd95ausr
p1016
I1
sVd710uct
p1017
I2
sVd2bx2a2
p1018
I5
sVdbkn056
p1019
I1
sVczxvqpk
p1020
I1
sVdhvccjs
p1021
I4
sVdoav434
p1022
I1
sVdauky79
p1023
I1
sVd5isxpd
p1024
I1
sVd9yxwep
p1025
I1
sVdhr8qqk
p1026
I1
sVdc5n16h
p1027
I2
sVdhfk81x
p1028
I1
sVd31akp7
p1029
I1
sVdj3awni
p1030
I2
sVdd2756l
p1031
I2
sVd1co4il
p1032
I3
sVdn55elk
p1033
I1
sVd5it848
p1034
I1
sVczyms2k
p1035
I3
sVczzut8s
p1036
I1
sVd0bbqg1
p1037
I1
sVd435e3t
p1038
I2
sVd6guzxp
p1039
I1
sVdmwwupr
p1040
I2
sVde1xhov
p1041
I1
sVdnp88ty
p1042
I1
sVd9vq90h
p1043
I2
sVderqf9u
p1044
I1
sVczfniwu
p1045
I1
sVdge394g
p1046
I3
sVdawb68e
p1047
I1
sVd9w6rzz
p1048
I2
sVd1hvea8
p1049
I1
sVdjh9lp4
p1050
I1
sVd1515wa
p1051
I1
sVd8k7vnb
p1052
I1
sVd45ydev
p1053
I2
sVczgo2d0
p1054
I1
sVdgzdly8
p1055
I1
sVd0fsvdh
p1056
I1
sVd4bllz1
p1057
I1
sVd0k9fgg
p1058
I1
sVd8y41s0
p1059
I1
sVd2ucvpd
p1060
I2
sVd00frh2
p1061
I1
sVd84q4lp
p1062
I5
sVdi3iti9
p1063
I1
sVdbb9313
p1064
I1
sVcz50plu
p1065
I1
sVdb814yw
p1066
I5
sVdav7qop
p1067
I1
sVd5d3bos
p1068
I1
sVd1clgko
p1069
I2
sVds0dabj
p1070
I2
sVd78kvhm
p1071
I1
sVdmx6jvc
p1072
I3
sVd8skfyo
p1073
I1
sVd6kcarx
p1074
I1
sVdeh8fe3
p1075
I3
sVd3m8vf2
p1076
I1
sVd743tkt
p1077
I1
sVdglliy0
p1078
I1
sVdb0u6l5
p1079
I1
sVda72ww2
p1080
I1
sVdargq61
p1081
I2
sVdn0altt
p1082
I4
sVdpm2n2t
p1083
I4
sVdtfyat8
p1084
I1
sVdfoxtll
p1085
I1
sVdqtimml
p1086
I1
sVd59hwg6
p1087
I1
sVddlzask
p1088
I1
sVdocaiho
p1089
I1
sVd060sbm
p1090
I1
sVcyqdz0j
p1091
I1
sVdsj564j
p1092
I1
sVczxxu9f
p1093
I4
sVd3a7x8s
p1094
I1
sVdggg17r
p1095
I2
sVcyw14o1
p1096
I1
sVdaqi66y
p1097
I4
sVd1i5v1o
p1098
I1
sVdaaupps
p1099
I1
sVdsjq92z
p1100
I1
sVdfle62v
p1101
I1
sVdevz6k1
p1102
I1
sVdqgel1l
p1103
I1
sVdn8wy52
p1104
I1
sVdbb81fn
p1105
I9
sVdbs23m0
p1106
I11
sVdodz2oh
p1107
I4
sVde3rukf
p1108
I1
sVd3owmux
p1109
I4
sVdcxmw12
p1110
I1
sVd0egj8l
p1111
I1
sVd7aygyf
p1112
I1
sVddjs6z3
p1113
I1
sVdsxce6s
p1114
I1
sVd8u9vx2
p1115
I1
sVd6ey2bm
p1116
I2
sVcznvxan
p1117
I1
sVdkx7j2b
p1118
I2
sVddfvfwf
p1119
I2
sVdjhv0l1
p1120
I7
sVcyqq10w
p1121
I1
sVdff8zig
p1122
I4
sVdap5y4m
p1123
I2
sVdcc8j5o
p1124
I1
sVd2qfs3j
p1125
I7
sVdjjvq45
p1126
I3
sVdqqa0xz
p1127
I1
sVdohjnfz
p1128
I1
sVd06mzyd
p1129
I1
sVd2kv70s
p1130
I1
sVcyvakhb
p1131
I2
sVd1ig13e
p1132
I1
sVd0qh8u8
p1133
I3
sVdmwzoyc
p1134
I1
sVdix55c7
p1135
I2
sVdbr0eyh
p1136
I1
sVddpoyhk
p1137
I1
sVdikwxsf
p1138
I1
sVdbxrdbw
p1139
I4
sVd59l1f6
p1140
I1
sVdqy41qv
p1141
I1
sVdasa9p8
p1142
I1
sVd3vhqah
p1143
I1
sVd09c642
p1144
I2
sVdr4b2kx
p1145
I6
sVdevjdvp
p1146
I3
sVdaoiag3
p1147
I5
sVd0uxm0e
p1148
I2
sVd5cr3vi
p1149
I1
sVdhe3so4
p1150
I1
sVdgau7di
p1151
I3
sVd1x4v9s
p1152
I1
sVdaa6209
p1153
I1
sVdfe5qg5
p1154
I6
sVdmibbwu
p1155
I1
sVd67sgm6
p1156
I4
sVdbtxztt
p1157
I1
sVd3w604v
p1158
I9
sVd2aewoz
p1159
I3
sVdj689gf
p1160
I1
sVdr93cb5
p1161
I1
sVdbawc42
p1162
I2
sVdenj5c2
p1163
I1
sVdjls9au
p1164
I3
sVdjndcgw
p1165
I1
sVdjb622z
p1166
I1
sVdddikkv
p1167
I1
sVd2qt4r3
p1168
I2
sVd1cv0u5
p1169
I2
sVd9vupmy
p1170
I1
sVczw5joc
p1171
I2
sVd6kfmap
p1172
I1
sVd7esffw
p1173
I4
sVdf3qym5
p1174
I2
sVddwnf9u
p1175
I1
sVczuv1t1
p1176
I1
sVdmoj602
p1177
I2
sVd3hoas8
p1178
I3
sVdpnmwp8
p1179
I1
sVdo5r73w
p1180
I2
sVde7tjf1
p1181
I1
sVd0luecn
p1182
I1
sVdsot4uy
p1183
I1
sVczxikpj
p1184
I4
sVdrdw20o
p1185
I1
sVde36gtx
p1186
I2
sVdrinx0e
p1187
I2
sVdb1y98z
p1188
I1
sVddq88pa
p1189
I1
sVdi2mf4s
p1190
I1
sVd3gi6xg
p1191
I2
sVdp6pean
p1192
I2
sVdpx3gqx
p1193
I1
sVczgkydm
p1194
I1
sVdjqnwx5
p1195
I2
sVd2xe419
p1196
I2
sVd0cu1vl
p1197
I1
sVd1yjoi5
p1198
I1
sVdi3zpvo
p1199
I1
sVczrwgdn
p1200
I1
sVdisnx2z
p1201
I6
sVd7htv8c
p1202
I1
sVdn63n3f
p1203
I1
sVdb25jux
p1204
I1
sVdr7hmo6
p1205
I2
sVdjatp0e
p1206
I1
sVdmkmtdj
p1207
I3
sVdd08jv7
p1208
I1
sVdb5qvdz
p1209
I1
sVd5ak8f0
p1210
I5
sVde6nzcm
p1211
I2
sVd9uegl5
p1212
I1
sVdbsfj5m
p1213
I1
sVdp1f34a
p1214
I1
sVddnk3wi
p1215
I1
sVddpow3l
p1216
I1
sVdq1oriy
p1217
I1
sVd0hek48
p1218
I1
sVdo2ep58
p1219
I1
sVdjy0a6b
p1220
I1
sVdcufi98
p1221
I4
sVczge1ot
p1222
I1
sVcyu5i3f
p1223
I1
sVd9jqbgl
p1224
I1
sVdow850f
p1225
I1
sVdb8bbyp
p1226
I1
sVd76hjag
p1227
I2
sVdf5lbyl
p1228
I2
sVd16tsfy
p1229
I1
sVdrgqym8
p1230
I1
sVdcba6t8
p1231
I3
sVdskcgo0
p1232
I5
sVdr0ptf3
p1233
I2
sVdh92x2h
p1234
I1
sVdd56pai
p1235
I3
sVd1hmjd7
p1236
I3
sVd8vefaz
p1237
I1
sVdrm22j8
p1238
I1
sVd23vqf7
p1239
I3
sVdqyx9o8
p1240
I2
sVdix5dzv
p1241
I1
sVd0d97el
p1242
I1
sVd5t0ayi
p1243
I1
sVd7ffao8
p1244
I1
sVddlg0l1
p1245
I1
sVd4rilba
p1246
I1
sVcyze6tn
p1247
I1
sVdkfaadv
p1248
I1
sVd1yjvjo
p1249
I1
sVd1oylez
p1250
I1
sVdolifd9
p1251
I2
sVdrwe2nf
p1252
I1
sVd7leq79
p1253
I1
sVczwxabo
p1254
I2
sVcywseat
p1255
I2
sVd5apf92
p1256
I2
sVd178rtl
p1257
I1
sVd27bjbj
p1258
I1
sVd3mspzx
p1259
I1
sVd94hw4y
p1260
I6
sVd21l1x8
p1261
I1
sVdb7b2iy
p1262
I2
sVdemks3o
p1263
I5
sVd2zk6k0
p1264
I4
sVdkz46j3
p1265
I1
sVds3owa5
p1266
I4
sVczcdf49
p1267
I2
sVcyu5030
p1268
I1
sVdplzpdh
p1269
I1
sVds6sv3q
p1270
I1
sVd8oqvp9
p1271
I5
sVd78z3vc
p1272
I1
sVczxadc1
p1273
I1
sVd3q7dy1
p1274
I1
sVd61awn6
p1275
I1
sVde4b91e
p1276
I2
sVd26ebnp
p1277
I1
sVd3ek4pc
p1278
I1
sVd76jg5e
p1279
I1
sVd0besug
p1280
I2
sVd3myv8d
p1281
I2
sVd4pn13v
p1282
I1
sVd2xwi4n
p1283
I4
sVd7orhzs
p1284
I1
sVdchqhbp
p1285
I1
sVdnbrdu8
p1286
I2
sVdryx60y
p1287
I1
sVdqowm2u
p1288
I1
sVdipm9y4
p1289
I2
sVdj33e40
p1290
I12
sVdruphe8
p1291
I1
sVddf35bg
p1292
I2
sVd73pkkn
p1293
I1
sVdj83g9q
p1294
I3
sVdo4vbtb
p1295
I2
sVd0uz23g
p1296
I1
sVde681z4
p1297
I1
sVd7z48j0
p1298
I1
sVdb8ntkt
p1299
I1
sVd3y0s0g
p1300
I1
sVdd56inw
p1301
I1
sVcysfh4g
p1302
I1
sVdqw4o86
p1303
I7
sVcyzuor1
p1304
I2
sVds5qcj7
p1305
I1
sVd733a5s
p1306
I1
sVdechmis
p1307
I1
sVdegtoq3
p1308
I4
sVdafhe99
p1309
I1
sVdcl2zth
p1310
I10
sVczy64tb
p1311
I7
sVd3av4h6
p1312
I1
sVdbagept
p1313
I1
sVdk25c8y
p1314
I3
sVdfkkfe4
p1315
I2
sVd0wgok8
p1316
I1
sVd32nevd
p1317
I1
sVdso8a9x
p1318
I5
sVd66fl2y
p1319
I2
sVdoiz6m3
p1320
I1
sVd16z2qo
p1321
I1
sVd5u7you
p1322
I1
sVczme4gx
p1323
I3
sVd6an5a1
p1324
I1
sVczwnvmv
p1325
I1
sVd3hpn05
p1326
I2
sVd60haks
p1327
I11
sVdbs4g4n
p1328
I2
sVd1d6rpi
p1329
I3
sVdebj5w2
p1330
I1
sVdkzb7n2
p1331
I1
sVd6kmlsp
p1332
I2
sVd647wy1
p1333
I2
sVd2oh0oc
p1334
I2
sVdsmmtw9
p1335
I1
sVdfe4zjw
p1336
I2
sVdq1nw6z
p1337
I2
sVdp4rcbq
p1338
I2
sVcz7p63t
p1339
I3
sVd4xqpqn
p1340
I2
sVdc6b8gc
p1341
I1
sVd81dvee
p1342
I2
sVdp9jd7q
p1343
I1
sVd9la7da
p1344
I1
sVd33oa54
p1345
I1
sVdjp09gq
p1346
I1
sVd5iidwv
p1347
I2
sVdmka5se
p1348
I2
sVd1iraiz
p1349
I1
sVdbrfj6x
p1350
I1
sVczw7dnb
p1351
I1
sVd0cg79t
p1352
I1
sVdq8zgzc
p1353
I1
sVdml5u3z
p1354
I1
sVda2918f
p1355
I1
sVd5tci0i
p1356
I1
sVdeazq7i
p1357
I2
sVdie3ic9
p1358
I1
sVdq0su0k
p1359
I1
sVczkzt0b
p1360
I2
sVczph9j0
p1361
I1
sVdipjfuy
p1362
I1
sVdeelcbh
p1363
I1
sVdou08i6
p1364
I1
sVdg1lmur
p1365
I3
sVd1m0n03
p1366
I1
sVd9zvyqa
p1367
I2
sVdmyiqfm
p1368
I1
sVdo1wkzt
p1369
I1
sVdgfn8od
p1370
I4
sVd2bg4nh
p1371
I2
sVczaqt9h
p1372
I1
sVdmsrcej
p1373
I1
sVczoji8i
p1374
I1
sVd64apro
p1375
I4
sVdq7hohb
p1376
I1
sVdekzjw7
p1377
I1
sVdgm18lx
p1378
I5
sVdeyrf0k
p1379
I5
sVd1sc50q
p1380
I1
sVd61qjnn
p1381
I1
sVd1fqhw6
p1382
I4
sVd939rmj
p1383
I1
sVdpatawl
p1384
I1
sVd3m9rpq
p1385
I1
sVdmysez9
p1386
I1
sVds2gbxx
p1387
I1
sVdd5v4qu
p1388
I2
sVdk46dgn
p1389
I3
sVdrv6t5x
p1390
I2
sVde991l4
p1391
I1
sVd5wm9n8
p1392
I1
sVd6sf1ew
p1393
I1
sVd6ykilg
p1394
I3
sVdd5elfr
p1395
I7
sVd997aya
p1396
I2
sVdot19zf
p1397
I4
sVdj26as2
p1398
I3
sVdb7y4sx
p1399
I1
sVd41hca3
p1400
I1
sVdbe556n
p1401
I2
sVdebiuuh
p1402
I3
sVds7zncu
p1403
I1
sVdevjalm
p1404
I1
sVdjptdvt
p1405
I1
sVd38wn2s
p1406
I1
sVdn4nxy6
p1407
I2
sVdesfrvl
p1408
I5
sVd6aplgg
p1409
I1
sVdr6ke3e
p1410
I1
sVdc6bkw2
p1411
I1
sVd7pomxb
p1412
I1
sVdifrm1p
p1413
I1
sVde4pf94
p1414
I1
sVdopnmhu
p1415
I1
sVdssowig
p1416
I5
sVdk14vt9
p1417
I1
sVdssp840
p1418
I1
sVd2fupox
p1419
I3
sVdfrbir1
p1420
I1
sVd4tlrh4
p1421
I1
sVdeissws
p1422
I8
sVd0dkxp1
p1423
I3
sVdjqr3ng
p1424
I1
sVdi558nx
p1425
I1
sVdf2mi7s
p1426
I1
sVddm44w3
p1427
I1
sVd0i2g4m
p1428
I1
sVdpmuh2x
p1429
I1
sVczs36e3
p1430
I1
sVdakqy7r
p1431
I1
sVd1ffyaa
p1432
I2
sVd34qwai
p1433
I1
sVd8z9vfk
p1434
I1
sVdrqh88s
p1435
I1
sVdd68azv
p1436
I1
sVd3nl456
p1437
I1
sVd8d09wz
p1438
I1
sVdpei5xo
p1439
I1
sVczu4nka
p1440
I4
sVdrt8g9j
p1441
I1
sVdn2qbqj
p1442
I2
sVdb7kej7
p1443
I3
sVd6jvjuq
p1444
I1
sVd7mrcrd
p1445
I5
sVcznezof
p1446
I1
sVdbbyrg2
p1447
I1
sVd7ci51w
p1448
I13
sVdb8dnrx
p1449
I2
sVdj50ref
p1450
I1
sVdgq4edu
p1451
I3
sVcz6adcq
p1452
I1
sVdh70uub
p1453
I1
sVd5xy992
p1454
I5
sVdccc6ss
p1455
I1
sVdmsgsom
p1456
I4
sVd0zz1fg
p1457
I1
sVdso715x
p1458
I2
sVd1wd3du
p1459
I2
sVd2fhi85
p1460
I2
sVd95xe4i
p1461
I1
sVdj90qsi
p1462
I1
sVczf9cac
p1463
I1
sVdkbkfc5
p1464
I3
sVczwnxxo
p1465
I3
sVdje8x6q
p1466
I4
sVczb9ut6
p1467
I1
sVdpirxnl
p1468
I1
sVd0gyc71
p1469
I1
sVczqxjfa
p1470
I1
sVdjr98f7
p1471
I1
sVd3x3j8x
p1472
I1
sVczwgjra
p1473
I2
sVcz4zxt1
p1474
I1
sVd2o4tra
p1475
I1
sVd5qc7us
p1476
I1
sVd39mg15
p1477
I1
sVd7kqfop
p1478
I2
sVczwyr6m
p1479
I6
sVd29wz6u
p1480
I2
sVd64fcpw
p1481
I1
sVdpq0bwp
p1482
I1
sVd057sef
p1483
I1
sVczl4p65
p1484
I8
sVcyuvxpc
p1485
I2
sVdghsbs1
p1486
I3
sVdq73u42
p1487
I1
sVdbb47qw
p1488
I4
sVd8oaly4
p1489
I1
sVdizw8ef
p1490
I3
sVdg7wo6d
p1491
I1
sVdd3fx7e
p1492
I3
sVdi4vbtl
p1493
I1
sVdkxb588
p1494
I1
sVdeeipny
p1495
I8
sVdmnnky9
p1496
I1
sVdpl8e9s
p1497
I1
sVdgs4tzh
p1498
I2
sVczlg5ws
p1499
I1
sVd3mzpbg
p1500
I1
sVdb7yufm
p1501
I1
sVdauj9wj
p1502
I1
sVdam8r9l
p1503
I1
sVdrk31t8
p1504
I3
sVdh9po73
p1505
I1
sVdrlyjzj
p1506
I1
sVdtf0w1f
p1507
I1
sVd726cvp
p1508
I2
sVdc8c4qa
p1509
I2
sVd9nq86y
p1510
I1
sVd7937gs
p1511
I2
sVdnodmpc
p1512
I1
sVd1jszfn
p1513
I1
sVdh7v175
p1514
I1
sVdfqlyhd
p1515
I1
sVd17gq1w
p1516
I1
sVd049uxs
p1517
I1
sVdj2n517
p1518
I1
sVdmnua24
p1519
I1
sVdmsexk4
p1520
I1
sVdc0ehjs
p1521
I1
sVda4911o
p1522
I1
sVdfqx2nm
p1523
I1
sVd2ksf4f
p1524
I1
sVd52hgmg
p1525
I1
sVd6tafn2
p1526
I1
sVd57x2zt
p1527
I1
sVd34eyza
p1528
I1
sVddea6mt
p1529
I3
sVdhr0mip
p1530
I1
sVdk3kvk8
p1531
I1
sVde0lqfg
p1532
I1
sVd6555ji
p1533
I2
sVd03lm01
p1534
I1
sVd6ebtfg
p1535
I1
sVd2523iv
p1536
I1
sVd66u89g
p1537
I1
sVd2a8gbx
p1538
I1
sVd3grwix
p1539
I1
sVd342eqg
p1540
I4
sVdtipblp
p1541
I1
sVdnw63s6
p1542
I2
sVdgugb12
p1543
I2
sVdfuyb4j
p1544
I1
sVcynttoa
p1545
I1
sVdhhywrf
p1546
I1
sVd5bu6fs
p1547
I3
sVd3izugw
p1548
I1
sVd4acer2
p1549
I2
sVdkylghr
p1550
I2
sVdramn2x
p1551
I1
sVd3lwke8
p1552
I2
sVdskzobu
p1553
I1
sVd9o9mgr
p1554
I1
sVdf5v1es
p1555
I1
sVdk2kqgy
p1556
I1
sVdpz3iz3
p1557
I1
sVd24ja5b
p1558
I2
sVdteafns
p1559
I2
sVd67b8yy
p1560
I1
sVds737ae
p1561
I3
sVdexeon8
p1562
I3
sVdgz4yx0
p1563
I1
sVdke40n7
p1564
I1
sVd9zc6np
p1565
I1
sVd5cvc7c
p1566
I8
sVdakud6z
p1567
I1
sVdfhugei
p1568
I1
sVd0xb5ft
p1569
I7
sVczpbnua
p1570
I1
sVdjr3nta
p1571
I2
sVd2awik0
p1572
I1
sVd7zqc7w
p1573
I1
sVd05ejdb
p1574
I5
sVddjtmlb
p1575
I1
sVcz97xrm
p1576
I2
sVdkz4ok5
p1577
I1
sVd1istdu
p1578
I2
sVczw9ek7
p1579
I1
sVdmzs9fi
p1580
I1
sVcyk8h2v
p1581
I2
sVdmuej0n
p1582
I1
sVdmjmsku
p1583
I1
sVd676j5z
p1584
I1
sVdbsg9pt
p1585
I4
sVdbeutjw
p1586
I1
sVd1utwsy
p1587
I1
sVdc1vk1j
p1588
I1
sVd16h4wn
p1589
I1
sVd1mfthw
p1590
I1
sVd2lupt3
p1591
I1
sVdrdw1gz
p1592
I1
sVdeqm6u3
p1593
I1
sVd4jqykd
p1594
I1
sVcyu878n
p1595
I3
sVd2kttx1
p1596
I1
sVdh0pqye
p1597
I5
sVd2zxl8q
p1598
I2
sVdjufqcd
p1599
I1
sVd2y3had
p1600
I5
sVd9o4xky
p1601
I1
sVd33dbwv
p1602
I1
sVd93epdn
p1603
I1
sVd9lch53
p1604
I2
sVdonrreq
p1605
I1
sVczwzyo3
p1606
I1
sVdkrqisx
p1607
I2
sVd0d7sgu
p1608
I3
sVddr7nme
p1609
I1
sVd4tkh1u
p1610
I3
sVd56t5wr
p1611
I4
sVd62iubt
p1612
I2
sVdi5c4wl
p1613
I1
sVd5errqs
p1614
I2
sVd0pxi3h
p1615
I2
sVdo7upah
p1616
I1
sVdf6g003
p1617
I1
sVd5j8p0q
p1618
I3
sVdbdg60n
p1619
I1
sVdgvylea
p1620
I3
sVdhc1usu
p1621
I2
sVdj6wchl
p1622
I2
sVdcja52p
p1623
I1
sVde45bdi
p1624
I2
sVda8mtm4
p1625
I2
sVdd8euqi
p1626
I1
sVczph8ax
p1627
I1
sVdj83bcy
p1628
I2
sVd7xkjrs
p1629
I2
sVdi08y0p
p1630
I1
sVd6idxqr
p1631
I1
sVczfusr4
p1632
I1
sVdp3y8uj
p1633
I1
sVdiqaid3
p1634
I1
sVd2xo1hk
p1635
I1
sVd017ep8
p1636
I3
sVdq78c9u
p1637
I1
sVd1m0bs7
p1638
I1
sVdenj2tx
p1639
I1
sVd76k0c8
p1640
I1
sVdnkqts8
p1641
I2
sVd9mt5if
p1642
I2
sVd23fdt2
p1643
I2
sVde1quyn
p1644
I1
sVdf52ux2
p1645
I3
sVdfawk97
p1646
I1
sVdcch0ib
p1647
I1
sVdbkqsae
p1648
I1
sVdb39xnb
p1649
I3
sVdkqprnk
p1650
I2
sVdkevhma
p1651
I1
sVcyoxbht
p1652
I1
sVd8b4pss
p1653
I2
sVd0vx6u1
p1654
I1
sVdb9idbz
p1655
I7
sVd9bk5hm
p1656
I1
sVd845y2s
p1657
I4
sVdi96m9w
p1658
I1
sVcz2sugx
p1659
I1
sVcytyftf
p1660
I1
sVd3w0lbh
p1661
I3
sVdfbjhte
p1662
I3
sVd7r6vgt
p1663
I2
sVdi14bxk
p1664
I1
sVdkr68uw
p1665
I1
sVdpynplr
p1666
I3
sVddub9bt
p1667
I1
sVd62it9a
p1668
I3
sVdbsqqxu
p1669
I2
sVdb892l5
p1670
I1
sVd3ea6ig
p1671
I1
sVdn8fxrb
p1672
I3
sVd2snprv
p1673
I2
sVd314c6d
p1674
I2
sVdr6at3i
p1675
I1
sVdewhbxa
p1676
I7
sVda827mq
p1677
I2
sVczwuner
p1678
I1
sVd55vwwo
p1679
I2
sVczg61fi
p1680
I1
sVdeualxp
p1681
I1
sVd8zx4wr
p1682
I2
sVdfcuypp
p1683
I1
sVdhfye49
p1684
I1
sVd7d3unh
p1685
I2
sVdryj9qy
p1686
I1
sVd72cqsb
p1687
I1
sVdkgp1bd
p1688
I2
sVd8yewjw
p1689
I5
sVdhbldsp
p1690
I1
sVd9z2c9o
p1691
I1
sVdfaqu26
p1692
I1
sVdf85kx4
p1693
I3
sVd62ik8g
p1694
I2
sVdicv9d9
p1695
I3
sVd7h6ucd
p1696
I1
sVd4h2u4r
p1697
I2
sVd3owicd
p1698
I1
sVd6586v5
p1699
I1
sVd1m1oby
p1700
I1
sVd4hpkc4
p1701
I2
sVd8b874c
p1702
I2
sVd2snmhi
p1703
I3
sVd3s830b
p1704
I1
sVdpuqfi1
p1705
I5
sVdevd3ng
p1706
I3
sVdkj2lbf
p1707
I1
sVddpk69x
p1708
I2
sVcz53tvm
p1709
I2
sVcypi1vw
p1710
I1
sVdjupout
p1711
I1
sVdqgwynd
p1712
I1
sVcyuny5y
p1713
I2
sVdrw9f1x
p1714
I5
sVdc71ws8
p1715
I1
sVdahct0l
p1716
I1
sVdfpje3e
p1717
I3
sVd5m3avh
p1718
I4
sVd444m2z
p1719
I2
sVd1msspw
p1720
I1
sVd1kbgr6
p1721
I1
sVdfq3kdn
p1722
I1
sVdeqxkil
p1723
I1
sVdnaje1y
p1724
I1
sVd3430ou
p1725
I6
sVdca10u2
p1726
I1
sVd1kf5f5
p1727
I1
sVdn1fuf1
p1728
I2
sVdqw9vrc
p1729
I2
sVdaku0a8
p1730
I1
sVczlg8rk
p1731
I1
sVdrzbths
p1732
I1
sVdmxb9cy
p1733
I1
sVd4lmsjr
p1734
I2
sVdqo37i4
p1735
I1
sVdsnyo8b
p1736
I4
sVdduvm9k
p1737
I1
sVd3xl4k5
p1738
I1
sVdo1akei
p1739
I1
sVd9a4g5c
p1740
I1
sVdhrhds1
p1741
I1
sVdmqb1vh
p1742
I1
sVdmwx5xc
p1743
I1
sVd21af8y
p1744
I1
sVdkifm7p
p1745
I1
sVdbhirrb
p1746
I1
sVdgs1km5
p1747
I1
sVdmn8jou
p1748
I1
sVd5krfcs
p1749
I1
sVdqs8vze
p1750
I1
sVdka5wwl
p1751
I1
sVd8fydu6
p1752
I1
sVdny5lgl
p1753
I4
sVd3azqgx
p1754
I2
sVczcvh81
p1755
I1
sVd0n4zl7
p1756
I1
sVdeh1kdr
p1757
I1
sVdqxk8jx
p1758
I6
sVcyvdc4s
p1759
I1
sVcyi3h37
p1760
I1
sVddg237k
p1761
I1
sVdpq7cnd
p1762
I2
sVd1ma2n1
p1763
I3
sVd8uww6z
p1764
I1
sVd2bmmq3
p1765
I1
sVdq3aszg
p1766
I5
sVdnd0wri
p1767
I1
sVd2zxibz
p1768
I1
sVdtcaixl
p1769
I1
sVd5cf7ot
p1770
I1
sVd4bahu5
p1771
I5
sVdt4gd53
p1772
I1
sVdew6dwr
p1773
I1
sVdcr94p7
p1774
I1
sVdb66plb
p1775
I1
sVdku235u
p1776
I1
sVd1td76s
p1777
I1
sVdg19qyu
p1778
I2
sVdh6cqqv
p1779
I1
sVdawwec3
p1780
I1
sVdk1rp8e
p1781
I2
sVd28ibrc
p1782
I1
sVde1fn6w
p1783
I1
sVdf8yczy
p1784
I3
sVcyrduzp
p1785
I1
sVd2syyou
p1786
I3
sVd1eew6v
p1787
I1
sVdewa5gt
p1788
I1
sVd5swvit
p1789
I8
sVd3o7meg
p1790
I3
sVczcxkfa
p1791
I1
sVdmwyxdw
p1792
I2
sVd78pu25
p1793
I3
sVdg9uhdw
p1794
I6
sVcyvv0io
p1795
I2
sVdsgdcjq
p1796
I1
sVd3hnca7
p1797
I1
sVd3vss6j
p1798
I1
sVdebj88s
p1799
I1
sVdccb9dc
p1800
I1
sVd0d5x4j
p1801
I3
sVd770yjz
p1802
I3
sVda7z2c2
p1803
I1
sVd0pw80g
p1804
I1
sVdo1qzna
p1805
I1
sVddfup39
p1806
I1
sVd8crnb3
p1807
I1
sVdhcbzk7
p1808
I3
sVd2czide
p1809
I3
sVd00a2d4
p1810
I1
sVdat4erx
p1811
I1
sVdenj8ss
p1812
I6
sVdmsfmia
p1813
I1
sVd0m1kt9
p1814
I1
sVd16rlpp
p1815
I3
sVd0rhdyk
p1816
I1
sVdpyjb75
p1817
I1
sVddu40k7
p1818
I1
sVd2ds9ja
p1819
I2
sVdbrrc63
p1820
I2
sVdoh5h0e
p1821
I1
sVd5q6fl9
p1822
I1
sVdrkysa7
p1823
I3
sVdapqii5
p1824
I1
sVds8qamk
p1825
I1
sVd91kqvu
p1826
I2
sVd3wmzom
p1827
I12
sVdjgxkee
p1828
I1
sVd9kr8aa
p1829
I4
sVd7cky45
p1830
I1
sVdqnom9c
p1831
I1
sVd2j7gmy
p1832
I3
sVd23u4je
p1833
I1
sVd5dcvsf
p1834
I1
sVd15g0jk
p1835
I1
sVdppsfwi
p1836
I1
sVdmnghm2
p1837
I4
sVd3j1ylf
p1838
I2
sVd1jwtfc
p1839
I1
sVdpqc89n
p1840
I4
sVcywchmq
p1841
I1
sVdj5ug5g
p1842
I5
sVdkm6wkb
p1843
I1
sVd5nb83o
p1844
I1
sVd6gol9z
p1845
I2
sVd6kpgwa
p1846
I3
sVczwg27o
p1847
I2
sVdn38gv1
p1848
I3
sVdn6r3fw
p1849
I1
sVdqns9so
p1850
I1
sVdpas7e7
p1851
I2
sVdk7iht3
p1852
I1
sVdofhm9k
p1853
I4
sVczwrgoo
p1854
I3
sVd0zwj3d
p1855
I2
sVd6vj74j
p1856
I3
sVd077jya
p1857
I1
sVdqb7j7d
p1858
I2
sVczwxk9h
p1859
I3
sVdcw8q9k
p1860
I1
sVddpoohh
p1861
I1
sVdmxocqx
p1862
I2
sVdq7u2zc
p1863
I1
sVdd54d2q
p1864
I1
sVdeicbwy
p1865
I8
sVdg5idju
p1866
I5
sVd3wud8e
p1867
I1
sVdj4c6iq
p1868
I1
sVdpodxcy
p1869
I3
sVd53atql
p1870
I1
sVddiiid4
p1871
I2
sVd3o7niv
p1872
I3
sVd032ll5
p1873
I1
sVdbgx40a
p1874
I1
sVdtim6yn
p1875
I2
sVdgoj129
p1876
I1
sVd56t0md
p1877
I1
sVd2lxx9a
p1878
I2
sVd017dcr
p1879
I3
sVd0lupa9
p1880
I5
sVczsx2fv
p1881
I1
sVdagpa6l
p1882
I1
sVdsklsw5
p1883
I3
sVdb859tf
p1884
I7
sVd2svbpu
p1885
I1
sVd0d5m9j
p1886
I1
sVd1x43lz
p1887
I1
sVd8ns0pr
p1888
I2
sVdrg0pzl
p1889
I3
sVdfwlj57
p1890
I1
sVdb7kky0
p1891
I4
sVdc0er2x
p1892
I2
sVdel5x77
p1893
I2
sVdqivo9k
p1894
I3
sVczworam
p1895
I1
sVdevzi78
p1896
I2
sVd5064un
p1897
I2
sVczco2qm
p1898
I1
sVdrzkwhr
p1899
I1
sVddfgmpo
p1900
I1
sVd2b3h6e
p1901
I1
sVd8ol0rb
p1902
I1
sVdizabg0
p1903
I2
sVd10qtrt
p1904
I1
sVd73ukuq
p1905
I1
sVdnqgdvw
p1906
I1
sVczsnn1g
p1907
I3
sVd8quque
p1908
I7
sVdtjanaq
p1909
I3
sVdiugcxp
p1910
I2
sVd0exnif
p1911
I2
sVdklvhrd
p1912
I1
sVd1r92g0
p1913
I1
sVczligt9
p1914
I1
sVdexdjbh
p1915
I4
sVd5oseur
p1916
I1
sVdqu4cd2
p1917
I3
sVdc6baav
p1918
I1
sVd5p0d4t
p1919
I1
sVdjopqzv
p1920
I1
sVd9zvx1k
p1921
I1
sVd4me08g
p1922
I1
sVdjt04we
p1923
I4
sVd3oo3nq
p1924
I2
sVd1k9z7a
p1925
I3
sVcyneiyi
p1926
I1
sVdduvd79
p1927
I1
sVd0egj3d
p1928
I2
sVdmo1kx8
p1929
I1
sVd8pm7l1
p1930
I2
sVdc6n6ce
p1931
I1
sVdo05exm
p1932
I3
sVd074y99
p1933
I2
sVdmhpp3a
p1934
I1
sVdpqw2s7
p1935
I2
sVdgb69ba
p1936
I1
sVd7o084a
p1937
I1
sVdtftl18
p1938
I1
sVdcfti6d
p1939
I1
sVd01ndq4
p1940
I2
sVczwdnih
p1941
I2
sVdei27vv
p1942
I1
sVdheqg84
p1943
I3
sVdbwr9j0
p1944
I2
sVd1iku4d
p1945
I1
sVd7hzwsi
p1946
I2
sVdfiqyns
p1947
I4
sVd7ygqaq
p1948
I5
sVdjlafk6
p1949
I1
sVdenfsl7
p1950
I2
sVdspbt4w
p1951
I1
sVdmpxaw6
p1952
I2
sVdbgpo80
p1953
I2
sVd2syn2q
p1954
I1
sVdn0j5fx
p1955
I2
sVd9gz2d0
p1956
I1
sVd76c5bb
p1957
I2
sVdouxqhu
p1958
I1
sVdgiv6n0
p1959
I1
sVdochlas
p1960
I1
sVdr8gtic
p1961
I2
sVdbuijp0
p1962
I2
sVd6soea6
p1963
I1
sVdb7ecyq
p1964
I3
sVd1bhxl3
p1965
I1
sVcz4xum1
p1966
I1
sVdj6pkpq
p1967
I3
sVdjl1wu5
p1968
I1
sVd36jycy
p1969
I1
sVd9wy2n7
p1970
I1
sVdnbtrrz
p1971
I2
sVd43avf5
p1972
I1
sVdq36pdr
p1973
I1
sVdfz0a3w
p1974
I1
sVdjv7f7q
p1975
I1
sVdc904a5
p1976
I3
sVd7bcm3l
p1977
I1
sVd2jo89m
p1978
I1
sVd1lqamg
p1979
I1
sVczxvtgx
p1980
I1
sVcyp81od
p1981
I2
sVdhlle55
p1982
I1
sVddq4rxz
p1983
I3
sVddhlhl7
p1984
I1
sVddjo198
p1985
I1
sVd29mvvf
p1986
I1
sVddrqzv2
p1987
I1
sVde1nqwt
p1988
I2
sVczw2a2k
p1989
I1
sVd8bffu4
p1990
I1
sVdcd2ywo
p1991
I1
sVdtdt9dg
p1992
I1
sVda9snwa
p1993
I1
sVdntqt4c
p1994
I4
sVd5y3ljj
p1995
I1
sVd3mjmia
p1996
I1
sVdagffov
p1997
I2
sVdp6dmks
p1998
I2
sVd912p89
p1999
I4
sVdbq6sx6
p2000
I2
sVdfyx3p3
p2001
I1
sVddlgtii
p2002
I13
sVdnpkrbh
p2003
I1
sVdq053x5
p2004
I1
sVd82hwf3
p2005
I1
sVd6sh037
p2006
I1
sVdcq1s93
p2007
I2
sVd4h3x1g
p2008
I2
sVdchl74t
p2009
I6
sVd56ie4f
p2010
I6
sVdb7vf33
p2011
I1
sVdjglxvn
p2012
I3
sVd6h8rgf
p2013
I1
sVd56x80d
p2014
I1
sVdjo6ak2
p2015
I1
sVd5xwdrz
p2016
I3
sVd9rwiq3
p2017
I1
sVdb7mdqh
p2018
I2
sVdmla5ar
p2019
I2
sVd6cfngl
p2020
I1
sVdrz87fz
p2021
I1
sVde75r9x
p2022
I1
sVczaldje
p2023
I4
sVdazflzd
p2024
I2
sVdasilej
p2025
I2
sVd11k2bg
p2026
I1
sVdcqd46v
p2027
I1
sVdiwwl2e
p2028
I2
sVdcu0xbw
p2029
I2
sVczv0h0h
p2030
I8
sVd6e1dkk
p2031
I1
sVd0k4ufa
p2032
I1
sVczwnco0
p2033
I1
sVdew4o35
p2034
I1
sVd5afb0t
p2035
I1
sVdb99aqj
p2036
I2
sVdbeyewm
p2037
I2
sVdbf531v
p2038
I1
sVczcmf4o
p2039
I3
sVdiobxfw
p2040
I2
sVdspovih
p2041
I2
sVd68w7td
p2042
I1
sVdcymyox
p2043
I1
sVdb83g8j
p2044
I2
sVd8v1nkq
p2045
I1
sVdi20uj1
p2046
I2
sVdfj2alr
p2047
I1
sVdat6znr
p2048
I3
sVd9gtiz6
p2049
I1
sVdpmg2l5
p2050
I1
sVdpaxe19
p2051
I11
sVddx6os4
p2052
I1
sVd19mapj
p2053
I6
sVdmka78m
p2054
I3
sVdeaeuw7
p2055
I2
sVdtemwxu
p2056
I1
sVdq5fq76
p2057
I1
sVd32nnyb
p2058
I2
sVd9grsfv
p2059
I1
sVd3na71g
p2060
I2
sVdgqch1i
p2061
I1
sVdpeorsx
p2062
I1
sVczs3adn
p2063
I1
sVd3r08zo
p2064
I1
sVdej6yi6
p2065
I3
sVd3o7mjt
p2066
I1
sVczhl6o9
p2067
I1
sVdhub8ue
p2068
I5
sVd0g6mhf
p2069
I1
sVd902urc
p2070
I1
sVdc91yfr
p2071
I2
sVd3sflh5
p2072
I1
sVcylkvlc
p2073
I3
sVdooj0yp
p2074
I1
sVdfb4kam
p2075
I1
sVdc5cilv
p2076
I1
sVdnpld7h
p2077
I1
sVd8usmtt
p2078
I2
sVcz0q6ef
p2079
I2
sVdi9wcrn
p2080
I1
sVd9v2sn9
p2081
I1
sVd3w0gqd
p2082
I2
sVd3wpui2
p2083
I12
sVdi54hsc
p2084
I7
sVdapa4gd
p2085
I1
sVd91q08f
p2086
I3
sVd1vjwuc
p2087
I2
sVd4uyeus
p2088
I2
sVd6dgenk
p2089
I1
sVd5cwq0h
p2090
I1
sVdevwam9
p2091
I1
sVdmel45v
p2092
I2
sVd0tjeel
p2093
I1
sVdjzdbls
p2094
I1
sVdsjzttu
p2095
I3
sVdmuaaw1
p2096
I1
sVdiod63u
p2097
I2
sVdj6w9py
p2098
I2
sVd26i7b9
p2099
I1
sVdooznyy
p2100
I3
sVdgbnjp1
p2101
I2
sVdqppzmg
p2102
I2
sVd4p3p8n
p2103
I2
sVd73owhy
p2104
I1
sVdf84yn1
p2105
I1
sVdasy57q
p2106
I1
sVdhxfa50
p2107
I1
sVd1b1eme
p2108
I1
sVdpaxxtu
p2109
I2
sVd41zyfj
p2110
I1
sVdave287
p2111
I4
sVdcldbl1
p2112
I1
sVdjlbx0i
p2113
I1
sVdcbagi6
p2114
I2
sVd0d3igo
p2115
I1
sVd3aicpb
p2116
I1
sVd41160j
p2117
I1
sVdhd8yr0
p2118
I1
sVd1hgx8d
p2119
I1
sVdewy8lk
p2120
I2
sVczg7ajz
p2121
I1
sVd4m5tl7
p2122
I1
sVdkyrr9d
p2123
I1
sVczt7ybl
p2124
I1
sVczxbp4e
p2125
I1
sVd7d1krs
p2126
I1
sVdq5zp82
p2127
I4
sVdppt59f
p2128
I2
sVdhn5ln8
p2129
I1
sVdnbr877
p2130
I1
sVdhdau4y
p2131
I2
sVd4kis92
p2132
I1
sVdj20n97
p2133
I2
sVd4e4snj
p2134
I2
sVd284dwe
p2135
I1
sVdmo4zv9
p2136
I1
sVcyrppui
p2137
I1
sVd4h3vs1
p2138
I1
sVdn2sog6
p2139
I1
sVdpr8gj6
p2140
I1
sVdcq7iqo
p2141
I8
sVda7fj89
p2142
I1
sVdjlng2l
p2143
I1
sVd2oo6a8
p2144
I2
sVd2qkycb
p2145
I1
sVd02528h
p2146
I1
sVdpkq6bo
p2147
I5
sVd8hgt7i
p2148
I1
sVd1mgtx2
p2149
I1
sVdbbrhwu
p2150
I2
sVd97x6sz
p2151
I1
sVdqo5sri
p2152
I1
sVczt9z62
p2153
I1
sVdivh466
p2154
I1
sVd731nae
p2155
I1
sVd79hdox
p2156
I7
sVdkelx4p
p2157
I1
sVd0xyqej
p2158
I1
sVd5d1r3n
p2159
I3
sVd60oy8u
p2160
I2
sVd6kjdyb
p2161
I1
sVd5da1w1
p2162
I2
sVdbeiqeg
p2163
I1
sVdq05mab
p2164
I1
sVdg8owhu
p2165
I1
sVdjl3y9y
p2166
I1
sVdbhohpy
p2167
I1
sVd6efelu
p2168
I3
sVdp6ye3x
p2169
I1
sVdpogyot
p2170
I1
sVdkpcab2
p2171
I1
sVdtetkec
p2172
I1
sVdoqd9lt
p2173
I1
sVdfnj03x
p2174
I1
sVdf7ua1r
p2175
I6
sVd4pkyfm
p2176
I2
sVddlzlrm
p2177
I1
sVdk4tie0
p2178
I1
sVdseiosl
p2179
I2
sVdsiyohi
p2180
I3
sVdteyyun
p2181
I1
sVdfymwlj
p2182
I2
sVd3o7qgk
p2183
I1
sVczw5acc
p2184
I5
sVd0v1k8v
p2185
I11
sVd62pqoa
p2186
I2
sVd23vfsa
p2187
I1
sVczw872l
p2188
I1
sVdgsjh4z
p2189
I1
sVd98kxzw
p2190
I1
sVcz4vzrz
p2191
I1
sVdbhq2yt
p2192
I7
sVd2hhmo0
p2193
I1
sVd5nlgpb
p2194
I3
sVd1fjqh9
p2195
I1
sVd74o1vx
p2196
I1
sVdkp2yoz
p2197
I1
sVd1lkc0y
p2198
I2
sVdpxd7au
p2199
I1
sVdinpd3p
p2200
I1
sVdghaaug
p2201
I1
sVdok9gx7
p2202
I1
sVdh8efys
p2203
I1
sVd3g3u9h
p2204
I5
sVd4p3qbv
p2205
I1
sVdqnk7yh
p2206
I1
sVd2je9k0
p2207
I2
sVdh51naz
p2208
I1
sVd2ct8qh
p2209
I4
sVd0800b5
p2210
I1
sVdej4j7z
p2211
I1
sVdq9yvtl
p2212
I1
sVd9o51o0
p2213
I1
sVd4aq64j
p2214
I1
sVczfi2eh
p2215
I1
sVcyhvant
p2216
I1
sVd1m6b32
p2217
I3
sVd0lsx63
p2218
I1
sVdj619jq
p2219
I1
sVdpcnll1
p2220
I2
sVczkbanw
p2221
I4
sVdjra94s
p2222
I1
sVdkkhgbj
p2223
I2
sVd62qwcy
p2224
I1
sVczy2uot
p2225
I1
sVcys7jw1
p2226
I1
sVdfg6ad1
p2227
I2
sVdsq6h01
p2228
I1
sVd4tlpwq
p2229
I1
sVdkj40nf
p2230
I1
sVd47dmmu
p2231
I1
sVdb7ulkj
p2232
I1
sVde3skog
p2233
I2
sVdgbn41g
p2234
I6
sVd2s9u28
p2235
I1
sVdfqg79a
p2236
I2
sVd75avc3
p2237
I1
sVdsq4n4h
p2238
I2
sVdc944mw
p2239
I1
sVd0qe9xl
p2240
I1
sVdt390js
p2241
I1
sVdi0etkw
p2242
I7
sVdkrjva7
p2243
I1
sVdnvtdb1
p2244
I1
sVdg7rb3r
p2245
I2
sVdbwrvbb
p2246
I1
sVd0zvky4
p2247
I1
sVdawzd1x
p2248
I1
sVdfgiq9p
p2249
I1
sVczr8nxi
p2250
I1
sVdelaf8e
p2251
I1
sVdi6a3vf
p2252
I2
sVczxeyc4
p2253
I3
sVdh4y7cq
p2254
I1
sVdnb2efk
p2255
I1
sVdemsfqn
p2256
I1
sVdg4y59m
p2257
I1
sVdpawqii
p2258
I6
sVdpax4yg
p2259
I12
sVdgeafm0
p2260
I1
sVdje7266
p2261
I1
sVdizqqnx
p2262
I1
sVd5q6l07
p2263
I3
sVdc3a7a8
p2264
I2
sVd2sonwl
p2265
I2
sVd0tk3tl
p2266
I1
sVcyiafxx
p2267
I7
sVdg148p0
p2268
I2
sVd9r9qlt
p2269
I2
sVd4n7yyn
p2270
I1
sVdj1sdgr
p2271
I1
sVd380bgv
p2272
I2
sVd3g96od
p2273
I1
sVcyjhsuf
p2274
I3
sVd0brbfs
p2275
I2
sVd6elsyo
p2276
I2
sVdd953lr
p2277
I1
sVdfi7tb7
p2278
I2
sVd9uy4i5
p2279
I2
sVczwidyr
p2280
I2
sVd22omsu
p2281
I1
sVdoj6qzh
p2282
I2
sVda1c5jf
p2283
I1
sVdc5n5pu
p2284
I1
sVd62iluk
p2285
I2
sVdcgk6f6
p2286
I1
sVd8uxilk
p2287
I2
sVd1fh8vn
p2288
I3
sVdda97qa
p2289
I2
sVd2y72n6
p2290
I1
sVdq35sis
p2291
I1
sVcz0qptg
p2292
I1
sVczqix0j
p2293
I1
sVdcpp8wv
p2294
I1
sVd3azp2q
p2295
I3
sVdcdgrko
p2296
I4
sVdo3qj52
p2297
I3
sVd9d0xif
p2298
I7
sVcyu5q9d
p2299
I2
sVd5esnhb
p2300
I1
sVdnkx4ls
p2301
I1
sVdmnhztc
p2302
I3
sVd8d7y54
p2303
I1
sVdi8r7rd
p2304
I1
sVddnxtjk
p2305
I1
sVdkyr8zs
p2306
I1
sVczwl11e
p2307
I4
sVd1tma43
p2308
I1
sVd2xlbcw
p2309
I2
sVd5q6pqr
p2310
I2
sVdbvpyfs
p2311
I1
s.