(dp0
Vdj8hwek
p1
I1
sVczpc031
p2
I1
sVdi7m9v0
p3
I1
sVdqrw4za
p4
I1
sVdivkg8n
p5
I1
sVda4b7qc
p6
I1
sVczzozz2
p7
I1
sVdghxtd0
p8
I1
sVdnkt5yf
p9
I2
sVd78xghz
p10
I1
sVd5ppqyj
p11
I1
sVd89k1e3
p12
I1
sVdjppx6k
p13
I1
sVdepw2dg
p14
I1
sVdkhl6iy
p15
I1
sVd477ruy
p16
I1
sVdg93lvy
p17
I1
sVczmt6f1
p18
I1
sVdmmbowb
p19
I1
sVdggl5z6
p20
I1
sVdq2z895
p21
I1
sVd12sm5j
p22
I1
sVdqaa5ii
p23
I1
sVcystuud
p24
I1
sVdha4zqz
p25
I2
sVdotjgzy
p26
I1
sVd00k8yx
p27
I1
sVda73i3y
p28
I1
sVdgs6g2m
p29
I1
sVdb4uoe6
p30
I2
sVd5u0y9q
p31
I1
sVde5resn
p32
I1
sVdsewnwr
p33
I1
sVd43n3mh
p34
I1
sVcz0qb0d
p35
I1
sVdejg2pu
p36
I1
sVd7sm3ec
p37
I2
sVdkqcvh3
p38
I1
sVdnvnk99
p39
I1
sVdp6yzi6
p40
I1
sVdf90qmj
p41
I1
sVd6bea78
p42
I1
sVddyjoos
p43
I1
sVdfaemyk
p44
I1
sVdf8en2q
p45
I1
sVdh2j169
p46
I1
sVdc0t8s4
p47
I1
sVdiybfry
p48
I1
sVd2oo2fq
p49
I1
sVd5sxr7c
p50
I1
sVdnwtskx
p51
I1
sVd44wsii
p52
I1
sVd9w3y24
p53
I1
sVd4p2vvb
p54
I1
sVdqcgk3p
p55
I1
sVdh0uhaf
p56
I1
sVd26gthx
p57
I1
sVdfkfvrm
p58
I1
sVczgidzi
p59
I1
sVdon12ql
p60
I2
sVd152wrs
p61
I1
sVdjg3t92
p62
I1
sVcz809nb
p63
I1
sVda5rp9q
p64
I1
sVd1fhlv6
p65
I1
sVd9fvl0w
p66
I1
sVday0gbh
p67
I1
sVdrek8e0
p68
I1
sVdqkeeav
p69
I1
sVdjljk5r
p70
I1
sVdhjepju
p71
I1
sVd5i4lpc
p72
I1
sVd7z5c1f
p73
I1
sVczh3z30
p74
I1
sVdfo0tzp
p75
I1
sVd2j7ifr
p76
I1
sVd6ehw9w
p77
I1
sVdd8ozvv
p78
I1
sVd8nrt60
p79
I1
sVd6fxcws
p80
I2
sVdti8wx6
p81
I1
sVdcjr76g
p82
I1
sVd32pf1p
p83
I1
sVdd8z8fx
p84
I1
sVdgcjol5
p85
I1
sVddwi07e
p86
I1
sVdcyty4u
p87
I1
sVd4eydtu
p88
I1
sVdd2nz28
p89
I1
sVde66njn
p90
I1
sVd9r54m3
p91
I1
sVddutyad
p92
I1
sVcyyefwe
p93
I1
sVd5c8ij1
p94
I1
sVdd39srg
p95
I1
sVczeyu3b
p96
I1
sVcyiaq90
p97
I1
sVd6djgke
p98
I1
sVczbxspo
p99
I1
sVd23jrt0
p100
I1
sVdimdr5o
p101
I1
sVcyn8tqk
p102
I1
sVdpnsglj
p103
I1
sVden1wxt
p104
I1
sVddphytk
p105
I1
sVda8so8y
p106
I1
sVd27yy8p
p107
I1
sVdhvf138
p108
I1
sVdgnr9tf
p109
I1
sVdf1beno
p110
I1
sVd2a8ed1
p111
I1
sVd2cru9a
p112
I1
sVd25wxif
p113
I2
sVd0j2t5b
p114
I1
sVdqfmtqo
p115
I1
sVd79qf78
p116
I1
sVd5yrb20
p117
I2
sVdf3oye6
p118
I1
sVdqr1lek
p119
I1
sVdaawown
p120
I1
sVdny4haa
p121
I1
sVd0smvyc
p122
I1
sVd0ociff
p123
I1
sVd487cyd
p124
I1
sVda6xxjp
p125
I1
sVd210ajf
p126
I1
sVd47w0wh
p127
I1
sVd2to0ue
p128
I1
sVd7hzkq7
p129
I1
sVdfim9l6
p130
I1
sVd0l32n2
p131
I1
sVd8nnkoe
p132
I1
sVd9jvgck
p133
I1
sVdco7ok1
p134
I1
sVdjfsmsc
p135
I1
sVdhgbcp5
p136
I1
sVd61n74m
p137
I2
sVdbiqap4
p138
I1
sVd84uuxr
p139
I1
sVd0sko16
p140
I1
sVdpnzspl
p141
I1
sVd80b0na
p142
I1
sVd02cwvh
p143
I1
sVd382yw2
p144
I1
sVdr0qqwf
p145
I1
sVd9h71g6
p146
I1
sVdmr43zw
p147
I1
sVd0cg8n0
p148
I1
sVdrkb1k0
p149
I2
sVdblryjp
p150
I1
sVdpslis6
p151
I1
sVd9g8xu6
p152
I1
sVdrt7tmr
p153
I1
sVdcjfrx8
p154
I1
sVdka8fvp
p155
I1
sVczwir7w
p156
I1
sVd27giwx
p157
I1
sVdn50o5y
p158
I1
sVdcuhllu
p159
I1
sVd0c1zf5
p160
I1
sVcyoz50g
p161
I1
sVd1xlk4q
p162
I1
sVd1jcobb
p163
I1
sVd1ru64f
p164
I1
sVd70w5pp
p165
I1
sVdqdorpn
p166
I1
sVd28u65v
p167
I2
sVd5ppg1k
p168
I1
sVdo4c77x
p169
I1
sVdc4dhoy
p170
I1
sVdbev5yx
p171
I1
sVdo36gvw
p172
I1
sVd82njb5
p173
I1
sVdhjokd3
p174
I1
sVdr2w0to
p175
I1
sVd2a3s53
p176
I1
sVdai6izk
p177
I1
sVdd4k95s
p178
I1
sVdhu3o80
p179
I1
sVd80an3e
p180
I1
sVd2hputw
p181
I1
sVd35fkym
p182
I3
sVczbiek6
p183
I1
sVdifsq00
p184
I1
sVd1ax82o
p185
I1
sVdaie7tp
p186
I1
sVd2vcn9e
p187
I1
sVd6iyb15
p188
I1
sVdkdrfvp
p189
I1
sVd33vq9x
p190
I1
sVdp7db6r
p191
I1
sVd5ck590
p192
I1
sVczarwdk
p193
I1
sVczto683
p194
I1
sVdgtstoy
p195
I1
sVdk79zdk
p196
I1
sVdamfi16
p197
I1
sVdrkh45u
p198
I1
sVdqeu9fn
p199
I1
sVcz8n9zj
p200
I1
sVdcnme6q
p201
I1
sVdcgh205
p202
I1
sVdq5yaic
p203
I1
sVdkbio99
p204
I1
sVdp8nlt6
p205
I1
sVcyvz80o
p206
I1
sVdccpu23
p207
I1
sVdcjdyeh
p208
I1
sVd19ivsm
p209
I1
sVd5763b2
p210
I1
sVd9qnnrx
p211
I1
sVdnv688p
p212
I1
sVdbki3vs
p213
I1
sVd0oxktc
p214
I1
sVdqr58vq
p215
I1
sVczxnhdw
p216
I1
sVdo5edc8
p217
I1
sVdjrblqy
p218
I1
sVdn5fgqn
p219
I1
sVd7ysiyq
p220
I1
sVdmesxdo
p221
I1
sVdnyxmyz
p222
I1
sVdmki55k
p223
I1
sVdrrbl6k
p224
I1
sVd4ynw8q
p225
I1
sVdj3l3ko
p226
I1
sVdbvi6hf
p227
I1
sVdba1bsj
p228
I1
sVd5t96rp
p229
I1
sVdbvnxib
p230
I1
sVdkj08qi
p231
I1
sVdg7bnat
p232
I2
sVdn0u4gu
p233
I2
sVcyv4sle
p234
I1
sVdggwz5k
p235
I1
sVdrpmccs
p236
I1
sVdmo42d5
p237
I1
sVdi0u2it
p238
I1
sVczvjjjz
p239
I1
sVd7ha8qw
p240
I1
sVdex8qi5
p241
I1
sVczpl57m
p242
I1
s.