(dp0
Vd5yd85x
p1
I1
sVde3ptnz
p2
I1
sVdjrhshy
p3
I1
sVd1y2tkp
p4
I1
sVd5e4p6t
p5
I1
sVdqc2ztf
p6
I1
sVd1jbw82
p7
I1
sVdmvixk2
p8
I1
sVdcclggr
p9
I1
sVdbc941r
p10
I1
sVdd9qils
p11
I1
sVdkvu04f
p12
I1
sVdmpvn6m
p13
I1
sVdellsra
p14
I1
sVczasy7t
p15
I1
sVcz01ob4
p16
I1
sVd718zm7
p17
I1
sVd65ck0w
p18
I1
sVd33of9i
p19
I1
sVds2gngu
p20
I1
sVd6d2mzp
p21
I1
sVd56x54e
p22
I1
sVczyxn5m
p23
I1
sVd8jixww
p24
I1
sVd5a5o65
p25
I1
sVd3xd7sh
p26
I1
sVd8lo96c
p27
I1
sVdtalb6b
p28
I1
sVd43moky
p29
I1
sVdaio9uu
p30
I1
sVdcmnpun
p31
I1
sVdbaq9kk
p32
I1
sVd8hhgee
p33
I1
s.