(dp0
Vcz55x6l
p1
I1
s.(dp0
Vczr0wuw
p1
I1
sVcz55x6l
p2
I1
s.(dp0
Vczze3ge
p1
I1
sVcz55x6l
p2
I1
s.(dp0
Vd472589
p1
I1
sVcz55x6l
p2
I1
s.(dp0
Vd6sxrvv
p1
I1
sVcz55x6l
p2
I1
s.(dp0
Vcz55x6l
p1
I1
sVd6t4e5t
p2
I1
s.(dp0
Vd7650vf
p1
I1
sVcz55x6l
p2
I1
s.(dp0
Vd9028zd
p1
I1
sVcz55x6l
p2
I1
s.(dp0
Vcz55x6l
p1
I1
sVdbuzf1x
p2
I1
s.(dp0
Vdcymyox
p1
I1
sVcz55x6l
p2
I1
s.(dp0
Vdexo079
p1
I1
sVcz55x6l
p2
I1
s.(dp0
Vdh2q2im
p1
I1
sVcz55x6l
p2
I1
s.(dp0
Vdhri7mz
p1
I1
sVcz55x6l
p2
I1
s.(dp0
Vcz55x6l
p1
I1
sVdhxq7nb
p2
I1
s.(dp0
Vdj0oy0q
p1
I1
sVcz55x6l
p2
I1
s.