(dp0
Vd7c5ya4
p1
I1
sVd790zr9
p2
I1
sVd1dzgzt
p3
I1
sVd6suotl
p4
I1
sVde2ajbj
p5
I1
sVd4tbt6r
p6
I1
sVdr24aka
p7
I1
sVdrujlly
p8
I2
sVdjzpo0t
p9
I1
sVdbegvvo
p10
I2
sVdsxz98w
p11
I1
sVdmrdnd0
p12
I1
sVd7clu0t
p13
I1
sVd0jcoaq
p14
I1
sVd3n8kop
p15
I1
sVd691m8p
p16
I1
sVdqsdj73
p17
I1
sVds5ia90
p18
I1
sVdp5ef4d
p19
I1
sVd7x44wo
p20
I1
sVdqka3em
p21
I1
sVdhxab8s
p22
I1
sVd84i50b
p23
I1
sVdpldstq
p24
I1
sVddnn4sh
p25
I1
sVdahxnhx
p26
I1
sVdk3fja3
p27
I1
sVd547c1e
p28
I3
sVdg7t5iw
p29
I1
sVd67v8yn
p30
I1
sVdct0vj3
p31
I1
sVd3uxvjg
p32
I1
sVd9kfeov
p33
I1
sVdbxz3x0
p34
I2
sVd2sskep
p35
I1
sVdef8v2j
p36
I1
sVcyi3kuv
p37
I1
sVdrzp66l
p38
I1
sVddqs4b9
p39
I1
sVdcdhx9w
p40
I1
sVd0uu1ok
p41
I2
sVddpxqdq
p42
I1
sVdhs7hqj
p43
I1
sVd0y0plh
p44
I1
sVd03g03s
p45
I1
sVdkhloyj
p46
I4
sVd88g3n4
p47
I1
sVd5zas1g
p48
I1
sVczn9ct1
p49
I2
sVdea9g0e
p50
I1
sVd4wy3yi
p51
I1
sVd2qqoap
p52
I2
sVd076xt2
p53
I1
sVd8f2zii
p54
I1
sVd541kks
p55
I1
sVd51ypz9
p56
I1
sVdizhupo
p57
I1
sVd8khkv8
p58
I1
sVd0ibk6s
p59
I1
sVdb4n9ir
p60
I1
sVd1k5biu
p61
I1
sVdgc8ugt
p62
I1
sVdfaemyk
p63
I1
sVdh38g2d
p64
I2
sVd7z75jz
p65
I1
sVd3bwcqd
p66
I1
sVdmlo6fv
p67
I1
sVdb1cwea
p68
I1
sVdkmbz3l
p69
I1
sVdkobp1z
p70
I1
sVd9dme6q
p71
I1
sVdb1olqe
p72
I1
sVd7wuiq5
p73
I1
sVcz8277i
p74
I1
sVdsr0nax
p75
I1
sVd9gkw6h
p76
I1
sVdc4ipxm
p77
I2
sVdbz7x9x
p78
I1
sVd0hd470
p79
I1
sVdc61fo7
p80
I1
sVdaq1uvp
p81
I1
sVd5u5zos
p82
I1
sVcza5qpj
p83
I1
sVd4bsh9u
p84
I1
sVd21s424
p85
I1
sVcyq0323
p86
I1
sVcyjq3a7
p87
I1
sVdbewzk1
p88
I1
sVdc4fg5o
p89
I1
sVd67hz1g
p90
I1
sVd4u1gbi
p91
I1
sVdqs4f2u
p92
I1
sVd50avq5
p93
I1
sVdrxegr1
p94
I1
sVd2rbt0y
p95
I1
sVdrz1vht
p96
I1
sVdhitj6c
p97
I1
sVdstp80j
p98
I1
sVddrysqd
p99
I1
sVd8t46p2
p100
I1
sVdjqi69z
p101
I1
sVd03k7wz
p102
I2
sVd8ahmhr
p103
I1
sVdi9yprp
p104
I1
sVd4wc5ar
p105
I1
sVdiaphd9
p106
I1
sVd4i1nzb
p107
I1
sVdil7osw
p108
I1
sVd0asxjh
p109
I1
sVdqqrrsa
p110
I1
sVd3kjsn3
p111
I1
sVczkhai5
p112
I1
sVdqplpkw
p113
I1
sVdblgbw2
p114
I1
sVd9okz6c
p115
I1
sVdia3t9o
p116
I1
sVd7lh4h8
p117
I1
sVd7ahnlz
p118
I1
sVde2f3yt
p119
I1
sVdf4f3eq
p120
I1
sVd9atk5r
p121
I4
sVd7i2sdr
p122
I1
sVdonhf6f
p123
I1
sVdilq2jv
p124
I1
sVcytcfa7
p125
I1
sVd9b55fe
p126
I1
sVdo2xh2n
p127
I1
sVd73qbgb
p128
I1
sVdhtrbd2
p129
I1
sVd0askpf
p130
I1
sVdepnrvq
p131
I1
sVd1rdf04
p132
I1
sVd7apg1v
p133
I1
sVdfot6hz
p134
I1
sVdkl42c5
p135
I1
sVdhwhy9j
p136
I1
sVdcyvve1
p137
I1
sVczjr672
p138
I1
sVdh0fdh9
p139
I1
sVdn1h1ec
p140
I2
sVdnotc8i
p141
I1
sVd7czx7d
p142
I1
sVd8pt3lz
p143
I1
sVd34nqqx
p144
I1
sVdi9mlle
p145
I1
sVdav7zfx
p146
I1
sVdsuwxp6
p147
I1
sVddctgpi
p148
I2
sVd0en9st
p149
I1
sVd8vbtm9
p150
I1
sVdjnx627
p151
I1
sVd3x9ore
p152
I1
sVd83uvsc
p153
I1
sVd6jf01w
p154
I2
sVdmm2r31
p155
I1
sVdjjy6xg
p156
I1
sVcytqotd
p157
I1
sVd1yuqu8
p158
I1
sVd4upq95
p159
I1
sVdjaixux
p160
I1
sVd4kx4ws
p161
I1
sVdsd3bpn
p162
I1
sVczn72b9
p163
I1
sVd88rnhn
p164
I1
sVdfi2fyo
p165
I1
sVdbi8s5a
p166
I2
sVdmz7gdj
p167
I1
sVd6g5w4u
p168
I1
sVddccqm5
p169
I1
sVdae1dg4
p170
I1
sVdrab2ah
p171
I3
sVdah6aey
p172
I1
sVd5381pz
p173
I1
sVd126svx
p174
I1
sVdp6nars
p175
I1
sVd6gqs5y
p176
I1
sVdjn2q77
p177
I1
sVczzmcwb
p178
I1
sVdgc9zf2
p179
I1
sVd8och87
p180
I1
sVdha7w4k
p181
I1
sVday7kva
p182
I1
sVd474g3c
p183
I1
sVdidjwtw
p184
I1
sVd31e3p3
p185
I1
sVdirgzuv
p186
I1
sVcyt1dnt
p187
I1
sVd4ww3hs
p188
I1
sVcztq528
p189
I1
sVd9l3cko
p190
I1
sVczzvejk
p191
I2
sVdkoc2m1
p192
I1
sVdpqn2t0
p193
I1
sVdno0r6i
p194
I1
sVd7gznc0
p195
I1
sVd0kl6kn
p196
I1
sVddgqvsn
p197
I1
sVczkcsjd
p198
I1
sVd37zeuc
p199
I1
sVd8e57cs
p200
I1
sVdff3ar6
p201
I1
sVd1zc9r3
p202
I1
sVdfwyh6f
p203
I1
sVd4sahwl
p204
I1
sVd4omwcy
p205
I1
sVd6r4a2n
p206
I1
sVd0oe8t4
p207
I1
sVdru4elr
p208
I1
sVdifqt6r
p209
I2
sVd6cxs7p
p210
I1
sVdfdzis3
p211
I1
sVd0fi4uo
p212
I1
sVdgs1nhw
p213
I1
sVd5rtuf9
p214
I1
sVd2az1xy
p215
I1
sVdd19e4v
p216
I1
sVd3msc9c
p217
I1
sVd29unvf
p218
I1
sVdn7qzgu
p219
I1
sVd2x2tmt
p220
I1
sVd7do9qw
p221
I1
sVd2y8uf4
p222
I1
sVd0ytrmq
p223
I1
sVd3j8dtt
p224
I2
sVdh8iocu
p225
I1
sVcz2cjul
p226
I1
sVd4fjcxm
p227
I1
sVd50z3ia
p228
I1
sVddf8ury
p229
I1
sVdd740jw
p230
I1
sVdb6wqo0
p231
I1
sVcznqsj7
p232
I1
sVd6ydl5g
p233
I1
sVd7z9hjs
p234
I1
sVdq12wmh
p235
I1
sVcz0841y
p236
I1
sVdskr40k
p237
I1
sVdfnq7sx
p238
I1
sVdnul7se
p239
I1
sVdmfoiu8
p240
I1
sVd1zto0g
p241
I1
sVdfdok7r
p242
I2
sVd7k0t6i
p243
I1
sVd84k0il
p244
I1
sVd8v45bn
p245
I1
sVcz9yxzj
p246
I1
sVd1ur7en
p247
I1
sVd417hpm
p248
I1
sVddwcic1
p249
I1
sVd36gjz8
p250
I1
sVczwft1n
p251
I1
sVdkkb7ls
p252
I1
sVdea08op
p253
I1
sVd2zudb3
p254
I2
sVd3lpzxt
p255
I1
sVd3nuni3
p256
I1
sVd7nf7mi
p257
I1
sVd1axjpg
p258
I1
sVddixzyu
p259
I2
sVdeaht0m
p260
I2
sVd8nmkvu
p261
I1
sVdfgsvb4
p262
I1
sVddaaas9
p263
I1
sVdk97ttc
p264
I1
sVdcdldwe
p265
I1
sVdamahfy
p266
I1
sVdh68rry
p267
I1
sVdb5k5ic
p268
I1
sVd1ceoqr
p269
I2
sVdn7dk82
p270
I1
sVd15egv7
p271
I1
sVd36ydjh
p272
I1
sVd3gylj3
p273
I1
sVds2bpdv
p274
I1
sVdknd6uz
p275
I1
sVd5rfsm8
p276
I1
sVdepm1ho
p277
I1
sVdd19km6
p278
I1
sVdkqt70q
p279
I1
sVdqhty4u
p280
I1
sVdat93y3
p281
I1
sVdo1p6v6
p282
I1
sVd5q5d9c
p283
I1
sVdd964sf
p284
I1
sVdcx889e
p285
I1
sVd2hye4y
p286
I1
sVdby62dp
p287
I1
sVd2m1ck8
p288
I1
sVcz1zbly
p289
I1
sVddqw07y
p290
I1
sVdqnkfde
p291
I1
sVdd30bgf
p292
I1
sVdiyvoau
p293
I1
sVdeeyczm
p294
I1
sVd16yjml
p295
I1
sVddu3dau
p296
I1
sVdfs1o9w
p297
I1
sVd35qw75
p298
I1
sVdns7qhp
p299
I1
sVdi9oilz
p300
I1
sVd28wzjd
p301
I1
sVdjtv81h
p302
I1
sVdnik9v0
p303
I1
sVdpwkx84
p304
I2
sVdeplzpd
p305
I1
sVd5p1xp7
p306
I1
sVdhzpps0
p307
I1
sVddf6tzb
p308
I1
sVd7w77lw
p309
I1
sVdkr68uw
p310
I1
sVdbh2k53
p311
I1
sVd5drzpo
p312
I1
sVd4vj5e0
p313
I1
sVdd6s7w9
p314
I1
sVcyjwdan
p315
I1
sVd8dmmpk
p316
I2
sVdfetdu6
p317
I1
sVd8tni4h
p318
I1
sVd7l5rf8
p319
I1
sVdgyt59l
p320
I1
sVdg3hb05
p321
I1
sVdauyt4n
p322
I1
sVdjbet4v
p323
I1
sVdqzq83x
p324
I1
sVd6poqd5
p325
I1
sVda8z855
p326
I1
sVczgy3k3
p327
I1
sVddjbyaq
p328
I1
sVdpf4yhq
p329
I1
sVd1l9qtt
p330
I1
sVd3863c9
p331
I1
sVd9blauh
p332
I1
sVd2hotlu
p333
I1
sVd2a5qag
p334
I1
sVd435niq
p335
I1
sVd6zuy62
p336
I1
sVda2rsvp
p337
I1
sVd7vch00
p338
I2
sVdj8vrtj
p339
I1
sVd2stmkj
p340
I4
sVd3i0b6f
p341
I1
sVd8p8mmz
p342
I1
sVda32fax
p343
I1
sVd5im2m3
p344
I1
sVd7c8ktq
p345
I1
sVd4s7a20
p346
I1
sVdgtpvz7
p347
I1
sVdnbmp63
p348
I1
sVdcg6xop
p349
I1
sVd6er9v9
p350
I1
sVdgv76hb
p351
I1
sVd5mgzd8
p352
I1
sVdry2z95
p353
I1
sVdisoc12
p354
I1
sVd36ci8y
p355
I1
sVd1xqlu2
p356
I1
sVde7u8an
p357
I1
sVdahhaii
p358
I1
sVdjb9xt3
p359
I1
sVcynqnpz
p360
I1
sVdjrpwjd
p361
I1
sVd2svr3o
p362
I1
sVdj8qqkt
p363
I1
sVdcgm2cn
p364
I1
sVd1rwlip
p365
I1
sVdrp1l12
p366
I1
sVdej7hqe
p367
I1
sVdc0l3e8
p368
I3
sVd5vhpdy
p369
I1
sVdcu7hbt
p370
I1
sVd72ijnl
p371
I1
sVdhfn3ef
p372
I2
sVdgmfmpt
p373
I1
sVdecz1gs
p374
I1
sVd0939um
p375
I1
sVczds0ft
p376
I1
sVd2jfmrr
p377
I1
sVdeuuw0j
p378
I1
sVdqmlh74
p379
I1
sVd4ounux
p380
I1
sVdpq7ln3
p381
I1
sVdkm660n
p382
I1
sVdf08ckc
p383
I1
sVdka9as5
p384
I1
sVdhprsn4
p385
I1
sVdfgsh80
p386
I1
sVd40snd0
p387
I1
sVd0ydlss
p388
I1
sVd9427x0
p389
I1
sVdr98ifz
p390
I1
sVdnz6c8n
p391
I1
sVdh7qyff
p392
I1
sVdbmijaw
p393
I1
sVdc2e771
p394
I1
sVdj4e4bx
p395
I1
sVd0qwcde
p396
I1
sVczyox62
p397
I1
sVdbpu495
p398
I1
sVdbgve56
p399
I1
sVd58fjdq
p400
I1
sVd4zsktv
p401
I1
sVd44ocu7
p402
I1
sVdp204ov
p403
I1
sVczjgs0z
p404
I1
sVdg3jgct
p405
I1
sVd0j8h32
p406
I1
sVd3e2x2h
p407
I1
sVdi4a846
p408
I1
sVd1vb6qj
p409
I1
sVdenkqs3
p410
I1
sVd9b8jok
p411
I1
sVdmhf2d8
p412
I1
sVdkjv1r3
p413
I1
sVdh9yw2m
p414
I1
sVdb28ndo
p415
I1
sVdos1v4k
p416
I1
sVd1v0mk6
p417
I1
sVd11ldxt
p418
I1
sVdbem5ja
p419
I1
sVd7mq8f5
p420
I1
sVdbwx645
p421
I1
sVdiioham
p422
I1
sVd07yxe0
p423
I1
sVds0f7hy
p424
I1
sVd2p2b7l
p425
I1
sVd1pj7o1
p426
I1
sVdmfr560
p427
I1
sVd8nhppw
p428
I1
sVdorl3yt
p429
I1
sVdjci5np
p430
I1
sVd5hm4yx
p431
I1
sVdkqi9oo
p432
I1
sVcz5b4y6
p433
I2
sVdpyhy8z
p434
I1
sVdflf4gu
p435
I1
sVd0t72pn
p436
I1
sVdos7f60
p437
I1
sVd70i8ad
p438
I1
sVd7ywys4
p439
I1
sVd18fncm
p440
I1
sVd7crgxj
p441
I1
sVdkc6wzm
p442
I1
sVdizpv1b
p443
I2
sVdh15zpm
p444
I1
sVdjdgeby
p445
I1
sVdaucuqf
p446
I2
sVdczo38t
p447
I1
sVczlz515
p448
I1
sVczu9lvb
p449
I1
sVdg4fczb
p450
I1
sVdnsfxw8
p451
I1
sVd00idpa
p452
I1
sVd1ugifw
p453
I1
sVd21rqdj
p454
I1
sVdmp4y2e
p455
I1
sVdf9ooth
p456
I1
sVd81cwrp
p457
I1
sVd55gs9m
p458
I1
sVdrgzugu
p459
I1
sVdogd0wg
p460
I1
sVd2dxid8
p461
I1
sVd54soeo
p462
I2
sVczqtu6n
p463
I1
sVdctz95n
p464
I1
sVdg5yg5x
p465
I1
sVd9aage9
p466
I1
sVd326d2m
p467
I1
sVczo3czv
p468
I1
sVcywsw8s
p469
I1
sVd1d9b1u
p470
I2
sVddavqa7
p471
I2
sVdc5l4vg
p472
I1
sVde2k86b
p473
I1
sVd8eofhy
p474
I1
sVd5xcky8
p475
I1
sVdinsycq
p476
I1
sVdgzwtlx
p477
I1
sVd120028
p478
I1
sVd732pbt
p479
I1
sVdfq4b6c
p480
I1
sVd06emqt
p481
I2
sVd933qor
p482
I1
sVdg374up
p483
I1
sVcz553s2
p484
I1
sVd4w9ow0
p485
I1
sVd2y979s
p486
I1
sVdg0z7h2
p487
I1
sVdipktb5
p488
I1
sVczmzrb5
p489
I1
sVd5wvt36
p490
I1
sVd46dnuu
p491
I1
sVddqzffe
p492
I1
sVd0wyf6a
p493
I1
sVczhay3a
p494
I3
sVdb7vk77
p495
I1
sVdfyf39o
p496
I1
sVd2wmikr
p497
I1
sVdg3ruu9
p498
I1
sVd59u2mq
p499
I1
sVd1kujvc
p500
I2
sVd20rdyh
p501
I2
sVdodo5x0
p502
I1
sVd25humi
p503
I1
sVdberx8u
p504
I1
sVdqoql9g
p505
I1
sVd5rvlev
p506
I1
sVd29dm0k
p507
I1
sVdgiuo7y
p508
I1
sVd5gme2q
p509
I1
sVd7haw66
p510
I1
sVdcfm8yu
p511
I1
sVd74e4sz
p512
I1
sVd5yff11
p513
I1
sVdicubw7
p514
I1
sVd1oyp6d
p515
I1
sVdhhvpa1
p516
I1
sVd8vq9nq
p517
I1
sVd8rw7bc
p518
I1
sVdp4say7
p519
I1
sVdc5h3ev
p520
I1
sVd9bq6pg
p521
I2
sVd81el74
p522
I1
sVd7ilp1b
p523
I1
sVd9eiqba
p524
I1
sVczl0tx3
p525
I1
sVdnivaq9
p526
I1
sVcz9f7br
p527
I1
sVd5gr22u
p528
I1
sVdgcx18i
p529
I1
sVd148z6w
p530
I1
sVdc9rgma
p531
I1
sVd7vwb46
p532
I1
sVda657fa
p533
I1
sVdc3hjoi
p534
I1
sVdd8bq7q
p535
I1
sVd3hay5r
p536
I1
sVdpum9vo
p537
I1
sVdcr9zgl
p538
I1
sVdcrqst2
p539
I1
sVd51a6vu
p540
I1
sVd6lgt1s
p541
I1
sVdglx24e
p542
I1
sVdsj44i9
p543
I1
sVdkgxc2r
p544
I1
sVdsefpod
p545
I1
sVd3av5yi
p546
I2
sVcz1doaz
p547
I1
sVcyk7wm1
p548
I1
sVdj6xs1g
p549
I1
sVdq5251z
p550
I1
sVczsy5bu
p551
I2
sVcz0ulca
p552
I1
sVda2t5r7
p553
I1
sVd19kmzl
p554
I1
sVdboomi0
p555
I1
sVd8pyg3q
p556
I1
sVd44obl8
p557
I1
sVd43j5p1
p558
I1
sVdcf72km
p559
I1
sVda4avix
p560
I1
sVdjk5bki
p561
I1
sVd9crd3f
p562
I1
sVdqe2488
p563
I1
sVcz1oxci
p564
I1
sVdbo80u9
p565
I2
sVd0f13bc
p566
I1
sVd0z569x
p567
I1
sVdnczjlj
p568
I3
sVdko4sn8
p569
I1
sVdjg35sp
p570
I1
sVd39v6ms
p571
I1
sVd6vt97j
p572
I1
sVdmnv1ob
p573
I1
sVdbnngh9
p574
I1
sVd28un8r
p575
I1
sVd8aailc
p576
I1
sVdhieug1
p577
I1
sVd35h2bn
p578
I1
sVdn0knvz
p579
I2
sVczgyosm
p580
I1
sVd3ns0ys
p581
I1
sVdas4daw
p582
I1
sVdq70exj
p583
I1
sVd3b49sj
p584
I1
sVdreqnvj
p585
I1
sVdawk2dv
p586
I1
sVdkg0q16
p587
I1
sVdq7gqne
p588
I1
sVdej6oct
p589
I1
sVd0jx4lw
p590
I1
sVd948ra9
p591
I1
sVdclryc1
p592
I1
sVdpwg86c
p593
I1
sVddeh8vj
p594
I1
sVdircvca
p595
I1
sVczsh3kg
p596
I1
sVdp5bo44
p597
I1
sVd3i7j43
p598
I1
sVd5upw71
p599
I1
sVdrwx2l9
p600
I1
sVd40w8jx
p601
I1
sVd4zzbs6
p602
I1
sVd6ui8bb
p603
I1
sVd4rh7em
p604
I1
sVd3rbeo7
p605
I1
sVdazh6x5
p606
I2
sVd7314xz
p607
I1
sVd8zddbi
p608
I1
sVdh8sfyz
p609
I1
sVd35fjhn
p610
I1
sVd84rmh6
p611
I1
sVdfiht07
p612
I1
sVdhkc3z8
p613
I2
sVd6qb2q5
p614
I1
sVd4nn6hl
p615
I1
sVdb01ncp
p616
I1
sVdgnb2kn
p617
I1
sVdru8pif
p618
I1
sVd38xh1k
p619
I1
sVdgt0l29
p620
I1
sVdc0thf8
p621
I1
sVd8dymjo
p622
I1
sVd7ua6ek
p623
I1
sVdklyrmr
p624
I2
sVdfc0dq6
p625
I1
sVd27uhvz
p626
I1
sVddwz35x
p627
I1
sVdcxohr5
p628
I1
sVd6x2uls
p629
I1
sVdiv8ibo
p630
I1
sVd7b35or
p631
I1
sVdq1td8i
p632
I1
sVde69ff3
p633
I1
sVde4a3x6
p634
I1
sVdd23zev
p635
I1
sVdrfxktd
p636
I1
sVd0sw9wp
p637
I1
sVdob4e10
p638
I1
sVd0y2yl6
p639
I1
sVdbnypp8
p640
I1
sVd5wfeyu
p641
I1
sVdbk34fj
p642
I2
sVddggzkg
p643
I2
sVd7fhl7s
p644
I1
sVd1nnimm
p645
I1
sVd0a6kko
p646
I1
sVdb42fuv
p647
I1
sVddjkvl7
p648
I1
sVczslg89
p649
I1
sVdchlhsq
p650
I1
sVd7jzqa6
p651
I1
sVdqf746v
p652
I1
sVda3sikw
p653
I1
sVd0sbdq6
p654
I1
sVd7afvpu
p655
I1
sVd72k64b
p656
I1
sVdt88foo
p657
I1
sVd3bj0ws
p658
I1
sVd79mfu0
p659
I3
sVdiicql7
p660
I1
sVd2fdq98
p661
I1
sVcyjf5ub
p662
I1
sVdhriwyi
p663
I1
sVcz5d70m
p664
I1
sVd538abb
p665
I1
sVdeu7hs4
p666
I1
sVczwcyir
p667
I1
sVd01lvz6
p668
I1
sVd3krclb
p669
I1
sVd7qhwhu
p670
I1
sVdb9mlqa
p671
I1
sVd4zh6sb
p672
I1
sVczagtpw
p673
I1
sVd5qfdh0
p674
I1
sVd9qytbn
p675
I1
sVdo8gn9l
p676
I1
sVd769ftv
p677
I1
sVd8pmwp3
p678
I1
sVdpvfc3x
p679
I1
sVdblxt1f
p680
I1
sVdmolssn
p681
I2
sVdtdh1h4
p682
I1
sVdacqwso
p683
I1
sVd0tqnzr
p684
I1
sVdnyfxnk
p685
I1
sVcz86a2j
p686
I1
sVcypz2xu
p687
I1
sVcyvp811
p688
I1
sVd6cgcd9
p689
I1
sVczinn08
p690
I1
sVdcxga8s
p691
I1
sVdb6jj29
p692
I1
sVd7qmdlh
p693
I1
sVd1egrss
p694
I1
sVdpsw4v1
p695
I1
sVd99z5t9
p696
I2
sVd47ebpf
p697
I1
sVczh3ntq
p698
I1
sVd0rwsxn
p699
I1
sVd5g1qtj
p700
I1
sVd5oq6vw
p701
I1
sVdbvvhzg
p702
I1
sVdbtvw3h
p703
I1
sVd2136qa
p704
I1
sVdqyxmr6
p705
I1
sVdaw68ic
p706
I1
sVdrmuu94
p707
I1
sVdgzqroh
p708
I1
sVdhm311t
p709
I1
sVddntgi3
p710
I1
sVd411qkb
p711
I1
sVd39papb
p712
I1
sVdkqz5by
p713
I1
sVcywm1dg
p714
I2
sVcz3s1y8
p715
I1
sVdprro1n
p716
I1
sVd4h3y2a
p717
I1
sVd2ahlu5
p718
I1
sVd1numom
p719
I1
sVdrpgm98
p720
I1
sVd91derl
p721
I2
sVdfgcxx8
p722
I1
sVdtgf9xj
p723
I1
sVdc65hc3
p724
I2
sVdemcids
p725
I1
sVcylk68w
p726
I1
sVd4kqm98
p727
I1
sVdqp59fe
p728
I1
sVd1ty5sr
p729
I1
sVd6qvzv0
p730
I1
sVcz4vka8
p731
I2
sVdscdeey
p732
I1
sVdg8qpfu
p733
I1
sVczymvwl
p734
I1
sVd3xdhd2
p735
I1
sVdjrozr3
p736
I1
sVdbwkasi
p737
I1
sVd1hq7lt
p738
I1
sVdar1vkw
p739
I1
sVcyt79ol
p740
I1
sVdkmahf5
p741
I1
sVdfimczs
p742
I1
sVd0t12jf
p743
I1
sVczfkbv9
p744
I1
sVd5zr6pw
p745
I1
sVdoasbl6
p746
I1
sVdgzh5ox
p747
I1
sVd8jm370
p748
I1
sVcz6i1ag
p749
I1
sVd1gbayw
p750
I1
sVd1wn3yt
p751
I1
sVddkalzt
p752
I1
sVdi3d83o
p753
I1
sVd1j0w0o
p754
I1
sVdql3ydb
p755
I2
sVdr0qc3c
p756
I1
sVd5v7pdi
p757
I1
sVdgrulgi
p758
I1
sVdr079nk
p759
I1
sVd0fcdmf
p760
I1
sVd1bp62x
p761
I2
sVd5ydkow
p762
I1
sVd7dr3ss
p763
I1
sVd6h1rtr
p764
I1
sVdfa7qf9
p765
I1
sVdbbxkha
p766
I1
sVd4yq0zd
p767
I1
sVdsezz52
p768
I1
sVd7t4clj
p769
I1
sVd0wi2af
p770
I1
sVddqq49w
p771
I1
sVcz66iyr
p772
I1
sVcyvwo8h
p773
I1
sVdppxiy9
p774
I1
sVd2kw2ye
p775
I1
sVdeim8xc
p776
I2
sVdr9a4iy
p777
I1
sVdgaaa8h
p778
I1
sVdgp0yfr
p779
I1
sVd4umx3l
p780
I1
sVd0g1jz9
p781
I1
sVd9l6gd2
p782
I1
sVd3t0826
p783
I1
sVd7u0ev6
p784
I1
sVcytumlb
p785
I1
sVd6c0wwd
p786
I3
sVdih086i
p787
I1
sVdd335ay
p788
I1
sVd78qft4
p789
I1
sVdbuscyh
p790
I1
sVdfrtctj
p791
I1
sVd76aiy9
p792
I1
sVdqn3usd
p793
I1
sVd85lp98
p794
I1
sVddnv656
p795
I1
sVd5praea
p796
I1
sVdeg3qxu
p797
I1
sVderuibm
p798
I1
sVdab2k4w
p799
I3
sVdk8vlzd
p800
I1
sVd19gkoq
p801
I1
sVdex5kjz
p802
I2
sVcz1jruu
p803
I1
sVds6y9uh
p804
I1
sVdhoyn0x
p805
I3
sVd2av9gm
p806
I1
sVddlxxri
p807
I1
sVdb2b0k2
p808
I1
sVd3mvfow
p809
I1
sVcyn09k7
p810
I1
sVcz18k22
p811
I2
sVdrsrfcu
p812
I2
sVcz7e5hh
p813
I1
sVd6bg41g
p814
I1
sVd34358n
p815
I1
sVdf6noxb
p816
I1
sVdcn0hwg
p817
I1
sVdrkx8cr
p818
I1
sVdas0sma
p819
I1
sVdbr6dtd
p820
I1
sVd4u3q0q
p821
I1
sVderfhs7
p822
I1
sVd1nnkeu
p823
I1
sVcywt2mv
p824
I1
sVdgvj11d
p825
I1
sVczjwhrv
p826
I1
sVdi6pnro
p827
I1
sVdmxvcbh
p828
I1
sVd92dblq
p829
I1
sVd93c3e7
p830
I1
sVd0be7g3
p831
I1
sVd1vcdkk
p832
I1
sVd35bfav
p833
I1
sVdifr0or
p834
I1
sVd3qe51c
p835
I1
sVd2f6fu8
p836
I1
sVd2oieit
p837
I1
sVd8u1a9a
p838
I1
sVd9dz7q2
p839
I1
sVd70cb79
p840
I1
sVd4u82kk
p841
I1
sVdgezdc9
p842
I1
sVdc7oe3t
p843
I1
sVd0cn93g
p844
I1
sVd844xal
p845
I1
sVdqhmugh
p846
I2
sVdqrg07r
p847
I1
sVczz7tgd
p848
I1
sVdctvlrt
p849
I1
sVd9l683x
p850
I1
sVd56um79
p851
I1
sVd4v3mvf
p852
I1
sVdq0gbyj
p853
I1
sVd25wxif
p854
I2
sVdbqoloe
p855
I1
sVdam3cjs
p856
I1
sVd7k99r2
p857
I1
sVd9hq5f8
p858
I1
sVd4qo7ie
p859
I1
sVd4c1uva
p860
I1
sVd08qyhg
p861
I1
sVdknz402
p862
I1
sVd0b8tlr
p863
I1
sVd99ox2l
p864
I1
sVd7e1zwp
p865
I1
sVdei41h8
p866
I1
sVd8czw2b
p867
I1
sVd69ucy9
p868
I1
sVd21avhy
p869
I1
sVd8g8n2b
p870
I1
sVdavgnez
p871
I1
sVd4h9zpk
p872
I1
sVdivwsh1
p873
I1
sVd5rap78
p874
I1
sVd9a6uzu
p875
I1
sVdfu9n5y
p876
I1
sVdottkif
p877
I1
sVdifsrsn
p878
I1
sVddfl23a
p879
I1
sVdiae9k3
p880
I1
sVd4rhboo
p881
I1
sVcywvrlf
p882
I1
sVdo4w8f8
p883
I2
sVdc8ogpa
p884
I1
sVdf1jnwz
p885
I1
sVdf6wr7e
p886
I1
sVdjie1ul
p887
I1
sVd1aapyo
p888
I1
sVd5mfozk
p889
I1
sVdeud2ri
p890
I1
sVdera0gr
p891
I1
sVdks2x6y
p892
I1
sVdctxr28
p893
I1
sVd05aff3
p894
I1
sVdrwyfq7
p895
I1
sVd259fjb
p896
I2
sVdd638mi
p897
I1
sVd7mpj2i
p898
I1
sVdfbbni1
p899
I1
sVd4lxloh
p900
I1
sVdjerlv3
p901
I2
sVdjbm59u
p902
I1
sVd7429d5
p903
I1
sVd0kjsyo
p904
I1
sVdktqkw0
p905
I1
sVd6k21h2
p906
I1
sVdisigbm
p907
I1
sVd4u6ypw
p908
I1
sVdel748h
p909
I1
sVd276tev
p910
I1
sVd43g0qt
p911
I1
sVdbtf8u3
p912
I1
sVd3veeru
p913
I1
sVdog2pi4
p914
I1
sVd5w1l8c
p915
I2
sVdi2krcz
p916
I1
sVds7i3h4
p917
I1
sVd3zl897
p918
I1
sVdmnuw0m
p919
I1
sVdrsa70a
p920
I1
sVdblrehj
p921
I1
sVdduf0ty
p922
I1
sVda3aajp
p923
I1
sVcykiha8
p924
I1
sVdi3cnay
p925
I1
sVdeoz2mp
p926
I1
sVd3knut0
p927
I1
sVd5mpxco
p928
I1
sVdivroq5
p929
I1
sVdih0uob
p930
I1
sVdonslbh
p931
I1
sVd5qmqjh
p932
I1
sVdhbq7he
p933
I1
sVd0c6iqu
p934
I3
sVdamx6gu
p935
I1
sVdpo1w4y
p936
I1
sVdg24chz
p937
I1
sVd0qrzhq
p938
I1
sVd9pb4dw
p939
I1
sVdphqbvj
p940
I1
sVda1v9l1
p941
I1
sVdde18qk
p942
I1
sVd4ltdc0
p943
I1
sVd8oqyp5
p944
I1
sVdafjg4a
p945
I1
sVdq7ko9i
p946
I1
sVdq9mqs1
p947
I1
sVcyn45sa
p948
I1
sVdr6lays
p949
I1
sVdd26qky
p950
I1
sVdb10otz
p951
I1
sVdh0i39k
p952
I1
sVd3yszy6
p953
I1
sVd5yoouz
p954
I1
sVczgnjvl
p955
I2
sVd0x8rqw
p956
I1
sVddzw4si
p957
I1
sVdg6chm3
p958
I1
sVdhmhzrp
p959
I1
sVczt51zo
p960
I1
sVdmuao5r
p961
I1
sVd7r13an
p962
I1
sVdhyxts3
p963
I1
sVd0cfeoc
p964
I1
sVd03u281
p965
I1
sVdi6zj3t
p966
I1
sVd6mxi9p
p967
I1
sVdky6s69
p968
I1
sVcz2nl3x
p969
I1
sVdayepwh
p970
I1
sVczh5s8g
p971
I2
sVd51ldyh
p972
I1
sVdk3jtt4
p973
I1
sVdfbmb3k
p974
I1
sVd2fx6ky
p975
I1
sVd03jf7l
p976
I1
sVdhfslir
p977
I1
sVdbi7pg9
p978
I1
sVd5mnznk
p979
I1
sVd0dgn30
p980
I2
sVd92qp06
p981
I3
sVd6b1raq
p982
I1
sVd5987dx
p983
I1
sVdaksu88
p984
I1
sVd0it5f9
p985
I1
sVd225oyn
p986
I1
sVd5zyob8
p987
I1
sVd2jvj2k
p988
I1
sVd7kuzdg
p989
I1
sVd409nv4
p990
I1
sVdbkv2e3
p991
I1
sVdkownc7
p992
I1
sVdamu861
p993
I1
sVcz6881s
p994
I1
sVdhockpe
p995
I1
sVdghnisn
p996
I1
sVd0y6rpe
p997
I1
sVd21m6oq
p998
I1
sVd0f5ruu
p999
I1
sVdbn00l8
p1000
I1
sVdq3zhev
p1001
I1
sVd2gwf7i
p1002
I1
sVd9dk02d
p1003
I1
sVdf15xjm
p1004
I1
sVdabp8n6
p1005
I1
sVd9mdfik
p1006
I1
sVd38wc38
p1007
I1
sVd2wp2nl
p1008
I1
sVd6ubhrj
p1009
I1
sVdhwghmc
p1010
I1
sVdj87lm0
p1011
I1
sVczmq389
p1012
I2
sVdh9gn8y
p1013
I1
sVd76yl69
p1014
I1
sVdmnlizt
p1015
I1
sVdqyu545
p1016
I1
sVdg75is1
p1017
I1
sVdgius4c
p1018
I1
sVdrq5ion
p1019
I1
sVdqjd6pk
p1020
I1
sVdkz9v9g
p1021
I1
sVd0abtg3
p1022
I1
sVd1miebn
p1023
I1
sVdi4g2jj
p1024
I1
sVczhpxh2
p1025
I1
sVdqncd3d
p1026
I1
sVd3ilywd
p1027
I1
sVd8sqdja
p1028
I1
sVdj66ae6
p1029
I1
sVd2x0qqt
p1030
I3
sVd6ij7ox
p1031
I1
sVd6bmghb
p1032
I1
sVdf59ffp
p1033
I1
sVdbygcml
p1034
I1
sVd9tmapb
p1035
I1
sVdc3tiez
p1036
I1
sVd2ltdcn
p1037
I2
sVd8gwyml
p1038
I1
sVdf53sd8
p1039
I1
sVd9tbs53
p1040
I1
sVcyjo6b2
p1041
I1
sVdhdk4qf
p1042
I1
sVdafwkxt
p1043
I1
sVd9bn41d
p1044
I1
sVdqfsikk
p1045
I1
sVdam46yx
p1046
I2
sVd8o9yc4
p1047
I1
sVdbgr1hl
p1048
I1
sVd2gc7ai
p1049
I4
sVddxlsp7
p1050
I1
sVd2uavcp
p1051
I1
sVd24zysm
p1052
I2
sVddwzszb
p1053
I1
sVd7ul4nh
p1054
I1
sVd677m3u
p1055
I1
sVdgt25rp
p1056
I1
sVdj4ak4k
p1057
I1
sVd7jybkv
p1058
I2
sVdhkwngv
p1059
I1
sVd3vcapi
p1060
I1
sVd1p2cj4
p1061
I2
sVd18ikk9
p1062
I1
sVdkognbu
p1063
I1
sVdti7ewu
p1064
I1
sVd9beqaz
p1065
I1
sVdbe843y
p1066
I1
sVde4qoo4
p1067
I1
sVd3olvvw
p1068
I1
sVdggsz6g
p1069
I1
sVd7ujs0r
p1070
I1
sVd4ja3bz
p1071
I1
sVd3zr9di
p1072
I1
sVd97dsoy
p1073
I1
sVde7q108
p1074
I1
sVdfblcpp
p1075
I1
sVde2j5e4
p1076
I1
sVdjj20j8
p1077
I1
sVdi3lxza
p1078
I1
sVd339xl3
p1079
I2
sVd1908t8
p1080
I1
sVd5rhh7d
p1081
I1
sVdsva71k
p1082
I1
sVcz9ywew
p1083
I1
sVdbgieti
p1084
I1
sVd1w2zcz
p1085
I1
sVd8y9tld
p1086
I1
sVd1pht59
p1087
I1
sVdec95f0
p1088
I1
sVdt5kff4
p1089
I1
sVd4in9qw
p1090
I1
sVdbsoacx
p1091
I1
sVdgv3efj
p1092
I1
sVd0mo5u3
p1093
I1
sVd1hkv0u
p1094
I1
sVd5enbqo
p1095
I1
sVd50w39s
p1096
I1
sVd4lawiq
p1097
I1
sVd1hrfeu
p1098
I1
sVd8wv627
p1099
I1
sVcys0fv4
p1100
I1
sVdidi6zq
p1101
I1
sVd1gn3zn
p1102
I1
sVd0v0r97
p1103
I1
sVdg4qlqc
p1104
I1
sVd7zwi4v
p1105
I1
sVd4xruh9
p1106
I1
sVd000evx
p1107
I1
sVd5ndjsc
p1108
I1
sVdhj6rfp
p1109
I1
sVdn3o93o
p1110
I1
sVdf45j2h
p1111
I1
sVdehuvyo
p1112
I1
sVdgnqpb5
p1113
I1
sVd69pfsu
p1114
I1
sVdkcdroq
p1115
I1
sVdqhf98m
p1116
I1
sVd5sfshs
p1117
I1
sVdbpvvpg
p1118
I1
sVdafd6ix
p1119
I1
sVdt36m2i
p1120
I1
sVdql7a6k
p1121
I1
sVd1lrce2
p1122
I1
sVcyt4mcf
p1123
I1
sVdmfrtia
p1124
I1
sVdhsx3vi
p1125
I1
sVd2bo87k
p1126
I1
sVd8lo96c
p1127
I1
sVde4escj
p1128
I1
sVd44djcm
p1129
I1
sVdbvq4h3
p1130
I1
sVdpwph48
p1131
I1
sVdi22d1e
p1132
I1
sVd1xkb04
p1133
I1
sVdtfdogv
p1134
I1
sVd48lx8d
p1135
I1
sVd8imxfd
p1136
I1
sVd3512ef
p1137
I1
sVdkkd4dq
p1138
I1
sVd0tyn5t
p1139
I1
sVdaciqex
p1140
I1
sVd1e69sn
p1141
I1
sVd5kq73x
p1142
I1
sVdipjz8c
p1143
I1
sVd3mj4yg
p1144
I1
sVd0v2gl6
p1145
I1
sVdclo3y9
p1146
I1
sVdame0ul
p1147
I1
sVdmg2cda
p1148
I1
sVd2mt5el
p1149
I1
sVdgg7vfm
p1150
I1
sVd74kwbf
p1151
I1
sVcytk1l5
p1152
I1
sVdan8ji3
p1153
I1
sVdd3m6gc
p1154
I1
sVdmhtqm6
p1155
I1
sVdb43obr
p1156
I1
sVdfmfqtm
p1157
I1
sVdn4kn81
p1158
I1
sVdi7n9du
p1159
I1
sVd55qbhz
p1160
I1
sVd3dwf2n
p1161
I1
sVdn8ngdx
p1162
I1
sVdfn5ytl
p1163
I1
sVdb10731
p1164
I1
sVdk25esw
p1165
I1
sVd5ih73m
p1166
I1
sVdb0m2c7
p1167
I1
sVcz0oypp
p1168
I2
sVd3dt2ex
p1169
I1
sVd3j549t
p1170
I1
sVd8km6oe
p1171
I1
sVd3pjprr
p1172
I1
sVdia0uvn
p1173
I2
sVderd6ws
p1174
I1
sVdnnsiln
p1175
I1
sVdgiapl4
p1176
I1
sVczxx7sm
p1177
I1
sVd201b71
p1178
I1
sVdd3drzt
p1179
I1
sVdgcjkt3
p1180
I1
sVd93kmnq
p1181
I1
sVd5sn7rm
p1182
I1
sVd0r0cox
p1183
I1
sVdipy2tm
p1184
I1
sVd9d1bz2
p1185
I1
sVd4z1q7t
p1186
I1
sVcyszghr
p1187
I1
sVdqeklmw
p1188
I1
sVd26hqwz
p1189
I1
sVd4d98tm
p1190
I1
sVddl3q24
p1191
I2
sVds4zlr0
p1192
I1
sVdfnfs9w
p1193
I1
sVdcinj14
p1194
I1
sVd8wbz34
p1195
I1
sVd1t880z
p1196
I1
sVdcr6yfc
p1197
I1
sVd14ayrf
p1198
I1
sVd5zuajm
p1199
I1
sVd825yb9
p1200
I1
sVda1w8w8
p1201
I1
sVddmikyw
p1202
I1
sVddr2w6q
p1203
I1
sVdbi9y46
p1204
I1
sVd56ie4f
p1205
I1
sVdoybd51
p1206
I1
sVd1a2nvb
p1207
I1
sVd60c2mn
p1208
I1
sVd28v8tg
p1209
I1
sVdaz0rer
p1210
I2
sVdn1f52r
p1211
I2
sVd2116vc
p1212
I1
sVd2ez3x0
p1213
I1
sVdcmgat8
p1214
I1
sVdgqjouk
p1215
I1
sVd9ltwlb
p1216
I1
sVde32xvy
p1217
I1
sVdcesh05
p1218
I1
sVd6vtzdx
p1219
I1
sVdk8rjvw
p1220
I1
sVczk178t
p1221
I1
sVdmqhsyi
p1222
I1
sVd841tjk
p1223
I1
sVdhgem0a
p1224
I1
sVd5eq9jl
p1225
I1
sVd2wfha9
p1226
I1
sVdfldmji
p1227
I1
sVdjqtwux
p1228
I1
sVdci9w9o
p1229
I1
sVdbjhbh1
p1230
I1
sVdcu81sr
p1231
I1
sVd0apb07
p1232
I1
sVd1i30eb
p1233
I2
sVdouv6s9
p1234
I1
sVdcc7cdc
p1235
I1
sVdai8sxo
p1236
I1
sVd2wy9ko
p1237
I1
sVden3s59
p1238
I1
sVd5lw2um
p1239
I1
sVdi5bf9y
p1240
I1
sVdacjhlu
p1241
I1
sVd101f26
p1242
I1
sVdjuperu
p1243
I1
sVdr0wn9l
p1244
I1
sVd39540x
p1245
I1
sVds22cmy
p1246
I1
sVdel1neq
p1247
I2
sVdcjughj
p1248
I1
sVde4i5ph
p1249
I1
sVcyofr9w
p1250
I1
sVd2h68fl
p1251
I1
sVcypji73
p1252
I1
sVdiqu4hu
p1253
I1
sVcyjd9e1
p1254
I1
sVdc4gmsu
p1255
I1
sVdj3wm6c
p1256
I1
sVdqlkc42
p1257
I1
sVdh98idz
p1258
I1
sVd1m6rtg
p1259
I1
sVd7yqxsy
p1260
I1
sVdo1nfjm
p1261
I1
sVdo1vm21
p1262
I1
sVd217i67
p1263
I1
sVdeotgy0
p1264
I1
sVd37mtc1
p1265
I1
sVd0yhe8y
p1266
I1
sVcyqk3fm
p1267
I1
sVdmwvib3
p1268
I1
sVdh3594q
p1269
I1
sVd38hgnk
p1270
I1
sVd934xd6
p1271
I1
sVd5wtkcf
p1272
I1
sVdcgibcm
p1273
I1
sVd65if5p
p1274
I1
sVd5x9pcu
p1275
I1
sVdd4evnx
p1276
I1
sVd1rbq69
p1277
I1
sVdi60ebp
p1278
I1
sVdggjj9k
p1279
I1
sVdgwmkby
p1280
I1
sVd2mnzqq
p1281
I1
sVd0zalma
p1282
I1
sVdf35nqh
p1283
I1
sVdcvxmuy
p1284
I1
sVd5cvi13
p1285
I1
sVcys629f
p1286
I1
sVdhps8f6
p1287
I1
sVd0v1a9g
p1288
I1
sVd3njdh8
p1289
I1
sVd2cbvv7
p1290
I1
sVdhcd1t7
p1291
I1
sVd89he7t
p1292
I1
sVdn0z4rr
p1293
I2
sVd2913qn
p1294
I1
sVd53qtya
p1295
I1
sVdaysyim
p1296
I1
sVd7xos30
p1297
I1
sVd3w0mxo
p1298
I1
sVdhpinok
p1299
I1
sVd0xtvvz
p1300
I1
sVdklrcbw
p1301
I1
sVdcpnjqg
p1302
I1
sVda8ugp7
p1303
I1
sVd28d5vp
p1304
I1
sVczagupp
p1305
I1
sVd5n2yq7
p1306
I1
sVcz1q7pm
p1307
I1
sVdooi0qx
p1308
I1
sVczyeskr
p1309
I2
sVd9my8dz
p1310
I2
sVd4i3iu6
p1311
I1
sVdii0ugq
p1312
I1
sVd5bdifk
p1313
I1
sVd2umknd
p1314
I1
sVdoi0qt2
p1315
I1
sVd692vxv
p1316
I1
sVdrdu67v
p1317
I1
sVcz1vnxo
p1318
I1
sVd0uh7br
p1319
I2
sVd1p5ht5
p1320
I1
sVdciihpq
p1321
I1
sVdacdfgh
p1322
I1
sVd07zuhy
p1323
I1
sVdfyn1rj
p1324
I1
sVczs8xhy
p1325
I1
sVdaag9ff
p1326
I1
sVdk39jue
p1327
I1
sVd1twz2n
p1328
I1
sVd4o04uj
p1329
I1
sVde8lasw
p1330
I1
sVdqztw9z
p1331
I1
sVdou58tm
p1332
I1
sVdq0o1ym
p1333
I1
sVdatoq4g
p1334
I1
sVd9onw33
p1335
I1
sVdif89e1
p1336
I1
sVcz4jzti
p1337
I1
sVd61yiml
p1338
I1
sVdekuppn
p1339
I1
sVd0bu9hb
p1340
I2
sVda6j9fe
p1341
I1
sVd63tkp6
p1342
I2
sVdkkqli0
p1343
I1
sVdiae71l
p1344
I1
sVdpua8pa
p1345
I1
sVdceqs59
p1346
I1
sVd6p7twg
p1347
I1
sVdite608
p1348
I1
sVdj70qfa
p1349
I1
sVdfehewx
p1350
I1
sVdiprbph
p1351
I1
sVd4cnbhc
p1352
I2
sVdepmz5e
p1353
I1
sVdigtwvp
p1354
I1
sVd9aydjn
p1355
I1
sVd54mwk2
p1356
I1
sVdkitaos
p1357
I1
sVd85kxge
p1358
I1
sVd2ktvh7
p1359
I1
sVdhy3iyi
p1360
I1
sVdbimccx
p1361
I1
sVd9yp6ch
p1362
I1
sVdc3953e
p1363
I1
sVdnfzbbl
p1364
I1
sVdedxe2a
p1365
I1
sVd11bwuz
p1366
I1
sVdg35o94
p1367
I1
sVdgo77f5
p1368
I1
sVdniq9j0
p1369
I1
sVdg35ss2
p1370
I1
sVdjebwnd
p1371
I1
sVdkf06e2
p1372
I1
sVd48b043
p1373
I1
sVdd07lfy
p1374
I1
sVcz84ekm
p1375
I1
sVd4klefc
p1376
I1
sVd0noujq
p1377
I1
sVdmz0hwn
p1378
I1
sVd6rghrt
p1379
I2
sVd514nbs
p1380
I1
sVdbdjsid
p1381
I1
sVd3vtk7r
p1382
I1
sVdjhwkep
p1383
I2
sVd1acxr6
p1384
I2
sVdq3z6ni
p1385
I1
sVdinwijw
p1386
I1
sVdbm9945
p1387
I1
sVd2ctbzn
p1388
I1
sVdhn87ik
p1389
I1
sVd6chutm
p1390
I2
sVd32vpwd
p1391
I1
sVd22mcsr
p1392
I2
sVd568fsp
p1393
I1
sVdromaw3
p1394
I4
sVd9bpvov
p1395
I1
sVdehpcsr
p1396
I1
sVczzcuq2
p1397
I1
sVdg5w9sp
p1398
I1
sVd9uko1c
p1399
I1
sVd4aw7ui
p1400
I1
sVd4e5xcw
p1401
I1
sVdf932no
p1402
I1
sVdkd96xw
p1403
I1
sVdhv9ie6
p1404
I1
sVd7bp0n9
p1405
I1
sVdaxiqqq
p1406
I1
sVd5r4aea
p1407
I1
sVdpr87om
p1408
I1
sVd11zv0q
p1409
I1
sVd8f0oka
p1410
I1
sVcynz810
p1411
I1
sVd06gju0
p1412
I1
sVcz6hnvf
p1413
I1
sVdcjxlhy
p1414
I1
sVd95mzpl
p1415
I1
sVdpnam20
p1416
I1
sVdj50pz0
p1417
I1
sVdngwvbu
p1418
I1
sVd1rykld
p1419
I1
sVdrhyv8k
p1420
I1
sVczvw3ne
p1421
I1
sVd41tr9q
p1422
I2
sVd0e58k4
p1423
I1
sVdo044zi
p1424
I1
sVdqlq2zp
p1425
I1
sVdhnh9ef
p1426
I1
sVd00xzfm
p1427
I1
sVd0trgdz
p1428
I1
sVd7n3kn9
p1429
I1
sVdojgdmh
p1430
I1
sVdd0skwc
p1431
I1
sVd7zbyxb
p1432
I1
sVdcfmouq
p1433
I1
sVdgkmgiz
p1434
I1
sVdaup6bo
p1435
I1
sVdihh3wg
p1436
I1
sVdi1kqeb
p1437
I1
sVdmj7kx5
p1438
I1
sVdfisjmu
p1439
I1
sVd6rer7x
p1440
I1
sVdknco2b
p1441
I1
sVd3jw4ae
p1442
I1
sVcyklqh2
p1443
I1
sVdb4fmov
p1444
I1
sVcz4g8uu
p1445
I1
sVdgaxz1r
p1446
I1
sVd3jfb00
p1447
I1
sVdgefqzg
p1448
I1
sVdcvpyy6
p1449
I1
sVcymbkov
p1450
I1
sVdsau82w
p1451
I2
sVd471inq
p1452
I1
sVdew2mie
p1453
I1
sVd19r7v6
p1454
I1
sVd3g9i0j
p1455
I1
sVd9dmvk1
p1456
I2
sVdrqq62t
p1457
I1
sVdayz0j6
p1458
I1
sVdhete9y
p1459
I2
sVdd0tfml
p1460
I1
sVd1fmc73
p1461
I1
sVcyy2nn5
p1462
I1
sVd3bprou
p1463
I3
sVdik5b2w
p1464
I1
sVd00e9wq
p1465
I1
sVdj6mipj
p1466
I1
sVd0ustof
p1467
I1
sVd8e6677
p1468
I1
sVd1j3n3r
p1469
I1
sVd3jny7q
p1470
I2
sVd92j8ar
p1471
I1
sVdexo079
p1472
I1
sVd4qsvtb
p1473
I1
sVddsaqow
p1474
I1
sVczfnwsy
p1475
I1
sVdkbsiz2
p1476
I1
sVdj4pe8m
p1477
I1
sVdo2oh35
p1478
I1
sVdbpr7s3
p1479
I1
sVd3w5xsp
p1480
I1
sVdmrb4bc
p1481
I1
sVdejd3r5
p1482
I1
sVdqydavy
p1483
I1
sVdnoqwsz
p1484
I1
sVd3g6tub
p1485
I1
sVczh65we
p1486
I1
sVdngnfbs
p1487
I1
sVdqg1lg9
p1488
I1
sVd7m7sty
p1489
I1
sVd047b3d
p1490
I1
sVd3cxukc
p1491
I1
sVd6e7stg
p1492
I1
sVd5racs3
p1493
I1
sVd4qwgvq
p1494
I1
sVde08z6u
p1495
I1
sVdog967w
p1496
I1
sVdhysqqr
p1497
I1
sVd79tgie
p1498
I1
sVdd5kohx
p1499
I2
sVdan751d
p1500
I1
sVdk177b9
p1501
I1
sVdir2cc5
p1502
I1
sVdbgu5qf
p1503
I1
sVd7chzan
p1504
I1
sVdcmelcr
p1505
I1
sVdhta6xu
p1506
I1
sVcyjj1na
p1507
I1
sVd31kccl
p1508
I1
sVcz2knxn
p1509
I1
sVdepjjw7
p1510
I1
sVdrmwvr6
p1511
I1
sVd4ww99t
p1512
I1
sVddxq3ep
p1513
I1
sVdr23a5e
p1514
I1
sVdmhbpab
p1515
I1
sVd2p065y
p1516
I3
sVd9re3f3
p1517
I1
sVdtitezr
p1518
I1
sVd7ur0eg
p1519
I1
sVdia0j7r
p1520
I1
sVd0kz5f2
p1521
I1
sVdh71mjh
p1522
I1
sVd1udacl
p1523
I1
sVde2z9on
p1524
I1
sVd6lswh0
p1525
I1
sVd8kgwqm
p1526
I2
sVd2qsao4
p1527
I1
sVdrst99f
p1528
I1
sVd586htf
p1529
I1
sVd5ha0b8
p1530
I1
sVd848kex
p1531
I1
sVdodwixv
p1532
I1
sVdc8zdoz
p1533
I1
sVd49x7kd
p1534
I1
sVdcn2ohh
p1535
I1
sVdppkx1b
p1536
I1
sVd3a6zqs
p1537
I1
sVd5ask9z
p1538
I1
sVd1897we
p1539
I2
sVdczuqq0
p1540
I1
sVdryfvgg
p1541
I1
sVdq1zwmc
p1542
I1
sVd1mfi5p
p1543
I1
sVd6ls2uw
p1544
I1
sVd8bsqa2
p1545
I1
sVdrt1ddz
p1546
I1
sVdmys9jp
p1547
I1
sVdcwfqzh
p1548
I1
sVdi0lnj2
p1549
I1
sVd0jxtwk
p1550
I1
sVd48wpx2
p1551
I1
sVd4veu4r
p1552
I1
sVdgqymww
p1553
I1
sVdadcqgm
p1554
I1
sVdg7spya
p1555
I1
sVd6tkwgs
p1556
I1
sVda5njxh
p1557
I1
sVdc6avge
p1558
I1
sVda34hks
p1559
I1
sVcz98pgk
p1560
I1
sVd94hmrl
p1561
I1
sVd54ptez
p1562
I1
sVdruwzaz
p1563
I1
sVdhtqbh9
p1564
I2
sVd5yfz2i
p1565
I1
sVdhkw2h6
p1566
I1
sVdmpv2u0
p1567
I1
sVdgnevvj
p1568
I1
sVczygjv7
p1569
I1
sVd3gcm5u
p1570
I1
sVd95p3r9
p1571
I1
sVd7ftm7v
p1572
I1
sVddga4c7
p1573
I1
sVd9r2072
p1574
I1
sVczrfh9g
p1575
I1
sVd0kvzco
p1576
I1
sVdsoypjo
p1577
I1
sVd413jvu
p1578
I1
sVdg4qhnt
p1579
I1
sVd5wdsaz
p1580
I1
sVdpub6sd
p1581
I1
sVdso67mj
p1582
I1
sVdj30cyk
p1583
I1
sVd0z9vr6
p1584
I1
sVdb3cveg
p1585
I1
sVdarnk6s
p1586
I1
sVczuk5ka
p1587
I1
sVdcjuxzb
p1588
I1
sVd3mrbns
p1589
I1
sVdjidtsb
p1590
I1
sVd9fteju
p1591
I1
sVdc9p6cv
p1592
I1
sVdacij84
p1593
I1
sVdn5xga9
p1594
I1
sVcyizlsu
p1595
I1
sVd9ej8kf
p1596
I1
sVdnkf82t
p1597
I1
sVd5o8jjc
p1598
I1
sVcz9jvn8
p1599
I1
sVditddmm
p1600
I1
sVd1h49gd
p1601
I1
sVd2dvsjh
p1602
I1
sVds7qasa
p1603
I1
sVdeuu72e
p1604
I1
sVcyu5xwp
p1605
I1
sVdc3dvnp
p1606
I1
sVdhbyyci
p1607
I1
sVdgkkid9
p1608
I2
sVdeddn6a
p1609
I1
sVdayw2ku
p1610
I1
sVdbnvc9r
p1611
I1
sVczn3gbp
p1612
I1
sVdksnllz
p1613
I1
sVdh4wb2a
p1614
I1
sVd2o9819
p1615
I1
sVdgybuby
p1616
I1
sVdt0vmyi
p1617
I1
sVdj2mh1l
p1618
I1
sVdhmo1oo
p1619
I1
sVdol8g8b
p1620
I1
sVdctpqeh
p1621
I1
sVdd8pgd3
p1622
I1
sVd2u2fwq
p1623
I1
sVdcw3phu
p1624
I1
sVdj76zt4
p1625
I1
sVd7cqh3j
p1626
I1
sVdbx3emv
p1627
I1
sVdbocitr
p1628
I1
sVde316xv
p1629
I1
sVdfaylvi
p1630
I1
sVd4k7m06
p1631
I1
sVd1q9k8z
p1632
I3
sVdbjhkkb
p1633
I1
sVdenzlku
p1634
I1
sVdqq5qxm
p1635
I1
sVd7mpxf0
p1636
I1
sVdrqbi9t
p1637
I1
sVdk9yr1y
p1638
I1
sVdfh4mra
p1639
I1
sVdio4k5w
p1640
I1
sVd8ghqeg
p1641
I1
sVdbjo0kq
p1642
I1
sVdipldne
p1643
I1
sVcypduz0
p1644
I1
sVdkrekej
p1645
I2
sVdalva25
p1646
I1
sVdnzdj4u
p1647
I1
sVd0l9dqw
p1648
I1
sVdqc78wv
p1649
I1
sVdfiogxv
p1650
I1
sVcyts2ix
p1651
I1
sVdcfhnoc
p1652
I1
sVd78rs9r
p1653
I1
sVd72uhv8
p1654
I1
sVd0uydxo
p1655
I1
sVdekih1p
p1656
I1
sVdn2rqjj
p1657
I1
sVdpp7q2p
p1658
I2
sVdcrlc9x
p1659
I1
sVd90gy68
p1660
I1
sVdkd197q
p1661
I1
sVder76c4
p1662
I1
sVd9esmmb
p1663
I1
sVdbytfc7
p1664
I1
sVd4jxlit
p1665
I1
sVdbk4k60
p1666
I1
sVdbuyiia
p1667
I1
sVd4genu5
p1668
I1
sVcynqu8s
p1669
I1
sVde383qe
p1670
I1
sVd89u5wn
p1671
I1
sVdakq92z
p1672
I1
sVdijnwy7
p1673
I1
sVdf550ck
p1674
I1
sVd1d04zc
p1675
I1
sVdag04t7
p1676
I1
sVd1nf2bv
p1677
I1
sVd76al95
p1678
I1
sVcz5nmjr
p1679
I1
sVdpw5qrm
p1680
I1
sVdpjcsn8
p1681
I1
sVdjisnda
p1682
I1
sVd0jp94p
p1683
I1
sVdfhdn70
p1684
I4
sVdabdync
p1685
I1
sVddcrs13
p1686
I1
sVdbobbk2
p1687
I1
sVdc4mybt
p1688
I1
sVcynp57z
p1689
I1
sVdn9a7jr
p1690
I1
sVd4zbit8
p1691
I1
sVdmf7fv2
p1692
I1
sVdoh15qm
p1693
I1
sVdgvezlb
p1694
I2
sVd2auf3d
p1695
I1
sVcznb1e9
p1696
I1
sVd98pkvo
p1697
I1
sVdg7uevd
p1698
I1
sVd0to1i8
p1699
I1
sVdhj56ai
p1700
I1
sVdk7w19k
p1701
I1
sVdja3hkl
p1702
I3
sVddi6xr0
p1703
I1
sVdebkms0
p1704
I1
sVd2x4puf
p1705
I1
sVd15m85h
p1706
I1
sVd0fz6tv
p1707
I1
sVd2x5hb0
p1708
I1
sVd8cnus8
p1709
I1
sVczmmtq0
p1710
I2
sVdhy0f86
p1711
I1
sVdnldz96
p1712
I1
sVd8vi9t8
p1713
I1
sVczh6cqy
p1714
I1
sVd0x4p8m
p1715
I1
sVdmlxkwq
p1716
I1
sVdgxzivt
p1717
I1
sVd4ixtkn
p1718
I1
sVdkf5ccb
p1719
I1
sVd8dztn6
p1720
I1
sVd2n8eta
p1721
I1
sVczb0gyv
p1722
I1
sVdrm57bh
p1723
I1
sVdkma9xk
p1724
I1
sVda7x3oy
p1725
I1
sVdt1bzil
p1726
I1
sVd2jy6f2
p1727
I1
sVd9xyjxf
p1728
I1
sVd1fki7g
p1729
I1
sVdhr5gpp
p1730
I1
sVd0vzxti
p1731
I1
sVdnw8yvb
p1732
I1
sVd15q7ab
p1733
I1
sVdtfme28
p1734
I1
sVds4ej9z
p1735
I1
sVdbwhb3h
p1736
I1
sVd85nqwx
p1737
I1
sVdc3vqv7
p1738
I1
sVdadsg3r
p1739
I1
sVd01aime
p1740
I2
sVd0z9t92
p1741
I1
sVd09fxwg
p1742
I1
sVdkl18jq
p1743
I1
sVczz0pf4
p1744
I1
sVdawwl4c
p1745
I1
sVdpfq91w
p1746
I1
sVd7s8ro8
p1747
I1
sVd24kgvw
p1748
I1
sVdmu6198
p1749
I1
sVd35lydf
p1750
I1
sVdt41xgy
p1751
I1
sVdgn21m0
p1752
I2
sVd5mo5xx
p1753
I1
sVdb94buw
p1754
I1
sVdj2je4d
p1755
I1
sVdr3ojyg
p1756
I1
sVd5ivwws
p1757
I1
sVd3grmcq
p1758
I1
sVdji0ow1
p1759
I1
sVd4oowbm
p1760
I2
sVd39dbx7
p1761
I1
sVdc22k95
p1762
I1
sVdkzfbrb
p1763
I1
sVdri5ebz
p1764
I1
sVdew6iwo
p1765
I1
sVdokw4ac
p1766
I1
sVd89xxy7
p1767
I1
sVd5r1ws1
p1768
I1
sVcz6cvfn
p1769
I1
sVdk034nj
p1770
I1
sVd9zomlg
p1771
I1
sVd3yulry
p1772
I1
sVdn8c51c
p1773
I1
sVdcs9mlo
p1774
I1
sVdoepd2e
p1775
I1
sVdd3jmlo
p1776
I2
sVd6bip16
p1777
I1
sVczixjho
p1778
I1
sVdgrl9os
p1779
I1
sVd8micqp
p1780
I1
sVd6pwr35
p1781
I1
sVda8kjys
p1782
I1
sVd4wab1f
p1783
I1
sVdspbqyu
p1784
I1
sVd5h4zoc
p1785
I1
sVd3fiz3u
p1786
I1
sVdfxy6xu
p1787
I1
sVd1r4y75
p1788
I1
sVdt3ghf6
p1789
I1
sVczarwdk
p1790
I1
sVdj8zvym
p1791
I1
sVd9ywqwd
p1792
I1
sVd2csfdh
p1793
I1
sVd8556ub
p1794
I1
sVd02zf9g
p1795
I1
sVd0mgm0l
p1796
I1
sVd7v63nl
p1797
I1
sVdb5ayos
p1798
I1
sVd9qtlzb
p1799
I1
sVcz75x49
p1800
I3
sVdqletwz
p1801
I1
sVd32neeu
p1802
I1
sVd5o3wip
p1803
I1
sVd7zzat8
p1804
I1
sVd7rots0
p1805
I1
sVdd4jkc0
p1806
I1
sVd372r6a
p1807
I1
sVd24fhwe
p1808
I1
sVdoeqp17
p1809
I1
sVd3uefik
p1810
I1
sVdqb0dva
p1811
I1
sVd42d77e
p1812
I2
sVd07j77j
p1813
I1
sVd615qn6
p1814
I1
sVdjcmijn
p1815
I2
sVdqtnkxy
p1816
I1
sVd1286xp
p1817
I1
sVdrh1mvh
p1818
I1
sVddq5jpn
p1819
I2
sVd1n6bym
p1820
I1
sVdpmhw7y
p1821
I1
sVde9aien
p1822
I1
sVdpibzf2
p1823
I2
sVd9gv0ad
p1824
I1
sVd2al84s
p1825
I2
sVdhxhz3d
p1826
I1
sVdc14aw9
p1827
I1
sVdc8v1e5
p1828
I1
sVd2f8ttm
p1829
I1
sVdfv97j4
p1830
I1
sVdhcpfje
p1831
I1
sVdolqnot
p1832
I1
sVd5gpemr
p1833
I1
sVd8ey7lx
p1834
I1
sVde2te7d
p1835
I1
sVcz3d13b
p1836
I1
sVczm3uds
p1837
I1
sVdgg9flx
p1838
I1
sVczvy31f
p1839
I1
sVdnoj4jz
p1840
I1
sVd5rilbz
p1841
I1
sVdh66a2d
p1842
I1
sVdfrhz2d
p1843
I1
sVd9eetci
p1844
I1
sVcz1fwuu
p1845
I2
sVd58svc3
p1846
I1
sVcys83rv
p1847
I1
sVde5qsyr
p1848
I1
sVdfo8m72
p1849
I1
sVd1zioaf
p1850
I1
sVdc3b1c3
p1851
I1
sVdhc3v1u
p1852
I1
sVd2774cd
p1853
I1
sVda01v44
p1854
I2
sVd9anqe1
p1855
I1
sVd6i2grs
p1856
I1
sVcz3uvnt
p1857
I1
sVdel65aq
p1858
I1
sVczlwlaf
p1859
I1
sVdc8ypvs
p1860
I1
sVdfk2v3y
p1861
I1
sVd6xctcz
p1862
I1
sVdo5t27x
p1863
I1
sVdqix3ev
p1864
I1
sVd60g441
p1865
I2
sVdkqayny
p1866
I1
sVd4rqke7
p1867
I1
sVcyjoc5q
p1868
I2
sVddwl11x
p1869
I1
sVd270632
p1870
I1
sVdnm92os
p1871
I1
sVdbq6hds
p1872
I1
sVdfbv0cj
p1873
I1
sVd9jwdut
p1874
I1
sVdcqerg9
p1875
I2
sVd3hre0v
p1876
I1
sVdnka263
p1877
I1
sVczy2mr6
p1878
I1
sVd1rrst6
p1879
I1
sVdinu4ss
p1880
I1
sVdknvomu
p1881
I1
sVdfz0jc2
p1882
I1
sVd2ndipa
p1883
I1
sVdkxgl47
p1884
I1
sVd27cu72
p1885
I3
sVdhwc3yg
p1886
I1
sVd616fax
p1887
I1
sVda00btx
p1888
I1
sVcyzkoxy
p1889
I1
sVd1yzawc
p1890
I1
sVcyte658
p1891
I1
sVd7ay85v
p1892
I1
sVd0uj8zr
p1893
I1
sVdqy8l54
p1894
I1
sVdaslumo
p1895
I1
sVd95drlb
p1896
I1
sVczizez6
p1897
I1
sVd33pc4o
p1898
I1
sVdnmblnj
p1899
I1
sVd2ml0gm
p1900
I1
sVd6bpd1h
p1901
I1
sVdojoa3v
p1902
I1
sVd8sl9k2
p1903
I1
sVdsaj4lk
p1904
I1
sVdoetm07
p1905
I1
sVdgn5l10
p1906
I1
sVddoxh0p
p1907
I1
sVcypoifz
p1908
I1
sVdo1ar2x
p1909
I1
sVdq1507i
p1910
I2
sVd35p19i
p1911
I3
sVd5oa1wd
p1912
I1
sVdk0jmxw
p1913
I1
sVd6qnu3i
p1914
I2
sVd2tn9yy
p1915
I2
sVcyy7bjb
p1916
I1
sVd8pasuj
p1917
I1
sVdfmmzsu
p1918
I1
sVdddqq5e
p1919
I1
sVd89mgop
p1920
I1
sVcz3l6bw
p1921
I1
sVd696dzi
p1922
I1
sVd63hfht
p1923
I1
sVdbtfrd1
p1924
I1
sVcyrcle9
p1925
I1
sVd9n0tmr
p1926
I1
sVczip5q0
p1927
I1
sVd65gypz
p1928
I1
sVcyy5waz
p1929
I1
sVdfi2spw
p1930
I1
sVdand910
p1931
I1
sVd6jafce
p1932
I1
sVd327cvp
p1933
I1
sVde0z83i
p1934
I1
sVd01qhii
p1935
I1
sVdbj4rl4
p1936
I1
sVdbcg8q1
p1937
I1
sVdsc9bxg
p1938
I1
sVd6jgfui
p1939
I1
sVdc8zqfd
p1940
I1
sVdhpnolr
p1941
I1
sVdif1xcf
p1942
I1
sVd277y63
p1943
I1
sVdgcwtam
p1944
I1
sVd94si81
p1945
I1
sVdmq45bk
p1946
I1
sVdgwklsy
p1947
I1
sVd8ievpm
p1948
I1
sVdea2b9t
p1949
I1
sVd36gbmu
p1950
I1
sVdgtfuw2
p1951
I1
sVdjsly8i
p1952
I1
sVdduxx44
p1953
I1
sVdiuirzm
p1954
I1
sVd1mzhyd
p1955
I1
sVcynmp9g
p1956
I1
sVdiso09h
p1957
I1
sVdpw004y
p1958
I1
sVdafpr4j
p1959
I1
sVdco52o1
p1960
I1
sVd3fbtmm
p1961
I1
sVd1zpeks
p1962
I1
sVd8x2j3x
p1963
I1
sVd4dwf8p
p1964
I1
sVd5otshv
p1965
I2
sVdn6ry2q
p1966
I1
sVd3qkrgu
p1967
I1
sVddlny9f
p1968
I1
sVdsfx4vv
p1969
I1
sVcynkxgt
p1970
I2
sVd86ep85
p1971
I1
sVd2wb2i8
p1972
I1
sVd6ueun9
p1973
I1
sVd0o1700
p1974
I1
sVdbloee7
p1975
I1
sVdtgkqcs
p1976
I1
sVd4v32dm
p1977
I1
sVdfq3o2m
p1978
I1
sVdgory1o
p1979
I1
sVczm32gy
p1980
I1
sVd8zxjii
p1981
I1
sVd47aztn
p1982
I1
sVdn5jbim
p1983
I1
sVdfwz3n2
p1984
I1
sVd6u0qjk
p1985
I1
sVd1pt6do
p1986
I1
sVdcv1dra
p1987
I1
sVcywhh9v
p1988
I1
sVdjkaewp
p1989
I1
sVcz28r6p
p1990
I2
sVd1hbqsr
p1991
I1
sVdawjgrz
p1992
I1
sVd2askln
p1993
I1
sVd01s19l
p1994
I1
sVd013ylm
p1995
I2
sVdiyf230
p1996
I2
sVdb8hrxj
p1997
I1
sVczjd9ah
p1998
I1
sVddpfr1a
p1999
I1
sVdhag15e
p2000
I1
sVdh3wh9d
p2001
I2
sVd0ggxk3
p2002
I1
sVd31o2r2
p2003
I1
sVdd6t358
p2004
I1
sVd5boo1r
p2005
I1
sVd7roqms
p2006
I1
sVdetdo6c
p2007
I1
sVdgg0t1n
p2008
I1
sVdhd30oy
p2009
I1
sVd0o1jd7
p2010
I1
sVdq3f42v
p2011
I3
sVd13udun
p2012
I1
sVdg410rp
p2013
I1
sVdgzx318
p2014
I2
sVd4b4zco
p2015
I1
sVdc8zcan
p2016
I1
sVd0b68io
p2017
I1
sVcysmfgd
p2018
I1
sVdd920hs
p2019
I1
sVd4i3s2z
p2020
I1
sVda8bcdm
p2021
I1
sVd3gv93v
p2022
I1
sVdo2vk60
p2023
I3
sVdht49e5
p2024
I1
sVcypd9sv
p2025
I1
sVczdjptr
p2026
I1
sVdcapn8z
p2027
I1
sVd163vmb
p2028
I1
sVd4j7plr
p2029
I1
sVcyiwthd
p2030
I1
sVd975q2j
p2031
I1
sVdopxl0t
p2032
I1
sVdclz7rp
p2033
I1
sVd56i0cq
p2034
I1
sVd1unj20
p2035
I1
sVdhqay9y
p2036
I1
sVd1wn5o6
p2037
I1
sVdkgx2dl
p2038
I1
sVd0444b5
p2039
I1
sVd6nep9a
p2040
I1
sVd7f8ir4
p2041
I1
sVdf92gpl
p2042
I1
sVdjbopgj
p2043
I1
sVdn0zar2
p2044
I2
sVdh8evog
p2045
I1
sVdhwj42v
p2046
I1
sVd7tro3b
p2047
I1
sVd3ltw7a
p2048
I1
sVd5eaio4
p2049
I1
sVdbejtkk
p2050
I1
sVd1kegtc
p2051
I1
sVdjsqxqx
p2052
I1
sVd3nslo3
p2053
I1
sVdq4j4tc
p2054
I1
sVd3g0obq
p2055
I1
sVdjzzwty
p2056
I1
sVdgsbe2f
p2057
I1
sVd2bf1w0
p2058
I1
sVdq73rqq
p2059
I1
sVd00srho
p2060
I2
sVd2wpoge
p2061
I1
sVdo4fvg5
p2062
I1
sVdp0c88o
p2063
I1
sVdkvhhn3
p2064
I1
sVdagcv5o
p2065
I1
sVdkcbl0c
p2066
I1
sVd9wj3bn
p2067
I1
sVdbpt13i
p2068
I1
sVdh6bi7m
p2069
I1
sVdiziqv6
p2070
I2
sVdatqm5d
p2071
I1
sVd0i44jp
p2072
I2
sVd5hw2c4
p2073
I1
sVd58l62y
p2074
I1
sVd41cr9t
p2075
I1
sVd99xz7g
p2076
I1
sVda5gdwy
p2077
I1
sVdhr9l95
p2078
I1
sVddp0yk5
p2079
I1
sVddwopnh
p2080
I1
sVdd2eq6i
p2081
I1
sVd5d1py5
p2082
I1
sVcztai5e
p2083
I1
sVdgn4mwg
p2084
I1
sVd567k4h
p2085
I1
sVdjp128x
p2086
I1
sVdrkdmli
p2087
I2
sVde0719s
p2088
I1
sVdistsme
p2089
I1
sVdewu7f0
p2090
I1
sVd77o1oi
p2091
I1
sVds6sjvm
p2092
I1
sVd3zs89o
p2093
I2
sVdkp4gkc
p2094
I1
sVdr91qy1
p2095
I2
sVcyots9g
p2096
I1
sVdba5hpf
p2097
I1
sVdeg5i0l
p2098
I1
sVd09j432
p2099
I2
sVds6e90h
p2100
I1
sVdcjvb1x
p2101
I1
sVd4icgac
p2102
I1
sVdt26t2x
p2103
I1
sVd3e9j5n
p2104
I1
sVdbpb52p
p2105
I1
sVd1v017k
p2106
I1
sVd5exhwv
p2107
I1
sVdfwy29q
p2108
I1
sVdsvv833
p2109
I1
sVcyljclh
p2110
I1
sVdqlh04g
p2111
I1
sVdhhwkaa
p2112
I1
sVdcm3osi
p2113
I2
sVd4gty82
p2114
I1
sVdojk82o
p2115
I1
sVdhdp1ts
p2116
I1
sVdhx11xl
p2117
I1
sVdnfe8v4
p2118
I1
sVdftwtfa
p2119
I2
sVd6eyxyt
p2120
I1
sVdejyspn
p2121
I1
sVdc7xryq
p2122
I1
sVd0pqaxg
p2123
I1
sVd6948zg
p2124
I1
sVd2qr9br
p2125
I1
sVdkie22u
p2126
I1
sVdaufduj
p2127
I1
sVdj5aofm
p2128
I1
sVdcdnsqa
p2129
I2
sVd2yspm8
p2130
I1
sVdewozh7
p2131
I1
sVdbxnnvw
p2132
I1
sVd20z7t5
p2133
I2
sVdgj2wba
p2134
I1
sVdhc4yoy
p2135
I1
sVd3dxr48
p2136
I1
sVd7av1kc
p2137
I1
sVdc54rrl
p2138
I1
sVdb7rflf
p2139
I1
sVdbh708q
p2140
I1
sVdo47ipg
p2141
I1
sVd9x4dmg
p2142
I1
sVdjz5nr0
p2143
I1
sVd13zr84
p2144
I1
sVdih8kja
p2145
I1
sVdkiml7c
p2146
I1
sVditgt64
p2147
I1
sVdjyzruc
p2148
I3
sVdrrjsyw
p2149
I2
sVd3jvbxo
p2150
I1
sVd9by86s
p2151
I1
sVdptisef
p2152
I2
sVczokyq5
p2153
I1
sVd4m0729
p2154
I2
sVdbw1ro0
p2155
I1
sVd72qcw9
p2156
I1
sVcykn7dt
p2157
I1
sVd24wnrs
p2158
I1
sVddyqihx
p2159
I1
sVdfkr3lv
p2160
I1
sVd88nka7
p2161
I1
sVddc76e0
p2162
I1
sVd56o0nq
p2163
I1
sVd3kfp82
p2164
I1
sVd6ql7ua
p2165
I1
sVd67pyd9
p2166
I1
sVd2g2k26
p2167
I1
sVd073v2e
p2168
I1
sVd5y1awt
p2169
I1
sVdp1dabt
p2170
I1
sVdtirbmd
p2171
I1
sVd9pwe4j
p2172
I1
sVdguuf6w
p2173
I1
sVd6xtv28
p2174
I1
sVdbivm1m
p2175
I1
sVdn2mjaa
p2176
I1
sVdh0omtf
p2177
I1
sVdsx8ar7
p2178
I1
sVd97qlwo
p2179
I1
sVdhgwqks
p2180
I1
sVd66tesc
p2181
I1
sVdc2e29d
p2182
I1
sVd6e8bgt
p2183
I1
sVdgs7tgm
p2184
I1
sVd9s57p9
p2185
I1
sVd5x964r
p2186
I1
sVdhp7qfa
p2187
I1
sVd6ndz39
p2188
I1
sVdnri0rk
p2189
I1
sVd1amba0
p2190
I1
sVdi9j58o
p2191
I1
sVdbg8ukh
p2192
I1
sVdd2nbgm
p2193
I1
sVd46248j
p2194
I1
sVdpbe1zp
p2195
I1
sVdpccuad
p2196
I2
sVd1grqla
p2197
I1
sVd6l5dnr
p2198
I1
sVd56it7o
p2199
I1
sVdhgjfbc
p2200
I2
sVdobefsb
p2201
I1
sVd06dc3p
p2202
I1
sVdnklvvx
p2203
I1
sVdsa90bm
p2204
I1
sVd1ig5ot
p2205
I1
sVdo1fj4i
p2206
I1
sVcyobcrx
p2207
I1
sVdmyqc30
p2208
I1
sVd2exf2r
p2209
I1
sVddnpmca
p2210
I1
sVd3t7hss
p2211
I1
sVdesx7xc
p2212
I1
sVd3dirho
p2213
I1
sVdbhlbdb
p2214
I1
sVdhuo6wz
p2215
I1
sVd01ukii
p2216
I1
sVd5s0axs
p2217
I1
sVdqjzrnj
p2218
I1
sVdtfjqk8
p2219
I1
sVdb5nt5v
p2220
I1
sVczj1nr6
p2221
I1
sVdhle5ba
p2222
I2
sVdqncp6n
p2223
I1
sVdhohc2t
p2224
I1
sVd0lmte3
p2225
I1
sVdcbx4r7
p2226
I1
sVdkeykhx
p2227
I1
sVczz39e7
p2228
I2
sVd341gxi
p2229
I1
sVd12qtmj
p2230
I1
sVd46x45w
p2231
I1
sVd33t2o9
p2232
I1
sVd9bgynd
p2233
I1
sVdhwkmj4
p2234
I1
sVd3l6bi2
p2235
I1
sVcylhq5h
p2236
I1
sVdhqpq21
p2237
I1
sVczfam9r
p2238
I1
sVd0i99ew
p2239
I1
sVd571egi
p2240
I1
sVd68ywho
p2241
I1
sVdaynmsv
p2242
I1
sVdf34e5f
p2243
I2
sVd1yawgc
p2244
I1
sVdbmp266
p2245
I1
sVd7v0yur
p2246
I1
sVdmv2hb8
p2247
I1
sVd3v514m
p2248
I1
sVdbrcvzt
p2249
I1
sVdkgkihi
p2250
I1
sVdhlyb98
p2251
I1
sVd9ojyxo
p2252
I1
sVcyhtumq
p2253
I1
sVd1bndbo
p2254
I1
sVd1v79dx
p2255
I1
sVdbdo2fa
p2256
I1
sVdfe5x6x
p2257
I2
sVdjhcmgn
p2258
I1
sVd4m3sam
p2259
I1
sVdbfpbv9
p2260
I1
sVdbhhbps
p2261
I1
sVdbcn2dd
p2262
I1
sVdidbtox
p2263
I1
sVd5g9xx7
p2264
I1
sVd07mtgr
p2265
I1
sVd1lm4uj
p2266
I1
sVdel8i6p
p2267
I1
sVd01b1cp
p2268
I1
sVdrent0j
p2269
I1
sVdgzh9sb
p2270
I1
sVd3co9ze
p2271
I2
sVdi3iyn0
p2272
I1
sVdf10nqw
p2273
I1
sVdngxi91
p2274
I1
sVdguguhi
p2275
I1
sVd1k0bn0
p2276
I1
sVdqdnzou
p2277
I1
sVdixt4zo
p2278
I1
sVdn82osb
p2279
I2
sVdohjvs3
p2280
I1
sVd7qf2db
p2281
I1
sVdsgir7j
p2282
I1
sVdgcfmbd
p2283
I1
sVd0dkebp
p2284
I1
sVda8214i
p2285
I1
sVde4qcih
p2286
I1
sVdb985xy
p2287
I1
sVd1wkhic
p2288
I1
sVdeslmw8
p2289
I1
sVd0emh4y
p2290
I1
sVda5dg62
p2291
I1
sVczbip8l
p2292
I1
sVd4g797m
p2293
I1
sVdbguf4u
p2294
I2
sVdt219zz
p2295
I1
sVczt92vn
p2296
I1
sVdb4rhbu
p2297
I1
sVdcwo7m2
p2298
I1
sVdoj1ovo
p2299
I1
sVczqgpjh
p2300
I1
sVdfbe3hs
p2301
I1
sVdde9p29
p2302
I1
sVcznqlrm
p2303
I2
sVdc65mut
p2304
I1
sVdnwm9kt
p2305
I2
sVd9m77fg
p2306
I2
sVd18kfsr
p2307
I1
sVd9alx5t
p2308
I2
sVd9iij7n
p2309
I1
sVd6uhyqi
p2310
I1
sVdftdaqn
p2311
I1
sVd96w70b
p2312
I1
sVdb86r68
p2313
I1
sVdd8yr8n
p2314
I1
sVdpahbxb
p2315
I1
sVd2jy942
p2316
I1
sVda1zgp4
p2317
I1
sVdamp0lg
p2318
I1
sVdctw0ag
p2319
I2
sVdjcijxs
p2320
I1
sVdkormuf
p2321
I1
sVdrwg8di
p2322
I1
sVdhvjfb8
p2323
I3
sVd5rrv2d
p2324
I1
sVderi644
p2325
I1
sVd32hbe2
p2326
I1
sVd114z43
p2327
I3
sVd0jj0m5
p2328
I1
sVd3taq4j
p2329
I1
sVd0tbli5
p2330
I3
sVdn2ru7a
p2331
I1
sVdo4my9n
p2332
I1
sVd6xdeey
p2333
I1
sVdahct0l
p2334
I1
sVdigw33y
p2335
I1
sVcym5k4x
p2336
I1
sVd7rfa60
p2337
I1
sVd3dqa37
p2338
I1
sVdcek4xm
p2339
I1
sVdidzx63
p2340
I1
sVcz35poc
p2341
I1
sVdhduqjn
p2342
I1
sVdndxzke
p2343
I1
sVdbq5nd5
p2344
I1
sVd90x7m6
p2345
I1
sVczqvyqh
p2346
I1
sVd0cj7tm
p2347
I1
sVd1i99ht
p2348
I1
sVd1jgyfm
p2349
I1
sVd3rrowe
p2350
I1
sVdqxsj4i
p2351
I1
sVdhb4jbj
p2352
I1
sVdjuoh3a
p2353
I2
sVd7lrugz
p2354
I1
sVddunqos
p2355
I1
sVdasnw0v
p2356
I1
sVdhlnwn0
p2357
I1
sVd4l1hee
p2358
I1
sVdgcpuvu
p2359
I1
sVda8r2ec
p2360
I1
sVd15mi5o
p2361
I1
sVdsd4lxv
p2362
I1
sVdcb5jkh
p2363
I1
sVd4lxlwf
p2364
I3
sVd31c1av
p2365
I1
sVdoh6pni
p2366
I1
sVd0fcykt
p2367
I1
sVd39j7il
p2368
I1
sVczhlyo5
p2369
I1
sVdr41vfb
p2370
I1
sVd660bxh
p2371
I2
sVd9hqq5o
p2372
I1
sVd56wl0d
p2373
I1
sVd2ozml9
p2374
I1
sVde2ximb
p2375
I1
sVdqx9um6
p2376
I3
sVdr6ir84
p2377
I1
sVdn2s0xm
p2378
I1
sVd4ms560
p2379
I2
sVd3hq1c8
p2380
I2
sVczs30q1
p2381
I1
sVdb79n87
p2382
I1
sVdijctc3
p2383
I1
sVdfe6c2z
p2384
I1
sVdeyyize
p2385
I1
sVdas5jds
p2386
I1
sVdjzo6ow
p2387
I2
sVd1cf8ea
p2388
I1
sVdnet8vb
p2389
I1
sVd6uit96
p2390
I1
sVd52b0ig
p2391
I1
sVcylhrh3
p2392
I2
sVd01f47r
p2393
I1
sVdtb9yj3
p2394
I1
sVdbgl6k7
p2395
I1
sVdkrxmbm
p2396
I1
sVd7kc4ew
p2397
I1
sVcz4q2aq
p2398
I1
sVdmeo29b
p2399
I1
sVdb1box5
p2400
I1
sVd14qvzm
p2401
I1
sVdjlxphw
p2402
I1
sVdbdpc3w
p2403
I1
sVdmikeag
p2404
I1
sVd6kvpyq
p2405
I1
sVdqn21vr
p2406
I1
sVdkn89cx
p2407
I1
sVd92tp7r
p2408
I1
sVd4nc3k4
p2409
I1
sVd4mz5qy
p2410
I1
sVdjakdha
p2411
I1
sVd3ah1gi
p2412
I1
sVd8dkxz5
p2413
I1
sVddkpu2w
p2414
I1
sVdjhv0l1
p2415
I1
sVd0eoaf7
p2416
I1
sVda9e8sf
p2417
I2
sVdd3xfkc
p2418
I1
sVdncnd9b
p2419
I1
sVd2dmwqp
p2420
I1
sVd1g5ngo
p2421
I1
sVdj90pgh
p2422
I1
sVd6omr2o
p2423
I1
sVdpw0y7e
p2424
I1
sVdh4gkbr
p2425
I1
sVd19kgic
p2426
I1
sVdpbs7jy
p2427
I1
sVdnce8wn
p2428
I1
sVdg0wnea
p2429
I1
sVd1wg5sj
p2430
I1
sVddrje29
p2431
I2
sVd34etbi
p2432
I1
sVdg14309
p2433
I1
sVd2c3vkm
p2434
I1
sVdbw42xf
p2435
I2
sVdcffrfe
p2436
I1
sVdc9546j
p2437
I2
sVddvw2lk
p2438
I1
sVczqipqn
p2439
I1
sVdi26r3l
p2440
I1
sVd7mxi1f
p2441
I1
sVd71afrt
p2442
I1
sVd4r5msw
p2443
I1
sVd3cdaw3
p2444
I1
sVd7yzn0x
p2445
I1
sVd8py1sl
p2446
I1
sVdckdkoq
p2447
I1
sVdqxajmu
p2448
I1
sVd075qp7
p2449
I1
sVdnlst5j
p2450
I1
sVcysakg2
p2451
I1
sVdji4ses
p2452
I1
sVdazgv6k
p2453
I3
sVd2d4bsu
p2454
I1
sVdjqv5wc
p2455
I2
sVd2e8zqw
p2456
I1
sVdo4vwyw
p2457
I1
sVd2c6ts4
p2458
I1
sVd6j2mzd
p2459
I1
sVdczpg1y
p2460
I1
sVd1kl8k7
p2461
I1
sVdhkn0mo
p2462
I2
sVd7c1n0g
p2463
I1
sVdf0bep6
p2464
I1
sVdrpwf43
p2465
I1
sVd2edit6
p2466
I1
sVdmwfiqc
p2467
I1
sVd30gqf1
p2468
I1
sVd1ctydy
p2469
I5
sVd2ez10f
p2470
I1
sVd89jh73
p2471
I1
sVd2up1sw
p2472
I1
sVd01miu9
p2473
I1
sVdhsif75
p2474
I1
sVd0rmazb
p2475
I1
sVd3lkut2
p2476
I1
sVd0mb4iv
p2477
I1
sVdaumg1n
p2478
I1
sVdhg5pib
p2479
I2
sVdi5uil0
p2480
I1
sVdosxaos
p2481
I1
sVdjar8sg
p2482
I1
sVd5znybv
p2483
I1
sVd9val4v
p2484
I1
sVd3zfq4n
p2485
I1
sVdo9oeeo
p2486
I1
sVd44vjo6
p2487
I1
sVdf6kqmp
p2488
I1
sVd2tynlo
p2489
I1
sVdduh386
p2490
I1
sVdokwoz5
p2491
I1
sVdhe3so4
p2492
I1
sVd39u52e
p2493
I1
sVdanod3j
p2494
I1
sVd7re6us
p2495
I1
sVd05tqhe
p2496
I1
sVdptox2m
p2497
I1
sVde6kwan
p2498
I1
sVdgnvfjm
p2499
I3
sVczrsmo5
p2500
I1
sVdi58j4i
p2501
I1
sVdg1mmbh
p2502
I1
sVcyjhm7c
p2503
I1
sVdaz1jop
p2504
I1
sVd4eqq4n
p2505
I1
sVdrkn4dm
p2506
I2
sVdiu5736
p2507
I1
sVdd29qgt
p2508
I1
sVdp5kbww
p2509
I1
sVdiq2s67
p2510
I1
sVd815dbc
p2511
I1
sVdacgfel
p2512
I1
sVd7aod2p
p2513
I1
sVdokby3f
p2514
I2
sVdi9xe6c
p2515
I1
sVczkblve
p2516
I2
sVdqgvxl4
p2517
I1
sVdsx2ki6
p2518
I1
sVd13zakf
p2519
I1
sVd6b5967
p2520
I1
sVdhkf93w
p2521
I1
sVddwlr1g
p2522
I1
sVdcnx4u4
p2523
I1
sVdo7v734
p2524
I1
sVdftx09t
p2525
I1
sVdnhw2zh
p2526
I1
sVd4ys9g0
p2527
I1
sVdt612vf
p2528
I1
sVdbbjowe
p2529
I1
sVdp2ddx0
p2530
I1
sVczpwfdu
p2531
I2
sVcypy8yz
p2532
I1
sVdkj7gh1
p2533
I1
sVd2o34ji
p2534
I1
sVd77l7mx
p2535
I1
sVdhrilnw
p2536
I1
sVd7esffw
p2537
I1
sVdn2mg49
p2538
I1
sVd863h14
p2539
I1
sVdfdzt1t
p2540
I2
sVddcydfx
p2541
I1
sVdcaxoeu
p2542
I1
sVdhht0nx
p2543
I1
sVczl3jyn
p2544
I2
sVdok1pi1
p2545
I1
sVd63qczi
p2546
I1
sVdh15hzy
p2547
I1
sVd212ynv
p2548
I2
sVdargq61
p2549
I1
sVdcdh3x1
p2550
I1
sVd62pzfk
p2551
I3
sVdjwy3gz
p2552
I1
sVcz6402l
p2553
I1
sVd8s9suk
p2554
I1
sVdes1d4z
p2555
I1
sVd0b8ri7
p2556
I1
sVdjkfktd
p2557
I1
sVd1hu2yx
p2558
I1
sVdi9823u
p2559
I1
sVd0s1gu7
p2560
I1
sVdfg0hil
p2561
I1
sVcyt7q09
p2562
I1
sVdg3znut
p2563
I2
sVdc0rfp5
p2564
I1
sVdmgauw1
p2565
I1
sVd275vij
p2566
I1
sVdsny3s0
p2567
I1
sVd6m2232
p2568
I1
sVdp3fcez
p2569
I2
sVd4snapv
p2570
I1
sVd9vl24j
p2571
I2
sVd4k6s39
p2572
I1
sVdd6so7t
p2573
I1
sVd4tedy0
p2574
I1
sVdqf1gdz
p2575
I1
sVczji6jf
p2576
I1
sVdfgz8hc
p2577
I1
sVd17qlu4
p2578
I1
sVd1zvjx3
p2579
I1
sVdte6evt
p2580
I1
sVd1jjz00
p2581
I1
sVd9cwo1z
p2582
I1
sVdi7o82v
p2583
I1
sVdecjcri
p2584
I1
sVdqw8z6c
p2585
I1
sVdmjqegj
p2586
I1
sVczm3655
p2587
I1
sVd5usmmo
p2588
I1
sVdaiojvl
p2589
I1
sVd19hipq
p2590
I1
sVdnjot2b
p2591
I1
sVcywtyz8
p2592
I1
sVdf0wp9g
p2593
I1
sVd2tj4ej
p2594
I1
sVd3phutt
p2595
I1
sVd043ylo
p2596
I1
sVd1fh0s9
p2597
I1
sVcznx708
p2598
I1
sVdbmg0a6
p2599
I1
sVdo6r5fu
p2600
I1
sVdb5cbdz
p2601
I1
sVd1y8t09
p2602
I1
sVdh9ue98
p2603
I1
sVdi0s8eu
p2604
I1
sVd4ukw41
p2605
I1
sVdb01in9
p2606
I1
sVdbvls7y
p2607
I1
sVd0laz6t
p2608
I2
sVcyrqh4p
p2609
I1
sVdjb3bei
p2610
I1
sVd66n3e1
p2611
I1
sVdameh1x
p2612
I2
sVd30s4yg
p2613
I1
sVdmh3uyc
p2614
I1
sVdjuosj6
p2615
I1
sVczfyca4
p2616
I1
sVdrnsff2
p2617
I1
sVcyt9vt0
p2618
I1
sVd9jrda0
p2619
I1
sVd90llvk
p2620
I1
sVdjyt4eu
p2621
I1
sVdevbkbh
p2622
I1
sVd1lio2q
p2623
I1
sVd9b62zz
p2624
I1
sVdc0x5ih
p2625
I1
sVd5aq6bs
p2626
I1
sVdhaeths
p2627
I1
sVdf61hl7
p2628
I1
sVde4c0n7
p2629
I1
sVdhrovkf
p2630
I1
sVddid05k
p2631
I1
sVd3jbi5r
p2632
I1
sVd0ei6zf
p2633
I1
sVd4l6j47
p2634
I1
sVd3gyrg8
p2635
I2
sVdgpz8lr
p2636
I1
sVdnji8yt
p2637
I1
sVdg00fv3
p2638
I1
sVdkuxu6n
p2639
I1
sVd1o3p8i
p2640
I1
sVd8nhx38
p2641
I1
sVderjxwr
p2642
I2
sVd9dmij2
p2643
I2
sVd41tmv6
p2644
I1
sVdeln5ls
p2645
I1
sVdirewc1
p2646
I1
sVdmx2v1d
p2647
I1
sVdi9gia4
p2648
I1
sVd65zmok
p2649
I1
sVd50um00
p2650
I1
sVd84ezl4
p2651
I1
sVcyjsrx0
p2652
I1
sVd11ofrw
p2653
I1
sVdct4k8o
p2654
I1
sVd1ph6qd
p2655
I1
sVdnfd4z9
p2656
I1
sVdawzuhg
p2657
I1
sVdimcqam
p2658
I1
sVdg5uuug
p2659
I1
sVd04ctyr
p2660
I1
sVd0wr511
p2661
I1
sVdnnb8kz
p2662
I1
sVd03uca7
p2663
I1
sVdf35p3m
p2664
I1
sVdd6r948
p2665
I1
sVdafwp07
p2666
I1
sVddbqylj
p2667
I1
sVdbgpejv
p2668
I1
sVddwxaxs
p2669
I2
sVdewg6r9
p2670
I1
sVd8vg749
p2671
I1
sVdmuv132
p2672
I1
sVczeyo93
p2673
I1
sVd47f48z
p2674
I1
sVds9icrz
p2675
I1
sVcz3o7ql
p2676
I1
sVdejbqyw
p2677
I1
sVd7pb80q
p2678
I1
sVdggkfrs
p2679
I1
sVdr7tuco
p2680
I1
sVd70l14b
p2681
I1
sVd2zwxzf
p2682
I1
sVd1s4g4k
p2683
I1
sVdf3k7qc
p2684
I1
sVdcbadjp
p2685
I1
sVd0f8ah7
p2686
I1
sVd5eca0s
p2687
I1
sVd26v8t2
p2688
I2
sVdcdc51e
p2689
I2
sVd381mh4
p2690
I2
sVdeatnlu
p2691
I2
sVd6t87mh
p2692
I1
sVdok1chm
p2693
I1
sVd1y4d2e
p2694
I1
sVdg5onrm
p2695
I1
sVd16logy
p2696
I1
sVdtapp4r
p2697
I1
sVdc3xxhp
p2698
I1
sVd03p2q7
p2699
I1
sVd21156i
p2700
I1
sVdoskhpc
p2701
I1
sVdik9o0k
p2702
I1
sVd3e8cqr
p2703
I2
sVdbfieni
p2704
I1
sVd3b1n5i
p2705
I2
sVd1yt4ba
p2706
I1
sVdbwdn8f
p2707
I1
sVdojekas
p2708
I1
sVd9cdu88
p2709
I1
sVd9q6wve
p2710
I1
sVd6mn6lt
p2711
I1
sVdfkxvdj
p2712
I1
sVdiuumrk
p2713
I1
sVdfk1vsm
p2714
I1
sVd1w5u4y
p2715
I1
sVcyywfwv
p2716
I1
sVd4ia1kn
p2717
I1
sVdiaqr3l
p2718
I1
sVd3xdm5r
p2719
I1
sVd0uql8b
p2720
I1
sVd42jtkj
p2721
I1
sVdhl2jb2
p2722
I1
sVdc12pdl
p2723
I1
sVd83567n
p2724
I1
sVdhu3o80
p2725
I1
sVdboqr86
p2726
I1
sVdpvyvdv
p2727
I1
sVddlzlrm
p2728
I1
sVd4xpav9
p2729
I1
sVczo8kl9
p2730
I2
sVdczcj57
p2731
I1
sVdg18zra
p2732
I1
sVd7aj6jz
p2733
I1
sVde0016j
p2734
I1
sVdebclwv
p2735
I1
sVcyxrz88
p2736
I1
sVdghdwl4
p2737
I1
sVd6guco3
p2738
I1
sVdj1sxrk
p2739
I1
sVd9vbs5w
p2740
I1
sVd340hvl
p2741
I1
sVd61k7tk
p2742
I1
sVd5jgers
p2743
I1
sVdegfjsa
p2744
I1
sVd2tnnmt
p2745
I1
sVd7e9de8
p2746
I1
sVdnov6pw
p2747
I2
sVdo4akm3
p2748
I1
sVd51i0mv
p2749
I1
sVd4mutrj
p2750
I2
sVda3aqju
p2751
I1
sVdkn0mcc
p2752
I1
sVcywnq2l
p2753
I1
sVdg3bcq6
p2754
I1
sVd0ia400
p2755
I1
sVd8zkosx
p2756
I1
sVdcb7cde
p2757
I2
sVd2jj4hq
p2758
I1
sVd0tsxk8
p2759
I1
sVd9fokwi
p2760
I2
sVd8k3cbo
p2761
I1
sVdgypd16
p2762
I2
sVd2y6d81
p2763
I1
sVczescx9
p2764
I1
sVd1vblwx
p2765
I1
sVddsqrwf
p2766
I1
sVdst5xqr
p2767
I1
sVd5aql9q
p2768
I1
sVdixhta0
p2769
I1
sVdffezms
p2770
I1
sVd03wot7
p2771
I1
sVdai4jwl
p2772
I1
sVcywntpe
p2773
I1
sVdewg8g4
p2774
I1
sVdmjbf62
p2775
I2
sVcymi51q
p2776
I2
sVdev3gj2
p2777
I1
sVda9n94s
p2778
I1
sVdgrx1gr
p2779
I1
sVcyq9alo
p2780
I1
sVd2ptbtk
p2781
I1
sVdn7vn0s
p2782
I1
sVd1bemel
p2783
I1
sVczmphcb
p2784
I1
sVd3hf51w
p2785
I2
sVcyj0fx0
p2786
I1
sVczdqy8z
p2787
I1
sVdc5jdir
p2788
I1
sVd3i08ii
p2789
I2
sVdeq9jdp
p2790
I1
sVddeucpg
p2791
I1
sVd2x4kmh
p2792
I1
sVd6ywuwx
p2793
I1
sVds23ptx
p2794
I1
sVdam9mji
p2795
I1
sVd1xwcs2
p2796
I1
sVddiszg7
p2797
I1
sVdf3i0eh
p2798
I1
sVddse65y
p2799
I1
sVd08xm5m
p2800
I1
sVd3y55q2
p2801
I1
sVdtanto8
p2802
I1
sVd05641a
p2803
I1
sVd48nfo2
p2804
I1
sVcylufu2
p2805
I1
sVd42tbcn
p2806
I1
sVd85mz7g
p2807
I1
sVd8oioam
p2808
I1
sVdcuh86x
p2809
I1
sVcykg2gc
p2810
I1
sVdeauigl
p2811
I3
sVdauobmb
p2812
I1
sVcyuyk5g
p2813
I1
sVd4p75x5
p2814
I1
sVd0cd5tk
p2815
I1
sVdh5moaj
p2816
I1
sVd19102d
p2817
I1
sVdeuon0l
p2818
I1
sVd72n2t7
p2819
I1
sVd37vavd
p2820
I1
sVcyzli4i
p2821
I2
sVdo2dcgp
p2822
I1
sVdew8iyu
p2823
I2
sVdku8rmn
p2824
I1
sVdd7g1f9
p2825
I1
sVdt30bnj
p2826
I1
sVczw4h3i
p2827
I1
sVcz7diow
p2828
I1
sVd4lxgmp
p2829
I1
sVdfg6pt2
p2830
I1
sVdc4w69s
p2831
I1
sVczx9h3n
p2832
I1
sVd8aveso
p2833
I1
sVd59bnoa
p2834
I2
sVdab445g
p2835
I1
sVdj4wp3b
p2836
I1
sVd3v6ddc
p2837
I1
sVd2igh9x
p2838
I1
sVd3ol30g
p2839
I1
sVdftuefv
p2840
I1
sVd9ugu89
p2841
I2
sVd89ybfz
p2842
I1
sVdn4qhvz
p2843
I1
sVdegbi4y
p2844
I1
sVdayqibk
p2845
I1
sVddnf67w
p2846
I1
sVdql0wxz
p2847
I1
sVdc08nj2
p2848
I1
sVcyqqagj
p2849
I1
sVcz2qywo
p2850
I1
sVdc8yg3n
p2851
I1
sVd4bgrj9
p2852
I1
sVdifsaum
p2853
I1
sVdd4v526
p2854
I1
sVczjqqlw
p2855
I1
sVdbxo6kk
p2856
I1
sVczx0mln
p2857
I1
sVd1skrlv
p2858
I1
sVdkhe9i0
p2859
I1
sVd8uhm7l
p2860
I1
sVd9cvk2k
p2861
I1
sVdao54kn
p2862
I1
sVd6m73i1
p2863
I1
sVd19s1nf
p2864
I1
sVdg8epj0
p2865
I1
sVd40ebiq
p2866
I1
sVd5zl4bi
p2867
I1
sVdejkjkk
p2868
I1
sVd6pl4q5
p2869
I1
sVdo4z8bu
p2870
I1
sVdsp2lxt
p2871
I1
sVczldo17
p2872
I1
sVd4olgmh
p2873
I2
sVcyvap6u
p2874
I1
sVde7uicw
p2875
I1
sVdbdyb4p
p2876
I1
sVcypc34p
p2877
I1
sVdd53l5t
p2878
I1
sVdf72pf7
p2879
I1
sVdeuext6
p2880
I1
sVd7c9g9q
p2881
I1
sVdbck0h9
p2882
I1
sVdjgphkc
p2883
I1
sVd1kw03e
p2884
I1
sVd063c0l
p2885
I1
sVdjgs7m7
p2886
I1
sVdfyfow6
p2887
I1
sVd1zlcg4
p2888
I1
sVdnp37gt
p2889
I1
sVdetmapm
p2890
I1
sVd671481
p2891
I1
sVdpv5t0w
p2892
I1
sVdc8xox3
p2893
I1
sVdgy2pp8
p2894
I1
sVd2rhpua
p2895
I1
sVdhwx1cz
p2896
I1
sVdbqfa8g
p2897
I1
sVd50jgxt
p2898
I1
sVdfp49nr
p2899
I1
sVd1ewx3c
p2900
I1
sVd5gvv10
p2901
I1
sVdet75ws
p2902
I1
sVdbkk8ma
p2903
I1
sVcywpfmm
p2904
I1
sVd60riz0
p2905
I1
sVd1g5oqc
p2906
I1
sVd0e95mo
p2907
I1
sVd97bj22
p2908
I1
sVdd7c5vw
p2909
I1
sVdq3mcjj
p2910
I1
sVd0wh8cb
p2911
I1
sVd2koktf
p2912
I1
sVd8drren
p2913
I1
sVd59udul
p2914
I1
sVd91g1ja
p2915
I1
sVd1hcxwk
p2916
I1
sVdqm0fo6
p2917
I1
sVdbs2xbw
p2918
I1
sVd5crsyz
p2919
I1
sVdh4i10i
p2920
I1
sVdk5etx9
p2921
I1
sVdh40n2r
p2922
I1
sVdnycwr0
p2923
I1
sVcz1xyxt
p2924
I2
sVd1jr9ae
p2925
I3
sVdrpspcx
p2926
I1
sVdj42cnk
p2927
I1
sVdmvsc40
p2928
I1
sVddolpsd
p2929
I1
sVdigkmj3
p2930
I1
sVczevsun
p2931
I1
sVd2vty3g
p2932
I1
sVd238q2s
p2933
I1
sVdbuplm8
p2934
I1
sVd6h7z06
p2935
I1
sVdkak3l3
p2936
I1
sVdkvneqd
p2937
I1
sVd97ioxb
p2938
I1
sVdi2bh0s
p2939
I1
sVd3mpsjz
p2940
I1
sVdmwf0s9
p2941
I1
sVdgo921q
p2942
I2
sVdia375c
p2943
I1
sVdizwxda
p2944
I1
sVdbcx1j6
p2945
I1
sVd0zpdwq
p2946
I1
sVd2799ko
p2947
I1
sVd4jv29u
p2948
I1
sVd0ya4rv
p2949
I1
sVd78uqh9
p2950
I1
sVdi0mjxs
p2951
I1
sVd64tpwy
p2952
I1
sVdcbkc0w
p2953
I1
sVd6d8f6c
p2954
I1
sVdr0f24t
p2955
I1
sVd50g7xo
p2956
I1
sVd70ot5x
p2957
I1
sVczgtber
p2958
I1
sVdqbs4x9
p2959
I1
sVddlz9hz
p2960
I1
sVczhsweo
p2961
I1
sVdadp1pa
p2962
I1
sVdr9pj0y
p2963
I1
sVd0qumwm
p2964
I1
sVdhr3uuq
p2965
I1
sVdspaxuu
p2966
I1
sVczjrptf
p2967
I2
sVd80glyr
p2968
I1
sVdr3dncx
p2969
I1
sVdd756lb
p2970
I1
sVd3mcmzt
p2971
I1
sVdnjlxcl
p2972
I1
sVdh9cl3r
p2973
I1
sVd6p0q63
p2974
I2
sVd272tg3
p2975
I7
sVdg8e1ti
p2976
I1
sVdnnpj4i
p2977
I1
sVdilb2ro
p2978
I1
sVdbwjcw9
p2979
I1
sVdmpvn6m
p2980
I1
sVdhwk0i2
p2981
I1
sVdhbthp7
p2982
I1
sVdejn3wf
p2983
I1
sVdrhy0vg
p2984
I1
sVdd11gf5
p2985
I1
sVdb806yn
p2986
I1
sVcyjrfco
p2987
I1
sVd45y215
p2988
I1
sVdjqqa6z
p2989
I1
sVcz79j7v
p2990
I1
sVcz6jeqx
p2991
I1
sVda6vhp2
p2992
I1
sVdq9dq1b
p2993
I1
sVdjpmlyn
p2994
I1
sVd421fui
p2995
I1
sVdmfk6h1
p2996
I1
sVd4m55l7
p2997
I1
sVd27a5fb
p2998
I1
sVcynu7f5
p2999
I1
sVd54nddy
p3000
I1
sVdk94fbz
p3001
I1
sVd1odcfp
p3002
I1
sVczjgit0
p3003
I1
sVd999kit
p3004
I1
sVd835meo
p3005
I1
sVd3yg2a8
p3006
I1
sVd3h3hba
p3007
I1
sVd9q0lpz
p3008
I2
sVczwq4rl
p3009
I2
sVdh64gbq
p3010
I1
sVd6muikl
p3011
I1
sVd33snsp
p3012
I1
sVdb2m3r2
p3013
I1
sVdg4wdv2
p3014
I1
sVd09e57g
p3015
I1
sVd6p3u36
p3016
I2
sVddyi67g
p3017
I1
sVcyv6goc
p3018
I1
sVdj1muqd
p3019
I1
sVdnd18ec
p3020
I1
sVczowr0a
p3021
I1
sVczvew58
p3022
I1
sVd1phdaw
p3023
I1
sVdsqpti0
p3024
I1
sVd3e8spp
p3025
I1
sVdcj9khr
p3026
I1
sVdiqkhaw
p3027
I1
sVd4f501d
p3028
I1
sVd40vf7l
p3029
I1
sVdrblxoz
p3030
I1
sVd4kk78a
p3031
I1
sVd55cgza
p3032
I1
sVdqmyky5
p3033
I1
sVdb7u304
p3034
I1
sVdkqndec
p3035
I1
sVdc9qxm9
p3036
I1
sVcyjs9c3
p3037
I1
sVd69wq82
p3038
I1
sVdh6hwnq
p3039
I1
sVd30esxe
p3040
I1
sVdcqjoxh
p3041
I1
sVdnl38r1
p3042
I1
sVd1j78be
p3043
I1
sVd4cwvua
p3044
I1
sVdko54jw
p3045
I1
sVd7um1pu
p3046
I1
sVdg8m8m9
p3047
I1
sVd9m80ip
p3048
I1
sVdo2sh5y
p3049
I1
sVds4svrj
p3050
I1
sVd6okiou
p3051
I1
sVd3h6dzz
p3052
I1
sVdi502ad
p3053
I1
sVdjm9e4e
p3054
I2
sVd9fxkwi
p3055
I3
sVd572bno
p3056
I1
sVcz83c0o
p3057
I1
sVddgfy58
p3058
I1
sVd8o2iav
p3059
I1
sVd5ew16p
p3060
I1
sVdapyrbm
p3061
I1
sVd5gz3av
p3062
I1
sVd4zaugb
p3063
I1
sVdg820ky
p3064
I1
sVcytmcno
p3065
I1
sVdowgdi1
p3066
I1
sVdd4asf9
p3067
I1
sVdpk428d
p3068
I1
sVd49ghis
p3069
I1
sVdfvuhig
p3070
I1
sVdfcofai
p3071
I1
sVdf37xf5
p3072
I1
sVde6o9lx
p3073
I1
sVdf6bsw4
p3074
I1
sVcyv1w49
p3075
I1
sVdnd5hmk
p3076
I1
sVdj94vgn
p3077
I1
sVdb58hx8
p3078
I1
sVd2a7nsk
p3079
I1
sVd1a6gzz
p3080
I1
sVdndabs8
p3081
I1
sVd9dcte1
p3082
I1
sVdj6y78g
p3083
I1
sVdddkj5s
p3084
I1
sVd3x4o1c
p3085
I1
sVd6hdef9
p3086
I4
sVdo7gvdt
p3087
I1
sVd8g9z8v
p3088
I1
sVd334606
p3089
I1
sVcznj8df
p3090
I1
sVdjb6u2c
p3091
I1
sVdcvgpez
p3092
I2
sVdsqhcgr
p3093
I1
sVdipc3ie
p3094
I1
sVdcvydb0
p3095
I1
sVd54gp64
p3096
I1
sVdr1wfdg
p3097
I1
sVdihgw2h
p3098
I1
sVde16v9u
p3099
I1
sVdqs6ze6
p3100
I1
sVdt688uf
p3101
I1
sVdkp1w2y
p3102
I1
sVd3zvfwr
p3103
I1
sVdi9bj8q
p3104
I1
sVdj7q0is
p3105
I1
sVd2snrrd
p3106
I1
sVd92vj3h
p3107
I1
sVdihnnjr
p3108
I1
sVcylk0by
p3109
I1
sVdebl5pb
p3110
I1
sVd58bakc
p3111
I1
sVdip2o0j
p3112
I1
sVdcfengy
p3113
I1
sVdgbdqcz
p3114
I1
sVd001s68
p3115
I1
sVdgxdh8f
p3116
I1
sVd17whxx
p3117
I1
sVd5zhjhg
p3118
I1
sVcz2if4j
p3119
I1
sVdir6z21
p3120
I1
sVdcl5yy6
p3121
I1
sVczvjoz0
p3122
I1
sVdfoxxxu
p3123
I1
sVd9i9bam
p3124
I1
sVdn6vmkh
p3125
I1
sVdd87zvu
p3126
I1
sVdb3b0mz
p3127
I1
sVdcvmikh
p3128
I1
sVddaejzt
p3129
I1
sVd8q10up
p3130
I1
sVdbmkq5d
p3131
I2
sVdndawun
p3132
I1
sVd37pdv1
p3133
I1
sVczz1oax
p3134
I1
sVdsvvl6d
p3135
I1
sVczvfiis
p3136
I1
sVd70fujb
p3137
I1
sVdacq726
p3138
I1
sVdeqgnfp
p3139
I1
sVdj57o3r
p3140
I1
sVcz35pc8
p3141
I1
sVdmzcau5
p3142
I1
sVd83p3m7
p3143
I1
sVddr4u2h
p3144
I1
sVd8lwnns
p3145
I1
sVd3i7dgg
p3146
I1
sVd015m1r
p3147
I1
sVdppxdwh
p3148
I1
sVdjtulrs
p3149
I1
sVd6zysmn
p3150
I1
sVdclk2x1
p3151
I1
sVdc3c2vf
p3152
I1
sVde66er1
p3153
I1
sVdj8gb4m
p3154
I1
sVdsyxb8i
p3155
I1
sVd4fntrc
p3156
I1
sVdqe207n
p3157
I1
sVdd7rlpc
p3158
I1
sVdbg6wsj
p3159
I1
sVd6tixnn
p3160
I1
sVd60i8jj
p3161
I1
sVd3gzpum
p3162
I1
sVcyv5cz6
p3163
I1
sVd10neuf
p3164
I2
sVd732znh
p3165
I1
sVdhx6bn4
p3166
I1
sVd2bmji5
p3167
I1
sVd5zcu7n
p3168
I1
sVczmi7ly
p3169
I1
sVd0y9i08
p3170
I1
sVd9iq5km
p3171
I1
sVdcdmoqm
p3172
I3
sVd8j9e5u
p3173
I1
sVczt7rrq
p3174
I1
sVd4ua1l3
p3175
I1
sVd22ukzq
p3176
I1
sVcznwm9r
p3177
I1
sVdazeijf
p3178
I1
sVd4eel1e
p3179
I1
sVdd1fl6b
p3180
I1
sVd95qgrk
p3181
I2
sVdf1v59j
p3182
I1
sVczlg5ws
p3183
I1
sVd6m1zo2
p3184
I1
sVdo4jgff
p3185
I1
sVd726evj
p3186
I2
sVdpqgqee
p3187
I2
sVd4rwh7d
p3188
I1
sVdk8uomo
p3189
I1
sVd0zewga
p3190
I1
sVdckhbgp
p3191
I1
sVdatw7bx
p3192
I1
sVd2ymyaz
p3193
I2
sVdgnimlf
p3194
I1
sVdbtkbmw
p3195
I1
sVd1spaur
p3196
I1
sVdin5v4r
p3197
I1
sVdaw4yd8
p3198
I1
sVdq3g3cy
p3199
I2
sVd59rx3z
p3200
I1
sVcyjaxya
p3201
I1
sVd69seym
p3202
I1
sVd29swor
p3203
I1
sVdkft57k
p3204
I1
sVd0alj88
p3205
I1
sVd7i0eb6
p3206
I1
sVd8o6cn8
p3207
I1
sVdfsdt28
p3208
I1
sVdeuy1e3
p3209
I1
sVcypsjwi
p3210
I1
sVdf8ko30
p3211
I1
sVdgw1kmd
p3212
I1
sVdi6f2rq
p3213
I1
sVcytp44s
p3214
I2
sVd22aoll
p3215
I1
sVds6l2l2
p3216
I1
sVdnqhp8f
p3217
I1
sVd92o449
p3218
I1
sVddda3l0
p3219
I1
sVdmmc6fc
p3220
I1
sVd3w7uf0
p3221
I1
sVd0mghnl
p3222
I2
sVdpnr46l
p3223
I1
sVd11ouq8
p3224
I1
sVddu5v6z
p3225
I2
sVdb7vu2k
p3226
I1
sVdc1vt04
p3227
I2
sVd98jhvb
p3228
I1
sVdgksvdb
p3229
I1
sVdf7n8cg
p3230
I1
sVd19xwqp
p3231
I1
sVdidsvob
p3232
I1
sVd09a3kv
p3233
I2
sVdds9vdg
p3234
I1
sVd3mvq65
p3235
I1
sVd06qirt
p3236
I1
sVd0t9ej4
p3237
I1
sVczt9v8g
p3238
I1
sVd8oruf3
p3239
I1
sVczb0d7y
p3240
I1
sVdqz7dht
p3241
I1
sVdq3n69a
p3242
I1
sVdrt4ys6
p3243
I1
sVd7r9vg8
p3244
I1
sVdk851v6
p3245
I1
sVd2bzlcb
p3246
I1
sVdek37y5
p3247
I1
sVd3b4hk5
p3248
I1
sVcz5o1um
p3249
I3
sVdd7n8ud
p3250
I1
sVdb3doeg
p3251
I1
sVd84qhon
p3252
I1
sVdk6g86k
p3253
I1
sVd38m2qm
p3254
I1
sVcyxdv50
p3255
I1
sVdeh6paj
p3256
I1
sVdo49ljg
p3257
I1
sVdtdvzot
p3258
I1
sVddos16y
p3259
I1
sVd500431
p3260
I1
sVdfz1qp4
p3261
I1
sVd1tk8zp
p3262
I1
sVdi7murk
p3263
I1
sVdefvtza
p3264
I1
sVdep1irp
p3265
I1
sVdcu2usk
p3266
I1
sVdhhku9r
p3267
I1
sVdrbfjad
p3268
I1
sVcz34a7x
p3269
I1
sVd1ankfe
p3270
I1
sVd4g800t
p3271
I1
sVddwrar2
p3272
I1
sVd7anytx
p3273
I1
sVdj7h3gq
p3274
I1
sVdeus5d7
p3275
I5
sVdcjxvo8
p3276
I1
sVd1vwtnh
p3277
I1
sVdemy6y1
p3278
I1
sVdcd8zts
p3279
I1
sVczjp4l1
p3280
I1
sVdnpkjnf
p3281
I2
sVdqg54nb
p3282
I1
sVd3e8n2e
p3283
I1
sVdjitchi
p3284
I1
sVdgzckxt
p3285
I1
sVd1voaef
p3286
I1
sVd6kizkn
p3287
I1
sVdk003yz
p3288
I1
sVd2u8we5
p3289
I1
sVdebmju6
p3290
I1
sVd0sj91w
p3291
I1
sVdg7b3gw
p3292
I1
sVd1wa60a
p3293
I1
sVdjwr1ja
p3294
I1
sVdfrgen6
p3295
I1
sVd9zli5i
p3296
I1
sVd1hfmfb
p3297
I1
sVd83r8np
p3298
I1
sVd1kxk6c
p3299
I1
sVd4nejqg
p3300
I1
sVdjetfhx
p3301
I1
sVd10sh9h
p3302
I1
sVda5zm0x
p3303
I1
sVdpjyo6l
p3304
I1
sVdi6j2y8
p3305
I1
sVdexrdrk
p3306
I1
sVddeo8q3
p3307
I1
sVdavaonm
p3308
I1
sVcynhj9f
p3309
I1
sVd727lmk
p3310
I1
sVczika4c
p3311
I1
sVdfojjze
p3312
I1
sVd1b19dz
p3313
I1
sVdbh66gs
p3314
I1
sVdi98egt
p3315
I1
sVddiexf2
p3316
I1
sVdedts7d
p3317
I1
sVdbv9hm6
p3318
I1
sVdakwgmw
p3319
I1
sVd0odb7q
p3320
I1
sVczdff5a
p3321
I1
sVdgz4yx0
p3322
I1
sVdn7p4nv
p3323
I1
sVdn86eei
p3324
I1
sVdn4229s
p3325
I2
sVdf7ua1r
p3326
I1
sVdahfj9o
p3327
I1
sVdgnde3l
p3328
I1
sVdqibf2w
p3329
I1
sVd4tc1mw
p3330
I1
sVdf1m6u5
p3331
I1
sVd8uog65
p3332
I1
sVd9z67oj
p3333
I1
sVcz3xkgh
p3334
I1
sVczq6oni
p3335
I1
sVdh7elpi
p3336
I1
sVdeohjtw
p3337
I1
sVd2jbo0e
p3338
I1
sVczyxxix
p3339
I1
sVdhbiu9s
p3340
I1
sVdcu0fmd
p3341
I1
sVd0dkvgf
p3342
I1
sVd0fu7w8
p3343
I2
sVd6m5opa
p3344
I1
sVd2g69jp
p3345
I1
sVd3kg8ch
p3346
I1
sVcywe4qo
p3347
I1
sVd34x8ii
p3348
I1
sVd1ut37n
p3349
I1
sVd0n6v4o
p3350
I1
sVdber0fg
p3351
I1
sVdjrgyfd
p3352
I1
sVd0p5els
p3353
I1
sVd0tyx18
p3354
I1
sVdg9dw8n
p3355
I1
sVd9ud7gt
p3356
I1
sVddtwf3a
p3357
I2
sVd536fgs
p3358
I1
sVdf3c67b
p3359
I1
sVdmu0tx2
p3360
I1
sVdqokuwu
p3361
I1
sVdmjv64q
p3362
I2
sVdoyoc2q
p3363
I1
sVd2alfr9
p3364
I1
sVdfidtn8
p3365
I2
sVd714ers
p3366
I1
sVd7a87rz
p3367
I1
sVdadhwdn
p3368
I1
sVd3p5x82
p3369
I1
sVdpfimhg
p3370
I1
sVd76q35t
p3371
I1
sVdn3d2az
p3372
I1
sVd16c9qd
p3373
I1
sVd1utwsy
p3374
I1
sVdjlyoub
p3375
I1
sVdngxl6w
p3376
I2
sVdelxx8f
p3377
I1
sVd1otut5
p3378
I2
sVd0uir0a
p3379
I1
sVdaup8tf
p3380
I1
sVd7c25e0
p3381
I1
sVdmtm033
p3382
I1
sVdkdb7fz
p3383
I1
sVdbuwe4l
p3384
I1
sVdsiyohi
p3385
I2
sVd9bss4t
p3386
I1
sVdequi77
p3387
I3
sVd5mapac
p3388
I1
sVdfb6pi1
p3389
I1
sVd6qcs0k
p3390
I1
sVd8ppi0d
p3391
I1
sVczzo12y
p3392
I1
sVdcx2vxv
p3393
I1
sVdda3fwc
p3394
I1
sVdcbwiy5
p3395
I1
sVddlwst8
p3396
I1
sVdq2i6b4
p3397
I1
sVdcq7wtb
p3398
I1
sVdq9w9f6
p3399
I1
sVdiipxnf
p3400
I1
sVd39cuuo
p3401
I1
sVd3yt1m4
p3402
I1
sVdjyso5x
p3403
I1
sVdrm6rbg
p3404
I1
sVcz6gru8
p3405
I1
sVdde1dbu
p3406
I1
sVd8ql566
p3407
I1
sVczknn00
p3408
I1
sVdesxdn2
p3409
I1
sVd54gxc0
p3410
I1
sVd926g5j
p3411
I1
sVdc92gfd
p3412
I1
sVd3tmbgn
p3413
I1
sVd4vog7p
p3414
I1
sVd6r21vd
p3415
I1
sVcymuo5r
p3416
I1
sVdqfsess
p3417
I1
sVdanltrd
p3418
I1
sVd39g6fj
p3419
I1
sVd7hjbqw
p3420
I2
sVdp1nfax
p3421
I2
sVddd7fdt
p3422
I1
sVdadtple
p3423
I1
sVcyv0836
p3424
I1
sVdcf2nn1
p3425
I1
sVd123ra2
p3426
I1
sVd14ofu3
p3427
I2
sVdcmz2bu
p3428
I1
sVd8e0eix
p3429
I1
sVdetx6f3
p3430
I1
sVdmve8t0
p3431
I1
sVdj3sbtb
p3432
I1
sVddss5jv
p3433
I1
sVdejnd60
p3434
I1
sVdkd913u
p3435
I1
sVd2jehnz
p3436
I1
sVdopr1gf
p3437
I1
sVd18p4oj
p3438
I1
sVdn0ejjb
p3439
I2
sVd3e9sq6
p3440
I2
sVdqd5dh9
p3441
I1
sVdb248ct
p3442
I1
sVczb4ryk
p3443
I1
sVdfe5rlb
p3444
I3
sVdepa7nj
p3445
I2
sVd7votuk
p3446
I2
sVd87m3pi
p3447
I1
sVdeekzpf
p3448
I2
sVd7l8oku
p3449
I1
sVd2ltirh
p3450
I1
sVd821cdm
p3451
I1
sVdbguyur
p3452
I1
sVcz0xk6i
p3453
I1
sVdrs24xt
p3454
I1
sVdhyq9dm
p3455
I1
sVczyt3v5
p3456
I1
sVdcpek8o
p3457
I1
sVdewnim8
p3458
I1
sVdq3ktv4
p3459
I1
sVdml4efi
p3460
I1
sVdt0lmr8
p3461
I1
sVdt6ounw
p3462
I1
sVd9fj412
p3463
I1
sVcza4556
p3464
I1
sVdsfrdog
p3465
I1
sVdczrlqb
p3466
I1
sVde899bp
p3467
I1
sVdb0xhz6
p3468
I1
sVd83xha5
p3469
I1
sVdhsn98p
p3470
I1
sVd78cjqb
p3471
I1
sVd39erg2
p3472
I1
sVdc7rsd7
p3473
I2
sVde8d63c
p3474
I1
sVd9zauy3
p3475
I1
sVdpjavon
p3476
I1
sVdj8ng13
p3477
I1
sVdfaa5un
p3478
I1
sVd5qgmfg
p3479
I1
sVd90g24y
p3480
I1
sVczmahu0
p3481
I1
sVdevghyl
p3482
I1
sVdrjmctk
p3483
I1
sVdjtb3s7
p3484
I1
sVcywhet6
p3485
I1
sVd1rhmnl
p3486
I1
sVde1quyn
p3487
I1
sVcyocibm
p3488
I1
sVdj4sdl1
p3489
I1
sVd48m441
p3490
I2
sVd2d80r5
p3491
I1
sVdi8ws9a
p3492
I1
sVdf3nfju
p3493
I1
sVd2xr9st
p3494
I1
sVcznn0vb
p3495
I1
sVd9ucf3p
p3496
I1
sVdsfhbkp
p3497
I1
sVdar3why
p3498
I1
sVcyz89r0
p3499
I1
sVdalc2t2
p3500
I1
sVd5hhreu
p3501
I1
sVdag2yhy
p3502
I1
sVd98wbl4
p3503
I1
sVd131rdr
p3504
I1
sVdr6d9d9
p3505
I1
sVdaqojoi
p3506
I1
sVdnw664m
p3507
I1
sVdoef95g
p3508
I1
sVd4lot8p
p3509
I1
sVczir3bl
p3510
I1
sVdbq5o6g
p3511
I1
sVdp8xte6
p3512
I1
sVd1j22ve
p3513
I1
sVczt05a6
p3514
I1
sVczg7t7n
p3515
I1
sVdbj7ve7
p3516
I1
sVczpm5jo
p3517
I1
sVd695gp4
p3518
I1
sVd9zxnzx
p3519
I1
sVdoeqt4w
p3520
I1
sVd9zppae
p3521
I1
sVdg3a95w
p3522
I1
sVd89uuz3
p3523
I1
sVdb94txm
p3524
I1
sVczch81r
p3525
I1
sVdktwnrr
p3526
I1
sVd0pu31q
p3527
I1
sVdr3d72n
p3528
I1
sVdh0u0wn
p3529
I1
sVd309w5s
p3530
I1
sVd0yrten
p3531
I1
sVczb0vqj
p3532
I1
sVd2in6l0
p3533
I1
sVdgd1q52
p3534
I1
sVdkgrdp5
p3535
I3
sVde1uzrf
p3536
I1
sVdiqdtli
p3537
I1
sVdkg4q55
p3538
I1
sVdsbrvz8
p3539
I1
sVdnxwkzp
p3540
I2
sVdbrsdji
p3541
I1
sVdsfea3n
p3542
I1
sVczodtsp
p3543
I1
sVd86pm24
p3544
I1
sVd5pzxkq
p3545
I1
sVdt0cn1r
p3546
I1
sVd3l2ezc
p3547
I1
sVdbu3hhh
p3548
I1
sVddyrxei
p3549
I1
sVdfve0r1
p3550
I1
sVd030q38
p3551
I1
sVdhi89s4
p3552
I1
sVd1w0dum
p3553
I1
sVddtqmd8
p3554
I1
sVdisk3mz
p3555
I1
sVdih73b7
p3556
I1
sVdszfkwh
p3557
I1
sVddjttff
p3558
I1
sVdjkqupk
p3559
I1
sVdjnrht9
p3560
I1
sVdacfhor
p3561
I1
sVdpw40zc
p3562
I1
sVd9zmo64
p3563
I1
sVdoxftj8
p3564
I1
sVd0db4qu
p3565
I1
sVd1y8tb1
p3566
I1
sVd9kfvq1
p3567
I1
sVdgrthvi
p3568
I1
sVd9btfmg
p3569
I1
sVd168p6z
p3570
I1
sVdcrnw59
p3571
I1
sVdaymoc5
p3572
I1
sVdbfc80d
p3573
I1
sVd9x2xv3
p3574
I2
sVdardvfv
p3575
I1
sVd95tyj1
p3576
I1
sVd9ge4g1
p3577
I1
sVdf5y1ur
p3578
I1
sVdbplcgh
p3579
I1
sVd4i08gz
p3580
I1
sVd3eq793
p3581
I1
sVd4m3c6k
p3582
I1
sVd00xa0d
p3583
I1
sVdk1i438
p3584
I1
sVd26exs9
p3585
I1
sVdntys5s
p3586
I1
sVdbz9eko
p3587
I1
sVdh59vzu
p3588
I1
sVdqfxjtb
p3589
I1
sVds59jk4
p3590
I1
sVd29r6ir
p3591
I1
sVd8k8ioz
p3592
I1
sVd2a1cqk
p3593
I1
sVdmwocs5
p3594
I1
sVd3b8u9i
p3595
I1
sVd26mrhr
p3596
I1
sVd9eq7ed
p3597
I1
sVdr69fit
p3598
I1
sVd1djfj2
p3599
I1
sVd3dtf0v
p3600
I1
sVd7seahd
p3601
I1
sVdbyy642
p3602
I1
sVd6xyv1s
p3603
I1
sVdrk3a37
p3604
I1
sVdh1vnvi
p3605
I1
sVdjpaqwi
p3606
I1
sVdhy1f2e
p3607
I1
sVdheemws
p3608
I1
sVd7hyfbr
p3609
I1
sVdiqirpp
p3610
I1
sVdbg1nlz
p3611
I1
sVddp2p45
p3612
I1
sVdd1hb3j
p3613
I1
sVd2c9rj9
p3614
I2
sVcyxxsvd
p3615
I2
sVdj3o0b8
p3616
I1
sVdsfehww
p3617
I1
sVd392gx8
p3618
I1
sVd8fe87d
p3619
I1
sVdtfdkra
p3620
I1
sVd04l775
p3621
I1
sVd370n60
p3622
I1
sVdhflexn
p3623
I1
sVdckp0zs
p3624
I1
sVdguladc
p3625
I1
sVdhck9ah
p3626
I1
sVdb31a38
p3627
I2
sVcynrcdp
p3628
I1
sVd539rvq
p3629
I1
sVd0912zs
p3630
I1
sVdfzx318
p3631
I1
sVd9hyqzt
p3632
I2
sVdasoiow
p3633
I1
sVddryp1m
p3634
I1
sVd1lgaly
p3635
I1
sVdjzyqqm
p3636
I1
sVd366z65
p3637
I1
sVddo6nk8
p3638
I1
sVd56frrc
p3639
I1
sVd87ywy3
p3640
I1
sVdcww4uj
p3641
I1
sVdg1flf9
p3642
I1
sVdgj31cd
p3643
I1
sVd9bhr0e
p3644
I1
sVdo2hd1r
p3645
I1
sVdjmor1s
p3646
I1
sVdexx1ek
p3647
I1
sVdbqetjw
p3648
I1
sVdjml9v3
p3649
I1
sVdgk3hco
p3650
I1
sVd18mf7f
p3651
I1
sVdejtl45
p3652
I1
sVd4gmydd
p3653
I1
sVdjb9r93
p3654
I1
sVczlchgm
p3655
I1
sVd8fswgf
p3656
I1
sVda6kc1f
p3657
I2
sVd4lzalq
p3658
I2
sVd60rf47
p3659
I1
sVdfgqa0k
p3660
I1
sVd9k7mqd
p3661
I1
sVd065b0z
p3662
I1
sVdmqq712
p3663
I1
sVdenu37n
p3664
I1
sVd56j2yc
p3665
I1
sVddcy1ml
p3666
I1
sVd5240la
p3667
I1
sVd3q06wp
p3668
I2
sVdf6ry7l
p3669
I1
sVdaphgz8
p3670
I1
sVdjt3llk
p3671
I1
sVdmxmvdh
p3672
I1
sVdjui44i
p3673
I1
sVdbewvt9
p3674
I1
sVd3wytej
p3675
I1
sVdenypa3
p3676
I1
sVd6cxwdk
p3677
I1
sVd6bhm4n
p3678
I1
sVdcizwn2
p3679
I1
sVd5d8n0o
p3680
I2
sVdjvb2i6
p3681
I1
sVd3x9lbt
p3682
I1
sVdf9ogwn
p3683
I2
sVddofqna
p3684
I1
sVdh8x3jv
p3685
I1
sVdswm99t
p3686
I1
sVdjpzxer
p3687
I1
sVdqxxj7e
p3688
I1
sVdry9ijy
p3689
I1
sVd1fp3j4
p3690
I1
sVdkr3hdx
p3691
I2
sVd0i157c
p3692
I1
sVcz5v7w8
p3693
I1
sVd2hi5vh
p3694
I1
sVd0icb5l
p3695
I1
sVdkgc9x4
p3696
I1
sVd66ry8x
p3697
I1
sVdj2fy3l
p3698
I1
sVdfbsjsg
p3699
I1
sVd0zehp1
p3700
I1
sVd661hvv
p3701
I1
sVd7tu920
p3702
I1
sVd9x6vmx
p3703
I1
sVdfwz85z
p3704
I1
sVd7bac70
p3705
I1
sVd783aao
p3706
I1
sVd09t7xf
p3707
I1
sVd3c7t0d
p3708
I1
sVd33mwjz
p3709
I1
sVd0h772d
p3710
I1
sVdccqo0e
p3711
I1
sVd3dw5ej
p3712
I1
sVd92284d
p3713
I1
sVd0kdbul
p3714
I1
sVdaqgqdu
p3715
I1
sVdf1x9g2
p3716
I1
sVczx4mfv
p3717
I1
sVdk3984t
p3718
I1
sVd5y5uuv
p3719
I1
sVdkvhhv1
p3720
I1
sVcyrhgq2
p3721
I1
sVd7npnlz
p3722
I1
sVd6k5zl3
p3723
I1
sVd9b9bka
p3724
I1
sVdn0gsi0
p3725
I1
sVcyk3wn1
p3726
I1
sVd71432x
p3727
I1
sVczlhhle
p3728
I1
sVdgu1m1n
p3729
I1
sVd4vppeo
p3730
I1
sVd1wyrpp
p3731
I1
sVd12sg7j
p3732
I1
sVdjvd09l
p3733
I1
sVdg1wtgb
p3734
I1
sVd8g5g6h
p3735
I2
sVdc49yfm
p3736
I1
sVdfn6lo5
p3737
I1
sVdkvnykd
p3738
I1
sVdazklyd
p3739
I1
sVd0b562t
p3740
I1
sVd1e6xd0
p3741
I1
sVdp9w5qn
p3742
I1
sVdazr2dk
p3743
I1
sVd0nxcav
p3744
I1
sVd29nuz1
p3745
I1
sVd7xn00i
p3746
I1
sVd447w3f
p3747
I1
sVdhjxz32
p3748
I1
sVdbqoo3v
p3749
I1
sVdjutddq
p3750
I1
sVdn2wly9
p3751
I1
sVdf5oyqz
p3752
I1
sVd1sc6rh
p3753
I1
sVda0gbnf
p3754
I1
sVdmxbs67
p3755
I1
sVdeeipny
p3756
I1
sVdsvbq01
p3757
I1
sVd5cf7ot
p3758
I1
sVdt16iti
p3759
I1
sVdpto7s2
p3760
I1
sVd0dedet
p3761
I1
sVdc7pfbu
p3762
I1
sVddc817t
p3763
I2
sVdmtcm28
p3764
I3
sVdembpkc
p3765
I1
sVd7jipgr
p3766
I1
sVczedbmk
p3767
I1
sVdbkxpf6
p3768
I1
sVddpxomb
p3769
I1
sVd4lxrin
p3770
I1
sVd9ntam5
p3771
I1
sVd7j08ui
p3772
I1
sVdhfn7g5
p3773
I1
sVdojaqf5
p3774
I1
sVczsk80n
p3775
I2
sVdadnsce
p3776
I1
sVd0vyn6b
p3777
I1
sVdaawvdc
p3778
I1
sVdf9fll9
p3779
I1
sVdfl02ut
p3780
I1
sVdnqzlbf
p3781
I1
sVd2qwc0p
p3782
I1
sVdr52ov7
p3783
I1
sVd9urrer
p3784
I1
sVdbd7q68
p3785
I1
sVd8xqcj1
p3786
I1
sVdhdpzp0
p3787
I1
sVd0l4sm9
p3788
I1
sVd60putl
p3789
I1
sVdkjgi3o
p3790
I1
sVdcc6ovg
p3791
I1
sVdbxh0yu
p3792
I1
sVdosv13e
p3793
I1
sVdc5twrq
p3794
I1
sVd1yjumy
p3795
I2
sVd79iwjy
p3796
I1
sVdh4tg4w
p3797
I1
sVd2vszu3
p3798
I1
sVd6kwj6z
p3799
I2
sVd4mm5ft
p3800
I1
sVd9cr0y7
p3801
I1
sVda5fx9t
p3802
I2
sVd840apg
p3803
I1
sVdbzd81b
p3804
I1
sVczffumw
p3805
I2
sVdmffyvc
p3806
I1
sVd9gqf2n
p3807
I1
sVdccodv5
p3808
I1
sVd2xlihx
p3809
I1
sVdk7a4ua
p3810
I1
sVdfspwz8
p3811
I1
sVdbgagbn
p3812
I1
sVd5oqo1l
p3813
I1
sVd4dvqcd
p3814
I1
sVdf7vhkr
p3815
I1
sVd4lp95u
p3816
I1
sVdfwt12d
p3817
I1
sVdi4nmtv
p3818
I2
sVdkjs1mv
p3819
I1
sVcz0tg4s
p3820
I1
sVddoky9l
p3821
I1
sVcz20lpm
p3822
I1
sVdjg5j72
p3823
I1
sVdfga271
p3824
I1
sVd81laso
p3825
I1
sVd63k8wl
p3826
I1
sVd8nvzfk
p3827
I1
sVd9knc8d
p3828
I1
sVd2pvuk4
p3829
I1
sVd6q1uya
p3830
I1
sVdpjk49y
p3831
I1
sVd7qkchs
p3832
I1
sVd8x0n2s
p3833
I1
sVd1vrjje
p3834
I1
sVdkkr1wa
p3835
I1
sVd6z86xf
p3836
I1
sVdqnzflz
p3837
I1
sVd69l94w
p3838
I2
sVdk60qea
p3839
I2
sVdk91ja5
p3840
I3
sVdcomqf6
p3841
I1
sVd4fpj7t
p3842
I1
sVd42eic8
p3843
I1
sVdp6ie8h
p3844
I1
sVdn2na4e
p3845
I1
sVd02z2u4
p3846
I2
sVd00zkhm
p3847
I1
sVdoe4deu
p3848
I1
sVcyql8z1
p3849
I1
sVd0p0399
p3850
I1
sVd76kict
p3851
I1
sVd9iua41
p3852
I1
sVd0t8qd5
p3853
I1
sVd2ilm9j
p3854
I1
sVd1ibm9d
p3855
I1
sVdemr7zn
p3856
I1
sVdgf5eis
p3857
I1
sVd6m7pdn
p3858
I2
sVdbme0h5
p3859
I1
sVd5cu68l
p3860
I1
sVd207gco
p3861
I2
sVd3xfgti
p3862
I1
sVdjyjqq9
p3863
I1
sVd0hglz9
p3864
I1
sVdkz0sc8
p3865
I1
sVdgztqjd
p3866
I1
sVdb0v8qr
p3867
I1
sVdal37ah
p3868
I1
sVd69mnz7
p3869
I1
sVdfltsnk
p3870
I1
sVd8sh8sh
p3871
I1
sVdg1p5fl
p3872
I1
sVdehxf32
p3873
I1
sVdd8go1l
p3874
I1
sVdpjykbt
p3875
I1
sVdo5drqd
p3876
I1
sVd4cy2f8
p3877
I1
sVdsxk2uo
p3878
I1
sVd08rpbq
p3879
I2
sVdcygafj
p3880
I1
sVd57m9t1
p3881
I1
sVdgt3kr9
p3882
I1
sVd6hts0k
p3883
I1
sVd5zccn5
p3884
I1
sVd3wmzom
p3885
I1
sVczjtci1
p3886
I1
sVdifcxvn
p3887
I1
sVczr0rgv
p3888
I1
sVde9q2l9
p3889
I1
sVdg8rwax
p3890
I1
sVderidkv
p3891
I1
sVd900s06
p3892
I1
sVd6lo67w
p3893
I1
sVds5n9qk
p3894
I1
sVd2nbz0z
p3895
I1
sVd9uf9ek
p3896
I1
sVdclisbg
p3897
I1
sVczl2ho3
p3898
I1
sVdn25xer
p3899
I1
sVd5dcvsf
p3900
I1
sVd08xcwg
p3901
I1
sVd7ztxbu
p3902
I1
sVdbbv2nm
p3903
I1
sVdpr752j
p3904
I1
sVdjlrsvv
p3905
I1
sVczktrk7
p3906
I1
sVdhthxxw
p3907
I1
sVcyuny2p
p3908
I1
sVd054k1r
p3909
I1
sVd1o3xuh
p3910
I1
sVd5xzvgo
p3911
I1
sVcyrvz5n
p3912
I1
sVd8dxq6q
p3913
I1
sVdhlvn3i
p3914
I1
sVdclc6k0
p3915
I1
sVd8id3t3
p3916
I1
sVdct5gvu
p3917
I1
sVdqbauyo
p3918
I1
sVczwgs9f
p3919
I1
sVdizqxhd
p3920
I1
sVd19ionk
p3921
I1
sVde21pp0
p3922
I1
sVd3c72s9
p3923
I1
sVdkoo4m0
p3924
I1
sVd7jqwth
p3925
I1
sVd0x53o7
p3926
I1
sVd42xwdh
p3927
I1
sVd8vpqz9
p3928
I1
sVdfiy4g2
p3929
I2
sVdh1odp8
p3930
I2
sVde5e7yg
p3931
I1
sVd9e0hfs
p3932
I1
sVczi9sp8
p3933
I1
sVdjec6yd
p3934
I1
sVd1bkk2h
p3935
I1
sVdcifwch
p3936
I1
sVd282sta
p3937
I1
sVczst0ut
p3938
I1
sVdpp018p
p3939
I1
sVdkm40dl
p3940
I1
sVdtehu6r
p3941
I1
sVdabeuli
p3942
I1
sVdb69n8w
p3943
I1
sVddxesnb
p3944
I1
sVcznkjgn
p3945
I1
sVdii7z1s
p3946
I1
sVdnf5iqz
p3947
I1
sVd90gz8p
p3948
I1
sVd39fo6i
p3949
I1
sVd8dhbcl
p3950
I2
sVcyk8fp7
p3951
I2
sVdq2ww4q
p3952
I1
sVd4qhog0
p3953
I1
sVdic8129
p3954
I1
sVdeypiks
p3955
I1
sVd7tc5qv
p3956
I1
sVdgfdoxn
p3957
I2
sVd7rrduw
p3958
I2
sVdnxr8t6
p3959
I1
sVd34x3ev
p3960
I2
sVdbnq68g
p3961
I1
sVd381hpf
p3962
I1
sVdmxpqyi
p3963
I1
sVcyxalrd
p3964
I1
sVd4az7j2
p3965
I1
sVd3mtiwv
p3966
I1
sVdp8gtjy
p3967
I1
sVd3iux1t
p3968
I1
sVd36lv9g
p3969
I1
sVcznii6u
p3970
I1
sVd7rqj0a
p3971
I1
sVdb5ewsh
p3972
I1
sVd9dc6xg
p3973
I1
sVd59b52w
p3974
I1
sVddf3scz
p3975
I1
sVdbszyv9
p3976
I1
sVdhuy02v
p3977
I1
sVczjfeua
p3978
I2
sVdeul9hn
p3979
I2
sVcyns11y
p3980
I1
sVd6hy0zh
p3981
I1
sVd7z62wd
p3982
I2
sVdgcc6x7
p3983
I1
sVd52ow69
p3984
I1
sVdgx5zn1
p3985
I1
sVddx7xh0
p3986
I1
sVdfqhlcv
p3987
I1
sVddvtdcm
p3988
I1
sVd3len5w
p3989
I1
sVd63mx0u
p3990
I2
sVczbjbkt
p3991
I1
sVcyrajt4
p3992
I1
sVdgfpoam
p3993
I2
sVd0f7kgp
p3994
I1
sVd6flzxr
p3995
I1
sVd9prpe6
p3996
I1
sVddcsu9w
p3997
I1
sVcyl74uy
p3998
I1
sVdfgpooj
p3999
I1
sVd5ll7j3
p4000
I1
sVczgka4w
p4001
I2
sVdbocyy4
p4002
I1
sVd9kdzty
p4003
I1
sVd8dlf7e
p4004
I1
sVdb5fscr
p4005
I1
sVda3hjx2
p4006
I1
sVdipojw2
p4007
I1
sVdca9z1x
p4008
I1
sVcz2lxwg
p4009
I1
sVdg2czx4
p4010
I2
sVdj5r27q
p4011
I1
sVd70ny5h
p4012
I1
sVdo8p027
p4013
I1
sVcysfpjt
p4014
I1
sVd9n4spi
p4015
I1
sVdao7d3v
p4016
I1
sVdb811rv
p4017
I1
sVdeongb8
p4018
I1
sVdasagaf
p4019
I1
sVddakhzo
p4020
I3
sVczn2lk8
p4021
I1
sVd82mbd4
p4022
I1
sVdc8enmh
p4023
I1
sVdn2vbaj
p4024
I1
sVd8n1bs6
p4025
I1
sVdc3bsw5
p4026
I1
sVdb21lu9
p4027
I1
sVder7m66
p4028
I1
sVczx2kis
p4029
I1
sVd1d9jnn
p4030
I1
sVd9ovmxs
p4031
I1
sVd5mosh6
p4032
I1
sVdctcw0n
p4033
I1
sVd8vuy4f
p4034
I1
sVd5exmio
p4035
I1
sVd7em9sd
p4036
I1
sVd61ltnp
p4037
I1
sVczzy87m
p4038
I1
sVdoz0v37
p4039
I1
sVdnbn01c
p4040
I1
sVd0s663a
p4041
I1
sVdhox1nr
p4042
I1
sVd5wtjoz
p4043
I1
sVd29eaoh
p4044
I1
sVdb5a3w1
p4045
I1
sVcyyd1qi
p4046
I1
sVdnp23lz
p4047
I1
sVcz6yhc9
p4048
I1
sVdiazqow
p4049
I2
sVd3ze08z
p4050
I1
sVdgojmgq
p4051
I1
sVd1uknse
p4052
I1
sVd3kk9sc
p4053
I1
sVd73j2b9
p4054
I1
sVdktykr2
p4055
I1
sVdb0qj9c
p4056
I1
sVdcjczd5
p4057
I1
sVd3nhgm3
p4058
I1
sVd4u6905
p4059
I1
sVdo5ohr0
p4060
I1
sVdiydg3h
p4061
I1
sVd7ohe0o
p4062
I1
sVdhbytw9
p4063
I1
sVdi0nca8
p4064
I1
sVd5krp93
p4065
I1
sVd1khr07
p4066
I1
sVde7izpe
p4067
I1
sVdrz7j3g
p4068
I1
sVcyknmdo
p4069
I1
sVdeieoat
p4070
I2
sVd6rzxuu
p4071
I1
sVd9yqi7w
p4072
I1
sVd26i1st
p4073
I1
sVdbe099u
p4074
I1
sVd1wp61j
p4075
I1
sVdf0g3vp
p4076
I1
sVd9ewpvx
p4077
I1
sVdbbo928
p4078
I1
sVd2ykqq5
p4079
I1
sVdd8z3zo
p4080
I1
sVdihzhei
p4081
I1
sVdfwvp3q
p4082
I1
sVd4k65v5
p4083
I1
sVdh0m0cu
p4084
I1
sVdipwrau
p4085
I1
sVdiyihqg
p4086
I1
sVd1yxiv9
p4087
I1
sVdhyaxsz
p4088
I1
sVd7o3zbg
p4089
I1
sVd4am9ga
p4090
I1
sVd4f86gt
p4091
I1
sVde32eln
p4092
I1
sVd0iwz9h
p4093
I1
sVdrdcdil
p4094
I1
sVd9zhghq
p4095
I1
sVdjhm3vq
p4096
I1
sVd1lfe64
p4097
I1
sVdi3ji51
p4098
I1
sVdj08crl
p4099
I1
sVd7x5a8y
p4100
I1
sVddjausx
p4101
I1
sVd3lx262
p4102
I1
sVdhn7j9h
p4103
I1
sVdhz7jzr
p4104
I1
sVdgjhdud
p4105
I2
sVdfdjd99
p4106
I1
sVde18c8s
p4107
I1
sVdg0nwoj
p4108
I1
sVdkmj53x
p4109
I1
sVczhi9nd
p4110
I1
sVdgbeqxq
p4111
I1
sVdbn94eo
p4112
I1
sVde19vpz
p4113
I1
sVdol3wzw
p4114
I1
sVd5yfqsp
p4115
I1
sVdf64ztn
p4116
I1
sVczzlcjg
p4117
I1
sVdpe2j06
p4118
I1
sVdg6a00f
p4119
I1
sVdqe0mjo
p4120
I2
sVdbra7ze
p4121
I1
sVdi9almc
p4122
I1
sVd3cq1dm
p4123
I1
sVd1l6unz
p4124
I1
sVdedlpvb
p4125
I1
sVdejqbh2
p4126
I1
sVczczs7s
p4127
I1
sVd7z9leg
p4128
I1
sVd1jeqcy
p4129
I1
sVdbfqkhf
p4130
I1
sVdrl5pcl
p4131
I2
sVd55m8j1
p4132
I1
sVd27yy8p
p4133
I1
sVdbh4sob
p4134
I1
sVd11ks0i
p4135
I1
sVd5lwtwu
p4136
I1
sVcyqm9m3
p4137
I1
sVd673mnn
p4138
I1
sVdaj2ddt
p4139
I1
sVd8bs89z
p4140
I1
sVd0o1t0m
p4141
I1
sVde6hlja
p4142
I1
sVddcmcff
p4143
I1
sVdf55q7d
p4144
I1
sVd1gjftv
p4145
I1
sVdn40gom
p4146
I1
sVd4t5zq4
p4147
I1
sVda6wwkw
p4148
I1
sVdae2hfi
p4149
I1
sVd00kcsv
p4150
I1
sVd4xxavt
p4151
I1
sVczc72sj
p4152
I1
sVd3q6810
p4153
I1
sVd2wr0p7
p4154
I1
sVdizgo37
p4155
I1
sVdjng0yc
p4156
I1
sVdhjdhgg
p4157
I1
sVdq2wzjb
p4158
I1
sVdb3om47
p4159
I1
sVd3pbraa
p4160
I1
sVdd1l18p
p4161
I1
sVddtx7j7
p4162
I1
sVd8zv179
p4163
I2
sVdkrg7cb
p4164
I1
sVdkccosy
p4165
I1
sVdkly0az
p4166
I1
sVdgrvzgg
p4167
I1
sVd1lzxxx
p4168
I1
sVd19cl50
p4169
I1
sVczstzcb
p4170
I1
sVd0hsj4v
p4171
I1
sVdpye9n5
p4172
I1
sVdken791
p4173
I1
sVd3jlhz3
p4174
I1
sVdqjycp6
p4175
I1
sVdcl639q
p4176
I1
sVczebbkr
p4177
I1
sVcyj9nhi
p4178
I1
sVd9boze8
p4179
I1
sVd808o03
p4180
I2
sVdn2pk8c
p4181
I1
sVdccgzx4
p4182
I1
sVdj16k34
p4183
I1
sVdc3xghc
p4184
I1
sVdeqj17u
p4185
I1
sVd2m0dhg
p4186
I1
sVczirwxp
p4187
I1
sVd9c54db
p4188
I1
sVczrfvt1
p4189
I1
sVd63mmeo
p4190
I1
sVdazl3ec
p4191
I1
sVd0usbyd
p4192
I1
sVd3hsi8u
p4193
I1
sVd74hp77
p4194
I1
sVde4dvim
p4195
I1
sVdc8vtpu
p4196
I1
sVd1ypuxi
p4197
I1
sVda2xeq2
p4198
I1
sVdkica55
p4199
I1
sVcyrdoy9
p4200
I1
sVdbczl9b
p4201
I1
sVddenzvf
p4202
I1
sVdth2qbk
p4203
I1
sVcyv70er
p4204
I1
sVdbynpdi
p4205
I1
sVdc3k25d
p4206
I1
sVdb86af3
p4207
I1
sVczfde74
p4208
I1
sVdhs62y4
p4209
I1
sVd6xdkw5
p4210
I1
sVd1a1q7m
p4211
I1
sVdhpip1g
p4212
I1
sVdj8e6n9
p4213
I1
sVd425p54
p4214
I1
sVd3kt1jl
p4215
I1
sVd9h5hbj
p4216
I1
sVdbw1hc6
p4217
I1
sVd098ay7
p4218
I1
sVcyugv34
p4219
I1
sVd8693yz
p4220
I1
sVdg170cf
p4221
I1
sVd83ons3
p4222
I1
sVdmm0t2s
p4223
I1
sVd2n6a79
p4224
I1
sVd6l8nxh
p4225
I1
sVd0um3cw
p4226
I1
sVd5a1pj9
p4227
I1
sVdj0lqj8
p4228
I1
sVczk8276
p4229
I1
sVdjfjqlu
p4230
I1
sVd1ets1c
p4231
I1
sVdhlle55
p4232
I1
sVd00iywi
p4233
I1
sVddmz1xy
p4234
I1
sVdnwsd1m
p4235
I1
sVd2s5f4a
p4236
I1
sVdjop9yg
p4237
I1
sVcyls3zg
p4238
I1
sVd4bc5sb
p4239
I1
sVd20nwt9
p4240
I2
sVdelts1t
p4241
I1
sVdqwscc0
p4242
I1
sVd0092co
p4243
I1
sVd4ooi5m
p4244
I1
sVd2jfbs2
p4245
I1
sVdf893jr
p4246
I1
sVd9e8azp
p4247
I1
sVde1nqwt
p4248
I1
sVdcnooxz
p4249
I1
sVd9ukt0e
p4250
I1
sVda78gbh
p4251
I1
sVd35lpll
p4252
I2
sVdgi7fi9
p4253
I1
sVdrk2sr7
p4254
I1
sVd8z3tl5
p4255
I1
sVczqv5ug
p4256
I1
sVdf34bmj
p4257
I1
sVd1s3uap
p4258
I1
sVczb74ge
p4259
I1
sVczn1ows
p4260
I2
sVdeijfhb
p4261
I1
sVcypr8nk
p4262
I1
sVd3gh8o6
p4263
I1
sVd9nb5jl
p4264
I1
sVd9n0962
p4265
I1
sVdf94ozu
p4266
I1
sVdqnfedh
p4267
I1
sVdcsckiv
p4268
I1
sVcz81ndm
p4269
I1
sVd35hgm0
p4270
I1
sVdjfex42
p4271
I1
sVd4gplnn
p4272
I1
sVddrux7f
p4273
I1
sVdfxnm8b
p4274
I1
sVd9w1bhs
p4275
I1
sVdb5ejw4
p4276
I1
sVd3gyyh0
p4277
I1
sVdhsugty
p4278
I1
sVdb9ja8q
p4279
I1
sVdcarkan
p4280
I2
sVd1rzsy8
p4281
I1
sVdge0ldj
p4282
I1
sVd8spj0x
p4283
I1
sVdfv5hdw
p4284
I1
sVd2a21n9
p4285
I1
sVdae4syh
p4286
I1
sVdg933gn
p4287
I2
sVd6co03h
p4288
I1
sVdberu8w
p4289
I1
sVdezybvy
p4290
I1
sVdi2q3ny
p4291
I1
sVd2z1ro7
p4292
I1
sVdgs1pu1
p4293
I1
sVdg8f7ea
p4294
I1
sVd4yd20b
p4295
I1
sVd0rz19z
p4296
I1
sVdfi60im
p4297
I1
sVd7tn4zp
p4298
I1
sVd0p8l0y
p4299
I1
sVd7ui4lo
p4300
I1
sVddd0bsl
p4301
I1
sVdqd6pb0
p4302
I1
sVd7hcyst
p4303
I1
sVd7la1ya
p4304
I1
sVdhk8jlg
p4305
I1
sVd6o0wqz
p4306
I1
sVd3pg8t9
p4307
I1
sVdjbjs5l
p4308
I2
sVdjcu660
p4309
I1
sVdoxmfux
p4310
I1
sVdi8ihwo
p4311
I1
sVdevhffb
p4312
I1
sVdjahae0
p4313
I1
sVdn42vn6
p4314
I1
sVd70ypii
p4315
I1
sVdddv7pv
p4316
I1
sVdp92qll
p4317
I1
sVdkwbo1e
p4318
I2
sVd6s0jqx
p4319
I1
sVd36p1wn
p4320
I1
sVd1dolff
p4321
I1
sVdknmgnp
p4322
I1
sVdp8l5g7
p4323
I1
sVd2px7vn
p4324
I2
sVd8qynmw
p4325
I1
sVd136996
p4326
I1
sVdaj9dme
p4327
I1
sVd2dwl9g
p4328
I3
sVdhlls1p
p4329
I1
sVd9aa6f3
p4330
I1
sVd0emgbh
p4331
I1
sVdbjouh4
p4332
I1
sVdan4ai6
p4333
I1
sVd6syacv
p4334
I1
sVdjkxlks
p4335
I1
sVdgdckfr
p4336
I1
sVdeg6epv
p4337
I1
sVd1tnpin
p4338
I1
sVcyn1zvn
p4339
I1
sVd05qgld
p4340
I1
sVd7mnhp4
p4341
I2
sVd8dslae
p4342
I1
sVdaqmvzd
p4343
I1
sVd7wqa5k
p4344
I1
sVdcdy6b5
p4345
I1
sVdpsa6zm
p4346
I1
sVd58owrv
p4347
I1
sVdnee8jq
p4348
I1
sVd347zf9
p4349
I1
sVdfw1v6q
p4350
I2
sVd1y4r9i
p4351
I1
sVdkt20nu
p4352
I1
sVdc7u7hy
p4353
I1
sVd8t6jlp
p4354
I1
sVd56e5jz
p4355
I1
sVd9kuxuj
p4356
I1
sVdcoayto
p4357
I3
sVdjc6dl9
p4358
I1
sVde9x5cq
p4359
I1
sVd1528ou
p4360
I1
sVdb5ajy2
p4361
I1
sVd728k3i
p4362
I2
sVdph3s2f
p4363
I1
sVdjkybgs
p4364
I1
sVdojko1b
p4365
I1
sVd06mlnx
p4366
I1
sVdqkwxa4
p4367
I1
sVdgh0vnw
p4368
I1
sVddr2704
p4369
I1
sVdmsbbo5
p4370
I1
sVd533iwk
p4371
I1
sVcyqq1qy
p4372
I1
sVdj7csh3
p4373
I1
sVd95973l
p4374
I1
sVcyltn6e
p4375
I3
sVdrkt5lh
p4376
I1
sVd20lv2h
p4377
I1
sVdbsxb3z
p4378
I1
sVdqun1j9
p4379
I1
sVdc5fecp
p4380
I1
sVdalrptt
p4381
I2
sVddpql08
p4382
I2
sVdjb5aeh
p4383
I1
sVdmzkse0
p4384
I1
sVdf4x1zz
p4385
I1
sVd1kf7j9
p4386
I1
sVdt49tgp
p4387
I1
sVd1dcg8f
p4388
I1
sVdbqrxyu
p4389
I1
sVdstps8c
p4390
I1
sVdct4jov
p4391
I1
sVda763wk
p4392
I1
sVdeogdrx
p4393
I1
sVcyk9gwk
p4394
I1
sVdtf0w1f
p4395
I1
sVczn0pkb
p4396
I1
sVdexjeap
p4397
I1
sVd8kv1u9
p4398
I1
sVdq0zto1
p4399
I1
sVd19fu0r
p4400
I1
sVcyy94ce
p4401
I1
sVdj773zx
p4402
I1
sVdoxn6at
p4403
I1
sVdg0ljy1
p4404
I1
sVdpj6g07
p4405
I1
sVcymuae3
p4406
I1
sVczxofdd
p4407
I1
sVd1fjl8f
p4408
I1
sVd2hyhid
p4409
I1
sVd0hcej0
p4410
I1
sVd0e0gvs
p4411
I1
sVdievrn9
p4412
I1
sVd57ojj9
p4413
I1
sVdrwxnrq
p4414
I1
sVd5axn09
p4415
I2
sVd60da6a
p4416
I1
sVdgluq4e
p4417
I1
sVdq3t54j
p4418
I1
sVdp9lbdi
p4419
I1
sVdhjl3rf
p4420
I1
sVdgwzqd1
p4421
I1
sVd4pqswf
p4422
I2
sVd9e0pzk
p4423
I1
sVd2aeim0
p4424
I1
sVcyln7he
p4425
I1
sVd4vbj03
p4426
I1
sVdoxiqjd
p4427
I1
sVdbeavt8
p4428
I1
sVdb6rfok
p4429
I1
sVd1nap6y
p4430
I1
sVdazgdjn
p4431
I1
sVd2w695j
p4432
I1
sVdcvd6xs
p4433
I1
sVdb3gqa0
p4434
I1
sVd7p458n
p4435
I1
sVd8usmtt
p4436
I1
sVdno9pw2
p4437
I1
sVdd92nw3
p4438
I1
sVdcn5fbn
p4439
I1
sVdrmvz7r
p4440
I1
sVczp4oui
p4441
I1
sVd8ou0ha
p4442
I1
sVcywkvkq
p4443
I1
sVd2q7g2l
p4444
I1
sVd80y81l
p4445
I1
sVd84uhff
p4446
I1
sVd8j1m5l
p4447
I1
sVd7mzd6w
p4448
I1
sVcyt6jaf
p4449
I1
sVd3bfgd2
p4450
I2
sVd4ysnp5
p4451
I1
sVde7ae0g
p4452
I1
sVczem8s7
p4453
I1
sVdnq86bl
p4454
I1
sVd38tlhh
p4455
I1
sVdska6wm
p4456
I1
sVd0wo09o
p4457
I1
sVd42mq09
p4458
I1
sVdhsy87o
p4459
I1
sVczsger6
p4460
I1
sVd7t75ak
p4461
I1
sVdqkuzj6
p4462
I1
sVdorcgcb
p4463
I1
sVdiy9lft
p4464
I1
sVd9qye30
p4465
I1
sVd88o52v
p4466
I1
sVd64oswv
p4467
I1
sVd6d0ts9
p4468
I1
sVdbi4ty0
p4469
I1
sVd94i0ru
p4470
I1
sVd0665he
p4471
I1
sVdfagdl3
p4472
I1
sVcz4hyop
p4473
I1
sVd7mhzcs
p4474
I1
sVd12ozbs
p4475
I1
sVcznowl3
p4476
I1
sVd6abkcf
p4477
I1
sVd7jjrep
p4478
I1
sVd1hzkqs
p4479
I1
sVdqzxngv
p4480
I1
sVd0qzutn
p4481
I1
sVdil8ioi
p4482
I1
sVdo9dc3t
p4483
I1
sVdqo64r5
p4484
I1
sVdgp3gj5
p4485
I1
sVd69zmsr
p4486
I2
sVde4u243
p4487
I1
sVdqp3msm
p4488
I1
sVdecba32
p4489
I1
sVddp2di0
p4490
I1
sVd1i2c1b
p4491
I1
sVd9sq2fb
p4492
I1
sVdg8i2ck
p4493
I2
sVd6zifrd
p4494
I1
sVdbb0kol
p4495
I1
sVdqnsxdq
p4496
I1
sVdf4nohy
p4497
I1
sVd7ehhmz
p4498
I1
sVdb3wzpy
p4499
I1
sVdh9ohar
p4500
I1
sVdk0umw4
p4501
I1
sVdmn7g21
p4502
I1
sVd2tecap
p4503
I1
sVdnsq1e2
p4504
I1
sVd0oph5c
p4505
I1
sVd5ryf5r
p4506
I1
sVde7qity
p4507
I1
sVdasy57q
p4508
I1
sVcz2fq52
p4509
I1
sVdetoxt6
p4510
I1
sVd0aj07h
p4511
I1
sVd0k5fo3
p4512
I1
sVd071imh
p4513
I1
sVczwhj97
p4514
I1
sVdjby9k4
p4515
I1
sVdpcuc3n
p4516
I1
sVdgtrxb7
p4517
I1
sVd28xr6b
p4518
I1
sVd3e7ito
p4519
I1
sVd2qz1w0
p4520
I1
sVdbbcp44
p4521
I1
sVd2kjnby
p4522
I1
sVd0sujct
p4523
I1
sVdkr6d9g
p4524
I1
sVd3jtuhu
p4525
I1
sVdbbd1be
p4526
I1
sVdbjrw4c
p4527
I1
sVdqvgvx5
p4528
I2
sVdsecreh
p4529
I1
sVd3lwpyf
p4530
I1
sVd1h6ecm
p4531
I1
sVd2mycoq
p4532
I1
sVdotiyu9
p4533
I2
sVddupkie
p4534
I2
sVd2imt0r
p4535
I1
sVd192fqx
p4536
I3
sVczzmkex
p4537
I1
sVddyeg2p
p4538
I1
sVd52sz98
p4539
I1
sVcztipct
p4540
I1
sVd1lhoqe
p4541
I1
sVd892rzn
p4542
I2
sVd1xb7xr
p4543
I1
sVdbpttxq
p4544
I1
sVdnuxfa1
p4545
I1
sVdhpepxk
p4546
I1
sVd2hiyp3
p4547
I1
sVddkf6mg
p4548
I1
sVczlfuwe
p4549
I1
sVdbm221l
p4550
I1
sVdgu07ut
p4551
I1
sVdpjf7zp
p4552
I2
sVdjw55ax
p4553
I2
sVdnaex6l
p4554
I1
sVdry41bj
p4555
I1
sVcz359c0
p4556
I1
sVcykjmkc
p4557
I1
sVcz4yu4u
p4558
I1
sVddxgfzd
p4559
I1
sVd7hqyqe
p4560
I1
sVd2yj90x
p4561
I1
sVcz060rb
p4562
I1
sVdf0os9a
p4563
I1
sVd8u5pkj
p4564
I1
sVdn88vcp
p4565
I1
sVdrmyosz
p4566
I1
sVdbew08g
p4567
I1
sVdgd788g
p4568
I1
sVd4ijx76
p4569
I1
sVd2vb2px
p4570
I2
sVcysnief
p4571
I1
sVd2yd1o3
p4572
I3
sVdgwzxts
p4573
I1
sVdb5y4dx
p4574
I1
sVd5n1pxi
p4575
I1
sVd1nlhm4
p4576
I1
sVddj9iso
p4577
I1
sVdeuzhy8
p4578
I1
sVd1yw2oe
p4579
I1
sVdqf56sq
p4580
I1
sVd6xhr8w
p4581
I1
sVcys9dz3
p4582
I1
sVd34hojx
p4583
I1
sVd7voj82
p4584
I1
sVd7qp4ev
p4585
I1
sVd1bmtha
p4586
I1
sVdbbdxkg
p4587
I1
sVd5ur9nn
p4588
I1
sVd4wcfx3
p4589
I1
sVdrsqgro
p4590
I1
sVdao647u
p4591
I1
sVd15oyrl
p4592
I1
sVd38o30e
p4593
I1
sVdq78c9u
p4594
I1
sVd1m3y4r
p4595
I1
sVczw4fgb
p4596
I1
sVczwdov2
p4597
I1
sVdjfzrzv
p4598
I1
sVd0vwtew
p4599
I1
sVdb6s3nc
p4600
I1
sVd4xdbfq
p4601
I1
sVdd3u0b7
p4602
I1
sVd0quo8p
p4603
I1
sVd9nsue8
p4604
I1
sVdhwujlw
p4605
I1
sVdpprmcr
p4606
I1
sVdbnr5r4
p4607
I1
sVdd601if
p4608
I1
sVdi0u6cc
p4609
I1
sVczu9ry4
p4610
I1
sVd0ansfg
p4611
I1
sVd8t95du
p4612
I1
sVdoliayh
p4613
I1
sVd7tqfbr
p4614
I1
sVdnnrb1p
p4615
I2
sVdacbgpa
p4616
I1
sVdtgnf0v
p4617
I1
sVd6wo7ll
p4618
I1
sVd43ljr5
p4619
I2
sVdqee61h
p4620
I1
sVdakszxw
p4621
I1
sVdegcmm8
p4622
I1
sVczmppm5
p4623
I1
sVdi0juti
p4624
I1
sVd7z9s4k
p4625
I1
sVd7h5l3u
p4626
I1
sVdrehdqo
p4627
I1
sVcyhzuz7
p4628
I1
sVdeyczw2
p4629
I1
sVd0ypdao
p4630
I1
sVd9mwdod
p4631
I1
sVcykaynh
p4632
I1
sVdeh3e4p
p4633
I1
sVdq3iqqt
p4634
I1
sVdghpc3l
p4635
I1
sVdfwic3v
p4636
I1
sVdg9ca4l
p4637
I2
sVd2hj1i1
p4638
I1
sVdcmxf3c
p4639
I1
sVd3zqgbr
p4640
I1
sVcztxl8f
p4641
I1
sVd12x90i
p4642
I1
sVcz5yvdq
p4643
I1
sVdbhohpy
p4644
I1
sVdnvu01e
p4645
I1
sVdiw704y
p4646
I1
sVdiujwo5
p4647
I1
sVdklu1u2
p4648
I1
sVdib8fcz
p4649
I1
sVcz9tton
p4650
I1
sVd0qey38
p4651
I1
sVd0geyy2
p4652
I1
sVd9b756o
p4653
I1
sVd5aehbh
p4654
I2
sVdbqraji
p4655
I2
sVdenjd54
p4656
I1
sVdruczmp
p4657
I1
sVd8f9n33
p4658
I1
sVd2oz4ov
p4659
I1
sVd49j5gy
p4660
I2
sVd0dwmrl
p4661
I1
sVd97r8ho
p4662
I1
sVdqrt9is
p4663
I1
sVdbtsvu8
p4664
I1
sVd0nx0q8
p4665
I1
sVd89132p
p4666
I1
sVcyteo7k
p4667
I1
sVd3de61f
p4668
I1
sVdia1tie
p4669
I1
sVd3q5tyq
p4670
I1
sVd5ig2kz
p4671
I1
sVdnctas8
p4672
I3
sVdbqup03
p4673
I1
sVcz1o4fe
p4674
I1
sVd7txa03
p4675
I1
sVdidda2c
p4676
I1
sVdqwwx5e
p4677
I1
sVd2cyo94
p4678
I1
sVd3cawo6
p4679
I1
sVdg98hn2
p4680
I3
sVdmkc31k
p4681
I1
sVd44ubun
p4682
I1
sVdkhp7qn
p4683
I1
sVdaw68x8
p4684
I2
sVdg75jwf
p4685
I1
sVda19nx1
p4686
I1
sVd015u7d
p4687
I1
sVdrz63q2
p4688
I1
sVdfu17hd
p4689
I2
sVdqmm0be
p4690
I1
sVczj6oju
p4691
I1
sVd886ntl
p4692
I1
sVdpcoyni
p4693
I1
sVd53jira
p4694
I2
sVdgz29u6
p4695
I1
sVdovkyxc
p4696
I1
sVd8uzbeu
p4697
I1
sVdkq68sv
p4698
I1
sVd4uk1vg
p4699
I1
sVd0axawa
p4700
I1
sVd2q738l
p4701
I1
sVd19m66u
p4702
I1
sVdmtv38e
p4703
I1
sVdc7xzmp
p4704
I1
sVd7kij2i
p4705
I1
sVdas8yhu
p4706
I1
sVdgw8f5o
p4707
I1
sVdmy2td1
p4708
I1
sVd6jhx85
p4709
I1
sVdhcss7s
p4710
I1
sVd9a5hwm
p4711
I1
sVdixu1ws
p4712
I1
sVd2r3qo3
p4713
I1
sVd7z1hin
p4714
I1
sVdslsr3c
p4715
I1
sVdq4q39c
p4716
I1
sVd8nrt60
p4717
I1
sVd44ar8t
p4718
I1
sVd3jo1hu
p4719
I1
sVdjoouat
p4720
I1
sVd0do6ww
p4721
I1
sVdjgfgsq
p4722
I1
sVd0zez3q
p4723
I1
sVdn2jod8
p4724
I2
sVdjtkiog
p4725
I1
sVcz6w8g0
p4726
I1
sVdd06r9m
p4727
I1
sVd5du0xi
p4728
I1
sVdaqb09c
p4729
I1
sVcyx2zkr
p4730
I1
sVdf6k9rq
p4731
I1
sVdfwxtfv
p4732
I1
sVdcy5v9v
p4733
I1
sVda9iw0m
p4734
I1
sVd9gddqq
p4735
I1
sVd3f1996
p4736
I1
sVd34167c
p4737
I1
sVdji7fcp
p4738
I1
sVd6pr835
p4739
I1
sVd7nznqe
p4740
I1
sVd9xpt1h
p4741
I1
sVdifza3i
p4742
I1
sVdcur5kz
p4743
I1
sVdhyvizw
p4744
I1
sVdnjaohh
p4745
I1
sVczovifu
p4746
I1
sVdclmzky
p4747
I1
sVd39mwd3
p4748
I1
sVdawr4u0
p4749
I1
sVdbnffp0
p4750
I1
sVdb8f3gl
p4751
I1
sVdf79is8
p4752
I1
sVdie2mpc
p4753
I1
sVddq77p4
p4754
I1
sVdowlu9z
p4755
I1
sVdewtw6d
p4756
I1
sVda8lvr7
p4757
I1
sVde9dnp3
p4758
I1
sVd2cot2d
p4759
I1
sVd2an49o
p4760
I1
sVd1rqw78
p4761
I1
sVd9342k2
p4762
I1
sVd3ak3gs
p4763
I1
sVd4tywzl
p4764
I1
sVdgbn41g
p4765
I1
sVdh33z4b
p4766
I1
sVdegscgp
p4767
I1
sVd3p38uv
p4768
I1
sVdff16r4
p4769
I1
sVdbpa01k
p4770
I1
sVd51pf3m
p4771
I1
sVdoxshql
p4772
I2
sVd3ad7jz
p4773
I1
sVdmwwigq
p4774
I2
sVd5r4o5h
p4775
I1
sVcz7rngp
p4776
I1
sVdhdfi16
p4777
I1
sVd4qvg85
p4778
I1
sVdaupce2
p4779
I1
sVddnht0a
p4780
I1
sVddnrscw
p4781
I2
sVdk74erv
p4782
I1
sVd6y9dvf
p4783
I1
sVd0xewpw
p4784
I1
sVdmyoe5n
p4785
I1
sVdf6grl3
p4786
I1
sVdam2emi
p4787
I1
sVdr6gi1k
p4788
I1
sVd0nugnx
p4789
I1
sVd7fhi8n
p4790
I1
sVddpbx52
p4791
I1
sVdo1mvsn
p4792
I1
sVd9fb4bq
p4793
I2
sVd47x7o6
p4794
I2
sVd7v9y9f
p4795
I1
sVde7p4ih
p4796
I1
sVd4lxj62
p4797
I1
sVddwlo1m
p4798
I1
sVddol8hh
p4799
I1
sVd09g1eh
p4800
I1
sVdhd4npb
p4801
I1
sVdenfmyv
p4802
I1
sVdeqcwt3
p4803
I1
sVdbz3oxx
p4804
I1
sVd6284nk
p4805
I1
sVdoabdk1
p4806
I1
sVd1saulq
p4807
I2
sVdben4hn
p4808
I1
sVdh4y7cq
p4809
I1
sVd5pvgcd
p4810
I1
sVdixyn5k
p4811
I1
sVdbie09h
p4812
I1
sVdfv4sxw
p4813
I1
sVdbaoy7e
p4814
I1
sVdmuir77
p4815
I1
sVdes99ji
p4816
I1
sVdqmo6u7
p4817
I1
sVdi9sob9
p4818
I1
sVdcvasd0
p4819
I1
sVd2bq9wu
p4820
I1
sVd8gcant
p4821
I1
sVdnlwrah
p4822
I1
sVd6mkjn7
p4823
I1
sVdgny5pq
p4824
I1
sVd2c6dzt
p4825
I1
sVd1fmn2v
p4826
I1
sVd45657d
p4827
I1
sVd56eojy
p4828
I1
sVd3b36s3
p4829
I1
sVd2f3zab
p4830
I1
sVdsq65uw
p4831
I1
sVdk2fyc7
p4832
I1
sVde1bi6n
p4833
I1
sVczs8kdg
p4834
I1
sVdqstt3o
p4835
I1
sVdh5s9bo
p4836
I1
sVd36qh6l
p4837
I1
sVd131pb1
p4838
I1
sVds0hodb
p4839
I1
sVd1qbg1m
p4840
I1
sVdg88x52
p4841
I1
sVdogjbh5
p4842
I1
sVdfnhsmg
p4843
I1
sVdgzo53g
p4844
I1
sVdhilvlg
p4845
I1
sVd3dknmr
p4846
I1
sVczjom5n
p4847
I1
sVdom3ui6
p4848
I1
sVd2g805b
p4849
I1
sVdqnqu6z
p4850
I1
sVdqp3ykx
p4851
I1
sVd2sm2m8
p4852
I1
sVd9g01rg
p4853
I1
sVd6dygwh
p4854
I1
sVdohmfp6
p4855
I1
sVda3r89m
p4856
I3
sVdke4ezw
p4857
I1
sVddg7zav
p4858
I1
sVdg2bqx7
p4859
I2
sVda1c5jf
p4860
I1
sVdkqaqr9
p4861
I1
sVdd7zm0w
p4862
I1
sVd3tnur3
p4863
I1
sVdc34plc
p4864
I1
sVdrchnca
p4865
I1
sVd5jpnt1
p4866
I1
sVdpdl429
p4867
I1
sVdgj7no9
p4868
I1
sVdgz9fgw
p4869
I2
sVd97vsu1
p4870
I1
sVdn131zf
p4871
I2
sVd4ajxai
p4872
I1
sVd5tbxvc
p4873
I1
sVcyoy9z8
p4874
I1
sVd6z2ylk
p4875
I1
sVdeqwugt
p4876
I1
sVdhcgqdk
p4877
I1
sVdo7dk90
p4878
I1
sVdfkvwxi
p4879
I3
sVd36gaox
p4880
I1
sVd82xw3h
p4881
I2
sVd79jp6j
p4882
I1
sVdi1jxg2
p4883
I1
sVdh993gn
p4884
I1
sVcz0j4fy
p4885
I1
sVdng0446
p4886
I1
sVd6pmyyi
p4887
I1
sVd5v8woo
p4888
I1
sVdkcc2lv
p4889
I1
sVd6qt9su
p4890
I1
sVd0ku7lw
p4891
I1
sVdha1kti
p4892
I1
sVd32wuf4
p4893
I1
sVd5d4649
p4894
I3
sVd7oajhh
p4895
I1
sVdhluwox
p4896
I3
sVd7kjicx
p4897
I1
sVd86ysvw
p4898
I1
sVdoc6xw8
p4899
I1
sVdcpz4uo
p4900
I1
sVdaejoax
p4901
I1
sVdt7gyeg
p4902
I1
sVdjehqll
p4903
I1
sVd6hiehy
p4904
I1
sVdkz43f6
p4905
I1
sVddmu3z4
p4906
I2
sVd87eliz
p4907
I1
sVdbzoud4
p4908
I1
sVd3jln1e
p4909
I1
sVddgezax
p4910
I1
sVdp361a6
p4911
I1
sVda9jja8
p4912
I1
sVdnl2wyz
p4913
I2
sVd3sbdfa
p4914
I1
sVdfoo0aq
p4915
I2
sVdio8jby
p4916
I1
sVdb3ha3x
p4917
I1
sVdh0rx6f
p4918
I1
sVdj4a1v6
p4919
I1
sVcymn8zs
p4920
I1
s.