(dp0
Vdq9yvtl
p1
I1
sVd0cqtvo
p2
I1
sVdppkvx7
p3
I1
sVd0vxfnm
p4
I1
sVdirrqbj
p5
I1
sVdbnypp8
p6
I1
sVdkvrlo8
p7
I1
sVd0s3psu
p8
I2
sVd3g0weo
p9
I1
sVdibgokh
p10
I1
sVdav2ba3
p11
I1
sVdi7xyyu
p12
I1
sVd19530g
p13
I1
sVd6a8b9z
p14
I1
sVdmp4y2e
p15
I1
sVdf6j33n
p16
I1
s.