(dp0
Vcyltn6e
p1
I1
s.(dp0
Vcywnkaq
p1
I1
sVcyltn6e
p2
I1
s.(dp0
Vcywtgpp
p1
I1
sVcyltn6e
p2
I1
s.(dp0
Vcz9x2pn
p1
I1
sVcyltn6e
p2
I1
s.(dp0
Vczhqlfw
p1
I1
sVcyltn6e
p2
I1
s.(dp0
Vcztmiz0
p1
I1
sVcyltn6e
p2
I1
s.(dp0
Vczv1umi
p1
I1
sVcyltn6e
p2
I1
s.(dp0
Vczyc30x
p1
I1
sVcyltn6e
p2
I1
s.(dp0
Vcyltn6e
p1
I1
sVd110xz8
p2
I1
s.(dp0
Vd16gadm
p1
I1
sVcyltn6e
p2
I1
s.(dp0
Vcyltn6e
p1
I1
sVd16oxtp
p2
I1
s.(dp0
Vd16s3i5
p1
I1
sVcyltn6e
p2
I1
s.(dp0
Vcyltn6e
p1
I1
sVd1i609g
p2
I1
s.(dp0
Vd1xms2o
p1
I1
sVcyltn6e
p2
I1
s.(dp0
Vd1y16ao
p1
I1
sVcyltn6e
p2
I1
s.(dp0
Vd1y16ao
p1
I1
sVcyltn6e
p2
I1
s.(dp0
Vd1zpzqh
p1
I1
sVcyltn6e
p2
I1
s.(dp0
Vd2hyhid
p1
I1
sVcyltn6e
p2
I1
s.(dp0
Vd2la73v
p1
I1
sVcyltn6e
p2
I1
s.(dp0
Vd2urqui
p1
I1
sVcyltn6e
p2
I1
s.(dp0
Vd2zijet
p1
I1
sVcyltn6e
p2
I1
s.(dp0
Vd39vbsk
p1
I1
sVcyltn6e
p2
I1
s.(dp0
Vd3lpzxt
p1
I1
sVcyltn6e
p2
I1
s.(dp0
Vd3oguhh
p1
I1
sVcyltn6e
p2
I1
s.(dp0
Vcyltn6e
p1
I1
sVd3ozv8b
p2
I1
s.(dp0
Vcyltn6e
p1
I1
sVd3w0vcu
p2
I1
s.(dp0
Vd44zw2s
p1
I1
sVcyltn6e
p2
I1
s.(dp0
Vd48xjuh
p1
I1
sVcyltn6e
p2
I1
s.(dp0
Vd4cwvua
p1
I1
sVcyltn6e
p2
I1
s.(dp0
Vd4d8892
p1
I1
sVcyltn6e
p2
I1
s.(dp0
Vd4qswyz
p1
I1
sVcyltn6e
p2
I1
s.(dp0
Vd5gnqqj
p1
I1
sVcyltn6e
p2
I1
s.(dp0
Vd5r5wcq
p1
I1
sVcyltn6e
p2
I1
s.(dp0
Vd6rztki
p1
I1
sVcyltn6e
p2
I1
s.(dp0
Vd7td5ap
p1
I1
sVcyltn6e
p2
I1
s.(dp0
Vd8eofhy
p1
I1
sVcyltn6e
p2
I1
s.(dp0
Vdam0m82
p1
I1
sVcyltn6e
p2
I1
s.(dp0
Vdav2ejv
p1
I1
sVcyltn6e
p2
I1
s.(dp0
Vdazp9dk
p1
I1
sVcyltn6e
p2
I1
s.(dp0
Vdb9iyas
p1
I1
sVcyltn6e
p2
I1
s.(dp0
Vdbf0k7a
p1
I1
sVcyltn6e
p2
I1
s.(dp0
Vdbfpbv9
p1
I1
sVcyltn6e
p2
I1
s.(dp0
Vdbo4r0l
p1
I1
sVcyltn6e
p2
I1
s.(dp0
Vdbwmsh1
p1
I1
sVcyltn6e
p2
I1
s.(dp0
Vdc3dl0z
p1
I1
sVcyltn6e
p2
I1
s.(dp0
Vcyltn6e
p1
I1
sVdc63gmz
p2
I1
s.(dp0
Vdc7zyed
p1
I1
sVcyltn6e
p2
I1
s.(dp0
Vdcdmoqm
p1
I1
sVcyltn6e
p2
I1
s.(dp0
Vdcgju8w
p1
I1
sVcyltn6e
p2
I1
s.(dp0
Vdcgju8w
p1
I1
sVcyltn6e
p2
I1
s.(dp0
Vdcjt15s
p1
I1
sVcyltn6e
p2
I1
s.(dp0
Vddjavsy
p1
I1
sVcyltn6e
p2
I1
s.(dp0
Vde2jork
p1
I1
sVcyltn6e
p2
I1
s.(dp0
Vde2omta
p1
I1
sVcyltn6e
p2
I1
s.(dp0
Vde2omta
p1
I1
sVcyltn6e
p2
I1
s.(dp0
Vdeclqjb
p1
I1
sVcyltn6e
p2
I1
s.(dp0
Vdeuwq3m
p1
I1
sVcyltn6e
p2
I1
s.(dp0
Vdf3pa1e
p1
I1
sVcyltn6e
p2
I1
s.(dp0
Vcyltn6e
p1
I1
sVdfz4rie
p2
I1
s.(dp0
Vdfzorgv
p1
I1
sVcyltn6e
p2
I1
s.(dp0
Vdg48mi8
p1
I1
sVcyltn6e
p2
I1
s.(dp0
Vdgflgr5
p1
I1
sVcyltn6e
p2
I1
s.(dp0
Vdgie7wh
p1
I1
sVcyltn6e
p2
I1
s.(dp0
Vdgj868p
p1
I1
sVcyltn6e
p2
I1
s.(dp0
Vdgulbp4
p1
I1
sVcyltn6e
p2
I1
s.(dp0
Vcyltn6e
p1
I1
sVdhiabqs
p2
I1
s.(dp0
Vdhiux8l
p1
I1
sVcyltn6e
p2
I1
s.(dp0
Vdi9u9yp
p1
I1
sVcyltn6e
p2
I1
s.(dp0
Vdifecjv
p1
I1
sVcyltn6e
p2
I1
s.(dp0
Vdijmi92
p1
I1
sVcyltn6e
p2
I1
s.(dp0
Vdijmi92
p1
I1
sVcyltn6e
p2
I1
s.(dp0
Vdivsm2x
p1
I1
sVcyltn6e
p2
I1
s.(dp0
Vdj2royd
p1
I1
sVcyltn6e
p2
I1
s.(dp0
Vdjm9njy
p1
I1
sVcyltn6e
p2
I1
s.(dp0
Vdjq3qx9
p1
I1
sVcyltn6e
p2
I1
s.(dp0
Vdjq3qx9
p1
I1
sVcyltn6e
p2
I1
s.(dp0
Vdk4zhex
p1
I1
sVcyltn6e
p2
I1
s.(dp0
Vdn44kg6
p1
I1
sVcyltn6e
p2
I1
s.(dp0
Vdogae7s
p1
I1
sVcyltn6e
p2
I1
s.(dp0
Vdohmfp6
p1
I1
sVcyltn6e
p2
I1
s.(dp0
Vdohmfp6
p1
I1
sVcyltn6e
p2
I1
s.(dp0
Vdokoj6z
p1
I1
sVcyltn6e
p2
I1
s.(dp0
Vdouilos
p1
I1
sVcyltn6e
p2
I1
s.(dp0
Vdqh5fdt
p1
I1
sVcyltn6e
p2
I1
s.(dp0
Vdrk18fv
p1
I1
sVcyltn6e
p2
I1
s.