(dp0
Vd5k4rei
p1
I1
sVd1xwcs2
p2
I1
sVd9ohcdx
p3
I1
sVczthldk
p4
I1
sVd5ru5tt
p5
I2
sVddd6xfq
p6
I1
sVd25958i
p7
I1
sVdn6ytxd
p8
I1
sVdf892g2
p9
I1
sVd27d0zb
p10
I1
sVdt29ucd
p11
I1
sVd6vypgq
p12
I1
sVddxbsmn
p13
I1
sVdslp0rl
p14
I1
sVdrv50gf
p15
I1
sVd8zi1xk
p16
I1
sVd5jkun9
p17
I1
sVcznzamk
p18
I1
sVd0x00z5
p19
I1
sVcz9g82t
p20
I1
sVd7k3zyp
p21
I1
sVd9h12p0
p22
I1
sVdfwqp2s
p23
I1
sVcyluxi2
p24
I1
sVdhkg2vw
p25
I1
sVdditrrb
p26
I1
sVdj6hphw
p27
I1
sVd0dehx6
p28
I1
sVd9j0kg3
p29
I1
sVd58troe
p30
I1
sVdcmhteq
p31
I1
sVd2ih6kp
p32
I1
sVd3qk61z
p33
I1
sVd6jbd2q
p34
I1
sVcz8e7mg
p35
I1
sVd3etweh
p36
I1
sVd3mxspy
p37
I1
sVd3cjsm3
p38
I1
sVdalz07i
p39
I1
sVd7wr6so
p40
I1
sVd3hf3ea
p41
I1
sVczm6izy
p42
I2
sVdi7qgu2
p43
I1
sVdja7jea
p44
I1
sVdedvhop
p45
I1
sVddon0dq
p46
I1
sVd2g4u6v
p47
I1
sVd7pbfj0
p48
I1
sVd6rj450
p49
I1
sVd92rvft
p50
I1
sVdt7m7n3
p51
I1
sVcz12xqb
p52
I1
sVcyl2xxy
p53
I1
sVdctjo1u
p54
I1
sVdeioh8l
p55
I1
sVdd411p1
p56
I1
sVczaq4y7
p57
I1
sVded5n3k
p58
I2
sVcyve3id
p59
I1
sVdo5xd2r
p60
I1
sVdbz8zcl
p61
I1
sVdtggc65
p62
I1
sVd9xrf3q
p63
I2
sVd6zqxxx
p64
I1
sVd01yise
p65
I1
sVd9kko9d
p66
I1
sVdeh8w07
p67
I1
sVdmhnry4
p68
I1
sVdnxutic
p69
I1
sVd8ytcb1
p70
I1
sVd1e6z28
p71
I1
sVdt2f6tp
p72
I2
sVczqrmr4
p73
I1
sVdd63ig7
p74
I1
sVddt6fob
p75
I1
sVd1syu0l
p76
I1
sVdq3peh0
p77
I1
sVd5m98fh
p78
I1
sVd0gxwrq
p79
I1
sVdk1avpe
p80
I1
sVda04m06
p81
I1
sVd5aay3k
p82
I1
sVdddc0t5
p83
I1
sVd7iuvqp
p84
I1
sVdbzefc9
p85
I1
sVdd65uyn
p86
I1
sVde8pbqu
p87
I1
sVdbcfon8
p88
I1
sVdjktdzz
p89
I1
sVczz12x0
p90
I1
sVdpxfg53
p91
I1
sVd1xmyi8
p92
I1
sVd1ptuwd
p93
I1
sVdfk2xs0
p94
I1
sVde2fs74
p95
I1
sVd40duou
p96
I1
sVdjspve8
p97
I1
sVds5n9qk
p98
I1
sVd1t5mc2
p99
I1
sVcyzhpvi
p100
I1
sVd964op5
p101
I1
sVd0u2mvk
p102
I1
sVd0gl7o7
p103
I1
sVde46c49
p104
I1
sVdbze0tv
p105
I1
sVd5ej5gr
p106
I1
sVdn2oejb
p107
I1
sVdflrysb
p108
I1
sVdd4v91p
p109
I1
sVdc2lb2e
p110
I1
sVd4e6cix
p111
I1
sVd2g6mvw
p112
I1
sVdqqapqc
p113
I1
sVd8k970q
p114
I1
sVdhi0ian
p115
I1
sVdsopmbe
p116
I1
sVdeekzpf
p117
I1
sVd75tri3
p118
I1
sVdh1t400
p119
I1
sVdan0x77
p120
I1
sVd4hvzo7
p121
I1
sVdae96i3
p122
I1
sVdjdf80s
p123
I1
sVdi0mcx5
p124
I1
sVd3c07rn
p125
I1
sVdd528w2
p126
I1
sVdj3h9h9
p127
I1
sVd4xnthy
p128
I1
sVd0yhhkq
p129
I1
sVdr4a1il
p130
I1
sVd3t115l
p131
I1
sVdmzw5s0
p132
I1
sVd72dofw
p133
I1
sVdaanl2e
p134
I1
sVd80jpxj
p135
I1
sVdctp2s5
p136
I1
sVd9i9zrh
p137
I1
sVdi350nz
p138
I1
sVd5w3no8
p139
I3
sVd02omrr
p140
I1
sVd3bhol4
p141
I1
sVdkxdit1
p142
I1
sVcyowxac
p143
I1
sVd2fwayu
p144
I1
sVdczk8oe
p145
I1
sVdd4vr3a
p146
I1
sVdaxo0q3
p147
I1
s.