(dp0
Vdadwssz
p1
I1
sVd2lgkbd
p2
I1
sVdgz288h
p3
I1
sVd2kw9kk
p4
I1
sVd090xc5
p5
I4
sVdrtrlfn
p6
I1
sVd7pmqk0
p7
I1
sVcyz9y7b
p8
I1
sVdk7negi
p9
I1
sVd2lbtm6
p10
I2
sVdb0j5yd
p11
I1
sVdfnaowv
p12
I1
sVd905nv5
p13
I1
sVdeuedo4
p14
I1
sVd2kyxwf
p15
I2
sVdj242gw
p16
I1
sVd2l1g2c
p17
I2
sVdgvwu27
p18
I1
sVdk29t67
p19
I1
sVd2la3oc
p20
I1
sVd8a9f77
p21
I1
sVdhylll2
p22
I1
sVd2l3nc5
p23
I1
sVd2l5fhz
p24
I3
sVdexui2v
p25
I1
s.