(dp0
Vd430p0x
p1
I1
sVd2aia4m
p2
I1
sVdgoqc1z
p3
I1
sVd3uunzn
p4
I1
sVdfuyifd
p5
I1
sVd1jg2fu
p6
I1
sVd4qjthv
p7
I1
sVcyzd0gh
p8
I1
sVdfmfamu
p9
I1
sVd8eofhy
p10
I1
sVd120zdk
p11
I1
sVdb2il13
p12
I1
sVdhh513w
p13
I1
sVd0ctc87
p14
I1
sVdagavsd
p15
I1
sVczkblve
p16
I1
sVd6qewse
p17
I1
sVdhaw35g
p18
I1
sVdj7uwjr
p19
I1
sVdfzn5lo
p20
I1
sVdczjtve
p21
I1
sVd43agxp
p22
I1
sVdgruylu
p23
I1
sVd96ufbs
p24
I1
sVd7465n3
p25
I1
sVd8t3612
p26
I1
sVcz6pmel
p27
I1
sVdaw74ry
p28
I1
sVd2kcub1
p29
I1
sVdsnyksf
p30
I1
sVczrpitp
p31
I1
sVd4okkyg
p32
I1
sVd0ut9ou
p33
I1
sVcyu2zed
p34
I1
sVdn9t90c
p35
I1
sVd5bwnm7
p36
I1
sVczgkzd1
p37
I1
sVdna0lf8
p38
I1
sVdcyj7pd
p39
I1
sVdhs1lmk
p40
I1
sVd2ze07l
p41
I1
sVdk90lc7
p42
I1
sVcyslnn8
p43
I1
sVdcysdik
p44
I1
s.