(dp0
Vcyzmkbw
p1
I1
s.(dp0
Vcz02tx0
p1
I1
sVcyzmkbw
p2
I1
s.(dp0
Vd0qg3zj
p1
I1
sVcyzmkbw
p2
I1
s.(dp0
Vd1td2zr
p1
I1
sVcyzmkbw
p2
I1
s.(dp0
Vd1td2zr
p1
I1
sVcyzmkbw
p2
I1
s.(dp0
Vd1td2zr
p1
I1
sVcyzmkbw
p2
I1
s.(dp0
Vcyzmkbw
p1
I1
sVd1z0zal
p2
I1
s.(dp0
Vcyzmkbw
p1
I1
sVd2rpftc
p2
I1
s.(dp0
Vcyzmkbw
p1
I1
sVd2rqvgh
p2
I1
s.(dp0
Vd2u53vs
p1
I1
sVcyzmkbw
p2
I1
s.(dp0
Vd2u53vs
p1
I1
sVcyzmkbw
p2
I1
s.(dp0
Vd2u53vs
p1
I1
sVcyzmkbw
p2
I1
s.(dp0
Vd2w7n0k
p1
I1
sVcyzmkbw
p2
I1
s.(dp0
Vcyzmkbw
p1
I1
sVd2w7tdi
p2
I1
s.(dp0
Vcyzmkbw
p1
I1
sVd2w9pwc
p2
I1
s.(dp0
Vcyzmkbw
p1
I1
sVd2wb2i8
p2
I1
s.(dp0
Vd2wca6g
p1
I1
sVcyzmkbw
p2
I1
s.(dp0
Vcyzmkbw
p1
I1
sVd2xjaht
p2
I1
s.(dp0
Vcyzmkbw
p1
I1
sVd2xpfxe
p2
I1
s.(dp0
Vcyzmkbw
p1
I1
sVd34oorp
p2
I1
s.(dp0
Vcyzmkbw
p1
I1
sVd3is80d
p2
I1
s.(dp0
Vd52zdyq
p1
I1
sVcyzmkbw
p2
I1
s.(dp0
Vd5os05b
p1
I1
sVcyzmkbw
p2
I1
s.(dp0
Vd62dbs4
p1
I1
sVcyzmkbw
p2
I1
s.(dp0
Vd6dbt85
p1
I1
sVcyzmkbw
p2
I1
s.(dp0
Vd6dbt85
p1
I1
sVcyzmkbw
p2
I1
s.(dp0
Vd6l6wfe
p1
I1
sVcyzmkbw
p2
I1
s.(dp0
Vd7x44wo
p1
I1
sVcyzmkbw
p2
I1
s.(dp0
Vd88x9fp
p1
I1
sVcyzmkbw
p2
I1
s.(dp0
Vcyzmkbw
p1
I1
sVda16iu7
p2
I1
s.(dp0
Vdaaz9rm
p1
I1
sVcyzmkbw
p2
I1
s.(dp0
Vcyzmkbw
p1
I1
sVdba32my
p2
I1
s.(dp0
Vcyzmkbw
p1
I1
sVdd23zev
p2
I1
s.(dp0
Vdd97tdh
p1
I1
sVcyzmkbw
p2
I1
s.(dp0
Vcyzmkbw
p1
I1
sVdhjo0lz
p2
I1
s.(dp0
Vcyzmkbw
p1
I1
sVdi9yx88
p2
I1
s.(dp0
Vcyzmkbw
p1
I1
sVdmnbqn4
p2
I1
s.(dp0
Vdo5xq3z
p1
I1
sVcyzmkbw
p2
I1
s.(dp0
Vdo5xq3z
p1
I1
sVcyzmkbw
p2
I1
s.(dp0
Vdo5xq3z
p1
I1
sVcyzmkbw
p2
I1
s.(dp0
Vcyzmkbw
p1
I1
sVdoczk95
p2
I1
s.(dp0
Vcyzmkbw
p1
I1
sVdqvs0jw
p2
I1
s.(dp0
Vcyzmkbw
p1
I1
sVdqvs0jw
p2
I1
s.(dp0
Vdqykoy3
p1
I1
sVcyzmkbw
p2
I1
s.(dp0
Vdqykoy3
p1
I1
sVcyzmkbw
p2
I1
s.(dp0
Vdr268ej
p1
I1
sVcyzmkbw
p2
I1
s.(dp0
Vdr268ej
p1
I1
sVcyzmkbw
p2
I1
s.(dp0
Vdr28ind
p1
I1
sVcyzmkbw
p2
I1
s.(dp0
Vdr28ind
p1
I1
sVcyzmkbw
p2
I1
s.(dp0
Vcyzmkbw
p1
I1
sVdr4k2fo
p2
I1
s.(dp0
Vcyzmkbw
p1
I1
sVdr4k2fo
p2
I1
s.(dp0
Vcyzmkbw
p1
I1
sVdr4k2fo
p2
I1
s.(dp0
Vdra1dyl
p1
I1
sVcyzmkbw
p2
I1
s.(dp0
Vcyzmkbw
p1
I1
sVds83gz0
p2
I1
s.(dp0
Vcyzmkbw
p1
I1
sVdt7p7ky
p2
I1
s.