(dp0
Vdbumxvw
p1
I1
sVcz8vybu
p2
I1
sVdej6v1j
p3
I1
sVdieatwp
p4
I1
sVdg6bncw
p5
I2
sVdebmdxh
p6
I1
sVd49ntdj
p7
I1
sVdnlm49m
p8
I1
sVddkfo7k
p9
I1
sVdc7oe3t
p10
I2
sVdq8hv37
p11
I1
sVdbkb17v
p12
I1
sVd1qolsr
p13
I1
sVd0wwgy5
p14
I1
sVcyo646f
p15
I2
sVdfye1mb
p16
I1
sVdebyn3f
p17
I1
sVd0xzsas
p18
I2
sVdh44uwf
p19
I1
s.