(dp0
Vd12k8ap
p1
I1
sVdb8tvmr
p2
I1
sVd99rvdv
p3
I1
sVdh16izq
p4
I1
sVd3rc87m
p5
I1
sVdecad1n
p6
I1
sVd3zr9di
p7
I1
sVd796ytr
p8
I1
sVdbijjql
p9
I1
sVdauh8te
p10
I1
sVdbkiybx
p11
I1
sVdcy1zjm
p12
I1
sVd54xrve
p13
I1
sVd5veyk7
p14
I1
sVde53see
p15
I1
sVd6izz7w
p16
I1
sVd25958i
p17
I1
sVdh0kwik
p18
I1
sVd3bzbl6
p19
I1
sVdsavhfo
p20
I1
sVdi9ce1g
p21
I1
sVdmimce7
p22
I1
sVd3cxukc
p23
I1
sVdfc7h0j
p24
I1
sVdjllniv
p25
I1
sVdinibjj
p26
I1
sVd7pbfj0
p27
I1
sVdbh4mk3
p28
I1
sVdsexlej
p29
I1
sVdknoc1v
p30
I1
sVdac0l7z
p31
I1
sVddoaz69
p32
I1
sVdplpog9
p33
I1
sVdj66ae6
p34
I1
sVdoe847m
p35
I1
sVcyjlx5r
p36
I1
sVd0ycjrr
p37
I1
sVczhspyd
p38
I1
sVdiplgsd
p39
I1
sVdadpoiu
p40
I1
sVdkr4xdf
p41
I1
sVd0gw1lr
p42
I1
sVd4570d8
p43
I1
sVcz3uzqa
p44
I1
sVdftkoqm
p45
I1
sVd1jcog6
p46
I1
sVd4vvsjf
p47
I1
sVd7hd9yg
p48
I1
sVdndaic3
p49
I1
sVdp2t0lk
p50
I1
sVdh9wump
p51
I1
sVdqtxdj2
p52
I1
sVdh06ogi
p53
I1
sVdn6hc94
p54
I1
sVd3qk61z
p55
I1
s.