(dp0
Vdb056mn
p1
I1
sVdtg9j7n
p2
I1
sVda6y3cm
p3
I4
sVdbdd74o
p4
I1
sVdg5wfku
p5
I1
sVdg61yi4
p6
I2
sVd64empp
p7
I1
sVdoh5hp6
p8
I1
sVdduj037
p9
I1
sVdsxz98w
p10
I7
sVdr0ptf3
p11
I3
sVdsuv5ug
p12
I2
sVdco2knu
p13
I2
sVd97i8zx
p14
I1
sVddlnf8j
p15
I2
sVdrk9mu5
p16
I1
sVcyrqzad
p17
I1
sVd60s78j
p18
I1
sVdk051va
p19
I1
sVd0sht8o
p20
I6
sVd5c0v2s
p21
I2
sVdd5p9tz
p22
I1
sVdsida9s
p23
I1
sVdcyn6u9
p24
I1
sVdclm2tq
p25
I6
sVd7rexfr
p26
I1
sVd0x6eku
p27
I1
sVda74tay
p28
I1
sVdjuz9da
p29
I1
sVdmvk87t
p30
I2
sVdgxt94o
p31
I2
sVczr1pu3
p32
I1
sVdi0eb4k
p33
I1
sVdnql80a
p34
I2
sVdq8ozrk
p35
I1
sVdbf26p3
p36
I1
sVdeaw03t
p37
I2
sVd7ocxia
p38
I1
sVdg5087g
p39
I2
sVdnahict
p40
I8
sVdq713lv
p41
I1
sVd0bl9ny
p42
I3
sVdr1kkvz
p43
I1
sVda8ffgk
p44
I1
sVd1cnum5
p45
I1
sVdcwy1mt
p46
I2
sVde18pvv
p47
I3
sVd15i0q7
p48
I2
sVdgn8564
p49
I1
sVdbfcw71
p50
I1
sVdiztmmz
p51
I1
sVde8syvy
p52
I1
sVdppuihe
p53
I1
sVddj7tdm
p54
I1
sVdegupp3
p55
I1
sVdtbgo6k
p56
I4
sVdb9p1jt
p57
I7
sVd0edl9p
p58
I1
sVd0w4guz
p59
I1
sVcz9iogi
p60
I2
sVd1znxhp
p61
I5
sVdcg8tug
p62
I1
sVdiasl68
p63
I1
sVdkkj58u
p64
I1
sVd7rjfse
p65
I3
sVdpnk9e2
p66
I1
sVdonyslp
p67
I1
sVcytstzx
p68
I3
sVd94hgzp
p69
I1
sVdnz0cpn
p70
I2
sVd0zocxs
p71
I1
sVd5firmi
p72
I1
sVd2nujhu
p73
I2
sVd97gklk
p74
I1
sVdgya2i6
p75
I1
sVd19jpy5
p76
I2
sVdo1ayed
p77
I1
sVdcktmnr
p78
I1
sVd5yife6
p79
I1
sVd5iei9b
p80
I2
sVczhox71
p81
I2
sVd4xqpqn
p82
I1
sVdia0zyz
p83
I2
sVdd1ktc9
p84
I1
sVdbypamr
p85
I1
sVd0luecn
p86
I1
sVdqt2qb6
p87
I1
sVd2b63a1
p88
I1
sVdfc5pf2
p89
I1
sVdfiuj7r
p90
I2
sVdf8r6kc
p91
I2
sVcz5y0cy
p92
I1
sVdih3ota
p93
I1
sVd02islg
p94
I1
sVdda1kvs
p95
I4
sVd38orqr
p96
I1
sVdo1c9xv
p97
I1
sVcyws71w
p98
I1
sVdrj900c
p99
I1
sVdbjf7kf
p100
I4
sVdo6xrve
p101
I2
sVde0sdc5
p102
I1
sVcz7hg7k
p103
I1
sVd7p1j3c
p104
I2
sVdg5k40m
p105
I1
sVd31hnur
p106
I1
sVdec5sst
p107
I1
sVd79ia9s
p108
I2
sVd3hxkrf
p109
I1
sVdau0yr1
p110
I1
sVd55cgza
p111
I1
sVdeissws
p112
I2
sVd5usmmo
p113
I3
sVd7rpw32
p114
I1
sVdofvrx5
p115
I1
sVd397ns6
p116
I4
sVcyiphx8
p117
I1
sVd1jpnhe
p118
I3
sVddn7ulz
p119
I1
sVd2hfq5h
p120
I1
sVdf1x1ui
p121
I1
sVd5v0xgz
p122
I7
sVczb84hx
p123
I1
sVdf90357
p124
I1
sVdfsht8w
p125
I1
sVd76etiq
p126
I3
sVd4qbj8r
p127
I1
sVdjkm4ni
p128
I1
sVcyudsee
p129
I1
sVd620tqq
p130
I2
sVdg90fmy
p131
I1
sVdr1v7g5
p132
I1
sVdfk2yva
p133
I1
sVdgmfw53
p134
I1
sVcyzfcja
p135
I2
sVdetl6jv
p136
I4
sVdjyvyun
p137
I1
sVdnc1bel
p138
I1
sVdpqi56l
p139
I1
sVdmhwy64
p140
I3
sVcz6emu6
p141
I1
sVdodns9t
p142
I1
sVdcy20o5
p143
I4
sVdc6ygtn
p144
I1
sVdemo0ne
p145
I1
sVdrgi44i
p146
I1
sVd0h4n3z
p147
I1
sVdgjxo4v
p148
I1
sVdbwx378
p149
I1
sVd5gfiay
p150
I1
sVdg9uhdw
p151
I1
sVczomf8p
p152
I5
sVd3xa287
p153
I2
sVd3i14kp
p154
I5
sVdfinuz6
p155
I7
sVdehn5fa
p156
I1
sVdhggrme
p157
I2
sVcyyihsz
p158
I7
sVd3nka4e
p159
I8
sVd78bov5
p160
I1
sVd6hyiwd
p161
I1
sVdb8lux3
p162
I4
sVdpmbp3a
p163
I2
sVdqaioxa
p164
I6
sVdgry06w
p165
I1
sVdhgpu04
p166
I1
sVdnpkst8
p167
I1
sVdfj4p31
p168
I7
sVcz03h8d
p169
I1
sVcz4jzel
p170
I1
sVda911ef
p171
I1
sVd7r18eg
p172
I1
sVdoz1x0o
p173
I1
sVd6izupn
p174
I1
sVd9t4xmm
p175
I1
sVdftf5er
p176
I1
sVd7quhy4
p177
I1
sVdtcf4r3
p178
I1
sVd95bfet
p179
I1
sVd57rzvz
p180
I1
sVdp9vgax
p181
I1
sVdjdqfbw
p182
I1
sVdcivmti
p183
I1
sVd1qbvz0
p184
I1
sVdosd73s
p185
I2
sVd13abn7
p186
I1
sVdq147br
p187
I2
sVde44ej2
p188
I2
sVd3g25qf
p189
I1
sVd097ooh
p190
I7
sVdickjm6
p191
I1
sVda7gbz4
p192
I1
sVd2kt0kt
p193
I1
sVda2lydy
p194
I1
sVdtgdky7
p195
I1
sVdjvl2rt
p196
I1
sVdhhaf6e
p197
I1
sVdb2nfg3
p198
I1
sVczqlckc
p199
I1
sVdh1wart
p200
I1
sVd0zka26
p201
I1
sVcyv6bkk
p202
I1
sVd16rlpp
p203
I2
sVdri4b91
p204
I1
sVdjorku8
p205
I1
sVdoj6h43
p206
I1
sVd0kg24s
p207
I2
sVd4s04a1
p208
I1
sVdemo5yy
p209
I1
sVdqitb3x
p210
I1
sVd4prt5i
p211
I1
sVd15vy8n
p212
I1
sVdr7tuco
p213
I1
sVdap8e8d
p214
I2
sVdcxrdxu
p215
I1
sVdt5cl5u
p216
I2
sVdegulom
p217
I1
sVdsxmvzz
p218
I1
sVd6dikl9
p219
I1
sVdr4z6gu
p220
I1
sVd1hmjd7
p221
I2
sVd70vdha
p222
I1
sVddatmwb
p223
I2
sVdph49r2
p224
I1
sVdfbd5ph
p225
I1
sVdaau74r
p226
I1
sVdoslb85
p227
I2
sVd5ckzgt
p228
I2
sVdkkjbh4
p229
I2
sVdfg6ad1
p230
I1
sVdepx35j
p231
I1
sVd75lnos
p232
I1
sVdbidvj1
p233
I3
sVd63ik39
p234
I1
sVdbwmrt8
p235
I1
sVdp3ynav
p236
I1
sVdoersed
p237
I2
sVdavimdz
p238
I1
sVdhfk87m
p239
I1
sVd2kq6gg
p240
I2
sVd8vi73n
p241
I1
sVd2o5et9
p242
I1
sVd71ixg5
p243
I1
sVd7xgp4d
p244
I1
sVdcfg5y1
p245
I1
sVd7b5tdu
p246
I2
sVd2g695y
p247
I1
sVdaxukg5
p248
I1
sVdsmbgrt
p249
I3
sVd173f39
p250
I1
sVdjq5x6n
p251
I3
sVdn81tzs
p252
I1
sVd03rml2
p253
I2
sVdq1k0vh
p254
I2
sVczbc835
p255
I4
sVd92aojo
p256
I2
sVde4dvim
p257
I2
sVdgq4edu
p258
I4
sVdr2iu0c
p259
I1
sVdfercqn
p260
I1
sVdp9xsv0
p261
I1
sVd5xzvgo
p262
I1
sVdpgmxy9
p263
I3
sVcykk1tt
p264
I3
sVd7z9hjs
p265
I5
sVdal8tip
p266
I1
sVd6x3ms0
p267
I2
sVd5qpp2n
p268
I4
sVczjhka3
p269
I1
sVdqwy1c0
p270
I3
sVd1b8qdn
p271
I1
sVdbf7n37
p272
I3
sVdd1kxlu
p273
I1
sVd7ghm3a
p274
I1
sVdse4uqj
p275
I1
sVczrc1th
p276
I2
sVcywseat
p277
I4
sVdj5ug5g
p278
I3
sVdg0o5be
p279
I2
sVd2em0la
p280
I1
sVdjvkqtl
p281
I4
sVdcaa5rw
p282
I1
sVdf7t2lq
p283
I1
sVdev2p8i
p284
I3
sVd5h7rjm
p285
I1
sVd0waxeb
p286
I1
sVd0ycao4
p287
I1
sVd94hw4y
p288
I5
sVdpr4yzl
p289
I1
sVd3k7aw2
p290
I2
sVdfj7yse
p291
I2
sVdk0jg2h
p292
I1
sVds1ht2b
p293
I1
sVd91aak1
p294
I1
sVd9j5huz
p295
I1
sVd4mutrj
p296
I7
sVd08zuu4
p297
I1
sVd2kxy0s
p298
I2
sVd5dhb4t
p299
I1
sVd12ur2k
p300
I1
sVd1334um
p301
I1
sVdnbmyak
p302
I1
sVdrhyfdj
p303
I1
sVdk96gly
p304
I1
sVdhfcwzo
p305
I1
sVdprjg22
p306
I1
sVdejqs3o
p307
I1
sVdre4w4t
p308
I1
sVdq8uj91
p309
I1
sVdsq57yt
p310
I1
sVd8pm7l1
p311
I1
sVddqnync
p312
I1
sVdgka7i1
p313
I1
sVdptc1gv
p314
I1
sVdfabk3a
p315
I1
sVd9k2mc3
p316
I2
sVdosp2dj
p317
I2
sVd06vqfp
p318
I2
sVd25xt9u
p319
I6
sVdcbf9oi
p320
I3
sVd10pe16
p321
I1
sVd9uo4b8
p322
I1
sVcyv3qcg
p323
I2
sVdbyf5mu
p324
I1
sVd67q6ko
p325
I1
sVdh6s3wt
p326
I1
sVdjvzov1
p327
I2
sVd5p9rhb
p328
I1
sVdqxj7q1
p329
I1
sVdedxlac
p330
I7
sVdkr6hfo
p331
I1
sVcz9k8bq
p332
I1
sVczhybj3
p333
I1
sVczw17rv
p334
I6
sVdk6azf2
p335
I1
sVddaqkd5
p336
I1
sVd7z62wd
p337
I21
sVd1q0r7q
p338
I2
sVdcf28jy
p339
I2
sVdcjcgfh
p340
I2
sVdplzo9s
p341
I1
sVdgfn8od
p342
I3
sVd23fnr0
p343
I1
sVddtb30c
p344
I4
sVczg432s
p345
I1
sVdakptcv
p346
I1
sVd6gpjsq
p347
I1
sVd5z8m87
p348
I1
sVd2zmm6x
p349
I4
sVdibwr32
p350
I3
sVd7fzci2
p351
I2
sVcyv5t5h
p352
I2
sVd1i1h1w
p353
I1
sVd1czo5n
p354
I2
sVda7pr4p
p355
I1
sVdmf8q0z
p356
I2
sVd71jwu9
p357
I12
sVds3ypa0
p358
I1
sVdq15j8x
p359
I9
sVdpe479m
p360
I1
sVdmyxqfb
p361
I1
sVd79iiho
p362
I2
sVdsvbdkx
p363
I1
sVdprmi96
p364
I1
sVcynob8u
p365
I5
sVdemv9zy
p366
I1
sVd9s93j7
p367
I1
sVdkqmn52
p368
I2
sVd0b35yb
p369
I1
sVd5xnzo4
p370
I6
sVczxnsrj
p371
I1
sVd8hk428
p372
I5
sVdappq9t
p373
I1
sVdekexyd
p374
I1
sVd7sqkfo
p375
I1
sVd6m2xad
p376
I1
sVczzspo6
p377
I1
sVcyzarjc
p378
I2
sVd2s1y7r
p379
I1
sVditr5xt
p380
I3
sVdg39akt
p381
I1
sVd3e2yrt
p382
I1
sVdewyw5o
p383
I1
sVd5whrju
p384
I1
sVd728k3i
p385
I2
sVdq53gyi
p386
I1
sVdf0z715
p387
I1
sVdegjphp
p388
I3
sVdgtqw0r
p389
I1
sVd72507v
p390
I1
sVd1ohrlk
p391
I1
sVd8bk48k
p392
I1
sVd2k2vse
p393
I1
sVdbn20l0
p394
I2
sVdbi0njj
p395
I1
sVdhdakqx
p396
I1
sVd0hfz70
p397
I3
sVd2svbpu
p398
I4
sVday70hp
p399
I1
sVd7xpp9a
p400
I1
sVdrddo2v
p401
I1
sVdfj0fmx
p402
I5
sVdn038l5
p403
I2
sVd16wfn1
p404
I1
sVd6fvw20
p405
I4
sVd9wr9vt
p406
I3
sVdg722jl
p407
I1
sVd13a8y7
p408
I2
sVd7rdfxc
p409
I1
sVd1xnt2v
p410
I1
sVde79zgb
p411
I1
sVdgxql7u
p412
I1
sVdeogn3o
p413
I2
sVd055xur
p414
I6
sVd1zq0h8
p415
I1
sVd0zljyr
p416
I1
sVd4mqnmh
p417
I2
sVdc0zvl7
p418
I4
sVdcwv6os
p419
I1
sVd2z0e6q
p420
I1
sVdf7ygik
p421
I2
sVdi389w4
p422
I1
sVczjac2j
p423
I1
sVda7fj89
p424
I3
sVd3pkejj
p425
I2
sVdn5xncb
p426
I3
sVczyp3rn
p427
I1
sVdb129iu
p428
I3
sVdi12olf
p429
I3
sVcywplf6
p430
I5
sVdg15imh
p431
I1
sVdaye7z7
p432
I1
sVdig4gk2
p433
I2
sVdt17owt
p434
I2
sVd7b8eit
p435
I1
sVdhhg7y5
p436
I5
sVd30jgsz
p437
I1
sVdfi7jrp
p438
I1
sVd23i8xw
p439
I1
sVd1ao9bf
p440
I3
sVd7zydjz
p441
I1
sVd2ml6m4
p442
I1
sVcyk9kmu
p443
I1
sVdmvhm8i
p444
I4
sVdamft2m
p445
I1
sVdbjhkkb
p446
I6
sVdsaohxj
p447
I1
sVda7nsvu
p448
I1
sVd595p25
p449
I3
sVdhsvu9w
p450
I1
sVd6di70n
p451
I1
sVd8ke4r3
p452
I1
sVd329cna
p453
I1
sVddhcau1
p454
I1
sVdk78e89
p455
I4
sVcz5evpi
p456
I1
sVdp2vjir
p457
I1
sVdnl261u
p458
I1
sVdnauhdu
p459
I1
sVdho53qz
p460
I1
sVdhs39z0
p461
I2
sVdqfzd2h
p462
I1
sVd31d0y0
p463
I1
sVdmvfmq3
p464
I3
sVd3i0rus
p465
I1
sVdefb4t4
p466
I3
sVdabvcjb
p467
I1
sVdobgkg7
p468
I1
sVdhn8pit
p469
I1
sVdk9z6f6
p470
I1
sVd4lshkb
p471
I3
sVdr0tcxo
p472
I1
sVdklcf60
p473
I1
sVddv7xly
p474
I1
sVdetypv4
p475
I1
sVd3fce4b
p476
I1
sVd7mic8h
p477
I1
sVd333q09
p478
I1
sVd4rlj0m
p479
I1
sVd71qzgt
p480
I4
sVdfiq6vw
p481
I1
sVd2tkexs
p482
I1
sVdngg4ge
p483
I3
sVdolo3q2
p484
I1
sVdk4991t
p485
I3
sVdekup7i
p486
I2
sVdnw1bfd
p487
I3
sVddp92y7
p488
I3
sVdn5c85o
p489
I11
sVd1l6unz
p490
I2
sVdkd2v28
p491
I1
sVdrm1lbh
p492
I3
sVd2w1yqy
p493
I1
sVd76umww
p494
I1
sVd4b79lx
p495
I1
sVdt5char
p496
I1
sVd0m28i4
p497
I1
sVdgrgrqx
p498
I2
sVdmgv9mz
p499
I1
sVdd72aj7
p500
I4
sVdp3v73z
p501
I1
sVd7sfcp0
p502
I1
sVddlpzyd
p503
I1
sVdnlfl04
p504
I1
sVd1d09ig
p505
I5
sVd3108jz
p506
I2
sVd0tunyh
p507
I1
sVd8aennf
p508
I6
sVd6uh58u
p509
I1
sVdjvnu22
p510
I1
sVd0ic3kc
p511
I1
sVde4zjh1
p512
I4
sVd7yudzd
p513
I1
sVdmzudhg
p514
I1
sVdahtrfi
p515
I1
sVczglr1z
p516
I5
sVcyk0e3q
p517
I1
sVczu1t48
p518
I1
sVdmz7sev
p519
I1
sVdspqf97
p520
I1
sVdft8j4x
p521
I1
sVdhc78ew
p522
I3
sVd131tee
p523
I1
sVdprmqrm
p524
I1
sVdnf2cfb
p525
I1
sVd2c9c1f
p526
I1
sVdhk3kys
p527
I2
sVcz3zoih
p528
I1
sVdkkgmcp
p529
I1
sVdq9apbq
p530
I1
sVdfckb1m
p531
I1
sVddv5tz0
p532
I2
sVdprhb70
p533
I1
sVd65jph1
p534
I1
sVdff7rt4
p535
I3
sVd4zsktv
p536
I1
sVcz7jojo
p537
I1
sVdknoe6c
p538
I1
sVdhc4xov
p539
I1
sVd4mgd24
p540
I6
sVd2kgcfu
p541
I1
sVdh39h14
p542
I1
sVdpx9d8b
p543
I1
sVd6aj6zy
p544
I1
sVd71gahr
p545
I2
sVdb4qx7y
p546
I1
sVd4xn9gf
p547
I2
sVdrm22j8
p548
I1
sVcytz3ms
p549
I1
sVd3ve9h3
p550
I2
sVdjhz7gf
p551
I1
sVdfv3mep
p552
I1
sVdro3low
p553
I1
sVdmi5yqu
p554
I1
sVd3yfj04
p555
I1
sVd8cigi6
p556
I1
sVdj4df0d
p557
I1
sVd5ikj5n
p558
I1
sVd1udzoj
p559
I2
sVdbjm5ne
p560
I10
sVdpyfvnr
p561
I1
sVdk6yo1p
p562
I1
sVcz9du61
p563
I1
sVdoyityi
p564
I1
sVdq6p391
p565
I1
sVdd71c8u
p566
I2
sVdn63n3f
p567
I2
sVdh67e0i
p568
I1
sVd3j4iqv
p569
I2
sVdjkm6s4
p570
I3
sVdgzb743
p571
I3
sVdp42bmd
p572
I1
sVdnx6api
p573
I1
sVd97zeh9
p574
I1
sVdjj5e58
p575
I1
sVd9dqe1j
p576
I2
sVcyxecr4
p577
I5
sVd74e4sz
p578
I1
sVda7kzx7
p579
I2
sVd19hg9u
p580
I1
sVddq0f7f
p581
I1
sVda1auf1
p582
I1
sVd2a5btm
p583
I3
sVdth1hzy
p584
I1
sVdffrvag
p585
I1
sVdbk3322
p586
I1
sVdd5wdmr
p587
I1
sVdb7l65v
p588
I1
sVdh766tx
p589
I1
sVd3e2p00
p590
I1
sVd63b9zj
p591
I2
sVd4cap8t
p592
I3
sVdb5cjow
p593
I1
sVdqg00qy
p594
I1
sVd3dzeiv
p595
I1
sVdgn6ihv
p596
I4
sVd3kt1jl
p597
I1
sVd2utw62
p598
I1
sVdmtsdsq
p599
I1
sVd3f0dw9
p600
I4
sVd49dkwk
p601
I2
sVdbssgrf
p602
I1
sVda3lyof
p603
I1
sVcz8qnkp
p604
I1
sVdoud9zo
p605
I2
sVd207k0e
p606
I1
sVd18rd2o
p607
I1
sVczc1zn2
p608
I1
sVcyldoro
p609
I1
sVcz7dw0t
p610
I2
sVdgx7m6x
p611
I1
sVdo37lkk
p612
I1
sVd32gciq
p613
I2
sVd2x36qt
p614
I1
sVd0hgpxa
p615
I1
sVdgonyey
p616
I2
sVcyihwz6
p617
I1
sVdq661g3
p618
I1
sVd61ed36
p619
I2
sVd4kxrnn
p620
I1
sVd12soem
p621
I1
sVd2d0x4p
p622
I1
sVdaevaiq
p623
I1
sVd0u7yju
p624
I4
sVdmqptv5
p625
I1
sVd2s1ewu
p626
I1
sVdq8e1z4
p627
I8
sVdmolro5
p628
I1
sVdh4kqkb
p629
I1
sVdr8kzbi
p630
I1
sVdr0uj4m
p631
I1
sVdgl4m63
p632
I1
sVdn4v3ok
p633
I2
sVd5i9bk8
p634
I1
sVdb2pdlp
p635
I2
sVdh642pz
p636
I1
sVdn7cc9c
p637
I2
sVd684l8d
p638
I1
sVdfonq3m
p639
I1
sVdenypa3
p640
I7
sVdclb1g4
p641
I1
sVd3yyut8
p642
I2
sVdoks59p
p643
I3
sVd8aailc
p644
I1
sVd2i0lao
p645
I1
sVder6wxi
p646
I1
sVdauscda
p647
I1
sVd25zgei
p648
I1
sVdc9tdf9
p649
I1
sVd2q97w0
p650
I1
sVd3rfpjs
p651
I1
sVdkktkcl
p652
I1
sVd70j0bb
p653
I2
sVdbcce25
p654
I11
sVczl2mv1
p655
I1
sVdjz0kgm
p656
I1
sVdgshwm7
p657
I1
sVd6cd7yx
p658
I1
sVd6z68lj
p659
I1
sVddtjq2x
p660
I2
sVd5h7uef
p661
I1
sVd7ivll1
p662
I1
sVd2g6gct
p663
I1
sVd27vr6g
p664
I1
sVdhce35k
p665
I4
sVczpwe84
p666
I1
sVdh5psdz
p667
I1
sVdbwz7c8
p668
I1
sVd71kjcf
p669
I1
sVdh3aqii
p670
I3
sVdghlqaz
p671
I1
sVdmgdppr
p672
I1
sVd00tqsa
p673
I1
sVd0hntg3
p674
I1
sVda7hj9k
p675
I1
sVdhd3dkx
p676
I2
sVd7xqzmp
p677
I3
sVd5f0762
p678
I1
sVdd16171
p679
I1
sVdpptq3t
p680
I1
sVczi7hhc
p681
I1
sVddzj2m5
p682
I2
sVdsjecnx
p683
I1
sVdivbzb3
p684
I1
sVd7rpjco
p685
I1
sVd7mvwvk
p686
I1
sVdf101ki
p687
I1
sVd5kfp4v
p688
I1
sVdsc9xlc
p689
I2
sVdf3yca0
p690
I1
sVd83wb9z
p691
I5
sVdi04l4y
p692
I1
sVdfo584a
p693
I2
sVdcrmmhw
p694
I1
sVdoespt1
p695
I2
sVdndxgei
p696
I1
sVd16tsre
p697
I1
sVdpb3swq
p698
I1
sVds4g4bo
p699
I1
sVczlwlaf
p700
I1
sVdatnkks
p701
I2
sVcz0b9fo
p702
I1
sVdedotew
p703
I1
sVdendsyf
p704
I1
sVd3enspe
p705
I6
sVd4da12b
p706
I1
sVdn7thtp
p707
I2
sVddclow6
p708
I1
sVd4c161n
p709
I2
sVdd6nrrg
p710
I1
sVdeu86uc
p711
I1
sVds3ibf7
p712
I1
sVd7wmesq
p713
I1
sVdh1eoee
p714
I1
sVdauo97x
p715
I1
sVdkkgpiy
p716
I1
sVdf8p79v
p717
I1
sVd6orzwn
p718
I1
sVd56eojy
p719
I3
sVd17oxh3
p720
I1
sVczaldje
p721
I4
sVdjn719j
p722
I1
sVd66o4jd
p723
I1
sVd3lp8k6
p724
I1
sVdcdidba
p725
I1
sVd4a2xj3
p726
I2
sVdgftf3s
p727
I1
sVd5y9u00
p728
I1
sVdbddtzp
p729
I1
sVd7kqsq7
p730
I1
sVddstnah
p731
I1
sVdhgo44i
p732
I5
sVdawl8tv
p733
I1
sVdpmqkve
p734
I1
sVdcgv1qp
p735
I1
sVd0q8sw2
p736
I1
sVda7g40b
p737
I1
sVdcf2ujf
p738
I1
sVd9s8meb
p739
I2
sVdom4v17
p740
I1
sVdq07b31
p741
I1
sVdsu6n54
p742
I1
sVds3mmas
p743
I1
sVdsdyyzx
p744
I1
sVdeew3li
p745
I1
sVd32y2wo
p746
I1
sVd7a4xap
p747
I3
sVdjkm8ad
p748
I4
sVdit85zs
p749
I1
sVd1l4z0o
p750
I1
sVd8ufb9s
p751
I2
sVdmhbh9x
p752
I1
sVd4kj5ul
p753
I1
sVdd30dag
p754
I5
sVdst7id1
p755
I3
sVddrua2h
p756
I1
sVdeuzl60
p757
I1
sVd6mgwdl
p758
I1
sVd5q3yj4
p759
I1
sVcywseiv
p760
I1
sVdcjiobw
p761
I1
sVdj4vp76
p762
I1
sVczu0225
p763
I1
sVd2slfoj
p764
I2
sVcz6vwij
p765
I1
sVdh33z4b
p766
I1
sVdrbmrp4
p767
I1
sVd5wcveq
p768
I1
sVdj7a95f
p769
I2
sVdsgzb3z
p770
I4
sVdobwnhd
p771
I1
sVdpxz00w
p772
I1
sVdq5npeg
p773
I1
sVdnw18gg
p774
I1
sVd2k4q3v
p775
I4
sVdbgmfqa
p776
I2
sVdd7cieq
p777
I3
sVcyws54w
p778
I1
sVdcmg32r
p779
I1
sVdoyyxad
p780
I1
sVdr9vrgn
p781
I1
sVdooj0yp
p782
I1
sVdqix6yb
p783
I1
sVdewcxsg
p784
I2
sVd7zysf8
p785
I1
sVd8u6tqa
p786
I3
sVd2emgxo
p787
I2
sVdcnfymt
p788
I1
sVdf1xenw
p789
I2
sVdkpfgjj
p790
I1
sVd6e0osv
p791
I2
sVdnc27gw
p792
I2
sVcyisxz0
p793
I1
sVdfqawsv
p794
I2
sVdamz1oh
p795
I3
sVd5jfnbv
p796
I2
sVd8q6npo
p797
I1
sVdp3s2sv
p798
I4
sVdjaxr1r
p799
I1
sVd7tuo5p
p800
I1
sVd6cxrqe
p801
I3
sVdkgvu7g
p802
I2
sVdcpv01t
p803
I1
sVdghnqb5
p804
I4
sVdrwl2at
p805
I1
sVcyutq4d
p806
I1
sVdam8r9l
p807
I1
sVdqlmind
p808
I1
sVd8eyirh
p809
I1
sVdi2hqrf
p810
I1
sVdjdwjo3
p811
I1
sVd0mwc74
p812
I1
sVd5isbq3
p813
I3
sVd8k3xpz
p814
I5
sVdql4x8b
p815
I2
sVd736ggk
p816
I1
sVdfbbgnf
p817
I3
sVdmottgn
p818
I3
sVd5vuxv1
p819
I1
sVdqzg211
p820
I1
sVd5d1i5u
p821
I1
sVdtck8q9
p822
I1
sVdih8cn9
p823
I1
sVdbq65yu
p824
I1
sVdb12pta
p825
I3
sVd3hlqmd
p826
I2
sVd2g61pj
p827
I1
sVdcu1291
p828
I1
sVdgqfahf
p829
I3
sVdfpy01b
p830
I1
sVd1tu1rt
p831
I1
sVd06h1ar
p832
I1
sVdqlkls9
p833
I1
sVd4lolg8
p834
I2
sVdb3r50d
p835
I2
sVdjoeczt
p836
I1
sVdpn558e
p837
I1
sVd2gk0nf
p838
I1
sVd12vha3
p839
I2
sVd18fzuf
p840
I1
sVd9yxuhr
p841
I1
sVdjjshh3
p842
I1
sVd5kcjl9
p843
I2
sVddy0mun
p844
I1
sVdksmswj
p845
I4
sVdj2n517
p846
I2
sVdavmvvd
p847
I1
sVdrfayxr
p848
I1
sVd1zxuji
p849
I1
sVdonexvq
p850
I14
sVd15cxpz
p851
I2
sVd5cwq0h
p852
I1
sVdggjkwx
p853
I1
sVdrx6so4
p854
I2
sVd98l6ab
p855
I1
sVczn1rhi
p856
I2
sVd94i0ru
p857
I13
sVdn8k66g
p858
I3
sVdptjfkf
p859
I1
sVdcgv8bc
p860
I3
sVddjaz51
p861
I1
sVda8bcdm
p862
I1
sVd5u2wih
p863
I2
sVda89p8m
p864
I2
sVdry81d7
p865
I2
sVdhdp3cv
p866
I1
sVdthis1q
p867
I1
sVd6ydkkd
p868
I1
sVda7yowi
p869
I1
sVdcx2c43
p870
I1
sVd3jjfsl
p871
I1
sVdnk2ga6
p872
I1
sVd8vx5pw
p873
I1
sVd4q35vd
p874
I1
sVd8l9id3
p875
I1
sVdi9wcrn
p876
I1
sVd83w46h
p877
I1
sVd4lorrf
p878
I2
sVdfj4iel
p879
I2
sVdb7dqyo
p880
I1
sVde0lqfg
p881
I1
sVdaesv2n
p882
I1
sVdn2wa9b
p883
I2
sVdbfjvgq
p884
I1
sVdgskl0w
p885
I1
sVd3a7x8s
p886
I1
sVd92l283
p887
I1
sVdb9yj6f
p888
I2
sVd93ksv9
p889
I1
sVd3niabh
p890
I2
sVd7thjgw
p891
I1
sVd18mpki
p892
I1
sVdb89ivi
p893
I3
sVd7hyxin
p894
I1
sVdpn2f0g
p895
I2
sVddmtilx
p896
I1
sVdihchyd
p897
I1
sVd3t1p10
p898
I1
sVdkoy3mg
p899
I1
sVdo0sf3e
p900
I1
sVdbzfuep
p901
I1
sVd45illa
p902
I1
sVdjyefq5
p903
I1
sVd3lf14s
p904
I1
sVdemnz0t
p905
I2
sVd7am4it
p906
I1
sVde4uoks
p907
I1
sVdbhncok
p908
I1
sVdqjysk0
p909
I5
sVdh0fdh9
p910
I1
sVdsr8msu
p911
I1
sVd7b0bbb
p912
I1
sVd3w2cp7
p913
I1
sVdreti44
p914
I5
sVddvg46k
p915
I1
sVd5bu6fs
p916
I2
sVdg61wrz
p917
I3
sVdgfj19s
p918
I1
sVdgxv7ts
p919
I2
sVd7rmi1t
p920
I4
sVddztav5
p921
I1
sVd041mk8
p922
I1
sVds4b13s
p923
I3
sVd5s0axs
p924
I2
sVd26dtjw
p925
I3
sVda6ob5q
p926
I1
sVd5sfhm3
p927
I1
sVddosxmg
p928
I1
sVderbn88
p929
I1
sVd2xb74s
p930
I1
sVd93qgmr
p931
I1
sVdt7ebap
p932
I1
sVd35zulg
p933
I1
sVd1uvb9i
p934
I6
sVcyv388x
p935
I2
sVdpb6i90
p936
I4
sVdjnny09
p937
I1
sVdelrxe9
p938
I6
sVd3kt0is
p939
I1
sVdcwfmkq
p940
I1
sVd2zswxz
p941
I1
sVd70a0va
p942
I1
sVd67i5bt
p943
I1
sVd8k17ya
p944
I1
sVd58hzub
p945
I2
sVdhdz740
p946
I1
sVdapa4gd
p947
I2
sVdn9r0ik
p948
I2
sVdjnq283
p949
I2
sVd5bzhzo
p950
I1
sVdp1gglm
p951
I1
sVdi31plk
p952
I2
sVdrbc962
p953
I1
sVddj38ko
p954
I1
sVdi18tf4
p955
I3
sVdjtpklw
p956
I1
sVcyqvpak
p957
I1
sVczuqayr
p958
I1
sVdjzo67g
p959
I1
sVdp9x2rz
p960
I1
sVd5q00t5
p961
I1
sVdotxcow
p962
I3
sVd9vo0co
p963
I2
sVdnqqnfg
p964
I1
sVdb7o48r
p965
I2
sVddgruet
p966
I3
sVcziq6na
p967
I1
sVd0rrvay
p968
I1
sVd01u5wm
p969
I2
sVdpq0j6t
p970
I3
sVd9t6txx
p971
I1
sVdaobyyr
p972
I1
sVdolx2t6
p973
I3
sVdg5u9a3
p974
I1
sVcz97xrm
p975
I1
sVdpsdzs9
p976
I1
sVcz4292n
p977
I2
sVdq09gjd
p978
I2
sVdb0w48c
p979
I1
sVdbo23sv
p980
I1
sVd5c6178
p981
I3
sVdp75ck8
p982
I1
sVdk673yy
p983
I2
sVdc0f2pl
p984
I1
sVd31ocwz
p985
I1
sVd227k1x
p986
I1
sVdszyl05
p987
I1
sVd97ham2
p988
I4
sVdf7t0pn
p989
I1
sVdmvojg9
p990
I1
sVdkpfuhq
p991
I2
sVdjzze68
p992
I3
sVdgmxwr3
p993
I1
sVd7mojj0
p994
I2
sVd826eml
p995
I2
sVdfm5g0e
p996
I4
sVd17jp9t
p997
I1
sVdb7vnfo
p998
I1
sVdmsgsom
p999
I2
sVd1utwsy
p1000
I4
sVdbyaic5
p1001
I1
sVdbx17ea
p1002
I6
sVdh1vstb
p1003
I1
sVdo95il6
p1004
I1
sVd6u9akq
p1005
I1
sVdst4dao
p1006
I1
sVdgfgnl3
p1007
I1
sVdit2msc
p1008
I1
sVdb8ntkt
p1009
I4
sVdp15t8o
p1010
I1
sVdmve8t0
p1011
I4
sVdrpr7kq
p1012
I1
sVdbtv78e
p1013
I2
sVdhcanj9
p1014
I1
sVcz38sfk
p1015
I1
sVd2ebpoi
p1016
I1
sVd8k1uuk
p1017
I1
sVdptqccy
p1018
I1
sVdh0pqye
p1019
I2
sVddn0hyg
p1020
I1
sVd5d1r3n
p1021
I1
sVdsaodr9
p1022
I2
sVczifhm3
p1023
I1
sVdho7zp9
p1024
I1
sVdg9r4p2
p1025
I3
sVd2z1105
p1026
I2
sVd461ae9
p1027
I1
sVd9hhzxs
p1028
I1
sVd1amba0
p1029
I1
sVdkw2fl5
p1030
I1
sVdi29d1p
p1031
I1
sVd2uzrbj
p1032
I1
sVdjviuqu
p1033
I4
sVditzn8d
p1034
I1
sVd17lav1
p1035
I3
sVd8ue2gd
p1036
I1
sVd72go7p
p1037
I2
sVd1v6oqe
p1038
I1
sVdikvhpb
p1039
I1
sVd13020e
p1040
I2
sVdac0kot
p1041
I4
sVdmsljlz
p1042
I1
sVdsp17tj
p1043
I2
sVd7sqlsv
p1044
I1
sVd7yozki
p1045
I1
sVd472589
p1046
I6
sVd5iaxwx
p1047
I1
sVdc9f17i
p1048
I2
sVd9nf18y
p1049
I1
sVd70chda
p1050
I1
sVd9ay54c
p1051
I2
sVcyjmwka
p1052
I1
sVd033pgr
p1053
I1
sVda7dsls
p1054
I1
sVdnc9r9m
p1055
I1
sVdhocbrn
p1056
I1
sVczy6wwc
p1057
I1
sVd1r49em
p1058
I1
sVdds7sep
p1059
I1
sVd0hjj0f
p1060
I2
sVd2mttj8
p1061
I2
sVdewdnei
p1062
I1
sVd178wm3
p1063
I1
sVdc1e5b2
p1064
I3
sVdnf3m65
p1065
I1
sVdjb3zk6
p1066
I1
sVdnwhxrt
p1067
I1
sVcyllmub
p1068
I1
sVdcz5oh4
p1069
I3
sVdmq4umv
p1070
I1
sVdppc5mq
p1071
I1
sVdh0i39k
p1072
I1
sVdejntku
p1073
I1
sVd7bp8kt
p1074
I1
sVd1asz3i
p1075
I1
sVd8b20nr
p1076
I1
sVddfd2lc
p1077
I1
sVdkvgkly
p1078
I1
sVd1j7whz
p1079
I1
sVdmtahbv
p1080
I3
sVd53z9fx
p1081
I3
sVd6vpmkn
p1082
I1
sVd65dpk5
p1083
I1
sVddakhzo
p1084
I5
sVdr5e7k7
p1085
I1
sVd2r89hm
p1086
I2
sVd7vhz61
p1087
I1
sVdmq4j2c
p1088
I1
sVdtihnia
p1089
I2
sVdeyr3ud
p1090
I2
sVdfb8rv7
p1091
I1
sVdhaudfj
p1092
I1
sVdt9losg
p1093
I1
sVd9h8uj3
p1094
I1
sVd95t00x
p1095
I1
sVdqjw34r
p1096
I2
sVd0mqol9
p1097
I1
sVdfyc2te
p1098
I2
sVdhdvzmh
p1099
I3
sVd1r50c5
p1100
I1
sVcyxgnqd
p1101
I3
sVdq8fwdh
p1102
I1
sVd1iss1b
p1103
I1
sVd7cwpcv
p1104
I2
sVdg0sqtr
p1105
I1
sVd6op6fd
p1106
I1
sVdncqaat
p1107
I1
sVd1tvn08
p1108
I1
sVd2u1mhk
p1109
I1
sVd90bkn4
p1110
I1
sVdsvivnt
p1111
I4
sVd0yb64s
p1112
I2
sVd0ubhye
p1113
I1
sVd15jcto
p1114
I4
sVd5isxpd
p1115
I7
sVd4mipus
p1116
I1
sVd1ywq4e
p1117
I1
sVdg736ag
p1118
I1
sVd2c4qzn
p1119
I1
sVdplnmrh
p1120
I1
sVdmflqar
p1121
I1
sVd5u3hzx
p1122
I1
sVcypzup3
p1123
I4
sVdpdidux
p1124
I6
sVdpq1hkj
p1125
I1
sVd7d23f3
p1126
I5
sVd4s5bvm
p1127
I2
sVdb9ov3z
p1128
I10
sVd847dg1
p1129
I1
sVd5nmx0q
p1130
I2
sVdfrr5nb
p1131
I1
sVdfsa1u5
p1132
I1
sVdblbowh
p1133
I1
sVdei2uae
p1134
I1
sVd15nmsi
p1135
I2
sVdoyxgje
p1136
I1
sVd7ne3kd
p1137
I1
sVdjuxr57
p1138
I1
sVcyjzsfi
p1139
I1
sVd0hb9om
p1140
I1
sVdaus430
p1141
I1
sVdh5ulbt
p1142
I1
sVd95scmr
p1143
I1
sVczin6pl
p1144
I1
sVd7yexex
p1145
I7
sVd1rhmnl
p1146
I2
sVd905l45
p1147
I1
sVd8yjy95
p1148
I1
sVcyw9uz6
p1149
I1
sVd6jojrh
p1150
I1
sVd7xv1lm
p1151
I1
sVdfawk97
p1152
I1
sVdpmk0uc
p1153
I2
sVd75obz2
p1154
I1
sVd6xbm2n
p1155
I1
sVczfniwu
p1156
I1
sVd1hafjz
p1157
I1
sVd8awio4
p1158
I1
sVd3hzaz8
p1159
I1
sVd2f3dai
p1160
I2
sVdaxqf2h
p1161
I1
sVd7cw9mz
p1162
I7
sVd4y56fl
p1163
I1
sVczwztt9
p1164
I1
sVdhw44r7
p1165
I1
sVdmv6vw1
p1166
I1
sVd12zlw6
p1167
I2
sVdgwwbwv
p1168
I3
sVczg3osu
p1169
I1
sVd0f6ikv
p1170
I1
sVdewtoxj
p1171
I1
sVdqzwskz
p1172
I1
sVczqs95t
p1173
I1
sVde9q2l9
p1174
I2
sVd05kdmd
p1175
I4
sVdf0d5t6
p1176
I2
sVd0ajn8m
p1177
I1
sVd0uy8th
p1178
I2
sVd65ozh1
p1179
I1
sVdi18slc
p1180
I1
sVd438ugp
p1181
I1
sVdbdvlm9
p1182
I1
sVczxut6h
p1183
I1
sVd34rjba
p1184
I1
sVd2kqgqg
p1185
I1
sVd12zo26
p1186
I1
sVd9awuox
p1187
I1
sVdj9ihvj
p1188
I1
sVd3pzfw7
p1189
I1
sVcyw43jt
p1190
I10
sVdjuy7jk
p1191
I2
sVd16wx1p
p1192
I4
sVdflrzes
p1193
I1
sVdbwpr6m
p1194
I3
sVdcycokv
p1195
I1
sVdd6y6uh
p1196
I2
sVd8jpbbt
p1197
I1
sVdgclams
p1198
I4
sVd8zzo0w
p1199
I2
sVdda2ds3
p1200
I1
sVd6cr6ep
p1201
I8
sVd9rhnwq
p1202
I1
sVd2xkm8d
p1203
I1
sVcztyepr
p1204
I1
sVddat755
p1205
I2
sVdcvt9br
p1206
I1
sVd72z4ti
p1207
I2
sVd207j19
p1208
I1
sVd0rqcqs
p1209
I2
sVdrv8v5q
p1210
I1
sVdmtt1l3
p1211
I1
sVd50zm5i
p1212
I1
sVdpjykbt
p1213
I1
sVddaslme
p1214
I1
sVdbalgno
p1215
I3
sVd9k6i5l
p1216
I1
sVdamqq3v
p1217
I6
sVdc15inr
p1218
I1
sVdqcv4z5
p1219
I6
sVdq8dli2
p1220
I1
sVd4loumd
p1221
I1
sVdpw1wc7
p1222
I1
sVdbt9anb
p1223
I2
sVd708mr8
p1224
I3
sVd40djq9
p1225
I1
sVdf3j8rw
p1226
I1
sVdetngk6
p1227
I3
sVdim6jbp
p1228
I1
sVdfl9x7e
p1229
I1
sVdh5nw4f
p1230
I2
sVdcl1dhf
p1231
I1
sVcz56u10
p1232
I1
sVdjaz3uf
p1233
I1
sVd6zw7g5
p1234
I1
sVd5ogzio
p1235
I1
sVdfnmyzv
p1236
I1
sVd5u4lu0
p1237
I4
sVd9lmfpv
p1238
I1
sVdf3ny0a
p1239
I1
sVdr6ir84
p1240
I4
sVd5q1hen
p1241
I2
sVd9uobnx
p1242
I1
sVdeqtfbn
p1243
I1
sVd5i49yw
p1244
I2
sVd30wixp
p1245
I1
sVd2hkult
p1246
I1
sVd05k6jw
p1247
I3
sVd15wfkj
p1248
I1
sVd0ydsue
p1249
I1
sVdbsde2y
p1250
I1
sVdd0ss4x
p1251
I1
sVd71jnr9
p1252
I3
sVdftjlxi
p1253
I1
sVd4jlkub
p1254
I3
sVd45657d
p1255
I3
sVd2hnp24
p1256
I1
sVczlm78h
p1257
I2
sVd72cqsb
p1258
I1
sVd0jhcpz
p1259
I1
sVdboajxm
p1260
I1
sVdo8m0wg
p1261
I1
sVd1o7dri
p1262
I1
sVcyuyo1b
p1263
I1
sVdb1box5
p1264
I3
sVdn00myb
p1265
I1
sVde4escj
p1266
I1
sVd19gx5s
p1267
I1
sVd1zlm7s
p1268
I1
sVdhomt8l
p1269
I1
sVd4gyz34
p1270
I1
sVdc11sb6
p1271
I1
sVdb8jnrf
p1272
I1
sVd2r4ro6
p1273
I1
sVd5bh3pu
p1274
I1
sVdpaxh8r
p1275
I1
sVd9esoc9
p1276
I2
sVds046rt
p1277
I1
sVd7e6x52
p1278
I1
sVdnuddrd
p1279
I1
sVdqp2hxi
p1280
I3
sVd1b8tym
p1281
I1
sVdap5y4m
p1282
I1
sVd1g98c0
p1283
I1
sVdkcghez
p1284
I1
sVd6y8qp3
p1285
I1
sVdgmj4nv
p1286
I3
sVd8hky90
p1287
I3
sVdey2fxt
p1288
I1
sVdjjox8h
p1289
I1
sVdhsw5hg
p1290
I2
sVd5bu41h
p1291
I4
sVdelp1xf
p1292
I4
sVdbqmy3b
p1293
I1
sVdizf38i
p1294
I1
sVd2kv70s
p1295
I1
sVd70t1eq
p1296
I1
sVd9rptrz
p1297
I5
sVdcngab1
p1298
I1
sVdmuel71
p1299
I1
sVd7wr6so
p1300
I1
sVdbie55s
p1301
I1
sVdg69yga
p1302
I2
sVd8q8ucq
p1303
I1
sVd5j5x7e
p1304
I1
sVdi7fpf8
p1305
I2
sVdmk13ps
p1306
I1
sVdg275ub
p1307
I5
sVddff2p1
p1308
I1
sVd28r3em
p1309
I2
sVdd528w2
p1310
I1
sVdjo8f59
p1311
I2
sVdho7iw9
p1312
I1
sVdqsn4y3
p1313
I1
sVd02in9w
p1314
I2
sVdrbsci0
p1315
I1
sVdjbm59u
p1316
I1
sVdcg08ea
p1317
I1
sVdayv1yv
p1318
I3
sVd7xh785
p1319
I1
sVd8jhazm
p1320
I1
sVdbpqm6x
p1321
I1
sVdp0ix15
p1322
I2
sVd9uo93i
p1323
I4
sVd72912c
p1324
I5
sVdmhbm2q
p1325
I1
sVdjsysv3
p1326
I1
sVdnvxosh
p1327
I1
sVdnpn3b1
p1328
I2
sVd3vhqah
p1329
I1
sVdet7kif
p1330
I1
sVd32yi6h
p1331
I1
sVd079gzt
p1332
I12
sVcznf5rc
p1333
I2
sVczu5nzy
p1334
I2
sVdt0g0vy
p1335
I1
sVd7re29y
p1336
I1
sVdiqdtli
p1337
I1
sVdi3ybn9
p1338
I1
sVd75n701
p1339
I3
sVdozqw43
p1340
I1
sVd6y0h4u
p1341
I1
sVd5kmvzx
p1342
I1
sVdhdu1sq
p1343
I2
sVde0liaa
p1344
I2
sVdh53vnv
p1345
I1
sVd6gnxa2
p1346
I2
sVd0t4og6
p1347
I2
sVdrkt0h5
p1348
I1
sVdecjpky
p1349
I1
sVda0yl9z
p1350
I2
sVdmvlhfi
p1351
I2
sVdacq4tc
p1352
I1
sVdgvuv0t
p1353
I1
sVdigt4mf
p1354
I3
sVd4f796d
p1355
I1
sVdivm158
p1356
I1
sVd4lopac
p1357
I2
sVdmoofvq
p1358
I2
sVcyzwq5z
p1359
I1
sVdbx2q1j
p1360
I1
s.