(dp0
Vdcl7i82
p1
I1
sVdevigzr
p2
I1
sVd3yy6la
p3
I3
sVddi29ko
p4
I1
sVdi1c83a
p5
I1
sVdrt1894
p6
I1
sVdb64wdr
p7
I1
sVdctlh4v
p8
I1
sVd60ocpv
p9
I1
sVd57tad5
p10
I1
sVda45lls
p11
I1
sVd39oju8
p12
I1
sVd1sw0ff
p13
I1
sVddpw15y
p14
I1
sVd3xhjzf
p15
I1
sVdni58r7
p16
I1
sVdni3hs3
p17
I1
sVd6nu9so
p18
I3
sVd56yqtl
p19
I1
sVd00q4yq
p20
I1
sVdqoxd6x
p21
I1
sVd4lmq1y
p22
I1
sVder76c4
p23
I3
sVdco3a9v
p24
I3
sVdavx9iv
p25
I1
sVdscjslp
p26
I1
sVd29yokx
p27
I1
sVdb58nv9
p28
I1
sVdf9x3td
p29
I1
sVdbvcwk9
p30
I1
sVd7x2c75
p31
I1
sVd3i4mgy
p32
I1
sVd9erfau
p33
I1
sVd7b8jvx
p34
I1
sVdjoaf6p
p35
I1
sVde0wop9
p36
I1
sVdep3vcp
p37
I3
sVcymr9rh
p38
I1
s.