(dp0
Vdfeot3m
p1
I3
sVdfh2k28
p2
I1
sVdhxcpk9
p3
I1
sVd64empp
p4
I1
sVdk1ez6k
p5
I1
sVczcd7aq
p6
I1
sVdbrhg6w
p7
I1
sVdta941n
p8
I1
sVd3z118t
p9
I3
sVd0p5ecc
p10
I4
sVdhw4htf
p11
I7
sVddup3s0
p12
I3
sVda4dbn1
p13
I1
sVdd23zev
p14
I1
sVd16rbz4
p15
I1
sVczebcmg
p16
I1
sVdb4p1nc
p17
I4
sVdd5xnns
p18
I1
sVd5g1uai
p19
I1
sVd4ckqdh
p20
I1
sVczg87pw
p21
I1
sVd0qigq7
p22
I1
sVcypjp31
p23
I3
sVdrogjlx
p24
I1
sVdgmf6ti
p25
I2
sVd1pb5rg
p26
I1
sVdswa7fx
p27
I1
sVdbmvblm
p28
I1
sVcykdpwg
p29
I1
sVdob44vu
p30
I1
sVd0kow20
p31
I1
sVd97y86h
p32
I2
sVd6fvzra
p33
I1
sVd2dk2ws
p34
I1
sVczec7th
p35
I1
sVczflyv5
p36
I1
sVdoh1r95
p37
I1
sVdn4yoao
p38
I3
sVdq0jykg
p39
I2
sVdmeqbrh
p40
I1
sVdegd8wc
p41
I1
sVcypjj4b
p42
I1
sVdn06gkh
p43
I4
sVdf0kz63
p44
I1
sVd5muuq0
p45
I7
sVcypk55y
p46
I1
sVd36s5z8
p47
I3
sVd7czmpo
p48
I1
sVdegyoqk
p49
I2
sVdnvf0ep
p50
I1
sVd1qlo9g
p51
I1
sVcz4ymqn
p52
I1
sVdhxjgw6
p53
I1
sVd68p070
p54
I1
sVd3cnsb0
p55
I1
sVddga1t2
p56
I1
sVdnvyp3y
p57
I1
sVd16ihbj
p58
I1
sVdkeh616
p59
I1
sVdar7l12
p60
I2
sVcyxexm4
p61
I1
sVdeei65r
p62
I4
sVczehtck
p63
I1
sVdmeiuzw
p64
I3
sVdgybuby
p65
I1
sVdrd9b0v
p66
I1
sVdfvjxg8
p67
I1
sVd9fr19x
p68
I1
sVdk2dtlq
p69
I1
sVd5mu7to
p70
I1
sVdbprmr3
p71
I1
sVdc3fya6
p72
I1
sVd4d668k
p73
I3
sVcyvszeh
p74
I4
sVd6y3jp5
p75
I1
sVdpoqcc6
p76
I1
sVdi0uslp
p77
I1
sVd3g6qk0
p78
I1
sVdiql7s9
p79
I2
sVcyzs57g
p80
I1
sVczjvcdi
p81
I1
sVczt6i5p
p82
I1
sVcznkj2x
p83
I1
sVdkn9e5q
p84
I4
sVd90z0ao
p85
I1
sVdkn5r3k
p86
I1
sVcyj5wne
p87
I1
sVd1aerhb
p88
I1
sVd9ee3rp
p89
I1
sVdjjfmo5
p90
I1
sVdb05ga3
p91
I1
sVdhxkfsw
p92
I1
sVd6knaff
p93
I1
sVdstrq9v
p94
I1
sVdi7dvvo
p95
I1
sVd02zl1i
p96
I1
sVddoc6eq
p97
I1
sVd3bmsp2
p98
I1
sVdnsvng9
p99
I1
sVd6y3zh3
p100
I1
sVdpwnbx6
p101
I2
sVdb7j6es
p102
I1
sVd1eugzp
p103
I1
sVdanv86h
p104
I1
sVddkni6d
p105
I1
sVddkfjf8
p106
I3
sVddx3f09
p107
I1
sVdqnh12m
p108
I4
sVdennmu5
p109
I1
sVd1v9b43
p110
I2
sVdemipsb
p111
I1
sVdo4x0cp
p112
I1
sVdjiax5m
p113
I2
sVd07zlcn
p114
I1
sVdj1it1p
p115
I1
sVd38wn2s
p116
I1
sVdgt3pd2
p117
I1
sVdpwmdyo
p118
I1
sVdd1i39r
p119
I1
sVcypmewz
p120
I1
sVdcya7t4
p121
I1
sVd4h7r7g
p122
I1
sVd1v9r8z
p123
I1
sVd2n6u5b
p124
I1
sVd9cj2a1
p125
I1
sVd02yt8s
p126
I1
sVdn0952y
p127
I2
sVdebqkuo
p128
I1
sVdnr6ale
p129
I1
sVd2gnwqd
p130
I1
sVde3t1zm
p131
I1
sVdddidlv
p132
I1
sVd4nns4u
p133
I1
sVczrkx04
p134
I2
sVd2dzbf1
p135
I2
sVdqu1654
p136
I1
sVdoeor5z
p137
I1
sVdagnnqj
p138
I1
sVdj0knog
p139
I1
sVdmz4gio
p140
I1
sVdeh8w8u
p141
I1
sVde0nvkv
p142
I1
sVdbsmcc7
p143
I1
sVdad4i39
p144
I1
sVd434rgq
p145
I1
sVdeggpeu
p146
I1
sVd88eyfm
p147
I1
sVcypowos
p148
I1
sVcypgk78
p149
I1
sVdhgw8jm
p150
I2
sVdo1wqfu
p151
I2
sVdoc7mqi
p152
I2
sVdeghaep
p153
I2
sVdo3d2km
p154
I3
sVdeuydyv
p155
I3
sVdb94buw
p156
I2
sVd40di98
p157
I1
sVd9mrnyq
p158
I2
sVczpkgr2
p159
I1
sVdmo37jb
p160
I1
sVdg5qw49
p161
I1
sVd0oa0ql
p162
I2
sVd0oveef
p163
I1
sVcypk90p
p164
I3
s.