(dp0
Vdqkm4vp
p1
I1
sVdiv3igg
p2
I1
sVd4ckfjl
p3
I1
sVczynemv
p4
I1
sVdermiga
p5
I1
sVdd57rtd
p6
I1
sVdan6fmp
p7
I1
sVds03cv8
p8
I1
sVdfe3lyq
p9
I1
sVdgrxuew
p10
I1
sVdr7r6ac
p11
I1
sVdnkgn2d
p12
I1
sVd9cqsza
p13
I1
sVd3nez4p
p14
I1
sVdp9qplg
p15
I1
sVddy8squ
p16
I1
sVdsa1np4
p17
I1
sVddsdfg3
p18
I1
sVdey5d2i
p19
I1
sVdjc05cd
p20
I1
sVd0p4vte
p21
I1
sVd916ymr
p22
I1
sVdo7upah
p23
I1
sVd916u6w
p24
I1
sVcz87myj
p25
I1
sVdnlpaj7
p26
I1
sVczslj96
p27
I1
sVder3yny
p28
I1
sVczd5z9b
p29
I1
sVd4kvqoe
p30
I1
sVd9192h8
p31
I1
sVcyqo9gf
p32
I1
sVdnjf9rc
p33
I1
sVdat1dqu
p34
I1
sVd8uxzbg
p35
I1
sVd62buzl
p36
I1
sVd23vh1k
p37
I1
sVczyhlil
p38
I1
sVd73mqyb
p39
I1
sVdfiyv0z
p40
I1
sVdfn9agx
p41
I1
sVd2xs79c
p42
I1
sVdhffylp
p43
I1
sVdt8limb
p44
I1
sVcz406au
p45
I1
sVdnr759g
p46
I1
sVdopmenu
p47
I1
sVdp3tu2n
p48
I1
sVd559gps
p49
I1
sVd4tbmsa
p50
I1
sVd7paenp
p51
I1
sVdpjjcft
p52
I1
sVdau63v8
p53
I1
sVdms3dp4
p54
I1
sVdkywujz
p55
I1
sVdajulaw
p56
I1
sVdpsu8sx
p57
I1
sVd9y76w5
p58
I1
sVdiyrrn0
p59
I1
sVdea9ph6
p60
I1
sVd7j1kkn
p61
I1
sVdq4ffuc
p62
I1
sVdfu0uag
p63
I1
sVdc0vvyu
p64
I1
sVdng0txy
p65
I1
sVdfbiua6
p66
I1
sVdfz7jqw
p67
I1
sVdcfkvrk
p68
I1
sVd0jd5f5
p69
I1
sVdknblf2
p70
I1
sVdbx4lbe
p71
I1
sVd10cf63
p72
I1
sVdnkm176
p73
I1
sVddohf9j
p74
I1
sVdaw25oo
p75
I1
sVdiic7f7
p76
I1
sVczkzrbw
p77
I1
sVd7i8d3x
p78
I1
sVdb268af
p79
I1
sVdp9ydvm
p80
I1
sVdfvm4oi
p81
I1
sVdnwgx0r
p82
I1
sVdswp4qn
p83
I1
sVdewnim8
p84
I1
sVddpbx52
p85
I1
sVdnkqltl
p86
I1
sVd8mfifu
p87
I1
sVdahojo9
p88
I1
sVd9v17cl
p89
I1
sVdh1x9l2
p90
I1
sVdc7muop
p91
I1
sVd2rfkrm
p92
I1
sVdctngz1
p93
I1
sVdnkqi5i
p94
I2
sVd2i8gz0
p95
I1
sVczz0pf4
p96
I1
sVddfg95b
p97
I2
sVdkmf4fj
p98
I1
sVd7ue25w
p99
I1
sVd59c2ww
p100
I1
sVd3ocwd0
p101
I1
sVd2emhem
p102
I1
sVdfk9k8p
p103
I1
sVdc9rgma
p104
I1
sVd9dsnvt
p105
I1
sVd32mr0k
p106
I1
sVcyq0kun
p107
I1
sVdox7wuk
p108
I1
sVdi6bkwu
p109
I1
sVdimsblz
p110
I1
sVd0ydkp1
p111
I1
sVdjbqpw8
p112
I1
sVdol2v0i
p113
I1
sVdccd9hm
p114
I1
sVdcsvulg
p115
I1
sVdat0bv1
p116
I1
sVddxnfal
p117
I1
sVdcwxktl
p118
I1
sVd7hld87
p119
I1
sVdennfl2
p120
I1
sVd0q9djs
p121
I1
sVd2yvbgt
p122
I1
sVdpoy63m
p123
I1
sVdguvnhd
p124
I1
sVdnkvbtw
p125
I1
sVdrs7fqk
p126
I1
sVd52t3hk
p127
I1
sVdfmz1ar
p128
I1
sVd6f7e64
p129
I2
sVdjo1n6y
p130
I1
sVcza9lnh
p131
I1
sVdnupuo2
p132
I1
sVdajkkcs
p133
I1
sVdiesp4u
p134
I1
sVcztdb0v
p135
I1
sVdrkqf2w
p136
I1
sVdc0nma9
p137
I1
sVdapmhuy
p138
I1
sVdd2hd8m
p139
I1
sVcykcn4f
p140
I1
sVd2i6hxt
p141
I1
sVdel9ntq
p142
I1
sVdn2zuen
p143
I1
sVd2fru3o
p144
I1
sVdmuix9l
p145
I1
s.