(dp0
Vcyjdk7v
p1
I1
s.(dp0
Vcyjdk7v
p1
I1
sVcyqnlb1
p2
I1
s.(dp0
Vcyjdk7v
p1
I1
sVcztb5k9
p2
I1
s.(dp0
Vcyjdk7v
p1
I1
sVd1pbodu
p2
I1
s.(dp0
Vcyjdk7v
p1
I1
sVd25q4gs
p2
I1
s.(dp0
Vd28lq0x
p1
I1
sVcyjdk7v
p2
I1
s.(dp0
Vcyjdk7v
p1
I1
sVd41ae7x
p2
I1
s.(dp0
Vcyjdk7v
p1
I1
sVd44g280
p2
I1
s.(dp0
Vcyjdk7v
p1
I1
sVd6pa00j
p2
I1
s.(dp0
Vcyjdk7v
p1
I1
sVd8hmek1
p2
I1
s.(dp0
Vcyjdk7v
p1
I1
sVd8nyl5b
p2
I1
s.(dp0
Vcyjdk7v
p1
I1
sVdcex26l
p2
I1
s.(dp0
Vdgjj1oz
p1
I1
sVcyjdk7v
p2
I1
s.(dp0
Vdgjj1oz
p1
I1
sVcyjdk7v
p2
I1
s.(dp0
Vcyjdk7v
p1
I1
sVdhj89s3
p2
I1
s.(dp0
Vcyjdk7v
p1
I1
sVdnkqltl
p2
I1
s.