(dp0
Vd6rlxtj
p1
I1
sVdmwow49
p2
I1
sVd5dyhyn
p3
I1
sVdsgaozq
p4
I1
sVd31gdji
p5
I1
sVd3ct19u
p6
I1
sVdgsck3g
p7
I1
sVd3d58ri
p8
I1
sVdhjdshu
p9
I1
sVde3l6yf
p10
I1
sVd0777ze
p11
I1
sVd8w0xi2
p12
I1
sVd3lmats
p13
I1
sVdk6tg33
p14
I1
sVdfbeyov
p15
I1
sVdgxjhvf
p16
I1
sVdocggb3
p17
I1
sVdoj5t6v
p18
I1
sVd7ocxia
p19
I1
sVdq6jmha
p20
I1
sVd265uik
p21
I1
sVdiqrwwb
p22
I1
sVd4lz8bg
p23
I1
sVd3ai80x
p24
I1
sVdjysvqx
p25
I1
sVdt2f6tp
p26
I1
sVcyxg5fm
p27
I1
sVcyuq28t
p28
I1
sVd6m753h
p29
I1
sVdg2gkme
p30
I1
sVd1zudki
p31
I1
sVcznlb5f
p32
I1
sVda1zigv
p33
I1
sVdd3e7lo
p34
I1
sVdk5ko8r
p35
I1
sVdbdjx5u
p36
I2
sVd5huase
p37
I1
sVcyp1afp
p38
I1
sVdbhod1o
p39
I1
sVd39vttd
p40
I1
sVdr2yj3p
p41
I1
sVd31aqq6
p42
I1
sVdgvm5no
p43
I1
sVd7qc1j5
p44
I1
sVddeecug
p45
I1
sVdilhe3r
p46
I1
sVdd37smf
p47
I1
sVdcix7zw
p48
I1
sVd3aoj87
p49
I1
sVczamx9u
p50
I1
sVda5ahgl
p51
I1
sVd30yzi3
p52
I1
sVdazedl9
p53
I2
sVd6bxe80
p54
I1
sVcynrv8f
p55
I1
sVd6e2wwh
p56
I1
sVdgn2739
p57
I1
sVd3ujr1j
p58
I1
sVdkm3mnf
p59
I1
sVdhaz24k
p60
I1
sVd9ecrax
p61
I1
sVddh1rqa
p62
I1
sVdp7pc8f
p63
I1
sVdcilgfx
p64
I1
sVdel7zrb
p65
I1
sVdjqi69z
p66
I2
sVd8uf4xy
p67
I1
sVdhivftq
p68
I1
sVd0kuusk
p69
I1
sVd00mrgi
p70
I1
sVd0yop53
p71
I1
sVdsv580e
p72
I1
sVd1e4ypx
p73
I1
sVdb2a1s4
p74
I1
sVdb0b2xw
p75
I1
sVdhig7za
p76
I1
sVdgqf0ju
p77
I1
sVd1l1q2l
p78
I1
sVdjsl6au
p79
I1
sVdggijnw
p80
I1
sVd3bhvfa
p81
I1
sVdh8xysp
p82
I1
sVdcwnl1l
p83
I2
sVd1iswe2
p84
I1
sVd7e8ffx
p85
I1
sVdesw7w5
p86
I1
sVdps75bl
p87
I1
sVdodpa9b
p88
I1
sVcyt01ox
p89
I1
sVd7xuzw0
p90
I1
sVdcxqzv6
p91
I1
sVdcdc9kj
p92
I1
sVczwd9d7
p93
I2
sVdk2n8e5
p94
I1
sVd8xtd99
p95
I1
sVdhlp8y6
p96
I1
sVcz4gmib
p97
I1
sVdefhgif
p98
I1
sVdmny7xm
p99
I1
sVd53epwg
p100
I1
sVdqnfn74
p101
I1
sVd05a086
p102
I1
sVdmiwm4x
p103
I1
sVczjhyux
p104
I1
sVdauc2x0
p105
I1
sVd3b4tj0
p106
I1
sVd39yzxa
p107
I1
sVdjwul44
p108
I1
sVdfz11fs
p109
I1
sVcytqotd
p110
I1
sVdcbayvi
p111
I1
sVdo7v734
p112
I1
sVd5y26o5
p113
I2
sVd7gbrvs
p114
I1
sVdfee7js
p115
I1
sVda23dvs
p116
I1
sVd1z1l9g
p117
I1
sVdmz7gdj
p118
I1
sVcyuk6ww
p119
I1
sVdb5gpsb
p120
I1
sVdp7irqm
p121
I1
sVczka9be
p122
I1
sVcywopku
p123
I2
sVd2z3kjp
p124
I1
sVdbvxsac
p125
I1
sVdhk3uuu
p126
I1
sVdegii8m
p127
I1
sVdovawc2
p128
I1
sVdfwvp3q
p129
I2
sVd865kwh
p130
I1
sVdos47m9
p131
I1
sVd9m8yqh
p132
I1
sVd35hvaf
p133
I1
sVdbjslr4
p134
I1
sVdp4buww
p135
I1
sVdem05yk
p136
I1
sVdh6we0c
p137
I1
sVdcnblzq
p138
I2
sVdj6q0mf
p139
I1
sVdcpds3e
p140
I1
sVczl1sko
p141
I1
sVd1aqvbf
p142
I1
sVdjn0au3
p143
I1
sVd9i1zel
p144
I1
sVdig6i1m
p145
I1
sVdfm792g
p146
I1
sVdnkm28p
p147
I1
sVd0afe8g
p148
I1
sVdcjbnri
p149
I1
sVdrqfcsz
p150
I1
sVdru4elr
p151
I1
sVdduko82
p152
I1
sVd39bdsm
p153
I1
sVd24eauw
p154
I1
sVdf35nqh
p155
I1
sVd17g30d
p156
I1
sVdi4hkdw
p157
I1
sVdgi9xe0
p158
I1
sVdk96skf
p159
I1
sVcyshcui
p160
I1
sVdj8mqlo
p161
I1
sVdfwxmqn
p162
I1
sVddoxh0p
p163
I1
sVd4fjcxm
p164
I2
sVdjj8fn9
p165
I1
sVd1nkg62
p166
I1
sVcyrs45e
p167
I1
sVdggboxw
p168
I3
sVddz3y1k
p169
I1
sVdbr7ztc
p170
I1
sVczzsqn2
p171
I2
sVd1ybnbj
p172
I2
sVd1ahrlq
p173
I1
sVdd4yagk
p174
I1
sVczbiek6
p175
I1
sVczlyqe5
p176
I1
sVdmliv5n
p177
I1
sVdhhpfnv
p178
I1
sVczgdxlc
p179
I1
sVd1529x9
p180
I1
sVdtf2mtl
p181
I1
sVd6vmmlx
p182
I1
sVd1x5air
p183
I1
sVdh9wh6q
p184
I2
sVdf1tinf
p185
I1
sVdezrll2
p186
I1
sVd4f52py
p187
I1
sVd8qdrha
p188
I5
sVd01rd2h
p189
I1
sVdc2uysf
p190
I1
sVdqr5em5
p191
I2
sVdqpmh6r
p192
I1
sVdibnlnr
p193
I1
sVczzgo8y
p194
I2
sVd2698ht
p195
I1
sVdcvk90e
p196
I1
sVdp7lhyx
p197
I1
sVdckjatc
p198
I2
sVd61fz8l
p199
I1
sVd8qqor8
p200
I1
sVdb9l6am
p201
I1
sVd0318a7
p202
I1
sVdem6fpw
p203
I1
sVddt0c17
p204
I1
sVcyjhfhn
p205
I1
sVdjd3ldz
p206
I2
sVdbb6zi7
p207
I1
sVdjhbtqd
p208
I1
sVdpt5q24
p209
I1
sVd70zn2u
p210
I1
sVddo65gr
p211
I1
sVd7r0ru6
p212
I1
sVdek9b80
p213
I1
sVd835cnz
p214
I1
sVd0rpjs1
p215
I1
sVd2wu50r
p216
I2
sVd4t4ccn
p217
I1
sVd1k30m9
p218
I1
sVdoazrmm
p219
I1
sVd4gtiwh
p220
I1
sVd49gosy
p221
I2
sVd014i9v
p222
I1
sVdk3nt9j
p223
I1
sVd1ahh32
p224
I1
sVdcxyy7n
p225
I1
sVd2iajfj
p226
I1
sVdeuccs9
p227
I1
sVdpcw7jn
p228
I1
sVdaki7eo
p229
I1
sVdjvkknc
p230
I1
sVdncromu
p231
I1
sVd3vf7lb
p232
I2
sVdc8ygeu
p233
I1
sVdci7lt1
p234
I1
sVd9voyi5
p235
I1
sVd1l9c2j
p236
I1
sVdafkm2f
p237
I1
sVdms59lk
p238
I1
sVdel1ld8
p239
I3
sVdrntr1a
p240
I1
sVdfxpk6d
p241
I1
sVd9zlef0
p242
I1
sVd92z5p0
p243
I1
sVdfs4h7b
p244
I1
sVdky2rh7
p245
I1
sVdg25pza
p246
I2
sVdt9gh8t
p247
I1
sVd7zzrjd
p248
I1
sVd03q9pu
p249
I1
sVd2m321m
p250
I1
sVczd20v1
p251
I1
sVde8spo5
p252
I1
sVd9tj2vx
p253
I1
sVcyqzque
p254
I1
sVd37c6o7
p255
I1
sVd36djvy
p256
I1
sVd16wfn1
p257
I1
sVcyj21x5
p258
I1
sVd0qp70t
p259
I2
sVdj3iuy4
p260
I1
sVcyxall0
p261
I1
sVdghxxsg
p262
I1
sVdi4fbq0
p263
I1
sVd055xur
p264
I1
sVdcnnbhf
p265
I1
sVczrflts
p266
I1
sVdihowik
p267
I1
sVdodqngb
p268
I1
sVd3peyqm
p269
I1
sVdkq37ah
p270
I1
sVd3a91vh
p271
I1
sVdmql30g
p272
I1
sVd6w6ppp
p273
I1
sVdb9qle8
p274
I1
sVdk9fg3k
p275
I1
sVdmsn4n6
p276
I1
sVdi11848
p277
I1
sVd54p39c
p278
I1
sVd82yqxa
p279
I1
sVd4sj4lc
p280
I1
sVdqmmwih
p281
I1
sVdp56zu0
p282
I1
sVd7wr6so
p283
I1
sVdakls78
p284
I1
sVd4ztawd
p285
I3
sVd7vmlih
p286
I1
sVd12xq1a
p287
I1
sVcypak4d
p288
I1
sVdgh211c
p289
I1
sVdqbmld6
p290
I1
sVd41z2pg
p291
I1
sVdn7pfqh
p292
I1
sVd77sme6
p293
I2
sVdt6jfsk
p294
I1
sVdb9rw8h
p295
I2
sVddslscy
p296
I1
sVczc55r9
p297
I1
sVcymot7h
p298
I1
sVdra0cj8
p299
I1
sVdbmg0a6
p300
I1
sVdin16ce
p301
I1
sVdbvls7y
p302
I1
sVdgntytl
p303
I1
sVdh6zfqu
p304
I1
sVdgwbkfn
p305
I1
sVdrv9myp
p306
I1
sVdgmp74l
p307
I1
sVd8yivtx
p308
I1
sVdsyivyk
p309
I1
sVd1l6kib
p310
I1
sVd1912pq
p311
I1
sVd2zy93v
p312
I2
sVdqco23t
p313
I1
sVdkh8170
p314
I1
sVdox3rwa
p315
I1
sVdjvlgbj
p316
I1
sVdrchpnl
p317
I1
sVdjdgeby
p318
I1
sVdenwgiw
p319
I1
sVddvk3n2
p320
I1
sVdf67boq
p321
I1
sVdg3bcq6
p322
I1
sVd2v4uoq
p323
I1
sVdrlqgnl
p324
I1
sVdb3spmi
p325
I1
sVd21rqdj
p326
I1
sVd5ph137
p327
I1
sVde1bkyw
p328
I1
sVczaengm
p329
I1
sVczz74nt
p330
I1
sVdgey1jc
p331
I1
sVd21c95x
p332
I1
sVdctz95n
p333
I1
sVczyyq3z
p334
I1
sVd7cxy4m
p335
I1
sVdkb5fgx
p336
I1
sVdgydh27
p337
I1
sVdfu7kz0
p338
I2
sVdgy9br1
p339
I1
sVd3xdu3p
p340
I1
sVdpua7zf
p341
I1
sVdinsycq
p342
I1
sVdgwapbc
p343
I1
sVd1agu6o
p344
I1
sVdd7pxvw
p345
I1
sVdpmq8qe
p346
I1
sVdkc38zq
p347
I1
sVd0b0xl3
p348
I1
sVd9aym8s
p349
I1
sVd2cv206
p350
I1
sVdbb8wux
p351
I1
sVd1et5dd
p352
I1
sVd1aapyo
p353
I1
sVdhusrwz
p354
I1
sVdmpvn6m
p355
I1
sVdqi6561
p356
I1
sVd4dj043
p357
I1
sVd0zeq6z
p358
I1
sVddr4u2h
p359
I1
sVdnved3a
p360
I1
sVd4v1gn1
p361
I1
sVdb8eszo
p362
I1
sVdbmy2ss
p363
I1
sVdfujwoh
p364
I1
sVd902wkq
p365
I3
sVd4zt3qg
p366
I4
sVcyxzicf
p367
I1
sVdhncl9z
p368
I1
sVd1vtdmy
p369
I1
sVdff3ar6
p370
I1
sVcykh2ue
p371
I1
sVd7y48p2
p372
I1
sVd1dvr21
p373
I1
sVd2x05kq
p374
I1
sVdgxjjkm
p375
I1
sVdihe7ow
p376
I1
sVdpj6l88
p377
I1
sVddna3s0
p378
I1
sVdf7l14o
p379
I1
sVdelvdcy
p380
I1
sVdexu3i0
p381
I1
sVd0wm1q1
p382
I1
sVdhk4guj
p383
I1
sVdjogooy
p384
I1
sVd0okzwm
p385
I1
sVd1in62o
p386
I1
sVcze18v0
p387
I1
sVcz9f7br
p388
I1
sVcyw7tqd
p389
I1
sVd0j89t5
p390
I1
sVd7529m3
p391
I1
sVdnkk9jo
p392
I1
sVdf142ka
p393
I1
sVdh8x6iz
p394
I1
sVcz6adxe
p395
I1
sVdav3qrs
p396
I1
sVdhrhvg0
p397
I1
sVdd3lb9h
p398
I2
sVd9sgo9t
p399
I1
sVd8sckgx
p400
I2
sVdn41fyi
p401
I1
sVds0my7w
p402
I1
sVd9bt1ky
p403
I1
sVd02psyn
p404
I1
sVdqs4f2u
p405
I1
sVd06o8tp
p406
I1
sVd9vnq83
p407
I3
sVd9g1y0p
p408
I1
sVd1epuxf
p409
I1
sVd23rdaz
p410
I1
sVd7c6pnw
p411
I1
sVdaoosv7
p412
I1
sVdhdsp7e
p413
I1
sVd6ko5qb
p414
I1
sVd1ad1l8
p415
I2
sVd4mou5q
p416
I1
sVdnfduit
p417
I1
sVdbrzxkm
p418
I1
sVdifg7xk
p419
I1
sVd7votuk
p420
I1
sVdhgaxcy
p421
I1
sVcyx30os
p422
I2
sVdmh06t6
p423
I1
sVczfp7l1
p424
I1
sVdfpzatv
p425
I1
sVdq1m8y3
p426
I1
sVddu7p3x
p427
I1
sVd08ww79
p428
I1
sVcyqaodp
p429
I1
sVd25yq96
p430
I1
sVd67tn9i
p431
I1
sVd3ibf1g
p432
I1
sVd30yc0f
p433
I1
sVdf1v6pb
p434
I1
sVd482ztr
p435
I2
sVdnzuz9g
p436
I1
sVdogpury
p437
I1
sVd3ldjbr
p438
I1
sVcz24798
p439
I1
sVd7b5bhi
p440
I1
sVd1lidvr
p441
I3
sVdf1hxzk
p442
I1
sVdaklbdp
p443
I1
sVd9bg5s8
p444
I1
sVdbhnptn
p445
I1
sVdfb9to4
p446
I1
sVdj3g6cs
p447
I1
sVd6n692z
p448
I1
sVdeq76rn
p449
I1
sVd78voty
p450
I1
sVdou0r0b
p451
I1
sVdjpoc1r
p452
I1
sVdpcksa9
p453
I1
sVdeyedm8
p454
I1
sVd0p6b92
p455
I1
sVd20n1dq
p456
I1
sVd0xzc2i
p457
I1
sVd043ylo
p458
I1
sVdbh1daj
p459
I1
sVdggsci1
p460
I1
sVdfns1w5
p461
I1
sVd520806
p462
I1
sVd1utkio
p463
I2
sVds1nbki
p464
I1
sVdop65kw
p465
I1
sVd0p9dwm
p466
I1
sVd3h1ewp
p467
I1
sVddwz35x
p468
I1
sVdiebhi4
p469
I1
sVda5zuvm
p470
I1
sVd0x7qnb
p471
I1
sVd84nm0z
p472
I1
sVdg27k2m
p473
I1
sVdeprln9
p474
I1
sVdj03pe0
p475
I1
sVdej2w8z
p476
I1
sVd6es9a7
p477
I1
sVd3veeru
p478
I1
sVcys0xcs
p479
I1
sVd3yijfg
p480
I1
sVdd66d9c
p481
I1
sVdam2t5i
p482
I1
sVdsy4daj
p483
I1
sVddbvoet
p484
I1
sVd2inhuu
p485
I1
sVd1nd6v8
p486
I1
sVdh7fwvk
p487
I2
sVdbcl8es
p488
I1
sVdam7c3y
p489
I1
sVd3orzu1
p490
I1
sVdn6pc8p
p491
I1
sVd972wz8
p492
I1
sVd7qhwhu
p493
I1
sVdky303o
p494
I2
sVdavbnpm
p495
I1
sVdh0aue1
p496
I1
sVd4e342z
p497
I1
sVczrf125
p498
I1
sVdpiboi8
p499
I1
sVd0frcsp
p500
I1
sVdfi2az5
p501
I1
sVd0ruorb
p502
I1
sVd1c4imn
p503
I1
sVdcviv12
p504
I1
sVd1gnqyv
p505
I1
sVdcdusrv
p506
I1
sVczfpwl2
p507
I1
sVdkre67s
p508
I1
sVd2o3e6s
p509
I1
sVczh3ntq
p510
I1
sVdng7hos
p511
I1
sVd0dl113
p512
I1
sVd3jng7g
p513
I1
sVdh62usi
p514
I2
sVdjxfvhg
p515
I2
sVd7k0cez
p516
I1
sVczfioqf
p517
I1
sVddgkr4q
p518
I1
sVd0szaoz
p519
I1
sVdmvpbq6
p520
I1
sVdop6cn3
p521
I1
sVd6hk4xm
p522
I1
sVd2sa0f4
p523
I1
sVd4fwh3f
p524
I1
sVdhh3e0c
p525
I1
sVd3rkk83
p526
I1
sVd2qtrqm
p527
I1
sVder1cs9
p528
I1
sVd1c6xgk
p529
I1
sVdgskes6
p530
I1
sVd7q6l9h
p531
I2
sVcz4p117
p532
I1
sVczyu78x
p533
I2
sVd83r5m9
p534
I1
sVd6qvzv0
p535
I2
sVcz4vka8
p536
I1
sVd77fo7k
p537
I1
sVdnxv5nm
p538
I1
sVd4cg4lw
p539
I1
sVdoy3oqz
p540
I1
sVdohuc65
p541
I1
sVd275sd6
p542
I1
sVdeajm4a
p543
I4
sVdje4ehs
p544
I1
sVdbey94x
p545
I2
sVd41tcih
p546
I1
sVdidh3nr
p547
I1
sVd1fpeqa
p548
I1
sVd747a46
p549
I1
sVd3ujqcz
p550
I1
sVdccmjdm
p551
I1
sVdbf0nq6
p552
I1
sVczw00bi
p553
I1
sVdq500xk
p554
I1
sVdqk1cr4
p555
I1
sVd19b1ug
p556
I1
sVd75q26a
p557
I1
sVdnw4wmh
p558
I1
sVdne7y0q
p559
I1
sVda39hrg
p560
I1
sVd1bp62x
p561
I1
sVd5x2e0k
p562
I1
sVd8dzql7
p563
I1
sVd95mnyy
p564
I1
sVcyn9ki4
p565
I1
sVd45c96l
p566
I1
sVdr2wd19
p567
I1
sVdgt9sw8
p568
I1
sVdak02eu
p569
I1
sVd1dsbht
p570
I1
sVdf7jvq4
p571
I2
sVdcf5x2w
p572
I1
sVd8m8l45
p573
I1
sVdknhsqq
p574
I1
sVdcbw4gw
p575
I1
sVd0i8baq
p576
I1
sVdhc5vzt
p577
I1
sVddgwg20
p578
I1
sVd483mn9
p579
I1
sVd0g1jz9
p580
I1
sVdj3wk45
p581
I1
sVdt84nee
p582
I1
sVdgccvti
p583
I1
sVdgycfiz
p584
I1
sVd12efwv
p585
I1
sVdbg1jpq
p586
I1
sVd06p6q0
p587
I1
sVd7xli4f
p588
I1
sVdben4hn
p589
I1
sVdis2lmq
p590
I1
sVdgmk3uu
p591
I1
sVdru1blq
p592
I5
sVdefpuyq
p593
I1
sVdgn3ruk
p594
I1
sVdphnkug
p595
I1
sVcztzb92
p596
I1
sVdt5pot4
p597
I1
sVd3ty0v1
p598
I1
sVdgfb9sb
p599
I1
sVdawkyko
p600
I2
sVdh6nsqh
p601
I3
sVdhdqbl1
p602
I1
sVdhxo2v6
p603
I1
sVdggv7a7
p604
I2
sVd1kelwb
p605
I2
sVdkxtcpg
p606
I1
sVd6ic9uo
p607
I1
sVdb5n8ep
p608
I1
sVddbxi3w
p609
I1
sVdb5g6xz
p610
I1
sVd0k9kck
p611
I1
sVdgj2o1q
p612
I1
sVd940be5
p613
I1
sVdhp04h5
p614
I4
sVdp35ewq
p615
I1
sVde823dv
p616
I1
sVdmt9udj
p617
I1
sVdmu9y32
p618
I2
sVd35bfav
p619
I3
sVd0kxdn7
p620
I2
sVd69hvmb
p621
I1
sVd728pvz
p622
I1
sVdtd1mpp
p623
I1
sVdei6r8k
p624
I1
sVcyqv05g
p625
I1
sVdfjdrr9
p626
I1
sVd6vx2fk
p627
I1
sVdrtg52i
p628
I2
sVd1ksu0x
p629
I1
sVd1ob0mb
p630
I1
sVczjwqsp
p631
I1
sVd10lvdl
p632
I1
sVdav5bon
p633
I1
sVdiw1gmi
p634
I1
sVdsbxoql
p635
I1
sVd50fjz8
p636
I1
sVda7rudl
p637
I1
sVdpiiny6
p638
I1
sVd113nnc
p639
I1
sVd25wxif
p640
I1
sVd941zub
p641
I1
sVd9yuzv0
p642
I1
sVdi8uat9
p643
I1
sVd1kvfwo
p644
I1
sVdiwfvdg
p645
I1
sVczcdn1u
p646
I1
sVd3095gm
p647
I1
sVd00xi9c
p648
I2
sVddlky9w
p649
I1
sVdgvrju1
p650
I1
sVd1hnsoo
p651
I1
sVdn18059
p652
I2
sVdq50p55
p653
I1
sVdq1196u
p654
I1
sVdh26h3p
p655
I1
sVdibp92f
p656
I2
sVdirkvme
p657
I1
sVczodyst
p658
I1
sVd9cuvnr
p659
I1
sVdawgtys
p660
I1
sVds2gngu
p661
I1
sVd1czj5a
p662
I1
sVd7hw1dt
p663
I1
sVdg0p50h
p664
I1
sVdf37y77
p665
I1
sVdar1ri3
p666
I1
sVd1qhb3z
p667
I1
sVd9qi93t
p668
I1
sVdejh9cm
p669
I1
sVd24kfth
p670
I1
sVdakkeas
p671
I1
sVdt2fxlm
p672
I1
sVczyu9n7
p673
I1
sVdi9heqv
p674
I2
sVd5jngoc
p675
I1
sVd5rs1kk
p676
I1
sVd7mpj2i
p677
I1
sVd07mwxo
p678
I1
sVdixylud
p679
I1
sVd9o46pe
p680
I1
sVcz1oe0l
p681
I1
sVd5f2e5j
p682
I1
sVda34b2n
p683
I1
sVd5gh9xj
p684
I2
sVddcmc1x
p685
I1
sVd7ratm8
p686
I1
sVdrkam35
p687
I1
sVd5x32oa
p688
I1
sVdpe29sx
p689
I1
sVcyu5hgt
p690
I1
sVd7qcx48
p691
I1
sVdcbazrt
p692
I1
sVd69ibuc
p693
I1
sVdd1sy7i
p694
I1
sVd8hh99p
p695
I1
sVdoxt7z6
p696
I1
sVd2q167k
p697
I1
sVd9j7sq2
p698
I1
sVd2jmu72
p699
I1
sVd7hvlow
p700
I1
sVdmtrsfg
p701
I1
sVdt6bnob
p702
I1
sVdkehy6g
p703
I1
sVdj4mk50
p704
I1
sVdrrv9dd
p705
I1
sVdgpzlf8
p706
I1
sVdceqanx
p707
I2
sVd2w0547
p708
I1
sVdk7joaz
p709
I1
sVdhyknx3
p710
I1
sVdk9c9tr
p711
I2
sVdiygdhz
p712
I1
sVdq5basz
p713
I1
sVd7hs9kv
p714
I1
sVd6bgibm
p715
I1
sVd34ngjp
p716
I1
sVdd2e12b
p717
I1
sVdqkpcpo
p718
I1
sVden3s59
p719
I1
sVd1ybge7
p720
I1
sVd1ecooa
p721
I1
sVdbqnqk6
p722
I1
sVd2hn6b0
p723
I1
sVdgkpl2f
p724
I1
sVda8v47b
p725
I1
sVcz9ve9o
p726
I1
sVdbh29qm
p727
I1
sVd7m707j
p728
I1
sVdo6ir0s
p729
I1
sVd42lbtr
p730
I1
sVd6hfvcp
p731
I1
sVd1tr3v6
p732
I1
sVd4fb341
p733
I1
sVdsqqwvg
p734
I1
sVdr3bpoi
p735
I2
sVd5snazb
p736
I1
sVd2xdtoa
p737
I1
sVdkcujt8
p738
I1
sVd1a3mz2
p739
I1
sVczvi09x
p740
I1
sVd6jlijh
p741
I1
sVdog967w
p742
I1
sVd2pvhav
p743
I1
sVd7inj5t
p744
I1
sVdkl5x87
p745
I1
sVdaz2i1i
p746
I1
sVcyhykpc
p747
I1
sVddkiv7y
p748
I1
sVd3ivv7x
p749
I1
sVd4rbrwk
p750
I1
sVd2lazkd
p751
I1
sVd8v63v4
p752
I1
sVd05pylz
p753
I1
sVdrgfpyl
p754
I1
sVd8f4u68
p755
I1
sVd1b0761
p756
I1
sVczcp0u9
p757
I1
sVdmyzzde
p758
I1
sVdf4btg2
p759
I1
sVdc09ngb
p760
I1
sVdduaekl
p761
I1
sVdcql1t2
p762
I1
sVdkotjz2
p763
I1
sVdomqdq3
p764
I2
sVdgg30ri
p765
I1
sVd1z6xv3
p766
I1
sVdfwya82
p767
I1
sVcyozvkr
p768
I1
sVd0ir7dw
p769
I1
sVdsww9ew
p770
I2
sVd65b3vg
p771
I1
sVdoskoo0
p772
I1
sVdbqadgi
p773
I1
sVd14pqs1
p774
I2
sVd66wvsw
p775
I1
sVd4y5gw9
p776
I1
sVdcf744b
p777
I1
sVda90n9w
p778
I1
sVd2o3rtu
p779
I1
sVdg3mozo
p780
I1
sVd1l4af7
p781
I1
sVdd6bhg4
p782
I1
sVcyik9f7
p783
I1
sVdhyrdky
p784
I1
sVd7ul4nh
p785
I1
sVdigdlqr
p786
I1
sVd1an54m
p787
I1
sVdixvari
p788
I1
sVcyo0rcs
p789
I1
sVd1wqku6
p790
I1
sVds29rjf
p791
I3
sVdgc9zf2
p792
I2
sVdirehzk
p793
I1
sVdeilgag
p794
I1
sVdn70s85
p795
I1
sVd1r12mi
p796
I1
sVcyjokfg
p797
I1
sVd7qffba
p798
I1
sVd15hi6g
p799
I1
sVczbtco8
p800
I1
sVd9wga71
p801
I1
sVd8m0mrx
p802
I1
sVdbn0ewz
p803
I1
sVd42phe6
p804
I1
sVdsqsgia
p805
I1
sVd8lv5t4
p806
I1
sVdiz8g2y
p807
I1
sVdjhm55q
p808
I1
sVdncsfei
p809
I1
sVczaat3d
p810
I1
sVd8ucd8h
p811
I1
sVd7504st
p812
I1
sVd19cr5s
p813
I2
sVdcn97ni
p814
I1
sVcz7h7n0
p815
I1
sVd7cpkvs
p816
I1
sVd2r1jhr
p817
I1
sVd51bddl
p818
I1
sVd9nucwc
p819
I1
sVdtji25y
p820
I1
sVd6e0tgz
p821
I1
sVd6hcx19
p822
I1
sVdn1mzjl
p823
I2
sVd78qxfk
p824
I1
sVdhyp7l9
p825
I1
sVd5ndjsc
p826
I1
sVdiwf2j2
p827
I2
sVczz1k0f
p828
I1
sVdjts0dm
p829
I2
sVd1k4ugq
p830
I1
sVdf6wuyt
p831
I1
sVd8ssw60
p832
I1
sVdsafy0c
p833
I1
sVde76lg5
p834
I1
sVd1hhol9
p835
I1
sVdmjibki
p836
I1
sVdewtibp
p837
I1
sVdh0fvln
p838
I1
sVcyu84y6
p839
I1
sVdjbcnbb
p840
I1
sVdfnjvc7
p841
I1
sVd059lgw
p842
I1
sVdfsx307
p843
I1
sVdeuz1dh
p844
I1
sVd95qvi3
p845
I1
sVdouef8m
p846
I1
sVd6yy8wk
p847
I1
sVd47ihri
p848
I2
sVd3fcac0
p849
I1
sVcz34ib5
p850
I1
sVdkosjy3
p851
I1
sVdim7q33
p852
I1
sVd415nul
p853
I1
sVczxlomt
p854
I1
sVdcxfoat
p855
I1
sVdjnc63o
p856
I1
sVdom2yb1
p857
I2
sVd3pa8bj
p858
I1
sVdkrew5y
p859
I1
sVd9q0b60
p860
I1
sVd3du13r
p861
I1
sVda1nvd5
p862
I1
sVd6sluws
p863
I1
sVds9za4w
p864
I1
sVd0s7kid
p865
I1
sVde9lruy
p866
I1
sVdalgh6a
p867
I1
sVd1exuc2
p868
I1
sVdf97rna
p869
I1
sVd5hyehs
p870
I2
sVdd7bi0g
p871
I2
sVdmw5qwb
p872
I1
sVdeah5jf
p873
I1
sVd3ueno5
p874
I1
sVdp7gtn3
p875
I2
sVd3p592z
p876
I1
sVd7cpsi8
p877
I1
sVddzkncl
p878
I1
sVdgb8elj
p879
I1
sVdjltk4n
p880
I1
sVdfny28d
p881
I1
sVdhnp0b9
p882
I1
sVd8x41us
p883
I1
sVd0761ag
p884
I1
sVdd8yr8n
p885
I1
sVd9k9jzj
p886
I1
sVd1d4uoy
p887
I1
sVds3fjrx
p888
I1
sVdrrpfif
p889
I1
sVdfbdtjl
p890
I1
sVdmm29bo
p891
I1
sVdc3cacl
p892
I1
sVd7nxz9t
p893
I1
sVddctgpi
p894
I1
sVdnl6a3l
p895
I1
sVd0o94w9
p896
I2
sVd1v60tp
p897
I1
sVd6q84fo
p898
I1
sVd4snkfe
p899
I1
sVczx6jti
p900
I1
sVdgvow0w
p901
I1
sVde32xvy
p902
I1
sVczae984
p903
I1
sVd26awyk
p904
I1
sVdcc1fu6
p905
I1
sVdnuu8kz
p906
I1
sVdidda2c
p907
I1
sVdqv4r8u
p908
I1
sVd32rwx9
p909
I1
sVczd4ula
p910
I1
sVdrmwb7v
p911
I1
sVczropow
p912
I1
sVczh91sk
p913
I1
sVd03t9b4
p914
I2
sVdgms1fm
p915
I2
sVdji516e
p916
I1
sVdpmkmvp
p917
I1
sVd15s4zs
p918
I1
sVd966xgc
p919
I2
sVdejvl9x
p920
I1
sVd7mdx21
p921
I1
sVd7id51s
p922
I1
sVdefc761
p923
I1
sVdgajhap
p924
I1
sVdfzzqu5
p925
I1
sVczt1yi8
p926
I1
sVdhl6iuc
p927
I1
sVd8mjc98
p928
I1
sVcysfd1l
p929
I1
sVdado732
p930
I1
sVdr44bnq
p931
I1
sVdnxhol7
p932
I1
sVdrzcjz4
p933
I1
sVdmpb83t
p934
I1
sVcza2kqr
p935
I2
sVdbefh3o
p936
I1
sVd264b40
p937
I1
sVd9t49mh
p938
I2
sVds5gy0p
p939
I1
sVd22pqw7
p940
I1
sVdihgd3l
p941
I1
sVdrhmsat
p942
I1
sVcyptktk
p943
I1
sVd5jy35c
p944
I1
sVd6d9y62
p945
I1
sVdg8ohoi
p946
I1
sVd03g1er
p947
I1
sVd5redtv
p948
I2
sVcypomfy
p949
I1
sVd7d0p6j
p950
I1
sVdgyryjb
p951
I1
sVd0y13q5
p952
I1
sVdiuw4x0
p953
I1
sVdfmx6fu
p954
I1
sVds1xdll
p955
I1
sVcz4to6g
p956
I1
sVd0i7yag
p957
I1
sVdiqfir7
p958
I1
sVd20auit
p959
I1
sVcztehux
p960
I1
sVdmve5ff
p961
I1
sVdap7ozs
p962
I1
sVdhy7bf6
p963
I1
sVd4i3iu6
p964
I1
sVd2kzyns
p965
I1
sVd5bdifk
p966
I1
sVdmfcmi5
p967
I1
sVd3yqnfu
p968
I1
sVd1p5ht5
p969
I1
sVd4gnfyb
p970
I1
sVdpapw3m
p971
I2
sVcyjq05m
p972
I1
sVd2beu10
p973
I1
sVds7f9a5
p974
I1
sVd25p0yr
p975
I1
sVda95q6h
p976
I1
sVdjgmqcn
p977
I1
sVd5cud8z
p978
I1
sVd0cmjeq
p979
I1
sVdjma6dr
p980
I1
sVd5qa6dm
p981
I1
sVd28ovkt
p982
I2
sVcz3s0as
p983
I1
sVd54eqqs
p984
I1
sVdne68rl
p985
I1
sVdha7xfc
p986
I1
sVd4dnifl
p987
I1
sVd72743i
p988
I1
sVdepmz5e
p989
I1
sVd0hsx6v
p990
I1
sVd7z2nv0
p991
I1
sVd2eqjzx
p992
I2
sVd038nz6
p993
I1
sVd4gh8rw
p994
I1
sVcyucwpj
p995
I1
sVdn3mqw8
p996
I1
sVdfu0uag
p997
I1
sVdq4p0y1
p998
I1
sVd7gqlml
p999
I1
sVd6gog6l
p1000
I1
sVd8xgfws
p1001
I1
sVd0r3cad
p1002
I1
sVd01dm3a
p1003
I1
sVdabk3pd
p1004
I1
sVdakncq0
p1005
I1
sVcykiw2l
p1006
I1
sVdfzw8vq
p1007
I1
sVczl9vql
p1008
I1
sVd1t510q
p1009
I1
sVd1ksh6j
p1010
I1
sVd46dms5
p1011
I1
sVd8ifgwo
p1012
I1
sVczhhmtt
p1013
I2
sVcykbtg1
p1014
I1
sVd3ifucg
p1015
I1
sVd3yd3m4
p1016
I1
sVdf1n5oh
p1017
I2
sVd6chutm
p1018
I1
sVd3yfbxb
p1019
I1
sVd0frfif
p1020
I1
sVdq502xz
p1021
I1
sVd87fa6p
p1022
I1
sVdb3tglk
p1023
I1
sVdi5a1vo
p1024
I1
sVd5iuarf
p1025
I1
sVd0ycd95
p1026
I1
sVdqtlerv
p1027
I1
sVczta2un
p1028
I1
sVd0lyl8r
p1029
I1
sVdewt1sr
p1030
I1
sVczkh7lf
p1031
I2
sVd2suklh
p1032
I1
sVdq365fa
p1033
I1
sVd1353rl
p1034
I1
sVczxz0a1
p1035
I1
sVd39xoni
p1036
I1
sVdgd6sck
p1037
I1
sVd30owdn
p1038
I1
sVdd0quyk
p1039
I1
sVdck7lty
p1040
I1
sVdiz8xcr
p1041
I1
sVdqfxjtb
p1042
I1
sVdh149nb
p1043
I1
sVdp6cbi3
p1044
I1
sVdhel5qe
p1045
I1
sVdj0k3h8
p1046
I1
sVdjmrs38
p1047
I1
sVdio1r2u
p1048
I1
sVd52xxbl
p1049
I1
sVd4kz0cd
p1050
I1
sVdjml9v3
p1051
I1
sVdhfn801
p1052
I1
sVd12rct2
p1053
I1
sVd25kjht
p1054
I1
sVdog7ji3
p1055
I1
sVdciq0t2
p1056
I1
sVdcuk32k
p1057
I1
sVde72v6r
p1058
I1
sVdiswfy5
p1059
I1
sVdaxw8hu
p1060
I1
sVcyznlfl
p1061
I1
sVdhzl2ua
p1062
I1
sVcyxc7ww
p1063
I1
sVd7hu9t1
p1064
I1
sVczqlgsd
p1065
I1
sVddbvuvb
p1066
I1
sVd7syiir
p1067
I1
sVd7xgp4d
p1068
I1
sVd6lu6lj
p1069
I1
sVd7eo8kp
p1070
I1
sVd1k27ra
p1071
I1
sVdpkb26e
p1072
I4
sVd0nim2q
p1073
I1
sVdepwrsw
p1074
I1
sVdqgf3js
p1075
I1
sVd6x62s0
p1076
I1
sVdt31r12
p1077
I1
sVdja5612
p1078
I1
sVd21hcst
p1079
I1
sVd5szr4l
p1080
I1
sVdkcts4d
p1081
I2
sVdjq6jn2
p1082
I1
sVdcoasd5
p1083
I1
sVdrgnz36
p1084
I1
sVd18dc1x
p1085
I1
sVda0jgwm
p1086
I1
sVd251spq
p1087
I1
sVde6gry1
p1088
I1
sVd40ff4i
p1089
I1
sVczgr7bo
p1090
I1
sVczt1cii
p1091
I1
sVd9rgb06
p1092
I1
sVczh65we
p1093
I1
sVde4yp4d
p1094
I1
sVdg1ja8n
p1095
I1
sVday5oev
p1096
I2
sVdfeek6g
p1097
I1
sVdnezhye
p1098
I1
sVddqgbcy
p1099
I1
sVdgj8s5n
p1100
I1
sVczm2s6p
p1101
I1
sVd39iasn
p1102
I1
sVd1vmrus
p1103
I1
sVdha04uc
p1104
I1
sVd1zyvxd
p1105
I1
sVd8jyy2u
p1106
I1
sVdijpz1j
p1107
I4
sVdfuhwvd
p1108
I3
sVdn7sc1y
p1109
I1
sVdd9dmtj
p1110
I1
sVdfm6ll3
p1111
I1
sVd0rq870
p1112
I1
sVd4gozja
p1113
I1
sVd1kkmss
p1114
I1
sVd9re3f3
p1115
I1
sVdf64abb
p1116
I1
sVdgc7ecb
p1117
I1
sVczto88h
p1118
I1
sVdafz9ue
p1119
I1
sVdgtyhgp
p1120
I1
sVdfuta33
p1121
I1
sVdro8q83
p1122
I1
sVdbloezq
p1123
I1
sVd3fx0un
p1124
I1
sVdgn1yl1
p1125
I3
sVd90v8oo
p1126
I3
sVd9vkj0b
p1127
I1
sVd0346x3
p1128
I2
sVdtbqjky
p1129
I1
sVdao55nj
p1130
I1
sVd6nwpd0
p1131
I1
sVdep53tm
p1132
I1
sVdagt5h7
p1133
I1
sVd62djgv
p1134
I1
sVd1d1s0c
p1135
I1
sVdnypg67
p1136
I1
sVd034a7g
p1137
I1
sVdb3ayc2
p1138
I1
sVdgy3mrm
p1139
I1
sVdkyq14d
p1140
I1
sVdbe4ocv
p1141
I1
sVcz2hqni
p1142
I1
sVcyuxoug
p1143
I1
sVd0nw4a1
p1144
I2
sVd61r9ei
p1145
I3
sVd5avlo6
p1146
I1
sVdell1c9
p1147
I1
sVdanhsaq
p1148
I1
sVczi76se
p1149
I1
sVd1sn0j2
p1150
I1
sVcyy3jh3
p1151
I1
sVd4ieujk
p1152
I1
sVd40pixd
p1153
I1
sVdqcgoah
p1154
I1
sVd1045gq
p1155
I1
sVd6u7lra
p1156
I1
sVd10o8hf
p1157
I1
sVczmsy3h
p1158
I1
sVd2r2ya8
p1159
I1
sVdjmsts4
p1160
I1
sVcz2jv2l
p1161
I1
sVdnr4ix6
p1162
I1
sVdqykoy3
p1163
I2
sVdcyga8a
p1164
I1
sVdap30bd
p1165
I1
sVdeogn3o
p1166
I1
sVdj634wr
p1167
I1
sVdg8ycl6
p1168
I1
sVdgn9bwj
p1169
I1
sVcz1i56l
p1170
I1
sVd8oczw6
p1171
I1
sVd0y6yv7
p1172
I1
sVd6heqnb
p1173
I1
sVdskr8tj
p1174
I1
sVdq43umj
p1175
I1
sVdeg9b8w
p1176
I1
sVdhn1a98
p1177
I1
sVda183j0
p1178
I1
sVd0da1kb
p1179
I1
sVd0878mn
p1180
I2
sVd5o9sji
p1181
I1
sVczx28h9
p1182
I1
sVczfcfg2
p1183
I1
sVdbnph29
p1184
I1
sVd7qxe90
p1185
I1
sVcyww23e
p1186
I1
sVdihf3cb
p1187
I1
sVd1wdr1s
p1188
I1
sVczm1gw8
p1189
I2
sVdskvi3x
p1190
I1
sVcznp0l9
p1191
I1
sVd5lyx2k
p1192
I1
sVdbjo0kq
p1193
I1
sVd86db95
p1194
I1
sVdcibyh2
p1195
I1
sVd0cw4ty
p1196
I1
sVdffx7be
p1197
I1
sVdajb58h
p1198
I1
sVd9ntmwk
p1199
I1
sVcynd5kg
p1200
I1
sVd0ondmf
p1201
I1
sVd2l9jwa
p1202
I1
sVdht4gtu
p1203
I2
sVcz2f65e
p1204
I1
sVd9boils
p1205
I1
sVdh0twci
p1206
I1
sVdmu4k3b
p1207
I1
sVd3r5zwz
p1208
I1
sVdfytckg
p1209
I1
sVd3bgezt
p1210
I2
sVd25xxet
p1211
I1
sVdgvqobp
p1212
I1
sVdpx04kv
p1213
I2
sVde2f3yt
p1214
I1
sVd6x7mb6
p1215
I1
sVdeh0n20
p1216
I1
sVd5ipp0g
p1217
I1
sVd1unh25
p1218
I1
sVdewud4c
p1219
I1
sVdf28tz1
p1220
I1
sVd2lvkcz
p1221
I2
sVddlv1cq
p1222
I1
sVd1k45g1
p1223
I1
sVdpuddkp
p1224
I1
sVczzlcc2
p1225
I1
sVcyk9nwz
p1226
I1
sVdj3kfgk
p1227
I1
sVde9mq74
p1228
I1
sVdpqwswr
p1229
I1
sVdq1w2uh
p1230
I1
sVd7t453t
p1231
I1
sVdivhaex
p1232
I1
sVd0t6j8u
p1233
I1
sVdp7bofp
p1234
I1
sVd0jp94p
p1235
I1
sVd9g6wj4
p1236
I1
sVd5xd3yb
p1237
I1
sVcyu0dxb
p1238
I1
sVdfyo6qf
p1239
I1
sVdoeoaah
p1240
I1
sVdb64zr7
p1241
I1
sVdfodfmb
p1242
I1
sVczzh83k
p1243
I1
sVcyqyepz
p1244
I1
sVd17utlo
p1245
I1
sVdg892wz
p1246
I1
sVd2hrx13
p1247
I1
sVd2w9vpo
p1248
I1
sVdbmhixt
p1249
I3
sVcz9xkhr
p1250
I1
sVd37alzk
p1251
I1
sVddldvb7
p1252
I1
sVddul5go
p1253
I1
sVdp0fij0
p1254
I1
sVd1d5nrx
p1255
I1
sVdspb5kr
p1256
I1
sVdkvglcu
p1257
I2
sVdjhfvxs
p1258
I1
sVd1zmnk5
p1259
I1
sVd978co3
p1260
I1
sVd1d2wju
p1261
I1
sVdmm23m8
p1262
I1
sVdgmtgq6
p1263
I1
sVd33kh6m
p1264
I1
sVd4kof1p
p1265
I1
sVdn468yg
p1266
I1
sVdberx8u
p1267
I1
sVddn06er
p1268
I1
sVdc068ww
p1269
I1
sVdiaplke
p1270
I1
sVd24sh2p
p1271
I1
sVdq3b3uz
p1272
I1
sVdgaydfj
p1273
I1
sVdc7ipxn
p1274
I1
sVd4lqivm
p1275
I1
sVdax8f4w
p1276
I1
sVd4188cr
p1277
I1
sVdrntelb
p1278
I1
sVd63stf1
p1279
I1
sVdo80kyg
p1280
I1
sVdbn4n8g
p1281
I1
sVd9va7zu
p1282
I1
sVd5bt8b2
p1283
I1
sVd6ki7f9
p1284
I1
sVd19rkz6
p1285
I2
sVdkihc2e
p1286
I1
sVd7ipnxs
p1287
I1
sVd8ho35j
p1288
I1
sVdex24go
p1289
I1
sVdp8rbku
p1290
I1
sVdeq1r3y
p1291
I1
sVd7fg0hl
p1292
I1
sVd6mkq1k
p1293
I1
sVdezeitb
p1294
I1
sVddoo4d6
p1295
I1
sVd1tr06x
p1296
I1
sVdip4q7w
p1297
I1
sVdiqvvf3
p1298
I1
sVdfdqj7x
p1299
I1
sVczc4ydo
p1300
I3
sVd2bb1sp
p1301
I1
sVdibgqs3
p1302
I1
sVdbdihst
p1303
I2
sVdhgdy5v
p1304
I1
sVdt0jgsb
p1305
I1
sVdmi9eo7
p1306
I1
sVdelj9wb
p1307
I1
sVd96whbp
p1308
I1
sVdc2hiyf
p1309
I2
sVd4dpcxj
p1310
I1
sVd2bioic
p1311
I1
sVd1ziwq1
p1312
I1
sVd4mwvyk
p1313
I1
sVdbrlq3w
p1314
I1
sVd21igf5
p1315
I1
sVd79jsco
p1316
I1
sVdhf3y14
p1317
I1
sVd4w6nem
p1318
I1
sVd0ich4l
p1319
I1
sVdj7syd0
p1320
I1
sVdomtlnv
p1321
I1
sVdb2c4pr
p1322
I1
sVcyvhk3s
p1323
I1
sVdehjonb
p1324
I1
sVdd52r0i
p1325
I3
sVdaub6ep
p1326
I3
sVdbctvb6
p1327
I1
sVd1jja14
p1328
I1
sVdbctvb3
p1329
I1
sVdbctvb1
p1330
I1
sVdfnrvwe
p1331
I1
sVd0lw0ol
p1332
I1
sVczmhxkm
p1333
I1
sVd6jhdmc
p1334
I1
sVdb94buw
p1335
I1
sVdmz7hk9
p1336
I1
sVd4i5j05
p1337
I1
sVd5uyrfm
p1338
I1
sVde7mvgv
p1339
I1
sVd8xhc3o
p1340
I1
sVdixzt9u
p1341
I1
sVd1crgi8
p1342
I2
sVd1hwe0r
p1343
I1
sVd09hql8
p1344
I1
sVd30p63a
p1345
I2
sVd5vaw3y
p1346
I1
sVd8lgo4b
p1347
I1
sVd2b0km6
p1348
I1
sVdq226fp
p1349
I1
sVd97syzp
p1350
I2
sVdcczjvm
p1351
I1
sVds0k8ew
p1352
I1
sVd1qadjt
p1353
I2
sVdb3pt7f
p1354
I1
sVcz2ni36
p1355
I2
sVdbh4oof
p1356
I1
sVd995nkx
p1357
I1
sVdaidlps
p1358
I1
sVdddlxd5
p1359
I1
sVdbfieni
p1360
I1
sVdqhkoc2
p1361
I1
sVcypjpe3
p1362
I1
sVczw1qnq
p1363
I1
sVdqix3ev
p1364
I1
sVdi733ge
p1365
I1
sVd8xrt5x
p1366
I1
sVdpwkw1g
p1367
I1
sVdc8tnjt
p1368
I1
sVddlfljd
p1369
I1
sVd8ueqi7
p1370
I1
sVd0xfdid
p1371
I1
sVdo2w3ch
p1372
I2
sVdd4n455
p1373
I1
sVdnck0hg
p1374
I1
sVdg1si74
p1375
I1
sVdefh51e
p1376
I1
sVd16d4ic
p1377
I1
sVdh4nwfg
p1378
I1
sVdro0b9g
p1379
I1
sVdhwr0ry
p1380
I1
sVdgkmo0q
p1381
I1
sVd5n825r
p1382
I1
sVddn5g7n
p1383
I1
sVdk48bqt
p1384
I1
sVcyqgliq
p1385
I1
sVdkqw02z
p1386
I1
sVdndvhn8
p1387
I1
sVd20hyzv
p1388
I1
sVdghtbw8
p1389
I1
sVdaj1ezx
p1390
I1
sVd45jh2y
p1391
I1
sVd6omgkw
p1392
I1
sVdhutl17
p1393
I1
sVdiha74o
p1394
I1
sVdc8x0f8
p1395
I1
sVdf1wfxv
p1396
I1
sVdhdl8va
p1397
I1
sVcz8g5ph
p1398
I1
sVd5poaca
p1399
I1
sVdn6ry2q
p1400
I3
sVcz6i7rh
p1401
I1
sVd2fqjgw
p1402
I1
sVdgosval
p1403
I1
sVd2kfv26
p1404
I1
sVd10mjl5
p1405
I1
sVd59z53u
p1406
I1
sVday6atg
p1407
I1
sVd0rlg74
p1408
I1
sVd38zu3u
p1409
I1
sVdkqu3sq
p1410
I1
sVd98oiab
p1411
I1
sVcywolkz
p1412
I2
sVdqp3msm
p1413
I5
sVd05641a
p1414
I1
sVdc7zmn6
p1415
I1
sVd8t4vvf
p1416
I1
sVddhhtmd
p1417
I1
sVd2birvd
p1418
I1
sVdgmr31o
p1419
I1
sVdbu3f2r
p1420
I1
sVdghgwky
p1421
I1
sVd8tj8ru
p1422
I1
sVd2t3byz
p1423
I1
sVdi92yaw
p1424
I1
sVdhz98dz
p1425
I1
sVd67nsi5
p1426
I1
sVdpc7yvp
p1427
I1
sVdbuzf1x
p1428
I1
sVd6oylnq
p1429
I1
sVd3ubrut
p1430
I1
sVdg8g0p2
p1431
I1
sVdr48dgg
p1432
I1
sVd3fbtmm
p1433
I1
sVddnel7k
p1434
I1
sVd2wh2yr
p1435
I1
sVd0b6eg9
p1436
I1
sVdkchsbw
p1437
I1
sVde0lwck
p1438
I1
sVcynkxgt
p1439
I1
sVdst9mei
p1440
I1
sVdgmnqza
p1441
I1
sVdhisjvi
p1442
I1
sVdis9g7l
p1443
I1
sVdth61p1
p1444
I1
sVd0yu84i
p1445
I1
sVdnvwhwr
p1446
I2
sVdq13l59
p1447
I1
sVdb7g3jw
p1448
I1
sVdgmkgns
p1449
I1
sVczonj3r
p1450
I1
sVdfu41a3
p1451
I1
sVd8zrnkg
p1452
I1
sVd2wrzya
p1453
I1
sVd3up1lj
p1454
I1
sVdoj7efe
p1455
I1
sVdd4zjhh
p1456
I1
sVdft1rsa
p1457
I1
sVdkb81hl
p1458
I1
sVdi33270
p1459
I1
sVd2wbhdf
p1460
I1
sVd258hgu
p1461
I1
sVczuf33z
p1462
I1
sVd05y6sm
p1463
I1
sVcznmsbr
p1464
I2
sVcyjv9dh
p1465
I1
sVdr4k2fo
p1466
I1
sVdp7hkvh
p1467
I1
sVdia63n0
p1468
I1
sVd756v8p
p1469
I1
sVdc5xh98
p1470
I1
sVd09i690
p1471
I1
sVdmyapu3
p1472
I1
sVd6t1530
p1473
I1
sVdc2b8mx
p1474
I1
sVdqy2rye
p1475
I1
sVdj1cpcv
p1476
I1
sVdbyxat4
p1477
I1
sVd2muhfl
p1478
I1
sVdb8hy43
p1479
I1
sVdjmred1
p1480
I1
sVdojdtca
p1481
I1
sVdc33xax
p1482
I1
sVddso3c3
p1483
I1
sVdmubgq9
p1484
I1
sVd01cd2b
p1485
I1
sVczhbpg8
p1486
I1
sVdsqdquc
p1487
I1
sVd0uqzsz
p1488
I1
sVd0faj7p
p1489
I1
sVdndflh6
p1490
I1
sVda15rbr
p1491
I1
sVdc2lb2e
p1492
I1
sVd13lmga
p1493
I1
sVcymqpqh
p1494
I1
sVdizl8yk
p1495
I1
sVd8ymr1o
p1496
I1
sVdqumipm
p1497
I4
sVd2g3xcm
p1498
I1
sVdbf9gup
p1499
I1
sVdclb2h6
p1500
I1
sVd6ya9l6
p1501
I1
sVd3qchex
p1502
I1
sVdnj7b0c
p1503
I1
sVcyr2jh5
p1504
I1
sVdobqqi4
p1505
I1
sVcysk44q
p1506
I1
sVdbkcphs
p1507
I1
sVd1r59ey
p1508
I1
sVdi85dfx
p1509
I3
sVdgbwkpy
p1510
I1
sVd0tqoh5
p1511
I1
sVdafhe99
p1512
I1
sVd3zk698
p1513
I1
sVd7zqmc1
p1514
I1
sVczafbjz
p1515
I1
sVdcyltdr
p1516
I1
sVd6w0fu8
p1517
I1
sVd1zqtdg
p1518
I1
sVdki9f51
p1519
I1
sVdsmpgmy
p1520
I1
sVdfwy29q
p1521
I1
sVdh4wds8
p1522
I1
sVd2gfxpn
p1523
I1
sVdjc3vxr
p1524
I1
sVdc90kye
p1525
I1
sVddw1l0p
p1526
I1
sVd91q08f
p1527
I1
sVczomu78
p1528
I1
sVcyn09y2
p1529
I1
sVczp2ccu
p1530
I1
sVcz4xwi6
p1531
I1
sVd30tp8w
p1532
I2
sVdck2b6m
p1533
I1
sVdh675vj
p1534
I1
sVdprivso
p1535
I1
sVcyzb3pc
p1536
I1
sVd5mj8gn
p1537
I1
sVd3zj1u6
p1538
I1
sVddmvhri
p1539
I1
sVd7nxdcp
p1540
I1
sVd3hklmd
p1541
I1
sVd1n3327
p1542
I1
sVdpoumtf
p1543
I1
sVdnhc7pa
p1544
I1
sVdskn9ir
p1545
I1
sVdadp1pa
p1546
I1
sVdgfet28
p1547
I1
sVd5c4c9c
p1548
I1
sVczm8sek
p1549
I1
sVdbeuqvy
p1550
I1
sVdatz3n7
p1551
I2
sVd3esgc2
p1552
I1
sVczn1goj
p1553
I1
sVd3rofw6
p1554
I2
sVdg2digj
p1555
I1
sVd6ivi9r
p1556
I1
sVd66tesc
p1557
I1
sVdep3bkg
p1558
I1
sVd2ei9ns
p1559
I2
sVdnfu6n5
p1560
I1
sVdc5vx0w
p1561
I1
sVdmq1wxi
p1562
I2
sVdevu7vm
p1563
I1
sVd7ttvff
p1564
I1
sVdt9zxwg
p1565
I1
sVdb7vvuv
p1566
I1
sVd2puf0t
p1567
I2
sVd5wyjh0
p1568
I2
sVdj44uh0
p1569
I1
sVcyllbk9
p1570
I1
sVdfzwam0
p1571
I1
sVd0b2024
p1572
I1
sVd7fybah
p1573
I1
sVd2ucamr
p1574
I1
sVd21jjt5
p1575
I1
sVdgm3bqe
p1576
I1
sVd3dpr29
p1577
I1
sVdrq7nez
p1578
I1
sVdaqbu8g
p1579
I1
sVdmxnykd
p1580
I1
sVczzmtgs
p1581
I1
sVdqjhcxs
p1582
I1
sVd12mt9q
p1583
I1
sVd1naa7d
p1584
I1
sVdn304rr
p1585
I1
sVdg6axbh
p1586
I2
sVdhle5ba
p1587
I1
sVd178wm3
p1588
I1
sVdjb3zk6
p1589
I1
sVd0lmte3
p1590
I1
sVdms4m88
p1591
I1
sVd61mqt2
p1592
I1
sVdhdgukl
p1593
I1
sVdhdj1vq
p1594
I1
sVd025j0w
p1595
I1
sVd2ose0f
p1596
I1
sVdjtq5y9
p1597
I1
sVd6j7zfh
p1598
I1
sVd4xr7o3
p1599
I1
sVdfwx7w3
p1600
I1
sVdh46zen
p1601
I1
sVdbnf2rb
p1602
I1
sVdn7wz0y
p1603
I1
sVdef4me3
p1604
I1
sVd1k7477
p1605
I1
sVd8v1dvs
p1606
I1
sVdcbfvwe
p1607
I2
sVd3870ab
p1608
I1
sVdmxvhz4
p1609
I1
sVd1ksnnm
p1610
I1
sVdk877v6
p1611
I1
sVd0jre2q
p1612
I1
sVdis61bw
p1613
I1
sVdgnrjpy
p1614
I1
sVdc054f4
p1615
I1
sVd8h3tw7
p1616
I1
sVdcmei1x
p1617
I1
sVdr30rk7
p1618
I1
sVdh3rhrq
p1619
I1
sVd2bi3o3
p1620
I1
sVddygm2c
p1621
I1
sVd7cpw9j
p1622
I1
sVd01b1cp
p1623
I1
sVd5d2ako
p1624
I1
sVd7alccb
p1625
I1
sVdg94hb8
p1626
I1
sVd4apjso
p1627
I1
sVdpxpy6n
p1628
I1
sVd0zfdgw
p1629
I1
sVddxg6qg
p1630
I1
sVd6i470i
p1631
I1
sVdrjuhap
p1632
I2
sVdc2law3
p1633
I1
sVdn8ooib
p1634
I4
sVdoron14
p1635
I1
sVd3abvq7
p1636
I1
sVdd5eo7w
p1637
I1
sVdfjig3l
p1638
I1
sVd4l191w
p1639
I1
sVd98lquq
p1640
I1
sVdhfjfjc
p1641
I2
sVd7jcwju
p1642
I1
sVdeh25rt
p1643
I1
sVd4xy0jj
p1644
I1
sVdkjzg2o
p1645
I1
sVddz0gnj
p1646
I1
sVd8upiko
p1647
I1
sVcyj9skh
p1648
I2
sVdg1asnt
p1649
I1
sVdia4nwz
p1650
I1
sVdc8xnz9
p1651
I1
sVd0n26gd
p1652
I1
sVd1qg74b
p1653
I1
sVdc0arbw
p1654
I1
sVdoo5aaw
p1655
I1
sVdplstb7
p1656
I1
sVd194k3o
p1657
I1
sVdhjf7tt
p1658
I2
sVczmcgxh
p1659
I1
sVd7h5yi7
p1660
I1
sVdcbf0hp
p1661
I1
sVd8jljfg
p1662
I1
sVdbublmn
p1663
I1
sVdn2ru7a
p1664
I1
sVdbsx8g2
p1665
I1
sVdk4tod3
p1666
I1
sVdt8lseb
p1667
I1
sVdik508a
p1668
I1
sVd7to9y1
p1669
I1
sVd0yl0op
p1670
I1
sVd9cgxsp
p1671
I1
sVd1kgqqp
p1672
I1
sVcztkntv
p1673
I1
sVcyxtie4
p1674
I1
sVd9mcg5m
p1675
I1
sVd1oqsmi
p1676
I1
sVdbdg5oi
p1677
I1
sVd6w815i
p1678
I1
sVd00qu9q
p1679
I1
sVdjmfe0r
p1680
I1
sVdd6xt0w
p1681
I1
sVd8e2w9s
p1682
I1
sVdseudaw
p1683
I1
sVd6nd5sz
p1684
I1
sVdkica55
p1685
I1
sVd9enkor
p1686
I1
sVd0atmpg
p1687
I1
sVcz9ydx8
p1688
I1
sVcyqkn5i
p1689
I1
sVdd0w3bj
p1690
I1
sVd36ee24
p1691
I1
sVdb3myjj
p1692
I1
sVd152ol2
p1693
I1
sVd001kfa
p1694
I1
sVd33kxp5
p1695
I1
sVd7t4sft
p1696
I1
sVd5bsl6m
p1697
I1
sVd0129ci
p1698
I1
sVdbk6pn5
p1699
I1
sVdhtrclk
p1700
I1
sVdkjmf7y
p1701
I1
sVdkplz6o
p1702
I2
sVd4am4zi
p1703
I1
sVdkb4ry8
p1704
I1
sVd2mmvdd
p1705
I1
sVdklxvli
p1706
I1
sVd1k2t3k
p1707
I1
sVdeoohgk
p1708
I1
sVdpa2rkj
p1709
I1
sVd5c97hi
p1710
I1
sVd4gugo2
p1711
I1
sVd39w8xz
p1712
I1
sVdetuimx
p1713
I1
sVdejnyqn
p1714
I1
sVdewrbhk
p1715
I1
sVd1kb458
p1716
I1
sVcznbyas
p1717
I1
sVdaybz34
p1718
I3
sVdcu9y6z
p1719
I1
sVd0nr0ly
p1720
I2
sVd9nbh7u
p1721
I1
sVdbzcz4t
p1722
I1
sVdijhtna
p1723
I2
sVd38ezai
p1724
I1
sVd086bjo
p1725
I1
sVdf4mz76
p1726
I1
sVd885mt9
p1727
I1
sVdetx12m
p1728
I1
sVdn86y3e
p1729
I1
sVd1v564p
p1730
I1
sVdg8x6l6
p1731
I1
sVd2w9c6c
p1732
I1
sVdmen3ge
p1733
I2
sVd035o3h
p1734
I2
sVditkreb
p1735
I1
sVdd5j28e
p1736
I1
sVdnfk83v
p1737
I1
sVd28g6wd
p1738
I1
sVd3k8qig
p1739
I2
sVd5awn7b
p1740
I1
sVd0yjnin
p1741
I1
sVdg5bliq
p1742
I1
sVdrsqgro
p1743
I1
sVdi4tc7z
p1744
I1
sVd0emkv8
p1745
I1
sVddgk3yr
p1746
I2
sVdix55c7
p1747
I1
sVdiwvmyf
p1748
I1
sVdkrk6xz
p1749
I1
sVdbmhz0y
p1750
I1
sVd6vt13o
p1751
I1
sVd3a5oui
p1752
I2
sVdidi2q4
p1753
I1
sVda7ul1z
p1754
I1
sVdjfo62z
p1755
I1
sVd7c1n0g
p1756
I1
sVd1ks99t
p1757
I1
sVdb2vsmn
p1758
I1
sVdtiu504
p1759
I1
sVdjdh2f4
p1760
I1
sVdn3erv6
p1761
I1
sVdn4ackt
p1762
I1
sVdnc6k2h
p1763
I1
sVdklx21x
p1764
I1
sVd7iagei
p1765
I1
sVdazrkiv
p1766
I1
sVdafqcf3
p1767
I1
sVdcu4zsh
p1768
I1
sVdbmdkib
p1769
I1
sVd6ltywn
p1770
I1
sVd8s4kza
p1771
I1
sVd09h1nb
p1772
I1
sVdb44iw0
p1773
I2
sVddt18se
p1774
I1
sVdhztxq2
p1775
I1
sVdazr8vk
p1776
I1
sVczvh9g0
p1777
I1
sVdhe3so4
p1778
I1
sVdbncn1p
p1779
I1
sVd626l9n
p1780
I1
sVd84x2of
p1781
I1
sVdbgteip
p1782
I1
sVd5ihkgh
p1783
I1
sVdn2kmp5
p1784
I1
sVd69hh90
p1785
I1
sVdk5xz76
p1786
I1
sVde8yuvz
p1787
I1
sVd6qnp2d
p1788
I1
sVd258jyl
p1789
I1
sVcyz9y7b
p1790
I2
sVdp8pdsb
p1791
I1
sVd22i9wb
p1792
I1
sVdjpj3gu
p1793
I1
sVdi5bdk6
p1794
I3
sVdei7gbi
p1795
I1
sVdk4vm4d
p1796
I1
sVdjejc50
p1797
I1
sVdk6d4b2
p1798
I1
sVczx2mem
p1799
I1
sVdgj9j9k
p1800
I1
sVd3k96rf
p1801
I1
sVd9vupmy
p1802
I1
sVdd7z7kh
p1803
I1
sVddf8p9m
p1804
I1
sVd9ugfai
p1805
I1
sVd2rpgg4
p1806
I1
sVd6kfmap
p1807
I1
sVd376s6a
p1808
I2
sVdfoy82a
p1809
I2
sVd9mtud9
p1810
I1
sVd17e2br
p1811
I1
sVddhllw1
p1812
I1
sVdormyfy
p1813
I1
sVdpw9so8
p1814
I1
sVdaesjd9
p1815
I1
sVczhf9wx
p1816
I2
sVdb59jfx
p1817
I1
sVdrs5jah
p1818
I1
sVd1fn42o
p1819
I1
sVdit1u6f
p1820
I1
sVd5cjwfv
p1821
I1
sVdnm0hhw
p1822
I1
sVd5eivqg
p1823
I1
sVdbjo6yw
p1824
I1
sVdst65ak
p1825
I1
sVddmscjp
p1826
I1
sVdhoe880
p1827
I1
sVd1m3s4a
p1828
I2
sVd96xzu0
p1829
I2
sVd0b13rw
p1830
I1
sVcyn1ba6
p1831
I1
sVdanil7u
p1832
I1
sVd98q4dy
p1833
I2
sVdaq4ru7
p1834
I3
sVdga9ulg
p1835
I1
sVdgt54se
p1836
I1
sVdnro3nd
p1837
I1
sVd05lzsr
p1838
I1
sVd4n2sp2
p1839
I1
sVd43ywmw
p1840
I1
sVd33uggm
p1841
I1
sVdbrl1r4
p1842
I1
sVd9ziray
p1843
I1
sVd0kp9z9
p1844
I1
sVdb0n1vj
p1845
I1
sVdd6xarg
p1846
I1
sVddrib7g
p1847
I1
sVd73mutw
p1848
I1
sVdflh4b6
p1849
I1
sVd8cuhaa
p1850
I1
sVdgw5ozl
p1851
I1
sVczdwudz
p1852
I1
sVdfgsstg
p1853
I1
sVdikekaf
p1854
I1
sVdgf0czh
p1855
I1
sVdfl4nmm
p1856
I1
sVd914toi
p1857
I2
sVd4shy0p
p1858
I1
sVdf0c5x6
p1859
I1
sVdkr0cn1
p1860
I1
sVdgqq7z9
p1861
I1
sVd7iajig
p1862
I1
sVd22x9zf
p1863
I1
sVdfb815u
p1864
I1
sVd1q9haq
p1865
I2
sVdg4ogle
p1866
I1
sVd2swvpp
p1867
I1
sVd0z3z99
p1868
I1
sVdgppfw9
p1869
I1
sVdkwhzlh
p1870
I1
sVdmrauwq
p1871
I1
sVdj7uni3
p1872
I1
sVdcmnmp9
p1873
I1
sVdckrvnw
p1874
I1
sVd4uf4xu
p1875
I1
sVd2ynrm6
p1876
I2
sVdgh89i0
p1877
I1
sVd1o3p8i
p1878
I1
sVdnu8ulf
p1879
I2
sVdbxavfy
p1880
I1
sVdmpc4kl
p1881
I2
sVd5x2v67
p1882
I1
sVdg1qsux
p1883
I1
sVdnroccm
p1884
I1
sVd9ka09m
p1885
I1
sVd6teaa3
p1886
I1
sVdbgtc2k
p1887
I1
sVdmzvfdx
p1888
I1
sVdgzhaft
p1889
I1
sVd2tjymj
p1890
I2
sVd1s8ix3
p1891
I1
sVdisccvh
p1892
I1
sVd30zgij
p1893
I1
sVd80c2qz
p1894
I1
sVdj4ak4k
p1895
I2
sVdfnw9b9
p1896
I1
sVdr8ox0p
p1897
I1
sVd7nzeev
p1898
I1
sVd4rwv7w
p1899
I1
sVd1v5ugp
p1900
I1
sVdcc3pkz
p1901
I1
sVdid98gt
p1902
I1
sVd31s7kh
p1903
I1
sVd6u4ym5
p1904
I1
sVdecgbi5
p1905
I1
sVd9whnkt
p1906
I1
sVdhs52n6
p1907
I1
sVdaxardg
p1908
I1
sVdgo1s61
p1909
I1
sVdilur5s
p1910
I1
sVd9fot58
p1911
I1
sVdam3j9q
p1912
I2
sVd61v4sl
p1913
I1
sVd72w7qt
p1914
I1
sVdgw08r8
p1915
I1
sVczdw8vc
p1916
I1
sVdnfytav
p1917
I1
sVczif4h9
p1918
I1
sVd1vwh5x
p1919
I2
sVdfic87t
p1920
I1
sVczws0l9
p1921
I2
sVd2fbfzo
p1922
I1
sVd03ar0b
p1923
I1
sVdjtvu0z
p1924
I1
sVdicxe1o
p1925
I1
sVd4iyyls
p1926
I1
sVd1ztkzr
p1927
I1
sVdknqcp9
p1928
I1
sVdgxv1y1
p1929
I1
sVd1dxeag
p1930
I1
sVdio6v2w
p1931
I1
sVd4fp056
p1932
I1
sVdd8h882
p1933
I1
sVdbiiuru
p1934
I1
sVdjedm7r
p1935
I1
sVddcn56n
p1936
I1
sVdidzlk5
p1937
I1
sVdjuz80k
p1938
I1
sVdc4lij5
p1939
I1
sVd5j0z6s
p1940
I1
sVdbhbkde
p1941
I1
sVdoa5cep
p1942
I1
sVdfisjmu
p1943
I1
sVdhcxv6p
p1944
I1
sVd3bkkvr
p1945
I2
sVdo94a7b
p1946
I1
sVdhguxd0
p1947
I1
sVdjxxfev
p1948
I1
sVdnjopau
p1949
I1
sVdnlfl04
p1950
I1
sVd3gr21g
p1951
I1
sVdgcgqhv
p1952
I1
sVdezwiwo
p1953
I1
sVd8uaiy9
p1954
I1
sVd7kihvx
p1955
I1
sVdgmcin4
p1956
I1
sVdkiiorw
p1957
I3
sVdgf6wq9
p1958
I2
sVd67igna
p1959
I1
sVdgoq11v
p1960
I1
sVdi18r4z
p1961
I1
sVd1tzzuu
p1962
I1
sVdboy4mk
p1963
I1
sVd0esi3p
p1964
I1
sVcyyps6w
p1965
I1
sVdg7qdge
p1966
I2
sVd1n56ca
p1967
I1
sVd1a8kb4
p1968
I1
sVczehg45
p1969
I1
sVdiugr0o
p1970
I1
sVdggv66u
p1971
I1
sVd1wyzcv
p1972
I1
sVdovxjki
p1973
I1
sVdq6ugyf
p1974
I1
sVdgfa1w0
p1975
I1
sVdre4qk8
p1976
I1
sVdhggpiv
p1977
I1
sVd808cgk
p1978
I1
sVd5dwnnj
p1979
I1
sVdn22s5y
p1980
I1
sVdd2k41d
p1981
I1
sVczpkgr2
p1982
I1
sVd5nrugv
p1983
I1
sVdafw91k
p1984
I1
sVd5g040f
p1985
I1
sVdrb2tfd
p1986
I1
sVd4r6p3j
p1987
I1
sVczfxoky
p1988
I1
sVdaguu2c
p1989
I1
sVd730dfy
p1990
I1
sVdj7qx72
p1991
I1
sVd1xwcs2
p1992
I1
sVdpfi1p6
p1993
I1
sVcyyzxj8
p1994
I1
sVddse65y
p1995
I1
sVd57t5vl
p1996
I1
sVd433dl1
p1997
I1
sVd2nj5mm
p1998
I1
sVcywfqha
p1999
I1
sVddbfruq
p2000
I3
sVd35it78
p2001
I1
sVdn566ck
p2002
I1
sVcyvtv5w
p2003
I1
sVdeq0qp9
p2004
I1
sVdcdnyec
p2005
I1
sVcz4vuf8
p2006
I1
sVd0m6t3m
p2007
I1
sVdswwu1p
p2008
I1
sVd5ocpdy
p2009
I1
sVdsmpios
p2010
I1
sVd5tbpjj
p2011
I1
sVd1x34sg
p2012
I1
sVd84hu1p
p2013
I1
sVdd888ri
p2014
I1
sVdjoqeok
p2015
I1
sVdcekrls
p2016
I1
sVdi9rqfv
p2017
I1
sVdbuwnsz
p2018
I1
sVd3mvreh
p2019
I1
sVd9a8mid
p2020
I1
sVdkesmr7
p2021
I1
sVdbgzlr1
p2022
I1
sVd7zaqrd
p2023
I1
sVd6eqp4y
p2024
I1
sVdmppfub
p2025
I1
sVd1evf7l
p2026
I1
sVdc74i1n
p2027
I1
sVd9lq23i
p2028
I1
sVd4embjq
p2029
I1
sVdinq98v
p2030
I2
sVd8lsgc3
p2031
I1
sVds3mk3n
p2032
I1
sVdng0txy
p2033
I1
sVczqdpo8
p2034
I1
sVd2kf05u
p2035
I1
sVcynvycd
p2036
I2
sVd3fgxup
p2037
I1
sVd3fdn7l
p2038
I2
sVd2u4yai
p2039
I3
sVd0n7o21
p2040
I1
sVd8a82bw
p2041
I1
sVd0ymli5
p2042
I1
sVdgwpqox
p2043
I1
sVdk0rpqo
p2044
I1
sVd2isuga
p2045
I1
sVdfdfjyf
p2046
I1
sVdif6tzh
p2047
I1
sVdn5fa41
p2048
I1
sVde72js8
p2049
I1
sVd8x4spe
p2050
I1
sVczn9oui
p2051
I1
sVd5qp6sa
p2052
I1
sVdbyqp3p
p2053
I2
sVd8wzo5h
p2054
I1
sVd4o7iuh
p2055
I1
sVds3ltfo
p2056
I1
sVd8jb2zi
p2057
I1
sVd04xw6m
p2058
I1
sVd4psa8s
p2059
I1
sVdt0essd
p2060
I2
sVdr3b18h
p2061
I1
sVd6epalx
p2062
I1
sVd4gestl
p2063
I2
sVdk1j28a
p2064
I1
sVd91w3ha
p2065
I1
sVdoiepqy
p2066
I1
sVdc7t186
p2067
I2
sVd1g8j8r
p2068
I1
sVdiuaevn
p2069
I1
sVd9s63db
p2070
I1
sVd1em14s
p2071
I1
sVd7fijt4
p2072
I1
sVd10n0yc
p2073
I1
sVd7w3z4j
p2074
I1
sVd9pu6do
p2075
I1
sVdb884nl
p2076
I1
sVdnebamz
p2077
I1
sVdelagot
p2078
I1
sVdhsfb6v
p2079
I1
sVdkirhoy
p2080
I1
sVdmp0754
p2081
I1
sVdcm6gll
p2082
I1
sVdet75ws
p2083
I1
sVczcfkip
p2084
I1
sVdj9zk8i
p2085
I1
sVd6zodfy
p2086
I1
sVd1d98m8
p2087
I1
sVdpseuov
p2088
I1
sVdk28xbo
p2089
I1
sVd7h8ncb
p2090
I1
sVd0friil
p2091
I1
sVd48ob4s
p2092
I1
sVd91i6hd
p2093
I2
sVdnj9w1o
p2094
I1
sVd1m8rt4
p2095
I1
sVdr1440t
p2096
I1
sVddl7wes
p2097
I3
sVdhqa5yw
p2098
I1
sVdetydpj
p2099
I1
sVdqnnx9x
p2100
I1
sVcyzm5hr
p2101
I1
sVczevsun
p2102
I1
sVdi6fvlc
p2103
I1
sVd32m62p
p2104
I1
sVd5xjalw
p2105
I1
sVddgk1w2
p2106
I1
sVd9vtou6
p2107
I1
sVd7i1ciu
p2108
I1
sVd5aw24l
p2109
I1
sVddn29qq
p2110
I1
sVdbsm48p
p2111
I1
sVdsa1np4
p2112
I1
sVd2mxaqs
p2113
I1
sVcyi01xy
p2114
I1
sVd9fty4x
p2115
I1
sVd4mrbwf
p2116
I1
sVd9xvjuo
p2117
I1
sVd50g7xo
p2118
I1
sVdngzk4d
p2119
I1
sVdp25tx7
p2120
I1
sVddlsljy
p2121
I1
sVdpc20xn
p2122
I1
sVd2l8t6e
p2123
I1
sVd8wuufw
p2124
I1
sVdfm5bhd
p2125
I1
sVdbb9avz
p2126
I1
sVdb8wbu5
p2127
I1
sVd1chzmh
p2128
I1
sVdhou4y8
p2129
I1
sVdemmu1r
p2130
I1
sVd6gbswl
p2131
I1
sVd02n3up
p2132
I1
sVd1iw2ub
p2133
I1
sVd6strkw
p2134
I1
sVd9xdsew
p2135
I1
sVdi7advf
p2136
I1
sVdqeq06u
p2137
I1
sVdamo2qw
p2138
I2
sVd6hh1m0
p2139
I3
sVd1k75gw
p2140
I1
sVd68kira
p2141
I1
sVd6aigv5
p2142
I1
sVdadgny7
p2143
I1
sVczsuwi7
p2144
I1
sVdtfyt8i
p2145
I1
sVds717ub
p2146
I1
sVd64t4zl
p2147
I1
sVd647mn7
p2148
I2
sVd1hzm9o
p2149
I1
sVd4499c2
p2150
I2
sVd21w7go
p2151
I1
sVd0rkhpo
p2152
I1
sVd622pbb
p2153
I1
sVdflaj4c
p2154
I1
sVdc25lx8
p2155
I3
sVdbtoek6
p2156
I1
sVd8y02jd
p2157
I1
sVdhpkyjm
p2158
I1
sVd29swor
p2159
I1
sVdimcqam
p2160
I2
sVdacru2l
p2161
I1
sVd50he2z
p2162
I1
sVcyo9a38
p2163
I1
sVdc2k443
p2164
I1
sVdh0xfqe
p2165
I1
sVd49sicf
p2166
I1
sVd09e57g
p2167
I1
sVdi6pbpq
p2168
I1
sVd2cv72a
p2169
I1
sVdgzkuq3
p2170
I1
sVdcefvh6
p2171
I1
sVd7u7a7k
p2172
I1
sVdnbdx3c
p2173
I1
sVd2z2cnk
p2174
I1
sVcysj854
p2175
I1
sVd120ai6
p2176
I2
sVdhltifk
p2177
I1
sVcz7q5d7
p2178
I1
sVd0nmou8
p2179
I1
sVdmtvbj1
p2180
I1
sVdc9qxm9
p2181
I1
sVdif8e4c
p2182
I1
sVdh5wasv
p2183
I2
sVddb3fyp
p2184
I1
sVcz28bcv
p2185
I2
sVd0i7wbi
p2186
I1
sVdiocb9e
p2187
I1
sVdepsv80
p2188
I1
sVd15djcr
p2189
I1
sVder6ls2
p2190
I1
sVdkwrv81
p2191
I1
sVdg9v6ur
p2192
I1
sVd8p0j9z
p2193
I1
sVdhf4p6b
p2194
I1
sVd572bno
p2195
I1
sVd0j6xmx
p2196
I1
sVday6m0s
p2197
I1
sVd0x8bz7
p2198
I1
sVd9o99h4
p2199
I1
sVdid56lj
p2200
I1
sVdotsvh5
p2201
I1
sVd1jt0mt
p2202
I1
sVd6mhg01
p2203
I2
sVddk05j4
p2204
I1
sVd0yhn2q
p2205
I2
sVd4sk2ci
p2206
I1
sVdc6mez0
p2207
I1
sVdo7l8po
p2208
I1
sVdbpaolg
p2209
I1
sVdt3bsbk
p2210
I1
sVdc2ignm
p2211
I1
sVdi5kk5t
p2212
I1
sVd1a6gzz
p2213
I1
sVdpzlmel
p2214
I1
sVdilzk9l
p2215
I1
sVdds4v6w
p2216
I1
sVcz3veob
p2217
I1
sVd0475ns
p2218
I1
sVd4rk1t5
p2219
I1
sVd6pn9jz
p2220
I1
sVdajhk1z
p2221
I1
sVdsf01l0
p2222
I2
sVd0ipx9c
p2223
I1
sVddn0ql3
p2224
I1
sVd4jvkkr
p2225
I1
sVdo0pmuw
p2226
I1
sVdji43tb
p2227
I1
sVds28f8o
p2228
I1
sVdcrlifu
p2229
I1
sVdebkms0
p2230
I1
sVdpbb8f0
p2231
I1
sVd5gr3ta
p2232
I1
sVd562thx
p2233
I1
sVd3k59lw
p2234
I1
sVdoymxjk
p2235
I1
sVdqw2u7l
p2236
I1
sVd2kx5sw
p2237
I2
sVdfyjkby
p2238
I1
sVd584yyq
p2239
I1
sVd7h4mv1
p2240
I2
sVd4vaiz8
p2241
I1
sVczzw3ab
p2242
I2
sVdoavlf9
p2243
I1
sVdi2i1zg
p2244
I1
sVdohcm00
p2245
I1
sVdeq06se
p2246
I1
sVd3462le
p2247
I1
sVdeq1o2x
p2248
I1
sVd0z4j3j
p2249
I1
sVdeto9gh
p2250
I1
sVdn8heoh
p2251
I1
sVd83w60a
p2252
I1
sVd44yv2k
p2253
I1
sVde9wrn1
p2254
I1
sVd0w7rrj
p2255
I1
sVcyjzpop
p2256
I1
sVdgekfcq
p2257
I1
sVdgo6reo
p2258
I1
sVdchtah5
p2259
I1
sVd95nwt8
p2260
I1
sVd33kj4t
p2261
I1
sVdh5ui1y
p2262
I1
sVdc3c3s1
p2263
I1
sVdfyhlmj
p2264
I1
sVdks527o
p2265
I1
sVd2hfdbm
p2266
I1
sVdbnqjl5
p2267
I1
sVdbh5qic
p2268
I1
sVdff2d0t
p2269
I1
sVdmspvt9
p2270
I1
sVd0k1936
p2271
I1
sVdqfh7ry
p2272
I1
sVdbezu0b
p2273
I1
sVd6mp6wf
p2274
I1
sVdd4xseu
p2275
I1
sVdoafrgy
p2276
I1
sVdbaszmy
p2277
I1
sVdhlkqor
p2278
I1
sVcyx7gin
p2279
I1
sVczz95ky
p2280
I1
sVdjmi6g1
p2281
I1
sVdh0ufgo
p2282
I1
sVdmou3e9
p2283
I1
sVd0dw81v
p2284
I1
sVd38ev2l
p2285
I1
sVdrbkib6
p2286
I1
sVd902lai
p2287
I1
sVd8gcir5
p2288
I1
sVdcnah19
p2289
I1
sVd5v04c9
p2290
I1
sVdbk09cq
p2291
I1
sVdjfplhw
p2292
I2
sVd7bh2s6
p2293
I1
sVcyptzcv
p2294
I1
sVd08scrc
p2295
I1
sVd3afgpx
p2296
I1
sVdps1xu4
p2297
I1
sVd4uf56b
p2298
I1
sVcyrj7oo
p2299
I1
sVdaw4yd8
p2300
I1
sVd8urp98
p2301
I1
sVdeb7fgl
p2302
I2
sVcyposws
p2303
I1
sVd9alova
p2304
I3
sVd9ppqgn
p2305
I1
sVdok557i
p2306
I1
sVdjv3bh7
p2307
I1
sVdjn4ooc
p2308
I1
sVdctacr6
p2309
I1
sVddiltrc
p2310
I1
sVdgxi5u3
p2311
I1
sVdsza1hz
p2312
I1
sVdnjwe7u
p2313
I1
sVdavnotv
p2314
I1
sVdbefml8
p2315
I1
sVdj1zltv
p2316
I1
sVd28gsa9
p2317
I1
sVd2iqfo6
p2318
I1
sVdh76cxf
p2319
I1
sVdf9t97d
p2320
I1
sVd2uaykg
p2321
I1
sVcz3mfys
p2322
I1
sVd0pnyd5
p2323
I1
sVd5sj237
p2324
I1
sVdb15pbd
p2325
I1
sVdc3an9h
p2326
I1
sVdcxknze
p2327
I1
sVdaml8ct
p2328
I1
sVcz6xall
p2329
I1
sVdocbbnt
p2330
I1
sVddhs1vs
p2331
I1
sVdeucms9
p2332
I1
sVczmgar0
p2333
I1
sVdi7v1rp
p2334
I3
sVdcycgap
p2335
I1
sVd6n355i
p2336
I1
sVd54lhcq
p2337
I3
sVd61upc2
p2338
I1
sVdduhuv5
p2339
I1
sVcym94r5
p2340
I1
sVd1i3caw
p2341
I1
sVd784pb7
p2342
I1
sVdeufd72
p2343
I1
sVdare9vt
p2344
I1
sVdq6t3g0
p2345
I1
sVcz446w3
p2346
I1
sVdd2hjoy
p2347
I1
sVdrt9xbx
p2348
I1
sVdc5q32i
p2349
I1
sVd2u78e0
p2350
I1
sVdtg42x3
p2351
I1
sVdnw63s6
p2352
I1
sVde0jyx1
p2353
I1
sVczrqmiw
p2354
I1
sVdjngp34
p2355
I2
sVdigg44e
p2356
I1
sVdf2gadb
p2357
I1
sVdeuot7f
p2358
I1
sVdrkjabd
p2359
I1
sVda1dme4
p2360
I1
sVdbkbyju
p2361
I1
sVdbd08i9
p2362
I1
sVddwhhdt
p2363
I2
sVczn9ct1
p2364
I1
sVdd3fauz
p2365
I1
sVd0sj91w
p2366
I1
sVdsfn7vw
p2367
I1
sVd201lv1
p2368
I2
sVd3u0a56
p2369
I1
sVd9zli5i
p2370
I1
sVd2snfyb
p2371
I1
sVczi2asa
p2372
I1
sVdblgbw2
p2373
I1
sVd97nspy
p2374
I1
sVdfghihf
p2375
I2
sVdnilt3g
p2376
I1
sVd3auoom
p2377
I1
sVdc23vyd
p2378
I1
sVczf5u5t
p2379
I1
sVd2a3wyp
p2380
I1
sVdjc8p2e
p2381
I1
sVd2sotqp
p2382
I1
sVd6k3l9d
p2383
I1
sVdri75hi
p2384
I1
sVdhbnyr4
p2385
I1
sVd1vuj4v
p2386
I1
sVdej3d45
p2387
I1
sVdiiojy6
p2388
I1
sVd0952yd
p2389
I1
sVdkk9j2m
p2390
I1
sVdgpvalj
p2391
I1
sVd7daymp
p2392
I1
sVda3olv8
p2393
I3
sVdkgaf0j
p2394
I1
sVd0stnt8
p2395
I1
sVd6i4bxq
p2396
I1
sVdomxqyq
p2397
I1
sVdg3br0d
p2398
I1
sVdi3kzuu
p2399
I1
sVd3bwbmx
p2400
I1
sVcyhv2uw
p2401
I1
sVdai0r11
p2402
I1
sVcyjutsl
p2403
I1
sVd3kg8ch
p2404
I1
sVd4lg88h
p2405
I1
sVd1j86a6
p2406
I1
sVd6ce9w0
p2407
I1
sVddh9epr
p2408
I1
sVddogeyx
p2409
I1
sVdcj2w05
p2410
I1
sVde7vntk
p2411
I1
sVda6sqr7
p2412
I1
sVd4wty3m
p2413
I2
sVdk4bunu
p2414
I1
sVdmugn1f
p2415
I2
sVd9tvsm2
p2416
I1
sVde0yk06
p2417
I1
sVdb07k02
p2418
I1
sVd1int3f
p2419
I1
sVd2kokzb
p2420
I1
sVdickonw
p2421
I1
sVdegb4e8
p2422
I1
sVcz1doaz
p2423
I1
sVdgx3zhr
p2424
I1
sVdaniazd
p2425
I2
sVd2te6ft
p2426
I3
sVdqkdgk7
p2427
I1
sVd91ypbm
p2428
I2
sVdfjvbxa
p2429
I1
sVd48dpx0
p2430
I1
sVd3coubt
p2431
I1
sVd0fesjp
p2432
I1
sVd96w407
p2433
I1
sVczyc50y
p2434
I1
sVde5s6vr
p2435
I1
sVdd50f3m
p2436
I1
sVd3ociwo
p2437
I1
sVd0myj0w
p2438
I1
sVda23bj5
p2439
I2
sVdcn71o3
p2440
I1
sVdbonh9l
p2441
I1
sVdsdsyc3
p2442
I1
sVdsxuxzj
p2443
I1
sVd2xu4y7
p2444
I1
sVczdshx0
p2445
I1
sVd472589
p2446
I1
sVd9dmvk1
p2447
I1
sVdmsu0p8
p2448
I1
sVd7nbbcg
p2449
I1
sVda8mhlt
p2450
I1
sVd00bf4u
p2451
I1
sVd1wrxgd
p2452
I1
sVdcu84y0
p2453
I1
sVdjktng4
p2454
I1
sVd1q2kis
p2455
I2
sVd0er7qm
p2456
I1
sVdd4d8na
p2457
I1
sVd03ovd4
p2458
I1
sVdout3le
p2459
I1
sVde2q35q
p2460
I2
sVd8uq0oi
p2461
I1
sVd61utv2
p2462
I1
sVdfymk23
p2463
I1
sVdgwig54
p2464
I1
sVd5yj5v0
p2465
I1
sVddg2t8t
p2466
I1
sVdbag1o8
p2467
I1
sVdiweik9
p2468
I1
sVddcex1q
p2469
I1
sVd2ze07l
p2470
I2
sVczt5v0a
p2471
I1
sVdh9i7aj
p2472
I1
sVdd4i2q1
p2473
I1
sVdot7l7o
p2474
I1
sVd6ww0xz
p2475
I1
sVdj70gka
p2476
I1
sVdaqra4v
p2477
I1
sVd6bwosq
p2478
I1
sVdf1t2qo
p2479
I1
sVdmzukbx
p2480
I1
sVd39q8rp
p2481
I1
sVd4ydsk0
p2482
I1
sVd4bsax7
p2483
I1
sVd8sxadm
p2484
I1
sVd9z55p6
p2485
I1
sVdjgrlnl
p2486
I1
sVdk8tn1w
p2487
I1
sVd9r5t9d
p2488
I1
sVczpxxqa
p2489
I1
sVdfmhuup
p2490
I3
sVd448pzv
p2491
I1
sVdfwh1aj
p2492
I1
sVdmklfcg
p2493
I1
sVdqudd92
p2494
I1
sVcz1kjm1
p2495
I1
sVd89gg25
p2496
I1
sVdko0fb4
p2497
I1
sVdsgqigw
p2498
I1
sVdrza478
p2499
I1
sVdh4r31a
p2500
I1
sVdaxwasv
p2501
I2
sVd0latyd
p2502
I1
sVd3ib7io
p2503
I2
sVdb2weqj
p2504
I1
sVczli133
p2505
I1
sVdk4u7mf
p2506
I1
sVd32zy6m
p2507
I1
sVdag2yhy
p2508
I1
sVdgtuicl
p2509
I1
sVdmrkpvd
p2510
I1
sVd1vcls9
p2511
I1
sVdatwqi1
p2512
I1
sVczdn5jw
p2513
I1
sVdpvzhkr
p2514
I1
sVdns6wmq
p2515
I1
sVczxswnx
p2516
I1
sVdegyp5g
p2517
I1
sVd9cnd3r
p2518
I1
sVdeswsok
p2519
I1
sVczzi1td
p2520
I1
sVdj3cjwk
p2521
I1
sVd1f3qqy
p2522
I1
sVdfn2lvk
p2523
I1
sVdfwyyx3
p2524
I1
sVdh28v6u
p2525
I1
sVd4q3ati
p2526
I1
sVd0x8yii
p2527
I1
sVd7zb413
p2528
I1
sVdbwaojm
p2529
I1
sVdhlpj2k
p2530
I1
sVd5315u9
p2531
I2
sVd59wvq8
p2532
I1
sVd4misqg
p2533
I1
sVdcx54mi
p2534
I1
sVdczjfid
p2535
I1
sVdffivcm
p2536
I1
sVcyp30yc
p2537
I1
sVdrnra0p
p2538
I3
sVd6hbx6h
p2539
I1
sVdgv4pqg
p2540
I1
sVdjndnda
p2541
I1
sVdelly0o
p2542
I1
sVdbkm709
p2543
I1
sVdan49sf
p2544
I1
sVdfa43df
p2545
I1
sVcyttz0b
p2546
I1
sVd1st72i
p2547
I1
sVd83lpdy
p2548
I1
sVd6ky1xa
p2549
I1
sVd7p0bj1
p2550
I3
sVdjjcgz3
p2551
I1
sVdgusck3
p2552
I1
sVcyw0qcb
p2553
I2
sVcyu725e
p2554
I1
sVdimfiuc
p2555
I1
sVdmkknss
p2556
I1
sVd7hsaut
p2557
I1
sVdcgtvpe
p2558
I1
sVdkrxz2t
p2559
I1
sVdj2kohe
p2560
I2
sVcyq4r66
p2561
I1
sVdflsc3i
p2562
I1
sVdctf0ls
p2563
I1
sVdgihbda
p2564
I1
sVdqukuo8
p2565
I1
sVcym55bc
p2566
I2
sVd8g5rqp
p2567
I1
sVd6ub6wp
p2568
I1
sVd0ipovt
p2569
I1
sVd6ekq8p
p2570
I1
sVddcmnj6
p2571
I1
sVddq2pos
p2572
I1
sVdbitpub
p2573
I1
sVd42mi0p
p2574
I1
sVd5d79dn
p2575
I1
sVddzvphs
p2576
I1
sVdd9w9jj
p2577
I1
sVdmlr0he
p2578
I1
sVd49wgqg
p2579
I1
sVdnjo20n
p2580
I1
sVd5wfhz4
p2581
I1
sVdmjj9to
p2582
I1
sVd0ny7n6
p2583
I1
sVdsjmdac
p2584
I1
sVdqpsyxp
p2585
I2
sVdep0qpb
p2586
I1
sVdnfewfs
p2587
I1
sVd4sb488
p2588
I1
sVd51v2ss
p2589
I1
sVdh7oajr
p2590
I1
sVdhsswfq
p2591
I2
sVdi0istj
p2592
I1
sVd9hyqzt
p2593
I1
sVd2qjyhw
p2594
I1
sVdfd8gu8
p2595
I1
sVdod4gad
p2596
I1
sVdel3klv
p2597
I1
sVddo6nk8
p2598
I1
sVcyzeaol
p2599
I1
sVdh0rn4p
p2600
I1
sVd74bxln
p2601
I1
sVdg0rze2
p2602
I1
sVdrt9fch
p2603
I1
sVdd5o88n
p2604
I1
sVdt9qaj9
p2605
I1
sVcz0bl2u
p2606
I1
sVdh1x38k
p2607
I1
sVdn2vjar
p2608
I2
sVdrchynl
p2609
I1
sVd4gftxa
p2610
I1
sVdn1pfi4
p2611
I2
sVdh3ubnp
p2612
I1
sVdbvn2lx
p2613
I1
sVdfngeid
p2614
I1
sVdfh1pl8
p2615
I1
sVd1lekxk
p2616
I2
sVcynp81r
p2617
I1
sVds1w7ca
p2618
I1
sVdfh77x9
p2619
I1
sVda9i1yg
p2620
I1
sVd26kjh5
p2621
I1
sVderd0uw
p2622
I1
sVd7n06iu
p2623
I3
sVd5362yv
p2624
I1
sVdfsh7zh
p2625
I2
sVdfoeuqo
p2626
I1
sVd0piyei
p2627
I1
sVd1ka0wt
p2628
I1
sVd4n0ck4
p2629
I1
sVddhveeo
p2630
I1
sVdd8ctd7
p2631
I2
sVdaayleg
p2632
I1
sVd0tjaip
p2633
I1
sVd2udfi1
p2634
I1
sVczkm1pz
p2635
I3
sVdcuw81r
p2636
I1
sVdnvbprf
p2637
I1
sVd1ihr0a
p2638
I1
sVcynfluc
p2639
I1
sVd6sxql9
p2640
I1
sVdghqzn8
p2641
I1
sVdc4cmmh
p2642
I1
sVdr2nohe
p2643
I1
sVdb3p7ep
p2644
I1
sVde32wlc
p2645
I1
sVdj724t5
p2646
I1
sVd1311ow
p2647
I1
sVdo8yy9k
p2648
I1
sVdjoefnw
p2649
I1
sVda91m6z
p2650
I1
sVcyvpqud
p2651
I1
sVdrkspcw
p2652
I1
sVdn3x17h
p2653
I1
sVdedq35j
p2654
I1
sVd84m0un
p2655
I2
sVczaur4t
p2656
I1
sVdbhbv19
p2657
I1
sVd9kjik0
p2658
I2
sVd71q8q2
p2659
I1
sVd866zgh
p2660
I1
sVdb5wrv6
p2661
I1
sVcz9elav
p2662
I1
sVd2t0qko
p2663
I1
sVdbsjkzj
p2664
I1
sVcz5upc5
p2665
I1
sVdgwgfuo
p2666
I1
sVdhdqxzn
p2667
I1
sVczxdnq1
p2668
I1
sVdap1pa0
p2669
I1
sVdtjdwau
p2670
I1
sVdgljb7q
p2671
I1
sVdntjx3g
p2672
I1
sVd0zocxs
p2673
I1
sVdjny95k
p2674
I2
sVdaevmol
p2675
I2
sVd8odwhc
p2676
I1
sVd7echwq
p2677
I2
sVd1w9jb1
p2678
I1
sVdoq2iv9
p2679
I1
sVdmu4829
p2680
I1
sVd7llw64
p2681
I1
sVd7k8lnj
p2682
I2
sVdeua0n5
p2683
I1
sVd0lyfn3
p2684
I1
sVczats5o
p2685
I2
sVdhqq7e5
p2686
I1
sVdah83kf
p2687
I1
sVddc817t
p2688
I2
sVdo16dlk
p2689
I1
sVd0pmmmd
p2690
I1
sVdigdncw
p2691
I1
sVd3ubblg
p2692
I1
sVcyv8f20
p2693
I1
sVd1tplfe
p2694
I1
sVdr0hof8
p2695
I1
sVdn4akdw
p2696
I1
sVd5tggpx
p2697
I1
sVdf2gb9m
p2698
I1
sVd1aife2
p2699
I2
sVdb5nt5v
p2700
I1
sVdh7d53j
p2701
I1
sVd3c3b5q
p2702
I1
sVd2fudtk
p2703
I1
sVdk3xdty
p2704
I2
sVdpemuak
p2705
I1
sVcz5oq05
p2706
I2
sVd5y8phf
p2707
I1
sVdn5acgv
p2708
I1
sVdhq2n8n
p2709
I1
sVd8psa0o
p2710
I1
sVdrdxwqk
p2711
I1
sVd7rjgwp
p2712
I1
sVd0ouxyk
p2713
I2
sVdfvdwbj
p2714
I2
sVddcd9dk
p2715
I2
sVdgn0g0j
p2716
I1
sVdev06rv
p2717
I1
sVd0mtwr2
p2718
I1
sVdn3j6nl
p2719
I1
sVd0517u0
p2720
I1
sVd121ztm
p2721
I1
sVdniuquj
p2722
I1
sVd5qcjh3
p2723
I1
sVdbfco26
p2724
I1
sVd26lupb
p2725
I1
sVd0t7x0s
p2726
I1
sVdi55knc
p2727
I1
sVdhn8e44
p2728
I1
sVdqd0h0u
p2729
I2
sVdf6d27d
p2730
I1
sVdk9d9dg
p2731
I1
sVdgtle8m
p2732
I1
sVczr4lzs
p2733
I1
sVdco5bs1
p2734
I1
sVdef06h5
p2735
I1
sVczwcfka
p2736
I2
sVdhdeww7
p2737
I1
sVdh0nojj
p2738
I1
sVd9um0ee
p2739
I1
sVd5ph2uc
p2740
I1
sVdb96qs5
p2741
I1
sVdaa4tkm
p2742
I1
sVd5rj1m5
p2743
I1
sVcz0awhj
p2744
I1
sVcz35jwc
p2745
I1
sVdq6f4ez
p2746
I1
sVd9353gz
p2747
I1
sVdazn3kc
p2748
I2
sVdkb0g6r
p2749
I1
sVd0a6npz
p2750
I1
sVdewbpoh
p2751
I1
sVcyvkkcy
p2752
I1
sVd8n9rg3
p2753
I1
sVd76kict
p2754
I1
sVdqyyld3
p2755
I1
sVd17q236
p2756
I1
sVd7xw41a
p2757
I1
sVdh1qxwi
p2758
I1
sVd6uj6jp
p2759
I1
sVdesh2si
p2760
I1
sVd0kz324
p2761
I2
sVd1keeis
p2762
I1
sVd6jpo5s
p2763
I1
sVd2yrbvt
p2764
I1
sVdq4u0v6
p2765
I1
sVdbctvba
p2766
I1
sVdakuv6n
p2767
I1
sVcz0ncdt
p2768
I1
sVd8dohsc
p2769
I1
sVdj5p04a
p2770
I1
sVd49z7pq
p2771
I1
sVdgia9hj
p2772
I1
sVdjdsleb
p2773
I1
sVdes05nr
p2774
I1
sVdcjwo91
p2775
I1
sVdjohekv
p2776
I1
sVd8etjia
p2777
I1
sVdnh4u95
p2778
I1
sVdhy1zol
p2779
I1
sVczjtci1
p2780
I1
sVdq8xj63
p2781
I1
sVczvu8fy
p2782
I1
sVczr0rgv
p2783
I1
sVcz715pr
p2784
I1
sVd2gnicj
p2785
I1
sVde7t2cl
p2786
I1
sVd6nup5j
p2787
I1
sVd3oi0x6
p2788
I1
sVd0wchge
p2789
I1
sVddcq2cv
p2790
I1
sVddfarh9
p2791
I1
sVdnpin6e
p2792
I1
sVd1gy9kx
p2793
I1
sVdap8y2v
p2794
I1
sVdr1y967
p2795
I1
sVcymjf4o
p2796
I1
sVdnwruce
p2797
I1
sVd0y9y24
p2798
I1
sVdqn0ydy
p2799
I1
sVdekyah0
p2800
I1
sVcz2p9wt
p2801
I1
sVcyrunnh
p2802
I2
sVdkitckj
p2803
I1
sVdesnqn0
p2804
I1
sVd5oygl8
p2805
I1
sVdg6mvgu
p2806
I1
sVcz7hd3n
p2807
I1
sVd094o3m
p2808
I1
sVcyzn9wy
p2809
I1
sVdjdrlcx
p2810
I1
sVd9v8e5k
p2811
I2
sVdpay3sf
p2812
I1
sVd19dlnz
p2813
I1
sVd93byt3
p2814
I1
sVdp5gww8
p2815
I1
sVczyokve
p2816
I1
sVddws3ln
p2817
I1
sVd8q749l
p2818
I1
sVd1s3vj3
p2819
I1
sVdoh8kff
p2820
I1
sVdq1nyiw
p2821
I1
sVdcv0t0c
p2822
I1
sVd5kyztx
p2823
I1
sVdf1wfd3
p2824
I1
sVd718zm7
p2825
I1
sVd9s743x
p2826
I1
sVdh0m0cu
p2827
I2
sVdjntq9u
p2828
I1
sVd1btwvq
p2829
I1
sVd8t9ekg
p2830
I1
sVczc5vbo
p2831
I1
sVde5o58t
p2832
I4
sVd5cmk01
p2833
I1
sVd2um1bg
p2834
I1
sVd2yc1zt
p2835
I1
sVd8xk9uc
p2836
I1
sVd5m3wtf
p2837
I1
sVd3iux1t
p2838
I1
sVd7demnl
p2839
I1
sVdcezwgd
p2840
I1
sVdeblvrt
p2841
I1
sVdcr7lmu
p2842
I1
sVd3sv411
p2843
I2
sVd26o7dr
p2844
I1
sVd0txwwu
p2845
I1
sVd3ykmhj
p2846
I1
sVczuy508
p2847
I1
sVcz3nkq3
p2848
I1
sVd3bkk2e
p2849
I1
sVd1we4nf
p2850
I1
sVd7vfl1m
p2851
I1
sVdf8coss
p2852
I1
sVczoo6oy
p2853
I1
sVdgctg4e
p2854
I1
sVde4po2e
p2855
I1
sVdeh1g9d
p2856
I1
sVdhguegr
p2857
I1
sVd2qj4m4
p2858
I1
sVd7lbd8e
p2859
I2
sVdf9ccs8
p2860
I2
sVdij70dx
p2861
I1
sVd6sf53x
p2862
I1
sVdjcxbf4
p2863
I1
sVcyx2z6v
p2864
I1
sVdcc0g9a
p2865
I1
sVdi9v1bg
p2866
I1
sVdjzqnra
p2867
I1
sVd6qyfcv
p2868
I1
sVdj00udc
p2869
I1
sVdcgkpnr
p2870
I1
sVde16v9u
p2871
I1
sVd1i650c
p2872
I1
sVdb76yz5
p2873
I1
sVdewh1hj
p2874
I1
sVd41lwp7
p2875
I1
sVd5v27iv
p2876
I1
sVdgn0ug1
p2877
I1
sVdbmi45l
p2878
I1
sVdd46qhk
p2879
I1
sVdi56ayz
p2880
I1
sVd2hcdc1
p2881
I1
sVdawx38m
p2882
I1
sVdaypj3n
p2883
I1
sVdekvrg7
p2884
I1
sVdgf4uba
p2885
I1
sVcyvhylv
p2886
I1
sVdiczrwn
p2887
I1
sVd2on08x
p2888
I1
sVd61hgqc
p2889
I1
sVdnildt5
p2890
I1
sVdi6dwra
p2891
I1
sVcz91xxt
p2892
I1
sVd91f2k3
p2893
I1
sVd2j9fvy
p2894
I1
sVdgew99l
p2895
I1
sVd0oilp0
p2896
I1
sVdqivo9k
p2897
I1
sVd4u6905
p2898
I1
sVdpbqpud
p2899
I1
sVd0tr8ob
p2900
I1
sVd9n3wgj
p2901
I1
sVd2q4ft4
p2902
I1
sVd1kv6ep
p2903
I1
sVczh28sr
p2904
I2
sVd224ji6
p2905
I1
sVd1x0xpi
p2906
I1
sVdcceamf
p2907
I1
sVczvv604
p2908
I1
sVdgmupyi
p2909
I1
sVd26i1st
p2910
I1
sVd5c00hw
p2911
I1
sVd2t2fae
p2912
I1
sVd0vovzt
p2913
I1
sVd8atm0t
p2914
I1
sVdj7txss
p2915
I2
sVdgw8t07
p2916
I1
sVczwzoxc
p2917
I1
sVdoeomn5
p2918
I1
sVdcphnwo
p2919
I1
sVdr4bu35
p2920
I1
sVdnvtdb1
p2921
I1
sVd5aw94e
p2922
I1
sVdikdk0k
p2923
I1
sVdkrxmbm
p2924
I1
sVdizkli3
p2925
I1
sVdhyaxsz
p2926
I1
sVd0byhhk
p2927
I1
sVd8eqea6
p2928
I1
sVdiqpwok
p2929
I1
sVd17y0gl
p2930
I1
sVd0iwz9h
p2931
I1
sVd9zhghq
p2932
I1
sVczsx3ht
p2933
I1
sVd2hdhei
p2934
I1
sVdb68red
p2935
I1
sVdbcn3we
p2936
I1
sVdmf81g6
p2937
I2
sVd675n9i
p2938
I1
sVd3bn1ct
p2939
I1
sVdgbeqxq
p2940
I2
sVd6oom28
p2941
I1
sVd94zk1l
p2942
I2
sVd9yfyex
p2943
I2
sVdqzu6q8
p2944
I1
sVdaivob5
p2945
I2
sVdpwealo
p2946
I2
sVd9fagne
p2947
I1
sVd652hvi
p2948
I1
sVdfi1doa
p2949
I1
sVd0n6glp
p2950
I1
sVd5x8bu2
p2951
I1
sVczm8bvj
p2952
I1
sVda79kq9
p2953
I1
sVdmrfyis
p2954
I4
sVcywgpeb
p2955
I1
sVd55m8j1
p2956
I1
sVdgkjdur
p2957
I1
sVd451s5a
p2958
I2
sVd1ohef4
p2959
I1
sVdo08y5r
p2960
I1
sVd6excul
p2961
I1
sVd0o1t0m
p2962
I1
sVczikccw
p2963
I1
sVdfwwqba
p2964
I1
sVdaz706g
p2965
I3
sVd1z3fe5
p2966
I1
sVd0wclx6
p2967
I1
sVdotwyjn
p2968
I1
sVd50mhp5
p2969
I1
sVcyjrmwr
p2970
I1
sVdh0iqbu
p2971
I1
sVddwjban
p2972
I1
sVda914wy
p2973
I1
sVczx0sly
p2974
I1
sVd800h0o
p2975
I1
sVdjkqbrk
p2976
I1
sVdn0hcgx
p2977
I2
sVd7l4a50
p2978
I1
sVdmxec7j
p2979
I1
sVd1i9ymf
p2980
I1
sVd19dyyp
p2981
I1
sVd3r5jlg
p2982
I1
sVd6i8bw0
p2983
I1
sVdpgz61c
p2984
I4
sVdjuian5
p2985
I2
sVcz8bi1o
p2986
I1
sVdgpmpzm
p2987
I1
sVcyncggb
p2988
I1
sVcz8t47f
p2989
I1
sVdqbl2sa
p2990
I1
sVcz85nmo
p2991
I1
sVd4swinc
p2992
I1
sVd56h4se
p2993
I1
sVd621kdd
p2994
I1
sVdet22w5
p2995
I1
sVde8z48d
p2996
I1
sVdhb6di9
p2997
I1
sVdf8i9ua
p2998
I2
sVdbr3bi4
p2999
I1
sVdhcsja0
p3000
I1
sVd0mrto7
p3001
I1
sVcz5e0nj
p3002
I1
sVd2ncobr
p3003
I1
sVcylrh4b
p3004
I1
sVd2b4ggq
p3005
I1
sVdtd0l8r
p3006
I1
sVdf5ut5p
p3007
I1
sVd1681m1
p3008
I1
sVd8dydjx
p3009
I1
sVdhzzcw6
p3010
I1
sVczi883h
p3011
I1
sVdcgoczd
p3012
I1
sVdmskt0x
p3013
I1
sVczw78ac
p3014
I1
sVdaaaywc
p3015
I1
sVd200ek7
p3016
I1
sVd128wg7
p3017
I1
sVcyl207p
p3018
I1
sVdaexw0e
p3019
I1
sVdc0nma9
p3020
I2
sVdhpip1g
p3021
I1
sVdciwren
p3022
I1
sVdj5tao2
p3023
I1
sVd5qva9n
p3024
I3
sVcyugv34
p3025
I2
sVde3w090
p3026
I1
sVd4z9ggr
p3027
I1
sVdq8cdum
p3028
I1
sVdnx1mvs
p3029
I1
sVdcbr45i
p3030
I1
sVd7hbdh0
p3031
I1
sVczfa2ms
p3032
I1
sVdfx2673
p3033
I1
sVd717ayw
p3034
I1
sVdijfd67
p3035
I1
sVdfvccry
p3036
I1
sVdfgndzb
p3037
I1
sVdabexrq
p3038
I2
sVcynuck3
p3039
I1
sVdf6rebd
p3040
I1
sVdcl4inz
p3041
I1
sVd227tge
p3042
I1
sVd5vbuos
p3043
I2
sVdbwt2bw
p3044
I1
sVdrk2sr7
p3045
I1
sVdcel4yy
p3046
I1
sVdmh8hxj
p3047
I1
sVddsz7hm
p3048
I1
sVda8jhcj
p3049
I1
sVd57aysl
p3050
I1
sVdq14akr
p3051
I3
sVdhwaqfw
p3052
I2
sVdkb625c
p3053
I7
sVdng2vhi
p3054
I1
sVdhzgr10
p3055
I2
sVd4bfjly
p3056
I1
sVdcvejns
p3057
I1
sVcyiyowq
p3058
I1
sVdcvtc39
p3059
I2
sVdqmpal5
p3060
I1
sVdnl261u
p3061
I2
sVdrq6cgq
p3062
I1
sVd5bnm18
p3063
I1
sVdq998t3
p3064
I1
sVdoecgvh
p3065
I1
sVd07psjy
p3066
I1
sVdhn4ewy
p3067
I1
sVdgcmh9t
p3068
I1
sVd5q2173
p3069
I1
sVdsmiebb
p3070
I1
sVd3y0xoy
p3071
I1
sVda2sgsh
p3072
I1
sVdkjk3jn
p3073
I1
sVdaasjmc
p3074
I1
sVd664ggz
p3075
I1
sVd4y0hgc
p3076
I2
sVd84iu85
p3077
I1
sVd6j60lh
p3078
I2
sVd6o1j2a
p3079
I1
sVdgpwlyp
p3080
I1
sVdii6dw7
p3081
I1
sVdh5nyic
p3082
I1
sVdduuohz
p3083
I1
sVd3dyr89
p3084
I1
sVd7py5uo
p3085
I1
sVd26kvvw
p3086
I1
sVcz9w6fs
p3087
I1
sVd17zfyn
p3088
I1
sVd484e4g
p3089
I3
sVdjstxaw
p3090
I1
sVdo0ls8j
p3091
I1
sVdqst0fu
p3092
I1
sVcykkwzb
p3093
I1
sVd90sqhv
p3094
I2
sVd6rzzh1
p3095
I1
sVd7mnhp4
p3096
I2
sVczamltp
p3097
I1
sVdmrdqhy
p3098
I1
sVdenx128
p3099
I1
sVdrhmz2z
p3100
I2
sVdii7x1g
p3101
I1
sVd7k7gdl
p3102
I1
sVdff7fzj
p3103
I1
sVd6jr853
p3104
I1
sVd19ocos
p3105
I1
sVd2t085u
p3106
I1
sVdo7lqi3
p3107
I2
sVd0720sk
p3108
I1
sVcyle13f
p3109
I1
sVd417qss
p3110
I4
sVdam5e7t
p3111
I1
sVddfpyn0
p3112
I1
sVd75n54g
p3113
I2
sVd4qr1vg
p3114
I1
sVd1th0m0
p3115
I1
sVd0zkgcg
p3116
I1
sVdajl5fg
p3117
I2
sVdj0q5b9
p3118
I1
sVdawz8te
p3119
I1
sVdc129rm
p3120
I1
sVdrq37a4
p3121
I1
sVdg32ut3
p3122
I1
sVdib57fs
p3123
I1
sVd2d9cd7
p3124
I1
sVdn4vdp3
p3125
I1
sVdf4x1zz
p3126
I1
sVd4cxlwd
p3127
I1
sVd7c8h4w
p3128
I1
sVdkrfdtd
p3129
I1
sVd20xbo6
p3130
I1
sVddwg3t0
p3131
I3
sVd5bjhtg
p3132
I1
sVd0l0fu3
p3133
I2
sVd994pyk
p3134
I1
sVd2eig32
p3135
I1
sVdsdghib
p3136
I1
sVde2j2xa
p3137
I1
sVd8e3if1
p3138
I3
sVdihg51u
p3139
I1
sVd3l9zzy
p3140
I1
sVdfihxp7
p3141
I1
sVdftoyyl
p3142
I1
sVdh1jvt2
p3143
I2
sVdgng8kn
p3144
I1
sVdj9jqtp
p3145
I1
sVdj8dy85
p3146
I1
sVdf9fusd
p3147
I1
sVcz8c5vq
p3148
I1
sVcyz1q0e
p3149
I1
sVdggrgdd
p3150
I1
sVdd451b8
p3151
I1
sVd0ogx96
p3152
I1
sVdfda4ex
p3153
I1
sVdpmndtl
p3154
I1
sVcyrxndu
p3155
I1
sVd0nfni9
p3156
I1
sVdk2qhbg
p3157
I1
sVdfbe2ud
p3158
I1
sVdihdrhx
p3159
I1
sVdprpeqh
p3160
I1
sVd3xvimc
p3161
I2
sVdq8j3b6
p3162
I1
sVd90ples
p3163
I1
sVdepizca
p3164
I1
sVcz7xy85
p3165
I1
sVdp7jotv
p3166
I1
sVdje3zdq
p3167
I1
sVd30v5go
p3168
I1
sVd3a8szb
p3169
I1
sVdgb4si2
p3170
I1
sVdg864kz
p3171
I2
sVdexbomh
p3172
I1
sVcyygcha
p3173
I1
sVdambpxy
p3174
I1
sVd0uowe4
p3175
I3
sVczgmtyq
p3176
I1
sVdf26lj7
p3177
I1
sVdqpkzan
p3178
I1
sVcyi6hmg
p3179
I1
sVd6lorzu
p3180
I1
sVdhbhi2f
p3181
I2
sVd7b024w
p3182
I1
sVdfimczs
p3183
I1
sVdeek70s
p3184
I1
sVdho0fqd
p3185
I1
sVdoboavd
p3186
I1
sVd44zwfx
p3187
I1
sVd34tban
p3188
I1
sVdk84od8
p3189
I1
sVczvvsrh
p3190
I1
sVdd8w4mi
p3191
I1
sVd2knnsy
p3192
I1
sVd0tjeel
p3193
I1
sVdcmgplj
p3194
I1
sVdjb4qrr
p3195
I1
sVda660q8
p3196
I1
sVd44qb64
p3197
I1
sVddvniz9
p3198
I1
sVd66icgp
p3199
I1
sVdfu1ylf
p3200
I1
sVd1i2c1b
p3201
I1
sVd2doavk
p3202
I1
sVdrxipmu
p3203
I1
sVd2reu0n
p3204
I1
sVdo1w9hg
p3205
I2
sVcyv96ya
p3206
I1
sVdb3wzpy
p3207
I1
sVdcvh8x0
p3208
I1
sVdh27uaj
p3209
I2
sVdjglcyt
p3210
I1
sVd1i0nua
p3211
I1
sVdnt6lpd
p3212
I2
sVdh1tm6w
p3213
I1
sVcylrese
p3214
I1
sVdeyu7ag
p3215
I1
sVdbqhvom
p3216
I1
sVdcxozcu
p3217
I1
sVdajjelu
p3218
I1
sVd53939b
p3219
I2
sVd3aeswr
p3220
I3
sVcyuemlj
p3221
I1
sVd7708nh
p3222
I1
sVdtay3ai
p3223
I1
sVd9m9rw7
p3224
I1
sVdpqoi6v
p3225
I2
sVd84mx7x
p3226
I1
sVdbgl5q9
p3227
I1
sVdmpd1ze
p3228
I1
sVd4iyeew
p3229
I1
sVd8ccbr4
p3230
I2
sVdb6n4ce
p3231
I1
sVczt9hc9
p3232
I2
sVdd3sxeh
p3233
I1
sVd6186v3
p3234
I1
sVd770bk6
p3235
I1
sVd39s3ac
p3236
I1
sVczmkg92
p3237
I1
sVddhqk4d
p3238
I1
sVdqmiss9
p3239
I1
sVdb0rvm8
p3240
I1
sVd1fnb5o
p3241
I1
sVdt1xkhd
p3242
I1
sVd71gqjo
p3243
I1
sVdgiiwfb
p3244
I1
sVdn56xg2
p3245
I1
sVd1n7v0x
p3246
I1
sVdc8xia8
p3247
I1
sVde91zvg
p3248
I1
sVds6lhte
p3249
I1
sVdqhdzec
p3250
I1
sVd06yoqz
p3251
I1
sVd2gghvt
p3252
I1
sVdreacwz
p3253
I1
sVdf18zzz
p3254
I1
sVd3uc4bn
p3255
I1
sVdaa0ftu
p3256
I1
sVddtome2
p3257
I1
sVdfxofup
p3258
I1
sVdbaqq7h
p3259
I1
sVcyxcoor
p3260
I1
sVd7bdfz2
p3261
I1
sVcymktuh
p3262
I1
sVddtq0dw
p3263
I1
sVda10bld
p3264
I1
sVdc97bg9
p3265
I1
sVdqzwe4p
p3266
I1
sVd34lp01
p3267
I2
sVd92y9h9
p3268
I1
sVdeuzhy8
p3269
I2
sVdooh650
p3270
I1
sVdnxhnh4
p3271
I2
sVdcuu4nq
p3272
I1
sVdahdpvg
p3273
I1
sVd2icde0
p3274
I1
sVd7utdaa
p3275
I1
sVdgn2o2a
p3276
I1
sVd6fkt4s
p3277
I1
sVdbg0c9h
p3278
I1
sVd0upupt
p3279
I1
sVdioqo1y
p3280
I1
sVdmvhm8i
p3281
I1
sVd5yqrm9
p3282
I1
sVdft09zw
p3283
I1
sVdgmi1ux
p3284
I1
sVd2t1h7h
p3285
I2
sVd9crbef
p3286
I1
sVdjb38vn
p3287
I1
sVdn4tz9g
p3288
I1
sVdp54ldk
p3289
I1
sVdejny0d
p3290
I1
sVczeksn6
p3291
I1
sVdam0igp
p3292
I1
sVdj2jsl7
p3293
I1
sVdjecl9p
p3294
I1
sVd5ghvdg
p3295
I1
sVdt9ppyi
p3296
I1
sVd0ilm68
p3297
I1
sVdcc83dz
p3298
I1
sVd5kbal2
p3299
I1
sVdj6y78g
p3300
I1
sVczcirvj
p3301
I1
sVdczcj57
p3302
I2
sVd1m4yv5
p3303
I1
sVd63fu3h
p3304
I1
sVd53fhxp
p3305
I1
sVd74sx2s
p3306
I2
sVczr98fr
p3307
I1
sVd0vxqb7
p3308
I1
sVcynx2nj
p3309
I1
sVd3zqgbr
p3310
I1
sVdbi7clo
p3311
I1
sVd3xasvo
p3312
I1
sVd3gd2q8
p3313
I1
sVdbglb6a
p3314
I1
sVcynty5g
p3315
I2
sVd3zcl86
p3316
I1
sVd4upjb2
p3317
I1
sVd05mtft
p3318
I1
sVcz9whnp
p3319
I1
sVczxmqfo
p3320
I1
sVdgtbdm5
p3321
I1
sVd75eo1t
p3322
I1
sVdggvet9
p3323
I2
sVd0fjyc2
p3324
I2
sVdoaduz6
p3325
I1
sVd4o9kff
p3326
I1
sVczxe8ys
p3327
I1
sVdq0jw3k
p3328
I1
sVdpmz1o8
p3329
I1
sVd7tgkqz
p3330
I1
sVdgvbrwg
p3331
I1
sVdd24rn1
p3332
I1
sVdamf3sj
p3333
I2
sVdi9almc
p3334
I1
sVdo8i7sj
p3335
I1
sVdppd6tk
p3336
I1
sVdk0nwgy
p3337
I1
sVdc92gfd
p3338
I2
sVdpgxb36
p3339
I2
sVd1pf7hc
p3340
I1
sVdgxza8i
p3341
I1
sVdkxxzpt
p3342
I1
sVd3h3dec
p3343
I1
sVd5ekw5p
p3344
I1
sVd384i2g
p3345
I1
sVdi8dqf8
p3346
I1
sVdcbu3yw
p3347
I1
sVdtfbu01
p3348
I1
sVdgn1yso
p3349
I1
sVd1q93kg
p3350
I1
sVdmtav3n
p3351
I1
sVdn1jeal
p3352
I2
sVd0zfjim
p3353
I1
sVdertrb0
p3354
I1
sVd06i5bt
p3355
I1
sVdflrv9l
p3356
I1
sVd19m66u
p3357
I1
sVdin11tv
p3358
I1
sVdc39lp9
p3359
I1
sVdj0swrb
p3360
I1
sVd4doqka
p3361
I1
sVdhunf79
p3362
I1
sVd0gzc7f
p3363
I1
sVdim8hq7
p3364
I1
sVd97khpj
p3365
I1
sVdirnwev
p3366
I1
sVdepii4p
p3367
I1
sVdgm8n20
p3368
I1
sVdkklhyv
p3369
I2
sVdt5owyi
p3370
I1
sVdrkzuv8
p3371
I1
sVdr7u7za
p3372
I1
sVcz0gxfo
p3373
I2
sVd4sbi5g
p3374
I1
sVdkwx8ac
p3375
I1
sVdfj3hgm
p3376
I1
sVd4ki2gg
p3377
I1
sVdkdr0dd
p3378
I1
sVcyv5dvp
p3379
I1
sVd9kakq3
p3380
I1
sVdo7oi7d
p3381
I1
sVd8ms370
p3382
I1
sVdo9jigt
p3383
I1
sVdgv6rca
p3384
I1
sVd5jw1sz
p3385
I1
sVdgyt59l
p3386
I1
sVdhjtxn0
p3387
I1
sVd0ly1lt
p3388
I1
sVcz4v5h9
p3389
I1
sVdf3pa1e
p3390
I1
sVd9moaeo
p3391
I2
sVddd3kwz
p3392
I1
sVczs0z6i
p3393
I2
sVdojnmaf
p3394
I2
sVd2szeck
p3395
I1
sVdhbekdg
p3396
I1
sVd04a4xt
p3397
I1
sVd4n9i7l
p3398
I1
sVdj77izk
p3399
I1
sVd39yf9y
p3400
I1
sVddwqa7c
p3401
I1
sVd4tlpwq
p3402
I1
sVdk809xl
p3403
I2
sVdfu9vwh
p3404
I2
sVczbs4ww
p3405
I1
sVdgbn41g
p3406
I1
sVdjglvxq
p3407
I1
sVdjlclvv
p3408
I1
sVd670oao
p3409
I1
sVdam6k1d
p3410
I1
sVd2v779c
p3411
I1
sVdg8b3op
p3412
I1
sVdaypmmy
p3413
I2
sVczbxqrh
p3414
I1
sVczsv0qx
p3415
I1
sVdnfx1x8
p3416
I1
sVd7d68if
p3417
I1
sVdc8enmh
p3418
I1
sVd4qsxua
p3419
I2
sVd08writ
p3420
I1
sVd2rl385
p3421
I1
sVdbjy8hz
p3422
I1
sVd18rvq8
p3423
I1
sVd6v1fg5
p3424
I1
sVdf3bqeb
p3425
I1
sVd4fb8d2
p3426
I1
sVczsbs6s
p3427
I1
sVdhmh5w8
p3428
I1
sVd1k4hmg
p3429
I4
sVd7so2qz
p3430
I1
sVdaqwn23
p3431
I1
sVdmfc88e
p3432
I1
sVd29d1lg
p3433
I1
sVddol8hh
p3434
I1
sVd42fhd4
p3435
I1
sVdpwdv7z
p3436
I1
sVd0gsn26
p3437
I1
sVd2e6kmf
p3438
I1
sVdhn8mzn
p3439
I1
sVdmrdyzv
p3440
I1
sVd64hmg5
p3441
I1
sVdt25xgn
p3442
I1
sVd6013cy
p3443
I1
sVd8jcv0i
p3444
I1
sVczehrho
p3445
I1
sVd17sqoo
p3446
I1
sVd0xn0yp
p3447
I1
sVdoaup3h
p3448
I1
sVd9bf86q
p3449
I1
sVd292eth
p3450
I1
sVdge1z5h
p3451
I1
sVd71om97
p3452
I1
sVdgo6lje
p3453
I1
sVdtgdf3b
p3454
I1
sVd0dnksl
p3455
I1
sVdce8557
p3456
I1
sVd8dxoyi
p3457
I1
sVd3kqz8b
p3458
I1
sVdeachrc
p3459
I1
sVd011f7t
p3460
I1
sVde3rhz4
p3461
I1
sVd02hu46
p3462
I1
sVd0hz48a
p3463
I1
sVd7jwn4l
p3464
I1
sVd6s839j
p3465
I1
sVderfg1m
p3466
I1
sVdnnefpy
p3467
I1
sVdci5m4w
p3468
I1
sVcywntfr
p3469
I1
sVdgi2u6k
p3470
I1
sVd0acrpp
p3471
I1
sVd8k0671
p3472
I1
sVdf7sypk
p3473
I1
sVdhnwwow
p3474
I1
sVddxmmyh
p3475
I1
sVdhb4s85
p3476
I1
sVdf2f3qs
p3477
I1
sVdk11alr
p3478
I1
sVczcdxc5
p3479
I1
sVdc4bite
p3480
I1
sVde99b0f
p3481
I3
sVcyxpi1g
p3482
I1
sVdnffi49
p3483
I1
sVdrh7q7h
p3484
I1
sVczo39t7
p3485
I1
sVdatmvu7
p3486
I1
sVd086lsb
p3487
I1
sVdklxzjp
p3488
I1
sVdfjqtkg
p3489
I1
sVdbid4t7
p3490
I1
sVd1c7yl2
p3491
I1
sVcyn09k7
p3492
I1
sVdkshnyr
p3493
I1
sVdijnyn2
p3494
I1
sVd7y76mq
p3495
I1
sVdh993gn
p3496
I1
sVdbpxtds
p3497
I1
sVdg2908r
p3498
I1
sVd7a8p12
p3499
I1
sVdd4edbm
p3500
I1
sVddq2js5
p3501
I1
sVdr6eizx
p3502
I1
sVddwh5y8
p3503
I1
sVdj76a1e
p3504
I1
sVdks4lwc
p3505
I1
sVd1o2jom
p3506
I1
sVdr01fg0
p3507
I1
sVdcud4by
p3508
I1
sVdhfajqw
p3509
I1
sVd4odoyk
p3510
I1
sVdiudz5q
p3511
I1
sVd7hxfhb
p3512
I1
sVdd1yji5
p3513
I1
sVd7o0imc
p3514
I1
sVd7rj2rs
p3515
I1
s.