(dp0
Vdssr6bo
p1
I1
sVdan80v1
p2
I1
sVcyv5a3h
p3
I1
sVdjhxeo1
p4
I1
sVdc8ypvs
p5
I1
sVd6v204k
p6
I1
sVdgoeusq
p7
I1
sVdnm86kz
p8
I1
sVd512bq4
p9
I1
sVd2l057v
p10
I1
sVd8ctnn9
p11
I1
sVdn119pt
p12
I2
sVd77zgbm
p13
I1
sVdi87wqz
p14
I1
sVdbdc53z
p15
I1
sVdbmumtg
p16
I1
sVd3o35y9
p17
I1
sVddx5afm
p18
I1
sVdkw7656
p19
I2
sVd9rm3lf
p20
I1
sVd6tkexv
p21
I1
sVczzemam
p22
I1
sVd1lvoh3
p23
I1
sVd3g6dus
p24
I1
sVdo3ds3s
p25
I1
sVd44wpbu
p26
I3
sVdthh0q6
p27
I1
sVdc9fssg
p28
I1
sVdbjmatx
p29
I1
sVdq1z5nq
p30
I1
sVd0vz06z
p31
I1
sVd7vbpsw
p32
I1
sVd9coicp
p33
I1
sVd1tpcou
p34
I1
sVd7jwbbi
p35
I1
sVdkqkpjq
p36
I1
sVdeuksng
p37
I1
sVdjh9r0r
p38
I1
sVdgrqtti
p39
I2
sVdksseh6
p40
I1
sVd271nvq
p41
I1
sVdembgnv
p42
I1
sVdt9nkwm
p43
I1
sVd0iel2p
p44
I1
sVdd9lt7v
p45
I1
sVd1y8dq5
p46
I1
sVdibfx0n
p47
I1
sVd6zuful
p48
I1
sVdn315vk
p49
I1
sVd9wpbt9
p50
I1
sVdptqp5i
p51
I1
sVdf7ytcb
p52
I1
sVcyqi3ir
p53
I2
sVdcflpqy
p54
I1
sVdk2lm6p
p55
I1
sVddlseqy
p56
I1
sVd17jfsp
p57
I2
sVd3g4gg4
p58
I1
sVdibj6vk
p59
I1
sVdb9fv50
p60
I1
sVd57mcq1
p61
I1
sVdf47bpx
p62
I8
sVdc8h3j0
p63
I1
sVd21jd1m
p64
I1
sVdf9jhtr
p65
I1
sVdbfziii
p66
I1
sVdspjhcg
p67
I2
sVd2wrk2z
p68
I1
sVdbctn2o
p69
I2
sVd6uz0zg
p70
I3
sVdh28v6u
p71
I1
sVda5uolw
p72
I1
sVdbdn2y0
p73
I1
sVdfaq7b0
p74
I1
sVd2mzj4v
p75
I1
sVdfv8hl8
p76
I2
sVd80xeh2
p77
I1
sVdiv06d1
p78
I1
sVd829vyd
p79
I1
sVdcptme4
p80
I2
sVdaax7zh
p81
I1
sVd9d78vr
p82
I1
sVdpx6ipn
p83
I1
sVdeuugg3
p84
I2
sVdjzqpvb
p85
I1
sVdezjhbo
p86
I1
sVd8t02g4
p87
I1
sVdgoele1
p88
I1
sVd2t37jf
p89
I2
sVczn8538
p90
I1
sVd2klo0e
p91
I1
sVd3mnm1y
p92
I1
sVda660q8
p93
I2
sVd7awgk4
p94
I1
sVd2xessu
p95
I1
sVczih02o
p96
I1
sVd34nv4c
p97
I1
sVdfop2dq
p98
I1
sVdnxjkvo
p99
I1
sVdghkugo
p100
I1
sVczcv85p
p101
I1
sVd8rosro
p102
I1
sVdsr89nh
p103
I1
sVdgqcz4z
p104
I1
sVd235ble
p105
I2
sVdbd9p0s
p106
I4
sVdhg9rq6
p107
I1
sVdf3ctfd
p108
I2
sVd3mitja
p109
I1
sVd6ucmga
p110
I1
sVdg2zuvl
p111
I1
sVddglrk9
p112
I1
sVdfq73al
p113
I1
sVdqmn7gz
p114
I1
sVdi6gdnz
p115
I1
sVd9fplak
p116
I1
sVdniq9j0
p117
I1
sVdk9h5r5
p118
I1
sVdjthrtd
p119
I2
sVdixmhi7
p120
I1
sVd2x7522
p121
I1
sVdik7rkx
p122
I1
sVdgv6hau
p123
I2
sVdi25ow9
p124
I5
sVdqqtofh
p125
I3
sVdogtars
p126
I2
sVdg6emrf
p127
I1
sVdeoy2m6
p128
I1
sVdndehfh
p129
I1
sVcznxmeg
p130
I1
sVd1ikkdg
p131
I1
sVd63q6kw
p132
I1
sVd9gh3xb
p133
I1
sVdhrfyq4
p134
I1
sVda7g6jv
p135
I1
sVdt9ppyi
p136
I1
sVdidtjrj
p137
I1
sVdnzdo2m
p138
I1
sVd2p5qrm
p139
I1
sVcyvphu7
p140
I2
sVd3hquww
p141
I1
sVdbwj6ol
p142
I1
sVdktfcfr
p143
I1
sVdo8ymo0
p144
I2
sVdd5bd6k
p145
I2
sVd0n7ngg
p146
I1
sVdn76onw
p147
I1
sVdhm8665
p148
I2
sVd6u5wk5
p149
I1
sVd6ty3mj
p150
I3
sVdqp4bwx
p151
I1
sVczm21mw
p152
I1
sVd6lgv90
p153
I2
sVdj2m4ly
p154
I1
sVdewh1hj
p155
I1
sVd6txqaf
p156
I1
sVd6x0p7b
p157
I1
sVdmoy7po
p158
I2
sVd3r5twa
p159
I1
sVd7x7opd
p160
I1
sVd7j5252
p161
I1
sVd3ia5ds
p162
I1
sVdnswzjf
p163
I1
sVd53mlzh
p164
I1
sVdfzansg
p165
I1
sVd1g57ku
p166
I1
sVdbh1i0a
p167
I1
sVdas3sdc
p168
I1
sVdhccvz2
p169
I1
sVdmhjnmk
p170
I1
sVdca4ol0
p171
I1
sVcyrdka0
p172
I1
sVd6uarv0
p173
I2
sVd6u9etg
p174
I2
sVd3kdbct
p175
I1
sVdr6qg66
p176
I1
sVd2260cl
p177
I1
sVdb0owb0
p178
I1
sVdc72pxj
p179
I1
sVdan1pk6
p180
I1
sVdhccq32
p181
I1
sVd3asa7r
p182
I1
sVddw3zk0
p183
I1
sVd68y1as
p184
I2
sVd0uqzsz
p185
I1
sVd6ub63i
p186
I3
sVd40goi1
p187
I1
sVdn9wfwg
p188
I1
sVdan5qe5
p189
I1
sVdjk9nf0
p190
I1
sVczmb4qu
p191
I1
sVcywi07s
p192
I1
sVd8pzzpq
p193
I1
sVd1pa6gk
p194
I1
sVdcg91et
p195
I1
sVdc9m838
p196
I1
sVd4p8sat
p197
I1
sVd2rd3aw
p198
I1
sVdfdsjfy
p199
I1
sVdfntdb8
p200
I1
sVdtdy3l4
p201
I1
sVd61cjp3
p202
I1
sVdisvuq1
p203
I1
sVd4as8n7
p204
I1
sVdrjepji
p205
I1
sVd0ry8ln
p206
I1
sVd6ulajz
p207
I1
sVd6ufyip
p208
I1
sVd1siclo
p209
I1
sVd6uee93
p210
I1
sVdo51o49
p211
I1
sVds83073
p212
I1
sVd23280k
p213
I1
sVdbdk4xx
p214
I1
sVd3mlxlv
p215
I2
sVd1km7k0
p216
I1
sVdc2ybhj
p217
I1
sVdjs6jrw
p218
I1
sVdgpxf9m
p219
I4
sVdf8r2zs
p220
I1
sVdmpax2d
p221
I2
sVd6tlkix
p222
I2
sVd5vro87
p223
I1
sVdntahbq
p224
I1
sVdkc6iwu
p225
I1
sVd3m93r9
p226
I2
sVdp812bl
p227
I1
sVdizv1fn
p228
I1
sVd21ek7i
p229
I1
sVd1af04k
p230
I1
sVd02h6ff
p231
I1
sVdhpkjhn
p232
I1
sVcz1jw3g
p233
I1
sVdgqvnx2
p234
I1
sVd20vgps
p235
I1
sVdod2hi4
p236
I2
sVdeg0uds
p237
I1
sVdbf15f5
p238
I4
sVd5v7ojn
p239
I1
sVdc15y4w
p240
I1
sVdkge0q8
p241
I1
sVded29jf
p242
I1
sVd20zo20
p243
I1
sVdfgb305
p244
I2
sVd8z7o1x
p245
I1
sVdeo3c93
p246
I1
sVcylb43z
p247
I1
sVdketyd0
p248
I1
sVdbwgqts
p249
I1
sVdii9rpn
p250
I1
sVcz8n6xr
p251
I2
sVdf6o0f2
p252
I4
sVdgkojnp
p253
I1
sVd1kuxu2
p254
I1
sVdi18gt9
p255
I1
sVd933ttp
p256
I1
sVd8uwp5w
p257
I1
sVdfpo9jx
p258
I1
sVd2u1yr1
p259
I1
sVddt19l8
p260
I1
sVdnbk7uu
p261
I2
sVd1gxs56
p262
I1
sVdd9jmwh
p263
I1
sVdan2372
p264
I1
sVde552ar
p265
I2
sVdght60c
p266
I2
sVdn6cg11
p267
I1
sVd1e95yl
p268
I1
sVdpu8qlz
p269
I1
sVd15w6rj
p270
I1
sVdp980pb
p271
I1
sVd36lv9g
p272
I1
sVd0zfdgw
p273
I1
sVd053wd5
p274
I1
sVdkz43f6
p275
I9
sVdgxcm1e
p276
I1
sVd05vrz6
p277
I1
sVdji0aoz
p278
I1
sVd0uh3jt
p279
I1
sVdrv1f33
p280
I1
sVd9x2b1q
p281
I1
sVdax7ntg
p282
I1
sVdq3mnwq
p283
I1
sVczy1wv9
p284
I1
sVdoodug3
p285
I5
sVd0l67k5
p286
I1
sVdqtxkew
p287
I1
sVd8nq5b9
p288
I2
sVd160sp4
p289
I1
sVd2fru3o
p290
I1
sVdieig8v
p291
I2
sVd5h87b1
p292
I1
sVdaftt9d
p293
I1
s.