(dp0
Vcyktnni
p1
I1
s.(dp0
Vcyktnni
p1
I1
sVcyld3e5
p2
I1
s.(dp0
Vcyktnni
p1
I1
sVcymy863
p2
I1
s.(dp0
Vcyktnni
p1
I1
sVcynob8u
p2
I1
s.(dp0
Vcyktnni
p1
I1
sVcyp5mhf
p2
I1
s.(dp0
Vcyktnni
p1
I1
sVcyp5mhf
p2
I1
s.(dp0
Vcyktnni
p1
I1
sVcyp5mhf
p2
I1
s.(dp0
Vcyktnni
p1
I1
sVcyp5mhf
p2
I1
s.(dp0
Vcyqpqwr
p1
I1
sVcyktnni
p2
I1
s.(dp0
Vcyktnni
p1
I1
sVcyrhyq2
p2
I1
s.(dp0
Vcysi3t0
p1
I1
sVcyktnni
p2
I1
s.(dp0
Vcyktnni
p1
I1
sVcytyv8c
p2
I1
s.(dp0
Vcz0e6ap
p1
I1
sVcyktnni
p2
I1
s.(dp0
Vcyktnni
p1
I1
sVcz2p5vo
p2
I1
s.(dp0
Vcyktnni
p1
I1
sVcz474zz
p2
I1
s.(dp0
Vcyktnni
p1
I1
sVcz5iiof
p2
I1
s.(dp0
Vcyktnni
p1
I1
sVcz7s5q7
p2
I1
s.(dp0
Vcyktnni
p1
I1
sVcz892ey
p2
I1
s.(dp0
Vcyktnni
p1
I1
sVcz964rs
p2
I1
s.(dp0
Vcyktnni
p1
I1
sVczblx5r
p2
I1
s.(dp0
Vcyktnni
p1
I1
sVczdwzxz
p2
I1
s.(dp0
Vczfhwzy
p1
I1
sVcyktnni
p2
I1
s.(dp0
Vcyktnni
p1
I1
sVczjpwug
p2
I1
s.(dp0
Vcyktnni
p1
I1
sVczpfwmk
p2
I1
s.(dp0
Vczqal5w
p1
I1
sVcyktnni
p2
I1
s.(dp0
Vcyktnni
p1
I1
sVczx73gz
p2
I1
s.(dp0
Vcyktnni
p1
I1
sVczxgou6
p2
I1
s.(dp0
Vcyktnni
p1
I1
sVczxqb53
p2
I1
s.(dp0
Vcyktnni
p1
I1
sVd030vkm
p2
I1
s.(dp0
Vcyktnni
p1
I1
sVd03lzzh
p2
I1
s.(dp0
Vcyktnni
p1
I1
sVd0dwkri
p2
I1
s.(dp0
Vcyktnni
p1
I1
sVd0eoaf7
p2
I1
s.(dp0
Vcyktnni
p1
I1
sVd0fn58f
p2
I1
s.(dp0
Vcyktnni
p1
I1
sVd0hvdog
p2
I1
s.(dp0
Vcyktnni
p1
I1
sVd0o0gvu
p2
I1
s.(dp0
Vcyktnni
p1
I1
sVd0pg76t
p2
I1
s.(dp0
Vcyktnni
p1
I1
sVd0qu3je
p2
I1
s.(dp0
Vcyktnni
p1
I1
sVd0xpx2i
p2
I1
s.(dp0
Vcyktnni
p1
I1
sVd18q24n
p2
I1
s.(dp0
Vcyktnni
p1
I1
sVd18sug0
p2
I1
s.(dp0
Vcyktnni
p1
I1
sVd1dcy52
p2
I1
s.(dp0
Vcyktnni
p1
I1
sVd1esi85
p2
I1
s.(dp0
Vcyktnni
p1
I1
sVd1h53y2
p2
I1
s.(dp0
Vcyktnni
p1
I1
sVd1lg1gl
p2
I1
s.(dp0
Vcyktnni
p1
I1
sVd1riode
p2
I1
s.(dp0
Vcyktnni
p1
I1
sVd1rqnh8
p2
I1
s.(dp0
Vcyktnni
p1
I1
sVd1wmoga
p2
I1
s.(dp0
Vd24pbwf
p1
I1
sVcyktnni
p2
I1
s.(dp0
Vcyktnni
p1
I1
sVd251hem
p2
I1
s.(dp0
Vcyktnni
p1
I1
sVd274zu7
p2
I1
s.(dp0
Vcyktnni
p1
I1
sVd2eyhhp
p2
I1
s.(dp0
Vcyktnni
p1
I1
sVd2fhgow
p2
I1
s.(dp0
Vd2ips21
p1
I1
sVcyktnni
p2
I1
s.(dp0
Vcyktnni
p1
I1
sVd2iu7ml
p2
I1
s.(dp0
Vcyktnni
p1
I1
sVd2k4q3v
p2
I1
s.(dp0
Vcyktnni
p1
I1
sVd2sv5ip
p2
I1
s.(dp0
Vcyktnni
p1
I1
sVd2u4iee
p2
I1
s.(dp0
Vcyktnni
p1
I1
sVd2w9qza
p2
I1
s.(dp0
Vd2ydd3a
p1
I1
sVcyktnni
p2
I1
s.(dp0
Vcyktnni
p1
I1
sVd30ket8
p2
I1
s.(dp0
Vcyktnni
p1
I1
sVd37chpd
p2
I1
s.(dp0
Vcyktnni
p1
I1
sVd3ae0xe
p2
I1
s.(dp0
Vcyktnni
p1
I1
sVd3c4yc4
p2
I1
s.(dp0
Vcyktnni
p1
I1
sVd3hyn19
p2
I1
s.(dp0
Vcyktnni
p1
I1
sVd3mredn
p2
I1
s.(dp0
Vcyktnni
p1
I1
sVd3mtnyl
p2
I1
s.(dp0
Vcyktnni
p1
I1
sVd3neic6
p2
I1
s.(dp0
Vcyktnni
p1
I1
sVd3njzhf
p2
I1
s.(dp0
Vcyktnni
p1
I1
sVd3oimwt
p2
I1
s.(dp0
Vcyktnni
p1
I1
sVd3tq954
p2
I1
s.(dp0
Vcyktnni
p1
I1
sVd40vf7l
p2
I1
s.(dp0
Vcyktnni
p1
I1
sVd4bbi17
p2
I1
s.(dp0
Vcyktnni
p1
I1
sVd4xqpqn
p2
I1
s.(dp0
Vcyktnni
p1
I1
sVd53uch5
p2
I1
s.(dp0
Vd56z8xp
p1
I1
sVcyktnni
p2
I1
s.(dp0
Vcyktnni
p1
I1
sVd58m0ez
p2
I1
s.(dp0
Vcyktnni
p1
I1
sVd5fqyy3
p2
I1
s.(dp0
Vcyktnni
p1
I1
sVd5ihlgf
p2
I1
s.(dp0
Vcyktnni
p1
I1
sVd5q1hen
p2
I1
s.(dp0
Vcyktnni
p1
I1
sVd5tfanr
p2
I1
s.(dp0
Vcyktnni
p1
I1
sVd5uac6d
p2
I1
s.(dp0
Vcyktnni
p1
I1
sVd5wcveq
p2
I1
s.(dp0
Vcyktnni
p1
I1
sVd5ybft6
p2
I1
s.(dp0
Vcyktnni
p1
I1
sVd671kxn
p2
I1
s.(dp0
Vcyktnni
p1
I1
sVd680wun
p2
I1
s.(dp0
Vcyktnni
p1
I1
sVd6hh7sz
p2
I1
s.(dp0
Vcyktnni
p1
I1
sVd6ksx7d
p2
I1
s.(dp0
Vd6mesr2
p1
I1
sVcyktnni
p2
I1
s.(dp0
Vcyktnni
p1
I1
sVd6qj0mu
p2
I1
s.(dp0
Vcyktnni
p1
I1
sVd6tgpvo
p2
I1
s.(dp0
Vcyktnni
p1
I1
sVd6tjhc1
p2
I1
s.(dp0
Vcyktnni
p1
I1
sVd6u9akq
p2
I1
s.(dp0
Vcyktnni
p1
I1
sVd6wyvcy
p2
I1
s.(dp0
Vcyktnni
p1
I1
sVd72t9he
p2
I1
s.(dp0
Vcyktnni
p1
I1
sVd76etiq
p2
I1
s.(dp0
Vcyktnni
p1
I1
sVd78k85c
p2
I1
s.(dp0
Vcyktnni
p1
I1
sVd78k85c
p2
I1
s.(dp0
Vcyktnni
p1
I1
sVd79a7ui
p2
I1
s.(dp0
Vd7cbmeu
p1
I1
sVcyktnni
p2
I1
s.(dp0
Vcyktnni
p1
I1
sVd7qlgwc
p2
I1
s.(dp0
Vcyktnni
p1
I1
sVd7uttdp
p2
I1
s.(dp0
Vcyktnni
p1
I1
sVd7v8vn5
p2
I1
s.(dp0
Vd80064a
p1
I1
sVcyktnni
p2
I1
s.(dp0
Vd84dedr
p1
I1
sVcyktnni
p2
I1
s.(dp0
Vcyktnni
p1
I1
sVd8ewuc1
p2
I1
s.(dp0
Vcyktnni
p1
I1
sVd8fz4l0
p2
I1
s.(dp0
Vcyktnni
p1
I1
sVd8g2oxe
p2
I1
s.(dp0
Vcyktnni
p1
I1
sVd8nhcfo
p2
I1
s.(dp0
Vcy(dp0
Vcyktnni
p1
I1
sVdtihnia
p2
I1
s.