(dp0
Vcys7v0x
p1
I1
sVd14rhxz
p2
I1
sVdbzdkyv
p3
I1
sVd3jhqad
p4
I1
sVdd7hyjr
p5
I1
sVd1zqtdg
p6
I1
sVd3yue7d
p7
I1
sVdflun74
p8
I1
sVdj3dm9l
p9
I1
sVd9os1zu
p10
I1
sVdilxz2b
p11
I1
sVd3zatsf
p12
I2
sVda7l7if
p13
I1
sVdjgc88q
p14
I1
sVd27lox4
p15
I2
sVdi635q3
p16
I2
sVdhex6b3
p17
I1
sVd4q506t
p18
I1
sVd55xxpw
p19
I1
sVdf0zet0
p20
I1
sVdj4ani4
p21
I1
sVd9d2lau
p22
I1
sVd78xm6s
p23
I1
sVdo9c45j
p24
I1
sVdkpzgyh
p25
I1
sVd60oevm
p26
I1
sVd5urkqx
p27
I2
sVdi55jzu
p28
I1
sVd4ntmhc
p29
I1
sVdmudto0
p30
I1
sVdfhxz1l
p31
I1
sVddf75tq
p32
I1
sVd1t3gm4
p33
I1
sVdbaud8e
p34
I1
sVd2z7sgq
p35
I1
s.