(dp0
Vd0v4jte
p1
I1
sVd4b2egn
p2
I1
sVd7c6d6c
p3
I1
sVd3227x8
p4
I1
sVd2ndu3e
p5
I1
sVdg9ow0t
p6
I1
sVdoqjvke
p7
I1
sVd71jwu9
p8
I1
sVd16i4ry
p9
I1
sVdcnqah1
p10
I1
sVd3yh9et
p11
I1
sVcz9eu5h
p12
I1
sVdsxnbnj
p13
I1
sVdfbz4ju
p14
I1
sVd0a0qll
p15
I1
sVdg1hnl8
p16
I1
sVd74rqnz
p17
I1
sVd2voky9
p18
I1
sVd297mqf
p19
I1
sVd2e094x
p20
I1
sVdfc4awc
p21
I1
sVd6jpo5s
p22
I1
sVd2ge65d
p23
I1
sVczp427d
p24
I1
sVddhk8gr
p25
I1
sVd47nu5v
p26
I1
sVd9igw6y
p27
I1
sVdcpqrdb
p28
I1
sVdmvgzkh
p29
I1
sVd9h3rsv
p30
I1
sVd92i4ae
p31
I1
sVdag4cqa
p32
I1
sVddomgna
p33
I1
sVcz00gos
p34
I1
sVczau3bi
p35
I1
sVd2bx7dq
p36
I2
sVdhlnxrc
p37
I1
sVds7goig
p38
I1
sVcz9udnp
p39
I1
sVd2vs263
p40
I1
sVdbew4jd
p41
I1
sVdo6qpgf
p42
I1
sVdkbyi29
p43
I1
sVdroz4gv
p44
I1
sVdilvphp
p45
I1
sVd1cpxio
p46
I1
s.