(dp0
Vdos3l16
p1
I2
sVdot41g7
p2
I3
sVdd6wvte
p3
I1
sVde42m81
p4
I1
sVddyewed
p5
I1
sVdpqshfa
p6
I1
sVdbals5m
p7
I1
sVdorox9h
p8
I3
sVd6re1q1
p9
I2
sVdjps95g
p10
I1
sVd9qyylz
p11
I1
sVd5lpy59
p12
I1
sVd25ay8v
p13
I1
sVd3mhy03
p14
I1
sVd4kra4u
p15
I1
s.