(dp0
Vdc9l7cc
p1
I1
sVd2fvsv4
p2
I1
sVdkqxtgm
p3
I1
sVdrjpgk1
p4
I1
sVd0h7bez
p5
I1
sVdf5bn4v
p6
I1
sVd6bhu17
p7
I1
sVd2og1o0
p8
I1
sVdalll5k
p9
I1
sVd60pfcx
p10
I9
sVddnfyln
p11
I1
sVdqpyr6y
p12
I1
sVczixff0
p13
I1
sVd8hfddm
p14
I1
sVdcl4x04
p15
I1
sVdms3j9q
p16
I1
sVd3bd8ud
p17
I1
sVd16qbed
p18
I1
sVdau3wpc
p19
I1
sVd9aa6f3
p20
I2
sVdar2qsd
p21
I1
sVdaft0cb
p22
I1
sVd2t5m24
p23
I1
sVda1fjy1
p24
I1
sVczzmtgs
p25
I1
sVdsnku0q
p26
I1
sVdqojtt5
p27
I1
sVdh6xby3
p28
I1
sVczrgfa1
p29
I1
sVdh1b64g
p30
I2
sVczc1irh
p31
I1
sVd6mc3cc
p32
I1
sVdeh8cl4
p33
I1
sVdfqljqt
p34
I1
sVdddzvk5
p35
I1
sVd5my79f
p36
I1
sVdr3mzje
p37
I1
sVd0m92rn
p38
I1
sVdn6t17s
p39
I1
sVdmve8t0
p40
I1
sVd8nikpf
p41
I1
sVdjm6jhx
p42
I1
sVdbewqqx
p43
I1
sVde83o3k
p44
I1
sVczx66bc
p45
I1
sVd5hy4i6
p46
I1
sVdkh7z0x
p47
I8
sVdtee7ox
p48
I1
sVd090u73
p49
I1
sVdiuu9ah
p50
I1
sVdbygcml
p51
I1
sVd8pmwp3
p52
I1
sVd8j45kf
p53
I1
sVdpxrpj9
p54
I1
sVdflgfpg
p55
I1
sVdcj93om
p56
I1
sVd275vij
p57
I1
sVd35a9co
p58
I1
sVd1dax6m
p59
I1
sVd9i56qf
p60
I1
sVdqfsikk
p61
I1
sVdru9amt
p62
I1
sVderck2i
p63
I1
sVd9beqaz
p64
I1
sVd7trgtl
p65
I1
sVd4yq0zd
p66
I1
sVd3fgfy5
p67
I1
sVdarj23t
p68
I1
sVdcauw4a
p69
I1
sVdjzu0zh
p70
I1
sVdkgsq8r
p71
I1
sVd0ykv61
p72
I1
sVde1m3f8
p73
I1
sVdfyqqxr
p74
I1
sVd57ehnc
p75
I1
sVd5moa1e
p76
I1
sVdfwo9yx
p77
I1
sVd3nthm9
p78
I1
sVdhl0qzs
p79
I1
sVd9ntam5
p80
I1
sVd2pvhav
p81
I1
sVddut88q
p82
I1
sVdar00o3
p83
I1
sVczy407u
p84
I1
sVdkxrl6f
p85
I1
sVdd6gxxf
p86
I1
sVd1h5f2p
p87
I1
sVd0fnani
p88
I1
sVdql4n57
p89
I1
sVd857xu0
p90
I1
sVd0cr2bd
p91
I1
sVd95se22
p92
I1
sVd8n64sw
p93
I1
sVdd359ro
p94
I2
sVdtdutdt
p95
I1
sVcyi71it
p96
I1
sVdbso6kk
p97
I1
sVdi5rrgl
p98
I1
sVd136b9w
p99
I1
sVd0ii0l8
p100
I1
sVdf5dqyd
p101
I1
sVd33juk6
p102
I1
sVday91vs
p103
I1
sVdnlzefh
p104
I2
sVd5bkpal
p105
I1
sVd17nfi5
p106
I1
sVd3bfz6t
p107
I1
sVd6hj9sp
p108
I1
sVdggu9ix
p109
I1
sVdgouv13
p110
I1
sVdgno634
p111
I1
sVdd1v0lg
p112
I1
sVd3owe12
p113
I1
sVd2x2pui
p114
I1
sVdde9koc
p115
I1
sVdte7pmq
p116
I1
sVd3pnj50
p117
I1
sVd2askln
p118
I1
sVdq6933d
p119
I1
sVdjlcxra
p120
I1
sVdrtcwby
p121
I1
sVd75q26a
p122
I1
sVd2an49o
p123
I1
sVdj4ti6k
p124
I1
sVdi3bvfm
p125
I1
sVd6x6q9u
p126
I1
sVdtj7ar9
p127
I1
sVdjllz1x
p128
I1
sVdcotcjm
p129
I1
sVd1hiadh
p130
I1
sVd9fa5za
p131
I1
sVd1gmu0q
p132
I1
sVdnjo9l1
p133
I1
sVd4tvcx9
p134
I1
sVd96lenp
p135
I1
sVdcgzd74
p136
I1
sVdeaq6fg
p137
I1
sVd59i4ya
p138
I1
sVdrnsff2
p139
I1
sVd1na8bt
p140
I1
sVcyip3bo
p141
I1
sVdn43hqm
p142
I1
sVdovrn4x
p143
I1
sVdmwkas0
p144
I1
sVdftgtoz
p145
I1
sVd4um4az
p146
I1
sVd1uvb9i
p147
I1
sVdgzh0ng
p148
I1
sVd7tfri6
p149
I1
sVcz9fesx
p150
I1
sVdfk02na
p151
I1
sVdgv4upa
p152
I1
sVd2o76qt
p153
I1
sVd26ozw1
p154
I1
sVd60qx97
p155
I1
sVd0rotnu
p156
I1
sVd2doavk
p157
I1
sVdepfgj9
p158
I1
sVd88yj4m
p159
I1
sVd60q4hn
p160
I1
sVdqa6m17
p161
I1
sVdqdjd7w
p162
I1
sVcytm4j8
p163
I1
sVdgv3efj
p164
I1
sVd77rgts
p165
I1
sVdr48lj0
p166
I1
sVdcfgqpp
p167
I1
sVdq8v9ld
p168
I1
sVczfsrcf
p169
I1
sVdil2gia
p170
I1
sVd039n87
p171
I1
sVdco0qm0
p172
I1
sVdnitln3
p173
I1
sVdcjearc
p174
I1
sVdsibtgp
p175
I1
sVd9uf16y
p176
I1
sVds0hiaj
p177
I1
sVdhgba5b
p178
I1
sVdcqgx74
p179
I1
sVd48tqa5
p180
I1
sVd5nmz9q
p181
I1
sVdb12pam
p182
I1
sVdaqkcey
p183
I2
sVd3wd0km
p184
I1
sVdfj5l8u
p185
I1
sVdfcvwd2
p186
I1
sVcz65rgx
p187
I1
sVd0yfwgp
p188
I1
sVd81el74
p189
I1
sVdk7bv4c
p190
I1
sVdbqrxyu
p191
I2
sVdpn37cc
p192
I1
sVd8z06wb
p193
I1
sVdq25uu9
p194
I1
sVdnlm0uo
p195
I1
sVd7slg3w
p196
I1
sVcyjsu5g
p197
I1
sVd0qw7wc
p198
I1
sVd49ipjl
p199
I1
sVd6he301
p200
I1
sVd047d3t
p201
I1
sVdtdzb1s
p202
I1
sVdalh1jz
p203
I1
sVdsm3na7
p204
I1
sVdjv3pzz
p205
I1
sVdgrvox6
p206
I1
sVd2thm0z
p207
I1
sVdbhi8v3
p208
I1
sVd2tvtex
p209
I1
sVdmilwy8
p210
I1
sVdgnr8ep
p211
I2
sVddjh31b
p212
I2
sVdnkjach
p213
I1
sVd9gsd07
p214
I1
sVd5815vj
p215
I1
sVd3lp5nv
p216
I1
sVd2kxfnt
p217
I1
sVdg2c34m
p218
I2
sVd4qv2s7
p219
I2
sVd626ctp
p220
I1
sVdmhdmvp
p221
I1
sVdr9of1h
p222
I1
sVdiftbng
p223
I1
sVdg6xavq
p224
I1
sVdnzy0gf
p225
I1
sVdiuxolj
p226
I1
sVdmijmy4
p227
I1
sVczi970k
p228
I1
sVd69wq82
p229
I1
sVdcz4nv5
p230
I1
sVd9th1vi
p231
I1
sVd7t0dr6
p232
I1
sVd94t6u6
p233
I1
sVdbd93kf
p234
I1
sVde6vdf8
p235
I1
sVdt2snfr
p236
I1
sVd2qnpd9
p237
I1
sVcyie7b0
p238
I1
sVdam9nx5
p239
I1
sVdp12q5x
p240
I1
sVdcca1lq
p241
I1
sVd9txfpm
p242
I1
sVd1ox7l8
p243
I1
sVdacisz4
p244
I1
sVczzhjsg
p245
I1
sVd1b9hrj
p246
I1
sVd8ogjyg
p247
I1
sVd827q6q
p248
I1
sVddhlg3h
p249
I2
sVd4bfjly
p250
I1
sVd318grv
p251
I1
sVdea6m7m
p252
I1
sVd47ppj1
p253
I1
sVd2lbbqf
p254
I1
sVd2ncjww
p255
I1
sVd0kz5f2
p256
I1
sVdo24fr4
p257
I1
sVd479mzc
p258
I1
sVdfisa6j
p259
I1
sVdjor5hd
p260
I1
sVdtgc2wh
p261
I1
sVdicvl72
p262
I1
sVd0ok5s6
p263
I1
sVdjtm9t6
p264
I1
sVd53vw3a
p265
I1
sVdt1c9ga
p266
I1
s.