(dp0
Vd8gysld
p1
I1
sVd1crz5n
p2
I1
sVdq3t9z0
p3
I1
sVdifow4h
p4
I1
sVd5cptf0
p5
I1
sVdkn9uww
p6
I1
sVdq365fa
p7
I1
sVd0wrd3t
p8
I1
sVdmzbg6y
p9
I1
sVdbh4km2
p10
I1
sVdc9kgan
p11
I1
sVddfo9pb
p12
I1
sVdcyjr61
p13
I1
sVdd4ofe8
p14
I2
sVdkabama
p15
I1
sVd08jm2r
p16
I1
sVcz3kdul
p17
I1
sVdpmqkve
p18
I1
sVd2q6fbl
p19
I1
sVd6rtj7p
p20
I1
sVd2lbf05
p21
I1
sVd43eiun
p22
I1
sVd0squ5g
p23
I2
sVdogvnex
p24
I1
s.