(dp0
Vcziqhro
p1
I1
s.(dp0
Vcziqhro
p1
I2
s.(dp0
Vcziqhro
p1
I2
s.(dp0
Vcziqhro
p1
I2
s.(dp0
Vcziqhro
p1
I1
sVd1bf2cd
p2
I1
s.(dp0
Vcziqhro
p1
I1
sVd1ztxup
p2
I1
s.(dp0
Vcziqhro
p1
I1
sVd1ztxup
p2
I1
s.(dp0
Vcziqhro
p1
I1
sVd3lcwi9
p2
I1
s.(dp0
Vcziqhro
p1
I1
sVd3lcwi9
p2
I1
s.(dp0
Vcziqhro
p1
I1
sVd3lcwi9
p2
I1
s.(dp0
Vcziqhro
p1
I1
sVd3lcwi9
p2
I1
s.(dp0
Vcziqhro
p1
I1
sVd3pnj50
p2
I1
s.(dp0
Vcziqhro
p1
I1
sVd40qa11
p2
I1
s.(dp0
Vcziqhro
p1
I1
sVd7n2yec
p2
I1
s.(dp0
Vd84apzv
p1
I1
sVcziqhro
p2
I1
s.(dp0
Vd84apzv
p1
I1
sVcziqhro
p2
I1
s.(dp0
Vd84apzv
p1
I1
sVcziqhro
p2
I1
s.(dp0
Vd84apzv
p1
I1
sVcziqhro
p2
I1
s.(dp0
Vcziqhro
p1
I1
sVd8aiv2k
p2
I1
s.(dp0
Vd8hm615
p1
I1
sVcziqhro
p2
I1
s.(dp0
Vd8hm615
p1
I1
sVcziqhro
p2
I1
s.(dp0
Vcziqhro
p1
I1
sVdahjpl8
p2
I1
s.(dp0
Vcziqhro
p1
I1
sVdahjpl8
p2
I1
s.(dp0
Vcziqhro
p1
I1
sVdahjpl8
p2
I1
s.(dp0
Vcziqhro
p1
I1
sVdahjpl8
p2
I1
s.(dp0
Vcziqhro
p1
I1
sVdahjpl8
p2
I1
s.(dp0
Vcziqhro
p1
I1
sVdau4kfa
p2
I1
s.(dp0
Vcziqhro
p1
I1
sVdau4kfa
p2
I1
s.(dp0
Vcziqhro
p1
I1
sVdau4kfa
p2
I1
s.(dp0
Vcziqhro
p1
I1
sVdau4kfa
p2
I1
s.(dp0
Vcziqhro
p1
I1
sVdclisbg
p2
I1
s.(dp0
Vcziqhro
p1
I1
sVdekuhwp
p2
I1
s.(dp0
Vcziqhro
p1
I1
sVdel8b7v
p2
I1
s.(dp0
Vcziqhro
p1
I1
sVdfimsqu
p2
I1
s.(dp0
Vcziqhro
p1
I1
sVdgwi3n0
p2
I1
s.(dp0
Vcziqhro
p1
I1
sVdhprn0u
p2
I1
s.(dp0
Vcziqhro
p1
I1
sVdhprn0u
p2
I1
s.(dp0
Vcziqhro
p1
I1
sVdhprn0u
p2
I1
s.(dp0
Vcziqhro
p1
I1
sVdi8u9m0
p2
I1
s.(dp0
Vcziqhro
p1
I1
sVdi8u9m0
p2
I1
s.(dp0
Vcziqhro
p1
I1
sVdi8u9m0
p2
I1
s.(dp0
Vcziqhro
p1
I1
sVdjdhvjd
p2
I1
s.(dp0
Vcziqhro
p1
I1
sVdpmhb5b
p2
I1
s.(dp0
Vcziqhro
p1
I1
sVdsfh293
p2
I1
s.(dp0
Vcziqhro
p1
I1
sVdsfh293
p2
I1
s.