(dp0
Vcyop57c
p1
I1
s.(dp0
Vd04easm
p1
I1
sVcyop57c
p2
I1
s.(dp0
Vd2d9qsa
p1
I1
sVcyop57c
p2
I1
s.(dp0
Vd2d9qsa
p1
I1
sVcyop57c
p2
I1
s.(dp0
Vd8jb2zi
p1
I1
sVcyop57c
p2
I1
s.(dp0
Vd8wi60p
p1
I1
sVcyop57c
p2
I1
s.(dp0
Vd8wi60p
p1
I1
sVcyop57c
p2
I1
s.(dp0
Vd9fkciw
p1
I1
sVcyop57c
p2
I1
s.(dp0
Vd9fkciw
p1
I1
sVcyop57c
p2
I1
s.(dp0
Vd9t99ql
p1
I1
sVcyop57c
p2
I1
s.(dp0
Vdbc4v9g
p1
I1
sVcyop57c
p2
I1
s.(dp0
Vdcj0j5o
p1
I1
sVcyop57c
p2
I1
s.(dp0
Vdcxqw6e
p1
I1
sVcyop57c
p2
I1
s.(dp0
Vddlz47y
p1
I1
sVcyop57c
p2
I1
s.(dp0
Vdjxncaj
p1
I1
sVcyop57c
p2
I1
s.(dp0
Vdkfn490
p1
I1
sVcyop57c
p2
I1
s.(dp0
Vdkfniv0
p1
I1
sVcyop57c
p2
I1
s.(dp0
Vdnusl4h
p1
I1
sVcyop57c
p2
I1
s.(dp0
Vdp3fpyd
p1
I1
sVcyop57c
p2
I1
s.