(dp0
Vd9u0hvt
p1
I1
sVdkq1ich
p2
I1
sVddchth1
p3
I1
sVdpwdw5z
p4
I1
sVd8g1inu
p5
I1
sVd5ak8f0
p6
I1
sVd8vfrvb
p7
I1
sVdp8wwjv
p8
I1
sVd1jxyx9
p9
I1
sVde8w828
p10
I1
sVdcspeen
p11
I1
sVd6ymrcf
p12
I1
sVcyyzwue
p13
I1
sVd44vke8
p14
I1
sVdqeemha
p15
I1
sVd9kgzqx
p16
I1
sVd4hz7tg
p17
I1
sVcymix4n
p18
I1
s.