(dp0
Vdnm3aef
p1
I1
sVdhvjyo5
p2
I1
sVdji3yja
p3
I1
sVd8vfl5i
p4
I1
sVdqrpn5b
p5
I1
sVd91szmp
p6
I1
sVd8rgubu
p7
I1
sVdcenh9f
p8
I1
sVdd854ot
p9
I1
sVde2dkgr
p10
I1
sVdf6wr7e
p11
I1
sVdg2b9me
p12
I1
sVd2463sk
p13
I1
s.