(dp0
Vcyiianv
p1
I1
sVdefv7ro
p2
I1
sVdbpgtvs
p3
I2
sVdbpgj7l
p4
I1
sVdbpgxnx
p5
I1
sVcyrggd3
p6
I1
sVcyka25q
p7
I1
sVd4bm1wz
p8
I1
sVdhopyzv
p9
I1
sVdi64egy
p10
I1
sVd64dt33
p11
I1
sVdioeflh
p12
I1
sVdeb6d5v
p13
I1
sVdf6jao3
p14
I1
sVd3skytq
p15
I1
sVdd5l7yo
p16
I1
sVdi8z5hx
p17
I1
sVdbpmy3r
p18
I3
sVdccguvm
p19
I1
sVdmo94xj
p20
I1
sVd7qvk5r
p21
I1
s.