(dp0
Vdsqq52b
p1
I1
sVdogcooe
p2
I1
sVdketyd0
p3
I1
sVdb5wrv6
p4
I1
sVd2vknfb
p5
I1
sVdcqef66
p6
I1
sVdsqsgia
p7
I7
sVdapefri
p8
I1
sVd6j8ykv
p9
I1
sVdb59j3t
p10
I1
sVd08zj59
p11
I2
sVdhcaa97
p12
I1
sVd2ugk23
p13
I1
sVdenmu2c
p14
I1
sVd8gbyw9
p15
I1
sVcytcbbw
p16
I1
sVdsqs264
p17
I1
sVd71bmx3
p18
I1
s.