(dp0
Vdcpakf1
p1
I1
sVd6n2y2q
p2
I1
sVdg3801l
p3
I1
sVd6okd9a
p4
I1
sVde37a11
p5
I1
sVdi4y6rc
p6
I1
sVd4qv396
p7
I1
sVdetxpja
p8
I1
sVd89shbs
p9
I1
sVdrbh8ld
p10
I1
sVdbntkxv
p11
I1
sVddxqmh2
p12
I3
sVda45z4i
p13
I1
sVd2xepnm
p14
I2
sVd1p573m
p15
I1
sVd30nu3e
p16
I2
sVd8t64um
p17
I1
sVdr7yeav
p18
I1
sVdt9mkyk
p19
I1
sVdba3ox0
p20
I1
sVde8kmnz
p21
I1
sVdcnlrz1
p22
I1
sVd11rgw2
p23
I1
sVdas8xx8
p24
I1
sVdglzzxs
p25
I1
sVd19qh9k
p26
I1
sVczc34bx
p27
I1
sVd5c2vrf
p28
I1
sVdobtlbz
p29
I2
sVdd4li8i
p30
I1
sVdn4ibdd
p31
I1
sVdnujk8q
p32
I1
sVdqm3i7u
p33
I2
sVdhd7ncn
p34
I1
sVd6l6v1v
p35
I1
sVdkqdx1n
p36
I1
sVdn5dm8y
p37
I1
sVd2n3hio
p38
I1
sVd6prqpy
p39
I1
sVdf9144a
p40
I1
sVdp0z5ob
p41
I1
sVd7tws70
p42
I8
sVcynhkjv
p43
I2
sVdh0lbzb
p44
I1
sVde3inzj
p45
I1
sVcz11dq0
p46
I1
sVdbrkin3
p47
I1
sVdaxtxxb
p48
I1
sVdri72ky
p49
I1
sVddgpryi
p50
I2
sVda5hftz
p51
I1
sVd6sng1f
p52
I1
sVdp0lnm2
p53
I1
sVdiiabki
p54
I1
sVd85rc7y
p55
I1
sVdfidbmh
p56
I1
sVd6pipq1
p57
I1
sVde3356r
p58
I1
sVd3vottb
p59
I1
sVd59nwaa
p60
I1
sVcz7febq
p61
I1
sVd6im1dr
p62
I1
sVdcv0baz
p63
I1
sVd1pg1t9
p64
I1
sVczzc1vt
p65
I1
sVd38dqk5
p66
I1
sVd198uwy
p67
I1
sVd8w4hv9
p68
I1
sVdn6ivvx
p69
I1
sVd0eyphl
p70
I1
sVdhywk3h
p71
I1
sVd1dorgp
p72
I1
sVdd84cla
p73
I1
sVdd2chck
p74
I1
sVdimlm5t
p75
I2
sVdre6qxg
p76
I1
sVczlccyh
p77
I2
sVd77wtu4
p78
I1
sVdoyikym
p79
I1
sVdkc1rna
p80
I1
sVdb7xbui
p81
I1
sVd4iephj
p82
I1
sVd1sk6e2
p83
I1
sVdhjsnp0
p84
I2
sVdhr50wk
p85
I1
sVdbwvins
p86
I2
sVcyy3smy
p87
I1
sVdr9iv0j
p88
I1
sVcz12b3o
p89
I1
sVd65mfsw
p90
I1
sVd8hbnsj
p91
I1
sVdbn9a2w
p92
I3
sVdbhkvxo
p93
I3
sVdgkp1m8
p94
I1
sVdcez606
p95
I1
sVdkm5d56
p96
I2
sVdcbdwi6
p97
I1
sVd88yjrz
p98
I1
sVdeyq8vx
p99
I1
sVd5z80xx
p100
I2
sVdsg6ssh
p101
I1
sVdd7923l
p102
I1
sVd7ygezs
p103
I2
sVd1ibg62
p104
I1
sVdj5gz1n
p105
I1
sVd4vj808
p106
I1
sVd12ubyz
p107
I1
sVd1mcq8d
p108
I1
sVde2u7bk
p109
I1
sVd3cp8an
p110
I1
sVdeu7dwu
p111
I1
sVd7wbi36
p112
I1
sVd72l169
p113
I2
sVde1q0lm
p114
I1
sVd7bo9jh
p115
I1
sVdrpi4pk
p116
I1
sVd1syu0l
p117
I1
sVczqzdmd
p118
I1
sVdi3zyey
p119
I1
sVdeisyw3
p120
I1
sVd81ni9f
p121
I1
sVd8och87
p122
I1
sVdhd8033
p123
I1
sVd87paw4
p124
I1
sVd22ct1n
p125
I1
sVdfe76m3
p126
I1
sVdiid6ne
p127
I1
sVdbnlip8
p128
I1
sVdgo9jrg
p129
I1
sVd7o0tnt
p130
I1
sVdapg8pq
p131
I1
sVd11gyxr
p132
I1
sVdhgyfm5
p133
I2
sVd3icdin
p134
I1
sVdsq7ym0
p135
I1
sVdhprya6
p136
I3
sVdgt3kr9
p137
I1
sVdh14nfh
p138
I1
sVd8ipk19
p139
I1
sVdk247e4
p140
I1
sVddj0ap8
p141
I1
sVdf2cbi9
p142
I1
sVder0kfq
p143
I1
sVdbr6dtd
p144
I2
sVdaiv87u
p145
I2
sVdqg93wd
p146
I1
sVdfo0tzp
p147
I1
sVddeysgq
p148
I1
sVd90t4j6
p149
I2
sVd2m7e0i
p150
I1
sVdhdt0fq
p151
I1
sVdmqk46n
p152
I3
sVcynwmds
p153
I1
sVczhpej1
p154
I1
sVd8w42m8
p155
I1
sVdj8lov4
p156
I3
sVdnvv4ne
p157
I1
sVdo5jjhn
p158
I1
sVd9p2w0e
p159
I1
sVdpj3827
p160
I2
sVd4fp24m
p161
I1
sVd51dj50
p162
I1
sVd3y32kx
p163
I1
sVd2hsoh0
p164
I1
sVd27wduo
p165
I1
sVd7mfaom
p166
I1
sVdpcdrzj
p167
I2
sVczcpn2z
p168
I1
sVde9o5ty
p169
I1
sVdautv9f
p170
I2
sVdcv0dnj
p171
I5
sVdspiuia
p172
I1
sVdkn2fv3
p173
I7
sVd995889
p174
I1
sVdd46lnc
p175
I1
sVdpo5jxv
p176
I3
sVdqzxwwr
p177
I2
sVdbjhq70
p178
I1
sVd7gnvje
p179
I1
sVd458b0g
p180
I1
sVcytxz63
p181
I1
sVdas92mt
p182
I1
sVd14malx
p183
I1
sVdmmg6ch
p184
I1
sVddrjvc0
p185
I2
sVdcen7sh
p186
I4
sVd21hesw
p187
I1
sVcyi29ve
p188
I1
sVdoav1xr
p189
I2
sVdflbdti
p190
I1
sVcyse4t9
p191
I1
sVdr73p35
p192
I1
sVdcaneda
p193
I2
sVd3118eh
p194
I3
sVcziwlje
p195
I1
sVcz0mk6b
p196
I1
sVdr7fcpt
p197
I1
sVcz11ip2
p198
I1
sVd12vazg
p199
I1
sVdnt29h1
p200
I1
sVddxwbsc
p201
I1
sVdcij587
p202
I2
sVd14apb2
p203
I8
sVd3drvjo
p204
I1
sVd1e2lyl
p205
I1
sVd92kx3s
p206
I1
sVczkuclr
p207
I1
sVd624oif
p208
I2
sVdp0g6ae
p209
I1
sVczivevq
p210
I1
sVdfurk59
p211
I1
sVd5kjlqf
p212
I1
sVd97c7py
p213
I1
sVdbljwzk
p214
I1
sVdo2v7jy
p215
I1
sVd1jjodx
p216
I2
sVdejftma
p217
I1
sVdpbopww
p218
I1
sVd7njzko
p219
I4
sVddgot2w
p220
I1
sVd0kays4
p221
I1
sVczs9k61
p222
I1
sVdomg0w8
p223
I5
sVdhgwjv9
p224
I2
sVd7fdzcj
p225
I1
sVd6nmz8s
p226
I1
sVdavbnpm
p227
I1
sVdc5fecp
p228
I1
sVd8gqcbx
p229
I3
sVda9sun4
p230
I1
sVde1qecw
p231
I1
sVdirnwev
p232
I1
sVczsx2fv
p233
I1
sVddw8gxf
p234
I2
sVddtt01z
p235
I1
sVcyltfld
p236
I1
sVdbspbld
p237
I1
sVd694zzy
p238
I1
sVdbus9c6
p239
I2
sVd08i0se
p240
I1
sVczdcw11
p241
I1
sVd9e1lph
p242
I4
sVde7q108
p243
I1
sVd3h0zgk
p244
I1
sVd2h63pw
p245
I2
sVd2exevr
p246
I2
sVdd72rmi
p247
I1
sVds7ho5l
p248
I1
sVczrqcn3
p249
I2
sVd9mtbr4
p250
I1
sVdiraiwd
p251
I1
sVd1h4oss
p252
I1
sVcz82ycj
p253
I1
sVd2t1dfw
p254
I1
sVdpsa44e
p255
I1
sVdbe079s
p256
I1
sVd7d68if
p257
I1
sVd1xwu7w
p258
I2
sVdswpa87
p259
I1
sVd7bwcwk
p260
I1
sVdd3z6hz
p261
I1
sVdd49ovv
p262
I1
sVd77pcds
p263
I1
sVdpsc66c
p264
I1
sVd15lmiw
p265
I1
sVd8yal2f
p266
I1
sVd8ol2ad
p267
I1
sVdhex6b3
p268
I1
sVddqn0ue
p269
I1
sVd02vfbx
p270
I1
sVde3ik4n
p271
I1
sVdc9j1tp
p272
I1
sVd49w9cb
p273
I1
sVdcv07un
p274
I1
sVdr3bbwd
p275
I2
sVd1brpcn
p276
I1
sVdccgwp2
p277
I1
sVdaj49xo
p278
I2
sVdad9q0u
p279
I1
sVd7w84nq
p280
I1
sVdsu9vef
p281
I2
sVdg8m0ja
p282
I1
sVd7zezfx
p283
I1
sVcz76yew
p284
I1
sVdf3uqzp
p285
I1
sVczhcb80
p286
I1
sVcyqfef1
p287
I1
sVczzkra6
p288
I1
sVd7qetvu
p289
I1
sVcz2963u
p290
I1
sVd0nbzjy
p291
I2
sVdbh18d1
p292
I1
sVd6uh58u
p293
I2
sVd9yd6ku
p294
I2
sVdne0sm1
p295
I3
sVdgwlwnw
p296
I1
sVd3jvdue
p297
I1
sVdfid6xw
p298
I1
sVde3cq01
p299
I1
sVd2us5y0
p300
I1
sVd3pmrfo
p301
I2
sVdcjyep0
p302
I2
sVdi8xx4c
p303
I1
sVdipl9dy
p304
I1
sVd22zg2e
p305
I1
sVd59l7ox
p306
I1
sVd32p6e9
p307
I1
sVd7mrmqt
p308
I1
sVd3xdu3p
p309
I1
sVd7kpv9l
p310
I1
sVdku9zi4
p311
I1
sVdjujfem
p312
I1
sVdgsd4ho
p313
I1
sVd12ofsl
p314
I1
sVdabhdpe
p315
I5
sVdi9h8zq
p316
I2
sVdbb8wux
p317
I2
sVd2gx8dc
p318
I4
sVd28z7tg
p319
I1
sVdh0j3gk
p320
I1
sVd3wxq7d
p321
I1
sVd0q5qy0
p322
I4
sVd5yuxnm
p323
I2
sVd2b06c2
p324
I1
sVd4mmony
p325
I1
sVczxm0ah
p326
I1
sVd8kbctn
p327
I1
sVd23i7ua
p328
I1
sVd5eqmwh
p329
I2
sVd779qtj
p330
I1
sVczk7lsu
p331
I1
sVdd0k36s
p332
I1
sVdptd3vm
p333
I1
sVdebgddf
p334
I1
sVd83v108
p335
I1
sVd8whjhg
p336
I1
sVd0mmbfq
p337
I1
sVdj4zlae
p338
I1
sVd2v9zug
p339
I1
sVdtc9oab
p340
I1
sVda7x8sf
p341
I1
sVd56gglg
p342
I1
sVdcy2vnw
p343
I1
sVdimjlsb
p344
I1
sVdnsuwiu
p345
I1
sVdb9duba
p346
I2
sVdbrl8b3
p347
I2
sVdgkuwfv
p348
I1
sVd6z22vm
p349
I3
sVcyq1sgm
p350
I1
sVdte4qms
p351
I9
sVdcgn08x
p352
I1
sVczvswui
p353
I1
sVdg5m4gk
p354
I1
sVdb8coi7
p355
I2
sVdhstnmm
p356
I1
sVdf9rnqz
p357
I2
sVdj68bt3
p358
I2
sVd8vtm5k
p359
I2
sVda1g3vn
p360
I1
sVcyibhtc
p361
I6
sVd6sa4l9
p362
I1
sVdof7kso
p363
I1
sVd47cvdx
p364
I1
sVdfzdvei
p365
I1
sVdiwf0a5
p366
I2
sVd55xr1i
p367
I3
sVdn7ptpn
p368
I1
sVd36bdh7
p369
I1
sVd0khjey
p370
I1
sVd69coil
p371
I1
sVdn2vbaj
p372
I1
sVdbum4dj
p373
I1
sVd7oa1ik
p374
I1
sVd0kvwox
p375
I1
sVd7ntx4i
p376
I1
sVdexj1q1
p377
I1
sVcyo97m3
p378
I1
sVdeqw62n
p379
I1
sVd5oy9u4
p380
I1
sVdh1la5o
p381
I1
sVd99rx64
p382
I1
sVdp6dmks
p383
I1
sVdns9fhv
p384
I1
sVddhdpe4
p385
I1
sVd21ddj7
p386
I3
sVdje15lu
p387
I2
sVd62shcb
p388
I1
sVdhhxvxc
p389
I1
sVdn6nt4t
p390
I2
sVddec3b5
p391
I1
sVd4qr3mi
p392
I1
sVdkgryfn
p393
I1
sVdg7gy39
p394
I2
sVdcmffv6
p395
I1
sVd07skfo
p396
I1
sVdgryv9c
p397
I3
sVddo961k
p398
I1
sVd5xnou8
p399
I3
sVcynhgyx
p400
I1
sVd6kapvy
p401
I1
sVda2qu8i
p402
I1
sVddgj265
p403
I4
sVdgefvz1
p404
I1
sVdrogzbj
p405
I1
sVdmot977
p406
I1
sVdn1gl2t
p407
I1
sVdba2gr2
p408
I1
sVdakrrwn
p409
I2
sVdauod0m
p410
I1
sVczncohd
p411
I1
sVdciiwfm
p412
I1
sVdfein78
p413
I1
sVcyq0dyv
p414
I1
sVdpgr9qf
p415
I9
sVd1sb6a0
p416
I1
sVd0sw9wp
p417
I1
sVddhao39
p418
I1
sVdot1l2m
p419
I4
sVdi47mf8
p420
I1
sVdoeu08l
p421
I1
sVdhc9uys
p422
I1
sVdqe01f9
p423
I1
sVdhlf4n7
p424
I1
sVdh4wds8
p425
I1
sVd3slr3g
p426
I1
sVde3sppr
p427
I1
sVdddm0dx
p428
I3
sVdhlvjy4
p429
I1
sVdt9nkwm
p430
I1
sVcz992pr
p431
I1
sVd7jxjqd
p432
I2
sVdje4ehs
p433
I1
sVda81215
p434
I1
sVdrfayxr
p435
I1
sVde5z21u
p436
I2
sVdb1xsyl
p437
I1
sVdiz1db4
p438
I1
sVd2r1ljp
p439
I2
sVd8nnykt
p440
I1
sVd6vbc8u
p441
I1
sVd6hm86h
p442
I2
sVd4o7ziv
p443
I1
sVd31bcvo
p444
I1
sVd0bi6w8
p445
I2
sVd6vklet
p446
I1
sVd1278c0
p447
I1
sVd9k38h2
p448
I1
sVd3xcltr
p449
I1
sVd6ytxim
p450
I1
sVds0qiik
p451
I4
sVdnhwpa2
p452
I1
sVdde3xk6
p453
I1
sVdfy0naj
p454
I2
sVd2650ix
p455
I1
sVd782qva
p456
I1
sVdbhkqv9
p457
I4
sVd958fso
p458
I1
sVcypw9hx
p459
I1
sVd2hdx3c
p460
I1
sVd15ytph
p461
I1
sVddauk13
p462
I1
sVdd3ucww
p463
I1
sVdaxfmpp
p464
I1
sVd9zxcwt
p465
I1
sVdj773zx
p466
I1
sVdbvj4xn
p467
I1
sVd7ju6xd
p468
I1
sVdea2b9t
p469
I1
sVdc4wlyq
p470
I2
sVdte40zn
p471
I2
sVd5rilbz
p472
I2
sVd39dbx7
p473
I1
sVdhjgb6y
p474
I1
sVd03e97s
p475
I2
sVdfds4i4
p476
I2
sVdjrdv68
p477
I1
sVd75m8fz
p478
I1
sVdrrtkqi
p479
I1
sVd4lndya
p480
I1
sVd1d7hna
p481
I1
sVd5jhw6d
p482
I1
sVdi369sl
p483
I1
sVdg3g1qa
p484
I1
sVd7vkdum
p485
I2
sVdasu9mm
p486
I1
sVdc7u7wd
p487
I3
sVdov0c89
p488
I1
sVd4et2h3
p489
I2
sVdg7q27n
p490
I1
sVddhegdw
p491
I1
sVd8nderp
p492
I1
sVd07snk1
p493
I1
sVd6xp36c
p494
I1
sVdey1ug9
p495
I1
sVdgfpkqm
p496
I1
sVd3h7uwh
p497
I1
sVd7b81uo
p498
I3
sVcywm3au
p499
I1
sVd0az9q8
p500
I1
sVddx09fa
p501
I1
sVd3wpui2
p502
I1
sVdaigtfq
p503
I1
sVd1v2fgc
p504
I1
sVdi0fx2a
p505
I1
sVdn76onw
p506
I2
sVdmhwt7i
p507
I1
sVd0f8wor
p508
I1
sVdtbtp3n
p509
I1
sVder3ztg
p510
I1
sVd73kz3l
p511
I1
sVd8m65ac
p512
I1
sVdg34i4f
p513
I1
sVd54a3dx
p514
I1
sVdsujri8
p515
I1
sVdaw8ko2
p516
I1
sVdkmk8zx
p517
I1
sVdsoxc16
p518
I2
sVd5pwsql
p519
I1
sVd17tm54
p520
I1
sVdsbyl0l
p521
I2
sVd8whscs
p522
I1
sVd55ds9k
p523
I1
sVd4myq6g
p524
I1
sVdaknhv2
p525
I1
sVd3ls57d
p526
I1
sVdka1d2k
p527
I1
sVdojmt1s
p528
I1
sVdaucqej
p529
I1
sVdn7jc4f
p530
I1
sVdk8a17u
p531
I2
sVczbmbeb
p532
I1
sVdeb0c2z
p533
I1
sVdbvcgp3
p534
I3
sVdgzckxt
p535
I1
sVd0o2pjd
p536
I1
sVdbjrw4c
p537
I1
sVdkmj48o
p538
I1
sVdq3y4f6
p539
I1
sVdelodgy
p540
I1
sVd7dyd2p
p541
I1
sVdjxu5vp
p542
I1
sVdgesr3w
p543
I1
sVczlsjt6
p544
I1
sVd77zxh0
p545
I1
sVd978t5l
p546
I1
sVd0lt5bu
p547
I1
sVdkz14sk
p548
I1
sVda2glwa
p549
I1
sVd87zh0o
p550
I1
sVd02fjrm
p551
I8
sVde70tyy
p552
I1
sVdoku4u1
p553
I1
sVdes12i1
p554
I1
sVdktiygp
p555
I1
sVdteafns
p556
I1
sVd2g81b4
p557
I1
sVdej02v1
p558
I1
sVdass4s9
p559
I2
sVdj6k8t7
p560
I1
sVdrwnqwf
p561
I1
sVdq3uxly
p562
I1
sVd3ov4fk
p563
I1
sVded29jf
p564
I1
sVd84mixl
p565
I1
sVdo8mz0q
p566
I2
sVd7k99r2
p567
I1
sVdfa9nh1
p568
I1
sVdc90bau
p569
I1
sVd1gib5b
p570
I2
sVd5j2bv8
p571
I2
sVd3c07rn
p572
I1
sVdbeyhbi
p573
I1
sVd6pptg9
p574
I1
sVcylp9ak
p575
I2
sVddemi50
p576
I1
sVd3rtap0
p577
I1
sVd4ro0hk
p578
I1
sVdg7g3ni
p579
I1
sVdhuoyc2
p580
I1
sVdmnjwv1
p581
I1
sVdde0e14
p582
I1
sVdkx9zw0
p583
I1
sVdmsn3ge
p584
I1
sVczp5cvx
p585
I4
sVdprv1kz
p586
I1
sVcz4o82m
p587
I1
sVd3w5d54
p588
I4
sVd7tfgr0
p589
I1
sVd7zlaut
p590
I3
sVdq1zvx6
p591
I1
sVd8bsi4i
p592
I1
sVdopni6w
p593
I1
sVd50ddbt
p594
I1
sVdog7ffw
p595
I1
sVd4pm4ud
p596
I1
sVdc05t4q
p597
I1
sVda7yf29
p598
I1
sVdabgmao
p599
I2
sVcysz7f0
p600
I1
sVdt9ppyi
p601
I1
sVdt27mv2
p602
I1
sVdhjqivx
p603
I1
sVdal3i2w
p604
I1
sVd1pntro
p605
I1
sVd0zu5c6
p606
I1
sVdndlc8o
p607
I1
sVdsbg6yr
p608
I2
sVdcsd9qg
p609
I1
sVd5iuzv6
p610
I1
sVdkm5rac
p611
I1
sVdiek0xl
p612
I1
sVdk10avj
p613
I1
sVdmnss7q
p614
I1
sVd78lt0u
p615
I1
sVdak6wid
p616
I1
sVdmi7sbh
p617
I1
sVdeqw8n0
p618
I1
sVdeajm4a
p619
I1
sVd2vkyoz
p620
I2
sVdhvy6eo
p621
I1
sVd3a13pl
p622
I1
sVdn3mpo8
p623
I1
sVd5g1hxz
p624
I1
sVczdshx0
p625
I1
sVd6jrr2u
p626
I1
sVdatallh
p627
I1
sVdre6l16
p628
I1
sVdrzl3hu
p629
I1
sVdeqwugt
p630
I1
sVd29fhbz
p631
I1
sVd35mh6e
p632
I1
sVdgs8b2s
p633
I1
sVdb5m66u
p634
I1
sVdbygjbn
p635
I4
sVd39er5o
p636
I1
sVcyulozz
p637
I1
sVdrnwcp2
p638
I1
sVd7gxha9
p639
I1
sVd3202e0
p640
I1
sVdh1frj6
p641
I1
sVdezvzqs
p642
I1
sVdjszdol
p643
I1
sVczc848y
p644
I1
sVdmg5xmc
p645
I2
sVdaxxd3b
p646
I1
sVdfb0ydc
p647
I1
sVd9r5ti3
p648
I1
sVdbwokjw
p649
I2
sVdcsx2d5
p650
I1
sVdi8ifal
p651
I1
sVdiqg2hw
p652
I1
sVdgchs0r
p653
I1
sVd6te6u9
p654
I1
sVdo7y24y
p655
I1
sVd8e693m
p656
I1
sVdh6t6bl
p657
I1
sVddqrfs3
p658
I3
sVdpdu1hh
p659
I1
sVdetridp
p660
I1
sVd6wbc26
p661
I1
sVdes5lmc
p662
I1
sVd4ib1wg
p663
I1
sVdnwljkp
p664
I1
sVdkddlxd
p665
I1
sVd7kaqvk
p666
I1
sVd1yadz5
p667
I1
sVd129iio
p668
I1
sVczf6ho8
p669
I2
sVdhi3f8c
p670
I1
sVdo7b7lm
p671
I1
sVdikruut
p672
I1
sVdmpfv2y
p673
I1
sVd3zcv7g
p674
I1
sVcyvci6m
p675
I2
sVdq0qkct
p676
I1
sVdplt42w
p677
I1
sVdr7wpfs
p678
I1
sVdny04f2
p679
I1
sVdf5141z
p680
I1
sVd4usel2
p681
I1
sVde34elx
p682
I1
sVdkf10m9
p683
I1
sVdoron14
p684
I1
sVdctbweq
p685
I1
sVdcx24yq
p686
I1
sVd32bhrj
p687
I1
sVd87pxx2
p688
I4
sVdfikfrz
p689
I1
sVd77e0go
p690
I1
sVcyilftc
p691
I1
sVdbhczeh
p692
I1
sVd97b9eo
p693
I1
sVdi3zqx5
p694
I1
sVd0e9a46
p695
I1
sVd6pr835
p696
I2
sVdekwscb
p697
I1
sVcz2adxv
p698
I2
sVdncsgx2
p699
I1
sVd4ngc19
p700
I1
sVd3wk1f5
p701
I1
sVd3y3afl
p702
I2
sVdf53t1b
p703
I1
sVdbuynrr
p704
I1
sVdd0o1rv
p705
I3
sVdcy864m
p706
I1
sVdc5jxi6
p707
I1
sVd4ycsvq
p708
I2
sVdhds8go
p709
I1
sVd917axx
p710
I1
sVdkr82aj
p711
I1
sVd1pbah3
p712
I1
sVd35p1cu
p713
I2
sVd6lk61z
p714
I1
sVdo4vw2q
p715
I1
sVder8qwg
p716
I1
sVd46tv4g
p717
I2
sVd1ptkh6
p718
I1
sVd1v3skg
p719
I3
sVd7rfa60
p720
I1
sVdi82joi
p721
I2
sVd8m1ds4
p722
I1
sVdc79psa
p723
I1
sVdcxis69
p724
I2
sVd7lw4kw
p725
I1
sVdhng6ak
p726
I1
sVdizxaq7
p727
I1
sVd39uu4u
p728
I1
sVdr6vqz3
p729
I1
sVd70s0yq
p730
I1
sVd3fy86e
p731
I1
sVd3xgzyx
p732
I2
sVdc4e5ym
p733
I2
sVdpokri7
p734
I1
sVdkr0b33
p735
I1
sVdr7a962
p736
I1
sVcz9vurj
p737
I1
sVdh45cw4
p738
I3
sVd3n3m3j
p739
I1
sVdncskuk
p740
I1
sVdfeq35u
p741
I1
sVd4o7xfk
p742
I1
sVdiyivso
p743
I1
sVd2fy75w
p744
I1
sVdjh3f4p
p745
I4
sVd07806y
p746
I1
sVd0qxq5x
p747
I1
sVdf3ne35
p748
I1
sVcyut3x7
p749
I2
sVd52jf7p
p750
I2
sVd9evcjs
p751
I1
sVczzeyfb
p752
I1
sVday11up
p753
I1
sVd9xo464
p754
I1
sVdq04wds
p755
I1
sVde0r6u0
p756
I1
sVd3w6nfk
p757
I3
sVdqy8l54
p758
I1
sVdbus3wp
p759
I1
sVdd51mnh
p760
I1
sVd6ux1t0
p761
I1
sVdgs2hsw
p762
I2
sVd0ws514
p763
I2
sVdibvlez
p764
I1
sVd627s8x
p765
I1
sVdhupqew
p766
I2
sVd0hz48a
p767
I1
sVdjwaa5y
p768
I1
sVdjmijzk
p769
I1
sVdrte0yj
p770
I1
sVd6t38d5
p771
I1
sVdkao9qd
p772
I1
sVdhgqxlt
p773
I1
sVd1smcm6
p774
I1
sVcyujtwo
p775
I1
sVcz1oe83
p776
I2
sVde6m1q2
p777
I2
sVdi2w5et
p778
I1
sVdims0nk
p779
I1
sVd3nzy1m
p780
I1
sVdhos9sn
p781
I1
sVd89fbdg
p782
I1
sVd94orge
p783
I1
sVd65jw0q
p784
I1
sVdbv87t1
p785
I2
sVddgk3yr
p786
I1
sVdo5i7ga
p787
I1
sVczbatpg
p788
I4
sVdf9tvna
p789
I1
sVdgn7ocp
p790
I1
sVdr46e0w
p791
I1
sVd60451y
p792
I2
sVd1nbqxk
p793
I2
sVd96e98k
p794
I1
sVd2ow6in
p795
I1
sVd7sxvge
p796
I4
sVdam9nx5
p797
I1
sVd3op2vn
p798
I3
sVd4dubdo
p799
I1
sVd7qkfk3
p800
I1
sVdf7vg99
p801
I1
sVd5giklg
p802
I3
sVcyjli9b
p803
I1
sVd1d1y8l
p804
I1
sVcykvzjh
p805
I1
sVdrq1d1g
p806
I1
sVd1298p7
p807
I1
sVdhvdttw
p808
I1
sVd29p0yp
p809
I1
sVdeabnpy
p810
I1
sVdp6xt17
p811
I1
sVczbamqb
p812
I1
sVd1mk8a1
p813
I2
sVd3nlvc4
p814
I2
sVde3nwoj
p815
I1
sVdsxyrbn
p816
I1
s.