(dp0
Vcyvfap4
p1
I1
s.(dp0
Vd0r232j
p1
I1
sVcyvfap4
p2
I1
s.(dp0
Vd3s4h80
p1
I1
sVcyvfap4
p2
I1
s.(dp0
Vdhrc9y7
p1
I1
sVcyvfap4
p2
I1
s.(dp0
Vdkpmbci
p1
I1
sVcyvfap4
p2
I1
s.(dp0
Vdnebxv3
p1
I1
sVcyvfap4
p2
I1
s.(dp0
Vdnebxv3
p1
I1
sVcyvfap4
p2
I1
s.(dp0
Vdnjnxdu
p1
I1
sVcyvfap4
p2
I1
s.(dp0
Vdo2qtef
p1
I1
sVcyvfap4
p2
I1
s.(dp0
Vdpcjsj6
p1
I1
sVcyvfap4
p2
I1
s.(dp0
Vdphuueg
p1
I1
sVcyvfap4
p2
I1
s.(dp0
Vdplyfgd
p1
I1
sVcyvfap4
p2
I1
s.