(dp0
Vcyka2z1
p1
I1
s.(dp0
Vcyka2z1
p1
I2
s.(dp0
Vcykt1qv
p1
I1
sVcyka2z1
p2
I1
s.(dp0
Vcyka2z1
p1
I1
sVcynmma0
p2
I1
s.(dp0
Vcyka2z1
p1
I1
sVcynx73u
p2
I1
s.(dp0
Vcyolib3
p1
I1
sVcyka2z1
p2
I1
s.(dp0
Vcyka2z1
p1
I1
sVcyoljrj
p2
I1
s.(dp0
Vcyka2z1
p1
I1
sVcypnhln
p2
I1
s.(dp0
Vcyka2z1
p1
I1
sVcypnhln
p2
I1
s.(dp0
Vcyka2z1
p1
I1
sVcyqtn1l
p2
I1
s.(dp0
Vcyka2z1
p1
I1
sVcysl0ol
p2
I1
s.(dp0
Vcyka2z1
p1
I1
sVcysook6
p2
I1
s.(dp0
Vcyka2z1
p1
I1
sVcysook6
p2
I1
s.(dp0
Vcyw1891
p1
I1
sVcyka2z1
p2
I1
s.(dp0
Vcyw1891
p1
I1
sVcyka2z1
p2
I1
s.(dp0
Vcyka2z1
p1
I1
sVcyxredd
p2
I1
s.(dp0
Vcz1x015
p1
I1
sVcyka2z1
p2
I1
s.(dp0
Vcyka2z1
p1
I1
sVcz2cefl
p2
I1
s.(dp0
Vcyka2z1
p1
I1
sVcz3koxa
p2
I1
s.(dp0
Vcyka2z1
p1
I1
sVcz3koxa
p2
I1
s.(dp0
Vcyka2z1
p1
I1
sVcz43j31
p2
I1
s.(dp0
Vcz4fncj
p1
I1
sVcyka2z1
p2
I1
s.(dp0
Vcz4fncj
p1
I1
sVcyka2z1
p2
I1
s.(dp0
Vcz4yu4u
p1
I1
sVcyka2z1
p2
I1
s.(dp0
Vcz4yu4u
p1
I1
sVcyka2z1
p2
I1
s.(dp0
Vcyka2z1
p1
I1
sVcz6al7d
p2
I1
s.(dp0
Vcyka2z1
p1
I1
sVcz6al7d
p2
I1
s.(dp0
Vcyka2z1
p1
I1
sVcz8vxmb
p2
I1
s.(dp0
Vcyka2z1
p1
I1
sVcz9sxfr
p2
I1
s.(dp0
Vcyka2z1
p1
I1
sVcz9unjn
p2
I1
s.(dp0
Vczaqbai
p1
I1
sVcyka2z1
p2
I1
s.(dp0
Vcyka2z1
p1
I1
sVczc2y4d
p2
I1
s.(dp0
Vcyka2z1
p1
I1
sVczc2y4d
p2
I1
s.(dp0
Vcyka2z1
p1
I1
sVczc3to7
p2
I1
s.(dp0
Vcyka2z1
p1
I1
sVczc6oj8
p2
I1
s.(dp0
Vczdmfdb
p1
I1
sVcyka2z1
p2
I1
s.(dp0
Vcyka2z1
p1
I1
sVczeje32
p2
I1
s.(dp0
Vcyka2z1
p1
I1
sVczeje32
p2
I1
s.(dp0
Vcyka2z1
p1
I1
sVczeje32
p2
I1
s.(dp0
Vczfni20
p1
I1
sVcyka2z1
p2
I1
s.(dp0
Vczfni20
p1
I1
sVcyka2z1
p2
I1
s.(dp0
Vcyka2z1
p1
I1
sVczfo3nk
p2
I1
s.(dp0
Vcyka2z1
p1
I1
sVczggp84
p2
I1
s.(dp0
Vczne6p8
p1
I1
sVcyka2z1
p2
I1
s.(dp0
Vczne6p8
p1
I1
sVcyka2z1
p2
I1
s.(dp0
Vczne6p8
p1
I1
sVcyka2z1
p2
I1
s.(dp0
Vcyka2z1
p1
I1
sVczngp82
p2
I1
s.(dp0
Vcyka2z1
p1
I1
sVczyqtt1
p2
I1
s.(dp0
Vcyka2z1
p1
I1
sVczyqtt1
p2
I1
s.(dp0
Vczz5818
p1
I1
sVcyka2z1
p2
I1
s.(dp0
Vcyka2z1
p1
I1
sVczz69u3
p2
I1
s.(dp0
Vcyka2z1
p1
I1
sVczz69u3
p2
I1
s.(dp0
Vcyka2z1
p1
I1
sVd03muna
p2
I1
s.(dp0
Vcyka2z1
p1
I1
sVd03zd1r
p2
I1
s.(dp0
Vcyka2z1
p1
I1
sVd047fnh
p2
I1
s.(dp0
Vcyka2z1
p1
I1
sVd047fnh
p2
I1
s.(dp0
Vcyka2z1
p1
I1
sVd047fnh
p2
I1
s.(dp0
Vcyka2z1
p1
I1
sVd047fnh
p2
I1
s.(dp0
Vcyka2z1
p1
I1
sVd047fnh
p2
I1
s.(dp0
Vcyka2z1
p1
I1
sVd047fnh
p2
I1
s.(dp0
Vcyka2z1
p1
I1
sVd04899g
p2
I1
s.(dp0
Vcyka2z1
p1
I1
sVd04899g
p2
I1
s.(dp0
Vd05fsks
p1
I1
sVcyka2z1
p2
I1
s.(dp0
Vd071yy1
p1
I1
sVcyka2z1
p2
I1
s.(dp0
Vcyka2z1
p1
I1
sVd07l69t
p2
I1
s.(dp0
Vcyka2z1
p1
I1
sVd09954b
p2
I1
s.(dp0
Vd09ml4x
p1
I1
sVcyka2z1
p2
I1
s.(dp0
Vd09ml4x
p1
I1
sVcyka2z1
p2
I1
s.(dp0
Vd0amg68
p1
I1
sVcyka2z1
p2
I1
s.(dp0
Vcyka2z1
p1
I1
sVd0atf6k
p2
I1
s.(dp0
Vcyka2z1
p1
I1
sVd0atf6k
p2
I1
s.(dp0
Vcyka2z1
p1
I1
sVd0cviq2
p2
I1
s.(dp0
Vd0e4ixj
p1
I1
sVcyka2z1
p2
I1
s.(dp0
Vcyka2z1
p1
I1
sVd0i7v4o
p2
I1
s.(dp0
Vcyka2z1
p1
I1
sVd0mdot6
p2
I1
s.(dp0
Vcyka2z1
p1
I1
sVd0prikk
p2
I1
s.(dp0
Vd0pwt7n
p1
I1
sVcyka2z1
p2
I1
s.(dp0
Vcyka2z1
p1
I1
sVd0tdqyp
p2
I1
s.(dp0
Vd0tyl66
p1
I1
sVcyka2z1
p2
I1
s.(dp0
Vd0tyl66
p1
I1
sVcyka2z1
p2
I1
s.(dp0
Vcyka2z1
p1
I1
sVd0u2a20
p2
I1
s.(dp0
Vcyka2z1
p1
I1
sVd0whct9
p2
I1
s.(dp0
Vcyka2z1
p1
I1
sVd0xdmiv
p2
I1
s.(dp0
Vcyka2z1
p1
I1
sVd0ylw1b
p2
I1
s.(dp0
Vcyka2z1
p1
I1
sVd0ylw1b
p2
I1
s.(dp0
Vcyka2z1
p1
I1
sVd0yrvpj
p2
I1
s.(dp0
Vcyka2z1
p1
I1
sVd0ys01j
p2
I1
s.(dp0
Vd0yskno
p1
I1
sVcyka2z1
p2
I1
s.(dp0
Vcyka2z1
p1
I1
sVd0yusm5
p2
I1
s.(dp0
Vcyka2z1
p1
I1
sVd10gr2f
p2
I1
s.(dp0
Vcyka2z1
p1
I1
sVd10hd2e
p2
I1
s.(dp0
Vcyka2z1
p1
I1
sVd10hd2e
p2
I1
s.(dp0
Vcyka2z1
p1
I1
sVd10hd2e
p2
I1
s.(dp0
Vcyka2z1
p1
I1
sVd10kf2q
p2
I1
s.(dp0
Vcyka2z1
p1
I1
sVd10kf2q
p2
I1
s.(dp0
Vcyka2z1
p1
I1
sVd10kf2q
p2
I1
s.(dp0
Vd10koa4
p1
I1
sVcyka2z1
p2
I1
s.(dp0
Vd10m0ym
p1
I1
sVcyka2z1
p2
I1
s.(dp0
Vd10m0ym
p1
I1
sVcyka2z1
p2
I1
s.(dp0
Vcyka2z1
p1
I1
sVd14qjfs
p2
I1
s.(dp0
Vd156lbl
p1
I1
sVcyka2z1
p2
I1
s.(dp0
Vcyka2z1
p1
I1
sVd17r19e
p2
I1
s.(dp0
Vcyka2z1
p1
I1
sVd17r19e
p2
I1
s.(dp0
Vcyka2z1
p1
I1
sVd1952bp
p2
I1
s.(dp0
Vcyka2z1
p1
I1
sVd1952bp
p2
I1
s.(dp0
Vcyka2z1
p1
I1
sVd1952bp
p2
I1
s.(dp0
Vcyka2z1
p1
I1
sVd1e55z7
p2
I1
s.(dp0
Vcyka2z1
p1
I1
sVd1ets1c
p2
I1
s.(dp0
Vcyka2z1
p1
I1
sVd1(dp0
Vcyka2z1
p1
I1
sVdopjqym
p2
I1
s.