(dp0
Vcypb664
p1
I1
s.(dp0
Vcypb664
p1
I1
sVcyq1ffs
p2
I1
s.(dp0
Vcypb664
p1
I1
sVcyqhzw2
p2
I1
s.(dp0
Vcypb664
p1
I1
sVcyr4rej
p2
I1
s.(dp0
Vcypb664
p1
I1
sVcys7z6v
p2
I1
s.(dp0
Vcypb664
p1
I1
sVcys7z6v
p2
I1
s.(dp0
Vcypb664
p1
I1
sVcys7z6v
p2
I1
s.(dp0
Vcypb664
p1
I1
sVcys7z6v
p2
I1
s.(dp0
Vcypb664
p1
I1
sVcys7z6v
p2
I1
s.(dp0
Vcypb664
p1
I1
sVcywfcx9
p2
I1
s.(dp0
Vcywz45u
p1
I1
sVcypb664
p2
I1
s.(dp0
Vcypb664
p1
I1
sVcyxt381
p2
I1
s.(dp0
Vcypb664
p1
I1
sVcyxt381
p2
I1
s.(dp0
Vcypb664
p1
I1
sVcyz1q0e
p2
I1
s.(dp0
Vcypb664
p1
I1
sVcyz4y8j
p2
I1
s.(dp0
Vcypb664
p1
I1
sVcyz4y8j
p2
I1
s.(dp0
Vcypb664
p1
I1
sVcz28itb
p2
I1
s.(dp0
Vcypb664
p1
I1
sVcz2y2ju
p2
I1
s.(dp0
Vcypb664
p1
I1
sVcz97prw
p2
I1
s.(dp0
Vcypb664
p1
I1
sVcz9g5fh
p2
I1
s.(dp0
Vcypb664
p1
I1
sVcz9xkhr
p2
I1
s.(dp0
Vcypb664
p1
I1
sVczav3zi
p2
I1
s.(dp0
Vcypb664
p1
I1
sVczcdn1u
p2
I1
s.(dp0
Vczd9qsq
p1
I1
sVcypb664
p2
I1
s.(dp0
Vcypb664
p1
I1
sVcze8jmc
p2
I1
s.(dp0
Vcypb664
p1
I1
sVczeemms
p2
I1
s.(dp0
Vczhlwdi
p1
I1
sVcypb664
p2
I1
s.(dp0
Vcypb664
p1
I1
sVczhoi07
p2
I1
s.(dp0
Vcypb664
p1
I1
sVczifpw7
p2
I1
s.(dp0
Vcypb664
p1
I1
sVczjkkw0
p2
I1
s.(dp0
Vcypb664
p1
I1
sVczllrrk
p2
I1
s.(dp0
Vcypb664
p1
I1
sVczllrrk
p2
I1
s.(dp0
Vcypb664
p1
I1
sVd077k13
p2
I1
s.(dp0
Vcypb664
p1
I1
sVd08yxvo
p2
I1
s.(dp0
Vcypb664
p1
I1
sVd0bmanu
p2
I1
s.(dp0
Vcypb664
p1
I1
sVd0buoi3
p2
I1
s.(dp0
Vcypb664
p1
I1
sVd0cgwul
p2
I1
s.(dp0
Vcypb664
p1
I1
sVd0dlzq4
p2
I1
s.(dp0
Vd0gpq1r
p1
I1
sVcypb664
p2
I1
s.(dp0
Vcypb664
p1
I1
sVd0i0dun
p2
I1
s.(dp0
Vcypb664
p1
I1
sVd0iablx
p2
I1
s.(dp0
Vcypb664
p1
I1
sVd0iy6oo
p2
I1
s.(dp0
Vcypb664
p1
I1
sVd0jzd0d
p2
I1
s.(dp0
Vcypb664
p1
I1
sVd0p4y5t
p2
I1
s.(dp0
Vcypb664
p1
I1
sVd0qpoai
p2
I1
s.(dp0
Vd0rr1yy
p1
I1
sVcypb664
p2
I1
s.(dp0
Vcypb664
p1
I1
sVd0t785j
p2
I1
s.(dp0
Vcypb664
p1
I1
sVd0tjukn
p2
I1
s.(dp0
Vcypb664
p1
I1
sVd0u7hv6
p2
I1
s.(dp0
Vcypb664
p1
I1
sVd0vruvq
p2
I1
s.(dp0
Vd0z4v7n
p1
I1
sVcypb664
p2
I1
s.(dp0
Vcypb664
p1
I1
sVd0zs93f
p2
I1
s.(dp0
Vcypb664
p1
I1
sVd125e2a
p2
I1
s.(dp0
Vcypb664
p1
I1
sVd19h36g
p2
I1
s.(dp0
Vcypb664
p1
I1
sVd1k5xmo
p2
I1
s.(dp0
Vcypb664
p1
I1
sVd1lm4uj
p2
I1
s.(dp0
Vcypb664
p1
I1
sVd1lo6uc
p2
I1
s.(dp0
Vcypb664
p1
I1
sVd1q0os3
p2
I1
s.(dp0
Vcypb664
p1
I1
sVd1qok8w
p2
I1
s.(dp0
Vcypb664
p1
I1
sVd1so35r
p2
I1
s.(dp0
Vcypb664
p1
I1
sVd202nvf
p2
I1
s.(dp0
Vcypb664
p1
I1
sVd20fl06
p2
I1
s.(dp0
Vd21ls3z
p1
I1
sVcypb664
p2
I1
s.(dp0
Vcypb664
p1
I1
sVd259t2w
p2
I1
s.(dp0
Vcypb664
p1
I1
sVd25mjfl
p2
I1
s.(dp0
Vd28zn23
p1
I1
sVcypb664
p2
I1
s.(dp0
Vd28zn23
p1
I1
sVcypb664
p2
I1
s.(dp0
Vcypb664
p1
I1
sVd2ac0bp
p2
I1
s.(dp0
Vcypb664
p1
I1
sVd2ac0bp
p2
I1
s.(dp0
Vcypb664
p1
I1
sVd2ac5r5
p2
I1
s.(dp0
Vcypb664
p1
I1
sVd2bxnzb
p2
I1
s.(dp0
Vcypb664
p1
I1
sVd2cpcft
p2
I1
s.(dp0
Vcypb664
p1
I1
sVd2e3zes
p2
I1
s.(dp0
Vcypb664
p1
I1
sVd2gpbwl
p2
I1
s.(dp0
Vcypb664
p1
I1
sVd2nomb2
p2
I1
s.(dp0
Vcypb664
p1
I1
sVd2p8hha
p2
I1
s.(dp0
Vcypb664
p1
I1
sVd2vm0m5
p2
I1
s.(dp0
Vcypb664
p1
I1
sVd342blp
p2
I1
s.(dp0
Vcypb664
p1
I1
sVd35ul5e
p2
I1
s.(dp0
Vcypb664
p1
I1
sVd35ylb6
p2
I1
s.(dp0
Vcypb664
p1
I1
sVd3aqioz
p2
I1
s.(dp0
Vcypb664
p1
I1
sVd3fckqt
p2
I1
s.(dp0
Vcypb664
p1
I1
sVd3fexif
p2
I1
s.(dp0
Vcypb664
p1
I1
sVd3gun07
p2
I1
s.(dp0
Vcypb664
p1
I1
sVd3lk2dn
p2
I1
s.(dp0
Vcypb664
p1
I1
sVd3yulry
p2
I1
s.(dp0
Vcypb664
p1
I1
sVd4i5u5z
p2
I1
s.(dp0
Vcypb664
p1
I1
sVd4lfv89
p2
I1
s.(dp0
Vcypb664
p1
I1
sVd4ph413
p2
I1
s.(dp0
Vcypb664
p1
I1
sVd4rv81o
p2
I1
s.(dp0
Vcypb664
p1
I1
sVd4w49q5
p2
I1
s.(dp0
Vcypb664
p1
I1
sVd4zm6b5
p2
I1
s.(dp0
Vcypb664
p1
I1
sVd51zqn2
p2
I1
s.(dp0
Vcypb664
p1
I1
sVd57ojj9
p2
I1
s.(dp0
Vcypb664
p1
I1
sVd57rjpf
p2
I1
s.(dp0
Vcypb664
p1
I1
sVd57rjpf
p2
I1
s.(dp0
Vcypb664
p1
I1
sVd57v8ki
p2
I1
s.(dp0
Vcypb664
p1
I1
sVd57xmc2
p2
I1
s.(dp0
Vcypb664
p1
I1
sVd586mym
p2
I1
s.(dp0
Vcypb664
p1
I1
sVd5eee3y
p2
I1
s.(dp0
Vcypb664
p1
I1
sVd5eu1bg
p2
I1
s.(dp0
Vcypb664
p1
I1
sVd5eu1bg
p2
I1
s.(dp0
Vcypb664
p1
I1
sVd5imwd9
p2
I1
s.(dp0
Vcypb664
p1
I1
sVd5szr4l
p2
I1
s.(dp0
Vcypb664
p1
I1
sVd5szr4l
p2
I1
s.(dp0
Vcypb664
p1
I1
sVd5t32rt
p2
I1
s.(dp0
Vcypb664
p1
I1
sVd5vlmds
p2
I1
s.(dp0
Vcypb664
p1
I1
sVd5vpm5o
p2
I1
s.(dp0
Vcy(dp0
Vcypb664
p1
I1
sVdkz7mem
p2
I1
s.