(dp0
Vcyi9oo4
p1
I1
s.(dp0
Vcyilszb
p1
I1
sVcyi9oo4
p2
I1
s.(dp0
Vcyion75
p1
I1
sVcyi9oo4
p2
I1
s.(dp0
Vcyjdabr
p1
I1
sVcyi9oo4
p2
I1
s.(dp0
Vcyjn9xp
p1
I1
sVcyi9oo4
p2
I1
s.(dp0
Vcyk24of
p1
I1
sVcyi9oo4
p2
I1
s.(dp0
Vcykcgnx
p1
I1
sVcyi9oo4
p2
I1
s.(dp0
Vcykg2gc
p1
I1
sVcyi9oo4
p2
I1
s.(dp0
Vcykgsbi
p1
I1
sVcyi9oo4
p2
I1
s.(dp0
Vcykh2ue
p1
I1
sVcyi9oo4
p2
I1
s.(dp0
Vcykhjm2
p1
I1
sVcyi9oo4
p2
I1
s.(dp0
Vcykqzwk
p1
I1
sVcyi9oo4
p2
I1
s.(dp0
Vcyl39sj
p1
I1
sVcyi9oo4
p2
I1
s.(dp0
Vcyllghk
p1
I1
sVcyi9oo4
p2
I1
s.(dp0
Vcylm2db
p1
I1
sVcyi9oo4
p2
I1
s.(dp0
Vcylqjhc
p1
I1
sVcyi9oo4
p2
I1
s.(dp0
Vcylrkg7
p1
I1
sVcyi9oo4
p2
I1
s.(dp0
Vcylrkg7
p1
I1
sVcyi9oo4
p2
I1
s.(dp0
Vcylrkg7
p1
I1
sVcyi9oo4
p2
I1
s.(dp0
Vcyls1aw
p1
I1
sVcyi9oo4
p2
I1
s.(dp0
Vcymjo7s
p1
I1
sVcyi9oo4
p2
I1
s.(dp0
Vcymjo7s
p1
I1
sVcyi9oo4
p2
I1
s.(dp0
Vcyntlas
p1
I1
sVcyi9oo4
p2
I1
s.(dp0
Vcyoucky
p1
I1
sVcyi9oo4
p2
I1
s.(dp0
Vcyoucky
p1
I1
sVcyi9oo4
p2
I1
s.(dp0
Vcyoucky
p1
I1
sVcyi9oo4
p2
I1
s.(dp0
Vcyovs6q
p1
I1
sVcyi9oo4
p2
I1
s.(dp0
Vcypbd0a
p1
I1
sVcyi9oo4
p2
I1
s.(dp0
Vcyposws
p1
I1
sVcyi9oo4
p2
I1
s.(dp0
Vcypqvph
p1
I1
sVcyi9oo4
p2
I1
s.(dp0
Vcypxptn
p1
I1
sVcyi9oo4
p2
I1
s.(dp0
Vcyq7r6u
p1
I1
sVcyi9oo4
p2
I1
s.(dp0
Vcyra2ua
p1
I1
sVcyi9oo4
p2
I1
s.(dp0
Vcyrmqip
p1
I1
sVcyi9oo4
p2
I1
s.(dp0
Vcyrmqip
p1
I1
sVcyi9oo4
p2
I1
s.(dp0
Vcyrrsuf
p1
I1
sVcyi9oo4
p2
I1
s.(dp0
Vcys4gyq
p1
I1
sVcyi9oo4
p2
I1
s.(dp0
Vcys4gyq
p1
I1
sVcyi9oo4
p2
I1
s.(dp0
Vcys7ie3
p1
I1
sVcyi9oo4
p2
I1
s.(dp0
Vcysi8sk
p1
I1
sVcyi9oo4
p2
I1
s.(dp0
Vcyst3hm
p1
I1
sVcyi9oo4
p2
I1
s.(dp0
Vcyt9djt
p1
I1
sVcyi9oo4
p2
I1
s.(dp0
Vcytsn8o
p1
I1
sVcyi9oo4
p2
I1
s.(dp0
Vcyu0c9o
p1
I1
sVcyi9oo4
p2
I1
s.(dp0
Vcyu69mb
p1
I1
sVcyi9oo4
p2
I1
s.(dp0
Vcyuu51w
p1
I1
sVcyi9oo4
p2
I1
s.(dp0
Vcyvd6xl
p1
I1
sVcyi9oo4
p2
I1
s.(dp0
Vcyvi859
p1
I1
sVcyi9oo4
p2
I1
s.(dp0
Vcyvrvxg
p1
I1
sVcyi9oo4
p2
I1
s.(dp0
Vcyw9k5k
p1
I1
sVcyi9oo4
p2
I1
s.(dp0
Vcyweuv6
p1
I1
sVcyi9oo4
p2
I1
s.(dp0
Vcywigrt
p1
I1
sVcyi9oo4
p2
I1
s.(dp0
Vcywmh9t
p1
I1
sVcyi9oo4
p2
I1
s.(dp0
Vcywpmlk
p1
I1
sVcyi9oo4
p2
I1
s.(dp0
Vcywpmlk
p1
I1
sVcyi9oo4
p2
I1
s.(dp0
Vcywpmlk
p1
I1
sVcyi9oo4
p2
I1
s.(dp0
Vcywpov9
p1
I1
sVcyi9oo4
p2
I1
s.(dp0
Vcywpov9
p1
I1
sVcyi9oo4
p2
I1
s.(dp0
Vcywqrlk
p1
I1
sVcyi9oo4
p2
I1
s.(dp0
Vcyx516f
p1
I1
sVcyi9oo4
p2
I1
s.(dp0
Vcyxa3p0
p1
I1
sVcyi9oo4
p2
I1
s.(dp0
Vcyxd5mj
p1
I1
sVcyi9oo4
p2
I1
s.(dp0
Vcyxplxo
p1
I1
sVcyi9oo4
p2
I1
s.(dp0
Vcyxtyjl
p1
I1
sVcyi9oo4
p2
I1
s.(dp0
Vcyy1m83
p1
I1
sVcyi9oo4
p2
I1
s.(dp0
Vcyy1p1m
p1
I1
sVcyi9oo4
p2
I1
s.(dp0
Vcyymm51
p1
I1
sVcyi9oo4
p2
I1
s.(dp0
Vcyz38o0
p1
I1
sVcyi9oo4
p2
I1
s.(dp0
Vcyza85u
p1
I1
sVcyi9oo4
p2
I1
s.(dp0
Vcyzydst
p1
I1
sVcyi9oo4
p2
I1
s.(dp0
Vcz020n2
p1
I1
sVcyi9oo4
p2
I1
s.(dp0
Vcz020n2
p1
I1
sVcyi9oo4
p2
I1
s.(dp0
Vcz13rd1
p1
I1
sVcyi9oo4
p2
I1
s.(dp0
Vcz17hqh
p1
I1
sVcyi9oo4
p2
I1
s.(dp0
Vcz1ba79
p1
I1
sVcyi9oo4
p2
I1
s.(dp0
Vcz1fhze
p1
I1
sVcyi9oo4
p2
I1
s.(dp0
Vcz1naev
p1
I1
sVcyi9oo4
p2
I1
s.(dp0
Vcz1xyxt
p1
I1
sVcyi9oo4
p2
I1
s.(dp0
Vcz1xyxt
p1
I1
sVcyi9oo4
p2
I1
s.(dp0
Vcz20cac
p1
I1
sVcyi9oo4
p2
I1
s.(dp0
Vcz28itb
p1
I1
sVcyi9oo4
p2
I1
s.(dp0
Vcz2tcbu
p1
I1
sVcyi9oo4
p2
I1
s.(dp0
Vcz34b1o
p1
I1
sVcyi9oo4
p2
I1
s.(dp0
Vcz3u62d
p1
I1
sVcyi9oo4
p2
I1
s.(dp0
Vcz4feas
p1
I1
sVcyi9oo4
p2
I1
s.(dp0
Vcz4gya0
p1
I1
sVcyi9oo4
p2
I1
s.(dp0
Vcz4itrc
p1
I1
sVcyi9oo4
p2
I1
s.(dp0
Vcz4jhs6
p1
I1
sVcyi9oo4
p2
I1
s.(dp0
Vcz5c8l9
p1
I1
sVcyi9oo4
p2
I1
s.(dp0
Vcz5cilo
p1
I1
sVcyi9oo4
p2
I1
s.(dp0
Vcz6egiv
p1
I1
sVcyi9oo4
p2
I1
s.(dp0
Vcz6hne2
p1
I1
sVcyi9oo4
p2
I1
s.(dp0
Vcz6llu6
p1
I1
sVcyi9oo4
p2
I1
s.(dp0
Vcz6zwhy
p1
I1
sVcyi9oo4
p2
I1
s.(dp0
Vcz7hdee
p1
I1
sVcyi9oo4
p2
I1
s.(dp0
Vcz7q8g4
p1
I1
sVcyi9oo4
p2
I1
s.(dp0
Vcz7q8g4
p1
I1
sVcyi9oo4
p2
I1
s.(dp0
Vcz7rv9f
p1
I1
sVcyi9oo4
p2
I1
s.(dp0
Vcz84a9i
p1
I1
sVcyi9oo4
p2
I1
s.(dp0
Vcz8g9zg
p1
I1
sVcyi9oo4
p2
I1
s.(dp0
Vcz8s96x
p1
I1
sVcyi9oo4
p2
I1
s.(dp0
Vcz946b3
p1
I1
sVcyi9oo4
p2
I1
s.(dp0
Vcz9g82t
p1
I1
sVcyi9oo4
p2
I1
s.(dp0
Vczaialw
p1
I1
sVcyi9oo4
p2
I1
s.(dp0
Vczarq54
p1
I1
sVcyi9oo4
p2
I1
s.(dp0
Vczaw9bp
p1
I1
sVcyi9oo4
p2
I1
s.(dp0
Vczbpcsr
p1
I1
sVcyi9oo4
p2
I1
s.(dp0
Vczbuzcb
p1
I1
sVcyi9oo4
p2
I1
s.(dp0
Vcz(dp0
Vdp5hf7h
p1
I1
sVcyi9oo4
p2
I1
s.