(dp0
Vcyx6sly
p1
I1
s.(dp0
Vcz4s79w
p1
I1
sVcyx6sly
p2
I1
s.(dp0
Vcyx6sly
p1
I1
sVcza4wj0
p2
I1
s.(dp0
Vcyx6sly
p1
I1
sVczbwajx
p2
I1
s.(dp0
Vczbwo7n
p1
I1
sVcyx6sly
p2
I1
s.(dp0
Vcyx6sly
p1
I1
sVczrg6da
p2
I1
s.(dp0
Vczwajbw
p1
I1
sVcyx6sly
p2
I1
s.(dp0
Vcyx6sly
p1
I1
sVd0r0p3h
p2
I1
s.(dp0
Vcyx6sly
p1
I1
sVd0r26sc
p2
I1
s.(dp0
Vd0rpl38
p1
I1
sVcyx6sly
p2
I1
s.(dp0
Vcyx6sly
p1
I1
sVd1quh48
p2
I1
s.(dp0
Vcyx6sly
p1
I1
sVd2an49o
p2
I1
s.(dp0
Vcyx6sly
p1
I1
sVd2l9eui
p2
I1
s.(dp0
Vd2n9y95
p1
I1
sVcyx6sly
p2
I1
s.(dp0
Vd2nwdj9
p1
I1
sVcyx6sly
p2
I1
s.(dp0
Vd2o364q
p1
I1
sVcyx6sly
p2
I1
s.(dp0
Vcyx6sly
p1
I1
sVd2r3wis
p2
I1
s.(dp0
Vcyx6sly
p1
I1
sVd2rljf5
p2
I1
s.(dp0
Vd2t9ms3
p1
I1
sVcyx6sly
p2
I1
s.(dp0
Vd34631y
p1
I1
sVcyx6sly
p2
I1
s.(dp0
Vd3gfzjb
p1
I1
sVcyx6sly
p2
I1
s.(dp0
Vd3zxqfp
p1
I1
sVcyx6sly
p2
I1
s.(dp0
Vcyx6sly
p1
I1
sVd42rr8f
p2
I1
s.(dp0
Vd59rqb1
p1
I1
sVcyx6sly
p2
I1
s.(dp0
Vd5cmd3p
p1
I1
sVcyx6sly
p2
I1
s.(dp0
Vd5dwlxu
p1
I1
sVcyx6sly
p2
I1
s.(dp0
Vd5m4u5u
p1
I1
sVcyx6sly
p2
I1
s.(dp0
Vd5uchzg
p1
I1
sVcyx6sly
p2
I1
s.(dp0
Vd5x0g8y
p1
I1
sVcyx6sly
p2
I1
s.(dp0
Vcyx6sly
p1
I1
sVd6463z3
p2
I1
s.(dp0
Vcyx6sly
p1
I1
sVd65ws01
p2
I1
s.(dp0
Vcyx6sly
p1
I1
sVd6607fi
p2
I1
s.(dp0
Vd7hrjdh
p1
I1
sVcyx6sly
p2
I1
s.(dp0
Vcyx6sly
p1
I1
sVd7jqwth
p2
I1
s.(dp0
Vcyx6sly
p1
I1
sVd85jqva
p2
I1
s.(dp0
Vcyx6sly
p1
I1
sVd88uyai
p2
I1
s.(dp0
Vd8kzzzy
p1
I1
sVcyx6sly
p2
I1
s.(dp0
Vcyx6sly
p1
I1
sVd8wvhd1
p2
I1
s.(dp0
Vcyx6sly
p1
I1
sVd9vqyio
p2
I1
s.(dp0
Vcyx6sly
p1
I1
sVdaghukm
p2
I1
s.(dp0
Vcyx6sly
p1
I1
sVdaghukm
p2
I1
s.(dp0
Vcyx6sly
p1
I1
sVdb3uvig
p2
I1
s.(dp0
Vdb410qk
p1
I1
sVcyx6sly
p2
I1
s.(dp0
Vcyx6sly
p1
I1
sVdb4811w
p2
I1
s.(dp0
Vcyx6sly
p1
I1
sVdb5aue1
p2
I1
s.(dp0
Vcyx6sly
p1
I1
sVdbaq9kk
p2
I1
s.(dp0
Vcyx6sly
p1
I1
sVdbkptoh
p2
I1
s.(dp0
Vcyx6sly
p1
I1
sVdbq5nd5
p2
I1
s.(dp0
Vdc2tc4q
p1
I1
sVcyx6sly
p2
I1
s.(dp0
Vdd61yop
p1
I1
sVcyx6sly
p2
I1
s.(dp0
Vddd6dqj
p1
I1
sVcyx6sly
p2
I1
s.(dp0
Vdef3jpq
p1
I1
sVcyx6sly
p2
I1
s.(dp0
Vdejpev2
p1
I1
sVcyx6sly
p2
I1
s.(dp0
Vcyx6sly
p1
I1
sVdenx9c6
p2
I1
s.(dp0
Vderv6p7
p1
I1
sVcyx6sly
p2
I1
s.(dp0
Vcyx6sly
p1
I1
sVdf9cnp0
p2
I1
s.(dp0
Vdgjmo5k
p1
I1
sVcyx6sly
p2
I1
s.(dp0
Vcyx6sly
p1
I1
sVdhbinqh
p2
I1
s.(dp0
Vdi2pv3i
p1
I1
sVcyx6sly
p2
I1
s.(dp0
Vcyx6sly
p1
I1
sVdidi2q4
p2
I1
s.(dp0
Vcyx6sly
p1
I1
sVdkb6v8d
p2
I1
s.