(dp0
Vcyn0ujy
p1
I1
s.(dp0
Vcyr3fyk
p1
I1
sVcyn0ujy
p2
I1
s.(dp0
Vcyws5jw
p1
I1
sVcyn0ujy
p2
I1
s.(dp0
Vcz7e5hh
p1
I1
sVcyn0ujy
p2
I1
s.(dp0
Vczdr9dq
p1
I1
sVcyn0ujy
p2
I1
s.(dp0
Vczdr9dq
p1
I1
sVcyn0ujy
p2
I1
s.(dp0
Vczdr9dq
p1
I1
sVcyn0ujy
p2
I1
s.(dp0
Vczfoc0e
p1
I1
sVcyn0ujy
p2
I1
s.(dp0
Vczgmacx
p1
I1
sVcyn0ujy
p2
I1
s.(dp0
Vczru9zs
p1
I1
sVcyn0ujy
p2
I1
s.(dp0
Vczz6qod
p1
I1
sVcyn0ujy
p2
I1
s.(dp0
Vd0b6frr
p1
I1
sVcyn0ujy
p2
I1
s.(dp0
Vd0b6frr
p1
I1
sVcyn0ujy
p2
I1
s.(dp0
Vd0b6frr
p1
I1
sVcyn0ujy
p2
I1
s.(dp0
Vd0gdk40
p1
I1
sVcyn0ujy
p2
I1
s.(dp0
Vd0l32n2
p1
I1
sVcyn0ujy
p2
I1
s.(dp0
Vd0y6z5p
p1
I1
sVcyn0ujy
p2
I1
s.(dp0
Vd15nn1u
p1
I1
sVcyn0ujy
p2
I1
s.(dp0
Vd18px9l
p1
I1
sVcyn0ujy
p2
I1
s.(dp0
Vd1br63c
p1
I1
sVcyn0ujy
p2
I1
s.(dp0
Vd1nn6yv
p1
I1
sVcyn0ujy
p2
I1
s.(dp0
Vd1quh48
p1
I1
sVcyn0ujy
p2
I1
s.(dp0
Vd1v002f
p1
I1
sVcyn0ujy
p2
I1
s.(dp0
Vd20dbi7
p1
I1
sVcyn0ujy
p2
I1
s.(dp0
Vd290vew
p1
I1
sVcyn0ujy
p2
I1
s.(dp0
Vd2qwwyp
p1
I1
sVcyn0ujy
p2
I1
s.(dp0
Vd2wjsva
p1
I1
sVcyn0ujy
p2
I1
s.(dp0
Vd39kwrx
p1
I1
sVcyn0ujy
p2
I1
s.(dp0
Vd3j3r7m
p1
I1
sVcyn0ujy
p2
I1
s.(dp0
Vd3o0j9w
p1
I1
sVcyn0ujy
p2
I1
s.(dp0
Vd3rejj3
p1
I1
sVcyn0ujy
p2
I1
s.(dp0
Vd3zu0oe
p1
I1
sVcyn0ujy
p2
I1
s.(dp0
Vd410aiz
p1
I1
sVcyn0ujy
p2
I1
s.(dp0
Vd4bsax7
p1
I1
sVcyn0ujy
p2
I1
s.(dp0
Vd5227g3
p1
I1
sVcyn0ujy
p2
I1
s.(dp0
Vd53hcm0
p1
I1
sVcyn0ujy
p2
I1
s.(dp0
Vd5ps1fs
p1
I1
sVcyn0ujy
p2
I1
s.(dp0
Vd5zpg72
p1
I1
sVcyn0ujy
p2
I1
s.(dp0
Vd61ida8
p1
I1
sVcyn0ujy
p2
I1
s.(dp0
Vd6nxc2x
p1
I1
sVcyn0ujy
p2
I1
s.(dp0
Vd72qyz2
p1
I1
sVcyn0ujy
p2
I1
s.(dp0
Vd7fz6z9
p1
I1
sVcyn0ujy
p2
I1
s.(dp0
Vd7qiqzo
p1
I1
sVcyn0ujy
p2
I1
s.(dp0
Vd85x3he
p1
I1
sVcyn0ujy
p2
I1
s.(dp0
Vd8aifms
p1
I1
sVcyn0ujy
p2
I1
s.(dp0
Vd8g5g6h
p1
I1
sVcyn0ujy
p2
I1
s.(dp0
Vd8r0h0i
p1
I1
sVcyn0ujy
p2
I1
s.(dp0
Vd8t9tcj
p1
I1
sVcyn0ujy
p2
I1
s.(dp0
Vd93asa4
p1
I1
sVcyn0ujy
p2
I1
s.(dp0
Vd98k4rv
p1
I1
sVcyn0ujy
p2
I1
s.(dp0
Vd9xl9wg
p1
I1
sVcyn0ujy
p2
I1
s.(dp0
Vdabtrxb
p1
I1
sVcyn0ujy
p2
I1
s.(dp0
Vdas6heg
p1
I1
sVcyn0ujy
p2
I1
s.(dp0
Vdb32tmr
p1
I1
sVcyn0ujy
p2
I1
s.(dp0
Vdbeu165
p1
I1
sVcyn0ujy
p2
I1
s.(dp0
Vdbiufn0
p1
I1
sVcyn0ujy
p2
I1
s.(dp0
Vdbmijaw
p1
I1
sVcyn0ujy
p2
I1
s.(dp0
Vdbmijaw
p1
I1
sVcyn0ujy
p2
I1
s.(dp0
Vdbwnaaa
p1
I1
sVcyn0ujy
p2
I1
s.(dp0
Vdc2gs3g
p1
I1
sVcyn0ujy
p2
I1
s.(dp0
Vdc3x1wx
p1
I1
sVcyn0ujy
p2
I1
s.(dp0
Vdc5ka88
p1
I1
sVcyn0ujy
p2
I1
s.(dp0
Vdcqq84u
p1
I1
sVcyn0ujy
p2
I1
s.(dp0
Vdd1v0lg
p1
I1
sVcyn0ujy
p2
I1
s.(dp0
Vddf8yy4
p1
I1
sVcyn0ujy
p2
I1
s.(dp0
Vddlrybp
p1
I1
sVcyn0ujy
p2
I1
s.(dp0
Vddq6pnx
p1
I1
sVcyn0ujy
p2
I1
s.(dp0
Vde1wr4u
p1
I1
sVcyn0ujy
p2
I1
s.(dp0
Vde1wr4u
p1
I1
sVcyn0ujy
p2
I1
s.(dp0
Vdfhumfy
p1
I1
sVcyn0ujy
p2
I1
s.(dp0
Vdfhumfy
p1
I1
sVcyn0ujy
p2
I1
s.(dp0
Vdfzoihq
p1
I1
sVcyn0ujy
p2
I1
s.(dp0
Vdgtc2wl
p1
I1
sVcyn0ujy
p2
I1
s.(dp0
Vdgzwj9n
p1
I1
sVcyn0ujy
p2
I1
s.(dp0
Vdh2jwot
p1
I1
sVcyn0ujy
p2
I1
s.(dp0
Vdhsrk3j
p1
I1
sVcyn0ujy
p2
I1
s.(dp0
Vdi0ncgt
p1
I1
sVcyn0ujy
p2
I1
s.(dp0
Vdi67zrf
p1
I1
sVcyn0ujy
p2
I1
s.(dp0
Vdiiriwz
p1
I1
sVcyn0ujy
p2
I1
s.(dp0
Vdjnc1y6
p1
I1
sVcyn0ujy
p2
I1
s.(dp0
Vdkpl8ya
p1
I1
sVcyn0ujy
p2
I1
s.(dp0
Vdmf84ci
p1
I1
sVcyn0ujy
p2
I1
s.(dp0
Vdmf84ci
p1
I1
sVcyn0ujy
p2
I1
s.(dp0
Vdmf84ci
p1
I1
sVcyn0ujy
p2
I1
s.(dp0
Vdn02n7v
p1
I1
sVcyn0ujy
p2
I1
s.(dp0
Vdn02n7v
p1
I1
sVcyn0ujy
p2
I1
s.(dp0
Vdn1stkd
p1
I1
sVcyn0ujy
p2
I1
s.(dp0
Vdn5rv1s
p1
I1
sVcyn0ujy
p2
I1
s.(dp0
Vdn6ry2q
p1
I1
sVcyn0ujy
p2
I1
s.(dp0
Vdnwexgl
p1
I1
sVcyn0ujy
p2
I1
s.(dp0
Vdo5yrd8
p1
I1
sVcyn0ujy
p2
I1
s.(dp0
Vdo5yrd8
p1
I1
sVcyn0ujy
p2
I1
s.(dp0
Vdowv5ut
p1
I1
sVcyn0ujy
p2
I1
s.(dp0
Vdp12q5x
p1
I1
sVcyn0ujy
p2
I1
s.