(dp0
Vcyk1kpy
p1
I1
s.(dp0
Vcz98d0a
p1
I1
sVcyk1kpy
p2
I1
s.(dp0
Vcyk1kpy
p1
I1
sVczt5v0a
p2
I1
s.(dp0
Vcyk1kpy
p1
I1
sVd01jtut
p2
I1
s.(dp0
Vcyk1kpy
p1
I1
sVd0517u0
p2
I1
s.(dp0
Vd0519fl
p1
I1
sVcyk1kpy
p2
I1
s.(dp0
Vd053wd5
p1
I1
sVcyk1kpy
p2
I1
s.(dp0
Vd05o25r
p1
I1
sVcyk1kpy
p2
I1
s.(dp0
Vd08ziw9
p1
I1
sVcyk1kpy
p2
I1
s.(dp0
Vd08ziw9
p1
I1
sVcyk1kpy
p2
I1
s.(dp0
Vd08ziw9
p1
I1
sVcyk1kpy
p2
I1
s.(dp0
Vd08ziw9
p1
I1
sVcyk1kpy
p2
I1
s.(dp0
Vd08ziw9
p1
I1
sVcyk1kpy
p2
I1
s.(dp0
Vd08ziw9
p1
I1
sVcyk1kpy
p2
I1
s.(dp0
Vd08ziw9
p1
I1
sVcyk1kpy
p2
I1
s.(dp0
Vd08zj59
p1
I1
sVcyk1kpy
p2
I1
s.(dp0
Vd08zj59
p1
I1
sVcyk1kpy
p2
I1
s.(dp0
Vd091a87
p1
I1
sVcyk1kpy
p2
I1
s.(dp0
Vd091a87
p1
I1
sVcyk1kpy
p2
I1
s.(dp0
Vd091a87
p1
I1
sVcyk1kpy
p2
I1
s.(dp0
Vd091a87
p1
I1
sVcyk1kpy
p2
I1
s.(dp0
Vd091a87
p1
I1
sVcyk1kpy
p2
I1
s.(dp0
Vd091a87
p1
I1
sVcyk1kpy
p2
I1
s.(dp0
Vd091a87
p1
I1
sVcyk1kpy
p2
I1
s.(dp0
Vd091top
p1
I1
sVcyk1kpy
p2
I1
s.(dp0
Vd093qz8
p1
I1
sVcyk1kpy
p2
I1
s.(dp0
Vcyk1kpy
p1
I1
sVd094yyy
p2
I1
s.(dp0
Vd0952yd
p1
I1
sVcyk1kpy
p2
I1
s.(dp0
Vd0952yd
p1
I1
sVcyk1kpy
p2
I1
s.(dp0
Vd095j8k
p1
I1
sVcyk1kpy
p2
I1
s.(dp0
Vcyk1kpy
p1
I1
sVd095roh
p2
I1
s.(dp0
Vcyk1kpy
p1
I1
sVd095roh
p2
I1
s.(dp0
Vcyk1kpy
p1
I1
sVd095roh
p2
I1
s.(dp0
Vcyk1kpy
p1
I1
sVd095roh
p2
I1
s.(dp0
Vcyk1kpy
p1
I1
sVd095roh
p2
I1
s.(dp0
Vcyk1kpy
p1
I1
sVd095roh
p2
I1
s.(dp0
Vcyk1kpy
p1
I1
sVd095roh
p2
I1
s.(dp0
Vcyk1kpy
p1
I1
sVd095roh
p2
I1
s.(dp0
Vcyk1kpy
p1
I1
sVd095roh
p2
I1
s.(dp0
Vcyk1kpy
p1
I1
sVd095roh
p2
I1
s.(dp0
Vcyk1kpy
p1
I1
sVd095roh
p2
I1
s.(dp0
Vcyk1kpy
p1
I1
sVd095roh
p2
I1
s.(dp0
Vcyk1kpy
p1
I1
sVd095roh
p2
I1
s.(dp0
Vcyk1kpy
p1
I1
sVd095roh
p2
I1
s.(dp0
Vcyk1kpy
p1
I1
sVd095roh
p2
I1
s.(dp0
Vcyk1kpy
p1
I1
sVd095roh
p2
I1
s.(dp0
Vcyk1kpy
p1
I1
sVd0twnqa
p2
I1
s.(dp0
Vd1911pw
p1
I1
sVcyk1kpy
p2
I1
s.(dp0
Vd1911pw
p1
I1
sVcyk1kpy
p2
I1
s.(dp0
Vd1akqy0
p1
I1
sVcyk1kpy
p2
I1
s.(dp0
Vcyk1kpy
p1
I1
sVd1tlqds
p2
I1
s.(dp0
Vd1zmp73
p1
I1
sVcyk1kpy
p2
I1
s.(dp0
Vcyk1kpy
p1
I1
sVd26kjh5
p2
I1
s.(dp0
Vcyk1kpy
p1
I1
sVd2jlb6f
p2
I1
s.(dp0
Vd33z42u
p1
I1
sVcyk1kpy
p2
I1
s.(dp0
Vd3bi7zw
p1
I1
sVcyk1kpy
p2
I1
s.(dp0
Vd3flz4j
p1
I1
sVcyk1kpy
p2
I1
s.(dp0
Vd3flz4j
p1
I1
sVcyk1kpy
p2
I1
s.(dp0
Vd3lasz3
p1
I1
sVcyk1kpy
p2
I1
s.(dp0
Vd3lasz3
p1
I1
sVcyk1kpy
p2
I1
s.(dp0
Vd3pvor9
p1
I1
sVcyk1kpy
p2
I1
s.(dp0
Vd3pvor9
p1
I1
sVcyk1kpy
p2
I1
s.(dp0
Vcyk1kpy
p1
I1
sVd3pvpte
p2
I1
s.(dp0
Vd3sk0jv
p1
I1
sVcyk1kpy
p2
I1
s.(dp0
Vd3sk0jv
p1
I1
sVcyk1kpy
p2
I1
s.(dp0
Vd3sk0jv
p1
I1
sVcyk1kpy
p2
I1
s.(dp0
Vcyk1kpy
p1
I1
sVd3tkn8g
p2
I1
s.(dp0
Vd44n9xk
p1
I1
sVcyk1kpy
p2
I1
s.(dp0
Vd44nkwm
p1
I1
sVcyk1kpy
p2
I1
s.(dp0
Vcyk1kpy
p1
I1
sVd44vf9r
p2
I1
s.(dp0
Vd49ntdj
p1
I1
sVcyk1kpy
p2
I1
s.(dp0
Vcyk1kpy
p1
I1
sVd4iyyls
p2
I1
s.(dp0
Vcyk1kpy
p1
I1
sVd4iyyls
p2
I1
s.(dp0
Vcyk1kpy
p1
I1
sVd4iyyls
p2
I1
s.(dp0
Vcyk1kpy
p1
I1
sVd4kpm3a
p2
I1
s.(dp0
Vd4tifrh
p1
I1
sVcyk1kpy
p2
I1
s.(dp0
Vd4vj5e0
p1
I1
sVcyk1kpy
p2
I1
s.(dp0
Vd5k0f5r
p1
I1
sVcyk1kpy
p2
I1
s.(dp0
Vd647mn7
p1
I1
sVcyk1kpy
p2
I1
s.(dp0
Vd647mn7
p1
I1
sVcyk1kpy
p2
I1
s.(dp0
Vd6jih7m
p1
I1
sVcyk1kpy
p2
I1
s.(dp0
Vd6jih7m
p1
I1
sVcyk1kpy
p2
I1
s.(dp0
Vd6joqi4
p1
I1
sVcyk1kpy
p2
I1
s.(dp0
Vd6m6njd
p1
I1
sVcyk1kpy
p2
I1
s.(dp0
Vd71br2m
p1
I1
sVcyk1kpy
p2
I1
s.(dp0
Vcyk1kpy
p1
I1
sVd7g393n
p2
I1
s.(dp0
Vcyk1kpy
p1
I1
sVd7g393n
p2
I1
s.(dp0
Vd7jj8vz
p1
I1
sVcyk1kpy
p2
I1
s.(dp0
Vd83950e
p1
I1
sVcyk1kpy
p2
I1
s.(dp0
Vd9i72iv
p1
I1
sVcyk1kpy
p2
I1
s.(dp0
Vd9xzvi4
p1
I1
sVcyk1kpy
p2
I1
s.(dp0
Vcyk1kpy
p1
I1
sVd9yzsj1
p2
I1
s.(dp0
Vcyk1kpy
p1
I1
sVda662yk
p2
I1
s.(dp0
Vcyk1kpy
p1
I1
sVda7si92
p2
I1
s.(dp0
Vcyk1kpy
p1
I1
sVda7si92
p2
I1
s.(dp0
Vcyk1kpy
p1
I1
sVda7si92
p2
I1
s.(dp0
Vcyk1kpy
p1
I1
sVda7si92
p2
I1
s.(dp0
Vda80w58
p1
I1
sVcyk1kpy
p2
I1
s.(dp0
Vda80w58
p1
I1
sVcyk1kpy
p2
I1
s.(dp0
Vda82c4a
p1
I1
sVcyk1kpy
p2
I1
s.(dp0
Vda82l70
p1
I1
sVcyk1kpy
p2
I1
s.(dp0
Vda82l70
p1
I1
sVcyk1kpy
p2
I1
s.(dp0
Vda86ek0
p1
I1
sVcyk1kpy
p2
I1
s.(dp0
Vda86ek0
p1
I1
sVcyk1kpy
p2
I1
s.(dp0
Vda8755x
p1
I1
sVcyk1kpy
p2
I1
s.(dp0
Vda8755x
p1
I1
sVcyk1kpy
p2
I1
s.(dp0
Vda8755x
p1
I1
sVcyk1kpy
p2
I1
s.(dp0
Vda884kx
p1
I1
sVcyk1kpy
p2
I1
s.(dp0
Vcy(dp0
Vdo8yde5
p1
I1
sVcyk1kpy
p2
I1
s.