(dp0
Vcyjso6h
p1
I1
s.(dp0
Vcyju54w
p1
I1
sVcyjso6h
p2
I1
s.(dp0
Vcyjso6h
p1
I1
sVcylb43z
p2
I1
s.(dp0
Vcymi4jt
p1
I1
sVcyjso6h
p2
I1
s.(dp0
Vcyjso6h
p1
I1
sVcynrw6a
p2
I1
s.(dp0
Vcyo0j95
p1
I1
sVcyjso6h
p2
I1
s.(dp0
Vcypeo54
p1
I1
sVcyjso6h
p2
I1
s.(dp0
Vcyvvcr1
p1
I1
sVcyjso6h
p2
I1
s.(dp0
Vcywgr7v
p1
I1
sVcyjso6h
p2
I1
s.(dp0
Vcywihbm
p1
I1
sVcyjso6h
p2
I1
s.(dp0
Vcyjso6h
p1
I1
sVcz0sait
p2
I1
s.(dp0
Vcz146nc
p1
I1
sVcyjso6h
p2
I1
s.(dp0
Vcz3ic5q
p1
I1
sVcyjso6h
p2
I1
s.(dp0
Vcyjso6h
p1
I1
sVcz3u62d
p2
I1
s.(dp0
Vcz51mmf
p1
I1
sVcyjso6h
p2
I1
s.(dp0
Vcz811jy
p1
I1
sVcyjso6h
p2
I1
s.(dp0
Vczbplbv
p1
I1
sVcyjso6h
p2
I1
s.(dp0
Vczj1zz0
p1
I1
sVcyjso6h
p2
I1
s.(dp0
Vcyjso6h
p1
I1
sVczlxumv
p2
I1
s.(dp0
Vcznxzn6
p1
I1
sVcyjso6h
p2
I1
s.(dp0
Vczpr8rj
p1
I1
sVcyjso6h
p2
I1
s.(dp0
Vcyjso6h
p1
I1
sVczpxdvq
p2
I1
s.(dp0
Vcztxl8f
p1
I1
sVcyjso6h
p2
I1
s.(dp0
Vczuwaoc
p1
I1
sVcyjso6h
p2
I1
s.(dp0
Vczvpsw4
p1
I1
sVcyjso6h
p2
I1
s.(dp0
Vczwatwt
p1
I1
sVcyjso6h
p2
I1
s.(dp0
Vczxzzhr
p1
I1
sVcyjso6h
p2
I1
s.(dp0
Vczyxtyj
p1
I1
sVcyjso6h
p2
I1
s.(dp0
Vd01qqlc
p1
I1
sVcyjso6h
p2
I1
s.(dp0
Vd01qqlc
p1
I1
sVcyjso6h
p2
I1
s.(dp0
Vd02r1li
p1
I1
sVcyjso6h
p2
I1
s.(dp0
Vd055i57
p1
I1
sVcyjso6h
p2
I1
s.(dp0
Vd05z0b5
p1
I1
sVcyjso6h
p2
I1
s.(dp0
Vcyjso6h
p1
I1
sVd0610rm
p2
I1
s.(dp0
Vcyjso6h
p1
I1
sVd07jrj0
p2
I1
s.(dp0
Vcyjso6h
p1
I1
sVd08wx2a
p2
I1
s.(dp0
Vd0b6tu4
p1
I1
sVcyjso6h
p2
I1
s.(dp0
Vcyjso6h
p1
I1
sVd0ci39e
p2
I1
s.(dp0
Vd0iy60x
p1
I1
sVcyjso6h
p2
I1
s.(dp0
Vd0jh4t8
p1
I1
sVcyjso6h
p2
I1
s.(dp0
Vcyjso6h
p1
I1
sVd0l6ia0
p2
I1
s.(dp0
Vd0o4p6e
p1
I1
sVcyjso6h
p2
I1
s.(dp0
Vcyjso6h
p1
I1
sVd0qzbqp
p2
I1
s.(dp0
Vd0uoi8j
p1
I1
sVcyjso6h
p2
I1
s.(dp0
Vd0wm9u2
p1
I1
sVcyjso6h
p2
I1
s.(dp0
Vd0wn8t6
p1
I1
sVcyjso6h
p2
I1
s.(dp0
Vd10rbr9
p1
I1
sVcyjso6h
p2
I1
s.(dp0
Vd10yztg
p1
I1
sVcyjso6h
p2
I1
s.(dp0
Vcyjso6h
p1
I1
sVd14wt7o
p2
I1
s.(dp0
Vd15m5x8
p1
I1
sVcyjso6h
p2
I1
s.(dp0
Vcyjso6h
p1
I1
sVd15rvtl
p2
I1
s.(dp0
Vcyjso6h
p1
I1
sVd15rvtl
p2
I1
s.(dp0
Vcyjso6h
p1
I1
sVd16r903
p2
I1
s.(dp0
Vd1dizm7
p1
I1
sVcyjso6h
p2
I1
s.(dp0
Vcyjso6h
p1
I1
sVd1fqhw6
p2
I1
s.(dp0
Vcyjso6h
p1
I1
sVd1hwzb3
p2
I1
s.(dp0
Vcyjso6h
p1
I1
sVd1kwkhs
p2
I1
s.(dp0
Vcyjso6h
p1
I1
sVd1kwkhs
p2
I1
s.(dp0
Vcyjso6h
p1
I1
sVd1q0ezx
p2
I1
s.(dp0
Vd1xeboh
p1
I1
sVcyjso6h
p2
I1
s.(dp0
Vd1xjbi3
p1
I1
sVcyjso6h
p2
I1
s.(dp0
Vcyjso6h
p1
I1
sVd1zgs73
p2
I1
s.(dp0
Vd204i4g
p1
I1
sVcyjso6h
p2
I1
s.(dp0
Vcyjso6h
p1
I1
sVd2aj9ka
p2
I1
s.(dp0
Vcyjso6h
p1
I1
sVd2d7nky
p2
I1
s.(dp0
Vd2e8n55
p1
I1
sVcyjso6h
p2
I1
s.(dp0
Vd2gkteb
p1
I1
sVcyjso6h
p2
I1
s.(dp0
Vcyjso6h
p1
I1
sVd2hibrt
p2
I1
s.(dp0
Vcyjso6h
p1
I1
sVd2k2ifr
p2
I1
s.(dp0
Vd2k9pg3
p1
I1
sVcyjso6h
p2
I1
s.(dp0
Vd2krqyz
p1
I1
sVcyjso6h
p2
I1
s.(dp0
Vcyjso6h
p1
I1
sVd2ruhyl
p2
I1
s.(dp0
Vd2xcmwd
p1
I1
sVcyjso6h
p2
I1
s.(dp0
Vcyjso6h
p1
I1
sVd2zi82p
p2
I1
s.(dp0
Vd302t00
p1
I1
sVcyjso6h
p2
I1
s.(dp0
Vcyjso6h
p1
I1
sVd30f3pr
p2
I1
s.(dp0
Vcyjso6h
p1
I1
sVd33sekj
p2
I1
s.(dp0
Vcyjso6h
p1
I1
sVd33sekj
p2
I1
s.(dp0
Vcyjso6h
p1
I1
sVd35f6y6
p2
I1
s.(dp0
Vcyjso6h
p1
I1
sVd36wnb3
p2
I1
s.(dp0
Vd37rdql
p1
I1
sVcyjso6h
p2
I1
s.(dp0
Vd3881ou
p1
I1
sVcyjso6h
p2
I1
s.(dp0
Vd3aybjq
p1
I1
sVcyjso6h
p2
I1
s.(dp0
Vd3iwtjy
p1
I1
sVcyjso6h
p2
I1
s.(dp0
Vd3k24z1
p1
I1
sVcyjso6h
p2
I1
s.(dp0
Vd3k24z1
p1
I1
sVcyjso6h
p2
I1
s.(dp0
Vd3pj5q3
p1
I1
sVcyjso6h
p2
I1
s.(dp0
Vcyjso6h
p1
I1
sVd3qhxht
p2
I1
s.(dp0
Vd3r2tu7
p1
I1
sVcyjso6h
p2
I1
s.(dp0
Vcyjso6h
p1
I1
sVd3r8uui
p2
I1
s.(dp0
Vcyjso6h
p1
I1
sVd3rmzwk
p2
I1
s.(dp0
Vcyjso6h
p1
I1
sVd3to2ug
p2
I1
s.(dp0
Vcyjso6h
p1
I1
sVd3zcl86
p2
I1
s.(dp0
Vd3zgi1i
p1
I1
sVcyjso6h
p2
I1
s.(dp0
Vcyjso6h
p1
I1
sVd3zqu89
p2
I1
s.(dp0
Vd45hw3q
p1
I1
sVcyjso6h
p2
I1
s.(dp0
Vd472v1m
p1
I1
sVcyjso6h
p2
I1
s.(dp0
Vcyjso6h
p1
I1
sVd4774yt
p2
I1
s.(dp0
Vd4hnipf
p1
I1
sVcyjso6h
p2
I1
s.(dp0
Vd4ku1sg
p1
I1
sVcyjso6h
p2
I1
s.(dp0
Vd4n20dk
p1
I1
sVcyjso6h
p2
I1
s.(dp0
Vd4n20dk
p1
I1
sVcyjso6h
p2
I1
s.(dp0
Vd4nalk0
p1
I1
sVcyjso6h
p2
I1
s.(dp0
Vd4ng7b0
p1
I1
sVcyjso6h
p2
I1
s.(dp0
Vd4tn6g6
p1
I1
sVcyjso6h
p2
I1
s.(dp0
Vcyjso6h
p1
I1
sVd4yfqy3
p2
I1
s.(dp0
Vd4z1c01
p1
I1
sVcyjso6h
p2
I1
s.(dp0
Vcyjso6h
p1
I1
sVd51btbo
p2
I1
s.(dp0
Vd5(dp0
Vdp3y9lo
p1
I1
sVcyjso6h
p2
I1
s.