(dp0
Vcyi520y
p1
I1
s.(dp0
Vcyi6kub
p1
I1
sVcyi520y
p2
I1
s.(dp0
Vcyib9ia
p1
I1
sVcyi520y
p2
I1
s.(dp0
Vcyic8x9
p1
I1
sVcyi520y
p2
I1
s.(dp0
Vcyicce8
p1
I1
sVcyi520y
p2
I1
s.(dp0
Vcyieljc
p1
I1
sVcyi520y
p2
I1
s.(dp0
Vcyieljc
p1
I1
sVcyi520y
p2
I1
s.(dp0
Vcyigb4x
p1
I1
sVcyi520y
p2
I1
s.(dp0
Vcyiidqq
p1
I1
sVcyi520y
p2
I1
s.(dp0
Vcyikjrv
p1
I1
sVcyi520y
p2
I1
s.(dp0
Vcyi520y
p1
I1
sVcyilgoc
p2
I1
s.(dp0
Vcyils4g
p1
I1
sVcyi520y
p2
I1
s.(dp0
Vcyinpz8
p1
I1
sVcyi520y
p2
I1
s.(dp0
Vcyj9r8t
p1
I1
sVcyi520y
p2
I1
s.(dp0
Vcyjamrw
p1
I1
sVcyi520y
p2
I1
s.(dp0
Vcyjb7m1
p1
I1
sVcyi520y
p2
I1
s.(dp0
Vcyjcsw0
p1
I1
sVcyi520y
p2
I1
s.(dp0
Vcyjcsw0
p1
I1
sVcyi520y
p2
I1
s.(dp0
Vcyjcsw0
p1
I1
sVcyi520y
p2
I1
s.(dp0
Vcyjdk7v
p1
I1
sVcyi520y
p2
I1
s.(dp0
Vcyjj0jp
p1
I1
sVcyi520y
p2
I1
s.(dp0
Vcyjlqa6
p1
I1
sVcyi520y
p2
I1
s.(dp0
Vcyjn64d
p1
I1
sVcyi520y
p2
I1
s.(dp0
Vcyjq8ji
p1
I1
sVcyi520y
p2
I1
s.(dp0
Vcyjsv22
p1
I1
sVcyi520y
p2
I1
s.(dp0
Vcyi520y
p1
I1
sVcyjt3ib
p2
I1
s.(dp0
Vcyjub0w
p1
I1
sVcyi520y
p2
I1
s.(dp0
Vcyjx6eq
p1
I1
sVcyi520y
p2
I1
s.(dp0
Vcyi520y
p1
I1
sVcyk4kku
p2
I1
s.(dp0
Vcyk5zj5
p1
I1
sVcyi520y
p2
I1
s.(dp0
Vcykc66p
p1
I1
sVcyi520y
p2
I1
s.(dp0
Vcykg81g
p1
I1
sVcyi520y
p2
I1
s.(dp0
Vcykmixr
p1
I1
sVcyi520y
p2
I1
s.(dp0
Vcyko3x4
p1
I1
sVcyi520y
p2
I1
s.(dp0
Vcyi520y
p1
I1
sVcyko80r
p2
I1
s.(dp0
Vcyi520y
p1
I1
sVcykp3ic
p2
I1
s.(dp0
Vcykp8q2
p1
I1
sVcyi520y
p2
I1
s.(dp0
Vcykpkt0
p1
I1
sVcyi520y
p2
I1
s.(dp0
Vcykpn82
p1
I1
sVcyi520y
p2
I1
s.(dp0
Vcykrl4m
p1
I1
sVcyi520y
p2
I1
s.(dp0
Vcyl4cxy
p1
I1
sVcyi520y
p2
I1
s.(dp0
Vcyl74uy
p1
I1
sVcyi520y
p2
I1
s.(dp0
Vcyldfpa
p1
I1
sVcyi520y
p2
I1
s.(dp0
Vcyldfpa
p1
I1
sVcyi520y
p2
I1
s.(dp0
Vcyli8k7
p1
I1
sVcyi520y
p2
I1
s.(dp0
Vcyi520y
p1
I1
sVcyllebw
p2
I1
s.(dp0
Vcyls3zg
p1
I1
sVcyi520y
p2
I1
s.(dp0
Vcyltpjq
p1
I1
sVcyi520y
p2
I1
s.(dp0
Vcym11t3
p1
I1
sVcyi520y
p2
I1
s.(dp0
Vcym2dvp
p1
I1
sVcyi520y
p2
I1
s.(dp0
Vcymfqqf
p1
I1
sVcyi520y
p2
I1
s.(dp0
Vcymfqqf
p1
I1
sVcyi520y
p2
I1
s.(dp0
Vcymg5vb
p1
I1
sVcyi520y
p2
I1
s.(dp0
Vcymn2pf
p1
I1
sVcyi520y
p2
I1
s.(dp0
Vcymnsbg
p1
I1
sVcyi520y
p2
I1
s.(dp0
Vcymr5aa
p1
I1
sVcyi520y
p2
I1
s.(dp0
Vcyi520y
p1
I1
sVcymuo5r
p2
I1
s.(dp0
Vcyi520y
p1
I1
sVcymz6af
p2
I1
s.(dp0
Vcyncmwb
p1
I1
sVcyi520y
p2
I1
s.(dp0
Vcynit03
p1
I1
sVcyi520y
p2
I1
s.(dp0
Vcynlp8p
p1
I1
sVcyi520y
p2
I1
s.(dp0
Vcynlz2p
p1
I1
sVcyi520y
p2
I1
s.(dp0
Vcyi520y
p1
I1
sVcynmwf0
p2
I1
s.(dp0
Vcyi520y
p1
I1
sVcynmwf0
p2
I1
s.(dp0
Vcynn126
p1
I1
sVcyi520y
p2
I1
s.(dp0
Vcynrcdp
p1
I1
sVcyi520y
p2
I1
s.(dp0
Vcynsl39
p1
I1
sVcyi520y
p2
I1
s.(dp0
Vcynv8j8
p1
I1
sVcyi520y
p2
I1
s.(dp0
Vcynv8j8
p1
I1
sVcyi520y
p2
I1
s.(dp0
Vcynxr38
p1
I1
sVcyi520y
p2
I1
s.(dp0
Vcyo5cbm
p1
I1
sVcyi520y
p2
I1
s.(dp0
Vcyo670b
p1
I1
sVcyi520y
p2
I1
s.(dp0
Vcyo6n9w
p1
I1
sVcyi520y
p2
I1
s.(dp0
Vcyo8ghm
p1
I1
sVcyi520y
p2
I1
s.(dp0
Vcyoaona
p1
I1
sVcyi520y
p2
I1
s.(dp0
Vcyobkl1
p1
I1
sVcyi520y
p2
I1
s.(dp0
Vcyocqzx
p1
I1
sVcyi520y
p2
I1
s.(dp0
Vcyog3md
p1
I1
sVcyi520y
p2
I1
s.(dp0
Vcyoj7sl
p1
I1
sVcyi520y
p2
I1
s.(dp0
Vcyi520y
p1
I1
sVcyonr0s
p2
I1
s.(dp0
Vcyoo5fo
p1
I1
sVcyi520y
p2
I1
s.(dp0
Vcyot7di
p1
I1
sVcyi520y
p2
I1
s.(dp0
Vcyi520y
p1
I1
sVcyow6we
p2
I1
s.(dp0
Vcyi520y
p1
I1
sVcyow6we
p2
I1
s.(dp0
Vcyozjg1
p1
I1
sVcyi520y
p2
I1
s.(dp0
Vcyozktl
p1
I1
sVcyi520y
p2
I1
s.(dp0
Vcyp03fr
p1
I1
sVcyi520y
p2
I1
s.(dp0
Vcyp07e5
p1
I1
sVcyi520y
p2
I1
s.(dp0
Vcyp0tm8
p1
I1
sVcyi520y
p2
I1
s.(dp0
Vcyp1yrw
p1
I1
sVcyi520y
p2
I1
s.(dp0
Vcyp81ja
p1
I1
sVcyi520y
p2
I1
s.(dp0
Vcyp8o2z
p1
I1
sVcyi520y
p2
I1
s.(dp0
Vcypfjw4
p1
I1
sVcyi520y
p2
I1
s.(dp0
Vcypi4th
p1
I1
sVcyi520y
p2
I1
s.(dp0
Vcypji73
p1
I1
sVcyi520y
p2
I1
s.(dp0
Vcyplz6b
p1
I1
sVcyi520y
p2
I1
s.(dp0
Vcypmg0l
p1
I1
sVcyi520y
p2
I1
s.(dp0
Vcypsu7b
p1
I1
sVcyi520y
p2
I1
s.(dp0
Vcypya2p
p1
I1
sVcyi520y
p2
I1
s.(dp0
Vcyi520y
p1
I1
sVcyq57g8
p2
I1
s.(dp0
Vcyqgbre
p1
I1
sVcyi520y
p2
I1
s.(dp0
Vcyql8z1
p1
I1
sVcyi520y
p2
I1
s.(dp0
Vcyqvnd9
p1
I1
sVcyi520y
p2
I1
s.(dp0
Vcyqw4fh
p1
I1
sVcyi520y
p2
I1
s.(dp0
Vcyqwmct
p1
I1
sVcyi520y
p2
I1
s.(dp0
Vcyqwwfj
p1
I1
sVcyi520y
p2
I1
s.(dp0
Vcyqzjtq
p1
I1
sVcyi520y
p2
I1
s.(dp0
Vcyr0a6o
p1
I1
sVcyi520y
p2
I1
s.(dp0
Vcy(dp0
Vdp5p9aq
p1
I1
sVcyi520y
p2
I1
s.