(dp0
Vcyi8vvw
p1
I1
s.(dp0
Vcyi8vvw
p1
I1
sVcz8b597
p2
I1
s.(dp0
Vcyi8vvw
p1
I1
sVd67w6qh
p2
I1
s.(dp0
Vcyi8vvw
p1
I1
sVd67w6qh
p2
I1
s.(dp0
Vcyi8vvw
p1
I1
sVd7hqtbu
p2
I1
s.(dp0
Vcyi8vvw
p1
I1
sVd7hqtbu
p2
I1
s.(dp0
Vdagqx4x
p1
I1
sVcyi8vvw
p2
I1
s.(dp0
Vdagqx4x
p1
I1
sVcyi8vvw
p2
I1
s.(dp0
Vcyi8vvw
p1
I1
sVdbnffp0
p2
I1
s.(dp0
Vcyi8vvw
p1
I1
sVdbnffp0
p2
I1
s.(dp0
Vcyi8vvw
p1
I1
sVdbtwdng
p2
I1
s.(dp0
Vcyi8vvw
p1
I1
sVdbtwdng
p2
I1
s.(dp0
Vcyi8vvw
p1
I1
sVdevur2i
p2
I1
s.