(dp0
Vcyhugv1
p1
I1
s.(dp0
Vcylu3gv
p1
I1
sVcyhugv1
p2
I1
s.(dp0
Vcynfluc
p1
I1
sVcyhugv1
p2
I1
s.(dp0
Vcyhugv1
p1
I1
sVcyocqzx
p2
I1
s.(dp0
Vcypd5lj
p1
I1
sVcyhugv1
p2
I1
s.(dp0
Vcyqacgm
p1
I1
sVcyhugv1
p2
I1
s.(dp0
Vcyxz5x4
p1
I1
sVcyhugv1
p2
I1
s.(dp0
Vcyhugv1
p1
I1
sVcyzb1vk
p2
I1
s.(dp0
Vcyhugv1
p1
I1
sVcz35u5r
p2
I1
s.(dp0
Vcz3jaqv
p1
I1
sVcyhugv1
p2
I1
s.(dp0
Vcyhugv1
p1
I1
sVcz8300b
p2
I1
s.(dp0
Vczatgrz
p1
I1
sVcyhugv1
p2
I1
s.(dp0
Vczbimx6
p1
I1
sVcyhugv1
p2
I1
s.(dp0
Vcyhugv1
p1
I1
sVczgokh5
p2
I1
s.(dp0
Vczhoxkq
p1
I1
sVcyhugv1
p2
I1
s.(dp0
Vcztrpxp
p1
I1
sVcyhugv1
p2
I1
s.(dp0
Vczynemv
p1
I1
sVcyhugv1
p2
I1
s.(dp0
Vcyhugv1
p1
I1
sVd07l69t
p2
I1
s.(dp0
Vd0acpdv
p1
I1
sVcyhugv1
p2
I1
s.(dp0
Vd0b1cuw
p1
I1
sVcyhugv1
p2
I1
s.(dp0
Vd0iablx
p1
I1
sVcyhugv1
p2
I1
s.(dp0
Vd0rqapl
p1
I1
sVcyhugv1
p2
I1
s.(dp0
Vd0s8mxy
p1
I1
sVcyhugv1
p2
I1
s.(dp0
Vcyhugv1
p1
I1
sVd14ofu3
p2
I1
s.(dp0
Vcyhugv1
p1
I1
sVd16c2n9
p2
I1
s.(dp0
Vcyhugv1
p1
I1
sVd17dkdi
p2
I1
s.(dp0
Vd19kmzl
p1
I1
sVcyhugv1
p2
I1
s.(dp0
Vd1axifw
p1
I1
sVcyhugv1
p2
I1
s.(dp0
Vd1cusaf
p1
I1
sVcyhugv1
p2
I1
s.(dp0
Vd1evpso
p1
I1
sVcyhugv1
p2
I1
s.(dp0
Vcyhugv1
p1
I1
sVd1g74a6
p2
I1
s.(dp0
Vd1yn063
p1
I1
sVcyhugv1
p2
I1
s.(dp0
Vcyhugv1
p1
I1
sVd2ebvvd
p2
I1
s.(dp0
Vd2ecboc
p1
I1
sVcyhugv1
p2
I1
s.(dp0
Vd2g5z9j
p1
I1
sVcyhugv1
p2
I1
s.(dp0
Vcyhugv1
p1
I1
sVd2jn4xt
p2
I1
s.(dp0
Vd2qyush
p1
I1
sVcyhugv1
p2
I1
s.(dp0
Vd312yvz
p1
I1
sVcyhugv1
p2
I1
s.(dp0
Vd35i7sv
p1
I1
sVcyhugv1
p2
I1
s.(dp0
Vcyhugv1
p1
I1
sVd3e4957
p2
I1
s.(dp0
Vcyhugv1
p1
I1
sVd3xc2fn
p2
I1
s.(dp0
Vd3xgznw
p1
I1
sVcyhugv1
p2
I1
s.(dp0
Vcyhugv1
p1
I1
sVd40pn10
p2
I1
s.(dp0
Vd45bveg
p1
I1
sVcyhugv1
p2
I1
s.(dp0
Vd45x880
p1
I1
sVcyhugv1
p2
I1
s.(dp0
Vd4jivxu
p1
I1
sVcyhugv1
p2
I1
s.(dp0
Vd4uz9x8
p1
I1
sVcyhugv1
p2
I1
s.(dp0
Vd569obt
p1
I1
sVcyhugv1
p2
I1
s.(dp0
Vcyhugv1
p1
I1
sVd57j64a
p2
I1
s.(dp0
Vd593ylt
p1
I1
sVcyhugv1
p2
I1
s.(dp0
Vcyhugv1
p1
I1
sVd5n43km
p2
I1
s.(dp0
Vd5nwzrx
p1
I1
sVcyhugv1
p2
I1
s.(dp0
Vd5yhkvp
p1
I1
sVcyhugv1
p2
I1
s.(dp0
Vd6d5jv3
p1
I1
sVcyhugv1
p2
I1
s.(dp0
Vcyhugv1
p1
I1
sVd6e7stg
p2
I1
s.(dp0
Vd6g4rpp
p1
I1
sVcyhugv1
p2
I1
s.(dp0
Vd6h2k8o
p1
I1
sVcyhugv1
p2
I1
s.(dp0
Vd6u8xbb
p1
I1
sVcyhugv1
p2
I1
s.(dp0
Vd7482wh
p1
I1
sVcyhugv1
p2
I1
s.(dp0
Vcyhugv1
p1
I1
sVd771fhv
p2
I1
s.(dp0
Vcyhugv1
p1
I1
sVd7hj2o6
p2
I1
s.(dp0
Vd7jfx42
p1
I1
sVcyhugv1
p2
I1
s.(dp0
Vd7mic8h
p1
I1
sVcyhugv1
p2
I1
s.(dp0
Vd839g53
p1
I1
sVcyhugv1
p2
I1
s.(dp0
Vd8w4fop
p1
I1
sVcyhugv1
p2
I1
s.(dp0
Vd8xwgzv
p1
I1
sVcyhugv1
p2
I1
s.(dp0
Vcyhugv1
p1
I1
sVd9brve2
p2
I1
s.(dp0
Vd9brwje
p1
I1
sVcyhugv1
p2
I1
s.(dp0
Vd9zmv0k
p1
I1
sVcyhugv1
p2
I1
s.(dp0
Vda160pw
p1
I1
sVcyhugv1
p2
I1
s.(dp0
Vdabqq7a
p1
I1
sVcyhugv1
p2
I1
s.(dp0
Vcyhugv1
p1
I1
sVdafjsys
p2
I1
s.(dp0
Vdaizwg9
p1
I1
sVcyhugv1
p2
I1
s.(dp0
Vdapa3f2
p1
I1
sVcyhugv1
p2
I1
s.(dp0
Vcyhugv1
p1
I1
sVdav2qei
p2
I1
s.(dp0
Vcyhugv1
p1
I1
sVdb44jhq
p2
I1
s.(dp0
Vdbjthrv
p1
I1
sVcyhugv1
p2
I1
s.(dp0
Vcyhugv1
p1
I1
sVdbjvqo2
p2
I1
s.(dp0
Vdbuotht
p1
I1
sVcyhugv1
p2
I1
s.(dp0
Vdbwm7g1
p1
I1
sVcyhugv1
p2
I1
s.(dp0
Vdc6f0h2
p1
I1
sVcyhugv1
p2
I1
s.(dp0
Vdc902t4
p1
I1
sVcyhugv1
p2
I1
s.(dp0
Vdcfymzh
p1
I1
sVcyhugv1
p2
I1
s.(dp0
Vcyhugv1
p1
I1
sVdcnqo1f
p2
I1
s.(dp0
Vdct5fpr
p1
I1
sVcyhugv1
p2
I1
s.(dp0
Vcyhugv1
p1
I1
sVdcuhk55
p2
I1
s.(dp0
Vcyhugv1
p1
I1
sVdcvvkou
p2
I1
s.(dp0
Vcyhugv1
p1
I1
sVdcx2emq
p2
I1
s.(dp0
Vcyhugv1
p1
I1
sVdcxvcqz
p2
I1
s.(dp0
Vdd6be6x
p1
I1
sVcyhugv1
p2
I1
s.(dp0
Vdd7rrq3
p1
I1
sVcyhugv1
p2
I1
s.(dp0
Vcyhugv1
p1
I1
sVdd8nkgd
p2
I1
s.(dp0
Vcyhugv1
p1
I1
sVddicng7
p2
I1
s.(dp0
Vddmb5qp
p1
I1
sVcyhugv1
p2
I1
s.(dp0
Vcyhugv1
p1
I1
sVddmt6pw
p2
I1
s.(dp0
Vcyhugv1
p1
I1
sVde53yat
p2
I1
s.(dp0
Vdecujra
p1
I1
sVcyhugv1
p2
I1
s.(dp0
Vdeinlb5
p1
I1
sVcyhugv1
p2
I1
s.(dp0
Vdeq9jdp
p1
I1
sVcyhugv1
p2
I1
s.(dp0
Vdeyk33n
p1
I1
sVcyhugv1
p2
I1
s.(dp0
Vdf09dm8
p1
I1
sVcyhugv1
p2
I1
s.(dp0
Vdf1u896
p1
I1
sVcyhugv1
p2
I1
s.(dp0
Vdfnka4h
p1
I1
sVcyhugv1
p2
I1
s.(dp0
Vcyhugv1
p1
I1
sVdfqer5k
p2
I1
s.(dp0
Vdftn29p
p1
I1
sVcyhugv1
p2
I1
s.(dp0
Vcyhugv1
p1
I1
sVdg0h7jr
p2
I1
s.(dp0
Vdg2lryu
p1
I1
sVcyhugv1
p2
I1
s.(dp0
Vcyhugv1
p1
I1
sVdh3yvxc
p2
I1
s.(dp0
Vcy(dp0
Vdp5a5ys
p1
I1
sVcyhugv1
p2
I1
s.