(dp0
Vcyl63ch
p1
I1
s.(dp0
Vcyl6waj
p1
I1
sVcyl63ch
p2
I1
s.(dp0
Vcyl63ch
p1
I1
sVcyxvu0d
p2
I1
s.(dp0
Vcyl63ch
p1
I1
sVcyxvu0d
p2
I1
s.(dp0
Vcz1lyj0
p1
I1
sVcyl63ch
p2
I1
s.(dp0
Vcyl63ch
p1
I1
sVcz5caco
p2
I1
s.(dp0
Vcyl63ch
p1
I1
sVcz7utx3
p2
I1
s.(dp0
Vczfdq75
p1
I1
sVcyl63ch
p2
I1
s.(dp0
Vczfdq75
p1
I1
sVcyl63ch
p2
I1
s.(dp0
Vcyl63ch
p1
I1
sVczgrb9q
p2
I1
s.(dp0
Vczkatfq
p1
I1
sVcyl63ch
p2
I1
s.(dp0
Vczkatfq
p1
I1
sVcyl63ch
p2
I1
s.(dp0
Vczlxh20
p1
I1
sVcyl63ch
p2
I1
s.(dp0
Vcztc9wg
p1
I1
sVcyl63ch
p2
I1
s.(dp0
Vcyl63ch
p1
I1
sVczz0pf4
p2
I1
s.(dp0
Vd0acn4k
p1
I1
sVcyl63ch
p2
I1
s.(dp0
Vcyl63ch
p1
I1
sVd0betpi
p2
I1
s.(dp0
Vcyl63ch
p1
I1
sVd0h00jh
p2
I1
s.(dp0
Vcyl63ch
p1
I1
sVd0mrsz6
p2
I1
s.(dp0
Vcyl63ch
p1
I1
sVd0rj0xs
p2
I1
s.(dp0
Vcyl63ch
p1
I1
sVd0wyebl
p2
I1
s.(dp0
Vcyl63ch
p1
I1
sVd10cwhn
p2
I1
s.(dp0
Vd1cvt8g
p1
I1
sVcyl63ch
p2
I1
s.(dp0
Vcyl63ch
p1
I1
sVd1qauqg
p2
I1
s.(dp0
Vcyl63ch
p1
I1
sVd1tf81a
p2
I1
s.(dp0
Vcyl63ch
p1
I1
sVd1u7rfd
p2
I1
s.(dp0
Vcyl63ch
p1
I1
sVd1xem42
p2
I1
s.(dp0
Vcyl63ch
p1
I1
sVd227tge
p2
I1
s.(dp0
Vd24cn5k
p1
I1
sVcyl63ch
p2
I1
s.(dp0
Vd2g0ttj
p1
I1
sVcyl63ch
p2
I1
s.(dp0
Vd2tl6qb
p1
I1
sVcyl63ch
p2
I1
s.(dp0
Vcyl63ch
p1
I1
sVd33cplt
p2
I1
s.(dp0
Vd37e91v
p1
I1
sVcyl63ch
p2
I1
s.(dp0
Vcyl63ch
p1
I1
sVd3cbm7k
p2
I1
s.(dp0
Vcyl63ch
p1
I1
sVd3drvjo
p2
I1
s.(dp0
Vcyl63ch
p1
I1
sVd3ru5rs
p2
I1
s.(dp0
Vd3vg5vu
p1
I1
sVcyl63ch
p2
I1
s.(dp0
Vcyl63ch
p1
I1
sVd3zfq4n
p2
I1
s.(dp0
Vcyl63ch
p1
I1
sVd42gf1h
p2
I1
s.(dp0
Vcyl63ch
p1
I1
sVd49z5zr
p2
I1
s.(dp0
Vcyl63ch
p1
I1
sVd4cvm9z
p2
I1
s.(dp0
Vcyl63ch
p1
I1
sVd4m9gjg
p2
I1
s.(dp0
Vd4y7iuc
p1
I1
sVcyl63ch
p2
I1
s.(dp0
Vd5fzp28
p1
I1
sVcyl63ch
p2
I1
s.(dp0
Vcyl63ch
p1
I1
sVd5g8ydx
p2
I1
s.(dp0
Vd5giklg
p1
I1
sVcyl63ch
p2
I1
s.(dp0
Vcyl63ch
p1
I1
sVd5h57r1
p2
I1
s.(dp0
Vd5i5gi6
p1
I1
sVcyl63ch
p2
I1
s.(dp0
Vcyl63ch
p1
I1
sVd5u8h28
p2
I1
s.(dp0
Vd68j5ww
p1
I1
sVcyl63ch
p2
I1
s.(dp0
Vcyl63ch
p1
I1
sVd69yqug
p2
I1
s.(dp0
Vcyl63ch
p1
I1
sVd6d3ova
p2
I1
s.(dp0
Vcyl63ch
p1
I1
sVd6snd33
p2
I1
s.(dp0
Vcyl63ch
p1
I1
sVd6vthoc
p2
I1
s.(dp0
Vd7c7b9z
p1
I1
sVcyl63ch
p2
I1
s.(dp0
Vd7mypvm
p1
I1
sVcyl63ch
p2
I1
s.(dp0
Vd7rg2vf
p1
I1
sVcyl63ch
p2
I1
s.(dp0
Vd84be68
p1
I1
sVcyl63ch
p2
I1
s.(dp0
Vcyl63ch
p1
I1
sVd892rzn
p2
I1
s.(dp0
Vcyl63ch
p1
I1
sVd8d0iwv
p2
I1
s.(dp0
Vcyl63ch
p1
I1
sVd8hugvn
p2
I1
s.(dp0
Vcyl63ch
p1
I1
sVd8hugvn
p2
I1
s.(dp0
Vcyl63ch
p1
I1
sVd8hugvn
p2
I1
s.(dp0
Vd8pwxxv
p1
I1
sVcyl63ch
p2
I1
s.(dp0
Vcyl63ch
p1
I1
sVd8xxvqo
p2
I1
s.(dp0
Vd99oi0a
p1
I1
sVcyl63ch
p2
I1
s.(dp0
Vcyl63ch
p1
I1
sVd9ht8md
p2
I1
s.(dp0
Vcyl63ch
p1
I1
sVd9ltu25
p2
I1
s.(dp0
Vda9pfwp
p1
I1
sVcyl63ch
p2
I1
s.(dp0
Vdauw2cf
p1
I1
sVcyl63ch
p2
I1
s.(dp0
Vcyl63ch
p1
I1
sVdb5j6p9
p2
I1
s.(dp0
Vcyl63ch
p1
I1
sVdbbt422
p2
I1
s.(dp0
Vcyl63ch
p1
I1
sVdbi5pan
p2
I1
s.(dp0
Vcyl63ch
p1
I1
sVdbi5pan
p2
I1
s.(dp0
Vcyl63ch
p1
I1
sVdbqqz4v
p2
I1
s.(dp0
Vdc1gb0f
p1
I1
sVcyl63ch
p2
I1
s.(dp0
Vcyl63ch
p1
I1
sVdce6i9z
p2
I1
s.(dp0
Vcyl63ch
p1
I1
sVdckprr1
p2
I1
s.(dp0
Vcyl63ch
p1
I1
sVdcypl77
p2
I1
s.(dp0
Vcyl63ch
p1
I1
sVdd2qgyl
p2
I1
s.(dp0
Vdd6yg37
p1
I1
sVcyl63ch
p2
I1
s.(dp0
Vddfx71p
p1
I1
sVcyl63ch
p2
I1
s.(dp0
Vcyl63ch
p1
I1
sVddkm5sk
p2
I1
s.(dp0
Vcyl63ch
p1
I1
sVddomqvd
p2
I1
s.(dp0
Vcyl63ch
p1
I1
sVddvk3n2
p2
I1
s.(dp0
Vcyl63ch
p1
I1
sVdedjxyz
p2
I1
s.(dp0
Vcyl63ch
p1
I1
sVdedjxyz
p2
I1
s.(dp0
Vcyl63ch
p1
I1
sVdedjxyz
p2
I1
s.(dp0
Vcyl63ch
p1
I1
sVdeetfcg
p2
I1
s.(dp0
Vcyl63ch
p1
I1
sVdeetfcg
p2
I1
s.(dp0
Vdeg8o9f
p1
I1
sVcyl63ch
p2
I1
s.(dp0
Vdegc6fi
p1
I1
sVcyl63ch
p2
I1
s.(dp0
Vdf0x254
p1
I1
sVcyl63ch
p2
I1
s.(dp0
Vcyl63ch
p1
I1
sVdf3it76
p2
I1
s.(dp0
Vcyl63ch
p1
I1
sVdf8e1l0
p2
I1
s.(dp0
Vcyl63ch
p1
I1
sVdf91nxr
p2
I1
s.(dp0
Vcyl63ch
p1
I1
sVdfc1nor
p2
I1
s.(dp0
Vdfjgd8k
p1
I1
sVcyl63ch
p2
I1
s.(dp0
Vdflzyqw
p1
I1
sVcyl63ch
p2
I1
s.(dp0
Vdflzyqw
p1
I1
sVcyl63ch
p2
I1
s.(dp0
Vdg93tiu
p1
I1
sVcyl63ch
p2
I1
s.(dp0
Vcyl63ch
p1
I1
sVdgeh4qj
p2
I1
s.(dp0
Vcyl63ch
p1
I1
sVdgnbcgs
p2
I1
s.(dp0
Vdgng8kn
p1
I1
sVcyl63ch
p2
I1
s.(dp0
Vdgpob1t
p1
I1
sVcyl63ch
p2
I1
s.(dp0
Vcyl63ch
p1
I1
sVdh0agw4
p2
I1
s.(dp0
Vdh67tvl
p1
I1
sVcyl63ch
p2
I1
s.(dp0
Vcyl63ch
p1
I1
sVdhruz7l
p2
I1
s.(dp0
Vcy(dp0
Vcyl63ch
p1
I1
sVdollprk
p2
I1
s.