(dp0
Vcykpgfd
p1
I1
s.(dp0
Vcyva4ea
p1
I1
sVcykpgfd
p2
I1
s.(dp0
Vd0b35yb
p1
I1
sVcykpgfd
p2
I1
s.(dp0
Vd0b35yb
p1
I1
sVcykpgfd
p2
I1
s.(dp0
Vcykpgfd
p1
I1
sVd1db6iu
p2
I1
s.(dp0
Vd30xudq
p1
I1
sVcykpgfd
p2
I1
s.(dp0
Vcykpgfd
p1
I1
sVd55eyl8
p2
I1
s.(dp0
Vcykpgfd
p1
I1
sVd59ab06
p2
I1
s.(dp0
Vd5cz2mm
p1
I1
sVcykpgfd
p2
I1
s.(dp0
Vd5cz2mm
p1
I1
sVcykpgfd
p2
I1
s.(dp0
Vd5e8gdr
p1
I1
sVcykpgfd
p2
I1
s.(dp0
Vd5e8gdr
p1
I1
sVcykpgfd
p2
I1
s.(dp0
Vd5qt28p
p1
I1
sVcykpgfd
p2
I1
s.(dp0
Vd5qt28p
p1
I1
sVcykpgfd
p2
I1
s.(dp0
Vcykpgfd
p1
I1
sVd5r0y89
p2
I1
s.(dp0
Vcykpgfd
p1
I1
sVd68w15t
p2
I1
s.(dp0
Vcykpgfd
p1
I1
sVd68w15t
p2
I1
s.(dp0
Vd7zffjd
p1
I1
sVcykpgfd
p2
I1
s.(dp0
Vd83lt9i
p1
I1
sVcykpgfd
p2
I1
s.(dp0
Vd9ay36e
p1
I1
sVcykpgfd
p2
I1
s.(dp0
Vdasvj81
p1
I1
sVcykpgfd
p2
I1
s.(dp0
Vcykpgfd
p1
I1
sVdfq18rc
p2
I1
s.(dp0
Vcykpgfd
p1
I1
sVdgv5cfe
p2
I1
s.(dp0
Vdh3wr0j
p1
I1
sVcykpgfd
p2
I1
s.(dp0
Vdjztyc0
p1
I1
sVcykpgfd
p2
I1
s.(dp0
Vcykpgfd
p1
I1
sVdkck9tv
p2
I1
s.(dp0
Vcykpgfd
p1
I1
sVdmh83de
p2
I1
s.(dp0
Vdmz9kjp
p1
I1
sVcykpgfd
p2
I1
s.(dp0
Vdmz9kjp
p1
I1
sVcykpgfd
p2
I1
s.(dp0
Vdmz9kjp
p1
I1
sVcykpgfd
p2
I1
s.