(dp0
Vcyiwv6f
p1
I1
s.(dp0
Vcyiwv6f
p1
I1
sVcymc2qk
p2
I1
s.(dp0
Vcyiwv6f
p1
I1
sVcymc2qk
p2
I1
s.(dp0
Vcz4voqx
p1
I1
sVcyiwv6f
p2
I1
s.(dp0
Vcz4voqx
p1
I1
sVcyiwv6f
p2
I1
s.(dp0
Vcyiwv6f
p1
I1
sVczn2hj4
p2
I1
s.(dp0
Vcyiwv6f
p1
I1
sVd04m1cw
p2
I1
s.(dp0
Vcyiwv6f
p1
I1
sVd04m1cw
p2
I1
s.(dp0
Vcyiwv6f
p1
I1
sVd09l1fz
p2
I1
s.(dp0
Vcyiwv6f
p1
I1
sVd0t4w2u
p2
I1
s.(dp0
Vcyiwv6f
p1
I1
sVd14d8ex
p2
I1
s.(dp0
Vcyiwv6f
p1
I1
sVd1d845t
p2
I1
s.(dp0
Vcyiwv6f
p1
I1
sVd1z7si1
p2
I1
s.(dp0
Vcyiwv6f
p1
I1
sVd23lxan
p2
I1
s.(dp0
Vcyiwv6f
p1
I1
sVd27ewp9
p2
I1
s.(dp0
Vcyiwv6f
p1
I1
sVd285etm
p2
I1
s.(dp0
Vcyiwv6f
p1
I1
sVd285etm
p2
I1
s.(dp0
Vcyiwv6f
p1
I1
sVd2cnn7h
p2
I1
s.(dp0
Vcyiwv6f
p1
I1
sVd3cmdor
p2
I1
s.(dp0
Vcyiwv6f
p1
I1
sVd3f3xwu
p2
I1
s.(dp0
Vcyiwv6f
p1
I1
sVd3hxrz1
p2
I1
s.(dp0
Vcyiwv6f
p1
I1
sVd3iuaay
p2
I1
s.(dp0
Vcyiwv6f
p1
I1
sVd4n6rtn
p2
I1
s.(dp0
Vcyiwv6f
p1
I1
sVd54hodf
p2
I1
s.(dp0
Vcyiwv6f
p1
I1
sVd59xdse
p2
I1
s.(dp0
Vcyiwv6f
p1
I1
sVd68rtj7
p2
I1
s.(dp0
Vcyiwv6f
p1
I1
sVd75um0g
p2
I1
s.(dp0
Vd9d8rw3
p1
I1
sVcyiwv6f
p2
I1
s.(dp0
Vd9d8rw3
p1
I1
sVcyiwv6f
p2
I1
s.(dp0
Vd9d8rw3
p1
I1
sVcyiwv6f
p2
I1
s.(dp0
Vcyiwv6f
p1
I1
sVd9rfb65
p2
I1
s.(dp0
Vcyiwv6f
p1
I1
sVdb67dw3
p2
I1
s.(dp0
Vcyiwv6f
p1
I1
sVdbcxqh6
p2
I1
s.(dp0
Vdbo2oeh
p1
I1
sVcyiwv6f
p2
I1
s.(dp0
Vdbobgho
p1
I1
sVcyiwv6f
p2
I1
s.(dp0
Vcyiwv6f
p1
I1
sVdboo6da
p2
I1
s.(dp0
Vcyiwv6f
p1
I1
sVdd23zev
p2
I1
s.(dp0
Vddcz7n3
p1
I1
sVcyiwv6f
p2
I1
s.(dp0
Vddd8olp
p1
I1
sVcyiwv6f
p2
I1
s.(dp0
Vcyiwv6f
p1
I1
sVddufgcl
p2
I1
s.(dp0
Vcyiwv6f
p1
I1
sVde5cijn
p2
I1
s.(dp0
Vcyiwv6f
p1
I1
sVdeuhjou
p2
I1
s.(dp0
Vcyiwv6f
p1
I1
sVdey2dmv
p2
I1
s.(dp0
Vcyiwv6f
p1
I1
sVdf121ws
p2
I1
s.(dp0
Vcyiwv6f
p1
I1
sVdf3gk33
p2
I1
s.(dp0
Vcyiwv6f
p1
I1
sVdfr19b1
p2
I1
s.(dp0
Vcyiwv6f
p1
I1
sVdg8y5ep
p2
I1
s.(dp0
Vdg8ycl6
p1
I1
sVcyiwv6f
p2
I1
s.(dp0
Vcyiwv6f
p1
I1
sVdg9tp1n
p2
I1
s.(dp0
Vcyiwv6f
p1
I1
sVdg9tp1n
p2
I1
s.(dp0
Vcyiwv6f
p1
I1
sVdh029g0
p2
I1
s.(dp0
Vcyiwv6f
p1
I1
sVdh9vcuo
p2
I1
s.(dp0
Vdhkrjo1
p1
I1
sVcyiwv6f
p2
I1
s.(dp0
Vcyiwv6f
p1
I1
sVdhmqhpm
p2
I1
s.(dp0
Vcyiwv6f
p1
I1
sVdi3dnxj
p2
I1
s.(dp0
Vcyiwv6f
p1
I1
sVdihe7ow
p2
I1
s.(dp0
Vcyiwv6f
p1
I1
sVdihpjb4
p2
I1
s.(dp0
Vcyiwv6f
p1
I1
sVdiy0v0s
p2
I1
s.(dp0
Vdj1it1p
p1
I1
sVcyiwv6f
p2
I1
s.(dp0
Vdj9uev0
p1
I1
sVcyiwv6f
p2
I1
s.(dp0
Vcyiwv6f
p1
I1
sVdjd6hq2
p2
I1
s.(dp0
Vcyiwv6f
p1
I1
sVdjxjsyh
p2
I1
s.(dp0
Vcyiwv6f
p1
I1
sVdk6dn1h
p2
I1
s.(dp0
Vcyiwv6f
p1
I1
sVdkj2pqp
p2
I1
s.