(dp0
Vcyhtnrc
p1
I1
s.(dp0
Vcyhtnrc
p1
I1
sVcyi47bu
p2
I1
s.(dp0
Vcyhtnrc
p1
I1
sVcyj744u
p2
I1
s.(dp0
Vcyhtnrc
p1
I1
sVcyjg645
p2
I1
s.(dp0
Vcyhtnrc
p1
I1
sVcyk2qg3
p2
I1
s.(dp0
Vcyhtnrc
p1
I1
sVcyk8h2v
p2
I1
s.(dp0
Vcyhtnrc
p1
I1
sVcykglfj
p2
I1
s.(dp0
Vcyhtnrc
p1
I1
sVcykhjm2
p2
I1
s.(dp0
Vcyhtnrc
p1
I1
sVcyljnzw
p2
I1
s.(dp0
Vcyhtnrc
p1
I1
sVcylnctg
p2
I1
s.(dp0
Vcyhtnrc
p1
I1
sVcymft1w
p2
I1
s.(dp0
Vcyhtnrc
p1
I1
sVcynx971
p2
I1
s.(dp0
Vcyhtnrc
p1
I1
sVcynx971
p2
I1
s.(dp0
Vcyhtnrc
p1
I1
sVcyoko44
p2
I1
s.(dp0
Vcyhtnrc
p1
I1
sVcyp0muo
p2
I1
s.(dp0
Vcyhtnrc
p1
I1
sVcypep3z
p2
I1
s.(dp0
Vcyhtnrc
p1
I1
sVcys0fv4
p2
I1
s.(dp0
Vcyhtnrc
p1
I1
sVcys1yx1
p2
I1
s.(dp0
Vcyhtnrc
p1
I1
sVcys6423
p2
I1
s.(dp0
Vcyhtnrc
p1
I1
sVcysshxi
p2
I1
s.(dp0
Vcyhtnrc
p1
I1
sVcyswz3y
p2
I1
s.(dp0
Vcyhtnrc
p1
I1
sVcyt2521
p2
I1
s.(dp0
Vcyhtnrc
p1
I1
sVcyu5qid
p2
I1
s.(dp0
Vcyhtnrc
p1
I1
sVcyv9nq2
p2
I1
s.(dp0
Vcyhtnrc
p1
I1
sVcywd7ud
p2
I1
s.(dp0
Vcyhtnrc
p1
I1
sVcyxdv50
p2
I1
s.(dp0
Vcyhtnrc
p1
I1
sVcyxht5a
p2
I1
s.(dp0
Vcyhtnrc
p1
I1
sVcyy0bwg
p2
I1
s.(dp0
Vcyhtnrc
p1
I1
sVcyy2xf2
p2
I1
s.(dp0
Vcyhtnrc
p1
I1
sVcz0m9p9
p2
I1
s.(dp0
Vcyhtnrc
p1
I1
sVcz27fbs
p2
I1
s.(dp0
Vcyhtnrc
p1
I1
sVcz2z7mx
p2
I1
s.(dp0
Vcyhtnrc
p1
I1
sVcz34fr9
p2
I1
s.(dp0
Vcyhtnrc
p1
I1
sVcz3xai4
p2
I1
s.(dp0
Vcyhtnrc
p1
I1
sVcz4euq4
p2
I1
s.(dp0
Vcyhtnrc
p1
I1
sVcz4gn22
p2
I1
s.(dp0
Vcyhtnrc
p1
I1
sVcz4gn22
p2
I1
s.(dp0
Vcyhtnrc
p1
I1
sVcz4l7dr
p2
I1
s.(dp0
Vcyhtnrc
p1
I1
sVcz4nws2
p2
I1
s.(dp0
Vcyhtnrc
p1
I1
sVcz4x7s5
p2
I1
s.(dp0
Vcyhtnrc
p1
I1
sVcz4x7s5
p2
I1
s.(dp0
Vcyhtnrc
p1
I1
sVcz4zizd
p2
I1
s.(dp0
Vcyhtnrc
p1
I1
sVcz61xjw
p2
I1
s.(dp0
Vcyhtnrc
p1
I1
sVcz6hbi2
p2
I1
s.(dp0
Vcyhtnrc
p1
I1
sVcz6lhyd
p2
I1
s.(dp0
Vcyhtnrc
p1
I1
sVcz7cn9c
p2
I1
s.(dp0
Vcyhtnrc
p1
I1
sVcz7joaa
p2
I1
s.(dp0
Vcyhtnrc
p1
I1
sVcz849fe
p2
I1
s.(dp0
Vcyhtnrc
p1
I1
sVcz8c2sa
p2
I1
s.(dp0
Vcyhtnrc
p1
I1
sVcz91v71
p2
I1
s.(dp0
Vcyhtnrc
p1
I1
sVcz9fyaj
p2
I1
s.(dp0
Vcyhtnrc
p1
I1
sVcz9msw7
p2
I1
s.(dp0
Vcyhtnrc
p1
I1
sVcz9msw7
p2
I1
s.(dp0
Vcyhtnrc
p1
I1
sVcz9tr33
p2
I1
s.(dp0
Vcyhtnrc
p1
I1
sVcza28en
p2
I1
s.(dp0
Vcyhtnrc
p1
I1
sVczc3pnd
p2
I1
s.(dp0
Vcyhtnrc
p1
I1
sVczcffxy
p2
I1
s.(dp0
Vcyhtnrc
p1
I1
sVczd20v1
p2
I1
s.(dp0
Vcyhtnrc
p1
I1
sVczdv88q
p2
I1
s.(dp0
Vcyhtnrc
p1
I1
sVczgkzd1
p2
I1
s.(dp0
Vcyhtnrc
p1
I1
sVczgvqpi
p2
I1
s.(dp0
Vcyhtnrc
p1
I1
sVczgy51a
p2
I1
s.(dp0
Vcyhtnrc
p1
I1
sVczh5x8p
p2
I1
s.(dp0
Vcyhtnrc
p1
I1
sVczhd7dn
p2
I1
s.(dp0
Vcyhtnrc
p1
I1
sVczhhzcv
p2
I1
s.(dp0
Vcyhtnrc
p1
I1
sVczhii1q
p2
I1
s.(dp0
Vcyhtnrc
p1
I1
sVcziccb9
p2
I1
s.(dp0
Vcyhtnrc
p1
I1
sVczj63fi
p2
I1
s.(dp0
Vcyhtnrc
p1
I1
sVczjp79f
p2
I1
s.(dp0
Vcyhtnrc
p1
I1
sVczksrq7
p2
I1
s.(dp0
Vcyhtnrc
p1
I1
sVczlnmk6
p2
I1
s.(dp0
Vcyhtnrc
p1
I1
sVczlw8cs
p2
I1
s.(dp0
Vcyhtnrc
p1
I1
sVczlxwsr
p2
I1
s.(dp0
Vcyhtnrc
p1
I1
sVczm1qfs
p2
I1
s.(dp0
Vcyhtnrc
p1
I1
sVczm32gy
p2
I1
s.(dp0
Vcyhtnrc
p1
I1
sVczm4aja
p2
I1
s.(dp0
Vcyhtnrc
p1
I1
sVczm661f
p2
I1
s.(dp0
Vcyhtnrc
p1
I1
sVczmrujm
p2
I1
s.(dp0
Vcyhtnrc
p1
I1
sVczn6rhb
p2
I1
s.(dp0
Vcyhtnrc
p1
I1
sVcznpwft
p2
I1
s.(dp0
Vcyhtnrc
p1
I1
sVcznrlr2
p2
I1
s.(dp0
Vcyhtnrc
p1
I1
sVczomr2x
p2
I1
s.(dp0
Vcyhtnrc
p1
I1
sVczoveau
p2
I1
s.(dp0
Vcyhtnrc
p1
I1
sVczpaugb
p2
I1
s.(dp0
Vcyhtnrc
p1
I1
sVczqx723
p2
I1
s.(dp0
Vcyhtnrc
p1
I1
sVczrv7n5
p2
I1
s.(dp0
Vcyhtnrc
p1
I1
sVczrwgdn
p2
I1
s.(dp0
Vcyhtnrc
p1
I1
sVczsd2fi
p2
I1
s.(dp0
Vcyhtnrc
p1
I1
sVczszr9i
p2
I1
s.(dp0
Vcyhtnrc
p1
I1
sVczt6c1p
p2
I1
s.(dp0
Vcyhtnrc
p1
I1
sVczu6ien
p2
I1
s.(dp0
Vcyhtnrc
p1
I1
sVczuxy7d
p2
I1
s.(dp0
Vcyhtnrc
p1
I1
sVczvzak1
p2
I1
s.(dp0
Vcyhtnrc
p1
I1
sVczw5acc
p2
I1
s.(dp0
Vcyhtnrc
p1
I1
sVczwx7si
p2
I1
s.(dp0
Vcyhtnrc
p1
I1
sVczyoj2l
p2
I1
s.(dp0
Vcyhtnrc
p1
I1
sVczyuj1i
p2
I1
s.(dp0
Vcyhtnrc
p1
I1
sVczyxn5m
p2
I1
s.(dp0
Vcyhtnrc
p1
I1
sVczz7o20
p2
I1
s.(dp0
Vcyhtnrc
p1
I1
sVczz7o20
p2
I1
s.(dp0
Vcyhtnrc
p1
I1
sVczzdjdb
p2
I1
s.(dp0
Vcyhtnrc
p1
I1
sVczzri6t
p2
I1
s.(dp0
Vcyhtnrc
p1
I1
sVczzxmqn
p2
I1
s.(dp0
Vcyhtnrc
p1
I1
sVczzxmqn
p2
I1
s.(dp0
Vcyhtnrc
p1
I1
sVczzzsop
p2
I1
s.(dp0
Vcyhtnrc
p1
I1
sVd001f6c
p2
I1
s.(dp0
Vcyhtnrc
p1
I1
sVd00dsqw
p2
I1
s.(dp0
Vcyhtnrc
p1
I1
sVd00oswm
p2
I1
s.(dp0
Vcy(dp0
Vcyhtnrc
p1
I1
sVdozwyih
p2
I1
s.