(dp0
Vczk51ki
p1
I1
s.(dp0
Vd07a799
p1
I1
sVczk51ki
p2
I1
s.(dp0
Vd0e7ivl
p1
I1
sVczk51ki
p2
I1
s.(dp0
Vd0e9eq7
p1
I1
sVczk51ki
p2
I1
s.(dp0
Vd19dlnz
p1
I1
sVczk51ki
p2
I1
s.(dp0
Vd27oqzd
p1
I1
sVczk51ki
p2
I1
s.(dp0
Vd2la0b4
p1
I1
sVczk51ki
p2
I1
s.(dp0
Vd3ssedm
p1
I1
sVczk51ki
p2
I1
s.(dp0
Vd4m671l
p1
I1
sVczk51ki
p2
I1
s.(dp0
Vd4m7c90
p1
I1
sVczk51ki
p2
I1
s.(dp0
Vd8eo82j
p1
I1
sVczk51ki
p2
I1
s.(dp0
Vdjl39dk
p1
I1
sVczk51ki
p2
I1
s.