(dp0
Vd7qs7eb
p1
I1
s.(dp0
Vd7qs7eb
p1
I2
s.(dp0
Vd7qs7eb
p1
I1
sVd8hmek1
p2
I1
s.(dp0
Vd7qs7eb
p1
I1
sVd9390n9
p2
I1
s.(dp0
Vd7qs7eb
p1
I1
sVdacycez
p2
I1
s.(dp0
Vd7qs7eb
p1
I1
sVdetvcpz
p2
I1
s.(dp0
Vd7qs7eb
p1
I1
sVdiyi4n2
p2
I1
s.