(dp0
Vcylgmby
p1
I1
s.(dp0
Vczc55r9
p1
I1
sVcylgmby
p2
I1
s.(dp0
Vcylgmby
p1
I1
sVd0te3zz
p2
I1
s.(dp0
Vcylgmby
p1
I1
sVd17lpuy
p2
I1
s.(dp0
Vcylgmby
p1
I1
sVd17lpuy
p2
I1
s.(dp0
Vcylgmby
p1
I1
sVd17lpuy
p2
I1
s.(dp0
Vd3vck2x
p1
I1
sVcylgmby
p2
I1
s.(dp0
Vcylgmby
p1
I1
sVd5udfk7
p2
I1
s.(dp0
Vdbm2u79
p1
I1
sVcylgmby
p2
I1
s.(dp0
Vdd2vstt
p1
I1
sVcylgmby
p2
I1
s.(dp0
Vcylgmby
p1
I1
sVdd2zr9k
p2
I1
s.(dp0
Vcylgmby
p1
I1
sVdd2zr9k
p2
I1
s.(dp0
Vcylgmby
p1
I1
sVdd2zu66
p2
I1
s.(dp0
Vcylgmby
p1
I1
sVdd335ay
p2
I1
s.(dp0
Vcylgmby
p1
I1
sVdd335ay
p2
I1
s.(dp0
Vcylgmby
p1
I1
sVdd335ay
p2
I1
s.(dp0
Vcylgmby
p1
I1
sVdd335ay
p2
I1
s.(dp0
Vddlo7rw
p1
I1
sVcylgmby
p2
I1
s.(dp0
Vdfx1g1f
p1
I1
sVcylgmby
p2
I1
s.(dp0
Vcylgmby
p1
I1
sVdi3ezw6
p2
I1
s.(dp0
Vdmo4qqj
p1
I1
sVcylgmby
p2
I1
s.(dp0
Vdmo4qqj
p1
I1
sVcylgmby
p2
I1
s.(dp0
Vcylgmby
p1
I1
sVdnv37kk
p2
I1
s.(dp0
Vdocwz2l
p1
I1
sVcylgmby
p2
I1
s.(dp0
Vdocwz2l
p1
I1
sVcylgmby
p2
I1
s.