(dp0
Vcyi05ck
p1
I1
s.(dp0
Vcyi05ck
p1
I1
sVcyibhtc
p2
I1
s.(dp0
Vcyi05ck
p1
I1
sVcyion75
p2
I1
s.(dp0
Vcyi05ck
p1
I1
sVcyion75
p2
I1
s.(dp0
Vcyi05ck
p1
I1
sVcyion75
p2
I1
s.(dp0
Vcyi05ck
p1
I1
sVcyion75
p2
I1
s.(dp0
Vcyi05ck
p1
I1
sVcyion75
p2
I1
s.(dp0
Vcyi05ck
p1
I1
sVcyiphx8
p2
I1
s.(dp0
Vcyi05ck
p1
I1
sVcyiphx8
p2
I1
s.(dp0
Vcyi05ck
p1
I1
sVcyis0p9
p2
I1
s.(dp0
Vcyi05ck
p1
I1
sVcynl50y
p2
I1
s.(dp0
Vcyi05ck
p1
I1
sVcynl50y
p2
I1
s.(dp0
Vcyi05ck
p1
I1
sVcypdzj8
p2
I1
s.(dp0
Vcyi05ck
p1
I1
sVcytpdgi
p2
I1
s.(dp0
Vcyi05ck
p1
I1
sVcytpnry
p2
I1
s.(dp0
Vcyi05ck
p1
I1
sVcytpnry
p2
I1
s.(dp0
Vcyi05ck
p1
I1
sVcytpnry
p2
I1
s.(dp0
Vcyi05ck
p1
I1
sVcytpnry
p2
I1
s.(dp0
Vcyi05ck
p1
I1
sVcytpnry
p2
I1
s.(dp0
Vcyi05ck
p1
I1
sVcyv3qcg
p2
I1
s.(dp0
Vcyi05ck
p1
I1
sVcywgzcq
p2
I1
s.(dp0
Vcyi05ck
p1
I1
sVcz3cg8x
p2
I1
s.(dp0
Vcyi05ck
p1
I1
sVcz3cg8x
p2
I1
s.(dp0
Vcyi05ck
p1
I1
sVcz3cg8x
p2
I1
s.(dp0
Vcyi05ck
p1
I1
sVcz3cg8x
p2
I1
s.(dp0
Vcz5cilo
p1
I1
sVcyi05ck
p2
I1
s.(dp0
Vcyi05ck
p1
I1
sVcz5wztd
p2
I1
s.(dp0
Vcyi05ck
p1
I1
sVcz6cssv
p2
I1
s.(dp0
Vcyi05ck
p1
I1
sVcz6cssv
p2
I1
s.(dp0
Vcyi05ck
p1
I1
sVcz9jvn8
p2
I1
s.(dp0
Vcyi05ck
p1
I1
sVcza9i1h
p2
I1
s.(dp0
Vcyi05ck
p1
I1
sVczc1smh
p2
I1
s.(dp0
Vcyi05ck
p1
I1
sVczc55r9
p2
I1
s.(dp0
Vcyi05ck
p1
I1
sVczc55r9
p2
I1
s.(dp0
Vcyi05ck
p1
I1
sVczc55r9
p2
I1
s.(dp0
Vcyi05ck
p1
I1
sVczc55r9
p2
I1
s.(dp0
Vcyi05ck
p1
I1
sVczc55r9
p2
I1
s.(dp0
Vcyi05ck
p1
I1
sVczc8kln
p2
I1
s.(dp0
Vcyi05ck
p1
I1
sVcze5ycc
p2
I1
s.(dp0
Vcyi05ck
p1
I1
sVcze5ycc
p2
I1
s.(dp0
Vcyi05ck
p1
I1
sVczf1s65
p2
I1
s.(dp0
Vcyi05ck
p1
I1
sVczfkk4n
p2
I1
s.(dp0
Vcyi05ck
p1
I1
sVczhm43v
p2
I1
s.(dp0
Vcyi05ck
p1
I1
sVczhoxkq
p2
I1
s.(dp0
Vcyi05ck
p1
I1
sVczhoxkq
p2
I1
s.(dp0
Vcyi05ck
p1
I1
sVczjg9ak
p2
I1
s.(dp0
Vcyi05ck
p1
I1
sVczjvoou
p2
I1
s.(dp0
Vcyi05ck
p1
I1
sVczka9tj
p2
I1
s.(dp0
Vcyi05ck
p1
I1
sVczka9tj
p2
I1
s.(dp0
Vcyi05ck
p1
I1
sVczka9tj
p2
I1
s.(dp0
Vcyi05ck
p1
I1
sVczktpvb
p2
I1
s.(dp0
Vcyi05ck
p1
I1
sVczktpvb
p2
I1
s.(dp0
Vcyi05ck
p1
I1
sVczlwb4o
p2
I1
s.(dp0
Vcyi05ck
p1
I1
sVczmenv5
p2
I1
s.(dp0
Vcyi05ck
p1
I1
sVczn1u8z
p2
I1
s.(dp0
Vcyi05ck
p1
I1
sVczoua9j
p2
I1
s.(dp0
Vczpp8qq
p1
I1
sVcyi05ck
p2
I1
s.(dp0
Vcyi05ck
p1
I1
sVczpvbbe
p2
I1
s.(dp0
Vcyi05ck
p1
I1
sVczqh1ep
p2
I1
s.(dp0
Vcyi05ck
p1
I1
sVczqik7u
p2
I1
s.(dp0
Vcyi05ck
p1
I1
sVczqwgf3
p2
I1
s.(dp0
Vczs2tra
p1
I1
sVcyi05ck
p2
I1
s.(dp0
Vcyi05ck
p1
I1
sVczslnze
p2
I1
s.(dp0
Vcyi05ck
p1
I1
sVczslnze
p2
I1
s.(dp0
Vcyi05ck
p1
I1
sVczv71cg
p2
I1
s.(dp0
Vcyi05ck
p1
I1
sVczv71cg
p2
I1
s.(dp0
Vcyi05ck
p1
I1
sVczv71cg
p2
I1
s.(dp0
Vcyi05ck
p1
I1
sVczv71cg
p2
I1
s.(dp0
Vcyi05ck
p1
I1
sVczv7dp0
p2
I1
s.(dp0
Vcyi05ck
p1
I1
sVczxkys0
p2
I1
s.(dp0
Vcyi05ck
p1
I1
sVczxlhah
p2
I1
s.(dp0
Vcyi05ck
p1
I1
sVczxsqxo
p2
I1
s.(dp0
Vcyi05ck
p1
I1
sVczy9myo
p2
I1
s.(dp0
Vcyi05ck
p1
I1
sVczyj5no
p2
I1
s.(dp0
Vcyi05ck
p1
I1
sVczyj5no
p2
I1
s.(dp0
Vcyi05ck
p1
I1
sVd035y9m
p2
I1
s.(dp0
Vcyi05ck
p1
I1
sVd04a2sv
p2
I1
s.(dp0
Vcyi05ck
p1
I1
sVd052wso
p2
I1
s.(dp0
Vcyi05ck
p1
I1
sVd06t3om
p2
I1
s.(dp0
Vcyi05ck
p1
I1
sVd07zuhy
p2
I1
s.(dp0
Vcyi05ck
p1
I1
sVd09id0m
p2
I1
s.(dp0
Vcyi05ck
p1
I1
sVd09id0m
p2
I1
s.(dp0
Vcyi05ck
p1
I1
sVd09io1o
p2
I1
s.(dp0
Vcyi05ck
p1
I1
sVd0b5ktd
p2
I1
s.(dp0
Vcyi05ck
p1
I1
sVd0bu3ab
p2
I1
s.(dp0
Vcyi05ck
p1
I1
sVd0buxj4
p2
I1
s.(dp0
Vcyi05ck
p1
I1
sVd0g0jc6
p2
I1
s.(dp0
Vcyi05ck
p1
I1
sVd0j985f
p2
I1
s.(dp0
Vcyi05ck
p1
I1
sVd0j985f
p2
I1
s.(dp0
Vcyi05ck
p1
I1
sVd0ji53e
p2
I1
s.(dp0
Vcyi05ck
p1
I1
sVd0pu3wi
p2
I1
s.(dp0
Vcyi05ck
p1
I1
sVd0r5qog
p2
I1
s.(dp0
Vcyi05ck
p1
I1
sVd0te3zz
p2
I1
s.(dp0
Vcyi05ck
p1
I1
sVd0te3zz
p2
I1
s.(dp0
Vcyi05ck
p1
I1
sVd0te3zz
p2
I1
s.(dp0
Vcyi05ck
p1
I1
sVd0xtcrt
p2
I1
s.(dp0
Vcyi05ck
p1
I1
sVd0xtcrt
p2
I1
s.(dp0
Vcyi05ck
p1
I1
sVd0xtcrt
p2
I1
s.(dp0
Vcyi05ck
p1
I1
sVd0y21ku
p2
I1
s.(dp0
Vcyi05ck
p1
I1
sVd0y21ku
p2
I1
s.(dp0
Vcyi05ck
p1
I1
sVd0y21ku
p2
I1
s.(dp0
Vcyi05ck
p1
I1
sVd110m7s
p2
I1
s.(dp0
Vcyi05ck
p1
I1
sVd110m7s
p2
I1
s.(dp0
Vcyi05ck
p1
I1
sVd13gagq
p2
I1
s.(dp0
Vcyi05ck
p1
I1
sVd16q1kt
p2
I1
s.(dp0
Vcyi05ck
p1
I1
sVd16u4pc
p2
I1
s.(dp0
Vcyi05ck
p1
I1
sVd16u4pc
p2
I1
s.(dp0
Vcyi05ck
p1
I1
sVd16u4pc
p2
I1
s.(dp0
Vcy(dp0
Vcyi05ck
p1
I1
sVdkqv475
p2
I1
s.