(dp0
Vcyi2w5f
p1
I1
s.(dp0
Vcyi4rib
p1
I1
sVcyi2w5f
p2
I1
s.(dp0
Vcyi2w5f
p1
I1
sVcyi5mdn
p2
I1
s.(dp0
Vcyi5ont
p1
I1
sVcyi2w5f
p2
I1
s.(dp0
Vcyi2w5f
p1
I1
sVcyi6kub
p2
I1
s.(dp0
Vcyi2w5f
p1
I1
sVcyi9do0
p2
I1
s.(dp0
Vcyic2bb
p1
I1
sVcyi2w5f
p2
I1
s.(dp0
Vcyicxc6
p1
I1
sVcyi2w5f
p2
I1
s.(dp0
Vcyi2w5f
p1
I1
sVcyidh07
p2
I1
s.(dp0
Vcyi2w5f
p1
I1
sVcyie1j1
p2
I1
s.(dp0
Vcyi2w5f
p1
I1
sVcyieljc
p2
I1
s.(dp0
Vcyi2w5f
p1
I1
sVcyieljc
p2
I1
s.(dp0
Vcyi2w5f
p1
I1
sVcyif314
p2
I1
s.(dp0
Vcyiianv
p1
I1
sVcyi2w5f
p2
I1
s.(dp0
Vcyiianv
p1
I1
sVcyi2w5f
p2
I1
s.(dp0
Vcyi2w5f
p1
I1
sVcyindf0
p2
I1
s.(dp0
Vcyion75
p1
I1
sVcyi2w5f
p2
I1
s.(dp0
Vcyi2w5f
p1
I1
sVcyis92v
p2
I1
s.(dp0
Vcyi2w5f
p1
I1
sVcyiw680
p2
I1
s.(dp0
Vcyix6k4
p1
I1
sVcyi2w5f
p2
I1
s.(dp0
Vcyi2w5f
p1
I1
sVcyj3e18
p2
I1
s.(dp0
Vcyi2w5f
p1
I1
sVcyj5r3g
p2
I1
s.(dp0
Vcyi2w5f
p1
I1
sVcyj7fiq
p2
I1
s.(dp0
Vcyi2w5f
p1
I1
sVcyj7zpx
p2
I1
s.(dp0
Vcyi2w5f
p1
I1
sVcyj8nzv
p2
I1
s.(dp0
Vcyj8qez
p1
I1
sVcyi2w5f
p2
I1
s.(dp0
Vcyi2w5f
p1
I1
sVcyj9nhi
p2
I1
s.(dp0
Vcyja6nz
p1
I1
sVcyi2w5f
p2
I1
s.(dp0
Vcyi2w5f
p1
I1
sVcyjb4ks
p2
I1
s.(dp0
Vcyjd2qp
p1
I1
sVcyi2w5f
p2
I1
s.(dp0
Vcyjd659
p1
I1
sVcyi2w5f
p2
I1
s.(dp0
Vcyi2w5f
p1
I1
sVcyjdkm2
p2
I1
s.(dp0
Vcyjdrgv
p1
I1
sVcyi2w5f
p2
I1
s.(dp0
Vcyi2w5f
p1
I1
sVcyjfxoy
p2
I1
s.(dp0
Vcyjg8dy
p1
I1
sVcyi2w5f
p2
I1
s.(dp0
Vcyi2w5f
p1
I1
sVcyjgpib
p2
I1
s.(dp0
Vcyi2w5f
p1
I1
sVcyjgwjg
p2
I1
s.(dp0
Vcyi2w5f
p1
I1
sVcyjiv6t
p2
I1
s.(dp0
Vcyjkutp
p1
I1
sVcyi2w5f
p2
I1
s.(dp0
Vcyi2w5f
p1
I1
sVcyjkzek
p2
I1
s.(dp0
Vcyjli9b
p1
I1
sVcyi2w5f
p2
I1
s.(dp0
Vcyi2w5f
p1
I1
sVcyjmb2q
p2
I1
s.(dp0
Vcyjn5lv
p1
I1
sVcyi2w5f
p2
I1
s.(dp0
Vcyi2w5f
p1
I1
sVcyjnhd1
p2
I1
s.(dp0
Vcyi2w5f
p1
I1
sVcyjpdxf
p2
I1
s.(dp0
Vcyjpflv
p1
I1
sVcyi2w5f
p2
I1
s.(dp0
Vcyi2w5f
p1
I1
sVcyjpruj
p2
I1
s.(dp0
Vcyi2w5f
p1
I1
sVcyjpruj
p2
I1
s.(dp0
Vcyi2w5f
p1
I1
sVcyjqt44
p2
I1
s.(dp0
Vcyi2w5f
p1
I1
sVcyjqt44
p2
I1
s.(dp0
Vcyi2w5f
p1
I1
sVcyjsovi
p2
I1
s.(dp0
Vcyi2w5f
p1
I1
sVcyjv5pm
p2
I1
s.(dp0
Vcyjxubb
p1
I1
sVcyi2w5f
p2
I1
s.(dp0
Vcyi2w5f
p1
I1
sVcyjzk83
p2
I1
s.(dp0
Vcyk24of
p1
I1
sVcyi2w5f
p2
I1
s.(dp0
Vcyk24of
p1
I1
sVcyi2w5f
p2
I1
s.(dp0
Vcyi2w5f
p1
I1
sVcyk2dpg
p2
I1
s.(dp0
Vcyk7vix
p1
I1
sVcyi2w5f
p2
I1
s.(dp0
Vcyi2w5f
p1
I1
sVcyk9i9f
p2
I1
s.(dp0
Vcyi2w5f
p1
I1
sVcyka2z1
p2
I1
s.(dp0
Vcykaynh
p1
I1
sVcyi2w5f
p2
I1
s.(dp0
Vcyi2w5f
p1
I1
sVcykdpwg
p2
I1
s.(dp0
Vcyi2w5f
p1
I1
sVcykdwwv
p2
I1
s.(dp0
Vcyi2w5f
p1
I1
sVcykf0d4
p2
I1
s.(dp0
Vcyi2w5f
p1
I1
sVcykgsbi
p2
I1
s.(dp0
Vcyi2w5f
p1
I1
sVcykhl43
p2
I1
s.(dp0
Vcyi2w5f
p1
I1
sVcykkwzb
p2
I1
s.(dp0
Vcyi2w5f
p1
I1
sVcyknmdo
p2
I1
s.(dp0
Vcyi2w5f
p1
I1
sVcykp0gk
p2
I1
s.(dp0
Vcyi2w5f
p1
I1
sVcyku4i1
p2
I1
s.(dp0
Vcyi2w5f
p1
I1
sVcykusi1
p2
I1
s.(dp0
Vcyi2w5f
p1
I1
sVcykusi1
p2
I1
s.(dp0
Vcyi2w5f
p1
I1
sVcykvc5a
p2
I1
s.(dp0
Vcyi2w5f
p1
I1
sVcyl2bt6
p2
I1
s.(dp0
Vcyi2w5f
p1
I1
sVcyl2qie
p2
I1
s.(dp0
Vcyi2w5f
p1
I1
sVcyl3261
p2
I1
s.(dp0
Vcyi2w5f
p1
I1
sVcyl3261
p2
I1
s.(dp0
Vcyi2w5f
p1
I1
sVcyl5lhm
p2
I1
s.(dp0
Vcyi2w5f
p1
I1
sVcyl9fev
p2
I1
s.(dp0
Vcylad2w
p1
I1
sVcyi2w5f
p2
I1
s.(dp0
Vcyi2w5f
p1
I1
sVcyldoro
p2
I1
s.(dp0
Vcyi2w5f
p1
I1
sVcylhi56
p2
I1
s.(dp0
Vcyi2w5f
p1
I1
sVcyli5p1
p2
I1
s.(dp0
Vcyi2w5f
p1
I1
sVcyli8aa
p2
I1
s.(dp0
Vcyi2w5f
p1
I1
sVcyli9tb
p2
I1
s.(dp0
Vcyi2w5f
p1
I1
sVcyliapv
p2
I1
s.(dp0
Vcylicze
p1
I1
sVcyi2w5f
p2
I1
s.(dp0
Vcyi2w5f
p1
I1
sVcyljclh
p2
I1
s.(dp0
Vcyi2w5f
p1
I1
sVcylkb59
p2
I1
s.(dp0
Vcylknaf
p1
I1
sVcyi2w5f
p2
I1
s.(dp0
Vcylknaf
p1
I1
sVcyi2w5f
p2
I1
s.(dp0
Vcyi2w5f
p1
I1
sVcylkwnm
p2
I1
s.(dp0
Vcyi2w5f
p1
I1
sVcylltid
p2
I1
s.(dp0
Vcyi2w5f
p1
I1
sVcylmmk7
p2
I1
s.(dp0
Vcyi2w5f
p1
I1
sVcyln7he
p2
I1
s.(dp0
Vcyi2w5f
p1
I1
sVcylnjxd
p2
I1
s.(dp0
Vcyi2w5f
p1
I1
sVcylns1s
p2
I1
s.(dp0
Vcyi2w5f
p1
I1
sVcyloke5
p2
I1
s.(dp0
Vcylozez
p1
I1
sVcyi2w5f
p2
I1
s.(dp0
Vcylqr0b
p1
I1
sVcyi2w5f
p2
I1
s.(dp0
Vcylqr0b
p1
I1
sVcyi2w5f
p2
I1
s.(dp0
Vcyi2w5f
p1
I1
sVcylvbm9
p2
I1
s.(dp0
Vcyi2w5f
p1
I1
sVcylwunt
p2
I1
s.(dp0
Vcyi2w5f
p1
I1
sVcylwunt
p2
I1
s.(dp0
Vcyly2xs
p1
I1
sVcyi2w5f
p2
I1
s.(dp0
Vcyi2w5f
p1
I1
sVcym1ugz
p2
I1
s.(dp0
Vcyi2w5f
p1
I1
sVcym21hr
p2
I1
s.(dp0
Vcyi2w5f
p1
I1
sVcym42ux
p2
I1
s.(dp0
Vcy(dp0
Vcyi2w5f
p1
I1
sVdkzheek
p2
I1
s.