(dp0
Vd54u6lr
p1
I1
s.(dp0
Vd54u6lr
p1
I2
s.(dp0
Vdc4ijxj
p1
I1
sVd54u6lr
p2
I1
s.(dp0
Vdfx9lh8
p1
I1
sVd54u6lr
p2
I1
s.(dp0
Vdfx9lh8
p1
I1
sVd54u6lr
p2
I1
s.(dp0
Vdfx9q2q
p1
I1
sVd54u6lr
p2
I1
s.(dp0
Vdfx9q2q
p1
I1
sVd54u6lr
p2
I1
s.(dp0
Vdfx9q2q
p1
I1
sVd54u6lr
p2
I1
s.(dp0
Vdizf38i
p1
I1
sVd54u6lr
p2
I1
s.(dp0
Vdokcht2
p1
I1
sVd54u6lr
p2
I1
s.