(dp0
Vcykcit1
p1
I1
s.(dp0
Vcyqusah
p1
I1
sVcykcit1
p2
I1
s.(dp0
Vcyvvcr1
p1
I1
sVcykcit1
p2
I1
s.(dp0
Vcz964rs
p1
I1
sVcykcit1
p2
I1
s.(dp0
Vcykcit1
p1
I1
sVczmajsl
p2
I1
s.(dp0
Vd05o8vu
p1
I1
sVcykcit1
p2
I1
s.(dp0
Vd1isgi1
p1
I1
sVcykcit1
p2
I1
s.(dp0
Vcykcit1
p1
I1
sVd1sbrxr
p2
I1
s.(dp0
Vd2uj22k
p1
I1
sVcykcit1
p2
I1
s.(dp0
Vd2xja9q
p1
I1
sVcykcit1
p2
I1
s.(dp0
Vd3wdxze
p1
I1
sVcykcit1
p2
I1
s.(dp0
Vd413jvu
p1
I1
sVcykcit1
p2
I1
s.(dp0
Vcykcit1
p1
I1
sVd74sx2s
p2
I1
s.(dp0
Vd75jknl
p1
I1
sVcykcit1
p2
I1
s.(dp0
Vd75yj8j
p1
I1
sVcykcit1
p2
I1
s.(dp0
Vd7hk00c
p1
I1
sVcykcit1
p2
I1
s.(dp0
Vcykcit1
p1
I1
sVd8iy5eb
p2
I1
s.(dp0
Vd97dsoy
p1
I1
sVcykcit1
p2
I1
s.(dp0
Vcykcit1
p1
I1
sVd9c1e94
p2
I1
s.(dp0
Vd9pk780
p1
I1
sVcykcit1
p2
I1
s.(dp0
Vcykcit1
p1
I1
sVdahkdlh
p2
I1
s.(dp0
Vdbncto2
p1
I1
sVcykcit1
p2
I1
s.(dp0
Vdbqfun4
p1
I1
sVcykcit1
p2
I1
s.(dp0
Vdcju41s
p1
I1
sVcykcit1
p2
I1
s.(dp0
Vcykcit1
p1
I1
sVddkdvxy
p2
I1
s.(dp0
Vddl4e1i
p1
I1
sVcykcit1
p2
I1
s.(dp0
Vder3v5s
p1
I1
sVcykcit1
p2
I1
s.(dp0
Vdeul9hn
p1
I1
sVcykcit1
p2
I1
s.(dp0
Vdeuqnte
p1
I1
sVcykcit1
p2
I1
s.(dp0
Vdfkkmlh
p1
I1
sVcykcit1
p2
I1
s.(dp0
Vdfkkmlh
p1
I1
sVcykcit1
p2
I1
s.(dp0
Vdg8ue65
p1
I1
sVcykcit1
p2
I1
s.(dp0
Vcykcit1
p1
I1
sVdgzkfp0
p2
I1
s.(dp0
Vdh94bgd
p1
I1
sVcykcit1
p2
I1
s.(dp0
Vcykcit1
p1
I1
sVdhjj0cs
p2
I1
s.(dp0
Vcykcit1
p1
I1
sVdi70r3f
p2
I1
s.(dp0
Vdiedhuz
p1
I1
sVcykcit1
p2
I1
s.(dp0
Vdiiwtvk
p1
I1
sVcykcit1
p2
I1
s.(dp0
Vdipgh5n
p1
I1
sVcykcit1
p2
I1
s.(dp0
Vdkxlbtq
p1
I1
sVcykcit1
p2
I1
s.(dp0
Vdnvqlmf
p1
I1
sVcykcit1
p2
I1
s.(dp0
Vdoptut3
p1
I1
sVcykcit1
p2
I1
s.