(dp0
Vcylpsc4
p1
I1
s.(dp0
Vcylpsc4
p1
I1
sVcz8exor
p2
I1
s.(dp0
Vcylpsc4
p1
I1
sVczdm6jj
p2
I1
s.(dp0
Vcylpsc4
p1
I1
sVczm6yct
p2
I1
s.(dp0
Vcylpsc4
p1
I1
sVczuq3i9
p2
I1
s.(dp0
Vcylpsc4
p1
I1
sVd05vdnx
p2
I1
s.(dp0
Vcylpsc4
p1
I1
sVd07d2l9
p2
I1
s.(dp0
Vcylpsc4
p1
I1
sVd0xvhip
p2
I1
s.(dp0
Vcylpsc4
p1
I1
sVd2kdeiw
p2
I1
s.(dp0
Vcylpsc4
p1
I1
sVd3hhpjd
p2
I1
s.(dp0
Vcylpsc4
p1
I1
sVd543yzh
p2
I1
s.(dp0
Vcylpsc4
p1
I1
sVd5ahvgd
p2
I1
s.(dp0
Vcylpsc4
p1
I1
sVd7k5utf
p2
I1
s.(dp0
Vcylpsc4
p1
I1
sVd8clo93
p2
I1
s.(dp0
Vd8zcpa7
p1
I1
sVcylpsc4
p2
I1
s.(dp0
Vcylpsc4
p1
I1
sVddbfnp8
p2
I1
s.(dp0
Vcylpsc4
p1
I1
sVddwmr0o
p2
I1
s.(dp0
Vcylpsc4
p1
I1
sVdh9c1ep
p2
I1
s.