(dp0
Vd0lqv3d
p1
I1
s.(dp0
Vd33y3wq
p1
I1
sVd0lqv3d
p2
I1
s.(dp0
Vd34lfmb
p1
I1
sVd0lqv3d
p2
I1
s.(dp0
Vd34lfmb
p1
I1
sVd0lqv3d
p2
I1
s.(dp0
Vd34lfmb
p1
I1
sVd0lqv3d
p2
I1
s.(dp0
Vd34lfmb
p1
I1
sVd0lqv3d
p2
I1
s.(dp0
Vd34lfmb
p1
I1
sVd0lqv3d
p2
I1
s.(dp0
Vd34lfmb
p1
I1
sVd0lqv3d
p2
I1
s.(dp0
Vd34lfmb
p1
I1
sVd0lqv3d
p2
I1
s.(dp0
Vd387w8j
p1
I1
sVd0lqv3d
p2
I1
s.(dp0
Vd439aqa
p1
I1
sVd0lqv3d
p2
I1
s.(dp0
Vd4aey56
p1
I1
sVd0lqv3d
p2
I1
s.(dp0
Vd59ms72
p1
I1
sVd0lqv3d
p2
I1
s.(dp0
Vd5ybft6
p1
I1
sVd0lqv3d
p2
I1
s.(dp0
Vd5ybft6
p1
I1
sVd0lqv3d
p2
I1
s.(dp0
Vd5ybft6
p1
I1
sVd0lqv3d
p2
I1
s.(dp0
Vd5ybft6
p1
I1
sVd0lqv3d
p2
I1
s.(dp0
Vd5ybft6
p1
I1
sVd0lqv3d
p2
I1
s.(dp0
Vd86gebv
p1
I1
sVd0lqv3d
p2
I1
s.(dp0
Vdaqkky8
p1
I1
sVd0lqv3d
p2
I1
s.(dp0
Vdfb4qbx
p1
I1
sVd0lqv3d
p2
I1
s.(dp0
Vdi18gt9
p1
I1
sVd0lqv3d
p2
I1
s.(dp0
Vdk9uqaj
p1
I1
sVd0lqv3d
p2
I1
s.(dp0
Vdn2c28r
p1
I1
sVd0lqv3d
p2
I1
s.