(dp0
Vd3zr6p0
p1
I1
s.(dp0
Vd3zr6p0
p1
I1
sVd51wuv6
p2
I1
s.(dp0
Vd3zr6p0
p1
I1
sVd51wuv6
p2
I1
s.(dp0
Vd6pk0f8
p1
I1
sVd3zr6p0
p2
I1
s.(dp0
Vd3zr6p0
p1
I1
sVd72hz7v
p2
I1
s.(dp0
Vd3zr6p0
p1
I1
sVda7si92
p2
I1
s.(dp0
Vd3zr6p0
p1
I1
sVdewis8e
p2
I1
s.(dp0
Vdgzq18l
p1
I1
sVd3zr6p0
p2
I1
s.(dp0
Vdkj68q5
p1
I1
sVd3zr6p0
p2
I1
s.