(dp0
Vd0v29d6
p1
I1
s.(dp0
Vd0v29d6
p1
I1
sVd2ccry5
p2
I1
s.(dp0
Vd0v29d6
p1
I1
sVd5362yv
p2
I1
s.(dp0
Vd0v29d6
p1
I1
sVd622pbb
p2
I1
s.(dp0
Vd0v29d6
p1
I1
sVd6pa4t4
p2
I1
s.(dp0
Vd0v29d6
p1
I1
sVdcrpyu7
p2
I1
s.(dp0
Vd0v29d6
p1
I1
sVdep3vcp
p2
I1
s.(dp0
Vd0v29d6
p1
I1
sVdj03pe0
p2
I1
s.(dp0
Vd0v29d6
p1
I1
sVdjek89c
p2
I1
s.