(dp0
Vcyirn2u
p1
I1
s.(dp0
Vcyirn2u
p1
I1
sVcyp7502
p2
I1
s.(dp0
Vcyv0n1u
p1
I1
sVcyirn2u
p2
I1
s.(dp0
Vcz86ww0
p1
I1
sVcyirn2u
p2
I1
s.(dp0
Vczah1sl
p1
I1
sVcyirn2u
p2
I1
s.(dp0
Vczemepp
p1
I1
sVcyirn2u
p2
I1
s.(dp0
Vcyirn2u
p1
I1
sVczvj38f
p2
I1
s.(dp0
Vd0rwgqg
p1
I1
sVcyirn2u
p2
I1
s.(dp0
Vd0yqavc
p1
I1
sVcyirn2u
p2
I1
s.(dp0
Vd0yqavc
p1
I1
sVcyirn2u
p2
I1
s.(dp0
Vcyirn2u
p1
I1
sVd10k7iz
p2
I1
s.(dp0
Vd14yke0
p1
I1
sVcyirn2u
p2
I1
s.(dp0
Vcyirn2u
p1
I1
sVd1laweb
p2
I1
s.(dp0
Vd21qrww
p1
I1
sVcyirn2u
p2
I1
s.(dp0
Vd2e3zes
p1
I1
sVcyirn2u
p2
I1
s.(dp0
Vcyirn2u
p1
I1
sVd2ig8nb
p2
I1
s.(dp0
Vcyirn2u
p1
I1
sVd2qbvv1
p2
I1
s.(dp0
Vd4flc2p
p1
I1
sVcyirn2u
p2
I1
s.(dp0
Vd4plix8
p1
I1
sVcyirn2u
p2
I1
s.(dp0
Vd4zv67a
p1
I1
sVcyirn2u
p2
I1
s.(dp0
Vcyirn2u
p1
I1
sVd5brut2
p2
I1
s.(dp0
Vd5uwybm
p1
I1
sVcyirn2u
p2
I1
s.(dp0
Vd64ras2
p1
I1
sVcyirn2u
p2
I1
s.(dp0
Vd6bvyi1
p1
I1
sVcyirn2u
p2
I1
s.(dp0
Vd6jeonu
p1
I1
sVcyirn2u
p2
I1
s.(dp0
Vd6zifrd
p1
I1
sVcyirn2u
p2
I1
s.(dp0
Vd8i3gs2
p1
I1
sVcyirn2u
p2
I1
s.(dp0
Vd9881ok
p1
I1
sVcyirn2u
p2
I1
s.(dp0
Vda1e9h1
p1
I1
sVcyirn2u
p2
I1
s.(dp0
Vcyirn2u
p1
I1
sVdaitsvf
p2
I1
s.(dp0
Vcyirn2u
p1
I1
sVdawntv6
p2
I1
s.(dp0
Vdd5cl2i
p1
I1
sVcyirn2u
p2
I1
s.(dp0
Vcyirn2u
p1
I1
sVddc2ntk
p2
I1
s.(dp0
Vcyirn2u
p1
I1
sVddl0dte
p2
I1
s.(dp0
Vdgjys5h
p1
I1
sVcyirn2u
p2
I1
s.