(dp0
Vcyjvpm6
p1
I1
s.(dp0
Vcyjwaad
p1
I1
sVcyjvpm6
p2
I1
s.(dp0
Vcyjyeds
p1
I1
sVcyjvpm6
p2
I1
s.(dp0
Vcyjzk83
p1
I1
sVcyjvpm6
p2
I1
s.(dp0
Vcykdn04
p1
I1
sVcyjvpm6
p2
I1
s.(dp0
Vcykg7nb
p1
I1
sVcyjvpm6
p2
I1
s.(dp0
Vcykk1tt
p1
I1
sVcyjvpm6
p2
I1
s.(dp0
Vcyl7zs5
p1
I1
sVcyjvpm6
p2
I1
s.(dp0
Vcyleu7u
p1
I1
sVcyjvpm6
p2
I1
s.(dp0
Vcymoeoq
p1
I1
sVcyjvpm6
p2
I1
s.(dp0
Vcyjvpm6
p1
I1
sVcyn4l0n
p2
I1
s.(dp0
Vcyo2mm8
p1
I1
sVcyjvpm6
p2
I1
s.(dp0
Vcyo4zw7
p1
I1
sVcyjvpm6
p2
I1
s.(dp0
Vcyozvkr
p1
I1
sVcyjvpm6
p2
I1
s.(dp0
Vcyozvkr
p1
I1
sVcyjvpm6
p2
I1
s.(dp0
Vcyozvkr
p1
I1
sVcyjvpm6
p2
I1
s.(dp0
Vcyozvkr
p1
I1
sVcyjvpm6
p2
I1
s.(dp0
Vcypdk0v
p1
I1
sVcyjvpm6
p2
I1
s.(dp0
Vcyq20ts
p1
I1
sVcyjvpm6
p2
I1
s.(dp0
Vcyjvpm6
p1
I1
sVcyr7nqr
p2
I1
s.(dp0
Vcyjvpm6
p1
I1
sVcys9l5c
p2
I1
s.(dp0
Vcyjvpm6
p1
I1
sVcysmk7n
p2
I1
s.(dp0
Vcyjvpm6
p1
I1
sVcystz41
p2
I1
s.(dp0
Vcyjvpm6
p1
I1
sVcystz41
p2
I1
s.(dp0
Vcyjvpm6
p1
I1
sVcyu84y6
p2
I1
s.(dp0
Vcyuao26
p1
I1
sVcyjvpm6
p2
I1
s.(dp0
Vcyuao26
p1
I1
sVcyjvpm6
p2
I1
s.(dp0
Vcyv7lcj
p1
I1
sVcyjvpm6
p2
I1
s.(dp0
Vcyv7lcj
p1
I1
sVcyjvpm6
p2
I1
s.(dp0
Vcyvd3n0
p1
I1
sVcyjvpm6
p2
I1
s.(dp0
Vcyvd3n0
p1
I1
sVcyjvpm6
p2
I1
s.(dp0
Vcyvd3n0
p1
I1
sVcyjvpm6
p2
I1
s.(dp0
Vcywqo86
p1
I1
sVcyjvpm6
p2
I1
s.(dp0
Vcywr96g
p1
I1
sVcyjvpm6
p2
I1
s.(dp0
Vcyx5adi
p1
I1
sVcyjvpm6
p2
I1
s.(dp0
Vcyx6fm4
p1
I1
sVcyjvpm6
p2
I1
s.(dp0
Vcyxjzak
p1
I1
sVcyjvpm6
p2
I1
s.(dp0
Vcyxxvhz
p1
I1
sVcyjvpm6
p2
I1
s.(dp0
Vcyz56bg
p1
I1
sVcyjvpm6
p2
I1
s.(dp0
Vcyzho28
p1
I1
sVcyjvpm6
p2
I1
s.(dp0
Vcz0v1qp
p1
I1
sVcyjvpm6
p2
I1
s.(dp0
Vcz2cjul
p1
I1
sVcyjvpm6
p2
I1
s.(dp0
Vcz2vke2
p1
I1
sVcyjvpm6
p2
I1
s.(dp0
Vcz2yzmz
p1
I1
sVcyjvpm6
p2
I1
s.(dp0
Vcz32zet
p1
I1
sVcyjvpm6
p2
I1
s.(dp0
Vcz32zet
p1
I1
sVcyjvpm6
p2
I1
s.(dp0
Vcz3dtfl
p1
I1
sVcyjvpm6
p2
I1
s.(dp0
Vcz3i2ua
p1
I1
sVcyjvpm6
p2
I1
s.(dp0
Vcz3jaqv
p1
I1
sVcyjvpm6
p2
I1
s.(dp0
Vcz3zrfp
p1
I1
sVcyjvpm6
p2
I1
s.(dp0
Vcz5btqr
p1
I1
sVcyjvpm6
p2
I1
s.(dp0
Vcz8p0tx
p1
I1
sVcyjvpm6
p2
I1
s.(dp0
Vcz95zn9
p1
I1
sVcyjvpm6
p2
I1
s.(dp0
Vcz96g5a
p1
I1
sVcyjvpm6
p2
I1
s.(dp0
Vcyjvpm6
p1
I1
sVcz982dn
p2
I1
s.(dp0
Vcz9k5ck
p1
I1
sVcyjvpm6
p2
I1
s.(dp0
Vcz9ytz8
p1
I1
sVcyjvpm6
p2
I1
s.(dp0
Vcyjvpm6
p1
I1
sVczaaxmt
p2
I1
s.(dp0
Vczcm2u7
p1
I1
sVcyjvpm6
p2
I1
s.(dp0
Vczegbas
p1
I1
sVcyjvpm6
p2
I1
s.(dp0
Vczf01zc
p1
I1
sVcyjvpm6
p2
I1
s.(dp0
Vczg4l61
p1
I1
sVcyjvpm6
p2
I1
s.(dp0
Vcyjvpm6
p1
I1
sVczgdvwi
p2
I1
s.(dp0
Vczgn01s
p1
I1
sVcyjvpm6
p2
I1
s.(dp0
Vczhjjpj
p1
I1
sVcyjvpm6
p2
I1
s.(dp0
Vczi7fwf
p1
I1
sVcyjvpm6
p2
I1
s.(dp0
Vczigb7l
p1
I1
sVcyjvpm6
p2
I1
s.(dp0
Vczj7ix8
p1
I1
sVcyjvpm6
p2
I1
s.(dp0
Vczj7ix8
p1
I1
sVcyjvpm6
p2
I1
s.(dp0
Vcyjvpm6
p1
I1
sVczjg4bx
p2
I1
s.(dp0
Vczjykxh
p1
I1
sVcyjvpm6
p2
I1
s.(dp0
Vczmdibt
p1
I1
sVcyjvpm6
p2
I1
s.(dp0
Vczmh3c0
p1
I1
sVcyjvpm6
p2
I1
s.(dp0
Vcznz8bc
p1
I1
sVcyjvpm6
p2
I1
s.(dp0
Vczpp8qq
p1
I1
sVcyjvpm6
p2
I1
s.(dp0
Vcyjvpm6
p1
I1
sVczqf1t7
p2
I1
s.(dp0
Vczr9vkj
p1
I1
sVcyjvpm6
p2
I1
s.(dp0
Vczror1u
p1
I1
sVcyjvpm6
p2
I1
s.(dp0
Vcztai5e
p1
I1
sVcyjvpm6
p2
I1
s.(dp0
Vcztcuzw
p1
I1
sVcyjvpm6
p2
I1
s.(dp0
Vczumivz
p1
I1
sVcyjvpm6
p2
I1
s.(dp0
Vczuyz4r
p1
I1
sVcyjvpm6
p2
I1
s.(dp0
Vcyjvpm6
p1
I1
sVczvh4ed
p2
I1
s.(dp0
Vczvt8tr
p1
I1
sVcyjvpm6
p2
I1
s.(dp0
Vczytpnq
p1
I1
sVcyjvpm6
p2
I1
s.(dp0
Vczzyii1
p1
I1
sVcyjvpm6
p2
I1
s.(dp0
Vd000qzc
p1
I1
sVcyjvpm6
p2
I1
s.(dp0
Vd00prwf
p1
I1
sVcyjvpm6
p2
I1
s.(dp0
Vd00qypc
p1
I1
sVcyjvpm6
p2
I1
s.(dp0
Vcyjvpm6
p1
I1
sVd01ucc4
p2
I1
s.(dp0
Vd02rh16
p1
I1
sVcyjvpm6
p2
I1
s.(dp0
Vd03zf0p
p1
I1
sVcyjvpm6
p2
I1
s.(dp0
Vd04nobb
p1
I1
sVcyjvpm6
p2
I1
s.(dp0
Vcyjvpm6
p1
I1
sVd04ozhg
p2
I1
s.(dp0
Vd05r404
p1
I1
sVcyjvpm6
p2
I1
s.(dp0
Vcyjvpm6
p1
I1
sVd063c0l
p2
I1
s.(dp0
Vd06p79g
p1
I1
sVcyjvpm6
p2
I1
s.(dp0
Vd079u2u
p1
I1
sVcyjvpm6
p2
I1
s.(dp0
Vcyjvpm6
p1
I1
sVd08bjbf
p2
I1
s.(dp0
Vd08pqkg
p1
I1
sVcyjvpm6
p2
I1
s.(dp0
Vd0b6cf4
p1
I1
sVcyjvpm6
p2
I1
s.(dp0
Vd0eo8qb
p1
I1
sVcyjvpm6
p2
I1
s.(dp0
Vd0eo8qb
p1
I1
sVcyjvpm6
p2
I1
s.(dp0
Vd0g2y32
p1
I1
sVcyjvpm6
p2
I1
s.(dp0
Vd0m2d20
p1
I1
sVcyjvpm6
p2
I1
s.(dp0
Vd0m2ipw
p1
I1
sVcyjvpm6
p2
I1
s.(dp0
Vd0n0whv
p1
I1
sVcyjvpm6
p2
I1
s.(dp0
Vd0ruhol
p1
I1
sVcyjvpm6
p2
I1
s.(dp0
Vd0(dp0
Vdkyh66r
p1
I1
sVcyjvpm6
p2
I1
s.