(dp0
Vcyscynq
p1
I1
s.(dp0
Vcyxmn5j
p1
I1
sVcyscynq
p2
I1
s.(dp0
Vcyxqtco
p1
I1
sVcyscynq
p2
I1
s.(dp0
Vcyxqtco
p1
I1
sVcyscynq
p2
I1
s.(dp0
Vcyxqtco
p1
I1
sVcyscynq
p2
I1
s.(dp0
Vcyytafp
p1
I1
sVcyscynq
p2
I1
s.(dp0
Vcz6r7bq
p1
I1
sVcyscynq
p2
I1
s.(dp0
Vcz6xdvv
p1
I1
sVcyscynq
p2
I1
s.(dp0
Vcz7es1h
p1
I1
sVcyscynq
p2
I1
s.(dp0
Vczfrpw9
p1
I1
sVcyscynq
p2
I1
s.(dp0
Vczh0tqi
p1
I1
sVcyscynq
p2
I1
s.(dp0
Vczruslp
p1
I1
sVcyscynq
p2
I1
s.(dp0
Vczzdz3u
p1
I1
sVcyscynq
p2
I1
s.(dp0
Vd0j4vhg
p1
I1
sVcyscynq
p2
I1
s.(dp0
Vd0lqlnw
p1
I1
sVcyscynq
p2
I1
s.(dp0
Vd13oxyn
p1
I1
sVcyscynq
p2
I1
s.(dp0
Vd18s94g
p1
I1
sVcyscynq
p2
I1
s.(dp0
Vd1btwvq
p1
I1
sVcyscynq
p2
I1
s.(dp0
Vd1bxu1u
p1
I1
sVcyscynq
p2
I1
s.(dp0
Vd1d76l8
p1
I1
sVcyscynq
p2
I1
s.(dp0
Vd1i1h1w
p1
I1
sVcyscynq
p2
I1
s.(dp0
Vd1l77jz
p1
I1
sVcyscynq
p2
I1
s.(dp0
Vd1owznr
p1
I1
sVcyscynq
p2
I1
s.(dp0
Vd251spq
p1
I1
sVcyscynq
p2
I1
s.(dp0
Vd251spq
p1
I1
sVcyscynq
p2
I1
s.(dp0
Vd258752
p1
I1
sVcyscynq
p2
I1
s.(dp0
Vd2cvofp
p1
I1
sVcyscynq
p2
I1
s.(dp0
Vd2it0fk
p1
I1
sVcyscynq
p2
I1
s.(dp0
Vd2kgdad
p1
I1
sVcyscynq
p2
I1
s.(dp0
Vd2oxp70
p1
I1
sVcyscynq
p2
I1
s.(dp0
Vd2uvbhc
p1
I1
sVcyscynq
p2
I1
s.(dp0
Vd2wwgi3
p1
I1
sVcyscynq
p2
I1
s.(dp0
Vd30po3x
p1
I1
sVcyscynq
p2
I1
s.(dp0
Vd30po3x
p1
I1
sVcyscynq
p2
I1
s.(dp0
Vd30qdqd
p1
I1
sVcyscynq
p2
I1
s.(dp0
Vd3atlce
p1
I1
sVcyscynq
p2
I1
s.(dp0
Vd3lihr6
p1
I1
sVcyscynq
p2
I1
s.(dp0
Vd3n4xkr
p1
I1
sVcyscynq
p2
I1
s.(dp0
Vd3yzr5m
p1
I1
sVcyscynq
p2
I1
s.(dp0
Vd45wpzx
p1
I1
sVcyscynq
p2
I1
s.(dp0
Vd56dpq3
p1
I1
sVcyscynq
p2
I1
s.(dp0
Vd5il8fr
p1
I1
sVcyscynq
p2
I1
s.(dp0
Vd65mwsx
p1
I1
sVcyscynq
p2
I1
s.(dp0
Vd6eopyq
p1
I1
sVcyscynq
p2
I1
s.(dp0
Vd6j5ge4
p1
I1
sVcyscynq
p2
I1
s.(dp0
Vd6qnu3i
p1
I1
sVcyscynq
p2
I1
s.(dp0
Vd6tntrx
p1
I1
sVcyscynq
p2
I1
s.(dp0
Vd71skp1
p1
I1
sVcyscynq
p2
I1
s.(dp0
Vd7ar6cg
p1
I1
sVcyscynq
p2
I1
s.(dp0
Vd7e2dtq
p1
I1
sVcyscynq
p2
I1
s.(dp0
Vd7e2dtq
p1
I1
sVcyscynq
p2
I1
s.(dp0
Vd7hpdwa
p1
I1
sVcyscynq
p2
I1
s.(dp0
Vd7imruu
p1
I1
sVcyscynq
p2
I1
s.(dp0
Vd7nqbld
p1
I1
sVcyscynq
p2
I1
s.(dp0
Vd7nwkn2
p1
I1
sVcyscynq
p2
I1
s.(dp0
Vd7qtssb
p1
I1
sVcyscynq
p2
I1
s.(dp0
Vd7sml7e
p1
I1
sVcyscynq
p2
I1
s.(dp0
Vd81n6lh
p1
I1
sVcyscynq
p2
I1
s.(dp0
Vd84t7s5
p1
I1
sVcyscynq
p2
I1
s.(dp0
Vd84tglu
p1
I1
sVcyscynq
p2
I1
s.(dp0
Vd88xunt
p1
I1
sVcyscynq
p2
I1
s.(dp0
Vd993wv6
p1
I1
sVcyscynq
p2
I1
s.(dp0
Vd9am90w
p1
I1
sVcyscynq
p2
I1
s.(dp0
Vd9fmw7d
p1
I1
sVcyscynq
p2
I1
s.(dp0
Vd9ftmyr
p1
I1
sVcyscynq
p2
I1
s.(dp0
Vd9pok7u
p1
I1
sVcyscynq
p2
I1
s.(dp0
Vda2o9dy
p1
I1
sVcyscynq
p2
I1
s.(dp0
Vda8eimn
p1
I1
sVcyscynq
p2
I1
s.(dp0
Vda95aek
p1
I1
sVcyscynq
p2
I1
s.(dp0
Vda9c4tg
p1
I1
sVcyscynq
p2
I1
s.(dp0
Vdadh78g
p1
I1
sVcyscynq
p2
I1
s.(dp0
Vdaq4ru7
p1
I1
sVcyscynq
p2
I1
s.(dp0
Vdarr4nw
p1
I1
sVcyscynq
p2
I1
s.(dp0
Vdb8wbeu
p1
I1
sVcyscynq
p2
I1
s.(dp0
Vdb985tj
p1
I1
sVcyscynq
p2
I1
s.(dp0
Vdbeizwy
p1
I1
sVcyscynq
p2
I1
s.(dp0
Vdbemnx1
p1
I1
sVcyscynq
p2
I1
s.(dp0
Vdberbtj
p1
I1
sVcyscynq
p2
I1
s.(dp0
Vdbia2tu
p1
I1
sVcyscynq
p2
I1
s.(dp0
Vdbly7wg
p1
I1
sVcyscynq
p2
I1
s.(dp0
Vdbpltgw
p1
I1
sVcyscynq
p2
I1
s.(dp0
Vdbqraji
p1
I1
sVcyscynq
p2
I1
s.(dp0
Vdc5bwp8
p1
I1
sVcyscynq
p2
I1
s.(dp0
Vdcab5oc
p1
I1
sVcyscynq
p2
I1
s.(dp0
Vdcb2ech
p1
I1
sVcyscynq
p2
I1
s.(dp0
Vdcbckae
p1
I1
sVcyscynq
p2
I1
s.(dp0
Vdciwuad
p1
I1
sVcyscynq
p2
I1
s.(dp0
Vdcr7lmu
p1
I1
sVcyscynq
p2
I1
s.(dp0
Vdcuj3yi
p1
I1
sVcyscynq
p2
I1
s.(dp0
Vddbh9lo
p1
I1
sVcyscynq
p2
I1
s.(dp0
Vdddpok1
p1
I1
sVcyscynq
p2
I1
s.(dp0
Vddhpqc3
p1
I1
sVcyscynq
p2
I1
s.(dp0
Vddi7w9a
p1
I1
sVcyscynq
p2
I1
s.(dp0
Vddia8dw
p1
I1
sVcyscynq
p2
I1
s.(dp0
Vddisycq
p1
I1
sVcyscynq
p2
I1
s.(dp0
Vddisycq
p1
I1
sVcyscynq
p2
I1
s.(dp0
Vddisycq
p1
I1
sVcyscynq
p2
I1
s.(dp0
Vddiviz4
p1
I1
sVcyscynq
p2
I1
s.(dp0
Vddpxe8a
p1
I1
sVcyscynq
p2
I1
s.(dp0
Vdds49do
p1
I1
sVcyscynq
p2
I1
s.(dp0
Vde2kqob
p1
I1
sVcyscynq
p2
I1
s.(dp0
Vde3okku
p1
I1
sVcyscynq
p2
I1
s.(dp0
Vde7ujj7
p1
I1
sVcyscynq
p2
I1
s.(dp0
Vde90lme
p1
I1
sVcyscynq
p2
I1
s.(dp0
Vdeeipny
p1
I1
sVcyscynq
p2
I1
s.(dp0
Vdeq0ky9
p1
I1
sVcyscynq
p2
I1
s.(dp0
Vderjmxv
p1
I1
sVcyscynq
p2
I1
s.(dp0
Vdeu24em
p1
I1
sVcyscynq
p2
I1
s.(dp0
Vdf(dp0
Vdkowm61
p1
I1
sVcyscynq
p2
I1
s.