(dp0
Vcymi4jt
p1
I1
s.(dp0
Vcz9ys34
p1
I1
sVcymi4jt
p2
I1
s.(dp0
Vcz9ys34
p1
I1
sVcymi4jt
p2
I1
s.(dp0
Vczom8ja
p1
I1
sVcymi4jt
p2
I1
s.(dp0
Vczwz2kx
p1
I1
sVcymi4jt
p2
I1
s.(dp0
Vczwz2kx
p1
I1
sVcymi4jt
p2
I1
s.(dp0
Vcymi4jt
p1
I1
sVd154z8o
p2
I1
s.(dp0
Vcymi4jt
p1
I1
sVd17d51w
p2
I1
s.(dp0
Vcymi4jt
p1
I1
sVd17e3lq
p2
I1
s.(dp0
Vcymi4jt
p1
I1
sVd17eas8
p2
I1
s.(dp0
Vcymi4jt
p1
I1
sVd1hy7ay
p2
I1
s.(dp0
Vcymi4jt
p1
I1
sVd2hzgv5
p2
I1
s.(dp0
Vcymi4jt
p1
I1
sVd2hzgv5
p2
I1
s.(dp0
Vcymi4jt
p1
I1
sVd2hzgv5
p2
I1
s.(dp0
Vcymi4jt
p1
I1
sVd2hzgv5
p2
I1
s.(dp0
Vcymi4jt
p1
I1
sVd2hzj2b
p2
I1
s.(dp0
Vcymi4jt
p1
I1
sVd2hzj2b
p2
I1
s.(dp0
Vd2q6rsm
p1
I1
sVcymi4jt
p2
I1
s.(dp0
Vd2q6rsm
p1
I1
sVcymi4jt
p2
I1
s.(dp0
Vd2q6rsm
p1
I1
sVcymi4jt
p2
I1
s.(dp0
Vcymi4jt
p1
I1
sVd2q7rgq
p2
I1
s.(dp0
Vcymi4jt
p1
I1
sVd2q7uep
p2
I1
s.(dp0
Vcymi4jt
p1
I1
sVd2q7uep
p2
I1
s.(dp0
Vcymi4jt
p1
I1
sVd3vpbie
p2
I1
s.(dp0
Vcymi4jt
p1
I1
sVd3xl4k5
p2
I1
s.(dp0
Vd4srac7
p1
I1
sVcymi4jt
p2
I1
s.(dp0
Vd4to4cs
p1
I1
sVcymi4jt
p2
I1
s.(dp0
Vcymi4jt
p1
I1
sVd4wkcri
p2
I1
s.(dp0
Vcymi4jt
p1
I1
sVd68s7xw
p2
I1
s.(dp0
Vcymi4jt
p1
I1
sVd68s7xw
p2
I1
s.(dp0
Vd6tz3pj
p1
I1
sVcymi4jt
p2
I1
s.(dp0
Vcymi4jt
p1
I1
sVd6uev6p
p2
I1
s.(dp0
Vcymi4jt
p1
I1
sVd6uev6p
p2
I1
s.(dp0
Vcymi4jt
p1
I1
sVd72ly3z
p2
I1
s.(dp0
Vcymi4jt
p1
I1
sVd72ly3z
p2
I1
s.(dp0
Vd72t90a
p1
I1
sVcymi4jt
p2
I1
s.(dp0
Vd72t90a
p1
I1
sVcymi4jt
p2
I1
s.(dp0
Vd72t90a
p1
I1
sVcymi4jt
p2
I1
s.(dp0
Vd73iijl
p1
I1
sVcymi4jt
p2
I1
s.(dp0
Vcymi4jt
p1
I1
sVd7jvlav
p2
I1
s.(dp0
Vcymi4jt
p1
I1
sVd7jvlav
p2
I1
s.(dp0
Vcymi4jt
p1
I1
sVd7jvq87
p2
I1
s.(dp0
Vcymi4jt
p1
I1
sVd7k0cez
p2
I1
s.(dp0
Vcymi4jt
p1
I1
sVd9b9tem
p2
I1
s.(dp0
Vcymi4jt
p1
I1
sVd9k2txb
p2
I1
s.(dp0
Vd9n39bt
p1
I1
sVcymi4jt
p2
I1
s.(dp0
Vdawzd1x
p1
I1
sVcymi4jt
p2
I1
s.(dp0
Vdbczl9b
p1
I1
sVcymi4jt
p2
I1
s.(dp0
Vcymi4jt
p1
I1
sVdbqvryf
p2
I1
s.(dp0
Vcymi4jt
p1
I1
sVdcw6fgc
p2
I1
s.(dp0
Vcymi4jt
p1
I1
sVdd9lt7v
p2
I1
s.(dp0
Vcymi4jt
p1
I1
sVddhjtop
p2
I1
s.(dp0
Vcymi4jt
p1
I1
sVddlm0rz
p2
I1
s.(dp0
Vcymi4jt
p1
I1
sVdenuxry
p2
I1
s.(dp0
Vdfwzk06
p1
I1
sVcymi4jt
p2
I1
s.(dp0
Vdght413
p1
I1
sVcymi4jt
p2
I1
s.(dp0
Vdgi0cog
p1
I1
sVcymi4jt
p2
I1
s.(dp0
Vdgi0cog
p1
I1
sVcymi4jt
p2
I1
s.(dp0
Vcymi4jt
p1
I1
sVdgiygoq
p2
I1
s.(dp0
Vcymi4jt
p1
I1
sVdgko6rk
p2
I1
s.(dp0
Vdhbfm72
p1
I1
sVcymi4jt
p2
I1
s.(dp0
Vcymi4jt
p1
I1
sVdia14xo
p2
I1
s.(dp0
Vdivmung
p1
I1
sVcymi4jt
p2
I1
s.(dp0
Vdjdm9sp
p1
I1
sVcymi4jt
p2
I1
s.(dp0
Vcymi4jt
p1
I1
sVdje6ybf
p2
I1
s.(dp0
Vcymi4jt
p1
I1
sVdjphd7d
p2
I1
s.(dp0
Vcymi4jt
p1
I1
sVdjphd7d
p2
I1
s.(dp0
Vcymi4jt
p1
I1
sVdjsvg7u
p2
I1
s.