(dp0
Vcyifqtn
p1
I1
s.(dp0
Vcyjdabr
p1
I1
sVcyifqtn
p2
I1
s.(dp0
Vcyifqtn
p1
I1
sVcyk0180
p2
I1
s.(dp0
Vcyifqtn
p1
I1
sVcyoj30r
p2
I1
s.(dp0
Vcyifqtn
p1
I1
sVcyoo5fo
p2
I1
s.(dp0
Vcyifqtn
p1
I1
sVcyozvkr
p2
I1
s.(dp0
Vcyifqtn
p1
I1
sVcyp5acq
p2
I1
s.(dp0
Vcyifqtn
p1
I1
sVcyr6as0
p2
I1
s.(dp0
Vcyifqtn
p1
I1
sVcys4gyq
p2
I1
s.(dp0
Vcyifqtn
p1
I1
sVcyteo7k
p2
I1
s.(dp0
Vcytewxr
p1
I1
sVcyifqtn
p2
I1
s.(dp0
Vcyifqtn
p1
I1
sVcyujb7c
p2
I1
s.(dp0
Vcyv7s83
p1
I1
sVcyifqtn
p2
I1
s.(dp0
Vcyw2egs
p1
I1
sVcyifqtn
p2
I1
s.(dp0
Vcyykcn8
p1
I1
sVcyifqtn
p2
I1
s.(dp0
Vcyzbjwh
p1
I1
sVcyifqtn
p2
I1
s.(dp0
Vcz0oypp
p1
I1
sVcyifqtn
p2
I1
s.(dp0
Vcz0oypp
p1
I1
sVcyifqtn
p2
I1
s.(dp0
Vcz0sjwf
p1
I1
sVcyifqtn
p2
I1
s.(dp0
Vcyifqtn
p1
I1
sVcz10iln
p2
I1
s.(dp0
Vcyifqtn
p1
I1
sVcz14xhu
p2
I1
s.(dp0
Vcz1frdc
p1
I1
sVcyifqtn
p2
I1
s.(dp0
Vcz1vpee
p1
I1
sVcyifqtn
p2
I1
s.(dp0
Vcz2843o
p1
I1
sVcyifqtn
p2
I1
s.(dp0
Vcz4gya0
p1
I1
sVcyifqtn
p2
I1
s.(dp0
Vcyifqtn
p1
I1
sVcz4l6pd
p2
I1
s.(dp0
Vcyifqtn
p1
I1
sVcz4vp6w
p2
I1
s.(dp0
Vcyifqtn
p1
I1
sVczc9u9g
p2
I1
s.(dp0
Vcyifqtn
p1
I1
sVczd4cyo
p2
I1
s.(dp0
Vczf3zvv
p1
I1
sVcyifqtn
p2
I1
s.(dp0
Vcyifqtn
p1
I1
sVczfo42w
p2
I1
s.(dp0
Vczftann
p1
I1
sVcyifqtn
p2
I1
s.(dp0
Vcyifqtn
p1
I1
sVczg30ul
p2
I1
s.(dp0
Vcyifqtn
p1
I1
sVczg38lf
p2
I1
s.(dp0
Vcyifqtn
p1
I1
sVczg665b
p2
I1
s.(dp0
Vczgjbir
p1
I1
sVcyifqtn
p2
I1
s.(dp0
Vcyifqtn
p1
I1
sVczh1984
p2
I1
s.(dp0
Vcyifqtn
p1
I1
sVczhxbjs
p2
I1
s.(dp0
Vcyifqtn
p1
I1
sVczjcllu
p2
I1
s.(dp0
Vczla22h
p1
I1
sVcyifqtn
p2
I1
s.(dp0
Vczm1gw8
p1
I1
sVcyifqtn
p2
I1
s.(dp0
Vczpsgor
p1
I1
sVcyifqtn
p2
I1
s.(dp0
Vcyifqtn
p1
I1
sVczrf7v2
p2
I1
s.(dp0
Vcyifqtn
p1
I1
sVczt9ezl
p2
I1
s.(dp0
Vczv130s
p1
I1
sVcyifqtn
p2
I1
s.(dp0
Vcyifqtn
p1
I1
sVczyb3zl
p2
I1
s.(dp0
Vcyifqtn
p1
I1
sVczyc9ky
p2
I1
s.(dp0
Vcyifqtn
p1
I1
sVczyemzl
p2
I1
s.(dp0
Vcyifqtn
p1
I1
sVd000smt
p2
I1
s.(dp0
Vd047k2e
p1
I1
sVcyifqtn
p2
I1
s.(dp0
Vcyifqtn
p1
I1
sVd06dn9b
p2
I1
s.(dp0
Vcyifqtn
p1
I1
sVd076enz
p2
I1
s.(dp0
Vd07c5al
p1
I1
sVcyifqtn
p2
I1
s.(dp0
Vcyifqtn
p1
I1
sVd0835gl
p2
I1
s.(dp0
Vcyifqtn
p1
I1
sVd09nxa9
p2
I1
s.(dp0
Vd0awwl6
p1
I1
sVcyifqtn
p2
I1
s.(dp0
Vcyifqtn
p1
I1
sVd0cufow
p2
I1
s.(dp0
Vcyifqtn
p1
I1
sVd0dapp9
p2
I1
s.(dp0
Vcyifqtn
p1
I1
sVd0dgnoz
p2
I1
s.(dp0
Vcyifqtn
p1
I1
sVd0evzte
p2
I1
s.(dp0
Vd0ezohj
p1
I1
sVcyifqtn
p2
I1
s.(dp0
Vcyifqtn
p1
I1
sVd0j11ck
p2
I1
s.(dp0
Vcyifqtn
p1
I1
sVd0j3zyr
p2
I1
s.(dp0
Vd0juj1p
p1
I1
sVcyifqtn
p2
I1
s.(dp0
Vd0koagx
p1
I1
sVcyifqtn
p2
I1
s.(dp0
Vcyifqtn
p1
I1
sVd0m12hv
p2
I1
s.(dp0
Vd0miisu
p1
I1
sVcyifqtn
p2
I1
s.(dp0
Vcyifqtn
p1
I1
sVd0moq4c
p2
I1
s.(dp0
Vd0ojvxz
p1
I1
sVcyifqtn
p2
I1
s.(dp0
Vd0ops0n
p1
I1
sVcyifqtn
p2
I1
s.(dp0
Vcyifqtn
p1
I1
sVd0pdimz
p2
I1
s.(dp0
Vcyifqtn
p1
I1
sVd0tiykt
p2
I1
s.(dp0
Vcyifqtn
p1
I1
sVd0tjbyv
p2
I1
s.(dp0
Vcyifqtn
p1
I1
sVd0tjbyv
p2
I1
s.(dp0
Vcyifqtn
p1
I1
sVd0ujbep
p2
I1
s.(dp0
Vd0yhhkq
p1
I1
sVcyifqtn
p2
I1
s.(dp0
Vcyifqtn
p1
I1
sVd0yixow
p2
I1
s.(dp0
Vcyifqtn
p1
I1
sVd0yixow
p2
I1
s.(dp0
Vd0zq8mu
p1
I1
sVcyifqtn
p2
I1
s.(dp0
Vcyifqtn
p1
I1
sVd109odd
p2
I1
s.(dp0
Vd10nuaa
p1
I1
sVcyifqtn
p2
I1
s.(dp0
Vd12ycac
p1
I1
sVcyifqtn
p2
I1
s.(dp0
Vd15687z
p1
I1
sVcyifqtn
p2
I1
s.(dp0
Vcyifqtn
p1
I1
sVd15tnf0
p2
I1
s.(dp0
Vcyifqtn
p1
I1
sVd16logy
p2
I1
s.(dp0
Vcyifqtn
p1
I1
sVd16logy
p2
I1
s.(dp0
Vd16rayp
p1
I1
sVcyifqtn
p2
I1
s.(dp0
Vcyifqtn
p1
I1
sVd16wpeh
p2
I1
s.(dp0
Vcyifqtn
p1
I1
sVd175wn1
p2
I1
s.(dp0
Vcyifqtn
p1
I1
sVd18if51
p2
I1
s.(dp0
Vcyifqtn
p1
I1
sVd18ikk9
p2
I1
s.(dp0
Vd19ivsm
p1
I1
sVcyifqtn
p2
I1
s.(dp0
Vcyifqtn
p1
I1
sVd1dbta3
p2
I1
s.(dp0
Vd1dcg8f
p1
I1
sVcyifqtn
p2
I1
s.(dp0
Vd1dcg8f
p1
I1
sVcyifqtn
p2
I1
s.(dp0
Vd1egzcg
p1
I1
sVcyifqtn
p2
I1
s.(dp0
Vcyifqtn
p1
I1
sVd1er6j6
p2
I1
s.(dp0
Vd1gje6z
p1
I1
sVcyifqtn
p2
I1
s.(dp0
Vd1jkf7f
p1
I1
sVcyifqtn
p2
I1
s.(dp0
Vcyifqtn
p1
I1
sVd1jkv2h
p2
I1
s.(dp0
Vcyifqtn
p1
I1
sVd1lidvr
p2
I1
s.(dp0
Vd1p2t07
p1
I1
sVcyifqtn
p2
I1
s.(dp0
Vd1pp4bl
p1
I1
sVcyifqtn
p2
I1
s.(dp0
Vd1riode
p1
I1
sVcyifqtn
p2
I1
s.(dp0
Vcyifqtn
p1
I1
sVd1t9pi2
p2
I1
s.(dp0
Vcyifqtn
p1
I1
sVd1ur7en
p2
I1
s.(dp0
Vd1w0z7u
p1
I1
sVcyifqtn
p2
I1
s.(dp0
Vd1w0z7u
p1
I1
sVcyifqtn
p2
I1
s.(dp0
Vd1(dp0
Vcyifqtn
p1
I1
sVdotoa94
p2
I1
s.