(dp0
Vcz28fpf
p1
I1
s.(dp0
Vcz41qiw
p1
I1
sVcz28fpf
p2
I1
s.(dp0
Vcz41ys5
p1
I1
sVcz28fpf
p2
I1
s.(dp0
Vcz41ys5
p1
I1
sVcz28fpf
p2
I1
s.(dp0
Vcz41ys5
p1
I1
sVcz28fpf
p2
I1
s.(dp0
Vcz28fpf
p1
I1
sVczsf7z4
p2
I1
s.(dp0
Vczzottm
p1
I1
sVcz28fpf
p2
I1
s.(dp0
Vcz28fpf
p1
I1
sVd0qu3je
p2
I1
s.(dp0
Vcz28fpf
p1
I1
sVd0qu3je
p2
I1
s.(dp0
Vd3nvh2i
p1
I1
sVcz28fpf
p2
I1
s.(dp0
Vd6anbeg
p1
I1
sVcz28fpf
p2
I1
s.(dp0
Vcz28fpf
p1
I1
sVd6pk33y
p2
I1
s.(dp0
Vd7a1j8j
p1
I1
sVcz28fpf
p2
I1
s.(dp0
Vd9clxl3
p1
I1
sVcz28fpf
p2
I1
s.(dp0
Vcz28fpf
p1
I1
sVdb2o2qv
p2
I1
s.(dp0
Vde00nfm
p1
I1
sVcz28fpf
p2
I1
s.(dp0
Vde02a2i
p1
I1
sVcz28fpf
p2
I1
s.(dp0
Vde2hd97
p1
I1
sVcz28fpf
p2
I1
s.(dp0
Vcz28fpf
p1
I1
sVdk0nwgy
p2
I1
s.(dp0
Vcz28fpf
p1
I1
sVdo7l7xt
p2
I1
s.