(dp0
Vcyiutnb
p1
I1
s.(dp0
Vcyiutnb
p1
I1
sVczfw9x4
p2
I1
s.(dp0
Vcyiutnb
p1
I1
sVczfw9x4
p2
I1
s.(dp0
Vcyiutnb
p1
I1
sVd08orgl
p2
I1
s.(dp0
Vcyiutnb
p1
I1
sVd0mqs5j
p2
I1
s.(dp0
Vcyiutnb
p1
I1
sVd1gppuy
p2
I1
s.(dp0
Vcyiutnb
p1
I1
sVd28g3q8
p2
I1
s.(dp0
Vcyiutnb
p1
I1
sVd28g3q8
p2
I1
s.(dp0
Vcyiutnb
p1
I1
sVd2wkx29
p2
I1
s.(dp0
Vcyiutnb
p1
I1
sVd4oc3rg
p2
I1
s.(dp0
Vcyiutnb
p1
I1
sVd4r9k7c
p2
I1
s.(dp0
Vd9mu0qi
p1
I1
sVcyiutnb
p2
I1
s.(dp0
Vcyiutnb
p1
I1
sVdau2ubv
p2
I1
s.(dp0
Vcyiutnb
p1
I1
sVdeqlhv4
p2
I1
s.(dp0
Vcyiutnb
p1
I1
sVdhswjdf
p2
I1
s.(dp0
Vcyiutnb
p1
I1
sVdigbtif
p2
I1
s.(dp0
Vdj0wtic
p1
I1
sVcyiutnb
p2
I1
s.(dp0
Vdj0wtic
p1
I1
sVcyiutnb
p2
I1
s.(dp0
Vcyiutnb
p1
I1
sVdjzgeni
p2
I1
s.(dp0
Vdmueu2y
p1
I1
sVcyiutnb
p2
I1
s.