(dp0
Vczmz6ma
p1
I1
s.(dp0
Vd1fss41
p1
I1
sVczmz6ma
p2
I1
s.(dp0
Vd28jj8c
p1
I1
sVczmz6ma
p2
I1
s.(dp0
Vdfaffok
p1
I1
sVczmz6ma
p2
I1
s.(dp0
Vdgahx6d
p1
I1
sVczmz6ma
p2
I1
s.(dp0
Vdhysfsl
p1
I1
sVczmz6ma
p2
I1
s.(dp0
Vczmz6ma
p1
I1
sVdkmmpjg
p2
I1
s.(dp0
Vczmz6ma
p1
I1
sVdkmmpjg
p2
I1
s.(dp0
Vczmz6ma
p1
I1
sVdkmmpjg
p2
I1
s.(dp0
Vczmz6ma
p1
I1
sVdkmmpjg
p2
I1
s.(dp0
Vczmz6ma
p1
I1
sVdkmmpjg
p2
I1
s.(dp0
Vczmz6ma
p1
I1
sVdkmmpjg
p2
I1
s.(dp0
Vczmz6ma
p1
I1
sVdkmmpjg
p2
I1
s.(dp0
Vczmz6ma
p1
I1
sVdkmmpjg
p2
I1
s.