(dp0
Vcyjoc5q
p1
I1
s.(dp0
Vcyjoc5q
p1
I1
sVcyo3qic
p2
I1
s.(dp0
Vcyjoc5q
p1
I1
sVcyx6uf8
p2
I1
s.(dp0
Vcyjoc5q
p1
I1
sVcyyjm5f
p2
I1
s.(dp0
Vcyjoc5q
p1
I1
sVcz7mthj
p2
I1
s.(dp0
Vcyjoc5q
p1
I1
sVcz7mthj
p2
I1
s.(dp0
Vcyjoc5q
p1
I1
sVcza15y5
p2
I1
s.(dp0
Vcyjoc5q
p1
I1
sVczatlur
p2
I1
s.(dp0
Vcyjoc5q
p1
I1
sVczatlur
p2
I1
s.(dp0
Vczatmpn
p1
I1
sVcyjoc5q
p2
I1
s.(dp0
Vczatmpn
p1
I1
sVcyjoc5q
p2
I1
s.(dp0
Vcyjoc5q
p1
I1
sVczbapnr
p2
I1
s.(dp0
Vcyjoc5q
p1
I1
sVczkxa2x
p2
I1
s.(dp0
Vcyjoc5q
p1
I1
sVczooidk
p2
I1
s.(dp0
Vcyjoc5q
p1
I1
sVczooidk
p2
I1
s.(dp0
Vcyjoc5q
p1
I1
sVczooidk
p2
I1
s.(dp0
Vcyjoc5q
p1
I1
sVczooidk
p2
I1
s.(dp0
Vcyjoc5q
p1
I1
sVczooidk
p2
I1
s.(dp0
Vcyjoc5q
p1
I1
sVczooidk
p2
I1
s.(dp0
Vcyjoc5q
p1
I1
sVczooidk
p2
I1
s.(dp0
Vcyjoc5q
p1
I1
sVczooidk
p2
I1
s.(dp0
Vcyjoc5q
p1
I1
sVczooidk
p2
I1
s.(dp0
Vcyjoc5q
p1
I1
sVczooidk
p2
I1
s.(dp0
Vcyjoc5q
p1
I1
sVczooidk
p2
I1
s.(dp0
Vcyjoc5q
p1
I1
sVd0dkxp1
p2
I1
s.(dp0
Vcyjoc5q
p1
I1
sVd0iyiyb
p2
I1
s.(dp0
Vd0ohfft
p1
I1
sVcyjoc5q
p2
I1
s.(dp0
Vcyjoc5q
p1
I1
sVd0p5o0y
p2
I1
s.(dp0
Vcyjoc5q
p1
I1
sVd0rr1oz
p2
I1
s.(dp0
Vcyjoc5q
p1
I1
sVd1dorgp
p2
I1
s.(dp0
Vcyjoc5q
p1
I1
sVd1fh8vn
p2
I1
s.(dp0
Vcyjoc5q
p1
I1
sVd1isukv
p2
I1
s.(dp0
Vcyjoc5q
p1
I1
sVd1isukv
p2
I1
s.(dp0
Vcyjoc5q
p1
I1
sVd1isukv
p2
I1
s.(dp0
Vd1jw1jd
p1
I1
sVcyjoc5q
p2
I1
s.(dp0
Vcyjoc5q
p1
I1
sVd1vcqsu
p2
I1
s.(dp0
Vcyjoc5q
p1
I1
sVd1ymz53
p2
I1
s.(dp0
Vcyjoc5q
p1
I1
sVd32rli5
p2
I1
s.(dp0
Vcyjoc5q
p1
I1
sVd3c9bi3
p2
I1
s.(dp0
Vcyjoc5q
p1
I1
sVd3l843n
p2
I1
s.(dp0
Vcyjoc5q
p1
I1
sVd3lj8aq
p2
I1
s.(dp0
Vcyjoc5q
p1
I1
sVd3lkut2
p2
I1
s.(dp0
Vcyjoc5q
p1
I1
sVd3lkut2
p2
I1
s.(dp0
Vcyjoc5q
p1
I1
sVd3lkut2
p2
I1
s.(dp0
Vcyjoc5q
p1
I1
sVd3lkut2
p2
I1
s.(dp0
Vd3ncfza
p1
I1
sVcyjoc5q
p2
I1
s.(dp0
Vcyjoc5q
p1
I1
sVd3wnpdw
p2
I1
s.(dp0
Vcyjoc5q
p1
I1
sVd4boqll
p2
I1
s.(dp0
Vcyjoc5q
p1
I1
sVd4nvav6
p2
I1
s.(dp0
Vcyjoc5q
p1
I1
sVd5tn96h
p2
I1
s.(dp0
Vcyjoc5q
p1
I1
sVd61y6w7
p2
I1
s.(dp0
Vd6403hv
p1
I1
sVcyjoc5q
p2
I1
s.(dp0
Vcyjoc5q
p1
I1
sVd66fb73
p2
I1
s.(dp0
Vcyjoc5q
p1
I1
sVd6p2mlj
p2
I1
s.(dp0
Vcyjoc5q
p1
I1
sVd714ers
p2
I1
s.(dp0
Vcyjoc5q
p1
I1
sVd7a79du
p2
I1
s.(dp0
Vcyjoc5q
p1
I1
sVd7i6vq5
p2
I1
s.(dp0
Vcyjoc5q
p1
I1
sVd7qffqb
p2
I1
s.(dp0
Vd7rgq62
p1
I1
sVcyjoc5q
p2
I1
s.(dp0
Vd7rgq62
p1
I1
sVcyjoc5q
p2
I1
s.(dp0
Vcyjoc5q
p1
I1
sVd8noqnf
p2
I1
s.(dp0
Vcyjoc5q
p1
I1
sVd9rgi34
p2
I1
s.(dp0
Vcyjoc5q
p1
I1
sVd9up8vx
p2
I1
s.(dp0
Vcyjoc5q
p1
I1
sVd9utpl3
p2
I1
s.(dp0
Vcyjoc5q
p1
I1
sVdaaq9t8
p2
I1
s.(dp0
Vcyjoc5q
p1
I1
sVdai8sxo
p2
I1
s.(dp0
Vcyjoc5q
p1
I1
sVdaow46e
p2
I1
s.(dp0
Vcyjoc5q
p1
I1
sVdbqw8vi
p2
I1
s.(dp0
Vcyjoc5q
p1
I1
sVdcilhk4
p2
I1
s.(dp0
Vcyjoc5q
p1
I1
sVdcpz2yj
p2
I1
s.(dp0
Vcyjoc5q
p1
I1
sVdcxg45q
p2
I1
s.(dp0
Vcyjoc5q
p1
I1
sVddlbl7k
p2
I1
s.(dp0
Vcyjoc5q
p1
I1
sVddmz9dz
p2
I1
s.(dp0
Vcyjoc5q
p1
I1
sVddqo4rs
p2
I1
s.(dp0
Vcyjoc5q
p1
I1
sVde93tn8
p2
I1
s.(dp0
Vcyjoc5q
p1
I1
sVdew734g
p2
I1
s.(dp0
Vcyjoc5q
p1
I1
sVdf0wp9g
p2
I1
s.(dp0
Vcyjoc5q
p1
I1
sVdf3l0v4
p2
I1
s.(dp0
Vcyjoc5q
p1
I1
sVdfbd5ph
p2
I1
s.(dp0
Vcyjoc5q
p1
I1
sVdflltse
p2
I1
s.(dp0
Vcyjoc5q
p1
I1
sVdflrzes
p2
I1
s.(dp0
Vdgbbcir
p1
I1
sVcyjoc5q
p2
I1
s.(dp0
Vcyjoc5q
p1
I1
sVdgm50yj
p2
I1
s.(dp0
Vcyjoc5q
p1
I1
sVdgxccz2
p2
I1
s.(dp0
Vcyjoc5q
p1
I1
sVdh81dls
p2
I1
s.(dp0
Vcyjoc5q
p1
I1
sVdhluwox
p2
I1
s.(dp0
Vcyjoc5q
p1
I1
sVdi5pmgc
p2
I1
s.(dp0
Vcyjoc5q
p1
I1
sVdik9nkj
p2
I1
s.(dp0
Vcyjoc5q
p1
I1
sVdik9nkj
p2
I1
s.(dp0
Vcyjoc5q
p1
I1
sVdj3q45x
p2
I1
s.(dp0
Vcyjoc5q
p1
I1
sVdj6xthf
p2
I1
s.(dp0
Vcyjoc5q
p1
I1
sVdjgm80g
p2
I1
s.(dp0
Vcyjoc5q
p1
I1
sVdk2kqgy
p2
I1
s.(dp0
Vcyjoc5q
p1
I1
sVdk67quo
p2
I1
s.