(dp0
Vcz8wka3
p1
I1
s.(dp0
Vcz8wka3
p1
I1
sVcz97qn1
p2
I1
s.(dp0
Vcz8wka3
p1
I1
sVczj1zz0
p2
I1
s.(dp0
Vcz8wka3
p1
I1
sVcznxmeg
p2
I1
s.(dp0
Vcz8wka3
p1
I1
sVd00y05n
p2
I1
s.(dp0
Vcz8wka3
p1
I1
sVd0mzrh6
p2
I1
s.(dp0
Vcz8wka3
p1
I1
sVd10qvu9
p2
I1
s.(dp0
Vcz8wka3
p1
I1
sVd1fszsm
p2
I1
s.(dp0
Vcz8wka3
p1
I1
sVd2shd5w
p2
I1
s.(dp0
Vcz8wka3
p1
I1
sVd3nnsnf
p2
I1
s.(dp0
Vcz8wka3
p1
I1
sVd3t6xsw
p2
I1
s.(dp0
Vcz8wka3
p1
I1
sVd41osot
p2
I1
s.(dp0
Vcz8wka3
p1
I1
sVd4cv2xk
p2
I1
s.(dp0
Vcz8wka3
p1
I1
sVd4cvnek
p2
I1
s.(dp0
Vcz8wka3
p1
I1
sVd4cvnek
p2
I1
s.(dp0
Vcz8wka3
p1
I1
sVd4dml4m
p2
I1
s.(dp0
Vcz8wka3
p1
I1
sVd4dslwq
p2
I1
s.(dp0
Vcz8wka3
p1
I1
sVd7lgtcl
p2
I1
s.(dp0
Vcz8wka3
p1
I1
sVd8fcwvr
p2
I1
s.(dp0
Vcz8wka3
p1
I1
sVd8ir781
p2
I1
s.(dp0
Vcz8wka3
p1
I1
sVd9coicp
p2
I1
s.(dp0
Vcz8wka3
p1
I1
sVdadyknl
p2
I1
s.(dp0
Vcz8wka3
p1
I1
sVdb52a9o
p2
I1
s.(dp0
Vcz8wka3
p1
I1
sVdbnzfgx
p2
I1
s.(dp0
Vcz8wka3
p1
I1
sVdccieko
p2
I1
s.(dp0
Vcz8wka3
p1
I1
sVdcrs2hd
p2
I1
s.(dp0
Vcz8wka3
p1
I1
sVdcxmx2i
p2
I1
s.(dp0
Vcz8wka3
p1
I1
sVddr5hf5
p2
I1
s.(dp0
Vcz8wka3
p1
I1
sVddrbgk9
p2
I1
s.(dp0
Vcz8wka3
p1
I1
sVddrbgk9
p2
I1
s.(dp0
Vcz8wka3
p1
I1
sVddrbgk9
p2
I1
s.(dp0
Vcz8wka3
p1
I1
sVddrbgk9
p2
I1
s.(dp0
Vcz8wka3
p1
I1
sVddrbgk9
p2
I1
s.(dp0
Vcz8wka3
p1
I1
sVddrbgk9
p2
I1
s.(dp0
Vcz8wka3
p1
I1
sVddrbgk9
p2
I1
s.(dp0
Vcz8wka3
p1
I1
sVdet51fe
p2
I1
s.(dp0
Vcz8wka3
p1
I1
sVdfa1fp4
p2
I1
s.(dp0
Vcz8wka3
p1
I1
sVdfd40ef
p2
I1
s.(dp0
Vcz8wka3
p1
I1
sVdfkjm8w
p2
I1
s.(dp0
Vcz8wka3
p1
I1
sVdg61bel
p2
I1
s.(dp0
Vcz8wka3
p1
I1
sVdgb3cmh
p2
I1
s.(dp0
Vcz8wka3
p1
I1
sVdgpob1t
p2
I1
s.(dp0
Vcz8wka3
p1
I1
sVdhvx56e
p2
I1
s.(dp0
Vcz8wka3
p1
I1
sVdhvx56e
p2
I1
s.(dp0
Vcz8wka3
p1
I1
sVdhw1zv9
p2
I1
s.(dp0
Vcz8wka3
p1
I1
sVdj7c8b1
p2
I1
s.(dp0
Vcz8wka3
p1
I1
sVdjqfmw9
p2
I1
s.(dp0
Vcz8wka3
p1
I1
sVdk6mgm4
p2
I1
s.(dp0
Vcz8wka3
p1
I1
sVdkatl7e
p2
I1
s.(dp0
Vcz8wka3
p1
I1
sVdkzc3f6
p2
I1
s.(dp0
Vcz8wka3
p1
I1
sVdms5jz2
p2
I1
s.(dp0
Vcz8wka3
p1
I1
sVdn0272b
p2
I1
s.(dp0
Vcz8wka3
p1
I1
sVdn0272b
p2
I1
s.