(dp0
Vcynxms6
p1
I1
s.(dp0
Vcyuw6sw
p1
I1
sVcynxms6
p2
I1
s.(dp0
Vcyvtpds
p1
I1
sVcynxms6
p2
I1
s.(dp0
Vcz0qpzg
p1
I1
sVcynxms6
p2
I1
s.(dp0
Vcz0qpzg
p1
I1
sVcynxms6
p2
I1
s.(dp0
Vcz3wbb1
p1
I1
sVcynxms6
p2
I1
s.(dp0
Vcz3wbb1
p1
I1
sVcynxms6
p2
I1
s.(dp0
Vcz45x3a
p1
I1
sVcynxms6
p2
I1
s.(dp0
Vczewecz
p1
I1
sVcynxms6
p2
I1
s.(dp0
Vczf1pev
p1
I1
sVcynxms6
p2
I1
s.(dp0
Vczgv1nx
p1
I1
sVcynxms6
p2
I1
s.(dp0
Vczyb3zl
p1
I1
sVcynxms6
p2
I1
s.(dp0
Vczyb3zl
p1
I1
sVcynxms6
p2
I1
s.(dp0
Vd0atmpg
p1
I1
sVcynxms6
p2
I1
s.(dp0
Vd0d7qtv
p1
I1
sVcynxms6
p2
I1
s.(dp0
Vd0eou02
p1
I1
sVcynxms6
p2
I1
s.(dp0
Vd0tl0oq
p1
I1
sVcynxms6
p2
I1
s.(dp0
Vd0zlpkk
p1
I1
sVcynxms6
p2
I1
s.(dp0
Vd17zw46
p1
I1
sVcynxms6
p2
I1
s.(dp0
Vd1h93f8
p1
I1
sVcynxms6
p2
I1
s.(dp0
Vd1idfd8
p1
I1
sVcynxms6
p2
I1
s.(dp0
Vd1o4dpd
p1
I1
sVcynxms6
p2
I1
s.(dp0
Vd1o4dpd
p1
I1
sVcynxms6
p2
I1
s.(dp0
Vd1pj7o1
p1
I1
sVcynxms6
p2
I1
s.(dp0
Vd2aawkn
p1
I1
sVcynxms6
p2
I1
s.(dp0
Vd2bwd4u
p1
I1
sVcynxms6
p2
I1
s.(dp0
Vd2bwd4u
p1
I1
sVcynxms6
p2
I1
s.(dp0
Vd2dyk7p
p1
I1
sVcynxms6
p2
I1
s.(dp0
Vd2egje8
p1
I1
sVcynxms6
p2
I1
s.(dp0
Vd2h8h2o
p1
I1
sVcynxms6
p2
I1
s.(dp0
Vd2h8h2o
p1
I1
sVcynxms6
p2
I1
s.(dp0
Vd2siwu9
p1
I1
sVcynxms6
p2
I1
s.(dp0
Vd32hfyk
p1
I1
sVcynxms6
p2
I1
s.(dp0
Vd380ue5
p1
I1
sVcynxms6
p2
I1
s.(dp0
Vd38z7rw
p1
I1
sVcynxms6
p2
I1
s.(dp0
Vd3gao0t
p1
I1
sVcynxms6
p2
I1
s.(dp0
Vd47dbs0
p1
I1
sVcynxms6
p2
I1
s.(dp0
Vd47dbs0
p1
I1
sVcynxms6
p2
I1
s.(dp0
Vd4uz9x8
p1
I1
sVcynxms6
p2
I1
s.(dp0
Vd4zedwk
p1
I1
sVcynxms6
p2
I1
s.(dp0
Vd5astrr
p1
I1
sVcynxms6
p2
I1
s.(dp0
Vd5no4zb
p1
I1
sVcynxms6
p2
I1
s.(dp0
Vd5w4tmg
p1
I1
sVcynxms6
p2
I1
s.(dp0
Vd69vt9g
p1
I1
sVcynxms6
p2
I1
s.(dp0
Vd6b1raq
p1
I1
sVcynxms6
p2
I1
s.(dp0
Vd6c8ag4
p1
I1
sVcynxms6
p2
I1
s.(dp0
Vd6ds15n
p1
I1
sVcynxms6
p2
I1
s.(dp0
Vd6i4072
p1
I1
sVcynxms6
p2
I1
s.(dp0
Vd7o7t7a
p1
I1
sVcynxms6
p2
I1
s.(dp0
Vd87utp1
p1
I1
sVcynxms6
p2
I1
s.(dp0
Vd8tgj0u
p1
I1
sVcynxms6
p2
I1
s.(dp0
Vd934xd6
p1
I1
sVcynxms6
p2
I1
s.(dp0
Vd9991x0
p1
I1
sVcynxms6
p2
I1
s.(dp0
Vd9ba8yv
p1
I1
sVcynxms6
p2
I1
s.(dp0
Vd9ba8yv
p1
I1
sVcynxms6
p2
I1
s.(dp0
Vd9q85c9
p1
I1
sVcynxms6
p2
I1
s.(dp0
Vd9q85c9
p1
I1
sVcynxms6
p2
I1
s.(dp0
Vd9q85c9
p1
I1
sVcynxms6
p2
I1
s.(dp0
Vd9q85c9
p1
I1
sVcynxms6
p2
I1
s.(dp0
Vd9q85c9
p1
I1
sVcynxms6
p2
I1
s.(dp0
Vd9q85c9
p1
I1
sVcynxms6
p2
I1
s.(dp0
Vd9tg964
p1
I1
sVcynxms6
p2
I1
s.(dp0
Vd9xc0l1
p1
I1
sVcynxms6
p2
I1
s.(dp0
Vda183j0
p1
I1
sVcynxms6
p2
I1
s.(dp0
Vdbaffqa
p1
I1
sVcynxms6
p2
I1
s.(dp0
Vdbaffqa
p1
I1
sVcynxms6
p2
I1
s.(dp0
Vdbe6uek
p1
I1
sVcynxms6
p2
I1
s.(dp0
Vdbn5rj4
p1
I1
sVcynxms6
p2
I1
s.(dp0
Vdbst0zg
p1
I1
sVcynxms6
p2
I1
s.(dp0
Vdbziofc
p1
I1
sVcynxms6
p2
I1
s.(dp0
Vdccgr4j
p1
I1
sVcynxms6
p2
I1
s.(dp0
Vdckkoci
p1
I1
sVcynxms6
p2
I1
s.(dp0
Vdcl8s56
p1
I1
sVcynxms6
p2
I1
s.(dp0
Vdcov9tm
p1
I1
sVcynxms6
p2
I1
s.(dp0
Vdcqd0wn
p1
I1
sVcynxms6
p2
I1
s.(dp0
Vdcta169
p1
I1
sVcynxms6
p2
I1
s.(dp0
Vdcwjj2c
p1
I1
sVcynxms6
p2
I1
s.(dp0
Vdd4xwsb
p1
I1
sVcynxms6
p2
I1
s.(dp0
Vdd63eku
p1
I1
sVcynxms6
p2
I1
s.(dp0
Vdd770xm
p1
I1
sVcynxms6
p2
I1
s.(dp0
Vdd770xm
p1
I1
sVcynxms6
p2
I1
s.(dp0
Vddi0c5g
p1
I1
sVcynxms6
p2
I1
s.(dp0
Vddj0hk1
p1
I1
sVcynxms6
p2
I1
s.(dp0
Vddl7wes
p1
I1
sVcynxms6
p2
I1
s.(dp0
Vddtr6j3
p1
I1
sVcynxms6
p2
I1
s.(dp0
Vddz1ewy
p1
I1
sVcynxms6
p2
I1
s.(dp0
Vde7cg55
p1
I1
sVcynxms6
p2
I1
s.(dp0
Vde7el3y
p1
I1
sVcynxms6
p2
I1
s.(dp0
Vde8ut39
p1
I1
sVcynxms6
p2
I1
s.(dp0
Vdej2w8z
p1
I1
sVcynxms6
p2
I1
s.(dp0
Vdekyqdp
p1
I1
sVcynxms6
p2
I1
s.(dp0
Vdekyqdp
p1
I1
sVcynxms6
p2
I1
s.(dp0
Vdfcwcup
p1
I1
sVcynxms6
p2
I1
s.(dp0
Vdfjvere
p1
I1
sVcynxms6
p2
I1
s.(dp0
Vdfw9eww
p1
I1
sVcynxms6
p2
I1
s.(dp0
Vdg3mdxk
p1
I1
sVcynxms6
p2
I1
s.(dp0
Vdgdfi94
p1
I1
sVcynxms6
p2
I1
s.(dp0
Vdgx4lum
p1
I1
sVcynxms6
p2
I1
s.(dp0
Vdh32qhm
p1
I1
sVcynxms6
p2
I1
s.(dp0
Vdh8bun7
p1
I1
sVcynxms6
p2
I1
s.(dp0
Vdhjvta1
p1
I1
sVcynxms6
p2
I1
s.(dp0
Vdi92qq6
p1
I1
sVcynxms6
p2
I1
s.(dp0
Vdicrhno
p1
I1
sVcynxms6
p2
I1
s.(dp0
Vdinmp6t
p1
I1
sVcynxms6
p2
I1
s.(dp0
Vdj8ewxb
p1
I1
sVcynxms6
p2
I1
s.(dp0
Vdjdg78f
p1
I1
sVcynxms6
p2
I1
s.(dp0
Vdjoqeok
p1
I1
sVcynxms6
p2
I1
s.(dp0
Vdjtweoh
p1
I1
sVcynxms6
p2
I1
s.(dp0
Vdj(dp0
Vdky9z7k
p1
I1
sVcynxms6
p2
I1
s.