(dp0
Vcyizgll
p1
I1
s.(dp0
Vcyl3li9
p1
I1
sVcyizgll
p2
I1
s.(dp0
Vcyizgll
p1
I1
sVcyo65kt
p2
I1
s.(dp0
Vcyizgll
p1
I1
sVcyuzoqa
p2
I1
s.(dp0
Vcyizgll
p1
I1
sVcywsmbw
p2
I1
s.(dp0
Vcyizgll
p1
I1
sVcyz2617
p2
I1
s.(dp0
Vcz1pypu
p1
I1
sVcyizgll
p2
I1
s.(dp0
Vcz64m3l
p1
I1
sVcyizgll
p2
I1
s.(dp0
Vcyizgll
p1
I1
sVcz7r4tb
p2
I1
s.(dp0
Vcyizgll
p1
I1
sVczbw7i1
p2
I1
s.(dp0
Vcyizgll
p1
I1
sVczc1km5
p2
I1
s.(dp0
Vcyizgll
p1
I1
sVczhqghm
p2
I1
s.(dp0
Vcyizgll
p1
I1
sVczhqghm
p2
I1
s.(dp0
Vczi0itr
p1
I1
sVcyizgll
p2
I1
s.(dp0
Vcyizgll
p1
I1
sVczmy9uv
p2
I1
s.(dp0
Vcztyepr
p1
I1
sVcyizgll
p2
I1
s.(dp0
Vcyizgll
p1
I1
sVczw88uy
p2
I1
s.(dp0
Vczxlc5h
p1
I1
sVcyizgll
p2
I1
s.(dp0
Vcyizgll
p1
I1
sVd065b0z
p2
I1
s.(dp0
Vd0almvy
p1
I1
sVcyizgll
p2
I1
s.(dp0
Vd0e30g0
p1
I1
sVcyizgll
p2
I1
s.(dp0
Vd0i6149
p1
I1
sVcyizgll
p2
I1
s.(dp0
Vcyizgll
p1
I1
sVd0p23o6
p2
I1
s.(dp0
Vcyizgll
p1
I1
sVd0rtdb4
p2
I1
s.(dp0
Vd1219t8
p1
I1
sVcyizgll
p2
I1
s.(dp0
Vd13e4hp
p1
I1
sVcyizgll
p2
I1
s.(dp0
Vcyizgll
p1
I1
sVd16wfn1
p2
I1
s.(dp0
Vd1agr5k
p1
I1
sVcyizgll
p2
I1
s.(dp0
Vcyizgll
p1
I1
sVd1hg5wa
p2
I1
s.(dp0
Vd1hvz0t
p1
I1
sVcyizgll
p2
I1
s.(dp0
Vd1jspzo
p1
I1
sVcyizgll
p2
I1
s.(dp0
Vd1jspzo
p1
I1
sVcyizgll
p2
I1
s.(dp0
Vd1jspzo
p1
I1
sVcyizgll
p2
I1
s.(dp0
Vcyizgll
p1
I1
sVd1km8j2
p2
I1
s.(dp0
Vcyizgll
p1
I1
sVd1kuzh0
p2
I1
s.(dp0
Vcyizgll
p1
I1
sVd1q4beu
p2
I1
s.(dp0
Vcyizgll
p1
I1
sVd1yyd4a
p2
I1
s.(dp0
Vd1zg049
p1
I1
sVcyizgll
p2
I1
s.(dp0
Vcyizgll
p1
I1
sVd21qxmv
p2
I1
s.(dp0
Vcyizgll
p1
I1
sVd2anebo
p2
I1
s.(dp0
Vcyizgll
p1
I1
sVd2bljow
p2
I1
s.(dp0
Vcyizgll
p1
I1
sVd2cot2d
p2
I1
s.(dp0
Vcyizgll
p1
I1
sVd2efnjd
p2
I1
s.(dp0
Vcyizgll
p1
I1
sVd2jlctg
p2
I1
s.(dp0
Vcyizgll
p1
I1
sVd3q4qcs
p2
I1
s.(dp0
Vcyizgll
p1
I1
sVd3ttdrr
p2
I1
s.(dp0
Vcyizgll
p1
I1
sVd42gw22
p2
I1
s.(dp0
Vcyizgll
p1
I1
sVd44u9k6
p2
I1
s.(dp0
Vcyizgll
p1
I1
sVd49ew2u
p2
I1
s.(dp0
Vcyizgll
p1
I1
sVd4gl9qw
p2
I1
s.(dp0
Vcyizgll
p1
I1
sVd4i9q77
p2
I1
s.(dp0
Vd4lxyat
p1
I1
sVcyizgll
p2
I1
s.(dp0
Vd4vfeg3
p1
I1
sVcyizgll
p2
I1
s.(dp0
Vcyizgll
p1
I1
sVd4y5gw9
p2
I1
s.(dp0
Vcyizgll
p1
I1
sVd574tub
p2
I1
s.(dp0
Vd5bfg52
p1
I1
sVcyizgll
p2
I1
s.(dp0
Vd5bfg52
p1
I1
sVcyizgll
p2
I1
s.(dp0
Vd5fqoit
p1
I1
sVcyizgll
p2
I1
s.(dp0
Vcyizgll
p1
I1
sVd5v7std
p2
I1
s.(dp0
Vcyizgll
p1
I1
sVd5xmfex
p2
I1
s.(dp0
Vcyizgll
p1
I1
sVd6a3teo
p2
I1
s.(dp0
Vd6beprg
p1
I1
sVcyizgll
p2
I1
s.(dp0
Vd6wknfs
p1
I1
sVcyizgll
p2
I1
s.(dp0
Vd6zi6bv
p1
I1
sVcyizgll
p2
I1
s.(dp0
Vd6zy9h3
p1
I1
sVcyizgll
p2
I1
s.(dp0
Vd78bv2h
p1
I1
sVcyizgll
p2
I1
s.(dp0
Vcyizgll
p1
I1
sVd7j74w3
p2
I1
s.(dp0
Vd83paex
p1
I1
sVcyizgll
p2
I1
s.(dp0
Vcyizgll
p1
I1
sVd85gbyc
p2
I1
s.(dp0
Vcyizgll
p1
I1
sVd89rijh
p2
I1
s.(dp0
Vd8dzfbp
p1
I1
sVcyizgll
p2
I1
s.(dp0
Vcyizgll
p1
I1
sVd8hjlug
p2
I1
s.(dp0
Vcyizgll
p1
I1
sVd8hjlug
p2
I1
s.(dp0
Vcyizgll
p1
I1
sVd8quuv1
p2
I1
s.(dp0
Vcyizgll
p1
I1
sVd8ykve8
p2
I1
s.(dp0
Vd8yn4hy
p1
I1
sVcyizgll
p2
I1
s.(dp0
Vcyizgll
p1
I1
sVd94fe6r
p2
I1
s.(dp0
Vd9e5am1
p1
I1
sVcyizgll
p2
I1
s.(dp0
Vcyizgll
p1
I1
sVd9e8lmo
p2
I1
s.(dp0
Vd9f216t
p1
I1
sVcyizgll
p2
I1
s.(dp0
Vcyizgll
p1
I1
sVd9ied5z
p2
I1
s.(dp0
Vda21tx8
p1
I1
sVcyizgll
p2
I1
s.(dp0
Vda6kc1f
p1
I1
sVcyizgll
p2
I1
s.(dp0
Vcyizgll
p1
I1
sVda8kwjk
p2
I1
s.(dp0
Vdai0lk1
p1
I1
sVcyizgll
p2
I1
s.(dp0
Vcyizgll
p1
I1
sVdaj3d8k
p2
I1
s.(dp0
Vdaqgzil
p1
I1
sVcyizgll
p2
I1
s.(dp0
Vcyizgll
p1
I1
sVdatdql1
p2
I1
s.(dp0
Vdatwaym
p1
I1
sVcyizgll
p2
I1
s.(dp0
Vdaux8hg
p1
I1
sVcyizgll
p2
I1
s.(dp0
Vcyizgll
p1
I1
sVdbbq0a9
p2
I1
s.(dp0
Vdbdovwk
p1
I1
sVcyizgll
p2
I1
s.(dp0
Vcyizgll
p1
I1
sVdbeeqea
p2
I1
s.(dp0
Vcyizgll
p1
I1
sVdbh8etx
p2
I1
s.(dp0
Vcyizgll
p1
I1
sVdbn1g76
p2
I1
s.(dp0
Vdbpqwqy
p1
I1
sVcyizgll
p2
I1
s.(dp0
Vdbsias7
p1
I1
sVcyizgll
p2
I1
s.(dp0
Vcyizgll
p1
I1
sVdbu22xf
p2
I1
s.(dp0
Vcyizgll
p1
I1
sVdbu22xf
p2
I1
s.(dp0
Vcyizgll
p1
I1
sVdbx5wib
p2
I1
s.(dp0
Vdbx61co
p1
I1
sVcyizgll
p2
I1
s.(dp0
Vdbxa3yt
p1
I1
sVcyizgll
p2
I1
s.(dp0
Vcyizgll
p1
I1
sVdccmhai
p2
I1
s.(dp0
Vdcfwk0l
p1
I1
sVcyizgll
p2
I1
s.(dp0
Vdchm5fc
p1
I1
sVcyizgll
p2
I1
s.(dp0
Vdcjv8fx
p1
I1
sVcyizgll
p2
I1
s.(dp0
Vdconbya
p1
I1
sVcyizgll
p2
I1
s.(dp0
Vdconbya
p1
I1
sVcyizgll
p2
I1
s.(dp0
Vdc(dp0
Vdoywqsq
p1
I1
sVcyizgll
p2
I1
s.