(dp0
Vczewffy
p1
I1
s.(dp0
Vd01t1cm
p1
I1
sVczewffy
p2
I1
s.(dp0
Vd01t1cm
p1
I1
sVczewffy
p2
I1
s.(dp0
Vd1603os
p1
I1
sVczewffy
p2
I1
s.(dp0
Vd1ietba
p1
I1
sVczewffy
p2
I1
s.(dp0
Vd248inw
p1
I1
sVczewffy
p2
I1
s.(dp0
Vd408iuy
p1
I1
sVczewffy
p2
I1
s.(dp0
Vd5jmd8i
p1
I1
sVczewffy
p2
I1
s.(dp0
Vdb16e12
p1
I1
sVczewffy
p2
I1
s.(dp0
Vdbftqc5
p1
I1
sVczewffy
p2
I1
s.(dp0
Vdbwzbdz
p1
I1
sVczewffy
p2
I1
s.(dp0
Vdclh169
p1
I1
sVczewffy
p2
I1
s.(dp0
Vdf5f892
p1
I1
sVczewffy
p2
I1
s.(dp0
Vdf5f892
p1
I1
sVczewffy
p2
I1
s.(dp0
Vdjlb4gk
p1
I1
sVczewffy
p2
I1
s.