(dp0
Vcypsu7b
p1
I1
s.(dp0
Vcypsu7b
p1
I2
s.(dp0
Vczc16cu
p1
I1
sVcypsu7b
p2
I1
s.(dp0
Vd00nyaa
p1
I1
sVcypsu7b
p2
I1
s.(dp0
Vcypsu7b
p1
I1
sVd0mf7jg
p2
I1
s.(dp0
Vd0vmi41
p1
I1
sVcypsu7b
p2
I1
s.(dp0
Vd0vvuad
p1
I1
sVcypsu7b
p2
I1
s.(dp0
Vd0z91h6
p1
I1
sVcypsu7b
p2
I1
s.(dp0
Vcypsu7b
p1
I1
sVd1ghjps
p2
I1
s.(dp0
Vd1gk3ij
p1
I1
sVcypsu7b
p2
I1
s.(dp0
Vd1vr8g6
p1
I1
sVcypsu7b
p2
I1
s.(dp0
Vd2n9qrs
p1
I1
sVcypsu7b
p2
I1
s.(dp0
Vcypsu7b
p1
I1
sVd2nk8dy
p2
I1
s.(dp0
Vd34q4ry
p1
I1
sVcypsu7b
p2
I1
s.(dp0
Vd3695a7
p1
I1
sVcypsu7b
p2
I1
s.(dp0
Vd3c3ele
p1
I1
sVcypsu7b
p2
I1
s.(dp0
Vd3tffks
p1
I1
sVcypsu7b
p2
I1
s.(dp0
Vd3tfi3n
p1
I1
sVcypsu7b
p2
I1
s.(dp0
Vcypsu7b
p1
I1
sVd3zfq4n
p2
I1
s.(dp0
Vd4ttjol
p1
I1
sVcypsu7b
p2
I1
s.(dp0
Vcypsu7b
p1
I1
sVd4txvcv
p2
I1
s.(dp0
Vcypsu7b
p1
I1
sVd4txvcv
p2
I1
s.(dp0
Vcypsu7b
p1
I1
sVd4xozb4
p2
I1
s.(dp0
Vcypsu7b
p1
I1
sVd51hn9w
p2
I1
s.(dp0
Vd5h6pch
p1
I1
sVcypsu7b
p2
I1
s.(dp0
Vd5kxpur
p1
I1
sVcypsu7b
p2
I1
s.(dp0
Vd5wu40a
p1
I1
sVcypsu7b
p2
I1
s.(dp0
Vcypsu7b
p1
I1
sVd60es57
p2
I1
s.(dp0
Vcypsu7b
p1
I1
sVd68qegc
p2
I1
s.(dp0
Vd6pub9g
p1
I1
sVcypsu7b
p2
I1
s.(dp0
Vd76ofbu
p1
I1
sVcypsu7b
p2
I1
s.(dp0
Vcypsu7b
p1
I1
sVd77l41k
p2
I1
s.(dp0
Vcypsu7b
p1
I1
sVd78smct
p2
I1
s.(dp0
Vcypsu7b
p1
I1
sVd79ptlp
p2
I1
s.(dp0
Vcypsu7b
p1
I1
sVd7j2qmv
p2
I1
s.(dp0
Vcypsu7b
p1
I1
sVd7wwirx
p2
I1
s.(dp0
Vcypsu7b
p1
I1
sVd7zvwdl
p2
I1
s.(dp0
Vcypsu7b
p1
I1
sVd81lv4z
p2
I1
s.(dp0
Vcypsu7b
p1
I1
sVd83l1gi
p2
I1
s.(dp0
Vd8cqy8x
p1
I1
sVcypsu7b
p2
I1
s.(dp0
Vd8cqy8x
p1
I1
sVcypsu7b
p2
I1
s.(dp0
Vcypsu7b
p1
I1
sVd8xkogi
p2
I1
s.(dp0
Vd8ytcb1
p1
I1
sVcypsu7b
p2
I1
s.(dp0
Vd9hg55g
p1
I1
sVcypsu7b
p2
I1
s.(dp0
Vdapokg4
p1
I1
sVcypsu7b
p2
I1
s.(dp0
Vcypsu7b
p1
I1
sVdasfgsp
p2
I1
s.(dp0
Vcypsu7b
p1
I1
sVdbw6836
p2
I1
s.(dp0
Vdd6skua
p1
I1
sVcypsu7b
p2
I1
s.(dp0
Vdefx1zv
p1
I1
sVcypsu7b
p2
I1
s.(dp0
Vdej8kow
p1
I1
sVcypsu7b
p2
I1
s.(dp0
Vcypsu7b
p1
I1
sVdetjz86
p2
I1
s.(dp0
Vcypsu7b
p1
I1
sVdf4c4t5
p2
I1
s.(dp0
Vdf8vzeq
p1
I1
sVcypsu7b
p2
I1
s.(dp0
Vdf8vzeq
p1
I1
sVcypsu7b
p2
I1
s.(dp0
Vdf8vzeq
p1
I1
sVcypsu7b
p2
I1
s.(dp0
Vdf8x76a
p1
I1
sVcypsu7b
p2
I1
s.(dp0
Vcypsu7b
p1
I1
sVdf91nxr
p2
I1
s.(dp0
Vcypsu7b
p1
I1
sVdf934fl
p2
I1
s.(dp0
Vdfksv07
p1
I1
sVcypsu7b
p2
I1
s.(dp0
Vdfl1h5i
p1
I1
sVcypsu7b
p2
I1
s.(dp0
Vdgokoay
p1
I1
sVcypsu7b
p2
I1
s.(dp0
Vdgpgvi6
p1
I1
sVcypsu7b
p2
I1
s.(dp0
Vdi78sh7
p1
I1
sVcypsu7b
p2
I1
s.(dp0
Vcypsu7b
p1
I1
sVdinrz1d
p2
I1
s.(dp0
Vdiu7ab8
p1
I1
sVcypsu7b
p2
I1
s.(dp0
Vdiu7ab8
p1
I1
sVcypsu7b
p2
I1
s.(dp0
Vdj4r53y
p1
I1
sVcypsu7b
p2
I1
s.(dp0
Vdjeqnlr
p1
I1
sVcypsu7b
p2
I1
s.