(dp0
Vcyp2zhl
p1
I1
s.(dp0
Vd24h8j7
p1
I1
sVcyp2zhl
p2
I1
s.(dp0
Vd2qsqha
p1
I1
sVcyp2zhl
p2
I1
s.(dp0
Vd2ydi6t
p1
I1
sVcyp2zhl
p2
I1
s.(dp0
Vd3o84ll
p1
I1
sVcyp2zhl
p2
I1
s.(dp0
Vd3q36zj
p1
I1
sVcyp2zhl
p2
I1
s.(dp0
Vd5hvvsn
p1
I1
sVcyp2zhl
p2
I1
s.(dp0
Vd5xmfex
p1
I1
sVcyp2zhl
p2
I1
s.(dp0
Vd8u9vx2
p1
I1
sVcyp2zhl
p2
I1
s.(dp0
Vd8u9vx2
p1
I1
sVcyp2zhl
p2
I1
s.(dp0
Vddfqnyc
p1
I1
sVcyp2zhl
p2
I1
s.(dp0
Vde0r6u0
p1
I1
sVcyp2zhl
p2
I1
s.(dp0
Vdhvrs39
p1
I1
sVcyp2zhl
p2
I1
s.