(dp0
Vcyldsj7
p1
I1
s.(dp0
Vcyldsj7
p1
I1
sVcyli4o2
p2
I1
s.(dp0
Vcyldsj7
p1
I1
sVczomu78
p2
I1
s.(dp0
Vcyldsj7
p1
I1
sVd1bp62x
p2
I1
s.(dp0
Vcyldsj7
p1
I1
sVd31o2r2
p2
I1
s.(dp0
Vcyldsj7
p1
I1
sVd3r276k
p2
I1
s.(dp0
Vd5rf7dk
p1
I1
sVcyldsj7
p2
I1
s.(dp0
Vcyldsj7
p1
I1
sVdduaekl
p2
I1
s.(dp0
Vcyldsj7
p1
I1
sVdep7o5o
p2
I1
s.(dp0
Vdfe8kux
p1
I1
sVcyldsj7
p2
I1
s.(dp0
Vcyldsj7
p1
I1
sVdi3ezw6
p2
I1
s.(dp0
Vcyldsj7
p1
I1
sVdig5n0q
p2
I1
s.(dp0
Vcyldsj7
p1
I1
sVdig5n0q
p2
I1
s.(dp0
Vcyldsj7
p1
I1
sVdig5n0q
p2
I1
s.(dp0
Vcyldsj7
p1
I1
sVdkx8qho
p2
I1
s.(dp0
Vcyldsj7
p1
I1
sVdkx8qho
p2
I1
s.(dp0
Vcyldsj7
p1
I1
sVdkx8qho
p2
I1
s.(dp0
Vcyldsj7
p1
I1
sVdkx8qho
p2
I1
s.(dp0
Vcyldsj7
p1
I1
sVdkx8qho
p2
I1
s.(dp0
Vcyldsj7
p1
I1
sVdkx8qho
p2
I1
s.(dp0
Vcyldsj7
p1
I1
sVdkx8qho
p2
I1
s.(dp0
Vcyldsj7
p1
I1
sVdkx8qho
p2
I1
s.(dp0
Vcyldsj7
p1
I1
sVdkx8qho
p2
I1
s.(dp0
Vcyldsj7
p1
I1
sVdkx8qho
p2
I1
s.(dp0
Vcyldsj7
p1
I1
sVdkxcbph
p2
I1
s.(dp0
Vcyldsj7
p1
I1
sVdkxcbph
p2
I1
s.