(dp0
Vcypmacs
p1
I1
s.(dp0
Vcz7ppba
p1
I1
sVcypmacs
p2
I1
s.(dp0
Vcz7re5a
p1
I1
sVcypmacs
p2
I1
s.(dp0
Vcz8a6d1
p1
I1
sVcypmacs
p2
I1
s.(dp0
Vcz8cmuq
p1
I1
sVcypmacs
p2
I1
s.(dp0
Vd0nxthy
p1
I1
sVcypmacs
p2
I1
s.(dp0
Vd2bka6g
p1
I1
sVcypmacs
p2
I1
s.(dp0
Vd38kd8q
p1
I1
sVcypmacs
p2
I1
s.(dp0
Vda6rvzr
p1
I1
sVcypmacs
p2
I1
s.(dp0
Vdcff1dh
p1
I1
sVcypmacs
p2
I1
s.(dp0
Vdclksgu
p1
I1
sVcypmacs
p2
I1
s.(dp0
Vdczk8oe
p1
I1
sVcypmacs
p2
I1
s.(dp0
Vdi9vrp2
p1
I1
sVcypmacs
p2
I1
s.(dp0
Vdjgri2v
p1
I1
sVcypmacs
p2
I1
s.