(dp0
Vcz4wn5n
p1
I1
s.(dp0
Vczt62lv
p1
I1
sVcz4wn5n
p2
I1
s.(dp0
Vd0157lp
p1
I1
sVcz4wn5n
p2
I1
s.(dp0
Vd1cuplz
p1
I1
sVcz4wn5n
p2
I1
s.(dp0
Vd6pl4q5
p1
I1
sVcz4wn5n
p2
I1
s.(dp0
Vcz4wn5n
p1
I1
sVdbk1plk
p2
I1
s.(dp0
Vcz4wn5n
p1
I1
sVdirxm4d
p2
I1
s.(dp0
Vdjy23nf
p1
I1
sVcz4wn5n
p2
I1
s.(dp0
Vcz4wn5n
p1
I1
sVdkxg632
p2
I1
s.