(dp0
Vcze8wwk
p1
I1
s.(dp0
Vczubwsq
p1
I1
sVcze8wwk
p2
I1
s.(dp0
Vd109lcm
p1
I1
sVcze8wwk
p2
I1
s.(dp0
Vd109lcm
p1
I1
sVcze8wwk
p2
I1
s.(dp0
Vd109lcm
p1
I1
sVcze8wwk
p2
I1
s.(dp0
Vd109lcm
p1
I1
sVcze8wwk
p2
I1
s.(dp0
Vd2g8aom
p1
I1
sVcze8wwk
p2
I1
s.(dp0
Vd2ibftw
p1
I1
sVcze8wwk
p2
I1
s.(dp0
Vd2ibftw
p1
I1
sVcze8wwk
p2
I1
s.(dp0
Vd44093v
p1
I1
sVcze8wwk
p2
I1
s.(dp0
Vcze8wwk
p1
I1
sVd6g49mk
p2
I1
s.(dp0
Vd73aznc
p1
I1
sVcze8wwk
p2
I1
s.(dp0
Vdc960pj
p1
I1
sVcze8wwk
p2
I1
s.(dp0
Vdc960pj
p1
I1
sVcze8wwk
p2
I1
s.(dp0
Vdcjx5r6
p1
I1
sVcze8wwk
p2
I1
s.(dp0
Vcze8wwk
p1
I1
sVdgakmzj
p2
I1
s.(dp0
Vdhe9664
p1
I1
sVcze8wwk
p2
I1
s.