(dp0
Vcyipmue
p1
I1
s.(dp0
Vcyipmue
p1
I1
sVcymrota
p2
I1
s.(dp0
Vcyipmue
p1
I1
sVcymtlh5
p2
I1
s.(dp0
Vcyipmue
p1
I1
sVcyqhs1h
p2
I1
s.(dp0
Vcyipmue
p1
I1
sVcyslusf
p2
I1
s.(dp0
Vcyipmue
p1
I1
sVcz5099l
p2
I1
s.(dp0
Vcyipmue
p1
I1
sVcz8sfjc
p2
I1
s.(dp0
Vcyipmue
p1
I1
sVczehg45
p2
I1
s.(dp0
Vcyipmue
p1
I1
sVczt8l69
p2
I1
s.(dp0
Vcyipmue
p1
I1
sVczv1i7h
p2
I1
s.(dp0
Vd03ca0l
p1
I1
sVcyipmue
p2
I1
s.(dp0
Vcyipmue
p1
I1
sVd0fktqi
p2
I1
s.(dp0
Vcyipmue
p1
I1
sVd0iflal
p2
I1
s.(dp0
Vcyipmue
p1
I1
sVd0ursd7
p2
I1
s.(dp0
Vcyipmue
p1
I1
sVd0wcdn2
p2
I1
s.(dp0
Vcyipmue
p1
I1
sVd10lsun
p2
I1
s.(dp0
Vd14kfoz
p1
I1
sVcyipmue
p2
I1
s.(dp0
Vcyipmue
p1
I1
sVd14oe4g
p2
I1
s.(dp0
Vd174yey
p1
I1
sVcyipmue
p2
I1
s.(dp0
Vcyipmue
p1
I1
sVd1vuml0
p2
I1
s.(dp0
Vcyipmue
p1
I1
sVd1yyd4a
p2
I1
s.(dp0
Vcyipmue
p1
I1
sVd2ynapx
p2
I1
s.(dp0
Vcyipmue
p1
I1
sVd304zjg
p2
I1
s.(dp0
Vcyipmue
p1
I1
sVd33a78b
p2
I1
s.(dp0
Vcyipmue
p1
I1
sVd3hiatk
p2
I1
s.(dp0
Vd3kr3iw
p1
I1
sVcyipmue
p2
I1
s.(dp0
Vcyipmue
p1
I1
sVd3m9wo1
p2
I1
s.(dp0
Vcyipmue
p1
I1
sVd3ooeib
p2
I1
s.(dp0
Vcyipmue
p1
I1
sVd3ooeib
p2
I1
s.(dp0
Vcyipmue
p1
I1
sVd3rzyej
p2
I1
s.(dp0
Vcyipmue
p1
I1
sVd3ud08h
p2
I1
s.(dp0
Vd3vcczh
p1
I1
sVcyipmue
p2
I1
s.(dp0
Vcyipmue
p1
I1
sVd491otx
p2
I1
s.(dp0
Vcyipmue
p1
I1
sVd53ad5d
p2
I1
s.(dp0
Vcyipmue
p1
I1
sVd5vr33x
p2
I1
s.(dp0
Vcyipmue
p1
I1
sVd6ai92b
p2
I1
s.(dp0
Vcyipmue
p1
I1
sVd6jf01w
p2
I1
s.(dp0
Vcyipmue
p1
I1
sVd6jf01w
p2
I1
s.(dp0
Vcyipmue
p1
I1
sVd6mlxhv
p2
I1
s.(dp0
Vcyipmue
p1
I1
sVd6ozd0w
p2
I1
s.(dp0
Vcyipmue
p1
I1
sVd7discf
p2
I1
s.(dp0
Vcyipmue
p1
I1
sVd7hm2lx
p2
I1
s.(dp0
Vcyipmue
p1
I1
sVd7jnerj
p2
I1
s.(dp0
Vcyipmue
p1
I1
sVd7n7jek
p2
I1
s.(dp0
Vcyipmue
p1
I1
sVd7n7jek
p2
I1
s.(dp0
Vcyipmue
p1
I1
sVd8g2oxe
p2
I1
s.(dp0
Vcyipmue
p1
I1
sVd8j4kuh
p2
I1
s.(dp0
Vcyipmue
p1
I1
sVd92c8es
p2
I1
s.(dp0
Vcyipmue
p1
I1
sVd92d3br
p2
I1
s.(dp0
Vd97ggyr
p1
I1
sVcyipmue
p2
I1
s.(dp0
Vcyipmue
p1
I1
sVd97jhxb
p2
I1
s.(dp0
Vcyipmue
p1
I1
sVd9bvi9l
p2
I1
s.(dp0
Vcyipmue
p1
I1
sVd9bvi9l
p2
I1
s.(dp0
Vcyipmue
p1
I1
sVd9ddsjn
p2
I1
s.(dp0
Vcyipmue
p1
I1
sVd9in6bg
p2
I1
s.(dp0
Vcyipmue
p1
I1
sVd9in6bg
p2
I1
s.(dp0
Vd9qp8t5
p1
I1
sVcyipmue
p2
I1
s.(dp0
Vcyipmue
p1
I1
sVd9uy4i5
p2
I1
s.(dp0
Vcyipmue
p1
I1
sVda5f1we
p2
I1
s.(dp0
Vcyipmue
p1
I1
sVdaa3nx4
p2
I1
s.(dp0
Vcyipmue
p1
I1
sVdahvfy8
p2
I1
s.(dp0
Vcyipmue
p1
I1
sVdasfcna
p2
I1
s.(dp0
Vcyipmue
p1
I1
sVdb3ouu0
p2
I1
s.(dp0
Vdb558jq
p1
I1
sVcyipmue
p2
I1
s.(dp0
Vdb558jq
p1
I1
sVcyipmue
p2
I1
s.(dp0
Vdb558jq
p1
I1
sVcyipmue
p2
I1
s.(dp0
Vcyipmue
p1
I1
sVdb5a6qs
p2
I1
s.(dp0
Vcyipmue
p1
I1
sVdb5aq23
p2
I1
s.(dp0
Vcyipmue
p1
I1
sVdbtf8u3
p2
I1
s.(dp0
Vcyipmue
p1
I1
sVdbuwc6c
p2
I1
s.(dp0
Vdc9892p
p1
I1
sVcyipmue
p2
I1
s.(dp0
Vcyipmue
p1
I1
sVdcd34ep
p2
I1
s.(dp0
Vdcg9hxr
p1
I1
sVcyipmue
p2
I1
s.(dp0
Vdcg9hxr
p1
I1
sVcyipmue
p2
I1
s.(dp0
Vcyipmue
p1
I1
sVdclbgci
p2
I1
s.(dp0
Vcyipmue
p1
I1
sVdcy967m
p2
I1
s.(dp0
Vcyipmue
p1
I1
sVddr2bf9
p2
I1
s.(dp0
Vcyipmue
p1
I1
sVde15mls
p2
I1
s.(dp0
Vdeezsmk
p1
I1
sVcyipmue
p2
I1
s.(dp0
Vcyipmue
p1
I1
sVdegmvuc
p2
I1
s.(dp0
Vcyipmue
p1
I1
sVdexpg5f
p2
I1
s.(dp0
Vdfj40j1
p1
I1
sVcyipmue
p2
I1
s.(dp0
Vdfo3lre
p1
I1
sVcyipmue
p2
I1
s.(dp0
Vdfoht5q
p1
I1
sVcyipmue
p2
I1
s.(dp0
Vcyipmue
p1
I1
sVdg0s915
p2
I1
s.(dp0
Vcyipmue
p1
I1
sVdgojmgq
p2
I1
s.(dp0
Vcyipmue
p1
I1
sVdhdu29v
p2
I1
s.(dp0
Vcyipmue
p1
I1
sVdhovlk0
p2
I1
s.(dp0
Vcyipmue
p1
I1
sVdhownen
p2
I1
s.(dp0
Vcyipmue
p1
I1
sVdhownen
p2
I1
s.(dp0
Vcyipmue
p1
I1
sVdhownen
p2
I1
s.(dp0
Vdhqulyr
p1
I1
sVcyipmue
p2
I1
s.(dp0
Vcyipmue
p1
I1
sVdhssczh
p2
I1
s.(dp0
Vcyipmue
p1
I1
sVdi7larq
p2
I1
s.(dp0
Vcyipmue
p1
I1
sVdimeb87
p2
I1
s.(dp0
Vcyipmue
p1
I1
sVdizvygh
p2
I1
s.(dp0
Vcyipmue
p1
I1
sVdjdj0jx
p2
I1
s.(dp0
Vcyipmue
p1
I1
sVdjdj0jx
p2
I1
s.(dp0
Vdjdjinx
p1
I1
sVcyipmue
p2
I1
s.(dp0
Vcyipmue
p1
I1
sVdkfgran
p2
I1
s.(dp0
Vdkl61ub
p1
I1
sVcyipmue
p2
I1
s.(dp0
Vdku8rmn
p1
I1
sVcyipmue
p2
I1
s.