(dp0
Vd02h6ff
p1
I1
s.(dp0
Vd02h6ff
p1
I1
sVd1dn7y4
p2
I1
s.(dp0
Vd1yg8ri
p1
I1
sVd02h6ff
p2
I1
s.(dp0
Vd312yvz
p1
I1
sVd02h6ff
p2
I1
s.(dp0
Vd02h6ff
p1
I1
sVd50p0cv
p2
I1
s.(dp0
Vd02h6ff
p1
I1
sVd79wuhk
p2
I1
s.(dp0
Vd02h6ff
p1
I1
sVd8q70x2
p2
I1
s.(dp0
Vd02h6ff
p1
I1
sVd8q70x2
p2
I1
s.(dp0
Vd02h6ff
p1
I1
sVd8q70x2
p2
I1
s.(dp0
Vd02h6ff
p1
I1
sVd8q7h0x
p2
I1
s.(dp0
Vd02h6ff
p1
I1
sVd8q7h0x
p2
I1
s.(dp0
Vd02h6ff
p1
I1
sVdb2a108
p2
I1
s.(dp0
Vdbhrboh
p1
I1
sVd02h6ff
p2
I1
s.(dp0
Vd02h6ff
p1
I1
sVdf9vuw8
p2
I1
s.(dp0
Vd02h6ff
p1
I1
sVdf9vuw8
p2
I1
s.(dp0
Vd02h6ff
p1
I1
sVdhggpiv
p2
I1
s.(dp0
Vd02h6ff
p1
I1
sVdilq2jv
p2
I1
s.