(dp0
Vcyi3u4r
p1
I1
s.(dp0
Vcyidhp6
p1
I1
sVcyi3u4r
p2
I1
s.(dp0
Vcyiekhe
p1
I1
sVcyi3u4r
p2
I1
s.(dp0
Vcyiekhe
p1
I1
sVcyi3u4r
p2
I1
s.(dp0
Vcyi3u4r
p1
I1
sVcyim7pd
p2
I1
s.(dp0
Vcyi3u4r
p1
I1
sVcyim7pd
p2
I1
s.(dp0
Vcyi3u4r
p1
I1
sVcyim7pd
p2
I1
s.(dp0
Vcyi3u4r
p1
I1
sVcyim7pd
p2
I1
s.(dp0
Vcyjpg82
p1
I1
sVcyi3u4r
p2
I1
s.(dp0
Vcyjw965
p1
I1
sVcyi3u4r
p2
I1
s.(dp0
Vcyi3u4r
p1
I1
sVcykv986
p2
I1
s.(dp0
Vcyptzcv
p1
I1
sVcyi3u4r
p2
I1
s.(dp0
Vcyv5dvp
p1
I1
sVcyi3u4r
p2
I1
s.(dp0
Vcyi3u4r
p1
I1
sVcywuprt
p2
I1
s.(dp0
Vcyxdux6
p1
I1
sVcyi3u4r
p2
I1
s.(dp0
Vcyz9t6i
p1
I1
sVcyi3u4r
p2
I1
s.(dp0
Vcz02tx0
p1
I1
sVcyi3u4r
p2
I1
s.(dp0
Vcyi3u4r
p1
I1
sVcz4asba
p2
I1
s.(dp0
Vcz9dc0a
p1
I1
sVcyi3u4r
p2
I1
s.(dp0
Vcziamcp
p1
I1
sVcyi3u4r
p2
I1
s.(dp0
Vcyi3u4r
p1
I1
sVczoutek
p2
I1
s.(dp0
Vcyi3u4r
p1
I1
sVczoxg0c
p2
I1
s.(dp0
Vcyi3u4r
p1
I1
sVczpas8e
p2
I1
s.(dp0
Vczpuvu0
p1
I1
sVcyi3u4r
p2
I1
s.(dp0
Vczqpt3v
p1
I1
sVcyi3u4r
p2
I1
s.(dp0
Vcyi3u4r
p1
I1
sVczrex4q
p2
I1
s.(dp0
Vd0737v4
p1
I1
sVcyi3u4r
p2
I1
s.(dp0
Vcyi3u4r
p1
I1
sVd08kqvn
p2
I1
s.(dp0
Vd0avbf1
p1
I1
sVcyi3u4r
p2
I1
s.(dp0
Vcyi3u4r
p1
I1
sVd0d06tp
p2
I1
s.(dp0
Vd0juz9j
p1
I1
sVcyi3u4r
p2
I1
s.(dp0
Vcyi3u4r
p1
I1
sVd0pepz0
p2
I1
s.(dp0
Vd0spbb4
p1
I1
sVcyi3u4r
p2
I1
s.(dp0
Vd11jxe4
p1
I1
sVcyi3u4r
p2
I1
s.(dp0
Vd12wcsq
p1
I1
sVcyi3u4r
p2
I1
s.(dp0
Vd19nl8m
p1
I1
sVcyi3u4r
p2
I1
s.(dp0
Vcyi3u4r
p1
I1
sVd1aljai
p2
I1
s.(dp0
Vcyi3u4r
p1
I1
sVd1e8kp8
p2
I1
s.(dp0
Vd1fdsgr
p1
I1
sVcyi3u4r
p2
I1
s.(dp0
Vcyi3u4r
p1
I1
sVd1gi2h9
p2
I1
s.(dp0
Vd1gi322
p1
I1
sVcyi3u4r
p2
I1
s.(dp0
Vd1gi322
p1
I1
sVcyi3u4r
p2
I1
s.(dp0
Vcyi3u4r
p1
I1
sVd1ilf4q
p2
I1
s.(dp0
Vcyi3u4r
p1
I1
sVd1lojr7
p2
I1
s.(dp0
Vd1zcjif
p1
I1
sVcyi3u4r
p2
I1
s.(dp0
Vd2i8qvc
p1
I1
sVcyi3u4r
p2
I1
s.(dp0
Vd2y93at
p1
I1
sVcyi3u4r
p2
I1
s.(dp0
Vcyi3u4r
p1
I1
sVd30uxzb
p2
I1
s.(dp0
Vcyi3u4r
p1
I1
sVd37kgrw
p2
I1
s.(dp0
Vcyi3u4r
p1
I1
sVd37m360
p2
I1
s.(dp0
Vcyi3u4r
p1
I1
sVd39umeu
p2
I1
s.(dp0
Vcyi3u4r
p1
I1
sVd39umeu
p2
I1
s.(dp0
Vcyi3u4r
p1
I1
sVd39umeu
p2
I1
s.(dp0
Vd3cmrzy
p1
I1
sVcyi3u4r
p2
I1
s.(dp0
Vd3hapn3
p1
I1
sVcyi3u4r
p2
I1
s.(dp0
Vcyi3u4r
p1
I1
sVd3hfimq
p2
I1
s.(dp0
Vd3jbg0n
p1
I1
sVcyi3u4r
p2
I1
s.(dp0
Vcyi3u4r
p1
I1
sVd3ntaaq
p2
I1
s.(dp0
Vd3u6a2v
p1
I1
sVcyi3u4r
p2
I1
s.(dp0
Vcyi3u4r
p1
I1
sVd42mq09
p2
I1
s.(dp0
Vcyi3u4r
p1
I1
sVd4eild8
p2
I1
s.(dp0
Vcyi3u4r
p1
I1
sVd4fu3mw
p2
I1
s.(dp0
Vd4pf46k
p1
I1
sVcyi3u4r
p2
I1
s.(dp0
Vcyi3u4r
p1
I1
sVd5jv2uo
p2
I1
s.(dp0
Vd5ka7al
p1
I1
sVcyi3u4r
p2
I1
s.(dp0
Vcyi3u4r
p1
I1
sVd5lo4fi
p2
I1
s.(dp0
Vcyi3u4r
p1
I1
sVd5lo4fi
p2
I1
s.(dp0
Vcyi3u4r
p1
I1
sVd5mxntl
p2
I1
s.(dp0
Vd63g79q
p1
I1
sVcyi3u4r
p2
I1
s.(dp0
Vd64amad
p1
I1
sVcyi3u4r
p2
I1
s.(dp0
Vd651vh8
p1
I1
sVcyi3u4r
p2
I1
s.(dp0
Vd651vh8
p1
I1
sVcyi3u4r
p2
I1
s.(dp0
Vd6p5fvi
p1
I1
sVcyi3u4r
p2
I1
s.(dp0
Vd6phklt
p1
I1
sVcyi3u4r
p2
I1
s.(dp0
Vcyi3u4r
p1
I1
sVd6zlxjv
p2
I1
s.(dp0
Vd72l5iy
p1
I1
sVcyi3u4r
p2
I1
s.(dp0
Vd72l5iy
p1
I1
sVcyi3u4r
p2
I1
s.(dp0
Vd72l5iy
p1
I1
sVcyi3u4r
p2
I1
s.(dp0
Vd72l5iy
p1
I1
sVcyi3u4r
p2
I1
s.(dp0
Vd72l5iy
p1
I1
sVcyi3u4r
p2
I1
s.(dp0
Vd72l5iy
p1
I1
sVcyi3u4r
p2
I1
s.(dp0
Vcyi3u4r
p1
I1
sVd78rj2r
p2
I1
s.(dp0
Vd7m0448
p1
I1
sVcyi3u4r
p2
I1
s.(dp0
Vd7m0448
p1
I1
sVcyi3u4r
p2
I1
s.(dp0
Vcyi3u4r
p1
I1
sVd7p0bj1
p2
I1
s.(dp0
Vcyi3u4r
p1
I1
sVd7p0bj1
p2
I1
s.(dp0
Vcyi3u4r
p1
I1
sVd7p0bj1
p2
I1
s.(dp0
Vd7pn3s1
p1
I1
sVcyi3u4r
p2
I1
s.(dp0
Vd7xr1ii
p1
I1
sVcyi3u4r
p2
I1
s.(dp0
Vcyi3u4r
p1
I1
sVd80u5ou
p2
I1
s.(dp0
Vcyi3u4r
p1
I1
sVd80u5ou
p2
I1
s.(dp0
Vcyi3u4r
p1
I1
sVd80u5ou
p2
I1
s.(dp0
Vcyi3u4r
p1
I1
sVd80u5ou
p2
I1
s.(dp0
Vd88jl8j
p1
I1
sVcyi3u4r
p2
I1
s.(dp0
Vd8djkkb
p1
I1
sVcyi3u4r
p2
I1
s.(dp0
Vd8grqr9
p1
I1
sVcyi3u4r
p2
I1
s.(dp0
Vd8u0bp0
p1
I1
sVcyi3u4r
p2
I1
s.(dp0
Vcyi3u4r
p1
I1
sVd8u8vgl
p2
I1
s.(dp0
Vcyi3u4r
p1
I1
sVd8y9fcd
p2
I1
s.(dp0
Vd9dmij2
p1
I1
sVcyi3u4r
p2
I1
s.(dp0
Vd9dzkl3
p1
I1
sVcyi3u4r
p2
I1
s.(dp0
Vd9dzkl3
p1
I1
sVcyi3u4r
p2
I1
s.(dp0
Vd9dzkl3
p1
I1
sVcyi3u4r
p2
I1
s.(dp0
Vd9x15ww
p1
I1
sVcyi3u4r
p2
I1
s.(dp0
Vcyi3u4r
p1
I1
sVd9z950g
p2
I1
s.(dp0
Vcyi3u4r
p1
I1
sVda57z0i
p2
I1
s.(dp0
Vda71pnx
p1
I1
sVcyi3u4r
p2
I1
s.(dp0
Vda8hxbi
p1
I1
sVcyi3u4r
p2
I1
s.(dp0
Vda(dp0
Vdkxtgqw
p1
I1
sVcyi3u4r
p2
I1
s.