(dp0
Vd2503nx
p1
I1
s.(dp0
Vd4fnw3i
p1
I1
sVd2503nx
p2
I1
s.(dp0
Vd2503nx
p1
I1
sVd5bhoh5
p2
I1
s.(dp0
Vd2503nx
p1
I1
sVd8arsqg
p2
I1
s.(dp0
Vd2503nx
p1
I1
sVd8b8qts
p2
I1
s.(dp0
Vd2503nx
p1
I1
sVd8omkz9
p2
I1
s.(dp0
Vd2503nx
p1
I1
sVd8v0hmx
p2
I1
s.(dp0
Vd2503nx
p1
I1
sVda439o5
p2
I1
s.(dp0
Vd2503nx
p1
I1
sVda865zj
p2
I1
s.(dp0
Vd2503nx
p1
I1
sVdaasjmc
p2
I1
s.(dp0
Vdarezud
p1
I1
sVd2503nx
p2
I1
s.(dp0
Vd2503nx
p1
I1
sVdc3n8iv
p2
I1
s.(dp0
Vd2503nx
p1
I1
sVdc3n8iv
p2
I1
s.(dp0
Vd2503nx
p1
I1
sVddjar6t
p2
I1
s.(dp0
Vd2503nx
p1
I1
sVde57epx
p2
I1
s.(dp0
Vd2503nx
p1
I1
sVdewnim8
p2
I1
s.(dp0
Vd2503nx
p1
I1
sVdfoufjc
p2
I1
s.(dp0
Vdfs92tc
p1
I1
sVd2503nx
p2
I1
s.(dp0
Vd2503nx
p1
I1
sVdgauvid
p2
I1
s.(dp0
Vd2503nx
p1
I1
sVdhm6dww
p2
I1
s.(dp0
Vdhnhsaq
p1
I1
sVd2503nx
p2
I1
s.(dp0
Vd2503nx
p1
I1
sVdhsqhcg
p2
I1
s.