(dp0
Vcynnze2
p1
I1
s.(dp0
Vcynnze2
p1
I1
sVcz33pfg
p2
I1
s.(dp0
Vcynnze2
p1
I1
sVd00sd2v
p2
I1
s.(dp0
Vcynnze2
p1
I1
sVd0tjpbq
p2
I1
s.(dp0
Vcynnze2
p1
I1
sVd0tskgb
p2
I1
s.(dp0
Vcynnze2
p1
I1
sVd0z9puc
p2
I1
s.(dp0
Vcynnze2
p1
I1
sVd1gp3oy
p2
I1
s.(dp0
Vcynnze2
p1
I1
sVd1gp3oy
p2
I1
s.(dp0
Vcynnze2
p1
I1
sVd1gp3oy
p2
I1
s.(dp0
Vcynnze2
p1
I1
sVd1gp3oy
p2
I1
s.(dp0
Vcynnze2
p1
I1
sVd1hsnq4
p2
I1
s.(dp0
Vcynnze2
p1
I1
sVd1jhqh5
p2
I1
s.(dp0
Vcynnze2
p1
I1
sVd1jhqh5
p2
I1
s.(dp0
Vcynnze2
p1
I1
sVd1xzpwc
p2
I1
s.(dp0
Vcynnze2
p1
I1
sVd2qfhli
p2
I1
s.(dp0
Vcynnze2
p1
I1
sVd2x085c
p2
I1
s.(dp0
Vcynnze2
p1
I1
sVd3t4hsc
p2
I1
s.(dp0
Vcynnze2
p1
I1
sVd3zzybd
p2
I1
s.(dp0
Vcynnze2
p1
I1
sVd41dw36
p2
I1
s.(dp0
Vcynnze2
p1
I1
sVd4i8zrz
p2
I1
s.(dp0
Vcynnze2
p1
I1
sVd4lorrf
p2
I1
s.(dp0
Vcynnze2
p1
I1
sVd4o1js6
p2
I1
s.(dp0
Vcynnze2
p1
I1
sVd5imwlg
p2
I1
s.(dp0
Vcynnze2
p1
I1
sVd6lob9w
p2
I1
s.(dp0
Vcynnze2
p1
I1
sVd745e0h
p2
I1
s.(dp0
Vcynnze2
p1
I1
sVd7fkq34
p2
I1
s.(dp0
Vcynnze2
p1
I1
sVd7gcbz9
p2
I1
s.(dp0
Vcynnze2
p1
I1
sVd7trbe6
p2
I1
s.(dp0
Vcynnze2
p1
I1
sVd7tx8la
p2
I1
s.(dp0
Vcynnze2
p1
I1
sVd7unpco
p2
I1
s.(dp0
Vcynnze2
p1
I1
sVd7urraz
p2
I1
s.(dp0
Vcynnze2
p1
I1
sVd7z03kv
p2
I1
s.(dp0
Vcynnze2
p1
I1
sVd84hrhv
p2
I1
s.(dp0
Vcynnze2
p1
I1
sVd8hh99p
p2
I1
s.(dp0
Vcynnze2
p1
I1
sVd8utl1b
p2
I1
s.(dp0
Vcynnze2
p1
I1
sVd9670vd
p2
I1
s.(dp0
Vcynnze2
p1
I1
sVd9670vd
p2
I1
s.(dp0
Vcynnze2
p1
I1
sVd9gmhqf
p2
I1
s.(dp0
Vcynnze2
p1
I1
sVd9gmhqf
p2
I1
s.(dp0
Vcynnze2
p1
I1
sVd9ohmpp
p2
I1
s.(dp0
Vcynnze2
p1
I1
sVda6t06s
p2
I1
s.(dp0
Vcynnze2
p1
I1
sVdazncih
p2
I1
s.(dp0
Vcynnze2
p1
I1
sVdb0wkdc
p2
I1
s.(dp0
Vcynnze2
p1
I1
sVdb8x88v
p2
I1
s.(dp0
Vcynnze2
p1
I1
sVdbr1yws
p2
I1
s.(dp0
Vcynnze2
p1
I1
sVdc5powl
p2
I1
s.(dp0
Vcynnze2
p1
I1
sVdcxglx6
p2
I1
s.(dp0
Vcynnze2
p1
I1
sVdd8pgd3
p2
I1
s.(dp0
Vcynnze2
p1
I1
sVddcofxu
p2
I1
s.(dp0
Vcynnze2
p1
I1
sVde2mmjm
p2
I1
s.(dp0
Vcynnze2
p1
I1
sVdebp9qu
p2
I1
s.(dp0
Vcynnze2
p1
I1
sVdepgb9r
p2
I1
s.(dp0
Vcynnze2
p1
I1
sVdfp5mlu
p2
I1
s.(dp0
Vcynnze2
p1
I1
sVdgc3stn
p2
I1
s.(dp0
Vcynnze2
p1
I1
sVdge1z5h
p2
I1
s.(dp0
Vcynnze2
p1
I1
sVdge1z5h
p2
I1
s.(dp0
Vcynnze2
p1
I1
sVdgfgnl3
p2
I1
s.(dp0
Vcynnze2
p1
I1
sVdgvoc41
p2
I1
s.(dp0
Vcynnze2
p1
I1
sVdgvrju1
p2
I1
s.(dp0
Vcynnze2
p1
I1
sVdgwgtkw
p2
I1
s.(dp0
Vcynnze2
p1
I1
sVdgz288h
p2
I1
s.(dp0
Vcynnze2
p1
I1
sVdh4sd2e
p2
I1
s.(dp0
Vcynnze2
p1
I1
sVdhor2qz
p2
I1
s.(dp0
Vcynnze2
p1
I1
sVdhuor0l
p2
I1
s.(dp0
Vcynnze2
p1
I1
sVdhzbzd0
p2
I1
s.(dp0
Vcynnze2
p1
I1
sVdhzpjnh
p2
I1
s.(dp0
Vcynnze2
p1
I1
sVdi85w6v
p2
I1
s.(dp0
Vcynnze2
p1
I1
sVdi85w6v
p2
I1
s.(dp0
Vcynnze2
p1
I1
sVdi85w6v
p2
I1
s.(dp0
Vcynnze2
p1
I1
sVdiblu84
p2
I1
s.(dp0
Vcynnze2
p1
I1
sVdies381
p2
I1
s.(dp0
Vcynnze2
p1
I1
sVdivroq5
p2
I1
s.(dp0
Vcynnze2
p1
I1
sVdj0bkxe
p2
I1
s.(dp0
Vcynnze2
p1
I1
sVdj39wri
p2
I1
s.(dp0
Vcynnze2
p1
I1
sVdj39wri
p2
I1
s.(dp0
Vcynnze2
p1
I1
sVdjjjy0a
p2
I1
s.(dp0
Vcynnze2
p1
I1
sVdjthwaw
p2
I1
s.(dp0
Vcynnze2
p1
I1
sVdjw0y08
p2
I1
s.(dp0
Vcynnze2
p1
I1
sVdjxdv13
p2
I1
s.(dp0
Vcynnze2
p1
I1
sVdjyne6g
p2
I1
s.(dp0
Vcynnze2
p1
I1
sVdmh1zo5
p2
I1
s.(dp0
Vcynnze2
p1
I1
sVdmi31ty
p2
I1
s.(dp0
Vcynnze2
p1
I1
sVdnlhzvs
p2
I1
s.(dp0
Vcynnze2
p1
I1
sVdo8v4ac
p2
I1
s.(dp0
Vcynnze2
p1
I1
sVdo8v4ac
p2
I1
s.(dp0
Vcynnze2
p1
I1
sVdo8v4ac
p2
I1
s.(dp0
Vcynnze2
p1
I1
sVdofnulx
p2
I1
s.(dp0
Vcynnze2
p1
I1
sVdofvkcm
p2
I1
s.(dp0
Vcynnze2
p1
I1
sVdog9cpj
p2
I1
s.(dp0
Vcynnze2
p1
I1
sVdoouw7w
p2
I1
s.(dp0
Vcynnze2
p1
I1
sVdopot57
p2
I1
s.(dp0
Vcynnze2
p1
I1
sVdp5fq6q
p2
I1
s.