(dp0
Vcyhycoc
p1
I1
s.(dp0
Vcyhycoc
p1
I1
sVcyi18qe
p2
I1
s.(dp0
Vcyhycoc
p1
I1
sVcyi1um2
p2
I1
s.(dp0
Vcyhycoc
p1
I1
sVcyi77ql
p2
I1
s.(dp0
Vcyhycoc
p1
I1
sVcyi8vvw
p2
I1
s.(dp0
Vcyhycoc
p1
I1
sVcyi9pk6
p2
I1
s.(dp0
Vcyhycoc
p1
I1
sVcyi9vk2
p2
I1
s.(dp0
Vcyhycoc
p1
I1
sVcyicce8
p2
I1
s.(dp0
Vcyhycoc
p1
I1
sVcyihsvj
p2
I1
s.(dp0
Vcyiianv
p1
I1
sVcyhycoc
p2
I1
s.(dp0
Vcyhycoc
p1
I1
sVcyiisan
p2
I1
s.(dp0
Vcyhycoc
p1
I1
sVcyion75
p2
I1
s.(dp0
Vcyhycoc
p1
I1
sVcyix9zp
p2
I1
s.(dp0
Vcyhycoc
p1
I1
sVcyj3pjg
p2
I1
s.(dp0
Vcyhycoc
p1
I1
sVcyj7f1f
p2
I1
s.(dp0
Vcyhycoc
p1
I1
sVcyj8yln
p2
I1
s.(dp0
Vcyhycoc
p1
I1
sVcyjcwxc
p2
I1
s.(dp0
Vcyhycoc
p1
I1
sVcyjj7v6
p2
I1
s.(dp0
Vcyjradf
p1
I1
sVcyhycoc
p2
I1
s.(dp0
Vcyhycoc
p1
I1
sVcyk1i3b
p2
I1
s.(dp0
Vcyhycoc
p1
I1
sVcyk5zj5
p2
I1
s.(dp0
Vcyhycoc
p1
I1
sVcyk7s2k
p2
I1
s.(dp0
Vcyhycoc
p1
I1
sVcykj6nb
p2
I1
s.(dp0
Vcyhycoc
p1
I1
sVcyknaoo
p2
I1
s.(dp0
Vcyhycoc
p1
I1
sVcykprau
p2
I1
s.(dp0
Vcyhycoc
p1
I1
sVcykswkd
p2
I1
s.(dp0
Vcyhycoc
p1
I1
sVcyku3d0
p2
I1
s.(dp0
Vcyhycoc
p1
I1
sVcyl3261
p2
I1
s.(dp0
Vcyhycoc
p1
I1
sVcyl3261
p2
I1
s.(dp0
Vcyhycoc
p1
I1
sVcyl5wy9
p2
I1
s.(dp0
Vcyledx0
p1
I1
sVcyhycoc
p2
I1
s.(dp0
Vcyhycoc
p1
I1
sVcylfdwp
p2
I1
s.(dp0
Vcyhycoc
p1
I1
sVcylfdwp
p2
I1
s.(dp0
Vcyhycoc
p1
I1
sVcylj13x
p2
I1
s.(dp0
Vcyhycoc
p1
I1
sVcylp9ak
p2
I1
s.(dp0
Vcyhycoc
p1
I1
sVcym2qfa
p2
I1
s.(dp0
Vcyhycoc
p1
I1
sVcymucsd
p2
I1
s.(dp0
Vcyhycoc
p1
I1
sVcyn0ujy
p2
I1
s.(dp0
Vcyhycoc
p1
I1
sVcyngryg
p2
I1
s.(dp0
Vcyhycoc
p1
I1
sVcyngryg
p2
I1
s.(dp0
Vcyhycoc
p1
I1
sVcynqmdt
p2
I1
s.(dp0
Vcyhycoc
p1
I1
sVcynty5g
p2
I1
s.(dp0
Vcyhycoc
p1
I1
sVcynvdt9
p2
I1
s.(dp0
Vcyhycoc
p1
I1
sVcynvimj
p2
I1
s.(dp0
Vcyhycoc
p1
I1
sVcynwmds
p2
I1
s.(dp0
Vcyhycoc
p1
I1
sVcyocibm
p2
I1
s.(dp0
Vcyhycoc
p1
I1
sVcyogkvk
p2
I1
s.(dp0
Vcyhycoc
p1
I1
sVcyojnxi
p2
I1
s.(dp0
Vcyop4m3
p1
I1
sVcyhycoc
p2
I1
s.(dp0
Vcyhycoc
p1
I1
sVcyow7ea
p2
I1
s.(dp0
Vcyoy1pz
p1
I1
sVcyhycoc
p2
I1
s.(dp0
Vcyhycoc
p1
I1
sVcyozymb
p2
I1
s.(dp0
Vcyhycoc
p1
I1
sVcyozymb
p2
I1
s.(dp0
Vcyhycoc
p1
I1
sVcyozzhz
p2
I1
s.(dp0
Vcyhycoc
p1
I1
sVcyp1qbt
p2
I1
s.(dp0
Vcyhycoc
p1
I1
sVcyp25ui
p2
I1
s.(dp0
Vcyhycoc
p1
I1
sVcyp38r8
p2
I1
s.(dp0
Vcyhycoc
p1
I1
sVcyp3v0r
p2
I1
s.(dp0
Vcyhycoc
p1
I1
sVcyp5bo6
p2
I1
s.(dp0
Vcyhycoc
p1
I1
sVcyp5evs
p2
I1
s.(dp0
Vcyp78mi
p1
I1
sVcyhycoc
p2
I1
s.(dp0
Vcyhycoc
p1
I1
sVcypbkk2
p2
I1
s.(dp0
Vcyhycoc
p1
I1
sVcypg4tm
p2
I1
s.(dp0
Vcyq264n
p1
I1
sVcyhycoc
p2
I1
s.(dp0
Vcyhycoc
p1
I1
sVcyq2dh2
p2
I1
s.(dp0
Vcyhycoc
p1
I1
sVcyqou4m
p2
I1
s.(dp0
Vcyhycoc
p1
I1
sVcyqtjs6
p2
I1
s.(dp0
Vcyhycoc
p1
I1
sVcyqxydm
p2
I1
s.(dp0
Vcyr9cpa
p1
I1
sVcyhycoc
p2
I1
s.(dp0
Vcyhycoc
p1
I1
sVcyrbmsm
p2
I1
s.(dp0
Vcyhycoc
p1
I1
sVcyrf4ir
p2
I1
s.(dp0
Vcyhycoc
p1
I1
sVcyrtpuo
p2
I1
s.(dp0
Vcyhycoc
p1
I1
sVcys2fht
p2
I1
s.(dp0
Vcyhycoc
p1
I1
sVcys7z6v
p2
I1
s.(dp0
Vcyhycoc
p1
I1
sVcysfccc
p2
I1
s.(dp0
Vcyhycoc
p1
I1
sVcysidl5
p2
I1
s.(dp0
Vcyhycoc
p1
I1
sVcyskute
p2
I1
s.(dp0
Vcyhycoc
p1
I1
sVcyspij9
p2
I1
s.(dp0
Vcyhycoc
p1
I1
sVcysyb22
p2
I1
s.(dp0
Vcysyg8h
p1
I1
sVcyhycoc
p2
I1
s.(dp0
Vcyhycoc
p1
I1
sVcyszqga
p2
I1
s.(dp0
Vcyhycoc
p1
I1
sVcyt7wms
p2
I1
s.(dp0
Vcyhycoc
p1
I1
sVcytkbjx
p2
I1
s.(dp0
Vcyhycoc
p1
I1
sVcytq599
p2
I1
s.(dp0
Vcyhycoc
p1
I1
sVcytsyv7
p2
I1
s.(dp0
Vcyhycoc
p1
I1
sVcytwlh0
p2
I1
s.(dp0
Vcyhycoc
p1
I1
sVcytxda7
p2
I1
s.(dp0
Vcyhycoc
p1
I1
sVcyty3jd
p2
I1
s.(dp0
Vcyhycoc
p1
I1
sVcyu0dxb
p2
I1
s.(dp0
Vcyhycoc
p1
I1
sVcyu4fzc
p2
I1
s.(dp0
Vcyhycoc
p1
I1
sVcyu8bxw
p2
I1
s.(dp0
Vcyhycoc
p1
I1
sVcyub0pj
p2
I1
s.(dp0
Vcyhycoc
p1
I1
sVcyuf4b5
p2
I1
s.(dp0
Vcyhycoc
p1
I1
sVcyumrrb
p2
I1
s.(dp0
Vcyhycoc
p1
I1
sVcyun3jo
p2
I1
s.(dp0
Vcyhycoc
p1
I1
sVcyuomtk
p2
I1
s.(dp0
Vcyhycoc
p1
I1
sVcyutq4d
p2
I1
s.(dp0
Vcyhycoc
p1
I1
sVcyuzcrf
p2
I1
s.(dp0
Vcyv58q5
p1
I1
sVcyhycoc
p2
I1
s.(dp0
Vcyhycoc
p1
I1
sVcyv5cz6
p2
I1
s.(dp0
Vcyhycoc
p1
I1
sVcyva6pb
p2
I1
s.(dp0
Vcyhycoc
p1
I1
sVcyva6pb
p2
I1
s.(dp0
Vcyhycoc
p1
I1
sVcyvdnza
p2
I1
s.(dp0
Vcyhycoc
p1
I1
sVcyvihoa
p2
I1
s.(dp0
Vcyhycoc
p1
I1
sVcyvlgiq
p2
I1
s.(dp0
Vcyhycoc
p1
I1
sVcyvoc5w
p2
I1
s.(dp0
Vcyhycoc
p1
I1
sVcyvop9e
p2
I1
s.(dp0
Vcyhycoc
p1
I1
sVcyvr00t
p2
I1
s.(dp0
Vcy(dp0
Vcyhycoc
p1
I1
sVdkzmh1p
p2
I1
s.