(dp0
Vd0ffncq
p1
I1
s.(dp0
Vdc8sp6k
p1
I1
sVd0ffncq
p2
I1
s.(dp0
Vdff1dab
p1
I1
sVd0ffncq
p2
I1
s.(dp0
Vdijqt36
p1
I1
sVd0ffncq
p2
I1
s.(dp0
Vd0ffncq
p1
I1
sVdob2e1w
p2
I1
s.(dp0
Vdoboluq
p1
I1
sVd0ffncq
p2
I1
s.