(dp0
Vcyi4sd0
p1
I1
s.(dp0
Vcyicqem
p1
I1
sVcyi4sd0
p2
I1
s.(dp0
Vcyi4sd0
p1
I1
sVcyj9nhi
p2
I1
s.(dp0
Vcykwu26
p1
I1
sVcyi4sd0
p2
I1
s.(dp0
Vcyl5tp2
p1
I1
sVcyi4sd0
p2
I1
s.(dp0
Vcyi4sd0
p1
I1
sVcyleu7u
p2
I1
s.(dp0
Vcyljbud
p1
I1
sVcyi4sd0
p2
I1
s.(dp0
Vcyljbud
p1
I1
sVcyi4sd0
p2
I1
s.(dp0
Vcym57oc
p1
I1
sVcyi4sd0
p2
I1
s.(dp0
Vcym9621
p1
I1
sVcyi4sd0
p2
I1
s.(dp0
Vcynfluc
p1
I1
sVcyi4sd0
p2
I1
s.(dp0
Vcyi4sd0
p1
I1
sVcyo9kqm
p2
I1
s.(dp0
Vcyi4sd0
p1
I1
sVcypfbow
p2
I1
s.(dp0
Vcyi4sd0
p1
I1
sVcypk55y
p2
I1
s.(dp0
Vcypp594
p1
I1
sVcyi4sd0
p2
I1
s.(dp0
Vcypqkvv
p1
I1
sVcyi4sd0
p2
I1
s.(dp0
Vcypqkvv
p1
I1
sVcyi4sd0
p2
I1
s.(dp0
Vcypqkvv
p1
I1
sVcyi4sd0
p2
I1
s.(dp0
Vcypr1hp
p1
I1
sVcyi4sd0
p2
I1
s.(dp0
Vcyprr5e
p1
I1
sVcyi4sd0
p2
I1
s.(dp0
Vcyprr5e
p1
I1
sVcyi4sd0
p2
I1
s.(dp0
Vcyi4sd0
p1
I1
sVcyq1a51
p2
I1
s.(dp0
Vcyqqagj
p1
I1
sVcyi4sd0
p2
I1
s.(dp0
Vcyqvnd9
p1
I1
sVcyi4sd0
p2
I1
s.(dp0
Vcyri8cx
p1
I1
sVcyi4sd0
p2
I1
s.(dp0
Vcysekte
p1
I1
sVcyi4sd0
p2
I1
s.(dp0
Vcysfwul
p1
I1
sVcyi4sd0
p2
I1
s.(dp0
Vcyi4sd0
p1
I1
sVcyuogwd
p2
I1
s.(dp0
Vcyv97o3
p1
I1
sVcyi4sd0
p2
I1
s.(dp0
Vcyve721
p1
I1
sVcyi4sd0
p2
I1
s.(dp0
Vcyw3tti
p1
I1
sVcyi4sd0
p2
I1
s.(dp0
Vcyi4sd0
p1
I1
sVcywal4v
p2
I1
s.(dp0
Vcyi4sd0
p1
I1
sVcywal4v
p2
I1
s.(dp0
Vcyynt7i
p1
I1
sVcyi4sd0
p2
I1
s.(dp0
Vcyi4sd0
p1
I1
sVcyyvrh4
p2
I1
s.(dp0
Vcyi4sd0
p1
I1
sVcyyvrh4
p2
I1
s.(dp0
Vcyzqqm8
p1
I1
sVcyi4sd0
p2
I1
s.(dp0
Vcz0hk0o
p1
I1
sVcyi4sd0
p2
I1
s.(dp0
Vcz0hvtv
p1
I1
sVcyi4sd0
p2
I1
s.(dp0
Vcyi4sd0
p1
I1
sVcz0wt82
p2
I1
s.(dp0
Vcz1l7xf
p1
I1
sVcyi4sd0
p2
I1
s.(dp0
Vcz1m6sl
p1
I1
sVcyi4sd0
p2
I1
s.(dp0
Vcyi4sd0
p1
I1
sVcz2mflf
p2
I1
s.(dp0
Vcz3o9vn
p1
I1
sVcyi4sd0
p2
I1
s.(dp0
Vcz3o9vn
p1
I1
sVcyi4sd0
p2
I1
s.(dp0
Vcz3o9vn
p1
I1
sVcyi4sd0
p2
I1
s.(dp0
Vcz3o9vn
p1
I1
sVcyi4sd0
p2
I1
s.(dp0
Vcz3o9vn
p1
I1
sVcyi4sd0
p2
I1
s.(dp0
Vcyi4sd0
p1
I1
sVcz4feas
p2
I1
s.(dp0
Vcyi4sd0
p1
I1
sVcz4feas
p2
I1
s.(dp0
Vcyi4sd0
p1
I1
sVcz4gn22
p2
I1
s.(dp0
Vcyi4sd0
p1
I1
sVcz5kw9t
p2
I1
s.(dp0
Vcyi4sd0
p1
I1
sVcz6hm6a
p2
I1
s.(dp0
Vcyi4sd0
p1
I1
sVcz6q62m
p2
I1
s.(dp0
Vcz6zwhy
p1
I1
sVcyi4sd0
p2
I1
s.(dp0
Vcz7dq4d
p1
I1
sVcyi4sd0
p2
I1
s.(dp0
Vcz7gek3
p1
I1
sVcyi4sd0
p2
I1
s.(dp0
Vcyi4sd0
p1
I1
sVcz7sn40
p2
I1
s.(dp0
Vcyi4sd0
p1
I1
sVcz7vr6f
p2
I1
s.(dp0
Vcz7wuem
p1
I1
sVcyi4sd0
p2
I1
s.(dp0
Vcyi4sd0
p1
I1
sVcz9nl98
p2
I1
s.(dp0
Vcyi4sd0
p1
I1
sVcz9p54k
p2
I1
s.(dp0
Vczad5w0
p1
I1
sVcyi4sd0
p2
I1
s.(dp0
Vczbp3u0
p1
I1
sVcyi4sd0
p2
I1
s.(dp0
Vcyi4sd0
p1
I1
sVczcj9wa
p2
I1
s.(dp0
Vczcq6n2
p1
I1
sVcyi4sd0
p2
I1
s.(dp0
Vcyi4sd0
p1
I1
sVczd8v0c
p2
I1
s.(dp0
Vcyi4sd0
p1
I1
sVczd8v0c
p2
I1
s.(dp0
Vczdcalj
p1
I1
sVcyi4sd0
p2
I1
s.(dp0
Vczdf1el
p1
I1
sVcyi4sd0
p2
I1
s.(dp0
Vczfcco3
p1
I1
sVcyi4sd0
p2
I1
s.(dp0
Vczflhsc
p1
I1
sVcyi4sd0
p2
I1
s.(dp0
Vczflhsc
p1
I1
sVcyi4sd0
p2
I1
s.(dp0
Vczfp7l1
p1
I1
sVcyi4sd0
p2
I1
s.(dp0
Vczg6fg7
p1
I1
sVcyi4sd0
p2
I1
s.(dp0
Vczhjrau
p1
I1
sVcyi4sd0
p2
I1
s.(dp0
Vczhwvnu
p1
I1
sVcyi4sd0
p2
I1
s.(dp0
Vczi75oy
p1
I1
sVcyi4sd0
p2
I1
s.(dp0
Vcyi4sd0
p1
I1
sVczilh9f
p2
I1
s.(dp0
Vcyi4sd0
p1
I1
sVczix30a
p2
I1
s.(dp0
Vczj1btj
p1
I1
sVcyi4sd0
p2
I1
s.(dp0
Vcyi4sd0
p1
I1
sVczj30qh
p2
I1
s.(dp0
Vczjj8g7
p1
I1
sVcyi4sd0
p2
I1
s.(dp0
Vczjw9sx
p1
I1
sVcyi4sd0
p2
I1
s.(dp0
Vczkdwpf
p1
I1
sVcyi4sd0
p2
I1
s.(dp0
Vczktnht
p1
I1
sVcyi4sd0
p2
I1
s.(dp0
Vczli133
p1
I1
sVcyi4sd0
p2
I1
s.(dp0
Vczndqpl
p1
I1
sVcyi4sd0
p2
I1
s.(dp0
Vczngp82
p1
I1
sVcyi4sd0
p2
I1
s.(dp0
Vcyi4sd0
p1
I1
sVczojo9l
p2
I1
s.(dp0
Vcyi4sd0
p1
I1
sVczomevs
p2
I1
s.(dp0
Vczomr2x
p1
I1
sVcyi4sd0
p2
I1
s.(dp0
Vczomu78
p1
I1
sVcyi4sd0
p2
I1
s.(dp0
Vczoo6oy
p1
I1
sVcyi4sd0
p2
I1
s.(dp0
Vcyi4sd0
p1
I1
sVczoq3nb
p2
I1
s.(dp0
Vcyi4sd0
p1
I1
sVczoq3nb
p2
I1
s.(dp0
Vczpqp4v
p1
I1
sVcyi4sd0
p2
I1
s.(dp0
Vczq7uzp
p1
I1
sVcyi4sd0
p2
I1
s.(dp0
Vczqcikg
p1
I1
sVcyi4sd0
p2
I1
s.(dp0
Vcyi4sd0
p1
I1
sVczshlds
p2
I1
s.(dp0
Vczt87ix
p1
I1
sVcyi4sd0
p2
I1
s.(dp0
Vcztb76u
p1
I1
sVcyi4sd0
p2
I1
s.(dp0
Vcztcbtt
p1
I1
sVcyi4sd0
p2
I1
s.(dp0
Vcztdb0v
p1
I1
sVcyi4sd0
p2
I1
s.(dp0
Vcztdb0v
p1
I1
sVcyi4sd0
p2
I1
s.(dp0
Vcztdb0v
p1
I1
sVcyi4sd0
p2
I1
s.(dp0
Vcyi4sd0
p1
I1
sVcztjr6q
p2
I1
s.(dp0
Vcyi4sd0
p1
I1
sVcztjr6q
p2
I1
s.(dp0
Vcz(dp0
Vdp4fkjl
p1
I1
sVcyi4sd0
p2
I1
s.