(dp0
Vcymmmgk
p1
I1
s.(dp0
Vcymnnr9
p1
I1
sVcymmmgk
p2
I1
s.(dp0
Vcymnsuj
p1
I1
sVcymmmgk
p2
I1
s.(dp0
Vcyu4p1w
p1
I1
sVcymmmgk
p2
I1
s.(dp0
Vcyu4p1w
p1
I1
sVcymmmgk
p2
I1
s.(dp0
Vcyxisg6
p1
I1
sVcymmmgk
p2
I1
s.(dp0
Vcyxisg6
p1
I1
sVcymmmgk
p2
I1
s.(dp0
Vcyztext
p1
I1
sVcymmmgk
p2
I1
s.(dp0
Vcz3d9yi
p1
I1
sVcymmmgk
p2
I1
s.(dp0
Vcymmmgk
p1
I1
sVczesdtu
p2
I1
s.(dp0
Vcymmmgk
p1
I1
sVczyak4t
p2
I1
s.(dp0
Vcymmmgk
p1
I1
sVd07xtwn
p2
I1
s.(dp0
Vd0uy3n5
p1
I1
sVcymmmgk
p2
I1
s.(dp0
Vd1z3fe5
p1
I1
sVcymmmgk
p2
I1
s.(dp0
Vd1z3fe5
p1
I1
sVcymmmgk
p2
I1
s.(dp0
Vd36u6iq
p1
I1
sVcymmmgk
p2
I1
s.(dp0
Vcymmmgk
p1
I1
sVd3g9qlh
p2
I1
s.(dp0
Vd3guvjk
p1
I1
sVcymmmgk
p2
I1
s.(dp0
Vd3guvjk
p1
I1
sVcymmmgk
p2
I1
s.(dp0
Vcymmmgk
p1
I1
sVd4wvsxz
p2
I1
s.(dp0
Vd6bnneh
p1
I1
sVcymmmgk
p2
I1
s.(dp0
Vd6bnneh
p1
I1
sVcymmmgk
p2
I1
s.(dp0
Vd70wwtz
p1
I1
sVcymmmgk
p2
I1
s.(dp0
Vd7fwxm3
p1
I1
sVcymmmgk
p2
I1
s.(dp0
Vd7fwxm3
p1
I1
sVcymmmgk
p2
I1
s.(dp0
Vd7fwxm3
p1
I1
sVcymmmgk
p2
I1
s.(dp0
Vd82xk7u
p1
I1
sVcymmmgk
p2
I1
s.(dp0
Vd8av15u
p1
I1
sVcymmmgk
p2
I1
s.(dp0
Vd8nxfp2
p1
I1
sVcymmmgk
p2
I1
s.(dp0
Vcymmmgk
p1
I1
sVd8yt4ly
p2
I1
s.(dp0
Vda6gww5
p1
I1
sVcymmmgk
p2
I1
s.(dp0
Vdbiiywq
p1
I1
sVcymmmgk
p2
I1
s.(dp0
Vcymmmgk
p1
I1
sVdblp9m0
p2
I1
s.(dp0
Vdd20q96
p1
I1
sVcymmmgk
p2
I1
s.(dp0
Vdds6tsf
p1
I1
sVcymmmgk
p2
I1
s.(dp0
Vdfde430
p1
I1
sVcymmmgk
p2
I1
s.(dp0
Vdflzyqw
p1
I1
sVcymmmgk
p2
I1
s.(dp0
Vdflzyqw
p1
I1
sVcymmmgk
p2
I1
s.(dp0
Vdflzyqw
p1
I1
sVcymmmgk
p2
I1
s.(dp0
Vdftowg2
p1
I1
sVcymmmgk
p2
I1
s.(dp0
Vdg4zpb6
p1
I1
sVcymmmgk
p2
I1
s.(dp0
Vdhruz7l
p1
I1
sVcymmmgk
p2
I1
s.(dp0
Vdhruz7l
p1
I1
sVcymmmgk
p2
I1
s.(dp0
Vdhruz7l
p1
I1
sVcymmmgk
p2
I1
s.(dp0
Vcymmmgk
p1
I1
sVdipup75
p2
I1
s.(dp0
Vdj9uev0
p1
I1
sVcymmmgk
p2
I1
s.(dp0
Vdkknzmv
p1
I1
sVcymmmgk
p2
I1
s.(dp0
Vdkkpefo
p1
I1
sVcymmmgk
p2
I1
s.