(dp0
Vcyjayna
p1
I1
s.(dp0
Vcyjayna
p1
I1
sVd28ovdb
p2
I1
s.(dp0
Vcyjayna
p1
I1
sVd2p3qs5
p2
I1
s.(dp0
Vcyjayna
p1
I1
sVd34y8l2
p2
I1
s.(dp0
Vcyjayna
p1
I1
sVd3aktrp
p2
I1
s.(dp0
Vcyjayna
p1
I1
sVd3djiaj
p2
I1
s.(dp0
Vcyjayna
p1
I1
sVd3ht3f1
p2
I1
s.(dp0
Vcyjayna
p1
I1
sVd4oe38f
p2
I1
s.(dp0
Vcyjayna
p1
I1
sVd628yey
p2
I1
s.(dp0
Vcyjayna
p1
I1
sVdf6dtct
p2
I1
s.(dp0
Vcyjayna
p1
I1
sVdgfslg3
p2
I1
s.(dp0
Vcyjayna
p1
I1
sVdhhpdsj
p2
I1
s.(dp0
Vcyjayna
p1
I1
sVdi8cqv3
p2
I1
s.(dp0
Vcyjayna
p1
I1
sVdmn3huu
p2
I1
s.