(dp0
Vcyyhj1y
p1
I1
s.(dp0
Vd02js7l
p1
I1
sVcyyhj1y
p2
I1
s.(dp0
Vd02js7l
p1
I1
sVcyyhj1y
p2
I1
s.(dp0
Vd02kd17
p1
I1
sVcyyhj1y
p2
I1
s.(dp0
Vd02pumy
p1
I1
sVcyyhj1y
p2
I1
s.(dp0
Vcyyhj1y
p1
I1
sVd4zgbhi
p2
I1
s.(dp0
Vd75b3my
p1
I1
sVcyyhj1y
p2
I1
s.(dp0
Vd848uqs
p1
I1
sVcyyhj1y
p2
I1
s.(dp0
Vdf2fsqq
p1
I1
sVcyyhj1y
p2
I1
s.(dp0
Vdgi0wqp
p1
I1
sVcyyhj1y
p2
I1
s.(dp0
Vdhz24gc
p1
I1
sVcyyhj1y
p2
I1
s.(dp0
Vdjtxrd5
p1
I1
sVcyyhj1y
p2
I1
s.