(dp0
Vcynhxdu
p1
I1
s.(dp0
Vcynhxdu
p1
I1
sVczjipu7
p2
I1
s.(dp0
Vcynhxdu
p1
I1
sVczsgp7z
p2
I1
s.(dp0
Vcynhxdu
p1
I1
sVcztslf0
p2
I1
s.(dp0
Vcynhxdu
p1
I1
sVd048byz
p2
I1
s.(dp0
Vcynhxdu
p1
I1
sVd048byz
p2
I1
s.(dp0
Vcynhxdu
p1
I1
sVd0aop1u
p2
I1
s.(dp0
Vcynhxdu
p1
I1
sVd0u19ds
p2
I1
s.(dp0
Vcynhxdu
p1
I1
sVd1edeic
p2
I1
s.(dp0
Vcynhxdu
p1
I1
sVd21rodi
p2
I1
s.(dp0
Vcynhxdu
p1
I1
sVd3x6q27
p2
I1
s.(dp0
Vcynhxdu
p1
I1
sVd3x6q27
p2
I1
s.(dp0
Vcynhxdu
p1
I1
sVd4ivd1t
p2
I1
s.(dp0
Vcynhxdu
p1
I1
sVd7bv38m
p2
I1
s.(dp0
Vcynhxdu
p1
I1
sVd7moqo9
p2
I1
s.(dp0
Vcynhxdu
p1
I1
sVd8eyuxb
p2
I1
s.(dp0
Vcynhxdu
p1
I1
sVdal017w
p2
I1
s.(dp0
Vcynhxdu
p1
I1
sVdb43119
p2
I1
s.(dp0
Vcynhxdu
p1
I1
sVdb7h2qt
p2
I1
s.(dp0
Vcynhxdu
p1
I1
sVdb7h2qt
p2
I1
s.(dp0
Vcynhxdu
p1
I1
sVdb7h2qt
p2
I1
s.(dp0
Vcynhxdu
p1
I1
sVdbffpf6
p2
I1
s.(dp0
Vcynhxdu
p1
I1
sVdbjw8ek
p2
I1
s.(dp0
Vcynhxdu
p1
I1
sVdeadeg9
p2
I1
s.(dp0
Vcynhxdu
p1
I1
sVdeah0i2
p2
I1
s.(dp0
Vcynhxdu
p1
I1
sVdei5c2t
p2
I1
s.(dp0
Vcynhxdu
p1
I1
sVdfk5979
p2
I1
s.(dp0
Vcynhxdu
p1
I1
sVdgzc837
p2
I1
s.(dp0
Vcynhxdu
p1
I1
sVdhgvtis
p2
I1
s.(dp0
Vcynhxdu
p1
I1
sVdhknzzf
p2
I1
s.(dp0
Vcynhxdu
p1
I1
sVdih848s
p2
I1
s.(dp0
Vcynhxdu
p1
I1
sVdiyn68h
p2
I1
s.