(dp0
Vd0ut9ou
p1
I1
s.(dp0
Vd0ut9ou
p1
I1
sVd7555kx
p2
I1
s.(dp0
Vd0ut9ou
p1
I1
sVd7555kx
p2
I1
s.(dp0
Vddyigv0
p1
I1
sVd0ut9ou
p2
I1
s.(dp0
Vdhkl6qo
p1
I1
sVd0ut9ou
p2
I1
s.(dp0
Vd0ut9ou
p1
I1
sVdjtf7sg
p2
I1
s.(dp0
Vd0ut9ou
p1
I1
sVdjtf7sg
p2
I1
s.