(dp0
Vcyq6ho7
p1
I1
s.(dp0
Vcyvo0hi
p1
I1
sVcyq6ho7
p2
I1
s.(dp0
Vczoxwi3
p1
I1
sVcyq6ho7
p2
I1
s.(dp0
Vczwrvyj
p1
I1
sVcyq6ho7
p2
I1
s.(dp0
Vd1pmm26
p1
I1
sVcyq6ho7
p2
I1
s.(dp0
Vd2lu80v
p1
I1
sVcyq6ho7
p2
I1
s.(dp0
Vd32udxx
p1
I1
sVcyq6ho7
p2
I1
s.(dp0
Vd3851r7
p1
I1
sVcyq6ho7
p2
I1
s.(dp0
Vd3851r7
p1
I1
sVcyq6ho7
p2
I1
s.(dp0
Vd44x3jf
p1
I1
sVcyq6ho7
p2
I1
s.(dp0
Vd4utqm5
p1
I1
sVcyq6ho7
p2
I1
s.(dp0
Vd5hoqu7
p1
I1
sVcyq6ho7
p2
I1
s.(dp0
Vd629l33
p1
I1
sVcyq6ho7
p2
I1
s.(dp0
Vd65774j
p1
I1
sVcyq6ho7
p2
I1
s.(dp0
Vd69dvry
p1
I1
sVcyq6ho7
p2
I1
s.(dp0
Vd74afyc
p1
I1
sVcyq6ho7
p2
I1
s.(dp0
Vd74sx2s
p1
I1
sVcyq6ho7
p2
I1
s.(dp0
Vd82u9lq
p1
I1
sVcyq6ho7
p2
I1
s.(dp0
Vd99pie7
p1
I1
sVcyq6ho7
p2
I1
s.(dp0
Vd99sbw5
p1
I1
sVcyq6ho7
p2
I1
s.(dp0
Vd9pb4dw
p1
I1
sVcyq6ho7
p2
I1
s.(dp0
Vdact7az
p1
I1
sVcyq6ho7
p2
I1
s.(dp0
Vcyq6ho7
p1
I1
sVdbepxts
p2
I1
s.(dp0
Vdbhr96u
p1
I1
sVcyq6ho7
p2
I1
s.(dp0
Vdbhr96u
p1
I1
sVcyq6ho7
p2
I1
s.(dp0
Vdbihx26
p1
I1
sVcyq6ho7
p2
I1
s.(dp0
Vdbtm4k5
p1
I1
sVcyq6ho7
p2
I1
s.(dp0
Vdclmvra
p1
I1
sVcyq6ho7
p2
I1
s.(dp0
Vdclmvra
p1
I1
sVcyq6ho7
p2
I1
s.(dp0
Vdclmvra
p1
I1
sVcyq6ho7
p2
I1
s.(dp0
Vdclmvra
p1
I1
sVcyq6ho7
p2
I1
s.(dp0
Vdcmgjww
p1
I1
sVcyq6ho7
p2
I1
s.(dp0
Vdcsgmli
p1
I1
sVcyq6ho7
p2
I1
s.(dp0
Vddcl42d
p1
I1
sVcyq6ho7
p2
I1
s.(dp0
Vcyq6ho7
p1
I1
sVdegvrtp
p2
I1
s.(dp0
Vcyq6ho7
p1
I1
sVdemjkji
p2
I1
s.(dp0
Vcyq6ho7
p1
I1
sVdemjkji
p2
I1
s.(dp0
Vdgaaxrd
p1
I1
sVcyq6ho7
p2
I1
s.(dp0
Vcyq6ho7
p1
I1
sVdgvsomv
p2
I1
s.(dp0
Vdhd3ys0
p1
I1
sVcyq6ho7
p2
I1
s.(dp0
Vcyq6ho7
p1
I1
sVdhke6pv
p2
I1
s.(dp0
Vdi2z6vk
p1
I1
sVcyq6ho7
p2
I1
s.(dp0
Vdj1n00w
p1
I1
sVcyq6ho7
p2
I1
s.