(dp0
Vczdx1k7
p1
I1
s.(dp0
Vd1et8m2
p1
I1
sVczdx1k7
p2
I1
s.(dp0
Vd3y8tpo
p1
I1
sVczdx1k7
p2
I1
s.(dp0
Vd73t5j2
p1
I1
sVczdx1k7
p2
I1
s.(dp0
Vczdx1k7
p1
I1
sVd805knh
p2
I1
s.(dp0
Vda1edyz
p1
I1
sVczdx1k7
p2
I1
s.(dp0
Vdfe5nk3
p1
I1
sVczdx1k7
p2
I1
s.(dp0
Vdjvjgcb
p1
I1
sVczdx1k7
p2
I1
s.(dp0
Vdk17dbj
p1
I1
sVczdx1k7
p2
I1
s.