(dp0
Vcyilfgo
p1
I1
s.(dp0
Vcyilfgo
p1
I1
sVczrc7rx
p2
I1
s.(dp0
Vd5hzvjc
p1
I1
sVcyilfgo
p2
I1
s.(dp0
Vcyilfgo
p1
I1
sVd62kger
p2
I1
s.(dp0
Vcyilfgo
p1
I1
sVd6kwfwv
p2
I1
s.(dp0
Vcyilfgo
p1
I1
sVd7y3g86
p2
I1
s.(dp0
Vcyilfgo
p1
I1
sVd8427ja
p2
I1
s.(dp0
Vcyilfgo
p1
I1
sVd9ps7u4
p2
I1
s.(dp0
Vcyilfgo
p1
I1
sVde9bt4g
p2
I1
s.(dp0
Vcyilfgo
p1
I1
sVdetlx2m
p2
I1
s.(dp0
Vdg6llpa
p1
I1
sVcyilfgo
p2
I1
s.(dp0
Vcyilfgo
p1
I1
sVdgyh56f
p2
I1
s.(dp0
Vcyilfgo
p1
I1
sVdgyh56f
p2
I1
s.(dp0
Vcyilfgo
p1
I1
sVdi2bbyw
p2
I1
s.(dp0
Vcyilfgo
p1
I1
sVdixy59n
p2
I1
s.(dp0
Vdjr5nbe
p1
I1
sVcyilfgo
p2
I1
s.(dp0
Vdmyd0gp
p1
I1
sVcyilfgo
p2
I1
s.