(dp0
Vcyhu7cm
p1
I1
s.(dp0
Vcyhu7cm
p1
I1
sVd0przis
p2
I1
s.(dp0
Vcyhu7cm
p1
I1
sVd0wf7ao
p2
I1
s.(dp0
Vcyhu7cm
p1
I1
sVd3lg2vd
p2
I1
s.(dp0
Vcyhu7cm
p1
I1
sVd5slqo8
p2
I1
s.(dp0
Vcyhu7cm
p1
I1
sVd7o7lrm
p2
I1
s.(dp0
Vd8i3gs2
p1
I1
sVcyhu7cm
p2
I1
s.(dp0
Vcyhu7cm
p1
I1
sVdbuusst
p2
I1
s.(dp0
Vdj065v6
p1
I1
sVcyhu7cm
p2
I1
s.(dp0
Vcyhu7cm
p1
I1
sVdj8al0i
p2
I1
s.(dp0
Vcyhu7cm
p1
I1
sVdknbtgt
p2
I1
s.(dp0
Vcyhu7cm
p1
I1
sVdnzcujt
p2
I1
s.(dp0
Vcyhu7cm
p1
I1
sVdnzcujt
p2
I1
s.