(dp0
Vcyi47hj
p1
I1
s.(dp0
Vcyldthq
p1
I1
sVcyi47hj
p2
I1
s.(dp0
Vcyv7nw4
p1
I1
sVcyi47hj
p2
I1
s.(dp0
Vcyx5qkm
p1
I1
sVcyi47hj
p2
I1
s.(dp0
Vcz359c0
p1
I1
sVcyi47hj
p2
I1
s.(dp0
Vcz5amgm
p1
I1
sVcyi47hj
p2
I1
s.(dp0
Vcz8u3cr
p1
I1
sVcyi47hj
p2
I1
s.(dp0
Vd0912zs
p1
I1
sVcyi47hj
p2
I1
s.(dp0
Vd0gh2on
p1
I1
sVcyi47hj
p2
I1
s.(dp0
Vd0u8xsx
p1
I1
sVcyi47hj
p2
I1
s.(dp0
Vd0vav22
p1
I1
sVcyi47hj
p2
I1
s.(dp0
Vd19kod8
p1
I1
sVcyi47hj
p2
I1
s.(dp0
Vd1h6cp9
p1
I1
sVcyi47hj
p2
I1
s.(dp0
Vd1jpplb
p1
I1
sVcyi47hj
p2
I1
s.(dp0
Vd1kuorn
p1
I1
sVcyi47hj
p2
I1
s.(dp0
Vd1tdsjw
p1
I1
sVcyi47hj
p2
I1
s.(dp0
Vd2flk52
p1
I1
sVcyi47hj
p2
I1
s.(dp0
Vd2hmsj5
p1
I1
sVcyi47hj
p2
I1
s.(dp0
Vd2qewvu
p1
I1
sVcyi47hj
p2
I1
s.(dp0
Vd2uvre7
p1
I1
sVcyi47hj
p2
I1
s.(dp0
Vd476cmo
p1
I1
sVcyi47hj
p2
I1
s.(dp0
Vd48ilgi
p1
I1
sVcyi47hj
p2
I1
s.(dp0
Vd4m9jdq
p1
I1
sVcyi47hj
p2
I1
s.(dp0
Vd4zc4nm
p1
I1
sVcyi47hj
p2
I1
s.(dp0
Vd5ho5ws
p1
I1
sVcyi47hj
p2
I1
s.(dp0
Vd5hvvsn
p1
I1
sVcyi47hj
p2
I1
s.(dp0
Vd5xjalw
p1
I1
sVcyi47hj
p2
I1
s.(dp0
Vd6e8bgt
p1
I1
sVcyi47hj
p2
I1
s.(dp0
Vd6ohmko
p1
I1
sVcyi47hj
p2
I1
s.(dp0
Vd7pomxb
p1
I1
sVcyi47hj
p2
I1
s.(dp0
Vd7rf3xx
p1
I1
sVcyi47hj
p2
I1
s.(dp0
Vd89uuz3
p1
I1
sVcyi47hj
p2
I1
s.(dp0
Vd8eret5
p1
I1
sVcyi47hj
p2
I1
s.(dp0
Vd8whscs
p1
I1
sVcyi47hj
p2
I1
s.(dp0
Vd9fuq6q
p1
I1
sVcyi47hj
p2
I1
s.(dp0
Vd9hjcta
p1
I1
sVcyi47hj
p2
I1
s.(dp0
Vdaesv2n
p1
I1
sVcyi47hj
p2
I1
s.(dp0
Vdalppbl
p1
I1
sVcyi47hj
p2
I1
s.(dp0
Vdb21lu9
p1
I1
sVcyi47hj
p2
I1
s.(dp0
Vdb51uwo
p1
I1
sVcyi47hj
p2
I1
s.(dp0
Vdbb32hl
p1
I1
sVcyi47hj
p2
I1
s.(dp0
Vdcdeypw
p1
I1
sVcyi47hj
p2
I1
s.(dp0
Vdd4yh6b
p1
I1
sVcyi47hj
p2
I1
s.(dp0
Vddbpgde
p1
I1
sVcyi47hj
p2
I1
s.(dp0
Vddd9q4e
p1
I1
sVcyi47hj
p2
I1
s.(dp0
Vde3utbl
p1
I1
sVcyi47hj
p2
I1
s.(dp0
Vdekh4im
p1
I1
sVcyi47hj
p2
I1
s.(dp0
Vdexi3s7
p1
I1
sVcyi47hj
p2
I1
s.(dp0
Vdf5clwt
p1
I1
sVcyi47hj
p2
I1
s.(dp0
Vdf7x0ye
p1
I1
sVcyi47hj
p2
I1
s.(dp0
Vdfg0bo6
p1
I1
sVcyi47hj
p2
I1
s.(dp0
Vdfoxthl
p1
I1
sVcyi47hj
p2
I1
s.(dp0
Vdfpov0m
p1
I1
sVcyi47hj
p2
I1
s.(dp0
Vdfqpcj0
p1
I1
sVcyi47hj
p2
I1
s.(dp0
Vdfz9i21
p1
I1
sVcyi47hj
p2
I1
s.(dp0
Vdg79n0q
p1
I1
sVcyi47hj
p2
I1
s.(dp0
Vdg8j12b
p1
I1
sVcyi47hj
p2
I1
s.(dp0
Vdgiql91
p1
I1
sVcyi47hj
p2
I1
s.(dp0
Vdgzoy8x
p1
I1
sVcyi47hj
p2
I1
s.(dp0
Vdh71mjh
p1
I1
sVcyi47hj
p2
I1
s.(dp0
Vdhtqq78
p1
I1
sVcyi47hj
p2
I1
s.(dp0
Vdhx9xfu
p1
I1
sVcyi47hj
p2
I1
s.(dp0
Vdhzd9mc
p1
I1
sVcyi47hj
p2
I1
s.(dp0
Vdidrpbp
p1
I1
sVcyi47hj
p2
I1
s.(dp0
Vdiuxolj
p1
I1
sVcyi47hj
p2
I1
s.(dp0
Vdivtf0z
p1
I1
sVcyi47hj
p2
I1
s.(dp0
Vdizjj3o
p1
I1
sVcyi47hj
p2
I1
s.(dp0
Vdjfzra5
p1
I1
sVcyi47hj
p2
I1
s.(dp0
Vdjohmb4
p1
I1
sVcyi47hj
p2
I1
s.(dp0
Vdk1drqb
p1
I1
sVcyi47hj
p2
I1
s.(dp0
Vdk47cpj
p1
I1
sVcyi47hj
p2
I1
s.