(dp0
Vcyomo2h
p1
I1
s.(dp0
Vcyomo2h
p1
I2
s.(dp0
Vcyomo2h
p1
I1
sVcyvdyrr
p2
I1
s.(dp0
Vcyomo2h
p1
I1
sVczolev9
p2
I1
s.(dp0
Vcyomo2h
p1
I1
sVczolev9
p2
I1
s.(dp0
Vcyomo2h
p1
I1
sVczp836d
p2
I1
s.(dp0
Vcyomo2h
p1
I1
sVd2bl07m
p2
I1
s.(dp0
Vcyomo2h
p1
I1
sVd2jtjye
p2
I1
s.(dp0
Vcyomo2h
p1
I1
sVd42dy4o
p2
I1
s.(dp0
Vcyomo2h
p1
I1
sVd42dy4o
p2
I1
s.(dp0
Vcyomo2h
p1
I1
sVd42dy4o
p2
I1
s.(dp0
Vcyomo2h
p1
I1
sVd42dy4o
p2
I1
s.(dp0
Vcyomo2h
p1
I1
sVd42dy4o
p2
I1
s.(dp0
Vcyomo2h
p1
I1
sVd42dy4o
p2
I1
s.(dp0
Vcyomo2h
p1
I1
sVd4lmdly
p2
I1
s.(dp0
Vcyomo2h
p1
I1
sVdbbwqye
p2
I1
s.(dp0
Vcyomo2h
p1
I1
sVdgxe4dg
p2
I1
s.(dp0
Vcyomo2h
p1
I1
sVdi8o96t
p2
I1
s.(dp0
Vcyomo2h
p1
I1
sVdk685hz
p2
I1
s.(dp0
Vcyomo2h
p1
I1
sVdorkcdc
p2
I1
s.