(dp0
Vcz8tum8
p1
I1
s.(dp0
Vcz8tum8
p1
I1
sVczi9yru
p2
I1
s.(dp0
Vcz8tum8
p1
I1
sVd1e090o
p2
I1
s.(dp0
Vcz8tum8
p1
I1
sVd1fn39m
p2
I1
s.(dp0
Vcz8tum8
p1
I1
sVd39aggc
p2
I1
s.(dp0
Vcz8tum8
p1
I1
sVd4zs4t8
p2
I1
s.(dp0
Vcz8tum8
p1
I1
sVd7wxsme
p2
I1
s.(dp0
Vcz8tum8
p1
I1
sVd803i5o
p2
I1
s.(dp0
Vcz8tum8
p1
I1
sVd8iq00p
p2
I1
s.(dp0
Vcz8tum8
p1
I1
sVd9txh5d
p2
I1
s.(dp0
Vcz8tum8
p1
I1
sVdb48m6i
p2
I1
s.(dp0
Vcz8tum8
p1
I1
sVdc5k215
p2
I1
s.(dp0
Vcz8tum8
p1
I1
sVdco3wio
p2
I1
s.(dp0
Vcz8tum8
p1
I1
sVdeoumrv
p2
I1
s.(dp0
Vcz8tum8
p1
I1
sVdeoumrv
p2
I1
s.(dp0
Vcz8tum8
p1
I1
sVdeoumrv
p2
I1
s.(dp0
Vcz8tum8
p1
I1
sVdeoumrv
p2
I1
s.(dp0
Vcz8tum8
p1
I1
sVdeoumrv
p2
I1
s.(dp0
Vcz8tum8
p1
I1
sVdflfwzh
p2
I1
s.(dp0
Vcz8tum8
p1
I1
sVdh68e0k
p2
I1
s.(dp0
Vcz8tum8
p1
I1
sVdkhoza8
p2
I1
s.