(dp0
Vcywzrdy
p1
I1
s.(dp0
Vd0cio22
p1
I1
sVcywzrdy
p2
I1
s.(dp0
Vd0dfos7
p1
I1
sVcywzrdy
p2
I1
s.(dp0
Vcywzrdy
p1
I1
sVd2wwi08
p2
I1
s.(dp0
Vd3d4iov
p1
I1
sVcywzrdy
p2
I1
s.(dp0
Vd5zgg5g
p1
I1
sVcywzrdy
p2
I1
s.(dp0
Vd929vkp
p1
I1
sVcywzrdy
p2
I1
s.(dp0
Vcywzrdy
p1
I1
sVdfkj7s9
p2
I1
s.(dp0
Vdium50r
p1
I1
sVcywzrdy
p2
I1
s.(dp0
Vdjtzlt3
p1
I1
sVcywzrdy
p2
I1
s.(dp0
Vcywzrdy
p1
I1
sVdk8jd2k
p2
I1
s.(dp0
Vdn296d9
p1
I1
sVcywzrdy
p2
I1
s.