(dp0
Vcyu0d8c
p1
I1
s.(dp0
Vcyu0d8c
p1
I1
sVcyu4y1i
p2
I1
s.(dp0
Vcyu0d8c
p1
I1
sVcyu5qid
p2
I1
s.(dp0
Vcyu0d8c
p1
I1
sVcyu8g6h
p2
I1
s.(dp0
Vcyu0d8c
p1
I1
sVcyurhlk
p2
I1
s.(dp0
Vcyu0d8c
p1
I1
sVcyurmaw
p2
I1
s.(dp0
Vcyv2mlv
p1
I1
sVcyu0d8c
p2
I1
s.(dp0
Vcyv2wpd
p1
I1
sVcyu0d8c
p2
I1
s.(dp0
Vcyv2wpd
p1
I1
sVcyu0d8c
p2
I1
s.(dp0
Vcyu0d8c
p1
I1
sVcyw83in
p2
I1
s.(dp0
Vcywk023
p1
I1
sVcyu0d8c
p2
I1
s.(dp0
Vcywk023
p1
I1
sVcyu0d8c
p2
I1
s.(dp0
Vcywqoez
p1
I1
sVcyu0d8c
p2
I1
s.(dp0
Vcyu0d8c
p1
I1
sVcz2gbjw
p2
I1
s.(dp0
Vcyu0d8c
p1
I1
sVcz2gbjw
p2
I1
s.(dp0
Vcyu0d8c
p1
I1
sVcz2gbjw
p2
I1
s.(dp0
Vcyu0d8c
p1
I1
sVcz2gbjw
p2
I1
s.(dp0
Vczeritz
p1
I1
sVcyu0d8c
p2
I1
s.(dp0
Vczf6ho8
p1
I1
sVcyu0d8c
p2
I1
s.(dp0
Vcyu0d8c
p1
I1
sVcziqiu1
p2
I1
s.(dp0
Vd0mnlzu
p1
I1
sVcyu0d8c
p2
I1
s.(dp0
Vd0ptszz
p1
I1
sVcyu0d8c
p2
I1
s.(dp0
Vcyu0d8c
p1
I1
sVd0wnqnv
p2
I1
s.(dp0
Vd1aj0re
p1
I1
sVcyu0d8c
p2
I1
s.(dp0
Vd1n56ca
p1
I1
sVcyu0d8c
p2
I1
s.(dp0
Vcyu0d8c
p1
I1
sVd21nw8p
p2
I1
s.(dp0
Vd2boauf
p1
I1
sVcyu0d8c
p2
I1
s.(dp0
Vcyu0d8c
p1
I1
sVd4hu0yv
p2
I1
s.(dp0
Vdabm7me
p1
I1
sVcyu0d8c
p2
I1
s.(dp0
Vdb3iuhx
p1
I1
sVcyu0d8c
p2
I1
s.(dp0
Vdbp3u6f
p1
I1
sVcyu0d8c
p2
I1
s.(dp0
Vdbp3u6f
p1
I1
sVcyu0d8c
p2
I1
s.(dp0
Vdbp3u6f
p1
I1
sVcyu0d8c
p2
I1
s.(dp0
Vdbqqqoa
p1
I1
sVcyu0d8c
p2
I1
s.(dp0
Vcyu0d8c
p1
I1
sVdgzh0ry
p2
I1
s.(dp0
Vcyu0d8c
p1
I1
sVdgzvaur
p2
I1
s.(dp0
Vdi7vd9l
p1
I1
sVcyu0d8c
p2
I1
s.(dp0
Vdiqczm4
p1
I1
sVcyu0d8c
p2
I1
s.(dp0
Vdj2m5pe
p1
I1
sVcyu0d8c
p2
I1
s.(dp0
Vdj2s6zc
p1
I1
sVcyu0d8c
p2
I1
s.(dp0
Vdo11058
p1
I1
sVcyu0d8c
p2
I1
s.