(dp0
Vd03uca7
p1
I1
s.(dp0
Vd03uca7
p1
I1
sVd0ev2rc
p2
I1
s.(dp0
Vd03uca7
p1
I1
sVd0mybj7
p2
I1
s.(dp0
Vd03uca7
p1
I1
sVd0mybj7
p2
I1
s.(dp0
Vd03uca7
p1
I1
sVd0ojru9
p2
I1
s.(dp0
Vd03uca7
p1
I1
sVd241nhj
p2
I1
s.(dp0
Vd03uca7
p1
I1
sVd2sov8l
p2
I1
s.(dp0
Vd03uca7
p1
I1
sVd90947v
p2
I1
s.(dp0
Vd03uca7
p1
I1
sVdalzh1k
p2
I1
s.(dp0
Vd03uca7
p1
I1
sVdg7pjxj
p2
I1
s.