(dp0
Vd5xm8c6
p1
I1
s.(dp0
Vdiptapu
p1
I1
sVd5xm8c6
p2
I1
s.(dp0
Vdiptapu
p1
I1
sVd5xm8c6
p2
I1
s.(dp0
Vdk6s652
p1
I1
sVd5xm8c6
p2
I1
s.(dp0
Vdk6s652
p1
I1
sVd5xm8c6
p2
I1
s.(dp0
Vdk6s652
p1
I1
sVd5xm8c6
p2
I1
s.(dp0
Vdk6s652
p1
I1
sVd5xm8c6
p2
I1
s.