(dp0
Vcyisaf1
p1
I1
s.(dp0
Vcyisaf1
p1
I1
sVcyjvp1r
p2
I1
s.(dp0
Vcyisaf1
p1
I1
sVcyku98p
p2
I1
s.(dp0
Vcyisaf1
p1
I1
sVcyllmub
p2
I1
s.(dp0
Vcyisaf1
p1
I1
sVcylqx9r
p2
I1
s.(dp0
Vcyisaf1
p1
I1
sVcyns2dg
p2
I1
s.(dp0
Vcyisaf1
p1
I1
sVcyq0u7a
p2
I1
s.(dp0
Vcyisaf1
p1
I1
sVcyq3tfz
p2
I1
s.(dp0
Vcyqnqwx
p1
I1
sVcyisaf1
p2
I1
s.(dp0
Vcyisaf1
p1
I1
sVcyrneqc
p2
I1
s.(dp0
Vcyisaf1
p1
I1
sVcyu66tr
p2
I1
s.(dp0
Vcyisaf1
p1
I1
sVcyuzoqa
p2
I1
s.(dp0
Vcyv5dvp
p1
I1
sVcyisaf1
p2
I1
s.(dp0
Vcyisaf1
p1
I1
sVcyxbqf3
p2
I1
s.(dp0
Vcyisaf1
p1
I1
sVcyyos8b
p2
I1
s.(dp0
Vcyisaf1
p1
I1
sVcyyp2eo
p2
I1
s.(dp0
Vcyisaf1
p1
I1
sVcyzmr7s
p2
I1
s.(dp0
Vcyisaf1
p1
I1
sVcyzop8i
p2
I1
s.(dp0
Vcyisaf1
p1
I1
sVcz146nc
p2
I1
s.(dp0
Vcz1hf16
p1
I1
sVcyisaf1
p2
I1
s.(dp0
Vcyisaf1
p1
I1
sVcz2r3n5
p2
I1
s.(dp0
Vcz6mddo
p1
I1
sVcyisaf1
p2
I1
s.(dp0
Vcz6mddo
p1
I1
sVcyisaf1
p2
I1
s.(dp0
Vcz6mddo
p1
I1
sVcyisaf1
p2
I1
s.(dp0
Vcyisaf1
p1
I1
sVcz6s3lq
p2
I1
s.(dp0
Vcz6zllb
p1
I1
sVcyisaf1
p2
I1
s.(dp0
Vcyisaf1
p1
I1
sVcz9lzt9
p2
I1
s.(dp0
Vcyisaf1
p1
I1
sVczadg3z
p2
I1
s.(dp0
Vcyisaf1
p1
I1
sVczallug
p2
I1
s.(dp0
Vcyisaf1
p1
I1
sVczallug
p2
I1
s.(dp0
Vcyisaf1
p1
I1
sVczepcem
p2
I1
s.(dp0
Vcyisaf1
p1
I1
sVczepcem
p2
I1
s.(dp0
Vcyisaf1
p1
I1
sVczfocbs
p2
I1
s.(dp0
Vcyisaf1
p1
I1
sVczh0234
p2
I1
s.(dp0
Vcyisaf1
p1
I1
sVczh0xfw
p2
I1
s.(dp0
Vcyisaf1
p1
I1
sVczj29iz
p2
I1
s.(dp0
Vcyisaf1
p1
I1
sVczj7uc0
p2
I1
s.(dp0
Vcyisaf1
p1
I1
sVczj7uc0
p2
I1
s.(dp0
Vcyisaf1
p1
I1
sVczj7uc0
p2
I1
s.(dp0
Vcyisaf1
p1
I1
sVczjxptd
p2
I1
s.(dp0
Vcyisaf1
p1
I1
sVczl9k01
p2
I1
s.(dp0
Vcyisaf1
p1
I1
sVczm6e2l
p2
I1
s.(dp0
Vcyisaf1
p1
I1
sVcznkapf
p2
I1
s.(dp0
Vcyisaf1
p1
I1
sVczq0nba
p2
I1
s.(dp0
Vcyisaf1
p1
I1
sVczqtw7b
p2
I1
s.(dp0
Vcyisaf1
p1
I1
sVczrhhpx
p2
I1
s.(dp0
Vcyisaf1
p1
I1
sVczrwzcj
p2
I1
s.(dp0
Vcyisaf1
p1
I1
sVczsx2fv
p2
I1
s.(dp0
Vcyisaf1
p1
I1
sVczsygs4
p2
I1
s.(dp0
Vcyisaf1
p1
I1
sVczyqima
p2
I1
s.(dp0
Vcyisaf1
p1
I1
sVczyqima
p2
I1
s.(dp0
Vcyisaf1
p1
I1
sVd01fcx5
p2
I1
s.(dp0
Vcyisaf1
p1
I1
sVd01fcx5
p2
I1
s.(dp0
Vcyisaf1
p1
I1
sVd06vbz5
p2
I1
s.(dp0
Vcyisaf1
p1
I1
sVd09sseu
p2
I1
s.(dp0
Vcyisaf1
p1
I1
sVd0cwlru
p2
I1
s.(dp0
Vcyisaf1
p1
I1
sVd0dkrpp
p2
I1
s.(dp0
Vcyisaf1
p1
I1
sVd0dkrpp
p2
I1
s.(dp0
Vcyisaf1
p1
I1
sVd0dvvxo
p2
I1
s.(dp0
Vcyisaf1
p1
I1
sVd0g38f1
p2
I1
s.(dp0
Vcyisaf1
p1
I1
sVd0gid89
p2
I1
s.(dp0
Vcyisaf1
p1
I1
sVd0grglw
p2
I1
s.(dp0
Vcyisaf1
p1
I1
sVd0gzhug
p2
I1
s.(dp0
Vd0h3g2s
p1
I1
sVcyisaf1
p2
I1
s.(dp0
Vcyisaf1
p1
I1
sVd0ibf0c
p2
I1
s.(dp0
Vcyisaf1
p1
I1
sVd0iy60x
p2
I1
s.(dp0
Vcyisaf1
p1
I1
sVd0j01i6
p2
I1
s.(dp0
Vcyisaf1
p1
I1
sVd0jlq9h
p2
I1
s.(dp0
Vcyisaf1
p1
I1
sVd0kqcgd
p2
I1
s.(dp0
Vcyisaf1
p1
I1
sVd0p2ymu
p2
I1
s.(dp0
Vd0qkl0o
p1
I1
sVcyisaf1
p2
I1
s.(dp0
Vcyisaf1
p1
I1
sVd0s7psw
p2
I1
s.(dp0
Vcyisaf1
p1
I1
sVd0uyi3g
p2
I1
s.(dp0
Vd0vhnlw
p1
I1
sVcyisaf1
p2
I1
s.(dp0
Vcyisaf1
p1
I1
sVd0zfdgw
p2
I1
s.(dp0
Vcyisaf1
p1
I1
sVd10ewz4
p2
I1
s.(dp0
Vcyisaf1
p1
I1
sVd10ewz4
p2
I1
s.(dp0
Vcyisaf1
p1
I1
sVd10yztg
p2
I1
s.(dp0
Vd14ipk6
p1
I1
sVcyisaf1
p2
I1
s.(dp0
Vcyisaf1
p1
I1
sVd1ahh32
p2
I1
s.(dp0
Vd1dok1a
p1
I1
sVcyisaf1
p2
I1
s.(dp0
Vcyisaf1
p1
I1
sVd1e2k0m
p2
I1
s.(dp0
Vcyisaf1
p1
I1
sVd1jgruk
p2
I1
s.(dp0
Vcyisaf1
p1
I1
sVd1onq3w
p2
I1
s.(dp0
Vcyisaf1
p1
I1
sVd1t880z
p2
I1
s.(dp0
Vcyisaf1
p1
I1
sVd1wzaxu
p2
I1
s.(dp0
Vcyisaf1
p1
I1
sVd1x5air
p2
I1
s.(dp0
Vcyisaf1
p1
I1
sVd1yt4ba
p2
I1
s.(dp0
Vcyisaf1
p1
I1
sVd245ng8
p2
I1
s.(dp0
Vcyisaf1
p1
I1
sVd245ng8
p2
I1
s.(dp0
Vd24id8j
p1
I1
sVcyisaf1
p2
I1
s.(dp0
Vcyisaf1
p1
I1
sVd26t1hr
p2
I1
s.(dp0
Vcyisaf1
p1
I1
sVd29sn6p
p2
I1
s.(dp0
Vcyisaf1
p1
I1
sVd2aines
p2
I1
s.(dp0
Vd2aqfx1
p1
I1
sVcyisaf1
p2
I1
s.(dp0
Vcyisaf1
p1
I1
sVd2bm3t3
p2
I1
s.(dp0
Vcyisaf1
p1
I1
sVd2emmz4
p2
I1
s.(dp0
Vcyisaf1
p1
I1
sVd2jghiw
p2
I1
s.(dp0
Vcyisaf1
p1
I1
sVd2ji7nd
p2
I1
s.(dp0
Vcyisaf1
p1
I1
sVd2nde6b
p2
I1
s.(dp0
Vcyisaf1
p1
I1
sVd2orgxs
p2
I1
s.(dp0
Vcyisaf1
p1
I1
sVd2osvke
p2
I1
s.(dp0
Vcyisaf1
p1
I1
sVd2oy5k8
p2
I1
s.(dp0
Vcyisaf1
p1
I1
sVd2pdprx
p2
I1
s.(dp0
Vcyisaf1
p1
I1
sVd2rd2q0
p2
I1
s.(dp0
Vcyisaf1
p1
I1
sVd2w2p6j
p2
I1
s.(dp0
Vcyisaf1
p1
I1
sVd2ydl12
p2
I1
s.(dp0
Vcyisaf1
p1
I1
sVd2yysya
p2
I1
s.(dp0
Vcy(dp0
Vcyisaf1
p1
I1
sVdp2kdde
p2
I1
s.