(dp0
Vcynbvx5
p1
I1
s.(dp0
Vcyv388x
p1
I1
sVcynbvx5
p2
I1
s.(dp0
Vcz3ee2a
p1
I1
sVcynbvx5
p2
I1
s.(dp0
Vcz3m6yj
p1
I1
sVcynbvx5
p2
I1
s.(dp0
Vcynbvx5
p1
I1
sVczc8qul
p2
I1
s.(dp0
Vczp5gqi
p1
I1
sVcynbvx5
p2
I1
s.(dp0
Vczu0o8e
p1
I1
sVcynbvx5
p2
I1
s.(dp0
Vcynbvx5
p1
I1
sVczuegim
p2
I1
s.(dp0
Vczv2kxm
p1
I1
sVcynbvx5
p2
I1
s.(dp0
Vczw3o50
p1
I1
sVcynbvx5
p2
I1
s.(dp0
Vczytk8r
p1
I1
sVcynbvx5
p2
I1
s.(dp0
Vczytk8r
p1
I1
sVcynbvx5
p2
I1
s.(dp0
Vczzzw8a
p1
I1
sVcynbvx5
p2
I1
s.(dp0
Vcynbvx5
p1
I1
sVd0evncz
p2
I1
s.(dp0
Vd0sk8w7
p1
I1
sVcynbvx5
p2
I1
s.(dp0
Vcynbvx5
p1
I1
sVd0t6k58
p2
I1
s.(dp0
Vcynbvx5
p1
I1
sVd0wc2n4
p2
I1
s.(dp0
Vd0xzbfq
p1
I1
sVcynbvx5
p2
I1
s.(dp0
Vcynbvx5
p1
I1
sVd1b6dqf
p2
I1
s.(dp0
Vcynbvx5
p1
I1
sVd1dvui3
p2
I1
s.(dp0
Vd22ct1n
p1
I1
sVcynbvx5
p2
I1
s.(dp0
Vd27s2vp
p1
I1
sVcynbvx5
p2
I1
s.(dp0
Vcynbvx5
p1
I1
sVd2dfygp
p2
I1
s.(dp0
Vd2jjqb2
p1
I1
sVcynbvx5
p2
I1
s.(dp0
Vd2kfqn7
p1
I1
sVcynbvx5
p2
I1
s.(dp0
Vd2o3eyy
p1
I1
sVcynbvx5
p2
I1
s.(dp0
Vd2ro1rm
p1
I1
sVcynbvx5
p2
I1
s.(dp0
Vd2v2evl
p1
I1
sVcynbvx5
p2
I1
s.(dp0
Vd2v2evl
p1
I1
sVcynbvx5
p2
I1
s.(dp0
Vcynbvx5
p1
I1
sVd30y1v7
p2
I1
s.(dp0
Vcynbvx5
p1
I1
sVd3cjs9z
p2
I1
s.(dp0
Vcynbvx5
p1
I1
sVd3nve7g
p2
I1
s.(dp0
Vd435e3t
p1
I1
sVcynbvx5
p2
I1
s.(dp0
Vcynbvx5
p1
I1
sVd475kar
p2
I1
s.(dp0
Vd47u1bu
p1
I1
sVcynbvx5
p2
I1
s.(dp0
Vd4dquz8
p1
I1
sVcynbvx5
p2
I1
s.(dp0
Vd4e17h8
p1
I1
sVcynbvx5
p2
I1
s.(dp0
Vcynbvx5
p1
I1
sVd4k71jp
p2
I1
s.(dp0
Vcynbvx5
p1
I1
sVd4kshzy
p2
I1
s.(dp0
Vcynbvx5
p1
I1
sVd4ofbvm
p2
I1
s.(dp0
Vd4p25wm
p1
I1
sVcynbvx5
p2
I1
s.(dp0
Vd5bnh3u
p1
I1
sVcynbvx5
p2
I1
s.(dp0
Vcynbvx5
p1
I1
sVd5g6xc3
p2
I1
s.(dp0
Vcynbvx5
p1
I1
sVd5n8x10
p2
I1
s.(dp0
Vcynbvx5
p1
I1
sVd5n8x10
p2
I1
s.(dp0
Vd5wuyf6
p1
I1
sVcynbvx5
p2
I1
s.(dp0
Vcynbvx5
p1
I1
sVd5x7mu2
p2
I1
s.(dp0
Vd5znybv
p1
I1
sVcynbvx5
p2
I1
s.(dp0
Vd6gwvfg
p1
I1
sVcynbvx5
p2
I1
s.(dp0
Vcynbvx5
p1
I1
sVd6lzozq
p2
I1
s.(dp0
Vd6molfg
p1
I1
sVcynbvx5
p2
I1
s.(dp0
Vcynbvx5
p1
I1
sVd73n7q5
p2
I1
s.(dp0
Vd7awaw7
p1
I1
sVcynbvx5
p2
I1
s.(dp0
Vd7bm8a8
p1
I1
sVcynbvx5
p2
I1
s.(dp0
Vd7tsdax
p1
I1
sVcynbvx5
p2
I1
s.(dp0
Vd7tsdax
p1
I1
sVcynbvx5
p2
I1
s.(dp0
Vcynbvx5
p1
I1
sVd7uasox
p2
I1
s.(dp0
Vd817iw0
p1
I1
sVcynbvx5
p2
I1
s.(dp0
Vd89e0hm
p1
I1
sVcynbvx5
p2
I1
s.(dp0
Vd8c83ci
p1
I1
sVcynbvx5
p2
I1
s.(dp0
Vcynbvx5
p1
I1
sVd8dx49f
p2
I1
s.(dp0
Vcynbvx5
p1
I1
sVd8jyfl3
p2
I1
s.(dp0
Vcynbvx5
p1
I1
sVd8k0am4
p2
I1
s.(dp0
Vcynbvx5
p1
I1
sVd8lxi8c
p2
I1
s.(dp0
Vcynbvx5
p1
I1
sVd8q10up
p2
I1
s.(dp0
Vd8uxilk
p1
I1
sVcynbvx5
p2
I1
s.(dp0
Vd94si81
p1
I1
sVcynbvx5
p2
I1
s.(dp0
Vcynbvx5
p1
I1
sVd9eul6q
p2
I1
s.(dp0
Vcynbvx5
p1
I1
sVd9hgtu1
p2
I1
s.(dp0
Vcynbvx5
p1
I1
sVd9w5ffw
p2
I1
s.(dp0
Vd9xnm5m
p1
I1
sVcynbvx5
p2
I1
s.(dp0
Vda2sgsh
p1
I1
sVcynbvx5
p2
I1
s.(dp0
Vcynbvx5
p1
I1
sVdachoso
p2
I1
s.(dp0
Vcynbvx5
p1
I1
sVdadqqs0
p2
I1
s.(dp0
Vcynbvx5
p1
I1
sVdaiqgpv
p2
I1
s.(dp0
Vcynbvx5
p1
I1
sVdajtp2y
p2
I1
s.(dp0
Vdal25h7
p1
I1
sVcynbvx5
p2
I1
s.(dp0
Vdaon9lp
p1
I1
sVcynbvx5
p2
I1
s.(dp0
Vcynbvx5
p1
I1
sVdarv05v
p2
I1
s.(dp0
Vcynbvx5
p1
I1
sVdaz7r82
p2
I1
s.(dp0
Vdbckp98
p1
I1
sVcynbvx5
p2
I1
s.(dp0
Vdbckp98
p1
I1
sVcynbvx5
p2
I1
s.(dp0
Vdbezhll
p1
I1
sVcynbvx5
p2
I1
s.(dp0
Vdbezhll
p1
I1
sVcynbvx5
p2
I1
s.(dp0
Vdbpywyi
p1
I1
sVcynbvx5
p2
I1
s.(dp0
Vcynbvx5
p1
I1
sVdc630kr
p2
I1
s.(dp0
Vdc7o6ca
p1
I1
sVcynbvx5
p2
I1
s.(dp0
Vdc7o6ca
p1
I1
sVcynbvx5
p2
I1
s.(dp0
Vdc7rwcj
p1
I1
sVcynbvx5
p2
I1
s.(dp0
Vdc7rwcj
p1
I1
sVcynbvx5
p2
I1
s.(dp0
Vdcr081z
p1
I1
sVcynbvx5
p2
I1
s.(dp0
Vdcsd9qg
p1
I1
sVcynbvx5
p2
I1
s.(dp0
Vdczgjsy
p1
I1
sVcynbvx5
p2
I1
s.(dp0
Vdd2o3hf
p1
I1
sVcynbvx5
p2
I1
s.(dp0
Vdd7mxo2
p1
I1
sVcynbvx5
p2
I1
s.(dp0
Vddb2wnk
p1
I1
sVcynbvx5
p2
I1
s.(dp0
Vddgajb5
p1
I1
sVcynbvx5
p2
I1
s.(dp0
Vde5gujh
p1
I1
sVcynbvx5
p2
I1
s.(dp0
Vde5gujh
p1
I1
sVcynbvx5
p2
I1
s.(dp0
Vde5gujh
p1
I1
sVcynbvx5
p2
I1
s.(dp0
Vdec3p3g
p1
I1
sVcynbvx5
p2
I1
s.(dp0
Vdeck03n
p1
I1
sVcynbvx5
p2
I1
s.(dp0
Vcynbvx5
p1
I1
sVdei7kpi
p2
I1
s.(dp0
Vdeijhpa
p1
I1
sVcynbvx5
p2
I1
s.(dp0
Vdeustrz
p1
I1
sVcynbvx5
p2
I1
s.(dp0
Vdf1x07a
p1
I1
sVcynbvx5
p2
I1
s.(dp0
Vcynbvx5
p1
I1
sVdf6ddwe
p2
I1
s.(dp0
Vcynbvx5
p1
I1
sVdf6ekye
p2
I1
s.(dp0
Vdf(dp0
Vdowkb7s
p1
I1
sVcynbvx5
p2
I1
s.