(dp0
Vcyrfbxz
p1
I1
s.(dp0
Vczx2ugg
p1
I1
sVcyrfbxz
p2
I1
s.(dp0
Vd0sozw6
p1
I1
sVcyrfbxz
p2
I1
s.(dp0
Vd13howg
p1
I1
sVcyrfbxz
p2
I1
s.(dp0
Vd25297i
p1
I1
sVcyrfbxz
p2
I1
s.(dp0
Vd25297i
p1
I1
sVcyrfbxz
p2
I1
s.(dp0
Vd5nlplq
p1
I1
sVcyrfbxz
p2
I1
s.(dp0
Vd5nlplq
p1
I1
sVcyrfbxz
p2
I1
s.(dp0
Vd5nlplq
p1
I1
sVcyrfbxz
p2
I1
s.(dp0
Vd5nlplq
p1
I1
sVcyrfbxz
p2
I1
s.(dp0
Vd5nmz9q
p1
I1
sVcyrfbxz
p2
I1
s.(dp0
Vd5nmz9q
p1
I1
sVcyrfbxz
p2
I1
s.(dp0
Vd79nt9a
p1
I1
sVcyrfbxz
p2
I1
s.(dp0
Vd7bl7vi
p1
I1
sVcyrfbxz
p2
I1
s.(dp0
Vd7uxmpm
p1
I1
sVcyrfbxz
p2
I1
s.(dp0
Vd8heivs
p1
I1
sVcyrfbxz
p2
I1
s.(dp0
Vd9d421l
p1
I1
sVcyrfbxz
p2
I1
s.(dp0
Vd9d421l
p1
I1
sVcyrfbxz
p2
I1
s.(dp0
Vd9d421l
p1
I1
sVcyrfbxz
p2
I1
s.(dp0
Vddsb38i
p1
I1
sVcyrfbxz
p2
I1
s.(dp0
Vddsb38i
p1
I1
sVcyrfbxz
p2
I1
s.