(dp0
Vczd2q8m
p1
I1
s.(dp0
Vd0utrp3
p1
I1
sVczd2q8m
p2
I1
s.(dp0
Vczd2q8m
p1
I1
sVd50auaj
p2
I1
s.(dp0
Vczd2q8m
p1
I1
sVd50r59o
p2
I1
s.(dp0
Vczd2q8m
p1
I1
sVd935fbf
p2
I1
s.(dp0
Vddiubbz
p1
I1
sVczd2q8m
p2
I1
s.(dp0
Vddr2w6q
p1
I1
sVczd2q8m
p2
I1
s.(dp0
Vczd2q8m
p1
I1
sVdfffgce
p2
I1
s.(dp0
Vczd2q8m
p1
I1
sVdfffgce
p2
I1
s.(dp0
Vczd2q8m
p1
I1
sVdfffgce
p2
I1
s.(dp0
Vczd2q8m
p1
I1
sVdfwzpyb
p2
I1
s.(dp0
Vdgsgakj
p1
I1
sVczd2q8m
p2
I1
s.(dp0
Vczd2q8m
p1
I1
sVdik911i
p2
I1
s.