(dp0
Vcyiisan
p1
I1
s.(dp0
Vcyiisan
p1
I1
sVcyj6n33
p2
I1
s.(dp0
Vcyiisan
p1
I1
sVcymn7mj
p2
I1
s.(dp0
Vcyp4fn5
p1
I1
sVcyiisan
p2
I1
s.(dp0
Vcyiisan
p1
I1
sVcyridhq
p2
I1
s.(dp0
Vcysbr62
p1
I1
sVcyiisan
p2
I1
s.(dp0
Vcyiisan
p1
I1
sVcysi8sk
p2
I1
s.(dp0
Vcyiisan
p1
I1
sVcyt4i0c
p2
I1
s.(dp0
Vcyiisan
p1
I1
sVcyt8ikf
p2
I1
s.(dp0
Vcyyim6x
p1
I1
sVcyiisan
p2
I1
s.(dp0
Vcz0fial
p1
I1
sVcyiisan
p2
I1
s.(dp0
Vcz4t8ts
p1
I1
sVcyiisan
p2
I1
s.(dp0
Vcyiisan
p1
I1
sVcz4u0hg
p2
I1
s.(dp0
Vcz4wd9y
p1
I1
sVcyiisan
p2
I1
s.(dp0
Vcyiisan
p1
I1
sVcz5l3r9
p2
I1
s.(dp0
Vcyiisan
p1
I1
sVczbf0c8
p2
I1
s.(dp0
Vczc9bhc
p1
I1
sVcyiisan
p2
I1
s.(dp0
Vcyiisan
p1
I1
sVcze18v0
p2
I1
s.(dp0
Vczfuudn
p1
I1
sVcyiisan
p2
I1
s.(dp0
Vcyiisan
p1
I1
sVczfw9x4
p2
I1
s.(dp0
Vcyiisan
p1
I1
sVczfw9x4
p2
I1
s.(dp0
Vczfyzgk
p1
I1
sVcyiisan
p2
I1
s.(dp0
Vczgtisz
p1
I1
sVcyiisan
p2
I1
s.(dp0
Vczhlyo5
p1
I1
sVcyiisan
p2
I1
s.(dp0
Vczhlyo5
p1
I1
sVcyiisan
p2
I1
s.(dp0
Vczhlyo5
p1
I1
sVcyiisan
p2
I1
s.(dp0
Vczi7hhc
p1
I1
sVcyiisan
p2
I1
s.(dp0
Vczida77
p1
I1
sVcyiisan
p2
I1
s.(dp0
Vcyiisan
p1
I1
sVczldas3
p2
I1
s.(dp0
Vcyiisan
p1
I1
sVczm6izy
p2
I1
s.(dp0
Vcyiisan
p1
I1
sVczm6izy
p2
I1
s.(dp0
Vcyiisan
p1
I1
sVczne7fr
p2
I1
s.(dp0
Vcyiisan
p1
I1
sVczpu6nf
p2
I1
s.(dp0
Vczreqzi
p1
I1
sVcyiisan
p2
I1
s.(dp0
Vczrwq5z
p1
I1
sVcyiisan
p2
I1
s.(dp0
Vcyiisan
p1
I1
sVczts6d2
p2
I1
s.(dp0
Vcyiisan
p1
I1
sVczu4jk6
p2
I1
s.(dp0
Vczys2sh
p1
I1
sVcyiisan
p2
I1
s.(dp0
Vcyiisan
p1
I1
sVd007r5h
p2
I1
s.(dp0
Vcyiisan
p1
I1
sVd007r5h
p2
I1
s.(dp0
Vcyiisan
p1
I1
sVd008b7g
p2
I1
s.(dp0
Vcyiisan
p1
I1
sVd008b7g
p2
I1
s.(dp0
Vcyiisan
p1
I1
sVd008b7g
p2
I1
s.(dp0
Vcyiisan
p1
I1
sVd00k8yx
p2
I1
s.(dp0
Vcyiisan
p1
I1
sVd03nme1
p2
I1
s.(dp0
Vd0688mn
p1
I1
sVcyiisan
p2
I1
s.(dp0
Vcyiisan
p1
I1
sVd06fv6d
p2
I1
s.(dp0
Vcyiisan
p1
I1
sVd08ziw9
p2
I1
s.(dp0
Vd0a51pb
p1
I1
sVcyiisan
p2
I1
s.(dp0
Vd0a51pb
p1
I1
sVcyiisan
p2
I1
s.(dp0
Vd0acpdv
p1
I1
sVcyiisan
p2
I1
s.(dp0
Vd0akdo0
p1
I1
sVcyiisan
p2
I1
s.(dp0
Vd0amajz
p1
I1
sVcyiisan
p2
I1
s.(dp0
Vd0cmcch
p1
I1
sVcyiisan
p2
I1
s.(dp0
Vcyiisan
p1
I1
sVd0ins0h
p2
I1
s.(dp0
Vcyiisan
p1
I1
sVd0jp94p
p2
I1
s.(dp0
Vcyiisan
p1
I1
sVd0nd357
p2
I1
s.(dp0
Vcyiisan
p1
I1
sVd0px9ew
p2
I1
s.(dp0
Vd0tes61
p1
I1
sVcyiisan
p2
I1
s.(dp0
Vd0tes61
p1
I1
sVcyiisan
p2
I1
s.(dp0
Vd0tes61
p1
I1
sVcyiisan
p2
I1
s.(dp0
Vcyiisan
p1
I1
sVd0ursd7
p2
I1
s.(dp0
Vd0y44nd
p1
I1
sVcyiisan
p2
I1
s.(dp0
Vd0yjrat
p1
I1
sVcyiisan
p2
I1
s.(dp0
Vcyiisan
p1
I1
sVd14bv61
p2
I1
s.(dp0
Vcyiisan
p1
I1
sVd1533sm
p2
I1
s.(dp0
Vd15tyj0
p1
I1
sVcyiisan
p2
I1
s.(dp0
Vd15v2zc
p1
I1
sVcyiisan
p2
I1
s.(dp0
Vd1607jf
p1
I1
sVcyiisan
p2
I1
s.(dp0
Vd17gfiv
p1
I1
sVcyiisan
p2
I1
s.(dp0
Vd17qx07
p1
I1
sVcyiisan
p2
I1
s.(dp0
Vcyiisan
p1
I1
sVd18khrf
p2
I1
s.(dp0
Vd1b4l1n
p1
I1
sVcyiisan
p2
I1
s.(dp0
Vd1c6ipk
p1
I1
sVcyiisan
p2
I1
s.(dp0
Vd1c6ipk
p1
I1
sVcyiisan
p2
I1
s.(dp0
Vd1c6ipk
p1
I1
sVcyiisan
p2
I1
s.(dp0
Vd1gchw9
p1
I1
sVcyiisan
p2
I1
s.(dp0
Vcyiisan
p1
I1
sVd1hx45t
p2
I1
s.(dp0
Vcyiisan
p1
I1
sVd1ozq1o
p2
I1
s.(dp0
Vcyiisan
p1
I1
sVd1qmftt
p2
I1
s.(dp0
Vd1st72i
p1
I1
sVcyiisan
p2
I1
s.(dp0
Vd1wdy8k
p1
I1
sVcyiisan
p2
I1
s.(dp0
Vd1xr1mv
p1
I1
sVcyiisan
p2
I1
s.(dp0
Vcyiisan
p1
I1
sVd21olhg
p2
I1
s.(dp0
Vd222bck
p1
I1
sVcyiisan
p2
I1
s.(dp0
Vcyiisan
p1
I1
sVd23xrbr
p2
I1
s.(dp0
Vcyiisan
p1
I1
sVd24hdp0
p2
I1
s.(dp0
Vcyiisan
p1
I1
sVd29hw6n
p2
I1
s.(dp0
Vcyiisan
p1
I1
sVd29hw6n
p2
I1
s.(dp0
Vcyiisan
p1
I1
sVd29j748
p2
I1
s.(dp0
Vd29k5xo
p1
I1
sVcyiisan
p2
I1
s.(dp0
Vcyiisan
p1
I1
sVd29lodd
p2
I1
s.(dp0
Vcyiisan
p1
I1
sVd29lodd
p2
I1
s.(dp0
Vcyiisan
p1
I1
sVd29p0yp
p2
I1
s.(dp0
Vcyiisan
p1
I1
sVd29rina
p2
I1
s.(dp0
Vd2alm2z
p1
I1
sVcyiisan
p2
I1
s.(dp0
Vd2c37yr
p1
I1
sVcyiisan
p2
I1
s.(dp0
Vd2krqyz
p1
I1
sVcyiisan
p2
I1
s.(dp0
Vcyiisan
p1
I1
sVd2mjape
p2
I1
s.(dp0
Vcyiisan
p1
I1
sVd2pm56n
p2
I1
s.(dp0
Vcyiisan
p1
I1
sVd2qha08
p2
I1
s.(dp0
Vd2t45d5
p1
I1
sVcyiisan
p2
I1
s.(dp0
Vcyiisan
p1
I1
sVd2twxzv
p2
I1
s.(dp0
Vd2y8ps3
p1
I1
sVcyiisan
p2
I1
s.(dp0
Vcyiisan
p1
I1
sVd33tykr
p2
I1
s.(dp0
Vd37dnzx
p1
I1
sVcyiisan
p2
I1
s.(dp0
Vd37z1ld
p1
I1
sVcyiisan
p2
I1
s.(dp0
Vd37z1ld
p1
I1
sVcyiisan
p2
I1
s.(dp0
Vcy(dp0
Vcyiisan
p1
I1
sVdp17r2h
p2
I1
s.