(dp0
Vcyrr930
p1
I1
s.(dp0
Vcyrr930
p1
I1
sVczcdnqk
p2
I1
s.(dp0
Vcyrr930
p1
I1
sVczktzhf
p2
I1
s.(dp0
Vcyrr930
p1
I1
sVd067gwb
p2
I1
s.(dp0
Vcyrr930
p1
I1
sVd088txz
p2
I1
s.(dp0
Vcyrr930
p1
I1
sVd0jwkft
p2
I1
s.(dp0
Vcyrr930
p1
I1
sVd0pmd76
p2
I1
s.(dp0
Vd0x9ugv
p1
I1
sVcyrr930
p2
I1
s.(dp0
Vcyrr930
p1
I1
sVd3r9cpd
p2
I1
s.(dp0
Vcyrr930
p1
I1
sVd3udq8y
p2
I1
s.(dp0
Vd4t3jy0
p1
I1
sVcyrr930
p2
I1
s.(dp0
Vcyrr930
p1
I1
sVd4wu3hq
p2
I1
s.(dp0
Vd7ldo4l
p1
I1
sVcyrr930
p2
I1
s.(dp0
Vd7svesp
p1
I1
sVcyrr930
p2
I1
s.(dp0
Vd8jggw2
p1
I1
sVcyrr930
p2
I1
s.(dp0
Vcyrr930
p1
I1
sVd9d76he
p2
I1
s.(dp0
Vd9f2ep3
p1
I1
sVcyrr930
p2
I1
s.(dp0
Vcyrr930
p1
I1
sVda01m83
p2
I1
s.(dp0
Vcyrr930
p1
I1
sVdaw25it
p2
I1
s.(dp0
Vdb62dva
p1
I1
sVcyrr930
p2
I1
s.(dp0
Vdb62dva
p1
I1
sVcyrr930
p2
I1
s.(dp0
Vdb62dva
p1
I1
sVcyrr930
p2
I1
s.(dp0
Vcyrr930
p1
I1
sVdbqpx6e
p2
I1
s.(dp0
Vcyrr930
p1
I1
sVdct13k5
p2
I1
s.(dp0
Vdd1r02v
p1
I1
sVcyrr930
p2
I1
s.(dp0
Vdd1r02v
p1
I1
sVcyrr930
p2
I1
s.(dp0
Vcyrr930
p1
I1
sVdd7609d
p2
I1
s.(dp0
Vdewi1ym
p1
I1
sVcyrr930
p2
I1
s.(dp0
Vdey8v0r
p1
I1
sVcyrr930
p2
I1
s.(dp0
Vdff6ceg
p1
I1
sVcyrr930
p2
I1
s.(dp0
Vcyrr930
p1
I1
sVdfgcp8y
p2
I1
s.(dp0
Vcyrr930
p1
I1
sVdfriebv
p2
I1
s.(dp0
Vcyrr930
p1
I1
sVdfriebv
p2
I1
s.(dp0
Vdk1iq69
p1
I1
sVcyrr930
p2
I1
s.(dp0
Vdk3km62
p1
I1
sVcyrr930
p2
I1
s.(dp0
Vcyrr930
p1
I1
sVdk5977b
p2
I1
s.(dp0
Vdmvg42o
p1
I1
sVcyrr930
p2
I1
s.(dp0
Vdmw37ud
p1
I1
sVcyrr930
p2
I1
s.(dp0
Vcyrr930
p1
I1
sVdnp76ss
p2
I1
s.(dp0
Vcyrr930
p1
I1
sVdo1tce3
p2
I1
s.(dp0
Vcyrr930
p1
I1
sVdo1tce3
p2
I1
s.(dp0
Vcyrr930
p1
I1
sVdoe1stc
p2
I1
s.(dp0
Vdozxi48
p1
I1
sVcyrr930
p2
I1
s.