(dp0
Vcyljody
p1
I1
s.(dp0
Vcyxvd4w
p1
I1
sVcyljody
p2
I1
s.(dp0
Vczynemv
p1
I1
sVcyljody
p2
I1
s.(dp0
Vczzdizc
p1
I1
sVcyljody
p2
I1
s.(dp0
Vd1xjuav
p1
I1
sVcyljody
p2
I1
s.(dp0
Vd2ddobe
p1
I1
sVcyljody
p2
I1
s.(dp0
Vd312svi
p1
I1
sVcyljody
p2
I1
s.(dp0
Vd5bdyku
p1
I1
sVcyljody
p2
I1
s.(dp0
Vd6y8u7u
p1
I1
sVcyljody
p2
I1
s.(dp0
Vd8u45xa
p1
I1
sVcyljody
p2
I1
s.(dp0
Vd9qbjjv
p1
I1
sVcyljody
p2
I1
s.(dp0
Vdcfvjtt
p1
I1
sVcyljody
p2
I1
s.(dp0
Vdh8dxs8
p1
I1
sVcyljody
p2
I1
s.(dp0
Vdhc8wou
p1
I1
sVcyljody
p2
I1
s.(dp0
Vdhn3b9z
p1
I1
sVcyljody
p2
I1
s.(dp0
Vdhnqbx4
p1
I1
sVcyljody
p2
I1
s.(dp0
Vdhnuy0p
p1
I1
sVcyljody
p2
I1
s.(dp0
Vdhzf47l
p1
I1
sVcyljody
p2
I1
s.(dp0
Vdie4kry
p1
I1
sVcyljody
p2
I1
s.(dp0
Vdii4t5h
p1
I1
sVcyljody
p2
I1
s.(dp0
Vdjixi35
p1
I1
sVcyljody
p2
I1
s.(dp0
Vdkvontd
p1
I1
sVcyljody
p2
I1
s.(dp0
Vdmzzdaq
p1
I1
sVcyljody
p2
I1
s.(dp0
Vdnzn0g7
p1
I1
sVcyljody
p2
I1
s.(dp0
Vdogp09q
p1
I1
sVcyljody
p2
I1
s.