(dp0
Vd0s6z3h
p1
I1
s.(dp0
Vd1pzbwa
p1
I1
sVd0s6z3h
p2
I1
s.(dp0
Vd0s6z3h
p1
I1
sVd481rzh
p2
I1
s.(dp0
Vd0s6z3h
p1
I1
sVdb3k97r
p2
I1
s.(dp0
Vddjz8re
p1
I1
sVd0s6z3h
p2
I1
s.(dp0
Vdj2yvjp
p1
I1
sVd0s6z3h
p2
I1
s.