(dp0
Vcz3iv1m
p1
I1
s.(dp0
Vcz3iv1m
p1
I1
sVcz61xa5
p2
I1
s.(dp0
Vcz3iv1m
p1
I1
sVcz6ic5e
p2
I1
s.(dp0
Vcz3iv1m
p1
I1
sVczg9fy4
p2
I1
s.(dp0
Vcz3iv1m
p1
I1
sVd01mttu
p2
I1
s.(dp0
Vcz3iv1m
p1
I1
sVd0n3lke
p2
I1
s.(dp0
Vcz3iv1m
p1
I1
sVd0n3lke
p2
I1
s.(dp0
Vcz3iv1m
p1
I1
sVd0n3lke
p2
I1
s.(dp0
Vcz3iv1m
p1
I1
sVd0nj362
p2
I1
s.(dp0
Vd0q6ndw
p1
I1
sVcz3iv1m
p2
I1
s.(dp0
Vd0taivn
p1
I1
sVcz3iv1m
p2
I1
s.(dp0
Vd0taivn
p1
I1
sVcz3iv1m
p2
I1
s.(dp0
Vcz3iv1m
p1
I1
sVd0tamv6
p2
I1
s.(dp0
Vcz3iv1m
p1
I1
sVd0tamv6
p2
I1
s.(dp0
Vcz3iv1m
p1
I1
sVd0tanoe
p2
I1
s.(dp0
Vcz3iv1m
p1
I1
sVd11zeem
p2
I1
s.(dp0
Vcz3iv1m
p1
I1
sVd131agt
p2
I1
s.(dp0
Vcz3iv1m
p1
I1
sVd1gt927
p2
I1
s.(dp0
Vcz3iv1m
p1
I1
sVd1hkm5k
p2
I1
s.(dp0
Vd1n4uho
p1
I1
sVcz3iv1m
p2
I1
s.(dp0
Vd1n4uho
p1
I1
sVcz3iv1m
p2
I1
s.(dp0
Vd1ppg4c
p1
I1
sVcz3iv1m
p2
I1
s.(dp0
Vd1ppg4c
p1
I1
sVcz3iv1m
p2
I1
s.(dp0
Vcz3iv1m
p1
I1
sVd259o0k
p2
I1
s.(dp0
Vcz3iv1m
p1
I1
sVd2zztwg
p2
I1
s.(dp0
Vcz3iv1m
p1
I1
sVd34gr6y
p2
I1
s.(dp0
Vcz3iv1m
p1
I1
sVd34gr6y
p2
I1
s.(dp0
Vcz3iv1m
p1
I1
sVd39ec3b
p2
I1
s.(dp0
Vd3mfjxn
p1
I1
sVcz3iv1m
p2
I1
s.(dp0
Vcz3iv1m
p1
I1
sVd3mjmia
p2
I1
s.(dp0
Vd3mmn2t
p1
I1
sVcz3iv1m
p2
I1
s.(dp0
Vd3mmn2t
p1
I1
sVcz3iv1m
p2
I1
s.(dp0
Vd3mmn2t
p1
I1
sVcz3iv1m
p2
I1
s.(dp0
Vd3mo8e1
p1
I1
sVcz3iv1m
p2
I1
s.(dp0
Vd3mo8e1
p1
I1
sVcz3iv1m
p2
I1
s.(dp0
Vd3mo8e1
p1
I1
sVcz3iv1m
p2
I1
s.(dp0
Vd3mo8e1
p1
I1
sVcz3iv1m
p2
I1
s.(dp0
Vcz3iv1m
p1
I1
sVd3mpzfc
p2
I1
s.(dp0
Vcz3iv1m
p1
I1
sVd45xxbv
p2
I1
s.(dp0
Vcz3iv1m
p1
I1
sVd4w89am
p2
I1
s.(dp0
Vcz3iv1m
p1
I1
sVd4ysggd
p2
I1
s.(dp0
Vcz3iv1m
p1
I1
sVd5cb8ww
p2
I1
s.(dp0
Vd5keduk
p1
I1
sVcz3iv1m
p2
I1
s.(dp0
Vd5keduk
p1
I1
sVcz3iv1m
p2
I1
s.(dp0
Vcz3iv1m
p1
I1
sVd60ei4p
p2
I1
s.(dp0
Vcz3iv1m
p1
I1
sVd60se7f
p2
I1
s.(dp0
Vcz3iv1m
p1
I1
sVd6cmmmg
p2
I1
s.(dp0
Vcz3iv1m
p1
I1
sVd6cr58g
p2
I1
s.(dp0
Vcz3iv1m
p1
I1
sVd6f1dye
p2
I1
s.(dp0
Vcz3iv1m
p1
I1
sVd6f1dye
p2
I1
s.(dp0
Vcz3iv1m
p1
I1
sVd6sh356
p2
I1
s.(dp0
Vd7443rk
p1
I1
sVcz3iv1m
p2
I1
s.(dp0
Vd7443rk
p1
I1
sVcz3iv1m
p2
I1
s.(dp0
Vcz3iv1m
p1
I1
sVd7j1kkn
p2
I1
s.(dp0
Vcz3iv1m
p1
I1
sVd7vith2
p2
I1
s.(dp0
Vcz3iv1m
p1
I1
sVd82htk7
p2
I1
s.(dp0
Vcz3iv1m
p1
I1
sVd85577u
p2
I1
s.(dp0
Vcz3iv1m
p1
I1
sVd88eyfm
p2
I1
s.(dp0
Vcz3iv1m
p1
I1
sVd88qawv
p2
I1
s.(dp0
Vd8bou12
p1
I1
sVcz3iv1m
p2
I1
s.(dp0
Vd8nxfp2
p1
I1
sVcz3iv1m
p2
I1
s.(dp0
Vd8nxfp2
p1
I1
sVcz3iv1m
p2
I1
s.(dp0
Vcz3iv1m
p1
I1
sVd98pkas
p2
I1
s.(dp0
Vcz3iv1m
p1
I1
sVd9aofa2
p2
I1
s.(dp0
Vcz3iv1m
p1
I1
sVd9q2h6i
p2
I1
s.(dp0
Vcz3iv1m
p1
I1
sVd9q2h6i
p2
I1
s.(dp0
Vcz3iv1m
p1
I1
sVdajcx4a
p2
I1
s.(dp0
Vdar59dm
p1
I1
sVcz3iv1m
p2
I1
s.(dp0
Vcz3iv1m
p1
I1
sVdaznupl
p2
I1
s.(dp0
Vcz3iv1m
p1
I1
sVdaznupl
p2
I1
s.(dp0
Vcz3iv1m
p1
I1
sVdb5mlev
p2
I1
s.(dp0
Vcz3iv1m
p1
I1
sVdb5mlev
p2
I1
s.(dp0
Vcz3iv1m
p1
I1
sVdbd4nbo
p2
I1
s.(dp0
Vcz3iv1m
p1
I1
sVdbgzk17
p2
I1
s.(dp0
Vdbxtzg6
p1
I1
sVcz3iv1m
p2
I1
s.(dp0
Vcz3iv1m
p1
I1
sVdcbymyb
p2
I1
s.(dp0
Vcz3iv1m
p1
I1
sVddxkp5r
p2
I1
s.(dp0
Vcz3iv1m
p1
I1
sVden5ady
p2
I1
s.(dp0
Vcz3iv1m
p1
I1
sVdf1qhtz
p2
I1
s.(dp0
Vcz3iv1m
p1
I1
sVdfosp7w
p2
I1
s.(dp0
Vcz3iv1m
p1
I1
sVdg1zws2
p2
I1
s.(dp0
Vcz3iv1m
p1
I1
sVdgoylsu
p2
I1
s.(dp0
Vcz3iv1m
p1
I1
sVdgpbao3
p2
I1
s.(dp0
Vdgqz4b2
p1
I1
sVcz3iv1m
p2
I1
s.(dp0
Vcz3iv1m
p1
I1
sVdgvzg28
p2
I1
s.(dp0
Vdhvu6oa
p1
I1
sVcz3iv1m
p2
I1
s.(dp0
Vdhvu6oa
p1
I1
sVcz3iv1m
p2
I1
s.(dp0
Vcz3iv1m
p1
I1
sVdi5e2tv
p2
I1
s.(dp0
Vcz3iv1m
p1
I1
sVdid56lj
p2
I1
s.(dp0
Vcz3iv1m
p1
I1
sVdiq2tg3
p2
I1
s.(dp0
Vcz3iv1m
p1
I1
sVdiuq0ox
p2
I1
s.(dp0
Vdjo4v1k
p1
I1
sVcz3iv1m
p2
I1
s.(dp0
Vdku6nee
p1
I1
sVcz3iv1m
p2
I1
s.(dp0
Vdku6nee
p1
I1
sVcz3iv1m
p2
I1
s.(dp0
Vdku6nee
p1
I1
sVcz3iv1m
p2
I1
s.(dp0
Vcz3iv1m
p1
I1
sVdmeiuzw
p2
I1
s.(dp0
Vcz3iv1m
p1
I1
sVdmeiuzw
p2
I1
s.(dp0
Vcz3iv1m
p1
I1
sVdmeiuzw
p2
I1
s.(dp0
Vdmj3059
p1
I1
sVcz3iv1m
p2
I1
s.(dp0
Vcz3iv1m
p1
I1
sVdmlh50c
p2
I1
s.(dp0
Vcz3iv1m
p1
I1
sVdmnbrc6
p2
I1
s.(dp0
Vcz3iv1m
p1
I1
sVdmnbrc6
p2
I1
s.(dp0
Vcz3iv1m
p1
I1
sVdmxnykd
p2
I1
s.(dp0
Vcz3iv1m
p1
I1
sVdn6onnm
p2
I1
s.(dp0
Vcz3iv1m
p1
I1
sVdn99jki
p2
I1
s.(dp0
Vcz3iv1m
p1
I1
sVdn9clkf
p2
I1
s.(dp0
Vdna8f0n
p1
I1
sVcz3iv1m
p2
I1
s.(dp0
Vcz3iv1m
p1
I1
sVdnabkly
p2
I1
s.(dp0
Vcz(dp0
Vcz3iv1m
p1
I1
sVdp3go1c
p2
I1
s.