(dp0
Vcz4vp6w
p1
I1
s.(dp0
Vd0kyio7
p1
I1
sVcz4vp6w
p2
I1
s.(dp0
Vcz4vp6w
p1
I1
sVd10eyfg
p2
I1
s.(dp0
Vcz4vp6w
p1
I1
sVd176zn0
p2
I1
s.(dp0
Vcz4vp6w
p1
I1
sVd1vu6oh
p2
I1
s.(dp0
Vd2utgha
p1
I1
sVcz4vp6w
p2
I1
s.(dp0
Vcz4vp6w
p1
I1
sVd3ibero
p2
I1
s.(dp0
Vd4k2ug7
p1
I1
sVcz4vp6w
p2
I1
s.(dp0
Vcz4vp6w
p1
I1
sVd7y3g86
p2
I1
s.(dp0
Vcz4vp6w
p1
I1
sVdasdzq4
p2
I1
s.(dp0
Vcz4vp6w
p1
I1
sVdasdzq4
p2
I1
s.(dp0
Vcz4vp6w
p1
I1
sVdasdzq4
p2
I1
s.(dp0
Vcz4vp6w
p1
I1
sVdasdzq4
p2
I1
s.(dp0
Vcz4vp6w
p1
I1
sVdasdzq4
p2
I1
s.(dp0
Vdbc4gqp
p1
I1
sVcz4vp6w
p2
I1
s.(dp0
Vdbc4gqp
p1
I1
sVcz4vp6w
p2
I1
s.(dp0
Vdbc4gqp
p1
I1
sVcz4vp6w
p2
I1
s.(dp0
Vdbc4gqp
p1
I1
sVcz4vp6w
p2
I1
s.(dp0
Vdbc4gqp
p1
I1
sVcz4vp6w
p2
I1
s.(dp0
Vdbi6yiz
p1
I1
sVcz4vp6w
p2
I1
s.(dp0
Vdblp8wa
p1
I1
sVcz4vp6w
p2
I1
s.(dp0
Vdbmtjzh
p1
I1
sVcz4vp6w
p2
I1
s.(dp0
Vdboubp2
p1
I1
sVcz4vp6w
p2
I1
s.(dp0
Vdceilxz
p1
I1
sVcz4vp6w
p2
I1
s.(dp0
Vddg6ihn
p1
I1
sVcz4vp6w
p2
I1
s.(dp0
Vdgflp1o
p1
I1
sVcz4vp6w
p2
I1
s.(dp0
Vdgflp1o
p1
I1
sVcz4vp6w
p2
I1
s.(dp0
Vdgqw7y8
p1
I1
sVcz4vp6w
p2
I1
s.(dp0
Vdgwv050
p1
I1
sVcz4vp6w
p2
I1
s.(dp0
Vdh6a9me
p1
I1
sVcz4vp6w
p2
I1
s.(dp0
Vdhjlmwe
p1
I1
sVcz4vp6w
p2
I1
s.(dp0
Vcz4vp6w
p1
I1
sVdhtsl62
p2
I1
s.(dp0
Vdi7opri
p1
I1
sVcz4vp6w
p2
I1
s.(dp0
Vcz4vp6w
p1
I1
sVdiywc2s
p2
I1
s.(dp0
Vdj5ixq8
p1
I1
sVcz4vp6w
p2
I1
s.(dp0
Vcz4vp6w
p1
I1
sVdjbdzba
p2
I1
s.(dp0
Vdkotlzy
p1
I1
sVcz4vp6w
p2
I1
s.