(dp0
Vcylgan8
p1
I1
s.(dp0
Vcylgan8
p1
I1
sVcymce2y
p2
I1
s.(dp0
Vcynhgyx
p1
I1
sVcylgan8
p2
I1
s.(dp0
Vcylgan8
p1
I1
sVcynwc67
p2
I1
s.(dp0
Vcylgan8
p1
I1
sVcytj0fq
p2
I1
s.(dp0
Vcylgan8
p1
I1
sVcyxkfbu
p2
I1
s.(dp0
Vczad5w0
p1
I1
sVcylgan8
p2
I1
s.(dp0
Vczapmsi
p1
I1
sVcylgan8
p2
I1
s.(dp0
Vczc16cu
p1
I1
sVcylgan8
p2
I1
s.(dp0
Vcylgan8
p1
I1
sVczlxumv
p2
I1
s.(dp0
Vcylgan8
p1
I1
sVczm0flt
p2
I1
s.(dp0
Vcylgan8
p1
I1
sVczpb1wy
p2
I1
s.(dp0
Vcylgan8
p1
I1
sVczx2ugg
p2
I1
s.(dp0
Vcylgan8
p1
I1
sVczx2ugg
p2
I1
s.(dp0
Vczyp3rn
p1
I1
sVcylgan8
p2
I1
s.(dp0
Vd04bacy
p1
I1
sVcylgan8
p2
I1
s.(dp0
Vd0ckjux
p1
I1
sVcylgan8
p2
I1
s.(dp0
Vd0dngtd
p1
I1
sVcylgan8
p2
I1
s.(dp0
Vcylgan8
p1
I1
sVd0g380o
p2
I1
s.(dp0
Vd0glgn6
p1
I1
sVcylgan8
p2
I1
s.(dp0
Vd0hcoic
p1
I1
sVcylgan8
p2
I1
s.(dp0
Vd0hcoic
p1
I1
sVcylgan8
p2
I1
s.(dp0
Vd0k14q4
p1
I1
sVcylgan8
p2
I1
s.(dp0
Vd0k6dm2
p1
I1
sVcylgan8
p2
I1
s.(dp0
Vcylgan8
p1
I1
sVd0up0vu
p2
I1
s.(dp0
Vd0xsos3
p1
I1
sVcylgan8
p2
I1
s.(dp0
Vd0xsos3
p1
I1
sVcylgan8
p2
I1
s.(dp0
Vd0xsos3
p1
I1
sVcylgan8
p2
I1
s.(dp0
Vd12qse1
p1
I1
sVcylgan8
p2
I1
s.(dp0
Vd12ycac
p1
I1
sVcylgan8
p2
I1
s.(dp0
Vcylgan8
p1
I1
sVd13s07p
p2
I1
s.(dp0
Vd15ue31
p1
I1
sVcylgan8
p2
I1
s.(dp0
Vcylgan8
p1
I1
sVd178p0a
p2
I1
s.(dp0
Vcylgan8
p1
I1
sVd1dt0c2
p2
I1
s.(dp0
Vcylgan8
p1
I1
sVd1dt0c2
p2
I1
s.(dp0
Vd1g2k89
p1
I1
sVcylgan8
p2
I1
s.(dp0
Vd1g2k89
p1
I1
sVcylgan8
p2
I1
s.(dp0
Vd1g2k89
p1
I1
sVcylgan8
p2
I1
s.(dp0
Vd1g2k89
p1
I1
sVcylgan8
p2
I1
s.(dp0
Vd1g2k89
p1
I1
sVcylgan8
p2
I1
s.(dp0
Vcylgan8
p1
I1
sVd1hvojr
p2
I1
s.(dp0
Vcylgan8
p1
I1
sVd21j0ch
p2
I1
s.(dp0
Vd2amd6i
p1
I1
sVcylgan8
p2
I1
s.(dp0
Vcylgan8
p1
I1
sVd2canhi
p2
I1
s.(dp0
Vcylgan8
p1
I1
sVd2canhi
p2
I1
s.(dp0
Vcylgan8
p1
I1
sVd2f7flk
p2
I1
s.(dp0
Vd2f7jui
p1
I1
sVcylgan8
p2
I1
s.(dp0
Vd2f7jui
p1
I1
sVcylgan8
p2
I1
s.(dp0
Vd2f8l5y
p1
I1
sVcylgan8
p2
I1
s.(dp0
Vd2f8l5y
p1
I1
sVcylgan8
p2
I1
s.(dp0
Vd2f8l5y
p1
I1
sVcylgan8
p2
I1
s.(dp0
Vd2f8l5y
p1
I1
sVcylgan8
p2
I1
s.(dp0
Vd2f8vrx
p1
I1
sVcylgan8
p2
I1
s.(dp0
Vd2f8vrx
p1
I1
sVcylgan8
p2
I1
s.(dp0
Vd2i5d9h
p1
I1
sVcylgan8
p2
I1
s.(dp0
Vd2i5d9h
p1
I1
sVcylgan8
p2
I1
s.(dp0
Vd2xe419
p1
I1
sVcylgan8
p2
I1
s.(dp0
Vcylgan8
p1
I1
sVd33ze4c
p2
I1
s.(dp0
Vcylgan8
p1
I1
sVd33ze4c
p2
I1
s.(dp0
Vcylgan8
p1
I1
sVd33ze4c
p2
I1
s.(dp0
Vd38wn2s
p1
I1
sVcylgan8
p2
I1
s.(dp0
Vcylgan8
p1
I1
sVd3gpjr4
p2
I1
s.(dp0
Vcylgan8
p1
I1
sVd3i1t64
p2
I1
s.(dp0
Vd3qy2zl
p1
I1
sVcylgan8
p2
I1
s.(dp0
Vd3td7fl
p1
I1
sVcylgan8
p2
I1
s.(dp0
Vd3tmr0g
p1
I1
sVcylgan8
p2
I1
s.(dp0
Vcylgan8
p1
I1
sVd3ufb2f
p2
I1
s.(dp0
Vd415f54
p1
I1
sVcylgan8
p2
I1
s.(dp0
Vd4h36bs
p1
I1
sVcylgan8
p2
I1
s.(dp0
Vd4s04a1
p1
I1
sVcylgan8
p2
I1
s.(dp0
Vcylgan8
p1
I1
sVd4zmirg
p2
I1
s.(dp0
Vd52pqji
p1
I1
sVcylgan8
p2
I1
s.(dp0
Vcylgan8
p1
I1
sVd5491dc
p2
I1
s.(dp0
Vcylgan8
p1
I1
sVd55ugjd
p2
I1
s.(dp0
Vd59riai
p1
I1
sVcylgan8
p2
I1
s.(dp0
Vd5errqs
p1
I1
sVcylgan8
p2
I1
s.(dp0
Vcylgan8
p1
I1
sVd5nm9bw
p2
I1
s.(dp0
Vcylgan8
p1
I1
sVd5nm9bw
p2
I1
s.(dp0
Vcylgan8
p1
I1
sVd6100i5
p2
I1
s.(dp0
Vd63as7j
p1
I1
sVcylgan8
p2
I1
s.(dp0
Vd656afe
p1
I1
sVcylgan8
p2
I1
s.(dp0
Vcylgan8
p1
I1
sVd656gq4
p2
I1
s.(dp0
Vd6crx4p
p1
I1
sVcylgan8
p2
I1
s.(dp0
Vd6dg9e4
p1
I1
sVcylgan8
p2
I1
s.(dp0
Vd6dg9e4
p1
I1
sVcylgan8
p2
I1
s.(dp0
Vd6dgenk
p1
I1
sVcylgan8
p2
I1
s.(dp0
Vd6dgenk
p1
I1
sVcylgan8
p2
I1
s.(dp0
Vd6dgenk
p1
I1
sVcylgan8
p2
I1
s.(dp0
Vd6hy8s7
p1
I1
sVcylgan8
p2
I1
s.(dp0
Vd6kt71g
p1
I1
sVcylgan8
p2
I1
s.(dp0
Vd6qm6yd
p1
I1
sVcylgan8
p2
I1
s.(dp0
Vcylgan8
p1
I1
sVd727r9r
p2
I1
s.(dp0
Vd7m26lk
p1
I1
sVcylgan8
p2
I1
s.(dp0
Vd7m26lk
p1
I1
sVcylgan8
p2
I1
s.(dp0
Vcylgan8
p1
I1
sVd7o1wpd
p2
I1
s.(dp0
Vcylgan8
p1
I1
sVd8gokes
p2
I1
s.(dp0
Vcylgan8
p1
I1
sVd8gokes
p2
I1
s.(dp0
Vcylgan8
p1
I1
sVd8gokes
p2
I1
s.(dp0
Vcylgan8
p1
I1
sVd8gokes
p2
I1
s.(dp0
Vcylgan8
p1
I1
sVd8gokes
p2
I1
s.(dp0
Vcylgan8
p1
I1
sVd8gokes
p2
I1
s.(dp0
Vcylgan8
p1
I1
sVd8gokes
p2
I1
s.(dp0
Vcylgan8
p1
I1
sVd8gokes
p2
I1
s.(dp0
Vcylgan8
p1
I1
sVd8gokes
p2
I1
s.(dp0
Vcylgan8
p1
I1
sVd8gokes
p2
I1
s.(dp0
Vcylgan8
p1
I1
sVd8kpo6h
p2
I1
s.(dp0
Vd8u6im2
p1
I1
sVcylgan8
p2
I1
s.(dp0
Vd8u6im2
p1
I1
sVcylgan8
p2
I1
s.(dp0
Vd8(dp0
Vcylgan8
p1
I1
sVdkmmpjg
p2
I1
s.