(dp0
Vcyrag5o
p1
I1
s.(dp0
Vcyrag5o
p1
I1
sVcyy94ce
p2
I1
s.(dp0
Vcyrag5o
p1
I1
sVcyy94ce
p2
I1
s.(dp0
Vcyrag5o
p1
I1
sVcz6b26r
p2
I1
s.(dp0
Vcyrag5o
p1
I1
sVczazm6i
p2
I1
s.(dp0
Vcyrag5o
p1
I1
sVczh5s8g
p2
I1
s.(dp0
Vcyrag5o
p1
I1
sVczi9gxo
p2
I1
s.(dp0
Vcyrag5o
p1
I1
sVcznt41b
p2
I1
s.(dp0
Vcyrag5o
p1
I1
sVczts6d2
p2
I1
s.(dp0
Vcyrag5o
p1
I1
sVczzfdoj
p2
I1
s.(dp0
Vd03glir
p1
I1
sVcyrag5o
p2
I1
s.(dp0
Vcyrag5o
p1
I1
sVd046kmi
p2
I1
s.(dp0
Vcyrag5o
p1
I1
sVd046kmi
p2
I1
s.(dp0
Vcyrag5o
p1
I1
sVd046kmi
p2
I1
s.(dp0
Vd04momx
p1
I1
sVcyrag5o
p2
I1
s.(dp0
Vcyrag5o
p1
I1
sVd076l3d
p2
I1
s.(dp0
Vcyrag5o
p1
I1
sVd08xl5k
p2
I1
s.(dp0
Vd0oph5c
p1
I1
sVcyrag5o
p2
I1
s.(dp0
Vd0oph5c
p1
I1
sVcyrag5o
p2
I1
s.(dp0
Vcyrag5o
p1
I1
sVd0utrp3
p2
I1
s.(dp0
Vcyrag5o
p1
I1
sVd101ukq
p2
I1
s.(dp0
Vd103igu
p1
I1
sVcyrag5o
p2
I1
s.(dp0
Vcyrag5o
p1
I1
sVd171lx2
p2
I1
s.(dp0
Vcyrag5o
p1
I1
sVd171lx2
p2
I1
s.(dp0
Vcyrag5o
p1
I1
sVd171lx2
p2
I1
s.(dp0
Vcyrag5o
p1
I1
sVd18v6wg
p2
I1
s.(dp0
Vcyrag5o
p1
I1
sVd1ng1bo
p2
I1
s.(dp0
Vcyrag5o
p1
I1
sVd1thf49
p2
I1
s.(dp0
Vcyrag5o
p1
I1
sVd1ypegy
p2
I1
s.(dp0
Vcyrag5o
p1
I1
sVd20pcc4
p2
I1
s.(dp0
Vcyrag5o
p1
I1
sVd26k3tt
p2
I1
s.(dp0
Vcyrag5o
p1
I1
sVd2nhg8h
p2
I1
s.(dp0
Vd3f1td7
p1
I1
sVcyrag5o
p2
I1
s.(dp0
Vd3hegr4
p1
I1
sVcyrag5o
p2
I1
s.(dp0
Vcyrag5o
p1
I1
sVd3l92xd
p2
I1
s.(dp0
Vd4o49gt
p1
I1
sVcyrag5o
p2
I1
s.(dp0
Vcyrag5o
p1
I1
sVd4pm767
p2
I1
s.(dp0
Vcyrag5o
p1
I1
sVd4snrj5
p2
I1
s.(dp0
Vcyrag5o
p1
I1
sVd4vfgpg
p2
I1
s.(dp0
Vcyrag5o
p1
I1
sVd4z3hb8
p2
I1
s.(dp0
Vcyrag5o
p1
I1
sVd4z3hb8
p2
I1
s.(dp0
Vcyrag5o
p1
I1
sVd4z3hb8
p2
I1
s.(dp0
Vd5vqw3c
p1
I1
sVcyrag5o
p2
I1
s.(dp0
Vcyrag5o
p1
I1
sVd6nw91r
p2
I1
s.(dp0
Vcyrag5o
p1
I1
sVd6qdvx9
p2
I1
s.(dp0
Vcyrag5o
p1
I1
sVd6s9x5p
p2
I1
s.(dp0
Vcyrag5o
p1
I1
sVd6wvzd9
p2
I1
s.(dp0
Vcyrag5o
p1
I1
sVd704qrl
p2
I1
s.(dp0
Vcyrag5o
p1
I1
sVd70o8i4
p2
I1
s.(dp0
Vd72ap58
p1
I1
sVcyrag5o
p2
I1
s.(dp0
Vcyrag5o
p1
I1
sVd73bc6i
p2
I1
s.(dp0
Vcyrag5o
p1
I1
sVd78z7zd
p2
I1
s.(dp0
Vcyrag5o
p1
I1
sVd7icpbu
p2
I1
s.(dp0
Vcyrag5o
p1
I1
sVd7icpbu
p2
I1
s.(dp0
Vcyrag5o
p1
I1
sVd7sn1e7
p2
I1
s.(dp0
Vcyrag5o
p1
I1
sVd7umwil
p2
I1
s.(dp0
Vcyrag5o
p1
I1
sVd7unf7f
p2
I1
s.(dp0
Vcyrag5o
p1
I1
sVd7wl7hv
p2
I1
s.(dp0
Vcyrag5o
p1
I1
sVd7wl7hv
p2
I1
s.(dp0
Vcyrag5o
p1
I1
sVd7wl7hv
p2
I1
s.(dp0
Vcyrag5o
p1
I1
sVd7wl7hv
p2
I1
s.(dp0
Vcyrag5o
p1
I1
sVd7wl7hv
p2
I1
s.(dp0
Vd828wos
p1
I1
sVcyrag5o
p2
I1
s.(dp0
Vcyrag5o
p1
I1
sVd82mj31
p2
I1
s.(dp0
Vcyrag5o
p1
I1
sVd84f634
p2
I1
s.(dp0
Vcyrag5o
p1
I1
sVd865w1w
p2
I1
s.(dp0
Vcyrag5o
p1
I1
sVd865w1w
p2
I1
s.(dp0
Vcyrag5o
p1
I1
sVd8t4ca9
p2
I1
s.(dp0
Vcyrag5o
p1
I1
sVd965u4q
p2
I1
s.(dp0
Vcyrag5o
p1
I1
sVd9hzh35
p2
I1
s.(dp0
Vcyrag5o
p1
I1
sVd9q1bvg
p2
I1
s.(dp0
Vd9rlfa3
p1
I1
sVcyrag5o
p2
I1
s.(dp0
Vcyrag5o
p1
I1
sVda5h2pd
p2
I1
s.(dp0
Vcyrag5o
p1
I1
sVda76s9s
p2
I1
s.(dp0
Vcyrag5o
p1
I1
sVdav60b0
p2
I1
s.(dp0
Vcyrag5o
p1
I1
sVdaz4kvb
p2
I1
s.(dp0
Vcyrag5o
p1
I1
sVdb5j6p9
p2
I1
s.(dp0
Vcyrag5o
p1
I1
sVdb9vjzl
p2
I1
s.(dp0
Vcyrag5o
p1
I1
sVdbbjifa
p2
I1
s.(dp0
Vdbbvab6
p1
I1
sVcyrag5o
p2
I1
s.(dp0
Vcyrag5o
p1
I1
sVdbbys0v
p2
I1
s.(dp0
Vcyrag5o
p1
I1
sVdbicmdr
p2
I1
s.(dp0
Vdbmobip
p1
I1
sVcyrag5o
p2
I1
s.(dp0
Vcyrag5o
p1
I1
sVdbybab0
p2
I1
s.(dp0
Vcyrag5o
p1
I1
sVdc3tp1p
p2
I1
s.(dp0
Vcyrag5o
p1
I1
sVdcobeqh
p2
I1
s.(dp0
Vdcsn9l6
p1
I1
sVcyrag5o
p2
I1
s.(dp0
Vcyrag5o
p1
I1
sVdcx3f2z
p2
I1
s.(dp0
Vcyrag5o
p1
I1
sVdd1oaw0
p2
I1
s.(dp0
Vcyrag5o
p1
I1
sVddej8g2
p2
I1
s.(dp0
Vcyrag5o
p1
I1
sVddrigzh
p2
I1
s.(dp0
Vcyrag5o
p1
I1
sVde01j31
p2
I1
s.(dp0
Vcyrag5o
p1
I1
sVde3thlf
p2
I1
s.(dp0
Vcyrag5o
p1
I1
sVde3thlf
p2
I1
s.(dp0
Vcyrag5o
p1
I1
sVde3xha7
p2
I1
s.(dp0
Vcyrag5o
p1
I1
sVde4y9z2
p2
I1
s.(dp0
Vcyrag5o
p1
I1
sVdestc05
p2
I1
s.(dp0
Vcyrag5o
p1
I1
sVdestc05
p2
I1
s.(dp0
Vcyrag5o
p1
I1
sVdestc05
p2
I1
s.(dp0
Vcyrag5o
p1
I1
sVdf5npmx
p2
I1
s.(dp0
Vcyrag5o
p1
I1
sVdfm7f89
p2
I1
s.(dp0
Vcyrag5o
p1
I1
sVdfwtm91
p2
I1
s.(dp0
Vcyrag5o
p1
I1
sVdfyp6ld
p2
I1
s.(dp0
Vcyrag5o
p1
I1
sVdgcpl28
p2
I1
s.(dp0
Vcyrag5o
p1
I1
sVdgcpl28
p2
I1
s.(dp0
Vcyrag5o
p1
I1
sVdgcpl28
p2
I1
s.(dp0
Vcyrag5o
p1
I1
sVdgqcvcp
p2
I1
s.(dp0
Vcyrag5o
p1
I1
sVdgqcvcp
p2
I1
s.(dp0
Vcy(dp0
Vcyrag5o
p1
I1
sVdknt4wd
p2
I1
s.