(dp0
Vcyrvhy6
p1
I1
s.(dp0
Vcyrvhy6
p1
I1
sVcyt4b64
p2
I1
s.(dp0
Vcyrvhy6
p1
I1
sVcyt4b64
p2
I1
s.(dp0
Vcz4t8ts
p1
I1
sVcyrvhy6
p2
I1
s.(dp0
Vcyrvhy6
p1
I1
sVcz5mntx
p2
I1
s.(dp0
Vczov5iy
p1
I1
sVcyrvhy6
p2
I1
s.(dp0
Vcyrvhy6
p1
I1
sVczywg9e
p2
I1
s.(dp0
Vcyrvhy6
p1
I1
sVd05e5di
p2
I1
s.(dp0
Vcyrvhy6
p1
I1
sVd05e5di
p2
I1
s.(dp0
Vcyrvhy6
p1
I1
sVd0co4e9
p2
I1
s.(dp0
Vcyrvhy6
p1
I1
sVd0cxhl0
p2
I1
s.(dp0
Vcyrvhy6
p1
I1
sVd0gyl7l
p2
I1
s.(dp0
Vcyrvhy6
p1
I1
sVd0jgpww
p2
I1
s.(dp0
Vcyrvhy6
p1
I1
sVd0kjmfg
p2
I1
s.(dp0
Vcyrvhy6
p1
I1
sVd0p4t3g
p2
I1
s.(dp0
Vd0qqrvm
p1
I1
sVcyrvhy6
p2
I1
s.(dp0
Vcyrvhy6
p1
I1
sVd11ks0i
p2
I1
s.(dp0
Vd12qtmj
p1
I1
sVcyrvhy6
p2
I1
s.(dp0
Vd15ovrx
p1
I1
sVcyrvhy6
p2
I1
s.(dp0
Vcyrvhy6
p1
I1
sVd1941ts
p2
I1
s.(dp0
Vd1fiufb
p1
I1
sVcyrvhy6
p2
I1
s.(dp0
Vcyrvhy6
p1
I1
sVd1jqcfk
p2
I1
s.(dp0
Vcyrvhy6
p1
I1
sVd35ul5e
p2
I1
s.(dp0
Vcyrvhy6
p1
I1
sVd3dzsay
p2
I1
s.(dp0
Vcyrvhy6
p1
I1
sVd3kbc3j
p2
I1
s.(dp0
Vcyrvhy6
p1
I1
sVd3o01ip
p2
I1
s.(dp0
Vd3pw634
p1
I1
sVcyrvhy6
p2
I1
s.(dp0
Vd48jaaj
p1
I1
sVcyrvhy6
p2
I1
s.(dp0
Vcyrvhy6
p1
I1
sVd4aw4nn
p2
I1
s.(dp0
Vcyrvhy6
p1
I1
sVd4aw4nn
p2
I1
s.(dp0
Vcyrvhy6
p1
I1
sVd4aw7ui
p2
I1
s.(dp0
Vcyrvhy6
p1
I1
sVd4aw7ui
p2
I1
s.(dp0
Vcyrvhy6
p1
I1
sVd4awavf
p2
I1
s.(dp0
Vd4b0w2p
p1
I1
sVcyrvhy6
p2
I1
s.(dp0
Vd4b0w2p
p1
I1
sVcyrvhy6
p2
I1
s.(dp0
Vd4b0w2p
p1
I1
sVcyrvhy6
p2
I1
s.(dp0
Vd4b0w2p
p1
I1
sVcyrvhy6
p2
I1
s.(dp0
Vd4b0w2p
p1
I1
sVcyrvhy6
p2
I1
s.(dp0
Vd4b0w2p
p1
I1
sVcyrvhy6
p2
I1
s.(dp0
Vcyrvhy6
p1
I1
sVd4r0jlm
p2
I1
s.(dp0
Vd4z7tdl
p1
I1
sVcyrvhy6
p2
I1
s.(dp0
Vd4z7tdl
p1
I1
sVcyrvhy6
p2
I1
s.(dp0
Vd4z7tdl
p1
I1
sVcyrvhy6
p2
I1
s.(dp0
Vcyrvhy6
p1
I1
sVd4zbafq
p2
I1
s.(dp0
Vd6ps6ex
p1
I1
sVcyrvhy6
p2
I1
s.(dp0
Vd6ps6ex
p1
I1
sVcyrvhy6
p2
I1
s.(dp0
Vcyrvhy6
p1
I1
sVd6pthuj
p2
I1
s.(dp0
Vd6qi8h2
p1
I1
sVcyrvhy6
p2
I1
s.(dp0
Vd6qi8h2
p1
I1
sVcyrvhy6
p2
I1
s.(dp0
Vd6qi8h2
p1
I1
sVcyrvhy6
p2
I1
s.(dp0
Vd6qi8h2
p1
I1
sVcyrvhy6
p2
I1
s.(dp0
Vd75r0wm
p1
I1
sVcyrvhy6
p2
I1
s.(dp0
Vcyrvhy6
p1
I1
sVd7bfj8c
p2
I1
s.(dp0
Vcyrvhy6
p1
I1
sVd7bfj8c
p2
I1
s.(dp0
Vd7eff4s
p1
I1
sVcyrvhy6
p2
I1
s.(dp0
Vcyrvhy6
p1
I1
sVd7jea1f
p2
I1
s.(dp0
Vcyrvhy6
p1
I1
sVd8920it
p2
I1
s.(dp0
Vd8o9g8h
p1
I1
sVcyrvhy6
p2
I1
s.(dp0
Vcyrvhy6
p1
I1
sVd9his7f
p2
I1
s.(dp0
Vcyrvhy6
p1
I1
sVdbso7rh
p2
I1
s.(dp0
Vcyrvhy6
p1
I1
sVdc70p2f
p2
I1
s.(dp0
Vcyrvhy6
p1
I1
sVdc70p2f
p2
I1
s.(dp0
Vcyrvhy6
p1
I1
sVdc70p2f
p2
I1
s.(dp0
Vcyrvhy6
p1
I1
sVdc70p2f
p2
I1
s.(dp0
Vcyrvhy6
p1
I1
sVdc70p2f
p2
I1
s.(dp0
Vcyrvhy6
p1
I1
sVdc70p2f
p2
I1
s.(dp0
Vcyrvhy6
p1
I1
sVdc70p2f
p2
I1
s.(dp0
Vcyrvhy6
p1
I1
sVdckjpgi
p2
I1
s.(dp0
Vcyrvhy6
p1
I1
sVdckjpgi
p2
I1
s.(dp0
Vcyrvhy6
p1
I1
sVdckjpgi
p2
I1
s.(dp0
Vcyrvhy6
p1
I1
sVdcxbwwx
p2
I1
s.(dp0
Vcyrvhy6
p1
I1
sVddan6kj
p2
I1
s.(dp0
Vddbteao
p1
I1
sVcyrvhy6
p2
I1
s.(dp0
Vddbteao
p1
I1
sVcyrvhy6
p2
I1
s.(dp0
Vcyrvhy6
p1
I1
sVddja91b
p2
I1
s.(dp0
Vddt0t2y
p1
I1
sVcyrvhy6
p2
I1
s.(dp0
Vcyrvhy6
p1
I1
sVdelawd7
p2
I1
s.(dp0
Vcyrvhy6
p1
I1
sVdeyp88a
p2
I1
s.(dp0
Vcyrvhy6
p1
I1
sVdf5q3nf
p2
I1
s.(dp0
Vcyrvhy6
p1
I1
sVdfj7fui
p2
I1
s.(dp0
Vcyrvhy6
p1
I1
sVdg3bcq6
p2
I1
s.(dp0
Vcyrvhy6
p1
I1
sVdg8bxb2
p2
I1
s.(dp0
Vcyrvhy6
p1
I1
sVdgykiix
p2
I1
s.(dp0
Vcyrvhy6
p1
I1
sVdgziye7
p2
I1
s.(dp0
Vcyrvhy6
p1
I1
sVdgzl41h
p2
I1
s.(dp0
Vdhehetv
p1
I1
sVcyrvhy6
p2
I1
s.(dp0
Vcyrvhy6
p1
I1
sVdhs2v3e
p2
I1
s.(dp0
Vcyrvhy6
p1
I1
sVdi20jhd
p2
I1
s.(dp0
Vcyrvhy6
p1
I1
sVdi24gzl
p2
I1
s.(dp0
Vcyrvhy6
p1
I1
sVdi26r3l
p2
I1
s.(dp0
Vcyrvhy6
p1
I1
sVdi27y46
p2
I1
s.(dp0
Vcyrvhy6
p1
I1
sVdi2c9fw
p2
I1
s.(dp0
Vcyrvhy6
p1
I1
sVdi2c9fw
p2
I1
s.(dp0
Vcyrvhy6
p1
I1
sVdi2c9fw
p2
I1
s.(dp0
Vcyrvhy6
p1
I1
sVdi2c9fw
p2
I1
s.(dp0
Vcyrvhy6
p1
I1
sVdi2eeyi
p2
I1
s.(dp0
Vcyrvhy6
p1
I1
sVdi2eeyi
p2
I1
s.(dp0
Vcyrvhy6
p1
I1
sVdi2eeyi
p2
I1
s.(dp0
Vcyrvhy6
p1
I1
sVdi2eeyi
p2
I1
s.(dp0
Vcyrvhy6
p1
I1
sVdi2eeyi
p2
I1
s.(dp0
Vcyrvhy6
p1
I1
sVdi2eeyi
p2
I1
s.(dp0
Vcyrvhy6
p1
I1
sVdi2eeyi
p2
I1
s.(dp0
Vcyrvhy6
p1
I1
sVdi2rs74
p2
I1
s.(dp0
Vcyrvhy6
p1
I1
sVdi2rs74
p2
I1
s.(dp0
Vcyrvhy6
p1
I1
sVdi2rs74
p2
I1
s.(dp0
Vcyrvhy6
p1
I1
sVdi2rs74
p2
I1
s.(dp0
Vcyrvhy6
p1
I1
sVdi2rs74
p2
I1
s.(dp0
Vcyrvhy6
p1
I1
sVdi2rs74
p2
I1
s.(dp0
Vcy(dp0
Vdiidfsk
p1
I1
sVcyrvhy6
p2
I1
s.