(dp0
Vcyj6gxj
p1
I1
s.(dp0
Vcyj6gxj
p1
I2
s.(dp0
Vcyj6gxj
p1
I1
sVcynsr7m
p2
I1
s.(dp0
Vcynv73y
p1
I1
sVcyj6gxj
p2
I1
s.(dp0
Vcyj6gxj
p1
I1
sVcynwbf2
p2
I1
s.(dp0
Vcyj6gxj
p1
I1
sVcyp5odn
p2
I1
s.(dp0
Vcyj6gxj
p1
I1
sVcyp5odn
p2
I1
s.(dp0
Vcypr1hp
p1
I1
sVcyj6gxj
p2
I1
s.(dp0
Vcyj6gxj
p1
I1
sVcytwvos
p2
I1
s.(dp0
Vcyj6gxj
p1
I1
sVcywjit9
p2
I1
s.(dp0
Vcyj6gxj
p1
I1
sVcywjit9
p2
I1
s.(dp0
Vcyj6gxj
p1
I1
sVcyzofw2
p2
I1
s.(dp0
Vcyj6gxj
p1
I1
sVcz236ww
p2
I1
s.(dp0
Vcyj6gxj
p1
I1
sVcz2nl3x
p2
I1
s.(dp0
Vcyj6gxj
p1
I1
sVcz2pso7
p2
I1
s.(dp0
Vcyj6gxj
p1
I1
sVcz2pso7
p2
I1
s.(dp0
Vcyj6gxj
p1
I1
sVcz323ux
p2
I1
s.(dp0
Vcz37j1h
p1
I1
sVcyj6gxj
p2
I1
s.(dp0
Vczbnosi
p1
I1
sVcyj6gxj
p2
I1
s.(dp0
Vcyj6gxj
p1
I1
sVczd253b
p2
I1
s.(dp0
Vcyj6gxj
p1
I1
sVczdg3gc
p2
I1
s.(dp0
Vcyj6gxj
p1
I1
sVczdg3gc
p2
I1
s.(dp0
Vcyj6gxj
p1
I1
sVczgs71v
p2
I1
s.(dp0
Vczidtye
p1
I1
sVcyj6gxj
p2
I1
s.(dp0
Vczidtye
p1
I1
sVcyj6gxj
p2
I1
s.(dp0
Vczidtye
p1
I1
sVcyj6gxj
p2
I1
s.(dp0
Vczidtye
p1
I1
sVcyj6gxj
p2
I1
s.(dp0
Vczidtye
p1
I1
sVcyj6gxj
p2
I1
s.(dp0
Vczidtye
p1
I1
sVcyj6gxj
p2
I1
s.(dp0
Vcyj6gxj
p1
I1
sVczjcllu
p2
I1
s.(dp0
Vczktwd2
p1
I1
sVcyj6gxj
p2
I1
s.(dp0
Vczmfi09
p1
I1
sVcyj6gxj
p2
I1
s.(dp0
Vczobp64
p1
I1
sVcyj6gxj
p2
I1
s.(dp0
Vcyj6gxj
p1
I1
sVczod1g3
p2
I1
s.(dp0
Vcyj6gxj
p1
I1
sVczod1g3
p2
I1
s.(dp0
Vczoq1al
p1
I1
sVcyj6gxj
p2
I1
s.(dp0
Vczp54e3
p1
I1
sVcyj6gxj
p2
I1
s.(dp0
Vcyj6gxj
p1
I1
sVczrcuya
p2
I1
s.(dp0
Vczrk13m
p1
I1
sVcyj6gxj
p2
I1
s.(dp0
Vczs2t72
p1
I1
sVcyj6gxj
p2
I1
s.(dp0
Vcyj6gxj
p1
I1
sVczs36e3
p2
I1
s.(dp0
Vcyj6gxj
p1
I1
sVczs36e3
p2
I1
s.(dp0
Vcyj6gxj
p1
I1
sVczs36e3
p2
I1
s.(dp0
Vcyj6gxj
p1
I1
sVczs36e3
p2
I1
s.(dp0
Vcztdt6t
p1
I1
sVcyj6gxj
p2
I1
s.(dp0
Vczthbhp
p1
I1
sVcyj6gxj
p2
I1
s.(dp0
Vczu7367
p1
I1
sVcyj6gxj
p2
I1
s.(dp0
Vczu7367
p1
I1
sVcyj6gxj
p2
I1
s.(dp0
Vcyj6gxj
p1
I1
sVczu7sxz
p2
I1
s.(dp0
Vczxl93k
p1
I1
sVcyj6gxj
p2
I1
s.(dp0
Vcyj6gxj
p1
I1
sVczyxn5m
p2
I1
s.(dp0
Vd00mh1f
p1
I1
sVcyj6gxj
p2
I1
s.(dp0
Vd00mh1f
p1
I1
sVcyj6gxj
p2
I1
s.(dp0
Vcyj6gxj
p1
I1
sVd04tbzh
p2
I1
s.(dp0
Vcyj6gxj
p1
I1
sVd05qgld
p2
I1
s.(dp0
Vcyj6gxj
p1
I1
sVd060wny
p2
I1
s.(dp0
Vd06bakr
p1
I1
sVcyj6gxj
p2
I1
s.(dp0
Vcyj6gxj
p1
I1
sVd06bdot
p2
I1
s.(dp0
Vcyj6gxj
p1
I1
sVd074v35
p2
I1
s.(dp0
Vcyj6gxj
p1
I1
sVd091ecz
p2
I1
s.(dp0
Vcyj6gxj
p1
I1
sVd091ecz
p2
I1
s.(dp0
Vcyj6gxj
p1
I1
sVd09l1fz
p2
I1
s.(dp0
Vcyj6gxj
p1
I1
sVd0bwx2w
p2
I1
s.(dp0
Vd0cidz0
p1
I1
sVcyj6gxj
p2
I1
s.(dp0
Vcyj6gxj
p1
I1
sVd0dyq7x
p2
I1
s.(dp0
Vd0eyn8f
p1
I1
sVcyj6gxj
p2
I1
s.(dp0
Vcyj6gxj
p1
I1
sVd0gjjcn
p2
I1
s.(dp0
Vcyj6gxj
p1
I1
sVd0gl7o7
p2
I1
s.(dp0
Vd0gqp65
p1
I1
sVcyj6gxj
p2
I1
s.(dp0
Vcyj6gxj
p1
I1
sVd0hii9c
p2
I1
s.(dp0
Vcyj6gxj
p1
I1
sVd0hii9c
p2
I1
s.(dp0
Vcyj6gxj
p1
I1
sVd0hii9c
p2
I1
s.(dp0
Vcyj6gxj
p1
I1
sVd0hii9c
p2
I1
s.(dp0
Vcyj6gxj
p1
I1
sVd0hii9c
p2
I1
s.(dp0
Vcyj6gxj
p1
I1
sVd0hii9c
p2
I1
s.(dp0
Vcyj6gxj
p1
I1
sVd0hii9c
p2
I1
s.(dp0
Vcyj6gxj
p1
I1
sVd0i0dun
p2
I1
s.(dp0
Vcyj6gxj
p1
I1
sVd0icb5l
p2
I1
s.(dp0
Vcyj6gxj
p1
I1
sVd0lniip
p2
I1
s.(dp0
Vcyj6gxj
p1
I1
sVd0s3o2m
p2
I1
s.(dp0
Vd0x8g8e
p1
I1
sVcyj6gxj
p2
I1
s.(dp0
Vd0x8g8e
p1
I1
sVcyj6gxj
p2
I1
s.(dp0
Vd0x8g8e
p1
I1
sVcyj6gxj
p2
I1
s.(dp0
Vd0z3z99
p1
I1
sVcyj6gxj
p2
I1
s.(dp0
Vd0zo2qt
p1
I1
sVcyj6gxj
p2
I1
s.(dp0
Vcyj6gxj
p1
I1
sVd1198fv
p2
I1
s.(dp0
Vd121poe
p1
I1
sVcyj6gxj
p2
I1
s.(dp0
Vcyj6gxj
p1
I1
sVd126g2i
p2
I1
s.(dp0
Vcyj6gxj
p1
I1
sVd126g2i
p2
I1
s.(dp0
Vd127qpf
p1
I1
sVcyj6gxj
p2
I1
s.(dp0
Vcyj6gxj
p1
I1
sVd128o63
p2
I1
s.(dp0
Vcyj6gxj
p1
I1
sVd128o63
p2
I1
s.(dp0
Vd12d2hm
p1
I1
sVcyj6gxj
p2
I1
s.(dp0
Vd12u0vk
p1
I1
sVcyj6gxj
p2
I1
s.(dp0
Vcyj6gxj
p1
I1
sVd14wu7b
p2
I1
s.(dp0
Vcyj6gxj
p1
I1
sVd14wu7b
p2
I1
s.(dp0
Vcyj6gxj
p1
I1
sVd15feyr
p2
I1
s.(dp0
Vcyj6gxj
p1
I1
sVd15feyr
p2
I1
s.(dp0
Vcyj6gxj
p1
I1
sVd16y81k
p2
I1
s.(dp0
Vd17j9i3
p1
I1
sVcyj6gxj
p2
I1
s.(dp0
Vcyj6gxj
p1
I1
sVd17tadk
p2
I1
s.(dp0
Vcyj6gxj
p1
I1
sVd191s1p
p2
I1
s.(dp0
Vcyj6gxj
p1
I1
sVd191s1p
p2
I1
s.(dp0
Vd1eu0rm
p1
I1
sVcyj6gxj
p2
I1
s.(dp0
Vcyj6gxj
p1
I1
sVd1joxjc
p2
I1
s.(dp0
Vd1k9x9b
p1
I1
sVcyj6gxj
p2
I1
s.(dp0
Vcyj6gxj
p1
I1
sVd1ovemc
p2
I1
s.(dp0
Vcyj6gxj
p1
I1
sVd1qi6a4
p2
I1
s.(dp0
Vcyj6gxj
p1
I1
sVd1(dp0
Vcyj6gxj
p1
I1
sVdky4i1s
p2
I1
s.