(dp0
Vczpuvu0
p1
I1
s.(dp0
Vczq71bf
p1
I1
sVczpuvu0
p2
I1
s.(dp0
Vczq71bf
p1
I1
sVczpuvu0
p2
I1
s.(dp0
Vd0awv0j
p1
I1
sVczpuvu0
p2
I1
s.(dp0
Vd0nl8cn
p1
I1
sVczpuvu0
p2
I1
s.(dp0
Vd22kkra
p1
I1
sVczpuvu0
p2
I1
s.(dp0
Vd3p47g3
p1
I1
sVczpuvu0
p2
I1
s.(dp0
Vczpuvu0
p1
I1
sVd536on3
p2
I1
s.(dp0
Vd6pn9jz
p1
I1
sVczpuvu0
p2
I1
s.(dp0
Vd6pn9jz
p1
I1
sVczpuvu0
p2
I1
s.(dp0
Vd6pn9jz
p1
I1
sVczpuvu0
p2
I1
s.(dp0
Vd7o8dz1
p1
I1
sVczpuvu0
p2
I1
s.(dp0
Vczpuvu0
p1
I1
sVddfjymc
p2
I1
s.(dp0
Vczpuvu0
p1
I1
sVddfjymc
p2
I1
s.(dp0
Vczpuvu0
p1
I1
sVddfjymc
p2
I1
s.(dp0
Vczpuvu0
p1
I1
sVddx5w3s
p2
I1
s.(dp0
Vczpuvu0
p1
I1
sVden1wxt
p2
I1
s.(dp0
Vdeubg0k
p1
I1
sVczpuvu0
p2
I1
s.(dp0
Vdeubg0k
p1
I1
sVczpuvu0
p2
I1
s.(dp0
Vdeubg0k
p1
I1
sVczpuvu0
p2
I1
s.(dp0
Vdeubg0k
p1
I1
sVczpuvu0
p2
I1
s.(dp0
Vdeubg0k
p1
I1
sVczpuvu0
p2
I1
s.(dp0
Vdexl3ds
p1
I1
sVczpuvu0
p2
I1
s.(dp0
Vczpuvu0
p1
I1
sVdfnl8vo
p2
I1
s.(dp0
Vczpuvu0
p1
I1
sVdfnl8vo
p2
I1
s.(dp0
Vdjwkyb2
p1
I1
sVczpuvu0
p2
I1
s.(dp0
Vdjwkyb2
p1
I1
sVczpuvu0
p2
I1
s.(dp0
Vdk0jmxw
p1
I1
sVczpuvu0
p2
I1
s.