(dp0
Vcypizzy
p1
I1
s.(dp0
Vcypizzy
p1
I1
sVd2qtmuq
p2
I1
s.(dp0
Vd46lxh7
p1
I1
sVcypizzy
p2
I1
s.(dp0
Vd4rc2e5
p1
I1
sVcypizzy
p2
I1
s.(dp0
Vd5g5l11
p1
I1
sVcypizzy
p2
I1
s.(dp0
Vd6v0u4z
p1
I1
sVcypizzy
p2
I1
s.(dp0
Vcypizzy
p1
I1
sVd9zkxxl
p2
I1
s.(dp0
Vdblg4gg
p1
I1
sVcypizzy
p2
I1
s.(dp0
Vdcq9d7a
p1
I1
sVcypizzy
p2
I1
s.(dp0
Vdewtxau
p1
I1
sVcypizzy
p2
I1
s.(dp0
Vdgeqk6z
p1
I1
sVcypizzy
p2
I1
s.(dp0
Vdgxld54
p1
I1
sVcypizzy
p2
I1
s.(dp0
Vdh2bo2i
p1
I1
sVcypizzy
p2
I1
s.(dp0
Vcypizzy
p1
I1
sVdhqkpkm
p2
I1
s.(dp0
Vdj7ds9r
p1
I1
sVcypizzy
p2
I1
s.(dp0
Vdkjogfq
p1
I1
sVcypizzy
p2
I1
s.