(dp0
Vcyhvg8p
p1
I1
s.(dp0
Vcyhvg8p
p1
I1
sVcykfpce
p2
I1
s.(dp0
Vcyhvg8p
p1
I1
sVcymuoz1
p2
I1
s.(dp0
Vcyhvg8p
p1
I1
sVcyn1175
p2
I1
s.(dp0
Vcyhvg8p
p1
I1
sVcyo5w9l
p2
I1
s.(dp0
Vcyhvg8p
p1
I1
sVcyp5odn
p2
I1
s.(dp0
Vcyhvg8p
p1
I1
sVcypgsmm
p2
I1
s.(dp0
Vcyhvg8p
p1
I1
sVcyqy3ld
p2
I1
s.(dp0
Vcyhvg8p
p1
I1
sVcyr7fqi
p2
I1
s.(dp0
Vcyhvg8p
p1
I1
sVcytojae
p2
I1
s.(dp0
Vcyhvg8p
p1
I1
sVcyzkoxy
p2
I1
s.(dp0
Vcyhvg8p
p1
I1
sVcz2n2mj
p2
I1
s.(dp0
Vcyhvg8p
p1
I1
sVcz3gpor
p2
I1
s.(dp0
Vcyhvg8p
p1
I1
sVcz5r944
p2
I1
s.(dp0
Vcyhvg8p
p1
I1
sVczafhba
p2
I1
s.(dp0
Vczc9lhg
p1
I1
sVcyhvg8p
p2
I1
s.(dp0
Vcyhvg8p
p1
I1
sVczdr112
p2
I1
s.(dp0
Vcyhvg8p
p1
I1
sVczeipiq
p2
I1
s.(dp0
Vcyhvg8p
p1
I1
sVczkywnx
p2
I1
s.(dp0
Vcyhvg8p
p1
I1
sVczl8uo0
p2
I1
s.(dp0
Vcyhvg8p
p1
I1
sVczmb3t7
p2
I1
s.(dp0
Vcyhvg8p
p1
I1
sVczmb3t7
p2
I1
s.(dp0
Vcyhvg8p
p1
I1
sVczmx646
p2
I1
s.(dp0
Vcyhvg8p
p1
I1
sVcznb9kv
p2
I1
s.(dp0
Vcyhvg8p
p1
I1
sVczolh9y
p2
I1
s.(dp0
Vczp9psd
p1
I1
sVcyhvg8p
p2
I1
s.(dp0
Vcyhvg8p
p1
I1
sVczs590z
p2
I1
s.(dp0
Vcyhvg8p
p1
I1
sVczs590z
p2
I1
s.(dp0
Vcyhvg8p
p1
I1
sVczt2e1m
p2
I1
s.(dp0
Vczw0w0v
p1
I1
sVcyhvg8p
p2
I1
s.(dp0
Vcyhvg8p
p1
I1
sVd01530t
p2
I1
s.(dp0
Vcyhvg8p
p1
I1
sVd02fjrm
p2
I1
s.(dp0
Vcyhvg8p
p1
I1
sVd03mddt
p2
I1
s.(dp0
Vcyhvg8p
p1
I1
sVd051ux1
p2
I1
s.(dp0
Vcyhvg8p
p1
I1
sVd062zjc
p2
I1
s.(dp0
Vd0etmk6
p1
I1
sVcyhvg8p
p2
I1
s.(dp0
Vd0izja5
p1
I1
sVcyhvg8p
p2
I1
s.(dp0
Vcyhvg8p
p1
I1
sVd0ln3od
p2
I1
s.(dp0
Vcyhvg8p
p1
I1
sVd0mexzh
p2
I1
s.(dp0
Vcyhvg8p
p1
I1
sVd0oge2i
p2
I1
s.(dp0
Vcyhvg8p
p1
I1
sVd0p3y9r
p2
I1
s.(dp0
Vd0s7kid
p1
I1
sVcyhvg8p
p2
I1
s.(dp0
Vcyhvg8p
p1
I1
sVd0sinm0
p2
I1
s.(dp0
Vcyhvg8p
p1
I1
sVd0sinm0
p2
I1
s.(dp0
Vcyhvg8p
p1
I1
sVd0syjx6
p2
I1
s.(dp0
Vcyhvg8p
p1
I1
sVd115oyv
p2
I1
s.(dp0
Vcyhvg8p
p1
I1
sVd120804
p2
I1
s.(dp0
Vcyhvg8p
p1
I1
sVd15mwco
p2
I1
s.(dp0
Vd16u68z
p1
I1
sVcyhvg8p
p2
I1
s.(dp0
Vd17mwh7
p1
I1
sVcyhvg8p
p2
I1
s.(dp0
Vcyhvg8p
p1
I1
sVd1ekwx1
p2
I1
s.(dp0
Vcyhvg8p
p1
I1
sVd1f0g33
p2
I1
s.(dp0
Vcyhvg8p
p1
I1
sVd1ggg4n
p2
I1
s.(dp0
Vcyhvg8p
p1
I1
sVd1glew9
p2
I1
s.(dp0
Vcyhvg8p
p1
I1
sVd1glew9
p2
I1
s.(dp0
Vcyhvg8p
p1
I1
sVd1gruxo
p2
I1
s.(dp0
Vcyhvg8p
p1
I1
sVd1gza9h
p2
I1
s.(dp0
Vcyhvg8p
p1
I1
sVd1hy0hu
p2
I1
s.(dp0
Vcyhvg8p
p1
I1
sVd1hy0hu
p2
I1
s.(dp0
Vcyhvg8p
p1
I1
sVd1hy0hu
p2
I1
s.(dp0
Vcyhvg8p
p1
I1
sVd1ktepw
p2
I1
s.(dp0
Vcyhvg8p
p1
I1
sVd1ogb8u
p2
I1
s.(dp0
Vcyhvg8p
p1
I1
sVd1pgbib
p2
I1
s.(dp0
Vd1r0tqi
p1
I1
sVcyhvg8p
p2
I1
s.(dp0
Vcyhvg8p
p1
I1
sVd1ws0hk
p2
I1
s.(dp0
Vd1znfe8
p1
I1
sVcyhvg8p
p2
I1
s.(dp0
Vcyhvg8p
p1
I1
sVd22rojg
p2
I1
s.(dp0
Vcyhvg8p
p1
I1
sVd260av0
p2
I1
s.(dp0
Vd274mkz
p1
I1
sVcyhvg8p
p2
I1
s.(dp0
Vcyhvg8p
p1
I1
sVd27do2y
p2
I1
s.(dp0
Vcyhvg8p
p1
I1
sVd29za2z
p2
I1
s.(dp0
Vd2bx69w
p1
I1
sVcyhvg8p
p2
I1
s.(dp0
Vcyhvg8p
p1
I1
sVd2dh3t1
p2
I1
s.(dp0
Vcyhvg8p
p1
I1
sVd2e1rgs
p2
I1
s.(dp0
Vcyhvg8p
p1
I1
sVd2gc7ai
p2
I1
s.(dp0
Vcyhvg8p
p1
I1
sVd2i8irw
p2
I1
s.(dp0
Vcyhvg8p
p1
I1
sVd2j8soj
p2
I1
s.(dp0
Vcyhvg8p
p1
I1
sVd2l8y8g
p2
I1
s.(dp0
Vcyhvg8p
p1
I1
sVd2nbhyh
p2
I1
s.(dp0
Vcyhvg8p
p1
I1
sVd2odwol
p2
I1
s.(dp0
Vd2oujz5
p1
I1
sVcyhvg8p
p2
I1
s.(dp0
Vcyhvg8p
p1
I1
sVd2pks6n
p2
I1
s.(dp0
Vcyhvg8p
p1
I1
sVd2rqvgh
p2
I1
s.(dp0
Vd2vwohp
p1
I1
sVcyhvg8p
p2
I1
s.(dp0
Vcyhvg8p
p1
I1
sVd2w9pwc
p2
I1
s.(dp0
Vd2zhhb9
p1
I1
sVcyhvg8p
p2
I1
s.(dp0
Vcyhvg8p
p1
I1
sVd33xudm
p2
I1
s.(dp0
Vcyhvg8p
p1
I1
sVd3bkpon
p2
I1
s.(dp0
Vcyhvg8p
p1
I1
sVd3bwpv8
p2
I1
s.(dp0
Vd3cjn4l
p1
I1
sVcyhvg8p
p2
I1
s.(dp0
Vcyhvg8p
p1
I1
sVd3f2y54
p2
I1
s.(dp0
Vcyhvg8p
p1
I1
sVd3gi40r
p2
I1
s.(dp0
Vd3sctbb
p1
I1
sVcyhvg8p
p2
I1
s.(dp0
Vcyhvg8p
p1
I1
sVd3y4jdn
p2
I1
s.(dp0
Vcyhvg8p
p1
I1
sVd416i8e
p2
I1
s.(dp0
Vcyhvg8p
p1
I1
sVd416i8e
p2
I1
s.(dp0
Vcyhvg8p
p1
I1
sVd419zf3
p2
I1
s.(dp0
Vcyhvg8p
p1
I1
sVd477sd8
p2
I1
s.(dp0
Vcyhvg8p
p1
I1
sVd49kubo
p2
I1
s.(dp0
Vcyhvg8p
p1
I1
sVd4d0f8b
p2
I1
s.(dp0
Vcyhvg8p
p1
I1
sVd4gdq5z
p2
I1
s.(dp0
Vd4o5r05
p1
I1
sVcyhvg8p
p2
I1
s.(dp0
Vd4qj5es
p1
I1
sVcyhvg8p
p2
I1
s.(dp0
Vcyhvg8p
p1
I1
sVd4qm9bl
p2
I1
s.(dp0
Vd4qtpb0
p1
I1
sVcyhvg8p
p2
I1
s.(dp0
Vd5381wj
p1
I1
sVcyhvg8p
p2
I1
s.(dp0
Vd538qmu
p1
I1
sVcyhvg8p
p2
I1
s.(dp0
Vcyhvg8p
p1
I1
sVd5546nc
p2
I1
s.(dp0
Vcy(dp0
Vcyhvg8p
p1
I1
sVdkzgcv9
p2
I1
s.