(dp0
Vcyi96du
p1
I1
s.(dp0
Vcyxecr4
p1
I1
sVcyi96du
p2
I1
s.(dp0
Vcyyykub
p1
I1
sVcyi96du
p2
I1
s.(dp0
Vczskiwj
p1
I1
sVcyi96du
p2
I1
s.(dp0
Vd3jp513
p1
I1
sVcyi96du
p2
I1
s.(dp0
Vd3tfg7q
p1
I1
sVcyi96du
p2
I1
s.(dp0
Vd6ztcjx
p1
I1
sVcyi96du
p2
I1
s.(dp0
Vdawrm7c
p1
I1
sVcyi96du
p2
I1
s.(dp0
Vddtbenn
p1
I1
sVcyi96du
p2
I1
s.(dp0
Vdh6847h
p1
I1
sVcyi96du
p2
I1
s.(dp0
Vdhgavb2
p1
I1
sVcyi96du
p2
I1
s.