(dp0
Vcyz2617
p1
I1
s.(dp0
Vcyz2617
p1
I1
sVcz68p94
p2
I1
s.(dp0
Vcz8s300
p1
I1
sVcyz2617
p2
I1
s.(dp0
Vczi188u
p1
I1
sVcyz2617
p2
I1
s.(dp0
Vczi75oy
p1
I1
sVcyz2617
p2
I1
s.(dp0
Vczi76se
p1
I1
sVcyz2617
p2
I1
s.(dp0
Vczi76se
p1
I1
sVcyz2617
p2
I1
s.(dp0
Vczi76se
p1
I1
sVcyz2617
p2
I1
s.(dp0
Vczi76se
p1
I1
sVcyz2617
p2
I1
s.(dp0
Vczi76se
p1
I1
sVcyz2617
p2
I1
s.(dp0
Vczi76se
p1
I1
sVcyz2617
p2
I1
s.(dp0
Vcyz2617
p1
I1
sVczksno6
p2
I1
s.(dp0
Vcznun9n
p1
I1
sVcyz2617
p2
I1
s.(dp0
Vcyz2617
p1
I1
sVczv23q3
p2
I1
s.(dp0
Vd0js143
p1
I1
sVcyz2617
p2
I1
s.(dp0
Vcyz2617
p1
I1
sVd11qux4
p2
I1
s.(dp0
Vd1agz5z
p1
I1
sVcyz2617
p2
I1
s.(dp0
Vcyz2617
p1
I1
sVd1q4beu
p2
I1
s.(dp0
Vcyz2617
p1
I1
sVd23o82j
p2
I1
s.(dp0
Vcyz2617
p1
I1
sVd2g02uq
p2
I1
s.(dp0
Vd3bv4pj
p1
I1
sVcyz2617
p2
I1
s.(dp0
Vd3xd7sh
p1
I1
sVcyz2617
p2
I1
s.(dp0
Vcyz2617
p1
I1
sVd4c6b33
p2
I1
s.(dp0
Vcyz2617
p1
I1
sVd53403e
p2
I1
s.(dp0
Vcyz2617
p1
I1
sVd5rai2u
p2
I1
s.(dp0
Vd5tcda5
p1
I1
sVcyz2617
p2
I1
s.(dp0
Vd65yner
p1
I1
sVcyz2617
p2
I1
s.(dp0
Vd6akz4x
p1
I1
sVcyz2617
p2
I1
s.(dp0
Vd6boj6s
p1
I1
sVcyz2617
p2
I1
s.(dp0
Vd6bomy1
p1
I1
sVcyz2617
p2
I1
s.(dp0
Vcyz2617
p1
I1
sVd6bop9w
p2
I1
s.(dp0
Vcyz2617
p1
I1
sVd6bop9w
p2
I1
s.(dp0
Vcyz2617
p1
I1
sVd6bop9w
p2
I1
s.(dp0
Vd6bpy20
p1
I1
sVcyz2617
p2
I1
s.(dp0
Vd6bpy20
p1
I1
sVcyz2617
p2
I1
s.(dp0
Vd6bpy20
p1
I1
sVcyz2617
p2
I1
s.(dp0
Vd6bpy20
p1
I1
sVcyz2617
p2
I1
s.(dp0
Vd6bpy20
p1
I1
sVcyz2617
p2
I1
s.(dp0
Vcyz2617
p1
I1
sVd6d7jrr
p2
I1
s.(dp0
Vcyz2617
p1
I1
sVd7v726n
p2
I1
s.(dp0
Vd8aq57k
p1
I1
sVcyz2617
p2
I1
s.(dp0
Vd8ba0qb
p1
I1
sVcyz2617
p2
I1
s.(dp0
Vd9e9qi9
p1
I1
sVcyz2617
p2
I1
s.(dp0
Vcyz2617
p1
I1
sVd9pqfa7
p2
I1
s.(dp0
Vcyz2617
p1
I1
sVd9pqfa7
p2
I1
s.(dp0
Vd9t32gt
p1
I1
sVcyz2617
p2
I1
s.(dp0
Vd9t32gt
p1
I1
sVcyz2617
p2
I1
s.(dp0
Vcyz2617
p1
I1
sVd9vnnbj
p2
I1
s.(dp0
Vcyz2617
p1
I1
sVd9vnnbj
p2
I1
s.(dp0
Vcyz2617
p1
I1
sVdag0x13
p2
I1
s.(dp0
Vdaqdplu
p1
I1
sVcyz2617
p2
I1
s.(dp0
Vdatt845
p1
I1
sVcyz2617
p2
I1
s.(dp0
Vcyz2617
p1
I1
sVdaziq5m
p2
I1
s.(dp0
Vdazy547
p1
I1
sVcyz2617
p2
I1
s.(dp0
Vcyz2617
p1
I1
sVdb1fg61
p2
I1
s.(dp0
Vdbci3jc
p1
I1
sVcyz2617
p2
I1
s.(dp0
Vdcevwm5
p1
I1
sVcyz2617
p2
I1
s.(dp0
Vdd4pjbe
p1
I1
sVcyz2617
p2
I1
s.(dp0
Vcyz2617
p1
I1
sVdde0bsk
p2
I1
s.(dp0
Vdf387vs
p1
I1
sVcyz2617
p2
I1
s.(dp0
Vdf7q6r8
p1
I1
sVcyz2617
p2
I1
s.(dp0
Vcyz2617
p1
I1
sVdfmj16c
p2
I1
s.(dp0
Vcyz2617
p1
I1
sVdfspiw3
p2
I1
s.(dp0
Vcyz2617
p1
I1
sVdfwv9v6
p2
I1
s.(dp0
Vcyz2617
p1
I1
sVdfwv9v6
p2
I1
s.(dp0
Vdgh2681
p1
I1
sVcyz2617
p2
I1
s.(dp0
Vcyz2617
p1
I1
sVdgqwh3e
p2
I1
s.(dp0
Vcyz2617
p1
I1
sVdgu3l6m
p2
I1
s.(dp0
Vcyz2617
p1
I1
sVdgu3l6m
p2
I1
s.(dp0
Vdhy8y0r
p1
I1
sVcyz2617
p2
I1
s.(dp0
Vcyz2617
p1
I1
sVdhzjyqf
p2
I1
s.(dp0
Vcyz2617
p1
I1
sVdi9jh7o
p2
I1
s.(dp0
Vdih9q76
p1
I1
sVcyz2617
p2
I1
s.(dp0
Vcyz2617
p1
I1
sVdihau6o
p2
I1
s.(dp0
Vdjgpysj
p1
I1
sVcyz2617
p2
I1
s.(dp0
Vdk45wh3
p1
I1
sVcyz2617
p2
I1
s.(dp0
Vcyz2617
p1
I1
sVdk4wvxb
p2
I1
s.(dp0
Vdk5dev9
p1
I1
sVcyz2617
p2
I1
s.(dp0
Vdk5dev9
p1
I1
sVcyz2617
p2
I1
s.(dp0
Vdk5dev9
p1
I1
sVcyz2617
p2
I1
s.(dp0
Vdk5dev9
p1
I1
sVcyz2617
p2
I1
s.(dp0
Vdkj932x
p1
I1
sVcyz2617
p2
I1
s.(dp0
Vdkrb5f4
p1
I1
sVcyz2617
p2
I1
s.(dp0
Vcyz2617
p1
I1
sVdo8dva9
p2
I1
s.