(dp0
Vcyrqrjy
p1
I1
s.(dp0
Vcyzyzno
p1
I1
sVcyrqrjy
p2
I1
s.(dp0
Vcz1bvzh
p1
I1
sVcyrqrjy
p2
I1
s.(dp0
Vcyrqrjy
p1
I1
sVcz1zbly
p2
I1
s.(dp0
Vcyrqrjy
p1
I1
sVcz9rkfq
p2
I1
s.(dp0
Vcyrqrjy
p1
I1
sVcz9rkfq
p2
I1
s.(dp0
Vcyrqrjy
p1
I1
sVcz9rkfq
p2
I1
s.(dp0
Vcz9rvqo
p1
I1
sVcyrqrjy
p2
I1
s.(dp0
Vcyrqrjy
p1
I1
sVczaengm
p2
I1
s.(dp0
Vczed5jy
p1
I1
sVcyrqrjy
p2
I1
s.(dp0
Vcyrqrjy
p1
I1
sVczrub9r
p2
I1
s.(dp0
Vcyrqrjy
p1
I1
sVczsasf5
p2
I1
s.(dp0
Vd0c1g6s
p1
I1
sVcyrqrjy
p2
I1
s.(dp0
Vcyrqrjy
p1
I1
sVd0efaca
p2
I1
s.(dp0
Vd0tksy0
p1
I1
sVcyrqrjy
p2
I1
s.(dp0
Vcyrqrjy
p1
I1
sVd173y9q
p2
I1
s.(dp0
Vcyrqrjy
p1
I1
sVd1jq0km
p2
I1
s.(dp0
Vcyrqrjy
p1
I1
sVd2fwp81
p2
I1
s.(dp0
Vcyrqrjy
p1
I1
sVd2hh66j
p2
I1
s.(dp0
Vd2onsy4
p1
I1
sVcyrqrjy
p2
I1
s.(dp0
Vcyrqrjy
p1
I1
sVd2oob0v
p2
I1
s.(dp0
Vcyrqrjy
p1
I1
sVd2oob0v
p2
I1
s.(dp0
Vcyrqrjy
p1
I1
sVd2q79n4
p2
I1
s.(dp0
Vcyrqrjy
p1
I1
sVd3bz8f1
p2
I1
s.(dp0
Vcyrqrjy
p1
I1
sVd3bz8f1
p2
I1
s.(dp0
Vcyrqrjy
p1
I1
sVd3bz8f1
p2
I1
s.(dp0
Vcyrqrjy
p1
I1
sVd3c5i6l
p2
I1
s.(dp0
Vcyrqrjy
p1
I1
sVd3c5i6l
p2
I1
s.(dp0
Vd3i7k04
p1
I1
sVcyrqrjy
p2
I1
s.(dp0
Vcyrqrjy
p1
I1
sVd3r4wnw
p2
I1
s.(dp0
Vcyrqrjy
p1
I1
sVd3r4wnw
p2
I1
s.(dp0
Vcyrqrjy
p1
I1
sVd46yrco
p2
I1
s.(dp0
Vcyrqrjy
p1
I1
sVd46yrco
p2
I1
s.(dp0
Vcyrqrjy
p1
I1
sVd46yrco
p2
I1
s.(dp0
Vcyrqrjy
p1
I1
sVd46yrco
p2
I1
s.(dp0
Vcyrqrjy
p1
I1
sVd4k6vnn
p2
I1
s.(dp0
Vd69as4e
p1
I1
sVcyrqrjy
p2
I1
s.(dp0
Vd69hh90
p1
I1
sVcyrqrjy
p2
I1
s.(dp0
Vd6c7yqi
p1
I1
sVcyrqrjy
p2
I1
s.(dp0
Vd8f8uk7
p1
I1
sVcyrqrjy
p2
I1
s.(dp0
Vcyrqrjy
p1
I1
sVd9ju7bh
p2
I1
s.(dp0
Vcyrqrjy
p1
I1
sVd9ju7bh
p2
I1
s.(dp0
Vcyrqrjy
p1
I1
sVd9judal
p2
I1
s.(dp0
Vcyrqrjy
p1
I1
sVd9vxyk9
p2
I1
s.(dp0
Vda1k6xb
p1
I1
sVcyrqrjy
p2
I1
s.(dp0
Vdbdqv1k
p1
I1
sVcyrqrjy
p2
I1
s.(dp0
Vcyrqrjy
p1
I1
sVdbwbi9s
p2
I1
s.(dp0
Vdbwee6y
p1
I1
sVcyrqrjy
p2
I1
s.(dp0
Vdbwee6y
p1
I1
sVcyrqrjy
p2
I1
s.(dp0
Vcyrqrjy
p1
I1
sVdc53xz0
p2
I1
s.(dp0
Vdc9bi38
p1
I1
sVcyrqrjy
p2
I1
s.(dp0
Vdc9bi38
p1
I1
sVcyrqrjy
p2
I1
s.(dp0
Vdc9bi38
p1
I1
sVcyrqrjy
p2
I1
s.(dp0
Vdc9bi38
p1
I1
sVcyrqrjy
p2
I1
s.(dp0
Vcyrqrjy
p1
I1
sVdchzr19
p2
I1
s.(dp0
Vcyrqrjy
p1
I1
sVdcmhteq
p2
I1
s.(dp0
Vdcqhy4f
p1
I1
sVcyrqrjy
p2
I1
s.(dp0
Vcyrqrjy
p1
I1
sVdcrdt3y
p2
I1
s.(dp0
Vcyrqrjy
p1
I1
sVdd20257
p2
I1
s.(dp0
Vdd2q1cb
p1
I1
sVcyrqrjy
p2
I1
s.(dp0
Vdd2q1cb
p1
I1
sVcyrqrjy
p2
I1
s.(dp0
Vdd2q1cb
p1
I1
sVcyrqrjy
p2
I1
s.(dp0
Vcyrqrjy
p1
I1
sVdddagss
p2
I1
s.(dp0
Vdddd1x7
p1
I1
sVcyrqrjy
p2
I1
s.(dp0
Vdddd1x7
p1
I1
sVcyrqrjy
p2
I1
s.(dp0
Vdddfx47
p1
I1
sVcyrqrjy
p2
I1
s.(dp0
Vcyrqrjy
p1
I1
sVdddxiwt
p2
I1
s.(dp0
Vddkf4oy
p1
I1
sVcyrqrjy
p2
I1
s.(dp0
Vcyrqrjy
p1
I1
sVde9opas
p2
I1
s.(dp0
Vcyrqrjy
p1
I1
sVde9q2l9
p2
I1
s.(dp0
Vdenwtpz
p1
I1
sVcyrqrjy
p2
I1
s.(dp0
Vdenwtpz
p1
I1
sVcyrqrjy
p2
I1
s.(dp0
Vdeo81ki
p1
I1
sVcyrqrjy
p2
I1
s.(dp0
Vdeo81ki
p1
I1
sVcyrqrjy
p2
I1
s.(dp0
Vdeo81ki
p1
I1
sVcyrqrjy
p2
I1
s.(dp0
Vcyrqrjy
p1
I1
sVdep1irp
p2
I1
s.(dp0
Vcyrqrjy
p1
I1
sVdep4kda
p2
I1
s.(dp0
Vcyrqrjy
p1
I1
sVdep4kda
p2
I1
s.(dp0
Vcyrqrjy
p1
I1
sVdep4kda
p2
I1
s.(dp0
Vcyrqrjy
p1
I1
sVdep4kda
p2
I1
s.(dp0
Vdeymw71
p1
I1
sVcyrqrjy
p2
I1
s.(dp0
Vdggjj9k
p1
I1
sVcyrqrjy
p2
I1
s.(dp0
Vdh0ykk8
p1
I1
sVcyrqrjy
p2
I1
s.(dp0
Vdh0ykk8
p1
I1
sVcyrqrjy
p2
I1
s.(dp0
Vcyrqrjy
p1
I1
sVdhjd9gr
p2
I1
s.(dp0
Vdhje7vv
p1
I1
sVcyrqrjy
p2
I1
s.(dp0
Vdhjf81h
p1
I1
sVcyrqrjy
p2
I1
s.(dp0
Vcyrqrjy
p1
I1
sVdhjg9jr
p2
I1
s.(dp0
Vcyrqrjy
p1
I1
sVdhjg9jr
p2
I1
s.(dp0
Vdhjh4ry
p1
I1
sVcyrqrjy
p2
I1
s.(dp0
Vdhji3z1
p1
I1
sVcyrqrjy
p2
I1
s.(dp0
Vcyrqrjy
p1
I1
sVdhjj0cs
p2
I1
s.(dp0
Vcyrqrjy
p1
I1
sVdhjj0cs
p2
I1
s.(dp0
Vcyrqrjy
p1
I1
sVdhjj0cs
p2
I1
s.(dp0
Vcyrqrjy
p1
I1
sVdhus2lr
p2
I1
s.(dp0
Vdixkcdi
p1
I1
sVcyrqrjy
p2
I1
s.(dp0
Vdixkcdi
p1
I1
sVcyrqrjy
p2
I1
s.(dp0
Vcyrqrjy
p1
I1
sVdizh52o
p2
I1
s.(dp0
Vcyrqrjy
p1
I1
sVdj831tj
p2
I1
s.(dp0
Vdj837in
p1
I1
sVcyrqrjy
p2
I1
s.(dp0
Vdmv2hb8
p1
I1
sVcyrqrjy
p2
I1
s.(dp0
Vcyrqrjy
p1
I1
sVdnaelu1
p2
I1
s.(dp0
Vdnerxtb
p1
I1
sVcyrqrjy
p2
I1
s.(dp0
Vcyrqrjy
p1
I1
sVdodvto4
p2
I1
s.