(dp0
Vcywqo86
p1
I1
s.(dp0
Vczchw14
p1
I1
sVcywqo86
p2
I1
s.(dp0
Vd044vqb
p1
I1
sVcywqo86
p2
I1
s.(dp0
Vcywqo86
p1
I1
sVd1pgd34
p2
I1
s.(dp0
Vcywqo86
p1
I1
sVd1y2yg4
p2
I1
s.(dp0
Vcywqo86
p1
I1
sVd1y2yg4
p2
I1
s.(dp0
Vcywqo86
p1
I1
sVd1y2yg4
p2
I1
s.(dp0
Vcywqo86
p1
I1
sVd1y2yg4
p2
I1
s.(dp0
Vcywqo86
p1
I1
sVd1y2yg4
p2
I1
s.(dp0
Vcywqo86
p1
I1
sVd1y2yg4
p2
I1
s.(dp0
Vcywqo86
p1
I1
sVd2g6nhm
p2
I1
s.(dp0
Vcywqo86
p1
I1
sVd4i9jqf
p2
I1
s.(dp0
Vcywqo86
p1
I1
sVd5zccn5
p2
I1
s.(dp0
Vcywqo86
p1
I1
sVd7ctm3f
p2
I1
s.(dp0
Vcywqo86
p1
I1
sVdan6jhu
p2
I1
s.(dp0
Vdbnc63i
p1
I1
sVcywqo86
p2
I1
s.(dp0
Vcywqo86
p1
I1
sVde32xvy
p2
I1
s.(dp0
Vcywqo86
p1
I1
sVdefstdo
p2
I1
s.(dp0
Vcywqo86
p1
I1
sVdgoy8ef
p2
I1
s.(dp0
Vcywqo86
p1
I1
sVdgoy8ef
p2
I1
s.(dp0
Vcywqo86
p1
I1
sVdhpnc9g
p2
I1
s.(dp0
Vdij8pu0
p1
I1
sVcywqo86
p2
I1
s.(dp0
Vdij8pu0
p1
I1
sVcywqo86
p2
I1
s.(dp0
Vdij8pu0
p1
I1
sVcywqo86
p2
I1
s.(dp0
Vcywqo86
p1
I1
sVdiqjg6j
p2
I1
s.(dp0
Vdjadqfz
p1
I1
sVcywqo86
p2
I1
s.