(dp0
Vcyn0ovw
p1
I1
s.(dp0
Vcyn0ovw
p1
I2
s.(dp0
Vcyn0ovw
p1
I2
s.(dp0
Vcyn0ovw
p1
I2
s.(dp0
Vcyn0ovw
p1
I2
s.(dp0
Vcyn0ovw
p1
I2
s.(dp0
Vczlh7e9
p1
I1
sVcyn0ovw
p2
I1
s.(dp0
Vczx0mln
p1
I1
sVcyn0ovw
p2
I1
s.(dp0
Vd0g2bwa
p1
I1
sVcyn0ovw
p2
I1
s.(dp0
Vd2k43ek
p1
I1
sVcyn0ovw
p2
I1
s.(dp0
Vd2k43ek
p1
I1
sVcyn0ovw
p2
I1
s.(dp0
Vd2k43ek
p1
I1
sVcyn0ovw
p2
I1
s.(dp0
Vd3o48zi
p1
I1
sVcyn0ovw
p2
I1
s.(dp0
Vd3y4p06
p1
I1
sVcyn0ovw
p2
I1
s.(dp0
Vd47ywks
p1
I1
sVcyn0ovw
p2
I1
s.(dp0
Vd48b043
p1
I1
sVcyn0ovw
p2
I1
s.(dp0
Vd48b043
p1
I1
sVcyn0ovw
p2
I1
s.(dp0
Vd4eqq4n
p1
I1
sVcyn0ovw
p2
I1
s.(dp0
Vd4eqq4n
p1
I1
sVcyn0ovw
p2
I1
s.(dp0
Vd4eqq4n
p1
I1
sVcyn0ovw
p2
I1
s.(dp0
Vd4eqq4n
p1
I1
sVcyn0ovw
p2
I1
s.(dp0
Vd4eqq4n
p1
I1
sVcyn0ovw
p2
I1
s.(dp0
Vd55874p
p1
I1
sVcyn0ovw
p2
I1
s.(dp0
Vd5a940n
p1
I1
sVcyn0ovw
p2
I1
s.(dp0
Vd667i7c
p1
I1
sVcyn0ovw
p2
I1
s.(dp0
Vd72v58y
p1
I1
sVcyn0ovw
p2
I1
s.(dp0
Vd80uomh
p1
I1
sVcyn0ovw
p2
I1
s.(dp0
Vd82yh2f
p1
I1
sVcyn0ovw
p2
I1
s.(dp0
Vd9kdsd0
p1
I1
sVcyn0ovw
p2
I1
s.(dp0
Vd9kdsd0
p1
I1
sVcyn0ovw
p2
I1
s.(dp0
Vd9ufa0e
p1
I1
sVcyn0ovw
p2
I1
s.(dp0
Vdaqgc4p
p1
I1
sVcyn0ovw
p2
I1
s.(dp0
Vdaqgc4p
p1
I1
sVcyn0ovw
p2
I1
s.(dp0
Vdaqgc4p
p1
I1
sVcyn0ovw
p2
I1
s.(dp0
Vdb8nsaz
p1
I1
sVcyn0ovw
p2
I1
s.(dp0
Vdc9ftr9
p1
I1
sVcyn0ovw
p2
I1
s.(dp0
Vdcr3ty1
p1
I1
sVcyn0ovw
p2
I1
s.(dp0
Vdd171t7
p1
I1
sVcyn0ovw
p2
I1
s.(dp0
Vdd4oz73
p1
I1
sVcyn0ovw
p2
I1
s.(dp0
Vddxfwz1
p1
I1
sVcyn0ovw
p2
I1
s.(dp0
Vdg143ic
p1
I1
sVcyn0ovw
p2
I1
s.(dp0
Vdh4k33a
p1
I1
sVcyn0ovw
p2
I1
s.(dp0
Vdh4k33a
p1
I1
sVcyn0ovw
p2
I1
s.(dp0
Vdhl2tfo
p1
I1
sVcyn0ovw
p2
I1
s.(dp0
Vdhl2tfo
p1
I1
sVcyn0ovw
p2
I1
s.(dp0
Vdhl2tfo
p1
I1
sVcyn0ovw
p2
I1
s.(dp0
Vdhl2tfo
p1
I1
sVcyn0ovw
p2
I1
s.(dp0
Vdhl2tfo
p1
I1
sVcyn0ovw
p2
I1
s.(dp0
Vdht6t76
p1
I1
sVcyn0ovw
p2
I1
s.(dp0
Vdjs188t
p1
I1
sVcyn0ovw
p2
I1
s.(dp0
Vdkmyppe
p1
I1
sVcyn0ovw
p2
I1
s.(dp0
Vdkn948l
p1
I1
sVcyn0ovw
p2
I1
s.