(dp0
Vcylkwsx
p1
I1
s.(dp0
Vcylkwsx
p1
I2
s.(dp0
Vcylkwsx
p1
I1
sVcyrhaou
p2
I1
s.(dp0
Vcylkwsx
p1
I1
sVcyup45w
p2
I1
s.(dp0
Vcylkwsx
p1
I1
sVcz2dwxm
p2
I1
s.(dp0
Vcylkwsx
p1
I1
sVcz3s514
p2
I1
s.(dp0
Vcylkwsx
p1
I1
sVczan5xj
p2
I1
s.(dp0
Vcylkwsx
p1
I1
sVczj4hrx
p2
I1
s.(dp0
Vcylkwsx
p1
I1
sVczpuvu0
p2
I1
s.(dp0
Vcylkwsx
p1
I1
sVczzvm7u
p2
I1
s.(dp0
Vcylkwsx
p1
I1
sVd01wc6e
p2
I1
s.(dp0
Vcylkwsx
p1
I1
sVd06l4qh
p2
I1
s.(dp0
Vcylkwsx
p1
I1
sVd09fs6d
p2
I1
s.(dp0
Vcylkwsx
p1
I1
sVd0adqcd
p2
I1
s.(dp0
Vcylkwsx
p1
I1
sVd0cbvd4
p2
I1
s.(dp0
Vcylkwsx
p1
I1
sVd0eoy3x
p2
I1
s.(dp0
Vcylkwsx
p1
I1
sVd0ez7pg
p2
I1
s.(dp0
Vcylkwsx
p1
I1
sVd0gnocj
p2
I1
s.(dp0
Vcylkwsx
p1
I1
sVd0wso6v
p2
I1
s.(dp0
Vcylkwsx
p1
I1
sVd15mi5o
p2
I1
s.(dp0
Vcylkwsx
p1
I1
sVd1ht273
p2
I1
s.(dp0
Vcylkwsx
p1
I1
sVd1ht273
p2
I1
s.(dp0
Vcylkwsx
p1
I1
sVd1j45p3
p2
I1
s.(dp0
Vcylkwsx
p1
I1
sVd22pqw7
p2
I1
s.(dp0
Vcylkwsx
p1
I1
sVd237cf3
p2
I1
s.(dp0
Vcylkwsx
p1
I1
sVd2dbsjv
p2
I1
s.(dp0
Vcylkwsx
p1
I1
sVd2kh2nu
p2
I1
s.(dp0
Vcylkwsx
p1
I1
sVd3b6x60
p2
I1
s.(dp0
Vcylkwsx
p1
I1
sVd43e8vp
p2
I1
s.(dp0
Vcylkwsx
p1
I1
sVd43hc6t
p2
I1
s.(dp0
Vcylkwsx
p1
I1
sVd4k1a33
p2
I1
s.(dp0
Vcylkwsx
p1
I1
sVd4kkrrz
p2
I1
s.(dp0
Vcylkwsx
p1
I1
sVd4rfod5
p2
I1
s.(dp0
Vcylkwsx
p1
I1
sVd5b77rr
p2
I1
s.(dp0
Vcylkwsx
p1
I1
sVd5jfjgu
p2
I1
s.(dp0
Vcylkwsx
p1
I1
sVd6g9pu2
p2
I1
s.(dp0
Vcylkwsx
p1
I1
sVd7db7s0
p2
I1
s.(dp0
Vcylkwsx
p1
I1
sVd7e2vgw
p2
I1
s.(dp0
Vcylkwsx
p1
I1
sVd7e2vgw
p2
I1
s.(dp0
Vcylkwsx
p1
I1
sVd7eshwf
p2
I1
s.(dp0
Vcylkwsx
p1
I1
sVd7nqfda
p2
I1
s.(dp0
Vcylkwsx
p1
I1
sVd7p3zkr
p2
I1
s.(dp0
Vcylkwsx
p1
I1
sVd7yg93k
p2
I1
s.(dp0
Vcylkwsx
p1
I1
sVd8hol6o
p2
I1
s.(dp0
Vcylkwsx
p1
I1
sVd90zp88
p2
I1
s.(dp0
Vcylkwsx
p1
I1
sVd9577zl
p2
I1
s.(dp0
Vcylkwsx
p1
I1
sVd9g5ks3
p2
I1
s.(dp0
Vcylkwsx
p1
I1
sVd9g5ks3
p2
I1
s.(dp0
Vcylkwsx
p1
I1
sVd9u9xj3
p2
I1
s.(dp0
Vcylkwsx
p1
I1
sVda0zbf4
p2
I1
s.(dp0
Vcylkwsx
p1
I1
sVdaebo9w
p2
I1
s.(dp0
Vcylkwsx
p1
I1
sVdaebo9w
p2
I1
s.(dp0
Vcylkwsx
p1
I1
sVdafb335
p2
I1
s.(dp0
Vcylkwsx
p1
I1
sVdafl3yc
p2
I1
s.(dp0
Vcylkwsx
p1
I1
sVdank28o
p2
I1
s.(dp0
Vcylkwsx
p1
I1
sVdank28o
p2
I1
s.(dp0
Vcylkwsx
p1
I1
sVdank28o
p2
I1
s.(dp0
Vcylkwsx
p1
I1
sVdank28o
p2
I1
s.(dp0
Vcylkwsx
p1
I1
sVdank28o
p2
I1
s.(dp0
Vcylkwsx
p1
I1
sVdankbth
p2
I1
s.(dp0
Vcylkwsx
p1
I1
sVdarorag
p2
I1
s.(dp0
Vcylkwsx
p1
I1
sVdb7tg0o
p2
I1
s.(dp0
Vcylkwsx
p1
I1
sVdbluv44
p2
I1
s.(dp0
Vcylkwsx
p1
I1
sVdbr3evq
p2
I1
s.(dp0
Vcylkwsx
p1
I1
sVdbxhdbb
p2
I1
s.(dp0
Vcylkwsx
p1
I1
sVdby0t8l
p2
I1
s.(dp0
Vcylkwsx
p1
I1
sVdby14y9
p2
I1
s.(dp0
Vcylkwsx
p1
I1
sVdby14y9
p2
I1
s.(dp0
Vcylkwsx
p1
I1
sVdby29wc
p2
I1
s.(dp0
Vcylkwsx
p1
I1
sVdbzwrpx
p2
I1
s.(dp0
Vcylkwsx
p1
I1
sVdc3fya6
p2
I1
s.(dp0
Vcylkwsx
p1
I1
sVdc4evnr
p2
I1
s.(dp0
Vcylkwsx
p1
I1
sVdc4evnr
p2
I1
s.(dp0
Vcylkwsx
p1
I1
sVdc9u9yb
p2
I1
s.(dp0
Vcylkwsx
p1
I1
sVdcd1lv8
p2
I1
s.(dp0
Vcylkwsx
p1
I1
sVdcvvgo3
p2
I1
s.(dp0
Vcylkwsx
p1
I1
sVdcvvgo3
p2
I1
s.(dp0
Vcylkwsx
p1
I1
sVdcywqbh
p2
I1
s.(dp0
Vcylkwsx
p1
I1
sVdde0uth
p2
I1
s.(dp0
Vcylkwsx
p1
I1
sVddwxvue
p2
I1
s.(dp0
Vcylkwsx
p1
I1
sVddxum3e
p2
I1
s.(dp0
Vcylkwsx
p1
I1
sVddxum3e
p2
I1
s.(dp0
Vcylkwsx
p1
I1
sVde3wf2c
p2
I1
s.(dp0
Vcylkwsx
p1
I1
sVde7izpe
p2
I1
s.(dp0
Vcylkwsx
p1
I1
sVdej8ewx
p2
I1
s.(dp0
Vcylkwsx
p1
I1
sVdem0z7b
p2
I1
s.(dp0
Vcylkwsx
p1
I1
sVdeqvcic
p2
I1
s.(dp0
Vcylkwsx
p1
I1
sVdf53do8
p2
I1
s.(dp0
Vcylkwsx
p1
I1
sVdfblghb
p2
I1
s.(dp0
Vcylkwsx
p1
I1
sVdfblghb
p2
I1
s.(dp0
Vcylkwsx
p1
I1
sVdfriebv
p2
I1
s.(dp0
Vcylkwsx
p1
I1
sVdfuoaan
p2
I1
s.(dp0
Vcylkwsx
p1
I1
sVdg8gmj4
p2
I1
s.(dp0
Vcylkwsx
p1
I1
sVdgl9fd8
p2
I1
s.(dp0
Vcylkwsx
p1
I1
sVdglymm2
p2
I1
s.(dp0
Vcylkwsx
p1
I1
sVdh8ljwg
p2
I1
s.(dp0
Vcylkwsx
p1
I1
sVdh980e7
p2
I1
s.(dp0
Vcylkwsx
p1
I1
sVdhk6uc9
p2
I1
s.(dp0
Vcylkwsx
p1
I1
sVdhoc91a
p2
I1
s.(dp0
Vcylkwsx
p1
I1
sVdhs7scs
p2
I1
s.(dp0
Vcylkwsx
p1
I1
sVdibhsaa
p2
I1
s.(dp0
Vcylkwsx
p1
I1
sVdibhsaa
p2
I1
s.(dp0
Vcylkwsx
p1
I1
sVdih0lnq
p2
I1
s.(dp0
Vcylkwsx
p1
I1
sVdizleye
p2
I1
s.(dp0
Vcylkwsx
p1
I1
sVdizzgwh
p2
I1
s.(dp0
Vcylkwsx
p1
I1
sVdje8mb6
p2
I1
s.(dp0
Vcylkwsx
p1
I1
sVdje8mb6
p2
I1
s.(dp0
Vcylkwsx
p1
I1
sVdjfz3gp
p2
I1
s.(dp0
Vcylkwsx
p1
I1
sVdj(dp0
Vcylkwsx
p1
I1
sVdkweilh
p2
I1
s.