(dp0
Vcypik51
p1
I1
s.(dp0
Vcypik51
p1
I1
sVczrxoa5
p2
I1
s.(dp0
Vcypik51
p1
I1
sVczxt9jk
p2
I1
s.(dp0
Vcypik51
p1
I1
sVczxt9jk
p2
I1
s.(dp0
Vcypik51
p1
I1
sVczxt9jk
p2
I1
s.(dp0
Vcypik51
p1
I1
sVd0dz1mz
p2
I1
s.(dp0
Vcypik51
p1
I1
sVd0s2yp7
p2
I1
s.(dp0
Vcypik51
p1
I1
sVd0s2yp7
p2
I1
s.(dp0
Vcypik51
p1
I1
sVd32q1th
p2
I1
s.(dp0
Vcypik51
p1
I1
sVd3k3n2f
p2
I1
s.(dp0
Vcypik51
p1
I1
sVd3zvfwr
p2
I1
s.(dp0
Vcypik51
p1
I1
sVd41ae7x
p2
I1
s.(dp0
Vcypik51
p1
I1
sVd5c4wbm
p2
I1
s.(dp0
Vd9fkciw
p1
I1
sVcypik51
p2
I1
s.(dp0
Vcypik51
p1
I1
sVdanod3j
p2
I1
s.(dp0
Vcypik51
p1
I1
sVdanod3j
p2
I1
s.(dp0
Vdcug8ss
p1
I1
sVcypik51
p2
I1
s.(dp0
Vde3i81o
p1
I1
sVcypik51
p2
I1
s.(dp0
Vcypik51
p1
I1
sVdei1519
p2
I1
s.(dp0
Vcypik51
p1
I1
sVdffebgz
p2
I1
s.(dp0
Vcypik51
p1
I1
sVdg8bcdf
p2
I1
s.(dp0
Vcypik51
p1
I1
sVdg8enjf
p2
I1
s.(dp0
Vdhz7m30
p1
I1
sVcypik51
p2
I1
s.(dp0
Vcypik51
p1
I1
sVdjmy0vh
p2
I1
s.