(dp0
Vczvpmbe
p1
I1
s.(dp0
Vd05jxsj
p1
I1
sVczvpmbe
p2
I1
s.(dp0
Vd05jxsj
p1
I1
sVczvpmbe
p2
I1
s.(dp0
Vczvpmbe
p1
I1
sVd05y033
p2
I1
s.(dp0
Vd0igqpm
p1
I1
sVczvpmbe
p2
I1
s.(dp0
Vd0igqpm
p1
I1
sVczvpmbe
p2
I1
s.(dp0
Vd1jlotl
p1
I1
sVczvpmbe
p2
I1
s.(dp0
Vd1jlotl
p1
I1
sVczvpmbe
p2
I1
s.(dp0
Vd1jlotl
p1
I1
sVczvpmbe
p2
I1
s.(dp0
Vd1jlotl
p1
I1
sVczvpmbe
p2
I1
s.(dp0
Vd1jlotl
p1
I1
sVczvpmbe
p2
I1
s.(dp0
Vd1jlotl
p1
I1
sVczvpmbe
p2
I1
s.(dp0
Vd1jlotl
p1
I1
sVczvpmbe
p2
I1
s.(dp0
Vd1jlotl
p1
I1
sVczvpmbe
p2
I1
s.(dp0
Vd1jlotl
p1
I1
sVczvpmbe
p2
I1
s.(dp0
Vd1yzbi6
p1
I1
sVczvpmbe
p2
I1
s.(dp0
Vd1yzbi6
p1
I1
sVczvpmbe
p2
I1
s.(dp0
Vd1yzbi6
p1
I1
sVczvpmbe
p2
I1
s.(dp0
Vd3fbtmm
p1
I1
sVczvpmbe
p2
I1
s.(dp0
Vd4s4fob
p1
I1
sVczvpmbe
p2
I1
s.(dp0
Vd4s4fob
p1
I1
sVczvpmbe
p2
I1
s.(dp0
Vd7xnjod
p1
I1
sVczvpmbe
p2
I1
s.(dp0
Vdaaurfw
p1
I1
sVczvpmbe
p2
I1
s.(dp0
Vdcg5rl3
p1
I1
sVczvpmbe
p2
I1
s.(dp0
Vdeph4om
p1
I1
sVczvpmbe
p2
I1
s.(dp0
Vczvpmbe
p1
I1
sVdfn5kb2
p2
I1
s.(dp0
Vdjuvp5u
p1
I1
sVczvpmbe
p2
I1
s.(dp0
Vdkwykcd
p1
I1
sVczvpmbe
p2
I1
s.