(dp0
Vcyieqhh
p1
I1
s.(dp0
Vcyihwz6
p1
I1
sVcyieqhh
p2
I1
s.(dp0
Vcyieqhh
p1
I1
sVcyijzk0
p2
I1
s.(dp0
Vcyil0pv
p1
I1
sVcyieqhh
p2
I1
s.(dp0
Vcyinyw9
p1
I1
sVcyieqhh
p2
I1
s.(dp0
Vcyir0jr
p1
I1
sVcyieqhh
p2
I1
s.(dp0
Vcyieqhh
p1
I1
sVcyirq9m
p2
I1
s.(dp0
Vcyixsjz
p1
I1
sVcyieqhh
p2
I1
s.(dp0
Vcyieqhh
p1
I1
sVcyj6n33
p2
I1
s.(dp0
Vcyj8rzy
p1
I1
sVcyieqhh
p2
I1
s.(dp0
Vcyj9b2h
p1
I1
sVcyieqhh
p2
I1
s.(dp0
Vcyjb2xa
p1
I1
sVcyieqhh
p2
I1
s.(dp0
Vcyieqhh
p1
I1
sVcyjgvny
p2
I1
s.(dp0
Vcyieqhh
p1
I1
sVcyjnt0e
p2
I1
s.(dp0
Vcyjs4dx
p1
I1
sVcyieqhh
p2
I1
s.(dp0
Vcyieqhh
p1
I1
sVcyk2dpg
p2
I1
s.(dp0
Vcyieqhh
p1
I1
sVcyk8er9
p2
I1
s.(dp0
Vcyk9em1
p1
I1
sVcyieqhh
p2
I1
s.(dp0
Vcykba0f
p1
I1
sVcyieqhh
p2
I1
s.(dp0
Vcyieqhh
p1
I1
sVcykm76m
p2
I1
s.(dp0
Vcyieqhh
p1
I1
sVcyl67om
p2
I1
s.(dp0
Vcylx86q
p1
I1
sVcyieqhh
p2
I1
s.(dp0
Vcylx86q
p1
I1
sVcyieqhh
p2
I1
s.(dp0
Vcylx86q
p1
I1
sVcyieqhh
p2
I1
s.(dp0
Vcyieqhh
p1
I1
sVcymn7mj
p2
I1
s.(dp0
Vcymr5aa
p1
I1
sVcyieqhh
p2
I1
s.(dp0
Vcyieqhh
p1
I1
sVcyn1l2e
p2
I1
s.(dp0
Vcyieqhh
p1
I1
sVcyn4l0n
p2
I1
s.(dp0
Vcynxnd3
p1
I1
sVcyieqhh
p2
I1
s.(dp0
Vcyo5aeu
p1
I1
sVcyieqhh
p2
I1
s.(dp0
Vcyieqhh
p1
I1
sVcyolzs1
p2
I1
s.(dp0
Vcyieqhh
p1
I1
sVcyolzs1
p2
I1
s.(dp0
Vcyozvkr
p1
I1
sVcyieqhh
p2
I1
s.(dp0
Vcypjayw
p1
I1
sVcyieqhh
p2
I1
s.(dp0
Vcypjqmu
p1
I1
sVcyieqhh
p2
I1
s.(dp0
Vcyieqhh
p1
I1
sVcypk55y
p2
I1
s.(dp0
Vcypne90
p1
I1
sVcyieqhh
p2
I1
s.(dp0
Vcyieqhh
p1
I1
sVcypnzjn
p2
I1
s.(dp0
Vcyieqhh
p1
I1
sVcyppvrz
p2
I1
s.(dp0
Vcypxkit
p1
I1
sVcyieqhh
p2
I1
s.(dp0
Vcypxkit
p1
I1
sVcyieqhh
p2
I1
s.(dp0
Vcyieqhh
p1
I1
sVcyqnu5x
p2
I1
s.(dp0
Vcyieqhh
p1
I1
sVcyr03do
p2
I1
s.(dp0
Vcyieqhh
p1
I1
sVcyr8sb2
p2
I1
s.(dp0
Vcyrg7f5
p1
I1
sVcyieqhh
p2
I1
s.(dp0
Vcyrknpj
p1
I1
sVcyieqhh
p2
I1
s.(dp0
Vcyrlyw0
p1
I1
sVcyieqhh
p2
I1
s.(dp0
Vcyrpuxb
p1
I1
sVcyieqhh
p2
I1
s.(dp0
Vcyrqrjy
p1
I1
sVcyieqhh
p2
I1
s.(dp0
Vcyieqhh
p1
I1
sVcyrsp30
p2
I1
s.(dp0
Vcyrtmnp
p1
I1
sVcyieqhh
p2
I1
s.(dp0
Vcyru4bt
p1
I1
sVcyieqhh
p2
I1
s.(dp0
Vcyrzfj0
p1
I1
sVcyieqhh
p2
I1
s.(dp0
Vcyieqhh
p1
I1
sVcys4gyq
p2
I1
s.(dp0
Vcysbr62
p1
I1
sVcyieqhh
p2
I1
s.(dp0
Vcysnyu7
p1
I1
sVcyieqhh
p2
I1
s.(dp0
Vcyieqhh
p1
I1
sVcyst3hm
p2
I1
s.(dp0
Vcyieqhh
p1
I1
sVcyst3hm
p2
I1
s.(dp0
Vcysw5nt
p1
I1
sVcyieqhh
p2
I1
s.(dp0
Vcysw5nt
p1
I1
sVcyieqhh
p2
I1
s.(dp0
Vcyieqhh
p1
I1
sVcyswokv
p2
I1
s.(dp0
Vcyswqoe
p1
I1
sVcyieqhh
p2
I1
s.(dp0
Vcyieqhh
p1
I1
sVcysxjhs
p2
I1
s.(dp0
Vcyt4epy
p1
I1
sVcyieqhh
p2
I1
s.(dp0
Vcyieqhh
p1
I1
sVcyt5krl
p2
I1
s.(dp0
Vcyieqhh
p1
I1
sVcyuetmh
p2
I1
s.(dp0
Vcyunsfa
p1
I1
sVcyieqhh
p2
I1
s.(dp0
Vcyieqhh
p1
I1
sVcyuqnmi
p2
I1
s.(dp0
Vcyieqhh
p1
I1
sVcyuvxpc
p2
I1
s.(dp0
Vcyieqhh
p1
I1
sVcyv2tc5
p2
I1
s.(dp0
Vcyieqhh
p1
I1
sVcyvafil
p2
I1
s.(dp0
Vcyieqhh
p1
I1
sVcyvfil1
p2
I1
s.(dp0
Vcyvwlm1
p1
I1
sVcyieqhh
p2
I1
s.(dp0
Vcyweuv6
p1
I1
sVcyieqhh
p2
I1
s.(dp0
Vcyieqhh
p1
I1
sVcywrp5d
p2
I1
s.(dp0
Vcyieqhh
p1
I1
sVcyxalrd
p2
I1
s.(dp0
Vcyxn9cq
p1
I1
sVcyieqhh
p2
I1
s.(dp0
Vcyxphd0
p1
I1
sVcyieqhh
p2
I1
s.(dp0
Vcyieqhh
p1
I1
sVcyxx7li
p2
I1
s.(dp0
Vcyy0myt
p1
I1
sVcyieqhh
p2
I1
s.(dp0
Vcyieqhh
p1
I1
sVcyy5gy0
p2
I1
s.(dp0
Vcyy7kqy
p1
I1
sVcyieqhh
p2
I1
s.(dp0
Vcyyim6x
p1
I1
sVcyieqhh
p2
I1
s.(dp0
Vcyyppty
p1
I1
sVcyieqhh
p2
I1
s.(dp0
Vcyyppty
p1
I1
sVcyieqhh
p2
I1
s.(dp0
Vcyz7kxd
p1
I1
sVcyieqhh
p2
I1
s.(dp0
Vcyz7kxd
p1
I1
sVcyieqhh
p2
I1
s.(dp0
Vcyieqhh
p1
I1
sVcyza0h7
p2
I1
s.(dp0
Vcyieqhh
p1
I1
sVcyzebfe
p2
I1
s.(dp0
Vcyzj9wn
p1
I1
sVcyieqhh
p2
I1
s.(dp0
Vcyzj9wn
p1
I1
sVcyieqhh
p2
I1
s.(dp0
Vcyzp807
p1
I1
sVcyieqhh
p2
I1
s.(dp0
Vcyzxgci
p1
I1
sVcyieqhh
p2
I1
s.(dp0
Vcyzxgci
p1
I1
sVcyieqhh
p2
I1
s.(dp0
Vcz0hlm5
p1
I1
sVcyieqhh
p2
I1
s.(dp0
Vcz0i92i
p1
I1
sVcyieqhh
p2
I1
s.(dp0
Vcz0i92i
p1
I1
sVcyieqhh
p2
I1
s.(dp0
Vcz0i92i
p1
I1
sVcyieqhh
p2
I1
s.(dp0
Vcz0i92i
p1
I1
sVcyieqhh
p2
I1
s.(dp0
Vcz0i92i
p1
I1
sVcyieqhh
p2
I1
s.(dp0
Vcz0mk6b
p1
I1
sVcyieqhh
p2
I1
s.(dp0
Vcz1e1gl
p1
I1
sVcyieqhh
p2
I1
s.(dp0
Vcz1ffmm
p1
I1
sVcyieqhh
p2
I1
s.(dp0
Vcz1xyxt
p1
I1
sVcyieqhh
p2
I1
s.(dp0
Vcz1xyxt
p1
I1
sVcyieqhh
p2
I1
s.(dp0
Vcz24iru
p1
I1
sVcyieqhh
p2
I1
s.(dp0
Vcz28r6p
p1
I1
sVcyieqhh
p2
I1
s.(dp0
Vcz2gvjv
p1
I1
sVcyieqhh
p2
I1
s.(dp0
Vcz(dp0
Vdp5xe7t
p1
I1
sVcyieqhh
p2
I1
s.