(dp0
Vd0g9ik1
p1
I1
s.(dp0
Vd2oqki5
p1
I1
sVd0g9ik1
p2
I1
s.(dp0
Vd0g9ik1
p1
I1
sVd36kht2
p2
I1
s.(dp0
Vdbyvqwx
p1
I1
sVd0g9ik1
p2
I1
s.(dp0
Vdidxha5
p1
I1
sVd0g9ik1
p2
I1
s.(dp0
Vdifcxvn
p1
I1
sVd0g9ik1
p2
I1
s.(dp0
Vdifcxvn
p1
I1
sVd0g9ik1
p2
I1
s.(dp0
Vdifcxvn
p1
I1
sVd0g9ik1
p2
I1
s.