(dp0
Vcylabse
p1
I1
s.(dp0
Vcz48gno
p1
I1
sVcylabse
p2
I1
s.(dp0
Vczcny0z
p1
I1
sVcylabse
p2
I1
s.(dp0
Vczuxixh
p1
I1
sVcylabse
p2
I1
s.(dp0
Vcylabse
p1
I1
sVczv0s40
p2
I1
s.(dp0
Vd0556xz
p1
I1
sVcylabse
p2
I1
s.(dp0
Vd0fs6db
p1
I1
sVcylabse
p2
I1
s.(dp0
Vcylabse
p1
I1
sVd12lvgv
p2
I1
s.(dp0
Vd183tv6
p1
I1
sVcylabse
p2
I1
s.(dp0
Vcylabse
p1
I1
sVd1961mn
p2
I1
s.(dp0
Vd1nlotw
p1
I1
sVcylabse
p2
I1
s.(dp0
Vd2d3rf1
p1
I1
sVcylabse
p2
I1
s.(dp0
Vd2pka2y
p1
I1
sVcylabse
p2
I1
s.(dp0
Vd2q97w0
p1
I1
sVcylabse
p2
I1
s.(dp0
Vd2r4d9x
p1
I1
sVcylabse
p2
I1
s.(dp0
Vcylabse
p1
I1
sVd2ur3fd
p2
I1
s.(dp0
Vd33zr8p
p1
I1
sVcylabse
p2
I1
s.(dp0
Vd37z955
p1
I1
sVcylabse
p2
I1
s.(dp0
Vd3uefik
p1
I1
sVcylabse
p2
I1
s.(dp0
Vd50oikx
p1
I1
sVcylabse
p2
I1
s.(dp0
Vd5h24e5
p1
I1
sVcylabse
p2
I1
s.(dp0
Vd5j04y7
p1
I1
sVcylabse
p2
I1
s.(dp0
Vd5ml8ls
p1
I1
sVcylabse
p2
I1
s.(dp0
Vd5odhi6
p1
I1
sVcylabse
p2
I1
s.(dp0
Vd6jz85t
p1
I1
sVcylabse
p2
I1
s.(dp0
Vd6mjuhz
p1
I1
sVcylabse
p2
I1
s.(dp0
Vd780kky
p1
I1
sVcylabse
p2
I1
s.(dp0
Vd8cigi6
p1
I1
sVcylabse
p2
I1
s.(dp0
Vd8cigi6
p1
I1
sVcylabse
p2
I1
s.(dp0
Vdale1y4
p1
I1
sVcylabse
p2
I1
s.(dp0
Vcylabse
p1
I1
sVdan3ppp
p2
I1
s.(dp0
Vdao84fb
p1
I1
sVcylabse
p2
I1
s.(dp0
Vdavdk7n
p1
I1
sVcylabse
p2
I1
s.(dp0
Vday8r52
p1
I1
sVcylabse
p2
I1
s.(dp0
Vdbge2yl
p1
I1
sVcylabse
p2
I1
s.(dp0
Vdbh6elw
p1
I1
sVcylabse
p2
I1
s.(dp0
Vdbt73zg
p1
I1
sVcylabse
p2
I1
s.(dp0
Vdbzl8hs
p1
I1
sVcylabse
p2
I1
s.(dp0
Vdcafxea
p1
I1
sVcylabse
p2
I1
s.(dp0
Vdcjchzf
p1
I1
sVcylabse
p2
I1
s.(dp0
Vdcn7h97
p1
I1
sVcylabse
p2
I1
s.(dp0
Vdcnyu8g
p1
I1
sVcylabse
p2
I1
s.(dp0
Vdcu54vg
p1
I1
sVcylabse
p2
I1
s.(dp0
Vddk84bs
p1
I1
sVcylabse
p2
I1
s.(dp0
Vdep71iz
p1
I1
sVcylabse
p2
I1
s.(dp0
Vdete6ar
p1
I1
sVcylabse
p2
I1
s.(dp0
Vdexlexq
p1
I1
sVcylabse
p2
I1
s.(dp0
Vdexlhjg
p1
I1
sVcylabse
p2
I1
s.(dp0
Vdexlhjg
p1
I1
sVcylabse
p2
I1
s.(dp0
Vdfdok7r
p1
I1
sVcylabse
p2
I1
s.(dp0
Vdfh06h5
p1
I1
sVcylabse
p2
I1
s.(dp0
Vdg2g5jt
p1
I1
sVcylabse
p2
I1
s.(dp0
Vdi0oo6j
p1
I1
sVcylabse
p2
I1
s.(dp0
Vdibol1k
p1
I1
sVcylabse
p2
I1
s.(dp0
Vdjg2jn5
p1
I1
sVcylabse
p2
I1
s.(dp0
Vdkpww4j
p1
I1
sVcylabse
p2
I1
s.