(dp0
Vcykdi3r
p1
I1
s.(dp0
Vcykdi3r
p1
I1
sVcykx159
p2
I1
s.(dp0
Vcymn8zs
p1
I1
sVcykdi3r
p2
I1
s.(dp0
Vcymnokx
p1
I1
sVcykdi3r
p2
I1
s.(dp0
Vcynmp9g
p1
I1
sVcykdi3r
p2
I1
s.(dp0
Vcyp3f90
p1
I1
sVcykdi3r
p2
I1
s.(dp0
Vcypinz4
p1
I1
sVcykdi3r
p2
I1
s.(dp0
Vcys5xts
p1
I1
sVcykdi3r
p2
I1
s.(dp0
Vcykdi3r
p1
I1
sVcystz41
p2
I1
s.(dp0
Vcytiv82
p1
I1
sVcykdi3r
p2
I1
s.(dp0
Vcyup8kp
p1
I1
sVcykdi3r
p2
I1
s.(dp0
Vcyuschc
p1
I1
sVcykdi3r
p2
I1
s.(dp0
Vcyv8sdh
p1
I1
sVcykdi3r
p2
I1
s.(dp0
Vcyvd3n0
p1
I1
sVcykdi3r
p2
I1
s.(dp0
Vcyxc09t
p1
I1
sVcykdi3r
p2
I1
s.(dp0
Vcyxvb8q
p1
I1
sVcykdi3r
p2
I1
s.(dp0
Vcyzym30
p1
I1
sVcykdi3r
p2
I1
s.(dp0
Vcz1m8tg
p1
I1
sVcykdi3r
p2
I1
s.(dp0
Vcz1q7pm
p1
I1
sVcykdi3r
p2
I1
s.(dp0
Vcz2ntbd
p1
I1
sVcykdi3r
p2
I1
s.(dp0
Vcz3mfys
p1
I1
sVcykdi3r
p2
I1
s.(dp0
Vcz3o9vn
p1
I1
sVcykdi3r
p2
I1
s.(dp0
Vcz3waz2
p1
I1
sVcykdi3r
p2
I1
s.(dp0
Vcz4vka8
p1
I1
sVcykdi3r
p2
I1
s.(dp0
Vcz5ei0w
p1
I1
sVcykdi3r
p2
I1
s.(dp0
Vcz5s22z
p1
I1
sVcykdi3r
p2
I1
s.(dp0
Vcz6mhbg
p1
I1
sVcykdi3r
p2
I1
s.(dp0
Vcz6pjxx
p1
I1
sVcykdi3r
p2
I1
s.(dp0
Vcz7c4ga
p1
I1
sVcykdi3r
p2
I1
s.(dp0
Vczb4mz5
p1
I1
sVcykdi3r
p2
I1
s.(dp0
Vczbmbeb
p1
I1
sVcykdi3r
p2
I1
s.(dp0
Vczbmbeb
p1
I1
sVcykdi3r
p2
I1
s.(dp0
Vczcdt94
p1
I1
sVcykdi3r
p2
I1
s.(dp0
Vcze5ycc
p1
I1
sVcykdi3r
p2
I1
s.(dp0
Vcze6j07
p1
I1
sVcykdi3r
p2
I1
s.(dp0
Vczeqx65
p1
I1
sVcykdi3r
p2
I1
s.(dp0
Vczgyp69
p1
I1
sVcykdi3r
p2
I1
s.(dp0
Vczi76se
p1
I1
sVcykdi3r
p2
I1
s.(dp0
Vczi93ux
p1
I1
sVcykdi3r
p2
I1
s.(dp0
Vczi93ux
p1
I1
sVcykdi3r
p2
I1
s.(dp0
Vczjan0p
p1
I1
sVcykdi3r
p2
I1
s.(dp0
Vczqfrab
p1
I1
sVcykdi3r
p2
I1
s.(dp0
Vczw9686
p1
I1
sVcykdi3r
p2
I1
s.(dp0
Vcykdi3r
p1
I1
sVczwayjf
p2
I1
s.(dp0
Vczwf16o
p1
I1
sVcykdi3r
p2
I1
s.(dp0
Vczyoe1i
p1
I1
sVcykdi3r
p2
I1
s.(dp0
Vczyoe1i
p1
I1
sVcykdi3r
p2
I1
s.(dp0
Vcykdi3r
p1
I1
sVczzp5ow
p2
I1
s.(dp0
Vczzq081
p1
I1
sVcykdi3r
p2
I1
s.(dp0
Vd00yuel
p1
I1
sVcykdi3r
p2
I1
s.(dp0
Vd04aqvd
p1
I1
sVcykdi3r
p2
I1
s.(dp0
Vd05e71v
p1
I1
sVcykdi3r
p2
I1
s.(dp0
Vcykdi3r
p1
I1
sVd07j3kg
p2
I1
s.(dp0
Vd0a6kko
p1
I1
sVcykdi3r
p2
I1
s.(dp0
Vcykdi3r
p1
I1
sVd0dsyl4
p2
I1
s.(dp0
Vd0eqc5t
p1
I1
sVcykdi3r
p2
I1
s.(dp0
Vd0ew79m
p1
I1
sVcykdi3r
p2
I1
s.(dp0
Vd0fwk8l
p1
I1
sVcykdi3r
p2
I1
s.(dp0
Vd0hqks4
p1
I1
sVcykdi3r
p2
I1
s.(dp0
Vd0i99ew
p1
I1
sVcykdi3r
p2
I1
s.(dp0
Vcykdi3r
p1
I1
sVd0ic7jy
p2
I1
s.(dp0
Vcykdi3r
p1
I1
sVd0ic7jy
p2
I1
s.(dp0
Vd0ig0k7
p1
I1
sVcykdi3r
p2
I1
s.(dp0
Vd0igwl9
p1
I1
sVcykdi3r
p2
I1
s.(dp0
Vcykdi3r
p1
I1
sVd0il7b0
p2
I1
s.(dp0
Vd0k6egh
p1
I1
sVcykdi3r
p2
I1
s.(dp0
Vd0kq688
p1
I1
sVcykdi3r
p2
I1
s.(dp0
Vd0n1t7u
p1
I1
sVcykdi3r
p2
I1
s.(dp0
Vd0ohfft
p1
I1
sVcykdi3r
p2
I1
s.(dp0
Vd0pnnta
p1
I1
sVcykdi3r
p2
I1
s.(dp0
Vd0qibov
p1
I1
sVcykdi3r
p2
I1
s.(dp0
Vcykdi3r
p1
I1
sVd0qmzwy
p2
I1
s.(dp0
Vd0quyax
p1
I1
sVcykdi3r
p2
I1
s.(dp0
Vd0r4e5m
p1
I1
sVcykdi3r
p2
I1
s.(dp0
Vd0r5qog
p1
I1
sVcykdi3r
p2
I1
s.(dp0
Vd0ualxn
p1
I1
sVcykdi3r
p2
I1
s.(dp0
Vd0upkcs
p1
I1
sVcykdi3r
p2
I1
s.(dp0
Vd0w0usq
p1
I1
sVcykdi3r
p2
I1
s.(dp0
Vd0wlj1o
p1
I1
sVcykdi3r
p2
I1
s.(dp0
Vd0xoh4s
p1
I1
sVcykdi3r
p2
I1
s.(dp0
Vd0ypb4n
p1
I1
sVcykdi3r
p2
I1
s.(dp0
Vd0z53yf
p1
I1
sVcykdi3r
p2
I1
s.(dp0
Vd17hirn
p1
I1
sVcykdi3r
p2
I1
s.(dp0
Vd1dn7fl
p1
I1
sVcykdi3r
p2
I1
s.(dp0
Vd1dn7fl
p1
I1
sVcykdi3r
p2
I1
s.(dp0
Vd1ffpku
p1
I1
sVcykdi3r
p2
I1
s.(dp0
Vcykdi3r
p1
I1
sVd1frjbc
p2
I1
s.(dp0
Vd1h65n8
p1
I1
sVcykdi3r
p2
I1
s.(dp0
Vd1hhd4a
p1
I1
sVcykdi3r
p2
I1
s.(dp0
Vd1ij9gs
p1
I1
sVcykdi3r
p2
I1
s.(dp0
Vd1j5443
p1
I1
sVcykdi3r
p2
I1
s.(dp0
Vcykdi3r
p1
I1
sVd1jqhei
p2
I1
s.(dp0
Vd1kar8t
p1
I1
sVcykdi3r
p2
I1
s.(dp0
Vcykdi3r
p1
I1
sVd1kf5f5
p2
I1
s.(dp0
Vd1p10ww
p1
I1
sVcykdi3r
p2
I1
s.(dp0
Vd1sm4cg
p1
I1
sVcykdi3r
p2
I1
s.(dp0
Vd1ta6f5
p1
I1
sVcykdi3r
p2
I1
s.(dp0
Vd1u2vsj
p1
I1
sVcykdi3r
p2
I1
s.(dp0
Vcykdi3r
p1
I1
sVd1x68de
p2
I1
s.(dp0
Vd1yjumy
p1
I1
sVcykdi3r
p2
I1
s.(dp0
Vd24umhb
p1
I1
sVcykdi3r
p2
I1
s.(dp0
Vcykdi3r
p1
I1
sVd25zgei
p2
I1
s.(dp0
Vcykdi3r
p1
I1
sVd277ohg
p2
I1
s.(dp0
Vd283ykx
p1
I1
sVcykdi3r
p2
I1
s.(dp0
Vd2a455w
p1
I1
sVcykdi3r
p2
I1
s.(dp0
Vd2ct8qh
p1
I1
sVcykdi3r
p2
I1
s.(dp0
Vd2ct8qh
p1
I1
sVcykdi3r
p2
I1
s.(dp0
Vd2dme01
p1
I1
sVcykdi3r
p2
I1
s.(dp0
Vd2(dp0
Vdp3v73z
p1
I1
sVcykdi3r
p2
I1
s.