(dp0
Vd07d2l9
p1
I1
s.(dp0
Vd0fav35
p1
I1
sVd07d2l9
p2
I1
s.(dp0
Vd0ndowi
p1
I1
sVd07d2l9
p2
I1
s.(dp0
Vd0vav22
p1
I1
sVd07d2l9
p2
I1
s.(dp0
Vd12c38r
p1
I1
sVd07d2l9
p2
I1
s.(dp0
Vd192fqx
p1
I1
sVd07d2l9
p2
I1
s.(dp0
Vd1roleu
p1
I1
sVd07d2l9
p2
I1
s.(dp0
Vd1vsion
p1
I1
sVd07d2l9
p2
I1
s.(dp0
Vd24hk6l
p1
I1
sVd07d2l9
p2
I1
s.(dp0
Vd2aytup
p1
I1
sVd07d2l9
p2
I1
s.(dp0
Vd31o2r2
p1
I1
sVd07d2l9
p2
I1
s.(dp0
Vd4m243z
p1
I1
sVd07d2l9
p2
I1
s.(dp0
Vd8qn38o
p1
I1
sVd07d2l9
p2
I1
s.(dp0
Vd9l2pqi
p1
I1
sVd07d2l9
p2
I1
s.(dp0
Vdasfcna
p1
I1
sVd07d2l9
p2
I1
s.(dp0
Vdasfcna
p1
I1
sVd07d2l9
p2
I1
s.(dp0
Vdd0yxit
p1
I1
sVd07d2l9
p2
I1
s.(dp0
Vdg7079p
p1
I1
sVd07d2l9
p2
I1
s.(dp0
Vdgmw1hx
p1
I1
sVd07d2l9
p2
I1
s.(dp0
Vdhmd1be
p1
I1
sVd07d2l9
p2
I1
s.(dp0
Vdkn2bit
p1
I1
sVd07d2l9
p2
I1
s.