(dp0
Vcyytafp
p1
I1
s.(dp0
Vcyytafp
p1
I1
sVd0526gz
p2
I1
s.(dp0
Vcyytafp
p1
I1
sVd0526gz
p2
I1
s.(dp0
Vcyytafp
p1
I1
sVd0qu432
p2
I1
s.(dp0
Vcyytafp
p1
I1
sVd1euxu2
p2
I1
s.(dp0
Vcyytafp
p1
I1
sVd1euxu2
p2
I1
s.(dp0
Vcyytafp
p1
I1
sVd1euxu2
p2
I1
s.(dp0
Vcyytafp
p1
I1
sVd1euxu2
p2
I1
s.(dp0
Vcyytafp
p1
I1
sVd1euxu2
p2
I1
s.(dp0
Vcyytafp
p1
I1
sVd1ev545
p2
I1
s.(dp0
Vcyytafp
p1
I1
sVd1ev545
p2
I1
s.(dp0
Vcyytafp
p1
I1
sVd1evuja
p2
I1
s.(dp0
Vcyytafp
p1
I1
sVd1evuja
p2
I1
s.(dp0
Vcyytafp
p1
I1
sVd1evuja
p2
I1
s.(dp0
Vcyytafp
p1
I1
sVd1evuja
p2
I1
s.(dp0
Vd1h8a8a
p1
I1
sVcyytafp
p2
I1
s.(dp0
Vcyytafp
p1
I1
sVd1naf9e
p2
I1
s.(dp0
Vcyytafp
p1
I1
sVd2a5opb
p2
I1
s.(dp0
Vcyytafp
p1
I1
sVd35goob
p2
I1
s.(dp0
Vcyytafp
p1
I1
sVd3atr60
p2
I1
s.(dp0
Vcyytafp
p1
I1
sVd3d489c
p2
I1
s.(dp0
Vcyytafp
p1
I1
sVd526uxw
p2
I1
s.(dp0
Vcyytafp
p1
I1
sVd5491dc
p2
I1
s.(dp0
Vcyytafp
p1
I1
sVd5zqmme
p2
I1
s.(dp0
Vcyytafp
p1
I1
sVd61rqtd
p2
I1
s.(dp0
Vcyytafp
p1
I1
sVd6gers4
p2
I1
s.(dp0
Vcyytafp
p1
I1
sVd78n6al
p2
I1
s.(dp0
Vcyytafp
p1
I1
sVd8tg335
p2
I1
s.(dp0
Vcyytafp
p1
I1
sVdad7ypq
p2
I1
s.(dp0
Vcyytafp
p1
I1
sVdad7ypq
p2
I1
s.(dp0
Vcyytafp
p1
I1
sVdad7ypq
p2
I1
s.(dp0
Vcyytafp
p1
I1
sVdbecdhu
p2
I1
s.(dp0
Vcyytafp
p1
I1
sVdbecdhu
p2
I1
s.(dp0
Vcyytafp
p1
I1
sVdbxt6zx
p2
I1
s.(dp0
Vcyytafp
p1
I1
sVdc0pdwm
p2
I1
s.(dp0
Vcyytafp
p1
I1
sVdc106c6
p2
I1
s.(dp0
Vcyytafp
p1
I1
sVdd3kwus
p2
I1
s.(dp0
Vdeyh3db
p1
I1
sVcyytafp
p2
I1
s.(dp0
Vcyytafp
p1
I1
sVdf54h90
p2
I1
s.(dp0
Vcyytafp
p1
I1
sVdf54h90
p2
I1
s.(dp0
Vcyytafp
p1
I1
sVdf54h90
p2
I1
s.(dp0
Vcyytafp
p1
I1
sVdfixbwi
p2
I1
s.(dp0
Vcyytafp
p1
I1
sVdfk541m
p2
I1
s.(dp0
Vcyytafp
p1
I1
sVdhfixju
p2
I1
s.(dp0
Vcyytafp
p1
I1
sVdhjgxv8
p2
I1
s.(dp0
Vcyytafp
p1
I1
sVdiagdgk
p2
I1
s.(dp0
Vcyytafp
p1
I1
sVdk5ac3z
p2
I1
s.(dp0
Vcyytafp
p1
I1
sVdk5ac3z
p2
I1
s.