(dp0
Vcyksgks
p1
I1
s.(dp0
Vcylpiv8
p1
I1
sVcyksgks
p2
I1
s.(dp0
Vcyksgks
p1
I1
sVcyp5odn
p2
I1
s.(dp0
Vcyksgks
p1
I1
sVcyrfgnx
p2
I1
s.(dp0
Vcyksgks
p1
I1
sVcyrz6io
p2
I1
s.(dp0
Vcys0xcs
p1
I1
sVcyksgks
p2
I1
s.(dp0
Vcyksgks
p1
I1
sVcyt0vnj
p2
I1
s.(dp0
Vcyksgks
p1
I1
sVcyzuor1
p2
I1
s.(dp0
Vcyksgks
p1
I1
sVcz0p5mr
p2
I1
s.(dp0
Vcyksgks
p1
I1
sVcz3fpcq
p2
I1
s.(dp0
Vcyksgks
p1
I1
sVcz4ji5l
p2
I1
s.(dp0
Vcyksgks
p1
I1
sVcz4ji5l
p2
I1
s.(dp0
Vcz7f3ha
p1
I1
sVcyksgks
p2
I1
s.(dp0
Vczbep5e
p1
I1
sVcyksgks
p2
I1
s.(dp0
Vczi62gi
p1
I1
sVcyksgks
p2
I1
s.(dp0
Vczi62gi
p1
I1
sVcyksgks
p2
I1
s.(dp0
Vczp7471
p1
I1
sVcyksgks
p2
I1
s.(dp0
Vczyuyre
p1
I1
sVcyksgks
p2
I1
s.(dp0
Vczzwt1e
p1
I1
sVcyksgks
p2
I1
s.(dp0
Vczzwt1e
p1
I1
sVcyksgks
p2
I1
s.(dp0
Vcyksgks
p1
I1
sVd002fe3
p2
I1
s.(dp0
Vcyksgks
p1
I1
sVd002fe3
p2
I1
s.(dp0
Vd00djbx
p1
I1
sVcyksgks
p2
I1
s.(dp0
Vcyksgks
p1
I1
sVd02oqoe
p2
I1
s.(dp0
Vcyksgks
p1
I1
sVd02oqoe
p2
I1
s.(dp0
Vcyksgks
p1
I1
sVd03t9b4
p2
I1
s.(dp0
Vcyksgks
p1
I1
sVd04d46s
p2
I1
s.(dp0
Vd09vyen
p1
I1
sVcyksgks
p2
I1
s.(dp0
Vcyksgks
p1
I1
sVd0bvm0y
p2
I1
s.(dp0
Vd0f869x
p1
I1
sVcyksgks
p2
I1
s.(dp0
Vd0lpp9t
p1
I1
sVcyksgks
p2
I1
s.(dp0
Vd0qavns
p1
I1
sVcyksgks
p2
I1
s.(dp0
Vd0sj4bl
p1
I1
sVcyksgks
p2
I1
s.(dp0
Vd0snfaa
p1
I1
sVcyksgks
p2
I1
s.(dp0
Vcyksgks
p1
I1
sVd0xzwip
p2
I1
s.(dp0
Vcyksgks
p1
I1
sVd0xzwip
p2
I1
s.(dp0
Vcyksgks
p1
I1
sVd135ddy
p2
I1
s.(dp0
Vcyksgks
p1
I1
sVd135ddy
p2
I1
s.(dp0
Vcyksgks
p1
I1
sVd135ddy
p2
I1
s.(dp0
Vd14pgu6
p1
I1
sVcyksgks
p2
I1
s.(dp0
Vd14pl28
p1
I1
sVcyksgks
p2
I1
s.(dp0
Vd1628ic
p1
I1
sVcyksgks
p2
I1
s.(dp0
Vcyksgks
p1
I1
sVd17rd2n
p2
I1
s.(dp0
Vcyksgks
p1
I1
sVd19rv5m
p2
I1
s.(dp0
Vd1h10fz
p1
I1
sVcyksgks
p2
I1
s.(dp0
Vd1h10fz
p1
I1
sVcyksgks
p2
I1
s.(dp0
Vd1ipa00
p1
I1
sVcyksgks
p2
I1
s.(dp0
Vcyksgks
p1
I1
sVd1itaud
p2
I1
s.(dp0
Vd1j2wzr
p1
I1
sVcyksgks
p2
I1
s.(dp0
Vd1lca7e
p1
I1
sVcyksgks
p2
I1
s.(dp0
Vcyksgks
p1
I1
sVd1p09sk
p2
I1
s.(dp0
Vd1q422m
p1
I1
sVcyksgks
p2
I1
s.(dp0
Vd1qqgvx
p1
I1
sVcyksgks
p2
I1
s.(dp0
Vd1vu4e9
p1
I1
sVcyksgks
p2
I1
s.(dp0
Vd1vu4e9
p1
I1
sVcyksgks
p2
I1
s.(dp0
Vd252ubh
p1
I1
sVcyksgks
p2
I1
s.(dp0
Vcyksgks
p1
I1
sVd26jsdu
p2
I1
s.(dp0
Vd2czw0o
p1
I1
sVcyksgks
p2
I1
s.(dp0
Vcyksgks
p1
I1
sVd2ew7yv
p2
I1
s.(dp0
Vcyksgks
p1
I1
sVd2ihxj0
p2
I1
s.(dp0
Vd2oth9i
p1
I1
sVcyksgks
p2
I1
s.(dp0
Vcyksgks
p1
I1
sVd2p7m93
p2
I1
s.(dp0
Vd2pt6e2
p1
I1
sVcyksgks
p2
I1
s.(dp0
Vd2rdxkn
p1
I1
sVcyksgks
p2
I1
s.(dp0
Vd2rrb8g
p1
I1
sVcyksgks
p2
I1
s.(dp0
Vcyksgks
p1
I1
sVd2vaalc
p2
I1
s.(dp0
Vcyksgks
p1
I1
sVd2xpfxe
p2
I1
s.(dp0
Vd2zub3r
p1
I1
sVcyksgks
p2
I1
s.(dp0
Vd2zub3r
p1
I1
sVcyksgks
p2
I1
s.(dp0
Vd30gdd3
p1
I1
sVcyksgks
p2
I1
s.(dp0
Vcyksgks
p1
I1
sVd3208ot
p2
I1
s.(dp0
Vd3k7yiu
p1
I1
sVcyksgks
p2
I1
s.(dp0
Vd3n4jdg
p1
I1
sVcyksgks
p2
I1
s.(dp0
Vd3oadh2
p1
I1
sVcyksgks
p2
I1
s.(dp0
Vd3oadh2
p1
I1
sVcyksgks
p2
I1
s.(dp0
Vd49rp1d
p1
I1
sVcyksgks
p2
I1
s.(dp0
Vcyksgks
p1
I1
sVd4cqs0y
p2
I1
s.(dp0
Vd4lmsjr
p1
I1
sVcyksgks
p2
I1
s.(dp0
Vd4rwh7d
p1
I1
sVcyksgks
p2
I1
s.(dp0
Vd51srtt
p1
I1
sVcyksgks
p2
I1
s.(dp0
Vd57di1c
p1
I1
sVcyksgks
p2
I1
s.(dp0
Vcyksgks
p1
I1
sVd58tnub
p2
I1
s.(dp0
Vd59qcfo
p1
I1
sVcyksgks
p2
I1
s.(dp0
Vcyksgks
p1
I1
sVd5cu7kc
p2
I1
s.(dp0
Vd5mifev
p1
I1
sVcyksgks
p2
I1
s.(dp0
Vd5mjraq
p1
I1
sVcyksgks
p2
I1
s.(dp0
Vd5qjow9
p1
I1
sVcyksgks
p2
I1
s.(dp0
Vcyksgks
p1
I1
sVd5s0axs
p2
I1
s.(dp0
Vd5u5s5z
p1
I1
sVcyksgks
p2
I1
s.(dp0
Vd624jzk
p1
I1
sVcyksgks
p2
I1
s.(dp0
Vcyksgks
p1
I1
sVd629jds
p2
I1
s.(dp0
Vcyksgks
p1
I1
sVd629vph
p2
I1
s.(dp0
Vd62or1t
p1
I1
sVcyksgks
p2
I1
s.(dp0
Vd63s7ug
p1
I1
sVcyksgks
p2
I1
s.(dp0
Vcyksgks
p1
I1
sVd65zz5n
p2
I1
s.(dp0
Vcyksgks
p1
I1
sVd65zz5n
p2
I1
s.(dp0
Vd660zbw
p1
I1
sVcyksgks
p2
I1
s.(dp0
Vd6614vv
p1
I1
sVcyksgks
p2
I1
s.(dp0
Vd66u89g
p1
I1
sVcyksgks
p2
I1
s.(dp0
Vcyksgks
p1
I1
sVd69bolg
p2
I1
s.(dp0
Vd69lnt4
p1
I1
sVcyksgks
p2
I1
s.(dp0
Vd6aa4af
p1
I1
sVcyksgks
p2
I1
s.(dp0
Vd6bec9x
p1
I1
sVcyksgks
p2
I1
s.(dp0
Vd6c66ou
p1
I1
sVcyksgks
p2
I1
s.(dp0
Vcyksgks
p1
I1
sVd6cgkgp
p2
I1
s.(dp0
Vcyksgks
p1
I1
sVd6j2mzd
p2
I1
s.(dp0
Vd6kxp4g
p1
I1
sVcyksgks
p2
I1
s.(dp0
Vd6l04v7
p1
I1
sVcyksgks
p2
I1
s.(dp0
Vcy(dp0
Vcyksgks
p1
I1
sVdp1otf4
p2
I1
s.