(dp0
Vdachnp7
p1
I1
s.(dp0
Vdachnp7
p1
I2
s.(dp0
Vdachnp7
p1
I2
s.(dp0
Vdb3ooyw
p1
I1
sVdachnp7
p2
I1
s.(dp0
Vdc5m0g8
p1
I1
sVdachnp7
p2
I1
s.(dp0
Vdesesck
p1
I1
sVdachnp7
p2
I1
s.(dp0
Vdachnp7
p1
I1
sVdgz9za4
p2
I1
s.(dp0
Vdachnp7
p1
I1
sVdinqr3g
p2
I1
s.