(dp0
Vcyhurf6
p1
I1
s.(dp0
Vcyhurf6
p1
I1
sVcyi6kub
p2
I1
s.(dp0
Vcyhurf6
p1
I1
sVcyi9cvj
p2
I1
s.(dp0
Vcyiabbm
p1
I1
sVcyhurf6
p2
I1
s.(dp0
Vcyibugh
p1
I1
sVcyhurf6
p2
I1
s.(dp0
Vcyhurf6
p1
I1
sVcyieo7r
p2
I1
s.(dp0
Vcyiianv
p1
I1
sVcyhurf6
p2
I1
s.(dp0
Vcyhurf6
p1
I1
sVcyis92v
p2
I1
s.(dp0
Vcyhurf6
p1
I1
sVcyj3e18
p2
I1
s.(dp0
Vcyj7a3h
p1
I1
sVcyhurf6
p2
I1
s.(dp0
Vcyj7ney
p1
I1
sVcyhurf6
p2
I1
s.(dp0
Vcyhurf6
p1
I1
sVcyjcws3
p2
I1
s.(dp0
Vcyhurf6
p1
I1
sVcyjvp1r
p2
I1
s.(dp0
Vcyhurf6
p1
I1
sVcykeqp4
p2
I1
s.(dp0
Vcyhurf6
p1
I1
sVcykgxqx
p2
I1
s.(dp0
Vcyhurf6
p1
I1
sVcykn9lm
p2
I1
s.(dp0
Vcyl2tyf
p1
I1
sVcyhurf6
p2
I1
s.(dp0
Vcyl5vve
p1
I1
sVcyhurf6
p2
I1
s.(dp0
Vcyl9jdg
p1
I1
sVcyhurf6
p2
I1
s.(dp0
Vcyhurf6
p1
I1
sVcylo2uq
p2
I1
s.(dp0
Vcyhurf6
p1
I1
sVcymnskd
p2
I1
s.(dp0
Vcyhurf6
p1
I1
sVcymt1pt
p2
I1
s.(dp0
Vcyhurf6
p1
I1
sVcynbvx5
p2
I1
s.(dp0
Vcyhurf6
p1
I1
sVcync3gy
p2
I1
s.(dp0
Vcyhurf6
p1
I1
sVcyndenl
p2
I1
s.(dp0
Vcyhurf6
p1
I1
sVcynlp8p
p2
I1
s.(dp0
Vcyhurf6
p1
I1
sVcynv5k1
p2
I1
s.(dp0
Vcyhurf6
p1
I1
sVcynvimj
p2
I1
s.(dp0
Vcyo1h5t
p1
I1
sVcyhurf6
p2
I1
s.(dp0
Vcyhurf6
p1
I1
sVcyo58vb
p2
I1
s.(dp0
Vcyhurf6
p1
I1
sVcyor3xe
p2
I1
s.(dp0
Vcyhurf6
p1
I1
sVcyor3xe
p2
I1
s.(dp0
Vcyhurf6
p1
I1
sVcyor3xe
p2
I1
s.(dp0
Vcyhurf6
p1
I1
sVcyp0muo
p2
I1
s.(dp0
Vcyhurf6
p1
I1
sVcyp0muo
p2
I1
s.(dp0
Vcyhurf6
p1
I1
sVcypg3jm
p2
I1
s.(dp0
Vcyhurf6
p1
I1
sVcypwtga
p2
I1
s.(dp0
Vcyq0kun
p1
I1
sVcyhurf6
p2
I1
s.(dp0
Vcyq264n
p1
I1
sVcyhurf6
p2
I1
s.(dp0
Vcyhurf6
p1
I1
sVcyqmx4t
p2
I1
s.(dp0
Vcyhurf6
p1
I1
sVcyqzque
p2
I1
s.(dp0
Vcyhurf6
p1
I1
sVcyr2des
p2
I1
s.(dp0
Vcyhurf6
p1
I1
sVcyr53vl
p2
I1
s.(dp0
Vcyhurf6
p1
I1
sVcyrmjo8
p2
I1
s.(dp0
Vcyhurf6
p1
I1
sVcyrmjo8
p2
I1
s.(dp0
Vcyhurf6
p1
I1
sVcyrmjo8
p2
I1
s.(dp0
Vcyhurf6
p1
I1
sVcyrmjo8
p2
I1
s.(dp0
Vcyhurf6
p1
I1
sVcyrqrjy
p2
I1
s.(dp0
Vcyhurf6
p1
I1
sVcyrr54q
p2
I1
s.(dp0
Vcyhurf6
p1
I1
sVcyrtf3y
p2
I1
s.(dp0
Vcyhurf6
p1
I1
sVcysb9qg
p2
I1
s.(dp0
Vcyhurf6
p1
I1
sVcyskawg
p2
I1
s.(dp0
Vcyhurf6
p1
I1
sVcysnnku
p2
I1
s.(dp0
Vcyhurf6
p1
I1
sVcysplrm
p2
I1
s.(dp0
Vcyhurf6
p1
I1
sVcysv7v3
p2
I1
s.(dp0
Vcyhurf6
p1
I1
sVcysyr0w
p2
I1
s.(dp0
Vcyt3xam
p1
I1
sVcyhurf6
p2
I1
s.(dp0
Vcyt7fyk
p1
I1
sVcyhurf6
p2
I1
s.(dp0
Vcyhurf6
p1
I1
sVcytaodx
p2
I1
s.(dp0
Vcyhurf6
p1
I1
sVcytfxvt
p2
I1
s.(dp0
Vcyhurf6
p1
I1
sVcytw76v
p2
I1
s.(dp0
Vcyhurf6
p1
I1
sVcytww3p
p2
I1
s.(dp0
Vcyhurf6
p1
I1
sVcyu0d8c
p2
I1
s.(dp0
Vcyhurf6
p1
I1
sVcyu3v2q
p2
I1
s.(dp0
Vcyhurf6
p1
I1
sVcyulozz
p2
I1
s.(dp0
Vcyhurf6
p1
I1
sVcyum9w5
p2
I1
s.(dp0
Vcyhurf6
p1
I1
sVcyun3jo
p2
I1
s.(dp0
Vcyv2mlv
p1
I1
sVcyhurf6
p2
I1
s.(dp0
Vcyv8f20
p1
I1
sVcyhurf6
p2
I1
s.(dp0
Vcyhurf6
p1
I1
sVcyvajen
p2
I1
s.(dp0
Vcyhurf6
p1
I1
sVcyvdnza
p2
I1
s.(dp0
Vcyhurf6
p1
I1
sVcywkjd6
p2
I1
s.(dp0
Vcywwh8h
p1
I1
sVcyhurf6
p2
I1
s.(dp0
Vcyhurf6
p1
I1
sVcyxlk8b
p2
I1
s.(dp0
Vcyhurf6
p1
I1
sVcyxo9ef
p2
I1
s.(dp0
Vcyhurf6
p1
I1
sVcyxuotd
p2
I1
s.(dp0
Vcyhurf6
p1
I1
sVcyxuotd
p2
I1
s.(dp0
Vcyhurf6
p1
I1
sVcyynwmf
p2
I1
s.(dp0
Vcyz0be9
p1
I1
sVcyhurf6
p2
I1
s.(dp0
Vcyhurf6
p1
I1
sVcyz4b9t
p2
I1
s.(dp0
Vcyhurf6
p1
I1
sVcyzning
p2
I1
s.(dp0
Vcyhurf6
p1
I1
sVcyzqlst
p2
I1
s.(dp0
Vcyhurf6
p1
I1
sVcyzsnlh
p2
I1
s.(dp0
Vcyhurf6
p1
I1
sVcyzuor1
p2
I1
s.(dp0
Vcyhurf6
p1
I1
sVcz07tfq
p2
I1
s.(dp0
Vcyhurf6
p1
I1
sVcz0h5dh
p2
I1
s.(dp0
Vcyhurf6
p1
I1
sVcz1xl51
p2
I1
s.(dp0
Vcyhurf6
p1
I1
sVcz25eg1
p2
I1
s.(dp0
Vcyhurf6
p1
I1
sVcz2tmwi
p2
I1
s.(dp0
Vcyhurf6
p1
I1
sVcz2tmwi
p2
I1
s.(dp0
Vcz3fdva
p1
I1
sVcyhurf6
p2
I1
s.(dp0
Vcyhurf6
p1
I1
sVcz3vy3b
p2
I1
s.(dp0
Vcyhurf6
p1
I1
sVcz4gmib
p2
I1
s.(dp0
Vcyhurf6
p1
I1
sVcz4gmib
p2
I1
s.(dp0
Vcz4wd9y
p1
I1
sVcyhurf6
p2
I1
s.(dp0
Vcz5cgir
p1
I1
sVcyhurf6
p2
I1
s.(dp0
Vcyhurf6
p1
I1
sVcz5d70m
p2
I1
s.(dp0
Vcyhurf6
p1
I1
sVcz5ei0w
p2
I1
s.(dp0
Vcyhurf6
p1
I1
sVcz5xnuc
p2
I1
s.(dp0
Vcyhurf6
p1
I1
sVcz65uci
p2
I1
s.(dp0
Vcyhurf6
p1
I1
sVcz6gblh
p2
I1
s.(dp0
Vcyhurf6
p1
I1
sVcz6q62m
p2
I1
s.(dp0
Vcz75hmq
p1
I1
sVcyhurf6
p2
I1
s.(dp0
Vcyhurf6
p1
I1
sVcz7oxs2
p2
I1
s.(dp0
Vcyhurf6
p1
I1
sVcz7px8j
p2
I1
s.(dp0
Vcz7yrk8
p1
I1
sVcyhurf6
p2
I1
s.(dp0
Vcyhurf6
p1
I1
sVcz8k620
p2
I1
s.(dp0
Vcyhurf6
p1
I1
sVcz9m147
p2
I1
s.(dp0
Vcy(dp0
Vcyhurf6
p1
I1
sVdp5dip7
p2
I1
s.