(dp0
Vcyjt90u
p1
I1
s.(dp0
Vcyoaona
p1
I1
sVcyjt90u
p2
I1
s.(dp0
Vcyoaona
p1
I1
sVcyjt90u
p2
I1
s.(dp0
Vcyjt90u
p1
I1
sVczsh2qk
p2
I1
s.(dp0
Vcyjt90u
p1
I1
sVczx2nar
p2
I1
s.(dp0
Vcyjt90u
p1
I1
sVczx2nar
p2
I1
s.(dp0
Vczynemv
p1
I1
sVcyjt90u
p2
I1
s.(dp0
Vd0o4hxb
p1
I1
sVcyjt90u
p2
I1
s.(dp0
Vcyjt90u
p1
I1
sVd0zd07s
p2
I1
s.(dp0
Vd17whxx
p1
I1
sVcyjt90u
p2
I1
s.(dp0
Vd1cdb4e
p1
I1
sVcyjt90u
p2
I1
s.(dp0
Vd1lvjjp
p1
I1
sVcyjt90u
p2
I1
s.(dp0
Vd2a3n0v
p1
I1
sVcyjt90u
p2
I1
s.(dp0
Vd2hengs
p1
I1
sVcyjt90u
p2
I1
s.(dp0
Vd32hmy9
p1
I1
sVcyjt90u
p2
I1
s.(dp0
Vcyjt90u
p1
I1
sVd38s4d6
p2
I1
s.(dp0
Vd39dbx7
p1
I1
sVcyjt90u
p2
I1
s.(dp0
Vd3bc1xo
p1
I1
sVcyjt90u
p2
I1
s.(dp0
Vd4v3pjn
p1
I1
sVcyjt90u
p2
I1
s.(dp0
Vd52kyij
p1
I1
sVcyjt90u
p2
I1
s.(dp0
Vd5i0zu3
p1
I1
sVcyjt90u
p2
I1
s.(dp0
Vd5i9y0b
p1
I1
sVcyjt90u
p2
I1
s.(dp0
Vd5nwzrx
p1
I1
sVcyjt90u
p2
I1
s.(dp0
Vd7xko81
p1
I1
sVcyjt90u
p2
I1
s.(dp0
Vd8c1o4q
p1
I1
sVcyjt90u
p2
I1
s.(dp0
Vd9iwsbq
p1
I1
sVcyjt90u
p2
I1
s.(dp0
Vcyjt90u
p1
I1
sVdayljqy
p2
I1
s.(dp0
Vcyjt90u
p1
I1
sVdb780ip
p2
I1
s.(dp0
Vcyjt90u
p1
I1
sVdc19joi
p2
I1
s.(dp0
Vdctzhdt
p1
I1
sVcyjt90u
p2
I1
s.(dp0
Vdcx5h36
p1
I1
sVcyjt90u
p2
I1
s.(dp0
Vcyjt90u
p1
I1
sVdd3a3i9
p2
I1
s.(dp0
Vcyjt90u
p1
I1
sVddtowww
p2
I1
s.(dp0
Vddzm50x
p1
I1
sVcyjt90u
p2
I1
s.(dp0
Vdf5de98
p1
I1
sVcyjt90u
p2
I1
s.(dp0
Vdfa8wup
p1
I1
sVcyjt90u
p2
I1
s.(dp0
Vcyjt90u
p1
I1
sVdfdmq4t
p2
I1
s.(dp0
Vcyjt90u
p1
I1
sVdg03wol
p2
I1
s.(dp0
Vdgx8a3d
p1
I1
sVcyjt90u
p2
I1
s.(dp0
Vcyjt90u
p1
I1
sVdheonga
p2
I1
s.(dp0
Vcyjt90u
p1
I1
sVdheonga
p2
I1
s.(dp0
Vcyjt90u
p1
I1
sVdi4fzt2
p2
I1
s.(dp0
Vcyjt90u
p1
I1
sVdi4slwa
p2
I1
s.(dp0
Vcyjt90u
p1
I1
sVdi7ysnr
p2
I1
s.(dp0
Vdiewji8
p1
I1
sVcyjt90u
p2
I1
s.(dp0
Vcyjt90u
p1
I1
sVdijkghj
p2
I1
s.(dp0
Vdijv9p6
p1
I1
sVcyjt90u
p2
I1
s.(dp0
Vdiyaede
p1
I1
sVcyjt90u
p2
I1
s.(dp0
Vdj1vb2q
p1
I1
sVcyjt90u
p2
I1
s.(dp0
Vdj81r04
p1
I1
sVcyjt90u
p2
I1
s.(dp0
Vdj935lb
p1
I1
sVcyjt90u
p2
I1
s.(dp0
Vdj935lb
p1
I1
sVcyjt90u
p2
I1
s.(dp0
Vdjx5kgn
p1
I1
sVcyjt90u
p2
I1
s.(dp0
Vcyjt90u
p1
I1
sVdkfpygb
p2
I1
s.(dp0
Vdkuzf4c
p1
I1
sVcyjt90u
p2
I1
s.(dp0
Vcyjt90u
p1
I1
sVdncwy16
p2
I1
s.(dp0
Vcyjt90u
p1
I1
sVdny6rp9
p2
I1
s.(dp0
Vdo614yg
p1
I1
sVcyjt90u
p2
I1
s.(dp0
Vcyjt90u
p1
I1
sVdorb9ic
p2
I1
s.