(dp0
Vcyhzvzx
p1
I1
s.(dp0
Vcyhzvzx
p1
I1
sVcykba0f
p2
I1
s.(dp0
Vcyhzvzx
p1
I1
sVcyod5v8
p2
I1
s.(dp0
Vcyhzvzx
p1
I1
sVcypr2mq
p2
I1
s.(dp0
Vcyhzvzx
p1
I1
sVcyq0meo
p2
I1
s.(dp0
Vcyhzvzx
p1
I1
sVcyr3h76
p2
I1
s.(dp0
Vcyhzvzx
p1
I1
sVcz1ljn1
p2
I1
s.(dp0
Vcyhzvzx
p1
I1
sVcz7nusc
p2
I1
s.(dp0
Vcyhzvzx
p1
I1
sVcz90o9y
p2
I1
s.(dp0
Vcyhzvzx
p1
I1
sVcz9247b
p2
I1
s.(dp0
Vcyhzvzx
p1
I1
sVczccmt5
p2
I1
s.(dp0
Vcyhzvzx
p1
I1
sVczg4uok
p2
I1
s.(dp0
Vcyhzvzx
p1
I1
sVczgsxpn
p2
I1
s.(dp0
Vcyhzvzx
p1
I1
sVczgu1qr
p2
I1
s.(dp0
Vcyhzvzx
p1
I1
sVczgu1qr
p2
I1
s.(dp0
Vcyhzvzx
p1
I1
sVczgz4bw
p2
I1
s.(dp0
Vczh15u3
p1
I1
sVcyhzvzx
p2
I1
s.(dp0
Vcyhzvzx
p1
I1
sVczlrxum
p2
I1
s.(dp0
Vcyhzvzx
p1
I1
sVczoaiu9
p2
I1
s.(dp0
Vcyhzvzx
p1
I1
sVczst0ut
p2
I1
s.(dp0
Vd0688mn
p1
I1
sVcyhzvzx
p2
I1
s.(dp0
Vcyhzvzx
p1
I1
sVd06lkuf
p2
I1
s.(dp0
Vcyhzvzx
p1
I1
sVd07x5ay
p2
I1
s.(dp0
Vcyhzvzx
p1
I1
sVd089wed
p2
I1
s.(dp0
Vcyhzvzx
p1
I1
sVd0ajjnr
p2
I1
s.(dp0
Vcyhzvzx
p1
I1
sVd0ddy49
p2
I1
s.(dp0
Vcyhzvzx
p1
I1
sVd0g7f7i
p2
I1
s.(dp0
Vcyhzvzx
p1
I1
sVd0icff6
p2
I1
s.(dp0
Vcyhzvzx
p1
I1
sVd0iva15
p2
I1
s.(dp0
Vcyhzvzx
p1
I1
sVd0r6ui3
p2
I1
s.(dp0
Vcyhzvzx
p1
I1
sVd0rlpfn
p2
I1
s.(dp0
Vcyhzvzx
p1
I1
sVd0vdp65
p2
I1
s.(dp0
Vcyhzvzx
p1
I1
sVd11na6s
p2
I1
s.(dp0
Vd12ej61
p1
I1
sVcyhzvzx
p2
I1
s.(dp0
Vcyhzvzx
p1
I1
sVd12hekh
p2
I1
s.(dp0
Vcyhzvzx
p1
I1
sVd1ftnuf
p2
I1
s.(dp0
Vcyhzvzx
p1
I1
sVd1ig13e
p2
I1
s.(dp0
Vd1me4sk
p1
I1
sVcyhzvzx
p2
I1
s.(dp0
Vcyhzvzx
p1
I1
sVd1tplfe
p2
I1
s.(dp0
Vd20hyzv
p1
I1
sVcyhzvzx
p2
I1
s.(dp0
Vd20hyzv
p1
I1
sVcyhzvzx
p2
I1
s.(dp0
Vcyhzvzx
p1
I1
sVd237wz0
p2
I1
s.(dp0
Vd28m0q9
p1
I1
sVcyhzvzx
p2
I1
s.(dp0
Vcyhzvzx
p1
I1
sVd2kohs3
p2
I1
s.(dp0
Vd2s51fj
p1
I1
sVcyhzvzx
p2
I1
s.(dp0
Vcyhzvzx
p1
I1
sVd2uhhbd
p2
I1
s.(dp0
Vd2vhfen
p1
I1
sVcyhzvzx
p2
I1
s.(dp0
Vcyhzvzx
p1
I1
sVd30jy7b
p2
I1
s.(dp0
Vcyhzvzx
p1
I1
sVd33w2xa
p2
I1
s.(dp0
Vd38290q
p1
I1
sVcyhzvzx
p2
I1
s.(dp0
Vcyhzvzx
p1
I1
sVd3b7vt9
p2
I1
s.(dp0
Vcyhzvzx
p1
I1
sVd3bkg90
p2
I1
s.(dp0
Vcyhzvzx
p1
I1
sVd3gkcek
p2
I1
s.(dp0
Vcyhzvzx
p1
I1
sVd3sj7c3
p2
I1
s.(dp0
Vd3wcrf4
p1
I1
sVcyhzvzx
p2
I1
s.(dp0
Vcyhzvzx
p1
I1
sVd3y29c5
p2
I1
s.(dp0
Vcyhzvzx
p1
I1
sVd3yui91
p2
I1
s.(dp0
Vcyhzvzx
p1
I1
sVd3z4owz
p2
I1
s.(dp0
Vcyhzvzx
p1
I1
sVd3z7qww
p2
I1
s.(dp0
Vcyhzvzx
p1
I1
sVd46bruy
p2
I1
s.(dp0
Vcyhzvzx
p1
I1
sVd46bruy
p2
I1
s.(dp0
Vcyhzvzx
p1
I1
sVd4gj44a
p2
I1
s.(dp0
Vd4hwbrr
p1
I1
sVcyhzvzx
p2
I1
s.(dp0
Vd4ibrjl
p1
I1
sVcyhzvzx
p2
I1
s.(dp0
Vcyhzvzx
p1
I1
sVd4jystw
p2
I1
s.(dp0
Vcyhzvzx
p1
I1
sVd55qlgq
p2
I1
s.(dp0
Vcyhzvzx
p1
I1
sVd5ln04g
p2
I1
s.(dp0
Vcyhzvzx
p1
I1
sVd5nn6gi
p2
I1
s.(dp0
Vcyhzvzx
p1
I1
sVd5nn6gi
p2
I1
s.(dp0
Vcyhzvzx
p1
I1
sVd5nq0cy
p2
I1
s.(dp0
Vd5pk70v
p1
I1
sVcyhzvzx
p2
I1
s.(dp0
Vd64r78t
p1
I1
sVcyhzvzx
p2
I1
s.(dp0
Vcyhzvzx
p1
I1
sVd66coq9
p2
I1
s.(dp0
Vcyhzvzx
p1
I1
sVd66jlyo
p2
I1
s.(dp0
Vcyhzvzx
p1
I1
sVd6nvk1g
p2
I1
s.(dp0
Vcyhzvzx
p1
I1
sVd6p8pei
p2
I1
s.(dp0
Vcyhzvzx
p1
I1
sVd6w151s
p2
I1
s.(dp0
Vcyhzvzx
p1
I1
sVd6ysw1g
p2
I1
s.(dp0
Vcyhzvzx
p1
I1
sVd6ysw1g
p2
I1
s.(dp0
Vcyhzvzx
p1
I1
sVd72dv4a
p2
I1
s.(dp0
Vd78x76c
p1
I1
sVcyhzvzx
p2
I1
s.(dp0
Vcyhzvzx
p1
I1
sVd7jedlq
p2
I1
s.(dp0
Vcyhzvzx
p1
I1
sVd7jedlq
p2
I1
s.(dp0
Vcyhzvzx
p1
I1
sVd7rf5tw
p2
I1
s.(dp0
Vcyhzvzx
p1
I1
sVd8lktkr
p2
I1
s.(dp0
Vcyhzvzx
p1
I1
sVd8rt6eh
p2
I1
s.(dp0
Vcyhzvzx
p1
I1
sVd8vhz7h
p2
I1
s.(dp0
Vcyhzvzx
p1
I1
sVd97po7c
p2
I1
s.(dp0
Vcyhzvzx
p1
I1
sVd9ab81f
p2
I1
s.(dp0
Vcyhzvzx
p1
I1
sVd9ddsjn
p2
I1
s.(dp0
Vcyhzvzx
p1
I1
sVd9dmvk1
p2
I1
s.(dp0
Vcyhzvzx
p1
I1
sVd9yd2hs
p2
I1
s.(dp0
Vcyhzvzx
p1
I1
sVda1ui16
p2
I1
s.(dp0
Vcyhzvzx
p1
I1
sVda4g2bj
p2
I1
s.(dp0
Vcyhzvzx
p1
I1
sVda64dq2
p2
I1
s.(dp0
Vcyhzvzx
p1
I1
sVdaiqncj
p2
I1
s.(dp0
Vcyhzvzx
p1
I1
sVdaiqncj
p2
I1
s.(dp0
Vcyhzvzx
p1
I1
sVdasfag4
p2
I1
s.(dp0
Vdavg5y9
p1
I1
sVcyhzvzx
p2
I1
s.(dp0
Vcyhzvzx
p1
I1
sVdawfnz7
p2
I1
s.(dp0
Vcyhzvzx
p1
I1
sVdb5gaiw
p2
I1
s.(dp0
Vcyhzvzx
p1
I1
sVdbaigfy
p2
I1
s.(dp0
Vcyhzvzx
p1
I1
sVdbc3xlv
p2
I1
s.(dp0
Vcyhzvzx
p1
I1
sVdbe786d
p2
I1
s.(dp0
Vcyhzvzx
p1
I1
sVdbel4s4
p2
I1
s.(dp0
Vcyhzvzx
p1
I1
sVdbew4jd
p2
I1
s.(dp0
Vcyhzvzx
p1
I1
sVdbktuai
p2
I1
s.(dp0
Vcyhzvzx
p1
I1
sVdbvzqbb
p2
I1
s.(dp0
Vdc(dp0
Vcyhzvzx
p1
I1
sVdp3y9lo
p2
I1
s.