(dp0
Vczh7iko
p1
I1
s.(dp0
Vd0m3vs7
p1
I1
sVczh7iko
p2
I1
s.(dp0
Vd0ng8k2
p1
I1
sVczh7iko
p2
I1
s.(dp0
Vczh7iko
p1
I1
sVd0ur3ll
p2
I1
s.(dp0
Vd1mc9fx
p1
I1
sVczh7iko
p2
I1
s.(dp0
Vd21mcdv
p1
I1
sVczh7iko
p2
I1
s.(dp0
Vczh7iko
p1
I1
sVd2gxh3m
p2
I1
s.(dp0
Vczh7iko
p1
I1
sVd2lhnvc
p2
I1
s.(dp0
Vd2tlms9
p1
I1
sVczh7iko
p2
I1
s.(dp0
Vczh7iko
p1
I1
sVd358ptn
p2
I1
s.(dp0
Vd5bbsvf
p1
I1
sVczh7iko
p2
I1
s.(dp0
Vd82ta42
p1
I1
sVczh7iko
p2
I1
s.(dp0
Vda1rzrj
p1
I1
sVczh7iko
p2
I1
s.(dp0
Vda1zqf0
p1
I1
sVczh7iko
p2
I1
s.(dp0
Vdbt5cdd
p1
I1
sVczh7iko
p2
I1
s.(dp0
Vddcsz14
p1
I1
sVczh7iko
p2
I1
s.(dp0
Vddcsz14
p1
I1
sVczh7iko
p2
I1
s.(dp0
Vddgdfci
p1
I1
sVczh7iko
p2
I1
s.