(dp0
Vcyhxhvk
p1
I1
s.(dp0
Vcyq3tfz
p1
I1
sVcyhxhvk
p2
I1
s.(dp0
Vcyhxhvk
p1
I1
sVcyte5eu
p2
I1
s.(dp0
Vcyv3pmg
p1
I1
sVcyhxhvk
p2
I1
s.(dp0
Vcyv907j
p1
I1
sVcyhxhvk
p2
I1
s.(dp0
Vcyhxhvk
p1
I1
sVcywb0ij
p2
I1
s.(dp0
Vcywvrlf
p1
I1
sVcyhxhvk
p2
I1
s.(dp0
Vczav3zi
p1
I1
sVcyhxhvk
p2
I1
s.(dp0
Vczc652q
p1
I1
sVcyhxhvk
p2
I1
s.(dp0
Vczc9095
p1
I1
sVcyhxhvk
p2
I1
s.(dp0
Vczduk7g
p1
I1
sVcyhxhvk
p2
I1
s.(dp0
Vczluxr3
p1
I1
sVcyhxhvk
p2
I1
s.(dp0
Vczlxs62
p1
I1
sVcyhxhvk
p2
I1
s.(dp0
Vczp70rt
p1
I1
sVcyhxhvk
p2
I1
s.(dp0
Vcyhxhvk
p1
I1
sVczpc031
p2
I1
s.(dp0
Vcyhxhvk
p1
I1
sVczpc031
p2
I1
s.(dp0
Vczrdnrq
p1
I1
sVcyhxhvk
p2
I1
s.(dp0
Vcyhxhvk
p1
I1
sVczvgjt0
p2
I1
s.(dp0
Vczvk1tf
p1
I1
sVcyhxhvk
p2
I1
s.(dp0
Vczw17rv
p1
I1
sVcyhxhvk
p2
I1
s.(dp0
Vczzxp6g
p1
I1
sVcyhxhvk
p2
I1
s.(dp0
Vd01sz7x
p1
I1
sVcyhxhvk
p2
I1
s.(dp0
Vd04td5j
p1
I1
sVcyhxhvk
p2
I1
s.(dp0
Vd073xro
p1
I1
sVcyhxhvk
p2
I1
s.(dp0
Vcyhxhvk
p1
I1
sVd0dsyl4
p2
I1
s.(dp0
Vcyhxhvk
p1
I1
sVd0i2uw3
p2
I1
s.(dp0
Vd0itwqd
p1
I1
sVcyhxhvk
p2
I1
s.(dp0
Vcyhxhvk
p1
I1
sVd0jbbv0
p2
I1
s.(dp0
Vcyhxhvk
p1
I1
sVd0jbbv0
p2
I1
s.(dp0
Vd0jggp2
p1
I1
sVcyhxhvk
p2
I1
s.(dp0
Vd0jlh2w
p1
I1
sVcyhxhvk
p2
I1
s.(dp0
Vd0kkg1p
p1
I1
sVcyhxhvk
p2
I1
s.(dp0
Vd0ol81y
p1
I1
sVcyhxhvk
p2
I1
s.(dp0
Vd0p587g
p1
I1
sVcyhxhvk
p2
I1
s.(dp0
Vd0sinm0
p1
I1
sVcyhxhvk
p2
I1
s.(dp0
Vd0sinm0
p1
I1
sVcyhxhvk
p2
I1
s.(dp0
Vd0sjy4i
p1
I1
sVcyhxhvk
p2
I1
s.(dp0
Vd0soe3y
p1
I1
sVcyhxhvk
p2
I1
s.(dp0
Vd0svtjl
p1
I1
sVcyhxhvk
p2
I1
s.(dp0
Vd0xfdid
p1
I1
sVcyhxhvk
p2
I1
s.(dp0
Vd120cb5
p1
I1
sVcyhxhvk
p2
I1
s.(dp0
Vd12pwsa
p1
I1
sVcyhxhvk
p2
I1
s.(dp0
Vcyhxhvk
p1
I1
sVd19zm5v
p2
I1
s.(dp0
Vd1fad1h
p1
I1
sVcyhxhvk
p2
I1
s.(dp0
Vd1kutzf
p1
I1
sVcyhxhvk
p2
I1
s.(dp0
Vd1ogoah
p1
I1
sVcyhxhvk
p2
I1
s.(dp0
Vd1qaqih
p1
I1
sVcyhxhvk
p2
I1
s.(dp0
Vcyhxhvk
p1
I1
sVd1s7r2y
p2
I1
s.(dp0
Vd1sjqod
p1
I1
sVcyhxhvk
p2
I1
s.(dp0
Vd1tt7vy
p1
I1
sVcyhxhvk
p2
I1
s.(dp0
Vd1vjjfy
p1
I1
sVcyhxhvk
p2
I1
s.(dp0
Vd1vq3dh
p1
I1
sVcyhxhvk
p2
I1
s.(dp0
Vd1vr8g6
p1
I1
sVcyhxhvk
p2
I1
s.(dp0
Vd1woabe
p1
I1
sVcyhxhvk
p2
I1
s.(dp0
Vd1xwcs2
p1
I1
sVcyhxhvk
p2
I1
s.(dp0
Vcyhxhvk
p1
I1
sVd1za3l5
p2
I1
s.(dp0
Vcyhxhvk
p1
I1
sVd1za3l5
p2
I1
s.(dp0
Vd21z6iy
p1
I1
sVcyhxhvk
p2
I1
s.(dp0
Vd23t0bq
p1
I1
sVcyhxhvk
p2
I1
s.(dp0
Vd273qqk
p1
I1
sVcyhxhvk
p2
I1
s.(dp0
Vd2f827z
p1
I1
sVcyhxhvk
p2
I1
s.(dp0
Vd2gnwqd
p1
I1
sVcyhxhvk
p2
I1
s.(dp0
Vd2k9pg3
p1
I1
sVcyhxhvk
p2
I1
s.(dp0
Vd2v0qym
p1
I1
sVcyhxhvk
p2
I1
s.(dp0
Vd2x1mi6
p1
I1
sVcyhxhvk
p2
I1
s.(dp0
Vd2xdtoa
p1
I1
sVcyhxhvk
p2
I1
s.(dp0
Vd2xdtoa
p1
I1
sVcyhxhvk
p2
I1
s.(dp0
Vd2xdtoa
p1
I1
sVcyhxhvk
p2
I1
s.(dp0
Vd2xdtoa
p1
I1
sVcyhxhvk
p2
I1
s.(dp0
Vd2zufpu
p1
I1
sVcyhxhvk
p2
I1
s.(dp0
Vd33u0ul
p1
I1
sVcyhxhvk
p2
I1
s.(dp0
Vd37ik4e
p1
I1
sVcyhxhvk
p2
I1
s.(dp0
Vd37jpgz
p1
I1
sVcyhxhvk
p2
I1
s.(dp0
Vd3eglak
p1
I1
sVcyhxhvk
p2
I1
s.(dp0
Vd3h72oe
p1
I1
sVcyhxhvk
p2
I1
s.(dp0
Vd3hpojr
p1
I1
sVcyhxhvk
p2
I1
s.(dp0
Vd3ibvvm
p1
I1
sVcyhxhvk
p2
I1
s.(dp0
Vd3j98rf
p1
I1
sVcyhxhvk
p2
I1
s.(dp0
Vd3kenab
p1
I1
sVcyhxhvk
p2
I1
s.(dp0
Vd3mt0i0
p1
I1
sVcyhxhvk
p2
I1
s.(dp0
Vd3qxb6j
p1
I1
sVcyhxhvk
p2
I1
s.(dp0
Vcyhxhvk
p1
I1
sVd3rt6cl
p2
I1
s.(dp0
Vd3uko75
p1
I1
sVcyhxhvk
p2
I1
s.(dp0
Vd3wl83x
p1
I1
sVcyhxhvk
p2
I1
s.(dp0
Vd3xr78f
p1
I1
sVcyhxhvk
p2
I1
s.(dp0
Vcyhxhvk
p1
I1
sVd4538ga
p2
I1
s.(dp0
Vcyhxhvk
p1
I1
sVd4538ga
p2
I1
s.(dp0
Vd48iqfn
p1
I1
sVcyhxhvk
p2
I1
s.(dp0
Vd4b5sd1
p1
I1
sVcyhxhvk
p2
I1
s.(dp0
Vd4brcja
p1
I1
sVcyhxhvk
p2
I1
s.(dp0
Vd4fia6n
p1
I1
sVcyhxhvk
p2
I1
s.(dp0
Vd4fjcxm
p1
I1
sVcyhxhvk
p2
I1
s.(dp0
Vd4gl596
p1
I1
sVcyhxhvk
p2
I1
s.(dp0
Vd4jsxhv
p1
I1
sVcyhxhvk
p2
I1
s.(dp0
Vd4jsxhv
p1
I1
sVcyhxhvk
p2
I1
s.(dp0
Vd4jsxhv
p1
I1
sVcyhxhvk
p2
I1
s.(dp0
Vd4l1jhc
p1
I1
sVcyhxhvk
p2
I1
s.(dp0
Vd4lsk8y
p1
I1
sVcyhxhvk
p2
I1
s.(dp0
Vd4mpbpq
p1
I1
sVcyhxhvk
p2
I1
s.(dp0
Vd4pense
p1
I1
sVcyhxhvk
p2
I1
s.(dp0
Vd4t6u3m
p1
I1
sVcyhxhvk
p2
I1
s.(dp0
Vd4wkahv
p1
I1
sVcyhxhvk
p2
I1
s.(dp0
Vd50mf5v
p1
I1
sVcyhxhvk
p2
I1
s.(dp0
Vcyhxhvk
p1
I1
sVd51w0ne
p2
I1
s.(dp0
Vcyhxhvk
p1
I1
sVd51w0ne
p2
I1
s.(dp0
Vd53ejz3
p1
I1
sVcyhxhvk
p2
I1
s.(dp0
Vd54lnc0
p1
I1
sVcyhxhvk
p2
I1
s.(dp0
Vd56nj0f
p1
I1
sVcyhxhvk
p2
I1
s.(dp0
Vd5(dp0
Vdkz0q16
p1
I1
sVcyhxhvk
p2
I1
s.