(dp0
Vcyiasbx
p1
I1
s.(dp0
Vcyiasbx
p1
I2
s.(dp0
Vcyiasbx
p1
I1
sVcz28r6p
p2
I1
s.(dp0
Vcyiasbx
p1
I1
sVczeyo93
p2
I1
s.(dp0
Vcyiasbx
p1
I1
sVczeyo93
p2
I1
s.(dp0
Vcyiasbx
p1
I1
sVczeyo93
p2
I1
s.(dp0
Vcyiasbx
p1
I1
sVczhjzcb
p2
I1
s.(dp0
Vcyiasbx
p1
I1
sVczhjzcb
p2
I1
s.(dp0
Vcyiasbx
p1
I1
sVczhrvgo
p2
I1
s.(dp0
Vcyiasbx
p1
I1
sVczrc1th
p2
I1
s.(dp0
Vcyiasbx
p1
I1
sVd045x7t
p2
I1
s.(dp0
Vcyiasbx
p1
I1
sVd0upkcs
p2
I1
s.(dp0
Vcyiasbx
p1
I1
sVd0vahz2
p2
I1
s.(dp0
Vcyiasbx
p1
I1
sVd13ocw9
p2
I1
s.(dp0
Vcyiasbx
p1
I1
sVd15jcto
p2
I1
s.(dp0
Vcyiasbx
p1
I1
sVd1jpnhe
p2
I1
s.(dp0
Vcyiasbx
p1
I1
sVd2hsxj2
p2
I1
s.(dp0
Vcyiasbx
p1
I1
sVd2hsxj2
p2
I1
s.(dp0
Vcyiasbx
p1
I1
sVd2hsxj2
p2
I1
s.(dp0
Vcyiasbx
p1
I1
sVd2hsxj2
p2
I1
s.(dp0
Vcyiasbx
p1
I1
sVd32i8z7
p2
I1
s.(dp0
Vcyiasbx
p1
I1
sVd3iviwo
p2
I1
s.(dp0
Vcyiasbx
p1
I1
sVd3q50op
p2
I1
s.(dp0
Vcyiasbx
p1
I1
sVd3q50op
p2
I1
s.(dp0
Vcyiasbx
p1
I1
sVd3q50op
p2
I1
s.(dp0
Vcyiasbx
p1
I1
sVd3qkrgu
p2
I1
s.(dp0
Vcyiasbx
p1
I1
sVd4e2shu
p2
I1
s.(dp0
Vcyiasbx
p1
I1
sVd4gfrtx
p2
I1
s.(dp0
Vcyiasbx
p1
I1
sVd4m2qx7
p2
I1
s.(dp0
Vcyiasbx
p1
I1
sVd4u9igd
p2
I1
s.(dp0
Vcyiasbx
p1
I1
sVd5bt2n1
p2
I1
s.(dp0
Vcyiasbx
p1
I1
sVd5bt2n1
p2
I1
s.(dp0
Vcyiasbx
p1
I1
sVd5bt2n1
p2
I1
s.(dp0
Vcyiasbx
p1
I1
sVd5jho9h
p2
I1
s.(dp0
Vcyiasbx
p1
I1
sVd5p8hag
p2
I1
s.(dp0
Vcyiasbx
p1
I1
sVd5p8hag
p2
I1
s.(dp0
Vcyiasbx
p1
I1
sVd5p8hag
p2
I1
s.(dp0
Vcyiasbx
p1
I1
sVd5v2ghj
p2
I1
s.(dp0
Vcyiasbx
p1
I1
sVd5za8l9
p2
I1
s.(dp0
Vcyiasbx
p1
I1
sVd5za8l9
p2
I1
s.(dp0
Vcyiasbx
p1
I1
sVd7z2hq9
p2
I1
s.(dp0
Vcyiasbx
p1
I1
sVd84nm0z
p2
I1
s.(dp0
Vcyiasbx
p1
I1
sVd8f4g19
p2
I1
s.(dp0
Vcyiasbx
p1
I1
sVd8suw6i
p2
I1
s.(dp0
Vcyiasbx
p1
I1
sVd9coo2t
p2
I1
s.(dp0
Vcyiasbx
p1
I1
sVd9jqfwf
p2
I1
s.(dp0
Vcyiasbx
p1
I1
sVda7g40b
p2
I1
s.(dp0
Vcyiasbx
p1
I1
sVdakv5uu
p2
I1
s.(dp0
Vcyiasbx
p1
I1
sVdakv5uu
p2
I1
s.(dp0
Vcyiasbx
p1
I1
sVdb06nsx
p2
I1
s.(dp0
Vcyiasbx
p1
I1
sVdb3bvq8
p2
I1
s.(dp0
Vcyiasbx
p1
I1
sVdbrqv9t
p2
I1
s.(dp0
Vcyiasbx
p1
I1
sVdbxl3ge
p2
I1
s.(dp0
Vcyiasbx
p1
I1
sVdc2vj2i
p2
I1
s.(dp0
Vcyiasbx
p1
I1
sVdc2vj2i
p2
I1
s.(dp0
Vcyiasbx
p1
I1
sVdc8pcjb
p2
I1
s.(dp0
Vcyiasbx
p1
I1
sVdcdkxbp
p2
I1
s.(dp0
Vcyiasbx
p1
I1
sVdcmgl0q
p2
I1
s.(dp0
Vcyiasbx
p1
I1
sVdcpvks4
p2
I1
s.(dp0
Vcyiasbx
p1
I1
sVdcsl6b4
p2
I1
s.(dp0
Vcyiasbx
p1
I1
sVdctuy47
p2
I1
s.(dp0
Vcyiasbx
p1
I1
sVdcwate3
p2
I1
s.(dp0
Vcyiasbx
p1
I1
sVdddadiu
p2
I1
s.(dp0
Vcyiasbx
p1
I1
sVddpx3os
p2
I1
s.(dp0
Vcyiasbx
p1
I1
sVddzelg0
p2
I1
s.(dp0
Vcyiasbx
p1
I1
sVddzgw8v
p2
I1
s.(dp0
Vcyiasbx
p1
I1
sVddzgw8v
p2
I1
s.(dp0
Vcyiasbx
p1
I1
sVde6ztn0
p2
I1
s.(dp0
Vcyiasbx
p1
I1
sVde6ztn0
p2
I1
s.(dp0
Vcyiasbx
p1
I1
sVdefb9zn
p2
I1
s.(dp0
Vcyiasbx
p1
I1
sVdeibffw
p2
I1
s.(dp0
Vcyiasbx
p1
I1
sVdgcf2xb
p2
I1
s.(dp0
Vcyiasbx
p1
I1
sVdgdyj7p
p2
I1
s.(dp0
Vcyiasbx
p1
I1
sVdi0svam
p2
I1
s.(dp0
Vcyiasbx
p1
I1
sVdi33270
p2
I1
s.(dp0
Vcyiasbx
p1
I1
sVdiahkqi
p2
I1
s.(dp0
Vcyiasbx
p1
I1
sVdimapc1
p2
I1
s.(dp0
Vcyiasbx
p1
I1
sVdiy8wlh
p2
I1
s.(dp0
Vcyiasbx
p1
I1
sVdjoux57
p2
I1
s.(dp0
Vcyiasbx
p1
I1
sVdkr5yp2
p2
I1
s.