(dp0
Vcyj75ou
p1
I1
s.(dp0
Vcyj75ou
p1
I1
sVcyjomnd
p2
I1
s.(dp0
Vcynbds1
p1
I1
sVcyj75ou
p2
I1
s.(dp0
Vcyo1h5t
p1
I1
sVcyj75ou
p2
I1
s.(dp0
Vcyo4lb6
p1
I1
sVcyj75ou
p2
I1
s.(dp0
Vcyos9zm
p1
I1
sVcyj75ou
p2
I1
s.(dp0
Vcyppqyq
p1
I1
sVcyj75ou
p2
I1
s.(dp0
Vcyxh93g
p1
I1
sVcyj75ou
p2
I1
s.(dp0
Vcyj75ou
p1
I1
sVcz1gftf
p2
I1
s.(dp0
Vcz2ojps
p1
I1
sVcyj75ou
p2
I1
s.(dp0
Vczfau9x
p1
I1
sVcyj75ou
p2
I1
s.(dp0
Vczh6cqy
p1
I1
sVcyj75ou
p2
I1
s.(dp0
Vczk178t
p1
I1
sVcyj75ou
p2
I1
s.(dp0
Vczm0rbc
p1
I1
sVcyj75ou
p2
I1
s.(dp0
Vczmc36r
p1
I1
sVcyj75ou
p2
I1
s.(dp0
Vcyj75ou
p1
I1
sVczni6kw
p2
I1
s.(dp0
Vczqdzfo
p1
I1
sVcyj75ou
p2
I1
s.(dp0
Vczqrr4e
p1
I1
sVcyj75ou
p2
I1
s.(dp0
Vczs5u76
p1
I1
sVcyj75ou
p2
I1
s.(dp0
Vczt05a6
p1
I1
sVcyj75ou
p2
I1
s.(dp0
Vcyj75ou
p1
I1
sVczyu06a
p2
I1
s.(dp0
Vcyj75ou
p1
I1
sVczz0pf4
p2
I1
s.(dp0
Vd02ocis
p1
I1
sVcyj75ou
p2
I1
s.(dp0
Vcyj75ou
p1
I1
sVd05wvnp
p2
I1
s.(dp0
Vd05zfr3
p1
I1
sVcyj75ou
p2
I1
s.(dp0
Vd077k13
p1
I1
sVcyj75ou
p2
I1
s.(dp0
Vcyj75ou
p1
I1
sVd07yj47
p2
I1
s.(dp0
Vd07z4i4
p1
I1
sVcyj75ou
p2
I1
s.(dp0
Vcyj75ou
p1
I1
sVd09dexm
p2
I1
s.(dp0
Vd0b55ja
p1
I1
sVcyj75ou
p2
I1
s.(dp0
Vd0gv30b
p1
I1
sVcyj75ou
p2
I1
s.(dp0
Vd0i21fx
p1
I1
sVcyj75ou
p2
I1
s.(dp0
Vcyj75ou
p1
I1
sVd0pxhl8
p2
I1
s.(dp0
Vcyj75ou
p1
I1
sVd0t378o
p2
I1
s.(dp0
Vd0yf4z2
p1
I1
sVcyj75ou
p2
I1
s.(dp0
Vd0znjdy
p1
I1
sVcyj75ou
p2
I1
s.(dp0
Vd0ztf0h
p1
I1
sVcyj75ou
p2
I1
s.(dp0
Vd0ztnvs
p1
I1
sVcyj75ou
p2
I1
s.(dp0
Vd10kbi4
p1
I1
sVcyj75ou
p2
I1
s.(dp0
Vd10m0ym
p1
I1
sVcyj75ou
p2
I1
s.(dp0
Vd12ydbu
p1
I1
sVcyj75ou
p2
I1
s.(dp0
Vd14bvh2
p1
I1
sVcyj75ou
p2
I1
s.(dp0
Vcyj75ou
p1
I1
sVd16c2n9
p2
I1
s.(dp0
Vd19jhth
p1
I1
sVcyj75ou
p2
I1
s.(dp0
Vd1btxxz
p1
I1
sVcyj75ou
p2
I1
s.(dp0
Vcyj75ou
p1
I1
sVd1c3of2
p2
I1
s.(dp0
Vd1c6sj8
p1
I1
sVcyj75ou
p2
I1
s.(dp0
Vd1d9jnn
p1
I1
sVcyj75ou
p2
I1
s.(dp0
Vd1kmcw8
p1
I1
sVcyj75ou
p2
I1
s.(dp0
Vcyj75ou
p1
I1
sVd1z0zal
p2
I1
s.(dp0
Vcyj75ou
p1
I1
sVd25aexq
p2
I1
s.(dp0
Vd25j4jm
p1
I1
sVcyj75ou
p2
I1
s.(dp0
Vd2b3txi
p1
I1
sVcyj75ou
p2
I1
s.(dp0
Vd2bwwof
p1
I1
sVcyj75ou
p2
I1
s.(dp0
Vd2em0la
p1
I1
sVcyj75ou
p2
I1
s.(dp0
Vd2iyebt
p1
I1
sVcyj75ou
p2
I1
s.(dp0
Vd2s1taz
p1
I1
sVcyj75ou
p2
I1
s.(dp0
Vd2t7whk
p1
I1
sVcyj75ou
p2
I1
s.(dp0
Vcyj75ou
p1
I1
sVd30z2md
p2
I1
s.(dp0
Vcyj75ou
p1
I1
sVd35shyn
p2
I1
s.(dp0
Vd35tn9q
p1
I1
sVcyj75ou
p2
I1
s.(dp0
Vd386954
p1
I1
sVcyj75ou
p2
I1
s.(dp0
Vcyj75ou
p1
I1
sVd3e2du0
p2
I1
s.(dp0
Vcyj75ou
p1
I1
sVd3jq5m0
p2
I1
s.(dp0
Vd3l1qqw
p1
I1
sVcyj75ou
p2
I1
s.(dp0
Vcyj75ou
p1
I1
sVd3lfj48
p2
I1
s.(dp0
Vd3mkq4o
p1
I1
sVcyj75ou
p2
I1
s.(dp0
Vcyj75ou
p1
I1
sVd3pl5fn
p2
I1
s.(dp0
Vd3qa1p2
p1
I1
sVcyj75ou
p2
I1
s.(dp0
Vcyj75ou
p1
I1
sVd3qgzy8
p2
I1
s.(dp0
Vd3st4mj
p1
I1
sVcyj75ou
p2
I1
s.(dp0
Vd3uefik
p1
I1
sVcyj75ou
p2
I1
s.(dp0
Vcyj75ou
p1
I1
sVd3x3kjg
p2
I1
s.(dp0
Vd3z84hx
p1
I1
sVcyj75ou
p2
I1
s.(dp0
Vd3zfrer
p1
I1
sVcyj75ou
p2
I1
s.(dp0
Vd43wygl
p1
I1
sVcyj75ou
p2
I1
s.(dp0
Vcyj75ou
p1
I1
sVd475kar
p2
I1
s.(dp0
Vd47mmub
p1
I1
sVcyj75ou
p2
I1
s.(dp0
Vd4artom
p1
I1
sVcyj75ou
p2
I1
s.(dp0
Vcyj75ou
p1
I1
sVd4bdyoo
p2
I1
s.(dp0
Vd4bgdoa
p1
I1
sVcyj75ou
p2
I1
s.(dp0
Vd4kx2li
p1
I1
sVcyj75ou
p2
I1
s.(dp0
Vd4kx2li
p1
I1
sVcyj75ou
p2
I1
s.(dp0
Vd4l0xq1
p1
I1
sVcyj75ou
p2
I1
s.(dp0
Vcyj75ou
p1
I1
sVd4xgmqz
p2
I1
s.(dp0
Vcyj75ou
p1
I1
sVd5590dm
p2
I1
s.(dp0
Vd56gglg
p1
I1
sVcyj75ou
p2
I1
s.(dp0
Vd57gaqx
p1
I1
sVcyj75ou
p2
I1
s.(dp0
Vd59eppg
p1
I1
sVcyj75ou
p2
I1
s.(dp0
Vd5bgcm5
p1
I1
sVcyj75ou
p2
I1
s.(dp0
Vcyj75ou
p1
I1
sVd5es4wl
p2
I1
s.(dp0
Vcyj75ou
p1
I1
sVd5fi815
p2
I1
s.(dp0
Vcyj75ou
p1
I1
sVd5fi815
p2
I1
s.(dp0
Vcyj75ou
p1
I1
sVd5h0prp
p2
I1
s.(dp0
Vcyj75ou
p1
I1
sVd5jajm1
p2
I1
s.(dp0
Vd5m01os
p1
I1
sVcyj75ou
p2
I1
s.(dp0
Vd5oeda7
p1
I1
sVcyj75ou
p2
I1
s.(dp0
Vd5w6pv9
p1
I1
sVcyj75ou
p2
I1
s.(dp0
Vcyj75ou
p1
I1
sVd67s479
p2
I1
s.(dp0
Vd68esa6
p1
I1
sVcyj75ou
p2
I1
s.(dp0
Vcyj75ou
p1
I1
sVd6cbfve
p2
I1
s.(dp0
Vd6ha8ij
p1
I1
sVcyj75ou
p2
I1
s.(dp0
Vd6hdqs3
p1
I1
sVcyj75ou
p2
I1
s.(dp0
Vd6hgf63
p1
I1
sVcyj75ou
p2
I1
s.(dp0
Vd6i73ri
p1
I1
sVcyj75ou
p2
I1
s.(dp0
Vcyj75ou
p1
I1
sVd6mdtzk
p2
I1
s.(dp0
Vcyj75ou
p1
I1
sVd6om3ej
p2
I1
s.(dp0
Vd6qj4ik
p1
I1
sVcyj75ou
p2
I1
s.(dp0
Vd6(dp0
Vdktbo32
p1
I1
sVcyj75ou
p2
I1
s.