(dp0
Vcyqdmte
p1
I1
s.(dp0
Vcyuo52s
p1
I1
sVcyqdmte
p2
I1
s.(dp0
Vcz48zik
p1
I1
sVcyqdmte
p2
I1
s.(dp0
Vcz7xmw1
p1
I1
sVcyqdmte
p2
I1
s.(dp0
Vd0mi0kg
p1
I1
sVcyqdmte
p2
I1
s.(dp0
Vd0z1btq
p1
I1
sVcyqdmte
p2
I1
s.(dp0
Vd0z1btq
p1
I1
sVcyqdmte
p2
I1
s.(dp0
Vd0z1btq
p1
I1
sVcyqdmte
p2
I1
s.(dp0
Vd298lvh
p1
I1
sVcyqdmte
p2
I1
s.(dp0
Vd2p8sp3
p1
I1
sVcyqdmte
p2
I1
s.(dp0
Vdakpuwy
p1
I1
sVcyqdmte
p2
I1
s.(dp0
Vdbaoy7e
p1
I1
sVcyqdmte
p2
I1
s.(dp0
Vdc6dc74
p1
I1
sVcyqdmte
p2
I1
s.(dp0
Vdc6dc74
p1
I1
sVcyqdmte
p2
I1
s.(dp0
Vcyqdmte
p1
I1
sVdclca1v
p2
I1
s.(dp0
Vdf4rtf5
p1
I1
sVcyqdmte
p2
I1
s.(dp0
Vdf4rtf5
p1
I1
sVcyqdmte
p2
I1
s.(dp0
Vdf4rtf5
p1
I1
sVcyqdmte
p2
I1
s.(dp0
Vdf4tg3d
p1
I1
sVcyqdmte
p2
I1
s.(dp0
Vdf4xnar
p1
I1
sVcyqdmte
p2
I1
s.(dp0
Vdf4yekp
p1
I1
sVcyqdmte
p2
I1
s.(dp0
Vdf5de98
p1
I1
sVcyqdmte
p2
I1
s.(dp0
Vdf5de98
p1
I1
sVcyqdmte
p2
I1
s.(dp0
Vdf5de98
p1
I1
sVcyqdmte
p2
I1
s.(dp0
Vdfz0ci6
p1
I1
sVcyqdmte
p2
I1
s.(dp0
Vcyqdmte
p1
I1
sVdh9lb4g
p2
I1
s.(dp0
Vdhproq4
p1
I1
sVcyqdmte
p2
I1
s.(dp0
Vdjbfcl1
p1
I1
sVcyqdmte
p2
I1
s.