(dp0
Vcyhvg8p
p1
I1
s.(dp0
Vcyhvg8p
p1
I1
sVcyilftc
p2
I1
s.(dp0
Vcyhvg8p
p1
I1
sVcytqv7h
p2
I1
s.(dp0
Vcyhvg8p
p1
I1
sVczsjl1i
p2
I1
s.(dp0
Vcyhvg8p
p1
I1
sVczxeqij
p2
I1
s.(dp0
Vcyhvg8p
p1
I1
sVd04u1dh
p2
I1
s.(dp0
Vcyhvg8p
p1
I1
sVd0fpgay
p2
I1
s.(dp0
Vcyhvg8p
p1
I1
sVd0i2vjr
p2
I1
s.(dp0
Vcyhvg8p
p1
I1
sVd0i2vjr
p2
I1
s.(dp0
Vcyhvg8p
p1
I1
sVd118uv8
p2
I1
s.(dp0
Vd19gon4
p1
I1
sVcyhvg8p
p2
I1
s.(dp0
Vd28pgcj
p1
I1
sVcyhvg8p
p2
I1
s.(dp0
Vcyhvg8p
p1
I1
sVd2dbfnn
p2
I1
s.(dp0
Vcyhvg8p
p1
I1
sVd2dbfnn
p2
I1
s.(dp0
Vcyhvg8p
p1
I1
sVd2dh3t1
p2
I1
s.(dp0
Vcyhvg8p
p1
I1
sVd2ecwor
p2
I1
s.(dp0
Vd3jsbgc
p1
I1
sVcyhvg8p
p2
I1
s.(dp0
Vd3syyf4
p1
I1
sVcyhvg8p
p2
I1
s.(dp0
Vd3vlswg
p1
I1
sVcyhvg8p
p2
I1
s.(dp0
Vcyhvg8p
p1
I1
sVd3vnb4s
p2
I1
s.(dp0
Vcyhvg8p
p1
I1
sVd3wmk9a
p2
I1
s.(dp0
Vcyhvg8p
p1
I1
sVd3y0s0g
p2
I1
s.(dp0
Vcyhvg8p
p1
I1
sVd3ymc62
p2
I1
s.(dp0
Vcyhvg8p
p1
I1
sVd43c6um
p2
I1
s.(dp0
Vcyhvg8p
p1
I1
sVd4dt32b
p2
I1
s.(dp0
Vcyhvg8p
p1
I1
sVd4h5ee9
p2
I1
s.(dp0
Vd4w0tio
p1
I1
sVcyhvg8p
p2
I1
s.(dp0
Vcyhvg8p
p1
I1
sVd56z1js
p2
I1
s.(dp0
Vcyhvg8p
p1
I1
sVd5hif36
p2
I1
s.(dp0
Vcyhvg8p
p1
I1
sVd5rf6vs
p2
I1
s.(dp0
Vcyhvg8p
p1
I1
sVd5xo2n2
p2
I1
s.(dp0
Vcyhvg8p
p1
I1
sVd5zh1jr
p2
I1
s.(dp0
Vcyhvg8p
p1
I1
sVd5zh1jr
p2
I1
s.(dp0
Vcyhvg8p
p1
I1
sVd60i8jj
p2
I1
s.(dp0
Vcyhvg8p
p1
I1
sVd6l7ui5
p2
I1
s.(dp0
Vcyhvg8p
p1
I1
sVd6mgorv
p2
I1
s.(dp0
Vcyhvg8p
p1
I1
sVd7p4c23
p2
I1
s.(dp0
Vcyhvg8p
p1
I1
sVd7p4c23
p2
I1
s.(dp0
Vcyhvg8p
p1
I1
sVd7zemga
p2
I1
s.(dp0
Vcyhvg8p
p1
I1
sVd8guv4v
p2
I1
s.(dp0
Vcyhvg8p
p1
I1
sVd973xi7
p2
I1
s.(dp0
Vd9bq2lj
p1
I1
sVcyhvg8p
p2
I1
s.(dp0
Vcyhvg8p
p1
I1
sVd9rhv08
p2
I1
s.(dp0
Vcyhvg8p
p1
I1
sVda0r6aq
p2
I1
s.(dp0
Vcyhvg8p
p1
I1
sVda0r6aq
p2
I1
s.(dp0
Vdatbmzd
p1
I1
sVcyhvg8p
p2
I1
s.(dp0
Vdbgqi26
p1
I1
sVcyhvg8p
p2
I1
s.(dp0
Vcyhvg8p
p1
I1
sVdc0fmi4
p2
I1
s.(dp0
Vcyhvg8p
p1
I1
sVdc11b1i
p2
I1
s.(dp0
Vcyhvg8p
p1
I1
sVdcpjjwb
p2
I1
s.(dp0
Vcyhvg8p
p1
I1
sVdcxctpi
p2
I1
s.(dp0
Vcyhvg8p
p1
I1
sVdczjfid
p2
I1
s.(dp0
Vddgzs8a
p1
I1
sVcyhvg8p
p2
I1
s.(dp0
Vcyhvg8p
p1
I1
sVddtuctq
p2
I1
s.(dp0
Vcyhvg8p
p1
I1
sVddzxqck
p2
I1
s.(dp0
Vcyhvg8p
p1
I1
sVdezeel1
p2
I1
s.(dp0
Vcyhvg8p
p1
I1
sVdf84c21
p2
I1
s.(dp0
Vcyhvg8p
p1
I1
sVdfdefp6
p2
I1
s.(dp0
Vcyhvg8p
p1
I1
sVdfib76i
p2
I1
s.(dp0
Vdfklzod
p1
I1
sVcyhvg8p
p2
I1
s.(dp0
Vcyhvg8p
p1
I1
sVdfw9eww
p2
I1
s.(dp0
Vdg3qhjh
p1
I1
sVcyhvg8p
p2
I1
s.(dp0
Vcyhvg8p
p1
I1
sVdgsh7x4
p2
I1
s.(dp0
Vcyhvg8p
p1
I1
sVdh31qh6
p2
I1
s.(dp0
Vcyhvg8p
p1
I1
sVdhqbnvr
p2
I1
s.(dp0
Vdhtf2gk
p1
I1
sVcyhvg8p
p2
I1
s.(dp0
Vdhtf2gk
p1
I1
sVcyhvg8p
p2
I1
s.(dp0
Vdhvopt0
p1
I1
sVcyhvg8p
p2
I1
s.(dp0
Vcyhvg8p
p1
I1
sVdhwf85j
p2
I1
s.(dp0
Vcyhvg8p
p1
I1
sVdi4bnyl
p2
I1
s.(dp0
Vcyhvg8p
p1
I1
sVdibut2g
p2
I1
s.(dp0
Vdigqha7
p1
I1
sVcyhvg8p
p2
I1
s.(dp0
Vcyhvg8p
p1
I1
sVdj3p8di
p2
I1
s.(dp0
Vcyhvg8p
p1
I1
sVdjc1nc1
p2
I1
s.(dp0
Vcyhvg8p
p1
I1
sVdjw0y08
p2
I1
s.(dp0
Vdkg0s06
p1
I1
sVcyhvg8p
p2
I1
s.(dp0
Vcyhvg8p
p1
I1
sVdknm48z
p2
I1
s.(dp0
Vdmss67p
p1
I1
sVcyhvg8p
p2
I1
s.(dp0
Vcyhvg8p
p1
I1
sVdnydk7l
p2
I1
s.