(dp0
Vcyo6npn
p1
I1
s.(dp0
Vcypd5lj
p1
I1
sVcyo6npn
p2
I1
s.(dp0
Vczi01s1
p1
I1
sVcyo6npn
p2
I1
s.(dp0
Vczm23gm
p1
I1
sVcyo6npn
p2
I1
s.(dp0
Vczwxdqc
p1
I1
sVcyo6npn
p2
I1
s.(dp0
Vd0oyccl
p1
I1
sVcyo6npn
p2
I1
s.(dp0
Vd1jrds0
p1
I1
sVcyo6npn
p2
I1
s.(dp0
Vd1urtsc
p1
I1
sVcyo6npn
p2
I1
s.(dp0
Vd3fyizn
p1
I1
sVcyo6npn
p2
I1
s.(dp0
Vcyo6npn
p1
I1
sVd67pese
p2
I1
s.(dp0
Vd68o6x7
p1
I1
sVcyo6npn
p2
I1
s.(dp0
Vd6ufz2s
p1
I1
sVcyo6npn
p2
I1
s.(dp0
Vd7kb8of
p1
I1
sVcyo6npn
p2
I1
s.(dp0
Vd7yn6mv
p1
I1
sVcyo6npn
p2
I1
s.(dp0
Vd84nm0z
p1
I1
sVcyo6npn
p2
I1
s.(dp0
Vcyo6npn
p1
I1
sVd90bkn4
p2
I1
s.(dp0
Vdb70p8q
p1
I1
sVcyo6npn
p2
I1
s.(dp0
Vdcchnm5
p1
I1
sVcyo6npn
p2
I1
s.(dp0
Vdctixs2
p1
I1
sVcyo6npn
p2
I1
s.(dp0
Vdeq08zp
p1
I1
sVcyo6npn
p2
I1
s.(dp0
Vdg8sgs5
p1
I1
sVcyo6npn
p2
I1
s.(dp0
Vdgeqn6c
p1
I1
sVcyo6npn
p2
I1
s.(dp0
Vdhe72qn
p1
I1
sVcyo6npn
p2
I1
s.(dp0
Vdir99kk
p1
I1
sVcyo6npn
p2
I1
s.(dp0
Vdjv2bnc
p1
I1
sVcyo6npn
p2
I1
s.