(dp0
Vcymnsuj
p1
I1
s.(dp0
Vcynhxdu
p1
I1
sVcymnsuj
p2
I1
s.(dp0
Vcyr80jc
p1
I1
sVcymnsuj
p2
I1
s.(dp0
Vcymnsuj
p1
I1
sVcyrhgq2
p2
I1
s.(dp0
Vcymnsuj
p1
I1
sVcyrxlww
p2
I1
s.(dp0
Vcywwpvb
p1
I1
sVcymnsuj
p2
I1
s.(dp0
Vcymnsuj
p1
I1
sVcyxqk34
p2
I1
s.(dp0
Vcyxs3hm
p1
I1
sVcymnsuj
p2
I1
s.(dp0
Vcyyt44z
p1
I1
sVcymnsuj
p2
I1
s.(dp0
Vcyyv109
p1
I1
sVcymnsuj
p2
I1
s.(dp0
Vcymnsuj
p1
I1
sVcyz215d
p2
I1
s.(dp0
Vcymnsuj
p1
I1
sVcz0rawh
p2
I1
s.(dp0
Vcymnsuj
p1
I1
sVcz29gk9
p2
I1
s.(dp0
Vcz39jse
p1
I1
sVcymnsuj
p2
I1
s.(dp0
Vcymnsuj
p1
I1
sVcz4l6pd
p2
I1
s.(dp0
Vcymnsuj
p1
I1
sVcz4ya8s
p2
I1
s.(dp0
Vcymnsuj
p1
I1
sVcz58baq
p2
I1
s.(dp0
Vcymnsuj
p1
I1
sVcz66oyz
p2
I1
s.(dp0
Vcymnsuj
p1
I1
sVcz685hg
p2
I1
s.(dp0
Vcymnsuj
p1
I1
sVczgrb9q
p2
I1
s.(dp0
Vczh0ujl
p1
I1
sVcymnsuj
p2
I1
s.(dp0
Vcymnsuj
p1
I1
sVczh4s4j
p2
I1
s.(dp0
Vcymnsuj
p1
I1
sVczh9gpb
p2
I1
s.(dp0
Vcymnsuj
p1
I1
sVczhz1q6
p2
I1
s.(dp0
Vcymnsuj
p1
I1
sVcziuyr1
p2
I1
s.(dp0
Vcymnsuj
p1
I1
sVczmbwzm
p2
I1
s.(dp0
Vcymnsuj
p1
I1
sVczp67th
p2
I1
s.(dp0
Vczrh853
p1
I1
sVcymnsuj
p2
I1
s.(dp0
Vcymnsuj
p1
I1
sVczslh72
p2
I1
s.(dp0
Vcymnsuj
p1
I1
sVczt2e1m
p2
I1
s.(dp0
Vcztmsyt
p1
I1
sVcymnsuj
p2
I1
s.(dp0
Vczuxx1q
p1
I1
sVcymnsuj
p2
I1
s.(dp0
Vcymnsuj
p1
I1
sVczwkb78
p2
I1
s.(dp0
Vcymnsuj
p1
I1
sVczxq03j
p2
I1
s.(dp0
Vd005rj5
p1
I1
sVcymnsuj
p2
I1
s.(dp0
Vcymnsuj
p1
I1
sVd00rdoo
p2
I1
s.(dp0
Vcymnsuj
p1
I1
sVd01balh
p2
I1
s.(dp0
Vcymnsuj
p1
I1
sVd01r2a3
p2
I1
s.(dp0
Vcymnsuj
p1
I1
sVd0ajhtb
p2
I1
s.(dp0
Vcymnsuj
p1
I1
sVd0eoaf7
p2
I1
s.(dp0
Vcymnsuj
p1
I1
sVd0hxv07
p2
I1
s.(dp0
Vcymnsuj
p1
I1
sVd0ixirq
p2
I1
s.(dp0
Vcymnsuj
p1
I1
sVd0m9wr9
p2
I1
s.(dp0
Vcymnsuj
p1
I1
sVd0n2eth
p2
I1
s.(dp0
Vcymnsuj
p1
I1
sVd0sxdnl
p2
I1
s.(dp0
Vcymnsuj
p1
I1
sVd0vdk01
p2
I1
s.(dp0
Vcymnsuj
p1
I1
sVd0w44vn
p2
I1
s.(dp0
Vcymnsuj
p1
I1
sVd0wicd2
p2
I1
s.(dp0
Vd0y33oq
p1
I1
sVcymnsuj
p2
I1
s.(dp0
Vcymnsuj
p1
I1
sVd0yq1ue
p2
I1
s.(dp0
Vcymnsuj
p1
I1
sVd1562cw
p2
I1
s.(dp0
Vcymnsuj
p1
I1
sVd18p4oj
p2
I1
s.(dp0
Vd1bhmd3
p1
I1
sVcymnsuj
p2
I1
s.(dp0
Vcymnsuj
p1
I1
sVd1fts6u
p2
I1
s.(dp0
Vcymnsuj
p1
I1
sVd1gi6l5
p2
I1
s.(dp0
Vcymnsuj
p1
I1
sVd1iwt6d
p2
I1
s.(dp0
Vd1k9gja
p1
I1
sVcymnsuj
p2
I1
s.(dp0
Vcymnsuj
p1
I1
sVd1kdsq1
p2
I1
s.(dp0
Vcymnsuj
p1
I1
sVd1lj4hx
p2
I1
s.(dp0
Vcymnsuj
p1
I1
sVd1ln7ig
p2
I1
s.(dp0
Vd1n7ydo
p1
I1
sVcymnsuj
p2
I1
s.(dp0
Vcymnsuj
p1
I1
sVd1n99wd
p2
I1
s.(dp0
Vcymnsuj
p1
I1
sVd1o51dg
p2
I1
s.(dp0
Vd1p1p24
p1
I1
sVcymnsuj
p2
I1
s.(dp0
Vcymnsuj
p1
I1
sVd1qb3ea
p2
I1
s.(dp0
Vd1tomnw
p1
I1
sVcymnsuj
p2
I1
s.(dp0
Vcymnsuj
p1
I1
sVd1v0mk6
p2
I1
s.(dp0
Vcymnsuj
p1
I1
sVd1zjwnk
p2
I1
s.(dp0
Vcymnsuj
p1
I1
sVd1zsf4m
p2
I1
s.(dp0
Vd25dan6
p1
I1
sVcymnsuj
p2
I1
s.(dp0
Vcymnsuj
p1
I1
sVd277ohg
p2
I1
s.(dp0
Vcymnsuj
p1
I1
sVd27vh9h
p2
I1
s.(dp0
Vcymnsuj
p1
I1
sVd2a249v
p2
I1
s.(dp0
Vcymnsuj
p1
I1
sVd2bazx1
p2
I1
s.(dp0
Vd2d1n6v
p1
I1
sVcymnsuj
p2
I1
s.(dp0
Vd2dm6z6
p1
I1
sVcymnsuj
p2
I1
s.(dp0
Vd2h4tqk
p1
I1
sVcymnsuj
p2
I1
s.(dp0
Vd2h4tqk
p1
I1
sVcymnsuj
p2
I1
s.(dp0
Vd2j1vhk
p1
I1
sVcymnsuj
p2
I1
s.(dp0
Vcymnsuj
p1
I1
sVd2jlrzq
p2
I1
s.(dp0
Vcymnsuj
p1
I1
sVd2mbaxw
p2
I1
s.(dp0
Vcymnsuj
p1
I1
sVd2n7648
p2
I1
s.(dp0
Vd2op8ps
p1
I1
sVcymnsuj
p2
I1
s.(dp0
Vd2py3gx
p1
I1
sVcymnsuj
p2
I1
s.(dp0
Vcymnsuj
p1
I1
sVd2tbyz0
p2
I1
s.(dp0
Vcymnsuj
p1
I1
sVd2xyi5k
p2
I1
s.(dp0
Vcymnsuj
p1
I1
sVd2zl0g9
p2
I1
s.(dp0
Vcymnsuj
p1
I1
sVd33wvck
p2
I1
s.(dp0
Vd341i8q
p1
I1
sVcymnsuj
p2
I1
s.(dp0
Vcymnsuj
p1
I1
sVd380ue5
p2
I1
s.(dp0
Vcymnsuj
p1
I1
sVd38bw13
p2
I1
s.(dp0
Vcymnsuj
p1
I1
sVd3af61f
p2
I1
s.(dp0
Vcymnsuj
p1
I1
sVd3bc1xo
p2
I1
s.(dp0
Vcymnsuj
p1
I1
sVd3bcfe8
p2
I1
s.(dp0
Vcymnsuj
p1
I1
sVd3gbrcy
p2
I1
s.(dp0
Vcymnsuj
p1
I1
sVd3jby1j
p2
I1
s.(dp0
Vd3m1s51
p1
I1
sVcymnsuj
p2
I1
s.(dp0
Vcymnsuj
p1
I1
sVd3p6wpm
p2
I1
s.(dp0
Vcymnsuj
p1
I1
sVd3tzkbr
p2
I1
s.(dp0
Vcymnsuj
p1
I1
sVd3u6tyl
p2
I1
s.(dp0
Vcymnsuj
p1
I1
sVd3ugats
p2
I1
s.(dp0
Vd3vwily
p1
I1
sVcymnsuj
p2
I1
s.(dp0
Vcymnsuj
p1
I1
sVd3x7cg2
p2
I1
s.(dp0
Vcymnsuj
p1
I1
sVd3yl6vl
p2
I1
s.(dp0
Vd3zl897
p1
I1
sVcymnsuj
p2
I1
s.(dp0
Vcymnsuj
p1
I1
sVd45b66g
p2
I1
s.(dp0
Vcymnsuj
p1
I1
sVd48fw0p
p2
I1
s.(dp0
Vd4co512
p1
I1
sVcymnsuj
p2
I1
s.(dp0
Vcy(dp0
Vdp54ldk
p1
I1
sVcymnsuj
p2
I1
s.