(dp0
Vcyjsi9f
p1
I1
s.(dp0
Vcyjsi9f
p1
I1
sVcyolmh0
p2
I1
s.(dp0
Vcyjsi9f
p1
I1
sVcyozdr0
p2
I1
s.(dp0
Vcyjsi9f
p1
I1
sVcyrp3oq
p2
I1
s.(dp0
Vcyjsi9f
p1
I1
sVcys43h6
p2
I1
s.(dp0
Vcyjsi9f
p1
I1
sVcysyjhg
p2
I1
s.(dp0
Vcyjsi9f
p1
I1
sVcysyjhg
p2
I1
s.(dp0
Vcyjsi9f
p1
I1
sVcyujcy6
p2
I1
s.(dp0
Vcyjsi9f
p1
I1
sVcyvafil
p2
I1
s.(dp0
Vcyjsi9f
p1
I1
sVcz0h694
p2
I1
s.(dp0
Vcyjsi9f
p1
I1
sVcz3s3yq
p2
I1
s.(dp0
Vcyjsi9f
p1
I1
sVcz7hdee
p2
I1
s.(dp0
Vcyjsi9f
p1
I1
sVcz7hdee
p2
I1
s.(dp0
Vcyjsi9f
p1
I1
sVcz96ywd
p2
I1
s.(dp0
Vcyjsi9f
p1
I1
sVczbm6zu
p2
I1
s.(dp0
Vcyjsi9f
p1
I1
sVczbsws0
p2
I1
s.(dp0
Vcyjsi9f
p1
I1
sVczbsws0
p2
I1
s.(dp0
Vcyjsi9f
p1
I1
sVczhj6i7
p2
I1
s.(dp0
Vcyjsi9f
p1
I1
sVczhj6i7
p2
I1
s.(dp0
Vcyjsi9f
p1
I1
sVczk178t
p2
I1
s.(dp0
Vcyjsi9f
p1
I1
sVczkvenl
p2
I1
s.(dp0
Vcyjsi9f
p1
I1
sVczl24ly
p2
I1
s.(dp0
Vcyjsi9f
p1
I1
sVczsnl5a
p2
I1
s.(dp0
Vcyjsi9f
p1
I1
sVczunlpw
p2
I1
s.(dp0
Vcyjsi9f
p1
I1
sVczy64tb
p2
I1
s.(dp0
Vcyjsi9f
p1
I1
sVczyxjnq
p2
I1
s.(dp0
Vcyjsi9f
p1
I1
sVd06qscp
p2
I1
s.(dp0
Vcyjsi9f
p1
I1
sVd09almv
p2
I1
s.(dp0
Vcyjsi9f
p1
I1
sVd09almv
p2
I1
s.(dp0
Vcyjsi9f
p1
I1
sVd0dejs7
p2
I1
s.(dp0
Vcyjsi9f
p1
I1
sVd0eqqna
p2
I1
s.(dp0
Vcyjsi9f
p1
I1
sVd0gqlax
p2
I1
s.(dp0
Vcyjsi9f
p1
I1
sVd0hvdog
p2
I1
s.(dp0
Vcyjsi9f
p1
I1
sVd0hvdog
p2
I1
s.(dp0
Vcyjsi9f
p1
I1
sVd0m9ub3
p2
I1
s.(dp0
Vcyjsi9f
p1
I1
sVd0p5o0y
p2
I1
s.(dp0
Vcyjsi9f
p1
I1
sVd0tcdhf
p2
I1
s.(dp0
Vcyjsi9f
p1
I1
sVd0tkbcw
p2
I1
s.(dp0
Vcyjsi9f
p1
I1
sVd0tns19
p2
I1
s.(dp0
Vcyjsi9f
p1
I1
sVd0tqnjv
p2
I1
s.(dp0
Vcyjsi9f
p1
I1
sVd169i79
p2
I1
s.(dp0
Vcyjsi9f
p1
I1
sVd17yglw
p2
I1
s.(dp0
Vcyjsi9f
p1
I1
sVd17ypkk
p2
I1
s.(dp0
Vcyjsi9f
p1
I1
sVd18m7gw
p2
I1
s.(dp0
Vcyjsi9f
p1
I1
sVd1a244j
p2
I1
s.(dp0
Vcyjsi9f
p1
I1
sVd1a244j
p2
I1
s.(dp0
Vcyjsi9f
p1
I1
sVd1a244j
p2
I1
s.(dp0
Vcyjsi9f
p1
I1
sVd1am890
p2
I1
s.(dp0
Vcyjsi9f
p1
I1
sVd1cm57p
p2
I1
s.(dp0
Vcyjsi9f
p1
I1
sVd1crgi8
p2
I1
s.(dp0
Vcyjsi9f
p1
I1
sVd1ejy0s
p2
I1
s.(dp0
Vcyjsi9f
p1
I1
sVd1igswa
p2
I1
s.(dp0
Vcyjsi9f
p1
I1
sVd1k05aj
p2
I1
s.(dp0
Vcyjsi9f
p1
I1
sVd1m0px4
p2
I1
s.(dp0
Vcyjsi9f
p1
I1
sVd1m6xlc
p2
I1
s.(dp0
Vcyjsi9f
p1
I1
sVd1m6xlc
p2
I1
s.(dp0
Vcyjsi9f
p1
I1
sVd1n0lb1
p2
I1
s.(dp0
Vcyjsi9f
p1
I1
sVd1p00nz
p2
I1
s.(dp0
Vcyjsi9f
p1
I1
sVd1ps9p4
p2
I1
s.(dp0
Vcyjsi9f
p1
I1
sVd1sj5f5
p2
I1
s.(dp0
Vcyjsi9f
p1
I1
sVd1ut957
p2
I1
s.(dp0
Vcyjsi9f
p1
I1
sVd1uullx
p2
I1
s.(dp0
Vcyjsi9f
p1
I1
sVd20ype3
p2
I1
s.(dp0
Vcyjsi9f
p1
I1
sVd20ype3
p2
I1
s.(dp0
Vcyjsi9f
p1
I1
sVd20ype3
p2
I1
s.(dp0
Vcyjsi9f
p1
I1
sVd20ype3
p2
I1
s.(dp0
Vcyjsi9f
p1
I1
sVd20ype3
p2
I1
s.(dp0
Vcyjsi9f
p1
I1
sVd20ype3
p2
I1
s.(dp0
Vcyjsi9f
p1
I1
sVd20ype3
p2
I1
s.(dp0
Vcyjsi9f
p1
I1
sVd2169wb
p2
I1
s.(dp0
Vcyjsi9f
p1
I1
sVd2169wb
p2
I1
s.(dp0
Vcyjsi9f
p1
I1
sVd2169wb
p2
I1
s.(dp0
Vcyjsi9f
p1
I1
sVd2169wb
p2
I1
s.(dp0
Vcyjsi9f
p1
I1
sVd22yur0
p2
I1
s.(dp0
Vcyjsi9f
p1
I1
sVd22yur0
p2
I1
s.(dp0
Vcyjsi9f
p1
I1
sVd25l0aw
p2
I1
s.(dp0
Vcyjsi9f
p1
I1
sVd27ite3
p2
I1
s.(dp0
Vcyjsi9f
p1
I1
sVd2av8c1
p2
I1
s.(dp0
Vcyjsi9f
p1
I1
sVd2hfn7o
p2
I1
s.(dp0
Vcyjsi9f
p1
I1
sVd2inmq5
p2
I1
s.(dp0
Vcyjsi9f
p1
I1
sVd2inmq5
p2
I1
s.(dp0
Vcyjsi9f
p1
I1
sVd2qbruf
p2
I1
s.(dp0
Vcyjsi9f
p1
I1
sVd2zdu0b
p2
I1
s.(dp0
Vcyjsi9f
p1
I1
sVd31nqht
p2
I1
s.(dp0
Vcyjsi9f
p1
I1
sVd32xfnt
p2
I1
s.(dp0
Vcyjsi9f
p1
I1
sVd38ok63
p2
I1
s.(dp0
Vcyjsi9f
p1
I1
sVd3fxp15
p2
I1
s.(dp0
Vcyjsi9f
p1
I1
sVd3nzj5e
p2
I1
s.(dp0
Vcyjsi9f
p1
I1
sVd3pltxk
p2
I1
s.(dp0
Vcyjsi9f
p1
I1
sVd3qmqx3
p2
I1
s.(dp0
Vcyjsi9f
p1
I1
sVd3qsapj
p2
I1
s.(dp0
Vcyjsi9f
p1
I1
sVd3t3cvc
p2
I1
s.(dp0
Vcyjsi9f
p1
I1
sVd41yxs6
p2
I1
s.(dp0
Vcyjsi9f
p1
I1
sVd44l3x9
p2
I1
s.(dp0
Vcyjsi9f
p1
I1
sVd47z218
p2
I1
s.(dp0
Vcyjsi9f
p1
I1
sVd48yg8d
p2
I1
s.(dp0
Vcyjsi9f
p1
I1
sVd49b892
p2
I1
s.(dp0
Vcyjsi9f
p1
I1
sVd4bg53o
p2
I1
s.(dp0
Vcyjsi9f
p1
I1
sVd4bk73b
p2
I1
s.(dp0
Vcyjsi9f
p1
I1
sVd4bk73b
p2
I1
s.(dp0
Vcyjsi9f
p1
I1
sVd4bk73b
p2
I1
s.(dp0
Vcyjsi9f
p1
I1
sVd4bk73b
p2
I1
s.(dp0
Vcyjsi9f
p1
I1
sVd4blx4v
p2
I1
s.(dp0
Vcyjsi9f
p1
I1
sVd4bog0d
p2
I1
s.(dp0
Vcyjsi9f
p1
I1
sVd4cjvwq
p2
I1
s.(dp0
Vcyjsi9f
p1
I1
sVd4fcfl5
p2
I1
s.(dp0
Vcyjsi9f
p1
I1
sVd4ijk87
p2
I1
s.(dp0
Vcyjsi9f
p1
I1
sVd4ijk87
p2
I1
s.(dp0
Vcy(dp0
Vcyjsi9f
p1
I1
sVdozg2gs
p2
I1
s.