(dp0
Vd25ddar
p1
I1
s.(dp0
Vd25ddar
p1
I1
sVd5gfiay
p2
I1
s.(dp0
Vd25ddar
p1
I1
sVddhytc0
p2
I1
s.(dp0
Vdeukc9l
p1
I1
sVd25ddar
p2
I1
s.(dp0
Vdeukc9l
p1
I1
sVd25ddar
p2
I1
s.(dp0
Vd25ddar
p1
I1
sVdjjx8jg
p2
I1
s.(dp0
Vd25ddar
p1
I1
sVdjjx8jg
p2
I1
s.(dp0
Vd25ddar
p1
I1
sVdjjx8jg
p2
I1
s.(dp0
Vd25ddar
p1
I1
sVdjjx8jg
p2
I1
s.