(dp0
Vcylltid
p1
I1
s.(dp0
Vcylltid
p1
I1
sVcyme235
p2
I1
s.(dp0
Vcyxsd6t
p1
I1
sVcylltid
p2
I1
s.(dp0
Vcz10zvv
p1
I1
sVcylltid
p2
I1
s.(dp0
Vcz10zvv
p1
I1
sVcylltid
p2
I1
s.(dp0
Vczh2hvb
p1
I1
sVcylltid
p2
I1
s.(dp0
Vcylltid
p1
I1
sVczrktim
p2
I1
s.(dp0
Vd06ao1b
p1
I1
sVcylltid
p2
I1
s.(dp0
Vd0bpai1
p1
I1
sVcylltid
p2
I1
s.(dp0
Vcylltid
p1
I1
sVd0fvqx3
p2
I1
s.(dp0
Vcylltid
p1
I1
sVd0ihvct
p2
I1
s.(dp0
Vd0qd74u
p1
I1
sVcylltid
p2
I1
s.(dp0
Vd0qngwz
p1
I1
sVcylltid
p2
I1
s.(dp0
Vcylltid
p1
I1
sVd19e1no
p2
I1
s.(dp0
Vd1e88t5
p1
I1
sVcylltid
p2
I1
s.(dp0
Vcylltid
p1
I1
sVd1j9sxy
p2
I1
s.(dp0
Vcylltid
p1
I1
sVd1jm9cp
p2
I1
s.(dp0
Vcylltid
p1
I1
sVd1phjdq
p2
I1
s.(dp0
Vd28pa4c
p1
I1
sVcylltid
p2
I1
s.(dp0
Vd2w91qc
p1
I1
sVcylltid
p2
I1
s.(dp0
Vcylltid
p1
I1
sVd35e3sm
p2
I1
s.(dp0
Vd3dusco
p1
I1
sVcylltid
p2
I1
s.(dp0
Vd3znqs6
p1
I1
sVcylltid
p2
I1
s.(dp0
Vcylltid
p1
I1
sVd4izgpe
p2
I1
s.(dp0
Vd4j4f1n
p1
I1
sVcylltid
p2
I1
s.(dp0
Vd4pxz10
p1
I1
sVcylltid
p2
I1
s.(dp0
Vd5glvgy
p1
I1
sVcylltid
p2
I1
s.(dp0
Vcylltid
p1
I1
sVd6ct5io
p2
I1
s.(dp0
Vcylltid
p1
I1
sVd6zp8i7
p2
I1
s.(dp0
Vcylltid
p1
I1
sVd74lmgk
p2
I1
s.(dp0
Vcylltid
p1
I1
sVd9b8hnc
p2
I1
s.(dp0
Vdabwt29
p1
I1
sVcylltid
p2
I1
s.(dp0
Vcylltid
p1
I1
sVdadqg32
p2
I1
s.(dp0
Vcylltid
p1
I1
sVdaizl23
p2
I1
s.(dp0
Vdalsxlo
p1
I1
sVcylltid
p2
I1
s.(dp0
Vcylltid
p1
I1
sVdaupbb7
p2
I1
s.(dp0
Vdautv9f
p1
I1
sVcylltid
p2
I1
s.(dp0
Vdb2lub5
p1
I1
sVcylltid
p2
I1
s.(dp0
Vdb80qat
p1
I1
sVcylltid
p2
I1
s.(dp0
Vcylltid
p1
I1
sVdc65da2
p2
I1
s.(dp0
Vcylltid
p1
I1
sVdctjo1u
p2
I1
s.(dp0
Vdcwqph0
p1
I1
sVcylltid
p2
I1
s.(dp0
Vdcxl91f
p1
I1
sVcylltid
p2
I1
s.(dp0
Vdd5f1cc
p1
I1
sVcylltid
p2
I1
s.(dp0
Vddvniz9
p1
I1
sVcylltid
p2
I1
s.(dp0
Vcylltid
p1
I1
sVddy8squ
p2
I1
s.(dp0
Vcylltid
p1
I1
sVde1nbg9
p2
I1
s.(dp0
Vcylltid
p1
I1
sVde60flo
p2
I1
s.(dp0
Vdecbxll
p1
I1
sVcylltid
p2
I1
s.(dp0
Vdfa0g49
p1
I1
sVcylltid
p2
I1
s.(dp0
Vcylltid
p1
I1
sVdg1s3gy
p2
I1
s.(dp0
Vdg5tqt3
p1
I1
sVcylltid
p2
I1
s.(dp0
Vdgdcxh2
p1
I1
sVcylltid
p2
I1
s.(dp0
Vdgt3kr9
p1
I1
sVcylltid
p2
I1
s.(dp0
Vdikdnyt
p1
I1
sVcylltid
p2
I1
s.(dp0
Vdiwfesw
p1
I1
sVcylltid
p2
I1
s.(dp0
Vdj3h5gg
p1
I1
sVcylltid
p2
I1
s.(dp0
Vdjcu660
p1
I1
sVcylltid
p2
I1
s.(dp0
Vcylltid
p1
I1
sVdk5zfkp
p2
I1
s.(dp0
Vdkk6to3
p1
I1
sVcylltid
p2
I1
s.