(dp0
Vcyyc2tm
p1
I1
s.(dp0
Vcyyc2tm
p1
I2
s.(dp0
Vcyyc2tm
p1
I1
sVcz1g22d
p2
I1
s.(dp0
Vcyyc2tm
p1
I1
sVd0eqc5t
p2
I1
s.(dp0
Vd1lxpg4
p1
I1
sVcyyc2tm
p2
I1
s.(dp0
Vcyyc2tm
p1
I1
sVd2g3kgo
p2
I1
s.(dp0
Vd31si1t
p1
I1
sVcyyc2tm
p2
I1
s.(dp0
Vd3atdtk
p1
I1
sVcyyc2tm
p2
I1
s.(dp0
Vcyyc2tm
p1
I1
sVd6qvdev
p2
I1
s.(dp0
Vd76pgb3
p1
I1
sVcyyc2tm
p2
I1
s.(dp0
Vd7f9hze
p1
I1
sVcyyc2tm
p2
I1
s.(dp0
Vcyyc2tm
p1
I1
sVd9ou086
p2
I1
s.(dp0
Vdd8bxlv
p1
I1
sVcyyc2tm
p2
I1
s.(dp0
Vcyyc2tm
p1
I1
sVde5mdjy
p2
I1
s.(dp0
Vcyyc2tm
p1
I1
sVdenbbef
p2
I1
s.(dp0
Vdeunpgn
p1
I1
sVcyyc2tm
p2
I1
s.(dp0
Vdhmh446
p1
I1
sVcyyc2tm
p2
I1
s.(dp0
Vcyyc2tm
p1
I1
sVdjphon9
p2
I1
s.