(dp0
Vcz1hkxm
p1
I1
s.(dp0
Vcz1hkxm
p1
I1
sVcztio99
p2
I1
s.(dp0
Vcz1hkxm
p1
I1
sVd0oeaqq
p2
I1
s.(dp0
Vcz1hkxm
p1
I1
sVd0oeaqq
p2
I1
s.(dp0
Vcz1hkxm
p1
I1
sVd7kjqqa
p2
I1
s.(dp0
Vcz1hkxm
p1
I1
sVd9ia0mi
p2
I1
s.(dp0
Vcz1hkxm
p1
I1
sVd9ia0mi
p2
I1
s.