(dp0
Vcz1g53n
p1
I1
s.(dp0
Vcz1g53n
p1
I1
sVczzn375
p2
I1
s.(dp0
Vcz1g53n
p1
I1
sVd3doyef
p2
I1
s.(dp0
Vcz1g53n
p1
I1
sVd4ikofx
p2
I1
s.(dp0
Vcz1g53n
p1
I1
sVd4ikofx
p2
I1
s.(dp0
Vcz1g53n
p1
I1
sVd50q7q7
p2
I1
s.(dp0
Vcz1g53n
p1
I1
sVd50q7q7
p2
I1
s.(dp0
Vcz1g53n
p1
I1
sVd50q7q7
p2
I1
s.(dp0
Vcz1g53n
p1
I1
sVd50q7q7
p2
I1
s.(dp0
Vcz1g53n
p1
I1
sVd50q7q7
p2
I1
s.(dp0
Vcz1g53n
p1
I1
sVd50q7q7
p2
I1
s.(dp0
Vcz1g53n
p1
I1
sVd92pig8
p2
I1
s.(dp0
Vcz1g53n
p1
I1
sVd9fe98o
p2
I1
s.(dp0
Vcz1g53n
p1
I1
sVd9jdwxc
p2
I1
s.(dp0
Vcz1g53n
p1
I1
sVd9naeai
p2
I1
s.(dp0
Vcz1g53n
p1
I1
sVdb7tg0o
p2
I1
s.(dp0
Vcz1g53n
p1
I1
sVdgd0knf
p2
I1
s.(dp0
Vcz1g53n
p1
I1
sVdgkumq4
p2
I1
s.(dp0
Vcz1g53n
p1
I1
sVdgtl2rj
p2
I1
s.(dp0
Vcz1g53n
p1
I1
sVdhj8bmu
p2
I1
s.(dp0
Vcz1g53n
p1
I1
sVdhun6dg
p2
I1
s.(dp0
Vcz1g53n
p1
I1
sVdi8jaku
p2
I1
s.(dp0
Vcz1g53n
p1
I1
sVdikqcdz
p2
I1
s.(dp0
Vcz1g53n
p1
I1
sVdjor66m
p2
I1
s.(dp0
Vcz1g53n
p1
I1
sVdjor66m
p2
I1
s.(dp0
Vcz1g53n
p1
I1
sVdjor66m
p2
I1
s.(dp0
Vcz1g53n
p1
I1
sVdk30opl
p2
I1
s.(dp0
Vcz1g53n
p1
I1
sVdo7iq95
p2
I1
s.(dp0
Vcz1g53n
p1
I1
sVdojailk
p2
I1
s.(dp0
Vcz1g53n
p1
I1
sVdp19456
p2
I1
s.