(dp0
Vcyi01xy
p1
I1
s.(dp0
Vcyiiyk6
p1
I1
sVcyi01xy
p2
I1
s.(dp0
Vcyimqpr
p1
I1
sVcyi01xy
p2
I1
s.(dp0
Vcyis3tl
p1
I1
sVcyi01xy
p2
I1
s.(dp0
Vcyj744u
p1
I1
sVcyi01xy
p2
I1
s.(dp0
Vcyjd2qp
p1
I1
sVcyi01xy
p2
I1
s.(dp0
Vcyjjf2a
p1
I1
sVcyi01xy
p2
I1
s.(dp0
Vcyi01xy
p1
I1
sVcyjnpik
p2
I1
s.(dp0
Vcyljclh
p1
I1
sVcyi01xy
p2
I1
s.(dp0
Vcylycha
p1
I1
sVcyi01xy
p2
I1
s.(dp0
Vcynsuj7
p1
I1
sVcyi01xy
p2
I1
s.(dp0
Vcynunt0
p1
I1
sVcyi01xy
p2
I1
s.(dp0
Vcyot5i7
p1
I1
sVcyi01xy
p2
I1
s.(dp0
Vcyoy9z8
p1
I1
sVcyi01xy
p2
I1
s.(dp0
Vcyi01xy
p1
I1
sVcyp2zhl
p2
I1
s.(dp0
Vcyp4fn5
p1
I1
sVcyi01xy
p2
I1
s.(dp0
Vcyq264n
p1
I1
sVcyi01xy
p2
I1
s.(dp0
Vcyqgliq
p1
I1
sVcyi01xy
p2
I1
s.(dp0
Vcyqtawd
p1
I1
sVcyi01xy
p2
I1
s.(dp0
Vcyrdwfy
p1
I1
sVcyi01xy
p2
I1
s.(dp0
Vcyi01xy
p1
I1
sVcyrjcid
p2
I1
s.(dp0
Vcyrjzse
p1
I1
sVcyi01xy
p2
I1
s.(dp0
Vcyrtmnp
p1
I1
sVcyi01xy
p2
I1
s.(dp0
Vcysl0ol
p1
I1
sVcyi01xy
p2
I1
s.(dp0
Vcysxjhs
p1
I1
sVcyi01xy
p2
I1
s.(dp0
Vcyu0c9o
p1
I1
sVcyi01xy
p2
I1
s.(dp0
Vcyu4now
p1
I1
sVcyi01xy
p2
I1
s.(dp0
Vcyi01xy
p1
I1
sVcyuxzwf
p2
I1
s.(dp0
Vcyvdtkq
p1
I1
sVcyi01xy
p2
I1
s.(dp0
Vcyve721
p1
I1
sVcyi01xy
p2
I1
s.(dp0
Vcyi01xy
p1
I1
sVcyvgr1z
p2
I1
s.(dp0
Vcyw6pgz
p1
I1
sVcyi01xy
p2
I1
s.(dp0
Vcywgv73
p1
I1
sVcyi01xy
p2
I1
s.(dp0
Vcywjgov
p1
I1
sVcyi01xy
p2
I1
s.(dp0
Vcywwqqf
p1
I1
sVcyi01xy
p2
I1
s.(dp0
Vcyx5ha8
p1
I1
sVcyi01xy
p2
I1
s.(dp0
Vcyyos8b
p1
I1
sVcyi01xy
p2
I1
s.(dp0
Vcyyp2eo
p1
I1
sVcyi01xy
p2
I1
s.(dp0
Vcyi01xy
p1
I1
sVcyz3woe
p2
I1
s.(dp0
Vcyz5tdg
p1
I1
sVcyi01xy
p2
I1
s.(dp0
Vcyzcy8t
p1
I1
sVcyi01xy
p2
I1
s.(dp0
Vcyzqlst
p1
I1
sVcyi01xy
p2
I1
s.(dp0
Vcz1evtq
p1
I1
sVcyi01xy
p2
I1
s.(dp0
Vcz1gx0o
p1
I1
sVcyi01xy
p2
I1
s.(dp0
Vcz1rnpy
p1
I1
sVcyi01xy
p2
I1
s.(dp0
Vcz21op4
p1
I1
sVcyi01xy
p2
I1
s.(dp0
Vcz2amvg
p1
I1
sVcyi01xy
p2
I1
s.(dp0
Vcz2bqm5
p1
I1
sVcyi01xy
p2
I1
s.(dp0
Vcz2ceoo
p1
I1
sVcyi01xy
p2
I1
s.(dp0
Vcz3g5fi
p1
I1
sVcyi01xy
p2
I1
s.(dp0
Vcyi01xy
p1
I1
sVcz3s3lh
p2
I1
s.(dp0
Vcz3s3yq
p1
I1
sVcyi01xy
p2
I1
s.(dp0
Vcyi01xy
p1
I1
sVcz4a576
p2
I1
s.(dp0
Vcz4m4bu
p1
I1
sVcyi01xy
p2
I1
s.(dp0
Vcz4r64h
p1
I1
sVcyi01xy
p2
I1
s.(dp0
Vcz579wj
p1
I1
sVcyi01xy
p2
I1
s.(dp0
Vcz5a56b
p1
I1
sVcyi01xy
p2
I1
s.(dp0
Vcz5cilo
p1
I1
sVcyi01xy
p2
I1
s.(dp0
Vcz5s78o
p1
I1
sVcyi01xy
p2
I1
s.(dp0
Vcz6j0eq
p1
I1
sVcyi01xy
p2
I1
s.(dp0
Vcz6jc2q
p1
I1
sVcyi01xy
p2
I1
s.(dp0
Vcz6mja9
p1
I1
sVcyi01xy
p2
I1
s.(dp0
Vcz7ngmv
p1
I1
sVcyi01xy
p2
I1
s.(dp0
Vcz825u8
p1
I1
sVcyi01xy
p2
I1
s.(dp0
Vcz87dlf
p1
I1
sVcyi01xy
p2
I1
s.(dp0
Vcz89084
p1
I1
sVcyi01xy
p2
I1
s.(dp0
Vcz99ste
p1
I1
sVcyi01xy
p2
I1
s.(dp0
Vcz9mcah
p1
I1
sVcyi01xy
p2
I1
s.(dp0
Vczc5vbo
p1
I1
sVcyi01xy
p2
I1
s.(dp0
Vczc7g5h
p1
I1
sVcyi01xy
p2
I1
s.(dp0
Vczcdn1u
p1
I1
sVcyi01xy
p2
I1
s.(dp0
Vczch81r
p1
I1
sVcyi01xy
p2
I1
s.(dp0
Vczdnq4r
p1
I1
sVcyi01xy
p2
I1
s.(dp0
Vczdvkgl
p1
I1
sVcyi01xy
p2
I1
s.(dp0
Vczffzh5
p1
I1
sVcyi01xy
p2
I1
s.(dp0
Vcyi01xy
p1
I1
sVczgor05
p2
I1
s.(dp0
Vczgxfue
p1
I1
sVcyi01xy
p2
I1
s.(dp0
Vczh610t
p1
I1
sVcyi01xy
p2
I1
s.(dp0
Vczhia6d
p1
I1
sVcyi01xy
p2
I1
s.(dp0
Vczhp3nr
p1
I1
sVcyi01xy
p2
I1
s.(dp0
Vczi93ux
p1
I1
sVcyi01xy
p2
I1
s.(dp0
Vczihyu9
p1
I1
sVcyi01xy
p2
I1
s.(dp0
Vczimnwb
p1
I1
sVcyi01xy
p2
I1
s.(dp0
Vcyi01xy
p1
I1
sVcziqiu1
p2
I1
s.(dp0
Vczjcyyo
p1
I1
sVcyi01xy
p2
I1
s.(dp0
Vczjnmgj
p1
I1
sVcyi01xy
p2
I1
s.(dp0
Vczjnmgj
p1
I1
sVcyi01xy
p2
I1
s.(dp0
Vczjwh4p
p1
I1
sVcyi01xy
p2
I1
s.(dp0
Vczldo17
p1
I1
sVcyi01xy
p2
I1
s.(dp0
Vczm0rbc
p1
I1
sVcyi01xy
p2
I1
s.(dp0
Vczm6izy
p1
I1
sVcyi01xy
p2
I1
s.(dp0
Vczmycpq
p1
I1
sVcyi01xy
p2
I1
s.(dp0
Vcznwm9r
p1
I1
sVcyi01xy
p2
I1
s.(dp0
Vczollq4
p1
I1
sVcyi01xy
p2
I1
s.(dp0
Vczp097f
p1
I1
sVcyi01xy
p2
I1
s.(dp0
Vcyi01xy
p1
I1
sVczqbh28
p2
I1
s.(dp0
Vczr37ie
p1
I1
sVcyi01xy
p2
I1
s.(dp0
Vczrx2dc
p1
I1
sVcyi01xy
p2
I1
s.(dp0
Vczsk0yg
p1
I1
sVcyi01xy
p2
I1
s.(dp0
Vcyi01xy
p1
I1
sVcztg2im
p2
I1
s.(dp0
Vcztitto
p1
I1
sVcyi01xy
p2
I1
s.(dp0
Vcztp4lq
p1
I1
sVcyi01xy
p2
I1
s.(dp0
Vcztwu3h
p1
I1
sVcyi01xy
p2
I1
s.(dp0
Vczu4f1c
p1
I1
sVcyi01xy
p2
I1
s.(dp0
Vczunqxm
p1
I1
sVcyi01xy
p2
I1
s.(dp0
Vczuy846
p1
I1
sVcyi01xy
p2
I1
s.(dp0
Vczvy9ie
p1
I1
sVcyi01xy
p2
I1
s.(dp0
Vczw3fyh
p1
I1
sVcyi01xy
p2
I1
s.(dp0
Vcz(dp0
Vdp35j8g
p1
I1
sVcyi01xy
p2
I1
s.