(dp0
Vcyjdpk2
p1
I1
s.(dp0
Vcyjhs5k
p1
I1
sVcyjdpk2
p2
I1
s.(dp0
Vcyjhs5k
p1
I1
sVcyjdpk2
p2
I1
s.(dp0
Vcyjkn9g
p1
I1
sVcyjdpk2
p2
I1
s.(dp0
Vcykg79a
p1
I1
sVcyjdpk2
p2
I1
s.(dp0
Vcykkwzb
p1
I1
sVcyjdpk2
p2
I1
s.(dp0
Vcykofnc
p1
I1
sVcyjdpk2
p2
I1
s.(dp0
Vcylnzkf
p1
I1
sVcyjdpk2
p2
I1
s.(dp0
Vcylqr0n
p1
I1
sVcyjdpk2
p2
I1
s.(dp0
Vcynfvom
p1
I1
sVcyjdpk2
p2
I1
s.(dp0
Vcynyom6
p1
I1
sVcyjdpk2
p2
I1
s.(dp0
Vcynyom6
p1
I1
sVcyjdpk2
p2
I1
s.(dp0
Vcynyom6
p1
I1
sVcyjdpk2
p2
I1
s.(dp0
Vcyo0j95
p1
I1
sVcyjdpk2
p2
I1
s.(dp0
Vcyo0j95
p1
I1
sVcyjdpk2
p2
I1
s.(dp0
Vcyphpxu
p1
I1
sVcyjdpk2
p2
I1
s.(dp0
Vcyr454q
p1
I1
sVcyjdpk2
p2
I1
s.(dp0
Vcyrr54q
p1
I1
sVcyjdpk2
p2
I1
s.(dp0
Vcys6fpd
p1
I1
sVcyjdpk2
p2
I1
s.(dp0
Vcysglxq
p1
I1
sVcyjdpk2
p2
I1
s.(dp0
Vcysglxq
p1
I1
sVcyjdpk2
p2
I1
s.(dp0
Vcyjdpk2
p1
I1
sVcysrpq6
p2
I1
s.(dp0
Vcysv2zs
p1
I1
sVcyjdpk2
p2
I1
s.(dp0
Vcyjdpk2
p1
I1
sVcyt08uk
p2
I1
s.(dp0
Vcyt0qh2
p1
I1
sVcyjdpk2
p2
I1
s.(dp0
Vcytdsbn
p1
I1
sVcyjdpk2
p2
I1
s.(dp0
Vcytqy2u
p1
I1
sVcyjdpk2
p2
I1
s.(dp0
Vcyvlgiq
p1
I1
sVcyjdpk2
p2
I1
s.(dp0
Vcyvt5tr
p1
I1
sVcyjdpk2
p2
I1
s.(dp0
Vcyjdpk2
p1
I1
sVcywoqxw
p2
I1
s.(dp0
Vcyxwyxg
p1
I1
sVcyjdpk2
p2
I1
s.(dp0
Vcyjdpk2
p1
I1
sVcz0t5bv
p2
I1
s.(dp0
Vcz146nc
p1
I1
sVcyjdpk2
p2
I1
s.(dp0
Vcz146nc
p1
I1
sVcyjdpk2
p2
I1
s.(dp0
Vcz146nc
p1
I1
sVcyjdpk2
p2
I1
s.(dp0
Vcz146nc
p1
I1
sVcyjdpk2
p2
I1
s.(dp0
Vcz146nc
p1
I1
sVcyjdpk2
p2
I1
s.(dp0
Vcz146nc
p1
I1
sVcyjdpk2
p2
I1
s.(dp0
Vcz146nc
p1
I1
sVcyjdpk2
p2
I1
s.(dp0
Vcz146nc
p1
I1
sVcyjdpk2
p2
I1
s.(dp0
Vcyjdpk2
p1
I1
sVcz26t74
p2
I1
s.(dp0
Vcz3axc1
p1
I1
sVcyjdpk2
p2
I1
s.(dp0
Vcz3uabb
p1
I1
sVcyjdpk2
p2
I1
s.(dp0
Vcz3uabb
p1
I1
sVcyjdpk2
p2
I1
s.(dp0
Vcz43wc2
p1
I1
sVcyjdpk2
p2
I1
s.(dp0
Vcz446w3
p1
I1
sVcyjdpk2
p2
I1
s.(dp0
Vcz49ady
p1
I1
sVcyjdpk2
p2
I1
s.(dp0
Vcz4vmw6
p1
I1
sVcyjdpk2
p2
I1
s.(dp0
Vcz5iiof
p1
I1
sVcyjdpk2
p2
I1
s.(dp0
Vcz5iiof
p1
I1
sVcyjdpk2
p2
I1
s.(dp0
Vcz5iiof
p1
I1
sVcyjdpk2
p2
I1
s.(dp0
Vcz5kp7n
p1
I1
sVcyjdpk2
p2
I1
s.(dp0
Vcz5xwvr
p1
I1
sVcyjdpk2
p2
I1
s.(dp0
Vcz68jhv
p1
I1
sVcyjdpk2
p2
I1
s.(dp0
Vcz6mddo
p1
I1
sVcyjdpk2
p2
I1
s.(dp0
Vcz72ej9
p1
I1
sVcyjdpk2
p2
I1
s.(dp0
Vcz7dnhe
p1
I1
sVcyjdpk2
p2
I1
s.(dp0
Vcz7dnhe
p1
I1
sVcyjdpk2
p2
I1
s.(dp0
Vcyjdpk2
p1
I1
sVcz8f7vr
p2
I1
s.(dp0
Vcz8q0cu
p1
I1
sVcyjdpk2
p2
I1
s.(dp0
Vcz8sp34
p1
I1
sVcyjdpk2
p2
I1
s.(dp0
Vcz8uypn
p1
I1
sVcyjdpk2
p2
I1
s.(dp0
Vczbofzc
p1
I1
sVcyjdpk2
p2
I1
s.(dp0
Vczbv1rv
p1
I1
sVcyjdpk2
p2
I1
s.(dp0
Vczds0ft
p1
I1
sVcyjdpk2
p2
I1
s.(dp0
Vcyjdpk2
p1
I1
sVczehoqx
p2
I1
s.(dp0
Vcyjdpk2
p1
I1
sVczehoqx
p2
I1
s.(dp0
Vczf2vhd
p1
I1
sVcyjdpk2
p2
I1
s.(dp0
Vczf2vhd
p1
I1
sVcyjdpk2
p2
I1
s.(dp0
Vczg3r6a
p1
I1
sVcyjdpk2
p2
I1
s.(dp0
Vczgfaj8
p1
I1
sVcyjdpk2
p2
I1
s.(dp0
Vczgndmk
p1
I1
sVcyjdpk2
p2
I1
s.(dp0
Vczgw5yq
p1
I1
sVcyjdpk2
p2
I1
s.(dp0
Vczgzj47
p1
I1
sVcyjdpk2
p2
I1
s.(dp0
Vczgzj47
p1
I1
sVcyjdpk2
p2
I1
s.(dp0
Vczgzj47
p1
I1
sVcyjdpk2
p2
I1
s.(dp0
Vczh3bml
p1
I1
sVcyjdpk2
p2
I1
s.(dp0
Vczh3ntq
p1
I1
sVcyjdpk2
p2
I1
s.(dp0
Vczh9b9z
p1
I1
sVcyjdpk2
p2
I1
s.(dp0
Vczhadgp
p1
I1
sVcyjdpk2
p2
I1
s.(dp0
Vczhq7rm
p1
I1
sVcyjdpk2
p2
I1
s.(dp0
Vczimll5
p1
I1
sVcyjdpk2
p2
I1
s.(dp0
Vczinm5s
p1
I1
sVcyjdpk2
p2
I1
s.(dp0
Vczjcs2q
p1
I1
sVcyjdpk2
p2
I1
s.(dp0
Vczjqj9b
p1
I1
sVcyjdpk2
p2
I1
s.(dp0
Vczk6ubv
p1
I1
sVcyjdpk2
p2
I1
s.(dp0
Vczl2ho3
p1
I1
sVcyjdpk2
p2
I1
s.(dp0
Vczl3zvv
p1
I1
sVcyjdpk2
p2
I1
s.(dp0
Vczlemds
p1
I1
sVcyjdpk2
p2
I1
s.(dp0
Vczlnyhe
p1
I1
sVcyjdpk2
p2
I1
s.(dp0
Vczlqj8i
p1
I1
sVcyjdpk2
p2
I1
s.(dp0
Vczlqj8i
p1
I1
sVcyjdpk2
p2
I1
s.(dp0
Vczm6fj0
p1
I1
sVcyjdpk2
p2
I1
s.(dp0
Vcyjdpk2
p1
I1
sVczmk0xm
p2
I1
s.(dp0
Vczmul99
p1
I1
sVcyjdpk2
p2
I1
s.(dp0
Vczov4le
p1
I1
sVcyjdpk2
p2
I1
s.(dp0
Vczpaqir
p1
I1
sVcyjdpk2
p2
I1
s.(dp0
Vczposb1
p1
I1
sVcyjdpk2
p2
I1
s.(dp0
Vcyjdpk2
p1
I1
sVczqfxxr
p2
I1
s.(dp0
Vczrj1h6
p1
I1
sVcyjdpk2
p2
I1
s.(dp0
Vczs0rwq
p1
I1
sVcyjdpk2
p2
I1
s.(dp0
Vcyjdpk2
p1
I1
sVczs2zai
p2
I1
s.(dp0
Vcztc8uu
p1
I1
sVcyjdpk2
p2
I1
s.(dp0
Vcztk1v5
p1
I1
sVcyjdpk2
p2
I1
s.(dp0
Vcyjdpk2
p1
I1
sVcztnda4
p2
I1
s.(dp0
Vcztuckh
p1
I1
sVcyjdpk2
p2
I1
s.(dp0
Vczusezo
p1
I1
sVcyjdpk2
p2
I1
s.(dp0
Vczvc14a
p1
I1
sVcyjdpk2
p2
I1
s.(dp0
Vcy(dp0
Vdkwq07u
p1
I1
sVcyjdpk2
p2
I1
s.