(dp0
Vcyjblxg
p1
I1
s.(dp0
Vcyjblxg
p1
I1
sVcywto71
p2
I1
s.(dp0
Vcyjblxg
p1
I1
sVcz94qb6
p2
I1
s.(dp0
Vcyjblxg
p1
I1
sVczj80rl
p2
I1
s.(dp0
Vcyjblxg
p1
I1
sVd016e55
p2
I1
s.(dp0
Vcyjblxg
p1
I1
sVd022z4j
p2
I1
s.(dp0
Vcyjblxg
p1
I1
sVd073m5a
p2
I1
s.(dp0
Vcyjblxg
p1
I1
sVd0aadyr
p2
I1
s.(dp0
Vcyjblxg
p1
I1
sVd0akp9q
p2
I1
s.(dp0
Vcyjblxg
p1
I1
sVd0i1a8m
p2
I1
s.(dp0
Vcyjblxg
p1
I1
sVd0jdgjf
p2
I1
s.(dp0
Vcyjblxg
p1
I1
sVd0l32n2
p2
I1
s.(dp0
Vcyjblxg
p1
I1
sVd17q7ac
p2
I1
s.(dp0
Vcyjblxg
p1
I1
sVd1ks99t
p2
I1
s.(dp0
Vcyjblxg
p1
I1
sVd1x874s
p2
I1
s.(dp0
Vcyjblxg
p1
I1
sVd2em4qp
p2
I1
s.(dp0
Vcyjblxg
p1
I1
sVd32vpwd
p2
I1
s.(dp0
Vcyjblxg
p1
I1
sVd35f29a
p2
I1
s.(dp0
Vcyjblxg
p1
I1
sVd35fmsi
p2
I1
s.(dp0
Vcyjblxg
p1
I1
sVd3g96od
p2
I1
s.(dp0
Vcyjblxg
p1
I1
sVd3kbcjx
p2
I1
s.(dp0
Vcyjblxg
p1
I1
sVd3r8uui
p2
I1
s.(dp0
Vcyjblxg
p1
I1
sVd42mbdd
p2
I1
s.(dp0
Vcyjblxg
p1
I1
sVd4i5giv
p2
I1
s.(dp0
Vcyjblxg
p1
I1
sVd4o71ms
p2
I1
s.(dp0
Vcyjblxg
p1
I1
sVd5deqz0
p2
I1
s.(dp0
Vcyjblxg
p1
I1
sVd661hvv
p2
I1
s.(dp0
Vcyjblxg
p1
I1
sVd6ewfny
p2
I1
s.(dp0
Vcyjblxg
p1
I1
sVd8huew7
p2
I1
s.(dp0
Vcyjblxg
p1
I1
sVd8npn9b
p2
I1
s.(dp0
Vcyjblxg
p1
I1
sVd8qzz5r
p2
I1
s.(dp0
Vcyjblxg
p1
I1
sVd96suy1
p2
I1
s.(dp0
Vcyjblxg
p1
I1
sVdbjtydr
p2
I1
s.(dp0
Vcyjblxg
p1
I1
sVdbnmxri
p2
I1
s.(dp0
Vcyjblxg
p1
I1
sVdbps38e
p2
I1
s.(dp0
Vcyjblxg
p1
I1
sVdc5ly31
p2
I1
s.(dp0
Vcyjblxg
p1
I1
sVdc9wjgo
p2
I1
s.(dp0
Vcyjblxg
p1
I1
sVdcjsysc
p2
I1
s.(dp0
Vcyjblxg
p1
I1
sVdde0bsk
p2
I1
s.(dp0
Vcyjblxg
p1
I1
sVdeug0gz
p2
I1
s.(dp0
Vcyjblxg
p1
I1
sVdf584yv
p2
I1
s.(dp0
Vcyjblxg
p1
I1
sVdfhegps
p2
I1
s.(dp0
Vcyjblxg
p1
I1
sVdfni5fu
p2
I1
s.(dp0
Vcyjblxg
p1
I1
sVdfwa3w8
p2
I1
s.(dp0
Vcyjblxg
p1
I1
sVdg9c8c3
p2
I1
s.(dp0
Vcyjblxg
p1
I1
sVdghaniu
p2
I1
s.(dp0
Vcyjblxg
p1
I1
sVdhhc923
p2
I1
s.(dp0
Vcyjblxg
p1
I1
sVdi96m9w
p2
I1
s.(dp0
Vcyjblxg
p1
I1
sVdiu2hav
p2
I1
s.(dp0
Vcyjblxg
p1
I1
sVdmr711l
p2
I1
s.(dp0
Vcyjblxg
p1
I1
sVdmrzrwk
p2
I1
s.(dp0
Vcyjblxg
p1
I1
sVdnjo6rb
p2
I1
s.(dp0
Vcyjblxg
p1
I1
sVdnt5wj7
p2
I1
s.