(dp0
Vd1bu0ol
p1
I1
s.(dp0
Vd1c65zu
p1
I1
sVd1bu0ol
p2
I1
s.(dp0
Vd1bu0ol
p1
I1
sVd2g3xcm
p2
I1
s.(dp0
Vd1bu0ol
p1
I1
sVdhg5un6
p2
I1
s.(dp0
Vd1bu0ol
p1
I1
sVdjiesot
p2
I1
s.(dp0
Vdoccz0i
p1
I1
sVd1bu0ol
p2
I1
s.