(dp0
Vcyim32d
p1
I1
s.(dp0
Vcyim32d
p1
I1
sVcyivaop
p2
I1
s.(dp0
Vcyim32d
p1
I1
sVcyivaop
p2
I1
s.(dp0
Vcyim32d
p1
I1
sVcylvvft
p2
I1
s.(dp0
Vcyim32d
p1
I1
sVcyogevo
p2
I1
s.(dp0
Vcyim32d
p1
I1
sVcyqdku6
p2
I1
s.(dp0
Vcyim32d
p1
I1
sVcyrg0df
p2
I1
s.(dp0
Vcyim32d
p1
I1
sVcyrzlme
p2
I1
s.(dp0
Vcyim32d
p1
I1
sVcyspo6f
p2
I1
s.(dp0
Vcyim32d
p1
I1
sVcytzkot
p2
I1
s.(dp0
Vcyim32d
p1
I1
sVcytzkot
p2
I1
s.(dp0
Vcyim32d
p1
I1
sVcyu20nc
p2
I1
s.(dp0
Vcyim32d
p1
I1
sVcyyrlj4
p2
I1
s.(dp0
Vcyim32d
p1
I1
sVcyz3f4s
p2
I1
s.(dp0
Vcyim32d
p1
I1
sVcz1duui
p2
I1
s.(dp0
Vcyim32d
p1
I1
sVcz40iaz
p2
I1
s.(dp0
Vcyim32d
p1
I1
sVcz62tfs
p2
I1
s.(dp0
Vcyim32d
p1
I1
sVcz6ptlg
p2
I1
s.(dp0
Vcyim32d
p1
I1
sVcz6qxfc
p2
I1
s.(dp0
Vcyim32d
p1
I1
sVcz7wut8
p2
I1
s.(dp0
Vcyim32d
p1
I1
sVcz8jw31
p2
I1
s.(dp0
Vcyim32d
p1
I1
sVcza0zdc
p2
I1
s.(dp0
Vcyim32d
p1
I1
sVczaacro
p2
I1
s.(dp0
Vcyim32d
p1
I1
sVczae1x3
p2
I1
s.(dp0
Vcyim32d
p1
I1
sVczc0u6t
p2
I1
s.(dp0
Vcyim32d
p1
I1
sVczc80mi
p2
I1
s.(dp0
Vcyim32d
p1
I1
sVczcpfuc
p2
I1
s.(dp0
Vcyim32d
p1
I1
sVczdd11d
p2
I1
s.(dp0
Vcyim32d
p1
I1
sVczg2y3g
p2
I1
s.(dp0
Vcyim32d
p1
I1
sVczgq9x1
p2
I1
s.(dp0
Vcyim32d
p1
I1
sVczgzz49
p2
I1
s.(dp0
Vcyim32d
p1
I1
sVczhf9wx
p2
I1
s.(dp0
Vcyim32d
p1
I1
sVczhmxa9
p2
I1
s.(dp0
Vcyim32d
p1
I1
sVczi4u7h
p2
I1
s.(dp0
Vcyim32d
p1
I1
sVczibluy
p2
I1
s.(dp0
Vcyim32d
p1
I1
sVcziw9sr
p2
I1
s.(dp0
Vcyim32d
p1
I1
sVczkwv6q
p2
I1
s.(dp0
Vcyim32d
p1
I1
sVczn6rzx
p2
I1
s.(dp0
Vcyim32d
p1
I1
sVczn7jgc
p2
I1
s.(dp0
Vcyim32d
p1
I1
sVczoikwm
p2
I1
s.(dp0
Vcyim32d
p1
I1
sVczqquif
p2
I1
s.(dp0
Vcyim32d
p1
I1
sVczt05a6
p2
I1
s.(dp0
Vcyim32d
p1
I1
sVczvakkp
p2
I1
s.(dp0
Vcyim32d
p1
I1
sVczwb93t
p2
I1
s.(dp0
Vcyim32d
p1
I1
sVczwif19
p2
I1
s.(dp0
Vcyim32d
p1
I1
sVczwz8j6
p2
I1
s.(dp0
Vcyim32d
p1
I1
sVczy1ifq
p2
I1
s.(dp0
Vcyim32d
p1
I1
sVczy8lv2
p2
I1
s.(dp0
Vcyim32d
p1
I1
sVczy8lv2
p2
I1
s.(dp0
Vcyim32d
p1
I1
sVczyjark
p2
I1
s.(dp0
Vcyim32d
p1
I1
sVczyyode
p2
I1
s.(dp0
Vcyim32d
p1
I1
sVczzbig7
p2
I1
s.(dp0
Vcyim32d
p1
I1
sVd0190of
p2
I1
s.(dp0
Vcyim32d
p1
I1
sVd03g079
p2
I1
s.(dp0
Vcyim32d
p1
I1
sVd074v35
p2
I1
s.(dp0
Vcyim32d
p1
I1
sVd07d83v
p2
I1
s.(dp0
Vcyim32d
p1
I1
sVd09l1fz
p2
I1
s.(dp0
Vcyim32d
p1
I1
sVd0c9qyj
p2
I1
s.(dp0
Vcyim32d
p1
I1
sVd0j4ikz
p2
I1
s.(dp0
Vcyim32d
p1
I1
sVd0je9wp
p2
I1
s.(dp0
Vcyim32d
p1
I1
sVd0pwklp
p2
I1
s.(dp0
Vcyim32d
p1
I1
sVd0qca13
p2
I1
s.(dp0
Vcyim32d
p1
I1
sVd0vr2mn
p2
I1
s.(dp0
Vcyim32d
p1
I1
sVd0xc395
p2
I1
s.(dp0
Vcyim32d
p1
I1
sVd11sa6r
p2
I1
s.(dp0
Vcyim32d
p1
I1
sVd1364og
p2
I1
s.(dp0
Vcyim32d
p1
I1
sVd14pl28
p2
I1
s.(dp0
Vcyim32d
p1
I1
sVd15m6pm
p2
I1
s.(dp0
Vcyim32d
p1
I1
sVd15qpzy
p2
I1
s.(dp0
Vcyim32d
p1
I1
sVd161afb
p2
I1
s.(dp0
Vcyim32d
p1
I1
sVd19flcu
p2
I1
s.(dp0
Vcyim32d
p1
I1
sVd19lbga
p2
I1
s.(dp0
Vcyim32d
p1
I1
sVd1b4l1n
p2
I1
s.(dp0
Vcyim32d
p1
I1
sVd1btyrk
p2
I1
s.(dp0
Vcyim32d
p1
I1
sVd1c9nmd
p2
I1
s.(dp0
Vcyim32d
p1
I1
sVd1dhbrt
p2
I1
s.(dp0
Vcyim32d
p1
I1
sVd1dklnk
p2
I1
s.(dp0
Vcyim32d
p1
I1
sVd1g9g82
p2
I1
s.(dp0
Vcyim32d
p1
I1
sVd1gkjhn
p2
I1
s.(dp0
Vcyim32d
p1
I1
sVd1huhy2
p2
I1
s.(dp0
Vcyim32d
p1
I1
sVd1i7s0t
p2
I1
s.(dp0
Vcyim32d
p1
I1
sVd1iswe2
p2
I1
s.(dp0
Vcyim32d
p1
I1
sVd1iswe2
p2
I1
s.(dp0
Vcyim32d
p1
I1
sVd1lysed
p2
I1
s.(dp0
Vcyim32d
p1
I1
sVd1lysed
p2
I1
s.(dp0
Vcyim32d
p1
I1
sVd1pajug
p2
I1
s.(dp0
Vcyim32d
p1
I1
sVd1r3kk3
p2
I1
s.(dp0
Vcyim32d
p1
I1
sVd1selmc
p2
I1
s.(dp0
Vcyim32d
p1
I1
sVd1skl3w
p2
I1
s.(dp0
Vcyim32d
p1
I1
sVd1tpt5a
p2
I1
s.(dp0
Vcyim32d
p1
I1
sVd1v2vwg
p2
I1
s.(dp0
Vcyim32d
p1
I1
sVd1vlq50
p2
I1
s.(dp0
Vcyim32d
p1
I1
sVd1w6tda
p2
I1
s.(dp0
Vcyim32d
p1
I1
sVd1wooeq
p2
I1
s.(dp0
Vcyim32d
p1
I1
sVd1yyd4a
p2
I1
s.(dp0
Vcyim32d
p1
I1
sVd1z05xl
p2
I1
s.(dp0
Vcyim32d
p1
I1
sVd1zptvh
p2
I1
s.(dp0
Vcyim32d
p1
I1
sVd20yzyw
p2
I1
s.(dp0
Vcyim32d
p1
I1
sVd21bm82
p2
I1
s.(dp0
Vcyim32d
p1
I1
sVd21jhrf
p2
I1
s.(dp0
Vcyim32d
p1
I1
sVd23sojk
p2
I1
s.(dp0
Vcyim32d
p1
I1
sVd24ak9f
p2
I1
s.(dp0
Vcyim32d
p1
I1
sVd27rdw4
p2
I1
s.(dp0
Vcyim32d
p1
I1
sVd28ook7
p2
I1
s.(dp0
Vcyim32d
p1
I1
sVd2c009g
p2
I1
s.(dp0
Vcyim32d
p1
I1
sVd2clnsd
p2
I1
s.(dp0
Vcyim32d
p1
I1
sVd2fr4jw
p2
I1
s.(dp0
Vcyim32d
p1
I1
sVd2gbw1u
p2
I1
s.(dp0
Vcy(dp0
Vcyim32d
p1
I1
sVdp53jfb
p2
I1
s.