(dp0
Vcymvmzl
p1
I1
s.(dp0
Vcymvmzl
p1
I2
s.(dp0
Vcymvmzl
p1
I2
s.(dp0
Vcymvmzl
p1
I2
s.(dp0
Vcymvmzl
p1
I1
sVczmbawp
p2
I1
s.(dp0
Vczt2bmh
p1
I1
sVcymvmzl
p2
I1
s.(dp0
Vcymvmzl
p1
I1
sVczurs77
p2
I1
s.(dp0
Vcymvmzl
p1
I1
sVczurs77
p2
I1
s.(dp0
Vcymvmzl
p1
I1
sVczurs77
p2
I1
s.(dp0
Vczvq7p4
p1
I1
sVcymvmzl
p2
I1
s.(dp0
Vczvq7p4
p1
I1
sVcymvmzl
p2
I1
s.(dp0
Vcymvmzl
p1
I1
sVczz955e
p2
I1
s.(dp0
Vczz9bxw
p1
I1
sVcymvmzl
p2
I1
s.(dp0
Vczz9bxw
p1
I1
sVcymvmzl
p2
I1
s.(dp0
Vcymvmzl
p1
I1
sVd0c5ndr
p2
I1
s.(dp0
Vcymvmzl
p1
I1
sVd117m9f
p2
I1
s.(dp0
Vcymvmzl
p1
I1
sVd1j0vsl
p2
I1
s.(dp0
Vcymvmzl
p1
I1
sVd1toh0j
p2
I1
s.(dp0
Vcymvmzl
p1
I1
sVd1wqiru
p2
I1
s.(dp0
Vcymvmzl
p1
I1
sVd1wqm22
p2
I1
s.(dp0
Vcymvmzl
p1
I1
sVd28whun
p2
I1
s.(dp0
Vcymvmzl
p1
I1
sVd2lzcg2
p2
I1
s.(dp0
Vd39iafz
p1
I1
sVcymvmzl
p2
I1
s.(dp0
Vd3fkzen
p1
I1
sVcymvmzl
p2
I1
s.(dp0
Vcymvmzl
p1
I1
sVd3swdnv
p2
I1
s.(dp0
Vcymvmzl
p1
I1
sVd3sy6nj
p2
I1
s.(dp0
Vcymvmzl
p1
I1
sVd3sybqi
p2
I1
s.(dp0
Vcymvmzl
p1
I1
sVd3sybqi
p2
I1
s.(dp0
Vd481zme
p1
I1
sVcymvmzl
p2
I1
s.(dp0
Vd4wnr32
p1
I1
sVcymvmzl
p2
I1
s.(dp0
Vd4zu3nl
p1
I1
sVcymvmzl
p2
I1
s.(dp0
Vd582fwh
p1
I1
sVcymvmzl
p2
I1
s.(dp0
Vd582fwh
p1
I1
sVcymvmzl
p2
I1
s.(dp0
Vd582fwh
p1
I1
sVcymvmzl
p2
I1
s.(dp0
Vd5ujy69
p1
I1
sVcymvmzl
p2
I1
s.(dp0
Vcymvmzl
p1
I1
sVd640mze
p2
I1
s.(dp0
Vd6d6pdb
p1
I1
sVcymvmzl
p2
I1
s.(dp0
Vd6gdxbs
p1
I1
sVcymvmzl
p2
I1
s.(dp0
Vcymvmzl
p1
I1
sVd6s3plx
p2
I1
s.(dp0
Vcymvmzl
p1
I1
sVd6shc8j
p2
I1
s.(dp0
Vcymvmzl
p1
I1
sVd790yv7
p2
I1
s.(dp0
Vcymvmzl
p1
I1
sVd790yv7
p2
I1
s.(dp0
Vcymvmzl
p1
I1
sVd7k3g4w
p2
I1
s.(dp0
Vcymvmzl
p1
I1
sVd7k3g4w
p2
I1
s.(dp0
Vd7ltnz0
p1
I1
sVcymvmzl
p2
I1
s.(dp0
Vd83lpdy
p1
I1
sVcymvmzl
p2
I1
s.(dp0
Vd8e4ezq
p1
I1
sVcymvmzl
p2
I1
s.(dp0
Vd8ixjnd
p1
I1
sVcymvmzl
p2
I1
s.(dp0
Vd8ixjnd
p1
I1
sVcymvmzl
p2
I1
s.(dp0
Vcymvmzl
p1
I1
sVd8o6500
p2
I1
s.(dp0
Vcymvmzl
p1
I1
sVd8psa0o
p2
I1
s.(dp0
Vd8zuqod
p1
I1
sVcymvmzl
p2
I1
s.(dp0
Vd8zuqod
p1
I1
sVcymvmzl
p2
I1
s.(dp0
Vcymvmzl
p1
I1
sVd93ic4p
p2
I1
s.(dp0
Vd9fmkyk
p1
I1
sVcymvmzl
p2
I1
s.(dp0
Vd9yvg40
p1
I1
sVcymvmzl
p2
I1
s.(dp0
Vda4o6om
p1
I1
sVcymvmzl
p2
I1
s.(dp0
Vdaelnt2
p1
I1
sVcymvmzl
p2
I1
s.(dp0
Vcymvmzl
p1
I1
sVdahva2u
p2
I1
s.(dp0
Vdai0lk1
p1
I1
sVcymvmzl
p2
I1
s.(dp0
Vdai0lk1
p1
I1
sVcymvmzl
p2
I1
s.(dp0
Vcymvmzl
p1
I1
sVdaobuxo
p2
I1
s.(dp0
Vdape1lr
p1
I1
sVcymvmzl
p2
I1
s.(dp0
Vcymvmzl
p1
I1
sVdayjqrh
p2
I1
s.(dp0
Vcymvmzl
p1
I1
sVdbe5jlt
p2
I1
s.(dp0
Vcymvmzl
p1
I1
sVdbgcxeh
p2
I1
s.(dp0
Vcymvmzl
p1
I1
sVdbnn73c
p2
I1
s.(dp0
Vcymvmzl
p1
I1
sVdbqh93d
p2
I1
s.(dp0
Vdbvon90
p1
I1
sVcymvmzl
p2
I1
s.(dp0
Vcymvmzl
p1
I1
sVdc2srm3
p2
I1
s.(dp0
Vcymvmzl
p1
I1
sVdc350fa
p2
I1
s.(dp0
Vdcjpgkg
p1
I1
sVcymvmzl
p2
I1
s.(dp0
Vdcl7uvc
p1
I1
sVcymvmzl
p2
I1
s.(dp0
Vcymvmzl
p1
I1
sVddxeggu
p2
I1
s.(dp0
Vddyt7q2
p1
I1
sVcymvmzl
p2
I1
s.(dp0
Vcymvmzl
p1
I1
sVde0eyqx
p2
I1
s.(dp0
Vcymvmzl
p1
I1
sVde6uy7t
p2
I1
s.(dp0
Vcymvmzl
p1
I1
sVde6uy7t
p2
I1
s.(dp0
Vcymvmzl
p1
I1
sVde9pwaa
p2
I1
s.(dp0
Vdes1j4x
p1
I1
sVcymvmzl
p2
I1
s.(dp0
Vcymvmzl
p1
I1
sVdevqywv
p2
I1
s.(dp0
Vcymvmzl
p1
I1
sVdf4lpnd
p2
I1
s.(dp0
Vdfhztdl
p1
I1
sVcymvmzl
p2
I1
s.(dp0
Vcymvmzl
p1
I1
sVdfmi0bj
p2
I1
s.(dp0
Vdg8ivhe
p1
I1
sVcymvmzl
p2
I1
s.(dp0
Vcymvmzl
p1
I1
sVdgd11lm
p2
I1
s.(dp0
Vdgn7noz
p1
I1
sVcymvmzl
p2
I1
s.(dp0
Vcymvmzl
p1
I1
sVdgn92cb
p2
I1
s.(dp0
Vcymvmzl
p1
I1
sVdgsr508
p2
I1
s.(dp0
Vcymvmzl
p1
I1
sVdgsr508
p2
I1
s.(dp0
Vcymvmzl
p1
I1
sVdgsr508
p2
I1
s.(dp0
Vcymvmzl
p1
I1
sVdh5r9uy
p2
I1
s.(dp0
Vcymvmzl
p1
I1
sVdh5r9uy
p2
I1
s.(dp0
Vdhayy0f
p1
I1
sVcymvmzl
p2
I1
s.(dp0
Vcymvmzl
p1
I1
sVdhjn0i5
p2
I1
s.(dp0
Vcymvmzl
p1
I1
sVdhjn0i5
p2
I1
s.(dp0
Vcymvmzl
p1
I1
sVdhjn3tj
p2
I1
s.(dp0
Vcymvmzl
p1
I1
sVdhjn3tj
p2
I1
s.(dp0
Vcymvmzl
p1
I1
sVdhjo81h
p2
I1
s.(dp0
Vcymvmzl
p1
I1
sVdhjo81h
p2
I1
s.(dp0
Vcymvmzl
p1
I1
sVdhjo81h
p2
I1
s.(dp0
Vdhjqzou
p1
I1
sVcymvmzl
p2
I1
s.(dp0
Vdhk1j6s
p1
I1
sVcymvmzl
p2
I1
s.(dp0
Vdhucqk6
p1
I1
sVcymvmzl
p2
I1
s.(dp0
Vdhz66sy
p1
I1
sVcymvmzl
p2
I1
s.(dp0
Vcymvmzl
p1
I1
sVdi0vi04
p2
I1
s.(dp0
Vcymvmzl
p1
I1
sVdi4v2m8
p2
I1
s.(dp0
Vdi9lcsg
p1
I1
sVcymvmzl
p2
I1
s.(dp0
Vcymvmzl
p1
I1
sVdiu8q73
p2
I1
s.(dp0
Vcymvmzl
p1
I(dp0
Vdokyd13
p1
I1
sVcymvmzl
p2
I1
s.