(dp0
Vcyjrzc4
p1
I1
s.(dp0
Vcyjrzc4
p1
I1
sVcykfbz5
p2
I1
s.(dp0
Vcyjrzc4
p1
I1
sVcyo0vln
p2
I1
s.(dp0
Vcyjrzc4
p1
I1
sVcyo9p62
p2
I1
s.(dp0
Vcyjrzc4
p1
I1
sVcypln20
p2
I1
s.(dp0
Vcyjrzc4
p1
I1
sVcyw83in
p2
I1
s.(dp0
Vcyjrzc4
p1
I1
sVcywcw5f
p2
I1
s.(dp0
Vcyjrzc4
p1
I1
sVcyx5g11
p2
I1
s.(dp0
Vcyjrzc4
p1
I1
sVcyyykub
p2
I1
s.(dp0
Vcyjrzc4
p1
I1
sVcyz8p6a
p2
I1
s.(dp0
Vcyjrzc4
p1
I1
sVcyza0h7
p2
I1
s.(dp0
Vcyjrzc4
p1
I1
sVcyzfcja
p2
I1
s.(dp0
Vcyjrzc4
p1
I1
sVcz08lh5
p2
I1
s.(dp0
Vcyjrzc4
p1
I1
sVcz24lcy
p2
I1
s.(dp0
Vcyjrzc4
p1
I1
sVcz5p9f3
p2
I1
s.(dp0
Vcyjrzc4
p1
I1
sVcz5zrhh
p2
I1
s.(dp0
Vcyjrzc4
p1
I1
sVcz60tvb
p2
I1
s.(dp0
Vcyjrzc4
p1
I1
sVcz9kxhg
p2
I1
s.(dp0
Vcyjrzc4
p1
I1
sVcz9mjvw
p2
I1
s.(dp0
Vcyjrzc4
p1
I1
sVczb2ycm
p2
I1
s.(dp0
Vcyjrzc4
p1
I1
sVczbgsm5
p2
I1
s.(dp0
Vcyjrzc4
p1
I1
sVczbwp3m
p2
I1
s.(dp0
Vcyjrzc4
p1
I1
sVczcfy39
p2
I1
s.(dp0
Vcyjrzc4
p1
I1
sVczdqy8z
p2
I1
s.(dp0
Vcyjrzc4
p1
I1
sVczfusr4
p2
I1
s.(dp0
Vcyjrzc4
p1
I1
sVczg5p6g
p2
I1
s.(dp0
Vcyjrzc4
p1
I1
sVczgcd6s
p2
I1
s.(dp0
Vcyjrzc4
p1
I1
sVczggp84
p2
I1
s.(dp0
Vcyjrzc4
p1
I1
sVczgle9z
p2
I1
s.(dp0
Vcyjrzc4
p1
I1
sVczmfi09
p2
I1
s.(dp0
Vcyjrzc4
p1
I1
sVczmkmrj
p2
I1
s.(dp0
Vcyjrzc4
p1
I1
sVczmyafa
p2
I1
s.(dp0
Vcyjrzc4
p1
I1
sVczqf4qp
p2
I1
s.(dp0
Vcyjrzc4
p1
I1
sVczqf4qp
p2
I1
s.(dp0
Vcyjrzc4
p1
I1
sVczstd3s
p2
I1
s.(dp0
Vcyjrzc4
p1
I1
sVczu6hk0
p2
I1
s.(dp0
Vcyjrzc4
p1
I1
sVczuzivu
p2
I1
s.(dp0
Vcyjrzc4
p1
I1
sVczv9i2v
p2
I1
s.(dp0
Vcyjrzc4
p1
I1
sVczwzb7v
p2
I1
s.(dp0
Vcyjrzc4
p1
I1
sVczynb5y
p2
I1
s.(dp0
Vcyjrzc4
p1
I1
sVd00nxl1
p2
I1
s.(dp0
Vcyjrzc4
p1
I1
sVd00q4iw
p2
I1
s.(dp0
Vcyjrzc4
p1
I1
sVd02oj2h
p2
I1
s.(dp0
Vcyjrzc4
p1
I1
sVd04p7bg
p2
I1
s.(dp0
Vcyjrzc4
p1
I1
sVd0774yq
p2
I1
s.(dp0
Vcyjrzc4
p1
I1
sVd07qy8a
p2
I1
s.(dp0
Vcyjrzc4
p1
I1
sVd07skfo
p2
I1
s.(dp0
Vcyjrzc4
p1
I1
sVd092rf5
p2
I1
s.(dp0
Vcyjrzc4
p1
I1
sVd0b519j
p2
I1
s.(dp0
Vcyjrzc4
p1
I1
sVd0eznxg
p2
I1
s.(dp0
Vcyjrzc4
p1
I1
sVd0q87c7
p2
I1
s.(dp0
Vcyjrzc4
p1
I1
sVd0qm1ma
p2
I1
s.(dp0
Vcyjrzc4
p1
I1
sVd0rg82m
p2
I1
s.(dp0
Vcyjrzc4
p1
I1
sVd0t3ghh
p2
I1
s.(dp0
Vcyjrzc4
p1
I1
sVd0w5n39
p2
I1
s.(dp0
Vcyjrzc4
p1
I1
sVd0wf59w
p2
I1
s.(dp0
Vcyjrzc4
p1
I1
sVd0xsk7b
p2
I1
s.(dp0
Vcyjrzc4
p1
I1
sVd0y0ide
p2
I1
s.(dp0
Vcyjrzc4
p1
I1
sVd0y44y3
p2
I1
s.(dp0
Vcyjrzc4
p1
I1
sVd14q5bi
p2
I1
s.(dp0
Vcyjrzc4
p1
I1
sVd15c0mu
p2
I1
s.(dp0
Vcyjrzc4
p1
I1
sVd15odiz
p2
I1
s.(dp0
Vcyjrzc4
p1
I1
sVd17hirn
p2
I1
s.(dp0
Vcyjrzc4
p1
I1
sVd1cowaz
p2
I1
s.(dp0
Vcyjrzc4
p1
I1
sVd1d31fc
p2
I1
s.(dp0
Vcyjrzc4
p1
I1
sVd1gk2cz
p2
I1
s.(dp0
Vcyjrzc4
p1
I1
sVd1glmnp
p2
I1
s.(dp0
Vcyjrzc4
p1
I1
sVd1gzgnx
p2
I1
s.(dp0
Vcyjrzc4
p1
I1
sVd1hh54p
p2
I1
s.(dp0
Vcyjrzc4
p1
I1
sVd1jw1jd
p2
I1
s.(dp0
Vcyjrzc4
p1
I1
sVd1kfinc
p2
I1
s.(dp0
Vcyjrzc4
p1
I1
sVd1lidvr
p2
I1
s.(dp0
Vcyjrzc4
p1
I1
sVd1q8l5v
p2
I1
s.(dp0
Vcyjrzc4
p1
I1
sVd1qhb3z
p2
I1
s.(dp0
Vcyjrzc4
p1
I1
sVd1qhb3z
p2
I1
s.(dp0
Vcyjrzc4
p1
I1
sVd1v04uc
p2
I1
s.(dp0
Vcyjrzc4
p1
I1
sVd1v5ugp
p2
I1
s.(dp0
Vcyjrzc4
p1
I1
sVd1w0npj
p2
I1
s.(dp0
Vcyjrzc4
p1
I1
sVd1wa3u6
p2
I1
s.(dp0
Vcyjrzc4
p1
I1
sVd20exlv
p2
I1
s.(dp0
Vcyjrzc4
p1
I1
sVd22ljyu
p2
I1
s.(dp0
Vcyjrzc4
p1
I1
sVd23t0bq
p2
I1
s.(dp0
Vcyjrzc4
p1
I1
sVd24m56q
p2
I1
s.(dp0
Vcyjrzc4
p1
I1
sVd24me2n
p2
I1
s.(dp0
Vcyjrzc4
p1
I1
sVd26qic3
p2
I1
s.(dp0
Vcyjrzc4
p1
I1
sVd27xc2u
p2
I1
s.(dp0
Vcyjrzc4
p1
I1
sVd2b1g0y
p2
I1
s.(dp0
Vcyjrzc4
p1
I1
sVd2cse3f
p2
I1
s.(dp0
Vcyjrzc4
p1
I1
sVd2h04ce
p2
I1
s.(dp0
Vcyjrzc4
p1
I1
sVd2jlctg
p2
I1
s.(dp0
Vcyjrzc4
p1
I1
sVd2kofae
p2
I1
s.(dp0
Vcyjrzc4
p1
I1
sVd2r9ec8
p2
I1
s.(dp0
Vcyjrzc4
p1
I1
sVd2tggto
p2
I1
s.(dp0
Vcyjrzc4
p1
I1
sVd2ubk1i
p2
I1
s.(dp0
Vcyjrzc4
p1
I1
sVd2wff9n
p2
I1
s.(dp0
Vcyjrzc4
p1
I1
sVd2ykuxk
p2
I1
s.(dp0
Vcyjrzc4
p1
I1
sVd31xcfu
p2
I1
s.(dp0
Vcyjrzc4
p1
I1
sVd329cna
p2
I1
s.(dp0
Vcyjrzc4
p1
I1
sVd34k9hf
p2
I1
s.(dp0
Vcyjrzc4
p1
I1
sVd37nzmu
p2
I1
s.(dp0
Vcyjrzc4
p1
I1
sVd3e67c4
p2
I1
s.(dp0
Vcyjrzc4
p1
I1
sVd3e8cqr
p2
I1
s.(dp0
Vcyjrzc4
p1
I1
sVd3eb1cr
p2
I1
s.(dp0
Vcyjrzc4
p1
I1
sVd3exxpp
p2
I1
s.(dp0
Vcyjrzc4
p1
I1
sVd3g3bxb
p2
I1
s.(dp0
Vcyjrzc4
p1
I1
sVd3h20zj
p2
I1
s.(dp0
Vcyjrzc4
p1
I1
sVd3hsi8u
p2
I1
s.(dp0
Vcyjrzc4
p1
I1
sVd3mmw3l
p2
I1
s.(dp0
Vcy(dp0
Vcyjrzc4
p1
I1
sVdowotts
p2
I1
s.