(dp0
Vd2jfmrr
p1
I1
s.(dp0
Vd2jfmrr
p1
I1
sVd4rv81o
p2
I1
s.(dp0
Vd2jfmrr
p1
I1
sVd6kmoe7
p2
I1
s.(dp0
Vd2jfmrr
p1
I1
sVd9zwh8d
p2
I1
s.(dp0
Vd2jfmrr
p1
I1
sVdfyxao2
p2
I1
s.(dp0
Vd2jfmrr
p1
I1
sVdgkpsrn
p2
I1
s.(dp0
Vd2jfmrr
p1
I1
sVdisn55p
p2
I1
s.(dp0
Vd2jfmrr
p1
I1
sVdjq09fg
p2
I1
s.