(dp0
Vczix30a
p1
I1
s.(dp0
Vczl9r54
p1
I1
sVczix30a
p2
I1
s.(dp0
Vczuxayq
p1
I1
sVczix30a
p2
I1
s.(dp0
Vczix30a
p1
I1
sVd09hrl2
p2
I1
s.(dp0
Vd0d7uz1
p1
I1
sVczix30a
p2
I1
s.(dp0
Vd0y0b5f
p1
I1
sVczix30a
p2
I1
s.(dp0
Vd18bysj
p1
I1
sVczix30a
p2
I1
s.(dp0
Vd1a6l9e
p1
I1
sVczix30a
p2
I1
s.(dp0
Vd28yve1
p1
I1
sVczix30a
p2
I1
s.(dp0
Vczix30a
p1
I1
sVd2s8yhh
p2
I1
s.(dp0
Vczix30a
p1
I1
sVd2xdwgd
p2
I1
s.(dp0
Vd4t663n
p1
I1
sVczix30a
p2
I1
s.(dp0
Vczix30a
p1
I1
sVd5cin1c
p2
I1
s.(dp0
Vczix30a
p1
I1
sVd5zowpz
p2
I1
s.(dp0
Vczix30a
p1
I1
sVd74sx2s
p2
I1
s.(dp0
Vd7vwgt0
p1
I1
sVczix30a
p2
I1
s.(dp0
Vd8can6e
p1
I1
sVczix30a
p2
I1
s.(dp0
Vd8dk043
p1
I1
sVczix30a
p2
I1
s.(dp0
Vd9d2lau
p1
I1
sVczix30a
p2
I1
s.(dp0
Vczix30a
p1
I1
sVdbck0h9
p2
I1
s.(dp0
Vczix30a
p1
I1
sVdcek4xm
p2
I1
s.(dp0
Vdchpuyo
p1
I1
sVczix30a
p2
I1
s.(dp0
Vczix30a
p1
I1
sVdcrqst2
p2
I1
s.(dp0
Vczix30a
p1
I1
sVddey350
p2
I1
s.(dp0
Vde6mmn3
p1
I1
sVczix30a
p2
I1
s.(dp0
Vde6sczx
p1
I1
sVczix30a
p2
I1
s.(dp0
Vdebly0i
p1
I1
sVczix30a
p2
I1
s.(dp0
Vdfv5hdw
p1
I1
sVczix30a
p2
I1
s.(dp0
Vdfxgzhb
p1
I1
sVczix30a
p2
I1
s.(dp0
Vdg303cc
p1
I1
sVczix30a
p2
I1
s.(dp0
Vdgw8d10
p1
I1
sVczix30a
p2
I1
s.(dp0
Vdhqchj4
p1
I1
sVczix30a
p2
I1
s.(dp0
Vdhwo9uh
p1
I1
sVczix30a
p2
I1
s.(dp0
Vczix30a
p1
I1
sVdimlz70
p2
I1
s.(dp0
Vczix30a
p1
I1
sVdireuo0
p2
I1
s.(dp0
Vdirnwev
p1
I1
sVczix30a
p2
I1
s.(dp0
Vdn1jycr
p1
I1
sVczix30a
p2
I1
s.(dp0
Vdn1jycr
p1
I1
sVczix30a
p2
I1
s.(dp0
Vdn4ackt
p1
I1
sVczix30a
p2
I1
s.(dp0
Vdo9da52
p1
I1
sVczix30a
p2
I1
s.(dp0
Vdo9da52
p1
I1
sVczix30a
p2
I1
s.(dp0
Vdo9da52
p1
I1
sVczix30a
p2
I1
s.(dp0
Vdo9da52
p1
I1
sVczix30a
p2
I1
s.(dp0
Vdo9da52
p1
I1
sVczix30a
p2
I1
s.(dp0
Vdo9da52
p1
I1
sVczix30a
p2
I1
s.(dp0
Vdoj69wd
p1
I1
sVczix30a
p2
I1
s.