(dp0
Vcyi3u4r
p1
I1
s.(dp0
Vcyknmdo
p1
I1
sVcyi3u4r
p2
I1
s.(dp0
Vcyi3u4r
p1
I1
sVcyn1t78
p2
I1
s.(dp0
Vcyp5fqa
p1
I1
sVcyi3u4r
p2
I1
s.(dp0
Vcyi3u4r
p1
I1
sVcyq4j1n
p2
I1
s.(dp0
Vcys2ci2
p1
I1
sVcyi3u4r
p2
I1
s.(dp0
Vcywgzcq
p1
I1
sVcyi3u4r
p2
I1
s.(dp0
Vcyxba5k
p1
I1
sVcyi3u4r
p2
I1
s.(dp0
Vcyytr4t
p1
I1
sVcyi3u4r
p2
I1
s.(dp0
Vcz1vb7k
p1
I1
sVcyi3u4r
p2
I1
s.(dp0
Vcz69zvp
p1
I1
sVcyi3u4r
p2
I1
s.(dp0
Vcyi3u4r
p1
I1
sVcz7ck4l
p2
I1
s.(dp0
Vcyi3u4r
p1
I1
sVczid3up
p2
I1
s.(dp0
Vczl07rj
p1
I1
sVcyi3u4r
p2
I1
s.(dp0
Vczrp9gm
p1
I1
sVcyi3u4r
p2
I1
s.(dp0
Vczs30q1
p1
I1
sVcyi3u4r
p2
I1
s.(dp0
Vczs30q1
p1
I1
sVcyi3u4r
p2
I1
s.(dp0
Vczsaro1
p1
I1
sVcyi3u4r
p2
I1
s.(dp0
Vczxozy2
p1
I1
sVcyi3u4r
p2
I1
s.(dp0
Vczyq298
p1
I1
sVcyi3u4r
p2
I1
s.(dp0
Vcyi3u4r
p1
I1
sVczyxjnq
p2
I1
s.(dp0
Vcyi3u4r
p1
I1
sVczz6kcr
p2
I1
s.(dp0
Vd04489b
p1
I1
sVcyi3u4r
p2
I1
s.(dp0
Vd04ghon
p1
I1
sVcyi3u4r
p2
I1
s.(dp0
Vd080d59
p1
I1
sVcyi3u4r
p2
I1
s.(dp0
Vcyi3u4r
p1
I1
sVd08gx5r
p2
I1
s.(dp0
Vd094vqz
p1
I1
sVcyi3u4r
p2
I1
s.(dp0
Vcyi3u4r
p1
I1
sVd0bugfr
p2
I1
s.(dp0
Vd0ckjux
p1
I1
sVcyi3u4r
p2
I1
s.(dp0
Vcyi3u4r
p1
I1
sVd0eb0tm
p2
I1
s.(dp0
Vcyi3u4r
p1
I1
sVd0edxze
p2
I1
s.(dp0
Vcyi3u4r
p1
I1
sVd0hmmyp
p2
I1
s.(dp0
Vd0i9xr1
p1
I1
sVcyi3u4r
p2
I1
s.(dp0
Vcyi3u4r
p1
I1
sVd0jernx
p2
I1
s.(dp0
Vcyi3u4r
p1
I1
sVd0kxdn7
p2
I1
s.(dp0
Vd0m56fh
p1
I1
sVcyi3u4r
p2
I1
s.(dp0
Vd0ri7hr
p1
I1
sVcyi3u4r
p2
I1
s.(dp0
Vd0t8ll4
p1
I1
sVcyi3u4r
p2
I1
s.(dp0
Vd0u3toe
p1
I1
sVcyi3u4r
p2
I1
s.(dp0
Vcyi3u4r
p1
I1
sVd0xvd2d
p2
I1
s.(dp0
Vd0zamll
p1
I1
sVcyi3u4r
p2
I1
s.(dp0
Vd14dgbp
p1
I1
sVcyi3u4r
p2
I1
s.(dp0
Vcyi3u4r
p1
I1
sVd18s94g
p2
I1
s.(dp0
Vd1dps58
p1
I1
sVcyi3u4r
p2
I1
s.(dp0
Vd1gkzwe
p1
I1
sVcyi3u4r
p2
I1
s.(dp0
Vd1gn3zn
p1
I1
sVcyi3u4r
p2
I1
s.(dp0
Vd1p573m
p1
I1
sVcyi3u4r
p2
I1
s.(dp0
Vd1q36mx
p1
I1
sVcyi3u4r
p2
I1
s.(dp0
Vd1st72i
p1
I1
sVcyi3u4r
p2
I1
s.(dp0
Vd1w07yz
p1
I1
sVcyi3u4r
p2
I1
s.(dp0
Vcyi3u4r
p1
I1
sVd1ws4oy
p2
I1
s.(dp0
Vd1yy1rp
p1
I1
sVcyi3u4r
p2
I1
s.(dp0
Vd1zl557
p1
I1
sVcyi3u4r
p2
I1
s.(dp0
Vcyi3u4r
p1
I1
sVd22vp51
p2
I1
s.(dp0
Vd235gs9
p1
I1
sVcyi3u4r
p2
I1
s.(dp0
Vd235gs9
p1
I1
sVcyi3u4r
p2
I1
s.(dp0
Vd235gs9
p1
I1
sVcyi3u4r
p2
I1
s.(dp0
Vd29l7hg
p1
I1
sVcyi3u4r
p2
I1
s.(dp0
Vd2dsp5b
p1
I1
sVcyi3u4r
p2
I1
s.(dp0
Vd2e55y7
p1
I1
sVcyi3u4r
p2
I1
s.(dp0
Vcyi3u4r
p1
I1
sVd2e5xtv
p2
I1
s.(dp0
Vd2gi4xs
p1
I1
sVcyi3u4r
p2
I1
s.(dp0
Vd2go0cj
p1
I1
sVcyi3u4r
p2
I1
s.(dp0
Vd2ly654
p1
I1
sVcyi3u4r
p2
I1
s.(dp0
Vcyi3u4r
p1
I1
sVd2oo2fq
p2
I1
s.(dp0
Vd2p86ny
p1
I1
sVcyi3u4r
p2
I1
s.(dp0
Vd2x0qqt
p1
I1
sVcyi3u4r
p2
I1
s.(dp0
Vd2z8e2j
p1
I1
sVcyi3u4r
p2
I1
s.(dp0
Vd3432vg
p1
I1
sVcyi3u4r
p2
I1
s.(dp0
Vcyi3u4r
p1
I1
sVd3cawo6
p2
I1
s.(dp0
Vd3co9ze
p1
I1
sVcyi3u4r
p2
I1
s.(dp0
Vd3hnca7
p1
I1
sVcyi3u4r
p2
I1
s.(dp0
Vd3j48m1
p1
I1
sVcyi3u4r
p2
I1
s.(dp0
Vd43cxbu
p1
I1
sVcyi3u4r
p2
I1
s.(dp0
Vd46vago
p1
I1
sVcyi3u4r
p2
I1
s.(dp0
Vd49xr6a
p1
I1
sVcyi3u4r
p2
I1
s.(dp0
Vd4bjfg7
p1
I1
sVcyi3u4r
p2
I1
s.(dp0
Vd4bjfg7
p1
I1
sVcyi3u4r
p2
I1
s.(dp0
Vd4e9gia
p1
I1
sVcyi3u4r
p2
I1
s.(dp0
Vd4fsvau
p1
I1
sVcyi3u4r
p2
I1
s.(dp0
Vcyi3u4r
p1
I1
sVd4ggy5r
p2
I1
s.(dp0
Vd4j4f1n
p1
I1
sVcyi3u4r
p2
I1
s.(dp0
Vcyi3u4r
p1
I1
sVd4jk6f6
p2
I1
s.(dp0
Vd4l6aaz
p1
I1
sVcyi3u4r
p2
I1
s.(dp0
Vcyi3u4r
p1
I1
sVd4ns961
p2
I1
s.(dp0
Vcyi3u4r
p1
I1
sVd4xuls7
p2
I1
s.(dp0
Vd4zn4ak
p1
I1
sVcyi3u4r
p2
I1
s.(dp0
Vcyi3u4r
p1
I1
sVd55wdq9
p2
I1
s.(dp0
Vd59xdse
p1
I1
sVcyi3u4r
p2
I1
s.(dp0
Vd5bynfi
p1
I1
sVcyi3u4r
p2
I1
s.(dp0
Vd5njua2
p1
I1
sVcyi3u4r
p2
I1
s.(dp0
Vd5nrugv
p1
I1
sVcyi3u4r
p2
I1
s.(dp0
Vd5skxn4
p1
I1
sVcyi3u4r
p2
I1
s.(dp0
Vcyi3u4r
p1
I1
sVd5vl4l8
p2
I1
s.(dp0
Vd5wxv8n
p1
I1
sVcyi3u4r
p2
I1
s.(dp0
Vd5x2rg9
p1
I1
sVcyi3u4r
p2
I1
s.(dp0
Vd61fz8l
p1
I1
sVcyi3u4r
p2
I1
s.(dp0
Vcyi3u4r
p1
I1
sVd657bk3
p2
I1
s.(dp0
Vd6f7cdm
p1
I1
sVcyi3u4r
p2
I1
s.(dp0
Vcyi3u4r
p1
I1
sVd6jeu93
p2
I1
s.(dp0
Vd6oemz6
p1
I1
sVcyi3u4r
p2
I1
s.(dp0
Vcyi3u4r
p1
I1
sVd6p8d00
p2
I1
s.(dp0
Vcyi3u4r
p1
I1
sVd6u0j3y
p2
I1
s.(dp0
Vcyi3u4r
p1
I1
sVd6u0j3y
p2
I1
s.(dp0
Vcyi3u4r
p1
I1
sVd6xb69y
p2
I1
s.(dp0
Vd706llk
p1
I1
sVcyi3u4r
p2
I1
s.(dp0
Vd718gao
p1
I1
sVcyi3u4r
p2
I1
s.(dp0
Vcyi3u4r
p1
I1
sVd79zadr
p2
I1
s.(dp0
Vcy(dp0
Vcyi3u4r
p1
I1
sVdktywjk
p2
I1
s.