(dp0
Vcyj5r3g
p1
I1
s.(dp0
Vcyo57uv
p1
I1
sVcyj5r3g
p2
I1
s.(dp0
Vcyp8y43
p1
I1
sVcyj5r3g
p2
I1
s.(dp0
Vcyj5r3g
p1
I1
sVcyqhczl
p2
I1
s.(dp0
Vcyqooof
p1
I1
sVcyj5r3g
p2
I1
s.(dp0
Vcyzep41
p1
I1
sVcyj5r3g
p2
I1
s.(dp0
Vcyj5r3g
p1
I1
sVcz2xxqx
p2
I1
s.(dp0
Vcz43qrq
p1
I1
sVcyj5r3g
p2
I1
s.(dp0
Vcz60tvb
p1
I1
sVcyj5r3g
p2
I1
s.(dp0
Vczacwty
p1
I1
sVcyj5r3g
p2
I1
s.(dp0
Vczgllhh
p1
I1
sVcyj5r3g
p2
I1
s.(dp0
Vczszyca
p1
I1
sVcyj5r3g
p2
I1
s.(dp0
Vcyj5r3g
p1
I1
sVczuhan3
p2
I1
s.(dp0
Vcyj5r3g
p1
I1
sVczz4z2g
p2
I1
s.(dp0
Vczz7e6r
p1
I1
sVcyj5r3g
p2
I1
s.(dp0
Vd00edmv
p1
I1
sVcyj5r3g
p2
I1
s.(dp0
Vd015vii
p1
I1
sVcyj5r3g
p2
I1
s.(dp0
Vd01xutb
p1
I1
sVcyj5r3g
p2
I1
s.(dp0
Vd05e8qk
p1
I1
sVcyj5r3g
p2
I1
s.(dp0
Vd08um5q
p1
I1
sVcyj5r3g
p2
I1
s.(dp0
Vd0dohrx
p1
I1
sVcyj5r3g
p2
I1
s.(dp0
Vd0eqje6
p1
I1
sVcyj5r3g
p2
I1
s.(dp0
Vcyj5r3g
p1
I1
sVd0fz6tv
p2
I1
s.(dp0
Vd0gqp65
p1
I1
sVcyj5r3g
p2
I1
s.(dp0
Vd0rbaeg
p1
I1
sVcyj5r3g
p2
I1
s.(dp0
Vcyj5r3g
p1
I1
sVd0tze6e
p2
I1
s.(dp0
Vcyj5r3g
p1
I1
sVd0udt1f
p2
I1
s.(dp0
Vd11mauq
p1
I1
sVcyj5r3g
p2
I1
s.(dp0
Vd13zr84
p1
I1
sVcyj5r3g
p2
I1
s.(dp0
Vd161fc0
p1
I1
sVcyj5r3g
p2
I1
s.(dp0
Vd19ocos
p1
I1
sVcyj5r3g
p2
I1
s.(dp0
Vd1fa794
p1
I1
sVcyj5r3g
p2
I1
s.(dp0
Vcyj5r3g
p1
I1
sVd1guz9b
p2
I1
s.(dp0
Vd1h33si
p1
I1
sVcyj5r3g
p2
I1
s.(dp0
Vd1k0bn0
p1
I1
sVcyj5r3g
p2
I1
s.(dp0
Vd1lekxk
p1
I1
sVcyj5r3g
p2
I1
s.(dp0
Vd1lekxk
p1
I1
sVcyj5r3g
p2
I1
s.(dp0
Vcyj5r3g
p1
I1
sVd1w1u77
p2
I1
s.(dp0
Vd1wcqr8
p1
I1
sVcyj5r3g
p2
I1
s.(dp0
Vd1ztkzr
p1
I1
sVcyj5r3g
p2
I1
s.(dp0
Vd20xzl3
p1
I1
sVcyj5r3g
p2
I1
s.(dp0
Vd257v6h
p1
I1
sVcyj5r3g
p2
I1
s.(dp0
Vd25rueu
p1
I1
sVcyj5r3g
p2
I1
s.(dp0
Vd2pfr5s
p1
I1
sVcyj5r3g
p2
I1
s.(dp0
Vd2wibw7
p1
I1
sVcyj5r3g
p2
I1
s.(dp0
Vd2wkr3z
p1
I1
sVcyj5r3g
p2
I1
s.(dp0
Vcyj5r3g
p1
I1
sVd2z7qdh
p2
I1
s.(dp0
Vd33h3jz
p1
I1
sVcyj5r3g
p2
I1
s.(dp0
Vd33mi0x
p1
I1
sVcyj5r3g
p2
I1
s.(dp0
Vd33x1ks
p1
I1
sVcyj5r3g
p2
I1
s.(dp0
Vd37mtc1
p1
I1
sVcyj5r3g
p2
I1
s.(dp0
Vd3mhy03
p1
I1
sVcyj5r3g
p2
I1
s.(dp0
Vd3q2n6c
p1
I1
sVcyj5r3g
p2
I1
s.(dp0
Vd3vf7lb
p1
I1
sVcyj5r3g
p2
I1
s.(dp0
Vd3x0i4n
p1
I1
sVcyj5r3g
p2
I1
s.(dp0
Vd40kwez
p1
I1
sVcyj5r3g
p2
I1
s.(dp0
Vd474g3c
p1
I1
sVcyj5r3g
p2
I1
s.(dp0
Vd47g5aw
p1
I1
sVcyj5r3g
p2
I1
s.(dp0
Vd4d98tm
p1
I1
sVcyj5r3g
p2
I1
s.(dp0
Vd4epals
p1
I1
sVcyj5r3g
p2
I1
s.(dp0
Vd4f84dh
p1
I1
sVcyj5r3g
p2
I1
s.(dp0
Vd4f9dvm
p1
I1
sVcyj5r3g
p2
I1
s.(dp0
Vd4fm3cy
p1
I1
sVcyj5r3g
p2
I1
s.(dp0
Vd4gek8d
p1
I1
sVcyj5r3g
p2
I1
s.(dp0
Vd4ixao7
p1
I1
sVcyj5r3g
p2
I1
s.(dp0
Vd4j24gt
p1
I1
sVcyj5r3g
p2
I1
s.(dp0
Vd536kq8
p1
I1
sVcyj5r3g
p2
I1
s.(dp0
Vd5i3wvc
p1
I1
sVcyj5r3g
p2
I1
s.(dp0
Vcyj5r3g
p1
I1
sVd5jfkh4
p2
I1
s.(dp0
Vcyj5r3g
p1
I1
sVd5mcajd
p2
I1
s.(dp0
Vd5tbpjj
p1
I1
sVcyj5r3g
p2
I1
s.(dp0
Vd5ue22j
p1
I1
sVcyj5r3g
p2
I1
s.(dp0
Vd5x2e0k
p1
I1
sVcyj5r3g
p2
I1
s.(dp0
Vd5x2e0k
p1
I1
sVcyj5r3g
p2
I1
s.(dp0
Vd5z43m7
p1
I1
sVcyj5r3g
p2
I1
s.(dp0
Vd62e6fw
p1
I1
sVcyj5r3g
p2
I1
s.(dp0
Vd66dpr3
p1
I1
sVcyj5r3g
p2
I1
s.(dp0
Vd6j3r9q
p1
I1
sVcyj5r3g
p2
I1
s.(dp0
Vd6j3r9q
p1
I1
sVcyj5r3g
p2
I1
s.(dp0
Vcyj5r3g
p1
I1
sVd72jvny
p2
I1
s.(dp0
Vcyj5r3g
p1
I1
sVd7j8bcp
p2
I1
s.(dp0
Vd7zuy4o
p1
I1
sVcyj5r3g
p2
I1
s.(dp0
Vd8gn9kj
p1
I1
sVcyj5r3g
p2
I1
s.(dp0
Vd8jl2xl
p1
I1
sVcyj5r3g
p2
I1
s.(dp0
Vd8ncj76
p1
I1
sVcyj5r3g
p2
I1
s.(dp0
Vd8pi09u
p1
I1
sVcyj5r3g
p2
I1
s.(dp0
Vd8vh25i
p1
I1
sVcyj5r3g
p2
I1
s.(dp0
Vcyj5r3g
p1
I1
sVd909vpz
p2
I1
s.(dp0
Vd90ps4a
p1
I1
sVcyj5r3g
p2
I1
s.(dp0
Vcyj5r3g
p1
I1
sVd91i92f
p2
I1
s.(dp0
Vd95uii1
p1
I1
sVcyj5r3g
p2
I1
s.(dp0
Vcyj5r3g
p1
I1
sVd97q1nx
p2
I1
s.(dp0
Vd9ps9nr
p1
I1
sVcyj5r3g
p2
I1
s.(dp0
Vd9pt24q
p1
I1
sVcyj5r3g
p2
I1
s.(dp0
Vd9t5guu
p1
I1
sVcyj5r3g
p2
I1
s.(dp0
Vd9yt1z2
p1
I1
sVcyj5r3g
p2
I1
s.(dp0
Vda0uds1
p1
I1
sVcyj5r3g
p2
I1
s.(dp0
Vda4am1g
p1
I1
sVcyj5r3g
p2
I1
s.(dp0
Vcyj5r3g
p1
I1
sVda63dqg
p2
I1
s.(dp0
Vda7quhq
p1
I1
sVcyj5r3g
p2
I1
s.(dp0
Vdachi9y
p1
I1
sVcyj5r3g
p2
I1
s.(dp0
Vdahqwv3
p1
I1
sVcyj5r3g
p2
I1
s.(dp0
Vdaibwge
p1
I1
sVcyj5r3g
p2
I1
s.(dp0
Vdaiwt6p
p1
I1
sVcyj5r3g
p2
I1
s.(dp0
Vdam1l7g
p1
I1
sVcyj5r3g
p2
I1
s.(dp0
Vdamz80k
p1
I1
sVcyj5r3g
p2
I1
s.(dp0
Vdan5t8y
p1
I1
sVcyj5r3g
p2
I1
s.(dp0
Vdapgmf1
p1
I1
sVcyj5r3g
p2
I1
s.(dp0
Vda(dp0
Vdp4jd76
p1
I1
sVcyj5r3g
p2
I1
s.