(dp0
Vcyi46g4
p1
I1
s.(dp0
Vcyi46g4
p1
I1
sVcyi47bu
p2
I1
s.(dp0
Vcyi46g4
p1
I1
sVcyi6pe9
p2
I1
s.(dp0
Vcyi46g4
p1
I1
sVcyi6uq8
p2
I1
s.(dp0
Vcyi46g4
p1
I1
sVcyi766b
p2
I1
s.(dp0
Vcyi46g4
p1
I1
sVcyiafxx
p2
I1
s.(dp0
Vcyi46g4
p1
I1
sVcyibhtc
p2
I1
s.(dp0
Vcyi46g4
p1
I1
sVcyieqhh
p2
I1
s.(dp0
Vcyi46g4
p1
I1
sVcyifqtn
p2
I1
s.(dp0
Vcyi46g4
p1
I1
sVcyihwz6
p2
I1
s.(dp0
Vcyi46g4
p1
I1
sVcyijt8r
p2
I1
s.(dp0
Vcyik9wc
p1
I1
sVcyi46g4
p2
I1
s.(dp0
Vcyi46g4
p1
I1
sVcyilj21
p2
I1
s.(dp0
Vcyi46g4
p1
I1
sVcyim1o3
p2
I1
s.(dp0
Vcyi46g4
p1
I1
sVcyion75
p2
I1
s.(dp0
Vcyi46g4
p1
I1
sVcyir5oq
p2
I1
s.(dp0
Vcyi46g4
p1
I1
sVcyir5oq
p2
I1
s.(dp0
Vcyi46g4
p1
I1
sVcyir5oq
p2
I1
s.(dp0
Vcyi46g4
p1
I1
sVcyir5oq
p2
I1
s.(dp0
Vcyi46g4
p1
I1
sVcyiun9v
p2
I1
s.(dp0
Vcyi46g4
p1
I1
sVcyiv5oh
p2
I1
s.(dp0
Vcyi46g4
p1
I1
sVcyix9zp
p2
I1
s.(dp0
Vcyi46g4
p1
I1
sVcyizgll
p2
I1
s.(dp0
Vcyi46g4
p1
I1
sVcyj23k6
p2
I1
s.(dp0
Vcyi46g4
p1
I1
sVcyj6gxj
p2
I1
s.(dp0
Vcyi46g4
p1
I1
sVcyj6gxj
p2
I1
s.(dp0
Vcyi46g4
p1
I1
sVcyj7rnn
p2
I1
s.(dp0
Vcyi46g4
p1
I1
sVcyj9580
p2
I1
s.(dp0
Vcyi46g4
p1
I1
sVcyj9tek
p2
I1
s.(dp0
Vcyjad7k
p1
I1
sVcyi46g4
p2
I1
s.(dp0
Vcyi46g4
p1
I1
sVcyjalsi
p2
I1
s.(dp0
Vcyi46g4
p1
I1
sVcyjb4ks
p2
I1
s.(dp0
Vcyi46g4
p1
I1
sVcyjbgmp
p2
I1
s.(dp0
Vcyi46g4
p1
I1
sVcyjcp8c
p2
I1
s.(dp0
Vcyjdvmp
p1
I1
sVcyi46g4
p2
I1
s.(dp0
Vcyjhteb
p1
I1
sVcyi46g4
p2
I1
s.(dp0
Vcyi46g4
p1
I1
sVcyjnpik
p2
I1
s.(dp0
Vcyi46g4
p1
I1
sVcyjored
p2
I1
s.(dp0
Vcyi46g4
p1
I1
sVcyjrekc
p2
I1
s.(dp0
Vcyi46g4
p1
I1
sVcyjuo3p
p2
I1
s.(dp0
Vcyi46g4
p1
I1
sVcyjwdan
p2
I1
s.(dp0
Vcyi46g4
p1
I1
sVcyk24of
p2
I1
s.(dp0
Vcyi46g4
p1
I1
sVcyk458w
p2
I1
s.(dp0
Vcyi46g4
p1
I1
sVcykdn04
p2
I1
s.(dp0
Vcyi46g4
p1
I1
sVcykicog
p2
I1
s.(dp0
Vcyi46g4
p1
I1
sVcykj6vc
p2
I1
s.(dp0
Vcyklx6v
p1
I1
sVcyi46g4
p2
I1
s.(dp0
Vcyklxhx
p1
I1
sVcyi46g4
p2
I1
s.(dp0
Vcyi46g4
p1
I1
sVcyksh1j
p2
I1
s.(dp0
Vcyi46g4
p1
I1
sVcyku6vl
p2
I1
s.(dp0
Vcyi46g4
p1
I1
sVcykusi1
p2
I1
s.(dp0
Vcykynfk
p1
I1
sVcyi46g4
p2
I1
s.(dp0
Vcyi46g4
p1
I1
sVcykztsi
p2
I1
s.(dp0
Vcyi46g4
p1
I1
sVcyl207p
p2
I1
s.(dp0
Vcyi46g4
p1
I1
sVcyl2qie
p2
I1
s.(dp0
Vcyi46g4
p1
I1
sVcyl2sg6
p2
I1
s.(dp0
Vcyl71w2
p1
I1
sVcyi46g4
p2
I1
s.(dp0
Vcyi46g4
p1
I1
sVcyl831e
p2
I1
s.(dp0
Vcyi46g4
p1
I1
sVcylgmby
p2
I1
s.(dp0
Vcylh0q0
p1
I1
sVcyi46g4
p2
I1
s.(dp0
Vcyi46g4
p1
I1
sVcylhjq5
p2
I1
s.(dp0
Vcyi46g4
p1
I1
sVcylimr2
p2
I1
s.(dp0
Vcyi46g4
p1
I1
sVcylit8j
p2
I1
s.(dp0
Vcyi46g4
p1
I1
sVcylj2w0
p2
I1
s.(dp0
Vcyi46g4
p1
I1
sVcylk7ho
p2
I1
s.(dp0
Vcyi46g4
p1
I1
sVcylltid
p2
I1
s.(dp0
Vcyi46g4
p1
I1
sVcylltid
p2
I1
s.(dp0
Vcyln1jr
p1
I1
sVcyi46g4
p2
I1
s.(dp0
Vcyi46g4
p1
I1
sVcylnjxd
p2
I1
s.(dp0
Vcyi46g4
p1
I1
sVcylns1s
p2
I1
s.(dp0
Vcyi46g4
p1
I1
sVcylozez
p2
I1
s.(dp0
Vcyi46g4
p1
I1
sVcyluo8b
p2
I1
s.(dp0
Vcyi46g4
p1
I1
sVcym4ogc
p2
I1
s.(dp0
Vcymbkov
p1
I1
sVcyi46g4
p2
I1
s.(dp0
Vcyi46g4
p1
I1
sVcymfqqf
p2
I1
s.(dp0
Vcymgmk3
p1
I1
sVcyi46g4
p2
I1
s.(dp0
Vcyi46g4
p1
I1
sVcymr5aa
p2
I1
s.(dp0
Vcyi46g4
p1
I1
sVcymri79
p2
I1
s.(dp0
Vcyi46g4
p1
I1
sVcymuuwp
p2
I1
s.(dp0
Vcyi46g4
p1
I1
sVcymwdac
p2
I1
s.(dp0
Vcyi46g4
p1
I1
sVcymwtvw
p2
I1
s.(dp0
Vcyi46g4
p1
I1
sVcyn2kkw
p2
I1
s.(dp0
Vcynczzl
p1
I1
sVcyi46g4
p2
I1
s.(dp0
Vcyi46g4
p1
I1
sVcyngvrg
p2
I1
s.(dp0
Vcyi46g4
p1
I1
sVcynj35x
p2
I1
s.(dp0
Vcyi46g4
p1
I1
sVcynlp8p
p2
I1
s.(dp0
Vcyi46g4
p1
I1
sVcynlt5n
p2
I1
s.(dp0
Vcyi46g4
p1
I1
sVcynm0pk
p2
I1
s.(dp0
Vcyi46g4
p1
I1
sVcynmma0
p2
I1
s.(dp0
Vcyi46g4
p1
I1
sVcynrupq
p2
I1
s.(dp0
Vcyi46g4
p1
I1
sVcynsutn
p2
I1
s.(dp0
Vcynv73y
p1
I1
sVcyi46g4
p2
I1
s.(dp0
Vcyi46g4
p1
I1
sVcynvq7c
p2
I1
s.(dp0
Vcyi46g4
p1
I1
sVcyo10bl
p2
I1
s.(dp0
Vcyi46g4
p1
I1
sVcyo23un
p2
I1
s.(dp0
Vcyi46g4
p1
I1
sVcyo251k
p2
I1
s.(dp0
Vcyi46g4
p1
I1
sVcyo3q5o
p2
I1
s.(dp0
Vcyi46g4
p1
I1
sVcyo48t3
p2
I1
s.(dp0
Vcyi46g4
p1
I1
sVcyo5lsf
p2
I1
s.(dp0
Vcyi46g4
p1
I1
sVcyo65kt
p2
I1
s.(dp0
Vcyi46g4
p1
I1
sVcyo7bky
p2
I1
s.(dp0
Vcyi46g4
p1
I1
sVcyo7bky
p2
I1
s.(dp0
Vcyi46g4
p1
I1
sVcyo7bky
p2
I1
s.(dp0
Vcyi46g4
p1
I1
sVcyo7bky
p2
I1
s.(dp0
Vcyi46g4
p1
I1
sVcyo8ghm
p2
I1
s.(dp0
Vcyoclej
p1
I1
sVcyi46g4
p2
I1
s.(dp0
Vcyi46g4
p1
I1
sVcyocqzx
p2
I1
s.(dp0
Vcyi46g4
p1
I1
sVcyofjp5
p2
I1
s.(dp0
Vcy(dp0
Vcyi46g4
p1
I1
sVdp5p2jy
p2
I1
s.