(dp0
Vcz68p94
p1
I1
s.(dp0
Vd0i2qk4
p1
I1
sVcz68p94
p2
I1
s.(dp0
Vd1aay9z
p1
I1
sVcz68p94
p2
I1
s.(dp0
Vd1rbrt8
p1
I1
sVcz68p94
p2
I1
s.(dp0
Vd741idi
p1
I1
sVcz68p94
p2
I1
s.(dp0
Vdb2yj6p
p1
I1
sVcz68p94
p2
I1
s.(dp0
Vdc5l2t9
p1
I1
sVcz68p94
p2
I1
s.(dp0
Vdetzur3
p1
I1
sVcz68p94
p2
I1
s.(dp0
Vdgh1fkk
p1
I1
sVcz68p94
p2
I1
s.(dp0
Vdhrc9y7
p1
I1
sVcz68p94
p2
I1
s.(dp0
Vdhyo5lv
p1
I1
sVcz68p94
p2
I1
s.(dp0
Vdjd4btc
p1
I1
sVcz68p94
p2
I1
s.(dp0
Vdkkt0to
p1
I1
sVcz68p94
p2
I1
s.