(dp0
Vcykglfj
p1
I1
s.(dp0
Vcykglfj
p1
I1
sVcyv4lv2
p2
I1
s.(dp0
Vcykglfj
p1
I1
sVcz0l34r
p2
I1
s.(dp0
Vcykglfj
p1
I1
sVczc9lhg
p2
I1
s.(dp0
Vcykglfj
p1
I1
sVczjw9sx
p2
I1
s.(dp0
Vcykglfj
p1
I1
sVd07z07e
p2
I1
s.(dp0
Vcykglfj
p1
I1
sVd2vg332
p2
I1
s.(dp0
Vcykglfj
p1
I1
sVd44ykzt
p2
I1
s.(dp0
Vcykglfj
p1
I1
sVd4up9fx
p2
I1
s.(dp0
Vcykglfj
p1
I1
sVd57zxt6
p2
I1
s.(dp0
Vcykglfj
p1
I1
sVd5kkr7k
p2
I1
s.(dp0
Vcykglfj
p1
I1
sVd5yjqm6
p2
I1
s.(dp0
Vcykglfj
p1
I1
sVd5yjqm6
p2
I1
s.(dp0
Vcykglfj
p1
I1
sVd618eky
p2
I1
s.(dp0
Vcykglfj
p1
I1
sVd6knq0y
p2
I1
s.(dp0
Vcykglfj
p1
I1
sVd99fb2v
p2
I1
s.(dp0
Vdaepsa1
p1
I1
sVcykglfj
p2
I1
s.(dp0
Vcykglfj
p1
I1
sVdagranq
p2
I1
s.(dp0
Vcykglfj
p1
I1
sVdak9ef3
p2
I1
s.(dp0
Vcykglfj
p1
I1
sVdbmeqkr
p2
I1
s.(dp0
Vcykglfj
p1
I1
sVdc25nyk
p2
I1
s.(dp0
Vcykglfj
p1
I1
sVdehaerl
p2
I1
s.(dp0
Vcykglfj
p1
I1
sVdf3ct08
p2
I1
s.(dp0
Vcykglfj
p1
I1
sVdfiht07
p2
I1
s.(dp0
Vcykglfj
p1
I1
sVdfrvxdp
p2
I1
s.(dp0
Vcykglfj
p1
I1
sVdftc15i
p2
I1
s.(dp0
Vcykglfj
p1
I1
sVdgh3j7o
p2
I1
s.(dp0
Vcykglfj
p1
I1
sVdhhhenr
p2
I1
s.(dp0
Vcykglfj
p1
I1
sVdi0jyh4
p2
I1
s.(dp0
Vcykglfj
p1
I1
sVdj3kfgk
p2
I1
s.(dp0
Vcykglfj
p1
I1
sVdj3qwmk
p2
I1
s.(dp0
Vcykglfj
p1
I1
sVdj6kqdj
p2
I1
s.(dp0
Vcykglfj
p1
I1
sVdkhfhft
p2
I1
s.(dp0
Vdn649b0
p1
I1
sVcykglfj
p2
I1
s.(dp0
Vcykglfj
p1
I1
sVdoz53xs
p2
I1
s.