(dp0
Vcyn9p0f
p1
I1
s.(dp0
Vcyn9p0f
p1
I1
sVcynadyc
p2
I1
s.(dp0
Vcyn9p0f
p1
I1
sVcynspgi
p2
I1
s.(dp0
Vcyn9p0f
p1
I1
sVcyo85a4
p2
I1
s.(dp0
Vcyn9p0f
p1
I1
sVcyp59rm
p2
I1
s.(dp0
Vcyn9p0f
p1
I1
sVcyp59rm
p2
I1
s.(dp0
Vcyn9p0f
p1
I1
sVcyqxd6p
p2
I1
s.(dp0
Vcyn9p0f
p1
I1
sVcyr1f7f
p2
I1
s.(dp0
Vcyn9p0f
p1
I1
sVcyrfro4
p2
I1
s.(dp0
Vcyn9p0f
p1
I1
sVcys9l5c
p2
I1
s.(dp0
Vcyn9p0f
p1
I1
sVcz0hb7v
p2
I1
s.(dp0
Vcyn9p0f
p1
I1
sVczarorr
p2
I1
s.(dp0
Vcyn9p0f
p1
I1
sVczfib6v
p2
I1
s.(dp0
Vcyn9p0f
p1
I1
sVcziq47z
p2
I1
s.(dp0
Vcyn9p0f
p1
I1
sVczirkyh
p2
I1
s.(dp0
Vcyn9p0f
p1
I1
sVczirkyh
p2
I1
s.(dp0
Vcyn9p0f
p1
I1
sVczjnqw7
p2
I1
s.(dp0
Vcyn9p0f
p1
I1
sVczjnqw7
p2
I1
s.(dp0
Vcyn9p0f
p1
I1
sVczon4x7
p2
I1
s.(dp0
Vcyn9p0f
p1
I1
sVczthmx7
p2
I1
s.(dp0
Vcyn9p0f
p1
I1
sVczxzjch
p2
I1
s.(dp0
Vcyn9p0f
p1
I1
sVczzrv8y
p2
I1
s.(dp0
Vcyn9p0f
p1
I1
sVd00c80q
p2
I1
s.(dp0
Vcyn9p0f
p1
I1
sVd04hj3k
p2
I1
s.(dp0
Vcyn9p0f
p1
I1
sVd0b70a3
p2
I1
s.(dp0
Vcyn9p0f
p1
I1
sVd0hqks4
p2
I1
s.(dp0
Vcyn9p0f
p1
I1
sVd0hqks4
p2
I1
s.(dp0
Vcyn9p0f
p1
I1
sVd0hqks4
p2
I1
s.(dp0
Vcyn9p0f
p1
I1
sVd0i87dr
p2
I1
s.(dp0
Vcyn9p0f
p1
I1
sVd0iwz9h
p2
I1
s.(dp0
Vcyn9p0f
p1
I1
sVd0mnm8m
p2
I1
s.(dp0
Vcyn9p0f
p1
I1
sVd0pa8kz
p2
I1
s.(dp0
Vcyn9p0f
p1
I1
sVd0r1zc7
p2
I1
s.(dp0
Vcyn9p0f
p1
I1
sVd15s4zs
p2
I1
s.(dp0
Vcyn9p0f
p1
I1
sVd181ckm
p2
I1
s.(dp0
Vcyn9p0f
p1
I1
sVd1j4uvo
p2
I1
s.(dp0
Vcyn9p0f
p1
I1
sVd1jm9cp
p2
I1
s.(dp0
Vcyn9p0f
p1
I1
sVd1ot7ax
p2
I1
s.(dp0
Vcyn9p0f
p1
I1
sVd1r26kw
p2
I1
s.(dp0
Vcyn9p0f
p1
I1
sVd1zjgig
p2
I1
s.(dp0
Vcyn9p0f
p1
I1
sVd2894cm
p2
I1
s.(dp0
Vcyn9p0f
p1
I1
sVd2g744f
p2
I1
s.(dp0
Vcyn9p0f
p1
I1
sVd2kuxsh
p2
I1
s.(dp0
Vcyn9p0f
p1
I1
sVd2mgt0i
p2
I1
s.(dp0
Vcyn9p0f
p1
I1
sVd2w7h50
p2
I1
s.(dp0
Vcyn9p0f
p1
I1
sVd2xf57i
p2
I1
s.(dp0
Vcyn9p0f
p1
I1
sVd36cxm4
p2
I1
s.(dp0
Vcyn9p0f
p1
I1
sVd3979gy
p2
I1
s.(dp0
Vcyn9p0f
p1
I1
sVd3979gy
p2
I1
s.(dp0
Vcyn9p0f
p1
I1
sVd3fkeg9
p2
I1
s.(dp0
Vcyn9p0f
p1
I1
sVd41mleo
p2
I1
s.(dp0
Vcyn9p0f
p1
I1
sVd41okmz
p2
I1
s.(dp0
Vcyn9p0f
p1
I1
sVd41okmz
p2
I1
s.(dp0
Vcyn9p0f
p1
I1
sVd41okmz
p2
I1
s.(dp0
Vcyn9p0f
p1
I1
sVd41okmz
p2
I1
s.(dp0
Vcyn9p0f
p1
I1
sVd41uqr2
p2
I1
s.(dp0
Vcyn9p0f
p1
I1
sVd49mltv
p2
I1
s.(dp0
Vcyn9p0f
p1
I1
sVd4aoy7e
p2
I1
s.(dp0
Vcyn9p0f
p1
I1
sVd4fgdkp
p2
I1
s.(dp0
Vcyn9p0f
p1
I1
sVd4k78f7
p2
I1
s.(dp0
Vcyn9p0f
p1
I1
sVd4lx7yt
p2
I1
s.(dp0
Vcyn9p0f
p1
I1
sVd4m2u18
p2
I1
s.(dp0
Vcyn9p0f
p1
I1
sVd4m2u18
p2
I1
s.(dp0
Vcyn9p0f
p1
I1
sVd4p9c4d
p2
I1
s.(dp0
Vcyn9p0f
p1
I1
sVd5dyhyn
p2
I1
s.(dp0
Vcyn9p0f
p1
I1
sVd66nsog
p2
I1
s.(dp0
Vcyn9p0f
p1
I1
sVd6cntyc
p2
I1
s.(dp0
Vcyn9p0f
p1
I1
sVd6cntyc
p2
I1
s.(dp0
Vcyn9p0f
p1
I1
sVd6cntyc
p2
I1
s.(dp0
Vcyn9p0f
p1
I1
sVd6cntyc
p2
I1
s.(dp0
Vcyn9p0f
p1
I1
sVd6m1mus
p2
I1
s.(dp0
Vcyn9p0f
p1
I1
sVd6nsgrg
p2
I1
s.(dp0
Vcyn9p0f
p1
I1
sVd6qq1jd
p2
I1
s.(dp0
Vcyn9p0f
p1
I1
sVd6timro
p2
I1
s.(dp0
Vcyn9p0f
p1
I1
sVd708eaw
p2
I1
s.(dp0
Vcyn9p0f
p1
I1
sVd723lmm
p2
I1
s.(dp0
Vcyn9p0f
p1
I1
sVd78rj2r
p2
I1
s.(dp0
Vcyn9p0f
p1
I1
sVd78shbu
p2
I1
s.(dp0
Vcyn9p0f
p1
I1
sVd78z7gp
p2
I1
s.(dp0
Vcyn9p0f
p1
I1
sVd78z7gp
p2
I1
s.(dp0
Vcyn9p0f
p1
I1
sVd79725v
p2
I1
s.(dp0
Vcyn9p0f
p1
I1
sVd79725v
p2
I1
s.(dp0
Vcyn9p0f
p1
I1
sVd7eojku
p2
I1
s.(dp0
Vcyn9p0f
p1
I1
sVd7g7uyp
p2
I1
s.(dp0
Vcyn9p0f
p1
I1
sVd7g7uyp
p2
I1
s.(dp0
Vcyn9p0f
p1
I1
sVd7gpk9l
p2
I1
s.(dp0
Vcyn9p0f
p1
I1
sVd7kwref
p2
I1
s.(dp0
Vcyn9p0f
p1
I1
sVd7pa2ag
p2
I1
s.(dp0
Vcyn9p0f
p1
I1
sVd80glyr
p2
I1
s.(dp0
Vcyn9p0f
p1
I1
sVd8dnkds
p2
I1
s.(dp0
Vcyn9p0f
p1
I1
sVd8eb5jq
p2
I1
s.(dp0
Vcyn9p0f
p1
I1
sVd8wqpep
p2
I1
s.(dp0
Vcyn9p0f
p1
I1
sVd8wqpep
p2
I1
s.(dp0
Vcyn9p0f
p1
I1
sVda1p4r6
p2
I1
s.(dp0
Vcyn9p0f
p1
I1
sVda1rlwy
p2
I1
s.(dp0
Vcyn9p0f
p1
I1
sVda76bwj
p2
I1
s.(dp0
Vcyn9p0f
p1
I1
sVda76bwj
p2
I1
s.(dp0
Vcyn9p0f
p1
I1
sVda76bwj
p2
I1
s.(dp0
Vcyn9p0f
p1
I1
sVdactzt2
p2
I1
s.(dp0
Vcyn9p0f
p1
I1
sVdanun9u
p2
I1
s.(dp0
Vcyn9p0f
p1
I1
sVdatei1k
p2
I1
s.(dp0
Vcyn9p0f
p1
I1
sVdavld90
p2
I1
s.(dp0
Vcyn9p0f
p1
I1
sVdb1tr76
p2
I1
s.(dp0
Vcyn9p0f
p1
I1
sVdb2c1yb
p2
I1
s.(dp0
Vcyn9p0f
p1
I1
sVdb7dctu
p2
I1
s.(dp0
Vcyn9p0f
p1
I1
sVdb8wbu5
p2
I1
s.(dp0
Vcyn9p0f
p1
I1
sVdb9a3lo
p2
I1
s.(dp0
Vcyn9p0f
p1
I1
sVdbc0wzx
p2
I1
s.(dp0
Vcy(dp0
Vcyn9p0f
p1
I1
sVdod7s0g
p2
I1
s.