(dp0
Vcypvl1z
p1
I1
s.(dp0
Vcyxq79x
p1
I1
sVcypvl1z
p2
I1
s.(dp0
Vcypvl1z
p1
I1
sVcyz3jy8
p2
I1
s.(dp0
Vcypvl1z
p1
I1
sVczzw9qi
p2
I1
s.(dp0
Vd004z1z
p1
I1
sVcypvl1z
p2
I1
s.(dp0
Vd004z1z
p1
I1
sVcypvl1z
p2
I1
s.(dp0
Vd1dsfbq
p1
I1
sVcypvl1z
p2
I1
s.(dp0
Vcypvl1z
p1
I1
sVd1e097c
p2
I1
s.(dp0
Vcypvl1z
p1
I1
sVd1er6j6
p2
I1
s.(dp0
Vd1ixljx
p1
I1
sVcypvl1z
p2
I1
s.(dp0
Vd2b4jlo
p1
I1
sVcypvl1z
p2
I1
s.(dp0
Vcypvl1z
p1
I1
sVd2kl5nk
p2
I1
s.(dp0
Vcypvl1z
p1
I1
sVd2ptlm0
p2
I1
s.(dp0
Vcypvl1z
p1
I1
sVd2ptlm0
p2
I1
s.(dp0
Vcypvl1z
p1
I1
sVd359dp7
p2
I1
s.(dp0
Vd3bffvg
p1
I1
sVcypvl1z
p2
I1
s.(dp0
Vd3qtgtw
p1
I1
sVcypvl1z
p2
I1
s.(dp0
Vd3t4q9t
p1
I1
sVcypvl1z
p2
I1
s.(dp0
Vcypvl1z
p1
I1
sVd3z09xl
p2
I1
s.(dp0
Vcypvl1z
p1
I1
sVd3z09xl
p2
I1
s.(dp0
Vd4p9aqr
p1
I1
sVcypvl1z
p2
I1
s.(dp0
Vcypvl1z
p1
I1
sVd5gciye
p2
I1
s.(dp0
Vcypvl1z
p1
I1
sVd61a4ge
p2
I1
s.(dp0
Vd68rq3e
p1
I1
sVcypvl1z
p2
I1
s.(dp0
Vd68rq3e
p1
I1
sVcypvl1z
p2
I1
s.(dp0
Vd68rq3e
p1
I1
sVcypvl1z
p2
I1
s.(dp0
Vd68rq3e
p1
I1
sVcypvl1z
p2
I1
s.(dp0
Vcypvl1z
p1
I1
sVd68tiy2
p2
I1
s.(dp0
Vcypvl1z
p1
I1
sVd68tiy2
p2
I1
s.(dp0
Vcypvl1z
p1
I1
sVd691jlb
p2
I1
s.(dp0
Vcypvl1z
p1
I1
sVd691jlb
p2
I1
s.(dp0
Vd6vyn2j
p1
I1
sVcypvl1z
p2
I1
s.(dp0
Vcypvl1z
p1
I1
sVd7ib2sm
p2
I1
s.(dp0
Vd7z2b3x
p1
I1
sVcypvl1z
p2
I1
s.(dp0
Vd89l1j5
p1
I1
sVcypvl1z
p2
I1
s.(dp0
Vcypvl1z
p1
I1
sVd94tsdr
p2
I1
s.(dp0
Vd94xtjh
p1
I1
sVcypvl1z
p2
I1
s.(dp0
Vd9a0ec9
p1
I1
sVcypvl1z
p2
I1
s.(dp0
Vd9o0fb5
p1
I1
sVcypvl1z
p2
I1
s.(dp0
Vda8d4gy
p1
I1
sVcypvl1z
p2
I1
s.(dp0
Vdafcn9g
p1
I1
sVcypvl1z
p2
I1
s.(dp0
Vcypvl1z
p1
I1
sVdatutc3
p2
I1
s.(dp0
Vcypvl1z
p1
I1
sVdbix6y8
p2
I1
s.(dp0
Vdbo6g21
p1
I1
sVcypvl1z
p2
I1
s.(dp0
Vdbs3udv
p1
I1
sVcypvl1z
p2
I1
s.(dp0
Vdbs3udv
p1
I1
sVcypvl1z
p2
I1
s.(dp0
Vdbs3udv
p1
I1
sVcypvl1z
p2
I1
s.(dp0
Vcypvl1z
p1
I1
sVdc0577n
p2
I1
s.(dp0
Vdc8th12
p1
I1
sVcypvl1z
p2
I1
s.(dp0
Vdddw1zi
p1
I1
sVcypvl1z
p2
I1
s.(dp0
Vddepys2
p1
I1
sVcypvl1z
p2
I1
s.(dp0
Vddwo7jo
p1
I1
sVcypvl1z
p2
I1
s.(dp0
Vddwuvgp
p1
I1
sVcypvl1z
p2
I1
s.(dp0
Vde6e96d
p1
I1
sVcypvl1z
p2
I1
s.(dp0
Vderpi7c
p1
I1
sVcypvl1z
p2
I1
s.(dp0
Vcypvl1z
p1
I1
sVdetn4jw
p2
I1
s.(dp0
Vdggr38x
p1
I1
sVcypvl1z
p2
I1
s.(dp0
Vdhv4l5b
p1
I1
sVcypvl1z
p2
I1
s.(dp0
Vcypvl1z
p1
I1
sVdii5n98
p2
I1
s.(dp0
Vcypvl1z
p1
I1
sVdiib7li
p2
I1
s.(dp0
Vdivgllk
p1
I1
sVcypvl1z
p2
I1
s.(dp0
Vdiz1e0c
p1
I1
sVcypvl1z
p2
I1
s.(dp0
Vcypvl1z
p1
I1
sVdj1bqk8
p2
I1
s.(dp0
Vcypvl1z
p1
I1
sVdj9pbgf
p2
I1
s.(dp0
Vcypvl1z
p1
I1
sVdk8cywr
p2
I1
s.