(dp0
Vczt678k
p1
I1
s.(dp0
Vczt678k
p1
I2
s.(dp0
Vczt678k
p1
I1
sVd3tfg7q
p2
I1
s.(dp0
Vczt678k
p1
I1
sVd5tzpnm
p2
I1
s.(dp0
Vczt678k
p1
I1
sVd83tdoy
p2
I1
s.(dp0
Vczt678k
p1
I1
sVdajrmjj
p2
I1
s.(dp0
Vczt678k
p1
I1
sVdb1im85
p2
I1
s.(dp0
Vczt678k
p1
I1
sVdeh3xjk
p2
I1
s.(dp0
Vczt678k
p1
I1
sVdekkh2q
p2
I1
s.(dp0
Vczt678k
p1
I1
sVdekqywm
p2
I1
s.(dp0
Vczt678k
p1
I1
sVdekqywm
p2
I1
s.(dp0
Vczt678k
p1
I1
sVdekuhwp
p2
I1
s.(dp0
Vczt678k
p1
I1
sVdekuhwp
p2
I1
s.(dp0
Vczt678k
p1
I1
sVdekuhwp
p2
I1
s.(dp0
Vczt678k
p1
I1
sVdekuhwp
p2
I1
s.(dp0
Vczt678k
p1
I1
sVdel8b7v
p2
I1
s.(dp0
Vczt678k
p1
I1
sVdel8b7v
p2
I1
s.(dp0
Vczt678k
p1
I1
sVdel8b7v
p2
I1
s.(dp0
Vczt678k
p1
I1
sVdelo25a
p2
I1
s.(dp0
Vczt678k
p1
I1
sVdelo25a
p2
I1
s.(dp0
Vczt678k
p1
I1
sVdfotkzm
p2
I1
s.(dp0
Vczt678k
p1
I1
sVdhyp8t4
p2
I1
s.(dp0
Vczt678k
p1
I1
sVdi8sw2s
p2
I1
s.(dp0
Vczt678k
p1
I1
sVdosdd8k
p2
I1
s.(dp0
Vczt678k
p1
I1
sVdp0zu76
p2
I1
s.