(dp0
Vczoqaos
p1
I1
s.(dp0
Vd03i7nr
p1
I1
sVczoqaos
p2
I1
s.(dp0
Vczoqaos
p1
I1
sVd1hbhwa
p2
I1
s.(dp0
Vczoqaos
p1
I1
sVd1hbhwa
p2
I1
s.(dp0
Vczoqaos
p1
I1
sVd1hnk6m
p2
I1
s.(dp0
Vd1zcjif
p1
I1
sVczoqaos
p2
I1
s.(dp0
Vczoqaos
p1
I1
sVd212ynv
p2
I1
s.(dp0
Vczoqaos
p1
I1
sVd6p6yxp
p2
I1
s.(dp0
Vczoqaos
p1
I1
sVd8j4ftt
p2
I1
s.(dp0
Vdd4buuo
p1
I1
sVczoqaos
p2
I1
s.(dp0
Vde10k9a
p1
I1
sVczoqaos
p2
I1
s.(dp0
Vczoqaos
p1
I1
sVde4w1q1
p2
I1
s.(dp0
Vczoqaos
p1
I1
sVde5s6dx
p2
I1
s.(dp0
Vczoqaos
p1
I1
sVdehbfon
p2
I1
s.(dp0
Vczoqaos
p1
I1
sVdf7ahaq
p2
I1
s.(dp0
Vczoqaos
p1
I1
sVdkn2flq
p2
I1
s.(dp0
Vczoqaos
p1
I1
sVdkv4f57
p2
I1
s.(dp0
Vczoqaos
p1
I1
sVdkv4f57
p2
I1
s.(dp0
Vczoqaos
p1
I1
sVdomnlam
p2
I1
s.