(dp0
Vcynzj6i
p1
I1
s.(dp0
Vcz2wnf8
p1
I1
sVcynzj6i
p2
I1
s.(dp0
Vczbr6l4
p1
I1
sVcynzj6i
p2
I1
s.(dp0
Vd2jmevk
p1
I1
sVcynzj6i
p2
I1
s.(dp0
Vd34kea6
p1
I1
sVcynzj6i
p2
I1
s.(dp0
Vd34kea6
p1
I1
sVcynzj6i
p2
I1
s.(dp0
Vd46nnlp
p1
I1
sVcynzj6i
p2
I1
s.(dp0
Vd7v104c
p1
I1
sVcynzj6i
p2
I1
s.(dp0
Vd9d94ol
p1
I1
sVcynzj6i
p2
I1
s.(dp0
Vd9hityt
p1
I1
sVcynzj6i
p2
I1
s.(dp0
Vd9hityt
p1
I1
sVcynzj6i
p2
I1
s.(dp0
Vd9jpxhw
p1
I1
sVcynzj6i
p2
I1
s.(dp0
Vcynzj6i
p1
I1
sVdag0x13
p2
I1
s.(dp0
Vcynzj6i
p1
I1
sVdb0xyt7
p2
I1
s.(dp0
Vdbnrtob
p1
I1
sVcynzj6i
p2
I1
s.(dp0
Vdd3ikf8
p1
I1
sVcynzj6i
p2
I1
s.(dp0
Vddej049
p1
I1
sVcynzj6i
p2
I1
s.(dp0
Vcynzj6i
p1
I1
sVddt44xl
p2
I1
s.(dp0
Vdeo5y9j
p1
I1
sVcynzj6i
p2
I1
s.(dp0
Vdfb4lav
p1
I1
sVcynzj6i
p2
I1
s.(dp0
Vdfjzlc6
p1
I1
sVcynzj6i
p2
I1
s.(dp0
Vdgw8t07
p1
I1
sVcynzj6i
p2
I1
s.(dp0
Vdgw8t07
p1
I1
sVcynzj6i
p2
I1
s.(dp0
Vdgw8t07
p1
I1
sVcynzj6i
p2
I1
s.(dp0
Vdh5h7lg
p1
I1
sVcynzj6i
p2
I1
s.(dp0
Vdh5h7lg
p1
I1
sVcynzj6i
p2
I1
s.(dp0
Vdhfpy8g
p1
I1
sVcynzj6i
p2
I1
s.(dp0
Vdhfpy8g
p1
I1
sVcynzj6i
p2
I1
s.(dp0
Vdhfpy8g
p1
I1
sVcynzj6i
p2
I1
s.(dp0
Vdid0w4c
p1
I1
sVcynzj6i
p2
I1
s.(dp0
Vdid0w4c
p1
I1
sVcynzj6i
p2
I1
s.(dp0
Vdid0w4c
p1
I1
sVcynzj6i
p2
I1
s.(dp0
Vdilxz2b
p1
I1
sVcynzj6i
p2
I1
s.(dp0
Vdn70s85
p1
I1
sVcynzj6i
p2
I1
s.(dp0
Vdn99qik
p1
I1
sVcynzj6i
p2
I1
s.(dp0
Vdnjjcb2
p1
I1
sVcynzj6i
p2
I1
s.(dp0
Vdnnpkmr
p1
I1
sVcynzj6i
p2
I1
s.