(dp0
Vd4v1oj8
p1
I1
s.(dp0
Vd6awwhj
p1
I1
sVd4v1oj8
p2
I1
s.(dp0
Vd6awwhj
p1
I1
sVd4v1oj8
p2
I1
s.(dp0
Vd6eoyej
p1
I1
sVd4v1oj8
p2
I1
s.(dp0
Vd7qa1pj
p1
I1
sVd4v1oj8
p2
I1
s.(dp0
Vda3ueq5
p1
I1
sVd4v1oj8
p2
I1
s.(dp0
Vdbixn9q
p1
I1
sVd4v1oj8
p2
I1
s.(dp0
Vdc647tk
p1
I1
sVd4v1oj8
p2
I1
s.(dp0
Vdcpv01t
p1
I1
sVd4v1oj8
p2
I1
s.(dp0
Vdcyqv71
p1
I1
sVd4v1oj8
p2
I1
s.(dp0
Vdcyqv71
p1
I1
sVd4v1oj8
p2
I1
s.(dp0
Vdeuyor8
p1
I1
sVd4v1oj8
p2
I1
s.(dp0
Vdg2opwv
p1
I1
sVd4v1oj8
p2
I1
s.(dp0
Vdhc3j7v
p1
I1
sVd4v1oj8
p2
I1
s.(dp0
Vdhc3j7v
p1
I1
sVd4v1oj8
p2
I1
s.(dp0
Vdhc3j7v
p1
I1
sVd4v1oj8
p2
I1
s.(dp0
Vdhc3j7v
p1
I1
sVd4v1oj8
p2
I1
s.(dp0
Vdidwseb
p1
I1
sVd4v1oj8
p2
I1
s.(dp0
Vdjpzlfe
p1
I1
sVd4v1oj8
p2
I1
s.(dp0
Vdk5n7rw
p1
I1
sVd4v1oj8
p2
I1
s.(dp0
Vdk5n7rw
p1
I1
sVd4v1oj8
p2
I1
s.(dp0
Vdk5n7rw
p1
I1
sVd4v1oj8
p2
I1
s.(dp0
Vdk5n7rw
p1
I1
sVd4v1oj8
p2
I1
s.(dp0
Vdk5n7rw
p1
I1
sVd4v1oj8
p2
I1
s.(dp0
Vdk5n7rw
p1
I1
sVd4v1oj8
p2
I1
s.(dp0
Vdk5n7rw
p1
I1
sVd4v1oj8
p2
I1
s.