(dp0
Vcz47e9w
p1
I1
s.(dp0
Vcz47e9w
p1
I1
sVczjkwjj
p2
I1
s.(dp0
Vcz47e9w
p1
I1
sVczl9tg5
p2
I1
s.(dp0
Vcz47e9w
p1
I1
sVczobrz8
p2
I1
s.(dp0
Vd065fij
p1
I1
sVcz47e9w
p2
I1
s.(dp0
Vd065fij
p1
I1
sVcz47e9w
p2
I1
s.(dp0
Vcz47e9w
p1
I1
sVd0annkv
p2
I1
s.(dp0
Vcz47e9w
p1
I1
sVd0annkv
p2
I1
s.(dp0
Vcz47e9w
p1
I1
sVd0l1rpz
p2
I1
s.(dp0
Vcz47e9w
p1
I1
sVd0l7nnw
p2
I1
s.(dp0
Vcz47e9w
p1
I1
sVd14rd8q
p2
I1
s.(dp0
Vcz47e9w
p1
I1
sVd14rd8q
p2
I1
s.(dp0
Vd17sofk
p1
I1
sVcz47e9w
p2
I1
s.(dp0
Vd17sofk
p1
I1
sVcz47e9w
p2
I1
s.(dp0
Vcz47e9w
p1
I1
sVd1ewfkm
p2
I1
s.(dp0
Vcz47e9w
p1
I1
sVd1gonlo
p2
I1
s.(dp0
Vcz47e9w
p1
I1
sVd1jdje0
p2
I1
s.(dp0
Vcz47e9w
p1
I1
sVd29lg2r
p2
I1
s.(dp0
Vcz47e9w
p1
I1
sVd29lg2r
p2
I1
s.(dp0
Vcz47e9w
p1
I1
sVd29lir9
p2
I1
s.(dp0
Vcz47e9w
p1
I1
sVd29lir9
p2
I1
s.(dp0
Vcz47e9w
p1
I1
sVd2c1k9r
p2
I1
s.(dp0
Vcz47e9w
p1
I1
sVd2wirih
p2
I1
s.(dp0
Vcz47e9w
p1
I1
sVd305jxe
p2
I1
s.(dp0
Vd39vthm
p1
I1
sVcz47e9w
p2
I1
s.(dp0
Vcz47e9w
p1
I1
sVd3jbi5r
p2
I1
s.(dp0
Vcz47e9w
p1
I1
sVd3r67uw
p2
I1
s.(dp0
Vcz47e9w
p1
I1
sVd3r7l9i
p2
I1
s.(dp0
Vcz47e9w
p1
I1
sVd3r7l9i
p2
I1
s.(dp0
Vcz47e9w
p1
I1
sVd3r7l9i
p2
I1
s.(dp0
Vcz47e9w
p1
I1
sVd3r7l9i
p2
I1
s.(dp0
Vcz47e9w
p1
I1
sVd3r7l9i
p2
I1
s.(dp0
Vcz47e9w
p1
I1
sVd3r7l9i
p2
I1
s.(dp0
Vcz47e9w
p1
I1
sVd3r7l9i
p2
I1
s.(dp0
Vcz47e9w
p1
I1
sVd3r7l9i
p2
I1
s.(dp0
Vcz47e9w
p1
I1
sVd3r7l9i
p2
I1
s.(dp0
Vd3sg76l
p1
I1
sVcz47e9w
p2
I1
s.(dp0
Vd3sjq69
p1
I1
sVcz47e9w
p2
I1
s.(dp0
Vcz47e9w
p1
I1
sVd4lgrgr
p2
I1
s.(dp0
Vcz47e9w
p1
I1
sVd59hkqw
p2
I1
s.(dp0
Vd5kaues
p1
I1
sVcz47e9w
p2
I1
s.(dp0
Vcz47e9w
p1
I1
sVd6ecryn
p2
I1
s.(dp0
Vd6l4nmx
p1
I1
sVcz47e9w
p2
I1
s.(dp0
Vd6l4nmx
p1
I1
sVcz47e9w
p2
I1
s.(dp0
Vcz47e9w
p1
I1
sVd72ngpv
p2
I1
s.(dp0
Vcz47e9w
p1
I1
sVd7rtxtp
p2
I1
s.(dp0
Vcz47e9w
p1
I1
sVd7rtxtp
p2
I1
s.(dp0
Vcz47e9w
p1
I1
sVd872xj8
p2
I1
s.(dp0
Vcz47e9w
p1
I1
sVd8743k1
p2
I1
s.(dp0
Vcz47e9w
p1
I1
sVd877m2u
p2
I1
s.(dp0
Vcz47e9w
p1
I1
sVd877m2u
p2
I1
s.(dp0
Vcz47e9w
p1
I1
sVd877m2u
p2
I1
s.(dp0
Vcz47e9w
p1
I1
sVd8792qm
p2
I1
s.(dp0
Vcz47e9w
p1
I1
sVd87s52y
p2
I1
s.(dp0
Vcz47e9w
p1
I1
sVd87s52y
p2
I1
s.(dp0
Vcz47e9w
p1
I1
sVd87s52y
p2
I1
s.(dp0
Vcz47e9w
p1
I1
sVd87s52y
p2
I1
s.(dp0
Vcz47e9w
p1
I1
sVd8hsbvm
p2
I1
s.(dp0
Vcz47e9w
p1
I1
sVd8hsh4d
p2
I1
s.(dp0
Vd8j2r8d
p1
I1
sVcz47e9w
p2
I1
s.(dp0
Vcz47e9w
p1
I1
sVd9l5pot
p2
I1
s.(dp0
Vcz47e9w
p1
I1
sVd9onnbx
p2
I1
s.(dp0
Vda7kix6
p1
I1
sVcz47e9w
p2
I1
s.(dp0
Vcz47e9w
p1
I1
sVda8so8y
p2
I1
s.(dp0
Vcz47e9w
p1
I1
sVdamd3hg
p2
I1
s.(dp0
Vcz47e9w
p1
I1
sVdb02wix
p2
I1
s.(dp0
Vcz47e9w
p1
I1
sVdb43kij
p2
I1
s.(dp0
Vcz47e9w
p1
I1
sVdbn74k9
p2
I1
s.(dp0
Vcz47e9w
p1
I1
sVdbn74k9
p2
I1
s.(dp0
Vcz47e9w
p1
I1
sVdbso9gb
p2
I1
s.(dp0
Vdbxl6xw
p1
I1
sVcz47e9w
p2
I1
s.(dp0
Vdc1oxn0
p1
I1
sVcz47e9w
p2
I1
s.(dp0
Vcz47e9w
p1
I1
sVdc9brow
p2
I1
s.(dp0
Vcz47e9w
p1
I1
sVdck87ab
p2
I1
s.(dp0
Vcz47e9w
p1
I1
sVdcmzbft
p2
I1
s.(dp0
Vcz47e9w
p1
I1
sVdcmzbft
p2
I1
s.(dp0
Vcz47e9w
p1
I1
sVddcm4u4
p2
I1
s.(dp0
Vcz47e9w
p1
I1
sVddrc0qg
p2
I1
s.(dp0
Vcz47e9w
p1
I1
sVdeh8uii
p2
I1
s.(dp0
Vcz47e9w
p1
I1
sVdeh8uii
p2
I1
s.(dp0
Vcz47e9w
p1
I1
sVdeh8uii
p2
I1
s.(dp0
Vcz47e9w
p1
I1
sVdeh9rts
p2
I1
s.(dp0
Vcz47e9w
p1
I1
sVdehasyr
p2
I1
s.(dp0
Vcz47e9w
p1
I1
sVdf9zthl
p2
I1
s.(dp0
Vcz47e9w
p1
I1
sVdfdqw8g
p2
I1
s.(dp0
Vcz47e9w
p1
I1
sVdfdqw8g
p2
I1
s.(dp0
Vcz47e9w
p1
I1
sVdfdr3lc
p2
I1
s.(dp0
Vcz47e9w
p1
I1
sVdfdz2k2
p2
I1
s.(dp0
Vcz47e9w
p1
I1
sVdfe0egm
p2
I1
s.(dp0
Vcz47e9w
p1
I1
sVdfe1bnz
p2
I1
s.(dp0
Vcz47e9w
p1
I1
sVdfe2yd9
p2
I1
s.(dp0
Vcz47e9w
p1
I1
sVdfe3fef
p2
I1
s.(dp0
Vcz47e9w
p1
I1
sVdgkrxfg
p2
I1
s.(dp0
Vcz47e9w
p1
I1
sVdglhb6x
p2
I1
s.(dp0
Vcz47e9w
p1
I1
sVdgrftfw
p2
I1
s.(dp0
Vcz47e9w
p1
I1
sVdgrftfw
p2
I1
s.(dp0
Vcz47e9w
p1
I1
sVdgrftfw
p2
I1
s.(dp0
Vcz47e9w
p1
I1
sVdgrftfw
p2
I1
s.(dp0
Vcz47e9w
p1
I1
sVdgtt3c7
p2
I1
s.(dp0
Vdhhpfnv
p1
I1
sVcz47e9w
p2
I1
s.(dp0
Vdhsj3fc
p1
I1
sVcz47e9w
p2
I1
s.(dp0
Vcz47e9w
p1
I1
sVdilmtlm
p2
I1
s.(dp0
Vcz47e9w
p1
I1
sVdje85pp
p2
I1
s.(dp0
Vcz47e9w
p1
I1
sVdje85pp
p2
I1
s.(dp0
Vcz47e9w
p1
I1
sVdje8r1y
p2
I1
s.(dp0
Vcz47e9w
p1
I1
sVdjfmnq6
p2
I1
s.(dp0
Vcz47e9w
p1
I1
sVdjfmnq6
p2
I1
s.(dp0
Vcz47e9w
p1
I1
sVdjjpgfx
p2
I1
s.(dp0
Vcz(dp0
Vcz47e9w
p1
I1
sVdol2sql
p2
I1
s.