(dp0
Vcyi3kuv
p1
I1
s.(dp0
Vcyi3kuv
p1
I1
sVcyijzk0
p2
I1
s.(dp0
Vcyjdvmp
p1
I1
sVcyi3kuv
p2
I1
s.(dp0
Vcyi3kuv
p1
I1
sVcykg3fu
p2
I1
s.(dp0
Vcykozob
p1
I1
sVcyi3kuv
p2
I1
s.(dp0
Vcyi3kuv
p1
I1
sVcyku4i1
p2
I1
s.(dp0
Vcym42ux
p1
I1
sVcyi3kuv
p2
I1
s.(dp0
Vcyp0tm8
p1
I1
sVcyi3kuv
p2
I1
s.(dp0
Vcyp38r8
p1
I1
sVcyi3kuv
p2
I1
s.(dp0
Vcypd1v7
p1
I1
sVcyi3kuv
p2
I1
s.(dp0
Vcypne4o
p1
I1
sVcyi3kuv
p2
I1
s.(dp0
Vcyi3kuv
p1
I1
sVcyqramx
p2
I1
s.(dp0
Vcyri8cx
p1
I1
sVcyi3kuv
p2
I1
s.(dp0
Vcyi3kuv
p1
I1
sVcysam7h
p2
I1
s.(dp0
Vcyv1oz3
p1
I1
sVcyi3kuv
p2
I1
s.(dp0
Vcyi3kuv
p1
I1
sVcywpxvs
p2
I1
s.(dp0
Vcyi3kuv
p1
I1
sVcyy5gy0
p2
I1
s.(dp0
Vcyi3kuv
p1
I1
sVcyymhoi
p2
I1
s.(dp0
Vcyi3kuv
p1
I1
sVcyymhoi
p2
I1
s.(dp0
Vcyzl8qf
p1
I1
sVcyi3kuv
p2
I1
s.(dp0
Vcz0mk6b
p1
I1
sVcyi3kuv
p2
I1
s.(dp0
Vcz1u0hs
p1
I1
sVcyi3kuv
p2
I1
s.(dp0
Vcyi3kuv
p1
I1
sVcz22pyl
p2
I1
s.(dp0
Vcyi3kuv
p1
I1
sVcz2pceu
p2
I1
s.(dp0
Vcyi3kuv
p1
I1
sVcz359c0
p2
I1
s.(dp0
Vcz3zz71
p1
I1
sVcyi3kuv
p2
I1
s.(dp0
Vcyi3kuv
p1
I1
sVcz5xnuc
p2
I1
s.(dp0
Vcz7hlrc
p1
I1
sVcyi3kuv
p2
I1
s.(dp0
Vcz84ekm
p1
I1
sVcyi3kuv
p2
I1
s.(dp0
Vcz9kpo9
p1
I1
sVcyi3kuv
p2
I1
s.(dp0
Vcyi3kuv
p1
I1
sVcze5s3k
p2
I1
s.(dp0
Vczec7th
p1
I1
sVcyi3kuv
p2
I1
s.(dp0
Vcyi3kuv
p1
I1
sVczeesx2
p2
I1
s.(dp0
Vczeqk90
p1
I1
sVcyi3kuv
p2
I1
s.(dp0
Vczercxg
p1
I1
sVcyi3kuv
p2
I1
s.(dp0
Vcyi3kuv
p1
I1
sVczf2l2r
p2
I1
s.(dp0
Vcyi3kuv
p1
I1
sVczfzkht
p2
I1
s.(dp0
Vcyi3kuv
p1
I1
sVczhpmyw
p2
I1
s.(dp0
Vczhrt9i
p1
I1
sVcyi3kuv
p2
I1
s.(dp0
Vcyi3kuv
p1
I1
sVczhwx48
p2
I1
s.(dp0
Vczja8dr
p1
I1
sVcyi3kuv
p2
I1
s.(dp0
Vczjvkin
p1
I1
sVcyi3kuv
p2
I1
s.(dp0
Vczk2wh6
p1
I1
sVcyi3kuv
p2
I1
s.(dp0
Vcyi3kuv
p1
I1
sVczkkese
p2
I1
s.(dp0
Vcyi3kuv
p1
I1
sVczltlax
p2
I1
s.(dp0
Vczovifu
p1
I1
sVcyi3kuv
p2
I1
s.(dp0
Vcyi3kuv
p1
I1
sVczqcqss
p2
I1
s.(dp0
Vczr43ld
p1
I1
sVcyi3kuv
p2
I1
s.(dp0
Vcyi3kuv
p1
I1
sVczr45pk
p2
I1
s.(dp0
Vczu9uwh
p1
I1
sVcyi3kuv
p2
I1
s.(dp0
Vczw2vv7
p1
I1
sVcyi3kuv
p2
I1
s.(dp0
Vcyi3kuv
p1
I1
sVczw3bg6
p2
I1
s.(dp0
Vcyi3kuv
p1
I1
sVczx2kis
p2
I1
s.(dp0
Vczx7237
p1
I1
sVcyi3kuv
p2
I1
s.(dp0
Vczybpea
p1
I1
sVcyi3kuv
p2
I1
s.(dp0
Vcyi3kuv
p1
I1
sVd017wxv
p2
I1
s.(dp0
Vd01nmce
p1
I1
sVcyi3kuv
p2
I1
s.(dp0
Vcyi3kuv
p1
I1
sVd0284dd
p2
I1
s.(dp0
Vcyi3kuv
p1
I1
sVd02n3up
p2
I1
s.(dp0
Vcyi3kuv
p1
I1
sVd03teht
p2
I1
s.(dp0
Vd05e42w
p1
I1
sVcyi3kuv
p2
I1
s.(dp0
Vcyi3kuv
p1
I1
sVd086bzp
p2
I1
s.(dp0
Vd0aejed
p1
I1
sVcyi3kuv
p2
I1
s.(dp0
Vd0brbfs
p1
I1
sVcyi3kuv
p2
I1
s.(dp0
Vcyi3kuv
p1
I1
sVd0d9lwg
p2
I1
s.(dp0
Vcyi3kuv
p1
I1
sVd0fr0hv
p2
I1
s.(dp0
Vcyi3kuv
p1
I1
sVd0g55ec
p2
I1
s.(dp0
Vcyi3kuv
p1
I1
sVd0gvp90
p2
I1
s.(dp0
Vd0h7qj3
p1
I1
sVcyi3kuv
p2
I1
s.(dp0
Vd0h7qj3
p1
I1
sVcyi3kuv
p2
I1
s.(dp0
Vcyi3kuv
p1
I1
sVd0ios6m
p2
I1
s.(dp0
Vd0iuux5
p1
I1
sVcyi3kuv
p2
I1
s.(dp0
Vd0ji758
p1
I1
sVcyi3kuv
p2
I1
s.(dp0
Vcyi3kuv
p1
I1
sVd0k8k2h
p2
I1
s.(dp0
Vd0l7jgu
p1
I1
sVcyi3kuv
p2
I1
s.(dp0
Vd0l7jgu
p1
I1
sVcyi3kuv
p2
I1
s.(dp0
Vd0l7jgu
p1
I1
sVcyi3kuv
p2
I1
s.(dp0
Vd0l8c6h
p1
I1
sVcyi3kuv
p2
I1
s.(dp0
Vd0llgyc
p1
I1
sVcyi3kuv
p2
I1
s.(dp0
Vcyi3kuv
p1
I1
sVd0m97ql
p2
I1
s.(dp0
Vd0p65rg
p1
I1
sVcyi3kuv
p2
I1
s.(dp0
Vcyi3kuv
p1
I1
sVd0r22zu
p2
I1
s.(dp0
Vd0t8ll4
p1
I1
sVcyi3kuv
p2
I1
s.(dp0
Vcyi3kuv
p1
I1
sVd0tl0oq
p2
I1
s.(dp0
Vcyi3kuv
p1
I1
sVd0tx1zq
p2
I1
s.(dp0
Vcyi3kuv
p1
I1
sVd0zd8oz
p2
I1
s.(dp0
Vcyi3kuv
p1
I1
sVd107gs0
p2
I1
s.(dp0
Vcyi3kuv
p1
I1
sVd10xtev
p2
I1
s.(dp0
Vd128o63
p1
I1
sVcyi3kuv
p2
I1
s.(dp0
Vcyi3kuv
p1
I1
sVd13e8ln
p2
I1
s.(dp0
Vd140jn9
p1
I1
sVcyi3kuv
p2
I1
s.(dp0
Vcyi3kuv
p1
I1
sVd14726k
p2
I1
s.(dp0
Vcyi3kuv
p1
I1
sVd1473ub
p2
I1
s.(dp0
Vcyi3kuv
p1
I1
sVd14k1li
p2
I1
s.(dp0
Vd15jcto
p1
I1
sVcyi3kuv
p2
I1
s.(dp0
Vd17qhj4
p1
I1
sVcyi3kuv
p2
I1
s.(dp0
Vd185228
p1
I1
sVcyi3kuv
p2
I1
s.(dp0
Vd1b7sc0
p1
I1
sVcyi3kuv
p2
I1
s.(dp0
Vd1btwvq
p1
I1
sVcyi3kuv
p2
I1
s.(dp0
Vd1bw74x
p1
I1
sVcyi3kuv
p2
I1
s.(dp0
Vcyi3kuv
p1
I1
sVd1cdi6o
p2
I1
s.(dp0
Vd1dok1a
p1
I1
sVcyi3kuv
p2
I1
s.(dp0
Vd1eklms
p1
I1
sVcyi3kuv
p2
I1
s.(dp0
Vcyi3kuv
p1
I1
sVd1fey7j
p2
I1
s.(dp0
Vd1isive
p1
I1
sVcyi3kuv
p2
I1
s.(dp0
Vcyi3kuv
p1
I1
sVd1jiq9z
p2
I1
s.(dp0
Vd1o2ttx
p1
I1
sVcyi3kuv
p2
I1
s.(dp0
Vcyi3kuv
p1
I1
sVd1pj9my
p2
I1
s.(dp0
Vcy(dp0
Vdp58t7g
p1
I1
sVcyi3kuv
p2
I1
s.