(dp0
Vcykn9lm
p1
I1
s.(dp0
Vcykn9lm
p1
I1
sVcylfcou
p2
I1
s.(dp0
Vcykn9lm
p1
I1
sVcylfdwp
p2
I1
s.(dp0
Vcykn9lm
p1
I1
sVcys5980
p2
I1
s.(dp0
Vcykn9lm
p1
I1
sVcyw0qnf
p2
I1
s.(dp0
Vcykn9lm
p1
I1
sVcywdiwj
p2
I1
s.(dp0
Vcykn9lm
p1
I1
sVcyww23e
p2
I1
s.(dp0
Vcykn9lm
p1
I1
sVcyww23e
p2
I1
s.(dp0
Vcykn9lm
p1
I1
sVcyww23e
p2
I1
s.(dp0
Vcykn9lm
p1
I1
sVcyww23e
p2
I1
s.(dp0
Vcykn9lm
p1
I1
sVcyxjo4d
p2
I1
s.(dp0
Vcykn9lm
p1
I1
sVcyxjo4d
p2
I1
s.(dp0
Vcykn9lm
p1
I1
sVcyzxm7b
p2
I1
s.(dp0
Vcykn9lm
p1
I1
sVcyzxm7b
p2
I1
s.(dp0
Vcz4il5r
p1
I1
sVcykn9lm
p2
I1
s.(dp0
Vczzkdrr
p1
I1
sVcykn9lm
p2
I1
s.(dp0
Vd01gz7u
p1
I1
sVcykn9lm
p2
I1
s.(dp0
Vd01gz7u
p1
I1
sVcykn9lm
p2
I1
s.(dp0
Vd0i7hnt
p1
I1
sVcykn9lm
p2
I1
s.(dp0
Vd0l7q98
p1
I1
sVcykn9lm
p2
I1
s.(dp0
Vcykn9lm
p1
I1
sVd1jjodx
p2
I1
s.(dp0
Vcykn9lm
p1
I1
sVd1x4wnf
p2
I1
s.(dp0
Vcykn9lm
p1
I1
sVd2f827z
p2
I1
s.(dp0
Vcykn9lm
p1
I1
sVd332kwy
p2
I1
s.(dp0
Vcykn9lm
p1
I1
sVd37m360
p2
I1
s.(dp0
Vcykn9lm
p1
I1
sVd3v54ww
p2
I1
s.(dp0
Vcykn9lm
p1
I1
sVd4smrr5
p2
I1
s.(dp0
Vcykn9lm
p1
I1
sVd521ydr
p2
I1
s.(dp0
Vcykn9lm
p1
I1
sVd5ft9ix
p2
I1
s.(dp0
Vcykn9lm
p1
I1
sVd5rs5ut
p2
I1
s.(dp0
Vcykn9lm
p1
I1
sVd673e00
p2
I1
s.(dp0
Vd6sy83y
p1
I1
sVcykn9lm
p2
I1
s.(dp0
Vcykn9lm
p1
I1
sVd6yosky
p2
I1
s.(dp0
Vcykn9lm
p1
I1
sVd700iub
p2
I1
s.(dp0
Vcykn9lm
p1
I1
sVd7vhmq0
p2
I1
s.(dp0
Vcykn9lm
p1
I1
sVd7vhmq0
p2
I1
s.(dp0
Vcykn9lm
p1
I1
sVd80q4s3
p2
I1
s.(dp0
Vd8dvl5z
p1
I1
sVcykn9lm
p2
I1
s.(dp0
Vcykn9lm
p1
I1
sVd8e6677
p2
I1
s.(dp0
Vcykn9lm
p1
I1
sVd8e6677
p2
I1
s.(dp0
Vcykn9lm
p1
I1
sVd8ip5ez
p2
I1
s.(dp0
Vcykn9lm
p1
I1
sVd8un85x
p2
I1
s.(dp0
Vcykn9lm
p1
I1
sVda30sw3
p2
I1
s.(dp0
Vcykn9lm
p1
I1
sVda39g8h
p2
I1
s.(dp0
Vcykn9lm
p1
I1
sVdafcsg8
p2
I1
s.(dp0
Vdafecbl
p1
I1
sVcykn9lm
p2
I1
s.(dp0
Vdas7q0n
p1
I1
sVcykn9lm
p2
I1
s.(dp0
Vdbm1dve
p1
I1
sVcykn9lm
p2
I1
s.(dp0
Vcykn9lm
p1
I1
sVdc7w0k4
p2
I1
s.(dp0
Vcykn9lm
p1
I1
sVdcvxhrm
p2
I1
s.(dp0
Vcykn9lm
p1
I1
sVdd9wg4w
p2
I1
s.(dp0
Vcykn9lm
p1
I1
sVdd9xnwc
p2
I1
s.(dp0
Vcykn9lm
p1
I1
sVdd9xnwc
p2
I1
s.(dp0
Vcykn9lm
p1
I1
sVdd9xnwc
p2
I1
s.(dp0
Vcykn9lm
p1
I1
sVddf8tfe
p2
I1
s.(dp0
Vcykn9lm
p1
I1
sVddf8xc0
p2
I1
s.(dp0
Vcykn9lm
p1
I1
sVddf8xc0
p2
I1
s.(dp0
Vcykn9lm
p1
I1
sVddoxy0d
p2
I1
s.(dp0
Vcykn9lm
p1
I1
sVddq0ftc
p2
I1
s.(dp0
Vcykn9lm
p1
I1
sVddqfil7
p2
I1
s.(dp0
Vcykn9lm
p1
I1
sVddqfil7
p2
I1
s.(dp0
Vcykn9lm
p1
I1
sVddqfil7
p2
I1
s.(dp0
Vddurdb6
p1
I1
sVcykn9lm
p2
I1
s.(dp0
Vcykn9lm
p1
I1
sVddxcmtj
p2
I1
s.(dp0
Vcykn9lm
p1
I1
sVddxcmtj
p2
I1
s.(dp0
Vcykn9lm
p1
I1
sVde1elrf
p2
I1
s.(dp0
Vde7jb21
p1
I1
sVcykn9lm
p2
I1
s.(dp0
Vde7jb21
p1
I1
sVcykn9lm
p2
I1
s.(dp0
Vde8281h
p1
I1
sVcykn9lm
p2
I1
s.(dp0
Vcykn9lm
p1
I1
sVdeo38q8
p2
I1
s.(dp0
Vcykn9lm
p1
I1
sVdeu4hgf
p2
I1
s.(dp0
Vcykn9lm
p1
I1
sVdfd3534
p2
I1
s.(dp0
Vcykn9lm
p1
I1
sVdfomshp
p2
I1
s.(dp0
Vcykn9lm
p1
I1
sVdfomshp
p2
I1
s.(dp0
Vcykn9lm
p1
I1
sVdfqz85w
p2
I1
s.(dp0
Vcykn9lm
p1
I1
sVdfwaiwe
p2
I1
s.(dp0
Vcykn9lm
p1
I1
sVdg7zkir
p2
I1
s.(dp0
Vcykn9lm
p1
I1
sVdgb4es4
p2
I1
s.(dp0
Vcykn9lm
p1
I1
sVdgjf28d
p2
I1
s.(dp0
Vcykn9lm
p1
I1
sVdgx94nd
p2
I1
s.(dp0
Vcykn9lm
p1
I1
sVdgyjyw5
p2
I1
s.(dp0
Vcykn9lm
p1
I1
sVdhb9vqx
p2
I1
s.(dp0
Vcykn9lm
p1
I1
sVdhb9vqx
p2
I1
s.(dp0
Vcykn9lm
p1
I1
sVdi48w1t
p2
I1
s.(dp0
Vdiexvy1
p1
I1
sVcykn9lm
p2
I1
s.(dp0
Vcykn9lm
p1
I1
sVdig0rgg
p2
I1
s.(dp0
Vcykn9lm
p1
I1
sVdj3otfv
p2
I1
s.(dp0
Vcykn9lm
p1
I1
sVdjcq1ru
p2
I1
s.(dp0
Vcykn9lm
p1
I1
sVdjkjoqg
p2
I1
s.(dp0
Vdkfjumd
p1
I1
sVcykn9lm
p2
I1
s.(dp0
Vdkfjumd
p1
I1
sVcykn9lm
p2
I1
s.(dp0
Vcykn9lm
p1
I1
sVdkyhrdo
p2
I1
s.(dp0
Vcykn9lm
p1
I1
sVdmfxvun
p2
I1
s.(dp0
Vcykn9lm
p1
I1
sVdmjmlrb
p2
I1
s.(dp0
Vcykn9lm
p1
I1
sVdmxairi
p2
I1
s.(dp0
Vcykn9lm
p1
I1
sVdn8nvgp
p2
I1
s.(dp0
Vcykn9lm
p1
I1
sVdnju5ck
p2
I1
s.(dp0
Vcykn9lm
p1
I1
sVdnv4pt2
p2
I1
s.(dp0
Vcykn9lm
p1
I1
sVdnyqeqm
p2
I1
s.(dp0
Vcykn9lm
p1
I1
sVdo98scn
p2
I1
s.(dp0
Vcykn9lm
p1
I1
sVdov5rbg
p2
I1
s.