(dp0
Vcynvimj
p1
I1
s.(dp0
Vczmyhk5
p1
I1
sVcynvimj
p2
I1
s.(dp0
Vd135sfn
p1
I1
sVcynvimj
p2
I1
s.(dp0
Vcynvimj
p1
I1
sVddqp370
p2
I1
s.(dp0
Vcynvimj
p1
I1
sVdft5zih
p2
I1
s.(dp0
Vdh7b3p6
p1
I1
sVcynvimj
p2
I1
s.(dp0
Vcynvimj
p1
I1
sVdk67jyy
p2
I1
s.(dp0
Vdkmklpa
p1
I1
sVcynvimj
p2
I1
s.