(dp0
Vczhn3dc
p1
I1
s.(dp0
Vd5u5s5z
p1
I1
sVczhn3dc
p2
I1
s.(dp0
Vd5u5s5z
p1
I1
sVczhn3dc
p2
I1
s.(dp0
Vd69dvry
p1
I1
sVczhn3dc
p2
I1
s.(dp0
Vczhn3dc
p1
I1
sVd7z68d8
p2
I1
s.(dp0
Vd8q4pwz
p1
I1
sVczhn3dc
p2
I1
s.(dp0
Vd8s2ige
p1
I1
sVczhn3dc
p2
I1
s.(dp0
Vdcdiw7h
p1
I1
sVczhn3dc
p2
I1
s.(dp0
Vdehdisx
p1
I1
sVczhn3dc
p2
I1
s.(dp0
Vczhn3dc
p1
I1
sVdejny0d
p2
I1
s.(dp0
Vczhn3dc
p1
I1
sVdihd0ud
p2
I1
s.