(dp0
Vcyqkrac
p1
I1
s.(dp0
Vcyqkrac
p1
I1
sVczfkj4p
p2
I1
s.(dp0
Vcyqkrac
p1
I1
sVd1ccmrc
p2
I1
s.(dp0
Vcyqkrac
p1
I1
sVd1cgpl8
p2
I1
s.(dp0
Vcyqkrac
p1
I1
sVd1pcc0p
p2
I1
s.(dp0
Vd23ntvb
p1
I1
sVcyqkrac
p2
I1
s.(dp0
Vcyqkrac
p1
I1
sVd30i5wn
p2
I1
s.(dp0
Vcyqkrac
p1
I1
sVd31y6dt
p2
I1
s.(dp0
Vcyqkrac
p1
I1
sVd3zzevr
p2
I1
s.(dp0
Vcyqkrac
p1
I1
sVd4h0rc5
p2
I1
s.(dp0
Vcyqkrac
p1
I1
sVd6i9eof
p2
I1
s.(dp0
Vcyqkrac
p1
I1
sVd7cwyzp
p2
I1
s.(dp0
Vcyqkrac
p1
I1
sVd8gmd5e
p2
I1
s.(dp0
Vcyqkrac
p1
I1
sVd9i7fad
p2
I1
s.(dp0
Vdarjytu
p1
I1
sVcyqkrac
p2
I1
s.(dp0
Vcyqkrac
p1
I1
sVdasnenf
p2
I1
s.(dp0
Vcyqkrac
p1
I1
sVdasnenf
p2
I1
s.(dp0
Vcyqkrac
p1
I1
sVdawogn9
p2
I1
s.(dp0
Vcyqkrac
p1
I1
sVdb40ryj
p2
I1
s.(dp0
Vcyqkrac
p1
I1
sVdbgh4pz
p2
I1
s.(dp0
Vcyqkrac
p1
I1
sVdhxhwuz
p2
I1
s.(dp0
Vcyqkrac
p1
I1
sVdiewji8
p2
I1
s.