(dp0
Vcyqd8r3
p1
I1
s.(dp0
Vcyqd8r3
p1
I1
sVd1jyq4l
p2
I1
s.(dp0
Vcyqd8r3
p1
I1
sVd1r4zft
p2
I1
s.(dp0
Vd21akes
p1
I1
sVcyqd8r3
p2
I1
s.(dp0
Vcyqd8r3
p1
I1
sVd2a4uv2
p2
I1
s.(dp0
Vcyqd8r3
p1
I1
sVd2a4uv2
p2
I1
s.(dp0
Vd59l1f6
p1
I1
sVcyqd8r3
p2
I1
s.(dp0
Vd5dnt2s
p1
I1
sVcyqd8r3
p2
I1
s.(dp0
Vcyqd8r3
p1
I1
sVd8h64f8
p2
I1
s.(dp0
Vd90n41o
p1
I1
sVcyqd8r3
p2
I1
s.(dp0
Vcyqd8r3
p1
I1
sVd9iwi8b
p2
I1
s.(dp0
Vcyqd8r3
p1
I1
sVdav9mwq
p2
I1
s.(dp0
Vcyqd8r3
p1
I1
sVdav9mwq
p2
I1
s.(dp0
Vcyqd8r3
p1
I1
sVdb4361x
p2
I1
s.(dp0
Vcyqd8r3
p1
I1
sVdbahgwq
p2
I1
s.(dp0
Vdc6klzb
p1
I1
sVcyqd8r3
p2
I1
s.(dp0
Vdcaejfr
p1
I1
sVcyqd8r3
p2
I1
s.(dp0
Vcyqd8r3
p1
I1
sVddyirn4
p2
I1
s.(dp0
Vcyqd8r3
p1
I1
sVdeajzne
p2
I1
s.(dp0
Vcyqd8r3
p1
I1
sVdevm9uz
p2
I1
s.(dp0
Vcyqd8r3
p1
I1
sVdevm9uz
p2
I1
s.(dp0
Vcyqd8r3
p1
I1
sVdf83zdq
p2
I1
s.(dp0
Vdffvt2v
p1
I1
sVcyqd8r3
p2
I1
s.(dp0
Vdffvt2v
p1
I1
sVcyqd8r3
p2
I1
s.(dp0
Vcyqd8r3
p1
I1
sVdgcztlu
p2
I1
s.(dp0
Vcyqd8r3
p1
I1
sVdggvjp4
p2
I1
s.(dp0
Vdghhuia
p1
I1
sVcyqd8r3
p2
I1
s.(dp0
Vcyqd8r3
p1
I1
sVdgs0sh5
p2
I1
s.(dp0
Vdgvs00l
p1
I1
sVcyqd8r3
p2
I1
s.(dp0
Vcyqd8r3
p1
I1
sVdhfz5wo
p2
I1
s.(dp0
Vdhoyb21
p1
I1
sVcyqd8r3
p2
I1
s.(dp0
Vcyqd8r3
p1
I1
sVdj53m8t
p2
I1
s.(dp0
Vcyqd8r3
p1
I1
sVdj9na3g
p2
I1
s.