(dp0
Vcyi3u4r
p1
I1
s.(dp0
Vcyi3u4r
p1
I1
sVcyi8ilf
p2
I1
s.(dp0
Vcyi3u4r
p1
I1
sVcyi8ilf
p2
I1
s.(dp0
Vcyja2by
p1
I1
sVcyi3u4r
p2
I1
s.(dp0
Vcyjja7d
p1
I1
sVcyi3u4r
p2
I1
s.(dp0
Vcyjuw6r
p1
I1
sVcyi3u4r
p2
I1
s.(dp0
Vcyi3u4r
p1
I1
sVcyk5aar
p2
I1
s.(dp0
Vcyi3u4r
p1
I1
sVcykcit1
p2
I1
s.(dp0
Vcyi3u4r
p1
I1
sVcykdv8a
p2
I1
s.(dp0
Vcyi3u4r
p1
I1
sVcyklo9j
p2
I1
s.(dp0
Vcykvzjh
p1
I1
sVcyi3u4r
p2
I1
s.(dp0
Vcylst1k
p1
I1
sVcyi3u4r
p2
I1
s.(dp0
Vcymqn01
p1
I1
sVcyi3u4r
p2
I1
s.(dp0
Vcymtowr
p1
I1
sVcyi3u4r
p2
I1
s.(dp0
Vcyi3u4r
p1
I1
sVcyn1175
p2
I1
s.(dp0
Vcyi3u4r
p1
I1
sVcynf8yu
p2
I1
s.(dp0
Vcyo3kpu
p1
I1
sVcyi3u4r
p2
I1
s.(dp0
Vcyppqyq
p1
I1
sVcyi3u4r
p2
I1
s.(dp0
Vcyptj8a
p1
I1
sVcyi3u4r
p2
I1
s.(dp0
Vcyptj8a
p1
I1
sVcyi3u4r
p2
I1
s.(dp0
Vcyq8e4k
p1
I1
sVcyi3u4r
p2
I1
s.(dp0
Vcyq8e4k
p1
I1
sVcyi3u4r
p2
I1
s.(dp0
Vcyi3u4r
p1
I1
sVcyqrm20
p2
I1
s.(dp0
Vcyi3u4r
p1
I1
sVcyqrm20
p2
I1
s.(dp0
Vcyi3u4r
p1
I1
sVcyrs9tk
p2
I1
s.(dp0
Vcysidl5
p1
I1
sVcyi3u4r
p2
I1
s.(dp0
Vcysidl5
p1
I1
sVcyi3u4r
p2
I1
s.(dp0
Vcythv31
p1
I1
sVcyi3u4r
p2
I1
s.(dp0
Vcyi3u4r
p1
I1
sVcytkk5u
p2
I1
s.(dp0
Vcyi3u4r
p1
I1
sVcyu20nc
p2
I1
s.(dp0
Vcyufntu
p1
I1
sVcyi3u4r
p2
I1
s.(dp0
Vcyul4lv
p1
I1
sVcyi3u4r
p2
I1
s.(dp0
Vcyi3u4r
p1
I1
sVcyuo6qq
p2
I1
s.(dp0
Vcyutw0p
p1
I1
sVcyi3u4r
p2
I1
s.(dp0
Vcyi3u4r
p1
I1
sVcyuyvzj
p2
I1
s.(dp0
Vcyi3u4r
p1
I1
sVcyvjcy1
p2
I1
s.(dp0
Vcyvkn4w
p1
I1
sVcyi3u4r
p2
I1
s.(dp0
Vcywm697
p1
I1
sVcyi3u4r
p2
I1
s.(dp0
Vcywmyr4
p1
I1
sVcyi3u4r
p2
I1
s.(dp0
Vcyi3u4r
p1
I1
sVcyxkfbu
p2
I1
s.(dp0
Vcyxqnzd
p1
I1
sVcyi3u4r
p2
I1
s.(dp0
Vcyi3u4r
p1
I1
sVcyyiruk
p2
I1
s.(dp0
Vcyi3u4r
p1
I1
sVcyz5h8h
p2
I1
s.(dp0
Vcyi3u4r
p1
I1
sVcyz5h8h
p2
I1
s.(dp0
Vcyi3u4r
p1
I1
sVcyzh66o
p2
I1
s.(dp0
Vcyi3u4r
p1
I1
sVcyzqibh
p2
I1
s.(dp0
Vcyzxvzv
p1
I1
sVcyi3u4r
p2
I1
s.(dp0
Vcz0pxmi
p1
I1
sVcyi3u4r
p2
I1
s.(dp0
Vcz1hkxm
p1
I1
sVcyi3u4r
p2
I1
s.(dp0
Vcyi3u4r
p1
I1
sVcz2bqm5
p2
I1
s.(dp0
Vcyi3u4r
p1
I1
sVcz2n2mj
p2
I1
s.(dp0
Vcyi3u4r
p1
I1
sVcz2o7as
p2
I1
s.(dp0
Vcyi3u4r
p1
I1
sVcz2t40a
p2
I1
s.(dp0
Vcyi3u4r
p1
I1
sVcz3gfp4
p2
I1
s.(dp0
Vcz3negl
p1
I1
sVcyi3u4r
p2
I1
s.(dp0
Vcz4aouc
p1
I1
sVcyi3u4r
p2
I1
s.(dp0
Vcyi3u4r
p1
I1
sVcz4n2t7
p2
I1
s.(dp0
Vcz53qhz
p1
I1
sVcyi3u4r
p2
I1
s.(dp0
Vcyi3u4r
p1
I1
sVcz5dfss
p2
I1
s.(dp0
Vcz5gxny
p1
I1
sVcyi3u4r
p2
I1
s.(dp0
Vcz6argh
p1
I1
sVcyi3u4r
p2
I1
s.(dp0
Vcz6vf6o
p1
I1
sVcyi3u4r
p2
I1
s.(dp0
Vcz7h6lp
p1
I1
sVcyi3u4r
p2
I1
s.(dp0
Vcz7wwc7
p1
I1
sVcyi3u4r
p2
I1
s.(dp0
Vcyi3u4r
p1
I1
sVcz88bq0
p2
I1
s.(dp0
Vcz92m6a
p1
I1
sVcyi3u4r
p2
I1
s.(dp0
Vcyi3u4r
p1
I1
sVcz966oh
p2
I1
s.(dp0
Vcyi3u4r
p1
I1
sVcz97qyo
p2
I1
s.(dp0
Vcz9m147
p1
I1
sVcyi3u4r
p2
I1
s.(dp0
Vcz9mjvw
p1
I1
sVcyi3u4r
p2
I1
s.(dp0
Vcz9v3go
p1
I1
sVcyi3u4r
p2
I1
s.(dp0
Vczat95e
p1
I1
sVcyi3u4r
p2
I1
s.(dp0
Vczawird
p1
I1
sVcyi3u4r
p2
I1
s.(dp0
Vczbli4a
p1
I1
sVcyi3u4r
p2
I1
s.(dp0
Vcyi3u4r
p1
I1
sVczbtco8
p2
I1
s.(dp0
Vczbzfo1
p1
I1
sVcyi3u4r
p2
I1
s.(dp0
Vczc7ly7
p1
I1
sVcyi3u4r
p2
I1
s.(dp0
Vczcpb84
p1
I1
sVcyi3u4r
p2
I1
s.(dp0
Vczd695r
p1
I1
sVcyi3u4r
p2
I1
s.(dp0
Vczdbn69
p1
I1
sVcyi3u4r
p2
I1
s.(dp0
Vczdbn69
p1
I1
sVcyi3u4r
p2
I1
s.(dp0
Vcyi3u4r
p1
I1
sVczfbw6a
p2
I1
s.(dp0
Vcyi3u4r
p1
I1
sVczfxb9p
p2
I1
s.(dp0
Vcyi3u4r
p1
I1
sVczg30ul
p2
I1
s.(dp0
Vczg40kh
p1
I1
sVcyi3u4r
p2
I1
s.(dp0
Vczgq7ob
p1
I1
sVcyi3u4r
p2
I1
s.(dp0
Vczgthrk
p1
I1
sVcyi3u4r
p2
I1
s.(dp0
Vczh3ntq
p1
I1
sVcyi3u4r
p2
I1
s.(dp0
Vczhj6i7
p1
I1
sVcyi3u4r
p2
I1
s.(dp0
Vcyi3u4r
p1
I1
sVczhwx48
p2
I1
s.(dp0
Vcziowq3
p1
I1
sVcyi3u4r
p2
I1
s.(dp0
Vczjpcov
p1
I1
sVcyi3u4r
p2
I1
s.(dp0
Vczkc9m3
p1
I1
sVcyi3u4r
p2
I1
s.(dp0
Vcyi3u4r
p1
I1
sVczkvqp8
p2
I1
s.(dp0
Vczl0vls
p1
I1
sVcyi3u4r
p2
I1
s.(dp0
Vczl230y
p1
I1
sVcyi3u4r
p2
I1
s.(dp0
Vczlpw9s
p1
I1
sVcyi3u4r
p2
I1
s.(dp0
Vczm21mw
p1
I1
sVcyi3u4r
p2
I1
s.(dp0
Vcznxzn6
p1
I1
sVcyi3u4r
p2
I1
s.(dp0
Vcyi3u4r
p1
I1
sVczpnp4i
p2
I1
s.(dp0
Vczqnv2f
p1
I1
sVcyi3u4r
p2
I1
s.(dp0
Vczrbuva
p1
I1
sVcyi3u4r
p2
I1
s.(dp0
Vcyi3u4r
p1
I1
sVczrm7pb
p2
I1
s.(dp0
Vczt9v8g
p1
I1
sVcyi3u4r
p2
I1
s.(dp0
Vczt9v8g
p1
I1
sVcyi3u4r
p2
I1
s.(dp0
Vcztds2j
p1
I1
sVcyi3u4r
p2
I1
s.(dp0
Vcyi3u4r
p1
I1
sVcztgv7m
p2
I1
s.(dp0
Vcyi3u4r
p1
I1
sVcztkuyd
p2
I1
s.(dp0
Vcz(dp0
Vdp58t7g
p1
I1
sVcyi3u4r
p2
I1
s.