(dp0
Vcyhv2uw
p1
I1
s.(dp0
Vcyi67wo
p1
I1
sVcyhv2uw
p2
I1
s.(dp0
Vcyi949q
p1
I1
sVcyhv2uw
p2
I1
s.(dp0
Vcyi9wpb
p1
I1
sVcyhv2uw
p2
I1
s.(dp0
Vcyibhtc
p1
I1
sVcyhv2uw
p2
I1
s.(dp0
Vcyj9y53
p1
I1
sVcyhv2uw
p2
I1
s.(dp0
Vcyjrzc4
p1
I1
sVcyhv2uw
p2
I1
s.(dp0
Vcyjs5rq
p1
I1
sVcyhv2uw
p2
I1
s.(dp0
Vcyk0180
p1
I1
sVcyhv2uw
p2
I1
s.(dp0
Vcykcit1
p1
I1
sVcyhv2uw
p2
I1
s.(dp0
Vcykiy1r
p1
I1
sVcyhv2uw
p2
I1
s.(dp0
Vcykmlpq
p1
I1
sVcyhv2uw
p2
I1
s.(dp0
Vcykrpxm
p1
I1
sVcyhv2uw
p2
I1
s.(dp0
Vcykx159
p1
I1
sVcyhv2uw
p2
I1
s.(dp0
Vcykyrkl
p1
I1
sVcyhv2uw
p2
I1
s.(dp0
Vcyl36i8
p1
I1
sVcyhv2uw
p2
I1
s.(dp0
Vcyld3e5
p1
I1
sVcyhv2uw
p2
I1
s.(dp0
Vcyldgzm
p1
I1
sVcyhv2uw
p2
I1
s.(dp0
Vcymutpi
p1
I1
sVcyhv2uw
p2
I1
s.(dp0
Vcyna4pq
p1
I1
sVcyhv2uw
p2
I1
s.(dp0
Vcynrcdp
p1
I1
sVcyhv2uw
p2
I1
s.(dp0
Vcynrcdp
p1
I1
sVcyhv2uw
p2
I1
s.(dp0
Vcynrcdp
p1
I1
sVcyhv2uw
p2
I1
s.(dp0
Vcynw45m
p1
I1
sVcyhv2uw
p2
I1
s.(dp0
Vcynw45m
p1
I1
sVcyhv2uw
p2
I1
s.(dp0
Vcynw45m
p1
I1
sVcyhv2uw
p2
I1
s.(dp0
Vcyo16o1
p1
I1
sVcyhv2uw
p2
I1
s.(dp0
Vcyo56s5
p1
I1
sVcyhv2uw
p2
I1
s.(dp0
Vcyovzmm
p1
I1
sVcyhv2uw
p2
I1
s.(dp0
Vcyowxac
p1
I1
sVcyhv2uw
p2
I1
s.(dp0
Vcyp8a3l
p1
I1
sVcyhv2uw
p2
I1
s.(dp0
Vcypbkk2
p1
I1
sVcyhv2uw
p2
I1
s.(dp0
Vcypj9kz
p1
I1
sVcyhv2uw
p2
I1
s.(dp0
Vcypqkvv
p1
I1
sVcyhv2uw
p2
I1
s.(dp0
Vcyr3k10
p1
I1
sVcyhv2uw
p2
I1
s.(dp0
Vcyr70k7
p1
I1
sVcyhv2uw
p2
I1
s.(dp0
Vcyrdmb3
p1
I1
sVcyhv2uw
p2
I1
s.(dp0
Vcyruvjx
p1
I1
sVcyhv2uw
p2
I1
s.(dp0
Vcys7jw1
p1
I1
sVcyhv2uw
p2
I1
s.(dp0
Vcysjolg
p1
I1
sVcyhv2uw
p2
I1
s.(dp0
Vcysmfgd
p1
I1
sVcyhv2uw
p2
I1
s.(dp0
Vcytxz63
p1
I1
sVcyhv2uw
p2
I1
s.(dp0
Vcyu1x3d
p1
I1
sVcyhv2uw
p2
I1
s.(dp0
Vcyudsee
p1
I1
sVcyhv2uw
p2
I1
s.(dp0
Vcyuemlj
p1
I1
sVcyhv2uw
p2
I1
s.(dp0
Vcyujj27
p1
I1
sVcyhv2uw
p2
I1
s.(dp0
Vcyujj27
p1
I1
sVcyhv2uw
p2
I1
s.(dp0
Vcyuny5y
p1
I1
sVcyhv2uw
p2
I1
s.(dp0
Vcyux6f8
p1
I1
sVcyhv2uw
p2
I1
s.(dp0
Vcyv0836
p1
I1
sVcyhv2uw
p2
I1
s.(dp0
Vcyv2cbx
p1
I1
sVcyhv2uw
p2
I1
s.(dp0
Vcyvfap4
p1
I1
sVcyhv2uw
p2
I1
s.(dp0
Vcywgeab
p1
I1
sVcyhv2uw
p2
I1
s.(dp0
Vcyws5jw
p1
I1
sVcyhv2uw
p2
I1
s.(dp0
Vcywt2mv
p1
I1
sVcyhv2uw
p2
I1
s.(dp0
Vcywy78j
p1
I1
sVcyhv2uw
p2
I1
s.(dp0
Vcyxjpdg
p1
I1
sVcyhv2uw
p2
I1
s.(dp0
Vcyxnp6k
p1
I1
sVcyhv2uw
p2
I1
s.(dp0
Vcyxsu0u
p1
I1
sVcyhv2uw
p2
I1
s.(dp0
Vcyxwsdz
p1
I1
sVcyhv2uw
p2
I1
s.(dp0
Vcyy1eea
p1
I1
sVcyhv2uw
p2
I1
s.(dp0
Vcyz1xtn
p1
I1
sVcyhv2uw
p2
I1
s.(dp0
Vcyzarjc
p1
I1
sVcyhv2uw
p2
I1
s.(dp0
Vcyzj0g8
p1
I1
sVcyhv2uw
p2
I1
s.(dp0
Vcyzj8cw
p1
I1
sVcyhv2uw
p2
I1
s.(dp0
Vcyzli4i
p1
I1
sVcyhv2uw
p2
I1
s.(dp0
Vcyzrxa1
p1
I1
sVcyhv2uw
p2
I1
s.(dp0
Vcz0fedd
p1
I1
sVcyhv2uw
p2
I1
s.(dp0
Vcz0i024
p1
I1
sVcyhv2uw
p2
I1
s.(dp0
Vcz0m9p9
p1
I1
sVcyhv2uw
p2
I1
s.(dp0
Vcz0mqm9
p1
I1
sVcyhv2uw
p2
I1
s.(dp0
Vcz0ns0g
p1
I1
sVcyhv2uw
p2
I1
s.(dp0
Vcz0t4u6
p1
I1
sVcyhv2uw
p2
I1
s.(dp0
Vcz0wvv8
p1
I1
sVcyhv2uw
p2
I1
s.(dp0
Vcz0wvv8
p1
I1
sVcyhv2uw
p2
I1
s.(dp0
Vcz0wvv8
p1
I1
sVcyhv2uw
p2
I1
s.(dp0
Vcz1be0b
p1
I1
sVcyhv2uw
p2
I1
s.(dp0
Vcz234nu
p1
I1
sVcyhv2uw
p2
I1
s.(dp0
Vcz234nu
p1
I1
sVcyhv2uw
p2
I1
s.(dp0
Vcz2lq0c
p1
I1
sVcyhv2uw
p2
I1
s.(dp0
Vcz3119e
p1
I1
sVcyhv2uw
p2
I1
s.(dp0
Vcz4vuf8
p1
I1
sVcyhv2uw
p2
I1
s.(dp0
Vcz4vuf8
p1
I1
sVcyhv2uw
p2
I1
s.(dp0
Vcz4vuf8
p1
I1
sVcyhv2uw
p2
I1
s.(dp0
Vcz4x3jq
p1
I1
sVcyhv2uw
p2
I1
s.(dp0
Vcz4x9ql
p1
I1
sVcyhv2uw
p2
I1
s.(dp0
Vcz4y7pv
p1
I1
sVcyhv2uw
p2
I1
s.(dp0
Vcz4y7pv
p1
I1
sVcyhv2uw
p2
I1
s.(dp0
Vcz4y7pv
p1
I1
sVcyhv2uw
p2
I1
s.(dp0
Vcz4y7pv
p1
I1
sVcyhv2uw
p2
I1
s.(dp0
Vcz4y7pv
p1
I1
sVcyhv2uw
p2
I1
s.(dp0
Vcz4y7pv
p1
I1
sVcyhv2uw
p2
I1
s.(dp0
Vcz4ya8s
p1
I1
sVcyhv2uw
p2
I1
s.(dp0
Vcz4ya8s
p1
I1
sVcyhv2uw
p2
I1
s.(dp0
Vcz520rz
p1
I1
sVcyhv2uw
p2
I1
s.(dp0
Vcz548li
p1
I1
sVcyhv2uw
p2
I1
s.(dp0
Vcz548li
p1
I1
sVcyhv2uw
p2
I1
s.(dp0
Vcz5bmfn
p1
I1
sVcyhv2uw
p2
I1
s.(dp0
Vcz5bmfn
p1
I1
sVcyhv2uw
p2
I1
s.(dp0
Vcz5hfke
p1
I1
sVcyhv2uw
p2
I1
s.(dp0
Vcz5k1fm
p1
I1
sVcyhv2uw
p2
I1
s.(dp0
Vcz5sny7
p1
I1
sVcyhv2uw
p2
I1
s.(dp0
Vcz5us09
p1
I1
sVcyhv2uw
p2
I1
s.(dp0
Vcz5z6nn
p1
I1
sVcyhv2uw
p2
I1
s.(dp0
Vcz6j0eq
p1
I1
sVcyhv2uw
p2
I1
s.(dp0
Vcz6j0eq
p1
I1
sVcyhv2uw
p2
I1
s.(dp0
Vcz6n4ep
p1
I1
sVcyhv2uw
p2
I1
s.(dp0
Vcz7djus
p1
I1
sVcyhv2uw
p2
I1
s.(dp0
Vcz(dp0
Vdp4zb32
p1
I1
sVcyhv2uw
p2
I1
s.