(dp0
Vcyihhu6
p1
I1
s.(dp0
Vcyivi8a
p1
I1
sVcyihhu6
p2
I1
s.(dp0
Vcykmzmp
p1
I1
sVcyihhu6
p2
I1
s.(dp0
Vcyihhu6
p1
I1
sVcylns1s
p2
I1
s.(dp0
Vcyihhu6
p1
I1
sVcynlt5n
p2
I1
s.(dp0
Vcyihhu6
p1
I1
sVcys7r81
p2
I1
s.(dp0
Vcyihhu6
p1
I1
sVcys7r81
p2
I1
s.(dp0
Vcyihhu6
p1
I1
sVcys7r81
p2
I1
s.(dp0
Vcyihhu6
p1
I1
sVcysam7h
p2
I1
s.(dp0
Vcytsoqp
p1
I1
sVcyihhu6
p2
I1
s.(dp0
Vcyy31l2
p1
I1
sVcyihhu6
p2
I1
s.(dp0
Vcyz4hh8
p1
I1
sVcyihhu6
p2
I1
s.(dp0
Vcyihhu6
p1
I1
sVcz3xai4
p2
I1
s.(dp0
Vcyihhu6
p1
I1
sVcz46wlk
p2
I1
s.(dp0
Vcyihhu6
p1
I1
sVcz66oyz
p2
I1
s.(dp0
Vcyihhu6
p1
I1
sVcz8j251
p2
I1
s.(dp0
Vcyihhu6
p1
I1
sVczaol15
p2
I1
s.(dp0
Vcyihhu6
p1
I1
sVczaol15
p2
I1
s.(dp0
Vcyihhu6
p1
I1
sVczaol15
p2
I1
s.(dp0
Vcyihhu6
p1
I1
sVczficy8
p2
I1
s.(dp0
Vcyihhu6
p1
I1
sVczficy8
p2
I1
s.(dp0
Vcyihhu6
p1
I1
sVczficy8
p2
I1
s.(dp0
Vcyihhu6
p1
I1
sVcziwmo7
p2
I1
s.(dp0
Vcyihhu6
p1
I1
sVczjbvt7
p2
I1
s.(dp0
Vcyihhu6
p1
I1
sVczl5cmv
p2
I1
s.(dp0
Vcyihhu6
p1
I1
sVczygsj0
p2
I1
s.(dp0
Vcyihhu6
p1
I1
sVczygsj0
p2
I1
s.(dp0
Vd007i7x
p1
I1
sVcyihhu6
p2
I1
s.(dp0
Vd007i7x
p1
I1
sVcyihhu6
p2
I1
s.(dp0
Vd039zrf
p1
I1
sVcyihhu6
p2
I1
s.(dp0
Vd039zrf
p1
I1
sVcyihhu6
p2
I1
s.(dp0
Vd03lehp
p1
I1
sVcyihhu6
p2
I1
s.(dp0
Vd03lfuh
p1
I1
sVcyihhu6
p2
I1
s.(dp0
Vd03lfuh
p1
I1
sVcyihhu6
p2
I1
s.(dp0
Vcyihhu6
p1
I1
sVd03teht
p2
I1
s.(dp0
Vcyihhu6
p1
I1
sVd03teht
p2
I1
s.(dp0
Vd04fikc
p1
I1
sVcyihhu6
p2
I1
s.(dp0
Vcyihhu6
p1
I1
sVd05e1js
p2
I1
s.(dp0
Vd05e1xu
p1
I1
sVcyihhu6
p2
I1
s.(dp0
Vd05e1xu
p1
I1
sVcyihhu6
p2
I1
s.(dp0
Vd05ujza
p1
I1
sVcyihhu6
p2
I1
s.(dp0
Vd05ujza
p1
I1
sVcyihhu6
p2
I1
s.(dp0
Vd06dc3p
p1
I1
sVcyihhu6
p2
I1
s.(dp0
Vd06dc3p
p1
I1
sVcyihhu6
p2
I1
s.(dp0
Vd06dc3p
p1
I1
sVcyihhu6
p2
I1
s.(dp0
Vd06dc3p
p1
I1
sVcyihhu6
p2
I1
s.(dp0
Vd06dc3p
p1
I1
sVcyihhu6
p2
I1
s.(dp0
Vcyihhu6
p1
I1
sVd089odt
p2
I1
s.(dp0
Vcyihhu6
p1
I1
sVd08fqa4
p2
I1
s.(dp0
Vcyihhu6
p1
I1
sVd0e9n7l
p2
I1
s.(dp0
Vcyihhu6
p1
I1
sVd0ebx2h
p2
I1
s.(dp0
Vcyihhu6
p1
I1
sVd0h4s9h
p2
I1
s.(dp0
Vcyihhu6
p1
I1
sVd0h4s9h
p2
I1
s.(dp0
Vd0kyio7
p1
I1
sVcyihhu6
p2
I1
s.(dp0
Vd0kyio7
p1
I1
sVcyihhu6
p2
I1
s.(dp0
Vcyihhu6
p1
I1
sVd0ngola
p2
I1
s.(dp0
Vcyihhu6
p1
I1
sVd0ngola
p2
I1
s.(dp0
Vcyihhu6
p1
I1
sVd0o18un
p2
I1
s.(dp0
Vd0o832h
p1
I1
sVcyihhu6
p2
I1
s.(dp0
Vd0o832h
p1
I1
sVcyihhu6
p2
I1
s.(dp0
Vd0oefsr
p1
I1
sVcyihhu6
p2
I1
s.(dp0
Vcyihhu6
p1
I1
sVd0quyax
p2
I1
s.(dp0
Vd0rira6
p1
I1
sVcyihhu6
p2
I1
s.(dp0
Vd0rozv4
p1
I1
sVcyihhu6
p2
I1
s.(dp0
Vcyihhu6
p1
I1
sVd0rqedr
p2
I1
s.(dp0
Vcyihhu6
p1
I1
sVd0rqedr
p2
I1
s.(dp0
Vcyihhu6
p1
I1
sVd0rqedr
p2
I1
s.(dp0
Vcyihhu6
p1
I1
sVd0rqedr
p2
I1
s.(dp0
Vcyihhu6
p1
I1
sVd0rqedr
p2
I1
s.(dp0
Vcyihhu6
p1
I1
sVd0rs51c
p2
I1
s.(dp0
Vcyihhu6
p1
I1
sVd0rs51c
p2
I1
s.(dp0
Vcyihhu6
p1
I1
sVd0s1sao
p2
I1
s.(dp0
Vd0sg9p8
p1
I1
sVcyihhu6
p2
I1
s.(dp0
Vd0wf18c
p1
I1
sVcyihhu6
p2
I1
s.(dp0
Vd0wf18c
p1
I1
sVcyihhu6
p2
I1
s.(dp0
Vd0wf18c
p1
I1
sVcyihhu6
p2
I1
s.(dp0
Vd15s6jt
p1
I1
sVcyihhu6
p2
I1
s.(dp0
Vd15s6jt
p1
I1
sVcyihhu6
p2
I1
s.(dp0
Vcyihhu6
p1
I1
sVd1avnz6
p2
I1
s.(dp0
Vcyihhu6
p1
I1
sVd1c6wxe
p2
I1
s.(dp0
Vcyihhu6
p1
I1
sVd1d2itu
p2
I1
s.(dp0
Vcyihhu6
p1
I1
sVd1d76l8
p2
I1
s.(dp0
Vcyihhu6
p1
I1
sVd1davn6
p2
I1
s.(dp0
Vcyihhu6
p1
I1
sVd1davn6
p2
I1
s.(dp0
Vd1gozgi
p1
I1
sVcyihhu6
p2
I1
s.(dp0
Vd1jf6jb
p1
I1
sVcyihhu6
p2
I1
s.(dp0
Vd1jzp1y
p1
I1
sVcyihhu6
p2
I1
s.(dp0
Vd1jzp1y
p1
I1
sVcyihhu6
p2
I1
s.(dp0
Vcyihhu6
p1
I1
sVd1lv8gk
p2
I1
s.(dp0
Vd1n3gg0
p1
I1
sVcyihhu6
p2
I1
s.(dp0
Vcyihhu6
p1
I1
sVd1unj20
p2
I1
s.(dp0
Vcyihhu6
p1
I1
sVd1unj20
p2
I1
s.(dp0
Vcyihhu6
p1
I1
sVd1unj20
p2
I1
s.(dp0
Vcyihhu6
p1
I1
sVd1uuhz7
p2
I1
s.(dp0
Vcyihhu6
p1
I1
sVd1uuhz7
p2
I1
s.(dp0
Vcyihhu6
p1
I1
sVd1uvjmh
p2
I1
s.(dp0
Vd1ux4zg
p1
I1
sVcyihhu6
p2
I1
s.(dp0
Vd1ux4zg
p1
I1
sVcyihhu6
p2
I1
s.(dp0
Vd1ux4zg
p1
I1
sVcyihhu6
p2
I1
s.(dp0
Vcyihhu6
p1
I1
sVd1v0ri4
p2
I1
s.(dp0
Vcyihhu6
p1
I1
sVd1v2woq
p2
I1
s.(dp0
Vd1vbn02
p1
I1
sVcyihhu6
p2
I1
s.(dp0
Vd1vbn02
p1
I1
sVcyihhu6
p2
I1
s.(dp0
Vd1vbn02
p1
I1
sVcyihhu6
p2
I1
s.(dp0
Vcyihhu6
p1
I1
sVd1w6tda
p2
I1
s.(dp0
Vcyihhu6
p1
I1
sVd1yuwqe
p2
I1
s.(dp0
Vcyihhu6
p1
I1
sVd20zf4g
p2
I1
s.(dp0
Vd21709p
p1
I1
sVcyihhu6
p2
I1
s.(dp0
Vcy(dp0
Vcyihhu6
p1
I1
sVdoj5htp
p2
I1
s.