(dp0
Vd1koaju
p1
I1
s.(dp0
Vd1koaju
p1
I1
sVd2sr5e7
p2
I1
s.(dp0
Vda5rvgm
p1
I1
sVd1koaju
p2
I1
s.(dp0
Vdb6q8uu
p1
I1
sVd1koaju
p2
I1
s.(dp0
Vd1koaju
p1
I1
sVdbwxqa5
p2
I1
s.(dp0
Vdc9qu3h
p1
I1
sVd1koaju
p2
I1
s.(dp0
Vd1koaju
p1
I1
sVdc9sf6l
p2
I1
s.(dp0
Vdc9tdf9
p1
I1
sVd1koaju
p2
I1
s.(dp0
Vdc9tdf9
p1
I1
sVd1koaju
p2
I1
s.(dp0
Vddmtilx
p1
I1
sVd1koaju
p2
I1
s.(dp0
Vd1koaju
p1
I1
sVdev0mqq
p2
I1
s.