(dp0
Vcz304vc
p1
I1
s.(dp0
Vcz304vc
p1
I1
sVczuzcey
p2
I1
s.(dp0
Vcz304vc
p1
I1
sVd01ulet
p2
I1
s.(dp0
Vcz304vc
p1
I1
sVd06k5vg
p2
I1
s.(dp0
Vcz304vc
p1
I1
sVd1gb3al
p2
I1
s.(dp0
Vcz304vc
p1
I1
sVd2c78km
p2
I1
s.(dp0
Vcz304vc
p1
I1
sVd2gkteb
p2
I1
s.(dp0
Vcz304vc
p1
I1
sVd35qxmk
p2
I1
s.(dp0
Vcz304vc
p1
I1
sVd3q9tc7
p2
I1
s.(dp0
Vcz304vc
p1
I1
sVd4rtf4x
p2
I1
s.(dp0
Vcz304vc
p1
I1
sVd6qi9qu
p2
I1
s.(dp0
Vcz304vc
p1
I1
sVd6u7mcm
p2
I1
s.(dp0
Vcz304vc
p1
I1
sVd6watch
p2
I1
s.(dp0
Vcz304vc
p1
I1
sVd7b2xnl
p2
I1
s.(dp0
Vcz304vc
p1
I1
sVd8ntygr
p2
I1
s.(dp0
Vcz304vc
p1
I1
sVd8u1dum
p2
I1
s.(dp0
Vcz304vc
p1
I1
sVd9lg8vk
p2
I1
s.(dp0
Vcz304vc
p1
I1
sVdc87efh
p2
I1
s.(dp0
Vcz304vc
p1
I1
sVddclg1i
p2
I1
s.(dp0
Vcz304vc
p1
I1
sVdg87d8r
p2
I1
s.(dp0
Vcz304vc
p1
I1
sVdhyae81
p2
I1
s.(dp0
Vcz304vc
p1
I1
sVdkktfwy
p2
I1
s.