(dp0
Vcyuvxpc
p1
I1
s.(dp0
Vcyxzv5a
p1
I1
sVcyuvxpc
p2
I1
s.(dp0
Vcznp0l9
p1
I1
sVcyuvxpc
p2
I1
s.(dp0
Vczonmox
p1
I1
sVcyuvxpc
p2
I1
s.(dp0
Vd01hmty
p1
I1
sVcyuvxpc
p2
I1
s.(dp0
Vd0exagz
p1
I1
sVcyuvxpc
p2
I1
s.(dp0
Vd0i2tqb
p1
I1
sVcyuvxpc
p2
I1
s.(dp0
Vd0pitgu
p1
I1
sVcyuvxpc
p2
I1
s.(dp0
Vd0ygjv8
p1
I1
sVcyuvxpc
p2
I1
s.(dp0
Vd0ykosg
p1
I1
sVcyuvxpc
p2
I1
s.(dp0
Vd1084zd
p1
I1
sVcyuvxpc
p2
I1
s.(dp0
Vd1dcser
p1
I1
sVcyuvxpc
p2
I1
s.(dp0
Vd1oyrj1
p1
I1
sVcyuvxpc
p2
I1
s.(dp0
Vd1pbzlp
p1
I1
sVcyuvxpc
p2
I1
s.(dp0
Vd1rbrt8
p1
I1
sVcyuvxpc
p2
I1
s.(dp0
Vd26i1st
p1
I1
sVcyuvxpc
p2
I1
s.(dp0
Vd2k2vse
p1
I1
sVcyuvxpc
p2
I1
s.(dp0
Vd2sgbh2
p1
I1
sVcyuvxpc
p2
I1
s.(dp0
Vd2yxix6
p1
I1
sVcyuvxpc
p2
I1
s.(dp0
Vd31o2r2
p1
I1
sVcyuvxpc
p2
I1
s.(dp0
Vd3o058v
p1
I1
sVcyuvxpc
p2
I1
s.(dp0
Vd3z67c5
p1
I1
sVcyuvxpc
p2
I1
s.(dp0
Vd42saud
p1
I1
sVcyuvxpc
p2
I1
s.(dp0
Vd4dykf0
p1
I1
sVcyuvxpc
p2
I1
s.(dp0
Vd4gxyxn
p1
I1
sVcyuvxpc
p2
I1
s.(dp0
Vd4ieujk
p1
I1
sVcyuvxpc
p2
I1
s.(dp0
Vd4mmwel
p1
I1
sVcyuvxpc
p2
I1
s.(dp0
Vd4n9qvv
p1
I1
sVcyuvxpc
p2
I1
s.(dp0
Vd4n9qvv
p1
I1
sVcyuvxpc
p2
I1
s.(dp0
Vd4n9qvv
p1
I1
sVcyuvxpc
p2
I1
s.(dp0
Vd4powr0
p1
I1
sVcyuvxpc
p2
I1
s.(dp0
Vd4wgyjm
p1
I1
sVcyuvxpc
p2
I1
s.(dp0
Vd4zlsyp
p1
I1
sVcyuvxpc
p2
I1
s.(dp0
Vd5isbq3
p1
I1
sVcyuvxpc
p2
I1
s.(dp0
Vd66ottj
p1
I1
sVcyuvxpc
p2
I1
s.(dp0
Vd6z7td3
p1
I1
sVcyuvxpc
p2
I1
s.(dp0
Vd744xjt
p1
I1
sVcyuvxpc
p2
I1
s.(dp0
Vd79zodt
p1
I1
sVcyuvxpc
p2
I1
s.(dp0
Vd7nmqmi
p1
I1
sVcyuvxpc
p2
I1
s.(dp0
Vd7q2qlk
p1
I1
sVcyuvxpc
p2
I1
s.(dp0
Vd7z1us8
p1
I1
sVcyuvxpc
p2
I1
s.(dp0
Vd7z1us8
p1
I1
sVcyuvxpc
p2
I1
s.(dp0
Vd83rxdw
p1
I1
sVcyuvxpc
p2
I1
s.(dp0
Vd862tq1
p1
I1
sVcyuvxpc
p2
I1
s.(dp0
Vd86ep85
p1
I1
sVcyuvxpc
p2
I1
s.(dp0
Vd8mi6jm
p1
I1
sVcyuvxpc
p2
I1
s.(dp0
Vd8npxdf
p1
I1
sVcyuvxpc
p2
I1
s.(dp0
Vd8ygt1q
p1
I1
sVcyuvxpc
p2
I1
s.(dp0
Vd92k59i
p1
I1
sVcyuvxpc
p2
I1
s.(dp0
Vd9lg8vk
p1
I1
sVcyuvxpc
p2
I1
s.(dp0
Vd9my1pd
p1
I1
sVcyuvxpc
p2
I1
s.(dp0
Vda1vqrl
p1
I1
sVcyuvxpc
p2
I1
s.(dp0
Vda6wqgo
p1
I1
sVcyuvxpc
p2
I1
s.(dp0
Vdaag633
p1
I1
sVcyuvxpc
p2
I1
s.(dp0
Vdaeobx2
p1
I1
sVcyuvxpc
p2
I1
s.(dp0
Vdaftufw
p1
I1
sVcyuvxpc
p2
I1
s.(dp0
Vdahkdlh
p1
I1
sVcyuvxpc
p2
I1
s.(dp0
Vdaidlps
p1
I1
sVcyuvxpc
p2
I1
s.(dp0
Vdaiz126
p1
I1
sVcyuvxpc
p2
I1
s.(dp0
Vdaooq2c
p1
I1
sVcyuvxpc
p2
I1
s.(dp0
Vdaouvnp
p1
I1
sVcyuvxpc
p2
I1
s.(dp0
Vdaqi9sg
p1
I1
sVcyuvxpc
p2
I1
s.(dp0
Vdaqi9sg
p1
I1
sVcyuvxpc
p2
I1
s.(dp0
Vdb9sfjn
p1
I1
sVcyuvxpc
p2
I1
s.(dp0
Vdberuzr
p1
I1
sVcyuvxpc
p2
I1
s.(dp0
Vdbltx8o
p1
I1
sVcyuvxpc
p2
I1
s.(dp0
Vdbm5q6f
p1
I1
sVcyuvxpc
p2
I1
s.(dp0
Vdbn73y4
p1
I1
sVcyuvxpc
p2
I1
s.(dp0
Vdbuukvt
p1
I1
sVcyuvxpc
p2
I1
s.(dp0
Vdc15y4w
p1
I1
sVcyuvxpc
p2
I1
s.(dp0
Vdc6baav
p1
I1
sVcyuvxpc
p2
I1
s.(dp0
Vdcu03bl
p1
I1
sVcyuvxpc
p2
I1
s.(dp0
Vdczuepl
p1
I1
sVcyuvxpc
p2
I1
s.(dp0
Vddajarp
p1
I1
sVcyuvxpc
p2
I1
s.(dp0
Vddzytbl
p1
I1
sVcyuvxpc
p2
I1
s.(dp0
Vde1ad8e
p1
I1
sVcyuvxpc
p2
I1
s.(dp0
Vdeb7fgl
p1
I1
sVcyuvxpc
p2
I1
s.(dp0
Vdeb9lt2
p1
I1
sVcyuvxpc
p2
I1
s.(dp0
Vdet2mhk
p1
I1
sVcyuvxpc
p2
I1
s.(dp0
Vdf0zt68
p1
I1
sVcyuvxpc
p2
I1
s.(dp0
Vdf1nrnh
p1
I1
sVcyuvxpc
p2
I1
s.(dp0
Vdf1nrnh
p1
I1
sVcyuvxpc
p2
I1
s.(dp0
Vdf7hyt2
p1
I1
sVcyuvxpc
p2
I1
s.(dp0
Vdfcytvk
p1
I1
sVcyuvxpc
p2
I1
s.(dp0
Vdffvt2v
p1
I1
sVcyuvxpc
p2
I1
s.(dp0
Vdfgb305
p1
I1
sVcyuvxpc
p2
I1
s.(dp0
Vdgbabbf
p1
I1
sVcyuvxpc
p2
I1
s.(dp0
Vdgwfhx6
p1
I1
sVcyuvxpc
p2
I1
s.(dp0
Vdh1d6wu
p1
I1
sVcyuvxpc
p2
I1
s.(dp0
Vdh1ha8k
p1
I1
sVcyuvxpc
p2
I1
s.(dp0
Vdh4xk8k
p1
I1
sVcyuvxpc
p2
I1
s.(dp0
Vdhmk9mo
p1
I1
sVcyuvxpc
p2
I1
s.(dp0
Vdj90eir
p1
I1
sVcyuvxpc
p2
I1
s.(dp0
Vdjazymd
p1
I1
sVcyuvxpc
p2
I1
s.(dp0
Vdjkchai
p1
I1
sVcyuvxpc
p2
I1
s.(dp0
Vdjqzn6d
p1
I1
sVcyuvxpc
p2
I1
s.(dp0
Vdjsqici
p1
I1
sVcyuvxpc
p2
I1
s.(dp0
Vdkcbsf9
p1
I1
sVcyuvxpc
p2
I1
s.(dp0
Vdkcc2lv
p1
I1
sVcyuvxpc
p2
I1
s.(dp0
Vdkpc850
p1
I1
sVcyuvxpc
p2
I1
s.(dp0
Vdkpj4pf
p1
I1
sVcyuvxpc
p2
I1
s.