(dp0
Vcyhzvnt
p1
I1
s.(dp0
Vcyhzvnt
p1
I1
sVcyhzwmo
p2
I1
s.(dp0
Vcyhzvnt
p1
I1
sVcyi02h7
p2
I1
s.(dp0
Vcyhzvnt
p1
I1
sVcyjcws3
p2
I1
s.(dp0
Vcyhzvnt
p1
I1
sVcykcit1
p2
I1
s.(dp0
Vcyhzvnt
p1
I1
sVcykecax
p2
I1
s.(dp0
Vcyklxhx
p1
I1
sVcyhzvnt
p2
I1
s.(dp0
Vcyklxhx
p1
I1
sVcyhzvnt
p2
I1
s.(dp0
Vcyklxhx
p1
I1
sVcyhzvnt
p2
I1
s.(dp0
Vcyklxhx
p1
I1
sVcyhzvnt
p2
I1
s.(dp0
Vcyhzvnt
p1
I1
sVcykpss3
p2
I1
s.(dp0
Vcyhzvnt
p1
I1
sVcylhcaw
p2
I1
s.(dp0
Vcyhzvnt
p1
I1
sVcylhcaw
p2
I1
s.(dp0
Vcyhzvnt
p1
I1
sVcymri79
p2
I1
s.(dp0
Vcyhzvnt
p1
I1
sVcymri79
p2
I1
s.(dp0
Vcyhzvnt
p1
I1
sVcymri79
p2
I1
s.(dp0
Vcyhzvnt
p1
I1
sVcymri79
p2
I1
s.(dp0
Vcyhzvnt
p1
I1
sVcymri79
p2
I1
s.(dp0
Vcyhzvnt
p1
I1
sVcymshu9
p2
I1
s.(dp0
Vcyhzvnt
p1
I1
sVcymwdac
p2
I1
s.(dp0
Vcyng758
p1
I1
sVcyhzvnt
p2
I1
s.(dp0
Vcyng758
p1
I1
sVcyhzvnt
p2
I1
s.(dp0
Vcyhzvnt
p1
I1
sVcynrmwy
p2
I1
s.(dp0
Vcyhzvnt
p1
I1
sVcynrmwy
p2
I1
s.(dp0
Vcyhzvnt
p1
I1
sVcynrmwy
p2
I1
s.(dp0
Vcynvrnk
p1
I1
sVcyhzvnt
p2
I1
s.(dp0
Vcyhzvnt
p1
I1
sVcynyfvi
p2
I1
s.(dp0
Vcyo0rcs
p1
I1
sVcyhzvnt
p2
I1
s.(dp0
Vcyhzvnt
p1
I1
sVcyo0vln
p2
I1
s.(dp0
Vcyhzvnt
p1
I1
sVcyogevo
p2
I1
s.(dp0
Vcyhzvnt
p1
I1
sVcyou61h
p2
I1
s.(dp0
Vcyp78mi
p1
I1
sVcyhzvnt
p2
I1
s.(dp0
Vcyhzvnt
p1
I1
sVcyre1qx
p2
I1
s.(dp0
Vcyhzvnt
p1
I1
sVcyrfbxz
p2
I1
s.(dp0
Vcyhzvnt
p1
I1
sVcyrj7oo
p2
I1
s.(dp0
Vcyhzvnt
p1
I1
sVcyrmemh
p2
I1
s.(dp0
Vcyhzvnt
p1
I1
sVcyrmhk1
p2
I1
s.(dp0
Vcyhzvnt
p1
I1
sVcyrmhk1
p2
I1
s.(dp0
Vcyhzvnt
p1
I1
sVcyrmmkv
p2
I1
s.(dp0
Vcyrq3l5
p1
I1
sVcyhzvnt
p2
I1
s.(dp0
Vcyrq3l5
p1
I1
sVcyhzvnt
p2
I1
s.(dp0
Vcyrq3l5
p1
I1
sVcyhzvnt
p2
I1
s.(dp0
Vcyhzvnt
p1
I1
sVcyrq6oo
p2
I1
s.(dp0
Vcyhzvnt
p1
I1
sVcyrq6oo
p2
I1
s.(dp0
Vcyhzvnt
p1
I1
sVcyrq6oo
p2
I1
s.(dp0
Vcyhzvnt
p1
I1
sVcyrqhu5
p2
I1
s.(dp0
Vcyhzvnt
p1
I1
sVcyrtf3y
p2
I1
s.(dp0
Vcyhzvnt
p1
I1
sVcyrtf3y
p2
I1
s.(dp0
Vcyhzvnt
p1
I1
sVcyrtfps
p2
I1
s.(dp0
Vcyhzvnt
p1
I1
sVcyrtr5s
p2
I1
s.(dp0
Vcyhzvnt
p1
I1
sVcyrtx0u
p2
I1
s.(dp0
Vcyru24h
p1
I1
sVcyhzvnt
p2
I1
s.(dp0
Vcyru24h
p1
I1
sVcyhzvnt
p2
I1
s.(dp0
Vcyhzvnt
p1
I1
sVcyruqhl
p2
I1
s.(dp0
Vcyhzvnt
p1
I1
sVcyrwdw8
p2
I1
s.(dp0
Vcyhzvnt
p1
I1
sVcys07b8
p2
I1
s.(dp0
Vcyhzvnt
p1
I1
sVcys07b8
p2
I1
s.(dp0
Vcyhzvnt
p1
I1
sVcys1i33
p2
I1
s.(dp0
Vcyhzvnt
p1
I1
sVcys1i33
p2
I1
s.(dp0
Vcyhzvnt
p1
I1
sVcys29rp
p2
I1
s.(dp0
Vcyhzvnt
p1
I1
sVcys29rp
p2
I1
s.(dp0
Vcyhzvnt
p1
I1
sVcys2ndu
p2
I1
s.(dp0
Vcyhzvnt
p1
I1
sVcys4zwq
p2
I1
s.(dp0
Vcyhzvnt
p1
I1
sVcys4zwq
p2
I1
s.(dp0
Vcyhzvnt
p1
I1
sVcys83rv
p2
I1
s.(dp0
Vcyhzvnt
p1
I1
sVcys83rv
p2
I1
s.(dp0
Vcysl8oa
p1
I1
sVcyhzvnt
p2
I1
s.(dp0
Vcysli6k
p1
I1
sVcyhzvnt
p2
I1
s.(dp0
Vcyhzvnt
p1
I1
sVcyslphd
p2
I1
s.(dp0
Vcyhzvnt
p1
I1
sVcysnwce
p2
I1
s.(dp0
Vcyhzvnt
p1
I1
sVcyspo6f
p2
I1
s.(dp0
Vcyhzvnt
p1
I1
sVcyss1n9
p2
I1
s.(dp0
Vcyhzvnt
p1
I1
sVcyt84k0
p2
I1
s.(dp0
Vcyhzvnt
p1
I1
sVcyt9vt0
p2
I1
s.(dp0
Vcyhzvnt
p1
I1
sVcyt9vt0
p2
I1
s.(dp0
Vcyhzvnt
p1
I1
sVcytwlh0
p2
I1
s.(dp0
Vcyhzvnt
p1
I1
sVcyty3jd
p2
I1
s.(dp0
Vcyhzvnt
p1
I1
sVcyu7r4v
p2
I1
s.(dp0
Vcyhzvnt
p1
I1
sVcyue3fr
p2
I1
s.(dp0
Vcyhzvnt
p1
I1
sVcyuo9h2
p2
I1
s.(dp0
Vcyhzvnt
p1
I1
sVcyvn7lz
p2
I1
s.(dp0
Vcyhzvnt
p1
I1
sVcyw2gea
p2
I1
s.(dp0
Vcyhzvnt
p1
I1
sVcyw7nqg
p2
I1
s.(dp0
Vcyhzvnt
p1
I1
sVcyw7nqg
p2
I1
s.(dp0
Vcyhzvnt
p1
I1
sVcyw7nqg
p2
I1
s.(dp0
Vcyhzvnt
p1
I1
sVcyw7nqg
p2
I1
s.(dp0
Vcyhzvnt
p1
I1
sVcywnp7o
p2
I1
s.(dp0
Vcyhzvnt
p1
I1
sVcywpxvs
p2
I1
s.(dp0
Vcyhzvnt
p1
I1
sVcyxl7yh
p2
I1
s.(dp0
Vcyhzvnt
p1
I1
sVcyxl7yh
p2
I1
s.(dp0
Vcyhzvnt
p1
I1
sVcyxw45o
p2
I1
s.(dp0
Vcyhzvnt
p1
I1
sVcyxy4q9
p2
I1
s.(dp0
Vcyhzvnt
p1
I1
sVcyyyf13
p2
I1
s.(dp0
Vcyhzvnt
p1
I1
sVcyzbxf4
p2
I1
s.(dp0
Vcyhzvnt
p1
I1
sVcyzlh8j
p2
I1
s.(dp0
Vcyhzvnt
p1
I1
sVcyzli4i
p2
I1
s.(dp0
Vcz01ob4
p1
I1
sVcyhzvnt
p2
I1
s.(dp0
Vcyhzvnt
p1
I1
sVcz0jb0e
p2
I1
s.(dp0
Vcyhzvnt
p1
I1
sVcz0jflh
p2
I1
s.(dp0
Vcyhzvnt
p1
I1
sVcz0ll6f
p2
I1
s.(dp0
Vcyhzvnt
p1
I1
sVcz0mnrs
p2
I1
s.(dp0
Vcyhzvnt
p1
I1
sVcz0mz2n
p2
I1
s.(dp0
Vcyhzvnt
p1
I1
sVcz0prbc
p2
I1
s.(dp0
Vcyhzvnt
p1
I1
sVcz0t4u6
p2
I1
s.(dp0
Vcyhzvnt
p1
I1
sVcz11lrq
p2
I1
s.(dp0
Vcyhzvnt
p1
I1
sVcz134ao
p2
I1
s.(dp0
Vcz13m9h
p1
I1
sVcyhzvnt
p2
I1
s.(dp0
Vcz13m9h
p1
I1
sVcyhzvnt
p2
I1
s.(dp0
Vcz(dp0
Vcyhzvnt
p1
I1
sVdkzjpu7
p2
I1
s.