(dp0
Vcz4mvyq
p1
I1
s.(dp0
Vczn6ern
p1
I1
sVcz4mvyq
p2
I1
s.(dp0
Vd01eky4
p1
I1
sVcz4mvyq
p2
I1
s.(dp0
Vd15m5ny
p1
I1
sVcz4mvyq
p2
I1
s.(dp0
Vcz4mvyq
p1
I1
sVd1s18av
p2
I1
s.(dp0
Vcz4mvyq
p1
I1
sVd1s1bas
p2
I1
s.(dp0
Vcz4mvyq
p1
I1
sVd25wdk7
p2
I1
s.(dp0
Vd2y8a55
p1
I1
sVcz4mvyq
p2
I1
s.(dp0
Vd3jsdty
p1
I1
sVcz4mvyq
p2
I1
s.(dp0
Vcz4mvyq
p1
I1
sVd3n02ot
p2
I1
s.(dp0
Vd45sd7j
p1
I1
sVcz4mvyq
p2
I1
s.(dp0
Vcz4mvyq
p1
I1
sVd61ng9k
p2
I1
s.(dp0
Vd62gabi
p1
I1
sVcz4mvyq
p2
I1
s.(dp0
Vd6dz6of
p1
I1
sVcz4mvyq
p2
I1
s.(dp0
Vd6wy5dk
p1
I1
sVcz4mvyq
p2
I1
s.(dp0
Vd6y04pf
p1
I1
sVcz4mvyq
p2
I1
s.(dp0
Vcz4mvyq
p1
I1
sVd76rwz4
p2
I1
s.(dp0
Vd7jw074
p1
I1
sVcz4mvyq
p2
I1
s.(dp0
Vcz4mvyq
p1
I1
sVd7td1sy
p2
I1
s.(dp0
Vcz4mvyq
p1
I1
sVd7ut6ss
p2
I1
s.(dp0
Vcz4mvyq
p1
I1
sVd7y78qz
p2
I1
s.(dp0
Vcz4mvyq
p1
I1
sVd7ylyz5
p2
I1
s.(dp0
Vd82ldxb
p1
I1
sVcz4mvyq
p2
I1
s.(dp0
Vcz4mvyq
p1
I1
sVd83aana
p2
I1
s.(dp0
Vd83aqlu
p1
I1
sVcz4mvyq
p2
I1
s.(dp0
Vcz4mvyq
p1
I1
sVd8ogvpn
p2
I1
s.(dp0
Vcz4mvyq
p1
I1
sVd8ogvpn
p2
I1
s.(dp0
Vd8rpqd5
p1
I1
sVcz4mvyq
p2
I1
s.(dp0
Vd8zctoh
p1
I1
sVcz4mvyq
p2
I1
s.(dp0
Vd8zctoh
p1
I1
sVcz4mvyq
p2
I1
s.(dp0
Vcz4mvyq
p1
I1
sVd93io01
p2
I1
s.(dp0
Vd9uk07e
p1
I1
sVcz4mvyq
p2
I1
s.(dp0
Vda1cud1
p1
I1
sVcz4mvyq
p2
I1
s.(dp0
Vda6wqgo
p1
I1
sVcz4mvyq
p2
I1
s.(dp0
Vdait5w2
p1
I1
sVcz4mvyq
p2
I1
s.(dp0
Vdakyysp
p1
I1
sVcz4mvyq
p2
I1
s.(dp0
Vdarpcyg
p1
I1
sVcz4mvyq
p2
I1
s.(dp0
Vdbu7lq9
p1
I1
sVcz4mvyq
p2
I1
s.(dp0
Vddktbs8
p1
I1
sVcz4mvyq
p2
I1
s.(dp0
Vddktbs8
p1
I1
sVcz4mvyq
p2
I1
s.(dp0
Vddw5tqa
p1
I1
sVcz4mvyq
p2
I1
s.(dp0
Vcz4mvyq
p1
I1
sVde04t72
p2
I1
s.(dp0
Vcz4mvyq
p1
I1
sVdf2585v
p2
I1
s.(dp0
Vdhr4ury
p1
I1
sVcz4mvyq
p2
I1
s.(dp0
Vdhw0kjy
p1
I1
sVcz4mvyq
p2
I1
s.(dp0
Vdi28cxj
p1
I1
sVcz4mvyq
p2
I1
s.(dp0
Vcz4mvyq
p1
I1
sVdjm963g
p2
I1
s.(dp0
Vdk0ispj
p1
I1
sVcz4mvyq
p2
I1
s.(dp0
Vdk73brj
p1
I1
sVcz4mvyq
p2
I1
s.(dp0
Vdkafyes
p1
I1
sVcz4mvyq
p2
I1
s.(dp0
Vdmno5b3
p1
I1
sVcz4mvyq
p2
I1
s.