(dp0
Vcyl2h2d
p1
I1
s.(dp0
Vd0n1t7u
p1
I1
sVcyl2h2d
p2
I1
s.(dp0
Vd800ssh
p1
I1
sVcyl2h2d
p2
I1
s.(dp0
Vd800ssh
p1
I1
sVcyl2h2d
p2
I1
s.(dp0
Vd800ssh
p1
I1
sVcyl2h2d
p2
I1
s.(dp0
Vd800ssh
p1
I1
sVcyl2h2d
p2
I1
s.(dp0
Vdbmyfsf
p1
I1
sVcyl2h2d
p2
I1
s.(dp0
Vdcf489v
p1
I1
sVcyl2h2d
p2
I1
s.(dp0
Vdhymmoa
p1
I1
sVcyl2h2d
p2
I1
s.