(dp0
Vd0bvm0y
p1
I1
s.(dp0
Vd0hb9om
p1
I1
sVd0bvm0y
p2
I1
s.(dp0
Vd0lw9cw
p1
I1
sVd0bvm0y
p2
I1
s.(dp0
Vd0yddix
p1
I1
sVd0bvm0y
p2
I1
s.(dp0
Vd0yihxz
p1
I1
sVd0bvm0y
p2
I1
s.(dp0
Vd12v8ta
p1
I1
sVd0bvm0y
p2
I1
s.(dp0
Vd1anjkf
p1
I1
sVd0bvm0y
p2
I1
s.(dp0
Vd1anjkf
p1
I1
sVd0bvm0y
p2
I1
s.(dp0
Vd2cxcgq
p1
I1
sVd0bvm0y
p2
I1
s.(dp0
Vd49h5p4
p1
I1
sVd0bvm0y
p2
I1
s.(dp0
Vd4ne3bj
p1
I1
sVd0bvm0y
p2
I1
s.(dp0
Vd6rrtok
p1
I1
sVd0bvm0y
p2
I1
s.(dp0
Vd7jdhuh
p1
I1
sVd0bvm0y
p2
I1
s.(dp0
Vd7rd2pp
p1
I1
sVd0bvm0y
p2
I1
s.(dp0
Vd7t01wd
p1
I1
sVd0bvm0y
p2
I1
s.(dp0
Vd81ojm0
p1
I1
sVd0bvm0y
p2
I1
s.(dp0
Vd8dmccd
p1
I1
sVd0bvm0y
p2
I1
s.(dp0
Vd8x41us
p1
I1
sVd0bvm0y
p2
I1
s.(dp0
Vd8x41us
p1
I1
sVd0bvm0y
p2
I1
s.(dp0
Vd9q2dml
p1
I1
sVd0bvm0y
p2
I1
s.(dp0
Vda50zvc
p1
I1
sVd0bvm0y
p2
I1
s.(dp0
Vdby2v7h
p1
I1
sVd0bvm0y
p2
I1
s.(dp0
Vdd6t358
p1
I1
sVd0bvm0y
p2
I1
s.(dp0
Vde874yr
p1
I1
sVd0bvm0y
p2
I1
s.(dp0
Vdeeyqvm
p1
I1
sVd0bvm0y
p2
I1
s.(dp0
Vdg41pmj
p1
I1
sVd0bvm0y
p2
I1
s.(dp0
Vdg7qex0
p1
I1
sVd0bvm0y
p2
I1
s.(dp0
Vdggi0tm
p1
I1
sVd0bvm0y
p2
I1
s.(dp0
Vdgvaq76
p1
I1
sVd0bvm0y
p2
I1
s.(dp0
Vdirb197
p1
I1
sVd0bvm0y
p2
I1
s.(dp0
Vdjlaczi
p1
I1
sVd0bvm0y
p2
I1
s.(dp0
Vdjlaczi
p1
I1
sVd0bvm0y
p2
I1
s.(dp0
Vdjlo70d
p1
I1
sVd0bvm0y
p2
I1
s.(dp0
Vdjy67pp
p1
I1
sVd0bvm0y
p2
I1
s.(dp0
Vdk0y1dl
p1
I1
sVd0bvm0y
p2
I1
s.(dp0
Vdkgaluo
p1
I1
sVd0bvm0y
p2
I1
s.(dp0
Vdmxv3jg
p1
I1
sVd0bvm0y
p2
I1
s.(dp0
Vdnpld7h
p1
I1
sVd0bvm0y
p2
I1
s.