(dp0
Vcyi9do0
p1
I1
s.(dp0
Vcyi9do0
p1
I1
sVcynrq4l
p2
I1
s.(dp0
Vcyo9lxe
p1
I1
sVcyi9do0
p2
I1
s.(dp0
Vcyi9do0
p1
I1
sVczfoc0e
p2
I1
s.(dp0
Vczkzukl
p1
I1
sVcyi9do0
p2
I1
s.(dp0
Vd07ozlj
p1
I1
sVcyi9do0
p2
I1
s.(dp0
Vd0ealyh
p1
I1
sVcyi9do0
p2
I1
s.(dp0
Vd0fpokr
p1
I1
sVcyi9do0
p2
I1
s.(dp0
Vd0spehq
p1
I1
sVcyi9do0
p2
I1
s.(dp0
Vd102qov
p1
I1
sVcyi9do0
p2
I1
s.(dp0
Vd1aw08y
p1
I1
sVcyi9do0
p2
I1
s.(dp0
Vd1ogpu0
p1
I1
sVcyi9do0
p2
I1
s.(dp0
Vd1rqv7v
p1
I1
sVcyi9do0
p2
I1
s.(dp0
Vcyi9do0
p1
I1
sVd1za3l5
p2
I1
s.(dp0
Vcyi9do0
p1
I1
sVd1za3l5
p2
I1
s.(dp0
Vcyi9do0
p1
I1
sVd42axsl
p2
I1
s.(dp0
Vcyi9do0
p1
I1
sVd4f7kw3
p2
I1
s.(dp0
Vcyi9do0
p1
I1
sVd4pn13v
p2
I1
s.(dp0
Vd5dokwk
p1
I1
sVcyi9do0
p2
I1
s.(dp0
Vcyi9do0
p1
I1
sVd5n7pk0
p2
I1
s.(dp0
Vd64ofch
p1
I1
sVcyi9do0
p2
I1
s.(dp0
Vd85nqwx
p1
I1
sVcyi9do0
p2
I1
s.(dp0
Vcyi9do0
p1
I1
sVd8gpdp6
p2
I1
s.(dp0
Vd8pr46i
p1
I1
sVcyi9do0
p2
I1
s.(dp0
Vdacuaov
p1
I1
sVcyi9do0
p2
I1
s.(dp0
Vcyi9do0
p1
I1
sVdb13vzd
p2
I1
s.(dp0
Vcyi9do0
p1
I1
sVdbhsluu
p2
I1
s.(dp0
Vcyi9do0
p1
I1
sVdbhsluu
p2
I1
s.(dp0
Vcyi9do0
p1
I1
sVdbvex5u
p2
I1
s.(dp0
Vdd8t7rm
p1
I1
sVcyi9do0
p2
I1
s.(dp0
Vddka6pa
p1
I1
sVcyi9do0
p2
I1
s.(dp0
Vddojijf
p1
I1
sVcyi9do0
p2
I1
s.(dp0
Vdehlwkr
p1
I1
sVcyi9do0
p2
I1
s.(dp0
Vcyi9do0
p1
I1
sVdezsf84
p2
I1
s.(dp0
Vcyi9do0
p1
I1
sVdfe9ql7
p2
I1
s.(dp0
Vcyi9do0
p1
I1
sVdflemaf
p2
I1
s.(dp0
Vdfo6e84
p1
I1
sVcyi9do0
p2
I1
s.(dp0
Vcyi9do0
p1
I1
sVdftx09t
p2
I1
s.(dp0
Vcyi9do0
p1
I1
sVdg5kt14
p2
I1
s.(dp0
Vdgm8d7y
p1
I1
sVcyi9do0
p2
I1
s.(dp0
Vcyi9do0
p1
I1
sVdhn825o
p2
I1
s.(dp0
Vcyi9do0
p1
I1
sVdi3kiua
p2
I1
s.(dp0
Vdildxpp
p1
I1
sVcyi9do0
p2
I1
s.(dp0
Vcyi9do0
p1
I1
sVdipa7oh
p2
I1
s.(dp0
Vcyi9do0
p1
I1
sVdir0nxq
p2
I1
s.(dp0
Vcyi9do0
p1
I1
sVdizzq4z
p2
I1
s.(dp0
Vcyi9do0
p1
I1
sVdjkl7vh
p2
I1
s.(dp0
Vcyi9do0
p1
I1
sVdjnuurj
p2
I1
s.(dp0
Vcyi9do0
p1
I1
sVdobo01d
p2
I1
s.