(dp0
Vczkxy7z
p1
I1
s.(dp0
Vd06o8tp
p1
I1
sVczkxy7z
p2
I1
s.(dp0
Vd4chkhc
p1
I1
sVczkxy7z
p2
I1
s.(dp0
Vd4vwuw8
p1
I1
sVczkxy7z
p2
I1
s.(dp0
Vd5b4h5a
p1
I1
sVczkxy7z
p2
I1
s.(dp0
Vd6abc7e
p1
I1
sVczkxy7z
p2
I1
s.(dp0
Vd6wi01b
p1
I1
sVczkxy7z
p2
I1
s.(dp0
Vd70ny5h
p1
I1
sVczkxy7z
p2
I1
s.(dp0
Vd70o8vu
p1
I1
sVczkxy7z
p2
I1
s.(dp0
Vd838gzq
p1
I1
sVczkxy7z
p2
I1
s.(dp0
Vd9d5pse
p1
I1
sVczkxy7z
p2
I1
s.(dp0
Vd9xonb9
p1
I1
sVczkxy7z
p2
I1
s.(dp0
Vd9yvns0
p1
I1
sVczkxy7z
p2
I1
s.(dp0
Vdaqsy92
p1
I1
sVczkxy7z
p2
I1
s.(dp0
Vdb53e7s
p1
I1
sVczkxy7z
p2
I1
s.(dp0
Vdbqwwjg
p1
I1
sVczkxy7z
p2
I1
s.(dp0
Vddf22ax
p1
I1
sVczkxy7z
p2
I1
s.(dp0
Vddhkkkv
p1
I1
sVczkxy7z
p2
I1
s.(dp0
Vddlylfr
p1
I1
sVczkxy7z
p2
I1
s.(dp0
Vddzco8i
p1
I1
sVczkxy7z
p2
I1
s.(dp0
Vdeayr7j
p1
I1
sVczkxy7z
p2
I1
s.(dp0
Vdf52ux2
p1
I1
sVczkxy7z
p2
I1
s.(dp0
Vdfu1h8o
p1
I1
sVczkxy7z
p2
I1
s.(dp0
Vdg934jy
p1
I1
sVczkxy7z
p2
I1
s.(dp0
Vdhbtt02
p1
I1
sVczkxy7z
p2
I1
s.(dp0
Vdij0ydg
p1
I1
sVczkxy7z
p2
I1
s.(dp0
Vdikjtcj
p1
I1
sVczkxy7z
p2
I1
s.(dp0
Vdmsl9ou
p1
I1
sVczkxy7z
p2
I1
s.(dp0
Vdn2p4b8
p1
I1
sVczkxy7z
p2
I1
s.(dp0
Vdobnhhb
p1
I1
sVczkxy7z
p2
I1
s.