(dp0
Vcylxq6p
p1
I1
s.(dp0
Vcylxq6p
p1
I2
s.(dp0
Vcylxq6p
p1
I1
sVcynuck3
p2
I1
s.(dp0
Vcylxq6p
p1
I1
sVcypqywq
p2
I1
s.(dp0
Vcz2pksn
p1
I1
sVcylxq6p
p2
I1
s.(dp0
Vcz2pksn
p1
I1
sVcylxq6p
p2
I1
s.(dp0
Vcznlb5f
p1
I1
sVcylxq6p
p2
I1
s.(dp0
Vczt114b
p1
I1
sVcylxq6p
p2
I1
s.(dp0
Vczumbzo
p1
I1
sVcylxq6p
p2
I1
s.(dp0
Vczumbzo
p1
I1
sVcylxq6p
p2
I1
s.(dp0
Vd01m6dk
p1
I1
sVcylxq6p
p2
I1
s.(dp0
Vd08bb95
p1
I1
sVcylxq6p
p2
I1
s.(dp0
Vcylxq6p
p1
I1
sVd0bm87b
p2
I1
s.(dp0
Vd0gi4lo
p1
I1
sVcylxq6p
p2
I1
s.(dp0
Vcylxq6p
p1
I1
sVd0u6dji
p2
I1
s.(dp0
Vcylxq6p
p1
I1
sVd16logy
p2
I1
s.(dp0
Vd1j591b
p1
I1
sVcylxq6p
p2
I1
s.(dp0
Vcylxq6p
p1
I1
sVd2gg0qs
p2
I1
s.(dp0
Vcylxq6p
p1
I1
sVd44osux
p2
I1
s.(dp0
Vd4cyl83
p1
I1
sVcylxq6p
p2
I1
s.(dp0
Vcylxq6p
p1
I1
sVd4cymbg
p2
I1
s.(dp0
Vcylxq6p
p1
I1
sVd53ahzp
p2
I1
s.(dp0
Vd55c15r
p1
I1
sVcylxq6p
p2
I1
s.(dp0
Vd5c674n
p1
I1
sVcylxq6p
p2
I1
s.(dp0
Vd5yidzt
p1
I1
sVcylxq6p
p2
I1
s.(dp0
Vd7naghh
p1
I1
sVcylxq6p
p2
I1
s.(dp0
Vd8s4kza
p1
I1
sVcylxq6p
p2
I1
s.(dp0
Vcylxq6p
p1
I1
sVd8tcacq
p2
I1
s.(dp0
Vd993jjm
p1
I1
sVcylxq6p
p2
I1
s.(dp0
Vcylxq6p
p1
I1
sVd9l2mhf
p2
I1
s.(dp0
Vdahb5po
p1
I1
sVcylxq6p
p2
I1
s.(dp0
Vdam32t6
p1
I1
sVcylxq6p
p2
I1
s.(dp0
Vcylxq6p
p1
I1
sVdbe8pf9
p2
I1
s.(dp0
Vcylxq6p
p1
I1
sVdbmxauw
p2
I1
s.(dp0
Vcylxq6p
p1
I1
sVdbr1yws
p2
I1
s.(dp0
Vdc2eub8
p1
I1
sVcylxq6p
p2
I1
s.(dp0
Vdc2eub8
p1
I1
sVcylxq6p
p2
I1
s.(dp0
Vdcf6p60
p1
I1
sVcylxq6p
p2
I1
s.(dp0
Vdcsuy3k
p1
I1
sVcylxq6p
p2
I1
s.(dp0
Vdd4f7zu
p1
I1
sVcylxq6p
p2
I1
s.(dp0
Vddczkbp
p1
I1
sVcylxq6p
p2
I1
s.(dp0
Vddczkbp
p1
I1
sVcylxq6p
p2
I1
s.(dp0
Vcylxq6p
p1
I1
sVddkghhh
p2
I1
s.(dp0
Vddpkq3d
p1
I1
sVcylxq6p
p2
I1
s.(dp0
Vddtrgnu
p1
I1
sVcylxq6p
p2
I1
s.(dp0
Vcylxq6p
p1
I1
sVddtu1p0
p2
I1
s.(dp0
Vcylxq6p
p1
I1
sVddu8t5z
p2
I1
s.(dp0
Vcylxq6p
p1
I1
sVddvh6sy
p2
I1
s.(dp0
Vcylxq6p
p1
I1
sVddvh6sy
p2
I1
s.(dp0
Vdei5gmn
p1
I1
sVcylxq6p
p2
I1
s.(dp0
Vcylxq6p
p1
I1
sVdf0r7vx
p2
I1
s.(dp0
Vcylxq6p
p1
I1
sVdf934fl
p2
I1
s.(dp0
Vdfbb13i
p1
I1
sVcylxq6p
p2
I1
s.(dp0
Vdfbfdnd
p1
I1
sVcylxq6p
p2
I1
s.(dp0
Vdfemaw3
p1
I1
sVcylxq6p
p2
I1
s.(dp0
Vcylxq6p
p1
I1
sVdgjl3vt
p2
I1
s.(dp0
Vcylxq6p
p1
I1
sVdgjl3vt
p2
I1
s.(dp0
Vcylxq6p
p1
I1
sVdhpiuad
p2
I1
s.(dp0
Vcylxq6p
p1
I1
sVdhu8pgd
p2
I1
s.(dp0
Vcylxq6p
p1
I1
sVdhu8pgd
p2
I1
s.(dp0
Vdhymqx9
p1
I1
sVcylxq6p
p2
I1
s.(dp0
Vdklo4i8
p1
I1
sVcylxq6p
p2
I1
s.(dp0
Vcylxq6p
p1
I1
sVdmqrrfu
p2
I1
s.(dp0
Vcylxq6p
p1
I1
sVdmqrrfu
p2
I1
s.(dp0
Vcylxq6p
p1
I1
sVdo1x569
p2
I1
s.(dp0
Vdohdsx1
p1
I1
sVcylxq6p
p2
I1
s.(dp0
Vdohdsx1
p1
I1
sVcylxq6p
p2
I1
s.(dp0
Vdohdsx1
p1
I1
sVcylxq6p
p2
I1
s.