(dp0
Vcymvmzl
p1
I1
s.(dp0
Vcymvmzl
p1
I2
s.(dp0
Vcymvmzl
p1
I1
sVcynuck3
p2
I1
s.(dp0
Vcymvmzl
p1
I1
sVcyp2zhl
p2
I1
s.(dp0
Vcyprr5e
p1
I1
sVcymvmzl
p2
I1
s.(dp0
Vcysigl4
p1
I1
sVcymvmzl
p2
I1
s.(dp0
Vcyx2c3c
p1
I1
sVcymvmzl
p2
I1
s.(dp0
Vcymvmzl
p1
I1
sVcz4l6pd
p2
I1
s.(dp0
Vcymvmzl
p1
I1
sVcz7ufkl
p2
I1
s.(dp0
Vczaur4t
p1
I1
sVcymvmzl
p2
I1
s.(dp0
Vcymvmzl
p1
I1
sVczgbipx
p2
I1
s.(dp0
Vcymvmzl
p1
I1
sVczgbipx
p2
I1
s.(dp0
Vczh2hvb
p1
I1
sVcymvmzl
p2
I1
s.(dp0
Vczj6q6y
p1
I1
sVcymvmzl
p2
I1
s.(dp0
Vcymvmzl
p1
I1
sVczjbhn6
p2
I1
s.(dp0
Vczk178t
p1
I1
sVcymvmzl
p2
I1
s.(dp0
Vcymvmzl
p1
I1
sVcznumg3
p2
I1
s.(dp0
Vcymvmzl
p1
I1
sVczx63zp
p2
I1
s.(dp0
Vcymvmzl
p1
I1
sVd03ksfg
p2
I1
s.(dp0
Vd0faj7p
p1
I1
sVcymvmzl
p2
I1
s.(dp0
Vd0qk4f4
p1
I1
sVcymvmzl
p2
I1
s.(dp0
Vd0waf02
p1
I1
sVcymvmzl
p2
I1
s.(dp0
Vcymvmzl
p1
I1
sVd0yu5le
p2
I1
s.(dp0
Vd0yyy4p
p1
I1
sVcymvmzl
p2
I1
s.(dp0
Vd10qmd1
p1
I1
sVcymvmzl
p2
I1
s.(dp0
Vd14wdu1
p1
I1
sVcymvmzl
p2
I1
s.(dp0
Vcymvmzl
p1
I1
sVd1e3w77
p2
I1
s.(dp0
Vd1mz7ta
p1
I1
sVcymvmzl
p2
I1
s.(dp0
Vd1wdy8k
p1
I1
sVcymvmzl
p2
I1
s.(dp0
Vd1wf58k
p1
I1
sVcymvmzl
p2
I1
s.(dp0
Vd233j9p
p1
I1
sVcymvmzl
p2
I1
s.(dp0
Vcymvmzl
p1
I1
sVd254wvw
p2
I1
s.(dp0
Vcymvmzl
p1
I1
sVd26lrni
p2
I1
s.(dp0
Vcymvmzl
p1
I1
sVd2iq769
p2
I1
s.(dp0
Vcymvmzl
p1
I1
sVd2k0oh7
p2
I1
s.(dp0
Vcymvmzl
p1
I1
sVd2n6ard
p2
I1
s.(dp0
Vcymvmzl
p1
I1
sVd2qgpua
p2
I1
s.(dp0
Vd2qvtia
p1
I1
sVcymvmzl
p2
I1
s.(dp0
Vd303p7v
p1
I1
sVcymvmzl
p2
I1
s.(dp0
Vd33eoxw
p1
I1
sVcymvmzl
p2
I1
s.(dp0
Vcymvmzl
p1
I1
sVd3b50fr
p2
I1
s.(dp0
Vd3bsc3m
p1
I1
sVcymvmzl
p2
I1
s.(dp0
Vd3bsc3m
p1
I1
sVcymvmzl
p2
I1
s.(dp0
Vd3c4s7q
p1
I1
sVcymvmzl
p2
I1
s.(dp0
Vd3k9o3l
p1
I1
sVcymvmzl
p2
I1
s.(dp0
Vcymvmzl
p1
I1
sVd3qcvcv
p2
I1
s.(dp0
Vcymvmzl
p1
I1
sVd3tpntj
p2
I1
s.(dp0
Vd3v7p9k
p1
I1
sVcymvmzl
p2
I1
s.(dp0
Vcymvmzl
p1
I1
sVd4lm5aq
p2
I1
s.(dp0
Vcymvmzl
p1
I1
sVd50g7xo
p2
I1
s.(dp0
Vd51hrob
p1
I1
sVcymvmzl
p2
I1
s.(dp0
Vcymvmzl
p1
I1
sVd63who1
p2
I1
s.(dp0
Vcymvmzl
p1
I1
sVd63wx2o
p2
I1
s.(dp0
Vd69wv29
p1
I1
sVcymvmzl
p2
I1
s.(dp0
Vd69wv29
p1
I1
sVcymvmzl
p2
I1
s.(dp0
Vd69wv29
p1
I1
sVcymvmzl
p2
I1
s.(dp0
Vd6du0ru
p1
I1
sVcymvmzl
p2
I1
s.(dp0
Vd6ilyh5
p1
I1
sVcymvmzl
p2
I1
s.(dp0
Vd6r44dn
p1
I1
sVcymvmzl
p2
I1
s.(dp0
Vd7596tq
p1
I1
sVcymvmzl
p2
I1
s.(dp0
Vd7cpgrr
p1
I1
sVcymvmzl
p2
I1
s.(dp0
Vcymvmzl
p1
I1
sVd7jzhdm
p2
I1
s.(dp0
Vcymvmzl
p1
I1
sVd7nfcsw
p2
I1
s.(dp0
Vd7p7u4k
p1
I1
sVcymvmzl
p2
I1
s.(dp0
Vd7ujfwl
p1
I1
sVcymvmzl
p2
I1
s.(dp0
Vcymvmzl
p1
I1
sVd83v1ld
p2
I1
s.(dp0
Vcymvmzl
p1
I1
sVd865kwh
p2
I1
s.(dp0
Vcymvmzl
p1
I1
sVd8javpe
p2
I1
s.(dp0
Vcymvmzl
p1
I1
sVd8ua0ti
p2
I1
s.(dp0
Vd9087k5
p1
I1
sVcymvmzl
p2
I1
s.(dp0
Vd92h72z
p1
I1
sVcymvmzl
p2
I1
s.(dp0
Vcymvmzl
p1
I1
sVd974yd8
p2
I1
s.(dp0
Vd9boknx
p1
I1
sVcymvmzl
p2
I1
s.(dp0
Vd9fnl30
p1
I1
sVcymvmzl
p2
I1
s.(dp0
Vd9i7v5l
p1
I1
sVcymvmzl
p2
I1
s.(dp0
Vcymvmzl
p1
I1
sVd9ijkfg
p2
I1
s.(dp0
Vcymvmzl
p1
I1
sVd9ncfr3
p2
I1
s.(dp0
Vda280b1
p1
I1
sVcymvmzl
p2
I1
s.(dp0
Vcymvmzl
p1
I1
sVda33n3r
p2
I1
s.(dp0
Vdabopo8
p1
I1
sVcymvmzl
p2
I1
s.(dp0
Vdaecw9w
p1
I1
sVcymvmzl
p2
I1
s.(dp0
Vcymvmzl
p1
I1
sVdaltawu
p2
I1
s.(dp0
Vdauw2cf
p1
I1
sVcymvmzl
p2
I1
s.(dp0
Vcymvmzl
p1
I1
sVdawveca
p2
I1
s.(dp0
Vdaxsgqd
p1
I1
sVcymvmzl
p2
I1
s.(dp0
Vcymvmzl
p1
I1
sVdb27hlr
p2
I1
s.(dp0
Vcymvmzl
p1
I1
sVdc9oxge
p2
I1
s.(dp0
Vdcbjjbr
p1
I1
sVcymvmzl
p2
I1
s.(dp0
Vdcbzl1s
p1
I1
sVcymvmzl
p2
I1
s.(dp0
Vcymvmzl
p1
I1
sVdcdb2gg
p2
I1
s.(dp0
Vdcibeue
p1
I1
sVcymvmzl
p2
I1
s.(dp0
Vdcibeue
p1
I1
sVcymvmzl
p2
I1
s.(dp0
Vcymvmzl
p1
I1
sVdcry9el
p2
I1
s.(dp0
Vdd2nt30
p1
I1
sVcymvmzl
p2
I1
s.(dp0
Vdd7z7kh
p1
I1
sVcymvmzl
p2
I1
s.(dp0
Vdd8mf57
p1
I1
sVcymvmzl
p2
I1
s.(dp0
Vddc817t
p1
I1
sVcymvmzl
p2
I1
s.(dp0
Vdde8rv4
p1
I1
sVcymvmzl
p2
I1
s.(dp0
Vcymvmzl
p1
I1
sVddj8c9m
p2
I1
s.(dp0
Vcymvmzl
p1
I1
sVddrayj0
p2
I1
s.(dp0
Vcymvmzl
p1
I1
sVde1yf3n
p2
I1
s.(dp0
Vcymvmzl
p1
I1
sVde2ix13
p2
I1
s.(dp0
Vcymvmzl
p1
I1
sVde2obm1
p2
I1
s.(dp0
Vde33rcx
p1
I1
sVcymvmzl
p2
I1
s.(dp0
Vde5ce0k
p1
I1
sVcymvmzl
p2
I1
s.(dp0
Vcymvmzl
p1
I1
sVdecfxvt
p2
I1
s.(dp0
Vdeh89mu
p1
I1
sVcymvmzl
p2
I1
s.(dp0
Vcymvmzl
p1
I1
sVdeksu0e
p2
I1
s.(dp0
Vcymvmzl
p1
I1
sVde(dp0
Vdp4wmye
p1
I1
sVcymvmzl
p2
I1
s.