(dp0
Vczyug91
p1
I1
s.(dp0
Vczyug91
p1
I1
sVczz240l
p2
I1
s.(dp0
Vczyug91
p1
I1
sVczz240l
p2
I1
s.(dp0
Vczyug91
p1
I1
sVd1c4hvj
p2
I1
s.(dp0
Vczyug91
p1
I1
sVd49jpax
p2
I1
s.(dp0
Vd5p11mt
p1
I1
sVczyug91
p2
I1
s.(dp0
Vd5p11mt
p1
I1
sVczyug91
p2
I1
s.(dp0
Vd666dyw
p1
I1
sVczyug91
p2
I1
s.(dp0
Vczyug91
p1
I1
sVd7ay85v
p2
I1
s.(dp0
Vczyug91
p1
I1
sVd8p18ad
p2
I1
s.(dp0
Vczyug91
p1
I1
sVd8p18ad
p2
I1
s.(dp0
Vd9m9dzn
p1
I1
sVczyug91
p2
I1
s.(dp0
Vczyug91
p1
I1
sVdbfdkqq
p2
I1
s.(dp0
Vczyug91
p1
I1
sVdbfdkqq
p2
I1
s.(dp0
Vdbiur8q
p1
I1
sVczyug91
p2
I1
s.(dp0
Vdd69997
p1
I1
sVczyug91
p2
I1
s.(dp0
Vde4yd06
p1
I1
sVczyug91
p2
I1
s.(dp0
Vdeca86a
p1
I1
sVczyug91
p2
I1
s.(dp0
Vdgfl4wp
p1
I1
sVczyug91
p2
I1
s.(dp0
Vdgfl4wp
p1
I1
sVczyug91
p2
I1
s.(dp0
Vdgkw6dj
p1
I1
sVczyug91
p2
I1
s.(dp0
Vdhrbwc5
p1
I1
sVczyug91
p2
I1
s.(dp0
Vdi0exw2
p1
I1
sVczyug91
p2
I1
s.(dp0
Vczyug91
p1
I1
sVdj38i8y
p2
I1
s.(dp0
Vczyug91
p1
I1
sVdj38i8y
p2
I1
s.(dp0
Vdk4mmqr
p1
I1
sVczyug91
p2
I1
s.(dp0
Vdk4mmqr
p1
I1
sVczyug91
p2
I1
s.(dp0
Vdk4mmqr
p1
I1
sVczyug91
p2
I1
s.(dp0
Vdk4mmqr
p1
I1
sVczyug91
p2
I1
s.(dp0
Vdk4mmqr
p1
I1
sVczyug91
p2
I1
s.(dp0
Vdk4mmqr
p1
I1
sVczyug91
p2
I1
s.