(dp0
Vcyj6gxj
p1
I1
s.(dp0
Vcyj6gxj
p1
I1
sVcytwvos
p2
I1
s.(dp0
Vcyj6gxj
p1
I1
sVcytwvos
p2
I1
s.(dp0
Vcyj6gxj
p1
I1
sVcyy21iv
p2
I1
s.(dp0
Vcyj6gxj
p1
I1
sVcz2mquu
p2
I1
s.(dp0
Vcyj6gxj
p1
I1
sVcz2s8e8
p2
I1
s.(dp0
Vcyj6gxj
p1
I1
sVcz381vh
p2
I1
s.(dp0
Vcyj6gxj
p1
I1
sVczcbus1
p2
I1
s.(dp0
Vcyj6gxj
p1
I1
sVczcbus1
p2
I1
s.(dp0
Vcyj6gxj
p1
I1
sVczhkx1x
p2
I1
s.(dp0
Vczhz9iz
p1
I1
sVcyj6gxj
p2
I1
s.(dp0
Vcyj6gxj
p1
I1
sVczi1j41
p2
I1
s.(dp0
Vcyj6gxj
p1
I1
sVczi2ioe
p2
I1
s.(dp0
Vcyj6gxj
p1
I1
sVczi2ioe
p2
I1
s.(dp0
Vcyj6gxj
p1
I1
sVczign5m
p2
I1
s.(dp0
Vcyj6gxj
p1
I1
sVcziwbwc
p2
I1
s.(dp0
Vcyj6gxj
p1
I1
sVczxvkk8
p2
I1
s.(dp0
Vczz9bka
p1
I1
sVcyj6gxj
p2
I1
s.(dp0
Vd041bum
p1
I1
sVcyj6gxj
p2
I1
s.(dp0
Vd044dh7
p1
I1
sVcyj6gxj
p2
I1
s.(dp0
Vd044dh7
p1
I1
sVcyj6gxj
p2
I1
s.(dp0
Vcyj6gxj
p1
I1
sVd04tbzh
p2
I1
s.(dp0
Vcyj6gxj
p1
I1
sVd13jrcd
p2
I1
s.(dp0
Vcyj6gxj
p1
I1
sVd13jrcd
p2
I1
s.(dp0
Vcyj6gxj
p1
I1
sVd195ahe
p2
I1
s.(dp0
Vd1k30m9
p1
I1
sVcyj6gxj
p2
I1
s.(dp0
Vd1k9br0
p1
I1
sVcyj6gxj
p2
I1
s.(dp0
Vcyj6gxj
p1
I1
sVd1p17va
p2
I1
s.(dp0
Vd1t7hys
p1
I1
sVcyj6gxj
p2
I1
s.(dp0
Vcyj6gxj
p1
I1
sVd2gtpw8
p2
I1
s.(dp0
Vcyj6gxj
p1
I1
sVd2juhbh
p2
I1
s.(dp0
Vcyj6gxj
p1
I1
sVd2kgie3
p2
I1
s.(dp0
Vcyj6gxj
p1
I1
sVd2z1vrb
p2
I1
s.(dp0
Vcyj6gxj
p1
I1
sVd3iuaay
p2
I1
s.(dp0
Vcyj6gxj
p1
I1
sVd3jaxv4
p2
I1
s.(dp0
Vcyj6gxj
p1
I1
sVd3xc2fn
p2
I1
s.(dp0
Vcyj6gxj
p1
I1
sVd42bsmb
p2
I1
s.(dp0
Vcyj6gxj
p1
I1
sVd4gzmur
p2
I1
s.(dp0
Vd52xo4m
p1
I1
sVcyj6gxj
p2
I1
s.(dp0
Vcyj6gxj
p1
I1
sVd5cxigm
p2
I1
s.(dp0
Vd5fp81e
p1
I1
sVcyj6gxj
p2
I1
s.(dp0
Vcyj6gxj
p1
I1
sVd5q6vsg
p2
I1
s.(dp0
Vd5v5bje
p1
I1
sVcyj6gxj
p2
I1
s.(dp0
Vcyj6gxj
p1
I1
sVd67t7a5
p2
I1
s.(dp0
Vcyj6gxj
p1
I1
sVd6n3kw6
p2
I1
s.(dp0
Vd7r95q4
p1
I1
sVcyj6gxj
p2
I1
s.(dp0
Vcyj6gxj
p1
I1
sVd883fho
p2
I1
s.(dp0
Vcyj6gxj
p1
I1
sVd88jsm6
p2
I1
s.(dp0
Vd8alhsg
p1
I1
sVcyj6gxj
p2
I1
s.(dp0
Vcyj6gxj
p1
I1
sVd8k8ioz
p2
I1
s.(dp0
Vd9d2lau
p1
I1
sVcyj6gxj
p2
I1
s.(dp0
Vd9l23rr
p1
I1
sVcyj6gxj
p2
I1
s.(dp0
Vcyj6gxj
p1
I1
sVd9l2buy
p2
I1
s.(dp0
Vcyj6gxj
p1
I1
sVda1q7vu
p2
I1
s.(dp0
Vcyj6gxj
p1
I1
sVdahghyp
p2
I1
s.(dp0
Vcyj6gxj
p1
I1
sVdan8pl4
p2
I1
s.(dp0
Vdando5n
p1
I1
sVcyj6gxj
p2
I1
s.(dp0
Vdbbvup1
p1
I1
sVcyj6gxj
p2
I1
s.(dp0
Vcyj6gxj
p1
I1
sVdbcl8es
p2
I1
s.(dp0
Vcyj6gxj
p1
I1
sVdbcl8es
p2
I1
s.(dp0
Vcyj6gxj
p1
I1
sVdbnnkjs
p2
I1
s.(dp0
Vcyj6gxj
p1
I1
sVdbnnkjs
p2
I1
s.(dp0
Vcyj6gxj
p1
I1
sVdbnnkjs
p2
I1
s.(dp0
Vcyj6gxj
p1
I1
sVdbwdn8f
p2
I1
s.(dp0
Vcyj6gxj
p1
I1
sVdc2jn4d
p2
I1
s.(dp0
Vcyj6gxj
p1
I1
sVdcg50pa
p2
I1
s.(dp0
Vcyj6gxj
p1
I1
sVdd3apkm
p2
I1
s.(dp0
Vdd4lofv
p1
I1
sVcyj6gxj
p2
I1
s.(dp0
Vdd4lofv
p1
I1
sVcyj6gxj
p2
I1
s.(dp0
Vcyj6gxj
p1
I1
sVdd9089l
p2
I1
s.(dp0
Vcyj6gxj
p1
I1
sVddc8qz4
p2
I1
s.(dp0
Vcyj6gxj
p1
I1
sVddjarlq
p2
I1
s.(dp0
Vcyj6gxj
p1
I1
sVddjn342
p2
I1
s.(dp0
Vcyj6gxj
p1
I1
sVdds7jk4
p2
I1
s.(dp0
Vcyj6gxj
p1
I1
sVdecyaq4
p2
I1
s.(dp0
Vcyj6gxj
p1
I1
sVdedm5wq
p2
I1
s.(dp0
Vcyj6gxj
p1
I1
sVdeh98fn
p2
I1
s.(dp0
Vcyj6gxj
p1
I1
sVdeh98fn
p2
I1
s.(dp0
Vcyj6gxj
p1
I1
sVdev0os3
p2
I1
s.(dp0
Vcyj6gxj
p1
I1
sVdev0os3
p2
I1
s.(dp0
Vdf8a24x
p1
I1
sVcyj6gxj
p2
I1
s.(dp0
Vcyj6gxj
p1
I1
sVdf9b2bn
p2
I1
s.(dp0
Vcyj6gxj
p1
I1
sVdfibe3x
p2
I1
s.(dp0
Vcyj6gxj
p1
I1
sVdfibe3x
p2
I1
s.(dp0
Vcyj6gxj
p1
I1
sVdfwgb0r
p2
I1
s.(dp0
Vcyj6gxj
p1
I1
sVdfwgb0r
p2
I1
s.(dp0
Vcyj6gxj
p1
I1
sVdg9c8c3
p2
I1
s.(dp0
Vcyj6gxj
p1
I1
sVdg9c8c3
p2
I1
s.(dp0
Vcyj6gxj
p1
I1
sVdg9covu
p2
I1
s.(dp0
Vcyj6gxj
p1
I1
sVdgai0d7
p2
I1
s.(dp0
Vdgdvcmh
p1
I1
sVcyj6gxj
p2
I1
s.(dp0
Vdgdvcmh
p1
I1
sVcyj6gxj
p2
I1
s.(dp0
Vcyj6gxj
p1
I1
sVdgiiwfb
p2
I1
s.(dp0
Vcyj6gxj
p1
I1
sVdgina65
p2
I1
s.(dp0
Vcyj6gxj
p1
I1
sVdgj176t
p2
I1
s.(dp0
Vdgkzr26
p1
I1
sVcyj6gxj
p2
I1
s.(dp0
Vcyj6gxj
p1
I1
sVdgmexc3
p2
I1
s.(dp0
Vcyj6gxj
p1
I1
sVdgmx6x0
p2
I1
s.(dp0
Vcyj6gxj
p1
I1
sVdgqno9f
p2
I1
s.(dp0
Vcyj6gxj
p1
I1
sVdh3aqii
p2
I1
s.(dp0
Vcyj6gxj
p1
I1
sVdh6we0c
p2
I1
s.(dp0
Vcyj6gxj
p1
I1
sVdh6we0c
p2
I1
s.(dp0
Vcyj6gxj
p1
I1
sVdh6we0c
p2
I1
s.(dp0
Vdhaypnf
p1
I1
sVcyj6gxj
p2
I1
s.(dp0
Vcyj6gxj
p1
I1
sVdhbjbus
p2
I1
s.(dp0
Vcyj6gxj
p1
I1
sVdhzwm8q
p2
I1
s.(dp0
Vdi52tep
p1
I1
sVcyj6gxj
p2
I1
s.(dp0
Vdi543t7
p1
I1
sVcyj6gxj
p2
I1
s.(dp0
Vcy(dp0
Vcyj6gxj
p1
I1
sVdorz7pg
p2
I1
s.