(dp0
Vcylabdl
p1
I1
s.(dp0
Vcylabdl
p1
I1
sVcymz6af
p2
I1
s.(dp0
Vcylabdl
p1
I1
sVcynuck3
p2
I1
s.(dp0
Vcylabdl
p1
I1
sVcynuck3
p2
I1
s.(dp0
Vcylabdl
p1
I1
sVcyppotf
p2
I1
s.(dp0
Vcylabdl
p1
I1
sVcyqdku6
p2
I1
s.(dp0
Vcylabdl
p1
I1
sVcyteo7k
p2
I1
s.(dp0
Vcylabdl
p1
I1
sVcyus4o7
p2
I1
s.(dp0
Vcylabdl
p1
I1
sVcyvbod9
p2
I1
s.(dp0
Vcylabdl
p1
I1
sVcyvbod9
p2
I1
s.(dp0
Vcyygcha
p1
I1
sVcylabdl
p2
I1
s.(dp0
Vcylabdl
p1
I1
sVcz06dt2
p2
I1
s.(dp0
Vcylabdl
p1
I1
sVcz0b9q7
p2
I1
s.(dp0
Vcylabdl
p1
I1
sVcz1pqmo
p2
I1
s.(dp0
Vcylabdl
p1
I1
sVczg13gw
p2
I1
s.(dp0
Vcylabdl
p1
I1
sVczk1z2w
p2
I1
s.(dp0
Vcylabdl
p1
I1
sVczk319t
p2
I1
s.(dp0
Vcylabdl
p1
I1
sVczl0tx3
p2
I1
s.(dp0
Vcylabdl
p1
I1
sVczmb4qu
p2
I1
s.(dp0
Vczta25y
p1
I1
sVcylabdl
p2
I1
s.(dp0
Vcylabdl
p1
I1
sVczucb5d
p2
I1
s.(dp0
Vczud0db
p1
I1
sVcylabdl
p2
I1
s.(dp0
Vcylabdl
p1
I1
sVczuqq43
p2
I1
s.(dp0
Vcylabdl
p1
I1
sVczv0uk2
p2
I1
s.(dp0
Vcylabdl
p1
I1
sVczv0uk2
p2
I1
s.(dp0
Vcylabdl
p1
I1
sVczv0uk2
p2
I1
s.(dp0
Vczztioi
p1
I1
sVcylabdl
p2
I1
s.(dp0
Vd07lve5
p1
I1
sVcylabdl
p2
I1
s.(dp0
Vcylabdl
p1
I1
sVd09h1nb
p2
I1
s.(dp0
Vcylabdl
p1
I1
sVd0bf9gq
p2
I1
s.(dp0
Vcylabdl
p1
I1
sVd0kifxx
p2
I1
s.(dp0
Vcylabdl
p1
I1
sVd0sfbku
p2
I1
s.(dp0
Vcylabdl
p1
I1
sVd0u2ale
p2
I1
s.(dp0
Vcylabdl
p1
I1
sVd0ubhye
p2
I1
s.(dp0
Vcylabdl
p1
I1
sVd10nqh8
p2
I1
s.(dp0
Vd1220xy
p1
I1
sVcylabdl
p2
I1
s.(dp0
Vd14n29k
p1
I1
sVcylabdl
p2
I1
s.(dp0
Vd1686gp
p1
I1
sVcylabdl
p2
I1
s.(dp0
Vd16ohe5
p1
I1
sVcylabdl
p2
I1
s.(dp0
Vd17p6td
p1
I1
sVcylabdl
p2
I1
s.(dp0
Vcylabdl
p1
I1
sVd18s3cl
p2
I1
s.(dp0
Vcylabdl
p1
I1
sVd195n5q
p2
I1
s.(dp0
Vcylabdl
p1
I1
sVd1hrp5b
p2
I1
s.(dp0
Vcylabdl
p1
I1
sVd1lca7e
p2
I1
s.(dp0
Vcylabdl
p1
I1
sVd1ppbek
p2
I1
s.(dp0
Vcylabdl
p1
I1
sVd1q14tu
p2
I1
s.(dp0
Vcylabdl
p1
I1
sVd1q8scf
p2
I1
s.(dp0
Vcylabdl
p1
I1
sVd1qdvrn
p2
I1
s.(dp0
Vcylabdl
p1
I1
sVd1qdvrn
p2
I1
s.(dp0
Vcylabdl
p1
I1
sVd1t880z
p2
I1
s.(dp0
Vcylabdl
p1
I1
sVd1ts5lz
p2
I1
s.(dp0
Vd1zudki
p1
I1
sVcylabdl
p2
I1
s.(dp0
Vcylabdl
p1
I1
sVd20qsfu
p2
I1
s.(dp0
Vd23t0bq
p1
I1
sVcylabdl
p2
I1
s.(dp0
Vcylabdl
p1
I1
sVd23t77j
p2
I1
s.(dp0
Vd284ifg
p1
I1
sVcylabdl
p2
I1
s.(dp0
Vcylabdl
p1
I1
sVd291c2b
p2
I1
s.(dp0
Vcylabdl
p1
I1
sVd2a8xhi
p2
I1
s.(dp0
Vcylabdl
p1
I1
sVd2t1gl7
p2
I1
s.(dp0
Vcylabdl
p1
I1
sVd2t1gl7
p2
I1
s.(dp0
Vd2t57rr
p1
I1
sVcylabdl
p2
I1
s.(dp0
Vd2v195c
p1
I1
sVcylabdl
p2
I1
s.(dp0
Vcylabdl
p1
I1
sVd2w9j78
p2
I1
s.(dp0
Vcylabdl
p1
I1
sVd2z3w8g
p2
I1
s.(dp0
Vcylabdl
p1
I1
sVd2z6n0m
p2
I1
s.(dp0
Vcylabdl
p1
I1
sVd37an3t
p2
I1
s.(dp0
Vcylabdl
p1
I1
sVd39dbx7
p2
I1
s.(dp0
Vd39gyma
p1
I1
sVcylabdl
p2
I1
s.(dp0
Vcylabdl
p1
I1
sVd39hooi
p2
I1
s.(dp0
Vcylabdl
p1
I1
sVd39hooi
p2
I1
s.(dp0
Vcylabdl
p1
I1
sVd3geaqr
p2
I1
s.(dp0
Vcylabdl
p1
I1
sVd3ghotb
p2
I1
s.(dp0
Vcylabdl
p1
I1
sVd3rj9ye
p2
I1
s.(dp0
Vcylabdl
p1
I1
sVd3rj9ye
p2
I1
s.(dp0
Vcylabdl
p1
I1
sVd3w0mxo
p2
I1
s.(dp0
Vcylabdl
p1
I1
sVd49dci8
p2
I1
s.(dp0
Vcylabdl
p1
I1
sVd49dci8
p2
I1
s.(dp0
Vcylabdl
p1
I1
sVd49dci8
p2
I1
s.(dp0
Vd4aj6nm
p1
I1
sVcylabdl
p2
I1
s.(dp0
Vcylabdl
p1
I1
sVd4jr5o9
p2
I1
s.(dp0
Vcylabdl
p1
I1
sVd4s0j3t
p2
I1
s.(dp0
Vd4s71t8
p1
I1
sVcylabdl
p2
I1
s.(dp0
Vd4xjz55
p1
I1
sVcylabdl
p2
I1
s.(dp0
Vd58sipp
p1
I1
sVcylabdl
p2
I1
s.(dp0
Vd58sipp
p1
I1
sVcylabdl
p2
I1
s.(dp0
Vcylabdl
p1
I1
sVd5acqxd
p2
I1
s.(dp0
Vcylabdl
p1
I1
sVd5f12nc
p2
I1
s.(dp0
Vcylabdl
p1
I1
sVd5imwlg
p2
I1
s.(dp0
Vcylabdl
p1
I1
sVd5jttro
p2
I1
s.(dp0
Vd5jw21w
p1
I1
sVcylabdl
p2
I1
s.(dp0
Vd5q574t
p1
I1
sVcylabdl
p2
I1
s.(dp0
Vcylabdl
p1
I1
sVd5vnxw9
p2
I1
s.(dp0
Vcylabdl
p1
I1
sVd63n4r0
p2
I1
s.(dp0
Vcylabdl
p1
I1
sVd6a3teo
p2
I1
s.(dp0
Vd6cdwvj
p1
I1
sVcylabdl
p2
I1
s.(dp0
Vcylabdl
p1
I1
sVd6e6hfg
p2
I1
s.(dp0
Vcylabdl
p1
I1
sVd6j5yry
p2
I1
s.(dp0
Vd6pbkdy
p1
I1
sVcylabdl
p2
I1
s.(dp0
Vcylabdl
p1
I1
sVd6sk1z3
p2
I1
s.(dp0
Vd6zxlkf
p1
I1
sVcylabdl
p2
I1
s.(dp0
Vd71jnr9
p1
I1
sVcylabdl
p2
I1
s.(dp0
Vd72ooba
p1
I1
sVcylabdl
p2
I1
s.(dp0
Vcylabdl
p1
I1
sVd72z291
p2
I1
s.(dp0
Vcylabdl
p1
I1
sVd739il4
p2
I1
s.(dp0
Vcylabdl
p1
I1
sVd745mab
p2
I1
s.(dp0
Vcylabdl
p1
I1
sVd745mab
p2
I1
s.(dp0
Vcylabdl
p1
I1
sVd75rgw3
p2
I1
s.(dp0
Vd7cnii1
p1
I1
sVcylabdl
p2
I1
s.(dp0
Vcy(dp0
Vcylabdl
p1
I1
sVdkxsclo
p2
I1
s.