(dp0
Vcyrjnjg
p1
I1
s.(dp0
Vczfk0d2
p1
I1
sVcyrjnjg
p2
I1
s.(dp0
Vczigyg2
p1
I1
sVcyrjnjg
p2
I1
s.(dp0
Vd073feb
p1
I1
sVcyrjnjg
p2
I1
s.(dp0
Vcyrjnjg
p1
I1
sVd09qtht
p2
I1
s.(dp0
Vcyrjnjg
p1
I1
sVd09qtht
p2
I1
s.(dp0
Vcyrjnjg
p1
I1
sVd0b5p3l
p2
I1
s.(dp0
Vd1cacxi
p1
I1
sVcyrjnjg
p2
I1
s.(dp0
Vd26dtjw
p1
I1
sVcyrjnjg
p2
I1
s.(dp0
Vd2h480c
p1
I1
sVcyrjnjg
p2
I1
s.(dp0
Vcyrjnjg
p1
I1
sVd2ox3v6
p2
I1
s.(dp0
Vd4b8qmy
p1
I1
sVcyrjnjg
p2
I1
s.(dp0
Vd55vm3o
p1
I1
sVcyrjnjg
p2
I1
s.(dp0
Vd5b7wv0
p1
I1
sVcyrjnjg
p2
I1
s.(dp0
Vcyrjnjg
p1
I1
sVd5p36yz
p2
I1
s.(dp0
Vcyrjnjg
p1
I1
sVd6zv2se
p2
I1
s.(dp0
Vd7l33bj
p1
I1
sVcyrjnjg
p2
I1
s.(dp0
Vd7sc10r
p1
I1
sVcyrjnjg
p2
I1
s.(dp0
Vd7u8u8v
p1
I1
sVcyrjnjg
p2
I1
s.(dp0
Vcyrjnjg
p1
I1
sVd9nd444
p2
I1
s.(dp0
Vdb7l65v
p1
I1
sVcyrjnjg
p2
I1
s.(dp0
Vcyrjnjg
p1
I1
sVdbevy4e
p2
I1
s.(dp0
Vdbtmihi
p1
I1
sVcyrjnjg
p2
I1
s.(dp0
Vdcr644z
p1
I1
sVcyrjnjg
p2
I1
s.(dp0
Vcyrjnjg
p1
I1
sVdgm0ltu
p2
I1
s.(dp0
Vcyrjnjg
p1
I1
sVdh0qw9b
p2
I1
s.(dp0
Vcyrjnjg
p1
I1
sVdhc24wn
p2
I1
s.(dp0
Vcyrjnjg
p1
I1
sVdhqv180
p2
I1
s.(dp0
Vcyrjnjg
p1
I1
sVdkevzjo
p2
I1
s.