(dp0
Vcyhtnrc
p1
I1
s.(dp0
Vcyhtnrc
p1
I1
sVcyi3u4r
p2
I1
s.(dp0
Vcyhtnrc
p1
I1
sVcyiv4iw
p2
I1
s.(dp0
Vcyhtnrc
p1
I1
sVcyjaups
p2
I1
s.(dp0
Vcyhtnrc
p1
I1
sVcyk9tx2
p2
I1
s.(dp0
Vcyhtnrc
p1
I1
sVcykfqmw
p2
I1
s.(dp0
Vcyhtnrc
p1
I1
sVcykinpo
p2
I1
s.(dp0
Vcyhtnrc
p1
I1
sVcykous8
p2
I1
s.(dp0
Vcyhtnrc
p1
I1
sVcyl5f9d
p2
I1
s.(dp0
Vcyhtnrc
p1
I1
sVcymc8az
p2
I1
s.(dp0
Vcyhtnrc
p1
I1
sVcymx6mg
p2
I1
s.(dp0
Vcyhtnrc
p1
I1
sVcymx6mg
p2
I1
s.(dp0
Vcyhtnrc
p1
I1
sVcymztkd
p2
I1
s.(dp0
Vcyhtnrc
p1
I1
sVcynbwns
p2
I1
s.(dp0
Vcyhtnrc
p1
I1
sVcyp5fqa
p2
I1
s.(dp0
Vcyhtnrc
p1
I1
sVcyroizi
p2
I1
s.(dp0
Vcyhtnrc
p1
I1
sVcyrqrxs
p2
I1
s.(dp0
Vcyhtnrc
p1
I1
sVcys2vo2
p2
I1
s.(dp0
Vcyhtnrc
p1
I1
sVcysl3y1
p2
I1
s.(dp0
Vcyhtnrc
p1
I1
sVcystbvk
p2
I1
s.(dp0
Vcyhtnrc
p1
I1
sVcystbvk
p2
I1
s.(dp0
Vcyhtnrc
p1
I1
sVcysw82k
p2
I1
s.(dp0
Vcyhtnrc
p1
I1
sVcysw82k
p2
I1
s.(dp0
Vcyhtnrc
p1
I1
sVcytaodx
p2
I1
s.(dp0
Vcyhtnrc
p1
I1
sVcytxda7
p2
I1
s.(dp0
Vcyhtnrc
p1
I1
sVcytypyc
p2
I1
s.(dp0
Vcyhtnrc
p1
I1
sVcyu085m
p2
I1
s.(dp0
Vcyhtnrc
p1
I1
sVcyv5a3h
p2
I1
s.(dp0
Vcyhtnrc
p1
I1
sVcyvo2hg
p2
I1
s.(dp0
Vcyhtnrc
p1
I1
sVcyvwjxm
p2
I1
s.(dp0
Vcyhtnrc
p1
I1
sVcyxa3p0
p2
I1
s.(dp0
Vcyhtnrc
p1
I1
sVcyxg5yi
p2
I1
s.(dp0
Vcyhtnrc
p1
I1
sVcz1ofn2
p2
I1
s.(dp0
Vcyhtnrc
p1
I1
sVcz32xh0
p2
I1
s.(dp0
Vcyhtnrc
p1
I1
sVcz35poc
p2
I1
s.(dp0
Vcyhtnrc
p1
I1
sVcz35poc
p2
I1
s.(dp0
Vcyhtnrc
p1
I1
sVcz4szvd
p2
I1
s.(dp0
Vcyhtnrc
p1
I1
sVcz4szvd
p2
I1
s.(dp0
Vcyhtnrc
p1
I1
sVcz4v5h9
p2
I1
s.(dp0
Vcyhtnrc
p1
I1
sVcz4v5h9
p2
I1
s.(dp0
Vcyhtnrc
p1
I1
sVcz5i7ho
p2
I1
s.(dp0
Vcyhtnrc
p1
I1
sVcz5i7ho
p2
I1
s.(dp0
Vcyhtnrc
p1
I1
sVcz66egq
p2
I1
s.(dp0
Vcyhtnrc
p1
I1
sVcz6m7nc
p2
I1
s.(dp0
Vcyhtnrc
p1
I1
sVcz73pul
p2
I1
s.(dp0
Vcyhtnrc
p1
I1
sVcz73pul
p2
I1
s.(dp0
Vcyhtnrc
p1
I1
sVcz7bo46
p2
I1
s.(dp0
Vcyhtnrc
p1
I1
sVcz7bo46
p2
I1
s.(dp0
Vcyhtnrc
p1
I1
sVcz7s2gc
p2
I1
s.(dp0
Vcyhtnrc
p1
I1
sVcz8lcxs
p2
I1
s.(dp0
Vcyhtnrc
p1
I1
sVcz8oiv1
p2
I1
s.(dp0
Vcyhtnrc
p1
I1
sVcz9ii1d
p2
I1
s.(dp0
Vcyhtnrc
p1
I1
sVcz9iogi
p2
I1
s.(dp0
Vcyhtnrc
p1
I1
sVcz9iqiy
p2
I1
s.(dp0
Vcyhtnrc
p1
I1
sVcz9iqiy
p2
I1
s.(dp0
Vcyhtnrc
p1
I1
sVcz9iqiy
p2
I1
s.(dp0
Vcyhtnrc
p1
I1
sVcz9iqiy
p2
I1
s.(dp0
Vcyhtnrc
p1
I1
sVcz9iqiy
p2
I1
s.(dp0
Vcyhtnrc
p1
I1
sVcz9iqiy
p2
I1
s.(dp0
Vcyhtnrc
p1
I1
sVcz9iqiy
p2
I1
s.(dp0
Vcyhtnrc
p1
I1
sVcz9iqiy
p2
I1
s.(dp0
Vcyhtnrc
p1
I1
sVcz9xjvs
p2
I1
s.(dp0
Vcyhtnrc
p1
I1
sVcz9y8lc
p2
I1
s.(dp0
Vcyhtnrc
p1
I1
sVczad5w0
p2
I1
s.(dp0
Vcyhtnrc
p1
I1
sVczbfood
p2
I1
s.(dp0
Vcyhtnrc
p1
I1
sVczc533j
p2
I1
s.(dp0
Vcyhtnrc
p1
I1
sVczcbxzf
p2
I1
s.(dp0
Vcyhtnrc
p1
I1
sVczfpq93
p2
I1
s.(dp0
Vcyhtnrc
p1
I1
sVczgslga
p2
I1
s.(dp0
Vcyhtnrc
p1
I1
sVczgz7d3
p2
I1
s.(dp0
Vcyhtnrc
p1
I1
sVczhsy2v
p2
I1
s.(dp0
Vcyhtnrc
p1
I1
sVczhsy2v
p2
I1
s.(dp0
Vcyhtnrc
p1
I1
sVczhsy2v
p2
I1
s.(dp0
Vcyhtnrc
p1
I1
sVczjmeml
p2
I1
s.(dp0
Vcyhtnrc
p1
I1
sVczk6l5l
p2
I1
s.(dp0
Vcyhtnrc
p1
I1
sVczksu3x
p2
I1
s.(dp0
Vcyhtnrc
p1
I1
sVczlxh20
p2
I1
s.(dp0
Vcyhtnrc
p1
I1
sVczm2qbq
p2
I1
s.(dp0
Vcyhtnrc
p1
I1
sVcznz8bc
p2
I1
s.(dp0
Vcyhtnrc
p1
I1
sVczoe1g5
p2
I1
s.(dp0
Vcyhtnrc
p1
I1
sVczsr9sj
p2
I1
s.(dp0
Vcyhtnrc
p1
I1
sVczt465v
p2
I1
s.(dp0
Vcyhtnrc
p1
I1
sVczta2un
p2
I1
s.(dp0
Vcyhtnrc
p1
I1
sVczufvu2
p2
I1
s.(dp0
Vcyhtnrc
p1
I1
sVczvyhl4
p2
I1
s.(dp0
Vcyhtnrc
p1
I1
sVczwayjf
p2
I1
s.(dp0
Vcyhtnrc
p1
I1
sVczwjrvf
p2
I1
s.(dp0
Vcyhtnrc
p1
I1
sVczx3xfl
p2
I1
s.(dp0
Vcyhtnrc
p1
I1
sVczxfioj
p2
I1
s.(dp0
Vcyhtnrc
p1
I1
sVczxq9x5
p2
I1
s.(dp0
Vcyhtnrc
p1
I1
sVczyzxpe
p2
I1
s.(dp0
Vcyhtnrc
p1
I1
sVczzav1w
p2
I1
s.(dp0
Vcyhtnrc
p1
I1
sVczzw3ab
p2
I1
s.(dp0
Vcyhtnrc
p1
I1
sVczzxwov
p2
I1
s.(dp0
Vcyhtnrc
p1
I1
sVd009gzg
p2
I1
s.(dp0
Vcyhtnrc
p1
I1
sVd009hqh
p2
I1
s.(dp0
Vcyhtnrc
p1
I1
sVd009s76
p2
I1
s.(dp0
Vcyhtnrc
p1
I1
sVd02d2a5
p2
I1
s.(dp0
Vcyhtnrc
p1
I1
sVd03lzzh
p2
I1
s.(dp0
Vcyhtnrc
p1
I1
sVd040l6f
p2
I1
s.(dp0
Vcyhtnrc
p1
I1
sVd04zwwj
p2
I1
s.(dp0
Vcyhtnrc
p1
I1
sVd04zwwj
p2
I1
s.(dp0
Vcyhtnrc
p1
I1
sVd05580v
p2
I1
s.(dp0
Vcyhtnrc
p1
I1
sVd05dfod
p2
I1
s.(dp0
Vcyhtnrc
p1
I1
sVd060c14
p2
I1
s.(dp0
Vcyhtnrc
p1
I1
sVd06crd5
p2
I1
s.(dp0
Vcyhtnrc
p1
I1
sVd09mj42
p2
I1
s.(dp0
Vcyhtnrc
p1
I1
sVd09oibq
p2
I1
s.(dp0
Vcy(dp0
Vcyhtnrc
p1
I1
sVdkz7mem
p2
I1
s.