(dp0
Vcyle29q
p1
I1
s.(dp0
Vcyle29q
p1
I1
sVczrnur0
p2
I1
s.(dp0
Vcyle29q
p1
I1
sVczrw6ld
p2
I1
s.(dp0
Vcyle29q
p1
I1
sVczv869h
p2
I1
s.(dp0
Vcyle29q
p1
I1
sVd0a4bzs
p2
I1
s.(dp0
Vcyle29q
p1
I1
sVd0g1hdn
p2
I1
s.(dp0
Vcyle29q
p1
I1
sVd0ko09y
p2
I1
s.(dp0
Vcyle29q
p1
I1
sVd0kpnza
p2
I1
s.(dp0
Vcyle29q
p1
I1
sVd0kpnza
p2
I1
s.(dp0
Vcyle29q
p1
I1
sVd15i9fw
p2
I1
s.(dp0
Vcyle29q
p1
I1
sVd194k3o
p2
I1
s.(dp0
Vcyle29q
p1
I1
sVd1hzkqs
p2
I1
s.(dp0
Vcyle29q
p1
I1
sVd1ja2mr
p2
I1
s.(dp0
Vcyle29q
p1
I1
sVd22t038
p2
I1
s.(dp0
Vcyle29q
p1
I1
sVd27cu72
p2
I1
s.(dp0
Vcyle29q
p1
I1
sVd37l3eq
p2
I1
s.(dp0
Vcyle29q
p1
I1
sVd4rkkm0
p2
I1
s.(dp0
Vcyle29q
p1
I1
sVd50tnvb
p2
I1
s.(dp0
Vcyle29q
p1
I1
sVd5bj3x9
p2
I1
s.(dp0
Vcyle29q
p1
I1
sVd67u329
p2
I1
s.(dp0
Vcyle29q
p1
I1
sVd6i4072
p2
I1
s.(dp0
Vcyle29q
p1
I1
sVd6i4072
p2
I1
s.(dp0
Vcyle29q
p1
I1
sVd7ifkuv
p2
I1
s.(dp0
Vcyle29q
p1
I1
sVd7rekhk
p2
I1
s.(dp0
Vcyle29q
p1
I1
sVd7u9i1e
p2
I1
s.(dp0
Vcyle29q
p1
I1
sVd81txex
p2
I1
s.(dp0
Vcyle29q
p1
I1
sVd81txex
p2
I1
s.(dp0
Vcyle29q
p1
I1
sVd88xd4y
p2
I1
s.(dp0
Vcyle29q
p1
I1
sVd8l10v7
p2
I1
s.(dp0
Vcyle29q
p1
I1
sVd8ovg24
p2
I1
s.(dp0
Vcyle29q
p1
I1
sVd9gbqwn
p2
I1
s.(dp0
Vcyle29q
p1
I1
sVd9rj80l
p2
I1
s.(dp0
Vcyle29q
p1
I1
sVd9rj80l
p2
I1
s.(dp0
Vcyle29q
p1
I1
sVd9rj80l
p2
I1
s.(dp0
Vcyle29q
p1
I1
sVdal7ax1
p2
I1
s.(dp0
Vcyle29q
p1
I1
sVdaz2jnl
p2
I1
s.(dp0
Vcyle29q
p1
I1
sVdcpvwhl
p2
I1
s.(dp0
Vcyle29q
p1
I1
sVdd3bkmw
p2
I1
s.(dp0
Vcyle29q
p1
I1
sVddol6wm
p2
I1
s.(dp0
Vcyle29q
p1
I1
sVddsimzo
p2
I1
s.(dp0
Vcyle29q
p1
I1
sVddxfnyr
p2
I1
s.(dp0
Vcyle29q
p1
I1
sVde7sfij
p2
I1
s.(dp0
Vcyle29q
p1
I1
sVdeoimf4
p2
I1
s.(dp0
Vcyle29q
p1
I1
sVdff5a44
p2
I1
s.(dp0
Vcyle29q
p1
I1
sVdg9x2lr
p2
I1
s.(dp0
Vcyle29q
p1
I1
sVdgkfkt6
p2
I1
s.(dp0
Vcyle29q
p1
I1
sVdhotq37
p2
I1
s.(dp0
Vcyle29q
p1
I1
sVdj53j2h
p2
I1
s.(dp0
Vcyle29q
p1
I1
sVdjks9df
p2
I1
s.(dp0
Vcyle29q
p1
I1
sVdk0miro
p2
I1
s.