(dp0
Vczifhm3
p1
I1
s.(dp0
Vd78shbu
p1
I1
sVczifhm3
p2
I1
s.(dp0
Vd7mczkv
p1
I1
sVczifhm3
p2
I1
s.(dp0
Vd7mczkv
p1
I1
sVczifhm3
p2
I1
s.(dp0
Vczifhm3
p1
I1
sVd9lqxwg
p2
I1
s.(dp0
Vd9rl13n
p1
I1
sVczifhm3
p2
I1
s.(dp0
Vczifhm3
p1
I1
sVddpvfaf
p2
I1
s.(dp0
Vdeunaa1
p1
I1
sVczifhm3
p2
I1
s.(dp0
Vczifhm3
p1
I1
sVdfhjubv
p2
I1
s.(dp0
Vczifhm3
p1
I1
sVdfhjubv
p2
I1
s.(dp0
Vdj6u5rv
p1
I1
sVczifhm3
p2
I1
s.(dp0
Vdnvmk7r
p1
I1
sVczifhm3
p2
I1
s.(dp0
Vdnvmk7r
p1
I1
sVczifhm3
p2
I1
s.(dp0
Vczifhm3
p1
I1
sVdoyxgje
p2
I1
s.(dp0
Vczifhm3
p1
I1
sVdoyxgje
p2
I1
s.