(dp0
Vcykprau
p1
I1
s.(dp0
Vcylk7ho
p1
I1
sVcykprau
p2
I1
s.(dp0
Vcykprau
p1
I1
sVcyp5odn
p2
I1
s.(dp0
Vcykprau
p1
I1
sVcyp5odn
p2
I1
s.(dp0
Vd03mgxk
p1
I1
sVcykprau
p2
I1
s.(dp0
Vd1s9kuf
p1
I1
sVcykprau
p2
I1
s.(dp0
Vcykprau
p1
I1
sVd3a4fb1
p2
I1
s.(dp0
Vcykprau
p1
I1
sVd4733lm
p2
I1
s.(dp0
Vcykprau
p1
I1
sVd5jz2if
p2
I1
s.(dp0
Vcykprau
p1
I1
sVd5jz2if
p2
I1
s.(dp0
Vd6acsoz
p1
I1
sVcykprau
p2
I1
s.(dp0
Vd8sqblg
p1
I1
sVcykprau
p2
I1
s.(dp0
Vd8vcoze
p1
I1
sVcykprau
p2
I1
s.(dp0
Vd9zq8u7
p1
I1
sVcykprau
p2
I1
s.(dp0
Vd9zq8u7
p1
I1
sVcykprau
p2
I1
s.(dp0
Vdalw9il
p1
I1
sVcykprau
p2
I1
s.(dp0
Vdc5l2t9
p1
I1
sVcykprau
p2
I1
s.(dp0
Vdcquejf
p1
I1
sVcykprau
p2
I1
s.(dp0
Vcykprau
p1
I1
sVdcxcwa2
p2
I1
s.(dp0
Vdduw4oz
p1
I1
sVcykprau
p2
I1
s.(dp0
Vdee4isz
p1
I1
sVcykprau
p2
I1
s.(dp0
Vcykprau
p1
I1
sVdgs67bg
p2
I1
s.(dp0
Vdikruut
p1
I1
sVcykprau
p2
I1
s.(dp0
Vdk8n4ne
p1
I1
sVcykprau
p2
I1
s.(dp0
Vdmltjqp
p1
I1
sVcykprau
p2
I1
s.(dp0
Vdnewtlw
p1
I1
sVcykprau
p2
I1
s.(dp0
Vdnsjmet
p1
I1
sVcykprau
p2
I1
s.