(dp0
Vcytfj37
p1
I1
s.(dp0
Vcyu70g6
p1
I1
sVcytfj37
p2
I1
s.(dp0
Vcyuvb13
p1
I1
sVcytfj37
p2
I1
s.(dp0
Vcz12lcz
p1
I1
sVcytfj37
p2
I1
s.(dp0
Vcz4g156
p1
I1
sVcytfj37
p2
I1
s.(dp0
Vcz4tfxb
p1
I1
sVcytfj37
p2
I1
s.(dp0
Vcz802sz
p1
I1
sVcytfj37
p2
I1
s.(dp0
Vczdtmn1
p1
I1
sVcytfj37
p2
I1
s.(dp0
Vczfqhz4
p1
I1
sVcytfj37
p2
I1
s.(dp0
Vczjdx0i
p1
I1
sVcytfj37
p2
I1
s.(dp0
Vczje0jo
p1
I1
sVcytfj37
p2
I1
s.(dp0
Vczjfeua
p1
I1
sVcytfj37
p2
I1
s.(dp0
Vd05rsvy
p1
I1
sVcytfj37
p2
I1
s.(dp0
Vcytfj37
p1
I1
sVd071imh
p2
I1
s.(dp0
Vd0b6hjo
p1
I1
sVcytfj37
p2
I1
s.(dp0
Vd0huxsu
p1
I1
sVcytfj37
p2
I1
s.(dp0
Vd0rjguv
p1
I1
sVcytfj37
p2
I1
s.(dp0
Vd0rjguv
p1
I1
sVcytfj37
p2
I1
s.(dp0
Vcytfj37
p1
I1
sVd0rjiec
p2
I1
s.(dp0
Vcytfj37
p1
I1
sVd0y4aww
p2
I1
s.(dp0
Vcytfj37
p1
I1
sVd0yne4c
p2
I1
s.(dp0
Vd0zr6ke
p1
I1
sVcytfj37
p2
I1
s.(dp0
Vcytfj37
p1
I1
sVd1l62ny
p2
I1
s.(dp0
Vd1ovemc
p1
I1
sVcytfj37
p2
I1
s.(dp0
Vcytfj37
p1
I1
sVd1rwo4y
p2
I1
s.(dp0
Vd20iotc
p1
I1
sVcytfj37
p2
I1
s.(dp0
Vcytfj37
p1
I1
sVd22c053
p2
I1
s.(dp0
Vcytfj37
p1
I1
sVd22c053
p2
I1
s.(dp0
Vd23cg90
p1
I1
sVcytfj37
p2
I1
s.(dp0
Vcytfj37
p1
I1
sVd2de7x2
p2
I1
s.(dp0
Vcytfj37
p1
I1
sVd2gmdmy
p2
I1
s.(dp0
Vcytfj37
p1
I1
sVd2jji7l
p2
I1
s.(dp0
Vd2o9904
p1
I1
sVcytfj37
p2
I1
s.(dp0
Vd2pz39y
p1
I1
sVcytfj37
p2
I1
s.(dp0
Vd350bgh
p1
I1
sVcytfj37
p2
I1
s.(dp0
Vcytfj37
p1
I1
sVd36u39u
p2
I1
s.(dp0
Vcytfj37
p1
I1
sVd37zeuc
p2
I1
s.(dp0
Vd3a2uqj
p1
I1
sVcytfj37
p2
I1
s.(dp0
Vd3aidbd
p1
I1
sVcytfj37
p2
I1
s.(dp0
Vcytfj37
p1
I1
sVd3b7txk
p2
I1
s.(dp0
Vd3t4l5q
p1
I1
sVcytfj37
p2
I1
s.(dp0
Vd3t4l5q
p1
I1
sVcytfj37
p2
I1
s.(dp0
Vd42gs3u
p1
I1
sVcytfj37
p2
I1
s.(dp0
Vd4ie492
p1
I1
sVcytfj37
p2
I1
s.(dp0
Vd4jfsi6
p1
I1
sVcytfj37
p2
I1
s.(dp0
Vcytfj37
p1
I1
sVd4vqar7
p2
I1
s.(dp0
Vd4ypd45
p1
I1
sVcytfj37
p2
I1
s.(dp0
Vd4z8kqr
p1
I1
sVcytfj37
p2
I1
s.(dp0
Vd5jszct
p1
I1
sVcytfj37
p2
I1
s.(dp0
Vd6jb3d0
p1
I1
sVcytfj37
p2
I1
s.(dp0
Vd6si6sc
p1
I1
sVcytfj37
p2
I1
s.(dp0
Vd73u58w
p1
I1
sVcytfj37
p2
I1
s.(dp0
Vcytfj37
p1
I1
sVd7g8ar5
p2
I1
s.(dp0
Vcytfj37
p1
I1
sVd7sh1hi
p2
I1
s.(dp0
Vcytfj37
p1
I1
sVd7swzzj
p2
I1
s.(dp0
Vcytfj37
p1
I1
sVd848am8
p2
I1
s.(dp0
Vd8sq8sf
p1
I1
sVcytfj37
p2
I1
s.(dp0
Vd9zzrnt
p1
I1
sVcytfj37
p2
I1
s.(dp0
Vdb5f8uv
p1
I1
sVcytfj37
p2
I1
s.(dp0
Vcytfj37
p1
I1
sVdb7ie7v
p2
I1
s.(dp0
Vdbm81dq
p1
I1
sVcytfj37
p2
I1
s.(dp0
Vdcesst9
p1
I1
sVcytfj37
p2
I1
s.(dp0
Vdcf3or6
p1
I1
sVcytfj37
p2
I1
s.(dp0
Vdcm039m
p1
I1
sVcytfj37
p2
I1
s.(dp0
Vcytfj37
p1
I1
sVdd05p2e
p2
I1
s.(dp0
Vdd8odah
p1
I1
sVcytfj37
p2
I1
s.(dp0
Vcytfj37
p1
I1
sVddta9t3
p2
I1
s.(dp0
Vcytfj37
p1
I1
sVddxbj79
p2
I1
s.(dp0
Vcytfj37
p1
I1
sVde4mz8p
p2
I1
s.(dp0
Vde5yjxp
p1
I1
sVcytfj37
p2
I1
s.(dp0
Vdeec502
p1
I1
sVcytfj37
p2
I1
s.(dp0
Vdefkjyf
p1
I1
sVcytfj37
p2
I1
s.(dp0
Vdeg9swo
p1
I1
sVcytfj37
p2
I1
s.(dp0
Vdeo9k07
p1
I1
sVcytfj37
p2
I1
s.(dp0
Vdermye3
p1
I1
sVcytfj37
p2
I1
s.(dp0
Vdfiljn4
p1
I1
sVcytfj37
p2
I1
s.(dp0
Vcytfj37
p1
I1
sVdfk7jrl
p2
I1
s.(dp0
Vdfo3l4d
p1
I1
sVcytfj37
p2
I1
s.(dp0
Vdfqaoam
p1
I1
sVcytfj37
p2
I1
s.(dp0
Vdftourl
p1
I1
sVcytfj37
p2
I1
s.(dp0
Vdfzyhqr
p1
I1
sVcytfj37
p2
I1
s.(dp0
Vcytfj37
p1
I1
sVdg8lpfk
p2
I1
s.(dp0
Vdgb7vi4
p1
I1
sVcytfj37
p2
I1
s.(dp0
Vcytfj37
p1
I1
sVdgljb7q
p2
I1
s.(dp0
Vcytfj37
p1
I1
sVdguzqmn
p2
I1
s.(dp0
Vcytfj37
p1
I1
sVdgvjocm
p2
I1
s.(dp0
Vdh2i18o
p1
I1
sVcytfj37
p2
I1
s.(dp0
Vdh70s9p
p1
I1
sVcytfj37
p2
I1
s.(dp0
Vcytfj37
p1
I1
sVditde4o
p2
I1
s.(dp0
Vdiy0d54
p1
I1
sVcytfj37
p2
I1
s.(dp0
Vdjvm8fp
p1
I1
sVcytfj37
p2
I1
s.(dp0
Vcytfj37
p1
I1
sVdk37f2r
p2
I1
s.(dp0
Vdkglfiv
p1
I1
sVcytfj37
p2
I1
s.(dp0
Vcytfj37
p1
I1
sVdktve3u
p2
I1
s.(dp0
Vcytfj37
p1
I1
sVdkvrlo8
p2
I1
s.(dp0
Vdmm7b64
p1
I1
sVcytfj37
p2
I1
s.(dp0
Vcytfj37
p1
I1
sVdmxairi
p2
I1
s.(dp0
Vcytfj37
p1
I1
sVdn5q48n
p2
I1
s.(dp0
Vcytfj37
p1
I1
sVdn7k3kf
p2
I1
s.(dp0
Vdntp631
p1
I1
sVcytfj37
p2
I1
s.