(dp0
Vcyynt7i
p1
I1
s.(dp0
Vcyynt7i
p1
I2
s.(dp0
Vczi2ioe
p1
I1
sVcyynt7i
p2
I1
s.(dp0
Vcyynt7i
p1
I1
sVczn1goj
p2
I1
s.(dp0
Vczx7toh
p1
I1
sVcyynt7i
p2
I1
s.(dp0
Vd0qo4ds
p1
I1
sVcyynt7i
p2
I1
s.(dp0
Vd0qt01h
p1
I1
sVcyynt7i
p2
I1
s.(dp0
Vd0qz2uc
p1
I1
sVcyynt7i
p2
I1
s.(dp0
Vd0qz2uc
p1
I1
sVcyynt7i
p2
I1
s.(dp0
Vd1ajnoi
p1
I1
sVcyynt7i
p2
I1
s.(dp0
Vcyynt7i
p1
I1
sVd21axiz
p2
I1
s.(dp0
Vcyynt7i
p1
I1
sVd276bjz
p2
I1
s.(dp0
Vd2aobgr
p1
I1
sVcyynt7i
p2
I1
s.(dp0
Vcyynt7i
p1
I1
sVd2m65gi
p2
I1
s.(dp0
Vd3eosbw
p1
I1
sVcyynt7i
p2
I1
s.(dp0
Vd3i9exg
p1
I1
sVcyynt7i
p2
I1
s.(dp0
Vd4djinb
p1
I1
sVcyynt7i
p2
I1
s.(dp0
Vd5jngoc
p1
I1
sVcyynt7i
p2
I1
s.(dp0
Vcyynt7i
p1
I1
sVd7t93aw
p2
I1
s.(dp0
Vd8uc936
p1
I1
sVcyynt7i
p2
I1
s.(dp0
Vd95rj0p
p1
I1
sVcyynt7i
p2
I1
s.(dp0
Vd9p588m
p1
I1
sVcyynt7i
p2
I1
s.(dp0
Vcyynt7i
p1
I1
sVdbg3dwl
p2
I1
s.(dp0
Vcyynt7i
p1
I1
sVdbjbtxz
p2
I1
s.(dp0
Vdbpeih5
p1
I1
sVcyynt7i
p2
I1
s.(dp0
Vdcvtc39
p1
I1
sVcyynt7i
p2
I1
s.(dp0
Vdead7im
p1
I1
sVcyynt7i
p2
I1
s.(dp0
Vcyynt7i
p1
I1
sVden0xor
p2
I1
s.(dp0
Vdfnjow8
p1
I1
sVcyynt7i
p2
I1
s.(dp0
Vdfwqiuv
p1
I1
sVcyynt7i
p2
I1
s.(dp0
Vcyynt7i
p1
I1
sVdgckax6
p2
I1
s.(dp0
Vdghingb
p1
I1
sVcyynt7i
p2
I1
s.(dp0
Vdgw4bob
p1
I1
sVcyynt7i
p2
I1
s.(dp0
Vcyynt7i
p1
I1
sVdh9vcuo
p2
I1
s.(dp0
Vdizox69
p1
I1
sVcyynt7i
p2
I1
s.(dp0
Vdjbc8qb
p1
I1
sVcyynt7i
p2
I1
s.(dp0
Vdjd6hq2
p1
I1
sVcyynt7i
p2
I1
s.(dp0
Vcyynt7i
p1
I1
sVdjxouom
p2
I1
s.