(dp0
Vcyy5llf
p1
I1
s.(dp0
Vd0sem4m
p1
I1
sVcyy5llf
p2
I1
s.(dp0
Vcyy5llf
p1
I1
sVd1c4g2t
p2
I1
s.(dp0
Vcyy5llf
p1
I1
sVd1qinyw
p2
I1
s.(dp0
Vcyy5llf
p1
I1
sVd2eij5f
p2
I1
s.(dp0
Vcyy5llf
p1
I1
sVd2ussf4
p2
I1
s.(dp0
Vcyy5llf
p1
I1
sVd38y9dv
p2
I1
s.(dp0
Vcyy5llf
p1
I1
sVd38y9dv
p2
I1
s.(dp0
Vcyy5llf
p1
I1
sVd38y9dv
p2
I1
s.(dp0
Vd6y1jfi
p1
I1
sVcyy5llf
p2
I1
s.(dp0
Vcyy5llf
p1
I1
sVd8701rm
p2
I1
s.(dp0
Vd97uzux
p1
I1
sVcyy5llf
p2
I1
s.(dp0
Vcyy5llf
p1
I1
sVd9ayi6b
p2
I1
s.(dp0
Vcyy5llf
p1
I1
sVday45wz
p2
I1
s.(dp0
Vdayi7h9
p1
I1
sVcyy5llf
p2
I1
s.(dp0
Vdb050su
p1
I1
sVcyy5llf
p2
I1
s.(dp0
Vcyy5llf
p1
I1
sVdb21lu9
p2
I1
s.(dp0
Vcyy5llf
p1
I1
sVdc3sxwn
p2
I1
s.(dp0
Vcyy5llf
p1
I1
sVdebzjxj
p2
I1
s.(dp0
Vcyy5llf
p1
I1
sVdej4vdg
p2
I1
s.(dp0
Vcyy5llf
p1
I1
sVdfa472i
p2
I1
s.