(dp0
Vd2i8s53
p1
I1
s.(dp0
Vd2i8s53
p1
I1
sVd2xyi5k
p2
I1
s.(dp0
Vd2i8s53
p1
I1
sVd6wqdvs
p2
I1
s.(dp0
Vd2i8s53
p1
I1
sVd9e6njs
p2
I1
s.(dp0
Vd2i8s53
p1
I1
sVd9hyqzt
p2
I1
s.(dp0
Vd9nqutp
p1
I1
sVd2i8s53
p2
I1
s.(dp0
Vd2i8s53
p1
I1
sVdajr89w
p2
I1
s.(dp0
Vdb571ic
p1
I1
sVd2i8s53
p2
I1
s.(dp0
Vdb571ic
p1
I1
sVd2i8s53
p2
I1
s.(dp0
Vdb571ic
p1
I1
sVd2i8s53
p2
I1
s.(dp0
Vdb571ic
p1
I1
sVd2i8s53
p2
I1
s.(dp0
Vdb571ic
p1
I1
sVd2i8s53
p2
I1
s.(dp0
Vdb571ic
p1
I1
sVd2i8s53
p2
I1
s.(dp0
Vdb571ic
p1
I1
sVd2i8s53
p2
I1
s.(dp0
Vdb571ic
p1
I1
sVd2i8s53
p2
I1
s.(dp0
Vd2i8s53
p1
I1
sVdbn8h8m
p2
I1
s.(dp0
Vd2i8s53
p1
I1
sVdccg7uu
p2
I1
s.(dp0
Vd2i8s53
p1
I1
sVdcf3pky
p2
I1
s.(dp0
Vd2i8s53
p1
I1
sVddojexa
p2
I1
s.(dp0
Vdduaqu2
p1
I1
sVd2i8s53
p2
I1
s.(dp0
Vd2i8s53
p1
I1
sVddzlmw1
p2
I1
s.(dp0
Vd2i8s53
p1
I1
sVde10xze
p2
I1
s.(dp0
Vdg3yk26
p1
I1
sVd2i8s53
p2
I1
s.(dp0
Vd2i8s53
p1
I1
sVdggsz6g
p2
I1
s.(dp0
Vdijhkmy
p1
I1
sVd2i8s53
p2
I1
s.