(dp0
Vd1ig13e
p1
I1
s.(dp0
Vd1ig13e
p1
I1
sVd3joeuj
p2
I1
s.(dp0
Vd3tqwii
p1
I1
sVd1ig13e
p2
I1
s.(dp0
Vd1ig13e
p1
I1
sVd40jyqu
p2
I1
s.(dp0
Vd1ig13e
p1
I1
sVd4iuef7
p2
I1
s.(dp0
Vd1ig13e
p1
I1
sVd4iuef7
p2
I1
s.(dp0
Vd1ig13e
p1
I1
sVd5c49o8
p2
I1
s.(dp0
Vd1ig13e
p1
I1
sVd5hw2c4
p2
I1
s.(dp0
Vd1ig13e
p1
I1
sVd5kg1w4
p2
I1
s.(dp0
Vd1ig13e
p1
I1
sVd5w7ghc
p2
I1
s.(dp0
Vd1ig13e
p1
I1
sVd5ws283
p2
I1
s.(dp0
Vd1ig13e
p1
I1
sVd61v2uw
p2
I1
s.(dp0
Vd1ig13e
p1
I1
sVd6ib1qd
p2
I1
s.(dp0
Vd1ig13e
p1
I1
sVd7d1u8s
p2
I1
s.(dp0
Vdaajcl0
p1
I1
sVd1ig13e
p2
I1
s.(dp0
Vd1ig13e
p1
I1
sVdamo2qw
p2
I1
s.(dp0
Vd1ig13e
p1
I1
sVdbgk71e
p2
I1
s.(dp0
Vd1ig13e
p1
I1
sVdc66nyq
p2
I1
s.(dp0
Vd1ig13e
p1
I1
sVddivcch
p2
I1
s.(dp0
Vd1ig13e
p1
I1
sVddsxsdi
p2
I1
s.(dp0
Vd1ig13e
p1
I1
sVddwjban
p2
I1
s.(dp0
Vd1ig13e
p1
I1
sVddxnd3b
p2
I1
s.(dp0
Vd1ig13e
p1
I1
sVdh3owvu
p2
I1
s.(dp0
Vd1ig13e
p1
I1
sVdhoc1j5
p2
I1
s.(dp0
Vd1ig13e
p1
I1
sVdjbgmui
p2
I1
s.(dp0
Vd1ig13e
p1
I1
sVdjske2k
p2
I1
s.(dp0
Vdmfpcyv
p1
I1
sVd1ig13e
p2
I1
s.