(dp0
Vczdjunt
p1
I1
s.(dp0
Vczvrttj
p1
I1
sVczdjunt
p2
I1
s.(dp0
Vd0jwus8
p1
I1
sVczdjunt
p2
I1
s.(dp0
Vd0llkw9
p1
I1
sVczdjunt
p2
I1
s.(dp0
Vczdjunt
p1
I1
sVd1cu4m9
p2
I1
s.(dp0
Vd29lizg
p1
I1
sVczdjunt
p2
I1
s.(dp0
Vd2adxtf
p1
I1
sVczdjunt
p2
I1
s.(dp0
Vczdjunt
p1
I1
sVd2c579n
p2
I1
s.(dp0
Vczdjunt
p1
I1
sVd2c579n
p2
I1
s.(dp0
Vczdjunt
p1
I1
sVd2pzojq
p2
I1
s.(dp0
Vczdjunt
p1
I1
sVd2ykuxk
p2
I1
s.(dp0
Vd365zk5
p1
I1
sVczdjunt
p2
I1
s.(dp0
Vczdjunt
p1
I1
sVd4778ix
p2
I1
s.(dp0
Vd54p39c
p1
I1
sVczdjunt
p2
I1
s.(dp0
Vd9x3j23
p1
I1
sVczdjunt
p2
I1
s.(dp0
Vddcbck0
p1
I1
sVczdjunt
p2
I1
s.(dp0
Vczdjunt
p1
I1
sVddd2hhn
p2
I1
s.(dp0
Vczdjunt
p1
I1
sVdecudjh
p2
I1
s.(dp0
Vdesk7ns
p1
I1
sVczdjunt
p2
I1
s.(dp0
Vczdjunt
p1
I1
sVdesqf18
p2
I1
s.(dp0
Vczdjunt
p1
I1
sVdesqf18
p2
I1
s.(dp0
Vczdjunt
p1
I1
sVdeyzejq
p2
I1
s.(dp0
Vczdjunt
p1
I1
sVdfjj75o
p2
I1
s.(dp0
Vdfkdasv
p1
I1
sVczdjunt
p2
I1
s.(dp0
Vczdjunt
p1
I1
sVdgq6nuk
p2
I1
s.(dp0
Vdja5612
p1
I1
sVczdjunt
p2
I1
s.(dp0
Vdjkfwbq
p1
I1
sVczdjunt
p2
I1
s.(dp0
Vczdjunt
p1
I1
sVdjuyu2j
p2
I1
s.(dp0
Vdkeb9cl
p1
I1
sVczdjunt
p2
I1
s.(dp0
Vczdjunt
p1
I1
sVdkjld4z
p2
I1
s.(dp0
Vczdjunt
p1
I1
sVdkjld4z
p2
I1
s.