(dp0
Vcykprvq
p1
I1
s.(dp0
Vcykprvq
p1
I1
sVcylly8q
p2
I1
s.(dp0
Vcykprvq
p1
I1
sVcytoi44
p2
I1
s.(dp0
Vcykprvq
p1
I1
sVcyys1k5
p2
I1
s.(dp0
Vcykprvq
p1
I1
sVcz0ekk8
p2
I1
s.(dp0
Vcykprvq
p1
I1
sVcz0svfp
p2
I1
s.(dp0
Vcykprvq
p1
I1
sVcz0tibj
p2
I1
s.(dp0
Vcykprvq
p1
I1
sVcz4li7m
p2
I1
s.(dp0
Vcykprvq
p1
I1
sVcz5upjm
p2
I1
s.(dp0
Vcykprvq
p1
I1
sVczel6od
p2
I1
s.(dp0
Vcykprvq
p1
I1
sVczfs2uw
p2
I1
s.(dp0
Vcykprvq
p1
I1
sVczg4aql
p2
I1
s.(dp0
Vcykprvq
p1
I1
sVczgv9xa
p2
I1
s.(dp0
Vcykprvq
p1
I1
sVczjlfxz
p2
I1
s.(dp0
Vcykprvq
p1
I1
sVczn7ng4
p2
I1
s.(dp0
Vcykprvq
p1
I1
sVcznowl3
p2
I1
s.(dp0
Vcykprvq
p1
I1
sVczthpkp
p2
I1
s.(dp0
Vcykprvq
p1
I1
sVczzf142
p2
I1
s.(dp0
Vcykprvq
p1
I1
sVd01al0t
p2
I1
s.(dp0
Vd03tac0
p1
I1
sVcykprvq
p2
I1
s.(dp0
Vcykprvq
p1
I1
sVd0dsyl4
p2
I1
s.(dp0
Vcykprvq
p1
I1
sVd0e50ul
p2
I1
s.(dp0
Vd0fglg1
p1
I1
sVcykprvq
p2
I1
s.(dp0
Vcykprvq
p1
I1
sVd0huq34
p2
I1
s.(dp0
Vcykprvq
p1
I1
sVd0i87pf
p2
I1
s.(dp0
Vcykprvq
p1
I1
sVd0ujwab
p2
I1
s.(dp0
Vcykprvq
p1
I1
sVd176n5b
p2
I1
s.(dp0
Vcykprvq
p1
I1
sVd17c90a
p2
I1
s.(dp0
Vd1hhno3
p1
I1
sVcykprvq
p2
I1
s.(dp0
Vcykprvq
p1
I1
sVd1jahyk
p2
I1
s.(dp0
Vcykprvq
p1
I1
sVd1k7dcg
p2
I1
s.(dp0
Vcykprvq
p1
I1
sVd1qhzmj
p2
I1
s.(dp0
Vcykprvq
p1
I1
sVd1v7w4d
p2
I1
s.(dp0
Vcykprvq
p1
I1
sVd1zy7z4
p2
I1
s.(dp0
Vcykprvq
p1
I1
sVd25bvkh
p2
I1
s.(dp0
Vcykprvq
p1
I1
sVd2aines
p2
I1
s.(dp0
Vcykprvq
p1
I1
sVd2bxhll
p2
I1
s.(dp0
Vd2ervek
p1
I1
sVcykprvq
p2
I1
s.(dp0
Vcykprvq
p1
I1
sVd2n9hmf
p2
I1
s.(dp0
Vd2tnubd
p1
I1
sVcykprvq
p2
I1
s.(dp0
Vcykprvq
p1
I1
sVd2wtnsy
p2
I1
s.(dp0
Vcykprvq
p1
I1
sVd30hgbo
p2
I1
s.(dp0
Vd312yvz
p1
I1
sVcykprvq
p2
I1
s.(dp0
Vcykprvq
p1
I1
sVd3ibf1g
p2
I1
s.(dp0
Vcykprvq
p1
I1
sVd3jlwoj
p2
I1
s.(dp0
Vd3k995x
p1
I1
sVcykprvq
p2
I1
s.(dp0
Vcykprvq
p1
I1
sVd3nthm9
p2
I1
s.(dp0
Vcykprvq
p1
I1
sVd3stzd0
p2
I1
s.(dp0
Vcykprvq
p1
I1
sVd40t2ve
p2
I1
s.(dp0
Vcykprvq
p1
I1
sVd4bbi17
p2
I1
s.(dp0
Vcykprvq
p1
I1
sVd4e5akd
p2
I1
s.(dp0
Vcykprvq
p1
I1
sVd4i15ke
p2
I1
s.(dp0
Vcykprvq
p1
I1
sVd4iuef7
p2
I1
s.(dp0
Vcykprvq
p1
I1
sVd4s0j3t
p2
I1
s.(dp0
Vcykprvq
p1
I1
sVd5huase
p2
I1
s.(dp0
Vcykprvq
p1
I1
sVd5zoip1
p2
I1
s.(dp0
Vcykprvq
p1
I1
sVd61utv2
p2
I1
s.(dp0
Vcykprvq
p1
I1
sVd6hcq89
p2
I1
s.(dp0
Vcykprvq
p1
I1
sVd6ufz2s
p2
I1
s.(dp0
Vcykprvq
p1
I1
sVd6zjf4h
p2
I1
s.(dp0
Vcykprvq
p1
I1
sVd71rjrh
p2
I1
s.(dp0
Vcykprvq
p1
I1
sVd7e2dtq
p2
I1
s.(dp0
Vcykprvq
p1
I1
sVd7juwk7
p2
I1
s.(dp0
Vcykprvq
p1
I1
sVd7rqj0a
p2
I1
s.(dp0
Vcykprvq
p1
I1
sVd7sc5qt
p2
I1
s.(dp0
Vcykprvq
p1
I1
sVd7smv28
p2
I1
s.(dp0
Vcykprvq
p1
I1
sVd7tl7tw
p2
I1
s.(dp0
Vcykprvq
p1
I1
sVd8q10up
p2
I1
s.(dp0
Vcykprvq
p1
I1
sVd93rzb2
p2
I1
s.(dp0
Vcykprvq
p1
I1
sVd9n4kcu
p2
I1
s.(dp0
Vd9n79nl
p1
I1
sVcykprvq
p2
I1
s.(dp0
Vcykprvq
p1
I1
sVd9u59de
p2
I1
s.(dp0
Vcykprvq
p1
I1
sVda0vt23
p2
I1
s.(dp0
Vda90276
p1
I1
sVcykprvq
p2
I1
s.(dp0
Vcykprvq
p1
I1
sVdafquv7
p2
I1
s.(dp0
Vcykprvq
p1
I1
sVdajnedi
p2
I1
s.(dp0
Vcykprvq
p1
I1
sVdat9n1b
p2
I1
s.(dp0
Vcykprvq
p1
I1
sVdatdql1
p2
I1
s.(dp0
Vcykprvq
p1
I1
sVdaz8tz9
p2
I1
s.(dp0
Vcykprvq
p1
I1
sVdazpygc
p2
I1
s.(dp0
Vcykprvq
p1
I1
sVdb00ssz
p2
I1
s.(dp0
Vcykprvq
p1
I1
sVdb0zzbm
p2
I1
s.(dp0
Vdb6an91
p1
I1
sVcykprvq
p2
I1
s.(dp0
Vdbact0m
p1
I1
sVcykprvq
p2
I1
s.(dp0
Vcykprvq
p1
I1
sVdbck0h9
p2
I1
s.(dp0
Vdbdz894
p1
I1
sVcykprvq
p2
I1
s.(dp0
Vcykprvq
p1
I1
sVdbgr2mm
p2
I1
s.(dp0
Vdboyw4v
p1
I1
sVcykprvq
p2
I1
s.(dp0
Vcykprvq
p1
I1
sVdbqmwic
p2
I1
s.(dp0
Vdc0krhi
p1
I1
sVcykprvq
p2
I1
s.(dp0
Vcykprvq
p1
I1
sVdc0rfp5
p2
I1
s.(dp0
Vcykprvq
p1
I1
sVdc1m9vt
p2
I1
s.(dp0
Vcykprvq
p1
I1
sVdcu0fka
p2
I1
s.(dp0
Vdcuzfil
p1
I1
sVcykprvq
p2
I1
s.(dp0
Vdcvjfmo
p1
I1
sVcykprvq
p2
I1
s.(dp0
Vcykprvq
p1
I1
sVdcvshmh
p2
I1
s.(dp0
Vdcx889e
p1
I1
sVcykprvq
p2
I1
s.(dp0
Vcykprvq
p1
I1
sVdcxvvk2
p2
I1
s.(dp0
Vcykprvq
p1
I1
sVdcxzqeg
p2
I1
s.(dp0
Vcykprvq
p1
I1
sVdcxzqeg
p2
I1
s.(dp0
Vdd8eoz1
p1
I1
sVcykprvq
p2
I1
s.(dp0
Vcykprvq
p1
I1
sVddc6302
p2
I1
s.(dp0
Vddd8wk1
p1
I1
sVcykprvq
p2
I1
s.(dp0
Vcykprvq
p1
I1
sVdddxw63
p2
I1
s.(dp0
Vcykprvq
p1
I1
sVddjmra5
p2
I1
s.(dp0
Vcykprvq
p1
I1
sVddtpt9c
p2
I1
s.(dp0
Vcykprvq
p1
I1
sVde6p0t9
p2
I1
s.(dp0
Vcykprvq
p1
I1
sVde7m01h
p2
I1
s.(dp0
Vcy(dp0
Vcykprvq
p1
I1
sVdktve3u
p2
I1
s.