(dp0
Vcz43347
p1
I1
s.(dp0
Vcz439xx
p1
I1
sVcz43347
p2
I1
s.(dp0
Vcz43347
p1
I1
sVczcvag6
p2
I1
s.(dp0
Vcz43347
p1
I1
sVczd0d1l
p2
I1
s.(dp0
Vcz43347
p1
I1
sVczgt1o2
p2
I1
s.(dp0
Vczkjmt8
p1
I1
sVcz43347
p2
I1
s.(dp0
Vcz43347
p1
I1
sVczlreii
p2
I1
s.(dp0
Vczsftns
p1
I1
sVcz43347
p2
I1
s.(dp0
Vcztd8oa
p1
I1
sVcz43347
p2
I1
s.(dp0
Vcz43347
p1
I1
sVczuyz4r
p2
I1
s.(dp0
Vcz43347
p1
I1
sVczvqssk
p2
I1
s.(dp0
Vcz43347
p1
I1
sVczxmqfo
p2
I1
s.(dp0
Vd01eky4
p1
I1
sVcz43347
p2
I1
s.(dp0
Vcz43347
p1
I1
sVd0brgaw
p2
I1
s.(dp0
Vcz43347
p1
I1
sVd0fnkdf
p2
I1
s.(dp0
Vcz43347
p1
I1
sVd0ntmrz
p2
I1
s.(dp0
Vcz43347
p1
I1
sVd0zq2cw
p2
I1
s.(dp0
Vd1anl43
p1
I1
sVcz43347
p2
I1
s.(dp0
Vcz43347
p1
I1
sVd1bp62x
p2
I1
s.(dp0
Vd1kolsz
p1
I1
sVcz43347
p2
I1
s.(dp0
Vcz43347
p1
I1
sVd1ln7ig
p2
I1
s.(dp0
Vcz43347
p1
I1
sVd1mekps
p2
I1
s.(dp0
Vcz43347
p1
I1
sVd1mwri7
p2
I1
s.(dp0
Vcz43347
p1
I1
sVd1t5mc2
p2
I1
s.(dp0
Vcz43347
p1
I1
sVd1zfxfn
p2
I1
s.(dp0
Vcz43347
p1
I1
sVd22bnjd
p2
I1
s.(dp0
Vd2551l2
p1
I1
sVcz43347
p2
I1
s.(dp0
Vd27cvta
p1
I1
sVcz43347
p2
I1
s.(dp0
Vd27cvta
p1
I1
sVcz43347
p2
I1
s.(dp0
Vd27w3hf
p1
I1
sVcz43347
p2
I1
s.(dp0
Vd2glwrn
p1
I1
sVcz43347
p2
I1
s.(dp0
Vd36bbsx
p1
I1
sVcz43347
p2
I1
s.(dp0
Vcz43347
p1
I1
sVd3j6zay
p2
I1
s.(dp0
Vd3psamq
p1
I1
sVcz43347
p2
I1
s.(dp0
Vcz43347
p1
I1
sVd3ybtyu
p2
I1
s.(dp0
Vcz43347
p1
I1
sVd3zc6kn
p2
I1
s.(dp0
Vcz43347
p1
I1
sVd3zc6kn
p2
I1
s.(dp0
Vd44jys3
p1
I1
sVcz43347
p2
I1
s.(dp0
Vd44jys3
p1
I1
sVcz43347
p2
I1
s.(dp0
Vd4r1dco
p1
I1
sVcz43347
p2
I1
s.(dp0
Vcz43347
p1
I1
sVd5m9xki
p2
I1
s.(dp0
Vcz43347
p1
I1
sVd5swgp3
p2
I1
s.(dp0
Vcz43347
p1
I1
sVd65gpa5
p2
I1
s.(dp0
Vcz43347
p1
I1
sVd6d2ttf
p2
I1
s.(dp0
Vcz43347
p1
I1
sVd6lhchq
p2
I1
s.(dp0
Vcz43347
p1
I1
sVd6qt6d2
p2
I1
s.(dp0
Vcz43347
p1
I1
sVd6r8ilj
p2
I1
s.(dp0
Vcz43347
p1
I1
sVd6zbvrj
p2
I1
s.(dp0
Vd7x9p89
p1
I1
sVcz43347
p2
I1
s.(dp0
Vcz43347
p1
I1
sVd80u5ou
p2
I1
s.(dp0
Vd85sesc
p1
I1
sVcz43347
p2
I1
s.(dp0
Vcz43347
p1
I1
sVd8cdjy5
p2
I1
s.(dp0
Vd8xrcth
p1
I1
sVcz43347
p2
I1
s.(dp0
Vcz43347
p1
I1
sVd96suy1
p2
I1
s.(dp0
Vd99yqhw
p1
I1
sVcz43347
p2
I1
s.(dp0
Vd99yqhw
p1
I1
sVcz43347
p2
I1
s.(dp0
Vcz43347
p1
I1
sVd9ei87k
p2
I1
s.(dp0
Vd9icufy
p1
I1
sVcz43347
p2
I1
s.(dp0
Vcz43347
p1
I1
sVd9n0tmr
p2
I1
s.(dp0
Vd9pwj1x
p1
I1
sVcz43347
p2
I1
s.(dp0
Vda2rnpf
p1
I1
sVcz43347
p2
I1
s.(dp0
Vdac0l7z
p1
I1
sVcz43347
p2
I1
s.(dp0
Vdahsklj
p1
I1
sVcz43347
p2
I1
s.(dp0
Vcz43347
p1
I1
sVdan2v42
p2
I1
s.(dp0
Vcz43347
p1
I1
sVdbe0vhz
p2
I1
s.(dp0
Vcz43347
p1
I1
sVdbeb37u
p2
I1
s.(dp0
Vcz43347
p1
I1
sVdbesuuk
p2
I1
s.(dp0
Vcz43347
p1
I1
sVdbmv49k
p2
I1
s.(dp0
Vdbmw0xz
p1
I1
sVcz43347
p2
I1
s.(dp0
Vcz43347
p1
I1
sVdbmzfn6
p2
I1
s.(dp0
Vcz43347
p1
I1
sVdbn5ljl
p2
I1
s.(dp0
Vcz43347
p1
I1
sVdbu3yaj
p2
I1
s.(dp0
Vdc3erwp
p1
I1
sVcz43347
p2
I1
s.(dp0
Vdcb4ddf
p1
I1
sVcz43347
p2
I1
s.(dp0
Vdcquejf
p1
I1
sVcz43347
p2
I1
s.(dp0
Vcz43347
p1
I1
sVdcqv1yf
p2
I1
s.(dp0
Vcz43347
p1
I1
sVdd3b3c6
p2
I1
s.(dp0
Vdd43h21
p1
I1
sVcz43347
p2
I1
s.(dp0
Vdd5ght0
p1
I1
sVcz43347
p2
I1
s.(dp0
Vdd7f9fw
p1
I1
sVcz43347
p2
I1
s.(dp0
Vddbx9y5
p1
I1
sVcz43347
p2
I1
s.(dp0
Vcz43347
p1
I1
sVddeo0j6
p2
I1
s.(dp0
Vddhztrk
p1
I1
sVcz43347
p2
I1
s.(dp0
Vddi4vbn
p1
I1
sVcz43347
p2
I1
s.(dp0
Vde0mqp3
p1
I1
sVcz43347
p2
I1
s.(dp0
Vcz43347
p1
I1
sVdek1e2i
p2
I1
s.(dp0
Vdelyzo9
p1
I1
sVcz43347
p2
I1
s.(dp0
Vcz43347
p1
I1
sVdeno4fw
p2
I1
s.(dp0
Vcz43347
p1
I1
sVdesmuh1
p2
I1
s.(dp0
Vcz43347
p1
I1
sVdezz054
p2
I1
s.(dp0
Vcz43347
p1
I1
sVdf9cemb
p2
I1
s.(dp0
Vdfca6ee
p1
I1
sVcz43347
p2
I1
s.(dp0
Vcz43347
p1
I1
sVdfoys11
p2
I1
s.(dp0
Vdfwr1yc
p1
I1
sVcz43347
p2
I1
s.(dp0
Vcz43347
p1
I1
sVdg6hupi
p2
I1
s.(dp0
Vdg7f9ri
p1
I1
sVcz43347
p2
I1
s.(dp0
Vdgezo5x
p1
I1
sVcz43347
p2
I1
s.(dp0
Vdgul5ol
p1
I1
sVcz43347
p2
I1
s.(dp0
Vcz43347
p1
I1
sVdgvuv0t
p2
I1
s.(dp0
Vdgy0cq4
p1
I1
sVcz43347
p2
I1
s.(dp0
Vcz43347
p1
I1
sVdhedes9
p2
I1
s.(dp0
Vcz43347
p1
I1
sVdhfzxll
p2
I1
s.(dp0
Vcz43347
p1
I1
sVdhnl95q
p2
I1
s.(dp0
Vdhz7gxu
p1
I1
sVcz43347
p2
I1
s.(dp0
Vcz43347
p1
I1
sVdi3iizq
p2
I1
s.(dp0
Vcz43347
p1
I1
sVdi8w62t
p2
I1
s.(dp0
Vdib9kgs
p1
I1
sVcz43347
p2
I1
s.(dp0
Vcz43347
p1
I1
sVdisqjnh
p2
I1
s.(dp0
Vcz(dp0
Vdkxttbq
p1
I1
sVcz43347
p2
I1
s.