(dp0
Vcyz2txa
p1
I1
s.(dp0
Vd0tzg9m
p1
I1
sVcyz2txa
p2
I1
s.(dp0
Vcyz2txa
p1
I1
sVd2ediim
p2
I1
s.(dp0
Vcyz2txa
p1
I1
sVd2u6j7z
p2
I1
s.(dp0
Vd3ykmhj
p1
I1
sVcyz2txa
p2
I1
s.(dp0
Vd53meeo
p1
I1
sVcyz2txa
p2
I1
s.(dp0
Vcyz2txa
p1
I1
sVd67l8wh
p2
I1
s.(dp0
Vd81lv4z
p1
I1
sVcyz2txa
p2
I1
s.(dp0
Vd9u1sxm
p1
I1
sVcyz2txa
p2
I1
s.(dp0
Vdasme0a
p1
I1
sVcyz2txa
p2
I1
s.(dp0
Vcyz2txa
p1
I1
sVdbctvb1
p2
I1
s.(dp0
Vdbctvb3
p1
I1
sVcyz2txa
p2
I1
s.(dp0
Vdbctvb6
p1
I1
sVcyz2txa
p2
I1
s.(dp0
Vcyz2txa
p1
I1
sVdbctvba
p2
I1
s.(dp0
Vdcnuy7r
p1
I1
sVcyz2txa
p2
I1
s.(dp0
Vdfvfaql
p1
I1
sVcyz2txa
p2
I1
s.(dp0
Vdjxjsyh
p1
I1
sVcyz2txa
p2
I1
s.(dp0
Vdnyd3r2
p1
I1
sVcyz2txa
p2
I1
s.(dp0
Vdo7l7xt
p1
I1
sVcyz2txa
p2
I1
s.