(dp0
Vcz7zu2g
p1
I1
s.(dp0
Vczasy7t
p1
I1
sVcz7zu2g
p2
I1
s.(dp0
Vczdyudv
p1
I1
sVcz7zu2g
p2
I1
s.(dp0
Vczsi0be
p1
I1
sVcz7zu2g
p2
I1
s.(dp0
Vd01m6x8
p1
I1
sVcz7zu2g
p2
I1
s.(dp0
Vd0ne8rb
p1
I1
sVcz7zu2g
p2
I1
s.(dp0
Vd1oi1re
p1
I1
sVcz7zu2g
p2
I1
s.(dp0
Vd48i8fv
p1
I1
sVcz7zu2g
p2
I1
s.(dp0
Vd4mjmez
p1
I1
sVcz7zu2g
p2
I1
s.(dp0
Vd4py8d1
p1
I1
sVcz7zu2g
p2
I1
s.(dp0
Vd4py8d1
p1
I1
sVcz7zu2g
p2
I1
s.(dp0
Vd4sdrox
p1
I1
sVcz7zu2g
p2
I1
s.(dp0
Vd4wo7ez
p1
I1
sVcz7zu2g
p2
I1
s.(dp0
Vd59rqno
p1
I1
sVcz7zu2g
p2
I1
s.(dp0
Vd59rqno
p1
I1
sVcz7zu2g
p2
I1
s.(dp0
Vd5v3hn4
p1
I1
sVcz7zu2g
p2
I1
s.(dp0
Vd5vvege
p1
I1
sVcz7zu2g
p2
I1
s.(dp0
Vd5ylns8
p1
I1
sVcz7zu2g
p2
I1
s.(dp0
Vd7nexty
p1
I1
sVcz7zu2g
p2
I1
s.(dp0
Vd87ywy3
p1
I1
sVcz7zu2g
p2
I1
s.(dp0
Vd886vow
p1
I1
sVcz7zu2g
p2
I1
s.(dp0
Vd8dqyyf
p1
I1
sVcz7zu2g
p2
I1
s.(dp0
Vd92wivy
p1
I1
sVcz7zu2g
p2
I1
s.(dp0
Vd9idppi
p1
I1
sVcz7zu2g
p2
I1
s.(dp0
Vda1yqct
p1
I1
sVcz7zu2g
p2
I1
s.(dp0
Vda3jy6k
p1
I1
sVcz7zu2g
p2
I1
s.(dp0
Vddgm2ox
p1
I1
sVcz7zu2g
p2
I1
s.(dp0
Vde1bbj1
p1
I1
sVcz7zu2g
p2
I1
s.(dp0
Vdfe2yd9
p1
I1
sVcz7zu2g
p2
I1
s.(dp0
Vdfg8o7l
p1
I1
sVcz7zu2g
p2
I1
s.(dp0
Vdg985fn
p1
I1
sVcz7zu2g
p2
I1
s.(dp0
Vdgio3aj
p1
I1
sVcz7zu2g
p2
I1
s.(dp0
Vdhjf7tt
p1
I1
sVcz7zu2g
p2
I1
s.(dp0
Vdie1hyq
p1
I1
sVcz7zu2g
p2
I1
s.(dp0
Vdjnpprs
p1
I1
sVcz7zu2g
p2
I1
s.(dp0
Vdnov6pw
p1
I1
sVcz7zu2g
p2
I1
s.