(dp0
Vczjrvbf
p1
I1
s.(dp0
Vczjrvbf
p1
I2
s.(dp0
Vczjrvbf
p1
I2
s.(dp0
Vczjrvbf
p1
I2
s.(dp0
Vczjrvbf
p1
I2
s.(dp0
Vczjrvbf
p1
I2
s.(dp0
Vczswsqn
p1
I1
sVczjrvbf
p2
I1
s.(dp0
Vd01fge5
p1
I1
sVczjrvbf
p2
I1
s.(dp0
Vd269hp4
p1
I1
sVczjrvbf
p2
I1
s.(dp0
Vd2wrzya
p1
I1
sVczjrvbf
p2
I1
s.(dp0
Vczjrvbf
p1
I1
sVd5g6343
p2
I1
s.(dp0
Vd9q4yac
p1
I1
sVczjrvbf
p2
I1
s.(dp0
Vczjrvbf
p1
I1
sVdasssi1
p2
I1
s.(dp0
Vdddmqrg
p1
I1
sVczjrvbf
p2
I1
s.(dp0
Vdddmqrg
p1
I1
sVczjrvbf
p2
I1
s.(dp0
Vdde9koc
p1
I1
sVczjrvbf
p2
I1
s.(dp0
Vdde9koc
p1
I1
sVczjrvbf
p2
I1
s.(dp0
Vczjrvbf
p1
I1
sVdglymm2
p2
I1
s.(dp0
Vdi152lt
p1
I1
sVczjrvbf
p2
I1
s.(dp0
Vdi152lt
p1
I1
sVczjrvbf
p2
I1
s.(dp0
Vczjrvbf
p1
I1
sVdms2cet
p2
I1
s.