(dp0
Vd0oe62n
p1
I1
s.(dp0
Vd0qpt5o
p1
I1
sVd0oe62n
p2
I1
s.(dp0
Vd0oe62n
p1
I1
sVd0ss7mt
p2
I1
s.(dp0
Vd1bxu1u
p1
I1
sVd0oe62n
p2
I1
s.(dp0
Vd1j7qnd
p1
I1
sVd0oe62n
p2
I1
s.(dp0
Vd2doqe9
p1
I1
sVd0oe62n
p2
I1
s.(dp0
Vd0oe62n
p1
I1
sVda3ypr7
p2
I1
s.(dp0
Vdaku86s
p1
I1
sVd0oe62n
p2
I1
s.(dp0
Vdd6n519
p1
I1
sVd0oe62n
p2
I1
s.(dp0
Vdeipe0s
p1
I1
sVd0oe62n
p2
I1
s.(dp0
Vd0oe62n
p1
I1
sVdh3ubnp
p2
I1
s.(dp0
Vdhohfjy
p1
I1
sVd0oe62n
p2
I1
s.(dp0
Vdilur5s
p1
I1
sVd0oe62n
p2
I1
s.