(dp0
Vczhqrto
p1
I1
s.(dp0
Vczhqrto
p1
I1
sVd4668ji
p2
I1
s.(dp0
Vczhqrto
p1
I1
sVdaxlj18
p2
I1
s.(dp0
Vczhqrto
p1
I1
sVdbj9lrt
p2
I1
s.(dp0
Vczhqrto
p1
I1
sVddcz7n3
p2
I1
s.(dp0
Vczhqrto
p1
I1
sVdhpmyej
p2
I1
s.(dp0
Vczhqrto
p1
I1
sVdjxhd0t
p2
I1
s.