(dp0
Vcyim7pd
p1
I1
s.(dp0
Vcyjhm7c
p1
I1
sVcyim7pd
p2
I1
s.(dp0
Vcyjhm7c
p1
I1
sVcyim7pd
p2
I1
s.(dp0
Vcykjmkc
p1
I1
sVcyim7pd
p2
I1
s.(dp0
Vcyknmdo
p1
I1
sVcyim7pd
p2
I1
s.(dp0
Vcylqc99
p1
I1
sVcyim7pd
p2
I1
s.(dp0
Vcyn1757
p1
I1
sVcyim7pd
p2
I1
s.(dp0
Vcynlsjn
p1
I1
sVcyim7pd
p2
I1
s.(dp0
Vcyim7pd
p1
I1
sVcynzmq2
p2
I1
s.(dp0
Vcyo2f44
p1
I1
sVcyim7pd
p2
I1
s.(dp0
Vcyowfdy
p1
I1
sVcyim7pd
p2
I1
s.(dp0
Vcyozhie
p1
I1
sVcyim7pd
p2
I1
s.(dp0
Vcyqavii
p1
I1
sVcyim7pd
p2
I1
s.(dp0
Vcyqie2p
p1
I1
sVcyim7pd
p2
I1
s.(dp0
Vcyqu6dj
p1
I1
sVcyim7pd
p2
I1
s.(dp0
Vcyqw4fh
p1
I1
sVcyim7pd
p2
I1
s.(dp0
Vcyrqsdv
p1
I1
sVcyim7pd
p2
I1
s.(dp0
Vcys55td
p1
I1
sVcyim7pd
p2
I1
s.(dp0
Vcyswa11
p1
I1
sVcyim7pd
p2
I1
s.(dp0
Vcyim7pd
p1
I1
sVcytfxvt
p2
I1
s.(dp0
Vcywfwdy
p1
I1
sVcyim7pd
p2
I1
s.(dp0
Vcywm1dg
p1
I1
sVcyim7pd
p2
I1
s.(dp0
Vcyy7stj
p1
I1
sVcyim7pd
p2
I1
s.(dp0
Vcyyy6zb
p1
I1
sVcyim7pd
p2
I1
s.(dp0
Vcyz1dqh
p1
I1
sVcyim7pd
p2
I1
s.(dp0
Vcyzb7fo
p1
I1
sVcyim7pd
p2
I1
s.(dp0
Vcyzop8i
p1
I1
sVcyim7pd
p2
I1
s.(dp0
Vcyim7pd
p1
I1
sVcyzrpgy
p2
I1
s.(dp0
Vcyim7pd
p1
I1
sVcz2ks12
p2
I1
s.(dp0
Vcz5gwmj
p1
I1
sVcyim7pd
p2
I1
s.(dp0
Vcz5h377
p1
I1
sVcyim7pd
p2
I1
s.(dp0
Vcz5l7bh
p1
I1
sVcyim7pd
p2
I1
s.(dp0
Vcz5swc3
p1
I1
sVcyim7pd
p2
I1
s.(dp0
Vcz5swc3
p1
I1
sVcyim7pd
p2
I1
s.(dp0
Vcz78l2o
p1
I1
sVcyim7pd
p2
I1
s.(dp0
Vcyim7pd
p1
I1
sVczcdnqk
p2
I1
s.(dp0
Vczdjeoy
p1
I1
sVcyim7pd
p2
I1
s.(dp0
Vczekfyk
p1
I1
sVcyim7pd
p2
I1
s.(dp0
Vcyim7pd
p1
I1
sVczfgjfn
p2
I1
s.(dp0
Vcyim7pd
p1
I1
sVczfoc0e
p2
I1
s.(dp0
Vczgpont
p1
I1
sVcyim7pd
p2
I1
s.(dp0
Vczh8r91
p1
I1
sVcyim7pd
p2
I1
s.(dp0
Vczhoyb5
p1
I1
sVcyim7pd
p2
I1
s.(dp0
Vczjac2j
p1
I1
sVcyim7pd
p2
I1
s.(dp0
Vczjlk7z
p1
I1
sVcyim7pd
p2
I1
s.(dp0
Vczkkufo
p1
I1
sVcyim7pd
p2
I1
s.(dp0
Vczlxumv
p1
I1
sVcyim7pd
p2
I1
s.(dp0
Vczm0rbc
p1
I1
sVcyim7pd
p2
I1
s.(dp0
Vczmnsu3
p1
I1
sVcyim7pd
p2
I1
s.(dp0
Vczndn0d
p1
I1
sVcyim7pd
p2
I1
s.(dp0
Vczndn0d
p1
I1
sVcyim7pd
p2
I1
s.(dp0
Vczpaqir
p1
I1
sVcyim7pd
p2
I1
s.(dp0
Vczqyds8
p1
I1
sVcyim7pd
p2
I1
s.(dp0
Vczr1zql
p1
I1
sVcyim7pd
p2
I1
s.(dp0
Vczr50f9
p1
I1
sVcyim7pd
p2
I1
s.(dp0
Vczreabb
p1
I1
sVcyim7pd
p2
I1
s.(dp0
Vczs1use
p1
I1
sVcyim7pd
p2
I1
s.(dp0
Vczse63n
p1
I1
sVcyim7pd
p2
I1
s.(dp0
Vcztxweu
p1
I1
sVcyim7pd
p2
I1
s.(dp0
Vcztxweu
p1
I1
sVcyim7pd
p2
I1
s.(dp0
Vczui2ee
p1
I1
sVcyim7pd
p2
I1
s.(dp0
Vczx5ree
p1
I1
sVcyim7pd
p2
I1
s.(dp0
Vczxmy59
p1
I1
sVcyim7pd
p2
I1
s.(dp0
Vczy4680
p1
I1
sVcyim7pd
p2
I1
s.(dp0
Vd019mya
p1
I1
sVcyim7pd
p2
I1
s.(dp0
Vcyim7pd
p1
I1
sVd01m6x8
p2
I1
s.(dp0
Vd03p5qo
p1
I1
sVcyim7pd
p2
I1
s.(dp0
Vd03zwcc
p1
I1
sVcyim7pd
p2
I1
s.(dp0
Vd057sef
p1
I1
sVcyim7pd
p2
I1
s.(dp0
Vcyim7pd
p1
I1
sVd05lzts
p2
I1
s.(dp0
Vd05q0d1
p1
I1
sVcyim7pd
p2
I1
s.(dp0
Vd07r0v3
p1
I1
sVcyim7pd
p2
I1
s.(dp0
Vd07uun5
p1
I1
sVcyim7pd
p2
I1
s.(dp0
Vd07uun5
p1
I1
sVcyim7pd
p2
I1
s.(dp0
Vd08o0tv
p1
I1
sVcyim7pd
p2
I1
s.(dp0
Vd098303
p1
I1
sVcyim7pd
p2
I1
s.(dp0
Vd0a41ls
p1
I1
sVcyim7pd
p2
I1
s.(dp0
Vd0alj88
p1
I1
sVcyim7pd
p2
I1
s.(dp0
Vd0c9h9y
p1
I1
sVcyim7pd
p2
I1
s.(dp0
Vd0cq239
p1
I1
sVcyim7pd
p2
I1
s.(dp0
Vd0cv62l
p1
I1
sVcyim7pd
p2
I1
s.(dp0
Vd0cz5zi
p1
I1
sVcyim7pd
p2
I1
s.(dp0
Vd0e6x70
p1
I1
sVcyim7pd
p2
I1
s.(dp0
Vcyim7pd
p1
I1
sVd0iymgn
p2
I1
s.(dp0
Vd0kffd5
p1
I1
sVcyim7pd
p2
I1
s.(dp0
Vd0kmssg
p1
I1
sVcyim7pd
p2
I1
s.(dp0
Vd0l227o
p1
I1
sVcyim7pd
p2
I1
s.(dp0
Vd0lmte3
p1
I1
sVcyim7pd
p2
I1
s.(dp0
Vcyim7pd
p1
I1
sVd0mdot6
p2
I1
s.(dp0
Vd0n9n0e
p1
I1
sVcyim7pd
p2
I1
s.(dp0
Vd0o0gvu
p1
I1
sVcyim7pd
p2
I1
s.(dp0
Vd0stovo
p1
I1
sVcyim7pd
p2
I1
s.(dp0
Vd0t7ufq
p1
I1
sVcyim7pd
p2
I1
s.(dp0
Vd0ug0x6
p1
I1
sVcyim7pd
p2
I1
s.(dp0
Vd0vus97
p1
I1
sVcyim7pd
p2
I1
s.(dp0
Vd0y2yl6
p1
I1
sVcyim7pd
p2
I1
s.(dp0
Vd0y2yl6
p1
I1
sVcyim7pd
p2
I1
s.(dp0
Vd0yla82
p1
I1
sVcyim7pd
p2
I1
s.(dp0
Vcyim7pd
p1
I1
sVd125sh5
p2
I1
s.(dp0
Vd12mabq
p1
I1
sVcyim7pd
p2
I1
s.(dp0
Vd12r5f2
p1
I1
sVcyim7pd
p2
I1
s.(dp0
Vd13jrcd
p1
I1
sVcyim7pd
p2
I1
s.(dp0
Vd163q9p
p1
I1
sVcyim7pd
p2
I1
s.(dp0
Vd19av8m
p1
I1
sVcyim7pd
p2
I1
s.(dp0
Vd19su9k
p1
I1
sVcyim7pd
p2
I1
s.(dp0
Vd1fgnz9
p1
I1
sVcyim7pd
p2
I1
s.(dp0
Vd1fua5m
p1
I1
sVcyim7pd
p2
I1
s.(dp0
Vd1i63q6
p1
I1
sVcyim7pd
p2
I1
s.(dp0
Vd1(dp0
Vdp0j6yd
p1
I1
sVcyim7pd
p2
I1
s.