(dp0
Vcz1rnpy
p1
I1
s.(dp0
Vczcok64
p1
I1
sVcz1rnpy
p2
I1
s.(dp0
Vczvchvm
p1
I1
sVcz1rnpy
p2
I1
s.(dp0
Vczz0g1z
p1
I1
sVcz1rnpy
p2
I1
s.(dp0
Vd01jzg7
p1
I1
sVcz1rnpy
p2
I1
s.(dp0
Vcz1rnpy
p1
I1
sVd0c50rv
p2
I1
s.(dp0
Vd0ens5w
p1
I1
sVcz1rnpy
p2
I1
s.(dp0
Vd0yddix
p1
I1
sVcz1rnpy
p2
I1
s.(dp0
Vd1vd9op
p1
I1
sVcz1rnpy
p2
I1
s.(dp0
Vd2kl5nk
p1
I1
sVcz1rnpy
p2
I1
s.(dp0
Vd2knm0a
p1
I1
sVcz1rnpy
p2
I1
s.(dp0
Vd31fyqf
p1
I1
sVcz1rnpy
p2
I1
s.(dp0
Vd34761h
p1
I1
sVcz1rnpy
p2
I1
s.(dp0
Vd3hegr4
p1
I1
sVcz1rnpy
p2
I1
s.(dp0
Vcz1rnpy
p1
I1
sVd3upyuz
p2
I1
s.(dp0
Vd45xs9z
p1
I1
sVcz1rnpy
p2
I1
s.(dp0
Vd5c58c6
p1
I1
sVcz1rnpy
p2
I1
s.(dp0
Vcz1rnpy
p1
I1
sVd5epzr2
p2
I1
s.(dp0
Vcz1rnpy
p1
I1
sVd74g5yb
p2
I1
s.(dp0
Vd8cihk0
p1
I1
sVcz1rnpy
p2
I1
s.(dp0
Vd8jdy5o
p1
I1
sVcz1rnpy
p2
I1
s.(dp0
Vd8jdy5o
p1
I1
sVcz1rnpy
p2
I1
s.(dp0
Vd8rf3t6
p1
I1
sVcz1rnpy
p2
I1
s.(dp0
Vd9u6nwm
p1
I1
sVcz1rnpy
p2
I1
s.(dp0
Vdaopgdp
p1
I1
sVcz1rnpy
p2
I1
s.(dp0
Vdaw4yd8
p1
I1
sVcz1rnpy
p2
I1
s.(dp0
Vdazqk9x
p1
I1
sVcz1rnpy
p2
I1
s.(dp0
Vdazqk9x
p1
I1
sVcz1rnpy
p2
I1
s.(dp0
Vdblryjp
p1
I1
sVcz1rnpy
p2
I1
s.(dp0
Vcz1rnpy
p1
I1
sVdbnqvh9
p2
I1
s.(dp0
Vdbt73zg
p1
I1
sVcz1rnpy
p2
I1
s.(dp0
Vcz1rnpy
p1
I1
sVdc3goom
p2
I1
s.(dp0
Vdc85l66
p1
I1
sVcz1rnpy
p2
I1
s.(dp0
Vdcbjk00
p1
I1
sVcz1rnpy
p2
I1
s.(dp0
Vddaocby
p1
I1
sVcz1rnpy
p2
I1
s.(dp0
Vddrkha2
p1
I1
sVcz1rnpy
p2
I1
s.(dp0
Vdeikxt6
p1
I1
sVcz1rnpy
p2
I1
s.(dp0
Vdewgqus
p1
I1
sVcz1rnpy
p2
I1
s.(dp0
Vdgb8zsi
p1
I1
sVcz1rnpy
p2
I1
s.(dp0
Vdgg4umb
p1
I1
sVcz1rnpy
p2
I1
s.(dp0
Vdhcmjy3
p1
I1
sVcz1rnpy
p2
I1
s.(dp0
Vdhd4oim
p1
I1
sVcz1rnpy
p2
I1
s.(dp0
Vdhe2ejb
p1
I1
sVcz1rnpy
p2
I1
s.(dp0
Vdij3flw
p1
I1
sVcz1rnpy
p2
I1
s.(dp0
Vdiseq9t
p1
I1
sVcz1rnpy
p2
I1
s.(dp0
Vdjhnvuk
p1
I1
sVcz1rnpy
p2
I1
s.(dp0
Vcz1rnpy
p1
I1
sVdk6cwkp
p2
I1
s.