(dp0
Vczmz669
p1
I1
s.(dp0
Vczmz669
p1
I1
sVd1qrwr5
p2
I1
s.(dp0
Vczmz669
p1
I1
sVd1qs34e
p2
I1
s.(dp0
Vczmz669
p1
I1
sVd1qs34e
p2
I1
s.(dp0
Vczmz669
p1
I1
sVd1qsbor
p2
I1
s.(dp0
Vczmz669
p1
I1
sVd1riode
p2
I1
s.(dp0
Vczmz669
p1
I1
sVd3i3qfn
p2
I1
s.(dp0
Vczmz669
p1
I1
sVd4s86pj
p2
I1
s.(dp0
Vczmz669
p1
I1
sVd8q10up
p2
I1
s.(dp0
Vczmz669
p1
I1
sVd9k83c9
p2
I1
s.(dp0
Vczmz669
p1
I1
sVdf5cdm8
p2
I1
s.(dp0
Vczmz669
p1
I1
sVdf5e4jm
p2
I1
s.(dp0
Vczmz669
p1
I1
sVdg4ytng
p2
I1
s.(dp0
Vczmz669
p1
I1
sVdi336h9
p2
I1
s.(dp0
Vczmz669
p1
I1
sVdi33m6r
p2
I1
s.(dp0
Vczmz669
p1
I1
sVdidp564
p2
I1
s.(dp0
Vczmz669
p1
I1
sVdidp564
p2
I1
s.(dp0
Vczmz669
p1
I1
sVdidp564
p2
I1
s.(dp0
Vczmz669
p1
I1
sVdidp564
p2
I1
s.(dp0
Vczmz669
p1
I1
sVdidp564
p2
I1
s.(dp0
Vczmz669
p1
I1
sVdidp564
p2
I1
s.(dp0
Vczmz669
p1
I1
sVdidp564
p2
I1
s.(dp0
Vczmz669
p1
I1
sVdidp564
p2
I1
s.(dp0
Vczmz669
p1
I1
sVdidp564
p2
I1
s.(dp0
Vczmz669
p1
I1
sVdidp564
p2
I1
s.(dp0
Vczmz669
p1
I1
sVdidp564
p2
I1
s.