(dp0
Vcyi4xca
p1
I1
s.(dp0
Vcyi4xca
p1
I1
sVcyi96du
p2
I1
s.(dp0
Vcyi4xca
p1
I1
sVcyi96du
p2
I1
s.(dp0
Vcyi4xca
p1
I1
sVcyi96du
p2
I1
s.(dp0
Vcyi4xca
p1
I1
sVcyif0qi
p2
I1
s.(dp0
Vcyi4xca
p1
I1
sVcyiwzs3
p2
I1
s.(dp0
Vcyi4xca
p1
I1
sVcyiwzs3
p2
I1
s.(dp0
Vcyi4xca
p1
I1
sVcyj181q
p2
I1
s.(dp0
Vcyi4xca
p1
I1
sVcyj181q
p2
I1
s.(dp0
Vcyi4xca
p1
I1
sVcyj2p95
p2
I1
s.(dp0
Vcyi4xca
p1
I1
sVcyja2by
p2
I1
s.(dp0
Vcyi4xca
p1
I1
sVcyjcswz
p2
I1
s.(dp0
Vcyi4xca
p1
I1
sVcyjdy1v
p2
I1
s.(dp0
Vcyi4xca
p1
I1
sVcyjdy1v
p2
I1
s.(dp0
Vcyi4xca
p1
I1
sVcyjk6sm
p2
I1
s.(dp0
Vcyi4xca
p1
I1
sVcyjvjvq
p2
I1
s.(dp0
Vcyi4xca
p1
I1
sVcyk26jv
p2
I1
s.(dp0
Vcyk2qg3
p1
I1
sVcyi4xca
p2
I1
s.(dp0
Vcyi4xca
p1
I1
sVcyk4vvb
p2
I1
s.(dp0
Vcyi4xca
p1
I1
sVcykfs4r
p2
I1
s.(dp0
Vcyi4xca
p1
I1
sVcykijpk
p2
I1
s.(dp0
Vcykosdj
p1
I1
sVcyi4xca
p2
I1
s.(dp0
Vcyi4xca
p1
I1
sVcykqzwk
p2
I1
s.(dp0
Vcyi4xca
p1
I1
sVcyktze3
p2
I1
s.(dp0
Vcyi4xca
p1
I1
sVcyldroz
p2
I1
s.(dp0
Vcyi4xca
p1
I1
sVcyldroz
p2
I1
s.(dp0
Vcyi4xca
p1
I1
sVcyljcc2
p2
I1
s.(dp0
Vcylknaf
p1
I1
sVcyi4xca
p2
I1
s.(dp0
Vcyi4xca
p1
I1
sVcylqr0n
p2
I1
s.(dp0
Vcylrese
p1
I1
sVcyi4xca
p2
I1
s.(dp0
Vcyi4xca
p1
I1
sVcyls9c8
p2
I1
s.(dp0
Vcymkfkx
p1
I1
sVcyi4xca
p2
I1
s.(dp0
Vcyi4xca
p1
I1
sVcynyom6
p2
I1
s.(dp0
Vcyi4xca
p1
I1
sVcyo6ts0
p2
I1
s.(dp0
Vcyi4xca
p1
I1
sVcyo6v90
p2
I1
s.(dp0
Vcyi4xca
p1
I1
sVcyo6v90
p2
I1
s.(dp0
Vcyi4xca
p1
I1
sVcyo78b9
p2
I1
s.(dp0
Vcyo7ve0
p1
I1
sVcyi4xca
p2
I1
s.(dp0
Vcyo7ve0
p1
I1
sVcyi4xca
p2
I1
s.(dp0
Vcyoap0s
p1
I1
sVcyi4xca
p2
I1
s.(dp0
Vcyi4xca
p1
I1
sVcyobcpg
p2
I1
s.(dp0
Vcyi4xca
p1
I1
sVcyobcpg
p2
I1
s.(dp0
Vcyi4xca
p1
I1
sVcyoeu9x
p2
I1
s.(dp0
Vcyi4xca
p1
I1
sVcyoeu9x
p2
I1
s.(dp0
Vcyooord
p1
I1
sVcyi4xca
p2
I1
s.(dp0
Vcyi4xca
p1
I1
sVcyoyogo
p2
I1
s.(dp0
Vcyi4xca
p1
I1
sVcypkfit
p2
I1
s.(dp0
Vcyi4xca
p1
I1
sVcypljq9
p2
I1
s.(dp0
Vcyi4xca
p1
I1
sVcypljq9
p2
I1
s.(dp0
Vcyi4xca
p1
I1
sVcypljq9
p2
I1
s.(dp0
Vcyi4xca
p1
I1
sVcypljq9
p2
I1
s.(dp0
Vcyi4xca
p1
I1
sVcypmg7e
p2
I1
s.(dp0
Vcyptiz9
p1
I1
sVcyi4xca
p2
I1
s.(dp0
Vcyql8z1
p1
I1
sVcyi4xca
p2
I1
s.(dp0
Vcyql8z1
p1
I1
sVcyi4xca
p2
I1
s.(dp0
Vcyqm9m3
p1
I1
sVcyi4xca
p2
I1
s.(dp0
Vcyqm9m3
p1
I1
sVcyi4xca
p2
I1
s.(dp0
Vcyi4xca
p1
I1
sVcyqou4m
p2
I1
s.(dp0
Vcyi4xca
p1
I1
sVcyqou4m
p2
I1
s.(dp0
Vcyi4xca
p1
I1
sVcyqy7b0
p2
I1
s.(dp0
Vcyi4xca
p1
I1
sVcyqzusg
p2
I1
s.(dp0
Vcyr6njw
p1
I1
sVcyi4xca
p2
I1
s.(dp0
Vcyi4xca
p1
I1
sVcyrm9l4
p2
I1
s.(dp0
Vcys0fv4
p1
I1
sVcyi4xca
p2
I1
s.(dp0
Vcysbr62
p1
I1
sVcyi4xca
p2
I1
s.(dp0
Vcyi4xca
p1
I1
sVcyshh8y
p2
I1
s.(dp0
Vcysli6k
p1
I1
sVcyi4xca
p2
I1
s.(dp0
Vcyi4xca
p1
I1
sVcysu9ns
p2
I1
s.(dp0
Vcyi4xca
p1
I1
sVcysvuo1
p2
I1
s.(dp0
Vcyi4xca
p1
I1
sVcyt0dq8
p2
I1
s.(dp0
Vcyi4xca
p1
I1
sVcyt0q68
p2
I1
s.(dp0
Vcyt0qh2
p1
I1
sVcyi4xca
p2
I1
s.(dp0
Vcyi4xca
p1
I1
sVcyt18eu
p2
I1
s.(dp0
Vcyi4xca
p1
I1
sVcyt18eu
p2
I1
s.(dp0
Vcyi4xca
p1
I1
sVcyt18eu
p2
I1
s.(dp0
Vcyi4xca
p1
I1
sVcyt18eu
p2
I1
s.(dp0
Vcyi4xca
p1
I1
sVcyt18eu
p2
I1
s.(dp0
Vcyi4xca
p1
I1
sVcytl2fl
p2
I1
s.(dp0
Vcyi4xca
p1
I1
sVcyu3i3y
p2
I1
s.(dp0
Vcyi4xca
p1
I1
sVcyu58f6
p2
I1
s.(dp0
Vcyuahs8
p1
I1
sVcyi4xca
p2
I1
s.(dp0
Vcyuimar
p1
I1
sVcyi4xca
p2
I1
s.(dp0
Vcyusikz
p1
I1
sVcyi4xca
p2
I1
s.(dp0
Vcyv0mgu
p1
I1
sVcyi4xca
p2
I1
s.(dp0
Vcyi4xca
p1
I1
sVcyv4543
p2
I1
s.(dp0
Vcyi4xca
p1
I1
sVcyv47s4
p2
I1
s.(dp0
Vcyi4xca
p1
I1
sVcyv47s4
p2
I1
s.(dp0
Vcyi4xca
p1
I1
sVcyv47s4
p2
I1
s.(dp0
Vcyi4xca
p1
I1
sVcyv48bl
p2
I1
s.(dp0
Vcyi4xca
p1
I1
sVcyv48bl
p2
I1
s.(dp0
Vcyv5usv
p1
I1
sVcyi4xca
p2
I1
s.(dp0
Vcyi4xca
p1
I1
sVcyv5xgm
p2
I1
s.(dp0
Vcyvjs6z
p1
I1
sVcyi4xca
p2
I1
s.(dp0
Vcyi4xca
p1
I1
sVcyvnwyy
p2
I1
s.(dp0
Vcyi4xca
p1
I1
sVcyvnwyy
p2
I1
s.(dp0
Vcyi4xca
p1
I1
sVcywbu2t
p2
I1
s.(dp0
Vcyi4xca
p1
I1
sVcywi24j
p2
I1
s.(dp0
Vcyi4xca
p1
I1
sVcywp0yq
p2
I1
s.(dp0
Vcyi4xca
p1
I1
sVcywp0yq
p2
I1
s.(dp0
Vcyi4xca
p1
I1
sVcywp0yq
p2
I1
s.(dp0
Vcyi4xca
p1
I1
sVcyxir1w
p2
I1
s.(dp0
Vcyi4xca
p1
I1
sVcyxjnmo
p2
I1
s.(dp0
Vcyi4xca
p1
I1
sVcyxs947
p2
I1
s.(dp0
Vcyi4xca
p1
I1
sVcyybr6e
p2
I1
s.(dp0
Vcyi4xca
p1
I1
sVcyybr6e
p2
I1
s.(dp0
Vcyi4xca
p1
I1
sVcyybr6e
p2
I1
s.(dp0
Vcyi4xca
p1
I1
sVcyybr6e
p2
I1
s.(dp0
Vcyi4xca
p1
I1
sVcyybr6e
p2
I1
s.(dp0
Vcy(dp0
Vcyi4xca
p1
I1
sVdp5cyb1
p2
I1
s.