(dp0
Vcym5ksy
p1
I1
s.(dp0
Vcym5ksy
p1
I1
sVcyqcah2
p2
I1
s.(dp0
Vcym5ksy
p1
I1
sVcyqcah2
p2
I1
s.(dp0
Vcym5ksy
p1
I1
sVczbjbih
p2
I1
s.(dp0
Vcym5ksy
p1
I1
sVd0oab6k
p2
I1
s.(dp0
Vcym5ksy
p1
I1
sVd1y34ni
p2
I1
s.(dp0
Vcym5ksy
p1
I1
sVd2iajfj
p2
I1
s.(dp0
Vcym5ksy
p1
I1
sVd2w9vpo
p2
I1
s.(dp0
Vcym5ksy
p1
I1
sVd40jyqu
p2
I1
s.(dp0
Vcym5ksy
p1
I1
sVd5ihkgh
p2
I1
s.(dp0
Vcym5ksy
p1
I1
sVd651ssz
p2
I1
s.(dp0
Vcym5ksy
p1
I1
sVd7u0ev6
p2
I1
s.(dp0
Vcym5ksy
p1
I1
sVd7u0ev6
p2
I1
s.(dp0
Vcym5ksy
p1
I1
sVd7uaoy1
p2
I1
s.(dp0
Vcym5ksy
p1
I1
sVd7z4o49
p2
I1
s.(dp0
Vcym5ksy
p1
I1
sVd82pc4s
p2
I1
s.(dp0
Vcym5ksy
p1
I1
sVd9neodp
p2
I1
s.(dp0
Vdegxrq7
p1
I1
sVcym5ksy
p2
I1
s.(dp0
Vdfdzis3
p1
I1
sVcym5ksy
p2
I1
s.(dp0
Vcym5ksy
p1
I1
sVdfe1wnz
p2
I1
s.(dp0
Vcym5ksy
p1
I1
sVdfe1wnz
p2
I1
s.(dp0
Vcym5ksy
p1
I1
sVdfe1wnz
p2
I1
s.(dp0
Vdfe204b
p1
I1
sVcym5ksy
p2
I1
s.(dp0
Vcym5ksy
p1
I1
sVdfe29z3
p2
I1
s.(dp0
Vcym5ksy
p1
I1
sVdfe29z3
p2
I1
s.(dp0
Vcym5ksy
p1
I1
sVdfe29z3
p2
I1
s.(dp0
Vcym5ksy
p1
I1
sVdfe29z3
p2
I1
s.(dp0
Vcym5ksy
p1
I1
sVdfe29z3
p2
I1
s.(dp0
Vcym5ksy
p1
I1
sVdfe3x2z
p2
I1
s.(dp0
Vdfqky2f
p1
I1
sVcym5ksy
p2
I1
s.(dp0
Vdfqky2f
p1
I1
sVcym5ksy
p2
I1
s.(dp0
Vdhfl4wd
p1
I1
sVcym5ksy
p2
I1
s.(dp0
Vcym5ksy
p1
I1
sVdipm2cz
p2
I1
s.(dp0
Vcym5ksy
p1
I1
sVdjm6yas
p2
I1
s.(dp0
Vcym5ksy
p1
I1
sVdjm6yas
p2
I1
s.(dp0
Vcym5ksy
p1
I1
sVdkki72z
p2
I1
s.