(dp0
Vd2mn3kw
p1
I1
s.(dp0
Vd2mn3kw
p1
I2
s.(dp0
Vd5oy2co
p1
I1
sVd2mn3kw
p2
I1
s.(dp0
Vd7fd93j
p1
I1
sVd2mn3kw
p2
I1
s.(dp0
Vd8k1y0m
p1
I1
sVd2mn3kw
p2
I1
s.(dp0
Vdc6usmu
p1
I1
sVd2mn3kw
p2
I1
s.(dp0
Vdevqvp5
p1
I1
sVd2mn3kw
p2
I1
s.