(dp0
Vczwakiq
p1
I1
s.(dp0
Vd06ifc8
p1
I1
sVczwakiq
p2
I1
s.(dp0
Vd0qpt5o
p1
I1
sVczwakiq
p2
I1
s.(dp0
Vd16ei96
p1
I1
sVczwakiq
p2
I1
s.(dp0
Vczwakiq
p1
I1
sVd1rbrt8
p2
I1
s.(dp0
Vczwakiq
p1
I1
sVd2uin6j
p2
I1
s.(dp0
Vczwakiq
p1
I1
sVd30lt93
p2
I1
s.(dp0
Vd5gvp2o
p1
I1
sVczwakiq
p2
I1
s.(dp0
Vczwakiq
p1
I1
sVd5vue0g
p2
I1
s.(dp0
Vd88z5oy
p1
I1
sVczwakiq
p2
I1
s.(dp0
Vczwakiq
p1
I1
sVdeaw3k8
p2
I1
s.(dp0
Vczwakiq
p1
I1
sVdey1ug9
p2
I1
s.(dp0
Vdie03yr
p1
I1
sVczwakiq
p2
I1
s.(dp0
Vdohvlvx
p1
I1
sVczwakiq
p2
I1
s.