(dp0
Vcym4yiu
p1
I1
s.(dp0
Vcym4yiu
p1
I1
sVczsh65h
p2
I1
s.(dp0
Vcym4yiu
p1
I1
sVd3qrjmv
p2
I1
s.(dp0
Vcym4yiu
p1
I1
sVd4002ma
p2
I1
s.(dp0
Vcym4yiu
p1
I1
sVda5kawk
p2
I1
s.(dp0
Vcym4yiu
p1
I1
sVda5kawk
p2
I1
s.(dp0
Vcym4yiu
p1
I1
sVdcjuamz
p2
I1
s.(dp0
Vcym4yiu
p1
I1
sVdd8cxry
p2
I1
s.(dp0
Vcym4yiu
p1
I1
sVdego1tm
p2
I1
s.(dp0
Vcym4yiu
p1
I1
sVdego1tm
p2
I1
s.