(dp0
Vcyijzyk
p1
I1
s.(dp0
Vcyijzyk
p1
I1
sVcz7w8yo
p2
I1
s.(dp0
Vczv034n
p1
I1
sVcyijzyk
p2
I1
s.(dp0
Vcyijzyk
p1
I1
sVczxzzhr
p2
I1
s.(dp0
Vcyijzyk
p1
I1
sVd0krz48
p2
I1
s.(dp0
Vcyijzyk
p1
I1
sVd0r3vfp
p2
I1
s.(dp0
Vcyijzyk
p1
I1
sVd1ofwbt
p2
I1
s.(dp0
Vcyijzyk
p1
I1
sVd3qgzy8
p2
I1
s.(dp0
Vcyijzyk
p1
I1
sVd4uz3lj
p2
I1
s.(dp0
Vd5dssfp
p1
I1
sVcyijzyk
p2
I1
s.(dp0
Vcyijzyk
p1
I1
sVd60bkdr
p2
I1
s.(dp0
Vcyijzyk
p1
I1
sVd6dfpnf
p2
I1
s.(dp0
Vcyijzyk
p1
I1
sVd8ogs45
p2
I1
s.(dp0
Vcyijzyk
p1
I1
sVd9878eu
p2
I1
s.(dp0
Vcyijzyk
p1
I1
sVd9mgre7
p2
I1
s.(dp0
Vcyijzyk
p1
I1
sVdb67w1u
p2
I1
s.(dp0
Vcyijzyk
p1
I1
sVdbx9iiw
p2
I1
s.(dp0
Vcyijzyk
p1
I1
sVddeghpc
p2
I1
s.(dp0
Vcyijzyk
p1
I1
sVddjpxi9
p2
I1
s.(dp0
Vdelhztw
p1
I1
sVcyijzyk
p2
I1
s.(dp0
Vcyijzyk
p1
I1
sVdem08a8
p2
I1
s.(dp0
Vcyijzyk
p1
I1
sVdewe1iw
p2
I1
s.(dp0
Vcyijzyk
p1
I1
sVdf2ps6k
p2
I1
s.(dp0
Vcyijzyk
p1
I1
sVdgzrezr
p2
I1
s.(dp0
Vcyijzyk
p1
I1
sVdho0hb1
p2
I1
s.(dp0
Vdhpjdhh
p1
I1
sVcyijzyk
p2
I1
s.(dp0
Vdhtrolc
p1
I1
sVcyijzyk
p2
I1
s.(dp0
Vcyijzyk
p1
I1
sVdikp3f0
p2
I1
s.(dp0
Vdiktayq
p1
I1
sVcyijzyk
p2
I1
s.(dp0
Vdiku4as
p1
I1
sVcyijzyk
p2
I1
s.(dp0
Vcyijzyk
p1
I1
sVdil2ftb
p2
I1
s.(dp0
Vdiptapu
p1
I1
sVcyijzyk
p2
I1
s.(dp0
Vcyijzyk
p1
I1
sVdjzxjd4
p2
I1
s.(dp0
Vcyijzyk
p1
I1
sVdmw3p8f
p2
I1
s.(dp0
Vcyijzyk
p1
I1
sVdmz8ztf
p2
I1
s.(dp0
Vdo7qlei
p1
I1
sVcyijzyk
p2
I1
s.(dp0
Vcyijzyk
p1
I1
sVdopzuvt
p2
I1
s.(dp0
Vcyijzyk
p1
I1
sVdoyiqor
p2
I1
s.