(dp0
Vd0jfmnm
p1
I1
s.(dp0
Vd0jfmnm
p1
I1
sVd0oeexk
p2
I1
s.(dp0
Vd2f0j0q
p1
I1
sVd0jfmnm
p2
I1
s.(dp0
Vd8ttpa0
p1
I1
sVd0jfmnm
p2
I1
s.(dp0
Vda8jhcj
p1
I1
sVd0jfmnm
p2
I1
s.(dp0
Vd0jfmnm
p1
I1
sVdazix5x
p2
I1
s.(dp0
Vd0jfmnm
p1
I1
sVddsjv95
p2
I1
s.(dp0
Vdesd4cw
p1
I1
sVd0jfmnm
p2
I1
s.(dp0
Vd0jfmnm
p1
I1
sVdhksh0k
p2
I1
s.(dp0
Vd0jfmnm
p1
I1
sVdhwaqfw
p2
I1
s.