(dp0
Vcytju3q
p1
I1
s.(dp0
Vcyugwtv
p1
I1
sVcytju3q
p2
I1
s.(dp0
Vcz1frdc
p1
I1
sVcytju3q
p2
I1
s.(dp0
Vcytju3q
p1
I1
sVcz4ijzv
p2
I1
s.(dp0
Vcz84a9i
p1
I1
sVcytju3q
p2
I1
s.(dp0
Vcz84a9i
p1
I1
sVcytju3q
p2
I1
s.(dp0
Vcytju3q
p1
I1
sVczuxkr4
p2
I1
s.(dp0
Vd19s7bf
p1
I1
sVcytju3q
p2
I1
s.(dp0
Vd3946t4
p1
I1
sVcytju3q
p2
I1
s.(dp0
Vd3946t4
p1
I1
sVcytju3q
p2
I1
s.(dp0
Vcytju3q
p1
I1
sVd3zgk6a
p2
I1
s.(dp0
Vd402gnx
p1
I1
sVcytju3q
p2
I1
s.(dp0
Vd42oy3t
p1
I1
sVcytju3q
p2
I1
s.(dp0
Vcytju3q
p1
I1
sVd464bh2
p2
I1
s.(dp0
Vcytju3q
p1
I1
sVd4bdyoo
p2
I1
s.(dp0
Vd4bftjm
p1
I1
sVcytju3q
p2
I1
s.(dp0
Vd4hq4ak
p1
I1
sVcytju3q
p2
I1
s.(dp0
Vd4hq4ak
p1
I1
sVcytju3q
p2
I1
s.(dp0
Vd4i5j05
p1
I1
sVcytju3q
p2
I1
s.(dp0
Vd5qct4h
p1
I1
sVcytju3q
p2
I1
s.(dp0
Vd5u8pt6
p1
I1
sVcytju3q
p2
I1
s.(dp0
Vd5x5mhg
p1
I1
sVcytju3q
p2
I1
s.(dp0
Vd688r6u
p1
I1
sVcytju3q
p2
I1
s.(dp0
Vcytju3q
p1
I1
sVd68ll0l
p2
I1
s.(dp0
Vd68maen
p1
I1
sVcytju3q
p2
I1
s.(dp0
Vcytju3q
p1
I1
sVd68p2ye
p2
I1
s.(dp0
Vcytju3q
p1
I1
sVd6kxe0b
p2
I1
s.(dp0
Vcytju3q
p1
I1
sVd6kxe0b
p2
I1
s.(dp0
Vcytju3q
p1
I1
sVd6kxe0b
p2
I1
s.(dp0
Vcytju3q
p1
I1
sVd75hs8f
p2
I1
s.(dp0
Vcytju3q
p1
I1
sVd78hrg8
p2
I1
s.(dp0
Vcytju3q
p1
I1
sVd78hrg8
p2
I1
s.(dp0
Vd83dgvq
p1
I1
sVcytju3q
p2
I1
s.(dp0
Vd8w1iui
p1
I1
sVcytju3q
p2
I1
s.(dp0
Vcytju3q
p1
I1
sVd9enkor
p2
I1
s.(dp0
Vd9ey9a3
p1
I1
sVcytju3q
p2
I1
s.(dp0
Vd9ey9a3
p1
I1
sVcytju3q
p2
I1
s.(dp0
Vd9hwmnk
p1
I1
sVcytju3q
p2
I1
s.(dp0
Vd9ycmjd
p1
I1
sVcytju3q
p2
I1
s.(dp0
Vdaor8o1
p1
I1
sVcytju3q
p2
I1
s.(dp0
Vdauzyee
p1
I1
sVcytju3q
p2
I1
s.(dp0
Vdb9f3iz
p1
I1
sVcytju3q
p2
I1
s.(dp0
Vdbpfeiy
p1
I1
sVcytju3q
p2
I1
s.(dp0
Vdbpfeiy
p1
I1
sVcytju3q
p2
I1
s.(dp0
Vdbs0kjb
p1
I1
sVcytju3q
p2
I1
s.(dp0
Vcytju3q
p1
I1
sVdc0cycd
p2
I1
s.(dp0
Vdc3z206
p1
I1
sVcytju3q
p2
I1
s.(dp0
Vcytju3q
p1
I1
sVdd3vzer
p2
I1
s.(dp0
Vcytju3q
p1
I1
sVdd4wmrk
p2
I1
s.(dp0
Vcytju3q
p1
I1
sVdd5l2j9
p2
I1
s.(dp0
Vddpzuwy
p1
I1
sVcytju3q
p2
I1
s.(dp0
Vdds7a4y
p1
I1
sVcytju3q
p2
I1
s.(dp0
Vdeb6nh7
p1
I1
sVcytju3q
p2
I1
s.(dp0
Vdebny3t
p1
I1
sVcytju3q
p2
I1
s.(dp0
Vdely2jn
p1
I1
sVcytju3q
p2
I1
s.(dp0
Vcytju3q
p1
I1
sVdfolpth
p2
I1
s.(dp0
Vcytju3q
p1
I1
sVdg1sbve
p2
I1
s.(dp0
Vcytju3q
p1
I1
sVdh6qn6l
p2
I1
s.(dp0
Vcytju3q
p1
I1
sVdhhf0tr
p2
I1
s.(dp0
Vcytju3q
p1
I1
sVditbfej
p2
I1
s.(dp0
Vdiv9s2s
p1
I1
sVcytju3q
p2
I1
s.(dp0
Vdjnnzq8
p1
I1
sVcytju3q
p2
I1
s.(dp0
Vcytju3q
p1
I1
sVdk6fqnv
p2
I1
s.(dp0
Vdklj2wk
p1
I1
sVcytju3q
p2
I1
s.(dp0
Vdklj2wk
p1
I1
sVcytju3q
p2
I1
s.(dp0
Vdklpc8y
p1
I1
sVcytju3q
p2
I1
s.(dp0
Vdklpc8y
p1
I1
sVcytju3q
p2
I1
s.(dp0
Vdknh0q3
p1
I1
sVcytju3q
p2
I1
s.(dp0
Vcytju3q
p1
I1
sVdmf1j2w
p2
I1
s.(dp0
Vdnfsv3f
p1
I1
sVcytju3q
p2
I1
s.(dp0
Vdng2qgx
p1
I1
sVcytju3q
p2
I1
s.(dp0
Vdo7pbs0
p1
I1
sVcytju3q
p2
I1
s.(dp0
Vdolrfd3
p1
I1
sVcytju3q
p2
I1
s.(dp0
Vdoze7q3
p1
I1
sVcytju3q
p2
I1
s.