(dp0
Vcyszu40
p1
I1
s.(dp0
Vcyutq4d
p1
I1
sVcyszu40
p2
I1
s.(dp0
Vczifpw7
p1
I1
sVcyszu40
p2
I1
s.(dp0
Vczifpw7
p1
I1
sVcyszu40
p2
I1
s.(dp0
Vd15i0q7
p1
I1
sVcyszu40
p2
I1
s.(dp0
Vd1iqoox
p1
I1
sVcyszu40
p2
I1
s.(dp0
Vd1irdbf
p1
I1
sVcyszu40
p2
I1
s.(dp0
Vd1iyyyv
p1
I1
sVcyszu40
p2
I1
s.(dp0
Vd2qdpn0
p1
I1
sVcyszu40
p2
I1
s.(dp0
Vd3y46bh
p1
I1
sVcyszu40
p2
I1
s.(dp0
Vd71jnr9
p1
I1
sVcyszu40
p2
I1
s.(dp0
Vd7d1wpi
p1
I1
sVcyszu40
p2
I1
s.(dp0
Vd8hky90
p1
I1
sVcyszu40
p2
I1
s.(dp0
Vd8hky90
p1
I1
sVcyszu40
p2
I1
s.(dp0
Vd8j7sx4
p1
I1
sVcyszu40
p2
I1
s.(dp0
Vd8j7sx4
p1
I1
sVcyszu40
p2
I1
s.(dp0
Vd8j7sx4
p1
I1
sVcyszu40
p2
I1
s.(dp0
Vd96ufbs
p1
I1
sVcyszu40
p2
I1
s.(dp0
Vdd0n3u2
p1
I1
sVcyszu40
p2
I1
s.(dp0
Vdd1i39r
p1
I1
sVcyszu40
p2
I1
s.(dp0
Vdd1i39r
p1
I1
sVcyszu40
p2
I1
s.(dp0
Vdd49cy2
p1
I1
sVcyszu40
p2
I1
s.(dp0
Vdedxlac
p1
I1
sVcyszu40
p2
I1
s.(dp0
Vdee3g5f
p1
I1
sVcyszu40
p2
I1
s.(dp0
Vdev2p8i
p1
I1
sVcyszu40
p2
I1
s.(dp0
Vdf3nqse
p1
I1
sVcyszu40
p2
I1
s.(dp0
Vdg62li8
p1
I1
sVcyszu40
p2
I1
s.(dp0
Vdgien32
p1
I1
sVcyszu40
p2
I1
s.(dp0
Vdgmagpq
p1
I1
sVcyszu40
p2
I1
s.(dp0
Vdhlduux
p1
I1
sVcyszu40
p2
I1
s.(dp0
Vdk7kbxz
p1
I1
sVcyszu40
p2
I1
s.(dp0
Vdkq3jf7
p1
I1
sVcyszu40
p2
I1
s.(dp0
Vdkq3jf7
p1
I1
sVcyszu40
p2
I1
s.(dp0
Vdkq3nzi
p1
I1
sVcyszu40
p2
I1
s.(dp0
Vdkq3sef
p1
I1
sVcyszu40
p2
I1
s.(dp0
Vdkq3sef
p1
I1
sVcyszu40
p2
I1
s.