(dp0
Vcysbqfb
p1
I1
s.(dp0
Vcytnuv1
p1
I1
sVcysbqfb
p2
I1
s.(dp0
Vcywrp5d
p1
I1
sVcysbqfb
p2
I1
s.(dp0
Vcyxw22k
p1
I1
sVcysbqfb
p2
I1
s.(dp0
Vcyznkx9
p1
I1
sVcysbqfb
p2
I1
s.(dp0
Vcz4mmnr
p1
I1
sVcysbqfb
p2
I1
s.(dp0
Vcz4mmnr
p1
I1
sVcysbqfb
p2
I1
s.(dp0
Vcz4mmnr
p1
I1
sVcysbqfb
p2
I1
s.(dp0
Vcz4ygox
p1
I1
sVcysbqfb
p2
I1
s.(dp0
Vczed5jy
p1
I1
sVcysbqfb
p2
I1
s.(dp0
Vczeixcg
p1
I1
sVcysbqfb
p2
I1
s.(dp0
Vczixdv1
p1
I1
sVcysbqfb
p2
I1
s.(dp0
Vczz02h9
p1
I1
sVcysbqfb
p2
I1
s.(dp0
Vczzid8e
p1
I1
sVcysbqfb
p2
I1
s.(dp0
Vd01zbpd
p1
I1
sVcysbqfb
p2
I1
s.(dp0
Vd02hjwe
p1
I1
sVcysbqfb
p2
I1
s.(dp0
Vd02jdbd
p1
I1
sVcysbqfb
p2
I1
s.(dp0
Vd0d3igo
p1
I1
sVcysbqfb
p2
I1
s.(dp0
Vd0d3igo
p1
I1
sVcysbqfb
p2
I1
s.(dp0
Vd0eq8xg
p1
I1
sVcysbqfb
p2
I1
s.(dp0
Vd0p4lyd
p1
I1
sVcysbqfb
p2
I1
s.(dp0
Vd0q70uw
p1
I1
sVcysbqfb
p2
I1
s.(dp0
Vd0tjzd7
p1
I1
sVcysbqfb
p2
I1
s.(dp0
Vd0tr5oi
p1
I1
sVcysbqfb
p2
I1
s.(dp0
Vd0vjco9
p1
I1
sVcysbqfb
p2
I1
s.(dp0
Vd0xoh4s
p1
I1
sVcysbqfb
p2
I1
s.(dp0
Vd109bvc
p1
I1
sVcysbqfb
p2
I1
s.(dp0
Vd1br63c
p1
I1
sVcysbqfb
p2
I1
s.(dp0
Vd1br63c
p1
I1
sVcysbqfb
p2
I1
s.(dp0
Vd1btyrk
p1
I1
sVcysbqfb
p2
I1
s.(dp0
Vd1iw8a3
p1
I1
sVcysbqfb
p2
I1
s.(dp0
Vd1k4hmg
p1
I1
sVcysbqfb
p2
I1
s.(dp0
Vd1kkmss
p1
I1
sVcysbqfb
p2
I1
s.(dp0
Vd1ks99t
p1
I1
sVcysbqfb
p2
I1
s.(dp0
Vd1xeboh
p1
I1
sVcysbqfb
p2
I1
s.(dp0
Vd1za3l5
p1
I1
sVcysbqfb
p2
I1
s.(dp0
Vd22775v
p1
I1
sVcysbqfb
p2
I1
s.(dp0
Vd28wpcw
p1
I1
sVcysbqfb
p2
I1
s.(dp0
Vd2bw1do
p1
I1
sVcysbqfb
p2
I1
s.(dp0
Vd3qxyeq
p1
I1
sVcysbqfb
p2
I1
s.(dp0
Vd3x36bb
p1
I1
sVcysbqfb
p2
I1
s.(dp0
Vd4cub8v
p1
I1
sVcysbqfb
p2
I1
s.(dp0
Vd4m5tl7
p1
I1
sVcysbqfb
p2
I1
s.(dp0
Vd4z8kqr
p1
I1
sVcysbqfb
p2
I1
s.(dp0
Vd4z8kqr
p1
I1
sVcysbqfb
p2
I1
s.(dp0
Vd5a7drb
p1
I1
sVcysbqfb
p2
I1
s.(dp0
Vd5pps8j
p1
I1
sVcysbqfb
p2
I1
s.(dp0
Vd5rizq7
p1
I1
sVcysbqfb
p2
I1
s.(dp0
Vd5so0u7
p1
I1
sVcysbqfb
p2
I1
s.(dp0
Vd67b8yy
p1
I1
sVcysbqfb
p2
I1
s.(dp0
Vd67yb33
p1
I1
sVcysbqfb
p2
I1
s.(dp0
Vd68esa6
p1
I1
sVcysbqfb
p2
I1
s.(dp0
Vd6iog74
p1
I1
sVcysbqfb
p2
I1
s.(dp0
Vd6ltm5o
p1
I1
sVcysbqfb
p2
I1
s.(dp0
Vd6pu7lk
p1
I1
sVcysbqfb
p2
I1
s.(dp0
Vd70073x
p1
I1
sVcysbqfb
p2
I1
s.(dp0
Vd7cp5oe
p1
I1
sVcysbqfb
p2
I1
s.(dp0
Vd7hyfzs
p1
I1
sVcysbqfb
p2
I1
s.(dp0
Vd7hyfzs
p1
I1
sVcysbqfb
p2
I1
s.(dp0
Vd7o0660
p1
I1
sVcysbqfb
p2
I1
s.(dp0
Vd876vbx
p1
I1
sVcysbqfb
p2
I1
s.(dp0
Vd8em70y
p1
I1
sVcysbqfb
p2
I1
s.(dp0
Vd8fn5yz
p1
I1
sVcysbqfb
p2
I1
s.(dp0
Vd8nmo7r
p1
I1
sVcysbqfb
p2
I1
s.(dp0
Vd8pgj2t
p1
I1
sVcysbqfb
p2
I1
s.(dp0
Vd8pgj2t
p1
I1
sVcysbqfb
p2
I1
s.(dp0
Vd8utmea
p1
I1
sVcysbqfb
p2
I1
s.(dp0
Vd95qsrm
p1
I1
sVcysbqfb
p2
I1
s.(dp0
Vd99kydy
p1
I1
sVcysbqfb
p2
I1
s.(dp0
Vd99sbw5
p1
I1
sVcysbqfb
p2
I1
s.(dp0
Vd9ffpbz
p1
I1
sVcysbqfb
p2
I1
s.(dp0
Vd9val4v
p1
I1
sVcysbqfb
p2
I1
s.(dp0
Vda7ntvg
p1
I1
sVcysbqfb
p2
I1
s.(dp0
Vdacru2l
p1
I1
sVcysbqfb
p2
I1
s.(dp0
Vdaeefsm
p1
I1
sVcysbqfb
p2
I1
s.(dp0
Vdatulw8
p1
I1
sVcysbqfb
p2
I1
s.(dp0
Vdb34goq
p1
I1
sVcysbqfb
p2
I1
s.(dp0
Vdb5gi0v
p1
I1
sVcysbqfb
p2
I1
s.(dp0
Vdbncto2
p1
I1
sVcysbqfb
p2
I1
s.(dp0
Vdbqfun4
p1
I1
sVcysbqfb
p2
I1
s.(dp0
Vdc1gb0f
p1
I1
sVcysbqfb
p2
I1
s.(dp0
Vdcur5kz
p1
I1
sVcysbqfb
p2
I1
s.(dp0
Vdcv0ye0
p1
I1
sVcysbqfb
p2
I1
s.(dp0
Vdcy65xi
p1
I1
sVcysbqfb
p2
I1
s.(dp0
Vdd4oarw
p1
I1
sVcysbqfb
p2
I1
s.(dp0
Vdd9qdk7
p1
I1
sVcysbqfb
p2
I1
s.(dp0
Vddlos7e
p1
I1
sVcysbqfb
p2
I1
s.(dp0
Vddon2sb
p1
I1
sVcysbqfb
p2
I1
s.(dp0
Vde29bqp
p1
I1
sVcysbqfb
p2
I1
s.(dp0
Vdee6h9l
p1
I1
sVcysbqfb
p2
I1
s.(dp0
Vdeinc4q
p1
I1
sVcysbqfb
p2
I1
s.(dp0
Vdemh58o
p1
I1
sVcysbqfb
p2
I1
s.(dp0
Vdemvbfa
p1
I1
sVcysbqfb
p2
I1
s.(dp0
Vdenxu8g
p1
I1
sVcysbqfb
p2
I1
s.(dp0
Vdeug0gz
p1
I1
sVcysbqfb
p2
I1
s.(dp0
Vdezzf18
p1
I1
sVcysbqfb
p2
I1
s.(dp0
Vdf9arig
p1
I1
sVcysbqfb
p2
I1
s.(dp0
Vdf9ccs8
p1
I1
sVcysbqfb
p2
I1
s.(dp0
Vdfj41nx
p1
I1
sVcysbqfb
p2
I1
s.(dp0
Vdflst82
p1
I1
sVcysbqfb
p2
I1
s.(dp0
Vdfu1w21
p1
I1
sVcysbqfb
p2
I1
s.(dp0
Vdfulqo4
p1
I1
sVcysbqfb
p2
I1
s.(dp0
Vdfvuz9k
p1
I1
sVcysbqfb
p2
I1
s.(dp0
Vdgfqk4y
p1
I1
sVcysbqfb
p2
I1
s.(dp0
Vdgqreoe
p1
I1
sVcysbqfb
p2
I1
s.(dp0
Vdhfrmsl
p1
I1
sVcysbqfb
p2
I1
s.(dp0
Vdhon3e9
p1
I1
sVcysbqfb
p2
I1
s.(dp0
Vdhy3zf1
p1
I1
sVcysbqfb
p2
I1
s.(dp0
Vdi(dp0
Vdkxe1kq
p1
I1
sVcysbqfb
p2
I1
s.