(dp0
Vcyi6t4k
p1
I1
s.(dp0
Vcykgxqx
p1
I1
sVcyi6t4k
p2
I1
s.(dp0
Vcyi6t4k
p1
I1
sVcykp0gk
p2
I1
s.(dp0
Vcykusi1
p1
I1
sVcyi6t4k
p2
I1
s.(dp0
Vcyi6t4k
p1
I1
sVcyniual
p2
I1
s.(dp0
Vcyi6t4k
p1
I1
sVcyo23un
p2
I1
s.(dp0
Vcyi6t4k
p1
I1
sVcyodrjb
p2
I1
s.(dp0
Vcyi6t4k
p1
I1
sVcyodrjb
p2
I1
s.(dp0
Vcyox9i7
p1
I1
sVcyi6t4k
p2
I1
s.(dp0
Vcyqt6hu
p1
I1
sVcyi6t4k
p2
I1
s.(dp0
Vcyi6t4k
p1
I1
sVcyrg0df
p2
I1
s.(dp0
Vcyi6t4k
p1
I1
sVcyrg0df
p2
I1
s.(dp0
Vcyi6t4k
p1
I1
sVcyrg6mm
p2
I1
s.(dp0
Vcyi6t4k
p1
I1
sVcytdnn8
p2
I1
s.(dp0
Vcyi6t4k
p1
I1
sVcytdnn8
p2
I1
s.(dp0
Vcytrz3w
p1
I1
sVcyi6t4k
p2
I1
s.(dp0
Vcyi6t4k
p1
I1
sVcytzvht
p2
I1
s.(dp0
Vcyi6t4k
p1
I1
sVcyu70g6
p2
I1
s.(dp0
Vcyi6t4k
p1
I1
sVcyuojp8
p2
I1
s.(dp0
Vcyi6t4k
p1
I1
sVcyv48bl
p2
I1
s.(dp0
Vcyww4iy
p1
I1
sVcyi6t4k
p2
I1
s.(dp0
Vcyxd53v
p1
I1
sVcyi6t4k
p2
I1
s.(dp0
Vcyy268j
p1
I1
sVcyi6t4k
p2
I1
s.(dp0
Vcyzie0g
p1
I1
sVcyi6t4k
p2
I1
s.(dp0
Vcyi6t4k
p1
I1
sVcz22mms
p2
I1
s.(dp0
Vcyi6t4k
p1
I1
sVcz2v1xf
p2
I1
s.(dp0
Vcyi6t4k
p1
I1
sVcz4m4bu
p2
I1
s.(dp0
Vcz4wd9y
p1
I1
sVcyi6t4k
p2
I1
s.(dp0
Vcz62b1q
p1
I1
sVcyi6t4k
p2
I1
s.(dp0
Vcz6402l
p1
I1
sVcyi6t4k
p2
I1
s.(dp0
Vcz7c4ga
p1
I1
sVcyi6t4k
p2
I1
s.(dp0
Vcz7eeoj
p1
I1
sVcyi6t4k
p2
I1
s.(dp0
Vcz8cmuq
p1
I1
sVcyi6t4k
p2
I1
s.(dp0
Vcyi6t4k
p1
I1
sVcz8megf
p2
I1
s.(dp0
Vcyi6t4k
p1
I1
sVczaxba4
p2
I1
s.(dp0
Vcyi6t4k
p1
I1
sVczaywh6
p2
I1
s.(dp0
Vcyi6t4k
p1
I1
sVczbplbv
p2
I1
s.(dp0
Vcyi6t4k
p1
I1
sVczbq05e
p2
I1
s.(dp0
Vcyi6t4k
p1
I1
sVczcfy39
p2
I1
s.(dp0
Vczduggr
p1
I1
sVcyi6t4k
p2
I1
s.(dp0
Vcyi6t4k
p1
I1
sVczehrho
p2
I1
s.(dp0
Vczfdnk3
p1
I1
sVcyi6t4k
p2
I1
s.(dp0
Vcyi6t4k
p1
I1
sVczfrpw9
p2
I1
s.(dp0
Vcyi6t4k
p1
I1
sVczfrpw9
p2
I1
s.(dp0
Vcyi6t4k
p1
I1
sVczg1j4d
p2
I1
s.(dp0
Vcyi6t4k
p1
I1
sVczg1j4d
p2
I1
s.(dp0
Vczh95oe
p1
I1
sVcyi6t4k
p2
I1
s.(dp0
Vcyi6t4k
p1
I1
sVczmt8tv
p2
I1
s.(dp0
Vcyi6t4k
p1
I1
sVczmt8tv
p2
I1
s.(dp0
Vcyi6t4k
p1
I1
sVczomh2m
p2
I1
s.(dp0
Vczq5bao
p1
I1
sVcyi6t4k
p2
I1
s.(dp0
Vczq5bao
p1
I1
sVcyi6t4k
p2
I1
s.(dp0
Vczq5bao
p1
I1
sVcyi6t4k
p2
I1
s.(dp0
Vczqi9zc
p1
I1
sVcyi6t4k
p2
I1
s.(dp0
Vczrf125
p1
I1
sVcyi6t4k
p2
I1
s.(dp0
Vcyi6t4k
p1
I1
sVczsi7gb
p2
I1
s.(dp0
Vcyi6t4k
p1
I1
sVcztfr3k
p2
I1
s.(dp0
Vcyi6t4k
p1
I1
sVcztgv7m
p2
I1
s.(dp0
Vczw126i
p1
I1
sVcyi6t4k
p2
I1
s.(dp0
Vcyi6t4k
p1
I1
sVczw4fgb
p2
I1
s.(dp0
Vczwh8mr
p1
I1
sVcyi6t4k
p2
I1
s.(dp0
Vczwir7w
p1
I1
sVcyi6t4k
p2
I1
s.(dp0
Vczx660d
p1
I1
sVcyi6t4k
p2
I1
s.(dp0
Vcyi6t4k
p1
I1
sVczx7t80
p2
I1
s.(dp0
Vcyi6t4k
p1
I1
sVczxdm4t
p2
I1
s.(dp0
Vcyi6t4k
p1
I1
sVczyqtt1
p2
I1
s.(dp0
Vcyi6t4k
p1
I1
sVczyqtt1
p2
I1
s.(dp0
Vcyi6t4k
p1
I1
sVd00prpd
p2
I1
s.(dp0
Vcyi6t4k
p1
I1
sVd015c7q
p2
I1
s.(dp0
Vcyi6t4k
p1
I1
sVd01zbpd
p2
I1
s.(dp0
Vcyi6t4k
p1
I1
sVd0203ue
p2
I1
s.(dp0
Vcyi6t4k
p1
I1
sVd03crgf
p2
I1
s.(dp0
Vd055fo7
p1
I1
sVcyi6t4k
p2
I1
s.(dp0
Vd05ybee
p1
I1
sVcyi6t4k
p2
I1
s.(dp0
Vd077k13
p1
I1
sVcyi6t4k
p2
I1
s.(dp0
Vd07e0v9
p1
I1
sVcyi6t4k
p2
I1
s.(dp0
Vcyi6t4k
p1
I1
sVd08rcaz
p2
I1
s.(dp0
Vcyi6t4k
p1
I1
sVd093nj7
p2
I1
s.(dp0
Vcyi6t4k
p1
I1
sVd09hck3
p2
I1
s.(dp0
Vcyi6t4k
p1
I1
sVd0eeu6q
p2
I1
s.(dp0
Vcyi6t4k
p1
I1
sVd0ek8pi
p2
I1
s.(dp0
Vd0eo5qk
p1
I1
sVcyi6t4k
p2
I1
s.(dp0
Vd0gy5ao
p1
I1
sVcyi6t4k
p2
I1
s.(dp0
Vcyi6t4k
p1
I1
sVd0h55p7
p2
I1
s.(dp0
Vd0h57hq
p1
I1
sVcyi6t4k
p2
I1
s.(dp0
Vd0h57hq
p1
I1
sVcyi6t4k
p2
I1
s.(dp0
Vd0h57hq
p1
I1
sVcyi6t4k
p2
I1
s.(dp0
Vcyi6t4k
p1
I1
sVd0i6t3z
p2
I1
s.(dp0
Vcyi6t4k
p1
I1
sVd0j333p
p2
I1
s.(dp0
Vcyi6t4k
p1
I1
sVd0jkq4j
p2
I1
s.(dp0
Vcyi6t4k
p1
I1
sVd0kt71s
p2
I1
s.(dp0
Vd0m01oh
p1
I1
sVcyi6t4k
p2
I1
s.(dp0
Vcyi6t4k
p1
I1
sVd0qcovi
p2
I1
s.(dp0
Vd0qlcc2
p1
I1
sVcyi6t4k
p2
I1
s.(dp0
Vcyi6t4k
p1
I1
sVd0shy6o
p2
I1
s.(dp0
Vd0tr7fq
p1
I1
sVcyi6t4k
p2
I1
s.(dp0
Vd0ufr2x
p1
I1
sVcyi6t4k
p2
I1
s.(dp0
Vcyi6t4k
p1
I1
sVd0vav22
p2
I1
s.(dp0
Vcyi6t4k
p1
I1
sVd0vxojn
p2
I1
s.(dp0
Vd0z6oci
p1
I1
sVcyi6t4k
p2
I1
s.(dp0
Vcyi6t4k
p1
I1
sVd10hi2j
p2
I1
s.(dp0
Vcyi6t4k
p1
I1
sVd10hi2j
p2
I1
s.(dp0
Vcyi6t4k
p1
I1
sVd1311ow
p2
I1
s.(dp0
Vd15gsos
p1
I1
sVcyi6t4k
p2
I1
s.(dp0
Vd16hyer
p1
I1
sVcyi6t4k
p2
I1
s.(dp0
Vcyi6t4k
p1
I1
sVd16lut5
p2
I1
s.(dp0
Vcyi6t4k
p1
I1
sVd19av8m
p2
I1
s.(dp0
Vcyi6t4k
p1
I1
sVd1a8rls
p2
I1
s.(dp0
Vcy(dp0
Vcyi6t4k
p1
I1
sVdkx58uv
p2
I1
s.