(dp0
Vcyij09u
p1
I1
s.(dp0
Vcyij09u
p1
I1
sVcylh4cs
p2
I1
s.(dp0
Vcymkyy5
p1
I1
sVcyij09u
p2
I1
s.(dp0
Vcyij09u
p1
I1
sVcyn6w14
p2
I1
s.(dp0
Vcyozhwg
p1
I1
sVcyij09u
p2
I1
s.(dp0
Vcyozhwg
p1
I1
sVcyij09u
p2
I1
s.(dp0
Vcypicls
p1
I1
sVcyij09u
p2
I1
s.(dp0
Vcyqh1bq
p1
I1
sVcyij09u
p2
I1
s.(dp0
Vcyqxs7u
p1
I1
sVcyij09u
p2
I1
s.(dp0
Vcyij09u
p1
I1
sVcysnnsl
p2
I1
s.(dp0
Vcyij09u
p1
I1
sVcyvcv1j
p2
I1
s.(dp0
Vcyij09u
p1
I1
sVcyxxsvd
p2
I1
s.(dp0
Vcyij09u
p1
I1
sVcyz95f6
p2
I1
s.(dp0
Vcyij09u
p1
I1
sVcyzic2l
p2
I1
s.(dp0
Vcz1017s
p1
I1
sVcyij09u
p2
I1
s.(dp0
Vcyij09u
p1
I1
sVcz1qkp9
p2
I1
s.(dp0
Vcz6n4ep
p1
I1
sVcyij09u
p2
I1
s.(dp0
Vcyij09u
p1
I1
sVcz86l7x
p2
I1
s.(dp0
Vcyij09u
p1
I1
sVcz86ww0
p2
I1
s.(dp0
Vcyij09u
p1
I1
sVcz97xrm
p2
I1
s.(dp0
Vcyij09u
p1
I1
sVczapyg0
p2
I1
s.(dp0
Vcyij09u
p1
I1
sVczczujn
p2
I1
s.(dp0
Vcyij09u
p1
I1
sVczgku4q
p2
I1
s.(dp0
Vcyij09u
p1
I1
sVczgku4q
p2
I1
s.(dp0
Vczj1nr6
p1
I1
sVcyij09u
p2
I1
s.(dp0
Vczm8bvj
p1
I1
sVcyij09u
p2
I1
s.(dp0
Vcyij09u
p1
I1
sVcznh3x7
p2
I1
s.(dp0
Vcyij09u
p1
I1
sVczro1tm
p2
I1
s.(dp0
Vcyij09u
p1
I1
sVczs3upk
p2
I1
s.(dp0
Vczs81xt
p1
I1
sVcyij09u
p2
I1
s.(dp0
Vcyij09u
p1
I1
sVczz9bxw
p2
I1
s.(dp0
Vd00qj15
p1
I1
sVcyij09u
p2
I1
s.(dp0
Vcyij09u
p1
I1
sVd00srho
p2
I1
s.(dp0
Vd00v3bx
p1
I1
sVcyij09u
p2
I1
s.(dp0
Vcyij09u
p1
I1
sVd01r6jj
p2
I1
s.(dp0
Vcyij09u
p1
I1
sVd02z2u4
p2
I1
s.(dp0
Vcyij09u
p1
I1
sVd03du1b
p2
I1
s.(dp0
Vd040lpj
p1
I1
sVcyij09u
p2
I1
s.(dp0
Vcyij09u
p1
I1
sVd047n7i
p2
I1
s.(dp0
Vcyij09u
p1
I1
sVd04ttah
p2
I1
s.(dp0
Vcyij09u
p1
I1
sVd05ghcn
p2
I1
s.(dp0
Vcyij09u
p1
I1
sVd05vrz6
p2
I1
s.(dp0
Vcyij09u
p1
I1
sVd05vrz6
p2
I1
s.(dp0
Vd06dnp6
p1
I1
sVcyij09u
p2
I1
s.(dp0
Vcyij09u
p1
I1
sVd0dz30a
p2
I1
s.(dp0
Vcyij09u
p1
I1
sVd0dz30a
p2
I1
s.(dp0
Vcyij09u
p1
I1
sVd0f96rh
p2
I1
s.(dp0
Vcyij09u
p1
I1
sVd0fogjg
p2
I1
s.(dp0
Vd0hip2z
p1
I1
sVcyij09u
p2
I1
s.(dp0
Vcyij09u
p1
I1
sVd0jnu8z
p2
I1
s.(dp0
Vcyij09u
p1
I1
sVd0kn89c
p2
I1
s.(dp0
Vcyij09u
p1
I1
sVd0lm83b
p2
I1
s.(dp0
Vcyij09u
p1
I1
sVd0lqv3d
p2
I1
s.(dp0
Vcyij09u
p1
I1
sVd0lqv3d
p2
I1
s.(dp0
Vcyij09u
p1
I1
sVd0mvnid
p2
I1
s.(dp0
Vcyij09u
p1
I1
sVd0oejxu
p2
I1
s.(dp0
Vcyij09u
p1
I1
sVd0pwbgn
p2
I1
s.(dp0
Vcyij09u
p1
I1
sVd0s051n
p2
I1
s.(dp0
Vcyij09u
p1
I1
sVd0z7yiq
p2
I1
s.(dp0
Vcyij09u
p1
I1
sVd10hwx9
p2
I1
s.(dp0
Vd12w63d
p1
I1
sVcyij09u
p2
I1
s.(dp0
Vcyij09u
p1
I1
sVd1330yq
p2
I1
s.(dp0
Vcyij09u
p1
I1
sVd14k1yp
p2
I1
s.(dp0
Vd19xwqp
p1
I1
sVcyij09u
p2
I1
s.(dp0
Vcyij09u
p1
I1
sVd1b8tkh
p2
I1
s.(dp0
Vcyij09u
p1
I1
sVd1b8tkh
p2
I1
s.(dp0
Vcyij09u
p1
I1
sVd1clmnw
p2
I1
s.(dp0
Vcyij09u
p1
I1
sVd1ddwek
p2
I1
s.(dp0
Vd1dofss
p1
I1
sVcyij09u
p2
I1
s.(dp0
Vcyij09u
p1
I1
sVd1e1ha6
p2
I1
s.(dp0
Vcyij09u
p1
I1
sVd1gy84v
p2
I1
s.(dp0
Vcyij09u
p1
I1
sVd1i6rit
p2
I1
s.(dp0
Vcyij09u
p1
I1
sVd1k0dl0
p2
I1
s.(dp0
Vcyij09u
p1
I1
sVd1kc7xy
p2
I1
s.(dp0
Vd1li1o2
p1
I1
sVcyij09u
p2
I1
s.(dp0
Vcyij09u
p1
I1
sVd1lz6xe
p2
I1
s.(dp0
Vd1mp004
p1
I1
sVcyij09u
p2
I1
s.(dp0
Vd1rrb1d
p1
I1
sVcyij09u
p2
I1
s.(dp0
Vcyij09u
p1
I1
sVd1y29z3
p2
I1
s.(dp0
Vcyij09u
p1
I1
sVd24lasg
p2
I1
s.(dp0
Vd27sqsr
p1
I1
sVcyij09u
p2
I1
s.(dp0
Vd2bqqta
p1
I1
sVcyij09u
p2
I1
s.(dp0
Vd2c98pi
p1
I1
sVcyij09u
p2
I1
s.(dp0
Vcyij09u
p1
I1
sVd2i5u3y
p2
I1
s.(dp0
Vcyij09u
p1
I1
sVd2icgj6
p2
I1
s.(dp0
Vd2je0t5
p1
I1
sVcyij09u
p2
I1
s.(dp0
Vd2jj6xn
p1
I1
sVcyij09u
p2
I1
s.(dp0
Vd2jlx0k
p1
I1
sVcyij09u
p2
I1
s.(dp0
Vcyij09u
p1
I1
sVd2k6s9v
p2
I1
s.(dp0
Vcyij09u
p1
I1
sVd2ko6qw
p2
I1
s.(dp0
Vcyij09u
p1
I1
sVd2lubw7
p2
I1
s.(dp0
Vcyij09u
p1
I1
sVd2ng32f
p2
I1
s.(dp0
Vd2omegl
p1
I1
sVcyij09u
p2
I1
s.(dp0
Vcyij09u
p1
I1
sVd2q4ktp
p2
I1
s.(dp0
Vd2qjyhw
p1
I1
sVcyij09u
p2
I1
s.(dp0
Vcyij09u
p1
I1
sVd2qp7ne
p2
I1
s.(dp0
Vcyij09u
p1
I1
sVd2rbql1
p2
I1
s.(dp0
Vcyij09u
p1
I1
sVd2rl9xu
p2
I1
s.(dp0
Vcyij09u
p1
I1
sVd2rlf78
p2
I1
s.(dp0
Vcyij09u
p1
I1
sVd2rxtb0
p2
I1
s.(dp0
Vd2sjrf0
p1
I1
sVcyij09u
p2
I1
s.(dp0
Vd2sn22h
p1
I1
sVcyij09u
p2
I1
s.(dp0
Vd2ts83i
p1
I1
sVcyij09u
p2
I1
s.(dp0
Vcyij09u
p1
I1
sVd2ynywq
p2
I1
s.(dp0
Vcyij09u
p1
I1
sVd2zc2b8
p2
I1
s.(dp0
Vcyij09u
p1
I1
sVd334xt6
p2
I1
s.(dp0
Vcyij09u
p1
I1
sVd350rbw
p2
I1
s.(dp0
Vd352lwu
p1
I1
sVcyij09u
p2
I1
s.(dp0
Vcy(dp0
Vdkvkbw6
p1
I1
sVcyij09u
p2
I1
s.