(dp0
Vcypw3vk
p1
I1
s.(dp0
Vcypw3vk
p1
I1
sVcyqb0al
p2
I1
s.(dp0
Vcypw3vk
p1
I1
sVcyqfef1
p2
I1
s.(dp0
Vcypw3vk
p1
I1
sVcyuqhlp
p2
I1
s.(dp0
Vcypw3vk
p1
I1
sVcyw2o1d
p2
I1
s.(dp0
Vcypw3vk
p1
I1
sVcz0w84q
p2
I1
s.(dp0
Vcypw3vk
p1
I1
sVcz14xhu
p2
I1
s.(dp0
Vcypw3vk
p1
I1
sVcz14xhu
p2
I1
s.(dp0
Vcypw3vk
p1
I1
sVcz25a0l
p2
I1
s.(dp0
Vcypw3vk
p1
I1
sVcz3s6qg
p2
I1
s.(dp0
Vcypw3vk
p1
I1
sVcz4t3wh
p2
I1
s.(dp0
Vcypw3vk
p1
I1
sVcz57mlw
p2
I1
s.(dp0
Vcypw3vk
p1
I1
sVcz5btqr
p2
I1
s.(dp0
Vcypw3vk
p1
I1
sVczaqx9r
p2
I1
s.(dp0
Vcypw3vk
p1
I1
sVczczsdr
p2
I1
s.(dp0
Vcypw3vk
p1
I1
sVczdz31k
p2
I1
s.(dp0
Vcypw3vk
p1
I1
sVczetxup
p2
I1
s.(dp0
Vcypw3vk
p1
I1
sVczgrvw5
p2
I1
s.(dp0
Vcypw3vk
p1
I1
sVczhj8e2
p2
I1
s.(dp0
Vcypw3vk
p1
I1
sVczibrth
p2
I1
s.(dp0
Vcypw3vk
p1
I1
sVczip79e
p2
I1
s.(dp0
Vcypw3vk
p1
I1
sVczk1lp0
p2
I1
s.(dp0
Vcypw3vk
p1
I1
sVczqh0g7
p2
I1
s.(dp0
Vcypw3vk
p1
I1
sVczth191
p2
I1
s.(dp0
Vcypw3vk
p1
I1
sVczwivmf
p2
I1
s.(dp0
Vcypw3vk
p1
I1
sVczx5dt4
p2
I1
s.(dp0
Vcypw3vk
p1
I1
sVd08co4p
p2
I1
s.(dp0
Vcypw3vk
p1
I1
sVd0asovi
p2
I1
s.(dp0
Vcypw3vk
p1
I1
sVd0d66qs
p2
I1
s.(dp0
Vcypw3vk
p1
I1
sVd0es33q
p2
I1
s.(dp0
Vcypw3vk
p1
I1
sVd0fomsi
p2
I1
s.(dp0
Vcypw3vk
p1
I1
sVd0fomsi
p2
I1
s.(dp0
Vcypw3vk
p1
I1
sVd0geyy2
p2
I1
s.(dp0
Vcypw3vk
p1
I1
sVd0icb5l
p2
I1
s.(dp0
Vcypw3vk
p1
I1
sVd0mjtod
p2
I1
s.(dp0
Vcypw3vk
p1
I1
sVd0n6uen
p2
I1
s.(dp0
Vcypw3vk
p1
I1
sVd0n87qv
p2
I1
s.(dp0
Vcypw3vk
p1
I1
sVd0ol81y
p2
I1
s.(dp0
Vcypw3vk
p1
I1
sVd0qmdvp
p2
I1
s.(dp0
Vcypw3vk
p1
I1
sVd0s6x7q
p2
I1
s.(dp0
Vcypw3vk
p1
I1
sVd0s7kid
p2
I1
s.(dp0
Vcypw3vk
p1
I1
sVd0t214t
p2
I1
s.(dp0
Vcypw3vk
p1
I1
sVd0z61qj
p2
I1
s.(dp0
Vcypw3vk
p1
I1
sVd13lyzh
p2
I1
s.(dp0
Vcypw3vk
p1
I1
sVd17kzyz
p2
I1
s.(dp0
Vcypw3vk
p1
I1
sVd1cg8rl
p2
I1
s.(dp0
Vcypw3vk
p1
I1
sVd1n125g
p2
I1
s.(dp0
Vcypw3vk
p1
I1
sVd1o6ksg
p2
I1
s.(dp0
Vcypw3vk
p1
I1
sVd1ozstm
p2
I1
s.(dp0
Vcypw3vk
p1
I1
sVd1taq3y
p2
I1
s.(dp0
Vcypw3vk
p1
I1
sVd1v3skg
p2
I1
s.(dp0
Vcypw3vk
p1
I1
sVd1xr59o
p2
I1
s.(dp0
Vcypw3vk
p1
I1
sVd2078un
p2
I1
s.(dp0
Vcypw3vk
p1
I1
sVd21h01d
p2
I1
s.(dp0
Vcypw3vk
p1
I1
sVd228k7b
p2
I1
s.(dp0
Vcypw3vk
p1
I1
sVd23hw5j
p2
I1
s.(dp0
Vcypw3vk
p1
I1
sVd23lxan
p2
I1
s.(dp0
Vcypw3vk
p1
I1
sVd26rjb1
p2
I1
s.(dp0
Vcypw3vk
p1
I1
sVd29j5hn
p2
I1
s.(dp0
Vcypw3vk
p1
I1
sVd2a03l7
p2
I1
s.(dp0
Vcypw3vk
p1
I1
sVd2fm8ei
p2
I1
s.(dp0
Vcypw3vk
p1
I1
sVd2jtxsa
p2
I1
s.(dp0
Vcypw3vk
p1
I1
sVd2ks3x0
p2
I1
s.(dp0
Vcypw3vk
p1
I1
sVd2n74dd
p2
I1
s.(dp0
Vcypw3vk
p1
I1
sVd2sb78w
p2
I1
s.(dp0
Vcypw3vk
p1
I1
sVd2tpny8
p2
I1
s.(dp0
Vcypw3vk
p1
I1
sVd2yguj8
p2
I1
s.(dp0
Vcypw3vk
p1
I1
sVd361ox0
p2
I1
s.(dp0
Vcypw3vk
p1
I1
sVd3ccgkw
p2
I1
s.(dp0
Vcypw3vk
p1
I1
sVd3e9xum
p2
I1
s.(dp0
Vcypw3vk
p1
I1
sVd3erjwr
p2
I1
s.(dp0
Vcypw3vk
p1
I1
sVd3p67mf
p2
I1
s.(dp0
Vcypw3vk
p1
I1
sVd3waqng
p2
I1
s.(dp0
Vcypw3vk
p1
I1
sVd3zdctg
p2
I1
s.(dp0
Vcypw3vk
p1
I1
sVd3zqvne
p2
I1
s.(dp0
Vcypw3vk
p1
I1
sVd43ihl1
p2
I1
s.(dp0
Vcypw3vk
p1
I1
sVd4hnvk7
p2
I1
s.(dp0
Vcypw3vk
p1
I1
sVd4sk8c0
p2
I1
s.(dp0
Vcypw3vk
p1
I1
sVd4ukgc3
p2
I1
s.(dp0
Vcypw3vk
p1
I1
sVd4wenl9
p2
I1
s.(dp0
Vcypw3vk
p1
I1
sVd50022k
p2
I1
s.(dp0
Vcypw3vk
p1
I1
sVd5d4blt
p2
I1
s.(dp0
Vcypw3vk
p1
I1
sVd5n6l3m
p2
I1
s.(dp0
Vcypw3vk
p1
I1
sVd5w1l8c
p2
I1
s.(dp0
Vcypw3vk
p1
I1
sVd5xjdd4
p2
I1
s.(dp0
Vcypw3vk
p1
I1
sVd60e9ik
p2
I1
s.(dp0
Vcypw3vk
p1
I1
sVd623rn4
p2
I1
s.(dp0
Vcypw3vk
p1
I1
sVd67l8wh
p2
I1
s.(dp0
Vcypw3vk
p1
I1
sVd67rwd0
p2
I1
s.(dp0
Vcypw3vk
p1
I1
sVd69x0aj
p2
I1
s.(dp0
Vcypw3vk
p1
I1
sVd6b8i16
p2
I1
s.(dp0
Vcypw3vk
p1
I1
sVd6dwtaf
p2
I1
s.(dp0
Vcypw3vk
p1
I1
sVd6ksaec
p2
I1
s.(dp0
Vcypw3vk
p1
I1
sVd6omjbq
p2
I1
s.(dp0
Vcypw3vk
p1
I1
sVd6op4l4
p2
I1
s.(dp0
Vcypw3vk
p1
I1
sVd74o1fq
p2
I1
s.(dp0
Vcypw3vk
p1
I1
sVd79z1p0
p2
I1
s.(dp0
Vcypw3vk
p1
I1
sVd7fjnjo
p2
I1
s.(dp0
Vcypw3vk
p1
I1
sVd7i07d1
p2
I1
s.(dp0
Vcypw3vk
p1
I1
sVd7t4om7
p2
I1
s.(dp0
Vcypw3vk
p1
I1
sVd7ydj48
p2
I1
s.(dp0
Vcypw3vk
p1
I1
sVd7yet7x
p2
I1
s.(dp0
Vcypw3vk
p1
I1
sVd84ejyr
p2
I1
s.(dp0
Vcypw3vk
p1
I1
sVd877fih
p2
I1
s.(dp0
Vcypw3vk
p1
I1
sVd8t1kjv
p2
I1
s.(dp0
Vcypw3vk
p1
I1
sVd8t2057
p2
I1
s.(dp0
Vcypw3vk
p1
I1
sVd8whscs
p2
I1
s.(dp0
Vcypw3vk
p1
I1
sVd8whscs
p2
I1
s.(dp0
Vcy(dp0
Vcypw3vk
p1
I1
sVdkl9ysb
p2
I1
s.