(dp0
Vcyjndpv
p1
I1
s.(dp0
Vcyjndpv
p1
I1
sVcyvbqo4
p2
I1
s.(dp0
Vcyjndpv
p1
I1
sVcyw8ois
p2
I1
s.(dp0
Vczflser
p1
I1
sVcyjndpv
p2
I1
s.(dp0
Vcyjndpv
p1
I1
sVczh3i3p
p2
I1
s.(dp0
Vcyjndpv
p1
I1
sVd04fhrt
p2
I1
s.(dp0
Vd0myr1l
p1
I1
sVcyjndpv
p2
I1
s.(dp0
Vd0netcx
p1
I1
sVcyjndpv
p2
I1
s.(dp0
Vcyjndpv
p1
I1
sVd0tglmk
p2
I1
s.(dp0
Vcyjndpv
p1
I1
sVd0tglmk
p2
I1
s.(dp0
Vd10xym1
p1
I1
sVcyjndpv
p2
I1
s.(dp0
Vd11xwhl
p1
I1
sVcyjndpv
p2
I1
s.(dp0
Vd1acmef
p1
I1
sVcyjndpv
p2
I1
s.(dp0
Vcyjndpv
p1
I1
sVd1f8w3a
p2
I1
s.(dp0
Vcyjndpv
p1
I1
sVd1l6d6w
p2
I1
s.(dp0
Vcyjndpv
p1
I1
sVd1l6d6w
p2
I1
s.(dp0
Vd1n9s3i
p1
I1
sVcyjndpv
p2
I1
s.(dp0
Vd1v7ihc
p1
I1
sVcyjndpv
p2
I1
s.(dp0
Vcyjndpv
p1
I1
sVd41okmz
p2
I1
s.(dp0
Vd5ixvg7
p1
I1
sVcyjndpv
p2
I1
s.(dp0
Vd67xbq6
p1
I1
sVcyjndpv
p2
I1
s.(dp0
Vcyjndpv
p1
I1
sVd8q10up
p2
I1
s.(dp0
Vda1fbh0
p1
I1
sVcyjndpv
p2
I1
s.(dp0
Vcyjndpv
p1
I1
sVdam0igp
p2
I1
s.(dp0
Vcyjndpv
p1
I1
sVdcuf4ky
p2
I1
s.(dp0
Vdczmn09
p1
I1
sVcyjndpv
p2
I1
s.(dp0
Vdejh9cm
p1
I1
sVcyjndpv
p2
I1
s.(dp0
Vdek1s51
p1
I1
sVcyjndpv
p2
I1
s.(dp0
Vdels333
p1
I1
sVcyjndpv
p2
I1
s.(dp0
Vcyjndpv
p1
I1
sVdexr9mg
p2
I1
s.(dp0
Vcyjndpv
p1
I1
sVdeyeqnb
p2
I1
s.(dp0
Vdf5fhus
p1
I1
sVcyjndpv
p2
I1
s.(dp0
Vcyjndpv
p1
I1
sVdflt4i5
p2
I1
s.(dp0
Vcyjndpv
p1
I1
sVdfpnu2z
p2
I1
s.(dp0
Vdftktj7
p1
I1
sVcyjndpv
p2
I1
s.(dp0
Vdg3wtka
p1
I1
sVcyjndpv
p2
I1
s.(dp0
Vdg8epj0
p1
I1
sVcyjndpv
p2
I1
s.(dp0
Vcyjndpv
p1
I1
sVdhh8j6l
p2
I1
s.(dp0
Vdhlu13g
p1
I1
sVcyjndpv
p2
I1
s.(dp0
Vdhlu13g
p1
I1
sVcyjndpv
p2
I1
s.(dp0
Vdhzjnd1
p1
I1
sVcyjndpv
p2
I1
s.(dp0
Vcyjndpv
p1
I1
sVdhzmdiv
p2
I1
s.(dp0
Vcyjndpv
p1
I1
sVdih909v
p2
I1
s.(dp0
Vdihcj3d
p1
I1
sVcyjndpv
p2
I1
s.(dp0
Vdnuvc5k
p1
I1
sVcyjndpv
p2
I1
s.(dp0
Vcyjndpv
p1
I1
sVdnwsqdt
p2
I1
s.(dp0
Vcyjndpv
p1
I1
sVdnwsqdt
p2
I1
s.(dp0
Vdnwu689
p1
I1
sVcyjndpv
p2
I1
s.