(dp0
Vd29eayj
p1
I1
s.(dp0
Vd29eayj
p1
I2
s.(dp0
Vd29eayj
p1
I2
s.(dp0
Vd2kzgzd
p1
I1
sVd29eayj
p2
I1
s.(dp0
Vd6hzq4j
p1
I1
sVd29eayj
p2
I1
s.(dp0
Vd70n0ki
p1
I1
sVd29eayj
p2
I1
s.(dp0
Vd8czm1k
p1
I1
sVd29eayj
p2
I1
s.(dp0
Vdd818p3
p1
I1
sVd29eayj
p2
I1
s.(dp0
Vdi7is4x
p1
I1
sVd29eayj
p2
I1
s.(dp0
Vdi7is4x
p1
I1
sVd29eayj
p2
I1
s.