(dp0
Vcyxruf7
p1
I1
s.(dp0
Vd06dygi
p1
I1
sVcyxruf7
p2
I1
s.(dp0
Vcyxruf7
p1
I1
sVd0tkbcw
p2
I1
s.(dp0
Vcyxruf7
p1
I1
sVd0tkbcw
p2
I1
s.(dp0
Vd1gmxsw
p1
I1
sVcyxruf7
p2
I1
s.(dp0
Vcyxruf7
p1
I1
sVd89lg4j
p2
I1
s.(dp0
Vcyxruf7
p1
I1
sVdav6iue
p2
I1
s.(dp0
Vcyxruf7
p1
I1
sVdhqiq3n
p2
I1
s.(dp0
Vdhqno31
p1
I1
sVcyxruf7
p2
I1
s.(dp0
Vcyxruf7
p1
I1
sVdkrz55m
p2
I1
s.