(dp0
Vcytg5hy
p1
I1
s.(dp0
Vcytg5hy
p1
I1
sVdireo9j
p2
I1
s.(dp0
Vcytg5hy
p1
I1
sVdireo9j
p2
I1
s.(dp0
Vcytg5hy
p1
I1
sVdireo9j
p2
I1
s.(dp0
Vcytg5hy
p1
I1
sVdireo9j
p2
I1
s.(dp0
Vcytg5hy
p1
I1
sVdireo9j
p2
I1
s.