(dp0
Vcyuuv8a
p1
I1
s.(dp0
Vd2w1o5m
p1
I1
sVcyuuv8a
p2
I1
s.(dp0
Vdb8mhex
p1
I1
sVcyuuv8a
p2
I1
s.(dp0
Vdcjspxn
p1
I1
sVcyuuv8a
p2
I1
s.(dp0
Vddb9auj
p1
I1
sVcyuuv8a
p2
I1
s.(dp0
Vdgvrs4t
p1
I1
sVcyuuv8a
p2
I1
s.(dp0
Vdi9oo9q
p1
I1
sVcyuuv8a
p2
I1
s.