(dp0
Vd086bzp
p1
I1
s.(dp0
Vd086bzp
p1
I2
s.(dp0
Vd08ayen
p1
I1
sVd086bzp
p2
I1
s.(dp0
Vd15vtp3
p1
I1
sVd086bzp
p2
I1
s.(dp0
Vd15vtp3
p1
I1
sVd086bzp
p2
I1
s.(dp0
Vdhcokxv
p1
I1
sVd086bzp
p2
I1
s.(dp0
Vd086bzp
p1
I1
sVdhigshq
p2
I1
s.