(dp0
Vcyij1z2
p1
I1
s.(dp0
Vcyij1z2
p1
I1
sVcyiponi
p2
I1
s.(dp0
Vcyij1z2
p1
I1
sVcyjkutp
p2
I1
s.(dp0
Vcyij1z2
p1
I1
sVcyjkutp
p2
I1
s.(dp0
Vcyij1z2
p1
I1
sVcyjp24v
p2
I1
s.(dp0
Vcyij1z2
p1
I1
sVcyjp24v
p2
I1
s.(dp0
Vcyij1z2
p1
I1
sVcyjrhct
p2
I1
s.(dp0
Vcyij1z2
p1
I1
sVcyjrhct
p2
I1
s.(dp0
Vcyij1z2
p1
I1
sVcykb2lj
p2
I1
s.(dp0
Vcyij1z2
p1
I1
sVcylap2q
p2
I1
s.(dp0
Vcyij1z2
p1
I1
sVcyldwrs
p2
I1
s.(dp0
Vcyij1z2
p1
I1
sVcylicql
p2
I1
s.(dp0
Vcyij1z2
p1
I1
sVcyljclh
p2
I1
s.(dp0
Vcyij1z2
p1
I1
sVcylm25v
p2
I1
s.(dp0
Vcyij1z2
p1
I1
sVcylsicd
p2
I1
s.(dp0
Vcyij1z2
p1
I1
sVcymx9gw
p2
I1
s.(dp0
Vcyij1z2
p1
I1
sVcyn98ut
p2
I1
s.(dp0
Vcyij1z2
p1
I1
sVcyng12c
p2
I1
s.(dp0
Vcyo0624
p1
I1
sVcyij1z2
p2
I1
s.(dp0
Vcyij1z2
p1
I1
sVcyo2ic6
p2
I1
s.(dp0
Vcyo2qn1
p1
I1
sVcyij1z2
p2
I1
s.(dp0
Vcyij1z2
p1
I1
sVcyoaona
p2
I1
s.(dp0
Vcyij1z2
p1
I1
sVcyozti0
p2
I1
s.(dp0
Vcyij1z2
p1
I1
sVcyqfbg0
p2
I1
s.(dp0
Vcyij1z2
p1
I1
sVcyr5sdu
p2
I1
s.(dp0
Vcyij1z2
p1
I1
sVcyrrxwb
p2
I1
s.(dp0
Vcyij1z2
p1
I1
sVcysalwc
p2
I1
s.(dp0
Vcyij1z2
p1
I1
sVcysalwc
p2
I1
s.(dp0
Vcyij1z2
p1
I1
sVcysdvtd
p2
I1
s.(dp0
Vcyij1z2
p1
I1
sVcyskob5
p2
I1
s.(dp0
Vcyij1z2
p1
I1
sVcyssr93
p2
I1
s.(dp0
Vcyij1z2
p1
I1
sVcysvlzh
p2
I1
s.(dp0
Vcyij1z2
p1
I1
sVcysvlzh
p2
I1
s.(dp0
Vcyij1z2
p1
I1
sVcyt508g
p2
I1
s.(dp0
Vcyij1z2
p1
I1
sVcytlt60
p2
I1
s.(dp0
Vcyij1z2
p1
I1
sVcytqy2u
p2
I1
s.(dp0
Vcyij1z2
p1
I1
sVcytqy2u
p2
I1
s.(dp0
Vcyu3d36
p1
I1
sVcyij1z2
p2
I1
s.(dp0
Vcyij1z2
p1
I1
sVcyu46l5
p2
I1
s.(dp0
Vcyij1z2
p1
I1
sVcyu46l5
p2
I1
s.(dp0
Vcyij1z2
p1
I1
sVcyu46l5
p2
I1
s.(dp0
Vcyij1z2
p1
I1
sVcyvou51
p2
I1
s.(dp0
Vcyvxjs2
p1
I1
sVcyij1z2
p2
I1
s.(dp0
Vcyij1z2
p1
I1
sVcywm1dg
p2
I1
s.(dp0
Vcyij1z2
p1
I1
sVcywm1dg
p2
I1
s.(dp0
Vcyij1z2
p1
I1
sVcywqo86
p2
I1
s.(dp0
Vcyij1z2
p1
I1
sVcywsw8s
p2
I1
s.(dp0
Vcyij1z2
p1
I1
sVcywsw8s
p2
I1
s.(dp0
Vcyij1z2
p1
I1
sVcywsw8s
p2
I1
s.(dp0
Vcyij1z2
p1
I1
sVcywsw8s
p2
I1
s.(dp0
Vcyij1z2
p1
I1
sVcywsw8s
p2
I1
s.(dp0
Vcyij1z2
p1
I1
sVcywsw8s
p2
I1
s.(dp0
Vcyij1z2
p1
I1
sVcywsw8s
p2
I1
s.(dp0
Vcyij1z2
p1
I1
sVcywsw8s
p2
I1
s.(dp0
Vcyij1z2
p1
I1
sVcywsw8s
p2
I1
s.(dp0
Vcyij1z2
p1
I1
sVcywsw8s
p2
I1
s.(dp0
Vcyij1z2
p1
I1
sVcywsw8s
p2
I1
s.(dp0
Vcyij1z2
p1
I1
sVcywsw8s
p2
I1
s.(dp0
Vcyij1z2
p1
I1
sVcyxayrt
p2
I1
s.(dp0
Vcyij1z2
p1
I1
sVcyxkw51
p2
I1
s.(dp0
Vcyij1z2
p1
I1
sVcyxlu5l
p2
I1
s.(dp0
Vcyxo2hp
p1
I1
sVcyij1z2
p2
I1
s.(dp0
Vcyij1z2
p1
I1
sVcyxo3qe
p2
I1
s.(dp0
Vcyij1z2
p1
I1
sVcyymhoi
p2
I1
s.(dp0
Vcyij1z2
p1
I1
sVcyypcdh
p2
I1
s.(dp0
Vcyij1z2
p1
I1
sVcyyt5ch
p2
I1
s.(dp0
Vcyij1z2
p1
I1
sVcyz68ht
p2
I1
s.(dp0
Vcyij1z2
p1
I1
sVcyz7bqc
p2
I1
s.(dp0
Vcyij1z2
p1
I1
sVcyz7zyl
p2
I1
s.(dp0
Vcyij1z2
p1
I1
sVcyzc6o6
p2
I1
s.(dp0
Vcyij1z2
p1
I1
sVcyzj8cw
p2
I1
s.(dp0
Vcyij1z2
p1
I1
sVcyzuhg2
p2
I1
s.(dp0
Vcyij1z2
p1
I1
sVcyzuhg2
p2
I1
s.(dp0
Vcyij1z2
p1
I1
sVcyzuhg2
p2
I1
s.(dp0
Vcyij1z2
p1
I1
sVcyzuhg2
p2
I1
s.(dp0
Vcyij1z2
p1
I1
sVcyzw1mb
p2
I1
s.(dp0
Vcyij1z2
p1
I1
sVcyzw1mb
p2
I1
s.(dp0
Vcyij1z2
p1
I1
sVcyzxgci
p2
I1
s.(dp0
Vcyij1z2
p1
I1
sVcyzxgci
p2
I1
s.(dp0
Vcyij1z2
p1
I1
sVcz0xk6i
p2
I1
s.(dp0
Vcyij1z2
p1
I1
sVcz11gnj
p2
I1
s.(dp0
Vcyij1z2
p1
I1
sVcz2hpv3
p2
I1
s.(dp0
Vcz3ok29
p1
I1
sVcyij1z2
p2
I1
s.(dp0
Vcyij1z2
p1
I1
sVcz4it29
p2
I1
s.(dp0
Vcyij1z2
p1
I1
sVcz4srt9
p2
I1
s.(dp0
Vcyij1z2
p1
I1
sVcz4xozh
p2
I1
s.(dp0
Vcyij1z2
p1
I1
sVcz5aiux
p2
I1
s.(dp0
Vcyij1z2
p1
I1
sVcz5fhb3
p2
I1
s.(dp0
Vcyij1z2
p1
I1
sVcz5ipww
p2
I1
s.(dp0
Vcyij1z2
p1
I1
sVcz5q7n9
p2
I1
s.(dp0
Vcyij1z2
p1
I1
sVcz6adxe
p2
I1
s.(dp0
Vcyij1z2
p1
I1
sVcz7fil8
p2
I1
s.(dp0
Vcyij1z2
p1
I1
sVcz7hdee
p2
I1
s.(dp0
Vcyij1z2
p1
I1
sVcz7hdee
p2
I1
s.(dp0
Vcyij1z2
p1
I1
sVcz7i51r
p2
I1
s.(dp0
Vcyij1z2
p1
I1
sVcz7m1u6
p2
I1
s.(dp0
Vcyij1z2
p1
I1
sVcz7s73y
p2
I1
s.(dp0
Vcyij1z2
p1
I1
sVcz80ak3
p2
I1
s.(dp0
Vcyij1z2
p1
I1
sVcz9kfwn
p2
I1
s.(dp0
Vcyij1z2
p1
I1
sVcz9z2g8
p2
I1
s.(dp0
Vcyij1z2
p1
I1
sVcz9z2g8
p2
I1
s.(dp0
Vcyij1z2
p1
I1
sVcz9z2g8
p2
I1
s.(dp0
Vcyij1z2
p1
I1
sVcz9z2g8
p2
I1
s.(dp0
Vcyij1z2
p1
I1
sVcz9z2g8
p2
I1
s.(dp0
Vcyij1z2
p1
I1
sVcz9z2g8
p2
I1
s.(dp0
Vcyij1z2
p1
I1
sVcz9z2g8
p2
I1
s.(dp0
Vcyij1z2
p1
I1
sVczb4mz5
p2
I1
s.(dp0
Vcyij1z2
p1
I1
sVczb86ag
p2
I1
s.(dp0
Vcy(dp0
Vdp49w90
p1
I1
sVcyij1z2
p2
I1
s.