(dp0
Vcylpv0n
p1
I1
s.(dp0
Vcylpv0n
p1
I2
s.(dp0
Vcylst1k
p1
I1
sVcylpv0n
p2
I1
s.(dp0
Vcywolkz
p1
I1
sVcylpv0n
p2
I1
s.(dp0
Vcylpv0n
p1
I1
sVcyx199v
p2
I1
s.(dp0
Vcylpv0n
p1
I1
sVczlgwfa
p2
I1
s.(dp0
Vczvxx4e
p1
I1
sVcylpv0n
p2
I1
s.(dp0
Vcylpv0n
p1
I1
sVd01b1cp
p2
I1
s.(dp0
Vcylpv0n
p1
I1
sVd03crgf
p2
I1
s.(dp0
Vd0qu432
p1
I1
sVcylpv0n
p2
I1
s.(dp0
Vd0qu432
p1
I1
sVcylpv0n
p2
I1
s.(dp0
Vcylpv0n
p1
I1
sVd0w0is7
p2
I1
s.(dp0
Vcylpv0n
p1
I1
sVd0ywpeu
p2
I1
s.(dp0
Vcylpv0n
p1
I1
sVd0zstyt
p2
I1
s.(dp0
Vcylpv0n
p1
I1
sVd1f8tdj
p2
I1
s.(dp0
Vd1zcjif
p1
I1
sVcylpv0n
p2
I1
s.(dp0
Vcylpv0n
p1
I1
sVd2nyhs3
p2
I1
s.(dp0
Vd2p0f6i
p1
I1
sVcylpv0n
p2
I1
s.(dp0
Vcylpv0n
p1
I1
sVd2r0r4v
p2
I1
s.(dp0
Vcylpv0n
p1
I1
sVd2sw9w1
p2
I1
s.(dp0
Vd2w7n0k
p1
I1
sVcylpv0n
p2
I1
s.(dp0
Vcylpv0n
p1
I1
sVd329tdg
p2
I1
s.(dp0
Vd3bwrp3
p1
I1
sVcylpv0n
p2
I1
s.(dp0
Vd3h67yc
p1
I1
sVcylpv0n
p2
I1
s.(dp0
Vcylpv0n
p1
I1
sVd4gq1xi
p2
I1
s.(dp0
Vcylpv0n
p1
I1
sVd4ib74x
p2
I1
s.(dp0
Vcylpv0n
p1
I1
sVd4jsxhv
p2
I1
s.(dp0
Vcylpv0n
p1
I1
sVd4ph413
p2
I1
s.(dp0
Vd5arko9
p1
I1
sVcylpv0n
p2
I1
s.(dp0
Vcylpv0n
p1
I1
sVd6k5zl3
p2
I1
s.(dp0
Vd7jug3x
p1
I1
sVcylpv0n
p2
I1
s.(dp0
Vd9um0ee
p1
I1
sVcylpv0n
p2
I1
s.(dp0
Vd9um0ee
p1
I1
sVcylpv0n
p2
I1
s.(dp0
Vd9unmr8
p1
I1
sVcylpv0n
p2
I1
s.(dp0
Vda5j3fo
p1
I1
sVcylpv0n
p2
I1
s.(dp0
Vda5j3fo
p1
I1
sVcylpv0n
p2
I1
s.(dp0
Vda9r2u4
p1
I1
sVcylpv0n
p2
I1
s.(dp0
Vdarl1ym
p1
I1
sVcylpv0n
p2
I1
s.(dp0
Vcylpv0n
p1
I1
sVdaz8ioq
p2
I1
s.(dp0
Vcylpv0n
p1
I1
sVdbi2a08
p2
I1
s.(dp0
Vdcadvlv
p1
I1
sVcylpv0n
p2
I1
s.(dp0
Vdcezjzd
p1
I1
sVcylpv0n
p2
I1
s.(dp0
Vcylpv0n
p1
I1
sVdcxl8k2
p2
I1
s.(dp0
Vcylpv0n
p1
I1
sVdcxz3r6
p2
I1
s.(dp0
Vcylpv0n
p1
I1
sVdd40h6g
p2
I1
s.(dp0
Vcylpv0n
p1
I1
sVdd62u6j
p2
I1
s.(dp0
Vdd8m1fq
p1
I1
sVcylpv0n
p2
I1
s.(dp0
Vcylpv0n
p1
I1
sVddej049
p2
I1
s.(dp0
Vde49mp4
p1
I1
sVcylpv0n
p2
I1
s.(dp0
Vdeg9s18
p1
I1
sVcylpv0n
p2
I1
s.(dp0
Vdezvfws
p1
I1
sVcylpv0n
p2
I1
s.(dp0
Vcylpv0n
p1
I1
sVdf45nsc
p2
I1
s.(dp0
Vcylpv0n
p1
I1
sVdfldmji
p2
I1
s.(dp0
Vdfsgjrc
p1
I1
sVcylpv0n
p2
I1
s.(dp0
Vdfsgjrc
p1
I1
sVcylpv0n
p2
I1
s.(dp0
Vcylpv0n
p1
I1
sVdfwic3v
p2
I1
s.(dp0
Vdfyow7b
p1
I1
sVcylpv0n
p2
I1
s.(dp0
Vdfzw8vq
p1
I1
sVcylpv0n
p2
I1
s.(dp0
Vcylpv0n
p1
I1
sVdg4qnoc
p2
I1
s.(dp0
Vcylpv0n
p1
I1
sVdg7humo
p2
I1
s.(dp0
Vcylpv0n
p1
I1
sVdgfa1w0
p2
I1
s.(dp0
Vdgq521l
p1
I1
sVcylpv0n
p2
I1
s.(dp0
Vcylpv0n
p1
I1
sVdgr0iea
p2
I1
s.(dp0
Vcylpv0n
p1
I1
sVdgr7g6s
p2
I1
s.(dp0
Vcylpv0n
p1
I1
sVdgr7g6s
p2
I1
s.(dp0
Vcylpv0n
p1
I1
sVdgy906n
p2
I1
s.(dp0
Vcylpv0n
p1
I1
sVdgz8zwd
p2
I1
s.(dp0
Vcylpv0n
p1
I1
sVdh01l9i
p2
I1
s.(dp0
Vcylpv0n
p1
I1
sVdh7hrdu
p2
I1
s.(dp0
Vcylpv0n
p1
I1
sVdh7xtbi
p2
I1
s.(dp0
Vdiqdvix
p1
I1
sVcylpv0n
p2
I1
s.(dp0
Vdjdgsuo
p1
I1
sVcylpv0n
p2
I1
s.(dp0
Vcylpv0n
p1
I1
sVdjrvytv
p2
I1
s.(dp0
Vdjs95ls
p1
I1
sVcylpv0n
p2
I1
s.(dp0
Vcylpv0n
p1
I1
sVdjscqm0
p2
I1
s.(dp0
Vcylpv0n
p1
I1
sVdjszdol
p2
I1
s.(dp0
Vdkb625c
p1
I1
sVcylpv0n
p2
I1
s.(dp0
Vcylpv0n
p1
I1
sVdkftwny
p2
I1
s.(dp0
Vdko0fb4
p1
I1
sVcylpv0n
p2
I1
s.(dp0
Vcylpv0n
p1
I1
sVdksn12o
p2
I1
s.