(dp0
Vcykrq78
p1
I1
s.(dp0
Vcykrq78
p1
I1
sVcykurba
p2
I1
s.(dp0
Vcykrq78
p1
I1
sVcz5od27
p2
I1
s.(dp0
Vcykrq78
p1
I1
sVczkrykf
p2
I1
s.(dp0
Vcykrq78
p1
I1
sVcztlrvv
p2
I1
s.(dp0
Vcykrq78
p1
I1
sVczzzqtt
p2
I1
s.(dp0
Vcykrq78
p1
I1
sVczzzqtt
p2
I1
s.(dp0
Vcykrq78
p1
I1
sVd041rs9
p2
I1
s.(dp0
Vcykrq78
p1
I1
sVd0pwi12
p2
I1
s.(dp0
Vcykrq78
p1
I1
sVd0qpggh
p2
I1
s.(dp0
Vcykrq78
p1
I1
sVd0yy19x
p2
I1
s.(dp0
Vcykrq78
p1
I1
sVd0zm2wu
p2
I1
s.(dp0
Vd14aewn
p1
I1
sVcykrq78
p2
I1
s.(dp0
Vcykrq78
p1
I1
sVd15g48d
p2
I1
s.(dp0
Vcykrq78
p1
I1
sVd17aad3
p2
I1
s.(dp0
Vcykrq78
p1
I1
sVd19530g
p2
I1
s.(dp0
Vcykrq78
p1
I1
sVd1pxkie
p2
I1
s.(dp0
Vcykrq78
p1
I1
sVd26pwql
p2
I1
s.(dp0
Vd2khfun
p1
I1
sVcykrq78
p2
I1
s.(dp0
Vcykrq78
p1
I1
sVd2syb2v
p2
I1
s.(dp0
Vd2x98yt
p1
I1
sVcykrq78
p2
I1
s.(dp0
Vcykrq78
p1
I1
sVd33sekj
p2
I1
s.(dp0
Vcykrq78
p1
I1
sVd3eao9k
p2
I1
s.(dp0
Vd3j6fyb
p1
I1
sVcykrq78
p2
I1
s.(dp0
Vcykrq78
p1
I1
sVd3uefik
p2
I1
s.(dp0
Vcykrq78
p1
I1
sVd46g3jw
p2
I1
s.(dp0
Vd4ivqwq
p1
I1
sVcykrq78
p2
I1
s.(dp0
Vcykrq78
p1
I1
sVd4ruccz
p2
I1
s.(dp0
Vd5aosyu
p1
I1
sVcykrq78
p2
I1
s.(dp0
Vd5dwlxu
p1
I1
sVcykrq78
p2
I1
s.(dp0
Vcykrq78
p1
I1
sVd5fvin5
p2
I1
s.(dp0
Vcykrq78
p1
I1
sVd5mivdf
p2
I1
s.(dp0
Vcykrq78
p1
I1
sVd5xl2q2
p2
I1
s.(dp0
Vcykrq78
p1
I1
sVd62gkyh
p2
I1
s.(dp0
Vd6hd589
p1
I1
sVcykrq78
p2
I1
s.(dp0
Vcykrq78
p1
I1
sVd6ogvb5
p2
I1
s.(dp0
Vcykrq78
p1
I1
sVd6qk8fu
p2
I1
s.(dp0
Vcykrq78
p1
I1
sVd7hbjt0
p2
I1
s.(dp0
Vd7jwc4j
p1
I1
sVcykrq78
p2
I1
s.(dp0
Vcykrq78
p1
I1
sVd7ndzur
p2
I1
s.(dp0
Vcykrq78
p1
I1
sVd7r3op0
p2
I1
s.(dp0
Vd7wldyg
p1
I1
sVcykrq78
p2
I1
s.(dp0
Vcykrq78
p1
I1
sVd87c11y
p2
I1
s.(dp0
Vcykrq78
p1
I1
sVd97fzxx
p2
I1
s.(dp0
Vcykrq78
p1
I1
sVd9jowsj
p2
I1
s.(dp0
Vd9xc0l1
p1
I1
sVcykrq78
p2
I1
s.(dp0
Vcykrq78
p1
I1
sVdao1vf1
p2
I1
s.(dp0
Vcykrq78
p1
I1
sVdapnk6l
p2
I1
s.(dp0
Vcykrq78
p1
I1
sVdav3ltq
p2
I1
s.(dp0
Vcykrq78
p1
I1
sVdaw4yd8
p2
I1
s.(dp0
Vcykrq78
p1
I1
sVdayix9b
p2
I1
s.(dp0
Vcykrq78
p1
I1
sVdaz9989
p2
I1
s.(dp0
Vdb571ic
p1
I1
sVcykrq78
p2
I1
s.(dp0
Vcykrq78
p1
I1
sVdbd4x6p
p2
I1
s.(dp0
Vcykrq78
p1
I1
sVdc0eq24
p2
I1
s.(dp0
Vcykrq78
p1
I1
sVdc1twzi
p2
I1
s.(dp0
Vcykrq78
p1
I1
sVdcob3gc
p2
I1
s.(dp0
Vcykrq78
p1
I1
sVdcy5bm2
p2
I1
s.(dp0
Vcykrq78
p1
I1
sVdcz8a46
p2
I1
s.(dp0
Vcykrq78
p1
I1
sVde118er
p2
I1
s.(dp0
Vcykrq78
p1
I1
sVde2ip2b
p2
I1
s.(dp0
Vcykrq78
p1
I1
sVde2iti8
p2
I1
s.(dp0
Vcykrq78
p1
I1
sVde8v45r
p2
I1
s.(dp0
Vcykrq78
p1
I1
sVdfd06tr
p2
I1
s.(dp0
Vcykrq78
p1
I1
sVdfgy9av
p2
I1
s.(dp0
Vcykrq78
p1
I1
sVdfkjd12
p2
I1
s.(dp0
Vdfm9fcd
p1
I1
sVcykrq78
p2
I1
s.(dp0
Vcykrq78
p1
I1
sVdfmawv9
p2
I1
s.(dp0
Vcykrq78
p1
I1
sVdg1ai8f
p2
I1
s.(dp0
Vcykrq78
p1
I1
sVdgijfk4
p2
I1
s.(dp0
Vcykrq78
p1
I1
sVdgnnbww
p2
I1
s.(dp0
Vcykrq78
p1
I1
sVdhgfodc
p2
I1
s.(dp0
Vcykrq78
p1
I1
sVdhl9o63
p2
I1
s.(dp0
Vcykrq78
p1
I1
sVdhln0vx
p2
I1
s.(dp0
Vcykrq78
p1
I1
sVdidla6o
p2
I1
s.(dp0
Vcykrq78
p1
I1
sVdifg9ze
p2
I1
s.(dp0
Vcykrq78
p1
I1
sVdim3op3
p2
I1
s.(dp0
Vcykrq78
p1
I1
sVdir95rh
p2
I1
s.(dp0
Vcykrq78
p1
I1
sVdiu329x
p2
I1
s.(dp0
Vcykrq78
p1
I1
sVdjxkvph
p2
I1
s.(dp0
Vcykrq78
p1
I1
sVdjy8byw
p2
I1
s.(dp0
Vcykrq78
p1
I1
sVdkb5uug
p2
I1
s.(dp0
Vcykrq78
p1
I1
sVdkqpgmh
p2
I1
s.