(dp0
Vcyhzuz7
p1
I1
s.(dp0
Vcyhzuz7
p1
I2
s.(dp0
Vcyhzuz7
p1
I1
sVcyi5gh7
p2
I1
s.(dp0
Vcyhzuz7
p1
I1
sVcyi5mdn
p2
I1
s.(dp0
Vcyhzuz7
p1
I1
sVcyi7a4l
p2
I1
s.(dp0
Vcyhzuz7
p1
I1
sVcyiaq90
p2
I1
s.(dp0
Vcyhzuz7
p1
I1
sVcyijln9
p2
I1
s.(dp0
Vcyhzuz7
p1
I1
sVcyim7pd
p2
I1
s.(dp0
Vcyhzuz7
p1
I1
sVcyirlvo
p2
I1
s.(dp0
Vcyhzuz7
p1
I1
sVcyirutb
p2
I1
s.(dp0
Vcyhzuz7
p1
I1
sVcyis0ec
p2
I1
s.(dp0
Vcyhzuz7
p1
I1
sVcyisaf1
p2
I1
s.(dp0
Vcyhzuz7
p1
I1
sVcyiteb2
p2
I1
s.(dp0
Vcyhzuz7
p1
I1
sVcyivenc
p2
I1
s.(dp0
Vcyhzuz7
p1
I1
sVcyiz0p3
p2
I1
s.(dp0
Vcyhzuz7
p1
I1
sVcyizm4a
p2
I1
s.(dp0
Vcyhzuz7
p1
I1
sVcyj753o
p2
I1
s.(dp0
Vcyhzuz7
p1
I1
sVcyj7tsi
p2
I1
s.(dp0
Vcyhzuz7
p1
I1
sVcyj92qx
p2
I1
s.(dp0
Vcyhzuz7
p1
I1
sVcyj9nhi
p2
I1
s.(dp0
Vcyhzuz7
p1
I1
sVcyj9nhi
p2
I1
s.(dp0
Vcyhzuz7
p1
I1
sVcyjaxya
p2
I1
s.(dp0
Vcyhzuz7
p1
I1
sVcyjbrvf
p2
I1
s.(dp0
Vcyhzuz7
p1
I1
sVcyjcrw2
p2
I1
s.(dp0
Vcyjcvoc
p1
I1
sVcyhzuz7
p2
I1
s.(dp0
Vcyhzuz7
p1
I1
sVcyjd8l3
p2
I1
s.(dp0
Vcyjdvmp
p1
I1
sVcyhzuz7
p2
I1
s.(dp0
Vcyhzuz7
p1
I1
sVcyjf6s1
p2
I1
s.(dp0
Vcyhzuz7
p1
I1
sVcyjgpib
p2
I1
s.(dp0
Vcyhzuz7
p1
I1
sVcyjndpv
p2
I1
s.(dp0
Vcyhzuz7
p1
I1
sVcyjpagg
p2
I1
s.(dp0
Vcyhzuz7
p1
I1
sVcyjq3a7
p2
I1
s.(dp0
Vcyjrzc4
p1
I1
sVcyhzuz7
p2
I1
s.(dp0
Vcyjrzc4
p1
I1
sVcyhzuz7
p2
I1
s.(dp0
Vcyhzuz7
p1
I1
sVcyjsdd2
p2
I1
s.(dp0
Vcyhzuz7
p1
I1
sVcyjxx2y
p2
I1
s.(dp0
Vcyhzuz7
p1
I1
sVcyk0180
p2
I1
s.(dp0
Vcyhzuz7
p1
I1
sVcyk0180
p2
I1
s.(dp0
Vcyhzuz7
p1
I1
sVcyk24of
p2
I1
s.(dp0
Vcyhzuz7
p1
I1
sVcyk2lwy
p2
I1
s.(dp0
Vcyhzuz7
p1
I1
sVcyk3dqm
p2
I1
s.(dp0
Vcyhzuz7
p1
I1
sVcyk4fef
p2
I1
s.(dp0
Vcyhzuz7
p1
I1
sVcyk4kku
p2
I1
s.(dp0
Vcyhzuz7
p1
I1
sVcyk4kku
p2
I1
s.(dp0
Vcyhzuz7
p1
I1
sVcyk4rjo
p2
I1
s.(dp0
Vcyhzuz7
p1
I1
sVcykcrom
p2
I1
s.(dp0
Vcyhzuz7
p1
I1
sVcykf0d4
p2
I1
s.(dp0
Vcyhzuz7
p1
I1
sVcykg2gc
p2
I1
s.(dp0
Vcyhzuz7
p1
I1
sVcykmd81
p2
I1
s.(dp0
Vcyhzuz7
p1
I1
sVcykoz59
p2
I1
s.(dp0
Vcyhzuz7
p1
I1
sVcykrpxm
p2
I1
s.(dp0
Vcyhzuz7
p1
I1
sVcykrxba
p2
I1
s.(dp0
Vcyhzuz7
p1
I1
sVcyksppr
p2
I1
s.(dp0
Vcyhzuz7
p1
I1
sVcyksxd7
p2
I1
s.(dp0
Vcyhzuz7
p1
I1
sVcykv7br
p2
I1
s.(dp0
Vcyhzuz7
p1
I1
sVcykzbwp
p2
I1
s.(dp0
Vcyhzuz7
p1
I1
sVcyl0diq
p2
I1
s.(dp0
Vcyhzuz7
p1
I1
sVcyl152v
p2
I1
s.(dp0
Vcyhzuz7
p1
I1
sVcyl32wt
p2
I1
s.(dp0
Vcyhzuz7
p1
I1
sVcyl6f3y
p2
I1
s.(dp0
Vcyhzuz7
p1
I1
sVcyl8flr
p2
I1
s.(dp0
Vcyhzuz7
p1
I1
sVcyl8hqa
p2
I1
s.(dp0
Vcyhzuz7
p1
I1
sVcyl8hqa
p2
I1
s.(dp0
Vcyl9c0s
p1
I1
sVcyhzuz7
p2
I1
s.(dp0
Vcyhzuz7
p1
I1
sVcyla89b
p2
I1
s.(dp0
Vcyhzuz7
p1
I1
sVcylap2q
p2
I1
s.(dp0
Vcyhzuz7
p1
I1
sVcylc273
p2
I1
s.(dp0
Vcyhzuz7
p1
I1
sVcylc273
p2
I1
s.(dp0
Vcyhzuz7
p1
I1
sVcylgp7g
p2
I1
s.(dp0
Vcyhzuz7
p1
I1
sVcylhb6r
p2
I1
s.(dp0
Vcyhzuz7
p1
I1
sVcylj13x
p2
I1
s.(dp0
Vcylj14h
p1
I1
sVcyhzuz7
p2
I1
s.(dp0
Vcyhzuz7
p1
I1
sVcylj2jj
p2
I1
s.(dp0
Vcyhzuz7
p1
I1
sVcyllh6f
p2
I1
s.(dp0
Vcyhzuz7
p1
I1
sVcylpb1q
p2
I1
s.(dp0
Vcyhzuz7
p1
I1
sVcylpiv8
p2
I1
s.(dp0
Vcylrese
p1
I1
sVcyhzuz7
p2
I1
s.(dp0
Vcylrese
p1
I1
sVcyhzuz7
p2
I1
s.(dp0
Vcyhzuz7
p1
I1
sVcylrsoz
p2
I1
s.(dp0
Vcyhzuz7
p1
I1
sVcylsicd
p2
I1
s.(dp0
Vcyhzuz7
p1
I1
sVcyltfld
p2
I1
s.(dp0
Vcyhzuz7
p1
I1
sVcylxq6p
p2
I1
s.(dp0
Vcyhzuz7
p1
I1
sVcym30jb
p2
I1
s.(dp0
Vcyhzuz7
p1
I1
sVcym7rgo
p2
I1
s.(dp0
Vcyhzuz7
p1
I1
sVcymajuk
p2
I1
s.(dp0
Vcyhzuz7
p1
I1
sVcymc293
p2
I1
s.(dp0
Vcyhzuz7
p1
I1
sVcymc2qk
p2
I1
s.(dp0
Vcyhzuz7
p1
I1
sVcymd74n
p2
I1
s.(dp0
Vcyhzuz7
p1
I1
sVcymf4wl
p2
I1
s.(dp0
Vcyhzuz7
p1
I1
sVcymg5vb
p2
I1
s.(dp0
Vcyhzuz7
p1
I1
sVcymg5vb
p2
I1
s.(dp0
Vcyhzuz7
p1
I1
sVcymgb9g
p2
I1
s.(dp0
Vcyhzuz7
p1
I1
sVcymgf9i
p2
I1
s.(dp0
Vcyhzuz7
p1
I1
sVcymgynb
p2
I1
s.(dp0
Vcymkyy5
p1
I1
sVcyhzuz7
p2
I1
s.(dp0
Vcyhzuz7
p1
I1
sVcymmbgm
p2
I1
s.(dp0
Vcyhzuz7
p1
I1
sVcymnlyr
p2
I1
s.(dp0
Vcyhzuz7
p1
I1
sVcymnokx
p2
I1
s.(dp0
Vcyhzuz7
p1
I1
sVcymo5iz
p2
I1
s.(dp0
Vcyhzuz7
p1
I1
sVcymo8g8
p2
I1
s.(dp0
Vcyhzuz7
p1
I1
sVcymp21r
p2
I1
s.(dp0
Vcyhzuz7
p1
I1
sVcymq8nk
p2
I1
s.(dp0
Vcyhzuz7
p1
I1
sVcymq8nk
p2
I1
s.(dp0
Vcyhzuz7
p1
I1
sVcymr5aa
p2
I1
s.(dp0
Vcyhzuz7
p1
I1
sVcymr5aa
p2
I1
s.(dp0
Vcyhzuz7
p1
I1
sVcymr5aa
p2
I1
s.(dp0
Vcyhzuz7
p1
I1
sVcymr9rh
p2
I1
s.(dp0
Vcyhzuz7
p1
I1
sVcymrota
p2
I1
s.(dp0
Vcyhzuz7
p1
I1
sVcy(dp0
Vcyhzuz7
p1
I1
sVdp5slww
p2
I1
s.