(dp0
Vczpc031
p1
I1
s.(dp0
Vd2yw91i
p1
I1
sVczpc031
p2
I1
s.(dp0
Vd3ncbe6
p1
I1
sVczpc031
p2
I1
s.(dp0
Vd6xlnug
p1
I1
sVczpc031
p2
I1
s.(dp0
Vd8jhazm
p1
I1
sVczpc031
p2
I1
s.(dp0
Vdbbl6e4
p1
I1
sVczpc031
p2
I1
s.(dp0
Vdbxut9e
p1
I1
sVczpc031
p2
I1
s.(dp0
Vdc4wlyq
p1
I1
sVczpc031
p2
I1
s.(dp0
Vdgxe4dg
p1
I1
sVczpc031
p2
I1
s.(dp0
Vdjg1fbs
p1
I1
sVczpc031
p2
I1
s.(dp0
Vdo7s4c9
p1
I1
sVczpc031
p2
I1
s.