(dp0
Vcyx97z5
p1
I1
s.(dp0
Vcyx97z5
p1
I1
sVcz2rrz9
p2
I1
s.(dp0
Vcyx97z5
p1
I1
sVcz8ef71
p2
I1
s.(dp0
Vcyx97z5
p1
I1
sVcza3qe6
p2
I1
s.(dp0
Vcyx97z5
p1
I1
sVczansz3
p2
I1
s.(dp0
Vcyx97z5
p1
I1
sVczbo9nd
p2
I1
s.(dp0
Vcyx97z5
p1
I1
sVczfgmd3
p2
I1
s.(dp0
Vcyx97z5
p1
I1
sVd062cc9
p2
I1
s.(dp0
Vcyx97z5
p1
I1
sVd0gmnk4
p2
I1
s.(dp0
Vcyx97z5
p1
I1
sVd0uyvgh
p2
I1
s.(dp0
Vcyx97z5
p1
I1
sVd1df3kn
p2
I1
s.(dp0
Vcyx97z5
p1
I1
sVd1gqgjl
p2
I1
s.(dp0
Vcyx97z5
p1
I1
sVd1gtmzz
p2
I1
s.(dp0
Vcyx97z5
p1
I1
sVd1gx1kl
p2
I1
s.(dp0
Vcyx97z5
p1
I1
sVd1h0a7a
p2
I1
s.(dp0
Vcyx97z5
p1
I1
sVd1j48rf
p2
I1
s.(dp0
Vcyx97z5
p1
I1
sVd1s3uie
p2
I1
s.(dp0
Vcyx97z5
p1
I1
sVd21rcoq
p2
I1
s.(dp0
Vcyx97z5
p1
I1
sVd29zbxz
p2
I1
s.(dp0
Vcyx97z5
p1
I1
sVd2ejoz2
p2
I1
s.(dp0
Vcyx97z5
p1
I1
sVd2g6gct
p2
I1
s.(dp0
Vcyx97z5
p1
I1
sVd2i1ypp
p2
I1
s.(dp0
Vcyx97z5
p1
I1
sVd2ko6qw
p2
I1
s.(dp0
Vcyx97z5
p1
I1
sVd2vu34l
p2
I1
s.(dp0
Vcyx97z5
p1
I1
sVd2w3uq9
p2
I1
s.(dp0
Vcyx97z5
p1
I1
sVd39dbx7
p2
I1
s.(dp0
Vcyx97z5
p1
I1
sVd3r2hoo
p2
I1
s.(dp0
Vcyx97z5
p1
I1
sVd3xgzyx
p2
I1
s.(dp0
Vcyx97z5
p1
I1
sVd4vog7p
p2
I1
s.(dp0
Vcyx97z5
p1
I1
sVd4vsr71
p2
I1
s.(dp0
Vcyx97z5
p1
I1
sVd57v9fg
p2
I1
s.(dp0
Vcyx97z5
p1
I1
sVd5cekg8
p2
I1
s.(dp0
Vcyx97z5
p1
I1
sVd5ev4bc
p2
I1
s.(dp0
Vcyx97z5
p1
I1
sVd5qvhfq
p2
I1
s.(dp0
Vcyx97z5
p1
I1
sVd5xlwi1
p2
I1
s.(dp0
Vcyx97z5
p1
I1
sVd61fz8l
p2
I1
s.(dp0
Vcyx97z5
p1
I1
sVd68oyzi
p2
I1
s.(dp0
Vcyx97z5
p1
I1
sVd6tywe5
p2
I1
s.(dp0
Vcyx97z5
p1
I1
sVd6yxqpe
p2
I1
s.(dp0
Vcyx97z5
p1
I1
sVd7ejxj7
p2
I1
s.(dp0
Vcyx97z5
p1
I1
sVd7vd92s
p2
I1
s.(dp0
Vcyx97z5
p1
I1
sVd7w33f8
p2
I1
s.(dp0
Vcyx97z5
p1
I1
sVd7xli4f
p2
I1
s.(dp0
Vcyx97z5
p1
I1
sVd85apaj
p2
I1
s.(dp0
Vcyx97z5
p1
I1
sVd8gjwb2
p2
I1
s.(dp0
Vcyx97z5
p1
I1
sVd8ryzph
p2
I1
s.(dp0
Vcyx97z5
p1
I1
sVd8wb9zi
p2
I1
s.(dp0
Vcyx97z5
p1
I1
sVd9d53up
p2
I1
s.(dp0
Vcyx97z5
p1
I1
sVd9ow6ko
p2
I1
s.(dp0
Vcyx97z5
p1
I1
sVda7nhuv
p2
I1
s.(dp0
Vcyx97z5
p1
I1
sVdada7qd
p2
I1
s.(dp0
Vcyx97z5
p1
I1
sVdajbujp
p2
I1
s.(dp0
Vcyx97z5
p1
I1
sVdap9asz
p2
I1
s.(dp0
Vcyx97z5
p1
I1
sVdapcya9
p2
I1
s.(dp0
Vcyx97z5
p1
I1
sVdapcya9
p2
I1
s.(dp0
Vcyx97z5
p1
I1
sVdatiq9k
p2
I1
s.(dp0
Vcyx97z5
p1
I1
sVdb9mt3e
p2
I1
s.(dp0
Vcyx97z5
p1
I1
sVdba59pq
p2
I1
s.(dp0
Vcyx97z5
p1
I1
sVdboohpj
p2
I1
s.(dp0
Vcyx97z5
p1
I1
sVdbu8mhf
p2
I1
s.(dp0
Vcyx97z5
p1
I1
sVdby8qv3
p2
I1
s.(dp0
Vcyx97z5
p1
I1
sVdcljhsb
p2
I1
s.(dp0
Vcyx97z5
p1
I1
sVdd6uelp
p2
I1
s.(dp0
Vcyx97z5
p1
I1
sVdde49bx
p2
I1
s.(dp0
Vcyx97z5
p1
I1
sVddmqrlx
p2
I1
s.(dp0
Vcyx97z5
p1
I1
sVddpgure
p2
I1
s.(dp0
Vcyx97z5
p1
I1
sVdeaprra
p2
I1
s.(dp0
Vcyx97z5
p1
I1
sVdedi95l
p2
I1
s.(dp0
Vcyx97z5
p1
I1
sVdemr7pa
p2
I1
s.(dp0
Vcyx97z5
p1
I1
sVdeqokw0
p2
I1
s.(dp0
Vcyx97z5
p1
I1
sVdf07n3x
p2
I1
s.(dp0
Vcyx97z5
p1
I1
sVdfbdi97
p2
I1
s.(dp0
Vcyx97z5
p1
I1
sVdffjt2n
p2
I1
s.(dp0
Vcyx97z5
p1
I1
sVdfpln0i
p2
I1
s.(dp0
Vcyx97z5
p1
I1
sVdfqk5ed
p2
I1
s.(dp0
Vcyx97z5
p1
I1
sVdfylnmm
p2
I1
s.(dp0
Vcyx97z5
p1
I1
sVdg8a6h8
p2
I1
s.(dp0
Vcyx97z5
p1
I1
sVdgm0r3d
p2
I1
s.(dp0
Vcyx97z5
p1
I1
sVdgo45ii
p2
I1
s.(dp0
Vcyx97z5
p1
I1
sVdgo8cxl
p2
I1
s.(dp0
Vcyx97z5
p1
I1
sVdgvyecs
p2
I1
s.(dp0
Vcyx97z5
p1
I1
sVdh04f9z
p2
I1
s.(dp0
Vcyx97z5
p1
I1
sVdhc3ve7
p2
I1
s.(dp0
Vcyx97z5
p1
I1
sVdhfqerr
p2
I1
s.(dp0
Vcyx97z5
p1
I1
sVdi53wxj
p2
I1
s.(dp0
Vcyx97z5
p1
I1
sVdie6hxb
p2
I1
s.(dp0
Vcyx97z5
p1
I1
sVdisigbm
p2
I1
s.(dp0
Vcyx97z5
p1
I1
sVdk7pnju
p2
I1
s.(dp0
Vcyx97z5
p1
I1
sVdkb72j8
p2
I1
s.