(dp0
Vcyhtpfb
p1
I1
s.(dp0
Vcyhtpfb
p1
I1
sVcyhtumq
p2
I1
s.(dp0
Vcyhx5sb
p1
I1
sVcyhtpfb
p2
I1
s.(dp0
Vcyi1514
p1
I1
sVcyhtpfb
p2
I1
s.(dp0
Vcyhtpfb
p1
I1
sVcyi1m6g
p2
I1
s.(dp0
Vcyhtpfb
p1
I1
sVcyie1j1
p2
I1
s.(dp0
Vcyhtpfb
p1
I1
sVcyil4go
p2
I1
s.(dp0
Vcyindf0
p1
I1
sVcyhtpfb
p2
I1
s.(dp0
Vcyhtpfb
p1
I1
sVcyinnkq
p2
I1
s.(dp0
Vcyhtpfb
p1
I1
sVcyinnkq
p2
I1
s.(dp0
Vcyhtpfb
p1
I1
sVcyinnkq
p2
I1
s.(dp0
Vcyhtpfb
p1
I1
sVcyinnkq
p2
I1
s.(dp0
Vcyhtpfb
p1
I1
sVcyinnkq
p2
I1
s.(dp0
Vcyhtpfb
p1
I1
sVcyinnkq
p2
I1
s.(dp0
Vcyhtpfb
p1
I1
sVcyinnkq
p2
I1
s.(dp0
Vcyisqip
p1
I1
sVcyhtpfb
p2
I1
s.(dp0
Vcyj938r
p1
I1
sVcyhtpfb
p2
I1
s.(dp0
Vcyj9dvb
p1
I1
sVcyhtpfb
p2
I1
s.(dp0
Vcyj9dvb
p1
I1
sVcyhtpfb
p2
I1
s.(dp0
Vcyj9dvb
p1
I1
sVcyhtpfb
p2
I1
s.(dp0
Vcyjbadl
p1
I1
sVcyhtpfb
p2
I1
s.(dp0
Vcyjbadl
p1
I1
sVcyhtpfb
p2
I1
s.(dp0
Vcyjhalh
p1
I1
sVcyhtpfb
p2
I1
s.(dp0
Vcyhtpfb
p1
I1
sVcyjl02h
p2
I1
s.(dp0
Vcyhtpfb
p1
I1
sVcyk8dbi
p2
I1
s.(dp0
Vcyhtpfb
p1
I1
sVcykdlx9
p2
I1
s.(dp0
Vcykf0d4
p1
I1
sVcyhtpfb
p2
I1
s.(dp0
Vcykf0d4
p1
I1
sVcyhtpfb
p2
I1
s.(dp0
Vcykf0d4
p1
I1
sVcyhtpfb
p2
I1
s.(dp0
Vcykf0d4
p1
I1
sVcyhtpfb
p2
I1
s.(dp0
Vcykf0d4
p1
I1
sVcyhtpfb
p2
I1
s.(dp0
Vcykfmlb
p1
I1
sVcyhtpfb
p2
I1
s.(dp0
Vcykfmlb
p1
I1
sVcyhtpfb
p2
I1
s.(dp0
Vcykvuq6
p1
I1
sVcyhtpfb
p2
I1
s.(dp0
Vcykvuq6
p1
I1
sVcyhtpfb
p2
I1
s.(dp0
Vcykvuq6
p1
I1
sVcyhtpfb
p2
I1
s.(dp0
Vcyhtpfb
p1
I1
sVcylhsmj
p2
I1
s.(dp0
Vcyhtpfb
p1
I1
sVcyloahc
p2
I1
s.(dp0
Vcyhtpfb
p1
I1
sVcymlfgl
p2
I1
s.(dp0
Vcyhtpfb
p1
I1
sVcymn8zs
p2
I1
s.(dp0
Vcymqhy0
p1
I1
sVcyhtpfb
p2
I1
s.(dp0
Vcyn1a4j
p1
I1
sVcyhtpfb
p2
I1
s.(dp0
Vcyhtpfb
p1
I1
sVcyn45sa
p2
I1
s.(dp0
Vcyhtpfb
p1
I1
sVcynmma0
p2
I1
s.(dp0
Vcynrwqq
p1
I1
sVcyhtpfb
p2
I1
s.(dp0
Vcyhtpfb
p1
I1
sVcynu8vx
p2
I1
s.(dp0
Vcyhtpfb
p1
I1
sVcyo9fqe
p2
I1
s.(dp0
Vcyhtpfb
p1
I1
sVcyoaona
p2
I1
s.(dp0
Vcyhtpfb
p1
I1
sVcyoffj5
p2
I1
s.(dp0
Vcyhtpfb
p1
I1
sVcyomsoh
p2
I1
s.(dp0
Vcyhtpfb
p1
I1
sVcyonta3
p2
I1
s.(dp0
Vcyhtpfb
p1
I1
sVcyp8bo7
p2
I1
s.(dp0
Vcyhtpfb
p1
I1
sVcyp8bo7
p2
I1
s.(dp0
Vcyhtpfb
p1
I1
sVcypdpv7
p2
I1
s.(dp0
Vcypo4qa
p1
I1
sVcyhtpfb
p2
I1
s.(dp0
Vcyqgbre
p1
I1
sVcyhtpfb
p2
I1
s.(dp0
Vcyqia79
p1
I1
sVcyhtpfb
p2
I1
s.(dp0
Vcyqtjs6
p1
I1
sVcyhtpfb
p2
I1
s.(dp0
Vcyhtpfb
p1
I1
sVcyr5e2k
p2
I1
s.(dp0
Vcys8rtz
p1
I1
sVcyhtpfb
p2
I1
s.(dp0
Vcys8rtz
p1
I1
sVcyhtpfb
p2
I1
s.(dp0
Vcyhtpfb
p1
I1
sVcyt6xjp
p2
I1
s.(dp0
Vcyhtpfb
p1
I1
sVcyt6yts
p2
I1
s.(dp0
Vcyhtpfb
p1
I1
sVcyt79ol
p2
I1
s.(dp0
Vcytlt60
p1
I1
sVcyhtpfb
p2
I1
s.(dp0
Vcytxf1x
p1
I1
sVcyhtpfb
p2
I1
s.(dp0
Vcyhtpfb
p1
I1
sVcyukf9l
p2
I1
s.(dp0
Vcyuwnjm
p1
I1
sVcyhtpfb
p2
I1
s.(dp0
Vcyvbv7b
p1
I1
sVcyhtpfb
p2
I1
s.(dp0
Vcyhtpfb
p1
I1
sVcyvdafm
p2
I1
s.(dp0
Vcyvihoa
p1
I1
sVcyhtpfb
p2
I1
s.(dp0
Vcyvs33v
p1
I1
sVcyhtpfb
p2
I1
s.(dp0
Vcyvs9ho
p1
I1
sVcyhtpfb
p2
I1
s.(dp0
Vcyhtpfb
p1
I1
sVcyvtnyt
p2
I1
s.(dp0
Vcyhtpfb
p1
I1
sVcyw5sf4
p2
I1
s.(dp0
Vcywgpeb
p1
I1
sVcyhtpfb
p2
I1
s.(dp0
Vcywo55c
p1
I1
sVcyhtpfb
p2
I1
s.(dp0
Vcyhtpfb
p1
I1
sVcyx199v
p2
I1
s.(dp0
Vcyhtpfb
p1
I1
sVcyx5w61
p2
I1
s.(dp0
Vcyy7dpo
p1
I1
sVcyhtpfb
p2
I1
s.(dp0
Vcyhtpfb
p1
I1
sVcyybx0p
p2
I1
s.(dp0
Vcyhtpfb
p1
I1
sVcyyhhle
p2
I1
s.(dp0
Vcyhtpfb
p1
I1
sVcyyxwgg
p2
I1
s.(dp0
Vcyz0ala
p1
I1
sVcyhtpfb
p2
I1
s.(dp0
Vcyzvz9b
p1
I1
sVcyhtpfb
p2
I1
s.(dp0
Vcz0b80t
p1
I1
sVcyhtpfb
p2
I1
s.(dp0
Vcyhtpfb
p1
I1
sVcz1noh7
p2
I1
s.(dp0
Vcz1pqmo
p1
I1
sVcyhtpfb
p2
I1
s.(dp0
Vcz1xlov
p1
I1
sVcyhtpfb
p2
I1
s.(dp0
Vcyhtpfb
p1
I1
sVcz2ni36
p2
I1
s.(dp0
Vcyhtpfb
p1
I1
sVcz3bs5j
p2
I1
s.(dp0
Vcz3g5fi
p1
I1
sVcyhtpfb
p2
I1
s.(dp0
Vcz3k390
p1
I1
sVcyhtpfb
p2
I1
s.(dp0
Vcyhtpfb
p1
I1
sVcz3lkje
p2
I1
s.(dp0
Vcyhtpfb
p1
I1
sVcz5ivfu
p2
I1
s.(dp0
Vcyhtpfb
p1
I1
sVcz6ommo
p2
I1
s.(dp0
Vcz6pmel
p1
I1
sVcyhtpfb
p2
I1
s.(dp0
Vcz7mv1v
p1
I1
sVcyhtpfb
p2
I1
s.(dp0
Vcyhtpfb
p1
I1
sVcz84l4w
p2
I1
s.(dp0
Vcyhtpfb
p1
I1
sVcz8arfe
p2
I1
s.(dp0
Vcyhtpfb
p1
I1
sVcz9g82t
p2
I1
s.(dp0
Vcz9pslk
p1
I1
sVcyhtpfb
p2
I1
s.(dp0
Vcz9yiv4
p1
I1
sVcyhtpfb
p2
I1
s.(dp0
Vcza545z
p1
I1
sVcyhtpfb
p2
I1
s.(dp0
Vcza9uk5
p1
I1
sVcyhtpfb
p2
I1
s.(dp0
Vczb5ypk
p1
I1
sVcyhtpfb
p2
I1
s.(dp0
Vcyhtpfb
p1
I1
sVczb62gu
p2
I1
s.(dp0
Vcyhtpfb
p1
I1
sVczb8veg
p2
I1
s.(dp0
Vcz(dp0
Vcyhtpfb
p1
I1
sVdp4n7ru
p2
I1
s.