(dp0
Vczo81gk
p1
I1
s.(dp0
Vczo81gk
p1
I2
s.(dp0
Vczo81gk
p1
I1
sVd03snja
p2
I1
s.(dp0
Vczo81gk
p1
I1
sVd0qoupf
p2
I1
s.(dp0
Vczo81gk
p1
I1
sVd0tskgb
p2
I1
s.(dp0
Vczo81gk
p1
I1
sVd1xmdr1
p2
I1
s.(dp0
Vczo81gk
p1
I1
sVd4jie09
p2
I1
s.(dp0
Vczo81gk
p1
I1
sVd4qwtoe
p2
I1
s.(dp0
Vczo81gk
p1
I1
sVd4rbrwk
p2
I1
s.(dp0
Vd5iv8bp
p1
I1
sVczo81gk
p2
I1
s.(dp0
Vczo81gk
p1
I1
sVd799a4c
p2
I1
s.(dp0
Vczo81gk
p1
I1
sVd7unpco
p2
I1
s.(dp0
Vd8zcpa7
p1
I1
sVczo81gk
p2
I1
s.(dp0
Vd8zcpa7
p1
I1
sVczo81gk
p2
I1
s.(dp0
Vdbqcgi8
p1
I1
sVczo81gk
p2
I1
s.(dp0
Vczo81gk
p1
I1
sVdia3o93
p2
I1
s.(dp0
Vczo81gk
p1
I1
sVdjmdboe
p2
I1
s.(dp0
Vczo81gk
p1
I1
sVdnyarb8
p2
I1
s.