(dp0
Vczw63vx
p1
I1
s.(dp0
Vd1uon8l
p1
I1
sVczw63vx
p2
I1
s.(dp0
Vczw63vx
p1
I1
sVd27lgnl
p2
I1
s.(dp0
Vd6tar21
p1
I1
sVczw63vx
p2
I1
s.(dp0
Vdcjzmmv
p1
I1
sVczw63vx
p2
I1
s.(dp0
Vdei1eft
p1
I1
sVczw63vx
p2
I1
s.(dp0
Vdnd9vus
p1
I1
sVczw63vx
p2
I1
s.(dp0
Vdnd9vus
p1
I1
sVczw63vx
p2
I1
s.(dp0
Vdnd9vus
p1
I1
sVczw63vx
p2
I1
s.(dp0
Vdox5ikp
p1
I1
sVczw63vx
p2
I1
s.