(dp0
Vcynxle8
p1
I1
s.(dp0
Vd0p6v9y
p1
I1
sVcynxle8
p2
I1
s.(dp0
Vd1er0mt
p1
I1
sVcynxle8
p2
I1
s.(dp0
Vd1l9n9k
p1
I1
sVcynxle8
p2
I1
s.(dp0
Vd1l9n9k
p1
I1
sVcynxle8
p2
I1
s.(dp0
Vd1uon8l
p1
I1
sVcynxle8
p2
I1
s.(dp0
Vd1uon8l
p1
I1
sVcynxle8
p2
I1
s.(dp0
Vcynxle8
p1
I1
sVd27lgnl
p2
I1
s.(dp0
Vd2ernpi
p1
I1
sVcynxle8
p2
I1
s.(dp0
Vd3hxrz1
p1
I1
sVcynxle8
p2
I1
s.(dp0
Vd3r4l5s
p1
I1
sVcynxle8
p2
I1
s.(dp0
Vd4agl2y
p1
I1
sVcynxle8
p2
I1
s.(dp0
Vd4eqq4n
p1
I1
sVcynxle8
p2
I1
s.(dp0
Vd4eqq4n
p1
I1
sVcynxle8
p2
I1
s.(dp0
Vd4eqq4n
p1
I1
sVcynxle8
p2
I1
s.(dp0
Vd4neu2j
p1
I1
sVcynxle8
p2
I1
s.(dp0
Vd5b22m1
p1
I1
sVcynxle8
p2
I1
s.(dp0
Vd6tar21
p1
I1
sVcynxle8
p2
I1
s.(dp0
Vd776yio
p1
I1
sVcynxle8
p2
I1
s.(dp0
Vd7somp1
p1
I1
sVcynxle8
p2
I1
s.(dp0
Vd7zbzmp
p1
I1
sVcynxle8
p2
I1
s.(dp0
Vd8kjkwe
p1
I1
sVcynxle8
p2
I1
s.(dp0
Vd9zu21p
p1
I1
sVcynxle8
p2
I1
s.(dp0
Vdcju66p
p1
I1
sVcynxle8
p2
I1
s.(dp0
Vdcjuipo
p1
I1
sVcynxle8
p2
I1
s.(dp0
Vdcjvmiv
p1
I1
sVcynxle8
p2
I1
s.(dp0
Vdcjxv0f
p1
I1
sVcynxle8
p2
I1
s.(dp0
Vdcjz5d5
p1
I1
sVcynxle8
p2
I1
s.(dp0
Vdck21nt
p1
I1
sVcynxle8
p2
I1
s.(dp0
Vdck21nt
p1
I1
sVcynxle8
p2
I1
s.(dp0
Vdeio3qt
p1
I1
sVcynxle8
p2
I1
s.(dp0
Vdeio3qt
p1
I1
sVcynxle8
p2
I1
s.(dp0
Vdeio3qt
p1
I1
sVcynxle8
p2
I1
s.(dp0
Vdmxrjcl
p1
I1
sVcynxle8
p2
I1
s.(dp0
Vdnct06f
p1
I1
sVcynxle8
p2
I1
s.