(dp0
Vcytzqx5
p1
I1
s.(dp0
Vcytzqx5
p1
I1
sVczf7mtw
p2
I1
s.(dp0
Vczxng14
p1
I1
sVcytzqx5
p2
I1
s.(dp0
Vcytzqx5
p1
I1
sVd050gnq
p2
I1
s.(dp0
Vcytzqx5
p1
I1
sVd0enkxl
p2
I1
s.(dp0
Vcytzqx5
p1
I1
sVd0mx4se
p2
I1
s.(dp0
Vcytzqx5
p1
I1
sVd0og6g7
p2
I1
s.(dp0
Vcytzqx5
p1
I1
sVd0yvdt1
p2
I1
s.(dp0
Vcytzqx5
p1
I1
sVd1ibo2x
p2
I1
s.(dp0
Vcytzqx5
p1
I1
sVd1l0aay
p2
I1
s.(dp0
Vcytzqx5
p1
I1
sVd2gnk6k
p2
I1
s.(dp0
Vcytzqx5
p1
I1
sVd3hi4hj
p2
I1
s.(dp0
Vcytzqx5
p1
I1
sVd3r3y5m
p2
I1
s.(dp0
Vcytzqx5
p1
I1
sVd40sro8
p2
I1
s.(dp0
Vcytzqx5
p1
I1
sVd49ep0q
p2
I1
s.(dp0
Vcytzqx5
p1
I1
sVd4mr2tk
p2
I1
s.(dp0
Vcytzqx5
p1
I1
sVd5cuug3
p2
I1
s.(dp0
Vcytzqx5
p1
I1
sVd5redtv
p2
I1
s.(dp0
Vcytzqx5
p1
I1
sVd6jecyg
p2
I1
s.(dp0
Vcytzqx5
p1
I1
sVd6ug1lg
p2
I1
s.(dp0
Vcytzqx5
p1
I1
sVd7b4vn3
p2
I1
s.(dp0
Vcytzqx5
p1
I1
sVd9hfhnr
p2
I1
s.(dp0
Vcytzqx5
p1
I1
sVdabug9x
p2
I1
s.(dp0
Vcytzqx5
p1
I1
sVdai1iqq
p2
I1
s.(dp0
Vcytzqx5
p1
I1
sVdam6ga0
p2
I1
s.(dp0
Vcytzqx5
p1
I1
sVdbjy8hz
p2
I1
s.(dp0
Vdbk76cp
p1
I1
sVcytzqx5
p2
I1
s.(dp0
Vcytzqx5
p1
I1
sVdbm9ros
p2
I1
s.(dp0
Vcytzqx5
p1
I1
sVdc3tym1
p2
I1
s.(dp0
Vcytzqx5
p1
I1
sVdcccrly
p2
I1
s.(dp0
Vcytzqx5
p1
I1
sVdcuf6w3
p2
I1
s.(dp0
Vcytzqx5
p1
I1
sVdcvdwkp
p2
I1
s.(dp0
Vcytzqx5
p1
I1
sVdd63d5k
p2
I1
s.(dp0
Vddjqtko
p1
I1
sVcytzqx5
p2
I1
s.(dp0
Vcytzqx5
p1
I1
sVddtnqd6
p2
I1
s.(dp0
Vde1zzqv
p1
I1
sVcytzqx5
p2
I1
s.(dp0
Vcytzqx5
p1
I1
sVdecqp4j
p2
I1
s.(dp0
Vcytzqx5
p1
I1
sVded4e7k
p2
I1
s.(dp0
Vdeelo7w
p1
I1
sVcytzqx5
p2
I1
s.(dp0
Vcytzqx5
p1
I1
sVdfekaiu
p2
I1
s.(dp0
Vcytzqx5
p1
I1
sVdfidvcz
p2
I1
s.(dp0
Vdfl4ku1
p1
I1
sVcytzqx5
p2
I1
s.(dp0
Vcytzqx5
p1
I1
sVdfq6b20
p2
I1
s.(dp0
Vcytzqx5
p1
I1
sVdfq6b20
p2
I1
s.(dp0
Vcytzqx5
p1
I1
sVdfq96nb
p2
I1
s.(dp0
Vcytzqx5
p1
I1
sVdhlwz48
p2
I1
s.(dp0
Vdhyym79
p1
I1
sVcytzqx5
p2
I1
s.(dp0
Vcytzqx5
p1
I1
sVdi3ldp8
p2
I1
s.(dp0
Vcytzqx5
p1
I1
sVdi4i6bi
p2
I1
s.(dp0
Vcytzqx5
p1
I1
sVdi4ralf
p2
I1
s.(dp0
Vcytzqx5
p1
I1
sVdihth15
p2
I1
s.(dp0
Vcytzqx5
p1
I1
sVdiq19p4
p2
I1
s.(dp0
Vcytzqx5
p1
I1
sVdizj9ec
p2
I1
s.(dp0
Vcytzqx5
p1
I1
sVdjp9g7e
p2
I1
s.(dp0
Vcytzqx5
p1
I1
sVdkygxbk
p2
I1
s.