(dp0
Vcynxust
p1
I1
s.(dp0
Vcynxust
p1
I1
sVcyo9h9n
p2
I1
s.(dp0
Vcz0yq75
p1
I1
sVcynxust
p2
I1
s.(dp0
Vczkhai5
p1
I1
sVcynxust
p2
I1
s.(dp0
Vcynxust
p1
I1
sVczpc031
p2
I1
s.(dp0
Vd035msx
p1
I1
sVcynxust
p2
I1
s.(dp0
Vd0dlzq4
p1
I1
sVcynxust
p2
I1
s.(dp0
Vd0i8a90
p1
I1
sVcynxust
p2
I1
s.(dp0
Vd0i8a90
p1
I1
sVcynxust
p2
I1
s.(dp0
Vd0jyfxh
p1
I1
sVcynxust
p2
I1
s.(dp0
Vcynxust
p1
I1
sVd15anob
p2
I1
s.(dp0
Vd1ddjyy
p1
I1
sVcynxust
p2
I1
s.(dp0
Vd21be8q
p1
I1
sVcynxust
p2
I1
s.(dp0
Vd21iv5j
p1
I1
sVcynxust
p2
I1
s.(dp0
Vcynxust
p1
I1
sVd298de2
p2
I1
s.(dp0
Vd2e3zes
p1
I1
sVcynxust
p2
I1
s.(dp0
Vd2l8nms
p1
I1
sVcynxust
p2
I1
s.(dp0
Vcynxust
p1
I1
sVd2r3h9w
p2
I1
s.(dp0
Vcynxust
p1
I1
sVd3d6zjm
p2
I1
s.(dp0
Vd3ybb48
p1
I1
sVcynxust
p2
I1
s.(dp0
Vd45skgu
p1
I1
sVcynxust
p2
I1
s.(dp0
Vd45skgu
p1
I1
sVcynxust
p2
I1
s.(dp0
Vd4sk8c0
p1
I1
sVcynxust
p2
I1
s.(dp0
Vcynxust
p1
I1
sVd4ukul7
p2
I1
s.(dp0
Vd5u8pt6
p1
I1
sVcynxust
p2
I1
s.(dp0
Vd639dad
p1
I1
sVcynxust
p2
I1
s.(dp0
Vcynxust
p1
I1
sVd67wpw3
p2
I1
s.(dp0
Vcynxust
p1
I1
sVd6h6csz
p2
I1
s.(dp0
Vcynxust
p1
I1
sVd6hcx19
p2
I1
s.(dp0
Vcynxust
p1
I1
sVd6kfqrv
p2
I1
s.(dp0
Vd6u7ak9
p1
I1
sVcynxust
p2
I1
s.(dp0
Vcynxust
p1
I1
sVd7oavn0
p2
I1
s.(dp0
Vcynxust
p1
I1
sVd820yub
p2
I1
s.(dp0
Vcynxust
p1
I1
sVda57z0i
p2
I1
s.(dp0
Vdal2zk0
p1
I1
sVcynxust
p2
I1
s.(dp0
Vdal2zk0
p1
I1
sVcynxust
p2
I1
s.(dp0
Vdau2f96
p1
I1
sVcynxust
p2
I1
s.(dp0
Vcynxust
p1
I1
sVdbtptw9
p2
I1
s.(dp0
Vdc2a0bv
p1
I1
sVcynxust
p2
I1
s.(dp0
Vcynxust
p1
I1
sVdc8ayzc
p2
I1
s.(dp0
Vdcm039m
p1
I1
sVcynxust
p2
I1
s.(dp0
Vdcqr4my
p1
I1
sVcynxust
p2
I1
s.(dp0
Vdcquejf
p1
I1
sVcynxust
p2
I1
s.(dp0
Vdd528w2
p1
I1
sVcynxust
p2
I1
s.(dp0
Vcynxust
p1
I1
sVdd9nnot
p2
I1
s.(dp0
Vddbtf3t
p1
I1
sVcynxust
p2
I1
s.(dp0
Vddc0p1l
p1
I1
sVcynxust
p2
I1
s.(dp0
Vddxsq0m
p1
I1
sVcynxust
p2
I1
s.(dp0
Vdefgkf9
p1
I1
sVcynxust
p2
I1
s.(dp0
Vdehsaos
p1
I1
sVcynxust
p2
I1
s.(dp0
Vdel1ld8
p1
I1
sVcynxust
p2
I1
s.(dp0
Vcynxust
p1
I1
sVdf0wgfb
p2
I1
s.(dp0
Vdf2u2zw
p1
I1
sVcynxust
p2
I1
s.(dp0
Vdff5a44
p1
I1
sVcynxust
p2
I1
s.(dp0
Vdfx4ngo
p1
I1
sVcynxust
p2
I1
s.(dp0
Vdghd8nd
p1
I1
sVcynxust
p2
I1
s.(dp0
Vdgskvqz
p1
I1
sVcynxust
p2
I1
s.(dp0
Vcynxust
p1
I1
sVdhf47lw
p2
I1
s.(dp0
Vdhjmfl8
p1
I1
sVcynxust
p2
I1
s.(dp0
Vdii8g72
p1
I1
sVcynxust
p2
I1
s.(dp0
Vdivpguz
p1
I1
sVcynxust
p2
I1
s.(dp0
Vcynxust
p1
I1
sVdjh2o0j
p2
I1
s.(dp0
Vdjwhdlx
p1
I1
sVcynxust
p2
I1
s.(dp0
Vdjwnoem
p1
I1
sVcynxust
p2
I1
s.(dp0
Vdjwnoem
p1
I1
sVcynxust
p2
I1
s.(dp0
Vdk09q9w
p1
I1
sVcynxust
p2
I1
s.(dp0
Vdkf1env
p1
I1
sVcynxust
p2
I1
s.(dp0
Vdkqe2oo
p1
I1
sVcynxust
p2
I1
s.(dp0
Vcynxust
p1
I1
sVdn5kh8l
p2
I1
s.(dp0
Vcynxust
p1
I1
sVdnboey5
p2
I1
s.(dp0
Vdnhizg7
p1
I1
sVcynxust
p2
I1
s.(dp0
Vdnm68p2
p1
I1
sVcynxust
p2
I1
s.(dp0
Vdo1xlsh
p1
I1
sVcynxust
p2
I1
s.