(dp0
Vcyzggiw
p1
I1
s.(dp0
Vcz1jw3g
p1
I1
sVcyzggiw
p2
I1
s.(dp0
Vczew96n
p1
I1
sVcyzggiw
p2
I1
s.(dp0
Vczid9wi
p1
I1
sVcyzggiw
p2
I1
s.(dp0
Vd1311ow
p1
I1
sVcyzggiw
p2
I1
s.(dp0
Vd2r7c43
p1
I1
sVcyzggiw
p2
I1
s.(dp0
Vd4gbj9r
p1
I1
sVcyzggiw
p2
I1
s.(dp0
Vd4gh31p
p1
I1
sVcyzggiw
p2
I1
s.(dp0
Vd60xa75
p1
I1
sVcyzggiw
p2
I1
s.(dp0
Vd8tf6xk
p1
I1
sVcyzggiw
p2
I1
s.(dp0
Vd93t1fi
p1
I1
sVcyzggiw
p2
I1
s.(dp0
Vd9azgu3
p1
I1
sVcyzggiw
p2
I1
s.(dp0
Vda65e1v
p1
I1
sVcyzggiw
p2
I1
s.(dp0
Vdacuaov
p1
I1
sVcyzggiw
p2
I1
s.(dp0
Vde2p7a4
p1
I1
sVcyzggiw
p2
I1
s.(dp0
Vderoc66
p1
I1
sVcyzggiw
p2
I1
s.(dp0
Vdg8ycl6
p1
I1
sVcyzggiw
p2
I1
s.(dp0
Vdgjj1oz
p1
I1
sVcyzggiw
p2
I1
s.(dp0
Vdgw518d
p1
I1
sVcyzggiw
p2
I1
s.(dp0
Vdjv0tw5
p1
I1
sVcyzggiw
p2
I1
s.