(dp0
Vcyltn6e
p1
I1
s.(dp0
Vcyngdit
p1
I1
sVcyltn6e
p2
I1
s.(dp0
Vcyuzm86
p1
I1
sVcyltn6e
p2
I1
s.(dp0
Vcyuzm86
p1
I1
sVcyltn6e
p2
I1
s.(dp0
Vcyyofsx
p1
I1
sVcyltn6e
p2
I1
s.(dp0
Vcyzabjw
p1
I1
sVcyltn6e
p2
I1
s.(dp0
Vcyzj9wn
p1
I1
sVcyltn6e
p2
I1
s.(dp0
Vcz1gbc8
p1
I1
sVcyltn6e
p2
I1
s.(dp0
Vcz1gpe5
p1
I1
sVcyltn6e
p2
I1
s.(dp0
Vcz6402l
p1
I1
sVcyltn6e
p2
I1
s.(dp0
Vcz9s42p
p1
I1
sVcyltn6e
p2
I1
s.(dp0
Vcza7jb1
p1
I1
sVcyltn6e
p2
I1
s.(dp0
Vczc7jcb
p1
I1
sVcyltn6e
p2
I1
s.(dp0
Vcyltn6e
p1
I1
sVczetb68
p2
I1
s.(dp0
Vczey40h
p1
I1
sVcyltn6e
p2
I1
s.(dp0
Vczh1pci
p1
I1
sVcyltn6e
p2
I1
s.(dp0
Vczlna5h
p1
I1
sVcyltn6e
p2
I1
s.(dp0
Vczoy7su
p1
I1
sVcyltn6e
p2
I1
s.(dp0
Vczp9n3o
p1
I1
sVcyltn6e
p2
I1
s.(dp0
Vczqem61
p1
I1
sVcyltn6e
p2
I1
s.(dp0
Vczrxror
p1
I1
sVcyltn6e
p2
I1
s.(dp0
Vcyltn6e
p1
I1
sVczwxuah
p2
I1
s.(dp0
Vcyltn6e
p1
I1
sVczz1rxj
p2
I1
s.(dp0
Vcyltn6e
p1
I1
sVczzs3pu
p2
I1
s.(dp0
Vd017wxv
p1
I1
sVcyltn6e
p2
I1
s.(dp0
Vd01oidn
p1
I1
sVcyltn6e
p2
I1
s.(dp0
Vd090ekt
p1
I1
sVcyltn6e
p2
I1
s.(dp0
Vd0bjjwj
p1
I1
sVcyltn6e
p2
I1
s.(dp0
Vd0ebgxn
p1
I1
sVcyltn6e
p2
I1
s.(dp0
Vd0fdw24
p1
I1
sVcyltn6e
p2
I1
s.(dp0
Vd0iy6oo
p1
I1
sVcyltn6e
p2
I1
s.(dp0
Vd0prg6x
p1
I1
sVcyltn6e
p2
I1
s.(dp0
Vd0s7psw
p1
I1
sVcyltn6e
p2
I1
s.(dp0
Vd0uy3n5
p1
I1
sVcyltn6e
p2
I1
s.(dp0
Vd0yx8z0
p1
I1
sVcyltn6e
p2
I1
s.(dp0
Vd12h8rr
p1
I1
sVcyltn6e
p2
I1
s.(dp0
Vd15u31c
p1
I1
sVcyltn6e
p2
I1
s.(dp0
Vd17l7ay
p1
I1
sVcyltn6e
p2
I1
s.(dp0
Vd17l7ay
p1
I1
sVcyltn6e
p2
I1
s.(dp0
Vd17l7ay
p1
I1
sVcyltn6e
p2
I1
s.(dp0
Vd18x45i
p1
I1
sVcyltn6e
p2
I1
s.(dp0
Vd19j1zx
p1
I1
sVcyltn6e
p2
I1
s.(dp0
Vd1bp62x
p1
I1
sVcyltn6e
p2
I1
s.(dp0
Vcyltn6e
p1
I1
sVd1dxksa
p2
I1
s.(dp0
Vd1hwbho
p1
I1
sVcyltn6e
p2
I1
s.(dp0
Vd1kuzh0
p1
I1
sVcyltn6e
p2
I1
s.(dp0
Vcyltn6e
p1
I1
sVd1m8ylg
p2
I1
s.(dp0
Vd1zw8mv
p1
I1
sVcyltn6e
p2
I1
s.(dp0
Vd20entb
p1
I1
sVcyltn6e
p2
I1
s.(dp0
Vd20hyk1
p1
I1
sVcyltn6e
p2
I1
s.(dp0
Vd23hdr4
p1
I1
sVcyltn6e
p2
I1
s.(dp0
Vd23iod6
p1
I1
sVcyltn6e
p2
I1
s.(dp0
Vd2csfdh
p1
I1
sVcyltn6e
p2
I1
s.(dp0
Vd2ctrr1
p1
I1
sVcyltn6e
p2
I1
s.(dp0
Vd2d0hmf
p1
I1
sVcyltn6e
p2
I1
s.(dp0
Vcyltn6e
p1
I1
sVd2hbcn9
p2
I1
s.(dp0
Vcyltn6e
p1
I1
sVd2hbcn9
p2
I1
s.(dp0
Vd2jfgfj
p1
I1
sVcyltn6e
p2
I1
s.(dp0
Vd2o0ct8
p1
I1
sVcyltn6e
p2
I1
s.(dp0
Vd2pxngz
p1
I1
sVcyltn6e
p2
I1
s.(dp0
Vd2s5gao
p1
I1
sVcyltn6e
p2
I1
s.(dp0
Vd2sb78w
p1
I1
sVcyltn6e
p2
I1
s.(dp0
Vd2slbo8
p1
I1
sVcyltn6e
p2
I1
s.(dp0
Vd2smk4o
p1
I1
sVcyltn6e
p2
I1
s.(dp0
Vd2sn22h
p1
I1
sVcyltn6e
p2
I1
s.(dp0
Vd2sn7hi
p1
I1
sVcyltn6e
p2
I1
s.(dp0
Vd2y33af
p1
I1
sVcyltn6e
p2
I1
s.(dp0
Vd2zbvai
p1
I1
sVcyltn6e
p2
I1
s.(dp0
Vd2zc2b8
p1
I1
sVcyltn6e
p2
I1
s.(dp0
Vd31al2j
p1
I1
sVcyltn6e
p2
I1
s.(dp0
Vd32qw8g
p1
I1
sVcyltn6e
p2
I1
s.(dp0
Vd371rxs
p1
I1
sVcyltn6e
p2
I1
s.(dp0
Vd371rxs
p1
I1
sVcyltn6e
p2
I1
s.(dp0
Vd372iz3
p1
I1
sVcyltn6e
p2
I1
s.(dp0
Vd372iz3
p1
I1
sVcyltn6e
p2
I1
s.(dp0
Vcyltn6e
p1
I1
sVd37sgbf
p2
I1
s.(dp0
Vd38gffr
p1
I1
sVcyltn6e
p2
I1
s.(dp0
Vd3jq3ge
p1
I1
sVcyltn6e
p2
I1
s.(dp0
Vd3nyggu
p1
I1
sVcyltn6e
p2
I1
s.(dp0
Vd3pzotq
p1
I1
sVcyltn6e
p2
I1
s.(dp0
Vcyltn6e
p1
I1
sVd3ra6df
p2
I1
s.(dp0
Vcyltn6e
p1
I1
sVd3ra6df
p2
I1
s.(dp0
Vd3rb6u8
p1
I1
sVcyltn6e
p2
I1
s.(dp0
Vd3vmq84
p1
I1
sVcyltn6e
p2
I1
s.(dp0
Vd44w6my
p1
I1
sVcyltn6e
p2
I1
s.(dp0
Vd474aa1
p1
I1
sVcyltn6e
p2
I1
s.(dp0
Vd49rtok
p1
I1
sVcyltn6e
p2
I1
s.(dp0
Vd49ul87
p1
I1
sVcyltn6e
p2
I1
s.(dp0
Vd4ig5gy
p1
I1
sVcyltn6e
p2
I1
s.(dp0
Vd4iz12c
p1
I1
sVcyltn6e
p2
I1
s.(dp0
Vd4ooi5m
p1
I1
sVcyltn6e
p2
I1
s.(dp0
Vd4ooi5m
p1
I1
sVcyltn6e
p2
I1
s.(dp0
Vd4p3s3p
p1
I1
sVcyltn6e
p2
I1
s.(dp0
Vd4wn4dw
p1
I1
sVcyltn6e
p2
I1
s.(dp0
Vd500431
p1
I1
sVcyltn6e
p2
I1
s.(dp0
Vd51r2yg
p1
I1
sVcyltn6e
p2
I1
s.(dp0
Vd55e53h
p1
I1
sVcyltn6e
p2
I1
s.(dp0
Vd5a25d1
p1
I1
sVcyltn6e
p2
I1
s.(dp0
Vd5c3r26
p1
I1
sVcyltn6e
p2
I1
s.(dp0
Vd5clmv1
p1
I1
sVcyltn6e
p2
I1
s.(dp0
Vd5h7ea1
p1
I1
sVcyltn6e
p2
I1
s.(dp0
Vd5hhty6
p1
I1
sVcyltn6e
p2
I1
s.(dp0
Vd5mabqm
p1
I1
sVcyltn6e
p2
I1
s.(dp0
Vd5nsw3j
p1
I1
sVcyltn6e
p2
I1
s.(dp0
Vd5tz4ye
p1
I1
sVcyltn6e
p2
I1
s.(dp0
Vd5vrv8b
p1
I1
sVcyltn6e
p2
I1
s.(dp0
Vd5xnft6
p1
I1
sVcyltn6e
p2
I1
s.(dp0
Vd66kd42
p1
I1
sVcyltn6e
p2
I1
s.(dp0
Vd6(dp0
Vdoyukyj
p1
I1
sVcyltn6e
p2
I1
s.