(dp0
Vczcvkbq
p1
I1
s.(dp0
Vd8t3612
p1
I1
sVczcvkbq
p2
I1
s.(dp0
Vd9v9h9y
p1
I1
sVczcvkbq
p2
I1
s.(dp0
Vdag2fue
p1
I1
sVczcvkbq
p2
I1
s.(dp0
Vdag2fue
p1
I1
sVczcvkbq
p2
I1
s.(dp0
Vdb2nfg3
p1
I1
sVczcvkbq
p2
I1
s.(dp0
Vdexpa1b
p1
I1
sVczcvkbq
p2
I1
s.(dp0
Vdj68k57
p1
I1
sVczcvkbq
p2
I1
s.(dp0
Vdj68nhj
p1
I1
sVczcvkbq
p2
I1
s.