(dp0
Vcyy8s8r
p1
I1
s.(dp0
Vcz875qq
p1
I1
sVcyy8s8r
p2
I1
s.(dp0
Vcz8jdhb
p1
I1
sVcyy8s8r
p2
I1
s.(dp0
Vczjnaz9
p1
I1
sVcyy8s8r
p2
I1
s.(dp0
Vd13jj1z
p1
I1
sVcyy8s8r
p2
I1
s.(dp0
Vd1pg4nh
p1
I1
sVcyy8s8r
p2
I1
s.(dp0
Vd1pg4nh
p1
I1
sVcyy8s8r
p2
I1
s.(dp0
Vd28xpf3
p1
I1
sVcyy8s8r
p2
I1
s.(dp0
Vd2qtrqm
p1
I1
sVcyy8s8r
p2
I1
s.(dp0
Vd3bwpv8
p1
I1
sVcyy8s8r
p2
I1
s.(dp0
Vd3qhm0w
p1
I1
sVcyy8s8r
p2
I1
s.(dp0
Vd3vqspb
p1
I1
sVcyy8s8r
p2
I1
s.(dp0
Vd4go390
p1
I1
sVcyy8s8r
p2
I1
s.(dp0
Vd5aao0i
p1
I1
sVcyy8s8r
p2
I1
s.(dp0
Vd7q3a57
p1
I1
sVcyy8s8r
p2
I1
s.(dp0
Vd96xzu0
p1
I1
sVcyy8s8r
p2
I1
s.(dp0
Vdc9cqy5
p1
I1
sVcyy8s8r
p2
I1
s.(dp0
Vdc9cqy5
p1
I1
sVcyy8s8r
p2
I1
s.(dp0
Vddbyfhv
p1
I1
sVcyy8s8r
p2
I1
s.(dp0
Vddbyfhv
p1
I1
sVcyy8s8r
p2
I1
s.(dp0
Vddbyfhv
p1
I1
sVcyy8s8r
p2
I1
s.(dp0
Vdgph1hl
p1
I1
sVcyy8s8r
p2
I1
s.(dp0
Vdi1ioyg
p1
I1
sVcyy8s8r
p2
I1
s.(dp0
Vdnpld7h
p1
I1
sVcyy8s8r
p2
I1
s.