(dp0
Vd02fjrm
p1
I1
s.(dp0
Vd02fjrm
p1
I1
sVd035voo
p2
I1
s.(dp0
Vd02fjrm
p1
I1
sVd0dnksl
p2
I1
s.(dp0
Vd02fjrm
p1
I1
sVd0uy8th
p2
I1
s.(dp0
Vd02fjrm
p1
I1
sVd2t0jbp
p2
I1
s.(dp0
Vd39olhb
p1
I1
sVd02fjrm
p2
I1
s.(dp0
Vd4zf6tl
p1
I1
sVd02fjrm
p2
I1
s.(dp0
Vd60s68b
p1
I1
sVd02fjrm
p2
I1
s.(dp0
Vd622spw
p1
I1
sVd02fjrm
p2
I1
s.(dp0
Vd02fjrm
p1
I1
sVd6xwp8d
p2
I1
s.(dp0
Vd02fjrm
p1
I1
sVdaxfkvc
p2
I1
s.(dp0
Vd02fjrm
p1
I1
sVdaxfkvc
p2
I1
s.(dp0
Vd02fjrm
p1
I1
sVdd62q33
p2
I1
s.(dp0
Vd02fjrm
p1
I1
sVdh5v9qm
p2
I1
s.(dp0
Vd02fjrm
p1
I1
sVdh7d53j
p2
I1
s.(dp0
Vdhcxkrd
p1
I1
sVd02fjrm
p2
I1
s.(dp0
Vdhv6v45
p1
I1
sVd02fjrm
p2
I1
s.(dp0
Vd02fjrm
p1
I1
sVdj4w798
p2
I1
s.(dp0
Vd02fjrm
p1
I1
sVdjftjad
p2
I1
s.(dp0
Vd02fjrm
p1
I1
sVdkp33y1
p2
I1
s.(dp0
Vd02fjrm
p1
I1
sVdmljs64
p2
I1
s.(dp0
Vd02fjrm
p1
I1
sVdo8g1gx
p2
I1
s.