(dp0
Vd1cl7c5
p1
I1
s.(dp0
Vd1cl7c5
p1
I1
sVd2dnyw6
p2
I1
s.(dp0
Vd1cl7c5
p1
I1
sVd2oy5k8
p2
I1
s.(dp0
Vd1cl7c5
p1
I1
sVd8o6cn8
p2
I1
s.(dp0
Vd1cl7c5
p1
I1
sVd8o6cn8
p2
I1
s.(dp0
Vd1cl7c5
p1
I1
sVdk9727r
p2
I1
s.(dp0
Vd1cl7c5
p1
I1
sVdk9727r
p2
I1
s.(dp0
Vd1cl7c5
p1
I1
sVdk9727r
p2
I1
s.(dp0
Vd1cl7c5
p1
I1
sVdkay0ux
p2
I1
s.(dp0
Vd1cl7c5
p1
I1
sVdkay0ux
p2
I1
s.(dp0
Vd1cl7c5
p1
I1
sVdkay0ux
p2
I1
s.