(dp0
Vcyk2caq
p1
I1
s.(dp0
Vd1ff5yh
p1
I1
sVcyk2caq
p2
I1
s.(dp0
Vcyk2caq
p1
I1
sVd2o651y
p2
I1
s.(dp0
Vcyk2caq
p1
I1
sVd8g6dep
p2
I1
s.(dp0
Vd91iszj
p1
I1
sVcyk2caq
p2
I1
s.(dp0
Vcyk2caq
p1
I1
sVd9ymvuf
p2
I1
s.(dp0
Vcyk2caq
p1
I1
sVdbeyhbi
p2
I1
s.(dp0
Vdbyv5gh
p1
I1
sVcyk2caq
p2
I1
s.(dp0
Vdevrna3
p1
I1
sVcyk2caq
p2
I1
s.(dp0
Vcyk2caq
p1
I1
sVdovpq32
p2
I1
s.