(dp0
Vczdbov0
p1
I1
s.(dp0
Vczxw2t6
p1
I1
sVczdbov0
p2
I1
s.(dp0
Vczdbov0
p1
I1
sVd09t8rq
p2
I1
s.(dp0
Vczdbov0
p1
I1
sVd18l2eb
p2
I1
s.(dp0
Vd1bnyi1
p1
I1
sVczdbov0
p2
I1
s.(dp0
Vczdbov0
p1
I1
sVd1yimyw
p2
I1
s.(dp0
Vd34ff15
p1
I1
sVczdbov0
p2
I1
s.(dp0
Vd34fgcu
p1
I1
sVczdbov0
p2
I1
s.(dp0
Vd34fh75
p1
I1
sVczdbov0
p2
I1
s.(dp0
Vd34gr6y
p1
I1
sVczdbov0
p2
I1
s.(dp0
Vd5627t8
p1
I1
sVczdbov0
p2
I1
s.(dp0
Vczdbov0
p1
I1
sVd56fhft
p2
I1
s.(dp0
Vczdbov0
p1
I1
sVd56fhft
p2
I1
s.(dp0
Vd62uvhh
p1
I1
sVczdbov0
p2
I1
s.(dp0
Vd6f0ow9
p1
I1
sVczdbov0
p2
I1
s.(dp0
Vd6f3oq7
p1
I1
sVczdbov0
p2
I1
s.(dp0
Vdaf62tu
p1
I1
sVczdbov0
p2
I1
s.(dp0
Vdcpe6fu
p1
I1
sVczdbov0
p2
I1
s.(dp0
Vdcpm9ib
p1
I1
sVczdbov0
p2
I1
s.(dp0
Vdcpm9ib
p1
I1
sVczdbov0
p2
I1
s.(dp0
Vdd67fhz
p1
I1
sVczdbov0
p2
I1
s.(dp0
Vddwsi1n
p1
I1
sVczdbov0
p2
I1
s.(dp0
Vczdbov0
p1
I1
sVdfo115r
p2
I1
s.(dp0
Vczdbov0
p1
I1
sVdfo115r
p2
I1
s.(dp0
Vdgdtix7
p1
I1
sVczdbov0
p2
I1
s.(dp0
Vczdbov0
p1
I1
sVdimk6cp
p2
I1
s.(dp0
Vdjei48g
p1
I1
sVczdbov0
p2
I1
s.