(dp0
Vczryvkx
p1
I1
s.(dp0
Vd0x7sav
p1
I1
sVczryvkx
p2
I1
s.(dp0
Vd0zlg4t
p1
I1
sVczryvkx
p2
I1
s.(dp0
Vd1vevo2
p1
I1
sVczryvkx
p2
I1
s.(dp0
Vd29hzxr
p1
I1
sVczryvkx
p2
I1
s.(dp0
Vd5epmge
p1
I1
sVczryvkx
p2
I1
s.(dp0
Vda1a059
p1
I1
sVczryvkx
p2
I1
s.(dp0
Vdacv5ym
p1
I1
sVczryvkx
p2
I1
s.(dp0
Vczryvkx
p1
I1
sVdbd189n
p2
I1
s.(dp0
Vczryvkx
p1
I1
sVdcrb9vw
p2
I1
s.(dp0
Vde2iti8
p1
I1
sVczryvkx
p2
I1
s.(dp0
Vczryvkx
p1
I1
sVdhljozr
p2
I1
s.(dp0
Vczryvkx
p1
I1
sVdhlzq5y
p2
I1
s.(dp0
Vczryvkx
p1
I1
sVdjuxr57
p2
I1
s.(dp0
Vdnkqi5i
p1
I1
sVczryvkx
p2
I1
s.