(dp0
Vcyibhtc
p1
I1
s.(dp0
Vcyisxz0
p1
I1
sVcyibhtc
p2
I1
s.(dp0
Vcyibhtc
p1
I1
sVcyitk1s
p2
I1
s.(dp0
Vcyibhtc
p1
I1
sVcyiv5oh
p2
I1
s.(dp0
Vcyibhtc
p1
I1
sVcyj0a3g
p2
I1
s.(dp0
Vcyjag74
p1
I1
sVcyibhtc
p2
I1
s.(dp0
Vcyjdcm0
p1
I1
sVcyibhtc
p2
I1
s.(dp0
Vcyjdcm0
p1
I1
sVcyibhtc
p2
I1
s.(dp0
Vcyibhtc
p1
I1
sVcyjh54a
p2
I1
s.(dp0
Vcyibhtc
p1
I1
sVcyjv6g7
p2
I1
s.(dp0
Vcyk49xc
p1
I1
sVcyibhtc
p2
I1
s.(dp0
Vcyk49xc
p1
I1
sVcyibhtc
p2
I1
s.(dp0
Vcyk49xc
p1
I1
sVcyibhtc
p2
I1
s.(dp0
Vcyk49xc
p1
I1
sVcyibhtc
p2
I1
s.(dp0
Vcyk49xc
p1
I1
sVcyibhtc
p2
I1
s.(dp0
Vcyk8h2v
p1
I1
sVcyibhtc
p2
I1
s.(dp0
Vcykbpgq
p1
I1
sVcyibhtc
p2
I1
s.(dp0
Vcyibhtc
p1
I1
sVcykcoh8
p2
I1
s.(dp0
Vcyibhtc
p1
I1
sVcykijpk
p2
I1
s.(dp0
Vcyibhtc
p1
I1
sVcykwkrj
p2
I1
s.(dp0
Vcyibhtc
p1
I1
sVcyl99z9
p2
I1
s.(dp0
Vcyibhtc
p1
I1
sVcyl99z9
p2
I1
s.(dp0
Vcyibhtc
p1
I1
sVcyldgzm
p2
I1
s.(dp0
Vcyibhtc
p1
I1
sVcylfdwp
p2
I1
s.(dp0
Vcyibhtc
p1
I1
sVcym1vjr
p2
I1
s.(dp0
Vcyibhtc
p1
I1
sVcym3ok7
p2
I1
s.(dp0
Vcymfyry
p1
I1
sVcyibhtc
p2
I1
s.(dp0
Vcyn1la7
p1
I1
sVcyibhtc
p2
I1
s.(dp0
Vcyn9p0f
p1
I1
sVcyibhtc
p2
I1
s.(dp0
Vcyibhtc
p1
I1
sVcynj6as
p2
I1
s.(dp0
Vcyibhtc
p1
I1
sVcynmwf0
p2
I1
s.(dp0
Vcyibhtc
p1
I1
sVcynmwf0
p2
I1
s.(dp0
Vcyibhtc
p1
I1
sVcynmwf0
p2
I1
s.(dp0
Vcyibhtc
p1
I1
sVcynmwf0
p2
I1
s.(dp0
Vcyibhtc
p1
I1
sVcynmwf0
p2
I1
s.(dp0
Vcyibhtc
p1
I1
sVcynuck3
p2
I1
s.(dp0
Vcyibhtc
p1
I1
sVcynz810
p2
I1
s.(dp0
Vcyoo2sb
p1
I1
sVcyibhtc
p2
I1
s.(dp0
Vcyopfy2
p1
I1
sVcyibhtc
p2
I1
s.(dp0
Vcyibhtc
p1
I1
sVcyovlmm
p2
I1
s.(dp0
Vcyp0fuq
p1
I1
sVcyibhtc
p2
I1
s.(dp0
Vcyp5dx6
p1
I1
sVcyibhtc
p2
I1
s.(dp0
Vcyibhtc
p1
I1
sVcyprrop
p2
I1
s.(dp0
Vcyprxct
p1
I1
sVcyibhtc
p2
I1
s.(dp0
Vcyq5j4j
p1
I1
sVcyibhtc
p2
I1
s.(dp0
Vcyibhtc
p1
I1
sVcyqdmte
p2
I1
s.(dp0
Vcyibhtc
p1
I1
sVcyqdmte
p2
I1
s.(dp0
Vcyibhtc
p1
I1
sVcyqdmte
p2
I1
s.(dp0
Vcyibhtc
p1
I1
sVcyqdmte
p2
I1
s.(dp0
Vcyqooof
p1
I1
sVcyibhtc
p2
I1
s.(dp0
Vcyibhtc
p1
I1
sVcyqst4b
p2
I1
s.(dp0
Vcyibhtc
p1
I1
sVcyr84j1
p2
I1
s.(dp0
Vcyrinx4
p1
I1
sVcyibhtc
p2
I1
s.(dp0
Vcyibhtc
p1
I1
sVcysjouv
p2
I1
s.(dp0
Vcyibhtc
p1
I1
sVcysjouv
p2
I1
s.(dp0
Vcyibhtc
p1
I1
sVcysjouv
p2
I1
s.(dp0
Vcysk3gg
p1
I1
sVcyibhtc
p2
I1
s.(dp0
Vcyibhtc
p1
I1
sVcytd1ur
p2
I1
s.(dp0
Vcytdaxo
p1
I1
sVcyibhtc
p2
I1
s.(dp0
Vcytdaxo
p1
I1
sVcyibhtc
p2
I1
s.(dp0
Vcyibhtc
p1
I1
sVcytrnxd
p2
I1
s.(dp0
Vcyu0c9o
p1
I1
sVcyibhtc
p2
I1
s.(dp0
Vcyu0c9o
p1
I1
sVcyibhtc
p2
I1
s.(dp0
Vcyibhtc
p1
I1
sVcyuevch
p2
I1
s.(dp0
Vcyv6e0d
p1
I1
sVcyibhtc
p2
I1
s.(dp0
Vcyibhtc
p1
I1
sVcyv95z2
p2
I1
s.(dp0
Vcyibhtc
p1
I1
sVcyvauav
p2
I1
s.(dp0
Vcyvbvdt
p1
I1
sVcyibhtc
p2
I1
s.(dp0
Vcyibhtc
p1
I1
sVcyvs8vl
p2
I1
s.(dp0
Vcyibhtc
p1
I1
sVcyw0wzu
p2
I1
s.(dp0
Vcyibhtc
p1
I1
sVcyw0wzu
p2
I1
s.(dp0
Vcyw1cdm
p1
I1
sVcyibhtc
p2
I1
s.(dp0
Vcyibhtc
p1
I1
sVcywcztd
p2
I1
s.(dp0
Vcywddy1
p1
I1
sVcyibhtc
p2
I1
s.(dp0
Vcyibhtc
p1
I1
sVcywg6bw
p2
I1
s.(dp0
Vcyx6fm4
p1
I1
sVcyibhtc
p2
I1
s.(dp0
Vcyibhtc
p1
I1
sVcyxa36b
p2
I1
s.(dp0
Vcyxb0rn
p1
I1
sVcyibhtc
p2
I1
s.(dp0
Vcyibhtc
p1
I1
sVcyxbg1g
p2
I1
s.(dp0
Vcyibhtc
p1
I1
sVcyxeray
p2
I1
s.(dp0
Vcyibhtc
p1
I1
sVcyxkr9b
p2
I1
s.(dp0
Vcyibhtc
p1
I1
sVcyxkr9b
p2
I1
s.(dp0
Vcyibhtc
p1
I1
sVcyy9j3g
p2
I1
s.(dp0
Vcyibhtc
p1
I1
sVcyyrooy
p2
I1
s.(dp0
Vcyibhtc
p1
I1
sVcyzjrc7
p2
I1
s.(dp0
Vcyibhtc
p1
I1
sVcyzjwqp
p2
I1
s.(dp0
Vcyibhtc
p1
I1
sVcz04z1d
p2
I1
s.(dp0
Vcz0rvqe
p1
I1
sVcyibhtc
p2
I1
s.(dp0
Vcyibhtc
p1
I1
sVcz2jrri
p2
I1
s.(dp0
Vcyibhtc
p1
I1
sVcz2yeh1
p2
I1
s.(dp0
Vcz37nwu
p1
I1
sVcyibhtc
p2
I1
s.(dp0
Vcz3axc1
p1
I1
sVcyibhtc
p2
I1
s.(dp0
Vcz3axc1
p1
I1
sVcyibhtc
p2
I1
s.(dp0
Vcyibhtc
p1
I1
sVcz4g428
p2
I1
s.(dp0
Vcyibhtc
p1
I1
sVcz52gg9
p2
I1
s.(dp0
Vcyibhtc
p1
I1
sVcz52gg9
p2
I1
s.(dp0
Vcyibhtc
p1
I1
sVcz58baq
p2
I1
s.(dp0
Vcyibhtc
p1
I1
sVcz58baq
p2
I1
s.(dp0
Vcyibhtc
p1
I1
sVcz6vk51
p2
I1
s.(dp0
Vcyibhtc
p1
I1
sVcz6zfy3
p2
I1
s.(dp0
Vcyibhtc
p1
I1
sVcz6zfy3
p2
I1
s.(dp0
Vcyibhtc
p1
I1
sVcz7j34w
p2
I1
s.(dp0
Vcyibhtc
p1
I1
sVcz7jojo
p2
I1
s.(dp0
Vcyibhtc
p1
I1
sVcz7jojo
p2
I1
s.(dp0
Vcyibhtc
p1
I1
sVcz7mdgf
p2
I1
s.(dp0
Vcyibhtc
p1
I1
sVcz8a1cn
p2
I1
s.(dp0
Vcyibhtc
p1
I1
sVcz8pj9p
p2
I1
s.(dp0
Vcyibhtc
p1
I1
sVcz9h102
p2
I1
s.(dp0
Vcz(dp0
Vcyibhtc
p1
I1
sVdkzheek
p2
I1
s.