(dp0
Vd22uydd
p1
I1
s.(dp0
Vd22uydd
p1
I1
sVd49rk0e
p2
I1
s.(dp0
Vd22uydd
p1
I1
sVd6w8a8c
p2
I1
s.(dp0
Vd22uydd
p1
I1
sVd9c8vzx
p2
I1
s.(dp0
Vd22uydd
p1
I1
sVd9zhghq
p2
I1
s.(dp0
Vd22uydd
p1
I1
sVdaqi66y
p2
I1
s.(dp0
Vdd67u1r
p1
I1
sVd22uydd
p2
I1
s.(dp0
Vdd7x27o
p1
I1
sVd22uydd
p2
I1
s.(dp0
Vd22uydd
p1
I1
sVde1fssl
p2
I1
s.(dp0
Vd22uydd
p1
I1
sVdj8nop5
p2
I1
s.