(dp0
Vcyidh07
p1
I1
s.(dp0
Vcyjdvmp
p1
I1
sVcyidh07
p2
I1
s.(dp0
Vcyidh07
p1
I1
sVcyrxbkp
p2
I1
s.(dp0
Vcysbr62
p1
I1
sVcyidh07
p2
I1
s.(dp0
Vcyidh07
p1
I1
sVcyyn8s0
p2
I1
s.(dp0
Vcz6vcuj
p1
I1
sVcyidh07
p2
I1
s.(dp0
Vcz8v56u
p1
I1
sVcyidh07
p2
I1
s.(dp0
Vczc652q
p1
I1
sVcyidh07
p2
I1
s.(dp0
Vczd4jzf
p1
I1
sVcyidh07
p2
I1
s.(dp0
Vcyidh07
p1
I1
sVczigcih
p2
I1
s.(dp0
Vczjm0mf
p1
I1
sVcyidh07
p2
I1
s.(dp0
Vczjvcdi
p1
I1
sVcyidh07
p2
I1
s.(dp0
Vcyidh07
p1
I1
sVczk054c
p2
I1
s.(dp0
Vcyidh07
p1
I1
sVczpt4ub
p2
I1
s.(dp0
Vcyidh07
p1
I1
sVczpt4ub
p2
I1
s.(dp0
Vcyidh07
p1
I1
sVczt19sn
p2
I1
s.(dp0
Vcztffe5
p1
I1
sVcyidh07
p2
I1
s.(dp0
Vcyidh07
p1
I1
sVczzvqec
p2
I1
s.(dp0
Vcyidh07
p1
I1
sVd015vii
p2
I1
s.(dp0
Vcyidh07
p1
I1
sVd015vii
p2
I1
s.(dp0
Vcyidh07
p1
I1
sVd02m7qg
p2
I1
s.(dp0
Vcyidh07
p1
I1
sVd048guh
p2
I1
s.(dp0
Vcyidh07
p1
I1
sVd048guh
p2
I1
s.(dp0
Vd09jcew
p1
I1
sVcyidh07
p2
I1
s.(dp0
Vd0p2aaw
p1
I1
sVcyidh07
p2
I1
s.(dp0
Vd0rafqz
p1
I1
sVcyidh07
p2
I1
s.(dp0
Vcyidh07
p1
I1
sVd1027jt
p2
I1
s.(dp0
Vd12ycac
p1
I1
sVcyidh07
p2
I1
s.(dp0
Vcyidh07
p1
I1
sVd1353rl
p2
I1
s.(dp0
Vd1n194w
p1
I1
sVcyidh07
p2
I1
s.(dp0
Vd1pb1fp
p1
I1
sVcyidh07
p2
I1
s.(dp0
Vd1pp4bl
p1
I1
sVcyidh07
p2
I1
s.(dp0
Vd1pp4bl
p1
I1
sVcyidh07
p2
I1
s.(dp0
Vd1pxius
p1
I1
sVcyidh07
p2
I1
s.(dp0
Vd1tik84
p1
I1
sVcyidh07
p2
I1
s.(dp0
Vd22775v
p1
I1
sVcyidh07
p2
I1
s.(dp0
Vcyidh07
p1
I1
sVd2fi0mb
p2
I1
s.(dp0
Vcyidh07
p1
I1
sVd2fi0mb
p2
I1
s.(dp0
Vd2fihfr
p1
I1
sVcyidh07
p2
I1
s.(dp0
Vd2jmevk
p1
I1
sVcyidh07
p2
I1
s.(dp0
Vd2pnoyz
p1
I1
sVcyidh07
p2
I1
s.(dp0
Vcyidh07
p1
I1
sVd30qvec
p2
I1
s.(dp0
Vd35uurq
p1
I1
sVcyidh07
p2
I1
s.(dp0
Vd35uurq
p1
I1
sVcyidh07
p2
I1
s.(dp0
Vd36e6qs
p1
I1
sVcyidh07
p2
I1
s.(dp0
Vd3r5yjn
p1
I1
sVcyidh07
p2
I1
s.(dp0
Vd40bxru
p1
I1
sVcyidh07
p2
I1
s.(dp0
Vd40wbel
p1
I1
sVcyidh07
p2
I1
s.(dp0
Vd4epals
p1
I1
sVcyidh07
p2
I1
s.(dp0
Vcyidh07
p1
I1
sVd4hw3ia
p2
I1
s.(dp0
Vcyidh07
p1
I1
sVd4imbem
p2
I1
s.(dp0
Vcyidh07
p1
I1
sVd4ja3bz
p2
I1
s.(dp0
Vd4qa089
p1
I1
sVcyidh07
p2
I1
s.(dp0
Vcyidh07
p1
I1
sVd4waz7w
p2
I1
s.(dp0
Vcyidh07
p1
I1
sVd5oqzdq
p2
I1
s.(dp0
Vd65fzqk
p1
I1
sVcyidh07
p2
I1
s.(dp0
Vcyidh07
p1
I1
sVd67urzf
p2
I1
s.(dp0
Vcyidh07
p1
I1
sVd6lggn6
p2
I1
s.(dp0
Vcyidh07
p1
I1
sVd6x9qp2
p2
I1
s.(dp0
Vcyidh07
p1
I1
sVd6x9qp2
p2
I1
s.(dp0
Vd7bbszp
p1
I1
sVcyidh07
p2
I1
s.(dp0
Vd7i5ik0
p1
I1
sVcyidh07
p2
I1
s.(dp0
Vd7pmqk0
p1
I1
sVcyidh07
p2
I1
s.(dp0
Vcyidh07
p1
I1
sVd7qw30g
p2
I1
s.(dp0
Vd7vo6fi
p1
I1
sVcyidh07
p2
I1
s.(dp0
Vd7vvs8g
p1
I1
sVcyidh07
p2
I1
s.(dp0
Vcyidh07
p1
I1
sVd7x2tsh
p2
I1
s.(dp0
Vd82imr4
p1
I1
sVcyidh07
p2
I1
s.(dp0
Vcyidh07
p1
I1
sVd87o9q0
p2
I1
s.(dp0
Vd88d36j
p1
I1
sVcyidh07
p2
I1
s.(dp0
Vcyidh07
p1
I1
sVd88yy0n
p2
I1
s.(dp0
Vd8p7kd1
p1
I1
sVcyidh07
p2
I1
s.(dp0
Vd95u85n
p1
I1
sVcyidh07
p2
I1
s.(dp0
Vd9aizr6
p1
I1
sVcyidh07
p2
I1
s.(dp0
Vd9aizr6
p1
I1
sVcyidh07
p2
I1
s.(dp0
Vd9aizr6
p1
I1
sVcyidh07
p2
I1
s.(dp0
Vd9qnt9p
p1
I1
sVcyidh07
p2
I1
s.(dp0
Vd9qnt9p
p1
I1
sVcyidh07
p2
I1
s.(dp0
Vcyidh07
p1
I1
sVd9vnnbj
p2
I1
s.(dp0
Vdatmk0j
p1
I1
sVcyidh07
p2
I1
s.(dp0
Vcyidh07
p1
I1
sVdb4h9fk
p2
I1
s.(dp0
Vdba630y
p1
I1
sVcyidh07
p2
I1
s.(dp0
Vcyidh07
p1
I1
sVdbmpmjd
p2
I1
s.(dp0
Vdbn1l4c
p1
I1
sVcyidh07
p2
I1
s.(dp0
Vdc1gb0f
p1
I1
sVcyidh07
p2
I1
s.(dp0
Vcyidh07
p1
I1
sVdc5iszo
p2
I1
s.(dp0
Vcyidh07
p1
I1
sVdclqrlh
p2
I1
s.(dp0
Vcyidh07
p1
I1
sVdclqrlh
p2
I1
s.(dp0
Vcyidh07
p1
I1
sVdcmoyi7
p2
I1
s.(dp0
Vcyidh07
p1
I1
sVdctdi9m
p2
I1
s.(dp0
Vcyidh07
p1
I1
sVdcvkzws
p2
I1
s.(dp0
Vdcx111v
p1
I1
sVcyidh07
p2
I1
s.(dp0
Vcyidh07
p1
I1
sVdcx8m0y
p2
I1
s.(dp0
Vdcz7oaj
p1
I1
sVcyidh07
p2
I1
s.(dp0
Vdd05z8b
p1
I1
sVcyidh07
p2
I1
s.(dp0
Vdd3p7kz
p1
I1
sVcyidh07
p2
I1
s.(dp0
Vcyidh07
p1
I1
sVdd8ozf9
p2
I1
s.(dp0
Vddfi25r
p1
I1
sVcyidh07
p2
I1
s.(dp0
Vddfi25r
p1
I1
sVcyidh07
p2
I1
s.(dp0
Vddfi25r
p1
I1
sVcyidh07
p2
I1
s.(dp0
Vcyidh07
p1
I1
sVddg5xi3
p2
I1
s.(dp0
Vddha09v
p1
I1
sVcyidh07
p2
I1
s.(dp0
Vddiyjak
p1
I1
sVcyidh07
p2
I1
s.(dp0
Vcyidh07
p1
I1
sVddkuyut
p2
I1
s.(dp0
Vcyidh07
p1
I1
sVddo3l86
p2
I1
s.(dp0
Vddokg9m
p1
I1
sVcyidh07
p2
I1
s.(dp0
Vddp517s
p1
I1
sVcyidh07
p2
I1
s.(dp0
Vddw8gxf
p1
I1
sVcyidh07
p2
I1
s.(dp0
Vdd(dp0
Vcyidh07
p1
I1
sVdkzbty4
p2
I1
s.