(dp0
Vcyrhaou
p1
I1
s.(dp0
Vcyrhaou
p1
I1
sVd06fuor
p2
I1
s.(dp0
Vcyrhaou
p1
I1
sVd4bsh9u
p2
I1
s.(dp0
Vcyrhaou
p1
I1
sVd74xrjo
p2
I1
s.(dp0
Vcyrhaou
p1
I1
sVdghrx3s
p2
I1
s.(dp0
Vcyrhaou
p1
I1
sVdhc1md2
p2
I1
s.