(dp0
Vcylez7p
p1
I1
s.(dp0
Vcylez7p
p1
I1
sVcyow7u8
p2
I1
s.(dp0
Vczqghqo
p1
I1
sVcylez7p
p2
I1
s.(dp0
Vcylez7p
p1
I1
sVczsc0zw
p2
I1
s.(dp0
Vd06kz4l
p1
I1
sVcylez7p
p2
I1
s.(dp0
Vd07lbvm
p1
I1
sVcylez7p
p2
I1
s.(dp0
Vd0lisuh
p1
I1
sVcylez7p
p2
I1
s.(dp0
Vd0m4cxi
p1
I1
sVcylez7p
p2
I1
s.(dp0
Vcylez7p
p1
I1
sVd0vqbz7
p2
I1
s.(dp0
Vcylez7p
p1
I1
sVd15eecq
p2
I1
s.(dp0
Vcylez7p
p1
I1
sVd1r6yyd
p2
I1
s.(dp0
Vd2bpjug
p1
I1
sVcylez7p
p2
I1
s.(dp0
Vcylez7p
p1
I1
sVd4ph413
p2
I1
s.(dp0
Vcylez7p
p1
I1
sVd59yvkf
p2
I1
s.(dp0
Vd7s5bn0
p1
I1
sVcylez7p
p2
I1
s.(dp0
Vcylez7p
p1
I1
sVd8ez6d1
p2
I1
s.(dp0
Vdae79az
p1
I1
sVcylez7p
p2
I1
s.(dp0
Vdb2muic
p1
I1
sVcylez7p
p2
I1
s.(dp0
Vdbdvlm9
p1
I1
sVcylez7p
p2
I1
s.(dp0
Vcylez7p
p1
I1
sVdbixlsb
p2
I1
s.(dp0
Vcylez7p
p1
I1
sVdci0la3
p2
I1
s.(dp0
Vcylez7p
p1
I1
sVdci0la3
p2
I1
s.(dp0
Vdcptvv6
p1
I1
sVcylez7p
p2
I1
s.(dp0
Vcylez7p
p1
I1
sVdddsnjk
p2
I1
s.(dp0
Vcylez7p
p1
I1
sVddthg7j
p2
I1
s.(dp0
Vcylez7p
p1
I1
sVddthg7j
p2
I1
s.(dp0
Vcylez7p
p1
I1
sVde8puth
p2
I1
s.(dp0
Vcylez7p
p1
I1
sVderx04d
p2
I1
s.(dp0
Vcylez7p
p1
I1
sVdfrqddd
p2
I1
s.(dp0
Vcylez7p
p1
I1
sVdfrqddd
p2
I1
s.(dp0
Vcylez7p
p1
I1
sVdj90pgh
p2
I1
s.(dp0
Vcylez7p
p1
I1
sVdjzcard
p2
I1
s.(dp0
Vcylez7p
p1
I1
sVdk21dhz
p2
I1
s.