(dp0
Vcyhz9s7
p1
I1
s.(dp0
Vcyhz9s7
p1
I1
sVcyibddw
p2
I1
s.(dp0
Vcyhz9s7
p1
I1
sVcyie1j1
p2
I1
s.(dp0
Vcyiianv
p1
I1
sVcyhz9s7
p2
I1
s.(dp0
Vcyhz9s7
p1
I1
sVcyil4go
p2
I1
s.(dp0
Vcyhz9s7
p1
I1
sVcyirmw5
p2
I1
s.(dp0
Vcyhz9s7
p1
I1
sVcyirmw5
p2
I1
s.(dp0
Vcyiszge
p1
I1
sVcyhz9s7
p2
I1
s.(dp0
Vcyivi8a
p1
I1
sVcyhz9s7
p2
I1
s.(dp0
Vcyivi8a
p1
I1
sVcyhz9s7
p2
I1
s.(dp0
Vcyixgez
p1
I1
sVcyhz9s7
p2
I1
s.(dp0
Vcyhz9s7
p1
I1
sVcyj03v7
p2
I1
s.(dp0
Vcyhz9s7
p1
I1
sVcyj0r4u
p2
I1
s.(dp0
Vcyhz9s7
p1
I1
sVcyj2qmw
p2
I1
s.(dp0
Vcyhz9s7
p1
I1
sVcyj4ekn
p2
I1
s.(dp0
Vcyhz9s7
p1
I1
sVcyj4oi2
p2
I1
s.(dp0
Vcyhz9s7
p1
I1
sVcyjbadl
p2
I1
s.(dp0
Vcyhz9s7
p1
I1
sVcyjbadl
p2
I1
s.(dp0
Vcyhz9s7
p1
I1
sVcyjcp8c
p2
I1
s.(dp0
Vcyhz9s7
p1
I1
sVcyjcuzn
p2
I1
s.(dp0
Vcyhz9s7
p1
I1
sVcyjcwbs
p2
I1
s.(dp0
Vcyjd0u3
p1
I1
sVcyhz9s7
p2
I1
s.(dp0
Vcyjd6k6
p1
I1
sVcyhz9s7
p2
I1
s.(dp0
Vcyhz9s7
p1
I1
sVcyjdu0x
p2
I1
s.(dp0
Vcyhz9s7
p1
I1
sVcyjf5ub
p2
I1
s.(dp0
Vcyhz9s7
p1
I1
sVcyjfkxc
p2
I1
s.(dp0
Vcyhz9s7
p1
I1
sVcyjgpib
p2
I1
s.(dp0
Vcyjheo8
p1
I1
sVcyhz9s7
p2
I1
s.(dp0
Vcyhz9s7
p1
I1
sVcyjhm7c
p2
I1
s.(dp0
Vcyhz9s7
p1
I1
sVcyjpx9f
p2
I1
s.(dp0
Vcyhz9s7
p1
I1
sVcyjqavs
p2
I1
s.(dp0
Vcyhz9s7
p1
I1
sVcyjrcyq
p2
I1
s.(dp0
Vcyhz9s7
p1
I1
sVcyjso6h
p2
I1
s.(dp0
Vcyjtyga
p1
I1
sVcyhz9s7
p2
I1
s.(dp0
Vcyhz9s7
p1
I1
sVcyjub0w
p2
I1
s.(dp0
Vcyhz9s7
p1
I1
sVcyjujml
p2
I1
s.(dp0
Vcyhz9s7
p1
I1
sVcyjv5pm
p2
I1
s.(dp0
Vcyhz9s7
p1
I1
sVcyjvqxk
p2
I1
s.(dp0
Vcyhz9s7
p1
I1
sVcyjvsst
p2
I1
s.(dp0
Vcyhz9s7
p1
I1
sVcyjzk83
p2
I1
s.(dp0
Vcyhz9s7
p1
I1
sVcyk0180
p2
I1
s.(dp0
Vcyhz9s7
p1
I1
sVcykj6nb
p2
I1
s.(dp0
Vcyhz9s7
p1
I1
sVcykj6nb
p2
I1
s.(dp0
Vcyhz9s7
p1
I1
sVcykj6nb
p2
I1
s.(dp0
Vcykjrdp
p1
I1
sVcyhz9s7
p2
I1
s.(dp0
Vcykk04u
p1
I1
sVcyhz9s7
p2
I1
s.(dp0
Vcyhz9s7
p1
I1
sVcykow5f
p2
I1
s.(dp0
Vcyhz9s7
p1
I1
sVcykptec
p2
I1
s.(dp0
Vcyhz9s7
p1
I1
sVcykqzwk
p2
I1
s.(dp0
Vcykw1s1
p1
I1
sVcyhz9s7
p2
I1
s.(dp0
Vcyhz9s7
p1
I1
sVcykwl8n
p2
I1
s.(dp0
Vcyhz9s7
p1
I1
sVcyl2xxy
p2
I1
s.(dp0
Vcyhz9s7
p1
I1
sVcyl62hi
p2
I1
s.(dp0
Vcyhz9s7
p1
I1
sVcyla00w
p2
I1
s.(dp0
Vcyhz9s7
p1
I1
sVcyli5p1
p2
I1
s.(dp0
Vcyhz9s7
p1
I1
sVcyli8k7
p2
I1
s.(dp0
Vcyhz9s7
p1
I1
sVcylicql
p2
I1
s.(dp0
Vcylicze
p1
I1
sVcyhz9s7
p2
I1
s.(dp0
Vcyhz9s7
p1
I1
sVcyloahc
p2
I1
s.(dp0
Vcyhz9s7
p1
I1
sVcylowpu
p2
I1
s.(dp0
Vcyhz9s7
p1
I1
sVcylpv0n
p2
I1
s.(dp0
Vcylr65t
p1
I1
sVcyhz9s7
p2
I1
s.(dp0
Vcyhz9s7
p1
I1
sVcylxad9
p2
I1
s.(dp0
Vcyhz9s7
p1
I1
sVcylz2m4
p2
I1
s.(dp0
Vcyhz9s7
p1
I1
sVcym529j
p2
I1
s.(dp0
Vcyhz9s7
p1
I1
sVcym8cw3
p2
I1
s.(dp0
Vcyhz9s7
p1
I1
sVcym94r5
p2
I1
s.(dp0
Vcymc7yw
p1
I1
sVcyhz9s7
p2
I1
s.(dp0
Vcyhz9s7
p1
I1
sVcymf4wl
p2
I1
s.(dp0
Vcyml17k
p1
I1
sVcyhz9s7
p2
I1
s.(dp0
Vcyhz9s7
p1
I1
sVcymnqxq
p2
I1
s.(dp0
Vcyhz9s7
p1
I1
sVcymto87
p2
I1
s.(dp0
Vcyhz9s7
p1
I1
sVcymvmzl
p2
I1
s.(dp0
Vcyhz9s7
p1
I1
sVcymyi2b
p2
I1
s.(dp0
Vcyhz9s7
p1
I1
sVcymyi2b
p2
I1
s.(dp0
Vcyhz9s7
p1
I1
sVcyn9ki4
p2
I1
s.(dp0
Vcyhz9s7
p1
I1
sVcyndbuf
p2
I1
s.(dp0
Vcyhz9s7
p1
I1
sVcynj1x5
p2
I1
s.(dp0
Vcyhz9s7
p1
I1
sVcynkusy
p2
I1
s.(dp0
Vcyhz9s7
p1
I1
sVcynlt5n
p2
I1
s.(dp0
Vcyhz9s7
p1
I1
sVcynmwf0
p2
I1
s.(dp0
Vcyhz9s7
p1
I1
sVcynnrcq
p2
I1
s.(dp0
Vcyhz9s7
p1
I1
sVcynnxi2
p2
I1
s.(dp0
Vcyhz9s7
p1
I1
sVcynonz7
p2
I1
s.(dp0
Vcyhz9s7
p1
I1
sVcynsojw
p2
I1
s.(dp0
Vcynva59
p1
I1
sVcyhz9s7
p2
I1
s.(dp0
Vcyhz9s7
p1
I1
sVcyo1hxo
p2
I1
s.(dp0
Vcyhz9s7
p1
I1
sVcyobcpg
p2
I1
s.(dp0
Vcyhz9s7
p1
I1
sVcyocqzx
p2
I1
s.(dp0
Vcyhz9s7
p1
I1
sVcyoekpp
p2
I1
s.(dp0
Vcyolnj1
p1
I1
sVcyhz9s7
p2
I1
s.(dp0
Vcyopj5x
p1
I1
sVcyhz9s7
p2
I1
s.(dp0
Vcyhz9s7
p1
I1
sVcyozymb
p2
I1
s.(dp0
Vcyhz9s7
p1
I1
sVcyp0muo
p2
I1
s.(dp0
Vcyhz9s7
p1
I1
sVcyp0muo
p2
I1
s.(dp0
Vcyhz9s7
p1
I1
sVcyp3f1d
p2
I1
s.(dp0
Vcyhz9s7
p1
I1
sVcyp3f90
p2
I1
s.(dp0
Vcyhz9s7
p1
I1
sVcyp5acq
p2
I1
s.(dp0
Vcyhz9s7
p1
I1
sVcyp71bj
p2
I1
s.(dp0
Vcyhz9s7
p1
I1
sVcyp9lbo
p2
I1
s.(dp0
Vcyhz9s7
p1
I1
sVcypccz6
p2
I1
s.(dp0
Vcypevs7
p1
I1
sVcyhz9s7
p2
I1
s.(dp0
Vcyhz9s7
p1
I1
sVcypivyn
p2
I1
s.(dp0
Vcypjm53
p1
I1
sVcyhz9s7
p2
I1
s.(dp0
Vcyhz9s7
p1
I1
sVcypkjhw
p2
I1
s.(dp0
Vcyhz9s7
p1
I1
sVcypl21t
p2
I1
s.(dp0
Vcyhz9s7
p1
I1
sVcypln20
p2
I1
s.(dp0
Vcyhz9s7
p1
I1
sVcypplxv
p2
I1
s.(dp0
Vcy(dp0
Vcyhz9s7
p1
I1
sVdp5vb8p
p2
I1
s.