(dp0
Vd0wf59w
p1
I1
s.(dp0
Vd0wf59w
p1
I1
sVd3zl2jz
p2
I1
s.(dp0
Vd0wf59w
p1
I1
sVd6hoorn
p2
I1
s.(dp0
Vd0wf59w
p1
I1
sVddjausx
p2
I1
s.(dp0
Vddnbfwx
p1
I1
sVd0wf59w
p2
I1
s.(dp0
Vdekwv0u
p1
I1
sVd0wf59w
p2
I1
s.(dp0
Vd0wf59w
p1
I1
sVdj7wjvz
p2
I1
s.