(dp0
Vcyidhp6
p1
I1
s.(dp0
Vcyidhp6
p1
I1
sVcyj9y53
p2
I1
s.(dp0
Vcyidhp6
p1
I1
sVcympd3h
p2
I1
s.(dp0
Vcytjfiz
p1
I1
sVcyidhp6
p2
I1
s.(dp0
Vcyidhp6
p1
I1
sVcz0ha91
p2
I1
s.(dp0
Vcyidhp6
p1
I1
sVcz0prbc
p2
I1
s.(dp0
Vcyidhp6
p1
I1
sVcz0prbc
p2
I1
s.(dp0
Vcz136iy
p1
I1
sVcyidhp6
p2
I1
s.(dp0
Vcz136iy
p1
I1
sVcyidhp6
p2
I1
s.(dp0
Vcz136iy
p1
I1
sVcyidhp6
p2
I1
s.(dp0
Vcz1fnpg
p1
I1
sVcyidhp6
p2
I1
s.(dp0
Vcz1gvuw
p1
I1
sVcyidhp6
p2
I1
s.(dp0
Vcz22f48
p1
I1
sVcyidhp6
p2
I1
s.(dp0
Vcz22f48
p1
I1
sVcyidhp6
p2
I1
s.(dp0
Vcz22fb8
p1
I1
sVcyidhp6
p2
I1
s.(dp0
Vczgm0bx
p1
I1
sVcyidhp6
p2
I1
s.(dp0
Vcyidhp6
p1
I1
sVczgzhem
p2
I1
s.(dp0
Vczh5s8g
p1
I1
sVcyidhp6
p2
I1
s.(dp0
Vcyidhp6
p1
I1
sVczrds73
p2
I1
s.(dp0
Vcyidhp6
p1
I1
sVczrds73
p2
I1
s.(dp0
Vcyidhp6
p1
I1
sVczszr9i
p2
I1
s.(dp0
Vcyidhp6
p1
I1
sVczvr9kl
p2
I1
s.(dp0
Vcyidhp6
p1
I1
sVczzkra6
p2
I1
s.(dp0
Vcyidhp6
p1
I1
sVd00hhga
p2
I1
s.(dp0
Vcyidhp6
p1
I1
sVd00hhga
p2
I1
s.(dp0
Vcyidhp6
p1
I1
sVd00hhga
p2
I1
s.(dp0
Vcyidhp6
p1
I1
sVd00hhga
p2
I1
s.(dp0
Vcyidhp6
p1
I1
sVd00hhga
p2
I1
s.(dp0
Vcyidhp6
p1
I1
sVd00hhga
p2
I1
s.(dp0
Vcyidhp6
p1
I1
sVd00hhga
p2
I1
s.(dp0
Vcyidhp6
p1
I1
sVd00hhga
p2
I1
s.(dp0
Vcyidhp6
p1
I1
sVd00hhga
p2
I1
s.(dp0
Vd01n58z
p1
I1
sVcyidhp6
p2
I1
s.(dp0
Vcyidhp6
p1
I1
sVd03w7k1
p2
I1
s.(dp0
Vcyidhp6
p1
I1
sVd03w7k1
p2
I1
s.(dp0
Vd04uhac
p1
I1
sVcyidhp6
p2
I1
s.(dp0
Vd076n84
p1
I1
sVcyidhp6
p2
I1
s.(dp0
Vd09mmkb
p1
I1
sVcyidhp6
p2
I1
s.(dp0
Vd0dkj0u
p1
I1
sVcyidhp6
p2
I1
s.(dp0
Vcyidhp6
p1
I1
sVd0ggx0h
p2
I1
s.(dp0
Vd0gwl79
p1
I1
sVcyidhp6
p2
I1
s.(dp0
Vd0i268t
p1
I1
sVcyidhp6
p2
I1
s.(dp0
Vd0i268t
p1
I1
sVcyidhp6
p2
I1
s.(dp0
Vcyidhp6
p1
I1
sVd0j6qix
p2
I1
s.(dp0
Vd0og8bb
p1
I1
sVcyidhp6
p2
I1
s.(dp0
Vd0ue4t9
p1
I1
sVcyidhp6
p2
I1
s.(dp0
Vd13ke96
p1
I1
sVcyidhp6
p2
I1
s.(dp0
Vd13ke96
p1
I1
sVcyidhp6
p2
I1
s.(dp0
Vd16c3mz
p1
I1
sVcyidhp6
p2
I1
s.(dp0
Vd16d4ic
p1
I1
sVcyidhp6
p2
I1
s.(dp0
Vd16ggff
p1
I1
sVcyidhp6
p2
I1
s.(dp0
Vd171lx2
p1
I1
sVcyidhp6
p2
I1
s.(dp0
Vcyidhp6
p1
I1
sVd18s94g
p2
I1
s.(dp0
Vd191mv3
p1
I1
sVcyidhp6
p2
I1
s.(dp0
Vd1bq3jd
p1
I1
sVcyidhp6
p2
I1
s.(dp0
Vd1btbdz
p1
I1
sVcyidhp6
p2
I1
s.(dp0
Vd1btyby
p1
I1
sVcyidhp6
p2
I1
s.(dp0
Vcyidhp6
p1
I1
sVd1bw4io
p2
I1
s.(dp0
Vd1fse15
p1
I1
sVcyidhp6
p2
I1
s.(dp0
Vcyidhp6
p1
I1
sVd1h53y2
p2
I1
s.(dp0
Vcyidhp6
p1
I1
sVd1h53y2
p2
I1
s.(dp0
Vcyidhp6
p1
I1
sVd1h53y2
p2
I1
s.(dp0
Vcyidhp6
p1
I1
sVd1kx6pp
p2
I1
s.(dp0
Vcyidhp6
p1
I1
sVd1kx6pp
p2
I1
s.(dp0
Vd1ppm9k
p1
I1
sVcyidhp6
p2
I1
s.(dp0
Vd1qots3
p1
I1
sVcyidhp6
p2
I1
s.(dp0
Vcyidhp6
p1
I1
sVd1u9xvk
p2
I1
s.(dp0
Vd1uhucn
p1
I1
sVcyidhp6
p2
I1
s.(dp0
Vd1v1jzu
p1
I1
sVcyidhp6
p2
I1
s.(dp0
Vcyidhp6
p1
I1
sVd1x00u8
p2
I1
s.(dp0
Vd1x0nun
p1
I1
sVcyidhp6
p2
I1
s.(dp0
Vd1xlk4q
p1
I1
sVcyidhp6
p2
I1
s.(dp0
Vd1xlk4q
p1
I1
sVcyidhp6
p2
I1
s.(dp0
Vd1xlk4q
p1
I1
sVcyidhp6
p2
I1
s.(dp0
Vd1xlk4q
p1
I1
sVcyidhp6
p2
I1
s.(dp0
Vd228d9q
p1
I1
sVcyidhp6
p2
I1
s.(dp0
Vcyidhp6
p1
I1
sVd2amhu3
p2
I1
s.(dp0
Vd2b5xjn
p1
I1
sVcyidhp6
p2
I1
s.(dp0
Vd2b5xjn
p1
I1
sVcyidhp6
p2
I1
s.(dp0
Vd2gcjad
p1
I1
sVcyidhp6
p2
I1
s.(dp0
Vd34abpj
p1
I1
sVcyidhp6
p2
I1
s.(dp0
Vcyidhp6
p1
I1
sVd3gz66j
p2
I1
s.(dp0
Vd3ie1hl
p1
I1
sVcyidhp6
p2
I1
s.(dp0
Vd3nnm4q
p1
I1
sVcyidhp6
p2
I1
s.(dp0
Vd3rrykz
p1
I1
sVcyidhp6
p2
I1
s.(dp0
Vd3wvnhz
p1
I1
sVcyidhp6
p2
I1
s.(dp0
Vcyidhp6
p1
I1
sVd3y0gw3
p2
I1
s.(dp0
Vd4848ul
p1
I1
sVcyidhp6
p2
I1
s.(dp0
Vcyidhp6
p1
I1
sVd4h5ee9
p2
I1
s.(dp0
Vcyidhp6
p1
I1
sVd4h5ee9
p2
I1
s.(dp0
Vd4jvas4
p1
I1
sVcyidhp6
p2
I1
s.(dp0
Vcyidhp6
p1
I1
sVd4k6s39
p2
I1
s.(dp0
Vcyidhp6
p1
I1
sVd4r5wrx
p2
I1
s.(dp0
Vcyidhp6
p1
I1
sVd4rpodp
p2
I1
s.(dp0
Vcyidhp6
p1
I1
sVd4rpodp
p2
I1
s.(dp0
Vcyidhp6
p1
I1
sVd4rpodp
p2
I1
s.(dp0
Vcyidhp6
p1
I1
sVd4rpodp
p2
I1
s.(dp0
Vcyidhp6
p1
I1
sVd4xek1m
p2
I1
s.(dp0
Vd4yy4lh
p1
I1
sVcyidhp6
p2
I1
s.(dp0
Vcyidhp6
p1
I1
sVd512xvt
p2
I1
s.(dp0
Vcyidhp6
p1
I1
sVd545jwa
p2
I1
s.(dp0
Vd548yy7
p1
I1
sVcyidhp6
p2
I1
s.(dp0
Vd548yy7
p1
I1
sVcyidhp6
p2
I1
s.(dp0
Vd55fyec
p1
I1
sVcyidhp6
p2
I1
s.(dp0
Vcyidhp6
p1
I1
sVd59f9gf
p2
I1
s.(dp0
Vcyidhp6
p1
I1
sVd59f9gf
p2
I1
s.(dp0
Vcyidhp6
p1
I1
sVd5bhpsq
p2
I1
s.(dp0
Vd5eyyto
p1
I1
sVcyidhp6
p2
I1
s.(dp0
Vd5(dp0
Vdknoxun
p1
I1
sVcyidhp6
p2
I1
s.