(dp0
Vcypbd0a
p1
I1
s.(dp0
Vcypbd0a
p1
I1
sVd18bc19
p2
I1
s.(dp0
Vd1c9485
p1
I1
sVcypbd0a
p2
I1
s.(dp0
Vd1mgtx2
p1
I1
sVcypbd0a
p2
I1
s.(dp0
Vcypbd0a
p1
I1
sVd1o0lj8
p2
I1
s.(dp0
Vd5o9sji
p1
I1
sVcypbd0a
p2
I1
s.(dp0
Vd5xeyal
p1
I1
sVcypbd0a
p2
I1
s.(dp0
Vd65fzqk
p1
I1
sVcypbd0a
p2
I1
s.(dp0
Vd6hpmio
p1
I1
sVcypbd0a
p2
I1
s.(dp0
Vd6hzq4j
p1
I1
sVcypbd0a
p2
I1
s.(dp0
Vd8xcm28
p1
I1
sVcypbd0a
p2
I1
s.(dp0
Vcypbd0a
p1
I1
sVda7gluk
p2
I1
s.(dp0
Vcypbd0a
p1
I1
sVddc2ntk
p2
I1
s.(dp0
Vdgjh47y
p1
I1
sVcypbd0a
p2
I1
s.(dp0
Vdgk2quy
p1
I1
sVcypbd0a
p2
I1
s.(dp0
Vdgzywph
p1
I1
sVcypbd0a
p2
I1
s.(dp0
Vcypbd0a
p1
I1
sVdhslbby
p2
I1
s.(dp0
Vcypbd0a
p1
I1
sVdj46gpq
p2
I1
s.(dp0
Vcypbd0a
p1
I1
sVdj8zvym
p2
I1
s.(dp0
Vdminb63
p1
I1
sVcypbd0a
p2
I1
s.(dp0
Vcypbd0a
p1
I1
sVdmos7xp
p2
I1
s.(dp0
Vcypbd0a
p1
I1
sVdmwp0a7
p2
I1
s.(dp0
Vcypbd0a
p1
I1
sVdn8ddtx
p2
I1
s.