(dp0
Vcyk1fqi
p1
I1
s.(dp0
Vcykbm4w
p1
I1
sVcyk1fqi
p2
I1
s.(dp0
Vcykcear
p1
I1
sVcyk1fqi
p2
I1
s.(dp0
Vcz4xdfz
p1
I1
sVcyk1fqi
p2
I1
s.(dp0
Vcz99tni
p1
I1
sVcyk1fqi
p2
I1
s.(dp0
Vczbpjk0
p1
I1
sVcyk1fqi
p2
I1
s.(dp0
Vczdf1el
p1
I1
sVcyk1fqi
p2
I1
s.(dp0
Vczdf1el
p1
I1
sVcyk1fqi
p2
I1
s.(dp0
Vczdf1el
p1
I1
sVcyk1fqi
p2
I1
s.(dp0
Vcztsjox
p1
I1
sVcyk1fqi
p2
I1
s.(dp0
Vcztsjox
p1
I1
sVcyk1fqi
p2
I1
s.(dp0
Vcztsjox
p1
I1
sVcyk1fqi
p2
I1
s.(dp0
Vcztsjox
p1
I1
sVcyk1fqi
p2
I1
s.(dp0
Vczzgv06
p1
I1
sVcyk1fqi
p2
I1
s.(dp0
Vd00wp5m
p1
I1
sVcyk1fqi
p2
I1
s.(dp0
Vd08az44
p1
I1
sVcyk1fqi
p2
I1
s.(dp0
Vd08xwfr
p1
I1
sVcyk1fqi
p2
I1
s.(dp0
Vd0jh4t8
p1
I1
sVcyk1fqi
p2
I1
s.(dp0
Vd0lntqk
p1
I1
sVcyk1fqi
p2
I1
s.(dp0
Vd15jmri
p1
I1
sVcyk1fqi
p2
I1
s.(dp0
Vd1sisxv
p1
I1
sVcyk1fqi
p2
I1
s.(dp0
Vd1uyi6l
p1
I1
sVcyk1fqi
p2
I1
s.(dp0
Vd26sgdq
p1
I1
sVcyk1fqi
p2
I1
s.(dp0
Vd26sgdq
p1
I1
sVcyk1fqi
p2
I1
s.(dp0
Vd399m5w
p1
I1
sVcyk1fqi
p2
I1
s.(dp0
Vd3um9uw
p1
I1
sVcyk1fqi
p2
I1
s.(dp0
Vd3vx4k8
p1
I1
sVcyk1fqi
p2
I1
s.(dp0
Vd3xwqk9
p1
I1
sVcyk1fqi
p2
I1
s.(dp0
Vd5cop7i
p1
I1
sVcyk1fqi
p2
I1
s.(dp0
Vd5cop7i
p1
I1
sVcyk1fqi
p2
I1
s.(dp0
Vd5mke8w
p1
I1
sVcyk1fqi
p2
I1
s.(dp0
Vd5ybxcy
p1
I1
sVcyk1fqi
p2
I1
s.(dp0
Vd5ybxcy
p1
I1
sVcyk1fqi
p2
I1
s.(dp0
Vd5ybxcy
p1
I1
sVcyk1fqi
p2
I1
s.(dp0
Vd69p8hv
p1
I1
sVcyk1fqi
p2
I1
s.(dp0
Vd6mdhf7
p1
I1
sVcyk1fqi
p2
I1
s.(dp0
Vd6oyirs
p1
I1
sVcyk1fqi
p2
I1
s.(dp0
Vd8uzkvv
p1
I1
sVcyk1fqi
p2
I1
s.(dp0
Vd8uzkvv
p1
I1
sVcyk1fqi
p2
I1
s.(dp0
Vd8uzkvv
p1
I1
sVcyk1fqi
p2
I1
s.(dp0
Vd9fypvv
p1
I1
sVcyk1fqi
p2
I1
s.(dp0
Vd9fypvv
p1
I1
sVcyk1fqi
p2
I1
s.(dp0
Vd9vfnxl
p1
I1
sVcyk1fqi
p2
I1
s.(dp0
Vdbo451x
p1
I1
sVcyk1fqi
p2
I1
s.(dp0
Vdbtzbch
p1
I1
sVcyk1fqi
p2
I1
s.(dp0
Vdbtzbch
p1
I1
sVcyk1fqi
p2
I1
s.(dp0
Vdclzjaz
p1
I1
sVcyk1fqi
p2
I1
s.(dp0
Vdclzral
p1
I1
sVcyk1fqi
p2
I1
s.(dp0
Vdcm039m
p1
I1
sVcyk1fqi
p2
I1
s.(dp0
Vdcs8a1g
p1
I1
sVcyk1fqi
p2
I1
s.(dp0
Vdcs8a1g
p1
I1
sVcyk1fqi
p2
I1
s.(dp0
Vdcs8a1g
p1
I1
sVcyk1fqi
p2
I1
s.(dp0
Vddoiqth
p1
I1
sVcyk1fqi
p2
I1
s.(dp0
Vddoiqth
p1
I1
sVcyk1fqi
p2
I1
s.(dp0
Vddoiqth
p1
I1
sVcyk1fqi
p2
I1
s.(dp0
Vdec9vgb
p1
I1
sVcyk1fqi
p2
I1
s.(dp0
Vdeh02tw
p1
I1
sVcyk1fqi
p2
I1
s.(dp0
Vdeh02tw
p1
I1
sVcyk1fqi
p2
I1
s.(dp0
Vdemdmxj
p1
I1
sVcyk1fqi
p2
I1
s.(dp0
Vdeotlch
p1
I1
sVcyk1fqi
p2
I1
s.(dp0
Vdeounhf
p1
I1
sVcyk1fqi
p2
I1
s.(dp0
Vdf3s2xd
p1
I1
sVcyk1fqi
p2
I1
s.(dp0
Vdfxp5qd
p1
I1
sVcyk1fqi
p2
I1
s.(dp0
Vdgy8wtg
p1
I1
sVcyk1fqi
p2
I1
s.(dp0
Vdi52bb0
p1
I1
sVcyk1fqi
p2
I1
s.(dp0
Vdi56ayz
p1
I1
sVcyk1fqi
p2
I1
s.(dp0
Vdi56ayz
p1
I1
sVcyk1fqi
p2
I1
s.(dp0
Vdi5bf9y
p1
I1
sVcyk1fqi
p2
I1
s.(dp0
Vdj0tj9l
p1
I1
sVcyk1fqi
p2
I1
s.(dp0
Vdjbl2jc
p1
I1
sVcyk1fqi
p2
I1
s.(dp0
Vdkb9m5m
p1
I1
sVcyk1fqi
p2
I1
s.