(dp0
Vczyo3cm
p1
I1
s.(dp0
Vczyo3cm
p1
I2
s.(dp0
Vczyo3cm
p1
I1
sVd1bojnn
p2
I1
s.(dp0
Vczyo3cm
p1
I1
sVd1bt9dd
p2
I1
s.(dp0
Vd224ji6
p1
I1
sVczyo3cm
p2
I1
s.(dp0
Vczyo3cm
p1
I1
sVd23duwf
p2
I1
s.(dp0
Vczyo3cm
p1
I1
sVd3mlxlv
p2
I1
s.(dp0
Vczyo3cm
p1
I1
sVd7x16dj
p2
I1
s.(dp0
Vczyo3cm
p1
I1
sVda8nhh2
p2
I1
s.(dp0
Vczyo3cm
p1
I1
sVdbi9wqf
p2
I1
s.(dp0
Vdbwv237
p1
I1
sVczyo3cm
p2
I1
s.(dp0
Vczyo3cm
p1
I1
sVdbwz3h8
p2
I1
s.(dp0
Vczyo3cm
p1
I1
sVdc2mdie
p2
I1
s.(dp0
Vczyo3cm
p1
I1
sVdcju86b
p2
I1
s.(dp0
Vddld5kk
p1
I1
sVczyo3cm
p2
I1
s.(dp0
Vddld5kk
p1
I1
sVczyo3cm
p2
I1
s.(dp0
Vczyo3cm
p1
I1
sVdedogv7
p2
I1
s.(dp0
Vczyo3cm
p1
I1
sVdjsl6au
p2
I1
s.(dp0
Vdkg8463
p1
I1
sVczyo3cm
p2
I1
s.(dp0
Vczyo3cm
p1
I1
sVdmy74rx
p2
I1
s.(dp0
Vczyo3cm
p1
I1
sVdn5zy5d
p2
I1
s.