(dp0
Vcyjnvec
p1
I1
s.(dp0
Vcyjnvec
p1
I1
sVcyjnvpt
p2
I1
s.(dp0
Vcyjnvec
p1
I1
sVcyjsrxt
p2
I1
s.(dp0
Vcyjnvec
p1
I1
sVcypa8x6
p2
I1
s.(dp0
Vcyjnvec
p1
I1
sVcyy5llf
p2
I1
s.(dp0
Vcyjnvec
p1
I1
sVcz0j05u
p2
I1
s.(dp0
Vcyjnvec
p1
I1
sVczd113x
p2
I1
s.(dp0
Vcyjnvec
p1
I1
sVczdkghg
p2
I1
s.(dp0
Vcyjnvec
p1
I1
sVczdkghg
p2
I1
s.(dp0
Vcyjnvec
p1
I1
sVczhz4ee
p2
I1
s.(dp0
Vczmzafj
p1
I1
sVcyjnvec
p2
I1
s.(dp0
Vcyjnvec
p1
I1
sVd015c7q
p2
I1
s.(dp0
Vcyjnvec
p1
I1
sVd015c7q
p2
I1
s.(dp0
Vcyjnvec
p1
I1
sVd03l3sc
p2
I1
s.(dp0
Vcyjnvec
p1
I1
sVd04at8g
p2
I1
s.(dp0
Vcyjnvec
p1
I1
sVd08w087
p2
I1
s.(dp0
Vcyjnvec
p1
I1
sVd0w3nz8
p2
I1
s.(dp0
Vd1dutyd
p1
I1
sVcyjnvec
p2
I1
s.(dp0
Vcyjnvec
p1
I1
sVd1fnvmj
p2
I1
s.(dp0
Vcyjnvec
p1
I1
sVd1smiam
p2
I1
s.(dp0
Vcyjnvec
p1
I1
sVd20as28
p2
I1
s.(dp0
Vcyjnvec
p1
I1
sVd20as28
p2
I1
s.(dp0
Vcyjnvec
p1
I1
sVd25628x
p2
I1
s.(dp0
Vcyjnvec
p1
I1
sVd29j9ek
p2
I1
s.(dp0
Vcyjnvec
p1
I1
sVd29j9ek
p2
I1
s.(dp0
Vcyjnvec
p1
I1
sVd2afpre
p2
I1
s.(dp0
Vcyjnvec
p1
I1
sVd2aj37q
p2
I1
s.(dp0
Vcyjnvec
p1
I1
sVd2raj9m
p2
I1
s.(dp0
Vcyjnvec
p1
I1
sVd2raj9m
p2
I1
s.(dp0
Vcyjnvec
p1
I1
sVd2rax7x
p2
I1
s.(dp0
Vcyjnvec
p1
I1
sVd35aq0f
p2
I1
s.(dp0
Vcyjnvec
p1
I1
sVd35aq0f
p2
I1
s.(dp0
Vd36433j
p1
I1
sVcyjnvec
p2
I1
s.(dp0
Vcyjnvec
p1
I1
sVd38y9dv
p2
I1
s.(dp0
Vcyjnvec
p1
I1
sVd38y9dv
p2
I1
s.(dp0
Vcyjnvec
p1
I1
sVd38y9dv
p2
I1
s.(dp0
Vcyjnvec
p1
I1
sVd3x0ngt
p2
I1
s.(dp0
Vcyjnvec
p1
I1
sVd47tc83
p2
I1
s.(dp0
Vd4ar2pf
p1
I1
sVcyjnvec
p2
I1
s.(dp0
Vcyjnvec
p1
I1
sVd4qhrsm
p2
I1
s.(dp0
Vcyjnvec
p1
I1
sVd4qhrsm
p2
I1
s.(dp0
Vcyjnvec
p1
I1
sVd4qhrsm
p2
I1
s.(dp0
Vcyjnvec
p1
I1
sVd55to4x
p2
I1
s.(dp0
Vd5qded8
p1
I1
sVcyjnvec
p2
I1
s.(dp0
Vcyjnvec
p1
I1
sVd60ujiw
p2
I1
s.(dp0
Vcyjnvec
p1
I1
sVd60ujiw
p2
I1
s.(dp0
Vcyjnvec
p1
I1
sVd60ujiw
p2
I1
s.(dp0
Vcyjnvec
p1
I1
sVd60ujiw
p2
I1
s.(dp0
Vcyjnvec
p1
I1
sVd6biqpp
p2
I1
s.(dp0
Vcyjnvec
p1
I1
sVd6y1jfi
p2
I1
s.(dp0
Vcyjnvec
p1
I1
sVd8j36ld
p2
I1
s.(dp0
Vcyjnvec
p1
I1
sVd8j36ld
p2
I1
s.(dp0
Vcyjnvec
p1
I1
sVd8j36ld
p2
I1
s.(dp0
Vcyjnvec
p1
I1
sVd99dpki
p2
I1
s.(dp0
Vcyjnvec
p1
I1
sVd9gmczt
p2
I1
s.(dp0
Vcyjnvec
p1
I1
sVdbzchr9
p2
I1
s.(dp0
Vcyjnvec
p1
I1
sVdc15l7j
p2
I1
s.(dp0
Vcyjnvec
p1
I1
sVdckzn53
p2
I1
s.(dp0
Vdcvq9j4
p1
I1
sVcyjnvec
p2
I1
s.(dp0
Vcyjnvec
p1
I1
sVdczuvpu
p2
I1
s.(dp0
Vcyjnvec
p1
I1
sVddgoc5c
p2
I1
s.(dp0
Vcyjnvec
p1
I1
sVddrw8j2
p2
I1
s.(dp0
Vcyjnvec
p1
I1
sVddzpzlo
p2
I1
s.(dp0
Vddzwzem
p1
I1
sVcyjnvec
p2
I1
s.(dp0
Vcyjnvec
p1
I1
sVde0dl8i
p2
I1
s.(dp0
Vcyjnvec
p1
I1
sVde8hk99
p2
I1
s.(dp0
Vcyjnvec
p1
I1
sVdemzzt7
p2
I1
s.(dp0
Vcyjnvec
p1
I1
sVdf7swle
p2
I1
s.(dp0
Vcyjnvec
p1
I1
sVdf7swle
p2
I1
s.(dp0
Vcyjnvec
p1
I1
sVdfz2brr
p2
I1
s.(dp0
Vcyjnvec
p1
I1
sVdfz2brr
p2
I1
s.(dp0
Vcyjnvec
p1
I1
sVdfz2brr
p2
I1
s.(dp0
Vcyjnvec
p1
I1
sVdg8lfpn
p2
I1
s.(dp0
Vcyjnvec
p1
I1
sVdhgr6hb
p2
I1
s.(dp0
Vcyjnvec
p1
I1
sVdi9c0i9
p2
I1
s.(dp0
Vcyjnvec
p1
I1
sVdi9c0i9
p2
I1
s.(dp0
Vcyjnvec
p1
I1
sVdibv18v
p2
I1
s.