(dp0
Vczjmrli
p1
I1
s.(dp0
Vczjmrli
p1
I1
sVd1353rl
p2
I1
s.(dp0
Vd1ib4nr
p1
I1
sVczjmrli
p2
I1
s.(dp0
Vczjmrli
p1
I1
sVde8cymi
p2
I1
s.(dp0
Vdifpcwl
p1
I1
sVczjmrli
p2
I1
s.(dp0
Vdifrfk2
p1
I1
sVczjmrli
p2
I1
s.