(dp0
Vcypv7wn
p1
I1
s.(dp0
Vcypv7wn
p1
I1
sVcys8swf
p2
I1
s.(dp0
Vcypv7wn
p1
I1
sVcys8swf
p2
I1
s.(dp0
Vcypv7wn
p1
I1
sVcys8uln
p2
I1
s.(dp0
Vcypv7wn
p1
I1
sVcysf3qi
p2
I1
s.(dp0
Vcypv7wn
p1
I1
sVcyva5xz
p2
I1
s.(dp0
Vcypv7wn
p1
I1
sVcyva5xz
p2
I1
s.(dp0
Vcypv7wn
p1
I1
sVcywyh6k
p2
I1
s.(dp0
Vcypv7wn
p1
I1
sVczguctd
p2
I1
s.(dp0
Vcypv7wn
p1
I1
sVczszgxe
p2
I1
s.(dp0
Vcypv7wn
p1
I1
sVd00zeqy
p2
I1
s.(dp0
Vcypv7wn
p1
I1
sVd04yye5
p2
I1
s.(dp0
Vd0emkv8
p1
I1
sVcypv7wn
p2
I1
s.(dp0
Vcypv7wn
p1
I1
sVd0tca7v
p2
I1
s.(dp0
Vcypv7wn
p1
I1
sVd0tvzpq
p2
I1
s.(dp0
Vcypv7wn
p1
I1
sVd0tvzpq
p2
I1
s.(dp0
Vcypv7wn
p1
I1
sVd0tvzpq
p2
I1
s.(dp0
Vcypv7wn
p1
I1
sVd0tvzpq
p2
I1
s.(dp0
Vcypv7wn
p1
I1
sVd16whe7
p2
I1
s.(dp0
Vcypv7wn
p1
I1
sVd173ivd
p2
I1
s.(dp0
Vcypv7wn
p1
I1
sVd173ivd
p2
I1
s.(dp0
Vcypv7wn
p1
I1
sVd1aufdk
p2
I1
s.(dp0
Vcypv7wn
p1
I1
sVd1fb2pw
p2
I1
s.(dp0
Vcypv7wn
p1
I1
sVd1fb2pw
p2
I1
s.(dp0
Vd1wdo04
p1
I1
sVcypv7wn
p2
I1
s.(dp0
Vd1wdo04
p1
I1
sVcypv7wn
p2
I1
s.(dp0
Vcypv7wn
p1
I1
sVd1wdr1s
p2
I1
s.(dp0
Vcypv7wn
p1
I1
sVd1wdr1s
p2
I1
s.(dp0
Vcypv7wn
p1
I1
sVd1wdr1s
p2
I1
s.(dp0
Vcypv7wn
p1
I1
sVd23lpxw
p2
I1
s.(dp0
Vcypv7wn
p1
I1
sVd244rw8
p2
I1
s.(dp0
Vcypv7wn
p1
I1
sVd250n9p
p2
I1
s.(dp0
Vcypv7wn
p1
I1
sVd34tban
p2
I1
s.(dp0
Vd3b6x60
p1
I1
sVcypv7wn
p2
I1
s.(dp0
Vcypv7wn
p1
I1
sVd4cyad0
p2
I1
s.(dp0
Vcypv7wn
p1
I1
sVd57rer5
p2
I1
s.(dp0
Vcypv7wn
p1
I1
sVd5qx7qt
p2
I1
s.(dp0
Vcypv7wn
p1
I1
sVd5qyf7d
p2
I1
s.(dp0
Vcypv7wn
p1
I1
sVd5rnvik
p2
I1
s.(dp0
Vcypv7wn
p1
I1
sVd5rnvik
p2
I1
s.(dp0
Vd62ucja
p1
I1
sVcypv7wn
p2
I1
s.(dp0
Vd6a844x
p1
I1
sVcypv7wn
p2
I1
s.(dp0
Vd6a844x
p1
I1
sVcypv7wn
p2
I1
s.(dp0
Vcypv7wn
p1
I1
sVd6l00h2
p2
I1
s.(dp0
Vcypv7wn
p1
I1
sVd6l00h2
p2
I1
s.(dp0
Vcypv7wn
p1
I1
sVd6l00h2
p2
I1
s.(dp0
Vcypv7wn
p1
I1
sVd6zshk7
p2
I1
s.(dp0
Vcypv7wn
p1
I1
sVd6zshk7
p2
I1
s.(dp0
Vcypv7wn
p1
I1
sVd6zshk7
p2
I1
s.(dp0
Vcypv7wn
p1
I1
sVd6zshk7
p2
I1
s.(dp0
Vcypv7wn
p1
I1
sVd6zshk7
p2
I1
s.(dp0
Vcypv7wn
p1
I1
sVd6zshk7
p2
I1
s.(dp0
Vcypv7wn
p1
I1
sVd7hsbmq
p2
I1
s.(dp0
Vcypv7wn
p1
I1
sVd7luna1
p2
I1
s.(dp0
Vd80064a
p1
I1
sVcypv7wn
p2
I1
s.(dp0
Vd80064a
p1
I1
sVcypv7wn
p2
I1
s.(dp0
Vcypv7wn
p1
I1
sVd81ksbi
p2
I1
s.(dp0
Vd95qgrk
p1
I1
sVcypv7wn
p2
I1
s.(dp0
Vd95qgrk
p1
I1
sVcypv7wn
p2
I1
s.(dp0
Vcypv7wn
p1
I1
sVdali3am
p2
I1
s.(dp0
Vcypv7wn
p1
I1
sVdali3am
p2
I1
s.(dp0
Vdalk4ar
p1
I1
sVcypv7wn
p2
I1
s.(dp0
Vcypv7wn
p1
I1
sVdbhlmoc
p2
I1
s.(dp0
Vdbrrb9x
p1
I1
sVcypv7wn
p2
I1
s.(dp0
Vcypv7wn
p1
I1
sVdbvq97k
p2
I1
s.(dp0
Vcypv7wn
p1
I1
sVdcnwnv4
p2
I1
s.(dp0
Vcypv7wn
p1
I1
sVdcvi7aa
p2
I1
s.(dp0
Vcypv7wn
p1
I1
sVddfch2p
p2
I1
s.(dp0
Vcypv7wn
p1
I1
sVddfch2p
p2
I1
s.(dp0
Vcypv7wn
p1
I1
sVddsewyi
p2
I1
s.(dp0
Vdev4gmb
p1
I1
sVcypv7wn
p2
I1
s.(dp0
Vcypv7wn
p1
I1
sVdfazfg4
p2
I1
s.(dp0
Vcypv7wn
p1
I1
sVdfe1wnz
p2
I1
s.(dp0
Vdfhl9z6
p1
I1
sVcypv7wn
p2
I1
s.(dp0
Vcypv7wn
p1
I1
sVdftwbtt
p2
I1
s.(dp0
Vcypv7wn
p1
I1
sVdfvvxgr
p2
I1
s.(dp0
Vcypv7wn
p1
I1
sVdg25wur
p2
I1
s.(dp0
Vcypv7wn
p1
I1
sVdg6bncw
p2
I1
s.(dp0
Vdgguwot
p1
I1
sVcypv7wn
p2
I1
s.(dp0
Vcypv7wn
p1
I1
sVdgij6v0
p2
I1
s.(dp0
Vcypv7wn
p1
I1
sVdgij6v0
p2
I1
s.(dp0
Vcypv7wn
p1
I1
sVdgij6v0
p2
I1
s.(dp0
Vcypv7wn
p1
I1
sVdhuyv9z
p2
I1
s.(dp0
Vcypv7wn
p1
I1
sVdiapjtz
p2
I1
s.(dp0
Vcypv7wn
p1
I1
sVdiapjtz
p2
I1
s.(dp0
Vcypv7wn
p1
I1
sVdict3w8
p2
I1
s.(dp0
Vcypv7wn
p1
I1
sVdiwfark
p2
I1
s.(dp0
Vcypv7wn
p1
I1
sVdjndgpf
p2
I1
s.(dp0
Vcypv7wn
p1
I1
sVdkdk3tv
p2
I1
s.