(dp0
Vd03ovd4
p1
I1
s.(dp0
Vd0dg87a
p1
I1
sVd03ovd4
p2
I1
s.(dp0
Vd14qodp
p1
I1
sVd03ovd4
p2
I1
s.(dp0
Vd14rkwv
p1
I1
sVd03ovd4
p2
I1
s.(dp0
Vd14rkwv
p1
I1
sVd03ovd4
p2
I1
s.(dp0
Vd1e3987
p1
I1
sVd03ovd4
p2
I1
s.(dp0
Vd1xgu4u
p1
I1
sVd03ovd4
p2
I1
s.(dp0
Vd1xgu4u
p1
I1
sVd03ovd4
p2
I1
s.(dp0
Vd1xgu4u
p1
I1
sVd03ovd4
p2
I1
s.(dp0
Vd1xgu4u
p1
I1
sVd03ovd4
p2
I1
s.(dp0
Vd1xgu4u
p1
I1
sVd03ovd4
p2
I1
s.(dp0
Vd1xgu4u
p1
I1
sVd03ovd4
p2
I1
s.(dp0
Vd1xgu4u
p1
I1
sVd03ovd4
p2
I1
s.(dp0
Vd1xgu4u
p1
I1
sVd03ovd4
p2
I1
s.(dp0
Vd1xgu4u
p1
I1
sVd03ovd4
p2
I1
s.(dp0
Vd1xgu4u
p1
I1
sVd03ovd4
p2
I1
s.(dp0
Vd1xgu4u
p1
I1
sVd03ovd4
p2
I1
s.(dp0
Vd27eypz
p1
I1
sVd03ovd4
p2
I1
s.(dp0
Vd27ezr8
p1
I1
sVd03ovd4
p2
I1
s.(dp0
Vd27ezr8
p1
I1
sVd03ovd4
p2
I1
s.(dp0
Vd27ezr8
p1
I1
sVd03ovd4
p2
I1
s.(dp0
Vd2siwu9
p1
I1
sVd03ovd4
p2
I1
s.(dp0
Vd3lxtov
p1
I1
sVd03ovd4
p2
I1
s.(dp0
Vd3q8upi
p1
I1
sVd03ovd4
p2
I1
s.(dp0
Vd3zd51c
p1
I1
sVd03ovd4
p2
I1
s.(dp0
Vd46248j
p1
I1
sVd03ovd4
p2
I1
s.(dp0
Vd4gro0g
p1
I1
sVd03ovd4
p2
I1
s.(dp0
Vd4gro0g
p1
I1
sVd03ovd4
p2
I1
s.(dp0
Vd4zn4ak
p1
I1
sVd03ovd4
p2
I1
s.(dp0
Vd4zn4ak
p1
I1
sVd03ovd4
p2
I1
s.(dp0
Vd5vrx2w
p1
I1
sVd03ovd4
p2
I1
s.(dp0
Vd60da6a
p1
I1
sVd03ovd4
p2
I1
s.(dp0
Vd6rkjl1
p1
I1
sVd03ovd4
p2
I1
s.(dp0
Vd6rkjl1
p1
I1
sVd03ovd4
p2
I1
s.(dp0
Vd6rkjl1
p1
I1
sVd03ovd4
p2
I1
s.(dp0
Vd6rkjl1
p1
I1
sVd03ovd4
p2
I1
s.(dp0
Vd6rotir
p1
I1
sVd03ovd4
p2
I1
s.(dp0
Vd6rotir
p1
I1
sVd03ovd4
p2
I1
s.(dp0
Vd98r3hs
p1
I1
sVd03ovd4
p2
I1
s.(dp0
Vd98r3hs
p1
I1
sVd03ovd4
p2
I1
s.(dp0
Vd98r3hs
p1
I1
sVd03ovd4
p2
I1
s.(dp0
Vd98sz6c
p1
I1
sVd03ovd4
p2
I1
s.(dp0
Vd98sz6c
p1
I1
sVd03ovd4
p2
I1
s.(dp0
Vd98sz6c
p1
I1
sVd03ovd4
p2
I1
s.(dp0
Vd98trz6
p1
I1
sVd03ovd4
p2
I1
s.(dp0
Vd98trz6
p1
I1
sVd03ovd4
p2
I1
s.(dp0
Vd98trz6
p1
I1
sVd03ovd4
p2
I1
s.(dp0
Vd9kyqwt
p1
I1
sVd03ovd4
p2
I1
s.(dp0
Vd9kyqwt
p1
I1
sVd03ovd4
p2
I1
s.(dp0
Vdc3e2n0
p1
I1
sVd03ovd4
p2
I1
s.(dp0
Vddokhl9
p1
I1
sVd03ovd4
p2
I1
s.(dp0
Vddsnx7e
p1
I1
sVd03ovd4
p2
I1
s.(dp0
Vddso235
p1
I1
sVd03ovd4
p2
I1
s.(dp0
Vddso235
p1
I1
sVd03ovd4
p2
I1
s.(dp0
Vddso235
p1
I1
sVd03ovd4
p2
I1
s.(dp0
Vddso235
p1
I1
sVd03ovd4
p2
I1
s.(dp0
Vddso235
p1
I1
sVd03ovd4
p2
I1
s.(dp0
Vddso235
p1
I1
sVd03ovd4
p2
I1
s.(dp0
Vddso235
p1
I1
sVd03ovd4
p2
I1
s.(dp0
Vddso235
p1
I1
sVd03ovd4
p2
I1
s.(dp0
Vddso235
p1
I1
sVd03ovd4
p2
I1
s.(dp0
Vddsoq96
p1
I1
sVd03ovd4
p2
I1
s.(dp0
Vddsoq96
p1
I1
sVd03ovd4
p2
I1
s.(dp0
Vddsoq96
p1
I1
sVd03ovd4
p2
I1
s.(dp0
Vddspt3p
p1
I1
sVd03ovd4
p2
I1
s.(dp0
Vddspt3p
p1
I1
sVd03ovd4
p2
I1
s.(dp0
Vddspt3p
p1
I1
sVd03ovd4
p2
I1
s.(dp0
Vdglridl
p1
I1
sVd03ovd4
p2
I1
s.(dp0
Vdh4xvb0
p1
I1
sVd03ovd4
p2
I1
s.(dp0
Vdh7fqy5
p1
I1
sVd03ovd4
p2
I1
s.(dp0
Vdhf12fr
p1
I1
sVd03ovd4
p2
I1
s.(dp0
Vdhhdvqa
p1
I1
sVd03ovd4
p2
I1
s.(dp0
Vdhk0ne6
p1
I1
sVd03ovd4
p2
I1
s.(dp0
Vdhk0ne6
p1
I1
sVd03ovd4
p2
I1
s.(dp0
Vdicam06
p1
I1
sVd03ovd4
p2
I1
s.(dp0
Vdirlkz7
p1
I1
sVd03ovd4
p2
I1
s.(dp0
Vdj6hphw
p1
I1
sVd03ovd4
p2
I1
s.(dp0
Vdk6hzfx
p1
I1
sVd03ovd4
p2
I1
s.(dp0
Vdk6w73g
p1
I1
sVd03ovd4
p2
I1
s.