(dp0
Vd0ytotk
p1
I1
s.(dp0
Vd0ytotk
p1
I2
s.(dp0
Vd0ytotk
p1
I2
s.(dp0
Vd0ytotk
p1
I2
s.(dp0
Vd25g5mw
p1
I1
sVd0ytotk
p2
I1
s.(dp0
Vd64hc4x
p1
I1
sVd0ytotk
p2
I1
s.(dp0
Vd64igh1
p1
I1
sVd0ytotk
p2
I1
s.(dp0
Vd64ij1k
p1
I1
sVd0ytotk
p2
I1
s.(dp0
Vd64ij1k
p1
I1
sVd0ytotk
p2
I1
s.(dp0
Vd64ij1k
p1
I1
sVd0ytotk
p2
I1
s.(dp0
Vd64ij1k
p1
I1
sVd0ytotk
p2
I1
s.(dp0
Vd64ij1k
p1
I1
sVd0ytotk
p2
I1
s.(dp0
Vd64ij1k
p1
I1
sVd0ytotk
p2
I1
s.(dp0
Vd64itl9
p1
I1
sVd0ytotk
p2
I1
s.(dp0
Vd0ytotk
p1
I1
sVd6zbt19
p2
I1
s.(dp0
Vddpkj4z
p1
I1
sVd0ytotk
p2
I1
s.(dp0
Vdf3se94
p1
I1
sVd0ytotk
p2
I1
s.(dp0
Vd0ytotk
p1
I1
sVdfapcnf
p2
I1
s.(dp0
Vdgkpy43
p1
I1
sVd0ytotk
p2
I1
s.