(dp0
Vcyoekpp
p1
I1
s.(dp0
Vcyoekpp
p1
I2
s.(dp0
Vcyoekpp
p1
I1
sVcyyhm8e
p2
I1
s.(dp0
Vcz3hbv9
p1
I1
sVcyoekpp
p2
I1
s.(dp0
Vcyoekpp
p1
I1
sVczcs827
p2
I1
s.(dp0
Vcyoekpp
p1
I1
sVczcs827
p2
I1
s.(dp0
Vcyoekpp
p1
I1
sVczh4wwb
p2
I1
s.(dp0
Vczhyyas
p1
I1
sVcyoekpp
p2
I1
s.(dp0
Vczhyyas
p1
I1
sVcyoekpp
p2
I1
s.(dp0
Vczlxwsr
p1
I1
sVcyoekpp
p2
I1
s.(dp0
Vcyoekpp
p1
I1
sVczp5fxt
p2
I1
s.(dp0
Vczrkve4
p1
I1
sVcyoekpp
p2
I1
s.(dp0
Vczv0j74
p1
I1
sVcyoekpp
p2
I1
s.(dp0
Vcyoekpp
p1
I1
sVczvi0ke
p2
I1
s.(dp0
Vcyoekpp
p1
I1
sVczy5r7j
p2
I1
s.(dp0
Vcyoekpp
p1
I1
sVczy5r7j
p2
I1
s.(dp0
Vcyoekpp
p1
I1
sVd09n6hl
p2
I1
s.(dp0
Vd0g3tsd
p1
I1
sVcyoekpp
p2
I1
s.(dp0
Vcyoekpp
p1
I1
sVd0i2pol
p2
I1
s.(dp0
Vcyoekpp
p1
I1
sVd0jw2f2
p2
I1
s.(dp0
Vd0kf8yh
p1
I1
sVcyoekpp
p2
I1
s.(dp0
Vcyoekpp
p1
I1
sVd0n7ye0
p2
I1
s.(dp0
Vcyoekpp
p1
I1
sVd0nrsd2
p2
I1
s.(dp0
Vcyoekpp
p1
I1
sVd0rd08s
p2
I1
s.(dp0
Vd118s32
p1
I1
sVcyoekpp
p2
I1
s.(dp0
Vd1lxpg4
p1
I1
sVcyoekpp
p2
I1
s.(dp0
Vcyoekpp
p1
I1
sVd1of85h
p2
I1
s.(dp0
Vd1p10mg
p1
I1
sVcyoekpp
p2
I1
s.(dp0
Vd1p10mg
p1
I1
sVcyoekpp
p2
I1
s.(dp0
Vd1ppbek
p1
I1
sVcyoekpp
p2
I1
s.(dp0
Vd22aoll
p1
I1
sVcyoekpp
p2
I1
s.(dp0
Vcyoekpp
p1
I1
sVd22vp51
p2
I1
s.(dp0
Vd24zysm
p1
I1
sVcyoekpp
p2
I1
s.(dp0
Vd25xynq
p1
I1
sVcyoekpp
p2
I1
s.(dp0
Vd2tj3cp
p1
I1
sVcyoekpp
p2
I1
s.(dp0
Vd2u4iee
p1
I1
sVcyoekpp
p2
I1
s.(dp0
Vd2yxix6
p1
I1
sVcyoekpp
p2
I1
s.(dp0
Vcyoekpp
p1
I1
sVd3avqnp
p2
I1
s.(dp0
Vd3cas2k
p1
I1
sVcyoekpp
p2
I1
s.(dp0
Vd3hlfte
p1
I1
sVcyoekpp
p2
I1
s.(dp0
Vd3k8qig
p1
I1
sVcyoekpp
p2
I1
s.(dp0
Vd3k8qig
p1
I1
sVcyoekpp
p2
I1
s.(dp0
Vcyoekpp
p1
I1
sVd3si20r
p2
I1
s.(dp0
Vd46n56h
p1
I1
sVcyoekpp
p2
I1
s.(dp0
Vd4njckc
p1
I1
sVcyoekpp
p2
I1
s.(dp0
Vd4odesd
p1
I1
sVcyoekpp
p2
I1
s.(dp0
Vd4odoyk
p1
I1
sVcyoekpp
p2
I1
s.(dp0
Vd4pe363
p1
I1
sVcyoekpp
p2
I1
s.(dp0
Vcyoekpp
p1
I1
sVd4slgr6
p2
I1
s.(dp0
Vd4yvvr7
p1
I1
sVcyoekpp
p2
I1
s.(dp0
Vd513wp5
p1
I1
sVcyoekpp
p2
I1
s.(dp0
Vd5g8duh
p1
I1
sVcyoekpp
p2
I1
s.(dp0
Vd5kz26c
p1
I1
sVcyoekpp
p2
I1
s.(dp0
Vcyoekpp
p1
I1
sVd5m94yr
p2
I1
s.(dp0
Vd5rdqud
p1
I1
sVcyoekpp
p2
I1
s.(dp0
Vd63n5od
p1
I1
sVcyoekpp
p2
I1
s.(dp0
Vcyoekpp
p1
I1
sVd7fg0hl
p2
I1
s.(dp0
Vcyoekpp
p1
I1
sVd7fg0hl
p2
I1
s.(dp0
Vd7nel25
p1
I1
sVcyoekpp
p2
I1
s.(dp0
Vd7os7xb
p1
I1
sVcyoekpp
p2
I1
s.(dp0
Vcyoekpp
p1
I1
sVd7y6wkt
p2
I1
s.(dp0
Vd8kdwf2
p1
I1
sVcyoekpp
p2
I1
s.(dp0
Vcyoekpp
p1
I1
sVd8ntci2
p2
I1
s.(dp0
Vd8o5pcx
p1
I1
sVcyoekpp
p2
I1
s.(dp0
Vd8o5pcx
p1
I1
sVcyoekpp
p2
I1
s.(dp0
Vcyoekpp
p1
I1
sVd97bwin
p2
I1
s.(dp0
Vcyoekpp
p1
I1
sVda833v5
p2
I1
s.(dp0
Vcyoekpp
p1
I1
sVda8av3e
p2
I1
s.(dp0
Vcyoekpp
p1
I1
sVday8w0a
p2
I1
s.(dp0
Vcyoekpp
p1
I1
sVdbnnbzc
p2
I1
s.(dp0
Vdbw4b50
p1
I1
sVcyoekpp
p2
I1
s.(dp0
Vdcl639q
p1
I1
sVcyoekpp
p2
I1
s.(dp0
Vde6qket
p1
I1
sVcyoekpp
p2
I1
s.(dp0
Vde6qket
p1
I1
sVcyoekpp
p2
I1
s.(dp0
Vde6qket
p1
I1
sVcyoekpp
p2
I1
s.(dp0
Vde6qket
p1
I1
sVcyoekpp
p2
I1
s.(dp0
Vde6qket
p1
I1
sVcyoekpp
p2
I1
s.(dp0
Vdeibffw
p1
I1
sVcyoekpp
p2
I1
s.(dp0
Vcyoekpp
p1
I1
sVdeuyi80
p2
I1
s.(dp0
Vdf1hw3l
p1
I1
sVcyoekpp
p2
I1
s.(dp0
Vdfk9g3z
p1
I1
sVcyoekpp
p2
I1
s.(dp0
Vdftna69
p1
I1
sVcyoekpp
p2
I1
s.(dp0
Vdg5y280
p1
I1
sVcyoekpp
p2
I1
s.(dp0
Vdgsub5c
p1
I1
sVcyoekpp
p2
I1
s.(dp0
Vcyoekpp
p1
I1
sVdhght59
p2
I1
s.(dp0
Vcyoekpp
p1
I1
sVdhght59
p2
I1
s.(dp0
Vdhlmbpj
p1
I1
sVcyoekpp
p2
I1
s.(dp0
Vdi6h1aw
p1
I1
sVcyoekpp
p2
I1
s.(dp0
Vdihi70w
p1
I1
sVcyoekpp
p2
I1
s.(dp0
Vdils201
p1
I1
sVcyoekpp
p2
I1
s.(dp0
Vcyoekpp
p1
I1
sVdizugjb
p2
I1
s.(dp0
Vdizv857
p1
I1
sVcyoekpp
p2
I1
s.(dp0
Vdj4cp8x
p1
I1
sVcyoekpp
p2
I1
s.(dp0
Vdkhctz3
p1
I1
sVcyoekpp
p2
I1
s.(dp0
Vcyoekpp
p1
I1
sVdktidil
p2
I1
s.(dp0
Vdmkm03g
p1
I1
sVcyoekpp
p2
I1
s.(dp0
Vdmyuf26
p1
I1
sVcyoekpp
p2
I1
s.(dp0
Vdojilf5
p1
I1
sVcyoekpp
p2
I1
s.(dp0
Vdom6i53
p1
I1
sVcyoekpp
p2
I1
s.(dp0
Vcyoekpp
p1
I1
sVdoqk5s4
p2
I1
s.