(dp0
Vczik46q
p1
I1
s.(dp0
Vczik46q
p1
I1
sVd059w81
p2
I1
s.(dp0
Vd48nfo2
p1
I1
sVczik46q
p2
I1
s.(dp0
Vczik46q
p1
I1
sVd4ysggd
p2
I1
s.(dp0
Vd732ths
p1
I1
sVczik46q
p2
I1
s.(dp0
Vd732znh
p1
I1
sVczik46q
p2
I1
s.(dp0
Vczik46q
p1
I1
sVdayljqy
p2
I1
s.(dp0
Vczik46q
p1
I1
sVdca29g8
p2
I1
s.(dp0
Vczik46q
p1
I1
sVddwi553
p2
I1
s.(dp0
Vdgflvu9
p1
I1
sVczik46q
p2
I1
s.(dp0
Vdhseohh
p1
I1
sVczik46q
p2
I1
s.(dp0
Vczik46q
p1
I1
sVdiqb92y
p2
I1
s.