(dp0
Vcz04ido
p1
I1
s.(dp0
Vcz04ido
p1
I1
sVd2o4qg3
p2
I1
s.(dp0
Vcz04ido
p1
I1
sVd7e4tsc
p2
I1
s.(dp0
Vcz04ido
p1
I1
sVd7e4tsc
p2
I1
s.(dp0
Vcz04ido
p1
I1
sVd7e4tsc
p2
I1
s.(dp0
Vcz04ido
p1
I1
sVd83ogbo
p2
I1
s.(dp0
Vcz04ido
p1
I1
sVdbigw4q
p2
I1
s.(dp0
Vcz04ido
p1
I1
sVdbigw4q
p2
I1
s.(dp0
Vcz04ido
p1
I1
sVdfythtl
p2
I1
s.(dp0
Vcz04ido
p1
I1
sVdfythtl
p2
I1
s.(dp0
Vcz04ido
p1
I1
sVdhjvklu
p2
I1
s.(dp0
Vcz04ido
p1
I1
sVdhjz875
p2
I1
s.(dp0
Vcz04ido
p1
I1
sVdhjz875
p2
I1
s.(dp0
Vcz04ido
p1
I1
sVdiok99v
p2
I1
s.