(dp0
Vcyjt44v
p1
I1
s.(dp0
Vcztmowv
p1
I1
sVcyjt44v
p2
I1
s.(dp0
Vczzg81d
p1
I1
sVcyjt44v
p2
I1
s.(dp0
Vd00fm61
p1
I1
sVcyjt44v
p2
I1
s.(dp0
Vd01awbj
p1
I1
sVcyjt44v
p2
I1
s.(dp0
Vd01awbj
p1
I1
sVcyjt44v
p2
I1
s.(dp0
Vd035zt5
p1
I1
sVcyjt44v
p2
I1
s.(dp0
Vd03axs3
p1
I1
sVcyjt44v
p2
I1
s.(dp0
Vd03kskl
p1
I1
sVcyjt44v
p2
I1
s.(dp0
Vd0es9jn
p1
I1
sVcyjt44v
p2
I1
s.(dp0
Vd0y31bk
p1
I1
sVcyjt44v
p2
I1
s.(dp0
Vd0ygo5k
p1
I1
sVcyjt44v
p2
I1
s.(dp0
Vd15v2ef
p1
I1
sVcyjt44v
p2
I1
s.(dp0
Vd18q3k2
p1
I1
sVcyjt44v
p2
I1
s.(dp0
Vd1jjfjr
p1
I1
sVcyjt44v
p2
I1
s.(dp0
Vd22mcsr
p1
I1
sVcyjt44v
p2
I1
s.(dp0
Vd25cx6j
p1
I1
sVcyjt44v
p2
I1
s.(dp0
Vd2ao5hp
p1
I1
sVcyjt44v
p2
I1
s.(dp0
Vd2q1vue
p1
I1
sVcyjt44v
p2
I1
s.(dp0
Vd2ruz2o
p1
I1
sVcyjt44v
p2
I1
s.(dp0
Vd2yp0bg
p1
I1
sVcyjt44v
p2
I1
s.(dp0
Vd2yp0bg
p1
I1
sVcyjt44v
p2
I1
s.(dp0
Vd349yqv
p1
I1
sVcyjt44v
p2
I1
s.(dp0
Vd3msf6f
p1
I1
sVcyjt44v
p2
I1
s.(dp0
Vd3pj5q3
p1
I1
sVcyjt44v
p2
I1
s.(dp0
Vd40ms88
p1
I1
sVcyjt44v
p2
I1
s.(dp0
Vd4db5z5
p1
I1
sVcyjt44v
p2
I1
s.(dp0
Vd4dff4j
p1
I1
sVcyjt44v
p2
I1
s.(dp0
Vd4kw09a
p1
I1
sVcyjt44v
p2
I1
s.(dp0
Vd6hdjpc
p1
I1
sVcyjt44v
p2
I1
s.(dp0
Vd6hf6fe
p1
I1
sVcyjt44v
p2
I1
s.(dp0
Vd6q8uzm
p1
I1
sVcyjt44v
p2
I1
s.(dp0
Vd6za48c
p1
I1
sVcyjt44v
p2
I1
s.(dp0
Vd72t9he
p1
I1
sVcyjt44v
p2
I1
s.(dp0
Vd7c40sh
p1
I1
sVcyjt44v
p2
I1
s.(dp0
Vd7em625
p1
I1
sVcyjt44v
p2
I1
s.(dp0
Vd7ls8r6
p1
I1
sVcyjt44v
p2
I1
s.(dp0
Vd7rfjif
p1
I1
sVcyjt44v
p2
I1
s.(dp0
Vd7tka0s
p1
I1
sVcyjt44v
p2
I1
s.(dp0
Vd7vacfv
p1
I1
sVcyjt44v
p2
I1
s.(dp0
Vd85x3he
p1
I1
sVcyjt44v
p2
I1
s.(dp0
Vd85x3he
p1
I1
sVcyjt44v
p2
I1
s.(dp0
Vd978sfg
p1
I1
sVcyjt44v
p2
I1
s.(dp0
Vd97evfp
p1
I1
sVcyjt44v
p2
I1
s.(dp0
Vd97gbi7
p1
I1
sVcyjt44v
p2
I1
s.(dp0
Vd97geoc
p1
I1
sVcyjt44v
p2
I1
s.(dp0
Vd97gk1a
p1
I1
sVcyjt44v
p2
I1
s.(dp0
Vd97h11s
p1
I1
sVcyjt44v
p2
I1
s.(dp0
Vd97iask
p1
I1
sVcyjt44v
p2
I1
s.(dp0
Vd9akrk2
p1
I1
sVcyjt44v
p2
I1
s.(dp0
Vd9akrk2
p1
I1
sVcyjt44v
p2
I1
s.(dp0
Vd9cn6gu
p1
I1
sVcyjt44v
p2
I1
s.(dp0
Vd9kpq45
p1
I1
sVcyjt44v
p2
I1
s.(dp0
Vda03g02
p1
I1
sVcyjt44v
p2
I1
s.(dp0
Vdadh78g
p1
I1
sVcyjt44v
p2
I1
s.(dp0
Vdb5bohs
p1
I1
sVcyjt44v
p2
I1
s.(dp0
Vdb5cuh5
p1
I1
sVcyjt44v
p2
I1
s.(dp0
Vdb5emks
p1
I1
sVcyjt44v
p2
I1
s.(dp0
Vdb5kokq
p1
I1
sVcyjt44v
p2
I1
s.(dp0
Vdb5y4dx
p1
I1
sVcyjt44v
p2
I1
s.(dp0
Vdcap9wh
p1
I1
sVcyjt44v
p2
I1
s.(dp0
Vdcx9ehj
p1
I1
sVcyjt44v
p2
I1
s.(dp0
Vdd67lst
p1
I1
sVcyjt44v
p2
I1
s.(dp0
Vdd8euqi
p1
I1
sVcyjt44v
p2
I1
s.(dp0
Vddhkclv
p1
I1
sVcyjt44v
p2
I1
s.(dp0
Vddr2oas
p1
I1
sVcyjt44v
p2
I1
s.(dp0
Vddwjvgl
p1
I1
sVcyjt44v
p2
I1
s.(dp0
Vddyk8rc
p1
I1
sVcyjt44v
p2
I1
s.(dp0
Vdegkla1
p1
I1
sVcyjt44v
p2
I1
s.(dp0
Vdejo6qa
p1
I1
sVcyjt44v
p2
I1
s.(dp0
Vdejq689
p1
I1
sVcyjt44v
p2
I1
s.(dp0
Vdeo2mao
p1
I1
sVcyjt44v
p2
I1
s.(dp0
Vdes4wpq
p1
I1
sVcyjt44v
p2
I1
s.(dp0
Vdevgwk7
p1
I1
sVcyjt44v
p2
I1
s.(dp0
Vdf9b87u
p1
I1
sVcyjt44v
p2
I1
s.(dp0
Vdf9j5bv
p1
I1
sVcyjt44v
p2
I1
s.(dp0
Vdfvuefh
p1
I1
sVcyjt44v
p2
I1
s.(dp0
Vdfvuz9k
p1
I1
sVcyjt44v
p2
I1
s.(dp0
Vdggs5z0
p1
I1
sVcyjt44v
p2
I1
s.(dp0
Vdghhp8a
p1
I1
sVcyjt44v
p2
I1
s.(dp0
Vdgl3ok8
p1
I1
sVcyjt44v
p2
I1
s.(dp0
Vdgrlk2u
p1
I1
sVcyjt44v
p2
I1
s.(dp0
Vdgrlmjt
p1
I1
sVcyjt44v
p2
I1
s.(dp0
Vdgrlws3
p1
I1
sVcyjt44v
p2
I1
s.(dp0
Vdgrs0p0
p1
I1
sVcyjt44v
p2
I1
s.(dp0
Vdgrs0p0
p1
I1
sVcyjt44v
p2
I1
s.(dp0
Vdgt237n
p1
I1
sVcyjt44v
p2
I1
s.(dp0
Vdh20eqi
p1
I1
sVcyjt44v
p2
I1
s.(dp0
Vdhaxf6f
p1
I1
sVcyjt44v
p2
I1
s.(dp0
Vdhg6tm2
p1
I1
sVcyjt44v
p2
I1
s.(dp0
Vdhngf7e
p1
I1
sVcyjt44v
p2
I1
s.(dp0
Vdhpt7xx
p1
I1
sVcyjt44v
p2
I1
s.(dp0
Vdhva7rk
p1
I1
sVcyjt44v
p2
I1
s.(dp0
Vdi6qk2d
p1
I1
sVcyjt44v
p2
I1
s.(dp0
Vdiopnjd
p1
I1
sVcyjt44v
p2
I1
s.(dp0
Vdj735dk
p1
I1
sVcyjt44v
p2
I1
s.(dp0
Vdjmno2j
p1
I1
sVcyjt44v
p2
I1
s.(dp0
Vdjsgn9p
p1
I1
sVcyjt44v
p2
I1
s.(dp0
Vdjsqos6
p1
I1
sVcyjt44v
p2
I1
s.(dp0
Vdkf98xc
p1
I1
sVcyjt44v
p2
I1
s.(dp0
Vdkpsap4
p1
I1
sVcyjt44v
p2
I1
s.(dp0
Vdnrdn4e
p1
I1
sVcyjt44v
p2
I1
s.(dp0
Vdnwk31m
p1
I1
sVcyjt44v
p2
I1
s.(dp0
Vdo2r450
p1
I1
sVcyjt44v
p2
I1
s.(dp0
Vdob9cct
p1
I1
sVcyjt44v
p2
I1
s.(dp0
Vdob9cct
p1
I1
sVcyjt44v
p2
I1
s.