(dp0
Vcypjp31
p1
I1
s.(dp0
Vd068lmc
p1
I1
sVcypjp31
p2
I1
s.(dp0
Vd1bojnn
p1
I1
sVcypjp31
p2
I1
s.(dp0
Vd3foy22
p1
I1
sVcypjp31
p2
I1
s.(dp0
Vcypjp31
p1
I1
sVd3uesmz
p2
I1
s.(dp0
Vd4nt135
p1
I1
sVcypjp31
p2
I1
s.(dp0
Vcypjp31
p1
I1
sVd8ukuli
p2
I1
s.(dp0
Vcypjp31
p1
I1
sVdanryhh
p2
I1
s.(dp0
Vcypjp31
p1
I1
sVdanryhh
p2
I1
s.(dp0
Vcypjp31
p1
I1
sVdc3y8vf
p2
I1
s.(dp0
Vdelz11x
p1
I1
sVcypjp31
p2
I1
s.(dp0
Vdfgb305
p1
I1
sVcypjp31
p2
I1
s.(dp0
Vdh34jrg
p1
I1
sVcypjp31
p2
I1
s.