(dp0
Vczhb0m8
p1
I1
s.(dp0
Vd01sh3i
p1
I1
sVczhb0m8
p2
I1
s.(dp0
Vd15lij2
p1
I1
sVczhb0m8
p2
I1
s.(dp0
Vczhb0m8
p1
I1
sVd1dbaxx
p2
I1
s.(dp0
Vczhb0m8
p1
I1
sVd1izcvy
p2
I1
s.(dp0
Vd1me06r
p1
I1
sVczhb0m8
p2
I1
s.(dp0
Vczhb0m8
p1
I1
sVd1ng9jv
p2
I1
s.(dp0
Vd250n9p
p1
I1
sVczhb0m8
p2
I1
s.(dp0
Vd2gwmwe
p1
I1
sVczhb0m8
p2
I1
s.(dp0
Vczhb0m8
p1
I1
sVd2uxg61
p2
I1
s.(dp0
Vczhb0m8
p1
I1
sVd2yfq29
p2
I1
s.(dp0
Vd3iajag
p1
I1
sVczhb0m8
p2
I1
s.(dp0
Vczhb0m8
p1
I1
sVd57xmc2
p2
I1
s.(dp0
Vczhb0m8
p1
I1
sVd5mh2k5
p2
I1
s.(dp0
Vczhb0m8
p1
I1
sVd5vooje
p2
I1
s.(dp0
Vczhb0m8
p1
I1
sVd6e6vry
p2
I1
s.(dp0
Vczhb0m8
p1
I1
sVd6e6vry
p2
I1
s.(dp0
Vczhb0m8
p1
I1
sVd6e6vry
p2
I1
s.(dp0
Vczhb0m8
p1
I1
sVd6e6vry
p2
I1
s.(dp0
Vczhb0m8
p1
I1
sVd6e6vry
p2
I1
s.(dp0
Vczhb0m8
p1
I1
sVd6e6vry
p2
I1
s.(dp0
Vczhb0m8
p1
I1
sVd6ktyaq
p2
I1
s.(dp0
Vczhb0m8
p1
I1
sVd83zl1f
p2
I1
s.(dp0
Vd8tep71
p1
I1
sVczhb0m8
p2
I1
s.(dp0
Vczhb0m8
p1
I1
sVd8wn72d
p2
I1
s.(dp0
Vczhb0m8
p1
I1
sVd9dgd0f
p2
I1
s.(dp0
Vczhb0m8
p1
I1
sVd9gr7ge
p2
I1
s.(dp0
Vdb6uxgo
p1
I1
sVczhb0m8
p2
I1
s.(dp0
Vdbe6akf
p1
I1
sVczhb0m8
p2
I1
s.(dp0
Vczhb0m8
p1
I1
sVdc35duz
p2
I1
s.(dp0
Vczhb0m8
p1
I1
sVdc3nqze
p2
I1
s.(dp0
Vczhb0m8
p1
I1
sVdctbztg
p2
I1
s.(dp0
Vczhb0m8
p1
I1
sVde16l3q
p2
I1
s.(dp0
Vczhb0m8
p1
I1
sVdebp5l4
p2
I1
s.(dp0
Vdefrjtl
p1
I1
sVczhb0m8
p2
I1
s.(dp0
Vczhb0m8
p1
I1
sVdg4669f
p2
I1
s.(dp0
Vczhb0m8
p1
I1
sVdg9e6fu
p2
I1
s.(dp0
Vczhb0m8
p1
I1
sVdgrrkph
p2
I1
s.(dp0
Vczhb0m8
p1
I1
sVdh5rm7t
p2
I1
s.(dp0
Vczhb0m8
p1
I1
sVdhjugr0
p2
I1
s.(dp0
Vczhb0m8
p1
I1
sVdhymmoa
p2
I1
s.(dp0
Vczhb0m8
p1
I1
sVdic6a3r
p2
I1
s.(dp0
Vdjvdeh3
p1
I1
sVczhb0m8
p2
I1
s.(dp0
Vdn6umv6
p1
I1
sVczhb0m8
p2
I1
s.(dp0
Vczhb0m8
p1
I1
sVdndasum
p2
I1
s.(dp0
Vczhb0m8
p1
I1
sVdoey0bt
p2
I1
s.