(dp0
Vd0tuihw
p1
I1
s.(dp0
Vd0tuihw
p1
I2
s.(dp0
Vd1pvaag
p1
I1
sVd0tuihw
p2
I1
s.(dp0
Vd0tuihw
p1
I1
sVd2ya6nd
p2
I1
s.(dp0
Vd39zj6y
p1
I1
sVd0tuihw
p2
I1
s.(dp0
Vd39zj6y
p1
I1
sVd0tuihw
p2
I1
s.(dp0
Vd3y5t68
p1
I1
sVd0tuihw
p2
I1
s.(dp0
Vd6qhsvy
p1
I1
sVd0tuihw
p2
I1
s.(dp0
Vd8bjaj5
p1
I1
sVd0tuihw
p2
I1
s.(dp0
Vd8mfifu
p1
I1
sVd0tuihw
p2
I1
s.(dp0
Vd8tt4kg
p1
I1
sVd0tuihw
p2
I1
s.(dp0
Vdastwnp
p1
I1
sVd0tuihw
p2
I1
s.(dp0
Vdastwnp
p1
I1
sVd0tuihw
p2
I1
s.(dp0
Vdaz1ztp
p1
I1
sVd0tuihw
p2
I1
s.(dp0
Vdb3t02q
p1
I1
sVd0tuihw
p2
I1
s.(dp0
Vdbh8kn9
p1
I1
sVd0tuihw
p2
I1
s.(dp0
Vdbvgva1
p1
I1
sVd0tuihw
p2
I1
s.(dp0
Vddxbkq8
p1
I1
sVd0tuihw
p2
I1
s.(dp0
Vddxbph5
p1
I1
sVd0tuihw
p2
I1
s.(dp0
Vd0tuihw
p1
I1
sVddxc1uo
p2
I1
s.(dp0
Vddxc72n
p1
I1
sVd0tuihw
p2
I1
s.(dp0
Vddxk1ay
p1
I1
sVd0tuihw
p2
I1
s.(dp0
Vd0tuihw
p1
I1
sVddxkp5r
p2
I1
s.(dp0
Vddxlytk
p1
I1
sVd0tuihw
p2
I1
s.(dp0
Vddxlytk
p1
I1
sVd0tuihw
p2
I1
s.(dp0
Vddxlytk
p1
I1
sVd0tuihw
p2
I1
s.(dp0
Vddxlytk
p1
I1
sVd0tuihw
p2
I1
s.(dp0
Vd0tuihw
p1
I1
sVddxng0m
p2
I1
s.(dp0
Vde1y8wy
p1
I1
sVd0tuihw
p2
I1
s.(dp0
Vde59zjv
p1
I1
sVd0tuihw
p2
I1
s.(dp0
Vd0tuihw
p1
I1
sVdg1ntck
p2
I1
s.(dp0
Vdgguwot
p1
I1
sVd0tuihw
p2
I1
s.(dp0
Vdhvt1wa
p1
I1
sVd0tuihw
p2
I1
s.(dp0
Vdila9cu
p1
I1
sVd0tuihw
p2
I1
s.(dp0
Vdj901s2
p1
I1
sVd0tuihw
p2
I1
s.(dp0
Vdj901s2
p1
I1
sVd0tuihw
p2
I1
s.(dp0
Vdj901s2
p1
I1
sVd0tuihw
p2
I1
s.(dp0
Vdjxwdef
p1
I1
sVd0tuihw
p2
I1
s.(dp0
Vdktpvnk
p1
I1
sVd0tuihw
p2
I1
s.