(dp0
Vd0gboco
p1
I1
s.(dp0
Vd0gboco
p1
I1
sVd1gcbno
p2
I1
s.(dp0
Vd0gboco
p1
I1
sVd1m8vv7
p2
I1
s.(dp0
Vd0gboco
p1
I1
sVd68hdye
p2
I1
s.(dp0
Vd7urmrr
p1
I1
sVd0gboco
p2
I1
s.(dp0
Vde61lt5
p1
I1
sVd0gboco
p2
I1
s.(dp0
Vdiqf068
p1
I1
sVd0gboco
p2
I1
s.