(dp0
Vczhsy2v
p1
I1
s.(dp0
Vd7cfcge
p1
I1
sVczhsy2v
p2
I1
s.(dp0
Vczhsy2v
p1
I1
sVddepe1y
p2
I1
s.(dp0
Vczhsy2v
p1
I1
sVdelzqeh
p2
I1
s.(dp0
Vczhsy2v
p1
I1
sVdf6i18v
p2
I1
s.(dp0
Vdfm792g
p1
I1
sVczhsy2v
p2
I1
s.(dp0
Vdhp5a2z
p1
I1
sVczhsy2v
p2
I1
s.