(dp0
Vd05k8ea
p1
I1
s.(dp0
Vd05k8ea
p1
I2
s.(dp0
Vd05k8ea
p1
I1
sVd2o6vmo
p2
I1
s.(dp0
Vd05k8ea
p1
I1
sVd2o6vmo
p2
I1
s.(dp0
Vd05k8ea
p1
I1
sVd2z42zj
p2
I1
s.(dp0
Vd05k8ea
p1
I1
sVd3ix7wa
p2
I1
s.(dp0
Vd05k8ea
p1
I1
sVd3qyatw
p2
I1
s.(dp0
Vd05k8ea
p1
I1
sVd45c4xc
p2
I1
s.(dp0
Vd05k8ea
p1
I1
sVd45c4xc
p2
I1
s.(dp0
Vd05k8ea
p1
I1
sVd45c4xc
p2
I1
s.(dp0
Vd05k8ea
p1
I1
sVd5zocpi
p2
I1
s.(dp0
Vd05k8ea
p1
I1
sVd7yet7x
p2
I1
s.(dp0
Vd05k8ea
p1
I1
sVd980q4n
p2
I1
s.(dp0
Vdjtsuct
p1
I1
sVd05k8ea
p2
I1
s.(dp0
Vd05k8ea
p1
I1
sVdju43oo
p2
I1
s.