(dp0
Vczzrv8y
p1
I1
s.(dp0
Vczzrv8y
p1
I1
sVd0iv0hp
p2
I1
s.(dp0
Vczzrv8y
p1
I1
sVd0qxq5x
p2
I1
s.(dp0
Vczzrv8y
p1
I1
sVd2al42h
p2
I1
s.(dp0
Vczzrv8y
p1
I1
sVd2tzeri
p2
I1
s.(dp0
Vczzrv8y
p1
I1
sVd7mjgat
p2
I1
s.(dp0
Vczzrv8y
p1
I1
sVd8y41s0
p2
I1
s.(dp0
Vczzrv8y
p1
I1
sVd9q95oq
p2
I1
s.(dp0
Vczzrv8y
p1
I1
sVd9qcsya
p2
I1
s.(dp0
Vczzrv8y
p1
I1
sVdbd6wqd
p2
I1
s.(dp0
Vczzrv8y
p1
I1
sVdczcj57
p2
I1
s.(dp0
Vdd09bf8
p1
I1
sVczzrv8y
p2
I1
s.(dp0
Vczzrv8y
p1
I1
sVde82kjg
p2
I1
s.(dp0
Vczzrv8y
p1
I1
sVde82kjg
p2
I1
s.(dp0
Vczzrv8y
p1
I1
sVdejydyh
p2
I1
s.(dp0
Vczzrv8y
p1
I1
sVdfq7gv4
p2
I1
s.(dp0
Vdhnhsaq
p1
I1
sVczzrv8y
p2
I1
s.(dp0
Vdhxo73l
p1
I1
sVczzrv8y
p2
I1
s.