(dp0
Vcyl5f9d
p1
I1
s.(dp0
Vcyl5f9d
p1
I1
sVcz7g260
p2
I1
s.(dp0
Vcyl5f9d
p1
I1
sVczcm2u7
p2
I1
s.(dp0
Vcyl5f9d
p1
I1
sVczpv338
p2
I1
s.(dp0
Vcyl5f9d
p1
I1
sVczspu0c
p2
I1
s.(dp0
Vcyl5f9d
p1
I1
sVczspu0c
p2
I1
s.(dp0
Vcyl5f9d
p1
I1
sVczspu0c
p2
I1
s.(dp0
Vcyl5f9d
p1
I1
sVczspu0c
p2
I1
s.(dp0
Vcyl5f9d
p1
I1
sVczspu0c
p2
I1
s.(dp0
Vcyl5f9d
p1
I1
sVd0faij3
p2
I1
s.(dp0
Vcyl5f9d
p1
I1
sVd0fviqg
p2
I1
s.(dp0
Vcyl5f9d
p1
I1
sVd0ordl0
p2
I1
s.(dp0
Vcyl5f9d
p1
I1
sVd0uyap2
p2
I1
s.(dp0
Vcyl5f9d
p1
I1
sVd0zljyr
p2
I1
s.(dp0
Vcyl5f9d
p1
I1
sVd11pxkz
p2
I1
s.(dp0
Vd1o9a9b
p1
I1
sVcyl5f9d
p2
I1
s.(dp0
Vcyl5f9d
p1
I1
sVd2hbcn9
p2
I1
s.(dp0
Vcyl5f9d
p1
I1
sVd2hbcn9
p2
I1
s.(dp0
Vcyl5f9d
p1
I1
sVd2hbcn9
p2
I1
s.(dp0
Vcyl5f9d
p1
I1
sVd2hbcn9
p2
I1
s.(dp0
Vcyl5f9d
p1
I1
sVd2hbcn9
p2
I1
s.(dp0
Vcyl5f9d
p1
I1
sVd2kr3cd
p2
I1
s.(dp0
Vcyl5f9d
p1
I1
sVd2nkhxt
p2
I1
s.(dp0
Vcyl5f9d
p1
I1
sVd2nkhxt
p2
I1
s.(dp0
Vcyl5f9d
p1
I1
sVd32qw8g
p2
I1
s.(dp0
Vd32tlxx
p1
I1
sVcyl5f9d
p2
I1
s.(dp0
Vcyl5f9d
p1
I1
sVd3ixgi0
p2
I1
s.(dp0
Vcyl5f9d
p1
I1
sVd4j2bsr
p2
I1
s.(dp0
Vcyl5f9d
p1
I1
sVd4o1js6
p2
I1
s.(dp0
Vcyl5f9d
p1
I1
sVd58dwew
p2
I1
s.(dp0
Vcyl5f9d
p1
I1
sVd5u07c3
p2
I1
s.(dp0
Vcyl5f9d
p1
I1
sVd630hji
p2
I1
s.(dp0
Vcyl5f9d
p1
I1
sVd66lrm9
p2
I1
s.(dp0
Vd6iwhns
p1
I1
sVcyl5f9d
p2
I1
s.(dp0
Vcyl5f9d
p1
I1
sVd6uev6p
p2
I1
s.(dp0
Vd6vdqma
p1
I1
sVcyl5f9d
p2
I1
s.(dp0
Vcyl5f9d
p1
I1
sVd6xjdrv
p2
I1
s.(dp0
Vcyl5f9d
p1
I1
sVd78ay23
p2
I1
s.(dp0
Vcyl5f9d
p1
I1
sVd7czzxn
p2
I1
s.(dp0
Vcyl5f9d
p1
I1
sVd82xtrq
p2
I1
s.(dp0
Vcyl5f9d
p1
I1
sVd9gr2bg
p2
I1
s.(dp0
Vcyl5f9d
p1
I1
sVdaesy5i
p2
I1
s.(dp0
Vcyl5f9d
p1
I1
sVdaj7fnm
p2
I1
s.(dp0
Vcyl5f9d
p1
I1
sVdbcn2dd
p2
I1
s.(dp0
Vdbru00h
p1
I1
sVcyl5f9d
p2
I1
s.(dp0
Vcyl5f9d
p1
I1
sVdckmkow
p2
I1
s.(dp0
Vcyl5f9d
p1
I1
sVdcpjwic
p2
I1
s.(dp0
Vcyl5f9d
p1
I1
sVdd8srnh
p2
I1
s.(dp0
Vcyl5f9d
p1
I1
sVdd8srnh
p2
I1
s.(dp0
Vcyl5f9d
p1
I1
sVde6bk8u
p2
I1
s.(dp0
Vcyl5f9d
p1
I1
sVdebxlov
p2
I1
s.(dp0
Vcyl5f9d
p1
I1
sVdemxpj4
p2
I1
s.(dp0
Vcyl5f9d
p1
I1
sVdenmu2c
p2
I1
s.(dp0
Vcyl5f9d
p1
I1
sVdf076n2
p2
I1
s.(dp0
Vcyl5f9d
p1
I1
sVdf076n2
p2
I1
s.(dp0
Vdf9ka62
p1
I1
sVcyl5f9d
p2
I1
s.(dp0
Vcyl5f9d
p1
I1
sVdfc1roc
p2
I1
s.(dp0
Vcyl5f9d
p1
I1
sVdfcocq9
p2
I1
s.(dp0
Vcyl5f9d
p1
I1
sVdfrszzy
p2
I1
s.(dp0
Vcyl5f9d
p1
I1
sVdgf8wsi
p2
I1
s.(dp0
Vcyl5f9d
p1
I1
sVdhx65b0
p2
I1
s.(dp0
Vcyl5f9d
p1
I1
sVdhxazjv
p2
I1
s.(dp0
Vcyl5f9d
p1
I1
sVdi839uo
p2
I1
s.(dp0
Vcyl5f9d
p1
I1
sVdi83f2z
p2
I1
s.(dp0
Vcyl5f9d
p1
I1
sVdiblhm2
p2
I1
s.(dp0
Vcyl5f9d
p1
I1
sVdifk1j8
p2
I1
s.(dp0
Vcyl5f9d
p1
I1
sVdil77cw
p2
I1
s.(dp0
Vcyl5f9d
p1
I1
sVdiqdkse
p2
I1
s.(dp0
Vcyl5f9d
p1
I1
sVdir4ozh
p2
I1
s.(dp0
Vdjeqqua
p1
I1
sVcyl5f9d
p2
I1
s.(dp0
Vdjeqqua
p1
I1
sVcyl5f9d
p2
I1
s.(dp0
Vcyl5f9d
p1
I1
sVdjftbpj
p2
I1
s.(dp0
Vcyl5f9d
p1
I1
sVdjftbpj
p2
I1
s.(dp0
Vcyl5f9d
p1
I1
sVdjfxtp9
p2
I1
s.(dp0
Vcyl5f9d
p1
I1
sVdko45an
p2
I1
s.(dp0
Vcyl5f9d
p1
I1
sVdkwunb4
p2
I1
s.(dp0
Vcyl5f9d
p1
I1
sVdkyoxrj
p2
I1
s.