(dp0
Vcyhve1w
p1
I1
s.(dp0
Vcyhve1w
p1
I2
s.(dp0
Vcyhvlgq
p1
I1
sVcyhve1w
p2
I1
s.(dp0
Vcyhvog3
p1
I1
sVcyhve1w
p2
I1
s.(dp0
Vcyhve1w
p1
I1
sVcyhvqem
p2
I1
s.(dp0
Vcyhve1w
p1
I1
sVcyhvqem
p2
I1
s.(dp0
Vcyid5id
p1
I1
sVcyhve1w
p2
I1
s.(dp0
Vcyhve1w
p1
I1
sVcyidh07
p2
I1
s.(dp0
Vcyhve1w
p1
I1
sVcyidh07
p2
I1
s.(dp0
Vcyie7b0
p1
I1
sVcyhve1w
p2
I1
s.(dp0
Vcyie7b0
p1
I1
sVcyhve1w
p2
I1
s.(dp0
Vcyhve1w
p1
I1
sVcyinv7f
p2
I1
s.(dp0
Vcyhve1w
p1
I1
sVcyinv7f
p2
I1
s.(dp0
Vcyinwth
p1
I1
sVcyhve1w
p2
I1
s.(dp0
Vcyinwth
p1
I1
sVcyhve1w
p2
I1
s.(dp0
Vcyinwth
p1
I1
sVcyhve1w
p2
I1
s.(dp0
Vcyinwth
p1
I1
sVcyhve1w
p2
I1
s.(dp0
Vcyinwth
p1
I1
sVcyhve1w
p2
I1
s.(dp0
Vcyipymd
p1
I1
sVcyhve1w
p2
I1
s.(dp0
Vcyhve1w
p1
I1
sVcyiv6zq
p2
I1
s.(dp0
Vcyhve1w
p1
I1
sVcyiv6zq
p2
I1
s.(dp0
Vcyhve1w
p1
I1
sVcyiv85p
p2
I1
s.(dp0
Vcyhve1w
p1
I1
sVcyiv85p
p2
I1
s.(dp0
Vcyjye2m
p1
I1
sVcyhve1w
p2
I1
s.(dp0
Vcykba0f
p1
I1
sVcyhve1w
p2
I1
s.(dp0
Vcyhve1w
p1
I1
sVcykqsqz
p2
I1
s.(dp0
Vcyhve1w
p1
I1
sVcykqsqz
p2
I1
s.(dp0
Vcylbofo
p1
I1
sVcyhve1w
p2
I1
s.(dp0
Vcylhjq5
p1
I1
sVcyhve1w
p2
I1
s.(dp0
Vcylhjq5
p1
I1
sVcyhve1w
p2
I1
s.(dp0
Vcylksm6
p1
I1
sVcyhve1w
p2
I1
s.(dp0
Vcylsjg1
p1
I1
sVcyhve1w
p2
I1
s.(dp0
Vcyhve1w
p1
I1
sVcylvbm9
p2
I1
s.(dp0
Vcymo861
p1
I1
sVcyhve1w
p2
I1
s.(dp0
Vcymo861
p1
I1
sVcyhve1w
p2
I1
s.(dp0
Vcymx04t
p1
I1
sVcyhve1w
p2
I1
s.(dp0
Vcymx04t
p1
I1
sVcyhve1w
p2
I1
s.(dp0
Vcyhve1w
p1
I1
sVcymy4ic
p2
I1
s.(dp0
Vcymygo6
p1
I1
sVcyhve1w
p2
I1
s.(dp0
Vcymyi2b
p1
I1
sVcyhve1w
p2
I1
s.(dp0
Vcymyi2b
p1
I1
sVcyhve1w
p2
I1
s.(dp0
Vcyn7a2d
p1
I1
sVcyhve1w
p2
I1
s.(dp0
Vcyn7a2d
p1
I1
sVcyhve1w
p2
I1
s.(dp0
Vcyn7md2
p1
I1
sVcyhve1w
p2
I1
s.(dp0
Vcyn7md2
p1
I1
sVcyhve1w
p2
I1
s.(dp0
Vcyhve1w
p1
I1
sVcyn7ow4
p2
I1
s.(dp0
Vcyn804o
p1
I1
sVcyhve1w
p2
I1
s.(dp0
Vcyn814t
p1
I1
sVcyhve1w
p2
I1
s.(dp0
Vcyhve1w
p1
I1
sVcyn846j
p2
I1
s.(dp0
Vcyhve1w
p1
I1
sVcyn98bj
p2
I1
s.(dp0
Vcynbd58
p1
I1
sVcyhve1w
p2
I1
s.(dp0
Vcynbd58
p1
I1
sVcyhve1w
p2
I1
s.(dp0
Vcyhve1w
p1
I1
sVcynduv1
p2
I1
s.(dp0
Vcyhve1w
p1
I1
sVcynl8or
p2
I1
s.(dp0
Vcynmma0
p1
I1
sVcyhve1w
p2
I1
s.(dp0
Vcyhve1w
p1
I1
sVcyno8eh
p2
I1
s.(dp0
Vcynobdz
p1
I1
sVcyhve1w
p2
I1
s.(dp0
Vcyhve1w
p1
I1
sVcynof00
p2
I1
s.(dp0
Vcyhve1w
p1
I1
sVcynrv8f
p2
I1
s.(dp0
Vcyhve1w
p1
I1
sVcynsdh6
p2
I1
s.(dp0
Vcyhve1w
p1
I1
sVcynuck3
p2
I1
s.(dp0
Vcynw9w2
p1
I1
sVcyhve1w
p2
I1
s.(dp0
Vcyny7du
p1
I1
sVcyhve1w
p2
I1
s.(dp0
Vcyny7du
p1
I1
sVcyhve1w
p2
I1
s.(dp0
Vcyny7du
p1
I1
sVcyhve1w
p2
I1
s.(dp0
Vcyhve1w
p1
I1
sVcynymlq
p2
I1
s.(dp0
Vcyhve1w
p1
I1
sVcynymlq
p2
I1
s.(dp0
Vcyocs5i
p1
I1
sVcyhve1w
p2
I1
s.(dp0
Vcyocs5i
p1
I1
sVcyhve1w
p2
I1
s.(dp0
Vcyocs5i
p1
I1
sVcyhve1w
p2
I1
s.(dp0
Vcyocs5i
p1
I1
sVcyhve1w
p2
I1
s.(dp0
Vcyhve1w
p1
I1
sVcyojnxi
p2
I1
s.(dp0
Vcyhve1w
p1
I1
sVcyojnxi
p2
I1
s.(dp0
Vcyhve1w
p1
I1
sVcyojnxi
p2
I1
s.(dp0
Vcyhve1w
p1
I1
sVcyojnxi
p2
I1
s.(dp0
Vcyhve1w
p1
I1
sVcyojnxi
p2
I1
s.(dp0
Vcyhve1w
p1
I1
sVcyojnxi
p2
I1
s.(dp0
Vcyhve1w
p1
I1
sVcyojnxi
p2
I1
s.(dp0
Vcyp8bo7
p1
I1
sVcyhve1w
p2
I1
s.(dp0
Vcyp8bo7
p1
I1
sVcyhve1w
p2
I1
s.(dp0
Vcyp9wdt
p1
I1
sVcyhve1w
p2
I1
s.(dp0
Vcyp9wdt
p1
I1
sVcyhve1w
p2
I1
s.(dp0
Vcyp9wdt
p1
I1
sVcyhve1w
p2
I1
s.(dp0
Vcyhve1w
p1
I1
sVcyp9x7b
p2
I1
s.(dp0
Vcyhve1w
p1
I1
sVcyp9x7b
p2
I1
s.(dp0
Vcyhve1w
p1
I1
sVcyp9x7b
p2
I1
s.(dp0
Vcyhve1w
p1
I1
sVcyp9x7b
p2
I1
s.(dp0
Vcypke92
p1
I1
sVcyhve1w
p2
I1
s.(dp0
Vcyhve1w
p1
I1
sVcypncuh
p2
I1
s.(dp0
Vcyhve1w
p1
I1
sVcypncuh
p2
I1
s.(dp0
Vcyhve1w
p1
I1
sVcyq1tim
p2
I1
s.(dp0
Vcyhve1w
p1
I1
sVcyq1tim
p2
I1
s.(dp0
Vcyq2q7o
p1
I1
sVcyhve1w
p2
I1
s.(dp0
Vcyq2q7o
p1
I1
sVcyhve1w
p2
I1
s.(dp0
Vcyqc726
p1
I1
sVcyhve1w
p2
I1
s.(dp0
Vcyqyndg
p1
I1
sVcyhve1w
p2
I1
s.(dp0
Vcyrpz6y
p1
I1
sVcyhve1w
p2
I1
s.(dp0
Vcyrq6y6
p1
I1
sVcyhve1w
p2
I1
s.(dp0
Vcyhve1w
p1
I1
sVcyst3hm
p2
I1
s.(dp0
Vcyswwzi
p1
I1
sVcyhve1w
p2
I1
s.(dp0
Vcyhve1w
p1
I1
sVcyt01ox
p2
I1
s.(dp0
Vcytf214
p1
I1
sVcyhve1w
p2
I1
s.(dp0
Vcytr2io
p1
I1
sVcyhve1w
p2
I1
s.(dp0
Vcytr2yo
p1
I1
sVcyhve1w
p2
I1
s.(dp0
Vcyhve1w
p1
I1
sVcyuks9n
p2
I1
s.(dp0
Vcyutu68
p1
I1
sVcyhve1w
p2
I1
s.(dp0
Vcyhve1w
p1
I1
sVcyvphu7
p2
I1
s.(dp0
Vcywhs39
p1
I1
sVcyhve1w
p2
I1
s.(dp0
Vcywmotp
p1
I1
sVcy(dp0
Vdp5w4jr
p1
I1
sVcyhve1w
p2
I1
s.