(dp0
Vcysnof7
p1
I1
s.(dp0
Vcysnof7
p1
I2
s.(dp0
Vcysnof7
p1
I2
s.(dp0
Vcysnof7
p1
I1
sVcytrnxd
p2
I1
s.(dp0
Vcysnof7
p1
I1
sVcyv8sdh
p2
I1
s.(dp0
Vcysnof7
p1
I1
sVcyv8sdh
p2
I1
s.(dp0
Vcysnof7
p1
I1
sVcyv8sdh
p2
I1
s.(dp0
Vcysnof7
p1
I1
sVcyv8sdh
p2
I1
s.(dp0
Vcysnof7
p1
I1
sVcyvcbqt
p2
I1
s.(dp0
Vcysnof7
p1
I1
sVcyvcbqt
p2
I1
s.(dp0
Vcysnof7
p1
I1
sVcyvcbqt
p2
I1
s.(dp0
Vcysnof7
p1
I1
sVcyyyt83
p2
I1
s.(dp0
Vcysnof7
p1
I1
sVcyyyt83
p2
I1
s.(dp0
Vcysnof7
p1
I1
sVcyyyt83
p2
I1
s.(dp0
Vcysnof7
p1
I1
sVcz0l8zx
p2
I1
s.(dp0
Vcysnof7
p1
I1
sVcz0zp0c
p2
I1
s.(dp0
Vcysnof7
p1
I1
sVcz3d9yi
p2
I1
s.(dp0
Vcysnof7
p1
I1
sVcz3d9yi
p2
I1
s.(dp0
Vcysnof7
p1
I1
sVcz3ugss
p2
I1
s.(dp0
Vcysnof7
p1
I1
sVcz3ugss
p2
I1
s.(dp0
Vcysnof7
p1
I1
sVcz4vka8
p2
I1
s.(dp0
Vcysnof7
p1
I1
sVcz4vka8
p2
I1
s.(dp0
Vcysnof7
p1
I1
sVcz4vka8
p2
I1
s.(dp0
Vcysnof7
p1
I1
sVcz4vka8
p2
I1
s.(dp0
Vcysnof7
p1
I1
sVcz4vka8
p2
I1
s.(dp0
Vcysnof7
p1
I1
sVcz4vka8
p2
I1
s.(dp0
Vcysnof7
p1
I1
sVcz6vf6o
p2
I1
s.(dp0
Vcysnof7
p1
I1
sVcz83aob
p2
I1
s.(dp0
Vcysnof7
p1
I1
sVczatwkp
p2
I1
s.(dp0
Vcysnof7
p1
I1
sVczatwkp
p2
I1
s.(dp0
Vcysnof7
p1
I1
sVczefcw0
p2
I1
s.(dp0
Vcysnof7
p1
I1
sVczefcw0
p2
I1
s.(dp0
Vcysnof7
p1
I1
sVczeto3k
p2
I1
s.(dp0
Vcysnof7
p1
I1
sVczkwjsv
p2
I1
s.(dp0
Vcysnof7
p1
I1
sVcznha1s
p2
I1
s.(dp0
Vcysnof7
p1
I1
sVczrn270
p2
I1
s.(dp0
Vcysnof7
p1
I1
sVczrp9gm
p2
I1
s.(dp0
Vcysnof7
p1
I1
sVczta85f
p2
I1
s.(dp0
Vcysnof7
p1
I1
sVczzs2kf
p2
I1
s.(dp0
Vcysnof7
p1
I1
sVczztfn6
p2
I1
s.(dp0
Vcysnof7
p1
I1
sVd0adqcd
p2
I1
s.(dp0
Vcysnof7
p1
I1
sVd0ifoe7
p2
I1
s.(dp0
Vcysnof7
p1
I1
sVd0m0g3s
p2
I1
s.(dp0
Vcysnof7
p1
I1
sVd0m0g3s
p2
I1
s.(dp0
Vcysnof7
p1
I1
sVd0m0g3s
p2
I1
s.(dp0
Vcysnof7
p1
I1
sVd0m0jij
p2
I1
s.(dp0
Vcysnof7
p1
I1
sVd0qdkh2
p2
I1
s.(dp0
Vcysnof7
p1
I1
sVd0qdkh2
p2
I1
s.(dp0
Vcysnof7
p1
I1
sVd0zi82t
p2
I1
s.(dp0
Vcysnof7
p1
I1
sVd13pqfc
p2
I1
s.(dp0
Vcysnof7
p1
I1
sVd17c61c
p2
I1
s.(dp0
Vcysnof7
p1
I1
sVd17j9zg
p2
I1
s.(dp0
Vcysnof7
p1
I1
sVd192eqa
p2
I1
s.(dp0
Vcysnof7
p1
I1
sVd1apogf
p2
I1
s.(dp0
Vcysnof7
p1
I1
sVd1ekeq4
p2
I1
s.(dp0
Vcysnof7
p1
I1
sVd1esrhj
p2
I1
s.(dp0
Vcysnof7
p1
I1
sVd1ex503
p2
I1
s.(dp0
Vcysnof7
p1
I1
sVd1h8q3f
p2
I1
s.(dp0
Vcysnof7
p1
I1
sVd1nawcb
p2
I1
s.(dp0
Vcysnof7
p1
I1
sVd1nbhu7
p2
I1
s.(dp0
Vcysnof7
p1
I1
sVd1y80np
p2
I1
s.(dp0
Vcysnof7
p1
I1
sVd206uyj
p2
I1
s.(dp0
Vcysnof7
p1
I1
sVd26i7b9
p2
I1
s.(dp0
Vcysnof7
p1
I1
sVd2c579n
p2
I1
s.(dp0
Vcysnof7
p1
I1
sVd2gc7ai
p2
I1
s.(dp0
Vcysnof7
p1
I1
sVd2icqif
p2
I1
s.(dp0
Vcysnof7
p1
I1
sVd2j5mho
p2
I1
s.(dp0
Vcysnof7
p1
I1
sVd2lcw2l
p2
I1
s.(dp0
Vcysnof7
p1
I1
sVd2ozkef
p2
I1
s.(dp0
Vcysnof7
p1
I1
sVd2pbz65
p2
I1
s.(dp0
Vcysnof7
p1
I1
sVd2wgq87
p2
I1
s.(dp0
Vcysnof7
p1
I1
sVd2wpy8o
p2
I1
s.(dp0
Vcysnof7
p1
I1
sVd30o19l
p2
I1
s.(dp0
Vcysnof7
p1
I1
sVd327vd8
p2
I1
s.(dp0
Vcysnof7
p1
I1
sVd327vd8
p2
I1
s.(dp0
Vcysnof7
p1
I1
sVd327vd8
p2
I1
s.(dp0
Vcysnof7
p1
I1
sVd327vd8
p2
I1
s.(dp0
Vcysnof7
p1
I1
sVd32o8d9
p2
I1
s.(dp0
Vcysnof7
p1
I1
sVd391w5p
p2
I1
s.(dp0
Vcysnof7
p1
I1
sVd39yx4p
p2
I1
s.(dp0
Vcysnof7
p1
I1
sVd3d6mjc
p2
I1
s.(dp0
Vcysnof7
p1
I1
sVd3j7ntn
p2
I1
s.(dp0
Vcysnof7
p1
I1
sVd3oe7vv
p2
I1
s.(dp0
Vcysnof7
p1
I1
sVd3oe7vv
p2
I1
s.(dp0
Vcysnof7
p1
I1
sVd3q27wa
p2
I1
s.(dp0
Vcysnof7
p1
I1
sVd3qqscz
p2
I1
s.(dp0
Vcysnof7
p1
I1
sVd3tqp0r
p2
I1
s.(dp0
Vcysnof7
p1
I1
sVd3u879z
p2
I1
s.(dp0
Vcysnof7
p1
I1
sVd3xnz14
p2
I1
s.(dp0
Vcysnof7
p1
I1
sVd3ygp0i
p2
I1
s.(dp0
Vcysnof7
p1
I1
sVd41cp5x
p2
I1
s.(dp0
Vcysnof7
p1
I1
sVd451s5a
p2
I1
s.(dp0
Vcysnof7
p1
I1
sVd46l268
p2
I1
s.(dp0
Vcysnof7
p1
I1
sVd4a4ys5
p2
I1
s.(dp0
Vcysnof7
p1
I1
sVd4bra1s
p2
I1
s.(dp0
Vcysnof7
p1
I1
sVd4d1mk6
p2
I1
s.(dp0
Vcysnof7
p1
I1
sVd4edvzr
p2
I1
s.(dp0
Vcysnof7
p1
I1
sVd4ez52i
p2
I1
s.(dp0
Vcysnof7
p1
I1
sVd4ez52i
p2
I1
s.(dp0
Vcysnof7
p1
I1
sVd4hmahx
p2
I1
s.(dp0
Vcysnof7
p1
I1
sVd4hmahx
p2
I1
s.(dp0
Vcysnof7
p1
I1
sVd4hmxmd
p2
I1
s.(dp0
Vcysnof7
p1
I1
sVd4huw7o
p2
I1
s.(dp0
Vcysnof7
p1
I1
sVd4iqy2r
p2
I1
s.(dp0
Vcysnof7
p1
I1
sVd4iqy2r
p2
I1
s.(dp0
Vcysnof7
p1
I1
sVd4t2t26
p2
I1
s.(dp0
Vcysnof7
p1
I1
sVd52mogn
p2
I1
s.(dp0
Vcysnof7
p1
I1
sVd52mr72
p2
I1
s.(dp0
Vcysnof7
p1
I1
sVd52mr72
p2
I1
s.(d(dp0
Vcysnof7
p1
I1
sVdkwunb4
p2
I1
s.