(dp0
Vcykxwtt
p1
I1
s.(dp0
Vcz4t8ts
p1
I1
sVcykxwtt
p2
I1
s.(dp0
Vcz4t8ts
p1
I1
sVcykxwtt
p2
I1
s.(dp0
Vcykxwtt
p1
I1
sVd19lajq
p2
I1
s.(dp0
Vcykxwtt
p1
I1
sVd19lajq
p2
I1
s.(dp0
Vddxcbyf
p1
I1
sVcykxwtt
p2
I1
s.(dp0
Vddxcbyf
p1
I1
sVcykxwtt
p2
I1
s.(dp0
Vcykxwtt
p1
I1
sVdev0q7b
p2
I1
s.(dp0
Vcykxwtt
p1
I1
sVdev0q7b
p2
I1
s.(dp0
Vcykxwtt
p1
I1
sVdev0q7b
p2
I1
s.