(dp0
Vcyhzuz7
p1
I1
s.(dp0
Vcyhzuz7
p1
I1
sVcyi1um2
p2
I1
s.(dp0
Vcyhzuz7
p1
I1
sVcyn1k7w
p2
I1
s.(dp0
Vcyhzuz7
p1
I1
sVcyppvrz
p2
I1
s.(dp0
Vcyhzuz7
p1
I1
sVcz0qfo5
p2
I1
s.(dp0
Vcyhzuz7
p1
I1
sVcz0qfo5
p2
I1
s.(dp0
Vcyhzuz7
p1
I1
sVcz8038q
p2
I1
s.(dp0
Vcyhzuz7
p1
I1
sVcz83ftz
p2
I1
s.(dp0
Vcyhzuz7
p1
I1
sVcz8c5dw
p2
I1
s.(dp0
Vcyhzuz7
p1
I1
sVcz9ghl3
p2
I1
s.(dp0
Vcz9gop5
p1
I1
sVcyhzuz7
p2
I1
s.(dp0
Vcz9gop5
p1
I1
sVcyhzuz7
p2
I1
s.(dp0
Vcza0c7e
p1
I1
sVcyhzuz7
p2
I1
s.(dp0
Vcyhzuz7
p1
I1
sVczbzmh1
p2
I1
s.(dp0
Vcyhzuz7
p1
I1
sVczexlo8
p2
I1
s.(dp0
Vcyhzuz7
p1
I1
sVczf6z3p
p2
I1
s.(dp0
Vcyhzuz7
p1
I1
sVczf6z3p
p2
I1
s.(dp0
Vcyhzuz7
p1
I1
sVczhorj8
p2
I1
s.(dp0
Vcyhzuz7
p1
I1
sVczhppj5
p2
I1
s.(dp0
Vcyhzuz7
p1
I1
sVczhppj5
p2
I1
s.(dp0
Vcyhzuz7
p1
I1
sVczk32pf
p2
I1
s.(dp0
Vczk5v13
p1
I1
sVcyhzuz7
p2
I1
s.(dp0
Vcyhzuz7
p1
I1
sVczmex0s
p2
I1
s.(dp0
Vcyhzuz7
p1
I1
sVcztdb0v
p2
I1
s.(dp0
Vcyhzuz7
p1
I1
sVd01ndq4
p2
I1
s.(dp0
Vcyhzuz7
p1
I1
sVd01ndq4
p2
I1
s.(dp0
Vd04ekm4
p1
I1
sVcyhzuz7
p2
I1
s.(dp0
Vcyhzuz7
p1
I1
sVd04hj3k
p2
I1
s.(dp0
Vcyhzuz7
p1
I1
sVd04hj3k
p2
I1
s.(dp0
Vcyhzuz7
p1
I1
sVd05kohs
p2
I1
s.(dp0
Vcyhzuz7
p1
I1
sVd05kohs
p2
I1
s.(dp0
Vd0c4j7s
p1
I1
sVcyhzuz7
p2
I1
s.(dp0
Vcyhzuz7
p1
I1
sVd0d17mn
p2
I1
s.(dp0
Vcyhzuz7
p1
I1
sVd0d3rg0
p2
I1
s.(dp0
Vcyhzuz7
p1
I1
sVd0dkxp1
p2
I1
s.(dp0
Vd0eljsm
p1
I1
sVcyhzuz7
p2
I1
s.(dp0
Vcyhzuz7
p1
I1
sVd0elni8
p2
I1
s.(dp0
Vcyhzuz7
p1
I1
sVd0p5ckt
p2
I1
s.(dp0
Vcyhzuz7
p1
I1
sVd0shm4n
p2
I1
s.(dp0
Vd0to0tv
p1
I1
sVcyhzuz7
p2
I1
s.(dp0
Vcyhzuz7
p1
I1
sVd0tpqdh
p2
I1
s.(dp0
Vcyhzuz7
p1
I1
sVd0tvgvz
p2
I1
s.(dp0
Vd0u1zy8
p1
I1
sVcyhzuz7
p2
I1
s.(dp0
Vcyhzuz7
p1
I1
sVd0u8g7q
p2
I1
s.(dp0
Vcyhzuz7
p1
I1
sVd0ylq8e
p2
I1
s.(dp0
Vcyhzuz7
p1
I1
sVd0ynug3
p2
I1
s.(dp0
Vcyhzuz7
p1
I1
sVd0ynuqr
p2
I1
s.(dp0
Vcyhzuz7
p1
I1
sVd0ynuqr
p2
I1
s.(dp0
Vcyhzuz7
p1
I1
sVd0yw6d7
p2
I1
s.(dp0
Vcyhzuz7
p1
I1
sVd0ywpeu
p2
I1
s.(dp0
Vcyhzuz7
p1
I1
sVd10jy70
p2
I1
s.(dp0
Vcyhzuz7
p1
I1
sVd10tmc7
p2
I1
s.(dp0
Vcyhzuz7
p1
I1
sVd10tmc7
p2
I1
s.(dp0
Vcyhzuz7
p1
I1
sVd10tmc7
p2
I1
s.(dp0
Vcyhzuz7
p1
I1
sVd17a8au
p2
I1
s.(dp0
Vcyhzuz7
p1
I1
sVd17muis
p2
I1
s.(dp0
Vcyhzuz7
p1
I1
sVd17whxx
p2
I1
s.(dp0
Vcyhzuz7
p1
I1
sVd17whxx
p2
I1
s.(dp0
Vcyhzuz7
p1
I1
sVd17whxx
p2
I1
s.(dp0
Vcyhzuz7
p1
I1
sVd1ec5ru
p2
I1
s.(dp0
Vcyhzuz7
p1
I1
sVd1ec5ru
p2
I1
s.(dp0
Vcyhzuz7
p1
I1
sVd1roleu
p2
I1
s.(dp0
Vcyhzuz7
p1
I1
sVd1roleu
p2
I1
s.(dp0
Vcyhzuz7
p1
I1
sVd1tcmrx
p2
I1
s.(dp0
Vcyhzuz7
p1
I1
sVd1zsibz
p2
I1
s.(dp0
Vcyhzuz7
p1
I1
sVd208r3h
p2
I1
s.(dp0
Vcyhzuz7
p1
I1
sVd20cbsm
p2
I1
s.(dp0
Vcyhzuz7
p1
I1
sVd20cbsm
p2
I1
s.(dp0
Vcyhzuz7
p1
I1
sVd2482vp
p2
I1
s.(dp0
Vcyhzuz7
p1
I1
sVd2fdxa0
p2
I1
s.(dp0
Vcyhzuz7
p1
I1
sVd2gkteb
p2
I1
s.(dp0
Vcyhzuz7
p1
I1
sVd2gkteb
p2
I1
s.(dp0
Vcyhzuz7
p1
I1
sVd2gq9s0
p2
I1
s.(dp0
Vcyhzuz7
p1
I1
sVd2gs9af
p2
I1
s.(dp0
Vd2jpdcz
p1
I1
sVcyhzuz7
p2
I1
s.(dp0
Vd2jpdcz
p1
I1
sVcyhzuz7
p2
I1
s.(dp0
Vcyhzuz7
p1
I1
sVd2js5c0
p2
I1
s.(dp0
Vcyhzuz7
p1
I1
sVd2js5c0
p2
I1
s.(dp0
Vcyhzuz7
p1
I1
sVd2js5c0
p2
I1
s.(dp0
Vcyhzuz7
p1
I1
sVd2js5c0
p2
I1
s.(dp0
Vcyhzuz7
p1
I1
sVd2jsnsl
p2
I1
s.(dp0
Vcyhzuz7
p1
I1
sVd2jszkr
p2
I1
s.(dp0
Vcyhzuz7
p1
I1
sVd2jszkr
p2
I1
s.(dp0
Vcyhzuz7
p1
I1
sVd2jtcft
p2
I1
s.(dp0
Vcyhzuz7
p1
I1
sVd2jtxsa
p2
I1
s.(dp0
Vcyhzuz7
p1
I1
sVd2jvs0a
p2
I1
s.(dp0
Vcyhzuz7
p1
I1
sVd2jvs0a
p2
I1
s.(dp0
Vcyhzuz7
p1
I1
sVd2jvs0a
p2
I1
s.(dp0
Vcyhzuz7
p1
I1
sVd2jvs0a
p2
I1
s.(dp0
Vcyhzuz7
p1
I1
sVd2twmwc
p2
I1
s.(dp0
Vcyhzuz7
p1
I1
sVd2uvbhc
p2
I1
s.(dp0
Vcyhzuz7
p1
I1
sVd2whn70
p2
I1
s.(dp0
Vcyhzuz7
p1
I1
sVd312l2r
p2
I1
s.(dp0
Vcyhzuz7
p1
I1
sVd31cfk3
p2
I1
s.(dp0
Vcyhzuz7
p1
I1
sVd35f1wl
p2
I1
s.(dp0
Vd36v88r
p1
I1
sVcyhzuz7
p2
I1
s.(dp0
Vcyhzuz7
p1
I1
sVd38ex4p
p2
I1
s.(dp0
Vcyhzuz7
p1
I1
sVd38ex4p
p2
I1
s.(dp0
Vcyhzuz7
p1
I1
sVd3ai98e
p2
I1
s.(dp0
Vd3ajatx
p1
I1
sVcyhzuz7
p2
I1
s.(dp0
Vcyhzuz7
p1
I1
sVd3g34ke
p2
I1
s.(dp0
Vd3n96p9
p1
I1
sVcyhzuz7
p2
I1
s.(dp0
Vcyhzuz7
p1
I1
sVd41hhve
p2
I1
s.(dp0
Vcyhzuz7
p1
I1
sVd41hhve
p2
I1
s.(dp0
Vcyhzuz7
p1
I1
sVd43mmmn
p2
I1
s.(dp0
Vcyhzuz7
p1
I1
sVd4aoy7e
p2
I1
s.(dp0
Vcyhzuz7
p1
I1
sVd4d4k5z
p2
I1
s.(dp0
Vcyhzuz7
p1
I1
sVd4p24h7
p2
I1
s.(dp0
Vcy(dp0
Vcyhzuz7
p1
I1
sVdksggl4
p2
I1
s.