(dp0
Vd08vf38
p1
I1
s.(dp0
Vd1ptcup
p1
I1
sVd08vf38
p2
I1
s.(dp0
Vd5blgkp
p1
I1
sVd08vf38
p2
I1
s.(dp0
Vd5blgkp
p1
I1
sVd08vf38
p2
I1
s.(dp0
Vd5rhgpe
p1
I1
sVd08vf38
p2
I1
s.(dp0
Vd9yijtx
p1
I1
sVd08vf38
p2
I1
s.(dp0
Vd9yijtx
p1
I1
sVd08vf38
p2
I1
s.(dp0
Vd08vf38
p1
I1
sVdcjw6c9
p2
I1
s.(dp0
Vddhd5b9
p1
I1
sVd08vf38
p2
I1
s.(dp0
Vdfv6je0
p1
I1
sVd08vf38
p2
I1
s.(dp0
Vdgbnzj8
p1
I1
sVd08vf38
p2
I1
s.(dp0
Vdh0yxst
p1
I1
sVd08vf38
p2
I1
s.