(dp0
Vcyi4eou
p1
I1
s.(dp0
Vcyi5wuk
p1
I1
sVcyi4eou
p2
I1
s.(dp0
Vcyi5wuk
p1
I1
sVcyi4eou
p2
I1
s.(dp0
Vcyi6jo7
p1
I1
sVcyi4eou
p2
I1
s.(dp0
Vcyig0pv
p1
I1
sVcyi4eou
p2
I1
s.(dp0
Vcyion75
p1
I1
sVcyi4eou
p2
I1
s.(dp0
Vcyion75
p1
I1
sVcyi4eou
p2
I1
s.(dp0
Vcyj744u
p1
I1
sVcyi4eou
p2
I1
s.(dp0
Vcyjhs5k
p1
I1
sVcyi4eou
p2
I1
s.(dp0
Vcykglk2
p1
I1
sVcyi4eou
p2
I1
s.(dp0
Vcykk44a
p1
I1
sVcyi4eou
p2
I1
s.(dp0
Vcykx159
p1
I1
sVcyi4eou
p2
I1
s.(dp0
Vcymi51q
p1
I1
sVcyi4eou
p2
I1
s.(dp0
Vcyn1757
p1
I1
sVcyi4eou
p2
I1
s.(dp0
Vcyneiyi
p1
I1
sVcyi4eou
p2
I1
s.(dp0
Vcynqnpz
p1
I1
sVcyi4eou
p2
I1
s.(dp0
Vcyob7jz
p1
I1
sVcyi4eou
p2
I1
s.(dp0
Vcyoeoa5
p1
I1
sVcyi4eou
p2
I1
s.(dp0
Vcyoeoa5
p1
I1
sVcyi4eou
p2
I1
s.(dp0
Vcyosmsb
p1
I1
sVcyi4eou
p2
I1
s.(dp0
Vcypuo4u
p1
I1
sVcyi4eou
p2
I1
s.(dp0
Vcyq0kxk
p1
I1
sVcyi4eou
p2
I1
s.(dp0
Vcyrneqc
p1
I1
sVcyi4eou
p2
I1
s.(dp0
Vcyrunnh
p1
I1
sVcyi4eou
p2
I1
s.(dp0
Vcyrunnh
p1
I1
sVcyi4eou
p2
I1
s.(dp0
Vcyrunnh
p1
I1
sVcyi4eou
p2
I1
s.(dp0
Vcyrz81m
p1
I1
sVcyi4eou
p2
I1
s.(dp0
Vcysdvtd
p1
I1
sVcyi4eou
p2
I1
s.(dp0
Vcysgkrc
p1
I1
sVcyi4eou
p2
I1
s.(dp0
Vcysnwwz
p1
I1
sVcyi4eou
p2
I1
s.(dp0
Vcysxihv
p1
I1
sVcyi4eou
p2
I1
s.(dp0
Vcysxihv
p1
I1
sVcyi4eou
p2
I1
s.(dp0
Vcysxihv
p1
I1
sVcyi4eou
p2
I1
s.(dp0
Vcyt1nfz
p1
I1
sVcyi4eou
p2
I1
s.(dp0
Vcyt8agh
p1
I1
sVcyi4eou
p2
I1
s.(dp0
Vcytd0ih
p1
I1
sVcyi4eou
p2
I1
s.(dp0
Vcytkg0p
p1
I1
sVcyi4eou
p2
I1
s.(dp0
Vcyttz0b
p1
I1
sVcyi4eou
p2
I1
s.(dp0
Vcyttz0b
p1
I1
sVcyi4eou
p2
I1
s.(dp0
Vcyug8uk
p1
I1
sVcyi4eou
p2
I1
s.(dp0
Vcyux19k
p1
I1
sVcyi4eou
p2
I1
s.(dp0
Vcyv2wpd
p1
I1
sVcyi4eou
p2
I1
s.(dp0
Vcyvmi18
p1
I1
sVcyi4eou
p2
I1
s.(dp0
Vcyvo5wh
p1
I1
sVcyi4eou
p2
I1
s.(dp0
Vcywkzcf
p1
I1
sVcyi4eou
p2
I1
s.(dp0
Vcywv2bw
p1
I1
sVcyi4eou
p2
I1
s.(dp0
Vcyx5qkm
p1
I1
sVcyi4eou
p2
I1
s.(dp0
Vcyxgt7g
p1
I1
sVcyi4eou
p2
I1
s.(dp0
Vcyyykub
p1
I1
sVcyi4eou
p2
I1
s.(dp0
Vcz0mk6b
p1
I1
sVcyi4eou
p2
I1
s.(dp0
Vcz11gnj
p1
I1
sVcyi4eou
p2
I1
s.(dp0
Vcz14xhu
p1
I1
sVcyi4eou
p2
I1
s.(dp0
Vcz18ltr
p1
I1
sVcyi4eou
p2
I1
s.(dp0
Vcz2q5w6
p1
I1
sVcyi4eou
p2
I1
s.(dp0
Vcz2u8bj
p1
I1
sVcyi4eou
p2
I1
s.(dp0
Vcz32zet
p1
I1
sVcyi4eou
p2
I1
s.(dp0
Vcz434kw
p1
I1
sVcyi4eou
p2
I1
s.(dp0
Vcz46irm
p1
I1
sVcyi4eou
p2
I1
s.(dp0
Vcz4rqgf
p1
I1
sVcyi4eou
p2
I1
s.(dp0
Vcz4rqgf
p1
I1
sVcyi4eou
p2
I1
s.(dp0
Vcz4rvig
p1
I1
sVcyi4eou
p2
I1
s.(dp0
Vcz4vka8
p1
I1
sVcyi4eou
p2
I1
s.(dp0
Vcz4vka8
p1
I1
sVcyi4eou
p2
I1
s.(dp0
Vcz4vka8
p1
I1
sVcyi4eou
p2
I1
s.(dp0
Vcz4vka8
p1
I1
sVcyi4eou
p2
I1
s.(dp0
Vcz4vka8
p1
I1
sVcyi4eou
p2
I1
s.(dp0
Vcz55i0x
p1
I1
sVcyi4eou
p2
I1
s.(dp0
Vcz5iiof
p1
I1
sVcyi4eou
p2
I1
s.(dp0
Vcz5z27e
p1
I1
sVcyi4eou
p2
I1
s.(dp0
Vcz5z27e
p1
I1
sVcyi4eou
p2
I1
s.(dp0
Vcz6q62m
p1
I1
sVcyi4eou
p2
I1
s.(dp0
Vcz7e5hh
p1
I1
sVcyi4eou
p2
I1
s.(dp0
Vcz7febq
p1
I1
sVcyi4eou
p2
I1
s.(dp0
Vcz7l4uc
p1
I1
sVcyi4eou
p2
I1
s.(dp0
Vcz7l4uc
p1
I1
sVcyi4eou
p2
I1
s.(dp0
Vcz7l4uc
p1
I1
sVcyi4eou
p2
I1
s.(dp0
Vcz7sg0v
p1
I1
sVcyi4eou
p2
I1
s.(dp0
Vcz7tle1
p1
I1
sVcyi4eou
p2
I1
s.(dp0
Vcz7vnsv
p1
I1
sVcyi4eou
p2
I1
s.(dp0
Vcz8c5vq
p1
I1
sVcyi4eou
p2
I1
s.(dp0
Vcz8m4nm
p1
I1
sVcyi4eou
p2
I1
s.(dp0
Vcz8m4nm
p1
I1
sVcyi4eou
p2
I1
s.(dp0
Vcz8m4nm
p1
I1
sVcyi4eou
p2
I1
s.(dp0
Vcz8m4nm
p1
I1
sVcyi4eou
p2
I1
s.(dp0
Vcz8m4nm
p1
I1
sVcyi4eou
p2
I1
s.(dp0
Vcz8m4nm
p1
I1
sVcyi4eou
p2
I1
s.(dp0
Vcz8m4nm
p1
I1
sVcyi4eou
p2
I1
s.(dp0
Vcz8m4nm
p1
I1
sVcyi4eou
p2
I1
s.(dp0
Vcz8rg3s
p1
I1
sVcyi4eou
p2
I1
s.(dp0
Vcz97606
p1
I1
sVcyi4eou
p2
I1
s.(dp0
Vcz982dn
p1
I1
sVcyi4eou
p2
I1
s.(dp0
Vcz9gop5
p1
I1
sVcyi4eou
p2
I1
s.(dp0
Vcz9gop5
p1
I1
sVcyi4eou
p2
I1
s.(dp0
Vczaayiu
p1
I1
sVcyi4eou
p2
I1
s.(dp0
Vczaayiu
p1
I1
sVcyi4eou
p2
I1
s.(dp0
Vczaqkqa
p1
I1
sVcyi4eou
p2
I1
s.(dp0
Vczbtwu4
p1
I1
sVcyi4eou
p2
I1
s.(dp0
Vczbtwu4
p1
I1
sVcyi4eou
p2
I1
s.(dp0
Vczc34bx
p1
I1
sVcyi4eou
p2
I1
s.(dp0
Vczci7nd
p1
I1
sVcyi4eou
p2
I1
s.(dp0
Vczds8i5
p1
I1
sVcyi4eou
p2
I1
s.(dp0
Vczeu5gq
p1
I1
sVcyi4eou
p2
I1
s.(dp0
Vczg05ha
p1
I1
sVcyi4eou
p2
I1
s.(dp0
Vczg0x8h
p1
I1
sVcyi4eou
p2
I1
s.(dp0
Vczgymu8
p1
I1
sVcyi4eou
p2
I1
s.(dp0
Vczh8ytc
p1
I1
sVcyi4eou
p2
I1
s.(dp0
Vczhppj5
p1
I1
sVcyi4eou
p2
I1
s.(dp0
Vczi76se
p1
I1
sVcyi4eou
p2
I1
s.(dp0
Vcz(dp0
Vdkz5kwr
p1
I1
sVcyi4eou
p2
I1
s.