(dp0
Vcyjcws3
p1
I1
s.(dp0
Vcyjcws3
p1
I1
sVcykp0gk
p2
I1
s.(dp0
Vcyjcws3
p1
I1
sVcykqzwk
p2
I1
s.(dp0
Vcyjcws3
p1
I1
sVcyn3e9p
p2
I1
s.(dp0
Vcyjcws3
p1
I1
sVcyozymb
p2
I1
s.(dp0
Vcyjcws3
p1
I1
sVcyozymb
p2
I1
s.(dp0
Vcyp8154
p1
I1
sVcyjcws3
p2
I1
s.(dp0
Vcypi1zq
p1
I1
sVcyjcws3
p2
I1
s.(dp0
Vcyqx4qn
p1
I1
sVcyjcws3
p2
I1
s.(dp0
Vcyjcws3
p1
I1
sVcyrtr5s
p2
I1
s.(dp0
Vcyjcws3
p1
I1
sVcys0gyv
p2
I1
s.(dp0
Vcyjcws3
p1
I1
sVcytkk5u
p2
I1
s.(dp0
Vcytwlh0
p1
I1
sVcyjcws3
p2
I1
s.(dp0
Vcyvyz5i
p1
I1
sVcyjcws3
p2
I1
s.(dp0
Vcyxgnqd
p1
I1
sVcyjcws3
p2
I1
s.(dp0
Vcyyofsx
p1
I1
sVcyjcws3
p2
I1
s.(dp0
Vcyyofsx
p1
I1
sVcyjcws3
p2
I1
s.(dp0
Vcyyy3yy
p1
I1
sVcyjcws3
p2
I1
s.(dp0
Vcyjcws3
p1
I1
sVcyyyf13
p2
I1
s.(dp0
Vcyz6m6o
p1
I1
sVcyjcws3
p2
I1
s.(dp0
Vcyzfqvx
p1
I1
sVcyjcws3
p2
I1
s.(dp0
Vcz09ftb
p1
I1
sVcyjcws3
p2
I1
s.(dp0
Vcz0f2tj
p1
I1
sVcyjcws3
p2
I1
s.(dp0
Vcyjcws3
p1
I1
sVcz0qmd6
p2
I1
s.(dp0
Vcyjcws3
p1
I1
sVcz164e5
p2
I1
s.(dp0
Vcz27u02
p1
I1
sVcyjcws3
p2
I1
s.(dp0
Vcz27u02
p1
I1
sVcyjcws3
p2
I1
s.(dp0
Vcyjcws3
p1
I1
sVcz2lxwg
p2
I1
s.(dp0
Vcyjcws3
p1
I1
sVcz2lxwg
p2
I1
s.(dp0
Vcz3jl7h
p1
I1
sVcyjcws3
p2
I1
s.(dp0
Vcz7ozgn
p1
I1
sVcyjcws3
p2
I1
s.(dp0
Vcyjcws3
p1
I1
sVcz88bq0
p2
I1
s.(dp0
Vcyjcws3
p1
I1
sVcz88bq0
p2
I1
s.(dp0
Vcz9iwg6
p1
I1
sVcyjcws3
p2
I1
s.(dp0
Vcz9iy6w
p1
I1
sVcyjcws3
p2
I1
s.(dp0
Vcz9svbv
p1
I1
sVcyjcws3
p2
I1
s.(dp0
Vczbs1un
p1
I1
sVcyjcws3
p2
I1
s.(dp0
Vczdm3pn
p1
I1
sVcyjcws3
p2
I1
s.(dp0
Vczdrt69
p1
I1
sVcyjcws3
p2
I1
s.(dp0
Vczemyzk
p1
I1
sVcyjcws3
p2
I1
s.(dp0
Vcyjcws3
p1
I1
sVczf570u
p2
I1
s.(dp0
Vcyjcws3
p1
I1
sVczgk6mn
p2
I1
s.(dp0
Vczgpd3s
p1
I1
sVcyjcws3
p2
I1
s.(dp0
Vczit34v
p1
I1
sVcyjcws3
p2
I1
s.(dp0
Vcyjcws3
p1
I1
sVczj93ar
p2
I1
s.(dp0
Vczky2o5
p1
I1
sVcyjcws3
p2
I1
s.(dp0
Vczmehvr
p1
I1
sVcyjcws3
p2
I1
s.(dp0
Vczpn39t
p1
I1
sVcyjcws3
p2
I1
s.(dp0
Vczprly2
p1
I1
sVcyjcws3
p2
I1
s.(dp0
Vczq6c18
p1
I1
sVcyjcws3
p2
I1
s.(dp0
Vcyjcws3
p1
I1
sVczrlco9
p2
I1
s.(dp0
Vcyjcws3
p1
I1
sVczrqjsv
p2
I1
s.(dp0
Vczs7v30
p1
I1
sVcyjcws3
p2
I1
s.(dp0
Vczu5flb
p1
I1
sVcyjcws3
p2
I1
s.(dp0
Vcyjcws3
p1
I1
sVczvvtnc
p2
I1
s.(dp0
Vczw2n7i
p1
I1
sVcyjcws3
p2
I1
s.(dp0
Vczwjz76
p1
I1
sVcyjcws3
p2
I1
s.(dp0
Vczws9ht
p1
I1
sVcyjcws3
p2
I1
s.(dp0
Vczxzdag
p1
I1
sVcyjcws3
p2
I1
s.(dp0
Vczz6b0b
p1
I1
sVcyjcws3
p2
I1
s.(dp0
Vczz71yl
p1
I1
sVcyjcws3
p2
I1
s.(dp0
Vcyjcws3
p1
I1
sVczzlqa3
p2
I1
s.(dp0
Vcyjcws3
p1
I1
sVd03ypg3
p2
I1
s.(dp0
Vd04ll95
p1
I1
sVcyjcws3
p2
I1
s.(dp0
Vcyjcws3
p1
I1
sVd05641a
p2
I1
s.(dp0
Vcyjcws3
p1
I1
sVd05o9qh
p2
I1
s.(dp0
Vcyjcws3
p1
I1
sVd06wzte
p2
I1
s.(dp0
Vd0afkcd
p1
I1
sVcyjcws3
p2
I1
s.(dp0
Vd0avbf1
p1
I1
sVcyjcws3
p2
I1
s.(dp0
Vd0b35yb
p1
I1
sVcyjcws3
p2
I1
s.(dp0
Vcyjcws3
p1
I1
sVd0fuvlj
p2
I1
s.(dp0
Vd0ik08z
p1
I1
sVcyjcws3
p2
I1
s.(dp0
Vcyjcws3
p1
I1
sVd0jt4y3
p2
I1
s.(dp0
Vd0knw4w
p1
I1
sVcyjcws3
p2
I1
s.(dp0
Vd0kyio7
p1
I1
sVcyjcws3
p2
I1
s.(dp0
Vcyjcws3
p1
I1
sVd0mlsh6
p2
I1
s.(dp0
Vcyjcws3
p1
I1
sVd0mrn1b
p2
I1
s.(dp0
Vd0nzxqi
p1
I1
sVcyjcws3
p2
I1
s.(dp0
Vcyjcws3
p1
I1
sVd0o0lvq
p2
I1
s.(dp0
Vcyjcws3
p1
I1
sVd0o0lvq
p2
I1
s.(dp0
Vcyjcws3
p1
I1
sVd0o0lvq
p2
I1
s.(dp0
Vd0rowgn
p1
I1
sVcyjcws3
p2
I1
s.(dp0
Vd0rrsa4
p1
I1
sVcyjcws3
p2
I1
s.(dp0
Vcyjcws3
p1
I1
sVd0rttvn
p2
I1
s.(dp0
Vd0ss1fc
p1
I1
sVcyjcws3
p2
I1
s.(dp0
Vd0ss1fc
p1
I1
sVcyjcws3
p2
I1
s.(dp0
Vcyjcws3
p1
I1
sVd0t8qd5
p2
I1
s.(dp0
Vcyjcws3
p1
I1
sVd0udz5q
p2
I1
s.(dp0
Vcyjcws3
p1
I1
sVd0wfktj
p2
I1
s.(dp0
Vd0xw4zt
p1
I1
sVcyjcws3
p2
I1
s.(dp0
Vd0y6rpe
p1
I1
sVcyjcws3
p2
I1
s.(dp0
Vd0zyxq5
p1
I1
sVcyjcws3
p2
I1
s.(dp0
Vcyjcws3
p1
I1
sVd110n3s
p2
I1
s.(dp0
Vd11tzez
p1
I1
sVcyjcws3
p2
I1
s.(dp0
Vcyjcws3
p1
I1
sVd13zynd
p2
I1
s.(dp0
Vcyjcws3
p1
I1
sVd14ghj4
p2
I1
s.(dp0
Vd15i0q7
p1
I1
sVcyjcws3
p2
I1
s.(dp0
Vd16alpf
p1
I1
sVcyjcws3
p2
I1
s.(dp0
Vd17kmqy
p1
I1
sVcyjcws3
p2
I1
s.(dp0
Vd17nqck
p1
I1
sVcyjcws3
p2
I1
s.(dp0
Vd19sooj
p1
I1
sVcyjcws3
p2
I1
s.(dp0
Vd1ae0hc
p1
I1
sVcyjcws3
p2
I1
s.(dp0
Vcyjcws3
p1
I1
sVd1b5odu
p2
I1
s.(dp0
Vcyjcws3
p1
I1
sVd1b6dqf
p2
I1
s.(dp0
Vd1bn1sy
p1
I1
sVcyjcws3
p2
I1
s.(dp0
Vd1bn1sy
p1
I1
sVcyjcws3
p2
I1
s.(dp0
Vd1bpcxm
p1
I1
sVcyjcws3
p2
I1
s.(dp0
Vd1c9av8
p1
I1
sVcyjcws3
p2
I1
s.(dp0
Vd1(dp0
Vcyjcws3
p1
I1
sVdp5isfz
p2
I1
s.