(dp0
Vcywjcbp
p1
I1
s.(dp0
Vd0lmuzv
p1
I1
sVcywjcbp
p2
I1
s.(dp0
Vd0prtih
p1
I1
sVcywjcbp
p2
I1
s.(dp0
Vd0prtih
p1
I1
sVcywjcbp
p2
I1
s.(dp0
Vd4blx4v
p1
I1
sVcywjcbp
p2
I1
s.(dp0
Vd5uixmm
p1
I1
sVcywjcbp
p2
I1
s.(dp0
Vdbt6jk4
p1
I1
sVcywjcbp
p2
I1
s.