(dp0
Vcypkfit
p1
I1
s.(dp0
Vczigbu0
p1
I1
sVcypkfit
p2
I1
s.(dp0
Vczshvdi
p1
I1
sVcypkfit
p2
I1
s.(dp0
Vd2vxhiv
p1
I1
sVcypkfit
p2
I1
s.(dp0
Vdc7n2qe
p1
I1
sVcypkfit
p2
I1
s.(dp0
Vdcj7ev7
p1
I1
sVcypkfit
p2
I1
s.(dp0
Vdhfwscy
p1
I1
sVcypkfit
p2
I1
s.