(dp0
Vd84gxjx
p1
I1
s.(dp0
Vd84gxjx
p1
I1
sVdaxc44w
p2
I1
s.(dp0
Vd84gxjx
p1
I1
sVddjq0fu
p2
I1
s.(dp0
Vd84gxjx
p1
I1
sVdgj83i2
p2
I1
s.(dp0
Vd84gxjx
p1
I1
sVdh0wg53
p2
I1
s.(dp0
Vd84gxjx
p1
I1
sVdjz0g8y
p2
I1
s.(dp0
Vd84gxjx
p1
I1
sVdmvp0t8
p2
I1
s.(dp0
Vd84gxjx
p1
I1
sVdoj1ncn
p2
I1
s.(dp0
Vd84gxjx
p1
I1
sVdp1bqk2
p2
I1
s.