(dp0
Vczdjeoy
p1
I1
s.(dp0
Vczdjeoy
p1
I1
sVd12r5f2
p2
I1
s.(dp0
Vd4oxf35
p1
I1
sVczdjeoy
p2
I1
s.(dp0
Vd4peoxs
p1
I1
sVczdjeoy
p2
I1
s.(dp0
Vd4pq95o
p1
I1
sVczdjeoy
p2
I1
s.(dp0
Vd4z1nou
p1
I1
sVczdjeoy
p2
I1
s.(dp0
Vczdjeoy
p1
I1
sVd4z202p
p2
I1
s.(dp0
Vczdjeoy
p1
I1
sVd4z202p
p2
I1
s.(dp0
Vd68lia5
p1
I1
sVczdjeoy
p2
I1
s.(dp0
Vdbvj5rh
p1
I1
sVczdjeoy
p2
I1
s.(dp0
Vdfc63cm
p1
I1
sVczdjeoy
p2
I1
s.(dp0
Vdfwgs22
p1
I1
sVczdjeoy
p2
I1
s.(dp0
Vdfwgs22
p1
I1
sVczdjeoy
p2
I1
s.(dp0
Vdfwgs22
p1
I1
sVczdjeoy
p2
I1
s.(dp0
Vczdjeoy
p1
I1
sVdkj8dbk
p2
I1
s.