(dp0
Vczm23gm
p1
I1
s.(dp0
Vd04ckrw
p1
I1
sVczm23gm
p2
I1
s.(dp0
Vd074v35
p1
I1
sVczm23gm
p2
I1
s.(dp0
Vd0fzqgt
p1
I1
sVczm23gm
p2
I1
s.(dp0
Vczm23gm
p1
I1
sVd2ownf4
p2
I1
s.(dp0
Vczm23gm
p1
I1
sVd9nkfk3
p2
I1
s.(dp0
Vczm23gm
p1
I1
sVdcptcvh
p2
I1
s.(dp0
Vczm23gm
p1
I1
sVdfdmq4t
p2
I1
s.(dp0
Vdj1zksd
p1
I1
sVczm23gm
p2
I1
s.(dp0
Vdkfk0lx
p1
I1
sVczm23gm
p2
I1
s.(dp0
Vdnflbpp
p1
I1
sVczm23gm
p2
I1
s.