(dp0
Vczx5tkk
p1
I1
s.(dp0
Vd92c8es
p1
I1
sVczx5tkk
p2
I1
s.(dp0
Vd9so2mt
p1
I1
sVczx5tkk
p2
I1
s.(dp0
Vdip7baj
p1
I1
sVczx5tkk
p2
I1
s.(dp0
Vdiq1lis
p1
I1
sVczx5tkk
p2
I1
s.(dp0
Vdn3mpo8
p1
I1
sVczx5tkk
p2
I1
s.