(dp0
Vcyjcws3
p1
I1
s.(dp0
Vcyjv7sl
p1
I1
sVcyjcws3
p2
I1
s.(dp0
Vcyjcws3
p1
I1
sVcymf4wl
p2
I1
s.(dp0
Vcyjcws3
p1
I1
sVcypjp31
p2
I1
s.(dp0
Vcyjcws3
p1
I1
sVcyqk0sh
p2
I1
s.(dp0
Vcyjcws3
p1
I1
sVcyqk0sh
p2
I1
s.(dp0
Vcyjcws3
p1
I1
sVcyqk0sh
p2
I1
s.(dp0
Vcyjcws3
p1
I1
sVcyqk0sh
p2
I1
s.(dp0
Vcyuo52s
p1
I1
sVcyjcws3
p2
I1
s.(dp0
Vcyuo52s
p1
I1
sVcyjcws3
p2
I1
s.(dp0
Vcyjcws3
p1
I1
sVcyup269
p2
I1
s.(dp0
Vcyjcws3
p1
I1
sVcyww7of
p2
I1
s.(dp0
Vcyxyzv2
p1
I1
sVcyjcws3
p2
I1
s.(dp0
Vcyy3sc5
p1
I1
sVcyjcws3
p2
I1
s.(dp0
Vcyy4pbc
p1
I1
sVcyjcws3
p2
I1
s.(dp0
Vcyzyzno
p1
I1
sVcyjcws3
p2
I1
s.(dp0
Vcyzyzno
p1
I1
sVcyjcws3
p2
I1
s.(dp0
Vcz1dxwe
p1
I1
sVcyjcws3
p2
I1
s.(dp0
Vcz1jw3g
p1
I1
sVcyjcws3
p2
I1
s.(dp0
Vcz1jw3g
p1
I1
sVcyjcws3
p2
I1
s.(dp0
Vcz1jw3g
p1
I1
sVcyjcws3
p2
I1
s.(dp0
Vcz1jw3g
p1
I1
sVcyjcws3
p2
I1
s.(dp0
Vcz1jw3g
p1
I1
sVcyjcws3
p2
I1
s.(dp0
Vcz1jw3g
p1
I1
sVcyjcws3
p2
I1
s.(dp0
Vcz1jw3g
p1
I1
sVcyjcws3
p2
I1
s.(dp0
Vcz1jw3g
p1
I1
sVcyjcws3
p2
I1
s.(dp0
Vcz1jw3g
p1
I1
sVcyjcws3
p2
I1
s.(dp0
Vcz1jw3g
p1
I1
sVcyjcws3
p2
I1
s.(dp0
Vcyjcws3
p1
I1
sVcz4cqcn
p2
I1
s.(dp0
Vcyjcws3
p1
I1
sVcz4m68b
p2
I1
s.(dp0
Vcyjcws3
p1
I1
sVcz4m68b
p2
I1
s.(dp0
Vcz72odn
p1
I1
sVcyjcws3
p2
I1
s.(dp0
Vcyjcws3
p1
I1
sVcz75x49
p2
I1
s.(dp0
Vcyjcws3
p1
I1
sVcz75x49
p2
I1
s.(dp0
Vcyjcws3
p1
I1
sVcz75x49
p2
I1
s.(dp0
Vcyjcws3
p1
I1
sVcz9no0e
p2
I1
s.(dp0
Vczah7rc
p1
I1
sVcyjcws3
p2
I1
s.(dp0
Vczaoqac
p1
I1
sVcyjcws3
p2
I1
s.(dp0
Vczbvs53
p1
I1
sVcyjcws3
p2
I1
s.(dp0
Vczc7413
p1
I1
sVcyjcws3
p2
I1
s.(dp0
Vczc7413
p1
I1
sVcyjcws3
p2
I1
s.(dp0
Vcyjcws3
p1
I1
sVczf1puz
p2
I1
s.(dp0
Vczfkog6
p1
I1
sVcyjcws3
p2
I1
s.(dp0
Vcyjcws3
p1
I1
sVczgaeyf
p2
I1
s.(dp0
Vczk7fdf
p1
I1
sVcyjcws3
p2
I1
s.(dp0
Vcyjcws3
p1
I1
sVczl2egc
p2
I1
s.(dp0
Vczly1bm
p1
I1
sVcyjcws3
p2
I1
s.(dp0
Vcyjcws3
p1
I1
sVczmaxp7
p2
I1
s.(dp0
Vcyjcws3
p1
I1
sVczmaxp7
p2
I1
s.(dp0
Vczniwwe
p1
I1
sVcyjcws3
p2
I1
s.(dp0
Vcznz8bc
p1
I1
sVcyjcws3
p2
I1
s.(dp0
Vczo6utv
p1
I1
sVcyjcws3
p2
I1
s.(dp0
Vczp9n3o
p1
I1
sVcyjcws3
p2
I1
s.(dp0
Vczqquif
p1
I1
sVcyjcws3
p2
I1
s.(dp0
Vczqquif
p1
I1
sVcyjcws3
p2
I1
s.(dp0
Vczr13au
p1
I1
sVcyjcws3
p2
I1
s.(dp0
Vczrkyuk
p1
I1
sVcyjcws3
p2
I1
s.(dp0
Vczwadjl
p1
I1
sVcyjcws3
p2
I1
s.(dp0
Vczwadjl
p1
I1
sVcyjcws3
p2
I1
s.(dp0
Vczyjg5t
p1
I1
sVcyjcws3
p2
I1
s.(dp0
Vczz9bxw
p1
I1
sVcyjcws3
p2
I1
s.(dp0
Vczz9bxw
p1
I1
sVcyjcws3
p2
I1
s.(dp0
Vczzhv45
p1
I1
sVcyjcws3
p2
I1
s.(dp0
Vczzhv45
p1
I1
sVcyjcws3
p2
I1
s.(dp0
Vczzhv45
p1
I1
sVcyjcws3
p2
I1
s.(dp0
Vczzl5ip
p1
I1
sVcyjcws3
p2
I1
s.(dp0
Vcyjcws3
p1
I1
sVd005kf0
p2
I1
s.(dp0
Vcyjcws3
p1
I1
sVd035o3h
p2
I1
s.(dp0
Vcyjcws3
p1
I1
sVd04d1bo
p2
I1
s.(dp0
Vd06705o
p1
I1
sVcyjcws3
p2
I1
s.(dp0
Vcyjcws3
p1
I1
sVd081ves
p2
I1
s.(dp0
Vd083gr1
p1
I1
sVcyjcws3
p2
I1
s.(dp0
Vd083gr1
p1
I1
sVcyjcws3
p2
I1
s.(dp0
Vd083gr1
p1
I1
sVcyjcws3
p2
I1
s.(dp0
Vd085ew2
p1
I1
sVcyjcws3
p2
I1
s.(dp0
Vcyjcws3
p1
I1
sVd085v69
p2
I1
s.(dp0
Vcyjcws3
p1
I1
sVd085v69
p2
I1
s.(dp0
Vd085xvx
p1
I1
sVcyjcws3
p2
I1
s.(dp0
Vd085xvx
p1
I1
sVcyjcws3
p2
I1
s.(dp0
Vd085xvx
p1
I1
sVcyjcws3
p2
I1
s.(dp0
Vd085xvx
p1
I1
sVcyjcws3
p2
I1
s.(dp0
Vcyjcws3
p1
I1
sVd086bzp
p2
I1
s.(dp0
Vcyjcws3
p1
I1
sVd086bzp
p2
I1
s.(dp0
Vcyjcws3
p1
I1
sVd086bzp
p2
I1
s.(dp0
Vcyjcws3
p1
I1
sVd086bzp
p2
I1
s.(dp0
Vcyjcws3
p1
I1
sVd086bzp
p2
I1
s.(dp0
Vcyjcws3
p1
I1
sVd086bzp
p2
I1
s.(dp0
Vd086lsb
p1
I1
sVcyjcws3
p2
I1
s.(dp0
Vd086lsb
p1
I1
sVcyjcws3
p2
I1
s.(dp0
Vd086lsb
p1
I1
sVcyjcws3
p2
I1
s.(dp0
Vd086lsb
p1
I1
sVcyjcws3
p2
I1
s.(dp0
Vd0878mn
p1
I1
sVcyjcws3
p2
I1
s.(dp0
Vd0878mn
p1
I1
sVcyjcws3
p2
I1
s.(dp0
Vd0878mn
p1
I1
sVcyjcws3
p2
I1
s.(dp0
Vd0878mn
p1
I1
sVcyjcws3
p2
I1
s.(dp0
Vcyjcws3
p1
I1
sVd0883o7
p2
I1
s.(dp0
Vd089wed
p1
I1
sVcyjcws3
p2
I1
s.(dp0
Vd089wed
p1
I1
sVcyjcws3
p2
I1
s.(dp0
Vd08a9sx
p1
I1
sVcyjcws3
p2
I1
s.(dp0
Vcyjcws3
p1
I1
sVd08e5ri
p2
I1
s.(dp0
Vcyjcws3
p1
I1
sVd08e5ri
p2
I1
s.(dp0
Vcyjcws3
p1
I1
sVd08e5ri
p2
I1
s.(dp0
Vcyjcws3
p1
I1
sVd08e5ri
p2
I1
s.(dp0
Vcyjcws3
p1
I1
sVd08e5ri
p2
I1
s.(dp0
Vd08ecgr
p1
I1
sVcyjcws3
p2
I1
s.(dp0
Vd08ecgr
p1
I1
sVcyjcws3
p2
I1
s.(dp0
Vd08ecgr
p1
I1
sVcyjcws3
p2
I1
s.(dp0
Vd08i8hb
p1
I1
sVcyjcws3
p2
I1
s.(dp0
Vd0(dp0
Vcyjcws3
p1
I1
sVdp1ddrm
p2
I1
s.