(dp0
Vcyigf45
p1
I1
s.(dp0
Vcyigf45
p1
I2
s.(dp0
Vcyigf45
p1
I2
s.(dp0
Vcyio8jq
p1
I1
sVcyigf45
p2
I1
s.(dp0
Vcyjoolc
p1
I1
sVcyigf45
p2
I1
s.(dp0
Vcyl35cw
p1
I1
sVcyigf45
p2
I1
s.(dp0
Vcyigf45
p1
I1
sVcyl63nj
p2
I1
s.(dp0
Vcyigf45
p1
I1
sVcyl63nj
p2
I1
s.(dp0
Vcyigf45
p1
I1
sVcyl63nj
p2
I1
s.(dp0
Vcylhcaw
p1
I1
sVcyigf45
p2
I1
s.(dp0
Vcym0kxs
p1
I1
sVcyigf45
p2
I1
s.(dp0
Vcymdcm4
p1
I1
sVcyigf45
p2
I1
s.(dp0
Vcymjo7s
p1
I1
sVcyigf45
p2
I1
s.(dp0
Vcyigf45
p1
I1
sVcynrmwy
p2
I1
s.(dp0
Vcyphklk
p1
I1
sVcyigf45
p2
I1
s.(dp0
Vcyigf45
p1
I1
sVcyphqw6
p2
I1
s.(dp0
Vcypkrmo
p1
I1
sVcyigf45
p2
I1
s.(dp0
Vcyigf45
p1
I1
sVcyqz2n7
p2
I1
s.(dp0
Vcyrk19r
p1
I1
sVcyigf45
p2
I1
s.(dp0
Vcysp8u9
p1
I1
sVcyigf45
p2
I1
s.(dp0
Vcyspdb6
p1
I1
sVcyigf45
p2
I1
s.(dp0
Vcyspdb6
p1
I1
sVcyigf45
p2
I1
s.(dp0
Vcyigf45
p1
I1
sVcyswokv
p2
I1
s.(dp0
Vcysx9rr
p1
I1
sVcyigf45
p2
I1
s.(dp0
Vcyigf45
p1
I1
sVcysy1k8
p2
I1
s.(dp0
Vcyuawuj
p1
I1
sVcyigf45
p2
I1
s.(dp0
Vcyup45w
p1
I1
sVcyigf45
p2
I1
s.(dp0
Vcyup45w
p1
I1
sVcyigf45
p2
I1
s.(dp0
Vcywli2c
p1
I1
sVcyigf45
p2
I1
s.(dp0
Vcyigf45
p1
I1
sVcyy5waz
p2
I1
s.(dp0
Vcyyn0bs
p1
I1
sVcyigf45
p2
I1
s.(dp0
Vcyypy6a
p1
I1
sVcyigf45
p2
I1
s.(dp0
Vcyz66ze
p1
I1
sVcyigf45
p2
I1
s.(dp0
Vcyzb3pc
p1
I1
sVcyigf45
p2
I1
s.(dp0
Vcz04ido
p1
I1
sVcyigf45
p2
I1
s.(dp0
Vcz0eixl
p1
I1
sVcyigf45
p2
I1
s.(dp0
Vcz0ejes
p1
I1
sVcyigf45
p2
I1
s.(dp0
Vcz0ejes
p1
I1
sVcyigf45
p2
I1
s.(dp0
Vcz0ejes
p1
I1
sVcyigf45
p2
I1
s.(dp0
Vcz0ejes
p1
I1
sVcyigf45
p2
I1
s.(dp0
Vcz0fq3p
p1
I1
sVcyigf45
p2
I1
s.(dp0
Vcz0fu84
p1
I1
sVcyigf45
p2
I1
s.(dp0
Vcz0ivby
p1
I1
sVcyigf45
p2
I1
s.(dp0
Vcz0ivby
p1
I1
sVcyigf45
p2
I1
s.(dp0
Vcz0ivby
p1
I1
sVcyigf45
p2
I1
s.(dp0
Vcz0ivby
p1
I1
sVcyigf45
p2
I1
s.(dp0
Vcz194kg
p1
I1
sVcyigf45
p2
I1
s.(dp0
Vcz1m8tg
p1
I1
sVcyigf45
p2
I1
s.(dp0
Vcz1vnxo
p1
I1
sVcyigf45
p2
I1
s.(dp0
Vcz1zf5l
p1
I1
sVcyigf45
p2
I1
s.(dp0
Vcz1zf5l
p1
I1
sVcyigf45
p2
I1
s.(dp0
Vcyigf45
p1
I1
sVcz2xq1w
p2
I1
s.(dp0
Vcz2zlhh
p1
I1
sVcyigf45
p2
I1
s.(dp0
Vcyigf45
p1
I1
sVcz4p117
p2
I1
s.(dp0
Vcz4xwi6
p1
I1
sVcyigf45
p2
I1
s.(dp0
Vcz5y1qm
p1
I1
sVcyigf45
p2
I1
s.(dp0
Vcyigf45
p1
I1
sVcz5ygmu
p2
I1
s.(dp0
Vcyigf45
p1
I1
sVcz5ygmu
p2
I1
s.(dp0
Vcyigf45
p1
I1
sVcz5ygmu
p2
I1
s.(dp0
Vcyigf45
p1
I1
sVcz5ygmu
p2
I1
s.(dp0
Vcz62ex3
p1
I1
sVcyigf45
p2
I1
s.(dp0
Vcz6a81c
p1
I1
sVcyigf45
p2
I1
s.(dp0
Vcz6a81c
p1
I1
sVcyigf45
p2
I1
s.(dp0
Vcz6n6q1
p1
I1
sVcyigf45
p2
I1
s.(dp0
Vcyigf45
p1
I1
sVcz725vk
p2
I1
s.(dp0
Vcyigf45
p1
I1
sVcz80ak3
p2
I1
s.(dp0
Vcz8gjjk
p1
I1
sVcyigf45
p2
I1
s.(dp0
Vcz8wka3
p1
I1
sVcyigf45
p2
I1
s.(dp0
Vcz8x4ay
p1
I1
sVcyigf45
p2
I1
s.(dp0
Vcz9tln5
p1
I1
sVcyigf45
p2
I1
s.(dp0
Vcyigf45
p1
I1
sVcza0hfc
p2
I1
s.(dp0
Vczarl1i
p1
I1
sVcyigf45
p2
I1
s.(dp0
Vczas0f3
p1
I1
sVcyigf45
p2
I1
s.(dp0
Vczas0f3
p1
I1
sVcyigf45
p2
I1
s.(dp0
Vcyigf45
p1
I1
sVczb0xgc
p2
I1
s.(dp0
Vczc1i76
p1
I1
sVcyigf45
p2
I1
s.(dp0
Vcyigf45
p1
I1
sVczd6dcs
p2
I1
s.(dp0
Vcyigf45
p1
I1
sVczd6dcs
p2
I1
s.(dp0
Vcyigf45
p1
I1
sVczd6dcs
p2
I1
s.(dp0
Vczdrg2a
p1
I1
sVcyigf45
p2
I1
s.(dp0
Vcyigf45
p1
I1
sVczekcbx
p2
I1
s.(dp0
Vcyigf45
p1
I1
sVczekcbx
p2
I1
s.(dp0
Vczekfyk
p1
I1
sVcyigf45
p2
I1
s.(dp0
Vcyigf45
p1
I1
sVczeksn6
p2
I1
s.(dp0
Vcyigf45
p1
I1
sVczeznce
p2
I1
s.(dp0
Vcyigf45
p1
I1
sVczg18lu
p2
I1
s.(dp0
Vcyigf45
p1
I1
sVczg18lu
p2
I1
s.(dp0
Vczgpd3s
p1
I1
sVcyigf45
p2
I1
s.(dp0
Vczhzvaw
p1
I1
sVcyigf45
p2
I1
s.(dp0
Vcyigf45
p1
I1
sVczi4wrx
p2
I1
s.(dp0
Vcyigf45
p1
I1
sVczk56j4
p2
I1
s.(dp0
Vcyigf45
p1
I1
sVczku3zn
p2
I1
s.(dp0
Vcyigf45
p1
I1
sVczku3zn
p2
I1
s.(dp0
Vczlxga3
p1
I1
sVcyigf45
p2
I1
s.(dp0
Vczmmtq0
p1
I1
sVcyigf45
p2
I1
s.(dp0
Vczmmtq0
p1
I1
sVcyigf45
p2
I1
s.(dp0
Vczn6jsz
p1
I1
sVcyigf45
p2
I1
s.(dp0
Vczngpjm
p1
I1
sVcyigf45
p2
I1
s.(dp0
Vczngpjm
p1
I1
sVcyigf45
p2
I1
s.(dp0
Vcyigf45
p1
I1
sVcznqml7
p2
I1
s.(dp0
Vcyigf45
p1
I1
sVcznqml7
p2
I1
s.(dp0
Vcyigf45
p1
I1
sVcznqml7
p2
I1
s.(dp0
Vcyigf45
p1
I1
sVcznqml7
p2
I1
s.(dp0
Vcyigf45
p1
I1
sVcznqml7
p2
I1
s.(dp0
Vcyigf45
p1
I1
sVcznqml7
p2
I1
s.(dp0
Vcyigf45
p1
I1
sVcznqml7
p2
I1
s.(dp0
Vcyigf45
p1
I1
sVcznqml7
p2
I1
s.(dp0
Vcznsicj
p1
I1
sVcyigf45
p2
I1
s.(dp0
Vczo0jje
p1
I1
sVcyigf45
p2
I1
s.(d(dp0
Vdkzfbrb
p1
I1
sVcyigf45
p2
I1
s.