(dp0
Vcz5y0cy
p1
I1
s.(dp0
Vcz63llq
p1
I1
sVcz5y0cy
p2
I1
s.(dp0
Vcz8stoe
p1
I1
sVcz5y0cy
p2
I1
s.(dp0
Vcz5y0cy
p1
I1
sVczjq5yr
p2
I1
s.(dp0
Vcz5y0cy
p1
I1
sVczjq5yr
p2
I1
s.(dp0
Vczjvcdi
p1
I1
sVcz5y0cy
p2
I1
s.(dp0
Vd0oa0ql
p1
I1
sVcz5y0cy
p2
I1
s.(dp0
Vcz5y0cy
p1
I1
sVd1eoxyy
p2
I1
s.(dp0
Vd1gp41t
p1
I1
sVcz5y0cy
p2
I1
s.(dp0
Vd2beisu
p1
I1
sVcz5y0cy
p2
I1
s.(dp0
Vcz5y0cy
p1
I1
sVd2kc5re
p2
I1
s.(dp0
Vd8vim95
p1
I1
sVcz5y0cy
p2
I1
s.(dp0
Vd8vim95
p1
I1
sVcz5y0cy
p2
I1
s.(dp0
Vcz5y0cy
p1
I1
sVdbwgsf7
p2
I1
s.(dp0
Vcz5y0cy
p1
I1
sVddawr2y
p2
I1
s.(dp0
Vcz5y0cy
p1
I1
sVdf0jzrf
p2
I1
s.(dp0
Vcz5y0cy
p1
I1
sVdf0jzrf
p2
I1
s.(dp0
Vcz5y0cy
p1
I1
sVdf0jzrf
p2
I1
s.(dp0
Vcz5y0cy
p1
I1
sVdf0jzrf
p2
I1
s.(dp0
Vdf0kz63
p1
I1
sVcz5y0cy
p2
I1
s.(dp0
Vdf0kz63
p1
I1
sVcz5y0cy
p2
I1
s.(dp0
Vdkkpcr8
p1
I1
sVcz5y0cy
p2
I1
s.