(dp0
Vcyn846j
p1
I1
s.(dp0
Vcyuwvzn
p1
I1
sVcyn846j
p2
I1
s.(dp0
Vcz71e0o
p1
I1
sVcyn846j
p2
I1
s.(dp0
Vcyn846j
p1
I1
sVcz7qrwz
p2
I1
s.(dp0
Vcyn846j
p1
I1
sVczqydh6
p2
I1
s.(dp0
Vd0i99ew
p1
I1
sVcyn846j
p2
I1
s.(dp0
Vd0i99ew
p1
I1
sVcyn846j
p2
I1
s.(dp0
Vd0p9hme
p1
I1
sVcyn846j
p2
I1
s.(dp0
Vd0qblig
p1
I1
sVcyn846j
p2
I1
s.(dp0
Vcyn846j
p1
I1
sVd0xr70w
p2
I1
s.(dp0
Vd134zk1
p1
I1
sVcyn846j
p2
I1
s.(dp0
Vd171ktb
p1
I1
sVcyn846j
p2
I1
s.(dp0
Vd1r52hq
p1
I1
sVcyn846j
p2
I1
s.(dp0
Vd25nrsm
p1
I1
sVcyn846j
p2
I1
s.(dp0
Vd27vsxk
p1
I1
sVcyn846j
p2
I1
s.(dp0
Vcyn846j
p1
I1
sVd27wqv7
p2
I1
s.(dp0
Vcyn846j
p1
I1
sVd27wqv7
p2
I1
s.(dp0
Vcyn846j
p1
I1
sVd2lk7w0
p2
I1
s.(dp0
Vcyn846j
p1
I1
sVd3cei71
p2
I1
s.(dp0
Vcyn846j
p1
I1
sVd3cfx3l
p2
I1
s.(dp0
Vcyn846j
p1
I1
sVd3cfx3l
p2
I1
s.(dp0
Vcyn846j
p1
I1
sVd3cfx3l
p2
I1
s.(dp0
Vcyn846j
p1
I1
sVd3cfx3l
p2
I1
s.(dp0
Vcyn846j
p1
I1
sVd3cfx3l
p2
I1
s.(dp0
Vcyn846j
p1
I1
sVd3cgwvj
p2
I1
s.(dp0
Vcyn846j
p1
I1
sVd3cgwvj
p2
I1
s.(dp0
Vcyn846j
p1
I1
sVd3cgwvj
p2
I1
s.(dp0
Vcyn846j
p1
I1
sVd3cgwvj
p2
I1
s.(dp0
Vcyn846j
p1
I1
sVd3cgwvj
p2
I1
s.(dp0
Vcyn846j
p1
I1
sVd3cgwvj
p2
I1
s.(dp0
Vcyn846j
p1
I1
sVd3cgwvj
p2
I1
s.(dp0
Vcyn846j
p1
I1
sVd3cgwvj
p2
I1
s.(dp0
Vd3d5ioa
p1
I1
sVcyn846j
p2
I1
s.(dp0
Vd3daphp
p1
I1
sVcyn846j
p2
I1
s.(dp0
Vcyn846j
p1
I1
sVd47ah6n
p2
I1
s.(dp0
Vd4xdbfq
p1
I1
sVcyn846j
p2
I1
s.(dp0
Vcyn846j
p1
I1
sVd56e5g2
p2
I1
s.(dp0
Vd56faw8
p1
I1
sVcyn846j
p2
I1
s.(dp0
Vd56fuhz
p1
I1
sVcyn846j
p2
I1
s.(dp0
Vd56fuhz
p1
I1
sVcyn846j
p2
I1
s.(dp0
Vd5omzeu
p1
I1
sVcyn846j
p2
I1
s.(dp0
Vd657y0n
p1
I1
sVcyn846j
p2
I1
s.(dp0
Vcyn846j
p1
I1
sVd6uex7p
p2
I1
s.(dp0
Vcyn846j
p1
I1
sVd6v4hoy
p2
I1
s.(dp0
Vd74dipg
p1
I1
sVcyn846j
p2
I1
s.(dp0
Vcyn846j
p1
I1
sVd7non39
p2
I1
s.(dp0
Vcyn846j
p1
I1
sVd7q4tuw
p2
I1
s.(dp0
Vcyn846j
p1
I1
sVd7svj3m
p2
I1
s.(dp0
Vd8nxfp2
p1
I1
sVcyn846j
p2
I1
s.(dp0
Vd9a5j4v
p1
I1
sVcyn846j
p2
I1
s.(dp0
Vcyn846j
p1
I1
sVd9rw5n9
p2
I1
s.(dp0
Vcyn846j
p1
I1
sVd9w9f2u
p2
I1
s.(dp0
Vcyn846j
p1
I1
sVdaic0g3
p2
I1
s.(dp0
Vdanza4c
p1
I1
sVcyn846j
p2
I1
s.(dp0
Vdat2j97
p1
I1
sVcyn846j
p2
I1
s.(dp0
Vdazunzs
p1
I1
sVcyn846j
p2
I1
s.(dp0
Vdbf59yr
p1
I1
sVcyn846j
p2
I1
s.(dp0
Vdci8n40
p1
I1
sVcyn846j
p2
I1
s.(dp0
Vdddxw63
p1
I1
sVcyn846j
p2
I1
s.(dp0
Vddq0y47
p1
I1
sVcyn846j
p2
I1
s.(dp0
Vddqm6dl
p1
I1
sVcyn846j
p2
I1
s.(dp0
Vddtlsdq
p1
I1
sVcyn846j
p2
I1
s.(dp0
Vde1agew
p1
I1
sVcyn846j
p2
I1
s.(dp0
Vcyn846j
p1
I1
sVdeh0rjc
p2
I1
s.(dp0
Vcyn846j
p1
I1
sVdeh0rjc
p2
I1
s.(dp0
Vderph3w
p1
I1
sVcyn846j
p2
I1
s.(dp0
Vcyn846j
p1
I1
sVdexxxg2
p2
I1
s.(dp0
Vdf3shji
p1
I1
sVcyn846j
p2
I1
s.(dp0
Vcyn846j
p1
I1
sVdfnkqyq
p2
I1
s.(dp0
Vdft3xbv
p1
I1
sVcyn846j
p2
I1
s.(dp0
Vcyn846j
p1
I1
sVdg6b99o
p2
I1
s.(dp0
Vcyn846j
p1
I1
sVdg97r0o
p2
I1
s.(dp0
Vdgh3j7o
p1
I1
sVcyn846j
p2
I1
s.(dp0
Vcyn846j
p1
I1
sVdhfssfo
p2
I1
s.(dp0
Vcyn846j
p1
I1
sVdhgduy4
p2
I1
s.(dp0
Vcyn846j
p1
I1
sVdi942xr
p2
I1
s.(dp0
Vdidat3z
p1
I1
sVcyn846j
p2
I1
s.(dp0
Vdiphlm2
p1
I1
sVcyn846j
p2
I1
s.(dp0
Vcyn846j
p1
I1
sVdjcmiw2
p2
I1
s.(dp0
Vdjktjdv
p1
I1
sVcyn846j
p2
I1
s.(dp0
Vcyn846j
p1
I1
sVdkm5vh0
p2
I1
s.(dp0
Vcyn846j
p1
I1
sVdkm80qb
p2
I1
s.