(dp0
Vcyqf8l4
p1
I1
s.(dp0
Vcyqf8l4
p1
I2
s.(dp0
Vcyqf8l4
p1
I1
sVcyw7uey
p2
I1
s.(dp0
Vcyqf8l4
p1
I1
sVcyxrz88
p2
I1
s.(dp0
Vcyqf8l4
p1
I1
sVcz15qqb
p2
I1
s.(dp0
Vcyqf8l4
p1
I1
sVcz1y7of
p2
I1
s.(dp0
Vcyqf8l4
p1
I1
sVcz2tkta
p2
I1
s.(dp0
Vcyqf8l4
p1
I1
sVcz928dc
p2
I1
s.(dp0
Vcyqf8l4
p1
I1
sVczarwdk
p2
I1
s.(dp0
Vcyqf8l4
p1
I1
sVczg9aaa
p2
I1
s.(dp0
Vcyqf8l4
p1
I1
sVczrgslh
p2
I1
s.(dp0
Vcyqf8l4
p1
I1
sVczwaw3e
p2
I1
s.(dp0
Vcyqf8l4
p1
I1
sVd00c80q
p2
I1
s.(dp0
Vcyqf8l4
p1
I1
sVd03oy6r
p2
I1
s.(dp0
Vcyqf8l4
p1
I1
sVd07yj47
p2
I1
s.(dp0
Vcyqf8l4
p1
I1
sVd0fluod
p2
I1
s.(dp0
Vcyqf8l4
p1
I1
sVd0vw4jp
p2
I1
s.(dp0
Vcyqf8l4
p1
I1
sVd0woox4
p2
I1
s.(dp0
Vcyqf8l4
p1
I1
sVd0wver5
p2
I1
s.(dp0
Vcyqf8l4
p1
I1
sVd134zk1
p2
I1
s.(dp0
Vcyqf8l4
p1
I1
sVd14n8py
p2
I1
s.(dp0
Vcyqf8l4
p1
I1
sVd19mnf9
p2
I1
s.(dp0
Vcyqf8l4
p1
I1
sVd1jqhei
p2
I1
s.(dp0
Vcyqf8l4
p1
I1
sVd1na5x8
p2
I1
s.(dp0
Vcyqf8l4
p1
I1
sVd22vtk9
p2
I1
s.(dp0
Vcyqf8l4
p1
I1
sVd23i8xw
p2
I1
s.(dp0
Vcyqf8l4
p1
I1
sVd329tdg
p2
I1
s.(dp0
Vcyqf8l4
p1
I1
sVd39n07i
p2
I1
s.(dp0
Vcyqf8l4
p1
I1
sVd3arglc
p2
I1
s.(dp0
Vcyqf8l4
p1
I1
sVd3dgzkl
p2
I1
s.(dp0
Vcyqf8l4
p1
I1
sVd3sosft
p2
I1
s.(dp0
Vcyqf8l4
p1
I1
sVd3vf80e
p2
I1
s.(dp0
Vcyqf8l4
p1
I1
sVd3y32kx
p2
I1
s.(dp0
Vcyqf8l4
p1
I1
sVd3zbd2r
p2
I1
s.(dp0
Vcyqf8l4
p1
I1
sVd4b08jl
p2
I1
s.(dp0
Vcyqf8l4
p1
I1
sVd4ce606
p2
I1
s.(dp0
Vcyqf8l4
p1
I1
sVd4e5qdi
p2
I1
s.(dp0
Vcyqf8l4
p1
I1
sVd4i4iph
p2
I1
s.(dp0
Vcyqf8l4
p1
I1
sVd4ijm32
p2
I1
s.(dp0
Vcyqf8l4
p1
I1
sVd4u3pf5
p2
I1
s.(dp0
Vcyqf8l4
p1
I1
sVd54gmcj
p2
I1
s.(dp0
Vcyqf8l4
p1
I1
sVd596jbi
p2
I1
s.(dp0
Vcyqf8l4
p1
I1
sVd5cvyx4
p2
I1
s.(dp0
Vcyqf8l4
p1
I1
sVd5el7p6
p2
I1
s.(dp0
Vcyqf8l4
p1
I1
sVd5gxb0s
p2
I1
s.(dp0
Vcyqf8l4
p1
I1
sVd5ox02w
p2
I1
s.(dp0
Vcyqf8l4
p1
I1
sVd5ymlfz
p2
I1
s.(dp0
Vcyqf8l4
p1
I1
sVd5zccn5
p2
I1
s.(dp0
Vcyqf8l4
p1
I1
sVd65fzqk
p2
I1
s.(dp0
Vcyqf8l4
p1
I1
sVd67uh34
p2
I1
s.(dp0
Vcyqf8l4
p1
I1
sVd6a3teo
p2
I1
s.(dp0
Vcyqf8l4
p1
I1
sVd6e7tlk
p2
I1
s.(dp0
Vcyqf8l4
p1
I1
sVd6kw4t0
p2
I1
s.(dp0
Vcyqf8l4
p1
I1
sVd6x2uls
p2
I1
s.(dp0
Vcyqf8l4
p1
I1
sVd6xlvik
p2
I1
s.(dp0
Vcyqf8l4
p1
I1
sVd7q72zi
p2
I1
s.(dp0
Vcyqf8l4
p1
I1
sVd7rsdc9
p2
I1
s.(dp0
Vcyqf8l4
p1
I1
sVd7sy05v
p2
I1
s.(dp0
Vcyqf8l4
p1
I1
sVd7tuar3
p2
I1
s.(dp0
Vcyqf8l4
p1
I1
sVd84uuxr
p2
I1
s.(dp0
Vcyqf8l4
p1
I1
sVd8f9n33
p2
I1
s.(dp0
Vcyqf8l4
p1
I1
sVd8oukbs
p2
I1
s.(dp0
Vcyqf8l4
p1
I1
sVd8rcfql
p2
I1
s.(dp0
Vcyqf8l4
p1
I1
sVd9esmmb
p2
I1
s.(dp0
Vcyqf8l4
p1
I1
sVd9hdw2c
p2
I1
s.(dp0
Vcyqf8l4
p1
I1
sVd9i7opz
p2
I1
s.(dp0
Vcyqf8l4
p1
I1
sVd9m8wf7
p2
I1
s.(dp0
Vcyqf8l4
p1
I1
sVd9pzxxe
p2
I1
s.(dp0
Vcyqf8l4
p1
I1
sVdaha8j6
p2
I1
s.(dp0
Vcyqf8l4
p1
I1
sVdaikhew
p2
I1
s.(dp0
Vcyqf8l4
p1
I1
sVdb4lliu
p2
I1
s.(dp0
Vcyqf8l4
p1
I1
sVdb64wdr
p2
I1
s.(dp0
Vcyqf8l4
p1
I1
sVdbctvb1
p2
I1
s.(dp0
Vcyqf8l4
p1
I1
sVdbctvb3
p2
I1
s.(dp0
Vcyqf8l4
p1
I1
sVdbctvb6
p2
I1
s.(dp0
Vcyqf8l4
p1
I1
sVdbctvba
p2
I1
s.(dp0
Vcyqf8l4
p1
I1
sVdbk304d
p2
I1
s.(dp0
Vcyqf8l4
p1
I1
sVdbmy2ss
p2
I1
s.(dp0
Vcyqf8l4
p1
I1
sVdbwkj5t
p2
I1
s.(dp0
Vcyqf8l4
p1
I1
sVdbykznh
p2
I1
s.(dp0
Vcyqf8l4
p1
I1
sVdc49yfm
p2
I1
s.(dp0
Vcyqf8l4
p1
I1
sVdc5c9vv
p2
I1
s.(dp0
Vcyqf8l4
p1
I1
sVdc8fqgz
p2
I1
s.(dp0
Vcyqf8l4
p1
I1
sVdcm8u3k
p2
I1
s.(dp0
Vcyqf8l4
p1
I1
sVdcmd76s
p2
I1
s.(dp0
Vcyqf8l4
p1
I1
sVdcxfrgv
p2
I1
s.(dp0
Vcyqf8l4
p1
I1
sVdd1sdb2
p2
I1
s.(dp0
Vcyqf8l4
p1
I1
sVdd8qiwk
p2
I1
s.(dp0
Vcyqf8l4
p1
I1
sVdd9jmwh
p2
I1
s.(dp0
Vcyqf8l4
p1
I1
sVdd9sq86
p2
I1
s.(dp0
Vcyqf8l4
p1
I1
sVddgv0ag
p2
I1
s.(dp0
Vcyqf8l4
p1
I1
sVddus9il
p2
I1
s.(dp0
Vcyqf8l4
p1
I1
sVddw6d9d
p2
I1
s.(dp0
Vcyqf8l4
p1
I1
sVddwvtyx
p2
I1
s.(dp0
Vcyqf8l4
p1
I1
sVddyt756
p2
I1
s.(dp0
Vcyqf8l4
p1
I1
sVde5rvcu
p2
I1
s.(dp0
Vcyqf8l4
p1
I1
sVde79ttb
p2
I1
s.(dp0
Vcyqf8l4
p1
I1
sVdef821e
p2
I1
s.(dp0
Vcyqf8l4
p1
I1
sVdehxzxq
p2
I1
s.(dp0
Vcyqf8l4
p1
I1
sVdeieh36
p2
I1
s.(dp0
Vcyqf8l4
p1
I1
sVdengir2
p2
I1
s.(dp0
Vcyqf8l4
p1
I1
sVdet2ieb
p2
I1
s.(dp0
Vcyqf8l4
p1
I1
sVdevigzr
p2
I1
s.(dp0
Vcyqf8l4
p1
I1
sVdf1visb
p2
I1
s.(dp0
Vcyqf8l4
p1
I1
sVdf7gln5
p2
I1
s.(dp0
Vcyqf8l4
p1
I1
sVdfapmdi
p2
I1
s.(dp0
Vcyqf8l4
p1
I1
sVdfk95zi
p2
I1
s.(dp0
Vcyqf8l4
p1
I1
sVdfm7pfs
p2
I1
s.(dp0
Vcyqf8l4
p1
I1
sVdf(dp0
Vcyqf8l4
p1
I1
sVdkuhnf6
p2
I1
s.