(dp0
Vcym4v0j
p1
I1
s.(dp0
Vcym4v0j
p1
I1
sVcz3x7i8
p2
I1
s.(dp0
Vd1k7nvv
p1
I1
sVcym4v0j
p2
I1
s.(dp0
Vcym4v0j
p1
I1
sVd2qpgi4
p2
I1
s.(dp0
Vcym4v0j
p1
I1
sVd44qlax
p2
I1
s.(dp0
Vcym4v0j
p1
I1
sVd4ug2ig
p2
I1
s.(dp0
Vd4uh0hk
p1
I1
sVcym4v0j
p2
I1
s.(dp0
Vcym4v0j
p1
I1
sVd9iin0u
p2
I1
s.(dp0
Vcym4v0j
p1
I1
sVdampndc
p2
I1
s.(dp0
Vcym4v0j
p1
I1
sVdayhly0
p2
I1
s.(dp0
Vcym4v0j
p1
I1
sVdbb1f9k
p2
I1
s.(dp0
Vcym4v0j
p1
I1
sVdevhjm2
p2
I1
s.(dp0
Vdg4l645
p1
I1
sVcym4v0j
p2
I1
s.(dp0
Vcym4v0j
p1
I1
sVdh4q6o2
p2
I1
s.(dp0
Vdhplig3
p1
I1
sVcym4v0j
p2
I1
s.(dp0
Vcym4v0j
p1
I1
sVdim8hq7
p2
I1
s.(dp0
Vcym4v0j
p1
I1
sVdim8hq7
p2
I1
s.(dp0
Vdj5cfu5
p1
I1
sVcym4v0j
p2
I1
s.