(dp0
Vcznx4fd
p1
I1
s.(dp0
Vczx7toh
p1
I1
sVcznx4fd
p2
I1
s.(dp0
Vd0674fu
p1
I1
sVcznx4fd
p2
I1
s.(dp0
Vcznx4fd
p1
I1
sVd0675jx
p2
I1
s.(dp0
Vcznx4fd
p1
I1
sVd0675jx
p2
I1
s.(dp0
Vd100cy8
p1
I1
sVcznx4fd
p2
I1
s.(dp0
Vd1o1nj2
p1
I1
sVcznx4fd
p2
I1
s.(dp0
Vd1vmzjh
p1
I1
sVcznx4fd
p2
I1
s.(dp0
Vd227tge
p1
I1
sVcznx4fd
p2
I1
s.(dp0
Vd34oyqn
p1
I1
sVcznx4fd
p2
I1
s.(dp0
Vd3epmga
p1
I1
sVcznx4fd
p2
I1
s.(dp0
Vd3p84ly
p1
I1
sVcznx4fd
p2
I1
s.(dp0
Vd4ypxqp
p1
I1
sVcznx4fd
p2
I1
s.(dp0
Vd52r3a5
p1
I1
sVcznx4fd
p2
I1
s.(dp0
Vdabzvfk
p1
I1
sVcznx4fd
p2
I1
s.(dp0
Vcznx4fd
p1
I1
sVdfldmji
p2
I1
s.(dp0
Vdfo0see
p1
I1
sVcznx4fd
p2
I1
s.(dp0
Vdgyf6pw
p1
I1
sVcznx4fd
p2
I1
s.(dp0
Vdhnfax6
p1
I1
sVcznx4fd
p2
I1
s.(dp0
Vcznx4fd
p1
I1
sVdj3z6n3
p2
I1
s.