(dp0
Vcyidh07
p1
I1
s.(dp0
Vcyxfyvi
p1
I1
sVcyidh07
p2
I1
s.(dp0
Vcyzd594
p1
I1
sVcyidh07
p2
I1
s.(dp0
Vcz026qa
p1
I1
sVcyidh07
p2
I1
s.(dp0
Vcyidh07
p1
I1
sVcz27axy
p2
I1
s.(dp0
Vcyidh07
p1
I1
sVcz2cb5z
p2
I1
s.(dp0
Vcz2stkx
p1
I1
sVcyidh07
p2
I1
s.(dp0
Vcz2stkx
p1
I1
sVcyidh07
p2
I1
s.(dp0
Vcyidh07
p1
I1
sVcz6rwg9
p2
I1
s.(dp0
Vcz8ug6d
p1
I1
sVcyidh07
p2
I1
s.(dp0
Vcyidh07
p1
I1
sVczafyqq
p2
I1
s.(dp0
Vczca3vw
p1
I1
sVcyidh07
p2
I1
s.(dp0
Vczed4hw
p1
I1
sVcyidh07
p2
I1
s.(dp0
Vczfk0d2
p1
I1
sVcyidh07
p2
I1
s.(dp0
Vcyidh07
p1
I1
sVczg2t2b
p2
I1
s.(dp0
Vczi9mc5
p1
I1
sVcyidh07
p2
I1
s.(dp0
Vczmnsu3
p1
I1
sVcyidh07
p2
I1
s.(dp0
Vczns60y
p1
I1
sVcyidh07
p2
I1
s.(dp0
Vcztmiz0
p1
I1
sVcyidh07
p2
I1
s.(dp0
Vcyidh07
p1
I1
sVczvykv9
p2
I1
s.(dp0
Vcyidh07
p1
I1
sVczw0rjr
p2
I1
s.(dp0
Vd01rofa
p1
I1
sVcyidh07
p2
I1
s.(dp0
Vd03ug1k
p1
I1
sVcyidh07
p2
I1
s.(dp0
Vcyidh07
p1
I1
sVd04laml
p2
I1
s.(dp0
Vcyidh07
p1
I1
sVd04laml
p2
I1
s.(dp0
Vd062yye
p1
I1
sVcyidh07
p2
I1
s.(dp0
Vd08q7lg
p1
I1
sVcyidh07
p2
I1
s.(dp0
Vd0at9dz
p1
I1
sVcyidh07
p2
I1
s.(dp0
Vd0ii6ks
p1
I1
sVcyidh07
p2
I1
s.(dp0
Vd0jzkk9
p1
I1
sVcyidh07
p2
I1
s.(dp0
Vd0jzkk9
p1
I1
sVcyidh07
p2
I1
s.(dp0
Vd0kjmfg
p1
I1
sVcyidh07
p2
I1
s.(dp0
Vd0ry4f5
p1
I1
sVcyidh07
p2
I1
s.(dp0
Vcyidh07
p1
I1
sVd0wcmgk
p2
I1
s.(dp0
Vd148cdq
p1
I1
sVcyidh07
p2
I1
s.(dp0
Vd14rhxz
p1
I1
sVcyidh07
p2
I1
s.(dp0
Vd177nf9
p1
I1
sVcyidh07
p2
I1
s.(dp0
Vd177nf9
p1
I1
sVcyidh07
p2
I1
s.(dp0
Vd177nf9
p1
I1
sVcyidh07
p2
I1
s.(dp0
Vd177nf9
p1
I1
sVcyidh07
p2
I1
s.(dp0
Vd177nf9
p1
I1
sVcyidh07
p2
I1
s.(dp0
Vd177nf9
p1
I1
sVcyidh07
p2
I1
s.(dp0
Vd177nf9
p1
I1
sVcyidh07
p2
I1
s.(dp0
Vd1banjo
p1
I1
sVcyidh07
p2
I1
s.(dp0
Vcyidh07
p1
I1
sVd1okk97
p2
I1
s.(dp0
Vd1yqhzm
p1
I1
sVcyidh07
p2
I1
s.(dp0
Vd1zcjif
p1
I1
sVcyidh07
p2
I1
s.(dp0
Vd24b1sm
p1
I1
sVcyidh07
p2
I1
s.(dp0
Vcyidh07
p1
I1
sVd25fuoi
p2
I1
s.(dp0
Vcyidh07
p1
I1
sVd298g2p
p2
I1
s.(dp0
Vcyidh07
p1
I1
sVd2bg8ys
p2
I1
s.(dp0
Vd2em0la
p1
I1
sVcyidh07
p2
I1
s.(dp0
Vd2em0la
p1
I1
sVcyidh07
p2
I1
s.(dp0
Vcyidh07
p1
I1
sVd2f01vy
p2
I1
s.(dp0
Vd2ff92c
p1
I1
sVcyidh07
p2
I1
s.(dp0
Vcyidh07
p1
I1
sVd2ymnx3
p2
I1
s.(dp0
Vd2zsirr
p1
I1
sVcyidh07
p2
I1
s.(dp0
Vd30sd7y
p1
I1
sVcyidh07
p2
I1
s.(dp0
Vd312mew
p1
I1
sVcyidh07
p2
I1
s.(dp0
Vd34c07c
p1
I1
sVcyidh07
p2
I1
s.(dp0
Vcyidh07
p1
I1
sVd358ajy
p2
I1
s.(dp0
Vd38ezai
p1
I1
sVcyidh07
p2
I1
s.(dp0
Vd3eshm5
p1
I1
sVcyidh07
p2
I1
s.(dp0
Vcyidh07
p1
I1
sVd3flqa3
p2
I1
s.(dp0
Vcyidh07
p1
I1
sVd3k1z1i
p2
I1
s.(dp0
Vd462n9m
p1
I1
sVcyidh07
p2
I1
s.(dp0
Vd4quq07
p1
I1
sVcyidh07
p2
I1
s.(dp0
Vd4ykye4
p1
I1
sVcyidh07
p2
I1
s.(dp0
Vd56gxbj
p1
I1
sVcyidh07
p2
I1
s.(dp0
Vcyidh07
p1
I1
sVd58p4zg
p2
I1
s.(dp0
Vcyidh07
p1
I1
sVd58p4zg
p2
I1
s.(dp0
Vcyidh07
p1
I1
sVd5aese8
p2
I1
s.(dp0
Vcyidh07
p1
I1
sVd5c6178
p2
I1
s.(dp0
Vcyidh07
p1
I1
sVd5i2uux
p2
I1
s.(dp0
Vcyidh07
p1
I1
sVd5vupvd
p2
I1
s.(dp0
Vd5w574m
p1
I1
sVcyidh07
p2
I1
s.(dp0
Vcyidh07
p1
I1
sVd6000md
p2
I1
s.(dp0
Vd62tsxt
p1
I1
sVcyidh07
p2
I1
s.(dp0
Vd68maen
p1
I1
sVcyidh07
p2
I1
s.(dp0
Vd6u4r65
p1
I1
sVcyidh07
p2
I1
s.(dp0
Vd6w7k3n
p1
I1
sVcyidh07
p2
I1
s.(dp0
Vd6y58se
p1
I1
sVcyidh07
p2
I1
s.(dp0
Vd77sme6
p1
I1
sVcyidh07
p2
I1
s.(dp0
Vcyidh07
p1
I1
sVd79k2a0
p2
I1
s.(dp0
Vcyidh07
p1
I1
sVd79xph2
p2
I1
s.(dp0
Vcyidh07
p1
I1
sVd79xph2
p2
I1
s.(dp0
Vcyidh07
p1
I1
sVd7ewk7a
p2
I1
s.(dp0
Vd7ms95u
p1
I1
sVcyidh07
p2
I1
s.(dp0
Vcyidh07
p1
I1
sVd7ur21b
p2
I1
s.(dp0
Vd7y5hpi
p1
I1
sVcyidh07
p2
I1
s.(dp0
Vcyidh07
p1
I1
sVd81txex
p2
I1
s.(dp0
Vd845d4q
p1
I1
sVcyidh07
p2
I1
s.(dp0
Vd8ceq41
p1
I1
sVcyidh07
p2
I1
s.(dp0
Vcyidh07
p1
I1
sVd8ctauk
p2
I1
s.(dp0
Vcyidh07
p1
I1
sVd8d88ik
p2
I1
s.(dp0
Vcyidh07
p1
I1
sVd8d88ik
p2
I1
s.(dp0
Vcyidh07
p1
I1
sVd8go16m
p2
I1
s.(dp0
Vd8o2iav
p1
I1
sVcyidh07
p2
I1
s.(dp0
Vcyidh07
p1
I1
sVd91alik
p2
I1
s.(dp0
Vd9ahjci
p1
I1
sVcyidh07
p2
I1
s.(dp0
Vd9ke8ku
p1
I1
sVcyidh07
p2
I1
s.(dp0
Vd9nbjva
p1
I1
sVcyidh07
p2
I1
s.(dp0
Vd9nemz8
p1
I1
sVcyidh07
p2
I1
s.(dp0
Vd9qx4l5
p1
I1
sVcyidh07
p2
I1
s.(dp0
Vd9tkn0v
p1
I1
sVcyidh07
p2
I1
s.(dp0
Vd9xkzzz
p1
I1
sVcyidh07
p2
I1
s.(dp0
Vdabwkge
p1
I1
sVcyidh07
p2
I1
s.(dp0
Vdac0wc2
p1
I1
sVcyidh07
p2
I1
s.(dp0
Vda(dp0
Vcyidh07
p1
I1
sVdkppzq4
p2
I1
s.