(dp0
Vczs5ajf
p1
I1
s.(dp0
Vd0z5mx8
p1
I1
sVczs5ajf
p2
I1
s.(dp0
Vd7zt2wo
p1
I1
sVczs5ajf
p2
I1
s.(dp0
Vdf8r6kc
p1
I1
sVczs5ajf
p2
I1
s.(dp0
Vdhlk9fg
p1
I1
sVczs5ajf
p2
I1
s.(dp0
Vdinsfy2
p1
I1
sVczs5ajf
p2
I1
s.(dp0
Vdk0fpw4
p1
I1
sVczs5ajf
p2
I1
s.