(dp0
Vcynj1x5
p1
I1
s.(dp0
Vcysv93j
p1
I1
sVcynj1x5
p2
I1
s.(dp0
Vcyta81h
p1
I1
sVcynj1x5
p2
I1
s.(dp0
Vcz4qsj6
p1
I1
sVcynj1x5
p2
I1
s.(dp0
Vcz71l4g
p1
I1
sVcynj1x5
p2
I1
s.(dp0
Vcz71l4g
p1
I1
sVcynj1x5
p2
I1
s.(dp0
Vcz71l4g
p1
I1
sVcynj1x5
p2
I1
s.(dp0
Vcz7ih5d
p1
I1
sVcynj1x5
p2
I1
s.(dp0
Vczbzfo1
p1
I1
sVcynj1x5
p2
I1
s.(dp0
Vcynj1x5
p1
I1
sVczfmrm3
p2
I1
s.(dp0
Vcynj1x5
p1
I1
sVczp8rp9
p2
I1
s.(dp0
Vczx14wt
p1
I1
sVcynj1x5
p2
I1
s.(dp0
Vcynj1x5
p1
I1
sVd0b5nzh
p2
I1
s.(dp0
Vcynj1x5
p1
I1
sVd0jl2n3
p2
I1
s.(dp0
Vcynj1x5
p1
I1
sVd0komh7
p2
I1
s.(dp0
Vcynj1x5
p1
I1
sVd0rbi0p
p2
I1
s.(dp0
Vcynj1x5
p1
I1
sVd0xvhip
p2
I1
s.(dp0
Vd1298p7
p1
I1
sVcynj1x5
p2
I1
s.(dp0
Vd1298p7
p1
I1
sVcynj1x5
p2
I1
s.(dp0
Vcynj1x5
p1
I1
sVd1311ow
p2
I1
s.(dp0
Vcynj1x5
p1
I1
sVd131agt
p2
I1
s.(dp0
Vcynj1x5
p1
I1
sVd1gkftb
p2
I1
s.(dp0
Vcynj1x5
p1
I1
sVd1tvndw
p2
I1
s.(dp0
Vd1v2hpd
p1
I1
sVcynj1x5
p2
I1
s.(dp0
Vcynj1x5
p1
I1
sVd29p5s0
p2
I1
s.(dp0
Vd2fqke4
p1
I1
sVcynj1x5
p2
I1
s.(dp0
Vd2h2g3i
p1
I1
sVcynj1x5
p2
I1
s.(dp0
Vcynj1x5
p1
I1
sVd2o6ydu
p2
I1
s.(dp0
Vcynj1x5
p1
I1
sVd3b55ru
p2
I1
s.(dp0
Vcynj1x5
p1
I1
sVd3doh2x
p2
I1
s.(dp0
Vcynj1x5
p1
I1
sVd3doh2x
p2
I1
s.(dp0
Vcynj1x5
p1
I1
sVd3gkcek
p2
I1
s.(dp0
Vd40pixd
p1
I1
sVcynj1x5
p2
I1
s.(dp0
Vcynj1x5
p1
I1
sVd43nh1q
p2
I1
s.(dp0
Vcynj1x5
p1
I1
sVd45p4ge
p2
I1
s.(dp0
Vcynj1x5
p1
I1
sVd45p4ge
p2
I1
s.(dp0
Vd48b2vx
p1
I1
sVcynj1x5
p2
I1
s.(dp0
Vd63n4r0
p1
I1
sVcynj1x5
p2
I1
s.(dp0
Vcynj1x5
p1
I1
sVd68muk3
p2
I1
s.(dp0
Vd6d5ho3
p1
I1
sVcynj1x5
p2
I1
s.(dp0
Vd6h8rgf
p1
I1
sVcynj1x5
p2
I1
s.(dp0
Vcynj1x5
p1
I1
sVd6jr853
p2
I1
s.(dp0
Vcynj1x5
p1
I1
sVd6lflmx
p2
I1
s.(dp0
Vcynj1x5
p1
I1
sVd6waiaw
p2
I1
s.(dp0
Vcynj1x5
p1
I1
sVd6wqg5q
p2
I1
s.(dp0
Vd72kcss
p1
I1
sVcynj1x5
p2
I1
s.(dp0
Vcynj1x5
p1
I1
sVd745g9t
p2
I1
s.(dp0
Vd745js1
p1
I1
sVcynj1x5
p2
I1
s.(dp0
Vd7myv5g
p1
I1
sVcynj1x5
p2
I1
s.(dp0
Vcynj1x5
p1
I1
sVd7twy85
p2
I1
s.(dp0
Vd7y73mr
p1
I1
sVcynj1x5
p2
I1
s.(dp0
Vcynj1x5
p1
I1
sVd7y7g6r
p2
I1
s.(dp0
Vd7ygezs
p1
I1
sVcynj1x5
p2
I1
s.(dp0
Vcynj1x5
p1
I1
sVd7yvb9z
p2
I1
s.(dp0
Vcynj1x5
p1
I1
sVd88x9fp
p2
I1
s.(dp0
Vd89mgop
p1
I1
sVcynj1x5
p2
I1
s.(dp0
Vd89mgop
p1
I1
sVcynj1x5
p2
I1
s.(dp0
Vcynj1x5
p1
I1
sVd8a0295
p2
I1
s.(dp0
Vcynj1x5
p1
I1
sVd8a0295
p2
I1
s.(dp0
Vd8c27za
p1
I1
sVcynj1x5
p2
I1
s.(dp0
Vd8e21um
p1
I1
sVcynj1x5
p2
I1
s.(dp0
Vd8e5w8z
p1
I1
sVcynj1x5
p2
I1
s.(dp0
Vcynj1x5
p1
I1
sVd8f8nbi
p2
I1
s.(dp0
Vcynj1x5
p1
I1
sVd8f8nbi
p2
I1
s.(dp0
Vcynj1x5
p1
I1
sVd8f8nbi
p2
I1
s.(dp0
Vd8gkp5j
p1
I1
sVcynj1x5
p2
I1
s.(dp0
Vd8gkp5j
p1
I1
sVcynj1x5
p2
I1
s.(dp0
Vd8gkp5j
p1
I1
sVcynj1x5
p2
I1
s.(dp0
Vd8h3acy
p1
I1
sVcynj1x5
p2
I1
s.(dp0
Vd8h3acy
p1
I1
sVcynj1x5
p2
I1
s.(dp0
Vd8hcdj5
p1
I1
sVcynj1x5
p2
I1
s.(dp0
Vcynj1x5
p1
I1
sVd8hcre1
p2
I1
s.(dp0
Vd8hhchz
p1
I1
sVcynj1x5
p2
I1
s.(dp0
Vd8hlemq
p1
I1
sVcynj1x5
p2
I1
s.(dp0
Vcynj1x5
p1
I1
sVd8ijsqg
p2
I1
s.(dp0
Vcynj1x5
p1
I1
sVd8jc6mj
p2
I1
s.(dp0
Vcynj1x5
p1
I1
sVd8jc6mj
p2
I1
s.(dp0
Vcynj1x5
p1
I1
sVd8jc6mj
p2
I1
s.(dp0
Vcynj1x5
p1
I1
sVd8jng2h
p2
I1
s.(dp0
Vcynj1x5
p1
I1
sVd8jng2h
p2
I1
s.(dp0
Vcynj1x5
p1
I1
sVd8jng2h
p2
I1
s.(dp0
Vcynj1x5
p1
I1
sVd8sacg2
p2
I1
s.(dp0
Vcynj1x5
p1
I1
sVd90gy68
p2
I1
s.(dp0
Vcynj1x5
p1
I1
sVd9eiy00
p2
I1
s.(dp0
Vd9fkmuq
p1
I1
sVcynj1x5
p2
I1
s.(dp0
Vd9jnp0g
p1
I1
sVcynj1x5
p2
I1
s.(dp0
Vcynj1x5
p1
I1
sVd9vuimh
p2
I1
s.(dp0
Vd9zauy3
p1
I1
sVcynj1x5
p2
I1
s.(dp0
Vcynj1x5
p1
I1
sVda7j8vm
p2
I1
s.(dp0
Vcynj1x5
p1
I1
sVdaawsry
p2
I1
s.(dp0
Vcynj1x5
p1
I1
sVdadqqs0
p2
I1
s.(dp0
Vcynj1x5
p1
I1
sVdadqqs0
p2
I1
s.(dp0
Vcynj1x5
p1
I1
sVdadqqs0
p2
I1
s.(dp0
Vcynj1x5
p1
I1
sVdadqqs0
p2
I1
s.(dp0
Vcynj1x5
p1
I1
sVdadqqs0
p2
I1
s.(dp0
Vcynj1x5
p1
I1
sVdadqqs0
p2
I1
s.(dp0
Vcynj1x5
p1
I1
sVdak48n1
p2
I1
s.(dp0
Vcynj1x5
p1
I1
sVdambgz8
p2
I1
s.(dp0
Vcynj1x5
p1
I1
sVdar1ri3
p2
I1
s.(dp0
Vcynj1x5
p1
I1
sVdar1ri3
p2
I1
s.(dp0
Vdav0ixe
p1
I1
sVcynj1x5
p2
I1
s.(dp0
Vcynj1x5
p1
I1
sVdax583q
p2
I1
s.(dp0
Vcynj1x5
p1
I1
sVdb4xgft
p2
I1
s.(dp0
Vdcdl0dg
p1
I1
sVcynj1x5
p2
I1
s.(dp0
Vcynj1x5
p1
I1
sVdcep0du
p2
I1
s.(dp0
Vcynj1x5
p1
I1
sVdckoetr
p2
I1
s.(dp0
Vcynj1x5
p1
I1
sVdct3jym
p2
I1
s.(dp0
Vdczj4ob
p1
I1
sVcynj1x5
p2
I1
s.(dp0
Vdc(dp0
Vdkp2oav
p1
I1
sVcynj1x5
p2
I1
s.