(dp0
Vcyu7ie9
p1
I1
s.(dp0
Vcyu7ie9
p1
I1
sVcz0zw5q
p2
I1
s.(dp0
Vcz6dmbn
p1
I1
sVcyu7ie9
p2
I1
s.(dp0
Vcz6dmbn
p1
I1
sVcyu7ie9
p2
I1
s.(dp0
Vcyu7ie9
p1
I1
sVczikrbq
p2
I1
s.(dp0
Vcyu7ie9
p1
I1
sVczs91hn
p2
I1
s.(dp0
Vczypybf
p1
I1
sVcyu7ie9
p2
I1
s.(dp0
Vczyqudm
p1
I1
sVcyu7ie9
p2
I1
s.(dp0
Vczyr7kf
p1
I1
sVcyu7ie9
p2
I1
s.(dp0
Vcyu7ie9
p1
I1
sVczytf5a
p2
I1
s.(dp0
Vcyu7ie9
p1
I1
sVd030mob
p2
I1
s.(dp0
Vd031us5
p1
I1
sVcyu7ie9
p2
I1
s.(dp0
Vd052dwu
p1
I1
sVcyu7ie9
p2
I1
s.(dp0
Vd1u4doe
p1
I1
sVcyu7ie9
p2
I1
s.(dp0
Vd1zturt
p1
I1
sVcyu7ie9
p2
I1
s.(dp0
Vd2chaxk
p1
I1
sVcyu7ie9
p2
I1
s.(dp0
Vd2jwhaw
p1
I1
sVcyu7ie9
p2
I1
s.(dp0
Vcyu7ie9
p1
I1
sVd2p47mp
p2
I1
s.(dp0
Vd3205z7
p1
I1
sVcyu7ie9
p2
I1
s.(dp0
Vcyu7ie9
p1
I1
sVd337ta8
p2
I1
s.(dp0
Vd377l53
p1
I1
sVcyu7ie9
p2
I1
s.(dp0
Vcyu7ie9
p1
I1
sVd40djq9
p2
I1
s.(dp0
Vd42jc6l
p1
I1
sVcyu7ie9
p2
I1
s.(dp0
Vd4kzdvw
p1
I1
sVcyu7ie9
p2
I1
s.(dp0
Vd4rl386
p1
I1
sVcyu7ie9
p2
I1
s.(dp0
Vcyu7ie9
p1
I1
sVd69hioe
p2
I1
s.(dp0
Vd69zodp
p1
I1
sVcyu7ie9
p2
I1
s.(dp0
Vd6xhr8w
p1
I1
sVcyu7ie9
p2
I1
s.(dp0
Vcyu7ie9
p1
I1
sVd7agtsq
p2
I1
s.(dp0
Vd7fm0j3
p1
I1
sVcyu7ie9
p2
I1
s.(dp0
Vd7fmk8w
p1
I1
sVcyu7ie9
p2
I1
s.(dp0
Vd7fpinb
p1
I1
sVcyu7ie9
p2
I1
s.(dp0
Vd7fpinb
p1
I1
sVcyu7ie9
p2
I1
s.(dp0
Vcyu7ie9
p1
I1
sVd7fxplc
p2
I1
s.(dp0
Vcyu7ie9
p1
I1
sVd8wpxsf
p2
I1
s.(dp0
Vd94i0ru
p1
I1
sVcyu7ie9
p2
I1
s.(dp0
Vd94i0ru
p1
I1
sVcyu7ie9
p2
I1
s.(dp0
Vcyu7ie9
p1
I1
sVd9a6z7v
p2
I1
s.(dp0
Vcyu7ie9
p1
I1
sVd9dob3k
p2
I1
s.(dp0
Vdad05n8
p1
I1
sVcyu7ie9
p2
I1
s.(dp0
Vdawv3x7
p1
I1
sVcyu7ie9
p2
I1
s.(dp0
Vdbf7n37
p1
I1
sVcyu7ie9
p2
I1
s.(dp0
Vdbf7n37
p1
I1
sVcyu7ie9
p2
I1
s.(dp0
Vcyu7ie9
p1
I1
sVdbi79i9
p2
I1
s.(dp0
Vcyu7ie9
p1
I1
sVdbq4b4c
p2
I1
s.(dp0
Vdbswv29
p1
I1
sVcyu7ie9
p2
I1
s.(dp0
Vcyu7ie9
p1
I1
sVdcrhypn
p2
I1
s.(dp0
Vdcx5amm
p1
I1
sVcyu7ie9
p2
I1
s.(dp0
Vdcxzp9w
p1
I1
sVcyu7ie9
p2
I1
s.(dp0
Vdcy31n3
p1
I1
sVcyu7ie9
p2
I1
s.(dp0
Vcyu7ie9
p1
I1
sVddbglvp
p2
I1
s.(dp0
Vdex6o3k
p1
I1
sVcyu7ie9
p2
I1
s.(dp0
Vcyu7ie9
p1
I1
sVdf7t2lq
p2
I1
s.(dp0
Vdfgxycg
p1
I1
sVcyu7ie9
p2
I1
s.(dp0
Vdfu5w5w
p1
I1
sVcyu7ie9
p2
I1
s.(dp0
Vdgdis3u
p1
I1
sVcyu7ie9
p2
I1
s.(dp0
Vcyu7ie9
p1
I1
sVdgg5nev
p2
I1
s.(dp0
Vcyu7ie9
p1
I1
sVdgk96u4
p2
I1
s.(dp0
Vdgm0uq0
p1
I1
sVcyu7ie9
p2
I1
s.(dp0
Vdh0fdh9
p1
I1
sVcyu7ie9
p2
I1
s.(dp0
Vdh5j5tw
p1
I1
sVcyu7ie9
p2
I1
s.(dp0
Vdhdlnbh
p1
I1
sVcyu7ie9
p2
I1
s.(dp0
Vdifssqn
p1
I1
sVcyu7ie9
p2
I1
s.(dp0
Vdigqj2v
p1
I1
sVcyu7ie9
p2
I1
s.(dp0
Vcyu7ie9
p1
I1
sVdijqq6w
p2
I1
s.(dp0
Vdijqvsx
p1
I1
sVcyu7ie9
p2
I1
s.(dp0
Vdiutmta
p1
I1
sVcyu7ie9
p2
I1
s.(dp0
Vdiygxt4
p1
I1
sVcyu7ie9
p2
I1
s.(dp0
Vcyu7ie9
p1
I1
sVdjf518r
p2
I1
s.(dp0
Vdjobb5s
p1
I1
sVcyu7ie9
p2
I1
s.(dp0
Vcyu7ie9
p1
I1
sVdmn6t7v
p2
I1
s.(dp0
Vcyu7ie9
p1
I1
sVdmn6t7v
p2
I1
s.(dp0
Vcyu7ie9
p1
I1
sVdmn6t7v
p2
I1
s.(dp0
Vcyu7ie9
p1
I1
sVdmn6t7v
p2
I1
s.(dp0
Vcyu7ie9
p1
I1
sVdmn6t7v
p2
I1
s.(dp0
Vdmukfmi
p1
I1
sVcyu7ie9
p2
I1
s.