(dp0
Vcz1doaz
p1
I1
s.(dp0
Vcz1doaz
p1
I1
sVczh6nov
p2
I1
s.(dp0
Vcz1doaz
p1
I1
sVd0fbymt
p2
I1
s.(dp0
Vcz1doaz
p1
I1
sVd0q46e8
p2
I1
s.(dp0
Vd23c8u3
p1
I1
sVcz1doaz
p2
I1
s.(dp0
Vd2rlfwl
p1
I1
sVcz1doaz
p2
I1
s.(dp0
Vd46kqpm
p1
I1
sVcz1doaz
p2
I1
s.(dp0
Vd667h5i
p1
I1
sVcz1doaz
p2
I1
s.(dp0
Vcz1doaz
p1
I1
sVd72fy0u
p2
I1
s.(dp0
Vd7a6lp5
p1
I1
sVcz1doaz
p2
I1
s.(dp0
Vd7xli4f
p1
I1
sVcz1doaz
p2
I1
s.(dp0
Vd7zvbq0
p1
I1
sVcz1doaz
p2
I1
s.(dp0
Vd8mmtw0
p1
I1
sVcz1doaz
p2
I1
s.(dp0
Vd8rvnn6
p1
I1
sVcz1doaz
p2
I1
s.(dp0
Vd9gvyad
p1
I1
sVcz1doaz
p2
I1
s.(dp0
Vcz1doaz
p1
I1
sVdazet8j
p2
I1
s.(dp0
Vcz1doaz
p1
I1
sVdbf7egs
p2
I1
s.(dp0
Vdcaq4i5
p1
I1
sVcz1doaz
p2
I1
s.(dp0
Vcz1doaz
p1
I1
sVdei6r8k
p2
I1
s.(dp0
Vcz1doaz
p1
I1
sVdf8hcjf
p2
I1
s.(dp0
Vdfsrhuf
p1
I1
sVcz1doaz
p2
I1
s.