(dp0
Vcywnq2l
p1
I1
s.(dp0
Vcywnq2l
p1
I1
sVd011yj1
p2
I1
s.(dp0
Vd163xt7
p1
I1
sVcywnq2l
p2
I1
s.(dp0
Vd163xt7
p1
I1
sVcywnq2l
p2
I1
s.(dp0
Vcywnq2l
p1
I1
sVd2yy6sa
p2
I1
s.(dp0
Vcywnq2l
p1
I1
sVd4a1fv0
p2
I1
s.(dp0
Vcywnq2l
p1
I1
sVd4z04ic
p2
I1
s.(dp0
Vcywnq2l
p1
I1
sVdahkfp5
p2
I1
s.