(dp0
Vcyo9kqm
p1
I1
s.(dp0
Vcyy1p1m
p1
I1
sVcyo9kqm
p2
I1
s.(dp0
Vcyo9kqm
p1
I1
sVczjofmc
p2
I1
s.(dp0
Vczjom5n
p1
I1
sVcyo9kqm
p2
I1
s.(dp0
Vczjrp58
p1
I1
sVcyo9kqm
p2
I1
s.(dp0
Vczjxyl4
p1
I1
sVcyo9kqm
p2
I1
s.(dp0
Vcyo9kqm
p1
I1
sVczjy11v
p2
I1
s.(dp0
Vcyo9kqm
p1
I1
sVczjy11v
p2
I1
s.(dp0
Vcyo9kqm
p1
I1
sVczjy11v
p2
I1
s.(dp0
Vczjza6v
p1
I1
sVcyo9kqm
p2
I1
s.(dp0
Vd0pvnl5
p1
I1
sVcyo9kqm
p2
I1
s.(dp0
Vcyo9kqm
p1
I1
sVd1027jt
p2
I1
s.(dp0
Vd4hi91o
p1
I1
sVcyo9kqm
p2
I1
s.(dp0
Vd57189h
p1
I1
sVcyo9kqm
p2
I1
s.(dp0
Vd5yzmsn
p1
I1
sVcyo9kqm
p2
I1
s.(dp0
Vd9mgibz
p1
I1
sVcyo9kqm
p2
I1
s.(dp0
Vdb8vvq2
p1
I1
sVcyo9kqm
p2
I1
s.(dp0
Vcyo9kqm
p1
I1
sVdd1i39r
p2
I1
s.(dp0
Vdd3zk2h
p1
I1
sVcyo9kqm
p2
I1
s.(dp0
Vdg9pbv5
p1
I1
sVcyo9kqm
p2
I1
s.(dp0
Vcyo9kqm
p1
I1
sVdk4dter
p2
I1
s.(dp0
Vdk4p64n
p1
I1
sVcyo9kqm
p2
I1
s.