(dp0
Vcyjt4pq
p1
I1
s.(dp0
Vcykh2ue
p1
I1
sVcyjt4pq
p2
I1
s.(dp0
Vcyjt4pq
p1
I1
sVcyli9tb
p2
I1
s.(dp0
Vcyjt4pq
p1
I1
sVcyliapv
p2
I1
s.(dp0
Vcyjt4pq
p1
I1
sVcyliapv
p2
I1
s.(dp0
Vcylldi1
p1
I1
sVcyjt4pq
p2
I1
s.(dp0
Vcylvsu5
p1
I1
sVcyjt4pq
p2
I1
s.(dp0
Vcyjt4pq
p1
I1
sVcynr04f
p2
I1
s.(dp0
Vcynsale
p1
I1
sVcyjt4pq
p2
I1
s.(dp0
Vcyp8bo7
p1
I1
sVcyjt4pq
p2
I1
s.(dp0
Vcypml6k
p1
I1
sVcyjt4pq
p2
I1
s.(dp0
Vcyjt4pq
p1
I1
sVcypoulv
p2
I1
s.(dp0
Vcyjt4pq
p1
I1
sVcyppvrz
p2
I1
s.(dp0
Vcyjt4pq
p1
I1
sVcyppvrz
p2
I1
s.(dp0
Vcyq6gtz
p1
I1
sVcyjt4pq
p2
I1
s.(dp0
Vcyjt4pq
p1
I1
sVcyqrm20
p2
I1
s.(dp0
Vcyu6wdm
p1
I1
sVcyjt4pq
p2
I1
s.(dp0
Vcyukqqy
p1
I1
sVcyjt4pq
p2
I1
s.(dp0
Vcyjt4pq
p1
I1
sVcyynwmf
p2
I1
s.(dp0
Vcyjt4pq
p1
I1
sVcyyyz4j
p2
I1
s.(dp0
Vcyzr666
p1
I1
sVcyjt4pq
p2
I1
s.(dp0
Vcyjt4pq
p1
I1
sVcz0xctg
p2
I1
s.(dp0
Vcyjt4pq
p1
I1
sVcz3wqb4
p2
I1
s.(dp0
Vcz4l6pd
p1
I1
sVcyjt4pq
p2
I1
s.(dp0
Vcz4whvo
p1
I1
sVcyjt4pq
p2
I1
s.(dp0
Vcyjt4pq
p1
I1
sVcza3qe6
p2
I1
s.(dp0
Vcyjt4pq
p1
I1
sVczbrlti
p2
I1
s.(dp0
Vcyjt4pq
p1
I1
sVczccc16
p2
I1
s.(dp0
Vczg02gb
p1
I1
sVcyjt4pq
p2
I1
s.(dp0
Vcyjt4pq
p1
I1
sVczg116p
p2
I1
s.(dp0
Vcyjt4pq
p1
I1
sVczg116p
p2
I1
s.(dp0
Vczgpd3s
p1
I1
sVcyjt4pq
p2
I1
s.(dp0
Vczh5s8g
p1
I1
sVcyjt4pq
p2
I1
s.(dp0
Vcyjt4pq
p1
I1
sVczig87b
p2
I1
s.(dp0
Vcyjt4pq
p1
I1
sVczlx0sf
p2
I1
s.(dp0
Vczm21mw
p1
I1
sVcyjt4pq
p2
I1
s.(dp0
Vczmmtq0
p1
I1
sVcyjt4pq
p2
I1
s.(dp0
Vcyjt4pq
p1
I1
sVczo8sis
p2
I1
s.(dp0
Vcyjt4pq
p1
I1
sVczpi7mh
p2
I1
s.(dp0
Vczqdigw
p1
I1
sVcyjt4pq
p2
I1
s.(dp0
Vczqr4rj
p1
I1
sVcyjt4pq
p2
I1
s.(dp0
Vczuxdk2
p1
I1
sVcyjt4pq
p2
I1
s.(dp0
Vcyjt4pq
p1
I1
sVczxt9jk
p2
I1
s.(dp0
Vczzv98b
p1
I1
sVcyjt4pq
p2
I1
s.(dp0
Vcyjt4pq
p1
I1
sVd06v2pz
p2
I1
s.(dp0
Vd0brxwi
p1
I1
sVcyjt4pq
p2
I1
s.(dp0
Vcyjt4pq
p1
I1
sVd0bvsuh
p2
I1
s.(dp0
Vd0edi81
p1
I1
sVcyjt4pq
p2
I1
s.(dp0
Vcyjt4pq
p1
I1
sVd0ef7em
p2
I1
s.(dp0
Vd0empan
p1
I1
sVcyjt4pq
p2
I1
s.(dp0
Vd0iip6t
p1
I1
sVcyjt4pq
p2
I1
s.(dp0
Vd0jk0vc
p1
I1
sVcyjt4pq
p2
I1
s.(dp0
Vcyjt4pq
p1
I1
sVd0ksceh
p2
I1
s.(dp0
Vd0mxcaa
p1
I1
sVcyjt4pq
p2
I1
s.(dp0
Vcyjt4pq
p1
I1
sVd0pv95x
p2
I1
s.(dp0
Vd0riqgf
p1
I1
sVcyjt4pq
p2
I1
s.(dp0
Vd0sr95n
p1
I1
sVcyjt4pq
p2
I1
s.(dp0
Vd0umm57
p1
I1
sVcyjt4pq
p2
I1
s.(dp0
Vd0wq0j5
p1
I1
sVcyjt4pq
p2
I1
s.(dp0
Vd0wq0j5
p1
I1
sVcyjt4pq
p2
I1
s.(dp0
Vd0wq0j5
p1
I1
sVcyjt4pq
p2
I1
s.(dp0
Vd0xxbqt
p1
I1
sVcyjt4pq
p2
I1
s.(dp0
Vd0yryfj
p1
I1
sVcyjt4pq
p2
I1
s.(dp0
Vd10kyze
p1
I1
sVcyjt4pq
p2
I1
s.(dp0
Vd10vb1u
p1
I1
sVcyjt4pq
p2
I1
s.(dp0
Vcyjt4pq
p1
I1
sVd10x8e1
p2
I1
s.(dp0
Vd10xq2o
p1
I1
sVcyjt4pq
p2
I1
s.(dp0
Vd10xq2o
p1
I1
sVcyjt4pq
p2
I1
s.(dp0
Vd10xq2o
p1
I1
sVcyjt4pq
p2
I1
s.(dp0
Vd10xq2o
p1
I1
sVcyjt4pq
p2
I1
s.(dp0
Vd10xq2o
p1
I1
sVcyjt4pq
p2
I1
s.(dp0
Vcyjt4pq
p1
I1
sVd16r903
p2
I1
s.(dp0
Vd17nkr8
p1
I1
sVcyjt4pq
p2
I1
s.(dp0
Vd18972j
p1
I1
sVcyjt4pq
p2
I1
s.(dp0
Vd18q24n
p1
I1
sVcyjt4pq
p2
I1
s.(dp0
Vd1au12v
p1
I1
sVcyjt4pq
p2
I1
s.(dp0
Vd1btyrk
p1
I1
sVcyjt4pq
p2
I1
s.(dp0
Vcyjt4pq
p1
I1
sVd1ctujo
p2
I1
s.(dp0
Vd1dhbrt
p1
I1
sVcyjt4pq
p2
I1
s.(dp0
Vd1et2tt
p1
I1
sVcyjt4pq
p2
I1
s.(dp0
Vcyjt4pq
p1
I1
sVd1iensn
p2
I1
s.(dp0
Vcyjt4pq
p1
I1
sVd1iensn
p2
I1
s.(dp0
Vcyjt4pq
p1
I1
sVd1lvoh3
p2
I1
s.(dp0
Vd1mdeoa
p1
I1
sVcyjt4pq
p2
I1
s.(dp0
Vd1mmksl
p1
I1
sVcyjt4pq
p2
I1
s.(dp0
Vcyjt4pq
p1
I1
sVd1qauqg
p2
I1
s.(dp0
Vcyjt4pq
p1
I1
sVd1sevaz
p2
I1
s.(dp0
Vd1tkcv4
p1
I1
sVcyjt4pq
p2
I1
s.(dp0
Vd1tkcv4
p1
I1
sVcyjt4pq
p2
I1
s.(dp0
Vd1tq93e
p1
I1
sVcyjt4pq
p2
I1
s.(dp0
Vd1wjwjm
p1
I1
sVcyjt4pq
p2
I1
s.(dp0
Vd1wjwjm
p1
I1
sVcyjt4pq
p2
I1
s.(dp0
Vcyjt4pq
p1
I1
sVd219hxz
p2
I1
s.(dp0
Vcyjt4pq
p1
I1
sVd24f1ap
p2
I1
s.(dp0
Vd25wxif
p1
I1
sVcyjt4pq
p2
I1
s.(dp0
Vd26owl1
p1
I1
sVcyjt4pq
p2
I1
s.(dp0
Vd28t31d
p1
I1
sVcyjt4pq
p2
I1
s.(dp0
Vd28t31d
p1
I1
sVcyjt4pq
p2
I1
s.(dp0
Vcyjt4pq
p1
I1
sVd28ye2d
p2
I1
s.(dp0
Vcyjt4pq
p1
I1
sVd29l3ff
p2
I1
s.(dp0
Vd29mvvf
p1
I1
sVcyjt4pq
p2
I1
s.(dp0
Vcyjt4pq
p1
I1
sVd2bxnzb
p2
I1
s.(dp0
Vd2bxvtm
p1
I1
sVcyjt4pq
p2
I1
s.(dp0
Vd2h7bvy
p1
I1
sVcyjt4pq
p2
I1
s.(dp0
Vd2i143j
p1
I1
sVcyjt4pq
p2
I1
s.(dp0
Vd2l8nms
p1
I1
sVcyjt4pq
p2
I1
s.(dp0
Vd2mx49t
p1
I1
sVcyjt4pq
p2
I1
s.(dp0
Vcyjt4pq
p1
I1
sVd2q1qi7
p2
I1
s.(dp0
Vd2(dp0
Vdp0qa44
p1
I1
sVcyjt4pq
p2
I1
s.