(dp0
Vcyp6rpx
p1
I1
s.(dp0
Vcyttsbh
p1
I1
sVcyp6rpx
p2
I1
s.(dp0
Vcz50a9k
p1
I1
sVcyp6rpx
p2
I1
s.(dp0
Vcz73pul
p1
I1
sVcyp6rpx
p2
I1
s.(dp0
Vcz73pul
p1
I1
sVcyp6rpx
p2
I1
s.(dp0
Vcz7vr6f
p1
I1
sVcyp6rpx
p2
I1
s.(dp0
Vcz8n311
p1
I1
sVcyp6rpx
p2
I1
s.(dp0
Vcz8n311
p1
I1
sVcyp6rpx
p2
I1
s.(dp0
Vcz8y18h
p1
I1
sVcyp6rpx
p2
I1
s.(dp0
Vcz9qr7e
p1
I1
sVcyp6rpx
p2
I1
s.(dp0
Vczcevuv
p1
I1
sVcyp6rpx
p2
I1
s.(dp0
Vczfs2uw
p1
I1
sVcyp6rpx
p2
I1
s.(dp0
Vczh1tc9
p1
I1
sVcyp6rpx
p2
I1
s.(dp0
Vczk7cmb
p1
I1
sVcyp6rpx
p2
I1
s.(dp0
Vczkhtyk
p1
I1
sVcyp6rpx
p2
I1
s.(dp0
Vczkskec
p1
I1
sVcyp6rpx
p2
I1
s.(dp0
Vczksrq7
p1
I1
sVcyp6rpx
p2
I1
s.(dp0
Vczl27uf
p1
I1
sVcyp6rpx
p2
I1
s.(dp0
Vczmujvh
p1
I1
sVcyp6rpx
p2
I1
s.(dp0
Vczraf9v
p1
I1
sVcyp6rpx
p2
I1
s.(dp0
Vczraf9v
p1
I1
sVcyp6rpx
p2
I1
s.(dp0
Vczraf9v
p1
I1
sVcyp6rpx
p2
I1
s.(dp0
Vczsm3uo
p1
I1
sVcyp6rpx
p2
I1
s.(dp0
Vczsm3uo
p1
I1
sVcyp6rpx
p2
I1
s.(dp0
Vczspk5u
p1
I1
sVcyp6rpx
p2
I1
s.(dp0
Vczsprwe
p1
I1
sVcyp6rpx
p2
I1
s.(dp0
Vczswaae
p1
I1
sVcyp6rpx
p2
I1
s.(dp0
Vczt5m5d
p1
I1
sVcyp6rpx
p2
I1
s.(dp0
Vcztckus
p1
I1
sVcyp6rpx
p2
I1
s.(dp0
Vczuhan3
p1
I1
sVcyp6rpx
p2
I1
s.(dp0
Vczyjfv7
p1
I1
sVcyp6rpx
p2
I1
s.(dp0
Vczz74nt
p1
I1
sVcyp6rpx
p2
I1
s.(dp0
Vczzv98b
p1
I1
sVcyp6rpx
p2
I1
s.(dp0
Vczzv98b
p1
I1
sVcyp6rpx
p2
I1
s.(dp0
Vd001xyc
p1
I1
sVcyp6rpx
p2
I1
s.(dp0
Vd00mgi6
p1
I1
sVcyp6rpx
p2
I1
s.(dp0
Vd095roh
p1
I1
sVcyp6rpx
p2
I1
s.(dp0
Vd0avg9k
p1
I1
sVcyp6rpx
p2
I1
s.(dp0
Vd0awnxo
p1
I1
sVcyp6rpx
p2
I1
s.(dp0
Vd0foqfd
p1
I1
sVcyp6rpx
p2
I1
s.(dp0
Vd0foqfd
p1
I1
sVcyp6rpx
p2
I1
s.(dp0
Vd0mo27k
p1
I1
sVcyp6rpx
p2
I1
s.(dp0
Vd0mo27k
p1
I1
sVcyp6rpx
p2
I1
s.(dp0
Vd0rtbr4
p1
I1
sVcyp6rpx
p2
I1
s.(dp0
Vd0rtbr4
p1
I1
sVcyp6rpx
p2
I1
s.(dp0
Vd0rtbr4
p1
I1
sVcyp6rpx
p2
I1
s.(dp0
Vd0t8xbp
p1
I1
sVcyp6rpx
p2
I1
s.(dp0
Vd0v19n2
p1
I1
sVcyp6rpx
p2
I1
s.(dp0
Vd0v19n2
p1
I1
sVcyp6rpx
p2
I1
s.(dp0
Vd0w89rt
p1
I1
sVcyp6rpx
p2
I1
s.(dp0
Vd0xe4um
p1
I1
sVcyp6rpx
p2
I1
s.(dp0
Vd0xe4um
p1
I1
sVcyp6rpx
p2
I1
s.(dp0
Vd0ykosg
p1
I1
sVcyp6rpx
p2
I1
s.(dp0
Vd0ykosg
p1
I1
sVcyp6rpx
p2
I1
s.(dp0
Vd0ykosg
p1
I1
sVcyp6rpx
p2
I1
s.(dp0
Vd10sv71
p1
I1
sVcyp6rpx
p2
I1
s.(dp0
Vd14ghqp
p1
I1
sVcyp6rpx
p2
I1
s.(dp0
Vd1786j7
p1
I1
sVcyp6rpx
p2
I1
s.(dp0
Vd19hsft
p1
I1
sVcyp6rpx
p2
I1
s.(dp0
Vd1btyrk
p1
I1
sVcyp6rpx
p2
I1
s.(dp0
Vd1c3u5j
p1
I1
sVcyp6rpx
p2
I1
s.(dp0
Vd1fss41
p1
I1
sVcyp6rpx
p2
I1
s.(dp0
Vd1lgpmx
p1
I1
sVcyp6rpx
p2
I1
s.(dp0
Vd1lgpmx
p1
I1
sVcyp6rpx
p2
I1
s.(dp0
Vd1ljwk6
p1
I1
sVcyp6rpx
p2
I1
s.(dp0
Vd1p8xrh
p1
I1
sVcyp6rpx
p2
I1
s.(dp0
Vd2300tr
p1
I1
sVcyp6rpx
p2
I1
s.(dp0
Vd24plvr
p1
I1
sVcyp6rpx
p2
I1
s.(dp0
Vd25u120
p1
I1
sVcyp6rpx
p2
I1
s.(dp0
Vd2gqrcm
p1
I1
sVcyp6rpx
p2
I1
s.(dp0
Vd2gzmlu
p1
I1
sVcyp6rpx
p2
I1
s.(dp0
Vd2hf8nh
p1
I1
sVcyp6rpx
p2
I1
s.(dp0
Vd2i4cup
p1
I1
sVcyp6rpx
p2
I1
s.(dp0
Vd2juhbh
p1
I1
sVcyp6rpx
p2
I1
s.(dp0
Vd2k84d3
p1
I1
sVcyp6rpx
p2
I1
s.(dp0
Vd2k84d3
p1
I1
sVcyp6rpx
p2
I1
s.(dp0
Vd2k84d3
p1
I1
sVcyp6rpx
p2
I1
s.(dp0
Vd2k84d3
p1
I1
sVcyp6rpx
p2
I1
s.(dp0
Vd2k84d3
p1
I1
sVcyp6rpx
p2
I1
s.(dp0
Vd2nun25
p1
I1
sVcyp6rpx
p2
I1
s.(dp0
Vd2qx22v
p1
I1
sVcyp6rpx
p2
I1
s.(dp0
Vd2uviua
p1
I1
sVcyp6rpx
p2
I1
s.(dp0
Vd2weee4
p1
I1
sVcyp6rpx
p2
I1
s.(dp0
Vd2ww39p
p1
I1
sVcyp6rpx
p2
I1
s.(dp0
Vd2ww39p
p1
I1
sVcyp6rpx
p2
I1
s.(dp0
Vd2ww39p
p1
I1
sVcyp6rpx
p2
I1
s.(dp0
Vd2y8f8f
p1
I1
sVcyp6rpx
p2
I1
s.(dp0
Vd2ynywq
p1
I1
sVcyp6rpx
p2
I1
s.(dp0
Vd30ggff
p1
I1
sVcyp6rpx
p2
I1
s.(dp0
Vd30nmgf
p1
I1
sVcyp6rpx
p2
I1
s.(dp0
Vd30nmgf
p1
I1
sVcyp6rpx
p2
I1
s.(dp0
Vd30nmgf
p1
I1
sVcyp6rpx
p2
I1
s.(dp0
Vd3434xp
p1
I1
sVcyp6rpx
p2
I1
s.(dp0
Vd3434xp
p1
I1
sVcyp6rpx
p2
I1
s.(dp0
Vd35s5mf
p1
I1
sVcyp6rpx
p2
I1
s.(dp0
Vd398cdp
p1
I1
sVcyp6rpx
p2
I1
s.(dp0
Vd3cdpbr
p1
I1
sVcyp6rpx
p2
I1
s.(dp0
Vd3cp7du
p1
I1
sVcyp6rpx
p2
I1
s.(dp0
Vd3cp8an
p1
I1
sVcyp6rpx
p2
I1
s.(dp0
Vd3cp8an
p1
I1
sVcyp6rpx
p2
I1
s.(dp0
Vd3cp8an
p1
I1
sVcyp6rpx
p2
I1
s.(dp0
Vd3cy91c
p1
I1
sVcyp6rpx
p2
I1
s.(dp0
Vd3dbr7b
p1
I1
sVcyp6rpx
p2
I1
s.(dp0
Vd3glsfl
p1
I1
sVcyp6rpx
p2
I1
s.(dp0
Vd3gojn6
p1
I1
sVcyp6rpx
p2
I1
s.(dp0
Vd3gouvt
p1
I1
sVcyp6rpx
p2
I1
s.(dp0
Vd3gouvt
p1
I1
sVcyp6rpx
p2
I1
s.(dp0
Vd3gqg3j
p1
I1
sVcyp6rpx
p2
I1
s.(dp0
Vd3(dp0
Vdp22gov
p1
I1
sVcyp6rpx
p2
I1
s.