(dp0
Vcyv5eut
p1
I1
s.(dp0
Vd0tknzv
p1
I1
sVcyv5eut
p2
I1
s.(dp0
Vd399l6f
p1
I1
sVcyv5eut
p2
I1
s.(dp0
Vd4kx4ws
p1
I1
sVcyv5eut
p2
I1
s.(dp0
Vd5mzg18
p1
I1
sVcyv5eut
p2
I1
s.(dp0
Vd79e62v
p1
I1
sVcyv5eut
p2
I1
s.(dp0
Vd7yhhpc
p1
I1
sVcyv5eut
p2
I1
s.(dp0
Vd9i56qf
p1
I1
sVcyv5eut
p2
I1
s.(dp0
Vdavh6ih
p1
I1
sVcyv5eut
p2
I1
s.(dp0
Vdax6g2l
p1
I1
sVcyv5eut
p2
I1
s.(dp0
Vdb2uhmk
p1
I1
sVcyv5eut
p2
I1
s.(dp0
Vdefxmg3
p1
I1
sVcyv5eut
p2
I1
s.