(dp0
Vcyhv6tp
p1
I1
s.(dp0
Vcyihf2p
p1
I1
sVcyhv6tp
p2
I1
s.(dp0
Vcykbtg1
p1
I1
sVcyhv6tp
p2
I1
s.(dp0
Vcykduwu
p1
I1
sVcyhv6tp
p2
I1
s.(dp0
Vcym21hr
p1
I1
sVcyhv6tp
p2
I1
s.(dp0
Vcyn1zvn
p1
I1
sVcyhv6tp
p2
I1
s.(dp0
Vcypufvi
p1
I1
sVcyhv6tp
p2
I1
s.(dp0
Vcypydc5
p1
I1
sVcyhv6tp
p2
I1
s.(dp0
Vcyqo9st
p1
I1
sVcyhv6tp
p2
I1
s.(dp0
Vcyqpqwr
p1
I1
sVcyhv6tp
p2
I1
s.(dp0
Vcyqt4km
p1
I1
sVcyhv6tp
p2
I1
s.(dp0
Vcyqt4km
p1
I1
sVcyhv6tp
p2
I1
s.(dp0
Vcyskz0d
p1
I1
sVcyhv6tp
p2
I1
s.(dp0
Vcytaekk
p1
I1
sVcyhv6tp
p2
I1
s.(dp0
Vcyxt4tb
p1
I1
sVcyhv6tp
p2
I1
s.(dp0
Vcyz10rm
p1
I1
sVcyhv6tp
p2
I1
s.(dp0
Vcz0eu8v
p1
I1
sVcyhv6tp
p2
I1
s.(dp0
Vcz0eu8v
p1
I1
sVcyhv6tp
p2
I1
s.(dp0
Vcz0eu8v
p1
I1
sVcyhv6tp
p2
I1
s.(dp0
Vcz27rjb
p1
I1
sVcyhv6tp
p2
I1
s.(dp0
Vcz4ar6s
p1
I1
sVcyhv6tp
p2
I1
s.(dp0
Vcz5r944
p1
I1
sVcyhv6tp
p2
I1
s.(dp0
Vcz703m1
p1
I1
sVcyhv6tp
p2
I1
s.(dp0
Vczar3yi
p1
I1
sVcyhv6tp
p2
I1
s.(dp0
Vczc4bhd
p1
I1
sVcyhv6tp
p2
I1
s.(dp0
Vczc4bhd
p1
I1
sVcyhv6tp
p2
I1
s.(dp0
Vczevsun
p1
I1
sVcyhv6tp
p2
I1
s.(dp0
Vczewys7
p1
I1
sVcyhv6tp
p2
I1
s.(dp0
Vczfwwfz
p1
I1
sVcyhv6tp
p2
I1
s.(dp0
Vczgpd3s
p1
I1
sVcyhv6tp
p2
I1
s.(dp0
Vczhog8k
p1
I1
sVcyhv6tp
p2
I1
s.(dp0
Vczi463h
p1
I1
sVcyhv6tp
p2
I1
s.(dp0
Vczl3xgf
p1
I1
sVcyhv6tp
p2
I1
s.(dp0
Vczpf8up
p1
I1
sVcyhv6tp
p2
I1
s.(dp0
Vczu9ry4
p1
I1
sVcyhv6tp
p2
I1
s.(dp0
Vd027tks
p1
I1
sVcyhv6tp
p2
I1
s.(dp0
Vd02g8fb
p1
I1
sVcyhv6tp
p2
I1
s.(dp0
Vd03cxgm
p1
I1
sVcyhv6tp
p2
I1
s.(dp0
Vd04n7nc
p1
I1
sVcyhv6tp
p2
I1
s.(dp0
Vd062rpf
p1
I1
sVcyhv6tp
p2
I1
s.(dp0
Vd08oaph
p1
I1
sVcyhv6tp
p2
I1
s.(dp0
Vd0aaven
p1
I1
sVcyhv6tp
p2
I1
s.(dp0
Vd0b3kt5
p1
I1
sVcyhv6tp
p2
I1
s.(dp0
Vd0f64nd
p1
I1
sVcyhv6tp
p2
I1
s.(dp0
Vd0i4nmg
p1
I1
sVcyhv6tp
p2
I1
s.(dp0
Vd0ios6m
p1
I1
sVcyhv6tp
p2
I1
s.(dp0
Vd0npwey
p1
I1
sVcyhv6tp
p2
I1
s.(dp0
Vd0nxu1v
p1
I1
sVcyhv6tp
p2
I1
s.(dp0
Vd0ptn0e
p1
I1
sVcyhv6tp
p2
I1
s.(dp0
Vd0r2fqg
p1
I1
sVcyhv6tp
p2
I1
s.(dp0
Vd0ra693
p1
I1
sVcyhv6tp
p2
I1
s.(dp0
Vd0rav3a
p1
I1
sVcyhv6tp
p2
I1
s.(dp0
Vd0sfkea
p1
I1
sVcyhv6tp
p2
I1
s.(dp0
Vd0sgus7
p1
I1
sVcyhv6tp
p2
I1
s.(dp0
Vd0slpka
p1
I1
sVcyhv6tp
p2
I1
s.(dp0
Vd0vzecn
p1
I1
sVcyhv6tp
p2
I1
s.(dp0
Vd0yhfrq
p1
I1
sVcyhv6tp
p2
I1
s.(dp0
Vd10gbz3
p1
I1
sVcyhv6tp
p2
I1
s.(dp0
Vd10lvdl
p1
I1
sVcyhv6tp
p2
I1
s.(dp0
Vd116cnn
p1
I1
sVcyhv6tp
p2
I1
s.(dp0
Vd14kqum
p1
I1
sVcyhv6tp
p2
I1
s.(dp0
Vd1ec08s
p1
I1
sVcyhv6tp
p2
I1
s.(dp0
Vd1gwlgg
p1
I1
sVcyhv6tp
p2
I1
s.(dp0
Vd1hc8xn
p1
I1
sVcyhv6tp
p2
I1
s.(dp0
Vd1jny6g
p1
I1
sVcyhv6tp
p2
I1
s.(dp0
Vd1rbrt8
p1
I1
sVcyhv6tp
p2
I1
s.(dp0
Vd1znkn8
p1
I1
sVcyhv6tp
p2
I1
s.(dp0
Vd249i5e
p1
I1
sVcyhv6tp
p2
I1
s.(dp0
Vd258oij
p1
I1
sVcyhv6tp
p2
I1
s.(dp0
Vd27x9eg
p1
I1
sVcyhv6tp
p2
I1
s.(dp0
Vd2etb92
p1
I1
sVcyhv6tp
p2
I1
s.(dp0
Vd2gtueo
p1
I1
sVcyhv6tp
p2
I1
s.(dp0
Vd2ix59h
p1
I1
sVcyhv6tp
p2
I1
s.(dp0
Vd2oj2wr
p1
I1
sVcyhv6tp
p2
I1
s.(dp0
Vd2podrm
p1
I1
sVcyhv6tp
p2
I1
s.(dp0
Vd2q5ia8
p1
I1
sVcyhv6tp
p2
I1
s.(dp0
Vd2r7t8d
p1
I1
sVcyhv6tp
p2
I1
s.(dp0
Vd2snlju
p1
I1
sVcyhv6tp
p2
I1
s.(dp0
Vd2u9ruj
p1
I1
sVcyhv6tp
p2
I1
s.(dp0
Vd2upwu1
p1
I1
sVcyhv6tp
p2
I1
s.(dp0
Vd2wj452
p1
I1
sVcyhv6tp
p2
I1
s.(dp0
Vd2x4kmh
p1
I1
sVcyhv6tp
p2
I1
s.(dp0
Vd31o7sj
p1
I1
sVcyhv6tp
p2
I1
s.(dp0
Vd36njkg
p1
I1
sVcyhv6tp
p2
I1
s.(dp0
Vd37alzk
p1
I1
sVcyhv6tp
p2
I1
s.(dp0
Vd37kyvq
p1
I1
sVcyhv6tp
p2
I1
s.(dp0
Vd38c76c
p1
I1
sVcyhv6tp
p2
I1
s.(dp0
Vd3ct33p
p1
I1
sVcyhv6tp
p2
I1
s.(dp0
Vd3qaqhp
p1
I1
sVcyhv6tp
p2
I1
s.(dp0
Vd3rzgn6
p1
I1
sVcyhv6tp
p2
I1
s.(dp0
Vd3tqljt
p1
I1
sVcyhv6tp
p2
I1
s.(dp0
Vd3uyzwq
p1
I1
sVcyhv6tp
p2
I1
s.(dp0
Vd3zlhnw
p1
I1
sVcyhv6tp
p2
I1
s.(dp0
Vd4122nr
p1
I1
sVcyhv6tp
p2
I1
s.(dp0
Vd44r0zb
p1
I1
sVcyhv6tp
p2
I1
s.(dp0
Vd44r0zb
p1
I1
sVcyhv6tp
p2
I1
s.(dp0
Vd44r0zb
p1
I1
sVcyhv6tp
p2
I1
s.(dp0
Vd45bq4i
p1
I1
sVcyhv6tp
p2
I1
s.(dp0
Vd484e4g
p1
I1
sVcyhv6tp
p2
I1
s.(dp0
Vd48hy0p
p1
I1
sVcyhv6tp
p2
I1
s.(dp0
Vd48motv
p1
I1
sVcyhv6tp
p2
I1
s.(dp0
Vd4a9xbm
p1
I1
sVcyhv6tp
p2
I1
s.(dp0
Vd4gjifx
p1
I1
sVcyhv6tp
p2
I1
s.(dp0
Vd4h4iwk
p1
I1
sVcyhv6tp
p2
I1
s.(dp0
Vd4hze10
p1
I1
sVcyhv6tp
p2
I1
s.(dp0
Vd4iephj
p1
I1
sVcyhv6tp
p2
I1
s.(dp0
Vd4iw8fm
p1
I1
sVcyhv6tp
p2
I1
s.(dp0
Vd4ko0ks
p1
I1
sVcyhv6tp
p2
I1
s.(dp0
Vd4(dp0
Vdp2cqgk
p1
I1
sVcyhv6tp
p2
I1
s.