(dp0
Vcyi01xy
p1
I1
s.(dp0
Vcyi01xy
p1
I2
s.(dp0
Vcykvzjh
p1
I1
sVcyi01xy
p2
I1
s.(dp0
Vcyllghk
p1
I1
sVcyi01xy
p2
I1
s.(dp0
Vcymh3e9
p1
I1
sVcyi01xy
p2
I1
s.(dp0
Vcyi01xy
p1
I1
sVcyoqipe
p2
I1
s.(dp0
Vcyp3f90
p1
I1
sVcyi01xy
p2
I1
s.(dp0
Vcyp3f90
p1
I1
sVcyi01xy
p2
I1
s.(dp0
Vcypjayw
p1
I1
sVcyi01xy
p2
I1
s.(dp0
Vcyqpqwr
p1
I1
sVcyi01xy
p2
I1
s.(dp0
Vcyquo7t
p1
I1
sVcyi01xy
p2
I1
s.(dp0
Vcysy36b
p1
I1
sVcyi01xy
p2
I1
s.(dp0
Vcyvlgiq
p1
I1
sVcyi01xy
p2
I1
s.(dp0
Vcyvlxw6
p1
I1
sVcyi01xy
p2
I1
s.(dp0
Vcywolag
p1
I1
sVcyi01xy
p2
I1
s.(dp0
Vcyyd1qi
p1
I1
sVcyi01xy
p2
I1
s.(dp0
Vcyz3vzn
p1
I1
sVcyi01xy
p2
I1
s.(dp0
Vcyz3vzn
p1
I1
sVcyi01xy
p2
I1
s.(dp0
Vcyzwv2z
p1
I1
sVcyi01xy
p2
I1
s.(dp0
Vcz3u62d
p1
I1
sVcyi01xy
p2
I1
s.(dp0
Vcz3wbb1
p1
I1
sVcyi01xy
p2
I1
s.(dp0
Vcz5ivfu
p1
I1
sVcyi01xy
p2
I1
s.(dp0
Vcz5upjm
p1
I1
sVcyi01xy
p2
I1
s.(dp0
Vcz69ael
p1
I1
sVcyi01xy
p2
I1
s.(dp0
Vcyi01xy
p1
I1
sVcz6prl9
p2
I1
s.(dp0
Vcz6qp4z
p1
I1
sVcyi01xy
p2
I1
s.(dp0
Vcz813qu
p1
I1
sVcyi01xy
p2
I1
s.(dp0
Vczbs5zv
p1
I1
sVcyi01xy
p2
I1
s.(dp0
Vczbs8ep
p1
I1
sVcyi01xy
p2
I1
s.(dp0
Vcyi01xy
p1
I1
sVczcdnqk
p2
I1
s.(dp0
Vczcixsh
p1
I1
sVcyi01xy
p2
I1
s.(dp0
Vcze18v0
p1
I1
sVcyi01xy
p2
I1
s.(dp0
Vczf5doc
p1
I1
sVcyi01xy
p2
I1
s.(dp0
Vczf5doc
p1
I1
sVcyi01xy
p2
I1
s.(dp0
Vcyi01xy
p1
I1
sVczgh8p6
p2
I1
s.(dp0
Vczietz5
p1
I1
sVcyi01xy
p2
I1
s.(dp0
Vcyi01xy
p1
I1
sVczii8gj
p2
I1
s.(dp0
Vczik5kb
p1
I1
sVcyi01xy
p2
I1
s.(dp0
Vczka86x
p1
I1
sVcyi01xy
p2
I1
s.(dp0
Vczkdfy0
p1
I1
sVcyi01xy
p2
I1
s.(dp0
Vczkzdxc
p1
I1
sVcyi01xy
p2
I1
s.(dp0
Vczlwdkh
p1
I1
sVcyi01xy
p2
I1
s.(dp0
Vczlyffx
p1
I1
sVcyi01xy
p2
I1
s.(dp0
Vczm91h1
p1
I1
sVcyi01xy
p2
I1
s.(dp0
Vczmftwv
p1
I1
sVcyi01xy
p2
I1
s.(dp0
Vcyi01xy
p1
I1
sVczsf8lt
p2
I1
s.(dp0
Vczstd3s
p1
I1
sVcyi01xy
p2
I1
s.(dp0
Vczudrq2
p1
I1
sVcyi01xy
p2
I1
s.(dp0
Vczudrq2
p1
I1
sVcyi01xy
p2
I1
s.(dp0
Vczxlzcx
p1
I1
sVcyi01xy
p2
I1
s.(dp0
Vd009haq
p1
I1
sVcyi01xy
p2
I1
s.(dp0
Vd02j8un
p1
I1
sVcyi01xy
p2
I1
s.(dp0
Vd032r13
p1
I1
sVcyi01xy
p2
I1
s.(dp0
Vd04epb9
p1
I1
sVcyi01xy
p2
I1
s.(dp0
Vd050q5j
p1
I1
sVcyi01xy
p2
I1
s.(dp0
Vd050q5j
p1
I1
sVcyi01xy
p2
I1
s.(dp0
Vd06c3dj
p1
I1
sVcyi01xy
p2
I1
s.(dp0
Vd070x5f
p1
I1
sVcyi01xy
p2
I1
s.(dp0
Vd09jhko
p1
I1
sVcyi01xy
p2
I1
s.(dp0
Vd0d3qlu
p1
I1
sVcyi01xy
p2
I1
s.(dp0
Vd0d6lgr
p1
I1
sVcyi01xy
p2
I1
s.(dp0
Vd0ek8pi
p1
I1
sVcyi01xy
p2
I1
s.(dp0
Vd0ek8pi
p1
I1
sVcyi01xy
p2
I1
s.(dp0
Vd0ek8pi
p1
I1
sVcyi01xy
p2
I1
s.(dp0
Vd0fe9fy
p1
I1
sVcyi01xy
p2
I1
s.(dp0
Vd0g90ku
p1
I1
sVcyi01xy
p2
I1
s.(dp0
Vd0iqzlq
p1
I1
sVcyi01xy
p2
I1
s.(dp0
Vd0ivhxv
p1
I1
sVcyi01xy
p2
I1
s.(dp0
Vd0l2gd3
p1
I1
sVcyi01xy
p2
I1
s.(dp0
Vd0qe83w
p1
I1
sVcyi01xy
p2
I1
s.(dp0
Vd0qllv9
p1
I1
sVcyi01xy
p2
I1
s.(dp0
Vd0s0r48
p1
I1
sVcyi01xy
p2
I1
s.(dp0
Vd0sr95n
p1
I1
sVcyi01xy
p2
I1
s.(dp0
Vcyi01xy
p1
I1
sVd0t7lng
p2
I1
s.(dp0
Vcyi01xy
p1
I1
sVd0x4egh
p2
I1
s.(dp0
Vd124xqj
p1
I1
sVcyi01xy
p2
I1
s.(dp0
Vcyi01xy
p1
I1
sVd13v9m8
p2
I1
s.(dp0
Vd14qo21
p1
I1
sVcyi01xy
p2
I1
s.(dp0
Vd18ngwv
p1
I1
sVcyi01xy
p2
I1
s.(dp0
Vd19zpm1
p1
I1
sVcyi01xy
p2
I1
s.(dp0
Vd1eq1b8
p1
I1
sVcyi01xy
p2
I1
s.(dp0
Vd1h6rvc
p1
I1
sVcyi01xy
p2
I1
s.(dp0
Vd1i94ng
p1
I1
sVcyi01xy
p2
I1
s.(dp0
Vd1isgi1
p1
I1
sVcyi01xy
p2
I1
s.(dp0
Vd1jny6g
p1
I1
sVcyi01xy
p2
I1
s.(dp0
Vd1l77jz
p1
I1
sVcyi01xy
p2
I1
s.(dp0
Vd1mahls
p1
I1
sVcyi01xy
p2
I1
s.(dp0
Vd1n56ca
p1
I1
sVcyi01xy
p2
I1
s.(dp0
Vcyi01xy
p1
I1
sVd1qi6a4
p2
I1
s.(dp0
Vd1qqipk
p1
I1
sVcyi01xy
p2
I1
s.(dp0
Vd1rhv89
p1
I1
sVcyi01xy
p2
I1
s.(dp0
Vd1rkcr1
p1
I1
sVcyi01xy
p2
I1
s.(dp0
Vd1yre8h
p1
I1
sVcyi01xy
p2
I1
s.(dp0
Vcyi01xy
p1
I1
sVd22g2gv
p2
I1
s.(dp0
Vd23asbv
p1
I1
sVcyi01xy
p2
I1
s.(dp0
Vd2463sk
p1
I1
sVcyi01xy
p2
I1
s.(dp0
Vd24zi80
p1
I1
sVcyi01xy
p2
I1
s.(dp0
Vd28egpb
p1
I1
sVcyi01xy
p2
I1
s.(dp0
Vd2b336m
p1
I1
sVcyi01xy
p2
I1
s.(dp0
Vcyi01xy
p1
I1
sVd2bxcgj
p2
I1
s.(dp0
Vd2c4ub8
p1
I1
sVcyi01xy
p2
I1
s.(dp0
Vd2eke0x
p1
I1
sVcyi01xy
p2
I1
s.(dp0
Vd2el5na
p1
I1
sVcyi01xy
p2
I1
s.(dp0
Vd2gsjy8
p1
I1
sVcyi01xy
p2
I1
s.(dp0
Vd2ixf6i
p1
I1
sVcyi01xy
p2
I1
s.(dp0
Vd2qts55
p1
I1
sVcyi01xy
p2
I1
s.(dp0
Vd2snfyb
p1
I1
sVcyi01xy
p2
I1
s.(dp0
Vd2uu8c5
p1
I1
sVcyi01xy
p2
I1
s.(dp0
Vd2uu8c5
p1
I1
sVcy(dp0
Vdomf5b7
p1
I1
sVcyi01xy
p2
I1
s.