(dp0
Vcyp79mj
p1
I1
s.(dp0
Vcz3sqb3
p1
I1
sVcyp79mj
p2
I1
s.(dp0
Vczhefjg
p1
I1
sVcyp79mj
p2
I1
s.(dp0
Vd093nj7
p1
I1
sVcyp79mj
p2
I1
s.(dp0
Vd0havvz
p1
I1
sVcyp79mj
p2
I1
s.(dp0
Vd1a6gzz
p1
I1
sVcyp79mj
p2
I1
s.(dp0
Vd44snnb
p1
I1
sVcyp79mj
p2
I1
s.(dp0
Vcyp79mj
p1
I1
sVd51gvy2
p2
I1
s.(dp0
Vd544622
p1
I1
sVcyp79mj
p2
I1
s.(dp0
Vd67nsi5
p1
I1
sVcyp79mj
p2
I1
s.(dp0
Vd8m9v09
p1
I1
sVcyp79mj
p2
I1
s.(dp0
Vd9gwdnk
p1
I1
sVcyp79mj
p2
I1
s.(dp0
Vcyp79mj
p1
I1
sVdbi7tue
p2
I1
s.(dp0
Vdbw9f5x
p1
I1
sVcyp79mj
p2
I1
s.(dp0
Vdc2s85r
p1
I1
sVcyp79mj
p2
I1
s.(dp0
Vdcvbi14
p1
I1
sVcyp79mj
p2
I1
s.(dp0
Vdd45wj5
p1
I1
sVcyp79mj
p2
I1
s.(dp0
Vdeeyczm
p1
I1
sVcyp79mj
p2
I1
s.(dp0
Vdgm3ewz
p1
I1
sVcyp79mj
p2
I1
s.(dp0
Vdgwa0j0
p1
I1
sVcyp79mj
p2
I1
s.(dp0
Vdmgyx83
p1
I1
sVcyp79mj
p2
I1
s.(dp0
Vdmhabpm
p1
I1
sVcyp79mj
p2
I1
s.(dp0
Vdnpqws0
p1
I1
sVcyp79mj
p2
I1
s.(dp0
Vdp1iydz
p1
I1
sVcyp79mj
p2
I1
s.