(dp0
Vcyicce8
p1
I1
s.(dp0
Vcyicce8
p1
I1
sVcym00k5
p2
I1
s.(dp0
Vcyuzcrf
p1
I1
sVcyicce8
p2
I1
s.(dp0
Vcyicce8
p1
I1
sVcyyhhle
p2
I1
s.(dp0
Vcyicce8
p1
I1
sVcyz6qfs
p2
I1
s.(dp0
Vcyicce8
p1
I1
sVcyz6qfs
p2
I1
s.(dp0
Vcyicce8
p1
I1
sVcyzmjop
p2
I1
s.(dp0
Vcyicce8
p1
I1
sVcz1ztoi
p2
I1
s.(dp0
Vcz37vn4
p1
I1
sVcyicce8
p2
I1
s.(dp0
Vcz9gop5
p1
I1
sVcyicce8
p2
I1
s.(dp0
Vczb0d7y
p1
I1
sVcyicce8
p2
I1
s.(dp0
Vcyicce8
p1
I1
sVczek9za
p2
I1
s.(dp0
Vczl3xgf
p1
I1
sVcyicce8
p2
I1
s.(dp0
Vcyicce8
p1
I1
sVczv1dv2
p2
I1
s.(dp0
Vczw501g
p1
I1
sVcyicce8
p2
I1
s.(dp0
Vczwcyir
p1
I1
sVcyicce8
p2
I1
s.(dp0
Vcyicce8
p1
I1
sVczylfid
p2
I1
s.(dp0
Vd01aoex
p1
I1
sVcyicce8
p2
I1
s.(dp0
Vd0d71ih
p1
I1
sVcyicce8
p2
I1
s.(dp0
Vcyicce8
p1
I1
sVd0dyxw2
p2
I1
s.(dp0
Vcyicce8
p1
I1
sVd0llueh
p2
I1
s.(dp0
Vd0yryfj
p1
I1
sVcyicce8
p2
I1
s.(dp0
Vd139u8n
p1
I1
sVcyicce8
p2
I1
s.(dp0
Vcyicce8
p1
I1
sVd18ikk9
p2
I1
s.(dp0
Vcyicce8
p1
I1
sVd1ivz41
p2
I1
s.(dp0
Vcyicce8
p1
I1
sVd1n6wml
p2
I1
s.(dp0
Vd1nv9p0
p1
I1
sVcyicce8
p2
I1
s.(dp0
Vd1vphho
p1
I1
sVcyicce8
p2
I1
s.(dp0
Vd1w1qq0
p1
I1
sVcyicce8
p2
I1
s.(dp0
Vcyicce8
p1
I1
sVd1wgtnn
p2
I1
s.(dp0
Vcyicce8
p1
I1
sVd25unfm
p2
I1
s.(dp0
Vcyicce8
p1
I1
sVd26svz0
p2
I1
s.(dp0
Vcyicce8
p1
I1
sVd28ag09
p2
I1
s.(dp0
Vcyicce8
p1
I1
sVd29fyq4
p2
I1
s.(dp0
Vcyicce8
p1
I1
sVd2i8okv
p2
I1
s.(dp0
Vd2koktf
p1
I1
sVcyicce8
p2
I1
s.(dp0
Vd2n2q4r
p1
I1
sVcyicce8
p2
I1
s.(dp0
Vd2z8963
p1
I1
sVcyicce8
p2
I1
s.(dp0
Vd2zevj5
p1
I1
sVcyicce8
p2
I1
s.(dp0
Vd3amrfc
p1
I1
sVcyicce8
p2
I1
s.(dp0
Vd3dr7wv
p1
I1
sVcyicce8
p2
I1
s.(dp0
Vcyicce8
p1
I1
sVd3dvifw
p2
I1
s.(dp0
Vcyicce8
p1
I1
sVd3e4957
p2
I1
s.(dp0
Vd3fselh
p1
I1
sVcyicce8
p2
I1
s.(dp0
Vd3iwtjy
p1
I1
sVcyicce8
p2
I1
s.(dp0
Vcyicce8
p1
I1
sVd3jq3ge
p2
I1
s.(dp0
Vcyicce8
p1
I1
sVd3sygl0
p2
I1
s.(dp0
Vcyicce8
p1
I1
sVd3tpntj
p2
I1
s.(dp0
Vcyicce8
p1
I1
sVd4033vz
p2
I1
s.(dp0
Vd4ipi9t
p1
I1
sVcyicce8
p2
I1
s.(dp0
Vcyicce8
p1
I1
sVd4ms7h2
p2
I1
s.(dp0
Vd4u924x
p1
I1
sVcyicce8
p2
I1
s.(dp0
Vcyicce8
p1
I1
sVd5363c9
p2
I1
s.(dp0
Vcyicce8
p1
I1
sVd541kks
p2
I1
s.(dp0
Vd542hba
p1
I1
sVcyicce8
p2
I1
s.(dp0
Vd54svom
p1
I1
sVcyicce8
p2
I1
s.(dp0
Vcyicce8
p1
I1
sVd55hzwa
p2
I1
s.(dp0
Vd57qjld
p1
I1
sVcyicce8
p2
I1
s.(dp0
Vd57rn1q
p1
I1
sVcyicce8
p2
I1
s.(dp0
Vcyicce8
p1
I1
sVd59w3yk
p2
I1
s.(dp0
Vcyicce8
p1
I1
sVd5aozwl
p2
I1
s.(dp0
Vcyicce8
p1
I1
sVd5bxm7b
p2
I1
s.(dp0
Vcyicce8
p1
I1
sVd5cyfo4
p2
I1
s.(dp0
Vcyicce8
p1
I1
sVd5cyfo4
p2
I1
s.(dp0
Vd5h71fb
p1
I1
sVcyicce8
p2
I1
s.(dp0
Vcyicce8
p1
I1
sVd5i0zu3
p2
I1
s.(dp0
Vd5i9y0b
p1
I1
sVcyicce8
p2
I1
s.(dp0
Vd5nodd6
p1
I1
sVcyicce8
p2
I1
s.(dp0
Vcyicce8
p1
I1
sVd5trhhn
p2
I1
s.(dp0
Vcyicce8
p1
I1
sVd627gng
p2
I1
s.(dp0
Vcyicce8
p1
I1
sVd6enhju
p2
I1
s.(dp0
Vd6nk8yx
p1
I1
sVcyicce8
p2
I1
s.(dp0
Vcyicce8
p1
I1
sVd6yk5pw
p2
I1
s.(dp0
Vd70mjt9
p1
I1
sVcyicce8
p2
I1
s.(dp0
Vcyicce8
p1
I1
sVd789djv
p2
I1
s.(dp0
Vcyicce8
p1
I1
sVd79xph2
p2
I1
s.(dp0
Vcyicce8
p1
I1
sVd7cn5ir
p2
I1
s.(dp0
Vcyicce8
p1
I1
sVd7ctqx4
p2
I1
s.(dp0
Vd7fzirg
p1
I1
sVcyicce8
p2
I1
s.(dp0
Vd7l6dr9
p1
I1
sVcyicce8
p2
I1
s.(dp0
Vd7n3kn9
p1
I1
sVcyicce8
p2
I1
s.(dp0
Vcyicce8
p1
I1
sVd7zaw2i
p2
I1
s.(dp0
Vcyicce8
p1
I1
sVd7zaw2i
p2
I1
s.(dp0
Vcyicce8
p1
I1
sVd83p3m7
p2
I1
s.(dp0
Vcyicce8
p1
I1
sVd8cglg1
p2
I1
s.(dp0
Vd8fhpud
p1
I1
sVcyicce8
p2
I1
s.(dp0
Vd8m5m7p
p1
I1
sVcyicce8
p2
I1
s.(dp0
Vd8o9lww
p1
I1
sVcyicce8
p2
I1
s.(dp0
Vcyicce8
p1
I1
sVd8suw6i
p2
I1
s.(dp0
Vcyicce8
p1
I1
sVd8t10wr
p2
I1
s.(dp0
Vcyicce8
p1
I1
sVd8xrj6p
p2
I1
s.(dp0
Vcyicce8
p1
I1
sVd90nny8
p2
I1
s.(dp0
Vcyicce8
p1
I1
sVd97wc6m
p2
I1
s.(dp0
Vcyicce8
p1
I1
sVd9gsfpm
p2
I1
s.(dp0
Vd9p6wce
p1
I1
sVcyicce8
p2
I1
s.(dp0
Vcyicce8
p1
I1
sVd9wky1h
p2
I1
s.(dp0
Vda2w3au
p1
I1
sVcyicce8
p2
I1
s.(dp0
Vcyicce8
p1
I1
sVda5jivq
p2
I1
s.(dp0
Vcyicce8
p1
I1
sVda7sezs
p2
I1
s.(dp0
Vcyicce8
p1
I1
sVdadlqm5
p2
I1
s.(dp0
Vdados4x
p1
I1
sVcyicce8
p2
I1
s.(dp0
Vdajglbt
p1
I1
sVcyicce8
p2
I1
s.(dp0
Vdak7zt9
p1
I1
sVcyicce8
p2
I1
s.(dp0
Vcyicce8
p1
I1
sVdanafny
p2
I1
s.(dp0
Vdap6zms
p1
I1
sVcyicce8
p2
I1
s.(dp0
Vcyicce8
p1
I1
sVdap72dz
p2
I1
s.(dp0
Vcyicce8
p1
I1
sVdb1y98z
p2
I1
s.(dp0
Vcyicce8
p1
I1
sVdb57je3
p2
I1
s.(dp0
Vcy(dp0
Vdkoyqxj
p1
I1
sVcyicce8
p2
I1
s.