(dp0
Vcyi9d1m
p1
I1
s.(dp0
Vcyiniq5
p1
I1
sVcyi9d1m
p2
I1
s.(dp0
Vcyir9yb
p1
I1
sVcyi9d1m
p2
I1
s.(dp0
Vcyir9yb
p1
I1
sVcyi9d1m
p2
I1
s.(dp0
Vcyj493i
p1
I1
sVcyi9d1m
p2
I1
s.(dp0
Vcymn2pf
p1
I1
sVcyi9d1m
p2
I1
s.(dp0
Vcymp7fn
p1
I1
sVcyi9d1m
p2
I1
s.(dp0
Vcynuck3
p1
I1
sVcyi9d1m
p2
I1
s.(dp0
Vcys55td
p1
I1
sVcyi9d1m
p2
I1
s.(dp0
Vcys562g
p1
I1
sVcyi9d1m
p2
I1
s.(dp0
Vcysz2ky
p1
I1
sVcyi9d1m
p2
I1
s.(dp0
Vcytzkot
p1
I1
sVcyi9d1m
p2
I1
s.(dp0
Vcytzkot
p1
I1
sVcyi9d1m
p2
I1
s.(dp0
Vcyuyjjb
p1
I1
sVcyi9d1m
p2
I1
s.(dp0
Vcyv5chk
p1
I1
sVcyi9d1m
p2
I1
s.(dp0
Vcyv927n
p1
I1
sVcyi9d1m
p2
I1
s.(dp0
Vcyvvcr1
p1
I1
sVcyi9d1m
p2
I1
s.(dp0
Vcyvvcr1
p1
I1
sVcyi9d1m
p2
I1
s.(dp0
Vcywe9he
p1
I1
sVcyi9d1m
p2
I1
s.(dp0
Vcywe9r9
p1
I1
sVcyi9d1m
p2
I1
s.(dp0
Vcz06kzq
p1
I1
sVcyi9d1m
p2
I1
s.(dp0
Vcz10bl2
p1
I1
sVcyi9d1m
p2
I1
s.(dp0
Vcz46qjd
p1
I1
sVcyi9d1m
p2
I1
s.(dp0
Vcz4b1t4
p1
I1
sVcyi9d1m
p2
I1
s.(dp0
Vcz4voqx
p1
I1
sVcyi9d1m
p2
I1
s.(dp0
Vcz4voqx
p1
I1
sVcyi9d1m
p2
I1
s.(dp0
Vcz4voqx
p1
I1
sVcyi9d1m
p2
I1
s.(dp0
Vcz4wa1q
p1
I1
sVcyi9d1m
p2
I1
s.(dp0
Vcz5dh6c
p1
I1
sVcyi9d1m
p2
I1
s.(dp0
Vcz5p74o
p1
I1
sVcyi9d1m
p2
I1
s.(dp0
Vcz64otw
p1
I1
sVcyi9d1m
p2
I1
s.(dp0
Vcz64otw
p1
I1
sVcyi9d1m
p2
I1
s.(dp0
Vcz64otw
p1
I1
sVcyi9d1m
p2
I1
s.(dp0
Vcz6ant2
p1
I1
sVcyi9d1m
p2
I1
s.(dp0
Vcz98ltf
p1
I1
sVcyi9d1m
p2
I1
s.(dp0
Vcz9uqi8
p1
I1
sVcyi9d1m
p2
I1
s.(dp0
Vcz9xjvs
p1
I1
sVcyi9d1m
p2
I1
s.(dp0
Vczbppvp
p1
I1
sVcyi9d1m
p2
I1
s.(dp0
Vczc7l5k
p1
I1
sVcyi9d1m
p2
I1
s.(dp0
Vczc7ly7
p1
I1
sVcyi9d1m
p2
I1
s.(dp0
Vczcb3xu
p1
I1
sVcyi9d1m
p2
I1
s.(dp0
Vczh610t
p1
I1
sVcyi9d1m
p2
I1
s.(dp0
Vczi1oqp
p1
I1
sVcyi9d1m
p2
I1
s.(dp0
Vczi2ioe
p1
I1
sVcyi9d1m
p2
I1
s.(dp0
Vcziiqp1
p1
I1
sVcyi9d1m
p2
I1
s.(dp0
Vczjcllu
p1
I1
sVcyi9d1m
p2
I1
s.(dp0
Vczky2o5
p1
I1
sVcyi9d1m
p2
I1
s.(dp0
Vczl2rcb
p1
I1
sVcyi9d1m
p2
I1
s.(dp0
Vczlt093
p1
I1
sVcyi9d1m
p2
I1
s.(dp0
Vczm9i01
p1
I1
sVcyi9d1m
p2
I1
s.(dp0
Vczn2hj4
p1
I1
sVcyi9d1m
p2
I1
s.(dp0
Vczn9ysz
p1
I1
sVcyi9d1m
p2
I1
s.(dp0
Vcznwhao
p1
I1
sVcyi9d1m
p2
I1
s.(dp0
Vczo8q36
p1
I1
sVcyi9d1m
p2
I1
s.(dp0
Vczoims2
p1
I1
sVcyi9d1m
p2
I1
s.(dp0
Vczoj7jr
p1
I1
sVcyi9d1m
p2
I1
s.(dp0
Vczp9nph
p1
I1
sVcyi9d1m
p2
I1
s.(dp0
Vczpyhso
p1
I1
sVcyi9d1m
p2
I1
s.(dp0
Vczr1fsx
p1
I1
sVcyi9d1m
p2
I1
s.(dp0
Vczrltbl
p1
I1
sVcyi9d1m
p2
I1
s.(dp0
Vczs70kp
p1
I1
sVcyi9d1m
p2
I1
s.(dp0
Vczslfmd
p1
I1
sVcyi9d1m
p2
I1
s.(dp0
Vcztdcrr
p1
I1
sVcyi9d1m
p2
I1
s.(dp0
Vcztrith
p1
I1
sVcyi9d1m
p2
I1
s.(dp0
Vcztwhsj
p1
I1
sVcyi9d1m
p2
I1
s.(dp0
Vczu7367
p1
I1
sVcyi9d1m
p2
I1
s.(dp0
Vczv2nsc
p1
I1
sVcyi9d1m
p2
I1
s.(dp0
Vczv58c2
p1
I1
sVcyi9d1m
p2
I1
s.(dp0
Vczvyhl4
p1
I1
sVcyi9d1m
p2
I1
s.(dp0
Vczw16y0
p1
I1
sVcyi9d1m
p2
I1
s.(dp0
Vczw16y0
p1
I1
sVcyi9d1m
p2
I1
s.(dp0
Vczw16y0
p1
I1
sVcyi9d1m
p2
I1
s.(dp0
Vczwmkqe
p1
I1
sVcyi9d1m
p2
I1
s.(dp0
Vczxlomt
p1
I1
sVcyi9d1m
p2
I1
s.(dp0
Vd0129ci
p1
I1
sVcyi9d1m
p2
I1
s.(dp0
Vd01b8l9
p1
I1
sVcyi9d1m
p2
I1
s.(dp0
Vd0217n0
p1
I1
sVcyi9d1m
p2
I1
s.(dp0
Vd02s3ld
p1
I1
sVcyi9d1m
p2
I1
s.(dp0
Vd03du1b
p1
I1
sVcyi9d1m
p2
I1
s.(dp0
Vd03m6wk
p1
I1
sVcyi9d1m
p2
I1
s.(dp0
Vd03xs2c
p1
I1
sVcyi9d1m
p2
I1
s.(dp0
Vd03yqyz
p1
I1
sVcyi9d1m
p2
I1
s.(dp0
Vd04m1cw
p1
I1
sVcyi9d1m
p2
I1
s.(dp0
Vd04uhac
p1
I1
sVcyi9d1m
p2
I1
s.(dp0
Vd04uhac
p1
I1
sVcyi9d1m
p2
I1
s.(dp0
Vd05641a
p1
I1
sVcyi9d1m
p2
I1
s.(dp0
Vd057izc
p1
I1
sVcyi9d1m
p2
I1
s.(dp0
Vd05wth8
p1
I1
sVcyi9d1m
p2
I1
s.(dp0
Vd05x4f5
p1
I1
sVcyi9d1m
p2
I1
s.(dp0
Vd075tfb
p1
I1
sVcyi9d1m
p2
I1
s.(dp0
Vd079wmg
p1
I1
sVcyi9d1m
p2
I1
s.(dp0
Vd07zd0i
p1
I1
sVcyi9d1m
p2
I1
s.(dp0
Vd07zd0i
p1
I1
sVcyi9d1m
p2
I1
s.(dp0
Vd080f7q
p1
I1
sVcyi9d1m
p2
I1
s.(dp0
Vd08wx2a
p1
I1
sVcyi9d1m
p2
I1
s.(dp0
Vd09hpc2
p1
I1
sVcyi9d1m
p2
I1
s.(dp0
Vd09l1fz
p1
I1
sVcyi9d1m
p2
I1
s.(dp0
Vd09tc89
p1
I1
sVcyi9d1m
p2
I1
s.(dp0
Vd0dh1j0
p1
I1
sVcyi9d1m
p2
I1
s.(dp0
Vd0dh1j0
p1
I1
sVcyi9d1m
p2
I1
s.(dp0
Vd0eo5dn
p1
I1
sVcyi9d1m
p2
I1
s.(dp0
Vd0evncz
p1
I1
sVcyi9d1m
p2
I1
s.(dp0
Vd0evncz
p1
I1
sVcyi9d1m
p2
I1
s.(dp0
Vd0exagz
p1
I1
sVcyi9d1m
p2
I1
s.(dp0
Vd0fur88
p1
I1
sVcyi9d1m
p2
I1
s.(dp0
Vd0gzc7f
p1
I1
sVcyi9d1m
p2
I1
s.(dp0
Vd0h3cn7
p1
I1
sVcyi9d1m
p2
I1
s.(dp0
Vd0h3cn7
p1
I1
sVcyi9d1m
p2
I1
s.(dp0
Vd0(dp0
Vdp5dkbt
p1
I1
sVcyi9d1m
p2
I1
s.