(dp0
Vcyja2by
p1
I1
s.(dp0
Vcyja2by
p1
I1
sVcyktywf
p2
I1
s.(dp0
Vcyja2by
p1
I1
sVcynnrcq
p2
I1
s.(dp0
Vcyja2by
p1
I1
sVcypb9tx
p2
I1
s.(dp0
Vcyja2by
p1
I1
sVcypb9tx
p2
I1
s.(dp0
Vcyja2by
p1
I1
sVcypb9tx
p2
I1
s.(dp0
Vcyja2by
p1
I1
sVcyvvcr1
p2
I1
s.(dp0
Vcyja2by
p1
I1
sVczgo9q3
p2
I1
s.(dp0
Vczgq7ob
p1
I1
sVcyja2by
p2
I1
s.(dp0
Vcyja2by
p1
I1
sVczgs71v
p2
I1
s.(dp0
Vcyja2by
p1
I1
sVczgs71v
p2
I1
s.(dp0
Vcyja2by
p1
I1
sVczgv8k9
p2
I1
s.(dp0
Vczhf9wx
p1
I1
sVcyja2by
p2
I1
s.(dp0
Vczn8538
p1
I1
sVcyja2by
p2
I1
s.(dp0
Vcyja2by
p1
I1
sVczr4457
p2
I1
s.(dp0
Vcyja2by
p1
I1
sVczr4457
p2
I1
s.(dp0
Vcyja2by
p1
I1
sVczr4457
p2
I1
s.(dp0
Vcyja2by
p1
I1
sVczr4457
p2
I1
s.(dp0
Vczrltbl
p1
I1
sVcyja2by
p2
I1
s.(dp0
Vcyja2by
p1
I1
sVczuaith
p2
I1
s.(dp0
Vcyja2by
p1
I1
sVczuaith
p2
I1
s.(dp0
Vcyja2by
p1
I1
sVczuaith
p2
I1
s.(dp0
Vd01n385
p1
I1
sVcyja2by
p2
I1
s.(dp0
Vd01n385
p1
I1
sVcyja2by
p2
I1
s.(dp0
Vd01n385
p1
I1
sVcyja2by
p2
I1
s.(dp0
Vd04m1cw
p1
I1
sVcyja2by
p2
I1
s.(dp0
Vcyja2by
p1
I1
sVd057izc
p2
I1
s.(dp0
Vcyja2by
p1
I1
sVd05kugt
p2
I1
s.(dp0
Vd0u4b8r
p1
I1
sVcyja2by
p2
I1
s.(dp0
Vd0u4b8r
p1
I1
sVcyja2by
p2
I1
s.(dp0
Vd0yi1vq
p1
I1
sVcyja2by
p2
I1
s.(dp0
Vcyja2by
p1
I1
sVd125tps
p2
I1
s.(dp0
Vcyja2by
p1
I1
sVd125tps
p2
I1
s.(dp0
Vcyja2by
p1
I1
sVd125tps
p2
I1
s.(dp0
Vd1dqmdf
p1
I1
sVcyja2by
p2
I1
s.(dp0
Vcyja2by
p1
I1
sVd1zbds7
p2
I1
s.(dp0
Vd20ea5b
p1
I1
sVcyja2by
p2
I1
s.(dp0
Vd25d8v2
p1
I1
sVcyja2by
p2
I1
s.(dp0
Vcyja2by
p1
I1
sVd27353b
p2
I1
s.(dp0
Vcyja2by
p1
I1
sVd273qqk
p2
I1
s.(dp0
Vcyja2by
p1
I1
sVd28fdse
p2
I1
s.(dp0
Vcyja2by
p1
I1
sVd28g4e8
p2
I1
s.(dp0
Vd2bf2bi
p1
I1
sVcyja2by
p2
I1
s.(dp0
Vcyja2by
p1
I1
sVd2cnn7h
p2
I1
s.(dp0
Vcyja2by
p1
I1
sVd35lqeu
p2
I1
s.(dp0
Vcyja2by
p1
I1
sVd3arxau
p2
I1
s.(dp0
Vcyja2by
p1
I1
sVd3dyxrq
p2
I1
s.(dp0
Vcyja2by
p1
I1
sVd3pdb8b
p2
I1
s.(dp0
Vcyja2by
p1
I1
sVd3yzr5m
p2
I1
s.(dp0
Vd4xid9y
p1
I1
sVcyja2by
p2
I1
s.(dp0
Vcyja2by
p1
I1
sVd4zn6wg
p2
I1
s.(dp0
Vcyja2by
p1
I1
sVd55rzeh
p2
I1
s.(dp0
Vcyja2by
p1
I1
sVd5v6jxy
p2
I1
s.(dp0
Vd7332xh
p1
I1
sVcyja2by
p2
I1
s.(dp0
Vcyja2by
p1
I1
sVd75um0g
p2
I1
s.(dp0
Vcyja2by
p1
I1
sVd77blf7
p2
I1
s.(dp0
Vd77ke4u
p1
I1
sVcyja2by
p2
I1
s.(dp0
Vcyja2by
p1
I1
sVd7dtsy5
p2
I1
s.(dp0
Vcyja2by
p1
I1
sVd7dtsy5
p2
I1
s.(dp0
Vcyja2by
p1
I1
sVd7ua6ek
p2
I1
s.(dp0
Vcyja2by
p1
I1
sVd7vmidq
p2
I1
s.(dp0
Vcyja2by
p1
I1
sVd7vmidq
p2
I1
s.(dp0
Vd8himj2
p1
I1
sVcyja2by
p2
I1
s.(dp0
Vd8l5rmq
p1
I1
sVcyja2by
p2
I1
s.(dp0
Vd8yesio
p1
I1
sVcyja2by
p2
I1
s.(dp0
Vcyja2by
p1
I1
sVd9c34pm
p2
I1
s.(dp0
Vcyja2by
p1
I1
sVd9d5tul
p2
I1
s.(dp0
Vd9eshfv
p1
I1
sVcyja2by
p2
I1
s.(dp0
Vcyja2by
p1
I1
sVd9jf9ob
p2
I1
s.(dp0
Vcyja2by
p1
I1
sVd9otqwc
p2
I1
s.(dp0
Vcyja2by
p1
I1
sVd9sx05j
p2
I1
s.(dp0
Vd9va66g
p1
I1
sVcyja2by
p2
I1
s.(dp0
Vcyja2by
p1
I1
sVd9x0oy8
p2
I1
s.(dp0
Vd9ydsos
p1
I1
sVcyja2by
p2
I1
s.(dp0
Vcyja2by
p1
I1
sVda3zu7j
p2
I1
s.(dp0
Vcyja2by
p1
I1
sVdaqpp2b
p2
I1
s.(dp0
Vcyja2by
p1
I1
sVdaqpp2b
p2
I1
s.(dp0
Vcyja2by
p1
I1
sVdb3xpyf
p2
I1
s.(dp0
Vcyja2by
p1
I1
sVdb67dw3
p2
I1
s.(dp0
Vcyja2by
p1
I1
sVdbls51k
p2
I1
s.(dp0
Vcyja2by
p1
I1
sVdbnqjl5
p2
I1
s.(dp0
Vdc5h4do
p1
I1
sVcyja2by
p2
I1
s.(dp0
Vcyja2by
p1
I1
sVdcey1a5
p2
I1
s.(dp0
Vdcf2ev3
p1
I1
sVcyja2by
p2
I1
s.(dp0
Vdcqhkqy
p1
I1
sVcyja2by
p2
I1
s.(dp0
Vdd4r5xi
p1
I1
sVcyja2by
p2
I1
s.(dp0
Vcyja2by
p1
I1
sVddj8wsg
p2
I1
s.(dp0
Vcyja2by
p1
I1
sVddj8wsg
p2
I1
s.(dp0
Vddwi25x
p1
I1
sVcyja2by
p2
I1
s.(dp0
Vcyja2by
p1
I1
sVddxbvgm
p2
I1
s.(dp0
Vcyja2by
p1
I1
sVdecgbi5
p2
I1
s.(dp0
Vcyja2by
p1
I1
sVdeopydm
p2
I1
s.(dp0
Vcyja2by
p1
I1
sVdew3y1k
p2
I1
s.(dp0
Vdf14w5n
p1
I1
sVcyja2by
p2
I1
s.(dp0
Vdf4yi0r
p1
I1
sVcyja2by
p2
I1
s.(dp0
Vdf6dtct
p1
I1
sVcyja2by
p2
I1
s.(dp0
Vdf7lhtw
p1
I1
sVcyja2by
p2
I1
s.(dp0
Vcyja2by
p1
I1
sVdfbiedv
p2
I1
s.(dp0
Vcyja2by
p1
I1
sVdfo4f0k
p2
I1
s.(dp0
Vcyja2by
p1
I1
sVdfwnb7q
p2
I1
s.(dp0
Vdge0ldj
p1
I1
sVcyja2by
p2
I1
s.(dp0
Vdgl6702
p1
I1
sVcyja2by
p2
I1
s.(dp0
Vcyja2by
p1
I1
sVdh2jwot
p2
I1
s.(dp0
Vdhayaa6
p1
I1
sVcyja2by
p2
I1
s.(dp0
Vdhdnugi
p1
I1
sVcyja2by
p2
I1
s.(dp0
Vdhdpd6c
p1
I1
sVcyja2by
p2
I1
s.(dp0
Vcyja2by
p1
I1
sVdhgweck
p2
I1
s.(dp0
Vcyja2by
p1
I1
sVdhotwzt
p2
I1
s.(dp0
Vcy(dp0
Vcyja2by
p1
I1
sVdjwjru5
p2
I1
s.