(dp0
Vczo7v99
p1
I1
s.(dp0
Vczo7v99
p1
I1
sVczpc031
p2
I1
s.(dp0
Vczo7v99
p1
I1
sVd0quton
p2
I1
s.(dp0
Vczo7v99
p1
I1
sVd2ldae1
p2
I1
s.(dp0
Vczo7v99
p1
I1
sVd2vge3a
p2
I1
s.(dp0
Vczo7v99
p1
I1
sVd2vi5u4
p2
I1
s.(dp0
Vczo7v99
p1
I1
sVd4q00y4
p2
I1
s.(dp0
Vczo7v99
p1
I1
sVd5qem5z
p2
I1
s.(dp0
Vczo7v99
p1
I1
sVd88rog8
p2
I1
s.(dp0
Vczo7v99
p1
I1
sVdd601if
p2
I1
s.(dp0
Vczo7v99
p1
I1
sVddqcqg2
p2
I1
s.(dp0
Vczo7v99
p1
I1
sVdfikfrz
p2
I1
s.(dp0
Vczo7v99
p1
I1
sVdflyaqo
p2
I1
s.(dp0
Vczo7v99
p1
I1
sVdidum8s
p2
I1
s.