(dp0
Vcyxpcux
p1
I1
s.(dp0
Vcyxpcux
p1
I1
sVczskyq5
p2
I1
s.(dp0
Vcyxpcux
p1
I1
sVczskyq5
p2
I1
s.(dp0
Vcyxpcux
p1
I1
sVd0lqv3d
p2
I1
s.(dp0
Vcyxpcux
p1
I1
sVd16u1w1
p2
I1
s.(dp0
Vd1kum2o
p1
I1
sVcyxpcux
p2
I1
s.(dp0
Vcyxpcux
p1
I1
sVd1nawcb
p2
I1
s.(dp0
Vd2ozkxj
p1
I1
sVcyxpcux
p2
I1
s.(dp0
Vcyxpcux
p1
I1
sVd2rl9xu
p2
I1
s.(dp0
Vd3v9gps
p1
I1
sVcyxpcux
p2
I1
s.(dp0
Vcyxpcux
p1
I1
sVd618sl0
p2
I1
s.(dp0
Vcyxpcux
p1
I1
sVd6wm8d4
p2
I1
s.(dp0
Vd75nkil
p1
I1
sVcyxpcux
p2
I1
s.(dp0
Vcyxpcux
p1
I1
sVd7m3eha
p2
I1
s.(dp0
Vcyxpcux
p1
I1
sVdc9l7cc
p2
I1
s.(dp0
Vcyxpcux
p1
I1
sVdc9m5zr
p2
I1
s.(dp0
Vcyxpcux
p1
I1
sVddux4c0
p2
I1
s.(dp0
Vdfkrgae
p1
I1
sVcyxpcux
p2
I1
s.(dp0
Vdfkrgae
p1
I1
sVcyxpcux
p2
I1
s.(dp0
Vcyxpcux
p1
I1
sVdflk9ml
p2
I1
s.(dp0
Vdg4y5y3
p1
I1
sVcyxpcux
p2
I1
s.(dp0
Vcyxpcux
p1
I1
sVdgk9ivm
p2
I1
s.(dp0
Vcyxpcux
p1
I1
sVdhi21nm
p2
I1
s.(dp0
Vdhkukqm
p1
I1
sVcyxpcux
p2
I1
s.(dp0
Vdi0vw4g
p1
I1
sVcyxpcux
p2
I1
s.(dp0
Vcyxpcux
p1
I1
sVdiimfdn
p2
I1
s.(dp0
Vcyxpcux
p1
I1
sVdivroq5
p2
I1
s.(dp0
Vdk7bdkt
p1
I1
sVcyxpcux
p2
I1
s.