(dp0
Vcynp81r
p1
I1
s.(dp0
Vcynp81r
p1
I2
s.(dp0
Vcyocw47
p1
I1
sVcynp81r
p2
I1
s.(dp0
Vcyp2v3w
p1
I1
sVcynp81r
p2
I1
s.(dp0
Vcyqpqwr
p1
I1
sVcynp81r
p2
I1
s.(dp0
Vcyqtjs6
p1
I1
sVcynp81r
p2
I1
s.(dp0
Vcytsoyj
p1
I1
sVcynp81r
p2
I1
s.(dp0
Vcynp81r
p1
I1
sVcyvdafm
p2
I1
s.(dp0
Vcywk023
p1
I1
sVcynp81r
p2
I1
s.(dp0
Vcyxredd
p1
I1
sVcynp81r
p2
I1
s.(dp0
Vcz0jt22
p1
I1
sVcynp81r
p2
I1
s.(dp0
Vcz1u0hs
p1
I1
sVcynp81r
p2
I1
s.(dp0
Vcynp81r
p1
I1
sVcz87b3c
p2
I1
s.(dp0
Vcynp81r
p1
I1
sVcz9ne50
p2
I1
s.(dp0
Vcynp81r
p1
I1
sVczg2t2b
p2
I1
s.(dp0
Vczjs486
p1
I1
sVcynp81r
p2
I1
s.(dp0
Vczv1qt5
p1
I1
sVcynp81r
p2
I1
s.(dp0
Vczvivcr
p1
I1
sVcynp81r
p2
I1
s.(dp0
Vczyjdax
p1
I1
sVcynp81r
p2
I1
s.(dp0
Vczz6qod
p1
I1
sVcynp81r
p2
I1
s.(dp0
Vd000evx
p1
I1
sVcynp81r
p2
I1
s.(dp0
Vcynp81r
p1
I1
sVd01czgw
p2
I1
s.(dp0
Vd025vi3
p1
I1
sVcynp81r
p2
I1
s.(dp0
Vd045awi
p1
I1
sVcynp81r
p2
I1
s.(dp0
Vd067c64
p1
I1
sVcynp81r
p2
I1
s.(dp0
Vd06tqx3
p1
I1
sVcynp81r
p2
I1
s.(dp0
Vcynp81r
p1
I1
sVd06yafg
p2
I1
s.(dp0
Vd089r00
p1
I1
sVcynp81r
p2
I1
s.(dp0
Vd090cdn
p1
I1
sVcynp81r
p2
I1
s.(dp0
Vcynp81r
p1
I1
sVd0cacqm
p2
I1
s.(dp0
Vd0cidz0
p1
I1
sVcynp81r
p2
I1
s.(dp0
Vcynp81r
p1
I1
sVd0ck5am
p2
I1
s.(dp0
Vd0dbo1c
p1
I1
sVcynp81r
p2
I1
s.(dp0
Vd0eo5dn
p1
I1
sVcynp81r
p2
I1
s.(dp0
Vd0evz5p
p1
I1
sVcynp81r
p2
I1
s.(dp0
Vcynp81r
p1
I1
sVd0icb5l
p2
I1
s.(dp0
Vd0iv0hp
p1
I1
sVcynp81r
p2
I1
s.(dp0
Vd0qrzhq
p1
I1
sVcynp81r
p2
I1
s.(dp0
Vcynp81r
p1
I1
sVd11wjho
p2
I1
s.(dp0
Vcynp81r
p1
I1
sVd13vjn4
p2
I1
s.(dp0
Vd14kfoz
p1
I1
sVcynp81r
p2
I1
s.(dp0
Vd15m5x8
p1
I1
sVcynp81r
p2
I1
s.(dp0
Vd1dgeo9
p1
I1
sVcynp81r
p2
I1
s.(dp0
Vd1dgeo9
p1
I1
sVcynp81r
p2
I1
s.(dp0
Vd1u582t
p1
I1
sVcynp81r
p2
I1
s.(dp0
Vcynp81r
p1
I1
sVd1ypbx5
p2
I1
s.(dp0
Vd2458qg
p1
I1
sVcynp81r
p2
I1
s.(dp0
Vcynp81r
p1
I1
sVd255tqo
p2
I1
s.(dp0
Vd264b40
p1
I1
sVcynp81r
p2
I1
s.(dp0
Vcynp81r
p1
I1
sVd2a5opb
p2
I1
s.(dp0
Vcynp81r
p1
I1
sVd2b38hk
p2
I1
s.(dp0
Vd2eig32
p1
I1
sVcynp81r
p2
I1
s.(dp0
Vd2kdsvy
p1
I1
sVcynp81r
p2
I1
s.(dp0
Vd2n6gyp
p1
I1
sVcynp81r
p2
I1
s.(dp0
Vd2ou2cr
p1
I1
sVcynp81r
p2
I1
s.(dp0
Vcynp81r
p1
I1
sVd2u4uy8
p2
I1
s.(dp0
Vd2v32l8
p1
I1
sVcynp81r
p2
I1
s.(dp0
Vd2vxllc
p1
I1
sVcynp81r
p2
I1
s.(dp0
Vd2ztejp
p1
I1
sVcynp81r
p2
I1
s.(dp0
Vcynp81r
p1
I1
sVd32fqgu
p2
I1
s.(dp0
Vcynp81r
p1
I1
sVd32fqgu
p2
I1
s.(dp0
Vd34o4f4
p1
I1
sVcynp81r
p2
I1
s.(dp0
Vd35ey6k
p1
I1
sVcynp81r
p2
I1
s.(dp0
Vcynp81r
p1
I1
sVd36bmsg
p2
I1
s.(dp0
Vcynp81r
p1
I1
sVd38rp5j
p2
I1
s.(dp0
Vd38wc38
p1
I1
sVcynp81r
p2
I1
s.(dp0
Vcynp81r
p1
I1
sVd3hrixo
p2
I1
s.(dp0
Vd3i77er
p1
I1
sVcynp81r
p2
I1
s.(dp0
Vd3jsun5
p1
I1
sVcynp81r
p2
I1
s.(dp0
Vcynp81r
p1
I1
sVd3pdb8b
p2
I1
s.(dp0
Vcynp81r
p1
I1
sVd3pdb8b
p2
I1
s.(dp0
Vcynp81r
p1
I1
sVd3qfb6n
p2
I1
s.(dp0
Vd3v6xyy
p1
I1
sVcynp81r
p2
I1
s.(dp0
Vcynp81r
p1
I1
sVd417hpm
p2
I1
s.(dp0
Vd4j068j
p1
I1
sVcynp81r
p2
I1
s.(dp0
Vd4jif0n
p1
I1
sVcynp81r
p2
I1
s.(dp0
Vd4uiucv
p1
I1
sVcynp81r
p2
I1
s.(dp0
Vd4x6l5v
p1
I1
sVcynp81r
p2
I1
s.(dp0
Vd4z7tdl
p1
I1
sVcynp81r
p2
I1
s.(dp0
Vcynp81r
p1
I1
sVd50iskv
p2
I1
s.(dp0
Vd53gusd
p1
I1
sVcynp81r
p2
I1
s.(dp0
Vd566sbc
p1
I1
sVcynp81r
p2
I1
s.(dp0
Vd56vcv1
p1
I1
sVcynp81r
p2
I1
s.(dp0
Vcynp81r
p1
I1
sVd584zmn
p2
I1
s.(dp0
Vd5bbaxu
p1
I1
sVcynp81r
p2
I1
s.(dp0
Vcynp81r
p1
I1
sVd5brut2
p2
I1
s.(dp0
Vd5e7ncd
p1
I1
sVcynp81r
p2
I1
s.(dp0
Vd5e7ncd
p1
I1
sVcynp81r
p2
I1
s.(dp0
Vd5odhi6
p1
I1
sVcynp81r
p2
I1
s.(dp0
Vd5or3j5
p1
I1
sVcynp81r
p2
I1
s.(dp0
Vd5p4y8i
p1
I1
sVcynp81r
p2
I1
s.(dp0
Vcynp81r
p1
I1
sVd5tihhl
p2
I1
s.(dp0
Vd5u8zme
p1
I1
sVcynp81r
p2
I1
s.(dp0
Vd61op8x
p1
I1
sVcynp81r
p2
I1
s.(dp0
Vd62b9mb
p1
I1
sVcynp81r
p2
I1
s.(dp0
Vd65fzqk
p1
I1
sVcynp81r
p2
I1
s.(dp0
Vd6ehqw5
p1
I1
sVcynp81r
p2
I1
s.(dp0
Vd6f8bg8
p1
I1
sVcynp81r
p2
I1
s.(dp0
Vcynp81r
p1
I1
sVd6kbti1
p2
I1
s.(dp0
Vd6rg5xo
p1
I1
sVcynp81r
p2
I1
s.(dp0
Vd6s75ad
p1
I1
sVcynp81r
p2
I1
s.(dp0
Vd6zwsjp
p1
I1
sVcynp81r
p2
I1
s.(dp0
Vcynp81r
p1
I1
sVd71lnf9
p2
I1
s.(dp0
Vcynp81r
p1
I1
sVd796ozf
p2
I1
s.(dp0
Vd7o89p8
p1
I1
sVcynp81r
p2
I1
s.(dp0
Vd7txg01
p1
I1
sVcynp81r
p2
I1
s.(dp0
Vd7zqmc1
p1
I1
sVcynp81r
p2
I1
s.(dp0
Vd81vyb1
p1
I1
sVcynp81r
p2
I1
s.(dp0
Vd81vyb1
p1
I1
sVcy(dp0
Vcynp81r
p1
I1
sVdkz5y1t
p2
I1
s.