(dp0
Vcyhzimt
p1
I1
s.(dp0
Vcyhzimt
p1
I2
s.(dp0
Vcyhzimt
p1
I1
sVcykidi4
p2
I1
s.(dp0
Vcyhzimt
p1
I1
sVcymf0ip
p2
I1
s.(dp0
Vcyhzimt
p1
I1
sVcyopagg
p2
I1
s.(dp0
Vcytzqx5
p1
I1
sVcyhzimt
p2
I1
s.(dp0
Vcz39jse
p1
I1
sVcyhzimt
p2
I1
s.(dp0
Vcyhzimt
p1
I1
sVcz3wbb1
p2
I1
s.(dp0
Vcz40cgh
p1
I1
sVcyhzimt
p2
I1
s.(dp0
Vczc652q
p1
I1
sVcyhzimt
p2
I1
s.(dp0
Vcyhzimt
p1
I1
sVczlxnw2
p2
I1
s.(dp0
Vcyhzimt
p1
I1
sVczscbqy
p2
I1
s.(dp0
Vczxga4l
p1
I1
sVcyhzimt
p2
I1
s.(dp0
Vcyhzimt
p1
I1
sVczzvb2t
p2
I1
s.(dp0
Vd02l804
p1
I1
sVcyhzimt
p2
I1
s.(dp0
Vcyhzimt
p1
I1
sVd03owk2
p2
I1
s.(dp0
Vcyhzimt
p1
I1
sVd03q43y
p2
I1
s.(dp0
Vcyhzimt
p1
I1
sVd03q43y
p2
I1
s.(dp0
Vcyhzimt
p1
I1
sVd03teht
p2
I1
s.(dp0
Vcyhzimt
p1
I1
sVd0409sy
p2
I1
s.(dp0
Vd040lll
p1
I1
sVcyhzimt
p2
I1
s.(dp0
Vd089p2c
p1
I1
sVcyhzimt
p2
I1
s.(dp0
Vcyhzimt
p1
I1
sVd08bccp
p2
I1
s.(dp0
Vd08nxu2
p1
I1
sVcyhzimt
p2
I1
s.(dp0
Vcyhzimt
p1
I1
sVd08o0tv
p2
I1
s.(dp0
Vcyhzimt
p1
I1
sVd08o2vl
p2
I1
s.(dp0
Vcyhzimt
p1
I1
sVd0ek8pi
p2
I1
s.(dp0
Vcyhzimt
p1
I1
sVd0g7hwx
p2
I1
s.(dp0
Vd0ncb5i
p1
I1
sVcyhzimt
p2
I1
s.(dp0
Vcyhzimt
p1
I1
sVd0oiilo
p2
I1
s.(dp0
Vcyhzimt
p1
I1
sVd0tqssc
p2
I1
s.(dp0
Vcyhzimt
p1
I1
sVd0yuwd5
p2
I1
s.(dp0
Vd10asoz
p1
I1
sVcyhzimt
p2
I1
s.(dp0
Vcyhzimt
p1
I1
sVd11o1p6
p2
I1
s.(dp0
Vcyhzimt
p1
I1
sVd1h1na4
p2
I1
s.(dp0
Vcyhzimt
p1
I1
sVd1pc6kt
p2
I1
s.(dp0
Vcyhzimt
p1
I1
sVd1u06uq
p2
I1
s.(dp0
Vd1wci5a
p1
I1
sVcyhzimt
p2
I1
s.(dp0
Vd1wci5a
p1
I1
sVcyhzimt
p2
I1
s.(dp0
Vd20wf58
p1
I1
sVcyhzimt
p2
I1
s.(dp0
Vcyhzimt
p1
I1
sVd28ptow
p2
I1
s.(dp0
Vd2a455w
p1
I1
sVcyhzimt
p2
I1
s.(dp0
Vd2b1ilh
p1
I1
sVcyhzimt
p2
I1
s.(dp0
Vcyhzimt
p1
I1
sVd2bf1w0
p2
I1
s.(dp0
Vd30idcn
p1
I1
sVcyhzimt
p2
I1
s.(dp0
Vcyhzimt
p1
I1
sVd32rli5
p2
I1
s.(dp0
Vcyhzimt
p1
I1
sVd3cy91c
p2
I1
s.(dp0
Vcyhzimt
p1
I1
sVd3fjhp3
p2
I1
s.(dp0
Vd3yra3y
p1
I1
sVcyhzimt
p2
I1
s.(dp0
Vd3yydwd
p1
I1
sVcyhzimt
p2
I1
s.(dp0
Vd4faxm5
p1
I1
sVcyhzimt
p2
I1
s.(dp0
Vd4hslvt
p1
I1
sVcyhzimt
p2
I1
s.(dp0
Vd4ykw80
p1
I1
sVcyhzimt
p2
I1
s.(dp0
Vcyhzimt
p1
I1
sVd54im6u
p2
I1
s.(dp0
Vcyhzimt
p1
I1
sVd5d4bzs
p2
I1
s.(dp0
Vcyhzimt
p1
I1
sVd5d4bzs
p2
I1
s.(dp0
Vcyhzimt
p1
I1
sVd5gfzgc
p2
I1
s.(dp0
Vd6013cy
p1
I1
sVcyhzimt
p2
I1
s.(dp0
Vd69ff5v
p1
I1
sVcyhzimt
p2
I1
s.(dp0
Vcyhzimt
p1
I1
sVd6p8e2h
p2
I1
s.(dp0
Vcyhzimt
p1
I1
sVd6p8e2h
p2
I1
s.(dp0
Vcyhzimt
p1
I1
sVd6qx20a
p2
I1
s.(dp0
Vcyhzimt
p1
I1
sVd75hssx
p2
I1
s.(dp0
Vcyhzimt
p1
I1
sVd75hssx
p2
I1
s.(dp0
Vcyhzimt
p1
I1
sVd75hssx
p2
I1
s.(dp0
Vd7764zk
p1
I1
sVcyhzimt
p2
I1
s.(dp0
Vd7764zk
p1
I1
sVcyhzimt
p2
I1
s.(dp0
Vcyhzimt
p1
I1
sVd7c52jm
p2
I1
s.(dp0
Vd7jjrep
p1
I1
sVcyhzimt
p2
I1
s.(dp0
Vcyhzimt
p1
I1
sVd7m4mc7
p2
I1
s.(dp0
Vcyhzimt
p1
I1
sVd8g8g8g
p2
I1
s.(dp0
Vd8sad5y
p1
I1
sVcyhzimt
p2
I1
s.(dp0
Vd8sad5y
p1
I1
sVcyhzimt
p2
I1
s.(dp0
Vd8wpr3g
p1
I1
sVcyhzimt
p2
I1
s.(dp0
Vcyhzimt
p1
I1
sVd8y0xrw
p2
I1
s.(dp0
Vcyhzimt
p1
I1
sVd9406cx
p2
I1
s.(dp0
Vda1f8bu
p1
I1
sVcyhzimt
p2
I1
s.(dp0
Vcyhzimt
p1
I1
sVda3l4ke
p2
I1
s.(dp0
Vda3uq92
p1
I1
sVcyhzimt
p2
I1
s.(dp0
Vdaas7i0
p1
I1
sVcyhzimt
p2
I1
s.(dp0
Vdahc66i
p1
I1
sVcyhzimt
p2
I1
s.(dp0
Vdav2ejv
p1
I1
sVcyhzimt
p2
I1
s.(dp0
Vdb57fd1
p1
I1
sVcyhzimt
p2
I1
s.(dp0
Vcyhzimt
p1
I1
sVdb580qt
p2
I1
s.(dp0
Vcyhzimt
p1
I1
sVdb6u459
p2
I1
s.(dp0
Vcyhzimt
p1
I1
sVdbh5qic
p2
I1
s.(dp0
Vcyhzimt
p1
I1
sVdbobsf5
p2
I1
s.(dp0
Vdbxhpgn
p1
I1
sVcyhzimt
p2
I1
s.(dp0
Vcyhzimt
p1
I1
sVdci5pap
p2
I1
s.(dp0
Vcyhzimt
p1
I1
sVdcrbzjv
p2
I1
s.(dp0
Vcyhzimt
p1
I1
sVdctd702
p2
I1
s.(dp0
Vcyhzimt
p1
I1
sVdctuvhv
p2
I1
s.(dp0
Vdcwudu3
p1
I1
sVcyhzimt
p2
I1
s.(dp0
Vdd1j3d0
p1
I1
sVcyhzimt
p2
I1
s.(dp0
Vddbz0y1
p1
I1
sVcyhzimt
p2
I1
s.(dp0
Vcyhzimt
p1
I1
sVddewiwl
p2
I1
s.(dp0
Vcyhzimt
p1
I1
sVddgp9a3
p2
I1
s.(dp0
Vcyhzimt
p1
I1
sVddktblz
p2
I1
s.(dp0
Vde9c8op
p1
I1
sVcyhzimt
p2
I1
s.(dp0
Vcyhzimt
p1
I1
sVdeejn93
p2
I1
s.(dp0
Vdejsgn7
p1
I1
sVcyhzimt
p2
I1
s.(dp0
Vdfh55n6
p1
I1
sVcyhzimt
p2
I1
s.(dp0
Vdfmb6xi
p1
I1
sVcyhzimt
p2
I1
s.(dp0
Vdfp0heb
p1
I1
sVcyhzimt
p2
I1
s.(dp0
Vcyhzimt
p1
I1
sVdg8o6kw
p2
I1
s.(dp0
Vdghtbw8
p1
I1
sVcyhzimt
p2
I1
s.(dp0
Vdgilxw7
p1
I1
sVcyhzimt
p2
I1
s.(dp0
Vdgn1xwt
p1
I1
sVcyhzimt
p2
I1
s.(dp0
Vcyhzimt
p1
I1
sVdg(dp0
Vcyhzimt
p1
I1
sVdo7ptqe
p2
I1
s.