(dp0
Vcz9kfwn
p1
I1
s.(dp0
Vd05q4po
p1
I1
sVcz9kfwn
p2
I1
s.(dp0
Vd1yyd4a
p1
I1
sVcz9kfwn
p2
I1
s.(dp0
Vd2o3rtu
p1
I1
sVcz9kfwn
p2
I1
s.(dp0
Vd5k7ags
p1
I1
sVcz9kfwn
p2
I1
s.(dp0
Vd67zqge
p1
I1
sVcz9kfwn
p2
I1
s.(dp0
Vd799x5b
p1
I1
sVcz9kfwn
p2
I1
s.(dp0
Vd799x5b
p1
I1
sVcz9kfwn
p2
I1
s.(dp0
Vd8856pw
p1
I1
sVcz9kfwn
p2
I1
s.(dp0
Vd8jyost
p1
I1
sVcz9kfwn
p2
I1
s.(dp0
Vd9564e9
p1
I1
sVcz9kfwn
p2
I1
s.(dp0
Vdantvg7
p1
I1
sVcz9kfwn
p2
I1
s.(dp0
Vdaojyan
p1
I1
sVcz9kfwn
p2
I1
s.(dp0
Vdaqkoi7
p1
I1
sVcz9kfwn
p2
I1
s.(dp0
Vday1dbe
p1
I1
sVcz9kfwn
p2
I1
s.(dp0
Vdb2lsvg
p1
I1
sVcz9kfwn
p2
I1
s.(dp0
Vdc04uye
p1
I1
sVcz9kfwn
p2
I1
s.(dp0
Vdcee677
p1
I1
sVcz9kfwn
p2
I1
s.(dp0
Vdctp2s5
p1
I1
sVcz9kfwn
p2
I1
s.(dp0
Vdctp2s5
p1
I1
sVcz9kfwn
p2
I1
s.(dp0
Vdd3cuot
p1
I1
sVcz9kfwn
p2
I1
s.(dp0
Vddut6rf
p1
I1
sVcz9kfwn
p2
I1
s.(dp0
Vddzs4yu
p1
I1
sVcz9kfwn
p2
I1
s.(dp0
Vde1e38v
p1
I1
sVcz9kfwn
p2
I1
s.(dp0
Vdgj7no9
p1
I1
sVcz9kfwn
p2
I1
s.(dp0
Vdh4ceto
p1
I1
sVcz9kfwn
p2
I1
s.(dp0
Vdihl3zx
p1
I1
sVcz9kfwn
p2
I1
s.(dp0
Vdinzca0
p1
I1
sVcz9kfwn
p2
I1
s.(dp0
Vdkz02jb
p1
I1
sVcz9kfwn
p2
I1
s.