(dp0
Vcylmfqg
p1
I1
s.(dp0
Vcylmfqg
p1
I1
sVcyngryg
p2
I1
s.(dp0
Vcyrrktt
p1
I1
sVcylmfqg
p2
I1
s.(dp0
Vcysghw5
p1
I1
sVcylmfqg
p2
I1
s.(dp0
Vcysghw5
p1
I1
sVcylmfqg
p2
I1
s.(dp0
Vcz2dni1
p1
I1
sVcylmfqg
p2
I1
s.(dp0
Vcylmfqg
p1
I1
sVcz463c5
p2
I1
s.(dp0
Vcz59q08
p1
I1
sVcylmfqg
p2
I1
s.(dp0
Vcylmfqg
p1
I1
sVczdjeoy
p2
I1
s.(dp0
Vczequd9
p1
I1
sVcylmfqg
p2
I1
s.(dp0
Vczfofm1
p1
I1
sVcylmfqg
p2
I1
s.(dp0
Vczi970k
p1
I1
sVcylmfqg
p2
I1
s.(dp0
Vczidjp9
p1
I1
sVcylmfqg
p2
I1
s.(dp0
Vcylmfqg
p1
I1
sVcziduog
p2
I1
s.(dp0
Vcylmfqg
p1
I1
sVczlvlww
p2
I1
s.(dp0
Vcylmfqg
p1
I1
sVczqmxnk
p2
I1
s.(dp0
Vcylmfqg
p1
I1
sVczqmxnk
p2
I1
s.(dp0
Vcylmfqg
p1
I1
sVczqzbkw
p2
I1
s.(dp0
Vcylmfqg
p1
I1
sVczsg3s0
p2
I1
s.(dp0
Vcylmfqg
p1
I1
sVcztea4j
p2
I1
s.(dp0
Vcylmfqg
p1
I1
sVcztea4j
p2
I1
s.(dp0
Vd0272s2
p1
I1
sVcylmfqg
p2
I1
s.(dp0
Vcylmfqg
p1
I1
sVd02op0g
p2
I1
s.(dp0
Vcylmfqg
p1
I1
sVd02tb12
p2
I1
s.(dp0
Vcylmfqg
p1
I1
sVd02tb12
p2
I1
s.(dp0
Vcylmfqg
p1
I1
sVd02wv0m
p2
I1
s.(dp0
Vd0d37d5
p1
I1
sVcylmfqg
p2
I1
s.(dp0
Vcylmfqg
p1
I1
sVd0h00vk
p2
I1
s.(dp0
Vcylmfqg
p1
I1
sVd0ku9rw
p2
I1
s.(dp0
Vcylmfqg
p1
I1
sVd0ku9rw
p2
I1
s.(dp0
Vcylmfqg
p1
I1
sVd0rvp1n
p2
I1
s.(dp0
Vd0u0trq
p1
I1
sVcylmfqg
p2
I1
s.(dp0
Vd11adh2
p1
I1
sVcylmfqg
p2
I1
s.(dp0
Vcylmfqg
p1
I1
sVd12r5f2
p2
I1
s.(dp0
Vcylmfqg
p1
I1
sVd17a28y
p2
I1
s.(dp0
Vcylmfqg
p1
I1
sVd1gd04m
p2
I1
s.(dp0
Vcylmfqg
p1
I1
sVd1o2whe
p2
I1
s.(dp0
Vd1s4gb3
p1
I1
sVcylmfqg
p2
I1
s.(dp0
Vcylmfqg
p1
I1
sVd1utipw
p2
I1
s.(dp0
Vcylmfqg
p1
I1
sVd1vrw87
p2
I1
s.(dp0
Vcylmfqg
p1
I1
sVd1vrw87
p2
I1
s.(dp0
Vd245gs8
p1
I1
sVcylmfqg
p2
I1
s.(dp0
Vcylmfqg
p1
I1
sVd26noyl
p2
I1
s.(dp0
Vcylmfqg
p1
I1
sVd27k5su
p2
I1
s.(dp0
Vcylmfqg
p1
I1
sVd2dk2ej
p2
I1
s.(dp0
Vcylmfqg
p1
I1
sVd2doelf
p2
I1
s.(dp0
Vcylmfqg
p1
I1
sVd2igg08
p2
I1
s.(dp0
Vd2voqa4
p1
I1
sVcylmfqg
p2
I1
s.(dp0
Vcylmfqg
p1
I1
sVd2y2cee
p2
I1
s.(dp0
Vcylmfqg
p1
I1
sVd3227x8
p2
I1
s.(dp0
Vcylmfqg
p1
I1
sVd33nq04
p2
I1
s.(dp0
Vcylmfqg
p1
I1
sVd39p23o
p2
I1
s.(dp0
Vd3cwh8q
p1
I1
sVcylmfqg
p2
I1
s.(dp0
Vd3cwh8q
p1
I1
sVcylmfqg
p2
I1
s.(dp0
Vd3i924v
p1
I1
sVcylmfqg
p2
I1
s.(dp0
Vd3i924v
p1
I1
sVcylmfqg
p2
I1
s.(dp0
Vcylmfqg
p1
I1
sVd3v6h6n
p2
I1
s.(dp0
Vcylmfqg
p1
I1
sVd3w6ydw
p2
I1
s.(dp0
Vcylmfqg
p1
I1
sVd3w6ydw
p2
I1
s.(dp0
Vcylmfqg
p1
I1
sVd3w6ydw
p2
I1
s.(dp0
Vcylmfqg
p1
I1
sVd3ye97q
p2
I1
s.(dp0
Vcylmfqg
p1
I1
sVd42j9gy
p2
I1
s.(dp0
Vcylmfqg
p1
I1
sVd42j9gy
p2
I1
s.(dp0
Vcylmfqg
p1
I1
sVd4c9ycz
p2
I1
s.(dp0
Vd4dbw3r
p1
I1
sVcylmfqg
p2
I1
s.(dp0
Vcylmfqg
p1
I1
sVd4ez52i
p2
I1
s.(dp0
Vcylmfqg
p1
I1
sVd4ljlcr
p2
I1
s.(dp0
Vcylmfqg
p1
I1
sVd4peoxs
p2
I1
s.(dp0
Vcylmfqg
p1
I1
sVd4v5acn
p2
I1
s.(dp0
Vd4xpav9
p1
I1
sVcylmfqg
p2
I1
s.(dp0
Vd50zwdm
p1
I1
sVcylmfqg
p2
I1
s.(dp0
Vcylmfqg
p1
I1
sVd57unl8
p2
I1
s.(dp0
Vcylmfqg
p1
I1
sVd57unl8
p2
I1
s.(dp0
Vcylmfqg
p1
I1
sVd59udul
p2
I1
s.(dp0
Vcylmfqg
p1
I1
sVd59udul
p2
I1
s.(dp0
Vcylmfqg
p1
I1
sVd5if6rs
p2
I1
s.(dp0
Vd5jyron
p1
I1
sVcylmfqg
p2
I1
s.(dp0
Vd5jyron
p1
I1
sVcylmfqg
p2
I1
s.(dp0
Vd6973wv
p1
I1
sVcylmfqg
p2
I1
s.(dp0
Vcylmfqg
p1
I1
sVd6chutm
p2
I1
s.(dp0
Vcylmfqg
p1
I1
sVd6kctw9
p2
I1
s.(dp0
Vcylmfqg
p1
I1
sVd6kctw9
p2
I1
s.(dp0
Vcylmfqg
p1
I1
sVd6kctw9
p2
I1
s.(dp0
Vcylmfqg
p1
I1
sVd6kedvs
p2
I1
s.(dp0
Vd6uw94p
p1
I1
sVcylmfqg
p2
I1
s.(dp0
Vd6voe9m
p1
I1
sVcylmfqg
p2
I1
s.(dp0
Vcylmfqg
p1
I1
sVd6yaxwr
p2
I1
s.(dp0
Vcylmfqg
p1
I1
sVd70ogn0
p2
I1
s.(dp0
Vcylmfqg
p1
I1
sVd70ogn0
p2
I1
s.(dp0
Vd7f9hze
p1
I1
sVcylmfqg
p2
I1
s.(dp0
Vcylmfqg
p1
I1
sVd7fiui3
p2
I1
s.(dp0
Vcylmfqg
p1
I1
sVd7g24rj
p2
I1
s.(dp0
Vd7jw074
p1
I1
sVcylmfqg
p2
I1
s.(dp0
Vd7jw074
p1
I1
sVcylmfqg
p2
I1
s.(dp0
Vcylmfqg
p1
I1
sVd7l5imb
p2
I1
s.(dp0
Vd7npl17
p1
I1
sVcylmfqg
p2
I1
s.(dp0
Vd7pbb8n
p1
I1
sVcylmfqg
p2
I1
s.(dp0
Vcylmfqg
p1
I1
sVd7yicun
p2
I1
s.(dp0
Vcylmfqg
p1
I1
sVd7yicun
p2
I1
s.(dp0
Vcylmfqg
p1
I1
sVd7yicun
p2
I1
s.(dp0
Vd83ptzn
p1
I1
sVcylmfqg
p2
I1
s.(dp0
Vcylmfqg
p1
I1
sVd88eyfm
p2
I1
s.(dp0
Vd8g36j9
p1
I1
sVcylmfqg
p2
I1
s.(dp0
Vcylmfqg
p1
I1
sVd8h64f8
p2
I1
s.(dp0
Vcylmfqg
p1
I1
sVd8jb97h
p2
I1
s.(dp0
Vcylmfqg
p1
I1
sVd8jg7a8
p2
I1
s.(dp0
Vcylmfqg
p1
I1
sVd8oy03t
p2
I1
s.(dp0
Vcylmfqg
p1
I1
sVd8ufncx
p2
I1
s.(dp0
Vcy(dp0
Vcylmfqg
p1
I1
sVdp3go1c
p2
I1
s.