(dp0
Vcyi6pe9
p1
I1
s.(dp0
Vcyic3fl
p1
I1
sVcyi6pe9
p2
I1
s.(dp0
Vcys0gyv
p1
I1
sVcyi6pe9
p2
I1
s.(dp0
Vcz4ccco
p1
I1
sVcyi6pe9
p2
I1
s.(dp0
Vcz4ccco
p1
I1
sVcyi6pe9
p2
I1
s.(dp0
Vcyi6pe9
p1
I1
sVczg4vn6
p2
I1
s.(dp0
Vczsnl5a
p1
I1
sVcyi6pe9
p2
I1
s.(dp0
Vczsnl5a
p1
I1
sVcyi6pe9
p2
I1
s.(dp0
Vczsnl5a
p1
I1
sVcyi6pe9
p2
I1
s.(dp0
Vczsrdtb
p1
I1
sVcyi6pe9
p2
I1
s.(dp0
Vczto1of
p1
I1
sVcyi6pe9
p2
I1
s.(dp0
Vczw6uf0
p1
I1
sVcyi6pe9
p2
I1
s.(dp0
Vd1173jw
p1
I1
sVcyi6pe9
p2
I1
s.(dp0
Vd1173jw
p1
I1
sVcyi6pe9
p2
I1
s.(dp0
Vd1173jw
p1
I1
sVcyi6pe9
p2
I1
s.(dp0
Vd1173jw
p1
I1
sVcyi6pe9
p2
I1
s.(dp0
Vd1173jw
p1
I1
sVcyi6pe9
p2
I1
s.(dp0
Vd1173jw
p1
I1
sVcyi6pe9
p2
I1
s.(dp0
Vd11s7tc
p1
I1
sVcyi6pe9
p2
I1
s.(dp0
Vd16qh54
p1
I1
sVcyi6pe9
p2
I1
s.(dp0
Vcyi6pe9
p1
I1
sVd18wntd
p2
I1
s.(dp0
Vd1j5idy
p1
I1
sVcyi6pe9
p2
I1
s.(dp0
Vd1s896e
p1
I1
sVcyi6pe9
p2
I1
s.(dp0
Vd2dcjkl
p1
I1
sVcyi6pe9
p2
I1
s.(dp0
Vd2pzc5f
p1
I1
sVcyi6pe9
p2
I1
s.(dp0
Vd3sde20
p1
I1
sVcyi6pe9
p2
I1
s.(dp0
Vd46248j
p1
I1
sVcyi6pe9
p2
I1
s.(dp0
Vd4gvupm
p1
I1
sVcyi6pe9
p2
I1
s.(dp0
Vd4gvupm
p1
I1
sVcyi6pe9
p2
I1
s.(dp0
Vd4rr2dh
p1
I1
sVcyi6pe9
p2
I1
s.(dp0
Vd57fgfs
p1
I1
sVcyi6pe9
p2
I1
s.(dp0
Vd5meqwr
p1
I1
sVcyi6pe9
p2
I1
s.(dp0
Vd5meqwr
p1
I1
sVcyi6pe9
p2
I1
s.(dp0
Vd5meqwr
p1
I1
sVcyi6pe9
p2
I1
s.(dp0
Vd5ovgu0
p1
I1
sVcyi6pe9
p2
I1
s.(dp0
Vd6h0rh5
p1
I1
sVcyi6pe9
p2
I1
s.(dp0
Vd7nyh1x
p1
I1
sVcyi6pe9
p2
I1
s.(dp0
Vd7xafn6
p1
I1
sVcyi6pe9
p2
I1
s.(dp0
Vd8ggseq
p1
I1
sVcyi6pe9
p2
I1
s.(dp0
Vd8ggseq
p1
I1
sVcyi6pe9
p2
I1
s.(dp0
Vd8ggseq
p1
I1
sVcyi6pe9
p2
I1
s.(dp0
Vd8ggseq
p1
I1
sVcyi6pe9
p2
I1
s.(dp0
Vd8ggseq
p1
I1
sVcyi6pe9
p2
I1
s.(dp0
Vd9xi261
p1
I1
sVcyi6pe9
p2
I1
s.(dp0
Vd9xi261
p1
I1
sVcyi6pe9
p2
I1
s.(dp0
Vd9xnbn3
p1
I1
sVcyi6pe9
p2
I1
s.(dp0
Vdb7v217
p1
I1
sVcyi6pe9
p2
I1
s.(dp0
Vdba3rox
p1
I1
sVcyi6pe9
p2
I1
s.(dp0
Vdbd23e8
p1
I1
sVcyi6pe9
p2
I1
s.(dp0
Vdbd30f8
p1
I1
sVcyi6pe9
p2
I1
s.(dp0
Vcyi6pe9
p1
I1
sVdbgzaai
p2
I1
s.(dp0
Vdbit2xw
p1
I1
sVcyi6pe9
p2
I1
s.(dp0
Vdbit2xw
p1
I1
sVcyi6pe9
p2
I1
s.(dp0
Vdc86m2m
p1
I1
sVcyi6pe9
p2
I1
s.(dp0
Vdc8q19u
p1
I1
sVcyi6pe9
p2
I1
s.(dp0
Vdeqfw1f
p1
I1
sVcyi6pe9
p2
I1
s.(dp0
Vdfp0pqc
p1
I1
sVcyi6pe9
p2
I1
s.(dp0
Vdg5x3pj
p1
I1
sVcyi6pe9
p2
I1
s.(dp0
Vcyi6pe9
p1
I1
sVdhjpsuv
p2
I1
s.(dp0
Vdi389do
p1
I1
sVcyi6pe9
p2
I1
s.(dp0
Vdifs2zb
p1
I1
sVcyi6pe9
p2
I1
s.(dp0
Vdir87i6
p1
I1
sVcyi6pe9
p2
I1
s.(dp0
Vdiusm9j
p1
I1
sVcyi6pe9
p2
I1
s.(dp0
Vdj1slsb
p1
I1
sVcyi6pe9
p2
I1
s.(dp0
Vdj1slsb
p1
I1
sVcyi6pe9
p2
I1
s.(dp0
Vdj1slsb
p1
I1
sVcyi6pe9
p2
I1
s.(dp0
Vdjdzke2
p1
I1
sVcyi6pe9
p2
I1
s.(dp0
Vdjdzke2
p1
I1
sVcyi6pe9
p2
I1
s.(dp0
Vdjdzke2
p1
I1
sVcyi6pe9
p2
I1
s.(dp0
Vdjegnon
p1
I1
sVcyi6pe9
p2
I1
s.(dp0
Vdjswkp9
p1
I1
sVcyi6pe9
p2
I1
s.(dp0
Vdjvfggr
p1
I1
sVcyi6pe9
p2
I1
s.(dp0
Vdk6lt8v
p1
I1
sVcyi6pe9
p2
I1
s.(dp0
Vdk73brj
p1
I1
sVcyi6pe9
p2
I1
s.(dp0
Vdk73brj
p1
I1
sVcyi6pe9
p2
I1
s.(dp0
Vdkphqgw
p1
I1
sVcyi6pe9
p2
I1
s.(dp0
Vdkvn5r9
p1
I1
sVcyi6pe9
p2
I1
s.(dp0
Vdkykgg8
p1
I1
sVcyi6pe9
p2
I1
s.(dp0
Vdni6hdt
p1
I1
sVcyi6pe9
p2
I1
s.(dp0
Vdozdxxs
p1
I1
sVcyi6pe9
p2
I1
s.(dp0
Vdozdxxs
p1
I1
sVcyi6pe9
p2
I1
s.(dp0
Vdozdxxs
p1
I1
sVcyi6pe9
p2
I1
s.