(dp0
Vcyis4ji
p1
I1
s.(dp0
Vcyis4ji
p1
I2
s.(dp0
Vcyis4ji
p1
I1
sVcypzup3
p2
I1
s.(dp0
Vcz0b9fo
p1
I1
sVcyis4ji
p2
I1
s.(dp0
Vcz2l1or
p1
I1
sVcyis4ji
p2
I1
s.(dp0
Vcyis4ji
p1
I1
sVcz3diyt
p2
I1
s.(dp0
Vcz6fxmw
p1
I1
sVcyis4ji
p2
I1
s.(dp0
Vcz85v7b
p1
I1
sVcyis4ji
p2
I1
s.(dp0
Vczclfqu
p1
I1
sVcyis4ji
p2
I1
s.(dp0
Vczdkghg
p1
I1
sVcyis4ji
p2
I1
s.(dp0
Vczdqut0
p1
I1
sVcyis4ji
p2
I1
s.(dp0
Vczdtatz
p1
I1
sVcyis4ji
p2
I1
s.(dp0
Vcyis4ji
p1
I1
sVczdygp4
p2
I1
s.(dp0
Vcze1xbp
p1
I1
sVcyis4ji
p2
I1
s.(dp0
Vcyis4ji
p1
I1
sVczec31x
p2
I1
s.(dp0
Vcyis4ji
p1
I1
sVcziq6na
p2
I1
s.(dp0
Vczit34v
p1
I1
sVcyis4ji
p2
I1
s.(dp0
Vcyis4ji
p1
I1
sVczjyp3a
p2
I1
s.(dp0
Vcyis4ji
p1
I1
sVcznzb7n
p2
I1
s.(dp0
Vcyis4ji
p1
I1
sVcztosry
p2
I1
s.(dp0
Vcyis4ji
p1
I1
sVczuegim
p2
I1
s.(dp0
Vcyis4ji
p1
I1
sVczuegim
p2
I1
s.(dp0
Vcyis4ji
p1
I1
sVczyp18q
p2
I1
s.(dp0
Vcyis4ji
p1
I1
sVczzykii
p2
I1
s.(dp0
Vd00h4ye
p1
I1
sVcyis4ji
p2
I1
s.(dp0
Vcyis4ji
p1
I1
sVd058lvc
p2
I1
s.(dp0
Vd05b3ui
p1
I1
sVcyis4ji
p2
I1
s.(dp0
Vd07tdka
p1
I1
sVcyis4ji
p2
I1
s.(dp0
Vd09fxwg
p1
I1
sVcyis4ji
p2
I1
s.(dp0
Vd0a4am3
p1
I1
sVcyis4ji
p2
I1
s.(dp0
Vcyis4ji
p1
I1
sVd0epe0v
p2
I1
s.(dp0
Vd0hb9om
p1
I1
sVcyis4ji
p2
I1
s.(dp0
Vd0if27z
p1
I1
sVcyis4ji
p2
I1
s.(dp0
Vd0ifoe7
p1
I1
sVcyis4ji
p2
I1
s.(dp0
Vd0jhcpz
p1
I1
sVcyis4ji
p2
I1
s.(dp0
Vd0kkznl
p1
I1
sVcyis4ji
p2
I1
s.(dp0
Vcyis4ji
p1
I1
sVd0lgazs
p2
I1
s.(dp0
Vcyis4ji
p1
I1
sVd0luecn
p2
I1
s.(dp0
Vd0n37ua
p1
I1
sVcyis4ji
p2
I1
s.(dp0
Vd0ozpnt
p1
I1
sVcyis4ji
p2
I1
s.(dp0
Vcyis4ji
p1
I1
sVd0vcvjb
p2
I1
s.(dp0
Vd0w4guz
p1
I1
sVcyis4ji
p2
I1
s.(dp0
Vcyis4ji
p1
I1
sVd12unjv
p2
I1
s.(dp0
Vd15nmsi
p1
I1
sVcyis4ji
p2
I1
s.(dp0
Vcyis4ji
p1
I1
sVd1616q1
p2
I1
s.(dp0
Vd19hxk4
p1
I1
sVcyis4ji
p2
I1
s.(dp0
Vd19hxk4
p1
I1
sVcyis4ji
p2
I1
s.(dp0
Vcyis4ji
p1
I1
sVd1ajtsu
p2
I1
s.(dp0
Vcyis4ji
p1
I1
sVd1h7uw3
p2
I1
s.(dp0
Vcyis4ji
p1
I1
sVd1i3x54
p2
I1
s.(dp0
Vd1i4mr8
p1
I1
sVcyis4ji
p2
I1
s.(dp0
Vcyis4ji
p1
I1
sVd1lzxxx
p2
I1
s.(dp0
Vcyis4ji
p1
I1
sVd1s3tov
p2
I1
s.(dp0
Vd1w79n8
p1
I1
sVcyis4ji
p2
I1
s.(dp0
Vcyis4ji
p1
I1
sVd1xjzjo
p2
I1
s.(dp0
Vcyis4ji
p1
I1
sVd1xjzjo
p2
I1
s.(dp0
Vd1yfa38
p1
I1
sVcyis4ji
p2
I1
s.(dp0
Vcyis4ji
p1
I1
sVd1zrgzl
p2
I1
s.(dp0
Vd28egpb
p1
I1
sVcyis4ji
p2
I1
s.(dp0
Vd2bqx1e
p1
I1
sVcyis4ji
p2
I1
s.(dp0
Vcyis4ji
p1
I1
sVd2bqz2c
p2
I1
s.(dp0
Vcyis4ji
p1
I1
sVd2bqz2c
p2
I1
s.(dp0
Vd2breui
p1
I1
sVcyis4ji
p2
I1
s.(dp0
Vd2breui
p1
I1
sVcyis4ji
p2
I1
s.(dp0
Vd2hhmo0
p1
I1
sVcyis4ji
p2
I1
s.(dp0
Vd2hhmo0
p1
I1
sVcyis4ji
p2
I1
s.(dp0
Vd2k4q3v
p1
I1
sVcyis4ji
p2
I1
s.(dp0
Vcyis4ji
p1
I1
sVd2k6s9v
p2
I1
s.(dp0
Vcyis4ji
p1
I1
sVd2k6s9v
p2
I1
s.(dp0
Vd2kg5ef
p1
I1
sVcyis4ji
p2
I1
s.(dp0
Vd2um1bg
p1
I1
sVcyis4ji
p2
I1
s.(dp0
Vcyis4ji
p1
I1
sVd2w9pwc
p2
I1
s.(dp0
Vcyis4ji
p1
I1
sVd304emy
p2
I1
s.(dp0
Vd30aa9n
p1
I1
sVcyis4ji
p2
I1
s.(dp0
Vcyis4ji
p1
I1
sVd32qz7u
p2
I1
s.(dp0
Vcyis4ji
p1
I1
sVd32qz7u
p2
I1
s.(dp0
Vd3amwi0
p1
I1
sVcyis4ji
p2
I1
s.(dp0
Vcyis4ji
p1
I1
sVd3b17me
p2
I1
s.(dp0
Vcyis4ji
p1
I1
sVd3hgrqg
p2
I1
s.(dp0
Vd3jewl7
p1
I1
sVcyis4ji
p2
I1
s.(dp0
Vd3mcssk
p1
I1
sVcyis4ji
p2
I1
s.(dp0
Vd3ruqke
p1
I1
sVcyis4ji
p2
I1
s.(dp0
Vd40pfz6
p1
I1
sVcyis4ji
p2
I1
s.(dp0
Vd40vf7l
p1
I1
sVcyis4ji
p2
I1
s.(dp0
Vcyis4ji
p1
I1
sVd40wp1j
p2
I1
s.(dp0
Vd40xsxp
p1
I1
sVcyis4ji
p2
I1
s.(dp0
Vd40xsxp
p1
I1
sVcyis4ji
p2
I1
s.(dp0
Vd47e8m9
p1
I1
sVcyis4ji
p2
I1
s.(dp0
Vcyis4ji
p1
I1
sVd4g77hx
p2
I1
s.(dp0
Vd4hzmbj
p1
I1
sVcyis4ji
p2
I1
s.(dp0
Vcyis4ji
p1
I1
sVd4i91up
p2
I1
s.(dp0
Vd4kmqnf
p1
I1
sVcyis4ji
p2
I1
s.(dp0
Vd4kx2li
p1
I1
sVcyis4ji
p2
I1
s.(dp0
Vcyis4ji
p1
I1
sVd4pjzrb
p2
I1
s.(dp0
Vd4powr0
p1
I1
sVcyis4ji
p2
I1
s.(dp0
Vd4v7pwx
p1
I1
sVcyis4ji
p2
I1
s.(dp0
Vd4v7pwx
p1
I1
sVcyis4ji
p2
I1
s.(dp0
Vd509a1m
p1
I1
sVcyis4ji
p2
I1
s.(dp0
Vd54uxfy
p1
I1
sVcyis4ji
p2
I1
s.(dp0
Vcyis4ji
p1
I1
sVd54yz99
p2
I1
s.(dp0
Vcyis4ji
p1
I1
sVd5az5qn
p2
I1
s.(dp0
Vd5brcbp
p1
I1
sVcyis4ji
p2
I1
s.(dp0
Vcyis4ji
p1
I1
sVd5ho1x3
p2
I1
s.(dp0
Vcyis4ji
p1
I1
sVd5k6fyo
p2
I1
s.(dp0
Vd5krb0a
p1
I1
sVcyis4ji
p2
I1
s.(dp0
Vd5po0nn
p1
I1
sVcyis4ji
p2
I1
s.(dp0
Vcyis4ji
p1
I1
sVd5pyepd
p2
I1
s.(dp0
Vcyis4ji
p1
I1
sVd5pyepd
p2
I1
s.(dp0
Vd5qj8f2
p1
I1
sVcy(dp0
Vdkprjtz
p1
I1
sVcyis4ji
p2
I1
s.