(dp0
Vd7j6pfl
p1
I1
s.(dp0
Vd7j6pfl
p1
I1
sVd9by86s
p2
I1
s.(dp0
Vd7j6pfl
p1
I1
sVd9h6wj6
p2
I1
s.(dp0
Vd7j6pfl
p1
I1
sVd9h6wj6
p2
I1
s.(dp0
Vd7j6pfl
p1
I1
sVd9h6wj6
p2
I1
s.(dp0
Vd7j6pfl
p1
I1
sVd9h6wj6
p2
I1
s.(dp0
Vd7j6pfl
p1
I1
sVd9h6wj6
p2
I1
s.(dp0
Vd7j6pfl
p1
I1
sVd9h6wj6
p2
I1
s.(dp0
Vd7j6pfl
p1
I1
sVd9h6wj6
p2
I1
s.