(dp0
Vcyn6gk9
p1
I1
s.(dp0
Vcyn6gk9
p1
I1
sVcz1597n
p2
I1
s.(dp0
Vcyn6gk9
p1
I1
sVcz1xzsa
p2
I1
s.(dp0
Vcyn6gk9
p1
I1
sVcz8arfe
p2
I1
s.(dp0
Vcyn6gk9
p1
I1
sVcz8s5op
p2
I1
s.(dp0
Vcyn6gk9
p1
I1
sVczgrzev
p2
I1
s.(dp0
Vcyn6gk9
p1
I1
sVczkimu9
p2
I1
s.(dp0
Vcyn6gk9
p1
I1
sVczmb3t7
p2
I1
s.(dp0
Vcyn6gk9
p1
I1
sVczv39fp
p2
I1
s.(dp0
Vcyn6gk9
p1
I1
sVczv39fp
p2
I1
s.(dp0
Vcyn6gk9
p1
I1
sVczv39fp
p2
I1
s.(dp0
Vcyn6gk9
p1
I1
sVczv39fp
p2
I1
s.(dp0
Vcyn6gk9
p1
I1
sVczziapi
p2
I1
s.(dp0
Vcyn6gk9
p1
I1
sVd05li1s
p2
I1
s.(dp0
Vcyn6gk9
p1
I1
sVd0k6dm2
p2
I1
s.(dp0
Vcyn6gk9
p1
I1
sVd0kf832
p2
I1
s.(dp0
Vcyn6gk9
p1
I1
sVd0kf832
p2
I1
s.(dp0
Vcyn6gk9
p1
I1
sVd0kj93o
p2
I1
s.(dp0
Vcyn6gk9
p1
I1
sVd0m12hv
p2
I1
s.(dp0
Vcyn6gk9
p1
I1
sVd0qonow
p2
I1
s.(dp0
Vcyn6gk9
p1
I1
sVd139f5a
p2
I1
s.(dp0
Vcyn6gk9
p1
I1
sVd17yfzv
p2
I1
s.(dp0
Vcyn6gk9
p1
I1
sVd1bwwho
p2
I1
s.(dp0
Vcyn6gk9
p1
I1
sVd1c8xw5
p2
I1
s.(dp0
Vcyn6gk9
p1
I1
sVd1do53r
p2
I1
s.(dp0
Vcyn6gk9
p1
I1
sVd1do53r
p2
I1
s.(dp0
Vcyn6gk9
p1
I1
sVd1dpru7
p2
I1
s.(dp0
Vcyn6gk9
p1
I1
sVd1dpru7
p2
I1
s.(dp0
Vcyn6gk9
p1
I1
sVd1dpru7
p2
I1
s.(dp0
Vcyn6gk9
p1
I1
sVd1zudki
p2
I1
s.(dp0
Vcyn6gk9
p1
I1
sVd2fy0c5
p2
I1
s.(dp0
Vcyn6gk9
p1
I1
sVd33u3t7
p2
I1
s.(dp0
Vcyn6gk9
p1
I1
sVd3bi7zw
p2
I1
s.(dp0
Vcyn6gk9
p1
I1
sVd3esgc2
p2
I1
s.(dp0
Vcyn6gk9
p1
I1
sVd3l00c1
p2
I1
s.(dp0
Vcyn6gk9
p1
I1
sVd3lfw8d
p2
I1
s.(dp0
Vcyn6gk9
p1
I1
sVd3mtked
p2
I1
s.(dp0
Vcyn6gk9
p1
I1
sVd3n0q7z
p2
I1
s.(dp0
Vcyn6gk9
p1
I1
sVd3uctrf
p2
I1
s.(dp0
Vcyn6gk9
p1
I1
sVd3z583u
p2
I1
s.(dp0
Vcyn6gk9
p1
I1
sVd3z9jxz
p2
I1
s.(dp0
Vcyn6gk9
p1
I1
sVd3z9jxz
p2
I1
s.(dp0
Vcyn6gk9
p1
I1
sVd3znkx0
p2
I1
s.(dp0
Vcyn6gk9
p1
I1
sVd3znkx0
p2
I1
s.(dp0
Vcyn6gk9
p1
I1
sVd47auc5
p2
I1
s.(dp0
Vcyn6gk9
p1
I1
sVd4foue2
p2
I1
s.(dp0
Vcyn6gk9
p1
I1
sVd5dfbpp
p2
I1
s.(dp0
Vcyn6gk9
p1
I1
sVd5o0jxt
p2
I1
s.(dp0
Vcyn6gk9
p1
I1
sVd5vosd9
p2
I1
s.(dp0
Vcyn6gk9
p1
I1
sVd6lcdu7
p2
I1
s.(dp0
Vcyn6gk9
p1
I1
sVd7f9xy2
p2
I1
s.(dp0
Vcyn6gk9
p1
I1
sVd7nbkbp
p2
I1
s.(dp0
Vcyn6gk9
p1
I1
sVd7ty5w1
p2
I1
s.(dp0
Vcyn6gk9
p1
I1
sVd7ygqaq
p2
I1
s.(dp0
Vcyn6gk9
p1
I1
sVd82lqzf
p2
I1
s.(dp0
Vcyn6gk9
p1
I1
sVd82z8ez
p2
I1
s.(dp0
Vcyn6gk9
p1
I1
sVd83v108
p2
I1
s.(dp0
Vcyn6gk9
p1
I1
sVd843zbq
p2
I1
s.(dp0
Vcyn6gk9
p1
I1
sVd888o53
p2
I1
s.(dp0
Vcyn6gk9
p1
I1
sVd8feydp
p2
I1
s.(dp0
Vcyn6gk9
p1
I1
sVd9r6i5t
p2
I1
s.(dp0
Vcyn6gk9
p1
I1
sVd9r6i5t
p2
I1
s.(dp0
Vcyn6gk9
p1
I1
sVd9zwkbe
p2
I1
s.(dp0
Vcyn6gk9
p1
I1
sVda3jq37
p2
I1
s.(dp0
Vcyn6gk9
p1
I1
sVda9e43x
p2
I1
s.(dp0
Vcyn6gk9
p1
I1
sVdalr1hd
p2
I1
s.(dp0
Vcyn6gk9
p1
I1
sVdam24hd
p2
I1
s.(dp0
Vcyn6gk9
p1
I1
sVdarlele
p2
I1
s.(dp0
Vcyn6gk9
p1
I1
sVdb46kvn
p2
I1
s.(dp0
Vcyn6gk9
p1
I1
sVdboyarx
p2
I1
s.(dp0
Vcyn6gk9
p1
I1
sVdbqvt7g
p2
I1
s.(dp0
Vcyn6gk9
p1
I1
sVdbsqcsl
p2
I1
s.(dp0
Vcyn6gk9
p1
I1
sVdc4gz5b
p2
I1
s.(dp0
Vcyn6gk9
p1
I1
sVdc9ltwc
p2
I1
s.(dp0
Vcyn6gk9
p1
I1
sVdck0zmg
p2
I1
s.(dp0
Vcyn6gk9
p1
I1
sVdcs7zjl
p2
I1
s.(dp0
Vcyn6gk9
p1
I1
sVdcthpp7
p2
I1
s.(dp0
Vcyn6gk9
p1
I1
sVddf1rpf
p2
I1
s.(dp0
Vcyn6gk9
p1
I1
sVddi0c5g
p2
I1
s.(dp0
Vcyn6gk9
p1
I1
sVddzvk2m
p2
I1
s.(dp0
Vcyn6gk9
p1
I1
sVde2icil
p2
I1
s.(dp0
Vcyn6gk9
p1
I1
sVde2icil
p2
I1
s.(dp0
Vcyn6gk9
p1
I1
sVdekwlif
p2
I1
s.(dp0
Vcyn6gk9
p1
I1
sVdetiahi
p2
I1
s.(dp0
Vcyn6gk9
p1
I1
sVdewne6f
p2
I1
s.(dp0
Vcyn6gk9
p1
I1
sVdewne6f
p2
I1
s.(dp0
Vcyn6gk9
p1
I1
sVdexfwtx
p2
I1
s.(dp0
Vcyn6gk9
p1
I1
sVdf4b2d0
p2
I1
s.(dp0
Vcyn6gk9
p1
I1
sVdfe7peh
p2
I1
s.(dp0
Vcyn6gk9
p1
I1
sVdfhd7mc
p2
I1
s.(dp0
Vcyn6gk9
p1
I1
sVdflllz3
p2
I1
s.(dp0
Vcyn6gk9
p1
I1
sVdfyj9dh
p2
I1
s.(dp0
Vcyn6gk9
p1
I1
sVdga4rss
p2
I1
s.(dp0
Vcyn6gk9
p1
I1
sVdgihbda
p2
I1
s.(dp0
Vcyn6gk9
p1
I1
sVdgr0xfu
p2
I1
s.(dp0
Vcyn6gk9
p1
I1
sVdgw17wo
p2
I1
s.(dp0
Vcyn6gk9
p1
I1
sVdhd8tt6
p2
I1
s.(dp0
Vcyn6gk9
p1
I1
sVdhlgg11
p2
I1
s.(dp0
Vcyn6gk9
p1
I1
sVdi6nhue
p2
I1
s.(dp0
Vcyn6gk9
p1
I1
sVdie8hlk
p2
I1
s.(dp0
Vcyn6gk9
p1
I1
sVdifjsoy
p2
I1
s.(dp0
Vcyn6gk9
p1
I1
sVdirzlz0
p2
I1
s.(dp0
Vcyn6gk9
p1
I1
sVdiw6drh
p2
I1
s.(dp0
Vcyn6gk9
p1
I1
sVdiw6drh
p2
I1
s.(dp0
Vcyn6gk9
p1
I1
sVdiy650l
p2
I1
s.(dp0
Vcyn6gk9
p1
I1
sVdj4o62d
p2
I1
s.(dp0
Vcyn6gk9
p1
I1
sVdjarak5
p2
I1
s.(dp0
Vcyn6gk9
p1
I1
sVdjb3h14
p2
I1
s.(dp0
Vcy(dp0
Vcyn6gk9
p1
I1
sVdobo01d
p2
I1
s.