(dp0
Vd3se9d0
p1
I1
s.(dp0
Vd3xjv2u
p1
I1
sVd3se9d0
p2
I1
s.(dp0
Vd3xjv2u
p1
I1
sVd3se9d0
p2
I1
s.(dp0
Vd3xjv2u
p1
I1
sVd3se9d0
p2
I1
s.(dp0
Vd9743bo
p1
I1
sVd3se9d0
p2
I1
s.(dp0
Vda0geox
p1
I1
sVd3se9d0
p2
I1
s.(dp0
Vde002h3
p1
I1
sVd3se9d0
p2
I1
s.(dp0
Vdik5dth
p1
I1
sVd3se9d0
p2
I1
s.(dp0
Vdk4ydyn
p1
I1
sVd3se9d0
p2
I1
s.(dp0
Vdnd9pzg
p1
I1
sVd3se9d0
p2
I1
s.