(dp0
Vcyngd2m
p1
I1
s.(dp0
Vcyngd2m
p1
I2
s.(dp0
Vcyngd2m
p1
I1
sVcynk587
p2
I1
s.(dp0
Vcypj9pz
p1
I1
sVcyngd2m
p2
I1
s.(dp0
Vcyngd2m
p1
I1
sVcys5xts
p2
I1
s.(dp0
Vcyuy461
p1
I1
sVcyngd2m
p2
I1
s.(dp0
Vcyngd2m
p1
I1
sVcywlo96
p2
I1
s.(dp0
Vcyx88fm
p1
I1
sVcyngd2m
p2
I1
s.(dp0
Vcyzagxm
p1
I1
sVcyngd2m
p2
I1
s.(dp0
Vcyngd2m
p1
I1
sVcz5ynj9
p2
I1
s.(dp0
Vcyngd2m
p1
I1
sVcz9ii1d
p2
I1
s.(dp0
Vcyngd2m
p1
I1
sVczivc3x
p2
I1
s.(dp0
Vcyngd2m
p1
I1
sVd070y36
p2
I1
s.(dp0
Vcyngd2m
p1
I1
sVd0h032o
p2
I1
s.(dp0
Vcyngd2m
p1
I1
sVd0i6t3z
p2
I1
s.(dp0
Vd0kw5vr
p1
I1
sVcyngd2m
p2
I1
s.(dp0
Vd0p1759
p1
I1
sVcyngd2m
p2
I1
s.(dp0
Vcyngd2m
p1
I1
sVd0p4nlq
p2
I1
s.(dp0
Vd178udn
p1
I1
sVcyngd2m
p2
I1
s.(dp0
Vd178udn
p1
I1
sVcyngd2m
p2
I1
s.(dp0
Vd1krvlv
p1
I1
sVcyngd2m
p2
I1
s.(dp0
Vd1krvlv
p1
I1
sVcyngd2m
p2
I1
s.(dp0
Vd1ojrq8
p1
I1
sVcyngd2m
p2
I1
s.(dp0
Vd2ipxxu
p1
I1
sVcyngd2m
p2
I1
s.(dp0
Vd3aidbd
p1
I1
sVcyngd2m
p2
I1
s.(dp0
Vcyngd2m
p1
I1
sVd3cxkya
p2
I1
s.(dp0
Vd3dzeiv
p1
I1
sVcyngd2m
p2
I1
s.(dp0
Vd3ew0ms
p1
I1
sVcyngd2m
p2
I1
s.(dp0
Vcyngd2m
p1
I1
sVd3ld4g7
p2
I1
s.(dp0
Vcyngd2m
p1
I1
sVd3ld4g7
p2
I1
s.(dp0
Vcyngd2m
p1
I1
sVd3o6hyj
p2
I1
s.(dp0
Vcyngd2m
p1
I1
sVd3sig6n
p2
I1
s.(dp0
Vd3sv93i
p1
I1
sVcyngd2m
p2
I1
s.(dp0
Vcyngd2m
p1
I1
sVd3swl3o
p2
I1
s.(dp0
Vcyngd2m
p1
I1
sVd3swl3o
p2
I1
s.(dp0
Vcyngd2m
p1
I1
sVd3ugats
p2
I1
s.(dp0
Vd47o650
p1
I1
sVcyngd2m
p2
I1
s.(dp0
Vcyngd2m
p1
I1
sVd4depyc
p2
I1
s.(dp0
Vcyngd2m
p1
I1
sVd4xvt6n
p2
I1
s.(dp0
Vcyngd2m
p1
I1
sVd581t4j
p2
I1
s.(dp0
Vd5p2zmc
p1
I1
sVcyngd2m
p2
I1
s.(dp0
Vd5pzw7i
p1
I1
sVcyngd2m
p2
I1
s.(dp0
Vcyngd2m
p1
I1
sVd5q0u68
p2
I1
s.(dp0
Vcyngd2m
p1
I1
sVd5q2173
p2
I1
s.(dp0
Vcyngd2m
p1
I1
sVd5q2173
p2
I1
s.(dp0
Vd5q3yj4
p1
I1
sVcyngd2m
p2
I1
s.(dp0
Vd5q5mde
p1
I1
sVcyngd2m
p2
I1
s.(dp0
Vcyngd2m
p1
I1
sVd5q661s
p2
I1
s.(dp0
Vcyngd2m
p1
I1
sVd5q661s
p2
I1
s.(dp0
Vd5qq4ia
p1
I1
sVcyngd2m
p2
I1
s.(dp0
Vcyngd2m
p1
I1
sVd5qy2x6
p2
I1
s.(dp0
Vd5wegyh
p1
I1
sVcyngd2m
p2
I1
s.(dp0
Vd5xvsoa
p1
I1
sVcyngd2m
p2
I1
s.(dp0
Vd64empp
p1
I1
sVcyngd2m
p2
I1
s.(dp0
Vcyngd2m
p1
I1
sVd6iqx1l
p2
I1
s.(dp0
Vcyngd2m
p1
I1
sVd6iqx1l
p2
I1
s.(dp0
Vcyngd2m
p1
I1
sVd6iqx1l
p2
I1
s.(dp0
Vd6ptchg
p1
I1
sVcyngd2m
p2
I1
s.(dp0
Vd6ptchg
p1
I1
sVcyngd2m
p2
I1
s.(dp0
Vd7qxy7b
p1
I1
sVcyngd2m
p2
I1
s.(dp0
Vcyngd2m
p1
I1
sVd7skf2p
p2
I1
s.(dp0
Vcyngd2m
p1
I1
sVd7stiky
p2
I1
s.(dp0
Vcyngd2m
p1
I1
sVd82jmb7
p2
I1
s.(dp0
Vcyngd2m
p1
I1
sVd852xbs
p2
I1
s.(dp0
Vcyngd2m
p1
I1
sVd85c4hu
p2
I1
s.(dp0
Vcyngd2m
p1
I1
sVd9ny2cl
p2
I1
s.(dp0
Vd9zoemy
p1
I1
sVcyngd2m
p2
I1
s.(dp0
Vd9zoemy
p1
I1
sVcyngd2m
p2
I1
s.(dp0
Vdauzyqt
p1
I1
sVcyngd2m
p2
I1
s.(dp0
Vcyngd2m
p1
I1
sVdazc0ua
p2
I1
s.(dp0
Vdb4ob6m
p1
I1
sVcyngd2m
p2
I1
s.(dp0
Vcyngd2m
p1
I1
sVdb9n2xd
p2
I1
s.(dp0
Vdb9nbi9
p1
I1
sVcyngd2m
p2
I1
s.(dp0
Vdb9xlxb
p1
I1
sVcyngd2m
p2
I1
s.(dp0
Vcyngd2m
p1
I1
sVdbectz4
p2
I1
s.(dp0
Vdbykzt6
p1
I1
sVcyngd2m
p2
I1
s.(dp0
Vdbykzt6
p1
I1
sVcyngd2m
p2
I1
s.(dp0
Vcyngd2m
p1
I1
sVdc4lnvd
p2
I1
s.(dp0
Vcyngd2m
p1
I1
sVdcu7lwh
p2
I1
s.(dp0
Vdd6b6lm
p1
I1
sVcyngd2m
p2
I1
s.(dp0
Vddhpr04
p1
I1
sVcyngd2m
p2
I1
s.(dp0
Vcyngd2m
p1
I1
sVddltien
p2
I1
s.(dp0
Vcyngd2m
p1
I1
sVddltien
p2
I1
s.(dp0
Vddoxh0p
p1
I1
sVcyngd2m
p2
I1
s.(dp0
Vcyngd2m
p1
I1
sVddsbboy
p2
I1
s.(dp0
Vdebqgn1
p1
I1
sVcyngd2m
p2
I1
s.(dp0
Vdemj9eo
p1
I1
sVcyngd2m
p2
I1
s.(dp0
Vcyngd2m
p1
I1
sVdetn5lx
p2
I1
s.(dp0
Vdfay579
p1
I1
sVcyngd2m
p2
I1
s.(dp0
Vcyngd2m
p1
I1
sVdfkzfuf
p2
I1
s.(dp0
Vcyngd2m
p1
I1
sVdfldmji
p2
I1
s.(dp0
Vcyngd2m
p1
I1
sVdfrlsuf
p2
I1
s.(dp0
Vdfvruez
p1
I1
sVcyngd2m
p2
I1
s.(dp0
Vdfyow7b
p1
I1
sVcyngd2m
p2
I1
s.(dp0
Vcyngd2m
p1
I1
sVdgjmxuh
p2
I1
s.(dp0
Vdhc5vzt
p1
I1
sVcyngd2m
p2
I1
s.(dp0
Vcyngd2m
p1
I1
sVdhkeulp
p2
I1
s.(dp0
Vcyngd2m
p1
I1
sVdhq229q
p2
I1
s.(dp0
Vcyngd2m
p1
I1
sVdhsxq5t
p2
I1
s.(dp0
Vdhxo73l
p1
I1
sVcyngd2m
p2
I1
s.(dp0
Vdi4f5js
p1
I1
sVcyngd2m
p2
I1
s.(dp0
Vdiu7gcs
p1
I1
sVcyngd2m
p2
I1
s.(dp0
Vcyngd2m
p1
I1
sVdj3u2cq
p2
I1
s.(dp0
Vcyngd2m
p1
I1
sVdjesknl
p2
I1
s.(dp0
Vdjsxsgd
p1
I1
sVcyngd2m
p2
I1
s.(dp0
Vdk5bac5
p1
I1
sVcyngd2m
p2
I1
s.(dp0
Vcyngd2m
p1
I1
sVdki8vum
p2
I1
s.(dp0
Vcyngd2m
p1
I1
sVdki8vum
p2
I1
s.(dp0
Vcyngd2m
p1
I1
sVdkvqua2
p2
I1
s.