(dp0
Vcz0l34r
p1
I1
s.(dp0
Vd1uhaoq
p1
I1
sVcz0l34r
p2
I1
s.(dp0
Vd5huase
p1
I1
sVcz0l34r
p2
I1
s.(dp0
Vd6tpczt
p1
I1
sVcz0l34r
p2
I1
s.(dp0
Vd7jh7fc
p1
I1
sVcz0l34r
p2
I1
s.(dp0
Vd8szejv
p1
I1
sVcz0l34r
p2
I1
s.(dp0
Vdf1hw3l
p1
I1
sVcz0l34r
p2
I1
s.(dp0
Vdg66prf
p1
I1
sVcz0l34r
p2
I1
s.