(dp0
Vcyznlfl
p1
I1
s.(dp0
Vcyznlfl
p1
I1
sVd061uzn
p2
I1
s.(dp0
Vcyznlfl
p1
I1
sVd061uzn
p2
I1
s.(dp0
Vd1lkc0y
p1
I1
sVcyznlfl
p2
I1
s.(dp0
Vd1lkc0y
p1
I1
sVcyznlfl
p2
I1
s.(dp0
Vd3g63p6
p1
I1
sVcyznlfl
p2
I1
s.(dp0
Vd5ct8uo
p1
I1
sVcyznlfl
p2
I1
s.(dp0
Vd5d1r3n
p1
I1
sVcyznlfl
p2
I1
s.(dp0
Vd5d1r3n
p1
I1
sVcyznlfl
p2
I1
s.(dp0
Vcyznlfl
p1
I1
sVd6gwekj
p2
I1
s.(dp0
Vdac9veo
p1
I1
sVcyznlfl
p2
I1
s.(dp0
Vcyznlfl
p1
I1
sVdbhq2yt
p2
I1
s.(dp0
Vcyznlfl
p1
I1
sVdbhq2yt
p2
I1
s.(dp0
Vcyznlfl
p1
I1
sVdbxrdbw
p2
I1
s.(dp0
Vcyznlfl
p1
I1
sVdbxrdbw
p2
I1
s.(dp0
Vcyznlfl
p1
I1
sVdbxrdbw
p2
I1
s.(dp0
Vcyznlfl
p1
I1
sVdbxrdbw
p2
I1
s.(dp0
Vdc4gbfz
p1
I1
sVcyznlfl
p2
I1
s.(dp0
Vcyznlfl
p1
I1
sVdc6bkw2
p2
I1
s.(dp0
Vdcxjlt1
p1
I1
sVcyznlfl
p2
I1
s.(dp0
Vddn2ml5
p1
I1
sVcyznlfl
p2
I1
s.(dp0
Vddn2ml5
p1
I1
sVcyznlfl
p2
I1
s.(dp0
Vde45bdi
p1
I1
sVcyznlfl
p2
I1
s.(dp0
Vde45bdi
p1
I1
sVcyznlfl
p2
I1
s.(dp0
Vcyznlfl
p1
I1
sVdg2w8oy
p2
I1
s.(dp0
Vcyznlfl
p1
I1
sVdg2w8oy
p2
I1
s.(dp0
Vdihiwit
p1
I1
sVcyznlfl
p2
I1
s.(dp0
Vdj601nh
p1
I1
sVcyznlfl
p2
I1
s.(dp0
Vdkjjh28
p1
I1
sVcyznlfl
p2
I1
s.(dp0
Vdkjjh28
p1
I1
sVcyznlfl
p2
I1
s.