(dp0
Vcym94r5
p1
I1
s.(dp0
Vcysfh4g
p1
I1
sVcym94r5
p2
I1
s.(dp0
Vcym94r5
p1
I1
sVcyvfap4
p2
I1
s.(dp0
Vcym94r5
p1
I1
sVcyvfap4
p2
I1
s.(dp0
Vcym94r5
p1
I1
sVczl4e8g
p2
I1
s.(dp0
Vcym94r5
p1
I1
sVczrxvih
p2
I1
s.(dp0
Vcym94r5
p1
I1
sVczyokve
p2
I1
s.(dp0
Vczzcczx
p1
I1
sVcym94r5
p2
I1
s.(dp0
Vcym94r5
p1
I1
sVczzo8i9
p2
I1
s.(dp0
Vcym94r5
p1
I1
sVd06xey7
p2
I1
s.(dp0
Vcym94r5
p1
I1
sVd0jfq41
p2
I1
s.(dp0
Vd0jh4t8
p1
I1
sVcym94r5
p2
I1
s.(dp0
Vcym94r5
p1
I1
sVd1d6bnp
p2
I1
s.(dp0
Vcym94r5
p1
I1
sVd2egkdq
p2
I1
s.(dp0
Vcym94r5
p1
I1
sVd2zis6b
p2
I1
s.(dp0
Vcym94r5
p1
I1
sVd3n8c1w
p2
I1
s.(dp0
Vcym94r5
p1
I1
sVd4u5494
p2
I1
s.(dp0
Vcym94r5
p1
I1
sVd4ysb1o
p2
I1
s.(dp0
Vcym94r5
p1
I1
sVd4zj4lo
p2
I1
s.(dp0
Vcym94r5
p1
I1
sVd52zfwj
p2
I1
s.(dp0
Vcym94r5
p1
I1
sVd6ec0e6
p2
I1
s.(dp0
Vcym94r5
p1
I1
sVd6gwekj
p2
I1
s.(dp0
Vcym94r5
p1
I1
sVd6njlx0
p2
I1
s.(dp0
Vcym94r5
p1
I1
sVd8dkuro
p2
I1
s.(dp0
Vcym94r5
p1
I1
sVd8k8ri9
p2
I1
s.(dp0
Vcym94r5
p1
I1
sVd8km3me
p2
I1
s.(dp0
Vcym94r5
p1
I1
sVd9aznge
p2
I1
s.(dp0
Vd9eo4a2
p1
I1
sVcym94r5
p2
I1
s.(dp0
Vd9fetbw
p1
I1
sVcym94r5
p2
I1
s.(dp0
Vda4y4jt
p1
I1
sVcym94r5
p2
I1
s.(dp0
Vcym94r5
p1
I1
sVda55xac
p2
I1
s.(dp0
Vcym94r5
p1
I1
sVdaiplju
p2
I1
s.(dp0
Vcym94r5
p1
I1
sVdarnbj0
p2
I1
s.(dp0
Vcym94r5
p1
I1
sVdbdad8n
p2
I1
s.(dp0
Vcym94r5
p1
I1
sVdbdjx5u
p2
I1
s.(dp0
Vcym94r5
p1
I1
sVdbgqpfm
p2
I1
s.(dp0
Vcym94r5
p1
I1
sVdc4offd
p2
I1
s.(dp0
Vcym94r5
p1
I1
sVdcjxd4g
p2
I1
s.(dp0
Vcym94r5
p1
I1
sVdcphyce
p2
I1
s.(dp0
Vcym94r5
p1
I1
sVdcz38xr
p2
I1
s.(dp0
Vcym94r5
p1
I1
sVdeephsn
p2
I1
s.(dp0
Vcym94r5
p1
I1
sVdeqhtfa
p2
I1
s.(dp0
Vcym94r5
p1
I1
sVdevy44j
p2
I1
s.(dp0
Vcym94r5
p1
I1
sVdey374d
p2
I1
s.(dp0
Vcym94r5
p1
I1
sVdfagbbz
p2
I1
s.(dp0
Vdfrr59r
p1
I1
sVcym94r5
p2
I1
s.(dp0
Vcym94r5
p1
I1
sVdg8n1fy
p2
I1
s.(dp0
Vdgwlgr9
p1
I1
sVcym94r5
p2
I1
s.(dp0
Vcym94r5
p1
I1
sVdgx7c2p
p2
I1
s.(dp0
Vdhg214c
p1
I1
sVcym94r5
p2
I1
s.(dp0
Vcym94r5
p1
I1
sVdhllctw
p2
I1
s.(dp0
Vcym94r5
p1
I1
sVdhllctw
p2
I1
s.(dp0
Vcym94r5
p1
I1
sVdi0snbr
p2
I1
s.(dp0
Vdih8x80
p1
I1
sVcym94r5
p2
I1
s.(dp0
Vcym94r5
p1
I1
sVdivt1ti
p2
I1
s.(dp0
Vcym94r5
p1
I1
sVdj6mtk3
p2
I1
s.(dp0
Vcym94r5
p1
I1
sVdjzgzwl
p2
I1
s.(dp0
Vcym94r5
p1
I1
sVdk30opl
p2
I1
s.