(dp0
Vcyhuckf
p1
I1
s.(dp0
Vcyhuckf
p1
I1
sVcyi6o1i
p2
I1
s.(dp0
Vcyi704s
p1
I1
sVcyhuckf
p2
I1
s.(dp0
Vcyi71v0
p1
I1
sVcyhuckf
p2
I1
s.(dp0
Vcyhuckf
p1
I1
sVcyi766b
p2
I1
s.(dp0
Vcyhuckf
p1
I1
sVcyic6i9
p2
I1
s.(dp0
Vcyittir
p1
I1
sVcyhuckf
p2
I1
s.(dp0
Vcyizpl8
p1
I1
sVcyhuckf
p2
I1
s.(dp0
Vcyjks9k
p1
I1
sVcyhuckf
p2
I1
s.(dp0
Vcyjvfz7
p1
I1
sVcyhuckf
p2
I1
s.(dp0
Vcyhuckf
p1
I1
sVcykf5pi
p2
I1
s.(dp0
Vcyhuckf
p1
I1
sVcykqrpc
p2
I1
s.(dp0
Vcyl3c8m
p1
I1
sVcyhuckf
p2
I1
s.(dp0
Vcyhuckf
p1
I1
sVcyl96jq
p2
I1
s.(dp0
Vcylh0q0
p1
I1
sVcyhuckf
p2
I1
s.(dp0
Vcyli5p1
p1
I1
sVcyhuckf
p2
I1
s.(dp0
Vcylicze
p1
I1
sVcyhuckf
p2
I1
s.(dp0
Vcylst1k
p1
I1
sVcyhuckf
p2
I1
s.(dp0
Vcyoj7sl
p1
I1
sVcyhuckf
p2
I1
s.(dp0
Vcyox66s
p1
I1
sVcyhuckf
p2
I1
s.(dp0
Vcyp06h5
p1
I1
sVcyhuckf
p2
I1
s.(dp0
Vcyp06h5
p1
I1
sVcyhuckf
p2
I1
s.(dp0
Vcyp4anf
p1
I1
sVcyhuckf
p2
I1
s.(dp0
Vcyp5fqa
p1
I1
sVcyhuckf
p2
I1
s.(dp0
Vcyhuckf
p1
I1
sVcype9md
p2
I1
s.(dp0
Vcypuhun
p1
I1
sVcyhuckf
p2
I1
s.(dp0
Vcypuhun
p1
I1
sVcyhuckf
p2
I1
s.(dp0
Vcyhuckf
p1
I1
sVcypuiue
p2
I1
s.(dp0
Vcyqpn13
p1
I1
sVcyhuckf
p2
I1
s.(dp0
Vcyhuckf
p1
I1
sVcyr71hz
p2
I1
s.(dp0
Vcyhuckf
p1
I1
sVcyridhq
p2
I1
s.(dp0
Vcyrqns5
p1
I1
sVcyhuckf
p2
I1
s.(dp0
Vcysqzsh
p1
I1
sVcyhuckf
p2
I1
s.(dp0
Vcyhuckf
p1
I1
sVcysu1xt
p2
I1
s.(dp0
Vcyswqoe
p1
I1
sVcyhuckf
p2
I1
s.(dp0
Vcyhuckf
p1
I1
sVcysz7ys
p2
I1
s.(dp0
Vcyhuckf
p1
I1
sVcytzvht
p2
I1
s.(dp0
Vcyukf0e
p1
I1
sVcyhuckf
p2
I1
s.(dp0
Vcyhuckf
p1
I1
sVcyukp0e
p2
I1
s.(dp0
Vcyhuckf
p1
I1
sVcyvs3g7
p2
I1
s.(dp0
Vcyvvw80
p1
I1
sVcyhuckf
p2
I1
s.(dp0
Vcyw52fe
p1
I1
sVcyhuckf
p2
I1
s.(dp0
Vcyhuckf
p1
I1
sVcyw6x0s
p2
I1
s.(dp0
Vcyhuckf
p1
I1
sVcywjcfl
p2
I1
s.(dp0
Vcyhuckf
p1
I1
sVcywjls8
p2
I1
s.(dp0
Vcyhuckf
p1
I1
sVcyxc8h3
p2
I1
s.(dp0
Vcyhuckf
p1
I1
sVcyxxqp1
p2
I1
s.(dp0
Vcyhuckf
p1
I1
sVcyyameu
p2
I1
s.(dp0
Vcyz7su2
p1
I1
sVcyhuckf
p2
I1
s.(dp0
Vcyzmapu
p1
I1
sVcyhuckf
p2
I1
s.(dp0
Vcyhuckf
p1
I1
sVcyzsr8t
p2
I1
s.(dp0
Vcyhuckf
p1
I1
sVcyzsr8t
p2
I1
s.(dp0
Vcyzy9at
p1
I1
sVcyhuckf
p2
I1
s.(dp0
Vcz02mie
p1
I1
sVcyhuckf
p2
I1
s.(dp0
Vcz33x3v
p1
I1
sVcyhuckf
p2
I1
s.(dp0
Vcz34a7x
p1
I1
sVcyhuckf
p2
I1
s.(dp0
Vcz34a7x
p1
I1
sVcyhuckf
p2
I1
s.(dp0
Vcz34czx
p1
I1
sVcyhuckf
p2
I1
s.(dp0
Vcz34czx
p1
I1
sVcyhuckf
p2
I1
s.(dp0
Vcz3j9mu
p1
I1
sVcyhuckf
p2
I1
s.(dp0
Vcz5yv18
p1
I1
sVcyhuckf
p2
I1
s.(dp0
Vcz5yvue
p1
I1
sVcyhuckf
p2
I1
s.(dp0
Vcz5yvue
p1
I1
sVcyhuckf
p2
I1
s.(dp0
Vcyhuckf
p1
I1
sVcz5yxsj
p2
I1
s.(dp0
Vcyhuckf
p1
I1
sVcz5z27e
p2
I1
s.(dp0
Vcyhuckf
p1
I1
sVcz5z27e
p2
I1
s.(dp0
Vcyhuckf
p1
I1
sVcz5z27e
p2
I1
s.(dp0
Vcyhuckf
p1
I1
sVcz5zrhh
p2
I1
s.(dp0
Vcyhuckf
p1
I1
sVcz6ptlg
p2
I1
s.(dp0
Vcz6vcuj
p1
I1
sVcyhuckf
p2
I1
s.(dp0
Vcz7fhu0
p1
I1
sVcyhuckf
p2
I1
s.(dp0
Vcyhuckf
p1
I1
sVcz7gq3q
p2
I1
s.(dp0
Vcyhuckf
p1
I1
sVcz8fjg1
p2
I1
s.(dp0
Vcyhuckf
p1
I1
sVcz8fjg1
p2
I1
s.(dp0
Vcz8izkq
p1
I1
sVcyhuckf
p2
I1
s.(dp0
Vcz8og07
p1
I1
sVcyhuckf
p2
I1
s.(dp0
Vcz8og07
p1
I1
sVcyhuckf
p2
I1
s.(dp0
Vcyhuckf
p1
I1
sVcz91x8s
p2
I1
s.(dp0
Vcz9g82t
p1
I1
sVcyhuckf
p2
I1
s.(dp0
Vczcy6ss
p1
I1
sVcyhuckf
p2
I1
s.(dp0
Vcze8l3g
p1
I1
sVcyhuckf
p2
I1
s.(dp0
Vcze8l3g
p1
I1
sVcyhuckf
p2
I1
s.(dp0
Vcyhuckf
p1
I1
sVczfs2uw
p2
I1
s.(dp0
Vcyhuckf
p1
I1
sVczgcxgb
p2
I1
s.(dp0
Vczgpwws
p1
I1
sVcyhuckf
p2
I1
s.(dp0
Vczi76se
p1
I1
sVcyhuckf
p2
I1
s.(dp0
Vczi9mc5
p1
I1
sVcyhuckf
p2
I1
s.(dp0
Vczihyu9
p1
I1
sVcyhuckf
p2
I1
s.(dp0
Vcyhuckf
p1
I1
sVczks7eo
p2
I1
s.(dp0
Vczmq389
p1
I1
sVcyhuckf
p2
I1
s.(dp0
Vczmq389
p1
I1
sVcyhuckf
p2
I1
s.(dp0
Vczn742p
p1
I1
sVcyhuckf
p2
I1
s.(dp0
Vczn7pfy
p1
I1
sVcyhuckf
p2
I1
s.(dp0
Vczn91qt
p1
I1
sVcyhuckf
p2
I1
s.(dp0
Vcznvopc
p1
I1
sVcyhuckf
p2
I1
s.(dp0
Vcznvopc
p1
I1
sVcyhuckf
p2
I1
s.(dp0
Vczrhhpx
p1
I1
sVcyhuckf
p2
I1
s.(dp0
Vczru5lc
p1
I1
sVcyhuckf
p2
I1
s.(dp0
Vcyhuckf
p1
I1
sVcztdk1w
p2
I1
s.(dp0
Vczthzet
p1
I1
sVcyhuckf
p2
I1
s.(dp0
Vcyhuckf
p1
I1
sVczv39y8
p2
I1
s.(dp0
Vczv3lej
p1
I1
sVcyhuckf
p2
I1
s.(dp0
Vcyhuckf
p1
I1
sVczv9vn8
p2
I1
s.(dp0
Vcyhuckf
p1
I1
sVczv9vn8
p2
I1
s.(dp0
Vcyhuckf
p1
I1
sVczv9vn8
p2
I1
s.(dp0
Vczwbm8a
p1
I1
sVcyhuckf
p2
I1
s.(dp0
Vcyhuckf
p1
I1
sVczwm6df
p2
I1
s.(dp0
Vczxe3h6
p1
I1
sVcyhuckf
p2
I1
s.(dp0
Vcz(dp0
Vcyhuckf
p1
I1
sVdkm4vu1
p2
I1
s.