(dp0
Vcz8ecls
p1
I1
s.(dp0
Vcz8ecls
p1
I2
s.(dp0
Vcz8ecls
p1
I1
sVd0hl489
p2
I1
s.(dp0
Vd7nnt02
p1
I1
sVcz8ecls
p2
I1
s.(dp0
Vcz8ecls
p1
I1
sVd8g8n2b
p2
I1
s.(dp0
Vcz8ecls
p1
I1
sVdcjotjn
p2
I1
s.(dp0
Vcz8ecls
p1
I1
sVdhqssqe
p2
I1
s.(dp0
Vcz8ecls
p1
I1
sVdhqssqe
p2
I1
s.(dp0
Vcz8ecls
p1
I1
sVdhqssqe
p2
I1
s.(dp0
Vcz8ecls
p1
I1
sVdiwv5ct
p2
I1
s.