(dp0
Vd0kukwr
p1
I1
s.(dp0
Vd1j7h8n
p1
I1
sVd0kukwr
p2
I1
s.(dp0
Vd7yplyw
p1
I1
sVd0kukwr
p2
I1
s.(dp0
Vdhznr68
p1
I1
sVd0kukwr
p2
I1
s.(dp0
Vdkjt3dl
p1
I1
sVd0kukwr
p2
I1
s.(dp0
Vdkjtg5r
p1
I1
sVd0kukwr
p2
I1
s.(dp0
Vdkjv9ap
p1
I1
sVd0kukwr
p2
I1
s.(dp0
Vdkjv9ap
p1
I1
sVd0kukwr
p2
I1
s.