(dp0
Vcyi0ssb
p1
I1
s.(dp0
Vcyi0ssb
p1
I1
sVcyi4xca
p2
I1
s.(dp0
Vcyi0ssb
p1
I1
sVcyjaxeu
p2
I1
s.(dp0
Vcyi0ssb
p1
I1
sVcykitxg
p2
I1
s.(dp0
Vcyi0ssb
p1
I1
sVcykn51n
p2
I1
s.(dp0
Vcyi0ssb
p1
I1
sVcykn51n
p2
I1
s.(dp0
Vcyi0ssb
p1
I1
sVcymoor7
p2
I1
s.(dp0
Vcyi0ssb
p1
I1
sVcyrwcr4
p2
I1
s.(dp0
Vcyi0ssb
p1
I1
sVcyrwcr4
p2
I1
s.(dp0
Vcys3527
p1
I1
sVcyi0ssb
p2
I1
s.(dp0
Vcys3527
p1
I1
sVcyi0ssb
p2
I1
s.(dp0
Vcysl3y1
p1
I1
sVcyi0ssb
p2
I1
s.(dp0
Vcyi0ssb
p1
I1
sVcyssfd1
p2
I1
s.(dp0
Vcyi0ssb
p1
I1
sVcysutgx
p2
I1
s.(dp0
Vcyi0ssb
p1
I1
sVcysutgx
p2
I1
s.(dp0
Vcyi0ssb
p1
I1
sVcyuebbo
p2
I1
s.(dp0
Vcyi0ssb
p1
I1
sVcyuk62f
p2
I1
s.(dp0
Vcyi0ssb
p1
I1
sVcyv2cbx
p2
I1
s.(dp0
Vcyi0ssb
p1
I1
sVcyvp6p1
p2
I1
s.(dp0
Vcyi0ssb
p1
I1
sVcyvp6p1
p2
I1
s.(dp0
Vcyi0ssb
p1
I1
sVcyvpfrc
p2
I1
s.(dp0
Vcyi0ssb
p1
I1
sVcyvpndf
p2
I1
s.(dp0
Vcyi0ssb
p1
I1
sVcyz974g
p2
I1
s.(dp0
Vcyi0ssb
p1
I1
sVcz3ti1m
p2
I1
s.(dp0
Vcyi0ssb
p1
I1
sVcz3xai4
p2
I1
s.(dp0
Vcyi0ssb
p1
I1
sVcz3xai4
p2
I1
s.(dp0
Vcyi0ssb
p1
I1
sVcz3xai4
p2
I1
s.(dp0
Vcz422og
p1
I1
sVcyi0ssb
p2
I1
s.(dp0
Vcz4krxa
p1
I1
sVcyi0ssb
p2
I1
s.(dp0
Vcyi0ssb
p1
I1
sVcz5od27
p2
I1
s.(dp0
Vcyi0ssb
p1
I1
sVcz9wbb7
p2
I1
s.(dp0
Vcyi0ssb
p1
I1
sVcza3vrg
p2
I1
s.(dp0
Vcyi0ssb
p1
I1
sVczaol15
p2
I1
s.(dp0
Vcyi0ssb
p1
I1
sVczbu94s
p2
I1
s.(dp0
Vcyi0ssb
p1
I1
sVczbu94s
p2
I1
s.(dp0
Vcyi0ssb
p1
I1
sVczg1mm0
p2
I1
s.(dp0
Vczi3phw
p1
I1
sVcyi0ssb
p2
I1
s.(dp0
Vcyi0ssb
p1
I1
sVcziriyn
p2
I1
s.(dp0
Vcyi0ssb
p1
I1
sVczku3zn
p2
I1
s.(dp0
Vczl2o64
p1
I1
sVcyi0ssb
p2
I1
s.(dp0
Vczm9j2h
p1
I1
sVcyi0ssb
p2
I1
s.(dp0
Vcyi0ssb
p1
I1
sVczp995r
p2
I1
s.(dp0
Vcyi0ssb
p1
I1
sVczrehjs
p2
I1
s.(dp0
Vcyi0ssb
p1
I1
sVczv3yhi
p2
I1
s.(dp0
Vcyi0ssb
p1
I1
sVczv7puu
p2
I1
s.(dp0
Vcyi0ssb
p1
I1
sVczvrolc
p2
I1
s.(dp0
Vcyi0ssb
p1
I1
sVczvtsox
p2
I1
s.(dp0
Vcyi0ssb
p1
I1
sVczxmoqc
p2
I1
s.(dp0
Vcyi0ssb
p1
I1
sVczxmoqc
p2
I1
s.(dp0
Vcyi0ssb
p1
I1
sVczzlglp
p2
I1
s.(dp0
Vcyi0ssb
p1
I1
sVczzlglp
p2
I1
s.(dp0
Vcyi0ssb
p1
I1
sVd00782h
p2
I1
s.(dp0
Vcyi0ssb
p1
I1
sVd008ae4
p2
I1
s.(dp0
Vcyi0ssb
p1
I1
sVd01unhh
p2
I1
s.(dp0
Vcyi0ssb
p1
I1
sVd025m3z
p2
I1
s.(dp0
Vd02l804
p1
I1
sVcyi0ssb
p2
I1
s.(dp0
Vcyi0ssb
p1
I1
sVd03fom7
p2
I1
s.(dp0
Vd0449s2
p1
I1
sVcyi0ssb
p2
I1
s.(dp0
Vcyi0ssb
p1
I1
sVd04wu9v
p2
I1
s.(dp0
Vcyi0ssb
p1
I1
sVd0c2dwt
p2
I1
s.(dp0
Vcyi0ssb
p1
I1
sVd0c8lhi
p2
I1
s.(dp0
Vd0drsw7
p1
I1
sVcyi0ssb
p2
I1
s.(dp0
Vcyi0ssb
p1
I1
sVd0grglw
p2
I1
s.(dp0
Vcyi0ssb
p1
I1
sVd0huxsu
p2
I1
s.(dp0
Vcyi0ssb
p1
I1
sVd0huxsu
p2
I1
s.(dp0
Vd0ibznt
p1
I1
sVcyi0ssb
p2
I1
s.(dp0
Vcyi0ssb
p1
I1
sVd0kstki
p2
I1
s.(dp0
Vd0m9ljc
p1
I1
sVcyi0ssb
p2
I1
s.(dp0
Vd0oaciw
p1
I1
sVcyi0ssb
p2
I1
s.(dp0
Vd0qzbvl
p1
I1
sVcyi0ssb
p2
I1
s.(dp0
Vd0qzbvl
p1
I1
sVcyi0ssb
p2
I1
s.(dp0
Vcyi0ssb
p1
I1
sVd0u12qc
p2
I1
s.(dp0
Vcyi0ssb
p1
I1
sVd0vg106
p2
I1
s.(dp0
Vcyi0ssb
p1
I1
sVd0vg106
p2
I1
s.(dp0
Vcyi0ssb
p1
I1
sVd0vg106
p2
I1
s.(dp0
Vcyi0ssb
p1
I1
sVd0xe4um
p2
I1
s.(dp0
Vcyi0ssb
p1
I1
sVd0xyjq9
p2
I1
s.(dp0
Vcyi0ssb
p1
I1
sVd0yhrwr
p2
I1
s.(dp0
Vcyi0ssb
p1
I1
sVd0yhrwr
p2
I1
s.(dp0
Vd0yx9tg
p1
I1
sVcyi0ssb
p2
I1
s.(dp0
Vcyi0ssb
p1
I1
sVd12niow
p2
I1
s.(dp0
Vcyi0ssb
p1
I1
sVd12ybcy
p2
I1
s.(dp0
Vcyi0ssb
p1
I1
sVd12ybcy
p2
I1
s.(dp0
Vd13e4hp
p1
I1
sVcyi0ssb
p2
I1
s.(dp0
Vd160kca
p1
I1
sVcyi0ssb
p2
I1
s.(dp0
Vd17701t
p1
I1
sVcyi0ssb
p2
I1
s.(dp0
Vcyi0ssb
p1
I1
sVd17t3z1
p2
I1
s.(dp0
Vd194o8r
p1
I1
sVcyi0ssb
p2
I1
s.(dp0
Vd194o8r
p1
I1
sVcyi0ssb
p2
I1
s.(dp0
Vd19j972
p1
I1
sVcyi0ssb
p2
I1
s.(dp0
Vcyi0ssb
p1
I1
sVd1anjkf
p2
I1
s.(dp0
Vcyi0ssb
p1
I1
sVd1ci5m3
p2
I1
s.(dp0
Vcyi0ssb
p1
I1
sVd1ci5m3
p2
I1
s.(dp0
Vcyi0ssb
p1
I1
sVd1ci5m3
p2
I1
s.(dp0
Vcyi0ssb
p1
I1
sVd1ci5m3
p2
I1
s.(dp0
Vcyi0ssb
p1
I1
sVd1d4hck
p2
I1
s.(dp0
Vcyi0ssb
p1
I1
sVd1d4kwy
p2
I1
s.(dp0
Vcyi0ssb
p1
I1
sVd1d4kwy
p2
I1
s.(dp0
Vcyi0ssb
p1
I1
sVd1d85gg
p2
I1
s.(dp0
Vcyi0ssb
p1
I1
sVd1d85gg
p2
I1
s.(dp0
Vcyi0ssb
p1
I1
sVd1hwrgp
p2
I1
s.(dp0
Vd1ivulj
p1
I1
sVcyi0ssb
p2
I1
s.(dp0
Vcyi0ssb
p1
I1
sVd1jv0r5
p2
I1
s.(dp0
Vcyi0ssb
p1
I1
sVd1kpsdj
p2
I1
s.(dp0
Vd1l67zr
p1
I1
sVcyi0ssb
p2
I1
s.(dp0
Vcyi0ssb
p1
I1
sVd1r570q
p2
I1
s.(dp0
Vcyi0ssb
p1
I1
sVd1unj20
p2
I1
s.(dp0
Vcyi0ssb
p1
I1
sVd1v0ri4
p2
I1
s.(dp0
Vcy(dp0
Vcyi0ssb
p1
I1
sVdov8im7
p2
I1
s.