(dp0
Vcyjuw6r
p1
I1
s.(dp0
Vcyjuw6r
p1
I1
sVcypuaj0
p2
I1
s.(dp0
Vcyjuw6r
p1
I1
sVd08rzcj
p2
I1
s.(dp0
Vcyjuw6r
p1
I1
sVd1x4dtn
p2
I1
s.(dp0
Vcyjuw6r
p1
I1
sVd21wqwq
p2
I1
s.(dp0
Vcyjuw6r
p1
I1
sVd664ggz
p2
I1
s.(dp0
Vcyjuw6r
p1
I1
sVdbnqhq8
p2
I1
s.(dp0
Vcyjuw6r
p1
I1
sVdcrl2lq
p2
I1
s.(dp0
Vcyjuw6r
p1
I1
sVdenibel
p2
I1
s.(dp0
Vcyjuw6r
p1
I1
sVdi99xs3
p2
I1
s.(dp0
Vcyjuw6r
p1
I1
sVdkemekr
p2
I1
s.(dp0
Vcyjuw6r
p1
I1
sVdkemekr
p2
I1
s.(dp0
Vcyjuw6r
p1
I1
sVdkf19gd
p2
I1
s.(dp0
Vcyjuw6r
p1
I1
sVdkf19gd
p2
I1
s.