(dp0
Vcyocqzx
p1
I1
s.(dp0
Vcyw3tti
p1
I1
sVcyocqzx
p2
I1
s.(dp0
Vcyzjd9w
p1
I1
sVcyocqzx
p2
I1
s.(dp0
Vczc3to7
p1
I1
sVcyocqzx
p2
I1
s.(dp0
Vczhy8zm
p1
I1
sVcyocqzx
p2
I1
s.(dp0
Vczi8op4
p1
I1
sVcyocqzx
p2
I1
s.(dp0
Vczicicc
p1
I1
sVcyocqzx
p2
I1
s.(dp0
Vczm6izy
p1
I1
sVcyocqzx
p2
I1
s.(dp0
Vcyocqzx
p1
I1
sVd01i9a0
p2
I1
s.(dp0
Vcyocqzx
p1
I1
sVd0obc6h
p2
I1
s.(dp0
Vd0vcj9e
p1
I1
sVcyocqzx
p2
I1
s.(dp0
Vd18kzvt
p1
I1
sVcyocqzx
p2
I1
s.(dp0
Vd1jzmhn
p1
I1
sVcyocqzx
p2
I1
s.(dp0
Vd2qtrqm
p1
I1
sVcyocqzx
p2
I1
s.(dp0
Vd2u78e0
p1
I1
sVcyocqzx
p2
I1
s.(dp0
Vd3f2x4d
p1
I1
sVcyocqzx
p2
I1
s.(dp0
Vd3nioo0
p1
I1
sVcyocqzx
p2
I1
s.(dp0
Vd3r4o7u
p1
I1
sVcyocqzx
p2
I1
s.(dp0
Vd4gqlae
p1
I1
sVcyocqzx
p2
I1
s.(dp0
Vd4l308p
p1
I1
sVcyocqzx
p2
I1
s.(dp0
Vd5cxigm
p1
I1
sVcyocqzx
p2
I1
s.(dp0
Vcyocqzx
p1
I1
sVd5vnrlu
p2
I1
s.(dp0
Vd6b67vs
p1
I1
sVcyocqzx
p2
I1
s.(dp0
Vd6ee4ii
p1
I1
sVcyocqzx
p2
I1
s.(dp0
Vd6vgsrl
p1
I1
sVcyocqzx
p2
I1
s.(dp0
Vd76cfd9
p1
I1
sVcyocqzx
p2
I1
s.(dp0
Vd8c56ms
p1
I1
sVcyocqzx
p2
I1
s.(dp0
Vd9u5ajp
p1
I1
sVcyocqzx
p2
I1
s.(dp0
Vd9yhf2h
p1
I1
sVcyocqzx
p2
I1
s.(dp0
Vdaw6bve
p1
I1
sVcyocqzx
p2
I1
s.(dp0
Vdb12xam
p1
I1
sVcyocqzx
p2
I1
s.(dp0
Vdcaod61
p1
I1
sVcyocqzx
p2
I1
s.(dp0
Vdcaod61
p1
I1
sVcyocqzx
p2
I1
s.(dp0
Vdd61yop
p1
I1
sVcyocqzx
p2
I1
s.(dp0
Vddqfq98
p1
I1
sVcyocqzx
p2
I1
s.(dp0
Vdfb7a5k
p1
I1
sVcyocqzx
p2
I1
s.(dp0
Vdfidlf3
p1
I1
sVcyocqzx
p2
I1
s.(dp0
Vdfidlf3
p1
I1
sVcyocqzx
p2
I1
s.(dp0
Vdfidlf3
p1
I1
sVcyocqzx
p2
I1
s.(dp0
Vdhjf91x
p1
I1
sVcyocqzx
p2
I1
s.(dp0
Vdidgs58
p1
I1
sVcyocqzx
p2
I1
s.(dp0
Vdidi2q4
p1
I1
sVcyocqzx
p2
I1
s.(dp0
Vdiuxolj
p1
I1
sVcyocqzx
p2
I1
s.(dp0
Vdj05faf
p1
I1
sVcyocqzx
p2
I1
s.(dp0
Vdjbbi1i
p1
I1
sVcyocqzx
p2
I1
s.(dp0
Vdkbfds7
p1
I1
sVcyocqzx
p2
I1
s.