(dp0
Vczedtnf
p1
I1
s.(dp0
Vd3zhbxa
p1
I1
sVczedtnf
p2
I1
s.(dp0
Vd4qsvtb
p1
I1
sVczedtnf
p2
I1
s.(dp0
Vd4qsvtb
p1
I1
sVczedtnf
p2
I1
s.(dp0
Vdbzmi8w
p1
I1
sVczedtnf
p2
I1
s.(dp0
Vdbzmi8w
p1
I1
sVczedtnf
p2
I1
s.(dp0
Vdc4bxc2
p1
I1
sVczedtnf
p2
I1
s.(dp0
Vdcen7la
p1
I1
sVczedtnf
p2
I1
s.(dp0
Vdcen7la
p1
I1
sVczedtnf
p2
I1
s.(dp0
Vdcen7la
p1
I1
sVczedtnf
p2
I1
s.(dp0
Vddcmfiz
p1
I1
sVczedtnf
p2
I1
s.(dp0
Vddd6dqj
p1
I1
sVczedtnf
p2
I1
s.(dp0
Vddrxsso
p1
I1
sVczedtnf
p2
I1
s.(dp0
Vdfdydzw
p1
I1
sVczedtnf
p2
I1
s.