(dp0
Vcymfkxw
p1
I1
s.(dp0
Vcymfkxw
p1
I1
sVcyneiyi
p2
I1
s.(dp0
Vcymfkxw
p1
I1
sVcys1yx1
p2
I1
s.(dp0
Vcymfkxw
p1
I1
sVcysufub
p2
I1
s.(dp0
Vcymfkxw
p1
I1
sVcyzbxf4
p2
I1
s.(dp0
Vcymfkxw
p1
I1
sVcz40co9
p2
I1
s.(dp0
Vcymfkxw
p1
I1
sVcz5885z
p2
I1
s.(dp0
Vcymfkxw
p1
I1
sVcz64qxe
p2
I1
s.(dp0
Vcymfkxw
p1
I1
sVczgmq98
p2
I1
s.(dp0
Vcymfkxw
p1
I1
sVczl470c
p2
I1
s.(dp0
Vcymfkxw
p1
I1
sVczmcj5l
p2
I1
s.(dp0
Vcymfkxw
p1
I1
sVczmxy0e
p2
I1
s.(dp0
Vcymfkxw
p1
I1
sVczpqsul
p2
I1
s.(dp0
Vcymfkxw
p1
I1
sVczqhw5n
p2
I1
s.(dp0
Vcymfkxw
p1
I1
sVczqlpar
p2
I1
s.(dp0
Vcymfkxw
p1
I1
sVczqlpar
p2
I1
s.(dp0
Vcymfkxw
p1
I1
sVczqlpar
p2
I1
s.(dp0
Vcymfkxw
p1
I1
sVczsaxve
p2
I1
s.(dp0
Vcymfkxw
p1
I1
sVczscqap
p2
I1
s.(dp0
Vcymfkxw
p1
I1
sVczsqyun
p2
I1
s.(dp0
Vcymfkxw
p1
I1
sVd06mz36
p2
I1
s.(dp0
Vcymfkxw
p1
I1
sVd07bs9l
p2
I1
s.(dp0
Vcymfkxw
p1
I1
sVd08rpbq
p2
I1
s.(dp0
Vcymfkxw
p1
I1
sVd0a35mg
p2
I1
s.(dp0
Vcymfkxw
p1
I1
sVd0fo5p4
p2
I1
s.(dp0
Vcymfkxw
p1
I1
sVd0gvp90
p2
I1
s.(dp0
Vcymfkxw
p1
I1
sVd0hb4p8
p2
I1
s.(dp0
Vcymfkxw
p1
I1
sVd0n3ged
p2
I1
s.(dp0
Vcymfkxw
p1
I1
sVd11ka9g
p2
I1
s.(dp0
Vcymfkxw
p1
I1
sVd1bxjgz
p2
I1
s.(dp0
Vcymfkxw
p1
I1
sVd1hapvd
p2
I1
s.(dp0
Vcymfkxw
p1
I1
sVd1j8w6a
p2
I1
s.(dp0
Vcymfkxw
p1
I1
sVd1kyb6s
p2
I1
s.(dp0
Vcymfkxw
p1
I1
sVd1togh1
p2
I1
s.(dp0
Vcymfkxw
p1
I1
sVd1tplfe
p2
I1
s.(dp0
Vcymfkxw
p1
I1
sVd2czub4
p2
I1
s.(dp0
Vcymfkxw
p1
I1
sVd2d7n20
p2
I1
s.(dp0
Vcymfkxw
p1
I1
sVd2dosk9
p2
I1
s.(dp0
Vcymfkxw
p1
I1
sVd2fz4dh
p2
I1
s.(dp0
Vcymfkxw
p1
I1
sVd2ktj01
p2
I1
s.(dp0
Vcymfkxw
p1
I1
sVd2sfu3c
p2
I1
s.(dp0
Vcymfkxw
p1
I1
sVd2t9jk3
p2
I1
s.(dp0
Vcymfkxw
p1
I1
sVd32tlxx
p2
I1
s.(dp0
Vcymfkxw
p1
I1
sVd34shy2
p2
I1
s.(dp0
Vcymfkxw
p1
I1
sVd38ofb2
p2
I1
s.(dp0
Vcymfkxw
p1
I1
sVd3hgw50
p2
I1
s.(dp0
Vcymfkxw
p1
I1
sVd3ocgyh
p2
I1
s.(dp0
Vcymfkxw
p1
I1
sVd3qw3ox
p2
I1
s.(dp0
Vcymfkxw
p1
I1
sVd3ujgr6
p2
I1
s.(dp0
Vcymfkxw
p1
I1
sVd3vlzdz
p2
I1
s.(dp0
Vcymfkxw
p1
I1
sVd462n9m
p2
I1
s.(dp0
Vcymfkxw
p1
I1
sVd47ejcj
p2
I1
s.(dp0
Vcymfkxw
p1
I1
sVd4f9df4
p2
I1
s.(dp0
Vcymfkxw
p1
I1
sVd4f9df4
p2
I1
s.(dp0
Vcymfkxw
p1
I1
sVd4geqy2
p2
I1
s.(dp0
Vcymfkxw
p1
I1
sVd4geqy2
p2
I1
s.(dp0
Vcymfkxw
p1
I1
sVd4gwp11
p2
I1
s.(dp0
Vcymfkxw
p1
I1
sVd4h7r7g
p2
I1
s.(dp0
Vcymfkxw
p1
I1
sVd4uy8ld
p2
I1
s.(dp0
Vcymfkxw
p1
I1
sVd504s7b
p2
I1
s.(dp0
Vcymfkxw
p1
I1
sVd57bjsn
p2
I1
s.(dp0
Vcymfkxw
p1
I1
sVd586fg7
p2
I1
s.(dp0
Vcymfkxw
p1
I1
sVd58utvt
p2
I1
s.(dp0
Vcymfkxw
p1
I1
sVd5cguhc
p2
I1
s.(dp0
Vcymfkxw
p1
I1
sVd5cjaee
p2
I1
s.(dp0
Vcymfkxw
p1
I1
sVd5jymzk
p2
I1
s.(dp0
Vcymfkxw
p1
I1
sVd5rtuf9
p2
I1
s.(dp0
Vcymfkxw
p1
I1
sVd5tfivj
p2
I1
s.(dp0
Vcymfkxw
p1
I1
sVd5ui4tr
p2
I1
s.(dp0
Vcymfkxw
p1
I1
sVd5vw5ke
p2
I1
s.(dp0
Vcymfkxw
p1
I1
sVd65qi2l
p2
I1
s.(dp0
Vcymfkxw
p1
I1
sVd6ajzr7
p2
I1
s.(dp0
Vcymfkxw
p1
I1
sVd6bc02g
p2
I1
s.(dp0
Vcymfkxw
p1
I1
sVd6fpa6z
p2
I1
s.(dp0
Vcymfkxw
p1
I1
sVd6fqh60
p2
I1
s.(dp0
Vcymfkxw
p1
I1
sVd6g8wwd
p2
I1
s.(dp0
Vcymfkxw
p1
I1
sVd6gqs5y
p2
I1
s.(dp0
Vcymfkxw
p1
I1
sVd6iwjao
p2
I1
s.(dp0
Vcymfkxw
p1
I1
sVd6iy2by
p2
I1
s.(dp0
Vcymfkxw
p1
I1
sVd6iy2by
p2
I1
s.(dp0
Vcymfkxw
p1
I1
sVd6lq5rh
p2
I1
s.(dp0
Vcymfkxw
p1
I1
sVd6lq5rh
p2
I1
s.(dp0
Vcymfkxw
p1
I1
sVd6sgaab
p2
I1
s.(dp0
Vcymfkxw
p1
I1
sVd70len9
p2
I1
s.(dp0
Vcymfkxw
p1
I1
sVd7ey104
p2
I1
s.(dp0
Vcymfkxw
p1
I1
sVd7gpohe
p2
I1
s.(dp0
Vcymfkxw
p1
I1
sVd7jrnrk
p2
I1
s.(dp0
Vcymfkxw
p1
I1
sVd7jvlav
p2
I1
s.(dp0
Vcymfkxw
p1
I1
sVd7mw69z
p2
I1
s.(dp0
Vcymfkxw
p1
I1
sVd7n3eui
p2
I1
s.(dp0
Vcymfkxw
p1
I1
sVd7n3eui
p2
I1
s.(dp0
Vcymfkxw
p1
I1
sVd7tn4zp
p2
I1
s.(dp0
Vcymfkxw
p1
I1
sVd7tws70
p2
I1
s.(dp0
Vcymfkxw
p1
I1
sVd7ys6xt
p2
I1
s.(dp0
Vcymfkxw
p1
I1
sVd80s00t
p2
I1
s.(dp0
Vcymfkxw
p1
I1
sVd81fvjo
p2
I1
s.(dp0
Vcymfkxw
p1
I1
sVd83k9o1
p2
I1
s.(dp0
Vcymfkxw
p1
I1
sVd86ys7x
p2
I1
s.(dp0
Vcymfkxw
p1
I1
sVd8atx80
p2
I1
s.(dp0
Vcymfkxw
p1
I1
sVd8hbnsj
p2
I1
s.(dp0
Vcymfkxw
p1
I1
sVd8isurd
p2
I1
s.(dp0
Vcymfkxw
p1
I1
sVd92pig8
p2
I1
s.(dp0
Vcymfkxw
p1
I1
sVd97iask
p2
I1
s.(dp0
Vcymfkxw
p1
I1
sVd97ncub
p2
I1
s.(dp0
Vcymfkxw
p1
I1
sVd9hggdl
p2
I1
s.(dp0
Vcymfkxw
p1
I1
sVd9n2kkv
p2
I1
s.(dp0
Vcymfkxw
p1
I1
sVd9rcr6d
p2
I1
s.(dp0
Vcymfkxw
p1
I1
sVdac61f2
p2
I1
s.(dp0
Vcy(dp0
Vcymfkxw
p1
I1
sVdkx36yu
p2
I1
s.