(dp0
Vcyi6kub
p1
I1
s.(dp0
Vcykwkrj
p1
I1
sVcyi6kub
p2
I1
s.(dp0
Vcymf3ri
p1
I1
sVcyi6kub
p2
I1
s.(dp0
Vcyn2kkw
p1
I1
sVcyi6kub
p2
I1
s.(dp0
Vcyi6kub
p1
I1
sVcyn9081
p2
I1
s.(dp0
Vcynneh7
p1
I1
sVcyi6kub
p2
I1
s.(dp0
Vcyi6kub
p1
I1
sVcyo94vb
p2
I1
s.(dp0
Vcyoaona
p1
I1
sVcyi6kub
p2
I1
s.(dp0
Vcyoaona
p1
I1
sVcyi6kub
p2
I1
s.(dp0
Vcyr3ezr
p1
I1
sVcyi6kub
p2
I1
s.(dp0
Vcysit44
p1
I1
sVcyi6kub
p2
I1
s.(dp0
Vcyvvcr1
p1
I1
sVcyi6kub
p2
I1
s.(dp0
Vcyxcy76
p1
I1
sVcyi6kub
p2
I1
s.(dp0
Vcyzhz3u
p1
I1
sVcyi6kub
p2
I1
s.(dp0
Vcz2nuds
p1
I1
sVcyi6kub
p2
I1
s.(dp0
Vcz35jwc
p1
I1
sVcyi6kub
p2
I1
s.(dp0
Vcz3u62d
p1
I1
sVcyi6kub
p2
I1
s.(dp0
Vcz3yz09
p1
I1
sVcyi6kub
p2
I1
s.(dp0
Vcz4l6pd
p1
I1
sVcyi6kub
p2
I1
s.(dp0
Vcz5ohkt
p1
I1
sVcyi6kub
p2
I1
s.(dp0
Vcz5xnuc
p1
I1
sVcyi6kub
p2
I1
s.(dp0
Vcz7nusc
p1
I1
sVcyi6kub
p2
I1
s.(dp0
Vcz7vl2c
p1
I1
sVcyi6kub
p2
I1
s.(dp0
Vcz8kcln
p1
I1
sVcyi6kub
p2
I1
s.(dp0
Vcz9xjvs
p1
I1
sVcyi6kub
p2
I1
s.(dp0
Vcyi6kub
p1
I1
sVczfs2uw
p2
I1
s.(dp0
Vczg3kuj
p1
I1
sVcyi6kub
p2
I1
s.(dp0
Vczksxa6
p1
I1
sVcyi6kub
p2
I1
s.(dp0
Vczrbp1s
p1
I1
sVcyi6kub
p2
I1
s.(dp0
Vcztyce7
p1
I1
sVcyi6kub
p2
I1
s.(dp0
Vd00uzza
p1
I1
sVcyi6kub
p2
I1
s.(dp0
Vd00wqf3
p1
I1
sVcyi6kub
p2
I1
s.(dp0
Vd01jox3
p1
I1
sVcyi6kub
p2
I1
s.(dp0
Vd035025
p1
I1
sVcyi6kub
p2
I1
s.(dp0
Vd036vd8
p1
I1
sVcyi6kub
p2
I1
s.(dp0
Vd03m6wk
p1
I1
sVcyi6kub
p2
I1
s.(dp0
Vd03q6mh
p1
I1
sVcyi6kub
p2
I1
s.(dp0
Vcyi6kub
p1
I1
sVd05y14c
p2
I1
s.(dp0
Vd0741q5
p1
I1
sVcyi6kub
p2
I1
s.(dp0
Vd0dxjb0
p1
I1
sVcyi6kub
p2
I1
s.(dp0
Vd0e95mo
p1
I1
sVcyi6kub
p2
I1
s.(dp0
Vd0h26f0
p1
I1
sVcyi6kub
p2
I1
s.(dp0
Vcyi6kub
p1
I1
sVd0h4s9h
p2
I1
s.(dp0
Vd0hlw04
p1
I1
sVcyi6kub
p2
I1
s.(dp0
Vd0iaget
p1
I1
sVcyi6kub
p2
I1
s.(dp0
Vd0kj7bb
p1
I1
sVcyi6kub
p2
I1
s.(dp0
Vd0kj7bb
p1
I1
sVcyi6kub
p2
I1
s.(dp0
Vd0nrwys
p1
I1
sVcyi6kub
p2
I1
s.(dp0
Vd0piicl
p1
I1
sVcyi6kub
p2
I1
s.(dp0
Vd0qgoi5
p1
I1
sVcyi6kub
p2
I1
s.(dp0
Vd0rkga6
p1
I1
sVcyi6kub
p2
I1
s.(dp0
Vd0smt2n
p1
I1
sVcyi6kub
p2
I1
s.(dp0
Vd0t7x0s
p1
I1
sVcyi6kub
p2
I1
s.(dp0
Vd10qcjq
p1
I1
sVcyi6kub
p2
I1
s.(dp0
Vd126zsn
p1
I1
sVcyi6kub
p2
I1
s.(dp0
Vd12mwvx
p1
I1
sVcyi6kub
p2
I1
s.(dp0
Vcyi6kub
p1
I1
sVd1311ow
p2
I1
s.(dp0
Vd154x1g
p1
I1
sVcyi6kub
p2
I1
s.(dp0
Vd178ils
p1
I1
sVcyi6kub
p2
I1
s.(dp0
Vd19gkdy
p1
I1
sVcyi6kub
p2
I1
s.(dp0
Vd1b4l1n
p1
I1
sVcyi6kub
p2
I1
s.(dp0
Vcyi6kub
p1
I1
sVd1guz9b
p2
I1
s.(dp0
Vcyi6kub
p1
I1
sVd1x68de
p2
I1
s.(dp0
Vd1xeqm0
p1
I1
sVcyi6kub
p2
I1
s.(dp0
Vd1ybge7
p1
I1
sVcyi6kub
p2
I1
s.(dp0
Vd216xnd
p1
I1
sVcyi6kub
p2
I1
s.(dp0
Vd2181kl
p1
I1
sVcyi6kub
p2
I1
s.(dp0
Vd21ova1
p1
I1
sVcyi6kub
p2
I1
s.(dp0
Vcyi6kub
p1
I1
sVd21s2t8
p2
I1
s.(dp0
Vd240uov
p1
I1
sVcyi6kub
p2
I1
s.(dp0
Vd29h3pc
p1
I1
sVcyi6kub
p2
I1
s.(dp0
Vd29s4h6
p1
I1
sVcyi6kub
p2
I1
s.(dp0
Vd2da7af
p1
I1
sVcyi6kub
p2
I1
s.(dp0
Vd2gjhe1
p1
I1
sVcyi6kub
p2
I1
s.(dp0
Vd2i4cup
p1
I1
sVcyi6kub
p2
I1
s.(dp0
Vd2i800g
p1
I1
sVcyi6kub
p2
I1
s.(dp0
Vd2kvw1r
p1
I1
sVcyi6kub
p2
I1
s.(dp0
Vd2qgf16
p1
I1
sVcyi6kub
p2
I1
s.(dp0
Vd2sawbm
p1
I1
sVcyi6kub
p2
I1
s.(dp0
Vd2sb1fs
p1
I1
sVcyi6kub
p2
I1
s.(dp0
Vd2xja9q
p1
I1
sVcyi6kub
p2
I1
s.(dp0
Vcyi6kub
p1
I1
sVd35e3sm
p2
I1
s.(dp0
Vd35vuqn
p1
I1
sVcyi6kub
p2
I1
s.(dp0
Vd3ajm3a
p1
I1
sVcyi6kub
p2
I1
s.(dp0
Vd3ajm3a
p1
I1
sVcyi6kub
p2
I1
s.(dp0
Vd3ajm3a
p1
I1
sVcyi6kub
p2
I1
s.(dp0
Vd3ar1qa
p1
I1
sVcyi6kub
p2
I1
s.(dp0
Vd3b62x0
p1
I1
sVcyi6kub
p2
I1
s.(dp0
Vd3x47jc
p1
I1
sVcyi6kub
p2
I1
s.(dp0
Vd3yj14s
p1
I1
sVcyi6kub
p2
I1
s.(dp0
Vd40irz8
p1
I1
sVcyi6kub
p2
I1
s.(dp0
Vd40liwq
p1
I1
sVcyi6kub
p2
I1
s.(dp0
Vd40rpsz
p1
I1
sVcyi6kub
p2
I1
s.(dp0
Vd44jj2g
p1
I1
sVcyi6kub
p2
I1
s.(dp0
Vd44rmmj
p1
I1
sVcyi6kub
p2
I1
s.(dp0
Vd46o4k4
p1
I1
sVcyi6kub
p2
I1
s.(dp0
Vd471inq
p1
I1
sVcyi6kub
p2
I1
s.(dp0
Vd47mbi7
p1
I1
sVcyi6kub
p2
I1
s.(dp0
Vcyi6kub
p1
I1
sVd4m55l7
p2
I1
s.(dp0
Vcyi6kub
p1
I1
sVd4moxtl
p2
I1
s.(dp0
Vcyi6kub
p1
I1
sVd4q7p35
p2
I1
s.(dp0
Vd4rhboo
p1
I1
sVcyi6kub
p2
I1
s.(dp0
Vcyi6kub
p1
I1
sVd4rn9x9
p2
I1
s.(dp0
Vcyi6kub
p1
I1
sVd4uwpsi
p2
I1
s.(dp0
Vd4ww5w8
p1
I1
sVcyi6kub
p2
I1
s.(dp0
Vd4xdbfq
p1
I1
sVcyi6kub
p2
I1
s.(dp0
Vd4xeaou
p1
I1
sVcyi6kub
p2
I1
s.(dp0
Vd4zj2ws
p1
I1
sVcyi6kub
p2
I1
s.(dp0
Vd4(dp0
Vdp060fj
p1
I1
sVcyi6kub
p2
I1
s.