(dp0
Vcyl7ih3
p1
I1
s.(dp0
Vcyl7ih3
p1
I1
sVcyrfbxz
p2
I1
s.(dp0
Vd2avffn
p1
I1
sVcyl7ih3
p2
I1
s.(dp0
Vd5nlplq
p1
I1
sVcyl7ih3
p2
I1
s.(dp0
Vd5nlplq
p1
I1
sVcyl7ih3
p2
I1
s.(dp0
Vd5nlplq
p1
I1
sVcyl7ih3
p2
I1
s.(dp0
Vd5nmz9q
p1
I1
sVcyl7ih3
p2
I1
s.(dp0
Vcyl7ih3
p1
I1
sVd7l8oku
p2
I1
s.(dp0
Vd86t8wy
p1
I1
sVcyl7ih3
p2
I1
s.(dp0
Vcyl7ih3
p1
I1
sVd8hh99p
p2
I1
s.(dp0
Vcyl7ih3
p1
I1
sVd8hh99p
p2
I1
s.(dp0
Vddimw6m
p1
I1
sVcyl7ih3
p2
I1
s.(dp0
Vdi20e78
p1
I1
sVcyl7ih3
p2
I1
s.(dp0
Vdi20e78
p1
I1
sVcyl7ih3
p2
I1
s.(dp0
Vdi211a6
p1
I1
sVcyl7ih3
p2
I1
s.(dp0
Vdi211a6
p1
I1
sVcyl7ih3
p2
I1
s.(dp0
Vdi211a6
p1
I1
sVcyl7ih3
p2
I1
s.(dp0
Vdi211a6
p1
I1
sVcyl7ih3
p2
I1
s.(dp0
Vdi211a6
p1
I1
sVcyl7ih3
p2
I1
s.(dp0
Vcyl7ih3
p1
I1
sVdi251g4
p2
I1
s.(dp0
Vdi2iwkj
p1
I1
sVcyl7ih3
p2
I1
s.(dp0
Vcyl7ih3
p1
I1
sVdjno1bn
p2
I1
s.(dp0
Vcyl7ih3
p1
I1
sVdjno1bn
p2
I1
s.(dp0
Vcyl7ih3
p1
I1
sVdjno1bn
p2
I1
s.(dp0
Vcyl7ih3
p1
I1
sVdjno1bn
p2
I1
s.(dp0
Vcyl7ih3
p1
I1
sVdkm02ll
p2
I1
s.