(dp0
Vcyhtnrc
p1
I1
s.(dp0
Vcyhtnrc
p1
I1
sVcyixtjp
p2
I1
s.(dp0
Vcyhtnrc
p1
I1
sVcykpn82
p2
I1
s.(dp0
Vcyhtnrc
p1
I1
sVcylvvft
p2
I1
s.(dp0
Vcyhtnrc
p1
I1
sVcym0ldg
p2
I1
s.(dp0
Vcyhtnrc
p1
I1
sVcym3ml9
p2
I1
s.(dp0
Vcyhtnrc
p1
I1
sVcyrdks7
p2
I1
s.(dp0
Vcyhtnrc
p1
I1
sVcyt0b73
p2
I1
s.(dp0
Vcyhtnrc
p1
I1
sVcytjboi
p2
I1
s.(dp0
Vcyhtnrc
p1
I1
sVcywdiwj
p2
I1
s.(dp0
Vcyhtnrc
p1
I1
sVcywp6rh
p2
I1
s.(dp0
Vcyhtnrc
p1
I1
sVcyzd0gh
p2
I1
s.(dp0
Vcyhtnrc
p1
I1
sVcyzuor1
p2
I1
s.(dp0
Vcyhtnrc
p1
I1
sVcyzx9hn
p2
I1
s.(dp0
Vcyhtnrc
p1
I1
sVcz1bfw1
p2
I1
s.(dp0
Vcyhtnrc
p1
I1
sVcz285eb
p2
I1
s.(dp0
Vcyhtnrc
p1
I1
sVcz2mqqm
p2
I1
s.(dp0
Vcyhtnrc
p1
I1
sVcz4aouc
p2
I1
s.(dp0
Vcyhtnrc
p1
I1
sVcz586pj
p2
I1
s.(dp0
Vcyhtnrc
p1
I1
sVcz5g6xy
p2
I1
s.(dp0
Vcyhtnrc
p1
I1
sVcz6gblh
p2
I1
s.(dp0
Vcyhtnrc
p1
I1
sVcz6gblh
p2
I1
s.(dp0
Vcyhtnrc
p1
I1
sVcz6gblh
p2
I1
s.(dp0
Vcyhtnrc
p1
I1
sVcz77h2y
p2
I1
s.(dp0
Vcyhtnrc
p1
I1
sVcz87set
p2
I1
s.(dp0
Vcyhtnrc
p1
I1
sVcz92sn5
p2
I1
s.(dp0
Vcyhtnrc
p1
I1
sVcz9pwei
p2
I1
s.(dp0
Vcyhtnrc
p1
I1
sVczawkhg
p2
I1
s.(dp0
Vcyhtnrc
p1
I1
sVczbjtgc
p2
I1
s.(dp0
Vcyhtnrc
p1
I1
sVczbjtgc
p2
I1
s.(dp0
Vcyhtnrc
p1
I1
sVczbk6po
p2
I1
s.(dp0
Vcyhtnrc
p1
I1
sVczbk6po
p2
I1
s.(dp0
Vcyhtnrc
p1
I1
sVczdisc4
p2
I1
s.(dp0
Vcyhtnrc
p1
I1
sVczdisc4
p2
I1
s.(dp0
Vcyhtnrc
p1
I1
sVczdrt69
p2
I1
s.(dp0
Vcyhtnrc
p1
I1
sVczdrt69
p2
I1
s.(dp0
Vcyhtnrc
p1
I1
sVczdrt69
p2
I1
s.(dp0
Vcyhtnrc
p1
I1
sVczdrt69
p2
I1
s.(dp0
Vcyhtnrc
p1
I1
sVcze4wrv
p2
I1
s.(dp0
Vcyhtnrc
p1
I1
sVczgcxgb
p2
I1
s.(dp0
Vcyhtnrc
p1
I1
sVczgrr4h
p2
I1
s.(dp0
Vcyhtnrc
p1
I1
sVczgrr4h
p2
I1
s.(dp0
Vcyhtnrc
p1
I1
sVczgrr4h
p2
I1
s.(dp0
Vcyhtnrc
p1
I1
sVczi7hhc
p2
I1
s.(dp0
Vcyhtnrc
p1
I1
sVczj261k
p2
I1
s.(dp0
Vcyhtnrc
p1
I1
sVczj261k
p2
I1
s.(dp0
Vcyhtnrc
p1
I1
sVczj4koo
p2
I1
s.(dp0
Vcyhtnrc
p1
I1
sVczj6teb
p2
I1
s.(dp0
Vcyhtnrc
p1
I1
sVczkywnx
p2
I1
s.(dp0
Vcyhtnrc
p1
I1
sVczm8qgq
p2
I1
s.(dp0
Vcyhtnrc
p1
I1
sVczm8sek
p2
I1
s.(dp0
Vcyhtnrc
p1
I1
sVczmx4zh
p2
I1
s.(dp0
Vcyhtnrc
p1
I1
sVczpmgbl
p2
I1
s.(dp0
Vcyhtnrc
p1
I1
sVczqrts1
p2
I1
s.(dp0
Vcyhtnrc
p1
I1
sVczt3a0b
p2
I1
s.(dp0
Vcyhtnrc
p1
I1
sVcztntd2
p2
I1
s.(dp0
Vcyhtnrc
p1
I1
sVczvrr4s
p2
I1
s.(dp0
Vcyhtnrc
p1
I1
sVczwm9qs
p2
I1
s.(dp0
Vcyhtnrc
p1
I1
sVczxahvo
p2
I1
s.(dp0
Vcyhtnrc
p1
I1
sVd019scl
p2
I1
s.(dp0
Vcyhtnrc
p1
I1
sVd05n3w8
p2
I1
s.(dp0
Vcyhtnrc
p1
I1
sVd05nfss
p2
I1
s.(dp0
Vcyhtnrc
p1
I1
sVd05y14c
p2
I1
s.(dp0
Vcyhtnrc
p1
I1
sVd06pdrn
p2
I1
s.(dp0
Vcyhtnrc
p1
I1
sVd08ircw
p2
I1
s.(dp0
Vcyhtnrc
p1
I1
sVd0d377n
p2
I1
s.(dp0
Vcyhtnrc
p1
I1
sVd0edzni
p2
I1
s.(dp0
Vcyhtnrc
p1
I1
sVd0edzni
p2
I1
s.(dp0
Vcyhtnrc
p1
I1
sVd0i9pro
p2
I1
s.(dp0
Vcyhtnrc
p1
I1
sVd0inf9t
p2
I1
s.(dp0
Vcyhtnrc
p1
I1
sVd0inf9t
p2
I1
s.(dp0
Vcyhtnrc
p1
I1
sVd0onbxs
p2
I1
s.(dp0
Vcyhtnrc
p1
I1
sVd0rc49v
p2
I1
s.(dp0
Vcyhtnrc
p1
I1
sVd0sn4rn
p2
I1
s.(dp0
Vcyhtnrc
p1
I1
sVd0tzbe2
p2
I1
s.(dp0
Vcyhtnrc
p1
I1
sVd0wn8t6
p2
I1
s.(dp0
Vcyhtnrc
p1
I1
sVd10ks3k
p2
I1
s.(dp0
Vcyhtnrc
p1
I1
sVd11wdnt
p2
I1
s.(dp0
Vcyhtnrc
p1
I1
sVd178krc
p2
I1
s.(dp0
Vcyhtnrc
p1
I1
sVd17f5xw
p2
I1
s.(dp0
Vcyhtnrc
p1
I1
sVd18qrdt
p2
I1
s.(dp0
Vcyhtnrc
p1
I1
sVd19530g
p2
I1
s.(dp0
Vcyhtnrc
p1
I1
sVd1bxu1u
p2
I1
s.(dp0
Vcyhtnrc
p1
I1
sVd1c2tgh
p2
I1
s.(dp0
Vcyhtnrc
p1
I1
sVd1c4imn
p2
I1
s.(dp0
Vcyhtnrc
p1
I1
sVd1ghmca
p2
I1
s.(dp0
Vcyhtnrc
p1
I1
sVd1icyin
p2
I1
s.(dp0
Vcyhtnrc
p1
I1
sVd1ij2ap
p2
I1
s.(dp0
Vcyhtnrc
p1
I1
sVd1klhye
p2
I1
s.(dp0
Vcyhtnrc
p1
I1
sVd1njje2
p2
I1
s.(dp0
Vcyhtnrc
p1
I1
sVd1p2axs
p2
I1
s.(dp0
Vcyhtnrc
p1
I1
sVd1p4w3y
p2
I1
s.(dp0
Vcyhtnrc
p1
I1
sVd1shvxc
p2
I1
s.(dp0
Vcyhtnrc
p1
I1
sVd1sl8xl
p2
I1
s.(dp0
Vcyhtnrc
p1
I1
sVd1sl8xl
p2
I1
s.(dp0
Vcyhtnrc
p1
I1
sVd1tnoiq
p2
I1
s.(dp0
Vcyhtnrc
p1
I1
sVd1w7cbo
p2
I1
s.(dp0
Vcyhtnrc
p1
I1
sVd1weevv
p2
I1
s.(dp0
Vcyhtnrc
p1
I1
sVd1yqor6
p2
I1
s.(dp0
Vcyhtnrc
p1
I1
sVd212ynv
p2
I1
s.(dp0
Vcyhtnrc
p1
I1
sVd21kn0u
p2
I1
s.(dp0
Vcyhtnrc
p1
I1
sVd21kux0
p2
I1
s.(dp0
Vcyhtnrc
p1
I1
sVd237agc
p2
I1
s.(dp0
Vcyhtnrc
p1
I1
sVd237agc
p2
I1
s.(dp0
Vcyhtnrc
p1
I1
sVd23t0bq
p2
I1
s.(dp0
Vcyhtnrc
p1
I1
sVd247li0
p2
I1
s.(dp0
Vcyhtnrc
p1
I1
sVd256t9d
p2
I1
s.(dp0
Vcyhtnrc
p1
I1
sVd2bsnbl
p2
I1
s.(dp0
Vcy(dp0
Vcyhtnrc
p1
I1
sVdp1eery
p2
I1
s.