(dp0
Vcyxm3x2
p1
I1
s.(dp0
Vcyxm3x2
p1
I1
sVcyzg5xl
p2
I1
s.(dp0
Vcyxm3x2
p1
I1
sVcz1uz0c
p2
I1
s.(dp0
Vcyxm3x2
p1
I1
sVcz5p9f3
p2
I1
s.(dp0
Vcyxm3x2
p1
I1
sVczbna1g
p2
I1
s.(dp0
Vcyxm3x2
p1
I1
sVczduoo8
p2
I1
s.(dp0
Vczewecz
p1
I1
sVcyxm3x2
p2
I1
s.(dp0
Vcyxm3x2
p1
I1
sVczhbrsz
p2
I1
s.(dp0
Vcyxm3x2
p1
I1
sVcznv8rg
p2
I1
s.(dp0
Vcyxm3x2
p1
I1
sVczr2wml
p2
I1
s.(dp0
Vcyxm3x2
p1
I1
sVczsu12w
p2
I1
s.(dp0
Vd0558zs
p1
I1
sVcyxm3x2
p2
I1
s.(dp0
Vcyxm3x2
p1
I1
sVd05cxbv
p2
I1
s.(dp0
Vcyxm3x2
p1
I1
sVd0diant
p2
I1
s.(dp0
Vcyxm3x2
p1
I1
sVd0hveuu
p2
I1
s.(dp0
Vcyxm3x2
p1
I1
sVd0ii0l8
p2
I1
s.(dp0
Vcyxm3x2
p1
I1
sVd0jdc72
p2
I1
s.(dp0
Vcyxm3x2
p1
I1
sVd0rjems
p2
I1
s.(dp0
Vcyxm3x2
p1
I1
sVd18p4oj
p2
I1
s.(dp0
Vcyxm3x2
p1
I1
sVd18ralu
p2
I1
s.(dp0
Vcyxm3x2
p1
I1
sVd1bwxea
p2
I1
s.(dp0
Vcyxm3x2
p1
I1
sVd1bwxea
p2
I1
s.(dp0
Vcyxm3x2
p1
I1
sVd1hi2w3
p2
I1
s.(dp0
Vcyxm3x2
p1
I1
sVd1hi2w3
p2
I1
s.(dp0
Vcyxm3x2
p1
I1
sVd1hy0hu
p2
I1
s.(dp0
Vcyxm3x2
p1
I1
sVd1hy0hu
p2
I1
s.(dp0
Vcyxm3x2
p1
I1
sVd1r1ydl
p2
I1
s.(dp0
Vd1rwlip
p1
I1
sVcyxm3x2
p2
I1
s.(dp0
Vd1rwlip
p1
I1
sVcyxm3x2
p2
I1
s.(dp0
Vd1rwlip
p1
I1
sVcyxm3x2
p2
I1
s.(dp0
Vd1rwlip
p1
I1
sVcyxm3x2
p2
I1
s.(dp0
Vd1rwlip
p1
I1
sVcyxm3x2
p2
I1
s.(dp0
Vd1rwlip
p1
I1
sVcyxm3x2
p2
I1
s.(dp0
Vd1rwlip
p1
I1
sVcyxm3x2
p2
I1
s.(dp0
Vd1rwlip
p1
I1
sVcyxm3x2
p2
I1
s.(dp0
Vd1zcjif
p1
I1
sVcyxm3x2
p2
I1
s.(dp0
Vcyxm3x2
p1
I1
sVd1zm5kz
p2
I1
s.(dp0
Vcyxm3x2
p1
I1
sVd1zm5kz
p2
I1
s.(dp0
Vcyxm3x2
p1
I1
sVd2c1cjc
p2
I1
s.(dp0
Vcyxm3x2
p1
I1
sVd2cdqqw
p2
I1
s.(dp0
Vcyxm3x2
p1
I1
sVd2cdqqw
p2
I1
s.(dp0
Vcyxm3x2
p1
I1
sVd2f6u6g
p2
I1
s.(dp0
Vcyxm3x2
p1
I1
sVd2gf4bf
p2
I1
s.(dp0
Vcyxm3x2
p1
I1
sVd2lyfqh
p2
I1
s.(dp0
Vcyxm3x2
p1
I1
sVd2nsm7w
p2
I1
s.(dp0
Vcyxm3x2
p1
I1
sVd2pd58e
p2
I1
s.(dp0
Vcyxm3x2
p1
I1
sVd2pxk97
p2
I1
s.(dp0
Vcyxm3x2
p1
I1
sVd2s92zb
p2
I1
s.(dp0
Vd2wt4s3
p1
I1
sVcyxm3x2
p2
I1
s.(dp0
Vcyxm3x2
p1
I1
sVd33wg7v
p2
I1
s.(dp0
Vd3e7pw7
p1
I1
sVcyxm3x2
p2
I1
s.(dp0
Vcyxm3x2
p1
I1
sVd3jy1rz
p2
I1
s.(dp0
Vcyxm3x2
p1
I1
sVd3vdzz7
p2
I1
s.(dp0
Vd3ve6mv
p1
I1
sVcyxm3x2
p2
I1
s.(dp0
Vcyxm3x2
p1
I1
sVd43v98d
p2
I1
s.(dp0
Vcyxm3x2
p1
I1
sVd4a1fv0
p2
I1
s.(dp0
Vcyxm3x2
p1
I1
sVd4cah4p
p2
I1
s.(dp0
Vcyxm3x2
p1
I1
sVd4kryhl
p2
I1
s.(dp0
Vcyxm3x2
p1
I1
sVd4vx020
p2
I1
s.(dp0
Vcyxm3x2
p1
I1
sVd4ww10q
p2
I1
s.(dp0
Vcyxm3x2
p1
I1
sVd4xwkc5
p2
I1
s.(dp0
Vcyxm3x2
p1
I1
sVd5711xb
p2
I1
s.(dp0
Vcyxm3x2
p1
I1
sVd5711xb
p2
I1
s.(dp0
Vcyxm3x2
p1
I1
sVd5d4bzs
p2
I1
s.(dp0
Vd6h3yyz
p1
I1
sVcyxm3x2
p2
I1
s.(dp0
Vcyxm3x2
p1
I1
sVd70l14b
p2
I1
s.(dp0
Vcyxm3x2
p1
I1
sVd70l14b
p2
I1
s.(dp0
Vcyxm3x2
p1
I1
sVd70l14b
p2
I1
s.(dp0
Vcyxm3x2
p1
I1
sVd70l14b
p2
I1
s.(dp0
Vcyxm3x2
p1
I1
sVd718hbf
p2
I1
s.(dp0
Vcyxm3x2
p1
I1
sVd770zpa
p2
I1
s.(dp0
Vcyxm3x2
p1
I1
sVd7qkpnd
p2
I1
s.(dp0
Vcyxm3x2
p1
I1
sVd7qkpnd
p2
I1
s.(dp0
Vcyxm3x2
p1
I1
sVd7qkpnd
p2
I1
s.(dp0
Vcyxm3x2
p1
I1
sVd84uxj7
p2
I1
s.(dp0
Vcyxm3x2
p1
I1
sVd85o3j4
p2
I1
s.(dp0
Vcyxm3x2
p1
I1
sVd8pqjdb
p2
I1
s.(dp0
Vcyxm3x2
p1
I1
sVd8zxg9s
p2
I1
s.(dp0
Vcyxm3x2
p1
I1
sVd98z967
p2
I1
s.(dp0
Vda47avz
p1
I1
sVcyxm3x2
p2
I1
s.(dp0
Vcyxm3x2
p1
I1
sVda52lct
p2
I1
s.(dp0
Vcyxm3x2
p1
I1
sVda52lct
p2
I1
s.(dp0
Vcyxm3x2
p1
I1
sVdah6e2c
p2
I1
s.(dp0
Vcyxm3x2
p1
I1
sVday1dbe
p2
I1
s.(dp0
Vcyxm3x2
p1
I1
sVdbmp70v
p2
I1
s.(dp0
Vcyxm3x2
p1
I1
sVdbohf4w
p2
I1
s.(dp0
Vcyxm3x2
p1
I1
sVdbtvtap
p2
I1
s.(dp0
Vcyxm3x2
p1
I1
sVdc8b6is
p2
I1
s.(dp0
Vcyxm3x2
p1
I1
sVdcvzwdf
p2
I1
s.(dp0
Vcyxm3x2
p1
I1
sVdd2m2u9
p2
I1
s.(dp0
Vdd2m3wl
p1
I1
sVcyxm3x2
p2
I1
s.(dp0
Vdd2m3wl
p1
I1
sVcyxm3x2
p2
I1
s.(dp0
Vcyxm3x2
p1
I1
sVdd3ikf8
p2
I1
s.(dp0
Vcyxm3x2
p1
I1
sVdd96jgq
p2
I1
s.(dp0
Vcyxm3x2
p1
I1
sVdd96qis
p2
I1
s.(dp0
Vcyxm3x2
p1
I1
sVdd96qis
p2
I1
s.(dp0
Vcyxm3x2
p1
I1
sVdd96qis
p2
I1
s.(dp0
Vcyxm3x2
p1
I1
sVdd96qis
p2
I1
s.(dp0
Vcyxm3x2
p1
I1
sVdd96qis
p2
I1
s.(dp0
Vcyxm3x2
p1
I1
sVdd96qis
p2
I1
s.(dp0
Vcyxm3x2
p1
I1
sVdd9v7yq
p2
I1
s.(dp0
Vcyxm3x2
p1
I1
sVdda1l5m
p2
I1
s.(dp0
Vdda2cra
p1
I1
sVcyxm3x2
p2
I1
s.(dp0
Vdda2cra
p1
I1
sVcyxm3x2
p2
I1
s.(dp0
Vdda2cra
p1
I1
sVcyxm3x2
p2
I1
s.(dp0
Vdda2cra
p1
I1
sVcyxm3x2
p2
I1
s.(dp0
Vcyxm3x2
p1
I1
sVddbtxpv
p2
I1
s.(dp0
Vcyxm3x2
p1
I1
sVddbwqtt
p2
I1
s.(dp0
Vdd(dp0
Vcyxm3x2
p1
I1
sVdp2ddx0
p2
I1
s.