(dp0
Vcyjjb1s
p1
I1
s.(dp0
Vcyjjb1s
p1
I2
s.(dp0
Vcyjjb1s
p1
I1
sVcyknwo1
p2
I1
s.(dp0
Vcyjjb1s
p1
I1
sVcyl2sg6
p2
I1
s.(dp0
Vcyjjb1s
p1
I1
sVcyl2sg6
p2
I1
s.(dp0
Vcyjjb1s
p1
I1
sVcz66egq
p2
I1
s.(dp0
Vcyjjb1s
p1
I1
sVcz9iogi
p2
I1
s.(dp0
Vcz9iqiy
p1
I1
sVcyjjb1s
p2
I1
s.(dp0
Vcz9iqiy
p1
I1
sVcyjjb1s
p2
I1
s.(dp0
Vczi9ype
p1
I1
sVcyjjb1s
p2
I1
s.(dp0
Vcyjjb1s
p1
I1
sVd0ocwnw
p2
I1
s.(dp0
Vd0pi3ns
p1
I1
sVcyjjb1s
p2
I1
s.(dp0
Vd0su2e4
p1
I1
sVcyjjb1s
p2
I1
s.(dp0
Vcyjjb1s
p1
I1
sVd166bkn
p2
I1
s.(dp0
Vcyjjb1s
p1
I1
sVd1mr8uz
p2
I1
s.(dp0
Vcyjjb1s
p1
I1
sVd1p3sn7
p2
I1
s.(dp0
Vd1qk3z9
p1
I1
sVcyjjb1s
p2
I1
s.(dp0
Vd1qqgvx
p1
I1
sVcyjjb1s
p2
I1
s.(dp0
Vd253bad
p1
I1
sVcyjjb1s
p2
I1
s.(dp0
Vcyjjb1s
p1
I1
sVd26gflr
p2
I1
s.(dp0
Vd2cnbfx
p1
I1
sVcyjjb1s
p2
I1
s.(dp0
Vd2cnbfx
p1
I1
sVcyjjb1s
p2
I1
s.(dp0
Vd2ij37e
p1
I1
sVcyjjb1s
p2
I1
s.(dp0
Vcyjjb1s
p1
I1
sVd31b17k
p2
I1
s.(dp0
Vcyjjb1s
p1
I1
sVd31b17k
p2
I1
s.(dp0
Vcyjjb1s
p1
I1
sVd35645u
p2
I1
s.(dp0
Vd4zq33v
p1
I1
sVcyjjb1s
p2
I1
s.(dp0
Vd4zsktv
p1
I1
sVcyjjb1s
p2
I1
s.(dp0
Vd63mmeo
p1
I1
sVcyjjb1s
p2
I1
s.(dp0
Vd7f7lqn
p1
I1
sVcyjjb1s
p2
I1
s.(dp0
Vcyjjb1s
p1
I1
sVd7sm3ec
p2
I1
s.(dp0
Vd7suhro
p1
I1
sVcyjjb1s
p2
I1
s.(dp0
Vcyjjb1s
p1
I1
sVd7ztxbu
p2
I1
s.(dp0
Vd8305o8
p1
I1
sVcyjjb1s
p2
I1
s.(dp0
Vcyjjb1s
p1
I1
sVd8by270
p2
I1
s.(dp0
Vcyjjb1s
p1
I1
sVd8nrt60
p2
I1
s.(dp0
Vda0vhxl
p1
I1
sVcyjjb1s
p2
I1
s.(dp0
Vdadl8b0
p1
I1
sVcyjjb1s
p2
I1
s.(dp0
Vdahlkwx
p1
I1
sVcyjjb1s
p2
I1
s.(dp0
Vdahlkwx
p1
I1
sVcyjjb1s
p2
I1
s.(dp0
Vdbixehc
p1
I1
sVcyjjb1s
p2
I1
s.(dp0
Vdc06ck2
p1
I1
sVcyjjb1s
p2
I1
s.(dp0
Vdd9jh0m
p1
I1
sVcyjjb1s
p2
I1
s.(dp0
Vcyjjb1s
p1
I1
sVdf3l5r2
p2
I1
s.(dp0
Vcyjjb1s
p1
I1
sVdf3l5r2
p2
I1
s.(dp0
Vdfg8cdc
p1
I1
sVcyjjb1s
p2
I1
s.(dp0
Vdfg8cdc
p1
I1
sVcyjjb1s
p2
I1
s.(dp0
Vcyjjb1s
p1
I1
sVdfga271
p2
I1
s.(dp0
Vcyjjb1s
p1
I1
sVdfngysl
p2
I1
s.(dp0
Vdgy8wtg
p1
I1
sVcyjjb1s
p2
I1
s.(dp0
Vdjb6fr5
p1
I1
sVcyjjb1s
p2
I1
s.(dp0
Vdjqem9u
p1
I1
sVcyjjb1s
p2
I1
s.(dp0
Vdktwjqu
p1
I1
sVcyjjb1s
p2
I1
s.(dp0
Vdku5hrj
p1
I1
sVcyjjb1s
p2
I1
s.(dp0
Vcyjjb1s
p1
I1
sVdmfzus6
p2
I1
s.(dp0
Vdmm1s9z
p1
I1
sVcyjjb1s
p2
I1
s.