(dp0
Vd1bu0ol
p1
I1
s.(dp0
Vd1vurb1
p1
I1
sVd1bu0ol
p2
I1
s.(dp0
Vd1bu0ol
p1
I1
sVd6y02h7
p2
I1
s.(dp0
Vd6ydl5g
p1
I1
sVd1bu0ol
p2
I1
s.(dp0
Vd96y8xj
p1
I1
sVd1bu0ol
p2
I1
s.(dp0
Vd1bu0ol
p1
I1
sVdjiesot
p2
I1
s.