(dp0
Vcyo4t34
p1
I1
s.(dp0
Vcyo4t34
p1
I1
sVcyoqw9d
p2
I1
s.(dp0
Vcyo4t34
p1
I1
sVcypsp64
p2
I1
s.(dp0
Vcyo4t34
p1
I1
sVcyqzuiu
p2
I1
s.(dp0
Vcyo4t34
p1
I1
sVcyqzuiu
p2
I1
s.(dp0
Vcyvrorr
p1
I1
sVcyo4t34
p2
I1
s.(dp0
Vcyo4t34
p1
I1
sVcyxyuky
p2
I1
s.(dp0
Vcyo4t34
p1
I1
sVcyxyuky
p2
I1
s.(dp0
Vcyo4t34
p1
I1
sVcz2hva6
p2
I1
s.(dp0
Vcyo4t34
p1
I1
sVcz2hva6
p2
I1
s.(dp0
Vcyo4t34
p1
I1
sVcz2ti0x
p2
I1
s.(dp0
Vcyo4t34
p1
I1
sVcz5chaf
p2
I1
s.(dp0
Vcyo4t34
p1
I1
sVcz5chaf
p2
I1
s.(dp0
Vcyo4t34
p1
I1
sVcz5jyr0
p2
I1
s.(dp0
Vcyo4t34
p1
I1
sVcz7kaje
p2
I1
s.(dp0
Vcyo4t34
p1
I1
sVcze2z75
p2
I1
s.(dp0
Vcyo4t34
p1
I1
sVczhxbtc
p2
I1
s.(dp0
Vcyo4t34
p1
I1
sVczhxbtc
p2
I1
s.(dp0
Vcyo4t34
p1
I1
sVczjha70
p2
I1
s.(dp0
Vcyo4t34
p1
I1
sVcznmpj3
p2
I1
s.(dp0
Vcyo4t34
p1
I1
sVczt3569
p2
I1
s.(dp0
Vczwh2yp
p1
I1
sVcyo4t34
p2
I1
s.(dp0
Vcyo4t34
p1
I1
sVd03b0oj
p2
I1
s.(dp0
Vcyo4t34
p1
I1
sVd03wtsa
p2
I1
s.(dp0
Vcyo4t34
p1
I1
sVd067lxw
p2
I1
s.(dp0
Vd0734qz
p1
I1
sVcyo4t34
p2
I1
s.(dp0
Vd0734qz
p1
I1
sVcyo4t34
p2
I1
s.(dp0
Vcyo4t34
p1
I1
sVd07oxve
p2
I1
s.(dp0
Vcyo4t34
p1
I1
sVd07oxve
p2
I1
s.(dp0
Vd0c184g
p1
I1
sVcyo4t34
p2
I1
s.(dp0
Vcyo4t34
p1
I1
sVd0c1wkf
p2
I1
s.(dp0
Vcyo4t34
p1
I1
sVd0gwl79
p2
I1
s.(dp0
Vcyo4t34
p1
I1
sVd0nzkar
p2
I1
s.(dp0
Vcyo4t34
p1
I1
sVd0ocwnw
p2
I1
s.(dp0
Vcyo4t34
p1
I1
sVd0sjd8l
p2
I1
s.(dp0
Vcyo4t34
p1
I1
sVd0sqm6b
p2
I1
s.(dp0
Vcyo4t34
p1
I1
sVd0tn3lu
p2
I1
s.(dp0
Vcyo4t34
p1
I1
sVd0v3jst
p2
I1
s.(dp0
Vcyo4t34
p1
I1
sVd0y3u1w
p2
I1
s.(dp0
Vcyo4t34
p1
I1
sVd15usm3
p2
I1
s.(dp0
Vcyo4t34
p1
I1
sVd18v2p0
p2
I1
s.(dp0
Vcyo4t34
p1
I1
sVd19rd6f
p2
I1
s.(dp0
Vcyo4t34
p1
I1
sVd19rd6f
p2
I1
s.(dp0
Vcyo4t34
p1
I1
sVd19rd6f
p2
I1
s.(dp0
Vcyo4t34
p1
I1
sVd19rd6f
p2
I1
s.(dp0
Vcyo4t34
p1
I1
sVd1hsnq4
p2
I1
s.(dp0
Vcyo4t34
p1
I1
sVd1j48rf
p2
I1
s.(dp0
Vcyo4t34
p1
I1
sVd1req67
p2
I1
s.(dp0
Vcyo4t34
p1
I1
sVd1req67
p2
I1
s.(dp0
Vcyo4t34
p1
I1
sVd1req67
p2
I1
s.(dp0
Vcyo4t34
p1
I1
sVd1tshb8
p2
I1
s.(dp0
Vcyo4t34
p1
I1
sVd1ynmu6
p2
I1
s.(dp0
Vcyo4t34
p1
I1
sVd23ex3c
p2
I1
s.(dp0
Vd277efd
p1
I1
sVcyo4t34
p2
I1
s.(dp0
Vcyo4t34
p1
I1
sVd2imt0r
p2
I1
s.(dp0
Vcyo4t34
p1
I1
sVd2imt0r
p2
I1
s.(dp0
Vcyo4t34
p1
I1
sVd2imt0r
p2
I1
s.(dp0
Vcyo4t34
p1
I1
sVd2imt0r
p2
I1
s.(dp0
Vcyo4t34
p1
I1
sVd2imt0r
p2
I1
s.(dp0
Vcyo4t34
p1
I1
sVd2imt0r
p2
I1
s.(dp0
Vcyo4t34
p1
I1
sVd2imt0r
p2
I1
s.(dp0
Vcyo4t34
p1
I1
sVd2imt0r
p2
I1
s.(dp0
Vcyo4t34
p1
I1
sVd2imt0r
p2
I1
s.(dp0
Vcyo4t34
p1
I1
sVd2imt0r
p2
I1
s.(dp0
Vcyo4t34
p1
I1
sVd2imt0r
p2
I1
s.(dp0
Vcyo4t34
p1
I1
sVd2imt0r
p2
I1
s.(dp0
Vcyo4t34
p1
I1
sVd2jxqo0
p2
I1
s.(dp0
Vcyo4t34
p1
I1
sVd2m1mol
p2
I1
s.(dp0
Vcyo4t34
p1
I1
sVd2m1mol
p2
I1
s.(dp0
Vcyo4t34
p1
I1
sVd2m1mol
p2
I1
s.(dp0
Vcyo4t34
p1
I1
sVd2m1mol
p2
I1
s.(dp0
Vcyo4t34
p1
I1
sVd2pvhav
p2
I1
s.(dp0
Vcyo4t34
p1
I1
sVd2px7vn
p2
I1
s.(dp0
Vcyo4t34
p1
I1
sVd2r4ar2
p2
I1
s.(dp0
Vd2s8tnt
p1
I1
sVcyo4t34
p2
I1
s.(dp0
Vcyo4t34
p1
I1
sVd2zhj6m
p2
I1
s.(dp0
Vcyo4t34
p1
I1
sVd2zhj6m
p2
I1
s.(dp0
Vcyo4t34
p1
I1
sVd2zhj6m
p2
I1
s.(dp0
Vcyo4t34
p1
I1
sVd2znvtc
p2
I1
s.(dp0
Vcyo4t34
p1
I1
sVd35oz9b
p2
I1
s.(dp0
Vcyo4t34
p1
I1
sVd37th8f
p2
I1
s.(dp0
Vcyo4t34
p1
I1
sVd37th8f
p2
I1
s.(dp0
Vcyo4t34
p1
I1
sVd3enc23
p2
I1
s.(dp0
Vd3glsfl
p1
I1
sVcyo4t34
p2
I1
s.(dp0
Vd3glsfl
p1
I1
sVcyo4t34
p2
I1
s.(dp0
Vd3glsfl
p1
I1
sVcyo4t34
p2
I1
s.(dp0
Vcyo4t34
p1
I1
sVd3hc778
p2
I1
s.(dp0
Vcyo4t34
p1
I1
sVd3hc778
p2
I1
s.(dp0
Vcyo4t34
p1
I1
sVd3hc778
p2
I1
s.(dp0
Vcyo4t34
p1
I1
sVd3hc778
p2
I1
s.(dp0
Vcyo4t34
p1
I1
sVd3j05qt
p2
I1
s.(dp0
Vcyo4t34
p1
I1
sVd3rehhr
p2
I1
s.(dp0
Vcyo4t34
p1
I1
sVd3rqz0z
p2
I1
s.(dp0
Vcyo4t34
p1
I1
sVd3wltxs
p2
I1
s.(dp0
Vcyo4t34
p1
I1
sVd40b6ty
p2
I1
s.(dp0
Vcyo4t34
p1
I1
sVd478791
p2
I1
s.(dp0
Vcyo4t34
p1
I1
sVd4bsn94
p2
I1
s.(dp0
Vcyo4t34
p1
I1
sVd4bu1ze
p2
I1
s.(dp0
Vcyo4t34
p1
I1
sVd4bu1ze
p2
I1
s.(dp0
Vcyo4t34
p1
I1
sVd4fhd0q
p2
I1
s.(dp0
Vcyo4t34
p1
I1
sVd4fhd0q
p2
I1
s.(dp0
Vcyo4t34
p1
I1
sVd4fhd0q
p2
I1
s.(dp0
Vcyo4t34
p1
I1
sVd4fhd0q
p2
I1
s.(dp0
Vcyo4t34
p1
I1
sVd4gw8n8
p2
I1
s.(dp0
Vcyo4t34
p1
I1
sVd4gw8n8
p2
I1
s.(dp0
Vcyo4t34
p1
I1
sVd4ifxvd
p2
I1
s.(dp0
Vcyo4t34
p1
I1
sVd4jcwhd
p2
I1
s.(dp0
Vd4opsjm
p1
I1
sVcyo4t34
p2
I1
s.(dp0
Vcy(dp0
Vdkutygo
p1
I1
sVcyo4t34
p2
I1
s.