(dp0
Vcyhvmc5
p1
I1
s.(dp0
Vcyhvmc5
p1
I2
s.(dp0
Vcyhvmc5
p1
I1
sVcyi5koz
p2
I1
s.(dp0
Vcyhvmc5
p1
I1
sVcyidu39
p2
I1
s.(dp0
Vcyhvmc5
p1
I1
sVcyie1j1
p2
I1
s.(dp0
Vcyhvmc5
p1
I1
sVcyilw51
p2
I1
s.(dp0
Vcyhvmc5
p1
I1
sVcyiojhx
p2
I1
s.(dp0
Vcyhvmc5
p1
I1
sVcyis0p9
p2
I1
s.(dp0
Vcyhvmc5
p1
I1
sVcyismi6
p2
I1
s.(dp0
Vcyhvmc5
p1
I1
sVcyiss9z
p2
I1
s.(dp0
Vcyhvmc5
p1
I1
sVcyiuyk3
p2
I1
s.(dp0
Vcyhvmc5
p1
I1
sVcyiz4x2
p2
I1
s.(dp0
Vcyhvmc5
p1
I1
sVcyjcrw2
p2
I1
s.(dp0
Vcyhvmc5
p1
I1
sVcyje5xn
p2
I1
s.(dp0
Vcyhvmc5
p1
I1
sVcyjh54a
p2
I1
s.(dp0
Vcyhvmc5
p1
I1
sVcyjifir
p2
I1
s.(dp0
Vcyhvmc5
p1
I1
sVcyjp4f2
p2
I1
s.(dp0
Vcyhvmc5
p1
I1
sVcyjp5yv
p2
I1
s.(dp0
Vcyhvmc5
p1
I1
sVcyjq2bc
p2
I1
s.(dp0
Vcyhvmc5
p1
I1
sVcyjsdd2
p2
I1
s.(dp0
Vcyhvmc5
p1
I1
sVcyjv5pm
p2
I1
s.(dp0
Vcyhvmc5
p1
I1
sVcyk4cf5
p2
I1
s.(dp0
Vcyhvmc5
p1
I1
sVcyk4cf5
p2
I1
s.(dp0
Vcyhvmc5
p1
I1
sVcyk81gs
p2
I1
s.(dp0
Vcyhvmc5
p1
I1
sVcykc53v
p2
I1
s.(dp0
Vcyhvmc5
p1
I1
sVcykdn04
p2
I1
s.(dp0
Vcyhvmc5
p1
I1
sVcykhwyw
p2
I1
s.(dp0
Vcyhvmc5
p1
I1
sVcykjmkc
p2
I1
s.(dp0
Vcyhvmc5
p1
I1
sVcykmixr
p2
I1
s.(dp0
Vcyhvmc5
p1
I1
sVcyknnm2
p2
I1
s.(dp0
Vcyhvmc5
p1
I1
sVcyl2dtb
p2
I1
s.(dp0
Vcyhvmc5
p1
I1
sVcyl831e
p2
I1
s.(dp0
Vcyhvmc5
p1
I1
sVcylbofo
p2
I1
s.(dp0
Vcyhvmc5
p1
I1
sVcylf6j3
p2
I1
s.(dp0
Vcyhvmc5
p1
I1
sVcyli4o2
p2
I1
s.(dp0
Vcyhvmc5
p1
I1
sVcylixp0
p2
I1
s.(dp0
Vcyhvmc5
p1
I1
sVcylkpmb
p2
I1
s.(dp0
Vcyhvmc5
p1
I1
sVcyllh6f
p2
I1
s.(dp0
Vcyhvmc5
p1
I1
sVcylpv0n
p2
I1
s.(dp0
Vcyhvmc5
p1
I1
sVcylpv0n
p2
I1
s.(dp0
Vcyhvmc5
p1
I1
sVcylpv0n
p2
I1
s.(dp0
Vcyhvmc5
p1
I1
sVcylst1k
p2
I1
s.(dp0
Vcyhvmc5
p1
I1
sVcymill9
p2
I1
s.(dp0
Vcyhvmc5
p1
I1
sVcymjf4o
p2
I1
s.(dp0
Vcyhvmc5
p1
I1
sVcymk38d
p2
I1
s.(dp0
Vcyhvmc5
p1
I1
sVcymkyy5
p2
I1
s.(dp0
Vcyhvmc5
p1
I1
sVcyml3vr
p2
I1
s.(dp0
Vcyhvmc5
p1
I1
sVcymru9t
p2
I1
s.(dp0
Vcyhvmc5
p1
I1
sVcymx7p9
p2
I1
s.(dp0
Vcyhvmc5
p1
I1
sVcyn7nc0
p2
I1
s.(dp0
Vcyhvmc5
p1
I1
sVcyn8tqk
p2
I1
s.(dp0
Vcyhvmc5
p1
I1
sVcynf05v
p2
I1
s.(dp0
Vcyhvmc5
p1
I1
sVcynfxsd
p2
I1
s.(dp0
Vcyhvmc5
p1
I1
sVcyniz5h
p2
I1
s.(dp0
Vcyhvmc5
p1
I1
sVcynkvzd
p2
I1
s.(dp0
Vcyhvmc5
p1
I1
sVcynt7am
p2
I1
s.(dp0
Vcyhvmc5
p1
I1
sVcyo25yv
p2
I1
s.(dp0
Vcyhvmc5
p1
I1
sVcyom77h
p2
I1
s.(dp0
Vcyhvmc5
p1
I1
sVcyow7ea
p2
I1
s.(dp0
Vcyhvmc5
p1
I1
sVcyow7ea
p2
I1
s.(dp0
Vcyhvmc5
p1
I1
sVcyp04dd
p2
I1
s.(dp0
Vcyhvmc5
p1
I1
sVcyp0miq
p2
I1
s.(dp0
Vcyhvmc5
p1
I1
sVcypljq9
p2
I1
s.(dp0
Vcyhvmc5
p1
I1
sVcypljq9
p2
I1
s.(dp0
Vcyhvmc5
p1
I1
sVcyptwbi
p2
I1
s.(dp0
Vcyhvmc5
p1
I1
sVcypuaj0
p2
I1
s.(dp0
Vcyhvmc5
p1
I1
sVcypx9bf
p2
I1
s.(dp0
Vcyhvmc5
p1
I1
sVcyq1jt6
p2
I1
s.(dp0
Vcyhvmc5
p1
I1
sVcyq653x
p2
I1
s.(dp0
Vcyhvmc5
p1
I1
sVcyq8x7m
p2
I1
s.(dp0
Vcyhvmc5
p1
I1
sVcyq8x7m
p2
I1
s.(dp0
Vcyhvmc5
p1
I1
sVcyqfef1
p2
I1
s.(dp0
Vcyhvmc5
p1
I1
sVcyqhl5d
p2
I1
s.(dp0
Vcyhvmc5
p1
I1
sVcyqocoi
p2
I1
s.(dp0
Vcyhvmc5
p1
I1
sVcyqqelz
p2
I1
s.(dp0
Vcyhvmc5
p1
I1
sVcyqsvvb
p2
I1
s.(dp0
Vcyhvmc5
p1
I1
sVcyqsvvb
p2
I1
s.(dp0
Vcyhvmc5
p1
I1
sVcyr03qu
p2
I1
s.(dp0
Vcyhvmc5
p1
I1
sVcyr30gt
p2
I1
s.(dp0
Vcyhvmc5
p1
I1
sVcyr3e1d
p2
I1
s.(dp0
Vcyhvmc5
p1
I1
sVcyrasl3
p2
I1
s.(dp0
Vcyhvmc5
p1
I1
sVcyravso
p2
I1
s.(dp0
Vcyhvmc5
p1
I1
sVcyrdka0
p2
I1
s.(dp0
Vcyhvmc5
p1
I1
sVcyrg0df
p2
I1
s.(dp0
Vcyhvmc5
p1
I1
sVcyrij2v
p2
I1
s.(dp0
Vcyhvmc5
p1
I1
sVcyro99i
p2
I1
s.(dp0
Vcyhvmc5
p1
I1
sVcyrvasz
p2
I1
s.(dp0
Vcyhvmc5
p1
I1
sVcyrx5mk
p2
I1
s.(dp0
Vcyhvmc5
p1
I1
sVcys2vo2
p2
I1
s.(dp0
Vcyhvmc5
p1
I1
sVcys9eq0
p2
I1
s.(dp0
Vcyhvmc5
p1
I1
sVcys9eq0
p2
I1
s.(dp0
Vcyhvmc5
p1
I1
sVcyse4t9
p2
I1
s.(dp0
Vcyhvmc5
p1
I1
sVcysfnub
p2
I1
s.(dp0
Vcyhvmc5
p1
I1
sVcysgg3r
p2
I1
s.(dp0
Vcyhvmc5
p1
I1
sVcysildf
p2
I1
s.(dp0
Vcyhvmc5
p1
I1
sVcysj854
p2
I1
s.(dp0
Vcyhvmc5
p1
I1
sVcysjq6g
p2
I1
s.(dp0
Vcyhvmc5
p1
I1
sVcyslop6
p2
I1
s.(dp0
Vcyhvmc5
p1
I1
sVcysnwwz
p2
I1
s.(dp0
Vcyhvmc5
p1
I1
sVcysxagi
p2
I1
s.(dp0
Vcyhvmc5
p1
I1
sVcyt0b73
p2
I1
s.(dp0
Vcyhvmc5
p1
I1
sVcyt2mug
p2
I1
s.(dp0
Vcyhvmc5
p1
I1
sVcyt550a
p2
I1
s.(dp0
Vcyhvmc5
p1
I1
sVcytoihw
p2
I1
s.(dp0
Vcyhvmc5
p1
I1
sVcytslp2
p2
I1
s.(dp0
Vcyhvmc5
p1
I1
sVcyty9tc
p2
I1
s.(dp0
Vcyhvmc5
p1
I1
sVcyty9tc
p2
I1
s.(dp0
Vcyhvmc5
p1
I1
sVcyu2fwl
p2
I1
s.(dp0
Vcyhvmc5
p1
I1
sVcy(dp0
Vcyhvmc5
p1
I1
sVdkzdza6
p2
I1
s.