(dp0
Vd1d47lp
p1
I1
s.(dp0
Vd1d47lp
p1
I1
sVd2q8rn4
p2
I1
s.(dp0
Vd4ieujk
p1
I1
sVd1d47lp
p2
I1
s.(dp0
Vd1d47lp
p1
I1
sVdaxobl0
p2
I1
s.(dp0
Vd1d47lp
p1
I1
sVdb3seeo
p2
I1
s.(dp0
Vd1d47lp
p1
I1
sVdbl9v2u
p2
I1
s.(dp0
Vdbnypp8
p1
I1
sVd1d47lp
p2
I1
s.(dp0
Vd1d47lp
p1
I1
sVddbv7jg
p2
I1
s.(dp0
Vdemsoir
p1
I1
sVd1d47lp
p2
I1
s.(dp0
Vd1d47lp
p1
I1
sVdesglal
p2
I1
s.(dp0
Vd1d47lp
p1
I1
sVdhhe7y4
p2
I1
s.(dp0
Vdjy39p2
p1
I1
sVd1d47lp
p2
I1
s.