(dp0
Vcyhtwr3
p1
I1
s.(dp0
Vcykzqze
p1
I1
sVcyhtwr3
p2
I1
s.(dp0
Vcyhtwr3
p1
I1
sVcyl2sg6
p2
I1
s.(dp0
Vcyn45sa
p1
I1
sVcyhtwr3
p2
I1
s.(dp0
Vcyhtwr3
p1
I1
sVcysbqfb
p2
I1
s.(dp0
Vcyv12f6
p1
I1
sVcyhtwr3
p2
I1
s.(dp0
Vcyhtwr3
p1
I1
sVcz32zet
p2
I1
s.(dp0
Vcz3o9vn
p1
I1
sVcyhtwr3
p2
I1
s.(dp0
Vcyhtwr3
p1
I1
sVcz5i1e4
p2
I1
s.(dp0
Vcyhtwr3
p1
I1
sVcz9iogi
p2
I1
s.(dp0
Vcyhtwr3
p1
I1
sVczarwpq
p2
I1
s.(dp0
Vczc9lhg
p1
I1
sVcyhtwr3
p2
I1
s.(dp0
Vcyhtwr3
p1
I1
sVczccuvz
p2
I1
s.(dp0
Vczdp7ak
p1
I1
sVcyhtwr3
p2
I1
s.(dp0
Vcyhtwr3
p1
I1
sVczfn3fj
p2
I1
s.(dp0
Vczh2yzr
p1
I1
sVcyhtwr3
p2
I1
s.(dp0
Vcziqsre
p1
I1
sVcyhtwr3
p2
I1
s.(dp0
Vcyhtwr3
p1
I1
sVczlgwfa
p2
I1
s.(dp0
Vczomelq
p1
I1
sVcyhtwr3
p2
I1
s.(dp0
Vczrc7rx
p1
I1
sVcyhtwr3
p2
I1
s.(dp0
Vczuho79
p1
I1
sVcyhtwr3
p2
I1
s.(dp0
Vcyhtwr3
p1
I1
sVczwz6rz
p2
I1
s.(dp0
Vcyhtwr3
p1
I1
sVczwz6rz
p2
I1
s.(dp0
Vd009hqh
p1
I1
sVcyhtwr3
p2
I1
s.(dp0
Vcyhtwr3
p1
I1
sVd009lnw
p2
I1
s.(dp0
Vcyhtwr3
p1
I1
sVd00h6so
p2
I1
s.(dp0
Vcyhtwr3
p1
I1
sVd00h6so
p2
I1
s.(dp0
Vcyhtwr3
p1
I1
sVd00h6so
p2
I1
s.(dp0
Vcyhtwr3
p1
I1
sVd07snk1
p2
I1
s.(dp0
Vcyhtwr3
p1
I1
sVd07snk1
p2
I1
s.(dp0
Vd08amjr
p1
I1
sVcyhtwr3
p2
I1
s.(dp0
Vcyhtwr3
p1
I1
sVd09mj42
p2
I1
s.(dp0
Vd0bbccb
p1
I1
sVcyhtwr3
p2
I1
s.(dp0
Vd0et2s1
p1
I1
sVcyhtwr3
p2
I1
s.(dp0
Vd0f6n7c
p1
I1
sVcyhtwr3
p2
I1
s.(dp0
Vcyhtwr3
p1
I1
sVd0hta6m
p2
I1
s.(dp0
Vcyhtwr3
p1
I1
sVd0li05e
p2
I1
s.(dp0
Vd0mybj7
p1
I1
sVcyhtwr3
p2
I1
s.(dp0
Vd0o3l23
p1
I1
sVcyhtwr3
p2
I1
s.(dp0
Vd0pgoh0
p1
I1
sVcyhtwr3
p2
I1
s.(dp0
Vd0r4zxm
p1
I1
sVcyhtwr3
p2
I1
s.(dp0
Vd0s7c7e
p1
I1
sVcyhtwr3
p2
I1
s.(dp0
Vd0yyfhk
p1
I1
sVcyhtwr3
p2
I1
s.(dp0
Vd12d47o
p1
I1
sVcyhtwr3
p2
I1
s.(dp0
Vd131jfe
p1
I1
sVcyhtwr3
p2
I1
s.(dp0
Vd16d0vm
p1
I1
sVcyhtwr3
p2
I1
s.(dp0
Vd17zfyn
p1
I1
sVcyhtwr3
p2
I1
s.(dp0
Vd18ufg9
p1
I1
sVcyhtwr3
p2
I1
s.(dp0
Vd19xwqp
p1
I1
sVcyhtwr3
p2
I1
s.(dp0
Vcyhtwr3
p1
I1
sVd1asz3i
p2
I1
s.(dp0
Vcyhtwr3
p1
I1
sVd1g5i6m
p2
I1
s.(dp0
Vd1kz4xr
p1
I1
sVcyhtwr3
p2
I1
s.(dp0
Vd1lu5n0
p1
I1
sVcyhtwr3
p2
I1
s.(dp0
Vd1lu5n0
p1
I1
sVcyhtwr3
p2
I1
s.(dp0
Vd1me6az
p1
I1
sVcyhtwr3
p2
I1
s.(dp0
Vd1oqhmq
p1
I1
sVcyhtwr3
p2
I1
s.(dp0
Vd1p17va
p1
I1
sVcyhtwr3
p2
I1
s.(dp0
Vcyhtwr3
p1
I1
sVd1p1s7t
p2
I1
s.(dp0
Vd1qqyk4
p1
I1
sVcyhtwr3
p2
I1
s.(dp0
Vd1rp2nf
p1
I1
sVcyhtwr3
p2
I1
s.(dp0
Vcyhtwr3
p1
I1
sVd1x5f98
p2
I1
s.(dp0
Vd1zegqs
p1
I1
sVcyhtwr3
p2
I1
s.(dp0
Vd1zegqs
p1
I1
sVcyhtwr3
p2
I1
s.(dp0
Vcyhtwr3
p1
I1
sVd1zj4qq
p2
I1
s.(dp0
Vcyhtwr3
p1
I1
sVd20cdgx
p2
I1
s.(dp0
Vd222tqv
p1
I1
sVcyhtwr3
p2
I1
s.(dp0
Vd25nftf
p1
I1
sVcyhtwr3
p2
I1
s.(dp0
Vcyhtwr3
p1
I1
sVd28sswc
p2
I1
s.(dp0
Vd29l4rn
p1
I1
sVcyhtwr3
p2
I1
s.(dp0
Vd2a6po5
p1
I1
sVcyhtwr3
p2
I1
s.(dp0
Vd2gtueo
p1
I1
sVcyhtwr3
p2
I1
s.(dp0
Vd2lg071
p1
I1
sVcyhtwr3
p2
I1
s.(dp0
Vcyhtwr3
p1
I1
sVd2p2oen
p2
I1
s.(dp0
Vcyhtwr3
p1
I1
sVd2q7b0z
p2
I1
s.(dp0
Vd2t2fae
p1
I1
sVcyhtwr3
p2
I1
s.(dp0
Vd2t3erg
p1
I1
sVcyhtwr3
p2
I1
s.(dp0
Vcyhtwr3
p1
I1
sVd2umknd
p2
I1
s.(dp0
Vcyhtwr3
p1
I1
sVd311jfi
p2
I1
s.(dp0
Vcyhtwr3
p1
I1
sVd33juk6
p2
I1
s.(dp0
Vd356rkj
p1
I1
sVcyhtwr3
p2
I1
s.(dp0
Vd3i40sm
p1
I1
sVcyhtwr3
p2
I1
s.(dp0
Vd3opo06
p1
I1
sVcyhtwr3
p2
I1
s.(dp0
Vd3orqf8
p1
I1
sVcyhtwr3
p2
I1
s.(dp0
Vcyhtwr3
p1
I1
sVd3pihnb
p2
I1
s.(dp0
Vcyhtwr3
p1
I1
sVd3rffvc
p2
I1
s.(dp0
Vd3ymmtt
p1
I1
sVcyhtwr3
p2
I1
s.(dp0
Vd3zo4xd
p1
I1
sVcyhtwr3
p2
I1
s.(dp0
Vd41e5o5
p1
I1
sVcyhtwr3
p2
I1
s.(dp0
Vd42g9zg
p1
I1
sVcyhtwr3
p2
I1
s.(dp0
Vcyhtwr3
p1
I1
sVd42nmgz
p2
I1
s.(dp0
Vd44wte5
p1
I1
sVcyhtwr3
p2
I1
s.(dp0
Vd45x4be
p1
I1
sVcyhtwr3
p2
I1
s.(dp0
Vd47ig8f
p1
I1
sVcyhtwr3
p2
I1
s.(dp0
Vd47ig8f
p1
I1
sVcyhtwr3
p2
I1
s.(dp0
Vcyhtwr3
p1
I1
sVd484vvj
p2
I1
s.(dp0
Vcyhtwr3
p1
I1
sVd492ota
p2
I1
s.(dp0
Vcyhtwr3
p1
I1
sVd4eodvo
p2
I1
s.(dp0
Vd4i8so6
p1
I1
sVcyhtwr3
p2
I1
s.(dp0
Vcyhtwr3
p1
I1
sVd4kyor4
p2
I1
s.(dp0
Vd4mpbpq
p1
I1
sVcyhtwr3
p2
I1
s.(dp0
Vcyhtwr3
p1
I1
sVd4o4un6
p2
I1
s.(dp0
Vd4r9i2u
p1
I1
sVcyhtwr3
p2
I1
s.(dp0
Vd4zq33v
p1
I1
sVcyhtwr3
p2
I1
s.(dp0
Vd4zsktv
p1
I1
sVcyhtwr3
p2
I1
s.(dp0
Vcyhtwr3
p1
I1
sVd54lef4
p2
I1
s.(dp0
Vd55y71n
p1
I1
sVcyhtwr3
p2
I1
s.(dp0
Vcyhtwr3
p1
I1
sVd5ghvdg
p2
I1
s.(dp0
Vcyhtwr3
p1
I1
sVd5mgmrm
p2
I1
s.(dp0
Vcy(dp0
Vdkue1yg
p1
I1
sVcyhtwr3
p2
I1
s.