(dp0
Vcyju54w
p1
I1
s.(dp0
Vcyju54w
p1
I2
s.(dp0
Vcyju54w
p1
I2
s.(dp0
Vcyju54w
p1
I1
sVcz0qp9z
p2
I1
s.(dp0
Vcyju54w
p1
I1
sVczgkhbd
p2
I1
s.(dp0
Vcyju54w
p1
I1
sVczks2e4
p2
I1
s.(dp0
Vcyju54w
p1
I1
sVcznxzn6
p2
I1
s.(dp0
Vcyju54w
p1
I1
sVcznxzn6
p2
I1
s.(dp0
Vcyju54w
p1
I1
sVcznxzn6
p2
I1
s.(dp0
Vcyju54w
p1
I1
sVcznxzn6
p2
I1
s.(dp0
Vcyju54w
p1
I1
sVcznxzn6
p2
I1
s.(dp0
Vcyju54w
p1
I1
sVcznxzn6
p2
I1
s.(dp0
Vcyju54w
p1
I1
sVcznxzn6
p2
I1
s.(dp0
Vcyju54w
p1
I1
sVczr08kl
p2
I1
s.(dp0
Vcyju54w
p1
I1
sVd02b08j
p2
I1
s.(dp0
Vcyju54w
p1
I1
sVd04e8gh
p2
I1
s.(dp0
Vcyju54w
p1
I1
sVd07799f
p2
I1
s.(dp0
Vcyju54w
p1
I1
sVd0emkv8
p2
I1
s.(dp0
Vcyju54w
p1
I1
sVd0ipdlp
p2
I1
s.(dp0
Vcyju54w
p1
I1
sVd0jfq41
p2
I1
s.(dp0
Vcyju54w
p1
I1
sVd0ozkf5
p2
I1
s.(dp0
Vcyju54w
p1
I1
sVd0qmssa
p2
I1
s.(dp0
Vcyju54w
p1
I1
sVd0sscsj
p2
I1
s.(dp0
Vcyju54w
p1
I1
sVd0uo3d5
p2
I1
s.(dp0
Vcyju54w
p1
I1
sVd0z3z99
p2
I1
s.(dp0
Vcyju54w
p1
I1
sVd1229c1
p2
I1
s.(dp0
Vcyju54w
p1
I1
sVd14iqd4
p2
I1
s.(dp0
Vcyju54w
p1
I1
sVd1rhdfv
p2
I1
s.(dp0
Vcyju54w
p1
I1
sVd1y6w6g
p2
I1
s.(dp0
Vcyju54w
p1
I1
sVd292gqu
p2
I1
s.(dp0
Vcyju54w
p1
I1
sVd2aaqxq
p2
I1
s.(dp0
Vcyju54w
p1
I1
sVd2ph0w2
p2
I1
s.(dp0
Vcyju54w
p1
I1
sVd34tban
p2
I1
s.(dp0
Vcyju54w
p1
I1
sVd3a6zqs
p2
I1
s.(dp0
Vcyju54w
p1
I1
sVd3b8pe9
p2
I1
s.(dp0
Vcyju54w
p1
I1
sVd3pr0ct
p2
I1
s.(dp0
Vcyju54w
p1
I1
sVd44n9qt
p2
I1
s.(dp0
Vcyju54w
p1
I1
sVd44zqk2
p2
I1
s.(dp0
Vcyju54w
p1
I1
sVd4668ji
p2
I1
s.(dp0
Vcyju54w
p1
I1
sVd4bsh9u
p2
I1
s.(dp0
Vcyju54w
p1
I1
sVd5ubjw6
p2
I1
s.(dp0
Vcyju54w
p1
I1
sVd6cfx1i
p2
I1
s.(dp0
Vcyju54w
p1
I1
sVd6hh1m0
p2
I1
s.(dp0
Vcyju54w
p1
I1
sVd6ip6ht
p2
I1
s.(dp0
Vcyju54w
p1
I1
sVd6nlvdg
p2
I1
s.(dp0
Vcyju54w
p1
I1
sVd75um0g
p2
I1
s.(dp0
Vcyju54w
p1
I1
sVd7myhnp
p2
I1
s.(dp0
Vcyju54w
p1
I1
sVd7px9lw
p2
I1
s.(dp0
Vcyju54w
p1
I1
sVd7xn7rj
p2
I1
s.(dp0
Vcyju54w
p1
I1
sVd84vg2j
p2
I1
s.(dp0
Vcyju54w
p1
I1
sVd84xqk8
p2
I1
s.(dp0
Vcyju54w
p1
I1
sVd8i27jg
p2
I1
s.(dp0
Vcyju54w
p1
I1
sVd8l3098
p2
I1
s.(dp0
Vcyju54w
p1
I1
sVd8l3098
p2
I1
s.(dp0
Vcyju54w
p1
I1
sVd8l5rmq
p2
I1
s.(dp0
Vcyju54w
p1
I1
sVd8tpaoh
p2
I1
s.(dp0
Vcyju54w
p1
I1
sVd93cqbe
p2
I1
s.(dp0
Vcyju54w
p1
I1
sVd97fcri
p2
I1
s.(dp0
Vcyju54w
p1
I1
sVd97m6mo
p2
I1
s.(dp0
Vcyju54w
p1
I1
sVd9hi7pq
p2
I1
s.(dp0
Vcyju54w
p1
I1
sVd9io8jk
p2
I1
s.(dp0
Vcyju54w
p1
I1
sVd9zujml
p2
I1
s.(dp0
Vcyju54w
p1
I1
sVda927un
p2
I1
s.(dp0
Vcyju54w
p1
I1
sVdaimf2s
p2
I1
s.(dp0
Vcyju54w
p1
I1
sVdb00bn6
p2
I1
s.(dp0
Vcyju54w
p1
I1
sVdb3shfm
p2
I1
s.(dp0
Vcyju54w
p1
I1
sVdb40ryj
p2
I1
s.(dp0
Vcyju54w
p1
I1
sVdbe4w32
p2
I1
s.(dp0
Vcyju54w
p1
I1
sVdbgobhr
p2
I1
s.(dp0
Vcyju54w
p1
I1
sVdbjoii3
p2
I1
s.(dp0
Vcyju54w
p1
I1
sVdbjruwd
p2
I1
s.(dp0
Vcyju54w
p1
I1
sVdcf256w
p2
I1
s.(dp0
Vcyju54w
p1
I1
sVdcufu74
p2
I1
s.(dp0
Vcyju54w
p1
I1
sVdcumi41
p2
I1
s.(dp0
Vcyju54w
p1
I1
sVdcumi41
p2
I1
s.(dp0
Vcyju54w
p1
I1
sVdcumi41
p2
I1
s.(dp0
Vcyju54w
p1
I1
sVddx4pul
p2
I1
s.(dp0
Vcyju54w
p1
I1
sVddxwm2y
p2
I1
s.(dp0
Vcyju54w
p1
I1
sVde35lio
p2
I1
s.(dp0
Vcyju54w
p1
I1
sVde3etnm
p2
I1
s.(dp0
Vcyju54w
p1
I1
sVdejny0d
p2
I1
s.(dp0
Vcyju54w
p1
I1
sVderpt3f
p2
I1
s.(dp0
Vcyju54w
p1
I1
sVdevb7bp
p2
I1
s.(dp0
Vcyju54w
p1
I1
sVdfaoky5
p2
I1
s.(dp0
Vcyju54w
p1
I1
sVdg0z38v
p2
I1
s.(dp0
Vcyju54w
p1
I1
sVdgipkg9
p2
I1
s.(dp0
Vcyju54w
p1
I1
sVdhcvkj5
p2
I1
s.(dp0
Vcyju54w
p1
I1
sVdhfv6o1
p2
I1
s.(dp0
Vcyju54w
p1
I1
sVdhn5z7a
p2
I1
s.(dp0
Vcyju54w
p1
I1
sVdi9kqup
p2
I1
s.(dp0
Vcyju54w
p1
I1
sVdigvizw
p2
I1
s.(dp0
Vcyju54w
p1
I1
sVdiyaede
p2
I1
s.(dp0
Vcyju54w
p1
I1
sVdjeekzo
p2
I1
s.(dp0
Vcyju54w
p1
I1
sVdjjp9qo
p2
I1
s.(dp0
Vcyju54w
p1
I1
sVdjn3s4c
p2
I1
s.(dp0
Vcyju54w
p1
I1
sVdjtonfn
p2
I1
s.(dp0
Vcyju54w
p1
I1
sVdk2wzsl
p2
I1
s.(dp0
Vcyju54w
p1
I1
sVdkheerg
p2
I1
s.(dp0
Vcyju54w
p1
I1
sVdki7ock
p2
I1
s.(dp0
Vcyju54w
p1
I1
sVdkjpq0g
p2
I1
s.(dp0
Vcyju54w
p1
I1
sVdkw4qqg
p2
I1
s.(dp0
Vcyju54w
p1
I1
sVdmik8of
p2
I1
s.(dp0
Vcyju54w
p1
I1
sVdmluznu
p2
I1
s.(dp0
Vcyju54w
p1
I1
sVdngqpgk
p2
I1
s.(dp0
Vcyju54w
p1
I1
sVdnuj22b
p2
I1
s.(dp0
Vcyju54w
p1
I1
sVdofwetu
p2
I1
s.(dp0
Vcyju54w
p1
I1
sVdog9xa7
p2
I1
s.(dp0
Vcyju54w
p1
I1
sVdoj3e6v
p2
I1
s.(dp0
Vcyju54w
p1
I1
sVdoj3e6v
p2
I1
s.