(dp0
Vcyv0cpk
p1
I1
s.(dp0
Vcyv0cpk
p1
I1
sVczf4p87
p2
I1
s.(dp0
Vcyv0cpk
p1
I1
sVczthqun
p2
I1
s.(dp0
Vcyv0cpk
p1
I1
sVd08qvss
p2
I1
s.(dp0
Vcyv0cpk
p1
I1
sVd0rdunk
p2
I1
s.(dp0
Vcyv0cpk
p1
I1
sVd1e55z7
p2
I1
s.(dp0
Vcyv0cpk
p1
I1
sVd2cv8d5
p2
I1
s.(dp0
Vcyv0cpk
p1
I1
sVd2ex4yf
p2
I1
s.(dp0
Vcyv0cpk
p1
I1
sVd2g38xa
p2
I1
s.(dp0
Vcyv0cpk
p1
I1
sVd2g38xa
p2
I1
s.(dp0
Vcyv0cpk
p1
I1
sVd2gah19
p2
I1
s.(dp0
Vcyv0cpk
p1
I1
sVd37g8r5
p2
I1
s.(dp0
Vcyv0cpk
p1
I1
sVd3p3ghn
p2
I1
s.(dp0
Vcyv0cpk
p1
I1
sVd4h22fl
p2
I1
s.(dp0
Vcyv0cpk
p1
I1
sVd4ypfpu
p2
I1
s.(dp0
Vcyv0cpk
p1
I1
sVd6b0sdz
p2
I1
s.(dp0
Vcyv0cpk
p1
I1
sVd6sumsu
p2
I1
s.(dp0
Vcyv0cpk
p1
I1
sVd75dt0i
p2
I1
s.(dp0
Vcyv0cpk
p1
I1
sVd75dt0i
p2
I1
s.(dp0
Vcyv0cpk
p1
I1
sVd7826pg
p2
I1
s.(dp0
Vcyv0cpk
p1
I1
sVd8wffq9
p2
I1
s.(dp0
Vcyv0cpk
p1
I1
sVd90mhwg
p2
I1
s.(dp0
Vcyv0cpk
p1
I1
sVd9mrh23
p2
I1
s.(dp0
Vcyv0cpk
p1
I1
sVdag1n8s
p2
I1
s.(dp0
Vcyv0cpk
p1
I1
sVdatgwsn
p2
I1
s.(dp0
Vcyv0cpk
p1
I1
sVdbtm5om
p2
I1
s.(dp0
Vcyv0cpk
p1
I1
sVdcz6czn
p2
I1
s.(dp0
Vcyv0cpk
p1
I1
sVddg4jes
p2
I1
s.(dp0
Vcyv0cpk
p1
I1
sVdecmwwd
p2
I1
s.(dp0
Vcyv0cpk
p1
I1
sVdfzx4pe
p2
I1
s.(dp0
Vcyv0cpk
p1
I1
sVdgzyvmc
p2
I1
s.(dp0
Vcyv0cpk
p1
I1
sVdjaanjs
p2
I1
s.(dp0
Vcyv0cpk
p1
I1
sVdjaanjs
p2
I1
s.(dp0
Vcyv0cpk
p1
I1
sVdjn0r51
p2
I1
s.(dp0
Vcyv0cpk
p1
I1
sVdnaxpbq
p2
I1
s.(dp0
Vcyv0cpk
p1
I1
sVdo9egnp
p2
I1
s.