(dp0
Vcyix9zp
p1
I1
s.(dp0
Vcyix9zp
p1
I2
s.(dp0
Vcyix9zp
p1
I1
sVcynuznc
p2
I1
s.(dp0
Vczemfe1
p1
I1
sVcyix9zp
p2
I1
s.(dp0
Vcyix9zp
p1
I1
sVczj4th5
p2
I1
s.(dp0
Vcyix9zp
p1
I1
sVd02gilv
p2
I1
s.(dp0
Vcyix9zp
p1
I1
sVd06omwe
p2
I1
s.(dp0
Vcyix9zp
p1
I1
sVd0dc83n
p2
I1
s.(dp0
Vcyix9zp
p1
I1
sVd1zxyxr
p2
I1
s.(dp0
Vd24g5rc
p1
I1
sVcyix9zp
p2
I1
s.(dp0
Vcyix9zp
p1
I1
sVd24gpoo
p2
I1
s.(dp0
Vcyix9zp
p1
I1
sVd26oas9
p2
I1
s.(dp0
Vcyix9zp
p1
I1
sVd2d7tll
p2
I1
s.(dp0
Vcyix9zp
p1
I1
sVd2gzcw4
p2
I1
s.(dp0
Vcyix9zp
p1
I1
sVd2urqui
p2
I1
s.(dp0
Vcyix9zp
p1
I1
sVd3kyd5s
p2
I1
s.(dp0
Vd4ior9n
p1
I1
sVcyix9zp
p2
I1
s.(dp0
Vcyix9zp
p1
I1
sVd4l6qz4
p2
I1
s.(dp0
Vcyix9zp
p1
I1
sVd4nutzg
p2
I1
s.(dp0
Vcyix9zp
p1
I1
sVd5cw76i
p2
I1
s.(dp0
Vcyix9zp
p1
I1
sVd5cw76i
p2
I1
s.(dp0
Vcyix9zp
p1
I1
sVd5j7h7x
p2
I1
s.(dp0
Vcyix9zp
p1
I1
sVd5wbmbv
p2
I1
s.(dp0
Vcyix9zp
p1
I1
sVd5wdt3n
p2
I1
s.(dp0
Vcyix9zp
p1
I1
sVd5wdt3n
p2
I1
s.(dp0
Vcyix9zp
p1
I1
sVd5wdt3n
p2
I1
s.(dp0
Vcyix9zp
p1
I1
sVd67u329
p2
I1
s.(dp0
Vcyix9zp
p1
I1
sVd715ve8
p2
I1
s.(dp0
Vcyix9zp
p1
I1
sVd715ve8
p2
I1
s.(dp0
Vcyix9zp
p1
I1
sVd715ve8
p2
I1
s.(dp0
Vcyix9zp
p1
I1
sVd76ofbu
p2
I1
s.(dp0
Vcyix9zp
p1
I1
sVd7ak5hb
p2
I1
s.(dp0
Vd7als9c
p1
I1
sVcyix9zp
p2
I1
s.(dp0
Vcyix9zp
p1
I1
sVd7ap0r2
p2
I1
s.(dp0
Vcyix9zp
p1
I1
sVd7awdf5
p2
I1
s.(dp0
Vcyix9zp
p1
I1
sVd7b0jqe
p2
I1
s.(dp0
Vcyix9zp
p1
I1
sVd7b7cdg
p2
I1
s.(dp0
Vd7tfo1x
p1
I1
sVcyix9zp
p2
I1
s.(dp0
Vcyix9zp
p1
I1
sVd80pqtj
p2
I1
s.(dp0
Vcyix9zp
p1
I1
sVd80pqtj
p2
I1
s.(dp0
Vcyix9zp
p1
I1
sVd80pqtj
p2
I1
s.(dp0
Vcyix9zp
p1
I1
sVd80sajj
p2
I1
s.(dp0
Vcyix9zp
p1
I1
sVd83vobq
p2
I1
s.(dp0
Vcyix9zp
p1
I1
sVd8rrcj9
p2
I1
s.(dp0
Vcyix9zp
p1
I1
sVd8rrcj9
p2
I1
s.(dp0
Vd8rrldo
p1
I1
sVcyix9zp
p2
I1
s.(dp0
Vd8rrldo
p1
I1
sVcyix9zp
p2
I1
s.(dp0
Vd8rrldo
p1
I1
sVcyix9zp
p2
I1
s.(dp0
Vd8rrldo
p1
I1
sVcyix9zp
p2
I1
s.(dp0
Vcyix9zp
p1
I1
sVd9dy7zt
p2
I1
s.(dp0
Vcyix9zp
p1
I1
sVd9e362s
p2
I1
s.(dp0
Vcyix9zp
p1
I1
sVd9e5am1
p2
I1
s.(dp0
Vcyix9zp
p1
I1
sVd9e73lv
p2
I1
s.(dp0
Vcyix9zp
p1
I1
sVd9e8hg9
p2
I1
s.(dp0
Vcyix9zp
p1
I1
sVd9zqi7o
p2
I1
s.(dp0
Vdatlye2
p1
I1
sVcyix9zp
p2
I1
s.(dp0
Vcyix9zp
p1
I1
sVdb0jzeg
p2
I1
s.(dp0
Vcyix9zp
p1
I1
sVdb0jzeg
p2
I1
s.(dp0
Vcyix9zp
p1
I1
sVdba59y2
p2
I1
s.(dp0
Vcyix9zp
p1
I1
sVdba59y2
p2
I1
s.(dp0
Vcyix9zp
p1
I1
sVdbuw331
p2
I1
s.(dp0
Vcyix9zp
p1
I1
sVdbv46g3
p2
I1
s.(dp0
Vcyix9zp
p1
I1
sVdbyxnpe
p2
I1
s.(dp0
Vcyix9zp
p1
I1
sVdceac3e
p2
I1
s.(dp0
Vcyix9zp
p1
I1
sVdceac3e
p2
I1
s.(dp0
Vdcjwc7w
p1
I1
sVcyix9zp
p2
I1
s.(dp0
Vcyix9zp
p1
I1
sVdcveam3
p2
I1
s.(dp0
Vcyix9zp
p1
I1
sVdcwrqrf
p2
I1
s.(dp0
Vcyix9zp
p1
I1
sVdds79q2
p2
I1
s.(dp0
Vcyix9zp
p1
I1
sVddu3oxy
p2
I1
s.(dp0
Vcyix9zp
p1
I1
sVddu3oxy
p2
I1
s.(dp0
Vcyix9zp
p1
I1
sVddy2isa
p2
I1
s.(dp0
Vcyix9zp
p1
I1
sVde42ggz
p2
I1
s.(dp0
Vcyix9zp
p1
I1
sVde5qv01
p2
I1
s.(dp0
Vcyix9zp
p1
I1
sVdfd8gu8
p2
I1
s.(dp0
Vcyix9zp
p1
I1
sVdfd8gu8
p2
I1
s.(dp0
Vcyix9zp
p1
I1
sVdfm7kdh
p2
I1
s.(dp0
Vcyix9zp
p1
I1
sVdfw1v6q
p2
I1
s.(dp0
Vcyix9zp
p1
I1
sVdfw1v6q
p2
I1
s.(dp0
Vcyix9zp
p1
I1
sVdfw1v6q
p2
I1
s.(dp0
Vcyix9zp
p1
I1
sVdfw1v6q
p2
I1
s.(dp0
Vcyix9zp
p1
I1
sVdg962jp
p2
I1
s.(dp0
Vcyix9zp
p1
I1
sVdgdppkm
p2
I1
s.(dp0
Vcyix9zp
p1
I1
sVdgdppkm
p2
I1
s.(dp0
Vcyix9zp
p1
I1
sVdgzl254
p2
I1
s.(dp0
Vcyix9zp
p1
I1
sVdhbxfrf
p2
I1
s.(dp0
Vcyix9zp
p1
I1
sVdhujhoq
p2
I1
s.(dp0
Vcyix9zp
p1
I1
sVdhujhoq
p2
I1
s.(dp0
Vcyix9zp
p1
I1
sVdhujhoq
p2
I1
s.(dp0
Vcyix9zp
p1
I1
sVdhujhoq
p2
I1
s.(dp0
Vcyix9zp
p1
I1
sVdii8xwr
p2
I1
s.(dp0
Vcyix9zp
p1
I1
sVdii8xwr
p2
I1
s.(dp0
Vdil7pw4
p1
I1
sVcyix9zp
p2
I1
s.(dp0
Vcyix9zp
p1
I1
sVdimhq3t
p2
I1
s.(dp0
Vdiue6v6
p1
I1
sVcyix9zp
p2
I1
s.(dp0
Vdiue6v6
p1
I1
sVcyix9zp
p2
I1
s.(dp0
Vdivt604
p1
I1
sVcyix9zp
p2
I1
s.(dp0
Vdivt604
p1
I1
sVcyix9zp
p2
I1
s.(dp0
Vdivt604
p1
I1
sVcyix9zp
p2
I1
s.