(dp0
Vcyk8er9
p1
I1
s.(dp0
Vcym3yss
p1
I1
sVcyk8er9
p2
I1
s.(dp0
Vcyoxhys
p1
I1
sVcyk8er9
p2
I1
s.(dp0
Vcyoxhys
p1
I1
sVcyk8er9
p2
I1
s.(dp0
Vcyqaphs
p1
I1
sVcyk8er9
p2
I1
s.(dp0
Vcyqaphs
p1
I1
sVcyk8er9
p2
I1
s.(dp0
Vcyk8er9
p1
I1
sVcyy0z1x
p2
I1
s.(dp0
Vcyk8er9
p1
I1
sVcz15zcl
p2
I1
s.(dp0
Vcyk8er9
p1
I1
sVcz15zcl
p2
I1
s.(dp0
Vcz16qme
p1
I1
sVcyk8er9
p2
I1
s.(dp0
Vcz16r9p
p1
I1
sVcyk8er9
p2
I1
s.(dp0
Vcz16r9p
p1
I1
sVcyk8er9
p2
I1
s.(dp0
Vcz1fwuu
p1
I1
sVcyk8er9
p2
I1
s.(dp0
Vcz1fwuu
p1
I1
sVcyk8er9
p2
I1
s.(dp0
Vcz8txa5
p1
I1
sVcyk8er9
p2
I1
s.(dp0
Vcz8txa5
p1
I1
sVcyk8er9
p2
I1
s.(dp0
Vczbcpty
p1
I1
sVcyk8er9
p2
I1
s.(dp0
Vczbcqy0
p1
I1
sVcyk8er9
p2
I1
s.(dp0
Vczclvf3
p1
I1
sVcyk8er9
p2
I1
s.(dp0
Vczdtcyq
p1
I1
sVcyk8er9
p2
I1
s.(dp0
Vcyk8er9
p1
I1
sVczeobml
p2
I1
s.(dp0
Vczeownx
p1
I1
sVcyk8er9
p2
I1
s.(dp0
Vczeownx
p1
I1
sVcyk8er9
p2
I1
s.(dp0
Vczeownx
p1
I1
sVcyk8er9
p2
I1
s.(dp0
Vczfak0d
p1
I1
sVcyk8er9
p2
I1
s.(dp0
Vczn4yrg
p1
I1
sVcyk8er9
p2
I1
s.(dp0
Vcztjx1q
p1
I1
sVcyk8er9
p2
I1
s.(dp0
Vczuso0l
p1
I1
sVcyk8er9
p2
I1
s.(dp0
Vcyk8er9
p1
I1
sVczvqon5
p2
I1
s.(dp0
Vczyucw5
p1
I1
sVcyk8er9
p2
I1
s.(dp0
Vd016xx9
p1
I1
sVcyk8er9
p2
I1
s.(dp0
Vd0475ns
p1
I1
sVcyk8er9
p2
I1
s.(dp0
Vd08flfv
p1
I1
sVcyk8er9
p2
I1
s.(dp0
Vd0ats7b
p1
I1
sVcyk8er9
p2
I1
s.(dp0
Vd0d4x9x
p1
I1
sVcyk8er9
p2
I1
s.(dp0
Vcyk8er9
p1
I1
sVd0ddy49
p2
I1
s.(dp0
Vd0nw7pf
p1
I1
sVcyk8er9
p2
I1
s.(dp0
Vd0tanoe
p1
I1
sVcyk8er9
p2
I1
s.(dp0
Vd0tanoe
p1
I1
sVcyk8er9
p2
I1
s.(dp0
Vd0tanoe
p1
I1
sVcyk8er9
p2
I1
s.(dp0
Vd0vgeyk
p1
I1
sVcyk8er9
p2
I1
s.(dp0
Vd0vgeyk
p1
I1
sVcyk8er9
p2
I1
s.(dp0
Vd152k5f
p1
I1
sVcyk8er9
p2
I1
s.(dp0
Vd194zmi
p1
I1
sVcyk8er9
p2
I1
s.(dp0
Vd1aapyo
p1
I1
sVcyk8er9
p2
I1
s.(dp0
Vd1pq90y
p1
I1
sVcyk8er9
p2
I1
s.(dp0
Vd1v7e3u
p1
I1
sVcyk8er9
p2
I1
s.(dp0
Vd1yw0j2
p1
I1
sVcyk8er9
p2
I1
s.(dp0
Vd1yw0j2
p1
I1
sVcyk8er9
p2
I1
s.(dp0
Vcyk8er9
p1
I1
sVd1zkiuf
p2
I1
s.(dp0
Vcyk8er9
p1
I1
sVd1zkiuf
p2
I1
s.(dp0
Vd1zkl2i
p1
I1
sVcyk8er9
p2
I1
s.(dp0
Vd211i9k
p1
I1
sVcyk8er9
p2
I1
s.(dp0
Vd211i9k
p1
I1
sVcyk8er9
p2
I1
s.(dp0
Vd21aiq9
p1
I1
sVcyk8er9
p2
I1
s.(dp0
Vd222bck
p1
I1
sVcyk8er9
p2
I1
s.(dp0
Vd222bck
p1
I1
sVcyk8er9
p2
I1
s.(dp0
Vd256xbr
p1
I1
sVcyk8er9
p2
I1
s.(dp0
Vd27asna
p1
I1
sVcyk8er9
p2
I1
s.(dp0
Vd27asna
p1
I1
sVcyk8er9
p2
I1
s.(dp0
Vd27asna
p1
I1
sVcyk8er9
p2
I1
s.(dp0
Vd2hqnzz
p1
I1
sVcyk8er9
p2
I1
s.(dp0
Vd2hqnzz
p1
I1
sVcyk8er9
p2
I1
s.(dp0
Vd2o4egu
p1
I1
sVcyk8er9
p2
I1
s.(dp0
Vd2xobjq
p1
I1
sVcyk8er9
p2
I1
s.(dp0
Vd314c6d
p1
I1
sVcyk8er9
p2
I1
s.(dp0
Vcyk8er9
p1
I1
sVd39umeu
p2
I1
s.(dp0
Vd3eu1fe
p1
I1
sVcyk8er9
p2
I1
s.(dp0
Vd3gnwu9
p1
I1
sVcyk8er9
p2
I1
s.(dp0
Vd40622m
p1
I1
sVcyk8er9
p2
I1
s.(dp0
Vd40622m
p1
I1
sVcyk8er9
p2
I1
s.(dp0
Vd41zyfj
p1
I1
sVcyk8er9
p2
I1
s.(dp0
Vd42mbdd
p1
I1
sVcyk8er9
p2
I1
s.(dp0
Vd4f26n1
p1
I1
sVcyk8er9
p2
I1
s.(dp0
Vd4f26n1
p1
I1
sVcyk8er9
p2
I1
s.(dp0
Vd4o4ck7
p1
I1
sVcyk8er9
p2
I1
s.(dp0
Vd4o4ck7
p1
I1
sVcyk8er9
p2
I1
s.(dp0
Vd4o4ck7
p1
I1
sVcyk8er9
p2
I1
s.(dp0
Vd4o4ck7
p1
I1
sVcyk8er9
p2
I1
s.(dp0
Vd4unaa3
p1
I1
sVcyk8er9
p2
I1
s.(dp0
Vcyk8er9
p1
I1
sVd4wre3q
p2
I1
s.(dp0
Vd50prw9
p1
I1
sVcyk8er9
p2
I1
s.(dp0
Vd571awx
p1
I1
sVcyk8er9
p2
I1
s.(dp0
Vd5u0i3s
p1
I1
sVcyk8er9
p2
I1
s.(dp0
Vd5u0i3s
p1
I1
sVcyk8er9
p2
I1
s.(dp0
Vd63w91j
p1
I1
sVcyk8er9
p2
I1
s.(dp0
Vd63w91j
p1
I1
sVcyk8er9
p2
I1
s.(dp0
Vd63w91j
p1
I1
sVcyk8er9
p2
I1
s.(dp0
Vd63w91j
p1
I1
sVcyk8er9
p2
I1
s.(dp0
Vd63w91j
p1
I1
sVcyk8er9
p2
I1
s.(dp0
Vd64gp9n
p1
I1
sVcyk8er9
p2
I1
s.(dp0
Vcyk8er9
p1
I1
sVd6buy9e
p2
I1
s.(dp0
Vcyk8er9
p1
I1
sVd6buy9e
p2
I1
s.(dp0
Vd6cu7hm
p1
I1
sVcyk8er9
p2
I1
s.(dp0
Vd6fe2p8
p1
I1
sVcyk8er9
p2
I1
s.(dp0
Vd6isxb8
p1
I1
sVcyk8er9
p2
I1
s.(dp0
Vd6j2l2b
p1
I1
sVcyk8er9
p2
I1
s.(dp0
Vd6k99x1
p1
I1
sVcyk8er9
p2
I1
s.(dp0
Vd6mcr12
p1
I1
sVcyk8er9
p2
I1
s.(dp0
Vd6oosyk
p1
I1
sVcyk8er9
p2
I1
s.(dp0
Vd6sz8ab
p1
I1
sVcyk8er9
p2
I1
s.(dp0
Vd6y56x1
p1
I1
sVcyk8er9
p2
I1
s.(dp0
Vcyk8er9
p1
I1
sVd74uxpv
p2
I1
s.(dp0
Vd7s4eiu
p1
I1
sVcyk8er9
p2
I1
s.(dp0
Vd7s4eiu
p1
I1
sVcyk8er9
p2
I1
s.(dp0
Vd86mfst
p1
I1
sVcyk8er9
p2
I1
s.(dp0
Vd8byop3
p1
I1
sVcyk8er9
p2
I1
s.(dp0
Vd8gt4af
p1
I1
sVcyk8er9
p2
I1
s.(dp0
Vd8(dp0
Vdkyp58e
p1
I1
sVcyk8er9
p2
I1
s.