(dp0
Vcynjbx0
p1
I1
s.(dp0
Vcyswqoe
p1
I1
sVcynjbx0
p2
I1
s.(dp0
Vczc37pm
p1
I1
sVcynjbx0
p2
I1
s.(dp0
Vczn7pfy
p1
I1
sVcynjbx0
p2
I1
s.(dp0
Vcynjbx0
p1
I1
sVd03usiy
p2
I1
s.(dp0
Vd2z1vrb
p1
I1
sVcynjbx0
p2
I1
s.(dp0
Vd33acv5
p1
I1
sVcynjbx0
p2
I1
s.(dp0
Vcynjbx0
p1
I1
sVd42gf1h
p2
I1
s.(dp0
Vd49kwq2
p1
I1
sVcynjbx0
p2
I1
s.(dp0
Vcynjbx0
p1
I1
sVd699q9x
p2
I1
s.(dp0
Vd9t8ii2
p1
I1
sVcynjbx0
p2
I1
s.(dp0
Vcynjbx0
p1
I1
sVdahc1z8
p2
I1
s.(dp0
Vdc3kd4m
p1
I1
sVcynjbx0
p2
I1
s.(dp0
Vdc3kd4m
p1
I1
sVcynjbx0
p2
I1
s.(dp0
Vddkrqo8
p1
I1
sVcynjbx0
p2
I1
s.(dp0
Vdhuxwnw
p1
I1
sVcynjbx0
p2
I1
s.(dp0
Vcynjbx0
p1
I1
sVdia4dv6
p2
I1
s.