(dp0
Vcyogqje
p1
I1
s.(dp0
Vcyovlmm
p1
I1
sVcyogqje
p2
I1
s.(dp0
Vcytus2m
p1
I1
sVcyogqje
p2
I1
s.(dp0
Vcywd7ud
p1
I1
sVcyogqje
p2
I1
s.(dp0
Vcz28zt8
p1
I1
sVcyogqje
p2
I1
s.(dp0
Vcz2ngd5
p1
I1
sVcyogqje
p2
I1
s.(dp0
Vcz36jv3
p1
I1
sVcyogqje
p2
I1
s.(dp0
Vcz377fc
p1
I1
sVcyogqje
p2
I1
s.(dp0
Vcz6vixp
p1
I1
sVcyogqje
p2
I1
s.(dp0
Vczmgzfh
p1
I1
sVcyogqje
p2
I1
s.(dp0
Vczsbc9a
p1
I1
sVcyogqje
p2
I1
s.(dp0
Vczsbc9a
p1
I1
sVcyogqje
p2
I1
s.(dp0
Vczsoo9x
p1
I1
sVcyogqje
p2
I1
s.(dp0
Vczwft1n
p1
I1
sVcyogqje
p2
I1
s.(dp0
Vczwft1n
p1
I1
sVcyogqje
p2
I1
s.(dp0
Vczwft1n
p1
I1
sVcyogqje
p2
I1
s.(dp0
Vczwft1n
p1
I1
sVcyogqje
p2
I1
s.(dp0
Vczxh81f
p1
I1
sVcyogqje
p2
I1
s.(dp0
Vd0e95mo
p1
I1
sVcyogqje
p2
I1
s.(dp0
Vd0h9jtm
p1
I1
sVcyogqje
p2
I1
s.(dp0
Vd0hyvth
p1
I1
sVcyogqje
p2
I1
s.(dp0
Vd0hyvth
p1
I1
sVcyogqje
p2
I1
s.(dp0
Vd0imrfz
p1
I1
sVcyogqje
p2
I1
s.(dp0
Vd0imrfz
p1
I1
sVcyogqje
p2
I1
s.(dp0
Vd0jernx
p1
I1
sVcyogqje
p2
I1
s.(dp0
Vd0py7kr
p1
I1
sVcyogqje
p2
I1
s.(dp0
Vd0py7kr
p1
I1
sVcyogqje
p2
I1
s.(dp0
Vd0quolu
p1
I1
sVcyogqje
p2
I1
s.(dp0
Vd1a6e3s
p1
I1
sVcyogqje
p2
I1
s.(dp0
Vd1a6e3s
p1
I1
sVcyogqje
p2
I1
s.(dp0
Vd1b29gs
p1
I1
sVcyogqje
p2
I1
s.(dp0
Vd1g21kr
p1
I1
sVcyogqje
p2
I1
s.(dp0
Vd1vu6oh
p1
I1
sVcyogqje
p2
I1
s.(dp0
Vd20ul2s
p1
I1
sVcyogqje
p2
I1
s.(dp0
Vd2711gz
p1
I1
sVcyogqje
p2
I1
s.(dp0
Vd2711gz
p1
I1
sVcyogqje
p2
I1
s.(dp0
Vd2h9vg1
p1
I1
sVcyogqje
p2
I1
s.(dp0
Vd2quw7h
p1
I1
sVcyogqje
p2
I1
s.(dp0
Vd2quw7h
p1
I1
sVcyogqje
p2
I1
s.(dp0
Vd30xkgw
p1
I1
sVcyogqje
p2
I1
s.(dp0
Vd31d2hp
p1
I1
sVcyogqje
p2
I1
s.(dp0
Vd31d2hp
p1
I1
sVcyogqje
p2
I1
s.(dp0
Vd32smas
p1
I1
sVcyogqje
p2
I1
s.(dp0
Vd32smas
p1
I1
sVcyogqje
p2
I1
s.(dp0
Vd36gsx4
p1
I1
sVcyogqje
p2
I1
s.(dp0
Vd3m6as9
p1
I1
sVcyogqje
p2
I1
s.(dp0
Vd3mdrme
p1
I1
sVcyogqje
p2
I1
s.(dp0
Vd3nem3v
p1
I1
sVcyogqje
p2
I1
s.(dp0
Vd3o8llq
p1
I1
sVcyogqje
p2
I1
s.(dp0
Vd3tbra4
p1
I1
sVcyogqje
p2
I1
s.(dp0
Vd4qjpuf
p1
I1
sVcyogqje
p2
I1
s.(dp0
Vd4tzq7s
p1
I1
sVcyogqje
p2
I1
s.(dp0
Vd4tzq7s
p1
I1
sVcyogqje
p2
I1
s.(dp0
Vd4vnzrp
p1
I1
sVcyogqje
p2
I1
s.(dp0
Vd4vnzrp
p1
I1
sVcyogqje
p2
I1
s.(dp0
Vd4vsr71
p1
I1
sVcyogqje
p2
I1
s.(dp0
Vd4vsr71
p1
I1
sVcyogqje
p2
I1
s.(dp0
Vd50ee80
p1
I1
sVcyogqje
p2
I1
s.(dp0
Vd51egn7
p1
I1
sVcyogqje
p2
I1
s.(dp0
Vd582uo1
p1
I1
sVcyogqje
p2
I1
s.(dp0
Vd5dbjp4
p1
I1
sVcyogqje
p2
I1
s.(dp0
Vd5dbjp4
p1
I1
sVcyogqje
p2
I1
s.(dp0
Vd5dc3ip
p1
I1
sVcyogqje
p2
I1
s.(dp0
Vd5dc3ip
p1
I1
sVcyogqje
p2
I1
s.(dp0
Vd5ddvsu
p1
I1
sVcyogqje
p2
I1
s.(dp0
Vd5ddvsu
p1
I1
sVcyogqje
p2
I1
s.(dp0
Vd5ddvsu
p1
I1
sVcyogqje
p2
I1
s.(dp0
Vd5rbiyk
p1
I1
sVcyogqje
p2
I1
s.(dp0
Vd5rbiyk
p1
I1
sVcyogqje
p2
I1
s.(dp0
Vd5rbmek
p1
I1
sVcyogqje
p2
I1
s.(dp0
Vd5rbmek
p1
I1
sVcyogqje
p2
I1
s.(dp0
Vd5rhh7d
p1
I1
sVcyogqje
p2
I1
s.(dp0
Vd5rhh7d
p1
I1
sVcyogqje
p2
I1
s.(dp0
Vd5rhh7d
p1
I1
sVcyogqje
p2
I1
s.(dp0
Vd5rp7kg
p1
I1
sVcyogqje
p2
I1
s.(dp0
Vd5rp7kg
p1
I1
sVcyogqje
p2
I1
s.(dp0
Vd5rrbhi
p1
I1
sVcyogqje
p2
I1
s.(dp0
Vd5ryw1l
p1
I1
sVcyogqje
p2
I1
s.(dp0
Vd5ryw1l
p1
I1
sVcyogqje
p2
I1
s.(dp0
Vd5ryw1l
p1
I1
sVcyogqje
p2
I1
s.(dp0
Vd5ryw1l
p1
I1
sVcyogqje
p2
I1
s.(dp0
Vd5ryw1l
p1
I1
sVcyogqje
p2
I1
s.(dp0
Vd5s0pv7
p1
I1
sVcyogqje
p2
I1
s.(dp0
Vd5sczks
p1
I1
sVcyogqje
p2
I1
s.(dp0
Vd5shj5w
p1
I1
sVcyogqje
p2
I1
s.(dp0
Vd5shj5w
p1
I1
sVcyogqje
p2
I1
s.(dp0
Vd6hlph0
p1
I1
sVcyogqje
p2
I1
s.(dp0
Vd6hlph0
p1
I1
sVcyogqje
p2
I1
s.(dp0
Vd76evvw
p1
I1
sVcyogqje
p2
I1
s.(dp0
Vd773xof
p1
I1
sVcyogqje
p2
I1
s.(dp0
Vd7aneut
p1
I1
sVcyogqje
p2
I1
s.(dp0
Vd7aneut
p1
I1
sVcyogqje
p2
I1
s.(dp0
Vd82kc8u
p1
I1
sVcyogqje
p2
I1
s.(dp0
Vd82kc8u
p1
I1
sVcyogqje
p2
I1
s.(dp0
Vd82kc8u
p1
I1
sVcyogqje
p2
I1
s.(dp0
Vd82kc8u
p1
I1
sVcyogqje
p2
I1
s.(dp0
Vd8ao3lz
p1
I1
sVcyogqje
p2
I1
s.(dp0
Vd8d1f3e
p1
I1
sVcyogqje
p2
I1
s.(dp0
Vd8k525e
p1
I1
sVcyogqje
p2
I1
s.(dp0
Vd9d1vtf
p1
I1
sVcyogqje
p2
I1
s.(dp0
Vd9jq1rv
p1
I1
sVcyogqje
p2
I1
s.(dp0
Vda2yrpi
p1
I1
sVcyogqje
p2
I1
s.(dp0
Vdagzciw
p1
I1
sVcyogqje
p2
I1
s.(dp0
Vdaq7dsm
p1
I1
sVcyogqje
p2
I1
s.(dp0
Vdaq7dsm
p1
I1
sVcyogqje
p2
I1
s.(dp0
Vdaq7dsm
p1
I1
sVcyogqje
p2
I1
s.(dp0
Vdaqbg60
p1
I1
sVcyogqje
p2
I1
s.(dp0
Vdax02p0
p1
I1
sVcyogqje
p2
I1
s.(dp0
Vdb(dp0
Vdkilocd
p1
I1
sVcyogqje
p2
I1
s.