(dp0
Vcynlsjn
p1
I1
s.(dp0
Vcynlsjn
p1
I1
sVd2deh8n
p2
I1
s.(dp0
Vcynlsjn
p1
I1
sVdaof3bc
p2
I1
s.(dp0
Vcynlsjn
p1
I1
sVdbwtkls
p2
I1
s.(dp0
Vcynlsjn
p1
I1
sVdc444gm
p2
I1
s.(dp0
Vddwqbpq
p1
I1
sVcynlsjn
p2
I1
s.(dp0
Vcynlsjn
p1
I1
sVdj1mqgl
p2
I1
s.