(dp0
Vcyqhzw2
p1
I1
s.(dp0
Vcys5noc
p1
I1
sVcyqhzw2
p2
I1
s.(dp0
Vczeoe8w
p1
I1
sVcyqhzw2
p2
I1
s.(dp0
Vdf1m6u5
p1
I1
sVcyqhzw2
p2
I1
s.(dp0
Vdgblsln
p1
I1
sVcyqhzw2
p2
I1
s.(dp0
Vdj3qn49
p1
I1
sVcyqhzw2
p2
I1
s.