(dp0
Vcyppqyq
p1
I1
s.(dp0
Vcyppqyq
p1
I2
s.(dp0
Vcyppqyq
p1
I1
sVcytcvma
p2
I1
s.(dp0
Vcyppqyq
p1
I1
sVcytcvma
p2
I1
s.(dp0
Vcyppqyq
p1
I1
sVcytcvma
p2
I1
s.(dp0
Vcyppqyq
p1
I1
sVcyzqlst
p2
I1
s.(dp0
Vcyppqyq
p1
I1
sVcyzqlst
p2
I1
s.(dp0
Vcyppqyq
p1
I1
sVcyzqlst
p2
I1
s.(dp0
Vcyppqyq
p1
I1
sVcyzqlst
p2
I1
s.(dp0
Vcyppqyq
p1
I1
sVcyzqlst
p2
I1
s.(dp0
Vcyppqyq
p1
I1
sVcz48jee
p2
I1
s.(dp0
Vcyppqyq
p1
I1
sVczglac0
p2
I1
s.(dp0
Vcyppqyq
p1
I1
sVczioza8
p2
I1
s.(dp0
Vcyppqyq
p1
I1
sVd1xd6gy
p2
I1
s.(dp0
Vcyppqyq
p1
I1
sVd20nmxy
p2
I1
s.(dp0
Vcyppqyq
p1
I1
sVd2tnnmt
p2
I1
s.(dp0
Vcyppqyq
p1
I1
sVd4zbit8
p2
I1
s.(dp0
Vcyppqyq
p1
I1
sVd50ks10
p2
I1
s.(dp0
Vcyppqyq
p1
I1
sVd50wxsa
p2
I1
s.(dp0
Vcyppqyq
p1
I1
sVd50wxsa
p2
I1
s.(dp0
Vcyppqyq
p1
I1
sVd56jk88
p2
I1
s.(dp0
Vcyppqyq
p1
I1
sVd92vg0h
p2
I1
s.(dp0
Vcyppqyq
p1
I1
sVdbs8bu6
p2
I1
s.(dp0
Vcyppqyq
p1
I1
sVdchw1ld
p2
I1
s.(dp0
Vcyppqyq
p1
I1
sVdchw1ld
p2
I1
s.(dp0
Vcyppqyq
p1
I1
sVdcm5uhj
p2
I1
s.(dp0
Vcyppqyq
p1
I1
sVdcm5uhj
p2
I1
s.(dp0
Vcyppqyq
p1
I1
sVde4n3dt
p2
I1
s.(dp0
Vcyppqyq
p1
I1
sVdfw5cbg
p2
I1
s.(dp0
Vcyppqyq
p1
I1
sVdj9vaid
p2
I1
s.(dp0
Vcyppqyq
p1
I1
sVdj9vaid
p2
I1
s.