(dp0
Vcyju54w
p1
I1
s.(dp0
Vcyju54w
p1
I1
sVcyr46l8
p2
I1
s.(dp0
Vcyju54w
p1
I1
sVcyr46l8
p2
I1
s.(dp0
Vcyju54w
p1
I1
sVcyw7uey
p2
I1
s.(dp0
Vcyju54w
p1
I1
sVcz9s1eg
p2
I1
s.(dp0
Vcyju54w
p1
I1
sVczh3z30
p2
I1
s.(dp0
Vcyju54w
p1
I1
sVczjnaz9
p2
I1
s.(dp0
Vcyju54w
p1
I1
sVczjnaz9
p2
I1
s.(dp0
Vcyju54w
p1
I1
sVd1d7igf
p2
I1
s.(dp0
Vcyju54w
p1
I1
sVd3tfg7q
p2
I1
s.(dp0
Vcyju54w
p1
I1
sVd7x3x7f
p2
I1
s.(dp0
Vcyju54w
p1
I1
sVd7x5yoq
p2
I1
s.(dp0
Vcyju54w
p1
I1
sVd98k4rv
p2
I1
s.(dp0
Vcyju54w
p1
I1
sVd9ahjci
p2
I1
s.(dp0
Vcyju54w
p1
I1
sVd9ahjci
p2
I1
s.(dp0
Vcyju54w
p1
I1
sVd9ahjci
p2
I1
s.(dp0
Vcyju54w
p1
I1
sVd9ahjci
p2
I1
s.(dp0
Vcyju54w
p1
I1
sVd9ahjci
p2
I1
s.(dp0
Vcyju54w
p1
I1
sVda0z05r
p2
I1
s.(dp0
Vcyju54w
p1
I1
sVdaqevv3
p2
I1
s.(dp0
Vcyju54w
p1
I1
sVdcbjv01
p2
I1
s.(dp0
Vcyju54w
p1
I1
sVdf5d24c
p2
I1
s.(dp0
Vcyju54w
p1
I1
sVdf5de98
p2
I1
s.(dp0
Vcyju54w
p1
I1
sVdffv3hg
p2
I1
s.(dp0
Vcyju54w
p1
I1
sVdgar5nf
p2
I1
s.(dp0
Vcyju54w
p1
I1
sVdgar5nf
p2
I1
s.(dp0
Vcyju54w
p1
I1
sVdhafahx
p2
I1
s.(dp0
Vcyju54w
p1
I1
sVdjhpffb
p2
I1
s.