(dp0
Vcyk9pf1
p1
I1
s.(dp0
Vcyk9pf1
p1
I1
sVcynxo4o
p2
I1
s.(dp0
Vcz1t6j8
p1
I1
sVcyk9pf1
p2
I1
s.(dp0
Vcyk9pf1
p1
I1
sVczjjlak
p2
I1
s.(dp0
Vczt1ssw
p1
I1
sVcyk9pf1
p2
I1
s.(dp0
Vczu72r5
p1
I1
sVcyk9pf1
p2
I1
s.(dp0
Vcyk9pf1
p1
I1
sVczuaith
p2
I1
s.(dp0
Vd03crgf
p1
I1
sVcyk9pf1
p2
I1
s.(dp0
Vd05kugt
p1
I1
sVcyk9pf1
p2
I1
s.(dp0
Vcyk9pf1
p1
I1
sVd06l2lx
p2
I1
s.(dp0
Vd08q7lg
p1
I1
sVcyk9pf1
p2
I1
s.(dp0
Vd0eg8ab
p1
I1
sVcyk9pf1
p2
I1
s.(dp0
Vcyk9pf1
p1
I1
sVd125tps
p2
I1
s.(dp0
Vd13jrcd
p1
I1
sVcyk9pf1
p2
I1
s.(dp0
Vcyk9pf1
p1
I1
sVd18qut7
p2
I1
s.(dp0
Vd1dqmdf
p1
I1
sVcyk9pf1
p2
I1
s.(dp0
Vcyk9pf1
p1
I1
sVd1rr033
p2
I1
s.(dp0
Vcyk9pf1
p1
I1
sVd2508lb
p2
I1
s.(dp0
Vcyk9pf1
p1
I1
sVd277jit
p2
I1
s.(dp0
Vcyk9pf1
p1
I1
sVd2a5979
p2
I1
s.(dp0
Vd2a7i8w
p1
I1
sVcyk9pf1
p2
I1
s.(dp0
Vd2el2sc
p1
I1
sVcyk9pf1
p2
I1
s.(dp0
Vd35gm4j
p1
I1
sVcyk9pf1
p2
I1
s.(dp0
Vd477fnd
p1
I1
sVcyk9pf1
p2
I1
s.(dp0
Vd4lszbh
p1
I1
sVcyk9pf1
p2
I1
s.(dp0
Vcyk9pf1
p1
I1
sVd537849
p2
I1
s.(dp0
Vd5cpcpf
p1
I1
sVcyk9pf1
p2
I1
s.(dp0
Vd5hcmhf
p1
I1
sVcyk9pf1
p2
I1
s.(dp0
Vd5jc5ka
p1
I1
sVcyk9pf1
p2
I1
s.(dp0
Vd5li0zg
p1
I1
sVcyk9pf1
p2
I1
s.(dp0
Vd65bjb7
p1
I1
sVcyk9pf1
p2
I1
s.(dp0
Vd6a1mn3
p1
I1
sVcyk9pf1
p2
I1
s.(dp0
Vd6hkb7z
p1
I1
sVcyk9pf1
p2
I1
s.(dp0
Vd6il8zw
p1
I1
sVcyk9pf1
p2
I1
s.(dp0
Vd6w6ppp
p1
I1
sVcyk9pf1
p2
I1
s.(dp0
Vd88y77q
p1
I1
sVcyk9pf1
p2
I1
s.(dp0
Vd8nwf2d
p1
I1
sVcyk9pf1
p2
I1
s.(dp0
Vd8qrc62
p1
I1
sVcyk9pf1
p2
I1
s.(dp0
Vcyk9pf1
p1
I1
sVd9b2vm3
p2
I1
s.(dp0
Vcyk9pf1
p1
I1
sVd9dhy0s
p2
I1
s.(dp0
Vcyk9pf1
p1
I1
sVd9pnerr
p2
I1
s.(dp0
Vda0ffqo
p1
I1
sVcyk9pf1
p2
I1
s.(dp0
Vdab8w20
p1
I1
sVcyk9pf1
p2
I1
s.(dp0
Vcyk9pf1
p1
I1
sVdb03dxb
p2
I1
s.(dp0
Vdc9wq32
p1
I1
sVcyk9pf1
p2
I1
s.(dp0
Vdd07lfy
p1
I1
sVcyk9pf1
p2
I1
s.(dp0
Vdd07lfy
p1
I1
sVcyk9pf1
p2
I1
s.(dp0
Vddeayvx
p1
I1
sVcyk9pf1
p2
I1
s.(dp0
Vddi280p
p1
I1
sVcyk9pf1
p2
I1
s.(dp0
Vddwv3aa
p1
I1
sVcyk9pf1
p2
I1
s.(dp0
Vde40970
p1
I1
sVcyk9pf1
p2
I1
s.(dp0
Vcyk9pf1
p1
I1
sVdf3se94
p2
I1
s.(dp0
Vdf97ujr
p1
I1
sVcyk9pf1
p2
I1
s.(dp0
Vdfqi4n5
p1
I1
sVcyk9pf1
p2
I1
s.(dp0
Vdiol1zs
p1
I1
sVcyk9pf1
p2
I1
s.(dp0
Vcyk9pf1
p1
I1
sVdir1qs6
p2
I1
s.(dp0
Vcyk9pf1
p1
I1
sVdjb8eyh
p2
I1
s.(dp0
Vcyk9pf1
p1
I1
sVdjkoixg
p2
I1
s.(dp0
Vdjlgixj
p1
I1
sVcyk9pf1
p2
I1
s.(dp0
Vdkkxsdn
p1
I1
sVcyk9pf1
p2
I1
s.(dp0
Vcyk9pf1
p1
I1
sVdo2lvd4
p2
I1
s.