(dp0
Vcyhugv1
p1
I1
s.(dp0
Vcyt1hah
p1
I1
sVcyhugv1
p2
I1
s.(dp0
Vcyhugv1
p1
I1
sVd07z07e
p2
I1
s.(dp0
Vd11vl2a
p1
I1
sVcyhugv1
p2
I1
s.(dp0
Vd1hbyv1
p1
I1
sVcyhugv1
p2
I1
s.(dp0
Vcyhugv1
p1
I1
sVd1w9jb1
p2
I1
s.(dp0
Vcyhugv1
p1
I1
sVd1wb1sk
p2
I1
s.(dp0
Vd2duf9s
p1
I1
sVcyhugv1
p2
I1
s.(dp0
Vcyhugv1
p1
I1
sVd2l8y8g
p2
I1
s.(dp0
Vd2u78e0
p1
I1
sVcyhugv1
p2
I1
s.(dp0
Vd3j8yez
p1
I1
sVcyhugv1
p2
I1
s.(dp0
Vd3j8yez
p1
I1
sVcyhugv1
p2
I1
s.(dp0
Vcyhugv1
p1
I1
sVd3kcn9z
p2
I1
s.(dp0
Vd48ilgi
p1
I1
sVcyhugv1
p2
I1
s.(dp0
Vcyhugv1
p1
I1
sVd48iv7a
p2
I1
s.(dp0
Vcyhugv1
p1
I1
sVd4mv9c5
p2
I1
s.(dp0
Vcyhugv1
p1
I1
sVd4mv9c5
p2
I1
s.(dp0
Vcyhugv1
p1
I1
sVd4mv9c5
p2
I1
s.(dp0
Vd56jbvo
p1
I1
sVcyhugv1
p2
I1
s.(dp0
Vd56jbvo
p1
I1
sVcyhugv1
p2
I1
s.(dp0
Vd56jbvo
p1
I1
sVcyhugv1
p2
I1
s.(dp0
Vd5redtv
p1
I1
sVcyhugv1
p2
I1
s.(dp0
Vcyhugv1
p1
I1
sVd87eio2
p2
I1
s.(dp0
Vcyhugv1
p1
I1
sVd9ewr6u
p2
I1
s.(dp0
Vdb5fq25
p1
I1
sVcyhugv1
p2
I1
s.(dp0
Vcyhugv1
p1
I1
sVdcwsnqg
p2
I1
s.(dp0
Vdd6pbhr
p1
I1
sVcyhugv1
p2
I1
s.(dp0
Vddbh5pj
p1
I1
sVcyhugv1
p2
I1
s.(dp0
Vcyhugv1
p1
I1
sVddeqr9i
p2
I1
s.(dp0
Vddum1ek
p1
I1
sVcyhugv1
p2
I1
s.(dp0
Vcyhugv1
p1
I1
sVdefe5mf
p2
I1
s.(dp0
Vdf4ap5p
p1
I1
sVcyhugv1
p2
I1
s.(dp0
Vdf63ehj
p1
I1
sVcyhugv1
p2
I1
s.(dp0
Vdhb4s85
p1
I1
sVcyhugv1
p2
I1
s.(dp0
Vdhlhmvt
p1
I1
sVcyhugv1
p2
I1
s.(dp0
Vdhvcfgi
p1
I1
sVcyhugv1
p2
I1
s.(dp0
Vdi550pd
p1
I1
sVcyhugv1
p2
I1
s.(dp0
Vdi55jzu
p1
I1
sVcyhugv1
p2
I1
s.(dp0
Vdi55jzu
p1
I1
sVcyhugv1
p2
I1
s.(dp0
Vcyhugv1
p1
I1
sVdi635q3
p2
I1
s.(dp0
Vcyhugv1
p1
I1
sVdi635q3
p2
I1
s.(dp0
Vcyhugv1
p1
I1
sVdi635q3
p2
I1
s.(dp0
Vdik0fhd
p1
I1
sVcyhugv1
p2
I1
s.(dp0
Vdilyycd
p1
I1
sVcyhugv1
p2
I1
s.(dp0
Vdml5xej
p1
I1
sVcyhugv1
p2
I1
s.(dp0
Vdmsof2n
p1
I1
sVcyhugv1
p2
I1
s.