(dp0
Vd0acrpp
p1
I1
s.(dp0
Vd0acrpp
p1
I1
sVd1aza4i
p2
I1
s.(dp0
Vd0acrpp
p1
I1
sVd1lveqs
p2
I1
s.(dp0
Vd0acrpp
p1
I1
sVd48buxx
p2
I1
s.(dp0
Vd0acrpp
p1
I1
sVd48buxx
p2
I1
s.(dp0
Vd0acrpp
p1
I1
sVd5i2uux
p2
I1
s.(dp0
Vd0acrpp
p1
I1
sVd658kqn
p2
I1
s.(dp0
Vd0acrpp
p1
I1
sVd9ciiuf
p2
I1
s.(dp0
Vd0acrpp
p1
I1
sVdfzzo2z
p2
I1
s.