(dp0
Vd3a90j3
p1
I1
s.(dp0
Vd3a90j3
p1
I1
sVd6lrghc
p2
I1
s.(dp0
Vd3a90j3
p1
I1
sVd6nmz8s
p2
I1
s.(dp0
Vd8t6n10
p1
I1
sVd3a90j3
p2
I1
s.(dp0
Vd8t6n10
p1
I1
sVd3a90j3
p2
I1
s.(dp0
Vd3a90j3
p1
I1
sVdd61yop
p2
I1
s.(dp0
Vd3a90j3
p1
I1
sVde6q9wh
p2
I1
s.(dp0
Vd3a90j3
p1
I1
sVdiumanq
p2
I1
s.(dp0
Vdjbk52m
p1
I1
sVd3a90j3
p2
I1
s.