(dp0
Vd0t6i5o
p1
I1
s.(dp0
Vd0t6i5o
p1
I1
sVd2kmu52
p2
I1
s.(dp0
Vd0t6i5o
p1
I1
sVd41ae7x
p2
I1
s.(dp0
Vd9zfw6q
p1
I1
sVd0t6i5o
p2
I1
s.(dp0
Vdcpzid6
p1
I1
sVd0t6i5o
p2
I1
s.(dp0
Vddzn7nr
p1
I1
sVd0t6i5o
p2
I1
s.(dp0
Vdgdijjb
p1
I1
sVd0t6i5o
p2
I1
s.