(dp0
Vcyijt8r
p1
I1
s.(dp0
Vcyijt8r
p1
I2
s.(dp0
Vcyijt8r
p1
I1
sVcyl8ngk
p2
I1
s.(dp0
Vcyijt8r
p1
I1
sVcyla1zy
p2
I1
s.(dp0
Vcz0qpzg
p1
I1
sVcyijt8r
p2
I1
s.(dp0
Vcz0qpzg
p1
I1
sVcyijt8r
p2
I1
s.(dp0
Vcz0qpzg
p1
I1
sVcyijt8r
p2
I1
s.(dp0
Vcyijt8r
p1
I1
sVcz8s300
p2
I1
s.(dp0
Vczahlqa
p1
I1
sVcyijt8r
p2
I1
s.(dp0
Vcziu8fo
p1
I1
sVcyijt8r
p2
I1
s.(dp0
Vcziu8fo
p1
I1
sVcyijt8r
p2
I1
s.(dp0
Vczmca6p
p1
I1
sVcyijt8r
p2
I1
s.(dp0
Vczmcbxp
p1
I1
sVcyijt8r
p2
I1
s.(dp0
Vcyijt8r
p1
I1
sVczmi27c
p2
I1
s.(dp0
Vcyijt8r
p1
I1
sVczmi27c
p2
I1
s.(dp0
Vcyijt8r
p1
I1
sVczmi27c
p2
I1
s.(dp0
Vcyijt8r
p1
I1
sVczmkcnu
p2
I1
s.(dp0
Vcyijt8r
p1
I1
sVczmvs16
p2
I1
s.(dp0
Vcyijt8r
p1
I1
sVczzjlzs
p2
I1
s.(dp0
Vcyijt8r
p1
I1
sVczzsb78
p2
I1
s.(dp0
Vcyijt8r
p1
I1
sVd01p5i2
p2
I1
s.(dp0
Vcyijt8r
p1
I1
sVd01sadi
p2
I1
s.(dp0
Vcyijt8r
p1
I1
sVd02n3up
p2
I1
s.(dp0
Vcyijt8r
p1
I1
sVd0cs02u
p2
I1
s.(dp0
Vcyijt8r
p1
I1
sVd0cs0du
p2
I1
s.(dp0
Vd0e333i
p1
I1
sVcyijt8r
p2
I1
s.(dp0
Vcyijt8r
p1
I1
sVd0i3lhz
p2
I1
s.(dp0
Vcyijt8r
p1
I1
sVd0mrto7
p2
I1
s.(dp0
Vcyijt8r
p1
I1
sVd0tx1zq
p2
I1
s.(dp0
Vcyijt8r
p1
I1
sVd14x47r
p2
I1
s.(dp0
Vcyijt8r
p1
I1
sVd16s624
p2
I1
s.(dp0
Vcyijt8r
p1
I1
sVd1iizw3
p2
I1
s.(dp0
Vcyijt8r
p1
I1
sVd1ijkjc
p2
I1
s.(dp0
Vcyijt8r
p1
I1
sVd1isvfg
p2
I1
s.(dp0
Vcyijt8r
p1
I1
sVd1nbqxk
p2
I1
s.(dp0
Vcyijt8r
p1
I1
sVd1o4qdq
p2
I1
s.(dp0
Vcyijt8r
p1
I1
sVd1r4m9k
p2
I1
s.(dp0
Vcyijt8r
p1
I1
sVd1tc2l1
p2
I1
s.(dp0
Vcyijt8r
p1
I1
sVd1wgi2q
p2
I1
s.(dp0
Vcyijt8r
p1
I1
sVd1wgi2q
p2
I1
s.(dp0
Vcyijt8r
p1
I1
sVd24fwdd
p2
I1
s.(dp0
Vcyijt8r
p1
I1
sVd28ispz
p2
I1
s.(dp0
Vcyijt8r
p1
I1
sVd28z7tg
p2
I1
s.(dp0
Vcyijt8r
p1
I1
sVd2hdetk
p2
I1
s.(dp0
Vd2j527v
p1
I1
sVcyijt8r
p2
I1
s.(dp0
Vcyijt8r
p1
I1
sVd2j5c1o
p2
I1
s.(dp0
Vcyijt8r
p1
I1
sVd2kn1a1
p2
I1
s.(dp0
Vcyijt8r
p1
I1
sVd2z6x6k
p2
I1
s.(dp0
Vcyijt8r
p1
I1
sVd3bkam4
p2
I1
s.(dp0
Vcyijt8r
p1
I1
sVd3h0e3j
p2
I1
s.(dp0
Vcyijt8r
p1
I1
sVd3pu968
p2
I1
s.(dp0
Vcyijt8r
p1
I1
sVd3yu4fk
p2
I1
s.(dp0
Vcyijt8r
p1
I1
sVd3yu4fk
p2
I1
s.(dp0
Vcyijt8r
p1
I1
sVd44knae
p2
I1
s.(dp0
Vcyijt8r
p1
I1
sVd454vhj
p2
I1
s.(dp0
Vcyijt8r
p1
I1
sVd477ysw
p2
I1
s.(dp0
Vcyijt8r
p1
I1
sVd4azwji
p2
I1
s.(dp0
Vcyijt8r
p1
I1
sVd4t5tb5
p2
I1
s.(dp0
Vcyijt8r
p1
I1
sVd4xgd8i
p2
I1
s.(dp0
Vcyijt8r
p1
I1
sVd4xggtc
p2
I1
s.(dp0
Vcyijt8r
p1
I1
sVd4xggtc
p2
I1
s.(dp0
Vcyijt8r
p1
I1
sVd4xusej
p2
I1
s.(dp0
Vcyijt8r
p1
I1
sVd4xusej
p2
I1
s.(dp0
Vcyijt8r
p1
I1
sVd4xusej
p2
I1
s.(dp0
Vcyijt8r
p1
I1
sVd4xusej
p2
I1
s.(dp0
Vcyijt8r
p1
I1
sVd4xusej
p2
I1
s.(dp0
Vcyijt8r
p1
I1
sVd4xusej
p2
I1
s.(dp0
Vd59xdse
p1
I1
sVcyijt8r
p2
I1
s.(dp0
Vcyijt8r
p1
I1
sVd5ek2ex
p2
I1
s.(dp0
Vcyijt8r
p1
I1
sVd5nmjmv
p2
I1
s.(dp0
Vcyijt8r
p1
I1
sVd5qjnks
p2
I1
s.(dp0
Vcyijt8r
p1
I1
sVd5ukzyz
p2
I1
s.(dp0
Vcyijt8r
p1
I1
sVd5vbuos
p2
I1
s.(dp0
Vcyijt8r
p1
I1
sVd5x3olp
p2
I1
s.(dp0
Vcyijt8r
p1
I1
sVd65ctfe
p2
I1
s.(dp0
Vcyijt8r
p1
I1
sVd65ctfe
p2
I1
s.(dp0
Vcyijt8r
p1
I1
sVd65ctfe
p2
I1
s.(dp0
Vd69e936
p1
I1
sVcyijt8r
p2
I1
s.(dp0
Vcyijt8r
p1
I1
sVd6dh3rf
p2
I1
s.(dp0
Vcyijt8r
p1
I1
sVd6i3brr
p2
I1
s.(dp0
Vcyijt8r
p1
I1
sVd6iapeb
p2
I1
s.(dp0
Vd6nhbs9
p1
I1
sVcyijt8r
p2
I1
s.(dp0
Vcyijt8r
p1
I1
sVd6wh4z7
p2
I1
s.(dp0
Vcyijt8r
p1
I1
sVd6wh4z7
p2
I1
s.(dp0
Vcyijt8r
p1
I1
sVd70en07
p2
I1
s.(dp0
Vd83yjvc
p1
I1
sVcyijt8r
p2
I1
s.(dp0
Vcyijt8r
p1
I1
sVd8ax39c
p2
I1
s.(dp0
Vd8gkkg7
p1
I1
sVcyijt8r
p2
I1
s.(dp0
Vcyijt8r
p1
I1
sVd8ow7b3
p2
I1
s.(dp0
Vd8uoe1x
p1
I1
sVcyijt8r
p2
I1
s.(dp0
Vcyijt8r
p1
I1
sVd8uw4a9
p2
I1
s.(dp0
Vcyijt8r
p1
I1
sVd91ifql
p2
I1
s.(dp0
Vcyijt8r
p1
I1
sVd9bqnxm
p2
I1
s.(dp0
Vcyijt8r
p1
I1
sVd9onmpt
p2
I1
s.(dp0
Vcyijt8r
p1
I1
sVd9onmpt
p2
I1
s.(dp0
Vcyijt8r
p1
I1
sVd9yd6ku
p2
I1
s.(dp0
Vcyijt8r
p1
I1
sVd9yd6ku
p2
I1
s.(dp0
Vcyijt8r
p1
I1
sVdaq3hzq
p2
I1
s.(dp0
Vcyijt8r
p1
I1
sVdaq3hzq
p2
I1
s.(dp0
Vcyijt8r
p1
I1
sVdaq3hzq
p2
I1
s.(dp0
Vcyijt8r
p1
I1
sVdaq652c
p2
I1
s.(dp0
Vcyijt8r
p1
I1
sVdaq652c
p2
I1
s.(dp0
Vcyijt8r
p1
I1
sVdaq652c
p2
I1
s.(dp0
Vcyijt8r
p1
I1
sVdaq9zww
p2
I1
s.(dp0
Vcyijt8r
p1
I1
sVdarnrfm
p2
I1
s.(dp0
Vcyijt8r
p1
I1
sVdaruwo1
p2
I1
s.(dp0
Vdatw7bx
p1
I1
sVcyijt8r
p2
I1
s.(dp0
Vcyijt8r
p1
I1
sVdatwqi1
p2
I1
s.(dp0
Vcyijt8r
p1
I1
sVda(dp0
Vcyijt8r
p1
I1
sVdoxj9yt
p2
I1
s.