(dp0
Vcyi4eou
p1
I1
s.(dp0
Vcyic3fl
p1
I1
sVcyi4eou
p2
I1
s.(dp0
Vcyic3fl
p1
I1
sVcyi4eou
p2
I1
s.(dp0
Vcyid2tj
p1
I1
sVcyi4eou
p2
I1
s.(dp0
Vcyihf2p
p1
I1
sVcyi4eou
p2
I1
s.(dp0
Vcyisxz0
p1
I1
sVcyi4eou
p2
I1
s.(dp0
Vcyj7ney
p1
I1
sVcyi4eou
p2
I1
s.(dp0
Vcyjj0jp
p1
I1
sVcyi4eou
p2
I1
s.(dp0
Vcyjsi9f
p1
I1
sVcyi4eou
p2
I1
s.(dp0
Vcyjsrxt
p1
I1
sVcyi4eou
p2
I1
s.(dp0
Vcyk80w6
p1
I1
sVcyi4eou
p2
I1
s.(dp0
Vcykcit1
p1
I1
sVcyi4eou
p2
I1
s.(dp0
Vcykhfh8
p1
I1
sVcyi4eou
p2
I1
s.(dp0
Vcykitxg
p1
I1
sVcyi4eou
p2
I1
s.(dp0
Vcyl6g19
p1
I1
sVcyi4eou
p2
I1
s.(dp0
Vcyl6g19
p1
I1
sVcyi4eou
p2
I1
s.(dp0
Vcyl6g19
p1
I1
sVcyi4eou
p2
I1
s.(dp0
Vcylta9z
p1
I1
sVcyi4eou
p2
I1
s.(dp0
Vcylz73i
p1
I1
sVcyi4eou
p2
I1
s.(dp0
Vcymrota
p1
I1
sVcyi4eou
p2
I1
s.(dp0
Vcyojnxi
p1
I1
sVcyi4eou
p2
I1
s.(dp0
Vcyonqow
p1
I1
sVcyi4eou
p2
I1
s.(dp0
Vcyozwtr
p1
I1
sVcyi4eou
p2
I1
s.(dp0
Vcyp0x59
p1
I1
sVcyi4eou
p2
I1
s.(dp0
Vcyqe6ao
p1
I1
sVcyi4eou
p2
I1
s.(dp0
Vcyqtgtq
p1
I1
sVcyi4eou
p2
I1
s.(dp0
Vcyr3mva
p1
I1
sVcyi4eou
p2
I1
s.(dp0
Vcys1yx1
p1
I1
sVcyi4eou
p2
I1
s.(dp0
Vcys7vlh
p1
I1
sVcyi4eou
p2
I1
s.(dp0
Vcysrwul
p1
I1
sVcyi4eou
p2
I1
s.(dp0
Vcysrwul
p1
I1
sVcyi4eou
p2
I1
s.(dp0
Vcyuawuj
p1
I1
sVcyi4eou
p2
I1
s.(dp0
Vcyuawuj
p1
I1
sVcyi4eou
p2
I1
s.(dp0
Vcyv1rcm
p1
I1
sVcyi4eou
p2
I1
s.(dp0
Vcyvco0u
p1
I1
sVcyi4eou
p2
I1
s.(dp0
Vcyvs2q1
p1
I1
sVcyi4eou
p2
I1
s.(dp0
Vcyw69n5
p1
I1
sVcyi4eou
p2
I1
s.(dp0
Vcywfqha
p1
I1
sVcyi4eou
p2
I1
s.(dp0
Vcyy3jh3
p1
I1
sVcyi4eou
p2
I1
s.(dp0
Vcyy3jh3
p1
I1
sVcyi4eou
p2
I1
s.(dp0
Vcyy3ut7
p1
I1
sVcyi4eou
p2
I1
s.(dp0
Vcyy3ut7
p1
I1
sVcyi4eou
p2
I1
s.(dp0
Vcyyj5y3
p1
I1
sVcyi4eou
p2
I1
s.(dp0
Vcyyrlj4
p1
I1
sVcyi4eou
p2
I1
s.(dp0
Vcyz6b7o
p1
I1
sVcyi4eou
p2
I1
s.(dp0
Vcyzcgkf
p1
I1
sVcyi4eou
p2
I1
s.(dp0
Vcyzduu7
p1
I1
sVcyi4eou
p2
I1
s.(dp0
Vcyzq50r
p1
I1
sVcyi4eou
p2
I1
s.(dp0
Vcyzrr62
p1
I1
sVcyi4eou
p2
I1
s.(dp0
Vcyzxhdr
p1
I1
sVcyi4eou
p2
I1
s.(dp0
Vcyzyhd9
p1
I1
sVcyi4eou
p2
I1
s.(dp0
Vcz00gos
p1
I1
sVcyi4eou
p2
I1
s.(dp0
Vcz02x9p
p1
I1
sVcyi4eou
p2
I1
s.(dp0
Vcz02x9p
p1
I1
sVcyi4eou
p2
I1
s.(dp0
Vcz06l5a
p1
I1
sVcyi4eou
p2
I1
s.(dp0
Vcz0i33s
p1
I1
sVcyi4eou
p2
I1
s.(dp0
Vcz0i8gq
p1
I1
sVcyi4eou
p2
I1
s.(dp0
Vcz0mqm9
p1
I1
sVcyi4eou
p2
I1
s.(dp0
Vcz0nicr
p1
I1
sVcyi4eou
p2
I1
s.(dp0
Vcz1gzvj
p1
I1
sVcyi4eou
p2
I1
s.(dp0
Vcz2hm53
p1
I1
sVcyi4eou
p2
I1
s.(dp0
Vcz2n2mj
p1
I1
sVcyi4eou
p2
I1
s.(dp0
Vcz2ucgd
p1
I1
sVcyi4eou
p2
I1
s.(dp0
Vcz2urhg
p1
I1
sVcyi4eou
p2
I1
s.(dp0
Vcz3kxk7
p1
I1
sVcyi4eou
p2
I1
s.(dp0
Vcz4jzel
p1
I1
sVcyi4eou
p2
I1
s.(dp0
Vcz53eiq
p1
I1
sVcyi4eou
p2
I1
s.(dp0
Vcz54ty7
p1
I1
sVcyi4eou
p2
I1
s.(dp0
Vcz55a16
p1
I1
sVcyi4eou
p2
I1
s.(dp0
Vcz56amx
p1
I1
sVcyi4eou
p2
I1
s.(dp0
Vcz57gsu
p1
I1
sVcyi4eou
p2
I1
s.(dp0
Vcz6gn1n
p1
I1
sVcyi4eou
p2
I1
s.(dp0
Vcz6i1ag
p1
I1
sVcyi4eou
p2
I1
s.(dp0
Vcz72arn
p1
I1
sVcyi4eou
p2
I1
s.(dp0
Vcz73ouz
p1
I1
sVcyi4eou
p2
I1
s.(dp0
Vcz7ym21
p1
I1
sVcyi4eou
p2
I1
s.(dp0
Vcz811jy
p1
I1
sVcyi4eou
p2
I1
s.(dp0
Vcz8bi1o
p1
I1
sVcyi4eou
p2
I1
s.(dp0
Vcza3gps
p1
I1
sVcyi4eou
p2
I1
s.(dp0
Vczbcn01
p1
I1
sVcyi4eou
p2
I1
s.(dp0
Vczc2y4d
p1
I1
sVcyi4eou
p2
I1
s.(dp0
Vczc2y4d
p1
I1
sVcyi4eou
p2
I1
s.(dp0
Vczc3bqx
p1
I1
sVcyi4eou
p2
I1
s.(dp0
Vczdg5d0
p1
I1
sVcyi4eou
p2
I1
s.(dp0
Vczdr5o8
p1
I1
sVcyi4eou
p2
I1
s.(dp0
Vczdropl
p1
I1
sVcyi4eou
p2
I1
s.(dp0
Vczdswgu
p1
I1
sVcyi4eou
p2
I1
s.(dp0
Vczftann
p1
I1
sVcyi4eou
p2
I1
s.(dp0
Vczghbob
p1
I1
sVcyi4eou
p2
I1
s.(dp0
Vczgkx7a
p1
I1
sVcyi4eou
p2
I1
s.(dp0
Vczgkx7a
p1
I1
sVcyi4eou
p2
I1
s.(dp0
Vczgpymc
p1
I1
sVcyi4eou
p2
I1
s.(dp0
Vczgzam4
p1
I1
sVcyi4eou
p2
I1
s.(dp0
Vczh2hvb
p1
I1
sVcyi4eou
p2
I1
s.(dp0
Vczh5x8p
p1
I1
sVcyi4eou
p2
I1
s.(dp0
Vczhk5z9
p1
I1
sVcyi4eou
p2
I1
s.(dp0
Vczhtkap
p1
I1
sVcyi4eou
p2
I1
s.(dp0
Vczhu1j7
p1
I1
sVcyi4eou
p2
I1
s.(dp0
Vczi9sp8
p1
I1
sVcyi4eou
p2
I1
s.(dp0
Vczitk4q
p1
I1
sVcyi4eou
p2
I1
s.(dp0
Vczj30qh
p1
I1
sVcyi4eou
p2
I1
s.(dp0
Vczlcojz
p1
I1
sVcyi4eou
p2
I1
s.(dp0
Vczlp34k
p1
I1
sVcyi4eou
p2
I1
s.(dp0
Vczmubj1
p1
I1
sVcyi4eou
p2
I1
s.(dp0
Vcznbuxr
p1
I1
sVcyi4eou
p2
I1
s.(dp0
Vcznixd9
p1
I1
sVcyi4eou
p2
I1
s.(dp0
Vcznol5p
p1
I1
sVcyi4eou
p2
I1
s.(dp0
Vczo3gke
p1
I1
sVcyi4eou
p2
I1
s.(dp0
Vcz(dp0
Vdp2lbzz
p1
I1
sVcyi4eou
p2
I1
s.