(dp0
Vczb1dhf
p1
I1
s.(dp0
Vczb1dhf
p1
I2
s.(dp0
Vczb1dhf
p1
I2
s.(dp0
Vczb1dhf
p1
I2
s.(dp0
Vczb1dhf
p1
I2
s.(dp0
Vczb1dhf
p1
I2
s.(dp0
Vczb1dhf
p1
I2
s.(dp0
Vczb1dhf
p1
I2
s.(dp0
Vczb1dhf
p1
I2
s.(dp0
Vczb1dhf
p1
I1
sVdatnbv3
p2
I1
s.(dp0
Vczb1dhf
p1
I1
sVdc930ik
p2
I1
s.(dp0
Vczb1dhf
p1
I1
sVdeig3pj
p2
I1
s.(dp0
Vdetalpv
p1
I1
sVczb1dhf
p2
I1
s.(dp0
Vdge9yqt
p1
I1
sVczb1dhf
p2
I1
s.(dp0
Vdh1jza1
p1
I1
sVczb1dhf
p2
I1
s.(dp0
Vdh1jza1
p1
I1
sVczb1dhf
p2
I1
s.(dp0
Vdh1jza1
p1
I1
sVczb1dhf
p2
I1
s.(dp0
Vdh1jza1
p1
I1
sVczb1dhf
p2
I1
s.(dp0
Vdh1jza1
p1
I1
sVczb1dhf
p2
I1
s.(dp0
Vdh1jza1
p1
I1
sVczb1dhf
p2
I1
s.