(dp0
Vcyi5ont
p1
I1
s.(dp0
Vcyi5ont
p1
I1
sVcyx5ms7
p2
I1
s.(dp0
Vcyi5ont
p1
I1
sVczkitki
p2
I1
s.(dp0
Vcyi5ont
p1
I1
sVd0hnafl
p2
I1
s.(dp0
Vcyi5ont
p1
I1
sVd0y5bd6
p2
I1
s.(dp0
Vcyi5ont
p1
I1
sVd171zhc
p2
I1
s.(dp0
Vcyi5ont
p1
I1
sVd2m6k3e
p2
I1
s.(dp0
Vcyi5ont
p1
I1
sVd2ph42j
p2
I1
s.(dp0
Vcyi5ont
p1
I1
sVd4sxmj7
p2
I1
s.(dp0
Vcyi5ont
p1
I1
sVd6kmoe7
p2
I1
s.(dp0
Vcyi5ont
p1
I1
sVd6qfkt3
p2
I1
s.(dp0
Vcyi5ont
p1
I1
sVd9cn6gu
p2
I1
s.(dp0
Vcyi5ont
p1
I1
sVd9uwyui
p2
I1
s.(dp0
Vcyi5ont
p1
I1
sVdbspddp
p2
I1
s.(dp0
Vcyi5ont
p1
I1
sVdcwutp4
p2
I1
s.(dp0
Vcyi5ont
p1
I1
sVdd7mh10
p2
I1
s.(dp0
Vcyi5ont
p1
I1
sVddwx7u6
p2
I1
s.(dp0
Vcyi5ont
p1
I1
sVdflixy9
p2
I1
s.(dp0
Vcyi5ont
p1
I1
sVdfqtlwx
p2
I1
s.(dp0
Vcyi5ont
p1
I1
sVdgtlwpk
p2
I1
s.(dp0
Vcyi5ont
p1
I1
sVdh5haej
p2
I1
s.(dp0
Vcyi5ont
p1
I1
sVdhc20qn
p2
I1
s.(dp0
Vcyi5ont
p1
I1
sVdjvug9v
p2
I1
s.