(dp0
Vcym92k3
p1
I1
s.(dp0
Vcyze6tn
p1
I1
sVcym92k3
p2
I1
s.(dp0
Vcz0ewym
p1
I1
sVcym92k3
p2
I1
s.(dp0
Vcz5n786
p1
I1
sVcym92k3
p2
I1
s.(dp0
Vcym92k3
p1
I1
sVcz6adcq
p2
I1
s.(dp0
Vcym92k3
p1
I1
sVcz6adcq
p2
I1
s.(dp0
Vcym92k3
p1
I1
sVczk1z2w
p2
I1
s.(dp0
Vczk319t
p1
I1
sVcym92k3
p2
I1
s.(dp0
Vcym92k3
p1
I1
sVczkluco
p2
I1
s.(dp0
Vcym92k3
p1
I1
sVczkluco
p2
I1
s.(dp0
Vcym92k3
p1
I1
sVczkluco
p2
I1
s.(dp0
Vcym92k3
p1
I1
sVczkluco
p2
I1
s.(dp0
Vczxqx3t
p1
I1
sVcym92k3
p2
I1
s.(dp0
Vd017avt
p1
I1
sVcym92k3
p2
I1
s.(dp0
Vd01btao
p1
I1
sVcym92k3
p2
I1
s.(dp0
Vd0co86o
p1
I1
sVcym92k3
p2
I1
s.(dp0
Vd0lvu2b
p1
I1
sVcym92k3
p2
I1
s.(dp0
Vcym92k3
p1
I1
sVd13zynd
p2
I1
s.(dp0
Vd162xe1
p1
I1
sVcym92k3
p2
I1
s.(dp0
Vcym92k3
p1
I1
sVd1decp6
p2
I1
s.(dp0
Vcym92k3
p1
I1
sVd1gkbcl
p2
I1
s.(dp0
Vd1kuet4
p1
I1
sVcym92k3
p2
I1
s.(dp0
Vd1kuet4
p1
I1
sVcym92k3
p2
I1
s.(dp0
Vd2uld7j
p1
I1
sVcym92k3
p2
I1
s.(dp0
Vd2ulfvp
p1
I1
sVcym92k3
p2
I1
s.(dp0
Vd34d5zi
p1
I1
sVcym92k3
p2
I1
s.(dp0
Vcym92k3
p1
I1
sVd3a2w85
p2
I1
s.(dp0
Vd3vfz9q
p1
I1
sVcym92k3
p2
I1
s.(dp0
Vd3vfz9q
p1
I1
sVcym92k3
p2
I1
s.(dp0
Vd3vfz9q
p1
I1
sVcym92k3
p2
I1
s.(dp0
Vd3vfz9q
p1
I1
sVcym92k3
p2
I1
s.(dp0
Vd3vfz9q
p1
I1
sVcym92k3
p2
I1
s.(dp0
Vd3vfz9q
p1
I1
sVcym92k3
p2
I1
s.(dp0
Vd3vfz9q
p1
I1
sVcym92k3
p2
I1
s.(dp0
Vd3vfz9q
p1
I1
sVcym92k3
p2
I1
s.(dp0
Vd3vfz9q
p1
I1
sVcym92k3
p2
I1
s.(dp0
Vd3w0gqd
p1
I1
sVcym92k3
p2
I1
s.(dp0
Vd3w0hcx
p1
I1
sVcym92k3
p2
I1
s.(dp0
Vcym92k3
p1
I1
sVd3w604v
p2
I1
s.(dp0
Vcym92k3
p1
I1
sVd3w604v
p2
I1
s.(dp0
Vd3wmzom
p1
I1
sVcym92k3
p2
I1
s.(dp0
Vd3wmzom
p1
I1
sVcym92k3
p2
I1
s.(dp0
Vd3wmzom
p1
I1
sVcym92k3
p2
I1
s.(dp0
Vd3wpui2
p1
I1
sVcym92k3
p2
I1
s.(dp0
Vd57qt7g
p1
I1
sVcym92k3
p2
I1
s.(dp0
Vd5frsqr
p1
I1
sVcym92k3
p2
I1
s.(dp0
Vd5frsqr
p1
I1
sVcym92k3
p2
I1
s.(dp0
Vcym92k3
p1
I1
sVd5fskzg
p2
I1
s.(dp0
Vd5y4lum
p1
I1
sVcym92k3
p2
I1
s.(dp0
Vcym92k3
p1
I1
sVd62qsjr
p2
I1
s.(dp0
Vd63tkp6
p1
I1
sVcym92k3
p2
I1
s.(dp0
Vd69e936
p1
I1
sVcym92k3
p2
I1
s.(dp0
Vd69e936
p1
I1
sVcym92k3
p2
I1
s.(dp0
Vd69e936
p1
I1
sVcym92k3
p2
I1
s.(dp0
Vd69e936
p1
I1
sVcym92k3
p2
I1
s.(dp0
Vd69e936
p1
I1
sVcym92k3
p2
I1
s.(dp0
Vd6y0nks
p1
I1
sVcym92k3
p2
I1
s.(dp0
Vd75cagf
p1
I1
sVcym92k3
p2
I1
s.(dp0
Vd7h1lri
p1
I1
sVcym92k3
p2
I1
s.(dp0
Vd7h1lri
p1
I1
sVcym92k3
p2
I1
s.(dp0
Vcym92k3
p1
I1
sVd7lt9gm
p2
I1
s.(dp0
Vcym92k3
p1
I1
sVd7lt9gm
p2
I1
s.(dp0
Vcym92k3
p1
I1
sVd7lt9gm
p2
I1
s.(dp0
Vcym92k3
p1
I1
sVd7lt9gm
p2
I1
s.(dp0
Vcym92k3
p1
I1
sVd7lt9gm
p2
I1
s.(dp0
Vcym92k3
p1
I1
sVd7n4blw
p2
I1
s.(dp0
Vcym92k3
p1
I1
sVd86wokt
p2
I1
s.(dp0
Vcym92k3
p1
I1
sVd88s2y6
p2
I1
s.(dp0
Vd89u33b
p1
I1
sVcym92k3
p2
I1
s.(dp0
Vd8mbasr
p1
I1
sVcym92k3
p2
I1
s.(dp0
Vd8ntygr
p1
I1
sVcym92k3
p2
I1
s.(dp0
Vd8ntygr
p1
I1
sVcym92k3
p2
I1
s.(dp0
Vd8nvkbt
p1
I1
sVcym92k3
p2
I1
s.(dp0
Vcym92k3
p1
I1
sVd9hdw2c
p2
I1
s.(dp0
Vda5iso1
p1
I1
sVcym92k3
p2
I1
s.(dp0
Vdaelgqy
p1
I1
sVcym92k3
p2
I1
s.(dp0
Vcym92k3
p1
I1
sVdali7nh
p2
I1
s.(dp0
Vcym92k3
p1
I1
sVdau5075
p2
I1
s.(dp0
Vdau6t0k
p1
I1
sVcym92k3
p2
I1
s.(dp0
Vcym92k3
p1
I1
sVdax1v7y
p2
I1
s.(dp0
Vdbrx8zh
p1
I1
sVcym92k3
p2
I1
s.(dp0
Vdc48ta4
p1
I1
sVcym92k3
p2
I1
s.(dp0
Vdci6hyt
p1
I1
sVcym92k3
p2
I1
s.(dp0
Vcym92k3
p1
I1
sVdd0q5z0
p2
I1
s.(dp0
Vcym92k3
p1
I1
sVdd2lul7
p2
I1
s.(dp0
Vcym92k3
p1
I1
sVdd2lul7
p2
I1
s.(dp0
Vcym92k3
p1
I1
sVdd2lul7
p2
I1
s.(dp0
Vcym92k3
p1
I1
sVdd2lul7
p2
I1
s.(dp0
Vdd6gtn8
p1
I1
sVcym92k3
p2
I1
s.(dp0
Vdd6gtn8
p1
I1
sVcym92k3
p2
I1
s.(dp0
Vdd6gtn8
p1
I1
sVcym92k3
p2
I1
s.(dp0
Vdd7nafo
p1
I1
sVcym92k3
p2
I1
s.(dp0
Vddcsz14
p1
I1
sVcym92k3
p2
I1
s.(dp0
Vddnc9jz
p1
I1
sVcym92k3
p2
I1
s.(dp0
Vddq6sik
p1
I1
sVcym92k3
p2
I1
s.(dp0
Vde4c8wo
p1
I1
sVcym92k3
p2
I1
s.(dp0
Vde4c8wo
p1
I1
sVcym92k3
p2
I1
s.(dp0
Vcym92k3
p1
I1
sVde4owyl
p2
I1
s.(dp0
Vde4twwe
p1
I1
sVcym92k3
p2
I1
s.(dp0
Vcym92k3
p1
I1
sVdekiqu3
p2
I1
s.(dp0
Vcym92k3
p1
I1
sVdekiqu3
p2
I1
s.(dp0
Vcym92k3
p1
I1
sVdekiqu3
p2
I1
s.(dp0
Vcym92k3
p1
I1
sVdekiqu3
p2
I1
s.(dp0
Vcym92k3
p1
I1
sVdekiqu3
p2
I1
s.(dp0
Vcym92k3
p1
I1
sVdekiqu3
p2
I1
s.(dp0
Vcym92k3
p1
I1
sVdekiqu3
p2
I1
s.(dp0
Vcym92k3
p1
I1
sVdekiqu3
p2
I1
s.(dp0
Vcym92k3
p1
I1
sVdekiqu3
p2
I1
s.(dp0
Vcy(dp0
Vcym92k3
p1
I1
sVdogwha6
p2
I1
s.