(dp0
Vcyilg1q
p1
I1
s.(dp0
Vcyilg1q
p1
I1
sVcyilgoc
p2
I1
s.(dp0
Vcyim32d
p1
I1
sVcyilg1q
p2
I1
s.(dp0
Vcyim32d
p1
I1
sVcyilg1q
p2
I1
s.(dp0
Vcyim32d
p1
I1
sVcyilg1q
p2
I1
s.(dp0
Vcyilg1q
p1
I1
sVcyiphx8
p2
I1
s.(dp0
Vcymck4f
p1
I1
sVcyilg1q
p2
I1
s.(dp0
Vcyilg1q
p1
I1
sVcynj6as
p2
I1
s.(dp0
Vcyilg1q
p1
I1
sVcyq3ndk
p2
I1
s.(dp0
Vcz6qxfc
p1
I1
sVcyilg1q
p2
I1
s.(dp0
Vcyilg1q
p1
I1
sVcz9fipj
p2
I1
s.(dp0
Vcza9btb
p1
I1
sVcyilg1q
p2
I1
s.(dp0
Vczkkify
p1
I1
sVcyilg1q
p2
I1
s.(dp0
Vcyilg1q
p1
I1
sVczo8n2j
p2
I1
s.(dp0
Vczw9cj3
p1
I1
sVcyilg1q
p2
I1
s.(dp0
Vcyilg1q
p1
I1
sVd058pmh
p2
I1
s.(dp0
Vd05li1s
p1
I1
sVcyilg1q
p2
I1
s.(dp0
Vd05uc4r
p1
I1
sVcyilg1q
p2
I1
s.(dp0
Vcyilg1q
p1
I1
sVd07qy8a
p2
I1
s.(dp0
Vcyilg1q
p1
I1
sVd0c20q0
p2
I1
s.(dp0
Vcyilg1q
p1
I1
sVd0eji4t
p2
I1
s.(dp0
Vcyilg1q
p1
I1
sVd0mapvm
p2
I1
s.(dp0
Vcyilg1q
p1
I1
sVd0thm01
p2
I1
s.(dp0
Vcyilg1q
p1
I1
sVd0xcfor
p2
I1
s.(dp0
Vcyilg1q
p1
I1
sVd15jcto
p2
I1
s.(dp0
Vd16qbed
p1
I1
sVcyilg1q
p2
I1
s.(dp0
Vcyilg1q
p1
I1
sVd16qi4y
p2
I1
s.(dp0
Vcyilg1q
p1
I1
sVd177xni
p2
I1
s.(dp0
Vcyilg1q
p1
I1
sVd1giu2s
p2
I1
s.(dp0
Vcyilg1q
p1
I1
sVd1giu2s
p2
I1
s.(dp0
Vd1hz9je
p1
I1
sVcyilg1q
p2
I1
s.(dp0
Vd1hz9je
p1
I1
sVcyilg1q
p2
I1
s.(dp0
Vd1hz9je
p1
I1
sVcyilg1q
p2
I1
s.(dp0
Vd1lfgul
p1
I1
sVcyilg1q
p2
I1
s.(dp0
Vcyilg1q
p1
I1
sVd1n8it6
p2
I1
s.(dp0
Vcyilg1q
p1
I1
sVd1x5f0o
p2
I1
s.(dp0
Vcyilg1q
p1
I1
sVd1x5qz8
p2
I1
s.(dp0
Vd1zl557
p1
I1
sVcyilg1q
p2
I1
s.(dp0
Vcyilg1q
p1
I1
sVd23pulc
p2
I1
s.(dp0
Vcyilg1q
p1
I1
sVd245ng8
p2
I1
s.(dp0
Vcyilg1q
p1
I1
sVd27bjeu
p2
I1
s.(dp0
Vcyilg1q
p1
I1
sVd27bjeu
p2
I1
s.(dp0
Vd2ezz6g
p1
I1
sVcyilg1q
p2
I1
s.(dp0
Vd2ezz6g
p1
I1
sVcyilg1q
p2
I1
s.(dp0
Vd2jwapp
p1
I1
sVcyilg1q
p2
I1
s.(dp0
Vd2qr7vr
p1
I1
sVcyilg1q
p2
I1
s.(dp0
Vcyilg1q
p1
I1
sVd2s9u28
p2
I1
s.(dp0
Vd2t0qko
p1
I1
sVcyilg1q
p2
I1
s.(dp0
Vcyilg1q
p1
I1
sVd2tzla6
p2
I1
s.(dp0
Vcyilg1q
p1
I1
sVd2uupm4
p2
I1
s.(dp0
Vcyilg1q
p1
I1
sVd2x0qqt
p2
I1
s.(dp0
Vcyilg1q
p1
I1
sVd37pr1h
p2
I1
s.(dp0
Vd3a7zdk
p1
I1
sVcyilg1q
p2
I1
s.(dp0
Vd3wmzom
p1
I1
sVcyilg1q
p2
I1
s.(dp0
Vcyilg1q
p1
I1
sVd3xzbgz
p2
I1
s.(dp0
Vcyilg1q
p1
I1
sVd457gbq
p2
I1
s.(dp0
Vcyilg1q
p1
I1
sVd47907s
p2
I1
s.(dp0
Vd4bh14r
p1
I1
sVcyilg1q
p2
I1
s.(dp0
Vcyilg1q
p1
I1
sVd4cyv0n
p2
I1
s.(dp0
Vd4gmgdl
p1
I1
sVcyilg1q
p2
I1
s.(dp0
Vd4h7esf
p1
I1
sVcyilg1q
p2
I1
s.(dp0
Vd4ihii6
p1
I1
sVcyilg1q
p2
I1
s.(dp0
Vcyilg1q
p1
I1
sVd4lqivm
p2
I1
s.(dp0
Vcyilg1q
p1
I1
sVd51xfk1
p2
I1
s.(dp0
Vd52mnbm
p1
I1
sVcyilg1q
p2
I1
s.(dp0
Vd52nnxf
p1
I1
sVcyilg1q
p2
I1
s.(dp0
Vcyilg1q
p1
I1
sVd53amuf
p2
I1
s.(dp0
Vcyilg1q
p1
I1
sVd58elel
p2
I1
s.(dp0
Vd59eo36
p1
I1
sVcyilg1q
p2
I1
s.(dp0
Vcyilg1q
p1
I1
sVd5ce0fr
p2
I1
s.(dp0
Vd5giklg
p1
I1
sVcyilg1q
p2
I1
s.(dp0
Vcyilg1q
p1
I1
sVd5jc20q
p2
I1
s.(dp0
Vd5k4uso
p1
I1
sVcyilg1q
p2
I1
s.(dp0
Vd5muhlo
p1
I1
sVcyilg1q
p2
I1
s.(dp0
Vcyilg1q
p1
I1
sVd5q32ic
p2
I1
s.(dp0
Vd5q4b77
p1
I1
sVcyilg1q
p2
I1
s.(dp0
Vd5xyc8f
p1
I1
sVcyilg1q
p2
I1
s.(dp0
Vcyilg1q
p1
I1
sVd61phnu
p2
I1
s.(dp0
Vcyilg1q
p1
I1
sVd6jkehc
p2
I1
s.(dp0
Vd7e9ouz
p1
I1
sVcyilg1q
p2
I1
s.(dp0
Vd7ejsjw
p1
I1
sVcyilg1q
p2
I1
s.(dp0
Vd7ejsjw
p1
I1
sVcyilg1q
p2
I1
s.(dp0
Vd7irhe3
p1
I1
sVcyilg1q
p2
I1
s.(dp0
Vd7irhe3
p1
I1
sVcyilg1q
p2
I1
s.(dp0
Vcyilg1q
p1
I1
sVd7r20sp
p2
I1
s.(dp0
Vd7roqms
p1
I1
sVcyilg1q
p2
I1
s.(dp0
Vcyilg1q
p1
I1
sVd7y1dux
p2
I1
s.(dp0
Vcyilg1q
p1
I1
sVd813wmv
p2
I1
s.(dp0
Vcyilg1q
p1
I1
sVd8636c4
p2
I1
s.(dp0
Vcyilg1q
p1
I1
sVd8chuvd
p2
I1
s.(dp0
Vd8kebta
p1
I1
sVcyilg1q
p2
I1
s.(dp0
Vcyilg1q
p1
I1
sVd8m44t1
p2
I1
s.(dp0
Vd8o9g8h
p1
I1
sVcyilg1q
p2
I1
s.(dp0
Vcyilg1q
p1
I1
sVd8ufb9s
p2
I1
s.(dp0
Vcyilg1q
p1
I1
sVd8ufb9s
p2
I1
s.(dp0
Vcyilg1q
p1
I1
sVd8ufb9s
p2
I1
s.(dp0
Vcyilg1q
p1
I1
sVd8ufb9s
p2
I1
s.(dp0
Vd90kkwb
p1
I1
sVcyilg1q
p2
I1
s.(dp0
Vd90kkwb
p1
I1
sVcyilg1q
p2
I1
s.(dp0
Vcyilg1q
p1
I1
sVd96obki
p2
I1
s.(dp0
Vcyilg1q
p1
I1
sVd9bpgyv
p2
I1
s.(dp0
Vd9vqmxt
p1
I1
sVcyilg1q
p2
I1
s.(dp0
Vd9vqmxt
p1
I1
sVcyilg1q
p2
I1
s.(dp0
Vcyilg1q
p1
I1
sVda5cnnk
p2
I1
s.(dp0
Vcyilg1q
p1
I1
sVda6mbv0
p2
I1
s.(dp0
Vcyilg1q
p1
I1
sVda7ibit
p2
I1
s.(dp0
Vcyilg1q
p1
I1
sVdaawsry
p2
I1
s.(dp0
Vdak1srl
p1
I1
sVcyilg1q
p2
I1
s.(dp0
Vda(dp0
Vdozd180
p1
I1
sVcyilg1q
p2
I1
s.