(dp0
Vcz0q6ef
p1
I1
s.(dp0
Vcz0q6ef
p1
I2
s.(dp0
Vcz0q6ef
p1
I2
s.(dp0
Vczirst8
p1
I1
sVcz0q6ef
p2
I1
s.(dp0
Vd2rdlfo
p1
I1
sVcz0q6ef
p2
I1
s.(dp0
Vd4ce2h8
p1
I1
sVcz0q6ef
p2
I1
s.(dp0
Vd5b9968
p1
I1
sVcz0q6ef
p2
I1
s.(dp0
Vdb0h1it
p1
I1
sVcz0q6ef
p2
I1
s.(dp0
Vdberuzr
p1
I1
sVcz0q6ef
p2
I1
s.(dp0
Vdcb5p9b
p1
I1
sVcz0q6ef
p2
I1
s.(dp0
Vdcb5qo0
p1
I1
sVcz0q6ef
p2
I1
s.(dp0
Vcz0q6ef
p1
I1
sVdd17vlv
p2
I1
s.(dp0
Vdddpc95
p1
I1
sVcz0q6ef
p2
I1
s.(dp0
Vdddpc95
p1
I1
sVcz0q6ef
p2
I1
s.(dp0
Vdddpc95
p1
I1
sVcz0q6ef
p2
I1
s.(dp0
Vderkfcb
p1
I1
sVcz0q6ef
p2
I1
s.(dp0
Vdg2p81y
p1
I1
sVcz0q6ef
p2
I1
s.(dp0
Vdh2n0tl
p1
I1
sVcz0q6ef
p2
I1
s.(dp0
Vdhxqagk
p1
I1
sVcz0q6ef
p2
I1
s.(dp0
Vdki0q75
p1
I1
sVcz0q6ef
p2
I1
s.(dp0
Vcz0q6ef
p1
I1
sVdknub6d
p2
I1
s.(dp0
Vdopzbzh
p1
I1
sVcz0q6ef
p2
I1
s.