(dp0
Vcyvxse1
p1
I1
s.(dp0
Vcyvxse1
p1
I2
s.(dp0
Vcyvxse1
p1
I1
sVd31ot4a
p2
I1
s.(dp0
Vcyvxse1
p1
I1
sVd4x08cg
p2
I1
s.(dp0
Vcyvxse1
p1
I1
sVddi4hh5
p2
I1
s.(dp0
Vcyvxse1
p1
I1
sVdiz28cy
p2
I1
s.(dp0
Vcyvxse1
p1
I1
sVdj28bq6
p2
I1
s.