(dp0
Vcz1ov1x
p1
I1
s.(dp0
Vd0gdp0h
p1
I1
sVcz1ov1x
p2
I1
s.(dp0
Vd0q5ubn
p1
I1
sVcz1ov1x
p2
I1
s.(dp0
Vd3kkha2
p1
I1
sVcz1ov1x
p2
I1
s.(dp0
Vd40vv7z
p1
I1
sVcz1ov1x
p2
I1
s.(dp0
Vd42cbeg
p1
I1
sVcz1ov1x
p2
I1
s.(dp0
Vd5g9xx7
p1
I1
sVcz1ov1x
p2
I1
s.(dp0
Vd5q07j3
p1
I1
sVcz1ov1x
p2
I1
s.(dp0
Vd8y0xrw
p1
I1
sVcz1ov1x
p2
I1
s.(dp0
Vd97iljp
p1
I1
sVcz1ov1x
p2
I1
s.(dp0
Vdb9un2v
p1
I1
sVcz1ov1x
p2
I1
s.(dp0
Vdbdtmx0
p1
I1
sVcz1ov1x
p2
I1
s.(dp0
Vdcaejfr
p1
I1
sVcz1ov1x
p2
I1
s.(dp0
Vddigmg0
p1
I1
sVcz1ov1x
p2
I1
s.(dp0
Vddigmg0
p1
I1
sVcz1ov1x
p2
I1
s.(dp0
Vdesyvrg
p1
I1
sVcz1ov1x
p2
I1
s.(dp0
Vdeuu8ap
p1
I1
sVcz1ov1x
p2
I1
s.(dp0
Vdfprstm
p1
I1
sVcz1ov1x
p2
I1
s.(dp0
Vdia7xwl
p1
I1
sVcz1ov1x
p2
I1
s.(dp0
Vdizaybg
p1
I1
sVcz1ov1x
p2
I1
s.(dp0
Vdizjh85
p1
I1
sVcz1ov1x
p2
I1
s.