(dp0
Vcyoxmfu
p1
I1
s.(dp0
Vcyoxmfu
p1
I1
sVcyxu6tx
p2
I1
s.(dp0
Vcyoxmfu
p1
I1
sVcz36hm6
p2
I1
s.(dp0
Vcyoxmfu
p1
I1
sVcz383e9
p2
I1
s.(dp0
Vcyoxmfu
p1
I1
sVcz383e9
p2
I1
s.(dp0
Vcyoxmfu
p1
I1
sVcz383e9
p2
I1
s.(dp0
Vcyoxmfu
p1
I1
sVcz3rw32
p2
I1
s.(dp0
Vcyoxmfu
p1
I1
sVczhdzpj
p2
I1
s.(dp0
Vcyoxmfu
p1
I1
sVd0jvojp
p2
I1
s.(dp0
Vd10ti1r
p1
I1
sVcyoxmfu
p2
I1
s.(dp0
Vcyoxmfu
p1
I1
sVd10z4yt
p2
I1
s.(dp0
Vcyoxmfu
p1
I1
sVd10z4yt
p2
I1
s.(dp0
Vcyoxmfu
p1
I1
sVd20ms6i
p2
I1
s.(dp0
Vcyoxmfu
p1
I1
sVd6inx8i
p2
I1
s.(dp0
Vcyoxmfu
p1
I1
sVd6ltywn
p2
I1
s.(dp0
Vcyoxmfu
p1
I1
sVd6ltywn
p2
I1
s.(dp0
Vcyoxmfu
p1
I1
sVd6ncx8u
p2
I1
s.(dp0
Vcyoxmfu
p1
I1
sVd8ujql4
p2
I1
s.(dp0
Vcyoxmfu
p1
I1
sVd99b9ng
p2
I1
s.(dp0
Vda580iz
p1
I1
sVcyoxmfu
p2
I1
s.(dp0
Vcyoxmfu
p1
I1
sVdav3fzz
p2
I1
s.(dp0
Vdazmak4
p1
I1
sVcyoxmfu
p2
I1
s.(dp0
Vcyoxmfu
p1
I1
sVddk4zqn
p2
I1
s.(dp0
Vdex7cpw
p1
I1
sVcyoxmfu
p2
I1
s.(dp0
Vcyoxmfu
p1
I1
sVdfle62v
p2
I1
s.(dp0
Vcyoxmfu
p1
I1
sVdj2dmfv
p2
I1
s.(dp0
Vdj2yfv4
p1
I1
sVcyoxmfu
p2
I1
s.(dp0
Vcyoxmfu
p1
I1
sVdj6yy5t
p2
I1
s.(dp0
Vcyoxmfu
p1
I1
sVdka1k9w
p2
I1
s.