(dp0
Vczpw77f
p1
I1
s.(dp0
Vczpw77f
p1
I1
sVd05x8vo
p2
I1
s.(dp0
Vd0ei24f
p1
I1
sVczpw77f
p2
I1
s.(dp0
Vd0wrki1
p1
I1
sVczpw77f
p2
I1
s.(dp0
Vczpw77f
p1
I1
sVd2026py
p2
I1
s.(dp0
Vczpw77f
p1
I1
sVd21598u
p2
I1
s.(dp0
Vd2hvx5b
p1
I1
sVczpw77f
p2
I1
s.(dp0
Vczpw77f
p1
I1
sVd355106
p2
I1
s.(dp0
Vczpw77f
p1
I1
sVd45sefn
p2
I1
s.(dp0
Vczpw77f
p1
I1
sVd4zbafq
p2
I1
s.(dp0
Vczpw77f
p1
I1
sVd54qn1f
p2
I1
s.(dp0
Vd5opyk3
p1
I1
sVczpw77f
p2
I1
s.(dp0
Vd5volv1
p1
I1
sVczpw77f
p2
I1
s.(dp0
Vczpw77f
p1
I1
sVd5zizgh
p2
I1
s.(dp0
Vczpw77f
p1
I1
sVd7b7cdg
p2
I1
s.(dp0
Vczpw77f
p1
I1
sVd84ejyr
p2
I1
s.(dp0
Vczpw77f
p1
I1
sVd8ftjrh
p2
I1
s.(dp0
Vczpw77f
p1
I1
sVd9egh8s
p2
I1
s.(dp0
Vczpw77f
p1
I1
sVd9tr878
p2
I1
s.(dp0
Vczpw77f
p1
I1
sVda16nm2
p2
I1
s.(dp0
Vda5j6jz
p1
I1
sVczpw77f
p2
I1
s.(dp0
Vdai99h6
p1
I1
sVczpw77f
p2
I1
s.(dp0
Vczpw77f
p1
I1
sVdawjgrz
p2
I1
s.(dp0
Vczpw77f
p1
I1
sVdbx7dmp
p2
I1
s.(dp0
Vdd5n21y
p1
I1
sVczpw77f
p2
I1
s.(dp0
Vczpw77f
p1
I1
sVddhjeob
p2
I1
s.(dp0
Vddi5w0x
p1
I1
sVczpw77f
p2
I1
s.(dp0
Vczpw77f
p1
I1
sVddojexa
p2
I1
s.(dp0
Vczpw77f
p1
I1
sVddyi67g
p2
I1
s.(dp0
Vczpw77f
p1
I1
sVddyi67g
p2
I1
s.(dp0
Vdfau1yh
p1
I1
sVczpw77f
p2
I1
s.(dp0
Vczpw77f
p1
I1
sVdgpmpzm
p2
I1
s.(dp0
Vczpw77f
p1
I1
sVdgpmpzm
p2
I1
s.(dp0
Vczpw77f
p1
I1
sVdh53wfb
p2
I1
s.(dp0
Vczpw77f
p1
I1
sVdijinwi
p2
I1
s.