(dp0
Vcyj2gql
p1
I1
s.(dp0
Vcyj2gql
p1
I1
sVcykzeoi
p2
I1
s.(dp0
Vcyl62hi
p1
I1
sVcyj2gql
p2
I1
s.(dp0
Vcyj2gql
p1
I1
sVcyla00w
p2
I1
s.(dp0
Vcyj2gql
p1
I1
sVcyla00w
p2
I1
s.(dp0
Vcyj2gql
p1
I1
sVcyla00w
p2
I1
s.(dp0
Vcyj2gql
p1
I1
sVcyla00w
p2
I1
s.(dp0
Vcyj2gql
p1
I1
sVcyla00w
p2
I1
s.(dp0
Vcylc273
p1
I1
sVcyj2gql
p2
I1
s.(dp0
Vcylc273
p1
I1
sVcyj2gql
p2
I1
s.(dp0
Vcyj2gql
p1
I1
sVcyldgzm
p2
I1
s.(dp0
Vcyn54aj
p1
I1
sVcyj2gql
p2
I1
s.(dp0
Vcyqrpp5
p1
I1
sVcyj2gql
p2
I1
s.(dp0
Vcyqueyk
p1
I1
sVcyj2gql
p2
I1
s.(dp0
Vcyqueyk
p1
I1
sVcyj2gql
p2
I1
s.(dp0
Vcyj2gql
p1
I1
sVcyqva43
p2
I1
s.(dp0
Vcyu1peg
p1
I1
sVcyj2gql
p2
I1
s.(dp0
Vcyyd1qi
p1
I1
sVcyj2gql
p2
I1
s.(dp0
Vcyj2gql
p1
I1
sVcz0h5dh
p2
I1
s.(dp0
Vcz0i8gq
p1
I1
sVcyj2gql
p2
I1
s.(dp0
Vcz27hvo
p1
I1
sVcyj2gql
p2
I1
s.(dp0
Vcyj2gql
p1
I1
sVcz30mri
p2
I1
s.(dp0
Vcyj2gql
p1
I1
sVcz4rfen
p2
I1
s.(dp0
Vcyj2gql
p1
I1
sVcz5gz88
p2
I1
s.(dp0
Vcyj2gql
p1
I1
sVcz5gz88
p2
I1
s.(dp0
Vcyj2gql
p1
I1
sVcz5gz88
p2
I1
s.(dp0
Vcyj2gql
p1
I1
sVcz7mh36
p2
I1
s.(dp0
Vcyj2gql
p1
I1
sVcz7mh36
p2
I1
s.(dp0
Vcz8remk
p1
I1
sVcyj2gql
p2
I1
s.(dp0
Vcz91fkk
p1
I1
sVcyj2gql
p2
I1
s.(dp0
Vcyj2gql
p1
I1
sVczaoo78
p2
I1
s.(dp0
Vczb4qfy
p1
I1
sVcyj2gql
p2
I1
s.(dp0
Vcyj2gql
p1
I1
sVczdp60k
p2
I1
s.(dp0
Vcyj2gql
p1
I1
sVczdr5o8
p2
I1
s.(dp0
Vcyj2gql
p1
I1
sVczdr5o8
p2
I1
s.(dp0
Vczgy3k3
p1
I1
sVcyj2gql
p2
I1
s.(dp0
Vczil6a0
p1
I1
sVcyj2gql
p2
I1
s.(dp0
Vczk4s66
p1
I1
sVcyj2gql
p2
I1
s.(dp0
Vcyj2gql
p1
I1
sVczk82h4
p2
I1
s.(dp0
Vcyj2gql
p1
I1
sVczmddwp
p2
I1
s.(dp0
Vczmfihq
p1
I1
sVcyj2gql
p2
I1
s.(dp0
Vczmfihq
p1
I1
sVcyj2gql
p2
I1
s.(dp0
Vcznpo2i
p1
I1
sVcyj2gql
p2
I1
s.(dp0
Vczq26dr
p1
I1
sVcyj2gql
p2
I1
s.(dp0
Vczryfzm
p1
I1
sVcyj2gql
p2
I1
s.(dp0
Vczryfzm
p1
I1
sVcyj2gql
p2
I1
s.(dp0
Vczryfzm
p1
I1
sVcyj2gql
p2
I1
s.(dp0
Vczryfzm
p1
I1
sVcyj2gql
p2
I1
s.(dp0
Vczryfzm
p1
I1
sVcyj2gql
p2
I1
s.(dp0
Vcyj2gql
p1
I1
sVczs0lda
p2
I1
s.(dp0
Vcyj2gql
p1
I1
sVczs0lda
p2
I1
s.(dp0
Vczx0mln
p1
I1
sVcyj2gql
p2
I1
s.(dp0
Vczx0mln
p1
I1
sVcyj2gql
p2
I1
s.(dp0
Vcyj2gql
p1
I1
sVd009ees
p2
I1
s.(dp0
Vd04qpi7
p1
I1
sVcyj2gql
p2
I1
s.(dp0
Vcyj2gql
p1
I1
sVd05ghcn
p2
I1
s.(dp0
Vd0clt0i
p1
I1
sVcyj2gql
p2
I1
s.(dp0
Vcyj2gql
p1
I1
sVd0ekgej
p2
I1
s.(dp0
Vcyj2gql
p1
I1
sVd0hf3mn
p2
I1
s.(dp0
Vd0jmho6
p1
I1
sVcyj2gql
p2
I1
s.(dp0
Vcyj2gql
p1
I1
sVd0ka5rx
p2
I1
s.(dp0
Vd0l1sv5
p1
I1
sVcyj2gql
p2
I1
s.(dp0
Vcyj2gql
p1
I1
sVd0l88s0
p2
I1
s.(dp0
Vd0pince
p1
I1
sVcyj2gql
p2
I1
s.(dp0
Vcyj2gql
p1
I1
sVd0shmuh
p2
I1
s.(dp0
Vd0spyku
p1
I1
sVcyj2gql
p2
I1
s.(dp0
Vcyj2gql
p1
I1
sVd0usbyd
p2
I1
s.(dp0
Vd0xds9w
p1
I1
sVcyj2gql
p2
I1
s.(dp0
Vd0xp6t1
p1
I1
sVcyj2gql
p2
I1
s.(dp0
Vd0z7a0c
p1
I1
sVcyj2gql
p2
I1
s.(dp0
Vd0z7a0c
p1
I1
sVcyj2gql
p2
I1
s.(dp0
Vd10er7d
p1
I1
sVcyj2gql
p2
I1
s.(dp0
Vd10er7d
p1
I1
sVcyj2gql
p2
I1
s.(dp0
Vcyj2gql
p1
I1
sVd12xgn3
p2
I1
s.(dp0
Vcyj2gql
p1
I1
sVd12xgn3
p2
I1
s.(dp0
Vcyj2gql
p1
I1
sVd13pksz
p2
I1
s.(dp0
Vd14bx4y
p1
I1
sVcyj2gql
p2
I1
s.(dp0
Vcyj2gql
p1
I1
sVd14s5w2
p2
I1
s.(dp0
Vd18eak4
p1
I1
sVcyj2gql
p2
I1
s.(dp0
Vd1cidn8
p1
I1
sVcyj2gql
p2
I1
s.(dp0
Vcyj2gql
p1
I1
sVd1e1zhn
p2
I1
s.(dp0
Vd1f1gnz
p1
I1
sVcyj2gql
p2
I1
s.(dp0
Vd1gfqyu
p1
I1
sVcyj2gql
p2
I1
s.(dp0
Vd1gfqyu
p1
I1
sVcyj2gql
p2
I1
s.(dp0
Vd1gfqyu
p1
I1
sVcyj2gql
p2
I1
s.(dp0
Vd1gfqyu
p1
I1
sVcyj2gql
p2
I1
s.(dp0
Vd1gfqyu
p1
I1
sVcyj2gql
p2
I1
s.(dp0
Vd1gfqyu
p1
I1
sVcyj2gql
p2
I1
s.(dp0
Vd1gfqyu
p1
I1
sVcyj2gql
p2
I1
s.(dp0
Vd1gfqyu
p1
I1
sVcyj2gql
p2
I1
s.(dp0
Vd1hg3l6
p1
I1
sVcyj2gql
p2
I1
s.(dp0
Vd1kad3y
p1
I1
sVcyj2gql
p2
I1
s.(dp0
Vd1kqxp2
p1
I1
sVcyj2gql
p2
I1
s.(dp0
Vd1kqxp2
p1
I1
sVcyj2gql
p2
I1
s.(dp0
Vd1ldzzr
p1
I1
sVcyj2gql
p2
I1
s.(dp0
Vd1oorzb
p1
I1
sVcyj2gql
p2
I1
s.(dp0
Vcyj2gql
p1
I1
sVd1qriaf
p2
I1
s.(dp0
Vcyj2gql
p1
I1
sVd1y997o
p2
I1
s.(dp0
Vd1zkzkd
p1
I1
sVcyj2gql
p2
I1
s.(dp0
Vd22eh00
p1
I1
sVcyj2gql
p2
I1
s.(dp0
Vcyj2gql
p1
I1
sVd234yus
p2
I1
s.(dp0
Vcyj2gql
p1
I1
sVd245awp
p2
I1
s.(dp0
Vcyj2gql
p1
I1
sVd248gbj
p2
I1
s.(dp0
Vcyj2gql
p1
I1
sVd248gbj
p2
I1
s.(dp0
Vd24ghun
p1
I1
sVcyj2gql
p2
I1
s.(dp0
Vcyj2gql
p1
I1
sVd24phbc
p2
I1
s.(dp0
Vcyj2gql
p1
I1
sVd2gssdk
p2
I1
s.(dp0
Vcyj2gql
p1
I1
sVd2gssdk
p2
I1
s.(dp0
Vd2(dp0
Vdkx7o6f
p1
I1
sVcyj2gql
p2
I1
s.