(dp0
Vczd3tmq
p1
I1
s.(dp0
Vczd3tmq
p1
I1
sVczd5v7v
p2
I1
s.(dp0
Vczd3tmq
p1
I1
sVczdf1el
p2
I1
s.(dp0
Vczd3tmq
p1
I1
sVczhirng
p2
I1
s.(dp0
Vczd3tmq
p1
I1
sVczju1rz
p2
I1
s.(dp0
Vczd3tmq
p1
I1
sVd01jl78
p2
I1
s.(dp0
Vczd3tmq
p1
I1
sVd01jl78
p2
I1
s.(dp0
Vczd3tmq
p1
I1
sVd01qqlc
p2
I1
s.(dp0
Vczd3tmq
p1
I1
sVd01qqlc
p2
I1
s.(dp0
Vczd3tmq
p1
I1
sVd05bphj
p2
I1
s.(dp0
Vczd3tmq
p1
I1
sVd0jh4t8
p2
I1
s.(dp0
Vczd3tmq
p1
I1
sVd0jp94p
p2
I1
s.(dp0
Vczd3tmq
p1
I1
sVd19jhth
p2
I1
s.(dp0
Vczd3tmq
p1
I1
sVd1ooum7
p2
I1
s.(dp0
Vczd3tmq
p1
I1
sVd2cmcbg
p2
I1
s.(dp0
Vczd3tmq
p1
I1
sVd2cn8vm
p2
I1
s.(dp0
Vczd3tmq
p1
I1
sVd2hjd02
p2
I1
s.(dp0
Vczd3tmq
p1
I1
sVd3ca9mw
p2
I1
s.(dp0
Vczd3tmq
p1
I1
sVd3did4o
p2
I1
s.(dp0
Vczd3tmq
p1
I1
sVd3yulry
p2
I1
s.(dp0
Vczd3tmq
p1
I1
sVd4m5tl7
p2
I1
s.(dp0
Vczd3tmq
p1
I1
sVd8t1dar
p2
I1
s.(dp0
Vczd3tmq
p1
I1
sVd8t1dar
p2
I1
s.(dp0
Vczd3tmq
p1
I1
sVd9ecxzf
p2
I1
s.(dp0
Vczd3tmq
p1
I1
sVd9nfq8z
p2
I1
s.(dp0
Vczd3tmq
p1
I1
sVd9u0a5l
p2
I1
s.(dp0
Vczd3tmq
p1
I1
sVdb0ougi
p2
I1
s.(dp0
Vdb10x8t
p1
I1
sVczd3tmq
p2
I1
s.(dp0
Vczd3tmq
p1
I1
sVdbmr80f
p2
I1
s.(dp0
Vczd3tmq
p1
I1
sVdc1lj2y
p2
I1
s.(dp0
Vczd3tmq
p1
I1
sVdcm4ptf
p2
I1
s.(dp0
Vdcul1m1
p1
I1
sVczd3tmq
p2
I1
s.(dp0
Vczd3tmq
p1
I1
sVdcwggk7
p2
I1
s.(dp0
Vddoeee1
p1
I1
sVczd3tmq
p2
I1
s.(dp0
Vddoeee1
p1
I1
sVczd3tmq
p2
I1
s.(dp0
Vczd3tmq
p1
I1
sVddog6ia
p2
I1
s.(dp0
Vczd3tmq
p1
I1
sVddol021
p2
I1
s.(dp0
Vczd3tmq
p1
I1
sVddylqem
p2
I1
s.(dp0
Vczd3tmq
p1
I1
sVddylqem
p2
I1
s.(dp0
Vczd3tmq
p1
I1
sVderm7zw
p2
I1
s.(dp0
Vczd3tmq
p1
I1
sVdg6hwee
p2
I1
s.(dp0
Vczd3tmq
p1
I1
sVdh2pi73
p2
I1
s.(dp0
Vczd3tmq
p1
I1
sVdhr0y3b
p2
I1
s.(dp0
Vczd3tmq
p1
I1
sVdhwlbgn
p2
I1
s.(dp0
Vczd3tmq
p1
I1
sVdi4cc2f
p2
I1
s.(dp0
Vczd3tmq
p1
I1
sVdi5c4wl
p2
I1
s.(dp0
Vczd3tmq
p1
I1
sVdihh3o7
p2
I1
s.(dp0
Vczd3tmq
p1
I1
sVdj2pjxp
p2
I1
s.(dp0
Vdjq9z3p
p1
I1
sVczd3tmq
p2
I1
s.(dp0
Vczd3tmq
p1
I1
sVdjqg7so
p2
I1
s.(dp0
Vczd3tmq
p1
I1
sVdjqg7so
p2
I1
s.