(dp0
Vcz50d21
p1
I1
s.(dp0
Vcz50d21
p1
I1
sVd0pb6hj
p2
I1
s.(dp0
Vcz50d21
p1
I1
sVd2241q1
p2
I1
s.(dp0
Vcz50d21
p1
I1
sVd7e0j1u
p2
I1
s.(dp0
Vcz50d21
p1
I1
sVdb9i2y4
p2
I1
s.(dp0
Vcz50d21
p1
I1
sVdekbawn
p2
I1
s.(dp0
Vcz50d21
p1
I1
sVdn9bnn7
p2
I1
s.(dp0
Vcz50d21
p1
I1
sVdndeh3u
p2
I1
s.(dp0
Vcz50d21
p1
I1
sVdo5li8w
p2
I1
s.