(dp0
Vcz351bf
p1
I1
s.(dp0
Vcz9txky
p1
I1
sVcz351bf
p2
I1
s.(dp0
Vcz9txky
p1
I1
sVcz351bf
p2
I1
s.(dp0
Vczn9qb9
p1
I1
sVcz351bf
p2
I1
s.(dp0
Vczzb436
p1
I1
sVcz351bf
p2
I1
s.(dp0
Vczzw9qi
p1
I1
sVcz351bf
p2
I1
s.(dp0
Vd0iodu8
p1
I1
sVcz351bf
p2
I1
s.(dp0
Vd0vav22
p1
I1
sVcz351bf
p2
I1
s.(dp0
Vd0wnqnv
p1
I1
sVcz351bf
p2
I1
s.(dp0
Vd10ks3k
p1
I1
sVcz351bf
p2
I1
s.(dp0
Vd19hxk4
p1
I1
sVcz351bf
p2
I1
s.(dp0
Vd1atnhf
p1
I1
sVcz351bf
p2
I1
s.(dp0
Vd1l6d6w
p1
I1
sVcz351bf
p2
I1
s.(dp0
Vd1xunaq
p1
I1
sVcz351bf
p2
I1
s.(dp0
Vd2em4qp
p1
I1
sVcz351bf
p2
I1
s.(dp0
Vd2enmla
p1
I1
sVcz351bf
p2
I1
s.(dp0
Vd2jb2kr
p1
I1
sVcz351bf
p2
I1
s.(dp0
Vd2t1dfw
p1
I1
sVcz351bf
p2
I1
s.(dp0
Vd2t8asr
p1
I1
sVcz351bf
p2
I1
s.(dp0
Vd2t8asr
p1
I1
sVcz351bf
p2
I1
s.(dp0
Vd2z2pfu
p1
I1
sVcz351bf
p2
I1
s.(dp0
Vd31akp7
p1
I1
sVcz351bf
p2
I1
s.(dp0
Vd32hz97
p1
I1
sVcz351bf
p2
I1
s.(dp0
Vd348vzd
p1
I1
sVcz351bf
p2
I1
s.(dp0
Vd3nrrba
p1
I1
sVcz351bf
p2
I1
s.(dp0
Vd44zwfx
p1
I1
sVcz351bf
p2
I1
s.(dp0
Vd4rari7
p1
I1
sVcz351bf
p2
I1
s.(dp0
Vd5bqiu5
p1
I1
sVcz351bf
p2
I1
s.(dp0
Vd5mapac
p1
I1
sVcz351bf
p2
I1
s.(dp0
Vd5uac6d
p1
I1
sVcz351bf
p2
I1
s.(dp0
Vd5ur9nn
p1
I1
sVcz351bf
p2
I1
s.(dp0
Vd5ur9nn
p1
I1
sVcz351bf
p2
I1
s.(dp0
Vd5yc58h
p1
I1
sVcz351bf
p2
I1
s.(dp0
Vd5yhp1x
p1
I1
sVcz351bf
p2
I1
s.(dp0
Vd60e1ck
p1
I1
sVcz351bf
p2
I1
s.(dp0
Vd62swk6
p1
I1
sVcz351bf
p2
I1
s.(dp0
Vd63mmeo
p1
I1
sVcz351bf
p2
I1
s.(dp0
Vd651ts0
p1
I1
sVcz351bf
p2
I1
s.(dp0
Vd6d7dgw
p1
I1
sVcz351bf
p2
I1
s.(dp0
Vd6kapvy
p1
I1
sVcz351bf
p2
I1
s.(dp0
Vd6m2v7x
p1
I1
sVcz351bf
p2
I1
s.(dp0
Vd6m2v7x
p1
I1
sVcz351bf
p2
I1
s.(dp0
Vd6s9pki
p1
I1
sVcz351bf
p2
I1
s.(dp0
Vd78sky9
p1
I1
sVcz351bf
p2
I1
s.(dp0
Vd7l08hx
p1
I1
sVcz351bf
p2
I1
s.(dp0
Vd7mic8h
p1
I1
sVcz351bf
p2
I1
s.(dp0
Vd88l2u5
p1
I1
sVcz351bf
p2
I1
s.(dp0
Vd8g6bps
p1
I1
sVcz351bf
p2
I1
s.(dp0
Vd8g6bps
p1
I1
sVcz351bf
p2
I1
s.(dp0
Vd90j1qp
p1
I1
sVcz351bf
p2
I1
s.(dp0
Vd9a04pt
p1
I1
sVcz351bf
p2
I1
s.(dp0
Vd9muhf5
p1
I1
sVcz351bf
p2
I1
s.(dp0
Vdabrigp
p1
I1
sVcz351bf
p2
I1
s.(dp0
Vdanq7hm
p1
I1
sVcz351bf
p2
I1
s.(dp0
Vdaxl1eh
p1
I1
sVcz351bf
p2
I1
s.(dp0
Vdb8gylu
p1
I1
sVcz351bf
p2
I1
s.(dp0
Vdbl21mn
p1
I1
sVcz351bf
p2
I1
s.(dp0
Vdbo8njg
p1
I1
sVcz351bf
p2
I1
s.(dp0
Vdbpiv7m
p1
I1
sVcz351bf
p2
I1
s.(dp0
Vdbs6foz
p1
I1
sVcz351bf
p2
I1
s.(dp0
Vdc237br
p1
I1
sVcz351bf
p2
I1
s.(dp0
Vdc9wq32
p1
I1
sVcz351bf
p2
I1
s.(dp0
Vdclgbiw
p1
I1
sVcz351bf
p2
I1
s.(dp0
Vdcql182
p1
I1
sVcz351bf
p2
I1
s.(dp0
Vdctuvhv
p1
I1
sVcz351bf
p2
I1
s.(dp0
Vdcy1u24
p1
I1
sVcz351bf
p2
I1
s.(dp0
Vdd8hfrr
p1
I1
sVcz351bf
p2
I1
s.(dp0
Vdde9foh
p1
I1
sVcz351bf
p2
I1
s.(dp0
Vddr4i4q
p1
I1
sVcz351bf
p2
I1
s.(dp0
Vddwvb5l
p1
I1
sVcz351bf
p2
I1
s.(dp0
Vddyfxvc
p1
I1
sVcz351bf
p2
I1
s.(dp0
Vddypqqf
p1
I1
sVcz351bf
p2
I1
s.(dp0
Vddzz3sz
p1
I1
sVcz351bf
p2
I1
s.(dp0
Vde857fo
p1
I1
sVcz351bf
p2
I1
s.(dp0
Vdeygxdt
p1
I1
sVcz351bf
p2
I1
s.(dp0
Vdfe0egm
p1
I1
sVcz351bf
p2
I1
s.(dp0
Vdfsqsmv
p1
I1
sVcz351bf
p2
I1
s.(dp0
Vdfsqsmv
p1
I1
sVcz351bf
p2
I1
s.(dp0
Vdfsqsmv
p1
I1
sVcz351bf
p2
I1
s.(dp0
Vdfsqsmv
p1
I1
sVcz351bf
p2
I1
s.(dp0
Vdfsqsmv
p1
I1
sVcz351bf
p2
I1
s.(dp0
Vdg93gdt
p1
I1
sVcz351bf
p2
I1
s.(dp0
Vdgck5qd
p1
I1
sVcz351bf
p2
I1
s.(dp0
Vdggmke1
p1
I1
sVcz351bf
p2
I1
s.(dp0
Vdgia9hj
p1
I1
sVcz351bf
p2
I1
s.(dp0
Vdgv7was
p1
I1
sVcz351bf
p2
I1
s.(dp0
Vdh9cyq1
p1
I1
sVcz351bf
p2
I1
s.(dp0
Vdhjeyyp
p1
I1
sVcz351bf
p2
I1
s.(dp0
Vdhocgzk
p1
I1
sVcz351bf
p2
I1
s.(dp0
Vdivcdq7
p1
I1
sVcz351bf
p2
I1
s.(dp0
Vdj81wvl
p1
I1
sVcz351bf
p2
I1
s.(dp0
Vdk0y1dl
p1
I1
sVcz351bf
p2
I1
s.(dp0
Vdk10hbv
p1
I1
sVcz351bf
p2
I1
s.(dp0
Vdk10hbv
p1
I1
sVcz351bf
p2
I1
s.(dp0
Vdk17dbj
p1
I1
sVcz351bf
p2
I1
s.(dp0
Vdk17dbj
p1
I1
sVcz351bf
p2
I1
s.(dp0
Vdk17dbj
p1
I1
sVcz351bf
p2
I1
s.(dp0
Vdk17dbj
p1
I1
sVcz351bf
p2
I1
s.(dp0
Vdk17dbj
p1
I1
sVcz351bf
p2
I1
s.(dp0
Vdk17dbj
p1
I1
sVcz351bf
p2
I1
s.(dp0
Vdk17dbj
p1
I1
sVcz351bf
p2
I1
s.(dp0
Vdk17dbj
p1
I1
sVcz351bf
p2
I1
s.(dp0
Vdkzfbrb
p1
I1
sVcz351bf
p2
I1
s.