(dp0
Vcyifpwx
p1
I1
s.(dp0
Vcyifpwx
p1
I1
sVcyjhv6t
p2
I1
s.(dp0
Vcyifpwx
p1
I1
sVcykp8q2
p2
I1
s.(dp0
Vcyifpwx
p1
I1
sVcylq81u
p2
I1
s.(dp0
Vcyifpwx
p1
I1
sVcym0066
p2
I1
s.(dp0
Vcyifpwx
p1
I1
sVcym0066
p2
I1
s.(dp0
Vcyifpwx
p1
I1
sVcym0066
p2
I1
s.(dp0
Vcyifpwx
p1
I1
sVcyme1q0
p2
I1
s.(dp0
Vcyifpwx
p1
I1
sVcymynqy
p2
I1
s.(dp0
Vcyifpwx
p1
I1
sVcyn4969
p2
I1
s.(dp0
Vcyifpwx
p1
I1
sVcyp4fn5
p2
I1
s.(dp0
Vcyifpwx
p1
I1
sVcyp4fn5
p2
I1
s.(dp0
Vcyifpwx
p1
I1
sVcypya2p
p2
I1
s.(dp0
Vcyifpwx
p1
I1
sVcyr39mo
p2
I1
s.(dp0
Vcysz2ky
p1
I1
sVcyifpwx
p2
I1
s.(dp0
Vcyv9b0t
p1
I1
sVcyifpwx
p2
I1
s.(dp0
Vcyifpwx
p1
I1
sVcyxkfbu
p2
I1
s.(dp0
Vcyifpwx
p1
I1
sVcyxt381
p2
I1
s.(dp0
Vcyifpwx
p1
I1
sVcyzrpgy
p2
I1
s.(dp0
Vcyifpwx
p1
I1
sVcyzrpgy
p2
I1
s.(dp0
Vcyifpwx
p1
I1
sVcz0awhj
p2
I1
s.(dp0
Vcyifpwx
p1
I1
sVcz0awhj
p2
I1
s.(dp0
Vcyifpwx
p1
I1
sVcz0awhj
p2
I1
s.(dp0
Vcyifpwx
p1
I1
sVcz0hft2
p2
I1
s.(dp0
Vcyifpwx
p1
I1
sVcz66a75
p2
I1
s.(dp0
Vcz7eeoj
p1
I1
sVcyifpwx
p2
I1
s.(dp0
Vcyifpwx
p1
I1
sVcz9k8bq
p2
I1
s.(dp0
Vcyifpwx
p1
I1
sVczaoqac
p2
I1
s.(dp0
Vcyifpwx
p1
I1
sVczcl91v
p2
I1
s.(dp0
Vcyifpwx
p1
I1
sVczdw1m1
p2
I1
s.(dp0
Vcyifpwx
p1
I1
sVczdweyb
p2
I1
s.(dp0
Vczeqk90
p1
I1
sVcyifpwx
p2
I1
s.(dp0
Vcyifpwx
p1
I1
sVczezyq1
p2
I1
s.(dp0
Vcyifpwx
p1
I1
sVczgzl7s
p2
I1
s.(dp0
Vcyifpwx
p1
I1
sVczllh1t
p2
I1
s.(dp0
Vcyifpwx
p1
I1
sVczmycpq
p2
I1
s.(dp0
Vcyifpwx
p1
I1
sVcznb9kv
p2
I1
s.(dp0
Vcyifpwx
p1
I1
sVczro2k2
p2
I1
s.(dp0
Vcyifpwx
p1
I1
sVczuk5ka
p2
I1
s.(dp0
Vcyifpwx
p1
I1
sVczvfre4
p2
I1
s.(dp0
Vcyifpwx
p1
I1
sVczvrks7
p2
I1
s.(dp0
Vcyifpwx
p1
I1
sVczxt4nc
p2
I1
s.(dp0
Vcyifpwx
p1
I1
sVczzb436
p2
I1
s.(dp0
Vcyifpwx
p1
I1
sVczzb436
p2
I1
s.(dp0
Vcyifpwx
p1
I1
sVd016atx
p2
I1
s.(dp0
Vcyifpwx
p1
I1
sVd0197gl
p2
I1
s.(dp0
Vcyifpwx
p1
I1
sVd03eu4l
p2
I1
s.(dp0
Vcyifpwx
p1
I1
sVd03eu4l
p2
I1
s.(dp0
Vcyifpwx
p1
I1
sVd0952yd
p2
I1
s.(dp0
Vcyifpwx
p1
I1
sVd095roh
p2
I1
s.(dp0
Vcyifpwx
p1
I1
sVd09emmm
p2
I1
s.(dp0
Vcyifpwx
p1
I1
sVd0a8yl3
p2
I1
s.(dp0
Vcyifpwx
p1
I1
sVd0a8yl3
p2
I1
s.(dp0
Vcyifpwx
p1
I1
sVd0amvfl
p2
I1
s.(dp0
Vcyifpwx
p1
I1
sVd0cssym
p2
I1
s.(dp0
Vcyifpwx
p1
I1
sVd0f7kgp
p2
I1
s.(dp0
Vcyifpwx
p1
I1
sVd0fe7z4
p2
I1
s.(dp0
Vd0kxuvg
p1
I1
sVcyifpwx
p2
I1
s.(dp0
Vd0l6a26
p1
I1
sVcyifpwx
p2
I1
s.(dp0
Vd0l6a26
p1
I1
sVcyifpwx
p2
I1
s.(dp0
Vd0l6a26
p1
I1
sVcyifpwx
p2
I1
s.(dp0
Vcyifpwx
p1
I1
sVd0m1z79
p2
I1
s.(dp0
Vcyifpwx
p1
I1
sVd0nadns
p2
I1
s.(dp0
Vcyifpwx
p1
I1
sVd0raeec
p2
I1
s.(dp0
Vcyifpwx
p1
I1
sVd0stct4
p2
I1
s.(dp0
Vcyifpwx
p1
I1
sVd0vj6dd
p2
I1
s.(dp0
Vcyifpwx
p1
I1
sVd0wmkgb
p2
I1
s.(dp0
Vcyifpwx
p1
I1
sVd0xvsmv
p2
I1
s.(dp0
Vd0z9nfn
p1
I1
sVcyifpwx
p2
I1
s.(dp0
Vcyifpwx
p1
I1
sVd0z9pj9
p2
I1
s.(dp0
Vcyifpwx
p1
I1
sVd12zwmr
p2
I1
s.(dp0
Vcyifpwx
p1
I1
sVd14726k
p2
I1
s.(dp0
Vcyifpwx
p1
I1
sVd17aad3
p2
I1
s.(dp0
Vcyifpwx
p1
I1
sVd17aad3
p2
I1
s.(dp0
Vcyifpwx
p1
I1
sVd19lsa7
p2
I1
s.(dp0
Vcyifpwx
p1
I1
sVd19oohu
p2
I1
s.(dp0
Vd1bhmd3
p1
I1
sVcyifpwx
p2
I1
s.(dp0
Vcyifpwx
p1
I1
sVd1bqwr2
p2
I1
s.(dp0
Vcyifpwx
p1
I1
sVd1bu2eq
p2
I1
s.(dp0
Vcyifpwx
p1
I1
sVd1bxu1u
p2
I1
s.(dp0
Vcyifpwx
p1
I1
sVd1evuga
p2
I1
s.(dp0
Vcyifpwx
p1
I1
sVd1fjl8f
p2
I1
s.(dp0
Vcyifpwx
p1
I1
sVd1fjl8f
p2
I1
s.(dp0
Vcyifpwx
p1
I1
sVd1l8m5l
p2
I1
s.(dp0
Vcyifpwx
p1
I1
sVd1m4ry9
p2
I1
s.(dp0
Vcyifpwx
p1
I1
sVd1mv2nn
p2
I1
s.(dp0
Vcyifpwx
p1
I1
sVd1n5dzv
p2
I1
s.(dp0
Vcyifpwx
p1
I1
sVd1na6jo
p2
I1
s.(dp0
Vcyifpwx
p1
I1
sVd1q27qz
p2
I1
s.(dp0
Vcyifpwx
p1
I1
sVd1q27qz
p2
I1
s.(dp0
Vcyifpwx
p1
I1
sVd1qqyk4
p2
I1
s.(dp0
Vcyifpwx
p1
I1
sVd1rgqjy
p2
I1
s.(dp0
Vd1tu3zj
p1
I1
sVcyifpwx
p2
I1
s.(dp0
Vcyifpwx
p1
I1
sVd1vueam
p2
I1
s.(dp0
Vcyifpwx
p1
I1
sVd1wfpoi
p2
I1
s.(dp0
Vcyifpwx
p1
I1
sVd1x3mgd
p2
I1
s.(dp0
Vcyifpwx
p1
I1
sVd1xh6ba
p2
I1
s.(dp0
Vcyifpwx
p1
I1
sVd1zxn4f
p2
I1
s.(dp0
Vcyifpwx
p1
I1
sVd20vuaf
p2
I1
s.(dp0
Vcyifpwx
p1
I1
sVd218y5z
p2
I1
s.(dp0
Vcyifpwx
p1
I1
sVd259f0v
p2
I1
s.(dp0
Vcyifpwx
p1
I1
sVd25yjh5
p2
I1
s.(dp0
Vcyifpwx
p1
I1
sVd266q8v
p2
I1
s.(dp0
Vcyifpwx
p1
I1
sVd27t1cc
p2
I1
s.(dp0
Vd28cn2t
p1
I1
sVcyifpwx
p2
I1
s.(dp0
Vcyifpwx
p1
I1
sVd28ylk3
p2
I1
s.(dp0
Vcyifpwx
p1
I1
sVd2accok
p2
I1
s.(dp0
Vcyifpwx
p1
I1
sVd2avtsb
p2
I1
s.(dp0
Vcy(dp0
Vcyifpwx
p1
I1
sVdozd8p5
p2
I1
s.