(dp0
Vcyxphd0
p1
I1
s.(dp0
Vcz91z6z
p1
I1
sVcyxphd0
p2
I1
s.(dp0
Vczle432
p1
I1
sVcyxphd0
p2
I1
s.(dp0
Vczr1wx0
p1
I1
sVcyxphd0
p2
I1
s.(dp0
Vd05xjzv
p1
I1
sVcyxphd0
p2
I1
s.(dp0
Vd0ntja2
p1
I1
sVcyxphd0
p2
I1
s.(dp0
Vcyxphd0
p1
I1
sVd0oapp3
p2
I1
s.(dp0
Vd19vayw
p1
I1
sVcyxphd0
p2
I1
s.(dp0
Vcyxphd0
p1
I1
sVd1dt156
p2
I1
s.(dp0
Vd1o5xq3
p1
I1
sVcyxphd0
p2
I1
s.(dp0
Vcyxphd0
p1
I1
sVd23y9ej
p2
I1
s.(dp0
Vcyxphd0
p1
I1
sVd23y9ej
p2
I1
s.(dp0
Vcyxphd0
p1
I1
sVd2fnjw2
p2
I1
s.(dp0
Vcyxphd0
p1
I1
sVd33nq04
p2
I1
s.(dp0
Vcyxphd0
p1
I1
sVd33zr8p
p2
I1
s.(dp0
Vcyxphd0
p1
I1
sVd39xjbj
p2
I1
s.(dp0
Vd44x88a
p1
I1
sVcyxphd0
p2
I1
s.(dp0
Vd44x88a
p1
I1
sVcyxphd0
p2
I1
s.(dp0
Vcyxphd0
p1
I1
sVd4m3sam
p2
I1
s.(dp0
Vcyxphd0
p1
I1
sVd5em4j8
p2
I1
s.(dp0
Vcyxphd0
p1
I1
sVd5oss0g
p2
I1
s.(dp0
Vd5otshv
p1
I1
sVcyxphd0
p2
I1
s.(dp0
Vd5otshv
p1
I1
sVcyxphd0
p2
I1
s.(dp0
Vcyxphd0
p1
I1
sVd5y81xo
p2
I1
s.(dp0
Vcyxphd0
p1
I1
sVd6s1rdn
p2
I1
s.(dp0
Vd6ydjr5
p1
I1
sVcyxphd0
p2
I1
s.(dp0
Vcyxphd0
p1
I1
sVd7i9miz
p2
I1
s.(dp0
Vcyxphd0
p1
I1
sVd7pckn5
p2
I1
s.(dp0
Vcyxphd0
p1
I1
sVd888fbo
p2
I1
s.(dp0
Vd88z5oy
p1
I1
sVcyxphd0
p2
I1
s.(dp0
Vcyxphd0
p1
I1
sVd8hk2m0
p2
I1
s.(dp0
Vcyxphd0
p1
I1
sVd8k3xpz
p2
I1
s.(dp0
Vcyxphd0
p1
I1
sVd8rohxu
p2
I1
s.(dp0
Vcyxphd0
p1
I1
sVd9zhghq
p2
I1
s.(dp0
Vcyxphd0
p1
I1
sVda6yycq
p2
I1
s.(dp0
Vcyxphd0
p1
I1
sVdbdd6ci
p2
I1
s.(dp0
Vcyxphd0
p1
I1
sVdc26dni
p2
I1
s.(dp0
Vcyxphd0
p1
I1
sVdcbsr3i
p2
I1
s.(dp0
Vcyxphd0
p1
I1
sVdcj2aqv
p2
I1
s.(dp0
Vcyxphd0
p1
I1
sVdcjaute
p2
I1
s.(dp0
Vcyxphd0
p1
I1
sVdcjx5r6
p2
I1
s.(dp0
Vdclze5x
p1
I1
sVcyxphd0
p2
I1
s.(dp0
Vcyxphd0
p1
I1
sVdcvxjz0
p2
I1
s.(dp0
Vdd29z7c
p1
I1
sVcyxphd0
p2
I1
s.(dp0
Vdd3h1az
p1
I1
sVcyxphd0
p2
I1
s.(dp0
Vcyxphd0
p1
I1
sVdda2ltz
p2
I1
s.(dp0
Vcyxphd0
p1
I1
sVddf4saw
p2
I1
s.(dp0
Vddgvwxp
p1
I1
sVcyxphd0
p2
I1
s.(dp0
Vcyxphd0
p1
I1
sVddj3oii
p2
I1
s.(dp0
Vcyxphd0
p1
I1
sVddkhybw
p2
I1
s.(dp0
Vde1qecw
p1
I1
sVcyxphd0
p2
I1
s.(dp0
Vcyxphd0
p1
I1
sVde7ujj7
p2
I1
s.(dp0
Vcyxphd0
p1
I1
sVdecbh20
p2
I1
s.(dp0
Vcyxphd0
p1
I1
sVdg19qyu
p2
I1
s.(dp0
Vcyxphd0
p1
I1
sVdg19qyu
p2
I1
s.(dp0
Vcyxphd0
p1
I1
sVdgcxrxc
p2
I1
s.(dp0
Vcyxphd0
p1
I1
sVdgywqzj
p2
I1
s.(dp0
Vcyxphd0
p1
I1
sVdh5b81y
p2
I1
s.(dp0
Vcyxphd0
p1
I1
sVdhmad8s
p2
I1
s.(dp0
Vcyxphd0
p1
I1
sVdhpnt1a
p2
I1
s.(dp0
Vcyxphd0
p1
I1
sVdhvur64
p2
I1
s.(dp0
Vdif0qbq
p1
I1
sVcyxphd0
p2
I1
s.(dp0
Vcyxphd0
p1
I1
sVdig1cfk
p2
I1
s.(dp0
Vdj0kgob
p1
I1
sVcyxphd0
p2
I1
s.(dp0
Vcyxphd0
p1
I1
sVdjiy24u
p2
I1
s.(dp0
Vdjwam81
p1
I1
sVcyxphd0
p2
I1
s.(dp0
Vdkqh6p4
p1
I1
sVcyxphd0
p2
I1
s.(dp0
Vcyxphd0
p1
I1
sVdmk8ko1
p2
I1
s.(dp0
Vdn4vpl1
p1
I1
sVcyxphd0
p2
I1
s.(dp0
Vcyxphd0
p1
I1
sVdn5cje8
p2
I1
s.(dp0
Vcyxphd0
p1
I1
sVdnjixv0
p2
I1
s.(dp0
Vdo4uhfc
p1
I1
sVcyxphd0
p2
I1
s.