(dp0
Vd030373
p1
I1
s.(dp0
Vd5kr3p0
p1
I1
sVd030373
p2
I1
s.(dp0
Vd5kr3p0
p1
I1
sVd030373
p2
I1
s.(dp0
Vd6net9o
p1
I1
sVd030373
p2
I1
s.(dp0
Vd9d421l
p1
I1
sVd030373
p2
I1
s.(dp0
Vdcgjibp
p1
I1
sVd030373
p2
I1
s.(dp0
Vd030373
p1
I1
sVddcuwn4
p2
I1
s.(dp0
Vdh6a9me
p1
I1
sVd030373
p2
I1
s.(dp0
Vd030373
p1
I1
sVdj83g9q
p2
I1
s.