(dp0
Vcyiw680
p1
I1
s.(dp0
Vcyk7qvq
p1
I1
sVcyiw680
p2
I1
s.(dp0
Vcymtjxp
p1
I1
sVcyiw680
p2
I1
s.(dp0
Vcyoz50g
p1
I1
sVcyiw680
p2
I1
s.(dp0
Vcyiw680
p1
I1
sVcyp0y2y
p2
I1
s.(dp0
Vcyrx2os
p1
I1
sVcyiw680
p2
I1
s.(dp0
Vcyrx2os
p1
I1
sVcyiw680
p2
I1
s.(dp0
Vcyvyujf
p1
I1
sVcyiw680
p2
I1
s.(dp0
Vcyvz0jp
p1
I1
sVcyiw680
p2
I1
s.(dp0
Vcyvz80o
p1
I1
sVcyiw680
p2
I1
s.(dp0
Vcyw1cdm
p1
I1
sVcyiw680
p2
I1
s.(dp0
Vcyiw680
p1
I1
sVcyw1mqg
p2
I1
s.(dp0
Vcyyclhc
p1
I1
sVcyiw680
p2
I1
s.(dp0
Vcyyefwe
p1
I1
sVcyiw680
p2
I1
s.(dp0
Vcyyefwe
p1
I1
sVcyiw680
p2
I1
s.(dp0
Vcz2nd3f
p1
I1
sVcyiw680
p2
I1
s.(dp0
Vcyiw680
p1
I1
sVcz5caco
p2
I1
s.(dp0
Vcyiw680
p1
I1
sVcz5caco
p2
I1
s.(dp0
Vcyiw680
p1
I1
sVczc6rvh
p2
I1
s.(dp0
Vczjlfxz
p1
I1
sVcyiw680
p2
I1
s.(dp0
Vczoveau
p1
I1
sVcyiw680
p2
I1
s.(dp0
Vczq0tpb
p1
I1
sVcyiw680
p2
I1
s.(dp0
Vczuowze
p1
I1
sVcyiw680
p2
I1
s.(dp0
Vcyiw680
p1
I1
sVczv1k07
p2
I1
s.(dp0
Vczvww3d
p1
I1
sVcyiw680
p2
I1
s.(dp0
Vcyiw680
p1
I1
sVczz0pf4
p2
I1
s.(dp0
Vczz0ws9
p1
I1
sVcyiw680
p2
I1
s.(dp0
Vczzbk1n
p1
I1
sVcyiw680
p2
I1
s.(dp0
Vczzbk1n
p1
I1
sVcyiw680
p2
I1
s.(dp0
Vcyiw680
p1
I1
sVczzw9qi
p2
I1
s.(dp0
Vd028qij
p1
I1
sVcyiw680
p2
I1
s.(dp0
Vd02jokf
p1
I1
sVcyiw680
p2
I1
s.(dp0
Vcyiw680
p1
I1
sVd02juy2
p2
I1
s.(dp0
Vcyiw680
p1
I1
sVd02m8kn
p2
I1
s.(dp0
Vd07wbsb
p1
I1
sVcyiw680
p2
I1
s.(dp0
Vd07wbsb
p1
I1
sVcyiw680
p2
I1
s.(dp0
Vcyiw680
p1
I1
sVd092yov
p2
I1
s.(dp0
Vd0c6iqu
p1
I1
sVcyiw680
p2
I1
s.(dp0
Vd0gun07
p1
I1
sVcyiw680
p2
I1
s.(dp0
Vcyiw680
p1
I1
sVd0jx4lw
p2
I1
s.(dp0
Vcyiw680
p1
I1
sVd0jx4lw
p2
I1
s.(dp0
Vcyiw680
p1
I1
sVd0knj98
p2
I1
s.(dp0
Vcyiw680
p1
I1
sVd0ljxou
p2
I1
s.(dp0
Vd0nxseq
p1
I1
sVcyiw680
p2
I1
s.(dp0
Vcyiw680
p1
I1
sVd0ou6im
p2
I1
s.(dp0
Vcyiw680
p1
I1
sVd0ur3ll
p2
I1
s.(dp0
Vd0yrokv
p1
I1
sVcyiw680
p2
I1
s.(dp0
Vd0yrokv
p1
I1
sVcyiw680
p2
I1
s.(dp0
Vd0yrokv
p1
I1
sVcyiw680
p2
I1
s.(dp0
Vd0zr9oi
p1
I1
sVcyiw680
p2
I1
s.(dp0
Vd12kni2
p1
I1
sVcyiw680
p2
I1
s.(dp0
Vd131poe
p1
I1
sVcyiw680
p2
I1
s.(dp0
Vcyiw680
p1
I1
sVd131qzh
p2
I1
s.(dp0
Vcyiw680
p1
I1
sVd18xiug
p2
I1
s.(dp0
Vd18ytuj
p1
I1
sVcyiw680
p2
I1
s.(dp0
Vcyiw680
p1
I1
sVd1e6puv
p2
I1
s.(dp0
Vcyiw680
p1
I1
sVd1gwmk1
p2
I1
s.(dp0
Vd1it9m8
p1
I1
sVcyiw680
p2
I1
s.(dp0
Vcyiw680
p1
I1
sVd1kezki
p2
I1
s.(dp0
Vcyiw680
p1
I1
sVd1n4edf
p2
I1
s.(dp0
Vcyiw680
p1
I1
sVd1ohchr
p2
I1
s.(dp0
Vcyiw680
p1
I1
sVd1ovv06
p2
I1
s.(dp0
Vcyiw680
p1
I1
sVd1qv0ox
p2
I1
s.(dp0
Vcyiw680
p1
I1
sVd1r74t1
p2
I1
s.(dp0
Vcyiw680
p1
I1
sVd1r74t1
p2
I1
s.(dp0
Vd1rqe7y
p1
I1
sVcyiw680
p2
I1
s.(dp0
Vd1rqe7y
p1
I1
sVcyiw680
p2
I1
s.(dp0
Vd1wrf28
p1
I1
sVcyiw680
p2
I1
s.(dp0
Vcyiw680
p1
I1
sVd24aq46
p2
I1
s.(dp0
Vd27a5fb
p1
I1
sVcyiw680
p2
I1
s.(dp0
Vd2bdc2k
p1
I1
sVcyiw680
p2
I1
s.(dp0
Vd2ctbzn
p1
I1
sVcyiw680
p2
I1
s.(dp0
Vd2ctbzn
p1
I1
sVcyiw680
p2
I1
s.(dp0
Vd2e193w
p1
I1
sVcyiw680
p2
I1
s.(dp0
Vd2eyysj
p1
I1
sVcyiw680
p2
I1
s.(dp0
Vd2i17jq
p1
I1
sVcyiw680
p2
I1
s.(dp0
Vd2m5637
p1
I1
sVcyiw680
p2
I1
s.(dp0
Vcyiw680
p1
I1
sVd2rdkf3
p2
I1
s.(dp0
Vd2v3lsc
p1
I1
sVcyiw680
p2
I1
s.(dp0
Vcyiw680
p1
I1
sVd30pthk
p2
I1
s.(dp0
Vd32pf1p
p1
I1
sVcyiw680
p2
I1
s.(dp0
Vd32pf1p
p1
I1
sVcyiw680
p2
I1
s.(dp0
Vd32pf1p
p1
I1
sVcyiw680
p2
I1
s.(dp0
Vd32pf1p
p1
I1
sVcyiw680
p2
I1
s.(dp0
Vcyiw680
p1
I1
sVd35gbj7
p2
I1
s.(dp0
Vcyiw680
p1
I1
sVd37svte
p2
I1
s.(dp0
Vcyiw680
p1
I1
sVd39ng7u
p2
I1
s.(dp0
Vd3gf34s
p1
I1
sVcyiw680
p2
I1
s.(dp0
Vd3gxcpz
p1
I1
sVcyiw680
p2
I1
s.(dp0
Vd3gxcpz
p1
I1
sVcyiw680
p2
I1
s.(dp0
Vcyiw680
p1
I1
sVd3j50uv
p2
I1
s.(dp0
Vd3jqonx
p1
I1
sVcyiw680
p2
I1
s.(dp0
Vd3naozv
p1
I1
sVcyiw680
p2
I1
s.(dp0
Vd3naozv
p1
I1
sVcyiw680
p2
I1
s.(dp0
Vd3t1hfj
p1
I1
sVcyiw680
p2
I1
s.(dp0
Vd3t1hfj
p1
I1
sVcyiw680
p2
I1
s.(dp0
Vd3t1hfj
p1
I1
sVcyiw680
p2
I1
s.(dp0
Vd3ubyq7
p1
I1
sVcyiw680
p2
I1
s.(dp0
Vcyiw680
p1
I1
sVd3ukz47
p2
I1
s.(dp0
Vcyiw680
p1
I1
sVd3ukz47
p2
I1
s.(dp0
Vd40gumi
p1
I1
sVcyiw680
p2
I1
s.(dp0
Vd40gumi
p1
I1
sVcyiw680
p2
I1
s.(dp0
Vd40gumi
p1
I1
sVcyiw680
p2
I1
s.(dp0
Vd44vke8
p1
I1
sVcyiw680
p2
I1
s.(dp0
Vd483mn9
p1
I1
sVcyiw680
p2
I1
s.(dp0
Vd4adzqw
p1
I1
sVcyiw680
p2
I1
s.(dp0
Vcyiw680
p1
I1
sVd4bzdnp
p2
I1
s.(dp0
Vcyiw680
p1
I1
sVd4jdedg
p2
I1
s.(dp0
Vcy(dp0
Vdog4sgx
p1
I1
sVcyiw680
p2
I1
s.