(dp0
Vcyjkutp
p1
I1
s.(dp0
Vcyjkutp
p1
I1
sVcyjvxeo
p2
I1
s.(dp0
Vcyjkutp
p1
I1
sVcykglk2
p2
I1
s.(dp0
Vcyjkutp
p1
I1
sVcyretg2
p2
I1
s.(dp0
Vcyjkutp
p1
I1
sVcyrl5yp
p2
I1
s.(dp0
Vcyjkutp
p1
I1
sVcyrm18u
p2
I1
s.(dp0
Vcyjkutp
p1
I1
sVcysnyu7
p2
I1
s.(dp0
Vcyjkutp
p1
I1
sVcyx0kk2
p2
I1
s.(dp0
Vcyjkutp
p1
I1
sVcyzxhdr
p2
I1
s.(dp0
Vcyjkutp
p1
I1
sVcz0li1o
p2
I1
s.(dp0
Vcyjkutp
p1
I1
sVcz0qfo5
p2
I1
s.(dp0
Vcyjkutp
p1
I1
sVcz1i8wa
p2
I1
s.(dp0
Vcyjkutp
p1
I1
sVcz27ykl
p2
I1
s.(dp0
Vcyjkutp
p1
I1
sVcz3s514
p2
I1
s.(dp0
Vcyjkutp
p1
I1
sVcz5caco
p2
I1
s.(dp0
Vcyjkutp
p1
I1
sVcz92jw5
p2
I1
s.(dp0
Vcyjkutp
p1
I1
sVcz9udnp
p2
I1
s.(dp0
Vcyjkutp
p1
I1
sVczacnc4
p2
I1
s.(dp0
Vcyjkutp
p1
I1
sVczb2h9b
p2
I1
s.(dp0
Vcyjkutp
p1
I1
sVczb35vh
p2
I1
s.(dp0
Vcyjkutp
p1
I1
sVczb4mz5
p2
I1
s.(dp0
Vcyjkutp
p1
I1
sVczbuyzg
p2
I1
s.(dp0
Vcyjkutp
p1
I1
sVczh3wlq
p2
I1
s.(dp0
Vcyjkutp
p1
I1
sVczl4c5h
p2
I1
s.(dp0
Vcyjkutp
p1
I1
sVczlzxfw
p2
I1
s.(dp0
Vcyjkutp
p1
I1
sVczp0430
p2
I1
s.(dp0
Vcyjkutp
p1
I1
sVczpl93m
p2
I1
s.(dp0
Vcyjkutp
p1
I1
sVczxa401
p2
I1
s.(dp0
Vcyjkutp
p1
I1
sVd00pc3g
p2
I1
s.(dp0
Vcyjkutp
p1
I1
sVd02um8u
p2
I1
s.(dp0
Vcyjkutp
p1
I1
sVd04cdfi
p2
I1
s.(dp0
Vcyjkutp
p1
I1
sVd0628so
p2
I1
s.(dp0
Vcyjkutp
p1
I1
sVd062mta
p2
I1
s.(dp0
Vcyjkutp
p1
I1
sVd07civ8
p2
I1
s.(dp0
Vcyjkutp
p1
I1
sVd0bebyh
p2
I1
s.(dp0
Vcyjkutp
p1
I1
sVd0c163e
p2
I1
s.(dp0
Vcyjkutp
p1
I1
sVd0ciexw
p2
I1
s.(dp0
Vcyjkutp
p1
I1
sVd0d7uay
p2
I1
s.(dp0
Vcyjkutp
p1
I1
sVd0dznpd
p2
I1
s.(dp0
Vcyjkutp
p1
I1
sVd0e4c8u
p2
I1
s.(dp0
Vcyjkutp
p1
I1
sVd0fdhvd
p2
I1
s.(dp0
Vcyjkutp
p1
I1
sVd0hbfn0
p2
I1
s.(dp0
Vcyjkutp
p1
I1
sVd0iav4t
p2
I1
s.(dp0
Vcyjkutp
p1
I1
sVd0jrbif
p2
I1
s.(dp0
Vcyjkutp
p1
I1
sVd0o7m1t
p2
I1
s.(dp0
Vcyjkutp
p1
I1
sVd0ojezn
p2
I1
s.(dp0
Vcyjkutp
p1
I1
sVd0qq2o0
p2
I1
s.(dp0
Vcyjkutp
p1
I1
sVd0sqxom
p2
I1
s.(dp0
Vcyjkutp
p1
I1
sVd0sqxom
p2
I1
s.(dp0
Vcyjkutp
p1
I1
sVd0tb6i7
p2
I1
s.(dp0
Vd0vrljy
p1
I1
sVcyjkutp
p2
I1
s.(dp0
Vcyjkutp
p1
I1
sVd0yq5rg
p2
I1
s.(dp0
Vcyjkutp
p1
I1
sVd15aqri
p2
I1
s.(dp0
Vcyjkutp
p1
I1
sVd16d0vm
p2
I1
s.(dp0
Vcyjkutp
p1
I1
sVd16ggff
p2
I1
s.(dp0
Vd1fhak6
p1
I1
sVcyjkutp
p2
I1
s.(dp0
Vd1fhak6
p1
I1
sVcyjkutp
p2
I1
s.(dp0
Vcyjkutp
p1
I1
sVd1fi7bv
p2
I1
s.(dp0
Vcyjkutp
p1
I1
sVd1fvvyg
p2
I1
s.(dp0
Vcyjkutp
p1
I1
sVd1g6c2q
p2
I1
s.(dp0
Vcyjkutp
p1
I1
sVd1nd3tn
p2
I1
s.(dp0
Vcyjkutp
p1
I1
sVd1nxbeg
p2
I1
s.(dp0
Vcyjkutp
p1
I1
sVd1p10dy
p2
I1
s.(dp0
Vcyjkutp
p1
I1
sVd1r5wsa
p2
I1
s.(dp0
Vd1t7u22
p1
I1
sVcyjkutp
p2
I1
s.(dp0
Vcyjkutp
p1
I1
sVd1ttqg9
p2
I1
s.(dp0
Vcyjkutp
p1
I1
sVd21b5hb
p2
I1
s.(dp0
Vcyjkutp
p1
I1
sVd235jwt
p2
I1
s.(dp0
Vcyjkutp
p1
I1
sVd25j3fz
p2
I1
s.(dp0
Vd267k0m
p1
I1
sVcyjkutp
p2
I1
s.(dp0
Vcyjkutp
p1
I1
sVd29d1lg
p2
I1
s.(dp0
Vcyjkutp
p1
I1
sVd2aia4m
p2
I1
s.(dp0
Vcyjkutp
p1
I1
sVd2c4mvs
p2
I1
s.(dp0
Vcyjkutp
p1
I1
sVd2cp9in
p2
I1
s.(dp0
Vcyjkutp
p1
I1
sVd2d02wm
p2
I1
s.(dp0
Vd2f8y7o
p1
I1
sVcyjkutp
p2
I1
s.(dp0
Vd2i0n4f
p1
I1
sVcyjkutp
p2
I1
s.(dp0
Vcyjkutp
p1
I1
sVd2i0p2i
p2
I1
s.(dp0
Vcyjkutp
p1
I1
sVd2k43ek
p2
I1
s.(dp0
Vcyjkutp
p1
I1
sVd2lg5mx
p2
I1
s.(dp0
Vcyjkutp
p1
I1
sVd2o29rv
p2
I1
s.(dp0
Vd2o364q
p1
I1
sVcyjkutp
p2
I1
s.(dp0
Vd2rjaac
p1
I1
sVcyjkutp
p2
I1
s.(dp0
Vcyjkutp
p1
I1
sVd2wxe9k
p2
I1
s.(dp0
Vcyjkutp
p1
I1
sVd305ugp
p2
I1
s.(dp0
Vd30w7oa
p1
I1
sVcyjkutp
p2
I1
s.(dp0
Vcyjkutp
p1
I1
sVd33glz7
p2
I1
s.(dp0
Vcyjkutp
p1
I1
sVd38lh3z
p2
I1
s.(dp0
Vcyjkutp
p1
I1
sVd3al7j8
p2
I1
s.(dp0
Vcyjkutp
p1
I1
sVd3bfefs
p2
I1
s.(dp0
Vcyjkutp
p1
I1
sVd3co34l
p2
I1
s.(dp0
Vd3hekz8
p1
I1
sVcyjkutp
p2
I1
s.(dp0
Vcyjkutp
p1
I1
sVd3k3dx3
p2
I1
s.(dp0
Vcyjkutp
p1
I1
sVd3l6bi2
p2
I1
s.(dp0
Vcyjkutp
p1
I1
sVd3mj2yi
p2
I1
s.(dp0
Vcyjkutp
p1
I1
sVd3qcwoj
p2
I1
s.(dp0
Vcyjkutp
p1
I1
sVd3rqc60
p2
I1
s.(dp0
Vcyjkutp
p1
I1
sVd3x40nt
p2
I1
s.(dp0
Vd3xa287
p1
I1
sVcyjkutp
p2
I1
s.(dp0
Vcyjkutp
p1
I1
sVd3ybvk7
p2
I1
s.(dp0
Vcyjkutp
p1
I1
sVd4164yh
p2
I1
s.(dp0
Vcyjkutp
p1
I1
sVd44ykzt
p2
I1
s.(dp0
Vcyjkutp
p1
I1
sVd4d1jzg
p2
I1
s.(dp0
Vd4kykk1
p1
I1
sVcyjkutp
p2
I1
s.(dp0
Vcyjkutp
p1
I1
sVd4sghox
p2
I1
s.(dp0
Vcyjkutp
p1
I1
sVd4ul21k
p2
I1
s.(dp0
Vcyjkutp
p1
I1
sVd50e3tk
p2
I1
s.(dp0
Vcyjkutp
p1
I1
sVd50mbu1
p2
I1
s.(dp0
Vcy(dp0
Vdkvfgtq
p1
I1
sVcyjkutp
p2
I1
s.