(dp0
Vcytxz63
p1
I1
s.(dp0
Vcytxz63
p1
I1
sVczbjbkt
p2
I1
s.(dp0
Vcytxz63
p1
I1
sVczln7qu
p2
I1
s.(dp0
Vcytxz63
p1
I1
sVd00qllb
p2
I1
s.(dp0
Vcytxz63
p1
I1
sVd1xenfu
p2
I1
s.(dp0
Vcytxz63
p1
I1
sVd2tozvr
p2
I1
s.(dp0
Vcytxz63
p1
I1
sVd7573i7
p2
I1
s.(dp0
Vcytxz63
p1
I1
sVd8whscs
p2
I1
s.(dp0
Vcytxz63
p1
I1
sVda4jtvq
p2
I1
s.(dp0
Vcytxz63
p1
I1
sVdfgpmm2
p2
I1
s.(dp0
Vcytxz63
p1
I1
sVdgfwe6d
p2
I1
s.(dp0
Vcytxz63
p1
I1
sVdinjcn8
p2
I1
s.(dp0
Vcytxz63
p1
I1
sVdji3d9h
p2
I1
s.(dp0
Vcytxz63
p1
I1
sVdmouxny
p2
I1
s.(dp0
Vcytxz63
p1
I1
sVdn44kg6
p2
I1
s.(dp0
Vcytxz63
p1
I1
sVdozd180
p2
I1
s.