(dp0
Vczv1otf
p1
I1
s.(dp0
Vd69re7z
p1
I1
sVczv1otf
p2
I1
s.(dp0
Vd9ujjff
p1
I1
sVczv1otf
p2
I1
s.(dp0
Vd9ujjff
p1
I1
sVczv1otf
p2
I1
s.(dp0
Vdc2jt64
p1
I1
sVczv1otf
p2
I1
s.(dp0
Vdcht4tv
p1
I1
sVczv1otf
p2
I1
s.(dp0
Vdjypnn8
p1
I1
sVczv1otf
p2
I1
s.(dp0
Vdjypnn8
p1
I1
sVczv1otf
p2
I1
s.