(dp0
Vcz938iu
p1
I1
s.(dp0
Vd1n701i
p1
I1
sVcz938iu
p2
I1
s.(dp0
Vd3aqpvj
p1
I1
sVcz938iu
p2
I1
s.(dp0
Vd6lrv34
p1
I1
sVcz938iu
p2
I1
s.(dp0
Vd7xw38s
p1
I1
sVcz938iu
p2
I1
s.(dp0
Vd8oz3ip
p1
I1
sVcz938iu
p2
I1
s.