(dp0
Vd1bxe8z
p1
I1
s.(dp0
Vd3dv3jf
p1
I1
sVd1bxe8z
p2
I1
s.(dp0
Vd1bxe8z
p1
I1
sVd3mglqg
p2
I1
s.(dp0
Vd636o80
p1
I1
sVd1bxe8z
p2
I1
s.(dp0
Vd6t0p8n
p1
I1
sVd1bxe8z
p2
I1
s.(dp0
Vd767yoy
p1
I1
sVd1bxe8z
p2
I1
s.(dp0
Vd1bxe8z
p1
I1
sVd7clo1f
p2
I1
s.(dp0
Vd8s7ij3
p1
I1
sVd1bxe8z
p2
I1
s.(dp0
Vdblhitg
p1
I1
sVd1bxe8z
p2
I1
s.(dp0
Vdbqczm7
p1
I1
sVd1bxe8z
p2
I1
s.(dp0
Vdeto2l4
p1
I1
sVd1bxe8z
p2
I1
s.(dp0
Vdhfqyk8
p1
I1
sVd1bxe8z
p2
I1
s.(dp0
Vdj8gu1b
p1
I1
sVd1bxe8z
p2
I1
s.