(dp0
Vcyi2qq5
p1
I1
s.(dp0
Vcyjw5ot
p1
I1
sVcyi2qq5
p2
I1
s.(dp0
Vcykhjm2
p1
I1
sVcyi2qq5
p2
I1
s.(dp0
Vcykhjm2
p1
I1
sVcyi2qq5
p2
I1
s.(dp0
Vcyksaa8
p1
I1
sVcyi2qq5
p2
I1
s.(dp0
Vcynl8or
p1
I1
sVcyi2qq5
p2
I1
s.(dp0
Vcyqtjs6
p1
I1
sVcyi2qq5
p2
I1
s.(dp0
Vcyqtjs6
p1
I1
sVcyi2qq5
p2
I1
s.(dp0
Vcys55td
p1
I1
sVcyi2qq5
p2
I1
s.(dp0
Vcys55td
p1
I1
sVcyi2qq5
p2
I1
s.(dp0
Vcyte5eu
p1
I1
sVcyi2qq5
p2
I1
s.(dp0
Vcyw23eu
p1
I1
sVcyi2qq5
p2
I1
s.(dp0
Vcyyyaev
p1
I1
sVcyi2qq5
p2
I1
s.(dp0
Vcyz07ma
p1
I1
sVcyi2qq5
p2
I1
s.(dp0
Vcyz5184
p1
I1
sVcyi2qq5
p2
I1
s.(dp0
Vcz02v7q
p1
I1
sVcyi2qq5
p2
I1
s.(dp0
Vcz05853
p1
I1
sVcyi2qq5
p2
I1
s.(dp0
Vcz2p9wt
p1
I1
sVcyi2qq5
p2
I1
s.(dp0
Vcz4wd9y
p1
I1
sVcyi2qq5
p2
I1
s.(dp0
Vczan9a4
p1
I1
sVcyi2qq5
p2
I1
s.(dp0
Vczdg76s
p1
I1
sVcyi2qq5
p2
I1
s.(dp0
Vczdjeoy
p1
I1
sVcyi2qq5
p2
I1
s.(dp0
Vczepcem
p1
I1
sVcyi2qq5
p2
I1
s.(dp0
Vczez4o8
p1
I1
sVcyi2qq5
p2
I1
s.(dp0
Vczfpq93
p1
I1
sVcyi2qq5
p2
I1
s.(dp0
Vczfxht7
p1
I1
sVcyi2qq5
p2
I1
s.(dp0
Vczg8vbv
p1
I1
sVcyi2qq5
p2
I1
s.(dp0
Vczi2ioe
p1
I1
sVcyi2qq5
p2
I1
s.(dp0
Vczjm8nv
p1
I1
sVcyi2qq5
p2
I1
s.(dp0
Vczm23gm
p1
I1
sVcyi2qq5
p2
I1
s.(dp0
Vcznzb7n
p1
I1
sVcyi2qq5
p2
I1
s.(dp0
Vczv13j7
p1
I1
sVcyi2qq5
p2
I1
s.(dp0
Vczx7toh
p1
I1
sVcyi2qq5
p2
I1
s.(dp0
Vczza1j3
p1
I1
sVcyi2qq5
p2
I1
s.(dp0
Vd000evx
p1
I1
sVcyi2qq5
p2
I1
s.(dp0
Vd01jl78
p1
I1
sVcyi2qq5
p2
I1
s.(dp0
Vd042w7q
p1
I1
sVcyi2qq5
p2
I1
s.(dp0
Vd06l98l
p1
I1
sVcyi2qq5
p2
I1
s.(dp0
Vd081w92
p1
I1
sVcyi2qq5
p2
I1
s.(dp0
Vd09q0qi
p1
I1
sVcyi2qq5
p2
I1
s.(dp0
Vd0aculw
p1
I1
sVcyi2qq5
p2
I1
s.(dp0
Vd0cf78j
p1
I1
sVcyi2qq5
p2
I1
s.(dp0
Vd0emkv8
p1
I1
sVcyi2qq5
p2
I1
s.(dp0
Vd0g5ync
p1
I1
sVcyi2qq5
p2
I1
s.(dp0
Vd0jx4lw
p1
I1
sVcyi2qq5
p2
I1
s.(dp0
Vd0l6lf2
p1
I1
sVcyi2qq5
p2
I1
s.(dp0
Vd0lhq47
p1
I1
sVcyi2qq5
p2
I1
s.(dp0
Vd0snybb
p1
I1
sVcyi2qq5
p2
I1
s.(dp0
Vd0te3zz
p1
I1
sVcyi2qq5
p2
I1
s.(dp0
Vd0xju56
p1
I1
sVcyi2qq5
p2
I1
s.(dp0
Vd12r5f2
p1
I1
sVcyi2qq5
p2
I1
s.(dp0
Vd12soem
p1
I1
sVcyi2qq5
p2
I1
s.(dp0
Vd13vjn4
p1
I1
sVcyi2qq5
p2
I1
s.(dp0
Vd13vjn4
p1
I1
sVcyi2qq5
p2
I1
s.(dp0
Vd1gdfsx
p1
I1
sVcyi2qq5
p2
I1
s.(dp0
Vd1npic3
p1
I1
sVcyi2qq5
p2
I1
s.(dp0
Vd1tfnpm
p1
I1
sVcyi2qq5
p2
I1
s.(dp0
Vd1txfns
p1
I1
sVcyi2qq5
p2
I1
s.(dp0
Vd226k9u
p1
I1
sVcyi2qq5
p2
I1
s.(dp0
Vd25kmem
p1
I1
sVcyi2qq5
p2
I1
s.(dp0
Vd25kmem
p1
I1
sVcyi2qq5
p2
I1
s.(dp0
Vd2doelf
p1
I1
sVcyi2qq5
p2
I1
s.(dp0
Vd2eqjzx
p1
I1
sVcyi2qq5
p2
I1
s.(dp0
Vd2kgdad
p1
I1
sVcyi2qq5
p2
I1
s.(dp0
Vd2kuwd0
p1
I1
sVcyi2qq5
p2
I1
s.(dp0
Vd2ph42j
p1
I1
sVcyi2qq5
p2
I1
s.(dp0
Vd2x6rb4
p1
I1
sVcyi2qq5
p2
I1
s.(dp0
Vd349mtp
p1
I1
sVcyi2qq5
p2
I1
s.(dp0
Vd34tban
p1
I1
sVcyi2qq5
p2
I1
s.(dp0
Vd36ltav
p1
I1
sVcyi2qq5
p2
I1
s.(dp0
Vd3e09bk
p1
I1
sVcyi2qq5
p2
I1
s.(dp0
Vd3ejoxf
p1
I1
sVcyi2qq5
p2
I1
s.(dp0
Vd3j1ooo
p1
I1
sVcyi2qq5
p2
I1
s.(dp0
Vd3jo8vm
p1
I1
sVcyi2qq5
p2
I1
s.(dp0
Vd3jq3ge
p1
I1
sVcyi2qq5
p2
I1
s.(dp0
Vd3k9vw2
p1
I1
sVcyi2qq5
p2
I1
s.(dp0
Vd3tkz8j
p1
I1
sVcyi2qq5
p2
I1
s.(dp0
Vd3zg5og
p1
I1
sVcyi2qq5
p2
I1
s.(dp0
Vd3zifm1
p1
I1
sVcyi2qq5
p2
I1
s.(dp0
Vd43okks
p1
I1
sVcyi2qq5
p2
I1
s.(dp0
Vd46emgn
p1
I1
sVcyi2qq5
p2
I1
s.(dp0
Vd48ilgi
p1
I1
sVcyi2qq5
p2
I1
s.(dp0
Vd4a4q9j
p1
I1
sVcyi2qq5
p2
I1
s.(dp0
Vd4bfzwx
p1
I1
sVcyi2qq5
p2
I1
s.(dp0
Vd4gmzri
p1
I1
sVcyi2qq5
p2
I1
s.(dp0
Vd4i6l8z
p1
I1
sVcyi2qq5
p2
I1
s.(dp0
Vd4icgac
p1
I1
sVcyi2qq5
p2
I1
s.(dp0
Vd4o1z1m
p1
I1
sVcyi2qq5
p2
I1
s.(dp0
Vd4r1twz
p1
I1
sVcyi2qq5
p2
I1
s.(dp0
Vd4sb488
p1
I1
sVcyi2qq5
p2
I1
s.(dp0
Vd4sc1u2
p1
I1
sVcyi2qq5
p2
I1
s.(dp0
Vd4tn6g6
p1
I1
sVcyi2qq5
p2
I1
s.(dp0
Vd4v7bbl
p1
I1
sVcyi2qq5
p2
I1
s.(dp0
Vd5795ua
p1
I1
sVcyi2qq5
p2
I1
s.(dp0
Vd590zwm
p1
I1
sVcyi2qq5
p2
I1
s.(dp0
Vd597752
p1
I1
sVcyi2qq5
p2
I1
s.(dp0
Vd5g5eym
p1
I1
sVcyi2qq5
p2
I1
s.(dp0
Vd5g6rhn
p1
I1
sVcyi2qq5
p2
I1
s.(dp0
Vd5n0b44
p1
I1
sVcyi2qq5
p2
I1
s.(dp0
Vd5p76wj
p1
I1
sVcyi2qq5
p2
I1
s.(dp0
Vd5qkz7l
p1
I1
sVcyi2qq5
p2
I1
s.(dp0
Vd5ubykq
p1
I1
sVcyi2qq5
p2
I1
s.(dp0
Vd5zv850
p1
I1
sVcyi2qq5
p2
I1
s.(dp0
Vd668gk5
p1
I1
sVcyi2qq5
p2
I1
s.(dp0
Vd66dpr3
p1
I1
sVcyi2qq5
p2
I1
s.(dp0
Vd66dpr3
p1
I1
sVcyi2qq5
p2
I1
s.(dp0
Vd68i0kt
p1
I1
sVcyi2qq5
p2
I1
s.(dp0
Vd68s8ob
p1
I1
sVcyi2qq5
p2
I1
s.(dp0
Vd6(dp0
Vdonyslp
p1
I1
sVcyi2qq5
p2
I1
s.