(dp0
Vcyjayna
p1
I1
s.(dp0
Vcyjayna
p1
I1
sVcyp7pxf
p2
I1
s.(dp0
Vcyjayna
p1
I1
sVd3dxwlr
p2
I1
s.(dp0
Vcyjayna
p1
I1
sVd5h0xk3
p2
I1
s.(dp0
Vcyjayna
p1
I1
sVdgzh9sb
p2
I1
s.(dp0
Vcyjayna
p1
I1
sVdmq9lph
p2
I1
s.(dp0
Vcyjayna
p1
I1
sVdny3s4b
p2
I1
s.