(dp0
Vcz2pi8p
p1
I1
s.(dp0
Vcz2pi8p
p1
I1
sVczs4m7c
p2
I1
s.(dp0
Vd0et2s1
p1
I1
sVcz2pi8p
p2
I1
s.(dp0
Vcz2pi8p
p1
I1
sVd4cf9lh
p2
I1
s.(dp0
Vcz2pi8p
p1
I1
sVd4cf9lh
p2
I1
s.(dp0
Vdalsnm2
p1
I1
sVcz2pi8p
p2
I1
s.(dp0
Vdc45odz
p1
I1
sVcz2pi8p
p2
I1
s.(dp0
Vcz2pi8p
p1
I1
sVdcz1azv
p2
I1
s.(dp0
Vdfk8q6x
p1
I1
sVcz2pi8p
p2
I1
s.(dp0
Vdftk3mt
p1
I1
sVcz2pi8p
p2
I1
s.(dp0
Vcz2pi8p
p1
I1
sVdn45r6u
p2
I1
s.