(dp0
Vd03lzzh
p1
I1
s.(dp0
Vd0fxk1r
p1
I1
sVd03lzzh
p2
I1
s.(dp0
Vd0sqyh9
p1
I1
sVd03lzzh
p2
I1
s.(dp0
Vd03lzzh
p1
I1
sVd24pthh
p2
I1
s.(dp0
Vd39rnrq
p1
I1
sVd03lzzh
p2
I1
s.(dp0
Vd8i42am
p1
I1
sVd03lzzh
p2
I1
s.(dp0
Vdaa9suu
p1
I1
sVd03lzzh
p2
I1
s.(dp0
Vd03lzzh
p1
I1
sVdcydnak
p2
I1
s.(dp0
Vddvadqu
p1
I1
sVd03lzzh
p2
I1
s.(dp0
Vd03lzzh
p1
I1
sVddwsegw
p2
I1
s.(dp0
Vdgk7pcy
p1
I1
sVd03lzzh
p2
I1
s.