(dp0
Vd2joyba
p1
I1
s.(dp0
Vd2joyba
p1
I2
s.(dp0
Vd2snqes
p1
I1
sVd2joyba
p2
I1
s.(dp0
Vd3fyrip
p1
I1
sVd2joyba
p2
I1
s.(dp0
Vd2joyba
p1
I1
sVd3y39o0
p2
I1
s.(dp0
Vd5s51qm
p1
I1
sVd2joyba
p2
I1
s.(dp0
Vd7rj7yo
p1
I1
sVd2joyba
p2
I1
s.(dp0
Vd94ampx
p1
I1
sVd2joyba
p2
I1
s.(dp0
Vdc9ncpc
p1
I1
sVd2joyba
p2
I1
s.(dp0
Vddw48c0
p1
I1
sVd2joyba
p2
I1
s.(dp0
Vdip4v5h
p1
I1
sVd2joyba
p2
I1
s.