(dp0
Vcyipi79
p1
I1
s.(dp0
Vcyipi79
p1
I1
sVcyjmzuv
p2
I1
s.(dp0
Vcyipi79
p1
I1
sVczitezg
p2
I1
s.(dp0
Vcyipi79
p1
I1
sVczlwfgw
p2
I1
s.(dp0
Vczmv2v1
p1
I1
sVcyipi79
p2
I1
s.(dp0
Vczr41zv
p1
I1
sVcyipi79
p2
I1
s.(dp0
Vd00gr4r
p1
I1
sVcyipi79
p2
I1
s.(dp0
Vd04hd9h
p1
I1
sVcyipi79
p2
I1
s.(dp0
Vcyipi79
p1
I1
sVd07en3e
p2
I1
s.(dp0
Vcyipi79
p1
I1
sVd0878mn
p2
I1
s.(dp0
Vcyipi79
p1
I1
sVd0hz7gl
p2
I1
s.(dp0
Vcyipi79
p1
I1
sVd0iyhdz
p2
I1
s.(dp0
Vcyipi79
p1
I1
sVd0iyhdz
p2
I1
s.(dp0
Vcyipi79
p1
I1
sVd0n14cd
p2
I1
s.(dp0
Vcyipi79
p1
I1
sVd0rzm1y
p2
I1
s.(dp0
Vcyipi79
p1
I1
sVd23otq2
p2
I1
s.(dp0
Vcyipi79
p1
I1
sVd2508lb
p2
I1
s.(dp0
Vd2fr4jw
p1
I1
sVcyipi79
p2
I1
s.(dp0
Vcyipi79
p1
I1
sVd2tq683
p2
I1
s.(dp0
Vcyipi79
p1
I1
sVd3bv9df
p2
I1
s.(dp0
Vcyipi79
p1
I1
sVd3k1z1i
p2
I1
s.(dp0
Vcyipi79
p1
I1
sVd3q7dy1
p2
I1
s.(dp0
Vcyipi79
p1
I1
sVd478e8f
p2
I1
s.(dp0
Vcyipi79
p1
I1
sVd4g1pdc
p2
I1
s.(dp0
Vcyipi79
p1
I1
sVd4irk0k
p2
I1
s.(dp0
Vd5n649a
p1
I1
sVcyipi79
p2
I1
s.(dp0
Vcyipi79
p1
I1
sVd5qva9n
p2
I1
s.(dp0
Vcyipi79
p1
I1
sVd71snf3
p2
I1
s.(dp0
Vcyipi79
p1
I1
sVd7vwon5
p2
I1
s.(dp0
Vcyipi79
p1
I1
sVd7vwon5
p2
I1
s.(dp0
Vcyipi79
p1
I1
sVd7vxadj
p2
I1
s.(dp0
Vd7w8c17
p1
I1
sVcyipi79
p2
I1
s.(dp0
Vcyipi79
p1
I1
sVd8if6a2
p2
I1
s.(dp0
Vcyipi79
p1
I1
sVd8yf97j
p2
I1
s.(dp0
Vcyipi79
p1
I1
sVda0re5f
p2
I1
s.(dp0
Vcyipi79
p1
I1
sVda0re5f
p2
I1
s.(dp0
Vcyipi79
p1
I1
sVda0re5f
p2
I1
s.(dp0
Vcyipi79
p1
I1
sVda0re5f
p2
I1
s.(dp0
Vcyipi79
p1
I1
sVdafqcf3
p2
I1
s.(dp0
Vdaft0cb
p1
I1
sVcyipi79
p2
I1
s.(dp0
Vdafur1m
p1
I1
sVcyipi79
p2
I1
s.(dp0
Vdasdojj
p1
I1
sVcyipi79
p2
I1
s.(dp0
Vdbh183q
p1
I1
sVcyipi79
p2
I1
s.(dp0
Vdbl7m9b
p1
I1
sVcyipi79
p2
I1
s.(dp0
Vdd4gwwr
p1
I1
sVcyipi79
p2
I1
s.(dp0
Vcyipi79
p1
I1
sVdd6wgzz
p2
I1
s.(dp0
Vddd9q4e
p1
I1
sVcyipi79
p2
I1
s.(dp0
Vddyvsjd
p1
I1
sVcyipi79
p2
I1
s.(dp0
Vddyvsjd
p1
I1
sVcyipi79
p2
I1
s.(dp0
Vcyipi79
p1
I1
sVdeno4fw
p2
I1
s.(dp0
Vcyipi79
p1
I1
sVdeno4fw
p2
I1
s.(dp0
Vdepstpt
p1
I1
sVcyipi79
p2
I1
s.(dp0
Vdg45k2i
p1
I1
sVcyipi79
p2
I1
s.(dp0
Vcyipi79
p1
I1
sVdg4bczy
p2
I1
s.(dp0
Vcyipi79
p1
I1
sVdg4cmh9
p2
I1
s.(dp0
Vdg8gzx9
p1
I1
sVcyipi79
p2
I1
s.(dp0
Vcyipi79
p1
I1
sVdgjcsde
p2
I1
s.(dp0
Vdgnxx20
p1
I1
sVcyipi79
p2
I1
s.(dp0
Vcyipi79
p1
I1
sVdgtgggg
p2
I1
s.(dp0
Vcyipi79
p1
I1
sVdgtgggg
p2
I1
s.(dp0
Vcyipi79
p1
I1
sVdgth1u1
p2
I1
s.(dp0
Vcyipi79
p1
I1
sVdgth1u1
p2
I1
s.(dp0
Vdhpx950
p1
I1
sVcyipi79
p2
I1
s.(dp0
Vdhpx950
p1
I1
sVcyipi79
p2
I1
s.(dp0
Vdhqj7la
p1
I1
sVcyipi79
p2
I1
s.(dp0
Vdi3dnxj
p1
I1
sVcyipi79
p2
I1
s.(dp0
Vcyipi79
p1
I1
sVdi3dyo7
p2
I1
s.(dp0
Vdi8woq0
p1
I1
sVcyipi79
p2
I1
s.(dp0
Vcyipi79
p1
I1
sVdiebmz9
p2
I1
s.(dp0
Vcyipi79
p1
I1
sVdifmevc
p2
I1
s.(dp0
Vdiz213t
p1
I1
sVcyipi79
p2
I1
s.(dp0
Vdizl9jy
p1
I1
sVcyipi79
p2
I1
s.(dp0
Vcyipi79
p1
I1
sVdj8al0i
p2
I1
s.(dp0
Vcyipi79
p1
I1
sVdj8al0i
p2
I1
s.(dp0
Vcyipi79
p1
I1
sVdk7ed6z
p2
I1
s.(dp0
Vcyipi79
p1
I1
sVdk7ed6z
p2
I1
s.(dp0
Vcyipi79
p1
I1
sVdk7ed6z
p2
I1
s.(dp0
Vcyipi79
p1
I1
sVdkmagm9
p2
I1
s.(dp0
Vdkmf4fj
p1
I1
sVcyipi79
p2
I1
s.(dp0
Vdkmi0xt
p1
I1
sVcyipi79
p2
I1
s.(dp0
Vcyipi79
p1
I1
sVdkx8fy1
p2
I1
s.