(dp0
Vcyjujml
p1
I1
s.(dp0
Vcyk9rd8
p1
I1
sVcyjujml
p2
I1
s.(dp0
Vcymqhy0
p1
I1
sVcyjujml
p2
I1
s.(dp0
Vcyt79ol
p1
I1
sVcyjujml
p2
I1
s.(dp0
Vcytzqx5
p1
I1
sVcyjujml
p2
I1
s.(dp0
Vcyzhtsw
p1
I1
sVcyjujml
p2
I1
s.(dp0
Vcz500ls
p1
I1
sVcyjujml
p2
I1
s.(dp0
Vcz6byoe
p1
I1
sVcyjujml
p2
I1
s.(dp0
Vcz9l9as
p1
I1
sVcyjujml
p2
I1
s.(dp0
Vczfl5ze
p1
I1
sVcyjujml
p2
I1
s.(dp0
Vczflhsc
p1
I1
sVcyjujml
p2
I1
s.(dp0
Vczhu2n5
p1
I1
sVcyjujml
p2
I1
s.(dp0
Vczm3zl3
p1
I1
sVcyjujml
p2
I1
s.(dp0
Vczzbig7
p1
I1
sVcyjujml
p2
I1
s.(dp0
Vczzzlj1
p1
I1
sVcyjujml
p2
I1
s.(dp0
Vd00mrgi
p1
I1
sVcyjujml
p2
I1
s.(dp0
Vd013yto
p1
I1
sVcyjujml
p2
I1
s.(dp0
Vd04annx
p1
I1
sVcyjujml
p2
I1
s.(dp0
Vd05xcfk
p1
I1
sVcyjujml
p2
I1
s.(dp0
Vd08rcaz
p1
I1
sVcyjujml
p2
I1
s.(dp0
Vd09q0qi
p1
I1
sVcyjujml
p2
I1
s.(dp0
Vd0aop1u
p1
I1
sVcyjujml
p2
I1
s.(dp0
Vd0b7uwy
p1
I1
sVcyjujml
p2
I1
s.(dp0
Vd0cgohr
p1
I1
sVcyjujml
p2
I1
s.(dp0
Vd0kwn3k
p1
I1
sVcyjujml
p2
I1
s.(dp0
Vd0nznzv
p1
I1
sVcyjujml
p2
I1
s.(dp0
Vd0o9uby
p1
I1
sVcyjujml
p2
I1
s.(dp0
Vd0t2gbx
p1
I1
sVcyjujml
p2
I1
s.(dp0
Vd0zovnn
p1
I1
sVcyjujml
p2
I1
s.(dp0
Vd0ztxth
p1
I1
sVcyjujml
p2
I1
s.(dp0
Vd12soem
p1
I1
sVcyjujml
p2
I1
s.(dp0
Vd151d7t
p1
I1
sVcyjujml
p2
I1
s.(dp0
Vd151d7t
p1
I1
sVcyjujml
p2
I1
s.(dp0
Vd15b3yz
p1
I1
sVcyjujml
p2
I1
s.(dp0
Vd18q3k2
p1
I1
sVcyjujml
p2
I1
s.(dp0
Vd1d98m8
p1
I1
sVcyjujml
p2
I1
s.(dp0
Vd1fyrlc
p1
I1
sVcyjujml
p2
I1
s.(dp0
Vd1geajy
p1
I1
sVcyjujml
p2
I1
s.(dp0
Vd1gfc4u
p1
I1
sVcyjujml
p2
I1
s.(dp0
Vd1l3yup
p1
I1
sVcyjujml
p2
I1
s.(dp0
Vd1lvmfj
p1
I1
sVcyjujml
p2
I1
s.(dp0
Vd1lvmfj
p1
I1
sVcyjujml
p2
I1
s.(dp0
Vd1rhmnl
p1
I1
sVcyjujml
p2
I1
s.(dp0
Vd1rykld
p1
I1
sVcyjujml
p2
I1
s.(dp0
Vd1saqf0
p1
I1
sVcyjujml
p2
I1
s.(dp0
Vd27ite3
p1
I1
sVcyjujml
p2
I1
s.(dp0
Vd2o3hyw
p1
I1
sVcyjujml
p2
I1
s.(dp0
Vd2qvv9s
p1
I1
sVcyjujml
p2
I1
s.(dp0
Vd2uzqb7
p1
I1
sVcyjujml
p2
I1
s.(dp0
Vd2wwelx
p1
I1
sVcyjujml
p2
I1
s.(dp0
Vd2wwelx
p1
I1
sVcyjujml
p2
I1
s.(dp0
Vd306hir
p1
I1
sVcyjujml
p2
I1
s.(dp0
Vd30idcn
p1
I1
sVcyjujml
p2
I1
s.(dp0
Vd30idcn
p1
I1
sVcyjujml
p2
I1
s.(dp0
Vd32moa4
p1
I1
sVcyjujml
p2
I1
s.(dp0
Vd346qi0
p1
I1
sVcyjujml
p2
I1
s.(dp0
Vd3jebam
p1
I1
sVcyjujml
p2
I1
s.(dp0
Vd3lrotc
p1
I1
sVcyjujml
p2
I1
s.(dp0
Vd3udhp0
p1
I1
sVcyjujml
p2
I1
s.(dp0
Vd3yg4ye
p1
I1
sVcyjujml
p2
I1
s.(dp0
Vd462amc
p1
I1
sVcyjujml
p2
I1
s.(dp0
Vd4a26uq
p1
I1
sVcyjujml
p2
I1
s.(dp0
Vd4a9ira
p1
I1
sVcyjujml
p2
I1
s.(dp0
Vd4aw5zb
p1
I1
sVcyjujml
p2
I1
s.(dp0
Vd4axnc8
p1
I1
sVcyjujml
p2
I1
s.(dp0
Vd4gy7n0
p1
I1
sVcyjujml
p2
I1
s.(dp0
Vd4lkgki
p1
I1
sVcyjujml
p2
I1
s.(dp0
Vd4lkgki
p1
I1
sVcyjujml
p2
I1
s.(dp0
Vd4lq5qp
p1
I1
sVcyjujml
p2
I1
s.(dp0
Vd52cg43
p1
I1
sVcyjujml
p2
I1
s.(dp0
Vd52ebfn
p1
I1
sVcyjujml
p2
I1
s.(dp0
Vd59dtdc
p1
I1
sVcyjujml
p2
I1
s.(dp0
Vd5a048w
p1
I1
sVcyjujml
p2
I1
s.(dp0
Vd5iygse
p1
I1
sVcyjujml
p2
I1
s.(dp0
Vd5jhlht
p1
I1
sVcyjujml
p2
I1
s.(dp0
Vd5jhlht
p1
I1
sVcyjujml
p2
I1
s.(dp0
Vd5klzqj
p1
I1
sVcyjujml
p2
I1
s.(dp0
Vd5klzqj
p1
I1
sVcyjujml
p2
I1
s.(dp0
Vd5lpbip
p1
I1
sVcyjujml
p2
I1
s.(dp0
Vd5m38bv
p1
I1
sVcyjujml
p2
I1
s.(dp0
Vd5pf5yj
p1
I1
sVcyjujml
p2
I1
s.(dp0
Vd5pwe8g
p1
I1
sVcyjujml
p2
I1
s.(dp0
Vd5vog19
p1
I1
sVcyjujml
p2
I1
s.(dp0
Vd5vog19
p1
I1
sVcyjujml
p2
I1
s.(dp0
Vd5vog19
p1
I1
sVcyjujml
p2
I1
s.(dp0
Vd5vog19
p1
I1
sVcyjujml
p2
I1
s.(dp0
Vd62fslb
p1
I1
sVcyjujml
p2
I1
s.(dp0
Vd6743jf
p1
I1
sVcyjujml
p2
I1
s.(dp0
Vd692lab
p1
I1
sVcyjujml
p2
I1
s.(dp0
Vd6ajai9
p1
I1
sVcyjujml
p2
I1
s.(dp0
Vd6ajai9
p1
I1
sVcyjujml
p2
I1
s.(dp0
Vd6dkcfg
p1
I1
sVcyjujml
p2
I1
s.(dp0
Vd6dsbru
p1
I1
sVcyjujml
p2
I1
s.(dp0
Vd6f27a4
p1
I1
sVcyjujml
p2
I1
s.(dp0
Vd6gn58m
p1
I1
sVcyjujml
p2
I1
s.(dp0
Vd6gn58m
p1
I1
sVcyjujml
p2
I1
s.(dp0
Vd6k8vg8
p1
I1
sVcyjujml
p2
I1
s.(dp0
Vd6pwt71
p1
I1
sVcyjujml
p2
I1
s.(dp0
Vd6pwt71
p1
I1
sVcyjujml
p2
I1
s.(dp0
Vd6rkp9u
p1
I1
sVcyjujml
p2
I1
s.(dp0
Vd6xa3ww
p1
I1
sVcyjujml
p2
I1
s.(dp0
Vd712w3q
p1
I1
sVcyjujml
p2
I1
s.(dp0
Vd73owhy
p1
I1
sVcyjujml
p2
I1
s.(dp0
Vd7h7jzk
p1
I1
sVcyjujml
p2
I1
s.(dp0
Vd7qjzmw
p1
I1
sVcyjujml
p2
I1
s.(dp0
Vd7qjzmw
p1
I1
sVcyjujml
p2
I1
s.(dp0
Vd7qjzmw
p1
I1
sVcyjujml
p2
I1
s.(dp0
Vd7qjzmw
p1
I1
sVcyjujml
p2
I1
s.(dp0
Vd7(dp0
Vdp4mzlr
p1
I1
sVcyjujml
p2
I1
s.