(dp0
Vcyjvpm6
p1
I1
s.(dp0
Vczauxsf
p1
I1
sVcyjvpm6
p2
I1
s.(dp0
Vd3gd8av
p1
I1
sVcyjvpm6
p2
I1
s.(dp0
Vd67smf7
p1
I1
sVcyjvpm6
p2
I1
s.(dp0
Vd9dag22
p1
I1
sVcyjvpm6
p2
I1
s.(dp0
Vdfizfyo
p1
I1
sVcyjvpm6
p2
I1
s.(dp0
Vdgrxuew
p1
I1
sVcyjvpm6
p2
I1
s.(dp0
Vdgrxuew
p1
I1
sVcyjvpm6
p2
I1
s.(dp0
Vdhzqif9
p1
I1
sVcyjvpm6
p2
I1
s.(dp0
Vdjc1d83
p1
I1
sVcyjvpm6
p2
I1
s.(dp0
Vdopaodd
p1
I1
sVcyjvpm6
p2
I1
s.