(dp0
Vcyi452c
p1
I1
s.(dp0
Vcyi452c
p1
I1
sVcyi47hj
p2
I1
s.(dp0
Vcyi4qze
p1
I1
sVcyi452c
p2
I1
s.(dp0
Vcyi452c
p1
I1
sVcyip3bo
p2
I1
s.(dp0
Vcyi452c
p1
I1
sVcyjj7v6
p2
I1
s.(dp0
Vcyjog1y
p1
I1
sVcyi452c
p2
I1
s.(dp0
Vcyi452c
p1
I1
sVcyjub0w
p2
I1
s.(dp0
Vcyjxubb
p1
I1
sVcyi452c
p2
I1
s.(dp0
Vcyi452c
p1
I1
sVcyk9342
p2
I1
s.(dp0
Vcyi452c
p1
I1
sVcykebmy
p2
I1
s.(dp0
Vcyi452c
p1
I1
sVcykevx1
p2
I1
s.(dp0
Vcyi452c
p1
I1
sVcykkg3c
p2
I1
s.(dp0
Vcyi452c
p1
I1
sVcykkg3c
p2
I1
s.(dp0
Vcykv7br
p1
I1
sVcyi452c
p2
I1
s.(dp0
Vcykvghl
p1
I1
sVcyi452c
p2
I1
s.(dp0
Vcyi452c
p1
I1
sVcyl062q
p2
I1
s.(dp0
Vcyi452c
p1
I1
sVcyl0ocz
p2
I1
s.(dp0
Vcyi452c
p1
I1
sVcyl0ocz
p2
I1
s.(dp0
Vcyi452c
p1
I1
sVcylbix1
p2
I1
s.(dp0
Vcyi452c
p1
I1
sVcylhmhz
p2
I1
s.(dp0
Vcyi452c
p1
I1
sVcylhn99
p2
I1
s.(dp0
Vcyi452c
p1
I1
sVcylhn99
p2
I1
s.(dp0
Vcyi452c
p1
I1
sVcylid8a
p2
I1
s.(dp0
Vcylxf7l
p1
I1
sVcyi452c
p2
I1
s.(dp0
Vcyi452c
p1
I1
sVcym0066
p2
I1
s.(dp0
Vcyi452c
p1
I1
sVcym3ok7
p2
I1
s.(dp0
Vcyi452c
p1
I1
sVcym6icm
p2
I1
s.(dp0
Vcyi452c
p1
I1
sVcymc3wd
p2
I1
s.(dp0
Vcyi452c
p1
I1
sVcymw2sl
p2
I1
s.(dp0
Vcyi452c
p1
I1
sVcyn15gy
p2
I1
s.(dp0
Vcyi452c
p1
I1
sVcyn15gy
p2
I1
s.(dp0
Vcyi452c
p1
I1
sVcynatnv
p2
I1
s.(dp0
Vcyi452c
p1
I1
sVcynbp5l
p2
I1
s.(dp0
Vcyi452c
p1
I1
sVcynbp5l
p2
I1
s.(dp0
Vcyi452c
p1
I1
sVcynq895
p2
I1
s.(dp0
Vcyi452c
p1
I1
sVcynwc67
p2
I1
s.(dp0
Vcyoe99p
p1
I1
sVcyi452c
p2
I1
s.(dp0
Vcyi452c
p1
I1
sVcyoffj5
p2
I1
s.(dp0
Vcyi452c
p1
I1
sVcyokl7c
p2
I1
s.(dp0
Vcyi452c
p1
I1
sVcyozh10
p2
I1
s.(dp0
Vcyi452c
p1
I1
sVcyp0fuq
p2
I1
s.(dp0
Vcyi452c
p1
I1
sVcypcut1
p2
I1
s.(dp0
Vcyi452c
p1
I1
sVcypczks
p2
I1
s.(dp0
Vcypd5lj
p1
I1
sVcyi452c
p2
I1
s.(dp0
Vcyi452c
p1
I1
sVcypg4at
p2
I1
s.(dp0
Vcyi452c
p1
I1
sVcypjsr3
p2
I1
s.(dp0
Vcyplzms
p1
I1
sVcyi452c
p2
I1
s.(dp0
Vcyi452c
p1
I1
sVcypnt36
p2
I1
s.(dp0
Vcyi452c
p1
I1
sVcyposws
p2
I1
s.(dp0
Vcyi452c
p1
I1
sVcypp7rt
p2
I1
s.(dp0
Vcypzfo3
p1
I1
sVcyi452c
p2
I1
s.(dp0
Vcyi452c
p1
I1
sVcyq4144
p2
I1
s.(dp0
Vcyi452c
p1
I1
sVcyqqelz
p2
I1
s.(dp0
Vcyi452c
p1
I1
sVcyr08ks
p2
I1
s.(dp0
Vcyi452c
p1
I1
sVcyr3h76
p2
I1
s.(dp0
Vcyi452c
p1
I1
sVcyrkvqj
p2
I1
s.(dp0
Vcyi452c
p1
I1
sVcyruqhl
p2
I1
s.(dp0
Vcyi452c
p1
I1
sVcys6xio
p2
I1
s.(dp0
Vcyi452c
p1
I1
sVcys7huh
p2
I1
s.(dp0
Vcyi452c
p1
I1
sVcyscugn
p2
I1
s.(dp0
Vcyi452c
p1
I1
sVcysjw8g
p2
I1
s.(dp0
Vcysq8mi
p1
I1
sVcyi452c
p2
I1
s.(dp0
Vcysq8mi
p1
I1
sVcyi452c
p2
I1
s.(dp0
Vcyt4r7l
p1
I1
sVcyi452c
p2
I1
s.(dp0
Vcyt4vzv
p1
I1
sVcyi452c
p2
I1
s.(dp0
Vcyi452c
p1
I1
sVcytjj5g
p2
I1
s.(dp0
Vcyi452c
p1
I1
sVcytlgf1
p2
I1
s.(dp0
Vcyi452c
p1
I1
sVcytlgf1
p2
I1
s.(dp0
Vcyi452c
p1
I1
sVcyubzvh
p2
I1
s.(dp0
Vcyugx5y
p1
I1
sVcyi452c
p2
I1
s.(dp0
Vcyi452c
p1
I1
sVcyuo2g7
p2
I1
s.(dp0
Vcyi452c
p1
I1
sVcyuqu8e
p2
I1
s.(dp0
Vcyi452c
p1
I1
sVcyv10kj
p2
I1
s.(dp0
Vcyv2ani
p1
I1
sVcyi452c
p2
I1
s.(dp0
Vcyi452c
p1
I1
sVcyv2ayf
p2
I1
s.(dp0
Vcyi452c
p1
I1
sVcyv6k69
p2
I1
s.(dp0
Vcyv9by7
p1
I1
sVcyi452c
p2
I1
s.(dp0
Vcyi452c
p1
I1
sVcyvijlr
p2
I1
s.(dp0
Vcyi452c
p1
I1
sVcyvt9ux
p2
I1
s.(dp0
Vcyi452c
p1
I1
sVcyvt9ux
p2
I1
s.(dp0
Vcyi452c
p1
I1
sVcyvv3tb
p2
I1
s.(dp0
Vcyi452c
p1
I1
sVcyw2o1d
p2
I1
s.(dp0
Vcyi452c
p1
I1
sVcywcxur
p2
I1
s.(dp0
Vcyi452c
p1
I1
sVcywlnas
p2
I1
s.(dp0
Vcyi452c
p1
I1
sVcyx138l
p2
I1
s.(dp0
Vcyi452c
p1
I1
sVcyx1t4k
p2
I1
s.(dp0
Vcyi452c
p1
I1
sVcyx60c4
p2
I1
s.(dp0
Vcyi452c
p1
I1
sVcyx60c4
p2
I1
s.(dp0
Vcyi452c
p1
I1
sVcyx60c4
p2
I1
s.(dp0
Vcyi452c
p1
I1
sVcyx60c4
p2
I1
s.(dp0
Vcyi452c
p1
I1
sVcyx68bp
p2
I1
s.(dp0
Vcyi452c
p1
I1
sVcyxdv50
p2
I1
s.(dp0
Vcyi452c
p1
I1
sVcyxhalu
p2
I1
s.(dp0
Vcyi452c
p1
I1
sVcyxv17c
p2
I1
s.(dp0
Vcyxwbmw
p1
I1
sVcyi452c
p2
I1
s.(dp0
Vcyi452c
p1
I1
sVcyxzfbt
p2
I1
s.(dp0
Vcyi452c
p1
I1
sVcyy18y1
p2
I1
s.(dp0
Vcyi452c
p1
I1
sVcyykjgr
p2
I1
s.(dp0
Vcyi452c
p1
I1
sVcyyqr0l
p2
I1
s.(dp0
Vcyi452c
p1
I1
sVcyyv9a3
p2
I1
s.(dp0
Vcyi452c
p1
I1
sVcyyv9a3
p2
I1
s.(dp0
Vcyi452c
p1
I1
sVcyyv9a3
p2
I1
s.(dp0
Vcyi452c
p1
I1
sVcyz4y8j
p2
I1
s.(dp0
Vcyi452c
p1
I1
sVcyzdlrp
p2
I1
s.(dp0
Vcyi452c
p1
I1
sVcyzdlrp
p2
I1
s.(dp0
Vcyzie0g
p1
I1
sVcyi452c
p2
I1
s.(dp0
Vcyzie0g
p1
I1
sVcyi452c
p2
I1
s.(dp0
Vcyzjbc4
p1
I1
sVcyi452c
p2
I1
s.(dp0
Vcy(dp0
Vcyi452c
p1
I1
sVdkz89rh
p2
I1
s.