(dp0
Vd066b4a
p1
I1
s.(dp0
Vd066b4a
p1
I1
sVd12bew9
p2
I1
s.(dp0
Vd066b4a
p1
I1
sVd1okm97
p2
I1
s.(dp0
Vd066b4a
p1
I1
sVdf15xjm
p2
I1
s.(dp0
Vd066b4a
p1
I1
sVdfu91lv
p2
I1
s.(dp0
Vd066b4a
p1
I1
sVdho0qwy
p2
I1
s.