(dp0
Vd5fn3i5
p1
I1
s.(dp0
Vd5fn3i5
p1
I1
sVd77tq8u
p2
I1
s.(dp0
Vd80havl
p1
I1
sVd5fn3i5
p2
I1
s.(dp0
Vd5fn3i5
p1
I1
sVd8t1owi
p2
I1
s.(dp0
Vd5fn3i5
p1
I1
sVd8t1owi
p2
I1
s.(dp0
Vd5fn3i5
p1
I1
sVdbe4lrn
p2
I1
s.(dp0
Vd5fn3i5
p1
I1
sVdblqo03
p2
I1
s.(dp0
Vd5fn3i5
p1
I1
sVdehbdhm
p2
I1
s.(dp0
Vd5fn3i5
p1
I1
sVdgvtbt0
p2
I1
s.(dp0
Vd5fn3i5
p1
I1
sVdj16nfk
p2
I1
s.(dp0
Vd5fn3i5
p1
I1
sVdn6wex1
p2
I1
s.(dp0
Vd5fn3i5
p1
I1
sVdndwtro
p2
I1
s.(dp0
Vd5fn3i5
p1
I1
sVdoivnu6
p2
I1
s.