(dp0
Vcym0dtv
p1
I1
s.(dp0
Vcym0dtv
p1
I1
sVczka9tj
p2
I1
s.(dp0
Vczw16e7
p1
I1
sVcym0dtv
p2
I1
s.(dp0
Vd033oim
p1
I1
sVcym0dtv
p2
I1
s.(dp0
Vcym0dtv
p1
I1
sVd033q7c
p2
I1
s.(dp0
Vcym0dtv
p1
I1
sVd03go89
p2
I1
s.(dp0
Vcym0dtv
p1
I1
sVd03go89
p2
I1
s.(dp0
Vcym0dtv
p1
I1
sVd1os31g
p2
I1
s.(dp0
Vd25xbfx
p1
I1
sVcym0dtv
p2
I1
s.(dp0
Vd25xbfx
p1
I1
sVcym0dtv
p2
I1
s.(dp0
Vd2o2ub0
p1
I1
sVcym0dtv
p2
I1
s.(dp0
Vd2uzcfc
p1
I1
sVcym0dtv
p2
I1
s.(dp0
Vd3thl1i
p1
I1
sVcym0dtv
p2
I1
s.(dp0
Vd5oxyal
p1
I1
sVcym0dtv
p2
I1
s.(dp0
Vd5oyypc
p1
I1
sVcym0dtv
p2
I1
s.(dp0
Vd5yyozy
p1
I1
sVcym0dtv
p2
I1
s.(dp0
Vd5yyozy
p1
I1
sVcym0dtv
p2
I1
s.(dp0
Vd812pix
p1
I1
sVcym0dtv
p2
I1
s.(dp0
Vcym0dtv
p1
I1
sVd8onl2j
p2
I1
s.(dp0
Vcym0dtv
p1
I1
sVd8onl2j
p2
I1
s.(dp0
Vcym0dtv
p1
I1
sVd8onl2j
p2
I1
s.(dp0
Vcym0dtv
p1
I1
sVdai1iqq
p2
I1
s.(dp0
Vdar6w5n
p1
I1
sVcym0dtv
p2
I1
s.(dp0
Vcym0dtv
p1
I1
sVdar70yc
p2
I1
s.(dp0
Vcym0dtv
p1
I1
sVdcqrd1a
p2
I1
s.(dp0
Vddkcy19
p1
I1
sVcym0dtv
p2
I1
s.(dp0
Vddod696
p1
I1
sVcym0dtv
p2
I1
s.(dp0
Vcym0dtv
p1
I1
sVde6sosd
p2
I1
s.(dp0
Vcym0dtv
p1
I1
sVde6sosd
p2
I1
s.(dp0
Vdf8r0v9
p1
I1
sVcym0dtv
p2
I1
s.(dp0
Vdf8r0v9
p1
I1
sVcym0dtv
p2
I1
s.(dp0
Vdfpjio9
p1
I1
sVcym0dtv
p2
I1
s.(dp0
Vcym0dtv
p1
I1
sVdgom8kl
p2
I1
s.(dp0
Vdhmm64f
p1
I1
sVcym0dtv
p2
I1
s.(dp0
Vdht1ohb
p1
I1
sVcym0dtv
p2
I1
s.(dp0
Vdk0g3t3
p1
I1
sVcym0dtv
p2
I1
s.(dp0
Vdk32b6c
p1
I1
sVcym0dtv
p2
I1
s.(dp0
Vcym0dtv
p1
I1
sVdk4epvj
p2
I1
s.(dp0
Vcym0dtv
p1
I1
sVdk4epvj
p2
I1
s.(dp0
Vdksn2ie
p1
I1
sVcym0dtv
p2
I1
s.(dp0
Vdkuamuj
p1
I1
sVcym0dtv
p2
I1
s.