(dp0
Vcyqsvvb
p1
I1
s.(dp0
Vcyqsvvb
p1
I1
sVcyt6bqg
p2
I1
s.(dp0
Vcyqsvvb
p1
I1
sVcyyqhe6
p2
I1
s.(dp0
Vcyqsvvb
p1
I1
sVczfecof
p2
I1
s.(dp0
Vczg40kh
p1
I1
sVcyqsvvb
p2
I1
s.(dp0
Vcyqsvvb
p1
I1
sVczuuoj7
p2
I1
s.(dp0
Vcyqsvvb
p1
I1
sVczwyieg
p2
I1
s.(dp0
Vcyqsvvb
p1
I1
sVd05urzn
p2
I1
s.(dp0
Vcyqsvvb
p1
I1
sVd0xt63k
p2
I1
s.(dp0
Vd1r1rve
p1
I1
sVcyqsvvb
p2
I1
s.(dp0
Vd1taspd
p1
I1
sVcyqsvvb
p2
I1
s.(dp0
Vcyqsvvb
p1
I1
sVd2f8l5y
p2
I1
s.(dp0
Vd2f8y7o
p1
I1
sVcyqsvvb
p2
I1
s.(dp0
Vd2f8y7o
p1
I1
sVcyqsvvb
p2
I1
s.(dp0
Vd2f8y7o
p1
I1
sVcyqsvvb
p2
I1
s.(dp0
Vcyqsvvb
p1
I1
sVd39zj6y
p2
I1
s.(dp0
Vcyqsvvb
p1
I1
sVd3yqgr2
p2
I1
s.(dp0
Vcyqsvvb
p1
I1
sVd4v9l8u
p2
I1
s.(dp0
Vcyqsvvb
p1
I1
sVd53wv3l
p2
I1
s.(dp0
Vcyqsvvb
p1
I1
sVd58115h
p2
I1
s.(dp0
Vcyqsvvb
p1
I1
sVd5avuqf
p2
I1
s.(dp0
Vcyqsvvb
p1
I1
sVd5avuqf
p2
I1
s.(dp0
Vcyqsvvb
p1
I1
sVd5nm9bw
p2
I1
s.(dp0
Vcyqsvvb
p1
I1
sVd5q32ic
p2
I1
s.(dp0
Vcyqsvvb
p1
I1
sVd5r14ha
p2
I1
s.(dp0
Vcyqsvvb
p1
I1
sVd5r14ha
p2
I1
s.(dp0
Vcyqsvvb
p1
I1
sVd7t0dr6
p2
I1
s.(dp0
Vd7zwx41
p1
I1
sVcyqsvvb
p2
I1
s.(dp0
Vcyqsvvb
p1
I1
sVd8os9d8
p2
I1
s.(dp0
Vcyqsvvb
p1
I1
sVda5rriz
p2
I1
s.(dp0
Vcyqsvvb
p1
I1
sVdarxcxo
p2
I1
s.(dp0
Vcyqsvvb
p1
I1
sVdatu8wc
p2
I1
s.(dp0
Vcyqsvvb
p1
I1
sVdb9jogl
p2
I1
s.(dp0
Vcyqsvvb
p1
I1
sVdb9jogl
p2
I1
s.(dp0
Vcyqsvvb
p1
I1
sVdbvel87
p2
I1
s.(dp0
Vcyqsvvb
p1
I1
sVdc0fcqk
p2
I1
s.(dp0
Vcyqsvvb
p1
I1
sVdcue0j8
p2
I1
s.(dp0
Vcyqsvvb
p1
I1
sVdcv3rhm
p2
I1
s.(dp0
Vcyqsvvb
p1
I1
sVddihlhd
p2
I1
s.(dp0
Vcyqsvvb
p1
I1
sVddv8bhx
p2
I1
s.(dp0
Vcyqsvvb
p1
I1
sVddx9tnc
p2
I1
s.(dp0
Vcyqsvvb
p1
I1
sVdfjb3ob
p2
I1
s.(dp0
Vcyqsvvb
p1
I1
sVdfjbg5b
p2
I1
s.(dp0
Vcyqsvvb
p1
I1
sVdfsth98
p2
I1
s.(dp0
Vcyqsvvb
p1
I1
sVdfyn9cy
p2
I1
s.(dp0
Vdglii4p
p1
I1
sVcyqsvvb
p2
I1
s.(dp0
Vcyqsvvb
p1
I1
sVdgo0ei2
p2
I1
s.(dp0
Vcyqsvvb
p1
I1
sVdhdqv9t
p2
I1
s.(dp0
Vcyqsvvb
p1
I1
sVdhx11xl
p2
I1
s.(dp0
Vcyqsvvb
p1
I1
sVdid8qdm
p2
I1
s.(dp0
Vcyqsvvb
p1
I1
sVdj22ixm
p2
I1
s.(dp0
Vcyqsvvb
p1
I1
sVdjlbb04
p2
I1
s.