(dp0
Vd19530g
p1
I1
s.(dp0
Vd19530g
p1
I2
s.(dp0
Vd2ug41k
p1
I1
sVd19530g
p2
I1
s.(dp0
Vd69nkyp
p1
I1
sVd19530g
p2
I1
s.(dp0
Vd78xr5j
p1
I1
sVd19530g
p2
I1
s.(dp0
Vd80rww3
p1
I1
sVd19530g
p2
I1
s.(dp0
Vddga4nv
p1
I1
sVd19530g
p2
I1
s.(dp0
Vddr3jq0
p1
I1
sVd19530g
p2
I1
s.(dp0
Vde15mls
p1
I1
sVd19530g
p2
I1
s.