(dp0
Vcyiun9v
p1
I1
s.(dp0
Vcywyh6k
p1
I1
sVcyiun9v
p2
I1
s.(dp0
Vcz1m6sl
p1
I1
sVcyiun9v
p2
I1
s.(dp0
Vcz1o4fe
p1
I1
sVcyiun9v
p2
I1
s.(dp0
Vcyiun9v
p1
I1
sVcz2c6r6
p2
I1
s.(dp0
Vcz2ele3
p1
I1
sVcyiun9v
p2
I1
s.(dp0
Vczo7g9g
p1
I1
sVcyiun9v
p2
I1
s.(dp0
Vczse72i
p1
I1
sVcyiun9v
p2
I1
s.(dp0
Vczzetyi
p1
I1
sVcyiun9v
p2
I1
s.(dp0
Vd027kh2
p1
I1
sVcyiun9v
p2
I1
s.(dp0
Vd03ytnt
p1
I1
sVcyiun9v
p2
I1
s.(dp0
Vd0h4s8n
p1
I1
sVcyiun9v
p2
I1
s.(dp0
Vd12faf4
p1
I1
sVcyiun9v
p2
I1
s.(dp0
Vcyiun9v
p1
I1
sVd1603os
p2
I1
s.(dp0
Vd18cxze
p1
I1
sVcyiun9v
p2
I1
s.(dp0
Vd18dm30
p1
I1
sVcyiun9v
p2
I1
s.(dp0
Vd18dm30
p1
I1
sVcyiun9v
p2
I1
s.(dp0
Vd18w8lq
p1
I1
sVcyiun9v
p2
I1
s.(dp0
Vd225b0d
p1
I1
sVcyiun9v
p2
I1
s.(dp0
Vd26jgto
p1
I1
sVcyiun9v
p2
I1
s.(dp0
Vd2b2dz8
p1
I1
sVcyiun9v
p2
I1
s.(dp0
Vd2bpzgi
p1
I1
sVcyiun9v
p2
I1
s.(dp0
Vd2chxhp
p1
I1
sVcyiun9v
p2
I1
s.(dp0
Vd2m3ux3
p1
I1
sVcyiun9v
p2
I1
s.(dp0
Vd2m7aow
p1
I1
sVcyiun9v
p2
I1
s.(dp0
Vd2m7aow
p1
I1
sVcyiun9v
p2
I1
s.(dp0
Vcyiun9v
p1
I1
sVd2oieit
p2
I1
s.(dp0
Vd2qjyhw
p1
I1
sVcyiun9v
p2
I1
s.(dp0
Vd2usx4j
p1
I1
sVcyiun9v
p2
I1
s.(dp0
Vd30htkf
p1
I1
sVcyiun9v
p2
I1
s.(dp0
Vd340hvl
p1
I1
sVcyiun9v
p2
I1
s.(dp0
Vd3d5ioa
p1
I1
sVcyiun9v
p2
I1
s.(dp0
Vd3dg7vh
p1
I1
sVcyiun9v
p2
I1
s.(dp0
Vd3n4ern
p1
I1
sVcyiun9v
p2
I1
s.(dp0
Vd3o8szy
p1
I1
sVcyiun9v
p2
I1
s.(dp0
Vcyiun9v
p1
I1
sVd3w1ek1
p2
I1
s.(dp0
Vd3ye6e2
p1
I1
sVcyiun9v
p2
I1
s.(dp0
Vd4hm5it
p1
I1
sVcyiun9v
p2
I1
s.(dp0
Vd4unaa3
p1
I1
sVcyiun9v
p2
I1
s.(dp0
Vd4ux1y0
p1
I1
sVcyiun9v
p2
I1
s.(dp0
Vd5hymrd
p1
I1
sVcyiun9v
p2
I1
s.(dp0
Vd5xh9gq
p1
I1
sVcyiun9v
p2
I1
s.(dp0
Vd62feki
p1
I1
sVcyiun9v
p2
I1
s.(dp0
Vd62wikj
p1
I1
sVcyiun9v
p2
I1
s.(dp0
Vd63w91j
p1
I1
sVcyiun9v
p2
I1
s.(dp0
Vd6gfn0k
p1
I1
sVcyiun9v
p2
I1
s.(dp0
Vd6gfn0k
p1
I1
sVcyiun9v
p2
I1
s.(dp0
Vcyiun9v
p1
I1
sVd6glquk
p2
I1
s.(dp0
Vd6isxb8
p1
I1
sVcyiun9v
p2
I1
s.(dp0
Vd6jxub8
p1
I1
sVcyiun9v
p2
I1
s.(dp0
Vd6tiw1p
p1
I1
sVcyiun9v
p2
I1
s.(dp0
Vd6tiw1p
p1
I1
sVcyiun9v
p2
I1
s.(dp0
Vd6tiw1p
p1
I1
sVcyiun9v
p2
I1
s.(dp0
Vd7t9q2j
p1
I1
sVcyiun9v
p2
I1
s.(dp0
Vd82xvub
p1
I1
sVcyiun9v
p2
I1
s.(dp0
Vd858601
p1
I1
sVcyiun9v
p2
I1
s.(dp0
Vd8czxwm
p1
I1
sVcyiun9v
p2
I1
s.(dp0
Vcyiun9v
p1
I1
sVd8nhcfo
p2
I1
s.(dp0
Vd9x4ini
p1
I1
sVcyiun9v
p2
I1
s.(dp0
Vda3cifw
p1
I1
sVcyiun9v
p2
I1
s.(dp0
Vda3cifw
p1
I1
sVcyiun9v
p2
I1
s.(dp0
Vdacb1qd
p1
I1
sVcyiun9v
p2
I1
s.(dp0
Vdacb1qd
p1
I1
sVcyiun9v
p2
I1
s.(dp0
Vdacb1qd
p1
I1
sVcyiun9v
p2
I1
s.(dp0
Vdacerom
p1
I1
sVcyiun9v
p2
I1
s.(dp0
Vdacerom
p1
I1
sVcyiun9v
p2
I1
s.(dp0
Vdacerom
p1
I1
sVcyiun9v
p2
I1
s.(dp0
Vdacerom
p1
I1
sVcyiun9v
p2
I1
s.(dp0
Vdacjwr6
p1
I1
sVcyiun9v
p2
I1
s.(dp0
Vdacjwr6
p1
I1
sVcyiun9v
p2
I1
s.(dp0
Vdacjwr6
p1
I1
sVcyiun9v
p2
I1
s.(dp0
Vdacvkjm
p1
I1
sVcyiun9v
p2
I1
s.(dp0
Vcyiun9v
p1
I1
sVdajo4bb
p2
I1
s.(dp0
Vdan8l6u
p1
I1
sVcyiun9v
p2
I1
s.(dp0
Vdan8l6u
p1
I1
sVcyiun9v
p2
I1
s.(dp0
Vdan8l6u
p1
I1
sVcyiun9v
p2
I1
s.(dp0
Vdan8l6u
p1
I1
sVcyiun9v
p2
I1
s.(dp0
Vdan8l6u
p1
I1
sVcyiun9v
p2
I1
s.(dp0
Vcyiun9v
p1
I1
sVdan8oq9
p2
I1
s.(dp0
Vdauuha1
p1
I1
sVcyiun9v
p2
I1
s.(dp0
Vdauxjix
p1
I1
sVcyiun9v
p2
I1
s.(dp0
Vdauxjix
p1
I1
sVcyiun9v
p2
I1
s.(dp0
Vdb59vkn
p1
I1
sVcyiun9v
p2
I1
s.(dp0
Vdbeiedk
p1
I1
sVcyiun9v
p2
I1
s.(dp0
Vdbhsluu
p1
I1
sVcyiun9v
p2
I1
s.(dp0
Vdbr9kdx
p1
I1
sVcyiun9v
p2
I1
s.(dp0
Vdbr9kdx
p1
I1
sVcyiun9v
p2
I1
s.(dp0
Vdbr9kdx
p1
I1
sVcyiun9v
p2
I1
s.(dp0
Vdc0q9m1
p1
I1
sVcyiun9v
p2
I1
s.(dp0
Vdcs3svt
p1
I1
sVcyiun9v
p2
I1
s.(dp0
Vdd350q6
p1
I1
sVcyiun9v
p2
I1
s.(dp0
Vdd350q6
p1
I1
sVcyiun9v
p2
I1
s.(dp0
Vcyiun9v
p1
I1
sVdd372p0
p2
I1
s.(dp0
Vdd3dz7b
p1
I1
sVcyiun9v
p2
I1
s.(dp0
Vdd3dz7b
p1
I1
sVcyiun9v
p2
I1
s.(dp0
Vdd3dz7b
p1
I1
sVcyiun9v
p2
I1
s.(dp0
Vdd51gju
p1
I1
sVcyiun9v
p2
I1
s.(dp0
Vddrmnxm
p1
I1
sVcyiun9v
p2
I1
s.(dp0
Vcyiun9v
p1
I1
sVddyqopi
p2
I1
s.(dp0
Vddzqvmx
p1
I1
sVcyiun9v
p2
I1
s.(dp0
Vddzqvmx
p1
I1
sVcyiun9v
p2
I1
s.(dp0
Vddzqvmx
p1
I1
sVcyiun9v
p2
I1
s.(dp0
Vddzqvmx
p1
I1
sVcyiun9v
p2
I1
s.(dp0
Vddzqvmx
p1
I1
sVcyiun9v
p2
I1
s.(dp0
Vddzqvmx
p1
I1
sVcyiun9v
p2
I1
s.(dp0
Vddzztry
p1
I1
sVcyiun9v
p2
I1
s.(dp0
Vddzztry
p1
I1
sVcyiun9v
p2
I1
s.(dp0
Vddzztry
p1
I1
sVcyiun9v
p2
I1
s.(dp0
Vdd(dp0
Vdkvs8c4
p1
I1
sVcyiun9v
p2
I1
s.