(dp0
Vczxy99m
p1
I1
s.(dp0
Vd0py9ny
p1
I1
sVczxy99m
p2
I1
s.(dp0
Vd24rvfr
p1
I1
sVczxy99m
p2
I1
s.(dp0
Vd37f8w0
p1
I1
sVczxy99m
p2
I1
s.(dp0
Vd38m095
p1
I1
sVczxy99m
p2
I1
s.(dp0
Vd3pi9vf
p1
I1
sVczxy99m
p2
I1
s.(dp0
Vd9ee9d0
p1
I1
sVczxy99m
p2
I1
s.(dp0
Vdav2gxb
p1
I1
sVczxy99m
p2
I1
s.(dp0
Vdbaebxd
p1
I1
sVczxy99m
p2
I1
s.(dp0
Vdbix79t
p1
I1
sVczxy99m
p2
I1
s.(dp0
Vdcxprb4
p1
I1
sVczxy99m
p2
I1
s.(dp0
Vddgl8vx
p1
I1
sVczxy99m
p2
I1
s.(dp0
Vdeec502
p1
I1
sVczxy99m
p2
I1
s.(dp0
Vczxy99m
p1
I1
sVdekd4q3
p2
I1
s.(dp0
Vdg5qr1w
p1
I1
sVczxy99m
p2
I1
s.(dp0
Vdgoba57
p1
I1
sVczxy99m
p2
I1
s.(dp0
Vdh16zh6
p1
I1
sVczxy99m
p2
I1
s.(dp0
Vdic1ecr
p1
I1
sVczxy99m
p2
I1
s.(dp0
Vdjotsn4
p1
I1
sVczxy99m
p2
I1
s.