(dp0
Vcylmc3z
p1
I1
s.(dp0
Vcylmc3z
p1
I1
sVcyqcko8
p2
I1
s.(dp0
Vcyqlvac
p1
I1
sVcylmc3z
p2
I1
s.(dp0
Vcyr0rel
p1
I1
sVcylmc3z
p2
I1
s.(dp0
Vcylmc3z
p1
I1
sVcys3xxt
p2
I1
s.(dp0
Vcys5xts
p1
I1
sVcylmc3z
p2
I1
s.(dp0
Vcylmc3z
p1
I1
sVcysook6
p2
I1
s.(dp0
Vcysp3l2
p1
I1
sVcylmc3z
p2
I1
s.(dp0
Vcysphrd
p1
I1
sVcylmc3z
p2
I1
s.(dp0
Vcylmc3z
p1
I1
sVcyswbs8
p2
I1
s.(dp0
Vcylmc3z
p1
I1
sVcyt4gdi
p2
I1
s.(dp0
Vcyt550a
p1
I1
sVcylmc3z
p2
I1
s.(dp0
Vcyu5kzy
p1
I1
sVcylmc3z
p2
I1
s.(dp0
Vcylmc3z
p1
I1
sVcyuks9n
p2
I1
s.(dp0
Vcyzbrsw
p1
I1
sVcylmc3z
p2
I1
s.(dp0
Vcylmc3z
p1
I1
sVcz66o1y
p2
I1
s.(dp0
Vcylmc3z
p1
I1
sVcz7ufkl
p2
I1
s.(dp0
Vcylmc3z
p1
I1
sVcz81mf4
p2
I1
s.(dp0
Vczan4am
p1
I1
sVcylmc3z
p2
I1
s.(dp0
Vczbep5e
p1
I1
sVcylmc3z
p2
I1
s.(dp0
Vczc2y4d
p1
I1
sVcylmc3z
p2
I1
s.(dp0
Vczh586f
p1
I1
sVcylmc3z
p2
I1
s.(dp0
Vcylmc3z
p1
I1
sVczhxsa7
p2
I1
s.(dp0
Vczkepxt
p1
I1
sVcylmc3z
p2
I1
s.(dp0
Vczkqzco
p1
I1
sVcylmc3z
p2
I1
s.(dp0
Vczkqzco
p1
I1
sVcylmc3z
p2
I1
s.(dp0
Vczm0vpe
p1
I1
sVcylmc3z
p2
I1
s.(dp0
Vczmhsuu
p1
I1
sVcylmc3z
p2
I1
s.(dp0
Vczouq87
p1
I1
sVcylmc3z
p2
I1
s.(dp0
Vczox3uq
p1
I1
sVcylmc3z
p2
I1
s.(dp0
Vczqi9zc
p1
I1
sVcylmc3z
p2
I1
s.(dp0
Vczu0v8n
p1
I1
sVcylmc3z
p2
I1
s.(dp0
Vczx73gz
p1
I1
sVcylmc3z
p2
I1
s.(dp0
Vcylmc3z
p1
I1
sVczz4z2g
p2
I1
s.(dp0
Vczzozz2
p1
I1
sVcylmc3z
p2
I1
s.(dp0
Vcylmc3z
p1
I1
sVczzw9qi
p2
I1
s.(dp0
Vd007i7x
p1
I1
sVcylmc3z
p2
I1
s.(dp0
Vcylmc3z
p1
I1
sVd025q16
p2
I1
s.(dp0
Vd02ql2d
p1
I1
sVcylmc3z
p2
I1
s.(dp0
Vcylmc3z
p1
I1
sVd03jn92
p2
I1
s.(dp0
Vd044dh7
p1
I1
sVcylmc3z
p2
I1
s.(dp0
Vd05dj2h
p1
I1
sVcylmc3z
p2
I1
s.(dp0
Vd06mhnb
p1
I1
sVcylmc3z
p2
I1
s.(dp0
Vd06pse6
p1
I1
sVcylmc3z
p2
I1
s.(dp0
Vd06pse6
p1
I1
sVcylmc3z
p2
I1
s.(dp0
Vcylmc3z
p1
I1
sVd06wagz
p2
I1
s.(dp0
Vd07av2w
p1
I1
sVcylmc3z
p2
I1
s.(dp0
Vd07av2w
p1
I1
sVcylmc3z
p2
I1
s.(dp0
Vd08tumk
p1
I1
sVcylmc3z
p2
I1
s.(dp0
Vd08u14k
p1
I1
sVcylmc3z
p2
I1
s.(dp0
Vd08u14k
p1
I1
sVcylmc3z
p2
I1
s.(dp0
Vd0c1g6s
p1
I1
sVcylmc3z
p2
I1
s.(dp0
Vcylmc3z
p1
I1
sVd0d4kmx
p2
I1
s.(dp0
Vd0d71ih
p1
I1
sVcylmc3z
p2
I1
s.(dp0
Vcylmc3z
p1
I1
sVd0f26tw
p2
I1
s.(dp0
Vd0gun07
p1
I1
sVcylmc3z
p2
I1
s.(dp0
Vd0i77pi
p1
I1
sVcylmc3z
p2
I1
s.(dp0
Vd0iwq77
p1
I1
sVcylmc3z
p2
I1
s.(dp0
Vd0je19z
p1
I1
sVcylmc3z
p2
I1
s.(dp0
Vcylmc3z
p1
I1
sVd0nsmzu
p2
I1
s.(dp0
Vd0oa9xb
p1
I1
sVcylmc3z
p2
I1
s.(dp0
Vd0qulbc
p1
I1
sVcylmc3z
p2
I1
s.(dp0
Vd0tef6k
p1
I1
sVcylmc3z
p2
I1
s.(dp0
Vcylmc3z
p1
I1
sVd0una31
p2
I1
s.(dp0
Vd0vb5uf
p1
I1
sVcylmc3z
p2
I1
s.(dp0
Vd0wyc7u
p1
I1
sVcylmc3z
p2
I1
s.(dp0
Vd0wyc7u
p1
I1
sVcylmc3z
p2
I1
s.(dp0
Vcylmc3z
p1
I1
sVd0yihxz
p2
I1
s.(dp0
Vcylmc3z
p1
I1
sVd0ykfqm
p2
I1
s.(dp0
Vd10hd2e
p1
I1
sVcylmc3z
p2
I1
s.(dp0
Vcylmc3z
p1
I1
sVd11c6e4
p2
I1
s.(dp0
Vcylmc3z
p1
I1
sVd11n4yi
p2
I1
s.(dp0
Vcylmc3z
p1
I1
sVd11n4yi
p2
I1
s.(dp0
Vd11qfmf
p1
I1
sVcylmc3z
p2
I1
s.(dp0
Vcylmc3z
p1
I1
sVd1311ow
p2
I1
s.(dp0
Vcylmc3z
p1
I1
sVd13i2wz
p2
I1
s.(dp0
Vcylmc3z
p1
I1
sVd14ueby
p2
I1
s.(dp0
Vd175u2y
p1
I1
sVcylmc3z
p2
I1
s.(dp0
Vd17b3ky
p1
I1
sVcylmc3z
p2
I1
s.(dp0
Vcylmc3z
p1
I1
sVd17equg
p2
I1
s.(dp0
Vcylmc3z
p1
I1
sVd19530g
p2
I1
s.(dp0
Vcylmc3z
p1
I1
sVd1gtx28
p2
I1
s.(dp0
Vcylmc3z
p1
I1
sVd1hpdab
p2
I1
s.(dp0
Vd1kylna
p1
I1
sVcylmc3z
p2
I1
s.(dp0
Vd1kyptf
p1
I1
sVcylmc3z
p2
I1
s.(dp0
Vd1l5wpm
p1
I1
sVcylmc3z
p2
I1
s.(dp0
Vd1lq6b6
p1
I1
sVcylmc3z
p2
I1
s.(dp0
Vd1lsltm
p1
I1
sVcylmc3z
p2
I1
s.(dp0
Vcylmc3z
p1
I1
sVd1lt3m9
p2
I1
s.(dp0
Vcylmc3z
p1
I1
sVd1mcsy7
p2
I1
s.(dp0
Vd1n03r9
p1
I1
sVcylmc3z
p2
I1
s.(dp0
Vd1n2fgm
p1
I1
sVcylmc3z
p2
I1
s.(dp0
Vd1n52or
p1
I1
sVcylmc3z
p2
I1
s.(dp0
Vcylmc3z
p1
I1
sVd1n7756
p2
I1
s.(dp0
Vcylmc3z
p1
I1
sVd1n8l5w
p2
I1
s.(dp0
Vcylmc3z
p1
I1
sVd1n8l5w
p2
I1
s.(dp0
Vd1ne033
p1
I1
sVcylmc3z
p2
I1
s.(dp0
Vd1ne033
p1
I1
sVcylmc3z
p2
I1
s.(dp0
Vd1ne033
p1
I1
sVcylmc3z
p2
I1
s.(dp0
Vd1nlcw2
p1
I1
sVcylmc3z
p2
I1
s.(dp0
Vcylmc3z
p1
I1
sVd1o0lj8
p2
I1
s.(dp0
Vcylmc3z
p1
I1
sVd1trg8d
p2
I1
s.(dp0
Vcylmc3z
p1
I1
sVd1trjh2
p2
I1
s.(dp0
Vd1wkch1
p1
I1
sVcylmc3z
p2
I1
s.(dp0
Vcylmc3z
p1
I1
sVd1y90kb
p2
I1
s.(dp0
Vcylmc3z
p1
I1
sVd227tge
p2
I1
s.(dp0
Vd229mkp
p1
I1
sVcylmc3z
p2
I1
s.(dp0
Vd22a038
p1
I1
sVcylmc3z
p2
I1
s.(dp0
Vd2(dp0
Vcylmc3z
p1
I1
sVdp1bqk2
p2
I1
s.