(dp0
Vcypqvph
p1
I1
s.(dp0
Vcz3x7xb
p1
I1
sVcypqvph
p2
I1
s.(dp0
Vcypqvph
p1
I1
sVcz3zrfp
p2
I1
s.(dp0
Vcypqvph
p1
I1
sVczky9ew
p2
I1
s.(dp0
Vcypqvph
p1
I1
sVczky9ew
p2
I1
s.(dp0
Vcypqvph
p1
I1
sVczp9nph
p2
I1
s.(dp0
Vcypqvph
p1
I1
sVczxbkp1
p2
I1
s.(dp0
Vcypqvph
p1
I1
sVd0gmnk4
p2
I1
s.(dp0
Vcypqvph
p1
I1
sVd0nyg0h
p2
I1
s.(dp0
Vcypqvph
p1
I1
sVd1wnjcu
p2
I1
s.(dp0
Vd1yl8i3
p1
I1
sVcypqvph
p2
I1
s.(dp0
Vcypqvph
p1
I1
sVd20c7do
p2
I1
s.(dp0
Vcypqvph
p1
I1
sVd22j3x8
p2
I1
s.(dp0
Vcypqvph
p1
I1
sVd255tqo
p2
I1
s.(dp0
Vd25m1hn
p1
I1
sVcypqvph
p2
I1
s.(dp0
Vcypqvph
p1
I1
sVd2rpgg4
p2
I1
s.(dp0
Vcypqvph
p1
I1
sVd3cgwvj
p2
I1
s.(dp0
Vcypqvph
p1
I1
sVd3etweh
p2
I1
s.(dp0
Vcypqvph
p1
I1
sVd3jhv5v
p2
I1
s.(dp0
Vcypqvph
p1
I1
sVd45bq4i
p2
I1
s.(dp0
Vcypqvph
p1
I1
sVd45bq4i
p2
I1
s.(dp0
Vd48iqfn
p1
I1
sVcypqvph
p2
I1
s.(dp0
Vd49gosy
p1
I1
sVcypqvph
p2
I1
s.(dp0
Vcypqvph
p1
I1
sVd4gjby8
p2
I1
s.(dp0
Vcypqvph
p1
I1
sVd4x6ubv
p2
I1
s.(dp0
Vcypqvph
p1
I1
sVd5a1fo8
p2
I1
s.(dp0
Vcypqvph
p1
I1
sVd5x32oa
p2
I1
s.(dp0
Vcypqvph
p1
I1
sVd5x32oa
p2
I1
s.(dp0
Vcypqvph
p1
I1
sVd5xh9gq
p2
I1
s.(dp0
Vcypqvph
p1
I1
sVd61tszv
p2
I1
s.(dp0
Vcypqvph
p1
I1
sVd6kvjzy
p2
I1
s.(dp0
Vcypqvph
p1
I1
sVd6lc4ie
p2
I1
s.(dp0
Vd6rwjzg
p1
I1
sVcypqvph
p2
I1
s.(dp0
Vd6u9etg
p1
I1
sVcypqvph
p2
I1
s.(dp0
Vd75ap9j
p1
I1
sVcypqvph
p2
I1
s.(dp0
Vcypqvph
p1
I1
sVd76fcb0
p2
I1
s.(dp0
Vcypqvph
p1
I1
sVd76fcb0
p2
I1
s.(dp0
Vcypqvph
p1
I1
sVd85zmkz
p2
I1
s.(dp0
Vcypqvph
p1
I1
sVd86csz2
p2
I1
s.(dp0
Vcypqvph
p1
I1
sVd88g3n4
p2
I1
s.(dp0
Vcypqvph
p1
I1
sVd8jtd7v
p2
I1
s.(dp0
Vcypqvph
p1
I1
sVd8t1vpm
p2
I1
s.(dp0
Vcypqvph
p1
I1
sVd8xw2z9
p2
I1
s.(dp0
Vd9gmczt
p1
I1
sVcypqvph
p2
I1
s.(dp0
Vcypqvph
p1
I1
sVdam2ggc
p2
I1
s.(dp0
Vdanbjd3
p1
I1
sVcypqvph
p2
I1
s.(dp0
Vcypqvph
p1
I1
sVdb121fp
p2
I1
s.(dp0
Vcypqvph
p1
I1
sVdb121fp
p2
I1
s.(dp0
Vcypqvph
p1
I1
sVdb121fp
p2
I1
s.(dp0
Vcypqvph
p1
I1
sVdbc576b
p2
I1
s.(dp0
Vcypqvph
p1
I1
sVdbf3fd2
p2
I1
s.(dp0
Vcypqvph
p1
I1
sVdbtq1oi
p2
I1
s.(dp0
Vcypqvph
p1
I1
sVdbvajgc
p2
I1
s.(dp0
Vcypqvph
p1
I1
sVdcaxpe1
p2
I1
s.(dp0
Vde13px9
p1
I1
sVcypqvph
p2
I1
s.(dp0
Vdegxzzo
p1
I1
sVcypqvph
p2
I1
s.(dp0
Vcypqvph
p1
I1
sVdem9ksv
p2
I1
s.(dp0
Vdf4xyl9
p1
I1
sVcypqvph
p2
I1
s.(dp0
Vcypqvph
p1
I1
sVdf6p0a7
p2
I1
s.(dp0
Vcypqvph
p1
I1
sVdfakds1
p2
I1
s.(dp0
Vcypqvph
p1
I1
sVdfkzmqu
p2
I1
s.(dp0
Vcypqvph
p1
I1
sVdfqonhq
p2
I1
s.(dp0
Vcypqvph
p1
I1
sVdgkbilp
p2
I1
s.(dp0
Vdh1eh2v
p1
I1
sVcypqvph
p2
I1
s.(dp0
Vcypqvph
p1
I1
sVdhykbtg
p2
I1
s.(dp0
Vcypqvph
p1
I1
sVdi1monh
p2
I1
s.(dp0
Vcypqvph
p1
I1
sVdi5i5iy
p2
I1
s.(dp0
Vcypqvph
p1
I1
sVdi908vu
p2
I1
s.(dp0
Vcypqvph
p1
I1
sVdjcb5z0
p2
I1
s.(dp0
Vdjldcyy
p1
I1
sVcypqvph
p2
I1
s.(dp0
Vdk5y65h
p1
I1
sVcypqvph
p2
I1
s.(dp0
Vcypqvph
p1
I1
sVdkd0ae6
p2
I1
s.(dp0
Vdkp1w2y
p1
I1
sVcypqvph
p2
I1
s.(dp0
Vdntts3c
p1
I1
sVcypqvph
p2
I1
s.(dp0
Vcypqvph
p1
I1
sVdoemfts
p2
I1
s.(dp0
Vdouk4c7
p1
I1
sVcypqvph
p2
I1
s.