(dp0
Vcypp76p
p1
I1
s.(dp0
Vcypp76p
p1
I1
sVcyspo6f
p2
I1
s.(dp0
Vcyxdg9j
p1
I1
sVcypp76p
p2
I1
s.(dp0
Vcz277m9
p1
I1
sVcypp76p
p2
I1
s.(dp0
Vcz5p7g4
p1
I1
sVcypp76p
p2
I1
s.(dp0
Vcz6ant2
p1
I1
sVcypp76p
p2
I1
s.(dp0
Vczcsh3a
p1
I1
sVcypp76p
p2
I1
s.(dp0
Vczfuszs
p1
I1
sVcypp76p
p2
I1
s.(dp0
Vczfxqz9
p1
I1
sVcypp76p
p2
I1
s.(dp0
Vczhjg2m
p1
I1
sVcypp76p
p2
I1
s.(dp0
Vczsw0hy
p1
I1
sVcypp76p
p2
I1
s.(dp0
Vczx1wbu
p1
I1
sVcypp76p
p2
I1
s.(dp0
Vczztalt
p1
I1
sVcypp76p
p2
I1
s.(dp0
Vd05h1qw
p1
I1
sVcypp76p
p2
I1
s.(dp0
Vd06ed90
p1
I1
sVcypp76p
p2
I1
s.(dp0
Vd0a8yl3
p1
I1
sVcypp76p
p2
I1
s.(dp0
Vd0ck5am
p1
I1
sVcypp76p
p2
I1
s.(dp0
Vd0emh4y
p1
I1
sVcypp76p
p2
I1
s.(dp0
Vd0ghdl7
p1
I1
sVcypp76p
p2
I1
s.(dp0
Vd0i5jg8
p1
I1
sVcypp76p
p2
I1
s.(dp0
Vd0kosb5
p1
I1
sVcypp76p
p2
I1
s.(dp0
Vd0lrle3
p1
I1
sVcypp76p
p2
I1
s.(dp0
Vd0u353a
p1
I1
sVcypp76p
p2
I1
s.(dp0
Vd13n8kg
p1
I1
sVcypp76p
p2
I1
s.(dp0
Vd165wr2
p1
I1
sVcypp76p
p2
I1
s.(dp0
Vcypp76p
p1
I1
sVd1706zx
p2
I1
s.(dp0
Vd1hcm17
p1
I1
sVcypp76p
p2
I1
s.(dp0
Vd1m8vv7
p1
I1
sVcypp76p
p2
I1
s.(dp0
Vd1md2ak
p1
I1
sVcypp76p
p2
I1
s.(dp0
Vd1pc1gn
p1
I1
sVcypp76p
p2
I1
s.(dp0
Vd1uvcgy
p1
I1
sVcypp76p
p2
I1
s.(dp0
Vd23t0bq
p1
I1
sVcypp76p
p2
I1
s.(dp0
Vd26s4wq
p1
I1
sVcypp76p
p2
I1
s.(dp0
Vd2dsp5b
p1
I1
sVcypp76p
p2
I1
s.(dp0
Vd2flqxe
p1
I1
sVcypp76p
p2
I1
s.(dp0
Vd2rk9y5
p1
I1
sVcypp76p
p2
I1
s.(dp0
Vd2rsdh8
p1
I1
sVcypp76p
p2
I1
s.(dp0
Vd2rsdh8
p1
I1
sVcypp76p
p2
I1
s.(dp0
Vcypp76p
p1
I1
sVd37svte
p2
I1
s.(dp0
Vcypp76p
p1
I1
sVd3atts5
p2
I1
s.(dp0
Vd3cks07
p1
I1
sVcypp76p
p2
I1
s.(dp0
Vd3qrfkt
p1
I1
sVcypp76p
p2
I1
s.(dp0
Vd3wawhu
p1
I1
sVcypp76p
p2
I1
s.(dp0
Vd42ewbe
p1
I1
sVcypp76p
p2
I1
s.(dp0
Vd4btllq
p1
I1
sVcypp76p
p2
I1
s.(dp0
Vd4eitjo
p1
I1
sVcypp76p
p2
I1
s.(dp0
Vd4hz7tg
p1
I1
sVcypp76p
p2
I1
s.(dp0
Vd4o6xli
p1
I1
sVcypp76p
p2
I1
s.(dp0
Vcypp76p
p1
I1
sVd5b3muf
p2
I1
s.(dp0
Vd5do61f
p1
I1
sVcypp76p
p2
I1
s.(dp0
Vd5w574m
p1
I1
sVcypp76p
p2
I1
s.(dp0
Vcypp76p
p1
I1
sVd6c57de
p2
I1
s.(dp0
Vd6i6jfb
p1
I1
sVcypp76p
p2
I1
s.(dp0
Vd6m479l
p1
I1
sVcypp76p
p2
I1
s.(dp0
Vd6zy9h3
p1
I1
sVcypp76p
p2
I1
s.(dp0
Vd70n0ki
p1
I1
sVcypp76p
p2
I1
s.(dp0
Vd74726n
p1
I1
sVcypp76p
p2
I1
s.(dp0
Vd78mrgb
p1
I1
sVcypp76p
p2
I1
s.(dp0
Vd7fadah
p1
I1
sVcypp76p
p2
I1
s.(dp0
Vd7u0ev6
p1
I1
sVcypp76p
p2
I1
s.(dp0
Vd7u9i1e
p1
I1
sVcypp76p
p2
I1
s.(dp0
Vd7z68d8
p1
I1
sVcypp76p
p2
I1
s.(dp0
Vd8hys29
p1
I1
sVcypp76p
p2
I1
s.(dp0
Vd8isurd
p1
I1
sVcypp76p
p2
I1
s.(dp0
Vd8kafxw
p1
I1
sVcypp76p
p2
I1
s.(dp0
Vd8v90z2
p1
I1
sVcypp76p
p2
I1
s.(dp0
Vd91tkcw
p1
I1
sVcypp76p
p2
I1
s.(dp0
Vd9by86s
p1
I1
sVcypp76p
p2
I1
s.(dp0
Vd9dodws
p1
I1
sVcypp76p
p2
I1
s.(dp0
Vcypp76p
p1
I1
sVd9hitnr
p2
I1
s.(dp0
Vda4lz9c
p1
I1
sVcypp76p
p2
I1
s.(dp0
Vda5cnnk
p1
I1
sVcypp76p
p2
I1
s.(dp0
Vdang1jz
p1
I1
sVcypp76p
p2
I1
s.(dp0
Vdb237li
p1
I1
sVcypp76p
p2
I1
s.(dp0
Vcypp76p
p1
I1
sVdbuevdr
p2
I1
s.(dp0
Vdbw84pl
p1
I1
sVcypp76p
p2
I1
s.(dp0
Vdc2osag
p1
I1
sVcypp76p
p2
I1
s.(dp0
Vdcdldwe
p1
I1
sVcypp76p
p2
I1
s.(dp0
Vcypp76p
p1
I1
sVdcen7la
p2
I1
s.(dp0
Vdcht4tv
p1
I1
sVcypp76p
p2
I1
s.(dp0
Vdcormgh
p1
I1
sVcypp76p
p2
I1
s.(dp0
Vdcy20o5
p1
I1
sVcypp76p
p2
I1
s.(dp0
Vcypp76p
p1
I1
sVdd21x0e
p2
I1
s.(dp0
Vdd9m91v
p1
I1
sVcypp76p
p2
I1
s.(dp0
Vddgn1j4
p1
I1
sVcypp76p
p2
I1
s.(dp0
Vddi5w0x
p1
I1
sVcypp76p
p2
I1
s.(dp0
Vddv80uw
p1
I1
sVcypp76p
p2
I1
s.(dp0
Vddw82xa
p1
I1
sVcypp76p
p2
I1
s.(dp0
Vddwvihl
p1
I1
sVcypp76p
p2
I1
s.(dp0
Vde7gg3b
p1
I1
sVcypp76p
p2
I1
s.(dp0
Vdebqkuo
p1
I1
sVcypp76p
p2
I1
s.(dp0
Vdec3p3g
p1
I1
sVcypp76p
p2
I1
s.(dp0
Vdep8u26
p1
I1
sVcypp76p
p2
I1
s.(dp0
Vdes8ka4
p1
I1
sVcypp76p
p2
I1
s.(dp0
Vdesb4g1
p1
I1
sVcypp76p
p2
I1
s.(dp0
Vdesl6ow
p1
I1
sVcypp76p
p2
I1
s.(dp0
Vcypp76p
p1
I1
sVdeviyn5
p2
I1
s.(dp0
Vdf8vzeq
p1
I1
sVcypp76p
p2
I1
s.(dp0
Vdf8zmv4
p1
I1
sVcypp76p
p2
I1
s.(dp0
Vdf90qmj
p1
I1
sVcypp76p
p2
I1
s.(dp0
Vdfjt8f3
p1
I1
sVcypp76p
p2
I1
s.(dp0
Vdfnt7w8
p1
I1
sVcypp76p
p2
I1
s.(dp0
Vdfozqd2
p1
I1
sVcypp76p
p2
I1
s.(dp0
Vdgdqxyr
p1
I1
sVcypp76p
p2
I1
s.(dp0
Vcypp76p
p1
I1
sVdgn6f1l
p2
I1
s.(dp0
Vdgqjmdp
p1
I1
sVcypp76p
p2
I1
s.(dp0
Vdgu02rm
p1
I1
sVcypp76p
p2
I1
s.(dp0
Vdh0iocw
p1
I1
sVcypp76p
p2
I1
s.(dp0
Vdh(dp0
Vdox7nlu
p1
I1
sVcypp76p
p2
I1
s.