(dp0
Vcyj7a3h
p1
I1
s.(dp0
Vcyj7a3h
p1
I1
sVcykf74b
p2
I1
s.(dp0
Vcyj7a3h
p1
I1
sVcykf74b
p2
I1
s.(dp0
Vcyj7a3h
p1
I1
sVcytjtmn
p2
I1
s.(dp0
Vcyj7a3h
p1
I1
sVcyxa3p0
p2
I1
s.(dp0
Vcyj7a3h
p1
I1
sVcyzroz9
p2
I1
s.(dp0
Vcyj7a3h
p1
I1
sVcz0hvtv
p2
I1
s.(dp0
Vcyj7a3h
p1
I1
sVcz53eiq
p2
I1
s.(dp0
Vcyj7a3h
p1
I1
sVcz6v93s
p2
I1
s.(dp0
Vcyj7a3h
p1
I1
sVczeo13k
p2
I1
s.(dp0
Vcyj7a3h
p1
I1
sVczvfre4
p2
I1
s.(dp0
Vcyj7a3h
p1
I1
sVczz955e
p2
I1
s.(dp0
Vcyj7a3h
p1
I1
sVd02mo6t
p2
I1
s.(dp0
Vcyj7a3h
p1
I1
sVd07w7x5
p2
I1
s.(dp0
Vcyj7a3h
p1
I1
sVd0ef7em
p2
I1
s.(dp0
Vcyj7a3h
p1
I1
sVd0i03zc
p2
I1
s.(dp0
Vcyj7a3h
p1
I1
sVd0t1ijt
p2
I1
s.(dp0
Vcyj7a3h
p1
I1
sVd0wp9f4
p2
I1
s.(dp0
Vcyj7a3h
p1
I1
sVd0wrki1
p2
I1
s.(dp0
Vcyj7a3h
p1
I1
sVd0xxbqt
p2
I1
s.(dp0
Vcyj7a3h
p1
I1
sVd0yyebn
p2
I1
s.(dp0
Vcyj7a3h
p1
I1
sVd11adh2
p2
I1
s.(dp0
Vcyj7a3h
p1
I1
sVd12ewvb
p2
I1
s.(dp0
Vcyj7a3h
p1
I1
sVd19530g
p2
I1
s.(dp0
Vcyj7a3h
p1
I1
sVd1i1hsw
p2
I1
s.(dp0
Vcyj7a3h
p1
I1
sVd1jd8c5
p2
I1
s.(dp0
Vcyj7a3h
p1
I1
sVd1ref5a
p2
I1
s.(dp0
Vcyj7a3h
p1
I1
sVd1ref5a
p2
I1
s.(dp0
Vcyj7a3h
p1
I1
sVd21gtca
p2
I1
s.(dp0
Vcyj7a3h
p1
I1
sVd21gtca
p2
I1
s.(dp0
Vcyj7a3h
p1
I1
sVd240kbn
p2
I1
s.(dp0
Vcyj7a3h
p1
I1
sVd25f7h0
p2
I1
s.(dp0
Vcyj7a3h
p1
I1
sVd2d5i5g
p2
I1
s.(dp0
Vcyj7a3h
p1
I1
sVd2w7n0k
p2
I1
s.(dp0
Vcyj7a3h
p1
I1
sVd3bfru5
p2
I1
s.(dp0
Vcyj7a3h
p1
I1
sVd3cjudy
p2
I1
s.(dp0
Vcyj7a3h
p1
I1
sVd3gqg3j
p2
I1
s.(dp0
Vcyj7a3h
p1
I1
sVd3j9pqn
p2
I1
s.(dp0
Vcyj7a3h
p1
I1
sVd48b7pp
p2
I1
s.(dp0
Vcyj7a3h
p1
I1
sVd5dwlxu
p2
I1
s.(dp0
Vcyj7a3h
p1
I1
sVd5vpxzy
p2
I1
s.(dp0
Vcyj7a3h
p1
I1
sVd640kwq
p2
I1
s.(dp0
Vcyj7a3h
p1
I1
sVd6zlt7p
p2
I1
s.(dp0
Vcyj7a3h
p1
I1
sVd7gcev9
p2
I1
s.(dp0
Vcyj7a3h
p1
I1
sVd7uwqv5
p2
I1
s.(dp0
Vcyj7a3h
p1
I1
sVd7zfvbp
p2
I1
s.(dp0
Vcyj7a3h
p1
I1
sVd997v32
p2
I1
s.(dp0
Vcyj7a3h
p1
I1
sVda8d4gy
p2
I1
s.(dp0
Vcyj7a3h
p1
I1
sVdap3um2
p2
I1
s.(dp0
Vcyj7a3h
p1
I1
sVdap3um2
p2
I1
s.(dp0
Vcyj7a3h
p1
I1
sVdap5lh0
p2
I1
s.(dp0
Vcyj7a3h
p1
I1
sVdapfki9
p2
I1
s.(dp0
Vcyj7a3h
p1
I1
sVdb59sq6
p2
I1
s.(dp0
Vcyj7a3h
p1
I1
sVdcoqr49
p2
I1
s.(dp0
Vcyj7a3h
p1
I1
sVdcyhvik
p2
I1
s.(dp0
Vcyj7a3h
p1
I1
sVdcyhvik
p2
I1
s.(dp0
Vcyj7a3h
p1
I1
sVdd55bnw
p2
I1
s.(dp0
Vcyj7a3h
p1
I1
sVdd7drlr
p2
I1
s.(dp0
Vcyj7a3h
p1
I1
sVddp1vna
p2
I1
s.(dp0
Vcyj7a3h
p1
I1
sVddp1vna
p2
I1
s.(dp0
Vcyj7a3h
p1
I1
sVddrj2qo
p2
I1
s.(dp0
Vcyj7a3h
p1
I1
sVddxeggu
p2
I1
s.(dp0
Vcyj7a3h
p1
I1
sVddyqtya
p2
I1
s.(dp0
Vcyj7a3h
p1
I1
sVdej1dfa
p2
I1
s.(dp0
Vcyj7a3h
p1
I1
sVder7b61
p2
I1
s.(dp0
Vcyj7a3h
p1
I1
sVdf0r7vx
p2
I1
s.(dp0
Vcyj7a3h
p1
I1
sVdfdd8un
p2
I1
s.(dp0
Vcyj7a3h
p1
I1
sVdhcueec
p2
I1
s.(dp0
Vcyj7a3h
p1
I1
sVdho618q
p2
I1
s.(dp0
Vcyj7a3h
p1
I1
sVdhvbvqn
p2
I1
s.(dp0
Vcyj7a3h
p1
I1
sVdhvbvqn
p2
I1
s.(dp0
Vcyj7a3h
p1
I1
sVdhvbvqn
p2
I1
s.(dp0
Vcyj7a3h
p1
I1
sVdhzfp2e
p2
I1
s.(dp0
Vcyj7a3h
p1
I1
sVdi35ogu
p2
I1
s.(dp0
Vcyj7a3h
p1
I1
sVdj2lksj
p2
I1
s.(dp0
Vcyj7a3h
p1
I1
sVdkjgi3o
p2
I1
s.(dp0
Vcyj7a3h
p1
I1
sVdkqg5xy
p2
I1
s.(dp0
Vcyj7a3h
p1
I1
sVdkyg0lh
p2
I1
s.