(dp0
Vcynd6lj
p1
I1
s.(dp0
Vcynd6lj
p1
I2
s.(dp0
Vcyvdnza
p1
I1
sVcynd6lj
p2
I1
s.(dp0
Vcz3d9yi
p1
I1
sVcynd6lj
p2
I1
s.(dp0
Vcynd6lj
p1
I1
sVczedzpb
p2
I1
s.(dp0
Vd07db9u
p1
I1
sVcynd6lj
p2
I1
s.(dp0
Vd07db9u
p1
I1
sVcynd6lj
p2
I1
s.(dp0
Vd07db9u
p1
I1
sVcynd6lj
p2
I1
s.(dp0
Vd0iomcx
p1
I1
sVcynd6lj
p2
I1
s.(dp0
Vd0lmh04
p1
I1
sVcynd6lj
p2
I1
s.(dp0
Vd0lmh04
p1
I1
sVcynd6lj
p2
I1
s.(dp0
Vcynd6lj
p1
I1
sVd0o3gp0
p2
I1
s.(dp0
Vd125gsn
p1
I1
sVcynd6lj
p2
I1
s.(dp0
Vd2avztt
p1
I1
sVcynd6lj
p2
I1
s.(dp0
Vd2awgf7
p1
I1
sVcynd6lj
p2
I1
s.(dp0
Vcynd6lj
p1
I1
sVd2c2o5s
p2
I1
s.(dp0
Vd2q4l1l
p1
I1
sVcynd6lj
p2
I1
s.(dp0
Vcynd6lj
p1
I1
sVd2u94hz
p2
I1
s.(dp0
Vd3dnq0e
p1
I1
sVcynd6lj
p2
I1
s.(dp0
Vd43cla9
p1
I1
sVcynd6lj
p2
I1
s.(dp0
Vcynd6lj
p1
I1
sVd4kar37
p2
I1
s.(dp0
Vcynd6lj
p1
I1
sVd4pmbze
p2
I1
s.(dp0
Vd4pnjjm
p1
I1
sVcynd6lj
p2
I1
s.(dp0
Vd514nbs
p1
I1
sVcynd6lj
p2
I1
s.(dp0
Vd5a5mtt
p1
I1
sVcynd6lj
p2
I1
s.(dp0
Vd5ed0s1
p1
I1
sVcynd6lj
p2
I1
s.(dp0
Vd5fn20l
p1
I1
sVcynd6lj
p2
I1
s.(dp0
Vd5k53bl
p1
I1
sVcynd6lj
p2
I1
s.(dp0
Vd61bdey
p1
I1
sVcynd6lj
p2
I1
s.(dp0
Vd61bdey
p1
I1
sVcynd6lj
p2
I1
s.(dp0
Vd61cclx
p1
I1
sVcynd6lj
p2
I1
s.(dp0
Vd61cclx
p1
I1
sVcynd6lj
p2
I1
s.(dp0
Vd6inho8
p1
I1
sVcynd6lj
p2
I1
s.(dp0
Vcynd6lj
p1
I1
sVd72hz7v
p2
I1
s.(dp0
Vcynd6lj
p1
I1
sVd7cpogb
p2
I1
s.(dp0
Vd7doba1
p1
I1
sVcynd6lj
p2
I1
s.(dp0
Vd7x9ow3
p1
I1
sVcynd6lj
p2
I1
s.(dp0
Vcynd6lj
p1
I1
sVd8orxdg
p2
I1
s.(dp0
Vd99oqgs
p1
I1
sVcynd6lj
p2
I1
s.(dp0
Vd9pj5uy
p1
I1
sVcynd6lj
p2
I1
s.(dp0
Vcynd6lj
p1
I1
sVd9y6fad
p2
I1
s.(dp0
Vcynd6lj
p1
I1
sVda6ekgd
p2
I1
s.(dp0
Vdaf59pd
p1
I1
sVcynd6lj
p2
I1
s.(dp0
Vdb7n87l
p1
I1
sVcynd6lj
p2
I1
s.(dp0
Vcynd6lj
p1
I1
sVdbeb37u
p2
I1
s.(dp0
Vdbsrp7i
p1
I1
sVcynd6lj
p2
I1
s.(dp0
Vdbsrp7i
p1
I1
sVcynd6lj
p2
I1
s.(dp0
Vdbsrp7i
p1
I1
sVcynd6lj
p2
I1
s.(dp0
Vdc8bnru
p1
I1
sVcynd6lj
p2
I1
s.(dp0
Vdczyhs8
p1
I1
sVcynd6lj
p2
I1
s.(dp0
Vdd2wlvn
p1
I1
sVcynd6lj
p2
I1
s.(dp0
Vcynd6lj
p1
I1
sVdduoq29
p2
I1
s.(dp0
Vcynd6lj
p1
I1
sVdduoq29
p2
I1
s.(dp0
Vddy1cha
p1
I1
sVcynd6lj
p2
I1
s.(dp0
Vddy1cha
p1
I1
sVcynd6lj
p2
I1
s.(dp0
Vcynd6lj
p1
I1
sVde769fk
p2
I1
s.(dp0
Vcynd6lj
p1
I1
sVden5c7j
p2
I1
s.(dp0
Vdex60n7
p1
I1
sVcynd6lj
p2
I1
s.(dp0
Vdexv9ev
p1
I1
sVcynd6lj
p2
I1
s.(dp0
Vdfv8ovb
p1
I1
sVcynd6lj
p2
I1
s.(dp0
Vcynd6lj
p1
I1
sVdfv8vlr
p2
I1
s.(dp0
Vcynd6lj
p1
I1
sVdfv8vlr
p2
I1
s.(dp0
Vcynd6lj
p1
I1
sVdg1n5gw
p2
I1
s.(dp0
Vcynd6lj
p1
I1
sVdgywqzj
p2
I1
s.(dp0
Vcynd6lj
p1
I1
sVdikt8xp
p2
I1
s.(dp0
Vcynd6lj
p1
I1
sVdjsp4t3
p2
I1
s.(dp0
Vdjv12jx
p1
I1
sVcynd6lj
p2
I1
s.(dp0
Vdkcjzg5
p1
I1
sVcynd6lj
p2
I1
s.(dp0
Vdkcjzg5
p1
I1
sVcynd6lj
p2
I1
s.(dp0
Vdkcjzg5
p1
I1
sVcynd6lj
p2
I1
s.(dp0
Vcynd6lj
p1
I1
sVdks26z0
p2
I1
s.(dp0
Vcynd6lj
p1
I1
sVdks26z0
p2
I1
s.(dp0
Vcynd6lj
p1
I1
sVdks26z0
p2
I1
s.(dp0
Vcynd6lj
p1
I1
sVdks26z0
p2
I1
s.