(dp0
Vczmmeir
p1
I1
s.(dp0
Vd5ihkgh
p1
I1
sVczmmeir
p2
I1
s.(dp0
Vdb5auv2
p1
I1
sVczmmeir
p2
I1
s.(dp0
Vczmmeir
p1
I1
sVdbk304d
p2
I1
s.(dp0
Vczmmeir
p1
I1
sVdbniwo5
p2
I1
s.(dp0
Vczmmeir
p1
I1
sVdcsemzf
p2
I1
s.(dp0
Vdi9dsc3
p1
I1
sVczmmeir
p2
I1
s.(dp0
Vczmmeir
p1
I1
sVdimhsfo
p2
I1
s.(dp0
Vczmmeir
p1
I1
sVdjrof4n
p2
I1
s.