(dp0
Vcyhue2v
p1
I1
s.(dp0
Vcynmma0
p1
I1
sVcyhue2v
p2
I1
s.(dp0
Vcyhue2v
p1
I1
sVcyoi9y3
p2
I1
s.(dp0
Vcyhue2v
p1
I1
sVcypojho
p2
I1
s.(dp0
Vczct6my
p1
I1
sVcyhue2v
p2
I1
s.(dp0
Vcyhue2v
p1
I1
sVd04899g
p2
I1
s.(dp0
Vd04dlvl
p1
I1
sVcyhue2v
p2
I1
s.(dp0
Vd0qnli1
p1
I1
sVcyhue2v
p2
I1
s.(dp0
Vd0qpggh
p1
I1
sVcyhue2v
p2
I1
s.(dp0
Vcyhue2v
p1
I1
sVd1311ow
p2
I1
s.(dp0
Vd1rqbua
p1
I1
sVcyhue2v
p2
I1
s.(dp0
Vcyhue2v
p1
I1
sVd1v564p
p2
I1
s.(dp0
Vd4gnfyb
p1
I1
sVcyhue2v
p2
I1
s.(dp0
Vcyhue2v
p1
I1
sVd5vtctw
p2
I1
s.(dp0
Vd67sdk1
p1
I1
sVcyhue2v
p2
I1
s.(dp0
Vcyhue2v
p1
I1
sVd7xetya
p2
I1
s.(dp0
Vcyhue2v
p1
I1
sVd853kq9
p2
I1
s.(dp0
Vdam2t5i
p1
I1
sVcyhue2v
p2
I1
s.(dp0
Vdbirzkb
p1
I1
sVcyhue2v
p2
I1
s.(dp0
Vdcvxtmu
p1
I1
sVcyhue2v
p2
I1
s.(dp0
Vddcgmyi
p1
I1
sVcyhue2v
p2
I1
s.(dp0
Vcyhue2v
p1
I1
sVdde1fvt
p2
I1
s.(dp0
Vddjfeps
p1
I1
sVcyhue2v
p2
I1
s.(dp0
Vddndckg
p1
I1
sVcyhue2v
p2
I1
s.(dp0
Vcyhue2v
p1
I1
sVdead82y
p2
I1
s.(dp0
Vdepoyus
p1
I1
sVcyhue2v
p2
I1
s.(dp0
Vcyhue2v
p1
I1
sVdexa1c0
p2
I1
s.(dp0
Vcyhue2v
p1
I1
sVdexa1c0
p2
I1
s.(dp0
Vcyhue2v
p1
I1
sVdexa1c0
p2
I1
s.(dp0
Vcyhue2v
p1
I1
sVdfnmch6
p2
I1
s.(dp0
Vdfq4gu5
p1
I1
sVcyhue2v
p2
I1
s.(dp0
Vdhcgmv8
p1
I1
sVcyhue2v
p2
I1
s.(dp0
Vdi1yjmc
p1
I1
sVcyhue2v
p2
I1
s.(dp0
Vdjbcnbb
p1
I1
sVcyhue2v
p2
I1
s.(dp0
Vcyhue2v
p1
I1
sVdkm660n
p2
I1
s.(dp0
Vdkqkm9u
p1
I1
sVcyhue2v
p2
I1
s.