(dp0
Vczo9prq
p1
I1
s.(dp0
Vczo9prq
p1
I1
sVd0es63c
p2
I1
s.(dp0
Vd0ez1zs
p1
I1
sVczo9prq
p2
I1
s.(dp0
Vd229scd
p1
I1
sVczo9prq
p2
I1
s.(dp0
Vczo9prq
p1
I1
sVd3dfece
p2
I1
s.(dp0
Vd3u1dzz
p1
I1
sVczo9prq
p2
I1
s.(dp0
Vd5otshv
p1
I1
sVczo9prq
p2
I1
s.(dp0
Vd5uw01y
p1
I1
sVczo9prq
p2
I1
s.(dp0
Vd5v0epo
p1
I1
sVczo9prq
p2
I1
s.(dp0
Vczo9prq
p1
I1
sVd7cvus6
p2
I1
s.(dp0
Vd7tklhu
p1
I1
sVczo9prq
p2
I1
s.(dp0
Vczo9prq
p1
I1
sVd95p1r1
p2
I1
s.(dp0
Vdamrodi
p1
I1
sVczo9prq
p2
I1
s.(dp0
Vczo9prq
p1
I1
sVdblghof
p2
I1
s.(dp0
Vczo9prq
p1
I1
sVddoo4d6
p2
I1
s.(dp0
Vczo9prq
p1
I1
sVddpicrl
p2
I1
s.(dp0
Vde96521
p1
I1
sVczo9prq
p2
I1
s.(dp0
Vczo9prq
p1
I1
sVdfvwqyn
p2
I1
s.(dp0
Vdfx2673
p1
I1
sVczo9prq
p2
I1
s.(dp0
Vdg6ezpi
p1
I1
sVczo9prq
p2
I1
s.(dp0
Vdgcsjd7
p1
I1
sVczo9prq
p2
I1
s.(dp0
Vdgj3ng0
p1
I1
sVczo9prq
p2
I1
s.(dp0
Vdhvcfgi
p1
I1
sVczo9prq
p2
I1
s.(dp0
Vdhvcfgi
p1
I1
sVczo9prq
p2
I1
s.(dp0
Vczo9prq
p1
I1
sVdizy78g
p2
I1
s.(dp0
Vczo9prq
p1
I1
sVdjast4l
p2
I1
s.(dp0
Vdjaxi81
p1
I1
sVczo9prq
p2
I1
s.(dp0
Vdjaxi81
p1
I1
sVczo9prq
p2
I1
s.(dp0
Vdkaze4u
p1
I1
sVczo9prq
p2
I1
s.(dp0
Vdnrw322
p1
I1
sVczo9prq
p2
I1
s.