(dp0
Vcyml8m3
p1
I1
s.(dp0
Vcyuwerl
p1
I1
sVcyml8m3
p2
I1
s.(dp0
Vcyw2e7f
p1
I1
sVcyml8m3
p2
I1
s.(dp0
Vcz2nrxc
p1
I1
sVcyml8m3
p2
I1
s.(dp0
Vczh9gpb
p1
I1
sVcyml8m3
p2
I1
s.(dp0
Vd0dj4sb
p1
I1
sVcyml8m3
p2
I1
s.(dp0
Vd0mlbo9
p1
I1
sVcyml8m3
p2
I1
s.(dp0
Vd14gbff
p1
I1
sVcyml8m3
p2
I1
s.(dp0
Vd14illr
p1
I1
sVcyml8m3
p2
I1
s.(dp0
Vcyml8m3
p1
I1
sVd1706zx
p2
I1
s.(dp0
Vd30h9yt
p1
I1
sVcyml8m3
p2
I1
s.(dp0
Vd348vzd
p1
I1
sVcyml8m3
p2
I1
s.(dp0
Vd3bfefs
p1
I1
sVcyml8m3
p2
I1
s.(dp0
Vd49ew2u
p1
I1
sVcyml8m3
p2
I1
s.(dp0
Vd5d1316
p1
I1
sVcyml8m3
p2
I1
s.(dp0
Vcyml8m3
p1
I1
sVd5o3xyr
p2
I1
s.(dp0
Vd6dlvem
p1
I1
sVcyml8m3
p2
I1
s.(dp0
Vd779pi5
p1
I1
sVcyml8m3
p2
I1
s.(dp0
Vd77ruyi
p1
I1
sVcyml8m3
p2
I1
s.(dp0
Vd8bsi4i
p1
I1
sVcyml8m3
p2
I1
s.(dp0
Vd8jmu94
p1
I1
sVcyml8m3
p2
I1
s.(dp0
Vd8uxw59
p1
I1
sVcyml8m3
p2
I1
s.(dp0
Vd8vcoze
p1
I1
sVcyml8m3
p2
I1
s.(dp0
Vd9a3ee7
p1
I1
sVcyml8m3
p2
I1
s.(dp0
Vdaz0oj5
p1
I1
sVcyml8m3
p2
I1
s.(dp0
Vdd51fzt
p1
I1
sVcyml8m3
p2
I1
s.(dp0
Vdeqw8n0
p1
I1
sVcyml8m3
p2
I1
s.(dp0
Vdey731d
p1
I1
sVcyml8m3
p2
I1
s.(dp0
Vdf7zqbu
p1
I1
sVcyml8m3
p2
I1
s.(dp0
Vdfmxk9q
p1
I1
sVcyml8m3
p2
I1
s.(dp0
Vdg1ai8f
p1
I1
sVcyml8m3
p2
I1
s.(dp0
Vdgwhla9
p1
I1
sVcyml8m3
p2
I1
s.(dp0
Vdgygcmb
p1
I1
sVcyml8m3
p2
I1
s.(dp0
Vdhz7us0
p1
I1
sVcyml8m3
p2
I1
s.(dp0
Vdjf9c9c
p1
I1
sVcyml8m3
p2
I1
s.(dp0
Vdk8r870
p1
I1
sVcyml8m3
p2
I1
s.(dp0
Vdkixxgw
p1
I1
sVcyml8m3
p2
I1
s.