(dp0
Vcypfbml
p1
I1
s.(dp0
Vd2am8ad
p1
I1
sVcypfbml
p2
I1
s.(dp0
Vd7aikqm
p1
I1
sVcypfbml
p2
I1
s.(dp0
Vda1z8zz
p1
I1
sVcypfbml
p2
I1
s.(dp0
Vcypfbml
p1
I1
sVdag6xvh
p2
I1
s.(dp0
Vdd2yysn
p1
I1
sVcypfbml
p2
I1
s.(dp0
Vdg2bbmz
p1
I1
sVcypfbml
p2
I1
s.(dp0
Vdgows2w
p1
I1
sVcypfbml
p2
I1
s.(dp0
Vdh0jzkz
p1
I1
sVcypfbml
p2
I1
s.(dp0
Vdkm62rb
p1
I1
sVcypfbml
p2
I1
s.(dp0
Vcypfbml
p1
I1
sVdkrkcur
p2
I1
s.(dp0
Vcypfbml
p1
I1
sVdmgsni0
p2
I1
s.