(dp0
Vcz5k1fm
p1
I1
s.(dp0
Vcz7dh34
p1
I1
sVcz5k1fm
p2
I1
s.(dp0
Vcz5k1fm
p1
I1
sVczix30a
p2
I1
s.(dp0
Vcznti3l
p1
I1
sVcz5k1fm
p2
I1
s.(dp0
Vczruslp
p1
I1
sVcz5k1fm
p2
I1
s.(dp0
Vcz5k1fm
p1
I1
sVczs3tft
p2
I1
s.(dp0
Vcz5k1fm
p1
I1
sVczx3mwz
p2
I1
s.(dp0
Vczya4ga
p1
I1
sVcz5k1fm
p2
I1
s.(dp0
Vd0cgmiu
p1
I1
sVcz5k1fm
p2
I1
s.(dp0
Vd0e8ciq
p1
I1
sVcz5k1fm
p2
I1
s.(dp0
Vcz5k1fm
p1
I1
sVd0o94w9
p2
I1
s.(dp0
Vcz5k1fm
p1
I1
sVd1fjc2n
p2
I1
s.(dp0
Vcz5k1fm
p1
I1
sVd1pg6u6
p2
I1
s.(dp0
Vd1sh4zm
p1
I1
sVcz5k1fm
p2
I1
s.(dp0
Vcz5k1fm
p1
I1
sVd1wwwvy
p2
I1
s.(dp0
Vcz5k1fm
p1
I1
sVd21axiz
p2
I1
s.(dp0
Vcz5k1fm
p1
I1
sVd2aia4m
p2
I1
s.(dp0
Vd2hzf3t
p1
I1
sVcz5k1fm
p2
I1
s.(dp0
Vcz5k1fm
p1
I1
sVd3vt6p1
p2
I1
s.(dp0
Vcz5k1fm
p1
I1
sVd3vt6p1
p2
I1
s.(dp0
Vd3vtcnx
p1
I1
sVcz5k1fm
p2
I1
s.(dp0
Vd3vtcnx
p1
I1
sVcz5k1fm
p2
I1
s.(dp0
Vd3vtcnx
p1
I1
sVcz5k1fm
p2
I1
s.(dp0
Vd3vtgag
p1
I1
sVcz5k1fm
p2
I1
s.(dp0
Vd3vtx28
p1
I1
sVcz5k1fm
p2
I1
s.(dp0
Vd3vtx28
p1
I1
sVcz5k1fm
p2
I1
s.(dp0
Vcz5k1fm
p1
I1
sVd3y5t68
p2
I1
s.(dp0
Vcz5k1fm
p1
I1
sVd3y8zug
p2
I1
s.(dp0
Vcz5k1fm
p1
I1
sVd5vxwgz
p2
I1
s.(dp0
Vcz5k1fm
p1
I1
sVd5w598j
p2
I1
s.(dp0
Vcz5k1fm
p1
I1
sVd67q7hq
p2
I1
s.(dp0
Vd6hpmio
p1
I1
sVcz5k1fm
p2
I1
s.(dp0
Vd6v5jj0
p1
I1
sVcz5k1fm
p2
I1
s.(dp0
Vd7o9wh1
p1
I1
sVcz5k1fm
p2
I1
s.(dp0
Vcz5k1fm
p1
I1
sVd8ewi72
p2
I1
s.(dp0
Vcz5k1fm
p1
I1
sVd8k54p4
p2
I1
s.(dp0
Vcz5k1fm
p1
I1
sVd8ql566
p2
I1
s.(dp0
Vd8xcm28
p1
I1
sVcz5k1fm
p2
I1
s.(dp0
Vd97jc7l
p1
I1
sVcz5k1fm
p2
I1
s.(dp0
Vd9am90w
p1
I1
sVcz5k1fm
p2
I1
s.(dp0
Vd9dhalu
p1
I1
sVcz5k1fm
p2
I1
s.(dp0
Vda10bld
p1
I1
sVcz5k1fm
p2
I1
s.(dp0
Vcz5k1fm
p1
I1
sVdamo2qw
p2
I1
s.(dp0
Vdazu8uj
p1
I1
sVcz5k1fm
p2
I1
s.(dp0
Vcz5k1fm
p1
I1
sVdbgqivl
p2
I1
s.(dp0
Vcz5k1fm
p1
I1
sVdbhi8v3
p2
I1
s.(dp0
Vdc07nmf
p1
I1
sVcz5k1fm
p2
I1
s.(dp0
Vcz5k1fm
p1
I1
sVdc43je1
p2
I1
s.(dp0
Vdc5mzid
p1
I1
sVcz5k1fm
p2
I1
s.(dp0
Vdc8u7qh
p1
I1
sVcz5k1fm
p2
I1
s.(dp0
Vdczrlqb
p1
I1
sVcz5k1fm
p2
I1
s.(dp0
Vdd4i2q1
p1
I1
sVcz5k1fm
p2
I1
s.(dp0
Vdd7ce17
p1
I1
sVcz5k1fm
p2
I1
s.(dp0
Vcz5k1fm
p1
I1
sVddvk3n2
p2
I1
s.(dp0
Vdeipe0s
p1
I1
sVcz5k1fm
p2
I1
s.(dp0
Vdgeof79
p1
I1
sVcz5k1fm
p2
I1
s.(dp0
Vcz5k1fm
p1
I1
sVdgi2jst
p2
I1
s.(dp0
Vcz5k1fm
p1
I1
sVdgll7dk
p2
I1
s.(dp0
Vcz5k1fm
p1
I1
sVdgs5f24
p2
I1
s.(dp0
Vcz5k1fm
p1
I1
sVdgtnoim
p2
I1
s.(dp0
Vdicx3o9
p1
I1
sVcz5k1fm
p2
I1
s.(dp0
Vcz5k1fm
p1
I1
sVdix15gv
p2
I1
s.(dp0
Vdky2yhe
p1
I1
sVcz5k1fm
p2
I1
s.(dp0
Vdky2yhe
p1
I1
sVcz5k1fm
p2
I1
s.(dp0
Vdkz02jb
p1
I1
sVcz5k1fm
p2
I1
s.(dp0
Vcz5k1fm
p1
I1
sVdmjjvpm
p2
I1
s.(dp0
Vcz5k1fm
p1
I1
sVdmpovmb
p2
I1
s.(dp0
Vdmzf5mj
p1
I1
sVcz5k1fm
p2
I1
s.(dp0
Vdn25323
p1
I1
sVcz5k1fm
p2
I1
s.(dp0
Vcz5k1fm
p1
I1
sVdn88vcp
p2
I1
s.(dp0
Vcz5k1fm
p1
I1
sVdov4c1y
p2
I1
s.(dp0
Vcz5k1fm
p1
I1
sVdox6cwy
p2
I1
s.