(dp0
Vcylw7pp
p1
I1
s.(dp0
Vcylw7pp
p1
I1
sVczfm83w
p2
I1
s.(dp0
Vczo5ivq
p1
I1
sVcylw7pp
p2
I1
s.(dp0
Vcylw7pp
p1
I1
sVd045uex
p2
I1
s.(dp0
Vcylw7pp
p1
I1
sVd052eds
p2
I1
s.(dp0
Vcylw7pp
p1
I1
sVd07tm8r
p2
I1
s.(dp0
Vcylw7pp
p1
I1
sVd08vf38
p2
I1
s.(dp0
Vcylw7pp
p1
I1
sVd08vf38
p2
I1
s.(dp0
Vcylw7pp
p1
I1
sVd0swaxc
p2
I1
s.(dp0
Vcylw7pp
p1
I1
sVd0swaxc
p2
I1
s.(dp0
Vcylw7pp
p1
I1
sVd171lx2
p2
I1
s.(dp0
Vd1amij5
p1
I1
sVcylw7pp
p2
I1
s.(dp0
Vd1amij5
p1
I1
sVcylw7pp
p2
I1
s.(dp0
Vcylw7pp
p1
I1
sVd1ttd6t
p2
I1
s.(dp0
Vcylw7pp
p1
I1
sVd2ehn9g
p2
I1
s.(dp0
Vd2imlnu
p1
I1
sVcylw7pp
p2
I1
s.(dp0
Vd2imlnu
p1
I1
sVcylw7pp
p2
I1
s.(dp0
Vcylw7pp
p1
I1
sVd2t428i
p2
I1
s.(dp0
Vcylw7pp
p1
I1
sVd2z0e6q
p2
I1
s.(dp0
Vcylw7pp
p1
I1
sVd399l6f
p2
I1
s.(dp0
Vcylw7pp
p1
I1
sVd399l6f
p2
I1
s.(dp0
Vcylw7pp
p1
I1
sVd3ab06y
p2
I1
s.(dp0
Vd3e6603
p1
I1
sVcylw7pp
p2
I1
s.(dp0
Vcylw7pp
p1
I1
sVd3vf7lb
p2
I1
s.(dp0
Vcylw7pp
p1
I1
sVd3vf7lb
p2
I1
s.(dp0
Vd429nf2
p1
I1
sVcylw7pp
p2
I1
s.(dp0
Vd49zwul
p1
I1
sVcylw7pp
p2
I1
s.(dp0
Vcylw7pp
p1
I1
sVd53j6gx
p2
I1
s.(dp0
Vcylw7pp
p1
I1
sVd53j6gx
p2
I1
s.(dp0
Vcylw7pp
p1
I1
sVd6iw4at
p2
I1
s.(dp0
Vd748mr9
p1
I1
sVcylw7pp
p2
I1
s.(dp0
Vcylw7pp
p1
I1
sVd7dcm3u
p2
I1
s.(dp0
Vcylw7pp
p1
I1
sVd90mf98
p2
I1
s.(dp0
Vcylw7pp
p1
I1
sVd90mf98
p2
I1
s.(dp0
Vcylw7pp
p1
I1
sVd9p76so
p2
I1
s.(dp0
Vcylw7pp
p1
I1
sVdatwwm6
p2
I1
s.(dp0
Vcylw7pp
p1
I1
sVdbhkaaa
p2
I1
s.(dp0
Vcylw7pp
p1
I1
sVdcw68h3
p2
I1
s.(dp0
Vcylw7pp
p1
I1
sVdejr1hh
p2
I1
s.(dp0
Vcylw7pp
p1
I1
sVdffl4qv
p2
I1
s.(dp0
Vdfs92tc
p1
I1
sVcylw7pp
p2
I1
s.(dp0
Vcylw7pp
p1
I1
sVdgkoymw
p2
I1
s.(dp0
Vcylw7pp
p1
I1
sVdh0jvgh
p2
I1
s.(dp0
Vcylw7pp
p1
I1
sVdhmyfut
p2
I1
s.(dp0
Vcylw7pp
p1
I1
sVdhuq9k0
p2
I1
s.(dp0
Vcylw7pp
p1
I1
sVdi7bh98
p2
I1
s.(dp0
Vcylw7pp
p1
I1
sVdj773zx
p2
I1
s.(dp0
Vcylw7pp
p1
I1
sVdj7vxwv
p2
I1
s.(dp0
Vcylw7pp
p1
I1
sVdjelm3a
p2
I1
s.(dp0
Vcylw7pp
p1
I1
sVdjelm3a
p2
I1
s.(dp0
Vcylw7pp
p1
I1
sVdjn8r65
p2
I1
s.(dp0
Vcylw7pp
p1
I1
sVdjn8r65
p2
I1
s.(dp0
Vcylw7pp
p1
I1
sVdjr8sdr
p2
I1
s.(dp0
Vcylw7pp
p1
I1
sVdk8y5ho
p2
I1
s.(dp0
Vcylw7pp
p1
I1
sVdkcbqju
p2
I1
s.(dp0
Vcylw7pp
p1
I1
sVdkq68sv
p2
I1
s.(dp0
Vcylw7pp
p1
I1
sVdkq68sv
p2
I1
s.(dp0
Vcylw7pp
p1
I1
sVdmerpjs
p2
I1
s.(dp0
Vcylw7pp
p1
I1
sVdnxd6s4
p2
I1
s.(dp0
Vcylw7pp
p1
I1
sVdo1fdit
p2
I1
s.(dp0
Vcylw7pp
p1
I1
sVdoda9gh
p2
I1
s.(dp0
Vcylw7pp
p1
I1
sVdoj4mp3
p2
I1
s.(dp0
Vdoodapt
p1
I1
sVcylw7pp
p2
I1
s.