(dp0
Vcyo1dxq
p1
I1
s.(dp0
Vczp4cjm
p1
I1
sVcyo1dxq
p2
I1
s.(dp0
Vczzcsit
p1
I1
sVcyo1dxq
p2
I1
s.(dp0
Vd0qo4ds
p1
I1
sVcyo1dxq
p2
I1
s.(dp0
Vd0y2q9l
p1
I1
sVcyo1dxq
p2
I1
s.(dp0
Vd1oim90
p1
I1
sVcyo1dxq
p2
I1
s.(dp0
Vd1oqxdi
p1
I1
sVcyo1dxq
p2
I1
s.(dp0
Vd1oqzt9
p1
I1
sVcyo1dxq
p2
I1
s.(dp0
Vd1ovemc
p1
I1
sVcyo1dxq
p2
I1
s.(dp0
Vd1ovemc
p1
I1
sVcyo1dxq
p2
I1
s.(dp0
Vd1ovemc
p1
I1
sVcyo1dxq
p2
I1
s.(dp0
Vd1owxn5
p1
I1
sVcyo1dxq
p2
I1
s.(dp0
Vd1oye65
p1
I1
sVcyo1dxq
p2
I1
s.(dp0
Vd1ozf8m
p1
I1
sVcyo1dxq
p2
I1
s.(dp0
Vd1ozq1o
p1
I1
sVcyo1dxq
p2
I1
s.(dp0
Vd1ozq1o
p1
I1
sVcyo1dxq
p2
I1
s.(dp0
Vd1p03ai
p1
I1
sVcyo1dxq
p2
I1
s.(dp0
Vd1p17va
p1
I1
sVcyo1dxq
p2
I1
s.(dp0
Vd1p17va
p1
I1
sVcyo1dxq
p2
I1
s.(dp0
Vd1p1p24
p1
I1
sVcyo1dxq
p2
I1
s.(dp0
Vd1p1p24
p1
I1
sVcyo1dxq
p2
I1
s.(dp0
Vd1p1p24
p1
I1
sVcyo1dxq
p2
I1
s.(dp0
Vd1p1p24
p1
I1
sVcyo1dxq
p2
I1
s.(dp0
Vd1p1p24
p1
I1
sVcyo1dxq
p2
I1
s.(dp0
Vd1p4lem
p1
I1
sVcyo1dxq
p2
I1
s.(dp0
Vd1p5rj8
p1
I1
sVcyo1dxq
p2
I1
s.(dp0
Vd1p620i
p1
I1
sVcyo1dxq
p2
I1
s.(dp0
Vd1p620i
p1
I1
sVcyo1dxq
p2
I1
s.(dp0
Vd1p6a7r
p1
I1
sVcyo1dxq
p2
I1
s.(dp0
Vd1p6gsg
p1
I1
sVcyo1dxq
p2
I1
s.(dp0
Vd1p8ffv
p1
I1
sVcyo1dxq
p2
I1
s.(dp0
Vd1pb9a1
p1
I1
sVcyo1dxq
p2
I1
s.(dp0
Vd1pckqm
p1
I1
sVcyo1dxq
p2
I1
s.(dp0
Vcyo1dxq
p1
I1
sVd1qhp6d
p2
I1
s.(dp0
Vcyo1dxq
p1
I1
sVd1qu31y
p2
I1
s.(dp0
Vd1qv0ox
p1
I1
sVcyo1dxq
p2
I1
s.(dp0
Vd1tqnej
p1
I1
sVcyo1dxq
p2
I1
s.(dp0
Vd1tvrrd
p1
I1
sVcyo1dxq
p2
I1
s.(dp0
Vd270632
p1
I1
sVcyo1dxq
p2
I1
s.(dp0
Vd29pfag
p1
I1
sVcyo1dxq
p2
I1
s.(dp0
Vd2jxrgz
p1
I1
sVcyo1dxq
p2
I1
s.(dp0
Vd2r2wls
p1
I1
sVcyo1dxq
p2
I1
s.(dp0
Vd30p0rp
p1
I1
sVcyo1dxq
p2
I1
s.(dp0
Vd30ro2r
p1
I1
sVcyo1dxq
p2
I1
s.(dp0
Vd358p9u
p1
I1
sVcyo1dxq
p2
I1
s.(dp0
Vd35lmtj
p1
I1
sVcyo1dxq
p2
I1
s.(dp0
Vd3p3ghn
p1
I1
sVcyo1dxq
p2
I1
s.(dp0
Vd3poiwa
p1
I1
sVcyo1dxq
p2
I1
s.(dp0
Vcyo1dxq
p1
I1
sVd3qmnpm
p2
I1
s.(dp0
Vd42ejsd
p1
I1
sVcyo1dxq
p2
I1
s.(dp0
Vd42g9zg
p1
I1
sVcyo1dxq
p2
I1
s.(dp0
Vd42g9zg
p1
I1
sVcyo1dxq
p2
I1
s.(dp0
Vd4xgmqz
p1
I1
sVcyo1dxq
p2
I1
s.(dp0
Vd4z8kqr
p1
I1
sVcyo1dxq
p2
I1
s.(dp0
Vd566v3g
p1
I1
sVcyo1dxq
p2
I1
s.(dp0
Vd5ihlgf
p1
I1
sVcyo1dxq
p2
I1
s.(dp0
Vd5lo6ee
p1
I1
sVcyo1dxq
p2
I1
s.(dp0
Vd61mafv
p1
I1
sVcyo1dxq
p2
I1
s.(dp0
Vcyo1dxq
p1
I1
sVd65mfsw
p2
I1
s.(dp0
Vcyo1dxq
p1
I1
sVd6fdg36
p2
I1
s.(dp0
Vd6pa6iy
p1
I1
sVcyo1dxq
p2
I1
s.(dp0
Vd7ntx4i
p1
I1
sVcyo1dxq
p2
I1
s.(dp0
Vd7uhnn6
p1
I1
sVcyo1dxq
p2
I1
s.(dp0
Vd8eohk1
p1
I1
sVcyo1dxq
p2
I1
s.(dp0
Vd8kmuxr
p1
I1
sVcyo1dxq
p2
I1
s.(dp0
Vcyo1dxq
p1
I1
sVd8krdmb
p2
I1
s.(dp0
Vcyo1dxq
p1
I1
sVd8m0s59
p2
I1
s.(dp0
Vd8qk4fy
p1
I1
sVcyo1dxq
p2
I1
s.(dp0
Vd8vpnrt
p1
I1
sVcyo1dxq
p2
I1
s.(dp0
Vda89ndi
p1
I1
sVcyo1dxq
p2
I1
s.(dp0
Vcyo1dxq
p1
I1
sVdafh3xr
p2
I1
s.(dp0
Vdao76gw
p1
I1
sVcyo1dxq
p2
I1
s.(dp0
Vdbljwzk
p1
I1
sVcyo1dxq
p2
I1
s.(dp0
Vdbljwzk
p1
I1
sVcyo1dxq
p2
I1
s.(dp0
Vdbsaeju
p1
I1
sVcyo1dxq
p2
I1
s.(dp0
Vdcoasd5
p1
I1
sVcyo1dxq
p2
I1
s.(dp0
Vcyo1dxq
p1
I1
sVddpddhh
p2
I1
s.(dp0
Vddpqwee
p1
I1
sVcyo1dxq
p2
I1
s.(dp0
Vcyo1dxq
p1
I1
sVde0nzru
p2
I1
s.(dp0
Vdeor43b
p1
I1
sVcyo1dxq
p2
I1
s.(dp0
Vderj582
p1
I1
sVcyo1dxq
p2
I1
s.(dp0
Vcyo1dxq
p1
I1
sVdevl0u2
p2
I1
s.(dp0
Vdey1ug9
p1
I1
sVcyo1dxq
p2
I1
s.(dp0
Vcyo1dxq
p1
I1
sVdf3l5r2
p2
I1
s.(dp0
Vcyo1dxq
p1
I1
sVdf3l5r2
p2
I1
s.(dp0
Vdfuymq4
p1
I1
sVcyo1dxq
p2
I1
s.(dp0
Vdfuymq4
p1
I1
sVcyo1dxq
p2
I1
s.(dp0
Vdfzbu9i
p1
I1
sVcyo1dxq
p2
I1
s.(dp0
Vdg94jyg
p1
I1
sVcyo1dxq
p2
I1
s.(dp0
Vdg94jyg
p1
I1
sVcyo1dxq
p2
I1
s.(dp0
Vdg94jyg
p1
I1
sVcyo1dxq
p2
I1
s.(dp0
Vdg94jyg
p1
I1
sVcyo1dxq
p2
I1
s.(dp0
Vdg94jyg
p1
I1
sVcyo1dxq
p2
I1
s.(dp0
Vdg94jyg
p1
I1
sVcyo1dxq
p2
I1
s.(dp0
Vdg94jyg
p1
I1
sVcyo1dxq
p2
I1
s.(dp0
Vdg94jyg
p1
I1
sVcyo1dxq
p2
I1
s.(dp0
Vdg94jyg
p1
I1
sVcyo1dxq
p2
I1
s.(dp0
Vdg94jyg
p1
I1
sVcyo1dxq
p2
I1
s.(dp0
Vdg94jyg
p1
I1
sVcyo1dxq
p2
I1
s.(dp0
Vdg94jyg
p1
I1
sVcyo1dxq
p2
I1
s.(dp0
Vdg94jyg
p1
I1
sVcyo1dxq
p2
I1
s.(dp0
Vdg94jyg
p1
I1
sVcyo1dxq
p2
I1
s.(dp0
Vdg97jda
p1
I1
sVcyo1dxq
p2
I1
s.(dp0
Vdg985fn
p1
I1
sVcyo1dxq
p2
I1
s.(dp0
Vdgp8032
p1
I1
sVcyo1dxq
p2
I1
s.(dp0
Vdh7rq8r
p1
I1
sVcyo1dxq
p2
I1
s.(dp0
Vdhepzvo
p1
I1
sVcyo1dxq
p2
I1
s.(dp0
Vcyo1dxq
p1
I1
sVdi5h3gt
p2
I1
s.(dp0
Vdi(dp0
Vdjpwgxr
p1
I1
sVcyo1dxq
p2
I1
s.