(dp0
Vcytm5rs
p1
I1
s.(dp0
Vcyu9pgf
p1
I1
sVcytm5rs
p2
I1
s.(dp0
Vcytm5rs
p1
I1
sVczwx7si
p2
I1
s.(dp0
Vd1o7j92
p1
I1
sVcytm5rs
p2
I1
s.(dp0
Vcytm5rs
p1
I1
sVd2awona
p2
I1
s.(dp0
Vd4snyt3
p1
I1
sVcytm5rs
p2
I1
s.(dp0
Vd55o45z
p1
I1
sVcytm5rs
p2
I1
s.(dp0
Vd7qg5n9
p1
I1
sVcytm5rs
p2
I1
s.(dp0
Vd7ws9kx
p1
I1
sVcytm5rs
p2
I1
s.(dp0
Vd8wd50q
p1
I1
sVcytm5rs
p2
I1
s.(dp0
Vdboodnr
p1
I1
sVcytm5rs
p2
I1
s.(dp0
Vcytm5rs
p1
I1
sVde96800
p2
I1
s.(dp0
Vdeo0i24
p1
I1
sVcytm5rs
p2
I1
s.(dp0
Vdg56okc
p1
I1
sVcytm5rs
p2
I1
s.(dp0
Vdgnyi42
p1
I1
sVcytm5rs
p2
I1
s.(dp0
Vdhly4y0
p1
I1
sVcytm5rs
p2
I1
s.(dp0
Vcytm5rs
p1
I1
sVdjau1gb
p2
I1
s.(dp0
Vcytm5rs
p1
I1
sVdk8nkkq
p2
I1
s.(dp0
Vcytm5rs
p1
I1
sVdkg7mlp
p2
I1
s.