(dp0
Vcz0dnwz
p1
I1
s.(dp0
Vcz3s1y8
p1
I1
sVcz0dnwz
p2
I1
s.(dp0
Vczfw5sm
p1
I1
sVcz0dnwz
p2
I1
s.(dp0
Vczn9ng1
p1
I1
sVcz0dnwz
p2
I1
s.(dp0
Vczyxn5m
p1
I1
sVcz0dnwz
p2
I1
s.(dp0
Vczzvqec
p1
I1
sVcz0dnwz
p2
I1
s.(dp0
Vd035o9m
p1
I1
sVcz0dnwz
p2
I1
s.(dp0
Vd052kp4
p1
I1
sVcz0dnwz
p2
I1
s.(dp0
Vd0c0lr6
p1
I1
sVcz0dnwz
p2
I1
s.(dp0
Vd0ny1n3
p1
I1
sVcz0dnwz
p2
I1
s.(dp0
Vd0r6nww
p1
I1
sVcz0dnwz
p2
I1
s.(dp0
Vd16m92v
p1
I1
sVcz0dnwz
p2
I1
s.(dp0
Vd19j0qc
p1
I1
sVcz0dnwz
p2
I1
s.(dp0
Vd1f264t
p1
I1
sVcz0dnwz
p2
I1
s.(dp0
Vd1iq98n
p1
I1
sVcz0dnwz
p2
I1
s.(dp0
Vd1qe1mm
p1
I1
sVcz0dnwz
p2
I1
s.(dp0
Vd298g2p
p1
I1
sVcz0dnwz
p2
I1
s.(dp0
Vd29epci
p1
I1
sVcz0dnwz
p2
I1
s.(dp0
Vd2b1ilh
p1
I1
sVcz0dnwz
p2
I1
s.(dp0
Vd2gtpw8
p1
I1
sVcz0dnwz
p2
I1
s.(dp0
Vd2kbzp4
p1
I1
sVcz0dnwz
p2
I1
s.(dp0
Vd3lh2v1
p1
I1
sVcz0dnwz
p2
I1
s.(dp0
Vd4c2g3o
p1
I1
sVcz0dnwz
p2
I1
s.(dp0
Vd4mffnv
p1
I1
sVcz0dnwz
p2
I1
s.(dp0
Vd5b0mf8
p1
I1
sVcz0dnwz
p2
I1
s.(dp0
Vd5b0mf8
p1
I1
sVcz0dnwz
p2
I1
s.(dp0
Vd5cxigm
p1
I1
sVcz0dnwz
p2
I1
s.(dp0
Vd5cxigm
p1
I1
sVcz0dnwz
p2
I1
s.(dp0
Vd67sbik
p1
I1
sVcz0dnwz
p2
I1
s.(dp0
Vd69krnj
p1
I1
sVcz0dnwz
p2
I1
s.(dp0
Vd6p6hew
p1
I1
sVcz0dnwz
p2
I1
s.(dp0
Vd91usps
p1
I1
sVcz0dnwz
p2
I1
s.(dp0
Vd9d94ol
p1
I1
sVcz0dnwz
p2
I1
s.(dp0
Vd9d94ol
p1
I1
sVcz0dnwz
p2
I1
s.(dp0
Vd9d94ol
p1
I1
sVcz0dnwz
p2
I1
s.(dp0
Vd9d95w9
p1
I1
sVcz0dnwz
p2
I1
s.(dp0
Vd9ywqwd
p1
I1
sVcz0dnwz
p2
I1
s.(dp0
Vd9ywqwd
p1
I1
sVcz0dnwz
p2
I1
s.(dp0
Vdbblu85
p1
I1
sVcz0dnwz
p2
I1
s.(dp0
Vdbxihke
p1
I1
sVcz0dnwz
p2
I1
s.(dp0
Vddifdia
p1
I1
sVcz0dnwz
p2
I1
s.(dp0
Vddjarlq
p1
I1
sVcz0dnwz
p2
I1
s.(dp0
Vddswa5u
p1
I1
sVcz0dnwz
p2
I1
s.(dp0
Vde3tltv
p1
I1
sVcz0dnwz
p2
I1
s.(dp0
Vdechd5o
p1
I1
sVcz0dnwz
p2
I1
s.(dp0
Vdegdo89
p1
I1
sVcz0dnwz
p2
I1
s.(dp0
Vdejc1j0
p1
I1
sVcz0dnwz
p2
I1
s.(dp0
Vdempr4d
p1
I1
sVcz0dnwz
p2
I1
s.(dp0
Vdep94sl
p1
I1
sVcz0dnwz
p2
I1
s.(dp0
Vdeu1qiv
p1
I1
sVcz0dnwz
p2
I1
s.(dp0
Vdfcoihl
p1
I1
sVcz0dnwz
p2
I1
s.(dp0
Vdfcoihl
p1
I1
sVcz0dnwz
p2
I1
s.(dp0
Vdfkktxm
p1
I1
sVcz0dnwz
p2
I1
s.(dp0
Vdfm93ag
p1
I1
sVcz0dnwz
p2
I1
s.(dp0
Vdfmhuup
p1
I1
sVcz0dnwz
p2
I1
s.(dp0
Vdgfc4vi
p1
I1
sVcz0dnwz
p2
I1
s.(dp0
Vdggypm5
p1
I1
sVcz0dnwz
p2
I1
s.(dp0
Vdgj7de1
p1
I1
sVcz0dnwz
p2
I1
s.(dp0
Vdgjl3vt
p1
I1
sVcz0dnwz
p2
I1
s.(dp0
Vdgt7pu9
p1
I1
sVcz0dnwz
p2
I1
s.(dp0
Vdgtc2am
p1
I1
sVcz0dnwz
p2
I1
s.(dp0
Vdgy5hko
p1
I1
sVcz0dnwz
p2
I1
s.(dp0
Vdhol504
p1
I1
sVcz0dnwz
p2
I1
s.(dp0
Vdhpw0bi
p1
I1
sVcz0dnwz
p2
I1
s.(dp0
Vdhqrg7w
p1
I1
sVcz0dnwz
p2
I1
s.(dp0
Vdim10l1
p1
I1
sVcz0dnwz
p2
I1
s.(dp0
Vdjzku7m
p1
I1
sVcz0dnwz
p2
I1
s.(dp0
Vdmimeu4
p1
I1
sVcz0dnwz
p2
I1
s.(dp0
Vdnyl5h0
p1
I1
sVcz0dnwz
p2
I1
s.(dp0
Vdo03z99
p1
I1
sVcz0dnwz
p2
I1
s.(dp0
Vdoma7r9
p1
I1
sVcz0dnwz
p2
I1
s.