(dp0
Vczcidvj
p1
I1
s.(dp0
Vczcidvj
p1
I1
sVczgnd0r
p2
I1
s.(dp0
Vczcidvj
p1
I1
sVd1kq72l
p2
I1
s.(dp0
Vczcidvj
p1
I1
sVd4aa4b9
p2
I1
s.(dp0
Vczcidvj
p1
I1
sVd8j9bk3
p2
I1
s.(dp0
Vczcidvj
p1
I1
sVd9tpbil
p2
I1
s.(dp0
Vczcidvj
p1
I1
sVd9ubxfd
p2
I1
s.(dp0
Vczcidvj
p1
I1
sVdckbby0
p2
I1
s.(dp0
Vddib7qx
p1
I1
sVczcidvj
p2
I1
s.(dp0
Vczcidvj
p1
I1
sVdfrsclf
p2
I1
s.(dp0
Vdi7advf
p1
I1
sVczcidvj
p2
I1
s.(dp0
Vdjhvg8x
p1
I1
sVczcidvj
p2
I1
s.(dp0
Vdjz7f4h
p1
I1
sVczcidvj
p2
I1
s.(dp0
Vdjz7f4h
p1
I1
sVczcidvj
p2
I1
s.(dp0
Vdjz7f4h
p1
I1
sVczcidvj
p2
I1
s.(dp0
Vczcidvj
p1
I1
sVdk4u7mf
p2
I1
s.