(dp0
Vcys7zjz
p1
I1
s.(dp0
Vcys7zjz
p1
I1
sVczp17bo
p2
I1
s.(dp0
Vd04yfaf
p1
I1
sVcys7zjz
p2
I1
s.(dp0
Vcys7zjz
p1
I1
sVd0ry8ln
p2
I1
s.(dp0
Vcys7zjz
p1
I1
sVd1hhf6m
p2
I1
s.(dp0
Vcys7zjz
p1
I1
sVd1hhf6m
p2
I1
s.(dp0
Vcys7zjz
p1
I1
sVd1hhf6m
p2
I1
s.(dp0
Vcys7zjz
p1
I1
sVd1hhf6m
p2
I1
s.(dp0
Vd2vyckp
p1
I1
sVcys7zjz
p2
I1
s.(dp0
Vcys7zjz
p1
I1
sVd38bw13
p2
I1
s.(dp0
Vcys7zjz
p1
I1
sVd39w2dm
p2
I1
s.(dp0
Vcys7zjz
p1
I1
sVd3ef56u
p2
I1
s.(dp0
Vcys7zjz
p1
I1
sVd3ef56u
p2
I1
s.(dp0
Vcys7zjz
p1
I1
sVd3efg9a
p2
I1
s.(dp0
Vcys7zjz
p1
I1
sVd3efg9a
p2
I1
s.(dp0
Vcys7zjz
p1
I1
sVd3hfdwe
p2
I1
s.(dp0
Vd3ncu24
p1
I1
sVcys7zjz
p2
I1
s.(dp0
Vcys7zjz
p1
I1
sVd4w89am
p2
I1
s.(dp0
Vcys7zjz
p1
I1
sVd4y2v0f
p2
I1
s.(dp0
Vcys7zjz
p1
I1
sVd4y9owv
p2
I1
s.(dp0
Vcys7zjz
p1
I1
sVd5x964r
p2
I1
s.(dp0
Vcys7zjz
p1
I1
sVd5x964r
p2
I1
s.(dp0
Vcys7zjz
p1
I1
sVd5x964r
p2
I1
s.(dp0
Vcys7zjz
p1
I1
sVd5x964r
p2
I1
s.(dp0
Vcys7zjz
p1
I1
sVd5x964r
p2
I1
s.(dp0
Vcys7zjz
p1
I1
sVd624oif
p2
I1
s.(dp0
Vcys7zjz
p1
I1
sVd624oif
p2
I1
s.(dp0
Vcys7zjz
p1
I1
sVd624oif
p2
I1
s.(dp0
Vcys7zjz
p1
I1
sVd826z1m
p2
I1
s.(dp0
Vcys7zjz
p1
I1
sVd82i3yi
p2
I1
s.(dp0
Vcys7zjz
p1
I1
sVd8b20nr
p2
I1
s.(dp0
Vcys7zjz
p1
I1
sVd8b20nr
p2
I1
s.(dp0
Vcys7zjz
p1
I1
sVd9v3kle
p2
I1
s.(dp0
Vcys7zjz
p1
I1
sVd9v3kle
p2
I1
s.(dp0
Vdapqii5
p1
I1
sVcys7zjz
p2
I1
s.(dp0
Vcys7zjz
p1
I1
sVdb534od
p2
I1
s.(dp0
Vdbz6aau
p1
I1
sVcys7zjz
p2
I1
s.(dp0
Vcys7zjz
p1
I1
sVdc6clbt
p2
I1
s.(dp0
Vcys7zjz
p1
I1
sVddkfi49
p2
I1
s.(dp0
Vcys7zjz
p1
I1
sVde1aei0
p2
I1
s.(dp0
Vcys7zjz
p1
I1
sVdf8g8y6
p2
I1
s.(dp0
Vcys7zjz
p1
I1
sVdf8g8y6
p2
I1
s.(dp0
Vdg3gj19
p1
I1
sVcys7zjz
p2
I1
s.(dp0
Vcys7zjz
p1
I1
sVdgo0zjp
p2
I1
s.(dp0
Vdnnd452
p1
I1
sVcys7zjz
p2
I1
s.(dp0
Vcys7zjz
p1
I1
sVdoj6qzh
p2
I1
s.(dp0
Vcys7zjz
p1
I1
sVdoreaac
p2
I1
s.