(dp0
Vcywx37v
p1
I1
s.(dp0
Vcywx37v
p1
I1
sVcz2t49l
p2
I1
s.(dp0
Vcywx37v
p1
I1
sVczaa6ai
p2
I1
s.(dp0
Vcywx37v
p1
I1
sVczqmxnk
p2
I1
s.(dp0
Vcywx37v
p1
I1
sVczqy8x1
p2
I1
s.(dp0
Vcywx37v
p1
I1
sVczviotl
p2
I1
s.(dp0
Vcywx37v
p1
I1
sVd0jvyge
p2
I1
s.(dp0
Vcywx37v
p1
I1
sVd0yfvfj
p2
I1
s.(dp0
Vcywx37v
p1
I1
sVd1bp62x
p2
I1
s.(dp0
Vcywx37v
p1
I1
sVd1cjfxw
p2
I1
s.(dp0
Vcywx37v
p1
I1
sVd1u2kbu
p2
I1
s.(dp0
Vcywx37v
p1
I1
sVd3azp2q
p2
I1
s.(dp0
Vcywx37v
p1
I1
sVd3esios
p2
I1
s.(dp0
Vcywx37v
p1
I1
sVd3w27a0
p2
I1
s.(dp0
Vcywx37v
p1
I1
sVd3x89so
p2
I1
s.(dp0
Vcywx37v
p1
I1
sVd3xc5vy
p2
I1
s.(dp0
Vcywx37v
p1
I1
sVd69krnj
p2
I1
s.(dp0
Vcywx37v
p1
I1
sVd72w59h
p2
I1
s.(dp0
Vcywx37v
p1
I1
sVd76qslz
p2
I1
s.(dp0
Vcywx37v
p1
I1
sVd78bqxu
p2
I1
s.(dp0
Vcywx37v
p1
I1
sVd7grkkw
p2
I1
s.(dp0
Vcywx37v
p1
I1
sVd8ab84a
p2
I1
s.(dp0
Vcywx37v
p1
I1
sVda9ev7b
p2
I1
s.(dp0
Vcywx37v
p1
I1
sVdaqol6y
p2
I1
s.(dp0
Vcywx37v
p1
I1
sVdb2t7r3
p2
I1
s.(dp0
Vcywx37v
p1
I1
sVddhao39
p2
I1
s.(dp0
Vcywx37v
p1
I1
sVddyq4oj
p2
I1
s.(dp0
Vcywx37v
p1
I1
sVdfm67rn
p2
I1
s.(dp0
Vcywx37v
p1
I1
sVdgt7qwd
p2
I1
s.(dp0
Vcywx37v
p1
I1
sVdiz2vy0
p2
I1
s.(dp0
Vcywx37v
p1
I1
sVdjdaw23
p2
I1
s.(dp0
Vcywx37v
p1
I1
sVdjn1udk
p2
I1
s.(dp0
Vcywx37v
p1
I1
sVdo1h579
p2
I1
s.(dp0
Vcywx37v
p1
I1
sVdomg0w8
p2
I1
s.