(dp0
Vcz259ql
p1
I1
s.(dp0
Vcz259ql
p1
I2
s.(dp0
Vcz259ql
p1
I1
sVcz9gyu2
p2
I1
s.(dp0
Vcz259ql
p1
I1
sVd0kofqn
p2
I1
s.(dp0
Vcz259ql
p1
I1
sVd0mradd
p2
I1
s.(dp0
Vcz259ql
p1
I1
sVd1h6kj0
p2
I1
s.(dp0
Vd3pd2oe
p1
I1
sVcz259ql
p2
I1
s.(dp0
Vd3pd2oe
p1
I1
sVcz259ql
p2
I1
s.(dp0
Vcz259ql
p1
I1
sVd4ku9l4
p2
I1
s.(dp0
Vcz259ql
p1
I1
sVd4ku9l4
p2
I1
s.(dp0
Vcz259ql
p1
I1
sVd4ku9l4
p2
I1
s.(dp0
Vcz259ql
p1
I1
sVd4kvg4e
p2
I1
s.(dp0
Vcz259ql
p1
I1
sVd4kvg4e
p2
I1
s.(dp0
Vcz259ql
p1
I1
sVd4kvg4e
p2
I1
s.(dp0
Vcz259ql
p1
I1
sVd4kvla0
p2
I1
s.(dp0
Vcz259ql
p1
I1
sVd4kvla0
p2
I1
s.(dp0
Vcz259ql
p1
I1
sVd4kwy9j
p2
I1
s.(dp0
Vcz259ql
p1
I1
sVd4kwy9j
p2
I1
s.(dp0
Vcz259ql
p1
I1
sVd4kwy9j
p2
I1
s.(dp0
Vcz259ql
p1
I1
sVd4kwy9j
p2
I1
s.(dp0
Vcz259ql
p1
I1
sVd4kwy9j
p2
I1
s.(dp0
Vcz259ql
p1
I1
sVd4kwy9j
p2
I1
s.(dp0
Vcz259ql
p1
I1
sVd4kwy9j
p2
I1
s.(dp0
Vcz259ql
p1
I1
sVd4kwy9j
p2
I1
s.(dp0
Vcz259ql
p1
I1
sVd4kwy9j
p2
I1
s.(dp0
Vcz259ql
p1
I1
sVd4kwy9j
p2
I1
s.(dp0
Vcz259ql
p1
I1
sVd4kwy9j
p2
I1
s.(dp0
Vcz259ql
p1
I1
sVd4kwy9j
p2
I1
s.(dp0
Vcz259ql
p1
I1
sVd4kwy9j
p2
I1
s.(dp0
Vcz259ql
p1
I1
sVd4l1ks5
p2
I1
s.(dp0
Vcz259ql
p1
I1
sVd4l1ks5
p2
I1
s.(dp0
Vcz259ql
p1
I1
sVd4l1ks5
p2
I1
s.(dp0
Vcz259ql
p1
I1
sVd4l1ks5
p2
I1
s.(dp0
Vcz259ql
p1
I1
sVd4l1ks5
p2
I1
s.(dp0
Vcz259ql
p1
I1
sVd4l1ks5
p2
I1
s.(dp0
Vcz259ql
p1
I1
sVd4l1ks5
p2
I1
s.(dp0
Vcz259ql
p1
I1
sVd4l4i1s
p2
I1
s.(dp0
Vcz259ql
p1
I1
sVd4l4i1s
p2
I1
s.(dp0
Vcz259ql
p1
I1
sVd4l4i1s
p2
I1
s.(dp0
Vcz259ql
p1
I1
sVd4l4i1s
p2
I1
s.(dp0
Vcz259ql
p1
I1
sVd4l4i1s
p2
I1
s.(dp0
Vcz259ql
p1
I1
sVd4l4i1s
p2
I1
s.(dp0
Vcz259ql
p1
I1
sVd7lwvva
p2
I1
s.(dp0
Vd8g5638
p1
I1
sVcz259ql
p2
I1
s.(dp0
Vcz259ql
p1
I1
sVda2crjb
p2
I1
s.(dp0
Vcz259ql
p1
I1
sVdcyayse
p2
I1
s.(dp0
Vddjb069
p1
I1
sVcz259ql
p2
I1
s.(dp0
Vddjb069
p1
I1
sVcz259ql
p2
I1
s.(dp0
Vcz259ql
p1
I1
sVddkoc20
p2
I1
s.(dp0
Vcz259ql
p1
I1
sVde1ejk7
p2
I1
s.(dp0
Vcz259ql
p1
I1
sVde9tqkp
p2
I1
s.(dp0
Vcz259ql
p1
I1
sVdfwmeg5
p2
I1
s.(dp0
Vcz259ql
p1
I1
sVdfwmeg5
p2
I1
s.(dp0
Vcz259ql
p1
I1
sVdfwmeg5
p2
I1
s.(dp0
Vcz259ql
p1
I1
sVdgphyhz
p2
I1
s.(dp0
Vdhamycm
p1
I1
sVcz259ql
p2
I1
s.(dp0
Vcz259ql
p1
I1
sVdhejup4
p2
I1
s.(dp0
Vcz259ql
p1
I1
sVdhejup4
p2
I1
s.(dp0
Vcz259ql
p1
I1
sVdj95dib
p2
I1
s.