(dp0
Vcz2e1he
p1
I1
s.(dp0
Vczbmr17
p1
I1
sVcz2e1he
p2
I1
s.(dp0
Vd08hrcl
p1
I1
sVcz2e1he
p2
I1
s.(dp0
Vd41e5o5
p1
I1
sVcz2e1he
p2
I1
s.(dp0
Vd5k6r5p
p1
I1
sVcz2e1he
p2
I1
s.(dp0
Vd62t0l3
p1
I1
sVcz2e1he
p2
I1
s.(dp0
Vd9xccen
p1
I1
sVcz2e1he
p2
I1
s.(dp0
Vdef2j9r
p1
I1
sVcz2e1he
p2
I1
s.(dp0
Vdgjbywj
p1
I1
sVcz2e1he
p2
I1
s.(dp0
Vdgzvado
p1
I1
sVcz2e1he
p2
I1
s.(dp0
Vdh6bi7m
p1
I1
sVcz2e1he
p2
I1
s.