(dp0
Vcyirq9m
p1
I1
s.(dp0
Vcyktywf
p1
I1
sVcyirq9m
p2
I1
s.(dp0
Vcyo3uvj
p1
I1
sVcyirq9m
p2
I1
s.(dp0
Vcyo3uvj
p1
I1
sVcyirq9m
p2
I1
s.(dp0
Vcyo3uvj
p1
I1
sVcyirq9m
p2
I1
s.(dp0
Vcyyj5y3
p1
I1
sVcyirq9m
p2
I1
s.(dp0
Vcyyj5y3
p1
I1
sVcyirq9m
p2
I1
s.(dp0
Vcyynn2v
p1
I1
sVcyirq9m
p2
I1
s.(dp0
Vcyynn2v
p1
I1
sVcyirq9m
p2
I1
s.(dp0
Vcz03828
p1
I1
sVcyirq9m
p2
I1
s.(dp0
Vcz03d9j
p1
I1
sVcyirq9m
p2
I1
s.(dp0
Vcz1f90a
p1
I1
sVcyirq9m
p2
I1
s.(dp0
Vcz29p0u
p1
I1
sVcyirq9m
p2
I1
s.(dp0
Vcz2knxn
p1
I1
sVcyirq9m
p2
I1
s.(dp0
Vcz3qt8b
p1
I1
sVcyirq9m
p2
I1
s.(dp0
Vcz3tcaz
p1
I1
sVcyirq9m
p2
I1
s.(dp0
Vcz43wc2
p1
I1
sVcyirq9m
p2
I1
s.(dp0
Vczbnosi
p1
I1
sVcyirq9m
p2
I1
s.(dp0
Vczbvs53
p1
I1
sVcyirq9m
p2
I1
s.(dp0
Vczbvs53
p1
I1
sVcyirq9m
p2
I1
s.(dp0
Vczcxtsa
p1
I1
sVcyirq9m
p2
I1
s.(dp0
Vczgjcou
p1
I1
sVcyirq9m
p2
I1
s.(dp0
Vczoqaos
p1
I1
sVcyirq9m
p2
I1
s.(dp0
Vczvi84v
p1
I1
sVcyirq9m
p2
I1
s.(dp0
Vczwayjf
p1
I1
sVcyirq9m
p2
I1
s.(dp0
Vczwayjf
p1
I1
sVcyirq9m
p2
I1
s.(dp0
Vczxnhy6
p1
I1
sVcyirq9m
p2
I1
s.(dp0
Vczz6qod
p1
I1
sVcyirq9m
p2
I1
s.(dp0
Vd00kpe0
p1
I1
sVcyirq9m
p2
I1
s.(dp0
Vd01l8hm
p1
I1
sVcyirq9m
p2
I1
s.(dp0
Vd04r5x2
p1
I1
sVcyirq9m
p2
I1
s.(dp0
Vd04soq8
p1
I1
sVcyirq9m
p2
I1
s.(dp0
Vd0675jx
p1
I1
sVcyirq9m
p2
I1
s.(dp0
Vd0675jx
p1
I1
sVcyirq9m
p2
I1
s.(dp0
Vd0fq2zs
p1
I1
sVcyirq9m
p2
I1
s.(dp0
Vd0m0t34
p1
I1
sVcyirq9m
p2
I1
s.(dp0
Vd0z5107
p1
I1
sVcyirq9m
p2
I1
s.(dp0
Vd0z5107
p1
I1
sVcyirq9m
p2
I1
s.(dp0
Vd0z5107
p1
I1
sVcyirq9m
p2
I1
s.(dp0
Vd0z5107
p1
I1
sVcyirq9m
p2
I1
s.(dp0
Vd0z5107
p1
I1
sVcyirq9m
p2
I1
s.(dp0
Vd0z51kz
p1
I1
sVcyirq9m
p2
I1
s.(dp0
Vd0z51kz
p1
I1
sVcyirq9m
p2
I1
s.(dp0
Vd0z51kz
p1
I1
sVcyirq9m
p2
I1
s.(dp0
Vd0z51kz
p1
I1
sVcyirq9m
p2
I1
s.(dp0
Vd0z51kz
p1
I1
sVcyirq9m
p2
I1
s.(dp0
Vd16r903
p1
I1
sVcyirq9m
p2
I1
s.(dp0
Vd16r903
p1
I1
sVcyirq9m
p2
I1
s.(dp0
Vd16r903
p1
I1
sVcyirq9m
p2
I1
s.(dp0
Vd1btxxz
p1
I1
sVcyirq9m
p2
I1
s.(dp0
Vd1btxxz
p1
I1
sVcyirq9m
p2
I1
s.(dp0
Vd1e0k7v
p1
I1
sVcyirq9m
p2
I1
s.(dp0
Vd1e0k7v
p1
I1
sVcyirq9m
p2
I1
s.(dp0
Vd1nddbk
p1
I1
sVcyirq9m
p2
I1
s.(dp0
Vd1syu0l
p1
I1
sVcyirq9m
p2
I1
s.(dp0
Vd1wzyo9
p1
I1
sVcyirq9m
p2
I1
s.(dp0
Vd220nkq
p1
I1
sVcyirq9m
p2
I1
s.(dp0
Vd2al9gk
p1
I1
sVcyirq9m
p2
I1
s.(dp0
Vd2gbgyv
p1
I1
sVcyirq9m
p2
I1
s.(dp0
Vd2p5e4k
p1
I1
sVcyirq9m
p2
I1
s.(dp0
Vd2wc0mo
p1
I1
sVcyirq9m
p2
I1
s.(dp0
Vd34hhvq
p1
I1
sVcyirq9m
p2
I1
s.(dp0
Vd36uvsl
p1
I1
sVcyirq9m
p2
I1
s.(dp0
Vd381ui4
p1
I1
sVcyirq9m
p2
I1
s.(dp0
Vd3c07rn
p1
I1
sVcyirq9m
p2
I1
s.(dp0
Vd3hlszu
p1
I1
sVcyirq9m
p2
I1
s.(dp0
Vd3qh8km
p1
I1
sVcyirq9m
p2
I1
s.(dp0
Vd3ttvdk
p1
I1
sVcyirq9m
p2
I1
s.(dp0
Vd3ttvdk
p1
I1
sVcyirq9m
p2
I1
s.(dp0
Vd3tyyyk
p1
I1
sVcyirq9m
p2
I1
s.(dp0
Vd3x7mqv
p1
I1
sVcyirq9m
p2
I1
s.(dp0
Vd4265xn
p1
I1
sVcyirq9m
p2
I1
s.(dp0
Vd4in9qw
p1
I1
sVcyirq9m
p2
I1
s.(dp0
Vd4in9qw
p1
I1
sVcyirq9m
p2
I1
s.(dp0
Vd4l2cx8
p1
I1
sVcyirq9m
p2
I1
s.(dp0
Vd4mrdsx
p1
I1
sVcyirq9m
p2
I1
s.(dp0
Vd4u5494
p1
I1
sVcyirq9m
p2
I1
s.(dp0
Vd537x0u
p1
I1
sVcyirq9m
p2
I1
s.(dp0
Vd537x0u
p1
I1
sVcyirq9m
p2
I1
s.(dp0
Vd537x0u
p1
I1
sVcyirq9m
p2
I1
s.(dp0
Vd5dzrvm
p1
I1
sVcyirq9m
p2
I1
s.(dp0
Vd5h1142
p1
I1
sVcyirq9m
p2
I1
s.(dp0
Vd5tsfqb
p1
I1
sVcyirq9m
p2
I1
s.(dp0
Vd5tss6c
p1
I1
sVcyirq9m
p2
I1
s.(dp0
Vd61of86
p1
I1
sVcyirq9m
p2
I1
s.(dp0
Vd61of86
p1
I1
sVcyirq9m
p2
I1
s.(dp0
Vd6on61f
p1
I1
sVcyirq9m
p2
I1
s.(dp0
Vd6p7098
p1
I1
sVcyirq9m
p2
I1
s.(dp0
Vd6qefiy
p1
I1
sVcyirq9m
p2
I1
s.(dp0
Vd6w2o8d
p1
I1
sVcyirq9m
p2
I1
s.(dp0
Vd78bp2n
p1
I1
sVcyirq9m
p2
I1
s.(dp0
Vd796bvt
p1
I1
sVcyirq9m
p2
I1
s.(dp0
Vd7bwsuz
p1
I1
sVcyirq9m
p2
I1
s.(dp0
Vd7hpdwa
p1
I1
sVcyirq9m
p2
I1
s.(dp0
Vd81n6lh
p1
I1
sVcyirq9m
p2
I1
s.(dp0
Vd8350aw
p1
I1
sVcyirq9m
p2
I1
s.(dp0
Vd84t31m
p1
I1
sVcyirq9m
p2
I1
s.(dp0
Vd87bsew
p1
I1
sVcyirq9m
p2
I1
s.(dp0
Vd8mdani
p1
I1
sVcyirq9m
p2
I1
s.(dp0
Vd8mkj95
p1
I1
sVcyirq9m
p2
I1
s.(dp0
Vd8ooau1
p1
I1
sVcyirq9m
p2
I1
s.(dp0
Vd8ooau1
p1
I1
sVcyirq9m
p2
I1
s.(dp0
Vd8ooau1
p1
I1
sVcyirq9m
p2
I1
s.(dp0
Vd8tha3b
p1
I1
sVcyirq9m
p2
I1
s.(dp0
Vd8tha3b
p1
I1
sVcyirq9m
p2
I1
s.(dp0
Vd8wwn6y
p1
I1
sVcyirq9m
p2
I1
s.(dp0
Vd9e5c45
p1
I1
sVcyirq9m
p2
I1
s.(dp0
Vd9h6wj6
p1
I1
sVcyirq9m
p2
I1
s.(dp0
Vd9(dp0
Vdkvapti
p1
I1
sVcyirq9m
p2
I1
s.