(dp0
Vcyjne2n
p1
I1
s.(dp0
Vcyjne2n
p1
I1
sVcykdcjb
p2
I1
s.(dp0
Vcyjne2n
p1
I1
sVcykdcjb
p2
I1
s.(dp0
Vcyjne2n
p1
I1
sVcykdcjb
p2
I1
s.(dp0
Vcyjne2n
p1
I1
sVcykdcjb
p2
I1
s.(dp0
Vcylkbmu
p1
I1
sVcyjne2n
p2
I1
s.(dp0
Vcyobc62
p1
I1
sVcyjne2n
p2
I1
s.(dp0
Vcyobc62
p1
I1
sVcyjne2n
p2
I1
s.(dp0
Vcyobc62
p1
I1
sVcyjne2n
p2
I1
s.(dp0
Vcyobc62
p1
I1
sVcyjne2n
p2
I1
s.(dp0
Vcyobc62
p1
I1
sVcyjne2n
p2
I1
s.(dp0
Vcyp0muo
p1
I1
sVcyjne2n
p2
I1
s.(dp0
Vcypo91s
p1
I1
sVcyjne2n
p2
I1
s.(dp0
Vcyre7m8
p1
I1
sVcyjne2n
p2
I1
s.(dp0
Vcyt0fiq
p1
I1
sVcyjne2n
p2
I1
s.(dp0
Vcyt0fiq
p1
I1
sVcyjne2n
p2
I1
s.(dp0
Vcytt4jx
p1
I1
sVcyjne2n
p2
I1
s.(dp0
Vcytt4jx
p1
I1
sVcyjne2n
p2
I1
s.(dp0
Vcytxbb5
p1
I1
sVcyjne2n
p2
I1
s.(dp0
Vcyu0c9o
p1
I1
sVcyjne2n
p2
I1
s.(dp0
Vcyv8f20
p1
I1
sVcyjne2n
p2
I1
s.(dp0
Vcyw89u3
p1
I1
sVcyjne2n
p2
I1
s.(dp0
Vcz2uvc3
p1
I1
sVcyjne2n
p2
I1
s.(dp0
Vcz4wd9y
p1
I1
sVcyjne2n
p2
I1
s.(dp0
Vcz7f88f
p1
I1
sVcyjne2n
p2
I1
s.(dp0
Vcz7hdee
p1
I1
sVcyjne2n
p2
I1
s.(dp0
Vcz7hdee
p1
I1
sVcyjne2n
p2
I1
s.(dp0
Vcyjne2n
p1
I1
sVcz7kzvo
p2
I1
s.(dp0
Vcz8w7n3
p1
I1
sVcyjne2n
p2
I1
s.(dp0
Vczdk2yf
p1
I1
sVcyjne2n
p2
I1
s.(dp0
Vczecs8k
p1
I1
sVcyjne2n
p2
I1
s.(dp0
Vczecs8k
p1
I1
sVcyjne2n
p2
I1
s.(dp0
Vczecskx
p1
I1
sVcyjne2n
p2
I1
s.(dp0
Vczh95oe
p1
I1
sVcyjne2n
p2
I1
s.(dp0
Vczi8maq
p1
I1
sVcyjne2n
p2
I1
s.(dp0
Vczjpw63
p1
I1
sVcyjne2n
p2
I1
s.(dp0
Vczk1dsn
p1
I1
sVcyjne2n
p2
I1
s.(dp0
Vczldo17
p1
I1
sVcyjne2n
p2
I1
s.(dp0
Vczm0zud
p1
I1
sVcyjne2n
p2
I1
s.(dp0
Vczmmeir
p1
I1
sVcyjne2n
p2
I1
s.(dp0
Vcznz6xr
p1
I1
sVcyjne2n
p2
I1
s.(dp0
Vcznz6xr
p1
I1
sVcyjne2n
p2
I1
s.(dp0
Vczojm1w
p1
I1
sVcyjne2n
p2
I1
s.(dp0
Vczpj76s
p1
I1
sVcyjne2n
p2
I1
s.(dp0
Vczpj76s
p1
I1
sVcyjne2n
p2
I1
s.(dp0
Vczpzk1l
p1
I1
sVcyjne2n
p2
I1
s.(dp0
Vczw91jc
p1
I1
sVcyjne2n
p2
I1
s.(dp0
Vczw91jc
p1
I1
sVcyjne2n
p2
I1
s.(dp0
Vczwrvi2
p1
I1
sVcyjne2n
p2
I1
s.(dp0
Vczxb0ak
p1
I1
sVcyjne2n
p2
I1
s.(dp0
Vczzwmcy
p1
I1
sVcyjne2n
p2
I1
s.(dp0
Vczzwmcy
p1
I1
sVcyjne2n
p2
I1
s.(dp0
Vd029yye
p1
I1
sVcyjne2n
p2
I1
s.(dp0
Vd02fr5z
p1
I1
sVcyjne2n
p2
I1
s.(dp0
Vd02fr5z
p1
I1
sVcyjne2n
p2
I1
s.(dp0
Vd030373
p1
I1
sVcyjne2n
p2
I1
s.(dp0
Vd06cofn
p1
I1
sVcyjne2n
p2
I1
s.(dp0
Vd06h1ar
p1
I1
sVcyjne2n
p2
I1
s.(dp0
Vd06h1ar
p1
I1
sVcyjne2n
p2
I1
s.(dp0
Vd06h1ar
p1
I1
sVcyjne2n
p2
I1
s.(dp0
Vd06x4f7
p1
I1
sVcyjne2n
p2
I1
s.(dp0
Vd089wed
p1
I1
sVcyjne2n
p2
I1
s.(dp0
Vd097ooh
p1
I1
sVcyjne2n
p2
I1
s.(dp0
Vd0bib55
p1
I1
sVcyjne2n
p2
I1
s.(dp0
Vd0bib55
p1
I1
sVcyjne2n
p2
I1
s.(dp0
Vd0bib55
p1
I1
sVcyjne2n
p2
I1
s.(dp0
Vd0c3hh0
p1
I1
sVcyjne2n
p2
I1
s.(dp0
Vd0g1ffw
p1
I1
sVcyjne2n
p2
I1
s.(dp0
Vd0gdz1i
p1
I1
sVcyjne2n
p2
I1
s.(dp0
Vd0jj4ea
p1
I1
sVcyjne2n
p2
I1
s.(dp0
Vd0jktwr
p1
I1
sVcyjne2n
p2
I1
s.(dp0
Vd0k1fcd
p1
I1
sVcyjne2n
p2
I1
s.(dp0
Vd0k9kck
p1
I1
sVcyjne2n
p2
I1
s.(dp0
Vcyjne2n
p1
I1
sVd0kgppn
p2
I1
s.(dp0
Vcyjne2n
p1
I1
sVd0m0t34
p2
I1
s.(dp0
Vd0polxw
p1
I1
sVcyjne2n
p2
I1
s.(dp0
Vd0pyizi
p1
I1
sVcyjne2n
p2
I1
s.(dp0
Vd0qys7i
p1
I1
sVcyjne2n
p2
I1
s.(dp0
Vd0r3x2h
p1
I1
sVcyjne2n
p2
I1
s.(dp0
Vd0r8gcg
p1
I1
sVcyjne2n
p2
I1
s.(dp0
Vd0r8gcg
p1
I1
sVcyjne2n
p2
I1
s.(dp0
Vcyjne2n
p1
I1
sVd0rrvay
p2
I1
s.(dp0
Vd0twnqa
p1
I1
sVcyjne2n
p2
I1
s.(dp0
Vd0vqrv6
p1
I1
sVcyjne2n
p2
I1
s.(dp0
Vd0w2cli
p1
I1
sVcyjne2n
p2
I1
s.(dp0
Vd0y0zo1
p1
I1
sVcyjne2n
p2
I1
s.(dp0
Vd0y0zo1
p1
I1
sVcyjne2n
p2
I1
s.(dp0
Vd0y0zo1
p1
I1
sVcyjne2n
p2
I1
s.(dp0
Vd0y0zo1
p1
I1
sVcyjne2n
p2
I1
s.(dp0
Vd0y0zo1
p1
I1
sVcyjne2n
p2
I1
s.(dp0
Vd10jwje
p1
I1
sVcyjne2n
p2
I1
s.(dp0
Vd10jwje
p1
I1
sVcyjne2n
p2
I1
s.(dp0
Vd14ayrf
p1
I1
sVcyjne2n
p2
I1
s.(dp0
Vcyjne2n
p1
I1
sVd15w27t
p2
I1
s.(dp0
Vcyjne2n
p1
I1
sVd16wik4
p2
I1
s.(dp0
Vcyjne2n
p1
I1
sVd16wik4
p2
I1
s.(dp0
Vcyjne2n
p1
I1
sVd16wik4
p2
I1
s.(dp0
Vd16wkd6
p1
I1
sVcyjne2n
p2
I1
s.(dp0
Vd18mipd
p1
I1
sVcyjne2n
p2
I1
s.(dp0
Vd1anxi1
p1
I1
sVcyjne2n
p2
I1
s.(dp0
Vd1aolcx
p1
I1
sVcyjne2n
p2
I1
s.(dp0
Vd1bl6k9
p1
I1
sVcyjne2n
p2
I1
s.(dp0
Vcyjne2n
p1
I1
sVd1bl8xa
p2
I1
s.(dp0
Vd1bzwwg
p1
I1
sVcyjne2n
p2
I1
s.(dp0
Vd1e8kp8
p1
I1
sVcyjne2n
p2
I1
s.(dp0
Vcyjne2n
p1
I1
sVd1fos3r
p2
I1
s.(dp0
Vcyjne2n
p1
I1
sVd1fos3r
p2
I1
s.(dp0
Vcyjne2n
p1
I1
sVd1fos3r
p2
I1
s.(dp0
Vd1(dp0
Vcyjne2n
p1
I1
sVdp0tfjp
p2
I1
s.