(dp0
Vcyy1pnr
p1
I1
s.(dp0
Vcyy1pnr
p1
I2
s.(dp0
Vcyy1pnr
p1
I2
s.(dp0
Vcyy1pnr
p1
I1
sVczjoz37
p2
I1
s.(dp0
Vcyy1pnr
p1
I1
sVd05kmeo
p2
I1
s.(dp0
Vcyy1pnr
p1
I1
sVd05kmeo
p2
I1
s.(dp0
Vcyy1pnr
p1
I1
sVd1l1m2u
p2
I1
s.(dp0
Vd1mk4bv
p1
I1
sVcyy1pnr
p2
I1
s.(dp0
Vcyy1pnr
p1
I1
sVd5is68t
p2
I1
s.(dp0
Vcyy1pnr
p1
I1
sVd5ycx3i
p2
I1
s.(dp0
Vcyy1pnr
p1
I1
sVd6pvskn
p2
I1
s.(dp0
Vcyy1pnr
p1
I1
sVd8psa0o
p2
I1
s.(dp0
Vcyy1pnr
p1
I1
sVdc29f3a
p2
I1
s.(dp0
Vcyy1pnr
p1
I1
sVdctfckg
p2
I1
s.(dp0
Vcyy1pnr
p1
I1
sVdcxqzv6
p2
I1
s.(dp0
Vcyy1pnr
p1
I1
sVdcxqzv6
p2
I1
s.(dp0
Vcyy1pnr
p1
I1
sVdcyqgsl
p2
I1
s.(dp0
Vcyy1pnr
p1
I1
sVde7mec7
p2
I1
s.