(dp0
Vczwayjf
p1
I1
s.(dp0
Vd06zznk
p1
I1
sVczwayjf
p2
I1
s.(dp0
Vd0im0jg
p1
I1
sVczwayjf
p2
I1
s.(dp0
Vd2lw5ty
p1
I1
sVczwayjf
p2
I1
s.(dp0
Vd3ugxlz
p1
I1
sVczwayjf
p2
I1
s.(dp0
Vd4bzzx3
p1
I1
sVczwayjf
p2
I1
s.(dp0
Vd4e3zvl
p1
I1
sVczwayjf
p2
I1
s.(dp0
Vd85td3c
p1
I1
sVczwayjf
p2
I1
s.(dp0
Vdbg2nn8
p1
I1
sVczwayjf
p2
I1
s.(dp0
Vdd9wg4w
p1
I1
sVczwayjf
p2
I1
s.(dp0
Vddietx7
p1
I1
sVczwayjf
p2
I1
s.(dp0
Vdfye69d
p1
I1
sVczwayjf
p2
I1
s.(dp0
Vdhn805i
p1
I1
sVczwayjf
p2
I1
s.(dp0
Vdj1v7lp
p1
I1
sVczwayjf
p2
I1
s.(dp0
Vdmw2bqs
p1
I1
sVczwayjf
p2
I1
s.(dp0
Vdnju5ck
p1
I1
sVczwayjf
p2
I1
s.