(dp0
Vcyje6rn
p1
I1
s.(dp0
Vcyjhsuf
p1
I1
sVcyje6rn
p2
I1
s.(dp0
Vcyjhsuf
p1
I1
sVcyje6rn
p2
I1
s.(dp0
Vcyje6rn
p1
I1
sVcyjhv6t
p2
I1
s.(dp0
Vcyje6rn
p1
I1
sVcyjhv6t
p2
I1
s.(dp0
Vcyje6rn
p1
I1
sVcyjtdv1
p2
I1
s.(dp0
Vcyje6rn
p1
I1
sVcyjvkqr
p2
I1
s.(dp0
Vcyje6rn
p1
I1
sVcyjvkqr
p2
I1
s.(dp0
Vcyje6rn
p1
I1
sVcyjvkqr
p2
I1
s.(dp0
Vcyje6rn
p1
I1
sVcyjvkqr
p2
I1
s.(dp0
Vcyje6rn
p1
I1
sVcyjvkqr
p2
I1
s.(dp0
Vcyje6rn
p1
I1
sVcyk3sy2
p2
I1
s.(dp0
Vcyk48ft
p1
I1
sVcyje6rn
p2
I1
s.(dp0
Vcyk9gwk
p1
I1
sVcyje6rn
p2
I1
s.(dp0
Vcyk9gwk
p1
I1
sVcyje6rn
p2
I1
s.(dp0
Vcyk9gwk
p1
I1
sVcyje6rn
p2
I1
s.(dp0
Vcyk9gwk
p1
I1
sVcyje6rn
p2
I1
s.(dp0
Vcyk9gwk
p1
I1
sVcyje6rn
p2
I1
s.(dp0
Vcyk9gwk
p1
I1
sVcyje6rn
p2
I1
s.(dp0
Vcyk9gwk
p1
I1
sVcyje6rn
p2
I1
s.(dp0
Vcyl3c8m
p1
I1
sVcyje6rn
p2
I1
s.(dp0
Vcyje6rn
p1
I1
sVcym6icm
p2
I1
s.(dp0
Vcyje6rn
p1
I1
sVcync49u
p2
I1
s.(dp0
Vcynvimj
p1
I1
sVcyje6rn
p2
I1
s.(dp0
Vcyriiik
p1
I1
sVcyje6rn
p2
I1
s.(dp0
Vcyje6rn
p1
I1
sVcysdvtd
p2
I1
s.(dp0
Vcyje6rn
p1
I1
sVcyte5eu
p2
I1
s.(dp0
Vcyje6rn
p1
I1
sVcyte5eu
p2
I1
s.(dp0
Vcyup8kp
p1
I1
sVcyje6rn
p2
I1
s.(dp0
Vcyje6rn
p1
I1
sVcyupceo
p2
I1
s.(dp0
Vcyvs9ho
p1
I1
sVcyje6rn
p2
I1
s.(dp0
Vcyvszvx
p1
I1
sVcyje6rn
p2
I1
s.(dp0
Vcyvszvx
p1
I1
sVcyje6rn
p2
I1
s.(dp0
Vcywb40o
p1
I1
sVcyje6rn
p2
I1
s.(dp0
Vcywb40o
p1
I1
sVcyje6rn
p2
I1
s.(dp0
Vcyje6rn
p1
I1
sVcywu6yp
p2
I1
s.(dp0
Vcyje6rn
p1
I1
sVcywu6yp
p2
I1
s.(dp0
Vcyje6rn
p1
I1
sVcyxl7yh
p2
I1
s.(dp0
Vcyje6rn
p1
I1
sVcyxsu0u
p2
I1
s.(dp0
Vcyje6rn
p1
I1
sVcyxsu0u
p2
I1
s.(dp0
Vcyje6rn
p1
I1
sVcyxsu0u
p2
I1
s.(dp0
Vcyje6rn
p1
I1
sVcyxsu0u
p2
I1
s.(dp0
Vcyzj9wn
p1
I1
sVcyje6rn
p2
I1
s.(dp0
Vcyje6rn
p1
I1
sVcz0q6ef
p2
I1
s.(dp0
Vcz192k4
p1
I1
sVcyje6rn
p2
I1
s.(dp0
Vcz50plu
p1
I1
sVcyje6rn
p2
I1
s.(dp0
Vcz50plu
p1
I1
sVcyje6rn
p2
I1
s.(dp0
Vcz5axyx
p1
I1
sVcyje6rn
p2
I1
s.(dp0
Vcz6cset
p1
I1
sVcyje6rn
p2
I1
s.(dp0
Vcyje6rn
p1
I1
sVcz6mhbg
p2
I1
s.(dp0
Vcyje6rn
p1
I1
sVcz6stlx
p2
I1
s.(dp0
Vcyje6rn
p1
I1
sVcz72v5m
p2
I1
s.(dp0
Vcyje6rn
p1
I1
sVcz7dw0t
p2
I1
s.(dp0
Vcyje6rn
p1
I1
sVcz7m9eq
p2
I1
s.(dp0
Vcz8stoe
p1
I1
sVcyje6rn
p2
I1
s.(dp0
Vcz9h4gf
p1
I1
sVcyje6rn
p2
I1
s.(dp0
Vczcddsc
p1
I1
sVcyje6rn
p2
I1
s.(dp0
Vczcddsc
p1
I1
sVcyje6rn
p2
I1
s.(dp0
Vczcdf49
p1
I1
sVcyje6rn
p2
I1
s.(dp0
Vcyje6rn
p1
I1
sVczcuqkx
p2
I1
s.(dp0
Vczd11gi
p1
I1
sVcyje6rn
p2
I1
s.(dp0
Vczd11gi
p1
I1
sVcyje6rn
p2
I1
s.(dp0
Vczd11gi
p1
I1
sVcyje6rn
p2
I1
s.(dp0
Vczd11gi
p1
I1
sVcyje6rn
p2
I1
s.(dp0
Vczd124x
p1
I1
sVcyje6rn
p2
I1
s.(dp0
Vczd124x
p1
I1
sVcyje6rn
p2
I1
s.(dp0
Vczd124x
p1
I1
sVcyje6rn
p2
I1
s.(dp0
Vczd124x
p1
I1
sVcyje6rn
p2
I1
s.(dp0
Vcyje6rn
p1
I1
sVcze01gx
p2
I1
s.(dp0
Vcyje6rn
p1
I1
sVczeurao
p2
I1
s.(dp0
Vczfs1gq
p1
I1
sVcyje6rn
p2
I1
s.(dp0
Vcyje6rn
p1
I1
sVczglr1z
p2
I1
s.(dp0
Vczgp8j3
p1
I1
sVcyje6rn
p2
I1
s.(dp0
Vcyje6rn
p1
I1
sVczh7tgt
p2
I1
s.(dp0
Vcyje6rn
p1
I1
sVcziw2fh
p2
I1
s.(dp0
Vczj514g
p1
I1
sVcyje6rn
p2
I1
s.(dp0
Vcyje6rn
p1
I1
sVczjpfti
p2
I1
s.(dp0
Vczkbanw
p1
I1
sVcyje6rn
p2
I1
s.(dp0
Vczkblve
p1
I1
sVcyje6rn
p2
I1
s.(dp0
Vczkblve
p1
I1
sVcyje6rn
p2
I1
s.(dp0
Vczkblve
p1
I1
sVcyje6rn
p2
I1
s.(dp0
Vczkblve
p1
I1
sVcyje6rn
p2
I1
s.(dp0
Vczkblve
p1
I1
sVcyje6rn
p2
I1
s.(dp0
Vczm8xk0
p1
I1
sVcyje6rn
p2
I1
s.(dp0
Vcyje6rn
p1
I1
sVczmnf5u
p2
I1
s.(dp0
Vcyje6rn
p1
I1
sVczn9ct1
p2
I1
s.(dp0
Vcyje6rn
p1
I1
sVczn9ct1
p2
I1
s.(dp0
Vcyje6rn
p1
I1
sVcznrk7o
p2
I1
s.(dp0
Vczok5it
p1
I1
sVcyje6rn
p2
I1
s.(dp0
Vczqpjy9
p1
I1
sVcyje6rn
p2
I1
s.(dp0
Vczqpjy9
p1
I1
sVcyje6rn
p2
I1
s.(dp0
Vcyje6rn
p1
I1
sVczqzf45
p2
I1
s.(dp0
Vcyje6rn
p1
I1
sVczqzf45
p2
I1
s.(dp0
Vcyje6rn
p1
I1
sVczqzf45
p2
I1
s.(dp0
Vcztdyq6
p1
I1
sVcyje6rn
p2
I1
s.(dp0
Vcztoqt2
p1
I1
sVcyje6rn
p2
I1
s.(dp0
Vczuyhuo
p1
I1
sVcyje6rn
p2
I1
s.(dp0
Vczuyhuo
p1
I1
sVcyje6rn
p2
I1
s.(dp0
Vczuyvoi
p1
I1
sVcyje6rn
p2
I1
s.(dp0
Vczuyvoi
p1
I1
sVcyje6rn
p2
I1
s.(dp0
Vczvtwzt
p1
I1
sVcyje6rn
p2
I1
s.(dp0
Vczwazga
p1
I1
sVcyje6rn
p2
I1
s.(dp0
Vczxnyey
p1
I1
sVcyje6rn
p2
I1
s.(dp0
Vcyje6rn
p1
I1
sVczxs25x
p2
I1
s.(dp0
Vcyje6rn
p1
I1
sVd00k8yx
p2
I1
s.(dp0
Vcyje6rn
p1
I1
sVd02075s
p2
I1
s.(dp0
Vd02528h
p1
I1
sVcyje6rn
p2
I1
s.(dp0
Vd02528h
p1
I1
sVcyje6rn
p2
I1
s.(dp0
Vcy(dp0
Vcyje6rn
p1
I1
sVdkz29gi
p2
I1
s.