(dp0
Vcylx63y
p1
I1
s.(dp0
Vcylx63y
p1
I2
s.(dp0
Vcylx63y
p1
I2
s.(dp0
Vcylx63y
p1
I1
sVcz3xai4
p2
I1
s.(dp0
Vcylx63y
p1
I1
sVczdz31k
p2
I1
s.(dp0
Vcylx63y
p1
I1
sVczdz31k
p2
I1
s.(dp0
Vcylx63y
p1
I1
sVczumicy
p2
I1
s.(dp0
Vcylx63y
p1
I1
sVczygsj0
p2
I1
s.(dp0
Vcylx63y
p1
I1
sVd0rqedr
p2
I1
s.(dp0
Vcylx63y
p1
I1
sVd0rqedr
p2
I1
s.(dp0
Vcylx63y
p1
I1
sVd0rqedr
p2
I1
s.(dp0
Vcylx63y
p1
I1
sVd0rqedr
p2
I1
s.(dp0
Vcylx63y
p1
I1
sVd0rqedr
p2
I1
s.(dp0
Vcylx63y
p1
I1
sVd0rs51c
p2
I1
s.(dp0
Vd15s6jt
p1
I1
sVcylx63y
p2
I1
s.(dp0
Vd15s6jt
p1
I1
sVcylx63y
p2
I1
s.(dp0
Vd15s6jt
p1
I1
sVcylx63y
p2
I1
s.(dp0
Vd15s6jt
p1
I1
sVcylx63y
p2
I1
s.(dp0
Vcylx63y
p1
I1
sVd15u3ff
p2
I1
s.(dp0
Vcylx63y
p1
I1
sVd17e2br
p2
I1
s.(dp0
Vcylx63y
p1
I1
sVd1jl85q
p2
I1
s.(dp0
Vcylx63y
p1
I1
sVd1o0lj8
p2
I1
s.(dp0
Vd1vgu4r
p1
I1
sVcylx63y
p2
I1
s.(dp0
Vcylx63y
p1
I1
sVd272cyt
p2
I1
s.(dp0
Vcylx63y
p1
I1
sVd39d4gt
p2
I1
s.(dp0
Vd3gdj25
p1
I1
sVcylx63y
p2
I1
s.(dp0
Vd3kz559
p1
I1
sVcylx63y
p2
I1
s.(dp0
Vcylx63y
p1
I1
sVd468cr4
p2
I1
s.(dp0
Vcylx63y
p1
I1
sVd4dlts0
p2
I1
s.(dp0
Vcylx63y
p1
I1
sVd4dlts0
p2
I1
s.(dp0
Vcylx63y
p1
I1
sVd4i8so6
p2
I1
s.(dp0
Vcylx63y
p1
I1
sVd4jnyy5
p2
I1
s.(dp0
Vcylx63y
p1
I1
sVd4pise9
p2
I1
s.(dp0
Vcylx63y
p1
I1
sVd5087tu
p2
I1
s.(dp0
Vcylx63y
p1
I1
sVd50h3x4
p2
I1
s.(dp0
Vcylx63y
p1
I1
sVd5l0dzt
p2
I1
s.(dp0
Vcylx63y
p1
I1
sVd65b7eu
p2
I1
s.(dp0
Vcylx63y
p1
I1
sVd6je6da
p2
I1
s.(dp0
Vcylx63y
p1
I1
sVd6js8s4
p2
I1
s.(dp0
Vcylx63y
p1
I1
sVd6js8s4
p2
I1
s.(dp0
Vcylx63y
p1
I1
sVd8v24a5
p2
I1
s.(dp0
Vcylx63y
p1
I1
sVd8v24a5
p2
I1
s.(dp0
Vcylx63y
p1
I1
sVd9ti2m9
p2
I1
s.(dp0
Vcylx63y
p1
I1
sVd9vnq83
p2
I1
s.(dp0
Vcylx63y
p1
I1
sVda1ymzn
p2
I1
s.(dp0
Vcylx63y
p1
I1
sVdav6yq9
p2
I1
s.(dp0
Vcylx63y
p1
I1
sVdcgb6d0
p2
I1
s.(dp0
Vcylx63y
p1
I1
sVddhjeob
p2
I1
s.(dp0
Vcylx63y
p1
I1
sVddhjeob
p2
I1
s.(dp0
Vcylx63y
p1
I1
sVddi93t3
p2
I1
s.(dp0
Vde6cuz4
p1
I1
sVcylx63y
p2
I1
s.(dp0
Vde6cuz4
p1
I1
sVcylx63y
p2
I1
s.(dp0
Vcylx63y
p1
I1
sVdel9jvb
p2
I1
s.(dp0
Vcylx63y
p1
I1
sVdel9jvb
p2
I1
s.(dp0
Vcylx63y
p1
I1
sVdf3dlw1
p2
I1
s.(dp0
Vcylx63y
p1
I1
sVdfv50c3
p2
I1
s.(dp0
Vcylx63y
p1
I1
sVdg96du9
p2
I1
s.(dp0
Vcylx63y
p1
I1
sVdh0da1v
p2
I1
s.(dp0
Vcylx63y
p1
I1
sVdh0da1v
p2
I1
s.(dp0
Vdh1fv77
p1
I1
sVcylx63y
p2
I1
s.(dp0
Vcylx63y
p1
I1
sVdhdp1oy
p2
I1
s.(dp0
Vcylx63y
p1
I1
sVdhw7orr
p2
I1
s.(dp0
Vcylx63y
p1
I1
sVdixv57a
p2
I1
s.(dp0
Vcylx63y
p1
I1
sVdixv57a
p2
I1
s.(dp0
Vdj9fo0u
p1
I1
sVcylx63y
p2
I1
s.(dp0
Vdj9fo0u
p1
I1
sVcylx63y
p2
I1
s.(dp0
Vcylx63y
p1
I1
sVdjrr6ju
p2
I1
s.(dp0
Vcylx63y
p1
I1
sVdkfs1am
p2
I1
s.(dp0
Vcylx63y
p1
I1
sVdkfs1am
p2
I1
s.(dp0
Vcylx63y
p1
I1
sVdkfs1am
p2
I1
s.(dp0
Vcylx63y
p1
I1
sVdkfs1am
p2
I1
s.(dp0
Vcylx63y
p1
I1
sVdkj1wwj
p2
I1
s.(dp0
Vcylx63y
p1
I1
sVdkj1zm4
p2
I1
s.(dp0
Vcylx63y
p1
I1
sVdkj20vb
p2
I1
s.