(dp0
Vd1acmef
p1
I1
s.(dp0
Vd1acmef
p1
I1
sVd4l3e4f
p2
I1
s.(dp0
Vd4latpt
p1
I1
sVd1acmef
p2
I1
s.(dp0
Vd1acmef
p1
I1
sVd7kzfzf
p2
I1
s.(dp0
Vdfnjeif
p1
I1
sVd1acmef
p2
I1
s.(dp0
Vd1acmef
p1
I1
sVdfs444p
p2
I1
s.(dp0
Vd1acmef
p1
I1
sVdh3ubnp
p2
I1
s.