(dp0
Vd01kci2
p1
I1
s.(dp0
Vd01kci2
p1
I1
sVd0ws176
p2
I1
s.(dp0
Vd01kci2
p1
I1
sVd20pjwo
p2
I1
s.(dp0
Vd01kci2
p1
I1
sVd35t91f
p2
I1
s.(dp0
Vd01kci2
p1
I1
sVd7isnmi
p2
I1
s.(dp0
Vd01kci2
p1
I1
sVd9zrd8x
p2
I1
s.(dp0
Vd01kci2
p1
I1
sVd9zrd8x
p2
I1
s.(dp0
Vd01kci2
p1
I1
sVda0gkzy
p2
I1
s.(dp0
Vd01kci2
p1
I1
sVda149g8
p2
I1
s.(dp0
Vd01kci2
p1
I1
sVdesw7w5
p2
I1
s.(dp0
Vd01kci2
p1
I1
sVdgrgrqx
p2
I1
s.