(dp0
Vd00ucrk
p1
I1
s.(dp0
Vd00ucrk
p1
I1
sVd03ko2z
p2
I1
s.(dp0
Vd00ucrk
p1
I1
sVd03rqxh
p2
I1
s.(dp0
Vd00ucrk
p1
I1
sVd17s7q1
p2
I1
s.(dp0
Vd00ucrk
p1
I1
sVd19g5xh
p2
I1
s.(dp0
Vd00ucrk
p1
I1
sVd1bwwho
p2
I1
s.(dp0
Vd00ucrk
p1
I1
sVd1ol2sx
p2
I1
s.(dp0
Vd00ucrk
p1
I1
sVd3esgc2
p2
I1
s.(dp0
Vd00ucrk
p1
I1
sVd3pgkvp
p2
I1
s.(dp0
Vd00ucrk
p1
I1
sVd413jvu
p2
I1
s.(dp0
Vd00ucrk
p1
I1
sVd5dposi
p2
I1
s.(dp0
Vd00ucrk
p1
I1
sVd6740u3
p2
I1
s.(dp0
Vd00ucrk
p1
I1
sVd7f9xy2
p2
I1
s.(dp0
Vd84sy36
p1
I1
sVd00ucrk
p2
I1
s.(dp0
Vd00ucrk
p1
I1
sVd8qen39
p2
I1
s.(dp0
Vd00ucrk
p1
I1
sVd9vwrbx
p2
I1
s.(dp0
Vdaa3xkh
p1
I1
sVd00ucrk
p2
I1
s.(dp0
Vd00ucrk
p1
I1
sVdab67ej
p2
I1
s.(dp0
Vdaynmsv
p1
I1
sVd00ucrk
p2
I1
s.(dp0
Vdaynmsv
p1
I1
sVd00ucrk
p2
I1
s.(dp0
Vdblbowh
p1
I1
sVd00ucrk
p2
I1
s.(dp0
Vd00ucrk
p1
I1
sVdcgh982
p2
I1
s.(dp0
Vdcotsx3
p1
I1
sVd00ucrk
p2
I1
s.(dp0
Vd00ucrk
p1
I1
sVdd1q57j
p2
I1
s.(dp0
Vd00ucrk
p1
I1
sVddmoh6p
p2
I1
s.(dp0
Vd00ucrk
p1
I1
sVddmoh6p
p2
I1
s.(dp0
Vddwivwt
p1
I1
sVd00ucrk
p2
I1
s.(dp0
Vdf0g3vp
p1
I1
sVd00ucrk
p2
I1
s.(dp0
Vd00ucrk
p1
I1
sVdfs571v
p2
I1
s.(dp0
Vdhbm00b
p1
I1
sVd00ucrk
p2
I1
s.(dp0
Vdicfbet
p1
I1
sVd00ucrk
p2
I1
s.(dp0
Vd00ucrk
p1
I1
sVdilq2jv
p2
I1
s.(dp0
Vd00ucrk
p1
I1
sVdk4p4lb
p2
I1
s.