(dp0
Vcyu32rj
p1
I1
s.(dp0
Vcz7rp7q
p1
I1
sVcyu32rj
p2
I1
s.(dp0
Vcz83k14
p1
I1
sVcyu32rj
p2
I1
s.(dp0
Vcz83k14
p1
I1
sVcyu32rj
p2
I1
s.(dp0
Vcyu32rj
p1
I1
sVcz83sl5
p2
I1
s.(dp0
Vcz8oq1v
p1
I1
sVcyu32rj
p2
I1
s.(dp0
Vczb43l5
p1
I1
sVcyu32rj
p2
I1
s.(dp0
Vcyu32rj
p1
I1
sVd0pfipe
p2
I1
s.(dp0
Vcyu32rj
p1
I1
sVd1d6f89
p2
I1
s.(dp0
Vd1dcwx6
p1
I1
sVcyu32rj
p2
I1
s.(dp0
Vd1wrr1t
p1
I1
sVcyu32rj
p2
I1
s.(dp0
Vd25nrsm
p1
I1
sVcyu32rj
p2
I1
s.(dp0
Vcyu32rj
p1
I1
sVd2e094x
p2
I1
s.(dp0
Vd2sj1fv
p1
I1
sVcyu32rj
p2
I1
s.(dp0
Vcyu32rj
p1
I1
sVd39vfsx
p2
I1
s.(dp0
Vd3cmdor
p1
I1
sVcyu32rj
p2
I1
s.(dp0
Vd3h4c7o
p1
I1
sVcyu32rj
p2
I1
s.(dp0
Vd3joeuj
p1
I1
sVcyu32rj
p2
I1
s.(dp0
Vd3ubuge
p1
I1
sVcyu32rj
p2
I1
s.(dp0
Vd3wawhu
p1
I1
sVcyu32rj
p2
I1
s.(dp0
Vcyu32rj
p1
I1
sVd6dyq0f
p2
I1
s.(dp0
Vcyu32rj
p1
I1
sVd7n85bv
p2
I1
s.(dp0
Vd8qew0g
p1
I1
sVcyu32rj
p2
I1
s.(dp0
Vd9q1a3g
p1
I1
sVcyu32rj
p2
I1
s.(dp0
Vcyu32rj
p1
I1
sVdaqfkkb
p2
I1
s.(dp0
Vcyu32rj
p1
I1
sVdarvznn
p2
I1
s.(dp0
Vcyu32rj
p1
I1
sVdb04w6v
p2
I1
s.(dp0
Vdbe3nzt
p1
I1
sVcyu32rj
p2
I1
s.(dp0
Vdby9uj3
p1
I1
sVcyu32rj
p2
I1
s.(dp0
Vdc1ab6p
p1
I1
sVcyu32rj
p2
I1
s.(dp0
Vdc1ab6p
p1
I1
sVcyu32rj
p2
I1
s.(dp0
Vdc4soxj
p1
I1
sVcyu32rj
p2
I1
s.(dp0
Vdc4soxj
p1
I1
sVcyu32rj
p2
I1
s.(dp0
Vcyu32rj
p1
I1
sVdcbevv6
p2
I1
s.(dp0
Vddipgo2
p1
I1
sVcyu32rj
p2
I1
s.(dp0
Vcyu32rj
p1
I1
sVddniglh
p2
I1
s.(dp0
Vcyu32rj
p1
I1
sVddxqtjl
p2
I1
s.(dp0
Vde14j2q
p1
I1
sVcyu32rj
p2
I1
s.(dp0
Vde14j2q
p1
I1
sVcyu32rj
p2
I1
s.(dp0
Vdeck3qc
p1
I1
sVcyu32rj
p2
I1
s.(dp0
Vcyu32rj
p1
I1
sVdei2mz2
p2
I1
s.(dp0
Vdell1c9
p1
I1
sVcyu32rj
p2
I1
s.(dp0
Vcyu32rj
p1
I1
sVderlki0
p2
I1
s.(dp0
Vdevkbfk
p1
I1
sVcyu32rj
p2
I1
s.(dp0
Vdeysb6w
p1
I1
sVcyu32rj
p2
I1
s.(dp0
Vdg4iwby
p1
I1
sVcyu32rj
p2
I1
s.(dp0
Vdgk3n7y
p1
I1
sVcyu32rj
p2
I1
s.(dp0
Vcyu32rj
p1
I1
sVdh2q4vk
p2
I1
s.(dp0
Vcyu32rj
p1
I1
sVdh2q4vk
p2
I1
s.(dp0
Vdjrnjk7
p1
I1
sVcyu32rj
p2
I1
s.(dp0
Vcyu32rj
p1
I1
sVdk531uu
p2
I1
s.(dp0
Vdkl1mi5
p1
I1
sVcyu32rj
p2
I1
s.(dp0
Vcyu32rj
p1
I1
sVdkpynnt
p2
I1
s.(dp0
Vcyu32rj
p1
I1
sVdmsa8xb
p2
I1
s.(dp0
Vdmvxfjb
p1
I1
sVcyu32rj
p2
I1
s.(dp0
Vdnbyeap
p1
I1
sVcyu32rj
p2
I1
s.(dp0
Vcyu32rj
p1
I1
sVdni7zj3
p2
I1
s.(dp0
Vcyu32rj
p1
I1
sVdnnebw1
p2
I1
s.