(dp0
Vcykpn82
p1
I1
s.(dp0
Vcykpn82
p1
I1
sVczh6dek
p2
I1
s.(dp0
Vcykpn82
p1
I1
sVd06cydj
p2
I1
s.(dp0
Vcykpn82
p1
I1
sVd1ampn0
p2
I1
s.(dp0
Vcykpn82
p1
I1
sVd27n2wa
p2
I1
s.(dp0
Vcykpn82
p1
I1
sVd2ktkot
p2
I1
s.(dp0
Vcykpn82
p1
I1
sVd2nwm7y
p2
I1
s.(dp0
Vcykpn82
p1
I1
sVd2ytvsb
p2
I1
s.(dp0
Vcykpn82
p1
I1
sVd3ifucg
p2
I1
s.(dp0
Vcykpn82
p1
I1
sVd3ifucg
p2
I1
s.(dp0
Vcykpn82
p1
I1
sVd4gscvg
p2
I1
s.(dp0
Vcykpn82
p1
I1
sVd9ygeut
p2
I1
s.(dp0
Vcykpn82
p1
I1
sVdaq3vpx
p2
I1
s.(dp0
Vcykpn82
p1
I1
sVdcydxnr
p2
I1
s.(dp0
Vcykpn82
p1
I1
sVde28h5c
p2
I1
s.(dp0
Vcykpn82
p1
I1
sVdf60pt5
p2
I1
s.(dp0
Vcykpn82
p1
I1
sVdggok1b
p2
I1
s.