(dp0
Vcynuqfq
p1
I1
s.(dp0
Vcynuqfq
p1
I1
sVcyxdqaa
p2
I1
s.(dp0
Vcynuqfq
p1
I1
sVcyza3gx
p2
I1
s.(dp0
Vcynuqfq
p1
I1
sVcyza3gx
p2
I1
s.(dp0
Vcynuqfq
p1
I1
sVcz6lhyd
p2
I1
s.(dp0
Vcynuqfq
p1
I1
sVcz6lhyd
p2
I1
s.(dp0
Vcynuqfq
p1
I1
sVcz6lhyd
p2
I1
s.(dp0
Vcynuqfq
p1
I1
sVczgyp69
p2
I1
s.(dp0
Vcynuqfq
p1
I1
sVczoelq8
p2
I1
s.(dp0
Vcynuqfq
p1
I1
sVd00e5f2
p2
I1
s.(dp0
Vcynuqfq
p1
I1
sVd00l3xj
p2
I1
s.(dp0
Vcynuqfq
p1
I1
sVd01kyyx
p2
I1
s.(dp0
Vcynuqfq
p1
I1
sVd03lvsp
p2
I1
s.(dp0
Vcynuqfq
p1
I1
sVd0ai88s
p2
I1
s.(dp0
Vcynuqfq
p1
I1
sVd0ha1yl
p2
I1
s.(dp0
Vcynuqfq
p1
I1
sVd0hj1i6
p2
I1
s.(dp0
Vcynuqfq
p1
I1
sVd0lr3io
p2
I1
s.(dp0
Vcynuqfq
p1
I1
sVd0ptn0e
p2
I1
s.(dp0
Vcynuqfq
p1
I1
sVd111tr6
p2
I1
s.(dp0
Vcynuqfq
p1
I1
sVd16wxy6
p2
I1
s.(dp0
Vcynuqfq
p1
I1
sVd16wxy6
p2
I1
s.(dp0
Vcynuqfq
p1
I1
sVd16wxy6
p2
I1
s.(dp0
Vcynuqfq
p1
I1
sVd16wxy6
p2
I1
s.(dp0
Vcynuqfq
p1
I1
sVd1e2fj7
p2
I1
s.(dp0
Vcynuqfq
p1
I1
sVd1krtc3
p2
I1
s.(dp0
Vcynuqfq
p1
I1
sVd1pf7hc
p2
I1
s.(dp0
Vcynuqfq
p1
I1
sVd1pxvo9
p2
I1
s.(dp0
Vcynuqfq
p1
I1
sVd1s18av
p2
I1
s.(dp0
Vcynuqfq
p1
I1
sVd20j3vr
p2
I1
s.(dp0
Vcynuqfq
p1
I1
sVd3hhhsb
p2
I1
s.(dp0
Vcynuqfq
p1
I1
sVd3i8m30
p2
I1
s.(dp0
Vcynuqfq
p1
I1
sVd3i8m30
p2
I1
s.(dp0
Vcynuqfq
p1
I1
sVd3i8m30
p2
I1
s.(dp0
Vcynuqfq
p1
I1
sVd3i8m30
p2
I1
s.(dp0
Vcynuqfq
p1
I1
sVd3msc9c
p2
I1
s.(dp0
Vcynuqfq
p1
I1
sVd3msc9c
p2
I1
s.(dp0
Vcynuqfq
p1
I1
sVd3msc9c
p2
I1
s.(dp0
Vcynuqfq
p1
I1
sVd3msc9c
p2
I1
s.(dp0
Vcynuqfq
p1
I1
sVd3msc9c
p2
I1
s.(dp0
Vcynuqfq
p1
I1
sVd3mvhq2
p2
I1
s.(dp0
Vcynuqfq
p1
I1
sVd3mvhq2
p2
I1
s.(dp0
Vcynuqfq
p1
I1
sVd3mw14r
p2
I1
s.(dp0
Vcynuqfq
p1
I1
sVd3mw14r
p2
I1
s.(dp0
Vcynuqfq
p1
I1
sVd3n0lbx
p2
I1
s.(dp0
Vcynuqfq
p1
I1
sVd3n0lbx
p2
I1
s.(dp0
Vcynuqfq
p1
I1
sVd3n7n0u
p2
I1
s.(dp0
Vcynuqfq
p1
I1
sVd3ncfza
p2
I1
s.(dp0
Vcynuqfq
p1
I1
sVd3ncfza
p2
I1
s.(dp0
Vcynuqfq
p1
I1
sVd3ncfza
p2
I1
s.(dp0
Vcynuqfq
p1
I1
sVd3zijus
p2
I1
s.(dp0
Vcynuqfq
p1
I1
sVd45y215
p2
I1
s.(dp0
Vcynuqfq
p1
I1
sVd4dz9bm
p2
I1
s.(dp0
Vcynuqfq
p1
I1
sVd4dz9bm
p2
I1
s.(dp0
Vcynuqfq
p1
I1
sVd4dz9bm
p2
I1
s.(dp0
Vcynuqfq
p1
I1
sVd4e3lkf
p2
I1
s.(dp0
Vcynuqfq
p1
I1
sVd4eafb2
p2
I1
s.(dp0
Vcynuqfq
p1
I1
sVd4edmek
p2
I1
s.(dp0
Vcynuqfq
p1
I1
sVd4h2ywa
p2
I1
s.(dp0
Vcynuqfq
p1
I1
sVd4l1ifq
p2
I1
s.(dp0
Vcynuqfq
p1
I1
sVd4ps6x7
p2
I1
s.(dp0
Vcynuqfq
p1
I1
sVd4ps6x7
p2
I1
s.(dp0
Vcynuqfq
p1
I1
sVd4ps6x7
p2
I1
s.(dp0
Vcynuqfq
p1
I1
sVd4ps6x7
p2
I1
s.(dp0
Vcynuqfq
p1
I1
sVd4ps6x7
p2
I1
s.(dp0
Vcynuqfq
p1
I1
sVd4ps6x7
p2
I1
s.(dp0
Vcynuqfq
p1
I1
sVd4ps6x7
p2
I1
s.(dp0
Vcynuqfq
p1
I1
sVd4ps6x7
p2
I1
s.(dp0
Vcynuqfq
p1
I1
sVd4rzzi7
p2
I1
s.(dp0
Vcynuqfq
p1
I1
sVd4rzzi7
p2
I1
s.(dp0
Vcynuqfq
p1
I1
sVd4rzzi7
p2
I1
s.(dp0
Vcynuqfq
p1
I1
sVd4rzzi7
p2
I1
s.(dp0
Vcynuqfq
p1
I1
sVd4rzzi7
p2
I1
s.(dp0
Vcynuqfq
p1
I1
sVd4rzzi7
p2
I1
s.(dp0
Vcynuqfq
p1
I1
sVd4w4zuf
p2
I1
s.(dp0
Vcynuqfq
p1
I1
sVd591g5x
p2
I1
s.(dp0
Vcynuqfq
p1
I1
sVd591g5x
p2
I1
s.(dp0
Vcynuqfq
p1
I1
sVd591g5x
p2
I1
s.(dp0
Vcynuqfq
p1
I1
sVd59j3y6
p2
I1
s.(dp0
Vcynuqfq
p1
I1
sVd59j3y6
p2
I1
s.(dp0
Vcynuqfq
p1
I1
sVd59j3y6
p2
I1
s.(dp0
Vcynuqfq
p1
I1
sVd59j3y6
p2
I1
s.(dp0
Vcynuqfq
p1
I1
sVd59j5wz
p2
I1
s.(dp0
Vcynuqfq
p1
I1
sVd59kang
p2
I1
s.(dp0
Vcynuqfq
p1
I1
sVd5hze1s
p2
I1
s.(dp0
Vcynuqfq
p1
I1
sVd5k8wuw
p2
I1
s.(dp0
Vcynuqfq
p1
I1
sVd5m0lgn
p2
I1
s.(dp0
Vcynuqfq
p1
I1
sVd5p7gdr
p2
I1
s.(dp0
Vcynuqfq
p1
I1
sVd5sp79i
p2
I1
s.(dp0
Vcynuqfq
p1
I1
sVd61mgmr
p2
I1
s.(dp0
Vcynuqfq
p1
I1
sVd61mgmr
p2
I1
s.(dp0
Vcynuqfq
p1
I1
sVd61mgmr
p2
I1
s.(dp0
Vcynuqfq
p1
I1
sVd623lun
p2
I1
s.(dp0
Vcynuqfq
p1
I1
sVd623lun
p2
I1
s.(dp0
Vcynuqfq
p1
I1
sVd623lun
p2
I1
s.(dp0
Vcynuqfq
p1
I1
sVd62gabi
p2
I1
s.(dp0
Vcynuqfq
p1
I1
sVd62gabi
p2
I1
s.(dp0
Vcynuqfq
p1
I1
sVd6l5jto
p2
I1
s.(dp0
Vcynuqfq
p1
I1
sVd6l5jto
p2
I1
s.(dp0
Vcynuqfq
p1
I1
sVd6lcz3z
p2
I1
s.(dp0
Vcynuqfq
p1
I1
sVd6lcz3z
p2
I1
s.(dp0
Vcynuqfq
p1
I1
sVd6ldrmx
p2
I1
s.(dp0
Vcynuqfq
p1
I1
sVd6licp5
p2
I1
s.(dp0
Vcynuqfq
p1
I1
sVd6lkxrm
p2
I1
s.(dp0
Vcynuqfq
p1
I1
sVd6lldtm
p2
I1
s.(dp0
Vcynuqfq
p1
I1
sVd6lroj8
p2
I1
s.(dp0
Vcynuqfq
p1
I1
sVd6lsmyr
p2
I1
s.(dp0
Vcynuqfq
p1
I1
sVd6lsmyr
p2
I1
s.(dp0
Vcynuqfq
p1
I1
sVd6lsmyr
p2
I1
s.(dp0
Vcy(dp0
Vcynuqfq
p1
I1
sVdovot1r
p2
I1
s.