(dp0
Vcyjof1u
p1
I1
s.(dp0
Vcyjof1u
p1
I1
sVcymrbxi
p2
I1
s.(dp0
Vcyjof1u
p1
I1
sVcysk3gg
p2
I1
s.(dp0
Vcyjof1u
p1
I1
sVcyusikz
p2
I1
s.(dp0
Vcyjof1u
p1
I1
sVcywevl9
p2
I1
s.(dp0
Vcyjof1u
p1
I1
sVcyya4ne
p2
I1
s.(dp0
Vcyjof1u
p1
I1
sVcyyffnc
p2
I1
s.(dp0
Vcyjof1u
p1
I1
sVcz0iudy
p2
I1
s.(dp0
Vcyjof1u
p1
I1
sVcz2ogde
p2
I1
s.(dp0
Vcyjof1u
p1
I1
sVcz2ogde
p2
I1
s.(dp0
Vcyjof1u
p1
I1
sVcz2ogde
p2
I1
s.(dp0
Vcyjof1u
p1
I1
sVcz2ogde
p2
I1
s.(dp0
Vcyjof1u
p1
I1
sVcz2ogde
p2
I1
s.(dp0
Vcyjof1u
p1
I1
sVcz2ogde
p2
I1
s.(dp0
Vcyjof1u
p1
I1
sVcz2ogde
p2
I1
s.(dp0
Vcyjof1u
p1
I1
sVcz2ogde
p2
I1
s.(dp0
Vcyjof1u
p1
I1
sVcz2v1xf
p2
I1
s.(dp0
Vcyjof1u
p1
I1
sVcz35poc
p2
I1
s.(dp0
Vcyjof1u
p1
I1
sVcz8lqg9
p2
I1
s.(dp0
Vcyjof1u
p1
I1
sVcz8lqg9
p2
I1
s.(dp0
Vcyjof1u
p1
I1
sVczcb3xu
p2
I1
s.(dp0
Vcyjof1u
p1
I1
sVczen3vn
p2
I1
s.(dp0
Vcyjof1u
p1
I1
sVczg3kuj
p2
I1
s.(dp0
Vcyjof1u
p1
I1
sVczgpd3s
p2
I1
s.(dp0
Vcyjof1u
p1
I1
sVczhxewo
p2
I1
s.(dp0
Vcyjof1u
p1
I1
sVczksti0
p2
I1
s.(dp0
Vcyjof1u
p1
I1
sVczksti0
p2
I1
s.(dp0
Vcyjof1u
p1
I1
sVczksti0
p2
I1
s.(dp0
Vcyjof1u
p1
I1
sVczkt8qv
p2
I1
s.(dp0
Vcyjof1u
p1
I1
sVczl3zvv
p2
I1
s.(dp0
Vcyjof1u
p1
I1
sVczl3zvv
p2
I1
s.(dp0
Vcyjof1u
p1
I1
sVczlvghd
p2
I1
s.(dp0
Vcyjof1u
p1
I1
sVczlw7v6
p2
I1
s.(dp0
Vcyjof1u
p1
I1
sVczlxf1q
p2
I1
s.(dp0
Vcyjof1u
p1
I1
sVczn1fef
p2
I1
s.(dp0
Vcyjof1u
p1
I1
sVczseigq
p2
I1
s.(dp0
Vcyjof1u
p1
I1
sVczsndv4
p2
I1
s.(dp0
Vcyjof1u
p1
I1
sVczt8l69
p2
I1
s.(dp0
Vcyjof1u
p1
I1
sVczww65a
p2
I1
s.(dp0
Vcyjof1u
p1
I1
sVczx3alr
p2
I1
s.(dp0
Vcyjof1u
p1
I1
sVczx6m4o
p2
I1
s.(dp0
Vcyjof1u
p1
I1
sVczxlomt
p2
I1
s.(dp0
Vcyjof1u
p1
I1
sVczxlomt
p2
I1
s.(dp0
Vcyjof1u
p1
I1
sVczyq298
p2
I1
s.(dp0
Vcyjof1u
p1
I1
sVczz8zw6
p2
I1
s.(dp0
Vcyjof1u
p1
I1
sVczzykii
p2
I1
s.(dp0
Vcyjof1u
p1
I1
sVd0129ci
p2
I1
s.(dp0
Vcyjof1u
p1
I1
sVd0129ci
p2
I1
s.(dp0
Vcyjof1u
p1
I1
sVd0129ci
p2
I1
s.(dp0
Vcyjof1u
p1
I1
sVd0129ci
p2
I1
s.(dp0
Vcyjof1u
p1
I1
sVd02gaik
p2
I1
s.(dp0
Vcyjof1u
p1
I1
sVd034wn9
p2
I1
s.(dp0
Vcyjof1u
p1
I1
sVd03g579
p2
I1
s.(dp0
Vcyjof1u
p1
I1
sVd03xs2c
p2
I1
s.(dp0
Vcyjof1u
p1
I1
sVd057cet
p2
I1
s.(dp0
Vcyjof1u
p1
I1
sVd09eg5z
p2
I1
s.(dp0
Vcyjof1u
p1
I1
sVd09eg5z
p2
I1
s.(dp0
Vcyjof1u
p1
I1
sVd09eg5z
p2
I1
s.(dp0
Vcyjof1u
p1
I1
sVd09eg5z
p2
I1
s.(dp0
Vcyjof1u
p1
I1
sVd09eg5z
p2
I1
s.(dp0
Vcyjof1u
p1
I1
sVd09h1nb
p2
I1
s.(dp0
Vcyjof1u
p1
I1
sVd09hql8
p2
I1
s.(dp0
Vcyjof1u
p1
I1
sVd0a7nxa
p2
I1
s.(dp0
Vcyjof1u
p1
I1
sVd0atf6k
p2
I1
s.(dp0
Vcyjof1u
p1
I1
sVd0chhu2
p2
I1
s.(dp0
Vcyjof1u
p1
I1
sVd0e9eq7
p2
I1
s.(dp0
Vcyjof1u
p1
I1
sVd0fcqjr
p2
I1
s.(dp0
Vcyjof1u
p1
I1
sVd0fuo39
p2
I1
s.(dp0
Vcyjof1u
p1
I1
sVd0ko2hz
p2
I1
s.(dp0
Vcyjof1u
p1
I1
sVd0n5lzl
p2
I1
s.(dp0
Vcyjof1u
p1
I1
sVd0ojf64
p2
I1
s.(dp0
Vcyjof1u
p1
I1
sVd0ojf64
p2
I1
s.(dp0
Vcyjof1u
p1
I1
sVd0ojf64
p2
I1
s.(dp0
Vcyjof1u
p1
I1
sVd0ojgr7
p2
I1
s.(dp0
Vcyjof1u
p1
I1
sVd0ojgr7
p2
I1
s.(dp0
Vcyjof1u
p1
I1
sVd0qmez8
p2
I1
s.(dp0
Vcyjof1u
p1
I1
sVd0xtkwj
p2
I1
s.(dp0
Vcyjof1u
p1
I1
sVd0yj7e6
p2
I1
s.(dp0
Vcyjof1u
p1
I1
sVd0yy62m
p2
I1
s.(dp0
Vcyjof1u
p1
I1
sVd1438b6
p2
I1
s.(dp0
Vcyjof1u
p1
I1
sVd14pl28
p2
I1
s.(dp0
Vcyjof1u
p1
I1
sVd14pl28
p2
I1
s.(dp0
Vcyjof1u
p1
I1
sVd14pl28
p2
I1
s.(dp0
Vcyjof1u
p1
I1
sVd18z6h9
p2
I1
s.(dp0
Vcyjof1u
p1
I1
sVd18zx00
p2
I1
s.(dp0
Vcyjof1u
p1
I1
sVd18zx00
p2
I1
s.(dp0
Vcyjof1u
p1
I1
sVd19cd2k
p2
I1
s.(dp0
Vcyjof1u
p1
I1
sVd1ci9or
p2
I1
s.(dp0
Vcyjof1u
p1
I1
sVd1iqoox
p2
I1
s.(dp0
Vcyjof1u
p1
I1
sVd1kpl5o
p2
I1
s.(dp0
Vcyjof1u
p1
I1
sVd1maqbo
p2
I1
s.(dp0
Vcyjof1u
p1
I1
sVd1mr3va
p2
I1
s.(dp0
Vcyjof1u
p1
I1
sVd1mra2x
p2
I1
s.(dp0
Vcyjof1u
p1
I1
sVd1o650s
p2
I1
s.(dp0
Vcyjof1u
p1
I1
sVd1p1z5k
p2
I1
s.(dp0
Vcyjof1u
p1
I1
sVd1p1z5k
p2
I1
s.(dp0
Vcyjof1u
p1
I1
sVd1p1z5k
p2
I1
s.(dp0
Vcyjof1u
p1
I1
sVd1p1z5k
p2
I1
s.(dp0
Vcyjof1u
p1
I1
sVd1pfeme
p2
I1
s.(dp0
Vcyjof1u
p1
I1
sVd1rkqzr
p2
I1
s.(dp0
Vcyjof1u
p1
I1
sVd1slfej
p2
I1
s.(dp0
Vcyjof1u
p1
I1
sVd1slfej
p2
I1
s.(dp0
Vcyjof1u
p1
I1
sVd1slfej
p2
I1
s.(dp0
Vcyjof1u
p1
I1
sVd1zms0l
p2
I1
s.(dp0
Vcyjof1u
p1
I1
sVd217k9g
p2
I1
s.(dp0
Vcyjof1u
p1
I1
sVd22wgx5
p2
I1
s.(dp0
Vcyjof1u
p1
I1
sVd24eauw
p2
I1
s.(dp0
Vcyjof1u
p1
I1
sVd24sh2p
p2
I1
s.(dp0
Vcy(dp0
Vcyjof1u
p1
I1
sVdkudzmt
p2
I1
s.