(dp0
Vcymrlc8
p1
I1
s.(dp0
Vcymrlc8
p1
I2
s.(dp0
Vcymrlc8
p1
I2
s.(dp0
Vcymrlc8
p1
I1
sVcyq1d0n
p2
I1
s.(dp0
Vcymrlc8
p1
I1
sVczec7th
p2
I1
s.(dp0
Vd0ekehj
p1
I1
sVcymrlc8
p2
I1
s.(dp0
Vcymrlc8
p1
I1
sVd3iajag
p2
I1
s.(dp0
Vcymrlc8
p1
I1
sVd3x2f0h
p2
I1
s.(dp0
Vcymrlc8
p1
I1
sVd4rfbr2
p2
I1
s.(dp0
Vcymrlc8
p1
I1
sVd52yfez
p2
I1
s.(dp0
Vcymrlc8
p1
I1
sVd61hd5t
p2
I1
s.(dp0
Vcymrlc8
p1
I1
sVd61q4ws
p2
I1
s.(dp0
Vcymrlc8
p1
I1
sVdar7l12
p2
I1
s.(dp0
Vcymrlc8
p1
I1
sVdar7l12
p2
I1
s.(dp0
Vcymrlc8
p1
I1
sVdar7l12
p2
I1
s.(dp0
Vcymrlc8
p1
I1
sVdar7l12
p2
I1
s.(dp0
Vcymrlc8
p1
I1
sVdcwegu7
p2
I1
s.(dp0
Vdd4buuo
p1
I1
sVcymrlc8
p2
I1
s.(dp0
Vcymrlc8
p1
I1
sVddzqs9t
p2
I1
s.(dp0
Vcymrlc8
p1
I1
sVdkaewty
p2
I1
s.