(dp0
Vcyhzuz7
p1
I1
s.(dp0
Vcyhzuz7
p1
I1
sVcyi1n0l
p2
I1
s.(dp0
Vcyhzuz7
p1
I1
sVcyi3gc3
p2
I1
s.(dp0
Vcyhzuz7
p1
I1
sVcyi4c7j
p2
I1
s.(dp0
Vcyhzuz7
p1
I1
sVcyi4yhx
p2
I1
s.(dp0
Vcyhzuz7
p1
I1
sVcyi6apk
p2
I1
s.(dp0
Vcyhzuz7
p1
I1
sVcyi9mj4
p2
I1
s.(dp0
Vcyhzuz7
p1
I1
sVcyib0yn
p2
I1
s.(dp0
Vcyhzuz7
p1
I1
sVcyidu39
p2
I1
s.(dp0
Vcyhzuz7
p1
I1
sVcyiflkl
p2
I1
s.(dp0
Vcyhzuz7
p1
I1
sVcyigzhn
p2
I1
s.(dp0
Vcyhzuz7
p1
I1
sVcyii1ez
p2
I1
s.(dp0
Vcyhzuz7
p1
I1
sVcyiihrv
p2
I1
s.(dp0
Vcyhzuz7
p1
I1
sVcyijnl2
p2
I1
s.(dp0
Vcyhzuz7
p1
I1
sVcyikppb
p2
I1
s.(dp0
Vcyhzuz7
p1
I1
sVcyiluuk
p2
I1
s.(dp0
Vcyhzuz7
p1
I1
sVcyip3bo
p2
I1
s.(dp0
Vcyhzuz7
p1
I1
sVcyixirw
p2
I1
s.(dp0
Vcyhzuz7
p1
I1
sVcyiyowq
p2
I1
s.(dp0
Vcyhzuz7
p1
I1
sVcyiyowq
p2
I1
s.(dp0
Vcyhzuz7
p1
I1
sVcyiz0p3
p2
I1
s.(dp0
Vcyhzuz7
p1
I1
sVcyj4ekn
p2
I1
s.(dp0
Vcyhzuz7
p1
I1
sVcyj55t5
p2
I1
s.(dp0
Vcyhzuz7
p1
I1
sVcyj9pcj
p2
I1
s.(dp0
Vcyhzuz7
p1
I1
sVcyjaoqp
p2
I1
s.(dp0
Vcyhzuz7
p1
I1
sVcyjbadl
p2
I1
s.(dp0
Vcyhzuz7
p1
I1
sVcyjhv6t
p2
I1
s.(dp0
Vcyhzuz7
p1
I1
sVcyjk6sm
p2
I1
s.(dp0
Vcyhzuz7
p1
I1
sVcyjmb2q
p2
I1
s.(dp0
Vcyhzuz7
p1
I1
sVcyjq3a7
p2
I1
s.(dp0
Vcyhzuz7
p1
I1
sVcyjuw6r
p2
I1
s.(dp0
Vcyhzuz7
p1
I1
sVcyjuw6r
p2
I1
s.(dp0
Vcyhzuz7
p1
I1
sVcyjuw6r
p2
I1
s.(dp0
Vcyhzuz7
p1
I1
sVcyk0180
p2
I1
s.(dp0
Vcyhzuz7
p1
I1
sVcyk0bou
p2
I1
s.(dp0
Vcyhzuz7
p1
I1
sVcyk2b1n
p2
I1
s.(dp0
Vcyk4w2y
p1
I1
sVcyhzuz7
p2
I1
s.(dp0
Vcyk7wm1
p1
I1
sVcyhzuz7
p2
I1
s.(dp0
Vcyhzuz7
p1
I1
sVcyk81gs
p2
I1
s.(dp0
Vcyhzuz7
p1
I1
sVcyk8er9
p2
I1
s.(dp0
Vcyhzuz7
p1
I1
sVcyk9j5o
p2
I1
s.(dp0
Vcyhzuz7
p1
I1
sVcyka2z1
p2
I1
s.(dp0
Vcyhzuz7
p1
I1
sVcykc66p
p2
I1
s.(dp0
Vcyhzuz7
p1
I1
sVcykf9eg
p2
I1
s.(dp0
Vcykh2ue
p1
I1
sVcyhzuz7
p2
I1
s.(dp0
Vcykk1tt
p1
I1
sVcyhzuz7
p2
I1
s.(dp0
Vcykmjqv
p1
I1
sVcyhzuz7
p2
I1
s.(dp0
Vcyhzuz7
p1
I1
sVcykneny
p2
I1
s.(dp0
Vcyhzuz7
p1
I1
sVcyko3x4
p2
I1
s.(dp0
Vcyhzuz7
p1
I1
sVcyko3x4
p2
I1
s.(dp0
Vcykosdj
p1
I1
sVcyhzuz7
p2
I1
s.(dp0
Vcyhzuz7
p1
I1
sVcykpae0
p2
I1
s.(dp0
Vcyhzuz7
p1
I1
sVcyku4i1
p2
I1
s.(dp0
Vcyhzuz7
p1
I1
sVcykuhwm
p2
I1
s.(dp0
Vcyhzuz7
p1
I1
sVcykuhwm
p2
I1
s.(dp0
Vcyhzuz7
p1
I1
sVcyl1vpp
p2
I1
s.(dp0
Vcyhzuz7
p1
I1
sVcyl2zru
p2
I1
s.(dp0
Vcyhzuz7
p1
I1
sVcyl31bh
p2
I1
s.(dp0
Vcyhzuz7
p1
I1
sVcyl35cw
p2
I1
s.(dp0
Vcyhzuz7
p1
I1
sVcyl65d1
p2
I1
s.(dp0
Vcyhzuz7
p1
I1
sVcyl65d1
p2
I1
s.(dp0
Vcyhzuz7
p1
I1
sVcyl8uoh
p2
I1
s.(dp0
Vcyhzuz7
p1
I1
sVcyl99z9
p2
I1
s.(dp0
Vcyhzuz7
p1
I1
sVcyl99z9
p2
I1
s.(dp0
Vcyhzuz7
p1
I1
sVcyla1zy
p2
I1
s.(dp0
Vcyhzuz7
p1
I1
sVcyle13f
p2
I1
s.(dp0
Vcylgy7j
p1
I1
sVcyhzuz7
p2
I1
s.(dp0
Vcyhzuz7
p1
I1
sVcylhdvl
p2
I1
s.(dp0
Vcyhzuz7
p1
I1
sVcyli4o2
p2
I1
s.(dp0
Vcyhzuz7
p1
I1
sVcylj13x
p2
I1
s.(dp0
Vcyhzuz7
p1
I1
sVcyljclh
p2
I1
s.(dp0
Vcyhzuz7
p1
I1
sVcyljclh
p2
I1
s.(dp0
Vcyhzuz7
p1
I1
sVcyljk9o
p2
I1
s.(dp0
Vcyhzuz7
p1
I1
sVcylkb59
p2
I1
s.(dp0
Vcyhzuz7
p1
I1
sVcylkb59
p2
I1
s.(dp0
Vcyhzuz7
p1
I1
sVcylkhjv
p2
I1
s.(dp0
Vcyhzuz7
p1
I1
sVcylltid
p2
I1
s.(dp0
Vcyhzuz7
p1
I1
sVcylltid
p2
I1
s.(dp0
Vcyhzuz7
p1
I1
sVcyloeli
p2
I1
s.(dp0
Vcyhzuz7
p1
I1
sVcylq3g7
p2
I1
s.(dp0
Vcylr65t
p1
I1
sVcyhzuz7
p2
I1
s.(dp0
Vcyhzuz7
p1
I1
sVcylv5zy
p2
I1
s.(dp0
Vcyhzuz7
p1
I1
sVcylwunt
p2
I1
s.(dp0
Vcyhzuz7
p1
I1
sVcym0kxs
p2
I1
s.(dp0
Vcyhzuz7
p1
I1
sVcym3nqx
p2
I1
s.(dp0
Vcyhzuz7
p1
I1
sVcym3ok7
p2
I1
s.(dp0
Vcyhzuz7
p1
I1
sVcym3ok7
p2
I1
s.(dp0
Vcyhzuz7
p1
I1
sVcyme235
p2
I1
s.(dp0
Vcyhzuz7
p1
I1
sVcyme235
p2
I1
s.(dp0
Vcyhzuz7
p1
I1
sVcyme235
p2
I1
s.(dp0
Vcymgmk3
p1
I1
sVcyhzuz7
p2
I1
s.(dp0
Vcyhzuz7
p1
I1
sVcymk9gh
p2
I1
s.(dp0
Vcyhzuz7
p1
I1
sVcymoor7
p2
I1
s.(dp0
Vcyhzuz7
p1
I1
sVcymoor7
p2
I1
s.(dp0
Vcyhzuz7
p1
I1
sVcymr3vr
p2
I1
s.(dp0
Vcyhzuz7
p1
I1
sVcymyi2b
p2
I1
s.(dp0
Vcyhzuz7
p1
I1
sVcymz58g
p2
I1
s.(dp0
Vcyhzuz7
p1
I1
sVcymzar5
p2
I1
s.(dp0
Vcyhzuz7
p1
I1
sVcymztkd
p2
I1
s.(dp0
Vcyhzuz7
p1
I1
sVcyn1757
p2
I1
s.(dp0
Vcyhzuz7
p1
I1
sVcyn1a4j
p2
I1
s.(dp0
Vcyhzuz7
p1
I1
sVcyn1la7
p2
I1
s.(dp0
Vcyhzuz7
p1
I1
sVcyn5af7
p2
I1
s.(dp0
Vcyhzuz7
p1
I1
sVcyn5f9u
p2
I1
s.(dp0
Vcyhzuz7
p1
I1
sVcyn804o
p2
I1
s.(dp0
Vcyna17z
p1
I1
sVcyhzuz7
p2
I1
s.(dp0
Vcyhzuz7
p1
I1
sVcyncmwb
p2
I1
s.(dp0
Vcyhzuz7
p1
I1
sVcyndvdh
p2
I1
s.(dp0
Vcy(dp0
Vdp5ocb2
p1
I1
sVcyhzuz7
p2
I1
s.