(dp0
Vcyrtf3y
p1
I1
s.(dp0
Vczz0gv4
p1
I1
sVcyrtf3y
p2
I1
s.(dp0
Vd074y99
p1
I1
sVcyrtf3y
p2
I1
s.(dp0
Vd0rz7co
p1
I1
sVcyrtf3y
p2
I1
s.(dp0
Vd1mdlhq
p1
I1
sVcyrtf3y
p2
I1
s.(dp0
Vd3coznz
p1
I1
sVcyrtf3y
p2
I1
s.(dp0
Vd3coznz
p1
I1
sVcyrtf3y
p2
I1
s.(dp0
Vd4y1vzp
p1
I1
sVcyrtf3y
p2
I1
s.(dp0
Vd4y56fl
p1
I1
sVcyrtf3y
p2
I1
s.(dp0
Vd5xr831
p1
I1
sVcyrtf3y
p2
I1
s.(dp0
Vd7islax
p1
I1
sVcyrtf3y
p2
I1
s.(dp0
Vd8js63k
p1
I1
sVcyrtf3y
p2
I1
s.(dp0
Vd9coicp
p1
I1
sVcyrtf3y
p2
I1
s.(dp0
Vda0vrjk
p1
I1
sVcyrtf3y
p2
I1
s.(dp0
Vdagn3vl
p1
I1
sVcyrtf3y
p2
I1
s.(dp0
Vdaw3v22
p1
I1
sVcyrtf3y
p2
I1
s.(dp0
Vdaz3kns
p1
I1
sVcyrtf3y
p2
I1
s.(dp0
Vdbaxntf
p1
I1
sVcyrtf3y
p2
I1
s.(dp0
Vdc0a7rx
p1
I1
sVcyrtf3y
p2
I1
s.(dp0
Vdc5spk3
p1
I1
sVcyrtf3y
p2
I1
s.(dp0
Vdctb9el
p1
I1
sVcyrtf3y
p2
I1
s.(dp0
Vdddbb69
p1
I1
sVcyrtf3y
p2
I1
s.(dp0
Vddj83vx
p1
I1
sVcyrtf3y
p2
I1
s.(dp0
Vddj83vx
p1
I1
sVcyrtf3y
p2
I1
s.(dp0
Vddymahn
p1
I1
sVcyrtf3y
p2
I1
s.(dp0
Vddzj6yb
p1
I1
sVcyrtf3y
p2
I1
s.(dp0
Vdei1s8r
p1
I1
sVcyrtf3y
p2
I1
s.(dp0
Vdej6rgw
p1
I1
sVcyrtf3y
p2
I1
s.(dp0
Vdeltd8j
p1
I1
sVcyrtf3y
p2
I1
s.(dp0
Vdf7tkwo
p1
I1
sVcyrtf3y
p2
I1
s.(dp0
Vdfi55ou
p1
I1
sVcyrtf3y
p2
I1
s.(dp0
Vdflr60d
p1
I1
sVcyrtf3y
p2
I1
s.(dp0
Vdft142i
p1
I1
sVcyrtf3y
p2
I1
s.(dp0
Vdg5nzoq
p1
I1
sVcyrtf3y
p2
I1
s.(dp0
Vdg5nzoq
p1
I1
sVcyrtf3y
p2
I1
s.(dp0
Vdg5w597
p1
I1
sVcyrtf3y
p2
I1
s.(dp0
Vdg99d18
p1
I1
sVcyrtf3y
p2
I1
s.(dp0
Vdgzkl6y
p1
I1
sVcyrtf3y
p2
I1
s.(dp0
Vdgzkl6y
p1
I1
sVcyrtf3y
p2
I1
s.(dp0
Vdh4kqkb
p1
I1
sVcyrtf3y
p2
I1
s.(dp0
Vdhbvkxz
p1
I1
sVcyrtf3y
p2
I1
s.(dp0
Vdi5j4sd
p1
I1
sVcyrtf3y
p2
I1
s.(dp0
Vdj3jzg8
p1
I1
sVcyrtf3y
p2
I1
s.(dp0
Vdksldi1
p1
I1
sVcyrtf3y
p2
I1
s.