(dp0
Vcyqyepz
p1
I1
s.(dp0
Vcyzlh8j
p1
I1
sVcyqyepz
p2
I1
s.(dp0
Vcz12lcz
p1
I1
sVcyqyepz
p2
I1
s.(dp0
Vcz45l1z
p1
I1
sVcyqyepz
p2
I1
s.(dp0
Vcyqyepz
p1
I1
sVczb3ha1
p2
I1
s.(dp0
Vczch81r
p1
I1
sVcyqyepz
p2
I1
s.(dp0
Vczgaeyf
p1
I1
sVcyqyepz
p2
I1
s.(dp0
Vczkatfq
p1
I1
sVcyqyepz
p2
I1
s.(dp0
Vd016ka2
p1
I1
sVcyqyepz
p2
I1
s.(dp0
Vcyqyepz
p1
I1
sVd0f9fkv
p2
I1
s.(dp0
Vd0yk5w1
p1
I1
sVcyqyepz
p2
I1
s.(dp0
Vd3aoq5n
p1
I1
sVcyqyepz
p2
I1
s.(dp0
Vd3f8csz
p1
I1
sVcyqyepz
p2
I1
s.(dp0
Vd3zfq4n
p1
I1
sVcyqyepz
p2
I1
s.(dp0
Vd4713ib
p1
I1
sVcyqyepz
p2
I1
s.(dp0
Vd4misqg
p1
I1
sVcyqyepz
p2
I1
s.(dp0
Vd4p8sat
p1
I1
sVcyqyepz
p2
I1
s.(dp0
Vd5chm98
p1
I1
sVcyqyepz
p2
I1
s.(dp0
Vd5syh38
p1
I1
sVcyqyepz
p2
I1
s.(dp0
Vd65t1s4
p1
I1
sVcyqyepz
p2
I1
s.(dp0
Vd68t8vs
p1
I1
sVcyqyepz
p2
I1
s.(dp0
Vd68u0hz
p1
I1
sVcyqyepz
p2
I1
s.(dp0
Vd7c4vjw
p1
I1
sVcyqyepz
p2
I1
s.(dp0
Vd7gqjxt
p1
I1
sVcyqyepz
p2
I1
s.(dp0
Vd82yupb
p1
I1
sVcyqyepz
p2
I1
s.(dp0
Vd8319zf
p1
I1
sVcyqyepz
p2
I1
s.(dp0
Vd8319zf
p1
I1
sVcyqyepz
p2
I1
s.(dp0
Vd8gbboy
p1
I1
sVcyqyepz
p2
I1
s.(dp0
Vd9cpoe9
p1
I1
sVcyqyepz
p2
I1
s.(dp0
Vd9mwube
p1
I1
sVcyqyepz
p2
I1
s.(dp0
Vd9pc0xg
p1
I1
sVcyqyepz
p2
I1
s.(dp0
Vd9pc0xg
p1
I1
sVcyqyepz
p2
I1
s.(dp0
Vd9pc0xg
p1
I1
sVcyqyepz
p2
I1
s.(dp0
Vcyqyepz
p1
I1
sVd9wbixo
p2
I1
s.(dp0
Vd9wbq3c
p1
I1
sVcyqyepz
p2
I1
s.(dp0
Vd9wcq17
p1
I1
sVcyqyepz
p2
I1
s.(dp0
Vdaokvwc
p1
I1
sVcyqyepz
p2
I1
s.(dp0
Vdaxgmgt
p1
I1
sVcyqyepz
p2
I1
s.(dp0
Vdbfov3q
p1
I1
sVcyqyepz
p2
I1
s.(dp0
Vdblgbw2
p1
I1
sVcyqyepz
p2
I1
s.(dp0
Vdbwdn8f
p1
I1
sVcyqyepz
p2
I1
s.(dp0
Vcyqyepz
p1
I1
sVdc3uh4y
p2
I1
s.(dp0
Vdd4uy9a
p1
I1
sVcyqyepz
p2
I1
s.(dp0
Vddgfy58
p1
I1
sVcyqyepz
p2
I1
s.(dp0
Vddgfy58
p1
I1
sVcyqyepz
p2
I1
s.(dp0
Vddgfy58
p1
I1
sVcyqyepz
p2
I1
s.(dp0
Vdek1ow3
p1
I1
sVcyqyepz
p2
I1
s.(dp0
Vdek1ow3
p1
I1
sVcyqyepz
p2
I1
s.(dp0
Vdesos0b
p1
I1
sVcyqyepz
p2
I1
s.(dp0
Vdesos0b
p1
I1
sVcyqyepz
p2
I1
s.(dp0
Vdff4r3f
p1
I1
sVcyqyepz
p2
I1
s.(dp0
Vdgpnzac
p1
I1
sVcyqyepz
p2
I1
s.(dp0
Vcyqyepz
p1
I1
sVdgy1faj
p2
I1
s.(dp0
Vdh7kw4b
p1
I1
sVcyqyepz
p2
I1
s.(dp0
Vdhdold2
p1
I1
sVcyqyepz
p2
I1
s.(dp0
Vdhpkjhn
p1
I1
sVcyqyepz
p2
I1
s.(dp0
Vdi89js8
p1
I1
sVcyqyepz
p2
I1
s.(dp0
Vdj4qrai
p1
I1
sVcyqyepz
p2
I1
s.(dp0
Vcyqyepz
p1
I1
sVdmzfklp
p2
I1
s.(dp0
Vdn1hj1g
p1
I1
sVcyqyepz
p2
I1
s.(dp0
Vdn1hj1g
p1
I1
sVcyqyepz
p2
I1
s.(dp0
Vcyqyepz
p1
I1
sVdnyarb8
p2
I1
s.