(dp0
Vd0b6tu4
p1
I1
s.(dp0
Vd0b6tu4
p1
I2
s.(dp0
Vd2w7ilr
p1
I1
sVd0b6tu4
p2
I1
s.(dp0
Vd0b6tu4
p1
I1
sVd36bmsg
p2
I1
s.(dp0
Vd4glwrq
p1
I1
sVd0b6tu4
p2
I1
s.(dp0
Vd4yg8f9
p1
I1
sVd0b6tu4
p2
I1
s.(dp0
Vd7nu0ko
p1
I1
sVd0b6tu4
p2
I1
s.(dp0
Vd815nyx
p1
I1
sVd0b6tu4
p2
I1
s.(dp0
Vdb547v0
p1
I1
sVd0b6tu4
p2
I1
s.(dp0
Vd0b6tu4
p1
I1
sVdc5n4a3
p2
I1
s.(dp0
Vdd5bo5p
p1
I1
sVd0b6tu4
p2
I1
s.(dp0
Vd0b6tu4
p1
I1
sVdejqmjy
p2
I1
s.(dp0
Vd0b6tu4
p1
I1
sVdfon67m
p2
I1
s.(dp0
Vdhe4agn
p1
I1
sVd0b6tu4
p2
I1
s.(dp0
Vdhhage0
p1
I1
sVd0b6tu4
p2
I1
s.(dp0
Vdhhage0
p1
I1
sVd0b6tu4
p2
I1
s.(dp0
Vdidgzi7
p1
I1
sVd0b6tu4
p2
I1
s.(dp0
Vdidgzi7
p1
I1
sVd0b6tu4
p2
I1
s.(dp0
Vd0b6tu4
p1
I1
sVdj26luo
p2
I1
s.(dp0
Vd0b6tu4
p1
I1
sVdj26luo
p2
I1
s.(dp0
Vdjdl3gs
p1
I1
sVd0b6tu4
p2
I1
s.(dp0
Vd0b6tu4
p1
I1
sVdjhm55q
p2
I1
s.(dp0
Vdjlo70d
p1
I1
sVd0b6tu4
p2
I1
s.