(dp0
Vczjs6vq
p1
I1
s.(dp0
Vczuwq98
p1
I1
sVczjs6vq
p2
I1
s.(dp0
Vd07namp
p1
I1
sVczjs6vq
p2
I1
s.(dp0
Vd07namp
p1
I1
sVczjs6vq
p2
I1
s.(dp0
Vd0bo0et
p1
I1
sVczjs6vq
p2
I1
s.(dp0
Vd0jc4fv
p1
I1
sVczjs6vq
p2
I1
s.(dp0
Vczjs6vq
p1
I1
sVd125xl8
p2
I1
s.(dp0
Vd1scyls
p1
I1
sVczjs6vq
p2
I1
s.(dp0
Vd2a5btm
p1
I1
sVczjs6vq
p2
I1
s.(dp0
Vd6okd9a
p1
I1
sVczjs6vq
p2
I1
s.(dp0
Vd6okd9a
p1
I1
sVczjs6vq
p2
I1
s.(dp0
Vd8co6g1
p1
I1
sVczjs6vq
p2
I1
s.(dp0
Vczjs6vq
p1
I1
sVd9r83zb
p2
I1
s.(dp0
Vdb9685e
p1
I1
sVczjs6vq
p2
I1
s.