(dp0
Vd0n3lke
p1
I1
s.(dp0
Vd0n3lke
p1
I1
sVd624oif
p2
I1
s.(dp0
Vd88zy5a
p1
I1
sVd0n3lke
p2
I1
s.(dp0
Vd0n3lke
p1
I1
sVd8dotpp
p2
I1
s.(dp0
Vd8qujww
p1
I1
sVd0n3lke
p2
I1
s.(dp0
Vd9jq1rv
p1
I1
sVd0n3lke
p2
I1
s.(dp0
Vdachnp7
p1
I1
sVd0n3lke
p2
I1
s.(dp0
Vdg0aizy
p1
I1
sVd0n3lke
p2
I1
s.(dp0
Vd0n3lke
p1
I1
sVdi31tp9
p2
I1
s.(dp0
Vdn95ssq
p1
I1
sVd0n3lke
p2
I1
s.