(dp0
Vczgk8f7
p1
I1
s.(dp0
Vczh2hvb
p1
I1
sVczgk8f7
p2
I1
s.(dp0
Vd05tfew
p1
I1
sVczgk8f7
p2
I1
s.(dp0
Vd35fijr
p1
I1
sVczgk8f7
p2
I1
s.(dp0
Vczgk8f7
p1
I1
sVd3r8uui
p2
I1
s.(dp0
Vczgk8f7
p1
I1
sVd4prt5i
p2
I1
s.(dp0
Vczgk8f7
p1
I1
sVd6tcr6j
p2
I1
s.(dp0
Vdarpyvp
p1
I1
sVczgk8f7
p2
I1
s.(dp0
Vddbx38g
p1
I1
sVczgk8f7
p2
I1
s.(dp0
Vdhnajxc
p1
I1
sVczgk8f7
p2
I1
s.(dp0
Vdjphkev
p1
I1
sVczgk8f7
p2
I1
s.