(dp0
Vcyoife0
p1
I1
s.(dp0
Vcypmi8t
p1
I1
sVcyoife0
p2
I1
s.(dp0
Vcysshxi
p1
I1
sVcyoife0
p2
I1
s.(dp0
Vcysshxi
p1
I1
sVcyoife0
p2
I1
s.(dp0
Vcyssjcx
p1
I1
sVcyoife0
p2
I1
s.(dp0
Vcyssjcx
p1
I1
sVcyoife0
p2
I1
s.(dp0
Vcyssjcx
p1
I1
sVcyoife0
p2
I1
s.(dp0
Vcyssjcx
p1
I1
sVcyoife0
p2
I1
s.(dp0
Vcyssjcx
p1
I1
sVcyoife0
p2
I1
s.(dp0
Vcyuojsb
p1
I1
sVcyoife0
p2
I1
s.(dp0
Vcyw01ba
p1
I1
sVcyoife0
p2
I1
s.(dp0
Vcyw3ht4
p1
I1
sVcyoife0
p2
I1
s.(dp0
Vcywpdrm
p1
I1
sVcyoife0
p2
I1
s.(dp0
Vcywpdrm
p1
I1
sVcyoife0
p2
I1
s.(dp0
Vcyy31l2
p1
I1
sVcyoife0
p2
I1
s.(dp0
Vcyoife0
p1
I1
sVcyzlo81
p2
I1
s.(dp0
Vcz3h67x
p1
I1
sVcyoife0
p2
I1
s.(dp0
Vcz3h67x
p1
I1
sVcyoife0
p2
I1
s.(dp0
Vczaqup0
p1
I1
sVcyoife0
p2
I1
s.(dp0
Vczbmpzp
p1
I1
sVcyoife0
p2
I1
s.(dp0
Vczenemu
p1
I1
sVcyoife0
p2
I1
s.(dp0
Vczf8xqb
p1
I1
sVcyoife0
p2
I1
s.(dp0
Vcznk1hm
p1
I1
sVcyoife0
p2
I1
s.(dp0
Vcztbd3h
p1
I1
sVcyoife0
p2
I1
s.(dp0
Vcztbd3h
p1
I1
sVcyoife0
p2
I1
s.(dp0
Vd026m3t
p1
I1
sVcyoife0
p2
I1
s.(dp0
Vd070jg7
p1
I1
sVcyoife0
p2
I1
s.(dp0
Vd07yonn
p1
I1
sVcyoife0
p2
I1
s.(dp0
Vd0a7j6t
p1
I1
sVcyoife0
p2
I1
s.(dp0
Vd0eoq9g
p1
I1
sVcyoife0
p2
I1
s.(dp0
Vd0i87dr
p1
I1
sVcyoife0
p2
I1
s.(dp0
Vd0l1sv5
p1
I1
sVcyoife0
p2
I1
s.(dp0
Vd0md3jz
p1
I1
sVcyoife0
p2
I1
s.(dp0
Vd0zlpkk
p1
I1
sVcyoife0
p2
I1
s.(dp0
Vd10mlmh
p1
I1
sVcyoife0
p2
I1
s.(dp0
Vd17c90a
p1
I1
sVcyoife0
p2
I1
s.(dp0
Vd18kzvt
p1
I1
sVcyoife0
p2
I1
s.(dp0
Vd18n080
p1
I1
sVcyoife0
p2
I1
s.(dp0
Vd1ie65j
p1
I1
sVcyoife0
p2
I1
s.(dp0
Vcyoife0
p1
I1
sVd1t9je1
p2
I1
s.(dp0
Vd200ek7
p1
I1
sVcyoife0
p2
I1
s.(dp0
Vd258w3c
p1
I1
sVcyoife0
p2
I1
s.(dp0
Vd258w3c
p1
I1
sVcyoife0
p2
I1
s.(dp0
Vd29qxjk
p1
I1
sVcyoife0
p2
I1
s.(dp0
Vd2kknci
p1
I1
sVcyoife0
p2
I1
s.(dp0
Vd2kknci
p1
I1
sVcyoife0
p2
I1
s.(dp0
Vd2kknci
p1
I1
sVcyoife0
p2
I1
s.(dp0
Vd2nw55b
p1
I1
sVcyoife0
p2
I1
s.(dp0
Vd2o74fq
p1
I1
sVcyoife0
p2
I1
s.(dp0
Vd2r3wis
p1
I1
sVcyoife0
p2
I1
s.(dp0
Vd2tbyz0
p1
I1
sVcyoife0
p2
I1
s.(dp0
Vd358ajy
p1
I1
sVcyoife0
p2
I1
s.(dp0
Vd47282c
p1
I1
sVcyoife0
p2
I1
s.(dp0
Vd47282c
p1
I1
sVcyoife0
p2
I1
s.(dp0
Vd47282c
p1
I1
sVcyoife0
p2
I1
s.(dp0
Vd488h9g
p1
I1
sVcyoife0
p2
I1
s.(dp0
Vd48e1rn
p1
I1
sVcyoife0
p2
I1
s.(dp0
Vd4berk3
p1
I1
sVcyoife0
p2
I1
s.(dp0
Vd4ctdy1
p1
I1
sVcyoife0
p2
I1
s.(dp0
Vd4gbj9r
p1
I1
sVcyoife0
p2
I1
s.(dp0
Vd4svgb1
p1
I1
sVcyoife0
p2
I1
s.(dp0
Vd52k7vv
p1
I1
sVcyoife0
p2
I1
s.(dp0
Vd52k7vv
p1
I1
sVcyoife0
p2
I1
s.(dp0
Vd52lfyc
p1
I1
sVcyoife0
p2
I1
s.(dp0
Vd52lfyc
p1
I1
sVcyoife0
p2
I1
s.(dp0
Vd52lfyc
p1
I1
sVcyoife0
p2
I1
s.(dp0
Vd53cigo
p1
I1
sVcyoife0
p2
I1
s.(dp0
Vd53cigo
p1
I1
sVcyoife0
p2
I1
s.(dp0
Vd547n90
p1
I1
sVcyoife0
p2
I1
s.(dp0
Vd5dy7i7
p1
I1
sVcyoife0
p2
I1
s.(dp0
Vd5dy7i7
p1
I1
sVcyoife0
p2
I1
s.(dp0
Vd5dy7i7
p1
I1
sVcyoife0
p2
I1
s.(dp0
Vd5grwai
p1
I1
sVcyoife0
p2
I1
s.(dp0
Vcyoife0
p1
I1
sVd5qeow7
p2
I1
s.(dp0
Vd5r3h1a
p1
I1
sVcyoife0
p2
I1
s.(dp0
Vcyoife0
p1
I1
sVd5vti7e
p2
I1
s.(dp0
Vd6f23lw
p1
I1
sVcyoife0
p2
I1
s.(dp0
Vd6f23lw
p1
I1
sVcyoife0
p2
I1
s.(dp0
Vcyoife0
p1
I1
sVd6hewwc
p2
I1
s.(dp0
Vd6i1znx
p1
I1
sVcyoife0
p2
I1
s.(dp0
Vd6ingaw
p1
I1
sVcyoife0
p2
I1
s.(dp0
Vd6l8tlc
p1
I1
sVcyoife0
p2
I1
s.(dp0
Vd6l8tlc
p1
I1
sVcyoife0
p2
I1
s.(dp0
Vd6l8tlc
p1
I1
sVcyoife0
p2
I1
s.(dp0
Vd6ohmko
p1
I1
sVcyoife0
p2
I1
s.(dp0
Vd6p8d00
p1
I1
sVcyoife0
p2
I1
s.(dp0
Vd6p8d00
p1
I1
sVcyoife0
p2
I1
s.(dp0
Vcyoife0
p1
I1
sVd6pz3xs
p2
I1
s.(dp0
Vd71r08s
p1
I1
sVcyoife0
p2
I1
s.(dp0
Vd7syanb
p1
I1
sVcyoife0
p2
I1
s.(dp0
Vd89zsnp
p1
I1
sVcyoife0
p2
I1
s.(dp0
Vd9amnft
p1
I1
sVcyoife0
p2
I1
s.(dp0
Vd9de3pz
p1
I1
sVcyoife0
p2
I1
s.(dp0
Vcyoife0
p1
I1
sVd9eg77i
p2
I1
s.(dp0
Vd9vouqz
p1
I1
sVcyoife0
p2
I1
s.(dp0
Vd9vouqz
p1
I1
sVcyoife0
p2
I1
s.(dp0
Vda1i9np
p1
I1
sVcyoife0
p2
I1
s.(dp0
Vda1icek
p1
I1
sVcyoife0
p2
I1
s.(dp0
Vda1icek
p1
I1
sVcyoife0
p2
I1
s.(dp0
Vdb69lb0
p1
I1
sVcyoife0
p2
I1
s.(dp0
Vdbhr8vp
p1
I1
sVcyoife0
p2
I1
s.(dp0
Vdbwo738
p1
I1
sVcyoife0
p2
I1
s.(dp0
Vdc329hc
p1
I1
sVcyoife0
p2
I1
s.(dp0
Vcyoife0
p1
I1
sVdc3ofyn
p2
I1
s.(dp0
Vdcfw31q
p1
I1
sVcyoife0
p2
I1
s.(dp0
Vdcfw31q
p1
I1
sVcyoife0
p2
I1
s.(dp0
Vdckj2m0
p1
I1
sVcyoife0
p2
I1
s.(dp0
Vdckk8es
p1
I1
sVcyoife0
p2
I1
s.(dp0
Vdc(dp0
Vdkujkba
p1
I1
sVcyoife0
p2
I1
s.