(dp0
Vcyhys6x
p1
I1
s.(dp0
Vcyhys6x
p1
I1
sVcyhzyvi
p2
I1
s.(dp0
Vcyi6jcj
p1
I1
sVcyhys6x
p2
I1
s.(dp0
Vcyi6uq8
p1
I1
sVcyhys6x
p2
I1
s.(dp0
Vcyiiyk6
p1
I1
sVcyhys6x
p2
I1
s.(dp0
Vcyiiyk6
p1
I1
sVcyhys6x
p2
I1
s.(dp0
Vcyindf0
p1
I1
sVcyhys6x
p2
I1
s.(dp0
Vcyhys6x
p1
I1
sVcyiznix
p2
I1
s.(dp0
Vcyhys6x
p1
I1
sVcyiznix
p2
I1
s.(dp0
Vcyhys6x
p1
I1
sVcyj3am4
p2
I1
s.(dp0
Vcyj9vk5
p1
I1
sVcyhys6x
p2
I1
s.(dp0
Vcyj9vk5
p1
I1
sVcyhys6x
p2
I1
s.(dp0
Vcyj9vk5
p1
I1
sVcyhys6x
p2
I1
s.(dp0
Vcyjja7d
p1
I1
sVcyhys6x
p2
I1
s.(dp0
Vcyjuo3p
p1
I1
sVcyhys6x
p2
I1
s.(dp0
Vcyjuw6r
p1
I1
sVcyhys6x
p2
I1
s.(dp0
Vcyjwfi1
p1
I1
sVcyhys6x
p2
I1
s.(dp0
Vcyjwfi1
p1
I1
sVcyhys6x
p2
I1
s.(dp0
Vcyk28fk
p1
I1
sVcyhys6x
p2
I1
s.(dp0
Vcyhys6x
p1
I1
sVcyk2dpg
p2
I1
s.(dp0
Vcyk49xc
p1
I1
sVcyhys6x
p2
I1
s.(dp0
Vcyhys6x
p1
I1
sVcykcit1
p2
I1
s.(dp0
Vcyhys6x
p1
I1
sVcykcit1
p2
I1
s.(dp0
Vcykl3g4
p1
I1
sVcyhys6x
p2
I1
s.(dp0
Vcyklb17
p1
I1
sVcyhys6x
p2
I1
s.(dp0
Vcyhys6x
p1
I1
sVcykp8q2
p2
I1
s.(dp0
Vcykzyx5
p1
I1
sVcyhys6x
p2
I1
s.(dp0
Vcyl0q6v
p1
I1
sVcyhys6x
p2
I1
s.(dp0
Vcylk0by
p1
I1
sVcyhys6x
p2
I1
s.(dp0
Vcylk0by
p1
I1
sVcyhys6x
p2
I1
s.(dp0
Vcylk7ho
p1
I1
sVcyhys6x
p2
I1
s.(dp0
Vcyllbk9
p1
I1
sVcyhys6x
p2
I1
s.(dp0
Vcyloke5
p1
I1
sVcyhys6x
p2
I1
s.(dp0
Vcylq3g7
p1
I1
sVcyhys6x
p2
I1
s.(dp0
Vcym8zgj
p1
I1
sVcyhys6x
p2
I1
s.(dp0
Vcymddxs
p1
I1
sVcyhys6x
p2
I1
s.(dp0
Vcymmsdn
p1
I1
sVcyhys6x
p2
I1
s.(dp0
Vcyn09k7
p1
I1
sVcyhys6x
p2
I1
s.(dp0
Vcyhys6x
p1
I1
sVcyn6k3k
p2
I1
s.(dp0
Vcyhys6x
p1
I1
sVcyn6k3k
p2
I1
s.(dp0
Vcyhys6x
p1
I1
sVcynf8yu
p2
I1
s.(dp0
Vcyhys6x
p1
I1
sVcynf8yu
p2
I1
s.(dp0
Vcyhys6x
p1
I1
sVcynf8yu
p2
I1
s.(dp0
Vcyhys6x
p1
I1
sVcynf8yu
p2
I1
s.(dp0
Vcyhys6x
p1
I1
sVcynq4gq
p2
I1
s.(dp0
Vcyhys6x
p1
I1
sVcynrmwy
p2
I1
s.(dp0
Vcyhys6x
p1
I1
sVcynrmwy
p2
I1
s.(dp0
Vcyhys6x
p1
I1
sVcynrmwy
p2
I1
s.(dp0
Vcyhys6x
p1
I1
sVcynrmwy
p2
I1
s.(dp0
Vcyhys6x
p1
I1
sVcynroe8
p2
I1
s.(dp0
Vcyo90lv
p1
I1
sVcyhys6x
p2
I1
s.(dp0
Vcyof0xm
p1
I1
sVcyhys6x
p2
I1
s.(dp0
Vcyhys6x
p1
I1
sVcyog3md
p2
I1
s.(dp0
Vcyhys6x
p1
I1
sVcyog3md
p2
I1
s.(dp0
Vcyhys6x
p1
I1
sVcyog3md
p2
I1
s.(dp0
Vcyhys6x
p1
I1
sVcyog3md
p2
I1
s.(dp0
Vcyhys6x
p1
I1
sVcyog3md
p2
I1
s.(dp0
Vcyhys6x
p1
I1
sVcyog3md
p2
I1
s.(dp0
Vcyhys6x
p1
I1
sVcyogqje
p2
I1
s.(dp0
Vcyom6yf
p1
I1
sVcyhys6x
p2
I1
s.(dp0
Vcyhys6x
p1
I1
sVcyonta3
p2
I1
s.(dp0
Vcyhys6x
p1
I1
sVcyotubb
p2
I1
s.(dp0
Vcyhys6x
p1
I1
sVcyotubb
p2
I1
s.(dp0
Vcyhys6x
p1
I1
sVcyp1rf7
p2
I1
s.(dp0
Vcyp2uil
p1
I1
sVcyhys6x
p2
I1
s.(dp0
Vcyhys6x
p1
I1
sVcyp7bkp
p2
I1
s.(dp0
Vcyhys6x
p1
I1
sVcyp7h4q
p2
I1
s.(dp0
Vcyhys6x
p1
I1
sVcyp7p8w
p2
I1
s.(dp0
Vcyhys6x
p1
I1
sVcyp7p8w
p2
I1
s.(dp0
Vcyp7spu
p1
I1
sVcyhys6x
p2
I1
s.(dp0
Vcyp7v48
p1
I1
sVcyhys6x
p2
I1
s.(dp0
Vcyp96ne
p1
I1
sVcyhys6x
p2
I1
s.(dp0
Vcypb02n
p1
I1
sVcyhys6x
p2
I1
s.(dp0
Vcypbhtd
p1
I1
sVcyhys6x
p2
I1
s.(dp0
Vcyhys6x
p1
I1
sVcypf5wg
p2
I1
s.(dp0
Vcyhys6x
p1
I1
sVcypfbow
p2
I1
s.(dp0
Vcyhys6x
p1
I1
sVcypg4at
p2
I1
s.(dp0
Vcyhys6x
p1
I1
sVcypg4at
p2
I1
s.(dp0
Vcyphqut
p1
I1
sVcyhys6x
p2
I1
s.(dp0
Vcypm7lw
p1
I1
sVcyhys6x
p2
I1
s.(dp0
Vcyhys6x
p1
I1
sVcypsyjv
p2
I1
s.(dp0
Vcypxozk
p1
I1
sVcyhys6x
p2
I1
s.(dp0
Vcyhys6x
p1
I1
sVcypy1hj
p2
I1
s.(dp0
Vcyhys6x
p1
I1
sVcyqgq3v
p2
I1
s.(dp0
Vcyqhtmq
p1
I1
sVcyhys6x
p2
I1
s.(dp0
Vcyqi4qs
p1
I1
sVcyhys6x
p2
I1
s.(dp0
Vcyqienb
p1
I1
sVcyhys6x
p2
I1
s.(dp0
Vcyhys6x
p1
I1
sVcyrfadl
p2
I1
s.(dp0
Vcyhys6x
p1
I1
sVcyrvakq
p2
I1
s.(dp0
Vcyhys6x
p1
I1
sVcyrvakq
p2
I1
s.(dp0
Vcyhys6x
p1
I1
sVcyrz4en
p2
I1
s.(dp0
Vcyhys6x
p1
I1
sVcys3esl
p2
I1
s.(dp0
Vcyhys6x
p1
I1
sVcys3esl
p2
I1
s.(dp0
Vcyhys6x
p1
I1
sVcys3esl
p2
I1
s.(dp0
Vcyhys6x
p1
I1
sVcys4zla
p2
I1
s.(dp0
Vcyhys6x
p1
I1
sVcys4zla
p2
I1
s.(dp0
Vcys9omk
p1
I1
sVcyhys6x
p2
I1
s.(dp0
Vcyhys6x
p1
I1
sVcysd0y6
p2
I1
s.(dp0
Vcyhys6x
p1
I1
sVcysgari
p2
I1
s.(dp0
Vcysh6an
p1
I1
sVcyhys6x
p2
I1
s.(dp0
Vcysk44q
p1
I1
sVcyhys6x
p2
I1
s.(dp0
Vcysv93j
p1
I1
sVcyhys6x
p2
I1
s.(dp0
Vcysvuo1
p1
I1
sVcyhys6x
p2
I1
s.(dp0
Vcyhys6x
p1
I1
sVcysxdl1
p2
I1
s.(dp0
Vcytp0w7
p1
I1
sVcyhys6x
p2
I1
s.(dp0
Vcytp0w7
p1
I1
sVcyhys6x
p2
I1
s.(dp0
Vcyhys6x
p1
I1
sVcytu7sg
p2
I1
s.(dp0
Vcyhys6x
p1
I1
sVcytz2yk
p2
I1
s.(dp0
Vcy(dp0
Vdkwwi49
p1
I1
sVcyhys6x
p2
I1
s.