(dp0
Vcyyim6x
p1
I1
s.(dp0
Vcyyim6x
p1
I2
s.(dp0
Vcyyim6x
p1
I2
s.(dp0
Vcyyim6x
p1
I2
s.(dp0
Vcyyim6x
p1
I2
s.(dp0
Vcyyim6x
p1
I2
s.(dp0
Vcyyim6x
p1
I2
s.(dp0
Vd27khrl
p1
I1
sVcyyim6x
p2
I1
s.(dp0
Vcyyim6x
p1
I1
sVdayoe50
p2
I1
s.(dp0
Vcyyim6x
p1
I1
sVdayoe50
p2
I1
s.(dp0
Vdi104uo
p1
I1
sVcyyim6x
p2
I1
s.(dp0
Vdi104uo
p1
I1
sVcyyim6x
p2
I1
s.