(dp0
Vcz7g1js
p1
I1
s.(dp0
Vcz7xlwl
p1
I1
sVcz7g1js
p2
I1
s.(dp0
Vd10o140
p1
I1
sVcz7g1js
p2
I1
s.(dp0
Vcz7g1js
p1
I1
sVd25y948
p2
I1
s.(dp0
Vcz7g1js
p1
I1
sVd25y948
p2
I1
s.(dp0
Vcz7g1js
p1
I1
sVd2eq6re
p2
I1
s.(dp0
Vcz7g1js
p1
I1
sVd2eq6re
p2
I1
s.(dp0
Vd3x0ank
p1
I1
sVcz7g1js
p2
I1
s.(dp0
Vcz7g1js
p1
I1
sVd49ew2u
p2
I1
s.(dp0
Vd5vs7bo
p1
I1
sVcz7g1js
p2
I1
s.(dp0
Vd7m9se7
p1
I1
sVcz7g1js
p2
I1
s.(dp0
Vd7m9se7
p1
I1
sVcz7g1js
p2
I1
s.(dp0
Vcz7g1js
p1
I1
sVdg5uq4v
p2
I1
s.(dp0
Vcz7g1js
p1
I1
sVdg5uq4v
p2
I1
s.(dp0
Vcz7g1js
p1
I1
sVdg5uq4v
p2
I1
s.(dp0
Vdjgfjw3
p1
I1
sVcz7g1js
p2
I1
s.(dp0
Vcz7g1js
p1
I1
sVdk8tj81
p2
I1
s.(dp0
Vdn4oe2d
p1
I1
sVcz7g1js
p2
I1
s.(dp0
Vdn4oe2d
p1
I1
sVcz7g1js
p2
I1
s.(dp0
Vdnp76ss
p1
I1
sVcz7g1js
p2
I1
s.