(dp0
Vczcevkb
p1
I1
s.(dp0
Vczfvg2t
p1
I1
sVczcevkb
p2
I1
s.(dp0
Vczmo7f9
p1
I1
sVczcevkb
p2
I1
s.(dp0
Vczxnwan
p1
I1
sVczcevkb
p2
I1
s.(dp0
Vd046nam
p1
I1
sVczcevkb
p2
I1
s.(dp0
Vd05kohs
p1
I1
sVczcevkb
p2
I1
s.(dp0
Vd07wvpo
p1
I1
sVczcevkb
p2
I1
s.(dp0
Vd07wvpo
p1
I1
sVczcevkb
p2
I1
s.(dp0
Vd09onig
p1
I1
sVczcevkb
p2
I1
s.(dp0
Vd0gx9vc
p1
I1
sVczcevkb
p2
I1
s.(dp0
Vd0hek48
p1
I1
sVczcevkb
p2
I1
s.(dp0
Vd0uir0a
p1
I1
sVczcevkb
p2
I1
s.(dp0
Vd0uir0a
p1
I1
sVczcevkb
p2
I1
s.(dp0
Vd1b5odu
p1
I1
sVczcevkb
p2
I1
s.(dp0
Vd1b5odu
p1
I1
sVczcevkb
p2
I1
s.(dp0
Vd1b5odu
p1
I1
sVczcevkb
p2
I1
s.(dp0
Vd1b94ni
p1
I1
sVczcevkb
p2
I1
s.(dp0
Vd1b94ni
p1
I1
sVczcevkb
p2
I1
s.(dp0
Vd1b94ni
p1
I1
sVczcevkb
p2
I1
s.(dp0
Vd1bpi07
p1
I1
sVczcevkb
p2
I1
s.(dp0
Vd1bpi07
p1
I1
sVczcevkb
p2
I1
s.(dp0
Vd1h0un5
p1
I1
sVczcevkb
p2
I1
s.(dp0
Vd1h0un5
p1
I1
sVczcevkb
p2
I1
s.(dp0
Vd1lhqvn
p1
I1
sVczcevkb
p2
I1
s.(dp0
Vd1ofage
p1
I1
sVczcevkb
p2
I1
s.(dp0
Vd298572
p1
I1
sVczcevkb
p2
I1
s.(dp0
Vd2a9yno
p1
I1
sVczcevkb
p2
I1
s.(dp0
Vd2csg1c
p1
I1
sVczcevkb
p2
I1
s.(dp0
Vd2kahht
p1
I1
sVczcevkb
p2
I1
s.(dp0
Vd356cyz
p1
I1
sVczcevkb
p2
I1
s.(dp0
Vd356cyz
p1
I1
sVczcevkb
p2
I1
s.(dp0
Vd356cyz
p1
I1
sVczcevkb
p2
I1
s.(dp0
Vd36mbd4
p1
I1
sVczcevkb
p2
I1
s.(dp0
Vd36mbd4
p1
I1
sVczcevkb
p2
I1
s.(dp0
Vd36mbd4
p1
I1
sVczcevkb
p2
I1
s.(dp0
Vd3cbqae
p1
I1
sVczcevkb
p2
I1
s.(dp0
Vd3g7un9
p1
I1
sVczcevkb
p2
I1
s.(dp0
Vd3z89y2
p1
I1
sVczcevkb
p2
I1
s.(dp0
Vd5eg44i
p1
I1
sVczcevkb
p2
I1
s.(dp0
Vd5hyimg
p1
I1
sVczcevkb
p2
I1
s.(dp0
Vd5isbq3
p1
I1
sVczcevkb
p2
I1
s.(dp0
Vd5it848
p1
I1
sVczcevkb
p2
I1
s.(dp0
Vd5oi54m
p1
I1
sVczcevkb
p2
I1
s.(dp0
Vd5oi54m
p1
I1
sVczcevkb
p2
I1
s.(dp0
Vd5oi54m
p1
I1
sVczcevkb
p2
I1
s.(dp0
Vd6xgjer
p1
I1
sVczcevkb
p2
I1
s.(dp0
Vd792rxr
p1
I1
sVczcevkb
p2
I1
s.(dp0
Vd792rxr
p1
I1
sVczcevkb
p2
I1
s.(dp0
Vd797l5d
p1
I1
sVczcevkb
p2
I1
s.(dp0
Vd79tpuc
p1
I1
sVczcevkb
p2
I1
s.(dp0
Vd7eoyo9
p1
I1
sVczcevkb
p2
I1
s.(dp0
Vd7eta2u
p1
I1
sVczcevkb
p2
I1
s.(dp0
Vd7f4s9e
p1
I1
sVczcevkb
p2
I1
s.(dp0
Vd7f4s9e
p1
I1
sVczcevkb
p2
I1
s.(dp0
Vd7f4s9e
p1
I1
sVczcevkb
p2
I1
s.(dp0
Vd7f4s9e
p1
I1
sVczcevkb
p2
I1
s.(dp0
Vd7f67t3
p1
I1
sVczcevkb
p2
I1
s.(dp0
Vd7f67t3
p1
I1
sVczcevkb
p2
I1
s.(dp0
Vd7f9vly
p1
I1
sVczcevkb
p2
I1
s.(dp0
Vd7f9vly
p1
I1
sVczcevkb
p2
I1
s.(dp0
Vd7f9vly
p1
I1
sVczcevkb
p2
I1
s.(dp0
Vd7ju7hd
p1
I1
sVczcevkb
p2
I1
s.(dp0
Vd7l33bj
p1
I1
sVczcevkb
p2
I1
s.(dp0
Vd7z5ydz
p1
I1
sVczcevkb
p2
I1
s.(dp0
Vd8ly925
p1
I1
sVczcevkb
p2
I1
s.(dp0
Vd8ly925
p1
I1
sVczcevkb
p2
I1
s.(dp0
Vd8qcmbr
p1
I1
sVczcevkb
p2
I1
s.(dp0
Vd9mr3e2
p1
I1
sVczcevkb
p2
I1
s.(dp0
Vd9nypo6
p1
I1
sVczcevkb
p2
I1
s.(dp0
Vd9rlzl6
p1
I1
sVczcevkb
p2
I1
s.(dp0
Vda06c1y
p1
I1
sVczcevkb
p2
I1
s.(dp0
Vda7lbt7
p1
I1
sVczcevkb
p2
I1
s.(dp0
Vda9q51e
p1
I1
sVczcevkb
p2
I1
s.(dp0
Vdanuw88
p1
I1
sVczcevkb
p2
I1
s.(dp0
Vdb5pgxf
p1
I1
sVczcevkb
p2
I1
s.(dp0
Vdbcpf1t
p1
I1
sVczcevkb
p2
I1
s.(dp0
Vdbddez4
p1
I1
sVczcevkb
p2
I1
s.(dp0
Vdbfilsl
p1
I1
sVczcevkb
p2
I1
s.(dp0
Vdbfilsl
p1
I1
sVczcevkb
p2
I1
s.(dp0
Vdbhq2yt
p1
I1
sVczcevkb
p2
I1
s.(dp0
Vdbnaw3y
p1
I1
sVczcevkb
p2
I1
s.(dp0
Vdc3a2zk
p1
I1
sVczcevkb
p2
I1
s.(dp0
Vdcg6xop
p1
I1
sVczcevkb
p2
I1
s.(dp0
Vdco8u70
p1
I1
sVczcevkb
p2
I1
s.(dp0
Vdcpron9
p1
I1
sVczcevkb
p2
I1
s.(dp0
Vdcx5se8
p1
I1
sVczcevkb
p2
I1
s.(dp0
Vdcymyox
p1
I1
sVczcevkb
p2
I1
s.(dp0
Vdd5hqe1
p1
I1
sVczcevkb
p2
I1
s.(dp0
Vddhmt02
p1
I1
sVczcevkb
p2
I1
s.(dp0
Vddhmt02
p1
I1
sVczcevkb
p2
I1
s.(dp0
Vddmacpw
p1
I1
sVczcevkb
p2
I1
s.(dp0
Vddrqkdt
p1
I1
sVczcevkb
p2
I1
s.(dp0
Vde0r6u0
p1
I1
sVczcevkb
p2
I1
s.(dp0
Vde5aj0l
p1
I1
sVczcevkb
p2
I1
s.(dp0
Vde5aj0l
p1
I1
sVczcevkb
p2
I1
s.(dp0
Vde5c6tn
p1
I1
sVczcevkb
p2
I1
s.(dp0
Vdf3bb99
p1
I1
sVczcevkb
p2
I1
s.(dp0
Vdf3kpx6
p1
I1
sVczcevkb
p2
I1
s.(dp0
Vdfh1dgq
p1
I1
sVczcevkb
p2
I1
s.(dp0
Vdg7dao1
p1
I1
sVczcevkb
p2
I1
s.(dp0
Vdgggxx5
p1
I1
sVczcevkb
p2
I1
s.(dp0
Vdgq9jb2
p1
I1
sVczcevkb
p2
I1
s.(dp0
Vdgq9jb2
p1
I1
sVczcevkb
p2
I1
s.(dp0
Vdhd70ck
p1
I1
sVczcevkb
p2
I1
s.(dp0
Vdhfyzov
p1
I1
sVczcevkb
p2
I1
s.(dp0
Vdhfyzov
p1
I1
sVczcevkb
p2
I1
s.(dp0
Vdhfyzov
p1
I1
sVczcevkb
p2
I1
s.(dp0
Vdhhlg5e
p1
I1
sVczcevkb
p2
I1
s.(dp0
Vdh(dp0
Vdohz2vg
p1
I1
sVczcevkb
p2
I1
s.