(dp0
Vcyhwzs0
p1
I1
s.(dp0
Vcyhzuz7
p1
I1
sVcyhwzs0
p2
I1
s.(dp0
Vcyi49ju
p1
I1
sVcyhwzs0
p2
I1
s.(dp0
Vcyi5ont
p1
I1
sVcyhwzs0
p2
I1
s.(dp0
Vcyiabbm
p1
I1
sVcyhwzs0
p2
I1
s.(dp0
Vcyietzv
p1
I1
sVcyhwzs0
p2
I1
s.(dp0
Vcyiiihc
p1
I1
sVcyhwzs0
p2
I1
s.(dp0
Vcyhwzs0
p1
I1
sVcyiky3b
p2
I1
s.(dp0
Vcyio8jq
p1
I1
sVcyhwzs0
p2
I1
s.(dp0
Vcyhwzs0
p1
I1
sVcyiw680
p2
I1
s.(dp0
Vcyhwzs0
p1
I1
sVcyj2m8p
p2
I1
s.(dp0
Vcyjai5e
p1
I1
sVcyhwzs0
p2
I1
s.(dp0
Vcyhwzs0
p1
I1
sVcyjgpib
p2
I1
s.(dp0
Vcyhwzs0
p1
I1
sVcyjgpib
p2
I1
s.(dp0
Vcyhwzs0
p1
I1
sVcyjgpib
p2
I1
s.(dp0
Vcyhwzs0
p1
I1
sVcyjgpib
p2
I1
s.(dp0
Vcyhwzs0
p1
I1
sVcyjgpib
p2
I1
s.(dp0
Vcyjja7d
p1
I1
sVcyhwzs0
p2
I1
s.(dp0
Vcyjoc5q
p1
I1
sVcyhwzs0
p2
I1
s.(dp0
Vcyjqvou
p1
I1
sVcyhwzs0
p2
I1
s.(dp0
Vcyjrmwr
p1
I1
sVcyhwzs0
p2
I1
s.(dp0
Vcyjs4ey
p1
I1
sVcyhwzs0
p2
I1
s.(dp0
Vcyjyog5
p1
I1
sVcyhwzs0
p2
I1
s.(dp0
Vcykcl7h
p1
I1
sVcyhwzs0
p2
I1
s.(dp0
Vcyhwzs0
p1
I1
sVcykhjm2
p2
I1
s.(dp0
Vcykzvrb
p1
I1
sVcyhwzs0
p2
I1
s.(dp0
Vcyl5mh1
p1
I1
sVcyhwzs0
p2
I1
s.(dp0
Vcyhwzs0
p1
I1
sVcyl67om
p2
I1
s.(dp0
Vcyl7959
p1
I1
sVcyhwzs0
p2
I1
s.(dp0
Vcyhwzs0
p1
I1
sVcyl831e
p2
I1
s.(dp0
Vcyl9fev
p1
I1
sVcyhwzs0
p2
I1
s.(dp0
Vcyl9fev
p1
I1
sVcyhwzs0
p2
I1
s.(dp0
Vcyhwzs0
p1
I1
sVcyljc0y
p2
I1
s.(dp0
Vcyhwzs0
p1
I1
sVcylkhjv
p2
I1
s.(dp0
Vcylknaf
p1
I1
sVcyhwzs0
p2
I1
s.(dp0
Vcylnctg
p1
I1
sVcyhwzs0
p2
I1
s.(dp0
Vcylqr0n
p1
I1
sVcyhwzs0
p2
I1
s.(dp0
Vcylzbpe
p1
I1
sVcyhwzs0
p2
I1
s.(dp0
Vcym0h37
p1
I1
sVcyhwzs0
p2
I1
s.(dp0
Vcym0h37
p1
I1
sVcyhwzs0
p2
I1
s.(dp0
Vcymi51q
p1
I1
sVcyhwzs0
p2
I1
s.(dp0
Vcyhwzs0
p1
I1
sVcymrwrt
p2
I1
s.(dp0
Vcymx9gw
p1
I1
sVcyhwzs0
p2
I1
s.(dp0
Vcyn09k7
p1
I1
sVcyhwzs0
p2
I1
s.(dp0
Vcyhwzs0
p1
I1
sVcynczmp
p2
I1
s.(dp0
Vcynfluc
p1
I1
sVcyhwzs0
p2
I1
s.(dp0
Vcynfluc
p1
I1
sVcyhwzs0
p2
I1
s.(dp0
Vcyng12c
p1
I1
sVcyhwzs0
p2
I1
s.(dp0
Vcynocul
p1
I1
sVcyhwzs0
p2
I1
s.(dp0
Vcynq39p
p1
I1
sVcyhwzs0
p2
I1
s.(dp0
Vcynrwqq
p1
I1
sVcyhwzs0
p2
I1
s.(dp0
Vcynrwqq
p1
I1
sVcyhwzs0
p2
I1
s.(dp0
Vcynsale
p1
I1
sVcyhwzs0
p2
I1
s.(dp0
Vcyhwzs0
p1
I1
sVcynuck3
p2
I1
s.(dp0
Vcynv73y
p1
I1
sVcyhwzs0
p2
I1
s.(dp0
Vcynwmds
p1
I1
sVcyhwzs0
p2
I1
s.(dp0
Vcynx2nj
p1
I1
sVcyhwzs0
p2
I1
s.(dp0
Vcynycfc
p1
I1
sVcyhwzs0
p2
I1
s.(dp0
Vcynzen7
p1
I1
sVcyhwzs0
p2
I1
s.(dp0
Vcynzike
p1
I1
sVcyhwzs0
p2
I1
s.(dp0
Vcynzike
p1
I1
sVcyhwzs0
p2
I1
s.(dp0
Vcyhwzs0
p1
I1
sVcyo3l5m
p2
I1
s.(dp0
Vcyo9a38
p1
I1
sVcyhwzs0
p2
I1
s.(dp0
Vcyo9a38
p1
I1
sVcyhwzs0
p2
I1
s.(dp0
Vcyhwzs0
p1
I1
sVcyoam8h
p2
I1
s.(dp0
Vcyoaona
p1
I1
sVcyhwzs0
p2
I1
s.(dp0
Vcyock9j
p1
I1
sVcyhwzs0
p2
I1
s.(dp0
Vcyok4f9
p1
I1
sVcyhwzs0
p2
I1
s.(dp0
Vcyhwzs0
p1
I1
sVcyosn4a
p2
I1
s.(dp0
Vcyhwzs0
p1
I1
sVcyosn4a
p2
I1
s.(dp0
Vcyhwzs0
p1
I1
sVcyosn4a
p2
I1
s.(dp0
Vcyozgk3
p1
I1
sVcyhwzs0
p2
I1
s.(dp0
Vcyozzhz
p1
I1
sVcyhwzs0
p2
I1
s.(dp0
Vcyp0miq
p1
I1
sVcyhwzs0
p2
I1
s.(dp0
Vcyhwzs0
p1
I1
sVcyp1afp
p2
I1
s.(dp0
Vcyp5lo7
p1
I1
sVcyhwzs0
p2
I1
s.(dp0
Vcyhwzs0
p1
I1
sVcyp5odn
p2
I1
s.(dp0
Vcyhwzs0
p1
I1
sVcyp71bj
p2
I1
s.(dp0
Vcypa8ua
p1
I1
sVcyhwzs0
p2
I1
s.(dp0
Vcypd535
p1
I1
sVcyhwzs0
p2
I1
s.(dp0
Vcypd535
p1
I1
sVcyhwzs0
p2
I1
s.(dp0
Vcyhwzs0
p1
I1
sVcypgsmm
p2
I1
s.(dp0
Vcypi1zq
p1
I1
sVcyhwzs0
p2
I1
s.(dp0
Vcypk5ze
p1
I1
sVcyhwzs0
p2
I1
s.(dp0
Vcypkn7c
p1
I1
sVcyhwzs0
p2
I1
s.(dp0
Vcypodkc
p1
I1
sVcyhwzs0
p2
I1
s.(dp0
Vcyhwzs0
p1
I1
sVcyppojd
p2
I1
s.(dp0
Vcyhwzs0
p1
I1
sVcypt172
p2
I1
s.(dp0
Vcyptj8a
p1
I1
sVcyhwzs0
p2
I1
s.(dp0
Vcyptzcv
p1
I1
sVcyhwzs0
p2
I1
s.(dp0
Vcypydc5
p1
I1
sVcyhwzs0
p2
I1
s.(dp0
Vcypzfo3
p1
I1
sVcyhwzs0
p2
I1
s.(dp0
Vcyq20ts
p1
I1
sVcyhwzs0
p2
I1
s.(dp0
Vcyq20ts
p1
I1
sVcyhwzs0
p2
I1
s.(dp0
Vcyq20ts
p1
I1
sVcyhwzs0
p2
I1
s.(dp0
Vcyq5zn6
p1
I1
sVcyhwzs0
p2
I1
s.(dp0
Vcyhwzs0
p1
I1
sVcyq64cv
p2
I1
s.(dp0
Vcyqacgm
p1
I1
sVcyhwzs0
p2
I1
s.(dp0
Vcyqacgm
p1
I1
sVcyhwzs0
p2
I1
s.(dp0
Vcyqem62
p1
I1
sVcyhwzs0
p2
I1
s.(dp0
Vcyqhgdo
p1
I1
sVcyhwzs0
p2
I1
s.(dp0
Vcyhwzs0
p1
I1
sVcyqktdy
p2
I1
s.(dp0
Vcyhwzs0
p1
I1
sVcyqnu5x
p2
I1
s.(dp0
Vcyqpn13
p1
I1
sVcyhwzs0
p2
I1
s.(dp0
Vcyhwzs0
p1
I1
sVcyqrm20
p2
I1
s.(dp0
Vcyqtgtq
p1
I1
sVcyhwzs0
p2
I1
s.(dp0
Vcyqxd6p
p1
I1
sVcyhwzs0
p2
I1
s.(dp0
Vcyr3k10
p1
I1
sVcyhwzs0
p2
I1
s.(dp0
Vcy(dp0
Vcyhwzs0
p1
I1
sVdp5b3c9
p2
I1
s.