(dp0
Vcynb3uq
p1
I1
s.(dp0
Vcynb3uq
p1
I1
sVczhotpm
p2
I1
s.(dp0
Vcznun9n
p1
I1
sVcynb3uq
p2
I1
s.(dp0
Vcynb3uq
p1
I1
sVd9euhx9
p2
I1
s.(dp0
Vcynb3uq
p1
I1
sVd9euhx9
p2
I1
s.(dp0
Vcynb3uq
p1
I1
sVdarpl2x
p2
I1
s.(dp0
Vdc8fxt0
p1
I1
sVcynb3uq
p2
I1
s.(dp0
Vcynb3uq
p1
I1
sVdeuvgv9
p2
I1
s.(dp0
Vcynb3uq
p1
I1
sVdftgca8
p2
I1
s.(dp0
Vdgj5phc
p1
I1
sVcynb3uq
p2
I1
s.(dp0
Vcynb3uq
p1
I1
sVdhg9vvu
p2
I1
s.(dp0
Vdirb2pc
p1
I1
sVcynb3uq
p2
I1
s.(dp0
Vcynb3uq
p1
I1
sVdiwqszt
p2
I1
s.(dp0
Vcynb3uq
p1
I1
sVdjdh88k
p2
I1
s.(dp0
Vdjw12cv
p1
I1
sVcynb3uq
p2
I1
s.