(dp0
Vcyjwfx3
p1
I1
s.(dp0
Vcyjwfx3
p1
I1
sVcykktqa
p2
I1
s.(dp0
Vcyjwfx3
p1
I1
sVcykktqa
p2
I1
s.(dp0
Vcyjwfx3
p1
I1
sVcykrnpk
p2
I1
s.(dp0
Vcyjwfx3
p1
I1
sVcymow94
p2
I1
s.(dp0
Vcyqienb
p1
I1
sVcyjwfx3
p2
I1
s.(dp0
Vcyjwfx3
p1
I1
sVcz2nh13
p2
I1
s.(dp0
Vcyjwfx3
p1
I1
sVcz2nh13
p2
I1
s.(dp0
Vcyjwfx3
p1
I1
sVcz59kcy
p2
I1
s.(dp0
Vcyjwfx3
p1
I1
sVcz60d0g
p2
I1
s.(dp0
Vcyjwfx3
p1
I1
sVcz60d0g
p2
I1
s.(dp0
Vcz7s2gc
p1
I1
sVcyjwfx3
p2
I1
s.(dp0
Vcyjwfx3
p1
I1
sVcz8xai2
p2
I1
s.(dp0
Vcyjwfx3
p1
I1
sVczathzt
p2
I1
s.(dp0
Vcyjwfx3
p1
I1
sVczby367
p2
I1
s.(dp0
Vcyjwfx3
p1
I1
sVczc3hwl
p2
I1
s.(dp0
Vcyjwfx3
p1
I1
sVczdg5so
p2
I1
s.(dp0
Vczdg8b1
p1
I1
sVcyjwfx3
p2
I1
s.(dp0
Vcyjwfx3
p1
I1
sVczec31x
p2
I1
s.(dp0
Vcyjwfx3
p1
I1
sVczh1viq
p2
I1
s.(dp0
Vcyjwfx3
p1
I1
sVczjs06z
p2
I1
s.(dp0
Vcyjwfx3
p1
I1
sVczo6snq
p2
I1
s.(dp0
Vcyjwfx3
p1
I1
sVczru5lc
p2
I1
s.(dp0
Vcyjwfx3
p1
I1
sVd043dc9
p2
I1
s.(dp0
Vcyjwfx3
p1
I1
sVd07fvlq
p2
I1
s.(dp0
Vcyjwfx3
p1
I1
sVd0h8hle
p2
I1
s.(dp0
Vcyjwfx3
p1
I1
sVd0jxkg2
p2
I1
s.(dp0
Vcyjwfx3
p1
I1
sVd0n3nce
p2
I1
s.(dp0
Vcyjwfx3
p1
I1
sVd0slfd9
p2
I1
s.(dp0
Vcyjwfx3
p1
I1
sVd0sr95n
p2
I1
s.(dp0
Vcyjwfx3
p1
I1
sVd0sr95n
p2
I1
s.(dp0
Vcyjwfx3
p1
I1
sVd0tknzv
p2
I1
s.(dp0
Vcyjwfx3
p1
I1
sVd0uc7yi
p2
I1
s.(dp0
Vcyjwfx3
p1
I1
sVd0xdv37
p2
I1
s.(dp0
Vcyjwfx3
p1
I1
sVd0y2q9l
p2
I1
s.(dp0
Vcyjwfx3
p1
I1
sVd0yd2f6
p2
I1
s.(dp0
Vcyjwfx3
p1
I1
sVd12c38r
p2
I1
s.(dp0
Vcyjwfx3
p1
I1
sVd12vaei
p2
I1
s.(dp0
Vcyjwfx3
p1
I1
sVd1dhdc2
p2
I1
s.(dp0
Vcyjwfx3
p1
I1
sVd1eeki4
p2
I1
s.(dp0
Vcyjwfx3
p1
I1
sVd1fo1bt
p2
I1
s.(dp0
Vcyjwfx3
p1
I1
sVd1jkf7f
p2
I1
s.(dp0
Vcyjwfx3
p1
I1
sVd1k2rpr
p2
I1
s.(dp0
Vcyjwfx3
p1
I1
sVd1k2rpr
p2
I1
s.(dp0
Vcyjwfx3
p1
I1
sVd1mtf71
p2
I1
s.(dp0
Vcyjwfx3
p1
I1
sVd1p8gvy
p2
I1
s.(dp0
Vcyjwfx3
p1
I1
sVd1pzu64
p2
I1
s.(dp0
Vcyjwfx3
p1
I1
sVd1roleu
p2
I1
s.(dp0
Vd1ttyzo
p1
I1
sVcyjwfx3
p2
I1
s.(dp0
Vcyjwfx3
p1
I1
sVd1yl3z9
p2
I1
s.(dp0
Vd1yuxz8
p1
I1
sVcyjwfx3
p2
I1
s.(dp0
Vcyjwfx3
p1
I1
sVd20r5up
p2
I1
s.(dp0
Vcyjwfx3
p1
I1
sVd22iflo
p2
I1
s.(dp0
Vcyjwfx3
p1
I1
sVd230un6
p2
I1
s.(dp0
Vcyjwfx3
p1
I1
sVd2hmsj5
p2
I1
s.(dp0
Vcyjwfx3
p1
I1
sVd2mw91g
p2
I1
s.(dp0
Vcyjwfx3
p1
I1
sVd2nddvz
p2
I1
s.(dp0
Vcyjwfx3
p1
I1
sVd2tev3r
p2
I1
s.(dp0
Vcyjwfx3
p1
I1
sVd2w09ty
p2
I1
s.(dp0
Vcyjwfx3
p1
I1
sVd2w2p6j
p2
I1
s.(dp0
Vd2z1105
p1
I1
sVcyjwfx3
p2
I1
s.(dp0
Vcyjwfx3
p1
I1
sVd32j7zh
p2
I1
s.(dp0
Vd35qxmk
p1
I1
sVcyjwfx3
p2
I1
s.(dp0
Vcyjwfx3
p1
I1
sVd37moi7
p2
I1
s.(dp0
Vcyjwfx3
p1
I1
sVd3834cj
p2
I1
s.(dp0
Vcyjwfx3
p1
I1
sVd39umeu
p2
I1
s.(dp0
Vcyjwfx3
p1
I1
sVd3bexp6
p2
I1
s.(dp0
Vcyjwfx3
p1
I1
sVd3fexif
p2
I1
s.(dp0
Vcyjwfx3
p1
I1
sVd3fiwwo
p2
I1
s.(dp0
Vcyjwfx3
p1
I1
sVd3fiwwo
p2
I1
s.(dp0
Vcyjwfx3
p1
I1
sVd3k9s8a
p2
I1
s.(dp0
Vcyjwfx3
p1
I1
sVd3rc8j2
p2
I1
s.(dp0
Vcyjwfx3
p1
I1
sVd3xofn9
p2
I1
s.(dp0
Vcyjwfx3
p1
I1
sVd3xofn9
p2
I1
s.(dp0
Vcyjwfx3
p1
I1
sVd40kbaz
p2
I1
s.(dp0
Vcyjwfx3
p1
I1
sVd430ici
p2
I1
s.(dp0
Vcyjwfx3
p1
I1
sVd45nmft
p2
I1
s.(dp0
Vcyjwfx3
p1
I1
sVd48hxrz
p2
I1
s.(dp0
Vcyjwfx3
p1
I1
sVd48vnt0
p2
I1
s.(dp0
Vcyjwfx3
p1
I1
sVd4amim0
p2
I1
s.(dp0
Vcyjwfx3
p1
I1
sVd4bk0gh
p2
I1
s.(dp0
Vcyjwfx3
p1
I1
sVd4ee35r
p2
I1
s.(dp0
Vcyjwfx3
p1
I1
sVd4q2zub
p2
I1
s.(dp0
Vcyjwfx3
p1
I1
sVd4w9ow0
p2
I1
s.(dp0
Vcyjwfx3
p1
I1
sVd4y1vzp
p2
I1
s.(dp0
Vcyjwfx3
p1
I1
sVd4zmq20
p2
I1
s.(dp0
Vcyjwfx3
p1
I1
sVd52gq5r
p2
I1
s.(dp0
Vcyjwfx3
p1
I1
sVd52gw0x
p2
I1
s.(dp0
Vcyjwfx3
p1
I1
sVd57ojj9
p2
I1
s.(dp0
Vcyjwfx3
p1
I1
sVd598qtm
p2
I1
s.(dp0
Vcyjwfx3
p1
I1
sVd5c4e8h
p2
I1
s.(dp0
Vcyjwfx3
p1
I1
sVd5hb4wn
p2
I1
s.(dp0
Vcyjwfx3
p1
I1
sVd5krb0a
p2
I1
s.(dp0
Vcyjwfx3
p1
I1
sVd5obl5l
p2
I1
s.(dp0
Vcyjwfx3
p1
I1
sVd5obl5l
p2
I1
s.(dp0
Vcyjwfx3
p1
I1
sVd5oi8xt
p2
I1
s.(dp0
Vcyjwfx3
p1
I1
sVd5pudmg
p2
I1
s.(dp0
Vcyjwfx3
p1
I1
sVd5qbwif
p2
I1
s.(dp0
Vcyjwfx3
p1
I1
sVd5umrzc
p2
I1
s.(dp0
Vd5xg0l9
p1
I1
sVcyjwfx3
p2
I1
s.(dp0
Vcyjwfx3
p1
I1
sVd65p9a8
p2
I1
s.(dp0
Vcyjwfx3
p1
I1
sVd66rfiq
p2
I1
s.(dp0
Vcyjwfx3
p1
I1
sVd67q7hq
p2
I1
s.(dp0
Vd68oocf
p1
I1
sVcyjwfx3
p2
I1
s.(dp0
Vd69a6ev
p1
I1
sVcyjwfx3
p2
I1
s.(dp0
Vd6c2ruy
p1
I1
sVcyjwfx3
p2
I1
s.(dp0
Vcyjwfx3
p1
I1
sVd6iy2by
p2
I1
s.(dp0
Vcyjwfx3
p1
I1
sVd6jfpyo
p2
I1
s.(dp0
Vcy(dp0
Vcyjwfx3
p1
I1
sVdp5h9sk
p2
I1
s.