(dp0
Vcyll3a2
p1
I1
s.(dp0
Vcyll3a2
p1
I1
sVcypklqj
p2
I1
s.(dp0
Vcyv0cpk
p1
I1
sVcyll3a2
p2
I1
s.(dp0
Vcyxxg3u
p1
I1
sVcyll3a2
p2
I1
s.(dp0
Vcyypcdh
p1
I1
sVcyll3a2
p2
I1
s.(dp0
Vcz4xwi6
p1
I1
sVcyll3a2
p2
I1
s.(dp0
Vcz7k2oz
p1
I1
sVcyll3a2
p2
I1
s.(dp0
Vcz7k2oz
p1
I1
sVcyll3a2
p2
I1
s.(dp0
Vcz7o1mx
p1
I1
sVcyll3a2
p2
I1
s.(dp0
Vcyll3a2
p1
I1
sVczectdt
p2
I1
s.(dp0
Vczhvekj
p1
I1
sVcyll3a2
p2
I1
s.(dp0
Vcyll3a2
p1
I1
sVczigcih
p2
I1
s.(dp0
Vcyll3a2
p1
I1
sVczm1a39
p2
I1
s.(dp0
Vczomu78
p1
I1
sVcyll3a2
p2
I1
s.(dp0
Vd07779v
p1
I1
sVcyll3a2
p2
I1
s.(dp0
Vcyll3a2
p1
I1
sVd098z5x
p2
I1
s.(dp0
Vcyll3a2
p1
I1
sVd0ahifw
p2
I1
s.(dp0
Vcyll3a2
p1
I1
sVd0dsyl4
p2
I1
s.(dp0
Vcyll3a2
p1
I1
sVd0ios6m
p2
I1
s.(dp0
Vd0v19n2
p1
I1
sVcyll3a2
p2
I1
s.(dp0
Vd0wfy47
p1
I1
sVcyll3a2
p2
I1
s.(dp0
Vd0x8c4o
p1
I1
sVcyll3a2
p2
I1
s.(dp0
Vd111ni8
p1
I1
sVcyll3a2
p2
I1
s.(dp0
Vcyll3a2
p1
I1
sVd17sngo
p2
I1
s.(dp0
Vcyll3a2
p1
I1
sVd19rjx0
p2
I1
s.(dp0
Vd1bf7l5
p1
I1
sVcyll3a2
p2
I1
s.(dp0
Vd1c9nmd
p1
I1
sVcyll3a2
p2
I1
s.(dp0
Vcyll3a2
p1
I1
sVd1h1na4
p2
I1
s.(dp0
Vd1hp3d6
p1
I1
sVcyll3a2
p2
I1
s.(dp0
Vcyll3a2
p1
I1
sVd1lldyj
p2
I1
s.(dp0
Vd1rhmnl
p1
I1
sVcyll3a2
p2
I1
s.(dp0
Vd1rhmnl
p1
I1
sVcyll3a2
p2
I1
s.(dp0
Vd1rhmnl
p1
I1
sVcyll3a2
p2
I1
s.(dp0
Vd1smnxx
p1
I1
sVcyll3a2
p2
I1
s.(dp0
Vcyll3a2
p1
I1
sVd1vs5o2
p2
I1
s.(dp0
Vcyll3a2
p1
I1
sVd1vuvye
p2
I1
s.(dp0
Vcyll3a2
p1
I1
sVd28tys0
p2
I1
s.(dp0
Vd2ueiqy
p1
I1
sVcyll3a2
p2
I1
s.(dp0
Vd2ueiqy
p1
I1
sVcyll3a2
p2
I1
s.(dp0
Vd3sgw6d
p1
I1
sVcyll3a2
p2
I1
s.(dp0
Vd3vegfn
p1
I1
sVcyll3a2
p2
I1
s.(dp0
Vd3vegfn
p1
I1
sVcyll3a2
p2
I1
s.(dp0
Vd3vegfn
p1
I1
sVcyll3a2
p2
I1
s.(dp0
Vd3vegfn
p1
I1
sVcyll3a2
p2
I1
s.(dp0
Vd3vegfn
p1
I1
sVcyll3a2
p2
I1
s.(dp0
Vcyll3a2
p1
I1
sVd40fpwi
p2
I1
s.(dp0
Vcyll3a2
p1
I1
sVd41osot
p2
I1
s.(dp0
Vcyll3a2
p1
I1
sVd47k858
p2
I1
s.(dp0
Vd4mqftc
p1
I1
sVcyll3a2
p2
I1
s.(dp0
Vd4mqftc
p1
I1
sVcyll3a2
p2
I1
s.(dp0
Vcyll3a2
p1
I1
sVd4pxsl7
p2
I1
s.(dp0
Vcyll3a2
p1
I1
sVd4zm5pm
p2
I1
s.(dp0
Vd57tnf9
p1
I1
sVcyll3a2
p2
I1
s.(dp0
Vd59loui
p1
I1
sVcyll3a2
p2
I1
s.(dp0
Vcyll3a2
p1
I1
sVd5aug4s
p2
I1
s.(dp0
Vd5n391v
p1
I1
sVcyll3a2
p2
I1
s.(dp0
Vd5tgfjm
p1
I1
sVcyll3a2
p2
I1
s.(dp0
Vd6clvrz
p1
I1
sVcyll3a2
p2
I1
s.(dp0
Vcyll3a2
p1
I1
sVd6qfuwc
p2
I1
s.(dp0
Vcyll3a2
p1
I1
sVd6wdmnj
p2
I1
s.(dp0
Vd6wm3yh
p1
I1
sVcyll3a2
p2
I1
s.(dp0
Vcyll3a2
p1
I1
sVd71gzqu
p2
I1
s.(dp0
Vd727lmk
p1
I1
sVcyll3a2
p2
I1
s.(dp0
Vd7g61ej
p1
I1
sVcyll3a2
p2
I1
s.(dp0
Vd7g61ej
p1
I1
sVcyll3a2
p2
I1
s.(dp0
Vcyll3a2
p1
I1
sVd7nzeev
p2
I1
s.(dp0
Vd7s9sfo
p1
I1
sVcyll3a2
p2
I1
s.(dp0
Vd7wjsjo
p1
I1
sVcyll3a2
p2
I1
s.(dp0
Vd84rajn
p1
I1
sVcyll3a2
p2
I1
s.(dp0
Vd8cvzf3
p1
I1
sVcyll3a2
p2
I1
s.(dp0
Vd8dydjx
p1
I1
sVcyll3a2
p2
I1
s.(dp0
Vd8hde8k
p1
I1
sVcyll3a2
p2
I1
s.(dp0
Vcyll3a2
p1
I1
sVd8oe6cm
p2
I1
s.(dp0
Vd8ox0zo
p1
I1
sVcyll3a2
p2
I1
s.(dp0
Vd8yioxx
p1
I1
sVcyll3a2
p2
I1
s.(dp0
Vd8yioxx
p1
I1
sVcyll3a2
p2
I1
s.(dp0
Vcyll3a2
p1
I1
sVd8ymr1o
p2
I1
s.(dp0
Vcyll3a2
p1
I1
sVd8ymr1o
p2
I1
s.(dp0
Vcyll3a2
p1
I1
sVd8ymr1o
p2
I1
s.(dp0
Vcyll3a2
p1
I1
sVd98puhx
p2
I1
s.(dp0
Vd9qzkec
p1
I1
sVcyll3a2
p2
I1
s.(dp0
Vd9ty3j4
p1
I1
sVcyll3a2
p2
I1
s.(dp0
Vd9zazb0
p1
I1
sVcyll3a2
p2
I1
s.(dp0
Vcyll3a2
p1
I1
sVda33lp9
p2
I1
s.(dp0
Vda8hi5x
p1
I1
sVcyll3a2
p2
I1
s.(dp0
Vdbi0psb
p1
I1
sVcyll3a2
p2
I1
s.(dp0
Vdbipmiv
p1
I1
sVcyll3a2
p2
I1
s.(dp0
Vdbn0d7i
p1
I1
sVcyll3a2
p2
I1
s.(dp0
Vdbnfcey
p1
I1
sVcyll3a2
p2
I1
s.(dp0
Vdbo4xa9
p1
I1
sVcyll3a2
p2
I1
s.(dp0
Vcyll3a2
p1
I1
sVdc3szc1
p2
I1
s.(dp0
Vcyll3a2
p1
I1
sVdc86vny
p2
I1
s.(dp0
Vcyll3a2
p1
I1
sVdcatf6t
p2
I1
s.(dp0
Vdcq1s93
p1
I1
sVcyll3a2
p2
I1
s.(dp0
Vcyll3a2
p1
I1
sVdcq4jm0
p2
I1
s.(dp0
Vdczbu0m
p1
I1
sVcyll3a2
p2
I1
s.(dp0
Vddsoq96
p1
I1
sVcyll3a2
p2
I1
s.(dp0
Vcyll3a2
p1
I1
sVdduoq29
p2
I1
s.(dp0
Vde0n8sq
p1
I1
sVcyll3a2
p2
I1
s.(dp0
Vcyll3a2
p1
I1
sVdeaczo0
p2
I1
s.(dp0
Vdec4edh
p1
I1
sVcyll3a2
p2
I1
s.(dp0
Vcyll3a2
p1
I1
sVdf7t9da
p2
I1
s.(dp0
Vdfh4mra
p1
I1
sVcyll3a2
p2
I1
s.(dp0
Vdfq4h43
p1
I1
sVcyll3a2
p2
I1
s.(dp0
Vcyll3a2
p1
I1
sVdfqawsv
p2
I1
s.(dp0
Vdfthtqr
p1
I1
sVcyll3a2
p2
I1
s.(dp0
Vdfvmw16
p1
I1
sVcyll3a2
p2
I1
s.(dp0
Vcyll3a2
p1
I1
sVdg3wyor
p2
I1
s.(dp0
Vcy(dp0
Vcyll3a2
p1
I1
sVdp4llaq
p2
I1
s.