(dp0
Vczajfx6
p1
I1
s.(dp0
Vczajfx6
p1
I1
sVczhs40h
p2
I1
s.(dp0
Vd0pkq9h
p1
I1
sVczajfx6
p2
I1
s.(dp0
Vczajfx6
p1
I1
sVd0ruggv
p2
I1
s.(dp0
Vczajfx6
p1
I1
sVd1esn7v
p2
I1
s.(dp0
Vd1fshql
p1
I1
sVczajfx6
p2
I1
s.(dp0
Vczajfx6
p1
I1
sVd2h1pao
p2
I1
s.(dp0
Vczajfx6
p1
I1
sVd5z9384
p2
I1
s.(dp0
Vczajfx6
p1
I1
sVd61qg23
p2
I1
s.(dp0
Vczajfx6
p1
I1
sVd62gmit
p2
I1
s.(dp0
Vd6v2jva
p1
I1
sVczajfx6
p2
I1
s.(dp0
Vczajfx6
p1
I1
sVdar1kef
p2
I1
s.(dp0
Vczajfx6
p1
I1
sVdb02gx7
p2
I1
s.(dp0
Vdbvmhzn
p1
I1
sVczajfx6
p2
I1
s.(dp0
Vczajfx6
p1
I1
sVdg1ai8f
p2
I1
s.(dp0
Vczajfx6
p1
I1
sVdhdmp4s
p2
I1
s.