(dp0
Vcyi452c
p1
I1
s.(dp0
Vcyim32d
p1
I1
sVcyi452c
p2
I1
s.(dp0
Vcyi452c
p1
I1
sVcyirt8c
p2
I1
s.(dp0
Vcyi452c
p1
I1
sVcyit6br
p2
I1
s.(dp0
Vcyi452c
p1
I1
sVcyit6br
p2
I1
s.(dp0
Vcyjp4f2
p1
I1
sVcyi452c
p2
I1
s.(dp0
Vcyju54w
p1
I1
sVcyi452c
p2
I1
s.(dp0
Vcyi452c
p1
I1
sVcyk0180
p2
I1
s.(dp0
Vcyi452c
p1
I1
sVcykow5f
p2
I1
s.(dp0
Vcyi452c
p1
I1
sVcykzbho
p2
I1
s.(dp0
Vcyi452c
p1
I1
sVcylj2jj
p2
I1
s.(dp0
Vcyi452c
p1
I1
sVcynpxkh
p2
I1
s.(dp0
Vcynr3ot
p1
I1
sVcyi452c
p2
I1
s.(dp0
Vcynr3ot
p1
I1
sVcyi452c
p2
I1
s.(dp0
Vcyi452c
p1
I1
sVcyo1ne1
p2
I1
s.(dp0
Vcyi452c
p1
I1
sVcyopo9v
p2
I1
s.(dp0
Vcyi452c
p1
I1
sVcyopxu5
p2
I1
s.(dp0
Vcyi452c
p1
I1
sVcyopxu5
p2
I1
s.(dp0
Vcyi452c
p1
I1
sVcyopxu5
p2
I1
s.(dp0
Vcyi452c
p1
I1
sVcyopxu5
p2
I1
s.(dp0
Vcyi452c
p1
I1
sVcyoq2mx
p2
I1
s.(dp0
Vcyi452c
p1
I1
sVcyovlmm
p2
I1
s.(dp0
Vcyi452c
p1
I1
sVcyovlmm
p2
I1
s.(dp0
Vcyi452c
p1
I1
sVcyovlmm
p2
I1
s.(dp0
Vcyi452c
p1
I1
sVcyovlmm
p2
I1
s.(dp0
Vcyi452c
p1
I1
sVcyovlmm
p2
I1
s.(dp0
Vcyi452c
p1
I1
sVcyovlmm
p2
I1
s.(dp0
Vcyi452c
p1
I1
sVcyovlmm
p2
I1
s.(dp0
Vcyi452c
p1
I1
sVcyow1c1
p2
I1
s.(dp0
Vcyozhie
p1
I1
sVcyi452c
p2
I1
s.(dp0
Vcyi452c
p1
I1
sVcyozzhz
p2
I1
s.(dp0
Vcypx4tg
p1
I1
sVcyi452c
p2
I1
s.(dp0
Vcyi452c
p1
I1
sVcypzo5a
p2
I1
s.(dp0
Vcyi452c
p1
I1
sVcyq1a51
p2
I1
s.(dp0
Vcyi452c
p1
I1
sVcyq5zn6
p2
I1
s.(dp0
Vcyi452c
p1
I1
sVcyrrxwb
p2
I1
s.(dp0
Vcyi452c
p1
I1
sVcys7z6v
p2
I1
s.(dp0
Vcyi452c
p1
I1
sVcys9381
p2
I1
s.(dp0
Vcyi452c
p1
I1
sVcysb0t5
p2
I1
s.(dp0
Vcyi452c
p1
I1
sVcysepyk
p2
I1
s.(dp0
Vcyswqoe
p1
I1
sVcyi452c
p2
I1
s.(dp0
Vcysy36b
p1
I1
sVcyi452c
p2
I1
s.(dp0
Vcyi452c
p1
I1
sVcyszghr
p2
I1
s.(dp0
Vcyi452c
p1
I1
sVcyt8eve
p2
I1
s.(dp0
Vcyi452c
p1
I1
sVcytda62
p2
I1
s.(dp0
Vcyi452c
p1
I1
sVcytkbjx
p2
I1
s.(dp0
Vcyi452c
p1
I1
sVcytohop
p2
I1
s.(dp0
Vcyi452c
p1
I1
sVcyujb7c
p2
I1
s.(dp0
Vcyi452c
p1
I1
sVcyujb7c
p2
I1
s.(dp0
Vcyi452c
p1
I1
sVcyuoaq2
p2
I1
s.(dp0
Vcyi452c
p1
I1
sVcyux5bd
p2
I1
s.(dp0
Vcyv33e9
p1
I1
sVcyi452c
p2
I1
s.(dp0
Vcyi452c
p1
I1
sVcyw6x0s
p2
I1
s.(dp0
Vcyi452c
p1
I1
sVcyw7nqg
p2
I1
s.(dp0
Vcyi452c
p1
I1
sVcyww23e
p2
I1
s.(dp0
Vcyi452c
p1
I1
sVcyx599y
p2
I1
s.(dp0
Vcyi452c
p1
I1
sVcyxe0ok
p2
I1
s.(dp0
Vcyi452c
p1
I1
sVcyxjo4d
p2
I1
s.(dp0
Vcyi452c
p1
I1
sVcyxor7o
p2
I1
s.(dp0
Vcyi452c
p1
I1
sVcyzb9wy
p2
I1
s.(dp0
Vcyi452c
p1
I1
sVcyzb9wy
p2
I1
s.(dp0
Vcyi452c
p1
I1
sVcyzexte
p2
I1
s.(dp0
Vcyi452c
p1
I1
sVcz06l5a
p2
I1
s.(dp0
Vcyi452c
p1
I1
sVcz0awhj
p2
I1
s.(dp0
Vcyi452c
p1
I1
sVcz0llmr
p2
I1
s.(dp0
Vcyi452c
p1
I1
sVcz1b1l6
p2
I1
s.(dp0
Vcyi452c
p1
I1
sVcz22mms
p2
I1
s.(dp0
Vcyi452c
p1
I1
sVcz2eibc
p2
I1
s.(dp0
Vcyi452c
p1
I1
sVcz3297x
p2
I1
s.(dp0
Vcyi452c
p1
I1
sVcz34cd2
p2
I1
s.(dp0
Vcyi452c
p1
I1
sVcz3rcwj
p2
I1
s.(dp0
Vcyi452c
p1
I1
sVcz3ree9
p2
I1
s.(dp0
Vcz4voqx
p1
I1
sVcyi452c
p2
I1
s.(dp0
Vcz4wd9y
p1
I1
sVcyi452c
p2
I1
s.(dp0
Vcyi452c
p1
I1
sVcz4xgkz
p2
I1
s.(dp0
Vcyi452c
p1
I1
sVcz5dvo2
p2
I1
s.(dp0
Vcz5likg
p1
I1
sVcyi452c
p2
I1
s.(dp0
Vcz5likg
p1
I1
sVcyi452c
p2
I1
s.(dp0
Vcyi452c
p1
I1
sVcz5plzm
p2
I1
s.(dp0
Vcyi452c
p1
I1
sVcz5plzm
p2
I1
s.(dp0
Vcyi452c
p1
I1
sVcz5y0go
p2
I1
s.(dp0
Vcyi452c
p1
I1
sVcz5yfow
p2
I1
s.(dp0
Vcyi452c
p1
I1
sVcz6qlib
p2
I1
s.(dp0
Vcyi452c
p1
I1
sVcz6rhwr
p2
I1
s.(dp0
Vcz7g83m
p1
I1
sVcyi452c
p2
I1
s.(dp0
Vcz7g83m
p1
I1
sVcyi452c
p2
I1
s.(dp0
Vcyi452c
p1
I1
sVcz7gkmw
p2
I1
s.(dp0
Vcz7wwc7
p1
I1
sVcyi452c
p2
I1
s.(dp0
Vcyi452c
p1
I1
sVcz7xc8x
p2
I1
s.(dp0
Vcz7zkbf
p1
I1
sVcyi452c
p2
I1
s.(dp0
Vcyi452c
p1
I1
sVcz82j38
p2
I1
s.(dp0
Vcyi452c
p1
I1
sVcz83310
p2
I1
s.(dp0
Vcyi452c
p1
I1
sVcz9tj5x
p2
I1
s.(dp0
Vcyi452c
p1
I1
sVcz9vijx
p2
I1
s.(dp0
Vcyi452c
p1
I1
sVcz9vlby
p2
I1
s.(dp0
Vcyi452c
p1
I1
sVcz9vlby
p2
I1
s.(dp0
Vcyi452c
p1
I1
sVcza7cyc
p2
I1
s.(dp0
Vcyi452c
p1
I1
sVcza7cyc
p2
I1
s.(dp0
Vcyi452c
p1
I1
sVcza7cyc
p2
I1
s.(dp0
Vcza7gt8
p1
I1
sVcyi452c
p2
I1
s.(dp0
Vczagtpw
p1
I1
sVcyi452c
p2
I1
s.(dp0
Vcyi452c
p1
I1
sVczagupp
p2
I1
s.(dp0
Vczatmpn
p1
I1
sVcyi452c
p2
I1
s.(dp0
Vczatmpn
p1
I1
sVcyi452c
p2
I1
s.(dp0
Vcyi452c
p1
I1
sVczawy4c
p2
I1
s.(dp0
Vcyi452c
p1
I1
sVczawy4c
p2
I1
s.(dp0
Vcyi452c
p1
I1
sVczcdaiv
p2
I1
s.(dp0
Vczd8w40
p1
I1
sVcyi452c
p2
I1
s.(dp0
Vcy(dp0
Vcyi452c
p1
I1
sVdp54150
p2
I1
s.