(dp0
Vcync49u
p1
I1
s.(dp0
Vcz1t6j8
p1
I1
sVcync49u
p2
I1
s.(dp0
Vcz7puh9
p1
I1
sVcync49u
p2
I1
s.(dp0
Vcznagz4
p1
I1
sVcync49u
p2
I1
s.(dp0
Vcznagz4
p1
I1
sVcync49u
p2
I1
s.(dp0
Vd0yfwgp
p1
I1
sVcync49u
p2
I1
s.(dp0
Vd1qqyk4
p1
I1
sVcync49u
p2
I1
s.(dp0
Vd23hdr4
p1
I1
sVcync49u
p2
I1
s.(dp0
Vd259x8g
p1
I1
sVcync49u
p2
I1
s.(dp0
Vd2sfhzr
p1
I1
sVcync49u
p2
I1
s.(dp0
Vd5mvsff
p1
I1
sVcync49u
p2
I1
s.(dp0
Vd6dya88
p1
I1
sVcync49u
p2
I1
s.(dp0
Vdbpe30y
p1
I1
sVcync49u
p2
I1
s.(dp0
Vdhevl61
p1
I1
sVcync49u
p2
I1
s.(dp0
Vdhfjfjc
p1
I1
sVcync49u
p2
I1
s.(dp0
Vdhfjfjc
p1
I1
sVcync49u
p2
I1
s.(dp0
Vdhn4ewy
p1
I1
sVcync49u
p2
I1
s.(dp0
Vdho198r
p1
I1
sVcync49u
p2
I1
s.(dp0
Vdj0xrg6
p1
I1
sVcync49u
p2
I1
s.(dp0
Vdkf4v8c
p1
I1
sVcync49u
p2
I1
s.