(dp0
Vcyo6qtt
p1
I1
s.(dp0
Vcyo6xnv
p1
I1
sVcyo6qtt
p2
I1
s.(dp0
Vczycj4v
p1
I1
sVcyo6qtt
p2
I1
s.(dp0
Vd03oo7v
p1
I1
sVcyo6qtt
p2
I1
s.(dp0
Vd1gw7fg
p1
I1
sVcyo6qtt
p2
I1
s.(dp0
Vd1jqbzj
p1
I1
sVcyo6qtt
p2
I1
s.(dp0
Vd1jqbzj
p1
I1
sVcyo6qtt
p2
I1
s.(dp0
Vd1jqbzj
p1
I1
sVcyo6qtt
p2
I1
s.(dp0
Vd2fh751
p1
I1
sVcyo6qtt
p2
I1
s.(dp0
Vd2ptbtk
p1
I1
sVcyo6qtt
p2
I1
s.(dp0
Vd2sog9d
p1
I1
sVcyo6qtt
p2
I1
s.(dp0
Vd87mzth
p1
I1
sVcyo6qtt
p2
I1
s.(dp0
Vdbh8ysm
p1
I1
sVcyo6qtt
p2
I1
s.(dp0
Vdc7wqfi
p1
I1
sVcyo6qtt
p2
I1
s.(dp0
Vdcpjvdp
p1
I1
sVcyo6qtt
p2
I1
s.(dp0
Vddnbpmd
p1
I1
sVcyo6qtt
p2
I1
s.(dp0
Vde8pu5m
p1
I1
sVcyo6qtt
p2
I1
s.(dp0
Vdet7px0
p1
I1
sVcyo6qtt
p2
I1
s.(dp0
Vdg48mi8
p1
I1
sVcyo6qtt
p2
I1
s.(dp0
Vdgyp0ln
p1
I1
sVcyo6qtt
p2
I1
s.(dp0
Vdi9rlje
p1
I1
sVcyo6qtt
p2
I1
s.(dp0
Vdivke3y
p1
I1
sVcyo6qtt
p2
I1
s.(dp0
Vdk9k3vv
p1
I1
sVcyo6qtt
p2
I1
s.