(dp0
Vcyjyqb9
p1
I1
s.(dp0
Vcyjyqb9
p1
I1
sVcykkwzb
p2
I1
s.(dp0
Vcyjyqb9
p1
I1
sVcyliapv
p2
I1
s.(dp0
Vcyjyqb9
p1
I1
sVcylq81u
p2
I1
s.(dp0
Vcymo4ue
p1
I1
sVcyjyqb9
p2
I1
s.(dp0
Vcymo4ue
p1
I1
sVcyjyqb9
p2
I1
s.(dp0
Vcymo4ue
p1
I1
sVcyjyqb9
p2
I1
s.(dp0
Vcynm8mr
p1
I1
sVcyjyqb9
p2
I1
s.(dp0
Vcyo2wi6
p1
I1
sVcyjyqb9
p2
I1
s.(dp0
Vcypk03d
p1
I1
sVcyjyqb9
p2
I1
s.(dp0
Vcyjyqb9
p1
I1
sVcypmi8t
p2
I1
s.(dp0
Vcys2vo2
p1
I1
sVcyjyqb9
p2
I1
s.(dp0
Vcysepyk
p1
I1
sVcyjyqb9
p2
I1
s.(dp0
Vcysnyu7
p1
I1
sVcyjyqb9
p2
I1
s.(dp0
Vcyjyqb9
p1
I1
sVcyswokv
p2
I1
s.(dp0
Vcyswqoe
p1
I1
sVcyjyqb9
p2
I1
s.(dp0
Vcyswqoe
p1
I1
sVcyjyqb9
p2
I1
s.(dp0
Vcyswqoe
p1
I1
sVcyjyqb9
p2
I1
s.(dp0
Vcyswqoe
p1
I1
sVcyjyqb9
p2
I1
s.(dp0
Vcyswqoe
p1
I1
sVcyjyqb9
p2
I1
s.(dp0
Vcyswqoe
p1
I1
sVcyjyqb9
p2
I1
s.(dp0
Vcyswqoe
p1
I1
sVcyjyqb9
p2
I1
s.(dp0
Vcyt3cnk
p1
I1
sVcyjyqb9
p2
I1
s.(dp0
Vcyjyqb9
p1
I1
sVcyteo7k
p2
I1
s.(dp0
Vcyu70g6
p1
I1
sVcyjyqb9
p2
I1
s.(dp0
Vcyjyqb9
p1
I1
sVcywlwyg
p2
I1
s.(dp0
Vcyjyqb9
p1
I1
sVcyyvfp1
p2
I1
s.(dp0
Vcyz3rk2
p1
I1
sVcyjyqb9
p2
I1
s.(dp0
Vcyzly9w
p1
I1
sVcyjyqb9
p2
I1
s.(dp0
Vcyzmc3r
p1
I1
sVcyjyqb9
p2
I1
s.(dp0
Vcyjyqb9
p1
I1
sVcz1th7i
p2
I1
s.(dp0
Vcyjyqb9
p1
I1
sVcz46irm
p2
I1
s.(dp0
Vcz5d9ze
p1
I1
sVcyjyqb9
p2
I1
s.(dp0
Vcz86iqj
p1
I1
sVcyjyqb9
p2
I1
s.(dp0
Vcyjyqb9
p1
I1
sVcz8lgqo
p2
I1
s.(dp0
Vcyjyqb9
p1
I1
sVcz9rkfq
p2
I1
s.(dp0
Vcyjyqb9
p1
I1
sVcz9rkfq
p2
I1
s.(dp0
Vcyjyqb9
p1
I1
sVcz9rkfq
p2
I1
s.(dp0
Vcyjyqb9
p1
I1
sVcz9rkfq
p2
I1
s.(dp0
Vcyjyqb9
p1
I1
sVcz9rkfq
p2
I1
s.(dp0
Vcyjyqb9
p1
I1
sVcz9rkfq
p2
I1
s.(dp0
Vczaqgbo
p1
I1
sVcyjyqb9
p2
I1
s.(dp0
Vcyjyqb9
p1
I1
sVczbpqmc
p2
I1
s.(dp0
Vcze0fq0
p1
I1
sVcyjyqb9
p2
I1
s.(dp0
Vczgy51a
p1
I1
sVcyjyqb9
p2
I1
s.(dp0
Vcyjyqb9
p1
I1
sVczj5rqq
p2
I1
s.(dp0
Vczjj161
p1
I1
sVcyjyqb9
p2
I1
s.(dp0
Vczlotew
p1
I1
sVcyjyqb9
p2
I1
s.(dp0
Vczlotew
p1
I1
sVcyjyqb9
p2
I1
s.(dp0
Vczlotew
p1
I1
sVcyjyqb9
p2
I1
s.(dp0
Vczn7pfy
p1
I1
sVcyjyqb9
p2
I1
s.(dp0
Vczn7pfy
p1
I1
sVcyjyqb9
p2
I1
s.(dp0
Vczn7pfy
p1
I1
sVcyjyqb9
p2
I1
s.(dp0
Vczn7pfy
p1
I1
sVcyjyqb9
p2
I1
s.(dp0
Vcyjyqb9
p1
I1
sVczqseuz
p2
I1
s.(dp0
Vczr3k9f
p1
I1
sVcyjyqb9
p2
I1
s.(dp0
Vcyjyqb9
p1
I1
sVczsalxq
p2
I1
s.(dp0
Vcyjyqb9
p1
I1
sVczsalxq
p2
I1
s.(dp0
Vczu7egn
p1
I1
sVcyjyqb9
p2
I1
s.(dp0
Vczuxctl
p1
I1
sVcyjyqb9
p2
I1
s.(dp0
Vd01yr0m
p1
I1
sVcyjyqb9
p2
I1
s.(dp0
Vd05l6kb
p1
I1
sVcyjyqb9
p2
I1
s.(dp0
Vcyjyqb9
p1
I1
sVd05sfka
p2
I1
s.(dp0
Vcyjyqb9
p1
I1
sVd05sfka
p2
I1
s.(dp0
Vcyjyqb9
p1
I1
sVd05xc7k
p2
I1
s.(dp0
Vd09mb2l
p1
I1
sVcyjyqb9
p2
I1
s.(dp0
Vcyjyqb9
p1
I1
sVd0cy8qn
p2
I1
s.(dp0
Vcyjyqb9
p1
I1
sVd0d8j4t
p2
I1
s.(dp0
Vcyjyqb9
p1
I1
sVd0d8j4t
p2
I1
s.(dp0
Vd0etart
p1
I1
sVcyjyqb9
p2
I1
s.(dp0
Vd0iyqt9
p1
I1
sVcyjyqb9
p2
I1
s.(dp0
Vd0lq0ze
p1
I1
sVcyjyqb9
p2
I1
s.(dp0
Vd0ltimi
p1
I1
sVcyjyqb9
p2
I1
s.(dp0
Vd0m4x7t
p1
I1
sVcyjyqb9
p2
I1
s.(dp0
Vd0mbacq
p1
I1
sVcyjyqb9
p2
I1
s.(dp0
Vcyjyqb9
p1
I1
sVd0qv9b5
p2
I1
s.(dp0
Vd0u4dlb
p1
I1
sVcyjyqb9
p2
I1
s.(dp0
Vcyjyqb9
p1
I1
sVd0y6z5p
p2
I1
s.(dp0
Vd0y8z5v
p1
I1
sVcyjyqb9
p2
I1
s.(dp0
Vd11098a
p1
I1
sVcyjyqb9
p2
I1
s.(dp0
Vd192nkf
p1
I1
sVcyjyqb9
p2
I1
s.(dp0
Vcyjyqb9
p1
I1
sVd1emjzx
p2
I1
s.(dp0
Vcyjyqb9
p1
I1
sVd1emjzx
p2
I1
s.(dp0
Vcyjyqb9
p1
I1
sVd1k8xtx
p2
I1
s.(dp0
Vcyjyqb9
p1
I1
sVd1k8xtx
p2
I1
s.(dp0
Vd1lqghr
p1
I1
sVcyjyqb9
p2
I1
s.(dp0
Vd1lyiic
p1
I1
sVcyjyqb9
p2
I1
s.(dp0
Vd1mpg6x
p1
I1
sVcyjyqb9
p2
I1
s.(dp0
Vcyjyqb9
p1
I1
sVd1n05wc
p2
I1
s.(dp0
Vcyjyqb9
p1
I1
sVd1p898g
p2
I1
s.(dp0
Vd1pdgdl
p1
I1
sVcyjyqb9
p2
I1
s.(dp0
Vcyjyqb9
p1
I1
sVd1pxkie
p2
I1
s.(dp0
Vd1t7ol4
p1
I1
sVcyjyqb9
p2
I1
s.(dp0
Vd1tr1t8
p1
I1
sVcyjyqb9
p2
I1
s.(dp0
Vd1tr1t8
p1
I1
sVcyjyqb9
p2
I1
s.(dp0
Vd1tr1t8
p1
I1
sVcyjyqb9
p2
I1
s.(dp0
Vcyjyqb9
p1
I1
sVd1vgnlo
p2
I1
s.(dp0
Vd1x6zoa
p1
I1
sVcyjyqb9
p2
I1
s.(dp0
Vd1zftvl
p1
I1
sVcyjyqb9
p2
I1
s.(dp0
Vcyjyqb9
p1
I1
sVd22gq5z
p2
I1
s.(dp0
Vd25a52w
p1
I1
sVcyjyqb9
p2
I1
s.(dp0
Vcyjyqb9
p1
I1
sVd25t9w1
p2
I1
s.(dp0
Vd28ze9x
p1
I1
sVcyjyqb9
p2
I1
s.(dp0
Vd2i4rpi
p1
I1
sVcyjyqb9
p2
I1
s.(dp0
Vcyjyqb9
p1
I1
sVd2jji7l
p2
I1
s.(dp0
Vd2kq0wc
p1
I1
sVcyjyqb9
p2
I1
s.(dp0
Vd2naubx
p1
I1
sVcyjyqb9
p2
I1
s.(dp0
Vcyjyqb9
p1
I1
sVd2o4gt2
p2
I1
s.(dp0
Vcy(dp0
Vdktz2cn
p1
I1
sVcyjyqb9
p2
I1
s.