(dp0
Vd1zjg53
p1
I1
s.(dp0
Vd1zjg53
p1
I2
s.(dp0
Vd1zjg53
p1
I2
s.(dp0
Vd39fnlh
p1
I1
sVd1zjg53
p2
I1
s.(dp0
Vd39u52e
p1
I1
sVd1zjg53
p2
I1
s.(dp0
Vd39u52e
p1
I1
sVd1zjg53
p2
I1
s.(dp0
Vd3bwmpv
p1
I1
sVd1zjg53
p2
I1
s.(dp0
Vd7dwq27
p1
I1
sVd1zjg53
p2
I1
s.(dp0
Vd7dwq27
p1
I1
sVd1zjg53
p2
I1
s.(dp0
Vd1zjg53
p1
I1
sVd82v70a
p2
I1
s.(dp0
Vd1zjg53
p1
I1
sVd82v70a
p2
I1
s.(dp0
Vd8f60uy
p1
I1
sVd1zjg53
p2
I1
s.(dp0
Vd8f6kc0
p1
I1
sVd1zjg53
p2
I1
s.(dp0
Vd8f6kc0
p1
I1
sVd1zjg53
p2
I1
s.(dp0
Vd9ptwxb
p1
I1
sVd1zjg53
p2
I1
s.(dp0
Vdbqdrzb
p1
I1
sVd1zjg53
p2
I1
s.(dp0
Vd1zjg53
p1
I1
sVdbqtip7
p2
I1
s.(dp0
Vd1zjg53
p1
I1
sVdbqtip7
p2
I1
s.(dp0
Vd1zjg53
p1
I1
sVdisv3v0
p2
I1
s.(dp0
Vd1zjg53
p1
I1
sVdisv3v0
p2
I1
s.(dp0
Vd1zjg53
p1
I1
sVdisv3v0
p2
I1
s.(dp0
Vd1zjg53
p1
I1
sVdisv3v0
p2
I1
s.(dp0
Vdju4cqf
p1
I1
sVd1zjg53
p2
I1
s.(dp0
Vdju4cqf
p1
I1
sVd1zjg53
p2
I1
s.(dp0
Vd1zjg53
p1
I1
sVdjzdc0d
p2
I1
s.