(dp0
Vcyi6oib
p1
I1
s.(dp0
Vcyi6oib
p1
I1
sVd01miat
p2
I1
s.(dp0
Vd0i2439
p1
I1
sVcyi6oib
p2
I1
s.(dp0
Vcyi6oib
p1
I1
sVd194rg5
p2
I1
s.(dp0
Vd1z5mk0
p1
I1
sVcyi6oib
p2
I1
s.(dp0
Vd1z5mk0
p1
I1
sVcyi6oib
p2
I1
s.(dp0
Vd1z5mk0
p1
I1
sVcyi6oib
p2
I1
s.(dp0
Vd1z7z96
p1
I1
sVcyi6oib
p2
I1
s.(dp0
Vd55qi32
p1
I1
sVcyi6oib
p2
I1
s.(dp0
Vd6tvhmv
p1
I1
sVcyi6oib
p2
I1
s.(dp0
Vd7kb8of
p1
I1
sVcyi6oib
p2
I1
s.(dp0
Vd7x39rb
p1
I1
sVcyi6oib
p2
I1
s.(dp0
Vddodqml
p1
I1
sVcyi6oib
p2
I1
s.(dp0
Vcyi6oib
p1
I1
sVdielrmk
p2
I1
s.(dp0
Vcyi6oib
p1
I1
sVdielrmk
p2
I1
s.(dp0
Vdjmdgf9
p1
I1
sVcyi6oib
p2
I1
s.(dp0
Vdk8eueh
p1
I1
sVcyi6oib
p2
I1
s.(dp0
Vdmn9bzx
p1
I1
sVcyi6oib
p2
I1
s.(dp0
Vdmw0rr2
p1
I1
sVcyi6oib
p2
I1
s.(dp0
Vdmw0rr2
p1
I1
sVcyi6oib
p2
I1
s.(dp0
Vdmw0rr2
p1
I1
sVcyi6oib
p2
I1
s.(dp0
Vdolc98z
p1
I1
sVcyi6oib
p2
I1
s.