(dp0
Vcyij13c
p1
I1
s.(dp0
Vcyij13c
p1
I2
s.(dp0
Vcyij13c
p1
I2
s.(dp0
Vcyijykr
p1
I1
sVcyij13c
p2
I1
s.(dp0
Vcyik9wc
p1
I1
sVcyij13c
p2
I1
s.(dp0
Vcyik9wc
p1
I1
sVcyij13c
p2
I1
s.(dp0
Vcyik9wc
p1
I1
sVcyij13c
p2
I1
s.(dp0
Vcyij13c
p1
I1
sVcyis0p9
p2
I1
s.(dp0
Vcyij13c
p1
I1
sVcyis0p9
p2
I1
s.(dp0
Vcyiv90p
p1
I1
sVcyij13c
p2
I1
s.(dp0
Vcyiw17w
p1
I1
sVcyij13c
p2
I1
s.(dp0
Vcyiw17w
p1
I1
sVcyij13c
p2
I1
s.(dp0
Vcyiw17w
p1
I1
sVcyij13c
p2
I1
s.(dp0
Vcyiw17w
p1
I1
sVcyij13c
p2
I1
s.(dp0
Vcyij13c
p1
I1
sVcyj34nv
p2
I1
s.(dp0
Vcyij13c
p1
I1
sVcyj34nv
p2
I1
s.(dp0
Vcyjb7m1
p1
I1
sVcyij13c
p2
I1
s.(dp0
Vcyjgwjg
p1
I1
sVcyij13c
p2
I1
s.(dp0
Vcyij13c
p1
I1
sVcyjsv22
p2
I1
s.(dp0
Vcyk8h2v
p1
I1
sVcyij13c
p2
I1
s.(dp0
Vcyk8h2v
p1
I1
sVcyij13c
p2
I1
s.(dp0
Vcyij13c
p1
I1
sVcykhl43
p2
I1
s.(dp0
Vcykl3xa
p1
I1
sVcyij13c
p2
I1
s.(dp0
Vcykl3xa
p1
I1
sVcyij13c
p2
I1
s.(dp0
Vcyij13c
p1
I1
sVcyl2xxy
p2
I1
s.(dp0
Vcyij13c
p1
I1
sVcylcgx2
p2
I1
s.(dp0
Vcyij13c
p1
I1
sVcyldycl
p2
I1
s.(dp0
Vcyij13c
p1
I1
sVcylit8j
p2
I1
s.(dp0
Vcyij13c
p1
I1
sVcyluxi2
p2
I1
s.(dp0
Vcyij13c
p1
I1
sVcyluxi2
p2
I1
s.(dp0
Vcymcb14
p1
I1
sVcyij13c
p2
I1
s.(dp0
Vcyij13c
p1
I1
sVcymdtf2
p2
I1
s.(dp0
Vcyij13c
p1
I1
sVcymffqp
p2
I1
s.(dp0
Vcyij13c
p1
I1
sVcymffqp
p2
I1
s.(dp0
Vcyij13c
p1
I1
sVcymffqp
p2
I1
s.(dp0
Vcyij13c
p1
I1
sVcymffqp
p2
I1
s.(dp0
Vcymfkxw
p1
I1
sVcyij13c
p2
I1
s.(dp0
Vcymfkxw
p1
I1
sVcyij13c
p2
I1
s.(dp0
Vcymfkxw
p1
I1
sVcyij13c
p2
I1
s.(dp0
Vcynttoa
p1
I1
sVcyij13c
p2
I1
s.(dp0
Vcynttoa
p1
I1
sVcyij13c
p2
I1
s.(dp0
Vcyij13c
p1
I1
sVcynv8j8
p2
I1
s.(dp0
Vcyij13c
p1
I1
sVcyorl22
p2
I1
s.(dp0
Vcyij13c
p1
I1
sVcyorl22
p2
I1
s.(dp0
Vcyp00f4
p1
I1
sVcyij13c
p2
I1
s.(dp0
Vcypd535
p1
I1
sVcyij13c
p2
I1
s.(dp0
Vcyij13c
p1
I1
sVcyqn8w5
p2
I1
s.(dp0
Vcyqzuiu
p1
I1
sVcyij13c
p2
I1
s.(dp0
Vcyraid4
p1
I1
sVcyij13c
p2
I1
s.(dp0
Vcyij13c
p1
I1
sVcyrg6mm
p2
I1
s.(dp0
Vcys0xcs
p1
I1
sVcyij13c
p2
I1
s.(dp0
Vcys0xcs
p1
I1
sVcyij13c
p2
I1
s.(dp0
Vcys0xcs
p1
I1
sVcyij13c
p2
I1
s.(dp0
Vcyij13c
p1
I1
sVcysdvtd
p2
I1
s.(dp0
Vcyij13c
p1
I1
sVcysn92s
p2
I1
s.(dp0
Vcyij13c
p1
I1
sVcysrqek
p2
I1
s.(dp0
Vcyti9dt
p1
I1
sVcyij13c
p2
I1
s.(dp0
Vcyti9dt
p1
I1
sVcyij13c
p2
I1
s.(dp0
Vcyti9dt
p1
I1
sVcyij13c
p2
I1
s.(dp0
Vcytxsm6
p1
I1
sVcyij13c
p2
I1
s.(dp0
Vcytxsm6
p1
I1
sVcyij13c
p2
I1
s.(dp0
Vcytxsm6
p1
I1
sVcyij13c
p2
I1
s.(dp0
Vcytxsm6
p1
I1
sVcyij13c
p2
I1
s.(dp0
Vcytxsm6
p1
I1
sVcyij13c
p2
I1
s.(dp0
Vcytxsm6
p1
I1
sVcyij13c
p2
I1
s.(dp0
Vcytxsm6
p1
I1
sVcyij13c
p2
I1
s.(dp0
Vcytxsm6
p1
I1
sVcyij13c
p2
I1
s.(dp0
Vcytxsm6
p1
I1
sVcyij13c
p2
I1
s.(dp0
Vcytxsm6
p1
I1
sVcyij13c
p2
I1
s.(dp0
Vcytxsm6
p1
I1
sVcyij13c
p2
I1
s.(dp0
Vcytxsm6
p1
I1
sVcyij13c
p2
I1
s.(dp0
Vcyu0c9o
p1
I1
sVcyij13c
p2
I1
s.(dp0
Vcyu0c9o
p1
I1
sVcyij13c
p2
I1
s.(dp0
Vcyu0c9o
p1
I1
sVcyij13c
p2
I1
s.(dp0
Vcyu0c9o
p1
I1
sVcyij13c
p2
I1
s.(dp0
Vcyu0c9o
p1
I1
sVcyij13c
p2
I1
s.(dp0
Vcyu0c9o
p1
I1
sVcyij13c
p2
I1
s.(dp0
Vcyu0c9o
p1
I1
sVcyij13c
p2
I1
s.(dp0
Vcyu0c9o
p1
I1
sVcyij13c
p2
I1
s.(dp0
Vcyu0c9o
p1
I1
sVcyij13c
p2
I1
s.(dp0
Vcyij13c
p1
I1
sVcyu20nc
p2
I1
s.(dp0
Vcyij13c
p1
I1
sVcyu20nc
p2
I1
s.(dp0
Vcyij13c
p1
I1
sVcyu3kmi
p2
I1
s.(dp0
Vcyij13c
p1
I1
sVcyu3kmi
p2
I1
s.(dp0
Vcyij13c
p1
I1
sVcyu5q9d
p2
I1
s.(dp0
Vcyij13c
p1
I1
sVcyu5q9d
p2
I1
s.(dp0
Vcyij13c
p1
I1
sVcyu6xdn
p2
I1
s.(dp0
Vcyij13c
p1
I1
sVcyu6xdn
p2
I1
s.(dp0
Vcyij13c
p1
I1
sVcyu6xdn
p2
I1
s.(dp0
Vcyu878n
p1
I1
sVcyij13c
p2
I1
s.(dp0
Vcyu878n
p1
I1
sVcyij13c
p2
I1
s.(dp0
Vcyij13c
p1
I1
sVcyub26k
p2
I1
s.(dp0
Vcyij13c
p1
I1
sVcyub26k
p2
I1
s.(dp0
Vcyij13c
p1
I1
sVcyub26k
p2
I1
s.(dp0
Vcyucmnp
p1
I1
sVcyij13c
p2
I1
s.(dp0
Vcyucmnp
p1
I1
sVcyij13c
p2
I1
s.(dp0
Vcyucmnp
p1
I1
sVcyij13c
p2
I1
s.(dp0
Vcyucpvh
p1
I1
sVcyij13c
p2
I1
s.(dp0
Vcyucpvh
p1
I1
sVcyij13c
p2
I1
s.(dp0
Vcyucpvh
p1
I1
sVcyij13c
p2
I1
s.(dp0
Vcyij13c
p1
I1
sVcyudsee
p2
I1
s.(dp0
Vcyij13c
p1
I1
sVcyudsee
p2
I1
s.(dp0
Vcyij13c
p1
I1
sVcyue3fr
p2
I1
s.(dp0
Vcyij13c
p1
I1
sVcyue3fr
p2
I1
s.(dp0
Vcyij13c
p1
I1
sVcyue3fr
p2
I1
s.(dp0
Vcyij13c
p1
I1
sVcyuf7d2
p2
I1
s.(dp0
Vcyij13c
p1
I1
sVcyujb7c
p2
I1
s.(dp0
Vcyij13c
p1
I1
sVcyujb7c
p2
I1
s.(dp0
Vcyij13c
p1
I1
sVcyujb7c
p2
I1
s.(d(dp0
Vcyij13c
p1
I1
sVdp59c04
p2
I1
s.