(dp0
Vcyixizl
p1
I1
s.(dp0
Vcyjag74
p1
I1
sVcyixizl
p2
I1
s.(dp0
Vcyk48ft
p1
I1
sVcyixizl
p2
I1
s.(dp0
Vcyloke5
p1
I1
sVcyixizl
p2
I1
s.(dp0
Vcyixizl
p1
I1
sVcylz9df
p2
I1
s.(dp0
Vcyixizl
p1
I1
sVcymjf4o
p2
I1
s.(dp0
Vcyixizl
p1
I1
sVcymjf4o
p2
I1
s.(dp0
Vcyixizl
p1
I1
sVcyqyhzx
p2
I1
s.(dp0
Vcyixizl
p1
I1
sVcysrn3x
p2
I1
s.(dp0
Vcysv93j
p1
I1
sVcyixizl
p2
I1
s.(dp0
Vcyx2h8q
p1
I1
sVcyixizl
p2
I1
s.(dp0
Vcyxgnqd
p1
I1
sVcyixizl
p2
I1
s.(dp0
Vcyxi57d
p1
I1
sVcyixizl
p2
I1
s.(dp0
Vcyykcn8
p1
I1
sVcyixizl
p2
I1
s.(dp0
Vcz1j7qe
p1
I1
sVcyixizl
p2
I1
s.(dp0
Vcz1pswa
p1
I1
sVcyixizl
p2
I1
s.(dp0
Vcz2mquu
p1
I1
sVcyixizl
p2
I1
s.(dp0
Vcyixizl
p1
I1
sVcz3veob
p2
I1
s.(dp0
Vcyixizl
p1
I1
sVcz8pj9p
p2
I1
s.(dp0
Vcyixizl
p1
I1
sVcz9wps4
p2
I1
s.(dp0
Vcza545z
p1
I1
sVcyixizl
p2
I1
s.(dp0
Vcyixizl
p1
I1
sVczbmpzp
p2
I1
s.(dp0
Vcyixizl
p1
I1
sVczbntzq
p2
I1
s.(dp0
Vczbq59f
p1
I1
sVcyixizl
p2
I1
s.(dp0
Vcyixizl
p1
I1
sVczbqhk1
p2
I1
s.(dp0
Vczcf1ts
p1
I1
sVcyixizl
p2
I1
s.(dp0
Vczci0m2
p1
I1
sVcyixizl
p2
I1
s.(dp0
Vcyixizl
p1
I1
sVczcuxvn
p2
I1
s.(dp0
Vczdf1el
p1
I1
sVcyixizl
p2
I1
s.(dp0
Vczdf1el
p1
I1
sVcyixizl
p2
I1
s.(dp0
Vcyixizl
p1
I1
sVcze8uj1
p2
I1
s.(dp0
Vcze8xbw
p1
I1
sVcyixizl
p2
I1
s.(dp0
Vcze8xbw
p1
I1
sVcyixizl
p2
I1
s.(dp0
Vczedix4
p1
I1
sVcyixizl
p2
I1
s.(dp0
Vczh5fhr
p1
I1
sVcyixizl
p2
I1
s.(dp0
Vczky9ew
p1
I1
sVcyixizl
p2
I1
s.(dp0
Vczm4gxl
p1
I1
sVcyixizl
p2
I1
s.(dp0
Vcyixizl
p1
I1
sVczptmmg
p2
I1
s.(dp0
Vczqhllt
p1
I1
sVcyixizl
p2
I1
s.(dp0
Vczqhllt
p1
I1
sVcyixizl
p2
I1
s.(dp0
Vczup8k9
p1
I1
sVcyixizl
p2
I1
s.(dp0
Vcyixizl
p1
I1
sVczuwiai
p2
I1
s.(dp0
Vcyixizl
p1
I1
sVczx28h9
p2
I1
s.(dp0
Vcyixizl
p1
I1
sVczz8gtj
p2
I1
s.(dp0
Vczzn9u8
p1
I1
sVcyixizl
p2
I1
s.(dp0
Vd00310q
p1
I1
sVcyixizl
p2
I1
s.(dp0
Vd00310q
p1
I1
sVcyixizl
p2
I1
s.(dp0
Vcyixizl
p1
I1
sVd033fs5
p2
I1
s.(dp0
Vcyixizl
p1
I1
sVd04c8cj
p2
I1
s.(dp0
Vcyixizl
p1
I1
sVd05641a
p2
I1
s.(dp0
Vd06ttww
p1
I1
sVcyixizl
p2
I1
s.(dp0
Vcyixizl
p1
I1
sVd06v2pz
p2
I1
s.(dp0
Vcyixizl
p1
I1
sVd08wjq1
p2
I1
s.(dp0
Vcyixizl
p1
I1
sVd0a5r0l
p2
I1
s.(dp0
Vcyixizl
p1
I1
sVd0aabbd
p2
I1
s.(dp0
Vcyixizl
p1
I1
sVd0aabbd
p2
I1
s.(dp0
Vd0aqm7p
p1
I1
sVcyixizl
p2
I1
s.(dp0
Vd0coo9y
p1
I1
sVcyixizl
p2
I1
s.(dp0
Vd0hcoic
p1
I1
sVcyixizl
p2
I1
s.(dp0
Vd0j2yv3
p1
I1
sVcyixizl
p2
I1
s.(dp0
Vd0jiqjz
p1
I1
sVcyixizl
p2
I1
s.(dp0
Vcyixizl
p1
I1
sVd0k03zc
p2
I1
s.(dp0
Vd0lits7
p1
I1
sVcyixizl
p2
I1
s.(dp0
Vcyixizl
p1
I1
sVd0mfqul
p2
I1
s.(dp0
Vcyixizl
p1
I1
sVd0o0267
p2
I1
s.(dp0
Vd0rpl38
p1
I1
sVcyixizl
p2
I1
s.(dp0
Vcyixizl
p1
I1
sVd0rucsq
p2
I1
s.(dp0
Vcyixizl
p1
I1
sVd0twnqa
p2
I1
s.(dp0
Vcyixizl
p1
I1
sVd0tze6e
p2
I1
s.(dp0
Vd0xm2ml
p1
I1
sVcyixizl
p2
I1
s.(dp0
Vd0y6k3z
p1
I1
sVcyixizl
p2
I1
s.(dp0
Vd0ygo5k
p1
I1
sVcyixizl
p2
I1
s.(dp0
Vd0zd7fp
p1
I1
sVcyixizl
p2
I1
s.(dp0
Vd0zd7fp
p1
I1
sVcyixizl
p2
I1
s.(dp0
Vcyixizl
p1
I1
sVd111s0p
p2
I1
s.(dp0
Vd11282y
p1
I1
sVcyixizl
p2
I1
s.(dp0
Vcyixizl
p1
I1
sVd1198fv
p2
I1
s.(dp0
Vcyixizl
p1
I1
sVd11mgr5
p2
I1
s.(dp0
Vd13bwlg
p1
I1
sVcyixizl
p2
I1
s.(dp0
Vd16i6j5
p1
I1
sVcyixizl
p2
I1
s.(dp0
Vcyixizl
p1
I1
sVd17ymc1
p2
I1
s.(dp0
Vd1bk6sb
p1
I1
sVcyixizl
p2
I1
s.(dp0
Vcyixizl
p1
I1
sVd1cyrcd
p2
I1
s.(dp0
Vd1d9y2t
p1
I1
sVcyixizl
p2
I1
s.(dp0
Vd1eeiwp
p1
I1
sVcyixizl
p2
I1
s.(dp0
Vcyixizl
p1
I1
sVd1f7k1n
p2
I1
s.(dp0
Vd1fv0bq
p1
I1
sVcyixizl
p2
I1
s.(dp0
Vcyixizl
p1
I1
sVd1gkftb
p2
I1
s.(dp0
Vcyixizl
p1
I1
sVd1hfkf0
p2
I1
s.(dp0
Vcyixizl
p1
I1
sVd1hhf6m
p2
I1
s.(dp0
Vd1hnsdq
p1
I1
sVcyixizl
p2
I1
s.(dp0
Vd1hnsdq
p1
I1
sVcyixizl
p2
I1
s.(dp0
Vd1i5qx7
p1
I1
sVcyixizl
p2
I1
s.(dp0
Vd1j5jdn
p1
I1
sVcyixizl
p2
I1
s.(dp0
Vcyixizl
p1
I1
sVd1jeuy1
p2
I1
s.(dp0
Vd1k2vv8
p1
I1
sVcyixizl
p2
I1
s.(dp0
Vd1ngw9k
p1
I1
sVcyixizl
p2
I1
s.(dp0
Vd1ogjor
p1
I1
sVcyixizl
p2
I1
s.(dp0
Vcyixizl
p1
I1
sVd1qajgz
p2
I1
s.(dp0
Vcyixizl
p1
I1
sVd1qr060
p2
I1
s.(dp0
Vd1us343
p1
I1
sVcyixizl
p2
I1
s.(dp0
Vd1vc7ed
p1
I1
sVcyixizl
p2
I1
s.(dp0
Vd1vc7ed
p1
I1
sVcyixizl
p2
I1
s.(dp0
Vcyixizl
p1
I1
sVd1wgm7g
p2
I1
s.(dp0
Vcyixizl
p1
I1
sVd208dv5
p2
I1
s.(dp0
Vd208x2b
p1
I1
sVcyixizl
p2
I1
s.(dp0
Vd208x2b
p1
I1
sVcyixizl
p2
I1
s.(dp0
Vcyixizl
p1
I1
sVd20brj0
p2
I1
s.(dp0
Vcy(dp0
Vcyixizl
p1
I1
sVdp5h9sk
p2
I1
s.