(dp0
Vcyk6lq6
p1
I1
s.(dp0
Vcyr6kd0
p1
I1
sVcyk6lq6
p2
I1
s.(dp0
Vcz82zgj
p1
I1
sVcyk6lq6
p2
I1
s.(dp0
Vcz9evdo
p1
I1
sVcyk6lq6
p2
I1
s.(dp0
Vcze8uj1
p1
I1
sVcyk6lq6
p2
I1
s.(dp0
Vczsko4f
p1
I1
sVcyk6lq6
p2
I1
s.(dp0
Vd0is08j
p1
I1
sVcyk6lq6
p2
I1
s.(dp0
Vd0j86qf
p1
I1
sVcyk6lq6
p2
I1
s.(dp0
Vd0le5yu
p1
I1
sVcyk6lq6
p2
I1
s.(dp0
Vd1jq0km
p1
I1
sVcyk6lq6
p2
I1
s.(dp0
Vd1lekxk
p1
I1
sVcyk6lq6
p2
I1
s.(dp0
Vd1ms6du
p1
I1
sVcyk6lq6
p2
I1
s.(dp0
Vd20hvam
p1
I1
sVcyk6lq6
p2
I1
s.(dp0
Vd22qfzc
p1
I1
sVcyk6lq6
p2
I1
s.(dp0
Vd233c9y
p1
I1
sVcyk6lq6
p2
I1
s.(dp0
Vd2bm05x
p1
I1
sVcyk6lq6
p2
I1
s.(dp0
Vd2g7mcc
p1
I1
sVcyk6lq6
p2
I1
s.(dp0
Vd2q4q55
p1
I1
sVcyk6lq6
p2
I1
s.(dp0
Vd2ze07l
p1
I1
sVcyk6lq6
p2
I1
s.(dp0
Vd2zlqzl
p1
I1
sVcyk6lq6
p2
I1
s.(dp0
Vd3i37w4
p1
I1
sVcyk6lq6
p2
I1
s.(dp0
Vd3we5om
p1
I1
sVcyk6lq6
p2
I1
s.(dp0
Vd3we5om
p1
I1
sVcyk6lq6
p2
I1
s.(dp0
Vd46yrco
p1
I1
sVcyk6lq6
p2
I1
s.(dp0
Vd485jer
p1
I1
sVcyk6lq6
p2
I1
s.(dp0
Vd48w92x
p1
I1
sVcyk6lq6
p2
I1
s.(dp0
Vd4o6xli
p1
I1
sVcyk6lq6
p2
I1
s.(dp0
Vd4owmz9
p1
I1
sVcyk6lq6
p2
I1
s.(dp0
Vd4owmz9
p1
I1
sVcyk6lq6
p2
I1
s.(dp0
Vd4owmz9
p1
I1
sVcyk6lq6
p2
I1
s.(dp0
Vd4owmz9
p1
I1
sVcyk6lq6
p2
I1
s.(dp0
Vd4owmz9
p1
I1
sVcyk6lq6
p2
I1
s.(dp0
Vd67xbq6
p1
I1
sVcyk6lq6
p2
I1
s.(dp0
Vd7t453t
p1
I1
sVcyk6lq6
p2
I1
s.(dp0
Vd8ejirm
p1
I1
sVcyk6lq6
p2
I1
s.(dp0
Vd96rosx
p1
I1
sVcyk6lq6
p2
I1
s.(dp0
Vd9ho4oc
p1
I1
sVcyk6lq6
p2
I1
s.(dp0
Vdajid8d
p1
I1
sVcyk6lq6
p2
I1
s.(dp0
Vdajid8d
p1
I1
sVcyk6lq6
p2
I1
s.(dp0
Vdajid8d
p1
I1
sVcyk6lq6
p2
I1
s.(dp0
Vdajid8d
p1
I1
sVcyk6lq6
p2
I1
s.(dp0
Vdajid8d
p1
I1
sVcyk6lq6
p2
I1
s.(dp0
Vdajid8d
p1
I1
sVcyk6lq6
p2
I1
s.(dp0
Vdaspaz7
p1
I1
sVcyk6lq6
p2
I1
s.(dp0
Vdav5g41
p1
I1
sVcyk6lq6
p2
I1
s.(dp0
Vdav5gi2
p1
I1
sVcyk6lq6
p2
I1
s.(dp0
Vdbdp6vb
p1
I1
sVcyk6lq6
p2
I1
s.(dp0
Vdbdqv1k
p1
I1
sVcyk6lq6
p2
I1
s.(dp0
Vdbeby1f
p1
I1
sVcyk6lq6
p2
I1
s.(dp0
Vdbky7i1
p1
I1
sVcyk6lq6
p2
I1
s.(dp0
Vdbwbi9s
p1
I1
sVcyk6lq6
p2
I1
s.(dp0
Vdbwbi9s
p1
I1
sVcyk6lq6
p2
I1
s.(dp0
Vdbwbi9s
p1
I1
sVcyk6lq6
p2
I1
s.(dp0
Vdbwbi9s
p1
I1
sVcyk6lq6
p2
I1
s.(dp0
Vdbwee6y
p1
I1
sVcyk6lq6
p2
I1
s.(dp0
Vdd63jlt
p1
I1
sVcyk6lq6
p2
I1
s.(dp0
Vdddadiu
p1
I1
sVcyk6lq6
p2
I1
s.(dp0
Vddwjban
p1
I1
sVcyk6lq6
p2
I1
s.(dp0
Vdefjgnk
p1
I1
sVcyk6lq6
p2
I1
s.(dp0
Vdefjgnk
p1
I1
sVcyk6lq6
p2
I1
s.(dp0
Vdejfdxu
p1
I1
sVcyk6lq6
p2
I1
s.(dp0
Vdes457k
p1
I1
sVcyk6lq6
p2
I1
s.(dp0
Vdes47om
p1
I1
sVcyk6lq6
p2
I1
s.(dp0
Vdewu2w5
p1
I1
sVcyk6lq6
p2
I1
s.(dp0
Vdewu2w5
p1
I1
sVcyk6lq6
p2
I1
s.(dp0
Vdgvottw
p1
I1
sVcyk6lq6
p2
I1
s.(dp0
Vdh34jrg
p1
I1
sVcyk6lq6
p2
I1
s.(dp0
Vdhdfsi5
p1
I1
sVcyk6lq6
p2
I1
s.(dp0
Vdhf88ks
p1
I1
sVcyk6lq6
p2
I1
s.(dp0
Vdhl13im
p1
I1
sVcyk6lq6
p2
I1
s.(dp0
Vdj4ju5l
p1
I1
sVcyk6lq6
p2
I1
s.(dp0
Vdjpsyaq
p1
I1
sVcyk6lq6
p2
I1
s.(dp0
Vdjrjx7x
p1
I1
sVcyk6lq6
p2
I1
s.(dp0
Vdjrjx7x
p1
I1
sVcyk6lq6
p2
I1
s.(dp0
Vdkf3fai
p1
I1
sVcyk6lq6
p2
I1
s.