(dp0
Vczby367
p1
I1
s.(dp0
Vczby367
p1
I2
s.(dp0
Vd2a3ola
p1
I1
sVczby367
p2
I1
s.(dp0
Vd32ur6f
p1
I1
sVczby367
p2
I1
s.(dp0
Vd39kwrx
p1
I1
sVczby367
p2
I1
s.(dp0
Vczby367
p1
I1
sVd3icyl1
p2
I1
s.(dp0
Vczby367
p1
I1
sVd4gmvbi
p2
I1
s.(dp0
Vczby367
p1
I1
sVd4ym743
p2
I1
s.(dp0
Vd5ha0b8
p1
I1
sVczby367
p2
I1
s.(dp0
Vczby367
p1
I1
sVd7urgis
p2
I1
s.(dp0
Vd97ie08
p1
I1
sVczby367
p2
I1
s.(dp0
Vdae8mvz
p1
I1
sVczby367
p2
I1
s.(dp0
Vdae8mvz
p1
I1
sVczby367
p2
I1
s.(dp0
Vdae8mvz
p1
I1
sVczby367
p2
I1
s.(dp0
Vdbv28yf
p1
I1
sVczby367
p2
I1
s.(dp0
Vdc5h28w
p1
I1
sVczby367
p2
I1
s.(dp0
Vczby367
p1
I1
sVdc6v5gw
p2
I1
s.(dp0
Vddfh3qe
p1
I1
sVczby367
p2
I1
s.(dp0
Vczby367
p1
I1
sVddtozop
p2
I1
s.(dp0
Vde7pdmj
p1
I1
sVczby367
p2
I1
s.(dp0
Vczby367
p1
I1
sVdfrhgqy
p2
I1
s.(dp0
Vczby367
p1
I1
sVdfrhgqy
p2
I1
s.(dp0
Vczby367
p1
I1
sVdfu7g07
p2
I1
s.(dp0
Vdgc9jvw
p1
I1
sVczby367
p2
I1
s.(dp0
Vczby367
p1
I1
sVdhwm3o6
p2
I1
s.(dp0
Vczby367
p1
I1
sVdiubiro
p2
I1
s.(dp0
Vdkrutdl
p1
I1
sVczby367
p2
I1
s.