(dp0
Vcyijvsu
p1
I1
s.(dp0
Vcz3u62d
p1
I1
sVcyijvsu
p2
I1
s.(dp0
Vcyijvsu
p1
I1
sVcz5kqiw
p2
I1
s.(dp0
Vcz61mpc
p1
I1
sVcyijvsu
p2
I1
s.(dp0
Vczen9n4
p1
I1
sVcyijvsu
p2
I1
s.(dp0
Vczjx86a
p1
I1
sVcyijvsu
p2
I1
s.(dp0
Vczousq6
p1
I1
sVcyijvsu
p2
I1
s.(dp0
Vczqm8e2
p1
I1
sVcyijvsu
p2
I1
s.(dp0
Vd054k1r
p1
I1
sVcyijvsu
p2
I1
s.(dp0
Vcyijvsu
p1
I1
sVd05n1m5
p2
I1
s.(dp0
Vd0c6a2q
p1
I1
sVcyijvsu
p2
I1
s.(dp0
Vcyijvsu
p1
I1
sVd0pl9rc
p2
I1
s.(dp0
Vd0ynug3
p1
I1
sVcyijvsu
p2
I1
s.(dp0
Vd1yq5pz
p1
I1
sVcyijvsu
p2
I1
s.(dp0
Vcyijvsu
p1
I1
sVd1zyvxd
p2
I1
s.(dp0
Vcyijvsu
p1
I1
sVd24f5nw
p2
I1
s.(dp0
Vd2kwnuc
p1
I1
sVcyijvsu
p2
I1
s.(dp0
Vd2xja9q
p1
I1
sVcyijvsu
p2
I1
s.(dp0
Vd3hnyfd
p1
I1
sVcyijvsu
p2
I1
s.(dp0
Vd3i8x4u
p1
I1
sVcyijvsu
p2
I1
s.(dp0
Vd3rzvan
p1
I1
sVcyijvsu
p2
I1
s.(dp0
Vd3veeru
p1
I1
sVcyijvsu
p2
I1
s.(dp0
Vd4i1iek
p1
I1
sVcyijvsu
p2
I1
s.(dp0
Vd4qo7ie
p1
I1
sVcyijvsu
p2
I1
s.(dp0
Vcyijvsu
p1
I1
sVd584yyq
p2
I1
s.(dp0
Vd5bklst
p1
I1
sVcyijvsu
p2
I1
s.(dp0
Vd5rilbz
p1
I1
sVcyijvsu
p2
I1
s.(dp0
Vd5t12fq
p1
I1
sVcyijvsu
p2
I1
s.(dp0
Vd5vro87
p1
I1
sVcyijvsu
p2
I1
s.(dp0
Vd6vmmlx
p1
I1
sVcyijvsu
p2
I1
s.(dp0
Vd71ry1s
p1
I1
sVcyijvsu
p2
I1
s.(dp0
Vd7dl31f
p1
I1
sVcyijvsu
p2
I1
s.(dp0
Vd7stfcg
p1
I1
sVcyijvsu
p2
I1
s.(dp0
Vcyijvsu
p1
I1
sVd7sxife
p2
I1
s.(dp0
Vd7yet7x
p1
I1
sVcyijvsu
p2
I1
s.(dp0
Vd82o9qc
p1
I1
sVcyijvsu
p2
I1
s.(dp0
Vd85o3j4
p1
I1
sVcyijvsu
p2
I1
s.(dp0
Vd8rimi0
p1
I1
sVcyijvsu
p2
I1
s.(dp0
Vd8vqxau
p1
I1
sVcyijvsu
p2
I1
s.(dp0
Vd8vqxau
p1
I1
sVcyijvsu
p2
I1
s.(dp0
Vd8vqxau
p1
I1
sVcyijvsu
p2
I1
s.(dp0
Vd919iaq
p1
I1
sVcyijvsu
p2
I1
s.(dp0
Vd9d1ryk
p1
I1
sVcyijvsu
p2
I1
s.(dp0
Vd9fvw2c
p1
I1
sVcyijvsu
p2
I1
s.(dp0
Vda3wac4
p1
I1
sVcyijvsu
p2
I1
s.(dp0
Vdb777r9
p1
I1
sVcyijvsu
p2
I1
s.(dp0
Vcyijvsu
p1
I1
sVdbso6cw
p2
I1
s.(dp0
Vdcauw4a
p1
I1
sVcyijvsu
p2
I1
s.(dp0
Vdcovatz
p1
I1
sVcyijvsu
p2
I1
s.(dp0
Vdd5hcy4
p1
I1
sVcyijvsu
p2
I1
s.(dp0
Vcyijvsu
p1
I1
sVdd8wwlv
p2
I1
s.(dp0
Vddoe7cl
p1
I1
sVcyijvsu
p2
I1
s.(dp0
Vde2lnge
p1
I1
sVcyijvsu
p2
I1
s.(dp0
Vcyijvsu
p1
I1
sVdem03ox
p2
I1
s.(dp0
Vdemn45q
p1
I1
sVcyijvsu
p2
I1
s.(dp0
Vdewbay6
p1
I1
sVcyijvsu
p2
I1
s.(dp0
Vdeya85j
p1
I1
sVcyijvsu
p2
I1
s.(dp0
Vdeya85j
p1
I1
sVcyijvsu
p2
I1
s.(dp0
Vdezxd8z
p1
I1
sVcyijvsu
p2
I1
s.(dp0
Vdf8vj37
p1
I1
sVcyijvsu
p2
I1
s.(dp0
Vdfa2orn
p1
I1
sVcyijvsu
p2
I1
s.(dp0
Vdfey0iu
p1
I1
sVcyijvsu
p2
I1
s.(dp0
Vdflpb6v
p1
I1
sVcyijvsu
p2
I1
s.(dp0
Vcyijvsu
p1
I1
sVdfreh9p
p2
I1
s.(dp0
Vdg1ap5w
p1
I1
sVcyijvsu
p2
I1
s.(dp0
Vdgkvc0q
p1
I1
sVcyijvsu
p2
I1
s.(dp0
Vdgs3cnc
p1
I1
sVcyijvsu
p2
I1
s.(dp0
Vcyijvsu
p1
I1
sVdgx3nxv
p2
I1
s.(dp0
Vdh3942z
p1
I1
sVcyijvsu
p2
I1
s.(dp0
Vdh8wjdy
p1
I1
sVcyijvsu
p2
I1
s.(dp0
Vcyijvsu
p1
I1
sVdhr038m
p2
I1
s.(dp0
Vdi369sl
p1
I1
sVcyijvsu
p2
I1
s.(dp0
Vdid6n9y
p1
I1
sVcyijvsu
p2
I1
s.(dp0
Vdjscgrg
p1
I1
sVcyijvsu
p2
I1
s.(dp0
Vdjuyu2j
p1
I1
sVcyijvsu
p2
I1
s.(dp0
Vdn0eylv
p1
I1
sVcyijvsu
p2
I1
s.(dp0
Vdn0eylv
p1
I1
sVcyijvsu
p2
I1
s.(dp0
Vdn10xk8
p1
I1
sVcyijvsu
p2
I1
s.(dp0
Vdn10xk8
p1
I1
sVcyijvsu
p2
I1
s.(dp0
Vcyijvsu
p1
I1
sVdn918k5
p2
I1
s.(dp0
Vdo0eerl
p1
I1
sVcyijvsu
p2
I1
s.