(dp0
Vd1lt02m
p1
I1
s.(dp0
Vd3pcd4g
p1
I1
sVd1lt02m
p2
I1
s.(dp0
Vd5uutfa
p1
I1
sVd1lt02m
p2
I1
s.(dp0
Vd5uutfa
p1
I1
sVd1lt02m
p2
I1
s.(dp0
Vd5veyv8
p1
I1
sVd1lt02m
p2
I1
s.(dp0
Vd5veyv8
p1
I1
sVd1lt02m
p2
I1
s.(dp0
Vdoaevei
p1
I1
sVd1lt02m
p2
I1
s.