(dp0
Vcyhzuz7
p1
I1
s.(dp0
Vcyie7b0
p1
I1
sVcyhzuz7
p2
I1
s.(dp0
Vcyhzuz7
p1
I1
sVcyjiwjt
p2
I1
s.(dp0
Vcyhzuz7
p1
I1
sVcyjs9c3
p2
I1
s.(dp0
Vcyhzuz7
p1
I1
sVcyk0bou
p2
I1
s.(dp0
Vcyhzuz7
p1
I1
sVcykzqze
p2
I1
s.(dp0
Vcyhzuz7
p1
I1
sVcyl3261
p2
I1
s.(dp0
Vcyhzuz7
p1
I1
sVcym3nqx
p2
I1
s.(dp0
Vcyhzuz7
p1
I1
sVcynp57z
p2
I1
s.(dp0
Vcyhzuz7
p1
I1
sVcyo8b0c
p2
I1
s.(dp0
Vcyhzuz7
p1
I1
sVcyo8ghm
p2
I1
s.(dp0
Vcyhzuz7
p1
I1
sVcyr5i3g
p2
I1
s.(dp0
Vcyhzuz7
p1
I1
sVcyr5i3g
p2
I1
s.(dp0
Vcysnthf
p1
I1
sVcyhzuz7
p2
I1
s.(dp0
Vcyhzuz7
p1
I1
sVcyu9ips
p2
I1
s.(dp0
Vcyhzuz7
p1
I1
sVcyw86f9
p2
I1
s.(dp0
Vcyhzuz7
p1
I1
sVcyw8als
p2
I1
s.(dp0
Vcyhzuz7
p1
I1
sVcywjnrr
p2
I1
s.(dp0
Vcyx3k1z
p1
I1
sVcyhzuz7
p2
I1
s.(dp0
Vcyhzuz7
p1
I1
sVcyxltok
p2
I1
s.(dp0
Vcyhzuz7
p1
I1
sVcyzc1q9
p2
I1
s.(dp0
Vcyhzuz7
p1
I1
sVcyzt6ks
p2
I1
s.(dp0
Vcyhzuz7
p1
I1
sVcyzzf5w
p2
I1
s.(dp0
Vcyhzuz7
p1
I1
sVcz1cv6u
p2
I1
s.(dp0
Vcyhzuz7
p1
I1
sVcz2blrj
p2
I1
s.(dp0
Vcyhzuz7
p1
I1
sVcz5b1fl
p2
I1
s.(dp0
Vcyhzuz7
p1
I1
sVcz68klx
p2
I1
s.(dp0
Vcyhzuz7
p1
I1
sVcz7ih5d
p2
I1
s.(dp0
Vcyhzuz7
p1
I1
sVcz92qyf
p2
I1
s.(dp0
Vcyhzuz7
p1
I1
sVcza70q9
p2
I1
s.(dp0
Vcyhzuz7
p1
I1
sVczcn4o1
p2
I1
s.(dp0
Vcyhzuz7
p1
I1
sVczej3p2
p2
I1
s.(dp0
Vcyhzuz7
p1
I1
sVczfh5rj
p2
I1
s.(dp0
Vczgbr1z
p1
I1
sVcyhzuz7
p2
I1
s.(dp0
Vcyhzuz7
p1
I1
sVczgcxgb
p2
I1
s.(dp0
Vcyhzuz7
p1
I1
sVczh31nb
p2
I1
s.(dp0
Vcyhzuz7
p1
I1
sVczhsbyy
p2
I1
s.(dp0
Vcyhzuz7
p1
I1
sVczhxayo
p2
I1
s.(dp0
Vcyhzuz7
p1
I1
sVczhz4ee
p2
I1
s.(dp0
Vczjp7ul
p1
I1
sVcyhzuz7
p2
I1
s.(dp0
Vcyhzuz7
p1
I1
sVczjs6vq
p2
I1
s.(dp0
Vcyhzuz7
p1
I1
sVczkymp5
p2
I1
s.(dp0
Vcyhzuz7
p1
I1
sVczm7qpe
p2
I1
s.(dp0
Vcyhzuz7
p1
I1
sVczmduez
p2
I1
s.(dp0
Vcyhzuz7
p1
I1
sVczoua1t
p2
I1
s.(dp0
Vcyhzuz7
p1
I1
sVczov2fx
p2
I1
s.(dp0
Vcyhzuz7
p1
I1
sVczqz3qs
p2
I1
s.(dp0
Vcyhzuz7
p1
I1
sVczsc7fv
p2
I1
s.(dp0
Vcyhzuz7
p1
I1
sVczshha7
p2
I1
s.(dp0
Vcyhzuz7
p1
I1
sVczt7m74
p2
I1
s.(dp0
Vcyhzuz7
p1
I1
sVczx51ev
p2
I1
s.(dp0
Vcyhzuz7
p1
I1
sVczxmqfo
p2
I1
s.(dp0
Vcyhzuz7
p1
I1
sVczze7al
p2
I1
s.(dp0
Vcyhzuz7
p1
I1
sVd00kg6p
p2
I1
s.(dp0
Vcyhzuz7
p1
I1
sVd03jzaw
p2
I1
s.(dp0
Vcyhzuz7
p1
I1
sVd03ko2z
p2
I1
s.(dp0
Vcyhzuz7
p1
I1
sVd048guh
p2
I1
s.(dp0
Vcyhzuz7
p1
I1
sVd048guh
p2
I1
s.(dp0
Vcyhzuz7
p1
I1
sVd048guh
p2
I1
s.(dp0
Vcyhzuz7
p1
I1
sVd058pmh
p2
I1
s.(dp0
Vcyhzuz7
p1
I1
sVd08502e
p2
I1
s.(dp0
Vcyhzuz7
p1
I1
sVd09s8qi
p2
I1
s.(dp0
Vcyhzuz7
p1
I1
sVd0a1kvf
p2
I1
s.(dp0
Vcyhzuz7
p1
I1
sVd0eoaf7
p2
I1
s.(dp0
Vcyhzuz7
p1
I1
sVd0j0kb4
p2
I1
s.(dp0
Vcyhzuz7
p1
I1
sVd0ntz0b
p2
I1
s.(dp0
Vd0qd74u
p1
I1
sVcyhzuz7
p2
I1
s.(dp0
Vcyhzuz7
p1
I1
sVd0qr3lc
p2
I1
s.(dp0
Vcyhzuz7
p1
I1
sVd0rs51c
p2
I1
s.(dp0
Vcyhzuz7
p1
I1
sVd0rucsq
p2
I1
s.(dp0
Vcyhzuz7
p1
I1
sVd0tglmk
p2
I1
s.(dp0
Vcyhzuz7
p1
I1
sVd0uhjtz
p2
I1
s.(dp0
Vcyhzuz7
p1
I1
sVd0v4d7p
p2
I1
s.(dp0
Vcyhzuz7
p1
I1
sVd0vo9rb
p2
I1
s.(dp0
Vcyhzuz7
p1
I1
sVd0vo9rb
p2
I1
s.(dp0
Vcyhzuz7
p1
I1
sVd0yeepv
p2
I1
s.(dp0
Vcyhzuz7
p1
I1
sVd13nolp
p2
I1
s.(dp0
Vcyhzuz7
p1
I1
sVd1562cw
p2
I1
s.(dp0
Vcyhzuz7
p1
I1
sVd157mq8
p2
I1
s.(dp0
Vcyhzuz7
p1
I1
sVd15qbz9
p2
I1
s.(dp0
Vcyhzuz7
p1
I1
sVd16bnwi
p2
I1
s.(dp0
Vd1amij5
p1
I1
sVcyhzuz7
p2
I1
s.(dp0
Vcyhzuz7
p1
I1
sVd1dm38t
p2
I1
s.(dp0
Vcyhzuz7
p1
I1
sVd1dnj7m
p2
I1
s.(dp0
Vcyhzuz7
p1
I1
sVd1exuc2
p2
I1
s.(dp0
Vcyhzuz7
p1
I1
sVd1fjl8f
p2
I1
s.(dp0
Vcyhzuz7
p1
I1
sVd1g63vn
p2
I1
s.(dp0
Vd1lyzrk
p1
I1
sVcyhzuz7
p2
I1
s.(dp0
Vcyhzuz7
p1
I1
sVd1mbhya
p2
I1
s.(dp0
Vcyhzuz7
p1
I1
sVd1mbhya
p2
I1
s.(dp0
Vcyhzuz7
p1
I1
sVd1mfthw
p2
I1
s.(dp0
Vcyhzuz7
p1
I1
sVd1oruys
p2
I1
s.(dp0
Vcyhzuz7
p1
I1
sVd1p2cj4
p2
I1
s.(dp0
Vd1q6uf8
p1
I1
sVcyhzuz7
p2
I1
s.(dp0
Vd1q6uf8
p1
I1
sVcyhzuz7
p2
I1
s.(dp0
Vd1q6uf8
p1
I1
sVcyhzuz7
p2
I1
s.(dp0
Vcyhzuz7
p1
I1
sVd1qgffm
p2
I1
s.(dp0
Vcyhzuz7
p1
I1
sVd1rkv62
p2
I1
s.(dp0
Vcyhzuz7
p1
I1
sVd1udacl
p2
I1
s.(dp0
Vcyhzuz7
p1
I1
sVd1uv3zr
p2
I1
s.(dp0
Vd1v5gj8
p1
I1
sVcyhzuz7
p2
I1
s.(dp0
Vcyhzuz7
p1
I1
sVd200shp
p2
I1
s.(dp0
Vcyhzuz7
p1
I1
sVd20x0q4
p2
I1
s.(dp0
Vcyhzuz7
p1
I1
sVd26spdu
p2
I1
s.(dp0
Vcyhzuz7
p1
I1
sVd27g9fg
p2
I1
s.(dp0
Vcyhzuz7
p1
I1
sVd27z9zn
p2
I1
s.(dp0
Vcyhzuz7
p1
I1
sVd2a5pht
p2
I1
s.(dp0
Vd2c2ida
p1
I1
sVcyhzuz7
p2
I1
s.(dp0
Vcy(dp0
Vcyhzuz7
p1
I1
sVdkwunb4
p2
I1
s.