(dp0
Vcyj41vw
p1
I1
s.(dp0
Vcyj41vw
p1
I2
s.(dp0
Vcyj41vw
p1
I1
sVcyj8qez
p2
I1
s.(dp0
Vcyj41vw
p1
I1
sVcyl9cms
p2
I1
s.(dp0
Vcyj41vw
p1
I1
sVcylb43z
p2
I1
s.(dp0
Vcyj41vw
p1
I1
sVcylu8cp
p2
I1
s.(dp0
Vcyj41vw
p1
I1
sVcynyy4d
p2
I1
s.(dp0
Vcyj41vw
p1
I1
sVcyo670b
p2
I1
s.(dp0
Vcyj41vw
p1
I1
sVcypke92
p2
I1
s.(dp0
Vcyj41vw
p1
I1
sVcypxptn
p2
I1
s.(dp0
Vcyj41vw
p1
I1
sVcyr39mo
p2
I1
s.(dp0
Vcyj41vw
p1
I1
sVcyr44lx
p2
I1
s.(dp0
Vcyj41vw
p1
I1
sVcyr44lx
p2
I1
s.(dp0
Vcyj41vw
p1
I1
sVcyrvbl8
p2
I1
s.(dp0
Vcyj41vw
p1
I1
sVcysbqfb
p2
I1
s.(dp0
Vcyj41vw
p1
I1
sVcysutgx
p2
I1
s.(dp0
Vcyj41vw
p1
I1
sVcytxhef
p2
I1
s.(dp0
Vcyj41vw
p1
I1
sVcywthur
p2
I1
s.(dp0
Vcyj41vw
p1
I1
sVcyx516f
p2
I1
s.(dp0
Vcyj41vw
p1
I1
sVcyx516f
p2
I1
s.(dp0
Vcyj41vw
p1
I1
sVcyxnj9k
p2
I1
s.(dp0
Vcyj41vw
p1
I1
sVcyxphd0
p2
I1
s.(dp0
Vcyj41vw
p1
I1
sVcyxwqpx
p2
I1
s.(dp0
Vcyj41vw
p1
I1
sVcz0a98b
p2
I1
s.(dp0
Vcyj41vw
p1
I1
sVcz0git3
p2
I1
s.(dp0
Vcyj41vw
p1
I1
sVcz0git3
p2
I1
s.(dp0
Vcyj41vw
p1
I1
sVcz26r70
p2
I1
s.(dp0
Vcyj41vw
p1
I1
sVcz2jwa7
p2
I1
s.(dp0
Vcyj41vw
p1
I1
sVcz2jwa7
p2
I1
s.(dp0
Vcyj41vw
p1
I1
sVcz33x3v
p2
I1
s.(dp0
Vcyj41vw
p1
I1
sVcz3z2cg
p2
I1
s.(dp0
Vcyj41vw
p1
I1
sVcz48f9r
p2
I1
s.(dp0
Vcyj41vw
p1
I1
sVcz4hwok
p2
I1
s.(dp0
Vcyj41vw
p1
I1
sVcz62tfs
p2
I1
s.(dp0
Vcyj41vw
p1
I1
sVcz8w5lq
p2
I1
s.(dp0
Vcyj41vw
p1
I1
sVcz93njw
p2
I1
s.(dp0
Vczaijd2
p1
I1
sVcyj41vw
p2
I1
s.(dp0
Vcyj41vw
p1
I1
sVczbb3cf
p2
I1
s.(dp0
Vcyj41vw
p1
I1
sVczbssza
p2
I1
s.(dp0
Vczcxz58
p1
I1
sVcyj41vw
p2
I1
s.(dp0
Vcyj41vw
p1
I1
sVczd6aq9
p2
I1
s.(dp0
Vczgmsin
p1
I1
sVcyj41vw
p2
I1
s.(dp0
Vcyj41vw
p1
I1
sVczgr3wb
p2
I1
s.(dp0
Vczgx0tm
p1
I1
sVcyj41vw
p2
I1
s.(dp0
Vczj6q6y
p1
I1
sVcyj41vw
p2
I1
s.(dp0
Vcyj41vw
p1
I1
sVczk2wh6
p2
I1
s.(dp0
Vcyj41vw
p1
I1
sVczn6jsz
p2
I1
s.(dp0
Vcyj41vw
p1
I1
sVczo1zsm
p2
I1
s.(dp0
Vcyj41vw
p1
I1
sVczo1zsm
p2
I1
s.(dp0
Vcyj41vw
p1
I1
sVczpc031
p2
I1
s.(dp0
Vcyj41vw
p1
I1
sVczpj0yc
p2
I1
s.(dp0
Vcyj41vw
p1
I1
sVczq9yrq
p2
I1
s.(dp0
Vcyj41vw
p1
I1
sVczui2ee
p2
I1
s.(dp0
Vcyj41vw
p1
I1
sVczuy42j
p2
I1
s.(dp0
Vcyj41vw
p1
I1
sVczuzk28
p2
I1
s.(dp0
Vcyj41vw
p1
I1
sVczuzk28
p2
I1
s.(dp0
Vcyj41vw
p1
I1
sVczv4wbi
p2
I1
s.(dp0
Vcyj41vw
p1
I1
sVczvg6p8
p2
I1
s.(dp0
Vcyj41vw
p1
I1
sVczw1lyj
p2
I1
s.(dp0
Vcyj41vw
p1
I1
sVczw3klr
p2
I1
s.(dp0
Vczw9cj3
p1
I1
sVcyj41vw
p2
I1
s.(dp0
Vcyj41vw
p1
I1
sVczwuj0s
p2
I1
s.(dp0
Vcyj41vw
p1
I1
sVczxnlis
p2
I1
s.(dp0
Vcyj41vw
p1
I1
sVczz12x0
p2
I1
s.(dp0
Vcyj41vw
p1
I1
sVczz12x0
p2
I1
s.(dp0
Vcyj41vw
p1
I1
sVczzw776
p2
I1
s.(dp0
Vcyj41vw
p1
I1
sVd00c80q
p2
I1
s.(dp0
Vcyj41vw
p1
I1
sVd01zbpd
p2
I1
s.(dp0
Vcyj41vw
p1
I1
sVd02fjrm
p2
I1
s.(dp0
Vcyj41vw
p1
I1
sVd02h6ff
p2
I1
s.(dp0
Vcyj41vw
p1
I1
sVd02h6ff
p2
I1
s.(dp0
Vcyj41vw
p1
I1
sVd02hu46
p2
I1
s.(dp0
Vcyj41vw
p1
I1
sVd02vfbx
p2
I1
s.(dp0
Vcyj41vw
p1
I1
sVd03gdh3
p2
I1
s.(dp0
Vcyj41vw
p1
I1
sVd04cdfi
p2
I1
s.(dp0
Vcyj41vw
p1
I1
sVd05230k
p2
I1
s.(dp0
Vcyj41vw
p1
I1
sVd05xb6p
p2
I1
s.(dp0
Vcyj41vw
p1
I1
sVd078933
p2
I1
s.(dp0
Vcyj41vw
p1
I1
sVd087xjg
p2
I1
s.(dp0
Vcyj41vw
p1
I1
sVd08eaq7
p2
I1
s.(dp0
Vcyj41vw
p1
I1
sVd09hrl2
p2
I1
s.(dp0
Vcyj41vw
p1
I1
sVd0aeuem
p2
I1
s.(dp0
Vcyj41vw
p1
I1
sVd0bczpq
p2
I1
s.(dp0
Vcyj41vw
p1
I1
sVd0cf11a
p2
I1
s.(dp0
Vcyj41vw
p1
I1
sVd0cfs3u
p2
I1
s.(dp0
Vcyj41vw
p1
I1
sVd0elj0d
p2
I1
s.(dp0
Vcyj41vw
p1
I1
sVd0fm6n3
p2
I1
s.(dp0
Vcyj41vw
p1
I1
sVd0fz6tv
p2
I1
s.(dp0
Vcyj41vw
p1
I1
sVd0g5ync
p2
I1
s.(dp0
Vcyj41vw
p1
I1
sVd0iekge
p2
I1
s.(dp0
Vcyj41vw
p1
I1
sVd0kokhh
p2
I1
s.(dp0
Vcyj41vw
p1
I1
sVd0lumo1
p2
I1
s.(dp0
Vd0mlbo9
p1
I1
sVcyj41vw
p2
I1
s.(dp0
Vd0mlbo9
p1
I1
sVcyj41vw
p2
I1
s.(dp0
Vcyj41vw
p1
I1
sVd0qrhp5
p2
I1
s.(dp0
Vcyj41vw
p1
I1
sVd0qtzu0
p2
I1
s.(dp0
Vcyj41vw
p1
I1
sVd0qtzu0
p2
I1
s.(dp0
Vcyj41vw
p1
I1
sVd0qu3je
p2
I1
s.(dp0
Vcyj41vw
p1
I1
sVd0qu3je
p2
I1
s.(dp0
Vcyj41vw
p1
I1
sVd0ruhyn
p2
I1
s.(dp0
Vcyj41vw
p1
I1
sVd0stbs0
p2
I1
s.(dp0
Vcyj41vw
p1
I1
sVd0v83p2
p2
I1
s.(dp0
Vcyj41vw
p1
I1
sVd0ydn2l
p2
I1
s.(dp0
Vd0yf4z2
p1
I1
sVcyj41vw
p2
I1
s.(dp0
Vcyj41vw
p1
I1
sVd0yxkiu
p2
I1
s.(dp0
Vcyj41vw
p1
I1
sVd10o9tz
p2
I1
s.(dp0
Vcyj41vw
p1
I1
sVd10o9tz
p2
I1
s.(dp0
Vcyj41vw
p1
I1
sVd10rbr9
p2
I1
s.(dp0
Vd13ixa3
p1
I1
sVcy(dp0
Vcyj41vw
p1
I1
sVdp1bqk2
p2
I1
s.