(dp0
Vcyjv7sl
p1
I1
s.(dp0
Vcyjv7sl
p1
I1
sVcyjz9kr
p2
I1
s.(dp0
Vcyk8h2v
p1
I1
sVcyjv7sl
p2
I1
s.(dp0
Vcyjv7sl
p1
I1
sVcyl35cw
p2
I1
s.(dp0
Vcyjv7sl
p1
I1
sVcymb6o8
p2
I1
s.(dp0
Vcyjv7sl
p1
I1
sVcynb1pe
p2
I1
s.(dp0
Vcyjv7sl
p1
I1
sVcynb1pe
p2
I1
s.(dp0
Vcyjv7sl
p1
I1
sVcynm0pk
p2
I1
s.(dp0
Vcyjv7sl
p1
I1
sVcynm0pk
p2
I1
s.(dp0
Vcyjv7sl
p1
I1
sVcynz810
p2
I1
s.(dp0
Vcyjv7sl
p1
I1
sVcypmacs
p2
I1
s.(dp0
Vcyjv7sl
p1
I1
sVcypmc21
p2
I1
s.(dp0
Vcyjv7sl
p1
I1
sVcyq4oxy
p2
I1
s.(dp0
Vcyjv7sl
p1
I1
sVcyq4oxy
p2
I1
s.(dp0
Vcyjv7sl
p1
I1
sVcyqc00y
p2
I1
s.(dp0
Vcyjv7sl
p1
I1
sVcyt1nfz
p2
I1
s.(dp0
Vcyjv7sl
p1
I1
sVcytvosf
p2
I1
s.(dp0
Vcyjv7sl
p1
I1
sVcytw65m
p2
I1
s.(dp0
Vcyjv7sl
p1
I1
sVcyvhmq2
p2
I1
s.(dp0
Vcyjv7sl
p1
I1
sVcyvhmq2
p2
I1
s.(dp0
Vcyjv7sl
p1
I1
sVcyvhxot
p2
I1
s.(dp0
Vcyjv7sl
p1
I1
sVcyvhxot
p2
I1
s.(dp0
Vcyjv7sl
p1
I1
sVcyvkkcy
p2
I1
s.(dp0
Vcyjv7sl
p1
I1
sVcyzctbr
p2
I1
s.(dp0
Vcyjv7sl
p1
I1
sVcz2d1kb
p2
I1
s.(dp0
Vcyjv7sl
p1
I1
sVcz2d1kb
p2
I1
s.(dp0
Vcyjv7sl
p1
I1
sVcz2d1kb
p2
I1
s.(dp0
Vcyjv7sl
p1
I1
sVcz2d1kb
p2
I1
s.(dp0
Vcyjv7sl
p1
I1
sVcz3pecg
p2
I1
s.(dp0
Vcyjv7sl
p1
I1
sVcz3qxzq
p2
I1
s.(dp0
Vcyjv7sl
p1
I1
sVcz82ycj
p2
I1
s.(dp0
Vcyjv7sl
p1
I1
sVcz8kcln
p2
I1
s.(dp0
Vcyjv7sl
p1
I1
sVczamdmg
p2
I1
s.(dp0
Vczao6f2
p1
I1
sVcyjv7sl
p2
I1
s.(dp0
Vcyjv7sl
p1
I1
sVczaoqac
p2
I1
s.(dp0
Vcyjv7sl
p1
I1
sVczhsbyy
p2
I1
s.(dp0
Vcyjv7sl
p1
I1
sVczht5z5
p2
I1
s.(dp0
Vcyjv7sl
p1
I1
sVcziah1q
p2
I1
s.(dp0
Vcyjv7sl
p1
I1
sVczitk4q
p2
I1
s.(dp0
Vcyjv7sl
p1
I1
sVczjz2ov
p2
I1
s.(dp0
Vczki1ip
p1
I1
sVcyjv7sl
p2
I1
s.(dp0
Vcyjv7sl
p1
I1
sVczlby6u
p2
I1
s.(dp0
Vcyjv7sl
p1
I1
sVczm2m9e
p2
I1
s.(dp0
Vcyjv7sl
p1
I1
sVczm2m9e
p2
I1
s.(dp0
Vcyjv7sl
p1
I1
sVczm2m9e
p2
I1
s.(dp0
Vcyjv7sl
p1
I1
sVczm96z5
p2
I1
s.(dp0
Vcyjv7sl
p1
I1
sVczmyafa
p2
I1
s.(dp0
Vcyjv7sl
p1
I1
sVczod8iv
p2
I1
s.(dp0
Vcyjv7sl
p1
I1
sVczsu12w
p2
I1
s.(dp0
Vcyjv7sl
p1
I1
sVczug6yz
p2
I1
s.(dp0
Vcyjv7sl
p1
I1
sVczvqcr1
p2
I1
s.(dp0
Vcyjv7sl
p1
I1
sVczvqcr1
p2
I1
s.(dp0
Vcyjv7sl
p1
I1
sVczvqisg
p2
I1
s.(dp0
Vcyjv7sl
p1
I1
sVczym3nu
p2
I1
s.(dp0
Vczziwjj
p1
I1
sVcyjv7sl
p2
I1
s.(dp0
Vczziwjj
p1
I1
sVcyjv7sl
p2
I1
s.(dp0
Vczziwjj
p1
I1
sVcyjv7sl
p2
I1
s.(dp0
Vcyjv7sl
p1
I1
sVczzorfb
p2
I1
s.(dp0
Vcyjv7sl
p1
I1
sVd02o5wr
p2
I1
s.(dp0
Vcyjv7sl
p1
I1
sVd05cxbv
p2
I1
s.(dp0
Vcyjv7sl
p1
I1
sVd065b0z
p2
I1
s.(dp0
Vcyjv7sl
p1
I1
sVd065b0z
p2
I1
s.(dp0
Vcyjv7sl
p1
I1
sVd065b0z
p2
I1
s.(dp0
Vcyjv7sl
p1
I1
sVd086lsb
p2
I1
s.(dp0
Vd0adqpo
p1
I1
sVcyjv7sl
p2
I1
s.(dp0
Vcyjv7sl
p1
I1
sVd0f6ead
p2
I1
s.(dp0
Vcyjv7sl
p1
I1
sVd0jxtwk
p2
I1
s.(dp0
Vcyjv7sl
p1
I1
sVd0ko2hz
p2
I1
s.(dp0
Vcyjv7sl
p1
I1
sVd0lkzol
p2
I1
s.(dp0
Vcyjv7sl
p1
I1
sVd0mmij5
p2
I1
s.(dp0
Vcyjv7sl
p1
I1
sVd0mmv72
p2
I1
s.(dp0
Vcyjv7sl
p1
I1
sVd0tfwed
p2
I1
s.(dp0
Vcyjv7sl
p1
I1
sVd0xvzvh
p2
I1
s.(dp0
Vcyjv7sl
p1
I1
sVd0xvzvh
p2
I1
s.(dp0
Vcyjv7sl
p1
I1
sVd0xygje
p2
I1
s.(dp0
Vcyjv7sl
p1
I1
sVd0xyicc
p2
I1
s.(dp0
Vcyjv7sl
p1
I1
sVd0z1ig9
p2
I1
s.(dp0
Vcyjv7sl
p1
I1
sVd10aitz
p2
I1
s.(dp0
Vcyjv7sl
p1
I1
sVd10frc2
p2
I1
s.(dp0
Vcyjv7sl
p1
I1
sVd10fxpc
p2
I1
s.(dp0
Vcyjv7sl
p1
I1
sVd10fxpc
p2
I1
s.(dp0
Vcyjv7sl
p1
I1
sVd10llvd
p2
I1
s.(dp0
Vcyjv7sl
p1
I1
sVd113i27
p2
I1
s.(dp0
Vcyjv7sl
p1
I1
sVd113ob1
p2
I1
s.(dp0
Vcyjv7sl
p1
I1
sVd113ob1
p2
I1
s.(dp0
Vcyjv7sl
p1
I1
sVd125mb8
p2
I1
s.(dp0
Vcyjv7sl
p1
I1
sVd16i67p
p2
I1
s.(dp0
Vcyjv7sl
p1
I1
sVd1826co
p2
I1
s.(dp0
Vcyjv7sl
p1
I1
sVd1al4n4
p2
I1
s.(dp0
Vcyjv7sl
p1
I1
sVd1al4n4
p2
I1
s.(dp0
Vcyjv7sl
p1
I1
sVd1bs841
p2
I1
s.(dp0
Vcyjv7sl
p1
I1
sVd1bskby
p2
I1
s.(dp0
Vcyjv7sl
p1
I1
sVd1bskby
p2
I1
s.(dp0
Vcyjv7sl
p1
I1
sVd1bskby
p2
I1
s.(dp0
Vcyjv7sl
p1
I1
sVd1hcv86
p2
I1
s.(dp0
Vcyjv7sl
p1
I1
sVd1ixbbp
p2
I1
s.(dp0
Vd1nnyhy
p1
I1
sVcyjv7sl
p2
I1
s.(dp0
Vcyjv7sl
p1
I1
sVd1oxdtn
p2
I1
s.(dp0
Vcyjv7sl
p1
I1
sVd1q063m
p2
I1
s.(dp0
Vcyjv7sl
p1
I1
sVd1q063m
p2
I1
s.(dp0
Vcyjv7sl
p1
I1
sVd1qgu5p
p2
I1
s.(dp0
Vcyjv7sl
p1
I1
sVd1qgu5p
p2
I1
s.(dp0
Vcyjv7sl
p1
I1
sVd1qo0wo
p2
I1
s.(dp0
Vcyjv7sl
p1
I1
sVd1rqbua
p2
I1
s.(dp0
Vcyjv7sl
p1
I1
sVd1s8ix3
p2
I1
s.(dp0
Vd1taspd
p1
I1
sVcyjv7sl
p2
I1
s.(dp0
Vcyjv7sl
p1
I1
sVd1uucpp
p2
I1
s.(dp0
Vcyjv7sl
p1
I1
sVd1uulsq
p2
I1
s.(dp0
Vcy(dp0
Vcyjv7sl
p1
I1
sVdkvu04f
p2
I1
s.