(dp0
Vcyi9pk6
p1
I1
s.(dp0
Vcyi9pk6
p1
I2
s.(dp0
Vcyi9pk6
p1
I1
sVcylk7zm
p2
I1
s.(dp0
Vcyi9pk6
p1
I1
sVcymzaws
p2
I1
s.(dp0
Vcyob7jz
p1
I1
sVcyi9pk6
p2
I1
s.(dp0
Vcyi9pk6
p1
I1
sVcz1ew8u
p2
I1
s.(dp0
Vd06k5vg
p1
I1
sVcyi9pk6
p2
I1
s.(dp0
Vd0k6qxo
p1
I1
sVcyi9pk6
p2
I1
s.(dp0
Vd0k6qxo
p1
I1
sVcyi9pk6
p2
I1
s.(dp0
Vd0k6qxo
p1
I1
sVcyi9pk6
p2
I1
s.(dp0
Vcyi9pk6
p1
I1
sVd0p82va
p2
I1
s.(dp0
Vcyi9pk6
p1
I1
sVd10ecjd
p2
I1
s.(dp0
Vd15g7wv
p1
I1
sVcyi9pk6
p2
I1
s.(dp0
Vcyi9pk6
p1
I1
sVd192fqx
p2
I1
s.(dp0
Vcyi9pk6
p1
I1
sVd1wudil
p2
I1
s.(dp0
Vcyi9pk6
p1
I1
sVd2u1lb2
p2
I1
s.(dp0
Vd31buac
p1
I1
sVcyi9pk6
p2
I1
s.(dp0
Vd38ms7o
p1
I1
sVcyi9pk6
p2
I1
s.(dp0
Vcyi9pk6
p1
I1
sVd3bt9k5
p2
I1
s.(dp0
Vcyi9pk6
p1
I1
sVd3k93gi
p2
I1
s.(dp0
Vcyi9pk6
p1
I1
sVd3ocu7s
p2
I1
s.(dp0
Vcyi9pk6
p1
I1
sVd3ocu7s
p2
I1
s.(dp0
Vcyi9pk6
p1
I1
sVd3ocu7s
p2
I1
s.(dp0
Vcyi9pk6
p1
I1
sVd48hsmv
p2
I1
s.(dp0
Vd4f1ie1
p1
I1
sVcyi9pk6
p2
I1
s.(dp0
Vcyi9pk6
p1
I1
sVd4w84wq
p2
I1
s.(dp0
Vcyi9pk6
p1
I1
sVd521ybt
p2
I1
s.(dp0
Vcyi9pk6
p1
I1
sVd5dii17
p2
I1
s.(dp0
Vcyi9pk6
p1
I1
sVd5unw22
p2
I1
s.(dp0
Vcyi9pk6
p1
I1
sVd5vvqf9
p2
I1
s.(dp0
Vcyi9pk6
p1
I1
sVd6e6kjr
p2
I1
s.(dp0
Vcyi9pk6
p1
I1
sVd6hs1pz
p2
I1
s.(dp0
Vcyi9pk6
p1
I1
sVd6hs1pz
p2
I1
s.(dp0
Vcyi9pk6
p1
I1
sVd6wha5s
p2
I1
s.(dp0
Vcyi9pk6
p1
I1
sVd7g8ii4
p2
I1
s.(dp0
Vcyi9pk6
p1
I1
sVd7z81w3
p2
I1
s.(dp0
Vcyi9pk6
p1
I1
sVd800y08
p2
I1
s.(dp0
Vcyi9pk6
p1
I1
sVd860cz9
p2
I1
s.(dp0
Vd8bby0v
p1
I1
sVcyi9pk6
p2
I1
s.(dp0
Vd8bby0v
p1
I1
sVcyi9pk6
p2
I1
s.(dp0
Vcyi9pk6
p1
I1
sVd8edold
p2
I1
s.(dp0
Vcyi9pk6
p1
I1
sVd8qb2aj
p2
I1
s.(dp0
Vd92s09x
p1
I1
sVcyi9pk6
p2
I1
s.(dp0
Vcyi9pk6
p1
I1
sVd95l7du
p2
I1
s.(dp0
Vcyi9pk6
p1
I1
sVd9bsre9
p2
I1
s.(dp0
Vd9lndt2
p1
I1
sVcyi9pk6
p2
I1
s.(dp0
Vcyi9pk6
p1
I1
sVd9u4wk9
p2
I1
s.(dp0
Vda3vykt
p1
I1
sVcyi9pk6
p2
I1
s.(dp0
Vda68o0a
p1
I1
sVcyi9pk6
p2
I1
s.(dp0
Vcyi9pk6
p1
I1
sVdaee1rb
p2
I1
s.(dp0
Vcyi9pk6
p1
I1
sVdasog6h
p2
I1
s.(dp0
Vcyi9pk6
p1
I1
sVdaymlnf
p2
I1
s.(dp0
Vdb51tq4
p1
I1
sVcyi9pk6
p2
I1
s.(dp0
Vcyi9pk6
p1
I1
sVdb8qebn
p2
I1
s.(dp0
Vcyi9pk6
p1
I1
sVdbcr2q5
p2
I1
s.(dp0
Vcyi9pk6
p1
I1
sVdcdy32o
p2
I1
s.(dp0
Vdcsn9l6
p1
I1
sVcyi9pk6
p2
I1
s.(dp0
Vdd5hy2t
p1
I1
sVcyi9pk6
p2
I1
s.(dp0
Vcyi9pk6
p1
I1
sVddj8lrs
p2
I1
s.(dp0
Vcyi9pk6
p1
I1
sVddjfdpx
p2
I1
s.(dp0
Vcyi9pk6
p1
I1
sVddu9ycj
p2
I1
s.(dp0
Vcyi9pk6
p1
I1
sVde06l0h
p2
I1
s.(dp0
Vcyi9pk6
p1
I1
sVde1w2cj
p2
I1
s.(dp0
Vcyi9pk6
p1
I1
sVdec4mzq
p2
I1
s.(dp0
Vdefndse
p1
I1
sVcyi9pk6
p2
I1
s.(dp0
Vcyi9pk6
p1
I1
sVdel1qw5
p2
I1
s.(dp0
Vcyi9pk6
p1
I1
sVdf387vs
p2
I1
s.(dp0
Vdfticin
p1
I1
sVcyi9pk6
p2
I1
s.(dp0
Vdhcvv2c
p1
I1
sVcyi9pk6
p2
I1
s.(dp0
Vcyi9pk6
p1
I1
sVdhg5s87
p2
I1
s.(dp0
Vcyi9pk6
p1
I1
sVdhrb0re
p2
I1
s.(dp0
Vcyi9pk6
p1
I1
sVdhrb0re
p2
I1
s.(dp0
Vcyi9pk6
p1
I1
sVdieybly
p2
I1
s.(dp0
Vcyi9pk6
p1
I1
sVdifq67l
p2
I1
s.(dp0
Vcyi9pk6
p1
I1
sVdiohyeb
p2
I1
s.(dp0
Vcyi9pk6
p1
I1
sVdiohyeb
p2
I1
s.(dp0
Vcyi9pk6
p1
I1
sVdiq4hdu
p2
I1
s.(dp0
Vdjo2p2k
p1
I1
sVcyi9pk6
p2
I1
s.(dp0
Vdjo2p2k
p1
I1
sVcyi9pk6
p2
I1
s.(dp0
Vdjxwdef
p1
I1
sVcyi9pk6
p2
I1
s.(dp0
Vdkhs1nl
p1
I1
sVcyi9pk6
p2
I1
s.(dp0
Vdkqv475
p1
I1
sVcyi9pk6
p2
I1
s.(dp0
Vdmjhzy7
p1
I1
sVcyi9pk6
p2
I1
s.(dp0
Vdn2y8cl
p1
I1
sVcyi9pk6
p2
I1
s.(dp0
Vcyi9pk6
p1
I1
sVdne8my1
p2
I1
s.(dp0
Vcyi9pk6
p1
I1
sVdnge46n
p2
I1
s.