(dp0
Vcylhqfe
p1
I1
s.(dp0
Vcylhqfe
p1
I1
sVcyop3mh
p2
I1
s.(dp0
Vcylhqfe
p1
I1
sVcyq57g8
p2
I1
s.(dp0
Vcylhqfe
p1
I1
sVd1tk8zp
p2
I1
s.(dp0
Vcylhqfe
p1
I1
sVd1uvexc
p2
I1
s.(dp0
Vcylhqfe
p1
I1
sVd20kg92
p2
I1
s.(dp0
Vcylhqfe
p1
I1
sVd3xzbgz
p2
I1
s.(dp0
Vcylhqfe
p1
I1
sVd4pto73
p2
I1
s.(dp0
Vd7xhjrv
p1
I1
sVcylhqfe
p2
I1
s.(dp0
Vcylhqfe
p1
I1
sVd8qu4kw
p2
I1
s.(dp0
Vcylhqfe
p1
I1
sVdcl596d
p2
I1
s.(dp0
Vcylhqfe
p1
I1
sVddiuqaj
p2
I1
s.(dp0
Vcylhqfe
p1
I1
sVddiuqaj
p2
I1
s.(dp0
Vcylhqfe
p1
I1
sVde7zyd3
p2
I1
s.(dp0
Vcylhqfe
p1
I1
sVde80jvc
p2
I1
s.(dp0
Vcylhqfe
p1
I1
sVde98ohi
p2
I1
s.(dp0
Vcylhqfe
p1
I1
sVdhgidsq
p2
I1
s.(dp0
Vcylhqfe
p1
I1
sVdhtis1n
p2
I1
s.(dp0
Vcylhqfe
p1
I1
sVdhtkcfz
p2
I1
s.(dp0
Vdkdkz41
p1
I1
sVcylhqfe
p2
I1
s.(dp0
Vcylhqfe
p1
I1
sVdksjxg7
p2
I1
s.(dp0
Vdkx3ujd
p1
I1
sVcylhqfe
p2
I1
s.(dp0
Vcylhqfe
p1
I1
sVdnk9l1h
p2
I1
s.