(dp0
Vcz7ck4l
p1
I1
s.(dp0
Vczeikxw
p1
I1
sVcz7ck4l
p2
I1
s.(dp0
Vd0nd357
p1
I1
sVcz7ck4l
p2
I1
s.(dp0
Vd0tjukn
p1
I1
sVcz7ck4l
p2
I1
s.(dp0
Vd2yy6sa
p1
I1
sVcz7ck4l
p2
I1
s.(dp0
Vd3aguxj
p1
I1
sVcz7ck4l
p2
I1
s.(dp0
Vd3j0ox4
p1
I1
sVcz7ck4l
p2
I1
s.(dp0
Vd4r2ipx
p1
I1
sVcz7ck4l
p2
I1
s.(dp0
Vd5wwsxb
p1
I1
sVcz7ck4l
p2
I1
s.(dp0
Vd7hvlow
p1
I1
sVcz7ck4l
p2
I1
s.(dp0
Vd7odfsx
p1
I1
sVcz7ck4l
p2
I1
s.(dp0
Vd81dpnr
p1
I1
sVcz7ck4l
p2
I1
s.(dp0
Vda4ekhk
p1
I1
sVcz7ck4l
p2
I1
s.(dp0
Vda8szz1
p1
I1
sVcz7ck4l
p2
I1
s.(dp0
Vdc6v5gw
p1
I1
sVcz7ck4l
p2
I1
s.(dp0
Vdco4pnc
p1
I1
sVcz7ck4l
p2
I1
s.(dp0
Vdd9d3zr
p1
I1
sVcz7ck4l
p2
I1
s.(dp0
Vddi6qvr
p1
I1
sVcz7ck4l
p2
I1
s.(dp0
Vdekiq5x
p1
I1
sVcz7ck4l
p2
I1
s.(dp0
Vdenxgj3
p1
I1
sVcz7ck4l
p2
I1
s.(dp0
Vdg7c9ov
p1
I1
sVcz7ck4l
p2
I1
s.(dp0
Vdge7hoz
p1
I1
sVcz7ck4l
p2
I1
s.(dp0
Vdjk5ozp
p1
I1
sVcz7ck4l
p2
I1
s.(dp0
Vdnj406w
p1
I1
sVcz7ck4l
p2
I1
s.