(dp0
Vcz3kxk7
p1
I1
s.(dp0
Vcz3kxk7
p1
I1
sVcze18v0
p2
I1
s.(dp0
Vczg40kh
p1
I1
sVcz3kxk7
p2
I1
s.(dp0
Vcz3kxk7
p1
I1
sVczg7ig3
p2
I1
s.(dp0
Vcz3kxk7
p1
I1
sVczpwfdu
p2
I1
s.(dp0
Vcz3kxk7
p1
I1
sVd0rnftt
p2
I1
s.(dp0
Vcz3kxk7
p1
I1
sVd0x8c4o
p2
I1
s.(dp0
Vd1af7sa
p1
I1
sVcz3kxk7
p2
I1
s.(dp0
Vd1af7sa
p1
I1
sVcz3kxk7
p2
I1
s.(dp0
Vcz3kxk7
p1
I1
sVd2bv50s
p2
I1
s.(dp0
Vcz3kxk7
p1
I1
sVd2o24ie
p2
I1
s.(dp0
Vcz3kxk7
p1
I1
sVd4u1ws9
p2
I1
s.(dp0
Vcz3kxk7
p1
I1
sVd5mites
p2
I1
s.(dp0
Vd6rur0n
p1
I1
sVcz3kxk7
p2
I1
s.(dp0
Vcz3kxk7
p1
I1
sVd7yggmr
p2
I1
s.(dp0
Vcz3kxk7
p1
I1
sVd83mots
p2
I1
s.(dp0
Vd9x8klo
p1
I1
sVcz3kxk7
p2
I1
s.(dp0
Vcz3kxk7
p1
I1
sVdadpoiu
p2
I1
s.(dp0
Vdb0wkqt
p1
I1
sVcz3kxk7
p2
I1
s.(dp0
Vcz3kxk7
p1
I1
sVdblbhpj
p2
I1
s.(dp0
Vdbo2a1g
p1
I1
sVcz3kxk7
p2
I1
s.(dp0
Vcz3kxk7
p1
I1
sVdckjrn0
p2
I1
s.(dp0
Vcz3kxk7
p1
I1
sVdckjrn0
p2
I1
s.(dp0
Vcz3kxk7
p1
I1
sVdd3qj6b
p2
I1
s.(dp0
Vcz3kxk7
p1
I1
sVde1bbj1
p2
I1
s.(dp0
Vcz3kxk7
p1
I1
sVde1bbj1
p2
I1
s.(dp0
Vcz3kxk7
p1
I1
sVde7vlgc
p2
I1
s.(dp0
Vdehvn3q
p1
I1
sVcz3kxk7
p2
I1
s.(dp0
Vcz3kxk7
p1
I1
sVdehxzxq
p2
I1
s.(dp0
Vdgnjo2j
p1
I1
sVcz3kxk7
p2
I1
s.(dp0
Vcz3kxk7
p1
I1
sVdhafahx
p2
I1
s.(dp0
Vcz3kxk7
p1
I1
sVdhafahx
p2
I1
s.(dp0
Vcz3kxk7
p1
I1
sVdhafahx
p2
I1
s.(dp0
Vcz3kxk7
p1
I1
sVdhafahx
p2
I1
s.(dp0
Vdmv9usl
p1
I1
sVcz3kxk7
p2
I1
s.