(dp0
Vczoo6oy
p1
I1
s.(dp0
Vczoo6oy
p1
I1
sVczq2avd
p2
I1
s.(dp0
Vczoo6oy
p1
I1
sVd09j5d4
p2
I1
s.(dp0
Vczoo6oy
p1
I1
sVd0m3bi4
p2
I1
s.(dp0
Vczoo6oy
p1
I1
sVd1st72i
p2
I1
s.(dp0
Vczoo6oy
p1
I1
sVd28ye2d
p2
I1
s.(dp0
Vd310joq
p1
I1
sVczoo6oy
p2
I1
s.(dp0
Vd310joq
p1
I1
sVczoo6oy
p2
I1
s.(dp0
Vd38y1rn
p1
I1
sVczoo6oy
p2
I1
s.(dp0
Vczoo6oy
p1
I1
sVd3bwzpd
p2
I1
s.(dp0
Vczoo6oy
p1
I1
sVd48nfo2
p2
I1
s.(dp0
Vczoo6oy
p1
I1
sVd6e0a1u
p2
I1
s.(dp0
Vczoo6oy
p1
I1
sVd6s609j
p2
I1
s.(dp0
Vczoo6oy
p1
I1
sVd6yjzyl
p2
I1
s.(dp0
Vczoo6oy
p1
I1
sVd7d6a4b
p2
I1
s.(dp0
Vd9d00wl
p1
I1
sVczoo6oy
p2
I1
s.(dp0
Vd9szfjt
p1
I1
sVczoo6oy
p2
I1
s.(dp0
Vczoo6oy
p1
I1
sVdafyc7k
p2
I1
s.(dp0
Vczoo6oy
p1
I1
sVdagkm7s
p2
I1
s.(dp0
Vczoo6oy
p1
I1
sVddctx8m
p2
I1
s.(dp0
Vczoo6oy
p1
I1
sVdddikkv
p2
I1
s.(dp0
Vczoo6oy
p1
I1
sVddfl23a
p2
I1
s.(dp0
Vczoo6oy
p1
I1
sVddz4tvx
p2
I1
s.(dp0
Vczoo6oy
p1
I1
sVdenymui
p2
I1
s.(dp0
Vczoo6oy
p1
I1
sVdfmpgs0
p2
I1
s.(dp0
Vczoo6oy
p1
I1
sVdgmoajw
p2
I1
s.(dp0
Vdh68rry
p1
I1
sVczoo6oy
p2
I1
s.(dp0
Vczoo6oy
p1
I1
sVdh6nch2
p2
I1
s.(dp0
Vczoo6oy
p1
I1
sVdhbeftj
p2
I1
s.(dp0
Vdhpinok
p1
I1
sVczoo6oy
p2
I1
s.(dp0
Vdivhgfz
p1
I1
sVczoo6oy
p2
I1
s.(dp0
Vdji516e
p1
I1
sVczoo6oy
p2
I1
s.(dp0
Vczoo6oy
p1
I1
sVdjmj202
p2
I1
s.(dp0
Vczoo6oy
p1
I1
sVdkpdh21
p2
I1
s.(dp0
Vczoo6oy
p1
I1
sVdnepbcy
p2
I1
s.