(dp0
Vcyvjdc5
p1
I1
s.(dp0
Vcz9kg94
p1
I1
sVcyvjdc5
p2
I1
s.(dp0
Vcz9sx60
p1
I1
sVcyvjdc5
p2
I1
s.(dp0
Vczg4sbu
p1
I1
sVcyvjdc5
p2
I1
s.(dp0
Vczpjlj7
p1
I1
sVcyvjdc5
p2
I1
s.(dp0
Vczpjlj7
p1
I1
sVcyvjdc5
p2
I1
s.(dp0
Vczs3g5b
p1
I1
sVcyvjdc5
p2
I1
s.(dp0
Vczvdyrz
p1
I1
sVcyvjdc5
p2
I1
s.(dp0
Vd07lxx6
p1
I1
sVcyvjdc5
p2
I1
s.(dp0
Vd0b4tg9
p1
I1
sVcyvjdc5
p2
I1
s.(dp0
Vd2pdrbx
p1
I1
sVcyvjdc5
p2
I1
s.(dp0
Vd556kic
p1
I1
sVcyvjdc5
p2
I1
s.(dp0
Vd5c8ymx
p1
I1
sVcyvjdc5
p2
I1
s.(dp0
Vd7qw30g
p1
I1
sVcyvjdc5
p2
I1
s.(dp0
Vdbsakjc
p1
I1
sVcyvjdc5
p2
I1
s.(dp0
Vde70d08
p1
I1
sVcyvjdc5
p2
I1
s.(dp0
Vdec9809
p1
I1
sVcyvjdc5
p2
I1
s.(dp0
Vdemjqio
p1
I1
sVcyvjdc5
p2
I1
s.(dp0
Vdf3b7x1
p1
I1
sVcyvjdc5
p2
I1
s.(dp0
Vdftkbqc
p1
I1
sVcyvjdc5
p2
I1
s.(dp0
Vdh6r4g9
p1
I1
sVcyvjdc5
p2
I1
s.(dp0
Vdhyrdky
p1
I1
sVcyvjdc5
p2
I1
s.(dp0
Vdhz1eay
p1
I1
sVcyvjdc5
p2
I1
s.(dp0
Vdi8a5ht
p1
I1
sVcyvjdc5
p2
I1
s.(dp0
Vdirb197
p1
I1
sVcyvjdc5
p2
I1
s.(dp0
Vdjxlr0i
p1
I1
sVcyvjdc5
p2
I1
s.(dp0
Vdkq3nzi
p1
I1
sVcyvjdc5
p2
I1
s.