(dp0
Vcyk7z7x
p1
I1
s.(dp0
Vcz8tr7i
p1
I1
sVcyk7z7x
p2
I1
s.(dp0
Vcyk7z7x
p1
I1
sVd00lfu6
p2
I1
s.(dp0
Vcyk7z7x
p1
I1
sVd0cel7r
p2
I1
s.(dp0
Vcyk7z7x
p1
I1
sVd0cw7nn
p2
I1
s.(dp0
Vcyk7z7x
p1
I1
sVd0qpxu7
p2
I1
s.(dp0
Vcyk7z7x
p1
I1
sVd0qpxu7
p2
I1
s.(dp0
Vcyk7z7x
p1
I1
sVd1jxv7n
p2
I1
s.(dp0
Vd1quml2
p1
I1
sVcyk7z7x
p2
I1
s.(dp0
Vd1rhmnl
p1
I1
sVcyk7z7x
p2
I1
s.(dp0
Vcyk7z7x
p1
I1
sVd28fouy
p2
I1
s.(dp0
Vcyk7z7x
p1
I1
sVd2a55yf
p2
I1
s.(dp0
Vcyk7z7x
p1
I1
sVd2oxuhp
p2
I1
s.(dp0
Vcyk7z7x
p1
I1
sVd32251c
p2
I1
s.(dp0
Vcyk7z7x
p1
I1
sVd3e57qb
p2
I1
s.(dp0
Vcyk7z7x
p1
I1
sVd3w7uf0
p2
I1
s.(dp0
Vcyk7z7x
p1
I1
sVd4b7opw
p2
I1
s.(dp0
Vcyk7z7x
p1
I1
sVd4eluv7
p2
I1
s.(dp0
Vcyk7z7x
p1
I1
sVd4xveo4
p2
I1
s.(dp0
Vd65fzqk
p1
I1
sVcyk7z7x
p2
I1
s.(dp0
Vcyk7z7x
p1
I1
sVd6p2ffv
p2
I1
s.(dp0
Vcyk7z7x
p1
I1
sVd99wfct
p2
I1
s.(dp0
Vcyk7z7x
p1
I1
sVdag7872
p2
I1
s.(dp0
Vdbxz3x0
p1
I1
sVcyk7z7x
p2
I1
s.(dp0
Vdc5ekhj
p1
I1
sVcyk7z7x
p2
I1
s.(dp0
Vcyk7z7x
p1
I1
sVdc7k24t
p2
I1
s.(dp0
Vcyk7z7x
p1
I1
sVdcopku1
p2
I1
s.(dp0
Vcyk7z7x
p1
I1
sVde45yjo
p2
I1
s.(dp0
Vcyk7z7x
p1
I1
sVde4ody7
p2
I1
s.(dp0
Vcyk7z7x
p1
I1
sVdemhpqk
p2
I1
s.(dp0
Vcyk7z7x
p1
I1
sVdey2jqr
p2
I1
s.(dp0
Vdh5uo7g
p1
I1
sVcyk7z7x
p2
I1
s.(dp0
Vcyk7z7x
p1
I1
sVdh5wasv
p2
I1
s.(dp0
Vcyk7z7x
p1
I1
sVdh62usi
p2
I1
s.(dp0
Vdixewxp
p1
I1
sVcyk7z7x
p2
I1
s.(dp0
Vcyk7z7x
p1
I1
sVdkyw0ht
p2
I1
s.(dp0
Vdmka5se
p1
I1
sVcyk7z7x
p2
I1
s.(dp0
Vdmka5se
p1
I1
sVcyk7z7x
p2
I1
s.(dp0
Vcyk7z7x
p1
I1
sVdmq5juq
p2
I1
s.(dp0
Vcyk7z7x
p1
I1
sVdmvctps
p2
I1
s.(dp0
Vcyk7z7x
p1
I1
sVdmyqtpz
p2
I1
s.(dp0
Vcyk7z7x
p1
I1
sVdn4hgo4
p2
I1
s.(dp0
Vdo6mz74
p1
I1
sVcyk7z7x
p2
I1
s.(dp0
Vcyk7z7x
p1
I1
sVdp268fs
p2
I1
s.