(dp0
Vcz7ej62
p1
I1
s.(dp0
Vcz7ej62
p1
I1
sVczcevkb
p2
I1
s.(dp0
Vcz7ej62
p1
I1
sVczcevkb
p2
I1
s.(dp0
Vczoylte
p1
I1
sVcz7ej62
p2
I1
s.(dp0
Vcz7ej62
p1
I1
sVd00l3xj
p2
I1
s.(dp0
Vcz7ej62
p1
I1
sVd02zn1x
p2
I1
s.(dp0
Vd0phbkp
p1
I1
sVcz7ej62
p2
I1
s.(dp0
Vd1kvvn1
p1
I1
sVcz7ej62
p2
I1
s.(dp0
Vd1q2b0q
p1
I1
sVcz7ej62
p2
I1
s.(dp0
Vcz7ej62
p1
I1
sVd1wab30
p2
I1
s.(dp0
Vcz7ej62
p1
I1
sVd20ca9i
p2
I1
s.(dp0
Vd2n0btq
p1
I1
sVcz7ej62
p2
I1
s.(dp0
Vcz7ej62
p1
I1
sVd374q7l
p2
I1
s.(dp0
Vcz7ej62
p1
I1
sVd3fldd5
p2
I1
s.(dp0
Vcz7ej62
p1
I1
sVd57vqf8
p2
I1
s.(dp0
Vd5azv23
p1
I1
sVcz7ej62
p2
I1
s.(dp0
Vd5azv23
p1
I1
sVcz7ej62
p2
I1
s.(dp0
Vcz7ej62
p1
I1
sVd5r2d3b
p2
I1
s.(dp0
Vcz7ej62
p1
I1
sVd6dxp9e
p2
I1
s.(dp0
Vd72hqlp
p1
I1
sVcz7ej62
p2
I1
s.(dp0
Vcz7ej62
p1
I1
sVd79f53x
p2
I1
s.(dp0
Vd7ju7hd
p1
I1
sVcz7ej62
p2
I1
s.(dp0
Vd7ju7hd
p1
I1
sVcz7ej62
p2
I1
s.(dp0
Vcz7ej62
p1
I1
sVd8eobzb
p2
I1
s.(dp0
Vd8g5u7j
p1
I1
sVcz7ej62
p2
I1
s.(dp0
Vd98monu
p1
I1
sVcz7ej62
p2
I1
s.(dp0
Vd9r55zz
p1
I1
sVcz7ej62
p2
I1
s.(dp0
Vcz7ej62
p1
I1
sVd9zc6np
p2
I1
s.(dp0
Vcz7ej62
p1
I1
sVdayu6j0
p2
I1
s.(dp0
Vdb7ulkj
p1
I1
sVcz7ej62
p2
I1
s.(dp0
Vdbb3z1d
p1
I1
sVcz7ej62
p2
I1
s.(dp0
Vcz7ej62
p1
I1
sVdbhzjn4
p2
I1
s.(dp0
Vdc1gr1d
p1
I1
sVcz7ej62
p2
I1
s.(dp0
Vcz7ej62
p1
I1
sVdcv1aba
p2
I1
s.(dp0
Vdcymyox
p1
I1
sVcz7ej62
p2
I1
s.(dp0
Vcz7ej62
p1
I1
sVdd5hqe1
p2
I1
s.(dp0
Vcz7ej62
p1
I1
sVddwc30x
p2
I1
s.(dp0
Vcz7ej62
p1
I1
sVdegans2
p2
I1
s.(dp0
Vcz7ej62
p1
I1
sVdeuxcm4
p2
I1
s.(dp0
Vcz7ej62
p1
I1
sVdfa8qxo
p2
I1
s.(dp0
Vdfke1cg
p1
I1
sVcz7ej62
p2
I1
s.(dp0
Vcz7ej62
p1
I1
sVdg97r0o
p2
I1
s.(dp0
Vdgbqlv5
p1
I1
sVcz7ej62
p2
I1
s.(dp0
Vcz7ej62
p1
I1
sVdi1a919
p2
I1
s.(dp0
Vdjkgkq9
p1
I1
sVcz7ej62
p2
I1
s.(dp0
Vcz7ej62
p1
I1
sVdjv0457
p2
I1
s.