(dp0
Vcyiswmp
p1
I1
s.(dp0
Vcyj42ve
p1
I1
sVcyiswmp
p2
I1
s.(dp0
Vcyj5gqt
p1
I1
sVcyiswmp
p2
I1
s.(dp0
Vcyj7z1o
p1
I1
sVcyiswmp
p2
I1
s.(dp0
Vcyj9bx6
p1
I1
sVcyiswmp
p2
I1
s.(dp0
Vcyj9bx6
p1
I1
sVcyiswmp
p2
I1
s.(dp0
Vcyj9bx6
p1
I1
sVcyiswmp
p2
I1
s.(dp0
Vcyja2xw
p1
I1
sVcyiswmp
p2
I1
s.(dp0
Vcyjb7m1
p1
I1
sVcyiswmp
p2
I1
s.(dp0
Vcyjhalh
p1
I1
sVcyiswmp
p2
I1
s.(dp0
Vcyjhalh
p1
I1
sVcyiswmp
p2
I1
s.(dp0
Vcyjhalh
p1
I1
sVcyiswmp
p2
I1
s.(dp0
Vcykbjzm
p1
I1
sVcyiswmp
p2
I1
s.(dp0
Vcykeilg
p1
I1
sVcyiswmp
p2
I1
s.(dp0
Vcykpn82
p1
I1
sVcyiswmp
p2
I1
s.(dp0
Vcykuyjo
p1
I1
sVcyiswmp
p2
I1
s.(dp0
Vcyli8k7
p1
I1
sVcyiswmp
p2
I1
s.(dp0
Vcylkh1x
p1
I1
sVcyiswmp
p2
I1
s.(dp0
Vcylr65t
p1
I1
sVcyiswmp
p2
I1
s.(dp0
Vcymm0vy
p1
I1
sVcyiswmp
p2
I1
s.(dp0
Vcynnze2
p1
I1
sVcyiswmp
p2
I1
s.(dp0
Vcynx2nj
p1
I1
sVcyiswmp
p2
I1
s.(dp0
Vcynx2nj
p1
I1
sVcyiswmp
p2
I1
s.(dp0
Vcynxk3k
p1
I1
sVcyiswmp
p2
I1
s.(dp0
Vcypowvp
p1
I1
sVcyiswmp
p2
I1
s.(dp0
Vcyq0all
p1
I1
sVcyiswmp
p2
I1
s.(dp0
Vcys1lu1
p1
I1
sVcyiswmp
p2
I1
s.(dp0
Vcys6423
p1
I1
sVcyiswmp
p2
I1
s.(dp0
Vcys6423
p1
I1
sVcyiswmp
p2
I1
s.(dp0
Vcyumrrb
p1
I1
sVcyiswmp
p2
I1
s.(dp0
Vcyv9pkg
p1
I1
sVcyiswmp
p2
I1
s.(dp0
Vcyvvcr1
p1
I1
sVcyiswmp
p2
I1
s.(dp0
Vcyvvcr1
p1
I1
sVcyiswmp
p2
I1
s.(dp0
Vcyvvcr1
p1
I1
sVcyiswmp
p2
I1
s.(dp0
Vcyvvcr1
p1
I1
sVcyiswmp
p2
I1
s.(dp0
Vcyvvcr1
p1
I1
sVcyiswmp
p2
I1
s.(dp0
Vcywm3au
p1
I1
sVcyiswmp
p2
I1
s.(dp0
Vcyyrooy
p1
I1
sVcyiswmp
p2
I1
s.(dp0
Vcyz56bg
p1
I1
sVcyiswmp
p2
I1
s.(dp0
Vcyzaslq
p1
I1
sVcyiswmp
p2
I1
s.(dp0
Vcyzuor1
p1
I1
sVcyiswmp
p2
I1
s.(dp0
Vcz0lfn9
p1
I1
sVcyiswmp
p2
I1
s.(dp0
Vcz10p7j
p1
I1
sVcyiswmp
p2
I1
s.(dp0
Vcz10p7j
p1
I1
sVcyiswmp
p2
I1
s.(dp0
Vcz10p7j
p1
I1
sVcyiswmp
p2
I1
s.(dp0
Vcz178ii
p1
I1
sVcyiswmp
p2
I1
s.(dp0
Vcz1t6j8
p1
I1
sVcyiswmp
p2
I1
s.(dp0
Vcz2wnlw
p1
I1
sVcyiswmp
p2
I1
s.(dp0
Vcz3boy3
p1
I1
sVcyiswmp
p2
I1
s.(dp0
Vcz3boy3
p1
I1
sVcyiswmp
p2
I1
s.(dp0
Vcz5cgir
p1
I1
sVcyiswmp
p2
I1
s.(dp0
Vcz5x0hv
p1
I1
sVcyiswmp
p2
I1
s.(dp0
Vcz7febq
p1
I1
sVcyiswmp
p2
I1
s.(dp0
Vcz7hyr9
p1
I1
sVcyiswmp
p2
I1
s.(dp0
Vcz7ipgk
p1
I1
sVcyiswmp
p2
I1
s.(dp0
Vcz8megf
p1
I1
sVcyiswmp
p2
I1
s.(dp0
Vcz8megf
p1
I1
sVcyiswmp
p2
I1
s.(dp0
Vcz9h5ld
p1
I1
sVcyiswmp
p2
I1
s.(dp0
Vcz9sxrx
p1
I1
sVcyiswmp
p2
I1
s.(dp0
Vczai3i6
p1
I1
sVcyiswmp
p2
I1
s.(dp0
Vczai3i6
p1
I1
sVcyiswmp
p2
I1
s.(dp0
Vczavspe
p1
I1
sVcyiswmp
p2
I1
s.(dp0
Vczay8g2
p1
I1
sVcyiswmp
p2
I1
s.(dp0
Vczc34bx
p1
I1
sVcyiswmp
p2
I1
s.(dp0
Vczc7uvl
p1
I1
sVcyiswmp
p2
I1
s.(dp0
Vczf7g11
p1
I1
sVcyiswmp
p2
I1
s.(dp0
Vczfg6ja
p1
I1
sVcyiswmp
p2
I1
s.(dp0
Vczg5xr6
p1
I1
sVcyiswmp
p2
I1
s.(dp0
Vczg5xr6
p1
I1
sVcyiswmp
p2
I1
s.(dp0
Vczh2hvb
p1
I1
sVcyiswmp
p2
I1
s.(dp0
Vczhb9so
p1
I1
sVcyiswmp
p2
I1
s.(dp0
Vczhgua0
p1
I1
sVcyiswmp
p2
I1
s.(dp0
Vczhgz88
p1
I1
sVcyiswmp
p2
I1
s.(dp0
Vczi2ioe
p1
I1
sVcyiswmp
p2
I1
s.(dp0
Vczid3up
p1
I1
sVcyiswmp
p2
I1
s.(dp0
Vczitezg
p1
I1
sVcyiswmp
p2
I1
s.(dp0
Vczjzw79
p1
I1
sVcyiswmp
p2
I1
s.(dp0
Vczkly31
p1
I1
sVcyiswmp
p2
I1
s.(dp0
Vczkw841
p1
I1
sVcyiswmp
p2
I1
s.(dp0
Vczlefgp
p1
I1
sVcyiswmp
p2
I1
s.(dp0
Vczlefgp
p1
I1
sVcyiswmp
p2
I1
s.(dp0
Vczllsou
p1
I1
sVcyiswmp
p2
I1
s.(dp0
Vczlmk24
p1
I1
sVcyiswmp
p2
I1
s.(dp0
Vczlr3nz
p1
I1
sVcyiswmp
p2
I1
s.(dp0
Vczm7kje
p1
I1
sVcyiswmp
p2
I1
s.(dp0
Vczm7kje
p1
I1
sVcyiswmp
p2
I1
s.(dp0
Vczmbzr8
p1
I1
sVcyiswmp
p2
I1
s.(dp0
Vczmozpo
p1
I1
sVcyiswmp
p2
I1
s.(dp0
Vczmozpo
p1
I1
sVcyiswmp
p2
I1
s.(dp0
Vczmx4zh
p1
I1
sVcyiswmp
p2
I1
s.(dp0
Vcznti3l
p1
I1
sVcyiswmp
p2
I1
s.(dp0
Vczollq4
p1
I1
sVcyiswmp
p2
I1
s.(dp0
Vczoq288
p1
I1
sVcyiswmp
p2
I1
s.(dp0
Vczrfvt1
p1
I1
sVcyiswmp
p2
I1
s.(dp0
Vczrs97i
p1
I1
sVcyiswmp
p2
I1
s.(dp0
Vczryp7t
p1
I1
sVcyiswmp
p2
I1
s.(dp0
Vczryp7t
p1
I1
sVcyiswmp
p2
I1
s.(dp0
Vczrzaf7
p1
I1
sVcyiswmp
p2
I1
s.(dp0
Vczsn7bw
p1
I1
sVcyiswmp
p2
I1
s.(dp0
Vczt8346
p1
I1
sVcyiswmp
p2
I1
s.(dp0
Vczt8346
p1
I1
sVcyiswmp
p2
I1
s.(dp0
Vcztirkh
p1
I1
sVcyiswmp
p2
I1
s.(dp0
Vcztirkh
p1
I1
sVcyiswmp
p2
I1
s.(dp0
Vczw4u4z
p1
I1
sVcyiswmp
p2
I1
s.(dp0
Vczw4u4z
p1
I1
sVcyiswmp
p2
I1
s.(dp0
Vczw5he6
p1
I1
sVcyiswmp
p2
I1
s.(dp0
Vczwgmco
p1
I1
sVcyiswmp
p2
I1
s.(dp0
Vczwis6s
p1
I1
sVcyiswmp
p2
I1
s.(dp0
Vcz(dp0
Vdkz0sc8
p1
I1
sVcyiswmp
p2
I1
s.