(dp0
Vd2rcpuy
p1
I1
s.(dp0
Vd2ygryf
p1
I1
sVd2rcpuy
p2
I1
s.(dp0
Vd3wckiz
p1
I1
sVd2rcpuy
p2
I1
s.(dp0
Vd53wcc4
p1
I1
sVd2rcpuy
p2
I1
s.(dp0
Vd5pwifs
p1
I1
sVd2rcpuy
p2
I1
s.(dp0
Vd79mcpp
p1
I1
sVd2rcpuy
p2
I1
s.(dp0
Vd79mcpp
p1
I1
sVd2rcpuy
p2
I1
s.(dp0
Vd79mcpp
p1
I1
sVd2rcpuy
p2
I1
s.(dp0
Vda245s0
p1
I1
sVd2rcpuy
p2
I1
s.(dp0
Vda245s0
p1
I1
sVd2rcpuy
p2
I1
s.(dp0
Vdap4wor
p1
I1
sVd2rcpuy
p2
I1
s.(dp0
Vdaxgh46
p1
I1
sVd2rcpuy
p2
I1
s.(dp0
Vdcxhyqd
p1
I1
sVd2rcpuy
p2
I1
s.(dp0
Vdeicod7
p1
I1
sVd2rcpuy
p2
I1
s.(dp0
Vdfbvade
p1
I1
sVd2rcpuy
p2
I1
s.(dp0
Vdg8rwax
p1
I1
sVd2rcpuy
p2
I1
s.(dp0
Vd2rcpuy
p1
I1
sVdh66d7c
p2
I1
s.(dp0
Vd2rcpuy
p1
I1
sVdhtonp1
p2
I1
s.(dp0
Vdk3zbbz
p1
I1
sVd2rcpuy
p2
I1
s.(dp0
Vdk4dd2h
p1
I1
sVd2rcpuy
p2
I1
s.(dp0
Vd2rcpuy
p1
I1
sVdkqna9f
p2
I1
s.