(dp0
Vczcc58r
p1
I1
s.(dp0
Vczlr5a5
p1
I1
sVczcc58r
p2
I1
s.(dp0
Vd15aow7
p1
I1
sVczcc58r
p2
I1
s.(dp0
Vd2t1pse
p1
I1
sVczcc58r
p2
I1
s.(dp0
Vd2woly3
p1
I1
sVczcc58r
p2
I1
s.(dp0
Vd3ck7i2
p1
I1
sVczcc58r
p2
I1
s.(dp0
Vd7ab18h
p1
I1
sVczcc58r
p2
I1
s.(dp0
Vd9qtqty
p1
I1
sVczcc58r
p2
I1
s.(dp0
Vdbmxybm
p1
I1
sVczcc58r
p2
I1
s.(dp0
Vdcgktmw
p1
I1
sVczcc58r
p2
I1
s.(dp0
Vdehm85i
p1
I1
sVczcc58r
p2
I1
s.(dp0
Vdekq96u
p1
I1
sVczcc58r
p2
I1
s.(dp0
Vdfykxru
p1
I1
sVczcc58r
p2
I1
s.(dp0
Vdgbt727
p1
I1
sVczcc58r
p2
I1
s.(dp0
Vdhrpt5z
p1
I1
sVczcc58r
p2
I1
s.