(dp0
Vcyp3l3p
p1
I1
s.(dp0
Vcyp3l3p
p1
I1
sVcypic76
p2
I1
s.(dp0
Vcz2s7qx
p1
I1
sVcyp3l3p
p2
I1
s.(dp0
Vczdx8fw
p1
I1
sVcyp3l3p
p2
I1
s.(dp0
Vczudzk9
p1
I1
sVcyp3l3p
p2
I1
s.(dp0
Vcyp3l3p
p1
I1
sVczy2xvw
p2
I1
s.(dp0
Vd0ya2ua
p1
I1
sVcyp3l3p
p2
I1
s.(dp0
Vcyp3l3p
p1
I1
sVd19cr5s
p2
I1
s.(dp0
Vcyp3l3p
p1
I1
sVd1hcm17
p2
I1
s.(dp0
Vcyp3l3p
p1
I1
sVd1p9dfk
p2
I1
s.(dp0
Vcyp3l3p
p1
I1
sVd1qdlvf
p2
I1
s.(dp0
Vcyp3l3p
p1
I1
sVd1qzybj
p2
I1
s.(dp0
Vd2449p4
p1
I1
sVcyp3l3p
p2
I1
s.(dp0
Vd2hmvx2
p1
I1
sVcyp3l3p
p2
I1
s.(dp0
Vd3aq3xb
p1
I1
sVcyp3l3p
p2
I1
s.(dp0
Vcyp3l3p
p1
I1
sVd3lgfi7
p2
I1
s.(dp0
Vcyp3l3p
p1
I1
sVd3wsqbh
p2
I1
s.(dp0
Vcyp3l3p
p1
I1
sVd3z6v8g
p2
I1
s.(dp0
Vcyp3l3p
p1
I1
sVd40t2ve
p2
I1
s.(dp0
Vcyp3l3p
p1
I1
sVd489f1p
p2
I1
s.(dp0
Vcyp3l3p
p1
I1
sVd4gxtok
p2
I1
s.(dp0
Vcyp3l3p
p1
I1
sVd4rrmov
p2
I1
s.(dp0
Vcyp3l3p
p1
I1
sVd5m816h
p2
I1
s.(dp0
Vcyp3l3p
p1
I1
sVd5w1l8c
p2
I1
s.(dp0
Vcyp3l3p
p1
I1
sVd5xcayw
p2
I1
s.(dp0
Vcyp3l3p
p1
I1
sVd6cvjct
p2
I1
s.(dp0
Vcyp3l3p
p1
I1
sVd6vtsqx
p2
I1
s.(dp0
Vcyp3l3p
p1
I1
sVd6xhdbu
p2
I1
s.(dp0
Vcyp3l3p
p1
I1
sVd81cwrp
p2
I1
s.(dp0
Vcyp3l3p
p1
I1
sVd8wud10
p2
I1
s.(dp0
Vcyp3l3p
p1
I1
sVd9ryoh7
p2
I1
s.(dp0
Vcyp3l3p
p1
I1
sVd9ryoh7
p2
I1
s.(dp0
Vcyp3l3p
p1
I1
sVdadfrpf
p2
I1
s.(dp0
Vdbgj4er
p1
I1
sVcyp3l3p
p2
I1
s.(dp0
Vcyp3l3p
p1
I1
sVdbgpsl8
p2
I1
s.(dp0
Vcyp3l3p
p1
I1
sVdbmelzn
p2
I1
s.(dp0
Vcyp3l3p
p1
I1
sVdbrle3r
p2
I1
s.(dp0
Vdbsyvjy
p1
I1
sVcyp3l3p
p2
I1
s.(dp0
Vcyp3l3p
p1
I1
sVdc7cmf4
p2
I1
s.(dp0
Vdcbkz3w
p1
I1
sVcyp3l3p
p2
I1
s.(dp0
Vdcc0g9a
p1
I1
sVcyp3l3p
p2
I1
s.(dp0
Vcyp3l3p
p1
I1
sVdcfkipo
p2
I1
s.(dp0
Vdco0zin
p1
I1
sVcyp3l3p
p2
I1
s.(dp0
Vcyp3l3p
p1
I1
sVdd58x16
p2
I1
s.(dp0
Vcyp3l3p
p1
I1
sVdd86j0x
p2
I1
s.(dp0
Vdd89cxe
p1
I1
sVcyp3l3p
p2
I1
s.(dp0
Vcyp3l3p
p1
I1
sVddfo2ys
p2
I1
s.(dp0
Vcyp3l3p
p1
I1
sVddlhn63
p2
I1
s.(dp0
Vcyp3l3p
p1
I1
sVde08z6u
p2
I1
s.(dp0
Vcyp3l3p
p1
I1
sVde6600r
p2
I1
s.(dp0
Vcyp3l3p
p1
I1
sVde6c6ox
p2
I1
s.(dp0
Vcyp3l3p
p1
I1
sVdeefqds
p2
I1
s.(dp0
Vcyp3l3p
p1
I1
sVdefc761
p2
I1
s.(dp0
Vcyp3l3p
p1
I1
sVdenkzl6
p2
I1
s.(dp0
Vdez8rrn
p1
I1
sVcyp3l3p
p2
I1
s.(dp0
Vcyp3l3p
p1
I1
sVdfc1aoq
p2
I1
s.(dp0
Vdfcb81z
p1
I1
sVcyp3l3p
p2
I1
s.(dp0
Vcyp3l3p
p1
I1
sVdfksyjg
p2
I1
s.(dp0
Vcyp3l3p
p1
I1
sVdfp8e3t
p2
I1
s.(dp0
Vcyp3l3p
p1
I1
sVdh5r9uy
p2
I1
s.(dp0
Vdhcpfje
p1
I1
sVcyp3l3p
p2
I1
s.(dp0
Vdhf6tf9
p1
I1
sVcyp3l3p
p2
I1
s.(dp0
Vcyp3l3p
p1
I1
sVdhlory6
p2
I1
s.(dp0
Vdhvhcke
p1
I1
sVcyp3l3p
p2
I1
s.(dp0
Vcyp3l3p
p1
I1
sVdi1g9xz
p2
I1
s.(dp0
Vdioe510
p1
I1
sVcyp3l3p
p2
I1
s.(dp0
Vcyp3l3p
p1
I1
sVdiv2pnv
p2
I1
s.(dp0
Vcyp3l3p
p1
I1
sVdj0pr76
p2
I1
s.(dp0
Vdj98wjo
p1
I1
sVcyp3l3p
p2
I1
s.(dp0
Vcyp3l3p
p1
I1
sVdj9kr3t
p2
I1
s.(dp0
Vcyp3l3p
p1
I1
sVdjr9u2h
p2
I1
s.(dp0
Vdjzfinj
p1
I1
sVcyp3l3p
p2
I1
s.(dp0
Vcyp3l3p
p1
I1
sVdkftwny
p2
I1
s.(dp0
Vcyp3l3p
p1
I1
sVdknbfz4
p2
I1
s.(dp0
Vdn6ci7s
p1
I1
sVcyp3l3p
p2
I1
s.(dp0
Vdnbbm0x
p1
I1
sVcyp3l3p
p2
I1
s.(dp0
Vcyp3l3p
p1
I1
sVdnexlz9
p2
I1
s.(dp0
Vcyp3l3p
p1
I1
sVdnrhire
p2
I1
s.(dp0
Vdnspql5
p1
I1
sVcyp3l3p
p2
I1
s.(dp0
Vdny2gcy
p1
I1
sVcyp3l3p
p2
I1
s.(dp0
Vcyp3l3p
p1
I1
sVdoacxar
p2
I1
s.(dp0
Vcyp3l3p
p1
I1
sVdonwdtw
p2
I1
s.(dp0
Vcyp3l3p
p1
I1
sVdov4c1y
p2
I1
s.