(dp0
Vd04qsun
p1
I1
s.(dp0
Vd0g4d89
p1
I1
sVd04qsun
p2
I1
s.(dp0
Vd0mflh2
p1
I1
sVd04qsun
p2
I1
s.(dp0
Vd2c4gpl
p1
I1
sVd04qsun
p2
I1
s.(dp0
Vd04qsun
p1
I1
sVd2jxe27
p2
I1
s.(dp0
Vd6ub63i
p1
I1
sVd04qsun
p2
I1
s.(dp0
Vd79mcpp
p1
I1
sVd04qsun
p2
I1
s.(dp0
Vd7px9lw
p1
I1
sVd04qsun
p2
I1
s.(dp0
Vd8qypeb
p1
I1
sVd04qsun
p2
I1
s.(dp0
Vdbhd1tr
p1
I1
sVd04qsun
p2
I1
s.(dp0
Vdbimeyt
p1
I1
sVd04qsun
p2
I1
s.(dp0
Vddwsi1n
p1
I1
sVd04qsun
p2
I1
s.(dp0
Vde2jpbu
p1
I1
sVd04qsun
p2
I1
s.(dp0
Vdeu1qiv
p1
I1
sVd04qsun
p2
I1
s.(dp0
Vdeu1qiv
p1
I1
sVd04qsun
p2
I1
s.(dp0
Vdggol6c
p1
I1
sVd04qsun
p2
I1
s.(dp0
Vdgrqo4r
p1
I1
sVd04qsun
p2
I1
s.(dp0
Vdgrqo4r
p1
I1
sVd04qsun
p2
I1
s.(dp0
Vdhk5ejy
p1
I1
sVd04qsun
p2
I1
s.(dp0
Vdjhs1d0
p1
I1
sVd04qsun
p2
I1
s.(dp0
Vdkwwacc
p1
I1
sVd04qsun
p2
I1
s.(dp0
Vdkxe06c
p1
I1
sVd04qsun
p2
I1
s.(dp0
Vd04qsun
p1
I1
sVdo2rkpb
p2
I1
s.