(dp0
Vcyjx8z8
p1
I1
s.(dp0
Vcyl4ab4
p1
I1
sVcyjx8z8
p2
I1
s.(dp0
Vcyjx8z8
p1
I1
sVcynzkqr
p2
I1
s.(dp0
Vcz4luc2
p1
I1
sVcyjx8z8
p2
I1
s.(dp0
Vcz5y3bn
p1
I1
sVcyjx8z8
p2
I1
s.(dp0
Vcz6tuku
p1
I1
sVcyjx8z8
p2
I1
s.(dp0
Vcz9vl03
p1
I1
sVcyjx8z8
p2
I1
s.(dp0
Vcyjx8z8
p1
I1
sVczbdre7
p2
I1
s.(dp0
Vcyjx8z8
p1
I1
sVczh6zy6
p2
I1
s.(dp0
Vczhu1j7
p1
I1
sVcyjx8z8
p2
I1
s.(dp0
Vcyjx8z8
p1
I1
sVczqteur
p2
I1
s.(dp0
Vcyjx8z8
p1
I1
sVczr0yzo
p2
I1
s.(dp0
Vcyjx8z8
p1
I1
sVd010t9j
p2
I1
s.(dp0
Vcyjx8z8
p1
I1
sVd06q9o3
p2
I1
s.(dp0
Vcyjx8z8
p1
I1
sVd09w6y9
p2
I1
s.(dp0
Vcyjx8z8
p1
I1
sVd0su38x
p2
I1
s.(dp0
Vd125b45
p1
I1
sVcyjx8z8
p2
I1
s.(dp0
Vcyjx8z8
p1
I1
sVd13iosj
p2
I1
s.(dp0
Vcyjx8z8
p1
I1
sVd16z05v
p2
I1
s.(dp0
Vcyjx8z8
p1
I1
sVd19j0qc
p2
I1
s.(dp0
Vcyjx8z8
p1
I1
sVd1asz3i
p2
I1
s.(dp0
Vcyjx8z8
p1
I1
sVd1t42er
p2
I1
s.(dp0
Vd1tpdnt
p1
I1
sVcyjx8z8
p2
I1
s.(dp0
Vd1tpdnt
p1
I1
sVcyjx8z8
p2
I1
s.(dp0
Vd1ugifw
p1
I1
sVcyjx8z8
p2
I1
s.(dp0
Vcyjx8z8
p1
I1
sVd2nib6a
p2
I1
s.(dp0
Vcyjx8z8
p1
I1
sVd2ubsja
p2
I1
s.(dp0
Vcyjx8z8
p1
I1
sVd2y4kvz
p2
I1
s.(dp0
Vd30zkar
p1
I1
sVcyjx8z8
p2
I1
s.(dp0
Vd3427wn
p1
I1
sVcyjx8z8
p2
I1
s.(dp0
Vcyjx8z8
p1
I1
sVd3jv7vw
p2
I1
s.(dp0
Vcyjx8z8
p1
I1
sVd3kmxcv
p2
I1
s.(dp0
Vcyjx8z8
p1
I1
sVd3qmsrj
p2
I1
s.(dp0
Vd3rfggy
p1
I1
sVcyjx8z8
p2
I1
s.(dp0
Vcyjx8z8
p1
I1
sVd3xasvo
p2
I1
s.(dp0
Vd4k2ug7
p1
I1
sVcyjx8z8
p2
I1
s.(dp0
Vd4o0mi2
p1
I1
sVcyjx8z8
p2
I1
s.(dp0
Vcyjx8z8
p1
I1
sVd5918po
p2
I1
s.(dp0
Vcyjx8z8
p1
I1
sVd5nm0m7
p2
I1
s.(dp0
Vcyjx8z8
p1
I1
sVd5ohqfg
p2
I1
s.(dp0
Vd623ujr
p1
I1
sVcyjx8z8
p2
I1
s.(dp0
Vcyjx8z8
p1
I1
sVd65omgn
p2
I1
s.(dp0
Vcyjx8z8
p1
I1
sVd7gs2go
p2
I1
s.(dp0
Vd7jrimb
p1
I1
sVcyjx8z8
p2
I1
s.(dp0
Vd7rdp5u
p1
I1
sVcyjx8z8
p2
I1
s.(dp0
Vcyjx8z8
p1
I1
sVd80p67s
p2
I1
s.(dp0
Vd8deddb
p1
I1
sVcyjx8z8
p2
I1
s.(dp0
Vd8k0671
p1
I1
sVcyjx8z8
p2
I1
s.(dp0
Vcyjx8z8
p1
I1
sVd94ndzp
p2
I1
s.(dp0
Vd9f216t
p1
I1
sVcyjx8z8
p2
I1
s.(dp0
Vd9okz6c
p1
I1
sVcyjx8z8
p2
I1
s.(dp0
Vd9z55p6
p1
I1
sVcyjx8z8
p2
I1
s.(dp0
Vd9z55p6
p1
I1
sVcyjx8z8
p2
I1
s.(dp0
Vda1nhle
p1
I1
sVcyjx8z8
p2
I1
s.(dp0
Vda3hauh
p1
I1
sVcyjx8z8
p2
I1
s.(dp0
Vcyjx8z8
p1
I1
sVdaph7go
p2
I1
s.(dp0
Vcyjx8z8
p1
I1
sVdaqpdf0
p2
I1
s.(dp0
Vcyjx8z8
p1
I1
sVdaykdqf
p2
I1
s.(dp0
Vdb69n8w
p1
I1
sVcyjx8z8
p2
I1
s.(dp0
Vdbb1arr
p1
I1
sVcyjx8z8
p2
I1
s.(dp0
Vdbmdajs
p1
I1
sVcyjx8z8
p2
I1
s.(dp0
Vcyjx8z8
p1
I1
sVdbuy0vg
p2
I1
s.(dp0
Vcyjx8z8
p1
I1
sVdbxwpcd
p2
I1
s.(dp0
Vcyjx8z8
p1
I1
sVdc9k25b
p2
I1
s.(dp0
Vcyjx8z8
p1
I1
sVdcg1obm
p2
I1
s.(dp0
Vcyjx8z8
p1
I1
sVdcg60oa
p2
I1
s.(dp0
Vdcg9hxr
p1
I1
sVcyjx8z8
p2
I1
s.(dp0
Vdcg9hxr
p1
I1
sVcyjx8z8
p2
I1
s.(dp0
Vdcg9hxr
p1
I1
sVcyjx8z8
p2
I1
s.(dp0
Vdcg9hxr
p1
I1
sVcyjx8z8
p2
I1
s.(dp0
Vcyjx8z8
p1
I1
sVdd033ue
p2
I1
s.(dp0
Vdd2vyvq
p1
I1
sVcyjx8z8
p2
I1
s.(dp0
Vddk84bs
p1
I1
sVcyjx8z8
p2
I1
s.(dp0
Vde11w05
p1
I1
sVcyjx8z8
p2
I1
s.(dp0
Vcyjx8z8
p1
I1
sVde2ibub
p2
I1
s.(dp0
Vcyjx8z8
p1
I1
sVde8o34w
p2
I1
s.(dp0
Vcyjx8z8
p1
I1
sVdenxvew
p2
I1
s.(dp0
Vdeqnah5
p1
I1
sVcyjx8z8
p2
I1
s.(dp0
Vcyjx8z8
p1
I1
sVdeu5z8m
p2
I1
s.(dp0
Vdevb7bp
p1
I1
sVcyjx8z8
p2
I1
s.(dp0
Vdexbpwi
p1
I1
sVcyjx8z8
p2
I1
s.(dp0
Vcyjx8z8
p1
I1
sVdf1z7be
p2
I1
s.(dp0
Vdf8q6zr
p1
I1
sVcyjx8z8
p2
I1
s.(dp0
Vdfa5vtm
p1
I1
sVcyjx8z8
p2
I1
s.(dp0
Vdgcxc6h
p1
I1
sVcyjx8z8
p2
I1
s.(dp0
Vdgfh222
p1
I1
sVcyjx8z8
p2
I1
s.(dp0
Vdggjc75
p1
I1
sVcyjx8z8
p2
I1
s.(dp0
Vcyjx8z8
p1
I1
sVdggu51k
p2
I1
s.(dp0
Vcyjx8z8
p1
I1
sVdgh0fdi
p2
I1
s.(dp0
Vdgrs0p0
p1
I1
sVcyjx8z8
p2
I1
s.(dp0
Vdgrs0p0
p1
I1
sVcyjx8z8
p2
I1
s.(dp0
Vdgrs0p0
p1
I1
sVcyjx8z8
p2
I1
s.(dp0
Vcyjx8z8
p1
I1
sVdhg2xar
p2
I1
s.(dp0
Vcyjx8z8
p1
I1
sVdhkl39j
p2
I1
s.(dp0
Vcyjx8z8
p1
I1
sVdhviy87
p2
I1
s.(dp0
Vcyjx8z8
p1
I1
sVdi2w5et
p2
I1
s.(dp0
Vdi55t1d
p1
I1
sVcyjx8z8
p2
I1
s.(dp0
Vcyjx8z8
p1
I1
sVdi6fo0c
p2
I1
s.(dp0
Vcyjx8z8
p1
I1
sVdi8054m
p2
I1
s.(dp0
Vcyjx8z8
p1
I1
sVdifmy66
p2
I1
s.(dp0
Vdipumjr
p1
I1
sVcyjx8z8
p2
I1
s.(dp0
Vcyjx8z8
p1
I1
sVdj4w798
p2
I1
s.(dp0
Vcyjx8z8
p1
I1
sVdjht66c
p2
I1
s.(dp0
Vcyjx8z8
p1
I1
sVdjvnu22
p2
I1
s.(dp0
Vcyjx8z8
p1
I1
sVdjxhd0t
p2
I1
s.(dp0
Vcyjx8z8
p1
I1
sVdkk7t9t
p2
I1
s.