(dp0
Vcyntynd
p1
I1
s.(dp0
Vcyntynd
p1
I1
sVcyzexte
p2
I1
s.(dp0
Vcziwcea
p1
I1
sVcyntynd
p2
I1
s.(dp0
Vd0m6fty
p1
I1
sVcyntynd
p2
I1
s.(dp0
Vd0tqqo0
p1
I1
sVcyntynd
p2
I1
s.(dp0
Vd493tj3
p1
I1
sVcyntynd
p2
I1
s.(dp0
Vd4up2b7
p1
I1
sVcyntynd
p2
I1
s.(dp0
Vcyntynd
p1
I1
sVd5luh0p
p2
I1
s.(dp0
Vdben4hn
p1
I1
sVcyntynd
p2
I1
s.(dp0
Vcyntynd
p1
I1
sVdbjbtxz
p2
I1
s.(dp0
Vddsym3k
p1
I1
sVcyntynd
p2
I1
s.(dp0
Vdg196w9
p1
I1
sVcyntynd
p2
I1
s.(dp0
Vdi7xfhh
p1
I1
sVcyntynd
p2
I1
s.(dp0
Vdico6ik
p1
I1
sVcyntynd
p2
I1
s.(dp0
Vdniozyj
p1
I1
sVcyntynd
p2
I1
s.