(dp0
Vd30809k
p1
I1
s.(dp0
Vd5guc4k
p1
I1
sVd30809k
p2
I1
s.(dp0
Vd7ppueg
p1
I1
sVd30809k
p2
I1
s.(dp0
Vd98fbon
p1
I1
sVd30809k
p2
I1
s.(dp0
Vdabikjd
p1
I1
sVd30809k
p2
I1
s.(dp0
Vdabikjd
p1
I1
sVd30809k
p2
I1
s.(dp0
Vdex0qxp
p1
I1
sVd30809k
p2
I1
s.