(dp0
Vcykzyx5
p1
I1
s.(dp0
Vcymb2ea
p1
I1
sVcykzyx5
p2
I1
s.(dp0
Vcykzyx5
p1
I1
sVcypyfsm
p2
I1
s.(dp0
Vcyu9szt
p1
I1
sVcykzyx5
p2
I1
s.(dp0
Vcykzyx5
p1
I1
sVcywjw2a
p2
I1
s.(dp0
Vcykzyx5
p1
I1
sVcywjw2a
p2
I1
s.(dp0
Vcyx98t9
p1
I1
sVcykzyx5
p2
I1
s.(dp0
Vcykzyx5
p1
I1
sVcz355up
p2
I1
s.(dp0
Vcykzyx5
p1
I1
sVcz355up
p2
I1
s.(dp0
Vcykzyx5
p1
I1
sVcz4l1xs
p2
I1
s.(dp0
Vcykzyx5
p1
I1
sVczbu4f2
p2
I1
s.(dp0
Vcykzyx5
p1
I1
sVczi6anh
p2
I1
s.(dp0
Vcykzyx5
p1
I1
sVczi8maq
p2
I1
s.(dp0
Vcykzyx5
p1
I1
sVczj89ps
p2
I1
s.(dp0
Vcykzyx5
p1
I1
sVczj89ps
p2
I1
s.(dp0
Vcykzyx5
p1
I1
sVczjv3n1
p2
I1
s.(dp0
Vcykzyx5
p1
I1
sVczs4ovd
p2
I1
s.(dp0
Vcykzyx5
p1
I1
sVd06zg5m
p2
I1
s.(dp0
Vcykzyx5
p1
I1
sVd06zg5m
p2
I1
s.(dp0
Vcykzyx5
p1
I1
sVd0lvsp2
p2
I1
s.(dp0
Vcykzyx5
p1
I1
sVd0qr4b9
p2
I1
s.(dp0
Vd0qr4n2
p1
I1
sVcykzyx5
p2
I1
s.(dp0
Vcykzyx5
p1
I1
sVd0twf5m
p2
I1
s.(dp0
Vd0x7iho
p1
I1
sVcykzyx5
p2
I1
s.(dp0
Vcykzyx5
p1
I1
sVd11oncp
p2
I1
s.(dp0
Vcykzyx5
p1
I1
sVd17yuwc
p2
I1
s.(dp0
Vcykzyx5
p1
I1
sVd1danee
p2
I1
s.(dp0
Vcykzyx5
p1
I1
sVd1jspzo
p2
I1
s.(dp0
Vcykzyx5
p1
I1
sVd1jspzo
p2
I1
s.(dp0
Vcykzyx5
p1
I1
sVd1us343
p2
I1
s.(dp0
Vcykzyx5
p1
I1
sVd1us343
p2
I1
s.(dp0
Vcykzyx5
p1
I1
sVd226k9u
p2
I1
s.(dp0
Vcykzyx5
p1
I1
sVd22byvb
p2
I1
s.(dp0
Vd24pbwf
p1
I1
sVcykzyx5
p2
I1
s.(dp0
Vcykzyx5
p1
I1
sVd25w6v8
p2
I1
s.(dp0
Vcykzyx5
p1
I1
sVd25w6v8
p2
I1
s.(dp0
Vcykzyx5
p1
I1
sVd26bin9
p2
I1
s.(dp0
Vcykzyx5
p1
I1
sVd26bin9
p2
I1
s.(dp0
Vcykzyx5
p1
I1
sVd26bin9
p2
I1
s.(dp0
Vcykzyx5
p1
I1
sVd26bin9
p2
I1
s.(dp0
Vcykzyx5
p1
I1
sVd27o102
p2
I1
s.(dp0
Vcykzyx5
p1
I1
sVd28vuub
p2
I1
s.(dp0
Vcykzyx5
p1
I1
sVd2a68l0
p2
I1
s.(dp0
Vcykzyx5
p1
I1
sVd2kva0z
p2
I1
s.(dp0
Vcykzyx5
p1
I1
sVd2l1g2c
p2
I1
s.(dp0
Vcykzyx5
p1
I1
sVd2l1g2c
p2
I1
s.(dp0
Vd308ood
p1
I1
sVcykzyx5
p2
I1
s.(dp0
Vcykzyx5
p1
I1
sVd342en7
p2
I1
s.(dp0
Vcykzyx5
p1
I1
sVd36j9sm
p2
I1
s.(dp0
Vcykzyx5
p1
I1
sVd38fel3
p2
I1
s.(dp0
Vcykzyx5
p1
I1
sVd3hr11c
p2
I1
s.(dp0
Vcykzyx5
p1
I1
sVd3w8vtm
p2
I1
s.(dp0
Vcykzyx5
p1
I1
sVd402mph
p2
I1
s.(dp0
Vd4nxqph
p1
I1
sVcykzyx5
p2
I1
s.(dp0
Vcykzyx5
p1
I1
sVd4wbrvj
p2
I1
s.(dp0
Vcykzyx5
p1
I1
sVd582h4v
p2
I1
s.(dp0
Vcykzyx5
p1
I1
sVd582h4v
p2
I1
s.(dp0
Vcykzyx5
p1
I1
sVd59hdqx
p2
I1
s.(dp0
Vcykzyx5
p1
I1
sVd59hdqx
p2
I1
s.(dp0
Vcykzyx5
p1
I1
sVd5ju3c8
p2
I1
s.(dp0
Vd5uutfa
p1
I1
sVcykzyx5
p2
I1
s.(dp0
Vd5uutfa
p1
I1
sVcykzyx5
p2
I1
s.(dp0
Vcykzyx5
p1
I1
sVd5w5k9p
p2
I1
s.(dp0
Vcykzyx5
p1
I1
sVd6dstn1
p2
I1
s.(dp0
Vcykzyx5
p1
I1
sVd6dstn1
p2
I1
s.(dp0
Vd6ekq8p
p1
I1
sVcykzyx5
p2
I1
s.(dp0
Vcykzyx5
p1
I1
sVd6xxe15
p2
I1
s.(dp0
Vcykzyx5
p1
I1
sVd6ybpmt
p2
I1
s.(dp0
Vd78xtua
p1
I1
sVcykzyx5
p2
I1
s.(dp0
Vcykzyx5
p1
I1
sVd7m1sfm
p2
I1
s.(dp0
Vcykzyx5
p1
I1
sVd7t0nra
p2
I1
s.(dp0
Vcykzyx5
p1
I1
sVd82jpw9
p2
I1
s.(dp0
Vd8a9f77
p1
I1
sVcykzyx5
p2
I1
s.(dp0
Vcykzyx5
p1
I1
sVd8fvssw
p2
I1
s.(dp0
Vd8n0j0w
p1
I1
sVcykzyx5
p2
I1
s.(dp0
Vd8n0j0w
p1
I1
sVcykzyx5
p2
I1
s.(dp0
Vcykzyx5
p1
I1
sVd8pl944
p2
I1
s.(dp0
Vcykzyx5
p1
I1
sVd8pl944
p2
I1
s.(dp0
Vd8ytq1m
p1
I1
sVcykzyx5
p2
I1
s.(dp0
Vd90q32j
p1
I1
sVcykzyx5
p2
I1
s.(dp0
Vcykzyx5
p1
I1
sVd91alik
p2
I1
s.(dp0
Vda5g4x8
p1
I1
sVcykzyx5
p2
I1
s.(dp0
Vcykzyx5
p1
I1
sVdadwssz
p2
I1
s.(dp0
Vdawjpwa
p1
I1
sVcykzyx5
p2
I1
s.(dp0
Vcykzyx5
p1
I1
sVdb0z9a0
p2
I1
s.(dp0
Vdb56yg3
p1
I1
sVcykzyx5
p2
I1
s.(dp0
Vdb56yg3
p1
I1
sVcykzyx5
p2
I1
s.(dp0
Vdb56yg3
p1
I1
sVcykzyx5
p2
I1
s.(dp0
Vdb56yg3
p1
I1
sVcykzyx5
p2
I1
s.(dp0
Vdb56yg3
p1
I1
sVcykzyx5
p2
I1
s.(dp0
Vdb56yg3
p1
I1
sVcykzyx5
p2
I1
s.(dp0
Vdbadaoi
p1
I1
sVcykzyx5
p2
I1
s.(dp0
Vcykzyx5
p1
I1
sVdbgoyjx
p2
I1
s.(dp0
Vcykzyx5
p1
I1
sVdblbhpj
p2
I1
s.(dp0
Vcykzyx5
p1
I1
sVdblbhpj
p2
I1
s.(dp0
Vdbncv0u
p1
I1
sVcykzyx5
p2
I1
s.(dp0
Vdbncv0u
p1
I1
sVcykzyx5
p2
I1
s.(dp0
Vdbncv0u
p1
I1
sVcykzyx5
p2
I1
s.(dp0
Vdbo540e
p1
I1
sVcykzyx5
p2
I1
s.(dp0
Vdbo540e
p1
I1
sVcykzyx5
p2
I1
s.(dp0
Vdbo540e
p1
I1
sVcykzyx5
p2
I1
s.(dp0
Vdbqcgi8
p1
I1
sVcykzyx5
p2
I1
s.(dp0
Vdbqcgi8
p1
I1
sVcykzyx5
p2
I1
s.(dp0
Vdbqcgi8
p1
I1
sVcykzyx5
p2
I1
s.(dp0
Vcykzyx5
p1
I1
sVdbwq5sa
p2
I1
s.(dp0
Vcykzyx5
p1
I1
sVdbwq5sa
p2
I1
s.(dp0
Vcykzyx5
p1
I1
sVdcidxbv
p2
I1
s.(dp0
Vcykzyx5
p1
I1
sVdcidxbv
p2
I1
s.(dp0
Vcy(dp0
Vcykzyx5
p1
I1
sVdp1gd2v
p2
I1
s.