(dp0
Vczavo7q
p1
I1
s.(dp0
Vd0oeus9
p1
I1
sVczavo7q
p2
I1
s.(dp0
Vd2kc3sq
p1
I1
sVczavo7q
p2
I1
s.(dp0
Vczavo7q
p1
I1
sVd4iephj
p2
I1
s.(dp0
Vd7zedin
p1
I1
sVczavo7q
p2
I1
s.(dp0
Vdengir2
p1
I1
sVczavo7q
p2
I1
s.