(dp0
Vcyub4ba
p1
I1
s.(dp0
Vd01jnis
p1
I1
sVcyub4ba
p2
I1
s.(dp0
Vd64ppld
p1
I1
sVcyub4ba
p2
I1
s.(dp0
Vd6mbm5m
p1
I1
sVcyub4ba
p2
I1
s.(dp0
Vd7dg2q7
p1
I1
sVcyub4ba
p2
I1
s.(dp0
Vdajxi4l
p1
I1
sVcyub4ba
p2
I1
s.(dp0
Vdbn4goi
p1
I1
sVcyub4ba
p2
I1
s.