(dp0
Vcyl5f9d
p1
I1
s.(dp0
Vcyl5f9d
p1
I2
s.(dp0
Vcyl5f9d
p1
I2
s.(dp0
Vcyl5f9d
p1
I2
s.(dp0
Vcyl5f9d
p1
I1
sVcymc8az
p2
I1
s.(dp0
Vcyl5f9d
p1
I1
sVcynra8u
p2
I1
s.(dp0
Vcyl5f9d
p1
I1
sVcyqa4hz
p2
I1
s.(dp0
Vcyl5f9d
p1
I1
sVcyrij2v
p2
I1
s.(dp0
Vcyl5f9d
p1
I1
sVcyt7wms
p2
I1
s.(dp0
Vcyl5f9d
p1
I1
sVcytqy2u
p2
I1
s.(dp0
Vcyl5f9d
p1
I1
sVcyuit9h
p2
I1
s.(dp0
Vcyl5f9d
p1
I1
sVcyxo7tm
p2
I1
s.(dp0
Vcz7c4ga
p1
I1
sVcyl5f9d
p2
I1
s.(dp0
Vcyl5f9d
p1
I1
sVcz8ay5m
p2
I1
s.(dp0
Vcyl5f9d
p1
I1
sVcz9tr33
p2
I1
s.(dp0
Vcyl5f9d
p1
I1
sVcz9tr33
p2
I1
s.(dp0
Vcyl5f9d
p1
I1
sVcz9wc47
p2
I1
s.(dp0
Vcz9ydx8
p1
I1
sVcyl5f9d
p2
I1
s.(dp0
Vcyl5f9d
p1
I1
sVczhs2q4
p2
I1
s.(dp0
Vcyl5f9d
p1
I1
sVczhs2q4
p2
I1
s.(dp0
Vcyl5f9d
p1
I1
sVczhsy2v
p2
I1
s.(dp0
Vcyl5f9d
p1
I1
sVczhsy2v
p2
I1
s.(dp0
Vcyl5f9d
p1
I1
sVczhsy2v
p2
I1
s.(dp0
Vcyl5f9d
p1
I1
sVczhsy2v
p2
I1
s.(dp0
Vcyl5f9d
p1
I1
sVczhwkuq
p2
I1
s.(dp0
Vcyl5f9d
p1
I1
sVczhwkuq
p2
I1
s.(dp0
Vcyl5f9d
p1
I1
sVczhwkuq
p2
I1
s.(dp0
Vcyl5f9d
p1
I1
sVczi72bk
p2
I1
s.(dp0
Vcyl5f9d
p1
I1
sVczjut2s
p2
I1
s.(dp0
Vcyl5f9d
p1
I1
sVczkphlc
p2
I1
s.(dp0
Vcyl5f9d
p1
I1
sVczqqhuo
p2
I1
s.(dp0
Vcyl5f9d
p1
I1
sVczt5dh2
p2
I1
s.(dp0
Vcyl5f9d
p1
I1
sVczt5dh2
p2
I1
s.(dp0
Vcyl5f9d
p1
I1
sVczv42f1
p2
I1
s.(dp0
Vczzmq5i
p1
I1
sVcyl5f9d
p2
I1
s.(dp0
Vcyl5f9d
p1
I1
sVd00q4yq
p2
I1
s.(dp0
Vcyl5f9d
p1
I1
sVd01hqk7
p2
I1
s.(dp0
Vcyl5f9d
p1
I1
sVd04s8bm
p2
I1
s.(dp0
Vcyl5f9d
p1
I1
sVd04tna0
p2
I1
s.(dp0
Vcyl5f9d
p1
I1
sVd04u357
p2
I1
s.(dp0
Vd04w9w6
p1
I1
sVcyl5f9d
p2
I1
s.(dp0
Vcyl5f9d
p1
I1
sVd091a87
p2
I1
s.(dp0
Vcyl5f9d
p1
I1
sVd091a87
p2
I1
s.(dp0
Vcyl5f9d
p1
I1
sVd091a87
p2
I1
s.(dp0
Vd09l0u5
p1
I1
sVcyl5f9d
p2
I1
s.(dp0
Vd0a41ls
p1
I1
sVcyl5f9d
p2
I1
s.(dp0
Vcyl5f9d
p1
I1
sVd0culkv
p2
I1
s.(dp0
Vcyl5f9d
p1
I1
sVd0ierne
p2
I1
s.(dp0
Vcyl5f9d
p1
I1
sVd0itz43
p2
I1
s.(dp0
Vcyl5f9d
p1
I1
sVd0l4c53
p2
I1
s.(dp0
Vcyl5f9d
p1
I1
sVd0lk2z5
p2
I1
s.(dp0
Vd0pwcxu
p1
I1
sVcyl5f9d
p2
I1
s.(dp0
Vcyl5f9d
p1
I1
sVd0pzqh7
p2
I1
s.(dp0
Vcyl5f9d
p1
I1
sVd0siwri
p2
I1
s.(dp0
Vcyl5f9d
p1
I1
sVd0t8orw
p2
I1
s.(dp0
Vcyl5f9d
p1
I1
sVd1brho6
p2
I1
s.(dp0
Vcyl5f9d
p1
I1
sVd1izmlg
p2
I1
s.(dp0
Vcyl5f9d
p1
I1
sVd1tk4bz
p2
I1
s.(dp0
Vcyl5f9d
p1
I1
sVd1tps7e
p2
I1
s.(dp0
Vd1tryex
p1
I1
sVcyl5f9d
p2
I1
s.(dp0
Vd1tryex
p1
I1
sVcyl5f9d
p2
I1
s.(dp0
Vd1tw1nj
p1
I1
sVcyl5f9d
p2
I1
s.(dp0
Vcyl5f9d
p1
I1
sVd1u05l9
p2
I1
s.(dp0
Vd1u5kfo
p1
I1
sVcyl5f9d
p2
I1
s.(dp0
Vcyl5f9d
p1
I1
sVd1v29cs
p2
I1
s.(dp0
Vcyl5f9d
p1
I1
sVd1xlk4q
p2
I1
s.(dp0
Vcyl5f9d
p1
I1
sVd20x6oa
p2
I1
s.(dp0
Vcyl5f9d
p1
I1
sVd23h2kn
p2
I1
s.(dp0
Vcyl5f9d
p1
I1
sVd29iyqe
p2
I1
s.(dp0
Vcyl5f9d
p1
I1
sVd2hmzug
p2
I1
s.(dp0
Vcyl5f9d
p1
I1
sVd2ij37e
p2
I1
s.(dp0
Vcyl5f9d
p1
I1
sVd2kth7c
p2
I1
s.(dp0
Vd2la0b4
p1
I1
sVcyl5f9d
p2
I1
s.(dp0
Vd2la0b4
p1
I1
sVcyl5f9d
p2
I1
s.(dp0
Vd2la0b4
p1
I1
sVcyl5f9d
p2
I1
s.(dp0
Vd2la0b4
p1
I1
sVcyl5f9d
p2
I1
s.(dp0
Vd2la0b4
p1
I1
sVcyl5f9d
p2
I1
s.(dp0
Vd2t8h70
p1
I1
sVcyl5f9d
p2
I1
s.(dp0
Vd2y7nlw
p1
I1
sVcyl5f9d
p2
I1
s.(dp0
Vcyl5f9d
p1
I1
sVd2zsmhb
p2
I1
s.(dp0
Vcyl5f9d
p1
I1
sVd2zsmhb
p2
I1
s.(dp0
Vcyl5f9d
p1
I1
sVd32uspa
p2
I1
s.(dp0
Vcyl5f9d
p1
I1
sVd32xfnt
p2
I1
s.(dp0
Vcyl5f9d
p1
I1
sVd349gro
p2
I1
s.(dp0
Vcyl5f9d
p1
I1
sVd35w8gb
p2
I1
s.(dp0
Vd38pot1
p1
I1
sVcyl5f9d
p2
I1
s.(dp0
Vcyl5f9d
p1
I1
sVd3ceylx
p2
I1
s.(dp0
Vcyl5f9d
p1
I1
sVd3e4o0m
p2
I1
s.(dp0
Vd3fwo5a
p1
I1
sVcyl5f9d
p2
I1
s.(dp0
Vcyl5f9d
p1
I1
sVd3gnwu9
p2
I1
s.(dp0
Vcyl5f9d
p1
I1
sVd3k7aw2
p2
I1
s.(dp0
Vcyl5f9d
p1
I1
sVd3l9sy3
p2
I1
s.(dp0
Vcyl5f9d
p1
I1
sVd3n4xkr
p2
I1
s.(dp0
Vcyl5f9d
p1
I1
sVd3nge9m
p2
I1
s.(dp0
Vcyl5f9d
p1
I1
sVd3njl66
p2
I1
s.(dp0
Vcyl5f9d
p1
I1
sVd3u879z
p2
I1
s.(dp0
Vcyl5f9d
p1
I1
sVd3x0ank
p2
I1
s.(dp0
Vd3xeygq
p1
I1
sVcyl5f9d
p2
I1
s.(dp0
Vcyl5f9d
p1
I1
sVd3z7z7m
p2
I1
s.(dp0
Vcyl5f9d
p1
I1
sVd41bjlo
p2
I1
s.(dp0
Vcyl5f9d
p1
I1
sVd43ux9a
p2
I1
s.(dp0
Vd4cgkqa
p1
I1
sVcyl5f9d
p2
I1
s.(dp0
Vcyl5f9d
p1
I1
sVd4d9d6h
p2
I1
s.(dp0
Vd4we498
p1
I1
sVcyl5f9d
p2
I1
s.(dp0
Vcyl5f9d
p1
I1
sVd5043bs
p2
I1
s.(dp0
Vd5ipjal
p1
I1
sVcyl5f9d
p2
I1
s.(dp0
Vcyl5f9d
p1
I1
sVd5md6vv
p2
I1
s.(dp0
Vcyl5f9d
p1
I1
sVd5wdet4
p2
I1
s.(dp0
Vcyl5f9d
p1
I1
sVd651dgd
p2
I1
s.(dp0
Vcyl5f9d
p1
I(dp0
Vcyl5f9d
p1
I1
sVdkuqhjp
p2
I1
s.