(dp0
Vcyi2qq5
p1
I1
s.(dp0
Vcyi5c8c
p1
I1
sVcyi2qq5
p2
I1
s.(dp0
Vcyickig
p1
I1
sVcyi2qq5
p2
I1
s.(dp0
Vcyickig
p1
I1
sVcyi2qq5
p2
I1
s.(dp0
Vcyifwlq
p1
I1
sVcyi2qq5
p2
I1
s.(dp0
Vcyihj0p
p1
I1
sVcyi2qq5
p2
I1
s.(dp0
Vcyiisan
p1
I1
sVcyi2qq5
p2
I1
s.(dp0
Vcyj22h6
p1
I1
sVcyi2qq5
p2
I1
s.(dp0
Vcyj6gxj
p1
I1
sVcyi2qq5
p2
I1
s.(dp0
Vcyj6gxj
p1
I1
sVcyi2qq5
p2
I1
s.(dp0
Vcyjao3j
p1
I1
sVcyi2qq5
p2
I1
s.(dp0
Vcyjkmh9
p1
I1
sVcyi2qq5
p2
I1
s.(dp0
Vcyjvvud
p1
I1
sVcyi2qq5
p2
I1
s.(dp0
Vcyjvw3u
p1
I1
sVcyi2qq5
p2
I1
s.(dp0
Vcyk1z4r
p1
I1
sVcyi2qq5
p2
I1
s.(dp0
Vcyk6dtd
p1
I1
sVcyi2qq5
p2
I1
s.(dp0
Vcyk7lpn
p1
I1
sVcyi2qq5
p2
I1
s.(dp0
Vcykmlpq
p1
I1
sVcyi2qq5
p2
I1
s.(dp0
Vcykmlpq
p1
I1
sVcyi2qq5
p2
I1
s.(dp0
Vcykxxle
p1
I1
sVcyi2qq5
p2
I1
s.(dp0
Vcylh0q0
p1
I1
sVcyi2qq5
p2
I1
s.(dp0
Vcylkhds
p1
I1
sVcyi2qq5
p2
I1
s.(dp0
Vcylkhds
p1
I1
sVcyi2qq5
p2
I1
s.(dp0
Vcym11t3
p1
I1
sVcyi2qq5
p2
I1
s.(dp0
Vcym4aos
p1
I1
sVcyi2qq5
p2
I1
s.(dp0
Vcym4aos
p1
I1
sVcyi2qq5
p2
I1
s.(dp0
Vcymfr3w
p1
I1
sVcyi2qq5
p2
I1
s.(dp0
Vcymiewr
p1
I1
sVcyi2qq5
p2
I1
s.(dp0
Vcymlawo
p1
I1
sVcyi2qq5
p2
I1
s.(dp0
Vcymu2to
p1
I1
sVcyi2qq5
p2
I1
s.(dp0
Vcyn1hse
p1
I1
sVcyi2qq5
p2
I1
s.(dp0
Vcynb6p0
p1
I1
sVcyi2qq5
p2
I1
s.(dp0
Vcyneiyi
p1
I1
sVcyi2qq5
p2
I1
s.(dp0
Vcynhrca
p1
I1
sVcyi2qq5
p2
I1
s.(dp0
Vcynpx23
p1
I1
sVcyi2qq5
p2
I1
s.(dp0
Vcyoexni
p1
I1
sVcyi2qq5
p2
I1
s.(dp0
Vcyp05v1
p1
I1
sVcyi2qq5
p2
I1
s.(dp0
Vcyp4fn5
p1
I1
sVcyi2qq5
p2
I1
s.(dp0
Vcypgfn5
p1
I1
sVcyi2qq5
p2
I1
s.(dp0
Vcyq86xv
p1
I1
sVcyi2qq5
p2
I1
s.(dp0
Vcyqm7zg
p1
I1
sVcyi2qq5
p2
I1
s.(dp0
Vcyqup4y
p1
I1
sVcyi2qq5
p2
I1
s.(dp0
Vcyrlosq
p1
I1
sVcyi2qq5
p2
I1
s.(dp0
Vcyrr54q
p1
I1
sVcyi2qq5
p2
I1
s.(dp0
Vcyrs9tk
p1
I1
sVcyi2qq5
p2
I1
s.(dp0
Vcysb9qg
p1
I1
sVcyi2qq5
p2
I1
s.(dp0
Vcyspo6f
p1
I1
sVcyi2qq5
p2
I1
s.(dp0
Vcyst3hm
p1
I1
sVcyi2qq5
p2
I1
s.(dp0
Vcysxllj
p1
I1
sVcyi2qq5
p2
I1
s.(dp0
Vcyt0apo
p1
I1
sVcyi2qq5
p2
I1
s.(dp0
Vcyt0apo
p1
I1
sVcyi2qq5
p2
I1
s.(dp0
Vcytrn1h
p1
I1
sVcyi2qq5
p2
I1
s.(dp0
Vcytzdxc
p1
I1
sVcyi2qq5
p2
I1
s.(dp0
Vcyun5xs
p1
I1
sVcyi2qq5
p2
I1
s.(dp0
Vcyupiii
p1
I1
sVcyi2qq5
p2
I1
s.(dp0
Vcyus4o7
p1
I1
sVcyi2qq5
p2
I1
s.(dp0
Vcyuylfi
p1
I1
sVcyi2qq5
p2
I1
s.(dp0
Vcyv927n
p1
I1
sVcyi2qq5
p2
I1
s.(dp0
Vcyvvcr1
p1
I1
sVcyi2qq5
p2
I1
s.(dp0
Vcyw1b3c
p1
I1
sVcyi2qq5
p2
I1
s.(dp0
Vcyw32af
p1
I1
sVcyi2qq5
p2
I1
s.(dp0
Vcyw32af
p1
I1
sVcyi2qq5
p2
I1
s.(dp0
Vcyw32af
p1
I1
sVcyi2qq5
p2
I1
s.(dp0
Vcyw32af
p1
I1
sVcyi2qq5
p2
I1
s.(dp0
Vcyx55zk
p1
I1
sVcyi2qq5
p2
I1
s.(dp0
Vcyxb984
p1
I1
sVcyi2qq5
p2
I1
s.(dp0
Vcyxz3lb
p1
I1
sVcyi2qq5
p2
I1
s.(dp0
Vcyyeqwg
p1
I1
sVcyi2qq5
p2
I1
s.(dp0
Vcyyu3be
p1
I1
sVcyi2qq5
p2
I1
s.(dp0
Vcyyzwue
p1
I1
sVcyi2qq5
p2
I1
s.(dp0
Vcyz4ctn
p1
I1
sVcyi2qq5
p2
I1
s.(dp0
Vcyziy47
p1
I1
sVcyi2qq5
p2
I1
s.(dp0
Vcyzwv2z
p1
I1
sVcyi2qq5
p2
I1
s.(dp0
Vcyzwv2z
p1
I1
sVcyi2qq5
p2
I1
s.(dp0
Vcz0h694
p1
I1
sVcyi2qq5
p2
I1
s.(dp0
Vcz0o749
p1
I1
sVcyi2qq5
p2
I1
s.(dp0
Vcz0z4tp
p1
I1
sVcyi2qq5
p2
I1
s.(dp0
Vcz17hqh
p1
I1
sVcyi2qq5
p2
I1
s.(dp0
Vcz1ci0r
p1
I1
sVcyi2qq5
p2
I1
s.(dp0
Vcz1zn9j
p1
I1
sVcyi2qq5
p2
I1
s.(dp0
Vcz26t74
p1
I1
sVcyi2qq5
p2
I1
s.(dp0
Vcz2nuds
p1
I1
sVcyi2qq5
p2
I1
s.(dp0
Vcz2ouzh
p1
I1
sVcyi2qq5
p2
I1
s.(dp0
Vcz2p4kf
p1
I1
sVcyi2qq5
p2
I1
s.(dp0
Vcz2ui64
p1
I1
sVcyi2qq5
p2
I1
s.(dp0
Vcz37e37
p1
I1
sVcyi2qq5
p2
I1
s.(dp0
Vcz381vh
p1
I1
sVcyi2qq5
p2
I1
s.(dp0
Vcz3t21e
p1
I1
sVcyi2qq5
p2
I1
s.(dp0
Vcz3u62d
p1
I1
sVcyi2qq5
p2
I1
s.(dp0
Vcz3u62d
p1
I1
sVcyi2qq5
p2
I1
s.(dp0
Vcz3wbb1
p1
I1
sVcyi2qq5
p2
I1
s.(dp0
Vcz3wss8
p1
I1
sVcyi2qq5
p2
I1
s.(dp0
Vcz3xai4
p1
I1
sVcyi2qq5
p2
I1
s.(dp0
Vcz4ar6s
p1
I1
sVcyi2qq5
p2
I1
s.(dp0
Vcz4i1wf
p1
I1
sVcyi2qq5
p2
I1
s.(dp0
Vcz4x9ql
p1
I1
sVcyi2qq5
p2
I1
s.(dp0
Vcz5axyx
p1
I1
sVcyi2qq5
p2
I1
s.(dp0
Vcz5olms
p1
I1
sVcyi2qq5
p2
I1
s.(dp0
Vcz5rd9k
p1
I1
sVcyi2qq5
p2
I1
s.(dp0
Vcz6v93s
p1
I1
sVcyi2qq5
p2
I1
s.(dp0
Vcz7ai28
p1
I1
sVcyi2qq5
p2
I1
s.(dp0
Vcz7p01l
p1
I1
sVcyi2qq5
p2
I1
s.(dp0
Vcz7r4tb
p1
I1
sVcyi2qq5
p2
I1
s.(dp0
Vcz91wqx
p1
I1
sVcyi2qq5
p2
I1
s.(dp0
Vcz9l63o
p1
I1
sVcyi2qq5
p2
I1
s.(dp0
Vcz9lckp
p1
I1
sVcyi2qq5
p2
I1
s.(dp0
Vcz9wdco
p1
I1
sVcyi2qq5
p2
I1
s.(dp0
Vcza11m0
p1
I1
sVcyi2qq5
p2
I1
s.(dp0
Vcz(dp0
Vdp3e90h
p1
I1
sVcyi2qq5
p2
I1
s.