(dp0
Vcz14q57
p1
I1
s.(dp0
Vcz4irp6
p1
I1
sVcz14q57
p2
I1
s.(dp0
Vcz7etnd
p1
I1
sVcz14q57
p2
I1
s.(dp0
Vczs20uh
p1
I1
sVcz14q57
p2
I1
s.(dp0
Vczvajy4
p1
I1
sVcz14q57
p2
I1
s.(dp0
Vczvjoz0
p1
I1
sVcz14q57
p2
I1
s.(dp0
Vczvk3rz
p1
I1
sVcz14q57
p2
I1
s.(dp0
Vczvk3rz
p1
I1
sVcz14q57
p2
I1
s.(dp0
Vczxmlw5
p1
I1
sVcz14q57
p2
I1
s.(dp0
Vczxmlw5
p1
I1
sVcz14q57
p2
I1
s.(dp0
Vd0c8ps4
p1
I1
sVcz14q57
p2
I1
s.(dp0
Vcz14q57
p1
I1
sVd0cs6rj
p2
I1
s.(dp0
Vd0nrwys
p1
I1
sVcz14q57
p2
I1
s.(dp0
Vd0ozgci
p1
I1
sVcz14q57
p2
I1
s.(dp0
Vd0tonvy
p1
I1
sVcz14q57
p2
I1
s.(dp0
Vd1023zw
p1
I1
sVcz14q57
p2
I1
s.(dp0
Vd1d9y2t
p1
I1
sVcz14q57
p2
I1
s.(dp0
Vd1nyro8
p1
I1
sVcz14q57
p2
I1
s.(dp0
Vd1pfv83
p1
I1
sVcz14q57
p2
I1
s.(dp0
Vd1ptj33
p1
I1
sVcz14q57
p2
I1
s.(dp0
Vd1rcs6o
p1
I1
sVcz14q57
p2
I1
s.(dp0
Vd1ze0tg
p1
I1
sVcz14q57
p2
I1
s.(dp0
Vd28zkg7
p1
I1
sVcz14q57
p2
I1
s.(dp0
Vd2btr90
p1
I1
sVcz14q57
p2
I1
s.(dp0
Vd2bzuat
p1
I1
sVcz14q57
p2
I1
s.(dp0
Vd2c579n
p1
I1
sVcz14q57
p2
I1
s.(dp0
Vd2c579n
p1
I1
sVcz14q57
p2
I1
s.(dp0
Vd2ce6wv
p1
I1
sVcz14q57
p2
I1
s.(dp0
Vd2chhyj
p1
I1
sVcz14q57
p2
I1
s.(dp0
Vd2cxem2
p1
I1
sVcz14q57
p2
I1
s.(dp0
Vd2h7flw
p1
I1
sVcz14q57
p2
I1
s.(dp0
Vd2naihd
p1
I1
sVcz14q57
p2
I1
s.(dp0
Vd2nwdj9
p1
I1
sVcz14q57
p2
I1
s.(dp0
Vd2nwdj9
p1
I1
sVcz14q57
p2
I1
s.(dp0
Vd2xs753
p1
I1
sVcz14q57
p2
I1
s.(dp0
Vd2xs753
p1
I1
sVcz14q57
p2
I1
s.(dp0
Vd2zmdis
p1
I1
sVcz14q57
p2
I1
s.(dp0
Vd3343ua
p1
I1
sVcz14q57
p2
I1
s.(dp0
Vd3n7dw4
p1
I1
sVcz14q57
p2
I1
s.(dp0
Vcz14q57
p1
I1
sVd3wc91i
p2
I1
s.(dp0
Vcz14q57
p1
I1
sVd3wc91i
p2
I1
s.(dp0
Vd3ykch1
p1
I1
sVcz14q57
p2
I1
s.(dp0
Vd4104lz
p1
I1
sVcz14q57
p2
I1
s.(dp0
Vd42o90d
p1
I1
sVcz14q57
p2
I1
s.(dp0
Vcz14q57
p1
I1
sVd4ev77q
p2
I1
s.(dp0
Vd4hpy9j
p1
I1
sVcz14q57
p2
I1
s.(dp0
Vd4kiz6e
p1
I1
sVcz14q57
p2
I1
s.(dp0
Vd4kiz6e
p1
I1
sVcz14q57
p2
I1
s.(dp0
Vcz14q57
p1
I1
sVd4r3hux
p2
I1
s.(dp0
Vd4xt0uu
p1
I1
sVcz14q57
p2
I1
s.(dp0
Vd5bc6ha
p1
I1
sVcz14q57
p2
I1
s.(dp0
Vd5bc6ha
p1
I1
sVcz14q57
p2
I1
s.(dp0
Vd5bc6ha
p1
I1
sVcz14q57
p2
I1
s.(dp0
Vd5bc6ha
p1
I1
sVcz14q57
p2
I1
s.(dp0
Vd5jbxjw
p1
I1
sVcz14q57
p2
I1
s.(dp0
Vd6a1vmj
p1
I1
sVcz14q57
p2
I1
s.(dp0
Vcz14q57
p1
I1
sVd6qohai
p2
I1
s.(dp0
Vd6zqkgg
p1
I1
sVcz14q57
p2
I1
s.(dp0
Vd79akcg
p1
I1
sVcz14q57
p2
I1
s.(dp0
Vd7buldb
p1
I1
sVcz14q57
p2
I1
s.(dp0
Vd7phwd5
p1
I1
sVcz14q57
p2
I1
s.(dp0
Vd8t5e0k
p1
I1
sVcz14q57
p2
I1
s.(dp0
Vd8t5e0k
p1
I1
sVcz14q57
p2
I1
s.(dp0
Vd8t5e0k
p1
I1
sVcz14q57
p2
I1
s.(dp0
Vd90rszb
p1
I1
sVcz14q57
p2
I1
s.(dp0
Vd99fb2v
p1
I1
sVcz14q57
p2
I1
s.(dp0
Vd9fjruv
p1
I1
sVcz14q57
p2
I1
s.(dp0
Vd9lq61g
p1
I1
sVcz14q57
p2
I1
s.(dp0
Vd9lq61g
p1
I1
sVcz14q57
p2
I1
s.(dp0
Vd9lqeov
p1
I1
sVcz14q57
p2
I1
s.(dp0
Vd9okz6c
p1
I1
sVcz14q57
p2
I1
s.(dp0
Vd9yv5mx
p1
I1
sVcz14q57
p2
I1
s.(dp0
Vdaasocx
p1
I1
sVcz14q57
p2
I1
s.(dp0
Vdabkls7
p1
I1
sVcz14q57
p2
I1
s.(dp0
Vdabkls7
p1
I1
sVcz14q57
p2
I1
s.(dp0
Vdabkls7
p1
I1
sVcz14q57
p2
I1
s.(dp0
Vdabkls7
p1
I1
sVcz14q57
p2
I1
s.(dp0
Vdabkls7
p1
I1
sVcz14q57
p2
I1
s.(dp0
Vdam5l01
p1
I1
sVcz14q57
p2
I1
s.(dp0
Vdav9zsr
p1
I1
sVcz14q57
p2
I1
s.(dp0
Vdb0ziot
p1
I1
sVcz14q57
p2
I1
s.(dp0
Vdbnlm1n
p1
I1
sVcz14q57
p2
I1
s.(dp0
Vdbnlm1n
p1
I1
sVcz14q57
p2
I1
s.(dp0
Vdbvogrg
p1
I1
sVcz14q57
p2
I1
s.(dp0
Vdc3ao6p
p1
I1
sVcz14q57
p2
I1
s.(dp0
Vdc3lm6d
p1
I1
sVcz14q57
p2
I1
s.(dp0
Vdc5irdo
p1
I1
sVcz14q57
p2
I1
s.(dp0
Vdc5irdo
p1
I1
sVcz14q57
p2
I1
s.(dp0
Vdc5irdo
p1
I1
sVcz14q57
p2
I1
s.(dp0
Vddd46la
p1
I1
sVcz14q57
p2
I1
s.(dp0
Vddl6lsb
p1
I1
sVcz14q57
p2
I1
s.(dp0
Vddl6lsb
p1
I1
sVcz14q57
p2
I1
s.(dp0
Vde8ij2m
p1
I1
sVcz14q57
p2
I1
s.(dp0
Vcz14q57
p1
I1
sVdehxzxq
p2
I1
s.(dp0
Vcz14q57
p1
I1
sVdehxzxq
p2
I1
s.(dp0
Vdex14bi
p1
I1
sVcz14q57
p2
I1
s.(dp0
Vdf5cbkd
p1
I1
sVcz14q57
p2
I1
s.(dp0
Vcz14q57
p1
I1
sVdfcofai
p2
I1
s.(dp0
Vdfebrwe
p1
I1
sVcz14q57
p2
I1
s.(dp0
Vdfebrwe
p1
I1
sVcz14q57
p2
I1
s.(dp0
Vdfercqn
p1
I1
sVcz14q57
p2
I1
s.(dp0
Vcz14q57
p1
I1
sVdfikfrz
p2
I1
s.(dp0
Vcz14q57
p1
I1
sVdfinp5j
p2
I1
s.(dp0
Vdfl1yev
p1
I1
sVcz14q57
p2
I1
s.(dp0
Vdgt3ll0
p1
I1
sVcz14q57
p2
I1
s.(dp0
Vdh67kuy
p1
I1
sVcz14q57
p2
I1
s.(dp0
Vdhb7kae
p1
I1
sVcz14q57
p2
I1
s.(dp0
Vdhh5uil
p1
I1
sVcz14q57
p2
I1
s.(dp0
Vdh(dp0
Vdp1qdtt
p1
I1
sVcz14q57
p2
I1
s.