(dp0
Vcyigf45
p1
I1
s.(dp0
Vcyio8jq
p1
I1
sVcyigf45
p2
I1
s.(dp0
Vcyjbfxg
p1
I1
sVcyigf45
p2
I1
s.(dp0
Vcyjbfxg
p1
I1
sVcyigf45
p2
I1
s.(dp0
Vcyjli9b
p1
I1
sVcyigf45
p2
I1
s.(dp0
Vcyjli9b
p1
I1
sVcyigf45
p2
I1
s.(dp0
Vcyjli9b
p1
I1
sVcyigf45
p2
I1
s.(dp0
Vcyjli9b
p1
I1
sVcyigf45
p2
I1
s.(dp0
Vcyigf45
p1
I1
sVcykvjm2
p2
I1
s.(dp0
Vcylnzkf
p1
I1
sVcyigf45
p2
I1
s.(dp0
Vcyigf45
p1
I1
sVcytbhma
p2
I1
s.(dp0
Vcyigf45
p1
I1
sVcytxqc6
p2
I1
s.(dp0
Vcyux2th
p1
I1
sVcyigf45
p2
I1
s.(dp0
Vcyv0n1u
p1
I1
sVcyigf45
p2
I1
s.(dp0
Vcyv15gj
p1
I1
sVcyigf45
p2
I1
s.(dp0
Vcyigf45
p1
I1
sVcyxp7vx
p2
I1
s.(dp0
Vcyigf45
p1
I1
sVcyzg5xl
p2
I1
s.(dp0
Vcz0sjbj
p1
I1
sVcyigf45
p2
I1
s.(dp0
Vcyigf45
p1
I1
sVcz2bqm5
p2
I1
s.(dp0
Vcyigf45
p1
I1
sVcz2bqm5
p2
I1
s.(dp0
Vcyigf45
p1
I1
sVcz5a5qw
p2
I1
s.(dp0
Vcz5y1qm
p1
I1
sVcyigf45
p2
I1
s.(dp0
Vcyigf45
p1
I1
sVcz6b74g
p2
I1
s.(dp0
Vcyigf45
p1
I1
sVcz6coir
p2
I1
s.(dp0
Vcyigf45
p1
I1
sVcz6coir
p2
I1
s.(dp0
Vcyigf45
p1
I1
sVcz725vk
p2
I1
s.(dp0
Vcyigf45
p1
I1
sVcz725vk
p2
I1
s.(dp0
Vcz77j67
p1
I1
sVcyigf45
p2
I1
s.(dp0
Vcz9wf5a
p1
I1
sVcyigf45
p2
I1
s.(dp0
Vczadbep
p1
I1
sVcyigf45
p2
I1
s.(dp0
Vczah1sl
p1
I1
sVcyigf45
p2
I1
s.(dp0
Vczapp0w
p1
I1
sVcyigf45
p2
I1
s.(dp0
Vczfde74
p1
I1
sVcyigf45
p2
I1
s.(dp0
Vcyigf45
p1
I1
sVczg38lf
p2
I1
s.(dp0
Vczh63kn
p1
I1
sVcyigf45
p2
I1
s.(dp0
Vczi9gxo
p1
I1
sVcyigf45
p2
I1
s.(dp0
Vczk1xh2
p1
I1
sVcyigf45
p2
I1
s.(dp0
Vczko7p2
p1
I1
sVcyigf45
p2
I1
s.(dp0
Vczlxga3
p1
I1
sVcyigf45
p2
I1
s.(dp0
Vcznln8v
p1
I1
sVcyigf45
p2
I1
s.(dp0
Vczpqwuw
p1
I1
sVcyigf45
p2
I1
s.(dp0
Vczqnhbr
p1
I1
sVcyigf45
p2
I1
s.(dp0
Vczuo0fy
p1
I1
sVcyigf45
p2
I1
s.(dp0
Vcyigf45
p1
I1
sVczuu749
p2
I1
s.(dp0
Vczvycxs
p1
I1
sVcyigf45
p2
I1
s.(dp0
Vczvycxs
p1
I1
sVcyigf45
p2
I1
s.(dp0
Vd0096pm
p1
I1
sVcyigf45
p2
I1
s.(dp0
Vd0096pm
p1
I1
sVcyigf45
p2
I1
s.(dp0
Vd0096pm
p1
I1
sVcyigf45
p2
I1
s.(dp0
Vd0096pm
p1
I1
sVcyigf45
p2
I1
s.(dp0
Vd05fixe
p1
I1
sVcyigf45
p2
I1
s.(dp0
Vcyigf45
p1
I1
sVd05sfka
p2
I1
s.(dp0
Vcyigf45
p1
I1
sVd05x6s3
p2
I1
s.(dp0
Vcyigf45
p1
I1
sVd05x6s3
p2
I1
s.(dp0
Vcyigf45
p1
I1
sVd05x6s3
p2
I1
s.(dp0
Vcyigf45
p1
I1
sVd05x6s3
p2
I1
s.(dp0
Vcyigf45
p1
I1
sVd05x6s3
p2
I1
s.(dp0
Vd06kz4l
p1
I1
sVcyigf45
p2
I1
s.(dp0
Vd07xi6s
p1
I1
sVcyigf45
p2
I1
s.(dp0
Vd09qkia
p1
I1
sVcyigf45
p2
I1
s.(dp0
Vd09qu37
p1
I1
sVcyigf45
p2
I1
s.(dp0
Vd0f57y6
p1
I1
sVcyigf45
p2
I1
s.(dp0
Vd0gs6cv
p1
I1
sVcyigf45
p2
I1
s.(dp0
Vd0hnhoj
p1
I1
sVcyigf45
p2
I1
s.(dp0
Vcyigf45
p1
I1
sVd0psu5v
p2
I1
s.(dp0
Vcyigf45
p1
I1
sVd0v93qq
p2
I1
s.(dp0
Vcyigf45
p1
I1
sVd0vcvjb
p2
I1
s.(dp0
Vcyigf45
p1
I1
sVd0vgeyk
p2
I1
s.(dp0
Vd0x3q8o
p1
I1
sVcyigf45
p2
I1
s.(dp0
Vd0zxbe5
p1
I1
sVcyigf45
p2
I1
s.(dp0
Vcyigf45
p1
I1
sVd10496x
p2
I1
s.(dp0
Vd10jmhc
p1
I1
sVcyigf45
p2
I1
s.(dp0
Vcyigf45
p1
I1
sVd1105gj
p2
I1
s.(dp0
Vd14k1yp
p1
I1
sVcyigf45
p2
I1
s.(dp0
Vd14n29k
p1
I1
sVcyigf45
p2
I1
s.(dp0
Vd157s6a
p1
I1
sVcyigf45
p2
I1
s.(dp0
Vd15sr67
p1
I1
sVcyigf45
p2
I1
s.(dp0
Vd16rccf
p1
I1
sVcyigf45
p2
I1
s.(dp0
Vcyigf45
p1
I1
sVd1757lf
p2
I1
s.(dp0
Vd181rxj
p1
I1
sVcyigf45
p2
I1
s.(dp0
Vd19ivsm
p1
I1
sVcyigf45
p2
I1
s.(dp0
Vcyigf45
p1
I1
sVd19veao
p2
I1
s.(dp0
Vcyigf45
p1
I1
sVd1atnhf
p2
I1
s.(dp0
Vcyigf45
p1
I1
sVd1atnhf
p2
I1
s.(dp0
Vd1c3c2f
p1
I1
sVcyigf45
p2
I1
s.(dp0
Vcyigf45
p1
I1
sVd1dbta3
p2
I1
s.(dp0
Vcyigf45
p1
I1
sVd1dhmks
p2
I1
s.(dp0
Vd1ix3oe
p1
I1
sVcyigf45
p2
I1
s.(dp0
Vd1ixfs2
p1
I1
sVcyigf45
p2
I1
s.(dp0
Vd1ixfs2
p1
I1
sVcyigf45
p2
I1
s.(dp0
Vd1ixqs9
p1
I1
sVcyigf45
p2
I1
s.(dp0
Vcyigf45
p1
I1
sVd1j2w3s
p2
I1
s.(dp0
Vd1j2yvq
p1
I1
sVcyigf45
p2
I1
s.(dp0
Vcyigf45
p1
I1
sVd1j9xf9
p2
I1
s.(dp0
Vcyigf45
p1
I1
sVd1kezki
p2
I1
s.(dp0
Vd1kxye0
p1
I1
sVcyigf45
p2
I1
s.(dp0
Vcyigf45
p1
I1
sVd1lldyj
p2
I1
s.(dp0
Vd1pg8uf
p1
I1
sVcyigf45
p2
I1
s.(dp0
Vd1sahsu
p1
I1
sVcyigf45
p2
I1
s.(dp0
Vd1v9lpw
p1
I1
sVcyigf45
p2
I1
s.(dp0
Vd1v9lpw
p1
I1
sVcyigf45
p2
I1
s.(dp0
Vcyigf45
p1
I1
sVd1xk332
p2
I1
s.(dp0
Vd1ygr0h
p1
I1
sVcyigf45
p2
I1
s.(dp0
Vd1zcyv0
p1
I1
sVcyigf45
p2
I1
s.(dp0
Vcyigf45
p1
I1
sVd22hix1
p2
I1
s.(dp0
Vd23xe7j
p1
I1
sVcyigf45
p2
I1
s.(dp0
Vcyigf45
p1
I1
sVd2amfkv
p2
I1
s.(dp0
Vcyigf45
p1
I1
sVd2bu6tm
p2
I1
s.(dp0
Vcy(dp0
Vdoz1797
p1
I1
sVcyigf45
p2
I1
s.