(dp0
Vcyi3gc3
p1
I1
s.(dp0
Vcyi7byj
p1
I1
sVcyi3gc3
p2
I1
s.(dp0
Vcyrz6io
p1
I1
sVcyi3gc3
p2
I1
s.(dp0
Vcyw7nqg
p1
I1
sVcyi3gc3
p2
I1
s.(dp0
Vcywi9uq
p1
I1
sVcyi3gc3
p2
I1
s.(dp0
Vcywicjs
p1
I1
sVcyi3gc3
p2
I1
s.(dp0
Vcywicjs
p1
I1
sVcyi3gc3
p2
I1
s.(dp0
Vcz2h2zr
p1
I1
sVcyi3gc3
p2
I1
s.(dp0
Vcz5246p
p1
I1
sVcyi3gc3
p2
I1
s.(dp0
Vczh5y12
p1
I1
sVcyi3gc3
p2
I1
s.(dp0
Vczj7jf4
p1
I1
sVcyi3gc3
p2
I1
s.(dp0
Vczmz1ol
p1
I1
sVcyi3gc3
p2
I1
s.(dp0
Vcznz7ji
p1
I1
sVcyi3gc3
p2
I1
s.(dp0
Vczoknra
p1
I1
sVcyi3gc3
p2
I1
s.(dp0
Vcyi3gc3
p1
I1
sVczqbh28
p2
I1
s.(dp0
Vczr32bm
p1
I1
sVcyi3gc3
p2
I1
s.(dp0
Vczstxxl
p1
I1
sVcyi3gc3
p2
I1
s.(dp0
Vczvl5my
p1
I1
sVcyi3gc3
p2
I1
s.(dp0
Vczycj4v
p1
I1
sVcyi3gc3
p2
I1
s.(dp0
Vcyi3gc3
p1
I1
sVczz2g0n
p2
I1
s.(dp0
Vd03ttut
p1
I1
sVcyi3gc3
p2
I1
s.(dp0
Vd03vqyb
p1
I1
sVcyi3gc3
p2
I1
s.(dp0
Vd0aortz
p1
I1
sVcyi3gc3
p2
I1
s.(dp0
Vd0asovi
p1
I1
sVcyi3gc3
p2
I1
s.(dp0
Vd0bjx23
p1
I1
sVcyi3gc3
p2
I1
s.(dp0
Vd0ec7g1
p1
I1
sVcyi3gc3
p2
I1
s.(dp0
Vcyi3gc3
p1
I1
sVd0lyefl
p2
I1
s.(dp0
Vcyi3gc3
p1
I1
sVd0lyefl
p2
I1
s.(dp0
Vd0p5g8v
p1
I1
sVcyi3gc3
p2
I1
s.(dp0
Vd0qu94w
p1
I1
sVcyi3gc3
p2
I1
s.(dp0
Vd0wnvv6
p1
I1
sVcyi3gc3
p2
I1
s.(dp0
Vd0y0ide
p1
I1
sVcyi3gc3
p2
I1
s.(dp0
Vd0ysmhm
p1
I1
sVcyi3gc3
p2
I1
s.(dp0
Vd10hjq3
p1
I1
sVcyi3gc3
p2
I1
s.(dp0
Vd10ig24
p1
I1
sVcyi3gc3
p2
I1
s.(dp0
Vd136u3k
p1
I1
sVcyi3gc3
p2
I1
s.(dp0
Vd168wcn
p1
I1
sVcyi3gc3
p2
I1
s.(dp0
Vcyi3gc3
p1
I1
sVd17f5xw
p2
I1
s.(dp0
Vd18mipd
p1
I1
sVcyi3gc3
p2
I1
s.(dp0
Vcyi3gc3
p1
I1
sVd19jf1i
p2
I1
s.(dp0
Vcyi3gc3
p1
I1
sVd19jg1l
p2
I1
s.(dp0
Vd1em47a
p1
I1
sVcyi3gc3
p2
I1
s.(dp0
Vd1em738
p1
I1
sVcyi3gc3
p2
I1
s.(dp0
Vd1hex10
p1
I1
sVcyi3gc3
p2
I1
s.(dp0
Vd1hex10
p1
I1
sVcyi3gc3
p2
I1
s.(dp0
Vd1ij2ap
p1
I1
sVcyi3gc3
p2
I1
s.(dp0
Vd1ij2ap
p1
I1
sVcyi3gc3
p2
I1
s.(dp0
Vd1ij2ap
p1
I1
sVcyi3gc3
p2
I1
s.(dp0
Vd1ij2ap
p1
I1
sVcyi3gc3
p2
I1
s.(dp0
Vd1kfinc
p1
I1
sVcyi3gc3
p2
I1
s.(dp0
Vd1kuh6o
p1
I1
sVcyi3gc3
p2
I1
s.(dp0
Vd1oltyh
p1
I1
sVcyi3gc3
p2
I1
s.(dp0
Vd1p05wv
p1
I1
sVcyi3gc3
p2
I1
s.(dp0
Vd1p93jf
p1
I1
sVcyi3gc3
p2
I1
s.(dp0
Vd1ur0uq
p1
I1
sVcyi3gc3
p2
I1
s.(dp0
Vd26duix
p1
I1
sVcyi3gc3
p2
I1
s.(dp0
Vd27zi5t
p1
I1
sVcyi3gc3
p2
I1
s.(dp0
Vd2fy0c5
p1
I1
sVcyi3gc3
p2
I1
s.(dp0
Vd2ug0i7
p1
I1
sVcyi3gc3
p2
I1
s.(dp0
Vd2uhcnc
p1
I1
sVcyi3gc3
p2
I1
s.(dp0
Vcyi3gc3
p1
I1
sVd2ykuxk
p2
I1
s.(dp0
Vd2z8ze3
p1
I1
sVcyi3gc3
p2
I1
s.(dp0
Vd2z8ze3
p1
I1
sVcyi3gc3
p2
I1
s.(dp0
Vd2z9err
p1
I1
sVcyi3gc3
p2
I1
s.(dp0
Vd366x8b
p1
I1
sVcyi3gc3
p2
I1
s.(dp0
Vd3a27w6
p1
I1
sVcyi3gc3
p2
I1
s.(dp0
Vd3esgc2
p1
I1
sVcyi3gc3
p2
I1
s.(dp0
Vd3gjg8d
p1
I1
sVcyi3gc3
p2
I1
s.(dp0
Vd3i14kp
p1
I1
sVcyi3gc3
p2
I1
s.(dp0
Vd3pk4ve
p1
I1
sVcyi3gc3
p2
I1
s.(dp0
Vcyi3gc3
p1
I1
sVd3ywt3t
p2
I1
s.(dp0
Vd3z6ejd
p1
I1
sVcyi3gc3
p2
I1
s.(dp0
Vd3z6ejd
p1
I1
sVcyi3gc3
p2
I1
s.(dp0
Vd3z6ejd
p1
I1
sVcyi3gc3
p2
I1
s.(dp0
Vd42a6sw
p1
I1
sVcyi3gc3
p2
I1
s.(dp0
Vd42mq09
p1
I1
sVcyi3gc3
p2
I1
s.(dp0
Vd42nyuw
p1
I1
sVcyi3gc3
p2
I1
s.(dp0
Vd4anihs
p1
I1
sVcyi3gc3
p2
I1
s.(dp0
Vd4d4dt3
p1
I1
sVcyi3gc3
p2
I1
s.(dp0
Vd4q4p8p
p1
I1
sVcyi3gc3
p2
I1
s.(dp0
Vd4vfumi
p1
I1
sVcyi3gc3
p2
I1
s.(dp0
Vd5dhsmm
p1
I1
sVcyi3gc3
p2
I1
s.(dp0
Vd5i3wvc
p1
I1
sVcyi3gc3
p2
I1
s.(dp0
Vd5p60q6
p1
I1
sVcyi3gc3
p2
I1
s.(dp0
Vd5p60q6
p1
I1
sVcyi3gc3
p2
I1
s.(dp0
Vd5qqlxc
p1
I1
sVcyi3gc3
p2
I1
s.(dp0
Vcyi3gc3
p1
I1
sVd5st0t0
p2
I1
s.(dp0
Vd5xll3l
p1
I1
sVcyi3gc3
p2
I1
s.(dp0
Vd64baul
p1
I1
sVcyi3gc3
p2
I1
s.(dp0
Vd6bqlrp
p1
I1
sVcyi3gc3
p2
I1
s.(dp0
Vd6bvyi1
p1
I1
sVcyi3gc3
p2
I1
s.(dp0
Vd6fe2p8
p1
I1
sVcyi3gc3
p2
I1
s.(dp0
Vd6ld903
p1
I1
sVcyi3gc3
p2
I1
s.(dp0
Vd6ld903
p1
I1
sVcyi3gc3
p2
I1
s.(dp0
Vd6obu5o
p1
I1
sVcyi3gc3
p2
I1
s.(dp0
Vd6yub8y
p1
I1
sVcyi3gc3
p2
I1
s.(dp0
Vd715s56
p1
I1
sVcyi3gc3
p2
I1
s.(dp0
Vcyi3gc3
p1
I1
sVd7274vd
p2
I1
s.(dp0
Vcyi3gc3
p1
I1
sVd75pqcd
p2
I1
s.(dp0
Vd75wk9w
p1
I1
sVcyi3gc3
p2
I1
s.(dp0
Vd79gu9o
p1
I1
sVcyi3gc3
p2
I1
s.(dp0
Vcyi3gc3
p1
I1
sVd7ahnlz
p2
I1
s.(dp0
Vd7fymat
p1
I1
sVcyi3gc3
p2
I1
s.(dp0
Vd7fymat
p1
I1
sVcyi3gc3
p2
I1
s.(dp0
Vd7fymat
p1
I1
sVcyi3gc3
p2
I1
s.(dp0
Vd7iudr6
p1
I1
sVcyi3gc3
p2
I1
s.(dp0
Vd7wwtic
p1
I1
sVcyi3gc3
p2
I1
s.(dp0
Vd7wwtic
p1
I1
sVcyi3gc3
p2
I1
s.(dp0
Vd7(dp0
Vdp1gglm
p1
I1
sVcyi3gc3
p2
I1
s.