(dp0
Vcyisfj8
p1
I1
s.(dp0
Vcykrvr1
p1
I1
sVcyisfj8
p2
I1
s.(dp0
Vcyks075
p1
I1
sVcyisfj8
p2
I1
s.(dp0
Vcyks075
p1
I1
sVcyisfj8
p2
I1
s.(dp0
Vcyks075
p1
I1
sVcyisfj8
p2
I1
s.(dp0
Vcyrcs8i
p1
I1
sVcyisfj8
p2
I1
s.(dp0
Vcytlmwk
p1
I1
sVcyisfj8
p2
I1
s.(dp0
Vcyupiii
p1
I1
sVcyisfj8
p2
I1
s.(dp0
Vcywgg61
p1
I1
sVcyisfj8
p2
I1
s.(dp0
Vcywgg61
p1
I1
sVcyisfj8
p2
I1
s.(dp0
Vcywgg61
p1
I1
sVcyisfj8
p2
I1
s.(dp0
Vcyxyruj
p1
I1
sVcyisfj8
p2
I1
s.(dp0
Vcyyyrpm
p1
I1
sVcyisfj8
p2
I1
s.(dp0
Vcz2r3n5
p1
I1
sVcyisfj8
p2
I1
s.(dp0
Vcz2y2ju
p1
I1
sVcyisfj8
p2
I1
s.(dp0
Vcz3j03f
p1
I1
sVcyisfj8
p2
I1
s.(dp0
Vcz3j03f
p1
I1
sVcyisfj8
p2
I1
s.(dp0
Vcz4ar6s
p1
I1
sVcyisfj8
p2
I1
s.(dp0
Vcz4qd82
p1
I1
sVcyisfj8
p2
I1
s.(dp0
Vcz7ai28
p1
I1
sVcyisfj8
p2
I1
s.(dp0
Vcz7ai28
p1
I1
sVcyisfj8
p2
I1
s.(dp0
Vcz7dpd8
p1
I1
sVcyisfj8
p2
I1
s.(dp0
Vcz7g1js
p1
I1
sVcyisfj8
p2
I1
s.(dp0
Vcz7g6ni
p1
I1
sVcyisfj8
p2
I1
s.(dp0
Vcz7jgq0
p1
I1
sVcyisfj8
p2
I1
s.(dp0
Vcz7jgq0
p1
I1
sVcyisfj8
p2
I1
s.(dp0
Vcz7pobo
p1
I1
sVcyisfj8
p2
I1
s.(dp0
Vcz7re5a
p1
I1
sVcyisfj8
p2
I1
s.(dp0
Vcz7re5a
p1
I1
sVcyisfj8
p2
I1
s.(dp0
Vcz7u2x2
p1
I1
sVcyisfj8
p2
I1
s.(dp0
Vcz7u2x2
p1
I1
sVcyisfj8
p2
I1
s.(dp0
Vcz7xlwl
p1
I1
sVcyisfj8
p2
I1
s.(dp0
Vcz7zbs9
p1
I1
sVcyisfj8
p2
I1
s.(dp0
Vcz8cmuq
p1
I1
sVcyisfj8
p2
I1
s.(dp0
Vczb6px1
p1
I1
sVcyisfj8
p2
I1
s.(dp0
Vczb6px1
p1
I1
sVcyisfj8
p2
I1
s.(dp0
Vczccq5u
p1
I1
sVcyisfj8
p2
I1
s.(dp0
Vczeje32
p1
I1
sVcyisfj8
p2
I1
s.(dp0
Vczi2op7
p1
I1
sVcyisfj8
p2
I1
s.(dp0
Vczibuq6
p1
I1
sVcyisfj8
p2
I1
s.(dp0
Vczipxg2
p1
I1
sVcyisfj8
p2
I1
s.(dp0
Vczipxg2
p1
I1
sVcyisfj8
p2
I1
s.(dp0
Vcznti3l
p1
I1
sVcyisfj8
p2
I1
s.(dp0
Vczs2tc2
p1
I1
sVcyisfj8
p2
I1
s.(dp0
Vczsg8ob
p1
I1
sVcyisfj8
p2
I1
s.(dp0
Vczzirsn
p1
I1
sVcyisfj8
p2
I1
s.(dp0
Vczzirsn
p1
I1
sVcyisfj8
p2
I1
s.(dp0
Vczzlcqw
p1
I1
sVcyisfj8
p2
I1
s.(dp0
Vczzlcqw
p1
I1
sVcyisfj8
p2
I1
s.(dp0
Vczzn4b2
p1
I1
sVcyisfj8
p2
I1
s.(dp0
Vczzorfb
p1
I1
sVcyisfj8
p2
I1
s.(dp0
Vd01aw3z
p1
I1
sVcyisfj8
p2
I1
s.(dp0
Vd03embq
p1
I1
sVcyisfj8
p2
I1
s.(dp0
Vd059w81
p1
I1
sVcyisfj8
p2
I1
s.(dp0
Vd07fhro
p1
I1
sVcyisfj8
p2
I1
s.(dp0
Vd07fhro
p1
I1
sVcyisfj8
p2
I1
s.(dp0
Vd08m6by
p1
I1
sVcyisfj8
p2
I1
s.(dp0
Vd08n364
p1
I1
sVcyisfj8
p2
I1
s.(dp0
Vd09ic5v
p1
I1
sVcyisfj8
p2
I1
s.(dp0
Vd0i8baq
p1
I1
sVcyisfj8
p2
I1
s.(dp0
Vd0itz43
p1
I1
sVcyisfj8
p2
I1
s.(dp0
Vd0jb51y
p1
I1
sVcyisfj8
p2
I1
s.(dp0
Vd0jrm93
p1
I1
sVcyisfj8
p2
I1
s.(dp0
Vd0kmssg
p1
I1
sVcyisfj8
p2
I1
s.(dp0
Vd0kmssg
p1
I1
sVcyisfj8
p2
I1
s.(dp0
Vd0kmssg
p1
I1
sVcyisfj8
p2
I1
s.(dp0
Vd0kmssg
p1
I1
sVcyisfj8
p2
I1
s.(dp0
Vd0kxuvg
p1
I1
sVcyisfj8
p2
I1
s.(dp0
Vd0lfjhf
p1
I1
sVcyisfj8
p2
I1
s.(dp0
Vd0o760o
p1
I1
sVcyisfj8
p2
I1
s.(dp0
Vd0ru01m
p1
I1
sVcyisfj8
p2
I1
s.(dp0
Vd0sjw0i
p1
I1
sVcyisfj8
p2
I1
s.(dp0
Vd0usj5t
p1
I1
sVcyisfj8
p2
I1
s.(dp0
Vd0usj5t
p1
I1
sVcyisfj8
p2
I1
s.(dp0
Vd0xaunr
p1
I1
sVcyisfj8
p2
I1
s.(dp0
Vd115b5d
p1
I1
sVcyisfj8
p2
I1
s.(dp0
Vd154q4a
p1
I1
sVcyisfj8
p2
I1
s.(dp0
Vd154q4a
p1
I1
sVcyisfj8
p2
I1
s.(dp0
Vd18mipd
p1
I1
sVcyisfj8
p2
I1
s.(dp0
Vd18raqu
p1
I1
sVcyisfj8
p2
I1
s.(dp0
Vd1bg175
p1
I1
sVcyisfj8
p2
I1
s.(dp0
Vd1bru7u
p1
I1
sVcyisfj8
p2
I1
s.(dp0
Vd1ddw4q
p1
I1
sVcyisfj8
p2
I1
s.(dp0
Vd1jeskg
p1
I1
sVcyisfj8
p2
I1
s.(dp0
Vd1skvd1
p1
I1
sVcyisfj8
p2
I1
s.(dp0
Vd1u3hq9
p1
I1
sVcyisfj8
p2
I1
s.(dp0
Vd1wu3xz
p1
I1
sVcyisfj8
p2
I1
s.(dp0
Vd1yyrv7
p1
I1
sVcyisfj8
p2
I1
s.(dp0
Vd1yyrv7
p1
I1
sVcyisfj8
p2
I1
s.(dp0
Vd1yyrv7
p1
I1
sVcyisfj8
p2
I1
s.(dp0
Vd1zn2yq
p1
I1
sVcyisfj8
p2
I1
s.(dp0
Vd1zowsj
p1
I1
sVcyisfj8
p2
I1
s.(dp0
Vd1zowsj
p1
I1
sVcyisfj8
p2
I1
s.(dp0
Vd1zto0g
p1
I1
sVcyisfj8
p2
I1
s.(dp0
Vd1zto0g
p1
I1
sVcyisfj8
p2
I1
s.(dp0
Vd1zunpz
p1
I1
sVcyisfj8
p2
I1
s.(dp0
Vd201xfj
p1
I1
sVcyisfj8
p2
I1
s.(dp0
Vd201xfj
p1
I1
sVcyisfj8
p2
I1
s.(dp0
Vd22gq5z
p1
I1
sVcyisfj8
p2
I1
s.(dp0
Vd22kd7a
p1
I1
sVcyisfj8
p2
I1
s.(dp0
Vd23lipf
p1
I1
sVcyisfj8
p2
I1
s.(dp0
Vd243who
p1
I1
sVcyisfj8
p2
I1
s.(dp0
Vd25wc5a
p1
I1
sVcyisfj8
p2
I1
s.(dp0
Vd262zvv
p1
I1
sVcyisfj8
p2
I1
s.(dp0
Vd26krda
p1
I1
sVcyisfj8
p2
I1
s.(dp0
Vd26krda
p1
I1
sVcyisfj8
p2
I1
s.(dp0
Vd2bbura
p1
I1
sVcyisfj8
p2
I1
s.(dp0
Vd2bbura
p1
I1
sVcyisfj8
p2
I1
s.(dp0
Vd2(dp0
Vdp08bm2
p1
I1
sVcyisfj8
p2
I1
s.