(dp0
Vcyif1oa
p1
I1
s.(dp0
Vcyzvz9b
p1
I1
sVcyif1oa
p2
I1
s.(dp0
Vcyif1oa
p1
I1
sVd0bkqrz
p2
I1
s.(dp0
Vcyif1oa
p1
I1
sVd0jl2n3
p2
I1
s.(dp0
Vcyif1oa
p1
I1
sVd161z55
p2
I1
s.(dp0
Vcyif1oa
p1
I1
sVd1628ic
p2
I1
s.(dp0
Vd162l93
p1
I1
sVcyif1oa
p2
I1
s.(dp0
Vcyif1oa
p1
I1
sVd1gib5b
p2
I1
s.(dp0
Vcyif1oa
p1
I1
sVd1lca7e
p2
I1
s.(dp0
Vcyif1oa
p1
I1
sVd1qdlvf
p2
I1
s.(dp0
Vd1xdyp5
p1
I1
sVcyif1oa
p2
I1
s.(dp0
Vd1xdyp5
p1
I1
sVcyif1oa
p2
I1
s.(dp0
Vd1xdyp5
p1
I1
sVcyif1oa
p2
I1
s.(dp0
Vd1xdyp5
p1
I1
sVcyif1oa
p2
I1
s.(dp0
Vcyif1oa
p1
I1
sVd2alc8b
p2
I1
s.(dp0
Vcyif1oa
p1
I1
sVd2jcijj
p2
I1
s.(dp0
Vcyif1oa
p1
I1
sVd2m6yxb
p2
I1
s.(dp0
Vcyif1oa
p1
I1
sVd31lyn1
p2
I1
s.(dp0
Vcyif1oa
p1
I1
sVd5avuqf
p2
I1
s.(dp0
Vcyif1oa
p1
I1
sVd5ax4o1
p2
I1
s.(dp0
Vcyif1oa
p1
I1
sVd6ow0s0
p2
I1
s.(dp0
Vcyif1oa
p1
I1
sVd6zxge2
p2
I1
s.(dp0
Vd7qbl30
p1
I1
sVcyif1oa
p2
I1
s.(dp0
Vcyif1oa
p1
I1
sVd7t01wd
p2
I1
s.(dp0
Vd8xdg3m
p1
I1
sVcyif1oa
p2
I1
s.(dp0
Vcyif1oa
p1
I1
sVd9b5sux
p2
I1
s.(dp0
Vcyif1oa
p1
I1
sVd9r505v
p2
I1
s.(dp0
Vcyif1oa
p1
I1
sVdb5u7k0
p2
I1
s.(dp0
Vcyif1oa
p1
I1
sVdbngq6j
p2
I1
s.(dp0
Vcyif1oa
p1
I1
sVdca6cxp
p2
I1
s.(dp0
Vcyif1oa
p1
I1
sVddbxi3w
p2
I1
s.(dp0
Vcyif1oa
p1
I1
sVddbxi3w
p2
I1
s.(dp0
Vddcadhc
p1
I1
sVcyif1oa
p2
I1
s.(dp0
Vcyif1oa
p1
I1
sVddwpmhs
p2
I1
s.(dp0
Vcyif1oa
p1
I1
sVdfc7bkt
p2
I1
s.(dp0
Vcyif1oa
p1
I1
sVdfmy422
p2
I1
s.(dp0
Vdfy82b0
p1
I1
sVcyif1oa
p2
I1
s.(dp0
Vcyif1oa
p1
I1
sVdh082a7
p2
I1
s.(dp0
Vcyif1oa
p1
I1
sVdhjlkw2
p2
I1
s.(dp0
Vcyif1oa
p1
I1
sVdhm0w6x
p2
I1
s.(dp0
Vcyif1oa
p1
I1
sVdhz16g5
p2
I1
s.(dp0
Vdjo0dxv
p1
I1
sVcyif1oa
p2
I1
s.(dp0
Vcyif1oa
p1
I1
sVdkayq4c
p2
I1
s.(dp0
Vcyif1oa
p1
I1
sVdki3gj2
p2
I1
s.