(dp0
Vcyit1kk
p1
I1
s.(dp0
Vcz8s96x
p1
I1
sVcyit1kk
p2
I1
s.(dp0
Vcyit1kk
p1
I1
sVczbfj2i
p2
I1
s.(dp0
Vcyit1kk
p1
I1
sVczbfj2i
p2
I1
s.(dp0
Vcyit1kk
p1
I1
sVczjq9jf
p2
I1
s.(dp0
Vcyit1kk
p1
I1
sVd05kqie
p2
I1
s.(dp0
Vcyit1kk
p1
I1
sVd0faij3
p2
I1
s.(dp0
Vcyit1kk
p1
I1
sVd0faij3
p2
I1
s.(dp0
Vcyit1kk
p1
I1
sVd0pa1ix
p2
I1
s.(dp0
Vcyit1kk
p1
I1
sVd1ol8v8
p2
I1
s.(dp0
Vd1zcjif
p1
I1
sVcyit1kk
p2
I1
s.(dp0
Vd1zp71j
p1
I1
sVcyit1kk
p2
I1
s.(dp0
Vd1zp71j
p1
I1
sVcyit1kk
p2
I1
s.(dp0
Vcyit1kk
p1
I1
sVd2iq2nb
p2
I1
s.(dp0
Vcyit1kk
p1
I1
sVd39fo6i
p2
I1
s.(dp0
Vcyit1kk
p1
I1
sVd3a2xll
p2
I1
s.(dp0
Vcyit1kk
p1
I1
sVd3enspe
p2
I1
s.(dp0
Vcyit1kk
p1
I1
sVd3joeuj
p2
I1
s.(dp0
Vcyit1kk
p1
I1
sVd42mq09
p2
I1
s.(dp0
Vcyit1kk
p1
I1
sVd43ipox
p2
I1
s.(dp0
Vcyit1kk
p1
I1
sVd43ipox
p2
I1
s.(dp0
Vcyit1kk
p1
I1
sVd4gzbnm
p2
I1
s.(dp0
Vcyit1kk
p1
I1
sVd4gzbnm
p2
I1
s.(dp0
Vcyit1kk
p1
I1
sVd4h7lt7
p2
I1
s.(dp0
Vcyit1kk
p1
I1
sVd4wod8o
p2
I1
s.(dp0
Vcyit1kk
p1
I1
sVd5gll8p
p2
I1
s.(dp0
Vcyit1kk
p1
I1
sVd5qva9n
p2
I1
s.(dp0
Vcyit1kk
p1
I1
sVd5xmqoe
p2
I1
s.(dp0
Vcyit1kk
p1
I1
sVd62asqi
p2
I1
s.(dp0
Vcyit1kk
p1
I1
sVd64673x
p2
I1
s.(dp0
Vcyit1kk
p1
I1
sVd6q9btp
p2
I1
s.(dp0
Vcyit1kk
p1
I1
sVd71fy4y
p2
I1
s.(dp0
Vcyit1kk
p1
I1
sVd71jwu9
p2
I1
s.(dp0
Vd7309t8
p1
I1
sVcyit1kk
p2
I1
s.(dp0
Vcyit1kk
p1
I1
sVd7lkc36
p2
I1
s.(dp0
Vd84396u
p1
I1
sVcyit1kk
p2
I1
s.(dp0
Vd84396u
p1
I1
sVcyit1kk
p2
I1
s.(dp0
Vcyit1kk
p1
I1
sVd8gci6e
p2
I1
s.(dp0
Vcyit1kk
p1
I1
sVd971dn3
p2
I1
s.(dp0
Vcyit1kk
p1
I1
sVdas32xv
p2
I1
s.(dp0
Vcyit1kk
p1
I1
sVdbvts2z
p2
I1
s.(dp0
Vcyit1kk
p1
I1
sVdch47xl
p2
I1
s.(dp0
Vcyit1kk
p1
I1
sVdczuvpu
p2
I1
s.(dp0
Vcyit1kk
p1
I1
sVdegmekm
p2
I1
s.(dp0
Vcyit1kk
p1
I1
sVdet8twf
p2
I1
s.(dp0
Vcyit1kk
p1
I1
sVdet8twf
p2
I1
s.(dp0
Vcyit1kk
p1
I1
sVdex2whv
p2
I1
s.(dp0
Vcyit1kk
p1
I1
sVdf1hxzk
p2
I1
s.(dp0
Vcyit1kk
p1
I1
sVdfnmzid
p2
I1
s.(dp0
Vdfrdma5
p1
I1
sVcyit1kk
p2
I1
s.(dp0
Vcyit1kk
p1
I1
sVdfric91
p2
I1
s.(dp0
Vcyit1kk
p1
I1
sVdgo5sk3
p2
I1
s.(dp0
Vcyit1kk
p1
I1
sVdgyqo4u
p2
I1
s.(dp0
Vcyit1kk
p1
I1
sVdh7sd1o
p2
I1
s.(dp0
Vdhh3ctu
p1
I1
sVcyit1kk
p2
I1
s.(dp0
Vcyit1kk
p1
I1
sVdhleqhl
p2
I1
s.(dp0
Vdi18ipp
p1
I1
sVcyit1kk
p2
I1
s.(dp0
Vcyit1kk
p1
I1
sVdi1kxxo
p2
I1
s.(dp0
Vcyit1kk
p1
I1
sVdk5a0kf
p2
I1
s.(dp0
Vcyit1kk
p1
I1
sVdoygrtz
p2
I1
s.