(dp0
Vcyhx7lh
p1
I1
s.(dp0
Vcyhx7lh
p1
I1
sVcyirmw5
p2
I1
s.(dp0
Vcyittir
p1
I1
sVcyhx7lh
p2
I1
s.(dp0
Vcyhx7lh
p1
I1
sVcyjb4ks
p2
I1
s.(dp0
Vcylcx5c
p1
I1
sVcyhx7lh
p2
I1
s.(dp0
Vcyhx7lh
p1
I1
sVcym0ldg
p2
I1
s.(dp0
Vcyhx7lh
p1
I1
sVcym3ok7
p2
I1
s.(dp0
Vcynqu8s
p1
I1
sVcyhx7lh
p2
I1
s.(dp0
Vcyqd2fm
p1
I1
sVcyhx7lh
p2
I1
s.(dp0
Vcyqd2fm
p1
I1
sVcyhx7lh
p2
I1
s.(dp0
Vcyqjskv
p1
I1
sVcyhx7lh
p2
I1
s.(dp0
Vcyroya1
p1
I1
sVcyhx7lh
p2
I1
s.(dp0
Vcytsoqp
p1
I1
sVcyhx7lh
p2
I1
s.(dp0
Vcyvmi18
p1
I1
sVcyhx7lh
p2
I1
s.(dp0
Vcyvmi18
p1
I1
sVcyhx7lh
p2
I1
s.(dp0
Vcyvz2nw
p1
I1
sVcyhx7lh
p2
I1
s.(dp0
Vcywnt8q
p1
I1
sVcyhx7lh
p2
I1
s.(dp0
Vcywz45u
p1
I1
sVcyhx7lh
p2
I1
s.(dp0
Vcyxr7xv
p1
I1
sVcyhx7lh
p2
I1
s.(dp0
Vcz028xh
p1
I1
sVcyhx7lh
p2
I1
s.(dp0
Vcyhx7lh
p1
I1
sVcz036j1
p2
I1
s.(dp0
Vcz12pgx
p1
I1
sVcyhx7lh
p2
I1
s.(dp0
Vcyhx7lh
p1
I1
sVcz12rvl
p2
I1
s.(dp0
Vcz3xai4
p1
I1
sVcyhx7lh
p2
I1
s.(dp0
Vcz3xai4
p1
I1
sVcyhx7lh
p2
I1
s.(dp0
Vcz4njd6
p1
I1
sVcyhx7lh
p2
I1
s.(dp0
Vcz4oljd
p1
I1
sVcyhx7lh
p2
I1
s.(dp0
Vcyhx7lh
p1
I1
sVcz9nl98
p2
I1
s.(dp0
Vcyhx7lh
p1
I1
sVczb3pm4
p2
I1
s.(dp0
Vczcdxc5
p1
I1
sVcyhx7lh
p2
I1
s.(dp0
Vczf3545
p1
I1
sVcyhx7lh
p2
I1
s.(dp0
Vcyhx7lh
p1
I1
sVczfljkr
p2
I1
s.(dp0
Vczhg0ew
p1
I1
sVcyhx7lh
p2
I1
s.(dp0
Vczhg0ew
p1
I1
sVcyhx7lh
p2
I1
s.(dp0
Vczhmqye
p1
I1
sVcyhx7lh
p2
I1
s.(dp0
Vcyhx7lh
p1
I1
sVczhoi07
p2
I1
s.(dp0
Vczi2ioe
p1
I1
sVcyhx7lh
p2
I1
s.(dp0
Vczieobp
p1
I1
sVcyhx7lh
p2
I1
s.(dp0
Vczjl1s0
p1
I1
sVcyhx7lh
p2
I1
s.(dp0
Vczkp56v
p1
I1
sVcyhx7lh
p2
I1
s.(dp0
Vcyhx7lh
p1
I1
sVczn67fm
p2
I1
s.(dp0
Vczn6kz3
p1
I1
sVcyhx7lh
p2
I1
s.(dp0
Vczpsoue
p1
I1
sVcyhx7lh
p2
I1
s.(dp0
Vcyhx7lh
p1
I1
sVczqdel5
p2
I1
s.(dp0
Vcyhx7lh
p1
I1
sVczqstkt
p2
I1
s.(dp0
Vczutmgm
p1
I1
sVcyhx7lh
p2
I1
s.(dp0
Vczxld70
p1
I1
sVcyhx7lh
p2
I1
s.(dp0
Vczxld70
p1
I1
sVcyhx7lh
p2
I1
s.(dp0
Vczzxwov
p1
I1
sVcyhx7lh
p2
I1
s.(dp0
Vd01san8
p1
I1
sVcyhx7lh
p2
I1
s.(dp0
Vd039zrf
p1
I1
sVcyhx7lh
p2
I1
s.(dp0
Vd040n79
p1
I1
sVcyhx7lh
p2
I1
s.(dp0
Vd05wint
p1
I1
sVcyhx7lh
p2
I1
s.(dp0
Vd05wint
p1
I1
sVcyhx7lh
p2
I1
s.(dp0
Vd05wint
p1
I1
sVcyhx7lh
p2
I1
s.(dp0
Vd05wint
p1
I1
sVcyhx7lh
p2
I1
s.(dp0
Vd06fr54
p1
I1
sVcyhx7lh
p2
I1
s.(dp0
Vd08l0vt
p1
I1
sVcyhx7lh
p2
I1
s.(dp0
Vd098gnm
p1
I1
sVcyhx7lh
p2
I1
s.(dp0
Vd0a2eic
p1
I1
sVcyhx7lh
p2
I1
s.(dp0
Vd0achgu
p1
I1
sVcyhx7lh
p2
I1
s.(dp0
Vd0achgu
p1
I1
sVcyhx7lh
p2
I1
s.(dp0
Vcyhx7lh
p1
I1
sVd0afpf5
p2
I1
s.(dp0
Vd0bb49y
p1
I1
sVcyhx7lh
p2
I1
s.(dp0
Vd0c1gx8
p1
I1
sVcyhx7lh
p2
I1
s.(dp0
Vd0dxyg1
p1
I1
sVcyhx7lh
p2
I1
s.(dp0
Vd0eo5dn
p1
I1
sVcyhx7lh
p2
I1
s.(dp0
Vd0eou02
p1
I1
sVcyhx7lh
p2
I1
s.(dp0
Vcyhx7lh
p1
I1
sVd0g1agv
p2
I1
s.(dp0
Vcyhx7lh
p1
I1
sVd0gs22c
p2
I1
s.(dp0
Vd0jp94p
p1
I1
sVcyhx7lh
p2
I1
s.(dp0
Vcyhx7lh
p1
I1
sVd0jx0gg
p2
I1
s.(dp0
Vcyhx7lh
p1
I1
sVd0jx0gg
p2
I1
s.(dp0
Vcyhx7lh
p1
I1
sVd0m0cps
p2
I1
s.(dp0
Vcyhx7lh
p1
I1
sVd0me20p
p2
I1
s.(dp0
Vcyhx7lh
p1
I1
sVd0nrm47
p2
I1
s.(dp0
Vd0o925d
p1
I1
sVcyhx7lh
p2
I1
s.(dp0
Vd0pqz0n
p1
I1
sVcyhx7lh
p2
I1
s.(dp0
Vd0rbk1f
p1
I1
sVcyhx7lh
p2
I1
s.(dp0
Vcyhx7lh
p1
I1
sVd0xguo9
p2
I1
s.(dp0
Vd0xwpxv
p1
I1
sVcyhx7lh
p2
I1
s.(dp0
Vcyhx7lh
p1
I1
sVd0ykp0m
p2
I1
s.(dp0
Vd107xfx
p1
I1
sVcyhx7lh
p2
I1
s.(dp0
Vcyhx7lh
p1
I1
sVd11ka9g
p2
I1
s.(dp0
Vcyhx7lh
p1
I1
sVd12hekh
p2
I1
s.(dp0
Vcyhx7lh
p1
I1
sVd13e8ln
p2
I1
s.(dp0
Vd13q0c1
p1
I1
sVcyhx7lh
p2
I1
s.(dp0
Vd14kfoz
p1
I1
sVcyhx7lh
p2
I1
s.(dp0
Vd15an5y
p1
I1
sVcyhx7lh
p2
I1
s.(dp0
Vcyhx7lh
p1
I1
sVd15hi6g
p2
I1
s.(dp0
Vcyhx7lh
p1
I1
sVd15hi6g
p2
I1
s.(dp0
Vcyhx7lh
p1
I1
sVd18syr3
p2
I1
s.(dp0
Vd191s1p
p1
I1
sVcyhx7lh
p2
I1
s.(dp0
Vd19xwqp
p1
I1
sVcyhx7lh
p2
I1
s.(dp0
Vd1g4ih1
p1
I1
sVcyhx7lh
p2
I1
s.(dp0
Vd1gk3ij
p1
I1
sVcyhx7lh
p2
I1
s.(dp0
Vcyhx7lh
p1
I1
sVd1hapvd
p2
I1
s.(dp0
Vd1inlhf
p1
I1
sVcyhx7lh
p2
I1
s.(dp0
Vd1jl85q
p1
I1
sVcyhx7lh
p2
I1
s.(dp0
Vd1k22m3
p1
I1
sVcyhx7lh
p2
I1
s.(dp0
Vcyhx7lh
p1
I1
sVd1k4hmg
p2
I1
s.(dp0
Vd1onxlr
p1
I1
sVcyhx7lh
p2
I1
s.(dp0
Vd1p0cii
p1
I1
sVcyhx7lh
p2
I1
s.(dp0
Vd1p0cii
p1
I1
sVcyhx7lh
p2
I1
s.(dp0
Vd1p2u05
p1
I1
sVcyhx7lh
p2
I1
s.(dp0
Vd1p6gfx
p1
I1
sVcyhx7lh
p2
I1
s.(dp0
Vd1pj8s2
p1
I1
sVcyhx7lh
p2
I1
s.(dp0
Vcyhx7lh
p1
I1
sVd1pj9my
p2
I1
s.(dp0
Vd1(dp0
Vdkv9tt5
p1
I1
sVcyhx7lh
p2
I1
s.