(dp0
Vd0iibbh
p1
I1
s.(dp0
Vd0iibbh
p1
I1
sVd0spjwr
p2
I1
s.(dp0
Vd0iibbh
p1
I1
sVd2mqx6b
p2
I1
s.(dp0
Vd0iibbh
p1
I1
sVd4fqprz
p2
I1
s.(dp0
Vdefd965
p1
I1
sVd0iibbh
p2
I1
s.(dp0
Vdefd965
p1
I1
sVd0iibbh
p2
I1
s.(dp0
Vd0iibbh
p1
I1
sVdfxc7lv
p2
I1
s.(dp0
Vd0iibbh
p1
I1
sVdgfqjm6
p2
I1
s.