(dp0
Vcyk17y0
p1
I1
s.(dp0
Vcyk17y0
p1
I1
sVcykqkc5
p2
I1
s.(dp0
Vcyk17y0
p1
I1
sVcylgx1l
p2
I1
s.(dp0
Vcyk17y0
p1
I1
sVcyp14vh
p2
I1
s.(dp0
Vcypouso
p1
I1
sVcyk17y0
p2
I1
s.(dp0
Vcypsgna
p1
I1
sVcyk17y0
p2
I1
s.(dp0
Vcypydc5
p1
I1
sVcyk17y0
p2
I1
s.(dp0
Vcyk17y0
p1
I1
sVcypzo5a
p2
I1
s.(dp0
Vcyk17y0
p1
I1
sVcypzo5a
p2
I1
s.(dp0
Vcyk17y0
p1
I1
sVcyqvjdr
p2
I1
s.(dp0
Vcyk17y0
p1
I1
sVcyqvjdr
p2
I1
s.(dp0
Vcysyz0t
p1
I1
sVcyk17y0
p2
I1
s.(dp0
Vcyt041e
p1
I1
sVcyk17y0
p2
I1
s.(dp0
Vcyt1hah
p1
I1
sVcyk17y0
p2
I1
s.(dp0
Vcyk17y0
p1
I1
sVcyta89h
p2
I1
s.(dp0
Vcyk17y0
p1
I1
sVcyta89h
p2
I1
s.(dp0
Vcyk17y0
p1
I1
sVcyta89h
p2
I1
s.(dp0
Vcyk17y0
p1
I1
sVcyta89h
p2
I1
s.(dp0
Vczawmp6
p1
I1
sVcyk17y0
p2
I1
s.(dp0
Vczawmp6
p1
I1
sVcyk17y0
p2
I1
s.(dp0
Vczawmp6
p1
I1
sVcyk17y0
p2
I1
s.(dp0
Vcyk17y0
p1
I1
sVczbm9vp
p2
I1
s.(dp0
Vczdbn69
p1
I1
sVcyk17y0
p2
I1
s.(dp0
Vcyk17y0
p1
I1
sVczey6li
p2
I1
s.(dp0
Vczw25vf
p1
I1
sVcyk17y0
p2
I1
s.(dp0
Vczw25vf
p1
I1
sVcyk17y0
p2
I1
s.(dp0
Vczw25vf
p1
I1
sVcyk17y0
p2
I1
s.(dp0
Vd0912zs
p1
I1
sVcyk17y0
p2
I1
s.(dp0
Vd099e1c
p1
I1
sVcyk17y0
p2
I1
s.(dp0
Vd09kigw
p1
I1
sVcyk17y0
p2
I1
s.(dp0
Vd0d71ih
p1
I1
sVcyk17y0
p2
I1
s.(dp0
Vd0gzc7f
p1
I1
sVcyk17y0
p2
I1
s.(dp0
Vcyk17y0
p1
I1
sVd0l4zas
p2
I1
s.(dp0
Vcyk17y0
p1
I1
sVd0ofor5
p2
I1
s.(dp0
Vcyk17y0
p1
I1
sVd0pkmjv
p2
I1
s.(dp0
Vcyk17y0
p1
I1
sVd0qv9b5
p2
I1
s.(dp0
Vcyk17y0
p1
I1
sVd0qv9b5
p2
I1
s.(dp0
Vcyk17y0
p1
I1
sVd0yxckc
p2
I1
s.(dp0
Vcyk17y0
p1
I1
sVd13gc2w
p2
I1
s.(dp0
Vcyk17y0
p1
I1
sVd13gc2w
p2
I1
s.(dp0
Vd16k6va
p1
I1
sVcyk17y0
p2
I1
s.(dp0
Vd16k6va
p1
I1
sVcyk17y0
p2
I1
s.(dp0
Vd1nva71
p1
I1
sVcyk17y0
p2
I1
s.(dp0
Vd1nva71
p1
I1
sVcyk17y0
p2
I1
s.(dp0
Vd1nva71
p1
I1
sVcyk17y0
p2
I1
s.(dp0
Vd1nva71
p1
I1
sVcyk17y0
p2
I1
s.(dp0
Vcyk17y0
p1
I1
sVd1shubw
p2
I1
s.(dp0
Vcyk17y0
p1
I1
sVd1zaurw
p2
I1
s.(dp0
Vcyk17y0
p1
I1
sVd1zaurw
p2
I1
s.(dp0
Vcyk17y0
p1
I1
sVd1zaurw
p2
I1
s.(dp0
Vcyk17y0
p1
I1
sVd1zaurw
p2
I1
s.(dp0
Vcyk17y0
p1
I1
sVd1zaurw
p2
I1
s.(dp0
Vcyk17y0
p1
I1
sVd22oi2p
p2
I1
s.(dp0
Vcyk17y0
p1
I1
sVd2kv70s
p2
I1
s.(dp0
Vcyk17y0
p1
I1
sVd2my2ee
p2
I1
s.(dp0
Vcyk17y0
p1
I1
sVd2my2ee
p2
I1
s.(dp0
Vcyk17y0
p1
I1
sVd2my2ee
p2
I1
s.(dp0
Vcyk17y0
p1
I1
sVd2my2ee
p2
I1
s.(dp0
Vcyk17y0
p1
I1
sVd2my2ee
p2
I1
s.(dp0
Vcyk17y0
p1
I1
sVd2my2ee
p2
I1
s.(dp0
Vd2w6bhw
p1
I1
sVcyk17y0
p2
I1
s.(dp0
Vd2w6bhw
p1
I1
sVcyk17y0
p2
I1
s.(dp0
Vd2x98yt
p1
I1
sVcyk17y0
p2
I1
s.(dp0
Vd2x98yt
p1
I1
sVcyk17y0
p2
I1
s.(dp0
Vd2znbwx
p1
I1
sVcyk17y0
p2
I1
s.(dp0
Vd374yqp
p1
I1
sVcyk17y0
p2
I1
s.(dp0
Vd3e2p00
p1
I1
sVcyk17y0
p2
I1
s.(dp0
Vcyk17y0
p1
I1
sVd3e8cqr
p2
I1
s.(dp0
Vd3edj6r
p1
I1
sVcyk17y0
p2
I1
s.(dp0
Vcyk17y0
p1
I1
sVd3k8pk2
p2
I1
s.(dp0
Vcyk17y0
p1
I1
sVd3ntw26
p2
I1
s.(dp0
Vcyk17y0
p1
I1
sVd40ff4i
p2
I1
s.(dp0
Vd42bdts
p1
I1
sVcyk17y0
p2
I1
s.(dp0
Vcyk17y0
p1
I1
sVd4atirq
p2
I1
s.(dp0
Vd4qsxua
p1
I1
sVcyk17y0
p2
I1
s.(dp0
Vd4vpip2
p1
I1
sVcyk17y0
p2
I1
s.(dp0
Vd52xhrd
p1
I1
sVcyk17y0
p2
I1
s.(dp0
Vcyk17y0
p1
I1
sVd537tim
p2
I1
s.(dp0
Vd56ej0i
p1
I1
sVcyk17y0
p2
I1
s.(dp0
Vd5ko3kn
p1
I1
sVcyk17y0
p2
I1
s.(dp0
Vcyk17y0
p1
I1
sVd5xhill
p2
I1
s.(dp0
Vcyk17y0
p1
I1
sVd5yro9d
p2
I1
s.(dp0
Vd6cs7vh
p1
I1
sVcyk17y0
p2
I1
s.(dp0
Vcyk17y0
p1
I1
sVd6gb9lr
p2
I1
s.(dp0
Vcyk17y0
p1
I1
sVd6gb9lr
p2
I1
s.(dp0
Vcyk17y0
p1
I1
sVd6jv5yr
p2
I1
s.(dp0
Vcyk17y0
p1
I1
sVd6kv90a
p2
I1
s.(dp0
Vcyk17y0
p1
I1
sVd6m5opa
p2
I1
s.(dp0
Vcyk17y0
p1
I1
sVd6tmhec
p2
I1
s.(dp0
Vcyk17y0
p1
I1
sVd7f59gf
p2
I1
s.(dp0
Vcyk17y0
p1
I1
sVd7haw66
p2
I1
s.(dp0
Vd7i9x0t
p1
I1
sVcyk17y0
p2
I1
s.(dp0
Vd7xgmko
p1
I1
sVcyk17y0
p2
I1
s.(dp0
Vcyk17y0
p1
I1
sVd80n9to
p2
I1
s.(dp0
Vd83bbwa
p1
I1
sVcyk17y0
p2
I1
s.(dp0
Vd89j65u
p1
I1
sVcyk17y0
p2
I1
s.(dp0
Vd8e2a8l
p1
I1
sVcyk17y0
p2
I1
s.(dp0
Vcyk17y0
p1
I1
sVd8piol4
p2
I1
s.(dp0
Vd93eke3
p1
I1
sVcyk17y0
p2
I1
s.(dp0
Vd93eke3
p1
I1
sVcyk17y0
p2
I1
s.(dp0
Vd93eke3
p1
I1
sVcyk17y0
p2
I1
s.(dp0
Vd93fymv
p1
I1
sVcyk17y0
p2
I1
s.(dp0
Vcyk17y0
p1
I1
sVd93pmvw
p2
I1
s.(dp0
Vcyk17y0
p1
I1
sVd93pmvw
p2
I1
s.(dp0
Vcyk17y0
p1
I1
sVd93pmvw
p2
I1
s.(dp0
Vcyk17y0
p1
I1
sVd95rd46
p2
I1
s.(dp0
Vd9657nv
p1
I1
sVcyk17y0
p2
I1
s.(dp0
Vcyk17y0
p1
I1
sVd98xnd7
p2
I1
s.(dp0
Vcy(dp0
Vdovq7ub
p1
I1
sVcyk17y0
p2
I1
s.