(dp0
Vcylp935
p1
I1
s.(dp0
Vcylp935
p1
I1
sVcyq48fc
p2
I1
s.(dp0
Vcyqt56a
p1
I1
sVcylp935
p2
I1
s.(dp0
Vcylp935
p1
I1
sVcyrl5yp
p2
I1
s.(dp0
Vcz5chaf
p1
I1
sVcylp935
p2
I1
s.(dp0
Vcz5w558
p1
I1
sVcylp935
p2
I1
s.(dp0
Vcz5w558
p1
I1
sVcylp935
p2
I1
s.(dp0
Vcz60g9p
p1
I1
sVcylp935
p2
I1
s.(dp0
Vcz7nvkr
p1
I1
sVcylp935
p2
I1
s.(dp0
Vcz7xlwl
p1
I1
sVcylp935
p2
I1
s.(dp0
Vcz9g82t
p1
I1
sVcylp935
p2
I1
s.(dp0
Vczbufue
p1
I1
sVcylp935
p2
I1
s.(dp0
Vczh5s8g
p1
I1
sVcylp935
p2
I1
s.(dp0
Vcziduog
p1
I1
sVcylp935
p2
I1
s.(dp0
Vd07szsx
p1
I1
sVcylp935
p2
I1
s.(dp0
Vd08um5q
p1
I1
sVcylp935
p2
I1
s.(dp0
Vd0lkeq0
p1
I1
sVcylp935
p2
I1
s.(dp0
Vd10xym1
p1
I1
sVcylp935
p2
I1
s.(dp0
Vd10xym1
p1
I1
sVcylp935
p2
I1
s.(dp0
Vd11xwhl
p1
I1
sVcylp935
p2
I1
s.(dp0
Vd11xwhl
p1
I1
sVcylp935
p2
I1
s.(dp0
Vd13cd0p
p1
I1
sVcylp935
p2
I1
s.(dp0
Vd15sbsg
p1
I1
sVcylp935
p2
I1
s.(dp0
Vd1c23az
p1
I1
sVcylp935
p2
I1
s.(dp0
Vd1emh1a
p1
I1
sVcylp935
p2
I1
s.(dp0
Vd1p0iju
p1
I1
sVcylp935
p2
I1
s.(dp0
Vd1zmnk5
p1
I1
sVcylp935
p2
I1
s.(dp0
Vd27pha4
p1
I1
sVcylp935
p2
I1
s.(dp0
Vd2l72b8
p1
I1
sVcylp935
p2
I1
s.(dp0
Vd2u5bkb
p1
I1
sVcylp935
p2
I1
s.(dp0
Vd2vxk9r
p1
I1
sVcylp935
p2
I1
s.(dp0
Vd3oz38k
p1
I1
sVcylp935
p2
I1
s.(dp0
Vd3p9xxd
p1
I1
sVcylp935
p2
I1
s.(dp0
Vd49f59z
p1
I1
sVcylp935
p2
I1
s.(dp0
Vcylp935
p1
I1
sVd4dco7c
p2
I1
s.(dp0
Vd4djcfd
p1
I1
sVcylp935
p2
I1
s.(dp0
Vd4hxziw
p1
I1
sVcylp935
p2
I1
s.(dp0
Vd4owq68
p1
I1
sVcylp935
p2
I1
s.(dp0
Vd4usn4d
p1
I1
sVcylp935
p2
I1
s.(dp0
Vd59k07q
p1
I1
sVcylp935
p2
I1
s.(dp0
Vd5dgzy8
p1
I1
sVcylp935
p2
I1
s.(dp0
Vd5yndgk
p1
I1
sVcylp935
p2
I1
s.(dp0
Vd5yndgk
p1
I1
sVcylp935
p2
I1
s.(dp0
Vd6a45fj
p1
I1
sVcylp935
p2
I1
s.(dp0
Vd6f5u0g
p1
I1
sVcylp935
p2
I1
s.(dp0
Vd6kpi0j
p1
I1
sVcylp935
p2
I1
s.(dp0
Vd6upicc
p1
I1
sVcylp935
p2
I1
s.(dp0
Vd6w815i
p1
I1
sVcylp935
p2
I1
s.(dp0
Vd712w3q
p1
I1
sVcylp935
p2
I1
s.(dp0
Vcylp935
p1
I1
sVd71828z
p2
I1
s.(dp0
Vd75giap
p1
I1
sVcylp935
p2
I1
s.(dp0
Vcylp935
p1
I1
sVd7909p9
p2
I1
s.(dp0
Vd7n2zfj
p1
I1
sVcylp935
p2
I1
s.(dp0
Vd7nnoh5
p1
I1
sVcylp935
p2
I1
s.(dp0
Vd7q4wad
p1
I1
sVcylp935
p2
I1
s.(dp0
Vd7q4wad
p1
I1
sVcylp935
p2
I1
s.(dp0
Vd7rvmu2
p1
I1
sVcylp935
p2
I1
s.(dp0
Vd7rvmu2
p1
I1
sVcylp935
p2
I1
s.(dp0
Vd7sskql
p1
I1
sVcylp935
p2
I1
s.(dp0
Vd846l16
p1
I1
sVcylp935
p2
I1
s.(dp0
Vd8f3gbr
p1
I1
sVcylp935
p2
I1
s.(dp0
Vd8sogna
p1
I1
sVcylp935
p2
I1
s.(dp0
Vd8vtja6
p1
I1
sVcylp935
p2
I1
s.(dp0
Vd8zit1q
p1
I1
sVcylp935
p2
I1
s.(dp0
Vd933xi5
p1
I1
sVcylp935
p2
I1
s.(dp0
Vd9bntg7
p1
I1
sVcylp935
p2
I1
s.(dp0
Vd9ieesf
p1
I1
sVcylp935
p2
I1
s.(dp0
Vdalpsv8
p1
I1
sVcylp935
p2
I1
s.(dp0
Vdaoosv7
p1
I1
sVcylp935
p2
I1
s.(dp0
Vdb7l65v
p1
I1
sVcylp935
p2
I1
s.(dp0
Vdb7muni
p1
I1
sVcylp935
p2
I1
s.(dp0
Vdbdgedg
p1
I1
sVcylp935
p2
I1
s.(dp0
Vdbe35ut
p1
I1
sVcylp935
p2
I1
s.(dp0
Vdbji9zo
p1
I1
sVcylp935
p2
I1
s.(dp0
Vdbkcm1p
p1
I1
sVcylp935
p2
I1
s.(dp0
Vdbyz5rx
p1
I1
sVcylp935
p2
I1
s.(dp0
Vcylp935
p1
I1
sVdc43je1
p2
I1
s.(dp0
Vdca3oa1
p1
I1
sVcylp935
p2
I1
s.(dp0
Vdckxmsi
p1
I1
sVcylp935
p2
I1
s.(dp0
Vdcome4r
p1
I1
sVcylp935
p2
I1
s.(dp0
Vdcqi6q5
p1
I1
sVcylp935
p2
I1
s.(dp0
Vdcrl2lq
p1
I1
sVcylp935
p2
I1
s.(dp0
Vdcvls9c
p1
I1
sVcylp935
p2
I1
s.(dp0
Vdd0mric
p1
I1
sVcylp935
p2
I1
s.(dp0
Vddaj4yx
p1
I1
sVcylp935
p2
I1
s.(dp0
Vddoc6eq
p1
I1
sVcylp935
p2
I1
s.(dp0
Vcylp935
p1
I1
sVddwqnau
p2
I1
s.(dp0
Vddx5chg
p1
I1
sVcylp935
p2
I1
s.(dp0
Vde0i3s3
p1
I1
sVcylp935
p2
I1
s.(dp0
Vded9278
p1
I1
sVcylp935
p2
I1
s.(dp0
Vdehdghz
p1
I1
sVcylp935
p2
I1
s.(dp0
Vdeudbfl
p1
I1
sVcylp935
p2
I1
s.(dp0
Vcylp935
p1
I1
sVdf8m3tj
p2
I1
s.(dp0
Vdf90357
p1
I1
sVcylp935
p2
I1
s.(dp0
Vdf9b7lw
p1
I1
sVcylp935
p2
I1
s.(dp0
Vdfe4bc9
p1
I1
sVcylp935
p2
I1
s.(dp0
Vcylp935
p1
I1
sVdffyu2p
p2
I1
s.(dp0
Vdfut7mx
p1
I1
sVcylp935
p2
I1
s.(dp0
Vdfwz21p
p1
I1
sVcylp935
p2
I1
s.(dp0
Vdg03ixt
p1
I1
sVcylp935
p2
I1
s.(dp0
Vdgfj19s
p1
I1
sVcylp935
p2
I1
s.(dp0
Vdgflrvf
p1
I1
sVcylp935
p2
I1
s.(dp0
Vdgflrvf
p1
I1
sVcylp935
p2
I1
s.(dp0
Vcylp935
p1
I1
sVdgq9e6t
p2
I1
s.(dp0
Vdhk4guj
p1
I1
sVcylp935
p2
I1
s.(dp0
Vdhrba7e
p1
I1
sVcylp935
p2
I1
s.(dp0
Vdht1gfq
p1
I1
sVcylp935
p2
I1
s.(dp0
Vdi85chn
p1
I1
sVcylp935
p2
I1
s.(dp0
Vdi(dp0
Vdp5fq6q
p1
I1
sVcylp935
p2
I1
s.