(dp0
Vczv6yf9
p1
I1
s.(dp0
Vczv6yf9
p1
I1
sVd02qtzv
p2
I1
s.(dp0
Vd1wci5a
p1
I1
sVczv6yf9
p2
I1
s.(dp0
Vczv6yf9
p1
I1
sVd3oxu8g
p2
I1
s.(dp0
Vd5ui4tr
p1
I1
sVczv6yf9
p2
I1
s.(dp0
Vd5ui4tr
p1
I1
sVczv6yf9
p2
I1
s.(dp0
Vd88gil3
p1
I1
sVczv6yf9
p2
I1
s.(dp0
Vdaurnrc
p1
I1
sVczv6yf9
p2
I1
s.(dp0
Vdbfriil
p1
I1
sVczv6yf9
p2
I1
s.(dp0
Vdc64yd6
p1
I1
sVczv6yf9
p2
I1
s.