(dp0
Vczcsq8z
p1
I1
s.(dp0
Vczcsq8z
p1
I1
sVd11ks0i
p2
I1
s.(dp0
Vczcsq8z
p1
I1
sVd11ks0i
p2
I1
s.(dp0
Vczcsq8z
p1
I1
sVd1rxfc7
p2
I1
s.(dp0
Vczcsq8z
p1
I1
sVd2gnrq4
p2
I1
s.(dp0
Vd5ivwws
p1
I1
sVczcsq8z
p2
I1
s.(dp0
Vd9fmkyk
p1
I1
sVczcsq8z
p2
I1
s.(dp0
Vd9u7rg2
p1
I1
sVczcsq8z
p2
I1
s.(dp0
Vdcqh4tr
p1
I1
sVczcsq8z
p2
I1
s.(dp0
Vdcqh4tr
p1
I1
sVczcsq8z
p2
I1
s.(dp0
Vczcsq8z
p1
I1
sVdd3w2ni
p2
I1
s.(dp0
Vdeh0ijy
p1
I1
sVczcsq8z
p2
I1
s.(dp0
Vczcsq8z
p1
I1
sVdejumyg
p2
I1
s.(dp0
Vczcsq8z
p1
I1
sVdezv58v
p2
I1
s.(dp0
Vczcsq8z
p1
I1
sVdguw6hv
p2
I1
s.(dp0
Vdibpl5l
p1
I1
sVczcsq8z
p2
I1
s.(dp0
Vczcsq8z
p1
I1
sVdmmcdzl
p2
I1
s.(dp0
Vczcsq8z
p1
I1
sVdmmcdzl
p2
I1
s.(dp0
Vdn764ki
p1
I1
sVczcsq8z
p2
I1
s.(dp0
Vdn764ki
p1
I1
sVczcsq8z
p2
I1
s.