(dp0
Vcyjb2m9
p1
I1
s.(dp0
Vcyjb2m9
p1
I1
sVcyses9o
p2
I1
s.(dp0
Vcyjb2m9
p1
I1
sVcyuit9h
p2
I1
s.(dp0
Vcyjb2m9
p1
I1
sVcyuit9h
p2
I1
s.(dp0
Vcyjb2m9
p1
I1
sVcyujb7c
p2
I1
s.(dp0
Vcz1bvzh
p1
I1
sVcyjb2m9
p2
I1
s.(dp0
Vcyjb2m9
p1
I1
sVczj4bl9
p2
I1
s.(dp0
Vcyjb2m9
p1
I1
sVcznha1s
p2
I1
s.(dp0
Vcyjb2m9
p1
I1
sVd0gfp09
p2
I1
s.(dp0
Vd0o2tep
p1
I1
sVcyjb2m9
p2
I1
s.(dp0
Vd1byzp7
p1
I1
sVcyjb2m9
p2
I1
s.(dp0
Vd2bwo8d
p1
I1
sVcyjb2m9
p2
I1
s.(dp0
Vd2iaql9
p1
I1
sVcyjb2m9
p2
I1
s.(dp0
Vcyjb2m9
p1
I1
sVd2r7yx5
p2
I1
s.(dp0
Vcyjb2m9
p1
I1
sVd39fs2c
p2
I1
s.(dp0
Vcyjb2m9
p1
I1
sVd5b3td2
p2
I1
s.(dp0
Vcyjb2m9
p1
I1
sVd5b3td2
p2
I1
s.(dp0
Vcyjb2m9
p1
I1
sVd5swgp3
p2
I1
s.(dp0
Vcyjb2m9
p1
I1
sVd5yife6
p2
I1
s.(dp0
Vcyjb2m9
p1
I1
sVd6co03h
p2
I1
s.(dp0
Vcyjb2m9
p1
I1
sVd8x9dhi
p2
I1
s.(dp0
Vdadq8lb
p1
I1
sVcyjb2m9
p2
I1
s.(dp0
Vdawtjwh
p1
I1
sVcyjb2m9
p2
I1
s.(dp0
Vcyjb2m9
p1
I1
sVdbjpebm
p2
I1
s.(dp0
Vcyjb2m9
p1
I1
sVdbjrpv6
p2
I1
s.(dp0
Vcyjb2m9
p1
I1
sVdbjrpv6
p2
I1
s.(dp0
Vdbjta6u
p1
I1
sVcyjb2m9
p2
I1
s.(dp0
Vdbjzbk9
p1
I1
sVcyjb2m9
p2
I1
s.(dp0
Vdbvrhxe
p1
I1
sVcyjb2m9
p2
I1
s.(dp0
Vdc3uipi
p1
I1
sVcyjb2m9
p2
I1
s.(dp0
Vdc4en0z
p1
I1
sVcyjb2m9
p2
I1
s.(dp0
Vcyjb2m9
p1
I1
sVdc6oqhw
p2
I1
s.(dp0
Vdd2t2o6
p1
I1
sVcyjb2m9
p2
I1
s.(dp0
Vddj35od
p1
I1
sVcyjb2m9
p2
I1
s.(dp0
Vddj35od
p1
I1
sVcyjb2m9
p2
I1
s.(dp0
Vddj35od
p1
I1
sVcyjb2m9
p2
I1
s.(dp0
Vddj35od
p1
I1
sVcyjb2m9
p2
I1
s.(dp0
Vddkcioh
p1
I1
sVcyjb2m9
p2
I1
s.(dp0
Vcyjb2m9
p1
I1
sVddkl3us
p2
I1
s.(dp0
Vcyjb2m9
p1
I1
sVddkl3us
p2
I1
s.(dp0
Vcyjb2m9
p1
I1
sVddlky9w
p2
I1
s.(dp0
Vcyjb2m9
p1
I1
sVdep5wx3
p2
I1
s.(dp0
Vdf1x18h
p1
I1
sVcyjb2m9
p2
I1
s.(dp0
Vdfe324t
p1
I1
sVcyjb2m9
p2
I1
s.(dp0
Vdhcutyp
p1
I1
sVcyjb2m9
p2
I1
s.(dp0
Vdiw6zqd
p1
I1
sVcyjb2m9
p2
I1
s.(dp0
Vcyjb2m9
p1
I1
sVdjow0uu
p2
I1
s.(dp0
Vdnivg8z
p1
I1
sVcyjb2m9
p2
I1
s.(dp0
Vcyjb2m9
p1
I1
sVdo04u8z
p2
I1
s.(dp0
Vcyjb2m9
p1
I1
sVdofb456
p2
I1
s.