(dp0
Vcyi0pzg
p1
I1
s.(dp0
Vcyi0pzg
p1
I1
sVcyi3kuv
p2
I1
s.(dp0
Vcyi5ont
p1
I1
sVcyi0pzg
p2
I1
s.(dp0
Vcyi0pzg
p1
I1
sVcyi694v
p2
I1
s.(dp0
Vcyi6jcj
p1
I1
sVcyi0pzg
p2
I1
s.(dp0
Vcyi6uq8
p1
I1
sVcyi0pzg
p2
I1
s.(dp0
Vcyi0pzg
p1
I1
sVcyi71v0
p2
I1
s.(dp0
Vcyickig
p1
I1
sVcyi0pzg
p2
I1
s.(dp0
Vcyi0pzg
p1
I1
sVcyiesvl
p2
I1
s.(dp0
Vcyifwlq
p1
I1
sVcyi0pzg
p2
I1
s.(dp0
Vcyifwlq
p1
I1
sVcyi0pzg
p2
I1
s.(dp0
Vcyifwlq
p1
I1
sVcyi0pzg
p2
I1
s.(dp0
Vcyi0pzg
p1
I1
sVcyihvje
p2
I1
s.(dp0
Vcyii4md
p1
I1
sVcyi0pzg
p2
I1
s.(dp0
Vcyij8ie
p1
I1
sVcyi0pzg
p2
I1
s.(dp0
Vcyij8ie
p1
I1
sVcyi0pzg
p2
I1
s.(dp0
Vcyi0pzg
p1
I1
sVcyikppb
p2
I1
s.(dp0
Vcyi0pzg
p1
I1
sVcyilftc
p2
I1
s.(dp0
Vcyim32d
p1
I1
sVcyi0pzg
p2
I1
s.(dp0
Vcyimn09
p1
I1
sVcyi0pzg
p2
I1
s.(dp0
Vcyi0pzg
p1
I1
sVcyiqjs1
p2
I1
s.(dp0
Vcyisikn
p1
I1
sVcyi0pzg
p2
I1
s.(dp0
Vcyi0pzg
p1
I1
sVcyiv5oh
p2
I1
s.(dp0
Vcyiyowq
p1
I1
sVcyi0pzg
p2
I1
s.(dp0
Vcyi0pzg
p1
I1
sVcyj0fx0
p2
I1
s.(dp0
Vcyi0pzg
p1
I1
sVcyj2c3x
p2
I1
s.(dp0
Vcyj3muf
p1
I1
sVcyi0pzg
p2
I1
s.(dp0
Vcyi0pzg
p1
I1
sVcyj7f1f
p2
I1
s.(dp0
Vcyi0pzg
p1
I1
sVcyj9j0f
p2
I1
s.(dp0
Vcyjai5e
p1
I1
sVcyi0pzg
p2
I1
s.(dp0
Vcyi0pzg
p1
I1
sVcyjb4ks
p2
I1
s.(dp0
Vcyi0pzg
p1
I1
sVcyjb4ks
p2
I1
s.(dp0
Vcyjcvoc
p1
I1
sVcyi0pzg
p2
I1
s.(dp0
Vcyjd0u3
p1
I1
sVcyi0pzg
p2
I1
s.(dp0
Vcyjdabr
p1
I1
sVcyi0pzg
p2
I1
s.(dp0
Vcyjdkm2
p1
I1
sVcyi0pzg
p2
I1
s.(dp0
Vcyi0pzg
p1
I1
sVcyjhs5k
p2
I1
s.(dp0
Vcyi0pzg
p1
I1
sVcyjndpv
p2
I1
s.(dp0
Vcyi0pzg
p1
I1
sVcyjp5yv
p2
I1
s.(dp0
Vcyi0pzg
p1
I1
sVcyjpzys
p2
I1
s.(dp0
Vcyi0pzg
p1
I1
sVcyjqyxt
p2
I1
s.(dp0
Vcyjv9dh
p1
I1
sVcyi0pzg
p2
I1
s.(dp0
Vcyjx296
p1
I1
sVcyi0pzg
p2
I1
s.(dp0
Vcyjyog5
p1
I1
sVcyi0pzg
p2
I1
s.(dp0
Vcyjze93
p1
I1
sVcyi0pzg
p2
I1
s.(dp0
Vcyi0pzg
p1
I1
sVcyk0180
p2
I1
s.(dp0
Vcyi0pzg
p1
I1
sVcyk6o9t
p2
I1
s.(dp0
Vcyk88ci
p1
I1
sVcyi0pzg
p2
I1
s.(dp0
Vcyi0pzg
p1
I1
sVcykg3fu
p2
I1
s.(dp0
Vcykh4p2
p1
I1
sVcyi0pzg
p2
I1
s.(dp0
Vcyi0pzg
p1
I1
sVcykhdit
p2
I1
s.(dp0
Vcyi0pzg
p1
I1
sVcykhl43
p2
I1
s.(dp0
Vcyi0pzg
p1
I1
sVcykjl9q
p2
I1
s.(dp0
Vcykpn82
p1
I1
sVcyi0pzg
p2
I1
s.(dp0
Vcykpn82
p1
I1
sVcyi0pzg
p2
I1
s.(dp0
Vcykso7y
p1
I1
sVcyi0pzg
p2
I1
s.(dp0
Vcyi0pzg
p1
I1
sVcyktywf
p2
I1
s.(dp0
Vcykusi1
p1
I1
sVcyi0pzg
p2
I1
s.(dp0
Vcykusi1
p1
I1
sVcyi0pzg
p2
I1
s.(dp0
Vcyi0pzg
p1
I1
sVcykxwtt
p2
I1
s.(dp0
Vcyi0pzg
p1
I1
sVcykxxle
p2
I1
s.(dp0
Vcyi0pzg
p1
I1
sVcyl3rpk
p2
I1
s.(dp0
Vcyldfpa
p1
I1
sVcyi0pzg
p2
I1
s.(dp0
Vcyi0pzg
p1
I1
sVcyldgzm
p2
I1
s.(dp0
Vcyldps4
p1
I1
sVcyi0pzg
p2
I1
s.(dp0
Vcyldthq
p1
I1
sVcyi0pzg
p2
I1
s.(dp0
Vcylhf0g
p1
I1
sVcyi0pzg
p2
I1
s.(dp0
Vcyi0pzg
p1
I1
sVcyli4o2
p2
I1
s.(dp0
Vcyi0pzg
p1
I1
sVcylihz5
p2
I1
s.(dp0
Vcyljclh
p1
I1
sVcyi0pzg
p2
I1
s.(dp0
Vcyljclh
p1
I1
sVcyi0pzg
p2
I1
s.(dp0
Vcyi0pzg
p1
I1
sVcylk7zm
p2
I1
s.(dp0
Vcyi0pzg
p1
I1
sVcylk7zm
p2
I1
s.(dp0
Vcylkua4
p1
I1
sVcyi0pzg
p2
I1
s.(dp0
Vcylm2db
p1
I1
sVcyi0pzg
p2
I1
s.(dp0
Vcylmapw
p1
I1
sVcyi0pzg
p2
I1
s.(dp0
Vcyi0pzg
p1
I1
sVcylnjxd
p2
I1
s.(dp0
Vcyluo8b
p1
I1
sVcyi0pzg
p2
I1
s.(dp0
Vcyi0pzg
p1
I1
sVcylxq6p
p2
I1
s.(dp0
Vcyi0pzg
p1
I1
sVcylxq6p
p2
I1
s.(dp0
Vcym0yx2
p1
I1
sVcyi0pzg
p2
I1
s.(dp0
Vcym0yx2
p1
I1
sVcyi0pzg
p2
I1
s.(dp0
Vcymfefh
p1
I1
sVcyi0pzg
p2
I1
s.(dp0
Vcyi0pzg
p1
I1
sVcymgmwk
p2
I1
s.(dp0
Vcyi0pzg
p1
I1
sVcymjf4o
p2
I1
s.(dp0
Vcyml3br
p1
I1
sVcyi0pzg
p2
I1
s.(dp0
Vcymri79
p1
I1
sVcyi0pzg
p2
I1
s.(dp0
Vcyi0pzg
p1
I1
sVcymt3tv
p2
I1
s.(dp0
Vcyi0pzg
p1
I1
sVcymtjxp
p2
I1
s.(dp0
Vcyi0pzg
p1
I1
sVcyn1aha
p2
I1
s.(dp0
Vcyi0pzg
p1
I1
sVcyn6rbc
p2
I1
s.(dp0
Vcyn7a2d
p1
I1
sVcyi0pzg
p2
I1
s.(dp0
Vcyi0pzg
p1
I1
sVcyn98bj
p2
I1
s.(dp0
Vcyn98ut
p1
I1
sVcyi0pzg
p2
I1
s.(dp0
Vcyn98ut
p1
I1
sVcyi0pzg
p2
I1
s.(dp0
Vcyi0pzg
p1
I1
sVcynbwns
p2
I1
s.(dp0
Vcyi0pzg
p1
I1
sVcynd0wx
p2
I1
s.(dp0
Vcyi0pzg
p1
I1
sVcynd0wx
p2
I1
s.(dp0
Vcyi0pzg
p1
I1
sVcyndbuf
p2
I1
s.(dp0
Vcyneiyi
p1
I1
sVcyi0pzg
p2
I1
s.(dp0
Vcyneiyi
p1
I1
sVcyi0pzg
p2
I1
s.(dp0
Vcyneiyi
p1
I1
sVcyi0pzg
p2
I1
s.(dp0
Vcyi0pzg
p1
I1
sVcynlgyx
p2
I1
s.(dp0
Vcyi0pzg
p1
I1
sVcynzut0
p2
I1
s.(dp0
Vcyi0pzg
p1
I1
sVcyo28dh
p2
I1
s.(dp0
Vcyi0pzg
p1
I1
sVcyo4lb6
p2
I1
s.(dp0
Vcyi0pzg
p1
I1
sVcyo4zw7
p2
I1
s.(dp0
Vcyi0pzg
p1
I1
sVcyo58vb
p2
I1
s.(dp0
Vcy(dp0
Vcyi0pzg
p1
I1
sVdp5c2pr
p2
I1
s.