(dp0
Vcyi4oqt
p1
I1
s.(dp0
Vcykc5dc
p1
I1
sVcyi4oqt
p2
I1
s.(dp0
Vcykusi1
p1
I1
sVcyi4oqt
p2
I1
s.(dp0
Vcylgtyt
p1
I1
sVcyi4oqt
p2
I1
s.(dp0
Vcylh0q0
p1
I1
sVcyi4oqt
p2
I1
s.(dp0
Vcylhxcg
p1
I1
sVcyi4oqt
p2
I1
s.(dp0
Vcylhxcg
p1
I1
sVcyi4oqt
p2
I1
s.(dp0
Vcyli2tc
p1
I1
sVcyi4oqt
p2
I1
s.(dp0
Vcyi4oqt
p1
I1
sVcyli4o2
p2
I1
s.(dp0
Vcym25wu
p1
I1
sVcyi4oqt
p2
I1
s.(dp0
Vcymf32o
p1
I1
sVcyi4oqt
p2
I1
s.(dp0
Vcynxust
p1
I1
sVcyi4oqt
p2
I1
s.(dp0
Vcyo70ib
p1
I1
sVcyi4oqt
p2
I1
s.(dp0
Vcyr0zq2
p1
I1
sVcyi4oqt
p2
I1
s.(dp0
Vcyr0zq2
p1
I1
sVcyi4oqt
p2
I1
s.(dp0
Vcyr0zq2
p1
I1
sVcyi4oqt
p2
I1
s.(dp0
Vcyr3mva
p1
I1
sVcyi4oqt
p2
I1
s.(dp0
Vcys562g
p1
I1
sVcyi4oqt
p2
I1
s.(dp0
Vcyspdb6
p1
I1
sVcyi4oqt
p2
I1
s.(dp0
Vcyspdb6
p1
I1
sVcyi4oqt
p2
I1
s.(dp0
Vcyt2mug
p1
I1
sVcyi4oqt
p2
I1
s.(dp0
Vcyu3cu3
p1
I1
sVcyi4oqt
p2
I1
s.(dp0
Vcyu4w70
p1
I1
sVcyi4oqt
p2
I1
s.(dp0
Vcyuase8
p1
I1
sVcyi4oqt
p2
I1
s.(dp0
Vcyv9o0m
p1
I1
sVcyi4oqt
p2
I1
s.(dp0
Vcyw6x0s
p1
I1
sVcyi4oqt
p2
I1
s.(dp0
Vcyw7s5s
p1
I1
sVcyi4oqt
p2
I1
s.(dp0
Vcyyqnjs
p1
I1
sVcyi4oqt
p2
I1
s.(dp0
Vcyyqnjs
p1
I1
sVcyi4oqt
p2
I1
s.(dp0
Vcyyqnjs
p1
I1
sVcyi4oqt
p2
I1
s.(dp0
Vcyi4oqt
p1
I1
sVcyz1zf1
p2
I1
s.(dp0
Vcyz4s3m
p1
I1
sVcyi4oqt
p2
I1
s.(dp0
Vcz00t02
p1
I1
sVcyi4oqt
p2
I1
s.(dp0
Vcz0egxt
p1
I1
sVcyi4oqt
p2
I1
s.(dp0
Vcz28r6p
p1
I1
sVcyi4oqt
p2
I1
s.(dp0
Vcz2zrwh
p1
I1
sVcyi4oqt
p2
I1
s.(dp0
Vcz6m7nc
p1
I1
sVcyi4oqt
p2
I1
s.(dp0
Vcz6mymm
p1
I1
sVcyi4oqt
p2
I1
s.(dp0
Vcz7ossk
p1
I1
sVcyi4oqt
p2
I1
s.(dp0
Vczash2w
p1
I1
sVcyi4oqt
p2
I1
s.(dp0
Vczcv4xp
p1
I1
sVcyi4oqt
p2
I1
s.(dp0
Vczdisc4
p1
I1
sVcyi4oqt
p2
I1
s.(dp0
Vczdqnnc
p1
I1
sVcyi4oqt
p2
I1
s.(dp0
Vczfgt2g
p1
I1
sVcyi4oqt
p2
I1
s.(dp0
Vczqnhbr
p1
I1
sVcyi4oqt
p2
I1
s.(dp0
Vczsr7t2
p1
I1
sVcyi4oqt
p2
I1
s.(dp0
Vcyi4oqt
p1
I1
sVczuzgvk
p2
I1
s.(dp0
Vczvtwzt
p1
I1
sVcyi4oqt
p2
I1
s.(dp0
Vczxp38c
p1
I1
sVcyi4oqt
p2
I1
s.(dp0
Vczxp38c
p1
I1
sVcyi4oqt
p2
I1
s.(dp0
Vczy4680
p1
I1
sVcyi4oqt
p2
I1
s.(dp0
Vczzn375
p1
I1
sVcyi4oqt
p2
I1
s.(dp0
Vcyi4oqt
p1
I1
sVczzzqtt
p2
I1
s.(dp0
Vd04ned4
p1
I1
sVcyi4oqt
p2
I1
s.(dp0
Vd054qf4
p1
I1
sVcyi4oqt
p2
I1
s.(dp0
Vd05zfr3
p1
I1
sVcyi4oqt
p2
I1
s.(dp0
Vcyi4oqt
p1
I1
sVd06b0u3
p2
I1
s.(dp0
Vd06upcu
p1
I1
sVcyi4oqt
p2
I1
s.(dp0
Vd077k13
p1
I1
sVcyi4oqt
p2
I1
s.(dp0
Vd077k13
p1
I1
sVcyi4oqt
p2
I1
s.(dp0
Vd077kkc
p1
I1
sVcyi4oqt
p2
I1
s.(dp0
Vd07qh5t
p1
I1
sVcyi4oqt
p2
I1
s.(dp0
Vd083by0
p1
I1
sVcyi4oqt
p2
I1
s.(dp0
Vd0b20c7
p1
I1
sVcyi4oqt
p2
I1
s.(dp0
Vcyi4oqt
p1
I1
sVd0dsyl4
p2
I1
s.(dp0
Vcyi4oqt
p1
I1
sVd0dsyl4
p2
I1
s.(dp0
Vd0fh0sq
p1
I1
sVcyi4oqt
p2
I1
s.(dp0
Vcyi4oqt
p1
I1
sVd0fhb44
p2
I1
s.(dp0
Vd0gfxe2
p1
I1
sVcyi4oqt
p2
I1
s.(dp0
Vd0qo4ds
p1
I1
sVcyi4oqt
p2
I1
s.(dp0
Vd0r0ill
p1
I1
sVcyi4oqt
p2
I1
s.(dp0
Vd0r0ill
p1
I1
sVcyi4oqt
p2
I1
s.(dp0
Vcyi4oqt
p1
I1
sVd0r17ai
p2
I1
s.(dp0
Vd0r4juv
p1
I1
sVcyi4oqt
p2
I1
s.(dp0
Vd0t3jan
p1
I1
sVcyi4oqt
p2
I1
s.(dp0
Vd0vw9ft
p1
I1
sVcyi4oqt
p2
I1
s.(dp0
Vd0xcarg
p1
I1
sVcyi4oqt
p2
I1
s.(dp0
Vd0xkp77
p1
I1
sVcyi4oqt
p2
I1
s.(dp0
Vcyi4oqt
p1
I1
sVd0ymvgu
p2
I1
s.(dp0
Vd107v07
p1
I1
sVcyi4oqt
p2
I1
s.(dp0
Vd10cf63
p1
I1
sVcyi4oqt
p2
I1
s.(dp0
Vd120804
p1
I1
sVcyi4oqt
p2
I1
s.(dp0
Vd120ai6
p1
I1
sVcyi4oqt
p2
I1
s.(dp0
Vd120b90
p1
I1
sVcyi4oqt
p2
I1
s.(dp0
Vcyi4oqt
p1
I1
sVd14ofu3
p2
I1
s.(dp0
Vd179yju
p1
I1
sVcyi4oqt
p2
I1
s.(dp0
Vd179yju
p1
I1
sVcyi4oqt
p2
I1
s.(dp0
Vd17lpuy
p1
I1
sVcyi4oqt
p2
I1
s.(dp0
Vcyi4oqt
p1
I1
sVd19zzu9
p2
I1
s.(dp0
Vcyi4oqt
p1
I1
sVd19zzu9
p2
I1
s.(dp0
Vd1c3p84
p1
I1
sVcyi4oqt
p2
I1
s.(dp0
Vd1e6lcr
p1
I1
sVcyi4oqt
p2
I1
s.(dp0
Vd1e6lcr
p1
I1
sVcyi4oqt
p2
I1
s.(dp0
Vcyi4oqt
p1
I1
sVd1go6yx
p2
I1
s.(dp0
Vcyi4oqt
p1
I1
sVd1hd48w
p2
I1
s.(dp0
Vcyi4oqt
p1
I1
sVd1hd48w
p2
I1
s.(dp0
Vd1hip1f
p1
I1
sVcyi4oqt
p2
I1
s.(dp0
Vd1ij9gs
p1
I1
sVcyi4oqt
p2
I1
s.(dp0
Vd1iwt6d
p1
I1
sVcyi4oqt
p2
I1
s.(dp0
Vd1j45p3
p1
I1
sVcyi4oqt
p2
I1
s.(dp0
Vd1j45p3
p1
I1
sVcyi4oqt
p2
I1
s.(dp0
Vcyi4oqt
p1
I1
sVd1kyb6s
p2
I1
s.(dp0
Vd1rlova
p1
I1
sVcyi4oqt
p2
I1
s.(dp0
Vd1rqauq
p1
I1
sVcyi4oqt
p2
I1
s.(dp0
Vd1sycu2
p1
I1
sVcyi4oqt
p2
I1
s.(dp0
Vcyi4oqt
p1
I1
sVd1tpx0c
p2
I1
s.(dp0
Vd1w6w8g
p1
I1
sVcyi4oqt
p2
I1
s.(dp0
Vcyi4oqt
p1
I1
sVd1w8pis
p2
I1
s.(dp0
Vd1(dp0
Vdkz9fx1
p1
I1
sVcyi4oqt
p2
I1
s.