(dp0
Vcyi01xy
p1
I1
s.(dp0
Vcyi01xy
p1
I2
s.(dp0
Vcyi01xy
p1
I2
s.(dp0
Vcyi01xy
p1
I2
s.(dp0
Vcyi01xy
p1
I2
s.(dp0
Vcyi01xy
p1
I2
s.(dp0
Vcyi01xy
p1
I2
s.(dp0
Vcyi01xy
p1
I2
s.(dp0
Vcyi0lis
p1
I1
sVcyi01xy
p2
I1
s.(dp0
Vcyi6zgc
p1
I1
sVcyi01xy
p2
I1
s.(dp0
Vcyi83uc
p1
I1
sVcyi01xy
p2
I1
s.(dp0
Vcyi83uc
p1
I1
sVcyi01xy
p2
I1
s.(dp0
Vcyi8fgl
p1
I1
sVcyi01xy
p2
I1
s.(dp0
Vcyi01xy
p1
I1
sVcyi960h
p2
I1
s.(dp0
Vcyibhtc
p1
I1
sVcyi01xy
p2
I1
s.(dp0
Vcyibkov
p1
I1
sVcyi01xy
p2
I1
s.(dp0
Vcyicat8
p1
I1
sVcyi01xy
p2
I1
s.(dp0
Vcyirmw5
p1
I1
sVcyi01xy
p2
I1
s.(dp0
Vcyjayna
p1
I1
sVcyi01xy
p2
I1
s.(dp0
Vcyjhteb
p1
I1
sVcyi01xy
p2
I1
s.(dp0
Vcyi01xy
p1
I1
sVcyjiwjt
p2
I1
s.(dp0
Vcyjjakg
p1
I1
sVcyi01xy
p2
I1
s.(dp0
Vcyjkc21
p1
I1
sVcyi01xy
p2
I1
s.(dp0
Vcyjkc21
p1
I1
sVcyi01xy
p2
I1
s.(dp0
Vcyjog7k
p1
I1
sVcyi01xy
p2
I1
s.(dp0
Vcyjrddr
p1
I1
sVcyi01xy
p2
I1
s.(dp0
Vcyk49xc
p1
I1
sVcyi01xy
p2
I1
s.(dp0
Vcyk49xc
p1
I1
sVcyi01xy
p2
I1
s.(dp0
Vcyk86sc
p1
I1
sVcyi01xy
p2
I1
s.(dp0
Vcyka0c2
p1
I1
sVcyi01xy
p2
I1
s.(dp0
Vcykdn04
p1
I1
sVcyi01xy
p2
I1
s.(dp0
Vcykf0d4
p1
I1
sVcyi01xy
p2
I1
s.(dp0
Vcykf4ht
p1
I1
sVcyi01xy
p2
I1
s.(dp0
Vcykidi4
p1
I1
sVcyi01xy
p2
I1
s.(dp0
Vcykidi4
p1
I1
sVcyi01xy
p2
I1
s.(dp0
Vcyktnni
p1
I1
sVcyi01xy
p2
I1
s.(dp0
Vcyktnni
p1
I1
sVcyi01xy
p2
I1
s.(dp0
Vcyktnni
p1
I1
sVcyi01xy
p2
I1
s.(dp0
Vcyl63ch
p1
I1
sVcyi01xy
p2
I1
s.(dp0
Vcyl67om
p1
I1
sVcyi01xy
p2
I1
s.(dp0
Vcyl67om
p1
I1
sVcyi01xy
p2
I1
s.(dp0
Vcyl67om
p1
I1
sVcyi01xy
p2
I1
s.(dp0
Vcyleu7u
p1
I1
sVcyi01xy
p2
I1
s.(dp0
Vcyleu7u
p1
I1
sVcyi01xy
p2
I1
s.(dp0
Vcylhb6r
p1
I1
sVcyi01xy
p2
I1
s.(dp0
Vcylhb6r
p1
I1
sVcyi01xy
p2
I1
s.(dp0
Vcylhb6r
p1
I1
sVcyi01xy
p2
I1
s.(dp0
Vcylk0by
p1
I1
sVcyi01xy
p2
I1
s.(dp0
Vcylkhds
p1
I1
sVcyi01xy
p2
I1
s.(dp0
Vcylo6ej
p1
I1
sVcyi01xy
p2
I1
s.(dp0
Vcylq81u
p1
I1
sVcyi01xy
p2
I1
s.(dp0
Vcylq81u
p1
I1
sVcyi01xy
p2
I1
s.(dp0
Vcylz9df
p1
I1
sVcyi01xy
p2
I1
s.(dp0
Vcylz9df
p1
I1
sVcyi01xy
p2
I1
s.(dp0
Vcylzxp0
p1
I1
sVcyi01xy
p2
I1
s.(dp0
Vcymqhy0
p1
I1
sVcyi01xy
p2
I1
s.(dp0
Vcymylfe
p1
I1
sVcyi01xy
p2
I1
s.(dp0
Vcyn00j3
p1
I1
sVcyi01xy
p2
I1
s.(dp0
Vcyn00j3
p1
I1
sVcyi01xy
p2
I1
s.(dp0
Vcynhyi7
p1
I1
sVcyi01xy
p2
I1
s.(dp0
Vcynmqem
p1
I1
sVcyi01xy
p2
I1
s.(dp0
Vcynv73y
p1
I1
sVcyi01xy
p2
I1
s.(dp0
Vcynzdkz
p1
I1
sVcyi01xy
p2
I1
s.(dp0
Vcynzen7
p1
I1
sVcyi01xy
p2
I1
s.(dp0
Vcyo0j95
p1
I1
sVcyi01xy
p2
I1
s.(dp0
Vcyo1oks
p1
I1
sVcyi01xy
p2
I1
s.(dp0
Vcyo9a38
p1
I1
sVcyi01xy
p2
I1
s.(dp0
Vcyoct0y
p1
I1
sVcyi01xy
p2
I1
s.(dp0
Vcyoife0
p1
I1
sVcyi01xy
p2
I1
s.(dp0
Vcyoife0
p1
I1
sVcyi01xy
p2
I1
s.(dp0
Vcyoife0
p1
I1
sVcyi01xy
p2
I1
s.(dp0
Vcyoife0
p1
I1
sVcyi01xy
p2
I1
s.(dp0
Vcyomsoh
p1
I1
sVcyi01xy
p2
I1
s.(dp0
Vcyomsoh
p1
I1
sVcyi01xy
p2
I1
s.(dp0
Vcyow7u8
p1
I1
sVcyi01xy
p2
I1
s.(dp0
Vcyp261o
p1
I1
sVcyi01xy
p2
I1
s.(dp0
Vcyp261o
p1
I1
sVcyi01xy
p2
I1
s.(dp0
Vcyp261o
p1
I1
sVcyi01xy
p2
I1
s.(dp0
Vcyp261o
p1
I1
sVcyi01xy
p2
I1
s.(dp0
Vcyp261o
p1
I1
sVcyi01xy
p2
I1
s.(dp0
Vcyp288w
p1
I1
sVcyi01xy
p2
I1
s.(dp0
Vcyp2uil
p1
I1
sVcyi01xy
p2
I1
s.(dp0
Vcyp8t4y
p1
I1
sVcyi01xy
p2
I1
s.(dp0
Vcypedoq
p1
I1
sVcyi01xy
p2
I1
s.(dp0
Vcyi01xy
p1
I1
sVcypgsmm
p2
I1
s.(dp0
Vcypgv6z
p1
I1
sVcyi01xy
p2
I1
s.(dp0
Vcypny6j
p1
I1
sVcyi01xy
p2
I1
s.(dp0
Vcyi01xy
p1
I1
sVcypp0si
p2
I1
s.(dp0
Vcypp7rt
p1
I1
sVcyi01xy
p2
I1
s.(dp0
Vcypwcih
p1
I1
sVcyi01xy
p2
I1
s.(dp0
Vcypyfsm
p1
I1
sVcyi01xy
p2
I1
s.(dp0
Vcyqjwdw
p1
I1
sVcyi01xy
p2
I1
s.(dp0
Vcyqyu8n
p1
I1
sVcyi01xy
p2
I1
s.(dp0
Vcyr1mga
p1
I1
sVcyi01xy
p2
I1
s.(dp0
Vcyr42s1
p1
I1
sVcyi01xy
p2
I1
s.(dp0
Vcyrji09
p1
I1
sVcyi01xy
p2
I1
s.(dp0
Vcyi01xy
p1
I1
sVcyrmlla
p2
I1
s.(dp0
Vcyrsp30
p1
I1
sVcyi01xy
p2
I1
s.(dp0
Vcys89ct
p1
I1
sVcyi01xy
p2
I1
s.(dp0
Vcyi01xy
p1
I1
sVcys917l
p2
I1
s.(dp0
Vcyi01xy
p1
I1
sVcys917l
p2
I1
s.(dp0
Vcyi01xy
p1
I1
sVcys917l
p2
I1
s.(dp0
Vcysc40t
p1
I1
sVcyi01xy
p2
I1
s.(dp0
Vcyst3hm
p1
I1
sVcyi01xy
p2
I1
s.(dp0
Vcyst3hm
p1
I1
sVcyi01xy
p2
I1
s.(dp0
Vcyst3hm
p1
I1
sVcyi01xy
p2
I1
s.(dp0
Vcysutgx
p1
I1
sVcyi01xy
p2
I1
s.(dp0
Vcysutgx
p1
I1
sVcyi01xy
p2
I1
s.(dp0
Vcysutgx
p1
I1
sVcyi01xy
p2
I1
s.(dp0
Vcyi01xy
p1
I1
sVcysy1k8
p2
I1
s.(dp0
Vcyt2a7c
p1
I1
sVcyi01xy
p2
I1
s.(dp0
V(dp0
Vdkz8v39
p1
I1
sVcyi01xy
p2
I1
s.