(dp0
Vcyhvj7m
p1
I1
s.(dp0
Vcyhzimt
p1
I1
sVcyhvj7m
p2
I1
s.(dp0
Vcyi45ri
p1
I1
sVcyhvj7m
p2
I1
s.(dp0
Vcyi47hj
p1
I1
sVcyhvj7m
p2
I1
s.(dp0
Vcyi47hj
p1
I1
sVcyhvj7m
p2
I1
s.(dp0
Vcyi6xe9
p1
I1
sVcyhvj7m
p2
I1
s.(dp0
Vcyi72pa
p1
I1
sVcyhvj7m
p2
I1
s.(dp0
Vcyi803g
p1
I1
sVcyhvj7m
p2
I1
s.(dp0
Vcyic8x9
p1
I1
sVcyhvj7m
p2
I1
s.(dp0
Vcyigf45
p1
I1
sVcyhvj7m
p2
I1
s.(dp0
Vcyihwz6
p1
I1
sVcyhvj7m
p2
I1
s.(dp0
Vcyijnl2
p1
I1
sVcyhvj7m
p2
I1
s.(dp0
Vcyikjrv
p1
I1
sVcyhvj7m
p2
I1
s.(dp0
Vcyilg1q
p1
I1
sVcyhvj7m
p2
I1
s.(dp0
Vcyilg1q
p1
I1
sVcyhvj7m
p2
I1
s.(dp0
Vcyilgoc
p1
I1
sVcyhvj7m
p2
I1
s.(dp0
Vcyim32d
p1
I1
sVcyhvj7m
p2
I1
s.(dp0
Vcyim32d
p1
I1
sVcyhvj7m
p2
I1
s.(dp0
Vcyim32d
p1
I1
sVcyhvj7m
p2
I1
s.(dp0
Vcyim32d
p1
I1
sVcyhvj7m
p2
I1
s.(dp0
Vcyim32d
p1
I1
sVcyhvj7m
p2
I1
s.(dp0
Vcyim32d
p1
I1
sVcyhvj7m
p2
I1
s.(dp0
Vcyim32d
p1
I1
sVcyhvj7m
p2
I1
s.(dp0
Vcyim32d
p1
I1
sVcyhvj7m
p2
I1
s.(dp0
Vcyim32d
p1
I1
sVcyhvj7m
p2
I1
s.(dp0
Vcyim32d
p1
I1
sVcyhvj7m
p2
I1
s.(dp0
Vcyim32d
p1
I1
sVcyhvj7m
p2
I1
s.(dp0
Vcyim32d
p1
I1
sVcyhvj7m
p2
I1
s.(dp0
Vcyio1u0
p1
I1
sVcyhvj7m
p2
I1
s.(dp0
Vcyiphx8
p1
I1
sVcyhvj7m
p2
I1
s.(dp0
Vcyir9yb
p1
I1
sVcyhvj7m
p2
I1
s.(dp0
Vcyir9yb
p1
I1
sVcyhvj7m
p2
I1
s.(dp0
Vcyis0p9
p1
I1
sVcyhvj7m
p2
I1
s.(dp0
Vcyiszge
p1
I1
sVcyhvj7m
p2
I1
s.(dp0
Vcyj4ekn
p1
I1
sVcyhvj7m
p2
I1
s.(dp0
Vcyj7kdz
p1
I1
sVcyhvj7m
p2
I1
s.(dp0
Vcyj9ff2
p1
I1
sVcyhvj7m
p2
I1
s.(dp0
Vcyj9vk5
p1
I1
sVcyhvj7m
p2
I1
s.(dp0
Vcyjb4ks
p1
I1
sVcyhvj7m
p2
I1
s.(dp0
Vcyjcsw0
p1
I1
sVcyhvj7m
p2
I1
s.(dp0
Vcyjgf89
p1
I1
sVcyhvj7m
p2
I1
s.(dp0
Vcyjh54a
p1
I1
sVcyhvj7m
p2
I1
s.(dp0
Vcyjhlkn
p1
I1
sVcyhvj7m
p2
I1
s.(dp0
Vcyjhs5k
p1
I1
sVcyhvj7m
p2
I1
s.(dp0
Vcyjhsuf
p1
I1
sVcyhvj7m
p2
I1
s.(dp0
Vcyjhsuf
p1
I1
sVcyhvj7m
p2
I1
s.(dp0
Vcyjja7d
p1
I1
sVcyhvj7m
p2
I1
s.(dp0
Vcyjpx9f
p1
I1
sVcyhvj7m
p2
I1
s.(dp0
Vcyjq3a7
p1
I1
sVcyhvj7m
p2
I1
s.(dp0
Vcyjrfco
p1
I1
sVcyhvj7m
p2
I1
s.(dp0
Vcyjrfco
p1
I1
sVcyhvj7m
p2
I1
s.(dp0
Vcyjrzc4
p1
I1
sVcyhvj7m
p2
I1
s.(dp0
Vcyjs4ey
p1
I1
sVcyhvj7m
p2
I1
s.(dp0
Vcyjula4
p1
I1
sVcyhvj7m
p2
I1
s.(dp0
Vcyjurpx
p1
I1
sVcyhvj7m
p2
I1
s.(dp0
Vcyjv2q8
p1
I1
sVcyhvj7m
p2
I1
s.(dp0
Vcyjw5ot
p1
I1
sVcyhvj7m
p2
I1
s.(dp0
Vcyjx5cx
p1
I1
sVcyhvj7m
p2
I1
s.(dp0
Vcyk1fqi
p1
I1
sVcyhvj7m
p2
I1
s.(dp0
Vcyk24of
p1
I1
sVcyhvj7m
p2
I1
s.(dp0
Vcyk8b89
p1
I1
sVcyhvj7m
p2
I1
s.(dp0
Vcykaw9m
p1
I1
sVcyhvj7m
p2
I1
s.(dp0
Vcykba0f
p1
I1
sVcyhvj7m
p2
I1
s.(dp0
Vcykbugu
p1
I1
sVcyhvj7m
p2
I1
s.(dp0
Vcykczpt
p1
I1
sVcyhvj7m
p2
I1
s.(dp0
Vcykczpt
p1
I1
sVcyhvj7m
p2
I1
s.(dp0
Vcykf0d4
p1
I1
sVcyhvj7m
p2
I1
s.(dp0
Vcykf0d4
p1
I1
sVcyhvj7m
p2
I1
s.(dp0
Vcykf0d4
p1
I1
sVcyhvj7m
p2
I1
s.(dp0
Vcykgsbi
p1
I1
sVcyhvj7m
p2
I1
s.(dp0
Vcykh0av
p1
I1
sVcyhvj7m
p2
I1
s.(dp0
Vcykhfh8
p1
I1
sVcyhvj7m
p2
I1
s.(dp0
Vcykk1tt
p1
I1
sVcyhvj7m
p2
I1
s.(dp0
Vcykkj26
p1
I1
sVcyhvj7m
p2
I1
s.(dp0
Vcykmlpq
p1
I1
sVcyhvj7m
p2
I1
s.(dp0
Vcykmlpq
p1
I1
sVcyhvj7m
p2
I1
s.(dp0
Vcykmlpq
p1
I1
sVcyhvj7m
p2
I1
s.(dp0
Vcyko80r
p1
I1
sVcyhvj7m
p2
I1
s.(dp0
Vcykos24
p1
I1
sVcyhvj7m
p2
I1
s.(dp0
Vcykp3ic
p1
I1
sVcyhvj7m
p2
I1
s.(dp0
Vcykpn82
p1
I1
sVcyhvj7m
p2
I1
s.(dp0
Vcykpopl
p1
I1
sVcyhvj7m
p2
I1
s.(dp0
Vcykprau
p1
I1
sVcyhvj7m
p2
I1
s.(dp0
Vcykqrpc
p1
I1
sVcyhvj7m
p2
I1
s.(dp0
Vcykrtii
p1
I1
sVcyhvj7m
p2
I1
s.(dp0
Vcyl2b1c
p1
I1
sVcyhvj7m
p2
I1
s.(dp0
Vcyl2dtb
p1
I1
sVcyhvj7m
p2
I1
s.(dp0
Vcyl39sj
p1
I1
sVcyhvj7m
p2
I1
s.(dp0
Vcyl3fpx
p1
I1
sVcyhvj7m
p2
I1
s.(dp0
Vcyl4ab4
p1
I1
sVcyhvj7m
p2
I1
s.(dp0
Vcyl4h88
p1
I1
sVcyhvj7m
p2
I1
s.(dp0
Vcyl5bjw
p1
I1
sVcyhvj7m
p2
I1
s.(dp0
Vcyl6ad2
p1
I1
sVcyhvj7m
p2
I1
s.(dp0
Vcylc54r
p1
I1
sVcyhvj7m
p2
I1
s.(dp0
Vcylh88n
p1
I1
sVcyhvj7m
p2
I1
s.(dp0
Vcylhjq5
p1
I1
sVcyhvj7m
p2
I1
s.(dp0
Vcylhvx0
p1
I1
sVcyhvj7m
p2
I1
s.(dp0
Vcyljody
p1
I1
sVcyhvj7m
p2
I1
s.(dp0
Vcylmj0c
p1
I1
sVcyhvj7m
p2
I1
s.(dp0
Vcylo8mb
p1
I1
sVcyhvj7m
p2
I1
s.(dp0
Vcylp090
p1
I1
sVcyhvj7m
p2
I1
s.(dp0
Vcylvvft
p1
I1
sVcyhvj7m
p2
I1
s.(dp0
Vcylyi32
p1
I1
sVcyhvj7m
p2
I1
s.(dp0
Vcym4ogc
p1
I1
sVcyhvj7m
p2
I1
s.(dp0
Vcym5ksy
p1
I1
sVcyhvj7m
p2
I1
s.(dp0
Vcym66yi
p1
I1
sVcyhvj7m
p2
I1
s.(dp0
Vcym7o4v
p1
I1
sVcyhvj7m
p2
I1
s.(dp0
Vcymcydb
p1
I1
sVcyhvj7m
p2
I1
s.(dp0
Vcy(dp0
Vdp5xe7t
p1
I1
sVcyhvj7m
p2
I1
s.