(dp0
Vcyi96du
p1
I1
s.(dp0
Vcyi96du
p1
I1
sVcyigzhn
p2
I1
s.(dp0
Vcyimf91
p1
I1
sVcyi96du
p2
I1
s.(dp0
Vcyiqozu
p1
I1
sVcyi96du
p2
I1
s.(dp0
Vcyizkmv
p1
I1
sVcyi96du
p2
I1
s.(dp0
Vcyj5r3g
p1
I1
sVcyi96du
p2
I1
s.(dp0
Vcyjnt0e
p1
I1
sVcyi96du
p2
I1
s.(dp0
Vcyjppmx
p1
I1
sVcyi96du
p2
I1
s.(dp0
Vcyi96du
p1
I1
sVcyjrfco
p2
I1
s.(dp0
Vcyjsi9f
p1
I1
sVcyi96du
p2
I1
s.(dp0
Vcyjw16q
p1
I1
sVcyi96du
p2
I1
s.(dp0
Vcyi96du
p1
I1
sVcykczpt
p2
I1
s.(dp0
Vcykusi1
p1
I1
sVcyi96du
p2
I1
s.(dp0
Vcyld3e5
p1
I1
sVcyi96du
p2
I1
s.(dp0
Vcyld3e5
p1
I1
sVcyi96du
p2
I1
s.(dp0
Vcyld3e5
p1
I1
sVcyi96du
p2
I1
s.(dp0
Vcym3ml9
p1
I1
sVcyi96du
p2
I1
s.(dp0
Vcymj48q
p1
I1
sVcyi96du
p2
I1
s.(dp0
Vcymn8zs
p1
I1
sVcyi96du
p2
I1
s.(dp0
Vcymwiyw
p1
I1
sVcyi96du
p2
I1
s.(dp0
Vcymx2u7
p1
I1
sVcyi96du
p2
I1
s.(dp0
Vcymx2u7
p1
I1
sVcyi96du
p2
I1
s.(dp0
Vcymxw8v
p1
I1
sVcyi96du
p2
I1
s.(dp0
Vcyn61el
p1
I1
sVcyi96du
p2
I1
s.(dp0
Vcyn6kvr
p1
I1
sVcyi96du
p2
I1
s.(dp0
Vcynfnwe
p1
I1
sVcyi96du
p2
I1
s.(dp0
Vcynmqml
p1
I1
sVcyi96du
p2
I1
s.(dp0
Vcynmqml
p1
I1
sVcyi96du
p2
I1
s.(dp0
Vcyi96du
p1
I1
sVcynxeto
p2
I1
s.(dp0
Vcyo1h5t
p1
I1
sVcyi96du
p2
I1
s.(dp0
Vcyoaona
p1
I1
sVcyi96du
p2
I1
s.(dp0
Vcyp2ynl
p1
I1
sVcyi96du
p2
I1
s.(dp0
Vcyptije
p1
I1
sVcyi96du
p2
I1
s.(dp0
Vcyqg827
p1
I1
sVcyi96du
p2
I1
s.(dp0
Vcyqm9m3
p1
I1
sVcyi96du
p2
I1
s.(dp0
Vcyr5esb
p1
I1
sVcyi96du
p2
I1
s.(dp0
Vcyrmbgk
p1
I1
sVcyi96du
p2
I1
s.(dp0
Vcysl6nz
p1
I1
sVcyi96du
p2
I1
s.(dp0
Vcyt508g
p1
I1
sVcyi96du
p2
I1
s.(dp0
Vcyuschc
p1
I1
sVcyi96du
p2
I1
s.(dp0
Vcyuschc
p1
I1
sVcyi96du
p2
I1
s.(dp0
Vcyutfop
p1
I1
sVcyi96du
p2
I1
s.(dp0
Vcyutfop
p1
I1
sVcyi96du
p2
I1
s.(dp0
Vcyv42o3
p1
I1
sVcyi96du
p2
I1
s.(dp0
Vcyvihoa
p1
I1
sVcyi96du
p2
I1
s.(dp0
Vcyvii53
p1
I1
sVcyi96du
p2
I1
s.(dp0
Vcyvunz0
p1
I1
sVcyi96du
p2
I1
s.(dp0
Vcywir1g
p1
I1
sVcyi96du
p2
I1
s.(dp0
Vcywvgv6
p1
I1
sVcyi96du
p2
I1
s.(dp0
Vcyxm3x2
p1
I1
sVcyi96du
p2
I1
s.(dp0
Vcyxsd6t
p1
I1
sVcyi96du
p2
I1
s.(dp0
Vcyxwab6
p1
I1
sVcyi96du
p2
I1
s.(dp0
Vcyi96du
p1
I1
sVcyyi19l
p2
I1
s.(dp0
Vcyykjgr
p1
I1
sVcyi96du
p2
I1
s.(dp0
Vcyi96du
p1
I1
sVcyyqr0l
p2
I1
s.(dp0
Vcyys1k5
p1
I1
sVcyi96du
p2
I1
s.(dp0
Vcyi96du
p1
I1
sVcyyyf13
p2
I1
s.(dp0
Vcyz4n17
p1
I1
sVcyi96du
p2
I1
s.(dp0
Vcyzc2um
p1
I1
sVcyi96du
p2
I1
s.(dp0
Vcyzhfvu
p1
I1
sVcyi96du
p2
I1
s.(dp0
Vcz04qkd
p1
I1
sVcyi96du
p2
I1
s.(dp0
Vcz0jvl0
p1
I1
sVcyi96du
p2
I1
s.(dp0
Vcz0pez3
p1
I1
sVcyi96du
p2
I1
s.(dp0
Vcz10zkx
p1
I1
sVcyi96du
p2
I1
s.(dp0
Vcyi96du
p1
I1
sVcz15zcl
p2
I1
s.(dp0
Vcz1no3n
p1
I1
sVcyi96du
p2
I1
s.(dp0
Vcz25xnz
p1
I1
sVcyi96du
p2
I1
s.(dp0
Vcz28r6p
p1
I1
sVcyi96du
p2
I1
s.(dp0
Vcyi96du
p1
I1
sVcz2cl3o
p2
I1
s.(dp0
Vcyi96du
p1
I1
sVcz30y8c
p2
I1
s.(dp0
Vcz37xtn
p1
I1
sVcyi96du
p2
I1
s.(dp0
Vcyi96du
p1
I1
sVcz3fpcq
p2
I1
s.(dp0
Vcz3lukc
p1
I1
sVcyi96du
p2
I1
s.(dp0
Vcz3qsa5
p1
I1
sVcyi96du
p2
I1
s.(dp0
Vcz46irm
p1
I1
sVcyi96du
p2
I1
s.(dp0
Vcz4glpe
p1
I1
sVcyi96du
p2
I1
s.(dp0
Vcz5em1t
p1
I1
sVcyi96du
p2
I1
s.(dp0
Vcz5zpi9
p1
I1
sVcyi96du
p2
I1
s.(dp0
Vcz69idl
p1
I1
sVcyi96du
p2
I1
s.(dp0
Vcz6hh5c
p1
I1
sVcyi96du
p2
I1
s.(dp0
Vcz6y2sf
p1
I1
sVcyi96du
p2
I1
s.(dp0
Vcz7nv94
p1
I1
sVcyi96du
p2
I1
s.(dp0
Vcz7w4uh
p1
I1
sVcyi96du
p2
I1
s.(dp0
Vcz7wuem
p1
I1
sVcyi96du
p2
I1
s.(dp0
Vcz7y4fu
p1
I1
sVcyi96du
p2
I1
s.(dp0
Vcz82oez
p1
I1
sVcyi96du
p2
I1
s.(dp0
Vcz865n4
p1
I1
sVcyi96du
p2
I1
s.(dp0
Vcz865n4
p1
I1
sVcyi96du
p2
I1
s.(dp0
Vcz8d9sz
p1
I1
sVcyi96du
p2
I1
s.(dp0
Vcz8un8w
p1
I1
sVcyi96du
p2
I1
s.(dp0
Vcyi96du
p1
I1
sVcz91npu
p2
I1
s.(dp0
Vcz9qh9j
p1
I1
sVcyi96du
p2
I1
s.(dp0
Vcza0qj0
p1
I1
sVcyi96du
p2
I1
s.(dp0
Vczasy7t
p1
I1
sVcyi96du
p2
I1
s.(dp0
Vczbj7is
p1
I1
sVcyi96du
p2
I1
s.(dp0
Vczbyqq1
p1
I1
sVcyi96du
p2
I1
s.(dp0
Vczbyqq1
p1
I1
sVcyi96du
p2
I1
s.(dp0
Vczc3to7
p1
I1
sVcyi96du
p2
I1
s.(dp0
Vczcb2jm
p1
I1
sVcyi96du
p2
I1
s.(dp0
Vczccm5o
p1
I1
sVcyi96du
p2
I1
s.(dp0
Vczcejwv
p1
I1
sVcyi96du
p2
I1
s.(dp0
Vczcnxag
p1
I1
sVcyi96du
p2
I1
s.(dp0
Vczdqnnc
p1
I1
sVcyi96du
p2
I1
s.(dp0
Vczdwrvg
p1
I1
sVcyi96du
p2
I1
s.(dp0
Vcze8pza
p1
I1
sVcyi96du
p2
I1
s.(dp0
Vczf2230
p1
I1
sVcyi96du
p2
I1
s.(dp0
Vczfjggz
p1
I1
sVcyi96du
p2
I1
s.(dp0
Vczfos53
p1
I1
sVcyi96du
p2
I1
s.(dp0
Vcy(dp0
Vcyi96du
p1
I1
sVdkz5ekd
p2
I1
s.