(dp0
Vcyi5c8c
p1
I1
s.(dp0
Vcykn4ar
p1
I1
sVcyi5c8c
p2
I1
s.(dp0
Vcyknmdo
p1
I1
sVcyi5c8c
p2
I1
s.(dp0
Vcyknmdo
p1
I1
sVcyi5c8c
p2
I1
s.(dp0
Vcykrpxm
p1
I1
sVcyi5c8c
p2
I1
s.(dp0
Vcykrpxm
p1
I1
sVcyi5c8c
p2
I1
s.(dp0
Vcyi5c8c
p1
I1
sVcyktbw8
p2
I1
s.(dp0
Vcyi5c8c
p1
I1
sVcylx3e8
p2
I1
s.(dp0
Vcymux2s
p1
I1
sVcyi5c8c
p2
I1
s.(dp0
Vcyi5c8c
p1
I1
sVcymwfcj
p2
I1
s.(dp0
Vcynsojw
p1
I1
sVcyi5c8c
p2
I1
s.(dp0
Vcyi5c8c
p1
I1
sVcyp7bkp
p2
I1
s.(dp0
Vcyi5c8c
p1
I1
sVcyp7bkp
p2
I1
s.(dp0
Vcypad2j
p1
I1
sVcyi5c8c
p2
I1
s.(dp0
Vcypm704
p1
I1
sVcyi5c8c
p2
I1
s.(dp0
Vcypm704
p1
I1
sVcyi5c8c
p2
I1
s.(dp0
Vcyr0w91
p1
I1
sVcyi5c8c
p2
I1
s.(dp0
Vcyr454q
p1
I1
sVcyi5c8c
p2
I1
s.(dp0
Vcyi5c8c
p1
I1
sVcysfqt8
p2
I1
s.(dp0
Vcyi5c8c
p1
I1
sVcysfzni
p2
I1
s.(dp0
Vcysncdm
p1
I1
sVcyi5c8c
p2
I1
s.(dp0
Vcyttggu
p1
I1
sVcyi5c8c
p2
I1
s.(dp0
Vcyx7prq
p1
I1
sVcyi5c8c
p2
I1
s.(dp0
Vcyzd594
p1
I1
sVcyi5c8c
p2
I1
s.(dp0
Vcyzgq1j
p1
I1
sVcyi5c8c
p2
I1
s.(dp0
Vcyi5c8c
p1
I1
sVcyzli4i
p2
I1
s.(dp0
Vcz03h8d
p1
I1
sVcyi5c8c
p2
I1
s.(dp0
Vcz079bh
p1
I1
sVcyi5c8c
p2
I1
s.(dp0
Vcyi5c8c
p1
I1
sVcz0wvv8
p2
I1
s.(dp0
Vcyi5c8c
p1
I1
sVcz0wvv8
p2
I1
s.(dp0
Vcyi5c8c
p1
I1
sVcz0wvv8
p2
I1
s.(dp0
Vcz1jw3g
p1
I1
sVcyi5c8c
p2
I1
s.(dp0
Vcz1zx7l
p1
I1
sVcyi5c8c
p2
I1
s.(dp0
Vcz1zx7l
p1
I1
sVcyi5c8c
p2
I1
s.(dp0
Vcz1zzp2
p1
I1
sVcyi5c8c
p2
I1
s.(dp0
Vcz1zzp2
p1
I1
sVcyi5c8c
p2
I1
s.(dp0
Vcz23yxx
p1
I1
sVcyi5c8c
p2
I1
s.(dp0
Vcyi5c8c
p1
I1
sVcz2jrri
p2
I1
s.(dp0
Vcyi5c8c
p1
I1
sVcz3kdul
p2
I1
s.(dp0
Vcyi5c8c
p1
I1
sVcz63111
p2
I1
s.(dp0
Vcz6s9zu
p1
I1
sVcyi5c8c
p2
I1
s.(dp0
Vcz76wwf
p1
I1
sVcyi5c8c
p2
I1
s.(dp0
Vcz81tcb
p1
I1
sVcyi5c8c
p2
I1
s.(dp0
Vcz82ycj
p1
I1
sVcyi5c8c
p2
I1
s.(dp0
Vcyi5c8c
p1
I1
sVcz8t5ef
p2
I1
s.(dp0
Vcyi5c8c
p1
I1
sVcz9vijx
p2
I1
s.(dp0
Vczamdmg
p1
I1
sVcyi5c8c
p2
I1
s.(dp0
Vczaslfp
p1
I1
sVcyi5c8c
p2
I1
s.(dp0
Vczay738
p1
I1
sVcyi5c8c
p2
I1
s.(dp0
Vczay738
p1
I1
sVcyi5c8c
p2
I1
s.(dp0
Vcyi5c8c
p1
I1
sVczcuqkx
p2
I1
s.(dp0
Vcze4h61
p1
I1
sVcyi5c8c
p2
I1
s.(dp0
Vcze4h61
p1
I1
sVcyi5c8c
p2
I1
s.(dp0
Vczeoe8w
p1
I1
sVcyi5c8c
p2
I1
s.(dp0
Vcyi5c8c
p1
I1
sVczfn1mg
p2
I1
s.(dp0
Vcyi5c8c
p1
I1
sVczfxb9p
p2
I1
s.(dp0
Vcyi5c8c
p1
I1
sVczg15q5
p2
I1
s.(dp0
Vczg3r6a
p1
I1
sVcyi5c8c
p2
I1
s.(dp0
Vczgjbir
p1
I1
sVcyi5c8c
p2
I1
s.(dp0
Vcyi5c8c
p1
I1
sVczhd7dn
p2
I1
s.(dp0
Vczhjr18
p1
I1
sVcyi5c8c
p2
I1
s.(dp0
Vcyi5c8c
p1
I1
sVczik46q
p2
I1
s.(dp0
Vczldo17
p1
I1
sVcyi5c8c
p2
I1
s.(dp0
Vcyi5c8c
p1
I1
sVczm0zud
p2
I1
s.(dp0
Vczm11hh
p1
I1
sVcyi5c8c
p2
I1
s.(dp0
Vczm11hh
p1
I1
sVcyi5c8c
p2
I1
s.(dp0
Vczm2u8y
p1
I1
sVcyi5c8c
p2
I1
s.(dp0
Vczm4qxn
p1
I1
sVcyi5c8c
p2
I1
s.(dp0
Vczm9i9d
p1
I1
sVcyi5c8c
p2
I1
s.(dp0
Vczm9i9d
p1
I1
sVcyi5c8c
p2
I1
s.(dp0
Vczm9i9d
p1
I1
sVcyi5c8c
p2
I1
s.(dp0
Vczmasg4
p1
I1
sVcyi5c8c
p2
I1
s.(dp0
Vczomu78
p1
I1
sVcyi5c8c
p2
I1
s.(dp0
Vcyi5c8c
p1
I1
sVczpfkfn
p2
I1
s.(dp0
Vcyi5c8c
p1
I1
sVczqk9zf
p2
I1
s.(dp0
Vczr12h5
p1
I1
sVcyi5c8c
p2
I1
s.(dp0
Vczt05a6
p1
I1
sVcyi5c8c
p2
I1
s.(dp0
Vcyi5c8c
p1
I1
sVczuqy1x
p2
I1
s.(dp0
Vcyi5c8c
p1
I1
sVczv9cbt
p2
I1
s.(dp0
Vczvonc4
p1
I1
sVcyi5c8c
p2
I1
s.(dp0
Vcyi5c8c
p1
I1
sVczx27qf
p2
I1
s.(dp0
Vczxnrzp
p1
I1
sVcyi5c8c
p2
I1
s.(dp0
Vczxnrzp
p1
I1
sVcyi5c8c
p2
I1
s.(dp0
Vcyi5c8c
p1
I1
sVczyq58l
p2
I1
s.(dp0
Vczyyq3z
p1
I1
sVcyi5c8c
p2
I1
s.(dp0
Vczyyq3z
p1
I1
sVcyi5c8c
p2
I1
s.(dp0
Vczyyq3z
p1
I1
sVcyi5c8c
p2
I1
s.(dp0
Vcyi5c8c
p1
I1
sVd01i4r0
p2
I1
s.(dp0
Vd020l42
p1
I1
sVcyi5c8c
p2
I1
s.(dp0
Vd029fqq
p1
I1
sVcyi5c8c
p2
I1
s.(dp0
Vd0423e0
p1
I1
sVcyi5c8c
p2
I1
s.(dp0
Vcyi5c8c
p1
I1
sVd04laml
p2
I1
s.(dp0
Vd060zrc
p1
I1
sVcyi5c8c
p2
I1
s.(dp0
Vd060zrc
p1
I1
sVcyi5c8c
p2
I1
s.(dp0
Vcyi5c8c
p1
I1
sVd077cm3
p2
I1
s.(dp0
Vd09hpc2
p1
I1
sVcyi5c8c
p2
I1
s.(dp0
Vd09l0u5
p1
I1
sVcyi5c8c
p2
I1
s.(dp0
Vcyi5c8c
p1
I1
sVd09p0ah
p2
I1
s.(dp0
Vcyi5c8c
p1
I1
sVd0ai88s
p2
I1
s.(dp0
Vcyi5c8c
p1
I1
sVd0buhs6
p2
I1
s.(dp0
Vcyi5c8c
p1
I1
sVd0co4e9
p2
I1
s.(dp0
Vd0d2kan
p1
I1
sVcyi5c8c
p2
I1
s.(dp0
Vd0f4rja
p1
I1
sVcyi5c8c
p2
I1
s.(dp0
Vcyi5c8c
p1
I1
sVd0fcdmf
p2
I1
s.(dp0
Vcyi5c8c
p1
I1
sVd0fcdmf
p2
I1
s.(dp0
Vd0fjksy
p1
I1
sVcyi5c8c
p2
I1
s.(dp0
Vd0ie9lu
p1
I1
sVcyi5c8c
p2
I1
s.(dp0
Vd0jbpi7
p1
I1
sVcyi5c8c
p2
I1
s.(dp0
Vcy(dp0
Vdkv9067
p1
I1
sVcyi5c8c
p2
I1
s.