(dp0
Vcyi4uh1
p1
I1
s.(dp0
Vcykc5dc
p1
I1
sVcyi4uh1
p2
I1
s.(dp0
Vcykezeo
p1
I1
sVcyi4uh1
p2
I1
s.(dp0
Vcyl2aks
p1
I1
sVcyi4uh1
p2
I1
s.(dp0
Vcymq8nk
p1
I1
sVcyi4uh1
p2
I1
s.(dp0
Vcyp0muo
p1
I1
sVcyi4uh1
p2
I1
s.(dp0
Vcyp3f90
p1
I1
sVcyi4uh1
p2
I1
s.(dp0
Vcyq1hzc
p1
I1
sVcyi4uh1
p2
I1
s.(dp0
Vcyqavii
p1
I1
sVcyi4uh1
p2
I1
s.(dp0
Vcyqavii
p1
I1
sVcyi4uh1
p2
I1
s.(dp0
Vcyqavii
p1
I1
sVcyi4uh1
p2
I1
s.(dp0
Vcyqavii
p1
I1
sVcyi4uh1
p2
I1
s.(dp0
Vcyqavii
p1
I1
sVcyi4uh1
p2
I1
s.(dp0
Vcyqfjpd
p1
I1
sVcyi4uh1
p2
I1
s.(dp0
Vcyrk19r
p1
I1
sVcyi4uh1
p2
I1
s.(dp0
Vcyszhvl
p1
I1
sVcyi4uh1
p2
I1
s.(dp0
Vcyi4uh1
p1
I1
sVcyufd2e
p2
I1
s.(dp0
Vcyut0nx
p1
I1
sVcyi4uh1
p2
I1
s.(dp0
Vcyvc5lw
p1
I1
sVcyi4uh1
p2
I1
s.(dp0
Vcyvc5lw
p1
I1
sVcyi4uh1
p2
I1
s.(dp0
Vcyx96hv
p1
I1
sVcyi4uh1
p2
I1
s.(dp0
Vcyxkurd
p1
I1
sVcyi4uh1
p2
I1
s.(dp0
Vcyxkurd
p1
I1
sVcyi4uh1
p2
I1
s.(dp0
Vcyzqlst
p1
I1
sVcyi4uh1
p2
I1
s.(dp0
Vcz2aky2
p1
I1
sVcyi4uh1
p2
I1
s.(dp0
Vcz4irp6
p1
I1
sVcyi4uh1
p2
I1
s.(dp0
Vcz4irp6
p1
I1
sVcyi4uh1
p2
I1
s.(dp0
Vcz4t8ts
p1
I1
sVcyi4uh1
p2
I1
s.(dp0
Vcz5zo8r
p1
I1
sVcyi4uh1
p2
I1
s.(dp0
Vcz6u7m5
p1
I1
sVcyi4uh1
p2
I1
s.(dp0
Vcz74kru
p1
I1
sVcyi4uh1
p2
I1
s.(dp0
Vcz7dw0t
p1
I1
sVcyi4uh1
p2
I1
s.(dp0
Vcz7dw0t
p1
I1
sVcyi4uh1
p2
I1
s.(dp0
Vcz7gy63
p1
I1
sVcyi4uh1
p2
I1
s.(dp0
Vczap6fh
p1
I1
sVcyi4uh1
p2
I1
s.(dp0
Vcyi4uh1
p1
I1
sVczazjgi
p2
I1
s.(dp0
Vcyi4uh1
p1
I1
sVczbjbih
p2
I1
s.(dp0
Vczblx5r
p1
I1
sVcyi4uh1
p2
I1
s.(dp0
Vczcbiey
p1
I1
sVcyi4uh1
p2
I1
s.(dp0
Vczcbiey
p1
I1
sVcyi4uh1
p2
I1
s.(dp0
Vczcbiey
p1
I1
sVcyi4uh1
p2
I1
s.(dp0
Vczd2aof
p1
I1
sVcyi4uh1
p2
I1
s.(dp0
Vczd2aof
p1
I1
sVcyi4uh1
p2
I1
s.(dp0
Vczd2vwa
p1
I1
sVcyi4uh1
p2
I1
s.(dp0
Vczez7s1
p1
I1
sVcyi4uh1
p2
I1
s.(dp0
Vczhmcmi
p1
I1
sVcyi4uh1
p2
I1
s.(dp0
Vcyi4uh1
p1
I1
sVczi6qy8
p2
I1
s.(dp0
Vczizez6
p1
I1
sVcyi4uh1
p2
I1
s.(dp0
Vczj13iw
p1
I1
sVcyi4uh1
p2
I1
s.(dp0
Vczl4c5h
p1
I1
sVcyi4uh1
p2
I1
s.(dp0
Vczney3u
p1
I1
sVcyi4uh1
p2
I1
s.(dp0
Vczo0mt0
p1
I1
sVcyi4uh1
p2
I1
s.(dp0
Vczo0mt0
p1
I1
sVcyi4uh1
p2
I1
s.(dp0
Vcyi4uh1
p1
I1
sVczp9nph
p2
I1
s.(dp0
Vcyi4uh1
p1
I1
sVczt75ct
p2
I1
s.(dp0
Vczte19g
p1
I1
sVcyi4uh1
p2
I1
s.(dp0
Vczte2zn
p1
I1
sVcyi4uh1
p2
I1
s.(dp0
Vcyi4uh1
p1
I1
sVcztosry
p2
I1
s.(dp0
Vcztoup2
p1
I1
sVcyi4uh1
p2
I1
s.(dp0
Vcztoup2
p1
I1
sVcyi4uh1
p2
I1
s.(dp0
Vcztoup2
p1
I1
sVcyi4uh1
p2
I1
s.(dp0
Vcztoup2
p1
I1
sVcyi4uh1
p2
I1
s.(dp0
Vczu9lvb
p1
I1
sVcyi4uh1
p2
I1
s.(dp0
Vczvqjc6
p1
I1
sVcyi4uh1
p2
I1
s.(dp0
Vczvqjc6
p1
I1
sVcyi4uh1
p2
I1
s.(dp0
Vczvqkzq
p1
I1
sVcyi4uh1
p2
I1
s.(dp0
Vczx09be
p1
I1
sVcyi4uh1
p2
I1
s.(dp0
Vczx09be
p1
I1
sVcyi4uh1
p2
I1
s.(dp0
Vcyi4uh1
p1
I1
sVd01i4r0
p2
I1
s.(dp0
Vd02zn1x
p1
I1
sVcyi4uh1
p2
I1
s.(dp0
Vd03jvk5
p1
I1
sVcyi4uh1
p2
I1
s.(dp0
Vd03jvk5
p1
I1
sVcyi4uh1
p2
I1
s.(dp0
Vd046vsd
p1
I1
sVcyi4uh1
p2
I1
s.(dp0
Vd04or9q
p1
I1
sVcyi4uh1
p2
I1
s.(dp0
Vd06b0hk
p1
I1
sVcyi4uh1
p2
I1
s.(dp0
Vd06b0hk
p1
I1
sVcyi4uh1
p2
I1
s.(dp0
Vd07opq6
p1
I1
sVcyi4uh1
p2
I1
s.(dp0
Vd07opq6
p1
I1
sVcyi4uh1
p2
I1
s.(dp0
Vd09bb25
p1
I1
sVcyi4uh1
p2
I1
s.(dp0
Vd09m4qf
p1
I1
sVcyi4uh1
p2
I1
s.(dp0
Vd0fmcyp
p1
I1
sVcyi4uh1
p2
I1
s.(dp0
Vcyi4uh1
p1
I1
sVd0imbzr
p2
I1
s.(dp0
Vd0imoaa
p1
I1
sVcyi4uh1
p2
I1
s.(dp0
Vcyi4uh1
p1
I1
sVd0kgv9k
p2
I1
s.(dp0
Vd0kxuvg
p1
I1
sVcyi4uh1
p2
I1
s.(dp0
Vd0l7eb7
p1
I1
sVcyi4uh1
p2
I1
s.(dp0
Vd0m8hah
p1
I1
sVcyi4uh1
p2
I1
s.(dp0
Vcyi4uh1
p1
I1
sVd0ndyyt
p2
I1
s.(dp0
Vd0pl0og
p1
I1
sVcyi4uh1
p2
I1
s.(dp0
Vd0pq5ju
p1
I1
sVcyi4uh1
p2
I1
s.(dp0
Vd0qcdl9
p1
I1
sVcyi4uh1
p2
I1
s.(dp0
Vd0tpp40
p1
I1
sVcyi4uh1
p2
I1
s.(dp0
Vd0vvs1k
p1
I1
sVcyi4uh1
p2
I1
s.(dp0
Vd0xyqej
p1
I1
sVcyi4uh1
p2
I1
s.(dp0
Vd0xyqej
p1
I1
sVcyi4uh1
p2
I1
s.(dp0
Vd0xyqej
p1
I1
sVcyi4uh1
p2
I1
s.(dp0
Vd0y0ide
p1
I1
sVcyi4uh1
p2
I1
s.(dp0
Vd0y0ide
p1
I1
sVcyi4uh1
p2
I1
s.(dp0
Vd0y0ide
p1
I1
sVcyi4uh1
p2
I1
s.(dp0
Vd0ydn2l
p1
I1
sVcyi4uh1
p2
I1
s.(dp0
Vd108b9l
p1
I1
sVcyi4uh1
p2
I1
s.(dp0
Vd11l6qm
p1
I1
sVcyi4uh1
p2
I1
s.(dp0
Vd11pirk
p1
I1
sVcyi4uh1
p2
I1
s.(dp0
Vd159pgz
p1
I1
sVcyi4uh1
p2
I1
s.(dp0
Vd15dwby
p1
I1
sVcyi4uh1
p2
I1
s.(dp0
Vd19cikq
p1
I1
sVcyi4uh1
p2
I1
s.(dp0
Vd19sgxb
p1
I1
sVcyi4uh1
p2
I1
s.(dp0
Vd1atcup
p1
I1
sVcyi4uh1
p2
I1
s.(dp0
Vd1(dp0
Vdkwisv3
p1
I1
sVcyi4uh1
p2
I1
s.