(dp0
Vcyhuklk
p1
I1
s.(dp0
Vcyhuklk
p1
I1
sVcyhx7k2
p2
I1
s.(dp0
Vcyhuklk
p1
I1
sVcyi90ah
p2
I1
s.(dp0
Vcyia8vr
p1
I1
sVcyhuklk
p2
I1
s.(dp0
Vcykexcz
p1
I1
sVcyhuklk
p2
I1
s.(dp0
Vcyhuklk
p1
I1
sVcykfed4
p2
I1
s.(dp0
Vcyhuklk
p1
I1
sVcykhdit
p2
I1
s.(dp0
Vcyhuklk
p1
I1
sVcymhphm
p2
I1
s.(dp0
Vcyhuklk
p1
I1
sVcymulbf
p2
I1
s.(dp0
Vcyhuklk
p1
I1
sVcymulbf
p2
I1
s.(dp0
Vcyhuklk
p1
I1
sVcymxnkd
p2
I1
s.(dp0
Vcymzyiw
p1
I1
sVcyhuklk
p2
I1
s.(dp0
Vcyhuklk
p1
I1
sVcyozj3x
p2
I1
s.(dp0
Vcyp0fuq
p1
I1
sVcyhuklk
p2
I1
s.(dp0
Vcyp1oc2
p1
I1
sVcyhuklk
p2
I1
s.(dp0
Vcyhuklk
p1
I1
sVcyp1vjg
p2
I1
s.(dp0
Vcyhuklk
p1
I1
sVcyp1vjg
p2
I1
s.(dp0
Vcypainf
p1
I1
sVcyhuklk
p2
I1
s.(dp0
Vcyhuklk
p1
I1
sVcyqdzp5
p2
I1
s.(dp0
Vcyqssmz
p1
I1
sVcyhuklk
p2
I1
s.(dp0
Vcyr29yy
p1
I1
sVcyhuklk
p2
I1
s.(dp0
Vcyrg7f5
p1
I1
sVcyhuklk
p2
I1
s.(dp0
Vcyrg912
p1
I1
sVcyhuklk
p2
I1
s.(dp0
Vcyhuklk
p1
I1
sVcyrvakq
p2
I1
s.(dp0
Vcyhuklk
p1
I1
sVcysdvtd
p2
I1
s.(dp0
Vcyse4t9
p1
I1
sVcyhuklk
p2
I1
s.(dp0
Vcysm0kc
p1
I1
sVcyhuklk
p2
I1
s.(dp0
Vcysm6ya
p1
I1
sVcyhuklk
p2
I1
s.(dp0
Vcysnnku
p1
I1
sVcyhuklk
p2
I1
s.(dp0
Vcysq8mi
p1
I1
sVcyhuklk
p2
I1
s.(dp0
Vcyt0fiq
p1
I1
sVcyhuklk
p2
I1
s.(dp0
Vcytpkuf
p1
I1
sVcyhuklk
p2
I1
s.(dp0
Vcytvosf
p1
I1
sVcyhuklk
p2
I1
s.(dp0
Vcyhuklk
p1
I1
sVcyu0d8c
p2
I1
s.(dp0
Vcyhuklk
p1
I1
sVcyujj27
p2
I1
s.(dp0
Vcyhuklk
p1
I1
sVcyuvxpc
p2
I1
s.(dp0
Vcyhuklk
p1
I1
sVcyuvxpc
p2
I1
s.(dp0
Vcyhuklk
p1
I1
sVcyvs03t
p2
I1
s.(dp0
Vcyhuklk
p1
I1
sVcyw9jge
p2
I1
s.(dp0
Vcyws54w
p1
I1
sVcyhuklk
p2
I1
s.(dp0
Vcywyu7g
p1
I1
sVcyhuklk
p2
I1
s.(dp0
Vcyxe5z3
p1
I1
sVcyhuklk
p2
I1
s.(dp0
Vcyxecr4
p1
I1
sVcyhuklk
p2
I1
s.(dp0
Vcyxp0j8
p1
I1
sVcyhuklk
p2
I1
s.(dp0
Vcyy5llf
p1
I1
sVcyhuklk
p2
I1
s.(dp0
Vcyyffnc
p1
I1
sVcyhuklk
p2
I1
s.(dp0
Vcyzcd2b
p1
I1
sVcyhuklk
p2
I1
s.(dp0
Vcyhuklk
p1
I1
sVcyzq50r
p2
I1
s.(dp0
Vcyzqacy
p1
I1
sVcyhuklk
p2
I1
s.(dp0
Vcyzqacy
p1
I1
sVcyhuklk
p2
I1
s.(dp0
Vcyzqacy
p1
I1
sVcyhuklk
p2
I1
s.(dp0
Vcyzqacy
p1
I1
sVcyhuklk
p2
I1
s.(dp0
Vcyzqacy
p1
I1
sVcyhuklk
p2
I1
s.(dp0
Vcyzu3gu
p1
I1
sVcyhuklk
p2
I1
s.(dp0
Vcyzu3gu
p1
I1
sVcyhuklk
p2
I1
s.(dp0
Vcyzvq8m
p1
I1
sVcyhuklk
p2
I1
s.(dp0
Vcz0lv2v
p1
I1
sVcyhuklk
p2
I1
s.(dp0
Vcyhuklk
p1
I1
sVcz0mnrs
p2
I1
s.(dp0
Vcyhuklk
p1
I1
sVcz2r2mu
p2
I1
s.(dp0
Vcyhuklk
p1
I1
sVcz3auqb
p2
I1
s.(dp0
Vcz3i28b
p1
I1
sVcyhuklk
p2
I1
s.(dp0
Vcz3negl
p1
I1
sVcyhuklk
p2
I1
s.(dp0
Vcz3yl2g
p1
I1
sVcyhuklk
p2
I1
s.(dp0
Vcz40iaz
p1
I1
sVcyhuklk
p2
I1
s.(dp0
Vcyhuklk
p1
I1
sVcz4qak7
p2
I1
s.(dp0
Vcyhuklk
p1
I1
sVcz4rqgf
p2
I1
s.(dp0
Vcyhuklk
p1
I1
sVcz4yrk9
p2
I1
s.(dp0
Vcyhuklk
p1
I1
sVcz5geiw
p2
I1
s.(dp0
Vcz5yqzc
p1
I1
sVcyhuklk
p2
I1
s.(dp0
Vcz6402l
p1
I1
sVcyhuklk
p2
I1
s.(dp0
Vcz689fp
p1
I1
sVcyhuklk
p2
I1
s.(dp0
Vcyhuklk
p1
I1
sVcz6hdz8
p2
I1
s.(dp0
Vcz6hok4
p1
I1
sVcyhuklk
p2
I1
s.(dp0
Vcz6hok4
p1
I1
sVcyhuklk
p2
I1
s.(dp0
Vcz6idb8
p1
I1
sVcyhuklk
p2
I1
s.(dp0
Vcz6idb8
p1
I1
sVcyhuklk
p2
I1
s.(dp0
Vcz6idb8
p1
I1
sVcyhuklk
p2
I1
s.(dp0
Vcz6oq10
p1
I1
sVcyhuklk
p2
I1
s.(dp0
Vcz6oq10
p1
I1
sVcyhuklk
p2
I1
s.(dp0
Vcz7daes
p1
I1
sVcyhuklk
p2
I1
s.(dp0
Vcz7ipgk
p1
I1
sVcyhuklk
p2
I1
s.(dp0
Vcyhuklk
p1
I1
sVcz7s95s
p2
I1
s.(dp0
Vcz83aob
p1
I1
sVcyhuklk
p2
I1
s.(dp0
Vcz8jtoi
p1
I1
sVcyhuklk
p2
I1
s.(dp0
Vcz8pupz
p1
I1
sVcyhuklk
p2
I1
s.(dp0
Vcz8pupz
p1
I1
sVcyhuklk
p2
I1
s.(dp0
Vcz9ed3b
p1
I1
sVcyhuklk
p2
I1
s.(dp0
Vcyhuklk
p1
I1
sVcz9no0e
p2
I1
s.(dp0
Vcyhuklk
p1
I1
sVcza3qe6
p2
I1
s.(dp0
Vcyhuklk
p1
I1
sVczav57f
p2
I1
s.(dp0
Vczayj0f
p1
I1
sVcyhuklk
p2
I1
s.(dp0
Vcyhuklk
p1
I1
sVczb3vjv
p2
I1
s.(dp0
Vcyhuklk
p1
I1
sVczbna1g
p2
I1
s.(dp0
Vczbtttb
p1
I1
sVcyhuklk
p2
I1
s.(dp0
Vczc638u
p1
I1
sVcyhuklk
p2
I1
s.(dp0
Vcyhuklk
p1
I1
sVczcc58r
p2
I1
s.(dp0
Vczctj9x
p1
I1
sVcyhuklk
p2
I1
s.(dp0
Vczd11gi
p1
I1
sVcyhuklk
p2
I1
s.(dp0
Vcyhuklk
p1
I1
sVczdwpcc
p2
I1
s.(dp0
Vcyhuklk
p1
I1
sVcze20eq
p2
I1
s.(dp0
Vcyhuklk
p1
I1
sVczfhbe6
p2
I1
s.(dp0
Vczfkzho
p1
I1
sVcyhuklk
p2
I1
s.(dp0
Vczfkzho
p1
I1
sVcyhuklk
p2
I1
s.(dp0
Vcyhuklk
p1
I1
sVczftqa5
p2
I1
s.(dp0
Vcyhuklk
p1
I1
sVczfxb9p
p2
I1
s.(dp0
Vcyhuklk
p1
I1
sVczfxb9p
p2
I1
s.(dp0
Vczg65w2
p1
I1
sVcyhuklk
p2
I1
s.(dp0
Vcyhuklk
p1
I1
sVczgs71v
p2
I1
s.(dp0
Vcy(dp0
Vdkz6wwq
p1
I1
sVcyhuklk
p2
I1
s.