(dp0
Vcyvvcr1
p1
I1
s.(dp0
Vcyvvcr1
p1
I1
sVd081lzk
p2
I1
s.(dp0
Vd23t0bq
p1
I1
sVcyvvcr1
p2
I1
s.(dp0
Vd2wnk8e
p1
I1
sVcyvvcr1
p2
I1
s.(dp0
Vd703oo9
p1
I1
sVcyvvcr1
p2
I1
s.(dp0
Vcyvvcr1
p1
I1
sVd9zb9yp
p2
I1
s.(dp0
Vdcysdik
p1
I1
sVcyvvcr1
p2
I1
s.(dp0
Vcyvvcr1
p1
I1
sVdhepzvo
p2
I1
s.