(dp0
Vcyicce8
p1
I1
s.(dp0
Vcyicce8
p1
I1
sVcyr028t
p2
I1
s.(dp0
Vcz6tuku
p1
I1
sVcyicce8
p2
I1
s.(dp0
Vczpnlcp
p1
I1
sVcyicce8
p2
I1
s.(dp0
Vcyicce8
p1
I1
sVd22vp51
p2
I1
s.(dp0
Vd32dc7p
p1
I1
sVcyicce8
p2
I1
s.(dp0
Vcyicce8
p1
I1
sVd7m1sfm
p2
I1
s.(dp0
Vcyicce8
p1
I1
sVdb7loyp
p2
I1
s.(dp0
Vcyicce8
p1
I1
sVdb7loyp
p2
I1
s.(dp0
Vcyicce8
p1
I1
sVdb8pby2
p2
I1
s.(dp0
Vdco7jjv
p1
I1
sVcyicce8
p2
I1
s.(dp0
Vcyicce8
p1
I1
sVdgz288h
p2
I1
s.(dp0
Vcyicce8
p1
I1
sVdgz288h
p2
I1
s.(dp0
Vcyicce8
p1
I1
sVdi2j544
p2
I1
s.(dp0
Vcyicce8
p1
I1
sVdi2j544
p2
I1
s.(dp0
Vdi2jokg
p1
I1
sVcyicce8
p2
I1
s.(dp0
Vdi2jokg
p1
I1
sVcyicce8
p2
I1
s.(dp0
Vcyicce8
p1
I1
sVdjnjqjc
p2
I1
s.(dp0
Vdmn75we
p1
I1
sVcyicce8
p2
I1
s.