(dp0
Vcyhvog3
p1
I1
s.(dp0
Vcyhvog3
p1
I1
sVcyidh07
p2
I1
s.(dp0
Vcyhvog3
p1
I1
sVcyidh07
p2
I1
s.(dp0
Vcypke92
p1
I1
sVcyhvog3
p2
I1
s.(dp0
Vcypke92
p1
I1
sVcyhvog3
p2
I1
s.(dp0
Vcyhvog3
p1
I1
sVcyq1ffs
p2
I1
s.(dp0
Vcyv2ani
p1
I1
sVcyhvog3
p2
I1
s.(dp0
Vcz56kqe
p1
I1
sVcyhvog3
p2
I1
s.(dp0
Vczot2ox
p1
I1
sVcyhvog3
p2
I1
s.(dp0
Vczot2ox
p1
I1
sVcyhvog3
p2
I1
s.(dp0
Vcyhvog3
p1
I1
sVczotksa
p2
I1
s.(dp0
Vd0588yb
p1
I1
sVcyhvog3
p2
I1
s.(dp0
Vcyhvog3
p1
I1
sVd058g55
p2
I1
s.(dp0
Vcyhvog3
p1
I1
sVd059ltt
p2
I1
s.(dp0
Vd06q1xg
p1
I1
sVcyhvog3
p2
I1
s.(dp0
Vd0i0u1l
p1
I1
sVcyhvog3
p2
I1
s.(dp0
Vd0mztqr
p1
I1
sVcyhvog3
p2
I1
s.(dp0
Vcyhvog3
p1
I1
sVd16xdp4
p2
I1
s.(dp0
Vcyhvog3
p1
I1
sVd1o54xi
p2
I1
s.(dp0
Vcyhvog3
p1
I1
sVd2rv1cf
p2
I1
s.(dp0
Vcyhvog3
p1
I1
sVd2rv1cf
p2
I1
s.(dp0
Vcyhvog3
p1
I1
sVd2rv1cf
p2
I1
s.(dp0
Vcyhvog3
p1
I1
sVd2rv1cf
p2
I1
s.(dp0
Vd2sah9v
p1
I1
sVcyhvog3
p2
I1
s.(dp0
Vd2sah9v
p1
I1
sVcyhvog3
p2
I1
s.(dp0
Vd4l0ara
p1
I1
sVcyhvog3
p2
I1
s.(dp0
Vd4miida
p1
I1
sVcyhvog3
p2
I1
s.(dp0
Vdcdwlga
p1
I1
sVcyhvog3
p2
I1
s.(dp0
Vdcdwlwi
p1
I1
sVcyhvog3
p2
I1
s.(dp0
Vdcdwo2j
p1
I1
sVcyhvog3
p2
I1
s.(dp0
Vdce5egg
p1
I1
sVcyhvog3
p2
I1
s.(dp0
Vcyhvog3
p1
I1
sVdce7km7
p2
I1
s.(dp0
Vcyhvog3
p1
I1
sVdcfvu63
p2
I1
s.(dp0
Vdcvadfr
p1
I1
sVcyhvog3
p2
I1
s.(dp0
Vdd30dag
p1
I1
sVcyhvog3
p2
I1
s.(dp0
Vddu47wx
p1
I1
sVcyhvog3
p2
I1
s.(dp0
Vcyhvog3
p1
I1
sVde7bqb9
p2
I1
s.(dp0
Vdenn8nq
p1
I1
sVcyhvog3
p2
I1
s.(dp0
Vcyhvog3
p1
I1
sVdghqgy7
p2
I1
s.(dp0
Vcyhvog3
p1
I1
sVdghqhj0
p2
I1
s.(dp0
Vcyhvog3
p1
I1
sVdghqmk4
p2
I1
s.(dp0
Vcyhvog3
p1
I1
sVdghu1t7
p2
I1
s.(dp0
Vcyhvog3
p1
I1
sVdgi8ytl
p2
I1
s.(dp0
Vdhjiekz
p1
I1
sVcyhvog3
p2
I1
s.(dp0
Vdirixip
p1
I1
sVcyhvog3
p2
I1
s.(dp0
Vdjcrw30
p1
I1
sVcyhvog3
p2
I1
s.(dp0
Vdjcrw30
p1
I1
sVcyhvog3
p2
I1
s.(dp0
Vdjrs0k3
p1
I1
sVcyhvog3
p2
I1
s.(dp0
Vdo4kq80
p1
I1
sVcyhvog3
p2
I1
s.(dp0
Vdo4kq80
p1
I1
sVcyhvog3
p2
I1
s.(dp0
Vdoud9zo
p1
I1
sVcyhvog3
p2
I1
s.(dp0
Vdoud9zo
p1
I1
sVcyhvog3
p2
I1
s.