(dp0
Vcyxdv50
p1
I1
s.(dp0
Vczyxszu
p1
I1
sVcyxdv50
p2
I1
s.(dp0
Vd06pse6
p1
I1
sVcyxdv50
p2
I1
s.(dp0
Vd07yj47
p1
I1
sVcyxdv50
p2
I1
s.(dp0
Vcyxdv50
p1
I1
sVd0co4e9
p2
I1
s.(dp0
Vd0qwcde
p1
I1
sVcyxdv50
p2
I1
s.(dp0
Vcyxdv50
p1
I1
sVd16jumm
p2
I1
s.(dp0
Vcyxdv50
p1
I1
sVd16jumm
p2
I1
s.(dp0
Vd1zs2al
p1
I1
sVcyxdv50
p2
I1
s.(dp0
Vd34wvl3
p1
I1
sVcyxdv50
p2
I1
s.(dp0
Vd4kvqoe
p1
I1
sVcyxdv50
p2
I1
s.(dp0
Vd59jryh
p1
I1
sVcyxdv50
p2
I1
s.(dp0
Vd5lf76k
p1
I1
sVcyxdv50
p2
I1
s.(dp0
Vd876k5y
p1
I1
sVcyxdv50
p2
I1
s.(dp0
Vd886vow
p1
I1
sVcyxdv50
p2
I1
s.(dp0
Vcyxdv50
p1
I1
sVd8m62yj
p2
I1
s.(dp0
Vd95ssfz
p1
I1
sVcyxdv50
p2
I1
s.(dp0
Vcyxdv50
p1
I1
sVdau1b3b
p2
I1
s.(dp0
Vdehm85i
p1
I1
sVcyxdv50
p2
I1
s.(dp0
Vdgb1ric
p1
I1
sVcyxdv50
p2
I1
s.(dp0
Vcyxdv50
p1
I1
sVdkqu3sq
p2
I1
s.(dp0
Vdo5uwv3
p1
I1
sVcyxdv50
p2
I1
s.