(dp0
Vcyjnvpt
p1
I1
s.(dp0
Vcyr5i3g
p1
I1
sVcyjnvpt
p2
I1
s.(dp0
Vcz0i92i
p1
I1
sVcyjnvpt
p2
I1
s.(dp0
Vcz1t6j8
p1
I1
sVcyjnvpt
p2
I1
s.(dp0
Vczd2vwa
p1
I1
sVcyjnvpt
p2
I1
s.(dp0
Vcyjnvpt
p1
I1
sVczdr371
p2
I1
s.(dp0
Vcyjnvpt
p1
I1
sVd0betpi
p2
I1
s.(dp0
Vd0c3c1h
p1
I1
sVcyjnvpt
p2
I1
s.(dp0
Vd0lvsp2
p1
I1
sVcyjnvpt
p2
I1
s.(dp0
Vd1kxyvv
p1
I1
sVcyjnvpt
p2
I1
s.(dp0
Vd264h51
p1
I1
sVcyjnvpt
p2
I1
s.(dp0
Vd30zkar
p1
I1
sVcyjnvpt
p2
I1
s.(dp0
Vd39q8rp
p1
I1
sVcyjnvpt
p2
I1
s.(dp0
Vd3fbzo1
p1
I1
sVcyjnvpt
p2
I1
s.(dp0
Vd3h1cs4
p1
I1
sVcyjnvpt
p2
I1
s.(dp0
Vd3k8u44
p1
I1
sVcyjnvpt
p2
I1
s.(dp0
Vcyjnvpt
p1
I1
sVd3p0sw6
p2
I1
s.(dp0
Vd3v62oy
p1
I1
sVcyjnvpt
p2
I1
s.(dp0
Vcyjnvpt
p1
I1
sVd3x26vg
p2
I1
s.(dp0
Vd3x3j8x
p1
I1
sVcyjnvpt
p2
I1
s.(dp0
Vd407k8z
p1
I1
sVcyjnvpt
p2
I1
s.(dp0
Vd46hrut
p1
I1
sVcyjnvpt
p2
I1
s.(dp0
Vcyjnvpt
p1
I1
sVd4apjso
p2
I1
s.(dp0
Vd4ctb5c
p1
I1
sVcyjnvpt
p2
I1
s.(dp0
Vcyjnvpt
p1
I1
sVd5mh0a8
p2
I1
s.(dp0
Vd5mkrbw
p1
I1
sVcyjnvpt
p2
I1
s.(dp0
Vcyjnvpt
p1
I1
sVd5o8xnd
p2
I1
s.(dp0
Vcyjnvpt
p1
I1
sVd69ieyf
p2
I1
s.(dp0
Vcyjnvpt
p1
I1
sVd6kfmap
p2
I1
s.(dp0
Vcyjnvpt
p1
I1
sVd6kfmap
p2
I1
s.(dp0
Vd7svesp
p1
I1
sVcyjnvpt
p2
I1
s.(dp0
Vd81vyb1
p1
I1
sVcyjnvpt
p2
I1
s.(dp0
Vd8bywjk
p1
I1
sVcyjnvpt
p2
I1
s.(dp0
Vd8izpgb
p1
I1
sVcyjnvpt
p2
I1
s.(dp0
Vcyjnvpt
p1
I1
sVd8lll24
p2
I1
s.(dp0
Vcyjnvpt
p1
I1
sVd8pery7
p2
I1
s.(dp0
Vd8zpwdq
p1
I1
sVcyjnvpt
p2
I1
s.(dp0
Vd96vtu2
p1
I1
sVcyjnvpt
p2
I1
s.(dp0
Vcyjnvpt
p1
I1
sVd9awxny
p2
I1
s.(dp0
Vd9cr7du
p1
I1
sVcyjnvpt
p2
I1
s.(dp0
Vd9dqctr
p1
I1
sVcyjnvpt
p2
I1
s.(dp0
Vd9fh0ow
p1
I1
sVcyjnvpt
p2
I1
s.(dp0
Vd9g8iz5
p1
I1
sVcyjnvpt
p2
I1
s.(dp0
Vd9l3zhy
p1
I1
sVcyjnvpt
p2
I1
s.(dp0
Vd9r61f5
p1
I1
sVcyjnvpt
p2
I1
s.(dp0
Vd9zhghq
p1
I1
sVcyjnvpt
p2
I1
s.(dp0
Vcyjnvpt
p1
I1
sVda3ta7f
p2
I1
s.(dp0
Vcyjnvpt
p1
I1
sVda7vbvj
p2
I1
s.(dp0
Vda9zucx
p1
I1
sVcyjnvpt
p2
I1
s.(dp0
Vdaibk3m
p1
I1
sVcyjnvpt
p2
I1
s.(dp0
Vdaqmfc1
p1
I1
sVcyjnvpt
p2
I1
s.(dp0
Vdar2ip8
p1
I1
sVcyjnvpt
p2
I1
s.(dp0
Vdays61t
p1
I1
sVcyjnvpt
p2
I1
s.(dp0
Vcyjnvpt
p1
I1
sVdb57ho5
p2
I1
s.(dp0
Vdb8qpg5
p1
I1
sVcyjnvpt
p2
I1
s.(dp0
Vdbc9buv
p1
I1
sVcyjnvpt
p2
I1
s.(dp0
Vcyjnvpt
p1
I1
sVdbe03db
p2
I1
s.(dp0
Vdbe8654
p1
I1
sVcyjnvpt
p2
I1
s.(dp0
Vdblo4jn
p1
I1
sVcyjnvpt
p2
I1
s.(dp0
Vcyjnvpt
p1
I1
sVdbzmi8w
p2
I1
s.(dp0
Vcyjnvpt
p1
I1
sVdc0wd2z
p2
I1
s.(dp0
Vcyjnvpt
p1
I1
sVdc0wd2z
p2
I1
s.(dp0
Vdcbgbgm
p1
I1
sVcyjnvpt
p2
I1
s.(dp0
Vcyjnvpt
p1
I1
sVdcmw7sf
p2
I1
s.(dp0
Vcyjnvpt
p1
I1
sVdct9d3v
p2
I1
s.(dp0
Vcyjnvpt
p1
I1
sVdd1uww8
p2
I1
s.(dp0
Vdd451b8
p1
I1
sVcyjnvpt
p2
I1
s.(dp0
Vcyjnvpt
p1
I1
sVdd4an4u
p2
I1
s.(dp0
Vde2x375
p1
I1
sVcyjnvpt
p2
I1
s.(dp0
Vde6fkvn
p1
I1
sVcyjnvpt
p2
I1
s.(dp0
Vde79k5e
p1
I1
sVcyjnvpt
p2
I1
s.(dp0
Vde8ddr2
p1
I1
sVcyjnvpt
p2
I1
s.(dp0
Vcyjnvpt
p1
I1
sVdeak1vf
p2
I1
s.(dp0
Vdecq9tr
p1
I1
sVcyjnvpt
p2
I1
s.(dp0
Vdecq9tr
p1
I1
sVcyjnvpt
p2
I1
s.(dp0
Vdehmr6k
p1
I1
sVcyjnvpt
p2
I1
s.(dp0
Vdeieoat
p1
I1
sVcyjnvpt
p2
I1
s.(dp0
Vdent965
p1
I1
sVcyjnvpt
p2
I1
s.(dp0
Vdenxgj3
p1
I1
sVcyjnvpt
p2
I1
s.(dp0
Vcyjnvpt
p1
I1
sVdenxgwk
p2
I1
s.(dp0
Vcyjnvpt
p1
I1
sVdes9q1l
p2
I1
s.(dp0
Vdeunaa1
p1
I1
sVcyjnvpt
p2
I1
s.(dp0
Vdeylg2t
p1
I1
sVcyjnvpt
p2
I1
s.(dp0
Vdf6um6u
p1
I1
sVcyjnvpt
p2
I1
s.(dp0
Vcyjnvpt
p1
I1
sVdfe7peh
p2
I1
s.(dp0
Vdfs1o9w
p1
I1
sVcyjnvpt
p2
I1
s.(dp0
Vdft8rw0
p1
I1
sVcyjnvpt
p2
I1
s.(dp0
Vdfxbqb8
p1
I1
sVcyjnvpt
p2
I1
s.(dp0
Vcyjnvpt
p1
I1
sVdg138u8
p2
I1
s.(dp0
Vdg97oe6
p1
I1
sVcyjnvpt
p2
I1
s.(dp0
Vdgy8w5m
p1
I1
sVcyjnvpt
p2
I1
s.(dp0
Vdi1rx9l
p1
I1
sVcyjnvpt
p2
I1
s.(dp0
Vdibq0ov
p1
I1
sVcyjnvpt
p2
I1
s.(dp0
Vcyjnvpt
p1
I1
sVdimktbh
p2
I1
s.(dp0
Vdix4tc1
p1
I1
sVcyjnvpt
p2
I1
s.(dp0
Vdj4d63b
p1
I1
sVcyjnvpt
p2
I1
s.(dp0
Vcyjnvpt
p1
I1
sVdjjy5ci
p2
I1
s.(dp0
Vcyjnvpt
p1
I1
sVdjxnxkx
p2
I1
s.(dp0
Vdkadcyc
p1
I1
sVcyjnvpt
p2
I1
s.(dp0
Vdkcv3q0
p1
I1
sVcyjnvpt
p2
I1
s.(dp0
Vdkr8pn2
p1
I1
sVcyjnvpt
p2
I1
s.(dp0
Vcyjnvpt
p1
I1
sVdkwzw18
p2
I1
s.