(dp0
Vcz60g9p
p1
I1
s.(dp0
Vd12ycac
p1
I1
sVcz60g9p
p2
I1
s.(dp0
Vd3gqhfx
p1
I1
sVcz60g9p
p2
I1
s.(dp0
Vd6ccg4d
p1
I1
sVcz60g9p
p2
I1
s.(dp0
Vcz60g9p
p1
I1
sVdewtybb
p2
I1
s.(dp0
Vdfcwcup
p1
I1
sVcz60g9p
p2
I1
s.(dp0
Vdfnd0fy
p1
I1
sVcz60g9p
p2
I1
s.(dp0
Vcz60g9p
p1
I1
sVdfomn6g
p2
I1
s.(dp0
Vcz60g9p
p1
I1
sVdfyaflv
p2
I1
s.(dp0
Vcz60g9p
p1
I1
sVdgvklow
p2
I1
s.(dp0
Vcz60g9p
p1
I1
sVdjwgtzz
p2
I1
s.(dp0
Vdmooxz6
p1
I1
sVcz60g9p
p2
I1
s.(dp0
Vdnt0q6p
p1
I1
sVcz60g9p
p2
I1
s.