(dp0
Vcyhzvzx
p1
I1
s.(dp0
Vcyhzvzx
p1
I1
sVcyi77l6
p2
I1
s.(dp0
Vcyhzvzx
p1
I1
sVcyio60l
p2
I1
s.(dp0
Vcyhzvzx
p1
I1
sVcyionhd
p2
I1
s.(dp0
Vcyhzvzx
p1
I1
sVcyirlvo
p2
I1
s.(dp0
Vcyhzvzx
p1
I1
sVcyit1kk
p2
I1
s.(dp0
Vcyhzvzx
p1
I1
sVcyj9p9p
p2
I1
s.(dp0
Vcyhzvzx
p1
I1
sVcyj9p9p
p2
I1
s.(dp0
Vcyjf4mt
p1
I1
sVcyhzvzx
p2
I1
s.(dp0
Vcyju54w
p1
I1
sVcyhzvzx
p2
I1
s.(dp0
Vcyhzvzx
p1
I1
sVcyk2bo0
p2
I1
s.(dp0
Vcyhzvzx
p1
I1
sVcyk4vvb
p2
I1
s.(dp0
Vcyhzvzx
p1
I1
sVcyk6dmr
p2
I1
s.(dp0
Vcyhzvzx
p1
I1
sVcyk7r3c
p2
I1
s.(dp0
Vcyhzvzx
p1
I1
sVcykbqsu
p2
I1
s.(dp0
Vcyhzvzx
p1
I1
sVcykdtbg
p2
I1
s.(dp0
Vcyhzvzx
p1
I1
sVcykwkrj
p2
I1
s.(dp0
Vcyhzvzx
p1
I1
sVcykyrkl
p2
I1
s.(dp0
Vcyhzvzx
p1
I1
sVcyl4h88
p2
I1
s.(dp0
Vcyhzvzx
p1
I1
sVcyl5f9d
p2
I1
s.(dp0
Vcyhzvzx
p1
I1
sVcyl65d1
p2
I1
s.(dp0
Vcyhzvzx
p1
I1
sVcylc273
p2
I1
s.(dp0
Vcyhzvzx
p1
I1
sVcylc273
p2
I1
s.(dp0
Vcyledx0
p1
I1
sVcyhzvzx
p2
I1
s.(dp0
Vcyhzvzx
p1
I1
sVcym0yx2
p2
I1
s.(dp0
Vcyhzvzx
p1
I1
sVcym5ksy
p2
I1
s.(dp0
Vcyhzvzx
p1
I1
sVcymckxg
p2
I1
s.(dp0
Vcyhzvzx
p1
I1
sVcymi4qc
p2
I1
s.(dp0
Vcyhzvzx
p1
I1
sVcymih8l
p2
I1
s.(dp0
Vcymjh8h
p1
I1
sVcyhzvzx
p2
I1
s.(dp0
Vcyhzvzx
p1
I1
sVcymjo7s
p2
I1
s.(dp0
Vcyhzvzx
p1
I1
sVcymol71
p2
I1
s.(dp0
Vcyhzvzx
p1
I1
sVcyn1ba6
p2
I1
s.(dp0
Vcyhzvzx
p1
I1
sVcynb1pe
p2
I1
s.(dp0
Vcynva59
p1
I1
sVcyhzvzx
p2
I1
s.(dp0
Vcynva59
p1
I1
sVcyhzvzx
p2
I1
s.(dp0
Vcynva59
p1
I1
sVcyhzvzx
p2
I1
s.(dp0
Vcynva59
p1
I1
sVcyhzvzx
p2
I1
s.(dp0
Vcyhzvzx
p1
I1
sVcynwm27
p2
I1
s.(dp0
Vcyhzvzx
p1
I1
sVcyo20z1
p2
I1
s.(dp0
Vcyhzvzx
p1
I1
sVcyoaona
p2
I1
s.(dp0
Vcyhzvzx
p1
I1
sVcyoaona
p2
I1
s.(dp0
Vcyhzvzx
p1
I1
sVcyoaona
p2
I1
s.(dp0
Vcyhzvzx
p1
I1
sVcyod5v8
p2
I1
s.(dp0
Vcyhzvzx
p1
I1
sVcyod5v8
p2
I1
s.(dp0
Vcyhzvzx
p1
I1
sVcyohuy4
p2
I1
s.(dp0
Vcyhzvzx
p1
I1
sVcyp3f1d
p2
I1
s.(dp0
Vcyp5fqa
p1
I1
sVcyhzvzx
p2
I1
s.(dp0
Vcypd5lj
p1
I1
sVcyhzvzx
p2
I1
s.(dp0
Vcypd5lj
p1
I1
sVcyhzvzx
p2
I1
s.(dp0
Vcyhzvzx
p1
I1
sVcypdpv7
p2
I1
s.(dp0
Vcyhzvzx
p1
I1
sVcypmb1j
p2
I1
s.(dp0
Vcyhzvzx
p1
I1
sVcypr9h4
p2
I1
s.(dp0
Vcyhzvzx
p1
I1
sVcypxu8a
p2
I1
s.(dp0
Vcyhzvzx
p1
I1
sVcyq0meo
p2
I1
s.(dp0
Vcyhzvzx
p1
I1
sVcyqhl5d
p2
I1
s.(dp0
Vcyqhrwm
p1
I1
sVcyhzvzx
p2
I1
s.(dp0
Vcyqhwb7
p1
I1
sVcyhzvzx
p2
I1
s.(dp0
Vcyhzvzx
p1
I1
sVcyqn8w5
p2
I1
s.(dp0
Vcyhzvzx
p1
I1
sVcyqrn3l
p2
I1
s.(dp0
Vcyhzvzx
p1
I1
sVcyr7nqr
p2
I1
s.(dp0
Vcyhzvzx
p1
I1
sVcyr7nqr
p2
I1
s.(dp0
Vcyhzvzx
p1
I1
sVcyrqrjy
p2
I1
s.(dp0
Vcyhzvzx
p1
I1
sVcyrxg06
p2
I1
s.(dp0
Vcyhzvzx
p1
I1
sVcys7tg9
p2
I1
s.(dp0
Vcyhzvzx
p1
I1
sVcysmti5
p2
I1
s.(dp0
Vcyhzvzx
p1
I1
sVcyt59qi
p2
I1
s.(dp0
Vcyhzvzx
p1
I1
sVcyt6xjp
p2
I1
s.(dp0
Vcyhzvzx
p1
I1
sVcyt6xjp
p2
I1
s.(dp0
Vcyta3w6
p1
I1
sVcyhzvzx
p2
I1
s.(dp0
Vcyhzvzx
p1
I1
sVcytg5hy
p2
I1
s.(dp0
Vcyhzvzx
p1
I1
sVcytz2yk
p2
I1
s.(dp0
Vcyhzvzx
p1
I1
sVcytzyv8
p2
I1
s.(dp0
Vcyhzvzx
p1
I1
sVcyuo6qq
p2
I1
s.(dp0
Vcyhzvzx
p1
I1
sVcyuvxpc
p2
I1
s.(dp0
Vcyhzvzx
p1
I1
sVcyvkkcy
p2
I1
s.(dp0
Vcyhzvzx
p1
I1
sVcyvunz0
p2
I1
s.(dp0
Vcyhzvzx
p1
I1
sVcyvyujf
p2
I1
s.(dp0
Vcyhzvzx
p1
I1
sVcyw0szf
p2
I1
s.(dp0
Vcyhzvzx
p1
I1
sVcywa63r
p2
I1
s.(dp0
Vcywoum3
p1
I1
sVcyhzvzx
p2
I1
s.(dp0
Vcyhzvzx
p1
I1
sVcyxjq40
p2
I1
s.(dp0
Vcyhzvzx
p1
I1
sVcyxo3qe
p2
I1
s.(dp0
Vcyxop2x
p1
I1
sVcyhzvzx
p2
I1
s.(dp0
Vcyhzvzx
p1
I1
sVcyxxl1v
p2
I1
s.(dp0
Vcyhzvzx
p1
I1
sVcyy343w
p2
I1
s.(dp0
Vcyhzvzx
p1
I1
sVcyygl96
p2
I1
s.(dp0
Vcyhzvzx
p1
I1
sVcyyzlb8
p2
I1
s.(dp0
Vcyhzvzx
p1
I1
sVcyz215d
p2
I1
s.(dp0
Vcyhzvzx
p1
I1
sVcyzj8cw
p2
I1
s.(dp0
Vcyhzvzx
p1
I1
sVcyzop8i
p2
I1
s.(dp0
Vcyhzvzx
p1
I1
sVcyzs442
p2
I1
s.(dp0
Vcyhzvzx
p1
I1
sVcz02v7q
p2
I1
s.(dp0
Vcz0j2pv
p1
I1
sVcyhzvzx
p2
I1
s.(dp0
Vcz0kbvo
p1
I1
sVcyhzvzx
p2
I1
s.(dp0
Vcyhzvzx
p1
I1
sVcz0mwtd
p2
I1
s.(dp0
Vcyhzvzx
p1
I1
sVcz0oypp
p2
I1
s.(dp0
Vcyhzvzx
p1
I1
sVcz0qfo5
p2
I1
s.(dp0
Vcyhzvzx
p1
I1
sVcz1ew8u
p2
I1
s.(dp0
Vcyhzvzx
p1
I1
sVcz1rnpy
p2
I1
s.(dp0
Vcz1ywb5
p1
I1
sVcyhzvzx
p2
I1
s.(dp0
Vcyhzvzx
p1
I1
sVcz2lq0c
p2
I1
s.(dp0
Vcyhzvzx
p1
I1
sVcz36jv3
p2
I1
s.(dp0
Vcyhzvzx
p1
I1
sVcz3i2ua
p2
I1
s.(dp0
Vcyhzvzx
p1
I1
sVcz3vop7
p2
I1
s.(dp0
Vcyhzvzx
p1
I1
sVcz42mcm
p2
I1
s.(dp0
Vcyhzvzx
p1
I1
sVcz4cqcn
p2
I1
s.(dp0
Vcyhzvzx
p1
I1
sVcz4kype
p2
I1
s.(dp0
Vcy(dp0
Vcyhzvzx
p1
I1
sVdkz0y6i
p2
I1
s.