(dp0
Vcz977sw
p1
I1
s.(dp0
Vczay7rf
p1
I1
sVcz977sw
p2
I1
s.(dp0
Vczw1h2x
p1
I1
sVcz977sw
p2
I1
s.(dp0
Vd0c7lor
p1
I1
sVcz977sw
p2
I1
s.(dp0
Vd0i7f1r
p1
I1
sVcz977sw
p2
I1
s.(dp0
Vd37huzy
p1
I1
sVcz977sw
p2
I1
s.(dp0
Vd37huzy
p1
I1
sVcz977sw
p2
I1
s.(dp0
Vd37huzy
p1
I1
sVcz977sw
p2
I1
s.(dp0
Vd37huzy
p1
I1
sVcz977sw
p2
I1
s.(dp0
Vd37huzy
p1
I1
sVcz977sw
p2
I1
s.(dp0
Vd4bk73b
p1
I1
sVcz977sw
p2
I1
s.(dp0
Vd4c830o
p1
I1
sVcz977sw
p2
I1
s.(dp0
Vd4xq4x5
p1
I1
sVcz977sw
p2
I1
s.(dp0
Vd5fprhq
p1
I1
sVcz977sw
p2
I1
s.(dp0
Vd6etjtp
p1
I1
sVcz977sw
p2
I1
s.(dp0
Vd6y8nak
p1
I1
sVcz977sw
p2
I1
s.(dp0
Vd8rhp8e
p1
I1
sVcz977sw
p2
I1
s.(dp0
Vd8rku7r
p1
I1
sVcz977sw
p2
I1
s.(dp0
Vd8rku7r
p1
I1
sVcz977sw
p2
I1
s.(dp0
Vd8rku7r
p1
I1
sVcz977sw
p2
I1
s.(dp0
Vd93pszo
p1
I1
sVcz977sw
p2
I1
s.(dp0
Vda65jsc
p1
I1
sVcz977sw
p2
I1
s.(dp0
Vdaldyj3
p1
I1
sVcz977sw
p2
I1
s.(dp0
Vdase0j0
p1
I1
sVcz977sw
p2
I1
s.(dp0
Vde4n5pp
p1
I1
sVcz977sw
p2
I1
s.(dp0
Vdh8h2zq
p1
I1
sVcz977sw
p2
I1
s.(dp0
Vdh8h2zq
p1
I1
sVcz977sw
p2
I1
s.(dp0
Vdh8h2zq
p1
I1
sVcz977sw
p2
I1
s.(dp0
Vdhihhbl
p1
I1
sVcz977sw
p2
I1
s.(dp0
Vdhilkwn
p1
I1
sVcz977sw
p2
I1
s.(dp0
Vdhilkwn
p1
I1
sVcz977sw
p2
I1
s.(dp0
Vdhj29oe
p1
I1
sVcz977sw
p2
I1
s.(dp0
Vdi865t6
p1
I1
sVcz977sw
p2
I1
s.(dp0
Vdiz6xtu
p1
I1
sVcz977sw
p2
I1
s.(dp0
Vdj1xc2y
p1
I1
sVcz977sw
p2
I1
s.(dp0
Vdj1xc2y
p1
I1
sVcz977sw
p2
I1
s.(dp0
Vdj1xc2y
p1
I1
sVcz977sw
p2
I1
s.(dp0
Vdjfplhw
p1
I1
sVcz977sw
p2
I1
s.(dp0
Vdjnuk5u
p1
I1
sVcz977sw
p2
I1
s.(dp0
Vdjp9g7e
p1
I1
sVcz977sw
p2
I1
s.(dp0
Vdk84q0e
p1
I1
sVcz977sw
p2
I1
s.(dp0
Vdkf18vj
p1
I1
sVcz977sw
p2
I1
s.