(dp0
Vczvqcr1
p1
I1
s.(dp0
Vczvqcr1
p1
I1
sVczvqisg
p2
I1
s.(dp0
Vd0cy6bq
p1
I1
sVczvqcr1
p2
I1
s.(dp0
Vd0cy6bq
p1
I1
sVczvqcr1
p2
I1
s.(dp0
Vd0shncn
p1
I1
sVczvqcr1
p2
I1
s.(dp0
Vczvqcr1
p1
I1
sVd2gyp0i
p2
I1
s.(dp0
Vczvqcr1
p1
I1
sVd2gyp0i
p2
I1
s.(dp0
Vczvqcr1
p1
I1
sVd2zboz3
p2
I1
s.(dp0
Vczvqcr1
p1
I1
sVd38w3rc
p2
I1
s.(dp0
Vd4sv852
p1
I1
sVczvqcr1
p2
I1
s.(dp0
Vczvqcr1
p1
I1
sVd614m1x
p2
I1
s.(dp0
Vczvqcr1
p1
I1
sVd67p5ep
p2
I1
s.(dp0
Vczvqcr1
p1
I1
sVd8xjtp4
p2
I1
s.(dp0
Vczvqcr1
p1
I1
sVd92ntqo
p2
I1
s.(dp0
Vda2f5vh
p1
I1
sVczvqcr1
p2
I1
s.(dp0
Vda2f5vh
p1
I1
sVczvqcr1
p2
I1
s.(dp0
Vczvqcr1
p1
I1
sVdc7u3s6
p2
I1
s.(dp0
Vczvqcr1
p1
I1
sVddreq0z
p2
I1
s.(dp0
Vdeurtkr
p1
I1
sVczvqcr1
p2
I1
s.(dp0
Vdf32gdh
p1
I1
sVczvqcr1
p2
I1
s.(dp0
Vdgdqcjv
p1
I1
sVczvqcr1
p2
I1
s.(dp0
Vczvqcr1
p1
I1
sVdhy5fze
p2
I1
s.(dp0
Vczvqcr1
p1
I1
sVdi4slwa
p2
I1
s.(dp0
Vdiku4as
p1
I1
sVczvqcr1
p2
I1
s.(dp0
Vdjb7ll2
p1
I1
sVczvqcr1
p2
I1
s.(dp0
Vczvqcr1
p1
I1
sVdk065b3
p2
I1
s.(dp0
Vczvqcr1
p1
I1
sVdk07ucw
p2
I1
s.(dp0
Vczvqcr1
p1
I1
sVdkgd2oz
p2
I1
s.