(dp0
Vcyo4zw7
p1
I1
s.(dp0
Vcyo4zw7
p1
I1
sVcyoascp
p2
I1
s.(dp0
Vd20fo7c
p1
I1
sVcyo4zw7
p2
I1
s.(dp0
Vd2870p5
p1
I1
sVcyo4zw7
p2
I1
s.(dp0
Vd2gv7kx
p1
I1
sVcyo4zw7
p2
I1
s.(dp0
Vcyo4zw7
p1
I1
sVd993drt
p2
I1
s.(dp0
Vcyo4zw7
p1
I1
sVd9ccj8v
p2
I1
s.(dp0
Vdd770xm
p1
I1
sVcyo4zw7
p2
I1
s.(dp0
Vddps1m3
p1
I1
sVcyo4zw7
p2
I1
s.(dp0
Vdduvx31
p1
I1
sVcyo4zw7
p2
I1
s.(dp0
Vdi6z9ff
p1
I1
sVcyo4zw7
p2
I1
s.(dp0
Vcyo4zw7
p1
I1
sVdizzvn5
p2
I1
s.(dp0
Vdj5gjcc
p1
I1
sVcyo4zw7
p2
I1
s.(dp0
Vdp1iydz
p1
I1
sVcyo4zw7
p2
I1
s.