(dp0
Vcyk2b8t
p1
I1
s.(dp0
Vcyk2b8t
p1
I1
sVcz3axc1
p2
I1
s.(dp0
Vcyk2b8t
p1
I1
sVcz7e5rp
p2
I1
s.(dp0
Vcyk2b8t
p1
I1
sVcz9h5ld
p2
I1
s.(dp0
Vcyk2b8t
p1
I1
sVczge1ot
p2
I1
s.(dp0
Vcyk2b8t
p1
I1
sVczi0exh
p2
I1
s.(dp0
Vcyk2b8t
p1
I1
sVczl6eaf
p2
I1
s.(dp0
Vcyk2b8t
p1
I1
sVczmh349
p2
I1
s.(dp0
Vcyk2b8t
p1
I1
sVczoy12j
p2
I1
s.(dp0
Vcyk2b8t
p1
I1
sVczqf1t7
p2
I1
s.(dp0
Vcyk2b8t
p1
I1
sVcztxjnf
p2
I1
s.(dp0
Vcyk2b8t
p1
I1
sVczvvsrh
p2
I1
s.(dp0
Vcyk2b8t
p1
I1
sVd013ylm
p2
I1
s.(dp0
Vcyk2b8t
p1
I1
sVd0h13h0
p2
I1
s.(dp0
Vcyk2b8t
p1
I1
sVd0mnnyz
p2
I1
s.(dp0
Vcyk2b8t
p1
I1
sVd0mo5u3
p2
I1
s.(dp0
Vcyk2b8t
p1
I1
sVd0mvyui
p2
I1
s.(dp0
Vcyk2b8t
p1
I1
sVd0n6glp
p2
I1
s.(dp0
Vcyk2b8t
p1
I1
sVd0n7ngg
p2
I1
s.(dp0
Vcyk2b8t
p1
I1
sVd0qu94w
p2
I1
s.(dp0
Vcyk2b8t
p1
I1
sVd12qpmj
p2
I1
s.(dp0
Vcyk2b8t
p1
I1
sVd18ou6c
p2
I1
s.(dp0
Vcyk2b8t
p1
I1
sVd1buug8
p2
I1
s.(dp0
Vcyk2b8t
p1
I1
sVd1oxdtn
p2
I1
s.(dp0
Vcyk2b8t
p1
I1
sVd1so35r
p2
I1
s.(dp0
Vcyk2b8t
p1
I1
sVd26vvtz
p2
I1
s.(dp0
Vcyk2b8t
p1
I1
sVd2jvj2k
p2
I1
s.(dp0
Vcyk2b8t
p1
I1
sVd2jwapp
p2
I1
s.(dp0
Vcyk2b8t
p1
I1
sVd2jwapp
p2
I1
s.(dp0
Vcyk2b8t
p1
I1
sVd2pyk89
p2
I1
s.(dp0
Vcyk2b8t
p1
I1
sVd2zdmng
p2
I1
s.(dp0
Vcyk2b8t
p1
I1
sVd334duf
p2
I1
s.(dp0
Vcyk2b8t
p1
I1
sVd349z95
p2
I1
s.(dp0
Vcyk2b8t
p1
I1
sVd35d7hl
p2
I1
s.(dp0
Vcyk2b8t
p1
I1
sVd39nvn8
p2
I1
s.(dp0
Vcyk2b8t
p1
I1
sVd3r9cpd
p2
I1
s.(dp0
Vcyk2b8t
p1
I1
sVd3taeys
p2
I1
s.(dp0
Vcyk2b8t
p1
I1
sVd4bc5sb
p2
I1
s.(dp0
Vcyk2b8t
p1
I1
sVd4gplnn
p2
I1
s.(dp0
Vcyk2b8t
p1
I1
sVd4n5l90
p2
I1
s.(dp0
Vcyk2b8t
p1
I1
sVd5ae3m3
p2
I1
s.(dp0
Vcyk2b8t
p1
I1
sVd5lyu8d
p2
I1
s.(dp0
Vcyk2b8t
p1
I1
sVd5u885r
p2
I1
s.(dp0
Vcyk2b8t
p1
I1
sVd5vycd1
p2
I1
s.(dp0
Vcyk2b8t
p1
I1
sVd6a7uyv
p2
I1
s.(dp0
Vcyk2b8t
p1
I1
sVd6f5wso
p2
I1
s.(dp0
Vcyk2b8t
p1
I1
sVd6j2psw
p2
I1
s.(dp0
Vcyk2b8t
p1
I1
sVd6yq64q
p2
I1
s.(dp0
Vcyk2b8t
p1
I1
sVd6yq64q
p2
I1
s.(dp0
Vcyk2b8t
p1
I1
sVd71xw03
p2
I1
s.(dp0
Vcyk2b8t
p1
I1
sVd71xw03
p2
I1
s.(dp0
Vcyk2b8t
p1
I1
sVd7ijr62
p2
I1
s.(dp0
Vcyk2b8t
p1
I1
sVd7tkb5t
p2
I1
s.(dp0
Vcyk2b8t
p1
I1
sVd7tkb5t
p2
I1
s.(dp0
Vcyk2b8t
p1
I1
sVd7ukphj
p2
I1
s.(dp0
Vcyk2b8t
p1
I1
sVd7xn6no
p2
I1
s.(dp0
Vcyk2b8t
p1
I1
sVd7xns72
p2
I1
s.(dp0
Vcyk2b8t
p1
I1
sVd81se62
p2
I1
s.(dp0
Vcyk2b8t
p1
I1
sVd82oo51
p2
I1
s.(dp0
Vcyk2b8t
p1
I1
sVd84iekd
p2
I1
s.(dp0
Vcyk2b8t
p1
I1
sVd853gus
p2
I1
s.(dp0
Vcyk2b8t
p1
I1
sVd865kwh
p2
I1
s.(dp0
Vcyk2b8t
p1
I1
sVd8e08qu
p2
I1
s.(dp0
Vcyk2b8t
p1
I1
sVd8ghbsx
p2
I1
s.(dp0
Vcyk2b8t
p1
I1
sVd8x5238
p2
I1
s.(dp0
Vcyk2b8t
p1
I1
sVd949da7
p2
I1
s.(dp0
Vcyk2b8t
p1
I1
sVd95lfwt
p2
I1
s.(dp0
Vcyk2b8t
p1
I1
sVd9ba8yv
p2
I1
s.(dp0
Vcyk2b8t
p1
I1
sVd9lm8di
p2
I1
s.(dp0
Vcyk2b8t
p1
I1
sVd9lm8di
p2
I1
s.(dp0
Vcyk2b8t
p1
I1
sVd9tk47y
p2
I1
s.(dp0
Vcyk2b8t
p1
I1
sVd9xzdfq
p2
I1
s.(dp0
Vcyk2b8t
p1
I1
sVdaaj19z
p2
I1
s.(dp0
Vcyk2b8t
p1
I1
sVdak30i4
p2
I1
s.(dp0
Vcyk2b8t
p1
I1
sVdc3zxew
p2
I1
s.(dp0
Vcyk2b8t
p1
I1
sVdc47l5c
p2
I1
s.(dp0
Vcyk2b8t
p1
I1
sVdcsoych
p2
I1
s.(dp0
Vcyk2b8t
p1
I1
sVddcto1l
p2
I1
s.(dp0
Vcyk2b8t
p1
I1
sVddlgve6
p2
I1
s.(dp0
Vcyk2b8t
p1
I1
sVddr4u2h
p2
I1
s.(dp0
Vcyk2b8t
p1
I1
sVddrf756
p2
I1
s.(dp0
Vcyk2b8t
p1
I1
sVde1gsnb
p2
I1
s.(dp0
Vcyk2b8t
p1
I1
sVde7c6ai
p2
I1
s.(dp0
Vcyk2b8t
p1
I1
sVde950h4
p2
I1
s.(dp0
Vcyk2b8t
p1
I1
sVdel909k
p2
I1
s.(dp0
Vcyk2b8t
p1
I1
sVderrko4
p2
I1
s.(dp0
Vcyk2b8t
p1
I1
sVdfttm5p
p2
I1
s.(dp0
Vcyk2b8t
p1
I1
sVdg27k2m
p2
I1
s.(dp0
Vcyk2b8t
p1
I1
sVdg27k2m
p2
I1
s.(dp0
Vcyk2b8t
p1
I1
sVdg7ycnf
p2
I1
s.(dp0
Vcyk2b8t
p1
I1
sVdgcosty
p2
I1
s.(dp0
Vcyk2b8t
p1
I1
sVdgcosty
p2
I1
s.(dp0
Vcyk2b8t
p1
I1
sVdggflyy
p2
I1
s.(dp0
Vcyk2b8t
p1
I1
sVdh2tjqw
p2
I1
s.(dp0
Vcyk2b8t
p1
I1
sVdhciqby
p2
I1
s.(dp0
Vcyk2b8t
p1
I1
sVdhdeww7
p2
I1
s.(dp0
Vcyk2b8t
p1
I1
sVdhhhdeq
p2
I1
s.(dp0
Vcyk2b8t
p1
I1
sVdhpjgk9
p2
I1
s.(dp0
Vcyk2b8t
p1
I1
sVdhpjjkr
p2
I1
s.(dp0
Vcyk2b8t
p1
I1
sVdhr2si4
p2
I1
s.(dp0
Vcyk2b8t
p1
I1
sVdi4lojc
p2
I1
s.(dp0
Vcyk2b8t
p1
I1
sVdi8wjc0
p2
I1
s.(dp0
Vcyk2b8t
p1
I1
sVdibj61q
p2
I1
s.(dp0
Vcyk2b8t
p1
I1
sVdij40bi
p2
I1
s.(dp0
Vcyk2b8t
p1
I1
sVdir5nja
p2
I1
s.(dp0
Vcyk2b8t
p1
I1
sVdiv15y2
p2
I1
s.(dp0
Vcyk2b8t
p1
I1
sVdiv15y2
p2
I1
s.(dp0
Vcyk2b8t
p1
I1
sVdj8tuf5
p2
I1
s.(dp0
Vcy(dp0
Vcyk2b8t
p1
I1
sVdkkj3vm
p2
I1
s.