(dp0
Vcyi7fep
p1
I1
s.(dp0
Vcyju54w
p1
I1
sVcyi7fep
p2
I1
s.(dp0
Vcyjub0w
p1
I1
sVcyi7fep
p2
I1
s.(dp0
Vcyi7fep
p1
I1
sVcyo4nx5
p2
I1
s.(dp0
Vcyi7fep
p1
I1
sVcyvfil1
p2
I1
s.(dp0
Vczay0p9
p1
I1
sVcyi7fep
p2
I1
s.(dp0
Vczhmdcg
p1
I1
sVcyi7fep
p2
I1
s.(dp0
Vczibwfm
p1
I1
sVcyi7fep
p2
I1
s.(dp0
Vczju36s
p1
I1
sVcyi7fep
p2
I1
s.(dp0
Vczjw1fr
p1
I1
sVcyi7fep
p2
I1
s.(dp0
Vczkpadr
p1
I1
sVcyi7fep
p2
I1
s.(dp0
Vcznr6yg
p1
I1
sVcyi7fep
p2
I1
s.(dp0
Vcznr6yg
p1
I1
sVcyi7fep
p2
I1
s.(dp0
Vcznr6yg
p1
I1
sVcyi7fep
p2
I1
s.(dp0
Vcznr6yg
p1
I1
sVcyi7fep
p2
I1
s.(dp0
Vczqnhbr
p1
I1
sVcyi7fep
p2
I1
s.(dp0
Vczxkrjj
p1
I1
sVcyi7fep
p2
I1
s.(dp0
Vczy2epl
p1
I1
sVcyi7fep
p2
I1
s.(dp0
Vczz8rrw
p1
I1
sVcyi7fep
p2
I1
s.(dp0
Vd05v33k
p1
I1
sVcyi7fep
p2
I1
s.(dp0
Vd07731g
p1
I1
sVcyi7fep
p2
I1
s.(dp0
Vd0778in
p1
I1
sVcyi7fep
p2
I1
s.(dp0
Vd077epq
p1
I1
sVcyi7fep
p2
I1
s.(dp0
Vcyi7fep
p1
I1
sVd07g7he
p2
I1
s.(dp0
Vd07iltg
p1
I1
sVcyi7fep
p2
I1
s.(dp0
Vd0ht4fr
p1
I1
sVcyi7fep
p2
I1
s.(dp0
Vd0l32n2
p1
I1
sVcyi7fep
p2
I1
s.(dp0
Vd0p5qkh
p1
I1
sVcyi7fep
p2
I1
s.(dp0
Vd0rbnj7
p1
I1
sVcyi7fep
p2
I1
s.(dp0
Vcyi7fep
p1
I1
sVd0rbx00
p2
I1
s.(dp0
Vd0smjxk
p1
I1
sVcyi7fep
p2
I1
s.(dp0
Vd10h57z
p1
I1
sVcyi7fep
p2
I1
s.(dp0
Vcyi7fep
p1
I1
sVd134hsq
p2
I1
s.(dp0
Vd1cnt7r
p1
I1
sVcyi7fep
p2
I1
s.(dp0
Vd1duc60
p1
I1
sVcyi7fep
p2
I1
s.(dp0
Vcyi7fep
p1
I1
sVd1s4g4k
p2
I1
s.(dp0
Vd1tjk2e
p1
I1
sVcyi7fep
p2
I1
s.(dp0
Vd1twbr5
p1
I1
sVcyi7fep
p2
I1
s.(dp0
Vd1w9jb1
p1
I1
sVcyi7fep
p2
I1
s.(dp0
Vd1zszfi
p1
I1
sVcyi7fep
p2
I1
s.(dp0
Vd20vkm2
p1
I1
sVcyi7fep
p2
I1
s.(dp0
Vd25399b
p1
I1
sVcyi7fep
p2
I1
s.(dp0
Vd2551l2
p1
I1
sVcyi7fep
p2
I1
s.(dp0
Vcyi7fep
p1
I1
sVd2jo8ty
p2
I1
s.(dp0
Vd2n3q60
p1
I1
sVcyi7fep
p2
I1
s.(dp0
Vd2o84ne
p1
I1
sVcyi7fep
p2
I1
s.(dp0
Vd2pvhav
p1
I1
sVcyi7fep
p2
I1
s.(dp0
Vd2rnlnj
p1
I1
sVcyi7fep
p2
I1
s.(dp0
Vd2s9u9q
p1
I1
sVcyi7fep
p2
I1
s.(dp0
Vd2saq6s
p1
I1
sVcyi7fep
p2
I1
s.(dp0
Vd2v6j91
p1
I1
sVcyi7fep
p2
I1
s.(dp0
Vd2yqibd
p1
I1
sVcyi7fep
p2
I1
s.(dp0
Vd30utzh
p1
I1
sVcyi7fep
p2
I1
s.(dp0
Vd31p7w9
p1
I1
sVcyi7fep
p2
I1
s.(dp0
Vd3541v2
p1
I1
sVcyi7fep
p2
I1
s.(dp0
Vcyi7fep
p1
I1
sVd3atlce
p2
I1
s.(dp0
Vd3bcwif
p1
I1
sVcyi7fep
p2
I1
s.(dp0
Vd3bv9df
p1
I1
sVcyi7fep
p2
I1
s.(dp0
Vd3g5q8n
p1
I1
sVcyi7fep
p2
I1
s.(dp0
Vd3hm00y
p1
I1
sVcyi7fep
p2
I1
s.(dp0
Vd3jrbd4
p1
I1
sVcyi7fep
p2
I1
s.(dp0
Vd3sjgfk
p1
I1
sVcyi7fep
p2
I1
s.(dp0
Vd44mjry
p1
I1
sVcyi7fep
p2
I1
s.(dp0
Vd477pu9
p1
I1
sVcyi7fep
p2
I1
s.(dp0
Vd477pu9
p1
I1
sVcyi7fep
p2
I1
s.(dp0
Vd47n60u
p1
I1
sVcyi7fep
p2
I1
s.(dp0
Vcyi7fep
p1
I1
sVd4ev77q
p2
I1
s.(dp0
Vd4mp4sd
p1
I1
sVcyi7fep
p2
I1
s.(dp0
Vd4tcp0z
p1
I1
sVcyi7fep
p2
I1
s.(dp0
Vd51fqfk
p1
I1
sVcyi7fep
p2
I1
s.(dp0
Vd55a0ed
p1
I1
sVcyi7fep
p2
I1
s.(dp0
Vcyi7fep
p1
I1
sVd5a6npn
p2
I1
s.(dp0
Vd5en3dh
p1
I1
sVcyi7fep
p2
I1
s.(dp0
Vd5eu30s
p1
I1
sVcyi7fep
p2
I1
s.(dp0
Vd5m54as
p1
I1
sVcyi7fep
p2
I1
s.(dp0
Vd5m54as
p1
I1
sVcyi7fep
p2
I1
s.(dp0
Vd5yem7d
p1
I1
sVcyi7fep
p2
I1
s.(dp0
Vd602q2a
p1
I1
sVcyi7fep
p2
I1
s.(dp0
Vcyi7fep
p1
I1
sVd63t64k
p2
I1
s.(dp0
Vd64t1yq
p1
I1
sVcyi7fep
p2
I1
s.(dp0
Vd64t1yq
p1
I1
sVcyi7fep
p2
I1
s.(dp0
Vd66x0wd
p1
I1
sVcyi7fep
p2
I1
s.(dp0
Vd66x0wd
p1
I1
sVcyi7fep
p2
I1
s.(dp0
Vd67nsi5
p1
I1
sVcyi7fep
p2
I1
s.(dp0
Vd69ls6u
p1
I1
sVcyi7fep
p2
I1
s.(dp0
Vd69sebx
p1
I1
sVcyi7fep
p2
I1
s.(dp0
Vd6a6tkv
p1
I1
sVcyi7fep
p2
I1
s.(dp0
Vd6awos6
p1
I1
sVcyi7fep
p2
I1
s.(dp0
Vd6cye9e
p1
I1
sVcyi7fep
p2
I1
s.(dp0
Vcyi7fep
p1
I1
sVd6d9juh
p2
I1
s.(dp0
Vd6h2rdi
p1
I1
sVcyi7fep
p2
I1
s.(dp0
Vd6xea4o
p1
I1
sVcyi7fep
p2
I1
s.(dp0
Vd76zk8q
p1
I1
sVcyi7fep
p2
I1
s.(dp0
Vd7b56xq
p1
I1
sVcyi7fep
p2
I1
s.(dp0
Vd7i9fln
p1
I1
sVcyi7fep
p2
I1
s.(dp0
Vcyi7fep
p1
I1
sVd7vxadj
p2
I1
s.(dp0
Vcyi7fep
p1
I1
sVd7w6g7b
p2
I1
s.(dp0
Vd7w6n3b
p1
I1
sVcyi7fep
p2
I1
s.(dp0
Vd7wftfk
p1
I1
sVcyi7fep
p2
I1
s.(dp0
Vd7wftfk
p1
I1
sVcyi7fep
p2
I1
s.(dp0
Vd82131p
p1
I1
sVcyi7fep
p2
I1
s.(dp0
Vcyi7fep
p1
I1
sVd8bkx4g
p2
I1
s.(dp0
Vcyi7fep
p1
I1
sVd8chrzo
p2
I1
s.(dp0
Vd8ih6th
p1
I1
sVcyi7fep
p2
I1
s.(dp0
Vd8il0si
p1
I1
sVcyi7fep
p2
I1
s.(dp0
Vcyi7fep
p1
I1
sVd8k5nft
p2
I1
s.(dp0
Vd8yf97j
p1
I1
sVcyi7fep
p2
I1
s.(dp0
Vd9a6uzu
p1
I1
sVcyi7fep
p2
I1
s.(dp0
Vd9(dp0
Vdky76yu
p1
I1
sVcyi7fep
p2
I1
s.