(dp0
Vcykusi1
p1
I1
s.(dp0
Vcykusi1
p1
I1
sVcyl2dtb
p2
I1
s.(dp0
Vcykusi1
p1
I1
sVcypduz0
p2
I1
s.(dp0
Vcykusi1
p1
I1
sVcys59rf
p2
I1
s.(dp0
Vcykusi1
p1
I1
sVcysufek
p2
I1
s.(dp0
Vcz0v7my
p1
I1
sVcykusi1
p2
I1
s.(dp0
Vcz0v7my
p1
I1
sVcykusi1
p2
I1
s.(dp0
Vcykusi1
p1
I1
sVcz1xyxt
p2
I1
s.(dp0
Vcz28r6p
p1
I1
sVcykusi1
p2
I1
s.(dp0
Vcykusi1
p1
I1
sVcz4x9ql
p2
I1
s.(dp0
Vcykusi1
p1
I1
sVcz9xkhr
p2
I1
s.(dp0
Vcykusi1
p1
I1
sVcz9xkhr
p2
I1
s.(dp0
Vcykusi1
p1
I1
sVczf162h
p2
I1
s.(dp0
Vcykusi1
p1
I1
sVczlnmk6
p2
I1
s.(dp0
Vcykusi1
p1
I1
sVczlnmk6
p2
I1
s.(dp0
Vcykusi1
p1
I1
sVczsb1cy
p2
I1
s.(dp0
Vcykusi1
p1
I1
sVczscbyw
p2
I1
s.(dp0
Vcykusi1
p1
I1
sVczsso8b
p2
I1
s.(dp0
Vcykusi1
p1
I1
sVczyj5no
p2
I1
s.(dp0
Vcykusi1
p1
I1
sVczyj5no
p2
I1
s.(dp0
Vcykusi1
p1
I1
sVczyj5no
p2
I1
s.(dp0
Vcykusi1
p1
I1
sVd02s9zu
p2
I1
s.(dp0
Vcykusi1
p1
I1
sVd02s9zu
p2
I1
s.(dp0
Vcykusi1
p1
I1
sVd03wq2p
p2
I1
s.(dp0
Vd05tdlz
p1
I1
sVcykusi1
p2
I1
s.(dp0
Vd05tdlz
p1
I1
sVcykusi1
p2
I1
s.(dp0
Vd05tdlz
p1
I1
sVcykusi1
p2
I1
s.(dp0
Vd05tdlz
p1
I1
sVcykusi1
p2
I1
s.(dp0
Vd05tdlz
p1
I1
sVcykusi1
p2
I1
s.(dp0
Vd05tdlz
p1
I1
sVcykusi1
p2
I1
s.(dp0
Vcykusi1
p1
I1
sVd077v7a
p2
I1
s.(dp0
Vcykusi1
p1
I1
sVd0cio22
p2
I1
s.(dp0
Vcykusi1
p1
I1
sVd0jiqjz
p2
I1
s.(dp0
Vcykusi1
p1
I1
sVd0n10ns
p2
I1
s.(dp0
Vcykusi1
p1
I1
sVd0n6kn1
p2
I1
s.(dp0
Vd0nhwc3
p1
I1
sVcykusi1
p2
I1
s.(dp0
Vcykusi1
p1
I1
sVd0qoz09
p2
I1
s.(dp0
Vcykusi1
p1
I1
sVd0su618
p2
I1
s.(dp0
Vcykusi1
p1
I1
sVd0woew2
p2
I1
s.(dp0
Vcykusi1
p1
I1
sVd11zq6j
p2
I1
s.(dp0
Vcykusi1
p1
I1
sVd14bvh2
p2
I1
s.(dp0
Vd19193w
p1
I1
sVcykusi1
p2
I1
s.(dp0
Vd19m9pz
p1
I1
sVcykusi1
p2
I1
s.(dp0
Vcykusi1
p1
I1
sVd1c4qqj
p2
I1
s.(dp0
Vcykusi1
p1
I1
sVd1l2nmj
p2
I1
s.(dp0
Vcykusi1
p1
I1
sVd1sl8xl
p2
I1
s.(dp0
Vcykusi1
p1
I1
sVd1sl8xl
p2
I1
s.(dp0
Vcykusi1
p1
I1
sVd1sl8xl
p2
I1
s.(dp0
Vcykusi1
p1
I1
sVd261hyy
p2
I1
s.(dp0
Vcykusi1
p1
I1
sVd261hyy
p2
I1
s.(dp0
Vcykusi1
p1
I1
sVd2a8lub
p2
I1
s.(dp0
Vd2n5yd0
p1
I1
sVcykusi1
p2
I1
s.(dp0
Vd2n5yd0
p1
I1
sVcykusi1
p2
I1
s.(dp0
Vcykusi1
p1
I1
sVd3etweh
p2
I1
s.(dp0
Vcykusi1
p1
I1
sVd3h8j8z
p2
I1
s.(dp0
Vcykusi1
p1
I1
sVd3h8j8z
p2
I1
s.(dp0
Vcykusi1
p1
I1
sVd3h8j8z
p2
I1
s.(dp0
Vcykusi1
p1
I1
sVd3h8j8z
p2
I1
s.(dp0
Vcykusi1
p1
I1
sVd3n0lbx
p2
I1
s.(dp0
Vcykusi1
p1
I1
sVd3pj429
p2
I1
s.(dp0
Vd3vtcnx
p1
I1
sVcykusi1
p2
I1
s.(dp0
Vcykusi1
p1
I1
sVd3xbtnt
p2
I1
s.(dp0
Vcykusi1
p1
I1
sVd3yewmw
p2
I1
s.(dp0
Vd3zijus
p1
I1
sVcykusi1
p2
I1
s.(dp0
Vd48vuw8
p1
I1
sVcykusi1
p2
I1
s.(dp0
Vcykusi1
p1
I1
sVd4pvzip
p2
I1
s.(dp0
Vcykusi1
p1
I1
sVd4t4s7i
p2
I1
s.(dp0
Vcykusi1
p1
I1
sVd4t4s7i
p2
I1
s.(dp0
Vcykusi1
p1
I1
sVd56iqdg
p2
I1
s.(dp0
Vcykusi1
p1
I1
sVd5a6v2m
p2
I1
s.(dp0
Vcykusi1
p1
I1
sVd5g7jcl
p2
I1
s.(dp0
Vcykusi1
p1
I1
sVd5lpbip
p2
I1
s.(dp0
Vd5mnyjp
p1
I1
sVcykusi1
p2
I1
s.(dp0
Vcykusi1
p1
I1
sVd5nc7ah
p2
I1
s.(dp0
Vcykusi1
p1
I1
sVd5nwn5a
p2
I1
s.(dp0
Vd5otqcg
p1
I1
sVcykusi1
p2
I1
s.(dp0
Vcykusi1
p1
I1
sVd5t96rp
p2
I1
s.(dp0
Vd5uqev0
p1
I1
sVcykusi1
p2
I1
s.(dp0
Vcykusi1
p1
I1
sVd5xy25m
p2
I1
s.(dp0
Vcykusi1
p1
I1
sVd62fslb
p2
I1
s.(dp0
Vd62pzfk
p1
I1
sVcykusi1
p2
I1
s.(dp0
Vcykusi1
p1
I1
sVd65wu1w
p2
I1
s.(dp0
Vcykusi1
p1
I1
sVd65wu1w
p2
I1
s.(dp0
Vcykusi1
p1
I1
sVd6ai4pj
p2
I1
s.(dp0
Vcykusi1
p1
I1
sVd6m4k3e
p2
I1
s.(dp0
Vcykusi1
p1
I1
sVd6m650p
p2
I1
s.(dp0
Vcykusi1
p1
I1
sVd6mb9ap
p2
I1
s.(dp0
Vd6x3j8w
p1
I1
sVcykusi1
p2
I1
s.(dp0
Vd6ygrfy
p1
I1
sVcykusi1
p2
I1
s.(dp0
Vcykusi1
p1
I1
sVd7mmfqi
p2
I1
s.(dp0
Vcykusi1
p1
I1
sVd7o6gho
p2
I1
s.(dp0
Vcykusi1
p1
I1
sVd7o6gho
p2
I1
s.(dp0
Vcykusi1
p1
I1
sVd8aauhs
p2
I1
s.(dp0
Vcykusi1
p1
I1
sVd8b9bf1
p2
I1
s.(dp0
Vd8lvl3u
p1
I1
sVcykusi1
p2
I1
s.(dp0
Vcykusi1
p1
I1
sVd8ockre
p2
I1
s.(dp0
Vcykusi1
p1
I1
sVd8ockre
p2
I1
s.(dp0
Vcykusi1
p1
I1
sVd8ockre
p2
I1
s.(dp0
Vd8owsob
p1
I1
sVcykusi1
p2
I1
s.(dp0
Vd8owsob
p1
I1
sVcykusi1
p2
I1
s.(dp0
Vd8owsob
p1
I1
sVcykusi1
p2
I1
s.(dp0
Vd8owsob
p1
I1
sVcykusi1
p2
I1
s.(dp0
Vd8owsob
p1
I1
sVcykusi1
p2
I1
s.(dp0
Vd8owsob
p1
I1
sVcykusi1
p2
I1
s.(dp0
Vd8owsob
p1
I1
sVcykusi1
p2
I1
s.(dp0
Vd8owsob
p1
I1
sVcykusi1
p2
I1
s.(dp0
Vd8owsob
p1
I1
sVcykusi1
p2
I1
s.(dp0
Vd8owsob
p1
I1
sVcykusi1
p2
I1
s.(dp0
Vcy(dp0
Vdp5np08
p1
I1
sVcykusi1
p2
I1
s.