(dp0
Vcz50ccn
p1
I1
s.(dp0
Vczjwv24
p1
I1
sVcz50ccn
p2
I1
s.(dp0
Vczjwv24
p1
I1
sVcz50ccn
p2
I1
s.(dp0
Vcz50ccn
p1
I1
sVczjwyk5
p2
I1
s.(dp0
Vcz50ccn
p1
I1
sVczjwyk5
p2
I1
s.(dp0
Vczkg1p4
p1
I1
sVcz50ccn
p2
I1
s.(dp0
Vd13xayu
p1
I1
sVcz50ccn
p2
I1
s.(dp0
Vd1bywe2
p1
I1
sVcz50ccn
p2
I1
s.(dp0
Vcz50ccn
p1
I1
sVd1bz32r
p2
I1
s.(dp0
Vcz50ccn
p1
I1
sVd1bzknf
p2
I1
s.(dp0
Vcz50ccn
p1
I1
sVd1bzknf
p2
I1
s.(dp0
Vd27jbjx
p1
I1
sVcz50ccn
p2
I1
s.(dp0
Vd3fuieb
p1
I1
sVcz50ccn
p2
I1
s.(dp0
Vd5jv1oj
p1
I1
sVcz50ccn
p2
I1
s.(dp0
Vd5jv1oj
p1
I1
sVcz50ccn
p2
I1
s.(dp0
Vcz50ccn
p1
I1
sVd78x6hw
p2
I1
s.(dp0
Vcz50ccn
p1
I1
sVd78x6hw
p2
I1
s.(dp0
Vcz50ccn
p1
I1
sVd78x6hw
p2
I1
s.(dp0
Vcz50ccn
p1
I1
sVda117y1
p2
I1
s.(dp0
Vcz50ccn
p1
I1
sVdc0us5t
p2
I1
s.(dp0
Vcz50ccn
p1
I1
sVdc0us5t
p2
I1
s.(dp0
Vcz50ccn
p1
I1
sVdd2nz28
p2
I1
s.(dp0
Vcz50ccn
p1
I1
sVdd2nz28
p2
I1
s.(dp0
Vcz50ccn
p1
I1
sVdd2nz28
p2
I1
s.(dp0
Vcz50ccn
p1
I1
sVdd51gju
p2
I1
s.(dp0
Vcz50ccn
p1
I1
sVddhe4ne
p2
I1
s.(dp0
Vcz50ccn
p1
I1
sVddx4aun
p2
I1
s.(dp0
Vcz50ccn
p1
I1
sVddx4aun
p2
I1
s.(dp0
Vdfxt5wa
p1
I1
sVcz50ccn
p2
I1
s.(dp0
Vdgd7dkr
p1
I1
sVcz50ccn
p2
I1
s.(dp0
Vdgd7dkr
p1
I1
sVcz50ccn
p2
I1
s.(dp0
Vcz50ccn
p1
I1
sVdh6aohz
p2
I1
s.(dp0
Vcz50ccn
p1
I1
sVdit39c3
p2
I1
s.(dp0
Vcz50ccn
p1
I1
sVdj0x1iz
p2
I1
s.(dp0
Vdj0x5m6
p1
I1
sVcz50ccn
p2
I1
s.(dp0
Vcz50ccn
p1
I1
sVdjjfmo5
p2
I1
s.(dp0
Vdmlt8kp
p1
I1
sVcz50ccn
p2
I1
s.(dp0
Vcz50ccn
p1
I1
sVdmlw7r8
p2
I1
s.(dp0
Vcz50ccn
p1
I1
sVdmlw7r8
p2
I1
s.(dp0
Vcz50ccn
p1
I1
sVdmlw7r8
p2
I1
s.(dp0
Vcz50ccn
p1
I1
sVdmlw7r8
p2
I1
s.