(dp0
Vd14aupt
p1
I1
s.(dp0
Vd4ze7l4
p1
I1
sVd14aupt
p2
I1
s.(dp0
Vd9gdkyn
p1
I1
sVd14aupt
p2
I1
s.(dp0
Vddwqbyh
p1
I1
sVd14aupt
p2
I1
s.(dp0
Vdeu4fgr
p1
I1
sVd14aupt
p2
I1
s.(dp0
Vdje2a98
p1
I1
sVd14aupt
p2
I1
s.(dp0
Vdje2a98
p1
I1
sVd14aupt
p2
I1
s.