(dp0
Vcz2zlhh
p1
I1
s.(dp0
Vd05035o
p1
I1
sVcz2zlhh
p2
I1
s.(dp0
Vcz2zlhh
p1
I1
sVd058elj
p2
I1
s.(dp0
Vd28l9cu
p1
I1
sVcz2zlhh
p2
I1
s.(dp0
Vcz2zlhh
p1
I1
sVd41ymlo
p2
I1
s.(dp0
Vcz2zlhh
p1
I1
sVd9171bl
p2
I1
s.(dp0
Vcz2zlhh
p1
I1
sVd9h5hbj
p2
I1
s.(dp0
Vcz2zlhh
p1
I1
sVdci7lt1
p2
I1
s.(dp0
Vcz2zlhh
p1
I1
sVdcia5ae
p2
I1
s.(dp0
Vcz2zlhh
p1
I1
sVdctepux
p2
I1
s.(dp0
Vcz2zlhh
p1
I1
sVdd4kqmb
p2
I1
s.(dp0
Vcz2zlhh
p1
I1
sVdd6jy2c
p2
I1
s.(dp0
Vcz2zlhh
p1
I1
sVdd6jy2c
p2
I1
s.(dp0
Vcz2zlhh
p1
I1
sVdd6jy2c
p2
I1
s.(dp0
Vcz2zlhh
p1
I1
sVdd6jy2c
p2
I1
s.(dp0
Vcz2zlhh
p1
I1
sVdf6ru9r
p2
I1
s.(dp0
Vcz2zlhh
p1
I1
sVdjedv6z
p2
I1
s.