(dp0
Vcyisouj
p1
I1
s.(dp0
Vcykoqsx
p1
I1
sVcyisouj
p2
I1
s.(dp0
Vcyn35ha
p1
I1
sVcyisouj
p2
I1
s.(dp0
Vcyisouj
p1
I1
sVcypt1ox
p2
I1
s.(dp0
Vcyuw1vp
p1
I1
sVcyisouj
p2
I1
s.(dp0
Vcyy1twm
p1
I1
sVcyisouj
p2
I1
s.(dp0
Vcyy1twm
p1
I1
sVcyisouj
p2
I1
s.(dp0
Vcz1liz8
p1
I1
sVcyisouj
p2
I1
s.(dp0
Vcz1m55d
p1
I1
sVcyisouj
p2
I1
s.(dp0
Vcz3yhk8
p1
I1
sVcyisouj
p2
I1
s.(dp0
Vcyisouj
p1
I1
sVcz7sizd
p2
I1
s.(dp0
Vczavb85
p1
I1
sVcyisouj
p2
I1
s.(dp0
Vcyisouj
p1
I1
sVczcuqkx
p2
I1
s.(dp0
Vcyisouj
p1
I1
sVczftqa5
p2
I1
s.(dp0
Vczirwrl
p1
I1
sVcyisouj
p2
I1
s.(dp0
Vcyisouj
p1
I1
sVczis651
p2
I1
s.(dp0
Vcyisouj
p1
I1
sVczjohf9
p2
I1
s.(dp0
Vcyisouj
p1
I1
sVczk2ldd
p2
I1
s.(dp0
Vczn23xq
p1
I1
sVcyisouj
p2
I1
s.(dp0
Vcyisouj
p1
I1
sVcznrk7o
p2
I1
s.(dp0
Vczxnlis
p1
I1
sVcyisouj
p2
I1
s.(dp0
Vd00310q
p1
I1
sVcyisouj
p2
I1
s.(dp0
Vd085ame
p1
I1
sVcyisouj
p2
I1
s.(dp0
Vcyisouj
p1
I1
sVd0npo1b
p2
I1
s.(dp0
Vcyisouj
p1
I1
sVd0wrqeg
p2
I1
s.(dp0
Vcyisouj
p1
I1
sVd0z5wbt
p2
I1
s.(dp0
Vcyisouj
p1
I1
sVd0z5wbt
p2
I1
s.(dp0
Vcyisouj
p1
I1
sVd116c8o
p2
I1
s.(dp0
Vd13qskk
p1
I1
sVcyisouj
p2
I1
s.(dp0
Vd1c8j2k
p1
I1
sVcyisouj
p2
I1
s.(dp0
Vcyisouj
p1
I1
sVd1iah0a
p2
I1
s.(dp0
Vcyisouj
p1
I1
sVd1ixbbp
p2
I1
s.(dp0
Vcyisouj
p1
I1
sVd1ixbbp
p2
I1
s.(dp0
Vd1lshgs
p1
I1
sVcyisouj
p2
I1
s.(dp0
Vd1nva71
p1
I1
sVcyisouj
p2
I1
s.(dp0
Vcyisouj
p1
I1
sVd1sdzfj
p2
I1
s.(dp0
Vd1we4nf
p1
I1
sVcyisouj
p2
I1
s.(dp0
Vcyisouj
p1
I1
sVd1zuacj
p2
I1
s.(dp0
Vcyisouj
p1
I1
sVd1zuacj
p2
I1
s.(dp0
Vcyisouj
p1
I1
sVd22nc44
p2
I1
s.(dp0
Vd2aetws
p1
I1
sVcyisouj
p2
I1
s.(dp0
Vd2b2zgj
p1
I1
sVcyisouj
p2
I1
s.(dp0
Vd2f1qw0
p1
I1
sVcyisouj
p2
I1
s.(dp0
Vd2i3d8v
p1
I1
sVcyisouj
p2
I1
s.(dp0
Vcyisouj
p1
I1
sVd2iy47q
p2
I1
s.(dp0
Vcyisouj
p1
I1
sVd2lubw7
p2
I1
s.(dp0
Vd2npzus
p1
I1
sVcyisouj
p2
I1
s.(dp0
Vcyisouj
p1
I1
sVd2rpgg4
p2
I1
s.(dp0
Vd2u26wl
p1
I1
sVcyisouj
p2
I1
s.(dp0
Vd2xwkpn
p1
I1
sVcyisouj
p2
I1
s.(dp0
Vcyisouj
p1
I1
sVd334xt6
p2
I1
s.(dp0
Vd3djr99
p1
I1
sVcyisouj
p2
I1
s.(dp0
Vcyisouj
p1
I1
sVd3eqmue
p2
I1
s.(dp0
Vd3guyke
p1
I1
sVcyisouj
p2
I1
s.(dp0
Vd3oo1x5
p1
I1
sVcyisouj
p2
I1
s.(dp0
Vd3q70wo
p1
I1
sVcyisouj
p2
I1
s.(dp0
Vd3tpqwf
p1
I1
sVcyisouj
p2
I1
s.(dp0
Vcyisouj
p1
I1
sVd3wnc4w
p2
I1
s.(dp0
Vd3y700n
p1
I1
sVcyisouj
p2
I1
s.(dp0
Vd474g3c
p1
I1
sVcyisouj
p2
I1
s.(dp0
Vd4b7azg
p1
I1
sVcyisouj
p2
I1
s.(dp0
Vd4bhc72
p1
I1
sVcyisouj
p2
I1
s.(dp0
Vcyisouj
p1
I1
sVd4bt747
p2
I1
s.(dp0
Vcyisouj
p1
I1
sVd4bt747
p2
I1
s.(dp0
Vcyisouj
p1
I1
sVd4bt747
p2
I1
s.(dp0
Vcyisouj
p1
I1
sVd4bt747
p2
I1
s.(dp0
Vcyisouj
p1
I1
sVd4bt747
p2
I1
s.(dp0
Vd4gegzs
p1
I1
sVcyisouj
p2
I1
s.(dp0
Vd4jh41d
p1
I1
sVcyisouj
p2
I1
s.(dp0
Vd4mj2sx
p1
I1
sVcyisouj
p2
I1
s.(dp0
Vd4n1xho
p1
I1
sVcyisouj
p2
I1
s.(dp0
Vd4takdo
p1
I1
sVcyisouj
p2
I1
s.(dp0
Vcyisouj
p1
I1
sVd4tlhqj
p2
I1
s.(dp0
Vd4vfjkl
p1
I1
sVcyisouj
p2
I1
s.(dp0
Vcyisouj
p1
I1
sVd4w7d17
p2
I1
s.(dp0
Vcyisouj
p1
I1
sVd4wfecu
p2
I1
s.(dp0
Vd574m02
p1
I1
sVcyisouj
p2
I1
s.(dp0
Vd57gaqx
p1
I1
sVcyisouj
p2
I1
s.(dp0
Vd5cpt3i
p1
I1
sVcyisouj
p2
I1
s.(dp0
Vd5gvv10
p1
I1
sVcyisouj
p2
I1
s.(dp0
Vd5j04y7
p1
I1
sVcyisouj
p2
I1
s.(dp0
Vd5j04y7
p1
I1
sVcyisouj
p2
I1
s.(dp0
Vd5lbtwj
p1
I1
sVcyisouj
p2
I1
s.(dp0
Vd5w8grl
p1
I1
sVcyisouj
p2
I1
s.(dp0
Vd64mves
p1
I1
sVcyisouj
p2
I1
s.(dp0
Vd64mves
p1
I1
sVcyisouj
p2
I1
s.(dp0
Vd65l0ge
p1
I1
sVcyisouj
p2
I1
s.(dp0
Vd66z28p
p1
I1
sVcyisouj
p2
I1
s.(dp0
Vd66zodf
p1
I1
sVcyisouj
p2
I1
s.(dp0
Vcyisouj
p1
I1
sVd6cwgwv
p2
I1
s.(dp0
Vcyisouj
p1
I1
sVd6efkbh
p2
I1
s.(dp0
Vd6iq8tf
p1
I1
sVcyisouj
p2
I1
s.(dp0
Vd6iq8tf
p1
I1
sVcyisouj
p2
I1
s.(dp0
Vcyisouj
p1
I1
sVd6kmq8e
p2
I1
s.(dp0
Vd6s7v2g
p1
I1
sVcyisouj
p2
I1
s.(dp0
Vcyisouj
p1
I1
sVd6xoosx
p2
I1
s.(dp0
Vd6yw636
p1
I1
sVcyisouj
p2
I1
s.(dp0
Vcyisouj
p1
I1
sVd71jen7
p2
I1
s.(dp0
Vcyisouj
p1
I1
sVd7ckuk5
p2
I1
s.(dp0
Vd7ftee2
p1
I1
sVcyisouj
p2
I1
s.(dp0
Vcyisouj
p1
I1
sVd7kbtsh
p2
I1
s.(dp0
Vd7lyb7k
p1
I1
sVcyisouj
p2
I1
s.(dp0
Vd7qwlix
p1
I1
sVcyisouj
p2
I1
s.(dp0
Vd7qwlix
p1
I1
sVcyisouj
p2
I1
s.(dp0
Vcyisouj
p1
I1
sVd7z84hv
p2
I1
s.(dp0
Vd80nmdk
p1
I1
sVcyisouj
p2
I1
s.(dp0
Vd80nmdk
p1
I1
sVcyisouj
p2
I1
s.(dp0
Vd84gm0l
p1
I1
sVcyisouj
p2
I1
s.(dp0
Vd8(dp0
Vcyisouj
p1
I1
sVdp4xgwd
p2
I1
s.