(dp0
Vcyi1m6g
p1
I1
s.(dp0
Vcylnctg
p1
I1
sVcyi1m6g
p2
I1
s.(dp0
Vcyn8ui7
p1
I1
sVcyi1m6g
p2
I1
s.(dp0
Vcyozzhz
p1
I1
sVcyi1m6g
p2
I1
s.(dp0
Vcypi1zq
p1
I1
sVcyi1m6g
p2
I1
s.(dp0
Vcypoqcf
p1
I1
sVcyi1m6g
p2
I1
s.(dp0
Vcyr6e2y
p1
I1
sVcyi1m6g
p2
I1
s.(dp0
Vcyi1m6g
p1
I1
sVcys55td
p2
I1
s.(dp0
Vcysy5cj
p1
I1
sVcyi1m6g
p2
I1
s.(dp0
Vcyt55c8
p1
I1
sVcyi1m6g
p2
I1
s.(dp0
Vcytb76l
p1
I1
sVcyi1m6g
p2
I1
s.(dp0
Vcyi1m6g
p1
I1
sVcyxwur6
p2
I1
s.(dp0
Vcyz7bqc
p1
I1
sVcyi1m6g
p2
I1
s.(dp0
Vcyz9j9k
p1
I1
sVcyi1m6g
p2
I1
s.(dp0
Vcyzb2xb
p1
I1
sVcyi1m6g
p2
I1
s.(dp0
Vcyzsqyf
p1
I1
sVcyi1m6g
p2
I1
s.(dp0
Vcz4srt9
p1
I1
sVcyi1m6g
p2
I1
s.(dp0
Vcz580s6
p1
I1
sVcyi1m6g
p2
I1
s.(dp0
Vcz5s22z
p1
I1
sVcyi1m6g
p2
I1
s.(dp0
Vcz6ant2
p1
I1
sVcyi1m6g
p2
I1
s.(dp0
Vcyi1m6g
p1
I1
sVcz7oxs2
p2
I1
s.(dp0
Vcz7zkbf
p1
I1
sVcyi1m6g
p2
I1
s.(dp0
Vcyi1m6g
p1
I1
sVcz82j38
p2
I1
s.(dp0
Vcz8pqvo
p1
I1
sVcyi1m6g
p2
I1
s.(dp0
Vcyi1m6g
p1
I1
sVczccc16
p2
I1
s.(dp0
Vcyi1m6g
p1
I1
sVczcnzj5
p2
I1
s.(dp0
Vczed5jy
p1
I1
sVcyi1m6g
p2
I1
s.(dp0
Vczed5jy
p1
I1
sVcyi1m6g
p2
I1
s.(dp0
Vczed5jy
p1
I1
sVcyi1m6g
p2
I1
s.(dp0
Vczh5s8g
p1
I1
sVcyi1m6g
p2
I1
s.(dp0
Vcyi1m6g
p1
I1
sVczjl2ns
p2
I1
s.(dp0
Vcyi1m6g
p1
I1
sVczk2if1
p2
I1
s.(dp0
Vczm8sek
p1
I1
sVcyi1m6g
p2
I1
s.(dp0
Vczmrg5i
p1
I1
sVcyi1m6g
p2
I1
s.(dp0
Vcznc5wq
p1
I1
sVcyi1m6g
p2
I1
s.(dp0
Vczpn3z6
p1
I1
sVcyi1m6g
p2
I1
s.(dp0
Vczqw520
p1
I1
sVcyi1m6g
p2
I1
s.(dp0
Vczvy9ie
p1
I1
sVcyi1m6g
p2
I1
s.(dp0
Vczxssm3
p1
I1
sVcyi1m6g
p2
I1
s.(dp0
Vczyxszu
p1
I1
sVcyi1m6g
p2
I1
s.(dp0
Vd009e66
p1
I1
sVcyi1m6g
p2
I1
s.(dp0
Vd01b4sx
p1
I1
sVcyi1m6g
p2
I1
s.(dp0
Vd01b4sx
p1
I1
sVcyi1m6g
p2
I1
s.(dp0
Vcyi1m6g
p1
I1
sVd01rawg
p2
I1
s.(dp0
Vd02guzi
p1
I1
sVcyi1m6g
p2
I1
s.(dp0
Vd02rh16
p1
I1
sVcyi1m6g
p2
I1
s.(dp0
Vd02rh16
p1
I1
sVcyi1m6g
p2
I1
s.(dp0
Vcyi1m6g
p1
I1
sVd05i89k
p2
I1
s.(dp0
Vd05l6oy
p1
I1
sVcyi1m6g
p2
I1
s.(dp0
Vd05qb2w
p1
I1
sVcyi1m6g
p2
I1
s.(dp0
Vcyi1m6g
p1
I1
sVd075tfb
p2
I1
s.(dp0
Vd091a87
p1
I1
sVcyi1m6g
p2
I1
s.(dp0
Vd0b8tlr
p1
I1
sVcyi1m6g
p2
I1
s.(dp0
Vd0er0mj
p1
I1
sVcyi1m6g
p2
I1
s.(dp0
Vd0eztik
p1
I1
sVcyi1m6g
p2
I1
s.(dp0
Vcyi1m6g
p1
I1
sVd0jks2g
p2
I1
s.(dp0
Vcyi1m6g
p1
I1
sVd0me20p
p2
I1
s.(dp0
Vd0n7o21
p1
I1
sVcyi1m6g
p2
I1
s.(dp0
Vcyi1m6g
p1
I1
sVd0q0sou
p2
I1
s.(dp0
Vd0qki64
p1
I1
sVcyi1m6g
p2
I1
s.(dp0
Vcyi1m6g
p1
I1
sVd0qmdvp
p2
I1
s.(dp0
Vcyi1m6g
p1
I1
sVd0qpxu7
p2
I1
s.(dp0
Vcyi1m6g
p1
I1
sVd0qpxu7
p2
I1
s.(dp0
Vcyi1m6g
p1
I1
sVd0uxbd7
p2
I1
s.(dp0
Vcyi1m6g
p1
I1
sVd0x4egh
p2
I1
s.(dp0
Vd0xrdb3
p1
I1
sVcyi1m6g
p2
I1
s.(dp0
Vd125ojd
p1
I1
sVcyi1m6g
p2
I1
s.(dp0
Vd13oegw
p1
I1
sVcyi1m6g
p2
I1
s.(dp0
Vcyi1m6g
p1
I1
sVd1da0ha
p2
I1
s.(dp0
Vd1dhvzs
p1
I1
sVcyi1m6g
p2
I1
s.(dp0
Vd1iq9k7
p1
I1
sVcyi1m6g
p2
I1
s.(dp0
Vcyi1m6g
p1
I1
sVd1kogqq
p2
I1
s.(dp0
Vd1ndsdt
p1
I1
sVcyi1m6g
p2
I1
s.(dp0
Vd1ndsdt
p1
I1
sVcyi1m6g
p2
I1
s.(dp0
Vd1p79ha
p1
I1
sVcyi1m6g
p2
I1
s.(dp0
Vd1q0os3
p1
I1
sVcyi1m6g
p2
I1
s.(dp0
Vcyi1m6g
p1
I1
sVd1qes4p
p2
I1
s.(dp0
Vd1qofy8
p1
I1
sVcyi1m6g
p2
I1
s.(dp0
Vd1t3urf
p1
I1
sVcyi1m6g
p2
I1
s.(dp0
Vcyi1m6g
p1
I1
sVd1v8ejp
p2
I1
s.(dp0
Vcyi1m6g
p1
I1
sVd1wbodt
p2
I1
s.(dp0
Vcyi1m6g
p1
I1
sVd1wdfua
p2
I1
s.(dp0
Vd1wnjcu
p1
I1
sVcyi1m6g
p2
I1
s.(dp0
Vd1zk8gj
p1
I1
sVcyi1m6g
p2
I1
s.(dp0
Vd21curt
p1
I1
sVcyi1m6g
p2
I1
s.(dp0
Vd232i98
p1
I1
sVcyi1m6g
p2
I1
s.(dp0
Vd26ekd0
p1
I1
sVcyi1m6g
p2
I1
s.(dp0
Vd26zcwy
p1
I1
sVcyi1m6g
p2
I1
s.(dp0
Vd27bt2d
p1
I1
sVcyi1m6g
p2
I1
s.(dp0
Vd27bt2d
p1
I1
sVcyi1m6g
p2
I1
s.(dp0
Vd27hccf
p1
I1
sVcyi1m6g
p2
I1
s.(dp0
Vd2bd9os
p1
I1
sVcyi1m6g
p2
I1
s.(dp0
Vd2e4s85
p1
I1
sVcyi1m6g
p2
I1
s.(dp0
Vd2ilgf7
p1
I1
sVcyi1m6g
p2
I1
s.(dp0
Vcyi1m6g
p1
I1
sVd2imc7f
p2
I1
s.(dp0
Vd2js5c0
p1
I1
sVcyi1m6g
p2
I1
s.(dp0
Vd2js5c0
p1
I1
sVcyi1m6g
p2
I1
s.(dp0
Vcyi1m6g
p1
I1
sVd2kv40q
p2
I1
s.(dp0
Vcyi1m6g
p1
I1
sVd2qfg7k
p2
I1
s.(dp0
Vd2s7lcj
p1
I1
sVcyi1m6g
p2
I1
s.(dp0
Vd2sah9v
p1
I1
sVcyi1m6g
p2
I1
s.(dp0
Vcyi1m6g
p1
I1
sVd2t4czj
p2
I1
s.(dp0
Vd2zhyfj
p1
I1
sVcyi1m6g
p2
I1
s.(dp0
Vcyi1m6g
p1
I1
sVd33dbaq
p2
I1
s.(dp0
Vd349mtp
p1
I1
sVcyi1m6g
p2
I1
s.(dp0
Vcyi1m6g
p1
I1
sVd35gv7k
p2
I1
s.(dp0
Vcyi1m6g
p1
I1
sVd37lepj
p2
I1
s.(dp0
Vcyi1m6g
p1
I1
sVd37lepj
p2
I1
s.(dp0
Vd3(dp0
Vdoxnwvo
p1
I1
sVcyi1m6g
p2
I1
s.