(dp0
Vd0nvjtw
p1
I1
s.(dp0
Vd1k17jw
p1
I1
sVd0nvjtw
p2
I1
s.(dp0
Vd2zfdbm
p1
I1
sVd0nvjtw
p2
I1
s.(dp0
Vd0nvjtw
p1
I1
sVd30lsu9
p2
I1
s.(dp0
Vd0nvjtw
p1
I1
sVd30lsu9
p2
I1
s.(dp0
Vd375cj6
p1
I1
sVd0nvjtw
p2
I1
s.(dp0
Vd9ceqg5
p1
I1
sVd0nvjtw
p2
I1
s.(dp0
Vd0nvjtw
p1
I1
sVdfyj9dh
p2
I1
s.(dp0
Vdje57i1
p1
I1
sVd0nvjtw
p2
I1
s.