(dp0
Vcyjambk
p1
I1
s.(dp0
Vcyjambk
p1
I1
sVcyqhsob
p2
I1
s.(dp0
Vcyjambk
p1
I1
sVcyyltmp
p2
I1
s.(dp0
Vcyjambk
p1
I1
sVcyzly9w
p2
I1
s.(dp0
Vcyjambk
p1
I1
sVczicv9v
p2
I1
s.(dp0
Vcyjambk
p1
I1
sVczzr78s
p2
I1
s.(dp0
Vcyjambk
p1
I1
sVd0rbhvi
p2
I1
s.(dp0
Vd16o4jy
p1
I1
sVcyjambk
p2
I1
s.(dp0
Vd1iluyj
p1
I1
sVcyjambk
p2
I1
s.(dp0
Vcyjambk
p1
I1
sVd1noyrd
p2
I1
s.(dp0
Vd1ztn4e
p1
I1
sVcyjambk
p2
I1
s.(dp0
Vcyjambk
p1
I1
sVd2plbwm
p2
I1
s.(dp0
Vcyjambk
p1
I1
sVd2tozvr
p2
I1
s.(dp0
Vcyjambk
p1
I1
sVd33gy8n
p2
I1
s.(dp0
Vcyjambk
p1
I1
sVd36gaox
p2
I1
s.(dp0
Vcyjambk
p1
I1
sVd3mldej
p2
I1
s.(dp0
Vcyjambk
p1
I1
sVd3y2kt0
p2
I1
s.(dp0
Vcyjambk
p1
I1
sVd4c2g3o
p2
I1
s.(dp0
Vcyjambk
p1
I1
sVd4ijx76
p2
I1
s.(dp0
Vd53i51w
p1
I1
sVcyjambk
p2
I1
s.(dp0
Vcyjambk
p1
I1
sVd56dyzk
p2
I1
s.(dp0
Vcyjambk
p1
I1
sVd5i3ajm
p2
I1
s.(dp0
Vcyjambk
p1
I1
sVd5s0axs
p2
I1
s.(dp0
Vcyjambk
p1
I1
sVd623y9f
p2
I1
s.(dp0
Vcyjambk
p1
I1
sVd68kqui
p2
I1
s.(dp0
Vd69fc6w
p1
I1
sVcyjambk
p2
I1
s.(dp0
Vcyjambk
p1
I1
sVd6eopyq
p2
I1
s.(dp0
Vcyjambk
p1
I1
sVd7l4mf3
p2
I1
s.(dp0
Vcyjambk
p1
I1
sVd7t01wd
p2
I1
s.(dp0
Vcyjambk
p1
I1
sVd82otx6
p2
I1
s.(dp0
Vcyjambk
p1
I1
sVd84uepz
p2
I1
s.(dp0
Vd8bsqa2
p1
I1
sVcyjambk
p2
I1
s.(dp0
Vcyjambk
p1
I1
sVd8k8ioz
p2
I1
s.(dp0
Vcyjambk
p1
I1
sVd8k8ioz
p2
I1
s.(dp0
Vcyjambk
p1
I1
sVd8knjyi
p2
I1
s.(dp0
Vcyjambk
p1
I1
sVd91mnlr
p2
I1
s.(dp0
Vcyjambk
p1
I1
sVd91xrfb
p2
I1
s.(dp0
Vcyjambk
p1
I1
sVd96xqaw
p2
I1
s.(dp0
Vcyjambk
p1
I1
sVd9dr5mh
p2
I1
s.(dp0
Vcyjambk
p1
I1
sVd9pprfk
p2
I1
s.(dp0
Vd9uvdfh
p1
I1
sVcyjambk
p2
I1
s.(dp0
Vcyjambk
p1
I1
sVd9wah07
p2
I1
s.(dp0
Vcyjambk
p1
I1
sVd9xq2xe
p2
I1
s.(dp0
Vcyjambk
p1
I1
sVda1vfsf
p2
I1
s.(dp0
Vcyjambk
p1
I1
sVdaad3r6
p2
I1
s.(dp0
Vcyjambk
p1
I1
sVdacku0x
p2
I1
s.(dp0
Vcyjambk
p1
I1
sVdai5pv1
p2
I1
s.(dp0
Vcyjambk
p1
I1
sVdam49sh
p2
I1
s.(dp0
Vcyjambk
p1
I1
sVdawijex
p2
I1
s.(dp0
Vdb2g68m
p1
I1
sVcyjambk
p2
I1
s.(dp0
Vdbe8m7m
p1
I1
sVcyjambk
p2
I1
s.(dp0
Vdbef415
p1
I1
sVcyjambk
p2
I1
s.(dp0
Vcyjambk
p1
I1
sVdbf14cw
p2
I1
s.(dp0
Vcyjambk
p1
I1
sVdbk74fw
p2
I1
s.(dp0
Vcyjambk
p1
I1
sVdbspxch
p2
I1
s.(dp0
Vcyjambk
p1
I1
sVdcc8wyl
p2
I1
s.(dp0
Vcyjambk
p1
I1
sVdd1scxb
p2
I1
s.(dp0
Vdd1shk7
p1
I1
sVcyjambk
p2
I1
s.(dp0
Vcyjambk
p1
I1
sVdd6zl8g
p2
I1
s.(dp0
Vddbteao
p1
I1
sVcyjambk
p2
I1
s.(dp0
Vcyjambk
p1
I1
sVddq17px
p2
I1
s.(dp0
Vcyjambk
p1
I1
sVddtoyi6
p2
I1
s.(dp0
Vcyjambk
p1
I1
sVddtwf3a
p2
I1
s.(dp0
Vcyjambk
p1
I1
sVdeadikc
p2
I1
s.(dp0
Vcyjambk
p1
I1
sVdegzra8
p2
I1
s.(dp0
Vcyjambk
p1
I1
sVdetd9o0
p2
I1
s.(dp0
Vdfaizp1
p1
I1
sVcyjambk
p2
I1
s.(dp0
Vcyjambk
p1
I1
sVdfj3bm0
p2
I1
s.(dp0
Vcyjambk
p1
I1
sVdfoy5f0
p2
I1
s.(dp0
Vcyjambk
p1
I1
sVdfre6sd
p2
I1
s.(dp0
Vcyjambk
p1
I1
sVdftcpzv
p2
I1
s.(dp0
Vcyjambk
p1
I1
sVdgh8id4
p2
I1
s.(dp0
Vcyjambk
p1
I1
sVdgit7am
p2
I1
s.(dp0
Vcyjambk
p1
I1
sVdgrzm92
p2
I1
s.(dp0
Vcyjambk
p1
I1
sVdgwpo0b
p2
I1
s.(dp0
Vcyjambk
p1
I1
sVdhne5rb
p2
I1
s.(dp0
Vcyjambk
p1
I1
sVdi1jshy
p2
I1
s.(dp0
Vcyjambk
p1
I1
sVdi9kqup
p2
I1
s.(dp0
Vdiok72g
p1
I1
sVcyjambk
p2
I1
s.(dp0
Vcyjambk
p1
I1
sVdioqd3x
p2
I1
s.(dp0
Vcyjambk
p1
I1
sVdip6jdz
p2
I1
s.(dp0
Vcyjambk
p1
I1
sVdj2bef8
p2
I1
s.(dp0
Vcyjambk
p1
I1
sVdj2bef8
p2
I1
s.(dp0
Vdjn8aba
p1
I1
sVcyjambk
p2
I1
s.(dp0
Vcyjambk
p1
I1
sVdju98l9
p2
I1
s.