(dp0
Vcyv8pfy
p1
I1
s.(dp0
Vcyv8pfy
p1
I1
sVcz4hyop
p2
I1
s.(dp0
Vcyv8pfy
p1
I1
sVcz70cts
p2
I1
s.(dp0
Vcyv8pfy
p1
I1
sVczsvme6
p2
I1
s.(dp0
Vcyv8pfy
p1
I1
sVd0h9777
p2
I1
s.(dp0
Vd14d34n
p1
I1
sVcyv8pfy
p2
I1
s.(dp0
Vcyv8pfy
p1
I1
sVd2p32a8
p2
I1
s.(dp0
Vd32o1sm
p1
I1
sVcyv8pfy
p2
I1
s.(dp0
Vd3i2lj7
p1
I1
sVcyv8pfy
p2
I1
s.(dp0
Vd3i2lj7
p1
I1
sVcyv8pfy
p2
I1
s.(dp0
Vd3i2lj7
p1
I1
sVcyv8pfy
p2
I1
s.(dp0
Vcyv8pfy
p1
I1
sVd4o141o
p2
I1
s.(dp0
Vcyv8pfy
p1
I1
sVd5bodt6
p2
I1
s.(dp0
Vcyv8pfy
p1
I1
sVd6dz2th
p2
I1
s.(dp0
Vcyv8pfy
p1
I1
sVd7p1sdt
p2
I1
s.(dp0
Vcyv8pfy
p1
I1
sVdakat7k
p2
I1
s.(dp0
Vdauu54v
p1
I1
sVcyv8pfy
p2
I1
s.(dp0
Vdbppoma
p1
I1
sVcyv8pfy
p2
I1
s.(dp0
Vcyv8pfy
p1
I1
sVdbw55r3
p2
I1
s.(dp0
Vcyv8pfy
p1
I1
sVdc23jc2
p2
I1
s.(dp0
Vcyv8pfy
p1
I1
sVddqsuuk
p2
I1
s.(dp0
Vcyv8pfy
p1
I1
sVdh5j0t3
p2
I1
s.(dp0
Vcyv8pfy
p1
I1
sVdh5lslo
p2
I1
s.(dp0
Vcyv8pfy
p1
I1
sVdhs22bt
p2
I1
s.(dp0
Vcyv8pfy
p1
I1
sVdi8g5ap
p2
I1
s.(dp0
Vdjoozpe
p1
I1
sVcyv8pfy
p2
I1
s.(dp0
Vdkzir1o
p1
I1
sVcyv8pfy
p2
I1
s.(dp0
Vcyv8pfy
p1
I1
sVdmtdhj9
p2
I1
s.(dp0
Vdnl3a5s
p1
I1
sVcyv8pfy
p2
I1
s.(dp0
Vcyv8pfy
p1
I1
sVdoq1qjw
p2
I1
s.