(dp0
Vcz84ty3
p1
I1
s.(dp0
Vczvsdk4
p1
I1
sVcz84ty3
p2
I1
s.(dp0
Vcz84ty3
p1
I1
sVd1z3fe5
p2
I1
s.(dp0
Vcz84ty3
p1
I1
sVd4ndl1q
p2
I1
s.(dp0
Vcz84ty3
p1
I1
sVd5jttro
p2
I1
s.(dp0
Vd5nq3b4
p1
I1
sVcz84ty3
p2
I1
s.(dp0
Vd5nq3b4
p1
I1
sVcz84ty3
p2
I1
s.(dp0
Vcz84ty3
p1
I1
sVd7jovbb
p2
I1
s.(dp0
Vcz84ty3
p1
I1
sVd8xan9j
p2
I1
s.(dp0
Vcz84ty3
p1
I1
sVd8xan9j
p2
I1
s.(dp0
Vdam0zbh
p1
I1
sVcz84ty3
p2
I1
s.(dp0
Vdaxg48t
p1
I1
sVcz84ty3
p2
I1
s.(dp0
Vdbcbnu0
p1
I1
sVcz84ty3
p2
I1
s.(dp0
Vcz84ty3
p1
I1
sVdcabwxi
p2
I1
s.(dp0
Vcz84ty3
p1
I1
sVdcabwxi
p2
I1
s.(dp0
Vcz84ty3
p1
I1
sVdd0z4d5
p2
I1
s.(dp0
Vcz84ty3
p1
I1
sVde0bgq0
p2
I1
s.(dp0
Vcz84ty3
p1
I1
sVdexeyeg
p2
I1
s.(dp0
Vcz84ty3
p1
I1
sVdf4ifp3
p2
I1
s.(dp0
Vcz84ty3
p1
I1
sVdft1xb4
p2
I1
s.(dp0
Vcz84ty3
p1
I1
sVdftuuj9
p2
I1
s.(dp0
Vcz84ty3
p1
I1
sVdh8x3jv
p2
I1
s.(dp0
Vdhifyz3
p1
I1
sVcz84ty3
p2
I1
s.(dp0
Vcz84ty3
p1
I1
sVdhimpcy
p2
I1
s.(dp0
Vdjk6179
p1
I1
sVcz84ty3
p2
I1
s.(dp0
Vcz84ty3
p1
I1
sVdk8qdcn
p2
I1
s.(dp0
Vdkcuxji
p1
I1
sVcz84ty3
p2
I1
s.(dp0
Vcz84ty3
p1
I1
sVdkmy322
p2
I1
s.(dp0
Vcz84ty3
p1
I1
sVdkmy322
p2
I1
s.