(dp0
Vcyysq7r
p1
I1
s.(dp0
Vcyysq7r
p1
I1
sVcztehux
p2
I1
s.(dp0
Vcyysq7r
p1
I1
sVd90sp81
p2
I1
s.(dp0
Vcyysq7r
p1
I1
sVdcy1zjm
p2
I1
s.(dp0
Vcyysq7r
p1
I1
sVdh0sjz9
p2
I1
s.(dp0
Vcyysq7r
p1
I1
sVdicjy00
p2
I1
s.