(dp0
Vcyp6t85
p1
I1
s.(dp0
Vcyr36fa
p1
I1
sVcyp6t85
p2
I1
s.(dp0
Vcys30zm
p1
I1
sVcyp6t85
p2
I1
s.(dp0
Vcyp6t85
p1
I1
sVcysor3i
p2
I1
s.(dp0
Vcz0al0v
p1
I1
sVcyp6t85
p2
I1
s.(dp0
Vcyp6t85
p1
I1
sVcz15msm
p2
I1
s.(dp0
Vcyp6t85
p1
I1
sVcz1efuh
p2
I1
s.(dp0
Vcz8plyv
p1
I1
sVcyp6t85
p2
I1
s.(dp0
Vcz8txa5
p1
I1
sVcyp6t85
p2
I1
s.(dp0
Vcyp6t85
p1
I1
sVczbn3po
p2
I1
s.(dp0
Vczeoe8w
p1
I1
sVcyp6t85
p2
I1
s.(dp0
Vczgl1uo
p1
I1
sVcyp6t85
p2
I1
s.(dp0
Vczhsy2v
p1
I1
sVcyp6t85
p2
I1
s.(dp0
Vczmgzfh
p1
I1
sVcyp6t85
p2
I1
s.(dp0
Vczoflja
p1
I1
sVcyp6t85
p2
I1
s.(dp0
Vczs3g5b
p1
I1
sVcyp6t85
p2
I1
s.(dp0
Vczyljoa
p1
I1
sVcyp6t85
p2
I1
s.(dp0
Vcyp6t85
p1
I1
sVczyug91
p2
I1
s.(dp0
Vcyp6t85
p1
I1
sVczyug91
p2
I1
s.(dp0
Vd00z3p6
p1
I1
sVcyp6t85
p2
I1
s.(dp0
Vcyp6t85
p1
I1
sVd05tqhe
p2
I1
s.(dp0
Vcyp6t85
p1
I1
sVd07t6ov
p2
I1
s.(dp0
Vcyp6t85
p1
I1
sVd0gbu4q
p2
I1
s.(dp0
Vd0ke695
p1
I1
sVcyp6t85
p2
I1
s.(dp0
Vd103rk4
p1
I1
sVcyp6t85
p2
I1
s.(dp0
Vd12ozbs
p1
I1
sVcyp6t85
p2
I1
s.(dp0
Vcyp6t85
p1
I1
sVd18yk6k
p2
I1
s.(dp0
Vcyp6t85
p1
I1
sVd19rv5m
p2
I1
s.(dp0
Vcyp6t85
p1
I1
sVd19rv5m
p2
I1
s.(dp0
Vcyp6t85
p1
I1
sVd19rv5m
p2
I1
s.(dp0
Vd1ig13e
p1
I1
sVcyp6t85
p2
I1
s.(dp0
Vcyp6t85
p1
I1
sVd1m5585
p2
I1
s.(dp0
Vcyp6t85
p1
I1
sVd1ok16z
p2
I1
s.(dp0
Vcyp6t85
p1
I1
sVd1qetqv
p2
I1
s.(dp0
Vd23g67t
p1
I1
sVcyp6t85
p2
I1
s.(dp0
Vcyp6t85
p1
I1
sVd29sn6p
p2
I1
s.(dp0
Vd2i73ho
p1
I1
sVcyp6t85
p2
I1
s.(dp0
Vcyp6t85
p1
I1
sVd30xqrc
p2
I1
s.(dp0
Vcyp6t85
p1
I1
sVd35zsqx
p2
I1
s.(dp0
Vcyp6t85
p1
I1
sVd3atj9e
p2
I1
s.(dp0
Vd3ktptm
p1
I1
sVcyp6t85
p2
I1
s.(dp0
Vd3unrnw
p1
I1
sVcyp6t85
p2
I1
s.(dp0
Vcyp6t85
p1
I1
sVd4n8a4y
p2
I1
s.(dp0
Vd4wd1c3
p1
I1
sVcyp6t85
p2
I1
s.(dp0
Vd4xq7j4
p1
I1
sVcyp6t85
p2
I1
s.(dp0
Vd55cgza
p1
I1
sVcyp6t85
p2
I1
s.(dp0
Vcyp6t85
p1
I1
sVd55xxpw
p2
I1
s.(dp0
Vcyp6t85
p1
I1
sVd5cekg8
p2
I1
s.(dp0
Vd5fo7y1
p1
I1
sVcyp6t85
p2
I1
s.(dp0
Vd5ihkgh
p1
I1
sVcyp6t85
p2
I1
s.(dp0
Vd5ihkgh
p1
I1
sVcyp6t85
p2
I1
s.(dp0
Vd5ngssh
p1
I1
sVcyp6t85
p2
I1
s.(dp0
Vcyp6t85
p1
I1
sVd5wz0fp
p2
I1
s.(dp0
Vd5xp7sy
p1
I1
sVcyp6t85
p2
I1
s.(dp0
Vcyp6t85
p1
I1
sVd5y49zt
p2
I1
s.(dp0
Vd6fosgz
p1
I1
sVcyp6t85
p2
I1
s.(dp0
Vd6fosgz
p1
I1
sVcyp6t85
p2
I1
s.(dp0
Vd6g8wwd
p1
I1
sVcyp6t85
p2
I1
s.(dp0
Vd6jj4yw
p1
I1
sVcyp6t85
p2
I1
s.(dp0
Vcyp6t85
p1
I1
sVd6jv5yr
p2
I1
s.(dp0
Vcyp6t85
p1
I1
sVd6jv5yr
p2
I1
s.(dp0
Vd6v6hnn
p1
I1
sVcyp6t85
p2
I1
s.(dp0
Vcyp6t85
p1
I1
sVd6vq03v
p2
I1
s.(dp0
Vcyp6t85
p1
I1
sVd6vq03v
p2
I1
s.(dp0
Vd71br2m
p1
I1
sVcyp6t85
p2
I1
s.(dp0
Vd78oygo
p1
I1
sVcyp6t85
p2
I1
s.(dp0
Vd7e2vgw
p1
I1
sVcyp6t85
p2
I1
s.(dp0
Vcyp6t85
p1
I1
sVd7isnmi
p2
I1
s.(dp0
Vcyp6t85
p1
I1
sVd7isnmi
p2
I1
s.(dp0
Vcyp6t85
p1
I1
sVd7k3c6v
p2
I1
s.(dp0
Vd7xli4f
p1
I1
sVcyp6t85
p2
I1
s.(dp0
Vd803e65
p1
I1
sVcyp6t85
p2
I1
s.(dp0
Vcyp6t85
p1
I1
sVd803yfd
p2
I1
s.(dp0
Vcyp6t85
p1
I1
sVd891ah2
p2
I1
s.(dp0
Vcyp6t85
p1
I1
sVd891ah2
p2
I1
s.(dp0
Vcyp6t85
p1
I1
sVd8at0hp
p2
I1
s.(dp0
Vd8f6n6i
p1
I1
sVcyp6t85
p2
I1
s.(dp0
Vd939rmj
p1
I1
sVcyp6t85
p2
I1
s.(dp0
Vcyp6t85
p1
I1
sVd93c3e7
p2
I1
s.(dp0
Vcyp6t85
p1
I1
sVd93c3e7
p2
I1
s.(dp0
Vd97hxh5
p1
I1
sVcyp6t85
p2
I1
s.(dp0
Vd9fex22
p1
I1
sVcyp6t85
p2
I1
s.(dp0
Vd9i2zpm
p1
I1
sVcyp6t85
p2
I1
s.(dp0
Vcyp6t85
p1
I1
sVd9nvsj3
p2
I1
s.(dp0
Vcyp6t85
p1
I1
sVda7xbo3
p2
I1
s.(dp0
Vdamm3fe
p1
I1
sVcyp6t85
p2
I1
s.(dp0
Vcyp6t85
p1
I1
sVdbdjtms
p2
I1
s.(dp0
Vdbht0va
p1
I1
sVcyp6t85
p2
I1
s.(dp0
Vdbi68ra
p1
I1
sVcyp6t85
p2
I1
s.(dp0
Vdbiip5a
p1
I1
sVcyp6t85
p2
I1
s.(dp0
Vdbiur8q
p1
I1
sVcyp6t85
p2
I1
s.(dp0
Vdbmwbbg
p1
I1
sVcyp6t85
p2
I1
s.(dp0
Vdbqgnp1
p1
I1
sVcyp6t85
p2
I1
s.(dp0
Vdbwee6y
p1
I1
sVcyp6t85
p2
I1
s.(dp0
Vcyp6t85
p1
I1
sVdbzchr9
p2
I1
s.(dp0
Vdc8agmx
p1
I1
sVcyp6t85
p2
I1
s.(dp0
Vcyp6t85
p1
I1
sVdcd1t4w
p2
I1
s.(dp0
Vcyp6t85
p1
I1
sVdcel4yy
p2
I1
s.(dp0
Vdcqal7e
p1
I1
sVcyp6t85
p2
I1
s.(dp0
Vdcqbk4f
p1
I1
sVcyp6t85
p2
I1
s.(dp0
Vdcsg3fy
p1
I1
sVcyp6t85
p2
I1
s.(dp0
Vdcujctw
p1
I1
sVcyp6t85
p2
I1
s.(dp0
Vdd3esnu
p1
I1
sVcyp6t85
p2
I1
s.(dp0
Vdd3ho9i
p1
I1
sVcyp6t85
p2
I1
s.(dp0
Vdd9u8y2
p1
I1
sVcyp6t85
p2
I1
s.(dp0
Vddabv3h
p1
I1
sVcyp6t85
p2
I1
s.(dp0
Vcyp6t85
p1
I1
sVddiwsp7
p2
I1
s.(dp0
Vcyp6t85
p1
I1
sVddwzmtt
p2
I1
s.(dp0
Vcy(dp0
Vcyp6t85
p1
I1
sVdkyz7qb
p2
I1
s.