(dp0
Vcyjgf89
p1
I1
s.(dp0
Vcyjgf89
p1
I1
sVcyyiruk
p2
I1
s.(dp0
Vcyjgf89
p1
I1
sVcz6a00x
p2
I1
s.(dp0
Vczw16i2
p1
I1
sVcyjgf89
p2
I1
s.(dp0
Vczw16i2
p1
I1
sVcyjgf89
p2
I1
s.(dp0
Vczz95ky
p1
I1
sVcyjgf89
p2
I1
s.(dp0
Vcyjgf89
p1
I1
sVd0agfed
p2
I1
s.(dp0
Vcyjgf89
p1
I1
sVd0agfed
p2
I1
s.(dp0
Vcyjgf89
p1
I1
sVd0agfed
p2
I1
s.(dp0
Vcyjgf89
p1
I1
sVd0agfed
p2
I1
s.(dp0
Vcyjgf89
p1
I1
sVd0agfed
p2
I1
s.(dp0
Vcyjgf89
p1
I1
sVd0agfed
p2
I1
s.(dp0
Vcyjgf89
p1
I1
sVd0agfed
p2
I1
s.(dp0
Vcyjgf89
p1
I1
sVd0agfed
p2
I1
s.(dp0
Vcyjgf89
p1
I1
sVd0agfed
p2
I1
s.(dp0
Vcyjgf89
p1
I1
sVd0agfed
p2
I1
s.(dp0
Vcyjgf89
p1
I1
sVd0agfed
p2
I1
s.(dp0
Vd0f57y6
p1
I1
sVcyjgf89
p2
I1
s.(dp0
Vcyjgf89
p1
I1
sVd0mv36j
p2
I1
s.(dp0
Vcyjgf89
p1
I1
sVd0s0r48
p2
I1
s.(dp0
Vcyjgf89
p1
I1
sVd1n17ao
p2
I1
s.(dp0
Vcyjgf89
p1
I1
sVd2nyadf
p2
I1
s.(dp0
Vcyjgf89
p1
I1
sVd2vxhiv
p2
I1
s.(dp0
Vcyjgf89
p1
I1
sVd2vxhiv
p2
I1
s.(dp0
Vcyjgf89
p1
I1
sVd34ibi4
p2
I1
s.(dp0
Vd38wry2
p1
I1
sVcyjgf89
p2
I1
s.(dp0
Vcyjgf89
p1
I1
sVd3bkaib
p2
I1
s.(dp0
Vcyjgf89
p1
I1
sVd46bruy
p2
I1
s.(dp0
Vcyjgf89
p1
I1
sVd4fm7p2
p2
I1
s.(dp0
Vd4in9qw
p1
I1
sVcyjgf89
p2
I1
s.(dp0
Vcyjgf89
p1
I1
sVd4w6e43
p2
I1
s.(dp0
Vcyjgf89
p1
I1
sVd4w6e43
p2
I1
s.(dp0
Vcyjgf89
p1
I1
sVd4wkcri
p2
I1
s.(dp0
Vcyjgf89
p1
I1
sVd4wkcri
p2
I1
s.(dp0
Vcyjgf89
p1
I1
sVd4wkcri
p2
I1
s.(dp0
Vcyjgf89
p1
I1
sVd4wkcri
p2
I1
s.(dp0
Vcyjgf89
p1
I1
sVd4wkcri
p2
I1
s.(dp0
Vcyjgf89
p1
I1
sVd4wkcri
p2
I1
s.(dp0
Vcyjgf89
p1
I1
sVd4wkcri
p2
I1
s.(dp0
Vcyjgf89
p1
I1
sVd4wkcri
p2
I1
s.(dp0
Vcyjgf89
p1
I1
sVd4wkcri
p2
I1
s.(dp0
Vcyjgf89
p1
I1
sVd4wkcri
p2
I1
s.(dp0
Vcyjgf89
p1
I1
sVd4wkcri
p2
I1
s.(dp0
Vcyjgf89
p1
I1
sVd4wkcri
p2
I1
s.(dp0
Vcyjgf89
p1
I1
sVd4wkcri
p2
I1
s.(dp0
Vd54slc6
p1
I1
sVcyjgf89
p2
I1
s.(dp0
Vcyjgf89
p1
I1
sVd5ifvqa
p2
I1
s.(dp0
Vd5tsmhx
p1
I1
sVcyjgf89
p2
I1
s.(dp0
Vd5xlspa
p1
I1
sVcyjgf89
p2
I1
s.(dp0
Vd5xlspa
p1
I1
sVcyjgf89
p2
I1
s.(dp0
Vd6gpjsq
p1
I1
sVcyjgf89
p2
I1
s.(dp0
Vcyjgf89
p1
I1
sVd6j97en
p2
I1
s.(dp0
Vcyjgf89
p1
I1
sVd6j97en
p2
I1
s.(dp0
Vcyjgf89
p1
I1
sVd6j97en
p2
I1
s.(dp0
Vcyjgf89
p1
I1
sVd6w6f46
p2
I1
s.(dp0
Vcyjgf89
p1
I1
sVd6w6f46
p2
I1
s.(dp0
Vcyjgf89
p1
I1
sVd7ai9hs
p2
I1
s.(dp0
Vcyjgf89
p1
I1
sVd7gn3xf
p2
I1
s.(dp0
Vcyjgf89
p1
I1
sVd7kewo6
p2
I1
s.(dp0
Vcyjgf89
p1
I1
sVd7vzlrp
p2
I1
s.(dp0
Vd88eyfm
p1
I1
sVcyjgf89
p2
I1
s.(dp0
Vcyjgf89
p1
I1
sVd890ufj
p2
I1
s.(dp0
Vcyjgf89
p1
I1
sVd8zd4ji
p2
I1
s.(dp0
Vcyjgf89
p1
I1
sVd8zkdej
p2
I1
s.(dp0
Vcyjgf89
p1
I1
sVd8zkdej
p2
I1
s.(dp0
Vcyjgf89
p1
I1
sVd8zkdej
p2
I1
s.(dp0
Vcyjgf89
p1
I1
sVd8zkdej
p2
I1
s.(dp0
Vcyjgf89
p1
I1
sVd8zkdej
p2
I1
s.(dp0
Vcyjgf89
p1
I1
sVd8zkdej
p2
I1
s.(dp0
Vd8zlit2
p1
I1
sVcyjgf89
p2
I1
s.(dp0
Vcyjgf89
p1
I1
sVd98e5kh
p2
I1
s.(dp0
Vcyjgf89
p1
I1
sVd9xpt1h
p2
I1
s.(dp0
Vdagg8ex
p1
I1
sVcyjgf89
p2
I1
s.(dp0
Vdbmzz7p
p1
I1
sVcyjgf89
p2
I1
s.(dp0
Vcyjgf89
p1
I1
sVdbynixe
p2
I1
s.(dp0
Vcyjgf89
p1
I1
sVdc14ktt
p2
I1
s.(dp0
Vcyjgf89
p1
I1
sVdc14ktt
p2
I1
s.(dp0
Vcyjgf89
p1
I1
sVdch9zfx
p2
I1
s.(dp0
Vcyjgf89
p1
I1
sVdd687io
p2
I1
s.(dp0
Vcyjgf89
p1
I1
sVddp353a
p2
I1
s.(dp0
Vcyjgf89
p1
I1
sVddz23jm
p2
I1
s.(dp0
Vcyjgf89
p1
I1
sVde0tnjw
p2
I1
s.(dp0
Vde12e4r
p1
I1
sVcyjgf89
p2
I1
s.(dp0
Vde2spla
p1
I1
sVcyjgf89
p2
I1
s.(dp0
Vde45r6w
p1
I1
sVcyjgf89
p2
I1
s.(dp0
Vdeiagol
p1
I1
sVcyjgf89
p2
I1
s.(dp0
Vcyjgf89
p1
I1
sVderdwv1
p2
I1
s.(dp0
Vcyjgf89
p1
I1
sVderdwv1
p2
I1
s.(dp0
Vcyjgf89
p1
I1
sVdeverve
p2
I1
s.(dp0
Vcyjgf89
p1
I1
sVdf1yusk
p2
I1
s.(dp0
Vcyjgf89
p1
I1
sVdf1yusk
p2
I1
s.(dp0
Vdf4co8l
p1
I1
sVcyjgf89
p2
I1
s.(dp0
Vcyjgf89
p1
I1
sVdfcarlv
p2
I1
s.(dp0
Vcyjgf89
p1
I1
sVdgfet28
p2
I1
s.(dp0
Vcyjgf89
p1
I1
sVdglpofk
p2
I1
s.(dp0
Vcyjgf89
p1
I1
sVdh9zn30
p2
I1
s.(dp0
Vcyjgf89
p1
I1
sVdj24wwz
p2
I1
s.(dp0
Vdjdq0qx
p1
I1
sVcyjgf89
p2
I1
s.(dp0
Vcyjgf89
p1
I1
sVdk1gvcr
p2
I1
s.(dp0
Vcyjgf89
p1
I1
sVdkmmpjg
p2
I1
s.(dp0
Vdkp1w2y
p1
I1
sVcyjgf89
p2
I1
s.