(dp0
Vcyhuwxf
p1
I1
s.(dp0
Vcyhuwxf
p1
I1
sVcyi4yhx
p2
I1
s.(dp0
Vcyhuwxf
p1
I1
sVcyiponi
p2
I1
s.(dp0
Vcyhuwxf
p1
I1
sVcyiwwh7
p2
I1
s.(dp0
Vcyjayna
p1
I1
sVcyhuwxf
p2
I1
s.(dp0
Vcyhuwxf
p1
I1
sVcyk24of
p2
I1
s.(dp0
Vcyhuwxf
p1
I1
sVcyk3512
p2
I1
s.(dp0
Vcyhuwxf
p1
I1
sVcykhwyw
p2
I1
s.(dp0
Vcyhuwxf
p1
I1
sVcyku6vl
p2
I1
s.(dp0
Vcyhuwxf
p1
I1
sVcykuzks
p2
I1
s.(dp0
Vcyhuwxf
p1
I1
sVcykzv4a
p2
I1
s.(dp0
Vcyhuwxf
p1
I1
sVcyl0ocz
p2
I1
s.(dp0
Vcyhuwxf
p1
I1
sVcylj2w0
p2
I1
s.(dp0
Vcyhuwxf
p1
I1
sVcyohyk0
p2
I1
s.(dp0
Vcyhuwxf
p1
I1
sVcyozktl
p2
I1
s.(dp0
Vcyhuwxf
p1
I1
sVcyqi215
p2
I1
s.(dp0
Vcyhuwxf
p1
I1
sVcyqolye
p2
I1
s.(dp0
Vcyr5rxl
p1
I1
sVcyhuwxf
p2
I1
s.(dp0
Vcyhuwxf
p1
I1
sVcyrkgfy
p2
I1
s.(dp0
Vcyhuwxf
p1
I1
sVcyrso7i
p2
I1
s.(dp0
Vcyhuwxf
p1
I1
sVcyrvtiu
p2
I1
s.(dp0
Vcyhuwxf
p1
I1
sVcys7huh
p2
I1
s.(dp0
Vcyhuwxf
p1
I1
sVcytw76v
p2
I1
s.(dp0
Vcyhuwxf
p1
I1
sVcyvphu7
p2
I1
s.(dp0
Vcyhuwxf
p1
I1
sVcywivq4
p2
I1
s.(dp0
Vcyhuwxf
p1
I1
sVcyze5q5
p2
I1
s.(dp0
Vcyhuwxf
p1
I1
sVcyze5q5
p2
I1
s.(dp0
Vcyhuwxf
p1
I1
sVcz1tgzi
p2
I1
s.(dp0
Vcyhuwxf
p1
I1
sVcz28phh
p2
I1
s.(dp0
Vcyhuwxf
p1
I1
sVcz4x95x
p2
I1
s.(dp0
Vcyhuwxf
p1
I1
sVcz5kmjb
p2
I1
s.(dp0
Vcyhuwxf
p1
I1
sVcz5m06f
p2
I1
s.(dp0
Vcyhuwxf
p1
I1
sVcz5p96a
p2
I1
s.(dp0
Vcyhuwxf
p1
I1
sVcz5x0hv
p2
I1
s.(dp0
Vcyhuwxf
p1
I1
sVcz64dte
p2
I1
s.(dp0
Vcyhuwxf
p1
I1
sVcz64dte
p2
I1
s.(dp0
Vcyhuwxf
p1
I1
sVcz6a81c
p2
I1
s.(dp0
Vcyhuwxf
p1
I1
sVcz6adxe
p2
I1
s.(dp0
Vcyhuwxf
p1
I1
sVcz6z2t0
p2
I1
s.(dp0
Vcyhuwxf
p1
I1
sVcz85v7b
p2
I1
s.(dp0
Vcyhuwxf
p1
I1
sVczaa7mi
p2
I1
s.(dp0
Vcyhuwxf
p1
I1
sVczaa7mi
p2
I1
s.(dp0
Vcyhuwxf
p1
I1
sVczav3zi
p2
I1
s.(dp0
Vczbmbq6
p1
I1
sVcyhuwxf
p2
I1
s.(dp0
Vcyhuwxf
p1
I1
sVczbmi16
p2
I1
s.(dp0
Vcyhuwxf
p1
I1
sVczcnhhd
p2
I1
s.(dp0
Vcyhuwxf
p1
I1
sVczd2okg
p2
I1
s.(dp0
Vcyhuwxf
p1
I1
sVczd9kw9
p2
I1
s.(dp0
Vcyhuwxf
p1
I1
sVcze2p50
p2
I1
s.(dp0
Vcyhuwxf
p1
I1
sVczec31x
p2
I1
s.(dp0
Vcyhuwxf
p1
I1
sVczec31x
p2
I1
s.(dp0
Vcyhuwxf
p1
I1
sVczec31x
p2
I1
s.(dp0
Vcyhuwxf
p1
I1
sVczec31x
p2
I1
s.(dp0
Vcyhuwxf
p1
I1
sVczehnmj
p2
I1
s.(dp0
Vcyhuwxf
p1
I1
sVczf6ho8
p2
I1
s.(dp0
Vcyhuwxf
p1
I1
sVczffzh5
p2
I1
s.(dp0
Vcyhuwxf
p1
I1
sVczfh75d
p2
I1
s.(dp0
Vcyhuwxf
p1
I1
sVczght8j
p2
I1
s.(dp0
Vcyhuwxf
p1
I1
sVczgno0b
p2
I1
s.(dp0
Vcyhuwxf
p1
I1
sVczh634z
p2
I1
s.(dp0
Vcyhuwxf
p1
I1
sVczh634z
p2
I1
s.(dp0
Vcyhuwxf
p1
I1
sVczh8jwo
p2
I1
s.(dp0
Vcyhuwxf
p1
I1
sVczh8r91
p2
I1
s.(dp0
Vcyhuwxf
p1
I1
sVczi8y1c
p2
I1
s.(dp0
Vcyhuwxf
p1
I1
sVczju36s
p2
I1
s.(dp0
Vczjw1fr
p1
I1
sVcyhuwxf
p2
I1
s.(dp0
Vcyhuwxf
p1
I1
sVczkqzco
p2
I1
s.(dp0
Vcyhuwxf
p1
I1
sVczktrk7
p2
I1
s.(dp0
Vczm91h1
p1
I1
sVcyhuwxf
p2
I1
s.(dp0
Vcyhuwxf
p1
I1
sVczmnsu3
p2
I1
s.(dp0
Vcyhuwxf
p1
I1
sVcznf7us
p2
I1
s.(dp0
Vcyhuwxf
p1
I1
sVcznv8rg
p2
I1
s.(dp0
Vcyhuwxf
p1
I1
sVczo1ag4
p2
I1
s.(dp0
Vcyhuwxf
p1
I1
sVczp5gqi
p2
I1
s.(dp0
Vcyhuwxf
p1
I1
sVczpagg1
p2
I1
s.(dp0
Vcyhuwxf
p1
I1
sVczpqwuw
p2
I1
s.(dp0
Vcyhuwxf
p1
I1
sVczrhsyj
p2
I1
s.(dp0
Vcyhuwxf
p1
I1
sVczrrbyy
p2
I1
s.(dp0
Vcyhuwxf
p1
I1
sVczsl3et
p2
I1
s.(dp0
Vcyhuwxf
p1
I1
sVcztrk7e
p2
I1
s.(dp0
Vcyhuwxf
p1
I1
sVczx86qh
p2
I1
s.(dp0
Vcyhuwxf
p1
I1
sVczzd4zd
p2
I1
s.(dp0
Vcyhuwxf
p1
I1
sVczzecnu
p2
I1
s.(dp0
Vczzew6z
p1
I1
sVcyhuwxf
p2
I1
s.(dp0
Vcyhuwxf
p1
I1
sVczzg5j0
p2
I1
s.(dp0
Vcyhuwxf
p1
I1
sVd00hzy1
p2
I1
s.(dp0
Vcyhuwxf
p1
I1
sVd01rria
p2
I1
s.(dp0
Vcyhuwxf
p1
I1
sVd02s3ld
p2
I1
s.(dp0
Vcyhuwxf
p1
I1
sVd03axwj
p2
I1
s.(dp0
Vcyhuwxf
p1
I1
sVd04c8rx
p2
I1
s.(dp0
Vcyhuwxf
p1
I1
sVd07c612
p2
I1
s.(dp0
Vd07iltg
p1
I1
sVcyhuwxf
p2
I1
s.(dp0
Vd07iltg
p1
I1
sVcyhuwxf
p2
I1
s.(dp0
Vcyhuwxf
p1
I1
sVd0axpnc
p2
I1
s.(dp0
Vcyhuwxf
p1
I1
sVd0d7bbo
p2
I1
s.(dp0
Vcyhuwxf
p1
I1
sVd0d7h3w
p2
I1
s.(dp0
Vcyhuwxf
p1
I1
sVd0ddacp
p2
I1
s.(dp0
Vcyhuwxf
p1
I1
sVd0dy13m
p2
I1
s.(dp0
Vcyhuwxf
p1
I1
sVd0g1sug
p2
I1
s.(dp0
Vcyhuwxf
p1
I1
sVd0hfq1u
p2
I1
s.(dp0
Vd0i2qk4
p1
I1
sVcyhuwxf
p2
I1
s.(dp0
Vcyhuwxf
p1
I1
sVd0i6fs5
p2
I1
s.(dp0
Vcyhuwxf
p1
I1
sVd0i6o0g
p2
I1
s.(dp0
Vcyhuwxf
p1
I1
sVd0j4ikz
p2
I1
s.(dp0
Vcyhuwxf
p1
I1
sVd0rg5c2
p2
I1
s.(dp0
Vcyhuwxf
p1
I1
sVd0rm40x
p2
I1
s.(dp0
Vcyhuwxf
p1
I1
sVd0rmcen
p2
I1
s.(dp0
Vcyhuwxf
p1
I1
sVd0rqk7e
p2
I1
s.(dp0
Vcy(dp0
Vcyhuwxf
p1
I1
sVdkz9v9g
p2
I1
s.