(dp0
Vcz3q0um
p1
I1
s.(dp0
Vcz3q0um
p1
I2
s.(dp0
Vcz3q0um
p1
I1
sVczao4of
p2
I1
s.(dp0
Vcz3q0um
p1
I1
sVczkhtyk
p2
I1
s.(dp0
Vczlarg8
p1
I1
sVcz3q0um
p2
I1
s.(dp0
Vcz3q0um
p1
I1
sVczluczw
p2
I1
s.(dp0
Vd0bxqi8
p1
I1
sVcz3q0um
p2
I1
s.(dp0
Vcz3q0um
p1
I1
sVd0efu0b
p2
I1
s.(dp0
Vcz3q0um
p1
I1
sVd125sh5
p2
I1
s.(dp0
Vd1c1dls
p1
I1
sVcz3q0um
p2
I1
s.(dp0
Vcz3q0um
p1
I1
sVd1o9p7c
p2
I1
s.(dp0
Vd22c6s4
p1
I1
sVcz3q0um
p2
I1
s.(dp0
Vd22ms6r
p1
I1
sVcz3q0um
p2
I1
s.(dp0
Vd25q5bu
p1
I1
sVcz3q0um
p2
I1
s.(dp0
Vcz3q0um
p1
I1
sVd26x3mj
p2
I1
s.(dp0
Vd37wzre
p1
I1
sVcz3q0um
p2
I1
s.(dp0
Vcz3q0um
p1
I1
sVd39t7gt
p2
I1
s.(dp0
Vd3npet6
p1
I1
sVcz3q0um
p2
I1
s.(dp0
Vd44wpbu
p1
I1
sVcz3q0um
p2
I1
s.(dp0
Vcz3q0um
p1
I1
sVd4snrj5
p2
I1
s.(dp0
Vcz3q0um
p1
I1
sVd4twc3f
p2
I1
s.(dp0
Vcz3q0um
p1
I1
sVd511xjm
p2
I1
s.(dp0
Vd5gx72m
p1
I1
sVcz3q0um
p2
I1
s.(dp0
Vcz3q0um
p1
I1
sVd692qwc
p2
I1
s.(dp0
Vd8gof4l
p1
I1
sVcz3q0um
p2
I1
s.(dp0
Vd8gof4l
p1
I1
sVcz3q0um
p2
I1
s.(dp0
Vd8rei4w
p1
I1
sVcz3q0um
p2
I1
s.(dp0
Vd97it7e
p1
I1
sVcz3q0um
p2
I1
s.(dp0
Vd97it7e
p1
I1
sVcz3q0um
p2
I1
s.(dp0
Vd9dp8yv
p1
I1
sVcz3q0um
p2
I1
s.(dp0
Vcz3q0um
p1
I1
sVd9r3s32
p2
I1
s.(dp0
Vdapi0wn
p1
I1
sVcz3q0um
p2
I1
s.(dp0
Vcz3q0um
p1
I1
sVdb0nj9g
p2
I1
s.(dp0
Vdb99iy1
p1
I1
sVcz3q0um
p2
I1
s.(dp0
Vdbbvab6
p1
I1
sVcz3q0um
p2
I1
s.(dp0
Vdc73xvm
p1
I1
sVcz3q0um
p2
I1
s.(dp0
Vdchtah5
p1
I1
sVcz3q0um
p2
I1
s.(dp0
Vdcx3f2z
p1
I1
sVcz3q0um
p2
I1
s.(dp0
Vddjncl4
p1
I1
sVcz3q0um
p2
I1
s.(dp0
Vdenc4cr
p1
I1
sVcz3q0um
p2
I1
s.(dp0
Vdenc4cr
p1
I1
sVcz3q0um
p2
I1
s.(dp0
Vdenc4cr
p1
I1
sVcz3q0um
p2
I1
s.(dp0
Vdenc4cr
p1
I1
sVcz3q0um
p2
I1
s.(dp0
Vdeqc714
p1
I1
sVcz3q0um
p2
I1
s.(dp0
Vcz3q0um
p1
I1
sVdfwh1aj
p2
I1
s.(dp0
Vdg0ni62
p1
I1
sVcz3q0um
p2
I1
s.(dp0
Vdkktv0z
p1
I1
sVcz3q0um
p2
I1
s.(dp0
Vdkktv0z
p1
I1
sVcz3q0um
p2
I1
s.(dp0
Vdktdzqr
p1
I1
sVcz3q0um
p2
I1
s.