(dp0
Vcyju01q
p1
I1
s.(dp0
Vcyju01q
p1
I2
s.(dp0
Vcyju01q
p1
I1
sVcylbvzl
p2
I1
s.(dp0
Vcyju01q
p1
I1
sVcyldsj7
p2
I1
s.(dp0
Vcyju01q
p1
I1
sVcylkli7
p2
I1
s.(dp0
Vcyju01q
p1
I1
sVcylp9ak
p2
I1
s.(dp0
Vcyju01q
p1
I1
sVcymvzri
p2
I1
s.(dp0
Vcyju01q
p1
I1
sVcyob7jz
p2
I1
s.(dp0
Vcyju01q
p1
I1
sVcyr70k7
p2
I1
s.(dp0
Vcyju01q
p1
I1
sVcyr70k7
p2
I1
s.(dp0
Vcyju01q
p1
I1
sVcyr70k7
p2
I1
s.(dp0
Vcyju01q
p1
I1
sVcyr70k7
p2
I1
s.(dp0
Vcyju01q
p1
I1
sVcyr70k7
p2
I1
s.(dp0
Vcyju01q
p1
I1
sVcyrgm92
p2
I1
s.(dp0
Vcyju01q
p1
I1
sVcystz41
p2
I1
s.(dp0
Vcyju01q
p1
I1
sVcyu45b3
p2
I1
s.(dp0
Vcyju01q
p1
I1
sVcyuvoc5
p2
I1
s.(dp0
Vcyju01q
p1
I1
sVcyv8r5k
p2
I1
s.(dp0
Vcyju01q
p1
I1
sVcyw0qcb
p2
I1
s.(dp0
Vcyju01q
p1
I1
sVcyx30os
p2
I1
s.(dp0
Vcyju01q
p1
I1
sVcyyd1qi
p2
I1
s.(dp0
Vcyju01q
p1
I1
sVcz7e5hh
p2
I1
s.(dp0
Vcyju01q
p1
I1
sVcz7e5hh
p2
I1
s.(dp0
Vcyju01q
p1
I1
sVcz7e5hh
p2
I1
s.(dp0
Vcyju01q
p1
I1
sVcz8w0g2
p2
I1
s.(dp0
Vcyju01q
p1
I1
sVczbxvhz
p2
I1
s.(dp0
Vcyju01q
p1
I1
sVczdpidh
p2
I1
s.(dp0
Vcyju01q
p1
I1
sVczdydf1
p2
I1
s.(dp0
Vcyju01q
p1
I1
sVczevpm4
p2
I1
s.(dp0
Vcyju01q
p1
I1
sVczevpm4
p2
I1
s.(dp0
Vcyju01q
p1
I1
sVczfbw6a
p2
I1
s.(dp0
Vcyju01q
p1
I1
sVczhxupx
p2
I1
s.(dp0
Vcyju01q
p1
I1
sVcziqbgi
p2
I1
s.(dp0
Vcyju01q
p1
I1
sVcziqbgi
p2
I1
s.(dp0
Vcyju01q
p1
I1
sVczk2wh6
p2
I1
s.(dp0
Vcyju01q
p1
I1
sVczmk0xm
p2
I1
s.(dp0
Vcyju01q
p1
I1
sVczrk70v
p2
I1
s.(dp0
Vcyju01q
p1
I1
sVczsrjdg
p2
I1
s.(dp0
Vcyju01q
p1
I1
sVczsrvch
p2
I1
s.(dp0
Vcyju01q
p1
I1
sVczt05a6
p2
I1
s.(dp0
Vcyju01q
p1
I1
sVczt05a6
p2
I1
s.(dp0
Vcyju01q
p1
I1
sVczzvafw
p2
I1
s.(dp0
Vcyju01q
p1
I1
sVd02um8u
p2
I1
s.(dp0
Vcyju01q
p1
I1
sVd03d3va
p2
I1
s.(dp0
Vcyju01q
p1
I1
sVd03d3va
p2
I1
s.(dp0
Vcyju01q
p1
I1
sVd03d3va
p2
I1
s.(dp0
Vcyju01q
p1
I1
sVd05ejdb
p2
I1
s.(dp0
Vcyju01q
p1
I1
sVd05ejdb
p2
I1
s.(dp0
Vcyju01q
p1
I1
sVd05ejdb
p2
I1
s.(dp0
Vcyju01q
p1
I1
sVd05ejdb
p2
I1
s.(dp0
Vcyju01q
p1
I1
sVd060c14
p2
I1
s.(dp0
Vcyju01q
p1
I1
sVd07cybg
p2
I1
s.(dp0
Vcyju01q
p1
I1
sVd09fhq2
p2
I1
s.(dp0
Vcyju01q
p1
I1
sVd09kudj
p2
I1
s.(dp0
Vcyju01q
p1
I1
sVd0b1830
p2
I1
s.(dp0
Vcyju01q
p1
I1
sVd0c4j7s
p2
I1
s.(dp0
Vcyju01q
p1
I1
sVd0c4j7s
p2
I1
s.(dp0
Vcyju01q
p1
I1
sVd0ers5r
p2
I1
s.(dp0
Vcyju01q
p1
I1
sVd0ers5r
p2
I1
s.(dp0
Vcyju01q
p1
I1
sVd0g1bfl
p2
I1
s.(dp0
Vcyju01q
p1
I1
sVd0g380o
p2
I1
s.(dp0
Vcyju01q
p1
I1
sVd0g380o
p2
I1
s.(dp0
Vcyju01q
p1
I1
sVd0g380o
p2
I1
s.(dp0
Vcyju01q
p1
I1
sVd0g380o
p2
I1
s.(dp0
Vcyju01q
p1
I1
sVd0g3ig1
p2
I1
s.(dp0
Vcyju01q
p1
I1
sVd0g3zru
p2
I1
s.(dp0
Vcyju01q
p1
I1
sVd0gzshe
p2
I1
s.(dp0
Vcyju01q
p1
I1
sVd0hf7ld
p2
I1
s.(dp0
Vcyju01q
p1
I1
sVd0ios6m
p2
I1
s.(dp0
Vcyju01q
p1
I1
sVd0k6e85
p2
I1
s.(dp0
Vcyju01q
p1
I1
sVd0kee14
p2
I1
s.(dp0
Vcyju01q
p1
I1
sVd0kpyd6
p2
I1
s.(dp0
Vcyju01q
p1
I1
sVd0pur4y
p2
I1
s.(dp0
Vcyju01q
p1
I1
sVd0qi4yl
p2
I1
s.(dp0
Vcyju01q
p1
I1
sVd0rolwe
p2
I1
s.(dp0
Vcyju01q
p1
I1
sVd0t08wy
p2
I1
s.(dp0
Vcyju01q
p1
I1
sVd0t6j8u
p2
I1
s.(dp0
Vcyju01q
p1
I1
sVd0t6j8u
p2
I1
s.(dp0
Vcyju01q
p1
I1
sVd0tazie
p2
I1
s.(dp0
Vcyju01q
p1
I1
sVd0x4ofz
p2
I1
s.(dp0
Vcyju01q
p1
I1
sVd0ykosg
p2
I1
s.(dp0
Vcyju01q
p1
I1
sVd10m8ut
p2
I1
s.(dp0
Vcyju01q
p1
I1
sVd11yctz
p2
I1
s.(dp0
Vcyju01q
p1
I1
sVd16o4jy
p2
I1
s.(dp0
Vcyju01q
p1
I1
sVd17sj3n
p2
I1
s.(dp0
Vcyju01q
p1
I1
sVd18g6zw
p2
I1
s.(dp0
Vcyju01q
p1
I1
sVd19gfuz
p2
I1
s.(dp0
Vcyju01q
p1
I1
sVd1c9ls0
p2
I1
s.(dp0
Vcyju01q
p1
I1
sVd1d9jnn
p2
I1
s.(dp0
Vcyju01q
p1
I1
sVd1dadaa
p2
I1
s.(dp0
Vcyju01q
p1
I1
sVd1dadaa
p2
I1
s.(dp0
Vcyju01q
p1
I1
sVd1dcwx6
p2
I1
s.(dp0
Vcyju01q
p1
I1
sVd1dhbrt
p2
I1
s.(dp0
Vcyju01q
p1
I1
sVd1dtduq
p2
I1
s.(dp0
Vcyju01q
p1
I1
sVd1fo2dz
p2
I1
s.(dp0
Vcyju01q
p1
I1
sVd1fo2dz
p2
I1
s.(dp0
Vcyju01q
p1
I1
sVd1fo2dz
p2
I1
s.(dp0
Vcyju01q
p1
I1
sVd1fo2dz
p2
I1
s.(dp0
Vcyju01q
p1
I1
sVd1hzkqs
p2
I1
s.(dp0
Vcyju01q
p1
I1
sVd1noqeo
p2
I1
s.(dp0
Vcyju01q
p1
I1
sVd1noqeo
p2
I1
s.(dp0
Vcyju01q
p1
I1
sVd1qi6a4
p2
I1
s.(dp0
Vcyju01q
p1
I1
sVd1qi6a4
p2
I1
s.(dp0
Vcyju01q
p1
I1
sVd1qju5v
p2
I1
s.(dp0
Vcyju01q
p1
I1
sVd1v3skg
p2
I1
s.(dp0
Vcyju01q
p1
I1
sVd1v3skg
p2
I1
s.(dp0
Vcyju01q
p1
I1
sVd1w1j1q
p2
I1
s.(dp0
Vcyju01q
p1
I1
sVd20qaiz
p2
I1
s.(dp0
Vcyju01q
p1
I1
sVd2(dp0
Vcyju01q
p1
I1
sVdp5b7si
p2
I1
s.