(dp0
Vcyvsra4
p1
I1
s.(dp0
Vcyvsra4
p1
I1
sVcz7z2se
p2
I1
s.(dp0
Vcyvsra4
p1
I1
sVczc34bx
p2
I1
s.(dp0
Vd067gwb
p1
I1
sVcyvsra4
p2
I1
s.(dp0
Vcyvsra4
p1
I1
sVd09emmm
p2
I1
s.(dp0
Vd2hputw
p1
I1
sVcyvsra4
p2
I1
s.(dp0
Vcyvsra4
p1
I1
sVd3dz5tk
p2
I1
s.(dp0
Vcyvsra4
p1
I1
sVd3vfrbo
p2
I1
s.(dp0
Vd4kw09a
p1
I1
sVcyvsra4
p2
I1
s.(dp0
Vd78fw5i
p1
I1
sVcyvsra4
p2
I1
s.(dp0
Vd78fw5i
p1
I1
sVcyvsra4
p2
I1
s.(dp0
Vcyvsra4
p1
I1
sVd8d596v
p2
I1
s.(dp0
Vcyvsra4
p1
I1
sVd9eerpa
p2
I1
s.(dp0
Vcyvsra4
p1
I1
sVd9hnaoe
p2
I1
s.(dp0
Vda3rqpx
p1
I1
sVcyvsra4
p2
I1
s.(dp0
Vdakmsr1
p1
I1
sVcyvsra4
p2
I1
s.(dp0
Vdax00b3
p1
I1
sVcyvsra4
p2
I1
s.(dp0
Vcyvsra4
p1
I1
sVdbbvpie
p2
I1
s.(dp0
Vcyvsra4
p1
I1
sVdbbvpie
p2
I1
s.(dp0
Vcyvsra4
p1
I1
sVdcufxoa
p2
I1
s.(dp0
Vcyvsra4
p1
I1
sVddqv428
p2
I1
s.(dp0
Vddwggaq
p1
I1
sVcyvsra4
p2
I1
s.(dp0
Vcyvsra4
p1
I1
sVdf3it76
p2
I1
s.(dp0
Vdffcn4e
p1
I1
sVcyvsra4
p2
I1
s.(dp0
Vcyvsra4
p1
I1
sVdgcb721
p2
I1
s.(dp0
Vdhv8f5f
p1
I1
sVcyvsra4
p2
I1
s.(dp0
Vdhv8f5f
p1
I1
sVcyvsra4
p2
I1
s.(dp0
Vdkfhy9z
p1
I1
sVcyvsra4
p2
I1
s.(dp0
Vdkhtlkg
p1
I1
sVcyvsra4
p2
I1
s.(dp0
Vdkjdgl5
p1
I1
sVcyvsra4
p2
I1
s.(dp0
Vcyvsra4
p1
I1
sVdks55rn
p2
I1
s.