(dp0
Vcyxctt1
p1
I1
s.(dp0
Vczctmt5
p1
I1
sVcyxctt1
p2
I1
s.(dp0
Vd01pnw1
p1
I1
sVcyxctt1
p2
I1
s.(dp0
Vd0av0n3
p1
I1
sVcyxctt1
p2
I1
s.(dp0
Vd45chmp
p1
I1
sVcyxctt1
p2
I1
s.(dp0
Vd61u3g3
p1
I1
sVcyxctt1
p2
I1
s.(dp0
Vda1yhgy
p1
I1
sVcyxctt1
p2
I1
s.(dp0
Vda1yhgy
p1
I1
sVcyxctt1
p2
I1
s.(dp0
Vdc8a9jh
p1
I1
sVcyxctt1
p2
I1
s.(dp0
Vdds3kx4
p1
I1
sVcyxctt1
p2
I1
s.(dp0
Vdfaf6dz
p1
I1
sVcyxctt1
p2
I1
s.(dp0
Vdgua4nx
p1
I1
sVcyxctt1
p2
I1
s.(dp0
Vdhs3he0
p1
I1
sVcyxctt1
p2
I1
s.