(dp0
Vd3mwrla
p1
I1
s.(dp0
Vd3mwrla
p1
I2
s.(dp0
Vd3mwrla
p1
I2
s.(dp0
Vd3mwrla
p1
I2
s.(dp0
Vd3mwrla
p1
I2
s.(dp0
Vd3mwrla
p1
I2
s.(dp0
Vd3mwrla
p1
I2
s.(dp0
Vd3mwrla
p1
I2
s.(dp0
Vd3mwrla
p1
I2
s.(dp0
Vd3mwrla
p1
I2
s.(dp0
Vd6cjs9t
p1
I1
sVd3mwrla
p2
I1
s.(dp0
Vda7g6jv
p1
I1
sVd3mwrla
p2
I1
s.(dp0
Vd3mwrla
p1
I1
sVdbwz7c8
p2
I1
s.(dp0
Vd3mwrla
p1
I1
sVdbxrdbw
p2
I1
s.(dp0
Vd3mwrla
p1
I1
sVdbxrdbw
p2
I1
s.