(dp0
Vcyhzimt
p1
I1
s.(dp0
Vcyhzuz7
p1
I1
sVcyhzimt
p2
I1
s.(dp0
Vcyhzuz7
p1
I1
sVcyhzimt
p2
I1
s.(dp0
Vcyhzuz7
p1
I1
sVcyhzimt
p2
I1
s.(dp0
Vcyhzuz7
p1
I1
sVcyhzimt
p2
I1
s.(dp0
Vcyj6gxj
p1
I1
sVcyhzimt
p2
I1
s.(dp0
Vcyhzimt
p1
I1
sVcyjgpib
p2
I1
s.(dp0
Vcyjlozn
p1
I1
sVcyhzimt
p2
I1
s.(dp0
Vcyhzimt
p1
I1
sVcykc66p
p2
I1
s.(dp0
Vcyhzimt
p1
I1
sVcykcl7h
p2
I1
s.(dp0
Vcyhzimt
p1
I1
sVcyl3rpk
p2
I1
s.(dp0
Vcylp090
p1
I1
sVcyhzimt
p2
I1
s.(dp0
Vcylp090
p1
I1
sVcyhzimt
p2
I1
s.(dp0
Vcylrsoz
p1
I1
sVcyhzimt
p2
I1
s.(dp0
Vcymjo7s
p1
I1
sVcyhzimt
p2
I1
s.(dp0
Vcymktuh
p1
I1
sVcyhzimt
p2
I1
s.(dp0
Vcymktuh
p1
I1
sVcyhzimt
p2
I1
s.(dp0
Vcyhzimt
p1
I1
sVcymoh0k
p2
I1
s.(dp0
Vcyhzimt
p1
I1
sVcymoh0k
p2
I1
s.(dp0
Vcyhzimt
p1
I1
sVcymvmzl
p2
I1
s.(dp0
Vcyhzimt
p1
I1
sVcyndb4m
p2
I1
s.(dp0
Vcyhzimt
p1
I1
sVcynpwwg
p2
I1
s.(dp0
Vcyhzimt
p1
I1
sVcynt07a
p2
I1
s.(dp0
Vcyhzimt
p1
I1
sVcynt07a
p2
I1
s.(dp0
Vcynyci2
p1
I1
sVcyhzimt
p2
I1
s.(dp0
Vcyhzimt
p1
I1
sVcyo16o1
p2
I1
s.(dp0
Vcyosh9h
p1
I1
sVcyhzimt
p2
I1
s.(dp0
Vcyosh9h
p1
I1
sVcyhzimt
p2
I1
s.(dp0
Vcyosh9h
p1
I1
sVcyhzimt
p2
I1
s.(dp0
Vcyhzimt
p1
I1
sVcyp06h5
p2
I1
s.(dp0
Vcyhzimt
p1
I1
sVcyp7h4q
p2
I1
s.(dp0
Vcyhzimt
p1
I1
sVcypk55y
p2
I1
s.(dp0
Vcyhzimt
p1
I1
sVcypod31
p2
I1
s.(dp0
Vcyhzimt
p1
I1
sVcypsu7b
p2
I1
s.(dp0
Vcyqueyk
p1
I1
sVcyhzimt
p2
I1
s.(dp0
Vcyqueyk
p1
I1
sVcyhzimt
p2
I1
s.(dp0
Vcyqueyk
p1
I1
sVcyhzimt
p2
I1
s.(dp0
Vcyqueyk
p1
I1
sVcyhzimt
p2
I1
s.(dp0
Vcyr36fa
p1
I1
sVcyhzimt
p2
I1
s.(dp0
Vcyr36fa
p1
I1
sVcyhzimt
p2
I1
s.(dp0
Vcyrjzse
p1
I1
sVcyhzimt
p2
I1
s.(dp0
Vcyhzimt
p1
I1
sVcyrknpj
p2
I1
s.(dp0
Vcyhzimt
p1
I1
sVcyrlosq
p2
I1
s.(dp0
Vcyhzimt
p1
I1
sVcys4gyq
p2
I1
s.(dp0
Vcyshs3o
p1
I1
sVcyhzimt
p2
I1
s.(dp0
Vcyhzimt
p1
I1
sVcysm2uf
p2
I1
s.(dp0
Vcyhzimt
p1
I1
sVcysu9ns
p2
I1
s.(dp0
Vcyhzimt
p1
I1
sVcysw7wa
p2
I1
s.(dp0
Vcyhzimt
p1
I1
sVcyt5qb4
p2
I1
s.(dp0
Vcyhzimt
p1
I1
sVcyt93yo
p2
I1
s.(dp0
Vcyhzimt
p1
I1
sVcytj0fq
p2
I1
s.(dp0
Vcytw65m
p1
I1
sVcyhzimt
p2
I1
s.(dp0
Vcytwbbt
p1
I1
sVcyhzimt
p2
I1
s.(dp0
Vcytwbbt
p1
I1
sVcyhzimt
p2
I1
s.(dp0
Vcyhzimt
p1
I1
sVcyu1x3d
p2
I1
s.(dp0
Vcyug8rh
p1
I1
sVcyhzimt
p2
I1
s.(dp0
Vcyugv34
p1
I1
sVcyhzimt
p2
I1
s.(dp0
Vcyupiii
p1
I1
sVcyhzimt
p2
I1
s.(dp0
Vcyhzimt
p1
I1
sVcyv15gj
p2
I1
s.(dp0
Vcyhzimt
p1
I1
sVcyv2idm
p2
I1
s.(dp0
Vcyvlbqm
p1
I1
sVcyhzimt
p2
I1
s.(dp0
Vcywt2mv
p1
I1
sVcyhzimt
p2
I1
s.(dp0
Vcywt2mv
p1
I1
sVcyhzimt
p2
I1
s.(dp0
Vcyxazmt
p1
I1
sVcyhzimt
p2
I1
s.(dp0
Vcyxg5fm
p1
I1
sVcyhzimt
p2
I1
s.(dp0
Vcyxw45o
p1
I1
sVcyhzimt
p2
I1
s.(dp0
Vcyhzimt
p1
I1
sVcyydh60
p2
I1
s.(dp0
Vcyhzimt
p1
I1
sVcyyifpy
p2
I1
s.(dp0
Vcyhzimt
p1
I1
sVcyzhn59
p2
I1
s.(dp0
Vcyhzimt
p1
I1
sVcyzksec
p2
I1
s.(dp0
Vcyhzimt
p1
I1
sVcyzksec
p2
I1
s.(dp0
Vcyhzimt
p1
I1
sVcz02v7q
p2
I1
s.(dp0
Vcyhzimt
p1
I1
sVcz0lqiv
p2
I1
s.(dp0
Vcz0mqm9
p1
I1
sVcyhzimt
p2
I1
s.(dp0
Vcz10p7j
p1
I1
sVcyhzimt
p2
I1
s.(dp0
Vcz10p7j
p1
I1
sVcyhzimt
p2
I1
s.(dp0
Vcz1e5c9
p1
I1
sVcyhzimt
p2
I1
s.(dp0
Vcyhzimt
p1
I1
sVcz1nvi7
p2
I1
s.(dp0
Vcz3080v
p1
I1
sVcyhzimt
p2
I1
s.(dp0
Vcz4j4qd
p1
I1
sVcyhzimt
p2
I1
s.(dp0
Vcyhzimt
p1
I1
sVcz5nfsq
p2
I1
s.(dp0
Vcz6n2qu
p1
I1
sVcyhzimt
p2
I1
s.(dp0
Vcyhzimt
p1
I1
sVcz6rpwz
p2
I1
s.(dp0
Vcz6zllb
p1
I1
sVcyhzimt
p2
I1
s.(dp0
Vcz6zllb
p1
I1
sVcyhzimt
p2
I1
s.(dp0
Vcyhzimt
p1
I1
sVcz7e5hh
p2
I1
s.(dp0
Vcyhzimt
p1
I1
sVcz7e5hh
p2
I1
s.(dp0
Vcz8c9ce
p1
I1
sVcyhzimt
p2
I1
s.(dp0
Vcz8pupz
p1
I1
sVcyhzimt
p2
I1
s.(dp0
Vcz8tnn3
p1
I1
sVcyhzimt
p2
I1
s.(dp0
Vcyhzimt
p1
I1
sVcz93lbe
p2
I1
s.(dp0
Vcyhzimt
p1
I1
sVcz9683n
p2
I1
s.(dp0
Vcyhzimt
p1
I1
sVcz9683n
p2
I1
s.(dp0
Vcyhzimt
p1
I1
sVcz97prw
p2
I1
s.(dp0
Vcz9v488
p1
I1
sVcyhzimt
p2
I1
s.(dp0
Vcza0zdc
p1
I1
sVcyhzimt
p2
I1
s.(dp0
Vcza0zdc
p1
I1
sVcyhzimt
p2
I1
s.(dp0
Vcyhzimt
p1
I1
sVczaem0n
p2
I1
s.(dp0
Vcyhzimt
p1
I1
sVczb0gyv
p2
I1
s.(dp0
Vcyhzimt
p1
I1
sVczb0gyv
p2
I1
s.(dp0
Vcyhzimt
p1
I1
sVczb0gyv
p2
I1
s.(dp0
Vcyhzimt
p1
I1
sVczbiw74
p2
I1
s.(dp0
Vcyhzimt
p1
I1
sVczc40oo
p2
I1
s.(dp0
Vcyhzimt
p1
I1
sVczc498l
p2
I1
s.(dp0
Vcyhzimt
p1
I1
sVczc8j0b
p2
I1
s.(dp0
Vcyhzimt
p1
I1
sVczc90qv
p2
I1
s.(dp0
Vcyhzimt
p1
I1
sVczd26m9
p2
I1
s.(dp0
Vcyhzimt
p1
I1
sVczd26m9
p2
I1
s.(dp0
Vcy(dp0
Vcyhzimt
p1
I1
sVdkydbnx
p2
I1
s.