(dp0
Vcz7hdee
p1
I1
s.(dp0
Vcz7hdee
p1
I2
s.(dp0
Vcz7hdee
p1
I2
s.(dp0
Vcz7hdee
p1
I2
s.(dp0
Vczx0sly
p1
I1
sVcz7hdee
p2
I1
s.(dp0
Vd0zsunq
p1
I1
sVcz7hdee
p2
I1
s.(dp0
Vd1dlwne
p1
I1
sVcz7hdee
p2
I1
s.(dp0
Vcz7hdee
p1
I1
sVd1g3sx0
p2
I1
s.(dp0
Vd4nweir
p1
I1
sVcz7hdee
p2
I1
s.(dp0
Vd9vp4e8
p1
I1
sVcz7hdee
p2
I1
s.(dp0
Vcz7hdee
p1
I1
sVdbtt0yv
p2
I1
s.(dp0
Vdbulo9a
p1
I1
sVcz7hdee
p2
I1
s.(dp0
Vcz7hdee
p1
I1
sVdc5otkb
p2
I1
s.(dp0
Vcz7hdee
p1
I1
sVdne7y0q
p2
I1
s.(dp0
Vcz7hdee
p1
I1
sVdo8frm6
p2
I1
s.