(dp0
Vcz9z2g8
p1
I1
s.(dp0
Vczod5kv
p1
I1
sVcz9z2g8
p2
I1
s.(dp0
Vd1gggzw
p1
I1
sVcz9z2g8
p2
I1
s.(dp0
Vd1gggzw
p1
I1
sVcz9z2g8
p2
I1
s.(dp0
Vd22gykj
p1
I1
sVcz9z2g8
p2
I1
s.(dp0
Vcz9z2g8
p1
I1
sVd2ezzw6
p2
I1
s.(dp0
Vd2ur607
p1
I1
sVcz9z2g8
p2
I1
s.(dp0
Vd2v06i7
p1
I1
sVcz9z2g8
p2
I1
s.(dp0
Vd2v7zcj
p1
I1
sVcz9z2g8
p2
I1
s.(dp0
Vd2v7zcj
p1
I1
sVcz9z2g8
p2
I1
s.(dp0
Vd2vh606
p1
I1
sVcz9z2g8
p2
I1
s.(dp0
Vd2vh606
p1
I1
sVcz9z2g8
p2
I1
s.(dp0
Vd2vh606
p1
I1
sVcz9z2g8
p2
I1
s.(dp0
Vcz9z2g8
p1
I1
sVd2vid8c
p2
I1
s.(dp0
Vd2vkyoz
p1
I1
sVcz9z2g8
p2
I1
s.(dp0
Vcz9z2g8
p1
I1
sVd310w65
p2
I1
s.(dp0
Vd33yn5o
p1
I1
sVcz9z2g8
p2
I1
s.(dp0
Vd33yn5o
p1
I1
sVcz9z2g8
p2
I1
s.(dp0
Vd3cawo6
p1
I1
sVcz9z2g8
p2
I1
s.(dp0
Vd3etyub
p1
I1
sVcz9z2g8
p2
I1
s.(dp0
Vd4gudc2
p1
I1
sVcz9z2g8
p2
I1
s.(dp0
Vd4wodjc
p1
I1
sVcz9z2g8
p2
I1
s.(dp0
Vd5upv34
p1
I1
sVcz9z2g8
p2
I1
s.(dp0
Vd6oi4zy
p1
I1
sVcz9z2g8
p2
I1
s.(dp0
Vd7iqy06
p1
I1
sVcz9z2g8
p2
I1
s.(dp0
Vcz9z2g8
p1
I1
sVd7l4ock
p2
I1
s.(dp0
Vcz9z2g8
p1
I1
sVd7l4ock
p2
I1
s.(dp0
Vd7nxujb
p1
I1
sVcz9z2g8
p2
I1
s.(dp0
Vd7wplx1
p1
I1
sVcz9z2g8
p2
I1
s.(dp0
Vd927e61
p1
I1
sVcz9z2g8
p2
I1
s.(dp0
Vdbmp70v
p1
I1
sVcz9z2g8
p2
I1
s.(dp0
Vcz9z2g8
p1
I1
sVdc1rmad
p2
I1
s.(dp0
Vdcdgzm0
p1
I1
sVcz9z2g8
p2
I1
s.(dp0
Vde8tdq6
p1
I1
sVcz9z2g8
p2
I1
s.(dp0
Vcz9z2g8
p1
I1
sVdeib1bw
p2
I1
s.(dp0
Vdep97u1
p1
I1
sVcz9z2g8
p2
I1
s.(dp0
Vdeuu8ap
p1
I1
sVcz9z2g8
p2
I1
s.(dp0
Vdeuu8ap
p1
I1
sVcz9z2g8
p2
I1
s.(dp0
Vdf7ytcb
p1
I1
sVcz9z2g8
p2
I1
s.(dp0
Vdf9uaen
p1
I1
sVcz9z2g8
p2
I1
s.(dp0
Vdgm5hrz
p1
I1
sVcz9z2g8
p2
I1
s.(dp0
Vdhhxmbz
p1
I1
sVcz9z2g8
p2
I1
s.(dp0
Vdhtqhfw
p1
I1
sVcz9z2g8
p2
I1
s.(dp0
Vdkd6uyg
p1
I1
sVcz9z2g8
p2
I1
s.(dp0
Vdkd6uyg
p1
I1
sVcz9z2g8
p2
I1
s.(dp0
Vdmqmlvf
p1
I1
sVcz9z2g8
p2
I1
s.(dp0
Vdn9nnr9
p1
I1
sVcz9z2g8
p2
I1
s.(dp0
Vdn9nnr9
p1
I1
sVcz9z2g8
p2
I1
s.(dp0
Vdn9nnr9
p1
I1
sVcz9z2g8
p2
I1
s.(dp0
Vdnfjtjp
p1
I1
sVcz9z2g8
p2
I1
s.