(dp0
Vcz4euq4
p1
I1
s.(dp0
Vcz4euq4
p1
I1
sVcz8mhav
p2
I1
s.(dp0
Vczo0548
p1
I1
sVcz4euq4
p2
I1
s.(dp0
Vcz4euq4
p1
I1
sVd0qiqee
p2
I1
s.(dp0
Vcz4euq4
p1
I1
sVd1g0lws
p2
I1
s.(dp0
Vcz4euq4
p1
I1
sVd1l63j4
p2
I1
s.(dp0
Vcz4euq4
p1
I1
sVd1ww6oy
p2
I1
s.(dp0
Vcz4euq4
p1
I1
sVd2j1psl
p2
I1
s.(dp0
Vcz4euq4
p1
I1
sVd3nc1kq
p2
I1
s.(dp0
Vcz4euq4
p1
I1
sVd60riz0
p2
I1
s.(dp0
Vcz4euq4
p1
I1
sVd6eisz9
p2
I1
s.(dp0
Vcz4euq4
p1
I1
sVd77pbdy
p2
I1
s.(dp0
Vd7tl7tw
p1
I1
sVcz4euq4
p2
I1
s.(dp0
Vcz4euq4
p1
I1
sVd9npo8v
p2
I1
s.(dp0
Vcz4euq4
p1
I1
sVd9ugg1f
p2
I1
s.(dp0
Vdauivtx
p1
I1
sVcz4euq4
p2
I1
s.(dp0
Vdddyt74
p1
I1
sVcz4euq4
p2
I1
s.(dp0
Vddv0r1q
p1
I1
sVcz4euq4
p2
I1
s.(dp0
Vdelly0o
p1
I1
sVcz4euq4
p2
I1
s.(dp0
Vcz4euq4
p1
I1
sVdf1and4
p2
I1
s.(dp0
Vdfqzrga
p1
I1
sVcz4euq4
p2
I1
s.(dp0
Vcz4euq4
p1
I1
sVdgfqjm6
p2
I1
s.(dp0
Vcz4euq4
p1
I1
sVdh8nkyp
p2
I1
s.(dp0
Vcz4euq4
p1
I1
sVdimwfgt
p2
I1
s.(dp0
Vcz4euq4
p1
I1
sVdj5p28g
p2
I1
s.(dp0
Vcz4euq4
p1
I1
sVdjyacf4
p2
I1
s.(dp0
Vdjyihej
p1
I1
sVcz4euq4
p2
I1
s.(dp0
Vdjyihej
p1
I1
sVcz4euq4
p2
I1
s.(dp0
Vdjzwujh
p1
I1
sVcz4euq4
p2
I1
s.(dp0
Vcz4euq4
p1
I1
sVdk4u7mf
p2
I1
s.(dp0
Vcz4euq4
p1
I1
sVdkc5jq7
p2
I1
s.(dp0
Vcz4euq4
p1
I1
sVdkc5jq7
p2
I1
s.(dp0
Vdkx2lzf
p1
I1
sVcz4euq4
p2
I1
s.