(dp0
Vcyp0x59
p1
I1
s.(dp0
Vcyp0x59
p1
I1
sVcyspqro
p2
I1
s.(dp0
Vcyp0x59
p1
I1
sVcysrcbd
p2
I1
s.(dp0
Vcyp0x59
p1
I1
sVcywf94r
p2
I1
s.(dp0
Vcyp0x59
p1
I1
sVcywntfr
p2
I1
s.(dp0
Vcyp0x59
p1
I1
sVcz3yl2g
p2
I1
s.(dp0
Vcyp0x59
p1
I1
sVcz4k2to
p2
I1
s.(dp0
Vcyp0x59
p1
I1
sVczb2l4t
p2
I1
s.(dp0
Vczvj7qr
p1
I1
sVcyp0x59
p2
I1
s.(dp0
Vcyp0x59
p1
I1
sVd0ipdlp
p2
I1
s.(dp0
Vcyp0x59
p1
I1
sVd0qxq5x
p2
I1
s.(dp0
Vcyp0x59
p1
I1
sVd0sscsj
p2
I1
s.(dp0
Vcyp0x59
p1
I1
sVd1oa5k6
p2
I1
s.(dp0
Vcyp0x59
p1
I1
sVd2gfrrh
p2
I1
s.(dp0
Vcyp0x59
p1
I1
sVd39vjha
p2
I1
s.(dp0
Vcyp0x59
p1
I1
sVd3ni16g
p2
I1
s.(dp0
Vcyp0x59
p1
I1
sVd3ov3xo
p2
I1
s.(dp0
Vd3zatsf
p1
I1
sVcyp0x59
p2
I1
s.(dp0
Vcyp0x59
p1
I1
sVd45x4be
p2
I1
s.(dp0
Vcyp0x59
p1
I1
sVd4i94mb
p2
I1
s.(dp0
Vcyp0x59
p1
I1
sVd5601lt
p2
I1
s.(dp0
Vcyp0x59
p1
I1
sVd56vcv1
p2
I1
s.(dp0
Vcyp0x59
p1
I1
sVd5hwnnh
p2
I1
s.(dp0
Vcyp0x59
p1
I1
sVd5iup9z
p2
I1
s.(dp0
Vcyp0x59
p1
I1
sVd64s940
p2
I1
s.(dp0
Vd6l1i7f
p1
I1
sVcyp0x59
p2
I1
s.(dp0
Vcyp0x59
p1
I1
sVd6qnu3i
p2
I1
s.(dp0
Vcyp0x59
p1
I1
sVd7f7i8r
p2
I1
s.(dp0
Vcyp0x59
p1
I1
sVd7iagn0
p2
I1
s.(dp0
Vcyp0x59
p1
I1
sVd7iqy06
p2
I1
s.(dp0
Vcyp0x59
p1
I1
sVd7j6ib6
p2
I1
s.(dp0
Vcyp0x59
p1
I1
sVd83aqlu
p2
I1
s.(dp0
Vcyp0x59
p1
I1
sVd83wvzz
p2
I1
s.(dp0
Vcyp0x59
p1
I1
sVd86nkf4
p2
I1
s.(dp0
Vd91o109
p1
I1
sVcyp0x59
p2
I1
s.(dp0
Vcyp0x59
p1
I1
sVd95rqnv
p2
I1
s.(dp0
Vcyp0x59
p1
I1
sVda8lgs5
p2
I1
s.(dp0
Vcyp0x59
p1
I1
sVdahnmnw
p2
I1
s.(dp0
Vcyp0x59
p1
I1
sVdai7bz1
p2
I1
s.(dp0
Vcyp0x59
p1
I1
sVdb762cp
p2
I1
s.(dp0
Vcyp0x59
p1
I1
sVdb9jt52
p2
I1
s.(dp0
Vcyp0x59
p1
I1
sVdb9kqu6
p2
I1
s.(dp0
Vcyp0x59
p1
I1
sVdbhpqa2
p2
I1
s.(dp0
Vcyp0x59
p1
I1
sVdbikfjl
p2
I1
s.(dp0
Vcyp0x59
p1
I1
sVdbzoud4
p2
I1
s.(dp0
Vcyp0x59
p1
I1
sVdclei1t
p2
I1
s.(dp0
Vcyp0x59
p1
I1
sVdctxr28
p2
I1
s.(dp0
Vcyp0x59
p1
I1
sVdcvet1a
p2
I1
s.(dp0
Vcyp0x59
p1
I1
sVdcxknze
p2
I1
s.(dp0
Vcyp0x59
p1
I1
sVddfjw77
p2
I1
s.(dp0
Vde0ftl2
p1
I1
sVcyp0x59
p2
I1
s.(dp0
Vde54xot
p1
I1
sVcyp0x59
p2
I1
s.(dp0
Vcyp0x59
p1
I1
sVde992kz
p2
I1
s.(dp0
Vcyp0x59
p1
I1
sVdecw5qy
p2
I1
s.(dp0
Vcyp0x59
p1
I1
sVdet3r1g
p2
I1
s.(dp0
Vcyp0x59
p1
I1
sVdf2cbi9
p2
I1
s.(dp0
Vcyp0x59
p1
I1
sVdfbvov9
p2
I1
s.(dp0
Vdfcwpbi
p1
I1
sVcyp0x59
p2
I1
s.(dp0
Vcyp0x59
p1
I1
sVdfjd69x
p2
I1
s.(dp0
Vcyp0x59
p1
I1
sVdgzfcu0
p2
I1
s.(dp0
Vcyp0x59
p1
I1
sVdhv4t3y
p2
I1
s.(dp0
Vcyp0x59
p1
I1
sVdi8p73j
p2
I1
s.(dp0
Vcyp0x59
p1
I1
sVdjem03e
p2
I1
s.(dp0
Vcyp0x59
p1
I1
sVdjjgoc1
p2
I1
s.(dp0
Vcyp0x59
p1
I1
sVdk4wthq
p2
I1
s.(dp0
Vdkfp329
p1
I1
sVcyp0x59
p2
I1
s.(dp0
Vcyp0x59
p1
I1
sVdkjm9mf
p2
I1
s.(dp0
Vdkwb08s
p1
I1
sVcyp0x59
p2
I1
s.(dp0
Vdmqmr3y
p1
I1
sVcyp0x59
p2
I1
s.(dp0
Vcyp0x59
p1
I1
sVdmxlds5
p2
I1
s.(dp0
Vcyp0x59
p1
I1
sVdn6cxd1
p2
I1
s.(dp0
Vcyp0x59
p1
I1
sVdndpizy
p2
I1
s.(dp0
Vcyp0x59
p1
I1
sVdnig112
p2
I1
s.(dp0
Vcyp0x59
p1
I1
sVdo5nip5
p2
I1
s.