(dp0
Vcz6jeqx
p1
I1
s.(dp0
Vdbciwfd
p1
I1
sVcz6jeqx
p2
I1
s.(dp0
Vdbciwfd
p1
I1
sVcz6jeqx
p2
I1
s.(dp0
Vcz6jeqx
p1
I1
sVdhck9ah
p2
I1
s.(dp0
Vcz6jeqx
p1
I1
sVdhck9ah
p2
I1
s.(dp0
Vcz6jeqx
p1
I1
sVdhck9ah
p2
I1
s.(dp0
Vcz6jeqx
p1
I1
sVdhck9ah
p2
I1
s.(dp0
Vcz6jeqx
p1
I1
sVdkpmd82
p2
I1
s.