(dp0
Vd01aoex
p1
I1
s.(dp0
Vd01aoex
p1
I1
sVd9600e2
p2
I1
s.(dp0
Vd01aoex
p1
I1
sVd97c9c7
p2
I1
s.(dp0
Vd01aoex
p1
I1
sVd9cw5zr
p2
I1
s.(dp0
Vd01aoex
p1
I1
sVd9cw5zr
p2
I1
s.(dp0
Vd01aoex
p1
I1
sVdafn1wa
p2
I1
s.(dp0
Vd01aoex
p1
I1
sVdbi7clo
p2
I1
s.(dp0
Vd01aoex
p1
I1
sVdbi7clo
p2
I1
s.(dp0
Vd01aoex
p1
I1
sVdcw1v2a
p2
I1
s.