(dp0
Vcyivrhd
p1
I1
s.(dp0
Vcyojv4c
p1
I1
sVcyivrhd
p2
I1
s.(dp0
Vcz6485s
p1
I1
sVcyivrhd
p2
I1
s.(dp0
Vczm6izy
p1
I1
sVcyivrhd
p2
I1
s.(dp0
Vd0b9ua9
p1
I1
sVcyivrhd
p2
I1
s.(dp0
Vd0r2md0
p1
I1
sVcyivrhd
p2
I1
s.(dp0
Vd1x0nzn
p1
I1
sVcyivrhd
p2
I1
s.(dp0
Vd1ybmsc
p1
I1
sVcyivrhd
p2
I1
s.(dp0
Vd2emlbx
p1
I1
sVcyivrhd
p2
I1
s.(dp0
Vd3oz38k
p1
I1
sVcyivrhd
p2
I1
s.(dp0
Vd466zdy
p1
I1
sVcyivrhd
p2
I1
s.(dp0
Vd4j5jz0
p1
I1
sVcyivrhd
p2
I1
s.(dp0
Vd6ls2uw
p1
I1
sVcyivrhd
p2
I1
s.(dp0
Vd7lix79
p1
I1
sVcyivrhd
p2
I1
s.(dp0
Vd7ugp35
p1
I1
sVcyivrhd
p2
I1
s.(dp0
Vd872gda
p1
I1
sVcyivrhd
p2
I1
s.(dp0
Vd980dtf
p1
I1
sVcyivrhd
p2
I1
s.(dp0
Vdbquv6j
p1
I1
sVcyivrhd
p2
I1
s.(dp0
Vdbsy40c
p1
I1
sVcyivrhd
p2
I1
s.(dp0
Vdc4af4o
p1
I1
sVcyivrhd
p2
I1
s.(dp0
Vdcasd61
p1
I1
sVcyivrhd
p2
I1
s.(dp0
Vcyivrhd
p1
I1
sVdcasp70
p2
I1
s.(dp0
Vdcau6i9
p1
I1
sVcyivrhd
p2
I1
s.(dp0
Vdcavtmk
p1
I1
sVcyivrhd
p2
I1
s.(dp0
Vdcayq81
p1
I1
sVcyivrhd
p2
I1
s.(dp0
Vcyivrhd
p1
I1
sVdcgn08x
p2
I1
s.(dp0
Vdcy8yj5
p1
I1
sVcyivrhd
p2
I1
s.(dp0
Vdfcp3dd
p1
I1
sVcyivrhd
p2
I1
s.(dp0
Vdi4dkr6
p1
I1
sVcyivrhd
p2
I1
s.(dp0
Vcyivrhd
p1
I1
sVdib2bc4
p2
I1
s.(dp0
Vdj5vkcu
p1
I1
sVcyivrhd
p2
I1
s.(dp0
Vdj6xj5z
p1
I1
sVcyivrhd
p2
I1
s.(dp0
Vcyivrhd
p1
I1
sVdjgia6u
p2
I1
s.(dp0
Vdjgjas4
p1
I1
sVcyivrhd
p2
I1
s.(dp0
Vdkyflk6
p1
I1
sVcyivrhd
p2
I1
s.(dp0
Vdkyflk6
p1
I1
sVcyivrhd
p2
I1
s.