(dp0
Vcyp4fn5
p1
I1
s.(dp0
Vcyp4fn5
p1
I1
sVcz5nbtu
p2
I1
s.(dp0
Vcyp4fn5
p1
I1
sVczcc2w9
p2
I1
s.(dp0
Vcyp4fn5
p1
I1
sVd09ww86
p2
I1
s.(dp0
Vd0ewqza
p1
I1
sVcyp4fn5
p2
I1
s.(dp0
Vcyp4fn5
p1
I1
sVd0l4g65
p2
I1
s.(dp0
Vcyp4fn5
p1
I1
sVd0rxnnh
p2
I1
s.(dp0
Vd0z5qmu
p1
I1
sVcyp4fn5
p2
I1
s.(dp0
Vcyp4fn5
p1
I1
sVd120qw4
p2
I1
s.(dp0
Vd18pjmq
p1
I1
sVcyp4fn5
p2
I1
s.(dp0
Vcyp4fn5
p1
I1
sVd1cil28
p2
I1
s.(dp0
Vd1s8ume
p1
I1
sVcyp4fn5
p2
I1
s.(dp0
Vcyp4fn5
p1
I1
sVd25p61t
p2
I1
s.(dp0
Vcyp4fn5
p1
I1
sVd2fjtf9
p2
I1
s.(dp0
Vd2gl4sz
p1
I1
sVcyp4fn5
p2
I1
s.(dp0
Vcyp4fn5
p1
I1
sVd2hve8n
p2
I1
s.(dp0
Vcyp4fn5
p1
I1
sVd2iaql9
p2
I1
s.(dp0
Vcyp4fn5
p1
I1
sVd2jmr8x
p2
I1
s.(dp0
Vcyp4fn5
p1
I1
sVd2qvvi5
p2
I1
s.(dp0
Vcyp4fn5
p1
I1
sVd32dt3f
p2
I1
s.(dp0
Vcyp4fn5
p1
I1
sVd37cnma
p2
I1
s.(dp0
Vcyp4fn5
p1
I1
sVd3e7kmv
p2
I1
s.(dp0
Vcyp4fn5
p1
I1
sVd3x0nua
p2
I1
s.(dp0
Vcyp4fn5
p1
I1
sVd3x1qjc
p2
I1
s.(dp0
Vcyp4fn5
p1
I1
sVd4c6ehc
p2
I1
s.(dp0
Vcyp4fn5
p1
I1
sVd4qa744
p2
I1
s.(dp0
Vcyp4fn5
p1
I1
sVd4v5acn
p2
I1
s.(dp0
Vcyp4fn5
p1
I1
sVd4xveo4
p2
I1
s.(dp0
Vcyp4fn5
p1
I1
sVd4ytcmx
p2
I1
s.(dp0
Vcyp4fn5
p1
I1
sVd4ytcmx
p2
I1
s.(dp0
Vcyp4fn5
p1
I1
sVd4ytcmx
p2
I1
s.(dp0
Vcyp4fn5
p1
I1
sVd4ytcmx
p2
I1
s.(dp0
Vcyp4fn5
p1
I1
sVd5fg01j
p2
I1
s.(dp0
Vcyp4fn5
p1
I1
sVd5rgcsj
p2
I1
s.(dp0
Vcyp4fn5
p1
I1
sVd6i7gki
p2
I1
s.(dp0
Vcyp4fn5
p1
I1
sVd6jbtv7
p2
I1
s.(dp0
Vcyp4fn5
p1
I1
sVd7665ar
p2
I1
s.(dp0
Vd7eavoc
p1
I1
sVcyp4fn5
p2
I1
s.(dp0
Vd7moeip
p1
I1
sVcyp4fn5
p2
I1
s.(dp0
Vd7moeip
p1
I1
sVcyp4fn5
p2
I1
s.(dp0
Vcyp4fn5
p1
I1
sVd7zgr27
p2
I1
s.(dp0
Vcyp4fn5
p1
I1
sVd7zgr27
p2
I1
s.(dp0
Vcyp4fn5
p1
I1
sVd8wjyac
p2
I1
s.(dp0
Vcyp4fn5
p1
I1
sVd8wjyac
p2
I1
s.(dp0
Vd9196ff
p1
I1
sVcyp4fn5
p2
I1
s.(dp0
Vd9mtud9
p1
I1
sVcyp4fn5
p2
I1
s.(dp0
Vd9mvmid
p1
I1
sVcyp4fn5
p2
I1
s.(dp0
Vcyp4fn5
p1
I1
sVdajzsyk
p2
I1
s.(dp0
Vcyp4fn5
p1
I1
sVdavrbpy
p2
I1
s.(dp0
Vcyp4fn5
p1
I1
sVdbd189n
p2
I1
s.(dp0
Vcyp4fn5
p1
I1
sVdbgjvvb
p2
I1
s.(dp0
Vcyp4fn5
p1
I1
sVdbmxauw
p2
I1
s.(dp0
Vdbykznh
p1
I1
sVcyp4fn5
p2
I1
s.(dp0
Vcyp4fn5
p1
I1
sVdc2sh2p
p2
I1
s.(dp0
Vdc8vepy
p1
I1
sVcyp4fn5
p2
I1
s.(dp0
Vdc93528
p1
I1
sVcyp4fn5
p2
I1
s.(dp0
Vdcap465
p1
I1
sVcyp4fn5
p2
I1
s.(dp0
Vcyp4fn5
p1
I1
sVdcbdwi6
p2
I1
s.(dp0
Vcyp4fn5
p1
I1
sVdcdbffx
p2
I1
s.(dp0
Vcyp4fn5
p1
I1
sVdcde5tz
p2
I1
s.(dp0
Vcyp4fn5
p1
I1
sVdck5evg
p2
I1
s.(dp0
Vcyp4fn5
p1
I1
sVdckk88s
p2
I1
s.(dp0
Vcyp4fn5
p1
I1
sVdckk88s
p2
I1
s.(dp0
Vcyp4fn5
p1
I1
sVdcuafki
p2
I1
s.(dp0
Vcyp4fn5
p1
I1
sVdcza7y0
p2
I1
s.(dp0
Vcyp4fn5
p1
I1
sVddkg3xt
p2
I1
s.(dp0
Vcyp4fn5
p1
I1
sVddkg3xt
p2
I1
s.(dp0
Vde40970
p1
I1
sVcyp4fn5
p2
I1
s.(dp0
Vde40970
p1
I1
sVcyp4fn5
p2
I1
s.(dp0
Vde748ry
p1
I1
sVcyp4fn5
p2
I1
s.(dp0
Vcyp4fn5
p1
I1
sVdekwuhi
p2
I1
s.(dp0
Vcyp4fn5
p1
I1
sVdf1dx4b
p2
I1
s.(dp0
Vdfh39qj
p1
I1
sVcyp4fn5
p2
I1
s.(dp0
Vcyp4fn5
p1
I1
sVdfkpddi
p2
I1
s.(dp0
Vdfpunpe
p1
I1
sVcyp4fn5
p2
I1
s.(dp0
Vcyp4fn5
p1
I1
sVdg3hb05
p2
I1
s.(dp0
Vcyp4fn5
p1
I1
sVdg9v1b9
p2
I1
s.(dp0
Vcyp4fn5
p1
I1
sVdgbtp5l
p2
I1
s.(dp0
Vcyp4fn5
p1
I1
sVdgjl3vt
p2
I1
s.(dp0
Vcyp4fn5
p1
I1
sVdgmx6x0
p2
I1
s.(dp0
Vcyp4fn5
p1
I1
sVdgpln0b
p2
I1
s.(dp0
Vdgx4lum
p1
I1
sVcyp4fn5
p2
I1
s.(dp0
Vcyp4fn5
p1
I1
sVdhhnpto
p2
I1
s.(dp0
Vcyp4fn5
p1
I1
sVdhjk4ru
p2
I1
s.(dp0
Vdhl75il
p1
I1
sVcyp4fn5
p2
I1
s.(dp0
Vcyp4fn5
p1
I1
sVdhnuoo3
p2
I1
s.(dp0
Vcyp4fn5
p1
I1
sVdho7n93
p2
I1
s.(dp0
Vcyp4fn5
p1
I1
sVdhpiuad
p2
I1
s.(dp0
Vdid6qmd
p1
I1
sVcyp4fn5
p2
I1
s.(dp0
Vdid6qmd
p1
I1
sVcyp4fn5
p2
I1
s.(dp0
Vcyp4fn5
p1
I1
sVdim18uu
p2
I1
s.(dp0
Vcyp4fn5
p1
I1
sVdim18uu
p2
I1
s.(dp0
Vcyp4fn5
p1
I1
sVdiwrdb7
p2
I1
s.(dp0
Vcyp4fn5
p1
I1
sVdj7ehx3
p2
I1
s.(dp0
Vcyp4fn5
p1
I1
sVdjme0oq
p2
I1
s.(dp0
Vcyp4fn5
p1
I1
sVdjqzkid
p2
I1
s.(dp0
Vdjtpklw
p1
I1
sVcyp4fn5
p2
I1
s.