(dp0
Vcyns11y
p1
I1
s.(dp0
Vcytiqcw
p1
I1
sVcyns11y
p2
I1
s.(dp0
Vcyns11y
p1
I1
sVcyu2v4o
p2
I1
s.(dp0
Vcywo55c
p1
I1
sVcyns11y
p2
I1
s.(dp0
Vcyns11y
p1
I1
sVczlet68
p2
I1
s.(dp0
Vcyns11y
p1
I1
sVcznef0n
p2
I1
s.(dp0
Vcztsjox
p1
I1
sVcyns11y
p2
I1
s.(dp0
Vcyns11y
p1
I1
sVd1i1h1w
p2
I1
s.(dp0
Vd2quqhb
p1
I1
sVcyns11y
p2
I1
s.(dp0
Vd2z3kjp
p1
I1
sVcyns11y
p2
I1
s.(dp0
Vd398uas
p1
I1
sVcyns11y
p2
I1
s.(dp0
Vd40azak
p1
I1
sVcyns11y
p2
I1
s.(dp0
Vcyns11y
p1
I1
sVd4mk1dk
p2
I1
s.(dp0
Vd5d6liu
p1
I1
sVcyns11y
p2
I1
s.(dp0
Vcyns11y
p1
I1
sVd6gr2ow
p2
I1
s.(dp0
Vd6j5zfp
p1
I1
sVcyns11y
p2
I1
s.(dp0
Vcyns11y
p1
I1
sVd7hfetl
p2
I1
s.(dp0
Vd805zga
p1
I1
sVcyns11y
p2
I1
s.(dp0
Vcyns11y
p1
I1
sVd93trhj
p2
I1
s.(dp0
Vd9abshg
p1
I1
sVcyns11y
p2
I1
s.(dp0
Vcyns11y
p1
I1
sVd9r5s26
p2
I1
s.(dp0
Vcyns11y
p1
I1
sVd9r5s26
p2
I1
s.(dp0
Vcyns11y
p1
I1
sVda51dmi
p2
I1
s.(dp0
Vcyns11y
p1
I1
sVdben4hn
p2
I1
s.(dp0
Vcyns11y
p1
I1
sVdben4hn
p2
I1
s.(dp0
Vcyns11y
p1
I1
sVdbibdab
p2
I1
s.(dp0
Vcyns11y
p1
I1
sVdbibdab
p2
I1
s.(dp0
Vcyns11y
p1
I1
sVdbjy8hz
p2
I1
s.(dp0
Vdcrsq30
p1
I1
sVcyns11y
p2
I1
s.(dp0
Vcyns11y
p1
I1
sVdd99lyu
p2
I1
s.(dp0
Vddhi1th
p1
I1
sVcyns11y
p2
I1
s.(dp0
Vddl26tl
p1
I1
sVcyns11y
p2
I1
s.(dp0
Vddwe10d
p1
I1
sVcyns11y
p2
I1
s.(dp0
Vcyns11y
p1
I1
sVde4mv8u
p2
I1
s.(dp0
Vcyns11y
p1
I1
sVde7qs1l
p2
I1
s.(dp0
Vcyns11y
p1
I1
sVde8spo5
p2
I1
s.(dp0
Vcyns11y
p1
I1
sVdf3bs1g
p2
I1
s.(dp0
Vcyns11y
p1
I1
sVdfow0b3
p2
I1
s.(dp0
Vdh10wtc
p1
I1
sVcyns11y
p2
I1
s.(dp0
Vcyns11y
p1
I1
sVdhvp46l
p2
I1
s.(dp0
Vcyns11y
p1
I1
sVdipalzu
p2
I1
s.(dp0
Vdirgglv
p1
I1
sVcyns11y
p2
I1
s.(dp0
Vcyns11y
p1
I1
sVdisis0o
p2
I1
s.(dp0
Vcyns11y
p1
I1
sVdisis0o
p2
I1
s.