(dp0
Vcz8h0g2
p1
I1
s.(dp0
Vcz8h0g2
p1
I1
sVczzg5j0
p2
I1
s.(dp0
Vcz8h0g2
p1
I1
sVd13a7nx
p2
I1
s.(dp0
Vcz8h0g2
p1
I1
sVd1aso4p
p2
I1
s.(dp0
Vcz8h0g2
p1
I1
sVd27z1og
p2
I1
s.(dp0
Vcz8h0g2
p1
I1
sVd2s3y9n
p2
I1
s.(dp0
Vd2w2tsy
p1
I1
sVcz8h0g2
p2
I1
s.(dp0
Vcz8h0g2
p1
I1
sVd4i4eei
p2
I1
s.(dp0
Vcz8h0g2
p1
I1
sVd4ph413
p2
I1
s.(dp0
Vcz8h0g2
p1
I1
sVd587w40
p2
I1
s.(dp0
Vd5mdt89
p1
I1
sVcz8h0g2
p2
I1
s.(dp0
Vcz8h0g2
p1
I1
sVd62nme1
p2
I1
s.(dp0
Vcz8h0g2
p1
I1
sVd8w0o46
p2
I1
s.(dp0
Vcz8h0g2
p1
I1
sVdayrxpz
p2
I1
s.(dp0
Vcz8h0g2
p1
I1
sVdb25pcn
p2
I1
s.(dp0
Vcz8h0g2
p1
I1
sVdbqdpbl
p2
I1
s.(dp0
Vcz8h0g2
p1
I1
sVdbqvpd4
p2
I1
s.(dp0
Vcz8h0g2
p1
I1
sVdcgi51n
p2
I1
s.(dp0
Vcz8h0g2
p1
I1
sVdegczb5
p2
I1
s.(dp0
Vcz8h0g2
p1
I1
sVdes32x6
p2
I1
s.(dp0
Vcz8h0g2
p1
I1
sVdfvsrk0
p2
I1
s.(dp0
Vcz8h0g2
p1
I1
sVdjou4j4
p2
I1
s.(dp0
Vcz8h0g2
p1
I1
sVdkync31
p2
I1
s.(dp0
Vcz8h0g2
p1
I1
sVdmmp56p
p2
I1
s.(dp0
Vcz8h0g2
p1
I1
sVdoed01n
p2
I1
s.(dp0
Vcz8h0g2
p1
I1
sVdoumhpr
p2
I1
s.