(dp0
Vcyjp5in
p1
I1
s.(dp0
Vcyjp5in
p1
I1
sVczmh349
p2
I1
s.(dp0
Vd0hvdog
p1
I1
sVcyjp5in
p2
I1
s.(dp0
Vd0hvdog
p1
I1
sVcyjp5in
p2
I1
s.(dp0
Vd3qg8i3
p1
I1
sVcyjp5in
p2
I1
s.(dp0
Vd6d9t7g
p1
I1
sVcyjp5in
p2
I1
s.(dp0
Vdafz4vl
p1
I1
sVcyjp5in
p2
I1
s.(dp0
Vdflw1s4
p1
I1
sVcyjp5in
p2
I1
s.(dp0
Vdgdl0w9
p1
I1
sVcyjp5in
p2
I1
s.(dp0
Vdgwgt76
p1
I1
sVcyjp5in
p2
I1
s.(dp0
Vcyjp5in
p1
I1
sVdjcd8be
p2
I1
s.