(dp0
Vcyl0ocz
p1
I1
s.(dp0
Vcymih8l
p1
I1
sVcyl0ocz
p2
I1
s.(dp0
Vcyl0ocz
p1
I1
sVcypccz6
p2
I1
s.(dp0
Vcz2s9ll
p1
I1
sVcyl0ocz
p2
I1
s.(dp0
Vcyl0ocz
p1
I1
sVcz7pobo
p2
I1
s.(dp0
Vcyl0ocz
p1
I1
sVcz9qjpq
p2
I1
s.(dp0
Vcyl0ocz
p1
I1
sVczjcllu
p2
I1
s.(dp0
Vczraf9v
p1
I1
sVcyl0ocz
p2
I1
s.(dp0
Vd0gun07
p1
I1
sVcyl0ocz
p2
I1
s.(dp0
Vcyl0ocz
p1
I1
sVd0nrm47
p2
I1
s.(dp0
Vd0qz7i7
p1
I1
sVcyl0ocz
p2
I1
s.(dp0
Vd12xq1a
p1
I1
sVcyl0ocz
p2
I1
s.(dp0
Vd14ckde
p1
I1
sVcyl0ocz
p2
I1
s.(dp0
Vcyl0ocz
p1
I1
sVd1l52u4
p2
I1
s.(dp0
Vd1mk4bv
p1
I1
sVcyl0ocz
p2
I1
s.(dp0
Vd1qbps4
p1
I1
sVcyl0ocz
p2
I1
s.(dp0
Vd264b40
p1
I1
sVcyl0ocz
p2
I1
s.(dp0
Vd2a60zr
p1
I1
sVcyl0ocz
p2
I1
s.(dp0
Vcyl0ocz
p1
I1
sVd2a8tre
p2
I1
s.(dp0
Vd2cw440
p1
I1
sVcyl0ocz
p2
I1
s.(dp0
Vcyl0ocz
p1
I1
sVd2v24ka
p2
I1
s.(dp0
Vcyl0ocz
p1
I1
sVd2vy0ls
p2
I1
s.(dp0
Vcyl0ocz
p1
I1
sVd2wb2i8
p2
I1
s.(dp0
Vcyl0ocz
p1
I1
sVd2wb2i8
p2
I1
s.(dp0
Vd2yesm4
p1
I1
sVcyl0ocz
p2
I1
s.(dp0
Vcyl0ocz
p1
I1
sVd36l4ux
p2
I1
s.(dp0
Vd3d8wke
p1
I1
sVcyl0ocz
p2
I1
s.(dp0
Vcyl0ocz
p1
I1
sVd3ldgcf
p2
I1
s.(dp0
Vcyl0ocz
p1
I1
sVd3u12di
p2
I1
s.(dp0
Vcyl0ocz
p1
I1
sVd3zt825
p2
I1
s.(dp0
Vcyl0ocz
p1
I1
sVd3zt825
p2
I1
s.(dp0
Vcyl0ocz
p1
I1
sVd40xmgb
p2
I1
s.(dp0
Vcyl0ocz
p1
I1
sVd441zw0
p2
I1
s.(dp0
Vd44jys3
p1
I1
sVcyl0ocz
p2
I1
s.(dp0
Vcyl0ocz
p1
I1
sVd4as0wu
p2
I1
s.(dp0
Vcyl0ocz
p1
I1
sVd4bpchy
p2
I1
s.(dp0
Vcyl0ocz
p1
I1
sVd4kszv4
p2
I1
s.(dp0
Vcyl0ocz
p1
I1
sVd4kszv4
p2
I1
s.(dp0
Vcyl0ocz
p1
I1
sVd4ldyi7
p2
I1
s.(dp0
Vd59erhe
p1
I1
sVcyl0ocz
p2
I1
s.(dp0
Vcyl0ocz
p1
I1
sVd59g6qq
p2
I1
s.(dp0
Vd5q6r8e
p1
I1
sVcyl0ocz
p2
I1
s.(dp0
Vcyl0ocz
p1
I1
sVd65fkdq
p2
I1
s.(dp0
Vcyl0ocz
p1
I1
sVd66upie
p2
I1
s.(dp0
Vcyl0ocz
p1
I1
sVd6br1bs
p2
I1
s.(dp0
Vd6jfpyo
p1
I1
sVcyl0ocz
p2
I1
s.(dp0
Vd6mk9dn
p1
I1
sVcyl0ocz
p2
I1
s.(dp0
Vd71pkxu
p1
I1
sVcyl0ocz
p2
I1
s.(dp0
Vcyl0ocz
p1
I1
sVd7it2t2
p2
I1
s.(dp0
Vcyl0ocz
p1
I1
sVd7k7dbi
p2
I1
s.(dp0
Vcyl0ocz
p1
I1
sVd7phxe2
p2
I1
s.(dp0
Vcyl0ocz
p1
I1
sVd7phxe2
p2
I1
s.(dp0
Vcyl0ocz
p1
I1
sVd7phxe2
p2
I1
s.(dp0
Vcyl0ocz
p1
I1
sVd7phxe2
p2
I1
s.(dp0
Vd7qh3vc
p1
I1
sVcyl0ocz
p2
I1
s.(dp0
Vcyl0ocz
p1
I1
sVd8636c4
p2
I1
s.(dp0
Vcyl0ocz
p1
I1
sVd8636c4
p2
I1
s.(dp0
Vcyl0ocz
p1
I1
sVd8636c4
p2
I1
s.(dp0
Vd89hppz
p1
I1
sVcyl0ocz
p2
I1
s.(dp0
Vd8u4472
p1
I1
sVcyl0ocz
p2
I1
s.(dp0
Vcyl0ocz
p1
I1
sVd9cc3of
p2
I1
s.(dp0
Vcyl0ocz
p1
I1
sVd9ed0ht
p2
I1
s.(dp0
Vcyl0ocz
p1
I1
sVd9othso
p2
I1
s.(dp0
Vcyl0ocz
p1
I1
sVd9qyhen
p2
I1
s.(dp0
Vcyl0ocz
p1
I1
sVda6flg0
p2
I1
s.(dp0
Vcyl0ocz
p1
I1
sVda85zbp
p2
I1
s.(dp0
Vdabhbi1
p1
I1
sVcyl0ocz
p2
I1
s.(dp0
Vcyl0ocz
p1
I1
sVdafygij
p2
I1
s.(dp0
Vdak0pg4
p1
I1
sVcyl0ocz
p2
I1
s.(dp0
Vcyl0ocz
p1
I1
sVdaph7go
p2
I1
s.(dp0
Vdb05c5n
p1
I1
sVcyl0ocz
p2
I1
s.(dp0
Vdb557dm
p1
I1
sVcyl0ocz
p2
I1
s.(dp0
Vcyl0ocz
p1
I1
sVdb8d8ui
p2
I1
s.(dp0
Vdba4q2n
p1
I1
sVcyl0ocz
p2
I1
s.(dp0
Vdba4q2n
p1
I1
sVcyl0ocz
p2
I1
s.(dp0
Vcyl0ocz
p1
I1
sVdbf44wz
p2
I1
s.(dp0
Vcyl0ocz
p1
I1
sVdbnouca
p2
I1
s.(dp0
Vdbrwzsv
p1
I1
sVcyl0ocz
p2
I1
s.(dp0
Vcyl0ocz
p1
I1
sVdc5n5pu
p2
I1
s.(dp0
Vcyl0ocz
p1
I1
sVdcpn03d
p2
I1
s.(dp0
Vcyl0ocz
p1
I1
sVdcvtc39
p2
I1
s.(dp0
Vcyl0ocz
p1
I1
sVdcw1whx
p2
I1
s.(dp0
Vcyl0ocz
p1
I1
sVdcw1whx
p2
I1
s.(dp0
Vcyl0ocz
p1
I1
sVdcw1whx
p2
I1
s.(dp0
Vcyl0ocz
p1
I1
sVdcw3a1s
p2
I1
s.(dp0
Vcyl0ocz
p1
I1
sVdcw3a1s
p2
I1
s.(dp0
Vdd3y419
p1
I1
sVcyl0ocz
p2
I1
s.(dp0
Vdd8f98m
p1
I1
sVcyl0ocz
p2
I1
s.(dp0
Vddldvb7
p1
I1
sVcyl0ocz
p2
I1
s.(dp0
Vddldvb7
p1
I1
sVcyl0ocz
p2
I1
s.(dp0
Vddldvb7
p1
I1
sVcyl0ocz
p2
I1
s.(dp0
Vddlsgxt
p1
I1
sVcyl0ocz
p2
I1
s.(dp0
Vcyl0ocz
p1
I1
sVddv8bhx
p2
I1
s.(dp0
Vcyl0ocz
p1
I1
sVddwhuk5
p2
I1
s.(dp0
Vcyl0ocz
p1
I1
sVdeaonan
p2
I1
s.(dp0
Vcyl0ocz
p1
I1
sVdec1xzr
p2
I1
s.(dp0
Vcyl0ocz
p1
I1
sVdedi95l
p2
I1
s.(dp0
Vcyl0ocz
p1
I1
sVdehlvg6
p2
I1
s.(dp0
Vcyl0ocz
p1
I1
sVdejqki3
p2
I1
s.(dp0
Vcyl0ocz
p1
I1
sVdek0thp
p2
I1
s.(dp0
Vcyl0ocz
p1
I1
sVdeudm84
p2
I1
s.(dp0
Vdexfm1u
p1
I1
sVcyl0ocz
p2
I1
s.(dp0
Vcyl0ocz
p1
I1
sVdf3d5rr
p2
I1
s.(dp0
Vcyl0ocz
p1
I1
sVdf3t352
p2
I1
s.(dp0
Vcyl0ocz
p1
I1
sVdf4g2n6
p2
I1
s.(dp0
Vcyl0ocz
p1
I1
sVdfurk59
p2
I1
s.(dp0
Vcyl0ocz
p1
I1
sVdg7ysh2
p2
I1
s.(dp0
Vdghqzn8
p1
I1
sVcyl0ocz
p2
I1
s.(dp0
Vdg(dp0
Vcyl0ocz
p1
I1
sVdka0a9a
p2
I1
s.