(dp0
Vcz1u0hs
p1
I1
s.(dp0
Vcz1u0hs
p1
I1
sVczfoc0e
p2
I1
s.(dp0
Vd0bj6nc
p1
I1
sVcz1u0hs
p2
I1
s.(dp0
Vcz1u0hs
p1
I1
sVd0elj0d
p2
I1
s.(dp0
Vd0eljsm
p1
I1
sVcz1u0hs
p2
I1
s.(dp0
Vd18rfzn
p1
I1
sVcz1u0hs
p2
I1
s.(dp0
Vcz1u0hs
p1
I1
sVd1gbyd1
p2
I1
s.(dp0
Vcz1u0hs
p1
I1
sVd1jpx0m
p2
I1
s.(dp0
Vcz1u0hs
p1
I1
sVd1jpx0m
p2
I1
s.(dp0
Vcz1u0hs
p1
I1
sVd1k090m
p2
I1
s.(dp0
Vcz1u0hs
p1
I1
sVd1za3l5
p2
I1
s.(dp0
Vcz1u0hs
p1
I1
sVd310vdu
p2
I1
s.(dp0
Vcz1u0hs
p1
I1
sVd3ew07t
p2
I1
s.(dp0
Vd4qr659
p1
I1
sVcz1u0hs
p2
I1
s.(dp0
Vcz1u0hs
p1
I1
sVd56vcv1
p2
I1
s.(dp0
Vcz1u0hs
p1
I1
sVd5vs4yr
p2
I1
s.(dp0
Vda19tvl
p1
I1
sVcz1u0hs
p2
I1
s.(dp0
Vcz1u0hs
p1
I1
sVdbi9wqf
p2
I1
s.(dp0
Vcz1u0hs
p1
I1
sVdbmj8k4
p2
I1
s.(dp0
Vcz1u0hs
p1
I1
sVde13b3n
p2
I1
s.(dp0
Vcz1u0hs
p1
I1
sVde7sfij
p2
I1
s.(dp0
Vcz1u0hs
p1
I1
sVde8mwu0
p2
I1
s.(dp0
Vdeelyy7
p1
I1
sVcz1u0hs
p2
I1
s.(dp0
Vdehroyn
p1
I1
sVcz1u0hs
p2
I1
s.(dp0
Vcz1u0hs
p1
I1
sVdenomkf
p2
I1
s.(dp0
Vcz1u0hs
p1
I1
sVdev9k0k
p2
I1
s.(dp0
Vcz1u0hs
p1
I1
sVdev9k0k
p2
I1
s.(dp0
Vcz1u0hs
p1
I1
sVdftefcx
p2
I1
s.(dp0
Vcz1u0hs
p1
I1
sVdgfi9wc
p2
I1
s.(dp0
Vcz1u0hs
p1
I1
sVdi0fx2a
p2
I1
s.