(dp0
Vcz1duh0
p1
I1
s.(dp0
Vcz1duh0
p1
I2
s.(dp0
Vcz1dyv7
p1
I1
sVcz1duh0
p2
I1
s.(dp0
Vcz1duh0
p1
I1
sVcz8110g
p2
I1
s.(dp0
Vczf6ced
p1
I1
sVcz1duh0
p2
I1
s.(dp0
Vcznqely
p1
I1
sVcz1duh0
p2
I1
s.(dp0
Vd0912zs
p1
I1
sVcz1duh0
p2
I1
s.(dp0
Vd0gb20q
p1
I1
sVcz1duh0
p2
I1
s.(dp0
Vd0jc4fv
p1
I1
sVcz1duh0
p2
I1
s.(dp0
Vd17gp2p
p1
I1
sVcz1duh0
p2
I1
s.(dp0
Vd1v83zz
p1
I1
sVcz1duh0
p2
I1
s.(dp0
Vd1vu88v
p1
I1
sVcz1duh0
p2
I1
s.(dp0
Vd1vuexe
p1
I1
sVcz1duh0
p2
I1
s.(dp0
Vd1vuml0
p1
I1
sVcz1duh0
p2
I1
s.(dp0
Vd3xigu1
p1
I1
sVcz1duh0
p2
I1
s.(dp0
Vd5kmqf7
p1
I1
sVcz1duh0
p2
I1
s.(dp0
Vd5wkx7i
p1
I1
sVcz1duh0
p2
I1
s.(dp0
Vd61yiml
p1
I1
sVcz1duh0
p2
I1
s.(dp0
Vd64kdyo
p1
I1
sVcz1duh0
p2
I1
s.(dp0
Vd68rtj7
p1
I1
sVcz1duh0
p2
I1
s.(dp0
Vd6ul19p
p1
I1
sVcz1duh0
p2
I1
s.(dp0
Vd6ypgy8
p1
I1
sVcz1duh0
p2
I1
s.(dp0
Vd7e4tsc
p1
I1
sVcz1duh0
p2
I1
s.(dp0
Vd7eoyo9
p1
I1
sVcz1duh0
p2
I1
s.(dp0
Vd7eoyo9
p1
I1
sVcz1duh0
p2
I1
s.(dp0
Vd7eoyo9
p1
I1
sVcz1duh0
p2
I1
s.(dp0
Vd7eoyo9
p1
I1
sVcz1duh0
p2
I1
s.(dp0
Vd7es5nh
p1
I1
sVcz1duh0
p2
I1
s.(dp0
Vd7f9vly
p1
I1
sVcz1duh0
p2
I1
s.(dp0
Vd86i6vp
p1
I1
sVcz1duh0
p2
I1
s.(dp0
Vd86i6vp
p1
I1
sVcz1duh0
p2
I1
s.(dp0
Vd87owd0
p1
I1
sVcz1duh0
p2
I1
s.(dp0
Vcz1duh0
p1
I1
sVd9a1kso
p2
I1
s.(dp0
Vda9u5yb
p1
I1
sVcz1duh0
p2
I1
s.(dp0
Vdaq1bxw
p1
I1
sVcz1duh0
p2
I1
s.(dp0
Vdaq1bxw
p1
I1
sVcz1duh0
p2
I1
s.(dp0
Vdaq1bxw
p1
I1
sVcz1duh0
p2
I1
s.(dp0
Vdazt92r
p1
I1
sVcz1duh0
p2
I1
s.(dp0
Vdazv7jo
p1
I1
sVcz1duh0
p2
I1
s.(dp0
Vdb05eqa
p1
I1
sVcz1duh0
p2
I1
s.(dp0
Vdb07bc1
p1
I1
sVcz1duh0
p2
I1
s.(dp0
Vdb44jhq
p1
I1
sVcz1duh0
p2
I1
s.(dp0
Vdbswv29
p1
I1
sVcz1duh0
p2
I1
s.(dp0
Vdcwhstb
p1
I1
sVcz1duh0
p2
I1
s.(dp0
Vdeh37mf
p1
I1
sVcz1duh0
p2
I1
s.(dp0
Vden8lit
p1
I1
sVcz1duh0
p2
I1
s.(dp0
Vdfkvwxi
p1
I1
sVcz1duh0
p2
I1
s.(dp0
Vdfwvni4
p1
I1
sVcz1duh0
p2
I1
s.(dp0
Vdfwvni4
p1
I1
sVcz1duh0
p2
I1
s.(dp0
Vdhx3091
p1
I1
sVcz1duh0
p2
I1
s.(dp0
Vcz1duh0
p1
I1
sVdi7s6ju
p2
I1
s.(dp0
Vcz1duh0
p1
I1
sVdi7s6ju
p2
I1
s.(dp0
Vdibn3f0
p1
I1
sVcz1duh0
p2
I1
s.(dp0
Vdibn3f0
p1
I1
sVcz1duh0
p2
I1
s.(dp0
Vdibouwe
p1
I1
sVcz1duh0
p2
I1
s.(dp0
Vdibx88x
p1
I1
sVcz1duh0
p2
I1
s.(dp0
Vdibx88x
p1
I1
sVcz1duh0
p2
I1
s.(dp0
Vdiu564h
p1
I1
sVcz1duh0
p2
I1
s.(dp0
Vdj0sc7h
p1
I1
sVcz1duh0
p2
I1
s.(dp0
Vdj84i1s
p1
I1
sVcz1duh0
p2
I1
s.(dp0
Vdjg3gn2
p1
I1
sVcz1duh0
p2
I1
s.(dp0
Vdjg3gn2
p1
I1
sVcz1duh0
p2
I1
s.(dp0
Vdju4xua
p1
I1
sVcz1duh0
p2
I1
s.(dp0
Vdk0gfhc
p1
I1
sVcz1duh0
p2
I1
s.(dp0
Vdkz9v9g
p1
I1
sVcz1duh0
p2
I1
s.(dp0
Vdmpqnsn
p1
I1
sVcz1duh0
p2
I1
s.(dp0
Vdms4m88
p1
I1
sVcz1duh0
p2
I1
s.(dp0
Vdnh06dc
p1
I1
sVcz1duh0
p2
I1
s.(dp0
Vdo3fu5j
p1
I1
sVcz1duh0
p2
I1
s.(dp0
Vdo3fu5j
p1
I1
sVcz1duh0
p2
I1
s.(dp0
Vdo8dke1
p1
I1
sVcz1duh0
p2
I1
s.(dp0
Vdo8ippt
p1
I1
sVcz1duh0
p2
I1
s.(dp0
Vdo8xpu0
p1
I1
sVcz1duh0
p2
I1
s.(dp0
Vcz1duh0
p1
I1
sVdoitgry
p2
I1
s.