(dp0
Vcyv3p46
p1
I1
s.(dp0
Vd02m7qg
p1
I1
sVcyv3p46
p2
I1
s.(dp0
Vd0731d7
p1
I1
sVcyv3p46
p2
I1
s.(dp0
Vd0rcd6g
p1
I1
sVcyv3p46
p2
I1
s.(dp0
Vd13opdl
p1
I1
sVcyv3p46
p2
I1
s.(dp0
Vcyv3p46
p1
I1
sVd18s94g
p2
I1
s.(dp0
Vd1q063m
p1
I1
sVcyv3p46
p2
I1
s.(dp0
Vd2r57fm
p1
I1
sVcyv3p46
p2
I1
s.(dp0
Vd7s6wie
p1
I1
sVcyv3p46
p2
I1
s.(dp0
Vcyv3p46
p1
I1
sVd91i92f
p2
I1
s.(dp0
Vda9jevx
p1
I1
sVcyv3p46
p2
I1
s.(dp0
Vdbmw4gv
p1
I1
sVcyv3p46
p2
I1
s.(dp0
Vdbmwb2k
p1
I1
sVcyv3p46
p2
I1
s.(dp0
Vdbmwso1
p1
I1
sVcyv3p46
p2
I1
s.(dp0
Vdbmwso1
p1
I1
sVcyv3p46
p2
I1
s.(dp0
Vdbmwso1
p1
I1
sVcyv3p46
p2
I1
s.(dp0
Vdbmy7c3
p1
I1
sVcyv3p46
p2
I1
s.(dp0
Vdbmyhyk
p1
I1
sVcyv3p46
p2
I1
s.(dp0
Vdbmyhyk
p1
I1
sVcyv3p46
p2
I1
s.(dp0
Vcyv3p46
p1
I1
sVdbmzjcz
p2
I1
s.(dp0
Vdbn0d7i
p1
I1
sVcyv3p46
p2
I1
s.(dp0
Vdbn0d7i
p1
I1
sVcyv3p46
p2
I1
s.(dp0
Vdbn1l4c
p1
I1
sVcyv3p46
p2
I1
s.(dp0
Vdbn28gn
p1
I1
sVcyv3p46
p2
I1
s.(dp0
Vdbn8wtt
p1
I1
sVcyv3p46
p2
I1
s.(dp0
Vdbn8wtt
p1
I1
sVcyv3p46
p2
I1
s.(dp0
Vdbn8wtt
p1
I1
sVcyv3p46
p2
I1
s.(dp0
Vdbn9vxs
p1
I1
sVcyv3p46
p2
I1
s.(dp0
Vdbnepjn
p1
I1
sVcyv3p46
p2
I1
s.(dp0
Vdeubg0k
p1
I1
sVcyv3p46
p2
I1
s.(dp0
Vdhxlbkz
p1
I1
sVcyv3p46
p2
I1
s.(dp0
Vdhxlbkz
p1
I1
sVcyv3p46
p2
I1
s.(dp0
Vdkdawz9
p1
I1
sVcyv3p46
p2
I1
s.(dp0
Vcyv3p46
p1
I1
sVdkf26gf
p2
I1
s.(dp0
Vdkocv6q
p1
I1
sVcyv3p46
p2
I1
s.(dp0
Vdkog79h
p1
I1
sVcyv3p46
p2
I1
s.(dp0
Vdkog79h
p1
I1
sVcyv3p46
p2
I1
s.(dp0
Vdkog79h
p1
I1
sVcyv3p46
p2
I1
s.(dp0
Vdkog79h
p1
I1
sVcyv3p46
p2
I1
s.(dp0
Vcyv3p46
p1
I1
sVdkop75f
p2
I1
s.(dp0
Vdkx9jon
p1
I1
sVcyv3p46
p2
I1
s.