(dp0
Vcyzmkbw
p1
I1
s.(dp0
Vcz2uhgz
p1
I1
sVcyzmkbw
p2
I1
s.(dp0
Vczv7uma
p1
I1
sVcyzmkbw
p2
I1
s.(dp0
Vd1284su
p1
I1
sVcyzmkbw
p2
I1
s.(dp0
Vcyzmkbw
p1
I1
sVd20l789
p2
I1
s.(dp0
Vd2azy1w
p1
I1
sVcyzmkbw
p2
I1
s.(dp0
Vd2qg5yq
p1
I1
sVcyzmkbw
p2
I1
s.(dp0
Vcyzmkbw
p1
I1
sVd2v779c
p2
I1
s.(dp0
Vd399u2x
p1
I1
sVcyzmkbw
p2
I1
s.(dp0
Vd7cwqlb
p1
I1
sVcyzmkbw
p2
I1
s.(dp0
Vdaad9e1
p1
I1
sVcyzmkbw
p2
I1
s.(dp0
Vdb3fita
p1
I1
sVcyzmkbw
p2
I1
s.(dp0
Vdcnzeva
p1
I1
sVcyzmkbw
p2
I1
s.(dp0
Vddbvkbj
p1
I1
sVcyzmkbw
p2
I1
s.(dp0
Vdehwn30
p1
I1
sVcyzmkbw
p2
I1
s.(dp0
Vdeijju6
p1
I1
sVcyzmkbw
p2
I1
s.(dp0
Vcyzmkbw
p1
I1
sVdekd4q3
p2
I1
s.(dp0
Vcyzmkbw
p1
I1
sVdf26wph
p2
I1
s.(dp0
Vdf6gyol
p1
I1
sVcyzmkbw
p2
I1
s.(dp0
Vcyzmkbw
p1
I1
sVdfwup00
p2
I1
s.(dp0
Vcyzmkbw
p1
I1
sVdg3ad32
p2
I1
s.(dp0
Vcyzmkbw
p1
I1
sVdggjwxw
p2
I1
s.(dp0
Vdgik972
p1
I1
sVcyzmkbw
p2
I1
s.(dp0
Vdgmxclu
p1
I1
sVcyzmkbw
p2
I1
s.(dp0
Vcyzmkbw
p1
I1
sVdhfadhc
p2
I1
s.(dp0
Vdhswli6
p1
I1
sVcyzmkbw
p2
I1
s.(dp0
Vdi359dz
p1
I1
sVcyzmkbw
p2
I1
s.(dp0
Vdjf97uk
p1
I1
sVcyzmkbw
p2
I1
s.(dp0
Vdjheudd
p1
I1
sVcyzmkbw
p2
I1
s.(dp0
Vcyzmkbw
p1
I1
sVdknbfz4
p2
I1
s.(dp0
Vdmr1gft
p1
I1
sVcyzmkbw
p2
I1
s.