(dp0
Vcyigf45
p1
I1
s.(dp0
Vcyigf45
p1
I2
s.(dp0
Vcyiojhx
p1
I1
sVcyigf45
p2
I1
s.(dp0
Vcyj87it
p1
I1
sVcyigf45
p2
I1
s.(dp0
Vcyjbadl
p1
I1
sVcyigf45
p2
I1
s.(dp0
Vcyjbadl
p1
I1
sVcyigf45
p2
I1
s.(dp0
Vcyjbadl
p1
I1
sVcyigf45
p2
I1
s.(dp0
Vcyjbadl
p1
I1
sVcyigf45
p2
I1
s.(dp0
Vcyjbadl
p1
I1
sVcyigf45
p2
I1
s.(dp0
Vcyjbadl
p1
I1
sVcyigf45
p2
I1
s.(dp0
Vcyjbadl
p1
I1
sVcyigf45
p2
I1
s.(dp0
Vcyjcp8c
p1
I1
sVcyigf45
p2
I1
s.(dp0
Vcyjcp8c
p1
I1
sVcyigf45
p2
I1
s.(dp0
Vcyjgf89
p1
I1
sVcyigf45
p2
I1
s.(dp0
Vcyjhm7c
p1
I1
sVcyigf45
p2
I1
s.(dp0
Vcyjhpng
p1
I1
sVcyigf45
p2
I1
s.(dp0
Vcyjv4zq
p1
I1
sVcyigf45
p2
I1
s.(dp0
Vcyk7wm1
p1
I1
sVcyigf45
p2
I1
s.(dp0
Vcyk7wm1
p1
I1
sVcyigf45
p2
I1
s.(dp0
Vcyk7wm1
p1
I1
sVcyigf45
p2
I1
s.(dp0
Vcykcrom
p1
I1
sVcyigf45
p2
I1
s.(dp0
Vcyknmdo
p1
I1
sVcyigf45
p2
I1
s.(dp0
Vcykxwtt
p1
I1
sVcyigf45
p2
I1
s.(dp0
Vcyigf45
p1
I1
sVcyl4h88
p2
I1
s.(dp0
Vcyigf45
p1
I1
sVcyl4h88
p2
I1
s.(dp0
Vcyigf45
p1
I1
sVcyl4h88
p2
I1
s.(dp0
Vcyleq40
p1
I1
sVcyigf45
p2
I1
s.(dp0
Vcylhdvl
p1
I1
sVcyigf45
p2
I1
s.(dp0
Vcylimr2
p1
I1
sVcyigf45
p2
I1
s.(dp0
Vcylimr2
p1
I1
sVcyigf45
p2
I1
s.(dp0
Vcylkpmb
p1
I1
sVcyigf45
p2
I1
s.(dp0
Vcylkqhg
p1
I1
sVcyigf45
p2
I1
s.(dp0
Vcyigf45
p1
I1
sVcylvy2e
p2
I1
s.(dp0
Vcylz73i
p1
I1
sVcyigf45
p2
I1
s.(dp0
Vcyigf45
p1
I1
sVcyn1t78
p2
I1
s.(dp0
Vcyni59s
p1
I1
sVcyigf45
p2
I1
s.(dp0
Vcyni59s
p1
I1
sVcyigf45
p2
I1
s.(dp0
Vcyni6c4
p1
I1
sVcyigf45
p2
I1
s.(dp0
Vcyni6c4
p1
I1
sVcyigf45
p2
I1
s.(dp0
Vcyni6c4
p1
I1
sVcyigf45
p2
I1
s.(dp0
Vcyigf45
p1
I1
sVcyni7wf
p2
I1
s.(dp0
Vcyigf45
p1
I1
sVcynlp8p
p2
I1
s.(dp0
Vcynva59
p1
I1
sVcyigf45
p2
I1
s.(dp0
Vcynva59
p1
I1
sVcyigf45
p2
I1
s.(dp0
Vcynva59
p1
I1
sVcyigf45
p2
I1
s.(dp0
Vcynva59
p1
I1
sVcyigf45
p2
I1
s.(dp0
Vcyigf45
p1
I1
sVcyobcpg
p2
I1
s.(dp0
Vcyoh2ya
p1
I1
sVcyigf45
p2
I1
s.(dp0
Vcyoh2ya
p1
I1
sVcyigf45
p2
I1
s.(dp0
Vcyoh2ya
p1
I1
sVcyigf45
p2
I1
s.(dp0
Vcyoh2ya
p1
I1
sVcyigf45
p2
I1
s.(dp0
Vcyigf45
p1
I1
sVcyow6we
p2
I1
s.(dp0
Vcyigf45
p1
I1
sVcyow6we
p2
I1
s.(dp0
Vcyp0x59
p1
I1
sVcyigf45
p2
I1
s.(dp0
Vcyp9ot4
p1
I1
sVcyigf45
p2
I1
s.(dp0
Vcyigf45
p1
I1
sVcyqw4fh
p2
I1
s.(dp0
Vcyrqsdv
p1
I1
sVcyigf45
p2
I1
s.(dp0
Vcyrtp7h
p1
I1
sVcyigf45
p2
I1
s.(dp0
Vcyigf45
p1
I1
sVcyrtpuo
p2
I1
s.(dp0
Vcyigf45
p1
I1
sVcys3yit
p2
I1
s.(dp0
Vcyt6q6z
p1
I1
sVcyigf45
p2
I1
s.(dp0
Vcytewxr
p1
I1
sVcyigf45
p2
I1
s.(dp0
Vcyigf45
p1
I1
sVcytzkot
p2
I1
s.(dp0
Vcyigf45
p1
I1
sVcyu8bxw
p2
I1
s.(dp0
Vcyigf45
p1
I1
sVcyu8bxw
p2
I1
s.(dp0
Vcyigf45
p1
I1
sVcyu94ff
p2
I1
s.(dp0
Vcyu9vo7
p1
I1
sVcyigf45
p2
I1
s.(dp0
Vcyudsee
p1
I1
sVcyigf45
p2
I1
s.(dp0
Vcyudsee
p1
I1
sVcyigf45
p2
I1
s.(dp0
Vcyigf45
p1
I1
sVcyuezd1
p2
I1
s.(dp0
Vcyukqqy
p1
I1
sVcyigf45
p2
I1
s.(dp0
Vcyigf45
p1
I1
sVcyuobyg
p2
I1
s.(dp0
Vcyigf45
p1
I1
sVcyuvoc5
p2
I1
s.(dp0
Vcyigf45
p1
I1
sVcyuvxpc
p2
I1
s.(dp0
Vcyvbfxa
p1
I1
sVcyigf45
p2
I1
s.(dp0
Vcyvbfxa
p1
I1
sVcyigf45
p2
I1
s.(dp0
Vcyvbfxa
p1
I1
sVcyigf45
p2
I1
s.(dp0
Vcyvbfxa
p1
I1
sVcyigf45
p2
I1
s.(dp0
Vcywyh6k
p1
I1
sVcyigf45
p2
I1
s.(dp0
Vcyx0695
p1
I1
sVcyigf45
p2
I1
s.(dp0
Vcyigf45
p1
I1
sVcyy0z1x
p2
I1
s.(dp0
Vcyigf45
p1
I1
sVcyyemn8
p2
I1
s.(dp0
Vcyz5qnm
p1
I1
sVcyigf45
p2
I1
s.(dp0
Vcyigf45
p1
I1
sVcyzuor1
p2
I1
s.(dp0
Vcyigf45
p1
I1
sVcyzuor1
p2
I1
s.(dp0
Vcyigf45
p1
I1
sVcz0h694
p2
I1
s.(dp0
Vcyigf45
p1
I1
sVcz0h694
p2
I1
s.(dp0
Vcz0io6i
p1
I1
sVcyigf45
p2
I1
s.(dp0
Vcz0ki99
p1
I1
sVcyigf45
p2
I1
s.(dp0
Vcyigf45
p1
I1
sVcz15msm
p2
I1
s.(dp0
Vcz1ccud
p1
I1
sVcyigf45
p2
I1
s.(dp0
Vcyigf45
p1
I1
sVcz1fcc2
p2
I1
s.(dp0
Vcz1juoi
p1
I1
sVcyigf45
p2
I1
s.(dp0
Vcyigf45
p1
I1
sVcz26t74
p2
I1
s.(dp0
Vcyigf45
p1
I1
sVcz282rr
p2
I1
s.(dp0
Vcyigf45
p1
I1
sVcz282rr
p2
I1
s.(dp0
Vcz3rw32
p1
I1
sVcyigf45
p2
I1
s.(dp0
Vcyigf45
p1
I1
sVcz3surd
p2
I1
s.(dp0
Vcz5t216
p1
I1
sVcyigf45
p2
I1
s.(dp0
Vcyigf45
p1
I1
sVcz5wh44
p2
I1
s.(dp0
Vcyigf45
p1
I1
sVcz5wh44
p2
I1
s.(dp0
Vcyigf45
p1
I1
sVcz5wh44
p2
I1
s.(dp0
Vcz6881s
p1
I1
sVcyigf45
p2
I1
s.(dp0
Vcz6881s
p1
I1
sVcyigf45
p2
I1
s.(dp0
Vcz7h6lp
p1
I1
sVcyigf45
p2
I1
s.(dp0
Vcz82pqf
p1
I1
sVcyigf45
p2
I1
s.(dp0
Vcz83as7
p1
I1
sVcyigf45
p2
I1
s.(dp0
Vcyigf45
p1
I1
sVcz86l7x
p2
I1
s.(dp0
Vcz86yke
p1
I1
sVcy(dp0
Vcyigf45
p1
I1
sVdp5cyb1
p2
I1
s.