(dp0
Vcyplzms
p1
I1
s.(dp0
Vcyplzms
p1
I1
sVcyu041r
p2
I1
s.(dp0
Vcyplzms
p1
I1
sVcz72giy
p2
I1
s.(dp0
Vcyplzms
p1
I1
sVcz72giy
p2
I1
s.(dp0
Vcyplzms
p1
I1
sVd029sxq
p2
I1
s.(dp0
Vcyplzms
p1
I1
sVd0nro42
p2
I1
s.(dp0
Vcyplzms
p1
I1
sVd1wph1n
p2
I1
s.(dp0
Vcyplzms
p1
I1
sVd1wph1n
p2
I1
s.(dp0
Vcyplzms
p1
I1
sVd2665b7
p2
I1
s.(dp0
Vd3yg4ye
p1
I1
sVcyplzms
p2
I1
s.(dp0
Vcyplzms
p1
I1
sVd4jq5gx
p2
I1
s.(dp0
Vcyplzms
p1
I1
sVda0ehop
p2
I1
s.(dp0
Vcyplzms
p1
I1
sVdasu723
p2
I1
s.(dp0
Vcyplzms
p1
I1
sVdaz6yjf
p2
I1
s.(dp0
Vcyplzms
p1
I1
sVdbaory2
p2
I1
s.(dp0
Vcyplzms
p1
I1
sVdc6c521
p2
I1
s.(dp0
Vcyplzms
p1
I1
sVdcbho3u
p2
I1
s.(dp0
Vcyplzms
p1
I1
sVddlw80q
p2
I1
s.(dp0
Vcyplzms
p1
I1
sVddob0co
p2
I1
s.(dp0
Vcyplzms
p1
I1
sVddob0co
p2
I1
s.(dp0
Vcyplzms
p1
I1
sVddob0co
p2
I1
s.(dp0
Vcyplzms
p1
I1
sVdexq3j5
p2
I1
s.(dp0
Vcyplzms
p1
I1
sVdf3ou86
p2
I1
s.(dp0
Vcyplzms
p1
I1
sVdfr5jm3
p2
I1
s.(dp0
Vcyplzms
p1
I1
sVdh090cd
p2
I1
s.(dp0
Vcyplzms
p1
I1
sVdhiksbk
p2
I1
s.(dp0
Vcyplzms
p1
I1
sVdhiksbk
p2
I1
s.(dp0
Vcyplzms
p1
I1
sVdie4kry
p2
I1
s.(dp0
Vcyplzms
p1
I1
sVdjnshpt
p2
I1
s.(dp0
Vcyplzms
p1
I1
sVdooyqui
p2
I1
s.