(dp0
Vczigbu0
p1
I1
s.(dp0
Vd0b8l0u
p1
I1
sVczigbu0
p2
I1
s.(dp0
Vd0z92tq
p1
I1
sVczigbu0
p2
I1
s.(dp0
Vd18knmx
p1
I1
sVczigbu0
p2
I1
s.(dp0
Vd1o4dpd
p1
I1
sVczigbu0
p2
I1
s.(dp0
Vd1x1u03
p1
I1
sVczigbu0
p2
I1
s.(dp0
Vd25xxet
p1
I1
sVczigbu0
p2
I1
s.(dp0
Vd2sni40
p1
I1
sVczigbu0
p2
I1
s.(dp0
Vd3ucol3
p1
I1
sVczigbu0
p2
I1
s.(dp0
Vd4z2y0m
p1
I1
sVczigbu0
p2
I1
s.(dp0
Vd7je5io
p1
I1
sVczigbu0
p2
I1
s.(dp0
Vd80ihmi
p1
I1
sVczigbu0
p2
I1
s.(dp0
Vd8wjm0z
p1
I1
sVczigbu0
p2
I1
s.(dp0
Vd8yf41x
p1
I1
sVczigbu0
p2
I1
s.(dp0
Vd9cho2a
p1
I1
sVczigbu0
p2
I1
s.(dp0
Vd9cho2a
p1
I1
sVczigbu0
p2
I1
s.(dp0
Vda00fa6
p1
I1
sVczigbu0
p2
I1
s.(dp0
Vda5dyx9
p1
I1
sVczigbu0
p2
I1
s.(dp0
Vdap70s1
p1
I1
sVczigbu0
p2
I1
s.(dp0
Vdc49opx
p1
I1
sVczigbu0
p2
I1
s.(dp0
Vdc49opx
p1
I1
sVczigbu0
p2
I1
s.(dp0
Vdefp2mg
p1
I1
sVczigbu0
p2
I1
s.(dp0
Vdfmrxp5
p1
I1
sVczigbu0
p2
I1
s.(dp0
Vdgdj8tp
p1
I1
sVczigbu0
p2
I1
s.(dp0
Vdgvaxm5
p1
I1
sVczigbu0
p2
I1
s.(dp0
Vdh92x2h
p1
I1
sVczigbu0
p2
I1
s.(dp0
Vdhcsbuj
p1
I1
sVczigbu0
p2
I1
s.(dp0
Vdhde7dz
p1
I1
sVczigbu0
p2
I1
s.(dp0
Vdhfpy8g
p1
I1
sVczigbu0
p2
I1
s.(dp0
Vdhubn5f
p1
I1
sVczigbu0
p2
I1
s.(dp0
Vdi0ky2m
p1
I1
sVczigbu0
p2
I1
s.(dp0
Vdjdadt7
p1
I1
sVczigbu0
p2
I1
s.(dp0
Vdjj4b0a
p1
I1
sVczigbu0
p2
I1
s.