(dp0
Vcz3wbb1
p1
I1
s.(dp0
Vd0b9cqq
p1
I1
sVcz3wbb1
p2
I1
s.(dp0
Vcz3wbb1
p1
I1
sVd7urgis
p2
I1
s.(dp0
Vcz3wbb1
p1
I1
sVd8d4uuz
p2
I1
s.(dp0
Vdhbs307
p1
I1
sVcz3wbb1
p2
I1
s.(dp0
Vdijakyu
p1
I1
sVcz3wbb1
p2
I1
s.(dp0
Vcz3wbb1
p1
I1
sVdjfjsu0
p2
I1
s.