(dp0
Vcyi3ks0
p1
I1
s.(dp0
Vcyi3ks0
p1
I1
sVcyk061r
p2
I1
s.(dp0
Vcyi3ks0
p1
I1
sVcykbjqj
p2
I1
s.(dp0
Vcyi3ks0
p1
I1
sVcykzy3c
p2
I1
s.(dp0
Vcyi3ks0
p1
I1
sVcyl0xf4
p2
I1
s.(dp0
Vcyi3ks0
p1
I1
sVcyokusg
p2
I1
s.(dp0
Vcyi3ks0
p1
I1
sVcyp3f1d
p2
I1
s.(dp0
Vcyi3ks0
p1
I1
sVcyskuhe
p2
I1
s.(dp0
Vcyi3ks0
p1
I1
sVcz2q5w6
p2
I1
s.(dp0
Vcyi3ks0
p1
I1
sVcz2qaz2
p2
I1
s.(dp0
Vcyi3ks0
p1
I1
sVcz2r25f
p2
I1
s.(dp0
Vcyi3ks0
p1
I1
sVcz33mt7
p2
I1
s.(dp0
Vcyi3ks0
p1
I1
sVcz3yz09
p2
I1
s.(dp0
Vcyi3ks0
p1
I1
sVcz3yz09
p2
I1
s.(dp0
Vcyi3ks0
p1
I1
sVcz3yz09
p2
I1
s.(dp0
Vcyi3ks0
p1
I1
sVcz4hvqe
p2
I1
s.(dp0
Vcyi3ks0
p1
I1
sVcz54u63
p2
I1
s.(dp0
Vcyi3ks0
p1
I1
sVcz6stlx
p2
I1
s.(dp0
Vcyi3ks0
p1
I1
sVczaxih1
p2
I1
s.(dp0
Vczbs5zv
p1
I1
sVcyi3ks0
p2
I1
s.(dp0
Vcyi3ks0
p1
I1
sVczffvr7
p2
I1
s.(dp0
Vcyi3ks0
p1
I1
sVczfo42w
p2
I1
s.(dp0
Vcyi3ks0
p1
I1
sVczikosc
p2
I1
s.(dp0
Vcyi3ks0
p1
I1
sVczjbptk
p2
I1
s.(dp0
Vcyi3ks0
p1
I1
sVczjbptk
p2
I1
s.(dp0
Vcyi3ks0
p1
I1
sVczz8xmg
p2
I1
s.(dp0
Vcyi3ks0
p1
I1
sVczzbig7
p2
I1
s.(dp0
Vcyi3ks0
p1
I1
sVczzbig7
p2
I1
s.(dp0
Vcyi3ks0
p1
I1
sVd01kci2
p2
I1
s.(dp0
Vcyi3ks0
p1
I1
sVd02r3dv
p2
I1
s.(dp0
Vcyi3ks0
p1
I1
sVd036vd8
p2
I1
s.(dp0
Vcyi3ks0
p1
I1
sVd036vd8
p2
I1
s.(dp0
Vcyi3ks0
p1
I1
sVd036vd8
p2
I1
s.(dp0
Vcyi3ks0
p1
I1
sVd036vd8
p2
I1
s.(dp0
Vcyi3ks0
p1
I1
sVd036vd8
p2
I1
s.(dp0
Vcyi3ks0
p1
I1
sVd036vd8
p2
I1
s.(dp0
Vcyi3ks0
p1
I1
sVd036vd8
p2
I1
s.(dp0
Vcyi3ks0
p1
I1
sVd036vd8
p2
I1
s.(dp0
Vcyi3ks0
p1
I1
sVd04jzyo
p2
I1
s.(dp0
Vcyi3ks0
p1
I1
sVd0628so
p2
I1
s.(dp0
Vd0a72dq
p1
I1
sVcyi3ks0
p2
I1
s.(dp0
Vd0a72dq
p1
I1
sVcyi3ks0
p2
I1
s.(dp0
Vcyi3ks0
p1
I1
sVd0bxvgx
p2
I1
s.(dp0
Vcyi3ks0
p1
I1
sVd0i5zc5
p2
I1
s.(dp0
Vcyi3ks0
p1
I1
sVd0j02p0
p2
I1
s.(dp0
Vcyi3ks0
p1
I1
sVd0rx7cf
p2
I1
s.(dp0
Vd0y6yv7
p1
I1
sVcyi3ks0
p2
I1
s.(dp0
Vcyi3ks0
p1
I1
sVd15lvmj
p2
I1
s.(dp0
Vcyi3ks0
p1
I1
sVd19l7fm
p2
I1
s.(dp0
Vcyi3ks0
p1
I1
sVd1cusaf
p2
I1
s.(dp0
Vcyi3ks0
p1
I1
sVd1cusaf
p2
I1
s.(dp0
Vcyi3ks0
p1
I1
sVd1cusaf
p2
I1
s.(dp0
Vcyi3ks0
p1
I1
sVd1cusaf
p2
I1
s.(dp0
Vcyi3ks0
p1
I1
sVd1duuhb
p2
I1
s.(dp0
Vcyi3ks0
p1
I1
sVd1h6ist
p2
I1
s.(dp0
Vcyi3ks0
p1
I1
sVd1h7zdf
p2
I1
s.(dp0
Vcyi3ks0
p1
I1
sVd1l9x2x
p2
I1
s.(dp0
Vcyi3ks0
p1
I1
sVd1mf0gg
p2
I1
s.(dp0
Vcyi3ks0
p1
I1
sVd1q6n1l
p2
I1
s.(dp0
Vcyi3ks0
p1
I1
sVd1q776y
p2
I1
s.(dp0
Vcyi3ks0
p1
I1
sVd1q776y
p2
I1
s.(dp0
Vd1v2hpd
p1
I1
sVcyi3ks0
p2
I1
s.(dp0
Vcyi3ks0
p1
I1
sVd21wvic
p2
I1
s.(dp0
Vcyi3ks0
p1
I1
sVd296hji
p2
I1
s.(dp0
Vcyi3ks0
p1
I1
sVd296hji
p2
I1
s.(dp0
Vcyi3ks0
p1
I1
sVd296hji
p2
I1
s.(dp0
Vcyi3ks0
p1
I1
sVd2c48j1
p2
I1
s.(dp0
Vd2c56el
p1
I1
sVcyi3ks0
p2
I1
s.(dp0
Vcyi3ks0
p1
I1
sVd2c7x9y
p2
I1
s.(dp0
Vcyi3ks0
p1
I1
sVd2d4vha
p2
I1
s.(dp0
Vcyi3ks0
p1
I1
sVd2gicnd
p2
I1
s.(dp0
Vcyi3ks0
p1
I1
sVd2mm5er
p2
I1
s.(dp0
Vcyi3ks0
p1
I1
sVd2pypcf
p2
I1
s.(dp0
Vcyi3ks0
p1
I1
sVd2pypcf
p2
I1
s.(dp0
Vcyi3ks0
p1
I1
sVd30du7o
p2
I1
s.(dp0
Vcyi3ks0
p1
I1
sVd32od45
p2
I1
s.(dp0
Vcyi3ks0
p1
I1
sVd3bkz08
p2
I1
s.(dp0
Vcyi3ks0
p1
I1
sVd3ef7n1
p2
I1
s.(dp0
Vcyi3ks0
p1
I1
sVd3g66ws
p2
I1
s.(dp0
Vcyi3ks0
p1
I1
sVd3g66ws
p2
I1
s.(dp0
Vcyi3ks0
p1
I1
sVd3koq9d
p2
I1
s.(dp0
Vcyi3ks0
p1
I1
sVd3uaad4
p2
I1
s.(dp0
Vcyi3ks0
p1
I1
sVd3vtk7r
p2
I1
s.(dp0
Vd3z6wpq
p1
I1
sVcyi3ks0
p2
I1
s.(dp0
Vcyi3ks0
p1
I1
sVd4774d4
p2
I1
s.(dp0
Vcyi3ks0
p1
I1
sVd47wxtf
p2
I1
s.(dp0
Vd481vqm
p1
I1
sVcyi3ks0
p2
I1
s.(dp0
Vcyi3ks0
p1
I1
sVd48iur8
p2
I1
s.(dp0
Vcyi3ks0
p1
I1
sVd48iur8
p2
I1
s.(dp0
Vcyi3ks0
p1
I1
sVd4fjcxm
p2
I1
s.(dp0
Vcyi3ks0
p1
I1
sVd4flz7o
p2
I1
s.(dp0
Vcyi3ks0
p1
I1
sVd4o5o63
p2
I1
s.(dp0
Vcyi3ks0
p1
I1
sVd4onq6j
p2
I1
s.(dp0
Vcyi3ks0
p1
I1
sVd4r8lww
p2
I1
s.(dp0
Vcyi3ks0
p1
I1
sVd4x6l5v
p2
I1
s.(dp0
Vcyi3ks0
p1
I1
sVd56jxhz
p2
I1
s.(dp0
Vcyi3ks0
p1
I1
sVd56z5kb
p2
I1
s.(dp0
Vcyi3ks0
p1
I1
sVd57n9v0
p2
I1
s.(dp0
Vcyi3ks0
p1
I1
sVd5hvo58
p2
I1
s.(dp0
Vcyi3ks0
p1
I1
sVd5hvo58
p2
I1
s.(dp0
Vcyi3ks0
p1
I1
sVd5hw2c4
p2
I1
s.(dp0
Vcyi3ks0
p1
I1
sVd5p0fop
p2
I1
s.(dp0
Vd5th0br
p1
I1
sVcyi3ks0
p2
I1
s.(dp0
Vcyi3ks0
p1
I1
sVd5w90do
p2
I1
s.(dp0
Vd61sa9o
p1
I1
sVcyi3ks0
p2
I1
s.(dp0
Vcyi3ks0
p1
I1
sVd63hpqr
p2
I1
s.(dp0
Vcyi3ks0
p1
I1
sVd65bhy5
p2
I1
s.(dp0
Vcyi3ks0
p1
I1
sVd690pkc
p2
I1
s.(dp0
Vcy(dp0
Vcyi3ks0
p1
I1
sVdkqkj0l
p2
I1
s.