(dp0
Vczjs6vq
p1
I1
s.(dp0
Vczjs6vq
p1
I1
sVd138eby
p2
I1
s.(dp0
Vczjs6vq
p1
I1
sVd49vz72
p2
I1
s.(dp0
Vd5tq339
p1
I1
sVczjs6vq
p2
I1
s.(dp0
Vd605iis
p1
I1
sVczjs6vq
p2
I1
s.(dp0
Vd85okdu
p1
I1
sVczjs6vq
p2
I1
s.(dp0
Vczjs6vq
p1
I1
sVd9r361e
p2
I1
s.(dp0
Vd9r5ti3
p1
I1
sVczjs6vq
p2
I1
s.(dp0
Vczjs6vq
p1
I1
sVd9raz5w
p2
I1
s.(dp0
Vd9rb52j
p1
I1
sVczjs6vq
p2
I1
s.(dp0
Vd9rbdbw
p1
I1
sVczjs6vq
p2
I1
s.(dp0
Vd9vo8kz
p1
I1
sVczjs6vq
p2
I1
s.(dp0
Vczjs6vq
p1
I1
sVda2z4y9
p2
I1
s.(dp0
Vczjs6vq
p1
I1
sVdf51mxm
p2
I1
s.(dp0
Vczjs6vq
p1
I1
sVdg4njsa
p2
I1
s.(dp0
Vczjs6vq
p1
I1
sVdjpv9yl
p2
I1
s.(dp0
Vczjs6vq
p1
I1
sVdka8fvp
p2
I1
s.(dp0
Vczjs6vq
p1
I1
sVdkt13nj
p2
I1
s.