(dp0
Vd2n3q60
p1
I1
s.(dp0
Vd2n3q60
p1
I1
sVdccdev8
p2
I1
s.(dp0
Vd2n3q60
p1
I1
sVde4ijd2
p2
I1
s.(dp0
Vd2n3q60
p1
I1
sVdggin0w
p2
I1
s.(dp0
Vd2n3q60
p1
I1
sVdggin0w
p2
I1
s.(dp0
Vd2n3q60
p1
I1
sVdk545ek
p2
I1
s.(dp0
Vd2n3q60
p1
I1
sVdk545ek
p2
I1
s.