(dp0
Vd4ytly6
p1
I1
s.(dp0
Vd5q1hen
p1
I1
sVd4ytly6
p2
I1
s.(dp0
Vd8yxre9
p1
I1
sVd4ytly6
p2
I1
s.(dp0
Vd9qktw3
p1
I1
sVd4ytly6
p2
I1
s.(dp0
Vd9wit9x
p1
I1
sVd4ytly6
p2
I1
s.(dp0
Vdad0qv9
p1
I1
sVd4ytly6
p2
I1
s.(dp0
Vdb8cdux
p1
I1
sVd4ytly6
p2
I1
s.(dp0
Vdfluars
p1
I1
sVd4ytly6
p2
I1
s.(dp0
Vdhdi8j8
p1
I1
sVd4ytly6
p2
I1
s.(dp0
Vdhlewdj
p1
I1
sVd4ytly6
p2
I1
s.(dp0
Vdj8nseh
p1
I1
sVd4ytly6
p2
I1
s.(dp0
Vdjhjuom
p1
I1
sVd4ytly6
p2
I1
s.