(dp0
Vcz7glts
p1
I1
s.(dp0
Vcz7glts
p1
I2
s.(dp0
Vcz7s5q7
p1
I1
sVcz7glts
p2
I1
s.(dp0
Vcz7s5q7
p1
I1
sVcz7glts
p2
I1
s.(dp0
Vcz7glts
p1
I1
sVd0bs7ug
p2
I1
s.(dp0
Vd0lelcb
p1
I1
sVcz7glts
p2
I1
s.(dp0
Vcz7glts
p1
I1
sVd0o0gvu
p2
I1
s.(dp0
Vd0ol5o7
p1
I1
sVcz7glts
p2
I1
s.(dp0
Vd4rkgjj
p1
I1
sVcz7glts
p2
I1
s.(dp0
Vcz7glts
p1
I1
sVd536on3
p2
I1
s.(dp0
Vcz7glts
p1
I1
sVd53u861
p2
I1
s.(dp0
Vd68uw87
p1
I1
sVcz7glts
p2
I1
s.(dp0
Vcz7glts
p1
I1
sVd6l7mcz
p2
I1
s.(dp0
Vcz7glts
p1
I1
sVd9b7tr2
p2
I1
s.(dp0
Vcz7glts
p1
I1
sVdcrm12h
p2
I1
s.(dp0
Vcz7glts
p1
I1
sVdcrm12h
p2
I1
s.(dp0
Vde0mxq1
p1
I1
sVcz7glts
p2
I1
s.(dp0
Vcz7glts
p1
I1
sVde1f9qu
p2
I1
s.(dp0
Vdfnekzg
p1
I1
sVcz7glts
p2
I1
s.(dp0
Vdgkn2vo
p1
I1
sVcz7glts
p2
I1
s.(dp0
Vdhlewdj
p1
I1
sVcz7glts
p2
I1
s.(dp0
Vcz7glts
p1
I1
sVdj8nseh
p2
I1
s.(dp0
Vcz7glts
p1
I1
sVdjhjuom
p2
I1
s.(dp0
Vdkg3fem
p1
I1
sVcz7glts
p2
I1
s.(dp0
Vdkq68sv
p1
I1
sVcz7glts
p2
I1
s.