(dp0
Vcyp2wlc
p1
I1
s.(dp0
Vcyp2wlc
p1
I1
sVcyxlk8b
p2
I1
s.(dp0
Vcyp2wlc
p1
I1
sVcz3veob
p2
I1
s.(dp0
Vcyp2wlc
p1
I1
sVd0fj1nx
p2
I1
s.(dp0
Vcyp2wlc
p1
I1
sVd0qoupf
p2
I1
s.(dp0
Vcyp2wlc
p1
I1
sVd0s9pok
p2
I1
s.(dp0
Vcyp2wlc
p1
I1
sVd0vbgnv
p2
I1
s.(dp0
Vcyp2wlc
p1
I1
sVd1jds44
p2
I1
s.(dp0
Vcyp2wlc
p1
I1
sVd2zboz3
p2
I1
s.(dp0
Vd3141lj
p1
I1
sVcyp2wlc
p2
I1
s.(dp0
Vcyp2wlc
p1
I1
sVd4lop3c
p2
I1
s.(dp0
Vcyp2wlc
p1
I1
sVd5yips9
p2
I1
s.(dp0
Vcyp2wlc
p1
I1
sVd68jaic
p2
I1
s.(dp0
Vd69bchq
p1
I1
sVcyp2wlc
p2
I1
s.(dp0
Vd69bchq
p1
I1
sVcyp2wlc
p2
I1
s.(dp0
Vcyp2wlc
p1
I1
sVd6w0r91
p2
I1
s.(dp0
Vcyp2wlc
p1
I1
sVd78xr5j
p2
I1
s.(dp0
Vcyp2wlc
p1
I1
sVd7n85bv
p2
I1
s.(dp0
Vcyp2wlc
p1
I1
sVd7zbqp6
p2
I1
s.(dp0
Vcyp2wlc
p1
I1
sVd7zbqp6
p2
I1
s.(dp0
Vcyp2wlc
p1
I1
sVd899rfd
p2
I1
s.(dp0
Vd8wm9ow
p1
I1
sVcyp2wlc
p2
I1
s.(dp0
Vcyp2wlc
p1
I1
sVd99lgxg
p2
I1
s.(dp0
Vda7cl64
p1
I1
sVcyp2wlc
p2
I1
s.(dp0
Vcyp2wlc
p1
I1
sVdb3oy8v
p2
I1
s.(dp0
Vcyp2wlc
p1
I1
sVdb3oy8v
p2
I1
s.(dp0
Vcyp2wlc
p1
I1
sVdb4y6if
p2
I1
s.(dp0
Vcyp2wlc
p1
I1
sVdb4y6if
p2
I1
s.(dp0
Vcyp2wlc
p1
I1
sVdc09uhm
p2
I1
s.(dp0
Vcyp2wlc
p1
I1
sVddcb2ay
p2
I1
s.(dp0
Vcyp2wlc
p1
I1
sVddtbn9s
p2
I1
s.(dp0
Vcyp2wlc
p1
I1
sVdfudcr9
p2
I1
s.(dp0
Vdg5e07m
p1
I1
sVcyp2wlc
p2
I1
s.(dp0
Vcyp2wlc
p1
I1
sVdgiv4en
p2
I1
s.(dp0
Vcyp2wlc
p1
I1
sVdgtemmd
p2
I1
s.(dp0
Vcyp2wlc
p1
I1
sVdholezf
p2
I1
s.(dp0
Vcyp2wlc
p1
I1
sVdi5zf83
p2
I1
s.(dp0
Vcyp2wlc
p1
I1
sVdilq4k0
p2
I1
s.(dp0
Vcyp2wlc
p1
I1
sVdj24qod
p2
I1
s.(dp0
Vcyp2wlc
p1
I1
sVdk3ofkt
p2
I1
s.(dp0
Vcyp2wlc
p1
I1
sVdkjfs29
p2
I1
s.(dp0
Vcyp2wlc
p1
I1
sVdknjj86
p2
I1
s.