(dp0
Vcyk8h2v
p1
I1
s.(dp0
Vcyk8h2v
p1
I1
sVcyleyui
p2
I1
s.(dp0
Vcyk8h2v
p1
I1
sVcyp4xet
p2
I1
s.(dp0
Vcyk8h2v
p1
I1
sVcypdpv7
p2
I1
s.(dp0
Vcyk8h2v
p1
I1
sVcyus526
p2
I1
s.(dp0
Vcyk8h2v
p1
I1
sVcyuvs39
p2
I1
s.(dp0
Vcyk8h2v
p1
I1
sVcyv8pkw
p2
I1
s.(dp0
Vcyk8h2v
p1
I1
sVcz2b32k
p2
I1
s.(dp0
Vcyk8h2v
p1
I1
sVcz484d8
p2
I1
s.(dp0
Vcyk8h2v
p1
I1
sVcz4naep
p2
I1
s.(dp0
Vcyk8h2v
p1
I1
sVcz54a5i
p2
I1
s.(dp0
Vcyk8h2v
p1
I1
sVcz6k9hs
p2
I1
s.(dp0
Vcyk8h2v
p1
I1
sVcz6nyub
p2
I1
s.(dp0
Vcyk8h2v
p1
I1
sVczagtpw
p2
I1
s.(dp0
Vcyk8h2v
p1
I1
sVczagupp
p2
I1
s.(dp0
Vcyk8h2v
p1
I1
sVczd6dq3
p2
I1
s.(dp0
Vcyk8h2v
p1
I1
sVczdmfdb
p2
I1
s.(dp0
Vcyk8h2v
p1
I1
sVczeje32
p2
I1
s.(dp0
Vcyk8h2v
p1
I1
sVczfyuf6
p2
I1
s.(dp0
Vcyk8h2v
p1
I1
sVczh7c21
p2
I1
s.(dp0
Vcyk8h2v
p1
I1
sVczkudwc
p2
I1
s.(dp0
Vcyk8h2v
p1
I1
sVczplozy
p2
I1
s.(dp0
Vcyk8h2v
p1
I1
sVczrwerj
p2
I1
s.(dp0
Vcyk8h2v
p1
I1
sVczsger6
p2
I1
s.(dp0
Vcyk8h2v
p1
I1
sVczsqyun
p2
I1
s.(dp0
Vcyk8h2v
p1
I1
sVczvo8q8
p2
I1
s.(dp0
Vcyk8h2v
p1
I1
sVczx3338
p2
I1
s.(dp0
Vcyk8h2v
p1
I1
sVczxahvo
p2
I1
s.(dp0
Vcyk8h2v
p1
I1
sVczxdm4t
p2
I1
s.(dp0
Vcyk8h2v
p1
I1
sVczxdm4t
p2
I1
s.(dp0
Vcyk8h2v
p1
I1
sVd00vs3t
p2
I1
s.(dp0
Vcyk8h2v
p1
I1
sVd0402uf
p2
I1
s.(dp0
Vcyk8h2v
p1
I1
sVd0423e0
p2
I1
s.(dp0
Vcyk8h2v
p1
I1
sVd0423e0
p2
I1
s.(dp0
Vcyk8h2v
p1
I1
sVd04g1uv
p2
I1
s.(dp0
Vcyk8h2v
p1
I1
sVd0528wx
p2
I1
s.(dp0
Vcyk8h2v
p1
I1
sVd06tyd9
p2
I1
s.(dp0
Vcyk8h2v
p1
I1
sVd094vqz
p2
I1
s.(dp0
Vcyk8h2v
p1
I1
sVd0f6ead
p2
I1
s.(dp0
Vcyk8h2v
p1
I1
sVd0f6ead
p2
I1
s.(dp0
Vcyk8h2v
p1
I1
sVd0qw4nu
p2
I1
s.(dp0
Vcyk8h2v
p1
I1
sVd0xn5qt
p2
I1
s.(dp0
Vcyk8h2v
p1
I1
sVd0zdobb
p2
I1
s.(dp0
Vcyk8h2v
p1
I1
sVd126bvh
p2
I1
s.(dp0
Vcyk8h2v
p1
I1
sVd138eby
p2
I1
s.(dp0
Vcyk8h2v
p1
I1
sVd194o8r
p2
I1
s.(dp0
Vcyk8h2v
p1
I1
sVd1bemel
p2
I1
s.(dp0
Vcyk8h2v
p1
I1
sVd1d6845
p2
I1
s.(dp0
Vcyk8h2v
p1
I1
sVd1qyyzb
p2
I1
s.(dp0
Vcyk8h2v
p1
I1
sVd200fzf
p2
I1
s.(dp0
Vcyk8h2v
p1
I1
sVd21s1xe
p2
I1
s.(dp0
Vcyk8h2v
p1
I1
sVd21s5i9
p2
I1
s.(dp0
Vcyk8h2v
p1
I1
sVd21s804
p2
I1
s.(dp0
Vcyk8h2v
p1
I1
sVd273i2d
p2
I1
s.(dp0
Vcyk8h2v
p1
I1
sVd28skgy
p2
I1
s.(dp0
Vcyk8h2v
p1
I1
sVd29ljtr
p2
I1
s.(dp0
Vcyk8h2v
p1
I1
sVd29ljtr
p2
I1
s.(dp0
Vcyk8h2v
p1
I1
sVd2d3rf1
p2
I1
s.(dp0
Vcyk8h2v
p1
I1
sVd2hu3t9
p2
I1
s.(dp0
Vcyk8h2v
p1
I1
sVd2ig2qe
p2
I1
s.(dp0
Vcyk8h2v
p1
I1
sVd2ktvh7
p2
I1
s.(dp0
Vcyk8h2v
p1
I1
sVd2qzh55
p2
I1
s.(dp0
Vcyk8h2v
p1
I1
sVd2t2hkw
p2
I1
s.(dp0
Vcyk8h2v
p1
I1
sVd2udn77
p2
I1
s.(dp0
Vcyk8h2v
p1
I1
sVd353lyn
p2
I1
s.(dp0
Vcyk8h2v
p1
I1
sVd390uso
p2
I1
s.(dp0
Vcyk8h2v
p1
I1
sVd3bpiyi
p2
I1
s.(dp0
Vcyk8h2v
p1
I1
sVd3bxecc
p2
I1
s.(dp0
Vcyk8h2v
p1
I1
sVd3jlhz3
p2
I1
s.(dp0
Vcyk8h2v
p1
I1
sVd3pajmx
p2
I1
s.(dp0
Vcyk8h2v
p1
I1
sVd3pbea8
p2
I1
s.(dp0
Vcyk8h2v
p1
I1
sVd3vmn88
p2
I1
s.(dp0
Vcyk8h2v
p1
I1
sVd3vwqtm
p2
I1
s.(dp0
Vcyk8h2v
p1
I1
sVd49tmey
p2
I1
s.(dp0
Vcyk8h2v
p1
I1
sVd4p4h7a
p2
I1
s.(dp0
Vcyk8h2v
p1
I1
sVd4pm0ov
p2
I1
s.(dp0
Vcyk8h2v
p1
I1
sVd4pm0ov
p2
I1
s.(dp0
Vcyk8h2v
p1
I1
sVd4pm0ov
p2
I1
s.(dp0
Vcyk8h2v
p1
I1
sVd5fg6jw
p2
I1
s.(dp0
Vcyk8h2v
p1
I1
sVd5hctzf
p2
I1
s.(dp0
Vcyk8h2v
p1
I1
sVd5oq2ol
p2
I1
s.(dp0
Vcyk8h2v
p1
I1
sVd5oq2ol
p2
I1
s.(dp0
Vcyk8h2v
p1
I1
sVd5rvtiv
p2
I1
s.(dp0
Vcyk8h2v
p1
I1
sVd5wurry
p2
I1
s.(dp0
Vcyk8h2v
p1
I1
sVd61lxpe
p2
I1
s.(dp0
Vcyk8h2v
p1
I1
sVd69jhqz
p2
I1
s.(dp0
Vcyk8h2v
p1
I1
sVd6a5fmb
p2
I1
s.(dp0
Vcyk8h2v
p1
I1
sVd6cu7hm
p2
I1
s.(dp0
Vcyk8h2v
p1
I1
sVd6d41oc
p2
I1
s.(dp0
Vcyk8h2v
p1
I1
sVd6i73ri
p2
I1
s.(dp0
Vcyk8h2v
p1
I1
sVd6iog74
p2
I1
s.(dp0
Vcyk8h2v
p1
I1
sVd6sf7ie
p2
I1
s.(dp0
Vcyk8h2v
p1
I1
sVd6xg0qx
p2
I1
s.(dp0
Vcyk8h2v
p1
I1
sVd6zkohh
p2
I1
s.(dp0
Vcyk8h2v
p1
I1
sVd73sq55
p2
I1
s.(dp0
Vcyk8h2v
p1
I1
sVd74mhsu
p2
I1
s.(dp0
Vcyk8h2v
p1
I1
sVd76vroo
p2
I1
s.(dp0
Vcyk8h2v
p1
I1
sVd7aalt2
p2
I1
s.(dp0
Vcyk8h2v
p1
I1
sVd7eu1ws
p2
I1
s.(dp0
Vcyk8h2v
p1
I1
sVd7j6zke
p2
I1
s.(dp0
Vcyk8h2v
p1
I1
sVd7m290r
p2
I1
s.(dp0
Vcyk8h2v
p1
I1
sVd7noik1
p2
I1
s.(dp0
Vcyk8h2v
p1
I1
sVd7qvpei
p2
I1
s.(dp0
Vcyk8h2v
p1
I1
sVd7sg9p1
p2
I1
s.(dp0
Vcyk8h2v
p1
I1
sVd82pej6
p2
I1
s.(dp0
Vcyk8h2v
p1
I1
sVd82pej6
p2
I1
s.(dp0
Vcyk8h2v
p1
I1
sVd82pxno
p2
I1
s.(dp0
Vcyk8h2v
p1
I1
sVd82rbw5
p2
I1
s.(dp0
Vcy(dp0
Vcyk8h2v
p1
I1
sVdokqsxk
p2
I1
s.