(dp0
Vcyixtjp
p1
I1
s.(dp0
Vcyixtjp
p1
I1
sVcylszdp
p2
I1
s.(dp0
Vcyixtjp
p1
I1
sVcypccz6
p2
I1
s.(dp0
Vcyixtjp
p1
I1
sVcypmi8t
p2
I1
s.(dp0
Vcyixtjp
p1
I1
sVcyqbs1b
p2
I1
s.(dp0
Vcyixtjp
p1
I1
sVcysc40t
p2
I1
s.(dp0
Vcyixtjp
p1
I1
sVcysc40t
p2
I1
s.(dp0
Vcyixtjp
p1
I1
sVcyv4tp1
p2
I1
s.(dp0
Vcyixtjp
p1
I1
sVcyv4tp1
p2
I1
s.(dp0
Vcyixtjp
p1
I1
sVcyvjcy1
p2
I1
s.(dp0
Vcyixtjp
p1
I1
sVcyxd53v
p2
I1
s.(dp0
Vcyixtjp
p1
I1
sVcyxphd0
p2
I1
s.(dp0
Vcyixtjp
p1
I1
sVcyz62w8
p2
I1
s.(dp0
Vcyixtjp
p1
I1
sVcyzwv2z
p2
I1
s.(dp0
Vcyixtjp
p1
I1
sVcz18tjd
p2
I1
s.(dp0
Vcyixtjp
p1
I1
sVcz18tjd
p2
I1
s.(dp0
Vcyixtjp
p1
I1
sVcz27uay
p2
I1
s.(dp0
Vcyixtjp
p1
I1
sVcz2b32k
p2
I1
s.(dp0
Vcyixtjp
p1
I1
sVcz2rzql
p2
I1
s.(dp0
Vcyixtjp
p1
I1
sVcz2rzql
p2
I1
s.(dp0
Vcyixtjp
p1
I1
sVcz3mxkt
p2
I1
s.(dp0
Vcyixtjp
p1
I1
sVcz3r5qx
p2
I1
s.(dp0
Vcyixtjp
p1
I1
sVcz4mvyq
p2
I1
s.(dp0
Vcyixtjp
p1
I1
sVcz5kyqo
p2
I1
s.(dp0
Vcyixtjp
p1
I1
sVcz741rm
p2
I1
s.(dp0
Vcyixtjp
p1
I1
sVcz7tfid
p2
I1
s.(dp0
Vcyixtjp
p1
I1
sVcz8n311
p2
I1
s.(dp0
Vcyixtjp
p1
I1
sVcza15y5
p2
I1
s.(dp0
Vcyixtjp
p1
I1
sVczao4of
p2
I1
s.(dp0
Vcyixtjp
p1
I1
sVczbzfo1
p2
I1
s.(dp0
Vcyixtjp
p1
I1
sVczcm5iw
p2
I1
s.(dp0
Vcyixtjp
p1
I1
sVczes77o
p2
I1
s.(dp0
Vcyixtjp
p1
I1
sVczev53b
p2
I1
s.(dp0
Vcyixtjp
p1
I1
sVczfm26f
p2
I1
s.(dp0
Vcyixtjp
p1
I1
sVczg5nw3
p2
I1
s.(dp0
Vcyixtjp
p1
I1
sVczgyp69
p2
I1
s.(dp0
Vcyixtjp
p1
I1
sVczhz7fr
p2
I1
s.(dp0
Vcyixtjp
p1
I1
sVczidtye
p2
I1
s.(dp0
Vcyixtjp
p1
I1
sVczidtye
p2
I1
s.(dp0
Vcyixtjp
p1
I1
sVczoims2
p2
I1
s.(dp0
Vcyixtjp
p1
I1
sVczox3uq
p2
I1
s.(dp0
Vcyixtjp
p1
I1
sVczplozy
p2
I1
s.(dp0
Vcyixtjp
p1
I1
sVczqdzfo
p2
I1
s.(dp0
Vcyixtjp
p1
I1
sVczsqyun
p2
I1
s.(dp0
Vcyixtjp
p1
I1
sVczx0qlp
p2
I1
s.(dp0
Vcyixtjp
p1
I1
sVczxaz27
p2
I1
s.(dp0
Vcyixtjp
p1
I1
sVd034b1q
p2
I1
s.(dp0
Vcyixtjp
p1
I1
sVd036de9
p2
I1
s.(dp0
Vcyixtjp
p1
I1
sVd03dicv
p2
I1
s.(dp0
Vcyixtjp
p1
I1
sVd07733j
p2
I1
s.(dp0
Vcyixtjp
p1
I1
sVd09hrl2
p2
I1
s.(dp0
Vcyixtjp
p1
I1
sVd0au9ny
p2
I1
s.(dp0
Vcyixtjp
p1
I1
sVd0ccsgq
p2
I1
s.(dp0
Vcyixtjp
p1
I1
sVd0ccsgq
p2
I1
s.(dp0
Vcyixtjp
p1
I1
sVd0ccsgq
p2
I1
s.(dp0
Vcyixtjp
p1
I1
sVd0cu0ho
p2
I1
s.(dp0
Vcyixtjp
p1
I1
sVd0cvf2x
p2
I1
s.(dp0
Vcyixtjp
p1
I1
sVd0d7qtv
p2
I1
s.(dp0
Vcyixtjp
p1
I1
sVd0d935h
p2
I1
s.(dp0
Vcyixtjp
p1
I1
sVd0dzm8s
p2
I1
s.(dp0
Vcyixtjp
p1
I1
sVd0eyvid
p2
I1
s.(dp0
Vcyixtjp
p1
I1
sVd0j09jy
p2
I1
s.(dp0
Vcyixtjp
p1
I1
sVd0jgreq
p2
I1
s.(dp0
Vcyixtjp
p1
I1
sVd0kp0k8
p2
I1
s.(dp0
Vcyixtjp
p1
I1
sVd0l1rwu
p2
I1
s.(dp0
Vcyixtjp
p1
I1
sVd0l5oq3
p2
I1
s.(dp0
Vcyixtjp
p1
I1
sVd0m5p3b
p2
I1
s.(dp0
Vcyixtjp
p1
I1
sVd0nz0yp
p2
I1
s.(dp0
Vcyixtjp
p1
I1
sVd0q9olu
p2
I1
s.(dp0
Vcyixtjp
p1
I1
sVd0qzcmf
p2
I1
s.(dp0
Vcyixtjp
p1
I1
sVd0qzcmf
p2
I1
s.(dp0
Vcyixtjp
p1
I1
sVd0teelc
p2
I1
s.(dp0
Vcyixtjp
p1
I1
sVd0thm01
p2
I1
s.(dp0
Vcyixtjp
p1
I1
sVd0thm01
p2
I1
s.(dp0
Vcyixtjp
p1
I1
sVd0tyx18
p2
I1
s.(dp0
Vcyixtjp
p1
I1
sVd10koa4
p2
I1
s.(dp0
Vcyixtjp
p1
I1
sVd10koa4
p2
I1
s.(dp0
Vcyixtjp
p1
I1
sVd12f767
p2
I1
s.(dp0
Vcyixtjp
p1
I1
sVd12kn50
p2
I1
s.(dp0
Vcyixtjp
p1
I1
sVd14io23
p2
I1
s.(dp0
Vcyixtjp
p1
I1
sVd16c2n9
p2
I1
s.(dp0
Vcyixtjp
p1
I1
sVd19u85j
p2
I1
s.(dp0
Vcyixtjp
p1
I1
sVd1amxp5
p2
I1
s.(dp0
Vcyixtjp
p1
I1
sVd1b3udh
p2
I1
s.(dp0
Vcyixtjp
p1
I1
sVd1bj6ic
p2
I1
s.(dp0
Vcyixtjp
p1
I1
sVd1bpzn4
p2
I1
s.(dp0
Vcyixtjp
p1
I1
sVd1g1b2o
p2
I1
s.(dp0
Vcyixtjp
p1
I1
sVd1gppuy
p2
I1
s.(dp0
Vcyixtjp
p1
I1
sVd1h1na4
p2
I1
s.(dp0
Vcyixtjp
p1
I1
sVd1hzhnc
p2
I1
s.(dp0
Vcyixtjp
p1
I1
sVd1j9xf9
p2
I1
s.(dp0
Vcyixtjp
p1
I1
sVd1jaw5g
p2
I1
s.(dp0
Vcyixtjp
p1
I1
sVd1jt0mt
p2
I1
s.(dp0
Vcyixtjp
p1
I1
sVd1k2zcm
p2
I1
s.(dp0
Vcyixtjp
p1
I1
sVd1o51gg
p2
I1
s.(dp0
Vcyixtjp
p1
I1
sVd1paev5
p2
I1
s.(dp0
Vcyixtjp
p1
I1
sVd1r49pu
p2
I1
s.(dp0
Vcyixtjp
p1
I1
sVd1tryw7
p2
I1
s.(dp0
Vcyixtjp
p1
I1
sVd1v8uwy
p2
I1
s.(dp0
Vcyixtjp
p1
I1
sVd1w7cbo
p2
I1
s.(dp0
Vcyixtjp
p1
I1
sVd1x7uh2
p2
I1
s.(dp0
Vcyixtjp
p1
I1
sVd20al9q
p2
I1
s.(dp0
Vcyixtjp
p1
I1
sVd20alhj
p2
I1
s.(dp0
Vcyixtjp
p1
I1
sVd21s79i
p2
I1
s.(dp0
Vcyixtjp
p1
I1
sVd22g2gv
p2
I1
s.(dp0
Vcyixtjp
p1
I1
sVd25wxif
p2
I1
s.(dp0
Vcyixtjp
p1
I1
sVd2cfhvu
p2
I1
s.(dp0
Vcyixtjp
p1
I1
sVd2d3rf1
p2
I1
s.(dp0
Vcy(dp0
Vcyixtjp
p1
I1
sVdktjpat
p2
I1
s.