(dp0
Vcyj9skh
p1
I1
s.(dp0
Vcyqbajy
p1
I1
sVcyj9skh
p2
I1
s.(dp0
Vcyj9skh
p1
I1
sVcz84vwh
p2
I1
s.(dp0
Vczc9bhc
p1
I1
sVcyj9skh
p2
I1
s.(dp0
Vczc9bhc
p1
I1
sVcyj9skh
p2
I1
s.(dp0
Vcyj9skh
p1
I1
sVcze3k99
p2
I1
s.(dp0
Vczuk325
p1
I1
sVcyj9skh
p2
I1
s.(dp0
Vcyj9skh
p1
I1
sVczutf6v
p2
I1
s.(dp0
Vcyj9skh
p1
I1
sVd050j3v
p2
I1
s.(dp0
Vd057vmt
p1
I1
sVcyj9skh
p2
I1
s.(dp0
Vcyj9skh
p1
I1
sVd05o9qh
p2
I1
s.(dp0
Vd06qirt
p1
I1
sVcyj9skh
p2
I1
s.(dp0
Vcyj9skh
p1
I1
sVd074ac9
p2
I1
s.(dp0
Vcyj9skh
p1
I1
sVd095roh
p2
I1
s.(dp0
Vd0bswml
p1
I1
sVcyj9skh
p2
I1
s.(dp0
Vd0ewqza
p1
I1
sVcyj9skh
p2
I1
s.(dp0
Vcyj9skh
p1
I1
sVd0ms1q6
p2
I1
s.(dp0
Vd0nlw64
p1
I1
sVcyj9skh
p2
I1
s.(dp0
Vd110p35
p1
I1
sVcyj9skh
p2
I1
s.(dp0
Vd12i0gd
p1
I1
sVcyj9skh
p2
I1
s.(dp0
Vd17uwi0
p1
I1
sVcyj9skh
p2
I1
s.(dp0
Vd1kl28g
p1
I1
sVcyj9skh
p2
I1
s.(dp0
Vd1kz5m5
p1
I1
sVcyj9skh
p2
I1
s.(dp0
Vd1mk4bv
p1
I1
sVcyj9skh
p2
I1
s.(dp0
Vcyj9skh
p1
I1
sVd1w43dj
p2
I1
s.(dp0
Vd22xc3u
p1
I1
sVcyj9skh
p2
I1
s.(dp0
Vd23hdr4
p1
I1
sVcyj9skh
p2
I1
s.(dp0
Vd23hdr4
p1
I1
sVcyj9skh
p2
I1
s.(dp0
Vd25welj
p1
I1
sVcyj9skh
p2
I1
s.(dp0
Vd279bps
p1
I1
sVcyj9skh
p2
I1
s.(dp0
Vd2pcdhe
p1
I1
sVcyj9skh
p2
I1
s.(dp0
Vd31buac
p1
I1
sVcyj9skh
p2
I1
s.(dp0
Vd33b7rh
p1
I1
sVcyj9skh
p2
I1
s.(dp0
Vd36svon
p1
I1
sVcyj9skh
p2
I1
s.(dp0
Vd373n9q
p1
I1
sVcyj9skh
p2
I1
s.(dp0
Vcyj9skh
p1
I1
sVd3ahrz1
p2
I1
s.(dp0
Vd3m1s51
p1
I1
sVcyj9skh
p2
I1
s.(dp0
Vd44wte5
p1
I1
sVcyj9skh
p2
I1
s.(dp0
Vcyj9skh
p1
I1
sVd45vhtw
p2
I1
s.(dp0
Vd4jqt2w
p1
I1
sVcyj9skh
p2
I1
s.(dp0
Vcyj9skh
p1
I1
sVd4p2n60
p2
I1
s.(dp0
Vd5j4hrk
p1
I1
sVcyj9skh
p2
I1
s.(dp0
Vcyj9skh
p1
I1
sVd5zmzsc
p2
I1
s.(dp0
Vd6a1nqi
p1
I1
sVcyj9skh
p2
I1
s.(dp0
Vd6boa25
p1
I1
sVcyj9skh
p2
I1
s.(dp0
Vcyj9skh
p1
I1
sVd6sp09j
p2
I1
s.(dp0
Vd72u6er
p1
I1
sVcyj9skh
p2
I1
s.(dp0
Vcyj9skh
p1
I1
sVd73bc6i
p2
I1
s.(dp0
Vcyj9skh
p1
I1
sVd7m3eha
p2
I1
s.(dp0
Vcyj9skh
p1
I1
sVd7m3eha
p2
I1
s.(dp0
Vcyj9skh
p1
I1
sVd7m9h5p
p2
I1
s.(dp0
Vcyj9skh
p1
I1
sVd7ubr5w
p2
I1
s.(dp0
Vcyj9skh
p1
I1
sVd7ubr5w
p2
I1
s.(dp0
Vcyj9skh
p1
I1
sVd7uqtlw
p2
I1
s.(dp0
Vcyj9skh
p1
I1
sVd7uqtlw
p2
I1
s.(dp0
Vd7we6xh
p1
I1
sVcyj9skh
p2
I1
s.(dp0
Vd81mcya
p1
I1
sVcyj9skh
p2
I1
s.(dp0
Vd81sehr
p1
I1
sVcyj9skh
p2
I1
s.(dp0
Vcyj9skh
p1
I1
sVd8opqo9
p2
I1
s.(dp0
Vcyj9skh
p1
I1
sVd8r7zm7
p2
I1
s.(dp0
Vd8tt4kg
p1
I1
sVcyj9skh
p2
I1
s.(dp0
Vd90v8oo
p1
I1
sVcyj9skh
p2
I1
s.(dp0
Vd93008a
p1
I1
sVcyj9skh
p2
I1
s.(dp0
Vd97gy0g
p1
I1
sVcyj9skh
p2
I1
s.(dp0
Vd9k7mqd
p1
I1
sVcyj9skh
p2
I1
s.(dp0
Vda5a9xp
p1
I1
sVcyj9skh
p2
I1
s.(dp0
Vdaitwnf
p1
I1
sVcyj9skh
p2
I1
s.(dp0
Vdaos2k3
p1
I1
sVcyj9skh
p2
I1
s.(dp0
Vdaov7fv
p1
I1
sVcyj9skh
p2
I1
s.(dp0
Vcyj9skh
p1
I1
sVdarec3e
p2
I1
s.(dp0
Vdav8wqj
p1
I1
sVcyj9skh
p2
I1
s.(dp0
Vcyj9skh
p1
I1
sVdavbrfv
p2
I1
s.(dp0
Vcyj9skh
p1
I1
sVdbj7yke
p2
I1
s.(dp0
Vdbr6brz
p1
I1
sVcyj9skh
p2
I1
s.(dp0
Vcyj9skh
p1
I1
sVdbtsag1
p2
I1
s.(dp0
Vdbw42xf
p1
I1
sVcyj9skh
p2
I1
s.(dp0
Vdc0p9lo
p1
I1
sVcyj9skh
p2
I1
s.(dp0
Vdc5hl56
p1
I1
sVcyj9skh
p2
I1
s.(dp0
Vdc98e82
p1
I1
sVcyj9skh
p2
I1
s.(dp0
Vdcac2h1
p1
I1
sVcyj9skh
p2
I1
s.(dp0
Vcyj9skh
p1
I1
sVdcbkzxz
p2
I1
s.(dp0
Vcyj9skh
p1
I1
sVdcefvh6
p2
I1
s.(dp0
Vcyj9skh
p1
I1
sVdcqsydp
p2
I1
s.(dp0
Vdctb7ju
p1
I1
sVcyj9skh
p2
I1
s.(dp0
Vcyj9skh
p1
I1
sVdctekwf
p2
I1
s.(dp0
Vcyj9skh
p1
I1
sVdcyyhv9
p2
I1
s.(dp0
Vcyj9skh
p1
I1
sVddaf2h5
p2
I1
s.(dp0
Vcyj9skh
p1
I1
sVdddkzye
p2
I1
s.(dp0
Vcyj9skh
p1
I1
sVdddt2fz
p2
I1
s.(dp0
Vddf5zw2
p1
I1
sVcyj9skh
p2
I1
s.(dp0
Vddja6tp
p1
I1
sVcyj9skh
p2
I1
s.(dp0
Vcyj9skh
p1
I1
sVddp7hnk
p2
I1
s.(dp0
Vcyj9skh
p1
I1
sVddwkj1z
p2
I1
s.(dp0
Vcyj9skh
p1
I1
sVddwklcy
p2
I1
s.(dp0
Vde2p7a4
p1
I1
sVcyj9skh
p2
I1
s.(dp0
Vcyj9skh
p1
I1
sVde33zr3
p2
I1
s.(dp0
Vde5o58t
p1
I1
sVcyj9skh
p2
I1
s.(dp0
Vcyj9skh
p1
I1
sVdekvz92
p2
I1
s.(dp0
Vcyj9skh
p1
I1
sVdem1aww
p2
I1
s.(dp0
Vdenve9o
p1
I1
sVcyj9skh
p2
I1
s.(dp0
Vdeq4ims
p1
I1
sVcyj9skh
p2
I1
s.(dp0
Vcyj9skh
p1
I1
sVdettj0i
p2
I1
s.(dp0
Vdew1c01
p1
I1
sVcyj9skh
p2
I1
s.(dp0
Vdew1c01
p1
I1
sVcyj9skh
p2
I1
s.(dp0
Vdew1c01
p1
I1
sVcyj9skh
p2
I1
s.(dp0
Vdexq3j5
p1
I1
sVcyj9skh
p2
I1
s.(dp0
Vdfc5v0t
p1
I1
sVcyj9skh
p2
I1
s.(dp0
Vdfgsr43
p1
I1
sVcyj9skh
p2
I1
s.(dp0
Vcy(dp0
Vdp50irh
p1
I1
sVcyj9skh
p2
I1
s.