(dp0
Vcyvdafm
p1
I1
s.(dp0
Vcyvdjjq
p1
I1
sVcyvdafm
p2
I1
s.(dp0
Vczd3tmq
p1
I1
sVcyvdafm
p2
I1
s.(dp0
Vd18ngwv
p1
I1
sVcyvdafm
p2
I1
s.(dp0
Vd2pgbyy
p1
I1
sVcyvdafm
p2
I1
s.(dp0
Vd2uyozm
p1
I1
sVcyvdafm
p2
I1
s.(dp0
Vd3ghotb
p1
I1
sVcyvdafm
p2
I1
s.(dp0
Vd48qoa4
p1
I1
sVcyvdafm
p2
I1
s.(dp0
Vd48qoa4
p1
I1
sVcyvdafm
p2
I1
s.(dp0
Vd59eppg
p1
I1
sVcyvdafm
p2
I1
s.(dp0
Vd5xtyvh
p1
I1
sVcyvdafm
p2
I1
s.(dp0
Vd6rj450
p1
I1
sVcyvdafm
p2
I1
s.(dp0
Vd6rj450
p1
I1
sVcyvdafm
p2
I1
s.(dp0
Vd7x2tsh
p1
I1
sVcyvdafm
p2
I1
s.(dp0
Vd8ym6qb
p1
I1
sVcyvdafm
p2
I1
s.(dp0
Vd9xmedk
p1
I1
sVcyvdafm
p2
I1
s.(dp0
Vdab0mfi
p1
I1
sVcyvdafm
p2
I1
s.(dp0
Vdbj33zj
p1
I1
sVcyvdafm
p2
I1
s.(dp0
Vdc1lj2y
p1
I1
sVcyvdafm
p2
I1
s.(dp0
Vdcafgyt
p1
I1
sVcyvdafm
p2
I1
s.(dp0
Vdcafgyt
p1
I1
sVcyvdafm
p2
I1
s.(dp0
Vdexdre9
p1
I1
sVcyvdafm
p2
I1
s.(dp0
Vdexdre9
p1
I1
sVcyvdafm
p2
I1
s.(dp0
Vdgsd9w4
p1
I1
sVcyvdafm
p2
I1
s.(dp0
Vdhepzvo
p1
I1
sVcyvdafm
p2
I1
s.(dp0
Vdhx018n
p1
I1
sVcyvdafm
p2
I1
s.(dp0
Vdhx018n
p1
I1
sVcyvdafm
p2
I1
s.(dp0
Vdhy8bqr
p1
I1
sVcyvdafm
p2
I1
s.(dp0
Vdhy8bqr
p1
I1
sVcyvdafm
p2
I1
s.(dp0
Vdhy8bqr
p1
I1
sVcyvdafm
p2
I1
s.(dp0
Vdhy8bqr
p1
I1
sVcyvdafm
p2
I1
s.(dp0
Vdipumjr
p1
I1
sVcyvdafm
p2
I1
s.(dp0
Vdiru556
p1
I1
sVcyvdafm
p2
I1
s.(dp0
Vdivcx0o
p1
I1
sVcyvdafm
p2
I1
s.(dp0
Vdivcx0o
p1
I1
sVcyvdafm
p2
I1
s.(dp0
Vdivcx0o
p1
I1
sVcyvdafm
p2
I1
s.(dp0
Vdk5d6xr
p1
I1
sVcyvdafm
p2
I1
s.(dp0
Vdo0oucx
p1
I1
sVcyvdafm
p2
I1
s.