(dp0
Vcyi37si
p1
I1
s.(dp0
Vcykpn82
p1
I1
sVcyi37si
p2
I1
s.(dp0
Vcyok1b2
p1
I1
sVcyi37si
p2
I1
s.(dp0
Vcyxredd
p1
I1
sVcyi37si
p2
I1
s.(dp0
Vcyxyzv2
p1
I1
sVcyi37si
p2
I1
s.(dp0
Vcyi37si
p1
I1
sVcyzhn59
p2
I1
s.(dp0
Vczc7yr8
p1
I1
sVcyi37si
p2
I1
s.(dp0
Vczd253b
p1
I1
sVcyi37si
p2
I1
s.(dp0
Vczhuegj
p1
I1
sVcyi37si
p2
I1
s.(dp0
Vczhz0d2
p1
I1
sVcyi37si
p2
I1
s.(dp0
Vczi1j41
p1
I1
sVcyi37si
p2
I1
s.(dp0
Vcyi37si
p1
I1
sVczi883h
p2
I1
s.(dp0
Vcyi37si
p1
I1
sVczi883h
p2
I1
s.(dp0
Vcyi37si
p1
I1
sVczm7kje
p2
I1
s.(dp0
Vczm9ck2
p1
I1
sVcyi37si
p2
I1
s.(dp0
Vczm9ck2
p1
I1
sVcyi37si
p2
I1
s.(dp0
Vczmaci4
p1
I1
sVcyi37si
p2
I1
s.(dp0
Vcyi37si
p1
I1
sVd09slir
p2
I1
s.(dp0
Vcyi37si
p1
I1
sVd0dkxp1
p2
I1
s.(dp0
Vd0fi2bc
p1
I1
sVcyi37si
p2
I1
s.(dp0
Vcyi37si
p1
I1
sVd0fr0hv
p2
I1
s.(dp0
Vcyi37si
p1
I1
sVd0h3oo9
p2
I1
s.(dp0
Vd0i87pf
p1
I1
sVcyi37si
p2
I1
s.(dp0
Vcyi37si
p1
I1
sVd0j4xyw
p2
I1
s.(dp0
Vd0s94rk
p1
I1
sVcyi37si
p2
I1
s.(dp0
Vcyi37si
p1
I1
sVd0sg5t7
p2
I1
s.(dp0
Vd0t08wy
p1
I1
sVcyi37si
p2
I1
s.(dp0
Vcyi37si
p1
I1
sVd0yuwd5
p2
I1
s.(dp0
Vcyi37si
p1
I1
sVd1215gt
p2
I1
s.(dp0
Vd13jrcd
p1
I1
sVcyi37si
p2
I1
s.(dp0
Vd13jrcd
p1
I1
sVcyi37si
p2
I1
s.(dp0
Vcyi37si
p1
I1
sVd19530g
p2
I1
s.(dp0
Vcyi37si
p1
I1
sVd195pn9
p2
I1
s.(dp0
Vcyi37si
p1
I1
sVd19ro8w
p2
I1
s.(dp0
Vd1acmef
p1
I1
sVcyi37si
p2
I1
s.(dp0
Vd1af04k
p1
I1
sVcyi37si
p2
I1
s.(dp0
Vd1aza4i
p1
I1
sVcyi37si
p2
I1
s.(dp0
Vd1czj5a
p1
I1
sVcyi37si
p2
I1
s.(dp0
Vd1d0fmr
p1
I1
sVcyi37si
p2
I1
s.(dp0
Vd1d0fmr
p1
I1
sVcyi37si
p2
I1
s.(dp0
Vd1h4jtv
p1
I1
sVcyi37si
p2
I1
s.(dp0
Vcyi37si
p1
I1
sVd1k4hmg
p2
I1
s.(dp0
Vd1ovemc
p1
I1
sVcyi37si
p2
I1
s.(dp0
Vd1q90bf
p1
I1
sVcyi37si
p2
I1
s.(dp0
Vd1q90bf
p1
I1
sVcyi37si
p2
I1
s.(dp0
Vd1t1bh4
p1
I1
sVcyi37si
p2
I1
s.(dp0
Vd1t1bh4
p1
I1
sVcyi37si
p2
I1
s.(dp0
Vcyi37si
p1
I1
sVd1v1279
p2
I1
s.(dp0
Vd1v16ur
p1
I1
sVcyi37si
p2
I1
s.(dp0
Vd1v4dp7
p1
I1
sVcyi37si
p2
I1
s.(dp0
Vd1x3o17
p1
I1
sVcyi37si
p2
I1
s.(dp0
Vcyi37si
p1
I1
sVd1zlrp3
p2
I1
s.(dp0
Vd1zszfi
p1
I1
sVcyi37si
p2
I1
s.(dp0
Vd212ynv
p1
I1
sVcyi37si
p2
I1
s.(dp0
Vd26khs8
p1
I1
sVcyi37si
p2
I1
s.(dp0
Vd26khs8
p1
I1
sVcyi37si
p2
I1
s.(dp0
Vd26khs8
p1
I1
sVcyi37si
p2
I1
s.(dp0
Vd26khs8
p1
I1
sVcyi37si
p2
I1
s.(dp0
Vcyi37si
p1
I1
sVd26kvvw
p2
I1
s.(dp0
Vcyi37si
p1
I1
sVd26kvvw
p2
I1
s.(dp0
Vcyi37si
p1
I1
sVd26lcah
p2
I1
s.(dp0
Vd2aaidb
p1
I1
sVcyi37si
p2
I1
s.(dp0
Vd2ahbo2
p1
I1
sVcyi37si
p2
I1
s.(dp0
Vcyi37si
p1
I1
sVd2ajt9s
p2
I1
s.(dp0
Vd2au8w4
p1
I1
sVcyi37si
p2
I1
s.(dp0
Vd2bdizd
p1
I1
sVcyi37si
p2
I1
s.(dp0
Vcyi37si
p1
I1
sVd2gg0qs
p2
I1
s.(dp0
Vd2gv34g
p1
I1
sVcyi37si
p2
I1
s.(dp0
Vcyi37si
p1
I1
sVd2ii8a3
p2
I1
s.(dp0
Vcyi37si
p1
I1
sVd2ii8a3
p2
I1
s.(dp0
Vd2mmdb6
p1
I1
sVcyi37si
p2
I1
s.(dp0
Vcyi37si
p1
I1
sVd2ninn7
p2
I1
s.(dp0
Vd2pb4sm
p1
I1
sVcyi37si
p2
I1
s.(dp0
Vcyi37si
p1
I1
sVd2t4czj
p2
I1
s.(dp0
Vd2u1yr1
p1
I1
sVcyi37si
p2
I1
s.(dp0
Vd2v40rr
p1
I1
sVcyi37si
p2
I1
s.(dp0
Vd2v40rr
p1
I1
sVcyi37si
p2
I1
s.(dp0
Vd2v40rr
p1
I1
sVcyi37si
p2
I1
s.(dp0
Vd2ywhx5
p1
I1
sVcyi37si
p2
I1
s.(dp0
Vcyi37si
p1
I1
sVd3093g5
p2
I1
s.(dp0
Vcyi37si
p1
I1
sVd3150a2
p2
I1
s.(dp0
Vcyi37si
p1
I1
sVd3ba9xu
p2
I1
s.(dp0
Vcyi37si
p1
I1
sVd3ezvh9
p2
I1
s.(dp0
Vd3h5sq1
p1
I1
sVcyi37si
p2
I1
s.(dp0
Vd3h8fxh
p1
I1
sVcyi37si
p2
I1
s.(dp0
Vd3q9tg6
p1
I1
sVcyi37si
p2
I1
s.(dp0
Vcyi37si
p1
I1
sVd3z84ay
p2
I1
s.(dp0
Vcyi37si
p1
I1
sVd3z84ay
p2
I1
s.(dp0
Vcyi37si
p1
I1
sVd463njm
p2
I1
s.(dp0
Vd47v19o
p1
I1
sVcyi37si
p2
I1
s.(dp0
Vd4fhxa7
p1
I1
sVcyi37si
p2
I1
s.(dp0
Vcyi37si
p1
I1
sVd4mbere
p2
I1
s.(dp0
Vcyi37si
p1
I1
sVd4mbyc2
p2
I1
s.(dp0
Vcyi37si
p1
I1
sVd4nbkpi
p2
I1
s.(dp0
Vcyi37si
p1
I1
sVd4nbkpi
p2
I1
s.(dp0
Vcyi37si
p1
I1
sVd4nbkpi
p2
I1
s.(dp0
Vcyi37si
p1
I1
sVd4nbkpi
p2
I1
s.(dp0
Vcyi37si
p1
I1
sVd4nbkpi
p2
I1
s.(dp0
Vd4yq4fv
p1
I1
sVcyi37si
p2
I1
s.(dp0
Vd51vura
p1
I1
sVcyi37si
p2
I1
s.(dp0
Vd57uyvo
p1
I1
sVcyi37si
p2
I1
s.(dp0
Vd5cphix
p1
I1
sVcyi37si
p2
I1
s.(dp0
Vd5cphix
p1
I1
sVcyi37si
p2
I1
s.(dp0
Vd5cphix
p1
I1
sVcyi37si
p2
I1
s.(dp0
Vd5cphix
p1
I1
sVcyi37si
p2
I1
s.(dp0
Vd5cphix
p1
I1
sVcyi37si
p2
I1
s.(dp0
Vcyi37si
p1
I1
sVd5cpjua
p2
I1
s.(dp0
Vcyi37si
p1
I1
sVd5cpjua
p2
I1
s.(dp0
Vcy(dp0
Vdkovu11
p1
I1
sVcyi37si
p2
I1
s.