(dp0
Vcylj13x
p1
I1
s.(dp0
Vcylj13x
p1
I1
sVcyuoisa
p2
I1
s.(dp0
Vcylj13x
p1
I1
sVczs1use
p2
I1
s.(dp0
Vcylj13x
p1
I1
sVczvi0ke
p2
I1
s.(dp0
Vcylj13x
p1
I1
sVd011yj1
p2
I1
s.(dp0
Vcylj13x
p1
I1
sVd02ekvq
p2
I1
s.(dp0
Vcylj13x
p1
I1
sVd02ekvq
p2
I1
s.(dp0
Vcylj13x
p1
I1
sVd0s07nd
p2
I1
s.(dp0
Vcylj13x
p1
I1
sVd0s3psu
p2
I1
s.(dp0
Vcylj13x
p1
I1
sVd0xpe0a
p2
I1
s.(dp0
Vcylj13x
p1
I1
sVd1gp3oy
p2
I1
s.(dp0
Vcylj13x
p1
I1
sVd1mdl6d
p2
I1
s.(dp0
Vcylj13x
p1
I1
sVd2qbme0
p2
I1
s.(dp0
Vcylj13x
p1
I1
sVd33ashk
p2
I1
s.(dp0
Vd33lsos
p1
I1
sVcylj13x
p2
I1
s.(dp0
Vd3lxgmb
p1
I1
sVcylj13x
p2
I1
s.(dp0
Vd3lxgmb
p1
I1
sVcylj13x
p2
I1
s.(dp0
Vcylj13x
p1
I1
sVd3yqnfu
p2
I1
s.(dp0
Vd43moky
p1
I1
sVcylj13x
p2
I1
s.(dp0
Vd46n56h
p1
I1
sVcylj13x
p2
I1
s.(dp0
Vcylj13x
p1
I1
sVd4bh14r
p2
I1
s.(dp0
Vcylj13x
p1
I1
sVd4vgevt
p2
I1
s.(dp0
Vd5ucbv8
p1
I1
sVcylj13x
p2
I1
s.(dp0
Vcylj13x
p1
I1
sVd5v9xhy
p2
I1
s.(dp0
Vcylj13x
p1
I1
sVd5zlw0b
p2
I1
s.(dp0
Vcylj13x
p1
I1
sVd6l0g8k
p2
I1
s.(dp0
Vcylj13x
p1
I1
sVd6wsp9v
p2
I1
s.(dp0
Vcylj13x
p1
I1
sVdahcdg4
p2
I1
s.(dp0
Vcylj13x
p1
I1
sVdahcdg4
p2
I1
s.(dp0
Vcylj13x
p1
I1
sVdb7h2qt
p2
I1
s.(dp0
Vcylj13x
p1
I1
sVdbm81dq
p2
I1
s.(dp0
Vcylj13x
p1
I1
sVdbm81dq
p2
I1
s.(dp0
Vcylj13x
p1
I1
sVdbm81dq
p2
I1
s.(dp0
Vcylj13x
p1
I1
sVdcbdl5a
p2
I1
s.(dp0
Vcylj13x
p1
I1
sVdcy7rjh
p2
I1
s.(dp0
Vcylj13x
p1
I1
sVdd90u6g
p2
I1
s.(dp0
Vcylj13x
p1
I1
sVddh582c
p2
I1
s.(dp0
Vcylj13x
p1
I1
sVddtne41
p2
I1
s.(dp0
Vcylj13x
p1
I1
sVdeh9sqz
p2
I1
s.(dp0
Vcylj13x
p1
I1
sVdeha09n
p2
I1
s.(dp0
Vcylj13x
p1
I1
sVdej8e3s
p2
I1
s.(dp0
Vdfjoqv5
p1
I1
sVcylj13x
p2
I1
s.(dp0
Vcylj13x
p1
I1
sVdg6axbh
p2
I1
s.(dp0
Vcylj13x
p1
I1
sVdga44xb
p2
I1
s.(dp0
Vcylj13x
p1
I1
sVdi6uyuy
p2
I1
s.(dp0
Vcylj13x
p1
I1
sVdi9hngt
p2
I1
s.(dp0
Vcylj13x
p1
I1
sVdkiavu2
p2
I1
s.