(dp0
Vcyqienb
p1
I1
s.(dp0
Vcyqienb
p1
I2
s.(dp0
Vcyqienb
p1
I1
sVcyzbko8
p2
I1
s.(dp0
Vcyqienb
p1
I1
sVczc3to7
p2
I1
s.(dp0
Vcyqienb
p1
I1
sVd0i2qk4
p2
I1
s.(dp0
Vcyqienb
p1
I1
sVd0i2qk4
p2
I1
s.(dp0
Vcyqienb
p1
I1
sVd0i8v0r
p2
I1
s.(dp0
Vcyqienb
p1
I1
sVd0i8v0r
p2
I1
s.(dp0
Vcyqienb
p1
I1
sVd0vwzq5
p2
I1
s.(dp0
Vcyqienb
p1
I1
sVd10j2b9
p2
I1
s.(dp0
Vcyqienb
p1
I1
sVd1jzegs
p2
I1
s.(dp0
Vcyqienb
p1
I1
sVd5zldcs
p2
I1
s.(dp0
Vcyqienb
p1
I1
sVd6jnje5
p2
I1
s.(dp0
Vcyqienb
p1
I1
sVd6o4dnn
p2
I1
s.(dp0
Vcyqienb
p1
I1
sVd7rfsft
p2
I1
s.(dp0
Vcyqienb
p1
I1
sVd7y1a1s
p2
I1
s.(dp0
Vcyqienb
p1
I1
sVdb3cquk
p2
I1
s.(dp0
Vcyqienb
p1
I1
sVdck5evg
p2
I1
s.(dp0
Vcyqienb
p1
I1
sVdco4qzl
p2
I1
s.(dp0
Vcyqienb
p1
I1
sVddg21d2
p2
I1
s.(dp0
Vcyqienb
p1
I1
sVddtxgt1
p2
I1
s.(dp0
Vcyqienb
p1
I1
sVddu0rla
p2
I1
s.(dp0
Vcyqienb
p1
I1
sVddxzv3v
p2
I1
s.(dp0
Vcyqienb
p1
I1
sVdexmynj
p2
I1
s.(dp0
Vcyqienb
p1
I1
sVdg3tuxz
p2
I1
s.(dp0
Vcyqienb
p1
I1
sVdg64pwx
p2
I1
s.(dp0
Vcyqienb
p1
I1
sVdgjl3vt
p2
I1
s.(dp0
Vcyqienb
p1
I1
sVdhgver3
p2
I1
s.(dp0
Vcyqienb
p1
I1
sVdi206hj
p2
I1
s.(dp0
Vcyqienb
p1
I1
sVdnkq5rf
p2
I1
s.