(dp0
Vd3b39zj
p1
I1
s.(dp0
Vd3b39zj
p1
I2
s.(dp0
Vd3b39zj
p1
I1
sVd3sk70m
p2
I1
s.(dp0
Vd6lq5rh
p1
I1
sVd3b39zj
p2
I1
s.(dp0
Vd3b39zj
p1
I1
sVda0z4an
p2
I1
s.(dp0
Vdewqjby
p1
I1
sVd3b39zj
p2
I1
s.(dp0
Vdi3dtjo
p1
I1
sVd3b39zj
p2
I1
s.(dp0
Vdjgpysj
p1
I1
sVd3b39zj
p2
I1
s.