(dp0
Vcylhdvl
p1
I1
s.(dp0
Vcylhdvl
p1
I1
sVcylimr2
p2
I1
s.(dp0
Vcylhdvl
p1
I1
sVcymvmzl
p2
I1
s.(dp0
Vcylhdvl
p1
I1
sVcyor3xe
p2
I1
s.(dp0
Vcylhdvl
p1
I1
sVcyp8hkl
p2
I1
s.(dp0
Vcysnthf
p1
I1
sVcylhdvl
p2
I1
s.(dp0
Vcylhdvl
p1
I1
sVcyvc5lw
p2
I1
s.(dp0
Vcylhdvl
p1
I1
sVczfxb9p
p2
I1
s.(dp0
Vcylhdvl
p1
I1
sVczsrot7
p2
I1
s.(dp0
Vczw7dnb
p1
I1
sVcylhdvl
p2
I1
s.(dp0
Vczw8mek
p1
I1
sVcylhdvl
p2
I1
s.(dp0
Vcylhdvl
p1
I1
sVd02s39o
p2
I1
s.(dp0
Vd034wn9
p1
I1
sVcylhdvl
p2
I1
s.(dp0
Vd0faasz
p1
I1
sVcylhdvl
p2
I1
s.(dp0
Vcylhdvl
p1
I1
sVd0jl0q8
p2
I1
s.(dp0
Vcylhdvl
p1
I1
sVd0vfjqv
p2
I1
s.(dp0
Vcylhdvl
p1
I1
sVd121c77
p2
I1
s.(dp0
Vcylhdvl
p1
I1
sVd17kxbw
p2
I1
s.(dp0
Vcylhdvl
p1
I1
sVd1dgoyp
p2
I1
s.(dp0
Vcylhdvl
p1
I1
sVd1gbzza
p2
I1
s.(dp0
Vcylhdvl
p1
I1
sVd1lgymd
p2
I1
s.(dp0
Vcylhdvl
p1
I1
sVd1my14d
p2
I1
s.(dp0
Vcylhdvl
p1
I1
sVd1qoq5q
p2
I1
s.(dp0
Vcylhdvl
p1
I1
sVd1x6ji9
p2
I1
s.(dp0
Vcylhdvl
p1
I1
sVd24hicj
p2
I1
s.(dp0
Vcylhdvl
p1
I1
sVd28fq23
p2
I1
s.(dp0
Vcylhdvl
p1
I1
sVd2a2gye
p2
I1
s.(dp0
Vcylhdvl
p1
I1
sVd2gexj1
p2
I1
s.(dp0
Vcylhdvl
p1
I1
sVd2qrku4
p2
I1
s.(dp0
Vcylhdvl
p1
I1
sVd2r0k46
p2
I1
s.(dp0
Vcylhdvl
p1
I1
sVd3655my
p2
I1
s.(dp0
Vcylhdvl
p1
I1
sVd3fki5h
p2
I1
s.(dp0
Vd3h1xiz
p1
I1
sVcylhdvl
p2
I1
s.(dp0
Vd3hreef
p1
I1
sVcylhdvl
p2
I1
s.(dp0
Vcylhdvl
p1
I1
sVd3iknjl
p2
I1
s.(dp0
Vcylhdvl
p1
I1
sVd3wwxo2
p2
I1
s.(dp0
Vcylhdvl
p1
I1
sVd3y0s0g
p2
I1
s.(dp0
Vcylhdvl
p1
I1
sVd3yt6f2
p2
I1
s.(dp0
Vcylhdvl
p1
I1
sVd4fltuu
p2
I1
s.(dp0
Vd4kme91
p1
I1
sVcylhdvl
p2
I1
s.(dp0
Vcylhdvl
p1
I1
sVd4oc3rg
p2
I1
s.(dp0
Vcylhdvl
p1
I1
sVd4t5nyx
p2
I1
s.(dp0
Vcylhdvl
p1
I1
sVd4vqfof
p2
I1
s.(dp0
Vd4xilug
p1
I1
sVcylhdvl
p2
I1
s.(dp0
Vcylhdvl
p1
I1
sVd5eee3y
p2
I1
s.(dp0
Vcylhdvl
p1
I1
sVd5i8kll
p2
I1
s.(dp0
Vcylhdvl
p1
I1
sVd5sd7oj
p2
I1
s.(dp0
Vcylhdvl
p1
I1
sVd5ursav
p2
I1
s.(dp0
Vd5v8d4j
p1
I1
sVcylhdvl
p2
I1
s.(dp0
Vcylhdvl
p1
I1
sVd67wpw3
p2
I1
s.(dp0
Vcylhdvl
p1
I1
sVd6am6px
p2
I1
s.(dp0
Vcylhdvl
p1
I1
sVd6eyvku
p2
I1
s.(dp0
Vcylhdvl
p1
I1
sVd6f6c7w
p2
I1
s.(dp0
Vcylhdvl
p1
I1
sVd6h6csz
p2
I1
s.(dp0
Vcylhdvl
p1
I1
sVd6hgf63
p2
I1
s.(dp0
Vcylhdvl
p1
I1
sVd6pdopa
p2
I1
s.(dp0
Vcylhdvl
p1
I1
sVd6vf75j
p2
I1
s.(dp0
Vcylhdvl
p1
I1
sVd74sx2s
p2
I1
s.(dp0
Vcylhdvl
p1
I1
sVd7ao4qv
p2
I1
s.(dp0
Vd7byjh5
p1
I1
sVcylhdvl
p2
I1
s.(dp0
Vcylhdvl
p1
I1
sVd7vw8gn
p2
I1
s.(dp0
Vcylhdvl
p1
I1
sVd85eysx
p2
I1
s.(dp0
Vcylhdvl
p1
I1
sVd85o9k5
p2
I1
s.(dp0
Vd865syr
p1
I1
sVcylhdvl
p2
I1
s.(dp0
Vcylhdvl
p1
I1
sVd86venn
p2
I1
s.(dp0
Vcylhdvl
p1
I1
sVd8alfsj
p2
I1
s.(dp0
Vcylhdvl
p1
I1
sVd8bkt7r
p2
I1
s.(dp0
Vd8i07d9
p1
I1
sVcylhdvl
p2
I1
s.(dp0
Vd8i07d9
p1
I1
sVcylhdvl
p2
I1
s.(dp0
Vcylhdvl
p1
I1
sVd8jgryh
p2
I1
s.(dp0
Vcylhdvl
p1
I1
sVd8l133x
p2
I1
s.(dp0
Vcylhdvl
p1
I1
sVd96yuel
p2
I1
s.(dp0
Vcylhdvl
p1
I1
sVd9hkieo
p2
I1
s.(dp0
Vd9rj6me
p1
I1
sVcylhdvl
p2
I1
s.(dp0
Vcylhdvl
p1
I1
sVda01v44
p2
I1
s.(dp0
Vcylhdvl
p1
I1
sVdad4i39
p2
I1
s.(dp0
Vcylhdvl
p1
I1
sVdad4i39
p2
I1
s.(dp0
Vcylhdvl
p1
I1
sVdaeiqt4
p2
I1
s.(dp0
Vcylhdvl
p1
I1
sVdakwgmw
p2
I1
s.(dp0
Vdapy5mu
p1
I1
sVcylhdvl
p2
I1
s.(dp0
Vcylhdvl
p1
I1
sVdav26y2
p2
I1
s.(dp0
Vcylhdvl
p1
I1
sVdav986n
p2
I1
s.(dp0
Vcylhdvl
p1
I1
sVdaxfrru
p2
I1
s.(dp0
Vcylhdvl
p1
I1
sVdb5af3k
p2
I1
s.(dp0
Vcylhdvl
p1
I1
sVdb9xgy2
p2
I1
s.(dp0
Vcylhdvl
p1
I1
sVdbfoqqy
p2
I1
s.(dp0
Vdbggpfu
p1
I1
sVcylhdvl
p2
I1
s.(dp0
Vcylhdvl
p1
I1
sVdbnhyh5
p2
I1
s.(dp0
Vcylhdvl
p1
I1
sVdbo6g21
p2
I1
s.(dp0
Vcylhdvl
p1
I1
sVdbqczm7
p2
I1
s.(dp0
Vcylhdvl
p1
I1
sVdbt7vj9
p2
I1
s.(dp0
Vcylhdvl
p1
I1
sVdc4gu5x
p2
I1
s.(dp0
Vdc769ok
p1
I1
sVcylhdvl
p2
I1
s.(dp0
Vcylhdvl
p1
I1
sVdc8xtmk
p2
I1
s.(dp0
Vcylhdvl
p1
I1
sVdc9tw99
p2
I1
s.(dp0
Vcylhdvl
p1
I1
sVdcdfp1r
p2
I1
s.(dp0
Vcylhdvl
p1
I1
sVdceqs59
p2
I1
s.(dp0
Vcylhdvl
p1
I1
sVdcij1y0
p2
I1
s.(dp0
Vcylhdvl
p1
I1
sVdcld2ty
p2
I1
s.(dp0
Vcylhdvl
p1
I1
sVdcn7k14
p2
I1
s.(dp0
Vcylhdvl
p1
I1
sVdcqpq3m
p2
I1
s.(dp0
Vcylhdvl
p1
I1
sVdd7oxpo
p2
I1
s.(dp0
Vcylhdvl
p1
I1
sVddcvwyf
p2
I1
s.(dp0
Vcylhdvl
p1
I1
sVddgfoxt
p2
I1
s.(dp0
Vcylhdvl
p1
I1
sVddoyw6q
p2
I1
s.(dp0
Vcylhdvl
p1
I1
sVddwxwnd
p2
I1
s.(dp0
Vcylhdvl
p1
I1
sVde8z7wq
p2
I1
s.(dp0
Vcylhdvl
p1
I1
sVde9lruy
p2
I1
s.(dp0
Vcy(dp0
Vcylhdvl
p1
I1
sVdooaxq6
p2
I1
s.