(dp0
Vcz2j7y8
p1
I1
s.(dp0
Vczjuxog
p1
I1
sVcz2j7y8
p2
I1
s.(dp0
Vd89x4tf
p1
I1
sVcz2j7y8
p2
I1
s.(dp0
Vd9dzaya
p1
I1
sVcz2j7y8
p2
I1
s.(dp0
Vcz2j7y8
p1
I1
sVdbswzb0
p2
I1
s.(dp0
Vdid1hi7
p1
I1
sVcz2j7y8
p2
I1
s.