(dp0
Vcym9sx6
p1
I1
s.(dp0
Vcym9sx6
p1
I1
sVcz0pdn1
p2
I1
s.(dp0
Vcym9sx6
p1
I1
sVcz32zet
p2
I1
s.(dp0
Vcym9sx6
p1
I1
sVcz4zp5t
p2
I1
s.(dp0
Vcym9sx6
p1
I1
sVcz4zp5t
p2
I1
s.(dp0
Vcym9sx6
p1
I1
sVczmm51r
p2
I1
s.(dp0
Vcym9sx6
p1
I1
sVd01jzg7
p2
I1
s.(dp0
Vcym9sx6
p1
I1
sVd076xt2
p2
I1
s.(dp0
Vcym9sx6
p1
I1
sVd0c3s4m
p2
I1
s.(dp0
Vcym9sx6
p1
I1
sVd0c4wh5
p2
I1
s.(dp0
Vcym9sx6
p1
I1
sVd0c4wh5
p2
I1
s.(dp0
Vcym9sx6
p1
I1
sVd0c8i0s
p2
I1
s.(dp0
Vcym9sx6
p1
I1
sVd0c9h9y
p2
I1
s.(dp0
Vcym9sx6
p1
I1
sVd0cd836
p2
I1
s.(dp0
Vcym9sx6
p1
I1
sVd0cdvh5
p2
I1
s.(dp0
Vcym9sx6
p1
I1
sVd0cerel
p2
I1
s.(dp0
Vcym9sx6
p1
I1
sVd0cg1y2
p2
I1
s.(dp0
Vcym9sx6
p1
I1
sVd0cgzv9
p2
I1
s.(dp0
Vcym9sx6
p1
I1
sVd0cknhy
p2
I1
s.(dp0
Vcym9sx6
p1
I1
sVd0cngqg
p2
I1
s.(dp0
Vcym9sx6
p1
I1
sVd0cpa7r
p2
I1
s.(dp0
Vcym9sx6
p1
I1
sVd0cr4w7
p2
I1
s.(dp0
Vcym9sx6
p1
I1
sVd0cryhi
p2
I1
s.(dp0
Vcym9sx6
p1
I1
sVd0cryhi
p2
I1
s.(dp0
Vcym9sx6
p1
I1
sVd0cryhi
p2
I1
s.(dp0
Vcym9sx6
p1
I1
sVd0cvmfu
p2
I1
s.(dp0
Vcym9sx6
p1
I1
sVd0cxujv
p2
I1
s.(dp0
Vcym9sx6
p1
I1
sVd0ew2js
p2
I1
s.(dp0
Vcym9sx6
p1
I1
sVd0lvu2b
p2
I1
s.(dp0
Vcym9sx6
p1
I1
sVd0tr31a
p2
I1
s.(dp0
Vcym9sx6
p1
I1
sVd13qv9b
p2
I1
s.(dp0
Vcym9sx6
p1
I1
sVd18ufg9
p2
I1
s.(dp0
Vcym9sx6
p1
I1
sVd1fg1d8
p2
I1
s.(dp0
Vcym9sx6
p1
I1
sVd1kqzfm
p2
I1
s.(dp0
Vcym9sx6
p1
I1
sVd260hjv
p2
I1
s.(dp0
Vcym9sx6
p1
I1
sVd26htcw
p2
I1
s.(dp0
Vcym9sx6
p1
I1
sVd2bg6re
p2
I1
s.(dp0
Vcym9sx6
p1
I1
sVd2iq6mq
p2
I1
s.(dp0
Vcym9sx6
p1
I1
sVd2p8og7
p2
I1
s.(dp0
Vcym9sx6
p1
I1
sVd2q97w0
p2
I1
s.(dp0
Vcym9sx6
p1
I1
sVd2uwxhn
p2
I1
s.(dp0
Vcym9sx6
p1
I1
sVd339xl3
p2
I1
s.(dp0
Vcym9sx6
p1
I1
sVd33v9ik
p2
I1
s.(dp0
Vcym9sx6
p1
I1
sVd367ufp
p2
I1
s.(dp0
Vcym9sx6
p1
I1
sVd3e9dbc
p2
I1
s.(dp0
Vcym9sx6
p1
I1
sVd3jr9b4
p2
I1
s.(dp0
Vcym9sx6
p1
I1
sVd3psxxn
p2
I1
s.(dp0
Vcym9sx6
p1
I1
sVd3psxxn
p2
I1
s.(dp0
Vcym9sx6
p1
I1
sVd3rqc60
p2
I1
s.(dp0
Vcym9sx6
p1
I1
sVd3tav43
p2
I1
s.(dp0
Vcym9sx6
p1
I1
sVd3wl83x
p2
I1
s.(dp0
Vcym9sx6
p1
I1
sVd3znsk3
p2
I1
s.(dp0
Vcym9sx6
p1
I1
sVd42lch7
p2
I1
s.(dp0
Vcym9sx6
p1
I1
sVd46tv4g
p2
I1
s.(dp0
Vcym9sx6
p1
I1
sVd4b0w2p
p2
I1
s.(dp0
Vcym9sx6
p1
I1
sVd4hiacb
p2
I1
s.(dp0
Vcym9sx6
p1
I1
sVd4vfslu
p2
I1
s.(dp0
Vcym9sx6
p1
I1
sVd51vura
p2
I1
s.(dp0
Vcym9sx6
p1
I1
sVd59tsgk
p2
I1
s.(dp0
Vcym9sx6
p1
I1
sVd5djj66
p2
I1
s.(dp0
Vcym9sx6
p1
I1
sVd5e79b4
p2
I1
s.(dp0
Vcym9sx6
p1
I1
sVd5mg9z9
p2
I1
s.(dp0
Vcym9sx6
p1
I1
sVd5oz9rd
p2
I1
s.(dp0
Vcym9sx6
p1
I1
sVd63t64k
p2
I1
s.(dp0
Vcym9sx6
p1
I1
sVd67yb33
p2
I1
s.(dp0
Vcym9sx6
p1
I1
sVd692wt7
p2
I1
s.(dp0
Vcym9sx6
p1
I1
sVd6fkfx6
p2
I1
s.(dp0
Vcym9sx6
p1
I1
sVd7gjsjv
p2
I1
s.(dp0
Vcym9sx6
p1
I1
sVd7l3loc
p2
I1
s.(dp0
Vcym9sx6
p1
I1
sVd7qmdlh
p2
I1
s.(dp0
Vcym9sx6
p1
I1
sVd7rdysi
p2
I1
s.(dp0
Vcym9sx6
p1
I1
sVd7rxhvs
p2
I1
s.(dp0
Vcym9sx6
p1
I1
sVd7slg3w
p2
I1
s.(dp0
Vcym9sx6
p1
I1
sVd7slg3w
p2
I1
s.(dp0
Vcym9sx6
p1
I1
sVd922tnl
p2
I1
s.(dp0
Vcym9sx6
p1
I1
sVd922tnl
p2
I1
s.(dp0
Vcym9sx6
p1
I1
sVd9237ka
p2
I1
s.(dp0
Vcym9sx6
p1
I1
sVd9237ka
p2
I1
s.(dp0
Vcym9sx6
p1
I1
sVd92zoyt
p2
I1
s.(dp0
Vcym9sx6
p1
I1
sVd92zoyt
p2
I1
s.(dp0
Vcym9sx6
p1
I1
sVd92zoyt
p2
I1
s.(dp0
Vcym9sx6
p1
I1
sVd935u13
p2
I1
s.(dp0
Vcym9sx6
p1
I1
sVd935u13
p2
I1
s.(dp0
Vcym9sx6
p1
I1
sVd95a1k9
p2
I1
s.(dp0
Vcym9sx6
p1
I1
sVd96ku6o
p2
I1
s.(dp0
Vcym9sx6
p1
I1
sVd9f1jwz
p2
I1
s.(dp0
Vcym9sx6
p1
I1
sVd9qzjw4
p2
I1
s.(dp0
Vcym9sx6
p1
I1
sVd9qzjw4
p2
I1
s.(dp0
Vcym9sx6
p1
I1
sVd9qzjw4
p2
I1
s.(dp0
Vcym9sx6
p1
I1
sVd9v3n5r
p2
I1
s.(dp0
Vcym9sx6
p1
I1
sVdamrnah
p2
I1
s.(dp0
Vcym9sx6
p1
I1
sVdau039z
p2
I1
s.(dp0
Vcym9sx6
p1
I1
sVdb0xyt7
p2
I1
s.(dp0
Vcym9sx6
p1
I1
sVdb7ql7t
p2
I1
s.(dp0
Vcym9sx6
p1
I1
sVdb91o4b
p2
I1
s.(dp0
Vcym9sx6
p1
I1
sVdbblu85
p2
I1
s.(dp0
Vcym9sx6
p1
I1
sVdbep7ie
p2
I1
s.(dp0
Vcym9sx6
p1
I1
sVdbzvh9u
p2
I1
s.(dp0
Vcym9sx6
p1
I1
sVdcaojvo
p2
I1
s.(dp0
Vcym9sx6
p1
I1
sVdcapokf
p2
I1
s.(dp0
Vcym9sx6
p1
I1
sVdcaqm9o
p2
I1
s.(dp0
Vcym9sx6
p1
I1
sVdcasakp
p2
I1
s.(dp0
Vcym9sx6
p1
I1
sVdcau6i9
p2
I1
s.(dp0
Vcym9sx6
p1
I1
sVdcau6i9
p2
I1
s.(dp0
Vcym9sx6
p1
I1
sVdcau6i9
p2
I1
s.(dp0
Vcym9sx6
p1
I1
sVdcau6i9
p2
I1
s.(dp0
Vcym9sx6
p1
I1
sVdcau6i9
p2
I1
s.(dp0
Vcym9sx6
p1
I1
sVdcawxrw
p2
I1
s.(dp0
Vcy(dp0
Vcym9sx6
p1
I1
sVdkn0vc1
p2
I1
s.