(dp0
Vcyhvg8p
p1
I1
s.(dp0
Vcyhvg8p
p1
I1
sVcyhvqem
p2
I1
s.(dp0
Vcyhvg8p
p1
I1
sVcyhx7k2
p2
I1
s.(dp0
Vcyhvg8p
p1
I1
sVcyhzya6
p2
I1
s.(dp0
Vcyhvg8p
p1
I1
sVcyi1wmg
p2
I1
s.(dp0
Vcyhvg8p
p1
I1
sVcyi37si
p2
I1
s.(dp0
Vcyi45ri
p1
I1
sVcyhvg8p
p2
I1
s.(dp0
Vcyhvg8p
p1
I1
sVcyiafxx
p2
I1
s.(dp0
Vcyhvg8p
p1
I1
sVcyibx4m
p2
I1
s.(dp0
Vcyic2bb
p1
I1
sVcyhvg8p
p2
I1
s.(dp0
Vcyhvg8p
p1
I1
sVcyidhp6
p2
I1
s.(dp0
Vcyhvg8p
p1
I1
sVcyieo7r
p2
I1
s.(dp0
Vcyhvg8p
p1
I1
sVcyieo7r
p2
I1
s.(dp0
Vcyhvg8p
p1
I1
sVcyiidqq
p2
I1
s.(dp0
Vcyhvg8p
p1
I1
sVcyijt8r
p2
I1
s.(dp0
Vcyhvg8p
p1
I1
sVcyijt8r
p2
I1
s.(dp0
Vcyhvg8p
p1
I1
sVcyitqh5
p2
I1
s.(dp0
Vcyhvg8p
p1
I1
sVcyj6gxj
p2
I1
s.(dp0
Vcyjd2qp
p1
I1
sVcyhvg8p
p2
I1
s.(dp0
Vcyjn51l
p1
I1
sVcyhvg8p
p2
I1
s.(dp0
Vcyhvg8p
p1
I1
sVcyjp5in
p2
I1
s.(dp0
Vcyhvg8p
p1
I1
sVcyjrfco
p2
I1
s.(dp0
Vcyju54w
p1
I1
sVcyhvg8p
p2
I1
s.(dp0
Vcyjy9wf
p1
I1
sVcyhvg8p
p2
I1
s.(dp0
Vcyk2b8t
p1
I1
sVcyhvg8p
p2
I1
s.(dp0
Vcyhvg8p
p1
I1
sVcyk7i5h
p2
I1
s.(dp0
Vcyhvg8p
p1
I1
sVcyk9gwk
p2
I1
s.(dp0
Vcyhvg8p
p1
I1
sVcykdi3r
p2
I1
s.(dp0
Vcyhvg8p
p1
I1
sVcykhcqr
p2
I1
s.(dp0
Vcyhvg8p
p1
I1
sVcykpkt0
p2
I1
s.(dp0
Vcyhvg8p
p1
I1
sVcyktywf
p2
I1
s.(dp0
Vcyhvg8p
p1
I1
sVcyku4i1
p2
I1
s.(dp0
Vcyhvg8p
p1
I1
sVcyku4i1
p2
I1
s.(dp0
Vcyhvg8p
p1
I1
sVcyku4i1
p2
I1
s.(dp0
Vcyhvg8p
p1
I1
sVcykwkrj
p2
I1
s.(dp0
Vcyhvg8p
p1
I1
sVcyl7pie
p2
I1
s.(dp0
Vcyhvg8p
p1
I1
sVcyl8468
p2
I1
s.(dp0
Vcylh3du
p1
I1
sVcyhvg8p
p2
I1
s.(dp0
Vcylj13x
p1
I1
sVcyhvg8p
p2
I1
s.(dp0
Vcyln1jr
p1
I1
sVcyhvg8p
p2
I1
s.(dp0
Vcyhvg8p
p1
I1
sVcylnrne
p2
I1
s.(dp0
Vcyhvg8p
p1
I1
sVcylqpc7
p2
I1
s.(dp0
Vcyhvg8p
p1
I1
sVcylsicd
p2
I1
s.(dp0
Vcyhvg8p
p1
I1
sVcylsicd
p2
I1
s.(dp0
Vcyhvg8p
p1
I1
sVcylst1k
p2
I1
s.(dp0
Vcyhvg8p
p1
I1
sVcylwu8x
p2
I1
s.(dp0
Vcyhvg8p
p1
I1
sVcylxq6p
p2
I1
s.(dp0
Vcyhvg8p
p1
I1
sVcym3ml9
p2
I1
s.(dp0
Vcyhvg8p
p1
I1
sVcyme235
p2
I1
s.(dp0
Vcyml17k
p1
I1
sVcyhvg8p
p2
I1
s.(dp0
Vcyhvg8p
p1
I1
sVcymok43
p2
I1
s.(dp0
Vcyhvg8p
p1
I1
sVcymutpi
p2
I1
s.(dp0
Vcyn615x
p1
I1
sVcyhvg8p
p2
I1
s.(dp0
Vcyhvg8p
p1
I1
sVcynmwf0
p2
I1
s.(dp0
Vcyhvg8p
p1
I1
sVcynsale
p2
I1
s.(dp0
Vcynunt0
p1
I1
sVcyhvg8p
p2
I1
s.(dp0
Vcyhvg8p
p1
I1
sVcyo16o1
p2
I1
s.(dp0
Vcyhvg8p
p1
I1
sVcyo1dxq
p2
I1
s.(dp0
Vcyhvg8p
p1
I1
sVcyoaona
p2
I1
s.(dp0
Vcyhvg8p
p1
I1
sVcyou59b
p2
I1
s.(dp0
Vcyozkwx
p1
I1
sVcyhvg8p
p2
I1
s.(dp0
Vcyozti0
p1
I1
sVcyhvg8p
p2
I1
s.(dp0
Vcyhvg8p
p1
I1
sVcyp0miq
p2
I1
s.(dp0
Vcyhvg8p
p1
I1
sVcyp0muo
p2
I1
s.(dp0
Vcyhvg8p
p1
I1
sVcyp0muo
p2
I1
s.(dp0
Vcyhvg8p
p1
I1
sVcyp4fn5
p2
I1
s.(dp0
Vcyhvg8p
p1
I1
sVcyp4gxz
p2
I1
s.(dp0
Vcyhvg8p
p1
I1
sVcyp4yn1
p2
I1
s.(dp0
Vcyhvg8p
p1
I1
sVcypccz6
p2
I1
s.(dp0
Vcyhvg8p
p1
I1
sVcypct2j
p2
I1
s.(dp0
Vcypjpe3
p1
I1
sVcyhvg8p
p2
I1
s.(dp0
Vcyhvg8p
p1
I1
sVcypl21t
p2
I1
s.(dp0
Vcyhvg8p
p1
I1
sVcypvorf
p2
I1
s.(dp0
Vcypyhkh
p1
I1
sVcyhvg8p
p2
I1
s.(dp0
Vcyq3km2
p1
I1
sVcyhvg8p
p2
I1
s.(dp0
Vcyq7gao
p1
I1
sVcyhvg8p
p2
I1
s.(dp0
Vcyhvg8p
p1
I1
sVcyqlyug
p2
I1
s.(dp0
Vcyqomwz
p1
I1
sVcyhvg8p
p2
I1
s.(dp0
Vcyqpqwr
p1
I1
sVcyhvg8p
p2
I1
s.(dp0
Vcyqw1rq
p1
I1
sVcyhvg8p
p2
I1
s.(dp0
Vcyhvg8p
p1
I1
sVcyr3e1d
p2
I1
s.(dp0
Vcyhvg8p
p1
I1
sVcyr5qsz
p2
I1
s.(dp0
Vcyhvg8p
p1
I1
sVcyr671m
p2
I1
s.(dp0
Vcyhvg8p
p1
I1
sVcyretg2
p2
I1
s.(dp0
Vcyhvg8p
p1
I1
sVcyrg6mm
p2
I1
s.(dp0
Vcyrjzse
p1
I1
sVcyhvg8p
p2
I1
s.(dp0
Vcyhvg8p
p1
I1
sVcyrmmkv
p2
I1
s.(dp0
Vcyhvg8p
p1
I1
sVcyruqhl
p2
I1
s.(dp0
Vcyhvg8p
p1
I1
sVcys55td
p2
I1
s.(dp0
Vcyhvg8p
p1
I1
sVcys5noc
p2
I1
s.(dp0
Vcys8rtz
p1
I1
sVcyhvg8p
p2
I1
s.(dp0
Vcys8whc
p1
I1
sVcyhvg8p
p2
I1
s.(dp0
Vcysi3t0
p1
I1
sVcyhvg8p
p2
I1
s.(dp0
Vcyhvg8p
p1
I1
sVcysit44
p2
I1
s.(dp0
Vcyhvg8p
p1
I1
sVcyskz0d
p2
I1
s.(dp0
Vcyhvg8p
p1
I1
sVcysmm76
p2
I1
s.(dp0
Vcyhvg8p
p1
I1
sVcyso5gn
p2
I1
s.(dp0
Vcyhvg8p
p1
I1
sVcysp4gu
p2
I1
s.(dp0
Vcyhvg8p
p1
I1
sVcysrcbd
p2
I1
s.(dp0
Vcyhvg8p
p1
I1
sVcysumwu
p2
I1
s.(dp0
Vcyhvg8p
p1
I1
sVcyt4ikc
p2
I1
s.(dp0
Vcyhvg8p
p1
I1
sVcyt79ol
p2
I1
s.(dp0
Vcyhvg8p
p1
I1
sVcytb4zz
p2
I1
s.(dp0
Vcytewxr
p1
I1
sVcyhvg8p
p2
I1
s.(dp0
Vcyhvg8p
p1
I1
sVcytlqfe
p2
I1
s.(dp0
Vcyhvg8p
p1
I1
sVcytqihf
p2
I1
s.(dp0
Vcyhvg8p
p1
I1
sVcytrp61
p2
I1
s.(dp0
Vcyhvg8p
p1
I1
sVcytx6qw
p2
I1
s.(dp0
Vcy(dp0
Vdp58t7g
p1
I1
sVcyhvg8p
p2
I1
s.