(dp0
Vcyoi4hh
p1
I1
s.(dp0
Vcyxo3qe
p1
I1
sVcyoi4hh
p2
I1
s.(dp0
Vcyxo3qe
p1
I1
sVcyoi4hh
p2
I1
s.(dp0
Vczaqih3
p1
I1
sVcyoi4hh
p2
I1
s.(dp0
Vczar5p7
p1
I1
sVcyoi4hh
p2
I1
s.(dp0
Vd00zvqi
p1
I1
sVcyoi4hh
p2
I1
s.(dp0
Vd00zvqi
p1
I1
sVcyoi4hh
p2
I1
s.(dp0
Vd00zvqi
p1
I1
sVcyoi4hh
p2
I1
s.(dp0
Vd00zvqi
p1
I1
sVcyoi4hh
p2
I1
s.(dp0
Vd0329w2
p1
I1
sVcyoi4hh
p2
I1
s.(dp0
Vd03f67u
p1
I1
sVcyoi4hh
p2
I1
s.(dp0
Vd03f67u
p1
I1
sVcyoi4hh
p2
I1
s.(dp0
Vd03f67u
p1
I1
sVcyoi4hh
p2
I1
s.(dp0
Vd03f67u
p1
I1
sVcyoi4hh
p2
I1
s.(dp0
Vd08fecv
p1
I1
sVcyoi4hh
p2
I1
s.(dp0
Vd1gk3ij
p1
I1
sVcyoi4hh
p2
I1
s.(dp0
Vd1lsltm
p1
I1
sVcyoi4hh
p2
I1
s.(dp0
Vd1lsltm
p1
I1
sVcyoi4hh
p2
I1
s.(dp0
Vd1lxpg4
p1
I1
sVcyoi4hh
p2
I1
s.(dp0
Vd1uip20
p1
I1
sVcyoi4hh
p2
I1
s.(dp0
Vd1z05xl
p1
I1
sVcyoi4hh
p2
I1
s.(dp0
Vd2bw0s2
p1
I1
sVcyoi4hh
p2
I1
s.(dp0
Vd2f0t4f
p1
I1
sVcyoi4hh
p2
I1
s.(dp0
Vd2f1nsp
p1
I1
sVcyoi4hh
p2
I1
s.(dp0
Vd2fbj34
p1
I1
sVcyoi4hh
p2
I1
s.(dp0
Vd2pqbuq
p1
I1
sVcyoi4hh
p2
I1
s.(dp0
Vd2u1w1o
p1
I1
sVcyoi4hh
p2
I1
s.(dp0
Vd3b5kt0
p1
I1
sVcyoi4hh
p2
I1
s.(dp0
Vd4lpsum
p1
I1
sVcyoi4hh
p2
I1
s.(dp0
Vd5381wj
p1
I1
sVcyoi4hh
p2
I1
s.(dp0
Vd538abb
p1
I1
sVcyoi4hh
p2
I1
s.(dp0
Vd538abb
p1
I1
sVcyoi4hh
p2
I1
s.(dp0
Vd5537dk
p1
I1
sVcyoi4hh
p2
I1
s.(dp0
Vd62gu8e
p1
I1
sVcyoi4hh
p2
I1
s.(dp0
Vd64ytuy
p1
I1
sVcyoi4hh
p2
I1
s.(dp0
Vd6lgpvv
p1
I1
sVcyoi4hh
p2
I1
s.(dp0
Vd72w7qt
p1
I1
sVcyoi4hh
p2
I1
s.(dp0
Vd7erc34
p1
I1
sVcyoi4hh
p2
I1
s.(dp0
Vd7msm76
p1
I1
sVcyoi4hh
p2
I1
s.(dp0
Vd7r0osb
p1
I1
sVcyoi4hh
p2
I1
s.(dp0
Vd8v84zu
p1
I1
sVcyoi4hh
p2
I1
s.(dp0
Vd8xgxtj
p1
I1
sVcyoi4hh
p2
I1
s.(dp0
Vd9bqsiv
p1
I1
sVcyoi4hh
p2
I1
s.(dp0
Vd9ulgd8
p1
I1
sVcyoi4hh
p2
I1
s.(dp0
Vdaql7ej
p1
I1
sVcyoi4hh
p2
I1
s.(dp0
Vdb13wns
p1
I1
sVcyoi4hh
p2
I1
s.(dp0
Vdb3xgdq
p1
I1
sVcyoi4hh
p2
I1
s.(dp0
Vdc5mmba
p1
I1
sVcyoi4hh
p2
I1
s.(dp0
Vdcekrls
p1
I1
sVcyoi4hh
p2
I1
s.(dp0
Vdcgdot6
p1
I1
sVcyoi4hh
p2
I1
s.(dp0
Vdcghcwv
p1
I1
sVcyoi4hh
p2
I1
s.(dp0
Vdcjfjux
p1
I1
sVcyoi4hh
p2
I1
s.(dp0
Vdcjr76g
p1
I1
sVcyoi4hh
p2
I1
s.(dp0
Vdcpjxge
p1
I1
sVcyoi4hh
p2
I1
s.(dp0
Vdefnq9r
p1
I1
sVcyoi4hh
p2
I1
s.(dp0
Vdefv6fd
p1
I1
sVcyoi4hh
p2
I1
s.(dp0
Vdelmw1b
p1
I1
sVcyoi4hh
p2
I1
s.(dp0
Vdemq9vz
p1
I1
sVcyoi4hh
p2
I1
s.(dp0
Vdetbcyv
p1
I1
sVcyoi4hh
p2
I1
s.(dp0
Vdetwa9n
p1
I1
sVcyoi4hh
p2
I1
s.(dp0
Vdetwa9n
p1
I1
sVcyoi4hh
p2
I1
s.(dp0
Vdetwa9n
p1
I1
sVcyoi4hh
p2
I1
s.(dp0
Vdetwa9n
p1
I1
sVcyoi4hh
p2
I1
s.(dp0
Vdetwa9n
p1
I1
sVcyoi4hh
p2
I1
s.(dp0
Vdetwa9n
p1
I1
sVcyoi4hh
p2
I1
s.(dp0
Vdetxlo3
p1
I1
sVcyoi4hh
p2
I1
s.(dp0
Vdeu14rb
p1
I1
sVcyoi4hh
p2
I1
s.(dp0
Vdeu14rb
p1
I1
sVcyoi4hh
p2
I1
s.(dp0
Vdeu14rb
p1
I1
sVcyoi4hh
p2
I1
s.(dp0
Vdeu14rb
p1
I1
sVcyoi4hh
p2
I1
s.(dp0
Vdeu14rb
p1
I1
sVcyoi4hh
p2
I1
s.(dp0
Vdeuj0ul
p1
I1
sVcyoi4hh
p2
I1
s.(dp0
Vdeul6ky
p1
I1
sVcyoi4hh
p2
I1
s.(dp0
Vdfeyz7w
p1
I1
sVcyoi4hh
p2
I1
s.(dp0
Vdfz7jqw
p1
I1
sVcyoi4hh
p2
I1
s.(dp0
Vdg0kiaw
p1
I1
sVcyoi4hh
p2
I1
s.(dp0
Vdg8xnm8
p1
I1
sVcyoi4hh
p2
I1
s.(dp0
Vdgejbrj
p1
I1
sVcyoi4hh
p2
I1
s.(dp0
Vdgf4wti
p1
I1
sVcyoi4hh
p2
I1
s.(dp0
Vdgf8jmj
p1
I1
sVcyoi4hh
p2
I1
s.(dp0
Vdghlqaz
p1
I1
sVcyoi4hh
p2
I1
s.(dp0
Vdghlqaz
p1
I1
sVcyoi4hh
p2
I1
s.(dp0
Vdgjd7x0
p1
I1
sVcyoi4hh
p2
I1
s.(dp0
Vdgmzz6u
p1
I1
sVcyoi4hh
p2
I1
s.(dp0
Vdgw8xow
p1
I1
sVcyoi4hh
p2
I1
s.(dp0
Vdha98ui
p1
I1
sVcyoi4hh
p2
I1
s.(dp0
Vdhbrj1l
p1
I1
sVcyoi4hh
p2
I1
s.(dp0
Vdhcokxv
p1
I1
sVcyoi4hh
p2
I1
s.(dp0
Vdhcokxv
p1
I1
sVcyoi4hh
p2
I1
s.(dp0
Vdhn7ia9
p1
I1
sVcyoi4hh
p2
I1
s.(dp0
Vdilwqf3
p1
I1
sVcyoi4hh
p2
I1
s.(dp0
Vdip4v5h
p1
I1
sVcyoi4hh
p2
I1
s.(dp0
Vdmxsbeo
p1
I1
sVcyoi4hh
p2
I1
s.(dp0
Vdn1hj1g
p1
I1
sVcyoi4hh
p2
I1
s.(dp0
Vdn1hj1g
p1
I1
sVcyoi4hh
p2
I1
s.(dp0
Vdn2ld4o
p1
I1
sVcyoi4hh
p2
I1
s.(dp0
Vdnboskh
p1
I1
sVcyoi4hh
p2
I1
s.(dp0
Vdnkubfp
p1
I1
sVcyoi4hh
p2
I1
s.(dp0
Vdnqteww
p1
I1
sVcyoi4hh
p2
I1
s.(dp0
Vdnqteww
p1
I1
sVcyoi4hh
p2
I1
s.(dp0
Vdnqteww
p1
I1
sVcyoi4hh
p2
I1
s.(dp0
Vdnqteww
p1
I1
sVcyoi4hh
p2
I1
s.(dp0
Vdnqteww
p1
I1
sVcyoi4hh
p2
I1
s.(dp0
Vdnqteww
p1
I1
sVcyoi4hh
p2
I1
s.(dp0
Vdnsg7qj
p1
I1
sVcyoi4hh
p2
I1
s.(dp0
Vdoeras5
p1
I1
sVcyoi4hh
p2
I1
s.(dp0
Vdoxe4tf
p1
I1
sVcyoi4hh
p2
I1
s.