(dp0
Vcyiic6t
p1
I1
s.(dp0
Vcyiic6t
p1
I2
s.(dp0
Vcyiic6t
p1
I1
sVcyjnhga
p2
I1
s.(dp0
Vcyiic6t
p1
I1
sVcykvzjh
p2
I1
s.(dp0
Vcyiic6t
p1
I1
sVcylycha
p2
I1
s.(dp0
Vcyiic6t
p1
I1
sVcylycha
p2
I1
s.(dp0
Vcyiic6t
p1
I1
sVcymn2pf
p2
I1
s.(dp0
Vcyiic6t
p1
I1
sVcyncjl2
p2
I1
s.(dp0
Vcyiic6t
p1
I1
sVcyno5qm
p2
I1
s.(dp0
Vcyiic6t
p1
I1
sVcynr04f
p2
I1
s.(dp0
Vcyiic6t
p1
I1
sVcynt59j
p2
I1
s.(dp0
Vcyiic6t
p1
I1
sVcypsbqn
p2
I1
s.(dp0
Vcyiic6t
p1
I1
sVcypsu7b
p2
I1
s.(dp0
Vcyiic6t
p1
I1
sVcyqtpoo
p2
I1
s.(dp0
Vcyiic6t
p1
I1
sVcyqupx4
p2
I1
s.(dp0
Vcyiic6t
p1
I1
sVcyr3j3m
p2
I1
s.(dp0
Vcyiic6t
p1
I1
sVcyr6y7x
p2
I1
s.(dp0
Vcyiic6t
p1
I1
sVcyu085m
p2
I1
s.(dp0
Vcyiic6t
p1
I1
sVcyvd4fh
p2
I1
s.(dp0
Vcyiic6t
p1
I1
sVcywjcbp
p2
I1
s.(dp0
Vcyiic6t
p1
I1
sVcyx9elg
p2
I1
s.(dp0
Vcyiic6t
p1
I1
sVcyzbirq
p2
I1
s.(dp0
Vcyiic6t
p1
I1
sVcyzc2um
p2
I1
s.(dp0
Vcyiic6t
p1
I1
sVcz1jgzg
p2
I1
s.(dp0
Vcyiic6t
p1
I1
sVcz1jgzg
p2
I1
s.(dp0
Vcyiic6t
p1
I1
sVcz2o1wf
p2
I1
s.(dp0
Vcyiic6t
p1
I1
sVcz30zxd
p2
I1
s.(dp0
Vcyiic6t
p1
I1
sVcz34ozu
p2
I1
s.(dp0
Vcyiic6t
p1
I1
sVcz3688w
p2
I1
s.(dp0
Vcyiic6t
p1
I1
sVcz3688w
p2
I1
s.(dp0
Vcyiic6t
p1
I1
sVcz51eh4
p2
I1
s.(dp0
Vcyiic6t
p1
I1
sVcz6ojwu
p2
I1
s.(dp0
Vcyiic6t
p1
I1
sVczb6tgt
p2
I1
s.(dp0
Vcyiic6t
p1
I1
sVczbatpg
p2
I1
s.(dp0
Vcyiic6t
p1
I1
sVczbll9p
p2
I1
s.(dp0
Vcyiic6t
p1
I1
sVczbll9p
p2
I1
s.(dp0
Vcyiic6t
p1
I1
sVczbll9p
p2
I1
s.(dp0
Vcyiic6t
p1
I1
sVczc4qai
p2
I1
s.(dp0
Vcyiic6t
p1
I1
sVczehuf5
p2
I1
s.(dp0
Vcyiic6t
p1
I1
sVczg5xr6
p2
I1
s.(dp0
Vcyiic6t
p1
I1
sVczmdhom
p2
I1
s.(dp0
Vcyiic6t
p1
I1
sVczn9qb9
p2
I1
s.(dp0
Vcyiic6t
p1
I1
sVczns8ty
p2
I1
s.(dp0
Vcyiic6t
p1
I1
sVcznwhao
p2
I1
s.(dp0
Vcyiic6t
p1
I1
sVcztjt2z
p2
I1
s.(dp0
Vcyiic6t
p1
I1
sVczu28o3
p2
I1
s.(dp0
Vcyiic6t
p1
I1
sVczv1i7h
p2
I1
s.(dp0
Vcyiic6t
p1
I1
sVczvoy3c
p2
I1
s.(dp0
Vcyiic6t
p1
I1
sVczwadjl
p2
I1
s.(dp0
Vcyiic6t
p1
I1
sVczxssm3
p2
I1
s.(dp0
Vcyiic6t
p1
I1
sVczxw4nm
p2
I1
s.(dp0
Vcyiic6t
p1
I1
sVczyxn5m
p2
I1
s.(dp0
Vcyiic6t
p1
I1
sVczz955e
p2
I1
s.(dp0
Vcyiic6t
p1
I1
sVd01346e
p2
I1
s.(dp0
Vcyiic6t
p1
I1
sVd018nkq
p2
I1
s.(dp0
Vcyiic6t
p1
I1
sVd018nkq
p2
I1
s.(dp0
Vcyiic6t
p1
I1
sVd024xjm
p2
I1
s.(dp0
Vcyiic6t
p1
I1
sVd029xti
p2
I1
s.(dp0
Vcyiic6t
p1
I1
sVd02z6vi
p2
I1
s.(dp0
Vcyiic6t
p1
I1
sVd03fy4i
p2
I1
s.(dp0
Vcyiic6t
p1
I1
sVd03fy4i
p2
I1
s.(dp0
Vcyiic6t
p1
I1
sVd04maiy
p2
I1
s.(dp0
Vcyiic6t
p1
I1
sVd05mwzp
p2
I1
s.(dp0
Vcyiic6t
p1
I1
sVd065b0z
p2
I1
s.(dp0
Vcyiic6t
p1
I1
sVd066l41
p2
I1
s.(dp0
Vcyiic6t
p1
I1
sVd08qa9g
p2
I1
s.(dp0
Vcyiic6t
p1
I1
sVd08rb9f
p2
I1
s.(dp0
Vcyiic6t
p1
I1
sVd09bb25
p2
I1
s.(dp0
Vcyiic6t
p1
I1
sVd09bb25
p2
I1
s.(dp0
Vcyiic6t
p1
I1
sVd09bb25
p2
I1
s.(dp0
Vcyiic6t
p1
I1
sVd09bb25
p2
I1
s.(dp0
Vcyiic6t
p1
I1
sVd0bz4yo
p2
I1
s.(dp0
Vcyiic6t
p1
I1
sVd0dxqbg
p2
I1
s.(dp0
Vcyiic6t
p1
I1
sVd0h4z3z
p2
I1
s.(dp0
Vcyiic6t
p1
I1
sVd0iuux5
p2
I1
s.(dp0
Vcyiic6t
p1
I1
sVd0lkg8d
p2
I1
s.(dp0
Vcyiic6t
p1
I1
sVd0mj7vt
p2
I1
s.(dp0
Vcyiic6t
p1
I1
sVd0naw0m
p2
I1
s.(dp0
Vcyiic6t
p1
I1
sVd0naw0m
p2
I1
s.(dp0
Vcyiic6t
p1
I1
sVd0naw0m
p2
I1
s.(dp0
Vcyiic6t
p1
I1
sVd0pchrx
p2
I1
s.(dp0
Vcyiic6t
p1
I1
sVd0pfipe
p2
I1
s.(dp0
Vcyiic6t
p1
I1
sVd0pgsq4
p2
I1
s.(dp0
Vcyiic6t
p1
I1
sVd0pz7yk
p2
I1
s.(dp0
Vcyiic6t
p1
I1
sVd0pz7yk
p2
I1
s.(dp0
Vcyiic6t
p1
I1
sVd0qxhu4
p2
I1
s.(dp0
Vcyiic6t
p1
I1
sVd0v601t
p2
I1
s.(dp0
Vcyiic6t
p1
I1
sVd0vx8hq
p2
I1
s.(dp0
Vcyiic6t
p1
I1
sVd0zr6ke
p2
I1
s.(dp0
Vcyiic6t
p1
I1
sVd10cqmm
p2
I1
s.(dp0
Vcyiic6t
p1
I1
sVd10ewz4
p2
I1
s.(dp0
Vcyiic6t
p1
I1
sVd10ewz4
p2
I1
s.(dp0
Vcyiic6t
p1
I1
sVd11vuug
p2
I1
s.(dp0
Vcyiic6t
p1
I1
sVd13rxtj
p2
I1
s.(dp0
Vcyiic6t
p1
I1
sVd1453xm
p2
I1
s.(dp0
Vcyiic6t
p1
I1
sVd14apb2
p2
I1
s.(dp0
Vcyiic6t
p1
I1
sVd14apb2
p2
I1
s.(dp0
Vcyiic6t
p1
I1
sVd14osf2
p2
I1
s.(dp0
Vcyiic6t
p1
I1
sVd18yds6
p2
I1
s.(dp0
Vcyiic6t
p1
I1
sVd19cuz7
p2
I1
s.(dp0
Vcyiic6t
p1
I1
sVd19e1rq
p2
I1
s.(dp0
Vcyiic6t
p1
I1
sVd19e1rq
p2
I1
s.(dp0
Vcyiic6t
p1
I1
sVd1bnyi1
p2
I1
s.(dp0
Vcyiic6t
p1
I1
sVd1c2uzw
p2
I1
s.(dp0
Vcyiic6t
p1
I1
sVd1d9mzn
p2
I1
s.(dp0
Vcyiic6t
p1
I1
sVd1h1dn7
p2
I1
s.(dp0
Vcyiic6t
p1
I1
sVd1j6lxz
p2
I1
s.(dp0
Vcyiic6t
p1
I1
sVd1joicw
p2
I1
s.(dp0
Vcyiic6t
p1
I1
sVd1(dp0
Vcyiic6t
p1
I1
sVdp3r9vi
p2
I1
s.