(dp0
Vcyj4ekn
p1
I1
s.(dp0
Vcyo2xw9
p1
I1
sVcyj4ekn
p2
I1
s.(dp0
Vcyp81ja
p1
I1
sVcyj4ekn
p2
I1
s.(dp0
Vcytxbb5
p1
I1
sVcyj4ekn
p2
I1
s.(dp0
Vcyw32iv
p1
I1
sVcyj4ekn
p2
I1
s.(dp0
Vcz2l1or
p1
I1
sVcyj4ekn
p2
I1
s.(dp0
Vczc990e
p1
I1
sVcyj4ekn
p2
I1
s.(dp0
Vcze3asi
p1
I1
sVcyj4ekn
p2
I1
s.(dp0
Vczeili1
p1
I1
sVcyj4ekn
p2
I1
s.(dp0
Vczfgmd3
p1
I1
sVcyj4ekn
p2
I1
s.(dp0
Vczj6pgu
p1
I1
sVcyj4ekn
p2
I1
s.(dp0
Vczl9k01
p1
I1
sVcyj4ekn
p2
I1
s.(dp0
Vczlwlaf
p1
I1
sVcyj4ekn
p2
I1
s.(dp0
Vczwz8j6
p1
I1
sVcyj4ekn
p2
I1
s.(dp0
Vczznpyv
p1
I1
sVcyj4ekn
p2
I1
s.(dp0
Vd01u4oc
p1
I1
sVcyj4ekn
p2
I1
s.(dp0
Vd020qv2
p1
I1
sVcyj4ekn
p2
I1
s.(dp0
Vd0nttqa
p1
I1
sVcyj4ekn
p2
I1
s.(dp0
Vd0v335j
p1
I1
sVcyj4ekn
p2
I1
s.(dp0
Vd0wtou9
p1
I1
sVcyj4ekn
p2
I1
s.(dp0
Vd0zez3q
p1
I1
sVcyj4ekn
p2
I1
s.(dp0
Vd123drk
p1
I1
sVcyj4ekn
p2
I1
s.(dp0
Vd12sjwg
p1
I1
sVcyj4ekn
p2
I1
s.(dp0
Vd15nbqv
p1
I1
sVcyj4ekn
p2
I1
s.(dp0
Vd1ij9gs
p1
I1
sVcyj4ekn
p2
I1
s.(dp0
Vd1k6sxz
p1
I1
sVcyj4ekn
p2
I1
s.(dp0
Vd1pyfat
p1
I1
sVcyj4ekn
p2
I1
s.(dp0
Vd1sv0mi
p1
I1
sVcyj4ekn
p2
I1
s.(dp0
Vd2in6l0
p1
I1
sVcyj4ekn
p2
I1
s.(dp0
Vd2in6l0
p1
I1
sVcyj4ekn
p2
I1
s.(dp0
Vd2nf248
p1
I1
sVcyj4ekn
p2
I1
s.(dp0
Vd2tebfr
p1
I1
sVcyj4ekn
p2
I1
s.(dp0
Vd2uviua
p1
I1
sVcyj4ekn
p2
I1
s.(dp0
Vd2uviua
p1
I1
sVcyj4ekn
p2
I1
s.(dp0
Vd3kr3iw
p1
I1
sVcyj4ekn
p2
I1
s.(dp0
Vd3wud8e
p1
I1
sVcyj4ekn
p2
I1
s.(dp0
Vd4fb9ty
p1
I1
sVcyj4ekn
p2
I1
s.(dp0
Vd4rilba
p1
I1
sVcyj4ekn
p2
I1
s.(dp0
Vd4szh2k
p1
I1
sVcyj4ekn
p2
I1
s.(dp0
Vd4szh2k
p1
I1
sVcyj4ekn
p2
I1
s.(dp0
Vd56t5wr
p1
I1
sVcyj4ekn
p2
I1
s.(dp0
Vd58ejm0
p1
I1
sVcyj4ekn
p2
I1
s.(dp0
Vd5cmd3p
p1
I1
sVcyj4ekn
p2
I1
s.(dp0
Vd5cmd3p
p1
I1
sVcyj4ekn
p2
I1
s.(dp0
Vd5j5hb9
p1
I1
sVcyj4ekn
p2
I1
s.(dp0
Vd5xq7tl
p1
I1
sVcyj4ekn
p2
I1
s.(dp0
Vd68rd2w
p1
I1
sVcyj4ekn
p2
I1
s.(dp0
Vd6fzeuh
p1
I1
sVcyj4ekn
p2
I1
s.(dp0
Vd72743i
p1
I1
sVcyj4ekn
p2
I1
s.(dp0
Vd736ggk
p1
I1
sVcyj4ekn
p2
I1
s.(dp0
Vd779fqi
p1
I1
sVcyj4ekn
p2
I1
s.(dp0
Vd7am4it
p1
I1
sVcyj4ekn
p2
I1
s.(dp0
Vd7am4it
p1
I1
sVcyj4ekn
p2
I1
s.(dp0
Vd7ekx2j
p1
I1
sVcyj4ekn
p2
I1
s.(dp0
Vd7fulky
p1
I1
sVcyj4ekn
p2
I1
s.(dp0
Vd7immey
p1
I1
sVcyj4ekn
p2
I1
s.(dp0
Vd836o97
p1
I1
sVcyj4ekn
p2
I1
s.(dp0
Vd8t6itp
p1
I1
sVcyj4ekn
p2
I1
s.(dp0
Vd8xqcj1
p1
I1
sVcyj4ekn
p2
I1
s.(dp0
Vd8z89lz
p1
I1
sVcyj4ekn
p2
I1
s.(dp0
Vd8zzo0w
p1
I1
sVcyj4ekn
p2
I1
s.(dp0
Vd91kqvu
p1
I1
sVcyj4ekn
p2
I1
s.(dp0
Vd95nwt8
p1
I1
sVcyj4ekn
p2
I1
s.(dp0
Vd96yfsy
p1
I1
sVcyj4ekn
p2
I1
s.(dp0
Vda3czv2
p1
I1
sVcyj4ekn
p2
I1
s.(dp0
Vda5d5gw
p1
I1
sVcyj4ekn
p2
I1
s.(dp0
Vda7gbz4
p1
I1
sVcyj4ekn
p2
I1
s.(dp0
Vdaecysd
p1
I1
sVcyj4ekn
p2
I1
s.(dp0
Vdb3ncy8
p1
I1
sVcyj4ekn
p2
I1
s.(dp0
Vdb7vnfo
p1
I1
sVcyj4ekn
p2
I1
s.(dp0
Vdb8edcq
p1
I1
sVcyj4ekn
p2
I1
s.(dp0
Vdb8enmp
p1
I1
sVcyj4ekn
p2
I1
s.(dp0
Vdbl38vh
p1
I1
sVcyj4ekn
p2
I1
s.(dp0
Vdbs4g4n
p1
I1
sVcyj4ekn
p2
I1
s.(dp0
Vdbsfjx3
p1
I1
sVcyj4ekn
p2
I1
s.(dp0
Vdbtlljc
p1
I1
sVcyj4ekn
p2
I1
s.(dp0
Vdbxut9e
p1
I1
sVcyj4ekn
p2
I1
s.(dp0
Vdc0ujzk
p1
I1
sVcyj4ekn
p2
I1
s.(dp0
Vdc5h3ev
p1
I1
sVcyj4ekn
p2
I1
s.(dp0
Vdcauo5u
p1
I1
sVcyj4ekn
p2
I1
s.(dp0
Vdclb4hq
p1
I1
sVcyj4ekn
p2
I1
s.(dp0
Vdcq6ede
p1
I1
sVcyj4ekn
p2
I1
s.(dp0
Vdcq6ede
p1
I1
sVcyj4ekn
p2
I1
s.(dp0
Vdcy57zp
p1
I1
sVcyj4ekn
p2
I1
s.(dp0
Vdcz32hz
p1
I1
sVcyj4ekn
p2
I1
s.(dp0
Vdd2aw0x
p1
I1
sVcyj4ekn
p2
I1
s.(dp0
Vddc624b
p1
I1
sVcyj4ekn
p2
I1
s.(dp0
Vddf14y3
p1
I1
sVcyj4ekn
p2
I1
s.(dp0
Vddgo3w3
p1
I1
sVcyj4ekn
p2
I1
s.(dp0
Vddl304e
p1
I1
sVcyj4ekn
p2
I1
s.(dp0
Vddn0452
p1
I1
sVcyj4ekn
p2
I1
s.(dp0
Vddn7ulz
p1
I1
sVcyj4ekn
p2
I1
s.(dp0
Vddpwqeh
p1
I1
sVcyj4ekn
p2
I1
s.(dp0
Vddrkha2
p1
I1
sVcyj4ekn
p2
I1
s.(dp0
Vddv1m0i
p1
I1
sVcyj4ekn
p2
I1
s.(dp0
Vde45bdi
p1
I1
sVcyj4ekn
p2
I1
s.(dp0
Vde45bdi
p1
I1
sVcyj4ekn
p2
I1
s.(dp0
Vde8hpxv
p1
I1
sVcyj4ekn
p2
I1
s.(dp0
Vde8hpxv
p1
I1
sVcyj4ekn
p2
I1
s.(dp0
Vdefentr
p1
I1
sVcyj4ekn
p2
I1
s.(dp0
Vdei2uae
p1
I1
sVcyj4ekn
p2
I1
s.(dp0
Vdemzdrt
p1
I1
sVcyj4ekn
p2
I1
s.(dp0
Vdewvl90
p1
I1
sVcyj4ekn
p2
I1
s.(dp0
Vdexxxg2
p1
I1
sVcyj4ekn
p2
I1
s.(dp0
Vdfawgsp
p1
I1
sVcyj4ekn
p2
I1
s.(dp0
Vdfawgsp
p1
I1
sVcyj4ekn
p2
I1
s.(dp0
Vdfd86ud
p1
I1
sVcyj4ekn
p2
I1
s.(dp0
Vdfls5pr
p1
I1
sVcyj4ekn
p2
I1
s.(dp0
Vdf(dp0
Vdkyr8zs
p1
I1
sVcyj4ekn
p2
I1
s.