(dp0
Vcyja0ip
p1
I1
s.(dp0
Vcyja0ip
p1
I2
s.(dp0
Vcyja0ip
p1
I2
s.(dp0
Vcyja0ip
p1
I1
sVcykdx77
p2
I1
s.(dp0
Vcyja0ip
p1
I1
sVcykdx77
p2
I1
s.(dp0
Vcyja0ip
p1
I1
sVcykdx77
p2
I1
s.(dp0
Vcz5bm5u
p1
I1
sVcyja0ip
p2
I1
s.(dp0
Vczay04p
p1
I1
sVcyja0ip
p2
I1
s.(dp0
Vcyja0ip
p1
I1
sVd0ykggx
p2
I1
s.(dp0
Vd0zdhrq
p1
I1
sVcyja0ip
p2
I1
s.(dp0
Vcyja0ip
p1
I1
sVd1dxi3n
p2
I1
s.(dp0
Vcyja0ip
p1
I1
sVd1g6ahs
p2
I1
s.(dp0
Vd1l27b6
p1
I1
sVcyja0ip
p2
I1
s.(dp0
Vd1l27b6
p1
I1
sVcyja0ip
p2
I1
s.(dp0
Vcyja0ip
p1
I1
sVd1utwsy
p2
I1
s.(dp0
Vd2bflq2
p1
I1
sVcyja0ip
p2
I1
s.(dp0
Vcyja0ip
p1
I1
sVd2gw2oz
p2
I1
s.(dp0
Vcyja0ip
p1
I1
sVd2jy6f2
p2
I1
s.(dp0
Vcyja0ip
p1
I1
sVd2pzmfg
p2
I1
s.(dp0
Vd30pf2m
p1
I1
sVcyja0ip
p2
I1
s.(dp0
Vd3dlrev
p1
I1
sVcyja0ip
p2
I1
s.(dp0
Vd405rxk
p1
I1
sVcyja0ip
p2
I1
s.(dp0
Vd4giq0a
p1
I1
sVcyja0ip
p2
I1
s.(dp0
Vd5q4b77
p1
I1
sVcyja0ip
p2
I1
s.(dp0
Vd643888
p1
I1
sVcyja0ip
p2
I1
s.(dp0
Vcyja0ip
p1
I1
sVd6gmvsg
p2
I1
s.(dp0
Vd6wo17c
p1
I1
sVcyja0ip
p2
I1
s.(dp0
Vcyja0ip
p1
I1
sVd79xph2
p2
I1
s.(dp0
Vcyja0ip
p1
I1
sVd8e8u8t
p2
I1
s.(dp0
Vcyja0ip
p1
I1
sVd8gdozn
p2
I1
s.(dp0
Vd8hazoe
p1
I1
sVcyja0ip
p2
I1
s.(dp0
Vd8hazoe
p1
I1
sVcyja0ip
p2
I1
s.(dp0
Vd98zm8o
p1
I1
sVcyja0ip
p2
I1
s.(dp0
Vcyja0ip
p1
I1
sVdb7h5rv
p2
I1
s.(dp0
Vcyja0ip
p1
I1
sVdb93fgw
p2
I1
s.(dp0
Vcyja0ip
p1
I1
sVdbck0h9
p2
I1
s.(dp0
Vdc6jy3v
p1
I1
sVcyja0ip
p2
I1
s.(dp0
Vcyja0ip
p1
I1
sVdco17u3
p2
I1
s.(dp0
Vdcsz32f
p1
I1
sVcyja0ip
p2
I1
s.(dp0
Vdd3fql5
p1
I1
sVcyja0ip
p2
I1
s.(dp0
Vcyja0ip
p1
I1
sVddvpkbn
p2
I1
s.(dp0
Vcyja0ip
p1
I1
sVde6u99f
p2
I1
s.(dp0
Vcyja0ip
p1
I1
sVded8erf
p2
I1
s.(dp0
Vdegtsk2
p1
I1
sVcyja0ip
p2
I1
s.(dp0
Vdehmlta
p1
I1
sVcyja0ip
p2
I1
s.(dp0
Vcyja0ip
p1
I1
sVdelgh3b
p2
I1
s.(dp0
Vdem0ml2
p1
I1
sVcyja0ip
p2
I1
s.(dp0
Vdenfsl7
p1
I1
sVcyja0ip
p2
I1
s.(dp0
Vdenfsl7
p1
I1
sVcyja0ip
p2
I1
s.(dp0
Vcyja0ip
p1
I1
sVdeuu8ap
p2
I1
s.(dp0
Vcyja0ip
p1
I1
sVdf0wgfb
p2
I1
s.(dp0
Vdfld6ap
p1
I1
sVcyja0ip
p2
I1
s.(dp0
Vdfviupy
p1
I1
sVcyja0ip
p2
I1
s.(dp0
Vdgf0lzm
p1
I1
sVcyja0ip
p2
I1
s.(dp0
Vdgnhn9m
p1
I1
sVcyja0ip
p2
I1
s.(dp0
Vdgo9azm
p1
I1
sVcyja0ip
p2
I1
s.(dp0
Vdgo9azm
p1
I1
sVcyja0ip
p2
I1
s.(dp0
Vcyja0ip
p1
I1
sVdi261x2
p2
I1
s.(dp0
Vcyja0ip
p1
I1
sVdimom1x
p2
I1
s.(dp0
Vcyja0ip
p1
I1
sVdimom1x
p2
I1
s.(dp0
Vdiux0e5
p1
I1
sVcyja0ip
p2
I1
s.(dp0
Vdkb2t5f
p1
I1
sVcyja0ip
p2
I1
s.