(dp0
Vcylh3du
p1
I1
s.(dp0
Vcylh3du
p1
I1
sVcymgbga
p2
I1
s.(dp0
Vcyr9cpa
p1
I1
sVcylh3du
p2
I1
s.(dp0
Vcylh3du
p1
I1
sVcyu2ql2
p2
I1
s.(dp0
Vcylh3du
p1
I1
sVcyycrq9
p2
I1
s.(dp0
Vcylh3du
p1
I1
sVcz146nc
p2
I1
s.(dp0
Vcylh3du
p1
I1
sVczgh8p6
p2
I1
s.(dp0
Vczk93n3
p1
I1
sVcylh3du
p2
I1
s.(dp0
Vcylh3du
p1
I1
sVczurviu
p2
I1
s.(dp0
Vcylh3du
p1
I1
sVczxebod
p2
I1
s.(dp0
Vczzxwov
p1
I1
sVcylh3du
p2
I1
s.(dp0
Vd05jji1
p1
I1
sVcylh3du
p2
I1
s.(dp0
Vd08he1y
p1
I1
sVcylh3du
p2
I1
s.(dp0
Vcylh3du
p1
I1
sVd0aupon
p2
I1
s.(dp0
Vcylh3du
p1
I1
sVd0iy60x
p2
I1
s.(dp0
Vd0naw0m
p1
I1
sVcylh3du
p2
I1
s.(dp0
Vd0naw0m
p1
I1
sVcylh3du
p2
I1
s.(dp0
Vd0naw0m
p1
I1
sVcylh3du
p2
I1
s.(dp0
Vcylh3du
p1
I1
sVd10ds1f
p2
I1
s.(dp0
Vcylh3du
p1
I1
sVd10ds1f
p2
I1
s.(dp0
Vd12t86h
p1
I1
sVcylh3du
p2
I1
s.(dp0
Vd12t86h
p1
I1
sVcylh3du
p2
I1
s.(dp0
Vcylh3du
p1
I1
sVd14nqlx
p2
I1
s.(dp0
Vcylh3du
p1
I1
sVd1kuxu2
p2
I1
s.(dp0
Vcylh3du
p1
I1
sVd1s75a1
p2
I1
s.(dp0
Vcylh3du
p1
I1
sVd1sevaz
p2
I1
s.(dp0
Vcylh3du
p1
I1
sVd1slaw6
p2
I1
s.(dp0
Vcylh3du
p1
I1
sVd1slaw6
p2
I1
s.(dp0
Vd1tthg1
p1
I1
sVcylh3du
p2
I1
s.(dp0
Vcylh3du
p1
I1
sVd1vdc7m
p2
I1
s.(dp0
Vcylh3du
p1
I1
sVd1wrmvk
p2
I1
s.(dp0
Vcylh3du
p1
I1
sVd25lk67
p2
I1
s.(dp0
Vcylh3du
p1
I1
sVd2bm3t3
p2
I1
s.(dp0
Vcylh3du
p1
I1
sVd2j0sdl
p2
I1
s.(dp0
Vcylh3du
p1
I1
sVd2n9y95
p2
I1
s.(dp0
Vcylh3du
p1
I1
sVd316jwr
p2
I1
s.(dp0
Vcylh3du
p1
I1
sVd32u2th
p2
I1
s.(dp0
Vcylh3du
p1
I1
sVd348vzd
p2
I1
s.(dp0
Vcylh3du
p1
I1
sVd3e3scw
p2
I1
s.(dp0
Vcylh3du
p1
I1
sVd3hfjx9
p2
I1
s.(dp0
Vcylh3du
p1
I1
sVd3oc4k4
p2
I1
s.(dp0
Vd3p592z
p1
I1
sVcylh3du
p2
I1
s.(dp0
Vcylh3du
p1
I1
sVd3qof1e
p2
I1
s.(dp0
Vcylh3du
p1
I1
sVd3z6v8g
p2
I1
s.(dp0
Vcylh3du
p1
I1
sVd4pm5io
p2
I1
s.(dp0
Vcylh3du
p1
I1
sVd4portu
p2
I1
s.(dp0
Vcylh3du
p1
I1
sVd4s25u8
p2
I1
s.(dp0
Vcylh3du
p1
I1
sVd54vw4z
p2
I1
s.(dp0
Vcylh3du
p1
I1
sVd5dos71
p2
I1
s.(dp0
Vcylh3du
p1
I1
sVd5sr0jn
p2
I1
s.(dp0
Vcylh3du
p1
I1
sVd63x24n
p2
I1
s.(dp0
Vd6dvbxm
p1
I1
sVcylh3du
p2
I1
s.(dp0
Vcylh3du
p1
I1
sVd6v9hfq
p2
I1
s.(dp0
Vcylh3du
p1
I1
sVd6wafp8
p2
I1
s.(dp0
Vd71gz0h
p1
I1
sVcylh3du
p2
I1
s.(dp0
Vcylh3du
p1
I1
sVd72cgse
p2
I1
s.(dp0
Vcylh3du
p1
I1
sVd73g3lv
p2
I1
s.(dp0
Vcylh3du
p1
I1
sVd79rkul
p2
I1
s.(dp0
Vd7h1hej
p1
I1
sVcylh3du
p2
I1
s.(dp0
Vcylh3du
p1
I1
sVd7n9ahk
p2
I1
s.(dp0
Vd7seblp
p1
I1
sVcylh3du
p2
I1
s.(dp0
Vcylh3du
p1
I1
sVd7shvbc
p2
I1
s.(dp0
Vcylh3du
p1
I1
sVd7t9mr5
p2
I1
s.(dp0
Vcylh3du
p1
I1
sVd82yee8
p2
I1
s.(dp0
Vcylh3du
p1
I1
sVd84bjv7
p2
I1
s.(dp0
Vd87pxgu
p1
I1
sVcylh3du
p2
I1
s.(dp0
Vcylh3du
p1
I1
sVd8ldd51
p2
I1
s.(dp0
Vcylh3du
p1
I1
sVd8lqcg8
p2
I1
s.(dp0
Vcylh3du
p1
I1
sVd8mp9la
p2
I1
s.(dp0
Vcylh3du
p1
I1
sVd8mp9la
p2
I1
s.(dp0
Vcylh3du
p1
I1
sVd8sgh9s
p2
I1
s.(dp0
Vcylh3du
p1
I1
sVd8wpz12
p2
I1
s.(dp0
Vcylh3du
p1
I1
sVd96plvo
p2
I1
s.(dp0
Vcylh3du
p1
I1
sVd9bzk6o
p2
I1
s.(dp0
Vcylh3du
p1
I1
sVd9cwwzb
p2
I1
s.(dp0
Vd9dcok7
p1
I1
sVcylh3du
p2
I1
s.(dp0
Vcylh3du
p1
I1
sVd9noe3t
p2
I1
s.(dp0
Vcylh3du
p1
I1
sVd9yfs2k
p2
I1
s.(dp0
Vcylh3du
p1
I1
sVda00fa6
p2
I1
s.(dp0
Vcylh3du
p1
I1
sVda0dx3p
p2
I1
s.(dp0
Vcylh3du
p1
I1
sVda4fvwf
p2
I1
s.(dp0
Vcylh3du
p1
I1
sVdaa3nx4
p2
I1
s.(dp0
Vcylh3du
p1
I1
sVdaabb14
p2
I1
s.(dp0
Vcylh3du
p1
I1
sVdaj1gp4
p2
I1
s.(dp0
Vcylh3du
p1
I1
sVdavdw0c
p2
I1
s.(dp0
Vcylh3du
p1
I1
sVdaw4yd8
p2
I1
s.(dp0
Vcylh3du
p1
I1
sVdaymivp
p2
I1
s.(dp0
Vcylh3du
p1
I1
sVdb2o2qv
p2
I1
s.(dp0
Vcylh3du
p1
I1
sVdb4y6if
p2
I1
s.(dp0
Vcylh3du
p1
I1
sVdb4y6if
p2
I1
s.(dp0
Vcylh3du
p1
I1
sVdb5atms
p2
I1
s.(dp0
Vcylh3du
p1
I1
sVdb5bcwe
p2
I1
s.(dp0
Vcylh3du
p1
I1
sVdbes36d
p2
I1
s.(dp0
Vcylh3du
p1
I1
sVdbswzb0
p2
I1
s.(dp0
Vcylh3du
p1
I1
sVdbux9vf
p2
I1
s.(dp0
Vcylh3du
p1
I1
sVdbyqr87
p2
I1
s.(dp0
Vcylh3du
p1
I1
sVdc2ybm7
p2
I1
s.(dp0
Vcylh3du
p1
I1
sVdcc55ip
p2
I1
s.(dp0
Vcylh3du
p1
I1
sVdcp8wf3
p2
I1
s.(dp0
Vdcsicar
p1
I1
sVcylh3du
p2
I1
s.(dp0
Vcylh3du
p1
I1
sVdcv56cw
p2
I1
s.(dp0
Vcylh3du
p1
I1
sVdcxcegj
p2
I1
s.(dp0
Vcylh3du
p1
I1
sVdd72nj8
p2
I1
s.(dp0
Vcylh3du
p1
I1
sVddfkkwi
p2
I1
s.(dp0
Vcylh3du
p1
I1
sVddguhx0
p2
I1
s.(dp0
Vcylh3du
p1
I1
sVddpo2ia
p2
I1
s.(dp0
Vcylh3du
p1
I1
sVde0wyk5
p2
I1
s.(dp0
Vcylh3du
p1
I1
sVde670b0
p2
I1
s.(dp0
Vcy(dp0
Vcylh3du
p1
I1
sVdkk2sws
p2
I1
s.