(dp0
Vd3rrvsh
p1
I1
s.(dp0
Vd3rrvsh
p1
I1
sVd3rryw2
p2
I1
s.(dp0
Vd3rrvsh
p1
I1
sVd3rryw2
p2
I1
s.(dp0
Vd3rrvsh
p1
I1
sVd44g280
p2
I1
s.(dp0
Vd3rrvsh
p1
I1
sVd7kc98u
p2
I1
s.(dp0
Vd3rrvsh
p1
I1
sVd7pg3n5
p2
I1
s.(dp0
Vd3rrvsh
p1
I1
sVd7ykpvy
p2
I1
s.(dp0
Vd3rrvsh
p1
I1
sVdcpatyr
p2
I1
s.(dp0
Vd3rrvsh
p1
I1
sVdcwqg4u
p2
I1
s.(dp0
Vd3rrvsh
p1
I1
sVde83cfe
p2
I1
s.(dp0
Vd3rrvsh
p1
I1
sVde898m5
p2
I1
s.(dp0
Vd3rrvsh
p1
I1
sVde898m5
p2
I1
s.(dp0
Vd3rrvsh
p1
I1
sVde898m5
p2
I1
s.(dp0
Vd3rrvsh
p1
I1
sVdfzwn5h
p2
I1
s.(dp0
Vd3rrvsh
p1
I1
sVdguu8se
p2
I1
s.(dp0
Vd3rrvsh
p1
I1
sVdhzqif9
p2
I1
s.(dp0
Vd3rrvsh
p1
I1
sVdhzqif9
p2
I1
s.