(dp0
Vcyiokyd
p1
I1
s.(dp0
Vcyiuxig
p1
I1
sVcyiokyd
p2
I1
s.(dp0
Vcynkm5r
p1
I1
sVcyiokyd
p2
I1
s.(dp0
Vcyo0rcs
p1
I1
sVcyiokyd
p2
I1
s.(dp0
Vcyo0rcs
p1
I1
sVcyiokyd
p2
I1
s.(dp0
Vcyo0vln
p1
I1
sVcyiokyd
p2
I1
s.(dp0
Vcyo0vln
p1
I1
sVcyiokyd
p2
I1
s.(dp0
Vcyo0vln
p1
I1
sVcyiokyd
p2
I1
s.(dp0
Vcyrqhu5
p1
I1
sVcyiokyd
p2
I1
s.(dp0
Vcyskute
p1
I1
sVcyiokyd
p2
I1
s.(dp0
Vcyyq3h7
p1
I1
sVcyiokyd
p2
I1
s.(dp0
Vcyyq3h7
p1
I1
sVcyiokyd
p2
I1
s.(dp0
Vcyyq4xl
p1
I1
sVcyiokyd
p2
I1
s.(dp0
Vcyyq9ni
p1
I1
sVcyiokyd
p2
I1
s.(dp0
Vcyyqhe6
p1
I1
sVcyiokyd
p2
I1
s.(dp0
Vcyyqhe6
p1
I1
sVcyiokyd
p2
I1
s.(dp0
Vcyys1k5
p1
I1
sVcyiokyd
p2
I1
s.(dp0
Vcyys1k5
p1
I1
sVcyiokyd
p2
I1
s.(dp0
Vcyys1k5
p1
I1
sVcyiokyd
p2
I1
s.(dp0
Vcz26ju9
p1
I1
sVcyiokyd
p2
I1
s.(dp0
Vcz26ju9
p1
I1
sVcyiokyd
p2
I1
s.(dp0
Vcz3ee2a
p1
I1
sVcyiokyd
p2
I1
s.(dp0
Vcz3s1y8
p1
I1
sVcyiokyd
p2
I1
s.(dp0
Vcz3s1y8
p1
I1
sVcyiokyd
p2
I1
s.(dp0
Vcz6vf6o
p1
I1
sVcyiokyd
p2
I1
s.(dp0
Vcz8koov
p1
I1
sVcyiokyd
p2
I1
s.(dp0
Vczapp0w
p1
I1
sVcyiokyd
p2
I1
s.(dp0
Vczdcatl
p1
I1
sVcyiokyd
p2
I1
s.(dp0
Vczdnici
p1
I1
sVcyiokyd
p2
I1
s.(dp0
Vczdocn5
p1
I1
sVcyiokyd
p2
I1
s.(dp0
Vczen5rn
p1
I1
sVcyiokyd
p2
I1
s.(dp0
Vczgk7zo
p1
I1
sVcyiokyd
p2
I1
s.(dp0
Vczgxo0v
p1
I1
sVcyiokyd
p2
I1
s.(dp0
Vczh48c8
p1
I1
sVcyiokyd
p2
I1
s.(dp0
Vczmef19
p1
I1
sVcyiokyd
p2
I1
s.(dp0
Vczmehvr
p1
I1
sVcyiokyd
p2
I1
s.(dp0
Vczney3u
p1
I1
sVcyiokyd
p2
I1
s.(dp0
Vczpzifd
p1
I1
sVcyiokyd
p2
I1
s.(dp0
Vczqmxnk
p1
I1
sVcyiokyd
p2
I1
s.(dp0
Vczqmxnk
p1
I1
sVcyiokyd
p2
I1
s.(dp0
Vczrnlb2
p1
I1
sVcyiokyd
p2
I1
s.(dp0
Vczrp9gm
p1
I1
sVcyiokyd
p2
I1
s.(dp0
Vczshha7
p1
I1
sVcyiokyd
p2
I1
s.(dp0
Vcztiykl
p1
I1
sVcyiokyd
p2
I1
s.(dp0
Vczuegim
p1
I1
sVcyiokyd
p2
I1
s.(dp0
Vczvykv9
p1
I1
sVcyiokyd
p2
I1
s.(dp0
Vd00s8qa
p1
I1
sVcyiokyd
p2
I1
s.(dp0
Vd01vf9y
p1
I1
sVcyiokyd
p2
I1
s.(dp0
Vd02ulia
p1
I1
sVcyiokyd
p2
I1
s.(dp0
Vd0388o5
p1
I1
sVcyiokyd
p2
I1
s.(dp0
Vd0388o5
p1
I1
sVcyiokyd
p2
I1
s.(dp0
Vd04zdij
p1
I1
sVcyiokyd
p2
I1
s.(dp0
Vd05641a
p1
I1
sVcyiokyd
p2
I1
s.(dp0
Vd07d0id
p1
I1
sVcyiokyd
p2
I1
s.(dp0
Vd0b7bu7
p1
I1
sVcyiokyd
p2
I1
s.(dp0
Vd0i15in
p1
I1
sVcyiokyd
p2
I1
s.(dp0
Vd0ifoe7
p1
I1
sVcyiokyd
p2
I1
s.(dp0
Vd0k1fcd
p1
I1
sVcyiokyd
p2
I1
s.(dp0
Vd0l6uyj
p1
I1
sVcyiokyd
p2
I1
s.(dp0
Vd0lyoio
p1
I1
sVcyiokyd
p2
I1
s.(dp0
Vd0mgqv7
p1
I1
sVcyiokyd
p2
I1
s.(dp0
Vd0pxgrx
p1
I1
sVcyiokyd
p2
I1
s.(dp0
Vd0q1prb
p1
I1
sVcyiokyd
p2
I1
s.(dp0
Vd0rvp1n
p1
I1
sVcyiokyd
p2
I1
s.(dp0
Vd0tilk9
p1
I1
sVcyiokyd
p2
I1
s.(dp0
Vd0tyhje
p1
I1
sVcyiokyd
p2
I1
s.(dp0
Vd0xqwbv
p1
I1
sVcyiokyd
p2
I1
s.(dp0
Vd0xvl29
p1
I1
sVcyiokyd
p2
I1
s.(dp0
Vd0xvl29
p1
I1
sVcyiokyd
p2
I1
s.(dp0
Vd0zfjim
p1
I1
sVcyiokyd
p2
I1
s.(dp0
Vd15w9f9
p1
I1
sVcyiokyd
p2
I1
s.(dp0
Vd17lvux
p1
I1
sVcyiokyd
p2
I1
s.(dp0
Vd19nl8m
p1
I1
sVcyiokyd
p2
I1
s.(dp0
Vd1bf2cd
p1
I1
sVcyiokyd
p2
I1
s.(dp0
Vd1bf2cd
p1
I1
sVcyiokyd
p2
I1
s.(dp0
Vd1kc7xy
p1
I1
sVcyiokyd
p2
I1
s.(dp0
Vd1kqgvp
p1
I1
sVcyiokyd
p2
I1
s.(dp0
Vd1kw03e
p1
I1
sVcyiokyd
p2
I1
s.(dp0
Vd1tupnx
p1
I1
sVcyiokyd
p2
I1
s.(dp0
Vd1y3vs7
p1
I1
sVcyiokyd
p2
I1
s.(dp0
Vd1y80np
p1
I1
sVcyiokyd
p2
I1
s.(dp0
Vd1zwmu3
p1
I1
sVcyiokyd
p2
I1
s.(dp0
Vd211lwi
p1
I1
sVcyiokyd
p2
I1
s.(dp0
Vd2333di
p1
I1
sVcyiokyd
p2
I1
s.(dp0
Vd237zh3
p1
I1
sVcyiokyd
p2
I1
s.(dp0
Vd26kau3
p1
I1
sVcyiokyd
p2
I1
s.(dp0
Vd2a9zvg
p1
I1
sVcyiokyd
p2
I1
s.(dp0
Vd2agh4m
p1
I1
sVcyiokyd
p2
I1
s.(dp0
Vd2awqve
p1
I1
sVcyiokyd
p2
I1
s.(dp0
Vd2ax0c1
p1
I1
sVcyiokyd
p2
I1
s.(dp0
Vd2ax0c1
p1
I1
sVcyiokyd
p2
I1
s.(dp0
Vd2doloq
p1
I1
sVcyiokyd
p2
I1
s.(dp0
Vd2dplj3
p1
I1
sVcyiokyd
p2
I1
s.(dp0
Vd2hhmo0
p1
I1
sVcyiokyd
p2
I1
s.(dp0
Vd2ir31x
p1
I1
sVcyiokyd
p2
I1
s.(dp0
Vd2ouvtc
p1
I1
sVcyiokyd
p2
I1
s.(dp0
Vd2qcv6z
p1
I1
sVcyiokyd
p2
I1
s.(dp0
Vd2vg332
p1
I1
sVcyiokyd
p2
I1
s.(dp0
Vd2yf10s
p1
I1
sVcyiokyd
p2
I1
s.(dp0
Vd3118eh
p1
I1
sVcyiokyd
p2
I1
s.(dp0
Vd31p888
p1
I1
sVcyiokyd
p2
I1
s.(dp0
Vd393999
p1
I1
sVcyiokyd
p2
I1
s.(dp0
Vd39umeu
p1
I1
sVcyiokyd
p2
I1
s.(dp0
Vd39umeu
p1
I1
sVcyiokyd
p2
I1
s.(dp0
Vd3ase21
p1
I1
sVcyiokyd
p2
I1
s.(dp0
Vd3jny7q
p1
I1
sVcyiokyd
p2
I1
s.(dp0
Vd3oe7vv
p1
I1
sVcyiokyd
p2
I1
s.(dp0
Vd3ol30g
p1
I1
sVcyiokyd
p2
I1
s.(dp0
Vd3(dp0
Vdp215f3
p1
I1
sVcyiokyd
p2
I1
s.