(dp0
Vd12f767
p1
I1
s.(dp0
Vd12gfuk
p1
I1
sVd12f767
p2
I1
s.(dp0
Vd25mnbl
p1
I1
sVd12f767
p2
I1
s.(dp0
Vd2uyw0y
p1
I1
sVd12f767
p2
I1
s.(dp0
Vd2zub3r
p1
I1
sVd12f767
p2
I1
s.(dp0
Vd38m2qm
p1
I1
sVd12f767
p2
I1
s.(dp0
Vd3ru5rs
p1
I1
sVd12f767
p2
I1
s.(dp0
Vd433u0t
p1
I1
sVd12f767
p2
I1
s.(dp0
Vd4lxjs0
p1
I1
sVd12f767
p2
I1
s.(dp0
Vd50j2dq
p1
I1
sVd12f767
p2
I1
s.(dp0
Vd50q3c0
p1
I1
sVd12f767
p2
I1
s.(dp0
Vd6im1dr
p1
I1
sVd12f767
p2
I1
s.(dp0
Vd76ymtv
p1
I1
sVd12f767
p2
I1
s.(dp0
Vd8xke0j
p1
I1
sVd12f767
p2
I1
s.(dp0
Vd8xsz1h
p1
I1
sVd12f767
p2
I1
s.(dp0
Vd98wu3h
p1
I1
sVd12f767
p2
I1
s.(dp0
Vd9dp8yv
p1
I1
sVd12f767
p2
I1
s.(dp0
Vdacnwij
p1
I1
sVd12f767
p2
I1
s.(dp0
Vdao9ey0
p1
I1
sVd12f767
p2
I1
s.(dp0
Vd12f767
p1
I1
sVdd7825n
p2
I1
s.(dp0
Vde0mgva
p1
I1
sVd12f767
p2
I1
s.(dp0
Vdfray5g
p1
I1
sVd12f767
p2
I1
s.(dp0
Vdfzm8kb
p1
I1
sVd12f767
p2
I1
s.(dp0
Vdgn2fm6
p1
I1
sVd12f767
p2
I1
s.(dp0
Vdh8x3jv
p1
I1
sVd12f767
p2
I1
s.(dp0
Vdjd7gvv
p1
I1
sVd12f767
p2
I1
s.(dp0
Vdjd7gvv
p1
I1
sVd12f767
p2
I1
s.(dp0
Vdjdaaqj
p1
I1
sVd12f767
p2
I1
s.(dp0
Vd12f767
p1
I1
sVdjlmi8l
p2
I1
s.(dp0
Vd12f767
p1
I1
sVdjlmi8l
p2
I1
s.(dp0
Vdkr46ea
p1
I1
sVd12f767
p2
I1
s.(dp0
Vdmim30i
p1
I1
sVd12f767
p2
I1
s.(dp0
Vdn9ac7q
p1
I1
sVd12f767
p2
I1
s.(dp0
Vdn9ac7q
p1
I1
sVd12f767
p2
I1
s.(dp0
Vdntqlt0
p1
I1
sVd12f767
p2
I1
s.