(dp0
Vd2pczyq
p1
I1
s.(dp0
Vd2x4kmh
p1
I1
sVd2pczyq
p2
I1
s.(dp0
Vd5hx2ew
p1
I1
sVd2pczyq
p2
I1
s.(dp0
Vd7bu3lv
p1
I1
sVd2pczyq
p2
I1
s.(dp0
Vd877rip
p1
I1
sVd2pczyq
p2
I1
s.(dp0
Vdbjralv
p1
I1
sVd2pczyq
p2
I1
s.(dp0
Vd2pczyq
p1
I1
sVdc0jqj0
p2
I1
s.(dp0
Vdd0l4sj
p1
I1
sVd2pczyq
p2
I1
s.(dp0
Vd2pczyq
p1
I1
sVdfcfmed
p2
I1
s.(dp0
Vdhfc822
p1
I1
sVd2pczyq
p2
I1
s.(dp0
Vd2pczyq
p1
I1
sVdnat6ir
p2
I1
s.