(dp0
Vcyyj5y3
p1
I1
s.(dp0
Vcyyj5y3
p1
I2
s.(dp0
Vcyyj5y3
p1
I2
s.(dp0
Vcyyj5y3
p1
I2
s.(dp0
Vcyyj5y3
p1
I2
s.(dp0
Vcyyqovj
p1
I1
sVcyyj5y3
p2
I1
s.(dp0
Vcyyqovj
p1
I1
sVcyyj5y3
p2
I1
s.(dp0
Vd2inns2
p1
I1
sVcyyj5y3
p2
I1
s.(dp0
Vcyyj5y3
p1
I1
sVdhf23kh
p2
I1
s.(dp0
Vcyyj5y3
p1
I1
sVdhf23kh
p2
I1
s.(dp0
Vcyyj5y3
p1
I1
sVdhf5567
p2
I1
s.(dp0
Vcyyj5y3
p1
I1
sVdhf7lin
p2
I1
s.(dp0
Vdhfc6gy
p1
I1
sVcyyj5y3
p2
I1
s.(dp0
Vdk2sd4y
p1
I1
sVcyyj5y3
p2
I1
s.(dp0
Vdoez58h
p1
I1
sVcyyj5y3
p2
I1
s.(dp0
Vdoez58h
p1
I1
sVcyyj5y3
p2
I1
s.(dp0
Vdoez58h
p1
I1
sVcyyj5y3
p2
I1
s.