(dp0
Vcyrx0kf
p1
I1
s.(dp0
Vcyrx0kf
p1
I2
s.(dp0
Vcz66i56
p1
I1
sVcyrx0kf
p2
I1
s.(dp0
Vcz8w0g2
p1
I1
sVcyrx0kf
p2
I1
s.(dp0
Vd0m5eg7
p1
I1
sVcyrx0kf
p2
I1
s.(dp0
Vd14r3nl
p1
I1
sVcyrx0kf
p2
I1
s.(dp0
Vd14r3nl
p1
I1
sVcyrx0kf
p2
I1
s.(dp0
Vd38mi02
p1
I1
sVcyrx0kf
p2
I1
s.(dp0
Vd38nppz
p1
I1
sVcyrx0kf
p2
I1
s.(dp0
Vd3z4mqr
p1
I1
sVcyrx0kf
p2
I1
s.(dp0
Vcyrx0kf
p1
I1
sVd5p6xd1
p2
I1
s.(dp0
Vcyrx0kf
p1
I1
sVd6g6tm4
p2
I1
s.(dp0
Vcyrx0kf
p1
I1
sVd6r0vvh
p2
I1
s.(dp0
Vd731nae
p1
I1
sVcyrx0kf
p2
I1
s.(dp0
Vdd12abz
p1
I1
sVcyrx0kf
p2
I1
s.(dp0
Vde7q108
p1
I1
sVcyrx0kf
p2
I1
s.(dp0
Vdemht7z
p1
I1
sVcyrx0kf
p2
I1
s.(dp0
Vdf04e5z
p1
I1
sVcyrx0kf
p2
I1
s.(dp0
Vdf04e5z
p1
I1
sVcyrx0kf
p2
I1
s.(dp0
Vdf8mpce
p1
I1
sVcyrx0kf
p2
I1
s.(dp0
Vdg79spt
p1
I1
sVcyrx0kf
p2
I1
s.