(dp0
Vcyjfumm
p1
I1
s.(dp0
Vcyjfumm
p1
I1
sVcyjfvu7
p2
I1
s.(dp0
Vcyjfumm
p1
I1
sVcyo0gab
p2
I1
s.(dp0
Vcyo2qn1
p1
I1
sVcyjfumm
p2
I1
s.(dp0
Vcyqnqha
p1
I1
sVcyjfumm
p2
I1
s.(dp0
Vcyqnqha
p1
I1
sVcyjfumm
p2
I1
s.(dp0
Vcyjfumm
p1
I1
sVcytwb5n
p2
I1
s.(dp0
Vcyjfumm
p1
I1
sVcyx432e
p2
I1
s.(dp0
Vcyx46vm
p1
I1
sVcyjfumm
p2
I1
s.(dp0
Vcyjfumm
p1
I1
sVcyzbxf4
p2
I1
s.(dp0
Vcyjfumm
p1
I1
sVcyzih7z
p2
I1
s.(dp0
Vcyjfumm
p1
I1
sVcz3gh3l
p2
I1
s.(dp0
Vczyhn7c
p1
I1
sVcyjfumm
p2
I1
s.(dp0
Vczyhn7c
p1
I1
sVcyjfumm
p2
I1
s.(dp0
Vcyjfumm
p1
I1
sVd01d36a
p2
I1
s.(dp0
Vcyjfumm
p1
I1
sVd04rb3w
p2
I1
s.(dp0
Vd0km0dy
p1
I1
sVcyjfumm
p2
I1
s.(dp0
Vd0km0dy
p1
I1
sVcyjfumm
p2
I1
s.(dp0
Vd0km0dy
p1
I1
sVcyjfumm
p2
I1
s.(dp0
Vd0km0dy
p1
I1
sVcyjfumm
p2
I1
s.(dp0
Vd0km0dy
p1
I1
sVcyjfumm
p2
I1
s.(dp0
Vd0km0dy
p1
I1
sVcyjfumm
p2
I1
s.(dp0
Vd0km0dy
p1
I1
sVcyjfumm
p2
I1
s.(dp0
Vd0km0dy
p1
I1
sVcyjfumm
p2
I1
s.(dp0
Vd15drxg
p1
I1
sVcyjfumm
p2
I1
s.(dp0
Vcyjfumm
p1
I1
sVd1caup0
p2
I1
s.(dp0
Vd1d9jxe
p1
I1
sVcyjfumm
p2
I1
s.(dp0
Vd1q1yxn
p1
I1
sVcyjfumm
p2
I1
s.(dp0
Vd1w9p7y
p1
I1
sVcyjfumm
p2
I1
s.(dp0
Vd1w9p7y
p1
I1
sVcyjfumm
p2
I1
s.(dp0
Vd1w9p7y
p1
I1
sVcyjfumm
p2
I1
s.(dp0
Vd1w9p7y
p1
I1
sVcyjfumm
p2
I1
s.(dp0
Vd1w9p7y
p1
I1
sVcyjfumm
p2
I1
s.(dp0
Vd1w9p7y
p1
I1
sVcyjfumm
p2
I1
s.(dp0
Vd1w9p7y
p1
I1
sVcyjfumm
p2
I1
s.(dp0
Vcyjfumm
p1
I1
sVd26qo4e
p2
I1
s.(dp0
Vcyjfumm
p1
I1
sVd28tys0
p2
I1
s.(dp0
Vd2arx0t
p1
I1
sVcyjfumm
p2
I1
s.(dp0
Vd2arx0t
p1
I1
sVcyjfumm
p2
I1
s.(dp0
Vd2arx0t
p1
I1
sVcyjfumm
p2
I1
s.(dp0
Vd2bb1dn
p1
I1
sVcyjfumm
p2
I1
s.(dp0
Vd2h04ce
p1
I1
sVcyjfumm
p2
I1
s.(dp0
Vd2qaunl
p1
I1
sVcyjfumm
p2
I1
s.(dp0
Vcyjfumm
p1
I1
sVd334xt6
p2
I1
s.(dp0
Vcyjfumm
p1
I1
sVd334xt6
p2
I1
s.(dp0
Vcyjfumm
p1
I1
sVd334xt6
p2
I1
s.(dp0
Vcyjfumm
p1
I1
sVd334xt6
p2
I1
s.(dp0
Vcyjfumm
p1
I1
sVd334xt6
p2
I1
s.(dp0
Vcyjfumm
p1
I1
sVd334xt6
p2
I1
s.(dp0
Vcyjfumm
p1
I1
sVd334xt6
p2
I1
s.(dp0
Vd3a6xqf
p1
I1
sVcyjfumm
p2
I1
s.(dp0
Vd3fehyp
p1
I1
sVcyjfumm
p2
I1
s.(dp0
Vcyjfumm
p1
I1
sVd3i9yhg
p2
I1
s.(dp0
Vd3if9bs
p1
I1
sVcyjfumm
p2
I1
s.(dp0
Vd3nem3v
p1
I1
sVcyjfumm
p2
I1
s.(dp0
Vd3nem3v
p1
I1
sVcyjfumm
p2
I1
s.(dp0
Vd3pb8mw
p1
I1
sVcyjfumm
p2
I1
s.(dp0
Vcyjfumm
p1
I1
sVd3rufut
p2
I1
s.(dp0
Vcyjfumm
p1
I1
sVd3yihi5
p2
I1
s.(dp0
Vcyjfumm
p1
I1
sVd3yihi5
p2
I1
s.(dp0
Vcyjfumm
p1
I1
sVd4bq7e1
p2
I1
s.(dp0
Vcyjfumm
p1
I1
sVd4rxm59
p2
I1
s.(dp0
Vd527zeb
p1
I1
sVcyjfumm
p2
I1
s.(dp0
Vd527zeb
p1
I1
sVcyjfumm
p2
I1
s.(dp0
Vcyjfumm
p1
I1
sVd52d512
p2
I1
s.(dp0
Vd5om72d
p1
I1
sVcyjfumm
p2
I1
s.(dp0
Vcyjfumm
p1
I1
sVd5oo8td
p2
I1
s.(dp0
Vcyjfumm
p1
I1
sVd5ooejz
p2
I1
s.(dp0
Vd5p8hag
p1
I1
sVcyjfumm
p2
I1
s.(dp0
Vd5p8hag
p1
I1
sVcyjfumm
p2
I1
s.(dp0
Vd5p8hag
p1
I1
sVcyjfumm
p2
I1
s.(dp0
Vd5p8hag
p1
I1
sVcyjfumm
p2
I1
s.(dp0
Vcyjfumm
p1
I1
sVd60xxqq
p2
I1
s.(dp0
Vcyjfumm
p1
I1
sVd60xxqq
p2
I1
s.(dp0
Vcyjfumm
p1
I1
sVd60xxqq
p2
I1
s.(dp0
Vcyjfumm
p1
I1
sVd60xxqq
p2
I1
s.(dp0
Vd63ablk
p1
I1
sVcyjfumm
p2
I1
s.(dp0
Vd63kqh2
p1
I1
sVcyjfumm
p2
I1
s.(dp0
Vd63kqh2
p1
I1
sVcyjfumm
p2
I1
s.(dp0
Vcyjfumm
p1
I1
sVd63r8kz
p2
I1
s.(dp0
Vd67i3yf
p1
I1
sVcyjfumm
p2
I1
s.(dp0
Vcyjfumm
p1
I1
sVd6fzkvc
p2
I1
s.(dp0
Vd6jbhv3
p1
I1
sVcyjfumm
p2
I1
s.(dp0
Vd6jqg0g
p1
I1
sVcyjfumm
p2
I1
s.(dp0
Vd6ptquh
p1
I1
sVcyjfumm
p2
I1
s.(dp0
Vd6ptquh
p1
I1
sVcyjfumm
p2
I1
s.(dp0
Vd6ptquh
p1
I1
sVcyjfumm
p2
I1
s.(dp0
Vcyjfumm
p1
I1
sVd6strkw
p2
I1
s.(dp0
Vcyjfumm
p1
I1
sVd6strkw
p2
I1
s.(dp0
Vcyjfumm
p1
I1
sVd7y7dd7
p2
I1
s.(dp0
Vcyjfumm
p1
I1
sVd7y7dd7
p2
I1
s.(dp0
Vcyjfumm
p1
I1
sVd7ylwr8
p2
I1
s.(dp0
Vcyjfumm
p1
I1
sVd801n0p
p2
I1
s.(dp0
Vcyjfumm
p1
I1
sVd81hl0h
p2
I1
s.(dp0
Vd8cbsy4
p1
I1
sVcyjfumm
p2
I1
s.(dp0
Vd8r6upt
p1
I1
sVcyjfumm
p2
I1
s.(dp0
Vd8r6upt
p1
I1
sVcyjfumm
p2
I1
s.(dp0
Vd8r6upt
p1
I1
sVcyjfumm
p2
I1
s.(dp0
Vd8r6upt
p1
I1
sVcyjfumm
p2
I1
s.(dp0
Vd8r6upt
p1
I1
sVcyjfumm
p2
I1
s.(dp0
Vd99fb2v
p1
I1
sVcyjfumm
p2
I1
s.(dp0
Vd99fb2v
p1
I1
sVcyjfumm
p2
I1
s.(dp0
Vcyjfumm
p1
I1
sVd9n3nzx
p2
I1
s.(dp0
Vd9yp421
p1
I1
sVcyjfumm
p2
I1
s.(dp0
Vdai6zw1
p1
I1
sVcyjfumm
p2
I1
s.(dp0
Vdai6zw1
p1
I1
sVcyjfumm
p2
I1
s.(dp0
Vdai7zco
p1
I1
sVcyjfumm
p2
I1
s.(dp0
Vdbrbzv8
p1
I1
sVcyjfumm
p2
I1
s.(dp0
Vdc(dp0
Vdp33g9t
p1
I1
sVcyjfumm
p2
I1
s.