(dp0
Vcyiun9v
p1
I1
s.(dp0
Vd01cq7t
p1
I1
sVcyiun9v
p2
I1
s.(dp0
Vd0buhs6
p1
I1
sVcyiun9v
p2
I1
s.(dp0
Vd5sik3e
p1
I1
sVcyiun9v
p2
I1
s.(dp0
Vdcnwrvi
p1
I1
sVcyiun9v
p2
I1
s.(dp0
Vdcnwrvi
p1
I1
sVcyiun9v
p2
I1
s.(dp0
Vdjndgpf
p1
I1
sVcyiun9v
p2
I1
s.(dp0
Vdjndgpf
p1
I1
sVcyiun9v
p2
I1
s.(dp0
Vdjndgpf
p1
I1
sVcyiun9v
p2
I1
s.(dp0
Vdjndgpf
p1
I1
sVcyiun9v
p2
I1
s.(dp0
Vdjndgpf
p1
I1
sVcyiun9v
p2
I1
s.(dp0
Vdjndgpf
p1
I1
sVcyiun9v
p2
I1
s.