(dp0
Vcyhx7k2
p1
I1
s.(dp0
Vcyla1zy
p1
I1
sVcyhx7k2
p2
I1
s.(dp0
Vcyljbud
p1
I1
sVcyhx7k2
p2
I1
s.(dp0
Vcymd74n
p1
I1
sVcyhx7k2
p2
I1
s.(dp0
Vcyvdnza
p1
I1
sVcyhx7k2
p2
I1
s.(dp0
Vcz3o9vn
p1
I1
sVcyhx7k2
p2
I1
s.(dp0
Vcz7qg4g
p1
I1
sVcyhx7k2
p2
I1
s.(dp0
Vcz892ey
p1
I1
sVcyhx7k2
p2
I1
s.(dp0
Vcz8lafb
p1
I1
sVcyhx7k2
p2
I1
s.(dp0
Vcza1ae7
p1
I1
sVcyhx7k2
p2
I1
s.(dp0
Vczarwpq
p1
I1
sVcyhx7k2
p2
I1
s.(dp0
Vczarwpq
p1
I1
sVcyhx7k2
p2
I1
s.(dp0
Vczb9g30
p1
I1
sVcyhx7k2
p2
I1
s.(dp0
Vczb9g30
p1
I1
sVcyhx7k2
p2
I1
s.(dp0
Vczca0x3
p1
I1
sVcyhx7k2
p2
I1
s.(dp0
Vczf6bq1
p1
I1
sVcyhx7k2
p2
I1
s.(dp0
Vczf6bq1
p1
I1
sVcyhx7k2
p2
I1
s.(dp0
Vczk4zt1
p1
I1
sVcyhx7k2
p2
I1
s.(dp0
Vczkloi8
p1
I1
sVcyhx7k2
p2
I1
s.(dp0
Vczpe85y
p1
I1
sVcyhx7k2
p2
I1
s.(dp0
Vczwgk8f
p1
I1
sVcyhx7k2
p2
I1
s.(dp0
Vczwztt9
p1
I1
sVcyhx7k2
p2
I1
s.(dp0
Vczxcc52
p1
I1
sVcyhx7k2
p2
I1
s.(dp0
Vczzk19b
p1
I1
sVcyhx7k2
p2
I1
s.(dp0
Vczzk19b
p1
I1
sVcyhx7k2
p2
I1
s.(dp0
Vczzlpl5
p1
I1
sVcyhx7k2
p2
I1
s.(dp0
Vd013ylm
p1
I1
sVcyhx7k2
p2
I1
s.(dp0
Vd04q3ad
p1
I1
sVcyhx7k2
p2
I1
s.(dp0
Vd05e8qk
p1
I1
sVcyhx7k2
p2
I1
s.(dp0
Vd0766h3
p1
I1
sVcyhx7k2
p2
I1
s.(dp0
Vd0766h3
p1
I1
sVcyhx7k2
p2
I1
s.(dp0
Vd0jyvpi
p1
I1
sVcyhx7k2
p2
I1
s.(dp0
Vd0pehk3
p1
I1
sVcyhx7k2
p2
I1
s.(dp0
Vd0qpelf
p1
I1
sVcyhx7k2
p2
I1
s.(dp0
Vd0tf34s
p1
I1
sVcyhx7k2
p2
I1
s.(dp0
Vd0wands
p1
I1
sVcyhx7k2
p2
I1
s.(dp0
Vd0wbzqo
p1
I1
sVcyhx7k2
p2
I1
s.(dp0
Vd0wk5vt
p1
I1
sVcyhx7k2
p2
I1
s.(dp0
Vd0xsos3
p1
I1
sVcyhx7k2
p2
I1
s.(dp0
Vd0ynuqr
p1
I1
sVcyhx7k2
p2
I1
s.(dp0
Vd12sg7j
p1
I1
sVcyhx7k2
p2
I1
s.(dp0
Vd16wx1p
p1
I1
sVcyhx7k2
p2
I1
s.(dp0
Vd16ylkb
p1
I1
sVcyhx7k2
p2
I1
s.(dp0
Vd16ylkb
p1
I1
sVcyhx7k2
p2
I1
s.(dp0
Vd16ylkb
p1
I1
sVcyhx7k2
p2
I1
s.(dp0
Vd17qlu4
p1
I1
sVcyhx7k2
p2
I1
s.(dp0
Vd181uro
p1
I1
sVcyhx7k2
p2
I1
s.(dp0
Vd19bksg
p1
I1
sVcyhx7k2
p2
I1
s.(dp0
Vd1c4imn
p1
I1
sVcyhx7k2
p2
I1
s.(dp0
Vd1dgnop
p1
I1
sVcyhx7k2
p2
I1
s.(dp0
Vd1gx2o8
p1
I1
sVcyhx7k2
p2
I1
s.(dp0
Vd1hyzm8
p1
I1
sVcyhx7k2
p2
I1
s.(dp0
Vd1l1edu
p1
I1
sVcyhx7k2
p2
I1
s.(dp0
Vd1lag7m
p1
I1
sVcyhx7k2
p2
I1
s.(dp0
Vd1w88pr
p1
I1
sVcyhx7k2
p2
I1
s.(dp0
Vd1xl7re
p1
I1
sVcyhx7k2
p2
I1
s.(dp0
Vd1znxhp
p1
I1
sVcyhx7k2
p2
I1
s.(dp0
Vd231sn0
p1
I1
sVcyhx7k2
p2
I1
s.(dp0
Vd24ffft
p1
I1
sVcyhx7k2
p2
I1
s.(dp0
Vd24ffft
p1
I1
sVcyhx7k2
p2
I1
s.(dp0
Vd2j7tgq
p1
I1
sVcyhx7k2
p2
I1
s.(dp0
Vd2pypcf
p1
I1
sVcyhx7k2
p2
I1
s.(dp0
Vd3bi7tw
p1
I1
sVcyhx7k2
p2
I1
s.(dp0
Vd3dqoyf
p1
I1
sVcyhx7k2
p2
I1
s.(dp0
Vd3dqoyf
p1
I1
sVcyhx7k2
p2
I1
s.(dp0
Vd3ezxnt
p1
I1
sVcyhx7k2
p2
I1
s.(dp0
Vd3f02uk
p1
I1
sVcyhx7k2
p2
I1
s.(dp0
Vd3fyzh8
p1
I1
sVcyhx7k2
p2
I1
s.(dp0
Vd3g6fll
p1
I1
sVcyhx7k2
p2
I1
s.(dp0
Vd3gbrcy
p1
I1
sVcyhx7k2
p2
I1
s.(dp0
Vd3gf04f
p1
I1
sVcyhx7k2
p2
I1
s.(dp0
Vd3hfgwi
p1
I1
sVcyhx7k2
p2
I1
s.(dp0
Vd3l1dwa
p1
I1
sVcyhx7k2
p2
I1
s.(dp0
Vd3msekn
p1
I1
sVcyhx7k2
p2
I1
s.(dp0
Vd3nt8zw
p1
I1
sVcyhx7k2
p2
I1
s.(dp0
Vd3wtfg8
p1
I1
sVcyhx7k2
p2
I1
s.(dp0
Vd44td5b
p1
I1
sVcyhx7k2
p2
I1
s.(dp0
Vd46um98
p1
I1
sVcyhx7k2
p2
I1
s.(dp0
Vd46um98
p1
I1
sVcyhx7k2
p2
I1
s.(dp0
Vd46um98
p1
I1
sVcyhx7k2
p2
I1
s.(dp0
Vd46um98
p1
I1
sVcyhx7k2
p2
I1
s.(dp0
Vd47ebpf
p1
I1
sVcyhx7k2
p2
I1
s.(dp0
Vd4g0yh9
p1
I1
sVcyhx7k2
p2
I1
s.(dp0
Vd4g1ta2
p1
I1
sVcyhx7k2
p2
I1
s.(dp0
Vd4ibrjl
p1
I1
sVcyhx7k2
p2
I1
s.(dp0
Vd4iolov
p1
I1
sVcyhx7k2
p2
I1
s.(dp0
Vd4tr0wg
p1
I1
sVcyhx7k2
p2
I1
s.(dp0
Vd4xwkc5
p1
I1
sVcyhx7k2
p2
I1
s.(dp0
Vd4zcv6y
p1
I1
sVcyhx7k2
p2
I1
s.(dp0
Vd51pf3m
p1
I1
sVcyhx7k2
p2
I1
s.(dp0
Vd52zwi8
p1
I1
sVcyhx7k2
p2
I1
s.(dp0
Vd53u861
p1
I1
sVcyhx7k2
p2
I1
s.(dp0
Vd56rtj8
p1
I1
sVcyhx7k2
p2
I1
s.(dp0
Vd58nyyu
p1
I1
sVcyhx7k2
p2
I1
s.(dp0
Vd5blwty
p1
I1
sVcyhx7k2
p2
I1
s.(dp0
Vd5dxr6a
p1
I1
sVcyhx7k2
p2
I1
s.(dp0
Vd5j7ji2
p1
I1
sVcyhx7k2
p2
I1
s.(dp0
Vd5jfnbv
p1
I1
sVcyhx7k2
p2
I1
s.(dp0
Vd5oeomt
p1
I1
sVcyhx7k2
p2
I1
s.(dp0
Vd5u431y
p1
I1
sVcyhx7k2
p2
I1
s.(dp0
Vd5wxawa
p1
I1
sVcyhx7k2
p2
I1
s.(dp0
Vd5wxawa
p1
I1
sVcyhx7k2
p2
I1
s.(dp0
Vd5xjalw
p1
I1
sVcyhx7k2
p2
I1
s.(dp0
Vd60pr55
p1
I1
sVcyhx7k2
p2
I1
s.(dp0
Vd6fzxde
p1
I1
sVcyhx7k2
p2
I1
s.(dp0
Vd6fzxde
p1
I1
sVcyhx7k2
p2
I1
s.(dp0
Vd6jg4v0
p1
I1
sVcyhx7k2
p2
I1
s.(dp0
Vd6p2xlr
p1
I1
sVcyhx7k2
p2
I1
s.(dp0
Vd6(dp0
Vdkxpidm
p1
I1
sVcyhx7k2
p2
I1
s.