(dp0
Vd1ws4cm
p1
I1
s.(dp0
Vd3st0si
p1
I1
sVd1ws4cm
p2
I1
s.(dp0
Vd5hymrd
p1
I1
sVd1ws4cm
p2
I1
s.(dp0
Vdb3lm92
p1
I1
sVd1ws4cm
p2
I1
s.(dp0
Vdcb6t02
p1
I1
sVd1ws4cm
p2
I1
s.(dp0
Vdcb7b7c
p1
I1
sVd1ws4cm
p2
I1
s.(dp0
Vddragh9
p1
I1
sVd1ws4cm
p2
I1
s.