(dp0
Vcyuq9qb
p1
I1
s.(dp0
Vcyuq9qb
p1
I1
sVcyuqfkd
p2
I1
s.(dp0
Vcyuq9qb
p1
I1
sVcyuqfkd
p2
I1
s.(dp0
Vcyuq9qb
p1
I1
sVcyuqfkd
p2
I1
s.(dp0
Vcyuq9qb
p1
I1
sVcyuqfkd
p2
I1
s.(dp0
Vcyuq9qb
p1
I1
sVcyuqfkd
p2
I1
s.(dp0
Vcyuq9qb
p1
I1
sVcyuqfkd
p2
I1
s.(dp0
Vcyzc5jx
p1
I1
sVcyuq9qb
p2
I1
s.(dp0
Vcz1bovk
p1
I1
sVcyuq9qb
p2
I1
s.(dp0
Vcyuq9qb
p1
I1
sVcz3koxa
p2
I1
s.(dp0
Vcz43qrq
p1
I1
sVcyuq9qb
p2
I1
s.(dp0
Vcz43qrq
p1
I1
sVcyuq9qb
p2
I1
s.(dp0
Vcz7gek3
p1
I1
sVcyuq9qb
p2
I1
s.(dp0
Vcz7gek3
p1
I1
sVcyuq9qb
p2
I1
s.(dp0
Vcyuq9qb
p1
I1
sVczgbipx
p2
I1
s.(dp0
Vd01oidn
p1
I1
sVcyuq9qb
p2
I1
s.(dp0
Vd03alyd
p1
I1
sVcyuq9qb
p2
I1
s.(dp0
Vd0rj1l8
p1
I1
sVcyuq9qb
p2
I1
s.(dp0
Vcyuq9qb
p1
I1
sVd0s0r48
p2
I1
s.(dp0
Vcyuq9qb
p1
I1
sVd0s0r48
p2
I1
s.(dp0
Vd1adngo
p1
I1
sVcyuq9qb
p2
I1
s.(dp0
Vcyuq9qb
p1
I1
sVd1dctqt
p2
I1
s.(dp0
Vcyuq9qb
p1
I1
sVd1dctqt
p2
I1
s.(dp0
Vcyuq9qb
p1
I1
sVd1dctqt
p2
I1
s.(dp0
Vcyuq9qb
p1
I1
sVd1dcy52
p2
I1
s.(dp0
Vd22ugs6
p1
I1
sVcyuq9qb
p2
I1
s.(dp0
Vd277l9c
p1
I1
sVcyuq9qb
p2
I1
s.(dp0
Vd2n7eps
p1
I1
sVcyuq9qb
p2
I1
s.(dp0
Vd2n7k45
p1
I1
sVcyuq9qb
p2
I1
s.(dp0
Vd2n7k45
p1
I1
sVcyuq9qb
p2
I1
s.(dp0
Vcyuq9qb
p1
I1
sVd2n9n5k
p2
I1
s.(dp0
Vcyuq9qb
p1
I1
sVd3bru9i
p2
I1
s.(dp0
Vd3v6xyy
p1
I1
sVcyuq9qb
p2
I1
s.(dp0
Vd3yv9a1
p1
I1
sVcyuq9qb
p2
I1
s.(dp0
Vd4fnypr
p1
I1
sVcyuq9qb
p2
I1
s.(dp0
Vd4fpsua
p1
I1
sVcyuq9qb
p2
I1
s.(dp0
Vd4h8e89
p1
I1
sVcyuq9qb
p2
I1
s.(dp0
Vd4h8ho2
p1
I1
sVcyuq9qb
p2
I1
s.(dp0
Vd4h8ho2
p1
I1
sVcyuq9qb
p2
I1
s.(dp0
Vd4h8ho2
p1
I1
sVcyuq9qb
p2
I1
s.(dp0
Vcyuq9qb
p1
I1
sVd4wjc1p
p2
I1
s.(dp0
Vd4wkrcz
p1
I1
sVcyuq9qb
p2
I1
s.(dp0
Vcyuq9qb
p1
I1
sVd50z62u
p2
I1
s.(dp0
Vcyuq9qb
p1
I1
sVd5fjkcu
p2
I1
s.(dp0
Vd5wx3qw
p1
I1
sVcyuq9qb
p2
I1
s.(dp0
Vcyuq9qb
p1
I1
sVd5wy993
p2
I1
s.(dp0
Vd5x4ujy
p1
I1
sVcyuq9qb
p2
I1
s.(dp0
Vcyuq9qb
p1
I1
sVd5x9kg0
p2
I1
s.(dp0
Vcyuq9qb
p1
I1
sVd6ddk5g
p2
I1
s.(dp0
Vd6ddkmm
p1
I1
sVcyuq9qb
p2
I1
s.(dp0
Vd6ho1zc
p1
I1
sVcyuq9qb
p2
I1
s.(dp0
Vd713pak
p1
I1
sVcyuq9qb
p2
I1
s.(dp0
Vcyuq9qb
p1
I1
sVd7338ch
p2
I1
s.(dp0
Vd7hgn3p
p1
I1
sVcyuq9qb
p2
I1
s.(dp0
Vcyuq9qb
p1
I1
sVd82vk3c
p2
I1
s.(dp0
Vcyuq9qb
p1
I1
sVd8mygl7
p2
I1
s.(dp0
Vcyuq9qb
p1
I1
sVd99lp3f
p2
I1
s.(dp0
Vda2zmba
p1
I1
sVcyuq9qb
p2
I1
s.(dp0
Vdanjdas
p1
I1
sVcyuq9qb
p2
I1
s.(dp0
Vdanjdas
p1
I1
sVcyuq9qb
p2
I1
s.(dp0
Vdao3itb
p1
I1
sVcyuq9qb
p2
I1
s.(dp0
Vdapo4sb
p1
I1
sVcyuq9qb
p2
I1
s.(dp0
Vdavekzt
p1
I1
sVcyuq9qb
p2
I1
s.(dp0
Vdavekzt
p1
I1
sVcyuq9qb
p2
I1
s.(dp0
Vdayfn56
p1
I1
sVcyuq9qb
p2
I1
s.(dp0
Vdbhj6cr
p1
I1
sVcyuq9qb
p2
I1
s.(dp0
Vcyuq9qb
p1
I1
sVdblqgxn
p2
I1
s.(dp0
Vcyuq9qb
p1
I1
sVdceion6
p2
I1
s.(dp0
Vdcmt1uh
p1
I1
sVcyuq9qb
p2
I1
s.(dp0
Vdcxhyqd
p1
I1
sVcyuq9qb
p2
I1
s.(dp0
Vcyuq9qb
p1
I1
sVdda0buv
p2
I1
s.(dp0
Vcyuq9qb
p1
I1
sVdda0buv
p2
I1
s.(dp0
Vcyuq9qb
p1
I1
sVdderj9z
p2
I1
s.(dp0
Vcyuq9qb
p1
I1
sVdderj9z
p2
I1
s.(dp0
Vcyuq9qb
p1
I1
sVdderj9z
p2
I1
s.(dp0
Vde8tdq6
p1
I1
sVcyuq9qb
p2
I1
s.(dp0
Vde9dfq6
p1
I1
sVcyuq9qb
p2
I1
s.(dp0
Vdecirwp
p1
I1
sVcyuq9qb
p2
I1
s.(dp0
Vdeivmcj
p1
I1
sVcyuq9qb
p2
I1
s.(dp0
Vcyuq9qb
p1
I1
sVdeivpiz
p2
I1
s.(dp0
Vcyuq9qb
p1
I1
sVdeivpiz
p2
I1
s.(dp0
Vcyuq9qb
p1
I1
sVdeivpz7
p2
I1
s.(dp0
Vdelda0l
p1
I1
sVcyuq9qb
p2
I1
s.(dp0
Vcyuq9qb
p1
I1
sVdergrpf
p2
I1
s.(dp0
Vcyuq9qb
p1
I1
sVderhlkl
p2
I1
s.(dp0
Vdeymcq2
p1
I1
sVcyuq9qb
p2
I1
s.(dp0
Vdezlwth
p1
I1
sVcyuq9qb
p2
I1
s.(dp0
Vcyuq9qb
p1
I1
sVdf84lue
p2
I1
s.(dp0
Vdfdmdoc
p1
I1
sVcyuq9qb
p2
I1
s.(dp0
Vdfoan36
p1
I1
sVcyuq9qb
p2
I1
s.(dp0
Vdfoan36
p1
I1
sVcyuq9qb
p2
I1
s.(dp0
Vdfq52yj
p1
I1
sVcyuq9qb
p2
I1
s.(dp0
Vcyuq9qb
p1
I1
sVdg1njij
p2
I1
s.(dp0
Vcyuq9qb
p1
I1
sVdgfaiun
p2
I1
s.(dp0
Vdhg214c
p1
I1
sVcyuq9qb
p2
I1
s.(dp0
Vdhgdrlf
p1
I1
sVcyuq9qb
p2
I1
s.(dp0
Vcyuq9qb
p1
I1
sVdhy10ni
p2
I1
s.(dp0
Vcyuq9qb
p1
I1
sVdi23tjo
p2
I1
s.(dp0
Vdil9ck0
p1
I1
sVcyuq9qb
p2
I1
s.(dp0
Vditcnfl
p1
I1
sVcyuq9qb
p2
I1
s.(dp0
Vdjbg3bg
p1
I1
sVcyuq9qb
p2
I1
s.(dp0
Vdjr7l71
p1
I1
sVcyuq9qb
p2
I1
s.(dp0
Vdkaw3bg
p1
I1
sVcyuq9qb
p2
I1
s.(dp0
Vdkaw3bg
p1
I1
sVcyuq9qb
p2
I1
s.(dp0
Vcyuq9qb
p1
I1
sVdkaw8b2
p2
I1
s.(dp0
Vcyuq9qb
p1
I1
sVdkhrfcx
p2
I1
s.(dp0
Vdkm7mgs
p1
I1
sVcyuq9qb
p2
I1
s.(dp0
Vdksaq6t
p1
I1
sVcyuq9qb
p2
I1
s.