(dp0
Vcz1nguh
p1
I1
s.(dp0
Vcz1nguh
p1
I1
sVcz4jl9c
p2
I1
s.(dp0
Vcz1nguh
p1
I1
sVcz4y7an
p2
I1
s.(dp0
Vcz1nguh
p1
I1
sVcz7m1u6
p2
I1
s.(dp0
Vcz1nguh
p1
I1
sVczgqjuu
p2
I1
s.(dp0
Vcz1nguh
p1
I1
sVczhd7dn
p2
I1
s.(dp0
Vcz1nguh
p1
I1
sVczpx51l
p2
I1
s.(dp0
Vcz1nguh
p1
I1
sVczpzm0s
p2
I1
s.(dp0
Vcz1nguh
p1
I1
sVd0h13h0
p2
I1
s.(dp0
Vcz1nguh
p1
I1
sVd14nqlx
p2
I1
s.(dp0
Vcz1nguh
p1
I1
sVd1izcvy
p2
I1
s.(dp0
Vd1mxp2s
p1
I1
sVcz1nguh
p2
I1
s.(dp0
Vcz1nguh
p1
I1
sVd1ybq2m
p2
I1
s.(dp0
Vcz1nguh
p1
I1
sVd22ykec
p2
I1
s.(dp0
Vcz1nguh
p1
I1
sVd250n9p
p2
I1
s.(dp0
Vcz1nguh
p1
I1
sVd2bpzgi
p2
I1
s.(dp0
Vcz1nguh
p1
I1
sVd2e55sz
p2
I1
s.(dp0
Vcz1nguh
p1
I1
sVd2e55sz
p2
I1
s.(dp0
Vd2o364q
p1
I1
sVcz1nguh
p2
I1
s.(dp0
Vd3qdo1c
p1
I1
sVcz1nguh
p2
I1
s.(dp0
Vcz1nguh
p1
I1
sVd4wsxkk
p2
I1
s.(dp0
Vcz1nguh
p1
I1
sVd58c5fe
p2
I1
s.(dp0
Vcz1nguh
p1
I1
sVd6qfuwc
p2
I1
s.(dp0
Vd759w6e
p1
I1
sVcz1nguh
p2
I1
s.(dp0
Vcz1nguh
p1
I1
sVd7sjdx1
p2
I1
s.(dp0
Vd8gpep1
p1
I1
sVcz1nguh
p2
I1
s.(dp0
Vd8i3v4i
p1
I1
sVcz1nguh
p2
I1
s.(dp0
Vcz1nguh
p1
I1
sVd94tbdr
p2
I1
s.(dp0
Vcz1nguh
p1
I1
sVd9zjx5q
p2
I1
s.(dp0
Vcz1nguh
p1
I1
sVda90n9w
p2
I1
s.(dp0
Vcz1nguh
p1
I1
sVdb0djwb
p2
I1
s.(dp0
Vcz1nguh
p1
I1
sVdb6r1qh
p2
I1
s.(dp0
Vcz1nguh
p1
I1
sVdb78eef
p2
I1
s.(dp0
Vcz1nguh
p1
I1
sVdb7rdyq
p2
I1
s.(dp0
Vcz1nguh
p1
I1
sVdb8c9cg
p2
I1
s.(dp0
Vcz1nguh
p1
I1
sVdbhvk42
p2
I1
s.(dp0
Vcz1nguh
p1
I1
sVdbkroep
p2
I1
s.(dp0
Vcz1nguh
p1
I1
sVdbzln3n
p2
I1
s.(dp0
Vcz1nguh
p1
I1
sVdcc1zy1
p2
I1
s.(dp0
Vcz1nguh
p1
I1
sVdcquejf
p2
I1
s.(dp0
Vcz1nguh
p1
I1
sVdctldi3
p2
I1
s.(dp0
Vcz1nguh
p1
I1
sVdcw3eah
p2
I1
s.(dp0
Vcz1nguh
p1
I1
sVdd3pk9n
p2
I1
s.(dp0
Vcz1nguh
p1
I1
sVdd3xaoi
p2
I1
s.(dp0
Vcz1nguh
p1
I1
sVdd3xaoi
p2
I1
s.(dp0
Vcz1nguh
p1
I1
sVdd6t358
p2
I1
s.(dp0
Vcz1nguh
p1
I1
sVdd6vnnl
p2
I1
s.(dp0
Vddanwba
p1
I1
sVcz1nguh
p2
I1
s.(dp0
Vcz1nguh
p1
I1
sVddoky9l
p2
I1
s.(dp0
Vcz1nguh
p1
I1
sVddrkpx4
p2
I1
s.(dp0
Vcz1nguh
p1
I1
sVde7q81n
p2
I1
s.(dp0
Vcz1nguh
p1
I1
sVde90phf
p2
I1
s.(dp0
Vcz1nguh
p1
I1
sVdecle2b
p2
I1
s.(dp0
Vcz1nguh
p1
I1
sVdecle2b
p2
I1
s.(dp0
Vdeo5y9j
p1
I1
sVcz1nguh
p2
I1
s.(dp0
Vcz1nguh
p1
I1
sVdeuaj0a
p2
I1
s.(dp0
Vcz1nguh
p1
I1
sVdfgtkp2
p2
I1
s.(dp0
Vcz1nguh
p1
I1
sVdg8epj0
p2
I1
s.(dp0
Vcz1nguh
p1
I1
sVdgknryx
p2
I1
s.(dp0
Vcz1nguh
p1
I1
sVdgm6vij
p2
I1
s.(dp0
Vcz1nguh
p1
I1
sVdhmdvo4
p2
I1
s.(dp0
Vcz1nguh
p1
I1
sVdifesa8
p2
I1
s.(dp0
Vcz1nguh
p1
I1
sVdij27lq
p2
I1
s.(dp0
Vcz1nguh
p1
I1
sVdikau7o
p2
I1
s.(dp0
Vcz1nguh
p1
I1
sVdikjtcj
p2
I1
s.(dp0
Vdilxulm
p1
I1
sVcz1nguh
p2
I1
s.(dp0
Vcz1nguh
p1
I1
sVdj4n6h6
p2
I1
s.(dp0
Vcz1nguh
p1
I1
sVdklk4rk
p2
I1
s.