(dp0
Vcyjq2bc
p1
I1
s.(dp0
Vcyjq2bc
p1
I1
sVd008inj
p2
I1
s.(dp0
Vcyjq2bc
p1
I1
sVd0j3jxy
p2
I1
s.(dp0
Vcyjq2bc
p1
I1
sVd28ksyz
p2
I1
s.(dp0
Vcyjq2bc
p1
I1
sVd3c4s7q
p2
I1
s.(dp0
Vcyjq2bc
p1
I1
sVd3e7vrb
p2
I1
s.(dp0
Vcyjq2bc
p1
I1
sVd3hlqmd
p2
I1
s.(dp0
Vcyjq2bc
p1
I1
sVd3n86k5
p2
I1
s.(dp0
Vcyjq2bc
p1
I1
sVd572bno
p2
I1
s.(dp0
Vcyjq2bc
p1
I1
sVd5bhli6
p2
I1
s.(dp0
Vd5dy38p
p1
I1
sVcyjq2bc
p2
I1
s.(dp0
Vd5dy38p
p1
I1
sVcyjq2bc
p2
I1
s.(dp0
Vcyjq2bc
p1
I1
sVd5g5i0t
p2
I1
s.(dp0
Vcyjq2bc
p1
I1
sVd5omus0
p2
I1
s.(dp0
Vcyjq2bc
p1
I1
sVd5omus0
p2
I1
s.(dp0
Vcyjq2bc
p1
I1
sVd6wskl5
p2
I1
s.(dp0
Vcyjq2bc
p1
I1
sVd7alccb
p2
I1
s.(dp0
Vcyjq2bc
p1
I1
sVd7kkt67
p2
I1
s.(dp0
Vcyjq2bc
p1
I1
sVd7kkt67
p2
I1
s.(dp0
Vd8hm615
p1
I1
sVcyjq2bc
p2
I1
s.(dp0
Vd8hm615
p1
I1
sVcyjq2bc
p2
I1
s.(dp0
Vd8hm615
p1
I1
sVcyjq2bc
p2
I1
s.(dp0
Vd8hm615
p1
I1
sVcyjq2bc
p2
I1
s.(dp0
Vcyjq2bc
p1
I1
sVd8uker7
p2
I1
s.(dp0
Vcyjq2bc
p1
I1
sVd8uker7
p2
I1
s.(dp0
Vcyjq2bc
p1
I1
sVd9kh25l
p2
I1
s.(dp0
Vcyjq2bc
p1
I1
sVda0l4ed
p2
I1
s.(dp0
Vcyjq2bc
p1
I1
sVdajr89w
p2
I1
s.(dp0
Vcyjq2bc
p1
I1
sVdbgjvvb
p2
I1
s.(dp0
Vcyjq2bc
p1
I1
sVdbsaeju
p2
I1
s.(dp0
Vcyjq2bc
p1
I1
sVdd3ot9o
p2
I1
s.(dp0
Vcyjq2bc
p1
I1
sVdd9h1c9
p2
I1
s.(dp0
Vcyjq2bc
p1
I1
sVddgknvs
p2
I1
s.(dp0
Vcyjq2bc
p1
I1
sVde30e7a
p2
I1
s.(dp0
Vcyjq2bc
p1
I1
sVde30e7a
p2
I1
s.(dp0
Vde5aaba
p1
I1
sVcyjq2bc
p2
I1
s.(dp0
Vcyjq2bc
p1
I1
sVdenvne4
p2
I1
s.(dp0
Vcyjq2bc
p1
I1
sVdflyaqo
p2
I1
s.(dp0
Vdfm9mqm
p1
I1
sVcyjq2bc
p2
I1
s.(dp0
Vdfm9mqm
p1
I1
sVcyjq2bc
p2
I1
s.(dp0
Vdfm9mqm
p1
I1
sVcyjq2bc
p2
I1
s.(dp0
Vdg0zeb7
p1
I1
sVcyjq2bc
p2
I1
s.(dp0
Vcyjq2bc
p1
I1
sVdgng8kn
p2
I1
s.(dp0
Vcyjq2bc
p1
I1
sVdhcm8h8
p2
I1
s.(dp0
Vcyjq2bc
p1
I1
sVdi04y5c
p2
I1
s.(dp0
Vcyjq2bc
p1
I1
sVdibmir4
p2
I1
s.(dp0
Vdmmqsjc
p1
I1
sVcyjq2bc
p2
I1
s.(dp0
Vdmqbr7x
p1
I1
sVcyjq2bc
p2
I1
s.(dp0
Vcyjq2bc
p1
I1
sVdnvmk7r
p2
I1
s.(dp0
Vcyjq2bc
p1
I1
sVdnvmk7r
p2
I1
s.(dp0
Vcyjq2bc
p1
I1
sVdnvmk7r
p2
I1
s.(dp0
Vcyjq2bc
p1
I1
sVdnvmk7r
p2
I1
s.