(dp0
Vcyncmbq
p1
I1
s.(dp0
Vczbmzfj
p1
I1
sVcyncmbq
p2
I1
s.(dp0
Vd38qt0h
p1
I1
sVcyncmbq
p2
I1
s.(dp0
Vcyncmbq
p1
I1
sVd3ca9mw
p2
I1
s.(dp0
Vd65otsa
p1
I1
sVcyncmbq
p2
I1
s.(dp0
Vcyncmbq
p1
I1
sVdaqj7xo
p2
I1
s.(dp0
Vdaquxcu
p1
I1
sVcyncmbq
p2
I1
s.(dp0
Vdaquxcu
p1
I1
sVcyncmbq
p2
I1
s.(dp0
Vddcxbnr
p1
I1
sVcyncmbq
p2
I1
s.(dp0
Vcyncmbq
p1
I1
sVdf91nxr
p2
I1
s.(dp0
Vdhsx3vi
p1
I1
sVcyncmbq
p2
I1
s.(dp0
Vdhsx3vi
p1
I1
sVcyncmbq
p2
I1
s.(dp0
Vdihf7hc
p1
I1
sVcyncmbq
p2
I1
s.(dp0
Vdirehzk
p1
I1
sVcyncmbq
p2
I1
s.(dp0
Vdirehzk
p1
I1
sVcyncmbq
p2
I1
s.