(dp0
Vd2bygw3
p1
I1
s.(dp0
Vd2wyiuc
p1
I1
sVd2bygw3
p2
I1
s.(dp0
Vd3i7eks
p1
I1
sVd2bygw3
p2
I1
s.(dp0
Vd3rewsv
p1
I1
sVd2bygw3
p2
I1
s.(dp0
Vd8dkxz5
p1
I1
sVd2bygw3
p2
I1
s.(dp0
Vdhxu1ee
p1
I1
sVd2bygw3
p2
I1
s.(dp0
Vdhxu1ee
p1
I1
sVd2bygw3
p2
I1
s.(dp0
Vdhxufjq
p1
I1
sVd2bygw3
p2
I1
s.(dp0
Vdiabo0c
p1
I1
sVd2bygw3
p2
I1
s.