(dp0
Vd03psdb
p1
I1
s.(dp0
Vd09j432
p1
I1
sVd03psdb
p2
I1
s.(dp0
Vd09j432
p1
I1
sVd03psdb
p2
I1
s.(dp0
Vd03psdb
p1
I1
sVd09pojt
p2
I1
s.(dp0
Vd03psdb
p1
I1
sVd2de27o
p2
I1
s.(dp0
Vd2xu2c9
p1
I1
sVd03psdb
p2
I1
s.(dp0
Vd2ztz0i
p1
I1
sVd03psdb
p2
I1
s.(dp0
Vd79cs89
p1
I1
sVd03psdb
p2
I1
s.(dp0
Vd03psdb
p1
I1
sVddog6ia
p2
I1
s.(dp0
Vdhay75y
p1
I1
sVd03psdb
p2
I1
s.(dp0
Vd03psdb
p1
I1
sVdids37i
p2
I1
s.(dp0
Vdirehzk
p1
I1
sVd03psdb
p2
I1
s.(dp0
Vdiv8oir
p1
I1
sVd03psdb
p2
I1
s.(dp0
Vd03psdb
p1
I1
sVdj870nl
p2
I1
s.(dp0
Vd03psdb
p1
I1
sVdj870nl
p2
I1
s.(dp0
Vd03psdb
p1
I1
sVdo4392o
p2
I1
s.