(dp0
Vcyst3hm
p1
I1
s.(dp0
Vczwy46x
p1
I1
sVcyst3hm
p2
I1
s.(dp0
Vczwy46x
p1
I1
sVcyst3hm
p2
I1
s.(dp0
Vd2w9c6c
p1
I1
sVcyst3hm
p2
I1
s.(dp0
Vcyst3hm
p1
I1
sVd3r5twa
p2
I1
s.(dp0
Vd9k9jjt
p1
I1
sVcyst3hm
p2
I1
s.(dp0
Vdcyusil
p1
I1
sVcyst3hm
p2
I1
s.(dp0
Vdhaxa64
p1
I1
sVcyst3hm
p2
I1
s.