(dp0
Vczfnwsy
p1
I1
s.(dp0
Vd26htcw
p1
I1
sVczfnwsy
p2
I1
s.(dp0
Vd82qck3
p1
I1
sVczfnwsy
p2
I1
s.(dp0
Vdbn1l4c
p1
I1
sVczfnwsy
p2
I1
s.(dp0
Vdf5ceoo
p1
I1
sVczfnwsy
p2
I1
s.(dp0
Vczfnwsy
p1
I1
sVdj03pe0
p2
I1
s.