(dp0
Vcyzxvzv
p1
I1
s.(dp0
Vcyzxvzv
p1
I1
sVd16c2n9
p2
I1
s.(dp0
Vcyzxvzv
p1
I1
sVd1ghcuv
p2
I1
s.(dp0
Vd2apfs1
p1
I1
sVcyzxvzv
p2
I1
s.(dp0
Vcyzxvzv
p1
I1
sVd2bfi61
p2
I1
s.(dp0
Vcyzxvzv
p1
I1
sVd2dxcsd
p2
I1
s.(dp0
Vcyzxvzv
p1
I1
sVd2id07t
p2
I1
s.(dp0
Vcyzxvzv
p1
I1
sVd2szqaa
p2
I1
s.(dp0
Vd3cg9j7
p1
I1
sVcyzxvzv
p2
I1
s.(dp0
Vcyzxvzv
p1
I1
sVd7s4545
p2
I1
s.(dp0
Vdf4btg2
p1
I1
sVcyzxvzv
p2
I1
s.(dp0
Vcyzxvzv
p1
I1
sVdgc9zf2
p2
I1
s.