(dp0
Vd31h87x
p1
I1
s.(dp0
Vd3mv1g5
p1
I1
sVd31h87x
p2
I1
s.(dp0
Vd8ho35j
p1
I1
sVd31h87x
p2
I1
s.(dp0
Vda7wfgi
p1
I1
sVd31h87x
p2
I1
s.(dp0
Vda7wfgi
p1
I1
sVd31h87x
p2
I1
s.(dp0
Vd31h87x
p1
I1
sVday8p86
p2
I1
s.(dp0
Vd31h87x
p1
I1
sVdbcnbev
p2
I1
s.(dp0
Vdbkz1l0
p1
I1
sVd31h87x
p2
I1
s.(dp0
Vdbwgsf7
p1
I1
sVd31h87x
p2
I1
s.(dp0
Vddiiqcx
p1
I1
sVd31h87x
p2
I1
s.(dp0
Vdgmiy9s
p1
I1
sVd31h87x
p2
I1
s.(dp0
Vdgn2e2w
p1
I1
sVd31h87x
p2
I1
s.(dp0
Vdho7n93
p1
I1
sVd31h87x
p2
I1
s.(dp0
Vdho7n93
p1
I1
sVd31h87x
p2
I1
s.(dp0
Vdj2xbcd
p1
I1
sVd31h87x
p2
I1
s.(dp0
Vdja3hkl
p1
I1
sVd31h87x
p2
I1
s.