(dp0
Vcylx47j
p1
I1
s.(dp0
Vcylx47j
p1
I1
sVcynqmdt
p2
I1
s.(dp0
Vcylx47j
p1
I1
sVcypi2re
p2
I1
s.(dp0
Vcylx47j
p1
I1
sVcyptys7
p2
I1
s.(dp0
Vcylx47j
p1
I1
sVcyvkyj6
p2
I1
s.(dp0
Vcylx47j
p1
I1
sVcywclrt
p2
I1
s.(dp0
Vcylx47j
p1
I1
sVcyxw45o
p2
I1
s.(dp0
Vcylx47j
p1
I1
sVczhwwhf
p2
I1
s.(dp0
Vcylx47j
p1
I1
sVd15g7wv
p2
I1
s.(dp0
Vcylx47j
p1
I1
sVd1qauqg
p2
I1
s.(dp0
Vcylx47j
p1
I1
sVd25oda8
p2
I1
s.(dp0
Vcylx47j
p1
I1
sVd2dtsm5
p2
I1
s.(dp0
Vcylx47j
p1
I1
sVd68rtj7
p2
I1
s.(dp0
Vcylx47j
p1
I1
sVd7bsaau
p2
I1
s.(dp0
Vcylx47j
p1
I1
sVd7q88q6
p2
I1
s.(dp0
Vcylx47j
p1
I1
sVd8m3fyl
p2
I1
s.(dp0
Vcylx47j
p1
I1
sVd9xc0l1
p2
I1
s.(dp0
Vcylx47j
p1
I1
sVda7k0yo
p2
I1
s.(dp0
Vcylx47j
p1
I1
sVdb1kztp
p2
I1
s.(dp0
Vcylx47j
p1
I1
sVdb63ev4
p2
I1
s.(dp0
Vcylx47j
p1
I1
sVdckvnjs
p2
I1
s.(dp0
Vcylx47j
p1
I1
sVdcmgjww
p2
I1
s.(dp0
Vcylx47j
p1
I1
sVdcuk32k
p2
I1
s.(dp0
Vcylx47j
p1
I1
sVdcvf3tz
p2
I1
s.(dp0
Vcylx47j
p1
I1
sVdd870a7
p2
I1
s.(dp0
Vcylx47j
p1
I1
sVdd9hnhd
p2
I1
s.(dp0
Vcylx47j
p1
I1
sVdd9s44i
p2
I1
s.(dp0
Vcylx47j
p1
I1
sVddg0p3j
p2
I1
s.(dp0
Vcylx47j
p1
I1
sVddg9mea
p2
I1
s.(dp0
Vcylx47j
p1
I1
sVddi93t3
p2
I1
s.(dp0
Vcylx47j
p1
I1
sVddiq7i5
p2
I1
s.(dp0
Vcylx47j
p1
I1
sVdecq3d5
p2
I1
s.(dp0
Vcylx47j
p1
I1
sVdfnyb07
p2
I1
s.(dp0
Vcylx47j
p1
I1
sVdh9r1tw
p2
I1
s.(dp0
Vcylx47j
p1
I1
sVdhea3rl
p2
I1
s.(dp0
Vcylx47j
p1
I1
sVdheabh6
p2
I1
s.(dp0
Vcylx47j
p1
I1
sVdhf7pfg
p2
I1
s.(dp0
Vcylx47j
p1
I1
sVdiai2i4
p2
I1
s.(dp0
Vcylx47j
p1
I1
sVdjys4be
p2
I1
s.(dp0
Vcylx47j
p1
I1
sVdkdmmp7
p2
I1
s.(dp0
Vcylx47j
p1
I1
sVdkssp8g
p2
I1
s.(dp0
Vcylx47j
p1
I1
sVdokj9wz
p2
I1
s.