(dp0
Vcylz3sr
p1
I1
s.(dp0
Vcysp8u9
p1
I1
sVcylz3sr
p2
I1
s.(dp0
Vcz8ug6d
p1
I1
sVcylz3sr
p2
I1
s.(dp0
Vcylz3sr
p1
I1
sVczb4mz5
p2
I1
s.(dp0
Vcylz3sr
p1
I1
sVczb4mz5
p2
I1
s.(dp0
Vcylz3sr
p1
I1
sVczhorj8
p2
I1
s.(dp0
Vczqtea5
p1
I1
sVcylz3sr
p2
I1
s.(dp0
Vcylz3sr
p1
I1
sVd1chykt
p2
I1
s.(dp0
Vd1nyh7d
p1
I1
sVcylz3sr
p2
I1
s.(dp0
Vcylz3sr
p1
I1
sVd1v3skg
p2
I1
s.(dp0
Vcylz3sr
p1
I1
sVd1wv9dw
p2
I1
s.(dp0
Vd216xnd
p1
I1
sVcylz3sr
p2
I1
s.(dp0
Vd216xnd
p1
I1
sVcylz3sr
p2
I1
s.(dp0
Vd216xnd
p1
I1
sVcylz3sr
p2
I1
s.(dp0
Vd2cb0mx
p1
I1
sVcylz3sr
p2
I1
s.(dp0
Vd2gmp9f
p1
I1
sVcylz3sr
p2
I1
s.(dp0
Vcylz3sr
p1
I1
sVd2ls2yf
p2
I1
s.(dp0
Vcylz3sr
p1
I1
sVd2wr0p7
p2
I1
s.(dp0
Vcylz3sr
p1
I1
sVd2wr0p7
p2
I1
s.(dp0
Vd33pc4o
p1
I1
sVcylz3sr
p2
I1
s.(dp0
Vcylz3sr
p1
I1
sVd3yjh17
p2
I1
s.(dp0
Vd4mqftc
p1
I1
sVcylz3sr
p2
I1
s.(dp0
Vcylz3sr
p1
I1
sVd4snapv
p2
I1
s.(dp0
Vd4tgift
p1
I1
sVcylz3sr
p2
I1
s.(dp0
Vcylz3sr
p1
I1
sVd57kk1x
p2
I1
s.(dp0
Vd58nq47
p1
I1
sVcylz3sr
p2
I1
s.(dp0
Vcylz3sr
p1
I1
sVd59cwfb
p2
I1
s.(dp0
Vd5lxsj6
p1
I1
sVcylz3sr
p2
I1
s.(dp0
Vcylz3sr
p1
I1
sVd5m94yr
p2
I1
s.(dp0
Vcylz3sr
p1
I1
sVd5poxal
p2
I1
s.(dp0
Vcylz3sr
p1
I1
sVd6oqxzj
p2
I1
s.(dp0
Vda0m5ie
p1
I1
sVcylz3sr
p2
I1
s.(dp0
Vcylz3sr
p1
I1
sVda15u8z
p2
I1
s.(dp0
Vdan80v1
p1
I1
sVcylz3sr
p2
I1
s.(dp0
Vdbsias7
p1
I1
sVcylz3sr
p2
I1
s.(dp0
Vdceupxh
p1
I1
sVcylz3sr
p2
I1
s.(dp0
Vdcgj52u
p1
I1
sVcylz3sr
p2
I1
s.(dp0
Vdd4pp1t
p1
I1
sVcylz3sr
p2
I1
s.(dp0
Vddi4xmc
p1
I1
sVcylz3sr
p2
I1
s.(dp0
Vddoa3a7
p1
I1
sVcylz3sr
p2
I1
s.(dp0
Vde7pvlz
p1
I1
sVcylz3sr
p2
I1
s.(dp0
Vdfr59ow
p1
I1
sVcylz3sr
p2
I1
s.(dp0
Vdgdyx8t
p1
I1
sVcylz3sr
p2
I1
s.(dp0
Vdgi0dby
p1
I1
sVcylz3sr
p2
I1
s.(dp0
Vdgxlkm8
p1
I1
sVcylz3sr
p2
I1
s.(dp0
Vdgy89mf
p1
I1
sVcylz3sr
p2
I1
s.(dp0
Vdh6eipw
p1
I1
sVcylz3sr
p2
I1
s.(dp0
Vdils201
p1
I1
sVcylz3sr
p2
I1
s.(dp0
Vdiymsoa
p1
I1
sVcylz3sr
p2
I1
s.(dp0
Vdjn0au3
p1
I1
sVcylz3sr
p2
I1
s.(dp0
Vcylz3sr
p1
I1
sVdjvbilw
p2
I1
s.