(dp0
Vcz5c8l9
p1
I1
s.(dp0
Vd21dftw
p1
I1
sVcz5c8l9
p2
I1
s.(dp0
Vd74c50v
p1
I1
sVcz5c8l9
p2
I1
s.(dp0
Vd9g01rg
p1
I1
sVcz5c8l9
p2
I1
s.(dp0
Vd9jp0tt
p1
I1
sVcz5c8l9
p2
I1
s.(dp0
Vdadnzkt
p1
I1
sVcz5c8l9
p2
I1
s.(dp0
Vdjrn854
p1
I1
sVcz5c8l9
p2
I1
s.