(dp0
Vczz69u3
p1
I1
s.(dp0
Vd01zbpd
p1
I1
sVczz69u3
p2
I1
s.(dp0
Vd051gq2
p1
I1
sVczz69u3
p2
I1
s.(dp0
Vd0zi3vv
p1
I1
sVczz69u3
p2
I1
s.(dp0
Vd19hipq
p1
I1
sVczz69u3
p2
I1
s.(dp0
Vd1tpt5a
p1
I1
sVczz69u3
p2
I1
s.(dp0
Vd21hyq7
p1
I1
sVczz69u3
p2
I1
s.(dp0
Vd27x9eg
p1
I1
sVczz69u3
p2
I1
s.(dp0
Vd35ey6k
p1
I1
sVczz69u3
p2
I1
s.(dp0
Vd4kxx4b
p1
I1
sVczz69u3
p2
I1
s.(dp0
Vd630z7d
p1
I1
sVczz69u3
p2
I1
s.(dp0
Vd6ejgya
p1
I1
sVczz69u3
p2
I1
s.(dp0
Vd936al5
p1
I1
sVczz69u3
p2
I1
s.(dp0
Vd95s9nx
p1
I1
sVczz69u3
p2
I1
s.(dp0
Vdcbho3u
p1
I1
sVczz69u3
p2
I1
s.(dp0
Vdd4rok0
p1
I1
sVczz69u3
p2
I1
s.(dp0
Vdd4wtfz
p1
I1
sVczz69u3
p2
I1
s.(dp0
Vdd4zbr9
p1
I1
sVczz69u3
p2
I1
s.(dp0
Vdd50f3m
p1
I1
sVczz69u3
p2
I1
s.(dp0
Vdd5d55m
p1
I1
sVczz69u3
p2
I1
s.(dp0
Vddan6kj
p1
I1
sVczz69u3
p2
I1
s.(dp0
Vdddr7cd
p1
I1
sVczz69u3
p2
I1
s.(dp0
Vddeo0j6
p1
I1
sVczz69u3
p2
I1
s.(dp0
Vdfyo6qf
p1
I1
sVczz69u3
p2
I1
s.(dp0
Vdjanmdl
p1
I1
sVczz69u3
p2
I1
s.