(dp0
Vcyih9zy
p1
I1
s.(dp0
Vcyih9zy
p1
I1
sVcyikjrv
p2
I1
s.(dp0
Vcyih9zy
p1
I1
sVcyirwtv
p2
I1
s.(dp0
Vcyih9zy
p1
I1
sVcyisaf1
p2
I1
s.(dp0
Vcyih9zy
p1
I1
sVcyjcswz
p2
I1
s.(dp0
Vcyih9zy
p1
I1
sVcykmlpq
p2
I1
s.(dp0
Vcyih9zy
p1
I1
sVcylkb59
p2
I1
s.(dp0
Vcyih9zy
p1
I1
sVcyllebw
p2
I1
s.(dp0
Vcyih9zy
p1
I1
sVcylusf2
p2
I1
s.(dp0
Vcyih9zy
p1
I1
sVcym529j
p2
I1
s.(dp0
Vcyih9zy
p1
I1
sVcymxduz
p2
I1
s.(dp0
Vcyih9zy
p1
I1
sVcyns87e
p2
I1
s.(dp0
Vcyih9zy
p1
I1
sVcynzut0
p2
I1
s.(dp0
Vcyih9zy
p1
I1
sVcyo1ne1
p2
I1
s.(dp0
Vcyih9zy
p1
I1
sVcyo1ne1
p2
I1
s.(dp0
Vcyih9zy
p1
I1
sVcyovlmm
p2
I1
s.(dp0
Vcyih9zy
p1
I1
sVcyps2t0
p2
I1
s.(dp0
Vcyih9zy
p1
I1
sVcyps2t0
p2
I1
s.(dp0
Vcyih9zy
p1
I1
sVcyps2t0
p2
I1
s.(dp0
Vcyih9zy
p1
I1
sVcyqm5ib
p2
I1
s.(dp0
Vcyih9zy
p1
I1
sVcyqwozs
p2
I1
s.(dp0
Vcyih9zy
p1
I1
sVcyr05bs
p2
I1
s.(dp0
Vcyih9zy
p1
I1
sVcyrqhu5
p2
I1
s.(dp0
Vcyih9zy
p1
I1
sVcys0xcs
p2
I1
s.(dp0
Vcyih9zy
p1
I1
sVcyt4k4q
p2
I1
s.(dp0
Vcyih9zy
p1
I1
sVcythrgl
p2
I1
s.(dp0
Vcyih9zy
p1
I1
sVcytojae
p2
I1
s.(dp0
Vcyih9zy
p1
I1
sVcyty9tc
p2
I1
s.(dp0
Vcyih9zy
p1
I1
sVcyus4o7
p2
I1
s.(dp0
Vcyih9zy
p1
I1
sVcyuylfi
p2
I1
s.(dp0
Vcyih9zy
p1
I1
sVcyv5eut
p2
I1
s.(dp0
Vcyih9zy
p1
I1
sVcywlgro
p2
I1
s.(dp0
Vcyih9zy
p1
I1
sVcywlgro
p2
I1
s.(dp0
Vcyih9zy
p1
I1
sVcywnp7o
p2
I1
s.(dp0
Vcyih9zy
p1
I1
sVcyxcd5k
p2
I1
s.(dp0
Vcyih9zy
p1
I1
sVcyxkshx
p2
I1
s.(dp0
Vcyih9zy
p1
I1
sVcyxxrut
p2
I1
s.(dp0
Vcyih9zy
p1
I1
sVcyytafp
p2
I1
s.(dp0
Vcyih9zy
p1
I1
sVcyytafp
p2
I1
s.(dp0
Vcyih9zy
p1
I1
sVcyz47li
p2
I1
s.(dp0
Vcyih9zy
p1
I1
sVcyznlfl
p2
I1
s.(dp0
Vcyih9zy
p1
I1
sVcz00gos
p2
I1
s.(dp0
Vcyih9zy
p1
I1
sVcz051b4
p2
I1
s.(dp0
Vcyih9zy
p1
I1
sVcz0pez3
p2
I1
s.(dp0
Vcyih9zy
p1
I1
sVcz0xk6i
p2
I1
s.(dp0
Vcyih9zy
p1
I1
sVcz1krg8
p2
I1
s.(dp0
Vcyih9zy
p1
I1
sVcz2wwd3
p2
I1
s.(dp0
Vcyih9zy
p1
I1
sVcz4szvd
p2
I1
s.(dp0
Vcyih9zy
p1
I1
sVcz4szvd
p2
I1
s.(dp0
Vcyih9zy
p1
I1
sVcz4x1ux
p2
I1
s.(dp0
Vcyih9zy
p1
I1
sVcz58omw
p2
I1
s.(dp0
Vcyih9zy
p1
I1
sVcz5sq7q
p2
I1
s.(dp0
Vcyih9zy
p1
I1
sVcz5wztd
p2
I1
s.(dp0
Vcyih9zy
p1
I1
sVcz6402l
p2
I1
s.(dp0
Vcyih9zy
p1
I1
sVcz6idb8
p2
I1
s.(dp0
Vcyih9zy
p1
I1
sVcz76orz
p2
I1
s.(dp0
Vcyih9zy
p1
I1
sVcz7etnd
p2
I1
s.(dp0
Vcyih9zy
p1
I1
sVcz7i34d
p2
I1
s.(dp0
Vcyih9zy
p1
I1
sVcz7yrk8
p2
I1
s.(dp0
Vcyih9zy
p1
I1
sVcz81ll0
p2
I1
s.(dp0
Vcyih9zy
p1
I1
sVcz8r50e
p2
I1
s.(dp0
Vcyih9zy
p1
I1
sVcz8tr7i
p2
I1
s.(dp0
Vcyih9zy
p1
I1
sVcz9bf9l
p2
I1
s.(dp0
Vcyih9zy
p1
I1
sVcz9t16l
p2
I1
s.(dp0
Vcyih9zy
p1
I1
sVcz9vlby
p2
I1
s.(dp0
Vcyih9zy
p1
I1
sVcz9xkhr
p2
I1
s.(dp0
Vcyih9zy
p1
I1
sVcz9yinq
p2
I1
s.(dp0
Vcyih9zy
p1
I1
sVcz9ys34
p2
I1
s.(dp0
Vcyih9zy
p1
I1
sVczaacro
p2
I1
s.(dp0
Vcyih9zy
p1
I1
sVczarwdk
p2
I1
s.(dp0
Vcyih9zy
p1
I1
sVczas0f3
p2
I1
s.(dp0
Vcyih9zy
p1
I1
sVczasd1y
p2
I1
s.(dp0
Vcyih9zy
p1
I1
sVczbxjsk
p2
I1
s.(dp0
Vcyih9zy
p1
I1
sVczc1fqg
p2
I1
s.(dp0
Vcyih9zy
p1
I1
sVczc990e
p2
I1
s.(dp0
Vcyih9zy
p1
I1
sVczc990e
p2
I1
s.(dp0
Vcyih9zy
p1
I1
sVczc990e
p2
I1
s.(dp0
Vcyih9zy
p1
I1
sVczci5h6
p2
I1
s.(dp0
Vcyih9zy
p1
I1
sVczd79zc
p2
I1
s.(dp0
Vcyih9zy
p1
I1
sVczdheoc
p2
I1
s.(dp0
Vcyih9zy
p1
I1
sVczfcco3
p2
I1
s.(dp0
Vcyih9zy
p1
I1
sVczfgmd3
p2
I1
s.(dp0
Vcyih9zy
p1
I1
sVczflser
p2
I1
s.(dp0
Vcyih9zy
p1
I1
sVczfma52
p2
I1
s.(dp0
Vcyih9zy
p1
I1
sVczfoleb
p2
I1
s.(dp0
Vcyih9zy
p1
I1
sVczfuk62
p2
I1
s.(dp0
Vcyih9zy
p1
I1
sVczgzl7s
p2
I1
s.(dp0
Vcyih9zy
p1
I1
sVczh074v
p2
I1
s.(dp0
Vcyih9zy
p1
I1
sVczh2hvb
p2
I1
s.(dp0
Vcyih9zy
p1
I1
sVczh2hvb
p2
I1
s.(dp0
Vcyih9zy
p1
I1
sVczhavr0
p2
I1
s.(dp0
Vcyih9zy
p1
I1
sVczhrfpm
p2
I1
s.(dp0
Vcyih9zy
p1
I1
sVczi2xib
p2
I1
s.(dp0
Vcyih9zy
p1
I1
sVczi35h8
p2
I1
s.(dp0
Vcyih9zy
p1
I1
sVczip80d
p2
I1
s.(dp0
Vcyih9zy
p1
I1
sVczivfzz
p2
I1
s.(dp0
Vcyih9zy
p1
I1
sVczjtci1
p2
I1
s.(dp0
Vcyih9zy
p1
I1
sVczjtci1
p2
I1
s.(dp0
Vcyih9zy
p1
I1
sVczln0wy
p2
I1
s.(dp0
Vcyih9zy
p1
I1
sVczlna5h
p2
I1
s.(dp0
Vcyih9zy
p1
I1
sVczmcz48
p2
I1
s.(dp0
Vcyih9zy
p1
I1
sVcznlp2b
p2
I1
s.(dp0
Vcyih9zy
p1
I1
sVczo84j8
p2
I1
s.(dp0
Vcyih9zy
p1
I1
sVczoc7g5
p2
I1
s.(dp0
Vcyih9zy
p1
I1
sVczp171c
p2
I1
s.(dp0
Vcyih9zy
p1
I1
sVczq9584
p2
I1
s.(dp0
Vcyih9zy
p1
I1
sVczqox6y
p2
I1
s.(dp0
Vcyih9zy
p1
I1
sVczqu82v
p2
I1
s.(dp0
Vcy(dp0
Vcyih9zy
p1
I1
sVdp4dcj8
p2
I1
s.