(dp0
Vd0yuwd5
p1
I1
s.(dp0
Vd10mweq
p1
I1
sVd0yuwd5
p2
I1
s.(dp0
Vd3genrk
p1
I1
sVd0yuwd5
p2
I1
s.(dp0
Vd3n4wma
p1
I1
sVd0yuwd5
p2
I1
s.(dp0
Vd40r2v3
p1
I1
sVd0yuwd5
p2
I1
s.(dp0
Vd4waz7w
p1
I1
sVd0yuwd5
p2
I1
s.(dp0
Vda3vuxa
p1
I1
sVd0yuwd5
p2
I1
s.(dp0
Vdetaeyo
p1
I1
sVd0yuwd5
p2
I1
s.(dp0
Vdf7nrew
p1
I1
sVd0yuwd5
p2
I1
s.(dp0
Vdfh0d3m
p1
I1
sVd0yuwd5
p2
I1
s.(dp0
Vdggyn0u
p1
I1
sVd0yuwd5
p2
I1
s.(dp0
Vdigstm8
p1
I1
sVd0yuwd5
p2
I1
s.(dp0
Vdigw6o7
p1
I1
sVd0yuwd5
p2
I1
s.