(dp0
Vcyi6g1v
p1
I1
s.(dp0
Vcyi6g1v
p1
I1
sVcyka2z1
p2
I1
s.(dp0
Vcyi6g1v
p1
I1
sVcyka2z1
p2
I1
s.(dp0
Vcyi6g1v
p1
I1
sVcynxms6
p2
I1
s.(dp0
Vcyr63t1
p1
I1
sVcyi6g1v
p2
I1
s.(dp0
Vcyi6g1v
p1
I1
sVcyypy6a
p2
I1
s.(dp0
Vcyi6g1v
p1
I1
sVcz1fhze
p2
I1
s.(dp0
Vcyi6g1v
p1
I1
sVcz1qkp9
p2
I1
s.(dp0
Vcyi6g1v
p1
I1
sVcz1qkp9
p2
I1
s.(dp0
Vcz1wkc5
p1
I1
sVcyi6g1v
p2
I1
s.(dp0
Vcyi6g1v
p1
I1
sVcz27u02
p2
I1
s.(dp0
Vcyi6g1v
p1
I1
sVcz28zt8
p2
I1
s.(dp0
Vcyi6g1v
p1
I1
sVcz7gek3
p2
I1
s.(dp0
Vcz8tr7i
p1
I1
sVcyi6g1v
p2
I1
s.(dp0
Vcyi6g1v
p1
I1
sVczbaiwv
p2
I1
s.(dp0
Vcyi6g1v
p1
I1
sVczedzpb
p2
I1
s.(dp0
Vcyi6g1v
p1
I1
sVczedzpb
p2
I1
s.(dp0
Vcyi6g1v
p1
I1
sVczgbipx
p2
I1
s.(dp0
Vcyi6g1v
p1
I1
sVczjag3q
p2
I1
s.(dp0
Vczqx723
p1
I1
sVcyi6g1v
p2
I1
s.(dp0
Vcyi6g1v
p1
I1
sVczsk8wr
p2
I1
s.(dp0
Vczuf33z
p1
I1
sVcyi6g1v
p2
I1
s.(dp0
Vcyi6g1v
p1
I1
sVczx2nar
p2
I1
s.(dp0
Vcyi6g1v
p1
I1
sVczx2nar
p2
I1
s.(dp0
Vcyi6g1v
p1
I1
sVd00nxl1
p2
I1
s.(dp0
Vd03alyd
p1
I1
sVcyi6g1v
p2
I1
s.(dp0
Vcyi6g1v
p1
I1
sVd07h60t
p2
I1
s.(dp0
Vcyi6g1v
p1
I1
sVd09v121
p2
I1
s.(dp0
Vd09vg0z
p1
I1
sVcyi6g1v
p2
I1
s.(dp0
Vcyi6g1v
p1
I1
sVd09xlmb
p2
I1
s.(dp0
Vcyi6g1v
p1
I1
sVd0iomcx
p2
I1
s.(dp0
Vcyi6g1v
p1
I1
sVd0iomcx
p2
I1
s.(dp0
Vcyi6g1v
p1
I1
sVd0yeepv
p2
I1
s.(dp0
Vcyi6g1v
p1
I1
sVd0yeepv
p2
I1
s.(dp0
Vcyi6g1v
p1
I1
sVd0yeepv
p2
I1
s.(dp0
Vcyi6g1v
p1
I1
sVd0yeepv
p2
I1
s.(dp0
Vcyi6g1v
p1
I1
sVd1dctqt
p2
I1
s.(dp0
Vd1ff8hh
p1
I1
sVcyi6g1v
p2
I1
s.(dp0
Vd1ff8hh
p1
I1
sVcyi6g1v
p2
I1
s.(dp0
Vcyi6g1v
p1
I1
sVd1mpmn5
p2
I1
s.(dp0
Vcyi6g1v
p1
I1
sVd1nr1lc
p2
I1
s.(dp0
Vd1u9wyc
p1
I1
sVcyi6g1v
p2
I1
s.(dp0
Vcyi6g1v
p1
I1
sVd277l9c
p2
I1
s.(dp0
Vcyi6g1v
p1
I1
sVd2awgf7
p2
I1
s.(dp0
Vcyi6g1v
p1
I1
sVd2awgf7
p2
I1
s.(dp0
Vcyi6g1v
p1
I1
sVd2c2o5s
p2
I1
s.(dp0
Vd2c7moc
p1
I1
sVcyi6g1v
p2
I1
s.(dp0
Vd2c7moc
p1
I1
sVcyi6g1v
p2
I1
s.(dp0
Vd2c7moc
p1
I1
sVcyi6g1v
p2
I1
s.(dp0
Vcyi6g1v
p1
I1
sVd2e7orp
p2
I1
s.(dp0
Vd2n7eps
p1
I1
sVcyi6g1v
p2
I1
s.(dp0
Vcyi6g1v
p1
I1
sVd2n9n5k
p2
I1
s.(dp0
Vcyi6g1v
p1
I1
sVd2n9n5k
p2
I1
s.(dp0
Vcyi6g1v
p1
I1
sVd2nbn0q
p2
I1
s.(dp0
Vcyi6g1v
p1
I1
sVd2ndwou
p2
I1
s.(dp0
Vcyi6g1v
p1
I1
sVd2ndwou
p2
I1
s.(dp0
Vcyi6g1v
p1
I1
sVd2ndwou
p2
I1
s.(dp0
Vcyi6g1v
p1
I1
sVd2ndwou
p2
I1
s.(dp0
Vcyi6g1v
p1
I1
sVd2ndwou
p2
I1
s.(dp0
Vcyi6g1v
p1
I1
sVd2ndwou
p2
I1
s.(dp0
Vcyi6g1v
p1
I1
sVd2ozchm
p2
I1
s.(dp0
Vcyi6g1v
p1
I1
sVd2reu0n
p2
I1
s.(dp0
Vd2rijuu
p1
I1
sVcyi6g1v
p2
I1
s.(dp0
Vd2rijuu
p1
I1
sVcyi6g1v
p2
I1
s.(dp0
Vcyi6g1v
p1
I1
sVd2t23xp
p2
I1
s.(dp0
Vcyi6g1v
p1
I1
sVd343xel
p2
I1
s.(dp0
Vcyi6g1v
p1
I1
sVd3832rs
p2
I1
s.(dp0
Vcyi6g1v
p1
I1
sVd3bru9i
p2
I1
s.(dp0
Vcyi6g1v
p1
I1
sVd3ghiak
p2
I1
s.(dp0
Vcyi6g1v
p1
I1
sVd3nvdkx
p2
I1
s.(dp0
Vcyi6g1v
p1
I1
sVd3nvdkx
p2
I1
s.(dp0
Vcyi6g1v
p1
I1
sVd3nvdkx
p2
I1
s.(dp0
Vcyi6g1v
p1
I1
sVd3om0hr
p2
I1
s.(dp0
Vcyi6g1v
p1
I1
sVd43cnpz
p2
I1
s.(dp0
Vcyi6g1v
p1
I1
sVd4ej5ei
p2
I1
s.(dp0
Vcyi6g1v
p1
I1
sVd4ir7zg
p2
I1
s.(dp0
Vcyi6g1v
p1
I1
sVd4irwda
p2
I1
s.(dp0
Vcyi6g1v
p1
I1
sVd4kar37
p2
I1
s.(dp0
Vcyi6g1v
p1
I1
sVd4kar37
p2
I1
s.(dp0
Vcyi6g1v
p1
I1
sVd4pmbze
p2
I1
s.(dp0
Vcyi6g1v
p1
I1
sVd4w07vx
p2
I1
s.(dp0
Vcyi6g1v
p1
I1
sVd4w07vx
p2
I1
s.(dp0
Vcyi6g1v
p1
I1
sVd4w07vx
p2
I1
s.(dp0
Vcyi6g1v
p1
I1
sVd4w07vx
p2
I1
s.(dp0
Vcyi6g1v
p1
I1
sVd4w07vx
p2
I1
s.(dp0
Vcyi6g1v
p1
I1
sVd4w07vx
p2
I1
s.(dp0
Vcyi6g1v
p1
I1
sVd55mgm0
p2
I1
s.(dp0
Vcyi6g1v
p1
I1
sVd5kcbtk
p2
I1
s.(dp0
Vd5oq0du
p1
I1
sVcyi6g1v
p2
I1
s.(dp0
Vd5wr6np
p1
I1
sVcyi6g1v
p2
I1
s.(dp0
Vd5wr6np
p1
I1
sVcyi6g1v
p2
I1
s.(dp0
Vcyi6g1v
p1
I1
sVd5wsevv
p2
I1
s.(dp0
Vcyi6g1v
p1
I1
sVd5wt68e
p2
I1
s.(dp0
Vcyi6g1v
p1
I1
sVd5wudlh
p2
I1
s.(dp0
Vcyi6g1v
p1
I1
sVd5wuuxr
p2
I1
s.(dp0
Vcyi6g1v
p1
I1
sVd5wvt36
p2
I1
s.(dp0
Vcyi6g1v
p1
I1
sVd5wvt36
p2
I1
s.(dp0
Vcyi6g1v
p1
I1
sVd5wvt36
p2
I1
s.(dp0
Vcyi6g1v
p1
I1
sVd5wvt36
p2
I1
s.(dp0
Vcyi6g1v
p1
I1
sVd5wvt36
p2
I1
s.(dp0
Vcyi6g1v
p1
I1
sVd5wvvd9
p2
I1
s.(dp0
Vcyi6g1v
p1
I1
sVd5wwm67
p2
I1
s.(dp0
Vcyi6g1v
p1
I1
sVd5wxjnw
p2
I1
s.(dp0
Vcyi6g1v
p1
I1
sVd5wxjnw
p2
I1
s.(dp0
Vcyi6g1v
p1
I1
sVd5wxjnw
p2
I1
s.(dp0
Vcyi6g1v
p1
I1
sVd5wxjnw
p2
I1
s.(dp0
Vcyi6g1v
p1
I1
sVd5wxjnw
p2
I1
s.(dp0
Vcyi6g1v
p1
I1
sVd5wxjnw
p2
I1
s.(dp0
Vcy(dp0
Vcyi6g1v
p1
I1
sVdkjk3jn
p2
I1
s.