(dp0
Vczlnskl
p1
I1
s.(dp0
Vczlnskl
p1
I1
sVczn8ed5
p2
I1
s.(dp0
Vczlnskl
p1
I1
sVczn8ed5
p2
I1
s.(dp0
Vczlnskl
p1
I1
sVczod1g3
p2
I1
s.(dp0
Vczlnskl
p1
I1
sVczod1g3
p2
I1
s.(dp0
Vczlnskl
p1
I1
sVd00c80q
p2
I1
s.(dp0
Vczlnskl
p1
I1
sVd00nlgp
p2
I1
s.(dp0
Vczlnskl
p1
I1
sVd19aqbj
p2
I1
s.(dp0
Vczlnskl
p1
I1
sVd19c4mx
p2
I1
s.(dp0
Vczlnskl
p1
I1
sVd1uivn7
p2
I1
s.(dp0
Vczlnskl
p1
I1
sVd2kpb6q
p2
I1
s.(dp0
Vczlnskl
p1
I1
sVd3c2drc
p2
I1
s.(dp0
Vczlnskl
p1
I1
sVd7m7mqk
p2
I1
s.(dp0
Vd8mdr0x
p1
I1
sVczlnskl
p2
I1
s.(dp0
Vd8rpzzd
p1
I1
sVczlnskl
p2
I1
s.(dp0
Vczlnskl
p1
I1
sVd8yh0kv
p2
I1
s.(dp0
Vd9483oz
p1
I1
sVczlnskl
p2
I1
s.(dp0
Vczlnskl
p1
I1
sVda0lebz
p2
I1
s.(dp0
Vczlnskl
p1
I1
sVdaaihat
p2
I1
s.(dp0
Vczlnskl
p1
I1
sVdavapn7
p2
I1
s.(dp0
Vczlnskl
p1
I1
sVdbkz6pp
p2
I1
s.(dp0
Vdcpzk25
p1
I1
sVczlnskl
p2
I1
s.(dp0
Vdd4y439
p1
I1
sVczlnskl
p2
I1
s.(dp0
Vczlnskl
p1
I1
sVddbu7ki
p2
I1
s.(dp0
Vde2dxfd
p1
I1
sVczlnskl
p2
I1
s.(dp0
Vczlnskl
p1
I1
sVdegvqcy
p2
I1
s.(dp0
Vdgg5j1b
p1
I1
sVczlnskl
p2
I1
s.(dp0
Vdgpyc02
p1
I1
sVczlnskl
p2
I1
s.(dp0
Vczlnskl
p1
I1
sVdhcdd4s
p2
I1
s.(dp0
Vczlnskl
p1
I1
sVdhgdyym
p2
I1
s.(dp0
Vdhgxhaf
p1
I1
sVczlnskl
p2
I1
s.(dp0
Vdijznxf
p1
I1
sVczlnskl
p2
I1
s.(dp0
Vdiqdk1a
p1
I1
sVczlnskl
p2
I1
s.(dp0
Vczlnskl
p1
I1
sVdiur6oa
p2
I1
s.(dp0
Vdj5bzop
p1
I1
sVczlnskl
p2
I1
s.(dp0
Vczlnskl
p1
I1
sVdj9cf7e
p2
I1
s.(dp0
Vczlnskl
p1
I1
sVdkkb7ls
p2
I1
s.