(dp0
Vcyxg5fm
p1
I1
s.(dp0
Vcyxg5fm
p1
I2
s.(dp0
Vcyxg5fm
p1
I2
s.(dp0
Vcyxg5fm
p1
I1
sVcztfwyo
p2
I1
s.(dp0
Vcyxg5fm
p1
I1
sVczv4m53
p2
I1
s.(dp0
Vcyxg5fm
p1
I1
sVczv4m53
p2
I1
s.(dp0
Vcyxg5fm
p1
I1
sVd1qe3rj
p2
I1
s.(dp0
Vcyxg5fm
p1
I1
sVd1qj4jq
p2
I1
s.(dp0
Vcyxg5fm
p1
I1
sVd1qj4jq
p2
I1
s.(dp0
Vcyxg5fm
p1
I1
sVd1qj6xa
p2
I1
s.(dp0
Vcyxg5fm
p1
I1
sVd1qj6xa
p2
I1
s.(dp0
Vcyxg5fm
p1
I1
sVd2c7moc
p2
I1
s.(dp0
Vcyxg5fm
p1
I1
sVd3olzqu
p2
I1
s.(dp0
Vcyxg5fm
p1
I1
sVd55aw8g
p2
I1
s.(dp0
Vcyxg5fm
p1
I1
sVd55aw8g
p2
I1
s.(dp0
Vcyxg5fm
p1
I1
sVd55aw8g
p2
I1
s.(dp0
Vcyxg5fm
p1
I1
sVd5nnkq9
p2
I1
s.(dp0
Vcyxg5fm
p1
I1
sVd5nnkq9
p2
I1
s.(dp0
Vcyxg5fm
p1
I1
sVd5voyny
p2
I1
s.(dp0
Vcyxg5fm
p1
I1
sVd7sjvp4
p2
I1
s.(dp0
Vcyxg5fm
p1
I1
sVd96vbd6
p2
I1
s.(dp0
Vcyxg5fm
p1
I1
sVd97atbq
p2
I1
s.(dp0
Vcyxg5fm
p1
I1
sVd97atbq
p2
I1
s.(dp0
Vcyxg5fm
p1
I1
sVd9i72iv
p2
I1
s.(dp0
Vcyxg5fm
p1
I1
sVd9pma3s
p2
I1
s.(dp0
Vcyxg5fm
p1
I1
sVda224uv
p2
I1
s.(dp0
Vcyxg5fm
p1
I1
sVdaxlj18
p2
I1
s.(dp0
Vcyxg5fm
p1
I1
sVdazwr5z
p2
I1
s.(dp0
Vcyxg5fm
p1
I1
sVdd4ybgg
p2
I1
s.(dp0
Vcyxg5fm
p1
I1
sVdee1ji3
p2
I1
s.(dp0
Vcyxg5fm
p1
I1
sVdefp2mg
p2
I1
s.(dp0
Vcyxg5fm
p1
I1
sVdefp2mg
p2
I1
s.