(dp0
Vcyjcswz
p1
I1
s.(dp0
Vcyjcswz
p1
I1
sVcyk0180
p2
I1
s.(dp0
Vcyku3d0
p1
I1
sVcyjcswz
p2
I1
s.(dp0
Vcyjcswz
p1
I1
sVcyogi3z
p2
I1
s.(dp0
Vcyr3k10
p1
I1
sVcyjcswz
p2
I1
s.(dp0
Vcyjcswz
p1
I1
sVcyuqfkd
p2
I1
s.(dp0
Vcz5gwmj
p1
I1
sVcyjcswz
p2
I1
s.(dp0
Vcyjcswz
p1
I1
sVcz5h64g
p2
I1
s.(dp0
Vcyjcswz
p1
I1
sVcz5h64g
p2
I1
s.(dp0
Vcz5nmjr
p1
I1
sVcyjcswz
p2
I1
s.(dp0
Vcz5nmjr
p1
I1
sVcyjcswz
p2
I1
s.(dp0
Vcz5nmjr
p1
I1
sVcyjcswz
p2
I1
s.(dp0
Vcz5nmjr
p1
I1
sVcyjcswz
p2
I1
s.(dp0
Vcyjcswz
p1
I1
sVcz7gk1g
p2
I1
s.(dp0
Vcyjcswz
p1
I1
sVcz7u8la
p2
I1
s.(dp0
Vcyjcswz
p1
I1
sVczd20v1
p2
I1
s.(dp0
Vczggx45
p1
I1
sVcyjcswz
p2
I1
s.(dp0
Vcyjcswz
p1
I1
sVczgmmmm
p2
I1
s.(dp0
Vcyjcswz
p1
I1
sVczh52c0
p2
I1
s.(dp0
Vcyjcswz
p1
I1
sVczh52c0
p2
I1
s.(dp0
Vczh52xs
p1
I1
sVcyjcswz
p2
I1
s.(dp0
Vczl3u54
p1
I1
sVcyjcswz
p2
I1
s.(dp0
Vczlxh20
p1
I1
sVcyjcswz
p2
I1
s.(dp0
Vczw1uat
p1
I1
sVcyjcswz
p2
I1
s.(dp0
Vcyjcswz
p1
I1
sVczz1rxj
p2
I1
s.(dp0
Vczz6mz0
p1
I1
sVcyjcswz
p2
I1
s.(dp0
Vcyjcswz
p1
I1
sVd00xzfm
p2
I1
s.(dp0
Vd090ekt
p1
I1
sVcyjcswz
p2
I1
s.(dp0
Vd090ekt
p1
I1
sVcyjcswz
p2
I1
s.(dp0
Vd0au5oa
p1
I1
sVcyjcswz
p2
I1
s.(dp0
Vd0au5oa
p1
I1
sVcyjcswz
p2
I1
s.(dp0
Vd0frmac
p1
I1
sVcyjcswz
p2
I1
s.(dp0
Vd0fxjji
p1
I1
sVcyjcswz
p2
I1
s.(dp0
Vcyjcswz
p1
I1
sVd0fxmtq
p2
I1
s.(dp0
Vd0g80mh
p1
I1
sVcyjcswz
p2
I1
s.(dp0
Vd0gh0ac
p1
I1
sVcyjcswz
p2
I1
s.(dp0
Vd0gh0ac
p1
I1
sVcyjcswz
p2
I1
s.(dp0
Vcyjcswz
p1
I1
sVd0gpo20
p2
I1
s.(dp0
Vd0j58jj
p1
I1
sVcyjcswz
p2
I1
s.(dp0
Vcyjcswz
p1
I1
sVd0lkvdi
p2
I1
s.(dp0
Vcyjcswz
p1
I1
sVd0ne8rb
p2
I1
s.(dp0
Vcyjcswz
p1
I1
sVd0pu31q
p2
I1
s.(dp0
Vcyjcswz
p1
I1
sVd0rdv48
p2
I1
s.(dp0
Vcyjcswz
p1
I1
sVd0rdv48
p2
I1
s.(dp0
Vcyjcswz
p1
I1
sVd0rdv48
p2
I1
s.(dp0
Vcyjcswz
p1
I1
sVd0s2zty
p2
I1
s.(dp0
Vd0vr2mn
p1
I1
sVcyjcswz
p2
I1
s.(dp0
Vcyjcswz
p1
I1
sVd0yq5rg
p2
I1
s.(dp0
Vcyjcswz
p1
I1
sVd0zn1nk
p2
I1
s.(dp0
Vcyjcswz
p1
I1
sVd120ai6
p2
I1
s.(dp0
Vd12i9sa
p1
I1
sVcyjcswz
p2
I1
s.(dp0
Vd1686gp
p1
I1
sVcyjcswz
p2
I1
s.(dp0
Vcyjcswz
p1
I1
sVd16xiqk
p2
I1
s.(dp0
Vd19hbqa
p1
I1
sVcyjcswz
p2
I1
s.(dp0
Vcyjcswz
p1
I1
sVd1dcy52
p2
I1
s.(dp0
Vd1p50l8
p1
I1
sVcyjcswz
p2
I1
s.(dp0
Vd1y87b5
p1
I1
sVcyjcswz
p2
I1
s.(dp0
Vd252ubh
p1
I1
sVcyjcswz
p2
I1
s.(dp0
Vd252ubh
p1
I1
sVcyjcswz
p2
I1
s.(dp0
Vd252ubh
p1
I1
sVcyjcswz
p2
I1
s.(dp0
Vd252ubh
p1
I1
sVcyjcswz
p2
I1
s.(dp0
Vd27t921
p1
I1
sVcyjcswz
p2
I1
s.(dp0
Vd29xt8q
p1
I1
sVcyjcswz
p2
I1
s.(dp0
Vcyjcswz
p1
I1
sVd2iq769
p2
I1
s.(dp0
Vcyjcswz
p1
I1
sVd2naihd
p2
I1
s.(dp0
Vd2ny47n
p1
I1
sVcyjcswz
p2
I1
s.(dp0
Vd2nz61l
p1
I1
sVcyjcswz
p2
I1
s.(dp0
Vd2nz61l
p1
I1
sVcyjcswz
p2
I1
s.(dp0
Vd2nz61l
p1
I1
sVcyjcswz
p2
I1
s.(dp0
Vcyjcswz
p1
I1
sVd2o01b3
p2
I1
s.(dp0
Vd2o2fz4
p1
I1
sVcyjcswz
p2
I1
s.(dp0
Vd2o2fz4
p1
I1
sVcyjcswz
p2
I1
s.(dp0
Vd2o2utk
p1
I1
sVcyjcswz
p2
I1
s.(dp0
Vd2o2utk
p1
I1
sVcyjcswz
p2
I1
s.(dp0
Vd2o3rtu
p1
I1
sVcyjcswz
p2
I1
s.(dp0
Vd2o3rtu
p1
I1
sVcyjcswz
p2
I1
s.(dp0
Vd2o3rtu
p1
I1
sVcyjcswz
p2
I1
s.(dp0
Vcyjcswz
p1
I1
sVd2o6iex
p2
I1
s.(dp0
Vcyjcswz
p1
I1
sVd2o6iex
p2
I1
s.(dp0
Vd2o6okj
p1
I1
sVcyjcswz
p2
I1
s.(dp0
Vd2o723h
p1
I1
sVcyjcswz
p2
I1
s.(dp0
Vd2oad7r
p1
I1
sVcyjcswz
p2
I1
s.(dp0
Vd2oad7r
p1
I1
sVcyjcswz
p2
I1
s.(dp0
Vd2obbcp
p1
I1
sVcyjcswz
p2
I1
s.(dp0
Vd2obbcp
p1
I1
sVcyjcswz
p2
I1
s.(dp0
Vcyjcswz
p1
I1
sVd2obylk
p2
I1
s.(dp0
Vcyjcswz
p1
I1
sVd2obylk
p2
I1
s.(dp0
Vcyjcswz
p1
I1
sVd2obylk
p2
I1
s.(dp0
Vd2oenzj
p1
I1
sVcyjcswz
p2
I1
s.(dp0
Vd2u1w1o
p1
I1
sVcyjcswz
p2
I1
s.(dp0
Vd3462le
p1
I1
sVcyjcswz
p2
I1
s.(dp0
Vd3462le
p1
I1
sVcyjcswz
p2
I1
s.(dp0
Vd34kea6
p1
I1
sVcyjcswz
p2
I1
s.(dp0
Vd35mh6e
p1
I1
sVcyjcswz
p2
I1
s.(dp0
Vcyjcswz
p1
I1
sVd39t9v6
p2
I1
s.(dp0
Vcyjcswz
p1
I1
sVd3y9l23
p2
I1
s.(dp0
Vd46cxeq
p1
I1
sVcyjcswz
p2
I1
s.(dp0
Vcyjcswz
p1
I1
sVd48a845
p2
I1
s.(dp0
Vcyjcswz
p1
I1
sVd48a845
p2
I1
s.(dp0
Vcyjcswz
p1
I1
sVd48a845
p2
I1
s.(dp0
Vcyjcswz
p1
I1
sVd48a845
p2
I1
s.(dp0
Vcyjcswz
p1
I1
sVd48c8on
p2
I1
s.(dp0
Vcyjcswz
p1
I1
sVd48c8on
p2
I1
s.(dp0
Vcyjcswz
p1
I1
sVd48c8on
p2
I1
s.(dp0
Vd4efuhq
p1
I1
sVcyjcswz
p2
I1
s.(dp0
Vd4eu4a1
p1
I1
sVcyjcswz
p2
I1
s.(dp0
Vcyjcswz
p1
I1
sVd4i4vqj
p2
I1
s.(dp0
Vd4i5j05
p1
I1
sVcyjcswz
p2
I1
s.(dp0
Vd4(dp0
Vcyjcswz
p1
I1
sVdp3qhao
p2
I1
s.