(dp0
Vcyleuxg
p1
I1
s.(dp0
Vcyleuxg
p1
I2
s.(dp0
Vcyleuxg
p1
I2
s.(dp0
Vcylh2p4
p1
I1
sVcyleuxg
p2
I1
s.(dp0
Vcyo5aeu
p1
I1
sVcyleuxg
p2
I1
s.(dp0
Vcyo6n9w
p1
I1
sVcyleuxg
p2
I1
s.(dp0
Vcyob5p7
p1
I1
sVcyleuxg
p2
I1
s.(dp0
Vcyoeggt
p1
I1
sVcyleuxg
p2
I1
s.(dp0
Vcyoeoa5
p1
I1
sVcyleuxg
p2
I1
s.(dp0
Vcyofr9w
p1
I1
sVcyleuxg
p2
I1
s.(dp0
Vcyofr9w
p1
I1
sVcyleuxg
p2
I1
s.(dp0
Vcyofr9w
p1
I1
sVcyleuxg
p2
I1
s.(dp0
Vcyoih47
p1
I1
sVcyleuxg
p2
I1
s.(dp0
Vcyleuxg
p1
I1
sVcyov67n
p2
I1
s.(dp0
Vcyowvni
p1
I1
sVcyleuxg
p2
I1
s.(dp0
Vcyowvni
p1
I1
sVcyleuxg
p2
I1
s.(dp0
Vcyox1ky
p1
I1
sVcyleuxg
p2
I1
s.(dp0
Vcyqg487
p1
I1
sVcyleuxg
p2
I1
s.(dp0
Vcyqg487
p1
I1
sVcyleuxg
p2
I1
s.(dp0
Vcyuase8
p1
I1
sVcyleuxg
p2
I1
s.(dp0
Vcz10iln
p1
I1
sVcyleuxg
p2
I1
s.(dp0
Vcz2ijax
p1
I1
sVcyleuxg
p2
I1
s.(dp0
Vczae642
p1
I1
sVcyleuxg
p2
I1
s.(dp0
Vczeyu3b
p1
I1
sVcyleuxg
p2
I1
s.(dp0
Vczgylpy
p1
I1
sVcyleuxg
p2
I1
s.(dp0
Vcyleuxg
p1
I1
sVczniyta
p2
I1
s.(dp0
Vczowk2t
p1
I1
sVcyleuxg
p2
I1
s.(dp0
Vczpp8vd
p1
I1
sVcyleuxg
p2
I1
s.(dp0
Vczryicy
p1
I1
sVcyleuxg
p2
I1
s.(dp0
Vcyleuxg
p1
I1
sVczsdkzw
p2
I1
s.(dp0
Vcyleuxg
p1
I1
sVczsdkzw
p2
I1
s.(dp0
Vcyleuxg
p1
I1
sVczsdkzw
p2
I1
s.(dp0
Vczwif19
p1
I1
sVcyleuxg
p2
I1
s.(dp0
Vczy79b8
p1
I1
sVcyleuxg
p2
I1
s.(dp0
Vczz6kcr
p1
I1
sVcyleuxg
p2
I1
s.(dp0
Vczz6kcr
p1
I1
sVcyleuxg
p2
I1
s.(dp0
Vczz6kcr
p1
I1
sVcyleuxg
p2
I1
s.(dp0
Vd0aeqr9
p1
I1
sVcyleuxg
p2
I1
s.(dp0
Vd0btsvd
p1
I1
sVcyleuxg
p2
I1
s.(dp0
Vd0bv0nd
p1
I1
sVcyleuxg
p2
I1
s.(dp0
Vd0dy4ug
p1
I1
sVcyleuxg
p2
I1
s.(dp0
Vd0dy4ug
p1
I1
sVcyleuxg
p2
I1
s.(dp0
Vd0e0s84
p1
I1
sVcyleuxg
p2
I1
s.(dp0
Vd0qmssa
p1
I1
sVcyleuxg
p2
I1
s.(dp0
Vd0qmssa
p1
I1
sVcyleuxg
p2
I1
s.(dp0
Vcyleuxg
p1
I1
sVd0raeec
p2
I1
s.(dp0
Vcyleuxg
p1
I1
sVd0raeec
p2
I1
s.(dp0
Vd0tn5jn
p1
I1
sVcyleuxg
p2
I1
s.(dp0
Vd0vbmdw
p1
I1
sVcyleuxg
p2
I1
s.(dp0
Vd179yju
p1
I1
sVcyleuxg
p2
I1
s.(dp0
Vd179yju
p1
I1
sVcyleuxg
p2
I1
s.(dp0
Vd179yju
p1
I1
sVcyleuxg
p2
I1
s.(dp0
Vd179yju
p1
I1
sVcyleuxg
p2
I1
s.(dp0
Vd179yju
p1
I1
sVcyleuxg
p2
I1
s.(dp0
Vd179yju
p1
I1
sVcyleuxg
p2
I1
s.(dp0
Vd179yju
p1
I1
sVcyleuxg
p2
I1
s.(dp0
Vd179yju
p1
I1
sVcyleuxg
p2
I1
s.(dp0
Vd179yju
p1
I1
sVcyleuxg
p2
I1
s.(dp0
Vd179yju
p1
I1
sVcyleuxg
p2
I1
s.(dp0
Vd179yju
p1
I1
sVcyleuxg
p2
I1
s.(dp0
Vd179yju
p1
I1
sVcyleuxg
p2
I1
s.(dp0
Vd179yju
p1
I1
sVcyleuxg
p2
I1
s.(dp0
Vd1aljai
p1
I1
sVcyleuxg
p2
I1
s.(dp0
Vd1aljai
p1
I1
sVcyleuxg
p2
I1
s.(dp0
Vd1c6xgk
p1
I1
sVcyleuxg
p2
I1
s.(dp0
Vd1c6xgk
p1
I1
sVcyleuxg
p2
I1
s.(dp0
Vd1c6xgk
p1
I1
sVcyleuxg
p2
I1
s.(dp0
Vd1c6xgk
p1
I1
sVcyleuxg
p2
I1
s.(dp0
Vd1c6xgk
p1
I1
sVcyleuxg
p2
I1
s.(dp0
Vd1c6xgk
p1
I1
sVcyleuxg
p2
I1
s.(dp0
Vd1caokl
p1
I1
sVcyleuxg
p2
I1
s.(dp0
Vd1caokl
p1
I1
sVcyleuxg
p2
I1
s.(dp0
Vd1caokl
p1
I1
sVcyleuxg
p2
I1
s.(dp0
Vd1caokl
p1
I1
sVcyleuxg
p2
I1
s.(dp0
Vd1caokl
p1
I1
sVcyleuxg
p2
I1
s.(dp0
Vd1caokl
p1
I1
sVcyleuxg
p2
I1
s.(dp0
Vd1caokl
p1
I1
sVcyleuxg
p2
I1
s.(dp0
Vd1caokl
p1
I1
sVcyleuxg
p2
I1
s.(dp0
Vd1caokl
p1
I1
sVcyleuxg
p2
I1
s.(dp0
Vd1caokl
p1
I1
sVcyleuxg
p2
I1
s.(dp0
Vd1caokl
p1
I1
sVcyleuxg
p2
I1
s.(dp0
Vd1cb5hh
p1
I1
sVcyleuxg
p2
I1
s.(dp0
Vd1cb5hh
p1
I1
sVcyleuxg
p2
I1
s.(dp0
Vd1cb5hh
p1
I1
sVcyleuxg
p2
I1
s.(dp0
Vd1cb5hh
p1
I1
sVcyleuxg
p2
I1
s.(dp0
Vd1egzcg
p1
I1
sVcyleuxg
p2
I1
s.(dp0
Vcyleuxg
p1
I1
sVd1i5gsg
p2
I1
s.(dp0
Vd1nz0s9
p1
I1
sVcyleuxg
p2
I1
s.(dp0
Vd1nz0s9
p1
I1
sVcyleuxg
p2
I1
s.(dp0
Vd1nz0s9
p1
I1
sVcyleuxg
p2
I1
s.(dp0
Vd1nz0s9
p1
I1
sVcyleuxg
p2
I1
s.(dp0
Vd1o12ox
p1
I1
sVcyleuxg
p2
I1
s.(dp0
Vd1o12ox
p1
I1
sVcyleuxg
p2
I1
s.(dp0
Vd1o12ox
p1
I1
sVcyleuxg
p2
I1
s.(dp0
Vd1r7d42
p1
I1
sVcyleuxg
p2
I1
s.(dp0
Vd1xayya
p1
I1
sVcyleuxg
p2
I1
s.(dp0
Vd1xayya
p1
I1
sVcyleuxg
p2
I1
s.(dp0
Vd1xayya
p1
I1
sVcyleuxg
p2
I1
s.(dp0
Vd1xrhws
p1
I1
sVcyleuxg
p2
I1
s.(dp0
Vd1xrhws
p1
I1
sVcyleuxg
p2
I1
s.(dp0
Vd27zndp
p1
I1
sVcyleuxg
p2
I1
s.(dp0
Vd2ew6tq
p1
I1
sVcyleuxg
p2
I1
s.(dp0
Vd2jz8v1
p1
I1
sVcyleuxg
p2
I1
s.(dp0
Vd2kc5re
p1
I1
sVcyleuxg
p2
I1
s.(dp0
Vd2keqxl
p1
I1
sVcyleuxg
p2
I1
s.(dp0
Vd2keqxl
p1
I1
sVcyleuxg
p2
I1
s.(dp0
Vd2mbaxw
p1
I1
sVcyleuxg
p2
I1
s.(dp0
Vd2mbaxw
p1
I1
sVcyleuxg
p2
I1
s.(dp0
Vd2rseun
p1
I1
sVcyleuxg
p2
I1
s.(d(dp0
Vdo86ffe
p1
I1
sVcyleuxg
p2
I1
s.