(dp0
Vcyixirw
p1
I1
s.(dp0
Vcyk9t3j
p1
I1
sVcyixirw
p2
I1
s.(dp0
Vcykbzf7
p1
I1
sVcyixirw
p2
I1
s.(dp0
Vcykoqsx
p1
I1
sVcyixirw
p2
I1
s.(dp0
Vcykoqsx
p1
I1
sVcyixirw
p2
I1
s.(dp0
Vcykoqsx
p1
I1
sVcyixirw
p2
I1
s.(dp0
Vcyixirw
p1
I1
sVcyksptz
p2
I1
s.(dp0
Vcykxa1k
p1
I1
sVcyixirw
p2
I1
s.(dp0
Vcylyn8u
p1
I1
sVcyixirw
p2
I1
s.(dp0
Vcymwiyw
p1
I1
sVcyixirw
p2
I1
s.(dp0
Vcyn1e33
p1
I1
sVcyixirw
p2
I1
s.(dp0
Vcyixirw
p1
I1
sVcynhw8y
p2
I1
s.(dp0
Vcynmxpi
p1
I1
sVcyixirw
p2
I1
s.(dp0
Vcynqjwy
p1
I1
sVcyixirw
p2
I1
s.(dp0
Vcyo3hfz
p1
I1
sVcyixirw
p2
I1
s.(dp0
Vcyo7bky
p1
I1
sVcyixirw
p2
I1
s.(dp0
Vcyodvuc
p1
I1
sVcyixirw
p2
I1
s.(dp0
Vcypxv0y
p1
I1
sVcyixirw
p2
I1
s.(dp0
Vcyqarv2
p1
I1
sVcyixirw
p2
I1
s.(dp0
Vcyqj4hl
p1
I1
sVcyixirw
p2
I1
s.(dp0
Vcyrlm79
p1
I1
sVcyixirw
p2
I1
s.(dp0
Vcyte4yb
p1
I1
sVcyixirw
p2
I1
s.(dp0
Vcytttuh
p1
I1
sVcyixirw
p2
I1
s.(dp0
Vcytttuh
p1
I1
sVcyixirw
p2
I1
s.(dp0
Vcytttuh
p1
I1
sVcyixirw
p2
I1
s.(dp0
Vcytttuh
p1
I1
sVcyixirw
p2
I1
s.(dp0
Vcyucgpe
p1
I1
sVcyixirw
p2
I1
s.(dp0
Vcyvtv5w
p1
I1
sVcyixirw
p2
I1
s.(dp0
Vcyxauwq
p1
I1
sVcyixirw
p2
I1
s.(dp0
Vcyy4dgs
p1
I1
sVcyixirw
p2
I1
s.(dp0
Vcyy8jtk
p1
I1
sVcyixirw
p2
I1
s.(dp0
Vcyyhqtn
p1
I1
sVcyixirw
p2
I1
s.(dp0
Vcyixirw
p1
I1
sVcyzi1cu
p2
I1
s.(dp0
Vcz05hip
p1
I1
sVcyixirw
p2
I1
s.(dp0
Vcz2152v
p1
I1
sVcyixirw
p2
I1
s.(dp0
Vcz227oe
p1
I1
sVcyixirw
p2
I1
s.(dp0
Vcz29chf
p1
I1
sVcyixirw
p2
I1
s.(dp0
Vcz2u4dh
p1
I1
sVcyixirw
p2
I1
s.(dp0
Vcz3boy3
p1
I1
sVcyixirw
p2
I1
s.(dp0
Vcz3d8gc
p1
I1
sVcyixirw
p2
I1
s.(dp0
Vcz4zhri
p1
I1
sVcyixirw
p2
I1
s.(dp0
Vcz5a5qw
p1
I1
sVcyixirw
p2
I1
s.(dp0
Vcz5hclu
p1
I1
sVcyixirw
p2
I1
s.(dp0
Vcz5hclu
p1
I1
sVcyixirw
p2
I1
s.(dp0
Vcz6gn1n
p1
I1
sVcyixirw
p2
I1
s.(dp0
Vcz6idb8
p1
I1
sVcyixirw
p2
I1
s.(dp0
Vcz7mthj
p1
I1
sVcyixirw
p2
I1
s.(dp0
Vcz8c9zq
p1
I1
sVcyixirw
p2
I1
s.(dp0
Vcz8c9zq
p1
I1
sVcyixirw
p2
I1
s.(dp0
Vcz8c9zq
p1
I1
sVcyixirw
p2
I1
s.(dp0
Vcz8cvz5
p1
I1
sVcyixirw
p2
I1
s.(dp0
Vcz8n4i4
p1
I1
sVcyixirw
p2
I1
s.(dp0
Vcz8sg98
p1
I1
sVcyixirw
p2
I1
s.(dp0
Vcz9f2pr
p1
I1
sVcyixirw
p2
I1
s.(dp0
Vcz9hpuy
p1
I1
sVcyixirw
p2
I1
s.(dp0
Vcz9yiv4
p1
I1
sVcyixirw
p2
I1
s.(dp0
Vczb2h9b
p1
I1
sVcyixirw
p2
I1
s.(dp0
Vczbtaes
p1
I1
sVcyixirw
p2
I1
s.(dp0
Vcyixirw
p1
I1
sVczby6iq
p2
I1
s.(dp0
Vczcixsh
p1
I1
sVcyixirw
p2
I1
s.(dp0
Vczcjvn7
p1
I1
sVcyixirw
p2
I1
s.(dp0
Vczcm3yw
p1
I1
sVcyixirw
p2
I1
s.(dp0
Vczdcxuy
p1
I1
sVcyixirw
p2
I1
s.(dp0
Vczdcxuy
p1
I1
sVcyixirw
p2
I1
s.(dp0
Vcze4688
p1
I1
sVcyixirw
p2
I1
s.(dp0
Vczeemms
p1
I1
sVcyixirw
p2
I1
s.(dp0
Vczeuvdm
p1
I1
sVcyixirw
p2
I1
s.(dp0
Vcyixirw
p1
I1
sVczh0xfw
p2
I1
s.(dp0
Vczhd80o
p1
I1
sVcyixirw
p2
I1
s.(dp0
Vczhxbjs
p1
I1
sVcyixirw
p2
I1
s.(dp0
Vczilh9f
p1
I1
sVcyixirw
p2
I1
s.(dp0
Vczilh9f
p1
I1
sVcyixirw
p2
I1
s.(dp0
Vcyixirw
p1
I1
sVczipino
p2
I1
s.(dp0
Vczisgp1
p1
I1
sVcyixirw
p2
I1
s.(dp0
Vczisgp1
p1
I1
sVcyixirw
p2
I1
s.(dp0
Vczitbiu
p1
I1
sVcyixirw
p2
I1
s.(dp0
Vczj6oju
p1
I1
sVcyixirw
p2
I1
s.(dp0
Vczjag3q
p1
I1
sVcyixirw
p2
I1
s.(dp0
Vczjag3q
p1
I1
sVcyixirw
p2
I1
s.(dp0
Vczjnaz9
p1
I1
sVcyixirw
p2
I1
s.(dp0
Vczjnaz9
p1
I1
sVcyixirw
p2
I1
s.(dp0
Vczjnaz9
p1
I1
sVcyixirw
p2
I1
s.(dp0
Vczltrad
p1
I1
sVcyixirw
p2
I1
s.(dp0
Vczm23gm
p1
I1
sVcyixirw
p2
I1
s.(dp0
Vcyixirw
p1
I1
sVczojo9l
p2
I1
s.(dp0
Vczp7s55
p1
I1
sVcyixirw
p2
I1
s.(dp0
Vcyixirw
p1
I1
sVczpfe8b
p2
I1
s.(dp0
Vczuq54a
p1
I1
sVcyixirw
p2
I1
s.(dp0
Vczv3yhi
p1
I1
sVcyixirw
p2
I1
s.(dp0
Vczvfi5v
p1
I1
sVcyixirw
p2
I1
s.(dp0
Vcyixirw
p1
I1
sVczvg6p8
p2
I1
s.(dp0
Vczw1g3m
p1
I1
sVcyixirw
p2
I1
s.(dp0
Vczxqv5m
p1
I1
sVcyixirw
p2
I1
s.(dp0
Vczzb436
p1
I1
sVcyixirw
p2
I1
s.(dp0
Vcyixirw
p1
I1
sVd00h6so
p2
I1
s.(dp0
Vd00qx52
p1
I1
sVcyixirw
p2
I1
s.(dp0
Vd00wu3r
p1
I1
sVcyixirw
p2
I1
s.(dp0
Vd01bxuf
p1
I1
sVcyixirw
p2
I1
s.(dp0
Vd038obh
p1
I1
sVcyixirw
p2
I1
s.(dp0
Vd045dao
p1
I1
sVcyixirw
p2
I1
s.(dp0
Vd047b3d
p1
I1
sVcyixirw
p2
I1
s.(dp0
Vd05dqo2
p1
I1
sVcyixirw
p2
I1
s.(dp0
Vcyixirw
p1
I1
sVd05mtft
p2
I1
s.(dp0
Vd06ttww
p1
I1
sVcyixirw
p2
I1
s.(dp0
Vd098303
p1
I1
sVcyixirw
p2
I1
s.(dp0
Vd09aba7
p1
I1
sVcyixirw
p2
I1
s.(dp0
Vd09p0ah
p1
I1
sVcyixirw
p2
I1
s.(dp0
Vd0awntg
p1
I1
sVcyixirw
p2
I1
s.(dp0
Vd0(dp0
Vdky0ck4
p1
I1
sVcyixirw
p2
I1
s.