(dp0
Vcykymz9
p1
I1
s.(dp0
Vcykymz9
p1
I1
sVcynl8or
p2
I1
s.(dp0
Vcykymz9
p1
I1
sVcyrqrjy
p2
I1
s.(dp0
Vcykymz9
p1
I1
sVcysl6nz
p2
I1
s.(dp0
Vcykymz9
p1
I1
sVcz2yw37
p2
I1
s.(dp0
Vcykymz9
p1
I1
sVcz3ppya
p2
I1
s.(dp0
Vcykymz9
p1
I1
sVcz3s3lh
p2
I1
s.(dp0
Vcykymz9
p1
I1
sVczbvie8
p2
I1
s.(dp0
Vcykymz9
p1
I1
sVczdisc4
p2
I1
s.(dp0
Vcykymz9
p1
I1
sVczem8s7
p2
I1
s.(dp0
Vcykymz9
p1
I1
sVczenemu
p2
I1
s.(dp0
Vcykymz9
p1
I1
sVczhve9n
p2
I1
s.(dp0
Vcykymz9
p1
I1
sVczi9sp8
p2
I1
s.(dp0
Vcykymz9
p1
I1
sVczj3a5e
p2
I1
s.(dp0
Vcykymz9
p1
I1
sVczkbtjn
p2
I1
s.(dp0
Vcykymz9
p1
I1
sVczok2b3
p2
I1
s.(dp0
Vcykymz9
p1
I1
sVczp8skq
p2
I1
s.(dp0
Vcykymz9
p1
I1
sVczq7uzp
p2
I1
s.(dp0
Vcykymz9
p1
I1
sVczscbqy
p2
I1
s.(dp0
Vcykymz9
p1
I1
sVczu344y
p2
I1
s.(dp0
Vcykymz9
p1
I1
sVczyb3zl
p2
I1
s.(dp0
Vcykymz9
p1
I1
sVczzp6t1
p2
I1
s.(dp0
Vcykymz9
p1
I1
sVd035ans
p2
I1
s.(dp0
Vcykymz9
p1
I1
sVd03q9pu
p2
I1
s.(dp0
Vcykymz9
p1
I1
sVd07ouji
p2
I1
s.(dp0
Vcykymz9
p1
I1
sVd0c1gx8
p2
I1
s.(dp0
Vcykymz9
p1
I1
sVd0c1gx8
p2
I1
s.(dp0
Vcykymz9
p1
I1
sVd0h998j
p2
I1
s.(dp0
Vcykymz9
p1
I1
sVd0kro7f
p2
I1
s.(dp0
Vcykymz9
p1
I1
sVd0lhq47
p2
I1
s.(dp0
Vd0rn6yj
p1
I1
sVcykymz9
p2
I1
s.(dp0
Vcykymz9
p1
I1
sVd0uir0a
p2
I1
s.(dp0
Vcykymz9
p1
I1
sVd0yhrwr
p2
I1
s.(dp0
Vd13e4hp
p1
I1
sVcykymz9
p2
I1
s.(dp0
Vcykymz9
p1
I1
sVd146o1h
p2
I1
s.(dp0
Vcykymz9
p1
I1
sVd16kipu
p2
I1
s.(dp0
Vcykymz9
p1
I1
sVd172whx
p2
I1
s.(dp0
Vcykymz9
p1
I1
sVd178dfu
p2
I1
s.(dp0
Vcykymz9
p1
I1
sVd17ftfg
p2
I1
s.(dp0
Vcykymz9
p1
I1
sVd1a2lx4
p2
I1
s.(dp0
Vcykymz9
p1
I1
sVd1cv0u5
p2
I1
s.(dp0
Vcykymz9
p1
I1
sVd1krihy
p2
I1
s.(dp0
Vcykymz9
p1
I1
sVd1ksxwk
p2
I1
s.(dp0
Vcykymz9
p1
I1
sVd1kyptf
p2
I1
s.(dp0
Vcykymz9
p1
I1
sVd1lo6uc
p2
I1
s.(dp0
Vcykymz9
p1
I1
sVd1oxn90
p2
I1
s.(dp0
Vcykymz9
p1
I1
sVd22c053
p2
I1
s.(dp0
Vcykymz9
p1
I1
sVd26p937
p2
I1
s.(dp0
Vcykymz9
p1
I1
sVd29iwnp
p2
I1
s.(dp0
Vcykymz9
p1
I1
sVd2agh4m
p2
I1
s.(dp0
Vcykymz9
p1
I1
sVd2agh4m
p2
I1
s.(dp0
Vcykymz9
p1
I1
sVd2agh4m
p2
I1
s.(dp0
Vcykymz9
p1
I1
sVd2agh4m
p2
I1
s.(dp0
Vcykymz9
p1
I1
sVd2c4qzn
p2
I1
s.(dp0
Vcykymz9
p1
I1
sVd2c4qzn
p2
I1
s.(dp0
Vcykymz9
p1
I1
sVd2dc17p
p2
I1
s.(dp0
Vcykymz9
p1
I1
sVd2fwayu
p2
I1
s.(dp0
Vcykymz9
p1
I1
sVd2g8jbn
p2
I1
s.(dp0
Vcykymz9
p1
I1
sVd2hibrt
p2
I1
s.(dp0
Vd2imlnu
p1
I1
sVcykymz9
p2
I1
s.(dp0
Vd2imz27
p1
I1
sVcykymz9
p2
I1
s.(dp0
Vcykymz9
p1
I1
sVd2m82su
p2
I1
s.(dp0
Vcykymz9
p1
I1
sVd2o4cju
p2
I1
s.(dp0
Vcykymz9
p1
I1
sVd2o7141
p2
I1
s.(dp0
Vd2pzbg0
p1
I1
sVcykymz9
p2
I1
s.(dp0
Vcykymz9
p1
I1
sVd2tgd3l
p2
I1
s.(dp0
Vcykymz9
p1
I1
sVd2urqui
p2
I1
s.(dp0
Vd32wnob
p1
I1
sVcykymz9
p2
I1
s.(dp0
Vcykymz9
p1
I1
sVd373emr
p2
I1
s.(dp0
Vcykymz9
p1
I1
sVd3c72s9
p2
I1
s.(dp0
Vcykymz9
p1
I1
sVd3c72s9
p2
I1
s.(dp0
Vcykymz9
p1
I1
sVd3d6yr5
p2
I1
s.(dp0
Vcykymz9
p1
I1
sVd3dqoyf
p2
I1
s.(dp0
Vcykymz9
p1
I1
sVd3edj6r
p2
I1
s.(dp0
Vcykymz9
p1
I1
sVd3h0zgk
p2
I1
s.(dp0
Vcykymz9
p1
I1
sVd3h1cs4
p2
I1
s.(dp0
Vcykymz9
p1
I1
sVd3pm5xq
p2
I1
s.(dp0
Vcykymz9
p1
I1
sVd3r25cb
p2
I1
s.(dp0
Vcykymz9
p1
I1
sVd3tat6r
p2
I1
s.(dp0
Vcykymz9
p1
I1
sVd3xsbd7
p2
I1
s.(dp0
Vcykymz9
p1
I1
sVd3zhqxx
p2
I1
s.(dp0
Vcykymz9
p1
I1
sVd45yifu
p2
I1
s.(dp0
Vcykymz9
p1
I1
sVd46ch50
p2
I1
s.(dp0
Vcykymz9
p1
I1
sVd4970z6
p2
I1
s.(dp0
Vcykymz9
p1
I1
sVd4970z6
p2
I1
s.(dp0
Vcykymz9
p1
I1
sVd4e5akd
p2
I1
s.(dp0
Vcykymz9
p1
I1
sVd4lawiq
p2
I1
s.(dp0
Vcykymz9
p1
I1
sVd4o0whk
p2
I1
s.(dp0
Vcykymz9
p1
I1
sVd4qumy4
p2
I1
s.(dp0
Vcykymz9
p1
I1
sVd4y1jy9
p2
I1
s.(dp0
Vcykymz9
p1
I1
sVd4ycntl
p2
I1
s.(dp0
Vcykymz9
p1
I1
sVd4zz6rj
p2
I1
s.(dp0
Vcykymz9
p1
I1
sVd528shi
p2
I1
s.(dp0
Vcykymz9
p1
I1
sVd53eyzp
p2
I1
s.(dp0
Vcykymz9
p1
I1
sVd55m3q9
p2
I1
s.(dp0
Vcykymz9
p1
I1
sVd59jouo
p2
I1
s.(dp0
Vd5aql9q
p1
I1
sVcykymz9
p2
I1
s.(dp0
Vcykymz9
p1
I1
sVd5fuxt0
p2
I1
s.(dp0
Vcykymz9
p1
I1
sVd5lqlav
p2
I1
s.(dp0
Vd5p1xp7
p1
I1
sVcykymz9
p2
I1
s.(dp0
Vcykymz9
p1
I1
sVd5qkz7l
p2
I1
s.(dp0
Vcykymz9
p1
I1
sVd5re8g2
p2
I1
s.(dp0
Vcykymz9
p1
I1
sVd5wbj7x
p2
I1
s.(dp0
Vcykymz9
p1
I1
sVd62nyl8
p2
I1
s.(dp0
Vcykymz9
p1
I1
sVd62zu9j
p2
I1
s.(dp0
Vcykymz9
p1
I1
sVd676auc
p2
I1
s.(dp0
Vd6ewfny
p1
I1
sVcykymz9
p2
I1
s.(dp0
Vcykymz9
p1
I1
sVd6exl4q
p2
I1
s.(dp0
Vcy(dp0
Vcykymz9
p1
I1
sVdor0fct
p2
I1
s.