(dp0
Vcym7t8z
p1
I1
s.(dp0
Vcym7t8z
p1
I1
sVcyvinml
p2
I1
s.(dp0
Vczby89t
p1
I1
sVcym7t8z
p2
I1
s.(dp0
Vczby89t
p1
I1
sVcym7t8z
p2
I1
s.(dp0
Vczby89t
p1
I1
sVcym7t8z
p2
I1
s.(dp0
Vcym7t8z
p1
I1
sVczi49ys
p2
I1
s.(dp0
Vcym7t8z
p1
I1
sVd0lrk68
p2
I1
s.(dp0
Vcym7t8z
p1
I1
sVd0ozgci
p2
I1
s.(dp0
Vd16bk4k
p1
I1
sVcym7t8z
p2
I1
s.(dp0
Vcym7t8z
p1
I1
sVd2wc5z9
p2
I1
s.(dp0
Vcym7t8z
p1
I1
sVd2wc5z9
p2
I1
s.(dp0
Vcym7t8z
p1
I1
sVd31b2wf
p2
I1
s.(dp0
Vcym7t8z
p1
I1
sVd31b2wf
p2
I1
s.(dp0
Vd3ase21
p1
I1
sVcym7t8z
p2
I1
s.(dp0
Vcym7t8z
p1
I1
sVd3iwtjy
p2
I1
s.(dp0
Vcym7t8z
p1
I1
sVd4qb6as
p2
I1
s.(dp0
Vcym7t8z
p1
I1
sVd4vfslu
p2
I1
s.(dp0
Vd5356m5
p1
I1
sVcym7t8z
p2
I1
s.(dp0
Vd5356m5
p1
I1
sVcym7t8z
p2
I1
s.(dp0
Vd5356m5
p1
I1
sVcym7t8z
p2
I1
s.(dp0
Vcym7t8z
p1
I1
sVd57v8ki
p2
I1
s.(dp0
Vcym7t8z
p1
I1
sVd5t677a
p2
I1
s.(dp0
Vcym7t8z
p1
I1
sVd5t7f6a
p2
I1
s.(dp0
Vcym7t8z
p1
I1
sVd6gy4lu
p2
I1
s.(dp0
Vcym7t8z
p1
I1
sVd7i0eb6
p2
I1
s.(dp0
Vcym7t8z
p1
I1
sVd7iq340
p2
I1
s.(dp0
Vcym7t8z
p1
I1
sVd7ydtu9
p2
I1
s.(dp0
Vcym7t8z
p1
I1
sVd84hs3e
p2
I1
s.(dp0
Vcym7t8z
p1
I1
sVd8usi89
p2
I1
s.(dp0
Vcym7t8z
p1
I1
sVd97kr1s
p2
I1
s.(dp0
Vcym7t8z
p1
I1
sVd9q1a3g
p2
I1
s.(dp0
Vcym7t8z
p1
I1
sVd9vxt16
p2
I1
s.(dp0
Vcym7t8z
p1
I1
sVdabcurr
p2
I1
s.(dp0
Vcym7t8z
p1
I1
sVdabtp43
p2
I1
s.(dp0
Vcym7t8z
p1
I1
sVdan8pl4
p2
I1
s.(dp0
Vcym7t8z
p1
I1
sVdawpcer
p2
I1
s.(dp0
Vcym7t8z
p1
I1
sVdawwec3
p2
I1
s.(dp0
Vcym7t8z
p1
I1
sVdawwec3
p2
I1
s.(dp0
Vcym7t8z
p1
I1
sVdb56u2b
p2
I1
s.(dp0
Vcym7t8z
p1
I1
sVdb574lh
p2
I1
s.(dp0
Vcym7t8z
p1
I1
sVdb574lh
p2
I1
s.(dp0
Vcym7t8z
p1
I1
sVdb574lh
p2
I1
s.(dp0
Vcym7t8z
p1
I1
sVdb89chs
p2
I1
s.(dp0
Vcym7t8z
p1
I1
sVdbczl9b
p2
I1
s.(dp0
Vcym7t8z
p1
I1
sVdben4hn
p2
I1
s.(dp0
Vcym7t8z
p1
I1
sVdbqvt7g
p2
I1
s.(dp0
Vcym7t8z
p1
I1
sVdcknq3i
p2
I1
s.(dp0
Vcym7t8z
p1
I1
sVddjuzrt
p2
I1
s.(dp0
Vcym7t8z
p1
I1
sVde74lij
p2
I1
s.(dp0
Vcym7t8z
p1
I1
sVdeg68l7
p2
I1
s.(dp0
Vdeg8511
p1
I1
sVcym7t8z
p2
I1
s.(dp0
Vdeg8511
p1
I1
sVcym7t8z
p2
I1
s.(dp0
Vdeg8511
p1
I1
sVcym7t8z
p2
I1
s.(dp0
Vcym7t8z
p1
I1
sVdfuqutg
p2
I1
s.(dp0
Vcym7t8z
p1
I1
sVdfyra5h
p2
I1
s.(dp0
Vcym7t8z
p1
I1
sVdg1ui4k
p2
I1
s.(dp0
Vcym7t8z
p1
I1
sVdg1ui4k
p2
I1
s.(dp0
Vcym7t8z
p1
I1
sVdgey1tx
p2
I1
s.(dp0
Vcym7t8z
p1
I1
sVdgxe4dg
p2
I1
s.(dp0
Vcym7t8z
p1
I1
sVdh1t400
p2
I1
s.(dp0
Vcym7t8z
p1
I1
sVdhevwj8
p2
I1
s.(dp0
Vcym7t8z
p1
I1
sVdik5u4b
p2
I1
s.(dp0
Vcym7t8z
p1
I1
sVditbfej
p2
I1
s.(dp0
Vcym7t8z
p1
I1
sVdj23wxw
p2
I1
s.(dp0
Vdj8n447
p1
I1
sVcym7t8z
p2
I1
s.(dp0
Vcym7t8z
p1
I1
sVdjd8sna
p2
I1
s.(dp0
Vdjh6qqa
p1
I1
sVcym7t8z
p2
I1
s.(dp0
Vcym7t8z
p1
I1
sVdjkh8xz
p2
I1
s.