(dp0
Vcyjsi9f
p1
I1
s.(dp0
Vcyjsi9f
p1
I1
sVcypfojf
p2
I1
s.(dp0
Vcyjsi9f
p1
I1
sVcypfojf
p2
I1
s.(dp0
Vcyjsi9f
p1
I1
sVczbq05e
p2
I1
s.(dp0
Vcyjsi9f
p1
I1
sVczeklmy
p2
I1
s.(dp0
Vcyjsi9f
p1
I1
sVczeklmy
p2
I1
s.(dp0
Vcyjsi9f
p1
I1
sVczfptal
p2
I1
s.(dp0
Vcyjsi9f
p1
I1
sVczhjr18
p2
I1
s.(dp0
Vcyjsi9f
p1
I1
sVcziwmo7
p2
I1
s.(dp0
Vcyjsi9f
p1
I1
sVd098z5x
p2
I1
s.(dp0
Vcyjsi9f
p1
I1
sVd09e57g
p2
I1
s.(dp0
Vcyjsi9f
p1
I1
sVd09hrl2
p2
I1
s.(dp0
Vcyjsi9f
p1
I1
sVd09hrl2
p2
I1
s.(dp0
Vcyjsi9f
p1
I1
sVd09ijpm
p2
I1
s.(dp0
Vcyjsi9f
p1
I1
sVd09m4qf
p2
I1
s.(dp0
Vcyjsi9f
p1
I1
sVd0cfbd0
p2
I1
s.(dp0
Vcyjsi9f
p1
I1
sVd0v7yyu
p2
I1
s.(dp0
Vcyjsi9f
p1
I1
sVd18w7pa
p2
I1
s.(dp0
Vcyjsi9f
p1
I1
sVd1ac2km
p2
I1
s.(dp0
Vcyjsi9f
p1
I1
sVd1dc3zq
p2
I1
s.(dp0
Vcyjsi9f
p1
I1
sVd1j8w6a
p2
I1
s.(dp0
Vcyjsi9f
p1
I1
sVd1k0dl0
p2
I1
s.(dp0
Vcyjsi9f
p1
I1
sVd1mzhyd
p2
I1
s.(dp0
Vcyjsi9f
p1
I1
sVd1r0f1j
p2
I1
s.(dp0
Vcyjsi9f
p1
I1
sVd1r49pu
p2
I1
s.(dp0
Vcyjsi9f
p1
I1
sVd229scd
p2
I1
s.(dp0
Vcyjsi9f
p1
I1
sVd229scd
p2
I1
s.(dp0
Vcyjsi9f
p1
I1
sVd229scd
p2
I1
s.(dp0
Vcyjsi9f
p1
I1
sVd229scd
p2
I1
s.(dp0
Vcyjsi9f
p1
I1
sVd2gmvwy
p2
I1
s.(dp0
Vcyjsi9f
p1
I1
sVd2t8p12
p2
I1
s.(dp0
Vcyjsi9f
p1
I1
sVd2uczr4
p2
I1
s.(dp0
Vcyjsi9f
p1
I1
sVd2xsunf
p2
I1
s.(dp0
Vcyjsi9f
p1
I1
sVd2xt68d
p2
I1
s.(dp0
Vcyjsi9f
p1
I1
sVd2xt68d
p2
I1
s.(dp0
Vcyjsi9f
p1
I1
sVd35qwo9
p2
I1
s.(dp0
Vcyjsi9f
p1
I1
sVd3gfnvi
p2
I1
s.(dp0
Vcyjsi9f
p1
I1
sVd3ggy6q
p2
I1
s.(dp0
Vcyjsi9f
p1
I1
sVd3miyer
p2
I1
s.(dp0
Vcyjsi9f
p1
I1
sVd3miyer
p2
I1
s.(dp0
Vcyjsi9f
p1
I1
sVd4voykw
p2
I1
s.(dp0
Vcyjsi9f
p1
I1
sVd4yhidg
p2
I1
s.(dp0
Vcyjsi9f
p1
I1
sVd5hvm6l
p2
I1
s.(dp0
Vcyjsi9f
p1
I1
sVd5hvm6l
p2
I1
s.(dp0
Vcyjsi9f
p1
I1
sVd5hvo58
p2
I1
s.(dp0
Vcyjsi9f
p1
I1
sVd5hvo58
p2
I1
s.(dp0
Vcyjsi9f
p1
I1
sVd69ccq8
p2
I1
s.(dp0
Vcyjsi9f
p1
I1
sVd69ccq8
p2
I1
s.(dp0
Vcyjsi9f
p1
I1
sVd69ccq8
p2
I1
s.(dp0
Vcyjsi9f
p1
I1
sVd70aovr
p2
I1
s.(dp0
Vcyjsi9f
p1
I1
sVd70aovr
p2
I1
s.(dp0
Vcyjsi9f
p1
I1
sVd7ib2sm
p2
I1
s.(dp0
Vcyjsi9f
p1
I1
sVd7jx50z
p2
I1
s.(dp0
Vcyjsi9f
p1
I1
sVd7xgp4d
p2
I1
s.(dp0
Vcyjsi9f
p1
I1
sVd7yg9ae
p2
I1
s.(dp0
Vcyjsi9f
p1
I1
sVd88lgsi
p2
I1
s.(dp0
Vcyjsi9f
p1
I1
sVd88o1w3
p2
I1
s.(dp0
Vcyjsi9f
p1
I1
sVd8v8e0p
p2
I1
s.(dp0
Vcyjsi9f
p1
I1
sVd8vbmmi
p2
I1
s.(dp0
Vcyjsi9f
p1
I1
sVd99tawd
p2
I1
s.(dp0
Vcyjsi9f
p1
I1
sVd9lrlyy
p2
I1
s.(dp0
Vcyjsi9f
p1
I1
sVd9p70gs
p2
I1
s.(dp0
Vcyjsi9f
p1
I1
sVd9p70gs
p2
I1
s.(dp0
Vcyjsi9f
p1
I1
sVd9p9w6k
p2
I1
s.(dp0
Vcyjsi9f
p1
I1
sVda7pi48
p2
I1
s.(dp0
Vcyjsi9f
p1
I1
sVdaq4883
p2
I1
s.(dp0
Vcyjsi9f
p1
I1
sVdaq4883
p2
I1
s.(dp0
Vcyjsi9f
p1
I1
sVdav3qrs
p2
I1
s.(dp0
Vcyjsi9f
p1
I1
sVdb265dr
p2
I1
s.(dp0
Vcyjsi9f
p1
I1
sVdb8acpx
p2
I1
s.(dp0
Vcyjsi9f
p1
I1
sVdbdi9r7
p2
I1
s.(dp0
Vcyjsi9f
p1
I1
sVdbesqw8
p2
I1
s.(dp0
Vcyjsi9f
p1
I1
sVdbnhyh5
p2
I1
s.(dp0
Vcyjsi9f
p1
I1
sVdbzyp54
p2
I1
s.(dp0
Vcyjsi9f
p1
I1
sVdc3szc1
p2
I1
s.(dp0
Vcyjsi9f
p1
I1
sVdci4kb4
p2
I1
s.(dp0
Vcyjsi9f
p1
I1
sVdd1zzhp
p2
I1
s.(dp0
Vcyjsi9f
p1
I1
sVdd1zzhp
p2
I1
s.(dp0
Vcyjsi9f
p1
I1
sVdd1zzhp
p2
I1
s.(dp0
Vcyjsi9f
p1
I1
sVdde8w20
p2
I1
s.(dp0
Vcyjsi9f
p1
I1
sVddhxyco
p2
I1
s.(dp0
Vcyjsi9f
p1
I1
sVddhxyco
p2
I1
s.(dp0
Vcyjsi9f
p1
I1
sVddi2ufs
p2
I1
s.(dp0
Vcyjsi9f
p1
I1
sVddiqa0j
p2
I1
s.(dp0
Vcyjsi9f
p1
I1
sVdekeizl
p2
I1
s.(dp0
Vcyjsi9f
p1
I1
sVdekzo1s
p2
I1
s.(dp0
Vcyjsi9f
p1
I1
sVdenei2t
p2
I1
s.(dp0
Vcyjsi9f
p1
I1
sVdenei2t
p2
I1
s.(dp0
Vcyjsi9f
p1
I1
sVdenzlku
p2
I1
s.(dp0
Vcyjsi9f
p1
I1
sVdenzlku
p2
I1
s.(dp0
Vcyjsi9f
p1
I1
sVdenzlku
p2
I1
s.(dp0
Vcyjsi9f
p1
I1
sVdepnrvq
p2
I1
s.(dp0
Vcyjsi9f
p1
I1
sVdeq0qp9
p2
I1
s.(dp0
Vcyjsi9f
p1
I1
sVdeq0qp9
p2
I1
s.(dp0
Vcyjsi9f
p1
I1
sVdfn26m2
p2
I1
s.(dp0
Vcyjsi9f
p1
I1
sVdfn26m2
p2
I1
s.(dp0
Vcyjsi9f
p1
I1
sVdg34uwi
p2
I1
s.(dp0
Vcyjsi9f
p1
I1
sVdghltew
p2
I1
s.(dp0
Vcyjsi9f
p1
I1
sVdghltew
p2
I1
s.(dp0
Vcyjsi9f
p1
I1
sVdghltew
p2
I1
s.(dp0
Vcyjsi9f
p1
I1
sVdgs3vti
p2
I1
s.(dp0
Vcyjsi9f
p1
I1
sVdhjoxfj
p2
I1
s.(dp0
Vcyjsi9f
p1
I1
sVdhkh7tp
p2
I1
s.(dp0
Vcyjsi9f
p1
I1
sVdhkh7tp
p2
I1
s.(dp0
Vcyjsi9f
p1
I1
sVdhlwaxq
p2
I1
s.(dp0
Vcyjsi9f
p1
I1
sVdi67spj
p2
I1
s.(dp0
Vcyjsi9f
p1
I1
sVdicubw7
p2
I1
s.(dp0
Vcyjsi9f
p1
I1
sVdicxb4k
p2
I1
s.(dp0
Vcy(dp0
Vcyjsi9f
p1
I1
sVdoayg4o
p2
I1
s.