(dp0
Vcyikyau
p1
I1
s.(dp0
Vcynxnd3
p1
I1
sVcyikyau
p2
I1
s.(dp0
Vcyikyau
p1
I1
sVcyp9x7b
p2
I1
s.(dp0
Vcyz2tux
p1
I1
sVcyikyau
p2
I1
s.(dp0
Vcyikyau
p1
I1
sVcz3gpor
p2
I1
s.(dp0
Vcz4epxc
p1
I1
sVcyikyau
p2
I1
s.(dp0
Vczbitld
p1
I1
sVcyikyau
p2
I1
s.(dp0
Vczepen4
p1
I1
sVcyikyau
p2
I1
s.(dp0
Vcyikyau
p1
I1
sVczfrpw9
p2
I1
s.(dp0
Vcyikyau
p1
I1
sVczihycx
p2
I1
s.(dp0
Vcyikyau
p1
I1
sVczmahu0
p2
I1
s.(dp0
Vcyikyau
p1
I1
sVczou9us
p2
I1
s.(dp0
Vd02tx29
p1
I1
sVcyikyau
p2
I1
s.(dp0
Vd05jqwu
p1
I1
sVcyikyau
p2
I1
s.(dp0
Vd06ryxk
p1
I1
sVcyikyau
p2
I1
s.(dp0
Vd073dcx
p1
I1
sVcyikyau
p2
I1
s.(dp0
Vcyikyau
p1
I1
sVd0cdvh5
p2
I1
s.(dp0
Vcyikyau
p1
I1
sVd0d1a1m
p2
I1
s.(dp0
Vcyikyau
p1
I1
sVd0qmzwy
p2
I1
s.(dp0
Vd104g0b
p1
I1
sVcyikyau
p2
I1
s.(dp0
Vd104g0b
p1
I1
sVcyikyau
p2
I1
s.(dp0
Vd104mbo
p1
I1
sVcyikyau
p2
I1
s.(dp0
Vd1ek055
p1
I1
sVcyikyau
p2
I1
s.(dp0
Vcyikyau
p1
I1
sVd1evybj
p2
I1
s.(dp0
Vd1k27ra
p1
I1
sVcyikyau
p2
I1
s.(dp0
Vd1ycma7
p1
I1
sVcyikyau
p2
I1
s.(dp0
Vd22xc3u
p1
I1
sVcyikyau
p2
I1
s.(dp0
Vd2go0cj
p1
I1
sVcyikyau
p2
I1
s.(dp0
Vcyikyau
p1
I1
sVd2ley5i
p2
I1
s.(dp0
Vd2qmy67
p1
I1
sVcyikyau
p2
I1
s.(dp0
Vcyikyau
p1
I1
sVd2ua5vn
p2
I1
s.(dp0
Vcyikyau
p1
I1
sVd3glqnp
p2
I1
s.(dp0
Vd3tul83
p1
I1
sVcyikyau
p2
I1
s.(dp0
Vd3tul83
p1
I1
sVcyikyau
p2
I1
s.(dp0
Vcyikyau
p1
I1
sVd43q44p
p2
I1
s.(dp0
Vcyikyau
p1
I1
sVd43q44p
p2
I1
s.(dp0
Vcyikyau
p1
I1
sVd4hnvk7
p2
I1
s.(dp0
Vd5pgwf5
p1
I1
sVcyikyau
p2
I1
s.(dp0
Vd6bea78
p1
I1
sVcyikyau
p2
I1
s.(dp0
Vd6m6792
p1
I1
sVcyikyau
p2
I1
s.(dp0
Vcyikyau
p1
I1
sVd8vc746
p2
I1
s.(dp0
Vd8x3d2u
p1
I1
sVcyikyau
p2
I1
s.(dp0
Vcyikyau
p1
I1
sVd9h91ij
p2
I1
s.(dp0
Vcyikyau
p1
I1
sVd9yqkrd
p2
I1
s.(dp0
Vdai7a46
p1
I1
sVcyikyau
p2
I1
s.(dp0
Vcyikyau
p1
I1
sVdas15cf
p2
I1
s.(dp0
Vcyikyau
p1
I1
sVdat4ifd
p2
I1
s.(dp0
Vdb1mbty
p1
I1
sVcyikyau
p2
I1
s.(dp0
Vdbfriil
p1
I1
sVcyikyau
p2
I1
s.(dp0
Vcyikyau
p1
I1
sVdbl9ap0
p2
I1
s.(dp0
Vcyikyau
p1
I1
sVdboq1hb
p2
I1
s.(dp0
Vdbrfhj8
p1
I1
sVcyikyau
p2
I1
s.(dp0
Vdbt035h
p1
I1
sVcyikyau
p2
I1
s.(dp0
Vdc47pip
p1
I1
sVcyikyau
p2
I1
s.(dp0
Vcyikyau
p1
I1
sVdc4ml7o
p2
I1
s.(dp0
Vcyikyau
p1
I1
sVdcpv6r7
p2
I1
s.(dp0
Vdcuv3vq
p1
I1
sVcyikyau
p2
I1
s.(dp0
Vdcvxkxd
p1
I1
sVcyikyau
p2
I1
s.(dp0
Vcyikyau
p1
I1
sVddb4qzm
p2
I1
s.(dp0
Vcyikyau
p1
I1
sVddgv0ag
p2
I1
s.(dp0
Vddhvqa4
p1
I1
sVcyikyau
p2
I1
s.(dp0
Vcyikyau
p1
I1
sVddoqt75
p2
I1
s.(dp0
Vddwnaoj
p1
I1
sVcyikyau
p2
I1
s.(dp0
Vdec29gb
p1
I1
sVcyikyau
p2
I1
s.(dp0
Vdelwpuy
p1
I1
sVcyikyau
p2
I1
s.(dp0
Vcyikyau
p1
I1
sVdem1aww
p2
I1
s.(dp0
Vdepk2qc
p1
I1
sVcyikyau
p2
I1
s.(dp0
Vder3798
p1
I1
sVcyikyau
p2
I1
s.(dp0
Vcyikyau
p1
I1
sVdf9tyw9
p2
I1
s.(dp0
Vdfbyekt
p1
I1
sVcyikyau
p2
I1
s.(dp0
Vdfm3u8l
p1
I1
sVcyikyau
p2
I1
s.(dp0
Vdfmsfyx
p1
I1
sVcyikyau
p2
I1
s.(dp0
Vcyikyau
p1
I1
sVdg3onu6
p2
I1
s.(dp0
Vdg9dw8n
p1
I1
sVcyikyau
p2
I1
s.(dp0
Vdg9dw8n
p1
I1
sVcyikyau
p2
I1
s.(dp0
Vdglghb9
p1
I1
sVcyikyau
p2
I1
s.(dp0
Vcyikyau
p1
I1
sVdhwf9st
p2
I1
s.(dp0
Vdi58j4i
p1
I1
sVcyikyau
p2
I1
s.(dp0
Vdilzl3c
p1
I1
sVcyikyau
p2
I1
s.(dp0
Vcyikyau
p1
I1
sVdjdbrat
p2
I1
s.(dp0
Vcyikyau
p1
I1
sVdjl4u9t
p2
I1
s.(dp0
Vdju2k2o
p1
I1
sVcyikyau
p2
I1
s.(dp0
Vdk4d2bh
p1
I1
sVcyikyau
p2
I1
s.(dp0
Vdk57fa5
p1
I1
sVcyikyau
p2
I1
s.(dp0
Vdk59s5l
p1
I1
sVcyikyau
p2
I1
s.(dp0
Vdkt6540
p1
I1
sVcyikyau
p2
I1
s.