(dp0
Vcyz66ze
p1
I1
s.(dp0
Vcyz66ze
p1
I1
sVcz07jzj
p2
I1
s.(dp0
Vcyz66ze
p1
I1
sVcz2pbkz
p2
I1
s.(dp0
Vczg3r6a
p1
I1
sVcyz66ze
p2
I1
s.(dp0
Vcyz66ze
p1
I1
sVczmmtq0
p2
I1
s.(dp0
Vczqqwcz
p1
I1
sVcyz66ze
p2
I1
s.(dp0
Vcyz66ze
p1
I1
sVczy4y24
p2
I1
s.(dp0
Vcyz66ze
p1
I1
sVczzm7gj
p2
I1
s.(dp0
Vd051xkl
p1
I1
sVcyz66ze
p2
I1
s.(dp0
Vcyz66ze
p1
I1
sVd10hfri
p2
I1
s.(dp0
Vcyz66ze
p1
I1
sVd1j48rf
p2
I1
s.(dp0
Vcyz66ze
p1
I1
sVd1tsjl2
p2
I1
s.(dp0
Vcyz66ze
p1
I1
sVd2c4mvs
p2
I1
s.(dp0
Vcyz66ze
p1
I1
sVd2hzf3t
p2
I1
s.(dp0
Vcyz66ze
p1
I1
sVd2hzf3t
p2
I1
s.(dp0
Vd2j2m6z
p1
I1
sVcyz66ze
p2
I1
s.(dp0
Vcyz66ze
p1
I1
sVd2yxaxc
p2
I1
s.(dp0
Vcyz66ze
p1
I1
sVd310w65
p2
I1
s.(dp0
Vcyz66ze
p1
I1
sVd4czp3h
p2
I1
s.(dp0
Vcyz66ze
p1
I1
sVd50mzc7
p2
I1
s.(dp0
Vcyz66ze
p1
I1
sVd5m36v3
p2
I1
s.(dp0
Vcyz66ze
p1
I1
sVd5pkrlc
p2
I1
s.(dp0
Vcyz66ze
p1
I1
sVd5xshib
p2
I1
s.(dp0
Vcyz66ze
p1
I1
sVd6hoorn
p2
I1
s.(dp0
Vd6u9etg
p1
I1
sVcyz66ze
p2
I1
s.(dp0
Vd7k7xxl
p1
I1
sVcyz66ze
p2
I1
s.(dp0
Vcyz66ze
p1
I1
sVd83lt9i
p2
I1
s.(dp0
Vd83w7t3
p1
I1
sVcyz66ze
p2
I1
s.(dp0
Vd87xw4w
p1
I1
sVcyz66ze
p2
I1
s.(dp0
Vcyz66ze
p1
I1
sVd8qq4wv
p2
I1
s.(dp0
Vd8xwgzv
p1
I1
sVcyz66ze
p2
I1
s.(dp0
Vcyz66ze
p1
I1
sVd9q6j94
p2
I1
s.(dp0
Vcyz66ze
p1
I1
sVd9r8ob5
p2
I1
s.(dp0
Vcyz66ze
p1
I1
sVd9tnk9h
p2
I1
s.(dp0
Vcyz66ze
p1
I1
sVd9ys1ft
p2
I1
s.(dp0
Vcyz66ze
p1
I1
sVda0vt23
p2
I1
s.(dp0
Vdaawz4v
p1
I1
sVcyz66ze
p2
I1
s.(dp0
Vcyz66ze
p1
I1
sVdabkpqe
p2
I1
s.(dp0
Vcyz66ze
p1
I1
sVdamp4mm
p2
I1
s.(dp0
Vdaplkjq
p1
I1
sVcyz66ze
p2
I1
s.(dp0
Vcyz66ze
p1
I1
sVdaypzza
p2
I1
s.(dp0
Vcyz66ze
p1
I1
sVdaypzza
p2
I1
s.(dp0
Vcyz66ze
p1
I1
sVdbdo8pt
p2
I1
s.(dp0
Vdbihx26
p1
I1
sVcyz66ze
p2
I1
s.(dp0
Vcyz66ze
p1
I1
sVdc8sp6k
p2
I1
s.(dp0
Vdcksb24
p1
I1
sVcyz66ze
p2
I1
s.(dp0
Vcyz66ze
p1
I1
sVdcxfrgv
p2
I1
s.(dp0
Vcyz66ze
p1
I1
sVddssugz
p2
I1
s.(dp0
Vcyz66ze
p1
I1
sVde4s9et
p2
I1
s.(dp0
Vcyz66ze
p1
I1
sVdelz1du
p2
I1
s.(dp0
Vcyz66ze
p1
I1
sVdf3joes
p2
I1
s.(dp0
Vcyz66ze
p1
I1
sVdfgkpkr
p2
I1
s.(dp0
Vcyz66ze
p1
I1
sVdfpwmt5
p2
I1
s.(dp0
Vdfpzb48
p1
I1
sVcyz66ze
p2
I1
s.(dp0
Vcyz66ze
p1
I1
sVdfvaba6
p2
I1
s.(dp0
Vcyz66ze
p1
I1
sVdfvaba6
p2
I1
s.(dp0
Vcyz66ze
p1
I1
sVdfy6ket
p2
I1
s.(dp0
Vcyz66ze
p1
I1
sVdg9rxgj
p2
I1
s.(dp0
Vcyz66ze
p1
I1
sVdh3wh9d
p2
I1
s.(dp0
Vdh52268
p1
I1
sVcyz66ze
p2
I1
s.(dp0
Vcyz66ze
p1
I1
sVdhjo81h
p2
I1
s.(dp0
Vcyz66ze
p1
I1
sVdht4l33
p2
I1
s.(dp0
Vdi6vn8n
p1
I1
sVcyz66ze
p2
I1
s.(dp0
Vcyz66ze
p1
I1
sVdifecjv
p2
I1
s.(dp0
Vcyz66ze
p1
I1
sVdiljbp1
p2
I1
s.(dp0
Vcyz66ze
p1
I1
sVdivh2sd
p2
I1
s.(dp0
Vdizj3vq
p1
I1
sVcyz66ze
p2
I1
s.(dp0
Vcyz66ze
p1
I1
sVdkbnsyy
p2
I1
s.(dp0
Vcyz66ze
p1
I1
sVdkbnsyy
p2
I1
s.(dp0
Vcyz66ze
p1
I1
sVdkbnsyy
p2
I1
s.(dp0
Vcyz66ze
p1
I1
sVdkbnsyy
p2
I1
s.(dp0
Vcyz66ze
p1
I1
sVdkbnsyy
p2
I1
s.(dp0
Vcyz66ze
p1
I1
sVdkbnsyy
p2
I1
s.(dp0
Vcyz66ze
p1
I1
sVdkve2d1
p2
I1
s.(dp0
Vcyz66ze
p1
I1
sVdn6xn77
p2
I1
s.(dp0
Vcyz66ze
p1
I1
sVdn73fju
p2
I1
s.(dp0
Vcyz66ze
p1
I1
sVdo9jnrl
p2
I1
s.