(dp0
Vcz5fdk7
p1
I1
s.(dp0
Vcziqd43
p1
I1
sVcz5fdk7
p2
I1
s.(dp0
Vd01nlvi
p1
I1
sVcz5fdk7
p2
I1
s.(dp0
Vdafkold
p1
I1
sVcz5fdk7
p2
I1
s.(dp0
Vdcdlapg
p1
I1
sVcz5fdk7
p2
I1
s.(dp0
Vdkjxspb
p1
I1
sVcz5fdk7
p2
I1
s.