(dp0
Vcylm2db
p1
I1
s.(dp0
Vcylm2db
p1
I1
sVcynfvom
p2
I1
s.(dp0
Vcylm2db
p1
I1
sVcyow4r6
p2
I1
s.(dp0
Vcylm2db
p1
I1
sVcyr53vl
p2
I1
s.(dp0
Vcylm2db
p1
I1
sVcyrasl3
p2
I1
s.(dp0
Vcylm2db
p1
I1
sVcyu3kmi
p2
I1
s.(dp0
Vcylm2db
p1
I1
sVcyucpvh
p2
I1
s.(dp0
Vcylm2db
p1
I1
sVcyudsee
p2
I1
s.(dp0
Vcylm2db
p1
I1
sVcyumrrb
p2
I1
s.(dp0
Vcylm2db
p1
I1
sVcyumrrb
p2
I1
s.(dp0
Vcylm2db
p1
I1
sVcyvvcr1
p2
I1
s.(dp0
Vcylm2db
p1
I1
sVcyxdux6
p2
I1
s.(dp0
Vcylm2db
p1
I1
sVcyyef9d
p2
I1
s.(dp0
Vcylm2db
p1
I1
sVcyyef9d
p2
I1
s.(dp0
Vcylm2db
p1
I1
sVcz7ohil
p2
I1
s.(dp0
Vcylm2db
p1
I1
sVcz7ohil
p2
I1
s.(dp0
Vcylm2db
p1
I1
sVcz7ohil
p2
I1
s.(dp0
Vcylm2db
p1
I1
sVcz821mw
p2
I1
s.(dp0
Vcylm2db
p1
I1
sVcz8vw5k
p2
I1
s.(dp0
Vcylm2db
p1
I1
sVcz9wks8
p2
I1
s.(dp0
Vcylm2db
p1
I1
sVcz9wks8
p2
I1
s.(dp0
Vcylm2db
p1
I1
sVczddaar
p2
I1
s.(dp0
Vcylm2db
p1
I1
sVczhybj3
p2
I1
s.(dp0
Vcylm2db
p1
I1
sVczhybj3
p2
I1
s.(dp0
Vcylm2db
p1
I1
sVczlouff
p2
I1
s.(dp0
Vcylm2db
p1
I1
sVczlzibz
p2
I1
s.(dp0
Vcylm2db
p1
I1
sVczn4f1h
p2
I1
s.(dp0
Vcylm2db
p1
I1
sVcztktv2
p2
I1
s.(dp0
Vcylm2db
p1
I1
sVcztktv2
p2
I1
s.(dp0
Vcylm2db
p1
I1
sVcztktv2
p2
I1
s.(dp0
Vcylm2db
p1
I1
sVczwgu4a
p2
I1
s.(dp0
Vcylm2db
p1
I1
sVczwgu4a
p2
I1
s.(dp0
Vcylm2db
p1
I1
sVczze82x
p2
I1
s.(dp0
Vcylm2db
p1
I1
sVczze82x
p2
I1
s.(dp0
Vcylm2db
p1
I1
sVczzew6z
p2
I1
s.(dp0
Vcylm2db
p1
I1
sVczzew6z
p2
I1
s.(dp0
Vcylm2db
p1
I1
sVczzew6z
p2
I1
s.(dp0
Vcylm2db
p1
I1
sVczzew6z
p2
I1
s.(dp0
Vcylm2db
p1
I1
sVczzew6z
p2
I1
s.(dp0
Vcylm2db
p1
I1
sVczzew6z
p2
I1
s.(dp0
Vcylm2db
p1
I1
sVd00r92z
p2
I1
s.(dp0
Vcylm2db
p1
I1
sVd093vx1
p2
I1
s.(dp0
Vcylm2db
p1
I1
sVd0bhi5b
p2
I1
s.(dp0
Vcylm2db
p1
I1
sVd0bhi5b
p2
I1
s.(dp0
Vcylm2db
p1
I1
sVd0gxnyb
p2
I1
s.(dp0
Vcylm2db
p1
I1
sVd0jz30w
p2
I1
s.(dp0
Vcylm2db
p1
I1
sVd0thiuw
p2
I1
s.(dp0
Vcylm2db
p1
I1
sVd0v7vw8
p2
I1
s.(dp0
Vcylm2db
p1
I1
sVd0xs98a
p2
I1
s.(dp0
Vcylm2db
p1
I1
sVd0xs98a
p2
I1
s.(dp0
Vcylm2db
p1
I1
sVd0xs98a
p2
I1
s.(dp0
Vcylm2db
p1
I1
sVd0xs98a
p2
I1
s.(dp0
Vcylm2db
p1
I1
sVd0xs98a
p2
I1
s.(dp0
Vcylm2db
p1
I1
sVd0xs98a
p2
I1
s.(dp0
Vcylm2db
p1
I1
sVd0xs98a
p2
I1
s.(dp0
Vcylm2db
p1
I1
sVd0ywb0r
p2
I1
s.(dp0
Vcylm2db
p1
I1
sVd1o7dri
p2
I1
s.(dp0
Vcylm2db
p1
I1
sVd1pigvf
p2
I1
s.(dp0
Vcylm2db
p1
I1
sVd1pigvf
p2
I1
s.(dp0
Vcylm2db
p1
I1
sVd1x5139
p2
I1
s.(dp0
Vcylm2db
p1
I1
sVd1zqdau
p2
I1
s.(dp0
Vcylm2db
p1
I1
sVd28vls5
p2
I1
s.(dp0
Vcylm2db
p1
I1
sVd2dwl9g
p2
I1
s.(dp0
Vcylm2db
p1
I1
sVd2j0wqv
p2
I1
s.(dp0
Vcylm2db
p1
I1
sVd2tev3r
p2
I1
s.(dp0
Vcylm2db
p1
I1
sVd2zp8q1
p2
I1
s.(dp0
Vcylm2db
p1
I1
sVd3al7j8
p2
I1
s.(dp0
Vcylm2db
p1
I1
sVd3b17me
p2
I1
s.(dp0
Vcylm2db
p1
I1
sVd3bcfe8
p2
I1
s.(dp0
Vcylm2db
p1
I1
sVd3bcfe8
p2
I1
s.(dp0
Vcylm2db
p1
I1
sVd3jbcws
p2
I1
s.(dp0
Vcylm2db
p1
I1
sVd3p9xxd
p2
I1
s.(dp0
Vcylm2db
p1
I1
sVd3p9za2
p2
I1
s.(dp0
Vcylm2db
p1
I1
sVd3rfpjs
p2
I1
s.(dp0
Vcylm2db
p1
I1
sVd3w0zfj
p2
I1
s.(dp0
Vcylm2db
p1
I1
sVd48yx5x
p2
I1
s.(dp0
Vcylm2db
p1
I1
sVd4arzgd
p2
I1
s.(dp0
Vcylm2db
p1
I1
sVd4arzgd
p2
I1
s.(dp0
Vcylm2db
p1
I1
sVd4dzo8o
p2
I1
s.(dp0
Vcylm2db
p1
I1
sVd4dzo8o
p2
I1
s.(dp0
Vcylm2db
p1
I1
sVd4h3pmz
p2
I1
s.(dp0
Vcylm2db
p1
I1
sVd4hfjr6
p2
I1
s.(dp0
Vcylm2db
p1
I1
sVd4iyeew
p2
I1
s.(dp0
Vcylm2db
p1
I1
sVd4o9oos
p2
I1
s.(dp0
Vcylm2db
p1
I1
sVd4o9oos
p2
I1
s.(dp0
Vcylm2db
p1
I1
sVd5bmu5j
p2
I1
s.(dp0
Vcylm2db
p1
I1
sVd5cvw5v
p2
I1
s.(dp0
Vcylm2db
p1
I1
sVd5h26hr
p2
I1
s.(dp0
Vcylm2db
p1
I1
sVd5m5lu8
p2
I1
s.(dp0
Vcylm2db
p1
I1
sVd5m5lu8
p2
I1
s.(dp0
Vcylm2db
p1
I1
sVd5o0uyl
p2
I1
s.(dp0
Vcylm2db
p1
I1
sVd5psw1v
p2
I1
s.(dp0
Vcylm2db
p1
I1
sVd5rcdkw
p2
I1
s.(dp0
Vcylm2db
p1
I1
sVd5ujf0e
p2
I1
s.(dp0
Vcylm2db
p1
I1
sVd5ujf0e
p2
I1
s.(dp0
Vcylm2db
p1
I1
sVd5ujf0e
p2
I1
s.(dp0
Vcylm2db
p1
I1
sVd62qwcy
p2
I1
s.(dp0
Vcylm2db
p1
I1
sVd6b4mka
p2
I1
s.(dp0
Vcylm2db
p1
I1
sVd6eg19e
p2
I1
s.(dp0
Vcylm2db
p1
I1
sVd6eg19e
p2
I1
s.(dp0
Vcylm2db
p1
I1
sVd6eg19e
p2
I1
s.(dp0
Vcylm2db
p1
I1
sVd6eg19e
p2
I1
s.(dp0
Vcylm2db
p1
I1
sVd6eg19e
p2
I1
s.(dp0
Vcylm2db
p1
I1
sVd6eqhur
p2
I1
s.(dp0
Vcylm2db
p1
I1
sVd6xw6bs
p2
I1
s.(dp0
Vcylm2db
p1
I1
sVd6z477l
p2
I1
s.(dp0
Vcylm2db
p1
I1
sVd6z477l
p2
I1
s.(dp0
Vcylm2db
p1
I1
sVd71cy11
p2
I1
s.(dp0
Vcy(dp0
Vcylm2db
p1
I1
sVdkvo66n
p2
I1
s.