(dp0
Vcyskpyh
p1
I1
s.(dp0
Vcz6pnq4
p1
I1
sVcyskpyh
p2
I1
s.(dp0
Vcz6pnq4
p1
I1
sVcyskpyh
p2
I1
s.(dp0
Vcyskpyh
p1
I1
sVd07697a
p2
I1
s.(dp0
Vd1o7dri
p1
I1
sVcyskpyh
p2
I1
s.(dp0
Vd2sxoul
p1
I1
sVcyskpyh
p2
I1
s.(dp0
Vd2zoqry
p1
I1
sVcyskpyh
p2
I1
s.(dp0
Vd35lm8b
p1
I1
sVcyskpyh
p2
I1
s.(dp0
Vd35n89w
p1
I1
sVcyskpyh
p2
I1
s.(dp0
Vd3f25b3
p1
I1
sVcyskpyh
p2
I1
s.(dp0
Vd3msekn
p1
I1
sVcyskpyh
p2
I1
s.(dp0
Vcyskpyh
p1
I1
sVd4hfjr6
p2
I1
s.(dp0
Vd62xvzo
p1
I1
sVcyskpyh
p2
I1
s.(dp0
Vd6eg19e
p1
I1
sVcyskpyh
p2
I1
s.(dp0
Vd6eg19e
p1
I1
sVcyskpyh
p2
I1
s.(dp0
Vd6eg19e
p1
I1
sVcyskpyh
p2
I1
s.(dp0
Vd6qj0mu
p1
I1
sVcyskpyh
p2
I1
s.(dp0
Vd738ua7
p1
I1
sVcyskpyh
p2
I1
s.(dp0
Vd7cw9mz
p1
I1
sVcyskpyh
p2
I1
s.(dp0
Vd7cw9mz
p1
I1
sVcyskpyh
p2
I1
s.(dp0
Vd81vpg3
p1
I1
sVcyskpyh
p2
I1
s.(dp0
Vd8205bz
p1
I1
sVcyskpyh
p2
I1
s.(dp0
Vd8205bz
p1
I1
sVcyskpyh
p2
I1
s.(dp0
Vd8205bz
p1
I1
sVcyskpyh
p2
I1
s.(dp0
Vd8p6iba
p1
I1
sVcyskpyh
p2
I1
s.(dp0
Vd8p6iba
p1
I1
sVcyskpyh
p2
I1
s.(dp0
Vd8vw070
p1
I1
sVcyskpyh
p2
I1
s.(dp0
Vcyskpyh
p1
I1
sVd9dwxq5
p2
I1
s.(dp0
Vd9pyqrh
p1
I1
sVcyskpyh
p2
I1
s.(dp0
Vd9pyqrh
p1
I1
sVcyskpyh
p2
I1
s.(dp0
Vda0izg5
p1
I1
sVcyskpyh
p2
I1
s.(dp0
Vdabc7o9
p1
I1
sVcyskpyh
p2
I1
s.(dp0
Vdaz3djo
p1
I1
sVcyskpyh
p2
I1
s.(dp0
Vdbm2iwu
p1
I1
sVcyskpyh
p2
I1
s.(dp0
Vdbm2iwu
p1
I1
sVcyskpyh
p2
I1
s.(dp0
Vdbm2iwu
p1
I1
sVcyskpyh
p2
I1
s.(dp0
Vdctpstr
p1
I1
sVcyskpyh
p2
I1
s.(dp0
Vdctpstr
p1
I1
sVcyskpyh
p2
I1
s.(dp0
Vdctpstr
p1
I1
sVcyskpyh
p2
I1
s.(dp0
Vdctpstr
p1
I1
sVcyskpyh
p2
I1
s.(dp0
Vdd7cieq
p1
I1
sVcyskpyh
p2
I1
s.(dp0
Vddr01q9
p1
I1
sVcyskpyh
p2
I1
s.(dp0
Vddss72r
p1
I1
sVcyskpyh
p2
I1
s.(dp0
Vddzj6yb
p1
I1
sVcyskpyh
p2
I1
s.(dp0
Vddzj6yb
p1
I1
sVcyskpyh
p2
I1
s.(dp0
Vcyskpyh
p1
I1
sVdecabin
p2
I1
s.(dp0
Vdf71cwu
p1
I1
sVcyskpyh
p2
I1
s.(dp0
Vdf71cwu
p1
I1
sVcyskpyh
p2
I1
s.(dp0
Vdgrn4ry
p1
I1
sVcyskpyh
p2
I1
s.(dp0
Vdh7m45s
p1
I1
sVcyskpyh
p2
I1
s.(dp0
Vdh7mk0f
p1
I1
sVcyskpyh
p2
I1
s.(dp0
Vdh7xpmy
p1
I1
sVcyskpyh
p2
I1
s.(dp0
Vdi3iti9
p1
I1
sVcyskpyh
p2
I1
s.(dp0
Vdi3iti9
p1
I1
sVcyskpyh
p2
I1
s.(dp0
Vdi3iti9
p1
I1
sVcyskpyh
p2
I1
s.(dp0
Vdi6k67y
p1
I1
sVcyskpyh
p2
I1
s.(dp0
Vdi6k67y
p1
I1
sVcyskpyh
p2
I1
s.(dp0
Vdi6k67y
p1
I1
sVcyskpyh
p2
I1
s.(dp0
Vdi6k67y
p1
I1
sVcyskpyh
p2
I1
s.(dp0
Vdiwyfvr
p1
I1
sVcyskpyh
p2
I1
s.(dp0
Vdj5le4w
p1
I1
sVcyskpyh
p2
I1
s.(dp0
Vdjlesni
p1
I1
sVcyskpyh
p2
I1
s.(dp0
Vdjlesni
p1
I1
sVcyskpyh
p2
I1
s.(dp0
Vdjlesni
p1
I1
sVcyskpyh
p2
I1
s.(dp0
Vdk7vds7
p1
I1
sVcyskpyh
p2
I1
s.(dp0
Vdk8v2us
p1
I1
sVcyskpyh
p2
I1
s.(dp0
Vdk8v2us
p1
I1
sVcyskpyh
p2
I1
s.(dp0
Vdk96skf
p1
I1
sVcyskpyh
p2
I1
s.(dp0
Vdk96skf
p1
I1
sVcyskpyh
p2
I1
s.(dp0
Vdk96skf
p1
I1
sVcyskpyh
p2
I1
s.(dp0
Vdk96skf
p1
I1
sVcyskpyh
p2
I1
s.(dp0
Vdnd0wri
p1
I1
sVcyskpyh
p2
I1
s.(dp0
Vdnd0wri
p1
I1
sVcyskpyh
p2
I1
s.(dp0
Vcyskpyh
p1
I1
sVdnlfl04
p2
I1
s.(dp0
Vdnvshu6
p1
I1
sVcyskpyh
p2
I1
s.(dp0
Vdnvtdb1
p1
I1
sVcyskpyh
p2
I1
s.(dp0
Vdo2t83h
p1
I1
sVcyskpyh
p2
I1
s.(dp0
Vdo2t83h
p1
I1
sVcyskpyh
p2
I1
s.(dp0
Vdo2tn7w
p1
I1
sVcyskpyh
p2
I1
s.(dp0
Vdo2uhli
p1
I1
sVcyskpyh
p2
I1
s.(dp0
Vdo2uhli
p1
I1
sVcyskpyh
p2
I1
s.(dp0
Vdo2uhli
p1
I1
sVcyskpyh
p2
I1
s.