(dp0
Vcyhvg8p
p1
I1
s.(dp0
Vcyhvg8p
p1
I1
sVcyjjo4c
p2
I1
s.(dp0
Vcyhvg8p
p1
I1
sVcyk84q6
p2
I1
s.(dp0
Vcyhvg8p
p1
I1
sVcykhl43
p2
I1
s.(dp0
Vcyl5vve
p1
I1
sVcyhvg8p
p2
I1
s.(dp0
Vcyhvg8p
p1
I1
sVcyltya3
p2
I1
s.(dp0
Vcyhvg8p
p1
I1
sVcymsfuk
p2
I1
s.(dp0
Vcyneiyi
p1
I1
sVcyhvg8p
p2
I1
s.(dp0
Vcyp1oc2
p1
I1
sVcyhvg8p
p2
I1
s.(dp0
Vcyhvg8p
p1
I1
sVcyphs6p
p2
I1
s.(dp0
Vcyhvg8p
p1
I1
sVcyphs6p
p2
I1
s.(dp0
Vcyhvg8p
p1
I1
sVcyq4xic
p2
I1
s.(dp0
Vcyhvg8p
p1
I1
sVcyq4xic
p2
I1
s.(dp0
Vcyhvg8p
p1
I1
sVcyq4xic
p2
I1
s.(dp0
Vcyhvg8p
p1
I1
sVcyu5q9d
p2
I1
s.(dp0
Vcyhvg8p
p1
I1
sVcyuf7d2
p2
I1
s.(dp0
Vcyhvg8p
p1
I1
sVcyuf7d2
p2
I1
s.(dp0
Vcyhvg8p
p1
I1
sVcyumrrb
p2
I1
s.(dp0
Vcyhvg8p
p1
I1
sVcyumrrb
p2
I1
s.(dp0
Vcyhvg8p
p1
I1
sVcyumrrb
p2
I1
s.(dp0
Vcyhvg8p
p1
I1
sVcyumrrb
p2
I1
s.(dp0
Vcyhvg8p
p1
I1
sVcyuvxpc
p2
I1
s.(dp0
Vcyhvg8p
p1
I1
sVcyuvxpc
p2
I1
s.(dp0
Vcyhvg8p
p1
I1
sVcyuwuiq
p2
I1
s.(dp0
Vcyuwvzn
p1
I1
sVcyhvg8p
p2
I1
s.(dp0
Vcyuwvzn
p1
I1
sVcyhvg8p
p2
I1
s.(dp0
Vcyhvg8p
p1
I1
sVcyvakhb
p2
I1
s.(dp0
Vcyhvg8p
p1
I1
sVcyvakhb
p2
I1
s.(dp0
Vcyvs2q1
p1
I1
sVcyhvg8p
p2
I1
s.(dp0
Vcyhvg8p
p1
I1
sVcz2cpto
p2
I1
s.(dp0
Vcyhvg8p
p1
I1
sVcz2sugx
p2
I1
s.(dp0
Vcyhvg8p
p1
I1
sVcz58w3s
p2
I1
s.(dp0
Vcyhvg8p
p1
I1
sVcz65uci
p2
I1
s.(dp0
Vcz7upfe
p1
I1
sVcyhvg8p
p2
I1
s.(dp0
Vcyhvg8p
p1
I1
sVcz8300b
p2
I1
s.(dp0
Vcyhvg8p
p1
I1
sVcz9bty7
p2
I1
s.(dp0
Vcyhvg8p
p1
I1
sVczado23
p2
I1
s.(dp0
Vcyhvg8p
p1
I1
sVczado23
p2
I1
s.(dp0
Vcyhvg8p
p1
I1
sVczcdf49
p2
I1
s.(dp0
Vcyhvg8p
p1
I1
sVczcevkb
p2
I1
s.(dp0
Vcyhvg8p
p1
I1
sVczel6od
p2
I1
s.(dp0
Vcyhvg8p
p1
I1
sVczel6od
p2
I1
s.(dp0
Vcyhvg8p
p1
I1
sVczel6od
p2
I1
s.(dp0
Vcyhvg8p
p1
I1
sVczel6od
p2
I1
s.(dp0
Vczex2o1
p1
I1
sVcyhvg8p
p2
I1
s.(dp0
Vcyhvg8p
p1
I1
sVczfvg2t
p2
I1
s.(dp0
Vcyhvg8p
p1
I1
sVczfvg2t
p2
I1
s.(dp0
Vczfw2n0
p1
I1
sVcyhvg8p
p2
I1
s.(dp0
Vczfw2n0
p1
I1
sVcyhvg8p
p2
I1
s.(dp0
Vcyhvg8p
p1
I1
sVczif8i9
p2
I1
s.(dp0
Vcyhvg8p
p1
I1
sVczifmkj
p2
I1
s.(dp0
Vcziojwh
p1
I1
sVcyhvg8p
p2
I1
s.(dp0
Vczlbar7
p1
I1
sVcyhvg8p
p2
I1
s.(dp0
Vczlbar7
p1
I1
sVcyhvg8p
p2
I1
s.(dp0
Vcyhvg8p
p1
I1
sVczlo00m
p2
I1
s.(dp0
Vcyhvg8p
p1
I1
sVczmb3t7
p2
I1
s.(dp0
Vcyhvg8p
p1
I1
sVczmb3t7
p2
I1
s.(dp0
Vcyhvg8p
p1
I1
sVczmb3t7
p2
I1
s.(dp0
Vcyhvg8p
p1
I1
sVczmo8tl
p2
I1
s.(dp0
Vcyhvg8p
p1
I1
sVczmoc8j
p2
I1
s.(dp0
Vcyhvg8p
p1
I1
sVczmoc8j
p2
I1
s.(dp0
Vcznuzev
p1
I1
sVcyhvg8p
p2
I1
s.(dp0
Vcyhvg8p
p1
I1
sVcznv4ug
p2
I1
s.(dp0
Vcyhvg8p
p1
I1
sVczoh7k0
p2
I1
s.(dp0
Vczpvrq4
p1
I1
sVcyhvg8p
p2
I1
s.(dp0
Vczpvrq4
p1
I1
sVcyhvg8p
p2
I1
s.(dp0
Vczu0h4v
p1
I1
sVcyhvg8p
p2
I1
s.(dp0
Vcyhvg8p
p1
I1
sVczuqy1x
p2
I1
s.(dp0
Vcyhvg8p
p1
I1
sVczw63vx
p2
I1
s.(dp0
Vcyhvg8p
p1
I1
sVczxa84q
p2
I1
s.(dp0
Vcyhvg8p
p1
I1
sVczxfd9a
p2
I1
s.(dp0
Vcyhvg8p
p1
I1
sVczxfd9a
p2
I1
s.(dp0
Vcyhvg8p
p1
I1
sVczxnwan
p2
I1
s.(dp0
Vcyhvg8p
p1
I1
sVczxnwan
p2
I1
s.(dp0
Vcyhvg8p
p1
I1
sVczxnwan
p2
I1
s.(dp0
Vcyhvg8p
p1
I1
sVczzddyh
p2
I1
s.(dp0
Vcyhvg8p
p1
I1
sVd00jxyp
p2
I1
s.(dp0
Vcyhvg8p
p1
I1
sVd00k203
p2
I1
s.(dp0
Vcyhvg8p
p1
I1
sVd00k203
p2
I1
s.(dp0
Vcyhvg8p
p1
I1
sVd01aldx
p2
I1
s.(dp0
Vd03nfbb
p1
I1
sVcyhvg8p
p2
I1
s.(dp0
Vcyhvg8p
p1
I1
sVd061xhi
p2
I1
s.(dp0
Vcyhvg8p
p1
I1
sVd07t43t
p2
I1
s.(dp0
Vd07uwyg
p1
I1
sVcyhvg8p
p2
I1
s.(dp0
Vcyhvg8p
p1
I1
sVd0h20k3
p2
I1
s.(dp0
Vcyhvg8p
p1
I1
sVd0hcven
p2
I1
s.(dp0
Vcyhvg8p
p1
I1
sVd0hek48
p2
I1
s.(dp0
Vcyhvg8p
p1
I1
sVd0hek48
p2
I1
s.(dp0
Vcyhvg8p
p1
I1
sVd0hek48
p2
I1
s.(dp0
Vcyhvg8p
p1
I1
sVd0hek48
p2
I1
s.(dp0
Vd0ihbll
p1
I1
sVcyhvg8p
p2
I1
s.(dp0
Vcyhvg8p
p1
I1
sVd0ijmgp
p2
I1
s.(dp0
Vcyhvg8p
p1
I1
sVd0k3efc
p2
I1
s.(dp0
Vcyhvg8p
p1
I1
sVd0k4n4d
p2
I1
s.(dp0
Vcyhvg8p
p1
I1
sVd0kivvp
p2
I1
s.(dp0
Vd0m4cxi
p1
I1
sVcyhvg8p
p2
I1
s.(dp0
Vd0m4cxi
p1
I1
sVcyhvg8p
p2
I1
s.(dp0
Vd0m4cxi
p1
I1
sVcyhvg8p
p2
I1
s.(dp0
Vcyhvg8p
p1
I1
sVd0n3f3d
p2
I1
s.(dp0
Vcyhvg8p
p1
I1
sVd0n3f3d
p2
I1
s.(dp0
Vcyhvg8p
p1
I1
sVd0nt6lg
p2
I1
s.(dp0
Vcyhvg8p
p1
I1
sVd0pypxb
p2
I1
s.(dp0
Vcyhvg8p
p1
I1
sVd0q9bcm
p2
I1
s.(dp0
Vcyhvg8p
p1
I1
sVd0r8ixr
p2
I1
s.(dp0
Vcyhvg8p
p1
I1
sVd0r8ixr
p2
I1
s.(dp0
Vcyhvg8p
p1
I1
sVd0ruhol
p2
I1
s.(dp0
Vcyhvg8p
p1
I1
sVd0um1vi
p2
I1
s.(dp0
Vcyhvg8p
p1
I1
sVd0wgw8p
p2
I1
s.(dp0
Vd0(dp0
Vcyhvg8p
p1
I1
sVdp3nv4a
p2
I1
s.