(dp0
Vcyvdjjq
p1
I1
s.(dp0
Vcyvdjjq
p1
I1
sVcywevl9
p2
I1
s.(dp0
Vcyvdjjq
p1
I1
sVcznb9kv
p2
I1
s.(dp0
Vcyvdjjq
p1
I1
sVczwadjl
p2
I1
s.(dp0
Vcyvdjjq
p1
I1
sVd18pjmq
p2
I1
s.(dp0
Vcyvdjjq
p1
I1
sVd19en1b
p2
I1
s.(dp0
Vcyvdjjq
p1
I1
sVd2o6vmo
p2
I1
s.(dp0
Vcyvdjjq
p1
I1
sVd368v5c
p2
I1
s.(dp0
Vcyvdjjq
p1
I1
sVd3bjx2g
p2
I1
s.(dp0
Vcyvdjjq
p1
I1
sVd7hoiyt
p2
I1
s.(dp0
Vcyvdjjq
p1
I1
sVd84l6uc
p2
I1
s.(dp0
Vcyvdjjq
p1
I1
sVdab15vy
p2
I1
s.(dp0
Vcyvdjjq
p1
I1
sVdbhxneu
p2
I1
s.(dp0
Vcyvdjjq
p1
I1
sVddpq5li
p2
I1
s.(dp0
Vcyvdjjq
p1
I1
sVdejeo00
p2
I1
s.(dp0
Vcyvdjjq
p1
I1
sVdhwsgen
p2
I1
s.(dp0
Vcyvdjjq
p1
I1
sVdi3mct3
p2
I1
s.(dp0
Vcyvdjjq
p1
I1
sVdjsibmq
p2
I1
s.(dp0
Vcyvdjjq
p1
I1
sVdjsibmq
p2
I1
s.(dp0
Vcyvdjjq
p1
I1
sVdjsibmq
p2
I1
s.(dp0
Vcyvdjjq
p1
I1
sVdkx80u1
p2
I1
s.