(dp0
Vcykprau
p1
I1
s.(dp0
Vczi093v
p1
I1
sVcykprau
p2
I1
s.(dp0
Vd0i87dr
p1
I1
sVcykprau
p2
I1
s.(dp0
Vcykprau
p1
I1
sVd170tbc
p2
I1
s.(dp0
Vd5c58c6
p1
I1
sVcykprau
p2
I1
s.(dp0
Vd8a1tae
p1
I1
sVcykprau
p2
I1
s.(dp0
Vda9oo8c
p1
I1
sVcykprau
p2
I1
s.(dp0
Vcykprau
p1
I1
sVdazfetc
p2
I1
s.(dp0
Vdazqk9x
p1
I1
sVcykprau
p2
I1
s.(dp0
Vdazqk9x
p1
I1
sVcykprau
p2
I1
s.(dp0
Vdazqk9x
p1
I1
sVcykprau
p2
I1
s.(dp0
Vdazsdpw
p1
I1
sVcykprau
p2
I1
s.(dp0
Vcykprau
p1
I1
sVdb03jrv
p2
I1
s.(dp0
Vdbe0510
p1
I1
sVcykprau
p2
I1
s.(dp0
Vcykprau
p1
I1
sVdbpudre
p2
I1
s.(dp0
Vddpkq3d
p1
I1
sVcykprau
p2
I1
s.(dp0
Vddpkq3d
p1
I1
sVcykprau
p2
I1
s.(dp0
Vddpkq3d
p1
I1
sVcykprau
p2
I1
s.(dp0
Vddpkq3d
p1
I1
sVcykprau
p2
I1
s.(dp0
Vddpkq3d
p1
I1
sVcykprau
p2
I1
s.(dp0
Vdg2452o
p1
I1
sVcykprau
p2
I1
s.(dp0
Vdhhgcwg
p1
I1
sVcykprau
p2
I1
s.(dp0
Vdmi5yqu
p1
I1
sVcykprau
p2
I1
s.(dp0
Vdmi5yqu
p1
I1
sVcykprau
p2
I1
s.(dp0
Vdn6uvwj
p1
I1
sVcykprau
p2
I1
s.