(dp0
Vcymcgl6
p1
I1
s.(dp0
Vczh1bzh
p1
I1
sVcymcgl6
p2
I1
s.(dp0
Vd02qtzv
p1
I1
sVcymcgl6
p2
I1
s.(dp0
Vd0exsb9
p1
I1
sVcymcgl6
p2
I1
s.(dp0
Vd0exsb9
p1
I1
sVcymcgl6
p2
I1
s.(dp0
Vd1i3caw
p1
I1
sVcymcgl6
p2
I1
s.(dp0
Vd1mu4wo
p1
I1
sVcymcgl6
p2
I1
s.(dp0
Vd3f0uht
p1
I1
sVcymcgl6
p2
I1
s.(dp0
Vd6y9dvf
p1
I1
sVcymcgl6
p2
I1
s.(dp0
Vcymcgl6
p1
I1
sVd9aph7g
p2
I1
s.(dp0
Vcymcgl6
p1
I1
sVd9ujn7c
p2
I1
s.(dp0
Vcymcgl6
p1
I1
sVd9ujn7c
p2
I1
s.(dp0
Vcymcgl6
p1
I1
sVd9ujn7c
p2
I1
s.(dp0
Vcymcgl6
p1
I1
sVd9ujn7c
p2
I1
s.(dp0
Vcymcgl6
p1
I1
sVd9ujn7c
p2
I1
s.(dp0
Vda33n3r
p1
I1
sVcymcgl6
p2
I1
s.(dp0
Vdao4fjk
p1
I1
sVcymcgl6
p2
I1
s.(dp0
Vdd1a285
p1
I1
sVcymcgl6
p2
I1
s.(dp0
Vcymcgl6
p1
I1
sVdd3aaol
p2
I1
s.(dp0
Vde659st
p1
I1
sVcymcgl6
p2
I1
s.(dp0
Vde659st
p1
I1
sVcymcgl6
p2
I1
s.(dp0
Vdf3rj1n
p1
I1
sVcymcgl6
p2
I1
s.(dp0
Vditqac7
p1
I1
sVcymcgl6
p2
I1
s.(dp0
Vdivjddp
p1
I1
sVcymcgl6
p2
I1
s.(dp0
Vdj4d3z4
p1
I1
sVcymcgl6
p2
I1
s.