(dp0
Vcz2cefl
p1
I1
s.(dp0
Vcz2cefl
p1
I1
sVd012xxw
p2
I1
s.(dp0
Vcz2cefl
p1
I1
sVd0mwfso
p2
I1
s.(dp0
Vcz2cefl
p1
I1
sVd0yivlx
p2
I1
s.(dp0
Vd143c6l
p1
I1
sVcz2cefl
p2
I1
s.(dp0
Vd14apk3
p1
I1
sVcz2cefl
p2
I1
s.(dp0
Vd27bb4j
p1
I1
sVcz2cefl
p2
I1
s.(dp0
Vd2ayq91
p1
I1
sVcz2cefl
p2
I1
s.(dp0
Vd2o1idy
p1
I1
sVcz2cefl
p2
I1
s.(dp0
Vd2tw7ms
p1
I1
sVcz2cefl
p2
I1
s.(dp0
Vd392pba
p1
I1
sVcz2cefl
p2
I1
s.(dp0
Vd39v9rd
p1
I1
sVcz2cefl
p2
I1
s.(dp0
Vcz2cefl
p1
I1
sVd894j83
p2
I1
s.(dp0
Vcz2cefl
p1
I1
sVd894j83
p2
I1
s.(dp0
Vdai5yzv
p1
I1
sVcz2cefl
p2
I1
s.(dp0
Vdb7oxr8
p1
I1
sVcz2cefl
p2
I1
s.(dp0
Vdb7oxr8
p1
I1
sVcz2cefl
p2
I1
s.(dp0
Vdbstfx6
p1
I1
sVcz2cefl
p2
I1
s.(dp0
Vdc3m4i1
p1
I1
sVcz2cefl
p2
I1
s.(dp0
Vdco8u70
p1
I1
sVcz2cefl
p2
I1
s.(dp0
Vdd3g8oa
p1
I1
sVcz2cefl
p2
I1
s.(dp0
Vdd8670j
p1
I1
sVcz2cefl
p2
I1
s.(dp0
Vddeo2x0
p1
I1
sVcz2cefl
p2
I1
s.(dp0
Vddml0xm
p1
I1
sVcz2cefl
p2
I1
s.(dp0
Vddwxaxs
p1
I1
sVcz2cefl
p2
I1
s.(dp0
Vddwxaxs
p1
I1
sVcz2cefl
p2
I1
s.(dp0
Vddwxdjf
p1
I1
sVcz2cefl
p2
I1
s.(dp0
Vdgbc5fn
p1
I1
sVcz2cefl
p2
I1
s.(dp0
Vcz2cefl
p1
I1
sVdgs2kp7
p2
I1
s.(dp0
Vdgxol5v
p1
I1
sVcz2cefl
p2
I1
s.(dp0
Vdhq5dar
p1
I1
sVcz2cefl
p2
I1
s.(dp0
Vdhq5dar
p1
I1
sVcz2cefl
p2
I1
s.(dp0
Vdk0pv06
p1
I1
sVcz2cefl
p2
I1
s.(dp0
Vdk877v6
p1
I1
sVcz2cefl
p2
I1
s.(dp0
Vcz2cefl
p1
I1
sVdkbjjg6
p2
I1
s.(dp0
Vcz2cefl
p1
I1
sVdkbjjg6
p2
I1
s.(dp0
Vdkmfr0l
p1
I1
sVcz2cefl
p2
I1
s.(dp0
Vdmk9a3v
p1
I1
sVcz2cefl
p2
I1
s.(dp0
Vdo5ztgl
p1
I1
sVcz2cefl
p2
I1
s.(dp0
Vdocrx5f
p1
I1
sVcz2cefl
p2
I1
s.(dp0
Vcz2cefl
p1
I1
sVdp3ofxh
p2
I1
s.