(dp0
Vcyoggmf
p1
I1
s.(dp0
Vcyoggmf
p1
I1
sVcyp8vws
p2
I1
s.(dp0
Vcyr6aix
p1
I1
sVcyoggmf
p2
I1
s.(dp0
Vcyoggmf
p1
I1
sVcyto6ag
p2
I1
s.(dp0
Vcyoggmf
p1
I1
sVcywrhbf
p2
I1
s.(dp0
Vcyzd0gh
p1
I1
sVcyoggmf
p2
I1
s.(dp0
Vcyoggmf
p1
I1
sVcz131s2
p2
I1
s.(dp0
Vcyoggmf
p1
I1
sVcz13i98
p2
I1
s.(dp0
Vcyoggmf
p1
I1
sVcz164e5
p2
I1
s.(dp0
Vcz2un3c
p1
I1
sVcyoggmf
p2
I1
s.(dp0
Vcyoggmf
p1
I1
sVcz4g7ka
p2
I1
s.(dp0
Vcz4kfls
p1
I1
sVcyoggmf
p2
I1
s.(dp0
Vcz6fdpp
p1
I1
sVcyoggmf
p2
I1
s.(dp0
Vcz8jdhb
p1
I1
sVcyoggmf
p2
I1
s.(dp0
Vczbs8oi
p1
I1
sVcyoggmf
p2
I1
s.(dp0
Vcyoggmf
p1
I1
sVczexd3c
p2
I1
s.(dp0
Vcyoggmf
p1
I1
sVczgcxgb
p2
I1
s.(dp0
Vczgq6y9
p1
I1
sVcyoggmf
p2
I1
s.(dp0
Vcziigt6
p1
I1
sVcyoggmf
p2
I1
s.(dp0
Vcyoggmf
p1
I1
sVcznp2u5
p2
I1
s.(dp0
Vczoims2
p1
I1
sVcyoggmf
p2
I1
s.(dp0
Vcyoggmf
p1
I1
sVczugmok
p2
I1
s.(dp0
Vcyoggmf
p1
I1
sVczvk1tf
p2
I1
s.(dp0
Vczyx28f
p1
I1
sVcyoggmf
p2
I1
s.(dp0
Vczz9gyz
p1
I1
sVcyoggmf
p2
I1
s.(dp0
Vcyoggmf
p1
I1
sVczzmkex
p2
I1
s.(dp0
Vcyoggmf
p1
I1
sVczzo12y
p2
I1
s.(dp0
Vcyoggmf
p1
I1
sVd008b7g
p2
I1
s.(dp0
Vcyoggmf
p1
I1
sVd02822j
p2
I1
s.(dp0
Vcyoggmf
p1
I1
sVd06tcf9
p2
I1
s.(dp0
Vcyoggmf
p1
I1
sVd074ac9
p2
I1
s.(dp0
Vd0a1be2
p1
I1
sVcyoggmf
p2
I1
s.(dp0
Vd0avvu2
p1
I1
sVcyoggmf
p2
I1
s.(dp0
Vcyoggmf
p1
I1
sVd0gja32
p2
I1
s.(dp0
Vd0vsuh4
p1
I1
sVcyoggmf
p2
I1
s.(dp0
Vcyoggmf
p1
I1
sVd0w0rxk
p2
I1
s.(dp0
Vcyoggmf
p1
I1
sVd113n63
p2
I1
s.(dp0
Vcyoggmf
p1
I1
sVd1855i0
p2
I1
s.(dp0
Vcyoggmf
p1
I1
sVd18oxo6
p2
I1
s.(dp0
Vcyoggmf
p1
I1
sVd190z48
p2
I1
s.(dp0
Vd192nkf
p1
I1
sVcyoggmf
p2
I1
s.(dp0
Vd1bshwf
p1
I1
sVcyoggmf
p2
I1
s.(dp0
Vcyoggmf
p1
I1
sVd1dbde6
p2
I1
s.(dp0
Vd1et2tt
p1
I1
sVcyoggmf
p2
I1
s.(dp0
Vd1ghmca
p1
I1
sVcyoggmf
p2
I1
s.(dp0
Vd1nz0s9
p1
I1
sVcyoggmf
p2
I1
s.(dp0
Vd1pp4bl
p1
I1
sVcyoggmf
p2
I1
s.(dp0
Vd1qlhjb
p1
I1
sVcyoggmf
p2
I1
s.(dp0
Vcyoggmf
p1
I1
sVd1qu52z
p2
I1
s.(dp0
Vcyoggmf
p1
I1
sVd1r3snh
p2
I1
s.(dp0
Vd23fw43
p1
I1
sVcyoggmf
p2
I1
s.(dp0
Vcyoggmf
p1
I1
sVd23qgfv
p2
I1
s.(dp0
Vd23ynh7
p1
I1
sVcyoggmf
p2
I1
s.(dp0
Vcyoggmf
p1
I1
sVd23yx1q
p2
I1
s.(dp0
Vd244wgf
p1
I1
sVcyoggmf
p2
I1
s.(dp0
Vd25p4h7
p1
I1
sVcyoggmf
p2
I1
s.(dp0
Vcyoggmf
p1
I1
sVd26o7dr
p2
I1
s.(dp0
Vcyoggmf
p1
I1
sVd26o7dr
p2
I1
s.(dp0
Vcyoggmf
p1
I1
sVd29pilf
p2
I1
s.(dp0
Vcyoggmf
p1
I1
sVd2au36s
p2
I1
s.(dp0
Vcyoggmf
p1
I1
sVd2c1sef
p2
I1
s.(dp0
Vcyoggmf
p1
I1
sVd2j1548
p2
I1
s.(dp0
Vd2r694z
p1
I1
sVcyoggmf
p2
I1
s.(dp0
Vcyoggmf
p1
I1
sVd2t7whk
p2
I1
s.(dp0
Vcyoggmf
p1
I1
sVd319ujh
p2
I1
s.(dp0
Vcyoggmf
p1
I1
sVd367rzb
p2
I1
s.(dp0
Vcyoggmf
p1
I1
sVd3bzf10
p2
I1
s.(dp0
Vd3f3hbu
p1
I1
sVcyoggmf
p2
I1
s.(dp0
Vd3f3hbu
p1
I1
sVcyoggmf
p2
I1
s.(dp0
Vd3jhqad
p1
I1
sVcyoggmf
p2
I1
s.(dp0
Vcyoggmf
p1
I1
sVd3k7ywm
p2
I1
s.(dp0
Vd3qxyeq
p1
I1
sVcyoggmf
p2
I1
s.(dp0
Vd3qxyeq
p1
I1
sVcyoggmf
p2
I1
s.(dp0
Vcyoggmf
p1
I1
sVd3r7blj
p2
I1
s.(dp0
Vd3rb6u8
p1
I1
sVcyoggmf
p2
I1
s.(dp0
Vcyoggmf
p1
I1
sVd3v5srl
p2
I1
s.(dp0
Vcyoggmf
p1
I1
sVd3y57t3
p2
I1
s.(dp0
Vd3zxqfp
p1
I1
sVcyoggmf
p2
I1
s.(dp0
Vd4awyl4
p1
I1
sVcyoggmf
p2
I1
s.(dp0
Vcyoggmf
p1
I1
sVd4uzzuu
p2
I1
s.(dp0
Vd4x89kv
p1
I1
sVcyoggmf
p2
I1
s.(dp0
Vd51oad1
p1
I1
sVcyoggmf
p2
I1
s.(dp0
Vcyoggmf
p1
I1
sVd51u01d
p2
I1
s.(dp0
Vd58tgpw
p1
I1
sVcyoggmf
p2
I1
s.(dp0
Vcyoggmf
p1
I1
sVd5gvptr
p2
I1
s.(dp0
Vcyoggmf
p1
I1
sVd5gx72m
p2
I1
s.(dp0
Vcyoggmf
p1
I1
sVd5poc3c
p2
I1
s.(dp0
Vd5x2e0k
p1
I1
sVcyoggmf
p2
I1
s.(dp0
Vd5y3zpb
p1
I1
sVcyoggmf
p2
I1
s.(dp0
Vcyoggmf
p1
I1
sVd5y5nim
p2
I1
s.(dp0
Vcyoggmf
p1
I1
sVd5y5nim
p2
I1
s.(dp0
Vcyoggmf
p1
I1
sVd66u0f1
p2
I1
s.(dp0
Vcyoggmf
p1
I1
sVd6fhrjn
p2
I1
s.(dp0
Vd6hbomw
p1
I1
sVcyoggmf
p2
I1
s.(dp0
Vcyoggmf
p1
I1
sVd6ias2m
p2
I1
s.(dp0
Vd6x27a3
p1
I1
sVcyoggmf
p2
I1
s.(dp0
Vd6yfn7c
p1
I1
sVcyoggmf
p2
I1
s.(dp0
Vcyoggmf
p1
I1
sVd76p569
p2
I1
s.(dp0
Vd7bp0n9
p1
I1
sVcyoggmf
p2
I1
s.(dp0
Vcyoggmf
p1
I1
sVd7j6tsr
p2
I1
s.(dp0
Vd7tu920
p1
I1
sVcyoggmf
p2
I1
s.(dp0
Vd7vbn1v
p1
I1
sVcyoggmf
p2
I1
s.(dp0
Vcyoggmf
p1
I1
sVd7vvxef
p2
I1
s.(dp0
Vcyoggmf
p1
I1
sVd82wzvj
p2
I1
s.(dp0
Vd88bnps
p1
I1
sVcyoggmf
p2
I1
s.(dp0
Vcyoggmf
p1
I1
sVd893h49
p2
I1
s.(dp0
Vcyoggmf
p1
I1
sVd8cg8sy
p2
I1
s.(dp0
Vcyoggmf
p1
I1
sVd8jb97h
p2
I1
s.(dp0
Vcy(dp0
Vcyoggmf
p1
I1
sVdof7kso
p2
I1
s.