(dp0
Vczwz6rz
p1
I1
s.(dp0
Vd038nz6
p1
I1
sVczwz6rz
p2
I1
s.(dp0
Vczwz6rz
p1
I1
sVd09t7xf
p2
I1
s.(dp0
Vczwz6rz
p1
I1
sVd0kxdn7
p2
I1
s.(dp0
Vd1vvkwo
p1
I1
sVczwz6rz
p2
I1
s.(dp0
Vd2z8e2j
p1
I1
sVczwz6rz
p2
I1
s.(dp0
Vczwz6rz
p1
I1
sVd3dc7gd
p2
I1
s.(dp0
Vd3oj68w
p1
I1
sVczwz6rz
p2
I1
s.(dp0
Vd5bu6fs
p1
I1
sVczwz6rz
p2
I1
s.(dp0
Vd5bu6fs
p1
I1
sVczwz6rz
p2
I1
s.(dp0
Vd5bu6fs
p1
I1
sVczwz6rz
p2
I1
s.(dp0
Vd5bu6fs
p1
I1
sVczwz6rz
p2
I1
s.(dp0
Vd5bu6fs
p1
I1
sVczwz6rz
p2
I1
s.(dp0
Vczwz6rz
p1
I1
sVd62qxvh
p2
I1
s.(dp0
Vczwz6rz
p1
I1
sVd655qe6
p2
I1
s.(dp0
Vd6p1e94
p1
I1
sVczwz6rz
p2
I1
s.(dp0
Vd71swmf
p1
I1
sVczwz6rz
p2
I1
s.(dp0
Vd71swmf
p1
I1
sVczwz6rz
p2
I1
s.(dp0
Vd71swmf
p1
I1
sVczwz6rz
p2
I1
s.(dp0
Vd71swmf
p1
I1
sVczwz6rz
p2
I1
s.(dp0
Vd8hquy1
p1
I1
sVczwz6rz
p2
I1
s.(dp0
Vczwz6rz
p1
I1
sVda2p519
p2
I1
s.(dp0
Vczwz6rz
p1
I1
sVda7gbz4
p2
I1
s.(dp0
Vczwz6rz
p1
I1
sVdav7qop
p2
I1
s.(dp0
Vdaw6hpd
p1
I1
sVczwz6rz
p2
I1
s.(dp0
Vdaw6hpd
p1
I1
sVczwz6rz
p2
I1
s.(dp0
Vczwz6rz
p1
I1
sVdb4zc8j
p2
I1
s.(dp0
Vdbewhlm
p1
I1
sVczwz6rz
p2
I1
s.(dp0
Vdbewhlm
p1
I1
sVczwz6rz
p2
I1
s.(dp0
Vde3oy60
p1
I1
sVczwz6rz
p2
I1
s.(dp0
Vde4eo2y
p1
I1
sVczwz6rz
p2
I1
s.(dp0
Vdgj2lai
p1
I1
sVczwz6rz
p2
I1
s.(dp0
Vdgm3igv
p1
I1
sVczwz6rz
p2
I1
s.(dp0
Vczwz6rz
p1
I1
sVdibvlez
p2
I1
s.(dp0
Vdjny95k
p1
I1
sVczwz6rz
p2
I1
s.(dp0
Vczwz6rz
p1
I1
sVdjo1ckr
p2
I1
s.(dp0
Vdjo55kb
p1
I1
sVczwz6rz
p2
I1
s.(dp0
Vczwz6rz
p1
I1
sVdk5eplr
p2
I1
s.(dp0
Vdka3x7m
p1
I1
sVczwz6rz
p2
I1
s.(dp0
Vdkcr29s
p1
I1
sVczwz6rz
p2
I1
s.(dp0
Vdkcr29s
p1
I1
sVczwz6rz
p2
I1
s.(dp0
Vdkcr29s
p1
I1
sVczwz6rz
p2
I1
s.(dp0
Vdnf0zlb
p1
I1
sVczwz6rz
p2
I1
s.(dp0
Vczwz6rz
p1
I1
sVdnf15iq
p2
I1
s.