(dp0
Vczr1454
p1
I1
s.(dp0
Vczr1454
p1
I1
sVd0dqer0
p2
I1
s.(dp0
Vczr1454
p1
I1
sVd1c8h7z
p2
I1
s.(dp0
Vczr1454
p1
I1
sVd258hgu
p2
I1
s.(dp0
Vczr1454
p1
I1
sVd2nqngy
p2
I1
s.(dp0
Vczr1454
p1
I1
sVd31h87x
p2
I1
s.(dp0
Vczr1454
p1
I1
sVd37els2
p2
I1
s.(dp0
Vczr1454
p1
I1
sVd3m9jtj
p2
I1
s.(dp0
Vczr1454
p1
I1
sVd3tpntj
p2
I1
s.(dp0
Vczr1454
p1
I1
sVd4qv0jw
p2
I1
s.(dp0
Vczr1454
p1
I1
sVd56x1u9
p2
I1
s.(dp0
Vczr1454
p1
I1
sVd7fc7yq
p2
I1
s.(dp0
Vczr1454
p1
I1
sVd9ex9ku
p2
I1
s.(dp0
Vczr1454
p1
I1
sVd9zmv0k
p2
I1
s.(dp0
Vczr1454
p1
I1
sVdaqra4v
p2
I1
s.(dp0
Vczr1454
p1
I1
sVdaz9dug
p2
I1
s.(dp0
Vczr1454
p1
I1
sVdczl9ui
p2
I1
s.(dp0
Vczr1454
p1
I1
sVddxv96u
p2
I1
s.(dp0
Vczr1454
p1
I1
sVdfmczgl
p2
I1
s.(dp0
Vczr1454
p1
I1
sVdfwup00
p2
I1
s.(dp0
Vczr1454
p1
I1
sVdglhpcb
p2
I1
s.(dp0
Vczr1454
p1
I1
sVdixzvls
p2
I1
s.(dp0
Vczr1454
p1
I1
sVdjwqzuh
p2
I1
s.(dp0
Vczr1454
p1
I1
sVdkdgt1y
p2
I1
s.(dp0
Vczr1454
p1
I1
sVdn2e0re
p2
I1
s.(dp0
Vczr1454
p1
I1
sVdnurwv7
p2
I1
s.