(dp0
Vcyia4x0
p1
I1
s.(dp0
Vcyigf45
p1
I1
sVcyia4x0
p2
I1
s.(dp0
Vcyjxceo
p1
I1
sVcyia4x0
p2
I1
s.(dp0
Vcykaequ
p1
I1
sVcyia4x0
p2
I1
s.(dp0
Vcykebmy
p1
I1
sVcyia4x0
p2
I1
s.(dp0
Vcykebmy
p1
I1
sVcyia4x0
p2
I1
s.(dp0
Vcykj6nb
p1
I1
sVcyia4x0
p2
I1
s.(dp0
Vcylp6y0
p1
I1
sVcyia4x0
p2
I1
s.(dp0
Vcym9nyh
p1
I1
sVcyia4x0
p2
I1
s.(dp0
Vcyia4x0
p1
I1
sVcymxduz
p2
I1
s.(dp0
Vcyia4x0
p1
I1
sVcynzj6i
p2
I1
s.(dp0
Vcyia4x0
p1
I1
sVcyp3f1d
p2
I1
s.(dp0
Vcypmged
p1
I1
sVcyia4x0
p2
I1
s.(dp0
Vcyia4x0
p1
I1
sVcypt9oy
p2
I1
s.(dp0
Vcyql3kl
p1
I1
sVcyia4x0
p2
I1
s.(dp0
Vcyrqeyp
p1
I1
sVcyia4x0
p2
I1
s.(dp0
Vcyia4x0
p1
I1
sVcys2wjp
p2
I1
s.(dp0
Vcytwdhq
p1
I1
sVcyia4x0
p2
I1
s.(dp0
Vcyuschc
p1
I1
sVcyia4x0
p2
I1
s.(dp0
Vcywutlu
p1
I1
sVcyia4x0
p2
I1
s.(dp0
Vcyxj3ek
p1
I1
sVcyia4x0
p2
I1
s.(dp0
Vcyxj3ek
p1
I1
sVcyia4x0
p2
I1
s.(dp0
Vcyzxj3t
p1
I1
sVcyia4x0
p2
I1
s.(dp0
Vcz16ul6
p1
I1
sVcyia4x0
p2
I1
s.(dp0
Vcz23odh
p1
I1
sVcyia4x0
p2
I1
s.(dp0
Vcz24iru
p1
I1
sVcyia4x0
p2
I1
s.(dp0
Vcz2hva6
p1
I1
sVcyia4x0
p2
I1
s.(dp0
Vcz3sa5i
p1
I1
sVcyia4x0
p2
I1
s.(dp0
Vcz3vf23
p1
I1
sVcyia4x0
p2
I1
s.(dp0
Vcz419n6
p1
I1
sVcyia4x0
p2
I1
s.(dp0
Vcz4m8u0
p1
I1
sVcyia4x0
p2
I1
s.(dp0
Vcz4x95x
p1
I1
sVcyia4x0
p2
I1
s.(dp0
Vcyia4x0
p1
I1
sVcz75x49
p2
I1
s.(dp0
Vcyia4x0
p1
I1
sVcz75x49
p2
I1
s.(dp0
Vcyia4x0
p1
I1
sVcz89qv0
p2
I1
s.(dp0
Vcyia4x0
p1
I1
sVcz8vyz1
p2
I1
s.(dp0
Vcz9whnp
p1
I1
sVcyia4x0
p2
I1
s.(dp0
Vczagwyj
p1
I1
sVcyia4x0
p2
I1
s.(dp0
Vczcb33v
p1
I1
sVcyia4x0
p2
I1
s.(dp0
Vcyia4x0
p1
I1
sVczeskm4
p2
I1
s.(dp0
Vcyia4x0
p1
I1
sVczf81g7
p2
I1
s.(dp0
Vczgz5dt
p1
I1
sVcyia4x0
p2
I1
s.(dp0
Vczhhhd2
p1
I1
sVcyia4x0
p2
I1
s.(dp0
Vcyia4x0
p1
I1
sVczhog8k
p2
I1
s.(dp0
Vcziwlje
p1
I1
sVcyia4x0
p2
I1
s.(dp0
Vcyia4x0
p1
I1
sVczxenb2
p2
I1
s.(dp0
Vczxr02z
p1
I1
sVcyia4x0
p2
I1
s.(dp0
Vczxsbzk
p1
I1
sVcyia4x0
p2
I1
s.(dp0
Vczxsbzk
p1
I1
sVcyia4x0
p2
I1
s.(dp0
Vczxsbzk
p1
I1
sVcyia4x0
p2
I1
s.(dp0
Vczxsbzk
p1
I1
sVcyia4x0
p2
I1
s.(dp0
Vczxsbzk
p1
I1
sVcyia4x0
p2
I1
s.(dp0
Vczxsbzk
p1
I1
sVcyia4x0
p2
I1
s.(dp0
Vczxsbzk
p1
I1
sVcyia4x0
p2
I1
s.(dp0
Vczzk7tq
p1
I1
sVcyia4x0
p2
I1
s.(dp0
Vd02hnu9
p1
I1
sVcyia4x0
p2
I1
s.(dp0
Vcyia4x0
p1
I1
sVd02tb12
p2
I1
s.(dp0
Vd044dh7
p1
I1
sVcyia4x0
p2
I1
s.(dp0
Vd05btiz
p1
I1
sVcyia4x0
p2
I1
s.(dp0
Vd05h1qw
p1
I1
sVcyia4x0
p2
I1
s.(dp0
Vd06yk4t
p1
I1
sVcyia4x0
p2
I1
s.(dp0
Vcyia4x0
p1
I1
sVd07bs9l
p2
I1
s.(dp0
Vcyia4x0
p1
I1
sVd09gnip
p2
I1
s.(dp0
Vcyia4x0
p1
I1
sVd0akbjy
p2
I1
s.(dp0
Vd0c1nqi
p1
I1
sVcyia4x0
p2
I1
s.(dp0
Vcyia4x0
p1
I1
sVd0c1z0n
p2
I1
s.(dp0
Vd0f1roz
p1
I1
sVcyia4x0
p2
I1
s.(dp0
Vd0f4a9q
p1
I1
sVcyia4x0
p2
I1
s.(dp0
Vcyia4x0
p1
I1
sVd0fhb44
p2
I1
s.(dp0
Vd0gy7yx
p1
I1
sVcyia4x0
p2
I1
s.(dp0
Vcyia4x0
p1
I1
sVd0i6y6z
p2
I1
s.(dp0
Vd0jh06h
p1
I1
sVcyia4x0
p2
I1
s.(dp0
Vd0jh4t8
p1
I1
sVcyia4x0
p2
I1
s.(dp0
Vcyia4x0
p1
I1
sVd0jy2zq
p2
I1
s.(dp0
Vd0lq0ze
p1
I1
sVcyia4x0
p2
I1
s.(dp0
Vcyia4x0
p1
I1
sVd0o7fu2
p2
I1
s.(dp0
Vcyia4x0
p1
I1
sVd0o7fu2
p2
I1
s.(dp0
Vd0ofy92
p1
I1
sVcyia4x0
p2
I1
s.(dp0
Vd0pref5
p1
I1
sVcyia4x0
p2
I1
s.(dp0
Vd0pz7wu
p1
I1
sVcyia4x0
p2
I1
s.(dp0
Vcyia4x0
p1
I1
sVd0rqxin
p2
I1
s.(dp0
Vcyia4x0
p1
I1
sVd0vxn84
p2
I1
s.(dp0
Vd0yqlx8
p1
I1
sVcyia4x0
p2
I1
s.(dp0
Vcyia4x0
p1
I1
sVd116c8o
p2
I1
s.(dp0
Vcyia4x0
p1
I1
sVd16renu
p2
I1
s.(dp0
Vd16rs5z
p1
I1
sVcyia4x0
p2
I1
s.(dp0
Vd18gyq7
p1
I1
sVcyia4x0
p2
I1
s.(dp0
Vcyia4x0
p1
I1
sVd19k0bp
p2
I1
s.(dp0
Vd19y68t
p1
I1
sVcyia4x0
p2
I1
s.(dp0
Vd1aducn
p1
I1
sVcyia4x0
p2
I1
s.(dp0
Vcyia4x0
p1
I1
sVd1ah10n
p2
I1
s.(dp0
Vd1bey5w
p1
I1
sVcyia4x0
p2
I1
s.(dp0
Vcyia4x0
p1
I1
sVd1bndbo
p2
I1
s.(dp0
Vd1czgq9
p1
I1
sVcyia4x0
p2
I1
s.(dp0
Vcyia4x0
p1
I1
sVd1d7utj
p2
I1
s.(dp0
Vd1d8e0m
p1
I1
sVcyia4x0
p2
I1
s.(dp0
Vd1d98m8
p1
I1
sVcyia4x0
p2
I1
s.(dp0
Vd1gezjj
p1
I1
sVcyia4x0
p2
I1
s.(dp0
Vd1gxqu9
p1
I1
sVcyia4x0
p2
I1
s.(dp0
Vcyia4x0
p1
I1
sVd1ilf4q
p2
I1
s.(dp0
Vd1iuzqa
p1
I1
sVcyia4x0
p2
I1
s.(dp0
Vcyia4x0
p1
I1
sVd1ml0ts
p2
I1
s.(dp0
Vd1p9i5u
p1
I1
sVcyia4x0
p2
I1
s.(dp0
Vd1rbq69
p1
I1
sVcyia4x0
p2
I1
s.(dp0
Vd1se1kj
p1
I1
sVcyia4x0
p2
I1
s.(dp0
Vcyia4x0
p1
I1
sVd1uz22h
p2
I1
s.(dp0
Vd1v29cs
p1
I1
sVcyia4x0
p2
I1
s.(dp0
Vd1w21kv
p1
I1
sVcyia4x0
p2
I1
s.(dp0
Vd2(dp0
Vcyia4x0
p1
I1
sVdp3tk7o
p2
I1
s.