(dp0
Vcyx0695
p1
I1
s.(dp0
Vcyx0695
p1
I1
sVczufnuw
p2
I1
s.(dp0
Vcyx0695
p1
I1
sVd3p9evb
p2
I1
s.(dp0
Vd5q4ymm
p1
I1
sVcyx0695
p2
I1
s.(dp0
Vcyx0695
p1
I1
sVd5q6i3l
p2
I1
s.(dp0
Vcyx0695
p1
I1
sVd60rmod
p2
I1
s.(dp0
Vcyx0695
p1
I1
sVd8672if
p2
I1
s.(dp0
Vcyx0695
p1
I1
sVd8672if
p2
I1
s.(dp0
Vcyx0695
p1
I1
sVd8672if
p2
I1
s.(dp0
Vd8doo3r
p1
I1
sVcyx0695
p2
I1
s.(dp0
Vdc84rit
p1
I1
sVcyx0695
p2
I1
s.(dp0
Vcyx0695
p1
I1
sVdgqn4zs
p2
I1
s.(dp0
Vdjqv5wc
p1
I1
sVcyx0695
p2
I1
s.