(dp0
Vcyse3ov
p1
I1
s.(dp0
Vcytgbpj
p1
I1
sVcyse3ov
p2
I1
s.(dp0
Vcz0rawh
p1
I1
sVcyse3ov
p2
I1
s.(dp0
Vczggrm0
p1
I1
sVcyse3ov
p2
I1
s.(dp0
Vczggrm0
p1
I1
sVcyse3ov
p2
I1
s.(dp0
Vczggy8s
p1
I1
sVcyse3ov
p2
I1
s.(dp0
Vczggyky
p1
I1
sVcyse3ov
p2
I1
s.(dp0
Vczgh9r5
p1
I1
sVcyse3ov
p2
I1
s.(dp0
Vczqgxuh
p1
I1
sVcyse3ov
p2
I1
s.(dp0
Vczt3a0b
p1
I1
sVcyse3ov
p2
I1
s.(dp0
Vczuiafn
p1
I1
sVcyse3ov
p2
I1
s.(dp0
Vd06pse6
p1
I1
sVcyse3ov
p2
I1
s.(dp0
Vd0qp70t
p1
I1
sVcyse3ov
p2
I1
s.(dp0
Vd0qp70t
p1
I1
sVcyse3ov
p2
I1
s.(dp0
Vd0qp70t
p1
I1
sVcyse3ov
p2
I1
s.(dp0
Vd0qp70t
p1
I1
sVcyse3ov
p2
I1
s.(dp0
Vd1snzfc
p1
I1
sVcyse3ov
p2
I1
s.(dp0
Vd1upksu
p1
I1
sVcyse3ov
p2
I1
s.(dp0
Vd2eig32
p1
I1
sVcyse3ov
p2
I1
s.(dp0
Vd2h610x
p1
I1
sVcyse3ov
p2
I1
s.(dp0
Vd2l5fhz
p1
I1
sVcyse3ov
p2
I1
s.(dp0
Vd35b6s7
p1
I1
sVcyse3ov
p2
I1
s.(dp0
Vd48c56l
p1
I1
sVcyse3ov
p2
I1
s.(dp0
Vd495594
p1
I1
sVcyse3ov
p2
I1
s.(dp0
Vd56eq78
p1
I1
sVcyse3ov
p2
I1
s.(dp0
Vd57itbt
p1
I1
sVcyse3ov
p2
I1
s.(dp0
Vd57rer5
p1
I1
sVcyse3ov
p2
I1
s.(dp0
Vd67ezg1
p1
I1
sVcyse3ov
p2
I1
s.(dp0
Vd6dac44
p1
I1
sVcyse3ov
p2
I1
s.(dp0
Vd6jij42
p1
I1
sVcyse3ov
p2
I1
s.(dp0
Vd7sitb2
p1
I1
sVcyse3ov
p2
I1
s.(dp0
Vd7sk6o9
p1
I1
sVcyse3ov
p2
I1
s.(dp0
Vd81v5sa
p1
I1
sVcyse3ov
p2
I1
s.(dp0
Vd9aph7g
p1
I1
sVcyse3ov
p2
I1
s.(dp0
Vd9d720r
p1
I1
sVcyse3ov
p2
I1
s.(dp0
Vd9raczd
p1
I1
sVcyse3ov
p2
I1
s.(dp0
Vd9wrljz
p1
I1
sVcyse3ov
p2
I1
s.(dp0
Vdajchdw
p1
I1
sVcyse3ov
p2
I1
s.(dp0
Vdb36ze2
p1
I1
sVcyse3ov
p2
I1
s.(dp0
Vdbv4n6k
p1
I1
sVcyse3ov
p2
I1
s.(dp0
Vdct80ss
p1
I1
sVcyse3ov
p2
I1
s.(dp0
Vdcvn8d8
p1
I1
sVcyse3ov
p2
I1
s.(dp0
Vdd67fhz
p1
I1
sVcyse3ov
p2
I1
s.(dp0
Vdd67fhz
p1
I1
sVcyse3ov
p2
I1
s.(dp0
Vde7019t
p1
I1
sVcyse3ov
p2
I1
s.(dp0
Vdeh26pr
p1
I1
sVcyse3ov
p2
I1
s.(dp0
Vdeh26pr
p1
I1
sVcyse3ov
p2
I1
s.(dp0
Vdekwv0u
p1
I1
sVcyse3ov
p2
I1
s.(dp0
Vdeun9ck
p1
I1
sVcyse3ov
p2
I1
s.(dp0
Vdf0yrxo
p1
I1
sVcyse3ov
p2
I1
s.(dp0
Vdf4mcgw
p1
I1
sVcyse3ov
p2
I1
s.(dp0
Vdfblbxw
p1
I1
sVcyse3ov
p2
I1
s.(dp0
Vdgpmdm5
p1
I1
sVcyse3ov
p2
I1
s.(dp0
Vdhssczh
p1
I1
sVcyse3ov
p2
I1
s.(dp0
Vdhyqtd8
p1
I1
sVcyse3ov
p2
I1
s.(dp0
Vdi43e0h
p1
I1
sVcyse3ov
p2
I1
s.(dp0
Vdi4vso0
p1
I1
sVcyse3ov
p2
I1
s.(dp0
Vdi4vtka
p1
I1
sVcyse3ov
p2
I1
s.(dp0
Vdi4y6rc
p1
I1
sVcyse3ov
p2
I1
s.(dp0
Vdi5wyjs
p1
I1
sVcyse3ov
p2
I1
s.(dp0
Vdimhlr4
p1
I1
sVcyse3ov
p2
I1
s.(dp0
Vdiugr0o
p1
I1
sVcyse3ov
p2
I1
s.(dp0
Vdiv1zkk
p1
I1
sVcyse3ov
p2
I1
s.(dp0
Vdjqj2s3
p1
I1
sVcyse3ov
p2
I1
s.(dp0
Vdk3g53s
p1
I1
sVcyse3ov
p2
I1
s.(dp0
Vdks2pqk
p1
I1
sVcyse3ov
p2
I1
s.