(dp0
Vcys7g8k
p1
I1
s.(dp0
Vcys7g8k
p1
I1
sVczvmovs
p2
I1
s.(dp0
Vcys7g8k
p1
I1
sVd23ilei
p2
I1
s.(dp0
Vcys7g8k
p1
I1
sVd23ilei
p2
I1
s.(dp0
Vcys7g8k
p1
I1
sVd5i17s7
p2
I1
s.(dp0
Vcys7g8k
p1
I1
sVd5i17s7
p2
I1
s.(dp0
Vcys7g8k
p1
I1
sVd7rj7yo
p2
I1
s.(dp0
Vcys7g8k
p1
I1
sVdh6zb3z
p2
I1
s.(dp0
Vcys7g8k
p1
I1
sVdmovo0p
p2
I1
s.(dp0
Vcys7g8k
p1
I1
sVdmovo0p
p2
I1
s.(dp0
Vcys7g8k
p1
I1
sVdmovo0p
p2
I1
s.(dp0
Vcys7g8k
p1
I1
sVdn45tnb
p2
I1
s.(dp0
Vcys7g8k
p1
I1
sVdnfve6i
p2
I1
s.(dp0
Vcys7g8k
p1
I1
sVdo5k4gy
p2
I1
s.