(dp0
Vcykczpt
p1
I1
s.(dp0
Vcylv2yj
p1
I1
sVcykczpt
p2
I1
s.(dp0
Vcylv2yj
p1
I1
sVcykczpt
p2
I1
s.(dp0
Vcyyvhos
p1
I1
sVcykczpt
p2
I1
s.(dp0
Vd01javt
p1
I1
sVcykczpt
p2
I1
s.(dp0
Vd1bp62x
p1
I1
sVcykczpt
p2
I1
s.(dp0
Vd24fawe
p1
I1
sVcykczpt
p2
I1
s.(dp0
Vd24fawe
p1
I1
sVcykczpt
p2
I1
s.(dp0
Vd3bv9df
p1
I1
sVcykczpt
p2
I1
s.(dp0
Vd430mpm
p1
I1
sVcykczpt
p2
I1
s.(dp0
Vd52r3a5
p1
I1
sVcykczpt
p2
I1
s.(dp0
Vd5tgudf
p1
I1
sVcykczpt
p2
I1
s.(dp0
Vd6aczhr
p1
I1
sVcykczpt
p2
I1
s.(dp0
Vd9j31wl
p1
I1
sVcykczpt
p2
I1
s.(dp0
Vd9j31wl
p1
I1
sVcykczpt
p2
I1
s.(dp0
Vdbb9313
p1
I1
sVcykczpt
p2
I1
s.(dp0
Vdcumwyo
p1
I1
sVcykczpt
p2
I1
s.(dp0
Vdcxivp5
p1
I1
sVcykczpt
p2
I1
s.(dp0
Vdddq56d
p1
I1
sVcykczpt
p2
I1
s.(dp0
Vddp50rb
p1
I1
sVcykczpt
p2
I1
s.(dp0
Vdeqqchj
p1
I1
sVcykczpt
p2
I1
s.(dp0
Vdev27w9
p1
I1
sVcykczpt
p2
I1
s.(dp0
Vdf9z54c
p1
I1
sVcykczpt
p2
I1
s.(dp0
Vdg19y8q
p1
I1
sVcykczpt
p2
I1
s.(dp0
Vdg19y8q
p1
I1
sVcykczpt
p2
I1
s.(dp0
Vdg2ojjg
p1
I1
sVcykczpt
p2
I1
s.(dp0
Vdo2q6h4
p1
I1
sVcykczpt
p2
I1
s.