(dp0
Vd1xgeyt
p1
I1
s.(dp0
Vd1xgeyt
p1
I1
sVd204i4g
p2
I1
s.(dp0
Vd1xgeyt
p1
I1
sVd2blfm1
p2
I1
s.(dp0
Vd2vwohp
p1
I1
sVd1xgeyt
p2
I1
s.(dp0
Vd5b2uvc
p1
I1
sVd1xgeyt
p2
I1
s.(dp0
Vd1xgeyt
p1
I1
sVd85lt5h
p2
I1
s.(dp0
Vd8anqeu
p1
I1
sVd1xgeyt
p2
I1
s.(dp0
Vd1xgeyt
p1
I1
sVd9dcy3a
p2
I1
s.(dp0
Vd9v3n5r
p1
I1
sVd1xgeyt
p2
I1
s.(dp0
Vda3mdop
p1
I1
sVd1xgeyt
p2
I1
s.(dp0
Vd1xgeyt
p1
I1
sVdaqky0i
p2
I1
s.(dp0
Vdbxtzg6
p1
I1
sVd1xgeyt
p2
I1
s.(dp0
Vd1xgeyt
p1
I1
sVdc3goom
p2
I1
s.(dp0
Vd1xgeyt
p1
I1
sVdc8j4se
p2
I1
s.(dp0
Vd1xgeyt
p1
I1
sVdd1i39r
p2
I1
s.(dp0
Vd1xgeyt
p1
I1
sVdg4k0o2
p2
I1
s.(dp0
Vdgl4vwp
p1
I1
sVd1xgeyt
p2
I1
s.(dp0
Vd1xgeyt
p1
I1
sVdgzck5e
p2
I1
s.(dp0
Vd1xgeyt
p1
I1
sVdgzszve
p2
I1
s.(dp0
Vd1xgeyt
p1
I1
sVdh1qbue
p2
I1
s.(dp0
Vd1xgeyt
p1
I1
sVdh2ocmh
p2
I1
s.(dp0
Vd1xgeyt
p1
I1
sVdh2ocmh
p2
I1
s.(dp0
Vdi7vd9l
p1
I1
sVd1xgeyt
p2
I1
s.