(dp0
Vcyoh2ya
p1
I1
s.(dp0
Vcyoh2ya
p1
I1
sVcyryant
p2
I1
s.(dp0
Vcyoh2ya
p1
I1
sVcywdiwj
p2
I1
s.(dp0
Vcza9btb
p1
I1
sVcyoh2ya
p2
I1
s.(dp0
Vczc8i7q
p1
I1
sVcyoh2ya
p2
I1
s.(dp0
Vczc8i7q
p1
I1
sVcyoh2ya
p2
I1
s.(dp0
Vcyoh2ya
p1
I1
sVczeyo93
p2
I1
s.(dp0
Vczt7bi9
p1
I1
sVcyoh2ya
p2
I1
s.(dp0
Vcyoh2ya
p1
I1
sVczzqhrn
p2
I1
s.(dp0
Vd00m9oh
p1
I1
sVcyoh2ya
p2
I1
s.(dp0
Vd01pkl7
p1
I1
sVcyoh2ya
p2
I1
s.(dp0
Vd03wq2p
p1
I1
sVcyoh2ya
p2
I1
s.(dp0
Vcyoh2ya
p1
I1
sVd045x7t
p2
I1
s.(dp0
Vcyoh2ya
p1
I1
sVd045x7t
p2
I1
s.(dp0
Vd05ptv5
p1
I1
sVcyoh2ya
p2
I1
s.(dp0
Vd05ptv5
p1
I1
sVcyoh2ya
p2
I1
s.(dp0
Vd072uvs
p1
I1
sVcyoh2ya
p2
I1
s.(dp0
Vd072uvs
p1
I1
sVcyoh2ya
p2
I1
s.(dp0
Vd0a6ty9
p1
I1
sVcyoh2ya
p2
I1
s.(dp0
Vcyoh2ya
p1
I1
sVd0ay6gc
p2
I1
s.(dp0
Vd0dvvxo
p1
I1
sVcyoh2ya
p2
I1
s.(dp0
Vd0e089k
p1
I1
sVcyoh2ya
p2
I1
s.(dp0
Vd0lisuh
p1
I1
sVcyoh2ya
p2
I1
s.(dp0
Vd15jcto
p1
I1
sVcyoh2ya
p2
I1
s.(dp0
Vd16q1kt
p1
I1
sVcyoh2ya
p2
I1
s.(dp0
Vd18ikk9
p1
I1
sVcyoh2ya
p2
I1
s.(dp0
Vcyoh2ya
p1
I1
sVd1bntqt
p2
I1
s.(dp0
Vd1p4lem
p1
I1
sVcyoh2ya
p2
I1
s.(dp0
Vcyoh2ya
p1
I1
sVd1x4l5p
p2
I1
s.(dp0
Vcyoh2ya
p1
I1
sVd1x4l5p
p2
I1
s.(dp0
Vd1zk3d0
p1
I1
sVcyoh2ya
p2
I1
s.(dp0
Vd1zl557
p1
I1
sVcyoh2ya
p2
I1
s.(dp0
Vcyoh2ya
p1
I1
sVd2czn87
p2
I1
s.(dp0
Vd2el5na
p1
I1
sVcyoh2ya
p2
I1
s.(dp0
Vcyoh2ya
p1
I1
sVd2fczkz
p2
I1
s.(dp0
Vd2o2b0r
p1
I1
sVcyoh2ya
p2
I1
s.(dp0
Vd2o2b0r
p1
I1
sVcyoh2ya
p2
I1
s.(dp0
Vd2o2b0r
p1
I1
sVcyoh2ya
p2
I1
s.(dp0
Vd2o2b0r
p1
I1
sVcyoh2ya
p2
I1
s.(dp0
Vd2o2b0r
p1
I1
sVcyoh2ya
p2
I1
s.(dp0
Vd322ukz
p1
I1
sVcyoh2ya
p2
I1
s.(dp0
Vcyoh2ya
p1
I1
sVd341ada
p2
I1
s.(dp0
Vcyoh2ya
p1
I1
sVd3dzz31
p2
I1
s.(dp0
Vd3ousno
p1
I1
sVcyoh2ya
p2
I1
s.(dp0
Vd3wp97t
p1
I1
sVcyoh2ya
p2
I1
s.(dp0
Vd3ztpx6
p1
I1
sVcyoh2ya
p2
I1
s.(dp0
Vd45ysqz
p1
I1
sVcyoh2ya
p2
I1
s.(dp0
Vd45zs1l
p1
I1
sVcyoh2ya
p2
I1
s.(dp0
Vd4jqt2w
p1
I1
sVcyoh2ya
p2
I1
s.(dp0
Vd4nt47k
p1
I1
sVcyoh2ya
p2
I1
s.(dp0
Vd4pqswf
p1
I1
sVcyoh2ya
p2
I1
s.(dp0
Vd5xvsoa
p1
I1
sVcyoh2ya
p2
I1
s.(dp0
Vd5xvsoa
p1
I1
sVcyoh2ya
p2
I1
s.(dp0
Vcyoh2ya
p1
I1
sVd5z4474
p2
I1
s.(dp0
Vd61fd1m
p1
I1
sVcyoh2ya
p2
I1
s.(dp0
Vd6lq2zc
p1
I1
sVcyoh2ya
p2
I1
s.(dp0
Vcyoh2ya
p1
I1
sVd6muikl
p2
I1
s.(dp0
Vd6pvv5o
p1
I1
sVcyoh2ya
p2
I1
s.(dp0
Vcyoh2ya
p1
I1
sVd717sfu
p2
I1
s.(dp0
Vcyoh2ya
p1
I1
sVd7fbpl3
p2
I1
s.(dp0
Vcyoh2ya
p1
I1
sVd7fbpl3
p2
I1
s.(dp0
Vcyoh2ya
p1
I1
sVd7fbpl3
p2
I1
s.(dp0
Vcyoh2ya
p1
I1
sVd7fbpl3
p2
I1
s.(dp0
Vd7sxx2y
p1
I1
sVcyoh2ya
p2
I1
s.(dp0
Vcyoh2ya
p1
I1
sVd7tcfb6
p2
I1
s.(dp0
Vcyoh2ya
p1
I1
sVd7tcfb6
p2
I1
s.(dp0
Vd7tfb8z
p1
I1
sVcyoh2ya
p2
I1
s.(dp0
Vd86ckph
p1
I1
sVcyoh2ya
p2
I1
s.(dp0
Vd88nlzz
p1
I1
sVcyoh2ya
p2
I1
s.(dp0
Vd8aennf
p1
I1
sVcyoh2ya
p2
I1
s.(dp0
Vd8aennf
p1
I1
sVcyoh2ya
p2
I1
s.(dp0
Vcyoh2ya
p1
I1
sVd8byut1
p2
I1
s.(dp0
Vcyoh2ya
p1
I1
sVd8gd8uq
p2
I1
s.(dp0
Vd8uljrz
p1
I1
sVcyoh2ya
p2
I1
s.(dp0
Vcyoh2ya
p1
I1
sVd8w8jhs
p2
I1
s.(dp0
Vd90a9t7
p1
I1
sVcyoh2ya
p2
I1
s.(dp0
Vd9a7cwz
p1
I1
sVcyoh2ya
p2
I1
s.(dp0
Vd9geqt5
p1
I1
sVcyoh2ya
p2
I1
s.(dp0
Vd9gj88r
p1
I1
sVcyoh2ya
p2
I1
s.(dp0
Vd9gj88r
p1
I1
sVcyoh2ya
p2
I1
s.(dp0
Vcyoh2ya
p1
I1
sVda268x2
p2
I1
s.(dp0
Vda6unkq
p1
I1
sVcyoh2ya
p2
I1
s.(dp0
Vda6unkq
p1
I1
sVcyoh2ya
p2
I1
s.(dp0
Vcyoh2ya
p1
I1
sVda8v47b
p2
I1
s.(dp0
Vdah61oz
p1
I1
sVcyoh2ya
p2
I1
s.(dp0
Vdakb8gg
p1
I1
sVcyoh2ya
p2
I1
s.(dp0
Vcyoh2ya
p1
I1
sVdau0fkw
p2
I1
s.(dp0
Vdb6uypf
p1
I1
sVcyoh2ya
p2
I1
s.(dp0
Vdbmyvwp
p1
I1
sVcyoh2ya
p2
I1
s.(dp0
Vcyoh2ya
p1
I1
sVdbmzjcz
p2
I1
s.(dp0
Vcyoh2ya
p1
I1
sVdbnqzx4
p2
I1
s.(dp0
Vcyoh2ya
p1
I1
sVdbpc7gt
p2
I1
s.(dp0
Vcyoh2ya
p1
I1
sVdbq6sx6
p2
I1
s.(dp0
Vdcd6bvn
p1
I1
sVcyoh2ya
p2
I1
s.(dp0
Vdcd6bvn
p1
I1
sVcyoh2ya
p2
I1
s.(dp0
Vdcd6bvn
p1
I1
sVcyoh2ya
p2
I1
s.(dp0
Vdceomf5
p1
I1
sVcyoh2ya
p2
I1
s.(dp0
Vdceomf5
p1
I1
sVcyoh2ya
p2
I1
s.(dp0
Vdceomf5
p1
I1
sVcyoh2ya
p2
I1
s.(dp0
Vdcf6zi8
p1
I1
sVcyoh2ya
p2
I1
s.(dp0
Vdcf6zi8
p1
I1
sVcyoh2ya
p2
I1
s.(dp0
Vdcf6zi8
p1
I1
sVcyoh2ya
p2
I1
s.(dp0
Vdcf6zi8
p1
I1
sVcyoh2ya
p2
I1
s.(dp0
Vcyoh2ya
p1
I1
sVdcg8tug
p2
I1
s.(dp0
Vcyoh2ya
p1
I1
sVdckk88s
p2
I1
s.(dp0
Vdcw2f90
p1
I1
sVcyoh2ya
p2
I1
s.(dp0
Vddgknvs
p1
I1
sVcyoh2ya
p2
I1
s.(dp0
Vddiik6v
p1
I1
sVcyoh2ya
p2
I1
s.(dp0
Vdd(dp0
Vdkyhrdo
p1
I1
sVcyoh2ya
p2
I1
s.